; Listing generated by Microsoft (R) Optimizing Compiler Version 13.10.3077 

	TITLE	.\src\module\TopPanel\TopPanelWnd.cpp
	.386P
include listing.inc
if @Version gt 510
.model FLAT
else
_TEXT	SEGMENT PARA USE32 PUBLIC 'CODE'
_TEXT	ENDS
_DATA	SEGMENT DWORD USE32 PUBLIC 'DATA'
_DATA	ENDS
CONST	SEGMENT DWORD USE32 PUBLIC 'CONST'
CONST	ENDS
_BSS	SEGMENT DWORD USE32 PUBLIC 'BSS'
_BSS	ENDS
$$SYMBOLS	SEGMENT BYTE USE32 'DEBSYM'
$$SYMBOLS	ENDS
_TLS	SEGMENT DWORD USE32 PUBLIC 'TLS'
_TLS	ENDS
;	COMDAT ??_C@_0P@MDHCGOCC@m_pMemMgr?5?$DN?$DN?50?$AA@
CONST	SEGMENT DWORD USE32 PUBLIC 'CONST'
CONST	ENDS
;	COMDAT ??_C@_0FF@PEBLHPJJ@D?3?2Program?5Files?5?$CIx86?$CJ?2Microsoft@
CONST	SEGMENT DWORD USE32 PUBLIC 'CONST'
CONST	ENDS
;	COMDAT ??_C@_0BK@KICONMKH@pData?9?$DOpStringMgr?5?$DN?$DN?5this?$AA@
CONST	SEGMENT DWORD USE32 PUBLIC 'CONST'
CONST	ENDS
;	COMDAT ??_C@_0CG@HPMMCKHL@?$CI?$CIWORD?$CJ?$CI?$CIDWORD_PTR?$CJ?$CIpsz?$CJ?5?$DO?$DO?516?$CJ?$CJ@
CONST	SEGMENT DWORD USE32 PUBLIC 'CONST'
CONST	ENDS
;	COMDAT ??_C@_0M@GOJCFFEC@iStart?5?$DO?$DN?50?$AA@
CONST	SEGMENT DWORD USE32 PUBLIC 'CONST'
CONST	ENDS
;	COMDAT ??_C@_0BL@PKIBFLAK@AtlIsValidString?$CI?5pszSub?5?$CJ?$AA@
CONST	SEGMENT DWORD USE32 PUBLIC 'CONST'
CONST	ENDS
;	COMDAT ??_C@_0DC@KJIHKHDE@?$CInCount?5?$DN?$DN?50?$CJ?5?$HM?$HM?5?$CI?$CIiFirst?$CLnCount@
CONST	SEGMENT DWORD USE32 PUBLIC 'CONST'
CONST	ENDS
;	COMDAT ??_C@_0EN@IBFBLEEG@D?3?2Program?5Files?5?$CIx86?$CJ?2Microsoft@
CONST	SEGMENT DWORD USE32 PUBLIC 'CONST'
CONST	ENDS
;	COMDAT ??_C@_0BD@OLBABOEK@vector?$DMT?$DO?5too?5long?$AA@
CONST	SEGMENT DWORD USE32 PUBLIC 'CONST'
CONST	ENDS
rdata$r	SEGMENT DWORD USE32 PUBLIC 'CONST'
rdata$r	ENDS
xdata$x	SEGMENT DWORD USE32 PUBLIC 'CONST'
xdata$x	ENDS
text$AFX_COL1	SEGMENT PARA USE32 PUBLIC ''
text$AFX_COL1	ENDS
text$yc	SEGMENT PARA USE32 PUBLIC 'CODE'
text$yc	ENDS
CRT$XCA	SEGMENT DWORD USE32 PUBLIC 'DATA'
CRT$XCA	ENDS
CRT$XCU	SEGMENT DWORD USE32 PUBLIC 'DATA'
CRT$XCU	ENDS
CRT$XCL	SEGMENT DWORD USE32 PUBLIC 'DATA'
CRT$XCL	ENDS
CRT$XCC	SEGMENT DWORD USE32 PUBLIC 'DATA'
CRT$XCC	ENDS
CRT$XCZ	SEGMENT DWORD USE32 PUBLIC 'DATA'
CRT$XCZ	ENDS
text$yd	SEGMENT PARA USE32 PUBLIC 'CODE'
text$yd	ENDS
ATL$__m	SEGMENT DWORD USE32 PUBLIC ''
ATL$__m	ENDS
ATL$__z	SEGMENT DWORD USE32 PUBLIC ''
ATL$__z	ENDS
ATL$__a	SEGMENT DWORD USE32 PUBLIC ''
ATL$__a	ENDS
;	COMDAT ??1IData@@MAE@XZ
_TEXT	SEGMENT PARA USE32 PUBLIC 'CODE'
_TEXT	ENDS
;	COMDAT ?DataAppStart@IData@@UAEXXZ
_TEXT	SEGMENT PARA USE32 PUBLIC 'CODE'
_TEXT	ENDS
;	COMDAT ?DataAppExit@IData@@UAEXXZ
_TEXT	SEGMENT PARA USE32 PUBLIC 'CODE'
_TEXT	ENDS
;	COMDAT ??_GIData@@MAEPAXI@Z
_TEXT	SEGMENT PARA USE32 PUBLIC 'CODE'
_TEXT	ENDS
;	COMDAT ?ILayoutChangeOb_LayerChanged@ILayoutChangeObserver@@UAEXV?$basic_string@DU?$char_traits@D@std@@V?$allocator@D@2@@std@@00@Z
_TEXT	SEGMENT PARA USE32 PUBLIC 'CODE'
_TEXT	ENDS
;	COMDAT ?ILayoutChangeOb_PaneChanged@ILayoutChangeObserver@@UAEXV?$basic_string@DU?$char_traits@D@std@@V?$allocator@D@2@@std@@0@Z
_TEXT	SEGMENT PARA USE32 PUBLIC 'CODE'
_TEXT	ENDS
;	COMDAT ?ILayoutChangeOb_SkinChanged@ILayoutChangeObserver@@UAEXV?$basic_string@DU?$char_traits@D@std@@V?$allocator@D@2@@std@@0@Z
_TEXT	SEGMENT PARA USE32 PUBLIC 'CODE'
_TEXT	ENDS
;	COMDAT ?ILayoutChangeOb_ColorChanged@ILayoutChangeObserver@@UAEXXZ
_TEXT	SEGMENT PARA USE32 PUBLIC 'CODE'
_TEXT	ENDS
;	COMDAT ?ILayoutChangeOb_ColorChanging@ILayoutChangeObserver@@UAEXXZ
_TEXT	SEGMENT PARA USE32 PUBLIC 'CODE'
_TEXT	ENDS
;	COMDAT ?ILayoutChangeOb_UpdateLayout@ILayoutChangeObserver@@UAEXPAUHWND__@@@Z
_TEXT	SEGMENT PARA USE32 PUBLIC 'CODE'
_TEXT	ENDS
;	COMDAT ?ILayoutChangeOb_InitFinished@ILayoutChangeObserver@@UAEXXZ
_TEXT	SEGMENT PARA USE32 PUBLIC 'CODE'
_TEXT	ENDS
;	COMDAT ?ILayoutChangeOb_InitBegin@ILayoutChangeObserver@@UAEXXZ
_TEXT	SEGMENT PARA USE32 PUBLIC 'CODE'
_TEXT	ENDS
;	COMDAT ?IPanelChangeOb_WindowMax@IPanelChangeObserver@@UAEXXZ
_TEXT	SEGMENT PARA USE32 PUBLIC 'CODE'
_TEXT	ENDS
;	COMDAT ?IPanelChangeOb_WindowMin@IPanelChangeObserver@@UAEXXZ
_TEXT	SEGMENT PARA USE32 PUBLIC 'CODE'
_TEXT	ENDS
;	COMDAT ?IPanelChangeOb_WindowRestore@IPanelChangeObserver@@UAEXXZ
_TEXT	SEGMENT PARA USE32 PUBLIC 'CODE'
_TEXT	ENDS
;	COMDAT ?IPanelChangeOb_WindowClose@IPanelChangeObserver@@UAEXXZ
_TEXT	SEGMENT PARA USE32 PUBLIC 'CODE'
_TEXT	ENDS
;	COMDAT ?IPanelChangeOb_ToFullScreen@IPanelChangeObserver@@UAEXPAVCWnd@@@Z
_TEXT	SEGMENT PARA USE32 PUBLIC 'CODE'
_TEXT	ENDS
;	COMDAT ?IPanelChangeOb_ExitFullScreen@IPanelChangeObserver@@UAEXPAVCWnd@@@Z
_TEXT	SEGMENT PARA USE32 PUBLIC 'CODE'
_TEXT	ENDS
;	COMDAT ?SetTopPanel@CTopPanelControl@@QAEXPAVCTopPanelWnd@@@Z
_TEXT	SEGMENT PARA USE32 PUBLIC 'CODE'
_TEXT	ENDS
;	COMDAT ?clear@OneLocalGame@@QAEXXZ
_TEXT	SEGMENT PARA USE32 PUBLIC 'CODE'
_TEXT	ENDS
;	COMDAT _$E5
text$yc	SEGMENT PARA USE32 PUBLIC 'CODE'
text$yc	ENDS
;	COMDAT _$E7
text$yc	SEGMENT PARA USE32 PUBLIC 'CODE'
text$yc	ENDS
;	COMDAT _$E9
text$yc	SEGMENT PARA USE32 PUBLIC 'CODE'
text$yc	ENDS
;	COMDAT ??1DIBINFO@@UAE@XZ
_TEXT	SEGMENT PARA USE32 PUBLIC 'CODE'
_TEXT	ENDS
;	COMDAT ??_GDIBINFO@@UAEPAXI@Z
_TEXT	SEGMENT PARA USE32 PUBLIC 'CODE'
_TEXT	ENDS
;	COMDAT ??1CGdiPlusBitmap@@UAE@XZ
_TEXT	SEGMENT PARA USE32 PUBLIC 'CODE'
_TEXT	ENDS
;	COMDAT ?Empty@CGdiPlusBitmap@@QAEXXZ
_TEXT	SEGMENT PARA USE32 PUBLIC 'CODE'
_TEXT	ENDS
;	COMDAT ?Load@CGdiPlusBitmap@@QAE_NPB_W@Z
_TEXT	SEGMENT PARA USE32 PUBLIC 'CODE'
_TEXT	ENDS
;	COMDAT ??_GCGdiPlusBitmap@@UAEPAXI@Z
_TEXT	SEGMENT PARA USE32 PUBLIC 'CODE'
_TEXT	ENDS
;	COMDAT ??1CGdiPlusBitmap@CSkinButton@@UAE@XZ
_TEXT	SEGMENT PARA USE32 PUBLIC 'CODE'
_TEXT	ENDS
;	COMDAT ?Empty@CGdiPlusBitmap@CSkinButton@@QAEXXZ
_TEXT	SEGMENT PARA USE32 PUBLIC 'CODE'
_TEXT	ENDS
;	COMDAT ?Load@CGdiPlusBitmap@CSkinButton@@QAE_NPB_W@Z
_TEXT	SEGMENT PARA USE32 PUBLIC 'CODE'
_TEXT	ENDS
;	COMDAT ??_GCGdiPlusBitmap@CSkinButton@@UAEPAXI@Z
_TEXT	SEGMENT PARA USE32 PUBLIC 'CODE'
_TEXT	ENDS
;	COMDAT ??1HTTPObserver@@UAE@XZ
_TEXT	SEGMENT PARA USE32 PUBLIC 'CODE'
_TEXT	ENDS
;	COMDAT ?HTTPOb_DownStart@HTTPObserver@@UAEXPBD0I@Z
_TEXT	SEGMENT PARA USE32 PUBLIC 'CODE'
_TEXT	ENDS
;	COMDAT ?HTTPOb_DownFinish@HTTPObserver@@UAEXPBD@Z
_TEXT	SEGMENT PARA USE32 PUBLIC 'CODE'
_TEXT	ENDS
;	COMDAT ?HTTPOb_DownFailed@HTTPObserver@@UAEXPBDW4HTTP_DOWN_FAILED_REASON@@@Z
_TEXT	SEGMENT PARA USE32 PUBLIC 'CODE'
_TEXT	ENDS
;	COMDAT ?HTTPOb_DownProgress@HTTPObserver@@UAEXPBDII@Z
_TEXT	SEGMENT PARA USE32 PUBLIC 'CODE'
_TEXT	ENDS
;	COMDAT ?HTTPOb_DownloadPause@HTTPObserver@@UAEXPBD@Z
_TEXT	SEGMENT PARA USE32 PUBLIC 'CODE'
_TEXT	ENDS
;	COMDAT ??_GHTTPObserver@@UAEPAXI@Z
_TEXT	SEGMENT PARA USE32 PUBLIC 'CODE'
_TEXT	ENDS
;	COMDAT ??1P2PObserver@@UAE@XZ
_TEXT	SEGMENT PARA USE32 PUBLIC 'CODE'
_TEXT	ENDS
;	COMDAT ?P2POb_DownStart@P2PObserver@@UAEXABV?$basic_string@DU?$char_traits@D@std@@V?$allocator@D@2@@std@@PBDI@Z
_TEXT	SEGMENT PARA USE32 PUBLIC 'CODE'
_TEXT	ENDS
;	COMDAT ?P2POb_DownFinish@P2PObserver@@UAEXABV?$basic_string@DU?$char_traits@D@std@@V?$allocator@D@2@@std@@@Z
_TEXT	SEGMENT PARA USE32 PUBLIC 'CODE'
_TEXT	ENDS
;	COMDAT ?P2POb_DownFailed@P2PObserver@@UAEXABV?$basic_string@DU?$char_traits@D@std@@V?$allocator@D@2@@std@@W4P2P_DOWN_FAILED_REASON@@@Z
_TEXT	SEGMENT PARA USE32 PUBLIC 'CODE'
_TEXT	ENDS
;	COMDAT ?P2POb_DownProgress@P2PObserver@@UAEXABV?$basic_string@DU?$char_traits@D@std@@V?$allocator@D@2@@std@@III@Z
_TEXT	SEGMENT PARA USE32 PUBLIC 'CODE'
_TEXT	ENDS
;	COMDAT ?P2POb_DownPause@P2PObserver@@UAEXABV?$basic_string@DU?$char_traits@D@std@@V?$allocator@D@2@@std@@@Z
_TEXT	SEGMENT PARA USE32 PUBLIC 'CODE'
_TEXT	ENDS
;	COMDAT ?P2POb_SigChange@P2PObserver@@UAEXABV?$basic_string@DU?$char_traits@D@std@@V?$allocator@D@2@@std@@0PBD@Z
_TEXT	SEGMENT PARA USE32 PUBLIC 'CODE'
_TEXT	ENDS
;	COMDAT ??_GP2PObserver@@UAEPAXI@Z
_TEXT	SEGMENT PARA USE32 PUBLIC 'CODE'
_TEXT	ENDS
;	COMDAT ?GetClsid@CShockwaveFlash@@QAEABU_GUID@@XZ
_TEXT	SEGMENT PARA USE32 PUBLIC 'CODE'
_TEXT	ENDS
;	COMDAT ??1CAtlStringMgr@ATL@@UAE@XZ
_TEXT	SEGMENT PARA USE32 PUBLIC 'CODE'
_TEXT	ENDS
;	COMDAT ?Allocate@CAtlStringMgr@ATL@@UAEPAUCStringData@2@HH@Z
_TEXT	SEGMENT PARA USE32 PUBLIC 'CODE'
_TEXT	ENDS
;	COMDAT ?Free@CAtlStringMgr@ATL@@UAEXPAUCStringData@2@@Z
_TEXT	SEGMENT PARA USE32 PUBLIC 'CODE'
_TEXT	ENDS
;	COMDAT ?Reallocate@CAtlStringMgr@ATL@@UAEPAUCStringData@2@PAU32@HH@Z
_TEXT	SEGMENT PARA USE32 PUBLIC 'CODE'
_TEXT	ENDS
;	COMDAT ?GetNilString@CAtlStringMgr@ATL@@UAEPAUCStringData@2@XZ
_TEXT	SEGMENT PARA USE32 PUBLIC 'CODE'
_TEXT	ENDS
;	COMDAT ?Clone@CAtlStringMgr@ATL@@UAEPAUIAtlStringMgr@2@XZ
_TEXT	SEGMENT PARA USE32 PUBLIC 'CODE'
_TEXT	ENDS
;	COMDAT ??_GCAtlStringMgr@ATL@@UAEPAXI@Z
_TEXT	SEGMENT PARA USE32 PUBLIC 'CODE'
_TEXT	ENDS
;	COMDAT ?CompareStringW@?$ChTraitsOS@_W@ATL@@KGHKKPB_WH0H@Z
_TEXT	SEGMENT PARA USE32 PUBLIC 'CODE'
_TEXT	ENDS
;	COMDAT ?GetStringTypeExW@?$ChTraitsOS@_W@ATL@@KGHKKPB_WHPAG@Z
_TEXT	SEGMENT PARA USE32 PUBLIC 'CODE'
_TEXT	ENDS
;	COMDAT ?lstrcmpiW@?$ChTraitsOS@_W@ATL@@KGHPB_W0@Z
_TEXT	SEGMENT PARA USE32 PUBLIC 'CODE'
_TEXT	ENDS
;	COMDAT ?CharLowerW@?$ChTraitsOS@_W@ATL@@KGPA_WPA_W@Z
_TEXT	SEGMENT PARA USE32 PUBLIC 'CODE'
_TEXT	ENDS
;	COMDAT ?CharUpperW@?$ChTraitsOS@_W@ATL@@KGPA_WPA_W@Z
_TEXT	SEGMENT PARA USE32 PUBLIC 'CODE'
_TEXT	ENDS
;	COMDAT ?strchr@?$ChTraitsOS@_W@ATL@@SAPB_WPB_W_W@Z
_TEXT	SEGMENT PARA USE32 PUBLIC 'CODE'
_TEXT	ENDS
;	COMDAT ?strrchr@?$ChTraitsOS@_W@ATL@@SAPB_WPB_W_W@Z
_TEXT	SEGMENT PARA USE32 PUBLIC 'CODE'
_TEXT	ENDS
;	COMDAT ?_strrev@?$ChTraitsOS@_W@ATL@@SAPA_WPA_W@Z
_TEXT	SEGMENT PARA USE32 PUBLIC 'CODE'
_TEXT	ENDS
;	COMDAT ?strstr@?$ChTraitsOS@_W@ATL@@SAPB_WPB_W0@Z
_TEXT	SEGMENT PARA USE32 PUBLIC 'CODE'
_TEXT	ENDS
;	COMDAT ?strspn@?$ChTraitsOS@_W@ATL@@SAHPB_W0@Z
_TEXT	SEGMENT PARA USE32 PUBLIC 'CODE'
_TEXT	ENDS
;	COMDAT ?strcspn@?$ChTraitsOS@_W@ATL@@SAHPB_W0@Z
_TEXT	SEGMENT PARA USE32 PUBLIC 'CODE'
_TEXT	ENDS
;	COMDAT ?strpbrk@?$ChTraitsOS@_W@ATL@@SAPB_WPB_W0@Z
_TEXT	SEGMENT PARA USE32 PUBLIC 'CODE'
_TEXT	ENDS
;	COMDAT ?StringFindString@?$ChTraitsOS@_W@ATL@@SAPB_WPB_W0@Z
_TEXT	SEGMENT PARA USE32 PUBLIC 'CODE'
_TEXT	ENDS
;	COMDAT ??_GCTopPanelWnd@@UAEPAXI@Z
_TEXT	SEGMENT PARA USE32 PUBLIC 'CODE'
_TEXT	ENDS
;	COMDAT ??0ILayoutChangeObserver@@QAE@XZ
_TEXT	SEGMENT PARA USE32 PUBLIC 'CODE'
_TEXT	ENDS
;	COMDAT ??1ILayoutChangeObserver@@UAE@XZ
_TEXT	SEGMENT PARA USE32 PUBLIC 'CODE'
_TEXT	ENDS
;	COMDAT ??0IPanelChangeObserver@@QAE@XZ
_TEXT	SEGMENT PARA USE32 PUBLIC 'CODE'
_TEXT	ENDS
;	COMDAT ??1IPanelChangeObserver@@UAE@XZ
_TEXT	SEGMENT PARA USE32 PUBLIC 'CODE'
_TEXT	ENDS
;	COMDAT ??_GILayoutChangeObserver@@UAEPAXI@Z
_TEXT	SEGMENT PARA USE32 PUBLIC 'CODE'
_TEXT	ENDS
;	COMDAT ??0IMessageObserver@@QAE@XZ
_TEXT	SEGMENT PARA USE32 PUBLIC 'CODE'
_TEXT	ENDS
;	COMDAT ??_GIPanelChangeObserver@@UAEPAXI@Z
_TEXT	SEGMENT PARA USE32 PUBLIC 'CODE'
_TEXT	ENDS
;	COMDAT ??_DCConfigDialog@@QAEXXZ
_TEXT	SEGMENT PARA USE32 PUBLIC 'CODE'
_TEXT	ENDS
;	COMDAT ??B?$CComPtrBase@UITypeInfo2@@@ATL@@QBEPAUITypeInfo2@@XZ
_TEXT	SEGMENT PARA USE32 PUBLIC 'CODE'
_TEXT	ENDS
;	COMDAT ?equal@?$istreambuf_iterator@DU?$char_traits@D@std@@@std@@QBE_NABV12@@Z
_TEXT	SEGMENT PARA USE32 PUBLIC 'CODE'
_TEXT	ENDS
;	COMDAT ?equal@?$istreambuf_iterator@_WU?$char_traits@_W@std@@@std@@QBE_NABV12@@Z
_TEXT	SEGMENT PARA USE32 PUBLIC 'CODE'
_TEXT	ENDS
;	COMDAT ??0?$vector@V?$basic_string@DU?$char_traits@D@std@@V?$allocator@D@2@@std@@V?$allocator@V?$basic_string@DU?$char_traits@D@std@@V?$allocator@D@2@@std@@@2@@std@@QAE@XZ
_TEXT	SEGMENT PARA USE32 PUBLIC 'CODE'
_TEXT	ENDS
;	COMDAT ??1?$vector@V?$basic_string@DU?$char_traits@D@std@@V?$allocator@D@2@@std@@V?$allocator@V?$basic_string@DU?$char_traits@D@std@@V?$allocator@D@2@@std@@@2@@std@@QAE@XZ
_TEXT	SEGMENT PARA USE32 PUBLIC 'CODE'
_TEXT	ENDS
;	COMDAT ?StringFindString@?$ChTraitsCRT@D@ATL@@SAPBDPBD0@Z
_TEXT	SEGMENT PARA USE32 PUBLIC 'CODE'
_TEXT	ENDS
;	COMDAT ??0?$allocator@V?$basic_string@DU?$char_traits@D@std@@V?$allocator@D@2@@std@@@std@@QAE@XZ
_TEXT	SEGMENT PARA USE32 PUBLIC 'CODE'
_TEXT	ENDS
;	COMDAT ?_Buy@?$vector@V?$basic_string@DU?$char_traits@D@std@@V?$allocator@D@2@@std@@V?$allocator@V?$basic_string@DU?$char_traits@D@std@@V?$allocator@D@2@@std@@@2@@std@@IAE_NI@Z
_TEXT	SEGMENT PARA USE32 PUBLIC 'CODE'
_TEXT	ENDS
;	COMDAT ?_Tidy@?$vector@V?$basic_string@DU?$char_traits@D@std@@V?$allocator@D@2@@std@@V?$allocator@V?$basic_string@DU?$char_traits@D@std@@V?$allocator@D@2@@std@@@2@@std@@IAEXXZ
_TEXT	SEGMENT PARA USE32 PUBLIC 'CODE'
_TEXT	ENDS
;	COMDAT ??0?$_Vector_val@V?$basic_string@DU?$char_traits@D@std@@V?$allocator@D@2@@std@@V?$allocator@V?$basic_string@DU?$char_traits@D@std@@V?$allocator@D@2@@std@@@2@@std@@IAE@V?$allocator@V?$basic_string@DU?$char_traits@D@std@@V?$allocator@D@2@@std@@@1@@Z
_TEXT	SEGMENT PARA USE32 PUBLIC 'CODE'
_TEXT	ENDS
;	COMDAT ??0?$allocator@V?$basic_string@DU?$char_traits@D@std@@V?$allocator@D@2@@std@@@std@@QAE@ABV01@@Z
_TEXT	SEGMENT PARA USE32 PUBLIC 'CODE'
_TEXT	ENDS
;	COMDAT ?deallocate@?$allocator@V?$basic_string@DU?$char_traits@D@std@@V?$allocator@D@2@@std@@@std@@QAEXPAV?$basic_string@DU?$char_traits@D@std@@V?$allocator@D@2@@2@I@Z
_TEXT	SEGMENT PARA USE32 PUBLIC 'CODE'
_TEXT	ENDS
;	COMDAT ?allocate@?$allocator@V?$basic_string@DU?$char_traits@D@std@@V?$allocator@D@2@@std@@@std@@QAEPAV?$basic_string@DU?$char_traits@D@std@@V?$allocator@D@2@@2@I@Z
_TEXT	SEGMENT PARA USE32 PUBLIC 'CODE'
_TEXT	ENDS
;	COMDAT ??0iterator@?$basic_string@DU?$char_traits@D@std@@V?$allocator@D@2@@std@@QAE@PAD@Z
_TEXT	SEGMENT PARA USE32 PUBLIC 'CODE'
_TEXT	ENDS
;	COMDAT ?max_size@?$vector@V?$basic_string@DU?$char_traits@D@std@@V?$allocator@D@2@@std@@V?$allocator@V?$basic_string@DU?$char_traits@D@std@@V?$allocator@D@2@@std@@@2@@std@@QBEIXZ
_TEXT	SEGMENT PARA USE32 PUBLIC 'CODE'
_TEXT	ENDS
;	COMDAT ?_Destroy@?$vector@V?$basic_string@DU?$char_traits@D@std@@V?$allocator@D@2@@std@@V?$allocator@V?$basic_string@DU?$char_traits@D@std@@V?$allocator@D@2@@std@@@2@@std@@IAEXPAV?$basic_string@DU?$char_traits@D@std@@V?$allocator@D@2@@2@0@Z
_TEXT	SEGMENT PARA USE32 PUBLIC 'CODE'
_TEXT	ENDS
;	COMDAT ?_Xlen@?$vector@V?$basic_string@DU?$char_traits@D@std@@V?$allocator@D@2@@std@@V?$allocator@V?$basic_string@DU?$char_traits@D@std@@V?$allocator@D@2@@std@@@2@@std@@IBEXXZ
_TEXT	SEGMENT PARA USE32 PUBLIC 'CODE'
_TEXT	ENDS
;	COMDAT ??0length_error@std@@QAE@ABV01@@Z
_TEXT	SEGMENT PARA USE32 PUBLIC 'CODE'
_TEXT	ENDS
;	COMDAT ?max_size@?$allocator@V?$basic_string@DU?$char_traits@D@std@@V?$allocator@D@2@@std@@@std@@QBEIXZ
_TEXT	SEGMENT PARA USE32 PUBLIC 'CODE'
_TEXT	ENDS
;	COMDAT ??0const_iterator@?$basic_string@DU?$char_traits@D@std@@V?$allocator@D@2@@std@@QAE@PBD@Z
_TEXT	SEGMENT PARA USE32 PUBLIC 'CODE'
_TEXT	ENDS
;	COMDAT ??Gconst_iterator@?$basic_string@DU?$char_traits@D@std@@V?$allocator@D@2@@std@@QBEHABV012@@Z
_TEXT	SEGMENT PARA USE32 PUBLIC 'CODE'
_TEXT	ENDS
;	COMDAT ?Unlock@?$CComCritSecLock@VCComCriticalSection@ATL@@@ATL@@QAEXXZ
_TEXT	SEGMENT PARA USE32 PUBLIC 'CODE'
_TEXT	ENDS
;	COMDAT ??$AtlAlignUp@H@ATL@@YGHHK@Z
_TEXT	SEGMENT PARA USE32 PUBLIC 'CODE'
_TEXT	ENDS
;	COMDAT ??$_Maklocstr@D@std@@YAPADPBDPADABU_Cvtvec@@@Z
_TEXT	SEGMENT PARA USE32 PUBLIC 'CODE'
_TEXT	ENDS
;	COMDAT ??$_Allocate@V?$basic_string@DU?$char_traits@D@std@@V?$allocator@D@2@@std@@@std@@YAPAV?$basic_string@DU?$char_traits@D@std@@V?$allocator@D@2@@0@IPAV10@@Z
_TEXT	SEGMENT PARA USE32 PUBLIC 'CODE'
_TEXT	ENDS
;	COMDAT ??$_Destroy_range@V?$basic_string@DU?$char_traits@D@std@@V?$allocator@D@2@@std@@V?$allocator@V?$basic_string@DU?$char_traits@D@std@@V?$allocator@D@2@@std@@@2@@std@@YAXPAV?$basic_string@DU?$char_traits@D@std@@V?$allocator@D@2@@0@0AAV?$allocator@V?$basic_string@DU?$char_traits@D@std@@V?$allocator@D@2@@std@@@0@@Z
_TEXT	SEGMENT PARA USE32 PUBLIC 'CODE'
_TEXT	ENDS
;	COMDAT ??$_Ptr_cat@PAV?$basic_string@DU?$char_traits@D@std@@V?$allocator@D@2@@std@@PAV12@@std@@YA?AU_Nonscalar_ptr_iterator_tag@0@AAPAV?$basic_string@DU?$char_traits@D@std@@V?$allocator@D@2@@0@0@Z
_TEXT	SEGMENT PARA USE32 PUBLIC 'CODE'
_TEXT	ENDS
;	COMDAT ??$_Destroy_range@V?$basic_string@DU?$char_traits@D@std@@V?$allocator@D@2@@std@@V?$allocator@V?$basic_string@DU?$char_traits@D@std@@V?$allocator@D@2@@std@@@2@@std@@YAXPAV?$basic_string@DU?$char_traits@D@std@@V?$allocator@D@2@@0@0AAV?$allocator@V?$basic_string@DU?$char_traits@D@std@@V?$allocator@D@2@@std@@@0@U_Nonscalar_ptr_iterator_tag@0@@Z
_TEXT	SEGMENT PARA USE32 PUBLIC 'CODE'
_TEXT	ENDS
;	COMDAT ?destroy@?$allocator@V?$basic_string@DU?$char_traits@D@std@@V?$allocator@D@2@@std@@@std@@QAEXPAV?$basic_string@DU?$char_traits@D@std@@V?$allocator@D@2@@2@@Z
_TEXT	SEGMENT PARA USE32 PUBLIC 'CODE'
_TEXT	ENDS
;	COMDAT ??$_Destroy@V?$basic_string@DU?$char_traits@D@std@@V?$allocator@D@2@@std@@@std@@YAXPAV?$basic_string@DU?$char_traits@D@std@@V?$allocator@D@2@@0@@Z
_TEXT	SEGMENT PARA USE32 PUBLIC 'CODE'
_TEXT	ENDS
;	COMDAT ??_G?$basic_string@DU?$char_traits@D@std@@V?$allocator@D@2@@std@@QAEPAXI@Z
_TEXT	SEGMENT PARA USE32 PUBLIC 'CODE'
_TEXT	ENDS
;	COMDAT ??_ECTopPanelWnd@@WFE@AEPAXI@Z
_TEXT	SEGMENT PARA USE32 PUBLIC 'CODE'
_TEXT	ENDS
;	COMDAT ??_ECTopPanelWnd@@WFI@AEPAXI@Z
_TEXT	SEGMENT PARA USE32 PUBLIC 'CODE'
_TEXT	ENDS
;	COMDAT ??_R3CTopPanelWnd@@8
rdata$r	SEGMENT DWORD USE32 PUBLIC 'CONST'
rdata$r	ENDS
;	COMDAT ??_R3DIBINFO@@8
rdata$r	SEGMENT DWORD USE32 PUBLIC 'CONST'
rdata$r	ENDS
;	COMDAT ??_R3?$numpunct@_W@std@@8
rdata$r	SEGMENT DWORD USE32 PUBLIC 'CONST'
rdata$r	ENDS
;	COMDAT ??_R3IPanelChangeObserver@@8
rdata$r	SEGMENT DWORD USE32 PUBLIC 'CONST'
rdata$r	ENDS
;	COMDAT ??_R3?$numpunct@D@std@@8
rdata$r	SEGMENT DWORD USE32 PUBLIC 'CONST'
rdata$r	ENDS
;	COMDAT ??_R3P2PObserver@@8
rdata$r	SEGMENT DWORD USE32 PUBLIC 'CONST'
rdata$r	ENDS
;	COMDAT ??_R3IData@@8
rdata$r	SEGMENT DWORD USE32 PUBLIC 'CONST'
rdata$r	ENDS
;	COMDAT ??_R3ILayoutChangeObserver@@8
rdata$r	SEGMENT DWORD USE32 PUBLIC 'CONST'
rdata$r	ENDS
;	COMDAT ??_R3CGdiPlusBitmap@CSkinButton@@8
rdata$r	SEGMENT DWORD USE32 PUBLIC 'CONST'
rdata$r	ENDS
;	COMDAT ??_R3CGdiPlusBitmap@@8
rdata$r	SEGMENT DWORD USE32 PUBLIC 'CONST'
rdata$r	ENDS
;	COMDAT ??_R3HTTPObserver@@8
rdata$r	SEGMENT DWORD USE32 PUBLIC 'CONST'
rdata$r	ENDS
;	COMDAT ??_R3CAtlStringMgr@ATL@@8
rdata$r	SEGMENT DWORD USE32 PUBLIC 'CONST'
rdata$r	ENDS
;	COMDAT ??_R2CTopPanelWnd@@8
rdata$r	SEGMENT DWORD USE32 PUBLIC 'CONST'
rdata$r	ENDS
;	COMDAT ??_R2DIBINFO@@8
rdata$r	SEGMENT DWORD USE32 PUBLIC 'CONST'
rdata$r	ENDS
;	COMDAT ??_R2?$numpunct@_W@std@@8
rdata$r	SEGMENT DWORD USE32 PUBLIC 'CONST'
rdata$r	ENDS
;	COMDAT ??_R2IPanelChangeObserver@@8
rdata$r	SEGMENT DWORD USE32 PUBLIC 'CONST'
rdata$r	ENDS
;	COMDAT ??_R2?$numpunct@D@std@@8
rdata$r	SEGMENT DWORD USE32 PUBLIC 'CONST'
rdata$r	ENDS
;	COMDAT ??_R2P2PObserver@@8
rdata$r	SEGMENT DWORD USE32 PUBLIC 'CONST'
rdata$r	ENDS
;	COMDAT ??_R2IData@@8
rdata$r	SEGMENT DWORD USE32 PUBLIC 'CONST'
rdata$r	ENDS
;	COMDAT ??_R2ILayoutChangeObserver@@8
rdata$r	SEGMENT DWORD USE32 PUBLIC 'CONST'
rdata$r	ENDS
;	COMDAT ??_R2CGdiPlusBitmap@CSkinButton@@8
rdata$r	SEGMENT DWORD USE32 PUBLIC 'CONST'
rdata$r	ENDS
;	COMDAT ??_R2CGdiPlusBitmap@@8
rdata$r	SEGMENT DWORD USE32 PUBLIC 'CONST'
rdata$r	ENDS
;	COMDAT ??_R2HTTPObserver@@8
rdata$r	SEGMENT DWORD USE32 PUBLIC 'CONST'
rdata$r	ENDS
;	COMDAT ??_R2CAtlStringMgr@ATL@@8
rdata$r	SEGMENT DWORD USE32 PUBLIC 'CONST'
rdata$r	ENDS
;	COMDAT ??_R1FI@?0A@1IMessageObserver@@8
rdata$r	SEGMENT DWORD USE32 PUBLIC 'CONST'
rdata$r	ENDS
;	COMDAT ??_R1FI@?0A@A@IPanelChangeObserver@@8
rdata$r	SEGMENT DWORD USE32 PUBLIC 'CONST'
rdata$r	ENDS
;	COMDAT ??_R1FE@?0A@1IMessageObserver@@8
rdata$r	SEGMENT DWORD USE32 PUBLIC 'CONST'
rdata$r	ENDS
;	COMDAT ??_R1FE@?0A@A@ILayoutChangeObserver@@8
rdata$r	SEGMENT DWORD USE32 PUBLIC 'CONST'
rdata$r	ENDS
;	COMDAT ??_R1A@?0A@A@CObject@@8
rdata$r	SEGMENT DWORD USE32 PUBLIC 'CONST'
rdata$r	ENDS
;	COMDAT ??_R0?AVCObject@@@8
_DATA	SEGMENT DWORD USE32 PUBLIC 'DATA'
_DATA	ENDS
;	COMDAT ??_R1A@?0A@A@CCmdTarget@@8
rdata$r	SEGMENT DWORD USE32 PUBLIC 'CONST'
rdata$r	ENDS
;	COMDAT ??_R0?AVCCmdTarget@@@8
_DATA	SEGMENT DWORD USE32 PUBLIC 'DATA'
_DATA	ENDS
;	COMDAT ??_R1A@?0A@A@CWnd@@8
rdata$r	SEGMENT DWORD USE32 PUBLIC 'CONST'
rdata$r	ENDS
;	COMDAT ??_R0?AVCWnd@@@8
_DATA	SEGMENT DWORD USE32 PUBLIC 'DATA'
_DATA	ENDS
;	COMDAT ??_R1A@?0A@A@CBasicWnd@@8
rdata$r	SEGMENT DWORD USE32 PUBLIC 'CONST'
rdata$r	ENDS
;	COMDAT ??_R1A@?0A@A@CTopPanelWnd@@8
rdata$r	SEGMENT DWORD USE32 PUBLIC 'CONST'
rdata$r	ENDS
;	COMDAT ??_R1A@?0A@A@DIBINFO@@8
rdata$r	SEGMENT DWORD USE32 PUBLIC 'CONST'
rdata$r	ENDS
;	COMDAT ??_R1A@?0A@A@?$numpunct@_W@std@@8
rdata$r	SEGMENT DWORD USE32 PUBLIC 'CONST'
rdata$r	ENDS
;	COMDAT ??_R1A@?0A@A@IPanelChangeObserver@@8
rdata$r	SEGMENT DWORD USE32 PUBLIC 'CONST'
rdata$r	ENDS
;	COMDAT ??_R1A@?0A@A@facet@locale@std@@8
rdata$r	SEGMENT DWORD USE32 PUBLIC 'CONST'
rdata$r	ENDS
;	COMDAT ??_R0?AVfacet@locale@std@@@8
_DATA	SEGMENT DWORD USE32 PUBLIC 'DATA'
_DATA	ENDS
;	COMDAT ??_R1A@?0A@A@?$numpunct@D@std@@8
rdata$r	SEGMENT DWORD USE32 PUBLIC 'CONST'
rdata$r	ENDS
;	COMDAT ??_R1A@?0A@A@P2PObserver@@8
rdata$r	SEGMENT DWORD USE32 PUBLIC 'CONST'
rdata$r	ENDS
;	COMDAT ??_R1A@?0A@A@IData@@8
rdata$r	SEGMENT DWORD USE32 PUBLIC 'CONST'
rdata$r	ENDS
;	COMDAT ??_R1A@?0A@A@IMessageObserver@@8
rdata$r	SEGMENT DWORD USE32 PUBLIC 'CONST'
rdata$r	ENDS
;	COMDAT ??_R1A@?0A@A@ILayoutChangeObserver@@8
rdata$r	SEGMENT DWORD USE32 PUBLIC 'CONST'
rdata$r	ENDS
;	COMDAT ??_R1A@?0A@A@CGdiPlusBitmap@CSkinButton@@8
rdata$r	SEGMENT DWORD USE32 PUBLIC 'CONST'
rdata$r	ENDS
;	COMDAT ??_R1A@?0A@A@CGdiPlusBitmap@@8
rdata$r	SEGMENT DWORD USE32 PUBLIC 'CONST'
rdata$r	ENDS
;	COMDAT ??_R1A@?0A@A@HTTPObserver@@8
rdata$r	SEGMENT DWORD USE32 PUBLIC 'CONST'
rdata$r	ENDS
;	COMDAT ??_R1A@?0A@A@IAtlStringMgr@ATL@@8
rdata$r	SEGMENT DWORD USE32 PUBLIC 'CONST'
rdata$r	ENDS
;	COMDAT ??_R0?AUIAtlStringMgr@ATL@@@8
_DATA	SEGMENT DWORD USE32 PUBLIC 'DATA'
_DATA	ENDS
;	COMDAT ??_R1A@?0A@A@CAtlStringMgr@ATL@@8
rdata$r	SEGMENT DWORD USE32 PUBLIC 'CONST'
rdata$r	ENDS
;	COMDAT ??_R0?AVIMessageObserver@@@8
_DATA	SEGMENT DWORD USE32 PUBLIC 'DATA'
_DATA	ENDS
;	COMDAT ??_R0?AVCBasicWnd@@@8
_DATA	SEGMENT DWORD USE32 PUBLIC 'DATA'
_DATA	ENDS
;	COMDAT ??_R0?AVCTopPanelWnd@@@8
_DATA	SEGMENT DWORD USE32 PUBLIC 'DATA'
_DATA	ENDS
;	COMDAT ??_R0?AVDIBINFO@@@8
_DATA	SEGMENT DWORD USE32 PUBLIC 'DATA'
_DATA	ENDS
;	COMDAT ??_R0?AV?$numpunct@_W@std@@@8
_DATA	SEGMENT DWORD USE32 PUBLIC 'DATA'
_DATA	ENDS
;	COMDAT ??_R0?AVIPanelChangeObserver@@@8
_DATA	SEGMENT DWORD USE32 PUBLIC 'DATA'
_DATA	ENDS
;	COMDAT ??_R0?AV?$numpunct@D@std@@@8
_DATA	SEGMENT DWORD USE32 PUBLIC 'DATA'
_DATA	ENDS
;	COMDAT ??_R0?AVP2PObserver@@@8
_DATA	SEGMENT DWORD USE32 PUBLIC 'DATA'
_DATA	ENDS
;	COMDAT ??_R0?AVIData@@@8
_DATA	SEGMENT DWORD USE32 PUBLIC 'DATA'
_DATA	ENDS
;	COMDAT ??_R0?AVILayoutChangeObserver@@@8
_DATA	SEGMENT DWORD USE32 PUBLIC 'DATA'
_DATA	ENDS
;	COMDAT ??_R0?AVCGdiPlusBitmap@CSkinButton@@@8
_DATA	SEGMENT DWORD USE32 PUBLIC 'DATA'
_DATA	ENDS
;	COMDAT ??_R0?AVCGdiPlusBitmap@@@8
_DATA	SEGMENT DWORD USE32 PUBLIC 'DATA'
_DATA	ENDS
;	COMDAT ??_R0?AVHTTPObserver@@@8
_DATA	SEGMENT DWORD USE32 PUBLIC 'DATA'
_DATA	ENDS
;	COMDAT ??_R0?AVCAtlStringMgr@ATL@@@8
_DATA	SEGMENT DWORD USE32 PUBLIC 'DATA'
_DATA	ENDS
;	COMDAT ??_R4CTopPanelWnd@@6BIPanelChangeObserver@@@
rdata$r	SEGMENT DWORD USE32 PUBLIC 'CONST'
rdata$r	ENDS
;	COMDAT ??_R4CTopPanelWnd@@6BILayoutChangeObserver@@@
rdata$r	SEGMENT DWORD USE32 PUBLIC 'CONST'
rdata$r	ENDS
;	COMDAT ??_R4CTopPanelWnd@@6BCBasicWnd@@@
rdata$r	SEGMENT DWORD USE32 PUBLIC 'CONST'
rdata$r	ENDS
;	COMDAT ??_R4DIBINFO@@6B@
rdata$r	SEGMENT DWORD USE32 PUBLIC 'CONST'
rdata$r	ENDS
;	COMDAT ??0?$allocator@_W@std@@QAE@XZ
_TEXT	SEGMENT PARA USE32 PUBLIC 'CODE'
_TEXT	ENDS
;	COMDAT ??_G?$numpunct@_W@std@@MAEPAXI@Z
_TEXT	SEGMENT PARA USE32 PUBLIC 'CODE'
_TEXT	ENDS
;	COMDAT ??_R4?$numpunct@_W@std@@6B@
rdata$r	SEGMENT DWORD USE32 PUBLIC 'CONST'
rdata$r	ENDS
;	COMDAT ??_R4IPanelChangeObserver@@6B@
rdata$r	SEGMENT DWORD USE32 PUBLIC 'CONST'
rdata$r	ENDS
;	COMDAT ??_G?$numpunct@D@std@@MAEPAXI@Z
_TEXT	SEGMENT PARA USE32 PUBLIC 'CODE'
_TEXT	ENDS
;	COMDAT ??_R4?$numpunct@D@std@@6B@
rdata$r	SEGMENT DWORD USE32 PUBLIC 'CONST'
rdata$r	ENDS
;	COMDAT ??_R4P2PObserver@@6B@
rdata$r	SEGMENT DWORD USE32 PUBLIC 'CONST'
rdata$r	ENDS
;	COMDAT ??_R4IData@@6B@
rdata$r	SEGMENT DWORD USE32 PUBLIC 'CONST'
rdata$r	ENDS
;	COMDAT ??_R4ILayoutChangeObserver@@6B@
rdata$r	SEGMENT DWORD USE32 PUBLIC 'CONST'
rdata$r	ENDS
;	COMDAT ??_R4CGdiPlusBitmap@CSkinButton@@6B@
rdata$r	SEGMENT DWORD USE32 PUBLIC 'CONST'
rdata$r	ENDS
;	COMDAT ??_R4CGdiPlusBitmap@@6B@
rdata$r	SEGMENT DWORD USE32 PUBLIC 'CONST'
rdata$r	ENDS
;	COMDAT ??_R4HTTPObserver@@6B@
rdata$r	SEGMENT DWORD USE32 PUBLIC 'CONST'
rdata$r	ENDS
;	COMDAT ??_R4CAtlStringMgr@ATL@@6B@
rdata$r	SEGMENT DWORD USE32 PUBLIC 'CONST'
rdata$r	ENDS
;	COMDAT ??_C@_0EN@CBMLGOH@D?3?2Program?5Files?5?$CIx86?$CJ?2Microsoft@
CONST	SEGMENT DWORD USE32 PUBLIC 'CONST'
CONST	ENDS
;	COMDAT ?_Psave@?$_Facetptr@V?$numpunct@_W@std@@@std@@2PBVfacet@locale@2@B
_DATA	SEGMENT DWORD USE32 PUBLIC 'DATA'
_DATA	ENDS
;	COMDAT ?_Psave@?$_Facetptr@V?$numpunct@D@std@@@std@@2PBVfacet@locale@2@B
_DATA	SEGMENT DWORD USE32 PUBLIC 'DATA'
_DATA	ENDS
;	COMDAT ?Unlock@CComCriticalSection@ATL@@QAEJXZ
_TEXT	SEGMENT PARA USE32 PUBLIC 'CODE'
_TEXT	ENDS
;	COMDAT ??_C@_0FG@LDNDNCJM@D?3?2Program?5Files?5?$CIx86?$CJ?2Microsoft@
CONST	SEGMENT DWORD USE32 PUBLIC 'CONST'
CONST	ENDS
;	COMDAT ??_C@_09HIEJFN@m_bLocked?$AA@
CONST	SEGMENT DWORD USE32 PUBLIC 'CONST'
CONST	ENDS
;	COMDAT ?_Psave@?$_Facetptr@V?$ctype@_W@std@@@std@@2PBVfacet@locale@2@B
_DATA	SEGMENT DWORD USE32 PUBLIC 'DATA'
_DATA	ENDS
;	COMDAT ?_Psave@?$_Facetptr@V?$ctype@D@std@@@std@@2PBVfacet@locale@2@B
_DATA	SEGMENT DWORD USE32 PUBLIC 'DATA'
_DATA	ENDS
;	COMDAT ??_7length_error@std@@6B@
CONST	SEGMENT DWORD USE32 PUBLIC 'CONST'
CONST	ENDS
;	COMDAT ??_R4length_error@std@@6B@
rdata$r	SEGMENT DWORD USE32 PUBLIC 'CONST'
rdata$r	ENDS
;	COMDAT ??_R3length_error@std@@8
rdata$r	SEGMENT DWORD USE32 PUBLIC 'CONST'
rdata$r	ENDS
;	COMDAT ??_R2length_error@std@@8
rdata$r	SEGMENT DWORD USE32 PUBLIC 'CONST'
rdata$r	ENDS
;	COMDAT ??_R1A@?0A@A@length_error@std@@8
rdata$r	SEGMENT DWORD USE32 PUBLIC 'CONST'
rdata$r	ENDS
;	COMDAT ??_R1A@?0A@A@logic_error@std@@8
rdata$r	SEGMENT DWORD USE32 PUBLIC 'CONST'
rdata$r	ENDS
;	COMDAT ??_R0?AVlogic_error@std@@@8
_DATA	SEGMENT DWORD USE32 PUBLIC 'DATA'
_DATA	ENDS
;	COMDAT ??_R1A@?0A@A@exception@@8
rdata$r	SEGMENT DWORD USE32 PUBLIC 'CONST'
rdata$r	ENDS
;	COMDAT ??_R0?AVexception@@@8
_DATA	SEGMENT DWORD USE32 PUBLIC 'DATA'
_DATA	ENDS
;	COMDAT ??_Glength_error@std@@UAEPAXI@Z
_TEXT	SEGMENT PARA USE32 PUBLIC 'CODE'
_TEXT	ENDS
;	COMDAT ?what@logic_error@std@@UBEPBDXZ
_TEXT	SEGMENT PARA USE32 PUBLIC 'CODE'
_TEXT	ENDS
;	COMDAT ??1logic_error@std@@UAE@XZ
_TEXT	SEGMENT PARA USE32 PUBLIC 'CODE'
_TEXT	ENDS
;	COMDAT ??_7logic_error@std@@6B@
CONST	SEGMENT DWORD USE32 PUBLIC 'CONST'
CONST	ENDS
;	COMDAT ??_R4logic_error@std@@6B@
rdata$r	SEGMENT DWORD USE32 PUBLIC 'CONST'
rdata$r	ENDS
;	COMDAT ??_R3logic_error@std@@8
rdata$r	SEGMENT DWORD USE32 PUBLIC 'CONST'
rdata$r	ENDS
;	COMDAT ??_R2logic_error@std@@8
rdata$r	SEGMENT DWORD USE32 PUBLIC 'CONST'
rdata$r	ENDS
;	COMDAT ??_Glogic_error@std@@UAEPAXI@Z
_TEXT	SEGMENT PARA USE32 PUBLIC 'CODE'
_TEXT	ENDS
;	COMDAT ??0logic_error@std@@QAE@ABV01@@Z
_TEXT	SEGMENT PARA USE32 PUBLIC 'CODE'
_TEXT	ENDS
;	COMDAT __CTA3?AVlength_error@std@@
xdata$x	SEGMENT DWORD USE32 PUBLIC 'CONST'
xdata$x	ENDS
;	COMDAT ??1length_error@std@@UAE@XZ
_TEXT	SEGMENT PARA USE32 PUBLIC 'CODE'
_TEXT	ENDS
;	COMDAT __CT??_R0?AVexception@@@8??0exception@@QAE@ABV0@@Z12
xdata$x	SEGMENT DWORD USE32 PUBLIC 'CONST'
xdata$x	ENDS
;	COMDAT __CT??_R0?AVlogic_error@std@@@8??0logic_error@std@@QAE@ABV01@@Z40
xdata$x	SEGMENT DWORD USE32 PUBLIC 'CONST'
xdata$x	ENDS
;	COMDAT __CT??_R0?AVlength_error@std@@@8??0length_error@std@@QAE@ABV01@@Z40
xdata$x	SEGMENT DWORD USE32 PUBLIC 'CONST'
xdata$x	ENDS
;	COMDAT ??_R0?AVlength_error@std@@@8
_DATA	SEGMENT DWORD USE32 PUBLIC 'DATA'
_DATA	ENDS
;	COMDAT __TI3?AVlength_error@std@@
xdata$x	SEGMENT DWORD USE32 PUBLIC 'CONST'
xdata$x	ENDS
;	COMDAT ??0length_error@std@@QAE@ABV?$basic_string@DU?$char_traits@D@std@@V?$allocator@D@2@@1@@Z
_TEXT	SEGMENT PARA USE32 PUBLIC 'CODE'
_TEXT	ENDS
;	COMDAT ??0logic_error@std@@QAE@ABV?$basic_string@DU?$char_traits@D@std@@V?$allocator@D@2@@1@@Z
_TEXT	SEGMENT PARA USE32 PUBLIC 'CODE'
_TEXT	ENDS
;	COMDAT ??$_Maklocchr@_W@std@@YA_WDPA_WABU_Cvtvec@@@Z
_TEXT	SEGMENT PARA USE32 PUBLIC 'CODE'
_TEXT	ENDS
;	COMDAT ??$_DebugHeapDelete@X@std@@YAXPAX@Z
_TEXT	SEGMENT PARA USE32 PUBLIC 'CODE'
_TEXT	ENDS
;	COMDAT ??$_Maklocstr@_W@std@@YAPA_WPBDPA_WABU_Cvtvec@@@Z
_TEXT	SEGMENT PARA USE32 PUBLIC 'CODE'
_TEXT	ENDS
;	COMDAT ??$_Maklocchr@D@std@@YADDPADABU_Cvtvec@@@Z
_TEXT	SEGMENT PARA USE32 PUBLIC 'CODE'
_TEXT	ENDS
;	COMDAT ??_C@_04LOAJBDKD@true?$AA@
CONST	SEGMENT DWORD USE32 PUBLIC 'CONST'
CONST	ENDS
;	COMDAT ??_C@_05LAPONLG@false?$AA@
CONST	SEGMENT DWORD USE32 PUBLIC 'CONST'
CONST	ENDS
;	COMDAT _wmemcpy
_TEXT	SEGMENT PARA USE32 PUBLIC 'CODE'
_TEXT	ENDS
;	COMDAT ?max_size@?$allocator@_W@std@@QBEIXZ
_TEXT	SEGMENT PARA USE32 PUBLIC 'CODE'
_TEXT	ENDS
;	COMDAT ?allocate@?$allocator@_W@std@@QAEPA_WI@Z
_TEXT	SEGMENT PARA USE32 PUBLIC 'CODE'
_TEXT	ENDS
;	COMDAT ??$_Allocate@_W@std@@YAPA_WIPA_W@Z
_TEXT	SEGMENT PARA USE32 PUBLIC 'CODE'
_TEXT	ENDS
;	COMDAT ??_C@_0N@ILOMLJGA@nLength?5?$DO?$DN?50?$AA@
CONST	SEGMENT DWORD USE32 PUBLIC 'CONST'
CONST	ENDS
;	COMDAT ??_C@_0CD@EEFFJEGJ@nLength?5?$DM?$DN?5GetData?$CI?$CJ?9?$DOnAllocLeng@
CONST	SEGMENT DWORD USE32 PUBLIC 'CONST'
CONST	ENDS
;	COMDAT ?data@CStringData@ATL@@QAEPAXXZ
_TEXT	SEGMENT PARA USE32 PUBLIC 'CODE'
_TEXT	ENDS
;	COMDAT ??_C@_0FJ@DMHPDOJC@D?3?2Program?5Files?5?$CIx86?$CJ?2Microsoft@
CONST	SEGMENT DWORD USE32 PUBLIC 'CONST'
CONST	ENDS
;	COMDAT ??_C@_0BA@GOIMFHNK@pStringMgr?5?$CB?$DN?50?$AA@
CONST	SEGMENT DWORD USE32 PUBLIC 'CONST'
CONST	ENDS
;	COMDAT ??_C@_01GFHCPBMG@C?$AA@
CONST	SEGMENT DWORD USE32 PUBLIC 'CONST'
CONST	ENDS
;	COMDAT ?max_size@?$allocator@D@std@@QBEIXZ
_TEXT	SEGMENT PARA USE32 PUBLIC 'CODE'
_TEXT	ENDS
;	COMDAT ?allocate@?$allocator@D@std@@QAEPADI@Z
_TEXT	SEGMENT PARA USE32 PUBLIC 'CODE'
_TEXT	ENDS
;	COMDAT ??$_Allocate@D@std@@YAPADIPAD@Z
_TEXT	SEGMENT PARA USE32 PUBLIC 'CODE'
_TEXT	ENDS
;	COMDAT ?deallocate@?$allocator@D@std@@QAEXPADI@Z
_TEXT	SEGMENT PARA USE32 PUBLIC 'CODE'
_TEXT	ENDS
;	COMDAT ??_C@_0BA@GNIEOBOF@nNewLength?5?$DO?$DN?50?$AA@
CONST	SEGMENT DWORD USE32 PUBLIC 'CONST'
CONST	ENDS
;	COMDAT ?Format@?$ChTraitsCRT@D@ATL@@SAHPADPBD0@Z
_TEXT	SEGMENT PARA USE32 PUBLIC 'CODE'
_TEXT	ENDS
;	COMDAT ?IsShared@CStringData@ATL@@QBE_NXZ
_TEXT	SEGMENT PARA USE32 PUBLIC 'CODE'
_TEXT	ENDS
;	COMDAT ?Release@CStringData@ATL@@QAEXXZ
_TEXT	SEGMENT PARA USE32 PUBLIC 'CODE'
_TEXT	ENDS
;	COMDAT ??_C@_0L@OIIMFBNE@nRefs?5?$CB?$DN?50?$AA@
CONST	SEGMENT DWORD USE32 PUBLIC 'CONST'
CONST	ENDS
;	COMDAT ??_C@_0CB@GFHAPKDK@pOldData?9?$DOnAllocLength?5?$DM?5nLength@
CONST	SEGMENT DWORD USE32 PUBLIC 'CONST'
CONST	ENDS
;	COMDAT ?GetFormattedLength@?$ChTraitsCRT@D@ATL@@SAHPBDPAD@Z
_TEXT	SEGMENT PARA USE32 PUBLIC 'CODE'
_TEXT	ENDS
;	COMDAT ?AtlThrow@ATL@@YGXJ@Z
_TEXT	SEGMENT PARA USE32 PUBLIC 'CODE'
_TEXT	ENDS
;	COMDAT ??RCTraceFileAndLineInfo@ATL@@QBAXKIPBDZZ
_TEXT	SEGMENT PARA USE32 PUBLIC 'CODE'
_TEXT	ENDS
;	COMDAT ?TraceV@CTrace@ATL@@QBAXPBDHKI0PAD@Z
_TEXT	SEGMENT PARA USE32 PUBLIC 'CODE'
_TEXT	ENDS
;	COMDAT ??0CTraceFileAndLineInfo@ATL@@QAE@PBDH@Z
_TEXT	SEGMENT PARA USE32 PUBLIC 'CODE'
_TEXT	ENDS
;	COMDAT ??_C@_0FI@NHHJANPC@D?3?2Program?5Files?5?$CIx86?$CJ?2Microsoft@
CONST	SEGMENT DWORD USE32 PUBLIC 'CONST'
CONST	ENDS
;	COMDAT ??_C@_0BF@IAAKIJDJ@AtlThrow?3?5hr?5?$DN?50x?$CFx?6?$AA@
CONST	SEGMENT DWORD USE32 PUBLIC 'CONST'
CONST	ENDS
;	COMDAT ??BCTraceCategory@ATL@@QBEKXZ
_TEXT	SEGMENT PARA USE32 PUBLIC 'CODE'
_TEXT	ENDS
;	COMDAT ?_Peek@?$istreambuf_iterator@_WU?$char_traits@_W@std@@@std@@AAE_WXZ
_TEXT	SEGMENT PARA USE32 PUBLIC 'CODE'
_TEXT	ENDS
;	COMDAT ?_Peek@?$istreambuf_iterator@DU?$char_traits@D@std@@@std@@AAEDXZ
_TEXT	SEGMENT PARA USE32 PUBLIC 'CODE'
_TEXT	ENDS
;	COMDAT ??$use_facet@V?$ctype@_W@std@@@std@@YAABV?$ctype@_W@0@ABVlocale@0@@Z
_TEXT	SEGMENT PARA USE32 PUBLIC 'CODE'
_TEXT	ENDS
;	COMDAT ??_S?$ctype@_W@std@@6B@
CONST	SEGMENT DWORD USE32 PUBLIC 'CONST'
CONST	ENDS
;	COMDAT ??_R4?$ctype@_W@std@@6B@
rdata$r	SEGMENT DWORD USE32 PUBLIC 'CONST'
rdata$r	ENDS
;	COMDAT ??_R0?AV?$ctype@_W@std@@@8
_DATA	SEGMENT DWORD USE32 PUBLIC 'DATA'
_DATA	ENDS
;	COMDAT ??_R3?$ctype@_W@std@@8
rdata$r	SEGMENT DWORD USE32 PUBLIC 'CONST'
rdata$r	ENDS
;	COMDAT ??_R2?$ctype@_W@std@@8
rdata$r	SEGMENT DWORD USE32 PUBLIC 'CONST'
rdata$r	ENDS
;	COMDAT ??_R1A@?0A@A@?$ctype@_W@std@@8
rdata$r	SEGMENT DWORD USE32 PUBLIC 'CONST'
rdata$r	ENDS
;	COMDAT ??_R1A@?0A@A@ctype_base@std@@8
rdata$r	SEGMENT DWORD USE32 PUBLIC 'CONST'
rdata$r	ENDS
;	COMDAT ??_R0?AUctype_base@std@@@8
_DATA	SEGMENT DWORD USE32 PUBLIC 'DATA'
_DATA	ENDS
;	COMDAT ??_G?$ctype@_W@std@@MAEPAXI@Z
_TEXT	SEGMENT PARA USE32 PUBLIC 'CODE'
_TEXT	ENDS
;	COMDAT ??_C@_08EPJLHIJG@bad?5cast?$AA@
CONST	SEGMENT DWORD USE32 PUBLIC 'CONST'
CONST	ENDS
;	COMDAT __TI2?AVbad_cast@@
xdata$x	SEGMENT DWORD USE32 PUBLIC 'CONST'
xdata$x	ENDS
;	COMDAT __CTA2?AVbad_cast@@
xdata$x	SEGMENT DWORD USE32 PUBLIC 'CONST'
xdata$x	ENDS
;	COMDAT __CT??_R0?AVbad_cast@@@8??0bad_cast@@QAE@ABV0@@Z12
xdata$x	SEGMENT DWORD USE32 PUBLIC 'CONST'
xdata$x	ENDS
;	COMDAT ??_R0?AVbad_cast@@@8
_DATA	SEGMENT DWORD USE32 PUBLIC 'DATA'
_DATA	ENDS
;	COMDAT ??$_DebugHeapDelete@Vfacet@locale@std@@@std@@YAXPAVfacet@locale@0@@Z
_TEXT	SEGMENT PARA USE32 PUBLIC 'CODE'
_TEXT	ENDS
;	COMDAT ??$use_facet@V?$ctype@D@std@@@std@@YAABV?$ctype@D@0@ABVlocale@0@@Z
_TEXT	SEGMENT PARA USE32 PUBLIC 'CODE'
_TEXT	ENDS
;	COMDAT ??_S?$ctype@D@std@@6B@
CONST	SEGMENT DWORD USE32 PUBLIC 'CONST'
CONST	ENDS
;	COMDAT ??_R4?$ctype@D@std@@6B@
rdata$r	SEGMENT DWORD USE32 PUBLIC 'CONST'
rdata$r	ENDS
;	COMDAT ??_R0?AV?$ctype@D@std@@@8
_DATA	SEGMENT DWORD USE32 PUBLIC 'DATA'
_DATA	ENDS
;	COMDAT ??_R3?$ctype@D@std@@8
rdata$r	SEGMENT DWORD USE32 PUBLIC 'CONST'
rdata$r	ENDS
;	COMDAT ??_R2?$ctype@D@std@@8
rdata$r	SEGMENT DWORD USE32 PUBLIC 'CONST'
rdata$r	ENDS
;	COMDAT ??_R1A@?0A@A@?$ctype@D@std@@8
rdata$r	SEGMENT DWORD USE32 PUBLIC 'CONST'
rdata$r	ENDS
;	COMDAT ??_G?$ctype@D@std@@MAEPAXI@Z
_TEXT	SEGMENT PARA USE32 PUBLIC 'CODE'
_TEXT	ENDS
;	COMDAT ??_S?$numpunct@_W@std@@6B@
CONST	SEGMENT DWORD USE32 PUBLIC 'CONST'
CONST	ENDS
;	COMDAT ??_S?$numpunct@D@std@@6B@
CONST	SEGMENT DWORD USE32 PUBLIC 'CONST'
CONST	ENDS
;	COMDAT _wmemmove
_TEXT	SEGMENT PARA USE32 PUBLIC 'CODE'
_TEXT	ENDS
;	COMDAT ?deallocate@?$allocator@_W@std@@QAEXPA_WI@Z
_TEXT	SEGMENT PARA USE32 PUBLIC 'CODE'
_TEXT	ENDS
;	COMDAT ??0?$allocator@_W@std@@QAE@ABV01@@Z
_TEXT	SEGMENT PARA USE32 PUBLIC 'CODE'
_TEXT	ENDS
;	COMDAT ??_C@_0BO@OBIGOAOM@AtlIsValidString?$CI?5pszFormat?5?$CJ?$AA@
CONST	SEGMENT DWORD USE32 PUBLIC 'CONST'
CONST	ENDS
;	COMDAT ?AtlIsValidString@ATL@@YAHPBDI@Z
_TEXT	SEGMENT PARA USE32 PUBLIC 'CODE'
_TEXT	ENDS
;	COMDAT ??_C@_0FH@KDPNIMBO@D?3?2Program?5Files?5?$CIx86?$CJ?2Microsoft@
CONST	SEGMENT DWORD USE32 PUBLIC 'CONST'
CONST	ENDS
;	COMDAT ?GetDefaultManager@?$StrTraitMFC_DLL@DV?$ChTraitsCRT@D@ATL@@@@SAPAUIAtlStringMgr@ATL@@XZ
_TEXT	SEGMENT PARA USE32 PUBLIC 'CODE'
_TEXT	ENDS
;	COMDAT ?_messageEntries@CTopPanelWnd@@0QBUAFX_MSGMAP_ENTRY@@B
CONST	SEGMENT DWORD USE32 PUBLIC 'CONST'
CONST	ENDS
;	COMDAT ?messageMap@CTopPanelWnd@@1UAFX_MSGMAP@@B
CONST	SEGMENT DWORD USE32 PUBLIC 'CONST'
CONST	ENDS
;	COMDAT ??_7IMessageObserver@@6B@
CONST	SEGMENT DWORD USE32 PUBLIC 'CONST'
CONST	ENDS
;	COMDAT ??_R4IMessageObserver@@6B@
rdata$r	SEGMENT DWORD USE32 PUBLIC 'CONST'
rdata$r	ENDS
;	COMDAT ??_R3IMessageObserver@@8
rdata$r	SEGMENT DWORD USE32 PUBLIC 'CONST'
rdata$r	ENDS
;	COMDAT ??_R2IMessageObserver@@8
rdata$r	SEGMENT DWORD USE32 PUBLIC 'CONST'
rdata$r	ENDS
;	COMDAT ??_GIMessageObserver@@UAEPAXI@Z
_TEXT	SEGMENT PARA USE32 PUBLIC 'CODE'
_TEXT	ENDS
;	COMDAT ??_7IPanelChangeObserver@@6B@
CONST	SEGMENT DWORD USE32 PUBLIC 'CONST'
CONST	ENDS
;	COMDAT ??_7ILayoutChangeObserver@@6B@
CONST	SEGMENT DWORD USE32 PUBLIC 'CONST'
CONST	ENDS
;	COMDAT ??1IMessageObserver@@UAE@XZ
_TEXT	SEGMENT PARA USE32 PUBLIC 'CODE'
_TEXT	ENDS
;	COMDAT ??0?$allocator@D@std@@QAE@ABV01@@Z
_TEXT	SEGMENT PARA USE32 PUBLIC 'CODE'
_TEXT	ENDS
;	COMDAT ??0?$allocator@D@std@@QAE@XZ
_TEXT	SEGMENT PARA USE32 PUBLIC 'CODE'
_TEXT	ENDS
;	COMDAT ??_7CTopPanelWnd@@6BIPanelChangeObserver@@@
CONST	SEGMENT DWORD USE32 PUBLIC 'CONST'
CONST	ENDS
;	COMDAT ??_7CTopPanelWnd@@6BILayoutChangeObserver@@@
CONST	SEGMENT DWORD USE32 PUBLIC 'CONST'
CONST	ENDS
;	COMDAT ??_7CTopPanelWnd@@6BCBasicWnd@@@
CONST	SEGMENT DWORD USE32 PUBLIC 'CONST'
CONST	ENDS
;	COMDAT ?classCTopPanelWnd@CTopPanelWnd@@2UCRuntimeClass@@B
CONST	SEGMENT DWORD USE32 PUBLIC 'CONST'
CONST	ENDS
;	COMDAT ?c_bIsMFCDLLTraits@?$_MFCDLLTraitsCheck@_WV?$StrTraitATL@_WV?$ChTraitsCRT@_W@ATL@@@ATL@@@_CSTRING_IMPL_@ATL@@2_NB
CONST	SEGMENT DWORD USE32 PUBLIC 'CONST'
CONST	ENDS
;	COMDAT ?c_bIsMFCDLLTraits@?$_MFCDLLTraitsCheck@DV?$StrTraitATL@DV?$ChTraitsCRT@D@ATL@@@ATL@@@_CSTRING_IMPL_@ATL@@2_NB
CONST	SEGMENT DWORD USE32 PUBLIC 'CONST'
CONST	ENDS
;	COMDAT ?_AtlGetConversionACP@ATL@@YGIXZ
_TEXT	SEGMENT PARA USE32 PUBLIC 'CODE'
_TEXT	ENDS
;	COMDAT ?g_pfnGetThreadACP@ATL@@3P6GIXZA
_DATA	SEGMENT DWORD USE32 PUBLIC 'DATA'
_DATA	ENDS
;	COMDAT ?_AtlGetThreadACPThunk@ATL@@YGIXZ
_TEXT	SEGMENT PARA USE32 PUBLIC 'CODE'
_TEXT	ENDS
;	COMDAT ?_AtlGetThreadACPReal@ATL@@YGIXZ
_TEXT	SEGMENT PARA USE32 PUBLIC 'CODE'
_TEXT	ENDS
;	COMDAT ?_AtlGetThreadACPFake@ATL@@YGIXZ
_TEXT	SEGMENT PARA USE32 PUBLIC 'CODE'
_TEXT	ENDS
;	COMDAT ?InterlockedExchangePointer@@YGPAXPAPAXPAX@Z
_TEXT	SEGMENT PARA USE32 PUBLIC 'CODE'
_TEXT	ENDS
;	COMDAT ??_C@_09BBJEMDLA@nRet?5?$CB?$DN?50?$AA@
CONST	SEGMENT DWORD USE32 PUBLIC 'CONST'
CONST	ENDS
;	COMDAT ?_strthunks@ATL@@3U_AtlStringThunks@1@A
_DATA	SEGMENT DWORD USE32 PUBLIC 'DATA'
_DATA	ENDS
;	COMDAT ?CompareStringWThunk@ATL@@YGHKKPB_WH0H@Z
_TEXT	SEGMENT PARA USE32 PUBLIC 'CODE'
_TEXT	ENDS
;	COMDAT ?_AtlInstallStringThunk@ATL@@YAXPAPAXPAX1@Z
_TEXT	SEGMENT PARA USE32 PUBLIC 'CODE'
_TEXT	ENDS
;	COMDAT ??_B?1??_AtlInstallStringThunk@ATL@@YAXPAPAXPAX1@Z@51
_BSS	SEGMENT DWORD USE32 PUBLIC 'BSS'
_BSS	ENDS
;	COMDAT ?s_bWin9x@?1??_AtlInstallStringThunk@ATL@@YAXPAPAXPAX1@Z@4_NA
_BSS	SEGMENT DWORD USE32 PUBLIC 'BSS'
_BSS	ENDS
;	COMDAT ?CompareStringWFake@ATL@@YGHKKPB_WH0H@Z
_TEXT	SEGMENT PARA USE32 PUBLIC 'CODE'
_TEXT	ENDS
;	COMDAT ??0?$CAtlSafeAllocBufferManager@VCCRTAllocator@ATL@@@_ATL_SAFE_ALLOCA_IMPL@ATL@@QAE@XZ
_TEXT	SEGMENT PARA USE32 PUBLIC 'CODE'
_TEXT	ENDS
;	COMDAT ??1?$CAtlSafeAllocBufferManager@VCCRTAllocator@ATL@@@_ATL_SAFE_ALLOCA_IMPL@ATL@@QAE@XZ
_TEXT	SEGMENT PARA USE32 PUBLIC 'CODE'
_TEXT	ENDS
;	COMDAT ?Free@CCRTAllocator@ATL@@SAXPAX@Z
_TEXT	SEGMENT PARA USE32 PUBLIC 'CODE'
_TEXT	ENDS
;	COMDAT ?AtlW2AHelper@@YGPADPADPB_WHI@Z
_TEXT	SEGMENT PARA USE32 PUBLIC 'CODE'
_TEXT	ENDS
;	COMDAT ??_C@_08DIHJLFDJ@lpw?5?$CB?$DN?50?$AA@
CONST	SEGMENT DWORD USE32 PUBLIC 'CONST'
CONST	ENDS
;	COMDAT ??_C@_08DMHHBMMN@lpa?5?$CB?$DN?50?$AA@
CONST	SEGMENT DWORD USE32 PUBLIC 'CONST'
CONST	ENDS
;	COMDAT ??_C@_01GBGANLPD@0?$AA@
CONST	SEGMENT DWORD USE32 PUBLIC 'CONST'
CONST	ENDS
;	COMDAT ??_C@_0FG@PFHCBDBK@D?3?2Program?5Files?5?$CIx86?$CJ?2Microsoft@
CONST	SEGMENT DWORD USE32 PUBLIC 'CONST'
CONST	ENDS
;	COMDAT ?_AtlVerifyStackAvailable@_ATL_SAFE_ALLOCA_IMPL@ATL@@YA_NK@Z
_TEXT	SEGMENT PARA USE32 PUBLIC 'CODE'
_TEXT	ENDS
;	COMDAT ?Allocate@?$CAtlSafeAllocBufferManager@VCCRTAllocator@ATL@@@_ATL_SAFE_ALLOCA_IMPL@ATL@@QAEPAXK@Z
_TEXT	SEGMENT PARA USE32 PUBLIC 'CODE'
_TEXT	ENDS
;	COMDAT ?Allocate@CCRTAllocator@ATL@@SAPAXI@Z
_TEXT	SEGMENT PARA USE32 PUBLIC 'CODE'
_TEXT	ENDS
;	COMDAT ?GetData@CAtlSafeAllocBufferNode@?$CAtlSafeAllocBufferManager@VCCRTAllocator@ATL@@@_ATL_SAFE_ALLOCA_IMPL@ATL@@QAEPAXXZ
_TEXT	SEGMENT PARA USE32 PUBLIC 'CODE'
_TEXT	ENDS
;	COMDAT ?GetStringTypeExWThunk@ATL@@YGHKKPB_WHPAG@Z
_TEXT	SEGMENT PARA USE32 PUBLIC 'CODE'
_TEXT	ENDS
;	COMDAT ?GetStringTypeExWFake@ATL@@YGHKKPB_WHPAG@Z
_TEXT	SEGMENT PARA USE32 PUBLIC 'CODE'
_TEXT	ENDS
;	COMDAT ??0?$CTempBuffer@D$0IA@VCCRTAllocator@ATL@@@ATL@@QAE@XZ
_TEXT	SEGMENT PARA USE32 PUBLIC 'CODE'
_TEXT	ENDS
;	COMDAT ??1?$CTempBuffer@D$0IA@VCCRTAllocator@ATL@@@ATL@@QAE@XZ
_TEXT	SEGMENT PARA USE32 PUBLIC 'CODE'
_TEXT	ENDS
;	COMDAT ?FreeHeap@?$CTempBuffer@D$0IA@VCCRTAllocator@ATL@@@ATL@@AAEXXZ
_TEXT	SEGMENT PARA USE32 PUBLIC 'CODE'
_TEXT	ENDS
;	COMDAT ?Allocate@?$CTempBuffer@D$0IA@VCCRTAllocator@ATL@@@ATL@@QAEPADI@Z
_TEXT	SEGMENT PARA USE32 PUBLIC 'CODE'
_TEXT	ENDS
;	COMDAT ?AllocateBytes@?$CTempBuffer@D$0IA@VCCRTAllocator@ATL@@@ATL@@QAEPADI@Z
_TEXT	SEGMENT PARA USE32 PUBLIC 'CODE'
_TEXT	ENDS
;	COMDAT ??_C@_08GPODJFIN@m_p?5?$DN?$DN?50?$AA@
CONST	SEGMENT DWORD USE32 PUBLIC 'CONST'
CONST	ENDS
;	COMDAT ??_C@_0FH@BOCPFCEM@D?3?2Program?5Files?5?$CIx86?$CJ?2Microsoft@
CONST	SEGMENT DWORD USE32 PUBLIC 'CONST'
CONST	ENDS
;	COMDAT ?AllocateHeap@?$CTempBuffer@D$0IA@VCCRTAllocator@ATL@@@ATL@@AAEXI@Z
_TEXT	SEGMENT PARA USE32 PUBLIC 'CODE'
_TEXT	ENDS
;	COMDAT ??B?$CTempBuffer@D$0IA@VCCRTAllocator@ATL@@@ATL@@QBEPADXZ
_TEXT	SEGMENT PARA USE32 PUBLIC 'CODE'
_TEXT	ENDS
;	COMDAT ?lstrcmpiWThunk@ATL@@YGHPB_W0@Z
_TEXT	SEGMENT PARA USE32 PUBLIC 'CODE'
_TEXT	ENDS
;	COMDAT ?lstrcmpiWFake@ATL@@YGHPB_W0@Z
_TEXT	SEGMENT PARA USE32 PUBLIC 'CODE'
_TEXT	ENDS
;	COMDAT ?CharLowerWThunk@ATL@@YGPA_WPA_W@Z
_TEXT	SEGMENT PARA USE32 PUBLIC 'CODE'
_TEXT	ENDS
;	COMDAT ?CharLowerWFake@ATL@@YGPA_WPA_W@Z
_TEXT	SEGMENT PARA USE32 PUBLIC 'CODE'
_TEXT	ENDS
;	COMDAT ?AtlA2WHelper@@YGPA_WPA_WPBDHI@Z
_TEXT	SEGMENT PARA USE32 PUBLIC 'CODE'
_TEXT	ENDS
;	COMDAT ?CharUpperWThunk@ATL@@YGPA_WPA_W@Z
_TEXT	SEGMENT PARA USE32 PUBLIC 'CODE'
_TEXT	ENDS
;	COMDAT ?CharUpperWFake@ATL@@YGPA_WPA_W@Z
_TEXT	SEGMENT PARA USE32 PUBLIC 'CODE'
_TEXT	ENDS
;	COMDAT ?GetEnvironmentVariableWThunk@ATL@@YGKPB_WPA_WK@Z
_TEXT	SEGMENT PARA USE32 PUBLIC 'CODE'
_TEXT	ENDS
;	COMDAT ?GetEnvironmentVariableWFake@ATL@@YGKPB_WPA_WK@Z
_TEXT	SEGMENT PARA USE32 PUBLIC 'CODE'
_TEXT	ENDS
;	COMDAT ??0?$CW2AEX@$0IA@@ATL@@QAE@PB_W@Z
_TEXT	SEGMENT PARA USE32 PUBLIC 'CODE'
_TEXT	ENDS
;	COMDAT ?Init@?$CW2AEX@$0IA@@ATL@@AAEXPB_WI@Z
_TEXT	SEGMENT PARA USE32 PUBLIC 'CODE'
_TEXT	ENDS
;	COMDAT ?AtlThrowLastWin32@ATL@@YGXXZ
_TEXT	SEGMENT PARA USE32 PUBLIC 'CODE'
_TEXT	ENDS
;	COMDAT ??1?$CW2AEX@$0IA@@ATL@@QAE@XZ
_TEXT	SEGMENT PARA USE32 PUBLIC 'CODE'
_TEXT	ENDS
;	COMDAT ??B?$CW2AEX@$0IA@@ATL@@QBEPADXZ
_TEXT	SEGMENT PARA USE32 PUBLIC 'CODE'
_TEXT	ENDS
;	COMDAT ??_C@_0BA@CLMJJCOM@nSize?5?$DO?$DN?5nSizeW?$AA@
CONST	SEGMENT DWORD USE32 PUBLIC 'CONST'
CONST	ENDS
;	COMDAT ?AddRef@CStringData@ATL@@QAEXXZ
_TEXT	SEGMENT PARA USE32 PUBLIC 'CODE'
_TEXT	ENDS
;	COMDAT ??_C@_09EEBKLCFA@nRefs?5?$DO?50?$AA@
CONST	SEGMENT DWORD USE32 PUBLIC 'CONST'
CONST	ENDS
;	COMDAT ?SetManager@CNilStringData@ATL@@QAEXPAUIAtlStringMgr@2@@Z
_TEXT	SEGMENT PARA USE32 PUBLIC 'CODE'
_TEXT	ENDS
;	COMDAT ??_C@_0BA@MLJMCNFJ@pStringMgr?5?$DN?$DN?50?$AA@
CONST	SEGMENT DWORD USE32 PUBLIC 'CONST'
CONST	ENDS
;	COMDAT ??0CNilStringData@ATL@@QAE@XZ
_TEXT	SEGMENT PARA USE32 PUBLIC 'CODE'
_TEXT	ENDS
;	COMDAT ??_7CAtlStringMgr@ATL@@6B@
CONST	SEGMENT DWORD USE32 PUBLIC 'CONST'
CONST	ENDS
;	COMDAT ?clsid@?1??GetClsid@CShockwaveFlash@@QAEABU_GUID@@XZ@4U3@B
CONST	SEGMENT DWORD USE32 PUBLIC 'CONST'
CONST	ENDS
;	COMDAT ??_7P2PObserver@@6B@
CONST	SEGMENT DWORD USE32 PUBLIC 'CONST'
CONST	ENDS
;	COMDAT ??_7HTTPObserver@@6B@
CONST	SEGMENT DWORD USE32 PUBLIC 'CONST'
CONST	ENDS
;	COMDAT ?FindStringResourceInstance@?$StrTraitMFC_DLL@DV?$ChTraitsCRT@D@ATL@@@@SAPAUHINSTANCE__@@I@Z
_TEXT	SEGMENT PARA USE32 PUBLIC 'CODE'
_TEXT	ENDS
;	COMDAT ?AtlGetStringResourceImage@ATL@@YAPBUATLSTRINGRESOURCEIMAGE@1@PAUHINSTANCE__@@I@Z
_TEXT	SEGMENT PARA USE32 PUBLIC 'CODE'
_TEXT	ENDS
;	COMDAT ?_AtlGetStringResourceImage@ATL@@YAPBUATLSTRINGRESOURCEIMAGE@1@PAUHINSTANCE__@@PAUHRSRC__@@I@Z
_TEXT	SEGMENT PARA USE32 PUBLIC 'CODE'
_TEXT	ENDS
;	COMDAT ?GetBaseTypeLength@?$ChTraitsCRT@D@ATL@@SAHPB_WH@Z
_TEXT	SEGMENT PARA USE32 PUBLIC 'CODE'
_TEXT	ENDS
;	COMDAT ?ConvertToBaseType@?$ChTraitsCRT@D@ATL@@SAXPADHPB_WH@Z
_TEXT	SEGMENT PARA USE32 PUBLIC 'CODE'
_TEXT	ENDS
;	COMDAT ??_C@_0CJ@FJEKGMMD@Warning?3?5implicit?5LoadString?$CI?$CFu?$CJ@
CONST	SEGMENT DWORD USE32 PUBLIC 'CONST'
CONST	ENDS
;	COMDAT ?IsLocked@CStringData@ATL@@QBE_NXZ
_TEXT	SEGMENT PARA USE32 PUBLIC 'CODE'
_TEXT	ENDS
;	COMDAT ??_7CGdiPlusBitmap@CSkinButton@@6B@
CONST	SEGMENT DWORD USE32 PUBLIC 'CONST'
CONST	ENDS
;	COMDAT ?GetLastStatus@Image@Gdiplus@@QBE?AW4Status@2@XZ
_TEXT	SEGMENT PARA USE32 PUBLIC 'CODE'
_TEXT	ENDS
;	COMDAT ?FromFile@Bitmap@Gdiplus@@SAPAV12@PB_WH@Z
_TEXT	SEGMENT PARA USE32 PUBLIC 'CODE'
_TEXT	ENDS
;	COMDAT ??2GdiplusBase@Gdiplus@@SAPAXI@Z
_TEXT	SEGMENT PARA USE32 PUBLIC 'CODE'
_TEXT	ENDS
;	COMDAT ??3GdiplusBase@Gdiplus@@SAXPAX@Z
_TEXT	SEGMENT PARA USE32 PUBLIC 'CODE'
_TEXT	ENDS
;	COMDAT ??0Bitmap@Gdiplus@@QAE@PB_WH@Z
_TEXT	SEGMENT PARA USE32 PUBLIC 'CODE'
_TEXT	ENDS
;	COMDAT ??0Image@Gdiplus@@IAE@XZ
_TEXT	SEGMENT PARA USE32 PUBLIC 'CODE'
_TEXT	ENDS
;	COMDAT ??_7Image@Gdiplus@@6B@
CONST	SEGMENT DWORD USE32 PUBLIC 'CONST'
CONST	ENDS
;	COMDAT ??_R4Image@Gdiplus@@6B@
rdata$r	SEGMENT DWORD USE32 PUBLIC 'CONST'
rdata$r	ENDS
;	COMDAT ??_R0?AVImage@Gdiplus@@@8
_DATA	SEGMENT DWORD USE32 PUBLIC 'DATA'
_DATA	ENDS
;	COMDAT ??_R3Image@Gdiplus@@8
rdata$r	SEGMENT DWORD USE32 PUBLIC 'CONST'
rdata$r	ENDS
;	COMDAT ??_R2Image@Gdiplus@@8
rdata$r	SEGMENT DWORD USE32 PUBLIC 'CONST'
rdata$r	ENDS
;	COMDAT ??_R1A@?0A@A@Image@Gdiplus@@8
rdata$r	SEGMENT DWORD USE32 PUBLIC 'CONST'
rdata$r	ENDS
;	COMDAT ??_R13?0A@A@GdiplusBase@Gdiplus@@8
rdata$r	SEGMENT DWORD USE32 PUBLIC 'CONST'
rdata$r	ENDS
;	COMDAT ??_R0?AVGdiplusBase@Gdiplus@@@8
_DATA	SEGMENT DWORD USE32 PUBLIC 'DATA'
_DATA	ENDS
;	COMDAT ??_GImage@Gdiplus@@UAEPAXI@Z
_TEXT	SEGMENT PARA USE32 PUBLIC 'CODE'
_TEXT	ENDS
;	COMDAT ?Clone@Image@Gdiplus@@UAEPAV12@XZ
_TEXT	SEGMENT PARA USE32 PUBLIC 'CODE'
_TEXT	ENDS
;	COMDAT ?SetStatus@Image@Gdiplus@@IBE?AW4Status@2@W432@@Z
_TEXT	SEGMENT PARA USE32 PUBLIC 'CODE'
_TEXT	ENDS
;	COMDAT ??0Image@Gdiplus@@IAE@PAVGpImage@1@W4Status@1@@Z
_TEXT	SEGMENT PARA USE32 PUBLIC 'CODE'
_TEXT	ENDS
;	COMDAT ??1Image@Gdiplus@@UAE@XZ
_TEXT	SEGMENT PARA USE32 PUBLIC 'CODE'
_TEXT	ENDS
;	COMDAT ??_7Bitmap@Gdiplus@@6B@
CONST	SEGMENT DWORD USE32 PUBLIC 'CONST'
CONST	ENDS
;	COMDAT ??_R4Bitmap@Gdiplus@@6B@
rdata$r	SEGMENT DWORD USE32 PUBLIC 'CONST'
rdata$r	ENDS
;	COMDAT ??_R0?AVBitmap@Gdiplus@@@8
_DATA	SEGMENT DWORD USE32 PUBLIC 'DATA'
_DATA	ENDS
;	COMDAT ??_R3Bitmap@Gdiplus@@8
rdata$r	SEGMENT DWORD USE32 PUBLIC 'CONST'
rdata$r	ENDS
;	COMDAT ??_R2Bitmap@Gdiplus@@8
rdata$r	SEGMENT DWORD USE32 PUBLIC 'CONST'
rdata$r	ENDS
;	COMDAT ??_R1A@?0A@A@Bitmap@Gdiplus@@8
rdata$r	SEGMENT DWORD USE32 PUBLIC 'CONST'
rdata$r	ENDS
;	COMDAT ??_GBitmap@Gdiplus@@UAEPAXI@Z
_TEXT	SEGMENT PARA USE32 PUBLIC 'CODE'
_TEXT	ENDS
;	COMDAT ??1Bitmap@Gdiplus@@UAE@XZ
_TEXT	SEGMENT PARA USE32 PUBLIC 'CODE'
_TEXT	ENDS
;	COMDAT ?SetNativeImage@Image@Gdiplus@@IAEXPAVGpImage@2@@Z
_TEXT	SEGMENT PARA USE32 PUBLIC 'CODE'
_TEXT	ENDS
;	COMDAT ??_7CGdiPlusBitmap@@6B@
CONST	SEGMENT DWORD USE32 PUBLIC 'CONST'
CONST	ENDS
;	COMDAT ??_7DIBINFO@@6B@
CONST	SEGMENT DWORD USE32 PUBLIC 'CONST'
CONST	ENDS
;	COMDAT ??_7IData@@6B@
CONST	SEGMENT DWORD USE32 PUBLIC 'CONST'
CONST	ENDS
sxdata	SEGMENT DWORD USE32 'SXDATA'
sxdata	ENDS
FLAT	GROUP _DATA, CONST, _BSS
	ASSUME	CS: FLAT, DS: FLAT, SS: FLAT
endif

INCLUDELIB MSVCRTD
INCLUDELIB OLDNAMES

PUBLIC	?_messageEntries@CTopPanelWnd@@0QBUAFX_MSGMAP_ENTRY@@B ; CTopPanelWnd::_messageEntries
PUBLIC	?messageMap@CTopPanelWnd@@1UAFX_MSGMAP@@B	; CTopPanelWnd::messageMap
PUBLIC	?OnCreate@CTopPanelWnd@@IAEHPAUtagCREATESTRUCTA@@@Z ; CTopPanelWnd::OnCreate
PUBLIC	?OnBnClickedClose@CTopPanelWnd@@IAEXXZ		; CTopPanelWnd::OnBnClickedClose
PUBLIC	?OnBnClickedMin@CTopPanelWnd@@IAEXXZ		; CTopPanelWnd::OnBnClickedMin
PUBLIC	?OnBnClickedLarge@CTopPanelWnd@@IAEXXZ		; CTopPanelWnd::OnBnClickedLarge
PUBLIC	?OnBnClickedNormal@CTopPanelWnd@@IAEXXZ		; CTopPanelWnd::OnBnClickedNormal
PUBLIC	?OnBnClickedSetting@CTopPanelWnd@@IAEXXZ	; CTopPanelWnd::OnBnClickedSetting
PUBLIC	?OnLButtonDblClk@CTopPanelWnd@@IAEXIVCPoint@@@Z	; CTopPanelWnd::OnLButtonDblClk
PUBLIC	?OnDestroy@CTopPanelWnd@@IAEXXZ			; CTopPanelWnd::OnDestroy
PUBLIC	?OnBnClickedHold@CTopPanelWnd@@IAEXXZ		; CTopPanelWnd::OnBnClickedHold
PUBLIC	?OnSaveLayout@CTopPanelWnd@@IAEJIJ@Z		; CTopPanelWnd::OnSaveLayout
PUBLIC	?OnGetLayout@CTopPanelWnd@@IAEJIJ@Z		; CTopPanelWnd::OnGetLayout
PUBLIC	?OnAppExit@CTopPanelWnd@@IAEXXZ			; CTopPanelWnd::OnAppExit
PUBLIC	?OnSetting@CTopPanelWnd@@IAEXXZ			; CTopPanelWnd::OnSetting
PUBLIC	?c_bIsMFCDLLTraits@?$_MFCDLLTraitsCheck@DV?$StrTraitATL@DV?$ChTraitsCRT@D@ATL@@@ATL@@@_CSTRING_IMPL_@ATL@@2_NB ; ATL::_CSTRING_IMPL_::_MFCDLLTraitsCheck<char,ATL::StrTraitATL<char,ATL::ChTraitsCRT<char> > >::c_bIsMFCDLLTraits
PUBLIC	?g_pfnGetThreadACP@ATL@@3P6GIXZA		; ATL::g_pfnGetThreadACP
PUBLIC	?_AtlGetThreadACPThunk@ATL@@YGIXZ		; ATL::_AtlGetThreadACPThunk
PUBLIC	?_strthunks@ATL@@3U_AtlStringThunks@1@A		; ATL::_strthunks
PUBLIC	?GetEnvironmentVariableWThunk@ATL@@YGKPB_WPA_WK@Z ; ATL::GetEnvironmentVariableWThunk
PUBLIC	?CompareStringWThunk@ATL@@YGHKKPB_WH0H@Z	; ATL::CompareStringWThunk
PUBLIC	?c_bIsMFCDLLTraits@?$_MFCDLLTraitsCheck@_WV?$StrTraitATL@_WV?$ChTraitsCRT@_W@ATL@@@ATL@@@_CSTRING_IMPL_@ATL@@2_NB ; ATL::_CSTRING_IMPL_::_MFCDLLTraitsCheck<wchar_t,ATL::StrTraitATL<wchar_t,ATL::ChTraitsCRT<wchar_t> > >::c_bIsMFCDLLTraits
PUBLIC	?GetStringTypeExWThunk@ATL@@YGHKKPB_WHPAG@Z	; ATL::GetStringTypeExWThunk
PUBLIC	?lstrcmpiWThunk@ATL@@YGHPB_W0@Z			; ATL::lstrcmpiWThunk
PUBLIC	?CharLowerWThunk@ATL@@YGPA_WPA_W@Z		; ATL::CharLowerWThunk
PUBLIC	?CharUpperWThunk@ATL@@YGPA_WPA_W@Z		; ATL::CharUpperWThunk
PUBLIC	?classCTopPanelWnd@CTopPanelWnd@@2UCRuntimeClass@@B ; CTopPanelWnd::classCTopPanelWnd
EXTRN	?OnChar@CWnd@@IAEXIII@Z:NEAR			; CWnd::OnChar
EXTRN	?GetThisClass@CBasicWnd@@SGPAUCRuntimeClass@@XZ:NEAR ; CBasicWnd::GetThisClass
EXTRN	?GetThisMessageMap@CBasicWnd@@KGPBUAFX_MSGMAP@@XZ:NEAR ; CBasicWnd::GetThisMessageMap
EXTRN	?OnLButtonDown@CBasicWnd@@IAEXIVCPoint@@@Z:NEAR	; CBasicWnd::OnLButtonDown
EXTRN	?OnMouseMove@CBasicWnd@@IAEXIVCPoint@@@Z:NEAR	; CBasicWnd::OnMouseMove
CONST	SEGMENT
$SG189029 DB	'int', 00H
CONST	ENDS
_DATA	SEGMENT
_TYPE_CONFIG_INT DD FLAT:$SG189029
_DATA	ENDS
CONST	SEGMENT
$SG189031 DB	'str', 00H
CONST	ENDS
_DATA	SEGMENT
_TYPE_CONFIG_STR DD FLAT:$SG189031
_DATA	ENDS
CONST	SEGMENT
$SG189033 DB	'double', 00H
CONST	ENDS
_DATA	SEGMENT
_TYPE_CONFIG_DOUBLE DD FLAT:$SG189033
_DATA	ENDS
CONST	SEGMENT
	ORG $+1
$SG189035 DB	'bool', 00H
CONST	ENDS
_DATA	SEGMENT
_TYPE_CONFIG_BOOL DD FLAT:$SG189035
_DATA	ENDS
CONST	SEGMENT
	ORG $+3
$SG189037 DB	'sepint', 00H
CONST	ENDS
_DATA	SEGMENT
_TYPE_CONFIG_INT_HASSEP DD FLAT:$SG189037
_DATA	ENDS
CONST	SEGMENT
	ORG $+1
$SG189039 DB	'sepstr', 00H
CONST	ENDS
_DATA	SEGMENT
_TYPE_CONFIG_STR_HASSEP DD FLAT:$SG189039
_DATA	ENDS
CONST	SEGMENT
	ORG $+1
$SG189041 DB	'sepdouble', 00H
CONST	ENDS
_DATA	SEGMENT
_TYPE_CONFIG_DOUBLE_HASSEP DD FLAT:$SG189041
_DATA	ENDS
CONST	SEGMENT
	ORG $+2
$SG189043 DB	'sepbool', 00H
CONST	ENDS
_DATA	SEGMENT
_TYPE_CONFIG_BOOL_HASSEP DD FLAT:$SG189043
_DATA	ENDS
CONST	SEGMENT
$SG189045 DB	'App', 00H
CONST	ENDS
_DATA	SEGMENT
_CONF_APP_MODULE_NAME DD FLAT:$SG189045
_DATA	ENDS
CONST	SEGMENT
$SG189047 DB	'SwfPath', 00H
CONST	ENDS
_DATA	SEGMENT
_CONF_APP_SWF_PATH DD FLAT:$SG189047
_DATA	ENDS
CONST	SEGMENT
$SG189049 DB	'MainWndHold', 00H
CONST	ENDS
_DATA	SEGMENT
_CONF_APP_MAINWND_HOLD DD FLAT:$SG189049
_DATA	ENDS
CONST	SEGMENT
$SG189051 DB	'RunCount', 00H
CONST	ENDS
_DATA	SEGMENT
_CONF_APP_RUN_COUNT DD FLAT:$SG189051
_DATA	ENDS
CONST	SEGMENT
	ORG $+3
$SG189053 DB	'PlayedGame', 00H
CONST	ENDS
_DATA	SEGMENT
_CONF_APP_PLAYED_GAME DD FLAT:$SG189053
_DATA	ENDS
CONST	SEGMENT
	ORG $+1
$SG189055 DB	'playedPcGame', 00H
CONST	ENDS
_DATA	SEGMENT
_CONF_APP_PLAYED_PC_GAME DD FLAT:$SG189055
_DATA	ENDS
CONST	SEGMENT
	ORG $+3
$SG189057 DB	'PlayedIconSize', 00H
CONST	ENDS
_DATA	SEGMENT
_CONF_APP_PLAYED_ICON_SIZE DD FLAT:$SG189057
_DATA	ENDS
CONST	SEGMENT
	ORG $+1
$SG189059 DB	'PictureSavePath', 00H
CONST	ENDS
_DATA	SEGMENT
_CONF_APP_PIC_SAVE_PATH DD FLAT:$SG189059
_DATA	ENDS
CONST	SEGMENT
$SG189066 DB	'Layout', 00H
CONST	ENDS
_DATA	SEGMENT
_CONF_LAYOUT_MODULE_NAME DD FLAT:$SG189066
_DATA	ENDS
CONST	SEGMENT
	ORG $+1
$SG189068 DB	'Normal', 00H
CONST	ENDS
_DATA	SEGMENT
_CONF_LAYOUT_NORMAL DD FLAT:$SG189068
_DATA	ENDS
CONST	SEGMENT
	ORG $+1
$SG189070 DB	'xPos', 00H
CONST	ENDS
_DATA	SEGMENT
_CONF_LAYOUT_X_POS DD FLAT:$SG189070
_DATA	ENDS
CONST	SEGMENT
	ORG $+3
$SG189072 DB	'yPos', 00H
CONST	ENDS
_DATA	SEGMENT
_CONF_LAYOUT_Y_POS DD FLAT:$SG189072
_DATA	ENDS
CONST	SEGMENT
	ORG $+3
$SG189074 DB	'Width', 00H
CONST	ENDS
_DATA	SEGMENT
_CONF_LAYOUT_WIDTH DD FLAT:$SG189074
_DATA	ENDS
CONST	SEGMENT
	ORG $+2
$SG189076 DB	'Height', 00H
CONST	ENDS
_DATA	SEGMENT
_CONF_LAYOUT_HEIGHT DD FLAT:$SG189076
_DATA	ENDS
CONST	SEGMENT
	ORG $+1
$SG189078 DB	'mincx', 00H
CONST	ENDS
_DATA	SEGMENT
_CONF_LAYOUT_MIN_WIDTH DD FLAT:$SG189078
_DATA	ENDS
CONST	SEGMENT
	ORG $+2
$SG189080 DB	'mincy', 00H
CONST	ENDS
_DATA	SEGMENT
_CONF_LAYOUT_MIN_HEIGHT DD FLAT:$SG189080
_DATA	ENDS
CONST	SEGMENT
	ORG $+2
$SG189087 DB	'Setting', 00H
CONST	ENDS
_DATA	SEGMENT
_CONF_SETTING_MODULE_NAME DD FLAT:$SG189087
_DATA	ENDS
CONST	SEGMENT
$SG189089 DB	'skin', 00H
CONST	ENDS
_DATA	SEGMENT
_CONF_SETTING_SKIN_IDX DD FLAT:$SG189089
_DATA	ENDS
CONST	SEGMENT
	ORG $+3
$SG189091 DB	'MainPage', 00H
CONST	ENDS
_DATA	SEGMENT
_CONF_SETTING_CONFIG_MAIN_PAGE DD FLAT:$SG189091
_DATA	ENDS
CONST	SEGMENT
	ORG $+3
$SG189093 DB	'ProblemReport', 00H
CONST	ENDS
_DATA	SEGMENT
_CONF_SETTING_CONFIG_PROBLEM_REPORT DD FLAT:$SG189093
_DATA	ENDS
CONST	SEGMENT
	ORG $+2
$SG189095 DB	'HomePage', 00H
CONST	ENDS
_DATA	SEGMENT
_CONF_SETTING_CONFIG_HOME_PAGE DD FLAT:$SG189095
_DATA	ENDS
CONST	SEGMENT
	ORG $+3
$SG189097 DB	'askexit', 00H
CONST	ENDS
_DATA	SEGMENT
_CONF_SETTING_CONFIG_IFASKEXIT DD FLAT:$SG189097
_DATA	ENDS
CONST	SEGMENT
$SG189099 DB	'exitchoice', 00H
CONST	ENDS
_DATA	SEGMENT
_CONF_SETTING_CONFIG_EXITCHOICE DD FLAT:$SG189099
_DATA	ENDS
CONST	SEGMENT
	ORG $+1
$SG189101 DB	'UN', 00H
CONST	ENDS
_DATA	SEGMENT
_CONF_SETTING_LOGIN_USER_NAME DD FLAT:$SG189101
_DATA	ENDS
CONST	SEGMENT
	ORG $+1
$SG189103 DB	'PW', 00H
CONST	ENDS
_DATA	SEGMENT
_CONF_SETTING_LOGIN_PASSWORD DD FLAT:$SG189103
_DATA	ENDS
CONST	SEGMENT
	ORG $+1
$SG189105 DB	'NetID', 00H
CONST	ENDS
_DATA	SEGMENT
_CONF_SETTING_NETID DD FLAT:$SG189105
_DATA	ENDS
CONST	SEGMENT
	ORG $+2
$SG189107 DB	'ChangeColorValue', 00H
CONST	ENDS
_DATA	SEGMENT
_CONF_SETTING_COLOR DD FLAT:$SG189107
_DATA	ENDS
CONST	SEGMENT
	ORG $+3
$SG189109 DB	'changeColorLight', 00H
CONST	ENDS
_DATA	SEGMENT
_CONF_SETTING_LIGHT DD FLAT:$SG189109
_DATA	ENDS
CONST	SEGMENT
	ORG $+3
$SG189111 DB	'ColorIndex', 00H
CONST	ENDS
_DATA	SEGMENT
_CONF_SETTING_COLOR_BTN_INDEX DD FLAT:$SG189111
_DATA	ENDS
CONST	SEGMENT
	ORG $+1
$SG189113 DB	'ColorUser', 00H
CONST	ENDS
_DATA	SEGMENT
_CONF_SETTING_COLOR_USER DD FLAT:$SG189113
_DATA	ENDS
CONST	SEGMENT
	ORG $+2
$SG189115 DB	'FirstTimeChangeSkin', 00H
CONST	ENDS
_DATA	SEGMENT
_CONF_SETTING_FIRST_TIME_CHANGESKIN DD FLAT:$SG189115
_DATA	ENDS
;	COMDAT ?c_bIsMFCDLLTraits@?$_MFCDLLTraitsCheck@DV?$StrTraitATL@DV?$ChTraitsCRT@D@ATL@@@ATL@@@_CSTRING_IMPL_@ATL@@2_NB
CONST	SEGMENT
?c_bIsMFCDLLTraits@?$_MFCDLLTraitsCheck@DV?$StrTraitATL@DV?$ChTraitsCRT@D@ATL@@@ATL@@@_CSTRING_IMPL_@ATL@@2_NB DB 00H ; ATL::_CSTRING_IMPL_::_MFCDLLTraitsCheck<char,ATL::StrTraitATL<char,ATL::ChTraitsCRT<char> > >::c_bIsMFCDLLTraits
CONST	ENDS
;	COMDAT ?c_bIsMFCDLLTraits@?$_MFCDLLTraitsCheck@_WV?$StrTraitATL@_WV?$ChTraitsCRT@_W@ATL@@@ATL@@@_CSTRING_IMPL_@ATL@@2_NB
CONST	SEGMENT
?c_bIsMFCDLLTraits@?$_MFCDLLTraitsCheck@_WV?$StrTraitATL@_WV?$ChTraitsCRT@_W@ATL@@@ATL@@@_CSTRING_IMPL_@ATL@@2_NB DB 00H ; ATL::_CSTRING_IMPL_::_MFCDLLTraitsCheck<wchar_t,ATL::StrTraitATL<wchar_t,ATL::ChTraitsCRT<wchar_t> > >::c_bIsMFCDLLTraits
CONST	ENDS
CONST	SEGMENT
$SG196393 DB	'Normal_Large', 00H
CONST	ENDS
_DATA	SEGMENT
_s_STRBUTTONLAYER DD FLAT:$SG196393
_DATA	ENDS
CONST	SEGMENT
	ORG $+3
$SG196395 DB	'Normal', 00H
CONST	ENDS
_DATA	SEGMENT
_s_STRBUTTON_NORMAL DD FLAT:$SG196395
_DATA	ENDS
CONST	SEGMENT
	ORG $+1
$SG196397 DB	'Large', 00H
CONST	ENDS
_DATA	SEGMENT
_s_STRBUTTON_LARGE DD FLAT:$SG196397
_DATA	ENDS
CONST	SEGMENT
	ORG $+2
$SG196398 DB	'CTopPanelWnd', 00H
CONST	ENDS
;	COMDAT ?classCTopPanelWnd@CTopPanelWnd@@2UCRuntimeClass@@B
CONST	SEGMENT
?classCTopPanelWnd@CTopPanelWnd@@2UCRuntimeClass@@B DD FLAT:$SG196398 ; CTopPanelWnd::classCTopPanelWnd
	DD	066cH
	DD	0ffffH
	DD	00H
	DD	FLAT:?GetThisClass@CBasicWnd@@SGPAUCRuntimeClass@@XZ
	DD	00H
	DD	00H
CONST	ENDS
;	COMDAT ?_messageEntries@CTopPanelWnd@@0QBUAFX_MSGMAP_ENTRY@@B
CONST	SEGMENT
?_messageEntries@CTopPanelWnd@@0QBUAFX_MSGMAP_ENTRY@@B DD 01H ; CTopPanelWnd::_messageEntries
	DD	00H
	DD	00H
	DD	00H
	DD	0dH
	DD	FLAT:?OnCreate@CTopPanelWnd@@IAEHPAUtagCREATESTRUCTA@@@Z
	DD	02H
	DD	00H
	DD	00H
	DD	00H
	DD	010H
	DD	FLAT:?OnDestroy@CTopPanelWnd@@IAEXXZ
	DD	0203H
	DD	00H
	DD	00H
	DD	00H
	DD	032H
	DD	FLAT:?OnLButtonDblClk@CTopPanelWnd@@IAEXIVCPoint@@@Z
	DD	0111H
	DD	00H
	DD	02711H
	DD	02711H
	DD	035H
	DD	FLAT:?OnBnClickedClose@CTopPanelWnd@@IAEXXZ
	DD	0111H
	DD	00H
	DD	02713H
	DD	02713H
	DD	035H
	DD	FLAT:?OnBnClickedLarge@CTopPanelWnd@@IAEXXZ
	DD	0111H
	DD	00H
	DD	02712H
	DD	02712H
	DD	035H
	DD	FLAT:?OnBnClickedNormal@CTopPanelWnd@@IAEXXZ
	DD	0111H
	DD	00H
	DD	02714H
	DD	02714H
	DD	035H
	DD	FLAT:?OnBnClickedMin@CTopPanelWnd@@IAEXXZ
	DD	0111H
	DD	00H
	DD	02717H
	DD	02717H
	DD	035H
	DD	FLAT:?OnBnClickedSetting@CTopPanelWnd@@IAEXXZ
	DD	0111H
	DD	00H
	DD	067H
	DD	067H
	DD	035H
	DD	FLAT:?OnBnClickedHold@CTopPanelWnd@@IAEXXZ
	DD	0111H
	DD	00H
	DD	0e141H
	DD	0e141H
	DD	035H
	DD	FLAT:?OnAppExit@CTopPanelWnd@@IAEXXZ
	DD	0111H
	DD	00H
	DD	068H
	DD	068H
	DD	035H
	DD	FLAT:?OnSetting@CTopPanelWnd@@IAEXXZ
	DD	0102H
	DD	00H
	DD	00H
	DD	00H
	DD	015H
	DD	FLAT:?OnChar@CWnd@@IAEXIII@Z
	DD	0466H
	DD	00H
	DD	00H
	DD	00H
	DD	0eH
	DD	FLAT:?OnGetLayout@CTopPanelWnd@@IAEJIJ@Z
	DD	0467H
	DD	00H
	DD	00H
	DD	00H
	DD	0eH
	DD	FLAT:?OnSaveLayout@CTopPanelWnd@@IAEJIJ@Z
	DD	0200H
	DD	00H
	DD	00H
	DD	00H
	DD	032H
	DD	FLAT:?OnMouseMove@CBasicWnd@@IAEXIVCPoint@@@Z
	DD	0201H
	DD	00H
	DD	00H
	DD	00H
	DD	032H
	DD	FLAT:?OnLButtonDown@CBasicWnd@@IAEXIVCPoint@@@Z
	DD	00H
	DD	00H
	DD	00H
	DD	00H
	DD	00H
	DD	00H
CONST	ENDS
;	COMDAT ?messageMap@CTopPanelWnd@@1UAFX_MSGMAP@@B
CONST	SEGMENT
?messageMap@CTopPanelWnd@@1UAFX_MSGMAP@@B DD FLAT:?GetThisMessageMap@CBasicWnd@@KGPBUAFX_MSGMAP@@XZ ; CTopPanelWnd::messageMap
	DD	FLAT:?_messageEntries@CTopPanelWnd@@0QBUAFX_MSGMAP_ENTRY@@B
CONST	ENDS
CONST	SEGMENT
	ORG $+3
$SG196562 DB	'Close', 00H
	ORG $+2
$SG196564 DB	'Normal', 00H
	ORG $+1
$SG196566 DB	'Large', 00H
	ORG $+2
$SG196568 DB	'Min', 00H
$SG196570 DB	'Setting', 00H
$SG196573 DB	'normal', 00H
	ORG $+1
$SG196574 DB	'toppanel', 00H
	ORG $+3
$SG196577 DB	'normal', 00H
	ORG $+1
$SG196578 DB	'toppanel', 00H
$SG196631 DB	00H
	ORG $+2
$SG196632 DB	'AppExit', 00H
$SG196635 DB	'BTN:CLOSE', 00H
	ORG $+2
$SG196636 DB	'USRCLK', 00H
	ORG $+1
$SG196657 DB	'\Internet Explorer\iexplore.exe', 00H
$SG196659 DB	00H
	ORG $+3
$SG196660 DB	'open', 00H
	ORG $+3
$SG196675 DB	'htmlfile\shell\open\command', 00H
$SG196682 DB	'%s', 00H
	ORG $+1
$SG196684 DB	'exe', 00H
$SG196686 DB	00H
	ORG $+3
$SG196687 DB	'open', 00H
	ORG $+3
$SG196722 DB	'BTN:CLOSE', 00H
	ORG $+2
$SG196723 DB	'USRCLK', 00H
	ORG $+1
$SG196748 DB	'BTN:TO_MAX', 00H
	ORG $+1
$SG196749 DB	'USRCLK', 00H
	ORG $+1
$SG196763 DB	'BTN:TO_NOMARL', 00H
	ORG $+2
$SG196764 DB	'USRCLK', 00H
	ORG $+1
$SG196774 DB	'BTN:TO_MIN', 00H
	ORG $+1
$SG196775 DB	'USRCLK', 00H
CONST	ENDS
;	COMDAT ?g_pfnGetThreadACP@ATL@@3P6GIXZA
_DATA	SEGMENT
?g_pfnGetThreadACP@ATL@@3P6GIXZA DD FLAT:?_AtlGetThreadACPThunk@ATL@@YGIXZ ; ATL::g_pfnGetThreadACP
_DATA	ENDS
;	COMDAT ?_strthunks@ATL@@3U_AtlStringThunks@1@A
_DATA	SEGMENT
?_strthunks@ATL@@3U_AtlStringThunks@1@A DD FLAT:?CompareStringWThunk@ATL@@YGHKKPB_WH0H@Z ; ATL::_strthunks
	DD	FLAT:?GetStringTypeExWThunk@ATL@@YGHKKPB_WHPAG@Z
	DD	FLAT:?lstrcmpiWThunk@ATL@@YGHPB_W0@Z
	DD	FLAT:?CharLowerWThunk@ATL@@YGPA_WPA_W@Z
	DD	FLAT:?CharUpperWThunk@ATL@@YGPA_WPA_W@Z
	DD	FLAT:?GetEnvironmentVariableWThunk@ATL@@YGKPB_WPA_WK@Z
_DATA	ENDS
CONST	SEGMENT
	ORG $+1
_ID_MESSAGE_PANEL_CHANGE DD 02H
_ID_MESSAGE_LAYOUTMGR DD 08H
_ID_DATA_PANELCHANGE DD 05H
CONST	ENDS
PUBLIC	?InterlockedExchangePointer@@YGPAXPAPAXPAX@Z	; InterlockedExchangePointer
PUBLIC	?_AtlGetThreadACPFake@ATL@@YGIXZ		; ATL::_AtlGetThreadACPFake
PUBLIC	?_AtlGetThreadACPReal@ATL@@YGIXZ		; ATL::_AtlGetThreadACPReal
EXTRN	__RTC_InitBase:NEAR
EXTRN	__RTC_Shutdown:NEAR
EXTRN	__RTC_CheckEsp:NEAR
EXTRN	___security_cookie:DWORD
EXTRN	@_RTC_CheckStackVars@8:NEAR
EXTRN	@__security_check_cookie@4:NEAR
EXTRN	__imp__GetVersionExA@4:NEAR
;	COMDAT rtc$IMZ
; File d:\program files (x86)\microsoft visual studio .net 2003\vc7\atlmfc\include\atlconv.h
rtc$IMZ	SEGMENT
__RTC_InitBase.rtc$IMZ DD FLAT:__RTC_InitBase
rtc$IMZ	ENDS
;	COMDAT rtc$TMZ
rtc$TMZ	SEGMENT
__RTC_Shutdown.rtc$TMZ DD FLAT:__RTC_Shutdown
; Function compile flags: /Odt /RTCsu
rtc$TMZ	ENDS
;	COMDAT ?_AtlGetThreadACPThunk@ATL@@YGIXZ
_TEXT	SEGMENT
_pfnGetThreadACP$ = -164				; size = 4
_ver$ = -156						; size = 148
__$ArrayPad$ = -4					; size = 4
__$ReturnAddr$ = 4					; size = 4
?_AtlGetThreadACPThunk@ATL@@YGIXZ PROC NEAR		; ATL::_AtlGetThreadACPThunk, COMDAT

; 134  : {

  00000	55		 push	 ebp
  00001	8b ec		 mov	 ebp, esp
  00003	81 ec a4 00 00
	00		 sub	 esp, 164		; 000000a4H
  00009	56		 push	 esi
  0000a	57		 push	 edi
  0000b	8d bd 5c ff ff
	ff		 lea	 edi, DWORD PTR [ebp-164]
  00011	b9 29 00 00 00	 mov	 ecx, 41			; 00000029H
  00016	b8 cc cc cc cc	 mov	 eax, -858993460		; ccccccccH
  0001b	f3 ab		 rep stosd
  0001d	a1 00 00 00 00	 mov	 eax, DWORD PTR ___security_cookie
  00022	89 45 fc	 mov	 DWORD PTR __$ArrayPad$[ebp], eax

; 135  : 	OSVERSIONINFO ver;
; 136  : 	ATLGETTHREADACP pfnGetThreadACP;
; 137  : 
; 138  : 	ver.dwOSVersionInfoSize = sizeof( ver );

  00025	c7 85 64 ff ff
	ff 94 00 00 00	 mov	 DWORD PTR _ver$[ebp], 148 ; 00000094H

; 139  : 	::GetVersionEx( &ver );

  0002f	8b f4		 mov	 esi, esp
  00031	8d 85 64 ff ff
	ff		 lea	 eax, DWORD PTR _ver$[ebp]
  00037	50		 push	 eax
  00038	ff 15 00 00 00
	00		 call	 DWORD PTR __imp__GetVersionExA@4
  0003e	3b f4		 cmp	 esi, esp
  00040	e8 00 00 00 00	 call	 __RTC_CheckEsp

; 140  : 	if( (ver.dwPlatformId == VER_PLATFORM_WIN32_NT) && (ver.dwMajorVersion >= 5) )

  00045	83 bd 74 ff ff
	ff 02		 cmp	 DWORD PTR _ver$[ebp+16], 2
  0004c	75 15		 jne	 SHORT $L24163
  0004e	83 bd 68 ff ff
	ff 05		 cmp	 DWORD PTR _ver$[ebp+4], 5
  00055	72 0c		 jb	 SHORT $L24163

; 141  : 	{
; 142  : 		// On Win2K, CP_THREAD_ACP is supported
; 143  : 		pfnGetThreadACP = _AtlGetThreadACPReal;

  00057	c7 85 5c ff ff
	ff 00 00 00 00	 mov	 DWORD PTR _pfnGetThreadACP$[ebp], OFFSET FLAT:?_AtlGetThreadACPReal@ATL@@YGIXZ ; ATL::_AtlGetThreadACPReal

; 144  : 	}
; 145  : 	else

  00061	eb 0a		 jmp	 SHORT $L24164
$L24163:

; 146  : 	{
; 147  : 		pfnGetThreadACP = _AtlGetThreadACPFake;

  00063	c7 85 5c ff ff
	ff 00 00 00 00	 mov	 DWORD PTR _pfnGetThreadACP$[ebp], OFFSET FLAT:?_AtlGetThreadACPFake@ATL@@YGIXZ ; ATL::_AtlGetThreadACPFake
$L24164:

; 148  : 	}
; 149  : 	InterlockedExchangePointer( reinterpret_cast< void** >(&g_pfnGetThreadACP), pfnGetThreadACP );

  0006d	8b 8d 5c ff ff
	ff		 mov	 ecx, DWORD PTR _pfnGetThreadACP$[ebp]
  00073	51		 push	 ecx
  00074	68 00 00 00 00	 push	 OFFSET FLAT:?g_pfnGetThreadACP@ATL@@3P6GIXZA ; ATL::g_pfnGetThreadACP
  00079	e8 00 00 00 00	 call	 ?InterlockedExchangePointer@@YGPAXPAPAXPAX@Z ; InterlockedExchangePointer

; 150  : 
; 151  : 	return( g_pfnGetThreadACP() );

  0007e	8b f4		 mov	 esi, esp
  00080	ff 15 00 00 00
	00		 call	 DWORD PTR ?g_pfnGetThreadACP@ATL@@3P6GIXZA ; ATL::g_pfnGetThreadACP
  00086	3b f4		 cmp	 esi, esp
  00088	e8 00 00 00 00	 call	 __RTC_CheckEsp

; 152  : }

  0008d	52		 push	 edx
  0008e	8b cd		 mov	 ecx, ebp
  00090	50		 push	 eax
  00091	8d 15 00 00 00
	00		 lea	 edx, DWORD PTR $L197898
  00097	e8 00 00 00 00	 call	 @_RTC_CheckStackVars@8
  0009c	58		 pop	 eax
  0009d	5a		 pop	 edx
  0009e	8b 4d fc	 mov	 ecx, DWORD PTR __$ArrayPad$[ebp]
  000a1	e8 00 00 00 00	 call	 @__security_check_cookie@4
  000a6	5f		 pop	 edi
  000a7	5e		 pop	 esi
  000a8	81 c4 a4 00 00
	00		 add	 esp, 164		; 000000a4H
  000ae	3b ec		 cmp	 ebp, esp
  000b0	e8 00 00 00 00	 call	 __RTC_CheckEsp
  000b5	8b e5		 mov	 esp, ebp
  000b7	5d		 pop	 ebp
  000b8	c3		 ret	 0
$L197898:
  000b9	01 00 00 00	 DD	 1
  000bd	00 00 00 00	 DD	 $L197897
$L197897:
  000c1	64 ff ff ff	 DD	 -156			; ffffff64H
  000c5	94 00 00 00	 DD	 148			; 00000094H
  000c9	00 00 00 00	 DD	 $L197894
$L197894:
  000cd	76		 DB	 118			; 00000076H
  000ce	65		 DB	 101			; 00000065H
  000cf	72		 DB	 114			; 00000072H
  000d0	00		 DB	 0
?_AtlGetThreadACPThunk@ATL@@YGIXZ ENDP			; ATL::_AtlGetThreadACPThunk
_TEXT	ENDS
EXTRN	__imp__InterlockedExchange@8:NEAR
; Function compile flags: /Odt /RTCsu
;	COMDAT ?InterlockedExchangePointer@@YGPAXPAPAXPAX@Z
_TEXT	SEGMENT
_pp$ = 8						; size = 4
_pNew$ = 12						; size = 4
?InterlockedExchangePointer@@YGPAXPAPAXPAX@Z PROC NEAR	; InterlockedExchangePointer, COMDAT

; 91   : {

  00000	55		 push	 ebp
  00001	8b ec		 mov	 ebp, esp
  00003	56		 push	 esi

; 92   : 	return( reinterpret_cast<void*>(static_cast<LONG_PTR>(::InterlockedExchange(reinterpret_cast<LONG*>(pp), static_cast<LONG>(reinterpret_cast<LONG_PTR>(pNew))))) );

  00004	8b f4		 mov	 esi, esp
  00006	8b 45 0c	 mov	 eax, DWORD PTR _pNew$[ebp]
  00009	50		 push	 eax
  0000a	8b 4d 08	 mov	 ecx, DWORD PTR _pp$[ebp]
  0000d	51		 push	 ecx
  0000e	ff 15 00 00 00
	00		 call	 DWORD PTR __imp__InterlockedExchange@8
  00014	3b f4		 cmp	 esi, esp
  00016	e8 00 00 00 00	 call	 __RTC_CheckEsp

; 93   : }

  0001b	5e		 pop	 esi
  0001c	3b ec		 cmp	 ebp, esp
  0001e	e8 00 00 00 00	 call	 __RTC_CheckEsp
  00023	5d		 pop	 ebp
  00024	c2 08 00	 ret	 8
?InterlockedExchangePointer@@YGPAXPAPAXPAX@Z ENDP	; InterlockedExchangePointer
_TEXT	ENDS
EXTRN	__imp__GetACP@0:NEAR
EXTRN	__imp__GetLocaleInfoA@16:NEAR
EXTRN	__imp__GetThreadLocale@0:NEAR
; Function compile flags: /Odt /RTCsu
;	COMDAT ?_AtlGetThreadACPFake@ATL@@YGIXZ
_TEXT	SEGMENT
_pch$24151 = -32					; size = 4
_szACP$ = -24						; size = 7
_lcidThread$ = -12					; size = 4
_nACP$ = -8						; size = 4
__$ArrayPad$ = -4					; size = 4
__$ReturnAddr$ = 4					; size = 4
?_AtlGetThreadACPFake@ATL@@YGIXZ PROC NEAR		; ATL::_AtlGetThreadACPFake, COMDAT

; 101  : {

  00000	55		 push	 ebp
  00001	8b ec		 mov	 ebp, esp
  00003	83 ec 20	 sub	 esp, 32			; 00000020H
  00006	56		 push	 esi
  00007	b8 cc cc cc cc	 mov	 eax, -858993460		; ccccccccH
  0000c	89 45 e0	 mov	 DWORD PTR [ebp-32], eax
  0000f	89 45 e4	 mov	 DWORD PTR [ebp-28], eax
  00012	89 45 e8	 mov	 DWORD PTR [ebp-24], eax
  00015	89 45 ec	 mov	 DWORD PTR [ebp-20], eax
  00018	89 45 f0	 mov	 DWORD PTR [ebp-16], eax
  0001b	89 45 f4	 mov	 DWORD PTR [ebp-12], eax
  0001e	89 45 f8	 mov	 DWORD PTR [ebp-8], eax
  00021	89 45 fc	 mov	 DWORD PTR [ebp-4], eax
  00024	a1 00 00 00 00	 mov	 eax, DWORD PTR ___security_cookie
  00029	89 45 fc	 mov	 DWORD PTR __$ArrayPad$[ebp], eax

; 102  : 	UINT nACP = 0;

  0002c	c7 45 f8 00 00
	00 00		 mov	 DWORD PTR _nACP$[ebp], 0

; 103  : 
; 104  : 	LCID lcidThread = ::GetThreadLocale();

  00033	8b f4		 mov	 esi, esp
  00035	ff 15 00 00 00
	00		 call	 DWORD PTR __imp__GetThreadLocale@0
  0003b	3b f4		 cmp	 esi, esp
  0003d	e8 00 00 00 00	 call	 __RTC_CheckEsp
  00042	89 45 f4	 mov	 DWORD PTR _lcidThread$[ebp], eax

; 105  : 
; 106  : 	char szACP[7];
; 107  : 	// GetLocaleInfoA will fail for a Unicode-only LCID, but those are only supported on 
; 108  : 	// Windows 2000.  Since Windows 2000 supports CP_THREAD_ACP, this code path is never
; 109  : 	// executed on Windows 2000.
; 110  : 	if (::GetLocaleInfoA(lcidThread, LOCALE_IDEFAULTANSICODEPAGE, szACP, 7) != 0)

  00045	8b f4		 mov	 esi, esp
  00047	6a 07		 push	 7
  00049	8d 45 e8	 lea	 eax, DWORD PTR _szACP$[ebp]
  0004c	50		 push	 eax
  0004d	68 04 10 00 00	 push	 4100			; 00001004H
  00052	8b 4d f4	 mov	 ecx, DWORD PTR _lcidThread$[ebp]
  00055	51		 push	 ecx
  00056	ff 15 00 00 00
	00		 call	 DWORD PTR __imp__GetLocaleInfoA@16
  0005c	3b f4		 cmp	 esi, esp
  0005e	e8 00 00 00 00	 call	 __RTC_CheckEsp
  00063	85 c0		 test	 eax, eax
  00065	74 34		 je	 SHORT $L24150

; 111  : 	{
; 112  : 		char* pch = szACP;

  00067	8d 55 e8	 lea	 edx, DWORD PTR _szACP$[ebp]
  0006a	89 55 e0	 mov	 DWORD PTR _pch$24151[ebp], edx
$L24153:

; 113  : 		while (*pch != '\0')

  0006d	8b 45 e0	 mov	 eax, DWORD PTR _pch$24151[ebp]
  00070	0f be 08	 movsx	 ecx, BYTE PTR [eax]
  00073	85 c9		 test	 ecx, ecx
  00075	74 24		 je	 SHORT $L24150

; 114  : 		{
; 115  : 			nACP *= 10;

  00077	8b 55 f8	 mov	 edx, DWORD PTR _nACP$[ebp]
  0007a	6b d2 0a	 imul	 edx, 10			; 0000000aH
  0007d	89 55 f8	 mov	 DWORD PTR _nACP$[ebp], edx

; 116  : 			nACP += *pch++ - '0';

  00080	8b 45 e0	 mov	 eax, DWORD PTR _pch$24151[ebp]
  00083	0f be 08	 movsx	 ecx, BYTE PTR [eax]
  00086	8b 55 f8	 mov	 edx, DWORD PTR _nACP$[ebp]
  00089	8d 44 0a d0	 lea	 eax, DWORD PTR [edx+ecx-48]
  0008d	89 45 f8	 mov	 DWORD PTR _nACP$[ebp], eax
  00090	8b 4d e0	 mov	 ecx, DWORD PTR _pch$24151[ebp]
  00093	83 c1 01	 add	 ecx, 1
  00096	89 4d e0	 mov	 DWORD PTR _pch$24151[ebp], ecx

; 117  : 		}

  00099	eb d2		 jmp	 SHORT $L24153
$L24150:

; 118  : 	}
; 119  : 	// Use the Default ANSI Code Page if we were unable to get the thread ACP or if one does not exist.
; 120  : 	if (nACP == 0)

  0009b	83 7d f8 00	 cmp	 DWORD PTR _nACP$[ebp], 0
  0009f	75 12		 jne	 SHORT $L24155

; 121  : 		nACP = ::GetACP();

  000a1	8b f4		 mov	 esi, esp
  000a3	ff 15 00 00 00
	00		 call	 DWORD PTR __imp__GetACP@0
  000a9	3b f4		 cmp	 esi, esp
  000ab	e8 00 00 00 00	 call	 __RTC_CheckEsp
  000b0	89 45 f8	 mov	 DWORD PTR _nACP$[ebp], eax
$L24155:

; 122  : 
; 123  : 	return nACP;

  000b3	8b 45 f8	 mov	 eax, DWORD PTR _nACP$[ebp]

; 124  : }

  000b6	52		 push	 edx
  000b7	8b cd		 mov	 ecx, ebp
  000b9	50		 push	 eax
  000ba	8d 15 00 00 00
	00		 lea	 edx, DWORD PTR $L197909
  000c0	e8 00 00 00 00	 call	 @_RTC_CheckStackVars@8
  000c5	58		 pop	 eax
  000c6	5a		 pop	 edx
  000c7	8b 4d fc	 mov	 ecx, DWORD PTR __$ArrayPad$[ebp]
  000ca	e8 00 00 00 00	 call	 @__security_check_cookie@4
  000cf	5e		 pop	 esi
  000d0	83 c4 20	 add	 esp, 32			; 00000020H
  000d3	3b ec		 cmp	 ebp, esp
  000d5	e8 00 00 00 00	 call	 __RTC_CheckEsp
  000da	8b e5		 mov	 esp, ebp
  000dc	5d		 pop	 ebp
  000dd	c3		 ret	 0
$L197909:
  000de	01 00 00 00	 DD	 1
  000e2	00 00 00 00	 DD	 $L197908
$L197908:
  000e6	e8 ff ff ff	 DD	 -24			; ffffffe8H
  000ea	07 00 00 00	 DD	 7
  000ee	00 00 00 00	 DD	 $L197906
$L197906:
  000f2	73		 DB	 115			; 00000073H
  000f3	7a		 DB	 122			; 0000007aH
  000f4	41		 DB	 65			; 00000041H
  000f5	43		 DB	 67			; 00000043H
  000f6	50		 DB	 80			; 00000050H
  000f7	00		 DB	 0
?_AtlGetThreadACPFake@ATL@@YGIXZ ENDP			; ATL::_AtlGetThreadACPFake
; Function compile flags: /Odt /RTCsu
_TEXT	ENDS
;	COMDAT ?_AtlGetThreadACPReal@ATL@@YGIXZ
_TEXT	SEGMENT
?_AtlGetThreadACPReal@ATL@@YGIXZ PROC NEAR		; ATL::_AtlGetThreadACPReal, COMDAT

; 127  : {

  00000	55		 push	 ebp
  00001	8b ec		 mov	 ebp, esp

; 128  : 	return( CP_THREAD_ACP );

  00003	b8 03 00 00 00	 mov	 eax, 3

; 129  : }

  00008	5d		 pop	 ebp
  00009	c3		 ret	 0
?_AtlGetThreadACPReal@ATL@@YGIXZ ENDP			; ATL::_AtlGetThreadACPReal
_TEXT	ENDS
PUBLIC	?GetThisClass@CTopPanelWnd@@SGPAUCRuntimeClass@@XZ ; CTopPanelWnd::GetThisClass
; Function compile flags: /Odt /RTCsu
; File d:\boxgit\playbox\playbox\dev\prj\playbox\src\module\toppanel\toppanelwnd.cpp
_TEXT	SEGMENT
?GetThisClass@CTopPanelWnd@@SGPAUCRuntimeClass@@XZ PROC NEAR ; CTopPanelWnd::GetThisClass

; 24   : IMPLEMENT_DYNAMIC(CTopPanelWnd, CBasicWnd)

  00000	55		 push	 ebp
  00001	8b ec		 mov	 ebp, esp
  00003	b8 00 00 00 00	 mov	 eax, OFFSET FLAT:?classCTopPanelWnd@CTopPanelWnd@@2UCRuntimeClass@@B ; CTopPanelWnd::classCTopPanelWnd
  00008	5d		 pop	 ebp
  00009	c3		 ret	 0
?GetThisClass@CTopPanelWnd@@SGPAUCRuntimeClass@@XZ ENDP	; CTopPanelWnd::GetThisClass
_TEXT	ENDS
PUBLIC	?GetRuntimeClass@CTopPanelWnd@@UBEPAUCRuntimeClass@@XZ ; CTopPanelWnd::GetRuntimeClass
; Function compile flags: /Odt /RTCsu
_TEXT	SEGMENT
_this$ = -4						; size = 4
?GetRuntimeClass@CTopPanelWnd@@UBEPAUCRuntimeClass@@XZ PROC NEAR ; CTopPanelWnd::GetRuntimeClass
; _this$ = ecx

; 24   : IMPLEMENT_DYNAMIC(CTopPanelWnd, CBasicWnd)

  00010	55		 push	 ebp
  00011	8b ec		 mov	 ebp, esp
  00013	51		 push	 ecx
  00014	c7 45 fc cc cc
	cc cc		 mov	 DWORD PTR [ebp-4], -858993460 ; ccccccccH
  0001b	89 4d fc	 mov	 DWORD PTR _this$[ebp], ecx
  0001e	b8 00 00 00 00	 mov	 eax, OFFSET FLAT:?classCTopPanelWnd@CTopPanelWnd@@2UCRuntimeClass@@B ; CTopPanelWnd::classCTopPanelWnd
  00023	8b e5		 mov	 esp, ebp
  00025	5d		 pop	 ebp
  00026	c3		 ret	 0
?GetRuntimeClass@CTopPanelWnd@@UBEPAUCRuntimeClass@@XZ ENDP ; CTopPanelWnd::GetRuntimeClass
_TEXT	ENDS
PUBLIC	??0CTopPanelWnd@@QAE@XZ				; CTopPanelWnd::CTopPanelWnd
PUBLIC	?GetMessageMap@CTopPanelWnd@@MBEPBUAFX_MSGMAP@@XZ ; CTopPanelWnd::GetMessageMap
PUBLIC	??0?$vector@V?$basic_string@DU?$char_traits@D@std@@V?$allocator@D@2@@std@@V?$allocator@V?$basic_string@DU?$char_traits@D@std@@V?$allocator@D@2@@std@@@2@@std@@QAE@XZ ; std::vector<std::basic_string<char,std::char_traits<char>,std::allocator<char> >,std::allocator<std::basic_string<char,std::char_traits<char>,std::allocator<char> > > >::vector<std::basic_string<char,std::char_traits<char>,std::allocator<char> >,std::allocator<std::basic_string<char,std::char_traits<char>,std::allocator<char> > > >
PUBLIC	??1?$vector@V?$basic_string@DU?$char_traits@D@std@@V?$allocator@D@2@@std@@V?$allocator@V?$basic_string@DU?$char_traits@D@std@@V?$allocator@D@2@@std@@@2@@std@@QAE@XZ ; std::vector<std::basic_string<char,std::char_traits<char>,std::allocator<char> >,std::allocator<std::basic_string<char,std::char_traits<char>,std::allocator<char> > > >::~vector<std::basic_string<char,std::char_traits<char>,std::allocator<char> >,std::allocator<std::basic_string<char,std::char_traits<char>,std::allocator<char> > > >
PUBLIC	?ILayoutChangeOb_InitFinished@CTopPanelWnd@@UAEXXZ ; CTopPanelWnd::ILayoutChangeOb_InitFinished
PUBLIC	?ILayoutChangeOb_SkinChanged@CTopPanelWnd@@UAEXV?$basic_string@DU?$char_traits@D@std@@V?$allocator@D@2@@std@@0@Z ; CTopPanelWnd::ILayoutChangeOb_SkinChanged
PUBLIC	?IPanelChangeOb_WindowMax@CTopPanelWnd@@UAEXXZ	; CTopPanelWnd::IPanelChangeOb_WindowMax
PUBLIC	?IPanelChangeOb_WindowMin@CTopPanelWnd@@UAEXXZ	; CTopPanelWnd::IPanelChangeOb_WindowMin
PUBLIC	?IPanelChangeOb_WindowRestore@CTopPanelWnd@@UAEXXZ ; CTopPanelWnd::IPanelChangeOb_WindowRestore
PUBLIC	?IPanelChangeOb_WindowClose@CTopPanelWnd@@UAEXXZ ; CTopPanelWnd::IPanelChangeOb_WindowClose
PUBLIC	??_7CTopPanelWnd@@6BCBasicWnd@@@		; CTopPanelWnd::`vftable'
PUBLIC	??_7CTopPanelWnd@@6BILayoutChangeObserver@@@	; CTopPanelWnd::`vftable'
PUBLIC	??_7CTopPanelWnd@@6BIPanelChangeObserver@@@	; CTopPanelWnd::`vftable'
PUBLIC	??_GCTopPanelWnd@@UAEPAXI@Z			; CTopPanelWnd::`scalar deleting destructor'
PUBLIC	??_R1A@?0A@A@CWnd@@8				; CWnd::`RTTI Base Class Descriptor at (0,-1,0,0)'
PUBLIC	??_R0?AVCWnd@@@8				; CWnd `RTTI Type Descriptor'
PUBLIC	??_R1A@?0A@A@CCmdTarget@@8			; CCmdTarget::`RTTI Base Class Descriptor at (0,-1,0,0)'
PUBLIC	??_R0?AVCCmdTarget@@@8				; CCmdTarget `RTTI Type Descriptor'
PUBLIC	??_R1A@?0A@A@CObject@@8				; CObject::`RTTI Base Class Descriptor at (0,-1,0,0)'
PUBLIC	??_R0?AVCObject@@@8				; CObject `RTTI Type Descriptor'
PUBLIC	??_R0?AVIMessageObserver@@@8			; IMessageObserver `RTTI Type Descriptor'
PUBLIC	??_R0?AVILayoutChangeObserver@@@8		; ILayoutChangeObserver `RTTI Type Descriptor'
PUBLIC	??_R0?AVIPanelChangeObserver@@@8		; IPanelChangeObserver `RTTI Type Descriptor'
PUBLIC	??_R4CTopPanelWnd@@6BCBasicWnd@@@		; CTopPanelWnd::`RTTI Complete Object Locator'
PUBLIC	??_R0?AVCTopPanelWnd@@@8			; CTopPanelWnd `RTTI Type Descriptor'
PUBLIC	??_R3CTopPanelWnd@@8				; CTopPanelWnd::`RTTI Class Hierarchy Descriptor'
PUBLIC	??_R2CTopPanelWnd@@8				; CTopPanelWnd::`RTTI Base Class Array'
PUBLIC	??_R1A@?0A@A@CTopPanelWnd@@8			; CTopPanelWnd::`RTTI Base Class Descriptor at (0,-1,0,0)'
PUBLIC	??_R1A@?0A@A@CBasicWnd@@8			; CBasicWnd::`RTTI Base Class Descriptor at (0,-1,0,0)'
PUBLIC	??_R0?AVCBasicWnd@@@8				; CBasicWnd `RTTI Type Descriptor'
PUBLIC	??_R1FE@?0A@A@ILayoutChangeObserver@@8		; ILayoutChangeObserver::`RTTI Base Class Descriptor at (84,-1,0,0)'
PUBLIC	??_R1FE@?0A@1IMessageObserver@@8		; IMessageObserver::`RTTI Base Class Descriptor at (84,-1,0,2)'
PUBLIC	??_R1FI@?0A@A@IPanelChangeObserver@@8		; IPanelChangeObserver::`RTTI Base Class Descriptor at (88,-1,0,0)'
PUBLIC	??_R1FI@?0A@1IMessageObserver@@8		; IMessageObserver::`RTTI Base Class Descriptor at (88,-1,0,2)'
PUBLIC	??_ECTopPanelWnd@@WFE@AEPAXI@Z			; [thunk]:CTopPanelWnd::`vector deleting destructor'
PUBLIC	??_R4CTopPanelWnd@@6BILayoutChangeObserver@@@	; CTopPanelWnd::`RTTI Complete Object Locator'
PUBLIC	??_ECTopPanelWnd@@WFI@AEPAXI@Z			; [thunk]:CTopPanelWnd::`vector deleting destructor'
PUBLIC	??_R4CTopPanelWnd@@6BIPanelChangeObserver@@@	; CTopPanelWnd::`RTTI Complete Object Locator'
PUBLIC	?ILayoutChangeOb_LayerChanged@ILayoutChangeObserver@@UAEXV?$basic_string@DU?$char_traits@D@std@@V?$allocator@D@2@@std@@00@Z ; ILayoutChangeObserver::ILayoutChangeOb_LayerChanged
PUBLIC	?ILayoutChangeOb_PaneChanged@ILayoutChangeObserver@@UAEXV?$basic_string@DU?$char_traits@D@std@@V?$allocator@D@2@@std@@0@Z ; ILayoutChangeObserver::ILayoutChangeOb_PaneChanged
PUBLIC	?ILayoutChangeOb_ColorChanged@ILayoutChangeObserver@@UAEXXZ ; ILayoutChangeObserver::ILayoutChangeOb_ColorChanged
PUBLIC	?ILayoutChangeOb_ColorChanging@ILayoutChangeObserver@@UAEXXZ ; ILayoutChangeObserver::ILayoutChangeOb_ColorChanging
PUBLIC	?ILayoutChangeOb_UpdateLayout@ILayoutChangeObserver@@UAEXPAUHWND__@@@Z ; ILayoutChangeObserver::ILayoutChangeOb_UpdateLayout
PUBLIC	?ILayoutChangeOb_InitBegin@ILayoutChangeObserver@@UAEXXZ ; ILayoutChangeObserver::ILayoutChangeOb_InitBegin
PUBLIC	??0ILayoutChangeObserver@@QAE@XZ		; ILayoutChangeObserver::ILayoutChangeObserver
PUBLIC	??1ILayoutChangeObserver@@UAE@XZ		; ILayoutChangeObserver::~ILayoutChangeObserver
PUBLIC	?IPanelChangeOb_ToFullScreen@IPanelChangeObserver@@UAEXPAVCWnd@@@Z ; IPanelChangeObserver::IPanelChangeOb_ToFullScreen
PUBLIC	?IPanelChangeOb_ExitFullScreen@IPanelChangeObserver@@UAEXPAVCWnd@@@Z ; IPanelChangeObserver::IPanelChangeOb_ExitFullScreen
PUBLIC	??0IPanelChangeObserver@@QAE@XZ			; IPanelChangeObserver::IPanelChangeObserver
PUBLIC	??1IPanelChangeObserver@@UAE@XZ			; IPanelChangeObserver::~IPanelChangeObserver
EXTRN	?GetInterfaceMap@CWnd@@MBEPBUAFX_INTERFACEMAP@@XZ:NEAR ; CWnd::GetInterfaceMap
EXTRN	?EnsureStdObj@CWnd@@UAEJXZ:NEAR			; CWnd::EnsureStdObj
EXTRN	?get_accParent@CWnd@@UAEJPAPAUIDispatch@@@Z:NEAR ; CWnd::get_accParent
EXTRN	?OnCmdMsg@CCmdTarget@@UAEHIHPAXPAUAFX_CMDHANDLERINFO@@@Z:NEAR ; CCmdTarget::OnCmdMsg
EXTRN	?get_accChildCount@CWnd@@UAEJPAJ@Z:NEAR		; CWnd::get_accChildCount
EXTRN	?IsInvokeAllowed@CCmdTarget@@UAEHJ@Z:NEAR	; CCmdTarget::IsInvokeAllowed
EXTRN	?get_accChild@CWnd@@UAEJUtagVARIANT@@PAPAUIDispatch@@@Z:NEAR ; CWnd::get_accChild
EXTRN	?get_accName@CWnd@@UAEJUtagVARIANT@@PAPA_W@Z:NEAR ; CWnd::get_accName
EXTRN	?get_accValue@CWnd@@UAEJUtagVARIANT@@PAPA_W@Z:NEAR ; CWnd::get_accValue
EXTRN	?GetDispatchIID@CCmdTarget@@UAEHPAU_GUID@@@Z:NEAR ; CCmdTarget::GetDispatchIID
EXTRN	?GetTypeInfoCount@CCmdTarget@@UAEIXZ:NEAR	; CCmdTarget::GetTypeInfoCount
EXTRN	?GetTypeLibCache@CCmdTarget@@UAEPAVCTypeLibCache@@XZ:NEAR ; CCmdTarget::GetTypeLibCache
EXTRN	?get_accDescription@CWnd@@UAEJUtagVARIANT@@PAPA_W@Z:NEAR ; CWnd::get_accDescription
EXTRN	?AfxGetMessageManager@@YAPAVIMessageManager@@XZ:NEAR ; AfxGetMessageManager
EXTRN	?GetTypeLib@CCmdTarget@@UAEJKPAPAUITypeLib@@@Z:NEAR ; CCmdTarget::GetTypeLib
EXTRN	?get_accRole@CWnd@@UAEJUtagVARIANT@@PAU2@@Z:NEAR ; CWnd::get_accRole
EXTRN	?AfxGetUserConfig@@YAPAVAfxUserConfig@@XZ:NEAR	; AfxGetUserConfig
EXTRN	?get_accState@CWnd@@UAEJUtagVARIANT@@PAU2@@Z:NEAR ; CWnd::get_accState
EXTRN	?get_accHelp@CWnd@@UAEJUtagVARIANT@@PAPA_W@Z:NEAR ; CWnd::get_accHelp
EXTRN	?get_accHelpTopic@CWnd@@UAEJPAPA_WUtagVARIANT@@PAJ@Z:NEAR ; CWnd::get_accHelpTopic
EXTRN	?get_accKeyboardShortcut@CWnd@@UAEJUtagVARIANT@@PAPA_W@Z:NEAR ; CWnd::get_accKeyboardShortcut
EXTRN	?get_accFocus@CWnd@@UAEJPAUtagVARIANT@@@Z:NEAR	; CWnd::get_accFocus
EXTRN	?get_accSelection@CWnd@@UAEJPAUtagVARIANT@@@Z:NEAR ; CWnd::get_accSelection
EXTRN	?get_accDefaultAction@CWnd@@UAEJUtagVARIANT@@PAPA_W@Z:NEAR ; CWnd::get_accDefaultAction
EXTRN	?GetCommandMap@CCmdTarget@@MBEPBUAFX_OLECMDMAP@@XZ:NEAR ; CCmdTarget::GetCommandMap
EXTRN	?accSelect@CWnd@@UAEJJUtagVARIANT@@@Z:NEAR	; CWnd::accSelect
EXTRN	?accLocation@CWnd@@UAEJPAJ000UtagVARIANT@@@Z:NEAR ; CWnd::accLocation
EXTRN	?GetDispatchMap@CCmdTarget@@MBEPBUAFX_DISPMAP@@XZ:NEAR ; CCmdTarget::GetDispatchMap
EXTRN	?accNavigate@CWnd@@UAEJJUtagVARIANT@@PAU2@@Z:NEAR ; CWnd::accNavigate
EXTRN	?accHitTest@CWnd@@UAEJJJPAUtagVARIANT@@@Z:NEAR	; CWnd::accHitTest
EXTRN	?GetConnectionMap@CCmdTarget@@MBEPBUAFX_CONNECTIONMAP@@XZ:NEAR ; CCmdTarget::GetConnectionMap
EXTRN	?accDoDefaultAction@CWnd@@UAEJUtagVARIANT@@@Z:NEAR ; CWnd::accDoDefaultAction
EXTRN	?put_accName@CWnd@@UAEJUtagVARIANT@@PA_W@Z:NEAR	; CWnd::put_accName
EXTRN	?put_accValue@CWnd@@UAEJUtagVARIANT@@PA_W@Z:NEAR ; CWnd::put_accValue
EXTRN	?SetProxy@CWnd@@UAEJPAUIAccessibleProxy@@@Z:NEAR ; CWnd::SetProxy
EXTRN	?CreateAccessibleProxy@CWnd@@UAEJIJPAJ@Z:NEAR	; CWnd::CreateAccessibleProxy
EXTRN	?GetEventSinkMap@CCmdTarget@@MBEPBUAFX_EVENTSINKMAP@@XZ:NEAR ; CCmdTarget::GetEventSinkMap
EXTRN	?OnCreateAggregates@CCmdTarget@@UAEHXZ:NEAR	; CCmdTarget::OnCreateAggregates
EXTRN	?OnCommand@CWnd@@MAEHIJ@Z:NEAR			; CWnd::OnCommand
EXTRN	?GetInterfaceHook@CCmdTarget@@UAEPAUIUnknown@@PBX@Z:NEAR ; CCmdTarget::GetInterfaceHook
EXTRN	??_ECTopPanelWnd@@UAEPAXI@Z:NEAR		; CTopPanelWnd::`vector deleting destructor'
EXTRN	?OnNotify@CWnd@@MAEHIJPAJ@Z:NEAR		; CWnd::OnNotify
EXTRN	__except_list:DWORD
EXTRN	___CxxFrameHandler:NEAR
EXTRN	?GetExtraConnectionPoints@CCmdTarget@@MAEHPAVCPtrArray@@@Z:NEAR ; CCmdTarget::GetExtraConnectionPoints
EXTRN	?GetConnectionHook@CCmdTarget@@MAEPAUIConnectionPoint@@ABU_GUID@@@Z:NEAR ; CCmdTarget::GetConnectionHook
EXTRN	?PreSubclassWindow@CWnd@@UAEXXZ:NEAR		; CWnd::PreSubclassWindow
EXTRN	?Create@CWnd@@UAEHPBD0KABUtagRECT@@PAV1@IPAUCCreateContext@@@Z:NEAR ; CWnd::Create
EXTRN	?CreateEx@CWnd@@UAEHKPBD0KHHHHPAUHWND__@@PAUHMENU__@@PAX@Z:NEAR ; CWnd::CreateEx
EXTRN	__imp_??0?$basic_string@DU?$char_traits@D@std@@V?$allocator@D@2@@std@@QAE@PBD@Z:NEAR
EXTRN	?CreateEx@CWnd@@UAEHKPBD0KABUtagRECT@@PAV1@IPAX@Z:NEAR ; CWnd::CreateEx
EXTRN	__imp_??1?$basic_string@DU?$char_traits@D@std@@V?$allocator@D@2@@std@@QAE@XZ:NEAR
EXTRN	?GetConfigBoolValue@AfxUserConfig@@QAEXABV?$basic_string@DU?$char_traits@D@std@@V?$allocator@D@2@@std@@0AA_N@Z:NEAR ; AfxUserConfig::GetConfigBoolValue
EXTRN	?Serialize@CObject@@UAEXAAVCArchive@@@Z:NEAR	; CObject::Serialize
EXTRN	?DestroyWindow@CWnd@@UAEHXZ:NEAR		; CWnd::DestroyWindow
EXTRN	?PreCreateWindow@CWnd@@UAEHAAUtagCREATESTRUCTA@@@Z:NEAR ; CWnd::PreCreateWindow
EXTRN	?CalcWindowRect@CWnd@@UAEXPAUtagRECT@@I@Z:NEAR	; CWnd::CalcWindowRect
EXTRN	?GetSuperWndProcAddr@CWnd@@MAEPAP6GJPAUHWND__@@IIJ@ZXZ:NEAR ; CWnd::GetSuperWndProcAddr
EXTRN	?DoDataExchange@CWnd@@MAEXPAVCDataExchange@@@Z:NEAR ; CWnd::DoDataExchange
EXTRN	?BeginModalState@CWnd@@UAEXXZ:NEAR		; CWnd::BeginModalState
EXTRN	?EndModalState@CWnd@@UAEXXZ:NEAR		; CWnd::EndModalState
EXTRN	?PreTranslateMessage@CWnd@@UAEHPAUtagMSG@@@Z:NEAR ; CWnd::PreTranslateMessage
EXTRN	?OnAmbientProperty@CWnd@@UAEHPAVCOleControlSite@@JPAUtagVARIANT@@@Z:NEAR ; CWnd::OnAmbientProperty
EXTRN	?WindowProc@CWnd@@MAEJIIJ@Z:NEAR		; CWnd::WindowProc
EXTRN	?OnWndMsg@CWnd@@MAEHIIJPAJ@Z:NEAR		; CWnd::OnWndMsg
EXTRN	?DefWindowProcA@CWnd@@MAEJIIJ@Z:NEAR		; CWnd::DefWindowProcA
EXTRN	?PostNcDestroy@CWnd@@MAEXXZ:NEAR		; CWnd::PostNcDestroy
EXTRN	?OnChildNotify@CWnd@@MAEHIIJPAJ@Z:NEAR		; CWnd::OnChildNotify
EXTRN	?CheckAutoCenter@CWnd@@UAEHXZ:NEAR		; CWnd::CheckAutoCenter
EXTRN	?AssertValid@CWnd@@UBEXXZ:NEAR			; CWnd::AssertValid
EXTRN	?Dump@CWnd@@UBEXAAVCDumpContext@@@Z:NEAR	; CWnd::Dump
EXTRN	??0CBasicWnd@@QAE@XZ:NEAR			; CBasicWnd::CBasicWnd
EXTRN	??1CBasicWnd@@UAE@XZ:NEAR			; CBasicWnd::~CBasicWnd
EXTRN	?IsFrameWnd@CWnd@@UBEHXZ:NEAR			; CWnd::IsFrameWnd
EXTRN	?OnFinalRelease@CWnd@@UAEXXZ:NEAR		; CWnd::OnFinalRelease
EXTRN	?CreateControlContainer@CWnd@@MAEHPAPAVCOleControlContainer@@@Z:NEAR ; CWnd::CreateControlContainer
EXTRN	?CreateControlSite@CWnd@@MAEHPAVCOleControlContainer@@PAPAVCOleControlSite@@IABU_GUID@@@Z:NEAR ; CWnd::CreateControlSite
EXTRN	?SetOccDialogInfo@CWnd@@MAEHPAU_AFX_OCC_DIALOG_INFO@@@Z:NEAR ; CWnd::SetOccDialogInfo
EXTRN	?OnToolHitTest@CWnd@@UBEHVCPoint@@PAUtagTOOLINFOA@@@Z:NEAR ; CWnd::OnToolHitTest
EXTRN	??0CxSkinButton@@QAE@XZ:NEAR			; CxSkinButton::CxSkinButton
EXTRN	??1CxSkinButton@@UAE@XZ:NEAR			; CxSkinButton::~CxSkinButton
EXTRN	?GetScrollBarCtrl@CWnd@@UBEPAVCScrollBar@@H@Z:NEAR ; CWnd::GetScrollBarCtrl
EXTRN	?WinHelpA@CWnd@@UAEXKI@Z:NEAR			; CWnd::WinHelpA
EXTRN	?HtmlHelpA@CWnd@@UAEXKI@Z:NEAR			; CWnd::HtmlHelpA
EXTRN	??_7type_info@@6B@:QWORD			; type_info::`vftable'
EXTRN	?WinHelpInternal@CWnd@@UAEXKI@Z:NEAR		; CWnd::WinHelpInternal
EXTRN	?ContinueModal@CWnd@@UAEHXZ:NEAR		; CWnd::ContinueModal
EXTRN	?EndModalLoop@CWnd@@UAEXH@Z:NEAR		; CWnd::EndModalLoop
xdata$x	SEGMENT
$T197939 DD	0ffffffffH
	DD	FLAT:$L197920
	DD	00H
	DD	FLAT:$L197921
	DD	01H
	DD	FLAT:$L197922
	DD	02H
	DD	FLAT:$L197923
	DD	03H
	DD	FLAT:$L197924
	DD	04H
	DD	FLAT:$L197925
	DD	05H
	DD	FLAT:$L197926
	DD	06H
	DD	FLAT:$L197927
	DD	07H
	DD	FLAT:$L197928
	DD	08H
	DD	FLAT:$L197929
	DD	09H
	DD	FLAT:$L197930
	DD	0aH
	DD	FLAT:$L197931
	DD	0bH
	DD	FLAT:$L197932
$T197936 DD	019930520H
	DD	0dH
	DD	FLAT:$T197939
	DD	2 DUP(00H)
	DD	2 DUP(00H)
xdata$x	ENDS
;	COMDAT ??_7CTopPanelWnd@@6BCBasicWnd@@@
CONST	SEGMENT
??_7CTopPanelWnd@@6BCBasicWnd@@@ DD FLAT:??_R4CTopPanelWnd@@6BCBasicWnd@@@ ; CTopPanelWnd::`vftable'
	DD	FLAT:?GetRuntimeClass@CTopPanelWnd@@UBEPAUCRuntimeClass@@XZ
	DD	FLAT:??_ECTopPanelWnd@@UAEPAXI@Z
	DD	FLAT:?Serialize@CObject@@UAEXAAVCArchive@@@Z
	DD	FLAT:?AssertValid@CWnd@@UBEXXZ
	DD	FLAT:?Dump@CWnd@@UBEXAAVCDumpContext@@@Z
	DD	FLAT:?OnCmdMsg@CCmdTarget@@UAEHIHPAXPAUAFX_CMDHANDLERINFO@@@Z
	DD	FLAT:?OnFinalRelease@CWnd@@UAEXXZ
	DD	FLAT:?IsInvokeAllowed@CCmdTarget@@UAEHJ@Z
	DD	FLAT:?GetDispatchIID@CCmdTarget@@UAEHPAU_GUID@@@Z
	DD	FLAT:?GetTypeInfoCount@CCmdTarget@@UAEIXZ
	DD	FLAT:?GetTypeLibCache@CCmdTarget@@UAEPAVCTypeLibCache@@XZ
	DD	FLAT:?GetTypeLib@CCmdTarget@@UAEJKPAPAUITypeLib@@@Z
	DD	FLAT:?GetMessageMap@CTopPanelWnd@@MBEPBUAFX_MSGMAP@@XZ
	DD	FLAT:?GetCommandMap@CCmdTarget@@MBEPBUAFX_OLECMDMAP@@XZ
	DD	FLAT:?GetDispatchMap@CCmdTarget@@MBEPBUAFX_DISPMAP@@XZ
	DD	FLAT:?GetConnectionMap@CCmdTarget@@MBEPBUAFX_CONNECTIONMAP@@XZ
	DD	FLAT:?GetInterfaceMap@CWnd@@MBEPBUAFX_INTERFACEMAP@@XZ
	DD	FLAT:?GetEventSinkMap@CCmdTarget@@MBEPBUAFX_EVENTSINKMAP@@XZ
	DD	FLAT:?OnCreateAggregates@CCmdTarget@@UAEHXZ
	DD	FLAT:?GetInterfaceHook@CCmdTarget@@UAEPAUIUnknown@@PBX@Z
	DD	FLAT:?GetExtraConnectionPoints@CCmdTarget@@MAEHPAVCPtrArray@@@Z
	DD	FLAT:?GetConnectionHook@CCmdTarget@@MAEPAUIConnectionPoint@@ABU_GUID@@@Z
	DD	FLAT:?PreSubclassWindow@CWnd@@UAEXXZ
	DD	FLAT:?Create@CWnd@@UAEHPBD0KABUtagRECT@@PAV1@IPAUCCreateContext@@@Z
	DD	FLAT:?CreateEx@CWnd@@UAEHKPBD0KABUtagRECT@@PAV1@IPAX@Z
	DD	FLAT:?CreateEx@CWnd@@UAEHKPBD0KHHHHPAUHWND__@@PAUHMENU__@@PAX@Z
	DD	FLAT:?DestroyWindow@CWnd@@UAEHXZ
	DD	FLAT:?PreCreateWindow@CWnd@@UAEHAAUtagCREATESTRUCTA@@@Z
	DD	FLAT:?CalcWindowRect@CWnd@@UAEXPAUtagRECT@@I@Z
	DD	FLAT:?OnToolHitTest@CWnd@@UBEHVCPoint@@PAUtagTOOLINFOA@@@Z
	DD	FLAT:?GetScrollBarCtrl@CWnd@@UBEPAVCScrollBar@@H@Z
	DD	FLAT:?WinHelpA@CWnd@@UAEXKI@Z
	DD	FLAT:?HtmlHelpA@CWnd@@UAEXKI@Z
	DD	FLAT:?WinHelpInternal@CWnd@@UAEXKI@Z
	DD	FLAT:?ContinueModal@CWnd@@UAEHXZ
	DD	FLAT:?EndModalLoop@CWnd@@UAEXH@Z
	DD	FLAT:?EnsureStdObj@CWnd@@UAEJXZ
	DD	FLAT:?get_accParent@CWnd@@UAEJPAPAUIDispatch@@@Z
	DD	FLAT:?get_accChildCount@CWnd@@UAEJPAJ@Z
	DD	FLAT:?get_accChild@CWnd@@UAEJUtagVARIANT@@PAPAUIDispatch@@@Z
	DD	FLAT:?get_accName@CWnd@@UAEJUtagVARIANT@@PAPA_W@Z
	DD	FLAT:?get_accValue@CWnd@@UAEJUtagVARIANT@@PAPA_W@Z
	DD	FLAT:?get_accDescription@CWnd@@UAEJUtagVARIANT@@PAPA_W@Z
	DD	FLAT:?get_accRole@CWnd@@UAEJUtagVARIANT@@PAU2@@Z
	DD	FLAT:?get_accState@CWnd@@UAEJUtagVARIANT@@PAU2@@Z
	DD	FLAT:?get_accHelp@CWnd@@UAEJUtagVARIANT@@PAPA_W@Z
	DD	FLAT:?get_accHelpTopic@CWnd@@UAEJPAPA_WUtagVARIANT@@PAJ@Z
	DD	FLAT:?get_accKeyboardShortcut@CWnd@@UAEJUtagVARIANT@@PAPA_W@Z
	DD	FLAT:?get_accFocus@CWnd@@UAEJPAUtagVARIANT@@@Z
	DD	FLAT:?get_accSelection@CWnd@@UAEJPAUtagVARIANT@@@Z
	DD	FLAT:?get_accDefaultAction@CWnd@@UAEJUtagVARIANT@@PAPA_W@Z
	DD	FLAT:?accSelect@CWnd@@UAEJJUtagVARIANT@@@Z
	DD	FLAT:?accLocation@CWnd@@UAEJPAJ000UtagVARIANT@@@Z
	DD	FLAT:?accNavigate@CWnd@@UAEJJUtagVARIANT@@PAU2@@Z
	DD	FLAT:?accHitTest@CWnd@@UAEJJJPAUtagVARIANT@@@Z
	DD	FLAT:?accDoDefaultAction@CWnd@@UAEJUtagVARIANT@@@Z
	DD	FLAT:?put_accName@CWnd@@UAEJUtagVARIANT@@PA_W@Z
	DD	FLAT:?put_accValue@CWnd@@UAEJUtagVARIANT@@PA_W@Z
	DD	FLAT:?SetProxy@CWnd@@UAEJPAUIAccessibleProxy@@@Z
	DD	FLAT:?CreateAccessibleProxy@CWnd@@UAEJIJPAJ@Z
	DD	FLAT:?OnCommand@CWnd@@MAEHIJ@Z
	DD	FLAT:?OnNotify@CWnd@@MAEHIJPAJ@Z
	DD	FLAT:?GetSuperWndProcAddr@CWnd@@MAEPAP6GJPAUHWND__@@IIJ@ZXZ
	DD	FLAT:?DoDataExchange@CWnd@@MAEXPAVCDataExchange@@@Z
	DD	FLAT:?BeginModalState@CWnd@@UAEXXZ
	DD	FLAT:?EndModalState@CWnd@@UAEXXZ
	DD	FLAT:?PreTranslateMessage@CWnd@@UAEHPAUtagMSG@@@Z
	DD	FLAT:?OnAmbientProperty@CWnd@@UAEHPAVCOleControlSite@@JPAUtagVARIANT@@@Z
	DD	FLAT:?WindowProc@CWnd@@MAEJIIJ@Z
	DD	FLAT:?OnWndMsg@CWnd@@MAEHIIJPAJ@Z
	DD	FLAT:?DefWindowProcA@CWnd@@MAEJIIJ@Z
	DD	FLAT:?PostNcDestroy@CWnd@@MAEXXZ
	DD	FLAT:?OnChildNotify@CWnd@@MAEHIIJPAJ@Z
	DD	FLAT:?CheckAutoCenter@CWnd@@UAEHXZ
	DD	FLAT:?IsFrameWnd@CWnd@@UBEHXZ
	DD	FLAT:?CreateControlContainer@CWnd@@MAEHPAPAVCOleControlContainer@@@Z
	DD	FLAT:?CreateControlSite@CWnd@@MAEHPAVCOleControlContainer@@PAPAVCOleControlSite@@IABU_GUID@@@Z
	DD	FLAT:?SetOccDialogInfo@CWnd@@MAEHPAU_AFX_OCC_DIALOG_INFO@@@Z
CONST	ENDS
;	COMDAT ??_7CTopPanelWnd@@6BILayoutChangeObserver@@@
CONST	SEGMENT
??_7CTopPanelWnd@@6BILayoutChangeObserver@@@ DD FLAT:??_R4CTopPanelWnd@@6BILayoutChangeObserver@@@ ; CTopPanelWnd::`vftable'
	DD	FLAT:??_ECTopPanelWnd@@WFE@AEPAXI@Z
	DD	FLAT:?ILayoutChangeOb_LayerChanged@ILayoutChangeObserver@@UAEXV?$basic_string@DU?$char_traits@D@std@@V?$allocator@D@2@@std@@00@Z
	DD	FLAT:?ILayoutChangeOb_PaneChanged@ILayoutChangeObserver@@UAEXV?$basic_string@DU?$char_traits@D@std@@V?$allocator@D@2@@std@@0@Z
	DD	FLAT:?ILayoutChangeOb_SkinChanged@CTopPanelWnd@@UAEXV?$basic_string@DU?$char_traits@D@std@@V?$allocator@D@2@@std@@0@Z
	DD	FLAT:?ILayoutChangeOb_ColorChanged@ILayoutChangeObserver@@UAEXXZ
	DD	FLAT:?ILayoutChangeOb_ColorChanging@ILayoutChangeObserver@@UAEXXZ
	DD	FLAT:?ILayoutChangeOb_UpdateLayout@ILayoutChangeObserver@@UAEXPAUHWND__@@@Z
	DD	FLAT:?ILayoutChangeOb_InitFinished@CTopPanelWnd@@UAEXXZ
	DD	FLAT:?ILayoutChangeOb_InitBegin@ILayoutChangeObserver@@UAEXXZ
CONST	ENDS
;	COMDAT ??_7CTopPanelWnd@@6BIPanelChangeObserver@@@
CONST	SEGMENT
??_7CTopPanelWnd@@6BIPanelChangeObserver@@@ DD FLAT:??_R4CTopPanelWnd@@6BIPanelChangeObserver@@@ ; CTopPanelWnd::`vftable'
	DD	FLAT:??_ECTopPanelWnd@@WFI@AEPAXI@Z
	DD	FLAT:?IPanelChangeOb_WindowMax@CTopPanelWnd@@UAEXXZ
	DD	FLAT:?IPanelChangeOb_WindowMin@CTopPanelWnd@@UAEXXZ
	DD	FLAT:?IPanelChangeOb_WindowRestore@CTopPanelWnd@@UAEXXZ
	DD	FLAT:?IPanelChangeOb_WindowClose@CTopPanelWnd@@UAEXXZ
	DD	FLAT:?IPanelChangeOb_ToFullScreen@IPanelChangeObserver@@UAEXPAVCWnd@@@Z
	DD	FLAT:?IPanelChangeOb_ExitFullScreen@IPanelChangeObserver@@UAEXPAVCWnd@@@Z
CONST	ENDS
;	COMDAT ??_R4CTopPanelWnd@@6BCBasicWnd@@@
rdata$r	SEGMENT
??_R4CTopPanelWnd@@6BCBasicWnd@@@ DD 00H		; CTopPanelWnd::`RTTI Complete Object Locator'
	DD	00H
	DD	00H
	DD	FLAT:??_R0?AVCTopPanelWnd@@@8
	DD	FLAT:??_R3CTopPanelWnd@@8
rdata$r	ENDS
;	COMDAT ??_R0?AVCTopPanelWnd@@@8
_DATA	SEGMENT
??_R0?AVCTopPanelWnd@@@8 DD FLAT:??_7type_info@@6B@	; CTopPanelWnd `RTTI Type Descriptor'
	DD	00H
	DB	'.?AVCTopPanelWnd@@', 00H
_DATA	ENDS
;	COMDAT ??_R3CTopPanelWnd@@8
rdata$r	SEGMENT
??_R3CTopPanelWnd@@8 DD 00H				; CTopPanelWnd::`RTTI Class Hierarchy Descriptor'
	DD	05H
	DD	09H
	DD	FLAT:??_R2CTopPanelWnd@@8
rdata$r	ENDS
;	COMDAT ??_R2CTopPanelWnd@@8
rdata$r	SEGMENT
??_R2CTopPanelWnd@@8 DD FLAT:??_R1A@?0A@A@CTopPanelWnd@@8 ; CTopPanelWnd::`RTTI Base Class Array'
	DD	FLAT:??_R1A@?0A@A@CBasicWnd@@8
	DD	FLAT:??_R1A@?0A@A@CWnd@@8
	DD	FLAT:??_R1A@?0A@A@CCmdTarget@@8
	DD	FLAT:??_R1A@?0A@A@CObject@@8
	DD	FLAT:??_R1FE@?0A@A@ILayoutChangeObserver@@8
	DD	FLAT:??_R1FE@?0A@1IMessageObserver@@8
	DD	FLAT:??_R1FI@?0A@A@IPanelChangeObserver@@8
	DD	FLAT:??_R1FI@?0A@1IMessageObserver@@8
rdata$r	ENDS
;	COMDAT ??_R1A@?0A@A@CTopPanelWnd@@8
rdata$r	SEGMENT
??_R1A@?0A@A@CTopPanelWnd@@8 DD FLAT:??_R0?AVCTopPanelWnd@@@8 ; CTopPanelWnd::`RTTI Base Class Descriptor at (0,-1,0,0)'
	DD	08H
	DD	00H
	DD	0ffffffffH
	DD	00H
	DD	00H
rdata$r	ENDS
;	COMDAT ??_R1A@?0A@A@CBasicWnd@@8
rdata$r	SEGMENT
??_R1A@?0A@A@CBasicWnd@@8 DD FLAT:??_R0?AVCBasicWnd@@@8	; CBasicWnd::`RTTI Base Class Descriptor at (0,-1,0,0)'
	DD	03H
	DD	00H
	DD	0ffffffffH
	DD	00H
	DD	00H
rdata$r	ENDS
;	COMDAT ??_R0?AVCBasicWnd@@@8
_DATA	SEGMENT
??_R0?AVCBasicWnd@@@8 DD FLAT:??_7type_info@@6B@	; CBasicWnd `RTTI Type Descriptor'
	DD	00H
	DB	'.?AVCBasicWnd@@', 00H
_DATA	ENDS
;	COMDAT ??_R1A@?0A@A@CWnd@@8
rdata$r	SEGMENT
??_R1A@?0A@A@CWnd@@8 DD FLAT:??_R0?AVCWnd@@@8		; CWnd::`RTTI Base Class Descriptor at (0,-1,0,0)'
	DD	02H
	DD	00H
	DD	0ffffffffH
	DD	00H
	DD	00H
rdata$r	ENDS
;	COMDAT ??_R0?AVCWnd@@@8
_DATA	SEGMENT
??_R0?AVCWnd@@@8 DD FLAT:??_7type_info@@6B@		; CWnd `RTTI Type Descriptor'
	DD	00H
	DB	'.?AVCWnd@@', 00H
_DATA	ENDS
;	COMDAT ??_R1A@?0A@A@CCmdTarget@@8
rdata$r	SEGMENT
??_R1A@?0A@A@CCmdTarget@@8 DD FLAT:??_R0?AVCCmdTarget@@@8 ; CCmdTarget::`RTTI Base Class Descriptor at (0,-1,0,0)'
	DD	01H
	DD	00H
	DD	0ffffffffH
	DD	00H
	DD	00H
rdata$r	ENDS
;	COMDAT ??_R0?AVCCmdTarget@@@8
_DATA	SEGMENT
??_R0?AVCCmdTarget@@@8 DD FLAT:??_7type_info@@6B@	; CCmdTarget `RTTI Type Descriptor'
	DD	00H
	DB	'.?AVCCmdTarget@@', 00H
_DATA	ENDS
;	COMDAT ??_R1A@?0A@A@CObject@@8
rdata$r	SEGMENT
??_R1A@?0A@A@CObject@@8 DD FLAT:??_R0?AVCObject@@@8	; CObject::`RTTI Base Class Descriptor at (0,-1,0,0)'
	DD	00H
	DD	00H
	DD	0ffffffffH
	DD	00H
	DD	00H
rdata$r	ENDS
;	COMDAT ??_R0?AVCObject@@@8
_DATA	SEGMENT
??_R0?AVCObject@@@8 DD FLAT:??_7type_info@@6B@		; CObject `RTTI Type Descriptor'
	DD	00H
	DB	'.?AVCObject@@', 00H
_DATA	ENDS
;	COMDAT ??_R1FE@?0A@A@ILayoutChangeObserver@@8
rdata$r	SEGMENT
??_R1FE@?0A@A@ILayoutChangeObserver@@8 DD FLAT:??_R0?AVILayoutChangeObserver@@@8 ; ILayoutChangeObserver::`RTTI Base Class Descriptor at (84,-1,0,0)'
	DD	01H
	DD	054H
	DD	0ffffffffH
	DD	00H
	DD	00H
rdata$r	ENDS
;	COMDAT ??_R0?AVILayoutChangeObserver@@@8
_DATA	SEGMENT
??_R0?AVILayoutChangeObserver@@@8 DD FLAT:??_7type_info@@6B@ ; ILayoutChangeObserver `RTTI Type Descriptor'
	DD	00H
	DB	'.?AVILayoutChangeObserver@@', 00H
_DATA	ENDS
;	COMDAT ??_R1FE@?0A@1IMessageObserver@@8
rdata$r	SEGMENT
??_R1FE@?0A@1IMessageObserver@@8 DD FLAT:??_R0?AVIMessageObserver@@@8 ; IMessageObserver::`RTTI Base Class Descriptor at (84,-1,0,2)'
	DD	00H
	DD	054H
	DD	0ffffffffH
	DD	00H
	DD	02H
rdata$r	ENDS
;	COMDAT ??_R0?AVIMessageObserver@@@8
_DATA	SEGMENT
??_R0?AVIMessageObserver@@@8 DD FLAT:??_7type_info@@6B@	; IMessageObserver `RTTI Type Descriptor'
	DD	00H
	DB	'.?AVIMessageObserver@@', 00H
	ORG $-31
	DD	FLAT:??_7type_info@@6B@
	DD	00H
	DB	'.?AVIMessageObserver@@', 00H
_DATA	ENDS
;	COMDAT ??_R1FI@?0A@A@IPanelChangeObserver@@8
rdata$r	SEGMENT
??_R1FI@?0A@A@IPanelChangeObserver@@8 DD FLAT:??_R0?AVIPanelChangeObserver@@@8 ; IPanelChangeObserver::`RTTI Base Class Descriptor at (88,-1,0,0)'
	DD	01H
	DD	058H
	DD	0ffffffffH
	DD	00H
	DD	00H
rdata$r	ENDS
;	COMDAT ??_R0?AVIPanelChangeObserver@@@8
_DATA	SEGMENT
??_R0?AVIPanelChangeObserver@@@8 DD FLAT:??_7type_info@@6B@ ; IPanelChangeObserver `RTTI Type Descriptor'
	DD	00H
	DB	'.?AVIPanelChangeObserver@@', 00H
_DATA	ENDS
;	COMDAT ??_R1FI@?0A@1IMessageObserver@@8
rdata$r	SEGMENT
??_R1FI@?0A@1IMessageObserver@@8 DD FLAT:??_R0?AVIMessageObserver@@@8 ; IMessageObserver::`RTTI Base Class Descriptor at (88,-1,0,2)'
	DD	00H
	DD	058H
	DD	0ffffffffH
	DD	00H
	DD	02H
rdata$r	ENDS
;	COMDAT ??_R4CTopPanelWnd@@6BILayoutChangeObserver@@@
rdata$r	SEGMENT
??_R4CTopPanelWnd@@6BILayoutChangeObserver@@@ DD 00H	; CTopPanelWnd::`RTTI Complete Object Locator'
	DD	054H
	DD	00H
	DD	FLAT:??_R0?AVCTopPanelWnd@@@8
	DD	FLAT:??_R3CTopPanelWnd@@8
rdata$r	ENDS
;	COMDAT ??_R4CTopPanelWnd@@6BIPanelChangeObserver@@@
rdata$r	SEGMENT
??_R4CTopPanelWnd@@6BIPanelChangeObserver@@@ DD 00H	; CTopPanelWnd::`RTTI Complete Object Locator'
	DD	058H
	DD	00H
	DD	FLAT:??_R0?AVCTopPanelWnd@@@8
	DD	FLAT:??_R3CTopPanelWnd@@8
; Function compile flags: /Odt /RTCsu
rdata$r	ENDS
_TEXT	SEGMENT
tv199 = -88						; size = 4
tv205 = -84						; size = 4
tv188 = -80						; size = 4
tv194 = -76						; size = 4
$T197915 = -72						; size = 28
$T197914 = -44						; size = 28
_this$ = -16						; size = 4
__$EHRec$ = -12						; size = 12
??0CTopPanelWnd@@QAE@XZ PROC NEAR			; CTopPanelWnd::CTopPanelWnd
; _this$ = ecx

; 26   : {

  00030	55		 push	 ebp
  00031	8b ec		 mov	 ebp, esp
  00033	6a ff		 push	 -1
  00035	68 00 00 00 00	 push	 __ehhandler$??0CTopPanelWnd@@QAE@XZ
  0003a	64 a1 00 00 00
	00		 mov	 eax, DWORD PTR fs:__except_list
  00040	50		 push	 eax
  00041	64 89 25 00 00
	00 00		 mov	 DWORD PTR fs:__except_list, esp
  00048	83 ec 4c	 sub	 esp, 76			; 0000004cH
  0004b	56		 push	 esi
  0004c	57		 push	 edi
  0004d	51		 push	 ecx
  0004e	8d 7d a8	 lea	 edi, DWORD PTR [ebp-88]
  00051	b9 13 00 00 00	 mov	 ecx, 19			; 00000013H
  00056	b8 cc cc cc cc	 mov	 eax, -858993460		; ccccccccH
  0005b	f3 ab		 rep stosd
  0005d	59		 pop	 ecx
  0005e	89 4d f0	 mov	 DWORD PTR _this$[ebp], ecx
  00061	8b 4d f0	 mov	 ecx, DWORD PTR _this$[ebp]
  00064	e8 00 00 00 00	 call	 ??0CBasicWnd@@QAE@XZ	; CBasicWnd::CBasicWnd
  00069	c7 45 fc 00 00
	00 00		 mov	 DWORD PTR __$EHRec$[ebp+8], 0
  00070	8b 4d f0	 mov	 ecx, DWORD PTR _this$[ebp]
  00073	83 c1 54	 add	 ecx, 84			; 00000054H
  00076	e8 00 00 00 00	 call	 ??0ILayoutChangeObserver@@QAE@XZ
  0007b	c6 45 fc 01	 mov	 BYTE PTR __$EHRec$[ebp+8], 1
  0007f	8b 4d f0	 mov	 ecx, DWORD PTR _this$[ebp]
  00082	83 c1 58	 add	 ecx, 88			; 00000058H
  00085	e8 00 00 00 00	 call	 ??0IPanelChangeObserver@@QAE@XZ
  0008a	c6 45 fc 02	 mov	 BYTE PTR __$EHRec$[ebp+8], 2
  0008e	8b 45 f0	 mov	 eax, DWORD PTR _this$[ebp]
  00091	c7 00 00 00 00
	00		 mov	 DWORD PTR [eax], OFFSET FLAT:??_7CTopPanelWnd@@6BCBasicWnd@@@
  00097	8b 4d f0	 mov	 ecx, DWORD PTR _this$[ebp]
  0009a	c7 41 54 00 00
	00 00		 mov	 DWORD PTR [ecx+84], OFFSET FLAT:??_7CTopPanelWnd@@6BILayoutChangeObserver@@@
  000a1	8b 55 f0	 mov	 edx, DWORD PTR _this$[ebp]
  000a4	c7 42 58 00 00
	00 00		 mov	 DWORD PTR [edx+88], OFFSET FLAT:??_7CTopPanelWnd@@6BIPanelChangeObserver@@@
  000ab	8b 4d f0	 mov	 ecx, DWORD PTR _this$[ebp]
  000ae	83 c1 5c	 add	 ecx, 92			; 0000005cH
  000b1	e8 00 00 00 00	 call	 ??0CxSkinButton@@QAE@XZ	; CxSkinButton::CxSkinButton
  000b6	c6 45 fc 03	 mov	 BYTE PTR __$EHRec$[ebp+8], 3
  000ba	8b 4d f0	 mov	 ecx, DWORD PTR _this$[ebp]
  000bd	81 c1 80 01 00
	00		 add	 ecx, 384		; 00000180H
  000c3	e8 00 00 00 00	 call	 ??0CxSkinButton@@QAE@XZ	; CxSkinButton::CxSkinButton
  000c8	c6 45 fc 04	 mov	 BYTE PTR __$EHRec$[ebp+8], 4
  000cc	8b 4d f0	 mov	 ecx, DWORD PTR _this$[ebp]
  000cf	81 c1 a4 02 00
	00		 add	 ecx, 676		; 000002a4H
  000d5	e8 00 00 00 00	 call	 ??0CxSkinButton@@QAE@XZ	; CxSkinButton::CxSkinButton
  000da	c6 45 fc 05	 mov	 BYTE PTR __$EHRec$[ebp+8], 5
  000de	8b 4d f0	 mov	 ecx, DWORD PTR _this$[ebp]
  000e1	81 c1 c8 03 00
	00		 add	 ecx, 968		; 000003c8H
  000e7	e8 00 00 00 00	 call	 ??0CxSkinButton@@QAE@XZ	; CxSkinButton::CxSkinButton
  000ec	c6 45 fc 06	 mov	 BYTE PTR __$EHRec$[ebp+8], 6
  000f0	8b 4d f0	 mov	 ecx, DWORD PTR _this$[ebp]
  000f3	81 c1 ec 04 00
	00		 add	 ecx, 1260		; 000004ecH
  000f9	e8 00 00 00 00	 call	 ??0CxSkinButton@@QAE@XZ	; CxSkinButton::CxSkinButton
  000fe	c6 45 fc 07	 mov	 BYTE PTR __$EHRec$[ebp+8], 7
  00102	8b 4d f0	 mov	 ecx, DWORD PTR _this$[ebp]
  00105	81 c1 30 06 00
	00		 add	 ecx, 1584		; 00000630H
  0010b	e8 00 00 00 00	 call	 ??0?$vector@V?$basic_string@DU?$char_traits@D@std@@V?$allocator@D@2@@std@@V?$allocator@V?$basic_string@DU?$char_traits@D@std@@V?$allocator@D@2@@std@@@2@@std@@QAE@XZ ; std::vector<std::basic_string<char,std::char_traits<char>,std::allocator<char> >,std::allocator<std::basic_string<char,std::char_traits<char>,std::allocator<char> > > >::vector<std::basic_string<char,std::char_traits<char>,std::allocator<char> >,std::allocator<std::basic_string<char,std::char_traits<char>,std::allocator<char> > > >
  00110	c6 45 fc 08	 mov	 BYTE PTR __$EHRec$[ebp+8], 8
  00114	8b 4d f0	 mov	 ecx, DWORD PTR _this$[ebp]
  00117	81 c1 40 06 00
	00		 add	 ecx, 1600		; 00000640H
  0011d	e8 00 00 00 00	 call	 ??0?$vector@V?$basic_string@DU?$char_traits@D@std@@V?$allocator@D@2@@std@@V?$allocator@V?$basic_string@DU?$char_traits@D@std@@V?$allocator@D@2@@std@@@2@@std@@QAE@XZ ; std::vector<std::basic_string<char,std::char_traits<char>,std::allocator<char> >,std::allocator<std::basic_string<char,std::char_traits<char>,std::allocator<char> > > >::vector<std::basic_string<char,std::char_traits<char>,std::allocator<char> >,std::allocator<std::basic_string<char,std::char_traits<char>,std::allocator<char> > > >
  00122	c6 45 fc 09	 mov	 BYTE PTR __$EHRec$[ebp+8], 9
  00126	8b 4d f0	 mov	 ecx, DWORD PTR _this$[ebp]
  00129	81 c1 50 06 00
	00		 add	 ecx, 1616		; 00000650H
  0012f	e8 00 00 00 00	 call	 ??0?$vector@V?$basic_string@DU?$char_traits@D@std@@V?$allocator@D@2@@std@@V?$allocator@V?$basic_string@DU?$char_traits@D@std@@V?$allocator@D@2@@std@@@2@@std@@QAE@XZ ; std::vector<std::basic_string<char,std::char_traits<char>,std::allocator<char> >,std::allocator<std::basic_string<char,std::char_traits<char>,std::allocator<char> > > >::vector<std::basic_string<char,std::char_traits<char>,std::allocator<char> >,std::allocator<std::basic_string<char,std::char_traits<char>,std::allocator<char> > > >
  00134	c6 45 fc 0a	 mov	 BYTE PTR __$EHRec$[ebp+8], 10 ; 0000000aH
  00138	8b 45 f0	 mov	 eax, DWORD PTR _this$[ebp]
  0013b	c6 80 68 06 00
	00 00		 mov	 BYTE PTR [eax+1640], 0

; 27   : 	AfxGetUserConfig()->GetConfigBoolValue( CONF_APP_MODULE_NAME,CONF_APP_MAINWND_HOLD,m_bMainWndHold);

  00142	8b f4		 mov	 esi, esp
  00144	8b 0d 00 00 00
	00		 mov	 ecx, DWORD PTR _CONF_APP_MAINWND_HOLD
  0014a	51		 push	 ecx
  0014b	8d 4d d4	 lea	 ecx, DWORD PTR $T197914[ebp]
  0014e	ff 15 00 00 00
	00		 call	 DWORD PTR __imp_??0?$basic_string@DU?$char_traits@D@std@@V?$allocator@D@2@@std@@QAE@PBD@Z
  00154	3b f4		 cmp	 esi, esp
  00156	e8 00 00 00 00	 call	 __RTC_CheckEsp
  0015b	c6 45 fc 0b	 mov	 BYTE PTR __$EHRec$[ebp+8], 11 ; 0000000bH
  0015f	8b f4		 mov	 esi, esp
  00161	8b 15 00 00 00
	00		 mov	 edx, DWORD PTR _CONF_APP_MODULE_NAME
  00167	52		 push	 edx
  00168	8d 4d b8	 lea	 ecx, DWORD PTR $T197915[ebp]
  0016b	ff 15 00 00 00
	00		 call	 DWORD PTR __imp_??0?$basic_string@DU?$char_traits@D@std@@V?$allocator@D@2@@std@@QAE@PBD@Z
  00171	3b f4		 cmp	 esi, esp
  00173	e8 00 00 00 00	 call	 __RTC_CheckEsp
  00178	c6 45 fc 0c	 mov	 BYTE PTR __$EHRec$[ebp+8], 12 ; 0000000cH
  0017c	8b 45 f0	 mov	 eax, DWORD PTR _this$[ebp]
  0017f	05 2c 06 00 00	 add	 eax, 1580		; 0000062cH
  00184	50		 push	 eax
  00185	8d 4d d4	 lea	 ecx, DWORD PTR $T197914[ebp]
  00188	51		 push	 ecx
  00189	8d 55 b8	 lea	 edx, DWORD PTR $T197915[ebp]
  0018c	52		 push	 edx
  0018d	e8 00 00 00 00	 call	 ?AfxGetUserConfig@@YAPAVAfxUserConfig@@XZ ; AfxGetUserConfig
  00192	8b c8		 mov	 ecx, eax
  00194	e8 00 00 00 00	 call	 ?GetConfigBoolValue@AfxUserConfig@@QAEXABV?$basic_string@DU?$char_traits@D@std@@V?$allocator@D@2@@std@@0AA_N@Z ; AfxUserConfig::GetConfigBoolValue
  00199	c6 45 fc 0b	 mov	 BYTE PTR __$EHRec$[ebp+8], 11 ; 0000000bH
  0019d	8b f4		 mov	 esi, esp
  0019f	8d 4d b8	 lea	 ecx, DWORD PTR $T197915[ebp]
  001a2	ff 15 00 00 00
	00		 call	 DWORD PTR __imp_??1?$basic_string@DU?$char_traits@D@std@@V?$allocator@D@2@@std@@QAE@XZ
  001a8	3b f4		 cmp	 esi, esp
  001aa	e8 00 00 00 00	 call	 __RTC_CheckEsp
  001af	c6 45 fc 0a	 mov	 BYTE PTR __$EHRec$[ebp+8], 10 ; 0000000aH
  001b3	8b f4		 mov	 esi, esp
  001b5	8d 4d d4	 lea	 ecx, DWORD PTR $T197914[ebp]
  001b8	ff 15 00 00 00
	00		 call	 DWORD PTR __imp_??1?$basic_string@DU?$char_traits@D@std@@V?$allocator@D@2@@std@@QAE@XZ
  001be	3b f4		 cmp	 esi, esp
  001c0	e8 00 00 00 00	 call	 __RTC_CheckEsp

; 28   : 	AfxGetMessageManager()->AttachMessage( ID_MESSAGE_LAYOUTMGR,(ILayoutChangeObserver*) this);

  001c5	83 7d f0 00	 cmp	 DWORD PTR _this$[ebp], 0
  001c9	74 0b		 je	 SHORT $L197916
  001cb	8b 45 f0	 mov	 eax, DWORD PTR _this$[ebp]
  001ce	83 c0 54	 add	 eax, 84			; 00000054H
  001d1	89 45 b4	 mov	 DWORD PTR tv194[ebp], eax
  001d4	eb 07		 jmp	 SHORT $L197917
$L197916:
  001d6	c7 45 b4 00 00
	00 00		 mov	 DWORD PTR tv194[ebp], 0
$L197917:
  001dd	e8 00 00 00 00	 call	 ?AfxGetMessageManager@@YAPAVIMessageManager@@XZ ; AfxGetMessageManager
  001e2	89 45 b0	 mov	 DWORD PTR tv188[ebp], eax
  001e5	8b f4		 mov	 esi, esp
  001e7	6a 02		 push	 2
  001e9	8b 4d b4	 mov	 ecx, DWORD PTR tv194[ebp]
  001ec	51		 push	 ecx
  001ed	68 00 00 00 00	 push	 OFFSET FLAT:_ID_MESSAGE_LAYOUTMGR
  001f2	8b 55 b0	 mov	 edx, DWORD PTR tv188[ebp]
  001f5	8b 02		 mov	 eax, DWORD PTR [edx]
  001f7	8b 4d b0	 mov	 ecx, DWORD PTR tv188[ebp]
  001fa	ff 50 04	 call	 DWORD PTR [eax+4]
  001fd	3b f4		 cmp	 esi, esp
  001ff	e8 00 00 00 00	 call	 __RTC_CheckEsp

; 29   : 	AfxGetMessageManager()->AttachMessage( ID_MESSAGE_PANEL_CHANGE,(IPanelChangeObserver*) this);

  00204	83 7d f0 00	 cmp	 DWORD PTR _this$[ebp], 0
  00208	74 0b		 je	 SHORT $L197918
  0020a	8b 4d f0	 mov	 ecx, DWORD PTR _this$[ebp]
  0020d	83 c1 58	 add	 ecx, 88			; 00000058H
  00210	89 4d ac	 mov	 DWORD PTR tv205[ebp], ecx
  00213	eb 07		 jmp	 SHORT $L197919
$L197918:
  00215	c7 45 ac 00 00
	00 00		 mov	 DWORD PTR tv205[ebp], 0
$L197919:
  0021c	e8 00 00 00 00	 call	 ?AfxGetMessageManager@@YAPAVIMessageManager@@XZ ; AfxGetMessageManager
  00221	89 45 a8	 mov	 DWORD PTR tv199[ebp], eax
  00224	8b f4		 mov	 esi, esp
  00226	6a 02		 push	 2
  00228	8b 55 ac	 mov	 edx, DWORD PTR tv205[ebp]
  0022b	52		 push	 edx
  0022c	68 00 00 00 00	 push	 OFFSET FLAT:_ID_MESSAGE_PANEL_CHANGE
  00231	8b 45 a8	 mov	 eax, DWORD PTR tv199[ebp]
  00234	8b 10		 mov	 edx, DWORD PTR [eax]
  00236	8b 4d a8	 mov	 ecx, DWORD PTR tv199[ebp]
  00239	ff 52 04	 call	 DWORD PTR [edx+4]
  0023c	3b f4		 cmp	 esi, esp
  0023e	e8 00 00 00 00	 call	 __RTC_CheckEsp

; 30   : 	m_bNormal = true;

  00243	8b 45 f0	 mov	 eax, DWORD PTR _this$[ebp]
  00246	c6 80 10 06 00
	00 01		 mov	 BYTE PTR [eax+1552], 1

; 31   : }

  0024d	c7 45 fc ff ff
	ff ff		 mov	 DWORD PTR __$EHRec$[ebp+8], -1
  00254	8b 45 f0	 mov	 eax, DWORD PTR _this$[ebp]
  00257	8b 4d f4	 mov	 ecx, DWORD PTR __$EHRec$[ebp]
  0025a	64 89 0d 00 00
	00 00		 mov	 DWORD PTR fs:__except_list, ecx
  00261	5f		 pop	 edi
  00262	5e		 pop	 esi
  00263	83 c4 58	 add	 esp, 88			; 00000058H
  00266	3b ec		 cmp	 ebp, esp
  00268	e8 00 00 00 00	 call	 __RTC_CheckEsp
  0026d	8b e5		 mov	 esp, ebp
  0026f	5d		 pop	 ebp
  00270	c3		 ret	 0
_TEXT	ENDS
text$x	SEGMENT
$L197920:
  00000	8b 4d f0	 mov	 ecx, DWORD PTR _this$[ebp]
  00003	e9 00 00 00 00	 jmp	 ??1CBasicWnd@@UAE@XZ	; CBasicWnd::~CBasicWnd
$L197921:
  00008	8b 4d f0	 mov	 ecx, DWORD PTR _this$[ebp]
  0000b	83 c1 54	 add	 ecx, 84			; 00000054H
  0000e	e9 00 00 00 00	 jmp	 ??1ILayoutChangeObserver@@UAE@XZ
$L197922:
  00013	8b 4d f0	 mov	 ecx, DWORD PTR _this$[ebp]
  00016	83 c1 58	 add	 ecx, 88			; 00000058H
  00019	e9 00 00 00 00	 jmp	 ??1IPanelChangeObserver@@UAE@XZ
$L197923:
  0001e	8b 4d f0	 mov	 ecx, DWORD PTR _this$[ebp]
  00021	83 c1 5c	 add	 ecx, 92			; 0000005cH
  00024	e9 00 00 00 00	 jmp	 ??1CxSkinButton@@UAE@XZ	; CxSkinButton::~CxSkinButton
$L197924:
  00029	8b 4d f0	 mov	 ecx, DWORD PTR _this$[ebp]
  0002c	81 c1 80 01 00
	00		 add	 ecx, 384		; 00000180H
  00032	e9 00 00 00 00	 jmp	 ??1CxSkinButton@@UAE@XZ	; CxSkinButton::~CxSkinButton
$L197925:
  00037	8b 4d f0	 mov	 ecx, DWORD PTR _this$[ebp]
  0003a	81 c1 a4 02 00
	00		 add	 ecx, 676		; 000002a4H
  00040	e9 00 00 00 00	 jmp	 ??1CxSkinButton@@UAE@XZ	; CxSkinButton::~CxSkinButton
$L197926:
  00045	8b 4d f0	 mov	 ecx, DWORD PTR _this$[ebp]
  00048	81 c1 c8 03 00
	00		 add	 ecx, 968		; 000003c8H
  0004e	e9 00 00 00 00	 jmp	 ??1CxSkinButton@@UAE@XZ	; CxSkinButton::~CxSkinButton
$L197927:
  00053	8b 4d f0	 mov	 ecx, DWORD PTR _this$[ebp]
  00056	81 c1 ec 04 00
	00		 add	 ecx, 1260		; 000004ecH
  0005c	e9 00 00 00 00	 jmp	 ??1CxSkinButton@@UAE@XZ	; CxSkinButton::~CxSkinButton
$L197928:
  00061	8b 4d f0	 mov	 ecx, DWORD PTR _this$[ebp]
  00064	81 c1 30 06 00
	00		 add	 ecx, 1584		; 00000630H
  0006a	e9 00 00 00 00	 jmp	 ??1?$vector@V?$basic_string@DU?$char_traits@D@std@@V?$allocator@D@2@@std@@V?$allocator@V?$basic_string@DU?$char_traits@D@std@@V?$allocator@D@2@@std@@@2@@std@@QAE@XZ ; std::vector<std::basic_string<char,std::char_traits<char>,std::allocator<char> >,std::allocator<std::basic_string<char,std::char_traits<char>,std::allocator<char> > > >::~vector<std::basic_string<char,std::char_traits<char>,std::allocator<char> >,std::allocator<std::basic_string<char,std::char_traits<char>,std::allocator<char> > > >
$L197929:
  0006f	8b 4d f0	 mov	 ecx, DWORD PTR _this$[ebp]
  00072	81 c1 40 06 00
	00		 add	 ecx, 1600		; 00000640H
  00078	e9 00 00 00 00	 jmp	 ??1?$vector@V?$basic_string@DU?$char_traits@D@std@@V?$allocator@D@2@@std@@V?$allocator@V?$basic_string@DU?$char_traits@D@std@@V?$allocator@D@2@@std@@@2@@std@@QAE@XZ ; std::vector<std::basic_string<char,std::char_traits<char>,std::allocator<char> >,std::allocator<std::basic_string<char,std::char_traits<char>,std::allocator<char> > > >::~vector<std::basic_string<char,std::char_traits<char>,std::allocator<char> >,std::allocator<std::basic_string<char,std::char_traits<char>,std::allocator<char> > > >
$L197930:
  0007d	8b 4d f0	 mov	 ecx, DWORD PTR _this$[ebp]
  00080	81 c1 50 06 00
	00		 add	 ecx, 1616		; 00000650H
  00086	e9 00 00 00 00	 jmp	 ??1?$vector@V?$basic_string@DU?$char_traits@D@std@@V?$allocator@D@2@@std@@V?$allocator@V?$basic_string@DU?$char_traits@D@std@@V?$allocator@D@2@@std@@@2@@std@@QAE@XZ ; std::vector<std::basic_string<char,std::char_traits<char>,std::allocator<char> >,std::allocator<std::basic_string<char,std::char_traits<char>,std::allocator<char> > > >::~vector<std::basic_string<char,std::char_traits<char>,std::allocator<char> >,std::allocator<std::basic_string<char,std::char_traits<char>,std::allocator<char> > > >
$L197931:
  0008b	8b f4		 mov	 esi, esp
  0008d	8d 4d d4	 lea	 ecx, DWORD PTR $T197914[ebp]
  00090	ff 15 00 00 00
	00		 call	 DWORD PTR __imp_??1?$basic_string@DU?$char_traits@D@std@@V?$allocator@D@2@@std@@QAE@XZ
  00096	3b f4		 cmp	 esi, esp
  00098	e9 00 00 00 00	 jmp	 __RTC_CheckEsp
$L197932:
  0009d	8b f4		 mov	 esi, esp
  0009f	8d 4d b8	 lea	 ecx, DWORD PTR $T197915[ebp]
  000a2	ff 15 00 00 00
	00		 call	 DWORD PTR __imp_??1?$basic_string@DU?$char_traits@D@std@@V?$allocator@D@2@@std@@QAE@XZ
  000a8	3b f4		 cmp	 esi, esp
  000aa	e9 00 00 00 00	 jmp	 __RTC_CheckEsp
__ehhandler$??0CTopPanelWnd@@QAE@XZ:
  000af	b8 00 00 00 00	 mov	 eax, OFFSET FLAT:$T197936
  000b4	e9 00 00 00 00	 jmp	 ___CxxFrameHandler
text$x	ENDS
??0CTopPanelWnd@@QAE@XZ ENDP				; CTopPanelWnd::CTopPanelWnd
;	COMDAT xdata$x
; File d:\boxgit\playbox\playbox\dev\prj\playbox\src\datainterface\ilayoutchangeobserver.h
xdata$x	SEGMENT
$T197948 DD	0ffffffffH
	DD	FLAT:$L197942
	DD	00H
	DD	FLAT:$L197943
$T197946 DD	019930520H
	DD	02H
	DD	FLAT:$T197948
	DD	2 DUP(00H)
	DD	2 DUP(00H)
; Function compile flags: /Odt /RTCsu
xdata$x	ENDS
;	COMDAT ?ILayoutChangeOb_LayerChanged@ILayoutChangeObserver@@UAEXV?$basic_string@DU?$char_traits@D@std@@V?$allocator@D@2@@std@@00@Z
_TEXT	SEGMENT
_this$ = -16						; size = 4
__$EHRec$ = -12						; size = 12
_paneName$ = 8						; size = 28
_oldLayerName$ = 36					; size = 28
_newLayerName$ = 64					; size = 28
?ILayoutChangeOb_LayerChanged@ILayoutChangeObserver@@UAEXV?$basic_string@DU?$char_traits@D@std@@V?$allocator@D@2@@std@@00@Z PROC NEAR ; ILayoutChangeObserver::ILayoutChangeOb_LayerChanged, COMDAT
; _this$ = ecx

; 9    : 	virtual void	ILayoutChangeOb_LayerChanged(string paneName, string oldLayerName, string newLayerName ){};

  00000	55		 push	 ebp
  00001	8b ec		 mov	 ebp, esp
  00003	6a ff		 push	 -1
  00005	68 00 00 00 00	 push	 __ehhandler$?ILayoutChangeOb_LayerChanged@ILayoutChangeObserver@@UAEXV?$basic_string@DU?$char_traits@D@std@@V?$allocator@D@2@@std@@00@Z
  0000a	64 a1 00 00 00
	00		 mov	 eax, DWORD PTR fs:__except_list
  00010	50		 push	 eax
  00011	64 89 25 00 00
	00 00		 mov	 DWORD PTR fs:__except_list, esp
  00018	51		 push	 ecx
  00019	56		 push	 esi
  0001a	c7 45 f0 cc cc
	cc cc		 mov	 DWORD PTR [ebp-16], -858993460 ; ccccccccH
  00021	89 4d f0	 mov	 DWORD PTR _this$[ebp], ecx
  00024	c7 45 fc 01 00
	00 00		 mov	 DWORD PTR __$EHRec$[ebp+8], 1
  0002b	8b f4		 mov	 esi, esp
  0002d	8d 4d 08	 lea	 ecx, DWORD PTR _paneName$[ebp]
  00030	ff 15 00 00 00
	00		 call	 DWORD PTR __imp_??1?$basic_string@DU?$char_traits@D@std@@V?$allocator@D@2@@std@@QAE@XZ
  00036	3b f4		 cmp	 esi, esp
  00038	e8 00 00 00 00	 call	 __RTC_CheckEsp
  0003d	c6 45 fc 00	 mov	 BYTE PTR __$EHRec$[ebp+8], 0
  00041	8b f4		 mov	 esi, esp
  00043	8d 4d 24	 lea	 ecx, DWORD PTR _oldLayerName$[ebp]
  00046	ff 15 00 00 00
	00		 call	 DWORD PTR __imp_??1?$basic_string@DU?$char_traits@D@std@@V?$allocator@D@2@@std@@QAE@XZ
  0004c	3b f4		 cmp	 esi, esp
  0004e	e8 00 00 00 00	 call	 __RTC_CheckEsp
  00053	c7 45 fc ff ff
	ff ff		 mov	 DWORD PTR __$EHRec$[ebp+8], -1
  0005a	8b f4		 mov	 esi, esp
  0005c	8d 4d 40	 lea	 ecx, DWORD PTR _newLayerName$[ebp]
  0005f	ff 15 00 00 00
	00		 call	 DWORD PTR __imp_??1?$basic_string@DU?$char_traits@D@std@@V?$allocator@D@2@@std@@QAE@XZ
  00065	3b f4		 cmp	 esi, esp
  00067	e8 00 00 00 00	 call	 __RTC_CheckEsp
  0006c	8b 4d f4	 mov	 ecx, DWORD PTR __$EHRec$[ebp]
  0006f	64 89 0d 00 00
	00 00		 mov	 DWORD PTR fs:__except_list, ecx
  00076	5e		 pop	 esi
  00077	83 c4 10	 add	 esp, 16			; 00000010H
  0007a	3b ec		 cmp	 ebp, esp
  0007c	e8 00 00 00 00	 call	 __RTC_CheckEsp
  00081	8b e5		 mov	 esp, ebp
  00083	5d		 pop	 ebp
  00084	c2 54 00	 ret	 84			; 00000054H
_TEXT	ENDS
;	COMDAT text$x
text$x	SEGMENT
$L197942:
  00000	8b f4		 mov	 esi, esp
  00002	8d 4d 40	 lea	 ecx, DWORD PTR _newLayerName$[ebp]
  00005	ff 15 00 00 00
	00		 call	 DWORD PTR __imp_??1?$basic_string@DU?$char_traits@D@std@@V?$allocator@D@2@@std@@QAE@XZ
  0000b	3b f4		 cmp	 esi, esp
  0000d	e9 00 00 00 00	 jmp	 __RTC_CheckEsp
$L197943:
  00012	8b f4		 mov	 esi, esp
  00014	8d 4d 24	 lea	 ecx, DWORD PTR _oldLayerName$[ebp]
  00017	ff 15 00 00 00
	00		 call	 DWORD PTR __imp_??1?$basic_string@DU?$char_traits@D@std@@V?$allocator@D@2@@std@@QAE@XZ
  0001d	3b f4		 cmp	 esi, esp
  0001f	e9 00 00 00 00	 jmp	 __RTC_CheckEsp
__ehhandler$?ILayoutChangeOb_LayerChanged@ILayoutChangeObserver@@UAEXV?$basic_string@DU?$char_traits@D@std@@V?$allocator@D@2@@std@@00@Z:
  00024	b8 00 00 00 00	 mov	 eax, OFFSET FLAT:$T197946
  00029	e9 00 00 00 00	 jmp	 ___CxxFrameHandler
text$x	ENDS
?ILayoutChangeOb_LayerChanged@ILayoutChangeObserver@@UAEXV?$basic_string@DU?$char_traits@D@std@@V?$allocator@D@2@@std@@00@Z ENDP ; ILayoutChangeObserver::ILayoutChangeOb_LayerChanged
;	COMDAT xdata$x
xdata$x	SEGMENT
$T197957 DD	0ffffffffH
	DD	FLAT:$L197952
$T197955 DD	019930520H
	DD	01H
	DD	FLAT:$T197957
	DD	2 DUP(00H)
	DD	2 DUP(00H)
; Function compile flags: /Odt /RTCsu
xdata$x	ENDS
;	COMDAT ?ILayoutChangeOb_PaneChanged@ILayoutChangeObserver@@UAEXV?$basic_string@DU?$char_traits@D@std@@V?$allocator@D@2@@std@@0@Z
_TEXT	SEGMENT
_this$ = -16						; size = 4
__$EHRec$ = -12						; size = 12
_oldPaneName$ = 8					; size = 28
_newPaneName$ = 36					; size = 28
?ILayoutChangeOb_PaneChanged@ILayoutChangeObserver@@UAEXV?$basic_string@DU?$char_traits@D@std@@V?$allocator@D@2@@std@@0@Z PROC NEAR ; ILayoutChangeObserver::ILayoutChangeOb_PaneChanged, COMDAT
; _this$ = ecx

; 10   : 	virtual void	ILayoutChangeOb_PaneChanged(string oldPaneName, string newPaneName){};

  00000	55		 push	 ebp
  00001	8b ec		 mov	 ebp, esp
  00003	6a ff		 push	 -1
  00005	68 00 00 00 00	 push	 __ehhandler$?ILayoutChangeOb_PaneChanged@ILayoutChangeObserver@@UAEXV?$basic_string@DU?$char_traits@D@std@@V?$allocator@D@2@@std@@0@Z
  0000a	64 a1 00 00 00
	00		 mov	 eax, DWORD PTR fs:__except_list
  00010	50		 push	 eax
  00011	64 89 25 00 00
	00 00		 mov	 DWORD PTR fs:__except_list, esp
  00018	51		 push	 ecx
  00019	56		 push	 esi
  0001a	c7 45 f0 cc cc
	cc cc		 mov	 DWORD PTR [ebp-16], -858993460 ; ccccccccH
  00021	89 4d f0	 mov	 DWORD PTR _this$[ebp], ecx
  00024	c7 45 fc 00 00
	00 00		 mov	 DWORD PTR __$EHRec$[ebp+8], 0
  0002b	8b f4		 mov	 esi, esp
  0002d	8d 4d 08	 lea	 ecx, DWORD PTR _oldPaneName$[ebp]
  00030	ff 15 00 00 00
	00		 call	 DWORD PTR __imp_??1?$basic_string@DU?$char_traits@D@std@@V?$allocator@D@2@@std@@QAE@XZ
  00036	3b f4		 cmp	 esi, esp
  00038	e8 00 00 00 00	 call	 __RTC_CheckEsp
  0003d	c7 45 fc ff ff
	ff ff		 mov	 DWORD PTR __$EHRec$[ebp+8], -1
  00044	8b f4		 mov	 esi, esp
  00046	8d 4d 24	 lea	 ecx, DWORD PTR _newPaneName$[ebp]
  00049	ff 15 00 00 00
	00		 call	 DWORD PTR __imp_??1?$basic_string@DU?$char_traits@D@std@@V?$allocator@D@2@@std@@QAE@XZ
  0004f	3b f4		 cmp	 esi, esp
  00051	e8 00 00 00 00	 call	 __RTC_CheckEsp
  00056	8b 4d f4	 mov	 ecx, DWORD PTR __$EHRec$[ebp]
  00059	64 89 0d 00 00
	00 00		 mov	 DWORD PTR fs:__except_list, ecx
  00060	5e		 pop	 esi
  00061	83 c4 10	 add	 esp, 16			; 00000010H
  00064	3b ec		 cmp	 ebp, esp
  00066	e8 00 00 00 00	 call	 __RTC_CheckEsp
  0006b	8b e5		 mov	 esp, ebp
  0006d	5d		 pop	 ebp
  0006e	c2 38 00	 ret	 56			; 00000038H
_TEXT	ENDS
;	COMDAT text$x
text$x	SEGMENT
$L197952:
  00000	8b f4		 mov	 esi, esp
  00002	8d 4d 24	 lea	 ecx, DWORD PTR _newPaneName$[ebp]
  00005	ff 15 00 00 00
	00		 call	 DWORD PTR __imp_??1?$basic_string@DU?$char_traits@D@std@@V?$allocator@D@2@@std@@QAE@XZ
  0000b	3b f4		 cmp	 esi, esp
  0000d	e9 00 00 00 00	 jmp	 __RTC_CheckEsp
__ehhandler$?ILayoutChangeOb_PaneChanged@ILayoutChangeObserver@@UAEXV?$basic_string@DU?$char_traits@D@std@@V?$allocator@D@2@@std@@0@Z:
  00012	b8 00 00 00 00	 mov	 eax, OFFSET FLAT:$T197955
  00017	e9 00 00 00 00	 jmp	 ___CxxFrameHandler
text$x	ENDS
?ILayoutChangeOb_PaneChanged@ILayoutChangeObserver@@UAEXV?$basic_string@DU?$char_traits@D@std@@V?$allocator@D@2@@std@@0@Z ENDP ; ILayoutChangeObserver::ILayoutChangeOb_PaneChanged
; Function compile flags: /Odt /RTCsu
;	COMDAT ?ILayoutChangeOb_ColorChanged@ILayoutChangeObserver@@UAEXXZ
_TEXT	SEGMENT
_this$ = -4						; size = 4
?ILayoutChangeOb_ColorChanged@ILayoutChangeObserver@@UAEXXZ PROC NEAR ; ILayoutChangeObserver::ILayoutChangeOb_ColorChanged, COMDAT
; _this$ = ecx

; 12   : 	virtual void	ILayoutChangeOb_ColorChanged(){};

  00000	55		 push	 ebp
  00001	8b ec		 mov	 ebp, esp
  00003	51		 push	 ecx
  00004	c7 45 fc cc cc
	cc cc		 mov	 DWORD PTR [ebp-4], -858993460 ; ccccccccH
  0000b	89 4d fc	 mov	 DWORD PTR _this$[ebp], ecx
  0000e	8b e5		 mov	 esp, ebp
  00010	5d		 pop	 ebp
  00011	c3		 ret	 0
?ILayoutChangeOb_ColorChanged@ILayoutChangeObserver@@UAEXXZ ENDP ; ILayoutChangeObserver::ILayoutChangeOb_ColorChanged
; Function compile flags: /Odt /RTCsu
_TEXT	ENDS
;	COMDAT ?ILayoutChangeOb_ColorChanging@ILayoutChangeObserver@@UAEXXZ
_TEXT	SEGMENT
_this$ = -4						; size = 4
?ILayoutChangeOb_ColorChanging@ILayoutChangeObserver@@UAEXXZ PROC NEAR ; ILayoutChangeObserver::ILayoutChangeOb_ColorChanging, COMDAT
; _this$ = ecx

; 13   : 	virtual void	ILayoutChangeOb_ColorChanging(){};

  00000	55		 push	 ebp
  00001	8b ec		 mov	 ebp, esp
  00003	51		 push	 ecx
  00004	c7 45 fc cc cc
	cc cc		 mov	 DWORD PTR [ebp-4], -858993460 ; ccccccccH
  0000b	89 4d fc	 mov	 DWORD PTR _this$[ebp], ecx
  0000e	8b e5		 mov	 esp, ebp
  00010	5d		 pop	 ebp
  00011	c3		 ret	 0
?ILayoutChangeOb_ColorChanging@ILayoutChangeObserver@@UAEXXZ ENDP ; ILayoutChangeObserver::ILayoutChangeOb_ColorChanging
; Function compile flags: /Odt /RTCsu
_TEXT	ENDS
;	COMDAT ?ILayoutChangeOb_UpdateLayout@ILayoutChangeObserver@@UAEXPAUHWND__@@@Z
_TEXT	SEGMENT
_this$ = -4						; size = 4
_m_hWnd$ = 8						; size = 4
?ILayoutChangeOb_UpdateLayout@ILayoutChangeObserver@@UAEXPAUHWND__@@@Z PROC NEAR ; ILayoutChangeObserver::ILayoutChangeOb_UpdateLayout, COMDAT
; _this$ = ecx

; 14   : 	virtual void	ILayoutChangeOb_UpdateLayout(HWND m_hWnd){};

  00000	55		 push	 ebp
  00001	8b ec		 mov	 ebp, esp
  00003	51		 push	 ecx
  00004	c7 45 fc cc cc
	cc cc		 mov	 DWORD PTR [ebp-4], -858993460 ; ccccccccH
  0000b	89 4d fc	 mov	 DWORD PTR _this$[ebp], ecx
  0000e	8b e5		 mov	 esp, ebp
  00010	5d		 pop	 ebp
  00011	c2 04 00	 ret	 4
?ILayoutChangeOb_UpdateLayout@ILayoutChangeObserver@@UAEXPAUHWND__@@@Z ENDP ; ILayoutChangeObserver::ILayoutChangeOb_UpdateLayout
; Function compile flags: /Odt /RTCsu
_TEXT	ENDS
;	COMDAT ?ILayoutChangeOb_InitBegin@ILayoutChangeObserver@@UAEXXZ
_TEXT	SEGMENT
_this$ = -4						; size = 4
?ILayoutChangeOb_InitBegin@ILayoutChangeObserver@@UAEXXZ PROC NEAR ; ILayoutChangeObserver::ILayoutChangeOb_InitBegin, COMDAT
; _this$ = ecx

; 16   : 	virtual void	ILayoutChangeOb_InitBegin(){};

  00000	55		 push	 ebp
  00001	8b ec		 mov	 ebp, esp
  00003	51		 push	 ecx
  00004	c7 45 fc cc cc
	cc cc		 mov	 DWORD PTR [ebp-4], -858993460 ; ccccccccH
  0000b	89 4d fc	 mov	 DWORD PTR _this$[ebp], ecx
  0000e	8b e5		 mov	 esp, ebp
  00010	5d		 pop	 ebp
  00011	c3		 ret	 0
?ILayoutChangeOb_InitBegin@ILayoutChangeObserver@@UAEXXZ ENDP ; ILayoutChangeObserver::ILayoutChangeOb_InitBegin
; Function compile flags: /Odt /RTCsu
; File d:\boxgit\playbox\playbox\dev\prj\playbox\src\datainterface\ipanelchangeobserver.h
_TEXT	ENDS
;	COMDAT ?IPanelChangeOb_ToFullScreen@IPanelChangeObserver@@UAEXPAVCWnd@@@Z
_TEXT	SEGMENT
_this$ = -4						; size = 4
_pWnd$ = 8						; size = 4
?IPanelChangeOb_ToFullScreen@IPanelChangeObserver@@UAEXPAVCWnd@@@Z PROC NEAR ; IPanelChangeObserver::IPanelChangeOb_ToFullScreen, COMDAT
; _this$ = ecx

; 13   : 	virtual void	IPanelChangeOb_ToFullScreen( CWnd* pWnd ){};

  00000	55		 push	 ebp
  00001	8b ec		 mov	 ebp, esp
  00003	51		 push	 ecx
  00004	c7 45 fc cc cc
	cc cc		 mov	 DWORD PTR [ebp-4], -858993460 ; ccccccccH
  0000b	89 4d fc	 mov	 DWORD PTR _this$[ebp], ecx
  0000e	8b e5		 mov	 esp, ebp
  00010	5d		 pop	 ebp
  00011	c2 04 00	 ret	 4
?IPanelChangeOb_ToFullScreen@IPanelChangeObserver@@UAEXPAVCWnd@@@Z ENDP ; IPanelChangeObserver::IPanelChangeOb_ToFullScreen
; Function compile flags: /Odt /RTCsu
_TEXT	ENDS
;	COMDAT ?IPanelChangeOb_ExitFullScreen@IPanelChangeObserver@@UAEXPAVCWnd@@@Z
_TEXT	SEGMENT
_this$ = -4						; size = 4
_pWnd$ = 8						; size = 4
?IPanelChangeOb_ExitFullScreen@IPanelChangeObserver@@UAEXPAVCWnd@@@Z PROC NEAR ; IPanelChangeObserver::IPanelChangeOb_ExitFullScreen, COMDAT
; _this$ = ecx

; 14   : 	virtual void	IPanelChangeOb_ExitFullScreen( CWnd* pWnd ){};

  00000	55		 push	 ebp
  00001	8b ec		 mov	 ebp, esp
  00003	51		 push	 ecx
  00004	c7 45 fc cc cc
	cc cc		 mov	 DWORD PTR [ebp-4], -858993460 ; ccccccccH
  0000b	89 4d fc	 mov	 DWORD PTR _this$[ebp], ecx
  0000e	8b e5		 mov	 esp, ebp
  00010	5d		 pop	 ebp
  00011	c2 04 00	 ret	 4
?IPanelChangeOb_ExitFullScreen@IPanelChangeObserver@@UAEXPAVCWnd@@@Z ENDP ; IPanelChangeObserver::IPanelChangeOb_ExitFullScreen
_TEXT	ENDS
PUBLIC	??1CTopPanelWnd@@UAE@XZ				; CTopPanelWnd::~CTopPanelWnd
EXTRN	??3CObject@@SGXPAX@Z:NEAR			; CObject::operator delete
; Function compile flags: /Odt /RTCsu
;	COMDAT ??_GCTopPanelWnd@@UAEPAXI@Z
_TEXT	SEGMENT
_this$ = -4						; size = 4
___flags$ = 8						; size = 4
??_GCTopPanelWnd@@UAEPAXI@Z PROC NEAR			; CTopPanelWnd::`scalar deleting destructor', COMDAT
; _this$ = ecx
  00000	55		 push	 ebp
  00001	8b ec		 mov	 ebp, esp
  00003	51		 push	 ecx
  00004	c7 45 fc cc cc
	cc cc		 mov	 DWORD PTR [ebp-4], -858993460 ; ccccccccH
  0000b	89 4d fc	 mov	 DWORD PTR _this$[ebp], ecx
  0000e	8b 4d fc	 mov	 ecx, DWORD PTR _this$[ebp]
  00011	e8 00 00 00 00	 call	 ??1CTopPanelWnd@@UAE@XZ	; CTopPanelWnd::~CTopPanelWnd
  00016	8b 45 08	 mov	 eax, DWORD PTR ___flags$[ebp]
  00019	83 e0 01	 and	 eax, 1
  0001c	74 09		 je	 SHORT $L196417
  0001e	8b 4d fc	 mov	 ecx, DWORD PTR _this$[ebp]
  00021	51		 push	 ecx
  00022	e8 00 00 00 00	 call	 ??3CObject@@SGXPAX@Z	; CObject::operator delete
$L196417:
  00027	8b 45 fc	 mov	 eax, DWORD PTR _this$[ebp]
  0002a	83 c4 04	 add	 esp, 4
  0002d	3b ec		 cmp	 ebp, esp
  0002f	e8 00 00 00 00	 call	 __RTC_CheckEsp
  00034	8b e5		 mov	 esp, ebp
  00036	5d		 pop	 ebp
  00037	c2 04 00	 ret	 4
??_GCTopPanelWnd@@UAEPAXI@Z ENDP			; CTopPanelWnd::`scalar deleting destructor'
_TEXT	ENDS
PUBLIC	??0IMessageObserver@@QAE@XZ			; IMessageObserver::IMessageObserver
PUBLIC	??_R1A@?0A@A@IMessageObserver@@8		; IMessageObserver::`RTTI Base Class Descriptor at (0,-1,0,0)'
PUBLIC	??_R4ILayoutChangeObserver@@6B@			; ILayoutChangeObserver::`RTTI Complete Object Locator'
PUBLIC	??_R3ILayoutChangeObserver@@8			; ILayoutChangeObserver::`RTTI Class Hierarchy Descriptor'
PUBLIC	??_R2ILayoutChangeObserver@@8			; ILayoutChangeObserver::`RTTI Base Class Array'
PUBLIC	??_R1A@?0A@A@ILayoutChangeObserver@@8		; ILayoutChangeObserver::`RTTI Base Class Descriptor at (0,-1,0,0)'
PUBLIC	?ILayoutChangeOb_SkinChanged@ILayoutChangeObserver@@UAEXV?$basic_string@DU?$char_traits@D@std@@V?$allocator@D@2@@std@@0@Z ; ILayoutChangeObserver::ILayoutChangeOb_SkinChanged
PUBLIC	?ILayoutChangeOb_InitFinished@ILayoutChangeObserver@@UAEXXZ ; ILayoutChangeObserver::ILayoutChangeOb_InitFinished
PUBLIC	??_7ILayoutChangeObserver@@6B@			; ILayoutChangeObserver::`vftable'
PUBLIC	??_GILayoutChangeObserver@@UAEPAXI@Z		; ILayoutChangeObserver::`scalar deleting destructor'
EXTRN	??_EILayoutChangeObserver@@UAEPAXI@Z:NEAR	; ILayoutChangeObserver::`vector deleting destructor'
;	COMDAT ??_7ILayoutChangeObserver@@6B@
CONST	SEGMENT
??_7ILayoutChangeObserver@@6B@ DD FLAT:??_R4ILayoutChangeObserver@@6B@ ; ILayoutChangeObserver::`vftable'
	DD	FLAT:??_EILayoutChangeObserver@@UAEPAXI@Z
	DD	FLAT:?ILayoutChangeOb_LayerChanged@ILayoutChangeObserver@@UAEXV?$basic_string@DU?$char_traits@D@std@@V?$allocator@D@2@@std@@00@Z
	DD	FLAT:?ILayoutChangeOb_PaneChanged@ILayoutChangeObserver@@UAEXV?$basic_string@DU?$char_traits@D@std@@V?$allocator@D@2@@std@@0@Z
	DD	FLAT:?ILayoutChangeOb_SkinChanged@ILayoutChangeObserver@@UAEXV?$basic_string@DU?$char_traits@D@std@@V?$allocator@D@2@@std@@0@Z
	DD	FLAT:?ILayoutChangeOb_ColorChanged@ILayoutChangeObserver@@UAEXXZ
	DD	FLAT:?ILayoutChangeOb_ColorChanging@ILayoutChangeObserver@@UAEXXZ
	DD	FLAT:?ILayoutChangeOb_UpdateLayout@ILayoutChangeObserver@@UAEXPAUHWND__@@@Z
	DD	FLAT:?ILayoutChangeOb_InitFinished@ILayoutChangeObserver@@UAEXXZ
	DD	FLAT:?ILayoutChangeOb_InitBegin@ILayoutChangeObserver@@UAEXXZ
CONST	ENDS
;	COMDAT ??_R4ILayoutChangeObserver@@6B@
rdata$r	SEGMENT
??_R4ILayoutChangeObserver@@6B@ DD 00H			; ILayoutChangeObserver::`RTTI Complete Object Locator'
	DD	00H
	DD	00H
	DD	FLAT:??_R0?AVILayoutChangeObserver@@@8
	DD	FLAT:??_R3ILayoutChangeObserver@@8
rdata$r	ENDS
;	COMDAT ??_R3ILayoutChangeObserver@@8
rdata$r	SEGMENT
??_R3ILayoutChangeObserver@@8 DD 00H			; ILayoutChangeObserver::`RTTI Class Hierarchy Descriptor'
	DD	00H
	DD	02H
	DD	FLAT:??_R2ILayoutChangeObserver@@8
rdata$r	ENDS
;	COMDAT ??_R2ILayoutChangeObserver@@8
rdata$r	SEGMENT
??_R2ILayoutChangeObserver@@8 DD FLAT:??_R1A@?0A@A@ILayoutChangeObserver@@8 ; ILayoutChangeObserver::`RTTI Base Class Array'
	DD	FLAT:??_R1A@?0A@A@IMessageObserver@@8
rdata$r	ENDS
;	COMDAT ??_R1A@?0A@A@ILayoutChangeObserver@@8
rdata$r	SEGMENT
??_R1A@?0A@A@ILayoutChangeObserver@@8 DD FLAT:??_R0?AVILayoutChangeObserver@@@8 ; ILayoutChangeObserver::`RTTI Base Class Descriptor at (0,-1,0,0)'
	DD	01H
	DD	00H
	DD	0ffffffffH
	DD	00H
	DD	00H
rdata$r	ENDS
;	COMDAT ??_R1A@?0A@A@IMessageObserver@@8
rdata$r	SEGMENT
??_R1A@?0A@A@IMessageObserver@@8 DD FLAT:??_R0?AVIMessageObserver@@@8 ; IMessageObserver::`RTTI Base Class Descriptor at (0,-1,0,0)'
	DD	00H
	DD	00H
	DD	0ffffffffH
	DD	00H
	DD	00H
; Function compile flags: /Odt /RTCsu
rdata$r	ENDS
;	COMDAT ??0ILayoutChangeObserver@@QAE@XZ
_TEXT	SEGMENT
_this$ = -4						; size = 4
??0ILayoutChangeObserver@@QAE@XZ PROC NEAR		; ILayoutChangeObserver::ILayoutChangeObserver, COMDAT
; _this$ = ecx
  00000	55		 push	 ebp
  00001	8b ec		 mov	 ebp, esp
  00003	51		 push	 ecx
  00004	c7 45 fc cc cc
	cc cc		 mov	 DWORD PTR [ebp-4], -858993460 ; ccccccccH
  0000b	89 4d fc	 mov	 DWORD PTR _this$[ebp], ecx
  0000e	8b 4d fc	 mov	 ecx, DWORD PTR _this$[ebp]
  00011	e8 00 00 00 00	 call	 ??0IMessageObserver@@QAE@XZ
  00016	8b 45 fc	 mov	 eax, DWORD PTR _this$[ebp]
  00019	c7 00 00 00 00
	00		 mov	 DWORD PTR [eax], OFFSET FLAT:??_7ILayoutChangeObserver@@6B@
  0001f	8b 45 fc	 mov	 eax, DWORD PTR _this$[ebp]
  00022	83 c4 04	 add	 esp, 4
  00025	3b ec		 cmp	 ebp, esp
  00027	e8 00 00 00 00	 call	 __RTC_CheckEsp
  0002c	8b e5		 mov	 esp, ebp
  0002e	5d		 pop	 ebp
  0002f	c3		 ret	 0
??0ILayoutChangeObserver@@QAE@XZ ENDP			; ILayoutChangeObserver::ILayoutChangeObserver
_TEXT	ENDS
;	COMDAT xdata$x
; File d:\boxgit\playbox\playbox\dev\prj\playbox\src\datainterface\ilayoutchangeobserver.h
xdata$x	SEGMENT
$T197974 DD	0ffffffffH
	DD	FLAT:$L197969
$T197972 DD	019930520H
	DD	01H
	DD	FLAT:$T197974
	DD	2 DUP(00H)
	DD	2 DUP(00H)
; Function compile flags: /Odt /RTCsu
xdata$x	ENDS
;	COMDAT ?ILayoutChangeOb_SkinChanged@ILayoutChangeObserver@@UAEXV?$basic_string@DU?$char_traits@D@std@@V?$allocator@D@2@@std@@0@Z
_TEXT	SEGMENT
_this$ = -16						; size = 4
__$EHRec$ = -12						; size = 12
_oldSkinPath$ = 8					; size = 28
_newSkinPath$ = 36					; size = 28
?ILayoutChangeOb_SkinChanged@ILayoutChangeObserver@@UAEXV?$basic_string@DU?$char_traits@D@std@@V?$allocator@D@2@@std@@0@Z PROC NEAR ; ILayoutChangeObserver::ILayoutChangeOb_SkinChanged, COMDAT
; _this$ = ecx

; 11   : 	virtual void	ILayoutChangeOb_SkinChanged(string oldSkinPath, string newSkinPath){};

  00000	55		 push	 ebp
  00001	8b ec		 mov	 ebp, esp
  00003	6a ff		 push	 -1
  00005	68 00 00 00 00	 push	 __ehhandler$?ILayoutChangeOb_SkinChanged@ILayoutChangeObserver@@UAEXV?$basic_string@DU?$char_traits@D@std@@V?$allocator@D@2@@std@@0@Z
  0000a	64 a1 00 00 00
	00		 mov	 eax, DWORD PTR fs:__except_list
  00010	50		 push	 eax
  00011	64 89 25 00 00
	00 00		 mov	 DWORD PTR fs:__except_list, esp
  00018	51		 push	 ecx
  00019	56		 push	 esi
  0001a	c7 45 f0 cc cc
	cc cc		 mov	 DWORD PTR [ebp-16], -858993460 ; ccccccccH
  00021	89 4d f0	 mov	 DWORD PTR _this$[ebp], ecx
  00024	c7 45 fc 00 00
	00 00		 mov	 DWORD PTR __$EHRec$[ebp+8], 0
  0002b	8b f4		 mov	 esi, esp
  0002d	8d 4d 08	 lea	 ecx, DWORD PTR _oldSkinPath$[ebp]
  00030	ff 15 00 00 00
	00		 call	 DWORD PTR __imp_??1?$basic_string@DU?$char_traits@D@std@@V?$allocator@D@2@@std@@QAE@XZ
  00036	3b f4		 cmp	 esi, esp
  00038	e8 00 00 00 00	 call	 __RTC_CheckEsp
  0003d	c7 45 fc ff ff
	ff ff		 mov	 DWORD PTR __$EHRec$[ebp+8], -1
  00044	8b f4		 mov	 esi, esp
  00046	8d 4d 24	 lea	 ecx, DWORD PTR _newSkinPath$[ebp]
  00049	ff 15 00 00 00
	00		 call	 DWORD PTR __imp_??1?$basic_string@DU?$char_traits@D@std@@V?$allocator@D@2@@std@@QAE@XZ
  0004f	3b f4		 cmp	 esi, esp
  00051	e8 00 00 00 00	 call	 __RTC_CheckEsp
  00056	8b 4d f4	 mov	 ecx, DWORD PTR __$EHRec$[ebp]
  00059	64 89 0d 00 00
	00 00		 mov	 DWORD PTR fs:__except_list, ecx
  00060	5e		 pop	 esi
  00061	83 c4 10	 add	 esp, 16			; 00000010H
  00064	3b ec		 cmp	 ebp, esp
  00066	e8 00 00 00 00	 call	 __RTC_CheckEsp
  0006b	8b e5		 mov	 esp, ebp
  0006d	5d		 pop	 ebp
  0006e	c2 38 00	 ret	 56			; 00000038H
_TEXT	ENDS
;	COMDAT text$x
text$x	SEGMENT
$L197969:
  00000	8b f4		 mov	 esi, esp
  00002	8d 4d 24	 lea	 ecx, DWORD PTR _newSkinPath$[ebp]
  00005	ff 15 00 00 00
	00		 call	 DWORD PTR __imp_??1?$basic_string@DU?$char_traits@D@std@@V?$allocator@D@2@@std@@QAE@XZ
  0000b	3b f4		 cmp	 esi, esp
  0000d	e9 00 00 00 00	 jmp	 __RTC_CheckEsp
__ehhandler$?ILayoutChangeOb_SkinChanged@ILayoutChangeObserver@@UAEXV?$basic_string@DU?$char_traits@D@std@@V?$allocator@D@2@@std@@0@Z:
  00012	b8 00 00 00 00	 mov	 eax, OFFSET FLAT:$T197972
  00017	e9 00 00 00 00	 jmp	 ___CxxFrameHandler
text$x	ENDS
?ILayoutChangeOb_SkinChanged@ILayoutChangeObserver@@UAEXV?$basic_string@DU?$char_traits@D@std@@V?$allocator@D@2@@std@@0@Z ENDP ; ILayoutChangeObserver::ILayoutChangeOb_SkinChanged
; Function compile flags: /Odt /RTCsu
;	COMDAT ?ILayoutChangeOb_InitFinished@ILayoutChangeObserver@@UAEXXZ
_TEXT	SEGMENT
_this$ = -4						; size = 4
?ILayoutChangeOb_InitFinished@ILayoutChangeObserver@@UAEXXZ PROC NEAR ; ILayoutChangeObserver::ILayoutChangeOb_InitFinished, COMDAT
; _this$ = ecx

; 15   : 	virtual void	ILayoutChangeOb_InitFinished(){};

  00000	55		 push	 ebp
  00001	8b ec		 mov	 ebp, esp
  00003	51		 push	 ecx
  00004	c7 45 fc cc cc
	cc cc		 mov	 DWORD PTR [ebp-4], -858993460 ; ccccccccH
  0000b	89 4d fc	 mov	 DWORD PTR _this$[ebp], ecx
  0000e	8b e5		 mov	 esp, ebp
  00010	5d		 pop	 ebp
  00011	c3		 ret	 0
?ILayoutChangeOb_InitFinished@ILayoutChangeObserver@@UAEXXZ ENDP ; ILayoutChangeObserver::ILayoutChangeOb_InitFinished
_TEXT	ENDS
PUBLIC	??1IMessageObserver@@UAE@XZ			; IMessageObserver::~IMessageObserver
; Function compile flags: /Odt /RTCsu
;	COMDAT ??1ILayoutChangeObserver@@UAE@XZ
_TEXT	SEGMENT
_this$ = -4						; size = 4
??1ILayoutChangeObserver@@UAE@XZ PROC NEAR		; ILayoutChangeObserver::~ILayoutChangeObserver, COMDAT
; _this$ = ecx
  00000	55		 push	 ebp
  00001	8b ec		 mov	 ebp, esp
  00003	51		 push	 ecx
  00004	c7 45 fc cc cc
	cc cc		 mov	 DWORD PTR [ebp-4], -858993460 ; ccccccccH
  0000b	89 4d fc	 mov	 DWORD PTR _this$[ebp], ecx
  0000e	8b 4d fc	 mov	 ecx, DWORD PTR _this$[ebp]
  00011	e8 00 00 00 00	 call	 ??1IMessageObserver@@UAE@XZ ; IMessageObserver::~IMessageObserver
  00016	83 c4 04	 add	 esp, 4
  00019	3b ec		 cmp	 ebp, esp
  0001b	e8 00 00 00 00	 call	 __RTC_CheckEsp
  00020	8b e5		 mov	 esp, ebp
  00022	5d		 pop	 ebp
  00023	c3		 ret	 0
??1ILayoutChangeObserver@@UAE@XZ ENDP			; ILayoutChangeObserver::~ILayoutChangeObserver
_TEXT	ENDS
PUBLIC	??_R4IPanelChangeObserver@@6B@			; IPanelChangeObserver::`RTTI Complete Object Locator'
PUBLIC	??_R3IPanelChangeObserver@@8			; IPanelChangeObserver::`RTTI Class Hierarchy Descriptor'
PUBLIC	??_R2IPanelChangeObserver@@8			; IPanelChangeObserver::`RTTI Base Class Array'
PUBLIC	??_R1A@?0A@A@IPanelChangeObserver@@8		; IPanelChangeObserver::`RTTI Base Class Descriptor at (0,-1,0,0)'
PUBLIC	?IPanelChangeOb_WindowMax@IPanelChangeObserver@@UAEXXZ ; IPanelChangeObserver::IPanelChangeOb_WindowMax
PUBLIC	?IPanelChangeOb_WindowMin@IPanelChangeObserver@@UAEXXZ ; IPanelChangeObserver::IPanelChangeOb_WindowMin
PUBLIC	?IPanelChangeOb_WindowRestore@IPanelChangeObserver@@UAEXXZ ; IPanelChangeObserver::IPanelChangeOb_WindowRestore
PUBLIC	?IPanelChangeOb_WindowClose@IPanelChangeObserver@@UAEXXZ ; IPanelChangeObserver::IPanelChangeOb_WindowClose
PUBLIC	??_7IPanelChangeObserver@@6B@			; IPanelChangeObserver::`vftable'
PUBLIC	??_GIPanelChangeObserver@@UAEPAXI@Z		; IPanelChangeObserver::`scalar deleting destructor'
EXTRN	??_EIPanelChangeObserver@@UAEPAXI@Z:NEAR	; IPanelChangeObserver::`vector deleting destructor'
;	COMDAT ??_7IPanelChangeObserver@@6B@
CONST	SEGMENT
??_7IPanelChangeObserver@@6B@ DD FLAT:??_R4IPanelChangeObserver@@6B@ ; IPanelChangeObserver::`vftable'
	DD	FLAT:??_EIPanelChangeObserver@@UAEPAXI@Z
	DD	FLAT:?IPanelChangeOb_WindowMax@IPanelChangeObserver@@UAEXXZ
	DD	FLAT:?IPanelChangeOb_WindowMin@IPanelChangeObserver@@UAEXXZ
	DD	FLAT:?IPanelChangeOb_WindowRestore@IPanelChangeObserver@@UAEXXZ
	DD	FLAT:?IPanelChangeOb_WindowClose@IPanelChangeObserver@@UAEXXZ
	DD	FLAT:?IPanelChangeOb_ToFullScreen@IPanelChangeObserver@@UAEXPAVCWnd@@@Z
	DD	FLAT:?IPanelChangeOb_ExitFullScreen@IPanelChangeObserver@@UAEXPAVCWnd@@@Z
CONST	ENDS
;	COMDAT ??_R4IPanelChangeObserver@@6B@
rdata$r	SEGMENT
??_R4IPanelChangeObserver@@6B@ DD 00H			; IPanelChangeObserver::`RTTI Complete Object Locator'
	DD	00H
	DD	00H
	DD	FLAT:??_R0?AVIPanelChangeObserver@@@8
	DD	FLAT:??_R3IPanelChangeObserver@@8
rdata$r	ENDS
;	COMDAT ??_R3IPanelChangeObserver@@8
rdata$r	SEGMENT
??_R3IPanelChangeObserver@@8 DD 00H			; IPanelChangeObserver::`RTTI Class Hierarchy Descriptor'
	DD	00H
	DD	02H
	DD	FLAT:??_R2IPanelChangeObserver@@8
rdata$r	ENDS
;	COMDAT ??_R2IPanelChangeObserver@@8
rdata$r	SEGMENT
??_R2IPanelChangeObserver@@8 DD FLAT:??_R1A@?0A@A@IPanelChangeObserver@@8 ; IPanelChangeObserver::`RTTI Base Class Array'
	DD	FLAT:??_R1A@?0A@A@IMessageObserver@@8
rdata$r	ENDS
;	COMDAT ??_R1A@?0A@A@IPanelChangeObserver@@8
rdata$r	SEGMENT
??_R1A@?0A@A@IPanelChangeObserver@@8 DD FLAT:??_R0?AVIPanelChangeObserver@@@8 ; IPanelChangeObserver::`RTTI Base Class Descriptor at (0,-1,0,0)'
	DD	01H
	DD	00H
	DD	0ffffffffH
	DD	00H
	DD	00H
; Function compile flags: /Odt /RTCsu
rdata$r	ENDS
;	COMDAT ??0IPanelChangeObserver@@QAE@XZ
_TEXT	SEGMENT
_this$ = -4						; size = 4
??0IPanelChangeObserver@@QAE@XZ PROC NEAR		; IPanelChangeObserver::IPanelChangeObserver, COMDAT
; _this$ = ecx
  00000	55		 push	 ebp
  00001	8b ec		 mov	 ebp, esp
  00003	51		 push	 ecx
  00004	c7 45 fc cc cc
	cc cc		 mov	 DWORD PTR [ebp-4], -858993460 ; ccccccccH
  0000b	89 4d fc	 mov	 DWORD PTR _this$[ebp], ecx
  0000e	8b 4d fc	 mov	 ecx, DWORD PTR _this$[ebp]
  00011	e8 00 00 00 00	 call	 ??0IMessageObserver@@QAE@XZ
  00016	8b 45 fc	 mov	 eax, DWORD PTR _this$[ebp]
  00019	c7 00 00 00 00
	00		 mov	 DWORD PTR [eax], OFFSET FLAT:??_7IPanelChangeObserver@@6B@
  0001f	8b 45 fc	 mov	 eax, DWORD PTR _this$[ebp]
  00022	83 c4 04	 add	 esp, 4
  00025	3b ec		 cmp	 ebp, esp
  00027	e8 00 00 00 00	 call	 __RTC_CheckEsp
  0002c	8b e5		 mov	 esp, ebp
  0002e	5d		 pop	 ebp
  0002f	c3		 ret	 0
??0IPanelChangeObserver@@QAE@XZ ENDP			; IPanelChangeObserver::IPanelChangeObserver
; Function compile flags: /Odt /RTCsu
; File d:\boxgit\playbox\playbox\dev\prj\playbox\src\datainterface\ipanelchangeobserver.h
_TEXT	ENDS
;	COMDAT ?IPanelChangeOb_WindowMax@IPanelChangeObserver@@UAEXXZ
_TEXT	SEGMENT
_this$ = -4						; size = 4
?IPanelChangeOb_WindowMax@IPanelChangeObserver@@UAEXXZ PROC NEAR ; IPanelChangeObserver::IPanelChangeOb_WindowMax, COMDAT
; _this$ = ecx

; 9    : 	virtual void	IPanelChangeOb_WindowMax(){};

  00000	55		 push	 ebp
  00001	8b ec		 mov	 ebp, esp
  00003	51		 push	 ecx
  00004	c7 45 fc cc cc
	cc cc		 mov	 DWORD PTR [ebp-4], -858993460 ; ccccccccH
  0000b	89 4d fc	 mov	 DWORD PTR _this$[ebp], ecx
  0000e	8b e5		 mov	 esp, ebp
  00010	5d		 pop	 ebp
  00011	c3		 ret	 0
?IPanelChangeOb_WindowMax@IPanelChangeObserver@@UAEXXZ ENDP ; IPanelChangeObserver::IPanelChangeOb_WindowMax
; Function compile flags: /Odt /RTCsu
_TEXT	ENDS
;	COMDAT ?IPanelChangeOb_WindowMin@IPanelChangeObserver@@UAEXXZ
_TEXT	SEGMENT
_this$ = -4						; size = 4
?IPanelChangeOb_WindowMin@IPanelChangeObserver@@UAEXXZ PROC NEAR ; IPanelChangeObserver::IPanelChangeOb_WindowMin, COMDAT
; _this$ = ecx

; 10   : 	virtual void	IPanelChangeOb_WindowMin(){};

  00000	55		 push	 ebp
  00001	8b ec		 mov	 ebp, esp
  00003	51		 push	 ecx
  00004	c7 45 fc cc cc
	cc cc		 mov	 DWORD PTR [ebp-4], -858993460 ; ccccccccH
  0000b	89 4d fc	 mov	 DWORD PTR _this$[ebp], ecx
  0000e	8b e5		 mov	 esp, ebp
  00010	5d		 pop	 ebp
  00011	c3		 ret	 0
?IPanelChangeOb_WindowMin@IPanelChangeObserver@@UAEXXZ ENDP ; IPanelChangeObserver::IPanelChangeOb_WindowMin
; Function compile flags: /Odt /RTCsu
_TEXT	ENDS
;	COMDAT ?IPanelChangeOb_WindowRestore@IPanelChangeObserver@@UAEXXZ
_TEXT	SEGMENT
_this$ = -4						; size = 4
?IPanelChangeOb_WindowRestore@IPanelChangeObserver@@UAEXXZ PROC NEAR ; IPanelChangeObserver::IPanelChangeOb_WindowRestore, COMDAT
; _this$ = ecx

; 11   : 	virtual void	IPanelChangeOb_WindowRestore(){};

  00000	55		 push	 ebp
  00001	8b ec		 mov	 ebp, esp
  00003	51		 push	 ecx
  00004	c7 45 fc cc cc
	cc cc		 mov	 DWORD PTR [ebp-4], -858993460 ; ccccccccH
  0000b	89 4d fc	 mov	 DWORD PTR _this$[ebp], ecx
  0000e	8b e5		 mov	 esp, ebp
  00010	5d		 pop	 ebp
  00011	c3		 ret	 0
?IPanelChangeOb_WindowRestore@IPanelChangeObserver@@UAEXXZ ENDP ; IPanelChangeObserver::IPanelChangeOb_WindowRestore
; Function compile flags: /Odt /RTCsu
_TEXT	ENDS
;	COMDAT ?IPanelChangeOb_WindowClose@IPanelChangeObserver@@UAEXXZ
_TEXT	SEGMENT
_this$ = -4						; size = 4
?IPanelChangeOb_WindowClose@IPanelChangeObserver@@UAEXXZ PROC NEAR ; IPanelChangeObserver::IPanelChangeOb_WindowClose, COMDAT
; _this$ = ecx

; 12   : 	virtual void	IPanelChangeOb_WindowClose(){};

  00000	55		 push	 ebp
  00001	8b ec		 mov	 ebp, esp
  00003	51		 push	 ecx
  00004	c7 45 fc cc cc
	cc cc		 mov	 DWORD PTR [ebp-4], -858993460 ; ccccccccH
  0000b	89 4d fc	 mov	 DWORD PTR _this$[ebp], ecx
  0000e	8b e5		 mov	 esp, ebp
  00010	5d		 pop	 ebp
  00011	c3		 ret	 0
?IPanelChangeOb_WindowClose@IPanelChangeObserver@@UAEXXZ ENDP ; IPanelChangeObserver::IPanelChangeOb_WindowClose
; Function compile flags: /Odt /RTCsu
_TEXT	ENDS
;	COMDAT ??1IPanelChangeObserver@@UAE@XZ
_TEXT	SEGMENT
_this$ = -4						; size = 4
??1IPanelChangeObserver@@UAE@XZ PROC NEAR		; IPanelChangeObserver::~IPanelChangeObserver, COMDAT
; _this$ = ecx
  00000	55		 push	 ebp
  00001	8b ec		 mov	 ebp, esp
  00003	51		 push	 ecx
  00004	c7 45 fc cc cc
	cc cc		 mov	 DWORD PTR [ebp-4], -858993460 ; ccccccccH
  0000b	89 4d fc	 mov	 DWORD PTR _this$[ebp], ecx
  0000e	8b 4d fc	 mov	 ecx, DWORD PTR _this$[ebp]
  00011	e8 00 00 00 00	 call	 ??1IMessageObserver@@UAE@XZ ; IMessageObserver::~IMessageObserver
  00016	83 c4 04	 add	 esp, 4
  00019	3b ec		 cmp	 ebp, esp
  0001b	e8 00 00 00 00	 call	 __RTC_CheckEsp
  00020	8b e5		 mov	 esp, ebp
  00022	5d		 pop	 ebp
  00023	c3		 ret	 0
??1IPanelChangeObserver@@UAE@XZ ENDP			; IPanelChangeObserver::~IPanelChangeObserver
_TEXT	ENDS
EXTRN	??3@YAXPAX@Z:NEAR				; operator delete
; Function compile flags: /Odt /RTCsu
;	COMDAT ??_GILayoutChangeObserver@@UAEPAXI@Z
_TEXT	SEGMENT
_this$ = -4						; size = 4
___flags$ = 8						; size = 4
??_GILayoutChangeObserver@@UAEPAXI@Z PROC NEAR		; ILayoutChangeObserver::`scalar deleting destructor', COMDAT
; _this$ = ecx
  00000	55		 push	 ebp
  00001	8b ec		 mov	 ebp, esp
  00003	51		 push	 ecx
  00004	c7 45 fc cc cc
	cc cc		 mov	 DWORD PTR [ebp-4], -858993460 ; ccccccccH
  0000b	89 4d fc	 mov	 DWORD PTR _this$[ebp], ecx
  0000e	8b 4d fc	 mov	 ecx, DWORD PTR _this$[ebp]
  00011	e8 00 00 00 00	 call	 ??1ILayoutChangeObserver@@UAE@XZ
  00016	8b 45 08	 mov	 eax, DWORD PTR ___flags$[ebp]
  00019	83 e0 01	 and	 eax, 1
  0001c	74 0c		 je	 SHORT $L196430
  0001e	8b 4d fc	 mov	 ecx, DWORD PTR _this$[ebp]
  00021	51		 push	 ecx
  00022	e8 00 00 00 00	 call	 ??3@YAXPAX@Z		; operator delete
  00027	83 c4 04	 add	 esp, 4
$L196430:
  0002a	8b 45 fc	 mov	 eax, DWORD PTR _this$[ebp]
  0002d	83 c4 04	 add	 esp, 4
  00030	3b ec		 cmp	 ebp, esp
  00032	e8 00 00 00 00	 call	 __RTC_CheckEsp
  00037	8b e5		 mov	 esp, ebp
  00039	5d		 pop	 ebp
  0003a	c2 04 00	 ret	 4
??_GILayoutChangeObserver@@UAEPAXI@Z ENDP		; ILayoutChangeObserver::`scalar deleting destructor'
_TEXT	ENDS
PUBLIC	??_7IMessageObserver@@6B@			; IMessageObserver::`vftable'
PUBLIC	??_GIMessageObserver@@UAEPAXI@Z			; IMessageObserver::`scalar deleting destructor'
PUBLIC	??_R4IMessageObserver@@6B@			; IMessageObserver::`RTTI Complete Object Locator'
PUBLIC	??_R3IMessageObserver@@8			; IMessageObserver::`RTTI Class Hierarchy Descriptor'
PUBLIC	??_R2IMessageObserver@@8			; IMessageObserver::`RTTI Base Class Array'
EXTRN	??_EIMessageObserver@@UAEPAXI@Z:NEAR		; IMessageObserver::`vector deleting destructor'
;	COMDAT ??_7IMessageObserver@@6B@
CONST	SEGMENT
??_7IMessageObserver@@6B@ DD FLAT:??_R4IMessageObserver@@6B@ ; IMessageObserver::`vftable'
	DD	FLAT:??_EIMessageObserver@@UAEPAXI@Z
CONST	ENDS
;	COMDAT ??_R4IMessageObserver@@6B@
rdata$r	SEGMENT
??_R4IMessageObserver@@6B@ DD 00H			; IMessageObserver::`RTTI Complete Object Locator'
	DD	00H
	DD	00H
	DD	FLAT:??_R0?AVIMessageObserver@@@8
	DD	FLAT:??_R3IMessageObserver@@8
rdata$r	ENDS
;	COMDAT ??_R3IMessageObserver@@8
rdata$r	SEGMENT
??_R3IMessageObserver@@8 DD 00H				; IMessageObserver::`RTTI Class Hierarchy Descriptor'
	DD	00H
	DD	01H
	DD	FLAT:??_R2IMessageObserver@@8
rdata$r	ENDS
;	COMDAT ??_R2IMessageObserver@@8
rdata$r	SEGMENT
??_R2IMessageObserver@@8 DD FLAT:??_R1A@?0A@A@IMessageObserver@@8 ; IMessageObserver::`RTTI Base Class Array'
; Function compile flags: /Odt /RTCsu
rdata$r	ENDS
;	COMDAT ??0IMessageObserver@@QAE@XZ
_TEXT	SEGMENT
_this$ = -4						; size = 4
??0IMessageObserver@@QAE@XZ PROC NEAR			; IMessageObserver::IMessageObserver, COMDAT
; _this$ = ecx
  00000	55		 push	 ebp
  00001	8b ec		 mov	 ebp, esp
  00003	51		 push	 ecx
  00004	c7 45 fc cc cc
	cc cc		 mov	 DWORD PTR [ebp-4], -858993460 ; ccccccccH
  0000b	89 4d fc	 mov	 DWORD PTR _this$[ebp], ecx
  0000e	8b 45 fc	 mov	 eax, DWORD PTR _this$[ebp]
  00011	c7 00 00 00 00
	00		 mov	 DWORD PTR [eax], OFFSET FLAT:??_7IMessageObserver@@6B@
  00017	8b 45 fc	 mov	 eax, DWORD PTR _this$[ebp]
  0001a	8b e5		 mov	 esp, ebp
  0001c	5d		 pop	 ebp
  0001d	c3		 ret	 0
??0IMessageObserver@@QAE@XZ ENDP			; IMessageObserver::IMessageObserver
; Function compile flags: /Odt /RTCsu
_TEXT	ENDS
;	COMDAT ??_GIPanelChangeObserver@@UAEPAXI@Z
_TEXT	SEGMENT
_this$ = -4						; size = 4
___flags$ = 8						; size = 4
??_GIPanelChangeObserver@@UAEPAXI@Z PROC NEAR		; IPanelChangeObserver::`scalar deleting destructor', COMDAT
; _this$ = ecx
  00000	55		 push	 ebp
  00001	8b ec		 mov	 ebp, esp
  00003	51		 push	 ecx
  00004	c7 45 fc cc cc
	cc cc		 mov	 DWORD PTR [ebp-4], -858993460 ; ccccccccH
  0000b	89 4d fc	 mov	 DWORD PTR _this$[ebp], ecx
  0000e	8b 4d fc	 mov	 ecx, DWORD PTR _this$[ebp]
  00011	e8 00 00 00 00	 call	 ??1IPanelChangeObserver@@UAE@XZ
  00016	8b 45 08	 mov	 eax, DWORD PTR ___flags$[ebp]
  00019	83 e0 01	 and	 eax, 1
  0001c	74 0c		 je	 SHORT $L196435
  0001e	8b 4d fc	 mov	 ecx, DWORD PTR _this$[ebp]
  00021	51		 push	 ecx
  00022	e8 00 00 00 00	 call	 ??3@YAXPAX@Z		; operator delete
  00027	83 c4 04	 add	 esp, 4
$L196435:
  0002a	8b 45 fc	 mov	 eax, DWORD PTR _this$[ebp]
  0002d	83 c4 04	 add	 esp, 4
  00030	3b ec		 cmp	 ebp, esp
  00032	e8 00 00 00 00	 call	 __RTC_CheckEsp
  00037	8b e5		 mov	 esp, ebp
  00039	5d		 pop	 ebp
  0003a	c2 04 00	 ret	 4
??_GIPanelChangeObserver@@UAEPAXI@Z ENDP		; IPanelChangeObserver::`scalar deleting destructor'
_TEXT	ENDS
xdata$x	SEGMENT
$T198017 DD	0ffffffffH
	DD	FLAT:$L197999
	DD	00H
	DD	FLAT:$L198002
	DD	01H
	DD	FLAT:$L198005
	DD	02H
	DD	FLAT:$L198006
	DD	03H
	DD	FLAT:$L198007
	DD	04H
	DD	FLAT:$L198008
	DD	05H
	DD	FLAT:$L198009
	DD	06H
	DD	FLAT:$L198010
	DD	07H
	DD	FLAT:$L198011
	DD	08H
	DD	FLAT:$L198012
	DD	09H
	DD	FLAT:$L198013
$T198015 DD	019930520H
	DD	0bH
	DD	FLAT:$T198017
	DD	2 DUP(00H)
	DD	2 DUP(00H)
; Function compile flags: /Odt /RTCsu
; File d:\boxgit\playbox\playbox\dev\prj\playbox\src\module\toppanel\toppanelwnd.cpp
xdata$x	ENDS
_TEXT	SEGMENT
tv69 = -40						; size = 4
tv73 = -36						; size = 4
tv151 = -32						; size = 4
tv156 = -28						; size = 4
tv141 = -24						; size = 4
tv146 = -20						; size = 4
_this$ = -16						; size = 4
__$EHRec$ = -12						; size = 12
??1CTopPanelWnd@@UAE@XZ PROC NEAR			; CTopPanelWnd::~CTopPanelWnd
; _this$ = ecx

; 34   : {

  00280	55		 push	 ebp
  00281	8b ec		 mov	 ebp, esp
  00283	6a ff		 push	 -1
  00285	68 00 00 00 00	 push	 __ehhandler$??1CTopPanelWnd@@UAE@XZ
  0028a	64 a1 00 00 00
	00		 mov	 eax, DWORD PTR fs:__except_list
  00290	50		 push	 eax
  00291	64 89 25 00 00
	00 00		 mov	 DWORD PTR fs:__except_list, esp
  00298	83 ec 1c	 sub	 esp, 28			; 0000001cH
  0029b	56		 push	 esi
  0029c	b8 cc cc cc cc	 mov	 eax, -858993460		; ccccccccH
  002a1	89 45 d8	 mov	 DWORD PTR [ebp-40], eax
  002a4	89 45 dc	 mov	 DWORD PTR [ebp-36], eax
  002a7	89 45 e0	 mov	 DWORD PTR [ebp-32], eax
  002aa	89 45 e4	 mov	 DWORD PTR [ebp-28], eax
  002ad	89 45 e8	 mov	 DWORD PTR [ebp-24], eax
  002b0	89 45 ec	 mov	 DWORD PTR [ebp-20], eax
  002b3	89 45 f0	 mov	 DWORD PTR [ebp-16], eax
  002b6	89 4d f0	 mov	 DWORD PTR _this$[ebp], ecx
  002b9	8b 45 f0	 mov	 eax, DWORD PTR _this$[ebp]
  002bc	c7 00 00 00 00
	00		 mov	 DWORD PTR [eax], OFFSET FLAT:??_7CTopPanelWnd@@6BCBasicWnd@@@
  002c2	8b 4d f0	 mov	 ecx, DWORD PTR _this$[ebp]
  002c5	c7 41 54 00 00
	00 00		 mov	 DWORD PTR [ecx+84], OFFSET FLAT:??_7CTopPanelWnd@@6BILayoutChangeObserver@@@
  002cc	8b 55 f0	 mov	 edx, DWORD PTR _this$[ebp]
  002cf	c7 42 58 00 00
	00 00		 mov	 DWORD PTR [edx+88], OFFSET FLAT:??_7CTopPanelWnd@@6BIPanelChangeObserver@@@
  002d6	c7 45 fc 0a 00
	00 00		 mov	 DWORD PTR __$EHRec$[ebp+8], 10 ; 0000000aH

; 35   : 	AfxGetMessageManager()->DetachMessage( ID_MESSAGE_LAYOUTMGR,(ILayoutChangeObserver*) this);

  002dd	83 7d f0 00	 cmp	 DWORD PTR _this$[ebp], 0
  002e1	74 0b		 je	 SHORT $L197995
  002e3	8b 45 f0	 mov	 eax, DWORD PTR _this$[ebp]
  002e6	83 c0 54	 add	 eax, 84			; 00000054H
  002e9	89 45 ec	 mov	 DWORD PTR tv146[ebp], eax
  002ec	eb 07		 jmp	 SHORT $L197996
$L197995:
  002ee	c7 45 ec 00 00
	00 00		 mov	 DWORD PTR tv146[ebp], 0
$L197996:
  002f5	e8 00 00 00 00	 call	 ?AfxGetMessageManager@@YAPAVIMessageManager@@XZ ; AfxGetMessageManager
  002fa	89 45 e8	 mov	 DWORD PTR tv141[ebp], eax
  002fd	8b f4		 mov	 esi, esp
  002ff	8b 4d ec	 mov	 ecx, DWORD PTR tv146[ebp]
  00302	51		 push	 ecx
  00303	68 00 00 00 00	 push	 OFFSET FLAT:_ID_MESSAGE_LAYOUTMGR
  00308	8b 55 e8	 mov	 edx, DWORD PTR tv141[ebp]
  0030b	8b 02		 mov	 eax, DWORD PTR [edx]
  0030d	8b 4d e8	 mov	 ecx, DWORD PTR tv141[ebp]
  00310	ff 50 08	 call	 DWORD PTR [eax+8]
  00313	3b f4		 cmp	 esi, esp
  00315	e8 00 00 00 00	 call	 __RTC_CheckEsp

; 36   : 	AfxGetMessageManager()->DetachMessage( ID_MESSAGE_PANEL_CHANGE,(IPanelChangeObserver*) this);

  0031a	83 7d f0 00	 cmp	 DWORD PTR _this$[ebp], 0
  0031e	74 0b		 je	 SHORT $L197997
  00320	8b 4d f0	 mov	 ecx, DWORD PTR _this$[ebp]
  00323	83 c1 58	 add	 ecx, 88			; 00000058H
  00326	89 4d e4	 mov	 DWORD PTR tv156[ebp], ecx
  00329	eb 07		 jmp	 SHORT $L197998
$L197997:
  0032b	c7 45 e4 00 00
	00 00		 mov	 DWORD PTR tv156[ebp], 0
$L197998:
  00332	e8 00 00 00 00	 call	 ?AfxGetMessageManager@@YAPAVIMessageManager@@XZ ; AfxGetMessageManager
  00337	89 45 e0	 mov	 DWORD PTR tv151[ebp], eax
  0033a	8b f4		 mov	 esi, esp
  0033c	8b 55 e4	 mov	 edx, DWORD PTR tv156[ebp]
  0033f	52		 push	 edx
  00340	68 00 00 00 00	 push	 OFFSET FLAT:_ID_MESSAGE_PANEL_CHANGE
  00345	8b 45 e0	 mov	 eax, DWORD PTR tv151[ebp]
  00348	8b 10		 mov	 edx, DWORD PTR [eax]
  0034a	8b 4d e0	 mov	 ecx, DWORD PTR tv151[ebp]
  0034d	ff 52 08	 call	 DWORD PTR [edx+8]
  00350	3b f4		 cmp	 esi, esp
  00352	e8 00 00 00 00	 call	 __RTC_CheckEsp

; 37   : }

  00357	c6 45 fc 09	 mov	 BYTE PTR __$EHRec$[ebp+8], 9
  0035b	8b 4d f0	 mov	 ecx, DWORD PTR _this$[ebp]
  0035e	81 c1 50 06 00
	00		 add	 ecx, 1616		; 00000650H
  00364	e8 00 00 00 00	 call	 ??1?$vector@V?$basic_string@DU?$char_traits@D@std@@V?$allocator@D@2@@std@@V?$allocator@V?$basic_string@DU?$char_traits@D@std@@V?$allocator@D@2@@std@@@2@@std@@QAE@XZ ; std::vector<std::basic_string<char,std::char_traits<char>,std::allocator<char> >,std::allocator<std::basic_string<char,std::char_traits<char>,std::allocator<char> > > >::~vector<std::basic_string<char,std::char_traits<char>,std::allocator<char> >,std::allocator<std::basic_string<char,std::char_traits<char>,std::allocator<char> > > >
  00369	c6 45 fc 08	 mov	 BYTE PTR __$EHRec$[ebp+8], 8
  0036d	8b 4d f0	 mov	 ecx, DWORD PTR _this$[ebp]
  00370	81 c1 40 06 00
	00		 add	 ecx, 1600		; 00000640H
  00376	e8 00 00 00 00	 call	 ??1?$vector@V?$basic_string@DU?$char_traits@D@std@@V?$allocator@D@2@@std@@V?$allocator@V?$basic_string@DU?$char_traits@D@std@@V?$allocator@D@2@@std@@@2@@std@@QAE@XZ ; std::vector<std::basic_string<char,std::char_traits<char>,std::allocator<char> >,std::allocator<std::basic_string<char,std::char_traits<char>,std::allocator<char> > > >::~vector<std::basic_string<char,std::char_traits<char>,std::allocator<char> >,std::allocator<std::basic_string<char,std::char_traits<char>,std::allocator<char> > > >
  0037b	c6 45 fc 07	 mov	 BYTE PTR __$EHRec$[ebp+8], 7
  0037f	8b 4d f0	 mov	 ecx, DWORD PTR _this$[ebp]
  00382	81 c1 30 06 00
	00		 add	 ecx, 1584		; 00000630H
  00388	e8 00 00 00 00	 call	 ??1?$vector@V?$basic_string@DU?$char_traits@D@std@@V?$allocator@D@2@@std@@V?$allocator@V?$basic_string@DU?$char_traits@D@std@@V?$allocator@D@2@@std@@@2@@std@@QAE@XZ ; std::vector<std::basic_string<char,std::char_traits<char>,std::allocator<char> >,std::allocator<std::basic_string<char,std::char_traits<char>,std::allocator<char> > > >::~vector<std::basic_string<char,std::char_traits<char>,std::allocator<char> >,std::allocator<std::basic_string<char,std::char_traits<char>,std::allocator<char> > > >
  0038d	c6 45 fc 06	 mov	 BYTE PTR __$EHRec$[ebp+8], 6
  00391	8b 4d f0	 mov	 ecx, DWORD PTR _this$[ebp]
  00394	81 c1 ec 04 00
	00		 add	 ecx, 1260		; 000004ecH
  0039a	e8 00 00 00 00	 call	 ??1CxSkinButton@@UAE@XZ	; CxSkinButton::~CxSkinButton
  0039f	c6 45 fc 05	 mov	 BYTE PTR __$EHRec$[ebp+8], 5
  003a3	8b 4d f0	 mov	 ecx, DWORD PTR _this$[ebp]
  003a6	81 c1 c8 03 00
	00		 add	 ecx, 968		; 000003c8H
  003ac	e8 00 00 00 00	 call	 ??1CxSkinButton@@UAE@XZ	; CxSkinButton::~CxSkinButton
  003b1	c6 45 fc 04	 mov	 BYTE PTR __$EHRec$[ebp+8], 4
  003b5	8b 4d f0	 mov	 ecx, DWORD PTR _this$[ebp]
  003b8	81 c1 a4 02 00
	00		 add	 ecx, 676		; 000002a4H
  003be	e8 00 00 00 00	 call	 ??1CxSkinButton@@UAE@XZ	; CxSkinButton::~CxSkinButton
  003c3	c6 45 fc 03	 mov	 BYTE PTR __$EHRec$[ebp+8], 3
  003c7	8b 4d f0	 mov	 ecx, DWORD PTR _this$[ebp]
  003ca	81 c1 80 01 00
	00		 add	 ecx, 384		; 00000180H
  003d0	e8 00 00 00 00	 call	 ??1CxSkinButton@@UAE@XZ	; CxSkinButton::~CxSkinButton
  003d5	c6 45 fc 02	 mov	 BYTE PTR __$EHRec$[ebp+8], 2
  003d9	8b 4d f0	 mov	 ecx, DWORD PTR _this$[ebp]
  003dc	83 c1 5c	 add	 ecx, 92			; 0000005cH
  003df	e8 00 00 00 00	 call	 ??1CxSkinButton@@UAE@XZ	; CxSkinButton::~CxSkinButton
  003e4	c6 45 fc 01	 mov	 BYTE PTR __$EHRec$[ebp+8], 1
  003e8	83 7d f0 00	 cmp	 DWORD PTR _this$[ebp], 0
  003ec	74 0b		 je	 SHORT $L197993
  003ee	8b 45 f0	 mov	 eax, DWORD PTR _this$[ebp]
  003f1	83 c0 58	 add	 eax, 88			; 00000058H
  003f4	89 45 dc	 mov	 DWORD PTR tv73[ebp], eax
  003f7	eb 07		 jmp	 SHORT $L197994
$L197993:
  003f9	c7 45 dc 00 00
	00 00		 mov	 DWORD PTR tv73[ebp], 0
$L197994:
  00400	8b 4d dc	 mov	 ecx, DWORD PTR tv73[ebp]
  00403	e8 00 00 00 00	 call	 ??1IPanelChangeObserver@@UAE@XZ
  00408	c6 45 fc 00	 mov	 BYTE PTR __$EHRec$[ebp+8], 0
  0040c	83 7d f0 00	 cmp	 DWORD PTR _this$[ebp], 0
  00410	74 0b		 je	 SHORT $L197991
  00412	8b 4d f0	 mov	 ecx, DWORD PTR _this$[ebp]
  00415	83 c1 54	 add	 ecx, 84			; 00000054H
  00418	89 4d d8	 mov	 DWORD PTR tv69[ebp], ecx
  0041b	eb 07		 jmp	 SHORT $L197992
$L197991:
  0041d	c7 45 d8 00 00
	00 00		 mov	 DWORD PTR tv69[ebp], 0
$L197992:
  00424	8b 4d d8	 mov	 ecx, DWORD PTR tv69[ebp]
  00427	e8 00 00 00 00	 call	 ??1ILayoutChangeObserver@@UAE@XZ
  0042c	c7 45 fc ff ff
	ff ff		 mov	 DWORD PTR __$EHRec$[ebp+8], -1
  00433	8b 4d f0	 mov	 ecx, DWORD PTR _this$[ebp]
  00436	e8 00 00 00 00	 call	 ??1CBasicWnd@@UAE@XZ	; CBasicWnd::~CBasicWnd
  0043b	8b 4d f4	 mov	 ecx, DWORD PTR __$EHRec$[ebp]
  0043e	64 89 0d 00 00
	00 00		 mov	 DWORD PTR fs:__except_list, ecx
  00445	5e		 pop	 esi
  00446	83 c4 28	 add	 esp, 40			; 00000028H
  00449	3b ec		 cmp	 ebp, esp
  0044b	e8 00 00 00 00	 call	 __RTC_CheckEsp
  00450	8b e5		 mov	 esp, ebp
  00452	5d		 pop	 ebp
  00453	c3		 ret	 0
_TEXT	ENDS
text$x	SEGMENT
$L197999:
  000b9	8b 4d f0	 mov	 ecx, DWORD PTR _this$[ebp]
  000bc	e9 00 00 00 00	 jmp	 ??1CBasicWnd@@UAE@XZ	; CBasicWnd::~CBasicWnd
$L198002:
  000c1	83 7d f0 00	 cmp	 DWORD PTR _this$[ebp], 0
  000c5	0f 84 0e 00 00
	00		 je	 $L198000
  000cb	8b 45 f0	 mov	 eax, DWORD PTR _this$[ebp]
  000ce	83 c0 54	 add	 eax, 84			; 00000054H
  000d1	89 45 d8	 mov	 DWORD PTR tv69[ebp], eax
  000d4	e9 07 00 00 00	 jmp	 $L198001
$L198000:
  000d9	c7 45 d8 00 00
	00 00		 mov	 DWORD PTR tv69[ebp], 0
$L198001:
  000e0	8b 4d d8	 mov	 ecx, DWORD PTR tv69[ebp]
  000e3	e9 00 00 00 00	 jmp	 ??1ILayoutChangeObserver@@UAE@XZ
$L198005:
  000e8	83 7d f0 00	 cmp	 DWORD PTR _this$[ebp], 0
  000ec	0f 84 0e 00 00
	00		 je	 $L198003
  000f2	8b 45 f0	 mov	 eax, DWORD PTR _this$[ebp]
  000f5	83 c0 58	 add	 eax, 88			; 00000058H
  000f8	89 45 dc	 mov	 DWORD PTR tv73[ebp], eax
  000fb	e9 07 00 00 00	 jmp	 $L198004
$L198003:
  00100	c7 45 dc 00 00
	00 00		 mov	 DWORD PTR tv73[ebp], 0
$L198004:
  00107	8b 4d dc	 mov	 ecx, DWORD PTR tv73[ebp]
  0010a	e9 00 00 00 00	 jmp	 ??1IPanelChangeObserver@@UAE@XZ
$L198006:
  0010f	8b 4d f0	 mov	 ecx, DWORD PTR _this$[ebp]
  00112	83 c1 5c	 add	 ecx, 92			; 0000005cH
  00115	e9 00 00 00 00	 jmp	 ??1CxSkinButton@@UAE@XZ	; CxSkinButton::~CxSkinButton
$L198007:
  0011a	8b 4d f0	 mov	 ecx, DWORD PTR _this$[ebp]
  0011d	81 c1 80 01 00
	00		 add	 ecx, 384		; 00000180H
  00123	e9 00 00 00 00	 jmp	 ??1CxSkinButton@@UAE@XZ	; CxSkinButton::~CxSkinButton
$L198008:
  00128	8b 4d f0	 mov	 ecx, DWORD PTR _this$[ebp]
  0012b	81 c1 a4 02 00
	00		 add	 ecx, 676		; 000002a4H
  00131	e9 00 00 00 00	 jmp	 ??1CxSkinButton@@UAE@XZ	; CxSkinButton::~CxSkinButton
$L198009:
  00136	8b 4d f0	 mov	 ecx, DWORD PTR _this$[ebp]
  00139	81 c1 c8 03 00
	00		 add	 ecx, 968		; 000003c8H
  0013f	e9 00 00 00 00	 jmp	 ??1CxSkinButton@@UAE@XZ	; CxSkinButton::~CxSkinButton
$L198010:
  00144	8b 4d f0	 mov	 ecx, DWORD PTR _this$[ebp]
  00147	81 c1 ec 04 00
	00		 add	 ecx, 1260		; 000004ecH
  0014d	e9 00 00 00 00	 jmp	 ??1CxSkinButton@@UAE@XZ	; CxSkinButton::~CxSkinButton
$L198011:
  00152	8b 4d f0	 mov	 ecx, DWORD PTR _this$[ebp]
  00155	81 c1 30 06 00
	00		 add	 ecx, 1584		; 00000630H
  0015b	e9 00 00 00 00	 jmp	 ??1?$vector@V?$basic_string@DU?$char_traits@D@std@@V?$allocator@D@2@@std@@V?$allocator@V?$basic_string@DU?$char_traits@D@std@@V?$allocator@D@2@@std@@@2@@std@@QAE@XZ ; std::vector<std::basic_string<char,std::char_traits<char>,std::allocator<char> >,std::allocator<std::basic_string<char,std::char_traits<char>,std::allocator<char> > > >::~vector<std::basic_string<char,std::char_traits<char>,std::allocator<char> >,std::allocator<std::basic_string<char,std::char_traits<char>,std::allocator<char> > > >
$L198012:
  00160	8b 4d f0	 mov	 ecx, DWORD PTR _this$[ebp]
  00163	81 c1 40 06 00
	00		 add	 ecx, 1600		; 00000640H
  00169	e9 00 00 00 00	 jmp	 ??1?$vector@V?$basic_string@DU?$char_traits@D@std@@V?$allocator@D@2@@std@@V?$allocator@V?$basic_string@DU?$char_traits@D@std@@V?$allocator@D@2@@std@@@2@@std@@QAE@XZ ; std::vector<std::basic_string<char,std::char_traits<char>,std::allocator<char> >,std::allocator<std::basic_string<char,std::char_traits<char>,std::allocator<char> > > >::~vector<std::basic_string<char,std::char_traits<char>,std::allocator<char> >,std::allocator<std::basic_string<char,std::char_traits<char>,std::allocator<char> > > >
$L198013:
  0016e	8b 4d f0	 mov	 ecx, DWORD PTR _this$[ebp]
  00171	81 c1 50 06 00
	00		 add	 ecx, 1616		; 00000650H
  00177	e9 00 00 00 00	 jmp	 ??1?$vector@V?$basic_string@DU?$char_traits@D@std@@V?$allocator@D@2@@std@@V?$allocator@V?$basic_string@DU?$char_traits@D@std@@V?$allocator@D@2@@std@@@2@@std@@QAE@XZ ; std::vector<std::basic_string<char,std::char_traits<char>,std::allocator<char> >,std::allocator<std::basic_string<char,std::char_traits<char>,std::allocator<char> > > >::~vector<std::basic_string<char,std::char_traits<char>,std::allocator<char> >,std::allocator<std::basic_string<char,std::char_traits<char>,std::allocator<char> > > >
__ehhandler$??1CTopPanelWnd@@UAE@XZ:
  0017c	b8 00 00 00 00	 mov	 eax, OFFSET FLAT:$T198015
  00181	e9 00 00 00 00	 jmp	 ___CxxFrameHandler
text$x	ENDS
??1CTopPanelWnd@@UAE@XZ ENDP				; CTopPanelWnd::~CTopPanelWnd
PUBLIC	?GetThisMessageMap@CTopPanelWnd@@KGPBUAFX_MSGMAP@@XZ ; CTopPanelWnd::GetThisMessageMap
; Function compile flags: /Odt /RTCsu
_TEXT	SEGMENT
?GetThisMessageMap@CTopPanelWnd@@KGPBUAFX_MSGMAP@@XZ PROC NEAR ; CTopPanelWnd::GetThisMessageMap

; 39   : BEGIN_MESSAGE_MAP(CTopPanelWnd, CBasicWnd)

  00460	55		 push	 ebp
  00461	8b ec		 mov	 ebp, esp
  00463	b8 00 00 00 00	 mov	 eax, OFFSET FLAT:?messageMap@CTopPanelWnd@@1UAFX_MSGMAP@@B ; CTopPanelWnd::messageMap
  00468	5d		 pop	 ebp
  00469	c3		 ret	 0
?GetThisMessageMap@CTopPanelWnd@@KGPBUAFX_MSGMAP@@XZ ENDP ; CTopPanelWnd::GetThisMessageMap
; Function compile flags: /Odt /RTCsu
_this$ = -4						; size = 4
?GetMessageMap@CTopPanelWnd@@MBEPBUAFX_MSGMAP@@XZ PROC NEAR ; CTopPanelWnd::GetMessageMap
; _this$ = ecx

; 39   : BEGIN_MESSAGE_MAP(CTopPanelWnd, CBasicWnd)

  00470	55		 push	 ebp
  00471	8b ec		 mov	 ebp, esp
  00473	51		 push	 ecx
  00474	c7 45 fc cc cc
	cc cc		 mov	 DWORD PTR [ebp-4], -858993460 ; ccccccccH
  0047b	89 4d fc	 mov	 DWORD PTR _this$[ebp], ecx
  0047e	b8 00 00 00 00	 mov	 eax, OFFSET FLAT:?messageMap@CTopPanelWnd@@1UAFX_MSGMAP@@B ; CTopPanelWnd::messageMap
  00483	8b e5		 mov	 esp, ebp
  00485	5d		 pop	 ebp
  00486	c3		 ret	 0
?GetMessageMap@CTopPanelWnd@@MBEPBUAFX_MSGMAP@@XZ ENDP	; CTopPanelWnd::GetMessageMap
_TEXT	ENDS
PUBLIC	?SetTopPanel@CTopPanelControl@@QAEXPAVCTopPanelWnd@@@Z ; CTopPanelControl::SetTopPanel
EXTRN	?AfxGetUIManager@@YAPAVIUIManager@@XZ:NEAR	; AfxGetUIManager
EXTRN	?GetInstance@CTopPanelControl@@SAPAV1@XZ:NEAR	; CTopPanelControl::GetInstance
EXTRN	??0CRect@@QAE@HHHH@Z:NEAR			; CRect::CRect
EXTRN	?GetConfigIntValue@AfxUserConfig@@QAEXABV?$basic_string@DU?$char_traits@D@std@@V?$allocator@D@2@@std@@0AAH@Z:NEAR ; AfxUserConfig::GetConfigIntValue
EXTRN	__imp__SystemParametersInfoA@16:NEAR
EXTRN	?PostMessageA@CWnd@@QAEHIIJ@Z:NEAR		; CWnd::PostMessageA
EXTRN	__imp_??0?$CStringT@DV?$StrTraitMFC_DLL@DV?$ChTraitsCRT@D@ATL@@@@@ATL@@QAE@PBD@Z:NEAR
EXTRN	__imp_??1?$CStringT@DV?$StrTraitMFC_DLL@DV?$ChTraitsCRT@D@ATL@@@@@ATL@@QAE@XZ:NEAR
xdata$x	SEGMENT
$T198076 DD	0ffffffffH
	DD	FLAT:$L198044
	DD	00H
	DD	FLAT:$L198045
	DD	0ffffffffH
	DD	FLAT:$L198046
	DD	02H
	DD	FLAT:$L198047
	DD	0ffffffffH
	DD	FLAT:$L198048
	DD	04H
	DD	FLAT:$L198049
	DD	0ffffffffH
	DD	FLAT:$L198050
	DD	06H
	DD	FLAT:$L198051
	DD	0ffffffffH
	DD	FLAT:$L198052
	DD	08H
	DD	FLAT:$L198053
	DD	0ffffffffH
	DD	FLAT:$L198054
	DD	0aH
	DD	FLAT:$L198055
	DD	0ffffffffH
	DD	FLAT:$L198056
	DD	0cH
	DD	FLAT:$L198057
	DD	0ffffffffH
	DD	FLAT:$L198063
	DD	0ffffffffH
	DD	FLAT:$L198065
$T198068 DD	019930520H
	DD	010H
	DD	FLAT:$T198076
	DD	2 DUP(00H)
	DD	2 DUP(00H)
; Function compile flags: /Odt /RTCsu
xdata$x	ENDS
_TEXT	SEGMENT
tv527 = -568						; size = 4
tv524 = -564						; size = 4
tv545 = -560						; size = 4
tv522 = -556						; size = 4
tv519 = -552						; size = 4
tv542 = -548						; size = 4
tv517 = -544						; size = 4
tv514 = -540						; size = 4
tv511 = -536						; size = 4
tv508 = -532						; size = 4
tv505 = -528						; size = 4
tv287 = -524						; size = 4
$T198043 = -520						; size = 4
$T198042 = -516						; size = 4
$T198041 = -512						; size = 4
$T198040 = -508						; size = 4
$T198039 = -504						; size = 4
$T198038 = -500						; size = 4
$T198037 = -496						; size = 4
$T198036 = -492						; size = 4
$T198035 = -488						; size = 4
$T198034 = -484						; size = 28
$T198033 = -456						; size = 28
$T198032 = -428						; size = 28
$T198031 = -400						; size = 28
$T198030 = -372						; size = 28
$T198029 = -344						; size = 28
$T198028 = -316						; size = 28
$T198027 = -288						; size = 28
$T198026 = -260						; size = 28
$T198025 = -232						; size = 28
$T198024 = -204						; size = 28
$T198023 = -176						; size = 28
$T198022 = -148						; size = 28
$T198021 = -120						; size = 28
_pLayoutMgr$ = -92					; size = 4
_mincy$ = -84						; size = 4
_mincx$ = -72						; size = 4
_r$ = -60						; size = 16
_rectNULL$ = -36					; size = 16
_this$ = -16						; size = 4
__$EHRec$ = -12						; size = 12
_lpCreateStruct$ = 8					; size = 4
?OnCreate@CTopPanelWnd@@IAEHPAUtagCREATESTRUCTA@@@Z PROC NEAR ; CTopPanelWnd::OnCreate
; _this$ = ecx

; 59   : {

  00490	55		 push	 ebp
  00491	8b ec		 mov	 ebp, esp
  00493	6a ff		 push	 -1
  00495	68 00 00 00 00	 push	 __ehhandler$?OnCreate@CTopPanelWnd@@IAEHPAUtagCREATESTRUCTA@@@Z
  0049a	64 a1 00 00 00
	00		 mov	 eax, DWORD PTR fs:__except_list
  004a0	50		 push	 eax
  004a1	64 89 25 00 00
	00 00		 mov	 DWORD PTR fs:__except_list, esp
  004a8	81 ec 2c 02 00
	00		 sub	 esp, 556		; 0000022cH
  004ae	56		 push	 esi
  004af	57		 push	 edi
  004b0	51		 push	 ecx
  004b1	8d bd c8 fd ff
	ff		 lea	 edi, DWORD PTR [ebp-568]
  004b7	b9 8b 00 00 00	 mov	 ecx, 139		; 0000008bH
  004bc	b8 cc cc cc cc	 mov	 eax, -858993460		; ccccccccH
  004c1	f3 ab		 rep stosd
  004c3	59		 pop	 ecx
  004c4	89 4d f0	 mov	 DWORD PTR _this$[ebp], ecx

; 60   : 	CRect rectNULL(0,0,0,0);

  004c7	6a 00		 push	 0
  004c9	6a 00		 push	 0
  004cb	6a 00		 push	 0
  004cd	6a 00		 push	 0
  004cf	8d 4d dc	 lea	 ecx, DWORD PTR _rectNULL$[ebp]
  004d2	e8 00 00 00 00	 call	 ??0CRect@@QAE@HHHH@Z	; CRect::CRect

; 61   : 
; 62   : 	m_btnClose.Create(NULL,NULL,rectNULL,this,ID_BTN_CLOSE);

  004d7	8b f4		 mov	 esi, esp
  004d9	68 11 27 00 00	 push	 10001			; 00002711H
  004de	8b 45 f0	 mov	 eax, DWORD PTR _this$[ebp]
  004e1	50		 push	 eax
  004e2	8d 4d dc	 lea	 ecx, DWORD PTR _rectNULL$[ebp]
  004e5	51		 push	 ecx
  004e6	6a 00		 push	 0
  004e8	6a 00		 push	 0
  004ea	8b 4d f0	 mov	 ecx, DWORD PTR _this$[ebp]
  004ed	81 c1 80 01 00
	00		 add	 ecx, 384		; 00000180H
  004f3	8b 55 f0	 mov	 edx, DWORD PTR _this$[ebp]
  004f6	8b 82 80 01 00
	00		 mov	 eax, DWORD PTR [edx+384]
  004fc	ff 90 38 01 00
	00		 call	 DWORD PTR [eax+312]
  00502	3b f4		 cmp	 esi, esp
  00504	e8 00 00 00 00	 call	 __RTC_CheckEsp

; 63   : 	m_btnMin.Create( NULL,NULL,rectNULL,this,ID_BTN_MIN );

  00509	8b f4		 mov	 esi, esp
  0050b	68 14 27 00 00	 push	 10004			; 00002714H
  00510	8b 4d f0	 mov	 ecx, DWORD PTR _this$[ebp]
  00513	51		 push	 ecx
  00514	8d 55 dc	 lea	 edx, DWORD PTR _rectNULL$[ebp]
  00517	52		 push	 edx
  00518	6a 00		 push	 0
  0051a	6a 00		 push	 0
  0051c	8b 4d f0	 mov	 ecx, DWORD PTR _this$[ebp]
  0051f	83 c1 5c	 add	 ecx, 92			; 0000005cH
  00522	8b 45 f0	 mov	 eax, DWORD PTR _this$[ebp]
  00525	8b 50 5c	 mov	 edx, DWORD PTR [eax+92]
  00528	ff 92 38 01 00
	00		 call	 DWORD PTR [edx+312]
  0052e	3b f4		 cmp	 esi, esp
  00530	e8 00 00 00 00	 call	 __RTC_CheckEsp

; 64   : 	m_btnNormal.Create( NULL,NULL,rectNULL,this,ID_BTN_NORMAL);

  00535	8b f4		 mov	 esi, esp
  00537	68 12 27 00 00	 push	 10002			; 00002712H
  0053c	8b 45 f0	 mov	 eax, DWORD PTR _this$[ebp]
  0053f	50		 push	 eax
  00540	8d 4d dc	 lea	 ecx, DWORD PTR _rectNULL$[ebp]
  00543	51		 push	 ecx
  00544	6a 00		 push	 0
  00546	6a 00		 push	 0
  00548	8b 4d f0	 mov	 ecx, DWORD PTR _this$[ebp]
  0054b	81 c1 a4 02 00
	00		 add	 ecx, 676		; 000002a4H
  00551	8b 55 f0	 mov	 edx, DWORD PTR _this$[ebp]
  00554	8b 82 a4 02 00
	00		 mov	 eax, DWORD PTR [edx+676]
  0055a	ff 90 38 01 00
	00		 call	 DWORD PTR [eax+312]
  00560	3b f4		 cmp	 esi, esp
  00562	e8 00 00 00 00	 call	 __RTC_CheckEsp

; 65   : 	m_btnLarge.Create(NULL,NULL,rectNULL,this,ID_BTN_LARGE);

  00567	8b f4		 mov	 esi, esp
  00569	68 13 27 00 00	 push	 10003			; 00002713H
  0056e	8b 4d f0	 mov	 ecx, DWORD PTR _this$[ebp]
  00571	51		 push	 ecx
  00572	8d 55 dc	 lea	 edx, DWORD PTR _rectNULL$[ebp]
  00575	52		 push	 edx
  00576	6a 00		 push	 0
  00578	6a 00		 push	 0
  0057a	8b 4d f0	 mov	 ecx, DWORD PTR _this$[ebp]
  0057d	81 c1 c8 03 00
	00		 add	 ecx, 968		; 000003c8H
  00583	8b 45 f0	 mov	 eax, DWORD PTR _this$[ebp]
  00586	8b 90 c8 03 00
	00		 mov	 edx, DWORD PTR [eax+968]
  0058c	ff 92 38 01 00
	00		 call	 DWORD PTR [edx+312]
  00592	3b f4		 cmp	 esi, esp
  00594	e8 00 00 00 00	 call	 __RTC_CheckEsp

; 66   : 	m_btnSetting.Create(NULL, NULL, rectNULL, this, ID_BTN_SETTING);

  00599	8b f4		 mov	 esi, esp
  0059b	68 17 27 00 00	 push	 10007			; 00002717H
  005a0	8b 45 f0	 mov	 eax, DWORD PTR _this$[ebp]
  005a3	50		 push	 eax
  005a4	8d 4d dc	 lea	 ecx, DWORD PTR _rectNULL$[ebp]
  005a7	51		 push	 ecx
  005a8	6a 00		 push	 0
  005aa	6a 00		 push	 0
  005ac	8b 4d f0	 mov	 ecx, DWORD PTR _this$[ebp]
  005af	81 c1 ec 04 00
	00		 add	 ecx, 1260		; 000004ecH
  005b5	8b 55 f0	 mov	 edx, DWORD PTR _this$[ebp]
  005b8	8b 82 ec 04 00
	00		 mov	 eax, DWORD PTR [edx+1260]
  005be	ff 90 38 01 00
	00		 call	 DWORD PTR [eax+312]
  005c4	3b f4		 cmp	 esi, esp
  005c6	e8 00 00 00 00	 call	 __RTC_CheckEsp

; 67   : 
; 68   : 	CTopPanelControl::GetInstance()->SetTopPanel(this);

  005cb	8b 4d f0	 mov	 ecx, DWORD PTR _this$[ebp]
  005ce	51		 push	 ecx
  005cf	e8 00 00 00 00	 call	 ?GetInstance@CTopPanelControl@@SAPAV1@XZ ; CTopPanelControl::GetInstance
  005d4	8b c8		 mov	 ecx, eax
  005d6	e8 00 00 00 00	 call	 ?SetTopPanel@CTopPanelControl@@QAEXPAVCTopPanelWnd@@@Z ; CTopPanelControl::SetTopPanel

; 69   : 
; 70   : 	RECT   r;   
; 71   : 	SystemParametersInfo( SPI_GETWORKAREA, sizeof(RECT), &r, 0 );   

  005db	8b f4		 mov	 esi, esp
  005dd	6a 00		 push	 0
  005df	8d 55 c4	 lea	 edx, DWORD PTR _r$[ebp]
  005e2	52		 push	 edx
  005e3	6a 10		 push	 16			; 00000010H
  005e5	6a 30		 push	 48			; 00000030H
  005e7	ff 15 00 00 00
	00		 call	 DWORD PTR __imp__SystemParametersInfoA@16
  005ed	3b f4		 cmp	 esi, esp
  005ef	e8 00 00 00 00	 call	 __RTC_CheckEsp

; 72   : 
; 73   : 	m_iDesktopWidth		= r.right - r.left;

  005f4	8b 45 cc	 mov	 eax, DWORD PTR _r$[ebp+8]
  005f7	2b 45 c4	 sub	 eax, DWORD PTR _r$[ebp]
  005fa	8b 4d f0	 mov	 ecx, DWORD PTR _this$[ebp]
  005fd	89 81 14 06 00
	00		 mov	 DWORD PTR [ecx+1556], eax

; 74   : 	m_iDesktopHeight	= r.bottom - r.top;

  00603	8b 55 d0	 mov	 edx, DWORD PTR _r$[ebp+12]
  00606	2b 55 c8	 sub	 edx, DWORD PTR _r$[ebp+4]
  00609	8b 45 f0	 mov	 eax, DWORD PTR _this$[ebp]
  0060c	89 90 18 06 00
	00		 mov	 DWORD PTR [eax+1560], edx

; 75   : 
; 76   : 	AfxGetUserConfig()->GetConfigBoolValue( CONF_LAYOUT_MODULE_NAME,CONF_LAYOUT_NORMAL,m_bNormal);

  00612	8b f4		 mov	 esi, esp
  00614	8b 0d 00 00 00
	00		 mov	 ecx, DWORD PTR _CONF_LAYOUT_NORMAL
  0061a	51		 push	 ecx
  0061b	8d 4d 88	 lea	 ecx, DWORD PTR $T198021[ebp]
  0061e	ff 15 00 00 00
	00		 call	 DWORD PTR __imp_??0?$basic_string@DU?$char_traits@D@std@@V?$allocator@D@2@@std@@QAE@PBD@Z
  00624	3b f4		 cmp	 esi, esp
  00626	e8 00 00 00 00	 call	 __RTC_CheckEsp
  0062b	c7 45 fc 00 00
	00 00		 mov	 DWORD PTR __$EHRec$[ebp+8], 0
  00632	8b f4		 mov	 esi, esp
  00634	8b 15 00 00 00
	00		 mov	 edx, DWORD PTR _CONF_LAYOUT_MODULE_NAME
  0063a	52		 push	 edx
  0063b	8d 8d 6c ff ff
	ff		 lea	 ecx, DWORD PTR $T198022[ebp]
  00641	ff 15 00 00 00
	00		 call	 DWORD PTR __imp_??0?$basic_string@DU?$char_traits@D@std@@V?$allocator@D@2@@std@@QAE@PBD@Z
  00647	3b f4		 cmp	 esi, esp
  00649	e8 00 00 00 00	 call	 __RTC_CheckEsp
  0064e	c6 45 fc 01	 mov	 BYTE PTR __$EHRec$[ebp+8], 1
  00652	8b 45 f0	 mov	 eax, DWORD PTR _this$[ebp]
  00655	05 10 06 00 00	 add	 eax, 1552		; 00000610H
  0065a	50		 push	 eax
  0065b	8d 4d 88	 lea	 ecx, DWORD PTR $T198021[ebp]
  0065e	51		 push	 ecx
  0065f	8d 95 6c ff ff
	ff		 lea	 edx, DWORD PTR $T198022[ebp]
  00665	52		 push	 edx
  00666	e8 00 00 00 00	 call	 ?AfxGetUserConfig@@YAPAVAfxUserConfig@@XZ ; AfxGetUserConfig
  0066b	8b c8		 mov	 ecx, eax
  0066d	e8 00 00 00 00	 call	 ?GetConfigBoolValue@AfxUserConfig@@QAEXABV?$basic_string@DU?$char_traits@D@std@@V?$allocator@D@2@@std@@0AA_N@Z ; AfxUserConfig::GetConfigBoolValue
  00672	c6 45 fc 00	 mov	 BYTE PTR __$EHRec$[ebp+8], 0
  00676	8b f4		 mov	 esi, esp
  00678	8d 8d 6c ff ff
	ff		 lea	 ecx, DWORD PTR $T198022[ebp]
  0067e	ff 15 00 00 00
	00		 call	 DWORD PTR __imp_??1?$basic_string@DU?$char_traits@D@std@@V?$allocator@D@2@@std@@QAE@XZ
  00684	3b f4		 cmp	 esi, esp
  00686	e8 00 00 00 00	 call	 __RTC_CheckEsp
  0068b	c7 45 fc ff ff
	ff ff		 mov	 DWORD PTR __$EHRec$[ebp+8], -1
  00692	8b f4		 mov	 esi, esp
  00694	8d 4d 88	 lea	 ecx, DWORD PTR $T198021[ebp]
  00697	ff 15 00 00 00
	00		 call	 DWORD PTR __imp_??1?$basic_string@DU?$char_traits@D@std@@V?$allocator@D@2@@std@@QAE@XZ
  0069d	3b f4		 cmp	 esi, esp
  0069f	e8 00 00 00 00	 call	 __RTC_CheckEsp

; 77   : 	AfxGetUserConfig()->GetConfigIntValue( CONF_LAYOUT_MODULE_NAME,CONF_LAYOUT_HEIGHT,m_iWndNormalHeigth);

  006a4	8b f4		 mov	 esi, esp
  006a6	a1 00 00 00 00	 mov	 eax, DWORD PTR _CONF_LAYOUT_HEIGHT
  006ab	50		 push	 eax
  006ac	8d 8d 50 ff ff
	ff		 lea	 ecx, DWORD PTR $T198023[ebp]
  006b2	ff 15 00 00 00
	00		 call	 DWORD PTR __imp_??0?$basic_string@DU?$char_traits@D@std@@V?$allocator@D@2@@std@@QAE@PBD@Z
  006b8	3b f4		 cmp	 esi, esp
  006ba	e8 00 00 00 00	 call	 __RTC_CheckEsp
  006bf	c7 45 fc 02 00
	00 00		 mov	 DWORD PTR __$EHRec$[ebp+8], 2
  006c6	8b f4		 mov	 esi, esp
  006c8	8b 0d 00 00 00
	00		 mov	 ecx, DWORD PTR _CONF_LAYOUT_MODULE_NAME
  006ce	51		 push	 ecx
  006cf	8d 8d 34 ff ff
	ff		 lea	 ecx, DWORD PTR $T198024[ebp]
  006d5	ff 15 00 00 00
	00		 call	 DWORD PTR __imp_??0?$basic_string@DU?$char_traits@D@std@@V?$allocator@D@2@@std@@QAE@PBD@Z
  006db	3b f4		 cmp	 esi, esp
  006dd	e8 00 00 00 00	 call	 __RTC_CheckEsp
  006e2	c6 45 fc 03	 mov	 BYTE PTR __$EHRec$[ebp+8], 3
  006e6	8b 55 f0	 mov	 edx, DWORD PTR _this$[ebp]
  006e9	81 c2 28 06 00
	00		 add	 edx, 1576		; 00000628H
  006ef	52		 push	 edx
  006f0	8d 85 50 ff ff
	ff		 lea	 eax, DWORD PTR $T198023[ebp]
  006f6	50		 push	 eax
  006f7	8d 8d 34 ff ff
	ff		 lea	 ecx, DWORD PTR $T198024[ebp]
  006fd	51		 push	 ecx
  006fe	e8 00 00 00 00	 call	 ?AfxGetUserConfig@@YAPAVAfxUserConfig@@XZ ; AfxGetUserConfig
  00703	8b c8		 mov	 ecx, eax
  00705	e8 00 00 00 00	 call	 ?GetConfigIntValue@AfxUserConfig@@QAEXABV?$basic_string@DU?$char_traits@D@std@@V?$allocator@D@2@@std@@0AAH@Z ; AfxUserConfig::GetConfigIntValue
  0070a	c6 45 fc 02	 mov	 BYTE PTR __$EHRec$[ebp+8], 2
  0070e	8b f4		 mov	 esi, esp
  00710	8d 8d 34 ff ff
	ff		 lea	 ecx, DWORD PTR $T198024[ebp]
  00716	ff 15 00 00 00
	00		 call	 DWORD PTR __imp_??1?$basic_string@DU?$char_traits@D@std@@V?$allocator@D@2@@std@@QAE@XZ
  0071c	3b f4		 cmp	 esi, esp
  0071e	e8 00 00 00 00	 call	 __RTC_CheckEsp
  00723	c7 45 fc ff ff
	ff ff		 mov	 DWORD PTR __$EHRec$[ebp+8], -1
  0072a	8b f4		 mov	 esi, esp
  0072c	8d 8d 50 ff ff
	ff		 lea	 ecx, DWORD PTR $T198023[ebp]
  00732	ff 15 00 00 00
	00		 call	 DWORD PTR __imp_??1?$basic_string@DU?$char_traits@D@std@@V?$allocator@D@2@@std@@QAE@XZ
  00738	3b f4		 cmp	 esi, esp
  0073a	e8 00 00 00 00	 call	 __RTC_CheckEsp

; 78   : 	AfxGetUserConfig()->GetConfigIntValue( CONF_LAYOUT_MODULE_NAME,CONF_LAYOUT_WIDTH,m_iWndNormalWidth);

  0073f	8b f4		 mov	 esi, esp
  00741	8b 15 00 00 00
	00		 mov	 edx, DWORD PTR _CONF_LAYOUT_WIDTH
  00747	52		 push	 edx
  00748	8d 8d 18 ff ff
	ff		 lea	 ecx, DWORD PTR $T198025[ebp]
  0074e	ff 15 00 00 00
	00		 call	 DWORD PTR __imp_??0?$basic_string@DU?$char_traits@D@std@@V?$allocator@D@2@@std@@QAE@PBD@Z
  00754	3b f4		 cmp	 esi, esp
  00756	e8 00 00 00 00	 call	 __RTC_CheckEsp
  0075b	c7 45 fc 04 00
	00 00		 mov	 DWORD PTR __$EHRec$[ebp+8], 4
  00762	8b f4		 mov	 esi, esp
  00764	a1 00 00 00 00	 mov	 eax, DWORD PTR _CONF_LAYOUT_MODULE_NAME
  00769	50		 push	 eax
  0076a	8d 8d fc fe ff
	ff		 lea	 ecx, DWORD PTR $T198026[ebp]
  00770	ff 15 00 00 00
	00		 call	 DWORD PTR __imp_??0?$basic_string@DU?$char_traits@D@std@@V?$allocator@D@2@@std@@QAE@PBD@Z
  00776	3b f4		 cmp	 esi, esp
  00778	e8 00 00 00 00	 call	 __RTC_CheckEsp
  0077d	c6 45 fc 05	 mov	 BYTE PTR __$EHRec$[ebp+8], 5
  00781	8b 4d f0	 mov	 ecx, DWORD PTR _this$[ebp]
  00784	81 c1 24 06 00
	00		 add	 ecx, 1572		; 00000624H
  0078a	51		 push	 ecx
  0078b	8d 95 18 ff ff
	ff		 lea	 edx, DWORD PTR $T198025[ebp]
  00791	52		 push	 edx
  00792	8d 85 fc fe ff
	ff		 lea	 eax, DWORD PTR $T198026[ebp]
  00798	50		 push	 eax
  00799	e8 00 00 00 00	 call	 ?AfxGetUserConfig@@YAPAVAfxUserConfig@@XZ ; AfxGetUserConfig
  0079e	8b c8		 mov	 ecx, eax
  007a0	e8 00 00 00 00	 call	 ?GetConfigIntValue@AfxUserConfig@@QAEXABV?$basic_string@DU?$char_traits@D@std@@V?$allocator@D@2@@std@@0AAH@Z ; AfxUserConfig::GetConfigIntValue
  007a5	c6 45 fc 04	 mov	 BYTE PTR __$EHRec$[ebp+8], 4
  007a9	8b f4		 mov	 esi, esp
  007ab	8d 8d fc fe ff
	ff		 lea	 ecx, DWORD PTR $T198026[ebp]
  007b1	ff 15 00 00 00
	00		 call	 DWORD PTR __imp_??1?$basic_string@DU?$char_traits@D@std@@V?$allocator@D@2@@std@@QAE@XZ
  007b7	3b f4		 cmp	 esi, esp
  007b9	e8 00 00 00 00	 call	 __RTC_CheckEsp
  007be	c7 45 fc ff ff
	ff ff		 mov	 DWORD PTR __$EHRec$[ebp+8], -1
  007c5	8b f4		 mov	 esi, esp
  007c7	8d 8d 18 ff ff
	ff		 lea	 ecx, DWORD PTR $T198025[ebp]
  007cd	ff 15 00 00 00
	00		 call	 DWORD PTR __imp_??1?$basic_string@DU?$char_traits@D@std@@V?$allocator@D@2@@std@@QAE@XZ
  007d3	3b f4		 cmp	 esi, esp
  007d5	e8 00 00 00 00	 call	 __RTC_CheckEsp

; 79   : 	AfxGetUserConfig()->GetConfigIntValue( CONF_LAYOUT_MODULE_NAME,CONF_LAYOUT_X_POS,m_iXPos);

  007da	8b f4		 mov	 esi, esp
  007dc	8b 0d 00 00 00
	00		 mov	 ecx, DWORD PTR _CONF_LAYOUT_X_POS
  007e2	51		 push	 ecx
  007e3	8d 8d e0 fe ff
	ff		 lea	 ecx, DWORD PTR $T198027[ebp]
  007e9	ff 15 00 00 00
	00		 call	 DWORD PTR __imp_??0?$basic_string@DU?$char_traits@D@std@@V?$allocator@D@2@@std@@QAE@PBD@Z
  007ef	3b f4		 cmp	 esi, esp
  007f1	e8 00 00 00 00	 call	 __RTC_CheckEsp
  007f6	c7 45 fc 06 00
	00 00		 mov	 DWORD PTR __$EHRec$[ebp+8], 6
  007fd	8b f4		 mov	 esi, esp
  007ff	8b 15 00 00 00
	00		 mov	 edx, DWORD PTR _CONF_LAYOUT_MODULE_NAME
  00805	52		 push	 edx
  00806	8d 8d c4 fe ff
	ff		 lea	 ecx, DWORD PTR $T198028[ebp]
  0080c	ff 15 00 00 00
	00		 call	 DWORD PTR __imp_??0?$basic_string@DU?$char_traits@D@std@@V?$allocator@D@2@@std@@QAE@PBD@Z
  00812	3b f4		 cmp	 esi, esp
  00814	e8 00 00 00 00	 call	 __RTC_CheckEsp
  00819	c6 45 fc 07	 mov	 BYTE PTR __$EHRec$[ebp+8], 7
  0081d	8b 45 f0	 mov	 eax, DWORD PTR _this$[ebp]
  00820	05 1c 06 00 00	 add	 eax, 1564		; 0000061cH
  00825	50		 push	 eax
  00826	8d 8d e0 fe ff
	ff		 lea	 ecx, DWORD PTR $T198027[ebp]
  0082c	51		 push	 ecx
  0082d	8d 95 c4 fe ff
	ff		 lea	 edx, DWORD PTR $T198028[ebp]
  00833	52		 push	 edx
  00834	e8 00 00 00 00	 call	 ?AfxGetUserConfig@@YAPAVAfxUserConfig@@XZ ; AfxGetUserConfig
  00839	8b c8		 mov	 ecx, eax
  0083b	e8 00 00 00 00	 call	 ?GetConfigIntValue@AfxUserConfig@@QAEXABV?$basic_string@DU?$char_traits@D@std@@V?$allocator@D@2@@std@@0AAH@Z ; AfxUserConfig::GetConfigIntValue
  00840	c6 45 fc 06	 mov	 BYTE PTR __$EHRec$[ebp+8], 6
  00844	8b f4		 mov	 esi, esp
  00846	8d 8d c4 fe ff
	ff		 lea	 ecx, DWORD PTR $T198028[ebp]
  0084c	ff 15 00 00 00
	00		 call	 DWORD PTR __imp_??1?$basic_string@DU?$char_traits@D@std@@V?$allocator@D@2@@std@@QAE@XZ
  00852	3b f4		 cmp	 esi, esp
  00854	e8 00 00 00 00	 call	 __RTC_CheckEsp
  00859	c7 45 fc ff ff
	ff ff		 mov	 DWORD PTR __$EHRec$[ebp+8], -1
  00860	8b f4		 mov	 esi, esp
  00862	8d 8d e0 fe ff
	ff		 lea	 ecx, DWORD PTR $T198027[ebp]
  00868	ff 15 00 00 00
	00		 call	 DWORD PTR __imp_??1?$basic_string@DU?$char_traits@D@std@@V?$allocator@D@2@@std@@QAE@XZ
  0086e	3b f4		 cmp	 esi, esp
  00870	e8 00 00 00 00	 call	 __RTC_CheckEsp

; 80   : 	AfxGetUserConfig()->GetConfigIntValue( CONF_LAYOUT_MODULE_NAME,CONF_LAYOUT_Y_POS,m_iYPos);

  00875	8b f4		 mov	 esi, esp
  00877	a1 00 00 00 00	 mov	 eax, DWORD PTR _CONF_LAYOUT_Y_POS
  0087c	50		 push	 eax
  0087d	8d 8d a8 fe ff
	ff		 lea	 ecx, DWORD PTR $T198029[ebp]
  00883	ff 15 00 00 00
	00		 call	 DWORD PTR __imp_??0?$basic_string@DU?$char_traits@D@std@@V?$allocator@D@2@@std@@QAE@PBD@Z
  00889	3b f4		 cmp	 esi, esp
  0088b	e8 00 00 00 00	 call	 __RTC_CheckEsp
  00890	c7 45 fc 08 00
	00 00		 mov	 DWORD PTR __$EHRec$[ebp+8], 8
  00897	8b f4		 mov	 esi, esp
  00899	8b 0d 00 00 00
	00		 mov	 ecx, DWORD PTR _CONF_LAYOUT_MODULE_NAME
  0089f	51		 push	 ecx
  008a0	8d 8d 8c fe ff
	ff		 lea	 ecx, DWORD PTR $T198030[ebp]
  008a6	ff 15 00 00 00
	00		 call	 DWORD PTR __imp_??0?$basic_string@DU?$char_traits@D@std@@V?$allocator@D@2@@std@@QAE@PBD@Z
  008ac	3b f4		 cmp	 esi, esp
  008ae	e8 00 00 00 00	 call	 __RTC_CheckEsp
  008b3	c6 45 fc 09	 mov	 BYTE PTR __$EHRec$[ebp+8], 9
  008b7	8b 55 f0	 mov	 edx, DWORD PTR _this$[ebp]
  008ba	81 c2 20 06 00
	00		 add	 edx, 1568		; 00000620H
  008c0	52		 push	 edx
  008c1	8d 85 a8 fe ff
	ff		 lea	 eax, DWORD PTR $T198029[ebp]
  008c7	50		 push	 eax
  008c8	8d 8d 8c fe ff
	ff		 lea	 ecx, DWORD PTR $T198030[ebp]
  008ce	51		 push	 ecx
  008cf	e8 00 00 00 00	 call	 ?AfxGetUserConfig@@YAPAVAfxUserConfig@@XZ ; AfxGetUserConfig
  008d4	8b c8		 mov	 ecx, eax
  008d6	e8 00 00 00 00	 call	 ?GetConfigIntValue@AfxUserConfig@@QAEXABV?$basic_string@DU?$char_traits@D@std@@V?$allocator@D@2@@std@@0AAH@Z ; AfxUserConfig::GetConfigIntValue
  008db	c6 45 fc 08	 mov	 BYTE PTR __$EHRec$[ebp+8], 8
  008df	8b f4		 mov	 esi, esp
  008e1	8d 8d 8c fe ff
	ff		 lea	 ecx, DWORD PTR $T198030[ebp]
  008e7	ff 15 00 00 00
	00		 call	 DWORD PTR __imp_??1?$basic_string@DU?$char_traits@D@std@@V?$allocator@D@2@@std@@QAE@XZ
  008ed	3b f4		 cmp	 esi, esp
  008ef	e8 00 00 00 00	 call	 __RTC_CheckEsp
  008f4	c7 45 fc ff ff
	ff ff		 mov	 DWORD PTR __$EHRec$[ebp+8], -1
  008fb	8b f4		 mov	 esi, esp
  008fd	8d 8d a8 fe ff
	ff		 lea	 ecx, DWORD PTR $T198029[ebp]
  00903	ff 15 00 00 00
	00		 call	 DWORD PTR __imp_??1?$basic_string@DU?$char_traits@D@std@@V?$allocator@D@2@@std@@QAE@XZ
  00909	3b f4		 cmp	 esi, esp
  0090b	e8 00 00 00 00	 call	 __RTC_CheckEsp

; 81   : 
; 82   : 	//
; 83   : 	int mincx ,mincy;
; 84   : 	AfxGetUserConfig()->GetConfigIntValue( CONF_LAYOUT_MODULE_NAME, CONF_LAYOUT_MIN_WIDTH, mincx );

  00910	8b f4		 mov	 esi, esp
  00912	8b 15 00 00 00
	00		 mov	 edx, DWORD PTR _CONF_LAYOUT_MIN_WIDTH
  00918	52		 push	 edx
  00919	8d 8d 70 fe ff
	ff		 lea	 ecx, DWORD PTR $T198031[ebp]
  0091f	ff 15 00 00 00
	00		 call	 DWORD PTR __imp_??0?$basic_string@DU?$char_traits@D@std@@V?$allocator@D@2@@std@@QAE@PBD@Z
  00925	3b f4		 cmp	 esi, esp
  00927	e8 00 00 00 00	 call	 __RTC_CheckEsp
  0092c	c7 45 fc 0a 00
	00 00		 mov	 DWORD PTR __$EHRec$[ebp+8], 10 ; 0000000aH
  00933	8b f4		 mov	 esi, esp
  00935	a1 00 00 00 00	 mov	 eax, DWORD PTR _CONF_LAYOUT_MODULE_NAME
  0093a	50		 push	 eax
  0093b	8d 8d 54 fe ff
	ff		 lea	 ecx, DWORD PTR $T198032[ebp]
  00941	ff 15 00 00 00
	00		 call	 DWORD PTR __imp_??0?$basic_string@DU?$char_traits@D@std@@V?$allocator@D@2@@std@@QAE@PBD@Z
  00947	3b f4		 cmp	 esi, esp
  00949	e8 00 00 00 00	 call	 __RTC_CheckEsp
  0094e	c6 45 fc 0b	 mov	 BYTE PTR __$EHRec$[ebp+8], 11 ; 0000000bH
  00952	8d 4d b8	 lea	 ecx, DWORD PTR _mincx$[ebp]
  00955	51		 push	 ecx
  00956	8d 95 70 fe ff
	ff		 lea	 edx, DWORD PTR $T198031[ebp]
  0095c	52		 push	 edx
  0095d	8d 85 54 fe ff
	ff		 lea	 eax, DWORD PTR $T198032[ebp]
  00963	50		 push	 eax
  00964	e8 00 00 00 00	 call	 ?AfxGetUserConfig@@YAPAVAfxUserConfig@@XZ ; AfxGetUserConfig
  00969	8b c8		 mov	 ecx, eax
  0096b	e8 00 00 00 00	 call	 ?GetConfigIntValue@AfxUserConfig@@QAEXABV?$basic_string@DU?$char_traits@D@std@@V?$allocator@D@2@@std@@0AAH@Z ; AfxUserConfig::GetConfigIntValue
  00970	c6 45 fc 0a	 mov	 BYTE PTR __$EHRec$[ebp+8], 10 ; 0000000aH
  00974	8b f4		 mov	 esi, esp
  00976	8d 8d 54 fe ff
	ff		 lea	 ecx, DWORD PTR $T198032[ebp]
  0097c	ff 15 00 00 00
	00		 call	 DWORD PTR __imp_??1?$basic_string@DU?$char_traits@D@std@@V?$allocator@D@2@@std@@QAE@XZ
  00982	3b f4		 cmp	 esi, esp
  00984	e8 00 00 00 00	 call	 __RTC_CheckEsp
  00989	c7 45 fc ff ff
	ff ff		 mov	 DWORD PTR __$EHRec$[ebp+8], -1
  00990	8b f4		 mov	 esi, esp
  00992	8d 8d 70 fe ff
	ff		 lea	 ecx, DWORD PTR $T198031[ebp]
  00998	ff 15 00 00 00
	00		 call	 DWORD PTR __imp_??1?$basic_string@DU?$char_traits@D@std@@V?$allocator@D@2@@std@@QAE@XZ
  0099e	3b f4		 cmp	 esi, esp
  009a0	e8 00 00 00 00	 call	 __RTC_CheckEsp

; 85   : 	AfxGetUserConfig()->GetConfigIntValue( CONF_LAYOUT_MODULE_NAME, CONF_LAYOUT_MIN_HEIGHT, mincy );

  009a5	8b f4		 mov	 esi, esp
  009a7	8b 0d 00 00 00
	00		 mov	 ecx, DWORD PTR _CONF_LAYOUT_MIN_HEIGHT
  009ad	51		 push	 ecx
  009ae	8d 8d 38 fe ff
	ff		 lea	 ecx, DWORD PTR $T198033[ebp]
  009b4	ff 15 00 00 00
	00		 call	 DWORD PTR __imp_??0?$basic_string@DU?$char_traits@D@std@@V?$allocator@D@2@@std@@QAE@PBD@Z
  009ba	3b f4		 cmp	 esi, esp
  009bc	e8 00 00 00 00	 call	 __RTC_CheckEsp
  009c1	c7 45 fc 0c 00
	00 00		 mov	 DWORD PTR __$EHRec$[ebp+8], 12 ; 0000000cH
  009c8	8b f4		 mov	 esi, esp
  009ca	8b 15 00 00 00
	00		 mov	 edx, DWORD PTR _CONF_LAYOUT_MODULE_NAME
  009d0	52		 push	 edx
  009d1	8d 8d 1c fe ff
	ff		 lea	 ecx, DWORD PTR $T198034[ebp]
  009d7	ff 15 00 00 00
	00		 call	 DWORD PTR __imp_??0?$basic_string@DU?$char_traits@D@std@@V?$allocator@D@2@@std@@QAE@PBD@Z
  009dd	3b f4		 cmp	 esi, esp
  009df	e8 00 00 00 00	 call	 __RTC_CheckEsp
  009e4	c6 45 fc 0d	 mov	 BYTE PTR __$EHRec$[ebp+8], 13 ; 0000000dH
  009e8	8d 45 ac	 lea	 eax, DWORD PTR _mincy$[ebp]
  009eb	50		 push	 eax
  009ec	8d 8d 38 fe ff
	ff		 lea	 ecx, DWORD PTR $T198033[ebp]
  009f2	51		 push	 ecx
  009f3	8d 95 1c fe ff
	ff		 lea	 edx, DWORD PTR $T198034[ebp]
  009f9	52		 push	 edx
  009fa	e8 00 00 00 00	 call	 ?AfxGetUserConfig@@YAPAVAfxUserConfig@@XZ ; AfxGetUserConfig
  009ff	8b c8		 mov	 ecx, eax
  00a01	e8 00 00 00 00	 call	 ?GetConfigIntValue@AfxUserConfig@@QAEXABV?$basic_string@DU?$char_traits@D@std@@V?$allocator@D@2@@std@@0AAH@Z ; AfxUserConfig::GetConfigIntValue
  00a06	c6 45 fc 0c	 mov	 BYTE PTR __$EHRec$[ebp+8], 12 ; 0000000cH
  00a0a	8b f4		 mov	 esi, esp
  00a0c	8d 8d 1c fe ff
	ff		 lea	 ecx, DWORD PTR $T198034[ebp]
  00a12	ff 15 00 00 00
	00		 call	 DWORD PTR __imp_??1?$basic_string@DU?$char_traits@D@std@@V?$allocator@D@2@@std@@QAE@XZ
  00a18	3b f4		 cmp	 esi, esp
  00a1a	e8 00 00 00 00	 call	 __RTC_CheckEsp
  00a1f	c7 45 fc ff ff
	ff ff		 mov	 DWORD PTR __$EHRec$[ebp+8], -1
  00a26	8b f4		 mov	 esi, esp
  00a28	8d 8d 38 fe ff
	ff		 lea	 ecx, DWORD PTR $T198033[ebp]
  00a2e	ff 15 00 00 00
	00		 call	 DWORD PTR __imp_??1?$basic_string@DU?$char_traits@D@std@@V?$allocator@D@2@@std@@QAE@XZ
  00a34	3b f4		 cmp	 esi, esp
  00a36	e8 00 00 00 00	 call	 __RTC_CheckEsp

; 86   : 
; 87   : 	//config.ini0
; 88   : 	if(mincx < 640 || mincy < 400 )

  00a3b	81 7d b8 80 02
	00 00		 cmp	 DWORD PTR _mincx$[ebp], 640 ; 00000280H
  00a42	7c 09		 jl	 SHORT $L196553
  00a44	81 7d ac 90 01
	00 00		 cmp	 DWORD PTR _mincy$[ebp], 400 ; 00000190H
  00a4b	7d 0e		 jge	 SHORT $L196552
$L196553:

; 89   : 	{
; 90   : 		mincx = 640;

  00a4d	c7 45 b8 80 02
	00 00		 mov	 DWORD PTR _mincx$[ebp], 640 ; 00000280H

; 91   : 		mincy = 400;

  00a54	c7 45 ac 90 01
	00 00		 mov	 DWORD PTR _mincy$[ebp], 400 ; 00000190H
$L196552:

; 92   : 	}
; 93   : 	
; 94   : 	m_mincx = mincx;

  00a5b	8b 45 f0	 mov	 eax, DWORD PTR _this$[ebp]
  00a5e	8b 4d b8	 mov	 ecx, DWORD PTR _mincx$[ebp]
  00a61	89 88 60 06 00
	00		 mov	 DWORD PTR [eax+1632], ecx

; 95   : 	m_mincy = mincy;	

  00a67	8b 55 f0	 mov	 edx, DWORD PTR _this$[ebp]
  00a6a	8b 45 ac	 mov	 eax, DWORD PTR _mincy$[ebp]
  00a6d	89 82 64 06 00
	00		 mov	 DWORD PTR [edx+1636], eax

; 96   : 	
; 97   : 	if(m_iWndNormalHeigth < mincy)

  00a73	8b 4d f0	 mov	 ecx, DWORD PTR _this$[ebp]
  00a76	8b 91 28 06 00
	00		 mov	 edx, DWORD PTR [ecx+1576]
  00a7c	3b 55 ac	 cmp	 edx, DWORD PTR _mincy$[ebp]
  00a7f	7d 0d		 jge	 SHORT $L196554

; 98   : 		m_iWndNormalHeigth = 580;

  00a81	8b 45 f0	 mov	 eax, DWORD PTR _this$[ebp]
  00a84	c7 80 28 06 00
	00 44 02 00 00	 mov	 DWORD PTR [eax+1576], 580 ; 00000244H
$L196554:

; 99   : 	if(m_iWndNormalWidth < mincx)

  00a8e	8b 4d f0	 mov	 ecx, DWORD PTR _this$[ebp]
  00a91	8b 91 24 06 00
	00		 mov	 edx, DWORD PTR [ecx+1572]
  00a97	3b 55 b8	 cmp	 edx, DWORD PTR _mincx$[ebp]
  00a9a	7d 0d		 jge	 SHORT $L196555

; 100  : 		m_iWndNormalWidth = 830;

  00a9c	8b 45 f0	 mov	 eax, DWORD PTR _this$[ebp]
  00a9f	c7 80 24 06 00
	00 3e 03 00 00	 mov	 DWORD PTR [eax+1572], 830 ; 0000033eH
$L196555:

; 101  : 
; 102  : 
; 103  : 	if( m_iXPos <= 0 || m_iXPos >= m_iDesktopWidth )

  00aa9	8b 4d f0	 mov	 ecx, DWORD PTR _this$[ebp]
  00aac	83 b9 1c 06 00
	00 00		 cmp	 DWORD PTR [ecx+1564], 0
  00ab3	7e 14		 jle	 SHORT $L196557
  00ab5	8b 55 f0	 mov	 edx, DWORD PTR _this$[ebp]
  00ab8	8b 45 f0	 mov	 eax, DWORD PTR _this$[ebp]
  00abb	8b 8a 1c 06 00
	00		 mov	 ecx, DWORD PTR [edx+1564]
  00ac1	3b 88 14 06 00
	00		 cmp	 ecx, DWORD PTR [eax+1556]
  00ac7	7c 0d		 jl	 SHORT $L196556
$L196557:

; 104  : 	{
; 105  : 		m_iXPos = 100;

  00ac9	8b 55 f0	 mov	 edx, DWORD PTR _this$[ebp]
  00acc	c7 82 1c 06 00
	00 64 00 00 00	 mov	 DWORD PTR [edx+1564], 100 ; 00000064H
$L196556:

; 106  : 	}
; 107  : 	if( m_iYPos <= 0 || m_iYPos >= m_iDesktopHeight )

  00ad6	8b 45 f0	 mov	 eax, DWORD PTR _this$[ebp]
  00ad9	83 b8 20 06 00
	00 00		 cmp	 DWORD PTR [eax+1568], 0
  00ae0	7e 14		 jle	 SHORT $L196559
  00ae2	8b 4d f0	 mov	 ecx, DWORD PTR _this$[ebp]
  00ae5	8b 55 f0	 mov	 edx, DWORD PTR _this$[ebp]
  00ae8	8b 81 20 06 00
	00		 mov	 eax, DWORD PTR [ecx+1568]
  00aee	3b 82 18 06 00
	00		 cmp	 eax, DWORD PTR [edx+1560]
  00af4	7c 0d		 jl	 SHORT $L196558
$L196559:

; 108  : 	{
; 109  : 		m_iYPos = 100;

  00af6	8b 4d f0	 mov	 ecx, DWORD PTR _this$[ebp]
  00af9	c7 81 20 06 00
	00 64 00 00 00	 mov	 DWORD PTR [ecx+1568], 100 ; 00000064H
$L196558:

; 110  : 	}
; 111  : 
; 112  : 	ILayoutMgr* pLayoutMgr =  AfxGetUIManager()->UIGetLayoutMgr();

  00b03	e8 00 00 00 00	 call	 ?AfxGetUIManager@@YAPAVIUIManager@@XZ ; AfxGetUIManager
  00b08	89 85 f4 fd ff
	ff		 mov	 DWORD PTR tv287[ebp], eax
  00b0e	8b 95 f4 fd ff
	ff		 mov	 edx, DWORD PTR tv287[ebp]
  00b14	8b 02		 mov	 eax, DWORD PTR [edx]
  00b16	8b f4		 mov	 esi, esp
  00b18	8b 8d f4 fd ff
	ff		 mov	 ecx, DWORD PTR tv287[ebp]
  00b1e	ff 50 24	 call	 DWORD PTR [eax+36]
  00b21	3b f4		 cmp	 esi, esp
  00b23	e8 00 00 00 00	 call	 __RTC_CheckEsp
  00b28	89 45 a4	 mov	 DWORD PTR _pLayoutMgr$[ebp], eax

; 113  : 
; 114  : 	pLayoutMgr->RegisterCtrl( this,"Close",&m_btnClose);

  00b2b	8b 4d f0	 mov	 ecx, DWORD PTR _this$[ebp]
  00b2e	81 c1 80 01 00
	00		 add	 ecx, 384		; 00000180H
  00b34	51		 push	 ecx
  00b35	51		 push	 ecx
  00b36	8b cc		 mov	 ecx, esp
  00b38	89 a5 18 fe ff
	ff		 mov	 DWORD PTR $T198035[ebp], esp
  00b3e	8b f4		 mov	 esi, esp
  00b40	68 00 00 00 00	 push	 OFFSET FLAT:$SG196562
  00b45	ff 15 00 00 00
	00		 call	 DWORD PTR __imp_??0?$CStringT@DV?$StrTraitMFC_DLL@DV?$ChTraitsCRT@D@ATL@@@@@ATL@@QAE@PBD@Z
  00b4b	3b f4		 cmp	 esi, esp
  00b4d	e8 00 00 00 00	 call	 __RTC_CheckEsp
  00b52	89 85 f0 fd ff
	ff		 mov	 DWORD PTR tv505[ebp], eax
  00b58	8b 55 f0	 mov	 edx, DWORD PTR _this$[ebp]
  00b5b	52		 push	 edx
  00b5c	8b 45 a4	 mov	 eax, DWORD PTR _pLayoutMgr$[ebp]
  00b5f	8b 10		 mov	 edx, DWORD PTR [eax]
  00b61	8b 4d a4	 mov	 ecx, DWORD PTR _pLayoutMgr$[ebp]
  00b64	ff 52 34	 call	 DWORD PTR [edx+52]

; 115  : 	pLayoutMgr->RegisterCtrl( this,"Normal",&m_btnNormal);

  00b67	8b 45 f0	 mov	 eax, DWORD PTR _this$[ebp]
  00b6a	05 a4 02 00 00	 add	 eax, 676		; 000002a4H
  00b6f	50		 push	 eax
  00b70	51		 push	 ecx
  00b71	8b cc		 mov	 ecx, esp
  00b73	89 a5 14 fe ff
	ff		 mov	 DWORD PTR $T198036[ebp], esp
  00b79	8b f4		 mov	 esi, esp
  00b7b	68 00 00 00 00	 push	 OFFSET FLAT:$SG196564
  00b80	ff 15 00 00 00
	00		 call	 DWORD PTR __imp_??0?$CStringT@DV?$StrTraitMFC_DLL@DV?$ChTraitsCRT@D@ATL@@@@@ATL@@QAE@PBD@Z
  00b86	3b f4		 cmp	 esi, esp
  00b88	e8 00 00 00 00	 call	 __RTC_CheckEsp
  00b8d	89 85 ec fd ff
	ff		 mov	 DWORD PTR tv508[ebp], eax
  00b93	8b 4d f0	 mov	 ecx, DWORD PTR _this$[ebp]
  00b96	51		 push	 ecx
  00b97	8b 55 a4	 mov	 edx, DWORD PTR _pLayoutMgr$[ebp]
  00b9a	8b 02		 mov	 eax, DWORD PTR [edx]
  00b9c	8b 4d a4	 mov	 ecx, DWORD PTR _pLayoutMgr$[ebp]
  00b9f	ff 50 34	 call	 DWORD PTR [eax+52]

; 116  : 	pLayoutMgr->RegisterCtrl( this,"Large",&m_btnLarge);

  00ba2	8b 4d f0	 mov	 ecx, DWORD PTR _this$[ebp]
  00ba5	81 c1 c8 03 00
	00		 add	 ecx, 968		; 000003c8H
  00bab	51		 push	 ecx
  00bac	51		 push	 ecx
  00bad	8b cc		 mov	 ecx, esp
  00baf	89 a5 10 fe ff
	ff		 mov	 DWORD PTR $T198037[ebp], esp
  00bb5	8b f4		 mov	 esi, esp
  00bb7	68 00 00 00 00	 push	 OFFSET FLAT:$SG196566
  00bbc	ff 15 00 00 00
	00		 call	 DWORD PTR __imp_??0?$CStringT@DV?$StrTraitMFC_DLL@DV?$ChTraitsCRT@D@ATL@@@@@ATL@@QAE@PBD@Z
  00bc2	3b f4		 cmp	 esi, esp
  00bc4	e8 00 00 00 00	 call	 __RTC_CheckEsp
  00bc9	89 85 e8 fd ff
	ff		 mov	 DWORD PTR tv511[ebp], eax
  00bcf	8b 55 f0	 mov	 edx, DWORD PTR _this$[ebp]
  00bd2	52		 push	 edx
  00bd3	8b 45 a4	 mov	 eax, DWORD PTR _pLayoutMgr$[ebp]
  00bd6	8b 10		 mov	 edx, DWORD PTR [eax]
  00bd8	8b 4d a4	 mov	 ecx, DWORD PTR _pLayoutMgr$[ebp]
  00bdb	ff 52 34	 call	 DWORD PTR [edx+52]

; 117  : 	pLayoutMgr->RegisterCtrl( this,"Min",&m_btnMin);

  00bde	8b 45 f0	 mov	 eax, DWORD PTR _this$[ebp]
  00be1	83 c0 5c	 add	 eax, 92			; 0000005cH
  00be4	50		 push	 eax
  00be5	51		 push	 ecx
  00be6	8b cc		 mov	 ecx, esp
  00be8	89 a5 0c fe ff
	ff		 mov	 DWORD PTR $T198038[ebp], esp
  00bee	8b f4		 mov	 esi, esp
  00bf0	68 00 00 00 00	 push	 OFFSET FLAT:$SG196568
  00bf5	ff 15 00 00 00
	00		 call	 DWORD PTR __imp_??0?$CStringT@DV?$StrTraitMFC_DLL@DV?$ChTraitsCRT@D@ATL@@@@@ATL@@QAE@PBD@Z
  00bfb	3b f4		 cmp	 esi, esp
  00bfd	e8 00 00 00 00	 call	 __RTC_CheckEsp
  00c02	89 85 e4 fd ff
	ff		 mov	 DWORD PTR tv514[ebp], eax
  00c08	8b 4d f0	 mov	 ecx, DWORD PTR _this$[ebp]
  00c0b	51		 push	 ecx
  00c0c	8b 55 a4	 mov	 edx, DWORD PTR _pLayoutMgr$[ebp]
  00c0f	8b 02		 mov	 eax, DWORD PTR [edx]
  00c11	8b 4d a4	 mov	 ecx, DWORD PTR _pLayoutMgr$[ebp]
  00c14	ff 50 34	 call	 DWORD PTR [eax+52]

; 118  : 	pLayoutMgr->RegisterCtrl( this,"Setting",&m_btnSetting);

  00c17	8b 4d f0	 mov	 ecx, DWORD PTR _this$[ebp]
  00c1a	81 c1 ec 04 00
	00		 add	 ecx, 1260		; 000004ecH
  00c20	51		 push	 ecx
  00c21	51		 push	 ecx
  00c22	8b cc		 mov	 ecx, esp
  00c24	89 a5 08 fe ff
	ff		 mov	 DWORD PTR $T198039[ebp], esp
  00c2a	8b f4		 mov	 esi, esp
  00c2c	68 00 00 00 00	 push	 OFFSET FLAT:$SG196570
  00c31	ff 15 00 00 00
	00		 call	 DWORD PTR __imp_??0?$CStringT@DV?$StrTraitMFC_DLL@DV?$ChTraitsCRT@D@ATL@@@@@ATL@@QAE@PBD@Z
  00c37	3b f4		 cmp	 esi, esp
  00c39	e8 00 00 00 00	 call	 __RTC_CheckEsp
  00c3e	89 85 e0 fd ff
	ff		 mov	 DWORD PTR tv517[ebp], eax
  00c44	8b 55 f0	 mov	 edx, DWORD PTR _this$[ebp]
  00c47	52		 push	 edx
  00c48	8b 45 a4	 mov	 eax, DWORD PTR _pLayoutMgr$[ebp]
  00c4b	8b 10		 mov	 edx, DWORD PTR [eax]
  00c4d	8b 4d a4	 mov	 ecx, DWORD PTR _pLayoutMgr$[ebp]
  00c50	ff 52 34	 call	 DWORD PTR [edx+52]

; 119  : 	pLayoutMgr->CreateControlPane( this,"toppanel","normal");	

  00c53	51		 push	 ecx
  00c54	8b cc		 mov	 ecx, esp
  00c56	89 a5 04 fe ff
	ff		 mov	 DWORD PTR $T198040[ebp], esp
  00c5c	8b f4		 mov	 esi, esp
  00c5e	68 00 00 00 00	 push	 OFFSET FLAT:$SG196573
  00c63	ff 15 00 00 00
	00		 call	 DWORD PTR __imp_??0?$CStringT@DV?$StrTraitMFC_DLL@DV?$ChTraitsCRT@D@ATL@@@@@ATL@@QAE@PBD@Z
  00c69	3b f4		 cmp	 esi, esp
  00c6b	e8 00 00 00 00	 call	 __RTC_CheckEsp
  00c70	89 85 dc fd ff
	ff		 mov	 DWORD PTR tv542[ebp], eax
  00c76	8b 85 dc fd ff
	ff		 mov	 eax, DWORD PTR tv542[ebp]
  00c7c	89 85 d8 fd ff
	ff		 mov	 DWORD PTR tv519[ebp], eax
  00c82	c7 45 fc 0e 00
	00 00		 mov	 DWORD PTR __$EHRec$[ebp+8], 14 ; 0000000eH
  00c89	51		 push	 ecx
  00c8a	8b cc		 mov	 ecx, esp
  00c8c	89 a5 00 fe ff
	ff		 mov	 DWORD PTR $T198041[ebp], esp
  00c92	8b f4		 mov	 esi, esp
  00c94	68 00 00 00 00	 push	 OFFSET FLAT:$SG196574
  00c99	ff 15 00 00 00
	00		 call	 DWORD PTR __imp_??0?$CStringT@DV?$StrTraitMFC_DLL@DV?$ChTraitsCRT@D@ATL@@@@@ATL@@QAE@PBD@Z
  00c9f	3b f4		 cmp	 esi, esp
  00ca1	e8 00 00 00 00	 call	 __RTC_CheckEsp
  00ca6	89 85 d4 fd ff
	ff		 mov	 DWORD PTR tv522[ebp], eax
  00cac	8b 4d f0	 mov	 ecx, DWORD PTR _this$[ebp]
  00caf	51		 push	 ecx
  00cb0	8b 55 a4	 mov	 edx, DWORD PTR _pLayoutMgr$[ebp]
  00cb3	8b 02		 mov	 eax, DWORD PTR [edx]
  00cb5	c7 45 fc ff ff
	ff ff		 mov	 DWORD PTR __$EHRec$[ebp+8], -1
  00cbc	8b 4d a4	 mov	 ecx, DWORD PTR _pLayoutMgr$[ebp]
  00cbf	ff 50 38	 call	 DWORD PTR [eax+56]

; 120  : 	pLayoutMgr->CreateBmpPane( this,"toppanel","normal" );

  00cc2	51		 push	 ecx
  00cc3	8b cc		 mov	 ecx, esp
  00cc5	89 a5 fc fd ff
	ff		 mov	 DWORD PTR $T198042[ebp], esp
  00ccb	8b f4		 mov	 esi, esp
  00ccd	68 00 00 00 00	 push	 OFFSET FLAT:$SG196577
  00cd2	ff 15 00 00 00
	00		 call	 DWORD PTR __imp_??0?$CStringT@DV?$StrTraitMFC_DLL@DV?$ChTraitsCRT@D@ATL@@@@@ATL@@QAE@PBD@Z
  00cd8	3b f4		 cmp	 esi, esp
  00cda	e8 00 00 00 00	 call	 __RTC_CheckEsp
  00cdf	89 85 d0 fd ff
	ff		 mov	 DWORD PTR tv545[ebp], eax
  00ce5	8b 8d d0 fd ff
	ff		 mov	 ecx, DWORD PTR tv545[ebp]
  00ceb	89 8d cc fd ff
	ff		 mov	 DWORD PTR tv524[ebp], ecx
  00cf1	c7 45 fc 0f 00
	00 00		 mov	 DWORD PTR __$EHRec$[ebp+8], 15 ; 0000000fH
  00cf8	51		 push	 ecx
  00cf9	8b cc		 mov	 ecx, esp
  00cfb	89 a5 f8 fd ff
	ff		 mov	 DWORD PTR $T198043[ebp], esp
  00d01	8b f4		 mov	 esi, esp
  00d03	68 00 00 00 00	 push	 OFFSET FLAT:$SG196578
  00d08	ff 15 00 00 00
	00		 call	 DWORD PTR __imp_??0?$CStringT@DV?$StrTraitMFC_DLL@DV?$ChTraitsCRT@D@ATL@@@@@ATL@@QAE@PBD@Z
  00d0e	3b f4		 cmp	 esi, esp
  00d10	e8 00 00 00 00	 call	 __RTC_CheckEsp
  00d15	89 85 c8 fd ff
	ff		 mov	 DWORD PTR tv527[ebp], eax
  00d1b	8b 55 f0	 mov	 edx, DWORD PTR _this$[ebp]
  00d1e	52		 push	 edx
  00d1f	8b 45 a4	 mov	 eax, DWORD PTR _pLayoutMgr$[ebp]
  00d22	8b 10		 mov	 edx, DWORD PTR [eax]
  00d24	c7 45 fc ff ff
	ff ff		 mov	 DWORD PTR __$EHRec$[ebp+8], -1
  00d2b	8b 4d a4	 mov	 ecx, DWORD PTR _pLayoutMgr$[ebp]
  00d2e	ff 52 58	 call	 DWORD PTR [edx+88]

; 121  : 
; 122  : 	PostMessage(MSG_GETLAYOUT);

  00d31	6a 00		 push	 0
  00d33	6a 00		 push	 0
  00d35	68 66 04 00 00	 push	 1126			; 00000466H
  00d3a	8b 4d f0	 mov	 ecx, DWORD PTR _this$[ebp]
  00d3d	e8 00 00 00 00	 call	 ?PostMessageA@CWnd@@QAEHIIJ@Z ; CWnd::PostMessageA

; 123  : 	return 0;

  00d42	33 c0		 xor	 eax, eax

; 124  : }

  00d44	52		 push	 edx
  00d45	8b cd		 mov	 ecx, ebp
  00d47	50		 push	 eax
  00d48	8d 15 00 00 00
	00		 lea	 edx, DWORD PTR $L198075
  00d4e	e8 00 00 00 00	 call	 @_RTC_CheckStackVars@8
  00d53	58		 pop	 eax
  00d54	5a		 pop	 edx
  00d55	8b 4d f4	 mov	 ecx, DWORD PTR __$EHRec$[ebp]
  00d58	64 89 0d 00 00
	00 00		 mov	 DWORD PTR fs:__except_list, ecx
  00d5f	5f		 pop	 edi
  00d60	5e		 pop	 esi
  00d61	81 c4 38 02 00
	00		 add	 esp, 568		; 00000238H
  00d67	3b ec		 cmp	 ebp, esp
  00d69	e8 00 00 00 00	 call	 __RTC_CheckEsp
  00d6e	8b e5		 mov	 esp, ebp
  00d70	5d		 pop	 ebp
  00d71	c2 04 00	 ret	 4
$L198075:
  00d74	04 00 00 00	 DD	 4
  00d78	00 00 00 00	 DD	 $L198074
$L198074:
  00d7c	dc ff ff ff	 DD	 -36			; ffffffdcH
  00d80	10 00 00 00	 DD	 16			; 00000010H
  00d84	00 00 00 00	 DD	 $L198069
  00d88	c4 ff ff ff	 DD	 -60			; ffffffc4H
  00d8c	10 00 00 00	 DD	 16			; 00000010H
  00d90	00 00 00 00	 DD	 $L198070
  00d94	b8 ff ff ff	 DD	 -72			; ffffffb8H
  00d98	04 00 00 00	 DD	 4
  00d9c	00 00 00 00	 DD	 $L198071
  00da0	ac ff ff ff	 DD	 -84			; ffffffacH
  00da4	04 00 00 00	 DD	 4
  00da8	00 00 00 00	 DD	 $L198072
$L198072:
  00dac	6d		 DB	 109			; 0000006dH
  00dad	69		 DB	 105			; 00000069H
  00dae	6e		 DB	 110			; 0000006eH
  00daf	63		 DB	 99			; 00000063H
  00db0	79		 DB	 121			; 00000079H
  00db1	00		 DB	 0
$L198071:
  00db2	6d		 DB	 109			; 0000006dH
  00db3	69		 DB	 105			; 00000069H
  00db4	6e		 DB	 110			; 0000006eH
  00db5	63		 DB	 99			; 00000063H
  00db6	78		 DB	 120			; 00000078H
  00db7	00		 DB	 0
$L198070:
  00db8	72		 DB	 114			; 00000072H
  00db9	00		 DB	 0
$L198069:
  00dba	72		 DB	 114			; 00000072H
  00dbb	65		 DB	 101			; 00000065H
  00dbc	63		 DB	 99			; 00000063H
  00dbd	74		 DB	 116			; 00000074H
  00dbe	4e		 DB	 78			; 0000004eH
  00dbf	55		 DB	 85			; 00000055H
  00dc0	4c		 DB	 76			; 0000004cH
  00dc1	4c		 DB	 76			; 0000004cH
  00dc2	00		 DB	 0
_TEXT	ENDS
text$x	SEGMENT
$L198044:
  00186	8b f4		 mov	 esi, esp
  00188	8d 4d 88	 lea	 ecx, DWORD PTR $T198021[ebp]
  0018b	ff 15 00 00 00
	00		 call	 DWORD PTR __imp_??1?$basic_string@DU?$char_traits@D@std@@V?$allocator@D@2@@std@@QAE@XZ
  00191	3b f4		 cmp	 esi, esp
  00193	e9 00 00 00 00	 jmp	 __RTC_CheckEsp
$L198045:
  00198	8b f4		 mov	 esi, esp
  0019a	8d 8d 6c ff ff
	ff		 lea	 ecx, DWORD PTR $T198022[ebp]
  001a0	ff 15 00 00 00
	00		 call	 DWORD PTR __imp_??1?$basic_string@DU?$char_traits@D@std@@V?$allocator@D@2@@std@@QAE@XZ
  001a6	3b f4		 cmp	 esi, esp
  001a8	e9 00 00 00 00	 jmp	 __RTC_CheckEsp
$L198046:
  001ad	8b f4		 mov	 esi, esp
  001af	8d 8d 50 ff ff
	ff		 lea	 ecx, DWORD PTR $T198023[ebp]
  001b5	ff 15 00 00 00
	00		 call	 DWORD PTR __imp_??1?$basic_string@DU?$char_traits@D@std@@V?$allocator@D@2@@std@@QAE@XZ
  001bb	3b f4		 cmp	 esi, esp
  001bd	e9 00 00 00 00	 jmp	 __RTC_CheckEsp
$L198047:
  001c2	8b f4		 mov	 esi, esp
  001c4	8d 8d 34 ff ff
	ff		 lea	 ecx, DWORD PTR $T198024[ebp]
  001ca	ff 15 00 00 00
	00		 call	 DWORD PTR __imp_??1?$basic_string@DU?$char_traits@D@std@@V?$allocator@D@2@@std@@QAE@XZ
  001d0	3b f4		 cmp	 esi, esp
  001d2	e9 00 00 00 00	 jmp	 __RTC_CheckEsp
$L198048:
  001d7	8b f4		 mov	 esi, esp
  001d9	8d 8d 18 ff ff
	ff		 lea	 ecx, DWORD PTR $T198025[ebp]
  001df	ff 15 00 00 00
	00		 call	 DWORD PTR __imp_??1?$basic_string@DU?$char_traits@D@std@@V?$allocator@D@2@@std@@QAE@XZ
  001e5	3b f4		 cmp	 esi, esp
  001e7	e9 00 00 00 00	 jmp	 __RTC_CheckEsp
$L198049:
  001ec	8b f4		 mov	 esi, esp
  001ee	8d 8d fc fe ff
	ff		 lea	 ecx, DWORD PTR $T198026[ebp]
  001f4	ff 15 00 00 00
	00		 call	 DWORD PTR __imp_??1?$basic_string@DU?$char_traits@D@std@@V?$allocator@D@2@@std@@QAE@XZ
  001fa	3b f4		 cmp	 esi, esp
  001fc	e9 00 00 00 00	 jmp	 __RTC_CheckEsp
$L198050:
  00201	8b f4		 mov	 esi, esp
  00203	8d 8d e0 fe ff
	ff		 lea	 ecx, DWORD PTR $T198027[ebp]
  00209	ff 15 00 00 00
	00		 call	 DWORD PTR __imp_??1?$basic_string@DU?$char_traits@D@std@@V?$allocator@D@2@@std@@QAE@XZ
  0020f	3b f4		 cmp	 esi, esp
  00211	e9 00 00 00 00	 jmp	 __RTC_CheckEsp
$L198051:
  00216	8b f4		 mov	 esi, esp
  00218	8d 8d c4 fe ff
	ff		 lea	 ecx, DWORD PTR $T198028[ebp]
  0021e	ff 15 00 00 00
	00		 call	 DWORD PTR __imp_??1?$basic_string@DU?$char_traits@D@std@@V?$allocator@D@2@@std@@QAE@XZ
  00224	3b f4		 cmp	 esi, esp
  00226	e9 00 00 00 00	 jmp	 __RTC_CheckEsp
$L198052:
  0022b	8b f4		 mov	 esi, esp
  0022d	8d 8d a8 fe ff
	ff		 lea	 ecx, DWORD PTR $T198029[ebp]
  00233	ff 15 00 00 00
	00		 call	 DWORD PTR __imp_??1?$basic_string@DU?$char_traits@D@std@@V?$allocator@D@2@@std@@QAE@XZ
  00239	3b f4		 cmp	 esi, esp
  0023b	e9 00 00 00 00	 jmp	 __RTC_CheckEsp
$L198053:
  00240	8b f4		 mov	 esi, esp
  00242	8d 8d 8c fe ff
	ff		 lea	 ecx, DWORD PTR $T198030[ebp]
  00248	ff 15 00 00 00
	00		 call	 DWORD PTR __imp_??1?$basic_string@DU?$char_traits@D@std@@V?$allocator@D@2@@std@@QAE@XZ
  0024e	3b f4		 cmp	 esi, esp
  00250	e9 00 00 00 00	 jmp	 __RTC_CheckEsp
$L198054:
  00255	8b f4		 mov	 esi, esp
  00257	8d 8d 70 fe ff
	ff		 lea	 ecx, DWORD PTR $T198031[ebp]
  0025d	ff 15 00 00 00
	00		 call	 DWORD PTR __imp_??1?$basic_string@DU?$char_traits@D@std@@V?$allocator@D@2@@std@@QAE@XZ
  00263	3b f4		 cmp	 esi, esp
  00265	e9 00 00 00 00	 jmp	 __RTC_CheckEsp
$L198055:
  0026a	8b f4		 mov	 esi, esp
  0026c	8d 8d 54 fe ff
	ff		 lea	 ecx, DWORD PTR $T198032[ebp]
  00272	ff 15 00 00 00
	00		 call	 DWORD PTR __imp_??1?$basic_string@DU?$char_traits@D@std@@V?$allocator@D@2@@std@@QAE@XZ
  00278	3b f4		 cmp	 esi, esp
  0027a	e9 00 00 00 00	 jmp	 __RTC_CheckEsp
$L198056:
  0027f	8b f4		 mov	 esi, esp
  00281	8d 8d 38 fe ff
	ff		 lea	 ecx, DWORD PTR $T198033[ebp]
  00287	ff 15 00 00 00
	00		 call	 DWORD PTR __imp_??1?$basic_string@DU?$char_traits@D@std@@V?$allocator@D@2@@std@@QAE@XZ
  0028d	3b f4		 cmp	 esi, esp
  0028f	e9 00 00 00 00	 jmp	 __RTC_CheckEsp
$L198057:
  00294	8b f4		 mov	 esi, esp
  00296	8d 8d 1c fe ff
	ff		 lea	 ecx, DWORD PTR $T198034[ebp]
  0029c	ff 15 00 00 00
	00		 call	 DWORD PTR __imp_??1?$basic_string@DU?$char_traits@D@std@@V?$allocator@D@2@@std@@QAE@XZ
  002a2	3b f4		 cmp	 esi, esp
  002a4	e9 00 00 00 00	 jmp	 __RTC_CheckEsp
$L198063:
  002a9	8b f4		 mov	 esi, esp
  002ab	8b 8d 04 fe ff
	ff		 mov	 ecx, DWORD PTR $T198040[ebp]
  002b1	ff 15 00 00 00
	00		 call	 DWORD PTR __imp_??1?$CStringT@DV?$StrTraitMFC_DLL@DV?$ChTraitsCRT@D@ATL@@@@@ATL@@QAE@XZ
  002b7	3b f4		 cmp	 esi, esp
  002b9	e9 00 00 00 00	 jmp	 __RTC_CheckEsp
$L198065:
  002be	8b f4		 mov	 esi, esp
  002c0	8b 8d fc fd ff
	ff		 mov	 ecx, DWORD PTR $T198042[ebp]
  002c6	ff 15 00 00 00
	00		 call	 DWORD PTR __imp_??1?$CStringT@DV?$StrTraitMFC_DLL@DV?$ChTraitsCRT@D@ATL@@@@@ATL@@QAE@XZ
  002cc	3b f4		 cmp	 esi, esp
  002ce	e9 00 00 00 00	 jmp	 __RTC_CheckEsp
__ehhandler$?OnCreate@CTopPanelWnd@@IAEHPAUtagCREATESTRUCTA@@@Z:
  002d3	b8 00 00 00 00	 mov	 eax, OFFSET FLAT:$T198068
  002d8	e9 00 00 00 00	 jmp	 ___CxxFrameHandler
text$x	ENDS
?OnCreate@CTopPanelWnd@@IAEHPAUtagCREATESTRUCTA@@@Z ENDP ; CTopPanelWnd::OnCreate
; Function compile flags: /Odt /RTCsu
; File d:\boxgit\playbox\playbox\dev\prj\playbox\src\module\toppanel\toppanel_control.h
;	COMDAT ?SetTopPanel@CTopPanelControl@@QAEXPAVCTopPanelWnd@@@Z
_TEXT	SEGMENT
_this$ = -4						; size = 4
_pWnd$ = 8						; size = 4
?SetTopPanel@CTopPanelControl@@QAEXPAVCTopPanelWnd@@@Z PROC NEAR ; CTopPanelControl::SetTopPanel, COMDAT
; _this$ = ecx

; 26   : 	void				SetTopPanel(CTopPanelWnd* pWnd){m_pWndTopPanel = pWnd;};

  00000	55		 push	 ebp
  00001	8b ec		 mov	 ebp, esp
  00003	51		 push	 ecx
  00004	c7 45 fc cc cc
	cc cc		 mov	 DWORD PTR [ebp-4], -858993460 ; ccccccccH
  0000b	89 4d fc	 mov	 DWORD PTR _this$[ebp], ecx
  0000e	8b 45 fc	 mov	 eax, DWORD PTR _this$[ebp]
  00011	8b 4d 08	 mov	 ecx, DWORD PTR _pWnd$[ebp]
  00014	89 08		 mov	 DWORD PTR [eax], ecx
  00016	8b e5		 mov	 esp, ebp
  00018	5d		 pop	 ebp
  00019	c2 04 00	 ret	 4
?SetTopPanel@CTopPanelControl@@QAEXPAVCTopPanelWnd@@@Z ENDP ; CTopPanelControl::SetTopPanel
_TEXT	ENDS
EXTRN	?AfxGetMainWindow@@YAPAVCWnd@@XZ:NEAR		; AfxGetMainWindow
EXTRN	__imp__MoveWindow@24:NEAR
EXTRN	?ShowWindow@CWnd@@QAEHH@Z:NEAR			; CWnd::ShowWindow
xdata$x	SEGMENT
$T198090 DD	0ffffffffH
	DD	FLAT:$L198083
	DD	0ffffffffH
	DD	FLAT:$L198085
$T198088 DD	019930520H
	DD	02H
	DD	FLAT:$T198090
	DD	2 DUP(00H)
	DD	2 DUP(00H)
; Function compile flags: /Odt /RTCsu
; File d:\boxgit\playbox\playbox\dev\prj\playbox\src\module\toppanel\toppanelwnd.cpp
xdata$x	ENDS
_TEXT	SEGMENT
tv210 = -64						; size = 4
tv207 = -60						; size = 4
tv214 = -56						; size = 4
tv205 = -52						; size = 4
tv202 = -48						; size = 4
tv211 = -44						; size = 4
tv66 = -40						; size = 4
$T198082 = -36						; size = 4
$T198081 = -32						; size = 4
$T198080 = -28						; size = 4
$T198079 = -24						; size = 4
_pLayoutMgr$ = -20					; size = 4
_this$ = -16						; size = 4
__$EHRec$ = -12						; size = 12
_wParam$ = 8						; size = 4
_lParam$ = 12						; size = 4
?OnGetLayout@CTopPanelWnd@@IAEJIJ@Z PROC NEAR		; CTopPanelWnd::OnGetLayout
; _this$ = ecx

; 127  : {

  00dd0	55		 push	 ebp
  00dd1	8b ec		 mov	 ebp, esp
  00dd3	6a ff		 push	 -1
  00dd5	68 00 00 00 00	 push	 __ehhandler$?OnGetLayout@CTopPanelWnd@@IAEJIJ@Z
  00dda	64 a1 00 00 00
	00		 mov	 eax, DWORD PTR fs:__except_list
  00de0	50		 push	 eax
  00de1	64 89 25 00 00
	00 00		 mov	 DWORD PTR fs:__except_list, esp
  00de8	83 ec 34	 sub	 esp, 52			; 00000034H
  00deb	56		 push	 esi
  00dec	57		 push	 edi
  00ded	51		 push	 ecx
  00dee	8d 7d c0	 lea	 edi, DWORD PTR [ebp-64]
  00df1	b9 0d 00 00 00	 mov	 ecx, 13			; 0000000dH
  00df6	b8 cc cc cc cc	 mov	 eax, -858993460		; ccccccccH
  00dfb	f3 ab		 rep stosd
  00dfd	59		 pop	 ecx
  00dfe	89 4d f0	 mov	 DWORD PTR _this$[ebp], ecx

; 128  : 	ILayoutMgr* pLayoutMgr =  AfxGetUIManager()->UIGetLayoutMgr();

  00e01	e8 00 00 00 00	 call	 ?AfxGetUIManager@@YAPAVIUIManager@@XZ ; AfxGetUIManager
  00e06	89 45 d8	 mov	 DWORD PTR tv66[ebp], eax
  00e09	8b 45 d8	 mov	 eax, DWORD PTR tv66[ebp]
  00e0c	8b 10		 mov	 edx, DWORD PTR [eax]
  00e0e	8b f4		 mov	 esi, esp
  00e10	8b 4d d8	 mov	 ecx, DWORD PTR tv66[ebp]
  00e13	ff 52 24	 call	 DWORD PTR [edx+36]
  00e16	3b f4		 cmp	 esi, esp
  00e18	e8 00 00 00 00	 call	 __RTC_CheckEsp
  00e1d	89 45 ec	 mov	 DWORD PTR _pLayoutMgr$[ebp], eax

; 129  : 	if( m_bNormal)

  00e20	8b 45 f0	 mov	 eax, DWORD PTR _this$[ebp]
  00e23	0f b6 88 10 06
	00 00		 movzx	 ecx, BYTE PTR [eax+1552]
  00e2a	85 c9		 test	 ecx, ecx
  00e2c	0f 84 cc 00 00
	00		 je	 $L196585

; 130  : 	{
; 131  : 		if (!m_bHideMainWindow)

  00e32	8b 55 f0	 mov	 edx, DWORD PTR _this$[ebp]
  00e35	0f b6 82 68 06
	00 00		 movzx	 eax, BYTE PTR [edx+1640]
  00e3c	85 c0		 test	 eax, eax
  00e3e	75 10		 jne	 SHORT $L196586

; 132  : 		{
; 133  : 			AfxGetMainWindow()->ShowWindow(SW_SHOW);

  00e40	6a 05		 push	 5
  00e42	e8 00 00 00 00	 call	 ?AfxGetMainWindow@@YAPAVCWnd@@XZ ; AfxGetMainWindow
  00e47	8b c8		 mov	 ecx, eax
  00e49	e8 00 00 00 00	 call	 ?ShowWindow@CWnd@@QAEHH@Z ; CWnd::ShowWindow

; 134  : 		}else{

  00e4e	eb 0a		 jmp	 SHORT $L196587
$L196586:

; 135  : 			m_bHideMainWindow=FALSE;

  00e50	8b 4d f0	 mov	 ecx, DWORD PTR _this$[ebp]
  00e53	c6 81 68 06 00
	00 00		 mov	 BYTE PTR [ecx+1640], 0
$L196587:

; 136  : 		}
; 137  : 		pLayoutMgr->ShowLayer( s_STRBUTTONLAYER, s_STRBUTTON_LARGE );

  00e5a	51		 push	 ecx
  00e5b	8b cc		 mov	 ecx, esp
  00e5d	89 65 e8	 mov	 DWORD PTR $T198079[ebp], esp
  00e60	8b f4		 mov	 esi, esp
  00e62	8b 15 00 00 00
	00		 mov	 edx, DWORD PTR _s_STRBUTTON_LARGE
  00e68	52		 push	 edx
  00e69	ff 15 00 00 00
	00		 call	 DWORD PTR __imp_??0?$CStringT@DV?$StrTraitMFC_DLL@DV?$ChTraitsCRT@D@ATL@@@@@ATL@@QAE@PBD@Z
  00e6f	3b f4		 cmp	 esi, esp
  00e71	e8 00 00 00 00	 call	 __RTC_CheckEsp
  00e76	89 45 d4	 mov	 DWORD PTR tv211[ebp], eax
  00e79	8b 45 d4	 mov	 eax, DWORD PTR tv211[ebp]
  00e7c	89 45 d0	 mov	 DWORD PTR tv202[ebp], eax
  00e7f	c7 45 fc 00 00
	00 00		 mov	 DWORD PTR __$EHRec$[ebp+8], 0
  00e86	51		 push	 ecx
  00e87	8b cc		 mov	 ecx, esp
  00e89	89 65 e4	 mov	 DWORD PTR $T198080[ebp], esp
  00e8c	8b f4		 mov	 esi, esp
  00e8e	8b 15 00 00 00
	00		 mov	 edx, DWORD PTR _s_STRBUTTONLAYER
  00e94	52		 push	 edx
  00e95	ff 15 00 00 00
	00		 call	 DWORD PTR __imp_??0?$CStringT@DV?$StrTraitMFC_DLL@DV?$ChTraitsCRT@D@ATL@@@@@ATL@@QAE@PBD@Z
  00e9b	3b f4		 cmp	 esi, esp
  00e9d	e8 00 00 00 00	 call	 __RTC_CheckEsp
  00ea2	89 45 cc	 mov	 DWORD PTR tv205[ebp], eax
  00ea5	8b 45 ec	 mov	 eax, DWORD PTR _pLayoutMgr$[ebp]
  00ea8	8b 10		 mov	 edx, DWORD PTR [eax]
  00eaa	c7 45 fc ff ff
	ff ff		 mov	 DWORD PTR __$EHRec$[ebp+8], -1
  00eb1	8b 4d ec	 mov	 ecx, DWORD PTR _pLayoutMgr$[ebp]
  00eb4	ff 52 24	 call	 DWORD PTR [edx+36]

; 138  : 		::MoveWindow( AfxGetMainWindow()->m_hWnd,m_iXPos,m_iYPos,m_iWndNormalWidth,m_iWndNormalHeigth,TRUE);

  00eb7	8b f4		 mov	 esi, esp
  00eb9	6a 01		 push	 1
  00ebb	8b 45 f0	 mov	 eax, DWORD PTR _this$[ebp]
  00ebe	8b 88 28 06 00
	00		 mov	 ecx, DWORD PTR [eax+1576]
  00ec4	51		 push	 ecx
  00ec5	8b 55 f0	 mov	 edx, DWORD PTR _this$[ebp]
  00ec8	8b 82 24 06 00
	00		 mov	 eax, DWORD PTR [edx+1572]
  00ece	50		 push	 eax
  00ecf	8b 4d f0	 mov	 ecx, DWORD PTR _this$[ebp]
  00ed2	8b 91 20 06 00
	00		 mov	 edx, DWORD PTR [ecx+1568]
  00ed8	52		 push	 edx
  00ed9	8b 45 f0	 mov	 eax, DWORD PTR _this$[ebp]
  00edc	8b 88 1c 06 00
	00		 mov	 ecx, DWORD PTR [eax+1564]
  00ee2	51		 push	 ecx
  00ee3	e8 00 00 00 00	 call	 ?AfxGetMainWindow@@YAPAVCWnd@@XZ ; AfxGetMainWindow
  00ee8	8b 50 20	 mov	 edx, DWORD PTR [eax+32]
  00eeb	52		 push	 edx
  00eec	ff 15 00 00 00
	00		 call	 DWORD PTR __imp__MoveWindow@24
  00ef2	3b f4		 cmp	 esi, esp
  00ef4	e8 00 00 00 00	 call	 __RTC_CheckEsp

; 139  : 	}
; 140  : 	else

  00ef9	e9 b6 00 00 00	 jmp	 $L196590
$L196585:

; 141  : 	{
; 142  : 		if (!m_bHideMainWindow)

  00efe	8b 45 f0	 mov	 eax, DWORD PTR _this$[ebp]
  00f01	0f b6 88 68 06
	00 00		 movzx	 ecx, BYTE PTR [eax+1640]
  00f08	85 c9		 test	 ecx, ecx
  00f0a	75 10		 jne	 SHORT $L196591

; 143  : 		{
; 144  : 			AfxGetMainWindow()->ShowWindow(SW_SHOW);

  00f0c	6a 05		 push	 5
  00f0e	e8 00 00 00 00	 call	 ?AfxGetMainWindow@@YAPAVCWnd@@XZ ; AfxGetMainWindow
  00f13	8b c8		 mov	 ecx, eax
  00f15	e8 00 00 00 00	 call	 ?ShowWindow@CWnd@@QAEHH@Z ; CWnd::ShowWindow

; 145  : 		}else

  00f1a	eb 0a		 jmp	 SHORT $L196592
$L196591:

; 146  : 		{
; 147  : 			m_bHideMainWindow=FALSE;

  00f1c	8b 55 f0	 mov	 edx, DWORD PTR _this$[ebp]
  00f1f	c6 82 68 06 00
	00 00		 mov	 BYTE PTR [edx+1640], 0
$L196592:

; 148  : 		}
; 149  : 		pLayoutMgr->ShowLayer( s_STRBUTTONLAYER, s_STRBUTTON_NORMAL );

  00f26	51		 push	 ecx
  00f27	8b cc		 mov	 ecx, esp
  00f29	89 65 e0	 mov	 DWORD PTR $T198081[ebp], esp
  00f2c	8b f4		 mov	 esi, esp
  00f2e	a1 00 00 00 00	 mov	 eax, DWORD PTR _s_STRBUTTON_NORMAL
  00f33	50		 push	 eax
  00f34	ff 15 00 00 00
	00		 call	 DWORD PTR __imp_??0?$CStringT@DV?$StrTraitMFC_DLL@DV?$ChTraitsCRT@D@ATL@@@@@ATL@@QAE@PBD@Z
  00f3a	3b f4		 cmp	 esi, esp
  00f3c	e8 00 00 00 00	 call	 __RTC_CheckEsp
  00f41	89 45 c8	 mov	 DWORD PTR tv214[ebp], eax
  00f44	8b 4d c8	 mov	 ecx, DWORD PTR tv214[ebp]
  00f47	89 4d c4	 mov	 DWORD PTR tv207[ebp], ecx
  00f4a	c7 45 fc 01 00
	00 00		 mov	 DWORD PTR __$EHRec$[ebp+8], 1
  00f51	51		 push	 ecx
  00f52	8b cc		 mov	 ecx, esp
  00f54	89 65 dc	 mov	 DWORD PTR $T198082[ebp], esp
  00f57	8b f4		 mov	 esi, esp
  00f59	8b 15 00 00 00
	00		 mov	 edx, DWORD PTR _s_STRBUTTONLAYER
  00f5f	52		 push	 edx
  00f60	ff 15 00 00 00
	00		 call	 DWORD PTR __imp_??0?$CStringT@DV?$StrTraitMFC_DLL@DV?$ChTraitsCRT@D@ATL@@@@@ATL@@QAE@PBD@Z
  00f66	3b f4		 cmp	 esi, esp
  00f68	e8 00 00 00 00	 call	 __RTC_CheckEsp
  00f6d	89 45 c0	 mov	 DWORD PTR tv210[ebp], eax
  00f70	8b 45 ec	 mov	 eax, DWORD PTR _pLayoutMgr$[ebp]
  00f73	8b 10		 mov	 edx, DWORD PTR [eax]
  00f75	c7 45 fc ff ff
	ff ff		 mov	 DWORD PTR __$EHRec$[ebp+8], -1
  00f7c	8b 4d ec	 mov	 ecx, DWORD PTR _pLayoutMgr$[ebp]
  00f7f	ff 52 24	 call	 DWORD PTR [edx+36]

; 150  : 		::MoveWindow( AfxGetMainWindow()->m_hWnd,0,0,m_iDesktopWidth,m_iDesktopHeight,TRUE);

  00f82	8b f4		 mov	 esi, esp
  00f84	6a 01		 push	 1
  00f86	8b 45 f0	 mov	 eax, DWORD PTR _this$[ebp]
  00f89	8b 88 18 06 00
	00		 mov	 ecx, DWORD PTR [eax+1560]
  00f8f	51		 push	 ecx
  00f90	8b 55 f0	 mov	 edx, DWORD PTR _this$[ebp]
  00f93	8b 82 14 06 00
	00		 mov	 eax, DWORD PTR [edx+1556]
  00f99	50		 push	 eax
  00f9a	6a 00		 push	 0
  00f9c	6a 00		 push	 0
  00f9e	e8 00 00 00 00	 call	 ?AfxGetMainWindow@@YAPAVCWnd@@XZ ; AfxGetMainWindow
  00fa3	8b 48 20	 mov	 ecx, DWORD PTR [eax+32]
  00fa6	51		 push	 ecx
  00fa7	ff 15 00 00 00
	00		 call	 DWORD PTR __imp__MoveWindow@24
  00fad	3b f4		 cmp	 esi, esp
  00faf	e8 00 00 00 00	 call	 __RTC_CheckEsp
$L196590:

; 151  : 	}
; 152  : 	return 0;

  00fb4	33 c0		 xor	 eax, eax

; 153  : }

  00fb6	8b 4d f4	 mov	 ecx, DWORD PTR __$EHRec$[ebp]
  00fb9	64 89 0d 00 00
	00 00		 mov	 DWORD PTR fs:__except_list, ecx
  00fc0	5f		 pop	 edi
  00fc1	5e		 pop	 esi
  00fc2	83 c4 40	 add	 esp, 64			; 00000040H
  00fc5	3b ec		 cmp	 ebp, esp
  00fc7	e8 00 00 00 00	 call	 __RTC_CheckEsp
  00fcc	8b e5		 mov	 esp, ebp
  00fce	5d		 pop	 ebp
  00fcf	c2 08 00	 ret	 8
_TEXT	ENDS
text$x	SEGMENT
$L198083:
  002dd	8b f4		 mov	 esi, esp
  002df	8b 4d e8	 mov	 ecx, DWORD PTR $T198079[ebp]
  002e2	ff 15 00 00 00
	00		 call	 DWORD PTR __imp_??1?$CStringT@DV?$StrTraitMFC_DLL@DV?$ChTraitsCRT@D@ATL@@@@@ATL@@QAE@XZ
  002e8	3b f4		 cmp	 esi, esp
  002ea	e9 00 00 00 00	 jmp	 __RTC_CheckEsp
$L198085:
  002ef	8b f4		 mov	 esi, esp
  002f1	8b 4d e0	 mov	 ecx, DWORD PTR $T198081[ebp]
  002f4	ff 15 00 00 00
	00		 call	 DWORD PTR __imp_??1?$CStringT@DV?$StrTraitMFC_DLL@DV?$ChTraitsCRT@D@ATL@@@@@ATL@@QAE@XZ
  002fa	3b f4		 cmp	 esi, esp
  002fc	e9 00 00 00 00	 jmp	 __RTC_CheckEsp
__ehhandler$?OnGetLayout@CTopPanelWnd@@IAEJIJ@Z:
  00301	b8 00 00 00 00	 mov	 eax, OFFSET FLAT:$T198088
  00306	e9 00 00 00 00	 jmp	 ___CxxFrameHandler
text$x	ENDS
?OnGetLayout@CTopPanelWnd@@IAEJIJ@Z ENDP		; CTopPanelWnd::OnGetLayout
EXTRN	??0CRect@@QAE@XZ:NEAR				; CRect::CRect
EXTRN	??BCRect@@QAEPAUtagRECT@@XZ:NEAR		; CRect::operator tagRECT *
EXTRN	?SetConfigIntValue@AfxUserConfig@@QAEXABV?$basic_string@DU?$char_traits@D@std@@V?$allocator@D@2@@std@@0H_N@Z:NEAR ; AfxUserConfig::SetConfigIntValue
EXTRN	?GetWindowRect@CWnd@@QBEXPAUtagRECT@@@Z:NEAR	; CWnd::GetWindowRect
xdata$x	SEGMENT
$T198114 DD	0ffffffffH
	DD	FLAT:$L198100
	DD	00H
	DD	FLAT:$L198101
	DD	0ffffffffH
	DD	FLAT:$L198102
	DD	02H
	DD	FLAT:$L198103
	DD	0ffffffffH
	DD	FLAT:$L198104
	DD	04H
	DD	FLAT:$L198105
	DD	0ffffffffH
	DD	FLAT:$L198106
	DD	06H
	DD	FLAT:$L198107
$T198109 DD	019930520H
	DD	08H
	DD	FLAT:$T198114
	DD	2 DUP(00H)
	DD	2 DUP(00H)
; Function compile flags: /Odt /RTCsu
xdata$x	ENDS
_TEXT	SEGMENT
$T198099 = -264						; size = 28
$T198098 = -236						; size = 28
$T198097 = -208						; size = 28
$T198096 = -180						; size = 28
$T198095 = -152						; size = 28
$T198094 = -124						; size = 28
$T198093 = -96						; size = 28
$T198092 = -68						; size = 28
_rectWnd$196601 = -36					; size = 16
_this$ = -16						; size = 4
__$EHRec$ = -12						; size = 12
_wParam$ = 8						; size = 4
_lParam$ = 12						; size = 4
?OnSaveLayout@CTopPanelWnd@@IAEJIJ@Z PROC NEAR		; CTopPanelWnd::OnSaveLayout
; _this$ = ecx

; 156  : {

  00fe0	55		 push	 ebp
  00fe1	8b ec		 mov	 ebp, esp
  00fe3	6a ff		 push	 -1
  00fe5	68 00 00 00 00	 push	 __ehhandler$?OnSaveLayout@CTopPanelWnd@@IAEJIJ@Z
  00fea	64 a1 00 00 00
	00		 mov	 eax, DWORD PTR fs:__except_list
  00ff0	50		 push	 eax
  00ff1	64 89 25 00 00
	00 00		 mov	 DWORD PTR fs:__except_list, esp
  00ff8	81 ec fc 00 00
	00		 sub	 esp, 252		; 000000fcH
  00ffe	56		 push	 esi
  00fff	57		 push	 edi
  01000	51		 push	 ecx
  01001	8d bd f8 fe ff
	ff		 lea	 edi, DWORD PTR [ebp-264]
  01007	b9 3f 00 00 00	 mov	 ecx, 63			; 0000003fH
  0100c	b8 cc cc cc cc	 mov	 eax, -858993460		; ccccccccH
  01011	f3 ab		 rep stosd
  01013	59		 pop	 ecx
  01014	89 4d f0	 mov	 DWORD PTR _this$[ebp], ecx

; 157  : 	if( m_bNormal )

  01017	8b 45 f0	 mov	 eax, DWORD PTR _this$[ebp]
  0101a	0f b6 88 10 06
	00 00		 movzx	 ecx, BYTE PTR [eax+1552]
  01021	85 c9		 test	 ecx, ecx
  01023	74 53		 je	 SHORT $L196600

; 158  : 	{
; 159  : 		CRect rectWnd;

  01025	8d 4d dc	 lea	 ecx, DWORD PTR _rectWnd$196601[ebp]
  01028	e8 00 00 00 00	 call	 ??0CRect@@QAE@XZ	; CRect::CRect

; 160  : 		AfxGetMainWindow()->GetWindowRect(rectWnd);

  0102d	8d 4d dc	 lea	 ecx, DWORD PTR _rectWnd$196601[ebp]
  01030	e8 00 00 00 00	 call	 ??BCRect@@QAEPAUtagRECT@@XZ ; CRect::operator tagRECT *
  01035	50		 push	 eax
  01036	e8 00 00 00 00	 call	 ?AfxGetMainWindow@@YAPAVCWnd@@XZ ; AfxGetMainWindow
  0103b	8b c8		 mov	 ecx, eax
  0103d	e8 00 00 00 00	 call	 ?GetWindowRect@CWnd@@QBEXPAUtagRECT@@@Z ; CWnd::GetWindowRect

; 161  : 
; 162  : 		m_iXPos	= rectWnd.left;

  01042	8b 55 f0	 mov	 edx, DWORD PTR _this$[ebp]
  01045	8b 45 dc	 mov	 eax, DWORD PTR _rectWnd$196601[ebp]
  01048	89 82 1c 06 00
	00		 mov	 DWORD PTR [edx+1564], eax

; 163  : 		m_iYPos	= rectWnd.top;

  0104e	8b 4d f0	 mov	 ecx, DWORD PTR _this$[ebp]
  01051	8b 55 e0	 mov	 edx, DWORD PTR _rectWnd$196601[ebp+4]
  01054	89 91 20 06 00
	00		 mov	 DWORD PTR [ecx+1568], edx

; 164  : 		m_iWndNormalWidth	= rectWnd.right - rectWnd.left;

  0105a	8b 45 e4	 mov	 eax, DWORD PTR _rectWnd$196601[ebp+8]
  0105d	2b 45 dc	 sub	 eax, DWORD PTR _rectWnd$196601[ebp]
  01060	8b 4d f0	 mov	 ecx, DWORD PTR _this$[ebp]
  01063	89 81 24 06 00
	00		 mov	 DWORD PTR [ecx+1572], eax

; 165  : 		m_iWndNormalHeigth	= rectWnd.bottom - rectWnd.top;

  01069	8b 55 e8	 mov	 edx, DWORD PTR _rectWnd$196601[ebp+12]
  0106c	2b 55 e0	 sub	 edx, DWORD PTR _rectWnd$196601[ebp+4]
  0106f	8b 45 f0	 mov	 eax, DWORD PTR _this$[ebp]
  01072	89 90 28 06 00
	00		 mov	 DWORD PTR [eax+1576], edx
$L196600:

; 166  : 	}
; 167  : 
; 168  : 	if(m_iXPos<0 || m_iYPos<0 || m_iWndNormalWidth < 0 || m_iWndNormalHeigth<0 
; 169  : 		|| m_iWndNormalWidth < m_mincx || m_iWndNormalHeigth < m_mincy )

  01078	8b 4d f0	 mov	 ecx, DWORD PTR _this$[ebp]
  0107b	83 b9 1c 06 00
	00 00		 cmp	 DWORD PTR [ecx+1564], 0
  01082	7c 4c		 jl	 SHORT $L196603
  01084	8b 55 f0	 mov	 edx, DWORD PTR _this$[ebp]
  01087	83 ba 20 06 00
	00 00		 cmp	 DWORD PTR [edx+1568], 0
  0108e	7c 40		 jl	 SHORT $L196603
  01090	8b 45 f0	 mov	 eax, DWORD PTR _this$[ebp]
  01093	83 b8 24 06 00
	00 00		 cmp	 DWORD PTR [eax+1572], 0
  0109a	7c 34		 jl	 SHORT $L196603
  0109c	8b 4d f0	 mov	 ecx, DWORD PTR _this$[ebp]
  0109f	83 b9 28 06 00
	00 00		 cmp	 DWORD PTR [ecx+1576], 0
  010a6	7c 28		 jl	 SHORT $L196603
  010a8	8b 55 f0	 mov	 edx, DWORD PTR _this$[ebp]
  010ab	8b 45 f0	 mov	 eax, DWORD PTR _this$[ebp]
  010ae	8b 8a 24 06 00
	00		 mov	 ecx, DWORD PTR [edx+1572]
  010b4	3b 88 60 06 00
	00		 cmp	 ecx, DWORD PTR [eax+1632]
  010ba	7c 14		 jl	 SHORT $L196603
  010bc	8b 55 f0	 mov	 edx, DWORD PTR _this$[ebp]
  010bf	8b 45 f0	 mov	 eax, DWORD PTR _this$[ebp]
  010c2	8b 8a 28 06 00
	00		 mov	 ecx, DWORD PTR [edx+1576]
  010c8	3b 88 64 06 00
	00		 cmp	 ecx, DWORD PTR [eax+1636]
  010ce	7d 07		 jge	 SHORT $L196602
$L196603:

; 170  : 		return 0;

  010d0	33 c0		 xor	 eax, eax
  010d2	e9 5b 02 00 00	 jmp	 $L196599
$L196602:

; 171  : 
; 172  : 	AfxGetUserConfig()->SetConfigIntValue( CONF_LAYOUT_MODULE_NAME,CONF_LAYOUT_HEIGHT,m_iWndNormalHeigth);

  010d7	8b f4		 mov	 esi, esp
  010d9	8b 15 00 00 00
	00		 mov	 edx, DWORD PTR _CONF_LAYOUT_HEIGHT
  010df	52		 push	 edx
  010e0	8d 4d bc	 lea	 ecx, DWORD PTR $T198092[ebp]
  010e3	ff 15 00 00 00
	00		 call	 DWORD PTR __imp_??0?$basic_string@DU?$char_traits@D@std@@V?$allocator@D@2@@std@@QAE@PBD@Z
  010e9	3b f4		 cmp	 esi, esp
  010eb	e8 00 00 00 00	 call	 __RTC_CheckEsp
  010f0	c7 45 fc 00 00
	00 00		 mov	 DWORD PTR __$EHRec$[ebp+8], 0
  010f7	8b f4		 mov	 esi, esp
  010f9	a1 00 00 00 00	 mov	 eax, DWORD PTR _CONF_LAYOUT_MODULE_NAME
  010fe	50		 push	 eax
  010ff	8d 4d a0	 lea	 ecx, DWORD PTR $T198093[ebp]
  01102	ff 15 00 00 00
	00		 call	 DWORD PTR __imp_??0?$basic_string@DU?$char_traits@D@std@@V?$allocator@D@2@@std@@QAE@PBD@Z
  01108	3b f4		 cmp	 esi, esp
  0110a	e8 00 00 00 00	 call	 __RTC_CheckEsp
  0110f	c6 45 fc 01	 mov	 BYTE PTR __$EHRec$[ebp+8], 1
  01113	6a 00		 push	 0
  01115	8b 4d f0	 mov	 ecx, DWORD PTR _this$[ebp]
  01118	8b 91 28 06 00
	00		 mov	 edx, DWORD PTR [ecx+1576]
  0111e	52		 push	 edx
  0111f	8d 45 bc	 lea	 eax, DWORD PTR $T198092[ebp]
  01122	50		 push	 eax
  01123	8d 4d a0	 lea	 ecx, DWORD PTR $T198093[ebp]
  01126	51		 push	 ecx
  01127	e8 00 00 00 00	 call	 ?AfxGetUserConfig@@YAPAVAfxUserConfig@@XZ ; AfxGetUserConfig
  0112c	8b c8		 mov	 ecx, eax
  0112e	e8 00 00 00 00	 call	 ?SetConfigIntValue@AfxUserConfig@@QAEXABV?$basic_string@DU?$char_traits@D@std@@V?$allocator@D@2@@std@@0H_N@Z ; AfxUserConfig::SetConfigIntValue
  01133	c6 45 fc 00	 mov	 BYTE PTR __$EHRec$[ebp+8], 0
  01137	8b f4		 mov	 esi, esp
  01139	8d 4d a0	 lea	 ecx, DWORD PTR $T198093[ebp]
  0113c	ff 15 00 00 00
	00		 call	 DWORD PTR __imp_??1?$basic_string@DU?$char_traits@D@std@@V?$allocator@D@2@@std@@QAE@XZ
  01142	3b f4		 cmp	 esi, esp
  01144	e8 00 00 00 00	 call	 __RTC_CheckEsp
  01149	c7 45 fc ff ff
	ff ff		 mov	 DWORD PTR __$EHRec$[ebp+8], -1
  01150	8b f4		 mov	 esi, esp
  01152	8d 4d bc	 lea	 ecx, DWORD PTR $T198092[ebp]
  01155	ff 15 00 00 00
	00		 call	 DWORD PTR __imp_??1?$basic_string@DU?$char_traits@D@std@@V?$allocator@D@2@@std@@QAE@XZ
  0115b	3b f4		 cmp	 esi, esp
  0115d	e8 00 00 00 00	 call	 __RTC_CheckEsp

; 173  : 	AfxGetUserConfig()->SetConfigIntValue( CONF_LAYOUT_MODULE_NAME,CONF_LAYOUT_WIDTH,m_iWndNormalWidth);

  01162	8b f4		 mov	 esi, esp
  01164	8b 15 00 00 00
	00		 mov	 edx, DWORD PTR _CONF_LAYOUT_WIDTH
  0116a	52		 push	 edx
  0116b	8d 4d 84	 lea	 ecx, DWORD PTR $T198094[ebp]
  0116e	ff 15 00 00 00
	00		 call	 DWORD PTR __imp_??0?$basic_string@DU?$char_traits@D@std@@V?$allocator@D@2@@std@@QAE@PBD@Z
  01174	3b f4		 cmp	 esi, esp
  01176	e8 00 00 00 00	 call	 __RTC_CheckEsp
  0117b	c7 45 fc 02 00
	00 00		 mov	 DWORD PTR __$EHRec$[ebp+8], 2
  01182	8b f4		 mov	 esi, esp
  01184	a1 00 00 00 00	 mov	 eax, DWORD PTR _CONF_LAYOUT_MODULE_NAME
  01189	50		 push	 eax
  0118a	8d 8d 68 ff ff
	ff		 lea	 ecx, DWORD PTR $T198095[ebp]
  01190	ff 15 00 00 00
	00		 call	 DWORD PTR __imp_??0?$basic_string@DU?$char_traits@D@std@@V?$allocator@D@2@@std@@QAE@PBD@Z
  01196	3b f4		 cmp	 esi, esp
  01198	e8 00 00 00 00	 call	 __RTC_CheckEsp
  0119d	c6 45 fc 03	 mov	 BYTE PTR __$EHRec$[ebp+8], 3
  011a1	6a 00		 push	 0
  011a3	8b 4d f0	 mov	 ecx, DWORD PTR _this$[ebp]
  011a6	8b 91 24 06 00
	00		 mov	 edx, DWORD PTR [ecx+1572]
  011ac	52		 push	 edx
  011ad	8d 45 84	 lea	 eax, DWORD PTR $T198094[ebp]
  011b0	50		 push	 eax
  011b1	8d 8d 68 ff ff
	ff		 lea	 ecx, DWORD PTR $T198095[ebp]
  011b7	51		 push	 ecx
  011b8	e8 00 00 00 00	 call	 ?AfxGetUserConfig@@YAPAVAfxUserConfig@@XZ ; AfxGetUserConfig
  011bd	8b c8		 mov	 ecx, eax
  011bf	e8 00 00 00 00	 call	 ?SetConfigIntValue@AfxUserConfig@@QAEXABV?$basic_string@DU?$char_traits@D@std@@V?$allocator@D@2@@std@@0H_N@Z ; AfxUserConfig::SetConfigIntValue
  011c4	c6 45 fc 02	 mov	 BYTE PTR __$EHRec$[ebp+8], 2
  011c8	8b f4		 mov	 esi, esp
  011ca	8d 8d 68 ff ff
	ff		 lea	 ecx, DWORD PTR $T198095[ebp]
  011d0	ff 15 00 00 00
	00		 call	 DWORD PTR __imp_??1?$basic_string@DU?$char_traits@D@std@@V?$allocator@D@2@@std@@QAE@XZ
  011d6	3b f4		 cmp	 esi, esp
  011d8	e8 00 00 00 00	 call	 __RTC_CheckEsp
  011dd	c7 45 fc ff ff
	ff ff		 mov	 DWORD PTR __$EHRec$[ebp+8], -1
  011e4	8b f4		 mov	 esi, esp
  011e6	8d 4d 84	 lea	 ecx, DWORD PTR $T198094[ebp]
  011e9	ff 15 00 00 00
	00		 call	 DWORD PTR __imp_??1?$basic_string@DU?$char_traits@D@std@@V?$allocator@D@2@@std@@QAE@XZ
  011ef	3b f4		 cmp	 esi, esp
  011f1	e8 00 00 00 00	 call	 __RTC_CheckEsp

; 174  : 	AfxGetUserConfig()->SetConfigIntValue( CONF_LAYOUT_MODULE_NAME,CONF_LAYOUT_X_POS,m_iXPos);

  011f6	8b f4		 mov	 esi, esp
  011f8	8b 15 00 00 00
	00		 mov	 edx, DWORD PTR _CONF_LAYOUT_X_POS
  011fe	52		 push	 edx
  011ff	8d 8d 4c ff ff
	ff		 lea	 ecx, DWORD PTR $T198096[ebp]
  01205	ff 15 00 00 00
	00		 call	 DWORD PTR __imp_??0?$basic_string@DU?$char_traits@D@std@@V?$allocator@D@2@@std@@QAE@PBD@Z
  0120b	3b f4		 cmp	 esi, esp
  0120d	e8 00 00 00 00	 call	 __RTC_CheckEsp
  01212	c7 45 fc 04 00
	00 00		 mov	 DWORD PTR __$EHRec$[ebp+8], 4
  01219	8b f4		 mov	 esi, esp
  0121b	a1 00 00 00 00	 mov	 eax, DWORD PTR _CONF_LAYOUT_MODULE_NAME
  01220	50		 push	 eax
  01221	8d 8d 30 ff ff
	ff		 lea	 ecx, DWORD PTR $T198097[ebp]
  01227	ff 15 00 00 00
	00		 call	 DWORD PTR __imp_??0?$basic_string@DU?$char_traits@D@std@@V?$allocator@D@2@@std@@QAE@PBD@Z
  0122d	3b f4		 cmp	 esi, esp
  0122f	e8 00 00 00 00	 call	 __RTC_CheckEsp
  01234	c6 45 fc 05	 mov	 BYTE PTR __$EHRec$[ebp+8], 5
  01238	6a 00		 push	 0
  0123a	8b 4d f0	 mov	 ecx, DWORD PTR _this$[ebp]
  0123d	8b 91 1c 06 00
	00		 mov	 edx, DWORD PTR [ecx+1564]
  01243	52		 push	 edx
  01244	8d 85 4c ff ff
	ff		 lea	 eax, DWORD PTR $T198096[ebp]
  0124a	50		 push	 eax
  0124b	8d 8d 30 ff ff
	ff		 lea	 ecx, DWORD PTR $T198097[ebp]
  01251	51		 push	 ecx
  01252	e8 00 00 00 00	 call	 ?AfxGetUserConfig@@YAPAVAfxUserConfig@@XZ ; AfxGetUserConfig
  01257	8b c8		 mov	 ecx, eax
  01259	e8 00 00 00 00	 call	 ?SetConfigIntValue@AfxUserConfig@@QAEXABV?$basic_string@DU?$char_traits@D@std@@V?$allocator@D@2@@std@@0H_N@Z ; AfxUserConfig::SetConfigIntValue
  0125e	c6 45 fc 04	 mov	 BYTE PTR __$EHRec$[ebp+8], 4
  01262	8b f4		 mov	 esi, esp
  01264	8d 8d 30 ff ff
	ff		 lea	 ecx, DWORD PTR $T198097[ebp]
  0126a	ff 15 00 00 00
	00		 call	 DWORD PTR __imp_??1?$basic_string@DU?$char_traits@D@std@@V?$allocator@D@2@@std@@QAE@XZ
  01270	3b f4		 cmp	 esi, esp
  01272	e8 00 00 00 00	 call	 __RTC_CheckEsp
  01277	c7 45 fc ff ff
	ff ff		 mov	 DWORD PTR __$EHRec$[ebp+8], -1
  0127e	8b f4		 mov	 esi, esp
  01280	8d 8d 4c ff ff
	ff		 lea	 ecx, DWORD PTR $T198096[ebp]
  01286	ff 15 00 00 00
	00		 call	 DWORD PTR __imp_??1?$basic_string@DU?$char_traits@D@std@@V?$allocator@D@2@@std@@QAE@XZ
  0128c	3b f4		 cmp	 esi, esp
  0128e	e8 00 00 00 00	 call	 __RTC_CheckEsp

; 175  : 	AfxGetUserConfig()->SetConfigIntValue( CONF_LAYOUT_MODULE_NAME,CONF_LAYOUT_Y_POS,m_iYPos);

  01293	8b f4		 mov	 esi, esp
  01295	8b 15 00 00 00
	00		 mov	 edx, DWORD PTR _CONF_LAYOUT_Y_POS
  0129b	52		 push	 edx
  0129c	8d 8d 14 ff ff
	ff		 lea	 ecx, DWORD PTR $T198098[ebp]
  012a2	ff 15 00 00 00
	00		 call	 DWORD PTR __imp_??0?$basic_string@DU?$char_traits@D@std@@V?$allocator@D@2@@std@@QAE@PBD@Z
  012a8	3b f4		 cmp	 esi, esp
  012aa	e8 00 00 00 00	 call	 __RTC_CheckEsp
  012af	c7 45 fc 06 00
	00 00		 mov	 DWORD PTR __$EHRec$[ebp+8], 6
  012b6	8b f4		 mov	 esi, esp
  012b8	a1 00 00 00 00	 mov	 eax, DWORD PTR _CONF_LAYOUT_MODULE_NAME
  012bd	50		 push	 eax
  012be	8d 8d f8 fe ff
	ff		 lea	 ecx, DWORD PTR $T198099[ebp]
  012c4	ff 15 00 00 00
	00		 call	 DWORD PTR __imp_??0?$basic_string@DU?$char_traits@D@std@@V?$allocator@D@2@@std@@QAE@PBD@Z
  012ca	3b f4		 cmp	 esi, esp
  012cc	e8 00 00 00 00	 call	 __RTC_CheckEsp
  012d1	c6 45 fc 07	 mov	 BYTE PTR __$EHRec$[ebp+8], 7
  012d5	6a 00		 push	 0
  012d7	8b 4d f0	 mov	 ecx, DWORD PTR _this$[ebp]
  012da	8b 91 20 06 00
	00		 mov	 edx, DWORD PTR [ecx+1568]
  012e0	52		 push	 edx
  012e1	8d 85 14 ff ff
	ff		 lea	 eax, DWORD PTR $T198098[ebp]
  012e7	50		 push	 eax
  012e8	8d 8d f8 fe ff
	ff		 lea	 ecx, DWORD PTR $T198099[ebp]
  012ee	51		 push	 ecx
  012ef	e8 00 00 00 00	 call	 ?AfxGetUserConfig@@YAPAVAfxUserConfig@@XZ ; AfxGetUserConfig
  012f4	8b c8		 mov	 ecx, eax
  012f6	e8 00 00 00 00	 call	 ?SetConfigIntValue@AfxUserConfig@@QAEXABV?$basic_string@DU?$char_traits@D@std@@V?$allocator@D@2@@std@@0H_N@Z ; AfxUserConfig::SetConfigIntValue
  012fb	c6 45 fc 06	 mov	 BYTE PTR __$EHRec$[ebp+8], 6
  012ff	8b f4		 mov	 esi, esp
  01301	8d 8d f8 fe ff
	ff		 lea	 ecx, DWORD PTR $T198099[ebp]
  01307	ff 15 00 00 00
	00		 call	 DWORD PTR __imp_??1?$basic_string@DU?$char_traits@D@std@@V?$allocator@D@2@@std@@QAE@XZ
  0130d	3b f4		 cmp	 esi, esp
  0130f	e8 00 00 00 00	 call	 __RTC_CheckEsp
  01314	c7 45 fc ff ff
	ff ff		 mov	 DWORD PTR __$EHRec$[ebp+8], -1
  0131b	8b f4		 mov	 esi, esp
  0131d	8d 8d 14 ff ff
	ff		 lea	 ecx, DWORD PTR $T198098[ebp]
  01323	ff 15 00 00 00
	00		 call	 DWORD PTR __imp_??1?$basic_string@DU?$char_traits@D@std@@V?$allocator@D@2@@std@@QAE@XZ
  01329	3b f4		 cmp	 esi, esp
  0132b	e8 00 00 00 00	 call	 __RTC_CheckEsp

; 176  : 	return 0;

  01330	33 c0		 xor	 eax, eax
$L196599:

; 177  : }

  01332	52		 push	 edx
  01333	8b cd		 mov	 ecx, ebp
  01335	50		 push	 eax
  01336	8d 15 00 00 00
	00		 lea	 edx, DWORD PTR $L198113
  0133c	e8 00 00 00 00	 call	 @_RTC_CheckStackVars@8
  01341	58		 pop	 eax
  01342	5a		 pop	 edx
  01343	8b 4d f4	 mov	 ecx, DWORD PTR __$EHRec$[ebp]
  01346	64 89 0d 00 00
	00 00		 mov	 DWORD PTR fs:__except_list, ecx
  0134d	5f		 pop	 edi
  0134e	5e		 pop	 esi
  0134f	81 c4 08 01 00
	00		 add	 esp, 264		; 00000108H
  01355	3b ec		 cmp	 ebp, esp
  01357	e8 00 00 00 00	 call	 __RTC_CheckEsp
  0135c	8b e5		 mov	 esp, ebp
  0135e	5d		 pop	 ebp
  0135f	c2 08 00	 ret	 8
$L198113:
  01362	01 00 00 00	 DD	 1
  01366	00 00 00 00	 DD	 $L198112
$L198112:
  0136a	dc ff ff ff	 DD	 -36			; ffffffdcH
  0136e	10 00 00 00	 DD	 16			; 00000010H
  01372	00 00 00 00	 DD	 $L198110
$L198110:
  01376	72		 DB	 114			; 00000072H
  01377	65		 DB	 101			; 00000065H
  01378	63		 DB	 99			; 00000063H
  01379	74		 DB	 116			; 00000074H
  0137a	57		 DB	 87			; 00000057H
  0137b	6e		 DB	 110			; 0000006eH
  0137c	64		 DB	 100			; 00000064H
  0137d	00		 DB	 0
_TEXT	ENDS
text$x	SEGMENT
$L198100:
  0030b	8b f4		 mov	 esi, esp
  0030d	8d 4d bc	 lea	 ecx, DWORD PTR $T198092[ebp]
  00310	ff 15 00 00 00
	00		 call	 DWORD PTR __imp_??1?$basic_string@DU?$char_traits@D@std@@V?$allocator@D@2@@std@@QAE@XZ
  00316	3b f4		 cmp	 esi, esp
  00318	e9 00 00 00 00	 jmp	 __RTC_CheckEsp
$L198101:
  0031d	8b f4		 mov	 esi, esp
  0031f	8d 4d a0	 lea	 ecx, DWORD PTR $T198093[ebp]
  00322	ff 15 00 00 00
	00		 call	 DWORD PTR __imp_??1?$basic_string@DU?$char_traits@D@std@@V?$allocator@D@2@@std@@QAE@XZ
  00328	3b f4		 cmp	 esi, esp
  0032a	e9 00 00 00 00	 jmp	 __RTC_CheckEsp
$L198102:
  0032f	8b f4		 mov	 esi, esp
  00331	8d 4d 84	 lea	 ecx, DWORD PTR $T198094[ebp]
  00334	ff 15 00 00 00
	00		 call	 DWORD PTR __imp_??1?$basic_string@DU?$char_traits@D@std@@V?$allocator@D@2@@std@@QAE@XZ
  0033a	3b f4		 cmp	 esi, esp
  0033c	e9 00 00 00 00	 jmp	 __RTC_CheckEsp
$L198103:
  00341	8b f4		 mov	 esi, esp
  00343	8d 8d 68 ff ff
	ff		 lea	 ecx, DWORD PTR $T198095[ebp]
  00349	ff 15 00 00 00
	00		 call	 DWORD PTR __imp_??1?$basic_string@DU?$char_traits@D@std@@V?$allocator@D@2@@std@@QAE@XZ
  0034f	3b f4		 cmp	 esi, esp
  00351	e9 00 00 00 00	 jmp	 __RTC_CheckEsp
$L198104:
  00356	8b f4		 mov	 esi, esp
  00358	8d 8d 4c ff ff
	ff		 lea	 ecx, DWORD PTR $T198096[ebp]
  0035e	ff 15 00 00 00
	00		 call	 DWORD PTR __imp_??1?$basic_string@DU?$char_traits@D@std@@V?$allocator@D@2@@std@@QAE@XZ
  00364	3b f4		 cmp	 esi, esp
  00366	e9 00 00 00 00	 jmp	 __RTC_CheckEsp
$L198105:
  0036b	8b f4		 mov	 esi, esp
  0036d	8d 8d 30 ff ff
	ff		 lea	 ecx, DWORD PTR $T198097[ebp]
  00373	ff 15 00 00 00
	00		 call	 DWORD PTR __imp_??1?$basic_string@DU?$char_traits@D@std@@V?$allocator@D@2@@std@@QAE@XZ
  00379	3b f4		 cmp	 esi, esp
  0037b	e9 00 00 00 00	 jmp	 __RTC_CheckEsp
$L198106:
  00380	8b f4		 mov	 esi, esp
  00382	8d 8d 14 ff ff
	ff		 lea	 ecx, DWORD PTR $T198098[ebp]
  00388	ff 15 00 00 00
	00		 call	 DWORD PTR __imp_??1?$basic_string@DU?$char_traits@D@std@@V?$allocator@D@2@@std@@QAE@XZ
  0038e	3b f4		 cmp	 esi, esp
  00390	e9 00 00 00 00	 jmp	 __RTC_CheckEsp
$L198107:
  00395	8b f4		 mov	 esi, esp
  00397	8d 8d f8 fe ff
	ff		 lea	 ecx, DWORD PTR $T198099[ebp]
  0039d	ff 15 00 00 00
	00		 call	 DWORD PTR __imp_??1?$basic_string@DU?$char_traits@D@std@@V?$allocator@D@2@@std@@QAE@XZ
  003a3	3b f4		 cmp	 esi, esp
  003a5	e9 00 00 00 00	 jmp	 __RTC_CheckEsp
__ehhandler$?OnSaveLayout@CTopPanelWnd@@IAEJIJ@Z:
  003aa	b8 00 00 00 00	 mov	 eax, OFFSET FLAT:$T198109
  003af	e9 00 00 00 00	 jmp	 ___CxxFrameHandler
text$x	ENDS
?OnSaveLayout@CTopPanelWnd@@IAEJIJ@Z ENDP		; CTopPanelWnd::OnSaveLayout
EXTRN	?SendMessageA@CWnd@@QAEJIIJ@Z:NEAR		; CWnd::SendMessageA
; Function compile flags: /Odt /RTCsu
_TEXT	SEGMENT
_this$ = -4						; size = 4
?OnDestroy@CTopPanelWnd@@IAEXXZ PROC NEAR		; CTopPanelWnd::OnDestroy
; _this$ = ecx

; 180  : {

  01380	55		 push	 ebp
  01381	8b ec		 mov	 ebp, esp
  01383	51		 push	 ecx
  01384	c7 45 fc cc cc
	cc cc		 mov	 DWORD PTR [ebp-4], -858993460 ; ccccccccH
  0138b	89 4d fc	 mov	 DWORD PTR _this$[ebp], ecx

; 181  : 	SendMessage(MSG_SAVELAYOUT);

  0138e	6a 00		 push	 0
  01390	6a 00		 push	 0
  01392	68 67 04 00 00	 push	 1127			; 00000467H
  01397	8b 4d fc	 mov	 ecx, DWORD PTR _this$[ebp]
  0139a	e8 00 00 00 00	 call	 ?SendMessageA@CWnd@@QAEJIIJ@Z ; CWnd::SendMessageA

; 182  : }

  0139f	83 c4 04	 add	 esp, 4
  013a2	3b ec		 cmp	 ebp, esp
  013a4	e8 00 00 00 00	 call	 __RTC_CheckEsp
  013a9	8b e5		 mov	 esp, ebp
  013ab	5d		 pop	 ebp
  013ac	c3		 ret	 0
?OnDestroy@CTopPanelWnd@@IAEXXZ ENDP			; CTopPanelWnd::OnDestroy
_TEXT	ENDS
EXTRN	__imp__SendMessageA@16:NEAR
EXTRN	__imp__PostMessageA@16:NEAR
EXTRN	??0CMinOrExit@@QAE@PAVCWnd@@@Z:NEAR		; CMinOrExit::CMinOrExit
EXTRN	??1CMinOrExit@@UAE@XZ:NEAR			; CMinOrExit::~CMinOrExit
EXTRN	__imp_?LogRealMsg@@YAXABV?$basic_string@DU?$char_traits@D@std@@V?$allocator@D@2@@std@@0_NPAPAEPAI@Z:NEAR
EXTRN	__imp_?LogUserActMsg@@YAXABV?$basic_string@DU?$char_traits@D@std@@V?$allocator@D@2@@std@@0@Z:NEAR
EXTRN	?DoModal@CDialog@@UAEHXZ:NEAR			; CDialog::DoModal
EXTRN	?GetParent@CWnd@@QBEPAV1@XZ:NEAR		; CWnd::GetParent
xdata$x	SEGMENT
$T198142 DD	0ffffffffH
	DD	FLAT:$L198125
	DD	00H
	DD	FLAT:$L198126
	DD	0ffffffffH
	DD	FLAT:$L198127
	DD	0ffffffffH
	DD	FLAT:$L198128
	DD	03H
	DD	FLAT:$L198129
	DD	0ffffffffH
	DD	FLAT:$L198130
	DD	05H
	DD	FLAT:$L198131
	DD	0ffffffffH
	DD	FLAT:$L198132
	DD	07H
	DD	FLAT:$L198133
$T198135 DD	019930520H
	DD	09H
	DD	FLAT:$T198142
	DD	2 DUP(00H)
	DD	2 DUP(00H)
; Function compile flags: /Odt /RTCsu
xdata$x	ENDS
_TEXT	SEGMENT
tv95 = -3040						; size = 4
tv87 = -3036						; size = 4
$T198124 = -3032					; size = 28
$T198123 = -3004					; size = 28
$T198122 = -2976					; size = 28
$T198121 = -2948					; size = 28
$T198120 = -2920					; size = 28
$T198119 = -2892					; size = 28
$T198118 = -2864					; size = 28
$T198117 = -2836					; size = 28
_ifexit$196624 = -2808					; size = 4
_dlg$196623 = -2800					; size = 2756
_exitchoice$ = -33					; size = 1
_askexit$ = -21						; size = 1
_this$ = -16						; size = 4
__$EHRec$ = -12						; size = 12
?OnBnClickedClose@CTopPanelWnd@@IAEXXZ PROC NEAR	; CTopPanelWnd::OnBnClickedClose
; _this$ = ecx

; 185  : {

  013b0	55		 push	 ebp
  013b1	8b ec		 mov	 ebp, esp
  013b3	6a ff		 push	 -1
  013b5	68 00 00 00 00	 push	 __ehhandler$?OnBnClickedClose@CTopPanelWnd@@IAEXXZ
  013ba	64 a1 00 00 00
	00		 mov	 eax, DWORD PTR fs:__except_list
  013c0	50		 push	 eax
  013c1	64 89 25 00 00
	00 00		 mov	 DWORD PTR fs:__except_list, esp
  013c8	81 ec d4 0b 00
	00		 sub	 esp, 3028		; 00000bd4H
  013ce	56		 push	 esi
  013cf	57		 push	 edi
  013d0	51		 push	 ecx
  013d1	8d bd 20 f4 ff
	ff		 lea	 edi, DWORD PTR [ebp-3040]
  013d7	b9 f5 02 00 00	 mov	 ecx, 757		; 000002f5H
  013dc	b8 cc cc cc cc	 mov	 eax, -858993460		; ccccccccH
  013e1	f3 ab		 rep stosd
  013e3	59		 pop	 ecx
  013e4	89 4d f0	 mov	 DWORD PTR _this$[ebp], ecx

; 186  : 	bool askexit,exitchoice;
; 187  : 	AfxGetUserConfig()->GetConfigBoolValue( CONF_SETTING_MODULE_NAME,CONF_SETTING_CONFIG_IFASKEXIT,askexit);

  013e7	8b f4		 mov	 esi, esp
  013e9	a1 00 00 00 00	 mov	 eax, DWORD PTR _CONF_SETTING_CONFIG_IFASKEXIT
  013ee	50		 push	 eax
  013ef	8d 8d ec f4 ff
	ff		 lea	 ecx, DWORD PTR $T198117[ebp]
  013f5	ff 15 00 00 00
	00		 call	 DWORD PTR __imp_??0?$basic_string@DU?$char_traits@D@std@@V?$allocator@D@2@@std@@QAE@PBD@Z
  013fb	3b f4		 cmp	 esi, esp
  013fd	e8 00 00 00 00	 call	 __RTC_CheckEsp
  01402	c7 45 fc 00 00
	00 00		 mov	 DWORD PTR __$EHRec$[ebp+8], 0
  01409	8b f4		 mov	 esi, esp
  0140b	8b 0d 00 00 00
	00		 mov	 ecx, DWORD PTR _CONF_SETTING_MODULE_NAME
  01411	51		 push	 ecx
  01412	8d 8d d0 f4 ff
	ff		 lea	 ecx, DWORD PTR $T198118[ebp]
  01418	ff 15 00 00 00
	00		 call	 DWORD PTR __imp_??0?$basic_string@DU?$char_traits@D@std@@V?$allocator@D@2@@std@@QAE@PBD@Z
  0141e	3b f4		 cmp	 esi, esp
  01420	e8 00 00 00 00	 call	 __RTC_CheckEsp
  01425	c6 45 fc 01	 mov	 BYTE PTR __$EHRec$[ebp+8], 1
  01429	8d 55 eb	 lea	 edx, DWORD PTR _askexit$[ebp]
  0142c	52		 push	 edx
  0142d	8d 85 ec f4 ff
	ff		 lea	 eax, DWORD PTR $T198117[ebp]
  01433	50		 push	 eax
  01434	8d 8d d0 f4 ff
	ff		 lea	 ecx, DWORD PTR $T198118[ebp]
  0143a	51		 push	 ecx
  0143b	e8 00 00 00 00	 call	 ?AfxGetUserConfig@@YAPAVAfxUserConfig@@XZ ; AfxGetUserConfig
  01440	8b c8		 mov	 ecx, eax
  01442	e8 00 00 00 00	 call	 ?GetConfigBoolValue@AfxUserConfig@@QAEXABV?$basic_string@DU?$char_traits@D@std@@V?$allocator@D@2@@std@@0AA_N@Z ; AfxUserConfig::GetConfigBoolValue
  01447	c6 45 fc 00	 mov	 BYTE PTR __$EHRec$[ebp+8], 0
  0144b	8b f4		 mov	 esi, esp
  0144d	8d 8d d0 f4 ff
	ff		 lea	 ecx, DWORD PTR $T198118[ebp]
  01453	ff 15 00 00 00
	00		 call	 DWORD PTR __imp_??1?$basic_string@DU?$char_traits@D@std@@V?$allocator@D@2@@std@@QAE@XZ
  01459	3b f4		 cmp	 esi, esp
  0145b	e8 00 00 00 00	 call	 __RTC_CheckEsp
  01460	c7 45 fc ff ff
	ff ff		 mov	 DWORD PTR __$EHRec$[ebp+8], -1
  01467	8b f4		 mov	 esi, esp
  01469	8d 8d ec f4 ff
	ff		 lea	 ecx, DWORD PTR $T198117[ebp]
  0146f	ff 15 00 00 00
	00		 call	 DWORD PTR __imp_??1?$basic_string@DU?$char_traits@D@std@@V?$allocator@D@2@@std@@QAE@XZ
  01475	3b f4		 cmp	 esi, esp
  01477	e8 00 00 00 00	 call	 __RTC_CheckEsp

; 188  : 	if (!askexit)

  0147c	0f b6 55 eb	 movzx	 edx, BYTE PTR _askexit$[ebp]
  01480	85 d2		 test	 edx, edx
  01482	0f 85 b6 00 00
	00		 jne	 $L196622

; 189  : 	{
; 190  : 		CMinOrExit dlg( GetParent() );

  01488	8b 4d f0	 mov	 ecx, DWORD PTR _this$[ebp]
  0148b	e8 00 00 00 00	 call	 ?GetParent@CWnd@@QBEPAV1@XZ ; CWnd::GetParent
  01490	50		 push	 eax
  01491	8d 8d 10 f5 ff
	ff		 lea	 ecx, DWORD PTR _dlg$196623[ebp]
  01497	e8 00 00 00 00	 call	 ??0CMinOrExit@@QAE@PAVCWnd@@@Z ; CMinOrExit::CMinOrExit
  0149c	c7 45 fc 02 00
	00 00		 mov	 DWORD PTR __$EHRec$[ebp+8], 2

; 191  : 		AfxGetUIManager()->UIAddDialog(&dlg);

  014a3	e8 00 00 00 00	 call	 ?AfxGetUIManager@@YAPAVIUIManager@@XZ ; AfxGetUIManager
  014a8	89 85 24 f4 ff
	ff		 mov	 DWORD PTR tv87[ebp], eax
  014ae	8b f4		 mov	 esi, esp
  014b0	8d 85 10 f5 ff
	ff		 lea	 eax, DWORD PTR _dlg$196623[ebp]
  014b6	50		 push	 eax
  014b7	8b 8d 24 f4 ff
	ff		 mov	 ecx, DWORD PTR tv87[ebp]
  014bd	8b 11		 mov	 edx, DWORD PTR [ecx]
  014bf	8b 8d 24 f4 ff
	ff		 mov	 ecx, DWORD PTR tv87[ebp]
  014c5	ff 52 14	 call	 DWORD PTR [edx+20]
  014c8	3b f4		 cmp	 esi, esp
  014ca	e8 00 00 00 00	 call	 __RTC_CheckEsp

; 192  : 		int ifexit=dlg.DoModal();

  014cf	8d 8d 10 f5 ff
	ff		 lea	 ecx, DWORD PTR _dlg$196623[ebp]
  014d5	e8 00 00 00 00	 call	 ?DoModal@CDialog@@UAEHXZ ; CDialog::DoModal
  014da	89 85 08 f5 ff
	ff		 mov	 DWORD PTR _ifexit$196624[ebp], eax

; 193  : 		AfxGetUIManager()->UIRemoveDialog(&dlg);

  014e0	e8 00 00 00 00	 call	 ?AfxGetUIManager@@YAPAVIUIManager@@XZ ; AfxGetUIManager
  014e5	89 85 20 f4 ff
	ff		 mov	 DWORD PTR tv95[ebp], eax
  014eb	8b f4		 mov	 esi, esp
  014ed	8d 85 10 f5 ff
	ff		 lea	 eax, DWORD PTR _dlg$196623[ebp]
  014f3	50		 push	 eax
  014f4	8b 8d 20 f4 ff
	ff		 mov	 ecx, DWORD PTR tv95[ebp]
  014fa	8b 11		 mov	 edx, DWORD PTR [ecx]
  014fc	8b 8d 20 f4 ff
	ff		 mov	 ecx, DWORD PTR tv95[ebp]
  01502	ff 52 1c	 call	 DWORD PTR [edx+28]
  01505	3b f4		 cmp	 esi, esp
  01507	e8 00 00 00 00	 call	 __RTC_CheckEsp

; 194  : 		if (ifexit==IDCANCEL)

  0150c	83 bd 08 f5 ff
	ff 02		 cmp	 DWORD PTR _ifexit$196624[ebp], 2
  01513	75 17		 jne	 SHORT $L196625

; 195  : 		{
; 196  : 			return;

  01515	c7 45 fc ff ff
	ff ff		 mov	 DWORD PTR __$EHRec$[ebp+8], -1
  0151c	8d 8d 10 f5 ff
	ff		 lea	 ecx, DWORD PTR _dlg$196623[ebp]
  01522	e8 00 00 00 00	 call	 ??1CMinOrExit@@UAE@XZ	; CMinOrExit::~CMinOrExit
  01527	e9 3b 02 00 00	 jmp	 $L196617
$L196625:

; 197  : 		}
; 198  : 	}

  0152c	c7 45 fc ff ff
	ff ff		 mov	 DWORD PTR __$EHRec$[ebp+8], -1
  01533	8d 8d 10 f5 ff
	ff		 lea	 ecx, DWORD PTR _dlg$196623[ebp]
  01539	e8 00 00 00 00	 call	 ??1CMinOrExit@@UAE@XZ	; CMinOrExit::~CMinOrExit
$L196622:

; 199  : 
; 200  : 	AfxGetUserConfig()->GetConfigBoolValue( CONF_SETTING_MODULE_NAME,CONF_SETTING_CONFIG_EXITCHOICE,exitchoice);

  0153e	8b f4		 mov	 esi, esp
  01540	a1 00 00 00 00	 mov	 eax, DWORD PTR _CONF_SETTING_CONFIG_EXITCHOICE
  01545	50		 push	 eax
  01546	8d 8d b4 f4 ff
	ff		 lea	 ecx, DWORD PTR $T198119[ebp]
  0154c	ff 15 00 00 00
	00		 call	 DWORD PTR __imp_??0?$basic_string@DU?$char_traits@D@std@@V?$allocator@D@2@@std@@QAE@PBD@Z
  01552	3b f4		 cmp	 esi, esp
  01554	e8 00 00 00 00	 call	 __RTC_CheckEsp
  01559	c7 45 fc 03 00
	00 00		 mov	 DWORD PTR __$EHRec$[ebp+8], 3
  01560	8b f4		 mov	 esi, esp
  01562	8b 0d 00 00 00
	00		 mov	 ecx, DWORD PTR _CONF_SETTING_MODULE_NAME
  01568	51		 push	 ecx
  01569	8d 8d 98 f4 ff
	ff		 lea	 ecx, DWORD PTR $T198120[ebp]
  0156f	ff 15 00 00 00
	00		 call	 DWORD PTR __imp_??0?$basic_string@DU?$char_traits@D@std@@V?$allocator@D@2@@std@@QAE@PBD@Z
  01575	3b f4		 cmp	 esi, esp
  01577	e8 00 00 00 00	 call	 __RTC_CheckEsp
  0157c	c6 45 fc 04	 mov	 BYTE PTR __$EHRec$[ebp+8], 4
  01580	8d 55 df	 lea	 edx, DWORD PTR _exitchoice$[ebp]
  01583	52		 push	 edx
  01584	8d 85 b4 f4 ff
	ff		 lea	 eax, DWORD PTR $T198119[ebp]
  0158a	50		 push	 eax
  0158b	8d 8d 98 f4 ff
	ff		 lea	 ecx, DWORD PTR $T198120[ebp]
  01591	51		 push	 ecx
  01592	e8 00 00 00 00	 call	 ?AfxGetUserConfig@@YAPAVAfxUserConfig@@XZ ; AfxGetUserConfig
  01597	8b c8		 mov	 ecx, eax
  01599	e8 00 00 00 00	 call	 ?GetConfigBoolValue@AfxUserConfig@@QAEXABV?$basic_string@DU?$char_traits@D@std@@V?$allocator@D@2@@std@@0AA_N@Z ; AfxUserConfig::GetConfigBoolValue
  0159e	c6 45 fc 03	 mov	 BYTE PTR __$EHRec$[ebp+8], 3
  015a2	8b f4		 mov	 esi, esp
  015a4	8d 8d 98 f4 ff
	ff		 lea	 ecx, DWORD PTR $T198120[ebp]
  015aa	ff 15 00 00 00
	00		 call	 DWORD PTR __imp_??1?$basic_string@DU?$char_traits@D@std@@V?$allocator@D@2@@std@@QAE@XZ
  015b0	3b f4		 cmp	 esi, esp
  015b2	e8 00 00 00 00	 call	 __RTC_CheckEsp
  015b7	c7 45 fc ff ff
	ff ff		 mov	 DWORD PTR __$EHRec$[ebp+8], -1
  015be	8b f4		 mov	 esi, esp
  015c0	8d 8d b4 f4 ff
	ff		 lea	 ecx, DWORD PTR $T198119[ebp]
  015c6	ff 15 00 00 00
	00		 call	 DWORD PTR __imp_??1?$basic_string@DU?$char_traits@D@std@@V?$allocator@D@2@@std@@QAE@XZ
  015cc	3b f4		 cmp	 esi, esp
  015ce	e8 00 00 00 00	 call	 __RTC_CheckEsp

; 201  : 	if (exitchoice)

  015d3	0f b6 55 df	 movzx	 edx, BYTE PTR _exitchoice$[ebp]
  015d7	85 d2		 test	 edx, edx
  015d9	0f 84 7a 01 00
	00		 je	 $L196628

; 202  : 	{		
; 203  : 		//hide
; 204  : 		AfxGetMainWindow()->ShowWindow( SW_HIDE );

  015df	6a 00		 push	 0
  015e1	e8 00 00 00 00	 call	 ?AfxGetMainWindow@@YAPAVCWnd@@XZ ; AfxGetMainWindow
  015e6	8b c8		 mov	 ecx, eax
  015e8	e8 00 00 00 00	 call	 ?ShowWindow@CWnd@@QAEHH@Z ; CWnd::ShowWindow

; 205  : 		LogRealMsg( "AppExit", "");

  015ed	8b f4		 mov	 esi, esp
  015ef	68 00 00 00 00	 push	 OFFSET FLAT:$SG196631
  015f4	8d 8d 7c f4 ff
	ff		 lea	 ecx, DWORD PTR $T198121[ebp]
  015fa	ff 15 00 00 00
	00		 call	 DWORD PTR __imp_??0?$basic_string@DU?$char_traits@D@std@@V?$allocator@D@2@@std@@QAE@PBD@Z
  01600	3b f4		 cmp	 esi, esp
  01602	e8 00 00 00 00	 call	 __RTC_CheckEsp
  01607	c7 45 fc 05 00
	00 00		 mov	 DWORD PTR __$EHRec$[ebp+8], 5
  0160e	8b f4		 mov	 esi, esp
  01610	68 00 00 00 00	 push	 OFFSET FLAT:$SG196632
  01615	8d 8d 60 f4 ff
	ff		 lea	 ecx, DWORD PTR $T198122[ebp]
  0161b	ff 15 00 00 00
	00		 call	 DWORD PTR __imp_??0?$basic_string@DU?$char_traits@D@std@@V?$allocator@D@2@@std@@QAE@PBD@Z
  01621	3b f4		 cmp	 esi, esp
  01623	e8 00 00 00 00	 call	 __RTC_CheckEsp
  01628	c6 45 fc 06	 mov	 BYTE PTR __$EHRec$[ebp+8], 6
  0162c	8b f4		 mov	 esi, esp
  0162e	6a 00		 push	 0
  01630	6a 00		 push	 0
  01632	6a 00		 push	 0
  01634	8d 85 7c f4 ff
	ff		 lea	 eax, DWORD PTR $T198121[ebp]
  0163a	50		 push	 eax
  0163b	8d 8d 60 f4 ff
	ff		 lea	 ecx, DWORD PTR $T198122[ebp]
  01641	51		 push	 ecx
  01642	ff 15 00 00 00
	00		 call	 DWORD PTR __imp_?LogRealMsg@@YAXABV?$basic_string@DU?$char_traits@D@std@@V?$allocator@D@2@@std@@0_NPAPAEPAI@Z
  01648	83 c4 14	 add	 esp, 20			; 00000014H
  0164b	3b f4		 cmp	 esi, esp
  0164d	e8 00 00 00 00	 call	 __RTC_CheckEsp
  01652	c6 45 fc 05	 mov	 BYTE PTR __$EHRec$[ebp+8], 5
  01656	8b f4		 mov	 esi, esp
  01658	8d 8d 60 f4 ff
	ff		 lea	 ecx, DWORD PTR $T198122[ebp]
  0165e	ff 15 00 00 00
	00		 call	 DWORD PTR __imp_??1?$basic_string@DU?$char_traits@D@std@@V?$allocator@D@2@@std@@QAE@XZ
  01664	3b f4		 cmp	 esi, esp
  01666	e8 00 00 00 00	 call	 __RTC_CheckEsp
  0166b	c7 45 fc ff ff
	ff ff		 mov	 DWORD PTR __$EHRec$[ebp+8], -1
  01672	8b f4		 mov	 esi, esp
  01674	8d 8d 7c f4 ff
	ff		 lea	 ecx, DWORD PTR $T198121[ebp]
  0167a	ff 15 00 00 00
	00		 call	 DWORD PTR __imp_??1?$basic_string@DU?$char_traits@D@std@@V?$allocator@D@2@@std@@QAE@XZ
  01680	3b f4		 cmp	 esi, esp
  01682	e8 00 00 00 00	 call	 __RTC_CheckEsp

; 206  : 		::SendMessage(AfxGetMainWindow()->m_hWnd, MSG_DELETE_TRAY,0,0);

  01687	8b f4		 mov	 esi, esp
  01689	6a 00		 push	 0
  0168b	6a 00		 push	 0
  0168d	6a 66		 push	 102			; 00000066H
  0168f	e8 00 00 00 00	 call	 ?AfxGetMainWindow@@YAPAVCWnd@@XZ ; AfxGetMainWindow
  01694	8b 50 20	 mov	 edx, DWORD PTR [eax+32]
  01697	52		 push	 edx
  01698	ff 15 00 00 00
	00		 call	 DWORD PTR __imp__SendMessageA@16
  0169e	3b f4		 cmp	 esi, esp
  016a0	e8 00 00 00 00	 call	 __RTC_CheckEsp

; 207  : 		::PostMessage( AfxGetMainWindow()->m_hWnd,WM_CLOSE,0,0 );

  016a5	8b f4		 mov	 esi, esp
  016a7	6a 00		 push	 0
  016a9	6a 00		 push	 0
  016ab	6a 10		 push	 16			; 00000010H
  016ad	e8 00 00 00 00	 call	 ?AfxGetMainWindow@@YAPAVCWnd@@XZ ; AfxGetMainWindow
  016b2	8b 40 20	 mov	 eax, DWORD PTR [eax+32]
  016b5	50		 push	 eax
  016b6	ff 15 00 00 00
	00		 call	 DWORD PTR __imp__PostMessageA@16
  016bc	3b f4		 cmp	 esi, esp
  016be	e8 00 00 00 00	 call	 __RTC_CheckEsp

; 208  : 		LogUserActMsg(STR_USER_CLICK, "BTN:CLOSE");

  016c3	8b f4		 mov	 esi, esp
  016c5	68 00 00 00 00	 push	 OFFSET FLAT:$SG196635
  016ca	8d 8d 44 f4 ff
	ff		 lea	 ecx, DWORD PTR $T198123[ebp]
  016d0	ff 15 00 00 00
	00		 call	 DWORD PTR __imp_??0?$basic_string@DU?$char_traits@D@std@@V?$allocator@D@2@@std@@QAE@PBD@Z
  016d6	3b f4		 cmp	 esi, esp
  016d8	e8 00 00 00 00	 call	 __RTC_CheckEsp
  016dd	c7 45 fc 07 00
	00 00		 mov	 DWORD PTR __$EHRec$[ebp+8], 7
  016e4	8b f4		 mov	 esi, esp
  016e6	68 00 00 00 00	 push	 OFFSET FLAT:$SG196636
  016eb	8d 8d 28 f4 ff
	ff		 lea	 ecx, DWORD PTR $T198124[ebp]
  016f1	ff 15 00 00 00
	00		 call	 DWORD PTR __imp_??0?$basic_string@DU?$char_traits@D@std@@V?$allocator@D@2@@std@@QAE@PBD@Z
  016f7	3b f4		 cmp	 esi, esp
  016f9	e8 00 00 00 00	 call	 __RTC_CheckEsp
  016fe	c6 45 fc 08	 mov	 BYTE PTR __$EHRec$[ebp+8], 8
  01702	8b f4		 mov	 esi, esp
  01704	8d 8d 44 f4 ff
	ff		 lea	 ecx, DWORD PTR $T198123[ebp]
  0170a	51		 push	 ecx
  0170b	8d 95 28 f4 ff
	ff		 lea	 edx, DWORD PTR $T198124[ebp]
  01711	52		 push	 edx
  01712	ff 15 00 00 00
	00		 call	 DWORD PTR __imp_?LogUserActMsg@@YAXABV?$basic_string@DU?$char_traits@D@std@@V?$allocator@D@2@@std@@0@Z
  01718	83 c4 08	 add	 esp, 8
  0171b	3b f4		 cmp	 esi, esp
  0171d	e8 00 00 00 00	 call	 __RTC_CheckEsp
  01722	c6 45 fc 07	 mov	 BYTE PTR __$EHRec$[ebp+8], 7
  01726	8b f4		 mov	 esi, esp
  01728	8d 8d 28 f4 ff
	ff		 lea	 ecx, DWORD PTR $T198124[ebp]
  0172e	ff 15 00 00 00
	00		 call	 DWORD PTR __imp_??1?$basic_string@DU?$char_traits@D@std@@V?$allocator@D@2@@std@@QAE@XZ
  01734	3b f4		 cmp	 esi, esp
  01736	e8 00 00 00 00	 call	 __RTC_CheckEsp
  0173b	c7 45 fc ff ff
	ff ff		 mov	 DWORD PTR __$EHRec$[ebp+8], -1
  01742	8b f4		 mov	 esi, esp
  01744	8d 8d 44 f4 ff
	ff		 lea	 ecx, DWORD PTR $T198123[ebp]
  0174a	ff 15 00 00 00
	00		 call	 DWORD PTR __imp_??1?$basic_string@DU?$char_traits@D@std@@V?$allocator@D@2@@std@@QAE@XZ
  01750	3b f4		 cmp	 esi, esp
  01752	e8 00 00 00 00	 call	 __RTC_CheckEsp

; 209  : 	}
; 210  : 	else

  01757	eb 0e		 jmp	 SHORT $L196617
$L196628:

; 211  : 	{
; 212  : 		//AfxGetMainWindow()->ShowWindow( SW_HIDE );	//
; 213  : 		AfxGetMainWindow()->ShowWindow( SW_MINIMIZE );	//

  01759	6a 06		 push	 6
  0175b	e8 00 00 00 00	 call	 ?AfxGetMainWindow@@YAPAVCWnd@@XZ ; AfxGetMainWindow
  01760	8b c8		 mov	 ecx, eax
  01762	e8 00 00 00 00	 call	 ?ShowWindow@CWnd@@QAEHH@Z ; CWnd::ShowWindow
$L196617:

; 214  : 	}
; 215  : }

  01767	52		 push	 edx
  01768	8b cd		 mov	 ecx, ebp
  0176a	50		 push	 eax
  0176b	8d 15 00 00 00
	00		 lea	 edx, DWORD PTR $L198141
  01771	e8 00 00 00 00	 call	 @_RTC_CheckStackVars@8
  01776	58		 pop	 eax
  01777	5a		 pop	 edx
  01778	8b 4d f4	 mov	 ecx, DWORD PTR __$EHRec$[ebp]
  0177b	64 89 0d 00 00
	00 00		 mov	 DWORD PTR fs:__except_list, ecx
  01782	5f		 pop	 edi
  01783	5e		 pop	 esi
  01784	81 c4 e0 0b 00
	00		 add	 esp, 3040		; 00000be0H
  0178a	3b ec		 cmp	 ebp, esp
  0178c	e8 00 00 00 00	 call	 __RTC_CheckEsp
  01791	8b e5		 mov	 esp, ebp
  01793	5d		 pop	 ebp
  01794	c3		 ret	 0
$L198141:
  01795	03 00 00 00	 DD	 3
  01799	00 00 00 00	 DD	 $L198140
$L198140:
  0179d	eb ff ff ff	 DD	 -21			; ffffffebH
  017a1	01 00 00 00	 DD	 1
  017a5	00 00 00 00	 DD	 $L198136
  017a9	df ff ff ff	 DD	 -33			; ffffffdfH
  017ad	01 00 00 00	 DD	 1
  017b1	00 00 00 00	 DD	 $L198137
  017b5	10 f5 ff ff	 DD	 -2800			; fffff510H
  017b9	c4 0a 00 00	 DD	 2756			; 00000ac4H
  017bd	00 00 00 00	 DD	 $L198138
$L198138:
  017c1	64		 DB	 100			; 00000064H
  017c2	6c		 DB	 108			; 0000006cH
  017c3	67		 DB	 103			; 00000067H
  017c4	00		 DB	 0
$L198137:
  017c5	65		 DB	 101			; 00000065H
  017c6	78		 DB	 120			; 00000078H
  017c7	69		 DB	 105			; 00000069H
  017c8	74		 DB	 116			; 00000074H
  017c9	63		 DB	 99			; 00000063H
  017ca	68		 DB	 104			; 00000068H
  017cb	6f		 DB	 111			; 0000006fH
  017cc	69		 DB	 105			; 00000069H
  017cd	63		 DB	 99			; 00000063H
  017ce	65		 DB	 101			; 00000065H
  017cf	00		 DB	 0
$L198136:
  017d0	61		 DB	 97			; 00000061H
  017d1	73		 DB	 115			; 00000073H
  017d2	6b		 DB	 107			; 0000006bH
  017d3	65		 DB	 101			; 00000065H
  017d4	78		 DB	 120			; 00000078H
  017d5	69		 DB	 105			; 00000069H
  017d6	74		 DB	 116			; 00000074H
  017d7	00		 DB	 0
_TEXT	ENDS
text$x	SEGMENT
$L198125:
  003b4	8b f4		 mov	 esi, esp
  003b6	8d 8d ec f4 ff
	ff		 lea	 ecx, DWORD PTR $T198117[ebp]
  003bc	ff 15 00 00 00
	00		 call	 DWORD PTR __imp_??1?$basic_string@DU?$char_traits@D@std@@V?$allocator@D@2@@std@@QAE@XZ
  003c2	3b f4		 cmp	 esi, esp
  003c4	e9 00 00 00 00	 jmp	 __RTC_CheckEsp
$L198126:
  003c9	8b f4		 mov	 esi, esp
  003cb	8d 8d d0 f4 ff
	ff		 lea	 ecx, DWORD PTR $T198118[ebp]
  003d1	ff 15 00 00 00
	00		 call	 DWORD PTR __imp_??1?$basic_string@DU?$char_traits@D@std@@V?$allocator@D@2@@std@@QAE@XZ
  003d7	3b f4		 cmp	 esi, esp
  003d9	e9 00 00 00 00	 jmp	 __RTC_CheckEsp
$L198127:
  003de	8d 8d 10 f5 ff
	ff		 lea	 ecx, DWORD PTR _dlg$196623[ebp]
  003e4	e9 00 00 00 00	 jmp	 ??1CMinOrExit@@UAE@XZ	; CMinOrExit::~CMinOrExit
$L198128:
  003e9	8b f4		 mov	 esi, esp
  003eb	8d 8d b4 f4 ff
	ff		 lea	 ecx, DWORD PTR $T198119[ebp]
  003f1	ff 15 00 00 00
	00		 call	 DWORD PTR __imp_??1?$basic_string@DU?$char_traits@D@std@@V?$allocator@D@2@@std@@QAE@XZ
  003f7	3b f4		 cmp	 esi, esp
  003f9	e9 00 00 00 00	 jmp	 __RTC_CheckEsp
$L198129:
  003fe	8b f4		 mov	 esi, esp
  00400	8d 8d 98 f4 ff
	ff		 lea	 ecx, DWORD PTR $T198120[ebp]
  00406	ff 15 00 00 00
	00		 call	 DWORD PTR __imp_??1?$basic_string@DU?$char_traits@D@std@@V?$allocator@D@2@@std@@QAE@XZ
  0040c	3b f4		 cmp	 esi, esp
  0040e	e9 00 00 00 00	 jmp	 __RTC_CheckEsp
$L198130:
  00413	8b f4		 mov	 esi, esp
  00415	8d 8d 7c f4 ff
	ff		 lea	 ecx, DWORD PTR $T198121[ebp]
  0041b	ff 15 00 00 00
	00		 call	 DWORD PTR __imp_??1?$basic_string@DU?$char_traits@D@std@@V?$allocator@D@2@@std@@QAE@XZ
  00421	3b f4		 cmp	 esi, esp
  00423	e9 00 00 00 00	 jmp	 __RTC_CheckEsp
$L198131:
  00428	8b f4		 mov	 esi, esp
  0042a	8d 8d 60 f4 ff
	ff		 lea	 ecx, DWORD PTR $T198122[ebp]
  00430	ff 15 00 00 00
	00		 call	 DWORD PTR __imp_??1?$basic_string@DU?$char_traits@D@std@@V?$allocator@D@2@@std@@QAE@XZ
  00436	3b f4		 cmp	 esi, esp
  00438	e9 00 00 00 00	 jmp	 __RTC_CheckEsp
$L198132:
  0043d	8b f4		 mov	 esi, esp
  0043f	8d 8d 44 f4 ff
	ff		 lea	 ecx, DWORD PTR $T198123[ebp]
  00445	ff 15 00 00 00
	00		 call	 DWORD PTR __imp_??1?$basic_string@DU?$char_traits@D@std@@V?$allocator@D@2@@std@@QAE@XZ
  0044b	3b f4		 cmp	 esi, esp
  0044d	e9 00 00 00 00	 jmp	 __RTC_CheckEsp
$L198133:
  00452	8b f4		 mov	 esi, esp
  00454	8d 8d 28 f4 ff
	ff		 lea	 ecx, DWORD PTR $T198124[ebp]
  0045a	ff 15 00 00 00
	00		 call	 DWORD PTR __imp_??1?$basic_string@DU?$char_traits@D@std@@V?$allocator@D@2@@std@@QAE@XZ
  00460	3b f4		 cmp	 esi, esp
  00462	e9 00 00 00 00	 jmp	 __RTC_CheckEsp
__ehhandler$?OnBnClickedClose@CTopPanelWnd@@IAEXXZ:
  00467	b8 00 00 00 00	 mov	 eax, OFFSET FLAT:$T198135
  0046c	e9 00 00 00 00	 jmp	 ___CxxFrameHandler
text$x	ENDS
?OnBnClickedClose@CTopPanelWnd@@IAEXXZ ENDP		; CTopPanelWnd::OnBnClickedClose
PUBLIC	?_AtlInstallStringThunk@ATL@@YAXPAPAXPAX1@Z	; ATL::_AtlInstallStringThunk
PUBLIC	?GetEnvironmentVariableWFake@ATL@@YGKPB_WPA_WK@Z ; ATL::GetEnvironmentVariableWFake
EXTRN	__imp__GetEnvironmentVariableW@12:NEAR
; Function compile flags: /Odt /RTCsu
; File d:\program files (x86)\microsoft visual studio .net 2003\vc7\atlmfc\include\cstringt.h
;	COMDAT ?GetEnvironmentVariableWThunk@ATL@@YGKPB_WPA_WK@Z
_TEXT	SEGMENT
_pszName$ = 8						; size = 4
_pszBuffer$ = 12					; size = 4
_nSize$ = 16						; size = 4
?GetEnvironmentVariableWThunk@ATL@@YGKPB_WPA_WK@Z PROC NEAR ; ATL::GetEnvironmentVariableWThunk, COMDAT

; 183  : {

  00000	55		 push	 ebp
  00001	8b ec		 mov	 ebp, esp
  00003	56		 push	 esi

; 184  : 	_AtlInstallStringThunk(reinterpret_cast<void**>(&_strthunks.pfnGetEnvironmentVariableW), 
; 185  : 		GetEnvironmentVariableWFake, ::GetEnvironmentVariableW);

  00004	a1 00 00 00 00	 mov	 eax, DWORD PTR __imp__GetEnvironmentVariableW@12
  00009	50		 push	 eax
  0000a	68 00 00 00 00	 push	 OFFSET FLAT:?GetEnvironmentVariableWFake@ATL@@YGKPB_WPA_WK@Z ; ATL::GetEnvironmentVariableWFake
  0000f	68 14 00 00 00	 push	 OFFSET FLAT:?_strthunks@ATL@@3U_AtlStringThunks@1@A+20
  00014	e8 00 00 00 00	 call	 ?_AtlInstallStringThunk@ATL@@YAXPAPAXPAX1@Z ; ATL::_AtlInstallStringThunk
  00019	83 c4 0c	 add	 esp, 12			; 0000000cH

; 186  : 
; 187  : 	return _strthunks.pfnGetEnvironmentVariableW(pszName, pszBuffer, nSize);

  0001c	8b f4		 mov	 esi, esp
  0001e	8b 4d 10	 mov	 ecx, DWORD PTR _nSize$[ebp]
  00021	51		 push	 ecx
  00022	8b 55 0c	 mov	 edx, DWORD PTR _pszBuffer$[ebp]
  00025	52		 push	 edx
  00026	8b 45 08	 mov	 eax, DWORD PTR _pszName$[ebp]
  00029	50		 push	 eax
  0002a	ff 15 14 00 00
	00		 call	 DWORD PTR ?_strthunks@ATL@@3U_AtlStringThunks@1@A+20
  00030	3b f4		 cmp	 esi, esp
  00032	e8 00 00 00 00	 call	 __RTC_CheckEsp

; 188  : }

  00037	5e		 pop	 esi
  00038	3b ec		 cmp	 ebp, esp
  0003a	e8 00 00 00 00	 call	 __RTC_CheckEsp
  0003f	5d		 pop	 ebp
  00040	c2 0c 00	 ret	 12			; 0000000cH
?GetEnvironmentVariableWThunk@ATL@@YGKPB_WPA_WK@Z ENDP	; ATL::GetEnvironmentVariableWThunk
_TEXT	ENDS
PUBLIC	?s_bWin9x@?1??_AtlInstallStringThunk@ATL@@YAXPAPAXPAX1@Z@4_NA ; `ATL::_AtlInstallStringThunk'::`2'::s_bWin9x
PUBLIC	??_B?1??_AtlInstallStringThunk@ATL@@YAXPAPAXPAX1@Z@51 ; `ATL::_AtlInstallStringThunk'::`2'::`local static guard'
EXTRN	__imp__GetVersion@0:NEAR
;	COMDAT ?s_bWin9x@?1??_AtlInstallStringThunk@ATL@@YAXPAPAXPAX1@Z@4_NA
_BSS	SEGMENT
?s_bWin9x@?1??_AtlInstallStringThunk@ATL@@YAXPAPAXPAX1@Z@4_NA DB 01H DUP (?) ; `ATL::_AtlInstallStringThunk'::`2'::s_bWin9x
_BSS	ENDS
;	COMDAT ??_B?1??_AtlInstallStringThunk@ATL@@YAXPAPAXPAX1@Z@51
_BSS	SEGMENT
??_B?1??_AtlInstallStringThunk@ATL@@YAXPAPAXPAX1@Z@51 DD 01H DUP (?) ; `ATL::_AtlInstallStringThunk'::`2'::`local static guard'
; Function compile flags: /Odt /RTCsu
_BSS	ENDS
;	COMDAT ?_AtlInstallStringThunk@ATL@@YAXPAPAXPAX1@Z
_TEXT	SEGMENT
_pfn$ = -4						; size = 4
_ppThunk$ = 8						; size = 4
_pfnWin9x$ = 12						; size = 4
_pfnNT$ = 16						; size = 4
?_AtlInstallStringThunk@ATL@@YAXPAPAXPAX1@Z PROC NEAR	; ATL::_AtlInstallStringThunk, COMDAT

; 115  : {

  00000	55		 push	 ebp
  00001	8b ec		 mov	 ebp, esp
  00003	51		 push	 ecx
  00004	56		 push	 esi
  00005	c7 45 fc cc cc
	cc cc		 mov	 DWORD PTR [ebp-4], -858993460 ; ccccccccH

; 116  : #pragma warning (push)
; 117  : #pragma warning (disable : 4640)	// construction of local static object is not thread-safe
; 118  : 
; 119  : 	static bool s_bWin9x = (::GetVersion()&0x80000000) != 0;

  0000c	a1 00 00 00 00	 mov	 eax, DWORD PTR ??_B?1??_AtlInstallStringThunk@ATL@@YAXPAPAXPAX1@Z@51
  00011	83 e0 01	 and	 eax, 1
  00014	75 2e		 jne	 SHORT $L26217
  00016	8b 0d 00 00 00
	00		 mov	 ecx, DWORD PTR ??_B?1??_AtlInstallStringThunk@ATL@@YAXPAPAXPAX1@Z@51
  0001c	83 c9 01	 or	 ecx, 1
  0001f	89 0d 00 00 00
	00		 mov	 DWORD PTR ??_B?1??_AtlInstallStringThunk@ATL@@YAXPAPAXPAX1@Z@51, ecx
  00025	8b f4		 mov	 esi, esp
  00027	ff 15 00 00 00
	00		 call	 DWORD PTR __imp__GetVersion@0
  0002d	3b f4		 cmp	 esi, esp
  0002f	e8 00 00 00 00	 call	 __RTC_CheckEsp
  00034	25 00 00 00 80	 and	 eax, -2147483648	; 80000000H
  00039	f7 d8		 neg	 eax
  0003b	1b c0		 sbb	 eax, eax
  0003d	f7 d8		 neg	 eax
  0003f	a2 00 00 00 00	 mov	 BYTE PTR ?s_bWin9x@?1??_AtlInstallStringThunk@ATL@@YAXPAPAXPAX1@Z@4_NA, al ; `ATL::_AtlInstallStringThunk'::`2'::s_bWin9x
$L26217:

; 120  : 	
; 121  : #pragma warning (pop)
; 122  : 
; 123  : 	void* pfn;
; 124  : 	if (s_bWin9x)

  00044	0f b6 15 00 00
	00 00		 movzx	 edx, BYTE PTR ?s_bWin9x@?1??_AtlInstallStringThunk@ATL@@YAXPAPAXPAX1@Z@4_NA ; `ATL::_AtlInstallStringThunk'::`2'::s_bWin9x
  0004b	85 d2		 test	 edx, edx
  0004d	74 08		 je	 SHORT $L26219

; 125  : 		pfn = pfnWin9x;

  0004f	8b 45 0c	 mov	 eax, DWORD PTR _pfnWin9x$[ebp]
  00052	89 45 fc	 mov	 DWORD PTR _pfn$[ebp], eax

; 126  : 	else

  00055	eb 06		 jmp	 SHORT $L26220
$L26219:

; 127  : 	{
; 128  : #ifdef _CSTRING_ALWAYS_THUNK
; 129  : 		pfn = pfnWin9x;
; 130  : 		(void)pfnNT;
; 131  : #else
; 132  : 		pfn = pfnNT;

  00057	8b 4d 10	 mov	 ecx, DWORD PTR _pfnNT$[ebp]
  0005a	89 4d fc	 mov	 DWORD PTR _pfn$[ebp], ecx
$L26220:

; 133  : #endif
; 134  : 	}
; 135  : 	InterlockedExchangePointer(ppThunk, pfn);

  0005d	8b 55 fc	 mov	 edx, DWORD PTR _pfn$[ebp]
  00060	52		 push	 edx
  00061	8b 45 08	 mov	 eax, DWORD PTR _ppThunk$[ebp]
  00064	50		 push	 eax
  00065	e8 00 00 00 00	 call	 ?InterlockedExchangePointer@@YGPAXPAPAXPAX@Z ; InterlockedExchangePointer

; 136  : }

  0006a	5e		 pop	 esi
  0006b	83 c4 04	 add	 esp, 4
  0006e	3b ec		 cmp	 ebp, esp
  00070	e8 00 00 00 00	 call	 __RTC_CheckEsp
  00075	8b e5		 mov	 esp, ebp
  00077	5d		 pop	 ebp
  00078	c3		 ret	 0
?_AtlInstallStringThunk@ATL@@YAXPAPAXPAX1@Z ENDP	; ATL::_AtlInstallStringThunk
_TEXT	ENDS
PUBLIC	??_C@_0FH@KDPNIMBO@D?3?2Program?5Files?5?$CIx86?$CJ?2Microsoft@ ; `string'
PUBLIC	?_AtlGetConversionACP@ATL@@YGIXZ		; ATL::_AtlGetConversionACP
PUBLIC	??0?$CTempBuffer@D$0IA@VCCRTAllocator@ATL@@@ATL@@QAE@XZ ; ATL::CTempBuffer<char,128,ATL::CCRTAllocator>::CTempBuffer<char,128,ATL::CCRTAllocator>
PUBLIC	??1?$CTempBuffer@D$0IA@VCCRTAllocator@ATL@@@ATL@@QAE@XZ ; ATL::CTempBuffer<char,128,ATL::CCRTAllocator>::~CTempBuffer<char,128,ATL::CCRTAllocator>
PUBLIC	??B?$CTempBuffer@D$0IA@VCCRTAllocator@ATL@@@ATL@@QBEPADXZ ; ATL::CTempBuffer<char,128,ATL::CCRTAllocator>::operator char *
PUBLIC	?Allocate@?$CTempBuffer@D$0IA@VCCRTAllocator@ATL@@@ATL@@QAEPADI@Z ; ATL::CTempBuffer<char,128,ATL::CCRTAllocator>::Allocate
PUBLIC	??0?$CW2AEX@$0IA@@ATL@@QAE@PB_W@Z		; ATL::CW2AEX<128>::CW2AEX<128>
PUBLIC	??1?$CW2AEX@$0IA@@ATL@@QAE@XZ			; ATL::CW2AEX<128>::~CW2AEX<128>
PUBLIC	??B?$CW2AEX@$0IA@@ATL@@QBEPADXZ			; ATL::CW2AEX<128>::operator char *
PUBLIC	??_C@_0BA@CLMJJCOM@nSize?5?$DO?$DN?5nSizeW?$AA@	; `string'
EXTRN	__imp___CrtDbgReport:NEAR
EXTRN	__imp__MultiByteToWideChar@24:NEAR
EXTRN	__imp__GetEnvironmentVariableA@12:NEAR
;	COMDAT xdata$x
xdata$x	SEGMENT
$T198161 DD	0ffffffffH
	DD	FLAT:$L198151
	DD	00H
	DD	FLAT:$L198152
$T198154 DD	019930520H
	DD	02H
	DD	FLAT:$T198161
	DD	2 DUP(00H)
	DD	2 DUP(00H)
xdata$x	ENDS
;	COMDAT ??_C@_0BA@CLMJJCOM@nSize?5?$DO?$DN?5nSizeW?$AA@
CONST	SEGMENT
??_C@_0BA@CLMJJCOM@nSize?5?$DO?$DN?5nSizeW?$AA@ DB 'nSize >= nSizeW', 00H ; `string'
CONST	ENDS
;	COMDAT ??_C@_0FH@KDPNIMBO@D?3?2Program?5Files?5?$CIx86?$CJ?2Microsoft@
CONST	SEGMENT
??_C@_0FH@KDPNIMBO@D?3?2Program?5Files?5?$CIx86?$CJ?2Microsoft@ DB 'D:\Pr'
	DB	'ogram Files (x86)\Microsoft Visual Studio .NET 2003\Vc7\atlmf'
	DB	'c\include\cstringt.h', 00H			; `string'
; Function compile flags: /Odt /RTCsu
CONST	ENDS
;	COMDAT ?GetEnvironmentVariableWFake@ATL@@YGKPB_WPA_WK@Z
_TEXT	SEGMENT
$T198150 = -316						; size = 4
$T198148 = -312						; size = 4
$T198147 = -308						; size = 4
_pszNameA$ = -300					; size = 132
_pszBufferA$ = -160					; size = 132
_nSizeW$ = -24						; size = 4
_nSizeA$ = -20						; size = 4
__$ArrayPad$ = -16					; size = 4
__$EHRec$ = -12						; size = 12
__$ReturnAddr$ = 4					; size = 4
_pszName$ = 8						; size = 4
_pszBuffer$ = 12					; size = 4
_nSize$ = 16						; size = 4
?GetEnvironmentVariableWFake@ATL@@YGKPB_WPA_WK@Z PROC NEAR ; ATL::GetEnvironmentVariableWFake, COMDAT

; 159  : {

  00000	55		 push	 ebp
  00001	8b ec		 mov	 ebp, esp
  00003	6a ff		 push	 -1
  00005	68 00 00 00 00	 push	 __ehhandler$?GetEnvironmentVariableWFake@ATL@@YGKPB_WPA_WK@Z
  0000a	64 a1 00 00 00
	00		 mov	 eax, DWORD PTR fs:__except_list
  00010	50		 push	 eax
  00011	64 89 25 00 00
	00 00		 mov	 DWORD PTR fs:__except_list, esp
  00018	81 ec 30 01 00
	00		 sub	 esp, 304		; 00000130H
  0001e	56		 push	 esi
  0001f	57		 push	 edi
  00020	8d bd c4 fe ff
	ff		 lea	 edi, DWORD PTR [ebp-316]
  00026	b9 4c 00 00 00	 mov	 ecx, 76			; 0000004cH
  0002b	b8 cc cc cc cc	 mov	 eax, -858993460		; ccccccccH
  00030	f3 ab		 rep stosd
  00032	a1 00 00 00 00	 mov	 eax, DWORD PTR ___security_cookie
  00037	89 45 f0	 mov	 DWORD PTR __$ArrayPad$[ebp], eax

; 160  : 	ULONG nSizeA;
; 161  : 	ULONG nSizeW;
; 162  : 	CTempBuffer<char> pszBufferA;

  0003a	8d 8d 60 ff ff
	ff		 lea	 ecx, DWORD PTR _pszBufferA$[ebp]
  00040	e8 00 00 00 00	 call	 ??0?$CTempBuffer@D$0IA@VCCRTAllocator@ATL@@@ATL@@QAE@XZ ; ATL::CTempBuffer<char,128,ATL::CCRTAllocator>::CTempBuffer<char,128,ATL::CCRTAllocator>
  00045	c7 45 fc 00 00
	00 00		 mov	 DWORD PTR __$EHRec$[ebp+8], 0

; 163  : 	CW2A pszNameA(pszName);

  0004c	8b 45 08	 mov	 eax, DWORD PTR _pszName$[ebp]
  0004f	50		 push	 eax
  00050	8d 8d d4 fe ff
	ff		 lea	 ecx, DWORD PTR _pszNameA$[ebp]
  00056	e8 00 00 00 00	 call	 ??0?$CW2AEX@$0IA@@ATL@@QAE@PB_W@Z ; ATL::CW2AEX<128>::CW2AEX<128>
  0005b	c6 45 fc 01	 mov	 BYTE PTR __$EHRec$[ebp+8], 1

; 164  : 
; 165  : 	nSizeA = ::GetEnvironmentVariableA(pszNameA, NULL, 0);

  0005f	8b f4		 mov	 esi, esp
  00061	6a 00		 push	 0
  00063	6a 00		 push	 0
  00065	8d 8d d4 fe ff
	ff		 lea	 ecx, DWORD PTR _pszNameA$[ebp]
  0006b	e8 00 00 00 00	 call	 ??B?$CW2AEX@$0IA@@ATL@@QBEPADXZ ; ATL::CW2AEX<128>::operator char *
  00070	50		 push	 eax
  00071	ff 15 00 00 00
	00		 call	 DWORD PTR __imp__GetEnvironmentVariableA@12
  00077	3b f4		 cmp	 esi, esp
  00079	e8 00 00 00 00	 call	 __RTC_CheckEsp
  0007e	89 45 ec	 mov	 DWORD PTR _nSizeA$[ebp], eax

; 166  : 	if (nSizeA == 0)

  00081	83 7d ec 00	 cmp	 DWORD PTR _nSizeA$[ebp], 0
  00085	75 36		 jne	 SHORT $L26322

; 167  : 		return 0;

  00087	c7 85 cc fe ff
	ff 00 00 00 00	 mov	 DWORD PTR $T198147[ebp], 0
  00091	c6 45 fc 00	 mov	 BYTE PTR __$EHRec$[ebp+8], 0
  00095	8d 8d d4 fe ff
	ff		 lea	 ecx, DWORD PTR _pszNameA$[ebp]
  0009b	e8 00 00 00 00	 call	 ??1?$CW2AEX@$0IA@@ATL@@QAE@XZ ; ATL::CW2AEX<128>::~CW2AEX<128>
  000a0	c7 45 fc ff ff
	ff ff		 mov	 DWORD PTR __$EHRec$[ebp+8], -1
  000a7	8d 8d 60 ff ff
	ff		 lea	 ecx, DWORD PTR _pszBufferA$[ebp]
  000ad	e8 00 00 00 00	 call	 ??1?$CTempBuffer@D$0IA@VCCRTAllocator@ATL@@@ATL@@QAE@XZ ; ATL::CTempBuffer<char,128,ATL::CCRTAllocator>::~CTempBuffer<char,128,ATL::CCRTAllocator>
  000b2	8b 85 cc fe ff
	ff		 mov	 eax, DWORD PTR $T198147[ebp]
  000b8	e9 33 01 00 00	 jmp	 $L26263
$L26322:

; 168  : 
; 169  : 	pszBufferA.Allocate(nSizeA*2);

  000bd	8b 4d ec	 mov	 ecx, DWORD PTR _nSizeA$[ebp]
  000c0	d1 e1		 shl	 ecx, 1
  000c2	51		 push	 ecx
  000c3	8d 8d 60 ff ff
	ff		 lea	 ecx, DWORD PTR _pszBufferA$[ebp]
  000c9	e8 00 00 00 00	 call	 ?Allocate@?$CTempBuffer@D$0IA@VCCRTAllocator@ATL@@@ATL@@QAEPADI@Z ; ATL::CTempBuffer<char,128,ATL::CCRTAllocator>::Allocate

; 170  : 	::GetEnvironmentVariableA(pszNameA, pszBufferA, nSizeA);

  000ce	8b f4		 mov	 esi, esp
  000d0	8b 55 ec	 mov	 edx, DWORD PTR _nSizeA$[ebp]
  000d3	52		 push	 edx
  000d4	8d 8d 60 ff ff
	ff		 lea	 ecx, DWORD PTR _pszBufferA$[ebp]
  000da	e8 00 00 00 00	 call	 ??B?$CTempBuffer@D$0IA@VCCRTAllocator@ATL@@@ATL@@QBEPADXZ ; ATL::CTempBuffer<char,128,ATL::CCRTAllocator>::operator char *
  000df	50		 push	 eax
  000e0	8d 8d d4 fe ff
	ff		 lea	 ecx, DWORD PTR _pszNameA$[ebp]
  000e6	e8 00 00 00 00	 call	 ??B?$CW2AEX@$0IA@@ATL@@QBEPADXZ ; ATL::CW2AEX<128>::operator char *
  000eb	50		 push	 eax
  000ec	ff 15 00 00 00
	00		 call	 DWORD PTR __imp__GetEnvironmentVariableA@12
  000f2	3b f4		 cmp	 esi, esp
  000f4	e8 00 00 00 00	 call	 __RTC_CheckEsp

; 171  : 
; 172  : 	nSizeW = ::MultiByteToWideChar(_AtlGetConversionACP(), 0, pszBufferA, -1, NULL, 0);

  000f9	8b f4		 mov	 esi, esp
  000fb	6a 00		 push	 0
  000fd	6a 00		 push	 0
  000ff	6a ff		 push	 -1
  00101	8d 8d 60 ff ff
	ff		 lea	 ecx, DWORD PTR _pszBufferA$[ebp]
  00107	e8 00 00 00 00	 call	 ??B?$CTempBuffer@D$0IA@VCCRTAllocator@ATL@@@ATL@@QBEPADXZ ; ATL::CTempBuffer<char,128,ATL::CCRTAllocator>::operator char *
  0010c	50		 push	 eax
  0010d	6a 00		 push	 0
  0010f	e8 00 00 00 00	 call	 ?_AtlGetConversionACP@ATL@@YGIXZ ; ATL::_AtlGetConversionACP
  00114	50		 push	 eax
  00115	ff 15 00 00 00
	00		 call	 DWORD PTR __imp__MultiByteToWideChar@24
  0011b	3b f4		 cmp	 esi, esp
  0011d	e8 00 00 00 00	 call	 __RTC_CheckEsp
  00122	89 45 e8	 mov	 DWORD PTR _nSizeW$[ebp], eax

; 173  : 	if (nSize == 0)

  00125	83 7d 10 00	 cmp	 DWORD PTR _nSize$[ebp], 0
  00129	75 35		 jne	 SHORT $L26324

; 174  : 		return nSizeW;

  0012b	8b 45 e8	 mov	 eax, DWORD PTR _nSizeW$[ebp]
  0012e	89 85 c8 fe ff
	ff		 mov	 DWORD PTR $T198148[ebp], eax
  00134	c6 45 fc 00	 mov	 BYTE PTR __$EHRec$[ebp+8], 0
  00138	8d 8d d4 fe ff
	ff		 lea	 ecx, DWORD PTR _pszNameA$[ebp]
  0013e	e8 00 00 00 00	 call	 ??1?$CW2AEX@$0IA@@ATL@@QAE@XZ ; ATL::CW2AEX<128>::~CW2AEX<128>
  00143	c7 45 fc ff ff
	ff ff		 mov	 DWORD PTR __$EHRec$[ebp+8], -1
  0014a	8d 8d 60 ff ff
	ff		 lea	 ecx, DWORD PTR _pszBufferA$[ebp]
  00150	e8 00 00 00 00	 call	 ??1?$CTempBuffer@D$0IA@VCCRTAllocator@ATL@@@ATL@@QAE@XZ ; ATL::CTempBuffer<char,128,ATL::CCRTAllocator>::~CTempBuffer<char,128,ATL::CCRTAllocator>
  00155	8b 85 c8 fe ff
	ff		 mov	 eax, DWORD PTR $T198148[ebp]
  0015b	e9 90 00 00 00	 jmp	 $L26263
$L26324:

; 175  : 	ATLASSERT(nSize >= nSizeW);

  00160	8b 4d 10	 mov	 ecx, DWORD PTR _nSize$[ebp]
  00163	3b 4d e8	 cmp	 ecx, DWORD PTR _nSizeW$[ebp]
  00166	73 2b		 jae	 SHORT $L198149
  00168	8b f4		 mov	 esi, esp
  0016a	68 00 00 00 00	 push	 OFFSET FLAT:??_C@_0BA@CLMJJCOM@nSize?5?$DO?$DN?5nSizeW?$AA@
  0016f	6a 00		 push	 0
  00171	68 af 00 00 00	 push	 175			; 000000afH
  00176	68 00 00 00 00	 push	 OFFSET FLAT:??_C@_0FH@KDPNIMBO@D?3?2Program?5Files?5?$CIx86?$CJ?2Microsoft@
  0017b	6a 02		 push	 2
  0017d	ff 15 00 00 00
	00		 call	 DWORD PTR __imp___CrtDbgReport
  00183	83 c4 14	 add	 esp, 20			; 00000014H
  00186	3b f4		 cmp	 esi, esp
  00188	e8 00 00 00 00	 call	 __RTC_CheckEsp
  0018d	83 f8 01	 cmp	 eax, 1
  00190	75 01		 jne	 SHORT $L198149
  00192	cc		 int	 3
$L198149:

; 176  : 	::MultiByteToWideChar(_AtlGetConversionACP(), 0, pszBufferA, -1, pszBuffer, nSizeW);

  00193	8b f4		 mov	 esi, esp
  00195	8b 45 e8	 mov	 eax, DWORD PTR _nSizeW$[ebp]
  00198	50		 push	 eax
  00199	8b 4d 0c	 mov	 ecx, DWORD PTR _pszBuffer$[ebp]
  0019c	51		 push	 ecx
  0019d	6a ff		 push	 -1
  0019f	8d 8d 60 ff ff
	ff		 lea	 ecx, DWORD PTR _pszBufferA$[ebp]
  001a5	e8 00 00 00 00	 call	 ??B?$CTempBuffer@D$0IA@VCCRTAllocator@ATL@@@ATL@@QBEPADXZ ; ATL::CTempBuffer<char,128,ATL::CCRTAllocator>::operator char *
  001aa	50		 push	 eax
  001ab	6a 00		 push	 0
  001ad	e8 00 00 00 00	 call	 ?_AtlGetConversionACP@ATL@@YGIXZ ; ATL::_AtlGetConversionACP
  001b2	50		 push	 eax
  001b3	ff 15 00 00 00
	00		 call	 DWORD PTR __imp__MultiByteToWideChar@24
  001b9	3b f4		 cmp	 esi, esp
  001bb	e8 00 00 00 00	 call	 __RTC_CheckEsp

; 177  : 
; 178  : 	return nSizeW;

  001c0	8b 55 e8	 mov	 edx, DWORD PTR _nSizeW$[ebp]
  001c3	89 95 c4 fe ff
	ff		 mov	 DWORD PTR $T198150[ebp], edx
  001c9	c6 45 fc 00	 mov	 BYTE PTR __$EHRec$[ebp+8], 0
  001cd	8d 8d d4 fe ff
	ff		 lea	 ecx, DWORD PTR _pszNameA$[ebp]
  001d3	e8 00 00 00 00	 call	 ??1?$CW2AEX@$0IA@@ATL@@QAE@XZ ; ATL::CW2AEX<128>::~CW2AEX<128>
  001d8	c7 45 fc ff ff
	ff ff		 mov	 DWORD PTR __$EHRec$[ebp+8], -1
  001df	8d 8d 60 ff ff
	ff		 lea	 ecx, DWORD PTR _pszBufferA$[ebp]
  001e5	e8 00 00 00 00	 call	 ??1?$CTempBuffer@D$0IA@VCCRTAllocator@ATL@@@ATL@@QAE@XZ ; ATL::CTempBuffer<char,128,ATL::CCRTAllocator>::~CTempBuffer<char,128,ATL::CCRTAllocator>
  001ea	8b 85 c4 fe ff
	ff		 mov	 eax, DWORD PTR $T198150[ebp]
$L26263:

; 179  : }

  001f0	52		 push	 edx
  001f1	8b cd		 mov	 ecx, ebp
  001f3	50		 push	 eax
  001f4	8d 15 00 00 00
	00		 lea	 edx, DWORD PTR $L198160
  001fa	e8 00 00 00 00	 call	 @_RTC_CheckStackVars@8
  001ff	58		 pop	 eax
  00200	5a		 pop	 edx
  00201	8b 4d f4	 mov	 ecx, DWORD PTR __$EHRec$[ebp]
  00204	64 89 0d 00 00
	00 00		 mov	 DWORD PTR fs:__except_list, ecx
  0020b	8b 4d f0	 mov	 ecx, DWORD PTR __$ArrayPad$[ebp]
  0020e	e8 00 00 00 00	 call	 @__security_check_cookie@4
  00213	5f		 pop	 edi
  00214	5e		 pop	 esi
  00215	81 c4 3c 01 00
	00		 add	 esp, 316		; 0000013cH
  0021b	3b ec		 cmp	 ebp, esp
  0021d	e8 00 00 00 00	 call	 __RTC_CheckEsp
  00222	8b e5		 mov	 esp, ebp
  00224	5d		 pop	 ebp
  00225	c2 0c 00	 ret	 12			; 0000000cH
$L198160:
  00228	02 00 00 00	 DD	 2
  0022c	00 00 00 00	 DD	 $L198159
$L198159:
  00230	60 ff ff ff	 DD	 -160			; ffffff60H
  00234	84 00 00 00	 DD	 132			; 00000084H
  00238	00 00 00 00	 DD	 $L198155
  0023c	d4 fe ff ff	 DD	 -300			; fffffed4H
  00240	84 00 00 00	 DD	 132			; 00000084H
  00244	00 00 00 00	 DD	 $L198156
$L198156:
  00248	70		 DB	 112			; 00000070H
  00249	73		 DB	 115			; 00000073H
  0024a	7a		 DB	 122			; 0000007aH
  0024b	4e		 DB	 78			; 0000004eH
  0024c	61		 DB	 97			; 00000061H
  0024d	6d		 DB	 109			; 0000006dH
  0024e	65		 DB	 101			; 00000065H
  0024f	41		 DB	 65			; 00000041H
  00250	00		 DB	 0
$L198155:
  00251	70		 DB	 112			; 00000070H
  00252	73		 DB	 115			; 00000073H
  00253	7a		 DB	 122			; 0000007aH
  00254	42		 DB	 66			; 00000042H
  00255	75		 DB	 117			; 00000075H
  00256	66		 DB	 102			; 00000066H
  00257	66		 DB	 102			; 00000066H
  00258	65		 DB	 101			; 00000065H
  00259	72		 DB	 114			; 00000072H
  0025a	41		 DB	 65			; 00000041H
  0025b	00		 DB	 0
_TEXT	ENDS
;	COMDAT text$x
text$x	SEGMENT
$L198151:
  00000	8d 8d 60 ff ff
	ff		 lea	 ecx, DWORD PTR _pszBufferA$[ebp]
  00006	e9 00 00 00 00	 jmp	 ??1?$CTempBuffer@D$0IA@VCCRTAllocator@ATL@@@ATL@@QAE@XZ ; ATL::CTempBuffer<char,128,ATL::CCRTAllocator>::~CTempBuffer<char,128,ATL::CCRTAllocator>
$L198152:
  0000b	8d 8d d4 fe ff
	ff		 lea	 ecx, DWORD PTR _pszNameA$[ebp]
  00011	e9 00 00 00 00	 jmp	 ??1?$CW2AEX@$0IA@@ATL@@QAE@XZ ; ATL::CW2AEX<128>::~CW2AEX<128>
__ehhandler$?GetEnvironmentVariableWFake@ATL@@YGKPB_WPA_WK@Z:
  00016	b8 00 00 00 00	 mov	 eax, OFFSET FLAT:$T198154
  0001b	e9 00 00 00 00	 jmp	 ___CxxFrameHandler
text$x	ENDS
?GetEnvironmentVariableWFake@ATL@@YGKPB_WPA_WK@Z ENDP	; ATL::GetEnvironmentVariableWFake
; Function compile flags: /Odt /RTCsu
; File d:\program files (x86)\microsoft visual studio .net 2003\vc7\atlmfc\include\atlconv.h
;	COMDAT ?_AtlGetConversionACP@ATL@@YGIXZ
_TEXT	SEGMENT
?_AtlGetConversionACP@ATL@@YGIXZ PROC NEAR		; ATL::_AtlGetConversionACP, COMDAT

; 157  : {

  00000	55		 push	 ebp
  00001	8b ec		 mov	 ebp, esp
  00003	56		 push	 esi

; 158  : 	return( g_pfnGetThreadACP() );

  00004	8b f4		 mov	 esi, esp
  00006	ff 15 00 00 00
	00		 call	 DWORD PTR ?g_pfnGetThreadACP@ATL@@3P6GIXZA ; ATL::g_pfnGetThreadACP
  0000c	3b f4		 cmp	 esi, esp
  0000e	e8 00 00 00 00	 call	 __RTC_CheckEsp

; 159  : }

  00013	5e		 pop	 esi
  00014	3b ec		 cmp	 ebp, esp
  00016	e8 00 00 00 00	 call	 __RTC_CheckEsp
  0001b	5d		 pop	 ebp
  0001c	c3		 ret	 0
?_AtlGetConversionACP@ATL@@YGIXZ ENDP			; ATL::_AtlGetConversionACP
_TEXT	ENDS
EXTRN	?AfxGetDataManager2@@YAPAVIDataManager@@XZ:NEAR	; AfxGetDataManager2
; Function compile flags: /Odt /RTCsu
; File d:\boxgit\playbox\playbox\dev\prj\playbox\src\module\toppanel\toppanelwnd.cpp
_TEXT	SEGMENT
tv72 = -12						; size = 4
tv66 = -8						; size = 4
_this$ = -4						; size = 4
?OnBnClickedLarge@CTopPanelWnd@@IAEXXZ PROC NEAR	; CTopPanelWnd::OnBnClickedLarge
; _this$ = ecx

; 217  : {

  017e0	55		 push	 ebp
  017e1	8b ec		 mov	 ebp, esp
  017e3	83 ec 0c	 sub	 esp, 12			; 0000000cH
  017e6	56		 push	 esi
  017e7	c7 45 f4 cc cc
	cc cc		 mov	 DWORD PTR [ebp-12], -858993460 ; ccccccccH
  017ee	c7 45 f8 cc cc
	cc cc		 mov	 DWORD PTR [ebp-8], -858993460 ; ccccccccH
  017f5	c7 45 fc cc cc
	cc cc		 mov	 DWORD PTR [ebp-4], -858993460 ; ccccccccH
  017fc	89 4d fc	 mov	 DWORD PTR _this$[ebp], ecx

; 218  : 	GLOBAL_PANELCHANGEDATA->IPanelChange_Max();

  017ff	e8 00 00 00 00	 call	 ?AfxGetDataManager2@@YAPAVIDataManager@@XZ ; AfxGetDataManager2
  01804	89 45 f8	 mov	 DWORD PTR tv66[ebp], eax
  01807	8b f4		 mov	 esi, esp
  01809	68 00 00 00 00	 push	 OFFSET FLAT:_ID_DATA_PANELCHANGE
  0180e	8b 45 f8	 mov	 eax, DWORD PTR tv66[ebp]
  01811	8b 10		 mov	 edx, DWORD PTR [eax]
  01813	8b 4d f8	 mov	 ecx, DWORD PTR tv66[ebp]
  01816	ff 52 0c	 call	 DWORD PTR [edx+12]
  01819	3b f4		 cmp	 esi, esp
  0181b	e8 00 00 00 00	 call	 __RTC_CheckEsp
  01820	89 45 f4	 mov	 DWORD PTR tv72[ebp], eax
  01823	8b 45 f4	 mov	 eax, DWORD PTR tv72[ebp]
  01826	8b 10		 mov	 edx, DWORD PTR [eax]
  01828	8b f4		 mov	 esi, esp
  0182a	8b 4d f4	 mov	 ecx, DWORD PTR tv72[ebp]
  0182d	ff 52 18	 call	 DWORD PTR [edx+24]
  01830	3b f4		 cmp	 esi, esp
  01832	e8 00 00 00 00	 call	 __RTC_CheckEsp

; 219  : }

  01837	5e		 pop	 esi
  01838	83 c4 0c	 add	 esp, 12			; 0000000cH
  0183b	3b ec		 cmp	 ebp, esp
  0183d	e8 00 00 00 00	 call	 __RTC_CheckEsp
  01842	8b e5		 mov	 esp, ebp
  01844	5d		 pop	 ebp
  01845	c3		 ret	 0
?OnBnClickedLarge@CTopPanelWnd@@IAEXXZ ENDP		; CTopPanelWnd::OnBnClickedLarge
; Function compile flags: /Odt /RTCsu
tv72 = -12						; size = 4
tv66 = -8						; size = 4
_this$ = -4						; size = 4
?OnBnClickedNormal@CTopPanelWnd@@IAEXXZ PROC NEAR	; CTopPanelWnd::OnBnClickedNormal
; _this$ = ecx

; 221  : {

  01850	55		 push	 ebp
  01851	8b ec		 mov	 ebp, esp
  01853	83 ec 0c	 sub	 esp, 12			; 0000000cH
  01856	56		 push	 esi
  01857	c7 45 f4 cc cc
	cc cc		 mov	 DWORD PTR [ebp-12], -858993460 ; ccccccccH
  0185e	c7 45 f8 cc cc
	cc cc		 mov	 DWORD PTR [ebp-8], -858993460 ; ccccccccH
  01865	c7 45 fc cc cc
	cc cc		 mov	 DWORD PTR [ebp-4], -858993460 ; ccccccccH
  0186c	89 4d fc	 mov	 DWORD PTR _this$[ebp], ecx

; 222  : 	GLOBAL_PANELCHANGEDATA->IPanelChange_Restore();

  0186f	e8 00 00 00 00	 call	 ?AfxGetDataManager2@@YAPAVIDataManager@@XZ ; AfxGetDataManager2
  01874	89 45 f8	 mov	 DWORD PTR tv66[ebp], eax
  01877	8b f4		 mov	 esi, esp
  01879	68 00 00 00 00	 push	 OFFSET FLAT:_ID_DATA_PANELCHANGE
  0187e	8b 45 f8	 mov	 eax, DWORD PTR tv66[ebp]
  01881	8b 10		 mov	 edx, DWORD PTR [eax]
  01883	8b 4d f8	 mov	 ecx, DWORD PTR tv66[ebp]
  01886	ff 52 0c	 call	 DWORD PTR [edx+12]
  01889	3b f4		 cmp	 esi, esp
  0188b	e8 00 00 00 00	 call	 __RTC_CheckEsp
  01890	89 45 f4	 mov	 DWORD PTR tv72[ebp], eax
  01893	8b 45 f4	 mov	 eax, DWORD PTR tv72[ebp]
  01896	8b 10		 mov	 edx, DWORD PTR [eax]
  01898	8b f4		 mov	 esi, esp
  0189a	8b 4d f4	 mov	 ecx, DWORD PTR tv72[ebp]
  0189d	ff 52 20	 call	 DWORD PTR [edx+32]
  018a0	3b f4		 cmp	 esi, esp
  018a2	e8 00 00 00 00	 call	 __RTC_CheckEsp

; 223  : }

  018a7	5e		 pop	 esi
  018a8	83 c4 0c	 add	 esp, 12			; 0000000cH
  018ab	3b ec		 cmp	 ebp, esp
  018ad	e8 00 00 00 00	 call	 __RTC_CheckEsp
  018b2	8b e5		 mov	 esp, ebp
  018b4	5d		 pop	 ebp
  018b5	c3		 ret	 0
?OnBnClickedNormal@CTopPanelWnd@@IAEXXZ ENDP		; CTopPanelWnd::OnBnClickedNormal
_TEXT	ENDS
PUBLIC	?CompareStringWFake@ATL@@YGHKKPB_WH0H@Z		; ATL::CompareStringWFake
EXTRN	__imp__CompareStringW@24:NEAR
; Function compile flags: /Odt /RTCsu
; File d:\program files (x86)\microsoft visual studio .net 2003\vc7\atlmfc\include\cstringt.h
;	COMDAT ?CompareStringWThunk@ATL@@YGHKKPB_WH0H@Z
_TEXT	SEGMENT
_lcid$ = 8						; size = 4
_dwFlags$ = 12						; size = 4
_pszString1$ = 16					; size = 4
_nLength1$ = 20						; size = 4
_pszString2$ = 24					; size = 4
_nLength2$ = 28						; size = 4
?CompareStringWThunk@ATL@@YGHKKPB_WH0H@Z PROC NEAR	; ATL::CompareStringWThunk, COMDAT

; 216  : {

  00000	55		 push	 ebp
  00001	8b ec		 mov	 ebp, esp
  00003	56		 push	 esi

; 217  : 	_AtlInstallStringThunk(reinterpret_cast<void**>(&_strthunks.pfnCompareStringW), CompareStringWFake, ::CompareStringW);

  00004	a1 00 00 00 00	 mov	 eax, DWORD PTR __imp__CompareStringW@24
  00009	50		 push	 eax
  0000a	68 00 00 00 00	 push	 OFFSET FLAT:?CompareStringWFake@ATL@@YGHKKPB_WH0H@Z ; ATL::CompareStringWFake
  0000f	68 00 00 00 00	 push	 OFFSET FLAT:?_strthunks@ATL@@3U_AtlStringThunks@1@A ; ATL::_strthunks
  00014	e8 00 00 00 00	 call	 ?_AtlInstallStringThunk@ATL@@YAXPAPAXPAX1@Z ; ATL::_AtlInstallStringThunk
  00019	83 c4 0c	 add	 esp, 12			; 0000000cH

; 218  : 
; 219  : 	return _strthunks.pfnCompareStringW(lcid, dwFlags, pszString1, nLength1, pszString2, nLength2);

  0001c	8b f4		 mov	 esi, esp
  0001e	8b 4d 1c	 mov	 ecx, DWORD PTR _nLength2$[ebp]
  00021	51		 push	 ecx
  00022	8b 55 18	 mov	 edx, DWORD PTR _pszString2$[ebp]
  00025	52		 push	 edx
  00026	8b 45 14	 mov	 eax, DWORD PTR _nLength1$[ebp]
  00029	50		 push	 eax
  0002a	8b 4d 10	 mov	 ecx, DWORD PTR _pszString1$[ebp]
  0002d	51		 push	 ecx
  0002e	8b 55 0c	 mov	 edx, DWORD PTR _dwFlags$[ebp]
  00031	52		 push	 edx
  00032	8b 45 08	 mov	 eax, DWORD PTR _lcid$[ebp]
  00035	50		 push	 eax
  00036	ff 15 00 00 00
	00		 call	 DWORD PTR ?_strthunks@ATL@@3U_AtlStringThunks@1@A
  0003c	3b f4		 cmp	 esi, esp
  0003e	e8 00 00 00 00	 call	 __RTC_CheckEsp

; 220  : }

  00043	5e		 pop	 esi
  00044	3b ec		 cmp	 ebp, esp
  00046	e8 00 00 00 00	 call	 __RTC_CheckEsp
  0004b	5d		 pop	 ebp
  0004c	c2 18 00	 ret	 24			; 00000018H
?CompareStringWThunk@ATL@@YGHKKPB_WH0H@Z ENDP		; ATL::CompareStringWThunk
_TEXT	ENDS
PUBLIC	?_AtlVerifyStackAvailable@_ATL_SAFE_ALLOCA_IMPL@ATL@@YA_NK@Z ; ATL::_ATL_SAFE_ALLOCA_IMPL::_AtlVerifyStackAvailable
PUBLIC	?AtlThrow@ATL@@YGXJ@Z				; ATL::AtlThrow
PUBLIC	?AtlW2AHelper@@YGPADPADPB_WHI@Z			; AtlW2AHelper
PUBLIC	??0?$CAtlSafeAllocBufferManager@VCCRTAllocator@ATL@@@_ATL_SAFE_ALLOCA_IMPL@ATL@@QAE@XZ ; ATL::_ATL_SAFE_ALLOCA_IMPL::CAtlSafeAllocBufferManager<ATL::CCRTAllocator>::CAtlSafeAllocBufferManager<ATL::CCRTAllocator>
PUBLIC	?Allocate@?$CAtlSafeAllocBufferManager@VCCRTAllocator@ATL@@@_ATL_SAFE_ALLOCA_IMPL@ATL@@QAEPAXK@Z ; ATL::_ATL_SAFE_ALLOCA_IMPL::CAtlSafeAllocBufferManager<ATL::CCRTAllocator>::Allocate
PUBLIC	??1?$CAtlSafeAllocBufferManager@VCCRTAllocator@ATL@@@_ATL_SAFE_ALLOCA_IMPL@ATL@@QAE@XZ ; ATL::_ATL_SAFE_ALLOCA_IMPL::CAtlSafeAllocBufferManager<ATL::CCRTAllocator>::~CAtlSafeAllocBufferManager<ATL::CCRTAllocator>
EXTRN	__imp__lstrlenW@4:NEAR
EXTRN	__imp__CompareStringA@24:NEAR
EXTRN	__alloca_probe:NEAR
;	COMDAT xdata$x
xdata$x	SEGMENT
$T198186 DD	0ffffffffH
	DD	FLAT:$L198178
$T198180 DD	019930520H
	DD	01H
	DD	FLAT:$T198186
	DD	2 DUP(00H)
	DD	2 DUP(00H)
; Function compile flags: /Odt /RTCsu
xdata$x	ENDS
;	COMDAT ?CompareStringWFake@ATL@@YGHKKPB_WH0H@Z
_TEXT	SEGMENT
tv147 = -76						; size = 4
tv142 = -72						; size = 4
tv149 = -68						; size = 4
tv89 = -64						; size = 4
tv84 = -60						; size = 4
tv91 = -56						; size = 4
$T198177 = -52						; size = 4
_pszAString2$ = -48					; size = 4
_pszAString1$ = -44					; size = 4
__AtlSafeAllocaManager$ = -36				; size = 4
__lpa_ex$ = -28						; size = 4
__lpw_ex$ = -24						; size = 4
__acp_ex$ = -20						; size = 4
__convert_ex$ = -16					; size = 4
__$EHRec$ = -12						; size = 12
_lcid$ = 8						; size = 4
_dwFlags$ = 12						; size = 4
_pszString1$ = 16					; size = 4
_nLength1$ = 20						; size = 4
_pszString2$ = 24					; size = 4
_nLength2$ = 28						; size = 4
?CompareStringWFake@ATL@@YGHKKPB_WH0H@Z PROC NEAR	; ATL::CompareStringWFake, COMDAT

; 192  : {

  00000	55		 push	 ebp
  00001	8b ec		 mov	 ebp, esp
  00003	6a ff		 push	 -1
  00005	68 00 00 00 00	 push	 __ehhandler$?CompareStringWFake@ATL@@YGHKKPB_WH0H@Z
  0000a	64 a1 00 00 00
	00		 mov	 eax, DWORD PTR fs:__except_list
  00010	50		 push	 eax
  00011	64 89 25 00 00
	00 00		 mov	 DWORD PTR fs:__except_list, esp
  00018	83 ec 40	 sub	 esp, 64			; 00000040H
  0001b	56		 push	 esi
  0001c	57		 push	 edi
  0001d	8d 7d b4	 lea	 edi, DWORD PTR [ebp-76]
  00020	b9 10 00 00 00	 mov	 ecx, 16			; 00000010H
  00025	b8 cc cc cc cc	 mov	 eax, -858993460		; ccccccccH
  0002a	f3 ab		 rep stosd

; 193  : 	USES_CONVERSION_EX;

  0002c	c7 45 f0 00 00
	00 00		 mov	 DWORD PTR __convert_ex$[ebp], 0
  00033	e8 00 00 00 00	 call	 ?_AtlGetConversionACP@ATL@@YGIXZ ; ATL::_AtlGetConversionACP
  00038	89 45 ec	 mov	 DWORD PTR __acp_ex$[ebp], eax
  0003b	c7 45 e8 00 00
	00 00		 mov	 DWORD PTR __lpw_ex$[ebp], 0
  00042	c7 45 e4 00 00
	00 00		 mov	 DWORD PTR __lpa_ex$[ebp], 0
  00049	8d 4d dc	 lea	 ecx, DWORD PTR __AtlSafeAllocaManager$[ebp]
  0004c	e8 00 00 00 00	 call	 ??0?$CAtlSafeAllocBufferManager@VCCRTAllocator@ATL@@@_ATL_SAFE_ALLOCA_IMPL@ATL@@QAE@XZ ; ATL::_ATL_SAFE_ALLOCA_IMPL::CAtlSafeAllocBufferManager<ATL::CCRTAllocator>::CAtlSafeAllocBufferManager<ATL::CCRTAllocator>
  00051	c7 45 fc 00 00
	00 00		 mov	 DWORD PTR __$EHRec$[ebp+8], 0

; 194  : 	
; 195  : 	LPCSTR pszAString1 = NULL;

  00058	c7 45 d4 00 00
	00 00		 mov	 DWORD PTR _pszAString1$[ebp], 0

; 196  : 	if(pszString1 != NULL)

  0005f	83 7d 10 00	 cmp	 DWORD PTR _pszString1$[ebp], 0
  00063	0f 84 a1 00 00
	00		 je	 $L26349

; 197  : 	{
; 198  : 		pszAString1 = W2A_EX(pszString1,_ATL_SAFE_ALLOCA_DEF_THRESHOLD);

  00069	8b 45 10	 mov	 eax, DWORD PTR _pszString1$[ebp]
  0006c	89 45 e8	 mov	 DWORD PTR __lpw_ex$[ebp], eax
  0006f	83 7d e8 00	 cmp	 DWORD PTR __lpw_ex$[ebp], 0
  00073	75 09		 jne	 SHORT $L198171
  00075	c7 45 c8 00 00
	00 00		 mov	 DWORD PTR tv91[ebp], 0
  0007c	eb 76		 jmp	 SHORT $L198172
$L198171:
  0007e	8b f4		 mov	 esi, esp
  00080	8b 4d e8	 mov	 ecx, DWORD PTR __lpw_ex$[ebp]
  00083	51		 push	 ecx
  00084	ff 15 00 00 00
	00		 call	 DWORD PTR __imp__lstrlenW@4
  0008a	3b f4		 cmp	 esi, esp
  0008c	e8 00 00 00 00	 call	 __RTC_CheckEsp
  00091	8d 54 00 02	 lea	 edx, DWORD PTR [eax+eax+2]
  00095	89 55 f0	 mov	 DWORD PTR __convert_ex$[ebp], edx
  00098	81 7d f0 00 04
	00 00		 cmp	 DWORD PTR __convert_ex$[ebp], 1024 ; 00000400H
  0009f	7f 2c		 jg	 SHORT $L198169
  000a1	8b 45 f0	 mov	 eax, DWORD PTR __convert_ex$[ebp]
  000a4	50		 push	 eax
  000a5	e8 00 00 00 00	 call	 ?_AtlVerifyStackAvailable@_ATL_SAFE_ALLOCA_IMPL@ATL@@YA_NK@Z ; ATL::_ATL_SAFE_ALLOCA_IMPL::_AtlVerifyStackAvailable
  000aa	83 c4 04	 add	 esp, 4
  000ad	0f b6 c8	 movzx	 ecx, al
  000b0	85 c9		 test	 ecx, ecx
  000b2	74 19		 je	 SHORT $L198169
  000b4	8b 45 f0	 mov	 eax, DWORD PTR __convert_ex$[ebp]
  000b7	83 c0 03	 add	 eax, 3
  000ba	83 e0 fc	 and	 eax, -4			; fffffffcH
  000bd	e8 00 00 00 00	 call	 __alloca_probe
  000c2	89 65 c4	 mov	 DWORD PTR tv84[ebp], esp
  000c5	8b 55 c4	 mov	 edx, DWORD PTR tv84[ebp]
  000c8	89 55 c0	 mov	 DWORD PTR tv89[ebp], edx
  000cb	eb 0f		 jmp	 SHORT $L198170
$L198169:
  000cd	8b 45 f0	 mov	 eax, DWORD PTR __convert_ex$[ebp]
  000d0	50		 push	 eax
  000d1	8d 4d dc	 lea	 ecx, DWORD PTR __AtlSafeAllocaManager$[ebp]
  000d4	e8 00 00 00 00	 call	 ?Allocate@?$CAtlSafeAllocBufferManager@VCCRTAllocator@ATL@@@_ATL_SAFE_ALLOCA_IMPL@ATL@@QAEPAXK@Z ; ATL::_ATL_SAFE_ALLOCA_IMPL::CAtlSafeAllocBufferManager<ATL::CCRTAllocator>::Allocate
  000d9	89 45 c0	 mov	 DWORD PTR tv89[ebp], eax
$L198170:
  000dc	8b 4d ec	 mov	 ecx, DWORD PTR __acp_ex$[ebp]
  000df	51		 push	 ecx
  000e0	8b 55 f0	 mov	 edx, DWORD PTR __convert_ex$[ebp]
  000e3	52		 push	 edx
  000e4	8b 45 e8	 mov	 eax, DWORD PTR __lpw_ex$[ebp]
  000e7	50		 push	 eax
  000e8	8b 4d c0	 mov	 ecx, DWORD PTR tv89[ebp]
  000eb	51		 push	 ecx
  000ec	e8 00 00 00 00	 call	 ?AtlW2AHelper@@YGPADPADPB_WHI@Z ; AtlW2AHelper
  000f1	89 45 c8	 mov	 DWORD PTR tv91[ebp], eax
$L198172:
  000f4	8b 55 c8	 mov	 edx, DWORD PTR tv91[ebp]
  000f7	89 55 d4	 mov	 DWORD PTR _pszAString1$[ebp], edx

; 199  : 		if(pszAString1 == NULL)

  000fa	83 7d d4 00	 cmp	 DWORD PTR _pszAString1$[ebp], 0
  000fe	75 0a		 jne	 SHORT $L26349

; 200  : 			AtlThrow(E_OUTOFMEMORY);

  00100	68 0e 00 07 80	 push	 -2147024882		; 8007000eH
  00105	e8 00 00 00 00	 call	 ?AtlThrow@ATL@@YGXJ@Z	; ATL::AtlThrow
$L26349:

; 201  : 	}
; 202  : 
; 203  : 	LPCSTR pszAString2 = NULL;

  0010a	c7 45 d0 00 00
	00 00		 mov	 DWORD PTR _pszAString2$[ebp], 0

; 204  : 	if(pszString2 != NULL)

  00111	83 7d 18 00	 cmp	 DWORD PTR _pszString2$[ebp], 0
  00115	0f 84 a1 00 00
	00		 je	 $L26355

; 205  : 	{
; 206  : 		pszAString2 = W2A_EX(pszString2,_ATL_SAFE_ALLOCA_DEF_THRESHOLD);

  0011b	8b 45 18	 mov	 eax, DWORD PTR _pszString2$[ebp]
  0011e	89 45 e8	 mov	 DWORD PTR __lpw_ex$[ebp], eax
  00121	83 7d e8 00	 cmp	 DWORD PTR __lpw_ex$[ebp], 0
  00125	75 09		 jne	 SHORT $L198175
  00127	c7 45 bc 00 00
	00 00		 mov	 DWORD PTR tv149[ebp], 0
  0012e	eb 76		 jmp	 SHORT $L198176
$L198175:
  00130	8b f4		 mov	 esi, esp
  00132	8b 4d e8	 mov	 ecx, DWORD PTR __lpw_ex$[ebp]
  00135	51		 push	 ecx
  00136	ff 15 00 00 00
	00		 call	 DWORD PTR __imp__lstrlenW@4
  0013c	3b f4		 cmp	 esi, esp
  0013e	e8 00 00 00 00	 call	 __RTC_CheckEsp
  00143	8d 54 00 02	 lea	 edx, DWORD PTR [eax+eax+2]
  00147	89 55 f0	 mov	 DWORD PTR __convert_ex$[ebp], edx
  0014a	81 7d f0 00 04
	00 00		 cmp	 DWORD PTR __convert_ex$[ebp], 1024 ; 00000400H
  00151	7f 2c		 jg	 SHORT $L198173
  00153	8b 45 f0	 mov	 eax, DWORD PTR __convert_ex$[ebp]
  00156	50		 push	 eax
  00157	e8 00 00 00 00	 call	 ?_AtlVerifyStackAvailable@_ATL_SAFE_ALLOCA_IMPL@ATL@@YA_NK@Z ; ATL::_ATL_SAFE_ALLOCA_IMPL::_AtlVerifyStackAvailable
  0015c	83 c4 04	 add	 esp, 4
  0015f	0f b6 c8	 movzx	 ecx, al
  00162	85 c9		 test	 ecx, ecx
  00164	74 19		 je	 SHORT $L198173
  00166	8b 45 f0	 mov	 eax, DWORD PTR __convert_ex$[ebp]
  00169	83 c0 03	 add	 eax, 3
  0016c	83 e0 fc	 and	 eax, -4			; fffffffcH
  0016f	e8 00 00 00 00	 call	 __alloca_probe
  00174	89 65 b8	 mov	 DWORD PTR tv142[ebp], esp
  00177	8b 55 b8	 mov	 edx, DWORD PTR tv142[ebp]
  0017a	89 55 b4	 mov	 DWORD PTR tv147[ebp], edx
  0017d	eb 0f		 jmp	 SHORT $L198174
$L198173:
  0017f	8b 45 f0	 mov	 eax, DWORD PTR __convert_ex$[ebp]
  00182	50		 push	 eax
  00183	8d 4d dc	 lea	 ecx, DWORD PTR __AtlSafeAllocaManager$[ebp]
  00186	e8 00 00 00 00	 call	 ?Allocate@?$CAtlSafeAllocBufferManager@VCCRTAllocator@ATL@@@_ATL_SAFE_ALLOCA_IMPL@ATL@@QAEPAXK@Z ; ATL::_ATL_SAFE_ALLOCA_IMPL::CAtlSafeAllocBufferManager<ATL::CCRTAllocator>::Allocate
  0018b	89 45 b4	 mov	 DWORD PTR tv147[ebp], eax
$L198174:
  0018e	8b 4d ec	 mov	 ecx, DWORD PTR __acp_ex$[ebp]
  00191	51		 push	 ecx
  00192	8b 55 f0	 mov	 edx, DWORD PTR __convert_ex$[ebp]
  00195	52		 push	 edx
  00196	8b 45 e8	 mov	 eax, DWORD PTR __lpw_ex$[ebp]
  00199	50		 push	 eax
  0019a	8b 4d b4	 mov	 ecx, DWORD PTR tv147[ebp]
  0019d	51		 push	 ecx
  0019e	e8 00 00 00 00	 call	 ?AtlW2AHelper@@YGPADPADPB_WHI@Z ; AtlW2AHelper
  001a3	89 45 bc	 mov	 DWORD PTR tv149[ebp], eax
$L198176:
  001a6	8b 55 bc	 mov	 edx, DWORD PTR tv149[ebp]
  001a9	89 55 d0	 mov	 DWORD PTR _pszAString2$[ebp], edx

; 207  : 		if(pszAString2 == NULL)

  001ac	83 7d d0 00	 cmp	 DWORD PTR _pszAString2$[ebp], 0
  001b0	75 0a		 jne	 SHORT $L26355

; 208  : 			AtlThrow(E_OUTOFMEMORY);

  001b2	68 0e 00 07 80	 push	 -2147024882		; 8007000eH
  001b7	e8 00 00 00 00	 call	 ?AtlThrow@ATL@@YGXJ@Z	; ATL::AtlThrow
$L26355:

; 209  : 	}
; 210  : 
; 211  : 	return ::CompareStringA(lcid, dwFlags, pszAString1, nLength1, pszAString2, nLength2);

  001bc	8b f4		 mov	 esi, esp
  001be	8b 45 1c	 mov	 eax, DWORD PTR _nLength2$[ebp]
  001c1	50		 push	 eax
  001c2	8b 4d d0	 mov	 ecx, DWORD PTR _pszAString2$[ebp]
  001c5	51		 push	 ecx
  001c6	8b 55 14	 mov	 edx, DWORD PTR _nLength1$[ebp]
  001c9	52		 push	 edx
  001ca	8b 45 d4	 mov	 eax, DWORD PTR _pszAString1$[ebp]
  001cd	50		 push	 eax
  001ce	8b 4d 0c	 mov	 ecx, DWORD PTR _dwFlags$[ebp]
  001d1	51		 push	 ecx
  001d2	8b 55 08	 mov	 edx, DWORD PTR _lcid$[ebp]
  001d5	52		 push	 edx
  001d6	ff 15 00 00 00
	00		 call	 DWORD PTR __imp__CompareStringA@24
  001dc	3b f4		 cmp	 esi, esp
  001de	e8 00 00 00 00	 call	 __RTC_CheckEsp
  001e3	89 45 cc	 mov	 DWORD PTR $T198177[ebp], eax
  001e6	c7 45 fc ff ff
	ff ff		 mov	 DWORD PTR __$EHRec$[ebp+8], -1
  001ed	8d 4d dc	 lea	 ecx, DWORD PTR __AtlSafeAllocaManager$[ebp]
  001f0	e8 00 00 00 00	 call	 ??1?$CAtlSafeAllocBufferManager@VCCRTAllocator@ATL@@@_ATL_SAFE_ALLOCA_IMPL@ATL@@QAE@XZ ; ATL::_ATL_SAFE_ALLOCA_IMPL::CAtlSafeAllocBufferManager<ATL::CCRTAllocator>::~CAtlSafeAllocBufferManager<ATL::CCRTAllocator>
  001f5	8b 45 cc	 mov	 eax, DWORD PTR $T198177[ebp]
$L198168:

; 212  : }

  001f8	8d 65 ac	 lea	 esp, DWORD PTR [ebp-84]
  001fb	52		 push	 edx
  001fc	8b cd		 mov	 ecx, ebp
  001fe	50		 push	 eax
  001ff	8d 15 00 00 00
	00		 lea	 edx, DWORD PTR $L198185
  00205	e8 00 00 00 00	 call	 @_RTC_CheckStackVars@8
  0020a	58		 pop	 eax
  0020b	5a		 pop	 edx
  0020c	8b 4d f4	 mov	 ecx, DWORD PTR __$EHRec$[ebp]
  0020f	64 89 0d 00 00
	00 00		 mov	 DWORD PTR fs:__except_list, ecx
  00216	5f		 pop	 edi
  00217	5e		 pop	 esi
  00218	8b e5		 mov	 esp, ebp
  0021a	5d		 pop	 ebp
  0021b	c2 18 00	 ret	 24			; 00000018H
$L198185:
  0021e	01 00 00 00	 DD	 1
  00222	00 00 00 00	 DD	 $L198184
$L198184:
  00226	dc ff ff ff	 DD	 -36			; ffffffdcH
  0022a	04 00 00 00	 DD	 4
  0022e	00 00 00 00	 DD	 $L198182
$L198182:
  00232	5f		 DB	 95			; 0000005fH
  00233	41		 DB	 65			; 00000041H
  00234	74		 DB	 116			; 00000074H
  00235	6c		 DB	 108			; 0000006cH
  00236	53		 DB	 83			; 00000053H
  00237	61		 DB	 97			; 00000061H
  00238	66		 DB	 102			; 00000066H
  00239	65		 DB	 101			; 00000065H
  0023a	41		 DB	 65			; 00000041H
  0023b	6c		 DB	 108			; 0000006cH
  0023c	6c		 DB	 108			; 0000006cH
  0023d	6f		 DB	 111			; 0000006fH
  0023e	63		 DB	 99			; 00000063H
  0023f	61		 DB	 97			; 00000061H
  00240	4d		 DB	 77			; 0000004dH
  00241	61		 DB	 97			; 00000061H
  00242	6e		 DB	 110			; 0000006eH
  00243	61		 DB	 97			; 00000061H
  00244	67		 DB	 103			; 00000067H
  00245	65		 DB	 101			; 00000065H
  00246	72		 DB	 114			; 00000072H
  00247	00		 DB	 0
_TEXT	ENDS
;	COMDAT text$x
text$x	SEGMENT
$L198178:
  00000	8d 4d dc	 lea	 ecx, DWORD PTR __AtlSafeAllocaManager$[ebp]
  00003	e9 00 00 00 00	 jmp	 ??1?$CAtlSafeAllocBufferManager@VCCRTAllocator@ATL@@@_ATL_SAFE_ALLOCA_IMPL@ATL@@QAE@XZ ; ATL::_ATL_SAFE_ALLOCA_IMPL::CAtlSafeAllocBufferManager<ATL::CCRTAllocator>::~CAtlSafeAllocBufferManager<ATL::CCRTAllocator>
__ehhandler$?CompareStringWFake@ATL@@YGHKKPB_WH0H@Z:
  00008	b8 00 00 00 00	 mov	 eax, OFFSET FLAT:$T198180
  0000d	e9 00 00 00 00	 jmp	 ___CxxFrameHandler
text$x	ENDS
?CompareStringWFake@ATL@@YGHKKPB_WH0H@Z ENDP		; ATL::CompareStringWFake
EXTRN	__imp___resetstkoflw:NEAR
EXTRN	__except_handler3:NEAR
;	COMDAT CONST
; File d:\program files (x86)\microsoft visual studio .net 2003\vc7\atlmfc\include\atlalloc.h
CONST	SEGMENT
$T198196 DD	0ffffffffH
	DD	FLAT:$L198191
	DD	FLAT:$L198192
; Function compile flags: /Odt /RTCsu
CONST	ENDS
;	COMDAT ?_AtlVerifyStackAvailable@_ATL_SAFE_ALLOCA_IMPL@ATL@@YA_NK@Z
_TEXT	SEGMENT
tv65 = -48						; size = 4
$T198195 = -44						; size = 4
_p$24107 = -36						; size = 4
_bStackAvailable$ = -25					; size = 1
__$SEHRec$ = -24					; size = 24
_Size$ = 8						; size = 4
?_AtlVerifyStackAvailable@_ATL_SAFE_ALLOCA_IMPL@ATL@@YA_NK@Z PROC NEAR ; ATL::_ATL_SAFE_ALLOCA_IMPL::_AtlVerifyStackAvailable, COMDAT

; 331  : {

  00000	55		 push	 ebp
  00001	8b ec		 mov	 ebp, esp
  00003	6a ff		 push	 -1
  00005	68 00 00 00 00	 push	 OFFSET FLAT:$T198196
  0000a	68 00 00 00 00	 push	 OFFSET FLAT:__except_handler3
  0000f	64 a1 00 00 00
	00		 mov	 eax, DWORD PTR fs:__except_list
  00015	50		 push	 eax
  00016	64 89 25 00 00
	00 00		 mov	 DWORD PTR fs:__except_list, esp
  0001d	83 c4 e0	 add	 esp, -32		; ffffffe0H
  00020	53		 push	 ebx
  00021	56		 push	 esi
  00022	57		 push	 edi
  00023	b8 cc cc cc cc	 mov	 eax, -858993460		; ccccccccH
  00028	89 45 d0	 mov	 DWORD PTR [ebp-48], eax
  0002b	89 45 d4	 mov	 DWORD PTR [ebp-44], eax
  0002e	89 45 d8	 mov	 DWORD PTR [ebp-40], eax
  00031	89 45 dc	 mov	 DWORD PTR [ebp-36], eax
  00034	89 45 e0	 mov	 DWORD PTR [ebp-32], eax
  00037	89 45 e4	 mov	 DWORD PTR [ebp-28], eax
  0003a	89 65 e8	 mov	 DWORD PTR __$SEHRec$[ebp], esp

; 332  :     bool bStackAvailable = true;

  0003d	c6 45 e7 01	 mov	 BYTE PTR _bStackAvailable$[ebp], 1

; 333  : 
; 334  :     __try

  00041	c7 45 fc 00 00
	00 00		 mov	 DWORD PTR __$SEHRec$[ebp+20], 0

; 335  :     {
; 336  :         PVOID p = _alloca(Size + _ATL_STACK_MARGIN);

  00048	8b 45 08	 mov	 eax, DWORD PTR _Size$[ebp]
  0004b	05 03 20 00 00	 add	 eax, 8195		; 00002003H
  00050	83 e0 fc	 and	 eax, -4			; fffffffcH
  00053	e8 00 00 00 00	 call	 __alloca_probe
  00058	89 65 d0	 mov	 DWORD PTR tv65[ebp], esp
  0005b	89 65 e8	 mov	 DWORD PTR __$SEHRec$[ebp], esp
  0005e	8b 45 d0	 mov	 eax, DWORD PTR tv65[ebp]
  00061	89 45 dc	 mov	 DWORD PTR _p$24107[ebp], eax
  00064	c7 45 fc ff ff
	ff ff		 mov	 DWORD PTR __$SEHRec$[ebp+20], -1
  0006b	eb 35		 jmp	 SHORT $L198194
$L198191:

; 337  :         (p);
; 338  :     }
; 339  :     __except ((EXCEPTION_STACK_OVERFLOW == GetExceptionCode()) ?
; 340  :                    EXCEPTION_EXECUTE_HANDLER :
; 341  :                    EXCEPTION_CONTINUE_SEARCH)

  0006d	8b 4d ec	 mov	 ecx, DWORD PTR __$SEHRec$[ebp+4]
  00070	8b 11		 mov	 edx, DWORD PTR [ecx]
  00072	8b 02		 mov	 eax, DWORD PTR [edx]
  00074	89 45 d4	 mov	 DWORD PTR $T198195[ebp], eax
  00077	8b 45 d4	 mov	 eax, DWORD PTR $T198195[ebp]
  0007a	2d fd 00 00 c0	 sub	 eax, -1073741571	; c00000fdH
  0007f	f7 d8		 neg	 eax
  00081	1b c0		 sbb	 eax, eax
  00083	40		 inc	 eax
$L198193:
  00084	c3		 ret	 0
$L198192:
  00085	8b 65 e8	 mov	 esp, DWORD PTR __$SEHRec$[ebp]

; 342  :     {
; 343  :         bStackAvailable = false;

  00088	c6 45 e7 00	 mov	 BYTE PTR _bStackAvailable$[ebp], 0

; 344  :         _resetstkoflw();

  0008c	8b f4		 mov	 esi, esp
  0008e	ff 15 00 00 00
	00		 call	 DWORD PTR __imp___resetstkoflw
  00094	3b f4		 cmp	 esi, esp
  00096	e8 00 00 00 00	 call	 __RTC_CheckEsp
  0009b	c7 45 fc ff ff
	ff ff		 mov	 DWORD PTR __$SEHRec$[ebp+20], -1
$L198194:

; 345  :     }
; 346  :     return bStackAvailable;

  000a2	8a 45 e7	 mov	 al, BYTE PTR _bStackAvailable$[ebp]
$L198190:

; 347  : }

  000a5	8d 65 c4	 lea	 esp, DWORD PTR [ebp-60]
  000a8	52		 push	 edx
  000a9	8b cd		 mov	 ecx, ebp
  000ab	50		 push	 eax
  000ac	8d 15 00 00 00
	00		 lea	 edx, DWORD PTR $L198201
  000b2	e8 00 00 00 00	 call	 @_RTC_CheckStackVars@8
  000b7	58		 pop	 eax
  000b8	5a		 pop	 edx
  000b9	8b 4d f0	 mov	 ecx, DWORD PTR __$SEHRec$[ebp+8]
  000bc	64 89 0d 00 00
	00 00		 mov	 DWORD PTR fs:__except_list, ecx
  000c3	5f		 pop	 edi
  000c4	5e		 pop	 esi
  000c5	5b		 pop	 ebx
  000c6	8b e5		 mov	 esp, ebp
  000c8	5d		 pop	 ebp
  000c9	c3		 ret	 0
$L198201:
  000ca	01 00 00 00	 DD	 1
  000ce	00 00 00 00	 DD	 $L198200
$L198200:
  000d2	dc ff ff ff	 DD	 -36			; ffffffdcH
  000d6	04 00 00 00	 DD	 4
  000da	00 00 00 00	 DD	 $L198198
$L198198:
  000de	70		 DB	 112			; 00000070H
  000df	00		 DB	 0
?_AtlVerifyStackAvailable@_ATL_SAFE_ALLOCA_IMPL@ATL@@YA_NK@Z ENDP ; ATL::_ATL_SAFE_ALLOCA_IMPL::_AtlVerifyStackAvailable
_TEXT	ENDS
PUBLIC	??_C@_08DMHHBMMN@lpa?5?$CB?$DN?50?$AA@		; `string'
PUBLIC	??_C@_0FG@PFHCBDBK@D?3?2Program?5Files?5?$CIx86?$CJ?2Microsoft@ ; `string'
PUBLIC	??_C@_08DIHJLFDJ@lpw?5?$CB?$DN?50?$AA@		; `string'
PUBLIC	??_C@_01GBGANLPD@0?$AA@				; `string'
EXTRN	__imp__WideCharToMultiByte@32:NEAR
;	COMDAT ??_C@_08DIHJLFDJ@lpw?5?$CB?$DN?50?$AA@
; File d:\program files (x86)\microsoft visual studio .net 2003\vc7\atlmfc\include\atlconv.h
CONST	SEGMENT
??_C@_08DIHJLFDJ@lpw?5?$CB?$DN?50?$AA@ DB 'lpw != 0', 00H ; `string'
CONST	ENDS
;	COMDAT ??_C@_0FG@PFHCBDBK@D?3?2Program?5Files?5?$CIx86?$CJ?2Microsoft@
CONST	SEGMENT
??_C@_0FG@PFHCBDBK@D?3?2Program?5Files?5?$CIx86?$CJ?2Microsoft@ DB 'D:\Pr'
	DB	'ogram Files (x86)\Microsoft Visual Studio .NET 2003\Vc7\atlmf'
	DB	'c\include\atlconv.h', 00H			; `string'
CONST	ENDS
;	COMDAT ??_C@_08DMHHBMMN@lpa?5?$CB?$DN?50?$AA@
CONST	SEGMENT
??_C@_08DMHHBMMN@lpa?5?$CB?$DN?50?$AA@ DB 'lpa != 0', 00H ; `string'
CONST	ENDS
;	COMDAT ??_C@_01GBGANLPD@0?$AA@
CONST	SEGMENT
??_C@_01GBGANLPD@0?$AA@ DB '0', 00H			; `string'
; Function compile flags: /Odt /RTCsu
CONST	ENDS
;	COMDAT ?AtlW2AHelper@@YGPADPADPB_WHI@Z
_TEXT	SEGMENT
_ret$ = -4						; size = 4
_lpa$ = 8						; size = 4
_lpw$ = 12						; size = 4
_nChars$ = 16						; size = 4
_acp$ = 20						; size = 4
?AtlW2AHelper@@YGPADPADPB_WHI@Z PROC NEAR		; AtlW2AHelper, COMDAT

; 573  : {

  00000	55		 push	 ebp
  00001	8b ec		 mov	 ebp, esp
  00003	51		 push	 ecx
  00004	56		 push	 esi
  00005	c7 45 fc cc cc
	cc cc		 mov	 DWORD PTR [ebp-4], -858993460 ; ccccccccH

; 574  : 	ATLASSERT(lpw != NULL);

  0000c	83 7d 0c 00	 cmp	 DWORD PTR _lpw$[ebp], 0
  00010	75 2b		 jne	 SHORT $L198205
  00012	8b f4		 mov	 esi, esp
  00014	68 00 00 00 00	 push	 OFFSET FLAT:??_C@_08DIHJLFDJ@lpw?5?$CB?$DN?50?$AA@
  00019	6a 00		 push	 0
  0001b	68 3e 02 00 00	 push	 574			; 0000023eH
  00020	68 00 00 00 00	 push	 OFFSET FLAT:??_C@_0FG@PFHCBDBK@D?3?2Program?5Files?5?$CIx86?$CJ?2Microsoft@
  00025	6a 02		 push	 2
  00027	ff 15 00 00 00
	00		 call	 DWORD PTR __imp___CrtDbgReport
  0002d	83 c4 14	 add	 esp, 20			; 00000014H
  00030	3b f4		 cmp	 esi, esp
  00032	e8 00 00 00 00	 call	 __RTC_CheckEsp
  00037	83 f8 01	 cmp	 eax, 1
  0003a	75 01		 jne	 SHORT $L198205
  0003c	cc		 int	 3
$L198205:

; 575  : 	ATLASSERT(lpa != NULL);

  0003d	83 7d 08 00	 cmp	 DWORD PTR _lpa$[ebp], 0
  00041	75 2b		 jne	 SHORT $L198206
  00043	8b f4		 mov	 esi, esp
  00045	68 00 00 00 00	 push	 OFFSET FLAT:??_C@_08DMHHBMMN@lpa?5?$CB?$DN?50?$AA@
  0004a	6a 00		 push	 0
  0004c	68 3f 02 00 00	 push	 575			; 0000023fH
  00051	68 00 00 00 00	 push	 OFFSET FLAT:??_C@_0FG@PFHCBDBK@D?3?2Program?5Files?5?$CIx86?$CJ?2Microsoft@
  00056	6a 02		 push	 2
  00058	ff 15 00 00 00
	00		 call	 DWORD PTR __imp___CrtDbgReport
  0005e	83 c4 14	 add	 esp, 20			; 00000014H
  00061	3b f4		 cmp	 esi, esp
  00063	e8 00 00 00 00	 call	 __RTC_CheckEsp
  00068	83 f8 01	 cmp	 eax, 1
  0006b	75 01		 jne	 SHORT $L198206
  0006d	cc		 int	 3
$L198206:

; 576  : 	if (lpa == NULL || lpw == NULL)

  0006e	83 7d 08 00	 cmp	 DWORD PTR _lpa$[ebp], 0
  00072	74 06		 je	 SHORT $L24313
  00074	83 7d 0c 00	 cmp	 DWORD PTR _lpw$[ebp], 0
  00078	75 04		 jne	 SHORT $L24312
$L24313:

; 577  : 		return NULL;

  0007a	33 c0		 xor	 eax, eax
  0007c	eb 6c		 jmp	 SHORT $L24309
$L24312:

; 578  : 	// verify that no illegal character present
; 579  : 	// since lpa was allocated based on the size of lpw
; 580  : 	// don't worry about the number of chars
; 581  : 	lpa[0] = '\0';

  0007e	8b 55 08	 mov	 edx, DWORD PTR _lpa$[ebp]
  00081	c6 02 00	 mov	 BYTE PTR [edx], 0

; 582  : 	int ret = WideCharToMultiByte(acp, 0, lpw, -1, lpa, nChars, NULL, NULL);

  00084	8b f4		 mov	 esi, esp
  00086	6a 00		 push	 0
  00088	6a 00		 push	 0
  0008a	8b 45 10	 mov	 eax, DWORD PTR _nChars$[ebp]
  0008d	50		 push	 eax
  0008e	8b 4d 08	 mov	 ecx, DWORD PTR _lpa$[ebp]
  00091	51		 push	 ecx
  00092	6a ff		 push	 -1
  00094	8b 55 0c	 mov	 edx, DWORD PTR _lpw$[ebp]
  00097	52		 push	 edx
  00098	6a 00		 push	 0
  0009a	8b 45 14	 mov	 eax, DWORD PTR _acp$[ebp]
  0009d	50		 push	 eax
  0009e	ff 15 00 00 00
	00		 call	 DWORD PTR __imp__WideCharToMultiByte@32
  000a4	3b f4		 cmp	 esi, esp
  000a6	e8 00 00 00 00	 call	 __RTC_CheckEsp
  000ab	89 45 fc	 mov	 DWORD PTR _ret$[ebp], eax

; 583  : 	if(ret == 0)

  000ae	83 7d fc 00	 cmp	 DWORD PTR _ret$[ebp], 0
  000b2	75 33		 jne	 SHORT $L24315

; 584  : 	{
; 585  : 		ATLASSERT(FALSE);

  000b4	33 c9		 xor	 ecx, ecx
  000b6	75 2b		 jne	 SHORT $L198207
  000b8	8b f4		 mov	 esi, esp
  000ba	68 00 00 00 00	 push	 OFFSET FLAT:??_C@_01GBGANLPD@0?$AA@
  000bf	6a 00		 push	 0
  000c1	68 49 02 00 00	 push	 585			; 00000249H
  000c6	68 00 00 00 00	 push	 OFFSET FLAT:??_C@_0FG@PFHCBDBK@D?3?2Program?5Files?5?$CIx86?$CJ?2Microsoft@
  000cb	6a 02		 push	 2
  000cd	ff 15 00 00 00
	00		 call	 DWORD PTR __imp___CrtDbgReport
  000d3	83 c4 14	 add	 esp, 20			; 00000014H
  000d6	3b f4		 cmp	 esi, esp
  000d8	e8 00 00 00 00	 call	 __RTC_CheckEsp
  000dd	83 f8 01	 cmp	 eax, 1
  000e0	75 01		 jne	 SHORT $L198207
  000e2	cc		 int	 3
$L198207:

; 586  : 		return NULL;

  000e3	33 c0		 xor	 eax, eax
  000e5	eb 03		 jmp	 SHORT $L24309
$L24315:

; 587  : 	}
; 588  : 	return lpa;

  000e7	8b 45 08	 mov	 eax, DWORD PTR _lpa$[ebp]
$L24309:

; 589  : }

  000ea	5e		 pop	 esi
  000eb	83 c4 04	 add	 esp, 4
  000ee	3b ec		 cmp	 ebp, esp
  000f0	e8 00 00 00 00	 call	 __RTC_CheckEsp
  000f5	8b e5		 mov	 esp, ebp
  000f7	5d		 pop	 ebp
  000f8	c2 10 00	 ret	 16			; 00000010H
?AtlW2AHelper@@YGPADPADPB_WHI@Z ENDP			; AtlW2AHelper
_TEXT	ENDS
PUBLIC	??BCTraceCategory@ATL@@QBEKXZ			; ATL::CTraceCategory::operator unsigned long
PUBLIC	??0CTraceFileAndLineInfo@ATL@@QAE@PBDH@Z	; ATL::CTraceFileAndLineInfo::CTraceFileAndLineInfo
PUBLIC	??RCTraceFileAndLineInfo@ATL@@QBAXKIPBDZZ	; ATL::CTraceFileAndLineInfo::operator()
PUBLIC	??_C@_0FI@NHHJANPC@D?3?2Program?5Files?5?$CIx86?$CJ?2Microsoft@ ; `string'
PUBLIC	??_C@_0BF@IAAKIJDJ@AtlThrow?3?5hr?5?$DN?50x?$CFx?6?$AA@ ; `string'
EXTRN	?atlTraceException@ATL@@3VCTraceCategory@1@A:DWORD ; ATL::atlTraceException
EXTRN	?AfxThrowMemoryException@@YGXXZ:NEAR		; AfxThrowMemoryException
EXTRN	?AfxThrowOleException@@YGXJ@Z:NEAR		; AfxThrowOleException
;	COMDAT ??_C@_0BF@IAAKIJDJ@AtlThrow?3?5hr?5?$DN?50x?$CFx?6?$AA@
; File d:\program files (x86)\microsoft visual studio .net 2003\vc7\atlmfc\include\atlexcept.h
CONST	SEGMENT
??_C@_0BF@IAAKIJDJ@AtlThrow?3?5hr?5?$DN?50x?$CFx?6?$AA@ DB 'AtlThrow: hr '
	DB	'= 0x%x', 0aH, 00H				; `string'
CONST	ENDS
;	COMDAT ??_C@_0FI@NHHJANPC@D?3?2Program?5Files?5?$CIx86?$CJ?2Microsoft@
CONST	SEGMENT
??_C@_0FI@NHHJANPC@D?3?2Program?5Files?5?$CIx86?$CJ?2Microsoft@ DB 'D:\Pr'
	DB	'ogram Files (x86)\Microsoft Visual Studio .NET 2003\Vc7\atlmf'
	DB	'c\include\atlexcept.h', 00H			; `string'
; Function compile flags: /Odt /RTCsu
CONST	ENDS
;	COMDAT ?AtlThrow@ATL@@YGXJ@Z
_TEXT	SEGMENT
$T198209 = -8						; size = 8
_hr$ = 8						; size = 4
?AtlThrow@ATL@@YGXJ@Z PROC NEAR				; ATL::AtlThrow, COMDAT

; 61   : {

  00000	55		 push	 ebp
  00001	8b ec		 mov	 ebp, esp
  00003	83 ec 08	 sub	 esp, 8
  00006	c7 45 f8 cc cc
	cc cc		 mov	 DWORD PTR [ebp-8], -858993460 ; ccccccccH
  0000d	c7 45 fc cc cc
	cc cc		 mov	 DWORD PTR [ebp-4], -858993460 ; ccccccccH

; 62   : 	ATLTRACE(atlTraceException, 0, _T("AtlThrow: hr = 0x%x\n"), hr );

  00014	8b 45 08	 mov	 eax, DWORD PTR _hr$[ebp]
  00017	50		 push	 eax
  00018	68 00 00 00 00	 push	 OFFSET FLAT:??_C@_0BF@IAAKIJDJ@AtlThrow?3?5hr?5?$DN?50x?$CFx?6?$AA@
  0001d	6a 00		 push	 0
  0001f	b9 00 00 00 00	 mov	 ecx, OFFSET FLAT:?atlTraceException@ATL@@3VCTraceCategory@1@A ; ATL::atlTraceException
  00024	e8 00 00 00 00	 call	 ??BCTraceCategory@ATL@@QBEKXZ ; ATL::CTraceCategory::operator unsigned long
  00029	50		 push	 eax
  0002a	6a 3e		 push	 62			; 0000003eH
  0002c	68 00 00 00 00	 push	 OFFSET FLAT:??_C@_0FI@NHHJANPC@D?3?2Program?5Files?5?$CIx86?$CJ?2Microsoft@
  00031	8d 4d f8	 lea	 ecx, DWORD PTR $T198209[ebp]
  00034	e8 00 00 00 00	 call	 ??0CTraceFileAndLineInfo@ATL@@QAE@PBDH@Z ; ATL::CTraceFileAndLineInfo::CTraceFileAndLineInfo
  00039	50		 push	 eax
  0003a	e8 00 00 00 00	 call	 ??RCTraceFileAndLineInfo@ATL@@QBAXKIPBDZZ ; ATL::CTraceFileAndLineInfo::operator()
  0003f	83 c4 14	 add	 esp, 20			; 00000014H

; 63   : #ifdef _AFX
; 64   : 	if( hr == E_OUTOFMEMORY )

  00042	81 7d 08 0e 00
	07 80		 cmp	 DWORD PTR _hr$[ebp], -2147024882 ; 8007000eH
  00049	75 05		 jne	 SHORT $L25222

; 65   : 	{
; 66   : 		AfxThrowMemoryException();

  0004b	e8 00 00 00 00	 call	 ?AfxThrowMemoryException@@YGXXZ ; AfxThrowMemoryException
$L25222:

; 67   : 	}
; 68   : 	else
; 69   : 	{
; 70   : 		AfxThrowOleException( hr );

  00050	8b 4d 08	 mov	 ecx, DWORD PTR _hr$[ebp]
  00053	51		 push	 ecx
  00054	e8 00 00 00 00	 call	 ?AfxThrowOleException@@YGXJ@Z ; AfxThrowOleException
$L198208:

; 71   : 	}
; 72   : #else
; 73   : 	throw CAtlException( hr );
; 74   : #endif
; 75   : };

  00059	83 c4 08	 add	 esp, 8
  0005c	3b ec		 cmp	 ebp, esp
  0005e	e8 00 00 00 00	 call	 __RTC_CheckEsp
  00063	8b e5		 mov	 esp, ebp
  00065	5d		 pop	 ebp
  00066	c2 04 00	 ret	 4
?AtlThrow@ATL@@YGXJ@Z ENDP				; ATL::AtlThrow
; Function compile flags: /Odt /RTCsu
; File d:\program files (x86)\microsoft visual studio .net 2003\vc7\atlmfc\include\atltrace.h
_TEXT	ENDS
;	COMDAT ??0CTraceFileAndLineInfo@ATL@@QAE@PBDH@Z
_TEXT	SEGMENT
_this$ = -4						; size = 4
_pszFileName$ = 8					; size = 4
_nLineNo$ = 12						; size = 4
??0CTraceFileAndLineInfo@ATL@@QAE@PBDH@Z PROC NEAR	; ATL::CTraceFileAndLineInfo::CTraceFileAndLineInfo, COMDAT
; _this$ = ecx

; 158  : 	{}

  00000	55		 push	 ebp
  00001	8b ec		 mov	 ebp, esp
  00003	51		 push	 ecx
  00004	c7 45 fc cc cc
	cc cc		 mov	 DWORD PTR [ebp-4], -858993460 ; ccccccccH
  0000b	89 4d fc	 mov	 DWORD PTR _this$[ebp], ecx
  0000e	8b 45 fc	 mov	 eax, DWORD PTR _this$[ebp]
  00011	8b 4d 08	 mov	 ecx, DWORD PTR _pszFileName$[ebp]
  00014	89 08		 mov	 DWORD PTR [eax], ecx
  00016	8b 55 fc	 mov	 edx, DWORD PTR _this$[ebp]
  00019	8b 45 0c	 mov	 eax, DWORD PTR _nLineNo$[ebp]
  0001c	89 42 04	 mov	 DWORD PTR [edx+4], eax
  0001f	8b 45 fc	 mov	 eax, DWORD PTR _this$[ebp]
  00022	8b e5		 mov	 esp, ebp
  00024	5d		 pop	 ebp
  00025	c2 08 00	 ret	 8
??0CTraceFileAndLineInfo@ATL@@QAE@PBDH@Z ENDP		; ATL::CTraceFileAndLineInfo::CTraceFileAndLineInfo
_TEXT	ENDS
PUBLIC	?TraceV@CTrace@ATL@@QBAXPBDHKI0PAD@Z		; ATL::CTrace::TraceV
EXTRN	?s_trace@CTrace@ATL@@2V12@A:QWORD		; ATL::CTrace::s_trace
; Function compile flags: /Odt /RTCsu
;	COMDAT ??RCTraceFileAndLineInfo@ATL@@QBAXKIPBDZZ
_TEXT	SEGMENT
_ptr$ = -4						; size = 4
_this$ = 8						; size = 4
_dwCategory$ = 12					; size = 4
_nLevel$ = 16						; size = 4
_pszFmt$ = 20						; size = 4
??RCTraceFileAndLineInfo@ATL@@QBAXKIPBDZZ PROC NEAR	; ATL::CTraceFileAndLineInfo::operator(), COMDAT

; 161  : 	{

  00000	55		 push	 ebp
  00001	8b ec		 mov	 ebp, esp
  00003	51		 push	 ecx
  00004	c7 45 fc cc cc
	cc cc		 mov	 DWORD PTR [ebp-4], -858993460 ; ccccccccH

; 162  : 		va_list ptr; va_start(ptr, pszFmt);

  0000b	8d 45 18	 lea	 eax, DWORD PTR _pszFmt$[ebp+4]
  0000e	89 45 fc	 mov	 DWORD PTR _ptr$[ebp], eax

; 163  : 		ATL::CTrace::s_trace.TraceV(m_pszFileName, m_nLineNo, dwCategory, nLevel, pszFmt, ptr);

  00011	8b 4d fc	 mov	 ecx, DWORD PTR _ptr$[ebp]
  00014	51		 push	 ecx
  00015	8b 55 14	 mov	 edx, DWORD PTR _pszFmt$[ebp]
  00018	52		 push	 edx
  00019	8b 45 10	 mov	 eax, DWORD PTR _nLevel$[ebp]
  0001c	50		 push	 eax
  0001d	8b 4d 0c	 mov	 ecx, DWORD PTR _dwCategory$[ebp]
  00020	51		 push	 ecx
  00021	8b 55 08	 mov	 edx, DWORD PTR _this$[ebp]
  00024	8b 42 04	 mov	 eax, DWORD PTR [edx+4]
  00027	50		 push	 eax
  00028	8b 4d 08	 mov	 ecx, DWORD PTR _this$[ebp]
  0002b	8b 11		 mov	 edx, DWORD PTR [ecx]
  0002d	52		 push	 edx
  0002e	68 00 00 00 00	 push	 OFFSET FLAT:?s_trace@CTrace@ATL@@2V12@A
  00033	e8 00 00 00 00	 call	 ?TraceV@CTrace@ATL@@QBAXPBDHKI0PAD@Z ; ATL::CTrace::TraceV
  00038	83 c4 1c	 add	 esp, 28			; 0000001cH

; 164  : 		va_end(ptr);

  0003b	c7 45 fc 00 00
	00 00		 mov	 DWORD PTR _ptr$[ebp], 0

; 165  : 	}

  00042	83 c4 04	 add	 esp, 4
  00045	3b ec		 cmp	 ebp, esp
  00047	e8 00 00 00 00	 call	 __RTC_CheckEsp
  0004c	8b e5		 mov	 esp, ebp
  0004e	5d		 pop	 ebp
  0004f	c3		 ret	 0
??RCTraceFileAndLineInfo@ATL@@QBAXKIPBDZZ ENDP		; ATL::CTraceFileAndLineInfo::operator()
_TEXT	ENDS
EXTRN	_AtlTraceVA:NEAR
; Function compile flags: /Odt /RTCsu
;	COMDAT ?TraceV@CTrace@ATL@@QBAXPBDHKI0PAD@Z
_TEXT	SEGMENT
_this$ = 8						; size = 4
_pszFileName$ = 12					; size = 4
_nLine$ = 16						; size = 4
_dwCategory$ = 20					; size = 4
_nLevel$ = 24						; size = 4
_pszFmt$ = 28						; size = 4
_args$ = 32						; size = 4
?TraceV@CTrace@ATL@@QBAXPBDHKI0PAD@Z PROC NEAR		; ATL::CTrace::TraceV, COMDAT

; 121  : 	{

  00000	55		 push	 ebp
  00001	8b ec		 mov	 ebp, esp

; 122  : 		AtlTraceVA(m_dwModule, pszFileName, nLine, dwCategory, nLevel, pszFmt, args);

  00003	8b 45 20	 mov	 eax, DWORD PTR _args$[ebp]
  00006	50		 push	 eax
  00007	8b 4d 1c	 mov	 ecx, DWORD PTR _pszFmt$[ebp]
  0000a	51		 push	 ecx
  0000b	8b 55 18	 mov	 edx, DWORD PTR _nLevel$[ebp]
  0000e	52		 push	 edx
  0000f	8b 45 14	 mov	 eax, DWORD PTR _dwCategory$[ebp]
  00012	50		 push	 eax
  00013	8b 4d 10	 mov	 ecx, DWORD PTR _nLine$[ebp]
  00016	51		 push	 ecx
  00017	8b 55 0c	 mov	 edx, DWORD PTR _pszFileName$[ebp]
  0001a	52		 push	 edx
  0001b	8b 45 08	 mov	 eax, DWORD PTR _this$[ebp]
  0001e	8b 48 04	 mov	 ecx, DWORD PTR [eax+4]
  00021	51		 push	 ecx
  00022	e8 00 00 00 00	 call	 _AtlTraceVA
  00027	83 c4 1c	 add	 esp, 28			; 0000001cH

; 123  : 	}

  0002a	3b ec		 cmp	 ebp, esp
  0002c	e8 00 00 00 00	 call	 __RTC_CheckEsp
  00031	5d		 pop	 ebp
  00032	c3		 ret	 0
?TraceV@CTrace@ATL@@QBAXPBDHKI0PAD@Z ENDP		; ATL::CTrace::TraceV
; Function compile flags: /Odt /RTCsu
_TEXT	ENDS
;	COMDAT ??BCTraceCategory@ATL@@QBEKXZ
_TEXT	SEGMENT
_this$ = -4						; size = 4
??BCTraceCategory@ATL@@QBEKXZ PROC NEAR			; ATL::CTraceCategory::operator unsigned long, COMDAT
; _this$ = ecx

; 202  : {

  00000	55		 push	 ebp
  00001	8b ec		 mov	 ebp, esp
  00003	51		 push	 ecx
  00004	c7 45 fc cc cc
	cc cc		 mov	 DWORD PTR [ebp-4], -858993460 ; ccccccccH
  0000b	89 4d fc	 mov	 DWORD PTR _this$[ebp], ecx

; 203  : 	return( m_dwCategory );

  0000e	8b 45 fc	 mov	 eax, DWORD PTR _this$[ebp]
  00011	8b 00		 mov	 eax, DWORD PTR [eax]

; 204  : }

  00013	8b e5		 mov	 esp, ebp
  00015	5d		 pop	 ebp
  00016	c3		 ret	 0
??BCTraceCategory@ATL@@QBEKXZ ENDP			; ATL::CTraceCategory::operator unsigned long
_TEXT	ENDS
EXTRN	?DoMin@CTopPanelControl@@QAEXXZ:NEAR		; CTopPanelControl::DoMin
; Function compile flags: /Odt /RTCsu
; File d:\boxgit\playbox\playbox\dev\prj\playbox\src\module\toppanel\toppanelwnd.cpp
_TEXT	SEGMENT
_this$ = -4						; size = 4
?OnBnClickedMin@CTopPanelWnd@@IAEXXZ PROC NEAR		; CTopPanelWnd::OnBnClickedMin
; _this$ = ecx

; 225  : {

  018c0	55		 push	 ebp
  018c1	8b ec		 mov	 ebp, esp
  018c3	51		 push	 ecx
  018c4	c7 45 fc cc cc
	cc cc		 mov	 DWORD PTR [ebp-4], -858993460 ; ccccccccH
  018cb	89 4d fc	 mov	 DWORD PTR _this$[ebp], ecx

; 226  : 	CTopPanelControl::GetInstance()->DoMin();

  018ce	e8 00 00 00 00	 call	 ?GetInstance@CTopPanelControl@@SAPAV1@XZ ; CTopPanelControl::GetInstance
  018d3	8b c8		 mov	 ecx, eax
  018d5	e8 00 00 00 00	 call	 ?DoMin@CTopPanelControl@@QAEXXZ ; CTopPanelControl::DoMin

; 227  : }

  018da	83 c4 04	 add	 esp, 4
  018dd	3b ec		 cmp	 ebp, esp
  018df	e8 00 00 00 00	 call	 __RTC_CheckEsp
  018e4	8b e5		 mov	 esp, ebp
  018e6	5d		 pop	 ebp
  018e7	c3		 ret	 0
?OnBnClickedMin@CTopPanelWnd@@IAEXXZ ENDP		; CTopPanelWnd::OnBnClickedMin
; Function compile flags: /Odt /RTCsu
_this$ = -4						; size = 4
?OnBnClickedSetting@CTopPanelWnd@@IAEXXZ PROC NEAR	; CTopPanelWnd::OnBnClickedSetting
; _this$ = ecx

; 230  : {

  018f0	55		 push	 ebp
  018f1	8b ec		 mov	 ebp, esp
  018f3	51		 push	 ecx
  018f4	c7 45 fc cc cc
	cc cc		 mov	 DWORD PTR [ebp-4], -858993460 ; ccccccccH
  018fb	89 4d fc	 mov	 DWORD PTR _this$[ebp], ecx

; 231  : 	PostMessage( WM_COMMAND,ID_MEMU_SETTING,0);

  018fe	6a 00		 push	 0
  01900	6a 68		 push	 104			; 00000068H
  01902	68 11 01 00 00	 push	 273			; 00000111H
  01907	8b 4d fc	 mov	 ecx, DWORD PTR _this$[ebp]
  0190a	e8 00 00 00 00	 call	 ?PostMessageA@CWnd@@QAEHIIJ@Z ; CWnd::PostMessageA

; 232  : }

  0190f	83 c4 04	 add	 esp, 4
  01912	3b ec		 cmp	 ebp, esp
  01914	e8 00 00 00 00	 call	 __RTC_CheckEsp
  01919	8b e5		 mov	 esp, ebp
  0191b	5d		 pop	 ebp
  0191c	c3		 ret	 0
?OnBnClickedSetting@CTopPanelWnd@@IAEXXZ ENDP		; CTopPanelWnd::OnBnClickedSetting
_TEXT	ENDS
PUBLIC	?GetStringTypeExWFake@ATL@@YGHKKPB_WHPAG@Z	; ATL::GetStringTypeExWFake
EXTRN	__imp__GetStringTypeExW@20:NEAR
; Function compile flags: /Odt /RTCsu
; File d:\program files (x86)\microsoft visual studio .net 2003\vc7\atlmfc\include\cstringt.h
;	COMDAT ?GetStringTypeExWThunk@ATL@@YGHKKPB_WHPAG@Z
_TEXT	SEGMENT
_lcid$ = 8						; size = 4
_dwInfoType$ = 12					; size = 4
_pszSrc$ = 16						; size = 4
_nLength$ = 20						; size = 4
_pwCharType$ = 24					; size = 4
?GetStringTypeExWThunk@ATL@@YGHKKPB_WHPAG@Z PROC NEAR	; ATL::GetStringTypeExWThunk, COMDAT

; 240  : {

  00000	55		 push	 ebp
  00001	8b ec		 mov	 ebp, esp
  00003	56		 push	 esi

; 241  : 	_AtlInstallStringThunk(reinterpret_cast<void**>(&_strthunks.pfnGetStringTypeExW), GetStringTypeExWFake, ::GetStringTypeExW);

  00004	a1 00 00 00 00	 mov	 eax, DWORD PTR __imp__GetStringTypeExW@20
  00009	50		 push	 eax
  0000a	68 00 00 00 00	 push	 OFFSET FLAT:?GetStringTypeExWFake@ATL@@YGHKKPB_WHPAG@Z ; ATL::GetStringTypeExWFake
  0000f	68 04 00 00 00	 push	 OFFSET FLAT:?_strthunks@ATL@@3U_AtlStringThunks@1@A+4
  00014	e8 00 00 00 00	 call	 ?_AtlInstallStringThunk@ATL@@YAXPAPAXPAX1@Z ; ATL::_AtlInstallStringThunk
  00019	83 c4 0c	 add	 esp, 12			; 0000000cH

; 242  : 
; 243  : 	return _strthunks.pfnGetStringTypeExW(lcid, dwInfoType, pszSrc, nLength, pwCharType);

  0001c	8b f4		 mov	 esi, esp
  0001e	8b 4d 18	 mov	 ecx, DWORD PTR _pwCharType$[ebp]
  00021	51		 push	 ecx
  00022	8b 55 14	 mov	 edx, DWORD PTR _nLength$[ebp]
  00025	52		 push	 edx
  00026	8b 45 10	 mov	 eax, DWORD PTR _pszSrc$[ebp]
  00029	50		 push	 eax
  0002a	8b 4d 0c	 mov	 ecx, DWORD PTR _dwInfoType$[ebp]
  0002d	51		 push	 ecx
  0002e	8b 55 08	 mov	 edx, DWORD PTR _lcid$[ebp]
  00031	52		 push	 edx
  00032	ff 15 04 00 00
	00		 call	 DWORD PTR ?_strthunks@ATL@@3U_AtlStringThunks@1@A+4
  00038	3b f4		 cmp	 esi, esp
  0003a	e8 00 00 00 00	 call	 __RTC_CheckEsp

; 244  : }

  0003f	5e		 pop	 esi
  00040	3b ec		 cmp	 ebp, esp
  00042	e8 00 00 00 00	 call	 __RTC_CheckEsp
  00047	5d		 pop	 ebp
  00048	c2 14 00	 ret	 20			; 00000014H
?GetStringTypeExWThunk@ATL@@YGHKKPB_WHPAG@Z ENDP	; ATL::GetStringTypeExWThunk
_TEXT	ENDS
EXTRN	__imp__GetStringTypeExA@20:NEAR
;	COMDAT xdata$x
xdata$x	SEGMENT
$T198228 DD	0ffffffffH
	DD	FLAT:$L198220
$T198222 DD	019930520H
	DD	01H
	DD	FLAT:$T198228
	DD	2 DUP(00H)
	DD	2 DUP(00H)
; Function compile flags: /Odt /RTCsu
xdata$x	ENDS
;	COMDAT ?GetStringTypeExWFake@ATL@@YGHKKPB_WHPAG@Z
_TEXT	SEGMENT
$T198219 = -164						; size = 4
_pszA$ = -156						; size = 132
_nLengthA$ = -20					; size = 4
__$ArrayPad$ = -16					; size = 4
__$EHRec$ = -12						; size = 12
__$ReturnAddr$ = 4					; size = 4
_lcid$ = 8						; size = 4
_dwInfoType$ = 12					; size = 4
_pszSrc$ = 16						; size = 4
_nLength$ = 20						; size = 4
_pwCharType$ = 24					; size = 4
?GetStringTypeExWFake@ATL@@YGHKKPB_WHPAG@Z PROC NEAR	; ATL::GetStringTypeExWFake, COMDAT

; 224  : {

  00000	55		 push	 ebp
  00001	8b ec		 mov	 ebp, esp
  00003	6a ff		 push	 -1
  00005	68 00 00 00 00	 push	 __ehhandler$?GetStringTypeExWFake@ATL@@YGHKKPB_WHPAG@Z
  0000a	64 a1 00 00 00
	00		 mov	 eax, DWORD PTR fs:__except_list
  00010	50		 push	 eax
  00011	64 89 25 00 00
	00 00		 mov	 DWORD PTR fs:__except_list, esp
  00018	81 ec 98 00 00
	00		 sub	 esp, 152		; 00000098H
  0001e	56		 push	 esi
  0001f	57		 push	 edi
  00020	8d bd 5c ff ff
	ff		 lea	 edi, DWORD PTR [ebp-164]
  00026	b9 26 00 00 00	 mov	 ecx, 38			; 00000026H
  0002b	b8 cc cc cc cc	 mov	 eax, -858993460		; ccccccccH
  00030	f3 ab		 rep stosd
  00032	a1 00 00 00 00	 mov	 eax, DWORD PTR ___security_cookie
  00037	89 45 f0	 mov	 DWORD PTR __$ArrayPad$[ebp], eax

; 225  : 	int nLengthA;
; 226  : 	CTempBuffer<char> pszA;

  0003a	8d 8d 64 ff ff
	ff		 lea	 ecx, DWORD PTR _pszA$[ebp]
  00040	e8 00 00 00 00	 call	 ??0?$CTempBuffer@D$0IA@VCCRTAllocator@ATL@@@ATL@@QAE@XZ ; ATL::CTempBuffer<char,128,ATL::CCRTAllocator>::CTempBuffer<char,128,ATL::CCRTAllocator>
  00045	c7 45 fc 00 00
	00 00		 mov	 DWORD PTR __$EHRec$[ebp+8], 0

; 227  : 
; 228  : 	nLengthA = ::WideCharToMultiByte(_AtlGetConversionACP(), 0, pszSrc, nLength, NULL, 0, NULL, NULL);

  0004c	8b f4		 mov	 esi, esp
  0004e	6a 00		 push	 0
  00050	6a 00		 push	 0
  00052	6a 00		 push	 0
  00054	6a 00		 push	 0
  00056	8b 45 14	 mov	 eax, DWORD PTR _nLength$[ebp]
  00059	50		 push	 eax
  0005a	8b 4d 10	 mov	 ecx, DWORD PTR _pszSrc$[ebp]
  0005d	51		 push	 ecx
  0005e	6a 00		 push	 0
  00060	e8 00 00 00 00	 call	 ?_AtlGetConversionACP@ATL@@YGIXZ ; ATL::_AtlGetConversionACP
  00065	50		 push	 eax
  00066	ff 15 00 00 00
	00		 call	 DWORD PTR __imp__WideCharToMultiByte@32
  0006c	3b f4		 cmp	 esi, esp
  0006e	e8 00 00 00 00	 call	 __RTC_CheckEsp
  00073	89 45 ec	 mov	 DWORD PTR _nLengthA$[ebp], eax

; 229  : 	pszA.Allocate(nLengthA);

  00076	8b 55 ec	 mov	 edx, DWORD PTR _nLengthA$[ebp]
  00079	52		 push	 edx
  0007a	8d 8d 64 ff ff
	ff		 lea	 ecx, DWORD PTR _pszA$[ebp]
  00080	e8 00 00 00 00	 call	 ?Allocate@?$CTempBuffer@D$0IA@VCCRTAllocator@ATL@@@ATL@@QAEPADI@Z ; ATL::CTempBuffer<char,128,ATL::CCRTAllocator>::Allocate

; 230  : 	::WideCharToMultiByte(_AtlGetConversionACP(), 0, pszSrc, nLength, pszA, nLengthA, NULL, NULL);

  00085	8b f4		 mov	 esi, esp
  00087	6a 00		 push	 0
  00089	6a 00		 push	 0
  0008b	8b 45 ec	 mov	 eax, DWORD PTR _nLengthA$[ebp]
  0008e	50		 push	 eax
  0008f	8d 8d 64 ff ff
	ff		 lea	 ecx, DWORD PTR _pszA$[ebp]
  00095	e8 00 00 00 00	 call	 ??B?$CTempBuffer@D$0IA@VCCRTAllocator@ATL@@@ATL@@QBEPADXZ ; ATL::CTempBuffer<char,128,ATL::CCRTAllocator>::operator char *
  0009a	50		 push	 eax
  0009b	8b 4d 14	 mov	 ecx, DWORD PTR _nLength$[ebp]
  0009e	51		 push	 ecx
  0009f	8b 55 10	 mov	 edx, DWORD PTR _pszSrc$[ebp]
  000a2	52		 push	 edx
  000a3	6a 00		 push	 0
  000a5	e8 00 00 00 00	 call	 ?_AtlGetConversionACP@ATL@@YGIXZ ; ATL::_AtlGetConversionACP
  000aa	50		 push	 eax
  000ab	ff 15 00 00 00
	00		 call	 DWORD PTR __imp__WideCharToMultiByte@32
  000b1	3b f4		 cmp	 esi, esp
  000b3	e8 00 00 00 00	 call	 __RTC_CheckEsp

; 231  : 
; 232  : 	if (nLength == -1)

  000b8	83 7d 14 ff	 cmp	 DWORD PTR _nLength$[ebp], -1
  000bc	75 07		 jne	 SHORT $L26381

; 233  : 		nLengthA = -1;

  000be	c7 45 ec ff ff
	ff ff		 mov	 DWORD PTR _nLengthA$[ebp], -1
$L26381:

; 234  : 
; 235  : 	return ::GetStringTypeExA(lcid, dwInfoType, pszA, nLengthA, pwCharType);

  000c5	8b f4		 mov	 esi, esp
  000c7	8b 45 18	 mov	 eax, DWORD PTR _pwCharType$[ebp]
  000ca	50		 push	 eax
  000cb	8b 4d ec	 mov	 ecx, DWORD PTR _nLengthA$[ebp]
  000ce	51		 push	 ecx
  000cf	8d 8d 64 ff ff
	ff		 lea	 ecx, DWORD PTR _pszA$[ebp]
  000d5	e8 00 00 00 00	 call	 ??B?$CTempBuffer@D$0IA@VCCRTAllocator@ATL@@@ATL@@QBEPADXZ ; ATL::CTempBuffer<char,128,ATL::CCRTAllocator>::operator char *
  000da	50		 push	 eax
  000db	8b 55 0c	 mov	 edx, DWORD PTR _dwInfoType$[ebp]
  000de	52		 push	 edx
  000df	8b 45 08	 mov	 eax, DWORD PTR _lcid$[ebp]
  000e2	50		 push	 eax
  000e3	ff 15 00 00 00
	00		 call	 DWORD PTR __imp__GetStringTypeExA@20
  000e9	3b f4		 cmp	 esi, esp
  000eb	e8 00 00 00 00	 call	 __RTC_CheckEsp
  000f0	89 85 5c ff ff
	ff		 mov	 DWORD PTR $T198219[ebp], eax
  000f6	c7 45 fc ff ff
	ff ff		 mov	 DWORD PTR __$EHRec$[ebp+8], -1
  000fd	8d 8d 64 ff ff
	ff		 lea	 ecx, DWORD PTR _pszA$[ebp]
  00103	e8 00 00 00 00	 call	 ??1?$CTempBuffer@D$0IA@VCCRTAllocator@ATL@@@ATL@@QAE@XZ ; ATL::CTempBuffer<char,128,ATL::CCRTAllocator>::~CTempBuffer<char,128,ATL::CCRTAllocator>
  00108	8b 85 5c ff ff
	ff		 mov	 eax, DWORD PTR $T198219[ebp]

; 236  : }

  0010e	52		 push	 edx
  0010f	8b cd		 mov	 ecx, ebp
  00111	50		 push	 eax
  00112	8d 15 00 00 00
	00		 lea	 edx, DWORD PTR $L198227
  00118	e8 00 00 00 00	 call	 @_RTC_CheckStackVars@8
  0011d	58		 pop	 eax
  0011e	5a		 pop	 edx
  0011f	8b 4d f4	 mov	 ecx, DWORD PTR __$EHRec$[ebp]
  00122	64 89 0d 00 00
	00 00		 mov	 DWORD PTR fs:__except_list, ecx
  00129	8b 4d f0	 mov	 ecx, DWORD PTR __$ArrayPad$[ebp]
  0012c	e8 00 00 00 00	 call	 @__security_check_cookie@4
  00131	5f		 pop	 edi
  00132	5e		 pop	 esi
  00133	81 c4 a4 00 00
	00		 add	 esp, 164		; 000000a4H
  00139	3b ec		 cmp	 ebp, esp
  0013b	e8 00 00 00 00	 call	 __RTC_CheckEsp
  00140	8b e5		 mov	 esp, ebp
  00142	5d		 pop	 ebp
  00143	c2 14 00	 ret	 20			; 00000014H
$L198227:
  00146	01 00 00 00	 DD	 1
  0014a	00 00 00 00	 DD	 $L198226
$L198226:
  0014e	64 ff ff ff	 DD	 -156			; ffffff64H
  00152	84 00 00 00	 DD	 132			; 00000084H
  00156	00 00 00 00	 DD	 $L198223
$L198223:
  0015a	70		 DB	 112			; 00000070H
  0015b	73		 DB	 115			; 00000073H
  0015c	7a		 DB	 122			; 0000007aH
  0015d	41		 DB	 65			; 00000041H
  0015e	00		 DB	 0
_TEXT	ENDS
;	COMDAT text$x
text$x	SEGMENT
$L198220:
  00000	8d 8d 64 ff ff
	ff		 lea	 ecx, DWORD PTR _pszA$[ebp]
  00006	e9 00 00 00 00	 jmp	 ??1?$CTempBuffer@D$0IA@VCCRTAllocator@ATL@@@ATL@@QAE@XZ ; ATL::CTempBuffer<char,128,ATL::CCRTAllocator>::~CTempBuffer<char,128,ATL::CCRTAllocator>
__ehhandler$?GetStringTypeExWFake@ATL@@YGHKKPB_WHPAG@Z:
  0000b	b8 00 00 00 00	 mov	 eax, OFFSET FLAT:$T198222
  00010	e9 00 00 00 00	 jmp	 ___CxxFrameHandler
text$x	ENDS
?GetStringTypeExWFake@ATL@@YGHKKPB_WHPAG@Z ENDP		; ATL::GetStringTypeExWFake
PUBLIC	?lstrcmpiWFake@ATL@@YGHPB_W0@Z			; ATL::lstrcmpiWFake
EXTRN	__imp__lstrcmpiW@8:NEAR
; Function compile flags: /Odt /RTCsu
;	COMDAT ?lstrcmpiWThunk@ATL@@YGHPB_W0@Z
_TEXT	SEGMENT
_psz1$ = 8						; size = 4
_psz2$ = 12						; size = 4
?lstrcmpiWThunk@ATL@@YGHPB_W0@Z PROC NEAR		; ATL::lstrcmpiWThunk, COMDAT

; 254  : {

  00000	55		 push	 ebp
  00001	8b ec		 mov	 ebp, esp
  00003	56		 push	 esi

; 255  : 	_AtlInstallStringThunk(reinterpret_cast<void**>(&_strthunks.pfnlstrcmpiW), lstrcmpiWFake, ::lstrcmpiW);

  00004	a1 00 00 00 00	 mov	 eax, DWORD PTR __imp__lstrcmpiW@8
  00009	50		 push	 eax
  0000a	68 00 00 00 00	 push	 OFFSET FLAT:?lstrcmpiWFake@ATL@@YGHPB_W0@Z ; ATL::lstrcmpiWFake
  0000f	68 08 00 00 00	 push	 OFFSET FLAT:?_strthunks@ATL@@3U_AtlStringThunks@1@A+8
  00014	e8 00 00 00 00	 call	 ?_AtlInstallStringThunk@ATL@@YAXPAPAXPAX1@Z ; ATL::_AtlInstallStringThunk
  00019	83 c4 0c	 add	 esp, 12			; 0000000cH

; 256  : 
; 257  : 	return _strthunks.pfnlstrcmpiW(psz1, psz2);

  0001c	8b f4		 mov	 esi, esp
  0001e	8b 4d 0c	 mov	 ecx, DWORD PTR _psz2$[ebp]
  00021	51		 push	 ecx
  00022	8b 55 08	 mov	 edx, DWORD PTR _psz1$[ebp]
  00025	52		 push	 edx
  00026	ff 15 08 00 00
	00		 call	 DWORD PTR ?_strthunks@ATL@@3U_AtlStringThunks@1@A+8
  0002c	3b f4		 cmp	 esi, esp
  0002e	e8 00 00 00 00	 call	 __RTC_CheckEsp

; 258  : }

  00033	5e		 pop	 esi
  00034	3b ec		 cmp	 ebp, esp
  00036	e8 00 00 00 00	 call	 __RTC_CheckEsp
  0003b	5d		 pop	 ebp
  0003c	c2 08 00	 ret	 8
?lstrcmpiWThunk@ATL@@YGHPB_W0@Z ENDP			; ATL::lstrcmpiWThunk
_TEXT	ENDS
EXTRN	__imp__lstrcmpiA@8:NEAR
; Function compile flags: /Odt /RTCsu
;	COMDAT ?lstrcmpiWFake@ATL@@YGHPB_W0@Z
_TEXT	SEGMENT
tv91 = -32						; size = 4
tv94 = -28						; size = 4
tv76 = -24						; size = 4
tv79 = -20						; size = 4
__lpa$ = -16						; size = 4
__lpw$ = -12						; size = 4
__acp$ = -8						; size = 4
__convert$ = -4						; size = 4
_psz1$ = 8						; size = 4
_psz2$ = 12						; size = 4
?lstrcmpiWFake@ATL@@YGHPB_W0@Z PROC NEAR		; ATL::lstrcmpiWFake, COMDAT

; 247  : {

  00000	55		 push	 ebp
  00001	8b ec		 mov	 ebp, esp
  00003	83 ec 20	 sub	 esp, 32			; 00000020H
  00006	56		 push	 esi
  00007	b8 cc cc cc cc	 mov	 eax, -858993460		; ccccccccH
  0000c	89 45 e0	 mov	 DWORD PTR [ebp-32], eax
  0000f	89 45 e4	 mov	 DWORD PTR [ebp-28], eax
  00012	89 45 e8	 mov	 DWORD PTR [ebp-24], eax
  00015	89 45 ec	 mov	 DWORD PTR [ebp-20], eax
  00018	89 45 f0	 mov	 DWORD PTR [ebp-16], eax
  0001b	89 45 f4	 mov	 DWORD PTR [ebp-12], eax
  0001e	89 45 f8	 mov	 DWORD PTR [ebp-8], eax
  00021	89 45 fc	 mov	 DWORD PTR [ebp-4], eax

; 248  : 	USES_CONVERSION;

  00024	c7 45 fc 00 00
	00 00		 mov	 DWORD PTR __convert$[ebp], 0
  0002b	e8 00 00 00 00	 call	 ?_AtlGetConversionACP@ATL@@YGIXZ ; ATL::_AtlGetConversionACP
  00030	89 45 f8	 mov	 DWORD PTR __acp$[ebp], eax
  00033	c7 45 f4 00 00
	00 00		 mov	 DWORD PTR __lpw$[ebp], 0
  0003a	c7 45 f0 00 00
	00 00		 mov	 DWORD PTR __lpa$[ebp], 0

; 249  : 
; 250  : 	return ::lstrcmpiA(W2A(psz1), W2A(psz2));

  00041	8b 45 0c	 mov	 eax, DWORD PTR _psz2$[ebp]
  00044	89 45 f4	 mov	 DWORD PTR __lpw$[ebp], eax
  00047	83 7d f4 00	 cmp	 DWORD PTR __lpw$[ebp], 0
  0004b	75 09		 jne	 SHORT $L198233
  0004d	c7 45 ec 00 00
	00 00		 mov	 DWORD PTR tv79[ebp], 0
  00054	eb 43		 jmp	 SHORT $L198234
$L198233:
  00056	8b f4		 mov	 esi, esp
  00058	8b 4d f4	 mov	 ecx, DWORD PTR __lpw$[ebp]
  0005b	51		 push	 ecx
  0005c	ff 15 00 00 00
	00		 call	 DWORD PTR __imp__lstrlenW@4
  00062	3b f4		 cmp	 esi, esp
  00064	e8 00 00 00 00	 call	 __RTC_CheckEsp
  00069	8d 54 00 02	 lea	 edx, DWORD PTR [eax+eax+2]
  0006d	89 55 fc	 mov	 DWORD PTR __convert$[ebp], edx
  00070	8b 45 fc	 mov	 eax, DWORD PTR __convert$[ebp]
  00073	83 c0 03	 add	 eax, 3
  00076	83 e0 fc	 and	 eax, -4			; fffffffcH
  00079	e8 00 00 00 00	 call	 __alloca_probe
  0007e	89 65 e8	 mov	 DWORD PTR tv76[ebp], esp
  00081	8b 45 f8	 mov	 eax, DWORD PTR __acp$[ebp]
  00084	50		 push	 eax
  00085	8b 4d fc	 mov	 ecx, DWORD PTR __convert$[ebp]
  00088	51		 push	 ecx
  00089	8b 55 f4	 mov	 edx, DWORD PTR __lpw$[ebp]
  0008c	52		 push	 edx
  0008d	8b 45 e8	 mov	 eax, DWORD PTR tv76[ebp]
  00090	50		 push	 eax
  00091	e8 00 00 00 00	 call	 ?AtlW2AHelper@@YGPADPADPB_WHI@Z ; AtlW2AHelper
  00096	89 45 ec	 mov	 DWORD PTR tv79[ebp], eax
$L198234:
  00099	8b 4d 08	 mov	 ecx, DWORD PTR _psz1$[ebp]
  0009c	89 4d f4	 mov	 DWORD PTR __lpw$[ebp], ecx
  0009f	83 7d f4 00	 cmp	 DWORD PTR __lpw$[ebp], 0
  000a3	75 09		 jne	 SHORT $L198235
  000a5	c7 45 e4 00 00
	00 00		 mov	 DWORD PTR tv94[ebp], 0
  000ac	eb 43		 jmp	 SHORT $L198236
$L198235:
  000ae	8b f4		 mov	 esi, esp
  000b0	8b 55 f4	 mov	 edx, DWORD PTR __lpw$[ebp]
  000b3	52		 push	 edx
  000b4	ff 15 00 00 00
	00		 call	 DWORD PTR __imp__lstrlenW@4
  000ba	3b f4		 cmp	 esi, esp
  000bc	e8 00 00 00 00	 call	 __RTC_CheckEsp
  000c1	8d 44 00 02	 lea	 eax, DWORD PTR [eax+eax+2]
  000c5	89 45 fc	 mov	 DWORD PTR __convert$[ebp], eax
  000c8	8b 45 fc	 mov	 eax, DWORD PTR __convert$[ebp]
  000cb	83 c0 03	 add	 eax, 3
  000ce	83 e0 fc	 and	 eax, -4			; fffffffcH
  000d1	e8 00 00 00 00	 call	 __alloca_probe
  000d6	89 65 e0	 mov	 DWORD PTR tv91[ebp], esp
  000d9	8b 4d f8	 mov	 ecx, DWORD PTR __acp$[ebp]
  000dc	51		 push	 ecx
  000dd	8b 55 fc	 mov	 edx, DWORD PTR __convert$[ebp]
  000e0	52		 push	 edx
  000e1	8b 45 f4	 mov	 eax, DWORD PTR __lpw$[ebp]
  000e4	50		 push	 eax
  000e5	8b 4d e0	 mov	 ecx, DWORD PTR tv91[ebp]
  000e8	51		 push	 ecx
  000e9	e8 00 00 00 00	 call	 ?AtlW2AHelper@@YGPADPADPB_WHI@Z ; AtlW2AHelper
  000ee	89 45 e4	 mov	 DWORD PTR tv94[ebp], eax
$L198236:
  000f1	8b f4		 mov	 esi, esp
  000f3	8b 55 ec	 mov	 edx, DWORD PTR tv79[ebp]
  000f6	52		 push	 edx
  000f7	8b 45 e4	 mov	 eax, DWORD PTR tv94[ebp]
  000fa	50		 push	 eax
  000fb	ff 15 00 00 00
	00		 call	 DWORD PTR __imp__lstrcmpiA@8
  00101	3b f4		 cmp	 esi, esp
  00103	e8 00 00 00 00	 call	 __RTC_CheckEsp

; 251  : }

  00108	8d 65 dc	 lea	 esp, DWORD PTR [ebp-36]
  0010b	5e		 pop	 esi
  0010c	8b e5		 mov	 esp, ebp
  0010e	5d		 pop	 ebp
  0010f	c2 08 00	 ret	 8
?lstrcmpiWFake@ATL@@YGHPB_W0@Z ENDP			; ATL::lstrcmpiWFake
; Function compile flags: /Odt /RTCsu
; File d:\boxgit\playbox\playbox\dev\prj\playbox\src\module\toppanel\toppanelwnd.cpp
_TEXT	ENDS
_TEXT	SEGMENT
_this$ = -4						; size = 4
_nFlags$ = 8						; size = 4
_point$ = 12						; size = 8
?OnLButtonDblClk@CTopPanelWnd@@IAEXIVCPoint@@@Z PROC NEAR ; CTopPanelWnd::OnLButtonDblClk
; _this$ = ecx

; 298  : {

  01920	55		 push	 ebp
  01921	8b ec		 mov	 ebp, esp
  01923	51		 push	 ecx
  01924	c7 45 fc cc cc
	cc cc		 mov	 DWORD PTR [ebp-4], -858993460 ; ccccccccH
  0192b	89 4d fc	 mov	 DWORD PTR _this$[ebp], ecx

; 299  : 	if( m_bNormal)

  0192e	8b 45 fc	 mov	 eax, DWORD PTR _this$[ebp]
  01931	0f b6 88 10 06
	00 00		 movzx	 ecx, BYTE PTR [eax+1552]
  01938	85 c9		 test	 ecx, ecx
  0193a	74 16		 je	 SHORT $L196693

; 300  : 	{
; 301  : 		PostMessage( WM_COMMAND,ID_BTN_LARGE,0);

  0193c	6a 00		 push	 0
  0193e	68 13 27 00 00	 push	 10003			; 00002713H
  01943	68 11 01 00 00	 push	 273			; 00000111H
  01948	8b 4d fc	 mov	 ecx, DWORD PTR _this$[ebp]
  0194b	e8 00 00 00 00	 call	 ?PostMessageA@CWnd@@QAEHIIJ@Z ; CWnd::PostMessageA

; 302  : 	}
; 303  : 	else

  01950	eb 14		 jmp	 SHORT $L196692
$L196693:

; 304  : 	{
; 305  : 		PostMessage( WM_COMMAND,ID_BTN_NORMAL,0);

  01952	6a 00		 push	 0
  01954	68 12 27 00 00	 push	 10002			; 00002712H
  01959	68 11 01 00 00	 push	 273			; 00000111H
  0195e	8b 4d fc	 mov	 ecx, DWORD PTR _this$[ebp]
  01961	e8 00 00 00 00	 call	 ?PostMessageA@CWnd@@QAEHIIJ@Z ; CWnd::PostMessageA
$L196692:

; 306  : 	}
; 307  : }

  01966	83 c4 04	 add	 esp, 4
  01969	3b ec		 cmp	 ebp, esp
  0196b	e8 00 00 00 00	 call	 __RTC_CheckEsp
  01970	8b e5		 mov	 esp, ebp
  01972	5d		 pop	 ebp
  01973	c2 0c 00	 ret	 12			; 0000000cH
?OnLButtonDblClk@CTopPanelWnd@@IAEXIVCPoint@@@Z ENDP	; CTopPanelWnd::OnLButtonDblClk
_TEXT	ENDS
PUBLIC	?CharLowerWFake@ATL@@YGPA_WPA_W@Z		; ATL::CharLowerWFake
EXTRN	__imp__CharLowerW@4:NEAR
; Function compile flags: /Odt /RTCsu
; File d:\program files (x86)\microsoft visual studio .net 2003\vc7\atlmfc\include\cstringt.h
;	COMDAT ?CharLowerWThunk@ATL@@YGPA_WPA_W@Z
_TEXT	SEGMENT
_psz$ = 8						; size = 4
?CharLowerWThunk@ATL@@YGPA_WPA_W@Z PROC NEAR		; ATL::CharLowerWThunk, COMDAT

; 273  : {

  00000	55		 push	 ebp
  00001	8b ec		 mov	 ebp, esp
  00003	56		 push	 esi

; 274  : 	_AtlInstallStringThunk(reinterpret_cast<void**>(&_strthunks.pfnCharLowerW), CharLowerWFake, ::CharLowerW);

  00004	a1 00 00 00 00	 mov	 eax, DWORD PTR __imp__CharLowerW@4
  00009	50		 push	 eax
  0000a	68 00 00 00 00	 push	 OFFSET FLAT:?CharLowerWFake@ATL@@YGPA_WPA_W@Z ; ATL::CharLowerWFake
  0000f	68 0c 00 00 00	 push	 OFFSET FLAT:?_strthunks@ATL@@3U_AtlStringThunks@1@A+12
  00014	e8 00 00 00 00	 call	 ?_AtlInstallStringThunk@ATL@@YAXPAPAXPAX1@Z ; ATL::_AtlInstallStringThunk
  00019	83 c4 0c	 add	 esp, 12			; 0000000cH

; 275  : 
; 276  : 	return _strthunks.pfnCharLowerW(psz);

  0001c	8b f4		 mov	 esi, esp
  0001e	8b 4d 08	 mov	 ecx, DWORD PTR _psz$[ebp]
  00021	51		 push	 ecx
  00022	ff 15 0c 00 00
	00		 call	 DWORD PTR ?_strthunks@ATL@@3U_AtlStringThunks@1@A+12
  00028	3b f4		 cmp	 esi, esp
  0002a	e8 00 00 00 00	 call	 __RTC_CheckEsp

; 277  : }

  0002f	5e		 pop	 esi
  00030	3b ec		 cmp	 ebp, esp
  00032	e8 00 00 00 00	 call	 __RTC_CheckEsp
  00037	5d		 pop	 ebp
  00038	c2 04 00	 ret	 4
?CharLowerWThunk@ATL@@YGPA_WPA_W@Z ENDP			; ATL::CharLowerWThunk
_TEXT	ENDS
PUBLIC	?AtlA2WHelper@@YGPA_WPA_WPBDHI@Z		; AtlA2WHelper
EXTRN	__imp__lstrlenA@4:NEAR
EXTRN	__imp__CharLowerA@4:NEAR
EXTRN	__imp__wcscpy:NEAR
; Function compile flags: /Odt /RTCsu
;	COMDAT ?CharLowerWFake@ATL@@YGPA_WPA_W@Z
_TEXT	SEGMENT
tv90 = -36						; size = 4
tv94 = -32						; size = 4
tv75 = -28						; size = 4
tv78 = -24						; size = 4
_pszA$ = -20						; size = 4
__lpa$ = -16						; size = 4
__lpw$ = -12						; size = 4
__acp$ = -8						; size = 4
__convert$ = -4						; size = 4
_psz$ = 8						; size = 4
?CharLowerWFake@ATL@@YGPA_WPA_W@Z PROC NEAR		; ATL::CharLowerWFake, COMDAT

; 261  : {

  00000	55		 push	 ebp
  00001	8b ec		 mov	 ebp, esp
  00003	83 ec 24	 sub	 esp, 36			; 00000024H
  00006	56		 push	 esi
  00007	b8 cc cc cc cc	 mov	 eax, -858993460		; ccccccccH
  0000c	89 45 dc	 mov	 DWORD PTR [ebp-36], eax
  0000f	89 45 e0	 mov	 DWORD PTR [ebp-32], eax
  00012	89 45 e4	 mov	 DWORD PTR [ebp-28], eax
  00015	89 45 e8	 mov	 DWORD PTR [ebp-24], eax
  00018	89 45 ec	 mov	 DWORD PTR [ebp-20], eax
  0001b	89 45 f0	 mov	 DWORD PTR [ebp-16], eax
  0001e	89 45 f4	 mov	 DWORD PTR [ebp-12], eax
  00021	89 45 f8	 mov	 DWORD PTR [ebp-8], eax
  00024	89 45 fc	 mov	 DWORD PTR [ebp-4], eax

; 262  : 	USES_CONVERSION;

  00027	c7 45 fc 00 00
	00 00		 mov	 DWORD PTR __convert$[ebp], 0
  0002e	e8 00 00 00 00	 call	 ?_AtlGetConversionACP@ATL@@YGIXZ ; ATL::_AtlGetConversionACP
  00033	89 45 f8	 mov	 DWORD PTR __acp$[ebp], eax
  00036	c7 45 f4 00 00
	00 00		 mov	 DWORD PTR __lpw$[ebp], 0
  0003d	c7 45 f0 00 00
	00 00		 mov	 DWORD PTR __lpa$[ebp], 0

; 263  : 	LPSTR pszA;
; 264  : 
; 265  : 	pszA = W2A(psz);

  00044	8b 45 08	 mov	 eax, DWORD PTR _psz$[ebp]
  00047	89 45 f4	 mov	 DWORD PTR __lpw$[ebp], eax
  0004a	83 7d f4 00	 cmp	 DWORD PTR __lpw$[ebp], 0
  0004e	75 09		 jne	 SHORT $L198240
  00050	c7 45 e8 00 00
	00 00		 mov	 DWORD PTR tv78[ebp], 0
  00057	eb 43		 jmp	 SHORT $L198241
$L198240:
  00059	8b f4		 mov	 esi, esp
  0005b	8b 4d f4	 mov	 ecx, DWORD PTR __lpw$[ebp]
  0005e	51		 push	 ecx
  0005f	ff 15 00 00 00
	00		 call	 DWORD PTR __imp__lstrlenW@4
  00065	3b f4		 cmp	 esi, esp
  00067	e8 00 00 00 00	 call	 __RTC_CheckEsp
  0006c	8d 54 00 02	 lea	 edx, DWORD PTR [eax+eax+2]
  00070	89 55 fc	 mov	 DWORD PTR __convert$[ebp], edx
  00073	8b 45 fc	 mov	 eax, DWORD PTR __convert$[ebp]
  00076	83 c0 03	 add	 eax, 3
  00079	83 e0 fc	 and	 eax, -4			; fffffffcH
  0007c	e8 00 00 00 00	 call	 __alloca_probe
  00081	89 65 e4	 mov	 DWORD PTR tv75[ebp], esp
  00084	8b 45 f8	 mov	 eax, DWORD PTR __acp$[ebp]
  00087	50		 push	 eax
  00088	8b 4d fc	 mov	 ecx, DWORD PTR __convert$[ebp]
  0008b	51		 push	 ecx
  0008c	8b 55 f4	 mov	 edx, DWORD PTR __lpw$[ebp]
  0008f	52		 push	 edx
  00090	8b 45 e4	 mov	 eax, DWORD PTR tv75[ebp]
  00093	50		 push	 eax
  00094	e8 00 00 00 00	 call	 ?AtlW2AHelper@@YGPADPADPB_WHI@Z ; AtlW2AHelper
  00099	89 45 e8	 mov	 DWORD PTR tv78[ebp], eax
$L198241:
  0009c	8b 4d e8	 mov	 ecx, DWORD PTR tv78[ebp]
  0009f	89 4d ec	 mov	 DWORD PTR _pszA$[ebp], ecx

; 266  : 	::CharLowerA(pszA);

  000a2	8b f4		 mov	 esi, esp
  000a4	8b 55 ec	 mov	 edx, DWORD PTR _pszA$[ebp]
  000a7	52		 push	 edx
  000a8	ff 15 00 00 00
	00		 call	 DWORD PTR __imp__CharLowerA@4
  000ae	3b f4		 cmp	 esi, esp
  000b0	e8 00 00 00 00	 call	 __RTC_CheckEsp

; 267  : 	wcscpy(psz, A2W(pszA));

  000b5	8b 45 ec	 mov	 eax, DWORD PTR _pszA$[ebp]
  000b8	89 45 f0	 mov	 DWORD PTR __lpa$[ebp], eax
  000bb	83 7d f0 00	 cmp	 DWORD PTR __lpa$[ebp], 0
  000bf	75 09		 jne	 SHORT $L198242
  000c1	c7 45 e0 00 00
	00 00		 mov	 DWORD PTR tv94[ebp], 0
  000c8	eb 44		 jmp	 SHORT $L198243
$L198242:
  000ca	8b f4		 mov	 esi, esp
  000cc	8b 4d f0	 mov	 ecx, DWORD PTR __lpa$[ebp]
  000cf	51		 push	 ecx
  000d0	ff 15 00 00 00
	00		 call	 DWORD PTR __imp__lstrlenA@4
  000d6	3b f4		 cmp	 esi, esp
  000d8	e8 00 00 00 00	 call	 __RTC_CheckEsp
  000dd	83 c0 01	 add	 eax, 1
  000e0	89 45 fc	 mov	 DWORD PTR __convert$[ebp], eax
  000e3	8b 45 fc	 mov	 eax, DWORD PTR __convert$[ebp]
  000e6	d1 e0		 shl	 eax, 1
  000e8	83 c0 03	 add	 eax, 3
  000eb	83 e0 fc	 and	 eax, -4			; fffffffcH
  000ee	e8 00 00 00 00	 call	 __alloca_probe
  000f3	89 65 dc	 mov	 DWORD PTR tv90[ebp], esp
  000f6	8b 55 f8	 mov	 edx, DWORD PTR __acp$[ebp]
  000f9	52		 push	 edx
  000fa	8b 45 fc	 mov	 eax, DWORD PTR __convert$[ebp]
  000fd	50		 push	 eax
  000fe	8b 4d f0	 mov	 ecx, DWORD PTR __lpa$[ebp]
  00101	51		 push	 ecx
  00102	8b 55 dc	 mov	 edx, DWORD PTR tv90[ebp]
  00105	52		 push	 edx
  00106	e8 00 00 00 00	 call	 ?AtlA2WHelper@@YGPA_WPA_WPBDHI@Z ; AtlA2WHelper
  0010b	89 45 e0	 mov	 DWORD PTR tv94[ebp], eax
$L198243:
  0010e	8b f4		 mov	 esi, esp
  00110	8b 45 e0	 mov	 eax, DWORD PTR tv94[ebp]
  00113	50		 push	 eax
  00114	8b 4d 08	 mov	 ecx, DWORD PTR _psz$[ebp]
  00117	51		 push	 ecx
  00118	ff 15 00 00 00
	00		 call	 DWORD PTR __imp__wcscpy
  0011e	83 c4 08	 add	 esp, 8
  00121	3b f4		 cmp	 esi, esp
  00123	e8 00 00 00 00	 call	 __RTC_CheckEsp

; 268  : 
; 269  : 	return psz;

  00128	8b 45 08	 mov	 eax, DWORD PTR _psz$[ebp]

; 270  : }

  0012b	8d 65 d8	 lea	 esp, DWORD PTR [ebp-40]
  0012e	5e		 pop	 esi
  0012f	8b e5		 mov	 esp, ebp
  00131	5d		 pop	 ebp
  00132	c2 04 00	 ret	 4
?CharLowerWFake@ATL@@YGPA_WPA_W@Z ENDP			; ATL::CharLowerWFake
; Function compile flags: /Odt /RTCsu
; File d:\program files (x86)\microsoft visual studio .net 2003\vc7\atlmfc\include\atlconv.h
_TEXT	ENDS
;	COMDAT ?AtlA2WHelper@@YGPA_WPA_WPBDHI@Z
_TEXT	SEGMENT
_ret$ = -4						; size = 4
_lpw$ = 8						; size = 4
_lpa$ = 12						; size = 4
_nChars$ = 16						; size = 4
_acp$ = 20						; size = 4
?AtlA2WHelper@@YGPA_WPA_WPBDHI@Z PROC NEAR		; AtlA2WHelper, COMDAT

; 554  : {

  00000	55		 push	 ebp
  00001	8b ec		 mov	 ebp, esp
  00003	51		 push	 ecx
  00004	56		 push	 esi
  00005	c7 45 fc cc cc
	cc cc		 mov	 DWORD PTR [ebp-4], -858993460 ; ccccccccH

; 555  : 	ATLASSERT(lpa != NULL);

  0000c	83 7d 0c 00	 cmp	 DWORD PTR _lpa$[ebp], 0
  00010	75 2b		 jne	 SHORT $L198245
  00012	8b f4		 mov	 esi, esp
  00014	68 00 00 00 00	 push	 OFFSET FLAT:??_C@_08DMHHBMMN@lpa?5?$CB?$DN?50?$AA@
  00019	6a 00		 push	 0
  0001b	68 2b 02 00 00	 push	 555			; 0000022bH
  00020	68 00 00 00 00	 push	 OFFSET FLAT:??_C@_0FG@PFHCBDBK@D?3?2Program?5Files?5?$CIx86?$CJ?2Microsoft@
  00025	6a 02		 push	 2
  00027	ff 15 00 00 00
	00		 call	 DWORD PTR __imp___CrtDbgReport
  0002d	83 c4 14	 add	 esp, 20			; 00000014H
  00030	3b f4		 cmp	 esi, esp
  00032	e8 00 00 00 00	 call	 __RTC_CheckEsp
  00037	83 f8 01	 cmp	 eax, 1
  0003a	75 01		 jne	 SHORT $L198245
  0003c	cc		 int	 3
$L198245:

; 556  : 	ATLASSERT(lpw != NULL);

  0003d	83 7d 08 00	 cmp	 DWORD PTR _lpw$[ebp], 0
  00041	75 2b		 jne	 SHORT $L198246
  00043	8b f4		 mov	 esi, esp
  00045	68 00 00 00 00	 push	 OFFSET FLAT:??_C@_08DIHJLFDJ@lpw?5?$CB?$DN?50?$AA@
  0004a	6a 00		 push	 0
  0004c	68 2c 02 00 00	 push	 556			; 0000022cH
  00051	68 00 00 00 00	 push	 OFFSET FLAT:??_C@_0FG@PFHCBDBK@D?3?2Program?5Files?5?$CIx86?$CJ?2Microsoft@
  00056	6a 02		 push	 2
  00058	ff 15 00 00 00
	00		 call	 DWORD PTR __imp___CrtDbgReport
  0005e	83 c4 14	 add	 esp, 20			; 00000014H
  00061	3b f4		 cmp	 esi, esp
  00063	e8 00 00 00 00	 call	 __RTC_CheckEsp
  00068	83 f8 01	 cmp	 eax, 1
  0006b	75 01		 jne	 SHORT $L198246
  0006d	cc		 int	 3
$L198246:

; 557  : 	if (lpw == NULL || lpa == NULL)

  0006e	83 7d 08 00	 cmp	 DWORD PTR _lpw$[ebp], 0
  00072	74 06		 je	 SHORT $L24299
  00074	83 7d 0c 00	 cmp	 DWORD PTR _lpa$[ebp], 0
  00078	75 04		 jne	 SHORT $L24298
$L24299:

; 558  : 		return NULL;

  0007a	33 c0		 xor	 eax, eax
  0007c	eb 6a		 jmp	 SHORT $L24292
$L24298:

; 559  : 	// verify that no illegal character present
; 560  : 	// since lpw was allocated based on the size of lpa
; 561  : 	// don't worry about the number of chars
; 562  : 	lpw[0] = '\0';

  0007e	8b 55 08	 mov	 edx, DWORD PTR _lpw$[ebp]
  00081	66 c7 02 00 00	 mov	 WORD PTR [edx], 0

; 563  : 	int ret = MultiByteToWideChar(acp, 0, lpa, -1, lpw, nChars);

  00086	8b f4		 mov	 esi, esp
  00088	8b 45 10	 mov	 eax, DWORD PTR _nChars$[ebp]
  0008b	50		 push	 eax
  0008c	8b 4d 08	 mov	 ecx, DWORD PTR _lpw$[ebp]
  0008f	51		 push	 ecx
  00090	6a ff		 push	 -1
  00092	8b 55 0c	 mov	 edx, DWORD PTR _lpa$[ebp]
  00095	52		 push	 edx
  00096	6a 00		 push	 0
  00098	8b 45 14	 mov	 eax, DWORD PTR _acp$[ebp]
  0009b	50		 push	 eax
  0009c	ff 15 00 00 00
	00		 call	 DWORD PTR __imp__MultiByteToWideChar@24
  000a2	3b f4		 cmp	 esi, esp
  000a4	e8 00 00 00 00	 call	 __RTC_CheckEsp
  000a9	89 45 fc	 mov	 DWORD PTR _ret$[ebp], eax

; 564  : 	if(ret == 0)

  000ac	83 7d fc 00	 cmp	 DWORD PTR _ret$[ebp], 0
  000b0	75 33		 jne	 SHORT $L24301

; 565  : 	{
; 566  : 		ATLASSERT(FALSE);

  000b2	33 c9		 xor	 ecx, ecx
  000b4	75 2b		 jne	 SHORT $L198247
  000b6	8b f4		 mov	 esi, esp
  000b8	68 00 00 00 00	 push	 OFFSET FLAT:??_C@_01GBGANLPD@0?$AA@
  000bd	6a 00		 push	 0
  000bf	68 36 02 00 00	 push	 566			; 00000236H
  000c4	68 00 00 00 00	 push	 OFFSET FLAT:??_C@_0FG@PFHCBDBK@D?3?2Program?5Files?5?$CIx86?$CJ?2Microsoft@
  000c9	6a 02		 push	 2
  000cb	ff 15 00 00 00
	00		 call	 DWORD PTR __imp___CrtDbgReport
  000d1	83 c4 14	 add	 esp, 20			; 00000014H
  000d4	3b f4		 cmp	 esi, esp
  000d6	e8 00 00 00 00	 call	 __RTC_CheckEsp
  000db	83 f8 01	 cmp	 eax, 1
  000de	75 01		 jne	 SHORT $L198247
  000e0	cc		 int	 3
$L198247:

; 567  : 		return NULL;

  000e1	33 c0		 xor	 eax, eax
  000e3	eb 03		 jmp	 SHORT $L24292
$L24301:

; 568  : 	}		
; 569  : 	return lpw;

  000e5	8b 45 08	 mov	 eax, DWORD PTR _lpw$[ebp]
$L24292:

; 570  : }

  000e8	5e		 pop	 esi
  000e9	83 c4 04	 add	 esp, 4
  000ec	3b ec		 cmp	 ebp, esp
  000ee	e8 00 00 00 00	 call	 __RTC_CheckEsp
  000f3	8b e5		 mov	 esp, ebp
  000f5	5d		 pop	 ebp
  000f6	c2 10 00	 ret	 16			; 00000010H
?AtlA2WHelper@@YGPA_WPA_WPBDHI@Z ENDP			; AtlA2WHelper
_TEXT	ENDS
PUBLIC	?LoadSkin@CTopPanelWnd@@QAEXXZ			; CTopPanelWnd::LoadSkin
; Function compile flags: /Odt /RTCsu
; File d:\boxgit\playbox\playbox\dev\prj\playbox\src\module\toppanel\toppanelwnd.cpp
_TEXT	SEGMENT
_this$ = -4						; size = 4
?LoadSkin@CTopPanelWnd@@QAEXXZ PROC NEAR		; CTopPanelWnd::LoadSkin
; _this$ = ecx

; 310  : {

  01980	55		 push	 ebp
  01981	8b ec		 mov	 ebp, esp
  01983	51		 push	 ecx
  01984	c7 45 fc cc cc
	cc cc		 mov	 DWORD PTR [ebp-4], -858993460 ; ccccccccH
  0198b	89 4d fc	 mov	 DWORD PTR _this$[ebp], ecx

; 311  : }

  0198e	8b e5		 mov	 esp, ebp
  01990	5d		 pop	 ebp
  01991	c3		 ret	 0
?LoadSkin@CTopPanelWnd@@QAEXXZ ENDP			; CTopPanelWnd::LoadSkin
_TEXT	ENDS
PUBLIC	?AddLayers@CTopPanelWnd@@QAEXXZ			; CTopPanelWnd::AddLayers
; Function compile flags: /Odt /RTCsu
_TEXT	SEGMENT
_this$ = -4						; size = 4
?AddLayers@CTopPanelWnd@@QAEXXZ PROC NEAR		; CTopPanelWnd::AddLayers
; _this$ = ecx

; 314  : {

  019a0	55		 push	 ebp
  019a1	8b ec		 mov	 ebp, esp
  019a3	51		 push	 ecx
  019a4	c7 45 fc cc cc
	cc cc		 mov	 DWORD PTR [ebp-4], -858993460 ; ccccccccH
  019ab	89 4d fc	 mov	 DWORD PTR _this$[ebp], ecx

; 315  : 	LoadSkin();

  019ae	8b 4d fc	 mov	 ecx, DWORD PTR _this$[ebp]
  019b1	e8 00 00 00 00	 call	 ?LoadSkin@CTopPanelWnd@@QAEXXZ ; CTopPanelWnd::LoadSkin

; 316  : }

  019b6	83 c4 04	 add	 esp, 4
  019b9	3b ec		 cmp	 ebp, esp
  019bb	e8 00 00 00 00	 call	 __RTC_CheckEsp
  019c0	8b e5		 mov	 esp, ebp
  019c2	5d		 pop	 ebp
  019c3	c3		 ret	 0
?AddLayers@CTopPanelWnd@@QAEXXZ ENDP			; CTopPanelWnd::AddLayers
; Function compile flags: /Odt /RTCsu
_this$ = -4						; size = 4
?ILayoutChangeOb_InitFinished@CTopPanelWnd@@UAEXXZ PROC NEAR ; CTopPanelWnd::ILayoutChangeOb_InitFinished
; _this$ = ecx

; 319  : {

  019d0	55		 push	 ebp
  019d1	8b ec		 mov	 ebp, esp
  019d3	51		 push	 ecx
  019d4	c7 45 fc cc cc
	cc cc		 mov	 DWORD PTR [ebp-4], -858993460 ; ccccccccH
  019db	89 4d fc	 mov	 DWORD PTR _this$[ebp], ecx

; 320  : }

  019de	8b e5		 mov	 esp, ebp
  019e0	5d		 pop	 ebp
  019e1	c3		 ret	 0
?ILayoutChangeOb_InitFinished@CTopPanelWnd@@UAEXXZ ENDP	; CTopPanelWnd::ILayoutChangeOb_InitFinished
_TEXT	ENDS
EXTRN	__imp_??$?8DU?$char_traits@D@std@@V?$allocator@D@1@@std@@YA_NABV?$basic_string@DU?$char_traits@D@std@@V?$allocator@D@2@@0@0@Z:NEAR
EXTRN	?Width@CRect@@QBEHXZ:NEAR			; CRect::Width
EXTRN	?Height@CRect@@QBEHXZ:NEAR			; CRect::Height
EXTRN	?OnSize@CBasicWnd@@IAEXIHH@Z:NEAR		; CBasicWnd::OnSize
xdata$x	SEGMENT
$T198268 DD	0ffffffffH
	DD	FLAT:$L198256
	DD	00H
	DD	FLAT:$L198257
	DD	01H
	DD	FLAT:$L198258
	DD	02H
	DD	FLAT:$L198259
	DD	01H
	DD	FLAT:$L198260
	DD	04H
	DD	FLAT:$L198261
$T198263 DD	019930520H
	DD	06H
	DD	FLAT:$T198268
	DD	2 DUP(00H)
	DD	2 DUP(00H)
; Function compile flags: /Odt /RTCsu
xdata$x	ENDS
_TEXT	SEGMENT
tv151 = -104						; size = 4
tv146 = -100						; size = 4
tv207 = -96						; size = 4
tv223 = -92						; size = 4
tv204 = -88						; size = 4
tv220 = -84						; size = 4
tv82 = -80						; size = 4
tv77 = -76						; size = 4
tv202 = -72						; size = 4
tv217 = -68						; size = 4
tv199 = -64						; size = 4
tv214 = -60						; size = 4
$T198255 = -56						; size = 4
$T198254 = -52						; size = 4
$T198253 = -48						; size = 4
$T198252 = -44						; size = 4
_rc$ = -36						; size = 16
_this$ = -16						; size = 4
__$EHRec$ = -12						; size = 12
_oldSkinPath$ = 8					; size = 28
_newSkinPath$ = 36					; size = 28
?ILayoutChangeOb_SkinChanged@CTopPanelWnd@@UAEXV?$basic_string@DU?$char_traits@D@std@@V?$allocator@D@2@@std@@0@Z PROC NEAR ; CTopPanelWnd::ILayoutChangeOb_SkinChanged
; _this$ = ecx

; 322  : {

  019f0	55		 push	 ebp
  019f1	8b ec		 mov	 ebp, esp
  019f3	6a ff		 push	 -1
  019f5	68 00 00 00 00	 push	 __ehhandler$?ILayoutChangeOb_SkinChanged@CTopPanelWnd@@UAEXV?$basic_string@DU?$char_traits@D@std@@V?$allocator@D@2@@std@@0@Z
  019fa	64 a1 00 00 00
	00		 mov	 eax, DWORD PTR fs:__except_list
  01a00	50		 push	 eax
  01a01	64 89 25 00 00
	00 00		 mov	 DWORD PTR fs:__except_list, esp
  01a08	83 ec 5c	 sub	 esp, 92			; 0000005cH
  01a0b	56		 push	 esi
  01a0c	57		 push	 edi
  01a0d	51		 push	 ecx
  01a0e	8d 7d 98	 lea	 edi, DWORD PTR [ebp-104]
  01a11	b9 17 00 00 00	 mov	 ecx, 23			; 00000017H
  01a16	b8 cc cc cc cc	 mov	 eax, -858993460		; ccccccccH
  01a1b	f3 ab		 rep stosd
  01a1d	59		 pop	 ecx
  01a1e	89 4d f0	 mov	 DWORD PTR _this$[ebp], ecx
  01a21	c7 45 fc 01 00
	00 00		 mov	 DWORD PTR __$EHRec$[ebp+8], 1

; 323  : 	if(oldSkinPath == newSkinPath)

  01a28	8b f4		 mov	 esi, esp
  01a2a	8d 45 24	 lea	 eax, DWORD PTR _newSkinPath$[ebp]
  01a2d	50		 push	 eax
  01a2e	8d 4d 08	 lea	 ecx, DWORD PTR _oldSkinPath$[ebp]
  01a31	51		 push	 ecx
  01a32	ff 15 00 00 00
	00		 call	 DWORD PTR __imp_??$?8DU?$char_traits@D@std@@V?$allocator@D@1@@std@@YA_NABV?$basic_string@DU?$char_traits@D@std@@V?$allocator@D@2@@0@0@Z
  01a38	83 c4 08	 add	 esp, 8
  01a3b	3b f4		 cmp	 esi, esp
  01a3d	e8 00 00 00 00	 call	 __RTC_CheckEsp
  01a42	0f b6 d0	 movzx	 edx, al
  01a45	85 d2		 test	 edx, edx
  01a47	74 34		 je	 SHORT $L196709

; 324  : 		return;

  01a49	c6 45 fc 00	 mov	 BYTE PTR __$EHRec$[ebp+8], 0
  01a4d	8b f4		 mov	 esi, esp
  01a4f	8d 4d 08	 lea	 ecx, DWORD PTR _oldSkinPath$[ebp]
  01a52	ff 15 00 00 00
	00		 call	 DWORD PTR __imp_??1?$basic_string@DU?$char_traits@D@std@@V?$allocator@D@2@@std@@QAE@XZ
  01a58	3b f4		 cmp	 esi, esp
  01a5a	e8 00 00 00 00	 call	 __RTC_CheckEsp
  01a5f	c7 45 fc ff ff
	ff ff		 mov	 DWORD PTR __$EHRec$[ebp+8], -1
  01a66	8b f4		 mov	 esi, esp
  01a68	8d 4d 24	 lea	 ecx, DWORD PTR _newSkinPath$[ebp]
  01a6b	ff 15 00 00 00
	00		 call	 DWORD PTR __imp_??1?$basic_string@DU?$char_traits@D@std@@V?$allocator@D@2@@std@@QAE@XZ
  01a71	3b f4		 cmp	 esi, esp
  01a73	e8 00 00 00 00	 call	 __RTC_CheckEsp
  01a78	e9 78 01 00 00	 jmp	 $L196708
$L196709:

; 325  : 
; 326  : 	if(!m_bNormal)

  01a7d	8b 45 f0	 mov	 eax, DWORD PTR _this$[ebp]
  01a80	0f b6 88 bc 05
	00 00		 movzx	 ecx, BYTE PTR [eax+1468]
  01a87	85 c9		 test	 ecx, ecx
  01a89	0f 85 82 00 00
	00		 jne	 $L196710

; 327  : 		AfxGetUIManager()->UIGetLayoutMgr()->ShowLayer( s_STRBUTTONLAYER,s_STRBUTTON_NORMAL );

  01a8f	51		 push	 ecx
  01a90	8b cc		 mov	 ecx, esp
  01a92	89 65 d4	 mov	 DWORD PTR $T198252[ebp], esp
  01a95	8b f4		 mov	 esi, esp
  01a97	8b 15 00 00 00
	00		 mov	 edx, DWORD PTR _s_STRBUTTON_NORMAL
  01a9d	52		 push	 edx
  01a9e	ff 15 00 00 00
	00		 call	 DWORD PTR __imp_??0?$CStringT@DV?$StrTraitMFC_DLL@DV?$ChTraitsCRT@D@ATL@@@@@ATL@@QAE@PBD@Z
  01aa4	3b f4		 cmp	 esi, esp
  01aa6	e8 00 00 00 00	 call	 __RTC_CheckEsp
  01aab	89 45 c4	 mov	 DWORD PTR tv214[ebp], eax
  01aae	8b 45 c4	 mov	 eax, DWORD PTR tv214[ebp]
  01ab1	89 45 c0	 mov	 DWORD PTR tv199[ebp], eax
  01ab4	c6 45 fc 02	 mov	 BYTE PTR __$EHRec$[ebp+8], 2
  01ab8	51		 push	 ecx
  01ab9	8b cc		 mov	 ecx, esp
  01abb	89 65 d0	 mov	 DWORD PTR $T198253[ebp], esp
  01abe	8b f4		 mov	 esi, esp
  01ac0	8b 15 00 00 00
	00		 mov	 edx, DWORD PTR _s_STRBUTTONLAYER
  01ac6	52		 push	 edx
  01ac7	ff 15 00 00 00
	00		 call	 DWORD PTR __imp_??0?$CStringT@DV?$StrTraitMFC_DLL@DV?$ChTraitsCRT@D@ATL@@@@@ATL@@QAE@PBD@Z
  01acd	3b f4		 cmp	 esi, esp
  01acf	e8 00 00 00 00	 call	 __RTC_CheckEsp
  01ad4	89 45 bc	 mov	 DWORD PTR tv217[ebp], eax
  01ad7	8b 45 bc	 mov	 eax, DWORD PTR tv217[ebp]
  01ada	89 45 b8	 mov	 DWORD PTR tv202[ebp], eax
  01add	c6 45 fc 03	 mov	 BYTE PTR __$EHRec$[ebp+8], 3
  01ae1	e8 00 00 00 00	 call	 ?AfxGetUIManager@@YAPAVIUIManager@@XZ ; AfxGetUIManager
  01ae6	89 45 b4	 mov	 DWORD PTR tv77[ebp], eax
  01ae9	8b f4		 mov	 esi, esp
  01aeb	8b 4d b4	 mov	 ecx, DWORD PTR tv77[ebp]
  01aee	8b 11		 mov	 edx, DWORD PTR [ecx]
  01af0	8b 4d b4	 mov	 ecx, DWORD PTR tv77[ebp]
  01af3	ff 52 24	 call	 DWORD PTR [edx+36]
  01af6	3b f4		 cmp	 esi, esp
  01af8	e8 00 00 00 00	 call	 __RTC_CheckEsp
  01afd	89 45 b0	 mov	 DWORD PTR tv82[ebp], eax
  01b00	8b 45 b0	 mov	 eax, DWORD PTR tv82[ebp]
  01b03	8b 10		 mov	 edx, DWORD PTR [eax]
  01b05	c6 45 fc 01	 mov	 BYTE PTR __$EHRec$[ebp+8], 1
  01b09	8b 4d b0	 mov	 ecx, DWORD PTR tv82[ebp]
  01b0c	ff 52 24	 call	 DWORD PTR [edx+36]

; 328  : 	else

  01b0f	eb 7f		 jmp	 SHORT $L196713
$L196710:

; 329  : 		AfxGetUIManager()->UIGetLayoutMgr()->ShowLayer( s_STRBUTTONLAYER,s_STRBUTTON_LARGE );

  01b11	51		 push	 ecx
  01b12	8b cc		 mov	 ecx, esp
  01b14	89 65 cc	 mov	 DWORD PTR $T198254[ebp], esp
  01b17	8b f4		 mov	 esi, esp
  01b19	a1 00 00 00 00	 mov	 eax, DWORD PTR _s_STRBUTTON_LARGE
  01b1e	50		 push	 eax
  01b1f	ff 15 00 00 00
	00		 call	 DWORD PTR __imp_??0?$CStringT@DV?$StrTraitMFC_DLL@DV?$ChTraitsCRT@D@ATL@@@@@ATL@@QAE@PBD@Z
  01b25	3b f4		 cmp	 esi, esp
  01b27	e8 00 00 00 00	 call	 __RTC_CheckEsp
  01b2c	89 45 ac	 mov	 DWORD PTR tv220[ebp], eax
  01b2f	8b 4d ac	 mov	 ecx, DWORD PTR tv220[ebp]
  01b32	89 4d a8	 mov	 DWORD PTR tv204[ebp], ecx
  01b35	c6 45 fc 04	 mov	 BYTE PTR __$EHRec$[ebp+8], 4
  01b39	51		 push	 ecx
  01b3a	8b cc		 mov	 ecx, esp
  01b3c	89 65 c8	 mov	 DWORD PTR $T198255[ebp], esp
  01b3f	8b f4		 mov	 esi, esp
  01b41	8b 15 00 00 00
	00		 mov	 edx, DWORD PTR _s_STRBUTTONLAYER
  01b47	52		 push	 edx
  01b48	ff 15 00 00 00
	00		 call	 DWORD PTR __imp_??0?$CStringT@DV?$StrTraitMFC_DLL@DV?$ChTraitsCRT@D@ATL@@@@@ATL@@QAE@PBD@Z
  01b4e	3b f4		 cmp	 esi, esp
  01b50	e8 00 00 00 00	 call	 __RTC_CheckEsp
  01b55	89 45 a4	 mov	 DWORD PTR tv223[ebp], eax
  01b58	8b 45 a4	 mov	 eax, DWORD PTR tv223[ebp]
  01b5b	89 45 a0	 mov	 DWORD PTR tv207[ebp], eax
  01b5e	c6 45 fc 05	 mov	 BYTE PTR __$EHRec$[ebp+8], 5
  01b62	e8 00 00 00 00	 call	 ?AfxGetUIManager@@YAPAVIUIManager@@XZ ; AfxGetUIManager
  01b67	89 45 9c	 mov	 DWORD PTR tv146[ebp], eax
  01b6a	8b f4		 mov	 esi, esp
  01b6c	8b 4d 9c	 mov	 ecx, DWORD PTR tv146[ebp]
  01b6f	8b 11		 mov	 edx, DWORD PTR [ecx]
  01b71	8b 4d 9c	 mov	 ecx, DWORD PTR tv146[ebp]
  01b74	ff 52 24	 call	 DWORD PTR [edx+36]
  01b77	3b f4		 cmp	 esi, esp
  01b79	e8 00 00 00 00	 call	 __RTC_CheckEsp
  01b7e	89 45 98	 mov	 DWORD PTR tv151[ebp], eax
  01b81	8b 45 98	 mov	 eax, DWORD PTR tv151[ebp]
  01b84	8b 10		 mov	 edx, DWORD PTR [eax]
  01b86	c6 45 fc 01	 mov	 BYTE PTR __$EHRec$[ebp+8], 1
  01b8a	8b 4d 98	 mov	 ecx, DWORD PTR tv151[ebp]
  01b8d	ff 52 24	 call	 DWORD PTR [edx+36]
$L196713:

; 330  : 
; 331  : 	CRect rc;

  01b90	8d 4d dc	 lea	 ecx, DWORD PTR _rc$[ebp]
  01b93	e8 00 00 00 00	 call	 ??0CRect@@QAE@XZ	; CRect::CRect

; 332  : 	GetWindowRect(&rc);

  01b98	8d 45 dc	 lea	 eax, DWORD PTR _rc$[ebp]
  01b9b	50		 push	 eax
  01b9c	8b 4d f0	 mov	 ecx, DWORD PTR _this$[ebp]
  01b9f	83 e9 54	 sub	 ecx, 84			; 00000054H
  01ba2	e8 00 00 00 00	 call	 ?GetWindowRect@CWnd@@QBEXPAUtagRECT@@@Z ; CWnd::GetWindowRect

; 333  : 	OnSize(0, rc.Width(), rc.Height());	

  01ba7	8d 4d dc	 lea	 ecx, DWORD PTR _rc$[ebp]
  01baa	e8 00 00 00 00	 call	 ?Height@CRect@@QBEHXZ	; CRect::Height
  01baf	50		 push	 eax
  01bb0	8d 4d dc	 lea	 ecx, DWORD PTR _rc$[ebp]
  01bb3	e8 00 00 00 00	 call	 ?Width@CRect@@QBEHXZ	; CRect::Width
  01bb8	50		 push	 eax
  01bb9	6a 00		 push	 0
  01bbb	8b 4d f0	 mov	 ecx, DWORD PTR _this$[ebp]
  01bbe	83 e9 54	 sub	 ecx, 84			; 00000054H
  01bc1	e8 00 00 00 00	 call	 ?OnSize@CBasicWnd@@IAEXIHH@Z ; CBasicWnd::OnSize

; 334  : }

  01bc6	c6 45 fc 00	 mov	 BYTE PTR __$EHRec$[ebp+8], 0
  01bca	8b f4		 mov	 esi, esp
  01bcc	8d 4d 08	 lea	 ecx, DWORD PTR _oldSkinPath$[ebp]
  01bcf	ff 15 00 00 00
	00		 call	 DWORD PTR __imp_??1?$basic_string@DU?$char_traits@D@std@@V?$allocator@D@2@@std@@QAE@XZ
  01bd5	3b f4		 cmp	 esi, esp
  01bd7	e8 00 00 00 00	 call	 __RTC_CheckEsp
  01bdc	c7 45 fc ff ff
	ff ff		 mov	 DWORD PTR __$EHRec$[ebp+8], -1
  01be3	8b f4		 mov	 esi, esp
  01be5	8d 4d 24	 lea	 ecx, DWORD PTR _newSkinPath$[ebp]
  01be8	ff 15 00 00 00
	00		 call	 DWORD PTR __imp_??1?$basic_string@DU?$char_traits@D@std@@V?$allocator@D@2@@std@@QAE@XZ
  01bee	3b f4		 cmp	 esi, esp
  01bf0	e8 00 00 00 00	 call	 __RTC_CheckEsp
$L196708:
  01bf5	52		 push	 edx
  01bf6	8b cd		 mov	 ecx, ebp
  01bf8	50		 push	 eax
  01bf9	8d 15 00 00 00
	00		 lea	 edx, DWORD PTR $L198267
  01bff	e8 00 00 00 00	 call	 @_RTC_CheckStackVars@8
  01c04	58		 pop	 eax
  01c05	5a		 pop	 edx
  01c06	8b 4d f4	 mov	 ecx, DWORD PTR __$EHRec$[ebp]
  01c09	64 89 0d 00 00
	00 00		 mov	 DWORD PTR fs:__except_list, ecx
  01c10	5f		 pop	 edi
  01c11	5e		 pop	 esi
  01c12	83 c4 68	 add	 esp, 104		; 00000068H
  01c15	3b ec		 cmp	 ebp, esp
  01c17	e8 00 00 00 00	 call	 __RTC_CheckEsp
  01c1c	8b e5		 mov	 esp, ebp
  01c1e	5d		 pop	 ebp
  01c1f	c2 38 00	 ret	 56			; 00000038H
$L198267:
  01c22	01 00 00 00	 DD	 1
  01c26	00 00 00 00	 DD	 $L198266
$L198266:
  01c2a	dc ff ff ff	 DD	 -36			; ffffffdcH
  01c2e	10 00 00 00	 DD	 16			; 00000010H
  01c32	00 00 00 00	 DD	 $L198264
$L198264:
  01c36	72		 DB	 114			; 00000072H
  01c37	63		 DB	 99			; 00000063H
  01c38	00		 DB	 0
_TEXT	ENDS
text$x	SEGMENT
$L198256:
  00471	8b f4		 mov	 esi, esp
  00473	8d 4d 24	 lea	 ecx, DWORD PTR _newSkinPath$[ebp]
  00476	ff 15 00 00 00
	00		 call	 DWORD PTR __imp_??1?$basic_string@DU?$char_traits@D@std@@V?$allocator@D@2@@std@@QAE@XZ
  0047c	3b f4		 cmp	 esi, esp
  0047e	e9 00 00 00 00	 jmp	 __RTC_CheckEsp
$L198257:
  00483	8b f4		 mov	 esi, esp
  00485	8d 4d 08	 lea	 ecx, DWORD PTR _oldSkinPath$[ebp]
  00488	ff 15 00 00 00
	00		 call	 DWORD PTR __imp_??1?$basic_string@DU?$char_traits@D@std@@V?$allocator@D@2@@std@@QAE@XZ
  0048e	3b f4		 cmp	 esi, esp
  00490	e9 00 00 00 00	 jmp	 __RTC_CheckEsp
$L198258:
  00495	8b f4		 mov	 esi, esp
  00497	8b 4d d4	 mov	 ecx, DWORD PTR $T198252[ebp]
  0049a	ff 15 00 00 00
	00		 call	 DWORD PTR __imp_??1?$CStringT@DV?$StrTraitMFC_DLL@DV?$ChTraitsCRT@D@ATL@@@@@ATL@@QAE@XZ
  004a0	3b f4		 cmp	 esi, esp
  004a2	e9 00 00 00 00	 jmp	 __RTC_CheckEsp
$L198259:
  004a7	8b f4		 mov	 esi, esp
  004a9	8b 4d d0	 mov	 ecx, DWORD PTR $T198253[ebp]
  004ac	ff 15 00 00 00
	00		 call	 DWORD PTR __imp_??1?$CStringT@DV?$StrTraitMFC_DLL@DV?$ChTraitsCRT@D@ATL@@@@@ATL@@QAE@XZ
  004b2	3b f4		 cmp	 esi, esp
  004b4	e9 00 00 00 00	 jmp	 __RTC_CheckEsp
$L198260:
  004b9	8b f4		 mov	 esi, esp
  004bb	8b 4d cc	 mov	 ecx, DWORD PTR $T198254[ebp]
  004be	ff 15 00 00 00
	00		 call	 DWORD PTR __imp_??1?$CStringT@DV?$StrTraitMFC_DLL@DV?$ChTraitsCRT@D@ATL@@@@@ATL@@QAE@XZ
  004c4	3b f4		 cmp	 esi, esp
  004c6	e9 00 00 00 00	 jmp	 __RTC_CheckEsp
$L198261:
  004cb	8b f4		 mov	 esi, esp
  004cd	8b 4d c8	 mov	 ecx, DWORD PTR $T198255[ebp]
  004d0	ff 15 00 00 00
	00		 call	 DWORD PTR __imp_??1?$CStringT@DV?$StrTraitMFC_DLL@DV?$ChTraitsCRT@D@ATL@@@@@ATL@@QAE@XZ
  004d6	3b f4		 cmp	 esi, esp
  004d8	e9 00 00 00 00	 jmp	 __RTC_CheckEsp
__ehhandler$?ILayoutChangeOb_SkinChanged@CTopPanelWnd@@UAEXV?$basic_string@DU?$char_traits@D@std@@V?$allocator@D@2@@std@@0@Z:
  004dd	b8 00 00 00 00	 mov	 eax, OFFSET FLAT:$T198263
  004e2	e9 00 00 00 00	 jmp	 ___CxxFrameHandler
text$x	ENDS
?ILayoutChangeOb_SkinChanged@CTopPanelWnd@@UAEXV?$basic_string@DU?$char_traits@D@std@@V?$allocator@D@2@@std@@0@Z ENDP ; CTopPanelWnd::ILayoutChangeOb_SkinChanged
PUBLIC	?CharUpperWFake@ATL@@YGPA_WPA_W@Z		; ATL::CharUpperWFake
EXTRN	__imp__CharUpperW@4:NEAR
; Function compile flags: /Odt /RTCsu
; File d:\program files (x86)\microsoft visual studio .net 2003\vc7\atlmfc\include\cstringt.h
;	COMDAT ?CharUpperWThunk@ATL@@YGPA_WPA_W@Z
_TEXT	SEGMENT
_psz$ = 8						; size = 4
?CharUpperWThunk@ATL@@YGPA_WPA_W@Z PROC NEAR		; ATL::CharUpperWThunk, COMDAT

; 292  : {

  00000	55		 push	 ebp
  00001	8b ec		 mov	 ebp, esp
  00003	56		 push	 esi

; 293  : 	_AtlInstallStringThunk(reinterpret_cast<void**>(&_strthunks.pfnCharUpperW), CharUpperWFake, ::CharUpperW);

  00004	a1 00 00 00 00	 mov	 eax, DWORD PTR __imp__CharUpperW@4
  00009	50		 push	 eax
  0000a	68 00 00 00 00	 push	 OFFSET FLAT:?CharUpperWFake@ATL@@YGPA_WPA_W@Z ; ATL::CharUpperWFake
  0000f	68 10 00 00 00	 push	 OFFSET FLAT:?_strthunks@ATL@@3U_AtlStringThunks@1@A+16
  00014	e8 00 00 00 00	 call	 ?_AtlInstallStringThunk@ATL@@YAXPAPAXPAX1@Z ; ATL::_AtlInstallStringThunk
  00019	83 c4 0c	 add	 esp, 12			; 0000000cH

; 294  : 
; 295  : 	return _strthunks.pfnCharUpperW(psz);

  0001c	8b f4		 mov	 esi, esp
  0001e	8b 4d 08	 mov	 ecx, DWORD PTR _psz$[ebp]
  00021	51		 push	 ecx
  00022	ff 15 10 00 00
	00		 call	 DWORD PTR ?_strthunks@ATL@@3U_AtlStringThunks@1@A+16
  00028	3b f4		 cmp	 esi, esp
  0002a	e8 00 00 00 00	 call	 __RTC_CheckEsp

; 296  : }

  0002f	5e		 pop	 esi
  00030	3b ec		 cmp	 ebp, esp
  00032	e8 00 00 00 00	 call	 __RTC_CheckEsp
  00037	5d		 pop	 ebp
  00038	c2 04 00	 ret	 4
?CharUpperWThunk@ATL@@YGPA_WPA_W@Z ENDP			; ATL::CharUpperWThunk
_TEXT	ENDS
EXTRN	__imp__CharUpperA@4:NEAR
; Function compile flags: /Odt /RTCsu
;	COMDAT ?CharUpperWFake@ATL@@YGPA_WPA_W@Z
_TEXT	SEGMENT
tv90 = -36						; size = 4
tv94 = -32						; size = 4
tv75 = -28						; size = 4
tv78 = -24						; size = 4
_pszA$ = -20						; size = 4
__lpa$ = -16						; size = 4
__lpw$ = -12						; size = 4
__acp$ = -8						; size = 4
__convert$ = -4						; size = 4
_psz$ = 8						; size = 4
?CharUpperWFake@ATL@@YGPA_WPA_W@Z PROC NEAR		; ATL::CharUpperWFake, COMDAT

; 280  : {

  00000	55		 push	 ebp
  00001	8b ec		 mov	 ebp, esp
  00003	83 ec 24	 sub	 esp, 36			; 00000024H
  00006	56		 push	 esi
  00007	b8 cc cc cc cc	 mov	 eax, -858993460		; ccccccccH
  0000c	89 45 dc	 mov	 DWORD PTR [ebp-36], eax
  0000f	89 45 e0	 mov	 DWORD PTR [ebp-32], eax
  00012	89 45 e4	 mov	 DWORD PTR [ebp-28], eax
  00015	89 45 e8	 mov	 DWORD PTR [ebp-24], eax
  00018	89 45 ec	 mov	 DWORD PTR [ebp-20], eax
  0001b	89 45 f0	 mov	 DWORD PTR [ebp-16], eax
  0001e	89 45 f4	 mov	 DWORD PTR [ebp-12], eax
  00021	89 45 f8	 mov	 DWORD PTR [ebp-8], eax
  00024	89 45 fc	 mov	 DWORD PTR [ebp-4], eax

; 281  : 	USES_CONVERSION;

  00027	c7 45 fc 00 00
	00 00		 mov	 DWORD PTR __convert$[ebp], 0
  0002e	e8 00 00 00 00	 call	 ?_AtlGetConversionACP@ATL@@YGIXZ ; ATL::_AtlGetConversionACP
  00033	89 45 f8	 mov	 DWORD PTR __acp$[ebp], eax
  00036	c7 45 f4 00 00
	00 00		 mov	 DWORD PTR __lpw$[ebp], 0
  0003d	c7 45 f0 00 00
	00 00		 mov	 DWORD PTR __lpa$[ebp], 0

; 282  : 	LPSTR pszA;
; 283  : 
; 284  : 	pszA = W2A(psz);

  00044	8b 45 08	 mov	 eax, DWORD PTR _psz$[ebp]
  00047	89 45 f4	 mov	 DWORD PTR __lpw$[ebp], eax
  0004a	83 7d f4 00	 cmp	 DWORD PTR __lpw$[ebp], 0
  0004e	75 09		 jne	 SHORT $L198271
  00050	c7 45 e8 00 00
	00 00		 mov	 DWORD PTR tv78[ebp], 0
  00057	eb 43		 jmp	 SHORT $L198272
$L198271:
  00059	8b f4		 mov	 esi, esp
  0005b	8b 4d f4	 mov	 ecx, DWORD PTR __lpw$[ebp]
  0005e	51		 push	 ecx
  0005f	ff 15 00 00 00
	00		 call	 DWORD PTR __imp__lstrlenW@4
  00065	3b f4		 cmp	 esi, esp
  00067	e8 00 00 00 00	 call	 __RTC_CheckEsp
  0006c	8d 54 00 02	 lea	 edx, DWORD PTR [eax+eax+2]
  00070	89 55 fc	 mov	 DWORD PTR __convert$[ebp], edx
  00073	8b 45 fc	 mov	 eax, DWORD PTR __convert$[ebp]
  00076	83 c0 03	 add	 eax, 3
  00079	83 e0 fc	 and	 eax, -4			; fffffffcH
  0007c	e8 00 00 00 00	 call	 __alloca_probe
  00081	89 65 e4	 mov	 DWORD PTR tv75[ebp], esp
  00084	8b 45 f8	 mov	 eax, DWORD PTR __acp$[ebp]
  00087	50		 push	 eax
  00088	8b 4d fc	 mov	 ecx, DWORD PTR __convert$[ebp]
  0008b	51		 push	 ecx
  0008c	8b 55 f4	 mov	 edx, DWORD PTR __lpw$[ebp]
  0008f	52		 push	 edx
  00090	8b 45 e4	 mov	 eax, DWORD PTR tv75[ebp]
  00093	50		 push	 eax
  00094	e8 00 00 00 00	 call	 ?AtlW2AHelper@@YGPADPADPB_WHI@Z ; AtlW2AHelper
  00099	89 45 e8	 mov	 DWORD PTR tv78[ebp], eax
$L198272:
  0009c	8b 4d e8	 mov	 ecx, DWORD PTR tv78[ebp]
  0009f	89 4d ec	 mov	 DWORD PTR _pszA$[ebp], ecx

; 285  : 	::CharUpperA(pszA);

  000a2	8b f4		 mov	 esi, esp
  000a4	8b 55 ec	 mov	 edx, DWORD PTR _pszA$[ebp]
  000a7	52		 push	 edx
  000a8	ff 15 00 00 00
	00		 call	 DWORD PTR __imp__CharUpperA@4
  000ae	3b f4		 cmp	 esi, esp
  000b0	e8 00 00 00 00	 call	 __RTC_CheckEsp

; 286  : 	wcscpy(psz, A2W(pszA));

  000b5	8b 45 ec	 mov	 eax, DWORD PTR _pszA$[ebp]
  000b8	89 45 f0	 mov	 DWORD PTR __lpa$[ebp], eax
  000bb	83 7d f0 00	 cmp	 DWORD PTR __lpa$[ebp], 0
  000bf	75 09		 jne	 SHORT $L198273
  000c1	c7 45 e0 00 00
	00 00		 mov	 DWORD PTR tv94[ebp], 0
  000c8	eb 44		 jmp	 SHORT $L198274
$L198273:
  000ca	8b f4		 mov	 esi, esp
  000cc	8b 4d f0	 mov	 ecx, DWORD PTR __lpa$[ebp]
  000cf	51		 push	 ecx
  000d0	ff 15 00 00 00
	00		 call	 DWORD PTR __imp__lstrlenA@4
  000d6	3b f4		 cmp	 esi, esp
  000d8	e8 00 00 00 00	 call	 __RTC_CheckEsp
  000dd	83 c0 01	 add	 eax, 1
  000e0	89 45 fc	 mov	 DWORD PTR __convert$[ebp], eax
  000e3	8b 45 fc	 mov	 eax, DWORD PTR __convert$[ebp]
  000e6	d1 e0		 shl	 eax, 1
  000e8	83 c0 03	 add	 eax, 3
  000eb	83 e0 fc	 and	 eax, -4			; fffffffcH
  000ee	e8 00 00 00 00	 call	 __alloca_probe
  000f3	89 65 dc	 mov	 DWORD PTR tv90[ebp], esp
  000f6	8b 55 f8	 mov	 edx, DWORD PTR __acp$[ebp]
  000f9	52		 push	 edx
  000fa	8b 45 fc	 mov	 eax, DWORD PTR __convert$[ebp]
  000fd	50		 push	 eax
  000fe	8b 4d f0	 mov	 ecx, DWORD PTR __lpa$[ebp]
  00101	51		 push	 ecx
  00102	8b 55 dc	 mov	 edx, DWORD PTR tv90[ebp]
  00105	52		 push	 edx
  00106	e8 00 00 00 00	 call	 ?AtlA2WHelper@@YGPA_WPA_WPBDHI@Z ; AtlA2WHelper
  0010b	89 45 e0	 mov	 DWORD PTR tv94[ebp], eax
$L198274:
  0010e	8b f4		 mov	 esi, esp
  00110	8b 45 e0	 mov	 eax, DWORD PTR tv94[ebp]
  00113	50		 push	 eax
  00114	8b 4d 08	 mov	 ecx, DWORD PTR _psz$[ebp]
  00117	51		 push	 ecx
  00118	ff 15 00 00 00
	00		 call	 DWORD PTR __imp__wcscpy
  0011e	83 c4 08	 add	 esp, 8
  00121	3b f4		 cmp	 esi, esp
  00123	e8 00 00 00 00	 call	 __RTC_CheckEsp

; 287  : 
; 288  : 	return psz;

  00128	8b 45 08	 mov	 eax, DWORD PTR _psz$[ebp]

; 289  : }

  0012b	8d 65 d8	 lea	 esp, DWORD PTR [ebp-40]
  0012e	5e		 pop	 esi
  0012f	8b e5		 mov	 esp, ebp
  00131	5d		 pop	 ebp
  00132	c2 04 00	 ret	 4
?CharUpperWFake@ATL@@YGPA_WPA_W@Z ENDP			; ATL::CharUpperWFake
_TEXT	ENDS
xdata$x	SEGMENT
$T198283 DD	0ffffffffH
	DD	FLAT:$L198278
	DD	00H
	DD	FLAT:$L198279
$T198281 DD	019930520H
	DD	02H
	DD	FLAT:$T198283
	DD	2 DUP(00H)
	DD	2 DUP(00H)
; Function compile flags: /Odt /RTCsu
; File d:\boxgit\playbox\playbox\dev\prj\playbox\src\module\toppanel\toppanelwnd.cpp
xdata$x	ENDS
_TEXT	SEGMENT
$T198277 = -72						; size = 28
$T198276 = -44						; size = 28
_this$ = -16						; size = 4
__$EHRec$ = -12						; size = 12
?OnAppExit@CTopPanelWnd@@IAEXXZ PROC NEAR		; CTopPanelWnd::OnAppExit
; _this$ = ecx

; 337  : {

  01c40	55		 push	 ebp
  01c41	8b ec		 mov	 ebp, esp
  01c43	6a ff		 push	 -1
  01c45	68 00 00 00 00	 push	 __ehhandler$?OnAppExit@CTopPanelWnd@@IAEXXZ
  01c4a	64 a1 00 00 00
	00		 mov	 eax, DWORD PTR fs:__except_list
  01c50	50		 push	 eax
  01c51	64 89 25 00 00
	00 00		 mov	 DWORD PTR fs:__except_list, esp
  01c58	83 ec 3c	 sub	 esp, 60			; 0000003cH
  01c5b	56		 push	 esi
  01c5c	57		 push	 edi
  01c5d	51		 push	 ecx
  01c5e	8d 7d b8	 lea	 edi, DWORD PTR [ebp-72]
  01c61	b9 0f 00 00 00	 mov	 ecx, 15			; 0000000fH
  01c66	b8 cc cc cc cc	 mov	 eax, -858993460		; ccccccccH
  01c6b	f3 ab		 rep stosd
  01c6d	59		 pop	 ecx
  01c6e	89 4d f0	 mov	 DWORD PTR _this$[ebp], ecx

; 338  : 	::PostMessage( AfxGetMainWindow()->m_hWnd,WM_CLOSE,0,0 );

  01c71	8b f4		 mov	 esi, esp
  01c73	6a 00		 push	 0
  01c75	6a 00		 push	 0
  01c77	6a 10		 push	 16			; 00000010H
  01c79	e8 00 00 00 00	 call	 ?AfxGetMainWindow@@YAPAVCWnd@@XZ ; AfxGetMainWindow
  01c7e	8b 40 20	 mov	 eax, DWORD PTR [eax+32]
  01c81	50		 push	 eax
  01c82	ff 15 00 00 00
	00		 call	 DWORD PTR __imp__PostMessageA@16
  01c88	3b f4		 cmp	 esi, esp
  01c8a	e8 00 00 00 00	 call	 __RTC_CheckEsp

; 339  : 	LogUserActMsg(STR_USER_CLICK, "BTN:CLOSE");

  01c8f	8b f4		 mov	 esi, esp
  01c91	68 00 00 00 00	 push	 OFFSET FLAT:$SG196722
  01c96	8d 4d d4	 lea	 ecx, DWORD PTR $T198276[ebp]
  01c99	ff 15 00 00 00
	00		 call	 DWORD PTR __imp_??0?$basic_string@DU?$char_traits@D@std@@V?$allocator@D@2@@std@@QAE@PBD@Z
  01c9f	3b f4		 cmp	 esi, esp
  01ca1	e8 00 00 00 00	 call	 __RTC_CheckEsp
  01ca6	c7 45 fc 00 00
	00 00		 mov	 DWORD PTR __$EHRec$[ebp+8], 0
  01cad	8b f4		 mov	 esi, esp
  01caf	68 00 00 00 00	 push	 OFFSET FLAT:$SG196723
  01cb4	8d 4d b8	 lea	 ecx, DWORD PTR $T198277[ebp]
  01cb7	ff 15 00 00 00
	00		 call	 DWORD PTR __imp_??0?$basic_string@DU?$char_traits@D@std@@V?$allocator@D@2@@std@@QAE@PBD@Z
  01cbd	3b f4		 cmp	 esi, esp
  01cbf	e8 00 00 00 00	 call	 __RTC_CheckEsp
  01cc4	c6 45 fc 01	 mov	 BYTE PTR __$EHRec$[ebp+8], 1
  01cc8	8b f4		 mov	 esi, esp
  01cca	8d 4d d4	 lea	 ecx, DWORD PTR $T198276[ebp]
  01ccd	51		 push	 ecx
  01cce	8d 55 b8	 lea	 edx, DWORD PTR $T198277[ebp]
  01cd1	52		 push	 edx
  01cd2	ff 15 00 00 00
	00		 call	 DWORD PTR __imp_?LogUserActMsg@@YAXABV?$basic_string@DU?$char_traits@D@std@@V?$allocator@D@2@@std@@0@Z
  01cd8	83 c4 08	 add	 esp, 8
  01cdb	3b f4		 cmp	 esi, esp
  01cdd	e8 00 00 00 00	 call	 __RTC_CheckEsp
  01ce2	c6 45 fc 00	 mov	 BYTE PTR __$EHRec$[ebp+8], 0
  01ce6	8b f4		 mov	 esi, esp
  01ce8	8d 4d b8	 lea	 ecx, DWORD PTR $T198277[ebp]
  01ceb	ff 15 00 00 00
	00		 call	 DWORD PTR __imp_??1?$basic_string@DU?$char_traits@D@std@@V?$allocator@D@2@@std@@QAE@XZ
  01cf1	3b f4		 cmp	 esi, esp
  01cf3	e8 00 00 00 00	 call	 __RTC_CheckEsp
  01cf8	c7 45 fc ff ff
	ff ff		 mov	 DWORD PTR __$EHRec$[ebp+8], -1
  01cff	8b f4		 mov	 esi, esp
  01d01	8d 4d d4	 lea	 ecx, DWORD PTR $T198276[ebp]
  01d04	ff 15 00 00 00
	00		 call	 DWORD PTR __imp_??1?$basic_string@DU?$char_traits@D@std@@V?$allocator@D@2@@std@@QAE@XZ
  01d0a	3b f4		 cmp	 esi, esp
  01d0c	e8 00 00 00 00	 call	 __RTC_CheckEsp

; 340  : }

  01d11	8b 4d f4	 mov	 ecx, DWORD PTR __$EHRec$[ebp]
  01d14	64 89 0d 00 00
	00 00		 mov	 DWORD PTR fs:__except_list, ecx
  01d1b	5f		 pop	 edi
  01d1c	5e		 pop	 esi
  01d1d	83 c4 48	 add	 esp, 72			; 00000048H
  01d20	3b ec		 cmp	 ebp, esp
  01d22	e8 00 00 00 00	 call	 __RTC_CheckEsp
  01d27	8b e5		 mov	 esp, ebp
  01d29	5d		 pop	 ebp
  01d2a	c3		 ret	 0
_TEXT	ENDS
text$x	SEGMENT
$L198278:
  004e7	8b f4		 mov	 esi, esp
  004e9	8d 4d d4	 lea	 ecx, DWORD PTR $T198276[ebp]
  004ec	ff 15 00 00 00
	00		 call	 DWORD PTR __imp_??1?$basic_string@DU?$char_traits@D@std@@V?$allocator@D@2@@std@@QAE@XZ
  004f2	3b f4		 cmp	 esi, esp
  004f4	e9 00 00 00 00	 jmp	 __RTC_CheckEsp
$L198279:
  004f9	8b f4		 mov	 esi, esp
  004fb	8d 4d b8	 lea	 ecx, DWORD PTR $T198277[ebp]
  004fe	ff 15 00 00 00
	00		 call	 DWORD PTR __imp_??1?$basic_string@DU?$char_traits@D@std@@V?$allocator@D@2@@std@@QAE@XZ
  00504	3b f4		 cmp	 esi, esp
  00506	e9 00 00 00 00	 jmp	 __RTC_CheckEsp
__ehhandler$?OnAppExit@CTopPanelWnd@@IAEXXZ:
  0050b	b8 00 00 00 00	 mov	 eax, OFFSET FLAT:$T198281
  00510	e9 00 00 00 00	 jmp	 ___CxxFrameHandler
text$x	ENDS
?OnAppExit@CTopPanelWnd@@IAEXXZ ENDP			; CTopPanelWnd::OnAppExit
PUBLIC	??_DCConfigDialog@@QAEXXZ			; CConfigDialog::`vbase destructor'
EXTRN	??0CConfigDialog@@QAE@HPAVCWnd@@@Z:NEAR		; CConfigDialog::CConfigDialog
xdata$x	SEGMENT
$T198294 DD	0ffffffffH
	DD	FLAT:$L198286
$T198288 DD	019930520H
	DD	01H
	DD	FLAT:$T198294
	DD	2 DUP(00H)
	DD	2 DUP(00H)
; Function compile flags: /Odt /RTCsu
xdata$x	ENDS
_TEXT	SEGMENT
_configDlg$ = -1284					; size = 1260
_this$ = -20						; size = 4
__$ArrayPad$ = -16					; size = 4
__$EHRec$ = -12						; size = 12
__$ReturnAddr$ = 4					; size = 4
?OnSetting@CTopPanelWnd@@IAEXXZ PROC NEAR		; CTopPanelWnd::OnSetting
; _this$ = ecx

; 343  : {

  01d30	55		 push	 ebp
  01d31	8b ec		 mov	 ebp, esp
  01d33	6a ff		 push	 -1
  01d35	68 00 00 00 00	 push	 __ehhandler$?OnSetting@CTopPanelWnd@@IAEXXZ
  01d3a	64 a1 00 00 00
	00		 mov	 eax, DWORD PTR fs:__except_list
  01d40	50		 push	 eax
  01d41	64 89 25 00 00
	00 00		 mov	 DWORD PTR fs:__except_list, esp
  01d48	81 ec fc 04 00
	00		 sub	 esp, 1276		; 000004fcH
  01d4e	57		 push	 edi
  01d4f	51		 push	 ecx
  01d50	8d bd f8 fa ff
	ff		 lea	 edi, DWORD PTR [ebp-1288]
  01d56	b9 3f 01 00 00	 mov	 ecx, 319		; 0000013fH
  01d5b	b8 cc cc cc cc	 mov	 eax, -858993460		; ccccccccH
  01d60	f3 ab		 rep stosd
  01d62	59		 pop	 ecx
  01d63	a1 00 00 00 00	 mov	 eax, DWORD PTR ___security_cookie
  01d68	89 45 f0	 mov	 DWORD PTR __$ArrayPad$[ebp], eax
  01d6b	89 4d ec	 mov	 DWORD PTR _this$[ebp], ecx

; 344  : 	CConfigDialog configDlg;

  01d6e	6a 01		 push	 1
  01d70	6a 00		 push	 0
  01d72	6a 00		 push	 0
  01d74	8d 8d fc fa ff
	ff		 lea	 ecx, DWORD PTR _configDlg$[ebp]
  01d7a	e8 00 00 00 00	 call	 ??0CConfigDialog@@QAE@HPAVCWnd@@@Z ; CConfigDialog::CConfigDialog
  01d7f	c7 45 fc 00 00
	00 00		 mov	 DWORD PTR __$EHRec$[ebp+8], 0

; 345  : 	configDlg.DoModal();

  01d86	8d 8d fc fa ff
	ff		 lea	 ecx, DWORD PTR _configDlg$[ebp]
  01d8c	e8 00 00 00 00	 call	 ?DoModal@CDialog@@UAEHXZ ; CDialog::DoModal

; 346  : }

  01d91	c7 45 fc ff ff
	ff ff		 mov	 DWORD PTR __$EHRec$[ebp+8], -1
  01d98	8d 8d fc fa ff
	ff		 lea	 ecx, DWORD PTR _configDlg$[ebp]
  01d9e	e8 00 00 00 00	 call	 ??_DCConfigDialog@@QAEXXZ
  01da3	52		 push	 edx
  01da4	8b cd		 mov	 ecx, ebp
  01da6	50		 push	 eax
  01da7	8d 15 00 00 00
	00		 lea	 edx, DWORD PTR $L198293
  01dad	e8 00 00 00 00	 call	 @_RTC_CheckStackVars@8
  01db2	58		 pop	 eax
  01db3	5a		 pop	 edx
  01db4	8b 4d f4	 mov	 ecx, DWORD PTR __$EHRec$[ebp]
  01db7	64 89 0d 00 00
	00 00		 mov	 DWORD PTR fs:__except_list, ecx
  01dbe	8b 4d f0	 mov	 ecx, DWORD PTR __$ArrayPad$[ebp]
  01dc1	e8 00 00 00 00	 call	 @__security_check_cookie@4
  01dc6	5f		 pop	 edi
  01dc7	81 c4 08 05 00
	00		 add	 esp, 1288		; 00000508H
  01dcd	3b ec		 cmp	 ebp, esp
  01dcf	e8 00 00 00 00	 call	 __RTC_CheckEsp
  01dd4	8b e5		 mov	 esp, ebp
  01dd6	5d		 pop	 ebp
  01dd7	c3		 ret	 0
$L198293:
  01dd8	01 00 00 00	 DD	 1
  01ddc	00 00 00 00	 DD	 $L198292
$L198292:
  01de0	fc fa ff ff	 DD	 -1284			; fffffafcH
  01de4	ec 04 00 00	 DD	 1260			; 000004ecH
  01de8	00 00 00 00	 DD	 $L198289
$L198289:
  01dec	63		 DB	 99			; 00000063H
  01ded	6f		 DB	 111			; 0000006fH
  01dee	6e		 DB	 110			; 0000006eH
  01def	66		 DB	 102			; 00000066H
  01df0	69		 DB	 105			; 00000069H
  01df1	67		 DB	 103			; 00000067H
  01df2	44		 DB	 68			; 00000044H
  01df3	6c		 DB	 108			; 0000006cH
  01df4	67		 DB	 103			; 00000067H
  01df5	00		 DB	 0
_TEXT	ENDS
text$x	SEGMENT
$L198286:
  00515	8d 8d fc fa ff
	ff		 lea	 ecx, DWORD PTR _configDlg$[ebp]
  0051b	e9 00 00 00 00	 jmp	 ??_DCConfigDialog@@QAEXXZ
__ehhandler$?OnSetting@CTopPanelWnd@@IAEXXZ:
  00520	b8 00 00 00 00	 mov	 eax, OFFSET FLAT:$T198288
  00525	e9 00 00 00 00	 jmp	 ___CxxFrameHandler
text$x	ENDS
?OnSetting@CTopPanelWnd@@IAEXXZ ENDP			; CTopPanelWnd::OnSetting
EXTRN	??1CConfigDialog@@UAE@XZ:NEAR			; CConfigDialog::~CConfigDialog
; Function compile flags: /Odt /RTCsu
;	COMDAT ??_DCConfigDialog@@QAEXXZ
_TEXT	SEGMENT
_this$ = -4						; size = 4
??_DCConfigDialog@@QAEXXZ PROC NEAR			; CConfigDialog::`vbase destructor', COMDAT
; _this$ = ecx
  00000	55		 push	 ebp
  00001	8b ec		 mov	 ebp, esp
  00003	51		 push	 ecx
  00004	c7 45 fc cc cc
	cc cc		 mov	 DWORD PTR [ebp-4], -858993460 ; ccccccccH
  0000b	89 4d fc	 mov	 DWORD PTR _this$[ebp], ecx
  0000e	8b 4d fc	 mov	 ecx, DWORD PTR _this$[ebp]
  00011	e8 00 00 00 00	 call	 ??1CConfigDialog@@UAE@XZ ; CConfigDialog::~CConfigDialog
  00016	8b 4d fc	 mov	 ecx, DWORD PTR _this$[ebp]
  00019	81 c1 e8 04 00
	00		 add	 ecx, 1256		; 000004e8H
  0001f	e8 00 00 00 00	 call	 ??1IMessageObserver@@UAE@XZ ; IMessageObserver::~IMessageObserver
  00024	83 c4 04	 add	 esp, 4
  00027	3b ec		 cmp	 ebp, esp
  00029	e8 00 00 00 00	 call	 __RTC_CheckEsp
  0002e	8b e5		 mov	 esp, ebp
  00030	5d		 pop	 ebp
  00031	c3		 ret	 0
??_DCConfigDialog@@QAEXXZ ENDP				; CConfigDialog::`vbase destructor'
_TEXT	ENDS
EXTRN	?HoldWindow@CTopPanelControl@@QAEXXZ:NEAR	; CTopPanelControl::HoldWindow
; Function compile flags: /Odt /RTCsu
_TEXT	SEGMENT
_this$ = -4						; size = 4
?OnBnClickedHold@CTopPanelWnd@@IAEXXZ PROC NEAR		; CTopPanelWnd::OnBnClickedHold
; _this$ = ecx

; 349  : {

  01e00	55		 push	 ebp
  01e01	8b ec		 mov	 ebp, esp
  01e03	51		 push	 ecx
  01e04	c7 45 fc cc cc
	cc cc		 mov	 DWORD PTR [ebp-4], -858993460 ; ccccccccH
  01e0b	89 4d fc	 mov	 DWORD PTR _this$[ebp], ecx

; 350  : 	CTopPanelControl::GetInstance()->HoldWindow();

  01e0e	e8 00 00 00 00	 call	 ?GetInstance@CTopPanelControl@@SAPAV1@XZ ; CTopPanelControl::GetInstance
  01e13	8b c8		 mov	 ecx, eax
  01e15	e8 00 00 00 00	 call	 ?HoldWindow@CTopPanelControl@@QAEXXZ ; CTopPanelControl::HoldWindow

; 351  : }

  01e1a	83 c4 04	 add	 esp, 4
  01e1d	3b ec		 cmp	 ebp, esp
  01e1f	e8 00 00 00 00	 call	 __RTC_CheckEsp
  01e24	8b e5		 mov	 esp, ebp
  01e26	5d		 pop	 ebp
  01e27	c3		 ret	 0
?OnBnClickedHold@CTopPanelWnd@@IAEXXZ ENDP		; CTopPanelWnd::OnBnClickedHold
_TEXT	ENDS
EXTRN	?AfxGetMainWnd@@YGPAVCWnd@@XZ:NEAR		; AfxGetMainWnd
EXTRN	?ModifyStyle@CWnd@@QAEHKKI@Z:NEAR		; CWnd::ModifyStyle
EXTRN	?SetConfigBoolValue@AfxUserConfig@@QAEXABV?$basic_string@DU?$char_traits@D@std@@V?$allocator@D@2@@std@@0_N1@Z:NEAR ; AfxUserConfig::SetConfigBoolValue
EXTRN	?IsIconic@CWnd@@QBEHXZ:NEAR			; CWnd::IsIconic
EXTRN	?IsWindowVisible@CWnd@@QBEHXZ:NEAR		; CWnd::IsWindowVisible
xdata$x	SEGMENT
$T198317 DD	0ffffffffH
	DD	FLAT:$L198304
	DD	00H
	DD	FLAT:$L198305
	DD	0ffffffffH
	DD	FLAT:$L198306
	DD	02H
	DD	FLAT:$L198307
	DD	0ffffffffH
	DD	FLAT:$L198308
	DD	04H
	DD	FLAT:$L198309
$T198311 DD	019930520H
	DD	06H
	DD	FLAT:$T198317
	DD	2 DUP(00H)
	DD	2 DUP(00H)
; Function compile flags: /Odt /RTCsu
xdata$x	ENDS
_TEXT	SEGMENT
tv86 = -208						; size = 4
tv81 = -204						; size = 4
tv215 = -200						; size = 4
tv223 = -196						; size = 4
tv212 = -192						; size = 4
tv220 = -188						; size = 4
$T198303 = -184						; size = 28
$T198302 = -156						; size = 28
$T198301 = -128						; size = 28
$T198300 = -100						; size = 28
$T198299 = -72						; size = 4
$T198298 = -68						; size = 4
_r$196742 = -60						; size = 16
_rectWnd$196741 = -36					; size = 16
_this$ = -16						; size = 4
__$EHRec$ = -12						; size = 12
?IPanelChangeOb_WindowMax@CTopPanelWnd@@UAEXXZ PROC NEAR ; CTopPanelWnd::IPanelChangeOb_WindowMax
; _this$ = ecx

; 354  : {

  01e30	55		 push	 ebp
  01e31	8b ec		 mov	 ebp, esp
  01e33	6a ff		 push	 -1
  01e35	68 00 00 00 00	 push	 __ehhandler$?IPanelChangeOb_WindowMax@CTopPanelWnd@@UAEXXZ
  01e3a	64 a1 00 00 00
	00		 mov	 eax, DWORD PTR fs:__except_list
  01e40	50		 push	 eax
  01e41	64 89 25 00 00
	00 00		 mov	 DWORD PTR fs:__except_list, esp
  01e48	81 ec c4 00 00
	00		 sub	 esp, 196		; 000000c4H
  01e4e	56		 push	 esi
  01e4f	57		 push	 edi
  01e50	51		 push	 ecx
  01e51	8d bd 30 ff ff
	ff		 lea	 edi, DWORD PTR [ebp-208]
  01e57	b9 31 00 00 00	 mov	 ecx, 49			; 00000031H
  01e5c	b8 cc cc cc cc	 mov	 eax, -858993460		; ccccccccH
  01e61	f3 ab		 rep stosd
  01e63	59		 pop	 ecx
  01e64	89 4d f0	 mov	 DWORD PTR _this$[ebp], ecx

; 355  : 	if( ::AfxGetMainWindow()->IsWindowVisible() == FALSE
; 356  : 		|| ::AfxGetMainWindow()->IsIconic() == TRUE )

  01e67	e8 00 00 00 00	 call	 ?AfxGetMainWindow@@YAPAVCWnd@@XZ ; AfxGetMainWindow
  01e6c	8b c8		 mov	 ecx, eax
  01e6e	e8 00 00 00 00	 call	 ?IsWindowVisible@CWnd@@QBEHXZ ; CWnd::IsWindowVisible
  01e73	85 c0		 test	 eax, eax
  01e75	74 11		 je	 SHORT $L196737
  01e77	e8 00 00 00 00	 call	 ?AfxGetMainWindow@@YAPAVCWnd@@XZ ; AfxGetMainWindow
  01e7c	8b c8		 mov	 ecx, eax
  01e7e	e8 00 00 00 00	 call	 ?IsIconic@CWnd@@QBEHXZ	; CWnd::IsIconic
  01e83	83 f8 01	 cmp	 eax, 1
  01e86	75 0e		 jne	 SHORT $L196736
$L196737:

; 357  : 	{
; 358  : 		::AfxGetMainWnd()->ShowWindow( SW_RESTORE );

  01e88	6a 09		 push	 9
  01e8a	e8 00 00 00 00	 call	 ?AfxGetMainWnd@@YGPAVCWnd@@XZ ; AfxGetMainWnd
  01e8f	8b c8		 mov	 ecx, eax
  01e91	e8 00 00 00 00	 call	 ?ShowWindow@CWnd@@QAEHH@Z ; CWnd::ShowWindow
$L196736:

; 359  : 	}
; 360  : 	if( m_bNormal )

  01e96	8b 45 f0	 mov	 eax, DWORD PTR _this$[ebp]
  01e99	0f b6 88 b8 05
	00 00		 movzx	 ecx, BYTE PTR [eax+1464]
  01ea0	85 c9		 test	 ecx, ecx
  01ea2	0f 84 85 02 00
	00		 je	 $L196735

; 361  : 	{
; 362  : 		AfxGetUIManager()->UIGetLayoutMgr()->ShowLayer( s_STRBUTTONLAYER,s_STRBUTTON_NORMAL );

  01ea8	51		 push	 ecx
  01ea9	8b cc		 mov	 ecx, esp
  01eab	89 65 bc	 mov	 DWORD PTR $T198298[ebp], esp
  01eae	8b f4		 mov	 esi, esp
  01eb0	8b 15 00 00 00
	00		 mov	 edx, DWORD PTR _s_STRBUTTON_NORMAL
  01eb6	52		 push	 edx
  01eb7	ff 15 00 00 00
	00		 call	 DWORD PTR __imp_??0?$CStringT@DV?$StrTraitMFC_DLL@DV?$ChTraitsCRT@D@ATL@@@@@ATL@@QAE@PBD@Z
  01ebd	3b f4		 cmp	 esi, esp
  01ebf	e8 00 00 00 00	 call	 __RTC_CheckEsp
  01ec4	89 85 44 ff ff
	ff		 mov	 DWORD PTR tv220[ebp], eax
  01eca	8b 85 44 ff ff
	ff		 mov	 eax, DWORD PTR tv220[ebp]
  01ed0	89 85 40 ff ff
	ff		 mov	 DWORD PTR tv212[ebp], eax
  01ed6	c7 45 fc 00 00
	00 00		 mov	 DWORD PTR __$EHRec$[ebp+8], 0
  01edd	51		 push	 ecx
  01ede	8b cc		 mov	 ecx, esp
  01ee0	89 65 b8	 mov	 DWORD PTR $T198299[ebp], esp
  01ee3	8b f4		 mov	 esi, esp
  01ee5	8b 15 00 00 00
	00		 mov	 edx, DWORD PTR _s_STRBUTTONLAYER
  01eeb	52		 push	 edx
  01eec	ff 15 00 00 00
	00		 call	 DWORD PTR __imp_??0?$CStringT@DV?$StrTraitMFC_DLL@DV?$ChTraitsCRT@D@ATL@@@@@ATL@@QAE@PBD@Z
  01ef2	3b f4		 cmp	 esi, esp
  01ef4	e8 00 00 00 00	 call	 __RTC_CheckEsp
  01ef9	89 85 3c ff ff
	ff		 mov	 DWORD PTR tv223[ebp], eax
  01eff	8b 85 3c ff ff
	ff		 mov	 eax, DWORD PTR tv223[ebp]
  01f05	89 85 38 ff ff
	ff		 mov	 DWORD PTR tv215[ebp], eax
  01f0b	c6 45 fc 01	 mov	 BYTE PTR __$EHRec$[ebp+8], 1
  01f0f	e8 00 00 00 00	 call	 ?AfxGetUIManager@@YAPAVIUIManager@@XZ ; AfxGetUIManager
  01f14	89 85 34 ff ff
	ff		 mov	 DWORD PTR tv81[ebp], eax
  01f1a	8b f4		 mov	 esi, esp
  01f1c	8b 8d 34 ff ff
	ff		 mov	 ecx, DWORD PTR tv81[ebp]
  01f22	8b 11		 mov	 edx, DWORD PTR [ecx]
  01f24	8b 8d 34 ff ff
	ff		 mov	 ecx, DWORD PTR tv81[ebp]
  01f2a	ff 52 24	 call	 DWORD PTR [edx+36]
  01f2d	3b f4		 cmp	 esi, esp
  01f2f	e8 00 00 00 00	 call	 __RTC_CheckEsp
  01f34	89 85 30 ff ff
	ff		 mov	 DWORD PTR tv86[ebp], eax
  01f3a	8b 85 30 ff ff
	ff		 mov	 eax, DWORD PTR tv86[ebp]
  01f40	8b 10		 mov	 edx, DWORD PTR [eax]
  01f42	c7 45 fc ff ff
	ff ff		 mov	 DWORD PTR __$EHRec$[ebp+8], -1
  01f49	8b 8d 30 ff ff
	ff		 mov	 ecx, DWORD PTR tv86[ebp]
  01f4f	ff 52 24	 call	 DWORD PTR [edx+36]

; 363  : 		m_bNormal =  false;

  01f52	8b 45 f0	 mov	 eax, DWORD PTR _this$[ebp]
  01f55	c6 80 b8 05 00
	00 00		 mov	 BYTE PTR [eax+1464], 0

; 364  : 
; 365  : 		CRect rectWnd;

  01f5c	8d 4d dc	 lea	 ecx, DWORD PTR _rectWnd$196741[ebp]
  01f5f	e8 00 00 00 00	 call	 ??0CRect@@QAE@XZ	; CRect::CRect

; 366  : 		AfxGetMainWindow()->GetWindowRect(rectWnd);

  01f64	8d 4d dc	 lea	 ecx, DWORD PTR _rectWnd$196741[ebp]
  01f67	e8 00 00 00 00	 call	 ??BCRect@@QAEPAUtagRECT@@XZ ; CRect::operator tagRECT *
  01f6c	50		 push	 eax
  01f6d	e8 00 00 00 00	 call	 ?AfxGetMainWindow@@YAPAVCWnd@@XZ ; AfxGetMainWindow
  01f72	8b c8		 mov	 ecx, eax
  01f74	e8 00 00 00 00	 call	 ?GetWindowRect@CWnd@@QBEXPAUtagRECT@@@Z ; CWnd::GetWindowRect

; 367  : 
; 368  : 		m_iXPos	= rectWnd.left;

  01f79	8b 4d f0	 mov	 ecx, DWORD PTR _this$[ebp]
  01f7c	8b 55 dc	 mov	 edx, DWORD PTR _rectWnd$196741[ebp]
  01f7f	89 91 c4 05 00
	00		 mov	 DWORD PTR [ecx+1476], edx

; 369  : 		m_iYPos	= rectWnd.top;

  01f85	8b 45 f0	 mov	 eax, DWORD PTR _this$[ebp]
  01f88	8b 4d e0	 mov	 ecx, DWORD PTR _rectWnd$196741[ebp+4]
  01f8b	89 88 c8 05 00
	00		 mov	 DWORD PTR [eax+1480], ecx

; 370  : 		m_iWndNormalWidth	= rectWnd.right - rectWnd.left;

  01f91	8b 55 e4	 mov	 edx, DWORD PTR _rectWnd$196741[ebp+8]
  01f94	2b 55 dc	 sub	 edx, DWORD PTR _rectWnd$196741[ebp]
  01f97	8b 45 f0	 mov	 eax, DWORD PTR _this$[ebp]
  01f9a	89 90 cc 05 00
	00		 mov	 DWORD PTR [eax+1484], edx

; 371  : 		m_iWndNormalHeigth	= rectWnd.bottom - rectWnd.top;

  01fa0	8b 4d e8	 mov	 ecx, DWORD PTR _rectWnd$196741[ebp+12]
  01fa3	2b 4d e0	 sub	 ecx, DWORD PTR _rectWnd$196741[ebp+4]
  01fa6	8b 55 f0	 mov	 edx, DWORD PTR _this$[ebp]
  01fa9	89 8a d0 05 00
	00		 mov	 DWORD PTR [edx+1488], ecx

; 372  : 
; 373  : 		RECT   r;   
; 374  : 		SystemParametersInfo(   SPI_GETWORKAREA,   sizeof(RECT),   &r,   0   );   

  01faf	8b f4		 mov	 esi, esp
  01fb1	6a 00		 push	 0
  01fb3	8d 45 c4	 lea	 eax, DWORD PTR _r$196742[ebp]
  01fb6	50		 push	 eax
  01fb7	6a 10		 push	 16			; 00000010H
  01fb9	6a 30		 push	 48			; 00000030H
  01fbb	ff 15 00 00 00
	00		 call	 DWORD PTR __imp__SystemParametersInfoA@16
  01fc1	3b f4		 cmp	 esi, esp
  01fc3	e8 00 00 00 00	 call	 __RTC_CheckEsp

; 375  : 
; 376  : 		AfxGetUserConfig()->SetConfigBoolValue( CONF_LAYOUT_MODULE_NAME,CONF_LAYOUT_NORMAL,m_bNormal);

  01fc8	8b f4		 mov	 esi, esp
  01fca	8b 0d 00 00 00
	00		 mov	 ecx, DWORD PTR _CONF_LAYOUT_NORMAL
  01fd0	51		 push	 ecx
  01fd1	8d 4d 9c	 lea	 ecx, DWORD PTR $T198300[ebp]
  01fd4	ff 15 00 00 00
	00		 call	 DWORD PTR __imp_??0?$basic_string@DU?$char_traits@D@std@@V?$allocator@D@2@@std@@QAE@PBD@Z
  01fda	3b f4		 cmp	 esi, esp
  01fdc	e8 00 00 00 00	 call	 __RTC_CheckEsp
  01fe1	c7 45 fc 02 00
	00 00		 mov	 DWORD PTR __$EHRec$[ebp+8], 2
  01fe8	8b f4		 mov	 esi, esp
  01fea	8b 15 00 00 00
	00		 mov	 edx, DWORD PTR _CONF_LAYOUT_MODULE_NAME
  01ff0	52		 push	 edx
  01ff1	8d 4d 80	 lea	 ecx, DWORD PTR $T198301[ebp]
  01ff4	ff 15 00 00 00
	00		 call	 DWORD PTR __imp_??0?$basic_string@DU?$char_traits@D@std@@V?$allocator@D@2@@std@@QAE@PBD@Z
  01ffa	3b f4		 cmp	 esi, esp
  01ffc	e8 00 00 00 00	 call	 __RTC_CheckEsp
  02001	c6 45 fc 03	 mov	 BYTE PTR __$EHRec$[ebp+8], 3
  02005	6a 00		 push	 0
  02007	8b 45 f0	 mov	 eax, DWORD PTR _this$[ebp]
  0200a	8a 88 b8 05 00
	00		 mov	 cl, BYTE PTR [eax+1464]
  02010	51		 push	 ecx
  02011	8d 55 9c	 lea	 edx, DWORD PTR $T198300[ebp]
  02014	52		 push	 edx
  02015	8d 45 80	 lea	 eax, DWORD PTR $T198301[ebp]
  02018	50		 push	 eax
  02019	e8 00 00 00 00	 call	 ?AfxGetUserConfig@@YAPAVAfxUserConfig@@XZ ; AfxGetUserConfig
  0201e	8b c8		 mov	 ecx, eax
  02020	e8 00 00 00 00	 call	 ?SetConfigBoolValue@AfxUserConfig@@QAEXABV?$basic_string@DU?$char_traits@D@std@@V?$allocator@D@2@@std@@0_N1@Z ; AfxUserConfig::SetConfigBoolValue
  02025	c6 45 fc 02	 mov	 BYTE PTR __$EHRec$[ebp+8], 2
  02029	8b f4		 mov	 esi, esp
  0202b	8d 4d 80	 lea	 ecx, DWORD PTR $T198301[ebp]
  0202e	ff 15 00 00 00
	00		 call	 DWORD PTR __imp_??1?$basic_string@DU?$char_traits@D@std@@V?$allocator@D@2@@std@@QAE@XZ
  02034	3b f4		 cmp	 esi, esp
  02036	e8 00 00 00 00	 call	 __RTC_CheckEsp
  0203b	c7 45 fc ff ff
	ff ff		 mov	 DWORD PTR __$EHRec$[ebp+8], -1
  02042	8b f4		 mov	 esi, esp
  02044	8d 4d 9c	 lea	 ecx, DWORD PTR $T198300[ebp]
  02047	ff 15 00 00 00
	00		 call	 DWORD PTR __imp_??1?$basic_string@DU?$char_traits@D@std@@V?$allocator@D@2@@std@@QAE@XZ
  0204d	3b f4		 cmp	 esi, esp
  0204f	e8 00 00 00 00	 call	 __RTC_CheckEsp

; 377  : 		::MoveWindow( AfxGetMainWindow()->m_hWnd,r.left,r.top, r.right-r.left, r.bottom-r.top,TRUE);

  02054	8b f4		 mov	 esi, esp
  02056	6a 01		 push	 1
  02058	8b 4d d0	 mov	 ecx, DWORD PTR _r$196742[ebp+12]
  0205b	2b 4d c8	 sub	 ecx, DWORD PTR _r$196742[ebp+4]
  0205e	51		 push	 ecx
  0205f	8b 55 cc	 mov	 edx, DWORD PTR _r$196742[ebp+8]
  02062	2b 55 c4	 sub	 edx, DWORD PTR _r$196742[ebp]
  02065	52		 push	 edx
  02066	8b 45 c8	 mov	 eax, DWORD PTR _r$196742[ebp+4]
  02069	50		 push	 eax
  0206a	8b 4d c4	 mov	 ecx, DWORD PTR _r$196742[ebp]
  0206d	51		 push	 ecx
  0206e	e8 00 00 00 00	 call	 ?AfxGetMainWindow@@YAPAVCWnd@@XZ ; AfxGetMainWindow
  02073	8b 50 20	 mov	 edx, DWORD PTR [eax+32]
  02076	52		 push	 edx
  02077	ff 15 00 00 00
	00		 call	 DWORD PTR __imp__MoveWindow@24
  0207d	3b f4		 cmp	 esi, esp
  0207f	e8 00 00 00 00	 call	 __RTC_CheckEsp

; 378  : 		AfxGetMainWindow()->ModifyStyle(0, WS_MAXIMIZE, 0);

  02084	6a 00		 push	 0
  02086	68 00 00 00 01	 push	 16777216		; 01000000H
  0208b	6a 00		 push	 0
  0208d	e8 00 00 00 00	 call	 ?AfxGetMainWindow@@YAPAVCWnd@@XZ ; AfxGetMainWindow
  02092	8b c8		 mov	 ecx, eax
  02094	e8 00 00 00 00	 call	 ?ModifyStyle@CWnd@@QAEHKKI@Z ; CWnd::ModifyStyle

; 379  : 		LogUserActMsg(STR_USER_CLICK, "BTN:TO_MAX"); 

  02099	8b f4		 mov	 esi, esp
  0209b	68 00 00 00 00	 push	 OFFSET FLAT:$SG196748
  020a0	8d 8d 64 ff ff
	ff		 lea	 ecx, DWORD PTR $T198302[ebp]
  020a6	ff 15 00 00 00
	00		 call	 DWORD PTR __imp_??0?$basic_string@DU?$char_traits@D@std@@V?$allocator@D@2@@std@@QAE@PBD@Z
  020ac	3b f4		 cmp	 esi, esp
  020ae	e8 00 00 00 00	 call	 __RTC_CheckEsp
  020b3	c7 45 fc 04 00
	00 00		 mov	 DWORD PTR __$EHRec$[ebp+8], 4
  020ba	8b f4		 mov	 esi, esp
  020bc	68 00 00 00 00	 push	 OFFSET FLAT:$SG196749
  020c1	8d 8d 48 ff ff
	ff		 lea	 ecx, DWORD PTR $T198303[ebp]
  020c7	ff 15 00 00 00
	00		 call	 DWORD PTR __imp_??0?$basic_string@DU?$char_traits@D@std@@V?$allocator@D@2@@std@@QAE@PBD@Z
  020cd	3b f4		 cmp	 esi, esp
  020cf	e8 00 00 00 00	 call	 __RTC_CheckEsp
  020d4	c6 45 fc 05	 mov	 BYTE PTR __$EHRec$[ebp+8], 5
  020d8	8b f4		 mov	 esi, esp
  020da	8d 85 64 ff ff
	ff		 lea	 eax, DWORD PTR $T198302[ebp]
  020e0	50		 push	 eax
  020e1	8d 8d 48 ff ff
	ff		 lea	 ecx, DWORD PTR $T198303[ebp]
  020e7	51		 push	 ecx
  020e8	ff 15 00 00 00
	00		 call	 DWORD PTR __imp_?LogUserActMsg@@YAXABV?$basic_string@DU?$char_traits@D@std@@V?$allocator@D@2@@std@@0@Z
  020ee	83 c4 08	 add	 esp, 8
  020f1	3b f4		 cmp	 esi, esp
  020f3	e8 00 00 00 00	 call	 __RTC_CheckEsp
  020f8	c6 45 fc 04	 mov	 BYTE PTR __$EHRec$[ebp+8], 4
  020fc	8b f4		 mov	 esi, esp
  020fe	8d 8d 48 ff ff
	ff		 lea	 ecx, DWORD PTR $T198303[ebp]
  02104	ff 15 00 00 00
	00		 call	 DWORD PTR __imp_??1?$basic_string@DU?$char_traits@D@std@@V?$allocator@D@2@@std@@QAE@XZ
  0210a	3b f4		 cmp	 esi, esp
  0210c	e8 00 00 00 00	 call	 __RTC_CheckEsp
  02111	c7 45 fc ff ff
	ff ff		 mov	 DWORD PTR __$EHRec$[ebp+8], -1
  02118	8b f4		 mov	 esi, esp
  0211a	8d 8d 64 ff ff
	ff		 lea	 ecx, DWORD PTR $T198302[ebp]
  02120	ff 15 00 00 00
	00		 call	 DWORD PTR __imp_??1?$basic_string@DU?$char_traits@D@std@@V?$allocator@D@2@@std@@QAE@XZ
  02126	3b f4		 cmp	 esi, esp
  02128	e8 00 00 00 00	 call	 __RTC_CheckEsp
$L196735:

; 380  : 	}	
; 381  : }

  0212d	52		 push	 edx
  0212e	8b cd		 mov	 ecx, ebp
  02130	50		 push	 eax
  02131	8d 15 00 00 00
	00		 lea	 edx, DWORD PTR $L198316
  02137	e8 00 00 00 00	 call	 @_RTC_CheckStackVars@8
  0213c	58		 pop	 eax
  0213d	5a		 pop	 edx
  0213e	8b 4d f4	 mov	 ecx, DWORD PTR __$EHRec$[ebp]
  02141	64 89 0d 00 00
	00 00		 mov	 DWORD PTR fs:__except_list, ecx
  02148	5f		 pop	 edi
  02149	5e		 pop	 esi
  0214a	81 c4 d0 00 00
	00		 add	 esp, 208		; 000000d0H
  02150	3b ec		 cmp	 ebp, esp
  02152	e8 00 00 00 00	 call	 __RTC_CheckEsp
  02157	8b e5		 mov	 esp, ebp
  02159	5d		 pop	 ebp
  0215a	c3		 ret	 0
$L198316:
  0215b	02 00 00 00	 DD	 2
  0215f	00 00 00 00	 DD	 $L198315
$L198315:
  02163	dc ff ff ff	 DD	 -36			; ffffffdcH
  02167	10 00 00 00	 DD	 16			; 00000010H
  0216b	00 00 00 00	 DD	 $L198312
  0216f	c4 ff ff ff	 DD	 -60			; ffffffc4H
  02173	10 00 00 00	 DD	 16			; 00000010H
  02177	00 00 00 00	 DD	 $L198313
$L198313:
  0217b	72		 DB	 114			; 00000072H
  0217c	00		 DB	 0
$L198312:
  0217d	72		 DB	 114			; 00000072H
  0217e	65		 DB	 101			; 00000065H
  0217f	63		 DB	 99			; 00000063H
  02180	74		 DB	 116			; 00000074H
  02181	57		 DB	 87			; 00000057H
  02182	6e		 DB	 110			; 0000006eH
  02183	64		 DB	 100			; 00000064H
  02184	00		 DB	 0
_TEXT	ENDS
text$x	SEGMENT
$L198304:
  0052a	8b f4		 mov	 esi, esp
  0052c	8b 4d bc	 mov	 ecx, DWORD PTR $T198298[ebp]
  0052f	ff 15 00 00 00
	00		 call	 DWORD PTR __imp_??1?$CStringT@DV?$StrTraitMFC_DLL@DV?$ChTraitsCRT@D@ATL@@@@@ATL@@QAE@XZ
  00535	3b f4		 cmp	 esi, esp
  00537	e9 00 00 00 00	 jmp	 __RTC_CheckEsp
$L198305:
  0053c	8b f4		 mov	 esi, esp
  0053e	8b 4d b8	 mov	 ecx, DWORD PTR $T198299[ebp]
  00541	ff 15 00 00 00
	00		 call	 DWORD PTR __imp_??1?$CStringT@DV?$StrTraitMFC_DLL@DV?$ChTraitsCRT@D@ATL@@@@@ATL@@QAE@XZ
  00547	3b f4		 cmp	 esi, esp
  00549	e9 00 00 00 00	 jmp	 __RTC_CheckEsp
$L198306:
  0054e	8b f4		 mov	 esi, esp
  00550	8d 4d 9c	 lea	 ecx, DWORD PTR $T198300[ebp]
  00553	ff 15 00 00 00
	00		 call	 DWORD PTR __imp_??1?$basic_string@DU?$char_traits@D@std@@V?$allocator@D@2@@std@@QAE@XZ
  00559	3b f4		 cmp	 esi, esp
  0055b	e9 00 00 00 00	 jmp	 __RTC_CheckEsp
$L198307:
  00560	8b f4		 mov	 esi, esp
  00562	8d 4d 80	 lea	 ecx, DWORD PTR $T198301[ebp]
  00565	ff 15 00 00 00
	00		 call	 DWORD PTR __imp_??1?$basic_string@DU?$char_traits@D@std@@V?$allocator@D@2@@std@@QAE@XZ
  0056b	3b f4		 cmp	 esi, esp
  0056d	e9 00 00 00 00	 jmp	 __RTC_CheckEsp
$L198308:
  00572	8b f4		 mov	 esi, esp
  00574	8d 8d 64 ff ff
	ff		 lea	 ecx, DWORD PTR $T198302[ebp]
  0057a	ff 15 00 00 00
	00		 call	 DWORD PTR __imp_??1?$basic_string@DU?$char_traits@D@std@@V?$allocator@D@2@@std@@QAE@XZ
  00580	3b f4		 cmp	 esi, esp
  00582	e9 00 00 00 00	 jmp	 __RTC_CheckEsp
$L198309:
  00587	8b f4		 mov	 esi, esp
  00589	8d 8d 48 ff ff
	ff		 lea	 ecx, DWORD PTR $T198303[ebp]
  0058f	ff 15 00 00 00
	00		 call	 DWORD PTR __imp_??1?$basic_string@DU?$char_traits@D@std@@V?$allocator@D@2@@std@@QAE@XZ
  00595	3b f4		 cmp	 esi, esp
  00597	e9 00 00 00 00	 jmp	 __RTC_CheckEsp
__ehhandler$?IPanelChangeOb_WindowMax@CTopPanelWnd@@UAEXXZ:
  0059c	b8 00 00 00 00	 mov	 eax, OFFSET FLAT:$T198311
  005a1	e9 00 00 00 00	 jmp	 ___CxxFrameHandler
text$x	ENDS
?IPanelChangeOb_WindowMax@CTopPanelWnd@@UAEXXZ ENDP	; CTopPanelWnd::IPanelChangeOb_WindowMax
xdata$x	SEGMENT
$T198334 DD	0ffffffffH
	DD	FLAT:$L198325
	DD	00H
	DD	FLAT:$L198326
	DD	0ffffffffH
	DD	FLAT:$L198327
	DD	02H
	DD	FLAT:$L198328
	DD	0ffffffffH
	DD	FLAT:$L198329
	DD	04H
	DD	FLAT:$L198330
$T198332 DD	019930520H
	DD	06H
	DD	FLAT:$T198334
	DD	2 DUP(00H)
	DD	2 DUP(00H)
; Function compile flags: /Odt /RTCsu
xdata$x	ENDS
_TEXT	SEGMENT
tv86 = -160						; size = 4
tv81 = -156						; size = 4
tv201 = -152						; size = 4
tv209 = -148						; size = 4
tv198 = -144						; size = 4
tv206 = -140						; size = 4
$T198324 = -136						; size = 28
$T198323 = -108						; size = 28
$T198322 = -80						; size = 28
$T198321 = -52						; size = 28
$T198320 = -24						; size = 4
$T198319 = -20						; size = 4
_this$ = -16						; size = 4
__$EHRec$ = -12						; size = 12
?IPanelChangeOb_WindowRestore@CTopPanelWnd@@UAEXXZ PROC NEAR ; CTopPanelWnd::IPanelChangeOb_WindowRestore
; _this$ = ecx

; 384  : {

  02190	55		 push	 ebp
  02191	8b ec		 mov	 ebp, esp
  02193	6a ff		 push	 -1
  02195	68 00 00 00 00	 push	 __ehhandler$?IPanelChangeOb_WindowRestore@CTopPanelWnd@@UAEXXZ
  0219a	64 a1 00 00 00
	00		 mov	 eax, DWORD PTR fs:__except_list
  021a0	50		 push	 eax
  021a1	64 89 25 00 00
	00 00		 mov	 DWORD PTR fs:__except_list, esp
  021a8	81 ec 94 00 00
	00		 sub	 esp, 148		; 00000094H
  021ae	56		 push	 esi
  021af	57		 push	 edi
  021b0	51		 push	 ecx
  021b1	8d bd 60 ff ff
	ff		 lea	 edi, DWORD PTR [ebp-160]
  021b7	b9 25 00 00 00	 mov	 ecx, 37			; 00000025H
  021bc	b8 cc cc cc cc	 mov	 eax, -858993460		; ccccccccH
  021c1	f3 ab		 rep stosd
  021c3	59		 pop	 ecx
  021c4	89 4d f0	 mov	 DWORD PTR _this$[ebp], ecx

; 385  : 	if( ::AfxGetMainWindow()->IsWindowVisible() == FALSE
; 386  : 		|| ::AfxGetMainWindow()->IsIconic() == TRUE )

  021c7	e8 00 00 00 00	 call	 ?AfxGetMainWindow@@YAPAVCWnd@@XZ ; AfxGetMainWindow
  021cc	8b c8		 mov	 ecx, eax
  021ce	e8 00 00 00 00	 call	 ?IsWindowVisible@CWnd@@QBEHXZ ; CWnd::IsWindowVisible
  021d3	85 c0		 test	 eax, eax
  021d5	74 11		 je	 SHORT $L196754
  021d7	e8 00 00 00 00	 call	 ?AfxGetMainWindow@@YAPAVCWnd@@XZ ; AfxGetMainWindow
  021dc	8b c8		 mov	 ecx, eax
  021de	e8 00 00 00 00	 call	 ?IsIconic@CWnd@@QBEHXZ	; CWnd::IsIconic
  021e3	83 f8 01	 cmp	 eax, 1
  021e6	75 13		 jne	 SHORT $L196753
$L196754:

; 387  : 	{
; 388  : 		::AfxGetMainWnd()->ShowWindow( SW_RESTORE );

  021e8	6a 09		 push	 9
  021ea	e8 00 00 00 00	 call	 ?AfxGetMainWnd@@YGPAVCWnd@@XZ ; AfxGetMainWnd
  021ef	8b c8		 mov	 ecx, eax
  021f1	e8 00 00 00 00	 call	 ?ShowWindow@CWnd@@QAEHH@Z ; CWnd::ShowWindow

; 389  : 	}
; 390  : 	else if( !m_bNormal )

  021f6	e9 34 02 00 00	 jmp	 $L196752
$L196753:
  021fb	8b 45 f0	 mov	 eax, DWORD PTR _this$[ebp]
  021fe	0f b6 88 b8 05
	00 00		 movzx	 ecx, BYTE PTR [eax+1464]
  02205	85 c9		 test	 ecx, ecx
  02207	0f 85 22 02 00
	00		 jne	 $L196752

; 391  : 	{
; 392  : 		AfxGetUIManager()->UIGetLayoutMgr()->ShowLayer( s_STRBUTTONLAYER,s_STRBUTTON_LARGE );

  0220d	51		 push	 ecx
  0220e	8b cc		 mov	 ecx, esp
  02210	89 65 ec	 mov	 DWORD PTR $T198319[ebp], esp
  02213	8b f4		 mov	 esi, esp
  02215	8b 15 00 00 00
	00		 mov	 edx, DWORD PTR _s_STRBUTTON_LARGE
  0221b	52		 push	 edx
  0221c	ff 15 00 00 00
	00		 call	 DWORD PTR __imp_??0?$CStringT@DV?$StrTraitMFC_DLL@DV?$ChTraitsCRT@D@ATL@@@@@ATL@@QAE@PBD@Z
  02222	3b f4		 cmp	 esi, esp
  02224	e8 00 00 00 00	 call	 __RTC_CheckEsp
  02229	89 85 74 ff ff
	ff		 mov	 DWORD PTR tv206[ebp], eax
  0222f	8b 85 74 ff ff
	ff		 mov	 eax, DWORD PTR tv206[ebp]
  02235	89 85 70 ff ff
	ff		 mov	 DWORD PTR tv198[ebp], eax
  0223b	c7 45 fc 00 00
	00 00		 mov	 DWORD PTR __$EHRec$[ebp+8], 0
  02242	51		 push	 ecx
  02243	8b cc		 mov	 ecx, esp
  02245	89 65 e8	 mov	 DWORD PTR $T198320[ebp], esp
  02248	8b f4		 mov	 esi, esp
  0224a	8b 15 00 00 00
	00		 mov	 edx, DWORD PTR _s_STRBUTTONLAYER
  02250	52		 push	 edx
  02251	ff 15 00 00 00
	00		 call	 DWORD PTR __imp_??0?$CStringT@DV?$StrTraitMFC_DLL@DV?$ChTraitsCRT@D@ATL@@@@@ATL@@QAE@PBD@Z
  02257	3b f4		 cmp	 esi, esp
  02259	e8 00 00 00 00	 call	 __RTC_CheckEsp
  0225e	89 85 6c ff ff
	ff		 mov	 DWORD PTR tv209[ebp], eax
  02264	8b 85 6c ff ff
	ff		 mov	 eax, DWORD PTR tv209[ebp]
  0226a	89 85 68 ff ff
	ff		 mov	 DWORD PTR tv201[ebp], eax
  02270	c6 45 fc 01	 mov	 BYTE PTR __$EHRec$[ebp+8], 1
  02274	e8 00 00 00 00	 call	 ?AfxGetUIManager@@YAPAVIUIManager@@XZ ; AfxGetUIManager
  02279	89 85 64 ff ff
	ff		 mov	 DWORD PTR tv81[ebp], eax
  0227f	8b f4		 mov	 esi, esp
  02281	8b 8d 64 ff ff
	ff		 mov	 ecx, DWORD PTR tv81[ebp]
  02287	8b 11		 mov	 edx, DWORD PTR [ecx]
  02289	8b 8d 64 ff ff
	ff		 mov	 ecx, DWORD PTR tv81[ebp]
  0228f	ff 52 24	 call	 DWORD PTR [edx+36]
  02292	3b f4		 cmp	 esi, esp
  02294	e8 00 00 00 00	 call	 __RTC_CheckEsp
  02299	89 85 60 ff ff
	ff		 mov	 DWORD PTR tv86[ebp], eax
  0229f	8b 85 60 ff ff
	ff		 mov	 eax, DWORD PTR tv86[ebp]
  022a5	8b 10		 mov	 edx, DWORD PTR [eax]
  022a7	c7 45 fc ff ff
	ff ff		 mov	 DWORD PTR __$EHRec$[ebp+8], -1
  022ae	8b 8d 60 ff ff
	ff		 mov	 ecx, DWORD PTR tv86[ebp]
  022b4	ff 52 24	 call	 DWORD PTR [edx+36]

; 393  :  
; 394  : 		m_bNormal = true;

  022b7	8b 45 f0	 mov	 eax, DWORD PTR _this$[ebp]
  022ba	c6 80 b8 05 00
	00 01		 mov	 BYTE PTR [eax+1464], 1

; 395  : 		AfxGetUserConfig()->SetConfigBoolValue( CONF_LAYOUT_MODULE_NAME,CONF_LAYOUT_NORMAL,m_bNormal);

  022c1	8b f4		 mov	 esi, esp
  022c3	8b 0d 00 00 00
	00		 mov	 ecx, DWORD PTR _CONF_LAYOUT_NORMAL
  022c9	51		 push	 ecx
  022ca	8d 4d cc	 lea	 ecx, DWORD PTR $T198321[ebp]
  022cd	ff 15 00 00 00
	00		 call	 DWORD PTR __imp_??0?$basic_string@DU?$char_traits@D@std@@V?$allocator@D@2@@std@@QAE@PBD@Z
  022d3	3b f4		 cmp	 esi, esp
  022d5	e8 00 00 00 00	 call	 __RTC_CheckEsp
  022da	c7 45 fc 02 00
	00 00		 mov	 DWORD PTR __$EHRec$[ebp+8], 2
  022e1	8b f4		 mov	 esi, esp
  022e3	8b 15 00 00 00
	00		 mov	 edx, DWORD PTR _CONF_LAYOUT_MODULE_NAME
  022e9	52		 push	 edx
  022ea	8d 4d b0	 lea	 ecx, DWORD PTR $T198322[ebp]
  022ed	ff 15 00 00 00
	00		 call	 DWORD PTR __imp_??0?$basic_string@DU?$char_traits@D@std@@V?$allocator@D@2@@std@@QAE@PBD@Z
  022f3	3b f4		 cmp	 esi, esp
  022f5	e8 00 00 00 00	 call	 __RTC_CheckEsp
  022fa	c6 45 fc 03	 mov	 BYTE PTR __$EHRec$[ebp+8], 3
  022fe	6a 00		 push	 0
  02300	8b 45 f0	 mov	 eax, DWORD PTR _this$[ebp]
  02303	8a 88 b8 05 00
	00		 mov	 cl, BYTE PTR [eax+1464]
  02309	51		 push	 ecx
  0230a	8d 55 cc	 lea	 edx, DWORD PTR $T198321[ebp]
  0230d	52		 push	 edx
  0230e	8d 45 b0	 lea	 eax, DWORD PTR $T198322[ebp]
  02311	50		 push	 eax
  02312	e8 00 00 00 00	 call	 ?AfxGetUserConfig@@YAPAVAfxUserConfig@@XZ ; AfxGetUserConfig
  02317	8b c8		 mov	 ecx, eax
  02319	e8 00 00 00 00	 call	 ?SetConfigBoolValue@AfxUserConfig@@QAEXABV?$basic_string@DU?$char_traits@D@std@@V?$allocator@D@2@@std@@0_N1@Z ; AfxUserConfig::SetConfigBoolValue
  0231e	c6 45 fc 02	 mov	 BYTE PTR __$EHRec$[ebp+8], 2
  02322	8b f4		 mov	 esi, esp
  02324	8d 4d b0	 lea	 ecx, DWORD PTR $T198322[ebp]
  02327	ff 15 00 00 00
	00		 call	 DWORD PTR __imp_??1?$basic_string@DU?$char_traits@D@std@@V?$allocator@D@2@@std@@QAE@XZ
  0232d	3b f4		 cmp	 esi, esp
  0232f	e8 00 00 00 00	 call	 __RTC_CheckEsp
  02334	c7 45 fc ff ff
	ff ff		 mov	 DWORD PTR __$EHRec$[ebp+8], -1
  0233b	8b f4		 mov	 esi, esp
  0233d	8d 4d cc	 lea	 ecx, DWORD PTR $T198321[ebp]
  02340	ff 15 00 00 00
	00		 call	 DWORD PTR __imp_??1?$basic_string@DU?$char_traits@D@std@@V?$allocator@D@2@@std@@QAE@XZ
  02346	3b f4		 cmp	 esi, esp
  02348	e8 00 00 00 00	 call	 __RTC_CheckEsp

; 396  : 
; 397  : 		::MoveWindow( AfxGetMainWindow()->m_hWnd,m_iXPos,m_iYPos,m_iWndNormalWidth,m_iWndNormalHeigth,TRUE);

  0234d	8b f4		 mov	 esi, esp
  0234f	6a 01		 push	 1
  02351	8b 4d f0	 mov	 ecx, DWORD PTR _this$[ebp]
  02354	8b 91 d0 05 00
	00		 mov	 edx, DWORD PTR [ecx+1488]
  0235a	52		 push	 edx
  0235b	8b 45 f0	 mov	 eax, DWORD PTR _this$[ebp]
  0235e	8b 88 cc 05 00
	00		 mov	 ecx, DWORD PTR [eax+1484]
  02364	51		 push	 ecx
  02365	8b 55 f0	 mov	 edx, DWORD PTR _this$[ebp]
  02368	8b 82 c8 05 00
	00		 mov	 eax, DWORD PTR [edx+1480]
  0236e	50		 push	 eax
  0236f	8b 4d f0	 mov	 ecx, DWORD PTR _this$[ebp]
  02372	8b 91 c4 05 00
	00		 mov	 edx, DWORD PTR [ecx+1476]
  02378	52		 push	 edx
  02379	e8 00 00 00 00	 call	 ?AfxGetMainWindow@@YAPAVCWnd@@XZ ; AfxGetMainWindow
  0237e	8b 40 20	 mov	 eax, DWORD PTR [eax+32]
  02381	50		 push	 eax
  02382	ff 15 00 00 00
	00		 call	 DWORD PTR __imp__MoveWindow@24
  02388	3b f4		 cmp	 esi, esp
  0238a	e8 00 00 00 00	 call	 __RTC_CheckEsp

; 398  : 		AfxGetMainWindow()->ModifyStyle(WS_MAXIMIZE, 0,0);

  0238f	6a 00		 push	 0
  02391	6a 00		 push	 0
  02393	68 00 00 00 01	 push	 16777216		; 01000000H
  02398	e8 00 00 00 00	 call	 ?AfxGetMainWindow@@YAPAVCWnd@@XZ ; AfxGetMainWindow
  0239d	8b c8		 mov	 ecx, eax
  0239f	e8 00 00 00 00	 call	 ?ModifyStyle@CWnd@@QAEHKKI@Z ; CWnd::ModifyStyle

; 399  : 		LogUserActMsg(STR_USER_CLICK, "BTN:TO_NOMARL");

  023a4	8b f4		 mov	 esi, esp
  023a6	68 00 00 00 00	 push	 OFFSET FLAT:$SG196763
  023ab	8d 4d 94	 lea	 ecx, DWORD PTR $T198323[ebp]
  023ae	ff 15 00 00 00
	00		 call	 DWORD PTR __imp_??0?$basic_string@DU?$char_traits@D@std@@V?$allocator@D@2@@std@@QAE@PBD@Z
  023b4	3b f4		 cmp	 esi, esp
  023b6	e8 00 00 00 00	 call	 __RTC_CheckEsp
  023bb	c7 45 fc 04 00
	00 00		 mov	 DWORD PTR __$EHRec$[ebp+8], 4
  023c2	8b f4		 mov	 esi, esp
  023c4	68 00 00 00 00	 push	 OFFSET FLAT:$SG196764
  023c9	8d 8d 78 ff ff
	ff		 lea	 ecx, DWORD PTR $T198324[ebp]
  023cf	ff 15 00 00 00
	00		 call	 DWORD PTR __imp_??0?$basic_string@DU?$char_traits@D@std@@V?$allocator@D@2@@std@@QAE@PBD@Z
  023d5	3b f4		 cmp	 esi, esp
  023d7	e8 00 00 00 00	 call	 __RTC_CheckEsp
  023dc	c6 45 fc 05	 mov	 BYTE PTR __$EHRec$[ebp+8], 5
  023e0	8b f4		 mov	 esi, esp
  023e2	8d 4d 94	 lea	 ecx, DWORD PTR $T198323[ebp]
  023e5	51		 push	 ecx
  023e6	8d 95 78 ff ff
	ff		 lea	 edx, DWORD PTR $T198324[ebp]
  023ec	52		 push	 edx
  023ed	ff 15 00 00 00
	00		 call	 DWORD PTR __imp_?LogUserActMsg@@YAXABV?$basic_string@DU?$char_traits@D@std@@V?$allocator@D@2@@std@@0@Z
  023f3	83 c4 08	 add	 esp, 8
  023f6	3b f4		 cmp	 esi, esp
  023f8	e8 00 00 00 00	 call	 __RTC_CheckEsp
  023fd	c6 45 fc 04	 mov	 BYTE PTR __$EHRec$[ebp+8], 4
  02401	8b f4		 mov	 esi, esp
  02403	8d 8d 78 ff ff
	ff		 lea	 ecx, DWORD PTR $T198324[ebp]
  02409	ff 15 00 00 00
	00		 call	 DWORD PTR __imp_??1?$basic_string@DU?$char_traits@D@std@@V?$allocator@D@2@@std@@QAE@XZ
  0240f	3b f4		 cmp	 esi, esp
  02411	e8 00 00 00 00	 call	 __RTC_CheckEsp
  02416	c7 45 fc ff ff
	ff ff		 mov	 DWORD PTR __$EHRec$[ebp+8], -1
  0241d	8b f4		 mov	 esi, esp
  0241f	8d 4d 94	 lea	 ecx, DWORD PTR $T198323[ebp]
  02422	ff 15 00 00 00
	00		 call	 DWORD PTR __imp_??1?$basic_string@DU?$char_traits@D@std@@V?$allocator@D@2@@std@@QAE@XZ
  02428	3b f4		 cmp	 esi, esp
  0242a	e8 00 00 00 00	 call	 __RTC_CheckEsp
$L196752:

; 400  : 	}
; 401  : }

  0242f	8b 4d f4	 mov	 ecx, DWORD PTR __$EHRec$[ebp]
  02432	64 89 0d 00 00
	00 00		 mov	 DWORD PTR fs:__except_list, ecx
  02439	5f		 pop	 edi
  0243a	5e		 pop	 esi
  0243b	81 c4 a0 00 00
	00		 add	 esp, 160		; 000000a0H
  02441	3b ec		 cmp	 ebp, esp
  02443	e8 00 00 00 00	 call	 __RTC_CheckEsp
  02448	8b e5		 mov	 esp, ebp
  0244a	5d		 pop	 ebp
  0244b	c3		 ret	 0
_TEXT	ENDS
text$x	SEGMENT
$L198325:
  005a6	8b f4		 mov	 esi, esp
  005a8	8b 4d ec	 mov	 ecx, DWORD PTR $T198319[ebp]
  005ab	ff 15 00 00 00
	00		 call	 DWORD PTR __imp_??1?$CStringT@DV?$StrTraitMFC_DLL@DV?$ChTraitsCRT@D@ATL@@@@@ATL@@QAE@XZ
  005b1	3b f4		 cmp	 esi, esp
  005b3	e9 00 00 00 00	 jmp	 __RTC_CheckEsp
$L198326:
  005b8	8b f4		 mov	 esi, esp
  005ba	8b 4d e8	 mov	 ecx, DWORD PTR $T198320[ebp]
  005bd	ff 15 00 00 00
	00		 call	 DWORD PTR __imp_??1?$CStringT@DV?$StrTraitMFC_DLL@DV?$ChTraitsCRT@D@ATL@@@@@ATL@@QAE@XZ
  005c3	3b f4		 cmp	 esi, esp
  005c5	e9 00 00 00 00	 jmp	 __RTC_CheckEsp
$L198327:
  005ca	8b f4		 mov	 esi, esp
  005cc	8d 4d cc	 lea	 ecx, DWORD PTR $T198321[ebp]
  005cf	ff 15 00 00 00
	00		 call	 DWORD PTR __imp_??1?$basic_string@DU?$char_traits@D@std@@V?$allocator@D@2@@std@@QAE@XZ
  005d5	3b f4		 cmp	 esi, esp
  005d7	e9 00 00 00 00	 jmp	 __RTC_CheckEsp
$L198328:
  005dc	8b f4		 mov	 esi, esp
  005de	8d 4d b0	 lea	 ecx, DWORD PTR $T198322[ebp]
  005e1	ff 15 00 00 00
	00		 call	 DWORD PTR __imp_??1?$basic_string@DU?$char_traits@D@std@@V?$allocator@D@2@@std@@QAE@XZ
  005e7	3b f4		 cmp	 esi, esp
  005e9	e9 00 00 00 00	 jmp	 __RTC_CheckEsp
$L198329:
  005ee	8b f4		 mov	 esi, esp
  005f0	8d 4d 94	 lea	 ecx, DWORD PTR $T198323[ebp]
  005f3	ff 15 00 00 00
	00		 call	 DWORD PTR __imp_??1?$basic_string@DU?$char_traits@D@std@@V?$allocator@D@2@@std@@QAE@XZ
  005f9	3b f4		 cmp	 esi, esp
  005fb	e9 00 00 00 00	 jmp	 __RTC_CheckEsp
$L198330:
  00600	8b f4		 mov	 esi, esp
  00602	8d 8d 78 ff ff
	ff		 lea	 ecx, DWORD PTR $T198324[ebp]
  00608	ff 15 00 00 00
	00		 call	 DWORD PTR __imp_??1?$basic_string@DU?$char_traits@D@std@@V?$allocator@D@2@@std@@QAE@XZ
  0060e	3b f4		 cmp	 esi, esp
  00610	e9 00 00 00 00	 jmp	 __RTC_CheckEsp
__ehhandler$?IPanelChangeOb_WindowRestore@CTopPanelWnd@@UAEXXZ:
  00615	b8 00 00 00 00	 mov	 eax, OFFSET FLAT:$T198332
  0061a	e9 00 00 00 00	 jmp	 ___CxxFrameHandler
text$x	ENDS
?IPanelChangeOb_WindowRestore@CTopPanelWnd@@UAEXXZ ENDP	; CTopPanelWnd::IPanelChangeOb_WindowRestore
xdata$x	SEGMENT
$T198343 DD	0ffffffffH
	DD	FLAT:$L198338
	DD	00H
	DD	FLAT:$L198339
$T198341 DD	019930520H
	DD	02H
	DD	FLAT:$T198343
	DD	2 DUP(00H)
	DD	2 DUP(00H)
; Function compile flags: /Odt /RTCsu
xdata$x	ENDS
_TEXT	SEGMENT
tv81 = -84						; size = 4
tv76 = -80						; size = 4
$T198337 = -76						; size = 28
$T198336 = -48						; size = 28
_pDlg$ = -20						; size = 4
_this$ = -16						; size = 4
__$EHRec$ = -12						; size = 12
?IPanelChangeOb_WindowMin@CTopPanelWnd@@UAEXXZ PROC NEAR ; CTopPanelWnd::IPanelChangeOb_WindowMin
; _this$ = ecx

; 404  : {

  02450	55		 push	 ebp
  02451	8b ec		 mov	 ebp, esp
  02453	6a ff		 push	 -1
  02455	68 00 00 00 00	 push	 __ehhandler$?IPanelChangeOb_WindowMin@CTopPanelWnd@@UAEXXZ
  0245a	64 a1 00 00 00
	00		 mov	 eax, DWORD PTR fs:__except_list
  02460	50		 push	 eax
  02461	64 89 25 00 00
	00 00		 mov	 DWORD PTR fs:__except_list, esp
  02468	83 ec 48	 sub	 esp, 72			; 00000048H
  0246b	56		 push	 esi
  0246c	57		 push	 edi
  0246d	51		 push	 ecx
  0246e	8d 7d ac	 lea	 edi, DWORD PTR [ebp-84]
  02471	b9 12 00 00 00	 mov	 ecx, 18			; 00000012H
  02476	b8 cc cc cc cc	 mov	 eax, -858993460		; ccccccccH
  0247b	f3 ab		 rep stosd
  0247d	59		 pop	 ecx
  0247e	89 4d f0	 mov	 DWORD PTR _this$[ebp], ecx

; 405  : 	CPlayBoxDlg * pDlg = (CPlayBoxDlg *)AfxGetMainWindow ();

  02481	e8 00 00 00 00	 call	 ?AfxGetMainWindow@@YAPAVCWnd@@XZ ; AfxGetMainWindow
  02486	89 45 ec	 mov	 DWORD PTR _pDlg$[ebp], eax

; 406  : 	if (pDlg->m_bStartupRun)

  02489	8b 45 ec	 mov	 eax, DWORD PTR _pDlg$[ebp]
  0248c	0f b6 88 88 00
	00 00		 movzx	 ecx, BYTE PTR [eax+136]
  02493	85 c9		 test	 ecx, ecx
  02495	74 10		 je	 SHORT $L196770

; 407  : 		AfxGetMainWindow()->ShowWindow( SW_HIDE ); //

  02497	6a 00		 push	 0
  02499	e8 00 00 00 00	 call	 ?AfxGetMainWindow@@YAPAVCWnd@@XZ ; AfxGetMainWindow
  0249e	8b c8		 mov	 ecx, eax
  024a0	e8 00 00 00 00	 call	 ?ShowWindow@CWnd@@QAEHH@Z ; CWnd::ShowWindow

; 408  : 	else

  024a5	eb 0e		 jmp	 SHORT $L196771
$L196770:

; 409  : 		AfxGetMainWindow()->ShowWindow( SW_MINIMIZE );	//

  024a7	6a 06		 push	 6
  024a9	e8 00 00 00 00	 call	 ?AfxGetMainWindow@@YAPAVCWnd@@XZ ; AfxGetMainWindow
  024ae	8b c8		 mov	 ecx, eax
  024b0	e8 00 00 00 00	 call	 ?ShowWindow@CWnd@@QAEHH@Z ; CWnd::ShowWindow
$L196771:

; 410  : 
; 411  : 	AfxGetUIManager()->UIGetChangeColorMgr()->OnClose();

  024b5	e8 00 00 00 00	 call	 ?AfxGetUIManager@@YAPAVIUIManager@@XZ ; AfxGetUIManager
  024ba	89 45 b0	 mov	 DWORD PTR tv76[ebp], eax
  024bd	8b 55 b0	 mov	 edx, DWORD PTR tv76[ebp]
  024c0	8b 02		 mov	 eax, DWORD PTR [edx]
  024c2	8b f4		 mov	 esi, esp
  024c4	8b 4d b0	 mov	 ecx, DWORD PTR tv76[ebp]
  024c7	ff 50 2c	 call	 DWORD PTR [eax+44]
  024ca	3b f4		 cmp	 esi, esp
  024cc	e8 00 00 00 00	 call	 __RTC_CheckEsp
  024d1	89 45 ac	 mov	 DWORD PTR tv81[ebp], eax
  024d4	8b 4d ac	 mov	 ecx, DWORD PTR tv81[ebp]
  024d7	8b 11		 mov	 edx, DWORD PTR [ecx]
  024d9	8b f4		 mov	 esi, esp
  024db	8b 4d ac	 mov	 ecx, DWORD PTR tv81[ebp]
  024de	ff 52 34	 call	 DWORD PTR [edx+52]
  024e1	3b f4		 cmp	 esi, esp
  024e3	e8 00 00 00 00	 call	 __RTC_CheckEsp

; 412  : 	LogUserActMsg(STR_USER_CLICK, "BTN:TO_MIN");

  024e8	8b f4		 mov	 esi, esp
  024ea	68 00 00 00 00	 push	 OFFSET FLAT:$SG196774
  024ef	8d 4d d0	 lea	 ecx, DWORD PTR $T198336[ebp]
  024f2	ff 15 00 00 00
	00		 call	 DWORD PTR __imp_??0?$basic_string@DU?$char_traits@D@std@@V?$allocator@D@2@@std@@QAE@PBD@Z
  024f8	3b f4		 cmp	 esi, esp
  024fa	e8 00 00 00 00	 call	 __RTC_CheckEsp
  024ff	c7 45 fc 00 00
	00 00		 mov	 DWORD PTR __$EHRec$[ebp+8], 0
  02506	8b f4		 mov	 esi, esp
  02508	68 00 00 00 00	 push	 OFFSET FLAT:$SG196775
  0250d	8d 4d b4	 lea	 ecx, DWORD PTR $T198337[ebp]
  02510	ff 15 00 00 00
	00		 call	 DWORD PTR __imp_??0?$basic_string@DU?$char_traits@D@std@@V?$allocator@D@2@@std@@QAE@PBD@Z
  02516	3b f4		 cmp	 esi, esp
  02518	e8 00 00 00 00	 call	 __RTC_CheckEsp
  0251d	c6 45 fc 01	 mov	 BYTE PTR __$EHRec$[ebp+8], 1
  02521	8b f4		 mov	 esi, esp
  02523	8d 45 d0	 lea	 eax, DWORD PTR $T198336[ebp]
  02526	50		 push	 eax
  02527	8d 4d b4	 lea	 ecx, DWORD PTR $T198337[ebp]
  0252a	51		 push	 ecx
  0252b	ff 15 00 00 00
	00		 call	 DWORD PTR __imp_?LogUserActMsg@@YAXABV?$basic_string@DU?$char_traits@D@std@@V?$allocator@D@2@@std@@0@Z
  02531	83 c4 08	 add	 esp, 8
  02534	3b f4		 cmp	 esi, esp
  02536	e8 00 00 00 00	 call	 __RTC_CheckEsp
  0253b	c6 45 fc 00	 mov	 BYTE PTR __$EHRec$[ebp+8], 0
  0253f	8b f4		 mov	 esi, esp
  02541	8d 4d b4	 lea	 ecx, DWORD PTR $T198337[ebp]
  02544	ff 15 00 00 00
	00		 call	 DWORD PTR __imp_??1?$basic_string@DU?$char_traits@D@std@@V?$allocator@D@2@@std@@QAE@XZ
  0254a	3b f4		 cmp	 esi, esp
  0254c	e8 00 00 00 00	 call	 __RTC_CheckEsp
  02551	c7 45 fc ff ff
	ff ff		 mov	 DWORD PTR __$EHRec$[ebp+8], -1
  02558	8b f4		 mov	 esi, esp
  0255a	8d 4d d0	 lea	 ecx, DWORD PTR $T198336[ebp]
  0255d	ff 15 00 00 00
	00		 call	 DWORD PTR __imp_??1?$basic_string@DU?$char_traits@D@std@@V?$allocator@D@2@@std@@QAE@XZ
  02563	3b f4		 cmp	 esi, esp
  02565	e8 00 00 00 00	 call	 __RTC_CheckEsp

; 413  : }

  0256a	8b 4d f4	 mov	 ecx, DWORD PTR __$EHRec$[ebp]
  0256d	64 89 0d 00 00
	00 00		 mov	 DWORD PTR fs:__except_list, ecx
  02574	5f		 pop	 edi
  02575	5e		 pop	 esi
  02576	83 c4 54	 add	 esp, 84			; 00000054H
  02579	3b ec		 cmp	 ebp, esp
  0257b	e8 00 00 00 00	 call	 __RTC_CheckEsp
  02580	8b e5		 mov	 esp, ebp
  02582	5d		 pop	 ebp
  02583	c3		 ret	 0
_TEXT	ENDS
text$x	SEGMENT
$L198338:
  0061f	8b f4		 mov	 esi, esp
  00621	8d 4d d0	 lea	 ecx, DWORD PTR $T198336[ebp]
  00624	ff 15 00 00 00
	00		 call	 DWORD PTR __imp_??1?$basic_string@DU?$char_traits@D@std@@V?$allocator@D@2@@std@@QAE@XZ
  0062a	3b f4		 cmp	 esi, esp
  0062c	e9 00 00 00 00	 jmp	 __RTC_CheckEsp
$L198339:
  00631	8b f4		 mov	 esi, esp
  00633	8d 4d b4	 lea	 ecx, DWORD PTR $T198337[ebp]
  00636	ff 15 00 00 00
	00		 call	 DWORD PTR __imp_??1?$basic_string@DU?$char_traits@D@std@@V?$allocator@D@2@@std@@QAE@XZ
  0063c	3b f4		 cmp	 esi, esp
  0063e	e9 00 00 00 00	 jmp	 __RTC_CheckEsp
__ehhandler$?IPanelChangeOb_WindowMin@CTopPanelWnd@@UAEXXZ:
  00643	b8 00 00 00 00	 mov	 eax, OFFSET FLAT:$T198341
  00648	e9 00 00 00 00	 jmp	 ___CxxFrameHandler
text$x	ENDS
?IPanelChangeOb_WindowMin@CTopPanelWnd@@UAEXXZ ENDP	; CTopPanelWnd::IPanelChangeOb_WindowMin
; Function compile flags: /Odt /RTCsu
_TEXT	SEGMENT
_this$ = -4						; size = 4
?IPanelChangeOb_WindowClose@CTopPanelWnd@@UAEXXZ PROC NEAR ; CTopPanelWnd::IPanelChangeOb_WindowClose
; _this$ = ecx

; 416  : {

  02590	55		 push	 ebp
  02591	8b ec		 mov	 ebp, esp
  02593	51		 push	 ecx
  02594	c7 45 fc cc cc
	cc cc		 mov	 DWORD PTR [ebp-4], -858993460 ; ccccccccH
  0259b	89 4d fc	 mov	 DWORD PTR _this$[ebp], ecx

; 417  : 	OnBnClickedClose();

  0259e	8b 4d fc	 mov	 ecx, DWORD PTR _this$[ebp]
  025a1	83 e9 58	 sub	 ecx, 88			; 00000058H
  025a4	e8 00 00 00 00	 call	 ?OnBnClickedClose@CTopPanelWnd@@IAEXXZ ; CTopPanelWnd::OnBnClickedClose

; 418  : }

  025a9	83 c4 04	 add	 esp, 4
  025ac	3b ec		 cmp	 ebp, esp
  025ae	e8 00 00 00 00	 call	 __RTC_CheckEsp
  025b3	8b e5		 mov	 esp, ebp
  025b5	5d		 pop	 ebp
  025b6	c3		 ret	 0
?IPanelChangeOb_WindowClose@CTopPanelWnd@@UAEXXZ ENDP	; CTopPanelWnd::IPanelChangeOb_WindowClose
_TEXT	ENDS
PUBLIC	??0?$_Vector_val@V?$basic_string@DU?$char_traits@D@std@@V?$allocator@D@2@@std@@V?$allocator@V?$basic_string@DU?$char_traits@D@std@@V?$allocator@D@2@@std@@@2@@std@@IAE@V?$allocator@V?$basic_string@DU?$char_traits@D@std@@V?$allocator@D@2@@std@@@1@@Z ; std::_Vector_val<std::basic_string<char,std::char_traits<char>,std::allocator<char> >,std::allocator<std::basic_string<char,std::char_traits<char>,std::allocator<char> > > >::_Vector_val<std::basic_string<char,std::char_traits<char>,std::allocator<char> >,std::allocator<std::basic_string<char,std::char_traits<char>,std::allocator<char> > > >
PUBLIC	?_Buy@?$vector@V?$basic_string@DU?$char_traits@D@std@@V?$allocator@D@2@@std@@V?$allocator@V?$basic_string@DU?$char_traits@D@std@@V?$allocator@D@2@@std@@@2@@std@@IAE_NI@Z ; std::vector<std::basic_string<char,std::char_traits<char>,std::allocator<char> >,std::allocator<std::basic_string<char,std::char_traits<char>,std::allocator<char> > > >::_Buy
PUBLIC	??0?$allocator@V?$basic_string@DU?$char_traits@D@std@@V?$allocator@D@2@@std@@@std@@QAE@XZ ; std::allocator<std::basic_string<char,std::char_traits<char>,std::allocator<char> > >::allocator<std::basic_string<char,std::char_traits<char>,std::allocator<char> > >
; Function compile flags: /Odt /RTCsu
; File d:\program files (x86)\microsoft visual studio .net 2003\vc7\include\vector
;	COMDAT ??0?$vector@V?$basic_string@DU?$char_traits@D@std@@V?$allocator@D@2@@std@@V?$allocator@V?$basic_string@DU?$char_traits@D@std@@V?$allocator@D@2@@std@@@2@@std@@QAE@XZ
_TEXT	SEGMENT
_this$ = -4						; size = 4
??0?$vector@V?$basic_string@DU?$char_traits@D@std@@V?$allocator@D@2@@std@@V?$allocator@V?$basic_string@DU?$char_traits@D@std@@V?$allocator@D@2@@std@@@2@@std@@QAE@XZ PROC NEAR ; std::vector<std::basic_string<char,std::char_traits<char>,std::allocator<char> >,std::allocator<std::basic_string<char,std::char_traits<char>,std::allocator<char> > > >::vector<std::basic_string<char,std::char_traits<char>,std::allocator<char> >,std::allocator<std::basic_string<char,std::char_traits<char>,std::allocator<char> > > >, COMDAT
; _this$ = ecx

; 299  : 		{	// construct empty vector

  00000	55		 push	 ebp
  00001	8b ec		 mov	 ebp, esp
  00003	83 ec 08	 sub	 esp, 8
  00006	c7 45 f8 cc cc
	cc cc		 mov	 DWORD PTR [ebp-8], -858993460 ; ccccccccH
  0000d	c7 45 fc cc cc
	cc cc		 mov	 DWORD PTR [ebp-4], -858993460 ; ccccccccH
  00014	89 4d fc	 mov	 DWORD PTR _this$[ebp], ecx
  00017	51		 push	 ecx
  00018	8b cc		 mov	 ecx, esp
  0001a	e8 00 00 00 00	 call	 ??0?$allocator@V?$basic_string@DU?$char_traits@D@std@@V?$allocator@D@2@@std@@@std@@QAE@XZ ; std::allocator<std::basic_string<char,std::char_traits<char>,std::allocator<char> > >::allocator<std::basic_string<char,std::char_traits<char>,std::allocator<char> > >
  0001f	8b 4d fc	 mov	 ecx, DWORD PTR _this$[ebp]
  00022	e8 00 00 00 00	 call	 ??0?$_Vector_val@V?$basic_string@DU?$char_traits@D@std@@V?$allocator@D@2@@std@@V?$allocator@V?$basic_string@DU?$char_traits@D@std@@V?$allocator@D@2@@std@@@2@@std@@IAE@V?$allocator@V?$basic_string@DU?$char_traits@D@std@@V?$allocator@D@2@@std@@@1@@Z ; std::_Vector_val<std::basic_string<char,std::char_traits<char>,std::allocator<char> >,std::allocator<std::basic_string<char,std::char_traits<char>,std::allocator<char> > > >::_Vector_val<std::basic_string<char,std::char_traits<char>,std::allocator<char> >,std::allocator<std::basic_string<char,std::char_traits<char>,std::allocator<char> > > >

; 300  : 		_Buy(0);

  00027	6a 00		 push	 0
  00029	8b 4d fc	 mov	 ecx, DWORD PTR _this$[ebp]
  0002c	e8 00 00 00 00	 call	 ?_Buy@?$vector@V?$basic_string@DU?$char_traits@D@std@@V?$allocator@D@2@@std@@V?$allocator@V?$basic_string@DU?$char_traits@D@std@@V?$allocator@D@2@@std@@@2@@std@@IAE_NI@Z ; std::vector<std::basic_string<char,std::char_traits<char>,std::allocator<char> >,std::allocator<std::basic_string<char,std::char_traits<char>,std::allocator<char> > > >::_Buy

; 301  : 		}

  00031	8b 45 fc	 mov	 eax, DWORD PTR _this$[ebp]
  00034	83 c4 08	 add	 esp, 8
  00037	3b ec		 cmp	 ebp, esp
  00039	e8 00 00 00 00	 call	 __RTC_CheckEsp
  0003e	8b e5		 mov	 esp, ebp
  00040	5d		 pop	 ebp
  00041	c3		 ret	 0
??0?$vector@V?$basic_string@DU?$char_traits@D@std@@V?$allocator@D@2@@std@@V?$allocator@V?$basic_string@DU?$char_traits@D@std@@V?$allocator@D@2@@std@@@2@@std@@QAE@XZ ENDP ; std::vector<std::basic_string<char,std::char_traits<char>,std::allocator<char> >,std::allocator<std::basic_string<char,std::char_traits<char>,std::allocator<char> > > >::vector<std::basic_string<char,std::char_traits<char>,std::allocator<char> >,std::allocator<std::basic_string<char,std::char_traits<char>,std::allocator<char> > > >
_TEXT	ENDS
PUBLIC	?_Tidy@?$vector@V?$basic_string@DU?$char_traits@D@std@@V?$allocator@D@2@@std@@V?$allocator@V?$basic_string@DU?$char_traits@D@std@@V?$allocator@D@2@@std@@@2@@std@@IAEXXZ ; std::vector<std::basic_string<char,std::char_traits<char>,std::allocator<char> >,std::allocator<std::basic_string<char,std::char_traits<char>,std::allocator<char> > > >::_Tidy
; Function compile flags: /Odt /RTCsu
;	COMDAT ??1?$vector@V?$basic_string@DU?$char_traits@D@std@@V?$allocator@D@2@@std@@V?$allocator@V?$basic_string@DU?$char_traits@D@std@@V?$allocator@D@2@@std@@@2@@std@@QAE@XZ
_TEXT	SEGMENT
_this$ = -4						; size = 4
??1?$vector@V?$basic_string@DU?$char_traits@D@std@@V?$allocator@D@2@@std@@V?$allocator@V?$basic_string@DU?$char_traits@D@std@@V?$allocator@D@2@@std@@@2@@std@@QAE@XZ PROC NEAR ; std::vector<std::basic_string<char,std::char_traits<char>,std::allocator<char> >,std::allocator<std::basic_string<char,std::char_traits<char>,std::allocator<char> > > >::~vector<std::basic_string<char,std::char_traits<char>,std::allocator<char> >,std::allocator<std::basic_string<char,std::char_traits<char>,std::allocator<char> > > >, COMDAT
; _this$ = ecx

; 387  : 		{	// destroy the object

  00000	55		 push	 ebp
  00001	8b ec		 mov	 ebp, esp
  00003	51		 push	 ecx
  00004	c7 45 fc cc cc
	cc cc		 mov	 DWORD PTR [ebp-4], -858993460 ; ccccccccH
  0000b	89 4d fc	 mov	 DWORD PTR _this$[ebp], ecx

; 388  : 		_Tidy();

  0000e	8b 4d fc	 mov	 ecx, DWORD PTR _this$[ebp]
  00011	e8 00 00 00 00	 call	 ?_Tidy@?$vector@V?$basic_string@DU?$char_traits@D@std@@V?$allocator@D@2@@std@@V?$allocator@V?$basic_string@DU?$char_traits@D@std@@V?$allocator@D@2@@std@@@2@@std@@IAEXXZ ; std::vector<std::basic_string<char,std::char_traits<char>,std::allocator<char> >,std::allocator<std::basic_string<char,std::char_traits<char>,std::allocator<char> > > >::_Tidy

; 389  : 		}

  00016	83 c4 04	 add	 esp, 4
  00019	3b ec		 cmp	 ebp, esp
  0001b	e8 00 00 00 00	 call	 __RTC_CheckEsp
  00020	8b e5		 mov	 esp, ebp
  00022	5d		 pop	 ebp
  00023	c3		 ret	 0
??1?$vector@V?$basic_string@DU?$char_traits@D@std@@V?$allocator@D@2@@std@@V?$allocator@V?$basic_string@DU?$char_traits@D@std@@V?$allocator@D@2@@std@@@2@@std@@QAE@XZ ENDP ; std::vector<std::basic_string<char,std::char_traits<char>,std::allocator<char> >,std::allocator<std::basic_string<char,std::char_traits<char>,std::allocator<char> > > >::~vector<std::basic_string<char,std::char_traits<char>,std::allocator<char> >,std::allocator<std::basic_string<char,std::char_traits<char>,std::allocator<char> > > >
; Function compile flags: /Odt /RTCsu
; File d:\program files (x86)\microsoft visual studio .net 2003\vc7\include\xmemory
_TEXT	ENDS
;	COMDAT ??0?$allocator@V?$basic_string@DU?$char_traits@D@std@@V?$allocator@D@2@@std@@@std@@QAE@XZ
_TEXT	SEGMENT
_this$ = -4						; size = 4
??0?$allocator@V?$basic_string@DU?$char_traits@D@std@@V?$allocator@D@2@@std@@@std@@QAE@XZ PROC NEAR ; std::allocator<std::basic_string<char,std::char_traits<char>,std::allocator<char> > >::allocator<std::basic_string<char,std::char_traits<char>,std::allocator<char> > >, COMDAT
; _this$ = ecx

; 111  : 	allocator()

  00000	55		 push	 ebp
  00001	8b ec		 mov	 ebp, esp
  00003	51		 push	 ecx
  00004	c7 45 fc cc cc
	cc cc		 mov	 DWORD PTR [ebp-4], -858993460 ; ccccccccH
  0000b	89 4d fc	 mov	 DWORD PTR _this$[ebp], ecx

; 112  : 		{	// construct default allocator (do nothing)
; 113  : 		}

  0000e	8b 45 fc	 mov	 eax, DWORD PTR _this$[ebp]
  00011	8b e5		 mov	 esp, ebp
  00013	5d		 pop	 ebp
  00014	c3		 ret	 0
??0?$allocator@V?$basic_string@DU?$char_traits@D@std@@V?$allocator@D@2@@std@@@std@@QAE@XZ ENDP ; std::allocator<std::basic_string<char,std::char_traits<char>,std::allocator<char> > >::allocator<std::basic_string<char,std::char_traits<char>,std::allocator<char> > >
_TEXT	ENDS
PUBLIC	?max_size@?$vector@V?$basic_string@DU?$char_traits@D@std@@V?$allocator@D@2@@std@@V?$allocator@V?$basic_string@DU?$char_traits@D@std@@V?$allocator@D@2@@std@@@2@@std@@QBEIXZ ; std::vector<std::basic_string<char,std::char_traits<char>,std::allocator<char> >,std::allocator<std::basic_string<char,std::char_traits<char>,std::allocator<char> > > >::max_size
PUBLIC	?_Xlen@?$vector@V?$basic_string@DU?$char_traits@D@std@@V?$allocator@D@2@@std@@V?$allocator@V?$basic_string@DU?$char_traits@D@std@@V?$allocator@D@2@@std@@@2@@std@@IBEXXZ ; std::vector<std::basic_string<char,std::char_traits<char>,std::allocator<char> >,std::allocator<std::basic_string<char,std::char_traits<char>,std::allocator<char> > > >::_Xlen
PUBLIC	?allocate@?$allocator@V?$basic_string@DU?$char_traits@D@std@@V?$allocator@D@2@@std@@@std@@QAEPAV?$basic_string@DU?$char_traits@D@std@@V?$allocator@D@2@@2@I@Z ; std::allocator<std::basic_string<char,std::char_traits<char>,std::allocator<char> > >::allocate
; Function compile flags: /Odt /RTCsu
; File d:\program files (x86)\microsoft visual studio .net 2003\vc7\include\vector
;	COMDAT ?_Buy@?$vector@V?$basic_string@DU?$char_traits@D@std@@V?$allocator@D@2@@std@@V?$allocator@V?$basic_string@DU?$char_traits@D@std@@V?$allocator@D@2@@std@@@2@@std@@IAE_NI@Z
_TEXT	SEGMENT
_this$ = -4						; size = 4
__Capacity$ = 8						; size = 4
?_Buy@?$vector@V?$basic_string@DU?$char_traits@D@std@@V?$allocator@D@2@@std@@V?$allocator@V?$basic_string@DU?$char_traits@D@std@@V?$allocator@D@2@@std@@@2@@std@@IAE_NI@Z PROC NEAR ; std::vector<std::basic_string<char,std::char_traits<char>,std::allocator<char> >,std::allocator<std::basic_string<char,std::char_traits<char>,std::allocator<char> > > >::_Buy, COMDAT
; _this$ = ecx

; 770  : 		{	// allocate array with _Capacity elements

  00000	55		 push	 ebp
  00001	8b ec		 mov	 ebp, esp
  00003	51		 push	 ecx
  00004	c7 45 fc cc cc
	cc cc		 mov	 DWORD PTR [ebp-4], -858993460 ; ccccccccH
  0000b	89 4d fc	 mov	 DWORD PTR _this$[ebp], ecx

; 771  : 		_Myfirst = 0, _Mylast = 0, _Myend = 0;

  0000e	8b 45 fc	 mov	 eax, DWORD PTR _this$[ebp]
  00011	c7 40 04 00 00
	00 00		 mov	 DWORD PTR [eax+4], 0
  00018	8b 4d fc	 mov	 ecx, DWORD PTR _this$[ebp]
  0001b	c7 41 08 00 00
	00 00		 mov	 DWORD PTR [ecx+8], 0
  00022	8b 55 fc	 mov	 edx, DWORD PTR _this$[ebp]
  00025	c7 42 0c 00 00
	00 00		 mov	 DWORD PTR [edx+12], 0

; 772  : 		if (_Capacity == 0)

  0002c	83 7d 08 00	 cmp	 DWORD PTR __Capacity$[ebp], 0
  00030	75 04		 jne	 SHORT $L196930

; 773  : 			return (false);

  00032	32 c0		 xor	 al, al
  00034	eb 49		 jmp	 SHORT $L196929
$L196930:

; 774  : 		else if (max_size() < _Capacity)

  00036	8b 4d fc	 mov	 ecx, DWORD PTR _this$[ebp]
  00039	e8 00 00 00 00	 call	 ?max_size@?$vector@V?$basic_string@DU?$char_traits@D@std@@V?$allocator@D@2@@std@@V?$allocator@V?$basic_string@DU?$char_traits@D@std@@V?$allocator@D@2@@std@@@2@@std@@QBEIXZ ; std::vector<std::basic_string<char,std::char_traits<char>,std::allocator<char> >,std::allocator<std::basic_string<char,std::char_traits<char>,std::allocator<char> > > >::max_size
  0003e	3b 45 08	 cmp	 eax, DWORD PTR __Capacity$[ebp]
  00041	73 0a		 jae	 SHORT $L196932

; 775  : 			_Xlen();	// result too long

  00043	8b 4d fc	 mov	 ecx, DWORD PTR _this$[ebp]
  00046	e8 00 00 00 00	 call	 ?_Xlen@?$vector@V?$basic_string@DU?$char_traits@D@std@@V?$allocator@D@2@@std@@V?$allocator@V?$basic_string@DU?$char_traits@D@std@@V?$allocator@D@2@@std@@@2@@std@@IBEXXZ ; std::vector<std::basic_string<char,std::char_traits<char>,std::allocator<char> >,std::allocator<std::basic_string<char,std::char_traits<char>,std::allocator<char> > > >::_Xlen

; 776  : 		else

  0004b	eb 30		 jmp	 SHORT $L196931
$L196932:

; 777  : 			{	// nonempty array, allocate storage
; 778  : 			_Myfirst = this->_Alval.allocate(_Capacity);

  0004d	8b 45 08	 mov	 eax, DWORD PTR __Capacity$[ebp]
  00050	50		 push	 eax
  00051	8b 4d fc	 mov	 ecx, DWORD PTR _this$[ebp]
  00054	e8 00 00 00 00	 call	 ?allocate@?$allocator@V?$basic_string@DU?$char_traits@D@std@@V?$allocator@D@2@@std@@@std@@QAEPAV?$basic_string@DU?$char_traits@D@std@@V?$allocator@D@2@@2@I@Z ; std::allocator<std::basic_string<char,std::char_traits<char>,std::allocator<char> > >::allocate
  00059	8b 4d fc	 mov	 ecx, DWORD PTR _this$[ebp]
  0005c	89 41 04	 mov	 DWORD PTR [ecx+4], eax

; 779  : 			_Mylast = _Myfirst;

  0005f	8b 55 fc	 mov	 edx, DWORD PTR _this$[ebp]
  00062	8b 45 fc	 mov	 eax, DWORD PTR _this$[ebp]
  00065	8b 48 04	 mov	 ecx, DWORD PTR [eax+4]
  00068	89 4a 08	 mov	 DWORD PTR [edx+8], ecx

; 780  : 			_Myend = _Myfirst + _Capacity;

  0006b	8b 55 08	 mov	 edx, DWORD PTR __Capacity$[ebp]
  0006e	6b d2 1c	 imul	 edx, 28			; 0000001cH
  00071	8b 45 fc	 mov	 eax, DWORD PTR _this$[ebp]
  00074	03 50 04	 add	 edx, DWORD PTR [eax+4]
  00077	8b 4d fc	 mov	 ecx, DWORD PTR _this$[ebp]
  0007a	89 51 0c	 mov	 DWORD PTR [ecx+12], edx
$L196931:

; 781  : 			}
; 782  : 		return (true);

  0007d	b0 01		 mov	 al, 1
$L196929:

; 783  : 		}

  0007f	83 c4 04	 add	 esp, 4
  00082	3b ec		 cmp	 ebp, esp
  00084	e8 00 00 00 00	 call	 __RTC_CheckEsp
  00089	8b e5		 mov	 esp, ebp
  0008b	5d		 pop	 ebp
  0008c	c2 04 00	 ret	 4
?_Buy@?$vector@V?$basic_string@DU?$char_traits@D@std@@V?$allocator@D@2@@std@@V?$allocator@V?$basic_string@DU?$char_traits@D@std@@V?$allocator@D@2@@std@@@2@@std@@IAE_NI@Z ENDP ; std::vector<std::basic_string<char,std::char_traits<char>,std::allocator<char> >,std::allocator<std::basic_string<char,std::char_traits<char>,std::allocator<char> > > >::_Buy
_TEXT	ENDS
PUBLIC	?_Destroy@?$vector@V?$basic_string@DU?$char_traits@D@std@@V?$allocator@D@2@@std@@V?$allocator@V?$basic_string@DU?$char_traits@D@std@@V?$allocator@D@2@@std@@@2@@std@@IAEXPAV?$basic_string@DU?$char_traits@D@std@@V?$allocator@D@2@@2@0@Z ; std::vector<std::basic_string<char,std::char_traits<char>,std::allocator<char> >,std::allocator<std::basic_string<char,std::char_traits<char>,std::allocator<char> > > >::_Destroy
PUBLIC	?deallocate@?$allocator@V?$basic_string@DU?$char_traits@D@std@@V?$allocator@D@2@@std@@@std@@QAEXPAV?$basic_string@DU?$char_traits@D@std@@V?$allocator@D@2@@2@I@Z ; std::allocator<std::basic_string<char,std::char_traits<char>,std::allocator<char> > >::deallocate
; Function compile flags: /Odt /RTCsu
;	COMDAT ?_Tidy@?$vector@V?$basic_string@DU?$char_traits@D@std@@V?$allocator@D@2@@std@@V?$allocator@V?$basic_string@DU?$char_traits@D@std@@V?$allocator@D@2@@std@@@2@@std@@IAEXXZ
_TEXT	SEGMENT
_this$ = -4						; size = 4
?_Tidy@?$vector@V?$basic_string@DU?$char_traits@D@std@@V?$allocator@D@2@@std@@V?$allocator@V?$basic_string@DU?$char_traits@D@std@@V?$allocator@D@2@@std@@@2@@std@@IAEXXZ PROC NEAR ; std::vector<std::basic_string<char,std::char_traits<char>,std::allocator<char> >,std::allocator<std::basic_string<char,std::char_traits<char>,std::allocator<char> > > >::_Tidy, COMDAT
; _this$ = ecx

; 791  : 		{	// free all storage

  00000	55		 push	 ebp
  00001	8b ec		 mov	 ebp, esp
  00003	51		 push	 ecx
  00004	c7 45 fc cc cc
	cc cc		 mov	 DWORD PTR [ebp-4], -858993460 ; ccccccccH
  0000b	89 4d fc	 mov	 DWORD PTR _this$[ebp], ecx

; 792  : 		if (_Myfirst != 0)

  0000e	8b 45 fc	 mov	 eax, DWORD PTR _this$[ebp]
  00011	83 78 04 00	 cmp	 DWORD PTR [eax+4], 0
  00015	74 3c		 je	 SHORT $L196936

; 793  : 			{	// something to free, destroy and deallocate it
; 794  : 			_Destroy(_Myfirst, _Mylast);

  00017	8b 4d fc	 mov	 ecx, DWORD PTR _this$[ebp]
  0001a	8b 51 08	 mov	 edx, DWORD PTR [ecx+8]
  0001d	52		 push	 edx
  0001e	8b 45 fc	 mov	 eax, DWORD PTR _this$[ebp]
  00021	8b 48 04	 mov	 ecx, DWORD PTR [eax+4]
  00024	51		 push	 ecx
  00025	8b 4d fc	 mov	 ecx, DWORD PTR _this$[ebp]
  00028	e8 00 00 00 00	 call	 ?_Destroy@?$vector@V?$basic_string@DU?$char_traits@D@std@@V?$allocator@D@2@@std@@V?$allocator@V?$basic_string@DU?$char_traits@D@std@@V?$allocator@D@2@@std@@@2@@std@@IAEXPAV?$basic_string@DU?$char_traits@D@std@@V?$allocator@D@2@@2@0@Z ; std::vector<std::basic_string<char,std::char_traits<char>,std::allocator<char> >,std::allocator<std::basic_string<char,std::char_traits<char>,std::allocator<char> > > >::_Destroy

; 795  : 			this->_Alval.deallocate(_Myfirst, _Myend - _Myfirst);

  0002d	8b 55 fc	 mov	 edx, DWORD PTR _this$[ebp]
  00030	8b 45 fc	 mov	 eax, DWORD PTR _this$[ebp]
  00033	8b 4a 0c	 mov	 ecx, DWORD PTR [edx+12]
  00036	2b 48 04	 sub	 ecx, DWORD PTR [eax+4]
  00039	8b c1		 mov	 eax, ecx
  0003b	99		 cdq
  0003c	b9 1c 00 00 00	 mov	 ecx, 28			; 0000001cH
  00041	f7 f9		 idiv	 ecx
  00043	50		 push	 eax
  00044	8b 55 fc	 mov	 edx, DWORD PTR _this$[ebp]
  00047	8b 42 04	 mov	 eax, DWORD PTR [edx+4]
  0004a	50		 push	 eax
  0004b	8b 4d fc	 mov	 ecx, DWORD PTR _this$[ebp]
  0004e	e8 00 00 00 00	 call	 ?deallocate@?$allocator@V?$basic_string@DU?$char_traits@D@std@@V?$allocator@D@2@@std@@@std@@QAEXPAV?$basic_string@DU?$char_traits@D@std@@V?$allocator@D@2@@2@I@Z ; std::allocator<std::basic_string<char,std::char_traits<char>,std::allocator<char> > >::deallocate
$L196936:

; 796  : 			}
; 797  : 		_Myfirst = 0, _Mylast = 0, _Myend = 0;

  00053	8b 4d fc	 mov	 ecx, DWORD PTR _this$[ebp]
  00056	c7 41 04 00 00
	00 00		 mov	 DWORD PTR [ecx+4], 0
  0005d	8b 55 fc	 mov	 edx, DWORD PTR _this$[ebp]
  00060	c7 42 08 00 00
	00 00		 mov	 DWORD PTR [edx+8], 0
  00067	8b 45 fc	 mov	 eax, DWORD PTR _this$[ebp]
  0006a	c7 40 0c 00 00
	00 00		 mov	 DWORD PTR [eax+12], 0

; 798  : 		}

  00071	83 c4 04	 add	 esp, 4
  00074	3b ec		 cmp	 ebp, esp
  00076	e8 00 00 00 00	 call	 __RTC_CheckEsp
  0007b	8b e5		 mov	 esp, ebp
  0007d	5d		 pop	 ebp
  0007e	c3		 ret	 0
?_Tidy@?$vector@V?$basic_string@DU?$char_traits@D@std@@V?$allocator@D@2@@std@@V?$allocator@V?$basic_string@DU?$char_traits@D@std@@V?$allocator@D@2@@std@@@2@@std@@IAEXXZ ENDP ; std::vector<std::basic_string<char,std::char_traits<char>,std::allocator<char> >,std::allocator<std::basic_string<char,std::char_traits<char>,std::allocator<char> > > >::_Tidy
_TEXT	ENDS
PUBLIC	??0?$allocator@V?$basic_string@DU?$char_traits@D@std@@V?$allocator@D@2@@std@@@std@@QAE@ABV01@@Z ; std::allocator<std::basic_string<char,std::char_traits<char>,std::allocator<char> > >::allocator<std::basic_string<char,std::char_traits<char>,std::allocator<char> > >
; Function compile flags: /Odt /RTCsu
;	COMDAT ??0?$_Vector_val@V?$basic_string@DU?$char_traits@D@std@@V?$allocator@D@2@@std@@V?$allocator@V?$basic_string@DU?$char_traits@D@std@@V?$allocator@D@2@@std@@@2@@std@@IAE@V?$allocator@V?$basic_string@DU?$char_traits@D@std@@V?$allocator@D@2@@std@@@1@@Z
_TEXT	SEGMENT
_this$ = -4						; size = 4
__Al$ = 8						; size = 1
??0?$_Vector_val@V?$basic_string@DU?$char_traits@D@std@@V?$allocator@D@2@@std@@V?$allocator@V?$basic_string@DU?$char_traits@D@std@@V?$allocator@D@2@@std@@@2@@std@@IAE@V?$allocator@V?$basic_string@DU?$char_traits@D@std@@V?$allocator@D@2@@std@@@1@@Z PROC NEAR ; std::_Vector_val<std::basic_string<char,std::char_traits<char>,std::allocator<char> >,std::allocator<std::basic_string<char,std::char_traits<char>,std::allocator<char> > > >::_Vector_val<std::basic_string<char,std::char_traits<char>,std::allocator<char> >,std::allocator<std::basic_string<char,std::char_traits<char>,std::allocator<char> > > >, COMDAT
; _this$ = ecx

; 21   : 		{	// construct allocator from _Al

  00000	55		 push	 ebp
  00001	8b ec		 mov	 ebp, esp
  00003	51		 push	 ecx
  00004	c7 45 fc cc cc
	cc cc		 mov	 DWORD PTR [ebp-4], -858993460 ; ccccccccH
  0000b	89 4d fc	 mov	 DWORD PTR _this$[ebp], ecx
  0000e	8d 45 08	 lea	 eax, DWORD PTR __Al$[ebp]
  00011	50		 push	 eax
  00012	8b 4d fc	 mov	 ecx, DWORD PTR _this$[ebp]
  00015	e8 00 00 00 00	 call	 ??0?$allocator@V?$basic_string@DU?$char_traits@D@std@@V?$allocator@D@2@@std@@@std@@QAE@ABV01@@Z ; std::allocator<std::basic_string<char,std::char_traits<char>,std::allocator<char> > >::allocator<std::basic_string<char,std::char_traits<char>,std::allocator<char> > >

; 22   : 		}

  0001a	8b 45 fc	 mov	 eax, DWORD PTR _this$[ebp]
  0001d	83 c4 04	 add	 esp, 4
  00020	3b ec		 cmp	 ebp, esp
  00022	e8 00 00 00 00	 call	 __RTC_CheckEsp
  00027	8b e5		 mov	 esp, ebp
  00029	5d		 pop	 ebp
  0002a	c2 04 00	 ret	 4
??0?$_Vector_val@V?$basic_string@DU?$char_traits@D@std@@V?$allocator@D@2@@std@@V?$allocator@V?$basic_string@DU?$char_traits@D@std@@V?$allocator@D@2@@std@@@2@@std@@IAE@V?$allocator@V?$basic_string@DU?$char_traits@D@std@@V?$allocator@D@2@@std@@@1@@Z ENDP ; std::_Vector_val<std::basic_string<char,std::char_traits<char>,std::allocator<char> >,std::allocator<std::basic_string<char,std::char_traits<char>,std::allocator<char> > > >::_Vector_val<std::basic_string<char,std::char_traits<char>,std::allocator<char> >,std::allocator<std::basic_string<char,std::char_traits<char>,std::allocator<char> > > >
; Function compile flags: /Odt /RTCsu
; File d:\program files (x86)\microsoft visual studio .net 2003\vc7\include\xmemory
_TEXT	ENDS
;	COMDAT ??0?$allocator@V?$basic_string@DU?$char_traits@D@std@@V?$allocator@D@2@@std@@@std@@QAE@ABV01@@Z
_TEXT	SEGMENT
_this$ = -4						; size = 4
___formal$ = 8						; size = 4
??0?$allocator@V?$basic_string@DU?$char_traits@D@std@@V?$allocator@D@2@@std@@@std@@QAE@ABV01@@Z PROC NEAR ; std::allocator<std::basic_string<char,std::char_traits<char>,std::allocator<char> > >::allocator<std::basic_string<char,std::char_traits<char>,std::allocator<char> > >, COMDAT
; _this$ = ecx

; 115  : 	allocator(const allocator<_Ty>&)

  00000	55		 push	 ebp
  00001	8b ec		 mov	 ebp, esp
  00003	51		 push	 ecx
  00004	c7 45 fc cc cc
	cc cc		 mov	 DWORD PTR [ebp-4], -858993460 ; ccccccccH
  0000b	89 4d fc	 mov	 DWORD PTR _this$[ebp], ecx

; 116  : 		{	// construct by copying (do nothing)
; 117  : 		}

  0000e	8b 45 fc	 mov	 eax, DWORD PTR _this$[ebp]
  00011	8b e5		 mov	 esp, ebp
  00013	5d		 pop	 ebp
  00014	c2 04 00	 ret	 4
??0?$allocator@V?$basic_string@DU?$char_traits@D@std@@V?$allocator@D@2@@std@@@std@@QAE@ABV01@@Z ENDP ; std::allocator<std::basic_string<char,std::char_traits<char>,std::allocator<char> > >::allocator<std::basic_string<char,std::char_traits<char>,std::allocator<char> > >
; Function compile flags: /Odt /RTCsu
_TEXT	ENDS
;	COMDAT ?deallocate@?$allocator@V?$basic_string@DU?$char_traits@D@std@@V?$allocator@D@2@@std@@@std@@QAEXPAV?$basic_string@DU?$char_traits@D@std@@V?$allocator@D@2@@2@I@Z
_TEXT	SEGMENT
_this$ = -4						; size = 4
__Ptr$ = 8						; size = 4
___formal$ = 12						; size = 4
?deallocate@?$allocator@V?$basic_string@DU?$char_traits@D@std@@V?$allocator@D@2@@std@@@std@@QAEXPAV?$basic_string@DU?$char_traits@D@std@@V?$allocator@D@2@@2@I@Z PROC NEAR ; std::allocator<std::basic_string<char,std::char_traits<char>,std::allocator<char> > >::deallocate, COMDAT
; _this$ = ecx

; 131  : 		{	// deallocate object at _Ptr, ignore size

  00000	55		 push	 ebp
  00001	8b ec		 mov	 ebp, esp
  00003	51		 push	 ecx
  00004	c7 45 fc cc cc
	cc cc		 mov	 DWORD PTR [ebp-4], -858993460 ; ccccccccH
  0000b	89 4d fc	 mov	 DWORD PTR _this$[ebp], ecx

; 132  : 		operator delete(_Ptr);

  0000e	8b 45 08	 mov	 eax, DWORD PTR __Ptr$[ebp]
  00011	50		 push	 eax
  00012	e8 00 00 00 00	 call	 ??3@YAXPAX@Z		; operator delete
  00017	83 c4 04	 add	 esp, 4

; 133  : 		}

  0001a	83 c4 04	 add	 esp, 4
  0001d	3b ec		 cmp	 ebp, esp
  0001f	e8 00 00 00 00	 call	 __RTC_CheckEsp
  00024	8b e5		 mov	 esp, ebp
  00026	5d		 pop	 ebp
  00027	c2 08 00	 ret	 8
?deallocate@?$allocator@V?$basic_string@DU?$char_traits@D@std@@V?$allocator@D@2@@std@@@std@@QAEXPAV?$basic_string@DU?$char_traits@D@std@@V?$allocator@D@2@@2@I@Z ENDP ; std::allocator<std::basic_string<char,std::char_traits<char>,std::allocator<char> > >::deallocate
_TEXT	ENDS
PUBLIC	??$_Allocate@V?$basic_string@DU?$char_traits@D@std@@V?$allocator@D@2@@std@@@std@@YAPAV?$basic_string@DU?$char_traits@D@std@@V?$allocator@D@2@@0@IPAV10@@Z ; std::_Allocate<std::basic_string<char,std::char_traits<char>,std::allocator<char> > >
; Function compile flags: /Odt /RTCsu
;	COMDAT ?allocate@?$allocator@V?$basic_string@DU?$char_traits@D@std@@V?$allocator@D@2@@std@@@std@@QAEPAV?$basic_string@DU?$char_traits@D@std@@V?$allocator@D@2@@2@I@Z
_TEXT	SEGMENT
_this$ = -4						; size = 4
__Count$ = 8						; size = 4
?allocate@?$allocator@V?$basic_string@DU?$char_traits@D@std@@V?$allocator@D@2@@std@@@std@@QAEPAV?$basic_string@DU?$char_traits@D@std@@V?$allocator@D@2@@2@I@Z PROC NEAR ; std::allocator<std::basic_string<char,std::char_traits<char>,std::allocator<char> > >::allocate, COMDAT
; _this$ = ecx

; 136  : 		{	// allocate array of _Count elements

  00000	55		 push	 ebp
  00001	8b ec		 mov	 ebp, esp
  00003	51		 push	 ecx
  00004	c7 45 fc cc cc
	cc cc		 mov	 DWORD PTR [ebp-4], -858993460 ; ccccccccH
  0000b	89 4d fc	 mov	 DWORD PTR _this$[ebp], ecx

; 137  : 		return (_Allocate(_Count, (pointer)0));

  0000e	6a 00		 push	 0
  00010	8b 45 08	 mov	 eax, DWORD PTR __Count$[ebp]
  00013	50		 push	 eax
  00014	e8 00 00 00 00	 call	 ??$_Allocate@V?$basic_string@DU?$char_traits@D@std@@V?$allocator@D@2@@std@@@std@@YAPAV?$basic_string@DU?$char_traits@D@std@@V?$allocator@D@2@@0@IPAV10@@Z ; std::_Allocate<std::basic_string<char,std::char_traits<char>,std::allocator<char> > >
  00019	83 c4 08	 add	 esp, 8

; 138  : 		}

  0001c	83 c4 04	 add	 esp, 4
  0001f	3b ec		 cmp	 ebp, esp
  00021	e8 00 00 00 00	 call	 __RTC_CheckEsp
  00026	8b e5		 mov	 esp, ebp
  00028	5d		 pop	 ebp
  00029	c2 04 00	 ret	 4
?allocate@?$allocator@V?$basic_string@DU?$char_traits@D@std@@V?$allocator@D@2@@std@@@std@@QAEPAV?$basic_string@DU?$char_traits@D@std@@V?$allocator@D@2@@2@I@Z ENDP ; std::allocator<std::basic_string<char,std::char_traits<char>,std::allocator<char> > >::allocate
_TEXT	ENDS
PUBLIC	?max_size@?$allocator@V?$basic_string@DU?$char_traits@D@std@@V?$allocator@D@2@@std@@@std@@QBEIXZ ; std::allocator<std::basic_string<char,std::char_traits<char>,std::allocator<char> > >::max_size
; Function compile flags: /Odt /RTCsu
; File d:\program files (x86)\microsoft visual studio .net 2003\vc7\include\vector
;	COMDAT ?max_size@?$vector@V?$basic_string@DU?$char_traits@D@std@@V?$allocator@D@2@@std@@V?$allocator@V?$basic_string@DU?$char_traits@D@std@@V?$allocator@D@2@@std@@@2@@std@@QBEIXZ
_TEXT	SEGMENT
_this$ = -4						; size = 4
?max_size@?$vector@V?$basic_string@DU?$char_traits@D@std@@V?$allocator@D@2@@std@@V?$allocator@V?$basic_string@DU?$char_traits@D@std@@V?$allocator@D@2@@std@@@2@@std@@QBEIXZ PROC NEAR ; std::vector<std::basic_string<char,std::char_traits<char>,std::allocator<char> >,std::allocator<std::basic_string<char,std::char_traits<char>,std::allocator<char> > > >::max_size, COMDAT
; _this$ = ecx

; 520  : 		{	// return maximum possible length of sequence

  00000	55		 push	 ebp
  00001	8b ec		 mov	 ebp, esp
  00003	51		 push	 ecx
  00004	c7 45 fc cc cc
	cc cc		 mov	 DWORD PTR [ebp-4], -858993460 ; ccccccccH
  0000b	89 4d fc	 mov	 DWORD PTR _this$[ebp], ecx

; 521  : 		return (this->_Alval.max_size());

  0000e	8b 4d fc	 mov	 ecx, DWORD PTR _this$[ebp]
  00011	e8 00 00 00 00	 call	 ?max_size@?$allocator@V?$basic_string@DU?$char_traits@D@std@@V?$allocator@D@2@@std@@@std@@QBEIXZ ; std::allocator<std::basic_string<char,std::char_traits<char>,std::allocator<char> > >::max_size

; 522  : 		}

  00016	83 c4 04	 add	 esp, 4
  00019	3b ec		 cmp	 ebp, esp
  0001b	e8 00 00 00 00	 call	 __RTC_CheckEsp
  00020	8b e5		 mov	 esp, ebp
  00022	5d		 pop	 ebp
  00023	c3		 ret	 0
?max_size@?$vector@V?$basic_string@DU?$char_traits@D@std@@V?$allocator@D@2@@std@@V?$allocator@V?$basic_string@DU?$char_traits@D@std@@V?$allocator@D@2@@std@@@2@@std@@QBEIXZ ENDP ; std::vector<std::basic_string<char,std::char_traits<char>,std::allocator<char> >,std::allocator<std::basic_string<char,std::char_traits<char>,std::allocator<char> > > >::max_size
_TEXT	ENDS
PUBLIC	??$_Destroy_range@V?$basic_string@DU?$char_traits@D@std@@V?$allocator@D@2@@std@@V?$allocator@V?$basic_string@DU?$char_traits@D@std@@V?$allocator@D@2@@std@@@2@@std@@YAXPAV?$basic_string@DU?$char_traits@D@std@@V?$allocator@D@2@@0@0AAV?$allocator@V?$basic_string@DU?$char_traits@D@std@@V?$allocator@D@2@@std@@@0@@Z ; std::_Destroy_range<std::basic_string<char,std::char_traits<char>,std::allocator<char> >,std::allocator<std::basic_string<char,std::char_traits<char>,std::allocator<char> > > >
; Function compile flags: /Odt /RTCsu
;	COMDAT ?_Destroy@?$vector@V?$basic_string@DU?$char_traits@D@std@@V?$allocator@D@2@@std@@V?$allocator@V?$basic_string@DU?$char_traits@D@std@@V?$allocator@D@2@@std@@@2@@std@@IAEXPAV?$basic_string@DU?$char_traits@D@std@@V?$allocator@D@2@@2@0@Z
_TEXT	SEGMENT
_this$ = -4						; size = 4
__First$ = 8						; size = 4
__Last$ = 12						; size = 4
?_Destroy@?$vector@V?$basic_string@DU?$char_traits@D@std@@V?$allocator@D@2@@std@@V?$allocator@V?$basic_string@DU?$char_traits@D@std@@V?$allocator@D@2@@std@@@2@@std@@IAEXPAV?$basic_string@DU?$char_traits@D@std@@V?$allocator@D@2@@2@0@Z PROC NEAR ; std::vector<std::basic_string<char,std::char_traits<char>,std::allocator<char> >,std::allocator<std::basic_string<char,std::char_traits<char>,std::allocator<char> > > >::_Destroy, COMDAT
; _this$ = ecx

; 786  : 		{	// destroy [_First, _Last) using allocator

  00000	55		 push	 ebp
  00001	8b ec		 mov	 ebp, esp
  00003	51		 push	 ecx
  00004	c7 45 fc cc cc
	cc cc		 mov	 DWORD PTR [ebp-4], -858993460 ; ccccccccH
  0000b	89 4d fc	 mov	 DWORD PTR _this$[ebp], ecx

; 787  : 		_Destroy_range(_First, _Last, this->_Alval);

  0000e	8b 45 fc	 mov	 eax, DWORD PTR _this$[ebp]
  00011	50		 push	 eax
  00012	8b 4d 0c	 mov	 ecx, DWORD PTR __Last$[ebp]
  00015	51		 push	 ecx
  00016	8b 55 08	 mov	 edx, DWORD PTR __First$[ebp]
  00019	52		 push	 edx
  0001a	e8 00 00 00 00	 call	 ??$_Destroy_range@V?$basic_string@DU?$char_traits@D@std@@V?$allocator@D@2@@std@@V?$allocator@V?$basic_string@DU?$char_traits@D@std@@V?$allocator@D@2@@std@@@2@@std@@YAXPAV?$basic_string@DU?$char_traits@D@std@@V?$allocator@D@2@@0@0AAV?$allocator@V?$basic_string@DU?$char_traits@D@std@@V?$allocator@D@2@@std@@@0@@Z ; std::_Destroy_range<std::basic_string<char,std::char_traits<char>,std::allocator<char> >,std::allocator<std::basic_string<char,std::char_traits<char>,std::allocator<char> > > >
  0001f	83 c4 0c	 add	 esp, 12			; 0000000cH

; 788  : 		}

  00022	83 c4 04	 add	 esp, 4
  00025	3b ec		 cmp	 ebp, esp
  00027	e8 00 00 00 00	 call	 __RTC_CheckEsp
  0002c	8b e5		 mov	 esp, ebp
  0002e	5d		 pop	 ebp
  0002f	c2 08 00	 ret	 8
?_Destroy@?$vector@V?$basic_string@DU?$char_traits@D@std@@V?$allocator@D@2@@std@@V?$allocator@V?$basic_string@DU?$char_traits@D@std@@V?$allocator@D@2@@std@@@2@@std@@IAEXPAV?$basic_string@DU?$char_traits@D@std@@V?$allocator@D@2@@2@0@Z ENDP ; std::vector<std::basic_string<char,std::char_traits<char>,std::allocator<char> >,std::allocator<std::basic_string<char,std::char_traits<char>,std::allocator<char> > > >::_Destroy
_TEXT	ENDS
PUBLIC	??_R0?AVlogic_error@std@@@8			; std::logic_error `RTTI Type Descriptor'
PUBLIC	__CT??_R0?AVlogic_error@std@@@8??0logic_error@std@@QAE@ABV01@@Z40
PUBLIC	??_R0?AVexception@@@8				; exception `RTTI Type Descriptor'
PUBLIC	__CT??_R0?AVexception@@@8??0exception@@QAE@ABV0@@Z12
PUBLIC	??_R0?AVlength_error@std@@@8			; std::length_error `RTTI Type Descriptor'
PUBLIC	__TI3?AVlength_error@std@@
PUBLIC	__CTA3?AVlength_error@std@@
PUBLIC	__CT??_R0?AVlength_error@std@@@8??0length_error@std@@QAE@ABV01@@Z40
PUBLIC	??_C@_0BD@OLBABOEK@vector?$DMT?$DO?5too?5long?$AA@ ; `string'
PUBLIC	??0logic_error@std@@QAE@ABV01@@Z		; std::logic_error::logic_error
PUBLIC	??0length_error@std@@QAE@ABV?$basic_string@DU?$char_traits@D@std@@V?$allocator@D@2@@1@@Z ; std::length_error::length_error
PUBLIC	??1length_error@std@@UAE@XZ			; std::length_error::~length_error
PUBLIC	??0length_error@std@@QAE@ABV01@@Z		; std::length_error::length_error
EXTRN	__CxxThrowException@8:NEAR
EXTRN	??0exception@@QAE@ABV0@@Z:NEAR			; exception::exception
;	COMDAT xdata$x
xdata$x	SEGMENT
$T198365 DD	0ffffffffH
	DD	FLAT:$L198361
$T198363 DD	019930520H
	DD	01H
	DD	FLAT:$T198365
	DD	2 DUP(00H)
	DD	2 DUP(00H)
xdata$x	ENDS
;	COMDAT ??_C@_0BD@OLBABOEK@vector?$DMT?$DO?5too?5long?$AA@
CONST	SEGMENT
??_C@_0BD@OLBABOEK@vector?$DMT?$DO?5too?5long?$AA@ DB 'vector<T> too long'
	DB	00H						; `string'
CONST	ENDS
;	COMDAT __TI3?AVlength_error@std@@
xdata$x	SEGMENT
__TI3?AVlength_error@std@@ DD 00H
	DD	FLAT:??1length_error@std@@UAE@XZ
	DD	00H
	DD	FLAT:__CTA3?AVlength_error@std@@
xdata$x	ENDS
;	COMDAT __CTA3?AVlength_error@std@@
xdata$x	SEGMENT
__CTA3?AVlength_error@std@@ DD 03H
	DD	FLAT:__CT??_R0?AVlength_error@std@@@8??0length_error@std@@QAE@ABV01@@Z40
	DD	FLAT:__CT??_R0?AVlogic_error@std@@@8??0logic_error@std@@QAE@ABV01@@Z40
	DD	FLAT:__CT??_R0?AVexception@@@8??0exception@@QAE@ABV0@@Z12
xdata$x	ENDS
;	COMDAT __CT??_R0?AVlength_error@std@@@8??0length_error@std@@QAE@ABV01@@Z40
xdata$x	SEGMENT
__CT??_R0?AVlength_error@std@@@8??0length_error@std@@QAE@ABV01@@Z40 DD 00H
	DD	FLAT:??_R0?AVlength_error@std@@@8
	DD	00H
	DD	0ffffffffH
	ORG $+4
	DD	028H
	DD	FLAT:??0length_error@std@@QAE@ABV01@@Z
xdata$x	ENDS
;	COMDAT ??_R0?AVlength_error@std@@@8
_DATA	SEGMENT
??_R0?AVlength_error@std@@@8 DD FLAT:??_7type_info@@6B@	; std::length_error `RTTI Type Descriptor'
	DD	00H
	DB	'.?AVlength_error@std@@', 00H
	ORG $-31
	DD	FLAT:??_7type_info@@6B@
	DD	00H
	DB	'.?AVlength_error@std@@', 00H
_DATA	ENDS
;	COMDAT __CT??_R0?AVlogic_error@std@@@8??0logic_error@std@@QAE@ABV01@@Z40
xdata$x	SEGMENT
__CT??_R0?AVlogic_error@std@@@8??0logic_error@std@@QAE@ABV01@@Z40 DD 00H
	DD	FLAT:??_R0?AVlogic_error@std@@@8
	DD	00H
	DD	0ffffffffH
	ORG $+4
	DD	028H
	DD	FLAT:??0logic_error@std@@QAE@ABV01@@Z
xdata$x	ENDS
;	COMDAT ??_R0?AVlogic_error@std@@@8
_DATA	SEGMENT
??_R0?AVlogic_error@std@@@8 DD FLAT:??_7type_info@@6B@	; std::logic_error `RTTI Type Descriptor'
	DD	00H
	DB	'.?AVlogic_error@std@@', 00H
	ORG $-30
	DD	FLAT:??_7type_info@@6B@
	DD	00H
	DB	'.?AVlogic_error@std@@', 00H
_DATA	ENDS
;	COMDAT __CT??_R0?AVexception@@@8??0exception@@QAE@ABV0@@Z12
xdata$x	SEGMENT
__CT??_R0?AVexception@@@8??0exception@@QAE@ABV0@@Z12 DD 00H
	DD	FLAT:??_R0?AVexception@@@8
	DD	00H
	DD	0ffffffffH
	ORG $+4
	DD	0cH
	DD	FLAT:??0exception@@QAE@ABV0@@Z
xdata$x	ENDS
;	COMDAT ??_R0?AVexception@@@8
_DATA	SEGMENT
??_R0?AVexception@@@8 DD FLAT:??_7type_info@@6B@	; exception `RTTI Type Descriptor'
	DD	00H
	DB	'.?AVexception@@', 00H
	ORG $-24
	DD	FLAT:??_7type_info@@6B@
	DD	00H
	DB	'.?AVexception@@', 00H
; Function compile flags: /Odt /RTCsu
_DATA	ENDS
;	COMDAT ?_Xlen@?$vector@V?$basic_string@DU?$char_traits@D@std@@V?$allocator@D@2@@std@@V?$allocator@V?$basic_string@DU?$char_traits@D@std@@V?$allocator@D@2@@std@@@2@@std@@IBEXXZ
_TEXT	SEGMENT
$T198359 = -84						; size = 28
$T198358 = -56						; size = 40
_this$ = -16						; size = 4
__$EHRec$ = -12						; size = 12
?_Xlen@?$vector@V?$basic_string@DU?$char_traits@D@std@@V?$allocator@D@2@@std@@V?$allocator@V?$basic_string@DU?$char_traits@D@std@@V?$allocator@D@2@@std@@@2@@std@@IBEXXZ PROC NEAR ; std::vector<std::basic_string<char,std::char_traits<char>,std::allocator<char> >,std::allocator<std::basic_string<char,std::char_traits<char>,std::allocator<char> > > >::_Xlen, COMDAT
; _this$ = ecx

; 883  : 		{	// report a length_error

  00000	55		 push	 ebp
  00001	8b ec		 mov	 ebp, esp
  00003	6a ff		 push	 -1
  00005	68 00 00 00 00	 push	 __ehhandler$?_Xlen@?$vector@V?$basic_string@DU?$char_traits@D@std@@V?$allocator@D@2@@std@@V?$allocator@V?$basic_string@DU?$char_traits@D@std@@V?$allocator@D@2@@std@@@2@@std@@IBEXXZ
  0000a	64 a1 00 00 00
	00		 mov	 eax, DWORD PTR fs:__except_list
  00010	50		 push	 eax
  00011	64 89 25 00 00
	00 00		 mov	 DWORD PTR fs:__except_list, esp
  00018	83 ec 48	 sub	 esp, 72			; 00000048H
  0001b	56		 push	 esi
  0001c	57		 push	 edi
  0001d	51		 push	 ecx
  0001e	8d 7d ac	 lea	 edi, DWORD PTR [ebp-84]
  00021	b9 12 00 00 00	 mov	 ecx, 18			; 00000012H
  00026	b8 cc cc cc cc	 mov	 eax, -858993460		; ccccccccH
  0002b	f3 ab		 rep stosd
  0002d	59		 pop	 ecx
  0002e	89 4d f0	 mov	 DWORD PTR _this$[ebp], ecx

; 884  : 		_THROW(length_error, "vector<T> too long");

  00031	8b f4		 mov	 esi, esp
  00033	68 00 00 00 00	 push	 OFFSET FLAT:??_C@_0BD@OLBABOEK@vector?$DMT?$DO?5too?5long?$AA@
  00038	8d 4d ac	 lea	 ecx, DWORD PTR $T198359[ebp]
  0003b	ff 15 00 00 00
	00		 call	 DWORD PTR __imp_??0?$basic_string@DU?$char_traits@D@std@@V?$allocator@D@2@@std@@QAE@PBD@Z
  00041	3b f4		 cmp	 esi, esp
  00043	e8 00 00 00 00	 call	 __RTC_CheckEsp
  00048	c7 45 fc 00 00
	00 00		 mov	 DWORD PTR __$EHRec$[ebp+8], 0
  0004f	8d 45 ac	 lea	 eax, DWORD PTR $T198359[ebp]
  00052	50		 push	 eax
  00053	8d 4d c8	 lea	 ecx, DWORD PTR $T198358[ebp]
  00056	e8 00 00 00 00	 call	 ??0length_error@std@@QAE@ABV?$basic_string@DU?$char_traits@D@std@@V?$allocator@D@2@@1@@Z ; std::length_error::length_error
  0005b	68 00 00 00 00	 push	 OFFSET FLAT:__TI3?AVlength_error@std@@
  00060	8d 4d c8	 lea	 ecx, DWORD PTR $T198358[ebp]
  00063	51		 push	 ecx
  00064	e8 00 00 00 00	 call	 __CxxThrowException@8
$L198357:

; 885  : 		}

  00069	8b 4d f4	 mov	 ecx, DWORD PTR __$EHRec$[ebp]
  0006c	64 89 0d 00 00
	00 00		 mov	 DWORD PTR fs:__except_list, ecx
  00073	5f		 pop	 edi
  00074	5e		 pop	 esi
  00075	83 c4 54	 add	 esp, 84			; 00000054H
  00078	3b ec		 cmp	 ebp, esp
  0007a	e8 00 00 00 00	 call	 __RTC_CheckEsp
  0007f	8b e5		 mov	 esp, ebp
  00081	5d		 pop	 ebp
  00082	c3		 ret	 0
_TEXT	ENDS
;	COMDAT text$x
text$x	SEGMENT
$L198361:
  00000	8b f4		 mov	 esi, esp
  00002	8d 4d ac	 lea	 ecx, DWORD PTR $T198359[ebp]
  00005	ff 15 00 00 00
	00		 call	 DWORD PTR __imp_??1?$basic_string@DU?$char_traits@D@std@@V?$allocator@D@2@@std@@QAE@XZ
  0000b	3b f4		 cmp	 esi, esp
  0000d	e9 00 00 00 00	 jmp	 __RTC_CheckEsp
__ehhandler$?_Xlen@?$vector@V?$basic_string@DU?$char_traits@D@std@@V?$allocator@D@2@@std@@V?$allocator@V?$basic_string@DU?$char_traits@D@std@@V?$allocator@D@2@@std@@@2@@std@@IBEXXZ:
  00012	b8 00 00 00 00	 mov	 eax, OFFSET FLAT:$T198363
  00017	e9 00 00 00 00	 jmp	 ___CxxFrameHandler
text$x	ENDS
?_Xlen@?$vector@V?$basic_string@DU?$char_traits@D@std@@V?$allocator@D@2@@std@@V?$allocator@V?$basic_string@DU?$char_traits@D@std@@V?$allocator@D@2@@std@@@2@@std@@IBEXXZ ENDP ; std::vector<std::basic_string<char,std::char_traits<char>,std::allocator<char> >,std::allocator<std::basic_string<char,std::char_traits<char>,std::allocator<char> > > >::_Xlen
PUBLIC	??_R1A@?0A@A@exception@@8			; exception::`RTTI Base Class Descriptor at (0,-1,0,0)'
PUBLIC	??_R1A@?0A@A@logic_error@std@@8			; std::logic_error::`RTTI Base Class Descriptor at (0,-1,0,0)'
PUBLIC	??_R4length_error@std@@6B@			; std::length_error::`RTTI Complete Object Locator'
PUBLIC	??_R3length_error@std@@8			; std::length_error::`RTTI Class Hierarchy Descriptor'
PUBLIC	??_R2length_error@std@@8			; std::length_error::`RTTI Base Class Array'
PUBLIC	??_R1A@?0A@A@length_error@std@@8		; std::length_error::`RTTI Base Class Descriptor at (0,-1,0,0)'
PUBLIC	?what@logic_error@std@@UBEPBDXZ			; std::logic_error::what
PUBLIC	??_7length_error@std@@6B@			; std::length_error::`vftable'
PUBLIC	??_Glength_error@std@@UAEPAXI@Z			; std::length_error::`scalar deleting destructor'
EXTRN	??_Elength_error@std@@UAEPAXI@Z:NEAR		; std::length_error::`vector deleting destructor'
;	COMDAT ??_7length_error@std@@6B@
CONST	SEGMENT
??_7length_error@std@@6B@ DD FLAT:??_R4length_error@std@@6B@ ; std::length_error::`vftable'
	DD	FLAT:??_Elength_error@std@@UAEPAXI@Z
	DD	FLAT:?what@logic_error@std@@UBEPBDXZ
CONST	ENDS
;	COMDAT ??_R4length_error@std@@6B@
rdata$r	SEGMENT
??_R4length_error@std@@6B@ DD 00H			; std::length_error::`RTTI Complete Object Locator'
	DD	00H
	DD	00H
	DD	FLAT:??_R0?AVlength_error@std@@@8
	DD	FLAT:??_R3length_error@std@@8
rdata$r	ENDS
;	COMDAT ??_R3length_error@std@@8
rdata$r	SEGMENT
??_R3length_error@std@@8 DD 00H				; std::length_error::`RTTI Class Hierarchy Descriptor'
	DD	00H
	DD	03H
	DD	FLAT:??_R2length_error@std@@8
rdata$r	ENDS
;	COMDAT ??_R2length_error@std@@8
rdata$r	SEGMENT
??_R2length_error@std@@8 DD FLAT:??_R1A@?0A@A@length_error@std@@8 ; std::length_error::`RTTI Base Class Array'
	DD	FLAT:??_R1A@?0A@A@logic_error@std@@8
	DD	FLAT:??_R1A@?0A@A@exception@@8
rdata$r	ENDS
;	COMDAT ??_R1A@?0A@A@length_error@std@@8
rdata$r	SEGMENT
??_R1A@?0A@A@length_error@std@@8 DD FLAT:??_R0?AVlength_error@std@@@8 ; std::length_error::`RTTI Base Class Descriptor at (0,-1,0,0)'
	DD	02H
	DD	00H
	DD	0ffffffffH
	DD	00H
	DD	00H
rdata$r	ENDS
;	COMDAT ??_R1A@?0A@A@logic_error@std@@8
rdata$r	SEGMENT
??_R1A@?0A@A@logic_error@std@@8 DD FLAT:??_R0?AVlogic_error@std@@@8 ; std::logic_error::`RTTI Base Class Descriptor at (0,-1,0,0)'
	DD	01H
	DD	00H
	DD	0ffffffffH
	DD	00H
	DD	00H
rdata$r	ENDS
;	COMDAT ??_R1A@?0A@A@exception@@8
rdata$r	SEGMENT
??_R1A@?0A@A@exception@@8 DD FLAT:??_R0?AVexception@@@8	; exception::`RTTI Base Class Descriptor at (0,-1,0,0)'
	DD	00H
	DD	00H
	DD	0ffffffffH
	DD	00H
	DD	00H
; Function compile flags: /Odt /RTCsu
rdata$r	ENDS
;	COMDAT ??0length_error@std@@QAE@ABV01@@Z
_TEXT	SEGMENT
_this$ = -4						; size = 4
___that$ = 8						; size = 4
??0length_error@std@@QAE@ABV01@@Z PROC NEAR		; std::length_error::length_error, COMDAT
; _this$ = ecx
  00000	55		 push	 ebp
  00001	8b ec		 mov	 ebp, esp
  00003	51		 push	 ecx
  00004	c7 45 fc cc cc
	cc cc		 mov	 DWORD PTR [ebp-4], -858993460 ; ccccccccH
  0000b	89 4d fc	 mov	 DWORD PTR _this$[ebp], ecx
  0000e	8b 45 08	 mov	 eax, DWORD PTR ___that$[ebp]
  00011	50		 push	 eax
  00012	8b 4d fc	 mov	 ecx, DWORD PTR _this$[ebp]
  00015	e8 00 00 00 00	 call	 ??0logic_error@std@@QAE@ABV01@@Z
  0001a	8b 4d fc	 mov	 ecx, DWORD PTR _this$[ebp]
  0001d	c7 01 00 00 00
	00		 mov	 DWORD PTR [ecx], OFFSET FLAT:??_7length_error@std@@6B@
  00023	8b 45 fc	 mov	 eax, DWORD PTR _this$[ebp]
  00026	83 c4 04	 add	 esp, 4
  00029	3b ec		 cmp	 ebp, esp
  0002b	e8 00 00 00 00	 call	 __RTC_CheckEsp
  00030	8b e5		 mov	 esp, ebp
  00032	5d		 pop	 ebp
  00033	c2 04 00	 ret	 4
??0length_error@std@@QAE@ABV01@@Z ENDP			; std::length_error::length_error
; Function compile flags: /Odt /RTCsu
; File d:\program files (x86)\microsoft visual studio .net 2003\vc7\include\xmemory
_TEXT	ENDS
;	COMDAT ?max_size@?$allocator@V?$basic_string@DU?$char_traits@D@std@@V?$allocator@D@2@@std@@@std@@QBEIXZ
_TEXT	SEGMENT
tv65 = -12						; size = 4
__Count$ = -8						; size = 4
_this$ = -4						; size = 4
?max_size@?$allocator@V?$basic_string@DU?$char_traits@D@std@@V?$allocator@D@2@@std@@@std@@QBEIXZ PROC NEAR ; std::allocator<std::basic_string<char,std::char_traits<char>,std::allocator<char> > >::max_size, COMDAT
; _this$ = ecx

; 156  : 		{	// estimate maximum array size

  00000	55		 push	 ebp
  00001	8b ec		 mov	 ebp, esp
  00003	83 ec 0c	 sub	 esp, 12			; 0000000cH
  00006	c7 45 f4 cc cc
	cc cc		 mov	 DWORD PTR [ebp-12], -858993460 ; ccccccccH
  0000d	c7 45 f8 cc cc
	cc cc		 mov	 DWORD PTR [ebp-8], -858993460 ; ccccccccH
  00014	c7 45 fc cc cc
	cc cc		 mov	 DWORD PTR [ebp-4], -858993460 ; ccccccccH
  0001b	89 4d fc	 mov	 DWORD PTR _this$[ebp], ecx

; 157  : 		_SIZT _Count = (_SIZT)(-1) / sizeof (_Ty);

  0001e	c7 45 f8 49 92
	24 09		 mov	 DWORD PTR __Count$[ebp], 153391689 ; 09249249H

; 158  : 		return (0 < _Count ? _Count : 1);

  00025	83 7d f8 00	 cmp	 DWORD PTR __Count$[ebp], 0
  00029	76 08		 jbe	 SHORT $L198371
  0002b	8b 45 f8	 mov	 eax, DWORD PTR __Count$[ebp]
  0002e	89 45 f4	 mov	 DWORD PTR tv65[ebp], eax
  00031	eb 07		 jmp	 SHORT $L198372
$L198371:
  00033	c7 45 f4 01 00
	00 00		 mov	 DWORD PTR tv65[ebp], 1
$L198372:
  0003a	8b 45 f4	 mov	 eax, DWORD PTR tv65[ebp]

; 159  : 		}

  0003d	8b e5		 mov	 esp, ebp
  0003f	5d		 pop	 ebp
  00040	c3		 ret	 0
?max_size@?$allocator@V?$basic_string@DU?$char_traits@D@std@@V?$allocator@D@2@@std@@@std@@QBEIXZ ENDP ; std::allocator<std::basic_string<char,std::char_traits<char>,std::allocator<char> > >::max_size
_TEXT	ENDS
EXTRN	??2@YAPAXI@Z:NEAR				; operator new
; Function compile flags: /Odt /RTCsu
;	COMDAT ??$_Allocate@V?$basic_string@DU?$char_traits@D@std@@V?$allocator@D@2@@std@@@std@@YAPAV?$basic_string@DU?$char_traits@D@std@@V?$allocator@D@2@@0@IPAV10@@Z
_TEXT	SEGMENT
__Count$ = 8						; size = 4
___formal$ = 12						; size = 4
??$_Allocate@V?$basic_string@DU?$char_traits@D@std@@V?$allocator@D@2@@std@@@std@@YAPAV?$basic_string@DU?$char_traits@D@std@@V?$allocator@D@2@@0@IPAV10@@Z PROC NEAR ; std::_Allocate<std::basic_string<char,std::char_traits<char>,std::allocator<char> > >, COMDAT

; 33   : 	{	// allocate storage for _Count elements of type _Ty

  00000	55		 push	 ebp
  00001	8b ec		 mov	 ebp, esp

; 34   : 	return ((_Ty _FARQ *)operator new(_Count * sizeof (_Ty)));

  00003	8b 45 08	 mov	 eax, DWORD PTR __Count$[ebp]
  00006	6b c0 1c	 imul	 eax, 28			; 0000001cH
  00009	50		 push	 eax
  0000a	e8 00 00 00 00	 call	 ??2@YAPAXI@Z		; operator new
  0000f	83 c4 04	 add	 esp, 4

; 35   : 	}

  00012	3b ec		 cmp	 ebp, esp
  00014	e8 00 00 00 00	 call	 __RTC_CheckEsp
  00019	5d		 pop	 ebp
  0001a	c3		 ret	 0
??$_Allocate@V?$basic_string@DU?$char_traits@D@std@@V?$allocator@D@2@@std@@@std@@YAPAV?$basic_string@DU?$char_traits@D@std@@V?$allocator@D@2@@0@IPAV10@@Z ENDP ; std::_Allocate<std::basic_string<char,std::char_traits<char>,std::allocator<char> > >
_TEXT	ENDS
PUBLIC	??$_Ptr_cat@PAV?$basic_string@DU?$char_traits@D@std@@V?$allocator@D@2@@std@@PAV12@@std@@YA?AU_Nonscalar_ptr_iterator_tag@0@AAPAV?$basic_string@DU?$char_traits@D@std@@V?$allocator@D@2@@0@0@Z ; std::_Ptr_cat<std::basic_string<char,std::char_traits<char>,std::allocator<char> > *,std::basic_string<char,std::char_traits<char>,std::allocator<char> > *>
PUBLIC	??$_Destroy_range@V?$basic_string@DU?$char_traits@D@std@@V?$allocator@D@2@@std@@V?$allocator@V?$basic_string@DU?$char_traits@D@std@@V?$allocator@D@2@@std@@@2@@std@@YAXPAV?$basic_string@DU?$char_traits@D@std@@V?$allocator@D@2@@0@0AAV?$allocator@V?$basic_string@DU?$char_traits@D@std@@V?$allocator@D@2@@std@@@0@U_Nonscalar_ptr_iterator_tag@0@@Z ; std::_Destroy_range<std::basic_string<char,std::char_traits<char>,std::allocator<char> >,std::allocator<std::basic_string<char,std::char_traits<char>,std::allocator<char> > > >
; Function compile flags: /Odt /RTCsu
;	COMDAT ??$_Destroy_range@V?$basic_string@DU?$char_traits@D@std@@V?$allocator@D@2@@std@@V?$allocator@V?$basic_string@DU?$char_traits@D@std@@V?$allocator@D@2@@std@@@2@@std@@YAXPAV?$basic_string@DU?$char_traits@D@std@@V?$allocator@D@2@@0@0AAV?$allocator@V?$basic_string@DU?$char_traits@D@std@@V?$allocator@D@2@@std@@@0@@Z
_TEXT	SEGMENT
$T198375 = -1						; size = 1
__First$ = 8						; size = 4
__Last$ = 12						; size = 4
__Al$ = 16						; size = 4
??$_Destroy_range@V?$basic_string@DU?$char_traits@D@std@@V?$allocator@D@2@@std@@V?$allocator@V?$basic_string@DU?$char_traits@D@std@@V?$allocator@D@2@@std@@@2@@std@@YAXPAV?$basic_string@DU?$char_traits@D@std@@V?$allocator@D@2@@0@0AAV?$allocator@V?$basic_string@DU?$char_traits@D@std@@V?$allocator@D@2@@std@@@0@@Z PROC NEAR ; std::_Destroy_range<std::basic_string<char,std::char_traits<char>,std::allocator<char> >,std::allocator<std::basic_string<char,std::char_traits<char>,std::allocator<char> > > >, COMDAT

; 216  : 	{	// destroy [_First, _Last)

  00000	55		 push	 ebp
  00001	8b ec		 mov	 ebp, esp
  00003	51		 push	 ecx
  00004	c7 45 fc cc cc
	cc cc		 mov	 DWORD PTR [ebp-4], -858993460 ; ccccccccH

; 217  : 	_Destroy_range(_First, _Last, _Al, _Ptr_cat(_First, _Last));

  0000b	8d 45 0c	 lea	 eax, DWORD PTR __Last$[ebp]
  0000e	50		 push	 eax
  0000f	8d 4d 08	 lea	 ecx, DWORD PTR __First$[ebp]
  00012	51		 push	 ecx
  00013	e8 00 00 00 00	 call	 ??$_Ptr_cat@PAV?$basic_string@DU?$char_traits@D@std@@V?$allocator@D@2@@std@@PAV12@@std@@YA?AU_Nonscalar_ptr_iterator_tag@0@AAPAV?$basic_string@DU?$char_traits@D@std@@V?$allocator@D@2@@0@0@Z ; std::_Ptr_cat<std::basic_string<char,std::char_traits<char>,std::allocator<char> > *,std::basic_string<char,std::char_traits<char>,std::allocator<char> > *>
  00018	83 c4 08	 add	 esp, 8
  0001b	88 45 ff	 mov	 BYTE PTR $T198375[ebp], al
  0001e	8a 55 ff	 mov	 dl, BYTE PTR $T198375[ebp]
  00021	52		 push	 edx
  00022	8b 45 10	 mov	 eax, DWORD PTR __Al$[ebp]
  00025	50		 push	 eax
  00026	8b 4d 0c	 mov	 ecx, DWORD PTR __Last$[ebp]
  00029	51		 push	 ecx
  0002a	8b 55 08	 mov	 edx, DWORD PTR __First$[ebp]
  0002d	52		 push	 edx
  0002e	e8 00 00 00 00	 call	 ??$_Destroy_range@V?$basic_string@DU?$char_traits@D@std@@V?$allocator@D@2@@std@@V?$allocator@V?$basic_string@DU?$char_traits@D@std@@V?$allocator@D@2@@std@@@2@@std@@YAXPAV?$basic_string@DU?$char_traits@D@std@@V?$allocator@D@2@@0@0AAV?$allocator@V?$basic_string@DU?$char_traits@D@std@@V?$allocator@D@2@@std@@@0@U_Nonscalar_ptr_iterator_tag@0@@Z ; std::_Destroy_range<std::basic_string<char,std::char_traits<char>,std::allocator<char> >,std::allocator<std::basic_string<char,std::char_traits<char>,std::allocator<char> > > >
  00033	83 c4 10	 add	 esp, 16			; 00000010H

; 218  : 	}

  00036	83 c4 04	 add	 esp, 4
  00039	3b ec		 cmp	 ebp, esp
  0003b	e8 00 00 00 00	 call	 __RTC_CheckEsp
  00040	8b e5		 mov	 esp, ebp
  00042	5d		 pop	 ebp
  00043	c3		 ret	 0
??$_Destroy_range@V?$basic_string@DU?$char_traits@D@std@@V?$allocator@D@2@@std@@V?$allocator@V?$basic_string@DU?$char_traits@D@std@@V?$allocator@D@2@@std@@@2@@std@@YAXPAV?$basic_string@DU?$char_traits@D@std@@V?$allocator@D@2@@0@0AAV?$allocator@V?$basic_string@DU?$char_traits@D@std@@V?$allocator@D@2@@std@@@0@@Z ENDP ; std::_Destroy_range<std::basic_string<char,std::char_traits<char>,std::allocator<char> >,std::allocator<std::basic_string<char,std::char_traits<char>,std::allocator<char> > > >
; Function compile flags: /Odt /RTCsu
; File d:\program files (x86)\microsoft visual studio .net 2003\vc7\include\xutility
_TEXT	ENDS
;	COMDAT ??$_Ptr_cat@PAV?$basic_string@DU?$char_traits@D@std@@V?$allocator@D@2@@std@@PAV12@@std@@YA?AU_Nonscalar_ptr_iterator_tag@0@AAPAV?$basic_string@DU?$char_traits@D@std@@V?$allocator@D@2@@0@0@Z
_TEXT	SEGMENT
__Cat$ = -5						; size = 1
___formal$ = 8						; size = 4
___formal$ = 12						; size = 4
??$_Ptr_cat@PAV?$basic_string@DU?$char_traits@D@std@@V?$allocator@D@2@@std@@PAV12@@std@@YA?AU_Nonscalar_ptr_iterator_tag@0@AAPAV?$basic_string@DU?$char_traits@D@std@@V?$allocator@D@2@@0@0@Z PROC NEAR ; std::_Ptr_cat<std::basic_string<char,std::char_traits<char>,std::allocator<char> > *,std::basic_string<char,std::char_traits<char>,std::allocator<char> > *>, COMDAT

; 211  : 	{	// return pointer category from arbitrary arguments

  00000	55		 push	 ebp
  00001	8b ec		 mov	 ebp, esp
  00003	83 ec 0c	 sub	 esp, 12			; 0000000cH
  00006	c7 45 f4 cc cc
	cc cc		 mov	 DWORD PTR [ebp-12], -858993460 ; ccccccccH
  0000d	c7 45 f8 cc cc
	cc cc		 mov	 DWORD PTR [ebp-8], -858993460 ; ccccccccH
  00014	c7 45 fc cc cc
	cc cc		 mov	 DWORD PTR [ebp-4], -858993460 ; ccccccccH

; 212  : 	_Nonscalar_ptr_iterator_tag _Cat;
; 213  : 	return (_Cat);

  0001b	8a 45 fb	 mov	 al, BYTE PTR __Cat$[ebp]

; 214  : 	}

  0001e	52		 push	 edx
  0001f	8b cd		 mov	 ecx, ebp
  00021	50		 push	 eax
  00022	8d 15 00 00 00
	00		 lea	 edx, DWORD PTR $L198379
  00028	e8 00 00 00 00	 call	 @_RTC_CheckStackVars@8
  0002d	58		 pop	 eax
  0002e	5a		 pop	 edx
  0002f	8b e5		 mov	 esp, ebp
  00031	5d		 pop	 ebp
  00032	c3		 ret	 0
$L198379:
  00033	01 00 00 00	 DD	 1
  00037	00 00 00 00	 DD	 $L198378
$L198378:
  0003b	fb ff ff ff	 DD	 -5			; fffffffbH
  0003f	01 00 00 00	 DD	 1
  00043	00 00 00 00	 DD	 $L198377
$L198377:
  00047	5f		 DB	 95			; 0000005fH
  00048	43		 DB	 67			; 00000043H
  00049	61		 DB	 97			; 00000061H
  0004a	74		 DB	 116			; 00000074H
  0004b	00		 DB	 0
??$_Ptr_cat@PAV?$basic_string@DU?$char_traits@D@std@@V?$allocator@D@2@@std@@PAV12@@std@@YA?AU_Nonscalar_ptr_iterator_tag@0@AAPAV?$basic_string@DU?$char_traits@D@std@@V?$allocator@D@2@@0@0@Z ENDP ; std::_Ptr_cat<std::basic_string<char,std::char_traits<char>,std::allocator<char> > *,std::basic_string<char,std::char_traits<char>,std::allocator<char> > *>
_TEXT	ENDS
PUBLIC	?destroy@?$allocator@V?$basic_string@DU?$char_traits@D@std@@V?$allocator@D@2@@std@@@std@@QAEXPAV?$basic_string@DU?$char_traits@D@std@@V?$allocator@D@2@@2@@Z ; std::allocator<std::basic_string<char,std::char_traits<char>,std::allocator<char> > >::destroy
; Function compile flags: /Odt /RTCsu
; File d:\program files (x86)\microsoft visual studio .net 2003\vc7\include\xmemory
;	COMDAT ??$_Destroy_range@V?$basic_string@DU?$char_traits@D@std@@V?$allocator@D@2@@std@@V?$allocator@V?$basic_string@DU?$char_traits@D@std@@V?$allocator@D@2@@std@@@2@@std@@YAXPAV?$basic_string@DU?$char_traits@D@std@@V?$allocator@D@2@@0@0AAV?$allocator@V?$basic_string@DU?$char_traits@D@std@@V?$allocator@D@2@@std@@@0@U_Nonscalar_ptr_iterator_tag@0@@Z
_TEXT	SEGMENT
__First$ = 8						; size = 4
__Last$ = 12						; size = 4
__Al$ = 16						; size = 4
___formal$ = 20						; size = 1
??$_Destroy_range@V?$basic_string@DU?$char_traits@D@std@@V?$allocator@D@2@@std@@V?$allocator@V?$basic_string@DU?$char_traits@D@std@@V?$allocator@D@2@@std@@@2@@std@@YAXPAV?$basic_string@DU?$char_traits@D@std@@V?$allocator@D@2@@0@0AAV?$allocator@V?$basic_string@DU?$char_traits@D@std@@V?$allocator@D@2@@std@@@0@U_Nonscalar_ptr_iterator_tag@0@@Z PROC NEAR ; std::_Destroy_range<std::basic_string<char,std::char_traits<char>,std::allocator<char> >,std::allocator<std::basic_string<char,std::char_traits<char>,std::allocator<char> > > >, COMDAT

; 224  : 	{	// destroy [_First, _Last), arbitrary type

  00000	55		 push	 ebp
  00001	8b ec		 mov	 ebp, esp

; 225  : 	for (; _First != _Last; ++_First)

  00003	eb 09		 jmp	 SHORT $L197085
$L197086:
  00005	8b 45 08	 mov	 eax, DWORD PTR __First$[ebp]
  00008	83 c0 1c	 add	 eax, 28			; 0000001cH
  0000b	89 45 08	 mov	 DWORD PTR __First$[ebp], eax
$L197085:
  0000e	8b 4d 08	 mov	 ecx, DWORD PTR __First$[ebp]
  00011	3b 4d 0c	 cmp	 ecx, DWORD PTR __Last$[ebp]
  00014	74 0e		 je	 SHORT $L197084

; 226  : 		_Al.destroy(_First);

  00016	8b 55 08	 mov	 edx, DWORD PTR __First$[ebp]
  00019	52		 push	 edx
  0001a	8b 4d 10	 mov	 ecx, DWORD PTR __Al$[ebp]
  0001d	e8 00 00 00 00	 call	 ?destroy@?$allocator@V?$basic_string@DU?$char_traits@D@std@@V?$allocator@D@2@@std@@@std@@QAEXPAV?$basic_string@DU?$char_traits@D@std@@V?$allocator@D@2@@2@@Z ; std::allocator<std::basic_string<char,std::char_traits<char>,std::allocator<char> > >::destroy
  00022	eb e1		 jmp	 SHORT $L197086
$L197084:

; 227  : 	}

  00024	3b ec		 cmp	 ebp, esp
  00026	e8 00 00 00 00	 call	 __RTC_CheckEsp
  0002b	5d		 pop	 ebp
  0002c	c3		 ret	 0
??$_Destroy_range@V?$basic_string@DU?$char_traits@D@std@@V?$allocator@D@2@@std@@V?$allocator@V?$basic_string@DU?$char_traits@D@std@@V?$allocator@D@2@@std@@@2@@std@@YAXPAV?$basic_string@DU?$char_traits@D@std@@V?$allocator@D@2@@0@0AAV?$allocator@V?$basic_string@DU?$char_traits@D@std@@V?$allocator@D@2@@std@@@0@U_Nonscalar_ptr_iterator_tag@0@@Z ENDP ; std::_Destroy_range<std::basic_string<char,std::char_traits<char>,std::allocator<char> >,std::allocator<std::basic_string<char,std::char_traits<char>,std::allocator<char> > > >
_TEXT	ENDS
PUBLIC	??$_Destroy@V?$basic_string@DU?$char_traits@D@std@@V?$allocator@D@2@@std@@@std@@YAXPAV?$basic_string@DU?$char_traits@D@std@@V?$allocator@D@2@@0@@Z ; std::_Destroy<std::basic_string<char,std::char_traits<char>,std::allocator<char> > >
; Function compile flags: /Odt /RTCsu
;	COMDAT ?destroy@?$allocator@V?$basic_string@DU?$char_traits@D@std@@V?$allocator@D@2@@std@@@std@@QAEXPAV?$basic_string@DU?$char_traits@D@std@@V?$allocator@D@2@@2@@Z
_TEXT	SEGMENT
_this$ = -4						; size = 4
__Ptr$ = 8						; size = 4
?destroy@?$allocator@V?$basic_string@DU?$char_traits@D@std@@V?$allocator@D@2@@std@@@std@@QAEXPAV?$basic_string@DU?$char_traits@D@std@@V?$allocator@D@2@@2@@Z PROC NEAR ; std::allocator<std::basic_string<char,std::char_traits<char>,std::allocator<char> > >::destroy, COMDAT
; _this$ = ecx

; 151  : 		{	// destroy object at _Ptr

  00000	55		 push	 ebp
  00001	8b ec		 mov	 ebp, esp
  00003	51		 push	 ecx
  00004	c7 45 fc cc cc
	cc cc		 mov	 DWORD PTR [ebp-4], -858993460 ; ccccccccH
  0000b	89 4d fc	 mov	 DWORD PTR _this$[ebp], ecx

; 152  : 		_Destroy(_Ptr);

  0000e	8b 45 08	 mov	 eax, DWORD PTR __Ptr$[ebp]
  00011	50		 push	 eax
  00012	e8 00 00 00 00	 call	 ??$_Destroy@V?$basic_string@DU?$char_traits@D@std@@V?$allocator@D@2@@std@@@std@@YAXPAV?$basic_string@DU?$char_traits@D@std@@V?$allocator@D@2@@0@@Z ; std::_Destroy<std::basic_string<char,std::char_traits<char>,std::allocator<char> > >
  00017	83 c4 04	 add	 esp, 4

; 153  : 		}

  0001a	83 c4 04	 add	 esp, 4
  0001d	3b ec		 cmp	 ebp, esp
  0001f	e8 00 00 00 00	 call	 __RTC_CheckEsp
  00024	8b e5		 mov	 esp, ebp
  00026	5d		 pop	 ebp
  00027	c2 04 00	 ret	 4
?destroy@?$allocator@V?$basic_string@DU?$char_traits@D@std@@V?$allocator@D@2@@std@@@std@@QAEXPAV?$basic_string@DU?$char_traits@D@std@@V?$allocator@D@2@@2@@Z ENDP ; std::allocator<std::basic_string<char,std::char_traits<char>,std::allocator<char> > >::destroy
_TEXT	ENDS
PUBLIC	??_G?$basic_string@DU?$char_traits@D@std@@V?$allocator@D@2@@std@@QAEPAXI@Z ; std::basic_string<char,std::char_traits<char>,std::allocator<char> >::`scalar deleting destructor'
; Function compile flags: /Odt /RTCsu
;	COMDAT ??$_Destroy@V?$basic_string@DU?$char_traits@D@std@@V?$allocator@D@2@@std@@@std@@YAXPAV?$basic_string@DU?$char_traits@D@std@@V?$allocator@D@2@@0@@Z
_TEXT	SEGMENT
__Ptr$ = 8						; size = 4
??$_Destroy@V?$basic_string@DU?$char_traits@D@std@@V?$allocator@D@2@@std@@@std@@YAXPAV?$basic_string@DU?$char_traits@D@std@@V?$allocator@D@2@@0@@Z PROC NEAR ; std::_Destroy<std::basic_string<char,std::char_traits<char>,std::allocator<char> > >, COMDAT

; 48   : 	{	// destroy object at _Ptr

  00000	55		 push	 ebp
  00001	8b ec		 mov	 ebp, esp

; 49   : 	_DESTRUCTOR(_Ty, _Ptr);

  00003	6a 00		 push	 0
  00005	8b 4d 08	 mov	 ecx, DWORD PTR __Ptr$[ebp]
  00008	e8 00 00 00 00	 call	 ??_G?$basic_string@DU?$char_traits@D@std@@V?$allocator@D@2@@std@@QAEPAXI@Z

; 50   : 	}

  0000d	3b ec		 cmp	 ebp, esp
  0000f	e8 00 00 00 00	 call	 __RTC_CheckEsp
  00014	5d		 pop	 ebp
  00015	c3		 ret	 0
??$_Destroy@V?$basic_string@DU?$char_traits@D@std@@V?$allocator@D@2@@std@@@std@@YAXPAV?$basic_string@DU?$char_traits@D@std@@V?$allocator@D@2@@0@@Z ENDP ; std::_Destroy<std::basic_string<char,std::char_traits<char>,std::allocator<char> > >
; Function compile flags: /Odt /RTCsu
_TEXT	ENDS
;	COMDAT ??_G?$basic_string@DU?$char_traits@D@std@@V?$allocator@D@2@@std@@QAEPAXI@Z
_TEXT	SEGMENT
_this$ = -4						; size = 4
___flags$ = 8						; size = 4
??_G?$basic_string@DU?$char_traits@D@std@@V?$allocator@D@2@@std@@QAEPAXI@Z PROC NEAR ; std::basic_string<char,std::char_traits<char>,std::allocator<char> >::`scalar deleting destructor', COMDAT
; _this$ = ecx
  00000	55		 push	 ebp
  00001	8b ec		 mov	 ebp, esp
  00003	51		 push	 ecx
  00004	56		 push	 esi
  00005	c7 45 fc cc cc
	cc cc		 mov	 DWORD PTR [ebp-4], -858993460 ; ccccccccH
  0000c	89 4d fc	 mov	 DWORD PTR _this$[ebp], ecx
  0000f	8b f4		 mov	 esi, esp
  00011	8b 4d fc	 mov	 ecx, DWORD PTR _this$[ebp]
  00014	ff 15 00 00 00
	00		 call	 DWORD PTR __imp_??1?$basic_string@DU?$char_traits@D@std@@V?$allocator@D@2@@std@@QAE@XZ
  0001a	3b f4		 cmp	 esi, esp
  0001c	e8 00 00 00 00	 call	 __RTC_CheckEsp
  00021	8b 45 08	 mov	 eax, DWORD PTR ___flags$[ebp]
  00024	83 e0 01	 and	 eax, 1
  00027	74 0c		 je	 SHORT $L197098
  00029	8b 4d fc	 mov	 ecx, DWORD PTR _this$[ebp]
  0002c	51		 push	 ecx
  0002d	e8 00 00 00 00	 call	 ??3@YAXPAX@Z		; operator delete
  00032	83 c4 04	 add	 esp, 4
$L197098:
  00035	8b 45 fc	 mov	 eax, DWORD PTR _this$[ebp]
  00038	5e		 pop	 esi
  00039	83 c4 04	 add	 esp, 4
  0003c	3b ec		 cmp	 ebp, esp
  0003e	e8 00 00 00 00	 call	 __RTC_CheckEsp
  00043	8b e5		 mov	 esp, ebp
  00045	5d		 pop	 ebp
  00046	c2 04 00	 ret	 4
??_G?$basic_string@DU?$char_traits@D@std@@V?$allocator@D@2@@std@@QAEPAXI@Z ENDP ; std::basic_string<char,std::char_traits<char>,std::allocator<char> >::`scalar deleting destructor'
; Function compile flags: /Odt /RTCsu
_TEXT	ENDS
;	COMDAT ??_ECTopPanelWnd@@WFE@AEPAXI@Z
_TEXT	SEGMENT
??_ECTopPanelWnd@@WFE@AEPAXI@Z PROC NEAR		; [thunk]:CTopPanelWnd::`vector deleting destructor', COMDAT
  00000	83 e9 54	 sub	 ecx, 84			; 00000054H
  00003	e9 00 00 00 00	 jmp	 ??_ECTopPanelWnd@@UAEPAXI@Z
??_ECTopPanelWnd@@WFE@AEPAXI@Z ENDP			; [thunk]:CTopPanelWnd::`vector deleting destructor'
; Function compile flags: /Odt /RTCsu
_TEXT	ENDS
;	COMDAT ??_ECTopPanelWnd@@WFI@AEPAXI@Z
_TEXT	SEGMENT
??_ECTopPanelWnd@@WFI@AEPAXI@Z PROC NEAR		; [thunk]:CTopPanelWnd::`vector deleting destructor', COMDAT
  00000	83 e9 58	 sub	 ecx, 88			; 00000058H
  00003	e9 00 00 00 00	 jmp	 ??_ECTopPanelWnd@@UAEPAXI@Z
??_ECTopPanelWnd@@WFI@AEPAXI@Z ENDP			; [thunk]:CTopPanelWnd::`vector deleting destructor'
_TEXT	ENDS
EXTRN	__imp_?c_str@?$basic_string@DU?$char_traits@D@std@@V?$allocator@D@2@@std@@QBEPBDXZ:NEAR
; Function compile flags: /Odt /RTCsu
; File d:\program files (x86)\microsoft visual studio .net 2003\vc7\include\stdexcept
;	COMDAT ?what@logic_error@std@@UBEPBDXZ
_TEXT	SEGMENT
_this$ = -4						; size = 4
?what@logic_error@std@@UBEPBDXZ PROC NEAR		; std::logic_error::what, COMDAT
; _this$ = ecx

; 26   : 		{	// return pointer to message string

  00000	55		 push	 ebp
  00001	8b ec		 mov	 ebp, esp
  00003	51		 push	 ecx
  00004	56		 push	 esi
  00005	c7 45 fc cc cc
	cc cc		 mov	 DWORD PTR [ebp-4], -858993460 ; ccccccccH
  0000c	89 4d fc	 mov	 DWORD PTR _this$[ebp], ecx

; 27   : 		return (_Str.c_str());

  0000f	8b 4d fc	 mov	 ecx, DWORD PTR _this$[ebp]
  00012	83 c1 0c	 add	 ecx, 12			; 0000000cH
  00015	8b f4		 mov	 esi, esp
  00017	ff 15 00 00 00
	00		 call	 DWORD PTR __imp_?c_str@?$basic_string@DU?$char_traits@D@std@@V?$allocator@D@2@@std@@QBEPBDXZ
  0001d	3b f4		 cmp	 esi, esp
  0001f	e8 00 00 00 00	 call	 __RTC_CheckEsp

; 28   : 		}

  00024	5e		 pop	 esi
  00025	83 c4 04	 add	 esp, 4
  00028	3b ec		 cmp	 ebp, esp
  0002a	e8 00 00 00 00	 call	 __RTC_CheckEsp
  0002f	8b e5		 mov	 esp, ebp
  00031	5d		 pop	 ebp
  00032	c3		 ret	 0
?what@logic_error@std@@UBEPBDXZ ENDP			; std::logic_error::what
_TEXT	ENDS
PUBLIC	??0logic_error@std@@QAE@ABV?$basic_string@DU?$char_traits@D@std@@V?$allocator@D@2@@1@@Z ; std::logic_error::logic_error
; Function compile flags: /Odt /RTCsu
;	COMDAT ??0length_error@std@@QAE@ABV?$basic_string@DU?$char_traits@D@std@@V?$allocator@D@2@@1@@Z
_TEXT	SEGMENT
_this$ = -4						; size = 4
__Message$ = 8						; size = 4
??0length_error@std@@QAE@ABV?$basic_string@DU?$char_traits@D@std@@V?$allocator@D@2@@1@@Z PROC NEAR ; std::length_error::length_error, COMDAT
; _this$ = ecx

; 95   : 		{	// construct from message string

  00000	55		 push	 ebp
  00001	8b ec		 mov	 ebp, esp
  00003	51		 push	 ecx
  00004	c7 45 fc cc cc
	cc cc		 mov	 DWORD PTR [ebp-4], -858993460 ; ccccccccH
  0000b	89 4d fc	 mov	 DWORD PTR _this$[ebp], ecx
  0000e	8b 45 08	 mov	 eax, DWORD PTR __Message$[ebp]
  00011	50		 push	 eax
  00012	8b 4d fc	 mov	 ecx, DWORD PTR _this$[ebp]
  00015	e8 00 00 00 00	 call	 ??0logic_error@std@@QAE@ABV?$basic_string@DU?$char_traits@D@std@@V?$allocator@D@2@@1@@Z ; std::logic_error::logic_error
  0001a	8b 4d fc	 mov	 ecx, DWORD PTR _this$[ebp]
  0001d	c7 01 00 00 00
	00		 mov	 DWORD PTR [ecx], OFFSET FLAT:??_7length_error@std@@6B@

; 96   : 		}

  00023	8b 45 fc	 mov	 eax, DWORD PTR _this$[ebp]
  00026	83 c4 04	 add	 esp, 4
  00029	3b ec		 cmp	 ebp, esp
  0002b	e8 00 00 00 00	 call	 __RTC_CheckEsp
  00030	8b e5		 mov	 esp, ebp
  00032	5d		 pop	 ebp
  00033	c2 04 00	 ret	 4
??0length_error@std@@QAE@ABV?$basic_string@DU?$char_traits@D@std@@V?$allocator@D@2@@1@@Z ENDP ; std::length_error::length_error
_TEXT	ENDS
PUBLIC	??_7logic_error@std@@6B@			; std::logic_error::`vftable'
PUBLIC	??_Glogic_error@std@@UAEPAXI@Z			; std::logic_error::`scalar deleting destructor'
PUBLIC	??_R4logic_error@std@@6B@			; std::logic_error::`RTTI Complete Object Locator'
PUBLIC	??_R3logic_error@std@@8				; std::logic_error::`RTTI Class Hierarchy Descriptor'
PUBLIC	??_R2logic_error@std@@8				; std::logic_error::`RTTI Base Class Array'
EXTRN	__imp_??0exception@@QAE@XZ:NEAR
EXTRN	__imp_??1exception@@UAE@XZ:NEAR
EXTRN	__imp_??0?$basic_string@DU?$char_traits@D@std@@V?$allocator@D@2@@std@@QAE@ABV01@@Z:NEAR
EXTRN	??_Elogic_error@std@@UAEPAXI@Z:NEAR		; std::logic_error::`vector deleting destructor'
;	COMDAT xdata$x
xdata$x	SEGMENT
$T198395 DD	0ffffffffH
	DD	FLAT:$L198390
$T198393 DD	019930520H
	DD	01H
	DD	FLAT:$T198395
	DD	2 DUP(00H)
	DD	2 DUP(00H)
xdata$x	ENDS
;	COMDAT ??_7logic_error@std@@6B@
CONST	SEGMENT
??_7logic_error@std@@6B@ DD FLAT:??_R4logic_error@std@@6B@ ; std::logic_error::`vftable'
	DD	FLAT:??_Elogic_error@std@@UAEPAXI@Z
	DD	FLAT:?what@logic_error@std@@UBEPBDXZ
CONST	ENDS
;	COMDAT ??_R4logic_error@std@@6B@
rdata$r	SEGMENT
??_R4logic_error@std@@6B@ DD 00H			; std::logic_error::`RTTI Complete Object Locator'
	DD	00H
	DD	00H
	DD	FLAT:??_R0?AVlogic_error@std@@@8
	DD	FLAT:??_R3logic_error@std@@8
rdata$r	ENDS
;	COMDAT ??_R3logic_error@std@@8
rdata$r	SEGMENT
??_R3logic_error@std@@8 DD 00H				; std::logic_error::`RTTI Class Hierarchy Descriptor'
	DD	00H
	DD	02H
	DD	FLAT:??_R2logic_error@std@@8
rdata$r	ENDS
;	COMDAT ??_R2logic_error@std@@8
rdata$r	SEGMENT
??_R2logic_error@std@@8 DD FLAT:??_R1A@?0A@A@logic_error@std@@8 ; std::logic_error::`RTTI Base Class Array'
	DD	FLAT:??_R1A@?0A@A@exception@@8
; Function compile flags: /Odt /RTCsu
rdata$r	ENDS
;	COMDAT ??0logic_error@std@@QAE@ABV?$basic_string@DU?$char_traits@D@std@@V?$allocator@D@2@@1@@Z
_TEXT	SEGMENT
_this$ = -16						; size = 4
__$EHRec$ = -12						; size = 12
__Message$ = 8						; size = 4
??0logic_error@std@@QAE@ABV?$basic_string@DU?$char_traits@D@std@@V?$allocator@D@2@@1@@Z PROC NEAR ; std::logic_error::logic_error, COMDAT
; _this$ = ecx

; 19   : 		{	// construct from message string

  00000	55		 push	 ebp
  00001	8b ec		 mov	 ebp, esp
  00003	6a ff		 push	 -1
  00005	68 00 00 00 00	 push	 __ehhandler$??0logic_error@std@@QAE@ABV?$basic_string@DU?$char_traits@D@std@@V?$allocator@D@2@@1@@Z
  0000a	64 a1 00 00 00
	00		 mov	 eax, DWORD PTR fs:__except_list
  00010	50		 push	 eax
  00011	64 89 25 00 00
	00 00		 mov	 DWORD PTR fs:__except_list, esp
  00018	51		 push	 ecx
  00019	56		 push	 esi
  0001a	c7 45 f0 cc cc
	cc cc		 mov	 DWORD PTR [ebp-16], -858993460 ; ccccccccH
  00021	89 4d f0	 mov	 DWORD PTR _this$[ebp], ecx
  00024	8b f4		 mov	 esi, esp
  00026	8b 4d f0	 mov	 ecx, DWORD PTR _this$[ebp]
  00029	ff 15 00 00 00
	00		 call	 DWORD PTR __imp_??0exception@@QAE@XZ
  0002f	3b f4		 cmp	 esi, esp
  00031	e8 00 00 00 00	 call	 __RTC_CheckEsp
  00036	c7 45 fc 00 00
	00 00		 mov	 DWORD PTR __$EHRec$[ebp+8], 0
  0003d	8b 45 f0	 mov	 eax, DWORD PTR _this$[ebp]
  00040	c7 00 00 00 00
	00		 mov	 DWORD PTR [eax], OFFSET FLAT:??_7logic_error@std@@6B@
  00046	8b f4		 mov	 esi, esp
  00048	8b 4d 08	 mov	 ecx, DWORD PTR __Message$[ebp]
  0004b	51		 push	 ecx
  0004c	8b 4d f0	 mov	 ecx, DWORD PTR _this$[ebp]
  0004f	83 c1 0c	 add	 ecx, 12			; 0000000cH
  00052	ff 15 00 00 00
	00		 call	 DWORD PTR __imp_??0?$basic_string@DU?$char_traits@D@std@@V?$allocator@D@2@@std@@QAE@ABV01@@Z
  00058	3b f4		 cmp	 esi, esp
  0005a	e8 00 00 00 00	 call	 __RTC_CheckEsp

; 20   : 		}

  0005f	c7 45 fc ff ff
	ff ff		 mov	 DWORD PTR __$EHRec$[ebp+8], -1
  00066	8b 45 f0	 mov	 eax, DWORD PTR _this$[ebp]
  00069	8b 4d f4	 mov	 ecx, DWORD PTR __$EHRec$[ebp]
  0006c	64 89 0d 00 00
	00 00		 mov	 DWORD PTR fs:__except_list, ecx
  00073	5e		 pop	 esi
  00074	83 c4 10	 add	 esp, 16			; 00000010H
  00077	3b ec		 cmp	 ebp, esp
  00079	e8 00 00 00 00	 call	 __RTC_CheckEsp
  0007e	8b e5		 mov	 esp, ebp
  00080	5d		 pop	 ebp
  00081	c2 04 00	 ret	 4
_TEXT	ENDS
;	COMDAT text$x
text$x	SEGMENT
$L198390:
  00000	8b f4		 mov	 esi, esp
  00002	8b 4d f0	 mov	 ecx, DWORD PTR _this$[ebp]
  00005	ff 15 00 00 00
	00		 call	 DWORD PTR __imp_??1exception@@UAE@XZ
  0000b	3b f4		 cmp	 esi, esp
  0000d	e9 00 00 00 00	 jmp	 __RTC_CheckEsp
__ehhandler$??0logic_error@std@@QAE@ABV?$basic_string@DU?$char_traits@D@std@@V?$allocator@D@2@@1@@Z:
  00012	b8 00 00 00 00	 mov	 eax, OFFSET FLAT:$T198393
  00017	e9 00 00 00 00	 jmp	 ___CxxFrameHandler
text$x	ENDS
??0logic_error@std@@QAE@ABV?$basic_string@DU?$char_traits@D@std@@V?$allocator@D@2@@1@@Z ENDP ; std::logic_error::logic_error
PUBLIC	??1logic_error@std@@UAE@XZ			; std::logic_error::~logic_error
; Function compile flags: /Odt /RTCsu
;	COMDAT ??_Glogic_error@std@@UAEPAXI@Z
_TEXT	SEGMENT
_this$ = -4						; size = 4
___flags$ = 8						; size = 4
??_Glogic_error@std@@UAEPAXI@Z PROC NEAR		; std::logic_error::`scalar deleting destructor', COMDAT
; _this$ = ecx
  00000	55		 push	 ebp
  00001	8b ec		 mov	 ebp, esp
  00003	51		 push	 ecx
  00004	c7 45 fc cc cc
	cc cc		 mov	 DWORD PTR [ebp-4], -858993460 ; ccccccccH
  0000b	89 4d fc	 mov	 DWORD PTR _this$[ebp], ecx
  0000e	8b 4d fc	 mov	 ecx, DWORD PTR _this$[ebp]
  00011	e8 00 00 00 00	 call	 ??1logic_error@std@@UAE@XZ ; std::logic_error::~logic_error
  00016	8b 45 08	 mov	 eax, DWORD PTR ___flags$[ebp]
  00019	83 e0 01	 and	 eax, 1
  0001c	74 0c		 je	 SHORT $L91647
  0001e	8b 4d fc	 mov	 ecx, DWORD PTR _this$[ebp]
  00021	51		 push	 ecx
  00022	e8 00 00 00 00	 call	 ??3@YAXPAX@Z		; operator delete
  00027	83 c4 04	 add	 esp, 4
$L91647:
  0002a	8b 45 fc	 mov	 eax, DWORD PTR _this$[ebp]
  0002d	83 c4 04	 add	 esp, 4
  00030	3b ec		 cmp	 ebp, esp
  00032	e8 00 00 00 00	 call	 __RTC_CheckEsp
  00037	8b e5		 mov	 esp, ebp
  00039	5d		 pop	 ebp
  0003a	c2 04 00	 ret	 4
??_Glogic_error@std@@UAEPAXI@Z ENDP			; std::logic_error::`scalar deleting destructor'
_TEXT	ENDS
;	COMDAT xdata$x
xdata$x	SEGMENT
$T198405 DD	0ffffffffH
	DD	FLAT:$L198400
$T198403 DD	019930520H
	DD	01H
	DD	FLAT:$T198405
	DD	2 DUP(00H)
	DD	2 DUP(00H)
; Function compile flags: /Odt /RTCsu
xdata$x	ENDS
;	COMDAT ??1logic_error@std@@UAE@XZ
_TEXT	SEGMENT
_this$ = -16						; size = 4
__$EHRec$ = -12						; size = 12
??1logic_error@std@@UAE@XZ PROC NEAR			; std::logic_error::~logic_error, COMDAT
; _this$ = ecx

; 23   : 		{}	// destroy the object

  00000	55		 push	 ebp
  00001	8b ec		 mov	 ebp, esp
  00003	6a ff		 push	 -1
  00005	68 00 00 00 00	 push	 __ehhandler$??1logic_error@std@@UAE@XZ
  0000a	64 a1 00 00 00
	00		 mov	 eax, DWORD PTR fs:__except_list
  00010	50		 push	 eax
  00011	64 89 25 00 00
	00 00		 mov	 DWORD PTR fs:__except_list, esp
  00018	51		 push	 ecx
  00019	56		 push	 esi
  0001a	c7 45 f0 cc cc
	cc cc		 mov	 DWORD PTR [ebp-16], -858993460 ; ccccccccH
  00021	89 4d f0	 mov	 DWORD PTR _this$[ebp], ecx
  00024	8b 45 f0	 mov	 eax, DWORD PTR _this$[ebp]
  00027	c7 00 00 00 00
	00		 mov	 DWORD PTR [eax], OFFSET FLAT:??_7logic_error@std@@6B@
  0002d	c7 45 fc 00 00
	00 00		 mov	 DWORD PTR __$EHRec$[ebp+8], 0
  00034	8b 4d f0	 mov	 ecx, DWORD PTR _this$[ebp]
  00037	83 c1 0c	 add	 ecx, 12			; 0000000cH
  0003a	8b f4		 mov	 esi, esp
  0003c	ff 15 00 00 00
	00		 call	 DWORD PTR __imp_??1?$basic_string@DU?$char_traits@D@std@@V?$allocator@D@2@@std@@QAE@XZ
  00042	3b f4		 cmp	 esi, esp
  00044	e8 00 00 00 00	 call	 __RTC_CheckEsp
  00049	c7 45 fc ff ff
	ff ff		 mov	 DWORD PTR __$EHRec$[ebp+8], -1
  00050	8b f4		 mov	 esi, esp
  00052	8b 4d f0	 mov	 ecx, DWORD PTR _this$[ebp]
  00055	ff 15 00 00 00
	00		 call	 DWORD PTR __imp_??1exception@@UAE@XZ
  0005b	3b f4		 cmp	 esi, esp
  0005d	e8 00 00 00 00	 call	 __RTC_CheckEsp
  00062	8b 4d f4	 mov	 ecx, DWORD PTR __$EHRec$[ebp]
  00065	64 89 0d 00 00
	00 00		 mov	 DWORD PTR fs:__except_list, ecx
  0006c	5e		 pop	 esi
  0006d	83 c4 10	 add	 esp, 16			; 00000010H
  00070	3b ec		 cmp	 ebp, esp
  00072	e8 00 00 00 00	 call	 __RTC_CheckEsp
  00077	8b e5		 mov	 esp, ebp
  00079	5d		 pop	 ebp
  0007a	c3		 ret	 0
_TEXT	ENDS
;	COMDAT text$x
text$x	SEGMENT
$L198400:
  00000	8b f4		 mov	 esi, esp
  00002	8b 4d f0	 mov	 ecx, DWORD PTR _this$[ebp]
  00005	ff 15 00 00 00
	00		 call	 DWORD PTR __imp_??1exception@@UAE@XZ
  0000b	3b f4		 cmp	 esi, esp
  0000d	e9 00 00 00 00	 jmp	 __RTC_CheckEsp
__ehhandler$??1logic_error@std@@UAE@XZ:
  00012	b8 00 00 00 00	 mov	 eax, OFFSET FLAT:$T198403
  00017	e9 00 00 00 00	 jmp	 ___CxxFrameHandler
text$x	ENDS
??1logic_error@std@@UAE@XZ ENDP				; std::logic_error::~logic_error
; Function compile flags: /Odt /RTCsu
;	COMDAT ??1length_error@std@@UAE@XZ
_TEXT	SEGMENT
_this$ = -4						; size = 4
??1length_error@std@@UAE@XZ PROC NEAR			; std::length_error::~length_error, COMDAT
; _this$ = ecx

; 99   : 		{}	// destroy the object

  00000	55		 push	 ebp
  00001	8b ec		 mov	 ebp, esp
  00003	51		 push	 ecx
  00004	c7 45 fc cc cc
	cc cc		 mov	 DWORD PTR [ebp-4], -858993460 ; ccccccccH
  0000b	89 4d fc	 mov	 DWORD PTR _this$[ebp], ecx
  0000e	8b 45 fc	 mov	 eax, DWORD PTR _this$[ebp]
  00011	c7 00 00 00 00
	00		 mov	 DWORD PTR [eax], OFFSET FLAT:??_7length_error@std@@6B@
  00017	8b 4d fc	 mov	 ecx, DWORD PTR _this$[ebp]
  0001a	e8 00 00 00 00	 call	 ??1logic_error@std@@UAE@XZ ; std::logic_error::~logic_error
  0001f	83 c4 04	 add	 esp, 4
  00022	3b ec		 cmp	 ebp, esp
  00024	e8 00 00 00 00	 call	 __RTC_CheckEsp
  00029	8b e5		 mov	 esp, ebp
  0002b	5d		 pop	 ebp
  0002c	c3		 ret	 0
??1length_error@std@@UAE@XZ ENDP			; std::length_error::~length_error
; Function compile flags: /Odt /RTCsu
_TEXT	ENDS
;	COMDAT ??_Glength_error@std@@UAEPAXI@Z
_TEXT	SEGMENT
_this$ = -4						; size = 4
___flags$ = 8						; size = 4
??_Glength_error@std@@UAEPAXI@Z PROC NEAR		; std::length_error::`scalar deleting destructor', COMDAT
; _this$ = ecx
  00000	55		 push	 ebp
  00001	8b ec		 mov	 ebp, esp
  00003	51		 push	 ecx
  00004	c7 45 fc cc cc
	cc cc		 mov	 DWORD PTR [ebp-4], -858993460 ; ccccccccH
  0000b	89 4d fc	 mov	 DWORD PTR _this$[ebp], ecx
  0000e	8b 4d fc	 mov	 ecx, DWORD PTR _this$[ebp]
  00011	e8 00 00 00 00	 call	 ??1length_error@std@@UAE@XZ ; std::length_error::~length_error
  00016	8b 45 08	 mov	 eax, DWORD PTR ___flags$[ebp]
  00019	83 e0 01	 and	 eax, 1
  0001c	74 0c		 je	 SHORT $L91713
  0001e	8b 4d fc	 mov	 ecx, DWORD PTR _this$[ebp]
  00021	51		 push	 ecx
  00022	e8 00 00 00 00	 call	 ??3@YAXPAX@Z		; operator delete
  00027	83 c4 04	 add	 esp, 4
$L91713:
  0002a	8b 45 fc	 mov	 eax, DWORD PTR _this$[ebp]
  0002d	83 c4 04	 add	 esp, 4
  00030	3b ec		 cmp	 ebp, esp
  00032	e8 00 00 00 00	 call	 __RTC_CheckEsp
  00037	8b e5		 mov	 esp, ebp
  00039	5d		 pop	 ebp
  0003a	c2 04 00	 ret	 4
??_Glength_error@std@@UAEPAXI@Z ENDP			; std::length_error::`scalar deleting destructor'
; Function compile flags: /Odt /RTCsu
; File d:\boxgit\playbox\playbox\dev\prj\playbox\src\core\imessageobserver.h
_TEXT	ENDS
;	COMDAT ??1IMessageObserver@@UAE@XZ
_TEXT	SEGMENT
_this$ = -4						; size = 4
??1IMessageObserver@@UAE@XZ PROC NEAR			; IMessageObserver::~IMessageObserver, COMDAT
; _this$ = ecx

; 16   : 	virtual ~IMessageObserver(){};

  00000	55		 push	 ebp
  00001	8b ec		 mov	 ebp, esp
  00003	51		 push	 ecx
  00004	c7 45 fc cc cc
	cc cc		 mov	 DWORD PTR [ebp-4], -858993460 ; ccccccccH
  0000b	89 4d fc	 mov	 DWORD PTR _this$[ebp], ecx
  0000e	8b 45 fc	 mov	 eax, DWORD PTR _this$[ebp]
  00011	c7 00 00 00 00
	00		 mov	 DWORD PTR [eax], OFFSET FLAT:??_7IMessageObserver@@6B@
  00017	8b e5		 mov	 esp, ebp
  00019	5d		 pop	 ebp
  0001a	c3		 ret	 0
??1IMessageObserver@@UAE@XZ ENDP			; IMessageObserver::~IMessageObserver
; Function compile flags: /Odt /RTCsu
_TEXT	ENDS
;	COMDAT ??_GIMessageObserver@@UAEPAXI@Z
_TEXT	SEGMENT
_this$ = -4						; size = 4
___flags$ = 8						; size = 4
??_GIMessageObserver@@UAEPAXI@Z PROC NEAR		; IMessageObserver::`scalar deleting destructor', COMDAT
; _this$ = ecx
  00000	55		 push	 ebp
  00001	8b ec		 mov	 ebp, esp
  00003	51		 push	 ecx
  00004	c7 45 fc cc cc
	cc cc		 mov	 DWORD PTR [ebp-4], -858993460 ; ccccccccH
  0000b	89 4d fc	 mov	 DWORD PTR _this$[ebp], ecx
  0000e	8b 4d fc	 mov	 ecx, DWORD PTR _this$[ebp]
  00011	e8 00 00 00 00	 call	 ??1IMessageObserver@@UAE@XZ ; IMessageObserver::~IMessageObserver
  00016	8b 45 08	 mov	 eax, DWORD PTR ___flags$[ebp]
  00019	83 e0 01	 and	 eax, 1
  0001c	74 0c		 je	 SHORT $L99513
  0001e	8b 4d fc	 mov	 ecx, DWORD PTR _this$[ebp]
  00021	51		 push	 ecx
  00022	e8 00 00 00 00	 call	 ??3@YAXPAX@Z		; operator delete
  00027	83 c4 04	 add	 esp, 4
$L99513:
  0002a	8b 45 fc	 mov	 eax, DWORD PTR _this$[ebp]
  0002d	83 c4 04	 add	 esp, 4
  00030	3b ec		 cmp	 ebp, esp
  00032	e8 00 00 00 00	 call	 __RTC_CheckEsp
  00037	8b e5		 mov	 esp, ebp
  00039	5d		 pop	 ebp
  0003a	c2 04 00	 ret	 4
??_GIMessageObserver@@UAEPAXI@Z ENDP			; IMessageObserver::`scalar deleting destructor'
; Function compile flags: /Odt /RTCsu
; File d:\program files (x86)\microsoft visual studio .net 2003\vc7\atlmfc\include\atlalloc.h
_TEXT	ENDS
;	COMDAT ??0?$CAtlSafeAllocBufferManager@VCCRTAllocator@ATL@@@_ATL_SAFE_ALLOCA_IMPL@ATL@@QAE@XZ
_TEXT	SEGMENT
_this$ = -4						; size = 4
??0?$CAtlSafeAllocBufferManager@VCCRTAllocator@ATL@@@_ATL_SAFE_ALLOCA_IMPL@ATL@@QAE@XZ PROC NEAR ; ATL::_ATL_SAFE_ALLOCA_IMPL::CAtlSafeAllocBufferManager<ATL::CCRTAllocator>::CAtlSafeAllocBufferManager<ATL::CCRTAllocator>, COMDAT
; _this$ = ecx

; 373  : 	CAtlSafeAllocBufferManager() : m_pHead(NULL) {};

  00000	55		 push	 ebp
  00001	8b ec		 mov	 ebp, esp
  00003	51		 push	 ecx
  00004	c7 45 fc cc cc
	cc cc		 mov	 DWORD PTR [ebp-4], -858993460 ; ccccccccH
  0000b	89 4d fc	 mov	 DWORD PTR _this$[ebp], ecx
  0000e	8b 45 fc	 mov	 eax, DWORD PTR _this$[ebp]
  00011	c7 00 00 00 00
	00		 mov	 DWORD PTR [eax], 0
  00017	8b 45 fc	 mov	 eax, DWORD PTR _this$[ebp]
  0001a	8b e5		 mov	 esp, ebp
  0001c	5d		 pop	 ebp
  0001d	c3		 ret	 0
??0?$CAtlSafeAllocBufferManager@VCCRTAllocator@ATL@@@_ATL_SAFE_ALLOCA_IMPL@ATL@@QAE@XZ ENDP ; ATL::_ATL_SAFE_ALLOCA_IMPL::CAtlSafeAllocBufferManager<ATL::CCRTAllocator>::CAtlSafeAllocBufferManager<ATL::CCRTAllocator>
_TEXT	ENDS
PUBLIC	?GetData@CAtlSafeAllocBufferNode@?$CAtlSafeAllocBufferManager@VCCRTAllocator@ATL@@@_ATL_SAFE_ALLOCA_IMPL@ATL@@QAEPAXXZ ; ATL::_ATL_SAFE_ALLOCA_IMPL::CAtlSafeAllocBufferManager<ATL::CCRTAllocator>::CAtlSafeAllocBufferNode::GetData
PUBLIC	?Allocate@CCRTAllocator@ATL@@SAPAXI@Z		; ATL::CCRTAllocator::Allocate
; Function compile flags: /Odt /RTCsu
;	COMDAT ?Allocate@?$CAtlSafeAllocBufferManager@VCCRTAllocator@ATL@@@_ATL_SAFE_ALLOCA_IMPL@ATL@@QAEPAXK@Z
_TEXT	SEGMENT
_p$ = -8						; size = 4
_this$ = -4						; size = 4
_nRequestedSize$ = 8					; size = 4
?Allocate@?$CAtlSafeAllocBufferManager@VCCRTAllocator@ATL@@@_ATL_SAFE_ALLOCA_IMPL@ATL@@QAEPAXK@Z PROC NEAR ; ATL::_ATL_SAFE_ALLOCA_IMPL::CAtlSafeAllocBufferManager<ATL::CCRTAllocator>::Allocate, COMDAT
; _this$ = ecx

; 375  : 	{

  00000	55		 push	 ebp
  00001	8b ec		 mov	 ebp, esp
  00003	83 ec 08	 sub	 esp, 8
  00006	c7 45 f8 cc cc
	cc cc		 mov	 DWORD PTR [ebp-8], -858993460 ; ccccccccH
  0000d	c7 45 fc cc cc
	cc cc		 mov	 DWORD PTR [ebp-4], -858993460 ; ccccccccH
  00014	89 4d fc	 mov	 DWORD PTR _this$[ebp], ecx

; 376  : 		CAtlSafeAllocBufferNode *p = (CAtlSafeAllocBufferNode*)Allocator::Allocate(nRequestedSize + sizeof(CAtlSafeAllocBufferNode));

  00017	8b 45 08	 mov	 eax, DWORD PTR _nRequestedSize$[ebp]
  0001a	83 c0 08	 add	 eax, 8
  0001d	50		 push	 eax
  0001e	e8 00 00 00 00	 call	 ?Allocate@CCRTAllocator@ATL@@SAPAXI@Z ; ATL::CCRTAllocator::Allocate
  00023	83 c4 04	 add	 esp, 4
  00026	89 45 f8	 mov	 DWORD PTR _p$[ebp], eax

; 377  : 		if (p == NULL)

  00029	83 7d f8 00	 cmp	 DWORD PTR _p$[ebp], 0
  0002d	75 04		 jne	 SHORT $L181568

; 378  : 			return NULL;

  0002f	33 c0		 xor	 eax, eax
  00031	eb 1a		 jmp	 SHORT $L181555
$L181568:

; 379  : 		
; 380  : 		// Add buffer to the list
; 381  : 		p->m_pNext = m_pHead;

  00033	8b 4d f8	 mov	 ecx, DWORD PTR _p$[ebp]
  00036	8b 55 fc	 mov	 edx, DWORD PTR _this$[ebp]
  00039	8b 02		 mov	 eax, DWORD PTR [edx]
  0003b	89 01		 mov	 DWORD PTR [ecx], eax

; 382  : 		m_pHead = p;

  0003d	8b 4d fc	 mov	 ecx, DWORD PTR _this$[ebp]
  00040	8b 55 f8	 mov	 edx, DWORD PTR _p$[ebp]
  00043	89 11		 mov	 DWORD PTR [ecx], edx

; 383  : 		
; 384  : 		return p->GetData();

  00045	8b 4d f8	 mov	 ecx, DWORD PTR _p$[ebp]
  00048	e8 00 00 00 00	 call	 ?GetData@CAtlSafeAllocBufferNode@?$CAtlSafeAllocBufferManager@VCCRTAllocator@ATL@@@_ATL_SAFE_ALLOCA_IMPL@ATL@@QAEPAXXZ ; ATL::_ATL_SAFE_ALLOCA_IMPL::CAtlSafeAllocBufferManager<ATL::CCRTAllocator>::CAtlSafeAllocBufferNode::GetData
$L181555:

; 385  : 	}

  0004d	83 c4 08	 add	 esp, 8
  00050	3b ec		 cmp	 ebp, esp
  00052	e8 00 00 00 00	 call	 __RTC_CheckEsp
  00057	8b e5		 mov	 esp, ebp
  00059	5d		 pop	 ebp
  0005a	c2 04 00	 ret	 4
?Allocate@?$CAtlSafeAllocBufferManager@VCCRTAllocator@ATL@@@_ATL_SAFE_ALLOCA_IMPL@ATL@@QAEPAXK@Z ENDP ; ATL::_ATL_SAFE_ALLOCA_IMPL::CAtlSafeAllocBufferManager<ATL::CCRTAllocator>::Allocate
_TEXT	ENDS
EXTRN	__imp__malloc:NEAR
; Function compile flags: /Odt /RTCsu
;	COMDAT ?Allocate@CCRTAllocator@ATL@@SAPAXI@Z
_TEXT	SEGMENT
_nBytes$ = 8						; size = 4
?Allocate@CCRTAllocator@ATL@@SAPAXI@Z PROC NEAR		; ATL::CCRTAllocator::Allocate, COMDAT

; 30   : 	{

  00000	55		 push	 ebp
  00001	8b ec		 mov	 ebp, esp
  00003	56		 push	 esi

; 31   : 		return malloc(nBytes);

  00004	8b f4		 mov	 esi, esp
  00006	8b 45 08	 mov	 eax, DWORD PTR _nBytes$[ebp]
  00009	50		 push	 eax
  0000a	ff 15 00 00 00
	00		 call	 DWORD PTR __imp__malloc
  00010	83 c4 04	 add	 esp, 4
  00013	3b f4		 cmp	 esi, esp
  00015	e8 00 00 00 00	 call	 __RTC_CheckEsp

; 32   : 	}

  0001a	5e		 pop	 esi
  0001b	3b ec		 cmp	 ebp, esp
  0001d	e8 00 00 00 00	 call	 __RTC_CheckEsp
  00022	5d		 pop	 ebp
  00023	c3		 ret	 0
?Allocate@CCRTAllocator@ATL@@SAPAXI@Z ENDP		; ATL::CCRTAllocator::Allocate
_TEXT	ENDS
PUBLIC	?Free@CCRTAllocator@ATL@@SAXPAX@Z		; ATL::CCRTAllocator::Free
; Function compile flags: /Odt /RTCsu
;	COMDAT ??1?$CAtlSafeAllocBufferManager@VCCRTAllocator@ATL@@@_ATL_SAFE_ALLOCA_IMPL@ATL@@QAE@XZ
_TEXT	SEGMENT
_p$181574 = -8						; size = 4
_this$ = -4						; size = 4
??1?$CAtlSafeAllocBufferManager@VCCRTAllocator@ATL@@@_ATL_SAFE_ALLOCA_IMPL@ATL@@QAE@XZ PROC NEAR ; ATL::_ATL_SAFE_ALLOCA_IMPL::CAtlSafeAllocBufferManager<ATL::CCRTAllocator>::~CAtlSafeAllocBufferManager<ATL::CCRTAllocator>, COMDAT
; _this$ = ecx

; 387  : 	{

  00000	55		 push	 ebp
  00001	8b ec		 mov	 ebp, esp
  00003	83 ec 08	 sub	 esp, 8
  00006	c7 45 f8 cc cc
	cc cc		 mov	 DWORD PTR [ebp-8], -858993460 ; ccccccccH
  0000d	c7 45 fc cc cc
	cc cc		 mov	 DWORD PTR [ebp-4], -858993460 ; ccccccccH
  00014	89 4d fc	 mov	 DWORD PTR _this$[ebp], ecx
$L181572:

; 388  : 		// Walk the list and free the buffers
; 389  : 		while (m_pHead != NULL)

  00017	8b 45 fc	 mov	 eax, DWORD PTR _this$[ebp]
  0001a	83 38 00	 cmp	 DWORD PTR [eax], 0
  0001d	74 22		 je	 SHORT $L181570

; 390  : 		{
; 391  : 			CAtlSafeAllocBufferNode* p = m_pHead;

  0001f	8b 4d fc	 mov	 ecx, DWORD PTR _this$[ebp]
  00022	8b 11		 mov	 edx, DWORD PTR [ecx]
  00024	89 55 f8	 mov	 DWORD PTR _p$181574[ebp], edx

; 392  : 			m_pHead = m_pHead->m_pNext;

  00027	8b 45 fc	 mov	 eax, DWORD PTR _this$[ebp]
  0002a	8b 08		 mov	 ecx, DWORD PTR [eax]
  0002c	8b 55 fc	 mov	 edx, DWORD PTR _this$[ebp]
  0002f	8b 01		 mov	 eax, DWORD PTR [ecx]
  00031	89 02		 mov	 DWORD PTR [edx], eax

; 393  : 			Allocator::Free(p);

  00033	8b 4d f8	 mov	 ecx, DWORD PTR _p$181574[ebp]
  00036	51		 push	 ecx
  00037	e8 00 00 00 00	 call	 ?Free@CCRTAllocator@ATL@@SAXPAX@Z ; ATL::CCRTAllocator::Free
  0003c	83 c4 04	 add	 esp, 4

; 394  : 		}

  0003f	eb d6		 jmp	 SHORT $L181572
$L181570:

; 395  : 	}

  00041	83 c4 08	 add	 esp, 8
  00044	3b ec		 cmp	 ebp, esp
  00046	e8 00 00 00 00	 call	 __RTC_CheckEsp
  0004b	8b e5		 mov	 esp, ebp
  0004d	5d		 pop	 ebp
  0004e	c3		 ret	 0
??1?$CAtlSafeAllocBufferManager@VCCRTAllocator@ATL@@@_ATL_SAFE_ALLOCA_IMPL@ATL@@QAE@XZ ENDP ; ATL::_ATL_SAFE_ALLOCA_IMPL::CAtlSafeAllocBufferManager<ATL::CCRTAllocator>::~CAtlSafeAllocBufferManager<ATL::CCRTAllocator>
_TEXT	ENDS
EXTRN	__imp__free:NEAR
; Function compile flags: /Odt /RTCsu
;	COMDAT ?Free@CCRTAllocator@ATL@@SAXPAX@Z
_TEXT	SEGMENT
_p$ = 8							; size = 4
?Free@CCRTAllocator@ATL@@SAXPAX@Z PROC NEAR		; ATL::CCRTAllocator::Free, COMDAT

; 35   : 	{

  00000	55		 push	 ebp
  00001	8b ec		 mov	 ebp, esp
  00003	56		 push	 esi

; 36   : 		free(p);

  00004	8b f4		 mov	 esi, esp
  00006	8b 45 08	 mov	 eax, DWORD PTR _p$[ebp]
  00009	50		 push	 eax
  0000a	ff 15 00 00 00
	00		 call	 DWORD PTR __imp__free
  00010	83 c4 04	 add	 esp, 4
  00013	3b f4		 cmp	 esi, esp
  00015	e8 00 00 00 00	 call	 __RTC_CheckEsp

; 37   : 	}

  0001a	5e		 pop	 esi
  0001b	3b ec		 cmp	 ebp, esp
  0001d	e8 00 00 00 00	 call	 __RTC_CheckEsp
  00022	5d		 pop	 ebp
  00023	c3		 ret	 0
?Free@CCRTAllocator@ATL@@SAXPAX@Z ENDP			; ATL::CCRTAllocator::Free
; Function compile flags: /Odt /RTCsu
_TEXT	ENDS
;	COMDAT ??0?$CTempBuffer@D$0IA@VCCRTAllocator@ATL@@@ATL@@QAE@XZ
_TEXT	SEGMENT
_this$ = -4						; size = 4
??0?$CTempBuffer@D$0IA@VCCRTAllocator@ATL@@@ATL@@QAE@XZ PROC NEAR ; ATL::CTempBuffer<char,128,ATL::CCRTAllocator>::CTempBuffer<char,128,ATL::CCRTAllocator>, COMDAT
; _this$ = ecx

; 216  : 	{

  00000	55		 push	 ebp
  00001	8b ec		 mov	 ebp, esp
  00003	51		 push	 ecx
  00004	c7 45 fc cc cc
	cc cc		 mov	 DWORD PTR [ebp-4], -858993460 ; ccccccccH
  0000b	89 4d fc	 mov	 DWORD PTR _this$[ebp], ecx
  0000e	8b 45 fc	 mov	 eax, DWORD PTR _this$[ebp]
  00011	c7 00 00 00 00
	00		 mov	 DWORD PTR [eax], 0

; 217  : 	}

  00017	8b 45 fc	 mov	 eax, DWORD PTR _this$[ebp]
  0001a	8b e5		 mov	 esp, ebp
  0001c	5d		 pop	 ebp
  0001d	c3		 ret	 0
??0?$CTempBuffer@D$0IA@VCCRTAllocator@ATL@@@ATL@@QAE@XZ ENDP ; ATL::CTempBuffer<char,128,ATL::CCRTAllocator>::CTempBuffer<char,128,ATL::CCRTAllocator>
_TEXT	ENDS
PUBLIC	?FreeHeap@?$CTempBuffer@D$0IA@VCCRTAllocator@ATL@@@ATL@@AAEXXZ ; ATL::CTempBuffer<char,128,ATL::CCRTAllocator>::FreeHeap
; Function compile flags: /Odt /RTCsu
;	COMDAT ??1?$CTempBuffer@D$0IA@VCCRTAllocator@ATL@@@ATL@@QAE@XZ
_TEXT	SEGMENT
_this$ = -4						; size = 4
??1?$CTempBuffer@D$0IA@VCCRTAllocator@ATL@@@ATL@@QAE@XZ PROC NEAR ; ATL::CTempBuffer<char,128,ATL::CCRTAllocator>::~CTempBuffer<char,128,ATL::CCRTAllocator>, COMDAT
; _this$ = ecx

; 225  : 	{

  00000	55		 push	 ebp
  00001	8b ec		 mov	 ebp, esp
  00003	51		 push	 ecx
  00004	c7 45 fc cc cc
	cc cc		 mov	 DWORD PTR [ebp-4], -858993460 ; ccccccccH
  0000b	89 4d fc	 mov	 DWORD PTR _this$[ebp], ecx

; 226  : 		if( m_p != reinterpret_cast< T* >( m_abFixedBuffer ) )

  0000e	8b 45 fc	 mov	 eax, DWORD PTR _this$[ebp]
  00011	83 c0 04	 add	 eax, 4
  00014	8b 4d fc	 mov	 ecx, DWORD PTR _this$[ebp]
  00017	39 01		 cmp	 DWORD PTR [ecx], eax
  00019	74 08		 je	 SHORT $L181578

; 227  : 		{
; 228  : 			FreeHeap();

  0001b	8b 4d fc	 mov	 ecx, DWORD PTR _this$[ebp]
  0001e	e8 00 00 00 00	 call	 ?FreeHeap@?$CTempBuffer@D$0IA@VCCRTAllocator@ATL@@@ATL@@AAEXXZ ; ATL::CTempBuffer<char,128,ATL::CCRTAllocator>::FreeHeap
$L181578:

; 229  : 		}
; 230  : 	}

  00023	83 c4 04	 add	 esp, 4
  00026	3b ec		 cmp	 ebp, esp
  00028	e8 00 00 00 00	 call	 __RTC_CheckEsp
  0002d	8b e5		 mov	 esp, ebp
  0002f	5d		 pop	 ebp
  00030	c3		 ret	 0
??1?$CTempBuffer@D$0IA@VCCRTAllocator@ATL@@@ATL@@QAE@XZ ENDP ; ATL::CTempBuffer<char,128,ATL::CCRTAllocator>::~CTempBuffer<char,128,ATL::CCRTAllocator>
; Function compile flags: /Odt /RTCsu
_TEXT	ENDS
;	COMDAT ??B?$CTempBuffer@D$0IA@VCCRTAllocator@ATL@@@ATL@@QBEPADXZ
_TEXT	SEGMENT
_this$ = -4						; size = 4
??B?$CTempBuffer@D$0IA@VCCRTAllocator@ATL@@@ATL@@QBEPADXZ PROC NEAR ; ATL::CTempBuffer<char,128,ATL::CCRTAllocator>::operator char *, COMDAT
; _this$ = ecx

; 233  : 	{

  00000	55		 push	 ebp
  00001	8b ec		 mov	 ebp, esp
  00003	51		 push	 ecx
  00004	c7 45 fc cc cc
	cc cc		 mov	 DWORD PTR [ebp-4], -858993460 ; ccccccccH
  0000b	89 4d fc	 mov	 DWORD PTR _this$[ebp], ecx

; 234  : 		return( m_p );

  0000e	8b 45 fc	 mov	 eax, DWORD PTR _this$[ebp]
  00011	8b 00		 mov	 eax, DWORD PTR [eax]

; 235  : 	}

  00013	8b e5		 mov	 esp, ebp
  00015	5d		 pop	 ebp
  00016	c3		 ret	 0
??B?$CTempBuffer@D$0IA@VCCRTAllocator@ATL@@@ATL@@QBEPADXZ ENDP ; ATL::CTempBuffer<char,128,ATL::CCRTAllocator>::operator char *
_TEXT	ENDS
PUBLIC	?AllocateBytes@?$CTempBuffer@D$0IA@VCCRTAllocator@ATL@@@ATL@@QAEPADI@Z ; ATL::CTempBuffer<char,128,ATL::CCRTAllocator>::AllocateBytes
; Function compile flags: /Odt /RTCsu
;	COMDAT ?Allocate@?$CTempBuffer@D$0IA@VCCRTAllocator@ATL@@@ATL@@QAEPADI@Z
_TEXT	SEGMENT
_this$ = -4						; size = 4
_nElements$ = 8						; size = 4
?Allocate@?$CTempBuffer@D$0IA@VCCRTAllocator@ATL@@@ATL@@QAEPADI@Z PROC NEAR ; ATL::CTempBuffer<char,128,ATL::CCRTAllocator>::Allocate, COMDAT
; _this$ = ecx

; 243  : 	{

  00000	55		 push	 ebp
  00001	8b ec		 mov	 ebp, esp
  00003	51		 push	 ecx
  00004	c7 45 fc cc cc
	cc cc		 mov	 DWORD PTR [ebp-4], -858993460 ; ccccccccH
  0000b	89 4d fc	 mov	 DWORD PTR _this$[ebp], ecx

; 244  : 		return( AllocateBytes( nElements*sizeof( T ) ) );

  0000e	8b 45 08	 mov	 eax, DWORD PTR _nElements$[ebp]
  00011	50		 push	 eax
  00012	8b 4d fc	 mov	 ecx, DWORD PTR _this$[ebp]
  00015	e8 00 00 00 00	 call	 ?AllocateBytes@?$CTempBuffer@D$0IA@VCCRTAllocator@ATL@@@ATL@@QAEPADI@Z ; ATL::CTempBuffer<char,128,ATL::CCRTAllocator>::AllocateBytes

; 245  : 	}

  0001a	83 c4 04	 add	 esp, 4
  0001d	3b ec		 cmp	 ebp, esp
  0001f	e8 00 00 00 00	 call	 __RTC_CheckEsp
  00024	8b e5		 mov	 esp, ebp
  00026	5d		 pop	 ebp
  00027	c2 04 00	 ret	 4
?Allocate@?$CTempBuffer@D$0IA@VCCRTAllocator@ATL@@@ATL@@QAEPADI@Z ENDP ; ATL::CTempBuffer<char,128,ATL::CCRTAllocator>::Allocate
_TEXT	ENDS
PUBLIC	?Init@?$CW2AEX@$0IA@@ATL@@AAEXPB_WI@Z		; ATL::CW2AEX<128>::Init
; Function compile flags: /Odt /RTCsu
; File d:\program files (x86)\microsoft visual studio .net 2003\vc7\atlmfc\include\atlconv.h
;	COMDAT ??0?$CW2AEX@$0IA@@ATL@@QAE@PB_W@Z
_TEXT	SEGMENT
_this$ = -4						; size = 4
_psz$ = 8						; size = 4
??0?$CW2AEX@$0IA@@ATL@@QAE@PB_W@Z PROC NEAR		; ATL::CW2AEX<128>::CW2AEX<128>, COMDAT
; _this$ = ecx

; 419  : 	{

  00000	55		 push	 ebp
  00001	8b ec		 mov	 ebp, esp
  00003	51		 push	 ecx
  00004	c7 45 fc cc cc
	cc cc		 mov	 DWORD PTR [ebp-4], -858993460 ; ccccccccH
  0000b	89 4d fc	 mov	 DWORD PTR _this$[ebp], ecx
  0000e	8b 45 fc	 mov	 eax, DWORD PTR _this$[ebp]
  00011	83 c0 04	 add	 eax, 4
  00014	8b 4d fc	 mov	 ecx, DWORD PTR _this$[ebp]
  00017	89 01		 mov	 DWORD PTR [ecx], eax

; 420  : 		Init( psz, _AtlGetConversionACP() );

  00019	e8 00 00 00 00	 call	 ?_AtlGetConversionACP@ATL@@YGIXZ ; ATL::_AtlGetConversionACP
  0001e	50		 push	 eax
  0001f	8b 55 08	 mov	 edx, DWORD PTR _psz$[ebp]
  00022	52		 push	 edx
  00023	8b 4d fc	 mov	 ecx, DWORD PTR _this$[ebp]
  00026	e8 00 00 00 00	 call	 ?Init@?$CW2AEX@$0IA@@ATL@@AAEXPB_WI@Z ; ATL::CW2AEX<128>::Init

; 421  : 	}

  0002b	8b 45 fc	 mov	 eax, DWORD PTR _this$[ebp]
  0002e	83 c4 04	 add	 esp, 4
  00031	3b ec		 cmp	 ebp, esp
  00033	e8 00 00 00 00	 call	 __RTC_CheckEsp
  00038	8b e5		 mov	 esp, ebp
  0003a	5d		 pop	 ebp
  0003b	c2 04 00	 ret	 4
??0?$CW2AEX@$0IA@@ATL@@QAE@PB_W@Z ENDP			; ATL::CW2AEX<128>::CW2AEX<128>
; Function compile flags: /Odt /RTCsu
_TEXT	ENDS
;	COMDAT ??1?$CW2AEX@$0IA@@ATL@@QAE@XZ
_TEXT	SEGMENT
_this$ = -4						; size = 4
??1?$CW2AEX@$0IA@@ATL@@QAE@XZ PROC NEAR			; ATL::CW2AEX<128>::~CW2AEX<128>, COMDAT
; _this$ = ecx

; 428  : 	{

  00000	55		 push	 ebp
  00001	8b ec		 mov	 ebp, esp
  00003	51		 push	 ecx
  00004	56		 push	 esi
  00005	c7 45 fc cc cc
	cc cc		 mov	 DWORD PTR [ebp-4], -858993460 ; ccccccccH
  0000c	89 4d fc	 mov	 DWORD PTR _this$[ebp], ecx

; 429  : 		if( m_psz != m_szBuffer )

  0000f	8b 45 fc	 mov	 eax, DWORD PTR _this$[ebp]
  00012	83 c0 04	 add	 eax, 4
  00015	8b 4d fc	 mov	 ecx, DWORD PTR _this$[ebp]
  00018	39 01		 cmp	 DWORD PTR [ecx], eax
  0001a	74 18		 je	 SHORT $L181589

; 430  : 		{
; 431  : 			free( m_psz );

  0001c	8b f4		 mov	 esi, esp
  0001e	8b 55 fc	 mov	 edx, DWORD PTR _this$[ebp]
  00021	8b 02		 mov	 eax, DWORD PTR [edx]
  00023	50		 push	 eax
  00024	ff 15 00 00 00
	00		 call	 DWORD PTR __imp__free
  0002a	83 c4 04	 add	 esp, 4
  0002d	3b f4		 cmp	 esi, esp
  0002f	e8 00 00 00 00	 call	 __RTC_CheckEsp
$L181589:

; 432  : 		}
; 433  : 	}

  00034	5e		 pop	 esi
  00035	83 c4 04	 add	 esp, 4
  00038	3b ec		 cmp	 ebp, esp
  0003a	e8 00 00 00 00	 call	 __RTC_CheckEsp
  0003f	8b e5		 mov	 esp, ebp
  00041	5d		 pop	 ebp
  00042	c3		 ret	 0
??1?$CW2AEX@$0IA@@ATL@@QAE@XZ ENDP			; ATL::CW2AEX<128>::~CW2AEX<128>
; Function compile flags: /Odt /RTCsu
_TEXT	ENDS
;	COMDAT ??B?$CW2AEX@$0IA@@ATL@@QBEPADXZ
_TEXT	SEGMENT
_this$ = -4						; size = 4
??B?$CW2AEX@$0IA@@ATL@@QBEPADXZ PROC NEAR		; ATL::CW2AEX<128>::operator char *, COMDAT
; _this$ = ecx

; 436  : 	{

  00000	55		 push	 ebp
  00001	8b ec		 mov	 ebp, esp
  00003	51		 push	 ecx
  00004	c7 45 fc cc cc
	cc cc		 mov	 DWORD PTR [ebp-4], -858993460 ; ccccccccH
  0000b	89 4d fc	 mov	 DWORD PTR _this$[ebp], ecx

; 437  : 		return( m_psz );

  0000e	8b 45 fc	 mov	 eax, DWORD PTR _this$[ebp]
  00011	8b 00		 mov	 eax, DWORD PTR [eax]

; 438  : 	}

  00013	8b e5		 mov	 esp, ebp
  00015	5d		 pop	 ebp
  00016	c3		 ret	 0
??B?$CW2AEX@$0IA@@ATL@@QBEPADXZ ENDP			; ATL::CW2AEX<128>::operator char *
_TEXT	ENDS
PUBLIC	??_C@_08GPODJFIN@m_p?5?$DN?$DN?50?$AA@		; `string'
PUBLIC	??_C@_0FH@BOCPFCEM@D?3?2Program?5Files?5?$CIx86?$CJ?2Microsoft@ ; `string'
PUBLIC	?AllocateHeap@?$CTempBuffer@D$0IA@VCCRTAllocator@ATL@@@ATL@@AAEXI@Z ; ATL::CTempBuffer<char,128,ATL::CCRTAllocator>::AllocateHeap
;	COMDAT ??_C@_08GPODJFIN@m_p?5?$DN?$DN?50?$AA@
; File d:\program files (x86)\microsoft visual studio .net 2003\vc7\atlmfc\include\atlalloc.h
CONST	SEGMENT
??_C@_08GPODJFIN@m_p?5?$DN?$DN?50?$AA@ DB 'm_p == 0', 00H ; `string'
CONST	ENDS
;	COMDAT ??_C@_0FH@BOCPFCEM@D?3?2Program?5Files?5?$CIx86?$CJ?2Microsoft@
CONST	SEGMENT
??_C@_0FH@BOCPFCEM@D?3?2Program?5Files?5?$CIx86?$CJ?2Microsoft@ DB 'D:\Pr'
	DB	'ogram Files (x86)\Microsoft Visual Studio .NET 2003\Vc7\atlmf'
	DB	'c\include\atlalloc.h', 00H			; `string'
; Function compile flags: /Odt /RTCsu
CONST	ENDS
;	COMDAT ?AllocateBytes@?$CTempBuffer@D$0IA@VCCRTAllocator@ATL@@@ATL@@QAEPADI@Z
_TEXT	SEGMENT
_this$ = -4						; size = 4
_nBytes$ = 8						; size = 4
?AllocateBytes@?$CTempBuffer@D$0IA@VCCRTAllocator@ATL@@@ATL@@QAEPADI@Z PROC NEAR ; ATL::CTempBuffer<char,128,ATL::CCRTAllocator>::AllocateBytes, COMDAT
; _this$ = ecx

; 276  : 	{

  00000	55		 push	 ebp
  00001	8b ec		 mov	 ebp, esp
  00003	51		 push	 ecx
  00004	56		 push	 esi
  00005	c7 45 fc cc cc
	cc cc		 mov	 DWORD PTR [ebp-4], -858993460 ; ccccccccH
  0000c	89 4d fc	 mov	 DWORD PTR _this$[ebp], ecx

; 277  : 		ATLASSERT( m_p == NULL );

  0000f	8b 45 fc	 mov	 eax, DWORD PTR _this$[ebp]
  00012	83 38 00	 cmp	 DWORD PTR [eax], 0
  00015	74 2b		 je	 SHORT $L198426
  00017	8b f4		 mov	 esi, esp
  00019	68 00 00 00 00	 push	 OFFSET FLAT:??_C@_08GPODJFIN@m_p?5?$DN?$DN?50?$AA@
  0001e	6a 00		 push	 0
  00020	68 15 01 00 00	 push	 277			; 00000115H
  00025	68 00 00 00 00	 push	 OFFSET FLAT:??_C@_0FH@BOCPFCEM@D?3?2Program?5Files?5?$CIx86?$CJ?2Microsoft@
  0002a	6a 02		 push	 2
  0002c	ff 15 00 00 00
	00		 call	 DWORD PTR __imp___CrtDbgReport
  00032	83 c4 14	 add	 esp, 20			; 00000014H
  00035	3b f4		 cmp	 esi, esp
  00037	e8 00 00 00 00	 call	 __RTC_CheckEsp
  0003c	83 f8 01	 cmp	 eax, 1
  0003f	75 01		 jne	 SHORT $L198426
  00041	cc		 int	 3
$L198426:

; 278  : 		if( nBytes > t_nFixedBytes )

  00042	81 7d 08 80 00
	00 00		 cmp	 DWORD PTR _nBytes$[ebp], 128 ; 00000080H
  00049	76 0e		 jbe	 SHORT $L183346

; 279  : 		{
; 280  : 			AllocateHeap( nBytes );

  0004b	8b 55 08	 mov	 edx, DWORD PTR _nBytes$[ebp]
  0004e	52		 push	 edx
  0004f	8b 4d fc	 mov	 ecx, DWORD PTR _this$[ebp]
  00052	e8 00 00 00 00	 call	 ?AllocateHeap@?$CTempBuffer@D$0IA@VCCRTAllocator@ATL@@@ATL@@AAEXI@Z ; ATL::CTempBuffer<char,128,ATL::CCRTAllocator>::AllocateHeap

; 281  : 		}
; 282  : 		else

  00057	eb 0b		 jmp	 SHORT $L183347
$L183346:

; 283  : 		{
; 284  : 			m_p = reinterpret_cast< T* >( m_abFixedBuffer );

  00059	8b 45 fc	 mov	 eax, DWORD PTR _this$[ebp]
  0005c	83 c0 04	 add	 eax, 4
  0005f	8b 4d fc	 mov	 ecx, DWORD PTR _this$[ebp]
  00062	89 01		 mov	 DWORD PTR [ecx], eax
$L183347:

; 285  : 		}
; 286  : 
; 287  : 		return( m_p );

  00064	8b 55 fc	 mov	 edx, DWORD PTR _this$[ebp]
  00067	8b 02		 mov	 eax, DWORD PTR [edx]

; 288  : 	}

  00069	5e		 pop	 esi
  0006a	83 c4 04	 add	 esp, 4
  0006d	3b ec		 cmp	 ebp, esp
  0006f	e8 00 00 00 00	 call	 __RTC_CheckEsp
  00074	8b e5		 mov	 esp, ebp
  00076	5d		 pop	 ebp
  00077	c2 04 00	 ret	 4
?AllocateBytes@?$CTempBuffer@D$0IA@VCCRTAllocator@ATL@@@ATL@@QAEPADI@Z ENDP ; ATL::CTempBuffer<char,128,ATL::CCRTAllocator>::AllocateBytes
; Function compile flags: /Odt /RTCsu
_TEXT	ENDS
;	COMDAT ?FreeHeap@?$CTempBuffer@D$0IA@VCCRTAllocator@ATL@@@ATL@@AAEXXZ
_TEXT	SEGMENT
_this$ = -4						; size = 4
?FreeHeap@?$CTempBuffer@D$0IA@VCCRTAllocator@ATL@@@ATL@@AAEXXZ PROC NEAR ; ATL::CTempBuffer<char,128,ATL::CCRTAllocator>::FreeHeap, COMDAT
; _this$ = ecx

; 312  : 	{

  00000	55		 push	 ebp
  00001	8b ec		 mov	 ebp, esp
  00003	51		 push	 ecx
  00004	c7 45 fc cc cc
	cc cc		 mov	 DWORD PTR [ebp-4], -858993460 ; ccccccccH
  0000b	89 4d fc	 mov	 DWORD PTR _this$[ebp], ecx

; 313  : 		Allocator::Free( m_p );

  0000e	8b 45 fc	 mov	 eax, DWORD PTR _this$[ebp]
  00011	8b 08		 mov	 ecx, DWORD PTR [eax]
  00013	51		 push	 ecx
  00014	e8 00 00 00 00	 call	 ?Free@CCRTAllocator@ATL@@SAXPAX@Z ; ATL::CCRTAllocator::Free
  00019	83 c4 04	 add	 esp, 4

; 314  : 	}

  0001c	83 c4 04	 add	 esp, 4
  0001f	3b ec		 cmp	 ebp, esp
  00021	e8 00 00 00 00	 call	 __RTC_CheckEsp
  00026	8b e5		 mov	 esp, ebp
  00028	5d		 pop	 ebp
  00029	c3		 ret	 0
?FreeHeap@?$CTempBuffer@D$0IA@VCCRTAllocator@ATL@@@ATL@@AAEXXZ ENDP ; ATL::CTempBuffer<char,128,ATL::CCRTAllocator>::FreeHeap
_TEXT	ENDS
PUBLIC	?AtlThrowLastWin32@ATL@@YGXXZ			; ATL::AtlThrowLastWin32
; Function compile flags: /Odt /RTCsu
; File d:\program files (x86)\microsoft visual studio .net 2003\vc7\atlmfc\include\atlconv.h
;	COMDAT ?Init@?$CW2AEX@$0IA@@ATL@@AAEXPB_WI@Z
_TEXT	SEGMENT
_nLengthA$ = -12					; size = 4
_nLengthW$ = -8						; size = 4
_this$ = -4						; size = 4
_psz$ = 8						; size = 4
_nCodePage$ = 12					; size = 4
?Init@?$CW2AEX@$0IA@@ATL@@AAEXPB_WI@Z PROC NEAR		; ATL::CW2AEX<128>::Init, COMDAT
; _this$ = ecx

; 442  : 	{

  00000	55		 push	 ebp
  00001	8b ec		 mov	 ebp, esp
  00003	83 ec 0c	 sub	 esp, 12			; 0000000cH
  00006	56		 push	 esi
  00007	c7 45 f4 cc cc
	cc cc		 mov	 DWORD PTR [ebp-12], -858993460 ; ccccccccH
  0000e	c7 45 f8 cc cc
	cc cc		 mov	 DWORD PTR [ebp-8], -858993460 ; ccccccccH
  00015	c7 45 fc cc cc
	cc cc		 mov	 DWORD PTR [ebp-4], -858993460 ; ccccccccH
  0001c	89 4d fc	 mov	 DWORD PTR _this$[ebp], ecx

; 443  : 		if (psz == NULL)

  0001f	83 7d 08 00	 cmp	 DWORD PTR _psz$[ebp], 0
  00023	75 0e		 jne	 SHORT $L183353

; 444  : 		{
; 445  : 			m_psz = NULL;

  00025	8b 45 fc	 mov	 eax, DWORD PTR _this$[ebp]
  00028	c7 00 00 00 00
	00		 mov	 DWORD PTR [eax], 0

; 446  : 			return;

  0002e	e9 8b 00 00 00	 jmp	 $L198428
$L183353:

; 447  : 		}
; 448  : 		int nLengthW = lstrlenW( psz )+1;

  00033	8b f4		 mov	 esi, esp
  00035	8b 4d 08	 mov	 ecx, DWORD PTR _psz$[ebp]
  00038	51		 push	 ecx
  00039	ff 15 00 00 00
	00		 call	 DWORD PTR __imp__lstrlenW@4
  0003f	3b f4		 cmp	 esi, esp
  00041	e8 00 00 00 00	 call	 __RTC_CheckEsp
  00046	83 c0 01	 add	 eax, 1
  00049	89 45 f8	 mov	 DWORD PTR _nLengthW$[ebp], eax

; 449  : 		int nLengthA = nLengthW*2;

  0004c	8b 55 f8	 mov	 edx, DWORD PTR _nLengthW$[ebp]
  0004f	d1 e2		 shl	 edx, 1
  00051	89 55 f4	 mov	 DWORD PTR _nLengthA$[ebp], edx

; 450  : 
; 451  : 		if( nLengthA > t_nBufferLength )

  00054	81 7d f4 80 00
	00 00		 cmp	 DWORD PTR _nLengthA$[ebp], 128 ; 00000080H
  0005b	7e 2d		 jle	 SHORT $L183356

; 452  : 		{
; 453  : 			m_psz = static_cast< LPSTR >( malloc( nLengthA*sizeof( char ) ) );

  0005d	8b f4		 mov	 esi, esp
  0005f	8b 45 f4	 mov	 eax, DWORD PTR _nLengthA$[ebp]
  00062	50		 push	 eax
  00063	ff 15 00 00 00
	00		 call	 DWORD PTR __imp__malloc
  00069	83 c4 04	 add	 esp, 4
  0006c	3b f4		 cmp	 esi, esp
  0006e	e8 00 00 00 00	 call	 __RTC_CheckEsp
  00073	8b 4d fc	 mov	 ecx, DWORD PTR _this$[ebp]
  00076	89 01		 mov	 DWORD PTR [ecx], eax

; 454  : 			if (m_psz == NULL)

  00078	8b 55 fc	 mov	 edx, DWORD PTR _this$[ebp]
  0007b	83 3a 00	 cmp	 DWORD PTR [edx], 0
  0007e	75 0a		 jne	 SHORT $L183356

; 455  : 			{
; 456  : 				AtlThrow( E_OUTOFMEMORY );

  00080	68 0e 00 07 80	 push	 -2147024882		; 8007000eH
  00085	e8 00 00 00 00	 call	 ?AtlThrow@ATL@@YGXJ@Z	; ATL::AtlThrow
$L183356:

; 457  : 			}
; 458  : 		}
; 459  : 
; 460  : 		if (::WideCharToMultiByte( nCodePage, 0, psz, nLengthW, m_psz, nLengthA, NULL, NULL ) == 0)

  0008a	8b f4		 mov	 esi, esp
  0008c	6a 00		 push	 0
  0008e	6a 00		 push	 0
  00090	8b 45 f4	 mov	 eax, DWORD PTR _nLengthA$[ebp]
  00093	50		 push	 eax
  00094	8b 4d fc	 mov	 ecx, DWORD PTR _this$[ebp]
  00097	8b 11		 mov	 edx, DWORD PTR [ecx]
  00099	52		 push	 edx
  0009a	8b 45 f8	 mov	 eax, DWORD PTR _nLengthW$[ebp]
  0009d	50		 push	 eax
  0009e	8b 4d 08	 mov	 ecx, DWORD PTR _psz$[ebp]
  000a1	51		 push	 ecx
  000a2	6a 00		 push	 0
  000a4	8b 55 0c	 mov	 edx, DWORD PTR _nCodePage$[ebp]
  000a7	52		 push	 edx
  000a8	ff 15 00 00 00
	00		 call	 DWORD PTR __imp__WideCharToMultiByte@32
  000ae	3b f4		 cmp	 esi, esp
  000b0	e8 00 00 00 00	 call	 __RTC_CheckEsp
  000b5	85 c0		 test	 eax, eax
  000b7	75 05		 jne	 SHORT $L198428

; 461  : 		{
; 462  : 			AtlThrowLastWin32();

  000b9	e8 00 00 00 00	 call	 ?AtlThrowLastWin32@ATL@@YGXXZ ; ATL::AtlThrowLastWin32
$L198428:

; 463  : 		}
; 464  : 	}

  000be	5e		 pop	 esi
  000bf	83 c4 0c	 add	 esp, 12			; 0000000cH
  000c2	3b ec		 cmp	 ebp, esp
  000c4	e8 00 00 00 00	 call	 __RTC_CheckEsp
  000c9	8b e5		 mov	 esp, ebp
  000cb	5d		 pop	 ebp
  000cc	c2 08 00	 ret	 8
?Init@?$CW2AEX@$0IA@@ATL@@AAEXPB_WI@Z ENDP		; ATL::CW2AEX<128>::Init
_TEXT	ENDS
EXTRN	__imp__GetLastError@0:NEAR
; Function compile flags: /Odt /RTCsu
; File d:\program files (x86)\microsoft visual studio .net 2003\vc7\atlmfc\include\atlexcept.h
;	COMDAT ?AtlThrowLastWin32@ATL@@YGXXZ
_TEXT	SEGMENT
tv69 = -8						; size = 4
_dwError$ = -4						; size = 4
?AtlThrowLastWin32@ATL@@YGXXZ PROC NEAR			; ATL::AtlThrowLastWin32, COMDAT

; 80   : {

  00000	55		 push	 ebp
  00001	8b ec		 mov	 ebp, esp
  00003	83 ec 08	 sub	 esp, 8
  00006	56		 push	 esi
  00007	c7 45 f8 cc cc
	cc cc		 mov	 DWORD PTR [ebp-8], -858993460 ; ccccccccH
  0000e	c7 45 fc cc cc
	cc cc		 mov	 DWORD PTR [ebp-4], -858993460 ; ccccccccH

; 81   : 	DWORD dwError = ::GetLastError();

  00015	8b f4		 mov	 esi, esp
  00017	ff 15 00 00 00
	00		 call	 DWORD PTR __imp__GetLastError@0
  0001d	3b f4		 cmp	 esi, esp
  0001f	e8 00 00 00 00	 call	 __RTC_CheckEsp
  00024	89 45 fc	 mov	 DWORD PTR _dwError$[ebp], eax

; 82   : 	AtlThrow( HRESULT_FROM_WIN32( dwError ) );

  00027	83 7d fc 00	 cmp	 DWORD PTR _dwError$[ebp], 0
  0002b	7f 08		 jg	 SHORT $L198430
  0002d	8b 45 fc	 mov	 eax, DWORD PTR _dwError$[ebp]
  00030	89 45 f8	 mov	 DWORD PTR tv69[ebp], eax
  00033	eb 18		 jmp	 SHORT $L198431
$L198430:
  00035	8b 4d fc	 mov	 ecx, DWORD PTR _dwError$[ebp]
  00038	81 e1 ff ff 00
	00		 and	 ecx, 65535		; 0000ffffH
  0003e	81 c9 00 00 07
	00		 or	 ecx, 458752		; 00070000H
  00044	81 c9 00 00 00
	80		 or	 ecx, -2147483648	; 80000000H
  0004a	89 4d f8	 mov	 DWORD PTR tv69[ebp], ecx
$L198431:
  0004d	8b 55 f8	 mov	 edx, DWORD PTR tv69[ebp]
  00050	52		 push	 edx
  00051	e8 00 00 00 00	 call	 ?AtlThrow@ATL@@YGXJ@Z	; ATL::AtlThrow
$L198429:

; 83   : }

  00056	5e		 pop	 esi
  00057	83 c4 08	 add	 esp, 8
  0005a	3b ec		 cmp	 ebp, esp
  0005c	e8 00 00 00 00	 call	 __RTC_CheckEsp
  00061	8b e5		 mov	 esp, ebp
  00063	5d		 pop	 ebp
  00064	c3		 ret	 0
?AtlThrowLastWin32@ATL@@YGXXZ ENDP			; ATL::AtlThrowLastWin32
; Function compile flags: /Odt /RTCsu
; File d:\program files (x86)\microsoft visual studio .net 2003\vc7\atlmfc\include\atlalloc.h
_TEXT	ENDS
;	COMDAT ?GetData@CAtlSafeAllocBufferNode@?$CAtlSafeAllocBufferManager@VCCRTAllocator@ATL@@@_ATL_SAFE_ALLOCA_IMPL@ATL@@QAEPAXXZ
_TEXT	SEGMENT
_this$ = -4						; size = 4
?GetData@CAtlSafeAllocBufferNode@?$CAtlSafeAllocBufferManager@VCCRTAllocator@ATL@@@_ATL_SAFE_ALLOCA_IMPL@ATL@@QAEPAXXZ PROC NEAR ; ATL::_ATL_SAFE_ALLOCA_IMPL::CAtlSafeAllocBufferManager<ATL::CCRTAllocator>::CAtlSafeAllocBufferNode::GetData, COMDAT
; _this$ = ecx

; 365  : 		{

  00000	55		 push	 ebp
  00001	8b ec		 mov	 ebp, esp
  00003	51		 push	 ecx
  00004	c7 45 fc cc cc
	cc cc		 mov	 DWORD PTR [ebp-4], -858993460 ; ccccccccH
  0000b	89 4d fc	 mov	 DWORD PTR _this$[ebp], ecx

; 366  : 			return (this + 1);

  0000e	8b 45 fc	 mov	 eax, DWORD PTR _this$[ebp]
  00011	83 c0 08	 add	 eax, 8

; 367  : 		}

  00014	8b e5		 mov	 esp, ebp
  00016	5d		 pop	 ebp
  00017	c3		 ret	 0
?GetData@CAtlSafeAllocBufferNode@?$CAtlSafeAllocBufferManager@VCCRTAllocator@ATL@@@_ATL_SAFE_ALLOCA_IMPL@ATL@@QAEPAXXZ ENDP ; ATL::_ATL_SAFE_ALLOCA_IMPL::CAtlSafeAllocBufferManager<ATL::CCRTAllocator>::CAtlSafeAllocBufferNode::GetData
; Function compile flags: /Odt /RTCsu
_TEXT	ENDS
;	COMDAT ?AllocateHeap@?$CTempBuffer@D$0IA@VCCRTAllocator@ATL@@@ATL@@AAEXI@Z
_TEXT	SEGMENT
_p$ = -8						; size = 4
_this$ = -4						; size = 4
_nBytes$ = 8						; size = 4
?AllocateHeap@?$CTempBuffer@D$0IA@VCCRTAllocator@ATL@@@ATL@@AAEXI@Z PROC NEAR ; ATL::CTempBuffer<char,128,ATL::CCRTAllocator>::AllocateHeap, COMDAT
; _this$ = ecx

; 292  : 	{

  00000	55		 push	 ebp
  00001	8b ec		 mov	 ebp, esp
  00003	83 ec 08	 sub	 esp, 8
  00006	c7 45 f8 cc cc
	cc cc		 mov	 DWORD PTR [ebp-8], -858993460 ; ccccccccH
  0000d	c7 45 fc cc cc
	cc cc		 mov	 DWORD PTR [ebp-4], -858993460 ; ccccccccH
  00014	89 4d fc	 mov	 DWORD PTR _this$[ebp], ecx

; 293  : 		T* p = static_cast< T* >( Allocator::Allocate( nBytes ) );

  00017	8b 45 08	 mov	 eax, DWORD PTR _nBytes$[ebp]
  0001a	50		 push	 eax
  0001b	e8 00 00 00 00	 call	 ?Allocate@CCRTAllocator@ATL@@SAPAXI@Z ; ATL::CCRTAllocator::Allocate
  00020	83 c4 04	 add	 esp, 4
  00023	89 45 f8	 mov	 DWORD PTR _p$[ebp], eax

; 294  : 		if( p == NULL )

  00026	83 7d f8 00	 cmp	 DWORD PTR _p$[ebp], 0
  0002a	75 0a		 jne	 SHORT $L184832

; 295  : 		{
; 296  : 			AtlThrow( E_OUTOFMEMORY );

  0002c	68 0e 00 07 80	 push	 -2147024882		; 8007000eH
  00031	e8 00 00 00 00	 call	 ?AtlThrow@ATL@@YGXJ@Z	; ATL::AtlThrow
$L184832:

; 297  : 		}
; 298  : 		m_p = p;

  00036	8b 4d fc	 mov	 ecx, DWORD PTR _this$[ebp]
  00039	8b 55 f8	 mov	 edx, DWORD PTR _p$[ebp]
  0003c	89 11		 mov	 DWORD PTR [ecx], edx
$L198433:

; 299  : 	}

  0003e	83 c4 08	 add	 esp, 8
  00041	3b ec		 cmp	 ebp, esp
  00043	e8 00 00 00 00	 call	 __RTC_CheckEsp
  00048	8b e5		 mov	 esp, ebp
  0004a	5d		 pop	 ebp
  0004b	c2 04 00	 ret	 4
?AllocateHeap@?$CTempBuffer@D$0IA@VCCRTAllocator@ATL@@@ATL@@AAEXI@Z ENDP ; ATL::CTempBuffer<char,128,ATL::CCRTAllocator>::AllocateHeap
_TEXT	ENDS
EXTRN	__imp_??0exception@@QAE@ABV0@@Z:NEAR
;	COMDAT xdata$x
xdata$x	SEGMENT
$T198440 DD	0ffffffffH
	DD	FLAT:$L198435
$T198438 DD	019930520H
	DD	01H
	DD	FLAT:$T198440
	DD	2 DUP(00H)
	DD	2 DUP(00H)
; Function compile flags: /Odt /RTCsu
xdata$x	ENDS
;	COMDAT ??0logic_error@std@@QAE@ABV01@@Z
_TEXT	SEGMENT
_this$ = -16						; size = 4
__$EHRec$ = -12						; size = 12
___that$ = 8						; size = 4
??0logic_error@std@@QAE@ABV01@@Z PROC NEAR		; std::logic_error::logic_error, COMDAT
; _this$ = ecx
  00000	55		 push	 ebp
  00001	8b ec		 mov	 ebp, esp
  00003	6a ff		 push	 -1
  00005	68 00 00 00 00	 push	 __ehhandler$??0logic_error@std@@QAE@ABV01@@Z
  0000a	64 a1 00 00 00
	00		 mov	 eax, DWORD PTR fs:__except_list
  00010	50		 push	 eax
  00011	64 89 25 00 00
	00 00		 mov	 DWORD PTR fs:__except_list, esp
  00018	51		 push	 ecx
  00019	56		 push	 esi
  0001a	c7 45 f0 cc cc
	cc cc		 mov	 DWORD PTR [ebp-16], -858993460 ; ccccccccH
  00021	89 4d f0	 mov	 DWORD PTR _this$[ebp], ecx
  00024	8b f4		 mov	 esi, esp
  00026	8b 45 08	 mov	 eax, DWORD PTR ___that$[ebp]
  00029	50		 push	 eax
  0002a	8b 4d f0	 mov	 ecx, DWORD PTR _this$[ebp]
  0002d	ff 15 00 00 00
	00		 call	 DWORD PTR __imp_??0exception@@QAE@ABV0@@Z
  00033	3b f4		 cmp	 esi, esp
  00035	e8 00 00 00 00	 call	 __RTC_CheckEsp
  0003a	c7 45 fc 00 00
	00 00		 mov	 DWORD PTR __$EHRec$[ebp+8], 0
  00041	8b 4d f0	 mov	 ecx, DWORD PTR _this$[ebp]
  00044	c7 01 00 00 00
	00		 mov	 DWORD PTR [ecx], OFFSET FLAT:??_7logic_error@std@@6B@
  0004a	8b 55 08	 mov	 edx, DWORD PTR ___that$[ebp]
  0004d	83 c2 0c	 add	 edx, 12			; 0000000cH
  00050	8b f4		 mov	 esi, esp
  00052	52		 push	 edx
  00053	8b 4d f0	 mov	 ecx, DWORD PTR _this$[ebp]
  00056	83 c1 0c	 add	 ecx, 12			; 0000000cH
  00059	ff 15 00 00 00
	00		 call	 DWORD PTR __imp_??0?$basic_string@DU?$char_traits@D@std@@V?$allocator@D@2@@std@@QAE@ABV01@@Z
  0005f	3b f4		 cmp	 esi, esp
  00061	e8 00 00 00 00	 call	 __RTC_CheckEsp
  00066	c7 45 fc ff ff
	ff ff		 mov	 DWORD PTR __$EHRec$[ebp+8], -1
  0006d	8b 45 f0	 mov	 eax, DWORD PTR _this$[ebp]
  00070	8b 4d f4	 mov	 ecx, DWORD PTR __$EHRec$[ebp]
  00073	64 89 0d 00 00
	00 00		 mov	 DWORD PTR fs:__except_list, ecx
  0007a	5e		 pop	 esi
  0007b	83 c4 10	 add	 esp, 16			; 00000010H
  0007e	3b ec		 cmp	 ebp, esp
  00080	e8 00 00 00 00	 call	 __RTC_CheckEsp
  00085	8b e5		 mov	 esp, ebp
  00087	5d		 pop	 ebp
  00088	c2 04 00	 ret	 4
_TEXT	ENDS
;	COMDAT text$x
text$x	SEGMENT
$L198435:
  00000	8b f4		 mov	 esi, esp
  00002	8b 4d f0	 mov	 ecx, DWORD PTR _this$[ebp]
  00005	ff 15 00 00 00
	00		 call	 DWORD PTR __imp_??1exception@@UAE@XZ
  0000b	3b f4		 cmp	 esi, esp
  0000d	e9 00 00 00 00	 jmp	 __RTC_CheckEsp
__ehhandler$??0logic_error@std@@QAE@ABV01@@Z:
  00012	b8 00 00 00 00	 mov	 eax, OFFSET FLAT:$T198438
  00017	e9 00 00 00 00	 jmp	 ___CxxFrameHandler
text$x	ENDS
??0logic_error@std@@QAE@ABV01@@Z ENDP			; std::logic_error::logic_error
CRT$XCU	SEGMENT
_$S6	DD	FLAT:_$E5
; Function compile flags: /Odt /RTCsu
; File d:\boxgit\playbox\playbox\dev\prj\playbox\src\appconfig\config\configappdef.h
CRT$XCU	ENDS
;	COMDAT _$E5
text$yc	SEGMENT
_$E5	PROC NEAR					; COMDAT

; 19   : 	CONF_APP_SWF_PATH,			TYPE_CONFIG_STR,

  00000	55		 push	 ebp
  00001	8b ec		 mov	 ebp, esp
  00003	a1 00 00 00 00	 mov	 eax, DWORD PTR _CONF_APP_SWF_PATH
  00008	a3 00 00 00 00	 mov	 DWORD PTR _CONF_APP, eax
  0000d	8b 0d 00 00 00
	00		 mov	 ecx, DWORD PTR _TYPE_CONFIG_STR
  00013	89 0d 04 00 00
	00		 mov	 DWORD PTR _CONF_APP+4, ecx

; 20   : 	CONF_APP_MAINWND_HOLD,		TYPE_CONFIG_BOOL,

  00019	8b 15 00 00 00
	00		 mov	 edx, DWORD PTR _CONF_APP_MAINWND_HOLD
  0001f	89 15 08 00 00
	00		 mov	 DWORD PTR _CONF_APP+8, edx
  00025	a1 00 00 00 00	 mov	 eax, DWORD PTR _TYPE_CONFIG_BOOL
  0002a	a3 0c 00 00 00	 mov	 DWORD PTR _CONF_APP+12, eax

; 21   : 	CONF_APP_RUN_COUNT,			TYPE_CONFIG_INT,

  0002f	8b 0d 00 00 00
	00		 mov	 ecx, DWORD PTR _CONF_APP_RUN_COUNT
  00035	89 0d 10 00 00
	00		 mov	 DWORD PTR _CONF_APP+16, ecx
  0003b	8b 15 00 00 00
	00		 mov	 edx, DWORD PTR _TYPE_CONFIG_INT
  00041	89 15 14 00 00
	00		 mov	 DWORD PTR _CONF_APP+20, edx

; 22   : 	CONF_APP_PLAYED_GAME,		TYPE_CONFIG_INT,

  00047	a1 00 00 00 00	 mov	 eax, DWORD PTR _CONF_APP_PLAYED_GAME
  0004c	a3 18 00 00 00	 mov	 DWORD PTR _CONF_APP+24, eax
  00051	8b 0d 00 00 00
	00		 mov	 ecx, DWORD PTR _TYPE_CONFIG_INT
  00057	89 0d 1c 00 00
	00		 mov	 DWORD PTR _CONF_APP+28, ecx

; 23   : 	CONF_APP_PLAYED_PC_GAME,	TYPE_CONFIG_INT,

  0005d	8b 15 00 00 00
	00		 mov	 edx, DWORD PTR _CONF_APP_PLAYED_PC_GAME
  00063	89 15 20 00 00
	00		 mov	 DWORD PTR _CONF_APP+32, edx
  00069	a1 00 00 00 00	 mov	 eax, DWORD PTR _TYPE_CONFIG_INT
  0006e	a3 24 00 00 00	 mov	 DWORD PTR _CONF_APP+36, eax

; 24   : 	CONF_APP_PLAYED_ICON_SIZE,	TYPE_CONFIG_INT, //panelicon0,1,2

  00073	8b 0d 00 00 00
	00		 mov	 ecx, DWORD PTR _CONF_APP_PLAYED_ICON_SIZE
  00079	89 0d 28 00 00
	00		 mov	 DWORD PTR _CONF_APP+40, ecx
  0007f	8b 15 00 00 00
	00		 mov	 edx, DWORD PTR _TYPE_CONFIG_INT
  00085	89 15 2c 00 00
	00		 mov	 DWORD PTR _CONF_APP+44, edx

; 25   : 	CONF_APP_PIC_SAVE_PATH,		TYPE_CONFIG_STR

  0008b	a1 00 00 00 00	 mov	 eax, DWORD PTR _CONF_APP_PIC_SAVE_PATH
  00090	a3 30 00 00 00	 mov	 DWORD PTR _CONF_APP+48, eax

; 26   : };

  00095	8b 0d 00 00 00
	00		 mov	 ecx, DWORD PTR _TYPE_CONFIG_STR
  0009b	89 0d 34 00 00
	00		 mov	 DWORD PTR _CONF_APP+52, ecx
  000a1	5d		 pop	 ebp
  000a2	c3		 ret	 0
_$E5	ENDP
text$yc	ENDS
CRT$XCU	SEGMENT
_$S8	DD	FLAT:_$E7
; Function compile flags: /Odt /RTCsu
; File d:\boxgit\playbox\playbox\dev\prj\playbox\src\appconfig\config\configlayoutdef.h
CRT$XCU	ENDS
;	COMDAT _$E7
text$yc	SEGMENT
_$E7	PROC NEAR					; COMDAT

; 17   : 	CONF_LAYOUT_NORMAL,		TYPE_CONFIG_BOOL,

  00000	55		 push	 ebp
  00001	8b ec		 mov	 ebp, esp
  00003	a1 00 00 00 00	 mov	 eax, DWORD PTR _CONF_LAYOUT_NORMAL
  00008	a3 00 00 00 00	 mov	 DWORD PTR _CONF_LAYOUT, eax
  0000d	8b 0d 00 00 00
	00		 mov	 ecx, DWORD PTR _TYPE_CONFIG_BOOL
  00013	89 0d 04 00 00
	00		 mov	 DWORD PTR _CONF_LAYOUT+4, ecx

; 18   : 	CONF_LAYOUT_X_POS,		TYPE_CONFIG_INT,

  00019	8b 15 00 00 00
	00		 mov	 edx, DWORD PTR _CONF_LAYOUT_X_POS
  0001f	89 15 08 00 00
	00		 mov	 DWORD PTR _CONF_LAYOUT+8, edx
  00025	a1 00 00 00 00	 mov	 eax, DWORD PTR _TYPE_CONFIG_INT
  0002a	a3 0c 00 00 00	 mov	 DWORD PTR _CONF_LAYOUT+12, eax

; 19   : 	CONF_LAYOUT_Y_POS,		TYPE_CONFIG_INT,

  0002f	8b 0d 00 00 00
	00		 mov	 ecx, DWORD PTR _CONF_LAYOUT_Y_POS
  00035	89 0d 10 00 00
	00		 mov	 DWORD PTR _CONF_LAYOUT+16, ecx
  0003b	8b 15 00 00 00
	00		 mov	 edx, DWORD PTR _TYPE_CONFIG_INT
  00041	89 15 14 00 00
	00		 mov	 DWORD PTR _CONF_LAYOUT+20, edx

; 20   : 	CONF_LAYOUT_WIDTH,		TYPE_CONFIG_INT,

  00047	a1 00 00 00 00	 mov	 eax, DWORD PTR _CONF_LAYOUT_WIDTH
  0004c	a3 18 00 00 00	 mov	 DWORD PTR _CONF_LAYOUT+24, eax
  00051	8b 0d 00 00 00
	00		 mov	 ecx, DWORD PTR _TYPE_CONFIG_INT
  00057	89 0d 1c 00 00
	00		 mov	 DWORD PTR _CONF_LAYOUT+28, ecx

; 21   : 	CONF_LAYOUT_HEIGHT,		TYPE_CONFIG_INT,

  0005d	8b 15 00 00 00
	00		 mov	 edx, DWORD PTR _CONF_LAYOUT_HEIGHT
  00063	89 15 20 00 00
	00		 mov	 DWORD PTR _CONF_LAYOUT+32, edx
  00069	a1 00 00 00 00	 mov	 eax, DWORD PTR _TYPE_CONFIG_INT
  0006e	a3 24 00 00 00	 mov	 DWORD PTR _CONF_LAYOUT+36, eax

; 22   : 	CONF_LAYOUT_MIN_WIDTH,  TYPE_CONFIG_INT,

  00073	8b 0d 00 00 00
	00		 mov	 ecx, DWORD PTR _CONF_LAYOUT_MIN_WIDTH
  00079	89 0d 28 00 00
	00		 mov	 DWORD PTR _CONF_LAYOUT+40, ecx
  0007f	8b 15 00 00 00
	00		 mov	 edx, DWORD PTR _TYPE_CONFIG_INT
  00085	89 15 2c 00 00
	00		 mov	 DWORD PTR _CONF_LAYOUT+44, edx

; 23   : 	CONF_LAYOUT_MIN_HEIGHT, TYPE_CONFIG_INT

  0008b	a1 00 00 00 00	 mov	 eax, DWORD PTR _CONF_LAYOUT_MIN_HEIGHT
  00090	a3 30 00 00 00	 mov	 DWORD PTR _CONF_LAYOUT+48, eax

; 24   : };

  00095	8b 0d 00 00 00
	00		 mov	 ecx, DWORD PTR _TYPE_CONFIG_INT
  0009b	89 0d 34 00 00
	00		 mov	 DWORD PTR _CONF_LAYOUT+52, ecx
  000a1	5d		 pop	 ebp
  000a2	c3		 ret	 0
_$E7	ENDP
text$yc	ENDS
CRT$XCU	SEGMENT
_$S10	DD	FLAT:_$E9
; Function compile flags: /Odt /RTCsu
; File d:\boxgit\playbox\playbox\dev\prj\playbox\src\appconfig\config\configsettingdef.h
CRT$XCU	ENDS
;	COMDAT _$E9
text$yc	SEGMENT
_$E9	PROC NEAR					; COMDAT

; 25   : 	CONF_SETTING_SKIN_IDX,				TYPE_CONFIG_STR,

  00000	55		 push	 ebp
  00001	8b ec		 mov	 ebp, esp
  00003	a1 00 00 00 00	 mov	 eax, DWORD PTR _CONF_SETTING_SKIN_IDX
  00008	a3 00 00 00 00	 mov	 DWORD PTR _CONF_SETTING, eax
  0000d	8b 0d 00 00 00
	00		 mov	 ecx, DWORD PTR _TYPE_CONFIG_STR
  00013	89 0d 04 00 00
	00		 mov	 DWORD PTR _CONF_SETTING+4, ecx

; 26   : 	CONF_SETTING_CONFIG_MAIN_PAGE,		TYPE_CONFIG_STR,

  00019	8b 15 00 00 00
	00		 mov	 edx, DWORD PTR _CONF_SETTING_CONFIG_MAIN_PAGE
  0001f	89 15 08 00 00
	00		 mov	 DWORD PTR _CONF_SETTING+8, edx
  00025	a1 00 00 00 00	 mov	 eax, DWORD PTR _TYPE_CONFIG_STR
  0002a	a3 0c 00 00 00	 mov	 DWORD PTR _CONF_SETTING+12, eax

; 27   : 	CONF_SETTING_CONFIG_PROBLEM_REPORT,	TYPE_CONFIG_STR,

  0002f	8b 0d 00 00 00
	00		 mov	 ecx, DWORD PTR _CONF_SETTING_CONFIG_PROBLEM_REPORT
  00035	89 0d 10 00 00
	00		 mov	 DWORD PTR _CONF_SETTING+16, ecx
  0003b	8b 15 00 00 00
	00		 mov	 edx, DWORD PTR _TYPE_CONFIG_STR
  00041	89 15 14 00 00
	00		 mov	 DWORD PTR _CONF_SETTING+20, edx

; 28   : 	CONF_SETTING_CONFIG_HOME_PAGE,		TYPE_CONFIG_STR,

  00047	a1 00 00 00 00	 mov	 eax, DWORD PTR _CONF_SETTING_CONFIG_HOME_PAGE
  0004c	a3 18 00 00 00	 mov	 DWORD PTR _CONF_SETTING+24, eax
  00051	8b 0d 00 00 00
	00		 mov	 ecx, DWORD PTR _TYPE_CONFIG_STR
  00057	89 0d 1c 00 00
	00		 mov	 DWORD PTR _CONF_SETTING+28, ecx

; 29   : 	CONF_SETTING_CONFIG_IFASKEXIT,		TYPE_CONFIG_BOOL,

  0005d	8b 15 00 00 00
	00		 mov	 edx, DWORD PTR _CONF_SETTING_CONFIG_IFASKEXIT
  00063	89 15 20 00 00
	00		 mov	 DWORD PTR _CONF_SETTING+32, edx
  00069	a1 00 00 00 00	 mov	 eax, DWORD PTR _TYPE_CONFIG_BOOL
  0006e	a3 24 00 00 00	 mov	 DWORD PTR _CONF_SETTING+36, eax

; 30   : 	CONF_SETTING_CONFIG_EXITCHOICE,		TYPE_CONFIG_BOOL,

  00073	8b 0d 00 00 00
	00		 mov	 ecx, DWORD PTR _CONF_SETTING_CONFIG_EXITCHOICE
  00079	89 0d 28 00 00
	00		 mov	 DWORD PTR _CONF_SETTING+40, ecx
  0007f	8b 15 00 00 00
	00		 mov	 edx, DWORD PTR _TYPE_CONFIG_BOOL
  00085	89 15 2c 00 00
	00		 mov	 DWORD PTR _CONF_SETTING+44, edx

; 31   : 	CONF_SETTING_LOGIN_USER_NAME,		TYPE_CONFIG_STR,

  0008b	a1 00 00 00 00	 mov	 eax, DWORD PTR _CONF_SETTING_LOGIN_USER_NAME
  00090	a3 30 00 00 00	 mov	 DWORD PTR _CONF_SETTING+48, eax
  00095	8b 0d 00 00 00
	00		 mov	 ecx, DWORD PTR _TYPE_CONFIG_STR
  0009b	89 0d 34 00 00
	00		 mov	 DWORD PTR _CONF_SETTING+52, ecx

; 32   : 	CONF_SETTING_LOGIN_PASSWORD,		TYPE_CONFIG_STR,

  000a1	8b 15 00 00 00
	00		 mov	 edx, DWORD PTR _CONF_SETTING_LOGIN_PASSWORD
  000a7	89 15 38 00 00
	00		 mov	 DWORD PTR _CONF_SETTING+56, edx
  000ad	a1 00 00 00 00	 mov	 eax, DWORD PTR _TYPE_CONFIG_STR
  000b2	a3 3c 00 00 00	 mov	 DWORD PTR _CONF_SETTING+60, eax

; 33   : 	CONF_SETTING_NETID,					TYPE_CONFIG_STR,

  000b7	8b 0d 00 00 00
	00		 mov	 ecx, DWORD PTR _CONF_SETTING_NETID
  000bd	89 0d 40 00 00
	00		 mov	 DWORD PTR _CONF_SETTING+64, ecx
  000c3	8b 15 00 00 00
	00		 mov	 edx, DWORD PTR _TYPE_CONFIG_STR
  000c9	89 15 44 00 00
	00		 mov	 DWORD PTR _CONF_SETTING+68, edx

; 34   : 	CONF_SETTING_COLOR,					TYPE_CONFIG_INT,

  000cf	a1 00 00 00 00	 mov	 eax, DWORD PTR _CONF_SETTING_COLOR
  000d4	a3 48 00 00 00	 mov	 DWORD PTR _CONF_SETTING+72, eax
  000d9	8b 0d 00 00 00
	00		 mov	 ecx, DWORD PTR _TYPE_CONFIG_INT
  000df	89 0d 4c 00 00
	00		 mov	 DWORD PTR _CONF_SETTING+76, ecx

; 35   : 	CONF_SETTING_LIGHT,					TYPE_CONFIG_INT,

  000e5	8b 15 00 00 00
	00		 mov	 edx, DWORD PTR _CONF_SETTING_LIGHT
  000eb	89 15 50 00 00
	00		 mov	 DWORD PTR _CONF_SETTING+80, edx
  000f1	a1 00 00 00 00	 mov	 eax, DWORD PTR _TYPE_CONFIG_INT
  000f6	a3 54 00 00 00	 mov	 DWORD PTR _CONF_SETTING+84, eax

; 36   : 	CONF_SETTING_COLOR_BTN_INDEX,		TYPE_CONFIG_INT,

  000fb	8b 0d 00 00 00
	00		 mov	 ecx, DWORD PTR _CONF_SETTING_COLOR_BTN_INDEX
  00101	89 0d 58 00 00
	00		 mov	 DWORD PTR _CONF_SETTING+88, ecx
  00107	8b 15 00 00 00
	00		 mov	 edx, DWORD PTR _TYPE_CONFIG_INT
  0010d	89 15 5c 00 00
	00		 mov	 DWORD PTR _CONF_SETTING+92, edx

; 37   : 	CONF_SETTING_COLOR_USER,			TYPE_CONFIG_INT,

  00113	a1 00 00 00 00	 mov	 eax, DWORD PTR _CONF_SETTING_COLOR_USER
  00118	a3 60 00 00 00	 mov	 DWORD PTR _CONF_SETTING+96, eax
  0011d	8b 0d 00 00 00
	00		 mov	 ecx, DWORD PTR _TYPE_CONFIG_INT
  00123	89 0d 64 00 00
	00		 mov	 DWORD PTR _CONF_SETTING+100, ecx

; 38   : 	CONF_SETTING_FIRST_TIME_CHANGESKIN, TYPE_CONFIG_BOOL

  00129	8b 15 00 00 00
	00		 mov	 edx, DWORD PTR _CONF_SETTING_FIRST_TIME_CHANGESKIN
  0012f	89 15 68 00 00
	00		 mov	 DWORD PTR _CONF_SETTING+104, edx

; 39   : };

  00135	a1 00 00 00 00	 mov	 eax, DWORD PTR _TYPE_CONFIG_BOOL
  0013a	a3 6c 00 00 00	 mov	 DWORD PTR _CONF_SETTING+108, eax
  0013f	5d		 pop	 ebp
  00140	c3		 ret	 0
_$E9	ENDP
text$yc	ENDS
_BSS	SEGMENT
_CONF_APP DD	0eH DUP (?)
_CONF_LAYOUT DD	0eH DUP (?)
_CONF_SETTING DD 01cH DUP (?)
_BSS	ENDS
END
