; Listing generated by Microsoft (R) Optimizing Compiler Version 13.10.3077 

	TITLE	.\UpdateTipDlg.cpp
	.386P
include listing.inc
if @Version gt 510
.model FLAT
else
_TEXT	SEGMENT PARA USE32 PUBLIC 'CODE'
_TEXT	ENDS
_DATA	SEGMENT DWORD USE32 PUBLIC 'DATA'
_DATA	ENDS
CONST	SEGMENT DWORD USE32 PUBLIC 'CONST'
CONST	ENDS
_BSS	SEGMENT DWORD USE32 PUBLIC 'BSS'
_BSS	ENDS
$$SYMBOLS	SEGMENT BYTE USE32 'DEBSYM'
$$SYMBOLS	ENDS
_TLS	SEGMENT DWORD USE32 PUBLIC 'TLS'
_TLS	ENDS
;	COMDAT ??_C@_0BL@MMAJDJCB@pszBuffer?$FLnNewLength?$FN?5?$DN?$DN?50?$AA@
CONST	SEGMENT DWORD USE32 PUBLIC 'CONST'
CONST	ENDS
;	COMDAT ??_C@_0EN@IBFBLEEG@D?3?2Program?5Files?5?$CIx86?$CJ?2Microsoft@
CONST	SEGMENT DWORD USE32 PUBLIC 'CONST'
CONST	ENDS
rdata$r	SEGMENT DWORD USE32 PUBLIC 'CONST'
rdata$r	ENDS
xdata$x	SEGMENT DWORD USE32 PUBLIC 'CONST'
xdata$x	ENDS
text$AFX_COL1	SEGMENT PARA USE32 PUBLIC ''
text$AFX_COL1	ENDS
text$yc	SEGMENT PARA USE32 PUBLIC 'CODE'
text$yc	ENDS
CRT$XCA	SEGMENT DWORD USE32 PUBLIC 'DATA'
CRT$XCA	ENDS
CRT$XCU	SEGMENT DWORD USE32 PUBLIC 'DATA'
CRT$XCU	ENDS
CRT$XCL	SEGMENT DWORD USE32 PUBLIC 'DATA'
CRT$XCL	ENDS
CRT$XCC	SEGMENT DWORD USE32 PUBLIC 'DATA'
CRT$XCC	ENDS
CRT$XCZ	SEGMENT DWORD USE32 PUBLIC 'DATA'
CRT$XCZ	ENDS
text$yd	SEGMENT PARA USE32 PUBLIC 'CODE'
text$yd	ENDS
ATL$__m	SEGMENT DWORD USE32 PUBLIC ''
ATL$__m	ENDS
ATL$__z	SEGMENT DWORD USE32 PUBLIC ''
ATL$__z	ENDS
ATL$__a	SEGMENT DWORD USE32 PUBLIC ''
ATL$__a	ENDS
;	COMDAT ??_GCUpdateTipDlg@@UAEPAXI@Z
_TEXT	SEGMENT PARA USE32 PUBLIC 'CODE'
_TEXT	ENDS
;	COMDAT ??0CHyperLinkExpand@@QAE@XZ
_TEXT	SEGMENT PARA USE32 PUBLIC 'CODE'
_TEXT	ENDS
;	COMDAT ??1CHyperLinkExpand@@UAE@XZ
_TEXT	SEGMENT PARA USE32 PUBLIC 'CODE'
_TEXT	ENDS
;	COMDAT ??_GCHyperLinkExpand@@UAEPAXI@Z
_TEXT	SEGMENT PARA USE32 PUBLIC 'CODE'
_TEXT	ENDS
;	COMDAT ??B?$CComPtrBase@UITypeInfo2@@@ATL@@QBEPAUITypeInfo2@@XZ
_TEXT	SEGMENT PARA USE32 PUBLIC 'CODE'
_TEXT	ENDS
;	COMDAT ?equal@?$istreambuf_iterator@DU?$char_traits@D@std@@@std@@QBE_NABV12@@Z
_TEXT	SEGMENT PARA USE32 PUBLIC 'CODE'
_TEXT	ENDS
;	COMDAT ?equal@?$istreambuf_iterator@_WU?$char_traits@_W@std@@@std@@QBE_NABV12@@Z
_TEXT	SEGMENT PARA USE32 PUBLIC 'CODE'
_TEXT	ENDS
;	COMDAT ?StringFindString@?$ChTraitsCRT@D@ATL@@SAPBDPBD0@Z
_TEXT	SEGMENT PARA USE32 PUBLIC 'CODE'
_TEXT	ENDS
;	COMDAT ?StringFindString@?$ChTraitsCRT@D@ATL@@SAPADPADPBD@Z
_TEXT	SEGMENT PARA USE32 PUBLIC 'CODE'
_TEXT	ENDS
;	COMDAT ?SafeStringLen@?$ChTraitsCRT@D@ATL@@SAHPBD@Z
_TEXT	SEGMENT PARA USE32 PUBLIC 'CODE'
_TEXT	ENDS
;	COMDAT ?Unlock@?$CComCritSecLock@VCComCriticalSection@ATL@@@ATL@@QAEXXZ
_TEXT	SEGMENT PARA USE32 PUBLIC 'CODE'
_TEXT	ENDS
;	COMDAT ??$_Maklocstr@D@std@@YAPADPBDPADABU_Cvtvec@@@Z
_TEXT	SEGMENT PARA USE32 PUBLIC 'CODE'
_TEXT	ENDS
;	COMDAT ??_R3?$numpunct@_W@std@@8
rdata$r	SEGMENT DWORD USE32 PUBLIC 'CONST'
rdata$r	ENDS
;	COMDAT ??_R3?$numpunct@D@std@@8
rdata$r	SEGMENT DWORD USE32 PUBLIC 'CONST'
rdata$r	ENDS
;	COMDAT ??_R3CUpdateTipDlg@@8
rdata$r	SEGMENT DWORD USE32 PUBLIC 'CONST'
rdata$r	ENDS
;	COMDAT ??_R3CHyperLinkExpand@@8
rdata$r	SEGMENT DWORD USE32 PUBLIC 'CONST'
rdata$r	ENDS
;	COMDAT ??_R2?$numpunct@_W@std@@8
rdata$r	SEGMENT DWORD USE32 PUBLIC 'CONST'
rdata$r	ENDS
;	COMDAT ??_R2?$numpunct@D@std@@8
rdata$r	SEGMENT DWORD USE32 PUBLIC 'CONST'
rdata$r	ENDS
;	COMDAT ??_R2CUpdateTipDlg@@8
rdata$r	SEGMENT DWORD USE32 PUBLIC 'CONST'
rdata$r	ENDS
;	COMDAT ??_R2CHyperLinkExpand@@8
rdata$r	SEGMENT DWORD USE32 PUBLIC 'CONST'
rdata$r	ENDS
;	COMDAT ??_R1A@?0A@A@?$numpunct@_W@std@@8
rdata$r	SEGMENT DWORD USE32 PUBLIC 'CONST'
rdata$r	ENDS
;	COMDAT ??_R1A@?0A@A@facet@locale@std@@8
rdata$r	SEGMENT DWORD USE32 PUBLIC 'CONST'
rdata$r	ENDS
;	COMDAT ??_R0?AVfacet@locale@std@@@8
_DATA	SEGMENT DWORD USE32 PUBLIC 'DATA'
_DATA	ENDS
;	COMDAT ??_R1A@?0A@A@?$numpunct@D@std@@8
rdata$r	SEGMENT DWORD USE32 PUBLIC 'CONST'
rdata$r	ENDS
;	COMDAT ??_R1A@?0A@A@CDialog@@8
rdata$r	SEGMENT DWORD USE32 PUBLIC 'CONST'
rdata$r	ENDS
;	COMDAT ??_R0?AVCDialog@@@8
_DATA	SEGMENT DWORD USE32 PUBLIC 'DATA'
_DATA	ENDS
;	COMDAT ??_R1A@?0A@A@CUpdateTipDlg@@8
rdata$r	SEGMENT DWORD USE32 PUBLIC 'CONST'
rdata$r	ENDS
;	COMDAT ??_R1A@?0A@A@CObject@@8
rdata$r	SEGMENT DWORD USE32 PUBLIC 'CONST'
rdata$r	ENDS
;	COMDAT ??_R0?AVCObject@@@8
_DATA	SEGMENT DWORD USE32 PUBLIC 'DATA'
_DATA	ENDS
;	COMDAT ??_R1A@?0A@A@CCmdTarget@@8
rdata$r	SEGMENT DWORD USE32 PUBLIC 'CONST'
rdata$r	ENDS
;	COMDAT ??_R0?AVCCmdTarget@@@8
_DATA	SEGMENT DWORD USE32 PUBLIC 'DATA'
_DATA	ENDS
;	COMDAT ??_R1A@?0A@A@CWnd@@8
rdata$r	SEGMENT DWORD USE32 PUBLIC 'CONST'
rdata$r	ENDS
;	COMDAT ??_R0?AVCWnd@@@8
_DATA	SEGMENT DWORD USE32 PUBLIC 'DATA'
_DATA	ENDS
;	COMDAT ??_R1A@?0A@A@CStatic@@8
rdata$r	SEGMENT DWORD USE32 PUBLIC 'CONST'
rdata$r	ENDS
;	COMDAT ??_R1A@?0A@A@CHyperLink@@8
rdata$r	SEGMENT DWORD USE32 PUBLIC 'CONST'
rdata$r	ENDS
;	COMDAT ??_R1A@?0A@A@CHyperLinkExpand@@8
rdata$r	SEGMENT DWORD USE32 PUBLIC 'CONST'
rdata$r	ENDS
;	COMDAT ??_R0?AV?$numpunct@_W@std@@@8
_DATA	SEGMENT DWORD USE32 PUBLIC 'DATA'
_DATA	ENDS
;	COMDAT ??_R0?AV?$numpunct@D@std@@@8
_DATA	SEGMENT DWORD USE32 PUBLIC 'DATA'
_DATA	ENDS
;	COMDAT ??_R0?AVCUpdateTipDlg@@@8
_DATA	SEGMENT DWORD USE32 PUBLIC 'DATA'
_DATA	ENDS
;	COMDAT ??_R0?AVCStatic@@@8
_DATA	SEGMENT DWORD USE32 PUBLIC 'DATA'
_DATA	ENDS
;	COMDAT ??_R0?AVCHyperLink@@@8
_DATA	SEGMENT DWORD USE32 PUBLIC 'DATA'
_DATA	ENDS
;	COMDAT ??_R0?AVCHyperLinkExpand@@@8
_DATA	SEGMENT DWORD USE32 PUBLIC 'DATA'
_DATA	ENDS
;	COMDAT ??0?$allocator@_W@std@@QAE@XZ
_TEXT	SEGMENT PARA USE32 PUBLIC 'CODE'
_TEXT	ENDS
;	COMDAT ??0?$allocator@D@std@@QAE@ABV01@@Z
_TEXT	SEGMENT PARA USE32 PUBLIC 'CODE'
_TEXT	ENDS
;	COMDAT ??0?$allocator@D@std@@QAE@XZ
_TEXT	SEGMENT PARA USE32 PUBLIC 'CODE'
_TEXT	ENDS
;	COMDAT ?deallocate@?$allocator@D@std@@QAEXPADI@Z
_TEXT	SEGMENT PARA USE32 PUBLIC 'CODE'
_TEXT	ENDS
;	COMDAT ?max_size@?$allocator@D@std@@QBEIXZ
_TEXT	SEGMENT PARA USE32 PUBLIC 'CODE'
_TEXT	ENDS
;	COMDAT ?allocate@?$allocator@D@std@@QAEPADI@Z
_TEXT	SEGMENT PARA USE32 PUBLIC 'CODE'
_TEXT	ENDS
;	COMDAT ??$_Allocate@D@std@@YAPADIPAD@Z
_TEXT	SEGMENT PARA USE32 PUBLIC 'CODE'
_TEXT	ENDS
;	COMDAT ??_G?$numpunct@_W@std@@MAEPAXI@Z
_TEXT	SEGMENT PARA USE32 PUBLIC 'CODE'
_TEXT	ENDS
;	COMDAT ??_R4?$numpunct@_W@std@@6B@
rdata$r	SEGMENT DWORD USE32 PUBLIC 'CONST'
rdata$r	ENDS
;	COMDAT ??_G?$numpunct@D@std@@MAEPAXI@Z
_TEXT	SEGMENT PARA USE32 PUBLIC 'CODE'
_TEXT	ENDS
;	COMDAT ??_R4?$numpunct@D@std@@6B@
rdata$r	SEGMENT DWORD USE32 PUBLIC 'CONST'
rdata$r	ENDS
;	COMDAT ??_R4CUpdateTipDlg@@6B@
rdata$r	SEGMENT DWORD USE32 PUBLIC 'CONST'
rdata$r	ENDS
;	COMDAT ??_R4CHyperLinkExpand@@6B@
rdata$r	SEGMENT DWORD USE32 PUBLIC 'CONST'
rdata$r	ENDS
;	COMDAT ??_C@_0EN@CBMLGOH@D?3?2Program?5Files?5?$CIx86?$CJ?2Microsoft@
CONST	SEGMENT DWORD USE32 PUBLIC 'CONST'
CONST	ENDS
;	COMDAT ?_Psave@?$_Facetptr@V?$numpunct@_W@std@@@std@@2PBVfacet@locale@2@B
_DATA	SEGMENT DWORD USE32 PUBLIC 'DATA'
_DATA	ENDS
;	COMDAT ?_Psave@?$_Facetptr@V?$numpunct@D@std@@@std@@2PBVfacet@locale@2@B
_DATA	SEGMENT DWORD USE32 PUBLIC 'DATA'
_DATA	ENDS
;	COMDAT ?Unlock@CComCriticalSection@ATL@@QAEJXZ
_TEXT	SEGMENT PARA USE32 PUBLIC 'CODE'
_TEXT	ENDS
;	COMDAT ??_C@_0FG@LDNDNCJM@D?3?2Program?5Files?5?$CIx86?$CJ?2Microsoft@
CONST	SEGMENT DWORD USE32 PUBLIC 'CONST'
CONST	ENDS
;	COMDAT ??_C@_09HIEJFN@m_bLocked?$AA@
CONST	SEGMENT DWORD USE32 PUBLIC 'CONST'
CONST	ENDS
;	COMDAT ?_Psave@?$_Facetptr@V?$ctype@_W@std@@@std@@2PBVfacet@locale@2@B
_DATA	SEGMENT DWORD USE32 PUBLIC 'DATA'
_DATA	ENDS
;	COMDAT ?_Psave@?$_Facetptr@V?$ctype@D@std@@@std@@2PBVfacet@locale@2@B
_DATA	SEGMENT DWORD USE32 PUBLIC 'DATA'
_DATA	ENDS
;	COMDAT ??$_Maklocchr@_W@std@@YA_WDPA_WABU_Cvtvec@@@Z
_TEXT	SEGMENT PARA USE32 PUBLIC 'CODE'
_TEXT	ENDS
;	COMDAT ??$_DebugHeapDelete@X@std@@YAXPAX@Z
_TEXT	SEGMENT PARA USE32 PUBLIC 'CODE'
_TEXT	ENDS
;	COMDAT ??$_Maklocstr@_W@std@@YAPA_WPBDPA_WABU_Cvtvec@@@Z
_TEXT	SEGMENT PARA USE32 PUBLIC 'CODE'
_TEXT	ENDS
;	COMDAT ??$_Maklocchr@D@std@@YADDPADABU_Cvtvec@@@Z
_TEXT	SEGMENT PARA USE32 PUBLIC 'CODE'
_TEXT	ENDS
;	COMDAT ??_C@_04LOAJBDKD@true?$AA@
CONST	SEGMENT DWORD USE32 PUBLIC 'CONST'
CONST	ENDS
;	COMDAT ??_C@_05LAPONLG@false?$AA@
CONST	SEGMENT DWORD USE32 PUBLIC 'CONST'
CONST	ENDS
;	COMDAT _wmemcpy
_TEXT	SEGMENT PARA USE32 PUBLIC 'CODE'
_TEXT	ENDS
;	COMDAT ?max_size@?$allocator@_W@std@@QBEIXZ
_TEXT	SEGMENT PARA USE32 PUBLIC 'CODE'
_TEXT	ENDS
;	COMDAT ?allocate@?$allocator@_W@std@@QAEPA_WI@Z
_TEXT	SEGMENT PARA USE32 PUBLIC 'CODE'
_TEXT	ENDS
;	COMDAT ??$_Allocate@_W@std@@YAPA_WIPA_W@Z
_TEXT	SEGMENT PARA USE32 PUBLIC 'CODE'
_TEXT	ENDS
;	COMDAT ??_C@_01GFHCPBMG@C?$AA@
CONST	SEGMENT DWORD USE32 PUBLIC 'CONST'
CONST	ENDS
;	COMDAT ?_Peek@?$istreambuf_iterator@_WU?$char_traits@_W@std@@@std@@AAE_WXZ
_TEXT	SEGMENT PARA USE32 PUBLIC 'CODE'
_TEXT	ENDS
;	COMDAT ?_Peek@?$istreambuf_iterator@DU?$char_traits@D@std@@@std@@AAEDXZ
_TEXT	SEGMENT PARA USE32 PUBLIC 'CODE'
_TEXT	ENDS
;	COMDAT ??$use_facet@V?$ctype@_W@std@@@std@@YAABV?$ctype@_W@0@ABVlocale@0@@Z
_TEXT	SEGMENT PARA USE32 PUBLIC 'CODE'
_TEXT	ENDS
;	COMDAT ??_S?$ctype@_W@std@@6B@
CONST	SEGMENT DWORD USE32 PUBLIC 'CONST'
CONST	ENDS
;	COMDAT ??_R4?$ctype@_W@std@@6B@
rdata$r	SEGMENT DWORD USE32 PUBLIC 'CONST'
rdata$r	ENDS
;	COMDAT ??_R0?AV?$ctype@_W@std@@@8
_DATA	SEGMENT DWORD USE32 PUBLIC 'DATA'
_DATA	ENDS
;	COMDAT ??_R3?$ctype@_W@std@@8
rdata$r	SEGMENT DWORD USE32 PUBLIC 'CONST'
rdata$r	ENDS
;	COMDAT ??_R2?$ctype@_W@std@@8
rdata$r	SEGMENT DWORD USE32 PUBLIC 'CONST'
rdata$r	ENDS
;	COMDAT ??_R1A@?0A@A@?$ctype@_W@std@@8
rdata$r	SEGMENT DWORD USE32 PUBLIC 'CONST'
rdata$r	ENDS
;	COMDAT ??_R1A@?0A@A@ctype_base@std@@8
rdata$r	SEGMENT DWORD USE32 PUBLIC 'CONST'
rdata$r	ENDS
;	COMDAT ??_R0?AUctype_base@std@@@8
_DATA	SEGMENT DWORD USE32 PUBLIC 'DATA'
_DATA	ENDS
;	COMDAT ??_G?$ctype@_W@std@@MAEPAXI@Z
_TEXT	SEGMENT PARA USE32 PUBLIC 'CODE'
_TEXT	ENDS
;	COMDAT ??_C@_08EPJLHIJG@bad?5cast?$AA@
CONST	SEGMENT DWORD USE32 PUBLIC 'CONST'
CONST	ENDS
;	COMDAT __TI2?AVbad_cast@@
xdata$x	SEGMENT DWORD USE32 PUBLIC 'CONST'
xdata$x	ENDS
;	COMDAT __CTA2?AVbad_cast@@
xdata$x	SEGMENT DWORD USE32 PUBLIC 'CONST'
xdata$x	ENDS
;	COMDAT __CT??_R0?AVbad_cast@@@8??0bad_cast@@QAE@ABV0@@Z12
xdata$x	SEGMENT DWORD USE32 PUBLIC 'CONST'
xdata$x	ENDS
;	COMDAT ??_R0?AVbad_cast@@@8
_DATA	SEGMENT DWORD USE32 PUBLIC 'DATA'
_DATA	ENDS
;	COMDAT __CT??_R0?AVexception@@@8??0exception@@QAE@ABV0@@Z12
xdata$x	SEGMENT DWORD USE32 PUBLIC 'CONST'
xdata$x	ENDS
;	COMDAT ??_R0?AVexception@@@8
_DATA	SEGMENT DWORD USE32 PUBLIC 'DATA'
_DATA	ENDS
;	COMDAT ??$_DebugHeapDelete@Vfacet@locale@std@@@std@@YAXPAVfacet@locale@0@@Z
_TEXT	SEGMENT PARA USE32 PUBLIC 'CODE'
_TEXT	ENDS
;	COMDAT ??$use_facet@V?$ctype@D@std@@@std@@YAABV?$ctype@D@0@ABVlocale@0@@Z
_TEXT	SEGMENT PARA USE32 PUBLIC 'CODE'
_TEXT	ENDS
;	COMDAT ??_S?$ctype@D@std@@6B@
CONST	SEGMENT DWORD USE32 PUBLIC 'CONST'
CONST	ENDS
;	COMDAT ??_R4?$ctype@D@std@@6B@
rdata$r	SEGMENT DWORD USE32 PUBLIC 'CONST'
rdata$r	ENDS
;	COMDAT ??_R0?AV?$ctype@D@std@@@8
_DATA	SEGMENT DWORD USE32 PUBLIC 'DATA'
_DATA	ENDS
;	COMDAT ??_R3?$ctype@D@std@@8
rdata$r	SEGMENT DWORD USE32 PUBLIC 'CONST'
rdata$r	ENDS
;	COMDAT ??_R2?$ctype@D@std@@8
rdata$r	SEGMENT DWORD USE32 PUBLIC 'CONST'
rdata$r	ENDS
;	COMDAT ??_R1A@?0A@A@?$ctype@D@std@@8
rdata$r	SEGMENT DWORD USE32 PUBLIC 'CONST'
rdata$r	ENDS
;	COMDAT ??_G?$ctype@D@std@@MAEPAXI@Z
_TEXT	SEGMENT PARA USE32 PUBLIC 'CODE'
_TEXT	ENDS
;	COMDAT ??_S?$numpunct@_W@std@@6B@
CONST	SEGMENT DWORD USE32 PUBLIC 'CONST'
CONST	ENDS
;	COMDAT ??_S?$numpunct@D@std@@6B@
CONST	SEGMENT DWORD USE32 PUBLIC 'CONST'
CONST	ENDS
;	COMDAT _wmemmove
_TEXT	SEGMENT PARA USE32 PUBLIC 'CODE'
_TEXT	ENDS
;	COMDAT ?deallocate@?$allocator@_W@std@@QAEXPA_WI@Z
_TEXT	SEGMENT PARA USE32 PUBLIC 'CODE'
_TEXT	ENDS
;	COMDAT ??0?$allocator@_W@std@@QAE@ABV01@@Z
_TEXT	SEGMENT PARA USE32 PUBLIC 'CODE'
_TEXT	ENDS
;	COMDAT ??_C@_0BA@GNIEOBOF@nNewLength?5?$DO?$DN?50?$AA@
CONST	SEGMENT DWORD USE32 PUBLIC 'CONST'
CONST	ENDS
;	COMDAT ??_C@_0FJ@DMHPDOJC@D?3?2Program?5Files?5?$CIx86?$CJ?2Microsoft@
CONST	SEGMENT DWORD USE32 PUBLIC 'CONST'
CONST	ENDS
;	COMDAT ??_C@_0N@ILOMLJGA@nLength?5?$DO?$DN?50?$AA@
CONST	SEGMENT DWORD USE32 PUBLIC 'CONST'
CONST	ENDS
;	COMDAT ??_C@_0CD@EEFFJEGJ@nLength?5?$DM?$DN?5GetData?$CI?$CJ?9?$DOnAllocLeng@
CONST	SEGMENT DWORD USE32 PUBLIC 'CONST'
CONST	ENDS
;	COMDAT ?AtlThrow@ATL@@YGXJ@Z
_TEXT	SEGMENT PARA USE32 PUBLIC 'CODE'
_TEXT	ENDS
;	COMDAT ??RCTraceFileAndLineInfo@ATL@@QBAXKIPBDZZ
_TEXT	SEGMENT PARA USE32 PUBLIC 'CODE'
_TEXT	ENDS
;	COMDAT ?TraceV@CTrace@ATL@@QBAXPBDHKI0PAD@Z
_TEXT	SEGMENT PARA USE32 PUBLIC 'CODE'
_TEXT	ENDS
;	COMDAT ??0CTraceFileAndLineInfo@ATL@@QAE@PBDH@Z
_TEXT	SEGMENT PARA USE32 PUBLIC 'CODE'
_TEXT	ENDS
;	COMDAT ??_C@_0FI@NHHJANPC@D?3?2Program?5Files?5?$CIx86?$CJ?2Microsoft@
CONST	SEGMENT DWORD USE32 PUBLIC 'CONST'
CONST	ENDS
;	COMDAT ??_C@_0BF@IAAKIJDJ@AtlThrow?3?5hr?5?$DN?50x?$CFx?6?$AA@
CONST	SEGMENT DWORD USE32 PUBLIC 'CONST'
CONST	ENDS
;	COMDAT ??BCTraceCategory@ATL@@QBEKXZ
_TEXT	SEGMENT PARA USE32 PUBLIC 'CODE'
_TEXT	ENDS
;	COMDAT ??_C@_0FH@KDPNIMBO@D?3?2Program?5Files?5?$CIx86?$CJ?2Microsoft@
CONST	SEGMENT DWORD USE32 PUBLIC 'CONST'
CONST	ENDS
;	COMDAT ?IsShared@CStringData@ATL@@QBE_NXZ
_TEXT	SEGMENT PARA USE32 PUBLIC 'CODE'
_TEXT	ENDS
;	COMDAT ?data@CStringData@ATL@@QAEPAXXZ
_TEXT	SEGMENT PARA USE32 PUBLIC 'CODE'
_TEXT	ENDS
;	COMDAT ?Release@CStringData@ATL@@QAEXXZ
_TEXT	SEGMENT PARA USE32 PUBLIC 'CODE'
_TEXT	ENDS
;	COMDAT ??_C@_0L@OIIMFBNE@nRefs?5?$CB?$DN?50?$AA@
CONST	SEGMENT DWORD USE32 PUBLIC 'CONST'
CONST	ENDS
;	COMDAT ??_C@_0CB@GFHAPKDK@pOldData?9?$DOnAllocLength?5?$DM?5nLength@
CONST	SEGMENT DWORD USE32 PUBLIC 'CONST'
CONST	ENDS
;	COMDAT ?bViewInfo@?1??OnViewUpdateInfo@CUpdateTipDlg@@QAEJIJ@Z@4_NA
_DATA	SEGMENT DWORD USE32 PUBLIC 'DATA'
_DATA	ENDS
;	COMDAT ?IsLocked@CStringData@ATL@@QBE_NXZ
_TEXT	SEGMENT PARA USE32 PUBLIC 'CODE'
_TEXT	ENDS
;	COMDAT ?_messageEntries@CUpdateTipDlg@@0QBUAFX_MSGMAP_ENTRY@@B
CONST	SEGMENT DWORD USE32 PUBLIC 'CONST'
CONST	ENDS
;	COMDAT ?messageMap@CUpdateTipDlg@@1UAFX_MSGMAP@@B
CONST	SEGMENT DWORD USE32 PUBLIC 'CONST'
CONST	ENDS
;	COMDAT ??_7CHyperLinkExpand@@6B@
CONST	SEGMENT DWORD USE32 PUBLIC 'CONST'
CONST	ENDS
;	COMDAT ??_C@_0BA@GOIMFHNK@pStringMgr?5?$CB?$DN?50?$AA@
CONST	SEGMENT DWORD USE32 PUBLIC 'CONST'
CONST	ENDS
;	COMDAT ?GetDefaultManager@?$StrTraitMFC_DLL@DV?$ChTraitsCRT@D@ATL@@@@SAPAUIAtlStringMgr@ATL@@XZ
_TEXT	SEGMENT PARA USE32 PUBLIC 'CODE'
_TEXT	ENDS
;	COMDAT ??_7CUpdateTipDlg@@6B@
CONST	SEGMENT DWORD USE32 PUBLIC 'CONST'
CONST	ENDS
;	COMDAT ?classCUpdateTipDlg@CUpdateTipDlg@@2UCRuntimeClass@@B
CONST	SEGMENT DWORD USE32 PUBLIC 'CONST'
CONST	ENDS
;	COMDAT ?_messageEntries@CHyperLinkExpand@@0QBUAFX_MSGMAP_ENTRY@@B
CONST	SEGMENT DWORD USE32 PUBLIC 'CONST'
CONST	ENDS
;	COMDAT ?messageMap@CHyperLinkExpand@@1UAFX_MSGMAP@@B
CONST	SEGMENT DWORD USE32 PUBLIC 'CONST'
CONST	ENDS
sxdata	SEGMENT DWORD USE32 'SXDATA'
sxdata	ENDS
FLAT	GROUP _DATA, CONST, _BSS
	ASSUME	CS: FLAT, DS: FLAT, SS: FLAT
endif

INCLUDELIB MSVCRTD
INCLUDELIB OLDNAMES

PUBLIC	?_messageEntries@CHyperLinkExpand@@0QBUAFX_MSGMAP_ENTRY@@B ; CHyperLinkExpand::_messageEntries
PUBLIC	?messageMap@CHyperLinkExpand@@1UAFX_MSGMAP@@B	; CHyperLinkExpand::messageMap
PUBLIC	?OnLButtonDown@CHyperLinkExpand@@QAEXIVCPoint@@@Z ; CHyperLinkExpand::OnLButtonDown
PUBLIC	?OnLButtonUp@CHyperLinkExpand@@QAEXIVCPoint@@@Z	; CHyperLinkExpand::OnLButtonUp
PUBLIC	?classCUpdateTipDlg@CUpdateTipDlg@@2UCRuntimeClass@@B ; CUpdateTipDlg::classCUpdateTipDlg
PUBLIC	?_messageEntries@CUpdateTipDlg@@0QBUAFX_MSGMAP_ENTRY@@B ; CUpdateTipDlg::_messageEntries
PUBLIC	?messageMap@CUpdateTipDlg@@1UAFX_MSGMAP@@B	; CUpdateTipDlg::messageMap
PUBLIC	?OnViewUpdateInfo@CUpdateTipDlg@@QAEJIJ@Z	; CUpdateTipDlg::OnViewUpdateInfo
EXTRN	?GetThisMessageMap@CHyperLink@@KGPBUAFX_MSGMAP@@XZ:NEAR ; CHyperLink::GetThisMessageMap
EXTRN	?GetThisClass@CDialog@@SGPAUCRuntimeClass@@XZ:NEAR ; CDialog::GetThisClass
EXTRN	?GetThisMessageMap@CDialog@@KGPBUAFX_MSGMAP@@XZ:NEAR ; CDialog::GetThisMessageMap
;	COMDAT ?_messageEntries@CHyperLinkExpand@@0QBUAFX_MSGMAP_ENTRY@@B
CONST	SEGMENT
?_messageEntries@CHyperLinkExpand@@0QBUAFX_MSGMAP_ENTRY@@B DD 0201H ; CHyperLinkExpand::_messageEntries
	DD	00H
	DD	00H
	DD	00H
	DD	032H
	DD	FLAT:?OnLButtonDown@CHyperLinkExpand@@QAEXIVCPoint@@@Z
	DD	0202H
	DD	00H
	DD	00H
	DD	00H
	DD	032H
	DD	FLAT:?OnLButtonUp@CHyperLinkExpand@@QAEXIVCPoint@@@Z
	DD	00H
	DD	00H
	DD	00H
	DD	00H
	DD	00H
	DD	00H
CONST	ENDS
;	COMDAT ?messageMap@CHyperLinkExpand@@1UAFX_MSGMAP@@B
CONST	SEGMENT
?messageMap@CHyperLinkExpand@@1UAFX_MSGMAP@@B DD FLAT:?GetThisMessageMap@CHyperLink@@KGPBUAFX_MSGMAP@@XZ ; CHyperLinkExpand::messageMap
	DD	FLAT:?_messageEntries@CHyperLinkExpand@@0QBUAFX_MSGMAP_ENTRY@@B
CONST	ENDS
CONST	SEGMENT
$SG187187 DB	'CUpdateTipDlg', 00H
CONST	ENDS
;	COMDAT ?classCUpdateTipDlg@CUpdateTipDlg@@2UCRuntimeClass@@B
CONST	SEGMENT
?classCUpdateTipDlg@CUpdateTipDlg@@2UCRuntimeClass@@B DD FLAT:$SG187187 ; CUpdateTipDlg::classCUpdateTipDlg
	DD	0178H
	DD	0ffffH
	DD	00H
	DD	FLAT:?GetThisClass@CDialog@@SGPAUCRuntimeClass@@XZ
	DD	00H
	DD	00H
CONST	ENDS
;	COMDAT ?_messageEntries@CUpdateTipDlg@@0QBUAFX_MSGMAP_ENTRY@@B
CONST	SEGMENT
?_messageEntries@CUpdateTipDlg@@0QBUAFX_MSGMAP_ENTRY@@B DD 02fd9H ; CUpdateTipDlg::_messageEntries
	DD	00H
	DD	00H
	DD	00H
	DD	0eH
	DD	FLAT:?OnViewUpdateInfo@CUpdateTipDlg@@QAEJIJ@Z
	DD	00H
	DD	00H
	DD	00H
	DD	00H
	DD	00H
	DD	00H
CONST	ENDS
;	COMDAT ?messageMap@CUpdateTipDlg@@1UAFX_MSGMAP@@B
CONST	SEGMENT
?messageMap@CUpdateTipDlg@@1UAFX_MSGMAP@@B DD FLAT:?GetThisMessageMap@CDialog@@KGPBUAFX_MSGMAP@@XZ ; CUpdateTipDlg::messageMap
	DD	FLAT:?_messageEntries@CUpdateTipDlg@@0QBUAFX_MSGMAP_ENTRY@@B
CONST	ENDS
CONST	SEGMENT
	ORG $+2
$SG187248 DB	'\res\pic\lhupd.img', 00H
	ORG $+1
$SG187250 DB	'intro', 00H
	ORG $+2
$SG187251 DB	'NewestSoft', 00H
	ORG $+1
$SG187252 DB	0dH, 0aH, 00H
	ORG $+1
$SG187253 DB	'||', 00H
CONST	ENDS
PUBLIC	?GetThisMessageMap@CHyperLinkExpand@@KGPBUAFX_MSGMAP@@XZ ; CHyperLinkExpand::GetThisMessageMap
EXTRN	__RTC_InitBase:NEAR
EXTRN	__RTC_Shutdown:NEAR
;	COMDAT rtc$IMZ
; File d:\boxgit\playbox\playbox\dev\prj\playbox\updatetipdlg.cpp
rtc$IMZ	SEGMENT
__RTC_InitBase.rtc$IMZ DD FLAT:__RTC_InitBase
rtc$IMZ	ENDS
;	COMDAT rtc$TMZ
rtc$TMZ	SEGMENT
__RTC_Shutdown.rtc$TMZ DD FLAT:__RTC_Shutdown
; Function compile flags: /Odt /RTCsu
rtc$TMZ	ENDS
_TEXT	SEGMENT
?GetThisMessageMap@CHyperLinkExpand@@KGPBUAFX_MSGMAP@@XZ PROC NEAR ; CHyperLinkExpand::GetThisMessageMap

; 9    : BEGIN_MESSAGE_MAP( CHyperLinkExpand, CHyperLink )

  00000	55		 push	 ebp
  00001	8b ec		 mov	 ebp, esp
  00003	b8 00 00 00 00	 mov	 eax, OFFSET FLAT:?messageMap@CHyperLinkExpand@@1UAFX_MSGMAP@@B ; CHyperLinkExpand::messageMap
  00008	5d		 pop	 ebp
  00009	c3		 ret	 0
?GetThisMessageMap@CHyperLinkExpand@@KGPBUAFX_MSGMAP@@XZ ENDP ; CHyperLinkExpand::GetThisMessageMap
_TEXT	ENDS
PUBLIC	?GetMessageMap@CHyperLinkExpand@@MBEPBUAFX_MSGMAP@@XZ ; CHyperLinkExpand::GetMessageMap
; Function compile flags: /Odt /RTCsu
_TEXT	SEGMENT
_this$ = -4						; size = 4
?GetMessageMap@CHyperLinkExpand@@MBEPBUAFX_MSGMAP@@XZ PROC NEAR ; CHyperLinkExpand::GetMessageMap
; _this$ = ecx

; 9    : BEGIN_MESSAGE_MAP( CHyperLinkExpand, CHyperLink )

  00010	55		 push	 ebp
  00011	8b ec		 mov	 ebp, esp
  00013	51		 push	 ecx
  00014	c7 45 fc cc cc
	cc cc		 mov	 DWORD PTR [ebp-4], -858993460 ; ccccccccH
  0001b	89 4d fc	 mov	 DWORD PTR _this$[ebp], ecx
  0001e	b8 00 00 00 00	 mov	 eax, OFFSET FLAT:?messageMap@CHyperLinkExpand@@1UAFX_MSGMAP@@B ; CHyperLinkExpand::messageMap
  00023	8b e5		 mov	 esp, ebp
  00025	5d		 pop	 ebp
  00026	c3		 ret	 0
?GetMessageMap@CHyperLinkExpand@@MBEPBUAFX_MSGMAP@@XZ ENDP ; CHyperLinkExpand::GetMessageMap
; Function compile flags: /Odt /RTCsu
_this$ = -4						; size = 4
_nFlags$ = 8						; size = 4
_point$ = 12						; size = 8
?OnLButtonDown@CHyperLinkExpand@@QAEXIVCPoint@@@Z PROC NEAR ; CHyperLinkExpand::OnLButtonDown
; _this$ = ecx

; 15   : {

  00030	55		 push	 ebp
  00031	8b ec		 mov	 ebp, esp
  00033	51		 push	 ecx
  00034	c7 45 fc cc cc
	cc cc		 mov	 DWORD PTR [ebp-4], -858993460 ; ccccccccH
  0003b	89 4d fc	 mov	 DWORD PTR _this$[ebp], ecx

; 16   : 
; 17   : }

  0003e	8b e5		 mov	 esp, ebp
  00040	5d		 pop	 ebp
  00041	c2 0c 00	 ret	 12			; 0000000cH
?OnLButtonDown@CHyperLinkExpand@@QAEXIVCPoint@@@Z ENDP	; CHyperLinkExpand::OnLButtonDown
_TEXT	ENDS
EXTRN	__imp__PostMessageA@16:NEAR
EXTRN	__RTC_CheckEsp:NEAR
EXTRN	@_RTC_CheckStackVars@8:NEAR
EXTRN	?GetSafeHwnd@CWnd@@QBEPAUHWND__@@XZ:NEAR	; CWnd::GetSafeHwnd
EXTRN	??0CRect@@QAE@XZ:NEAR				; CRect::CRect
EXTRN	??BCRect@@QAEPAUtagRECT@@XZ:NEAR		; CRect::operator tagRECT *
EXTRN	?GetWindowRect@CWnd@@QBEXPAUtagRECT@@@Z:NEAR	; CWnd::GetWindowRect
EXTRN	?ClientToScreen@CWnd@@QBEXPAUtagPOINT@@@Z:NEAR	; CWnd::ClientToScreen
EXTRN	__imp__PtInRect@12:NEAR
EXTRN	?GetParent@CWnd@@QBEPAV1@XZ:NEAR		; CWnd::GetParent
; Function compile flags: /Odt /RTCsu
_TEXT	SEGMENT
$T187818 = -36						; size = 8
_rect$ = -24						; size = 16
_this$ = -4						; size = 4
_nFlags$ = 8						; size = 4
_point$ = 12						; size = 8
?OnLButtonUp@CHyperLinkExpand@@QAEXIVCPoint@@@Z PROC NEAR ; CHyperLinkExpand::OnLButtonUp
; _this$ = ecx

; 20   : {

  00050	55		 push	 ebp
  00051	8b ec		 mov	 ebp, esp
  00053	83 ec 24	 sub	 esp, 36			; 00000024H
  00056	56		 push	 esi
  00057	b8 cc cc cc cc	 mov	 eax, -858993460		; ccccccccH
  0005c	89 45 dc	 mov	 DWORD PTR [ebp-36], eax
  0005f	89 45 e0	 mov	 DWORD PTR [ebp-32], eax
  00062	89 45 e4	 mov	 DWORD PTR [ebp-28], eax
  00065	89 45 e8	 mov	 DWORD PTR [ebp-24], eax
  00068	89 45 ec	 mov	 DWORD PTR [ebp-20], eax
  0006b	89 45 f0	 mov	 DWORD PTR [ebp-16], eax
  0006e	89 45 f4	 mov	 DWORD PTR [ebp-12], eax
  00071	89 45 f8	 mov	 DWORD PTR [ebp-8], eax
  00074	89 45 fc	 mov	 DWORD PTR [ebp-4], eax
  00077	89 4d fc	 mov	 DWORD PTR _this$[ebp], ecx

; 21   : 	CRect rect;

  0007a	8d 4d e8	 lea	 ecx, DWORD PTR _rect$[ebp]
  0007d	e8 00 00 00 00	 call	 ??0CRect@@QAE@XZ	; CRect::CRect

; 22   : 	GetWindowRect(rect);

  00082	8d 4d e8	 lea	 ecx, DWORD PTR _rect$[ebp]
  00085	e8 00 00 00 00	 call	 ??BCRect@@QAEPAUtagRECT@@XZ ; CRect::operator tagRECT *
  0008a	50		 push	 eax
  0008b	8b 4d fc	 mov	 ecx, DWORD PTR _this$[ebp]
  0008e	e8 00 00 00 00	 call	 ?GetWindowRect@CWnd@@QBEXPAUtagRECT@@@Z ; CWnd::GetWindowRect

; 23   : 	ClientToScreen(&point);

  00093	8d 45 0c	 lea	 eax, DWORD PTR _point$[ebp]
  00096	50		 push	 eax
  00097	8b 4d fc	 mov	 ecx, DWORD PTR _this$[ebp]
  0009a	e8 00 00 00 00	 call	 ?ClientToScreen@CWnd@@QBEXPAUtagPOINT@@@Z ; CWnd::ClientToScreen

; 24   : 	if (PtInRect(rect, point))	// If the mouse is over us follow the link.

  0009f	8b 4d 0c	 mov	 ecx, DWORD PTR _point$[ebp]
  000a2	89 4d dc	 mov	 DWORD PTR $T187818[ebp], ecx
  000a5	8b 55 10	 mov	 edx, DWORD PTR _point$[ebp+4]
  000a8	89 55 e0	 mov	 DWORD PTR $T187818[ebp+4], edx
  000ab	8b f4		 mov	 esi, esp
  000ad	8b 45 e0	 mov	 eax, DWORD PTR $T187818[ebp+4]
  000b0	50		 push	 eax
  000b1	8b 4d dc	 mov	 ecx, DWORD PTR $T187818[ebp]
  000b4	51		 push	 ecx
  000b5	8d 4d e8	 lea	 ecx, DWORD PTR _rect$[ebp]
  000b8	e8 00 00 00 00	 call	 ??BCRect@@QAEPAUtagRECT@@XZ ; CRect::operator tagRECT *
  000bd	50		 push	 eax
  000be	ff 15 00 00 00
	00		 call	 DWORD PTR __imp__PtInRect@12
  000c4	3b f4		 cmp	 esi, esp
  000c6	e8 00 00 00 00	 call	 __RTC_CheckEsp
  000cb	85 c0		 test	 eax, eax
  000cd	74 28		 je	 SHORT $L187183

; 25   : 	{
; 26   : 		::PostMessage(GetParent()->GetSafeHwnd(),WM_VIEW_UPDATE_INFO,0,0);

  000cf	8b f4		 mov	 esi, esp
  000d1	6a 00		 push	 0
  000d3	6a 00		 push	 0
  000d5	68 d9 2f 00 00	 push	 12249			; 00002fd9H
  000da	8b 4d fc	 mov	 ecx, DWORD PTR _this$[ebp]
  000dd	e8 00 00 00 00	 call	 ?GetParent@CWnd@@QBEPAV1@XZ ; CWnd::GetParent
  000e2	8b c8		 mov	 ecx, eax
  000e4	e8 00 00 00 00	 call	 ?GetSafeHwnd@CWnd@@QBEPAUHWND__@@XZ ; CWnd::GetSafeHwnd
  000e9	50		 push	 eax
  000ea	ff 15 00 00 00
	00		 call	 DWORD PTR __imp__PostMessageA@16
  000f0	3b f4		 cmp	 esi, esp
  000f2	e8 00 00 00 00	 call	 __RTC_CheckEsp
$L187183:

; 27   : 	}
; 28   : }

  000f7	52		 push	 edx
  000f8	8b cd		 mov	 ecx, ebp
  000fa	50		 push	 eax
  000fb	8d 15 00 00 00
	00		 lea	 edx, DWORD PTR $L187822
  00101	e8 00 00 00 00	 call	 @_RTC_CheckStackVars@8
  00106	58		 pop	 eax
  00107	5a		 pop	 edx
  00108	5e		 pop	 esi
  00109	83 c4 24	 add	 esp, 36			; 00000024H
  0010c	3b ec		 cmp	 ebp, esp
  0010e	e8 00 00 00 00	 call	 __RTC_CheckEsp
  00113	8b e5		 mov	 esp, ebp
  00115	5d		 pop	 ebp
  00116	c2 0c 00	 ret	 12			; 0000000cH
$L187822:
  00119	01 00 00 00	 DD	 1
  0011d	00 00 00 00	 DD	 $L187821
$L187821:
  00121	e8 ff ff ff	 DD	 -24			; ffffffe8H
  00125	10 00 00 00	 DD	 16			; 00000010H
  00129	00 00 00 00	 DD	 $L187820
$L187820:
  0012d	72		 DB	 114			; 00000072H
  0012e	65		 DB	 101			; 00000065H
  0012f	63		 DB	 99			; 00000063H
  00130	74		 DB	 116			; 00000074H
  00131	00		 DB	 0
?OnLButtonUp@CHyperLinkExpand@@QAEXIVCPoint@@@Z ENDP	; CHyperLinkExpand::OnLButtonUp
_TEXT	ENDS
PUBLIC	?GetThisClass@CUpdateTipDlg@@SGPAUCRuntimeClass@@XZ ; CUpdateTipDlg::GetThisClass
; Function compile flags: /Odt /RTCsu
_TEXT	SEGMENT
?GetThisClass@CUpdateTipDlg@@SGPAUCRuntimeClass@@XZ PROC NEAR ; CUpdateTipDlg::GetThisClass

; 30   : IMPLEMENT_DYNAMIC(CUpdateTipDlg, CDialog)

  00140	55		 push	 ebp
  00141	8b ec		 mov	 ebp, esp
  00143	b8 00 00 00 00	 mov	 eax, OFFSET FLAT:?classCUpdateTipDlg@CUpdateTipDlg@@2UCRuntimeClass@@B ; CUpdateTipDlg::classCUpdateTipDlg
  00148	5d		 pop	 ebp
  00149	c3		 ret	 0
?GetThisClass@CUpdateTipDlg@@SGPAUCRuntimeClass@@XZ ENDP ; CUpdateTipDlg::GetThisClass
_TEXT	ENDS
PUBLIC	?GetRuntimeClass@CUpdateTipDlg@@UBEPAUCRuntimeClass@@XZ ; CUpdateTipDlg::GetRuntimeClass
; Function compile flags: /Odt /RTCsu
_TEXT	SEGMENT
_this$ = -4						; size = 4
?GetRuntimeClass@CUpdateTipDlg@@UBEPAUCRuntimeClass@@XZ PROC NEAR ; CUpdateTipDlg::GetRuntimeClass
; _this$ = ecx

; 30   : IMPLEMENT_DYNAMIC(CUpdateTipDlg, CDialog)

  00150	55		 push	 ebp
  00151	8b ec		 mov	 ebp, esp
  00153	51		 push	 ecx
  00154	c7 45 fc cc cc
	cc cc		 mov	 DWORD PTR [ebp-4], -858993460 ; ccccccccH
  0015b	89 4d fc	 mov	 DWORD PTR _this$[ebp], ecx
  0015e	b8 00 00 00 00	 mov	 eax, OFFSET FLAT:?classCUpdateTipDlg@CUpdateTipDlg@@2UCRuntimeClass@@B ; CUpdateTipDlg::classCUpdateTipDlg
  00163	8b e5		 mov	 esp, ebp
  00165	5d		 pop	 ebp
  00166	c3		 ret	 0
?GetRuntimeClass@CUpdateTipDlg@@UBEPAUCRuntimeClass@@XZ ENDP ; CUpdateTipDlg::GetRuntimeClass
_TEXT	ENDS
PUBLIC	??_R4CUpdateTipDlg@@6B@				; CUpdateTipDlg::`RTTI Complete Object Locator'
PUBLIC	??_R0?AVCUpdateTipDlg@@@8			; CUpdateTipDlg `RTTI Type Descriptor'
PUBLIC	??_R3CUpdateTipDlg@@8				; CUpdateTipDlg::`RTTI Class Hierarchy Descriptor'
PUBLIC	??_R2CUpdateTipDlg@@8				; CUpdateTipDlg::`RTTI Base Class Array'
PUBLIC	??_R1A@?0A@A@CUpdateTipDlg@@8			; CUpdateTipDlg::`RTTI Base Class Descriptor at (0,-1,0,0)'
PUBLIC	??_R1A@?0A@A@CDialog@@8				; CDialog::`RTTI Base Class Descriptor at (0,-1,0,0)'
PUBLIC	??_R0?AVCDialog@@@8				; CDialog `RTTI Type Descriptor'
PUBLIC	??_R1A@?0A@A@CWnd@@8				; CWnd::`RTTI Base Class Descriptor at (0,-1,0,0)'
PUBLIC	??_R0?AVCWnd@@@8				; CWnd `RTTI Type Descriptor'
PUBLIC	??_R1A@?0A@A@CCmdTarget@@8			; CCmdTarget::`RTTI Base Class Descriptor at (0,-1,0,0)'
PUBLIC	??_R0?AVCCmdTarget@@@8				; CCmdTarget `RTTI Type Descriptor'
PUBLIC	??_R1A@?0A@A@CObject@@8				; CObject::`RTTI Base Class Descriptor at (0,-1,0,0)'
PUBLIC	??_R0?AVCObject@@@8				; CObject `RTTI Type Descriptor'
PUBLIC	??0CHyperLinkExpand@@QAE@XZ			; CHyperLinkExpand::CHyperLinkExpand
PUBLIC	??0CUpdateTipDlg@@QAE@PAVCWnd@@@Z		; CUpdateTipDlg::CUpdateTipDlg
PUBLIC	?DoDataExchange@CUpdateTipDlg@@MAEXPAVCDataExchange@@@Z ; CUpdateTipDlg::DoDataExchange
PUBLIC	?GetMessageMap@CUpdateTipDlg@@MBEPBUAFX_MSGMAP@@XZ ; CUpdateTipDlg::GetMessageMap
PUBLIC	?OnInitDialog@CUpdateTipDlg@@UAEHXZ		; CUpdateTipDlg::OnInitDialog
PUBLIC	??_7CUpdateTipDlg@@6B@				; CUpdateTipDlg::`vftable'
PUBLIC	??_GCUpdateTipDlg@@UAEPAXI@Z			; CUpdateTipDlg::`scalar deleting destructor'
EXTRN	?GetInterfaceMap@CWnd@@MBEPBUAFX_INTERFACEMAP@@XZ:NEAR ; CWnd::GetInterfaceMap
EXTRN	?EnsureStdObj@CWnd@@UAEJXZ:NEAR			; CWnd::EnsureStdObj
EXTRN	?get_accParent@CWnd@@UAEJPAPAUIDispatch@@@Z:NEAR ; CWnd::get_accParent
EXTRN	?get_accChildCount@CWnd@@UAEJPAJ@Z:NEAR		; CWnd::get_accChildCount
EXTRN	?IsInvokeAllowed@CCmdTarget@@UAEHJ@Z:NEAR	; CCmdTarget::IsInvokeAllowed
EXTRN	?get_accChild@CWnd@@UAEJUtagVARIANT@@PAPAUIDispatch@@@Z:NEAR ; CWnd::get_accChild
EXTRN	?get_accName@CWnd@@UAEJUtagVARIANT@@PAPA_W@Z:NEAR ; CWnd::get_accName
EXTRN	?get_accValue@CWnd@@UAEJUtagVARIANT@@PAPA_W@Z:NEAR ; CWnd::get_accValue
EXTRN	?GetDispatchIID@CCmdTarget@@UAEHPAU_GUID@@@Z:NEAR ; CCmdTarget::GetDispatchIID
EXTRN	?GetTypeInfoCount@CCmdTarget@@UAEIXZ:NEAR	; CCmdTarget::GetTypeInfoCount
EXTRN	?GetTypeLibCache@CCmdTarget@@UAEPAVCTypeLibCache@@XZ:NEAR ; CCmdTarget::GetTypeLibCache
EXTRN	?get_accDescription@CWnd@@UAEJUtagVARIANT@@PAPA_W@Z:NEAR ; CWnd::get_accDescription
EXTRN	?GetTypeLib@CCmdTarget@@UAEJKPAPAUITypeLib@@@Z:NEAR ; CCmdTarget::GetTypeLib
EXTRN	?get_accRole@CWnd@@UAEJUtagVARIANT@@PAU2@@Z:NEAR ; CWnd::get_accRole
EXTRN	?get_accState@CWnd@@UAEJUtagVARIANT@@PAU2@@Z:NEAR ; CWnd::get_accState
EXTRN	?get_accHelp@CWnd@@UAEJUtagVARIANT@@PAPA_W@Z:NEAR ; CWnd::get_accHelp
EXTRN	?get_accHelpTopic@CWnd@@UAEJPAPA_WUtagVARIANT@@PAJ@Z:NEAR ; CWnd::get_accHelpTopic
EXTRN	?get_accKeyboardShortcut@CWnd@@UAEJUtagVARIANT@@PAPA_W@Z:NEAR ; CWnd::get_accKeyboardShortcut
EXTRN	?get_accFocus@CWnd@@UAEJPAUtagVARIANT@@@Z:NEAR	; CWnd::get_accFocus
EXTRN	?get_accSelection@CWnd@@UAEJPAUtagVARIANT@@@Z:NEAR ; CWnd::get_accSelection
EXTRN	?get_accDefaultAction@CWnd@@UAEJUtagVARIANT@@PAPA_W@Z:NEAR ; CWnd::get_accDefaultAction
EXTRN	?GetCommandMap@CCmdTarget@@MBEPBUAFX_OLECMDMAP@@XZ:NEAR ; CCmdTarget::GetCommandMap
EXTRN	?accSelect@CWnd@@UAEJJUtagVARIANT@@@Z:NEAR	; CWnd::accSelect
EXTRN	?accLocation@CWnd@@UAEJPAJ000UtagVARIANT@@@Z:NEAR ; CWnd::accLocation
EXTRN	?GetDispatchMap@CCmdTarget@@MBEPBUAFX_DISPMAP@@XZ:NEAR ; CCmdTarget::GetDispatchMap
EXTRN	?accNavigate@CWnd@@UAEJJUtagVARIANT@@PAU2@@Z:NEAR ; CWnd::accNavigate
EXTRN	?accHitTest@CWnd@@UAEJJJPAUtagVARIANT@@@Z:NEAR	; CWnd::accHitTest
EXTRN	?GetConnectionMap@CCmdTarget@@MBEPBUAFX_CONNECTIONMAP@@XZ:NEAR ; CCmdTarget::GetConnectionMap
EXTRN	?accDoDefaultAction@CWnd@@UAEJUtagVARIANT@@@Z:NEAR ; CWnd::accDoDefaultAction
EXTRN	?put_accName@CWnd@@UAEJUtagVARIANT@@PA_W@Z:NEAR	; CWnd::put_accName
EXTRN	?put_accValue@CWnd@@UAEJUtagVARIANT@@PA_W@Z:NEAR ; CWnd::put_accValue
EXTRN	?SetProxy@CWnd@@UAEJPAUIAccessibleProxy@@@Z:NEAR ; CWnd::SetProxy
EXTRN	?CreateAccessibleProxy@CWnd@@UAEJIJPAJ@Z:NEAR	; CWnd::CreateAccessibleProxy
EXTRN	?GetEventSinkMap@CCmdTarget@@MBEPBUAFX_EVENTSINKMAP@@XZ:NEAR ; CCmdTarget::GetEventSinkMap
EXTRN	?OnCreateAggregates@CCmdTarget@@UAEHXZ:NEAR	; CCmdTarget::OnCreateAggregates
EXTRN	?OnCommand@CWnd@@MAEHIJ@Z:NEAR			; CWnd::OnCommand
EXTRN	?GetInterfaceHook@CCmdTarget@@UAEPAUIUnknown@@PBX@Z:NEAR ; CCmdTarget::GetInterfaceHook
EXTRN	?OnNotify@CWnd@@MAEHIJPAJ@Z:NEAR		; CWnd::OnNotify
EXTRN	?GetExtraConnectionPoints@CCmdTarget@@MAEHPAVCPtrArray@@@Z:NEAR ; CCmdTarget::GetExtraConnectionPoints
EXTRN	?GetConnectionHook@CCmdTarget@@MAEPAUIConnectionPoint@@ABU_GUID@@@Z:NEAR ; CCmdTarget::GetConnectionHook
EXTRN	__except_list:DWORD
EXTRN	___CxxFrameHandler:NEAR
EXTRN	?PreSubclassWindow@CWnd@@UAEXXZ:NEAR		; CWnd::PreSubclassWindow
EXTRN	?Create@CWnd@@UAEHPBD0KABUtagRECT@@PAV1@IPAUCCreateContext@@@Z:NEAR ; CWnd::Create
EXTRN	?CreateEx@CWnd@@UAEHKPBD0KHHHHPAUHWND__@@PAUHMENU__@@PAX@Z:NEAR ; CWnd::CreateEx
EXTRN	?CreateEx@CWnd@@UAEHKPBD0KABUtagRECT@@PAV1@IPAX@Z:NEAR ; CWnd::CreateEx
EXTRN	?Serialize@CObject@@UAEXAAVCArchive@@@Z:NEAR	; CObject::Serialize
EXTRN	?DestroyWindow@CWnd@@UAEHXZ:NEAR		; CWnd::DestroyWindow
EXTRN	?PreCreateWindow@CWnd@@UAEHAAUtagCREATESTRUCTA@@@Z:NEAR ; CWnd::PreCreateWindow
EXTRN	?CalcWindowRect@CWnd@@UAEXPAUtagRECT@@I@Z:NEAR	; CWnd::CalcWindowRect
EXTRN	?GetSuperWndProcAddr@CWnd@@MAEPAP6GJPAUHWND__@@IIJ@ZXZ:NEAR ; CWnd::GetSuperWndProcAddr
EXTRN	?BeginModalState@CWnd@@UAEXXZ:NEAR		; CWnd::BeginModalState
EXTRN	?EndModalState@CWnd@@UAEXXZ:NEAR		; CWnd::EndModalState
EXTRN	?OnAmbientProperty@CWnd@@UAEHPAVCOleControlSite@@JPAUtagVARIANT@@@Z:NEAR ; CWnd::OnAmbientProperty
EXTRN	?WindowProc@CWnd@@MAEJIIJ@Z:NEAR		; CWnd::WindowProc
EXTRN	?OnWndMsg@CWnd@@MAEHIIJPAJ@Z:NEAR		; CWnd::OnWndMsg
EXTRN	?DefWindowProcA@CWnd@@MAEJIIJ@Z:NEAR		; CWnd::DefWindowProcA
EXTRN	?PostNcDestroy@CWnd@@MAEXXZ:NEAR		; CWnd::PostNcDestroy
EXTRN	?OnChildNotify@CWnd@@MAEHIIJPAJ@Z:NEAR		; CWnd::OnChildNotify
EXTRN	?IsFrameWnd@CWnd@@UBEHXZ:NEAR			; CWnd::IsFrameWnd
EXTRN	?OnFinalRelease@CWnd@@UAEXXZ:NEAR		; CWnd::OnFinalRelease
EXTRN	?CreateControlContainer@CWnd@@MAEHPAPAVCOleControlContainer@@@Z:NEAR ; CWnd::CreateControlContainer
EXTRN	?CreateControlSite@CWnd@@MAEHPAVCOleControlContainer@@PAPAVCOleControlSite@@IABU_GUID@@@Z:NEAR ; CWnd::CreateControlSite
EXTRN	?Create@CDialog@@UAEHPBDPAVCWnd@@@Z:NEAR	; CDialog::Create
EXTRN	__imp_??0?$CStringT@DV?$StrTraitMFC_DLL@DV?$ChTraitsCRT@D@ATL@@@@@ATL@@QAE@XZ:NEAR
EXTRN	?Create@CDialog@@UAEHIPAVCWnd@@@Z:NEAR		; CDialog::Create
EXTRN	?CreateIndirect@CDialog@@UAEHPBUDLGTEMPLATE@@PAVCWnd@@PAX@Z:NEAR ; CDialog::CreateIndirect
EXTRN	?CreateIndirect@CDialog@@UAEHPAXPAVCWnd@@@Z:NEAR ; CDialog::CreateIndirect
EXTRN	?OnToolHitTest@CWnd@@UBEHVCPoint@@PAUtagTOOLINFOA@@@Z:NEAR ; CWnd::OnToolHitTest
EXTRN	??_ECUpdateTipDlg@@UAEPAXI@Z:NEAR		; CUpdateTipDlg::`vector deleting destructor'
EXTRN	??0CDialog@@QAE@IPAVCWnd@@@Z:NEAR		; CDialog::CDialog
EXTRN	?DoModal@CDialog@@UAEHXZ:NEAR			; CDialog::DoModal
EXTRN	?OnSetFont@CDialog@@UAEXPAVCFont@@@Z:NEAR	; CDialog::OnSetFont
EXTRN	?OnOK@CDialog@@MAEXXZ:NEAR			; CDialog::OnOK
EXTRN	?OnCancel@CDialog@@MAEXXZ:NEAR			; CDialog::OnCancel
EXTRN	??1CDialog@@UAE@XZ:NEAR				; CDialog::~CDialog
EXTRN	?AssertValid@CDialog@@UBEXXZ:NEAR		; CDialog::AssertValid
EXTRN	?Dump@CDialog@@UBEXAAVCDumpContext@@@Z:NEAR	; CDialog::Dump
EXTRN	?PreTranslateMessage@CDialog@@UAEHPAUtagMSG@@@Z:NEAR ; CDialog::PreTranslateMessage
EXTRN	__imp_??1?$CStringT@DV?$StrTraitMFC_DLL@DV?$ChTraitsCRT@D@ATL@@@@@ATL@@QAE@XZ:NEAR
EXTRN	?OnCmdMsg@CDialog@@UAEHIHPAXPAUAFX_CMDHANDLERINFO@@@Z:NEAR ; CDialog::OnCmdMsg
EXTRN	?CheckAutoCenter@CDialog@@UAEHXZ:NEAR		; CDialog::CheckAutoCenter
EXTRN	?SetOccDialogInfo@CDialog@@MAEHPAU_AFX_OCC_DIALOG_INFO@@@Z:NEAR ; CDialog::SetOccDialogInfo
EXTRN	?PreInitDialog@CDialog@@MAEXXZ:NEAR		; CDialog::PreInitDialog
EXTRN	?GetScrollBarCtrl@CWnd@@UBEPAVCScrollBar@@H@Z:NEAR ; CWnd::GetScrollBarCtrl
EXTRN	?WinHelpA@CWnd@@UAEXKI@Z:NEAR			; CWnd::WinHelpA
EXTRN	?HtmlHelpA@CWnd@@UAEXKI@Z:NEAR			; CWnd::HtmlHelpA
EXTRN	??_7type_info@@6B@:QWORD			; type_info::`vftable'
EXTRN	?WinHelpInternal@CWnd@@UAEXKI@Z:NEAR		; CWnd::WinHelpInternal
EXTRN	?ContinueModal@CWnd@@UAEHXZ:NEAR		; CWnd::ContinueModal
EXTRN	?EndModalLoop@CWnd@@UAEXH@Z:NEAR		; CWnd::EndModalLoop
xdata$x	SEGMENT
$T187836 DD	0ffffffffH
	DD	FLAT:$L187827
	DD	00H
	DD	FLAT:$L187828
$T187833 DD	019930520H
	DD	02H
	DD	FLAT:$T187836
	DD	2 DUP(00H)
	DD	2 DUP(00H)
xdata$x	ENDS
;	COMDAT ??_7CUpdateTipDlg@@6B@
CONST	SEGMENT
??_7CUpdateTipDlg@@6B@ DD FLAT:??_R4CUpdateTipDlg@@6B@	; CUpdateTipDlg::`vftable'
	DD	FLAT:?GetRuntimeClass@CUpdateTipDlg@@UBEPAUCRuntimeClass@@XZ
	DD	FLAT:??_ECUpdateTipDlg@@UAEPAXI@Z
	DD	FLAT:?Serialize@CObject@@UAEXAAVCArchive@@@Z
	DD	FLAT:?AssertValid@CDialog@@UBEXXZ
	DD	FLAT:?Dump@CDialog@@UBEXAAVCDumpContext@@@Z
	DD	FLAT:?OnCmdMsg@CDialog@@UAEHIHPAXPAUAFX_CMDHANDLERINFO@@@Z
	DD	FLAT:?OnFinalRelease@CWnd@@UAEXXZ
	DD	FLAT:?IsInvokeAllowed@CCmdTarget@@UAEHJ@Z
	DD	FLAT:?GetDispatchIID@CCmdTarget@@UAEHPAU_GUID@@@Z
	DD	FLAT:?GetTypeInfoCount@CCmdTarget@@UAEIXZ
	DD	FLAT:?GetTypeLibCache@CCmdTarget@@UAEPAVCTypeLibCache@@XZ
	DD	FLAT:?GetTypeLib@CCmdTarget@@UAEJKPAPAUITypeLib@@@Z
	DD	FLAT:?GetMessageMap@CUpdateTipDlg@@MBEPBUAFX_MSGMAP@@XZ
	DD	FLAT:?GetCommandMap@CCmdTarget@@MBEPBUAFX_OLECMDMAP@@XZ
	DD	FLAT:?GetDispatchMap@CCmdTarget@@MBEPBUAFX_DISPMAP@@XZ
	DD	FLAT:?GetConnectionMap@CCmdTarget@@MBEPBUAFX_CONNECTIONMAP@@XZ
	DD	FLAT:?GetInterfaceMap@CWnd@@MBEPBUAFX_INTERFACEMAP@@XZ
	DD	FLAT:?GetEventSinkMap@CCmdTarget@@MBEPBUAFX_EVENTSINKMAP@@XZ
	DD	FLAT:?OnCreateAggregates@CCmdTarget@@UAEHXZ
	DD	FLAT:?GetInterfaceHook@CCmdTarget@@UAEPAUIUnknown@@PBX@Z
	DD	FLAT:?GetExtraConnectionPoints@CCmdTarget@@MAEHPAVCPtrArray@@@Z
	DD	FLAT:?GetConnectionHook@CCmdTarget@@MAEPAUIConnectionPoint@@ABU_GUID@@@Z
	DD	FLAT:?PreSubclassWindow@CWnd@@UAEXXZ
	DD	FLAT:?Create@CWnd@@UAEHPBD0KABUtagRECT@@PAV1@IPAUCCreateContext@@@Z
	DD	FLAT:?CreateEx@CWnd@@UAEHKPBD0KABUtagRECT@@PAV1@IPAX@Z
	DD	FLAT:?CreateEx@CWnd@@UAEHKPBD0KHHHHPAUHWND__@@PAUHMENU__@@PAX@Z
	DD	FLAT:?DestroyWindow@CWnd@@UAEHXZ
	DD	FLAT:?PreCreateWindow@CWnd@@UAEHAAUtagCREATESTRUCTA@@@Z
	DD	FLAT:?CalcWindowRect@CWnd@@UAEXPAUtagRECT@@I@Z
	DD	FLAT:?OnToolHitTest@CWnd@@UBEHVCPoint@@PAUtagTOOLINFOA@@@Z
	DD	FLAT:?GetScrollBarCtrl@CWnd@@UBEPAVCScrollBar@@H@Z
	DD	FLAT:?WinHelpA@CWnd@@UAEXKI@Z
	DD	FLAT:?HtmlHelpA@CWnd@@UAEXKI@Z
	DD	FLAT:?WinHelpInternal@CWnd@@UAEXKI@Z
	DD	FLAT:?ContinueModal@CWnd@@UAEHXZ
	DD	FLAT:?EndModalLoop@CWnd@@UAEXH@Z
	DD	FLAT:?EnsureStdObj@CWnd@@UAEJXZ
	DD	FLAT:?get_accParent@CWnd@@UAEJPAPAUIDispatch@@@Z
	DD	FLAT:?get_accChildCount@CWnd@@UAEJPAJ@Z
	DD	FLAT:?get_accChild@CWnd@@UAEJUtagVARIANT@@PAPAUIDispatch@@@Z
	DD	FLAT:?get_accName@CWnd@@UAEJUtagVARIANT@@PAPA_W@Z
	DD	FLAT:?get_accValue@CWnd@@UAEJUtagVARIANT@@PAPA_W@Z
	DD	FLAT:?get_accDescription@CWnd@@UAEJUtagVARIANT@@PAPA_W@Z
	DD	FLAT:?get_accRole@CWnd@@UAEJUtagVARIANT@@PAU2@@Z
	DD	FLAT:?get_accState@CWnd@@UAEJUtagVARIANT@@PAU2@@Z
	DD	FLAT:?get_accHelp@CWnd@@UAEJUtagVARIANT@@PAPA_W@Z
	DD	FLAT:?get_accHelpTopic@CWnd@@UAEJPAPA_WUtagVARIANT@@PAJ@Z
	DD	FLAT:?get_accKeyboardShortcut@CWnd@@UAEJUtagVARIANT@@PAPA_W@Z
	DD	FLAT:?get_accFocus@CWnd@@UAEJPAUtagVARIANT@@@Z
	DD	FLAT:?get_accSelection@CWnd@@UAEJPAUtagVARIANT@@@Z
	DD	FLAT:?get_accDefaultAction@CWnd@@UAEJUtagVARIANT@@PAPA_W@Z
	DD	FLAT:?accSelect@CWnd@@UAEJJUtagVARIANT@@@Z
	DD	FLAT:?accLocation@CWnd@@UAEJPAJ000UtagVARIANT@@@Z
	DD	FLAT:?accNavigate@CWnd@@UAEJJUtagVARIANT@@PAU2@@Z
	DD	FLAT:?accHitTest@CWnd@@UAEJJJPAUtagVARIANT@@@Z
	DD	FLAT:?accDoDefaultAction@CWnd@@UAEJUtagVARIANT@@@Z
	DD	FLAT:?put_accName@CWnd@@UAEJUtagVARIANT@@PA_W@Z
	DD	FLAT:?put_accValue@CWnd@@UAEJUtagVARIANT@@PA_W@Z
	DD	FLAT:?SetProxy@CWnd@@UAEJPAUIAccessibleProxy@@@Z
	DD	FLAT:?CreateAccessibleProxy@CWnd@@UAEJIJPAJ@Z
	DD	FLAT:?OnCommand@CWnd@@MAEHIJ@Z
	DD	FLAT:?OnNotify@CWnd@@MAEHIJPAJ@Z
	DD	FLAT:?GetSuperWndProcAddr@CWnd@@MAEPAP6GJPAUHWND__@@IIJ@ZXZ
	DD	FLAT:?DoDataExchange@CUpdateTipDlg@@MAEXPAVCDataExchange@@@Z
	DD	FLAT:?BeginModalState@CWnd@@UAEXXZ
	DD	FLAT:?EndModalState@CWnd@@UAEXXZ
	DD	FLAT:?PreTranslateMessage@CDialog@@UAEHPAUtagMSG@@@Z
	DD	FLAT:?OnAmbientProperty@CWnd@@UAEHPAVCOleControlSite@@JPAUtagVARIANT@@@Z
	DD	FLAT:?WindowProc@CWnd@@MAEJIIJ@Z
	DD	FLAT:?OnWndMsg@CWnd@@MAEHIIJPAJ@Z
	DD	FLAT:?DefWindowProcA@CWnd@@MAEJIIJ@Z
	DD	FLAT:?PostNcDestroy@CWnd@@MAEXXZ
	DD	FLAT:?OnChildNotify@CWnd@@MAEHIIJPAJ@Z
	DD	FLAT:?CheckAutoCenter@CDialog@@UAEHXZ
	DD	FLAT:?IsFrameWnd@CWnd@@UBEHXZ
	DD	FLAT:?CreateControlContainer@CWnd@@MAEHPAPAVCOleControlContainer@@@Z
	DD	FLAT:?CreateControlSite@CWnd@@MAEHPAVCOleControlContainer@@PAPAVCOleControlSite@@IABU_GUID@@@Z
	DD	FLAT:?SetOccDialogInfo@CDialog@@MAEHPAU_AFX_OCC_DIALOG_INFO@@@Z
	DD	FLAT:?Create@CDialog@@UAEHIPAVCWnd@@@Z
	DD	FLAT:?Create@CDialog@@UAEHPBDPAVCWnd@@@Z
	DD	FLAT:?CreateIndirect@CDialog@@UAEHPAXPAVCWnd@@@Z
	DD	FLAT:?CreateIndirect@CDialog@@UAEHPBUDLGTEMPLATE@@PAVCWnd@@PAX@Z
	DD	FLAT:?DoModal@CDialog@@UAEHXZ
	DD	FLAT:?OnInitDialog@CUpdateTipDlg@@UAEHXZ
	DD	FLAT:?OnSetFont@CDialog@@UAEXPAVCFont@@@Z
	DD	FLAT:?OnOK@CDialog@@MAEXXZ
	DD	FLAT:?OnCancel@CDialog@@MAEXXZ
	DD	FLAT:?PreInitDialog@CDialog@@MAEXXZ
CONST	ENDS
;	COMDAT ??_R4CUpdateTipDlg@@6B@
rdata$r	SEGMENT
??_R4CUpdateTipDlg@@6B@ DD 00H				; CUpdateTipDlg::`RTTI Complete Object Locator'
	DD	00H
	DD	00H
	DD	FLAT:??_R0?AVCUpdateTipDlg@@@8
	DD	FLAT:??_R3CUpdateTipDlg@@8
rdata$r	ENDS
;	COMDAT ??_R0?AVCUpdateTipDlg@@@8
_DATA	SEGMENT
??_R0?AVCUpdateTipDlg@@@8 DD FLAT:??_7type_info@@6B@	; CUpdateTipDlg `RTTI Type Descriptor'
	DD	00H
	DB	'.?AVCUpdateTipDlg@@', 00H
_DATA	ENDS
;	COMDAT ??_R3CUpdateTipDlg@@8
rdata$r	SEGMENT
??_R3CUpdateTipDlg@@8 DD 00H				; CUpdateTipDlg::`RTTI Class Hierarchy Descriptor'
	DD	00H
	DD	05H
	DD	FLAT:??_R2CUpdateTipDlg@@8
rdata$r	ENDS
;	COMDAT ??_R2CUpdateTipDlg@@8
rdata$r	SEGMENT
??_R2CUpdateTipDlg@@8 DD FLAT:??_R1A@?0A@A@CUpdateTipDlg@@8 ; CUpdateTipDlg::`RTTI Base Class Array'
	DD	FLAT:??_R1A@?0A@A@CDialog@@8
	DD	FLAT:??_R1A@?0A@A@CWnd@@8
	DD	FLAT:??_R1A@?0A@A@CCmdTarget@@8
	DD	FLAT:??_R1A@?0A@A@CObject@@8
rdata$r	ENDS
;	COMDAT ??_R1A@?0A@A@CUpdateTipDlg@@8
rdata$r	SEGMENT
??_R1A@?0A@A@CUpdateTipDlg@@8 DD FLAT:??_R0?AVCUpdateTipDlg@@@8 ; CUpdateTipDlg::`RTTI Base Class Descriptor at (0,-1,0,0)'
	DD	04H
	DD	00H
	DD	0ffffffffH
	DD	00H
	DD	00H
rdata$r	ENDS
;	COMDAT ??_R1A@?0A@A@CDialog@@8
rdata$r	SEGMENT
??_R1A@?0A@A@CDialog@@8 DD FLAT:??_R0?AVCDialog@@@8	; CDialog::`RTTI Base Class Descriptor at (0,-1,0,0)'
	DD	03H
	DD	00H
	DD	0ffffffffH
	DD	00H
	DD	00H
rdata$r	ENDS
;	COMDAT ??_R0?AVCDialog@@@8
_DATA	SEGMENT
??_R0?AVCDialog@@@8 DD FLAT:??_7type_info@@6B@		; CDialog `RTTI Type Descriptor'
	DD	00H
	DB	'.?AVCDialog@@', 00H
_DATA	ENDS
;	COMDAT ??_R1A@?0A@A@CWnd@@8
rdata$r	SEGMENT
??_R1A@?0A@A@CWnd@@8 DD FLAT:??_R0?AVCWnd@@@8		; CWnd::`RTTI Base Class Descriptor at (0,-1,0,0)'
	DD	02H
	DD	00H
	DD	0ffffffffH
	DD	00H
	DD	00H
rdata$r	ENDS
;	COMDAT ??_R0?AVCWnd@@@8
_DATA	SEGMENT
??_R0?AVCWnd@@@8 DD FLAT:??_7type_info@@6B@		; CWnd `RTTI Type Descriptor'
	DD	00H
	DB	'.?AVCWnd@@', 00H
_DATA	ENDS
;	COMDAT ??_R1A@?0A@A@CCmdTarget@@8
rdata$r	SEGMENT
??_R1A@?0A@A@CCmdTarget@@8 DD FLAT:??_R0?AVCCmdTarget@@@8 ; CCmdTarget::`RTTI Base Class Descriptor at (0,-1,0,0)'
	DD	01H
	DD	00H
	DD	0ffffffffH
	DD	00H
	DD	00H
rdata$r	ENDS
;	COMDAT ??_R0?AVCCmdTarget@@@8
_DATA	SEGMENT
??_R0?AVCCmdTarget@@@8 DD FLAT:??_7type_info@@6B@	; CCmdTarget `RTTI Type Descriptor'
	DD	00H
	DB	'.?AVCCmdTarget@@', 00H
_DATA	ENDS
;	COMDAT ??_R1A@?0A@A@CObject@@8
rdata$r	SEGMENT
??_R1A@?0A@A@CObject@@8 DD FLAT:??_R0?AVCObject@@@8	; CObject::`RTTI Base Class Descriptor at (0,-1,0,0)'
	DD	00H
	DD	00H
	DD	0ffffffffH
	DD	00H
	DD	00H
rdata$r	ENDS
;	COMDAT ??_R0?AVCObject@@@8
_DATA	SEGMENT
??_R0?AVCObject@@@8 DD FLAT:??_7type_info@@6B@		; CObject `RTTI Type Descriptor'
	DD	00H
	DB	'.?AVCObject@@', 00H
; Function compile flags: /Odt /RTCsu
_DATA	ENDS
_TEXT	SEGMENT
_this$ = -16						; size = 4
__$EHRec$ = -12						; size = 12
_pParent$ = 8						; size = 4
??0CUpdateTipDlg@@QAE@PAVCWnd@@@Z PROC NEAR		; CUpdateTipDlg::CUpdateTipDlg
; _this$ = ecx

; 33   : {

  00170	55		 push	 ebp
  00171	8b ec		 mov	 ebp, esp
  00173	6a ff		 push	 -1
  00175	68 00 00 00 00	 push	 __ehhandler$??0CUpdateTipDlg@@QAE@PAVCWnd@@@Z
  0017a	64 a1 00 00 00
	00		 mov	 eax, DWORD PTR fs:__except_list
  00180	50		 push	 eax
  00181	64 89 25 00 00
	00 00		 mov	 DWORD PTR fs:__except_list, esp
  00188	51		 push	 ecx
  00189	56		 push	 esi
  0018a	c7 45 f0 cc cc
	cc cc		 mov	 DWORD PTR [ebp-16], -858993460 ; ccccccccH
  00191	89 4d f0	 mov	 DWORD PTR _this$[ebp], ecx
  00194	8b 45 08	 mov	 eax, DWORD PTR _pParent$[ebp]
  00197	50		 push	 eax
  00198	68 d7 00 00 00	 push	 215			; 000000d7H
  0019d	8b 4d f0	 mov	 ecx, DWORD PTR _this$[ebp]
  001a0	e8 00 00 00 00	 call	 ??0CDialog@@QAE@IPAVCWnd@@@Z ; CDialog::CDialog
  001a5	c7 45 fc 00 00
	00 00		 mov	 DWORD PTR __$EHRec$[ebp+8], 0
  001ac	8b 4d f0	 mov	 ecx, DWORD PTR _this$[ebp]
  001af	c7 01 00 00 00
	00		 mov	 DWORD PTR [ecx], OFFSET FLAT:??_7CUpdateTipDlg@@6B@
  001b5	8b 4d f0	 mov	 ecx, DWORD PTR _this$[ebp]
  001b8	83 c1 78	 add	 ecx, 120		; 00000078H
  001bb	8b f4		 mov	 esi, esp
  001bd	ff 15 00 00 00
	00		 call	 DWORD PTR __imp_??0?$CStringT@DV?$StrTraitMFC_DLL@DV?$ChTraitsCRT@D@ATL@@@@@ATL@@QAE@XZ
  001c3	3b f4		 cmp	 esi, esp
  001c5	e8 00 00 00 00	 call	 __RTC_CheckEsp
  001ca	c6 45 fc 01	 mov	 BYTE PTR __$EHRec$[ebp+8], 1
  001ce	8b 4d f0	 mov	 ecx, DWORD PTR _this$[ebp]
  001d1	83 c1 7c	 add	 ecx, 124		; 0000007cH
  001d4	e8 00 00 00 00	 call	 ??0CHyperLinkExpand@@QAE@XZ

; 34   : }

  001d9	c7 45 fc ff ff
	ff ff		 mov	 DWORD PTR __$EHRec$[ebp+8], -1
  001e0	8b 45 f0	 mov	 eax, DWORD PTR _this$[ebp]
  001e3	8b 4d f4	 mov	 ecx, DWORD PTR __$EHRec$[ebp]
  001e6	64 89 0d 00 00
	00 00		 mov	 DWORD PTR fs:__except_list, ecx
  001ed	5e		 pop	 esi
  001ee	83 c4 10	 add	 esp, 16			; 00000010H
  001f1	3b ec		 cmp	 ebp, esp
  001f3	e8 00 00 00 00	 call	 __RTC_CheckEsp
  001f8	8b e5		 mov	 esp, ebp
  001fa	5d		 pop	 ebp
  001fb	c2 04 00	 ret	 4
_TEXT	ENDS
text$x	SEGMENT
$L187827:
  00000	8b 4d f0	 mov	 ecx, DWORD PTR _this$[ebp]
  00003	e9 00 00 00 00	 jmp	 ??1CDialog@@UAE@XZ	; CDialog::~CDialog
$L187828:
  00008	8b 4d f0	 mov	 ecx, DWORD PTR _this$[ebp]
  0000b	83 c1 78	 add	 ecx, 120		; 00000078H
  0000e	8b f4		 mov	 esi, esp
  00010	ff 15 00 00 00
	00		 call	 DWORD PTR __imp_??1?$CStringT@DV?$StrTraitMFC_DLL@DV?$ChTraitsCRT@D@ATL@@@@@ATL@@QAE@XZ
  00016	3b f4		 cmp	 esi, esp
  00018	e9 00 00 00 00	 jmp	 __RTC_CheckEsp
__ehhandler$??0CUpdateTipDlg@@QAE@PAVCWnd@@@Z:
  0001d	b8 00 00 00 00	 mov	 eax, OFFSET FLAT:$T187833
  00022	e9 00 00 00 00	 jmp	 ___CxxFrameHandler
text$x	ENDS
??0CUpdateTipDlg@@QAE@PAVCWnd@@@Z ENDP			; CUpdateTipDlg::CUpdateTipDlg
PUBLIC	??1CUpdateTipDlg@@UAE@XZ			; CUpdateTipDlg::~CUpdateTipDlg
EXTRN	??3CObject@@SGXPAX@Z:NEAR			; CObject::operator delete
; Function compile flags: /Odt /RTCsu
;	COMDAT ??_GCUpdateTipDlg@@UAEPAXI@Z
_TEXT	SEGMENT
_this$ = -4						; size = 4
___flags$ = 8						; size = 4
??_GCUpdateTipDlg@@UAEPAXI@Z PROC NEAR			; CUpdateTipDlg::`scalar deleting destructor', COMDAT
; _this$ = ecx
  00000	55		 push	 ebp
  00001	8b ec		 mov	 ebp, esp
  00003	51		 push	 ecx
  00004	c7 45 fc cc cc
	cc cc		 mov	 DWORD PTR [ebp-4], -858993460 ; ccccccccH
  0000b	89 4d fc	 mov	 DWORD PTR _this$[ebp], ecx
  0000e	8b 4d fc	 mov	 ecx, DWORD PTR _this$[ebp]
  00011	e8 00 00 00 00	 call	 ??1CUpdateTipDlg@@UAE@XZ ; CUpdateTipDlg::~CUpdateTipDlg
  00016	8b 45 08	 mov	 eax, DWORD PTR ___flags$[ebp]
  00019	83 e0 01	 and	 eax, 1
  0001c	74 09		 je	 SHORT $L187203
  0001e	8b 4d fc	 mov	 ecx, DWORD PTR _this$[ebp]
  00021	51		 push	 ecx
  00022	e8 00 00 00 00	 call	 ??3CObject@@SGXPAX@Z	; CObject::operator delete
$L187203:
  00027	8b 45 fc	 mov	 eax, DWORD PTR _this$[ebp]
  0002a	83 c4 04	 add	 esp, 4
  0002d	3b ec		 cmp	 ebp, esp
  0002f	e8 00 00 00 00	 call	 __RTC_CheckEsp
  00034	8b e5		 mov	 esp, ebp
  00036	5d		 pop	 ebp
  00037	c2 04 00	 ret	 4
??_GCUpdateTipDlg@@UAEPAXI@Z ENDP			; CUpdateTipDlg::`scalar deleting destructor'
_TEXT	ENDS
PUBLIC	??_R4CHyperLinkExpand@@6B@			; CHyperLinkExpand::`RTTI Complete Object Locator'
PUBLIC	??_R0?AVCHyperLinkExpand@@@8			; CHyperLinkExpand `RTTI Type Descriptor'
PUBLIC	??_R3CHyperLinkExpand@@8			; CHyperLinkExpand::`RTTI Class Hierarchy Descriptor'
PUBLIC	??_R2CHyperLinkExpand@@8			; CHyperLinkExpand::`RTTI Base Class Array'
PUBLIC	??_R1A@?0A@A@CHyperLinkExpand@@8		; CHyperLinkExpand::`RTTI Base Class Descriptor at (0,-1,0,0)'
PUBLIC	??_R1A@?0A@A@CHyperLink@@8			; CHyperLink::`RTTI Base Class Descriptor at (0,-1,0,0)'
PUBLIC	??_R0?AVCHyperLink@@@8				; CHyperLink `RTTI Type Descriptor'
PUBLIC	??_R1A@?0A@A@CStatic@@8				; CStatic::`RTTI Base Class Descriptor at (0,-1,0,0)'
PUBLIC	??_R0?AVCStatic@@@8				; CStatic `RTTI Type Descriptor'
PUBLIC	??_7CHyperLinkExpand@@6B@			; CHyperLinkExpand::`vftable'
PUBLIC	??_GCHyperLinkExpand@@UAEPAXI@Z			; CHyperLinkExpand::`scalar deleting destructor'
EXTRN	?OnCmdMsg@CCmdTarget@@UAEHIHPAXPAUAFX_CMDHANDLERINFO@@@Z:NEAR ; CCmdTarget::OnCmdMsg
EXTRN	?DoDataExchange@CWnd@@MAEXPAVCDataExchange@@@Z:NEAR ; CWnd::DoDataExchange
EXTRN	?CheckAutoCenter@CWnd@@UAEHXZ:NEAR		; CWnd::CheckAutoCenter
EXTRN	?AssertValid@CWnd@@UBEXXZ:NEAR			; CWnd::AssertValid
EXTRN	?Dump@CWnd@@UBEXAAVCDumpContext@@@Z:NEAR	; CWnd::Dump
EXTRN	??0CHyperLink@@QAE@XZ:NEAR			; CHyperLink::CHyperLink
EXTRN	?PreTranslateMessage@CHyperLink@@UAEHPAUtagMSG@@@Z:NEAR ; CHyperLink::PreTranslateMessage
EXTRN	?DestroyWindow@CHyperLink@@UAEHXZ:NEAR		; CHyperLink::DestroyWindow
EXTRN	?PreSubclassWindow@CHyperLink@@MAEXXZ:NEAR	; CHyperLink::PreSubclassWindow
EXTRN	?SetOccDialogInfo@CWnd@@MAEHPAU_AFX_OCC_DIALOG_INFO@@@Z:NEAR ; CWnd::SetOccDialogInfo
EXTRN	??_ECHyperLinkExpand@@UAEPAXI@Z:NEAR		; CHyperLinkExpand::`vector deleting destructor'
EXTRN	?GetRuntimeClass@CStatic@@UBEPAUCRuntimeClass@@XZ:NEAR ; CStatic::GetRuntimeClass
EXTRN	?Create@CStatic@@UAEHPBDKABUtagRECT@@PAVCWnd@@I@Z:NEAR ; CStatic::Create
EXTRN	?DrawItem@CStatic@@UAEXPAUtagDRAWITEMSTRUCT@@@Z:NEAR ; CStatic::DrawItem
EXTRN	?OnChildNotify@CStatic@@MAEHIIJPAJ@Z:NEAR	; CStatic::OnChildNotify
;	COMDAT ??_7CHyperLinkExpand@@6B@
CONST	SEGMENT
??_7CHyperLinkExpand@@6B@ DD FLAT:??_R4CHyperLinkExpand@@6B@ ; CHyperLinkExpand::`vftable'
	DD	FLAT:?GetRuntimeClass@CStatic@@UBEPAUCRuntimeClass@@XZ
	DD	FLAT:??_ECHyperLinkExpand@@UAEPAXI@Z
	DD	FLAT:?Serialize@CObject@@UAEXAAVCArchive@@@Z
	DD	FLAT:?AssertValid@CWnd@@UBEXXZ
	DD	FLAT:?Dump@CWnd@@UBEXAAVCDumpContext@@@Z
	DD	FLAT:?OnCmdMsg@CCmdTarget@@UAEHIHPAXPAUAFX_CMDHANDLERINFO@@@Z
	DD	FLAT:?OnFinalRelease@CWnd@@UAEXXZ
	DD	FLAT:?IsInvokeAllowed@CCmdTarget@@UAEHJ@Z
	DD	FLAT:?GetDispatchIID@CCmdTarget@@UAEHPAU_GUID@@@Z
	DD	FLAT:?GetTypeInfoCount@CCmdTarget@@UAEIXZ
	DD	FLAT:?GetTypeLibCache@CCmdTarget@@UAEPAVCTypeLibCache@@XZ
	DD	FLAT:?GetTypeLib@CCmdTarget@@UAEJKPAPAUITypeLib@@@Z
	DD	FLAT:?GetMessageMap@CHyperLinkExpand@@MBEPBUAFX_MSGMAP@@XZ
	DD	FLAT:?GetCommandMap@CCmdTarget@@MBEPBUAFX_OLECMDMAP@@XZ
	DD	FLAT:?GetDispatchMap@CCmdTarget@@MBEPBUAFX_DISPMAP@@XZ
	DD	FLAT:?GetConnectionMap@CCmdTarget@@MBEPBUAFX_CONNECTIONMAP@@XZ
	DD	FLAT:?GetInterfaceMap@CWnd@@MBEPBUAFX_INTERFACEMAP@@XZ
	DD	FLAT:?GetEventSinkMap@CCmdTarget@@MBEPBUAFX_EVENTSINKMAP@@XZ
	DD	FLAT:?OnCreateAggregates@CCmdTarget@@UAEHXZ
	DD	FLAT:?GetInterfaceHook@CCmdTarget@@UAEPAUIUnknown@@PBX@Z
	DD	FLAT:?GetExtraConnectionPoints@CCmdTarget@@MAEHPAVCPtrArray@@@Z
	DD	FLAT:?GetConnectionHook@CCmdTarget@@MAEPAUIConnectionPoint@@ABU_GUID@@@Z
	DD	FLAT:?PreSubclassWindow@CHyperLink@@MAEXXZ
	DD	FLAT:?Create@CWnd@@UAEHPBD0KABUtagRECT@@PAV1@IPAUCCreateContext@@@Z
	DD	FLAT:?CreateEx@CWnd@@UAEHKPBD0KABUtagRECT@@PAV1@IPAX@Z
	DD	FLAT:?CreateEx@CWnd@@UAEHKPBD0KHHHHPAUHWND__@@PAUHMENU__@@PAX@Z
	DD	FLAT:?DestroyWindow@CHyperLink@@UAEHXZ
	DD	FLAT:?PreCreateWindow@CWnd@@UAEHAAUtagCREATESTRUCTA@@@Z
	DD	FLAT:?CalcWindowRect@CWnd@@UAEXPAUtagRECT@@I@Z
	DD	FLAT:?OnToolHitTest@CWnd@@UBEHVCPoint@@PAUtagTOOLINFOA@@@Z
	DD	FLAT:?GetScrollBarCtrl@CWnd@@UBEPAVCScrollBar@@H@Z
	DD	FLAT:?WinHelpA@CWnd@@UAEXKI@Z
	DD	FLAT:?HtmlHelpA@CWnd@@UAEXKI@Z
	DD	FLAT:?WinHelpInternal@CWnd@@UAEXKI@Z
	DD	FLAT:?ContinueModal@CWnd@@UAEHXZ
	DD	FLAT:?EndModalLoop@CWnd@@UAEXH@Z
	DD	FLAT:?EnsureStdObj@CWnd@@UAEJXZ
	DD	FLAT:?get_accParent@CWnd@@UAEJPAPAUIDispatch@@@Z
	DD	FLAT:?get_accChildCount@CWnd@@UAEJPAJ@Z
	DD	FLAT:?get_accChild@CWnd@@UAEJUtagVARIANT@@PAPAUIDispatch@@@Z
	DD	FLAT:?get_accName@CWnd@@UAEJUtagVARIANT@@PAPA_W@Z
	DD	FLAT:?get_accValue@CWnd@@UAEJUtagVARIANT@@PAPA_W@Z
	DD	FLAT:?get_accDescription@CWnd@@UAEJUtagVARIANT@@PAPA_W@Z
	DD	FLAT:?get_accRole@CWnd@@UAEJUtagVARIANT@@PAU2@@Z
	DD	FLAT:?get_accState@CWnd@@UAEJUtagVARIANT@@PAU2@@Z
	DD	FLAT:?get_accHelp@CWnd@@UAEJUtagVARIANT@@PAPA_W@Z
	DD	FLAT:?get_accHelpTopic@CWnd@@UAEJPAPA_WUtagVARIANT@@PAJ@Z
	DD	FLAT:?get_accKeyboardShortcut@CWnd@@UAEJUtagVARIANT@@PAPA_W@Z
	DD	FLAT:?get_accFocus@CWnd@@UAEJPAUtagVARIANT@@@Z
	DD	FLAT:?get_accSelection@CWnd@@UAEJPAUtagVARIANT@@@Z
	DD	FLAT:?get_accDefaultAction@CWnd@@UAEJUtagVARIANT@@PAPA_W@Z
	DD	FLAT:?accSelect@CWnd@@UAEJJUtagVARIANT@@@Z
	DD	FLAT:?accLocation@CWnd@@UAEJPAJ000UtagVARIANT@@@Z
	DD	FLAT:?accNavigate@CWnd@@UAEJJUtagVARIANT@@PAU2@@Z
	DD	FLAT:?accHitTest@CWnd@@UAEJJJPAUtagVARIANT@@@Z
	DD	FLAT:?accDoDefaultAction@CWnd@@UAEJUtagVARIANT@@@Z
	DD	FLAT:?put_accName@CWnd@@UAEJUtagVARIANT@@PA_W@Z
	DD	FLAT:?put_accValue@CWnd@@UAEJUtagVARIANT@@PA_W@Z
	DD	FLAT:?SetProxy@CWnd@@UAEJPAUIAccessibleProxy@@@Z
	DD	FLAT:?CreateAccessibleProxy@CWnd@@UAEJIJPAJ@Z
	DD	FLAT:?OnCommand@CWnd@@MAEHIJ@Z
	DD	FLAT:?OnNotify@CWnd@@MAEHIJPAJ@Z
	DD	FLAT:?GetSuperWndProcAddr@CWnd@@MAEPAP6GJPAUHWND__@@IIJ@ZXZ
	DD	FLAT:?DoDataExchange@CWnd@@MAEXPAVCDataExchange@@@Z
	DD	FLAT:?BeginModalState@CWnd@@UAEXXZ
	DD	FLAT:?EndModalState@CWnd@@UAEXXZ
	DD	FLAT:?PreTranslateMessage@CHyperLink@@UAEHPAUtagMSG@@@Z
	DD	FLAT:?OnAmbientProperty@CWnd@@UAEHPAVCOleControlSite@@JPAUtagVARIANT@@@Z
	DD	FLAT:?WindowProc@CWnd@@MAEJIIJ@Z
	DD	FLAT:?OnWndMsg@CWnd@@MAEHIIJPAJ@Z
	DD	FLAT:?DefWindowProcA@CWnd@@MAEJIIJ@Z
	DD	FLAT:?PostNcDestroy@CWnd@@MAEXXZ
	DD	FLAT:?OnChildNotify@CStatic@@MAEHIIJPAJ@Z
	DD	FLAT:?CheckAutoCenter@CWnd@@UAEHXZ
	DD	FLAT:?IsFrameWnd@CWnd@@UBEHXZ
	DD	FLAT:?CreateControlContainer@CWnd@@MAEHPAPAVCOleControlContainer@@@Z
	DD	FLAT:?CreateControlSite@CWnd@@MAEHPAVCOleControlContainer@@PAPAVCOleControlSite@@IABU_GUID@@@Z
	DD	FLAT:?SetOccDialogInfo@CWnd@@MAEHPAU_AFX_OCC_DIALOG_INFO@@@Z
	DD	FLAT:?Create@CStatic@@UAEHPBDKABUtagRECT@@PAVCWnd@@I@Z
	DD	FLAT:?DrawItem@CStatic@@UAEXPAUtagDRAWITEMSTRUCT@@@Z
CONST	ENDS
;	COMDAT ??_R4CHyperLinkExpand@@6B@
rdata$r	SEGMENT
??_R4CHyperLinkExpand@@6B@ DD 00H			; CHyperLinkExpand::`RTTI Complete Object Locator'
	DD	00H
	DD	00H
	DD	FLAT:??_R0?AVCHyperLinkExpand@@@8
	DD	FLAT:??_R3CHyperLinkExpand@@8
rdata$r	ENDS
;	COMDAT ??_R0?AVCHyperLinkExpand@@@8
_DATA	SEGMENT
??_R0?AVCHyperLinkExpand@@@8 DD FLAT:??_7type_info@@6B@	; CHyperLinkExpand `RTTI Type Descriptor'
	DD	00H
	DB	'.?AVCHyperLinkExpand@@', 00H
_DATA	ENDS
;	COMDAT ??_R3CHyperLinkExpand@@8
rdata$r	SEGMENT
??_R3CHyperLinkExpand@@8 DD 00H				; CHyperLinkExpand::`RTTI Class Hierarchy Descriptor'
	DD	00H
	DD	06H
	DD	FLAT:??_R2CHyperLinkExpand@@8
rdata$r	ENDS
;	COMDAT ??_R2CHyperLinkExpand@@8
rdata$r	SEGMENT
??_R2CHyperLinkExpand@@8 DD FLAT:??_R1A@?0A@A@CHyperLinkExpand@@8 ; CHyperLinkExpand::`RTTI Base Class Array'
	DD	FLAT:??_R1A@?0A@A@CHyperLink@@8
	DD	FLAT:??_R1A@?0A@A@CStatic@@8
	DD	FLAT:??_R1A@?0A@A@CWnd@@8
	DD	FLAT:??_R1A@?0A@A@CCmdTarget@@8
	DD	FLAT:??_R1A@?0A@A@CObject@@8
rdata$r	ENDS
;	COMDAT ??_R1A@?0A@A@CHyperLinkExpand@@8
rdata$r	SEGMENT
??_R1A@?0A@A@CHyperLinkExpand@@8 DD FLAT:??_R0?AVCHyperLinkExpand@@@8 ; CHyperLinkExpand::`RTTI Base Class Descriptor at (0,-1,0,0)'
	DD	05H
	DD	00H
	DD	0ffffffffH
	DD	00H
	DD	00H
rdata$r	ENDS
;	COMDAT ??_R1A@?0A@A@CHyperLink@@8
rdata$r	SEGMENT
??_R1A@?0A@A@CHyperLink@@8 DD FLAT:??_R0?AVCHyperLink@@@8 ; CHyperLink::`RTTI Base Class Descriptor at (0,-1,0,0)'
	DD	04H
	DD	00H
	DD	0ffffffffH
	DD	00H
	DD	00H
rdata$r	ENDS
;	COMDAT ??_R0?AVCHyperLink@@@8
_DATA	SEGMENT
??_R0?AVCHyperLink@@@8 DD FLAT:??_7type_info@@6B@	; CHyperLink `RTTI Type Descriptor'
	DD	00H
	DB	'.?AVCHyperLink@@', 00H
_DATA	ENDS
;	COMDAT ??_R1A@?0A@A@CStatic@@8
rdata$r	SEGMENT
??_R1A@?0A@A@CStatic@@8 DD FLAT:??_R0?AVCStatic@@@8	; CStatic::`RTTI Base Class Descriptor at (0,-1,0,0)'
	DD	03H
	DD	00H
	DD	0ffffffffH
	DD	00H
	DD	00H
rdata$r	ENDS
;	COMDAT ??_R0?AVCStatic@@@8
_DATA	SEGMENT
??_R0?AVCStatic@@@8 DD FLAT:??_7type_info@@6B@		; CStatic `RTTI Type Descriptor'
	DD	00H
	DB	'.?AVCStatic@@', 00H
; Function compile flags: /Odt /RTCsu
_DATA	ENDS
;	COMDAT ??0CHyperLinkExpand@@QAE@XZ
_TEXT	SEGMENT
_this$ = -4						; size = 4
??0CHyperLinkExpand@@QAE@XZ PROC NEAR			; CHyperLinkExpand::CHyperLinkExpand, COMDAT
; _this$ = ecx
  00000	55		 push	 ebp
  00001	8b ec		 mov	 ebp, esp
  00003	51		 push	 ecx
  00004	c7 45 fc cc cc
	cc cc		 mov	 DWORD PTR [ebp-4], -858993460 ; ccccccccH
  0000b	89 4d fc	 mov	 DWORD PTR _this$[ebp], ecx
  0000e	8b 4d fc	 mov	 ecx, DWORD PTR _this$[ebp]
  00011	e8 00 00 00 00	 call	 ??0CHyperLink@@QAE@XZ	; CHyperLink::CHyperLink
  00016	8b 45 fc	 mov	 eax, DWORD PTR _this$[ebp]
  00019	c7 00 00 00 00
	00		 mov	 DWORD PTR [eax], OFFSET FLAT:??_7CHyperLinkExpand@@6B@
  0001f	8b 45 fc	 mov	 eax, DWORD PTR _this$[ebp]
  00022	83 c4 04	 add	 esp, 4
  00025	3b ec		 cmp	 ebp, esp
  00027	e8 00 00 00 00	 call	 __RTC_CheckEsp
  0002c	8b e5		 mov	 esp, ebp
  0002e	5d		 pop	 ebp
  0002f	c3		 ret	 0
??0CHyperLinkExpand@@QAE@XZ ENDP			; CHyperLinkExpand::CHyperLinkExpand
_TEXT	ENDS
PUBLIC	??1CHyperLinkExpand@@UAE@XZ			; CHyperLinkExpand::~CHyperLinkExpand
; Function compile flags: /Odt /RTCsu
;	COMDAT ??_GCHyperLinkExpand@@UAEPAXI@Z
_TEXT	SEGMENT
_this$ = -4						; size = 4
___flags$ = 8						; size = 4
??_GCHyperLinkExpand@@UAEPAXI@Z PROC NEAR		; CHyperLinkExpand::`scalar deleting destructor', COMDAT
; _this$ = ecx
  00000	55		 push	 ebp
  00001	8b ec		 mov	 ebp, esp
  00003	51		 push	 ecx
  00004	c7 45 fc cc cc
	cc cc		 mov	 DWORD PTR [ebp-4], -858993460 ; ccccccccH
  0000b	89 4d fc	 mov	 DWORD PTR _this$[ebp], ecx
  0000e	8b 4d fc	 mov	 ecx, DWORD PTR _this$[ebp]
  00011	e8 00 00 00 00	 call	 ??1CHyperLinkExpand@@UAE@XZ
  00016	8b 45 08	 mov	 eax, DWORD PTR ___flags$[ebp]
  00019	83 e0 01	 and	 eax, 1
  0001c	74 09		 je	 SHORT $L187211
  0001e	8b 4d fc	 mov	 ecx, DWORD PTR _this$[ebp]
  00021	51		 push	 ecx
  00022	e8 00 00 00 00	 call	 ??3CObject@@SGXPAX@Z	; CObject::operator delete
$L187211:
  00027	8b 45 fc	 mov	 eax, DWORD PTR _this$[ebp]
  0002a	83 c4 04	 add	 esp, 4
  0002d	3b ec		 cmp	 ebp, esp
  0002f	e8 00 00 00 00	 call	 __RTC_CheckEsp
  00034	8b e5		 mov	 esp, ebp
  00036	5d		 pop	 ebp
  00037	c2 04 00	 ret	 4
??_GCHyperLinkExpand@@UAEPAXI@Z ENDP			; CHyperLinkExpand::`scalar deleting destructor'
_TEXT	ENDS
EXTRN	??1CHyperLink@@UAE@XZ:NEAR			; CHyperLink::~CHyperLink
; Function compile flags: /Odt /RTCsu
;	COMDAT ??1CHyperLinkExpand@@UAE@XZ
_TEXT	SEGMENT
_this$ = -4						; size = 4
??1CHyperLinkExpand@@UAE@XZ PROC NEAR			; CHyperLinkExpand::~CHyperLinkExpand, COMDAT
; _this$ = ecx
  00000	55		 push	 ebp
  00001	8b ec		 mov	 ebp, esp
  00003	51		 push	 ecx
  00004	c7 45 fc cc cc
	cc cc		 mov	 DWORD PTR [ebp-4], -858993460 ; ccccccccH
  0000b	89 4d fc	 mov	 DWORD PTR _this$[ebp], ecx
  0000e	8b 4d fc	 mov	 ecx, DWORD PTR _this$[ebp]
  00011	e8 00 00 00 00	 call	 ??1CHyperLink@@UAE@XZ	; CHyperLink::~CHyperLink
  00016	83 c4 04	 add	 esp, 4
  00019	3b ec		 cmp	 ebp, esp
  0001b	e8 00 00 00 00	 call	 __RTC_CheckEsp
  00020	8b e5		 mov	 esp, ebp
  00022	5d		 pop	 ebp
  00023	c3		 ret	 0
??1CHyperLinkExpand@@UAE@XZ ENDP			; CHyperLinkExpand::~CHyperLinkExpand
_TEXT	ENDS
xdata$x	SEGMENT
$T187851 DD	0ffffffffH
	DD	FLAT:$L187845
	DD	00H
	DD	FLAT:$L187846
$T187849 DD	019930520H
	DD	02H
	DD	FLAT:$T187851
	DD	2 DUP(00H)
	DD	2 DUP(00H)
; Function compile flags: /Odt /RTCsu
xdata$x	ENDS
_TEXT	SEGMENT
_this$ = -16						; size = 4
__$EHRec$ = -12						; size = 12
??1CUpdateTipDlg@@UAE@XZ PROC NEAR			; CUpdateTipDlg::~CUpdateTipDlg
; _this$ = ecx

; 37   : {

  00200	55		 push	 ebp
  00201	8b ec		 mov	 ebp, esp
  00203	6a ff		 push	 -1
  00205	68 00 00 00 00	 push	 __ehhandler$??1CUpdateTipDlg@@UAE@XZ
  0020a	64 a1 00 00 00
	00		 mov	 eax, DWORD PTR fs:__except_list
  00210	50		 push	 eax
  00211	64 89 25 00 00
	00 00		 mov	 DWORD PTR fs:__except_list, esp
  00218	51		 push	 ecx
  00219	56		 push	 esi
  0021a	c7 45 f0 cc cc
	cc cc		 mov	 DWORD PTR [ebp-16], -858993460 ; ccccccccH
  00221	89 4d f0	 mov	 DWORD PTR _this$[ebp], ecx
  00224	8b 45 f0	 mov	 eax, DWORD PTR _this$[ebp]
  00227	c7 00 00 00 00
	00		 mov	 DWORD PTR [eax], OFFSET FLAT:??_7CUpdateTipDlg@@6B@
  0022d	c7 45 fc 01 00
	00 00		 mov	 DWORD PTR __$EHRec$[ebp+8], 1

; 38   : }

  00234	8b 4d f0	 mov	 ecx, DWORD PTR _this$[ebp]
  00237	83 c1 7c	 add	 ecx, 124		; 0000007cH
  0023a	e8 00 00 00 00	 call	 ??1CHyperLinkExpand@@UAE@XZ
  0023f	c6 45 fc 00	 mov	 BYTE PTR __$EHRec$[ebp+8], 0
  00243	8b 4d f0	 mov	 ecx, DWORD PTR _this$[ebp]
  00246	83 c1 78	 add	 ecx, 120		; 00000078H
  00249	8b f4		 mov	 esi, esp
  0024b	ff 15 00 00 00
	00		 call	 DWORD PTR __imp_??1?$CStringT@DV?$StrTraitMFC_DLL@DV?$ChTraitsCRT@D@ATL@@@@@ATL@@QAE@XZ
  00251	3b f4		 cmp	 esi, esp
  00253	e8 00 00 00 00	 call	 __RTC_CheckEsp
  00258	c7 45 fc ff ff
	ff ff		 mov	 DWORD PTR __$EHRec$[ebp+8], -1
  0025f	8b 4d f0	 mov	 ecx, DWORD PTR _this$[ebp]
  00262	e8 00 00 00 00	 call	 ??1CDialog@@UAE@XZ	; CDialog::~CDialog
  00267	8b 4d f4	 mov	 ecx, DWORD PTR __$EHRec$[ebp]
  0026a	64 89 0d 00 00
	00 00		 mov	 DWORD PTR fs:__except_list, ecx
  00271	5e		 pop	 esi
  00272	83 c4 10	 add	 esp, 16			; 00000010H
  00275	3b ec		 cmp	 ebp, esp
  00277	e8 00 00 00 00	 call	 __RTC_CheckEsp
  0027c	8b e5		 mov	 esp, ebp
  0027e	5d		 pop	 ebp
  0027f	c3		 ret	 0
_TEXT	ENDS
text$x	SEGMENT
$L187845:
  00027	8b 4d f0	 mov	 ecx, DWORD PTR _this$[ebp]
  0002a	e9 00 00 00 00	 jmp	 ??1CDialog@@UAE@XZ	; CDialog::~CDialog
$L187846:
  0002f	8b 4d f0	 mov	 ecx, DWORD PTR _this$[ebp]
  00032	83 c1 78	 add	 ecx, 120		; 00000078H
  00035	8b f4		 mov	 esi, esp
  00037	ff 15 00 00 00
	00		 call	 DWORD PTR __imp_??1?$CStringT@DV?$StrTraitMFC_DLL@DV?$ChTraitsCRT@D@ATL@@@@@ATL@@QAE@XZ
  0003d	3b f4		 cmp	 esi, esp
  0003f	e9 00 00 00 00	 jmp	 __RTC_CheckEsp
__ehhandler$??1CUpdateTipDlg@@UAE@XZ:
  00044	b8 00 00 00 00	 mov	 eax, OFFSET FLAT:$T187849
  00049	e9 00 00 00 00	 jmp	 ___CxxFrameHandler
text$x	ENDS
??1CUpdateTipDlg@@UAE@XZ ENDP				; CUpdateTipDlg::~CUpdateTipDlg
EXTRN	?DDX_Text@@YGXPAVCDataExchange@@HAAV?$CStringT@DV?$StrTraitMFC_DLL@DV?$ChTraitsCRT@D@ATL@@@@@ATL@@@Z:NEAR ; DDX_Text
EXTRN	?DDX_Control@@YGXPAVCDataExchange@@HAAVCWnd@@@Z:NEAR ; DDX_Control
; Function compile flags: /Odt /RTCsu
_TEXT	SEGMENT
_this$ = -4						; size = 4
_pDX$ = 8						; size = 4
?DoDataExchange@CUpdateTipDlg@@MAEXPAVCDataExchange@@@Z PROC NEAR ; CUpdateTipDlg::DoDataExchange
; _this$ = ecx

; 41   : {

  00280	55		 push	 ebp
  00281	8b ec		 mov	 ebp, esp
  00283	51		 push	 ecx
  00284	c7 45 fc cc cc
	cc cc		 mov	 DWORD PTR [ebp-4], -858993460 ; ccccccccH
  0028b	89 4d fc	 mov	 DWORD PTR _this$[ebp], ecx

; 42   : 	CDialog::DoDataExchange(pDX);

  0028e	8b 45 08	 mov	 eax, DWORD PTR _pDX$[ebp]
  00291	50		 push	 eax
  00292	8b 4d fc	 mov	 ecx, DWORD PTR _this$[ebp]
  00295	e8 00 00 00 00	 call	 ?DoDataExchange@CWnd@@MAEXPAVCDataExchange@@@Z ; CWnd::DoDataExchange

; 43   : 	DDX_Control(pDX, IDC_STATIC_UPDATE_INFO, m_linkUpdateInfo);

  0029a	8b 4d fc	 mov	 ecx, DWORD PTR _this$[ebp]
  0029d	83 c1 7c	 add	 ecx, 124		; 0000007cH
  002a0	51		 push	 ecx
  002a1	68 d8 00 00 00	 push	 216			; 000000d8H
  002a6	8b 55 08	 mov	 edx, DWORD PTR _pDX$[ebp]
  002a9	52		 push	 edx
  002aa	e8 00 00 00 00	 call	 ?DDX_Control@@YGXPAVCDataExchange@@HAAVCWnd@@@Z ; DDX_Control

; 44   : 	DDX_Text(pDX, IDC_EDIT_UPDATE_INFO, m_strUpdateInfo);

  002af	8b 45 fc	 mov	 eax, DWORD PTR _this$[ebp]
  002b2	83 c0 78	 add	 eax, 120		; 00000078H
  002b5	50		 push	 eax
  002b6	68 d9 00 00 00	 push	 217			; 000000d9H
  002bb	8b 4d 08	 mov	 ecx, DWORD PTR _pDX$[ebp]
  002be	51		 push	 ecx
  002bf	e8 00 00 00 00	 call	 ?DDX_Text@@YGXPAVCDataExchange@@HAAV?$CStringT@DV?$StrTraitMFC_DLL@DV?$ChTraitsCRT@D@ATL@@@@@ATL@@@Z ; DDX_Text

; 45   : }

  002c4	83 c4 04	 add	 esp, 4
  002c7	3b ec		 cmp	 ebp, esp
  002c9	e8 00 00 00 00	 call	 __RTC_CheckEsp
  002ce	8b e5		 mov	 esp, ebp
  002d0	5d		 pop	 ebp
  002d1	c2 04 00	 ret	 4
?DoDataExchange@CUpdateTipDlg@@MAEXPAVCDataExchange@@@Z ENDP ; CUpdateTipDlg::DoDataExchange
_TEXT	ENDS
PUBLIC	?GetThisMessageMap@CUpdateTipDlg@@KGPBUAFX_MSGMAP@@XZ ; CUpdateTipDlg::GetThisMessageMap
; Function compile flags: /Odt /RTCsu
_TEXT	SEGMENT
?GetThisMessageMap@CUpdateTipDlg@@KGPBUAFX_MSGMAP@@XZ PROC NEAR ; CUpdateTipDlg::GetThisMessageMap

; 48   : BEGIN_MESSAGE_MAP(CUpdateTipDlg, CDialog)

  002e0	55		 push	 ebp
  002e1	8b ec		 mov	 ebp, esp
  002e3	b8 00 00 00 00	 mov	 eax, OFFSET FLAT:?messageMap@CUpdateTipDlg@@1UAFX_MSGMAP@@B ; CUpdateTipDlg::messageMap
  002e8	5d		 pop	 ebp
  002e9	c3		 ret	 0
?GetThisMessageMap@CUpdateTipDlg@@KGPBUAFX_MSGMAP@@XZ ENDP ; CUpdateTipDlg::GetThisMessageMap
; Function compile flags: /Odt /RTCsu
_this$ = -4						; size = 4
?GetMessageMap@CUpdateTipDlg@@MBEPBUAFX_MSGMAP@@XZ PROC NEAR ; CUpdateTipDlg::GetMessageMap
; _this$ = ecx

; 48   : BEGIN_MESSAGE_MAP(CUpdateTipDlg, CDialog)

  002f0	55		 push	 ebp
  002f1	8b ec		 mov	 ebp, esp
  002f3	51		 push	 ecx
  002f4	c7 45 fc cc cc
	cc cc		 mov	 DWORD PTR [ebp-4], -858993460 ; ccccccccH
  002fb	89 4d fc	 mov	 DWORD PTR _this$[ebp], ecx
  002fe	b8 00 00 00 00	 mov	 eax, OFFSET FLAT:?messageMap@CUpdateTipDlg@@1UAFX_MSGMAP@@B ; CUpdateTipDlg::messageMap
  00303	8b e5		 mov	 esp, ebp
  00305	5d		 pop	 ebp
  00306	c3		 ret	 0
?GetMessageMap@CUpdateTipDlg@@MBEPBUAFX_MSGMAP@@XZ ENDP	; CUpdateTipDlg::GetMessageMap
_TEXT	ENDS
PUBLIC	?SetForceUpdate@CUpdateTipDlg@@QAEXH@Z		; CUpdateTipDlg::SetForceUpdate
; Function compile flags: /Odt /RTCsu
_TEXT	SEGMENT
_this$ = -4						; size = 4
_nForce$ = 8						; size = 4
?SetForceUpdate@CUpdateTipDlg@@QAEXH@Z PROC NEAR	; CUpdateTipDlg::SetForceUpdate
; _this$ = ecx

; 53   : {

  00310	55		 push	 ebp
  00311	8b ec		 mov	 ebp, esp
  00313	51		 push	 ecx
  00314	c7 45 fc cc cc
	cc cc		 mov	 DWORD PTR [ebp-4], -858993460 ; ccccccccH
  0031b	89 4d fc	 mov	 DWORD PTR _this$[ebp], ecx

; 54   : 	m_nForceUpdate = nForce;

  0031e	8b 45 fc	 mov	 eax, DWORD PTR _this$[ebp]
  00321	8b 4d 08	 mov	 ecx, DWORD PTR _nForce$[ebp]
  00324	89 48 74	 mov	 DWORD PTR [eax+116], ecx

; 55   : }

  00327	8b e5		 mov	 esp, ebp
  00329	5d		 pop	 ebp
  0032a	c2 04 00	 ret	 4
?SetForceUpdate@CUpdateTipDlg@@QAEXH@Z ENDP		; CUpdateTipDlg::SetForceUpdate
_TEXT	ENDS
EXTRN	?GetHomePath@CLhcImg@@SA_NQADH@Z:NEAR		; CLhcImg::GetHomePath
EXTRN	__imp__SetWindowPos@28:NEAR
EXTRN	?AfxGetApp@@YGPAVCWinApp@@XZ:NEAR		; AfxGetApp
EXTRN	__chkstk:NEAR
EXTRN	??0YL_Ini@@QAE@PBD@Z:NEAR			; YL_Ini::YL_Ini
EXTRN	??1YL_Ini@@UAE@XZ:NEAR				; YL_Ini::~YL_Ini
EXTRN	___security_cookie:DWORD
EXTRN	@__security_check_cookie@4:NEAR
EXTRN	?GetString@YL_Ini@@QBEKPBD0PADK0@Z:NEAR		; YL_Ini::GetString
EXTRN	?EnableMenuItem@CMenu@@QAEIII@Z:NEAR		; CMenu::EnableMenuItem
EXTRN	?GetDlgItem@CWnd@@QBEPAV1@H@Z:NEAR		; CWnd::GetDlgItem
EXTRN	?LoadCursorA@CWinApp@@QBEPAUHICON__@@I@Z:NEAR	; CWinApp::LoadCursorA
EXTRN	?GetSystemMenu@CWnd@@QBEPAVCMenu@@H@Z:NEAR	; CWnd::GetSystemMenu
EXTRN	?MoveWindow@CWnd@@QAEXPBUtagRECT@@H@Z:NEAR	; CWnd::MoveWindow
EXTRN	?GetWindowPlacement@CWnd@@QBEHPAUtagWINDOWPLACEMENT@@@Z:NEAR ; CWnd::GetWindowPlacement
EXTRN	?SetWindowPlacement@CWnd@@QAEHPBUtagWINDOWPLACEMENT@@@Z:NEAR ; CWnd::SetWindowPlacement
EXTRN	?SetLinkCursor@CHyperLink@@QAEXPAUHICON__@@@Z:NEAR ; CHyperLink::SetLinkCursor
EXTRN	?ScreenToClient@CWnd@@QBEXPAUtagRECT@@@Z:NEAR	; CWnd::ScreenToClient
EXTRN	?ShowWindow@CWnd@@QAEHH@Z:NEAR			; CWnd::ShowWindow
EXTRN	_strcat:NEAR
EXTRN	?OnInitDialog@CDialog@@UAEHXZ:NEAR		; CDialog::OnInitDialog
EXTRN	__imp_??4?$CStringT@DV?$StrTraitMFC_DLL@DV?$ChTraitsCRT@D@ATL@@@@@ATL@@QAEAAV01@PBD@Z:NEAR
EXTRN	__imp_?Replace@?$CStringT@DV?$StrTraitMFC_DLL@DV?$ChTraitsCRT@D@ATL@@@@@ATL@@QAEHPBD0@Z:NEAR
EXTRN	?UpdateData@CWnd@@QAEHH@Z:NEAR			; CWnd::UpdateData
xdata$x	SEGMENT
$T187874 DD	0ffffffffH
	DD	FLAT:$L187859
$T187861 DD	019930520H
	DD	01H
	DD	FLAT:$T187874
	DD	2 DUP(00H)
	DD	2 DUP(00H)
; Function compile flags: /Odt /RTCsu
xdata$x	ENDS
_TEXT	SEGMENT
$T187858 = -10900					; size = 4
_ini$ = -10892						; size = 8
_szInfo$ = -10876					; size = 10240
_szImgPath$ = -628					; size = 520
_rect$187245 = -100					; size = 16
_pWnd$187242 = -80					; size = 4
_wp$ = -72						; size = 44
_pMenu$ = -24						; size = 4
_this$ = -20						; size = 4
__$ArrayPad$ = -16					; size = 4
__$EHRec$ = -12						; size = 12
__$ReturnAddr$ = 4					; size = 4
?OnInitDialog@CUpdateTipDlg@@UAEHXZ PROC NEAR		; CUpdateTipDlg::OnInitDialog
; _this$ = ecx

; 58   : {

  00330	55		 push	 ebp
  00331	8b ec		 mov	 ebp, esp
  00333	6a ff		 push	 -1
  00335	68 00 00 00 00	 push	 __ehhandler$?OnInitDialog@CUpdateTipDlg@@UAEHXZ
  0033a	64 a1 00 00 00
	00		 mov	 eax, DWORD PTR fs:__except_list
  00340	50		 push	 eax
  00341	64 89 25 00 00
	00 00		 mov	 DWORD PTR fs:__except_list, esp
  00348	b8 88 2a 00 00	 mov	 eax, 10888		; 00002a88H
  0034d	e8 00 00 00 00	 call	 __chkstk
  00352	56		 push	 esi
  00353	57		 push	 edi
  00354	51		 push	 ecx
  00355	8d bd 6c d5 ff
	ff		 lea	 edi, DWORD PTR [ebp-10900]
  0035b	b9 a2 0a 00 00	 mov	 ecx, 2722		; 00000aa2H
  00360	b8 cc cc cc cc	 mov	 eax, -858993460		; ccccccccH
  00365	f3 ab		 rep stosd
  00367	59		 pop	 ecx
  00368	a1 00 00 00 00	 mov	 eax, DWORD PTR ___security_cookie
  0036d	89 45 f0	 mov	 DWORD PTR __$ArrayPad$[ebp], eax
  00370	89 4d ec	 mov	 DWORD PTR _this$[ebp], ecx

; 59   : 	CDialog::OnInitDialog();

  00373	8b 4d ec	 mov	 ecx, DWORD PTR _this$[ebp]
  00376	e8 00 00 00 00	 call	 ?OnInitDialog@CDialog@@UAEHXZ ; CDialog::OnInitDialog

; 60   : 
; 61   : 	CMenu* pMenu = this->GetSystemMenu(FALSE);

  0037b	6a 00		 push	 0
  0037d	8b 4d ec	 mov	 ecx, DWORD PTR _this$[ebp]
  00380	e8 00 00 00 00	 call	 ?GetSystemMenu@CWnd@@QBEPAVCMenu@@H@Z ; CWnd::GetSystemMenu
  00385	89 45 e8	 mov	 DWORD PTR _pMenu$[ebp], eax

; 62   : 	pMenu->EnableMenuItem( SC_CLOSE, MF_BYCOMMAND|MF_GRAYED);

  00388	6a 01		 push	 1
  0038a	68 60 f0 00 00	 push	 61536			; 0000f060H
  0038f	8b 4d e8	 mov	 ecx, DWORD PTR _pMenu$[ebp]
  00392	e8 00 00 00 00	 call	 ?EnableMenuItem@CMenu@@QAEIII@Z ; CMenu::EnableMenuItem

; 63   : 
; 64   : 	WINDOWPLACEMENT wp;
; 65   : 	GetWindowPlacement(&wp);

  00397	8d 45 b8	 lea	 eax, DWORD PTR _wp$[ebp]
  0039a	50		 push	 eax
  0039b	8b 4d ec	 mov	 ecx, DWORD PTR _this$[ebp]
  0039e	e8 00 00 00 00	 call	 ?GetWindowPlacement@CWnd@@QBEHPAUtagWINDOWPLACEMENT@@@Z ; CWnd::GetWindowPlacement

; 66   : 	wp.rcNormalPosition.bottom -= UPDATE_INFO_HEIGHT;

  003a3	8b 4d e0	 mov	 ecx, DWORD PTR _wp$[ebp+40]
  003a6	83 e9 64	 sub	 ecx, 100		; 00000064H
  003a9	89 4d e0	 mov	 DWORD PTR _wp$[ebp+40], ecx

; 67   : 	SetWindowPlacement(&wp);

  003ac	8d 55 b8	 lea	 edx, DWORD PTR _wp$[ebp]
  003af	52		 push	 edx
  003b0	8b 4d ec	 mov	 ecx, DWORD PTR _this$[ebp]
  003b3	e8 00 00 00 00	 call	 ?SetWindowPlacement@CWnd@@QAEHPBUtagWINDOWPLACEMENT@@@Z ; CWnd::SetWindowPlacement

; 68   : 
; 69   : 	if(m_hWnd != NULL)

  003b8	8b 45 ec	 mov	 eax, DWORD PTR _this$[ebp]
  003bb	83 78 20 00	 cmp	 DWORD PTR [eax+32], 0
  003bf	74 22		 je	 SHORT $L187239

; 70   : 	{
; 71   : 		::SetWindowPos(m_hWnd,HWND_TOPMOST,0,0,0,0,SWP_NOSIZE|SWP_NOMOVE);

  003c1	8b f4		 mov	 esi, esp
  003c3	6a 03		 push	 3
  003c5	6a 00		 push	 0
  003c7	6a 00		 push	 0
  003c9	6a 00		 push	 0
  003cb	6a 00		 push	 0
  003cd	6a ff		 push	 -1
  003cf	8b 4d ec	 mov	 ecx, DWORD PTR _this$[ebp]
  003d2	8b 51 20	 mov	 edx, DWORD PTR [ecx+32]
  003d5	52		 push	 edx
  003d6	ff 15 00 00 00
	00		 call	 DWORD PTR __imp__SetWindowPos@28
  003dc	3b f4		 cmp	 esi, esp
  003de	e8 00 00 00 00	 call	 __RTC_CheckEsp
$L187239:

; 72   : 	}
; 73   : 
; 74   : 	if(m_nForceUpdate == MB_OK)

  003e3	8b 45 ec	 mov	 eax, DWORD PTR _this$[ebp]
  003e6	83 78 74 00	 cmp	 DWORD PTR [eax+116], 0
  003ea	75 70		 jne	 SHORT $L187241

; 75   : 	{
; 76   : 		CWnd *pWnd = GetDlgItem(IDCANCEL);

  003ec	6a 02		 push	 2
  003ee	8b 4d ec	 mov	 ecx, DWORD PTR _this$[ebp]
  003f1	e8 00 00 00 00	 call	 ?GetDlgItem@CWnd@@QBEPAV1@H@Z ; CWnd::GetDlgItem
  003f6	89 45 b0	 mov	 DWORD PTR _pWnd$187242[ebp], eax

; 77   : 		if(pWnd != NULL)

  003f9	83 7d b0 00	 cmp	 DWORD PTR _pWnd$187242[ebp], 0
  003fd	74 0a		 je	 SHORT $L187243

; 78   : 		{
; 79   : 			pWnd->ShowWindow(SW_HIDE);

  003ff	6a 00		 push	 0
  00401	8b 4d b0	 mov	 ecx, DWORD PTR _pWnd$187242[ebp]
  00404	e8 00 00 00 00	 call	 ?ShowWindow@CWnd@@QAEHH@Z ; CWnd::ShowWindow
$L187243:

; 80   : 		}
; 81   : 
; 82   : 		pWnd = GetDlgItem(IDOK);

  00409	6a 01		 push	 1
  0040b	8b 4d ec	 mov	 ecx, DWORD PTR _this$[ebp]
  0040e	e8 00 00 00 00	 call	 ?GetDlgItem@CWnd@@QBEPAV1@H@Z ; CWnd::GetDlgItem
  00413	89 45 b0	 mov	 DWORD PTR _pWnd$187242[ebp], eax

; 83   : 		if(pWnd != NULL)

  00416	83 7d b0 00	 cmp	 DWORD PTR _pWnd$187242[ebp], 0
  0041a	74 40		 je	 SHORT $L187241

; 84   : 		{
; 85   : 			CRect rect;

  0041c	8d 4d 9c	 lea	 ecx, DWORD PTR _rect$187245[ebp]
  0041f	e8 00 00 00 00	 call	 ??0CRect@@QAE@XZ	; CRect::CRect

; 86   : 			pWnd->GetWindowRect(&rect);

  00424	8d 4d 9c	 lea	 ecx, DWORD PTR _rect$187245[ebp]
  00427	51		 push	 ecx
  00428	8b 4d b0	 mov	 ecx, DWORD PTR _pWnd$187242[ebp]
  0042b	e8 00 00 00 00	 call	 ?GetWindowRect@CWnd@@QBEXPAUtagRECT@@@Z ; CWnd::GetWindowRect

; 87   : 			rect.left += 50;

  00430	8b 55 9c	 mov	 edx, DWORD PTR _rect$187245[ebp]
  00433	83 c2 32	 add	 edx, 50			; 00000032H
  00436	89 55 9c	 mov	 DWORD PTR _rect$187245[ebp], edx

; 88   : 			rect.right += 50;

  00439	8b 45 a4	 mov	 eax, DWORD PTR _rect$187245[ebp+8]
  0043c	83 c0 32	 add	 eax, 50			; 00000032H
  0043f	89 45 a4	 mov	 DWORD PTR _rect$187245[ebp+8], eax

; 89   : 			ScreenToClient(&rect);

  00442	8d 4d 9c	 lea	 ecx, DWORD PTR _rect$187245[ebp]
  00445	51		 push	 ecx
  00446	8b 4d ec	 mov	 ecx, DWORD PTR _this$[ebp]
  00449	e8 00 00 00 00	 call	 ?ScreenToClient@CWnd@@QBEXPAUtagRECT@@@Z ; CWnd::ScreenToClient

; 90   : 			pWnd->MoveWindow(&rect);

  0044e	6a 01		 push	 1
  00450	8d 55 9c	 lea	 edx, DWORD PTR _rect$187245[ebp]
  00453	52		 push	 edx
  00454	8b 4d b0	 mov	 ecx, DWORD PTR _pWnd$187242[ebp]
  00457	e8 00 00 00 00	 call	 ?MoveWindow@CWnd@@QAEXPBUtagRECT@@H@Z ; CWnd::MoveWindow
$L187241:

; 91   : 		}
; 92   : 	}
; 93   : 
; 94   : 	m_linkUpdateInfo.SetLinkCursor( AfxGetApp()->LoadCursor(IDC_CURSOR1) );

  0045c	68 90 00 00 00	 push	 144			; 00000090H
  00461	e8 00 00 00 00	 call	 ?AfxGetApp@@YGPAVCWinApp@@XZ ; AfxGetApp
  00466	8b c8		 mov	 ecx, eax
  00468	e8 00 00 00 00	 call	 ?LoadCursorA@CWinApp@@QBEPAUHICON__@@I@Z ; CWinApp::LoadCursorA
  0046d	50		 push	 eax
  0046e	8b 4d ec	 mov	 ecx, DWORD PTR _this$[ebp]
  00471	83 c1 7c	 add	 ecx, 124		; 0000007cH
  00474	e8 00 00 00 00	 call	 ?SetLinkCursor@CHyperLink@@QAEXPAUHICON__@@@Z ; CHyperLink::SetLinkCursor

; 95   : 
; 96   : 	char szImgPath[MAX_PATH*2], szInfo[1024*10];
; 97   : 	CLhcImg::GetHomePath(szImgPath, MAX_PATH*2-1);

  00479	68 07 02 00 00	 push	 519			; 00000207H
  0047e	8d 85 8c fd ff
	ff		 lea	 eax, DWORD PTR _szImgPath$[ebp]
  00484	50		 push	 eax
  00485	e8 00 00 00 00	 call	 ?GetHomePath@CLhcImg@@SA_NQADH@Z ; CLhcImg::GetHomePath
  0048a	83 c4 08	 add	 esp, 8

; 98   : 	strcat(szImgPath, "\\res\\pic\\lhupd.img");

  0048d	68 00 00 00 00	 push	 OFFSET FLAT:$SG187248
  00492	8d 8d 8c fd ff
	ff		 lea	 ecx, DWORD PTR _szImgPath$[ebp]
  00498	51		 push	 ecx
  00499	e8 00 00 00 00	 call	 _strcat
  0049e	83 c4 08	 add	 esp, 8

; 99   : 
; 100  : 	YL_Ini ini(szImgPath);

  004a1	8d 95 8c fd ff
	ff		 lea	 edx, DWORD PTR _szImgPath$[ebp]
  004a7	52		 push	 edx
  004a8	8d 8d 74 d5 ff
	ff		 lea	 ecx, DWORD PTR _ini$[ebp]
  004ae	e8 00 00 00 00	 call	 ??0YL_Ini@@QAE@PBD@Z	; YL_Ini::YL_Ini
  004b3	c7 45 fc 00 00
	00 00		 mov	 DWORD PTR __$EHRec$[ebp+8], 0

; 101  : 	ini.GetString("NewestSoft", "intro", szInfo, 1024*10-1);

  004ba	6a 00		 push	 0
  004bc	68 ff 27 00 00	 push	 10239			; 000027ffH
  004c1	8d 85 84 d5 ff
	ff		 lea	 eax, DWORD PTR _szInfo$[ebp]
  004c7	50		 push	 eax
  004c8	68 00 00 00 00	 push	 OFFSET FLAT:$SG187250
  004cd	68 00 00 00 00	 push	 OFFSET FLAT:$SG187251
  004d2	8d 8d 74 d5 ff
	ff		 lea	 ecx, DWORD PTR _ini$[ebp]
  004d8	e8 00 00 00 00	 call	 ?GetString@YL_Ini@@QBEKPBD0PADK0@Z ; YL_Ini::GetString

; 102  : 	m_strUpdateInfo = szInfo;

  004dd	8b f4		 mov	 esi, esp
  004df	8d 8d 84 d5 ff
	ff		 lea	 ecx, DWORD PTR _szInfo$[ebp]
  004e5	51		 push	 ecx
  004e6	8b 4d ec	 mov	 ecx, DWORD PTR _this$[ebp]
  004e9	83 c1 78	 add	 ecx, 120		; 00000078H
  004ec	ff 15 00 00 00
	00		 call	 DWORD PTR __imp_??4?$CStringT@DV?$StrTraitMFC_DLL@DV?$ChTraitsCRT@D@ATL@@@@@ATL@@QAEAAV01@PBD@Z
  004f2	3b f4		 cmp	 esi, esp
  004f4	e8 00 00 00 00	 call	 __RTC_CheckEsp

; 103  : 	m_strUpdateInfo.Replace("||", "\r\n");

  004f9	8b f4		 mov	 esi, esp
  004fb	68 00 00 00 00	 push	 OFFSET FLAT:$SG187252
  00500	68 00 00 00 00	 push	 OFFSET FLAT:$SG187253
  00505	8b 4d ec	 mov	 ecx, DWORD PTR _this$[ebp]
  00508	83 c1 78	 add	 ecx, 120		; 00000078H
  0050b	ff 15 00 00 00
	00		 call	 DWORD PTR __imp_?Replace@?$CStringT@DV?$StrTraitMFC_DLL@DV?$ChTraitsCRT@D@ATL@@@@@ATL@@QAEHPBD0@Z
  00511	3b f4		 cmp	 esi, esp
  00513	e8 00 00 00 00	 call	 __RTC_CheckEsp

; 104  : 	UpdateData(FALSE);

  00518	6a 00		 push	 0
  0051a	8b 4d ec	 mov	 ecx, DWORD PTR _this$[ebp]
  0051d	e8 00 00 00 00	 call	 ?UpdateData@CWnd@@QAEHH@Z ; CWnd::UpdateData

; 105  :  
; 106  : 	return TRUE;

  00522	c7 85 6c d5 ff
	ff 01 00 00 00	 mov	 DWORD PTR $T187858[ebp], 1
  0052c	c7 45 fc ff ff
	ff ff		 mov	 DWORD PTR __$EHRec$[ebp+8], -1
  00533	8d 8d 74 d5 ff
	ff		 lea	 ecx, DWORD PTR _ini$[ebp]
  00539	e8 00 00 00 00	 call	 ??1YL_Ini@@UAE@XZ	; YL_Ini::~YL_Ini
  0053e	8b 85 6c d5 ff
	ff		 mov	 eax, DWORD PTR $T187858[ebp]

; 107  : }

  00544	52		 push	 edx
  00545	8b cd		 mov	 ecx, ebp
  00547	50		 push	 eax
  00548	8d 15 00 00 00
	00		 lea	 edx, DWORD PTR $L187872
  0054e	e8 00 00 00 00	 call	 @_RTC_CheckStackVars@8
  00553	58		 pop	 eax
  00554	5a		 pop	 edx
  00555	8b 4d f4	 mov	 ecx, DWORD PTR __$EHRec$[ebp]
  00558	64 89 0d 00 00
	00 00		 mov	 DWORD PTR fs:__except_list, ecx
  0055f	8b 4d f0	 mov	 ecx, DWORD PTR __$ArrayPad$[ebp]
  00562	e8 00 00 00 00	 call	 @__security_check_cookie@4
  00567	5f		 pop	 edi
  00568	5e		 pop	 esi
  00569	81 c4 94 2a 00
	00		 add	 esp, 10900		; 00002a94H
  0056f	3b ec		 cmp	 ebp, esp
  00571	e8 00 00 00 00	 call	 __RTC_CheckEsp
  00576	8b e5		 mov	 esp, ebp
  00578	5d		 pop	 ebp
  00579	c3		 ret	 0
$L187872:
  0057a	05 00 00 00	 DD	 5
  0057e	00 00 00 00	 DD	 $L187871
$L187871:
  00582	b8 ff ff ff	 DD	 -72			; ffffffb8H
  00586	2c 00 00 00	 DD	 44			; 0000002cH
  0058a	00 00 00 00	 DD	 $L187862
  0058e	9c ff ff ff	 DD	 -100			; ffffff9cH
  00592	10 00 00 00	 DD	 16			; 00000010H
  00596	00 00 00 00	 DD	 $L187863
  0059a	8c fd ff ff	 DD	 -628			; fffffd8cH
  0059e	08 02 00 00	 DD	 520			; 00000208H
  005a2	00 00 00 00	 DD	 $L187864
  005a6	84 d5 ff ff	 DD	 -10876			; ffffd584H
  005aa	00 28 00 00	 DD	 10240			; 00002800H
  005ae	00 00 00 00	 DD	 $L187865
  005b2	74 d5 ff ff	 DD	 -10892			; ffffd574H
  005b6	08 00 00 00	 DD	 8
  005ba	00 00 00 00	 DD	 $L187866
$L187866:
  005be	69		 DB	 105			; 00000069H
  005bf	6e		 DB	 110			; 0000006eH
  005c0	69		 DB	 105			; 00000069H
  005c1	00		 DB	 0
$L187865:
  005c2	73		 DB	 115			; 00000073H
  005c3	7a		 DB	 122			; 0000007aH
  005c4	49		 DB	 73			; 00000049H
  005c5	6e		 DB	 110			; 0000006eH
  005c6	66		 DB	 102			; 00000066H
  005c7	6f		 DB	 111			; 0000006fH
  005c8	00		 DB	 0
$L187864:
  005c9	73		 DB	 115			; 00000073H
  005ca	7a		 DB	 122			; 0000007aH
  005cb	49		 DB	 73			; 00000049H
  005cc	6d		 DB	 109			; 0000006dH
  005cd	67		 DB	 103			; 00000067H
  005ce	50		 DB	 80			; 00000050H
  005cf	61		 DB	 97			; 00000061H
  005d0	74		 DB	 116			; 00000074H
  005d1	68		 DB	 104			; 00000068H
  005d2	00		 DB	 0
$L187863:
  005d3	72		 DB	 114			; 00000072H
  005d4	65		 DB	 101			; 00000065H
  005d5	63		 DB	 99			; 00000063H
  005d6	74		 DB	 116			; 00000074H
  005d7	00		 DB	 0
$L187862:
  005d8	77		 DB	 119			; 00000077H
  005d9	70		 DB	 112			; 00000070H
  005da	00		 DB	 0
_TEXT	ENDS
text$x	SEGMENT
$L187859:
  0004e	8d 8d 74 d5 ff
	ff		 lea	 ecx, DWORD PTR _ini$[ebp]
  00054	e9 00 00 00 00	 jmp	 ??1YL_Ini@@UAE@XZ	; YL_Ini::~YL_Ini
__ehhandler$?OnInitDialog@CUpdateTipDlg@@UAEHXZ:
  00059	b8 00 00 00 00	 mov	 eax, OFFSET FLAT:$T187861
  0005e	e9 00 00 00 00	 jmp	 ___CxxFrameHandler
text$x	ENDS
?OnInitDialog@CUpdateTipDlg@@UAEHXZ ENDP		; CUpdateTipDlg::OnInitDialog
;	COMDAT ?bViewInfo@?1??OnViewUpdateInfo@CUpdateTipDlg@@QAEJIJ@Z@4_NA
_BSS	SEGMENT
?bViewInfo@?1??OnViewUpdateInfo@CUpdateTipDlg@@QAEJIJ@Z@4_NA DB 01H DUP (?) ; `CUpdateTipDlg::OnViewUpdateInfo'::`2'::bViewInfo
; Function compile flags: /Odt /RTCsu
_BSS	ENDS
_TEXT	SEGMENT
_wp$ = -52						; size = 44
_this$ = -4						; size = 4
_wParam$ = 8						; size = 4
_lParam$ = 12						; size = 4
?OnViewUpdateInfo@CUpdateTipDlg@@QAEJIJ@Z PROC NEAR	; CUpdateTipDlg::OnViewUpdateInfo
; _this$ = ecx

; 110  : {

  005e0	55		 push	 ebp
  005e1	8b ec		 mov	 ebp, esp
  005e3	83 ec 38	 sub	 esp, 56			; 00000038H
  005e6	57		 push	 edi
  005e7	51		 push	 ecx
  005e8	8d 7d c8	 lea	 edi, DWORD PTR [ebp-56]
  005eb	b9 0e 00 00 00	 mov	 ecx, 14			; 0000000eH
  005f0	b8 cc cc cc cc	 mov	 eax, -858993460		; ccccccccH
  005f5	f3 ab		 rep stosd
  005f7	59		 pop	 ecx
  005f8	89 4d fc	 mov	 DWORD PTR _this$[ebp], ecx

; 111  : 	static bool bViewInfo = false;
; 112  : 
; 113  : 	WINDOWPLACEMENT wp;
; 114  : 	GetWindowPlacement(&wp);

  005fb	8d 45 cc	 lea	 eax, DWORD PTR _wp$[ebp]
  005fe	50		 push	 eax
  005ff	8b 4d fc	 mov	 ecx, DWORD PTR _this$[ebp]
  00602	e8 00 00 00 00	 call	 ?GetWindowPlacement@CWnd@@QBEHPAUtagWINDOWPLACEMENT@@@Z ; CWnd::GetWindowPlacement

; 115  : 	if(bViewInfo)

  00607	0f b6 0d 00 00
	00 00		 movzx	 ecx, BYTE PTR ?bViewInfo@?1??OnViewUpdateInfo@CUpdateTipDlg@@QAEJIJ@Z@4_NA
  0060e	85 c9		 test	 ecx, ecx
  00610	74 0b		 je	 SHORT $L187263

; 116  : 	{
; 117  : 		wp.rcNormalPosition.bottom -= UPDATE_INFO_HEIGHT;

  00612	8b 55 f4	 mov	 edx, DWORD PTR _wp$[ebp+40]
  00615	83 ea 64	 sub	 edx, 100		; 00000064H
  00618	89 55 f4	 mov	 DWORD PTR _wp$[ebp+40], edx

; 118  : 	}
; 119  : 	else

  0061b	eb 09		 jmp	 SHORT $L187264
$L187263:

; 120  : 	{
; 121  : 		wp.rcNormalPosition.bottom += UPDATE_INFO_HEIGHT;

  0061d	8b 45 f4	 mov	 eax, DWORD PTR _wp$[ebp+40]
  00620	83 c0 64	 add	 eax, 100		; 00000064H
  00623	89 45 f4	 mov	 DWORD PTR _wp$[ebp+40], eax
$L187264:

; 122  : 	}
; 123  : 	SetWindowPlacement(&wp);

  00626	8d 4d cc	 lea	 ecx, DWORD PTR _wp$[ebp]
  00629	51		 push	 ecx
  0062a	8b 4d fc	 mov	 ecx, DWORD PTR _this$[ebp]
  0062d	e8 00 00 00 00	 call	 ?SetWindowPlacement@CWnd@@QAEHPBUtagWINDOWPLACEMENT@@@Z ; CWnd::SetWindowPlacement

; 124  : 
; 125  : 	bViewInfo = !bViewInfo;

  00632	0f b6 15 00 00
	00 00		 movzx	 edx, BYTE PTR ?bViewInfo@?1??OnViewUpdateInfo@CUpdateTipDlg@@QAEJIJ@Z@4_NA
  00639	f7 da		 neg	 edx
  0063b	1b d2		 sbb	 edx, edx
  0063d	42		 inc	 edx
  0063e	88 15 00 00 00
	00		 mov	 BYTE PTR ?bViewInfo@?1??OnViewUpdateInfo@CUpdateTipDlg@@QAEJIJ@Z@4_NA, dl

; 126  : 	return 0;

  00644	33 c0		 xor	 eax, eax

; 127  : }

  00646	52		 push	 edx
  00647	8b cd		 mov	 ecx, ebp
  00649	50		 push	 eax
  0064a	8d 15 00 00 00
	00		 lea	 edx, DWORD PTR $L187878
  00650	e8 00 00 00 00	 call	 @_RTC_CheckStackVars@8
  00655	58		 pop	 eax
  00656	5a		 pop	 edx
  00657	5f		 pop	 edi
  00658	83 c4 38	 add	 esp, 56			; 00000038H
  0065b	3b ec		 cmp	 ebp, esp
  0065d	e8 00 00 00 00	 call	 __RTC_CheckEsp
  00662	8b e5		 mov	 esp, ebp
  00664	5d		 pop	 ebp
  00665	c2 08 00	 ret	 8
$L187878:
  00668	01 00 00 00	 DD	 1
  0066c	00 00 00 00	 DD	 $L187877
$L187877:
  00670	cc ff ff ff	 DD	 -52			; ffffffccH
  00674	2c 00 00 00	 DD	 44			; 0000002cH
  00678	00 00 00 00	 DD	 $L187876
$L187876:
  0067c	77		 DB	 119			; 00000077H
  0067d	70		 DB	 112			; 00000070H
  0067e	00		 DB	 0
?OnViewUpdateInfo@CUpdateTipDlg@@QAEJIJ@Z ENDP		; CUpdateTipDlg::OnViewUpdateInfo
_TEXT	ENDS
END
