; Listing generated by Microsoft (R) Optimizing Compiler Version 13.10.3077 

	TITLE	.\src\module\GamePanel\WebGamePlayingWnd.cpp
	.386P
include listing.inc
if @Version gt 510
.model FLAT
else
_TEXT	SEGMENT PARA USE32 PUBLIC 'CODE'
_TEXT	ENDS
_DATA	SEGMENT DWORD USE32 PUBLIC 'DATA'
_DATA	ENDS
CONST	SEGMENT DWORD USE32 PUBLIC 'CONST'
CONST	ENDS
_BSS	SEGMENT DWORD USE32 PUBLIC 'BSS'
_BSS	ENDS
$$SYMBOLS	SEGMENT BYTE USE32 'DEBSYM'
$$SYMBOLS	ENDS
_TLS	SEGMENT DWORD USE32 PUBLIC 'TLS'
_TLS	ENDS
;	COMDAT ??_C@_0P@MDHCGOCC@m_pMemMgr?5?$DN?$DN?50?$AA@
CONST	SEGMENT DWORD USE32 PUBLIC 'CONST'
CONST	ENDS
;	COMDAT ??_C@_0FF@PEBLHPJJ@D?3?2Program?5Files?5?$CIx86?$CJ?2Microsoft@
CONST	SEGMENT DWORD USE32 PUBLIC 'CONST'
CONST	ENDS
;	COMDAT ??_C@_0BK@KICONMKH@pData?9?$DOpStringMgr?5?$DN?$DN?5this?$AA@
CONST	SEGMENT DWORD USE32 PUBLIC 'CONST'
CONST	ENDS
;	COMDAT ??_C@_0CG@HPMMCKHL@?$CI?$CIWORD?$CJ?$CI?$CIDWORD_PTR?$CJ?$CIpsz?$CJ?5?$DO?$DO?516?$CJ?$CJ@
CONST	SEGMENT DWORD USE32 PUBLIC 'CONST'
CONST	ENDS
;	COMDAT ??_C@_0P@CLMBAKJD@JSCall?5Error?3?6?$AA@
CONST	SEGMENT DWORD USE32 PUBLIC 'CONST'
CONST	ENDS
;	COMDAT ??_C@_0EN@IBFBLEEG@D?3?2Program?5Files?5?$CIx86?$CJ?2Microsoft@
CONST	SEGMENT DWORD USE32 PUBLIC 'CONST'
CONST	ENDS
rdata$r	SEGMENT DWORD USE32 PUBLIC 'CONST'
rdata$r	ENDS
xdata$x	SEGMENT DWORD USE32 PUBLIC 'CONST'
xdata$x	ENDS
text$AFX_COL1	SEGMENT PARA USE32 PUBLIC ''
text$AFX_COL1	ENDS
text$yc	SEGMENT PARA USE32 PUBLIC 'CODE'
text$yc	ENDS
CRT$XCA	SEGMENT DWORD USE32 PUBLIC 'DATA'
CRT$XCA	ENDS
CRT$XCU	SEGMENT DWORD USE32 PUBLIC 'DATA'
CRT$XCU	ENDS
CRT$XCL	SEGMENT DWORD USE32 PUBLIC 'DATA'
CRT$XCL	ENDS
CRT$XCC	SEGMENT DWORD USE32 PUBLIC 'DATA'
CRT$XCC	ENDS
CRT$XCZ	SEGMENT DWORD USE32 PUBLIC 'DATA'
CRT$XCZ	ENDS
text$yd	SEGMENT PARA USE32 PUBLIC 'CODE'
text$yd	ENDS
ATL$__m	SEGMENT DWORD USE32 PUBLIC ''
ATL$__m	ENDS
ATL$__z	SEGMENT DWORD USE32 PUBLIC ''
ATL$__z	ENDS
ATL$__a	SEGMENT DWORD USE32 PUBLIC ''
ATL$__a	ENDS
;	COMDAT ?ILayoutChangeOb_LayerChanged@ILayoutChangeObserver@@UAEXV?$basic_string@DU?$char_traits@D@std@@V?$allocator@D@2@@std@@00@Z
_TEXT	SEGMENT PARA USE32 PUBLIC 'CODE'
_TEXT	ENDS
;	COMDAT ?ILayoutChangeOb_PaneChanged@ILayoutChangeObserver@@UAEXV?$basic_string@DU?$char_traits@D@std@@V?$allocator@D@2@@std@@0@Z
_TEXT	SEGMENT PARA USE32 PUBLIC 'CODE'
_TEXT	ENDS
;	COMDAT ?ILayoutChangeOb_SkinChanged@ILayoutChangeObserver@@UAEXV?$basic_string@DU?$char_traits@D@std@@V?$allocator@D@2@@std@@0@Z
_TEXT	SEGMENT PARA USE32 PUBLIC 'CODE'
_TEXT	ENDS
;	COMDAT ?ILayoutChangeOb_ColorChanged@ILayoutChangeObserver@@UAEXXZ
_TEXT	SEGMENT PARA USE32 PUBLIC 'CODE'
_TEXT	ENDS
;	COMDAT ?ILayoutChangeOb_ColorChanging@ILayoutChangeObserver@@UAEXXZ
_TEXT	SEGMENT PARA USE32 PUBLIC 'CODE'
_TEXT	ENDS
;	COMDAT ?ILayoutChangeOb_UpdateLayout@ILayoutChangeObserver@@UAEXPAUHWND__@@@Z
_TEXT	SEGMENT PARA USE32 PUBLIC 'CODE'
_TEXT	ENDS
;	COMDAT ?ILayoutChangeOb_InitFinished@ILayoutChangeObserver@@UAEXXZ
_TEXT	SEGMENT PARA USE32 PUBLIC 'CODE'
_TEXT	ENDS
;	COMDAT ?ILayoutChangeOb_InitBegin@ILayoutChangeObserver@@UAEXXZ
_TEXT	SEGMENT PARA USE32 PUBLIC 'CODE'
_TEXT	ENDS
;	COMDAT ??1CAtlStringMgr@ATL@@UAE@XZ
_TEXT	SEGMENT PARA USE32 PUBLIC 'CODE'
_TEXT	ENDS
;	COMDAT ?Allocate@CAtlStringMgr@ATL@@UAEPAUCStringData@2@HH@Z
_TEXT	SEGMENT PARA USE32 PUBLIC 'CODE'
_TEXT	ENDS
;	COMDAT ?Free@CAtlStringMgr@ATL@@UAEXPAUCStringData@2@@Z
_TEXT	SEGMENT PARA USE32 PUBLIC 'CODE'
_TEXT	ENDS
;	COMDAT ?Reallocate@CAtlStringMgr@ATL@@UAEPAUCStringData@2@PAU32@HH@Z
_TEXT	SEGMENT PARA USE32 PUBLIC 'CODE'
_TEXT	ENDS
;	COMDAT ?GetNilString@CAtlStringMgr@ATL@@UAEPAUCStringData@2@XZ
_TEXT	SEGMENT PARA USE32 PUBLIC 'CODE'
_TEXT	ENDS
;	COMDAT ?Clone@CAtlStringMgr@ATL@@UAEPAUIAtlStringMgr@2@XZ
_TEXT	SEGMENT PARA USE32 PUBLIC 'CODE'
_TEXT	ENDS
;	COMDAT ??_GCAtlStringMgr@ATL@@UAEPAXI@Z
_TEXT	SEGMENT PARA USE32 PUBLIC 'CODE'
_TEXT	ENDS
;	COMDAT ?CompareStringW@?$ChTraitsOS@_W@ATL@@KGHKKPB_WH0H@Z
_TEXT	SEGMENT PARA USE32 PUBLIC 'CODE'
_TEXT	ENDS
;	COMDAT ?GetStringTypeExW@?$ChTraitsOS@_W@ATL@@KGHKKPB_WHPAG@Z
_TEXT	SEGMENT PARA USE32 PUBLIC 'CODE'
_TEXT	ENDS
;	COMDAT ?lstrcmpiW@?$ChTraitsOS@_W@ATL@@KGHPB_W0@Z
_TEXT	SEGMENT PARA USE32 PUBLIC 'CODE'
_TEXT	ENDS
;	COMDAT ?CharLowerW@?$ChTraitsOS@_W@ATL@@KGPA_WPA_W@Z
_TEXT	SEGMENT PARA USE32 PUBLIC 'CODE'
_TEXT	ENDS
;	COMDAT ?CharUpperW@?$ChTraitsOS@_W@ATL@@KGPA_WPA_W@Z
_TEXT	SEGMENT PARA USE32 PUBLIC 'CODE'
_TEXT	ENDS
;	COMDAT ?strchr@?$ChTraitsOS@_W@ATL@@SAPB_WPB_W_W@Z
_TEXT	SEGMENT PARA USE32 PUBLIC 'CODE'
_TEXT	ENDS
;	COMDAT ?strrchr@?$ChTraitsOS@_W@ATL@@SAPB_WPB_W_W@Z
_TEXT	SEGMENT PARA USE32 PUBLIC 'CODE'
_TEXT	ENDS
;	COMDAT ?_strrev@?$ChTraitsOS@_W@ATL@@SAPA_WPA_W@Z
_TEXT	SEGMENT PARA USE32 PUBLIC 'CODE'
_TEXT	ENDS
;	COMDAT ?strstr@?$ChTraitsOS@_W@ATL@@SAPB_WPB_W0@Z
_TEXT	SEGMENT PARA USE32 PUBLIC 'CODE'
_TEXT	ENDS
;	COMDAT ?strspn@?$ChTraitsOS@_W@ATL@@SAHPB_W0@Z
_TEXT	SEGMENT PARA USE32 PUBLIC 'CODE'
_TEXT	ENDS
;	COMDAT ?strcspn@?$ChTraitsOS@_W@ATL@@SAHPB_W0@Z
_TEXT	SEGMENT PARA USE32 PUBLIC 'CODE'
_TEXT	ENDS
;	COMDAT ?strpbrk@?$ChTraitsOS@_W@ATL@@SAPB_WPB_W0@Z
_TEXT	SEGMENT PARA USE32 PUBLIC 'CODE'
_TEXT	ENDS
;	COMDAT ?StringFindString@?$ChTraitsOS@_W@ATL@@SAPB_WPB_W0@Z
_TEXT	SEGMENT PARA USE32 PUBLIC 'CODE'
_TEXT	ENDS
;	COMDAT ??1IData@@MAE@XZ
_TEXT	SEGMENT PARA USE32 PUBLIC 'CODE'
_TEXT	ENDS
;	COMDAT ?DataAppStart@IData@@UAEXXZ
_TEXT	SEGMENT PARA USE32 PUBLIC 'CODE'
_TEXT	ENDS
;	COMDAT ?DataAppExit@IData@@UAEXXZ
_TEXT	SEGMENT PARA USE32 PUBLIC 'CODE'
_TEXT	ENDS
;	COMDAT ??_GIData@@MAEPAXI@Z
_TEXT	SEGMENT PARA USE32 PUBLIC 'CODE'
_TEXT	ENDS
;	COMDAT ?clear@OneLocalGame@@QAEXXZ
_TEXT	SEGMENT PARA USE32 PUBLIC 'CODE'
_TEXT	ENDS
;	COMDAT ?GetClsid@CShockwaveFlash@@QAEABU_GUID@@XZ
_TEXT	SEGMENT PARA USE32 PUBLIC 'CODE'
_TEXT	ENDS
;	COMDAT ??0CCustomControlSite@@QAE@PAVCOleControlContainer@@@Z
_TEXT	SEGMENT PARA USE32 PUBLIC 'CODE'
_TEXT	ENDS
;	COMDAT ??_GCCustomControlSite@@UAEPAXI@Z
_TEXT	SEGMENT PARA USE32 PUBLIC 'CODE'
_TEXT	ENDS
;	COMDAT ??0XDocHostShowUI@CCustomControlSite@@QAE@XZ
_TEXT	SEGMENT PARA USE32 PUBLIC 'CODE'
_TEXT	ENDS
;	COMDAT ??0XDocHostUIHandler@CCustomControlSite@@QAE@XZ
_TEXT	SEGMENT PARA USE32 PUBLIC 'CODE'
_TEXT	ENDS
;	COMDAT ??1CCustomControlSite@@UAE@XZ
_TEXT	SEGMENT PARA USE32 PUBLIC 'CODE'
_TEXT	ENDS
;	COMDAT ??0IDocHostShowUI@@QAE@XZ
_TEXT	SEGMENT PARA USE32 PUBLIC 'CODE'
_TEXT	ENDS
;	COMDAT ??0IDocHostUIHandler@@QAE@XZ
_TEXT	SEGMENT PARA USE32 PUBLIC 'CODE'
_TEXT	ENDS
;	COMDAT ?CreateSite@CCustomOccManager@@UAEPAVCOleControlSite@@PAVCOleControlContainer@@@Z
_TEXT	SEGMENT PARA USE32 PUBLIC 'CODE'
_TEXT	ENDS
;	COMDAT ??_GCCustomOccManager@@UAEPAXI@Z
_TEXT	SEGMENT PARA USE32 PUBLIC 'CODE'
_TEXT	ENDS
;	COMDAT ??0COccManager@@QAE@XZ
_TEXT	SEGMENT PARA USE32 PUBLIC 'CODE'
_TEXT	ENDS
;	COMDAT ??1COccManager@@UAE@XZ
_TEXT	SEGMENT PARA USE32 PUBLIC 'CODE'
_TEXT	ENDS
;	COMDAT ??1CCustomOccManager@@UAE@XZ
_TEXT	SEGMENT PARA USE32 PUBLIC 'CODE'
_TEXT	ENDS
;	COMDAT ??_GCOccManager@@UAEPAXI@Z
_TEXT	SEGMENT PARA USE32 PUBLIC 'CODE'
_TEXT	ENDS
;	COMDAT ??0CNoTrackObject@@QAE@XZ
_TEXT	SEGMENT PARA USE32 PUBLIC 'CODE'
_TEXT	ENDS
;	COMDAT ??_GWebGamePlayingWnd@@UAEPAXI@Z
_TEXT	SEGMENT PARA USE32 PUBLIC 'CODE'
_TEXT	ENDS
;	COMDAT ??0ILayoutChangeObserver@@QAE@XZ
_TEXT	SEGMENT PARA USE32 PUBLIC 'CODE'
_TEXT	ENDS
;	COMDAT ??1ILayoutChangeObserver@@UAE@XZ
_TEXT	SEGMENT PARA USE32 PUBLIC 'CODE'
_TEXT	ENDS
;	COMDAT ??0WEB_GAME@@QAE@XZ
_TEXT	SEGMENT PARA USE32 PUBLIC 'CODE'
_TEXT	ENDS
;	COMDAT ??1WEB_GAME@@QAE@XZ
_TEXT	SEGMENT PARA USE32 PUBLIC 'CODE'
_TEXT	ENDS
;	COMDAT ??_GILayoutChangeObserver@@UAEPAXI@Z
_TEXT	SEGMENT PARA USE32 PUBLIC 'CODE'
_TEXT	ENDS
;	COMDAT ??0IMessageObserver@@QAE@XZ
_TEXT	SEGMENT PARA USE32 PUBLIC 'CODE'
_TEXT	ENDS
;	COMDAT ??4WEB_GAME@@QAEAAU0@ABU0@@Z
_TEXT	SEGMENT PARA USE32 PUBLIC 'CODE'
_TEXT	ENDS
;	COMDAT ??HATL@@YA?AV?$CStringT@DV?$StrTraitMFC_DLL@DV?$ChTraitsCRT@D@ATL@@@@@0@PBDABV10@@Z
_TEXT	SEGMENT PARA USE32 PUBLIC 'CODE'
_TEXT	ENDS
;	COMDAT ??B?$CComPtrBase@UITypeInfo2@@@ATL@@QBEPAUITypeInfo2@@XZ
_TEXT	SEGMENT PARA USE32 PUBLIC 'CODE'
_TEXT	ENDS
;	COMDAT ??B?$CComPtrBase@UIHTMLDocument2@@@ATL@@QBEPAUIHTMLDocument2@@XZ
_TEXT	SEGMENT PARA USE32 PUBLIC 'CODE'
_TEXT	ENDS
;	COMDAT ?equal@?$istreambuf_iterator@DU?$char_traits@D@std@@@std@@QBE_NABV12@@Z
_TEXT	SEGMENT PARA USE32 PUBLIC 'CODE'
_TEXT	ENDS
;	COMDAT ?equal@?$istreambuf_iterator@_WU?$char_traits@_W@std@@@std@@QBE_NABV12@@Z
_TEXT	SEGMENT PARA USE32 PUBLIC 'CODE'
_TEXT	ENDS
;	COMDAT ??0iterator@?$basic_string@DU?$char_traits@D@std@@V?$allocator@D@2@@std@@QAE@PAD@Z
_TEXT	SEGMENT PARA USE32 PUBLIC 'CODE'
_TEXT	ENDS
;	COMDAT ??0const_iterator@?$basic_string@DU?$char_traits@D@std@@V?$allocator@D@2@@std@@QAE@PBD@Z
_TEXT	SEGMENT PARA USE32 PUBLIC 'CODE'
_TEXT	ENDS
;	COMDAT ??Gconst_iterator@?$basic_string@DU?$char_traits@D@std@@V?$allocator@D@2@@std@@QBEHABV012@@Z
_TEXT	SEGMENT PARA USE32 PUBLIC 'CODE'
_TEXT	ENDS
;	COMDAT ?Unlock@?$CComCritSecLock@VCComCriticalSection@ATL@@@ATL@@QAEXXZ
_TEXT	SEGMENT PARA USE32 PUBLIC 'CODE'
_TEXT	ENDS
;	COMDAT ??$AtlAlignUp@H@ATL@@YGHHK@Z
_TEXT	SEGMENT PARA USE32 PUBLIC 'CODE'
_TEXT	ENDS
;	COMDAT ??$_Maklocstr@D@std@@YAPADPBDPADABU_Cvtvec@@@Z
_TEXT	SEGMENT PARA USE32 PUBLIC 'CODE'
_TEXT	ENDS
;	COMDAT ??_EWebGamePlayingWnd@@WFE@AEPAXI@Z
_TEXT	SEGMENT PARA USE32 PUBLIC 'CODE'
_TEXT	ENDS
;	COMDAT ??_R3IDocHostShowUI@@8
rdata$r	SEGMENT DWORD USE32 PUBLIC 'CONST'
rdata$r	ENDS
;	COMDAT ??_R3COccManager@@8
rdata$r	SEGMENT DWORD USE32 PUBLIC 'CONST'
rdata$r	ENDS
;	COMDAT ??_R3IDocHostUIHandler@@8
rdata$r	SEGMENT DWORD USE32 PUBLIC 'CONST'
rdata$r	ENDS
;	COMDAT ??_R3CCustomOccManager@@8
rdata$r	SEGMENT DWORD USE32 PUBLIC 'CONST'
rdata$r	ENDS
;	COMDAT ??_R3CAtlStringMgr@ATL@@8
rdata$r	SEGMENT DWORD USE32 PUBLIC 'CONST'
rdata$r	ENDS
;	COMDAT ??_R3?$numpunct@_W@std@@8
rdata$r	SEGMENT DWORD USE32 PUBLIC 'CONST'
rdata$r	ENDS
;	COMDAT ??_R3?$numpunct@D@std@@8
rdata$r	SEGMENT DWORD USE32 PUBLIC 'CONST'
rdata$r	ENDS
;	COMDAT ??_R3IData@@8
rdata$r	SEGMENT DWORD USE32 PUBLIC 'CONST'
rdata$r	ENDS
;	COMDAT ??_R3XDocHostUIHandler@CCustomControlSite@@8
rdata$r	SEGMENT DWORD USE32 PUBLIC 'CONST'
rdata$r	ENDS
;	COMDAT ??_R3WebGamePlayingWnd@@8
rdata$r	SEGMENT DWORD USE32 PUBLIC 'CONST'
rdata$r	ENDS
;	COMDAT ??_R3XDocHostShowUI@CCustomControlSite@@8
rdata$r	SEGMENT DWORD USE32 PUBLIC 'CONST'
rdata$r	ENDS
;	COMDAT ??_R3CCustomControlSite@@8
rdata$r	SEGMENT DWORD USE32 PUBLIC 'CONST'
rdata$r	ENDS
;	COMDAT ??_R3ILayoutChangeObserver@@8
rdata$r	SEGMENT DWORD USE32 PUBLIC 'CONST'
rdata$r	ENDS
;	COMDAT ??_R2IDocHostShowUI@@8
rdata$r	SEGMENT DWORD USE32 PUBLIC 'CONST'
rdata$r	ENDS
;	COMDAT ??_R2COccManager@@8
rdata$r	SEGMENT DWORD USE32 PUBLIC 'CONST'
rdata$r	ENDS
;	COMDAT ??_R2IDocHostUIHandler@@8
rdata$r	SEGMENT DWORD USE32 PUBLIC 'CONST'
rdata$r	ENDS
;	COMDAT ??_R2CCustomOccManager@@8
rdata$r	SEGMENT DWORD USE32 PUBLIC 'CONST'
rdata$r	ENDS
;	COMDAT ??_R2CAtlStringMgr@ATL@@8
rdata$r	SEGMENT DWORD USE32 PUBLIC 'CONST'
rdata$r	ENDS
;	COMDAT ??_R2?$numpunct@_W@std@@8
rdata$r	SEGMENT DWORD USE32 PUBLIC 'CONST'
rdata$r	ENDS
;	COMDAT ??_R2?$numpunct@D@std@@8
rdata$r	SEGMENT DWORD USE32 PUBLIC 'CONST'
rdata$r	ENDS
;	COMDAT ??_R2IData@@8
rdata$r	SEGMENT DWORD USE32 PUBLIC 'CONST'
rdata$r	ENDS
;	COMDAT ??_R2XDocHostUIHandler@CCustomControlSite@@8
rdata$r	SEGMENT DWORD USE32 PUBLIC 'CONST'
rdata$r	ENDS
;	COMDAT ??_R2WebGamePlayingWnd@@8
rdata$r	SEGMENT DWORD USE32 PUBLIC 'CONST'
rdata$r	ENDS
;	COMDAT ??_R2XDocHostShowUI@CCustomControlSite@@8
rdata$r	SEGMENT DWORD USE32 PUBLIC 'CONST'
rdata$r	ENDS
;	COMDAT ??_R2CCustomControlSite@@8
rdata$r	SEGMENT DWORD USE32 PUBLIC 'CONST'
rdata$r	ENDS
;	COMDAT ??_R2ILayoutChangeObserver@@8
rdata$r	SEGMENT DWORD USE32 PUBLIC 'CONST'
rdata$r	ENDS
;	COMDAT ??_R1A@?0A@A@CNoTrackObject@@8
rdata$r	SEGMENT DWORD USE32 PUBLIC 'CONST'
rdata$r	ENDS
;	COMDAT ??_R0?AVCNoTrackObject@@@8
_DATA	SEGMENT DWORD USE32 PUBLIC 'DATA'
_DATA	ENDS
;	COMDAT ??_R1A@?0A@A@COccManager@@8
rdata$r	SEGMENT DWORD USE32 PUBLIC 'CONST'
rdata$r	ENDS
;	COMDAT ??_R1A@?0A@A@CCustomOccManager@@8
rdata$r	SEGMENT DWORD USE32 PUBLIC 'CONST'
rdata$r	ENDS
;	COMDAT ??_R1A@?0A@A@IAtlStringMgr@ATL@@8
rdata$r	SEGMENT DWORD USE32 PUBLIC 'CONST'
rdata$r	ENDS
;	COMDAT ??_R0?AUIAtlStringMgr@ATL@@@8
_DATA	SEGMENT DWORD USE32 PUBLIC 'DATA'
_DATA	ENDS
;	COMDAT ??_R1A@?0A@A@CAtlStringMgr@ATL@@8
rdata$r	SEGMENT DWORD USE32 PUBLIC 'CONST'
rdata$r	ENDS
;	COMDAT ??_R1A@?0A@A@?$numpunct@_W@std@@8
rdata$r	SEGMENT DWORD USE32 PUBLIC 'CONST'
rdata$r	ENDS
;	COMDAT ??_R1A@?0A@A@facet@locale@std@@8
rdata$r	SEGMENT DWORD USE32 PUBLIC 'CONST'
rdata$r	ENDS
;	COMDAT ??_R0?AVfacet@locale@std@@@8
_DATA	SEGMENT DWORD USE32 PUBLIC 'DATA'
_DATA	ENDS
;	COMDAT ??_R1A@?0A@A@?$numpunct@D@std@@8
rdata$r	SEGMENT DWORD USE32 PUBLIC 'CONST'
rdata$r	ENDS
;	COMDAT ??_R1A@?0A@A@IData@@8
rdata$r	SEGMENT DWORD USE32 PUBLIC 'CONST'
rdata$r	ENDS
;	COMDAT ??_R1A@?0A@A@IDocHostUIHandler@@8
rdata$r	SEGMENT DWORD USE32 PUBLIC 'CONST'
rdata$r	ENDS
;	COMDAT ??_R1A@?0A@A@XDocHostUIHandler@CCustomControlSite@@8
rdata$r	SEGMENT DWORD USE32 PUBLIC 'CONST'
rdata$r	ENDS
;	COMDAT ??_R1FE@?0A@A@IMessageObserver@@8
rdata$r	SEGMENT DWORD USE32 PUBLIC 'CONST'
rdata$r	ENDS
;	COMDAT ??_R1FE@?0A@A@ILayoutChangeObserver@@8
rdata$r	SEGMENT DWORD USE32 PUBLIC 'CONST'
rdata$r	ENDS
;	COMDAT ??_R1A@?0A@A@CWnd@@8
rdata$r	SEGMENT DWORD USE32 PUBLIC 'CONST'
rdata$r	ENDS
;	COMDAT ??_R0?AVCWnd@@@8
_DATA	SEGMENT DWORD USE32 PUBLIC 'DATA'
_DATA	ENDS
;	COMDAT ??_R1A@?0A@A@CBasicWnd@@8
rdata$r	SEGMENT DWORD USE32 PUBLIC 'CONST'
rdata$r	ENDS
;	COMDAT ??_R1A@?0A@A@WebGamePlayingWnd@@8
rdata$r	SEGMENT DWORD USE32 PUBLIC 'CONST'
rdata$r	ENDS
;	COMDAT ??_R1A@?0A@A@IUnknown@@8
rdata$r	SEGMENT DWORD USE32 PUBLIC 'CONST'
rdata$r	ENDS
;	COMDAT ??_R0?AUIUnknown@@@8
_DATA	SEGMENT DWORD USE32 PUBLIC 'DATA'
_DATA	ENDS
;	COMDAT ??_R1A@?0A@A@IDocHostShowUI@@8
rdata$r	SEGMENT DWORD USE32 PUBLIC 'CONST'
rdata$r	ENDS
;	COMDAT ??_R1A@?0A@A@XDocHostShowUI@CCustomControlSite@@8
rdata$r	SEGMENT DWORD USE32 PUBLIC 'CONST'
rdata$r	ENDS
;	COMDAT ??_R1A@?0A@A@CObject@@8
rdata$r	SEGMENT DWORD USE32 PUBLIC 'CONST'
rdata$r	ENDS
;	COMDAT ??_R0?AVCObject@@@8
_DATA	SEGMENT DWORD USE32 PUBLIC 'DATA'
_DATA	ENDS
;	COMDAT ??_R1A@?0A@A@CCmdTarget@@8
rdata$r	SEGMENT DWORD USE32 PUBLIC 'CONST'
rdata$r	ENDS
;	COMDAT ??_R0?AVCCmdTarget@@@8
_DATA	SEGMENT DWORD USE32 PUBLIC 'DATA'
_DATA	ENDS
;	COMDAT ??_R1A@?0A@A@COleControlSite@@8
rdata$r	SEGMENT DWORD USE32 PUBLIC 'CONST'
rdata$r	ENDS
;	COMDAT ??_R1A@?0A@A@CCustomControlSite@@8
rdata$r	SEGMENT DWORD USE32 PUBLIC 'CONST'
rdata$r	ENDS
;	COMDAT ??_R1A@?0A@A@IMessageObserver@@8
rdata$r	SEGMENT DWORD USE32 PUBLIC 'CONST'
rdata$r	ENDS
;	COMDAT ??_R1A@?0A@A@ILayoutChangeObserver@@8
rdata$r	SEGMENT DWORD USE32 PUBLIC 'CONST'
rdata$r	ENDS
;	COMDAT ??_R0?AVCOccManager@@@8
_DATA	SEGMENT DWORD USE32 PUBLIC 'DATA'
_DATA	ENDS
;	COMDAT ??_R0?AVCCustomOccManager@@@8
_DATA	SEGMENT DWORD USE32 PUBLIC 'DATA'
_DATA	ENDS
;	COMDAT ??_R0?AVCAtlStringMgr@ATL@@@8
_DATA	SEGMENT DWORD USE32 PUBLIC 'DATA'
_DATA	ENDS
;	COMDAT ??_R0?AV?$numpunct@_W@std@@@8
_DATA	SEGMENT DWORD USE32 PUBLIC 'DATA'
_DATA	ENDS
;	COMDAT ??_R0?AV?$numpunct@D@std@@@8
_DATA	SEGMENT DWORD USE32 PUBLIC 'DATA'
_DATA	ENDS
;	COMDAT ??_R0?AVIData@@@8
_DATA	SEGMENT DWORD USE32 PUBLIC 'DATA'
_DATA	ENDS
;	COMDAT ??_R0?AUIDocHostUIHandler@@@8
_DATA	SEGMENT DWORD USE32 PUBLIC 'DATA'
_DATA	ENDS
;	COMDAT ??_R0?AVXDocHostUIHandler@CCustomControlSite@@@8
_DATA	SEGMENT DWORD USE32 PUBLIC 'DATA'
_DATA	ENDS
;	COMDAT ??_R0?AVIMessageObserver@@@8
_DATA	SEGMENT DWORD USE32 PUBLIC 'DATA'
_DATA	ENDS
;	COMDAT ??_R0?AVCBasicWnd@@@8
_DATA	SEGMENT DWORD USE32 PUBLIC 'DATA'
_DATA	ENDS
;	COMDAT ??_R0?AVWebGamePlayingWnd@@@8
_DATA	SEGMENT DWORD USE32 PUBLIC 'DATA'
_DATA	ENDS
;	COMDAT ??_R0?AUIDocHostShowUI@@@8
_DATA	SEGMENT DWORD USE32 PUBLIC 'DATA'
_DATA	ENDS
;	COMDAT ??_R0?AVXDocHostShowUI@CCustomControlSite@@@8
_DATA	SEGMENT DWORD USE32 PUBLIC 'DATA'
_DATA	ENDS
;	COMDAT ??_R0?AVCOleControlSite@@@8
_DATA	SEGMENT DWORD USE32 PUBLIC 'DATA'
_DATA	ENDS
;	COMDAT ??_R0?AVCCustomControlSite@@@8
_DATA	SEGMENT DWORD USE32 PUBLIC 'DATA'
_DATA	ENDS
;	COMDAT ??_R0?AVILayoutChangeObserver@@@8
_DATA	SEGMENT DWORD USE32 PUBLIC 'DATA'
_DATA	ENDS
;	COMDAT ??_R4IDocHostShowUI@@6B@
rdata$r	SEGMENT DWORD USE32 PUBLIC 'CONST'
rdata$r	ENDS
;	COMDAT ??_R4COccManager@@6B@
rdata$r	SEGMENT DWORD USE32 PUBLIC 'CONST'
rdata$r	ENDS
;	COMDAT ??_R4IDocHostUIHandler@@6B@
rdata$r	SEGMENT DWORD USE32 PUBLIC 'CONST'
rdata$r	ENDS
;	COMDAT ??_R4CCustomOccManager@@6B@
rdata$r	SEGMENT DWORD USE32 PUBLIC 'CONST'
rdata$r	ENDS
;	COMDAT ??_R4CAtlStringMgr@ATL@@6B@
rdata$r	SEGMENT DWORD USE32 PUBLIC 'CONST'
rdata$r	ENDS
;	COMDAT ??0?$allocator@_W@std@@QAE@XZ
_TEXT	SEGMENT PARA USE32 PUBLIC 'CODE'
_TEXT	ENDS
;	COMDAT ??_G?$numpunct@_W@std@@MAEPAXI@Z
_TEXT	SEGMENT PARA USE32 PUBLIC 'CODE'
_TEXT	ENDS
;	COMDAT ??_R4?$numpunct@_W@std@@6B@
rdata$r	SEGMENT DWORD USE32 PUBLIC 'CONST'
rdata$r	ENDS
;	COMDAT ??_G?$numpunct@D@std@@MAEPAXI@Z
_TEXT	SEGMENT PARA USE32 PUBLIC 'CODE'
_TEXT	ENDS
;	COMDAT ??_R4?$numpunct@D@std@@6B@
rdata$r	SEGMENT DWORD USE32 PUBLIC 'CONST'
rdata$r	ENDS
;	COMDAT ??_R4IData@@6B@
rdata$r	SEGMENT DWORD USE32 PUBLIC 'CONST'
rdata$r	ENDS
;	COMDAT ??_R4XDocHostUIHandler@CCustomControlSite@@6B@
rdata$r	SEGMENT DWORD USE32 PUBLIC 'CONST'
rdata$r	ENDS
;	COMDAT ??_R4WebGamePlayingWnd@@6BILayoutChangeObserver@@@
rdata$r	SEGMENT DWORD USE32 PUBLIC 'CONST'
rdata$r	ENDS
;	COMDAT ??_R4WebGamePlayingWnd@@6BCBasicWnd@@@
rdata$r	SEGMENT DWORD USE32 PUBLIC 'CONST'
rdata$r	ENDS
;	COMDAT ??_R4XDocHostShowUI@CCustomControlSite@@6B@
rdata$r	SEGMENT DWORD USE32 PUBLIC 'CONST'
rdata$r	ENDS
;	COMDAT ??_R4CCustomControlSite@@6B@
rdata$r	SEGMENT DWORD USE32 PUBLIC 'CONST'
rdata$r	ENDS
;	COMDAT ??_R4ILayoutChangeObserver@@6B@
rdata$r	SEGMENT DWORD USE32 PUBLIC 'CONST'
rdata$r	ENDS
;	COMDAT ??_C@_0EN@CBMLGOH@D?3?2Program?5Files?5?$CIx86?$CJ?2Microsoft@
CONST	SEGMENT DWORD USE32 PUBLIC 'CONST'
CONST	ENDS
;	COMDAT ?_Psave@?$_Facetptr@V?$numpunct@_W@std@@@std@@2PBVfacet@locale@2@B
_DATA	SEGMENT DWORD USE32 PUBLIC 'DATA'
_DATA	ENDS
;	COMDAT ?_Psave@?$_Facetptr@V?$numpunct@D@std@@@std@@2PBVfacet@locale@2@B
_DATA	SEGMENT DWORD USE32 PUBLIC 'DATA'
_DATA	ENDS
;	COMDAT ?Unlock@CComCriticalSection@ATL@@QAEJXZ
_TEXT	SEGMENT PARA USE32 PUBLIC 'CODE'
_TEXT	ENDS
;	COMDAT ??_C@_0FG@LDNDNCJM@D?3?2Program?5Files?5?$CIx86?$CJ?2Microsoft@
CONST	SEGMENT DWORD USE32 PUBLIC 'CONST'
CONST	ENDS
;	COMDAT ??_C@_09HIEJFN@m_bLocked?$AA@
CONST	SEGMENT DWORD USE32 PUBLIC 'CONST'
CONST	ENDS
;	COMDAT ?_Psave@?$_Facetptr@V?$ctype@_W@std@@@std@@2PBVfacet@locale@2@B
_DATA	SEGMENT DWORD USE32 PUBLIC 'DATA'
_DATA	ENDS
;	COMDAT ?_Psave@?$_Facetptr@V?$ctype@D@std@@@std@@2PBVfacet@locale@2@B
_DATA	SEGMENT DWORD USE32 PUBLIC 'DATA'
_DATA	ENDS
;	COMDAT ??$_Maklocchr@_W@std@@YA_WDPA_WABU_Cvtvec@@@Z
_TEXT	SEGMENT PARA USE32 PUBLIC 'CODE'
_TEXT	ENDS
;	COMDAT ??$_DebugHeapDelete@X@std@@YAXPAX@Z
_TEXT	SEGMENT PARA USE32 PUBLIC 'CODE'
_TEXT	ENDS
;	COMDAT ??$_Maklocstr@_W@std@@YAPA_WPBDPA_WABU_Cvtvec@@@Z
_TEXT	SEGMENT PARA USE32 PUBLIC 'CODE'
_TEXT	ENDS
;	COMDAT ??$_Maklocchr@D@std@@YADDPADABU_Cvtvec@@@Z
_TEXT	SEGMENT PARA USE32 PUBLIC 'CODE'
_TEXT	ENDS
;	COMDAT ??_C@_04LOAJBDKD@true?$AA@
CONST	SEGMENT DWORD USE32 PUBLIC 'CONST'
CONST	ENDS
;	COMDAT ??_C@_05LAPONLG@false?$AA@
CONST	SEGMENT DWORD USE32 PUBLIC 'CONST'
CONST	ENDS
;	COMDAT _wmemcpy
_TEXT	SEGMENT PARA USE32 PUBLIC 'CODE'
_TEXT	ENDS
;	COMDAT ?max_size@?$allocator@_W@std@@QBEIXZ
_TEXT	SEGMENT PARA USE32 PUBLIC 'CODE'
_TEXT	ENDS
;	COMDAT ?allocate@?$allocator@_W@std@@QAEPA_WI@Z
_TEXT	SEGMENT PARA USE32 PUBLIC 'CODE'
_TEXT	ENDS
;	COMDAT ??$_Allocate@_W@std@@YAPA_WIPA_W@Z
_TEXT	SEGMENT PARA USE32 PUBLIC 'CODE'
_TEXT	ENDS
;	COMDAT ??_C@_01GFHCPBMG@C?$AA@
CONST	SEGMENT DWORD USE32 PUBLIC 'CONST'
CONST	ENDS
;	COMDAT ?max_size@?$allocator@D@std@@QBEIXZ
_TEXT	SEGMENT PARA USE32 PUBLIC 'CODE'
_TEXT	ENDS
;	COMDAT ?allocate@?$allocator@D@std@@QAEPADI@Z
_TEXT	SEGMENT PARA USE32 PUBLIC 'CODE'
_TEXT	ENDS
;	COMDAT ??$_Allocate@D@std@@YAPADIPAD@Z
_TEXT	SEGMENT PARA USE32 PUBLIC 'CODE'
_TEXT	ENDS
;	COMDAT ?deallocate@?$allocator@D@std@@QAEXPADI@Z
_TEXT	SEGMENT PARA USE32 PUBLIC 'CODE'
_TEXT	ENDS
;	COMDAT ?Release@CStringData@ATL@@QAEXXZ
_TEXT	SEGMENT PARA USE32 PUBLIC 'CODE'
_TEXT	ENDS
;	COMDAT ??_C@_0L@OIIMFBNE@nRefs?5?$CB?$DN?50?$AA@
CONST	SEGMENT DWORD USE32 PUBLIC 'CONST'
CONST	ENDS
;	COMDAT ??_C@_0FJ@DMHPDOJC@D?3?2Program?5Files?5?$CIx86?$CJ?2Microsoft@
CONST	SEGMENT DWORD USE32 PUBLIC 'CONST'
CONST	ENDS
;	COMDAT ??_C@_0BA@GOIMFHNK@pStringMgr?5?$CB?$DN?50?$AA@
CONST	SEGMENT DWORD USE32 PUBLIC 'CONST'
CONST	ENDS
;	COMDAT ?data@CStringData@ATL@@QAEPAXXZ
_TEXT	SEGMENT PARA USE32 PUBLIC 'CODE'
_TEXT	ENDS
;	COMDAT ??_C@_0BA@GNIEOBOF@nNewLength?5?$DO?$DN?50?$AA@
CONST	SEGMENT DWORD USE32 PUBLIC 'CONST'
CONST	ENDS
;	COMDAT ??_C@_0N@ILOMLJGA@nLength?5?$DO?$DN?50?$AA@
CONST	SEGMENT DWORD USE32 PUBLIC 'CONST'
CONST	ENDS
;	COMDAT ??_C@_0CD@EEFFJEGJ@nLength?5?$DM?$DN?5GetData?$CI?$CJ?9?$DOnAllocLeng@
CONST	SEGMENT DWORD USE32 PUBLIC 'CONST'
CONST	ENDS
;	COMDAT ?AtlThrow@ATL@@YGXJ@Z
_TEXT	SEGMENT PARA USE32 PUBLIC 'CODE'
_TEXT	ENDS
;	COMDAT ??RCTraceFileAndLineInfo@ATL@@QBAXKIPBDZZ
_TEXT	SEGMENT PARA USE32 PUBLIC 'CODE'
_TEXT	ENDS
;	COMDAT ?TraceV@CTrace@ATL@@QBAXPBDHKI0PAD@Z
_TEXT	SEGMENT PARA USE32 PUBLIC 'CODE'
_TEXT	ENDS
;	COMDAT ??0CTraceFileAndLineInfo@ATL@@QAE@PBDH@Z
_TEXT	SEGMENT PARA USE32 PUBLIC 'CODE'
_TEXT	ENDS
;	COMDAT ??_C@_0FI@NHHJANPC@D?3?2Program?5Files?5?$CIx86?$CJ?2Microsoft@
CONST	SEGMENT DWORD USE32 PUBLIC 'CONST'
CONST	ENDS
;	COMDAT ??_C@_0BF@IAAKIJDJ@AtlThrow?3?5hr?5?$DN?50x?$CFx?6?$AA@
CONST	SEGMENT DWORD USE32 PUBLIC 'CONST'
CONST	ENDS
;	COMDAT ??BCTraceCategory@ATL@@QBEKXZ
_TEXT	SEGMENT PARA USE32 PUBLIC 'CODE'
_TEXT	ENDS
;	COMDAT ?IsShared@CStringData@ATL@@QBE_NXZ
_TEXT	SEGMENT PARA USE32 PUBLIC 'CODE'
_TEXT	ENDS
;	COMDAT ??_C@_0CB@GFHAPKDK@pOldData?9?$DOnAllocLength?5?$DM?5nLength@
CONST	SEGMENT DWORD USE32 PUBLIC 'CONST'
CONST	ENDS
;	COMDAT ?_Peek@?$istreambuf_iterator@_WU?$char_traits@_W@std@@@std@@AAE_WXZ
_TEXT	SEGMENT PARA USE32 PUBLIC 'CODE'
_TEXT	ENDS
;	COMDAT ?_Peek@?$istreambuf_iterator@DU?$char_traits@D@std@@@std@@AAEDXZ
_TEXT	SEGMENT PARA USE32 PUBLIC 'CODE'
_TEXT	ENDS
;	COMDAT ??$use_facet@V?$ctype@_W@std@@@std@@YAABV?$ctype@_W@0@ABVlocale@0@@Z
_TEXT	SEGMENT PARA USE32 PUBLIC 'CODE'
_TEXT	ENDS
;	COMDAT ??_S?$ctype@_W@std@@6B@
CONST	SEGMENT DWORD USE32 PUBLIC 'CONST'
CONST	ENDS
;	COMDAT ??_R4?$ctype@_W@std@@6B@
rdata$r	SEGMENT DWORD USE32 PUBLIC 'CONST'
rdata$r	ENDS
;	COMDAT ??_R0?AV?$ctype@_W@std@@@8
_DATA	SEGMENT DWORD USE32 PUBLIC 'DATA'
_DATA	ENDS
;	COMDAT ??_R3?$ctype@_W@std@@8
rdata$r	SEGMENT DWORD USE32 PUBLIC 'CONST'
rdata$r	ENDS
;	COMDAT ??_R2?$ctype@_W@std@@8
rdata$r	SEGMENT DWORD USE32 PUBLIC 'CONST'
rdata$r	ENDS
;	COMDAT ??_R1A@?0A@A@?$ctype@_W@std@@8
rdata$r	SEGMENT DWORD USE32 PUBLIC 'CONST'
rdata$r	ENDS
;	COMDAT ??_R1A@?0A@A@ctype_base@std@@8
rdata$r	SEGMENT DWORD USE32 PUBLIC 'CONST'
rdata$r	ENDS
;	COMDAT ??_R0?AUctype_base@std@@@8
_DATA	SEGMENT DWORD USE32 PUBLIC 'DATA'
_DATA	ENDS
;	COMDAT ??_G?$ctype@_W@std@@MAEPAXI@Z
_TEXT	SEGMENT PARA USE32 PUBLIC 'CODE'
_TEXT	ENDS
;	COMDAT ??_C@_08EPJLHIJG@bad?5cast?$AA@
CONST	SEGMENT DWORD USE32 PUBLIC 'CONST'
CONST	ENDS
;	COMDAT __TI2?AVbad_cast@@
xdata$x	SEGMENT DWORD USE32 PUBLIC 'CONST'
xdata$x	ENDS
;	COMDAT __CTA2?AVbad_cast@@
xdata$x	SEGMENT DWORD USE32 PUBLIC 'CONST'
xdata$x	ENDS
;	COMDAT __CT??_R0?AVbad_cast@@@8??0bad_cast@@QAE@ABV0@@Z12
xdata$x	SEGMENT DWORD USE32 PUBLIC 'CONST'
xdata$x	ENDS
;	COMDAT ??_R0?AVbad_cast@@@8
_DATA	SEGMENT DWORD USE32 PUBLIC 'DATA'
_DATA	ENDS
;	COMDAT __CT??_R0?AVexception@@@8??0exception@@QAE@ABV0@@Z12
xdata$x	SEGMENT DWORD USE32 PUBLIC 'CONST'
xdata$x	ENDS
;	COMDAT ??_R0?AVexception@@@8
_DATA	SEGMENT DWORD USE32 PUBLIC 'DATA'
_DATA	ENDS
;	COMDAT ??$_DebugHeapDelete@Vfacet@locale@std@@@std@@YAXPAVfacet@locale@0@@Z
_TEXT	SEGMENT PARA USE32 PUBLIC 'CODE'
_TEXT	ENDS
;	COMDAT ??$use_facet@V?$ctype@D@std@@@std@@YAABV?$ctype@D@0@ABVlocale@0@@Z
_TEXT	SEGMENT PARA USE32 PUBLIC 'CODE'
_TEXT	ENDS
;	COMDAT ??_S?$ctype@D@std@@6B@
CONST	SEGMENT DWORD USE32 PUBLIC 'CONST'
CONST	ENDS
;	COMDAT ??_R4?$ctype@D@std@@6B@
rdata$r	SEGMENT DWORD USE32 PUBLIC 'CONST'
rdata$r	ENDS
;	COMDAT ??_R0?AV?$ctype@D@std@@@8
_DATA	SEGMENT DWORD USE32 PUBLIC 'DATA'
_DATA	ENDS
;	COMDAT ??_R3?$ctype@D@std@@8
rdata$r	SEGMENT DWORD USE32 PUBLIC 'CONST'
rdata$r	ENDS
;	COMDAT ??_R2?$ctype@D@std@@8
rdata$r	SEGMENT DWORD USE32 PUBLIC 'CONST'
rdata$r	ENDS
;	COMDAT ??_R1A@?0A@A@?$ctype@D@std@@8
rdata$r	SEGMENT DWORD USE32 PUBLIC 'CONST'
rdata$r	ENDS
;	COMDAT ??_G?$ctype@D@std@@MAEPAXI@Z
_TEXT	SEGMENT PARA USE32 PUBLIC 'CODE'
_TEXT	ENDS
;	COMDAT ??_S?$numpunct@_W@std@@6B@
CONST	SEGMENT DWORD USE32 PUBLIC 'CONST'
CONST	ENDS
;	COMDAT ??_S?$numpunct@D@std@@6B@
CONST	SEGMENT DWORD USE32 PUBLIC 'CONST'
CONST	ENDS
;	COMDAT _wmemmove
_TEXT	SEGMENT PARA USE32 PUBLIC 'CODE'
_TEXT	ENDS
;	COMDAT ?deallocate@?$allocator@_W@std@@QAEXPA_WI@Z
_TEXT	SEGMENT PARA USE32 PUBLIC 'CODE'
_TEXT	ENDS
;	COMDAT ??0?$allocator@_W@std@@QAE@ABV01@@Z
_TEXT	SEGMENT PARA USE32 PUBLIC 'CODE'
_TEXT	ENDS
;	COMDAT ??0?$allocator@D@std@@QAE@ABV01@@Z
_TEXT	SEGMENT PARA USE32 PUBLIC 'CODE'
_TEXT	ENDS
;	COMDAT ??0?$allocator@D@std@@QAE@XZ
_TEXT	SEGMENT PARA USE32 PUBLIC 'CODE'
_TEXT	ENDS
;	COMDAT ?_messageEntries@WebGamePlayingWnd@@0QBUAFX_MSGMAP_ENTRY@@B
CONST	SEGMENT DWORD USE32 PUBLIC 'CONST'
CONST	ENDS
;	COMDAT ?messageMap@WebGamePlayingWnd@@1UAFX_MSGMAP@@B
CONST	SEGMENT DWORD USE32 PUBLIC 'CONST'
CONST	ENDS
;	COMDAT ??_7IMessageObserver@@6B@
CONST	SEGMENT DWORD USE32 PUBLIC 'CONST'
CONST	ENDS
;	COMDAT ??_R4IMessageObserver@@6B@
rdata$r	SEGMENT DWORD USE32 PUBLIC 'CONST'
rdata$r	ENDS
;	COMDAT ??_R3IMessageObserver@@8
rdata$r	SEGMENT DWORD USE32 PUBLIC 'CONST'
rdata$r	ENDS
;	COMDAT ??_R2IMessageObserver@@8
rdata$r	SEGMENT DWORD USE32 PUBLIC 'CONST'
rdata$r	ENDS
;	COMDAT ??_GIMessageObserver@@UAEPAXI@Z
_TEXT	SEGMENT PARA USE32 PUBLIC 'CODE'
_TEXT	ENDS
;	COMDAT ??_7ILayoutChangeObserver@@6B@
CONST	SEGMENT DWORD USE32 PUBLIC 'CONST'
CONST	ENDS
;	COMDAT ??1IMessageObserver@@UAE@XZ
_TEXT	SEGMENT PARA USE32 PUBLIC 'CODE'
_TEXT	ENDS
;	COMDAT ??_7WebGamePlayingWnd@@6BILayoutChangeObserver@@@
CONST	SEGMENT DWORD USE32 PUBLIC 'CONST'
CONST	ENDS
;	COMDAT ??_7WebGamePlayingWnd@@6BCBasicWnd@@@
CONST	SEGMENT DWORD USE32 PUBLIC 'CONST'
CONST	ENDS
;	COMDAT ?classWebGamePlayingWnd@WebGamePlayingWnd@@2UCRuntimeClass@@B
CONST	SEGMENT DWORD USE32 PUBLIC 'CONST'
CONST	ENDS
;	COMDAT ?IsLocked@CStringData@ATL@@QBE_NXZ
_TEXT	SEGMENT PARA USE32 PUBLIC 'CODE'
_TEXT	ENDS
;	COMDAT ?GetDefaultManager@?$StrTraitMFC_DLL@DV?$ChTraitsCRT@D@ATL@@@@SAPAUIAtlStringMgr@ATL@@XZ
_TEXT	SEGMENT PARA USE32 PUBLIC 'CODE'
_TEXT	ENDS
;	COMDAT ?FindStringResourceInstance@?$StrTraitMFC_DLL@DV?$ChTraitsCRT@D@ATL@@@@SAPAUHINSTANCE__@@I@Z
_TEXT	SEGMENT PARA USE32 PUBLIC 'CODE'
_TEXT	ENDS
;	COMDAT ?AtlGetStringResourceImage@ATL@@YAPBUATLSTRINGRESOURCEIMAGE@1@PAUHINSTANCE__@@I@Z
_TEXT	SEGMENT PARA USE32 PUBLIC 'CODE'
_TEXT	ENDS
;	COMDAT ?_AtlGetStringResourceImage@ATL@@YAPBUATLSTRINGRESOURCEIMAGE@1@PAUHINSTANCE__@@PAUHRSRC__@@I@Z
_TEXT	SEGMENT PARA USE32 PUBLIC 'CODE'
_TEXT	ENDS
;	COMDAT ?GetBaseTypeLength@?$ChTraitsCRT@D@ATL@@SAHPB_WH@Z
_TEXT	SEGMENT PARA USE32 PUBLIC 'CODE'
_TEXT	ENDS
;	COMDAT ?ConvertToBaseType@?$ChTraitsCRT@D@ATL@@SAXPADHPB_WH@Z
_TEXT	SEGMENT PARA USE32 PUBLIC 'CODE'
_TEXT	ENDS
;	COMDAT ??_C@_0FH@KDPNIMBO@D?3?2Program?5Files?5?$CIx86?$CJ?2Microsoft@
CONST	SEGMENT DWORD USE32 PUBLIC 'CONST'
CONST	ENDS
;	COMDAT ??_C@_0CJ@FJEKGMMD@Warning?3?5implicit?5LoadString?$CI?$CFu?$CJ@
CONST	SEGMENT DWORD USE32 PUBLIC 'CONST'
CONST	ENDS
;	COMDAT ??_7CNoTrackObject@@6B@
CONST	SEGMENT DWORD USE32 PUBLIC 'CONST'
CONST	ENDS
;	COMDAT ??_R4CNoTrackObject@@6B@
rdata$r	SEGMENT DWORD USE32 PUBLIC 'CONST'
rdata$r	ENDS
;	COMDAT ??_R3CNoTrackObject@@8
rdata$r	SEGMENT DWORD USE32 PUBLIC 'CONST'
rdata$r	ENDS
;	COMDAT ??_R2CNoTrackObject@@8
rdata$r	SEGMENT DWORD USE32 PUBLIC 'CONST'
rdata$r	ENDS
;	COMDAT ??_7COccManager@@6B@
CONST	SEGMENT DWORD USE32 PUBLIC 'CONST'
CONST	ENDS
;	COMDAT ??1CNoTrackObject@@UAE@XZ
_TEXT	SEGMENT PARA USE32 PUBLIC 'CODE'
_TEXT	ENDS
;	COMDAT ??_7CCustomOccManager@@6B@
CONST	SEGMENT DWORD USE32 PUBLIC 'CONST'
CONST	ENDS
;	COMDAT ??0IUnknown@@QAE@XZ
_TEXT	SEGMENT PARA USE32 PUBLIC 'CODE'
_TEXT	ENDS
;	COMDAT ??_7XDocHostUIHandler@CCustomControlSite@@6B@
CONST	SEGMENT DWORD USE32 PUBLIC 'CONST'
CONST	ENDS
;	COMDAT ??_7XDocHostShowUI@CCustomControlSite@@6B@
CONST	SEGMENT DWORD USE32 PUBLIC 'CONST'
CONST	ENDS
;	COMDAT ??_7CCustomControlSite@@6B@
CONST	SEGMENT DWORD USE32 PUBLIC 'CONST'
CONST	ENDS
;	COMDAT ?clsid@?1??GetClsid@CShockwaveFlash@@QAEABU_GUID@@XZ@4U3@B
CONST	SEGMENT DWORD USE32 PUBLIC 'CONST'
CONST	ENDS
;	COMDAT ??_7IData@@6B@
CONST	SEGMENT DWORD USE32 PUBLIC 'CONST'
CONST	ENDS
;	COMDAT ?c_bIsMFCDLLTraits@?$_MFCDLLTraitsCheck@_WV?$StrTraitATL@_WV?$ChTraitsCRT@_W@ATL@@@ATL@@@_CSTRING_IMPL_@ATL@@2_NB
CONST	SEGMENT DWORD USE32 PUBLIC 'CONST'
CONST	ENDS
;	COMDAT ?c_bIsMFCDLLTraits@?$_MFCDLLTraitsCheck@DV?$StrTraitATL@DV?$ChTraitsCRT@D@ATL@@@ATL@@@_CSTRING_IMPL_@ATL@@2_NB
CONST	SEGMENT DWORD USE32 PUBLIC 'CONST'
CONST	ENDS
;	COMDAT ?_AtlGetConversionACP@ATL@@YGIXZ
_TEXT	SEGMENT PARA USE32 PUBLIC 'CODE'
_TEXT	ENDS
;	COMDAT ?g_pfnGetThreadACP@ATL@@3P6GIXZA
_DATA	SEGMENT DWORD USE32 PUBLIC 'DATA'
_DATA	ENDS
;	COMDAT ?_AtlGetThreadACPThunk@ATL@@YGIXZ
_TEXT	SEGMENT PARA USE32 PUBLIC 'CODE'
_TEXT	ENDS
;	COMDAT ?_AtlGetThreadACPReal@ATL@@YGIXZ
_TEXT	SEGMENT PARA USE32 PUBLIC 'CODE'
_TEXT	ENDS
;	COMDAT ?_AtlGetThreadACPFake@ATL@@YGIXZ
_TEXT	SEGMENT PARA USE32 PUBLIC 'CODE'
_TEXT	ENDS
;	COMDAT ?InterlockedExchangePointer@@YGPAXPAPAXPAX@Z
_TEXT	SEGMENT PARA USE32 PUBLIC 'CODE'
_TEXT	ENDS
;	COMDAT ??_C@_09BBJEMDLA@nRet?5?$CB?$DN?50?$AA@
CONST	SEGMENT DWORD USE32 PUBLIC 'CONST'
CONST	ENDS
;	COMDAT ?_strthunks@ATL@@3U_AtlStringThunks@1@A
_DATA	SEGMENT DWORD USE32 PUBLIC 'DATA'
_DATA	ENDS
;	COMDAT ?CompareStringWThunk@ATL@@YGHKKPB_WH0H@Z
_TEXT	SEGMENT PARA USE32 PUBLIC 'CODE'
_TEXT	ENDS
;	COMDAT ?_AtlInstallStringThunk@ATL@@YAXPAPAXPAX1@Z
_TEXT	SEGMENT PARA USE32 PUBLIC 'CODE'
_TEXT	ENDS
;	COMDAT ??_B?1??_AtlInstallStringThunk@ATL@@YAXPAPAXPAX1@Z@51
_BSS	SEGMENT DWORD USE32 PUBLIC 'BSS'
_BSS	ENDS
;	COMDAT ?s_bWin9x@?1??_AtlInstallStringThunk@ATL@@YAXPAPAXPAX1@Z@4_NA
_BSS	SEGMENT DWORD USE32 PUBLIC 'BSS'
_BSS	ENDS
;	COMDAT ?CompareStringWFake@ATL@@YGHKKPB_WH0H@Z
_TEXT	SEGMENT PARA USE32 PUBLIC 'CODE'
_TEXT	ENDS
;	COMDAT ??0?$CAtlSafeAllocBufferManager@VCCRTAllocator@ATL@@@_ATL_SAFE_ALLOCA_IMPL@ATL@@QAE@XZ
_TEXT	SEGMENT PARA USE32 PUBLIC 'CODE'
_TEXT	ENDS
;	COMDAT ??1?$CAtlSafeAllocBufferManager@VCCRTAllocator@ATL@@@_ATL_SAFE_ALLOCA_IMPL@ATL@@QAE@XZ
_TEXT	SEGMENT PARA USE32 PUBLIC 'CODE'
_TEXT	ENDS
;	COMDAT ?Free@CCRTAllocator@ATL@@SAXPAX@Z
_TEXT	SEGMENT PARA USE32 PUBLIC 'CODE'
_TEXT	ENDS
;	COMDAT ?AtlW2AHelper@@YGPADPADPB_WHI@Z
_TEXT	SEGMENT PARA USE32 PUBLIC 'CODE'
_TEXT	ENDS
;	COMDAT ??_C@_08DIHJLFDJ@lpw?5?$CB?$DN?50?$AA@
CONST	SEGMENT DWORD USE32 PUBLIC 'CONST'
CONST	ENDS
;	COMDAT ??_C@_08DMHHBMMN@lpa?5?$CB?$DN?50?$AA@
CONST	SEGMENT DWORD USE32 PUBLIC 'CONST'
CONST	ENDS
;	COMDAT ??_C@_01GBGANLPD@0?$AA@
CONST	SEGMENT DWORD USE32 PUBLIC 'CONST'
CONST	ENDS
;	COMDAT ??_C@_0FG@PFHCBDBK@D?3?2Program?5Files?5?$CIx86?$CJ?2Microsoft@
CONST	SEGMENT DWORD USE32 PUBLIC 'CONST'
CONST	ENDS
;	COMDAT ?_AtlVerifyStackAvailable@_ATL_SAFE_ALLOCA_IMPL@ATL@@YA_NK@Z
_TEXT	SEGMENT PARA USE32 PUBLIC 'CODE'
_TEXT	ENDS
;	COMDAT ?Allocate@?$CAtlSafeAllocBufferManager@VCCRTAllocator@ATL@@@_ATL_SAFE_ALLOCA_IMPL@ATL@@QAEPAXK@Z
_TEXT	SEGMENT PARA USE32 PUBLIC 'CODE'
_TEXT	ENDS
;	COMDAT ?Allocate@CCRTAllocator@ATL@@SAPAXI@Z
_TEXT	SEGMENT PARA USE32 PUBLIC 'CODE'
_TEXT	ENDS
;	COMDAT ?GetData@CAtlSafeAllocBufferNode@?$CAtlSafeAllocBufferManager@VCCRTAllocator@ATL@@@_ATL_SAFE_ALLOCA_IMPL@ATL@@QAEPAXXZ
_TEXT	SEGMENT PARA USE32 PUBLIC 'CODE'
_TEXT	ENDS
;	COMDAT ?GetStringTypeExWThunk@ATL@@YGHKKPB_WHPAG@Z
_TEXT	SEGMENT PARA USE32 PUBLIC 'CODE'
_TEXT	ENDS
;	COMDAT ?GetStringTypeExWFake@ATL@@YGHKKPB_WHPAG@Z
_TEXT	SEGMENT PARA USE32 PUBLIC 'CODE'
_TEXT	ENDS
;	COMDAT ??0?$CTempBuffer@D$0IA@VCCRTAllocator@ATL@@@ATL@@QAE@XZ
_TEXT	SEGMENT PARA USE32 PUBLIC 'CODE'
_TEXT	ENDS
;	COMDAT ??1?$CTempBuffer@D$0IA@VCCRTAllocator@ATL@@@ATL@@QAE@XZ
_TEXT	SEGMENT PARA USE32 PUBLIC 'CODE'
_TEXT	ENDS
;	COMDAT ?FreeHeap@?$CTempBuffer@D$0IA@VCCRTAllocator@ATL@@@ATL@@AAEXXZ
_TEXT	SEGMENT PARA USE32 PUBLIC 'CODE'
_TEXT	ENDS
;	COMDAT ?Allocate@?$CTempBuffer@D$0IA@VCCRTAllocator@ATL@@@ATL@@QAEPADI@Z
_TEXT	SEGMENT PARA USE32 PUBLIC 'CODE'
_TEXT	ENDS
;	COMDAT ?AllocateBytes@?$CTempBuffer@D$0IA@VCCRTAllocator@ATL@@@ATL@@QAEPADI@Z
_TEXT	SEGMENT PARA USE32 PUBLIC 'CODE'
_TEXT	ENDS
;	COMDAT ??_C@_08GPODJFIN@m_p?5?$DN?$DN?50?$AA@
CONST	SEGMENT DWORD USE32 PUBLIC 'CONST'
CONST	ENDS
;	COMDAT ??_C@_0FH@BOCPFCEM@D?3?2Program?5Files?5?$CIx86?$CJ?2Microsoft@
CONST	SEGMENT DWORD USE32 PUBLIC 'CONST'
CONST	ENDS
;	COMDAT ?AllocateHeap@?$CTempBuffer@D$0IA@VCCRTAllocator@ATL@@@ATL@@AAEXI@Z
_TEXT	SEGMENT PARA USE32 PUBLIC 'CODE'
_TEXT	ENDS
;	COMDAT ??B?$CTempBuffer@D$0IA@VCCRTAllocator@ATL@@@ATL@@QBEPADXZ
_TEXT	SEGMENT PARA USE32 PUBLIC 'CODE'
_TEXT	ENDS
;	COMDAT ?lstrcmpiWThunk@ATL@@YGHPB_W0@Z
_TEXT	SEGMENT PARA USE32 PUBLIC 'CODE'
_TEXT	ENDS
;	COMDAT ?lstrcmpiWFake@ATL@@YGHPB_W0@Z
_TEXT	SEGMENT PARA USE32 PUBLIC 'CODE'
_TEXT	ENDS
;	COMDAT ?CharLowerWThunk@ATL@@YGPA_WPA_W@Z
_TEXT	SEGMENT PARA USE32 PUBLIC 'CODE'
_TEXT	ENDS
;	COMDAT ?CharLowerWFake@ATL@@YGPA_WPA_W@Z
_TEXT	SEGMENT PARA USE32 PUBLIC 'CODE'
_TEXT	ENDS
;	COMDAT ?AtlA2WHelper@@YGPA_WPA_WPBDHI@Z
_TEXT	SEGMENT PARA USE32 PUBLIC 'CODE'
_TEXT	ENDS
;	COMDAT ?CharUpperWThunk@ATL@@YGPA_WPA_W@Z
_TEXT	SEGMENT PARA USE32 PUBLIC 'CODE'
_TEXT	ENDS
;	COMDAT ?CharUpperWFake@ATL@@YGPA_WPA_W@Z
_TEXT	SEGMENT PARA USE32 PUBLIC 'CODE'
_TEXT	ENDS
;	COMDAT ?GetEnvironmentVariableWThunk@ATL@@YGKPB_WPA_WK@Z
_TEXT	SEGMENT PARA USE32 PUBLIC 'CODE'
_TEXT	ENDS
;	COMDAT ?GetEnvironmentVariableWFake@ATL@@YGKPB_WPA_WK@Z
_TEXT	SEGMENT PARA USE32 PUBLIC 'CODE'
_TEXT	ENDS
;	COMDAT ??0?$CW2AEX@$0IA@@ATL@@QAE@PB_W@Z
_TEXT	SEGMENT PARA USE32 PUBLIC 'CODE'
_TEXT	ENDS
;	COMDAT ?Init@?$CW2AEX@$0IA@@ATL@@AAEXPB_WI@Z
_TEXT	SEGMENT PARA USE32 PUBLIC 'CODE'
_TEXT	ENDS
;	COMDAT ?AtlThrowLastWin32@ATL@@YGXXZ
_TEXT	SEGMENT PARA USE32 PUBLIC 'CODE'
_TEXT	ENDS
;	COMDAT ??1?$CW2AEX@$0IA@@ATL@@QAE@XZ
_TEXT	SEGMENT PARA USE32 PUBLIC 'CODE'
_TEXT	ENDS
;	COMDAT ??B?$CW2AEX@$0IA@@ATL@@QBEPADXZ
_TEXT	SEGMENT PARA USE32 PUBLIC 'CODE'
_TEXT	ENDS
;	COMDAT ??_C@_0BA@CLMJJCOM@nSize?5?$DO?$DN?5nSizeW?$AA@
CONST	SEGMENT DWORD USE32 PUBLIC 'CONST'
CONST	ENDS
;	COMDAT ?AddRef@CStringData@ATL@@QAEXXZ
_TEXT	SEGMENT PARA USE32 PUBLIC 'CODE'
_TEXT	ENDS
;	COMDAT ??_C@_09EEBKLCFA@nRefs?5?$DO?50?$AA@
CONST	SEGMENT DWORD USE32 PUBLIC 'CONST'
CONST	ENDS
;	COMDAT ?SetManager@CNilStringData@ATL@@QAEXPAUIAtlStringMgr@2@@Z
_TEXT	SEGMENT PARA USE32 PUBLIC 'CODE'
_TEXT	ENDS
;	COMDAT ??_C@_0BA@MLJMCNFJ@pStringMgr?5?$DN?$DN?50?$AA@
CONST	SEGMENT DWORD USE32 PUBLIC 'CONST'
CONST	ENDS
;	COMDAT ??0CNilStringData@ATL@@QAE@XZ
_TEXT	SEGMENT PARA USE32 PUBLIC 'CODE'
_TEXT	ENDS
;	COMDAT ??_7CAtlStringMgr@ATL@@6B@
CONST	SEGMENT DWORD USE32 PUBLIC 'CONST'
CONST	ENDS
sxdata	SEGMENT DWORD USE32 'SXDATA'
sxdata	ENDS
FLAT	GROUP _DATA, CONST, _BSS
	ASSUME	CS: FLAT, DS: FLAT, SS: FLAT
endif

INCLUDELIB MSVCRTD
INCLUDELIB OLDNAMES

PUBLIC	?c_bIsMFCDLLTraits@?$_MFCDLLTraitsCheck@DV?$StrTraitATL@DV?$ChTraitsCRT@D@ATL@@@ATL@@@_CSTRING_IMPL_@ATL@@2_NB ; ATL::_CSTRING_IMPL_::_MFCDLLTraitsCheck<char,ATL::StrTraitATL<char,ATL::ChTraitsCRT<char> > >::c_bIsMFCDLLTraits
PUBLIC	?g_pfnGetThreadACP@ATL@@3P6GIXZA		; ATL::g_pfnGetThreadACP
PUBLIC	?_AtlGetThreadACPThunk@ATL@@YGIXZ		; ATL::_AtlGetThreadACPThunk
PUBLIC	?_strthunks@ATL@@3U_AtlStringThunks@1@A		; ATL::_strthunks
PUBLIC	?c_bIsMFCDLLTraits@?$_MFCDLLTraitsCheck@_WV?$StrTraitATL@_WV?$ChTraitsCRT@_W@ATL@@@ATL@@@_CSTRING_IMPL_@ATL@@2_NB ; ATL::_CSTRING_IMPL_::_MFCDLLTraitsCheck<wchar_t,ATL::StrTraitATL<wchar_t,ATL::ChTraitsCRT<wchar_t> > >::c_bIsMFCDLLTraits
PUBLIC	?classWebGamePlayingWnd@WebGamePlayingWnd@@2UCRuntimeClass@@B ; WebGamePlayingWnd::classWebGamePlayingWnd
PUBLIC	?GetEnvironmentVariableWThunk@ATL@@YGKPB_WPA_WK@Z ; ATL::GetEnvironmentVariableWThunk
PUBLIC	?_messageEntries@WebGamePlayingWnd@@0QBUAFX_MSGMAP_ENTRY@@B ; WebGamePlayingWnd::_messageEntries
PUBLIC	?messageMap@WebGamePlayingWnd@@1UAFX_MSGMAP@@B	; WebGamePlayingWnd::messageMap
PUBLIC	?OnCreate@WebGamePlayingWnd@@IAEHPAUtagCREATESTRUCTA@@@Z ; WebGamePlayingWnd::OnCreate
PUBLIC	?OnDestroy@WebGamePlayingWnd@@IAEXXZ		; WebGamePlayingWnd::OnDestroy
PUBLIC	?OnClickedFullScreen@WebGamePlayingWnd@@IAEXXZ	; WebGamePlayingWnd::OnClickedFullScreen
PUBLIC	?OnClickedGameRight@WebGamePlayingWnd@@IAEXXZ	; WebGamePlayingWnd::OnClickedGameRight
PUBLIC	?CompareStringWThunk@ATL@@YGHKKPB_WH0H@Z	; ATL::CompareStringWThunk
PUBLIC	?GetStringTypeExWThunk@ATL@@YGHKKPB_WHPAG@Z	; ATL::GetStringTypeExWThunk
PUBLIC	?lstrcmpiWThunk@ATL@@YGHPB_W0@Z			; ATL::lstrcmpiWThunk
PUBLIC	?CharLowerWThunk@ATL@@YGPA_WPA_W@Z		; ATL::CharLowerWThunk
PUBLIC	?CharUpperWThunk@ATL@@YGPA_WPA_W@Z		; ATL::CharUpperWThunk
EXTRN	?GetThisClass@CBasicWnd@@SGPAUCRuntimeClass@@XZ:NEAR ; CBasicWnd::GetThisClass
EXTRN	?GetThisMessageMap@CBasicWnd@@KGPBUAFX_MSGMAP@@XZ:NEAR ; CBasicWnd::GetThisMessageMap
;	COMDAT ?c_bIsMFCDLLTraits@?$_MFCDLLTraitsCheck@DV?$StrTraitATL@DV?$ChTraitsCRT@D@ATL@@@ATL@@@_CSTRING_IMPL_@ATL@@2_NB
CONST	SEGMENT
?c_bIsMFCDLLTraits@?$_MFCDLLTraitsCheck@DV?$StrTraitATL@DV?$ChTraitsCRT@D@ATL@@@ATL@@@_CSTRING_IMPL_@ATL@@2_NB DB 00H ; ATL::_CSTRING_IMPL_::_MFCDLLTraitsCheck<char,ATL::StrTraitATL<char,ATL::ChTraitsCRT<char> > >::c_bIsMFCDLLTraits
CONST	ENDS
;	COMDAT ?c_bIsMFCDLLTraits@?$_MFCDLLTraitsCheck@_WV?$StrTraitATL@_WV?$ChTraitsCRT@_W@ATL@@@ATL@@@_CSTRING_IMPL_@ATL@@2_NB
CONST	SEGMENT
?c_bIsMFCDLLTraits@?$_MFCDLLTraitsCheck@_WV?$StrTraitATL@_WV?$ChTraitsCRT@_W@ATL@@@ATL@@@_CSTRING_IMPL_@ATL@@2_NB DB 00H ; ATL::_CSTRING_IMPL_::_MFCDLLTraitsCheck<wchar_t,ATL::StrTraitATL<wchar_t,ATL::ChTraitsCRT<wchar_t> > >::c_bIsMFCDLLTraits
CONST	ENDS
CONST	SEGMENT
$SG190893 DB	'WebGamePlayingWnd', 00H
CONST	ENDS
;	COMDAT ?classWebGamePlayingWnd@WebGamePlayingWnd@@2UCRuntimeClass@@B
CONST	SEGMENT
?classWebGamePlayingWnd@WebGamePlayingWnd@@2UCRuntimeClass@@B DD FLAT:$SG190893 ; WebGamePlayingWnd::classWebGamePlayingWnd
	DD	0b8H
	DD	0ffffH
	DD	00H
	DD	FLAT:?GetThisClass@CBasicWnd@@SGPAUCRuntimeClass@@XZ
	DD	00H
	DD	00H
CONST	ENDS
;	COMDAT ?_messageEntries@WebGamePlayingWnd@@0QBUAFX_MSGMAP_ENTRY@@B
CONST	SEGMENT
?_messageEntries@WebGamePlayingWnd@@0QBUAFX_MSGMAP_ENTRY@@B DD 01H ; WebGamePlayingWnd::_messageEntries
	DD	00H
	DD	00H
	DD	00H
	DD	0dH
	DD	FLAT:?OnCreate@WebGamePlayingWnd@@IAEHPAUtagCREATESTRUCTA@@@Z
	DD	02H
	DD	00H
	DD	00H
	DD	00H
	DD	010H
	DD	FLAT:?OnDestroy@WebGamePlayingWnd@@IAEXXZ
	DD	0111H
	DD	00H
	DD	077H
	DD	077H
	DD	035H
	DD	FLAT:?OnClickedFullScreen@WebGamePlayingWnd@@IAEXXZ
	DD	0111H
	DD	00H
	DD	082H
	DD	082H
	DD	035H
	DD	FLAT:?OnClickedGameRight@WebGamePlayingWnd@@IAEXXZ
	DD	00H
	DD	00H
	DD	00H
	DD	00H
	DD	00H
	DD	00H
CONST	ENDS
;	COMDAT ?messageMap@WebGamePlayingWnd@@1UAFX_MSGMAP@@B
CONST	SEGMENT
?messageMap@WebGamePlayingWnd@@1UAFX_MSGMAP@@B DD FLAT:?GetThisMessageMap@CBasicWnd@@KGPBUAFX_MSGMAP@@XZ ; WebGamePlayingWnd::messageMap
	DD	FLAT:?_messageEntries@WebGamePlayingWnd@@0QBUAFX_MSGMAP_ENTRY@@B
CONST	ENDS
CONST	SEGMENT
	ORG $+2
$SG190976 DB	'===IN', 00H
	ORG $+2
$SG190977 DB	'WebGamePlayingWnd::OnCreate', 00H
$SG190978 DB	'WebGamePlayingWnd.txt', 00H
	ORG $+2
$SG190983 DB	'WebGameView', 00H
$SG190985 DB	'WebGameToFull', 00H
	ORG $+2
$SG190987 DB	'WebGameInfo', 00H
$SG190990 DB	'normal', 00H
	ORG $+1
$SG190991 DB	'webgameplaying', 00H
	ORG $+1
$SG190994 DB	'normal', 00H
	ORG $+1
$SG190995 DB	'webgameplaying', 00H
	ORG $+1
$SG190998 DB	'===OUT', 00H
	ORG $+1
$SG190999 DB	'WebGamePlayingWnd::OnCreate', 00H
$SG191000 DB	'WebGamePlayingWnd.txt', 00H
	ORG $+2
$SG191009 DB	'===IN', 00H
	ORG $+2
$SG191010 DB	'WebGamePlayingWnd::Init', 00H
$SG191011 DB	'WebGamePlayingWnd.txt', 00H
	ORG $+2
$SG191014 DB	'WebGameRight', 00H
	ORG $+3
$SG191017 DB	'WebGameRight', 00H
	ORG $+3
$SG191020 DB	'===OUT', 00H
	ORG $+1
$SG191021 DB	'WebGamePlayingWnd::Init', 00H
$SG191022 DB	'WebGamePlayingWnd.txt', 00H
	ORG $+2
$SG191029 DB	'===IN', 00H
	ORG $+2
$SG191030 DB	'WebGamePlayingWnd::SetGameEntry', 00H
$SG191031 DB	'WebGamePlayingWnd.txt', 00H
	ORG $+2
$SG191035 DB	'===OUT', 00H
	ORG $+1
$SG191036 DB	'WebGamePlayingWnd::SetGameEntry', 00H
$SG191037 DB	'WebGamePlayingWnd.txt', 00H
	ORG $+2
$SG191046 DB	'===IN', 00H
	ORG $+2
$SG191047 DB	'WebGamePlayingWnd::OnClickedFullScreen', 00H
	ORG $+1
$SG191048 DB	'WebGamePlayingWnd.txt', 00H
	ORG $+2
$SG191056 DB	'===OUT', 00H
	ORG $+1
$SG191057 DB	'WebGamePlayingWnd::OnClickedFullScreen', 00H
	ORG $+1
$SG191058 DB	'WebGamePlayingWnd.txt', 00H
	ORG $+2
$SG191064 DB	'===IN', 00H
	ORG $+2
$SG191065 DB	'WebGamePlayingWnd::OnDestroy', 00H
	ORG $+3
$SG191066 DB	'WebGamePlayingWnd.txt', 00H
	ORG $+2
$SG191069 DB	'===OUT', 00H
	ORG $+1
$SG191070 DB	'WebGamePlayingWnd::OnDestroy', 00H
	ORG $+3
$SG191071 DB	'WebGamePlayingWnd.txt', 00H
	ORG $+2
$SG191077 DB	'WebGameRight', 00H
	ORG $+3
$SG191081 DB	'WebGameRight', 00H
	ORG $+3
$SG191087 DB	'===IN', 00H
	ORG $+2
$SG191088 DB	'WebGamePlayingWnd::UpdateAllWnd', 00H
$SG191089 DB	'WebGamePlayingWnd.txt', 00H
	ORG $+2
$SG191092 DB	0cdH, 0cbH, 0b3H, 0f6H, 0c8H, 0abH, 0c6H, 0c1H, 00H
	ORG $+3
$SG191094 DB	0bdH, 0f8H, 0c8H, 0ebH, 0c8H, 0abH, 0c6H, 0c1H, 00H
	ORG $+3
$SG191097 DB	'WebGameRight', 00H
	ORG $+3
$SG191099 DB	0b9H, 0d8H, 0b1H, 0d5H, 0cbH, 0b5H, 0c3H, 0f7H, 00H
	ORG $+3
$SG191101 DB	0b4H, 0f2H, 0bfH, 0aaH, 0cbH, 0b5H, 0c3H, 0f7H, 00H
	ORG $+3
$SG191104 DB	'===OUT', 00H
	ORG $+1
$SG191105 DB	'WebGamePlayingWnd::UpdateAllWnd', 00H
$SG191106 DB	'WebGamePlayingWnd.txt', 00H
	ORG $+2
$SG191112 DB	'===IN', 00H
	ORG $+2
$SG191113 DB	'GamePlayingWnd::ILayoutChangeOb_InitFinished', 00H
	ORG $+3
$SG191114 DB	'GamePlayingWnd.txt', 00H
	ORG $+1
$SG191117 DB	'===OUT', 00H
	ORG $+1
$SG191118 DB	'GamePlayingWnd::ILayoutChangeOb_InitFinished', 00H
	ORG $+3
$SG191119 DB	'GamePlayingWnd.txt', 00H
	ORG $+1
$SG191127 DB	'===IN', 00H
	ORG $+2
$SG191128 DB	'GamePlayingWnd::ILayoutChangeOb_SkinChanged', 00H
$SG191129 DB	'GamePlayingWnd.txt', 00H
	ORG $+1
$SG191132 DB	'===OUT', 00H
	ORG $+1
$SG191133 DB	'GamePlayingWnd::ILayoutChangeOb_SkinChanged', 00H
$SG191134 DB	'GamePlayingWnd.txt', 00H
	ORG $+1
$SG191141 DB	'===IN', 00H
	ORG $+2
$SG191142 DB	'GamePlayingWnd::ILayoutChangeOb_UpdateLayout', 00H
	ORG $+3
$SG191143 DB	'GamePlayingWnd.txt', 00H
	ORG $+1
$SG191147 DB	'===OUT', 00H
	ORG $+1
$SG191148 DB	'GamePlayingWnd::ILayoutChangeOb_UpdateLayout', 00H
	ORG $+3
$SG191149 DB	'GamePlayingWnd.txt', 00H
CONST	ENDS
;	COMDAT ?g_pfnGetThreadACP@ATL@@3P6GIXZA
_DATA	SEGMENT
?g_pfnGetThreadACP@ATL@@3P6GIXZA DD FLAT:?_AtlGetThreadACPThunk@ATL@@YGIXZ ; ATL::g_pfnGetThreadACP
_DATA	ENDS
;	COMDAT ?_strthunks@ATL@@3U_AtlStringThunks@1@A
_DATA	SEGMENT
?_strthunks@ATL@@3U_AtlStringThunks@1@A DD FLAT:?CompareStringWThunk@ATL@@YGHKKPB_WH0H@Z ; ATL::_strthunks
	DD	FLAT:?GetStringTypeExWThunk@ATL@@YGHKKPB_WHPAG@Z
	DD	FLAT:?lstrcmpiWThunk@ATL@@YGHPB_W0@Z
	DD	FLAT:?CharLowerWThunk@ATL@@YGPA_WPA_W@Z
	DD	FLAT:?CharUpperWThunk@ATL@@YGPA_WPA_W@Z
	DD	FLAT:?GetEnvironmentVariableWThunk@ATL@@YGKPB_WPA_WK@Z
_DATA	ENDS
CONST	SEGMENT
	ORG $+1
_ID_MESSAGE_LAYOUTMGR DD 08H
_ID_DATA_PANELCHANGE DD 05H
CONST	ENDS
PUBLIC	?InterlockedExchangePointer@@YGPAXPAPAXPAX@Z	; InterlockedExchangePointer
PUBLIC	?_AtlGetThreadACPFake@ATL@@YGIXZ		; ATL::_AtlGetThreadACPFake
PUBLIC	?_AtlGetThreadACPReal@ATL@@YGIXZ		; ATL::_AtlGetThreadACPReal
EXTRN	__imp__GetVersionExA@4:NEAR
EXTRN	__RTC_InitBase:NEAR
EXTRN	__RTC_Shutdown:NEAR
EXTRN	__RTC_CheckEsp:NEAR
EXTRN	___security_cookie:DWORD
EXTRN	@_RTC_CheckStackVars@8:NEAR
EXTRN	@__security_check_cookie@4:NEAR
;	COMDAT rtc$IMZ
; File d:\program files (x86)\microsoft visual studio .net 2003\vc7\atlmfc\include\atlconv.h
rtc$IMZ	SEGMENT
__RTC_InitBase.rtc$IMZ DD FLAT:__RTC_InitBase
rtc$IMZ	ENDS
;	COMDAT rtc$TMZ
rtc$TMZ	SEGMENT
__RTC_Shutdown.rtc$TMZ DD FLAT:__RTC_Shutdown
; Function compile flags: /Odt /RTCsu
rtc$TMZ	ENDS
;	COMDAT ?_AtlGetThreadACPThunk@ATL@@YGIXZ
_TEXT	SEGMENT
_pfnGetThreadACP$ = -164				; size = 4
_ver$ = -156						; size = 148
__$ArrayPad$ = -4					; size = 4
__$ReturnAddr$ = 4					; size = 4
?_AtlGetThreadACPThunk@ATL@@YGIXZ PROC NEAR		; ATL::_AtlGetThreadACPThunk, COMDAT

; 134  : {

  00000	55		 push	 ebp
  00001	8b ec		 mov	 ebp, esp
  00003	81 ec a4 00 00
	00		 sub	 esp, 164		; 000000a4H
  00009	56		 push	 esi
  0000a	57		 push	 edi
  0000b	8d bd 5c ff ff
	ff		 lea	 edi, DWORD PTR [ebp-164]
  00011	b9 29 00 00 00	 mov	 ecx, 41			; 00000029H
  00016	b8 cc cc cc cc	 mov	 eax, -858993460		; ccccccccH
  0001b	f3 ab		 rep stosd
  0001d	a1 00 00 00 00	 mov	 eax, DWORD PTR ___security_cookie
  00022	89 45 fc	 mov	 DWORD PTR __$ArrayPad$[ebp], eax

; 135  : 	OSVERSIONINFO ver;
; 136  : 	ATLGETTHREADACP pfnGetThreadACP;
; 137  : 
; 138  : 	ver.dwOSVersionInfoSize = sizeof( ver );

  00025	c7 85 64 ff ff
	ff 94 00 00 00	 mov	 DWORD PTR _ver$[ebp], 148 ; 00000094H

; 139  : 	::GetVersionEx( &ver );

  0002f	8b f4		 mov	 esi, esp
  00031	8d 85 64 ff ff
	ff		 lea	 eax, DWORD PTR _ver$[ebp]
  00037	50		 push	 eax
  00038	ff 15 00 00 00
	00		 call	 DWORD PTR __imp__GetVersionExA@4
  0003e	3b f4		 cmp	 esi, esp
  00040	e8 00 00 00 00	 call	 __RTC_CheckEsp

; 140  : 	if( (ver.dwPlatformId == VER_PLATFORM_WIN32_NT) && (ver.dwMajorVersion >= 5) )

  00045	83 bd 74 ff ff
	ff 02		 cmp	 DWORD PTR _ver$[ebp+16], 2
  0004c	75 15		 jne	 SHORT $L24163
  0004e	83 bd 68 ff ff
	ff 05		 cmp	 DWORD PTR _ver$[ebp+4], 5
  00055	72 0c		 jb	 SHORT $L24163

; 141  : 	{
; 142  : 		// On Win2K, CP_THREAD_ACP is supported
; 143  : 		pfnGetThreadACP = _AtlGetThreadACPReal;

  00057	c7 85 5c ff ff
	ff 00 00 00 00	 mov	 DWORD PTR _pfnGetThreadACP$[ebp], OFFSET FLAT:?_AtlGetThreadACPReal@ATL@@YGIXZ ; ATL::_AtlGetThreadACPReal

; 144  : 	}
; 145  : 	else

  00061	eb 0a		 jmp	 SHORT $L24164
$L24163:

; 146  : 	{
; 147  : 		pfnGetThreadACP = _AtlGetThreadACPFake;

  00063	c7 85 5c ff ff
	ff 00 00 00 00	 mov	 DWORD PTR _pfnGetThreadACP$[ebp], OFFSET FLAT:?_AtlGetThreadACPFake@ATL@@YGIXZ ; ATL::_AtlGetThreadACPFake
$L24164:

; 148  : 	}
; 149  : 	InterlockedExchangePointer( reinterpret_cast< void** >(&g_pfnGetThreadACP), pfnGetThreadACP );

  0006d	8b 8d 5c ff ff
	ff		 mov	 ecx, DWORD PTR _pfnGetThreadACP$[ebp]
  00073	51		 push	 ecx
  00074	68 00 00 00 00	 push	 OFFSET FLAT:?g_pfnGetThreadACP@ATL@@3P6GIXZA ; ATL::g_pfnGetThreadACP
  00079	e8 00 00 00 00	 call	 ?InterlockedExchangePointer@@YGPAXPAPAXPAX@Z ; InterlockedExchangePointer

; 150  : 
; 151  : 	return( g_pfnGetThreadACP() );

  0007e	8b f4		 mov	 esi, esp
  00080	ff 15 00 00 00
	00		 call	 DWORD PTR ?g_pfnGetThreadACP@ATL@@3P6GIXZA ; ATL::g_pfnGetThreadACP
  00086	3b f4		 cmp	 esi, esp
  00088	e8 00 00 00 00	 call	 __RTC_CheckEsp

; 152  : }

  0008d	52		 push	 edx
  0008e	8b cd		 mov	 ecx, ebp
  00090	50		 push	 eax
  00091	8d 15 00 00 00
	00		 lea	 edx, DWORD PTR $L192006
  00097	e8 00 00 00 00	 call	 @_RTC_CheckStackVars@8
  0009c	58		 pop	 eax
  0009d	5a		 pop	 edx
  0009e	8b 4d fc	 mov	 ecx, DWORD PTR __$ArrayPad$[ebp]
  000a1	e8 00 00 00 00	 call	 @__security_check_cookie@4
  000a6	5f		 pop	 edi
  000a7	5e		 pop	 esi
  000a8	81 c4 a4 00 00
	00		 add	 esp, 164		; 000000a4H
  000ae	3b ec		 cmp	 ebp, esp
  000b0	e8 00 00 00 00	 call	 __RTC_CheckEsp
  000b5	8b e5		 mov	 esp, ebp
  000b7	5d		 pop	 ebp
  000b8	c3		 ret	 0
$L192006:
  000b9	01 00 00 00	 DD	 1
  000bd	00 00 00 00	 DD	 $L192005
$L192005:
  000c1	64 ff ff ff	 DD	 -156			; ffffff64H
  000c5	94 00 00 00	 DD	 148			; 00000094H
  000c9	00 00 00 00	 DD	 $L192002
$L192002:
  000cd	76		 DB	 118			; 00000076H
  000ce	65		 DB	 101			; 00000065H
  000cf	72		 DB	 114			; 00000072H
  000d0	00		 DB	 0
?_AtlGetThreadACPThunk@ATL@@YGIXZ ENDP			; ATL::_AtlGetThreadACPThunk
_TEXT	ENDS
EXTRN	__imp__InterlockedExchange@8:NEAR
; Function compile flags: /Odt /RTCsu
;	COMDAT ?InterlockedExchangePointer@@YGPAXPAPAXPAX@Z
_TEXT	SEGMENT
_pp$ = 8						; size = 4
_pNew$ = 12						; size = 4
?InterlockedExchangePointer@@YGPAXPAPAXPAX@Z PROC NEAR	; InterlockedExchangePointer, COMDAT

; 91   : {

  00000	55		 push	 ebp
  00001	8b ec		 mov	 ebp, esp
  00003	56		 push	 esi

; 92   : 	return( reinterpret_cast<void*>(static_cast<LONG_PTR>(::InterlockedExchange(reinterpret_cast<LONG*>(pp), static_cast<LONG>(reinterpret_cast<LONG_PTR>(pNew))))) );

  00004	8b f4		 mov	 esi, esp
  00006	8b 45 0c	 mov	 eax, DWORD PTR _pNew$[ebp]
  00009	50		 push	 eax
  0000a	8b 4d 08	 mov	 ecx, DWORD PTR _pp$[ebp]
  0000d	51		 push	 ecx
  0000e	ff 15 00 00 00
	00		 call	 DWORD PTR __imp__InterlockedExchange@8
  00014	3b f4		 cmp	 esi, esp
  00016	e8 00 00 00 00	 call	 __RTC_CheckEsp

; 93   : }

  0001b	5e		 pop	 esi
  0001c	3b ec		 cmp	 ebp, esp
  0001e	e8 00 00 00 00	 call	 __RTC_CheckEsp
  00023	5d		 pop	 ebp
  00024	c2 08 00	 ret	 8
?InterlockedExchangePointer@@YGPAXPAPAXPAX@Z ENDP	; InterlockedExchangePointer
_TEXT	ENDS
EXTRN	__imp__GetACP@0:NEAR
EXTRN	__imp__GetLocaleInfoA@16:NEAR
EXTRN	__imp__GetThreadLocale@0:NEAR
; Function compile flags: /Odt /RTCsu
;	COMDAT ?_AtlGetThreadACPFake@ATL@@YGIXZ
_TEXT	SEGMENT
_pch$24151 = -32					; size = 4
_szACP$ = -24						; size = 7
_lcidThread$ = -12					; size = 4
_nACP$ = -8						; size = 4
__$ArrayPad$ = -4					; size = 4
__$ReturnAddr$ = 4					; size = 4
?_AtlGetThreadACPFake@ATL@@YGIXZ PROC NEAR		; ATL::_AtlGetThreadACPFake, COMDAT

; 101  : {

  00000	55		 push	 ebp
  00001	8b ec		 mov	 ebp, esp
  00003	83 ec 20	 sub	 esp, 32			; 00000020H
  00006	56		 push	 esi
  00007	b8 cc cc cc cc	 mov	 eax, -858993460		; ccccccccH
  0000c	89 45 e0	 mov	 DWORD PTR [ebp-32], eax
  0000f	89 45 e4	 mov	 DWORD PTR [ebp-28], eax
  00012	89 45 e8	 mov	 DWORD PTR [ebp-24], eax
  00015	89 45 ec	 mov	 DWORD PTR [ebp-20], eax
  00018	89 45 f0	 mov	 DWORD PTR [ebp-16], eax
  0001b	89 45 f4	 mov	 DWORD PTR [ebp-12], eax
  0001e	89 45 f8	 mov	 DWORD PTR [ebp-8], eax
  00021	89 45 fc	 mov	 DWORD PTR [ebp-4], eax
  00024	a1 00 00 00 00	 mov	 eax, DWORD PTR ___security_cookie
  00029	89 45 fc	 mov	 DWORD PTR __$ArrayPad$[ebp], eax

; 102  : 	UINT nACP = 0;

  0002c	c7 45 f8 00 00
	00 00		 mov	 DWORD PTR _nACP$[ebp], 0

; 103  : 
; 104  : 	LCID lcidThread = ::GetThreadLocale();

  00033	8b f4		 mov	 esi, esp
  00035	ff 15 00 00 00
	00		 call	 DWORD PTR __imp__GetThreadLocale@0
  0003b	3b f4		 cmp	 esi, esp
  0003d	e8 00 00 00 00	 call	 __RTC_CheckEsp
  00042	89 45 f4	 mov	 DWORD PTR _lcidThread$[ebp], eax

; 105  : 
; 106  : 	char szACP[7];
; 107  : 	// GetLocaleInfoA will fail for a Unicode-only LCID, but those are only supported on 
; 108  : 	// Windows 2000.  Since Windows 2000 supports CP_THREAD_ACP, this code path is never
; 109  : 	// executed on Windows 2000.
; 110  : 	if (::GetLocaleInfoA(lcidThread, LOCALE_IDEFAULTANSICODEPAGE, szACP, 7) != 0)

  00045	8b f4		 mov	 esi, esp
  00047	6a 07		 push	 7
  00049	8d 45 e8	 lea	 eax, DWORD PTR _szACP$[ebp]
  0004c	50		 push	 eax
  0004d	68 04 10 00 00	 push	 4100			; 00001004H
  00052	8b 4d f4	 mov	 ecx, DWORD PTR _lcidThread$[ebp]
  00055	51		 push	 ecx
  00056	ff 15 00 00 00
	00		 call	 DWORD PTR __imp__GetLocaleInfoA@16
  0005c	3b f4		 cmp	 esi, esp
  0005e	e8 00 00 00 00	 call	 __RTC_CheckEsp
  00063	85 c0		 test	 eax, eax
  00065	74 34		 je	 SHORT $L24150

; 111  : 	{
; 112  : 		char* pch = szACP;

  00067	8d 55 e8	 lea	 edx, DWORD PTR _szACP$[ebp]
  0006a	89 55 e0	 mov	 DWORD PTR _pch$24151[ebp], edx
$L24153:

; 113  : 		while (*pch != '\0')

  0006d	8b 45 e0	 mov	 eax, DWORD PTR _pch$24151[ebp]
  00070	0f be 08	 movsx	 ecx, BYTE PTR [eax]
  00073	85 c9		 test	 ecx, ecx
  00075	74 24		 je	 SHORT $L24150

; 114  : 		{
; 115  : 			nACP *= 10;

  00077	8b 55 f8	 mov	 edx, DWORD PTR _nACP$[ebp]
  0007a	6b d2 0a	 imul	 edx, 10			; 0000000aH
  0007d	89 55 f8	 mov	 DWORD PTR _nACP$[ebp], edx

; 116  : 			nACP += *pch++ - '0';

  00080	8b 45 e0	 mov	 eax, DWORD PTR _pch$24151[ebp]
  00083	0f be 08	 movsx	 ecx, BYTE PTR [eax]
  00086	8b 55 f8	 mov	 edx, DWORD PTR _nACP$[ebp]
  00089	8d 44 0a d0	 lea	 eax, DWORD PTR [edx+ecx-48]
  0008d	89 45 f8	 mov	 DWORD PTR _nACP$[ebp], eax
  00090	8b 4d e0	 mov	 ecx, DWORD PTR _pch$24151[ebp]
  00093	83 c1 01	 add	 ecx, 1
  00096	89 4d e0	 mov	 DWORD PTR _pch$24151[ebp], ecx

; 117  : 		}

  00099	eb d2		 jmp	 SHORT $L24153
$L24150:

; 118  : 	}
; 119  : 	// Use the Default ANSI Code Page if we were unable to get the thread ACP or if one does not exist.
; 120  : 	if (nACP == 0)

  0009b	83 7d f8 00	 cmp	 DWORD PTR _nACP$[ebp], 0
  0009f	75 12		 jne	 SHORT $L24155

; 121  : 		nACP = ::GetACP();

  000a1	8b f4		 mov	 esi, esp
  000a3	ff 15 00 00 00
	00		 call	 DWORD PTR __imp__GetACP@0
  000a9	3b f4		 cmp	 esi, esp
  000ab	e8 00 00 00 00	 call	 __RTC_CheckEsp
  000b0	89 45 f8	 mov	 DWORD PTR _nACP$[ebp], eax
$L24155:

; 122  : 
; 123  : 	return nACP;

  000b3	8b 45 f8	 mov	 eax, DWORD PTR _nACP$[ebp]

; 124  : }

  000b6	52		 push	 edx
  000b7	8b cd		 mov	 ecx, ebp
  000b9	50		 push	 eax
  000ba	8d 15 00 00 00
	00		 lea	 edx, DWORD PTR $L192017
  000c0	e8 00 00 00 00	 call	 @_RTC_CheckStackVars@8
  000c5	58		 pop	 eax
  000c6	5a		 pop	 edx
  000c7	8b 4d fc	 mov	 ecx, DWORD PTR __$ArrayPad$[ebp]
  000ca	e8 00 00 00 00	 call	 @__security_check_cookie@4
  000cf	5e		 pop	 esi
  000d0	83 c4 20	 add	 esp, 32			; 00000020H
  000d3	3b ec		 cmp	 ebp, esp
  000d5	e8 00 00 00 00	 call	 __RTC_CheckEsp
  000da	8b e5		 mov	 esp, ebp
  000dc	5d		 pop	 ebp
  000dd	c3		 ret	 0
$L192017:
  000de	01 00 00 00	 DD	 1
  000e2	00 00 00 00	 DD	 $L192016
$L192016:
  000e6	e8 ff ff ff	 DD	 -24			; ffffffe8H
  000ea	07 00 00 00	 DD	 7
  000ee	00 00 00 00	 DD	 $L192014
$L192014:
  000f2	73		 DB	 115			; 00000073H
  000f3	7a		 DB	 122			; 0000007aH
  000f4	41		 DB	 65			; 00000041H
  000f5	43		 DB	 67			; 00000043H
  000f6	50		 DB	 80			; 00000050H
  000f7	00		 DB	 0
?_AtlGetThreadACPFake@ATL@@YGIXZ ENDP			; ATL::_AtlGetThreadACPFake
; Function compile flags: /Odt /RTCsu
_TEXT	ENDS
;	COMDAT ?_AtlGetThreadACPReal@ATL@@YGIXZ
_TEXT	SEGMENT
?_AtlGetThreadACPReal@ATL@@YGIXZ PROC NEAR		; ATL::_AtlGetThreadACPReal, COMDAT

; 127  : {

  00000	55		 push	 ebp
  00001	8b ec		 mov	 ebp, esp

; 128  : 	return( CP_THREAD_ACP );

  00003	b8 03 00 00 00	 mov	 eax, 3

; 129  : }

  00008	5d		 pop	 ebp
  00009	c3		 ret	 0
?_AtlGetThreadACPReal@ATL@@YGIXZ ENDP			; ATL::_AtlGetThreadACPReal
_TEXT	ENDS
PUBLIC	?GetThisClass@WebGamePlayingWnd@@SGPAUCRuntimeClass@@XZ ; WebGamePlayingWnd::GetThisClass
; Function compile flags: /Odt /RTCsu
; File d:\boxgit\playbox\playbox\dev\prj\playbox\src\module\gamepanel\webgameplayingwnd.cpp
_TEXT	SEGMENT
?GetThisClass@WebGamePlayingWnd@@SGPAUCRuntimeClass@@XZ PROC NEAR ; WebGamePlayingWnd::GetThisClass

; 17   : IMPLEMENT_DYNAMIC(WebGamePlayingWnd, CBasicWnd)

  00000	55		 push	 ebp
  00001	8b ec		 mov	 ebp, esp
  00003	b8 00 00 00 00	 mov	 eax, OFFSET FLAT:?classWebGamePlayingWnd@WebGamePlayingWnd@@2UCRuntimeClass@@B ; WebGamePlayingWnd::classWebGamePlayingWnd
  00008	5d		 pop	 ebp
  00009	c3		 ret	 0
?GetThisClass@WebGamePlayingWnd@@SGPAUCRuntimeClass@@XZ ENDP ; WebGamePlayingWnd::GetThisClass
_TEXT	ENDS
PUBLIC	?GetRuntimeClass@WebGamePlayingWnd@@UBEPAUCRuntimeClass@@XZ ; WebGamePlayingWnd::GetRuntimeClass
; Function compile flags: /Odt /RTCsu
_TEXT	SEGMENT
_this$ = -4						; size = 4
?GetRuntimeClass@WebGamePlayingWnd@@UBEPAUCRuntimeClass@@XZ PROC NEAR ; WebGamePlayingWnd::GetRuntimeClass
; _this$ = ecx

; 17   : IMPLEMENT_DYNAMIC(WebGamePlayingWnd, CBasicWnd)

  00010	55		 push	 ebp
  00011	8b ec		 mov	 ebp, esp
  00013	51		 push	 ecx
  00014	c7 45 fc cc cc
	cc cc		 mov	 DWORD PTR [ebp-4], -858993460 ; ccccccccH
  0001b	89 4d fc	 mov	 DWORD PTR _this$[ebp], ecx
  0001e	b8 00 00 00 00	 mov	 eax, OFFSET FLAT:?classWebGamePlayingWnd@WebGamePlayingWnd@@2UCRuntimeClass@@B ; WebGamePlayingWnd::classWebGamePlayingWnd
  00023	8b e5		 mov	 esp, ebp
  00025	5d		 pop	 ebp
  00026	c3		 ret	 0
?GetRuntimeClass@WebGamePlayingWnd@@UBEPAUCRuntimeClass@@XZ ENDP ; WebGamePlayingWnd::GetRuntimeClass
_TEXT	ENDS
PUBLIC	??0WEB_GAME@@QAE@XZ				; WEB_GAME::WEB_GAME
PUBLIC	??1WEB_GAME@@QAE@XZ				; WEB_GAME::~WEB_GAME
PUBLIC	??_R1A@?0A@A@CWnd@@8				; CWnd::`RTTI Base Class Descriptor at (0,-1,0,0)'
PUBLIC	??_R0?AVCWnd@@@8				; CWnd `RTTI Type Descriptor'
PUBLIC	??_R1A@?0A@A@CCmdTarget@@8			; CCmdTarget::`RTTI Base Class Descriptor at (0,-1,0,0)'
PUBLIC	??_R0?AVCCmdTarget@@@8				; CCmdTarget `RTTI Type Descriptor'
PUBLIC	??_R1A@?0A@A@CObject@@8				; CObject::`RTTI Base Class Descriptor at (0,-1,0,0)'
PUBLIC	??_R0?AVCObject@@@8				; CObject `RTTI Type Descriptor'
PUBLIC	??_R0?AVIMessageObserver@@@8			; IMessageObserver `RTTI Type Descriptor'
PUBLIC	?ILayoutChangeOb_LayerChanged@ILayoutChangeObserver@@UAEXV?$basic_string@DU?$char_traits@D@std@@V?$allocator@D@2@@std@@00@Z ; ILayoutChangeObserver::ILayoutChangeOb_LayerChanged
PUBLIC	?ILayoutChangeOb_PaneChanged@ILayoutChangeObserver@@UAEXV?$basic_string@DU?$char_traits@D@std@@V?$allocator@D@2@@std@@0@Z ; ILayoutChangeObserver::ILayoutChangeOb_PaneChanged
PUBLIC	?ILayoutChangeOb_ColorChanged@ILayoutChangeObserver@@UAEXXZ ; ILayoutChangeObserver::ILayoutChangeOb_ColorChanged
PUBLIC	?ILayoutChangeOb_ColorChanging@ILayoutChangeObserver@@UAEXXZ ; ILayoutChangeObserver::ILayoutChangeOb_ColorChanging
PUBLIC	?ILayoutChangeOb_InitBegin@ILayoutChangeObserver@@UAEXXZ ; ILayoutChangeObserver::ILayoutChangeOb_InitBegin
PUBLIC	??0ILayoutChangeObserver@@QAE@XZ		; ILayoutChangeObserver::ILayoutChangeObserver
PUBLIC	??1ILayoutChangeObserver@@UAE@XZ		; ILayoutChangeObserver::~ILayoutChangeObserver
PUBLIC	??0WebGamePlayingWnd@@QAE@XZ			; WebGamePlayingWnd::WebGamePlayingWnd
PUBLIC	?GetMessageMap@WebGamePlayingWnd@@MBEPBUAFX_MSGMAP@@XZ ; WebGamePlayingWnd::GetMessageMap
PUBLIC	?ILayoutChangeOb_InitFinished@WebGamePlayingWnd@@UAEXXZ ; WebGamePlayingWnd::ILayoutChangeOb_InitFinished
PUBLIC	?ILayoutChangeOb_SkinChanged@WebGamePlayingWnd@@UAEXV?$basic_string@DU?$char_traits@D@std@@V?$allocator@D@2@@std@@0@Z ; WebGamePlayingWnd::ILayoutChangeOb_SkinChanged
PUBLIC	?ILayoutChangeOb_UpdateLayout@WebGamePlayingWnd@@UAEXPAUHWND__@@@Z ; WebGamePlayingWnd::ILayoutChangeOb_UpdateLayout
PUBLIC	??_7WebGamePlayingWnd@@6BCBasicWnd@@@		; WebGamePlayingWnd::`vftable'
PUBLIC	??_7WebGamePlayingWnd@@6BILayoutChangeObserver@@@ ; WebGamePlayingWnd::`vftable'
PUBLIC	??_GWebGamePlayingWnd@@UAEPAXI@Z		; WebGamePlayingWnd::`scalar deleting destructor'
PUBLIC	??_R0?AVILayoutChangeObserver@@@8		; ILayoutChangeObserver `RTTI Type Descriptor'
PUBLIC	??_R4WebGamePlayingWnd@@6BCBasicWnd@@@		; WebGamePlayingWnd::`RTTI Complete Object Locator'
PUBLIC	??_R0?AVWebGamePlayingWnd@@@8			; WebGamePlayingWnd `RTTI Type Descriptor'
PUBLIC	??_R3WebGamePlayingWnd@@8			; WebGamePlayingWnd::`RTTI Class Hierarchy Descriptor'
PUBLIC	??_R2WebGamePlayingWnd@@8			; WebGamePlayingWnd::`RTTI Base Class Array'
PUBLIC	??_R1A@?0A@A@WebGamePlayingWnd@@8		; WebGamePlayingWnd::`RTTI Base Class Descriptor at (0,-1,0,0)'
PUBLIC	??_R1A@?0A@A@CBasicWnd@@8			; CBasicWnd::`RTTI Base Class Descriptor at (0,-1,0,0)'
PUBLIC	??_R0?AVCBasicWnd@@@8				; CBasicWnd `RTTI Type Descriptor'
PUBLIC	??_R1FE@?0A@A@ILayoutChangeObserver@@8		; ILayoutChangeObserver::`RTTI Base Class Descriptor at (84,-1,0,0)'
PUBLIC	??_R1FE@?0A@A@IMessageObserver@@8		; IMessageObserver::`RTTI Base Class Descriptor at (84,-1,0,0)'
PUBLIC	??_EWebGamePlayingWnd@@WFE@AEPAXI@Z		; [thunk]:WebGamePlayingWnd::`vector deleting destructor'
PUBLIC	??_R4WebGamePlayingWnd@@6BILayoutChangeObserver@@@ ; WebGamePlayingWnd::`RTTI Complete Object Locator'
EXTRN	?GetInterfaceMap@CWnd@@MBEPBUAFX_INTERFACEMAP@@XZ:NEAR ; CWnd::GetInterfaceMap
EXTRN	?EnsureStdObj@CWnd@@UAEJXZ:NEAR			; CWnd::EnsureStdObj
EXTRN	?get_accParent@CWnd@@UAEJPAPAUIDispatch@@@Z:NEAR ; CWnd::get_accParent
EXTRN	?OnCmdMsg@CCmdTarget@@UAEHIHPAXPAUAFX_CMDHANDLERINFO@@@Z:NEAR ; CCmdTarget::OnCmdMsg
EXTRN	?get_accChildCount@CWnd@@UAEJPAJ@Z:NEAR		; CWnd::get_accChildCount
EXTRN	?IsInvokeAllowed@CCmdTarget@@UAEHJ@Z:NEAR	; CCmdTarget::IsInvokeAllowed
EXTRN	?get_accChild@CWnd@@UAEJUtagVARIANT@@PAPAUIDispatch@@@Z:NEAR ; CWnd::get_accChild
EXTRN	?get_accName@CWnd@@UAEJUtagVARIANT@@PAPA_W@Z:NEAR ; CWnd::get_accName
EXTRN	?get_accValue@CWnd@@UAEJUtagVARIANT@@PAPA_W@Z:NEAR ; CWnd::get_accValue
EXTRN	?GetDispatchIID@CCmdTarget@@UAEHPAU_GUID@@@Z:NEAR ; CCmdTarget::GetDispatchIID
EXTRN	?GetTypeInfoCount@CCmdTarget@@UAEIXZ:NEAR	; CCmdTarget::GetTypeInfoCount
EXTRN	?GetTypeLibCache@CCmdTarget@@UAEPAVCTypeLibCache@@XZ:NEAR ; CCmdTarget::GetTypeLibCache
EXTRN	?get_accDescription@CWnd@@UAEJUtagVARIANT@@PAPA_W@Z:NEAR ; CWnd::get_accDescription
EXTRN	?AfxGetMessageManager@@YAPAVIMessageManager@@XZ:NEAR ; AfxGetMessageManager
EXTRN	?GetTypeLib@CCmdTarget@@UAEJKPAPAUITypeLib@@@Z:NEAR ; CCmdTarget::GetTypeLib
EXTRN	?get_accRole@CWnd@@UAEJUtagVARIANT@@PAU2@@Z:NEAR ; CWnd::get_accRole
EXTRN	?get_accState@CWnd@@UAEJUtagVARIANT@@PAU2@@Z:NEAR ; CWnd::get_accState
EXTRN	?get_accHelp@CWnd@@UAEJUtagVARIANT@@PAPA_W@Z:NEAR ; CWnd::get_accHelp
EXTRN	?get_accHelpTopic@CWnd@@UAEJPAPA_WUtagVARIANT@@PAJ@Z:NEAR ; CWnd::get_accHelpTopic
EXTRN	?get_accKeyboardShortcut@CWnd@@UAEJUtagVARIANT@@PAPA_W@Z:NEAR ; CWnd::get_accKeyboardShortcut
EXTRN	?get_accFocus@CWnd@@UAEJPAUtagVARIANT@@@Z:NEAR	; CWnd::get_accFocus
EXTRN	?get_accSelection@CWnd@@UAEJPAUtagVARIANT@@@Z:NEAR ; CWnd::get_accSelection
EXTRN	?get_accDefaultAction@CWnd@@UAEJUtagVARIANT@@PAPA_W@Z:NEAR ; CWnd::get_accDefaultAction
EXTRN	?GetCommandMap@CCmdTarget@@MBEPBUAFX_OLECMDMAP@@XZ:NEAR ; CCmdTarget::GetCommandMap
EXTRN	?accSelect@CWnd@@UAEJJUtagVARIANT@@@Z:NEAR	; CWnd::accSelect
EXTRN	?accLocation@CWnd@@UAEJPAJ000UtagVARIANT@@@Z:NEAR ; CWnd::accLocation
EXTRN	?GetDispatchMap@CCmdTarget@@MBEPBUAFX_DISPMAP@@XZ:NEAR ; CCmdTarget::GetDispatchMap
EXTRN	?accNavigate@CWnd@@UAEJJUtagVARIANT@@PAU2@@Z:NEAR ; CWnd::accNavigate
EXTRN	?accHitTest@CWnd@@UAEJJJPAUtagVARIANT@@@Z:NEAR	; CWnd::accHitTest
EXTRN	?GetConnectionMap@CCmdTarget@@MBEPBUAFX_CONNECTIONMAP@@XZ:NEAR ; CCmdTarget::GetConnectionMap
EXTRN	?accDoDefaultAction@CWnd@@UAEJUtagVARIANT@@@Z:NEAR ; CWnd::accDoDefaultAction
EXTRN	?put_accName@CWnd@@UAEJUtagVARIANT@@PA_W@Z:NEAR	; CWnd::put_accName
EXTRN	?put_accValue@CWnd@@UAEJUtagVARIANT@@PA_W@Z:NEAR ; CWnd::put_accValue
EXTRN	?SetProxy@CWnd@@UAEJPAUIAccessibleProxy@@@Z:NEAR ; CWnd::SetProxy
EXTRN	?CreateAccessibleProxy@CWnd@@UAEJIJPAJ@Z:NEAR	; CWnd::CreateAccessibleProxy
EXTRN	?GetEventSinkMap@CCmdTarget@@MBEPBUAFX_EVENTSINKMAP@@XZ:NEAR ; CCmdTarget::GetEventSinkMap
EXTRN	?OnCreateAggregates@CCmdTarget@@UAEHXZ:NEAR	; CCmdTarget::OnCreateAggregates
EXTRN	?OnCommand@CWnd@@MAEHIJ@Z:NEAR			; CWnd::OnCommand
EXTRN	?GetInterfaceHook@CCmdTarget@@UAEPAUIUnknown@@PBX@Z:NEAR ; CCmdTarget::GetInterfaceHook
EXTRN	?OnNotify@CWnd@@MAEHIJPAJ@Z:NEAR		; CWnd::OnNotify
EXTRN	?GetExtraConnectionPoints@CCmdTarget@@MAEHPAVCPtrArray@@@Z:NEAR ; CCmdTarget::GetExtraConnectionPoints
EXTRN	?GetConnectionHook@CCmdTarget@@MAEPAUIConnectionPoint@@ABU_GUID@@@Z:NEAR ; CCmdTarget::GetConnectionHook
EXTRN	??0MyWebBrowserWnd@@QAE@H@Z:NEAR		; MyWebBrowserWnd::MyWebBrowserWnd
EXTRN	??0CxSkinButton@@QAE@XZ:NEAR			; CxSkinButton::CxSkinButton
EXTRN	?PreSubclassWindow@CWnd@@UAEXXZ:NEAR		; CWnd::PreSubclassWindow
EXTRN	?Create@CWnd@@UAEHPBD0KABUtagRECT@@PAV1@IPAUCCreateContext@@@Z:NEAR ; CWnd::Create
EXTRN	?CreateEx@CWnd@@UAEHKPBD0KHHHHPAUHWND__@@PAUHMENU__@@PAX@Z:NEAR ; CWnd::CreateEx
EXTRN	?CreateEx@CWnd@@UAEHKPBD0KABUtagRECT@@PAV1@IPAX@Z:NEAR ; CWnd::CreateEx
EXTRN	??2CObject@@SGPAXI@Z:NEAR			; CObject::operator new
EXTRN	??3CObject@@SGXPAX@Z:NEAR			; CObject::operator delete
EXTRN	?Serialize@CObject@@UAEXAAVCArchive@@@Z:NEAR	; CObject::Serialize
EXTRN	?DestroyWindow@CWnd@@UAEHXZ:NEAR		; CWnd::DestroyWindow
EXTRN	?PreCreateWindow@CWnd@@UAEHAAUtagCREATESTRUCTA@@@Z:NEAR ; CWnd::PreCreateWindow
EXTRN	?CalcWindowRect@CWnd@@UAEXPAUtagRECT@@I@Z:NEAR	; CWnd::CalcWindowRect
EXTRN	__except_list:DWORD
EXTRN	___CxxFrameHandler:NEAR
EXTRN	?GetSuperWndProcAddr@CWnd@@MAEPAP6GJPAUHWND__@@IIJ@ZXZ:NEAR ; CWnd::GetSuperWndProcAddr
EXTRN	?DoDataExchange@CWnd@@MAEXPAVCDataExchange@@@Z:NEAR ; CWnd::DoDataExchange
EXTRN	?BeginModalState@CWnd@@UAEXXZ:NEAR		; CWnd::BeginModalState
EXTRN	?EndModalState@CWnd@@UAEXXZ:NEAR		; CWnd::EndModalState
EXTRN	?PreTranslateMessage@CWnd@@UAEHPAUtagMSG@@@Z:NEAR ; CWnd::PreTranslateMessage
EXTRN	?OnAmbientProperty@CWnd@@UAEHPAVCOleControlSite@@JPAUtagVARIANT@@@Z:NEAR ; CWnd::OnAmbientProperty
EXTRN	?WindowProc@CWnd@@MAEJIIJ@Z:NEAR		; CWnd::WindowProc
EXTRN	?OnWndMsg@CWnd@@MAEHIIJPAJ@Z:NEAR		; CWnd::OnWndMsg
EXTRN	?DefWindowProcA@CWnd@@MAEJIIJ@Z:NEAR		; CWnd::DefWindowProcA
EXTRN	?PostNcDestroy@CWnd@@MAEXXZ:NEAR		; CWnd::PostNcDestroy
EXTRN	?OnChildNotify@CWnd@@MAEHIIJPAJ@Z:NEAR		; CWnd::OnChildNotify
EXTRN	?CheckAutoCenter@CWnd@@UAEHXZ:NEAR		; CWnd::CheckAutoCenter
EXTRN	?AssertValid@CWnd@@UBEXXZ:NEAR			; CWnd::AssertValid
EXTRN	?Dump@CWnd@@UBEXAAVCDumpContext@@@Z:NEAR	; CWnd::Dump
EXTRN	??0CBasicWnd@@QAE@XZ:NEAR			; CBasicWnd::CBasicWnd
EXTRN	??1CBasicWnd@@UAE@XZ:NEAR			; CBasicWnd::~CBasicWnd
EXTRN	?IsFrameWnd@CWnd@@UBEHXZ:NEAR			; CWnd::IsFrameWnd
EXTRN	?OnFinalRelease@CWnd@@UAEXXZ:NEAR		; CWnd::OnFinalRelease
EXTRN	?CreateControlContainer@CWnd@@MAEHPAPAVCOleControlContainer@@@Z:NEAR ; CWnd::CreateControlContainer
EXTRN	?CreateControlSite@CWnd@@MAEHPAVCOleControlContainer@@PAPAVCOleControlSite@@IABU_GUID@@@Z:NEAR ; CWnd::CreateControlSite
EXTRN	?SetOccDialogInfo@CWnd@@MAEHPAU_AFX_OCC_DIALOG_INFO@@@Z:NEAR ; CWnd::SetOccDialogInfo
EXTRN	??_EWebGamePlayingWnd@@UAEPAXI@Z:NEAR		; WebGamePlayingWnd::`vector deleting destructor'
EXTRN	?OnToolHitTest@CWnd@@UBEHVCPoint@@PAUtagTOOLINFOA@@@Z:NEAR ; CWnd::OnToolHitTest
EXTRN	?GetScrollBarCtrl@CWnd@@UBEPAVCScrollBar@@H@Z:NEAR ; CWnd::GetScrollBarCtrl
EXTRN	?WinHelpA@CWnd@@UAEXKI@Z:NEAR			; CWnd::WinHelpA
EXTRN	?HtmlHelpA@CWnd@@UAEXKI@Z:NEAR			; CWnd::HtmlHelpA
EXTRN	??_7type_info@@6B@:QWORD			; type_info::`vftable'
EXTRN	?WinHelpInternal@CWnd@@UAEXKI@Z:NEAR		; CWnd::WinHelpInternal
EXTRN	?ContinueModal@CWnd@@UAEHXZ:NEAR		; CWnd::ContinueModal
EXTRN	?EndModalLoop@CWnd@@UAEXH@Z:NEAR		; CWnd::EndModalLoop
xdata$x	SEGMENT
$T192048 DD	0ffffffffH
	DD	FLAT:$L192036
	DD	00H
	DD	FLAT:$L192037
	DD	01H
	DD	FLAT:$L192038
	DD	02H
	DD	FLAT:$L192039
	DD	02H
	DD	FLAT:$L192040
	DD	02H
	DD	FLAT:$L192041
$T192045 DD	019930520H
	DD	06H
	DD	FLAT:$T192048
	DD	2 DUP(00H)
	DD	2 DUP(00H)
xdata$x	ENDS
;	COMDAT ??_7WebGamePlayingWnd@@6BCBasicWnd@@@
CONST	SEGMENT
??_7WebGamePlayingWnd@@6BCBasicWnd@@@ DD FLAT:??_R4WebGamePlayingWnd@@6BCBasicWnd@@@ ; WebGamePlayingWnd::`vftable'
	DD	FLAT:?GetRuntimeClass@WebGamePlayingWnd@@UBEPAUCRuntimeClass@@XZ
	DD	FLAT:??_EWebGamePlayingWnd@@UAEPAXI@Z
	DD	FLAT:?Serialize@CObject@@UAEXAAVCArchive@@@Z
	DD	FLAT:?AssertValid@CWnd@@UBEXXZ
	DD	FLAT:?Dump@CWnd@@UBEXAAVCDumpContext@@@Z
	DD	FLAT:?OnCmdMsg@CCmdTarget@@UAEHIHPAXPAUAFX_CMDHANDLERINFO@@@Z
	DD	FLAT:?OnFinalRelease@CWnd@@UAEXXZ
	DD	FLAT:?IsInvokeAllowed@CCmdTarget@@UAEHJ@Z
	DD	FLAT:?GetDispatchIID@CCmdTarget@@UAEHPAU_GUID@@@Z
	DD	FLAT:?GetTypeInfoCount@CCmdTarget@@UAEIXZ
	DD	FLAT:?GetTypeLibCache@CCmdTarget@@UAEPAVCTypeLibCache@@XZ
	DD	FLAT:?GetTypeLib@CCmdTarget@@UAEJKPAPAUITypeLib@@@Z
	DD	FLAT:?GetMessageMap@WebGamePlayingWnd@@MBEPBUAFX_MSGMAP@@XZ
	DD	FLAT:?GetCommandMap@CCmdTarget@@MBEPBUAFX_OLECMDMAP@@XZ
	DD	FLAT:?GetDispatchMap@CCmdTarget@@MBEPBUAFX_DISPMAP@@XZ
	DD	FLAT:?GetConnectionMap@CCmdTarget@@MBEPBUAFX_CONNECTIONMAP@@XZ
	DD	FLAT:?GetInterfaceMap@CWnd@@MBEPBUAFX_INTERFACEMAP@@XZ
	DD	FLAT:?GetEventSinkMap@CCmdTarget@@MBEPBUAFX_EVENTSINKMAP@@XZ
	DD	FLAT:?OnCreateAggregates@CCmdTarget@@UAEHXZ
	DD	FLAT:?GetInterfaceHook@CCmdTarget@@UAEPAUIUnknown@@PBX@Z
	DD	FLAT:?GetExtraConnectionPoints@CCmdTarget@@MAEHPAVCPtrArray@@@Z
	DD	FLAT:?GetConnectionHook@CCmdTarget@@MAEPAUIConnectionPoint@@ABU_GUID@@@Z
	DD	FLAT:?PreSubclassWindow@CWnd@@UAEXXZ
	DD	FLAT:?Create@CWnd@@UAEHPBD0KABUtagRECT@@PAV1@IPAUCCreateContext@@@Z
	DD	FLAT:?CreateEx@CWnd@@UAEHKPBD0KABUtagRECT@@PAV1@IPAX@Z
	DD	FLAT:?CreateEx@CWnd@@UAEHKPBD0KHHHHPAUHWND__@@PAUHMENU__@@PAX@Z
	DD	FLAT:?DestroyWindow@CWnd@@UAEHXZ
	DD	FLAT:?PreCreateWindow@CWnd@@UAEHAAUtagCREATESTRUCTA@@@Z
	DD	FLAT:?CalcWindowRect@CWnd@@UAEXPAUtagRECT@@I@Z
	DD	FLAT:?OnToolHitTest@CWnd@@UBEHVCPoint@@PAUtagTOOLINFOA@@@Z
	DD	FLAT:?GetScrollBarCtrl@CWnd@@UBEPAVCScrollBar@@H@Z
	DD	FLAT:?WinHelpA@CWnd@@UAEXKI@Z
	DD	FLAT:?HtmlHelpA@CWnd@@UAEXKI@Z
	DD	FLAT:?WinHelpInternal@CWnd@@UAEXKI@Z
	DD	FLAT:?ContinueModal@CWnd@@UAEHXZ
	DD	FLAT:?EndModalLoop@CWnd@@UAEXH@Z
	DD	FLAT:?EnsureStdObj@CWnd@@UAEJXZ
	DD	FLAT:?get_accParent@CWnd@@UAEJPAPAUIDispatch@@@Z
	DD	FLAT:?get_accChildCount@CWnd@@UAEJPAJ@Z
	DD	FLAT:?get_accChild@CWnd@@UAEJUtagVARIANT@@PAPAUIDispatch@@@Z
	DD	FLAT:?get_accName@CWnd@@UAEJUtagVARIANT@@PAPA_W@Z
	DD	FLAT:?get_accValue@CWnd@@UAEJUtagVARIANT@@PAPA_W@Z
	DD	FLAT:?get_accDescription@CWnd@@UAEJUtagVARIANT@@PAPA_W@Z
	DD	FLAT:?get_accRole@CWnd@@UAEJUtagVARIANT@@PAU2@@Z
	DD	FLAT:?get_accState@CWnd@@UAEJUtagVARIANT@@PAU2@@Z
	DD	FLAT:?get_accHelp@CWnd@@UAEJUtagVARIANT@@PAPA_W@Z
	DD	FLAT:?get_accHelpTopic@CWnd@@UAEJPAPA_WUtagVARIANT@@PAJ@Z
	DD	FLAT:?get_accKeyboardShortcut@CWnd@@UAEJUtagVARIANT@@PAPA_W@Z
	DD	FLAT:?get_accFocus@CWnd@@UAEJPAUtagVARIANT@@@Z
	DD	FLAT:?get_accSelection@CWnd@@UAEJPAUtagVARIANT@@@Z
	DD	FLAT:?get_accDefaultAction@CWnd@@UAEJUtagVARIANT@@PAPA_W@Z
	DD	FLAT:?accSelect@CWnd@@UAEJJUtagVARIANT@@@Z
	DD	FLAT:?accLocation@CWnd@@UAEJPAJ000UtagVARIANT@@@Z
	DD	FLAT:?accNavigate@CWnd@@UAEJJUtagVARIANT@@PAU2@@Z
	DD	FLAT:?accHitTest@CWnd@@UAEJJJPAUtagVARIANT@@@Z
	DD	FLAT:?accDoDefaultAction@CWnd@@UAEJUtagVARIANT@@@Z
	DD	FLAT:?put_accName@CWnd@@UAEJUtagVARIANT@@PA_W@Z
	DD	FLAT:?put_accValue@CWnd@@UAEJUtagVARIANT@@PA_W@Z
	DD	FLAT:?SetProxy@CWnd@@UAEJPAUIAccessibleProxy@@@Z
	DD	FLAT:?CreateAccessibleProxy@CWnd@@UAEJIJPAJ@Z
	DD	FLAT:?OnCommand@CWnd@@MAEHIJ@Z
	DD	FLAT:?OnNotify@CWnd@@MAEHIJPAJ@Z
	DD	FLAT:?GetSuperWndProcAddr@CWnd@@MAEPAP6GJPAUHWND__@@IIJ@ZXZ
	DD	FLAT:?DoDataExchange@CWnd@@MAEXPAVCDataExchange@@@Z
	DD	FLAT:?BeginModalState@CWnd@@UAEXXZ
	DD	FLAT:?EndModalState@CWnd@@UAEXXZ
	DD	FLAT:?PreTranslateMessage@CWnd@@UAEHPAUtagMSG@@@Z
	DD	FLAT:?OnAmbientProperty@CWnd@@UAEHPAVCOleControlSite@@JPAUtagVARIANT@@@Z
	DD	FLAT:?WindowProc@CWnd@@MAEJIIJ@Z
	DD	FLAT:?OnWndMsg@CWnd@@MAEHIIJPAJ@Z
	DD	FLAT:?DefWindowProcA@CWnd@@MAEJIIJ@Z
	DD	FLAT:?PostNcDestroy@CWnd@@MAEXXZ
	DD	FLAT:?OnChildNotify@CWnd@@MAEHIIJPAJ@Z
	DD	FLAT:?CheckAutoCenter@CWnd@@UAEHXZ
	DD	FLAT:?IsFrameWnd@CWnd@@UBEHXZ
	DD	FLAT:?CreateControlContainer@CWnd@@MAEHPAPAVCOleControlContainer@@@Z
	DD	FLAT:?CreateControlSite@CWnd@@MAEHPAVCOleControlContainer@@PAPAVCOleControlSite@@IABU_GUID@@@Z
	DD	FLAT:?SetOccDialogInfo@CWnd@@MAEHPAU_AFX_OCC_DIALOG_INFO@@@Z
CONST	ENDS
;	COMDAT ??_7WebGamePlayingWnd@@6BILayoutChangeObserver@@@
CONST	SEGMENT
??_7WebGamePlayingWnd@@6BILayoutChangeObserver@@@ DD FLAT:??_R4WebGamePlayingWnd@@6BILayoutChangeObserver@@@ ; WebGamePlayingWnd::`vftable'
	DD	FLAT:??_EWebGamePlayingWnd@@WFE@AEPAXI@Z
	DD	FLAT:?ILayoutChangeOb_LayerChanged@ILayoutChangeObserver@@UAEXV?$basic_string@DU?$char_traits@D@std@@V?$allocator@D@2@@std@@00@Z
	DD	FLAT:?ILayoutChangeOb_PaneChanged@ILayoutChangeObserver@@UAEXV?$basic_string@DU?$char_traits@D@std@@V?$allocator@D@2@@std@@0@Z
	DD	FLAT:?ILayoutChangeOb_SkinChanged@WebGamePlayingWnd@@UAEXV?$basic_string@DU?$char_traits@D@std@@V?$allocator@D@2@@std@@0@Z
	DD	FLAT:?ILayoutChangeOb_ColorChanged@ILayoutChangeObserver@@UAEXXZ
	DD	FLAT:?ILayoutChangeOb_ColorChanging@ILayoutChangeObserver@@UAEXXZ
	DD	FLAT:?ILayoutChangeOb_UpdateLayout@WebGamePlayingWnd@@UAEXPAUHWND__@@@Z
	DD	FLAT:?ILayoutChangeOb_InitFinished@WebGamePlayingWnd@@UAEXXZ
	DD	FLAT:?ILayoutChangeOb_InitBegin@ILayoutChangeObserver@@UAEXXZ
CONST	ENDS
;	COMDAT ??_R4WebGamePlayingWnd@@6BCBasicWnd@@@
rdata$r	SEGMENT
??_R4WebGamePlayingWnd@@6BCBasicWnd@@@ DD 00H		; WebGamePlayingWnd::`RTTI Complete Object Locator'
	DD	00H
	DD	00H
	DD	FLAT:??_R0?AVWebGamePlayingWnd@@@8
	DD	FLAT:??_R3WebGamePlayingWnd@@8
rdata$r	ENDS
;	COMDAT ??_R0?AVWebGamePlayingWnd@@@8
_DATA	SEGMENT
??_R0?AVWebGamePlayingWnd@@@8 DD FLAT:??_7type_info@@6B@ ; WebGamePlayingWnd `RTTI Type Descriptor'
	DD	00H
	DB	'.?AVWebGamePlayingWnd@@', 00H
_DATA	ENDS
;	COMDAT ??_R3WebGamePlayingWnd@@8
rdata$r	SEGMENT
??_R3WebGamePlayingWnd@@8 DD 00H			; WebGamePlayingWnd::`RTTI Class Hierarchy Descriptor'
	DD	01H
	DD	07H
	DD	FLAT:??_R2WebGamePlayingWnd@@8
rdata$r	ENDS
;	COMDAT ??_R2WebGamePlayingWnd@@8
rdata$r	SEGMENT
??_R2WebGamePlayingWnd@@8 DD FLAT:??_R1A@?0A@A@WebGamePlayingWnd@@8 ; WebGamePlayingWnd::`RTTI Base Class Array'
	DD	FLAT:??_R1A@?0A@A@CBasicWnd@@8
	DD	FLAT:??_R1A@?0A@A@CWnd@@8
	DD	FLAT:??_R1A@?0A@A@CCmdTarget@@8
	DD	FLAT:??_R1A@?0A@A@CObject@@8
	DD	FLAT:??_R1FE@?0A@A@ILayoutChangeObserver@@8
	DD	FLAT:??_R1FE@?0A@A@IMessageObserver@@8
rdata$r	ENDS
;	COMDAT ??_R1A@?0A@A@WebGamePlayingWnd@@8
rdata$r	SEGMENT
??_R1A@?0A@A@WebGamePlayingWnd@@8 DD FLAT:??_R0?AVWebGamePlayingWnd@@@8 ; WebGamePlayingWnd::`RTTI Base Class Descriptor at (0,-1,0,0)'
	DD	06H
	DD	00H
	DD	0ffffffffH
	DD	00H
	DD	00H
rdata$r	ENDS
;	COMDAT ??_R1A@?0A@A@CBasicWnd@@8
rdata$r	SEGMENT
??_R1A@?0A@A@CBasicWnd@@8 DD FLAT:??_R0?AVCBasicWnd@@@8	; CBasicWnd::`RTTI Base Class Descriptor at (0,-1,0,0)'
	DD	03H
	DD	00H
	DD	0ffffffffH
	DD	00H
	DD	00H
rdata$r	ENDS
;	COMDAT ??_R0?AVCBasicWnd@@@8
_DATA	SEGMENT
??_R0?AVCBasicWnd@@@8 DD FLAT:??_7type_info@@6B@	; CBasicWnd `RTTI Type Descriptor'
	DD	00H
	DB	'.?AVCBasicWnd@@', 00H
_DATA	ENDS
;	COMDAT ??_R1A@?0A@A@CWnd@@8
rdata$r	SEGMENT
??_R1A@?0A@A@CWnd@@8 DD FLAT:??_R0?AVCWnd@@@8		; CWnd::`RTTI Base Class Descriptor at (0,-1,0,0)'
	DD	02H
	DD	00H
	DD	0ffffffffH
	DD	00H
	DD	00H
rdata$r	ENDS
;	COMDAT ??_R0?AVCWnd@@@8
_DATA	SEGMENT
??_R0?AVCWnd@@@8 DD FLAT:??_7type_info@@6B@		; CWnd `RTTI Type Descriptor'
	DD	00H
	DB	'.?AVCWnd@@', 00H
_DATA	ENDS
;	COMDAT ??_R1A@?0A@A@CCmdTarget@@8
rdata$r	SEGMENT
??_R1A@?0A@A@CCmdTarget@@8 DD FLAT:??_R0?AVCCmdTarget@@@8 ; CCmdTarget::`RTTI Base Class Descriptor at (0,-1,0,0)'
	DD	01H
	DD	00H
	DD	0ffffffffH
	DD	00H
	DD	00H
rdata$r	ENDS
;	COMDAT ??_R0?AVCCmdTarget@@@8
_DATA	SEGMENT
??_R0?AVCCmdTarget@@@8 DD FLAT:??_7type_info@@6B@	; CCmdTarget `RTTI Type Descriptor'
	DD	00H
	DB	'.?AVCCmdTarget@@', 00H
_DATA	ENDS
;	COMDAT ??_R1A@?0A@A@CObject@@8
rdata$r	SEGMENT
??_R1A@?0A@A@CObject@@8 DD FLAT:??_R0?AVCObject@@@8	; CObject::`RTTI Base Class Descriptor at (0,-1,0,0)'
	DD	00H
	DD	00H
	DD	0ffffffffH
	DD	00H
	DD	00H
rdata$r	ENDS
;	COMDAT ??_R0?AVCObject@@@8
_DATA	SEGMENT
??_R0?AVCObject@@@8 DD FLAT:??_7type_info@@6B@		; CObject `RTTI Type Descriptor'
	DD	00H
	DB	'.?AVCObject@@', 00H
_DATA	ENDS
;	COMDAT ??_R1FE@?0A@A@ILayoutChangeObserver@@8
rdata$r	SEGMENT
??_R1FE@?0A@A@ILayoutChangeObserver@@8 DD FLAT:??_R0?AVILayoutChangeObserver@@@8 ; ILayoutChangeObserver::`RTTI Base Class Descriptor at (84,-1,0,0)'
	DD	01H
	DD	054H
	DD	0ffffffffH
	DD	00H
	DD	00H
rdata$r	ENDS
;	COMDAT ??_R0?AVILayoutChangeObserver@@@8
_DATA	SEGMENT
??_R0?AVILayoutChangeObserver@@@8 DD FLAT:??_7type_info@@6B@ ; ILayoutChangeObserver `RTTI Type Descriptor'
	DD	00H
	DB	'.?AVILayoutChangeObserver@@', 00H
_DATA	ENDS
;	COMDAT ??_R1FE@?0A@A@IMessageObserver@@8
rdata$r	SEGMENT
??_R1FE@?0A@A@IMessageObserver@@8 DD FLAT:??_R0?AVIMessageObserver@@@8 ; IMessageObserver::`RTTI Base Class Descriptor at (84,-1,0,0)'
	DD	00H
	DD	054H
	DD	0ffffffffH
	DD	00H
	DD	00H
rdata$r	ENDS
;	COMDAT ??_R0?AVIMessageObserver@@@8
_DATA	SEGMENT
??_R0?AVIMessageObserver@@@8 DD FLAT:??_7type_info@@6B@	; IMessageObserver `RTTI Type Descriptor'
	DD	00H
	DB	'.?AVIMessageObserver@@', 00H
	ORG $-31
	DD	FLAT:??_7type_info@@6B@
	DD	00H
	DB	'.?AVIMessageObserver@@', 00H
_DATA	ENDS
;	COMDAT ??_R4WebGamePlayingWnd@@6BILayoutChangeObserver@@@
rdata$r	SEGMENT
??_R4WebGamePlayingWnd@@6BILayoutChangeObserver@@@ DD 00H ; WebGamePlayingWnd::`RTTI Complete Object Locator'
	DD	054H
	DD	00H
	DD	FLAT:??_R0?AVWebGamePlayingWnd@@@8
	DD	FLAT:??_R3WebGamePlayingWnd@@8
; Function compile flags: /Odt /RTCsu
rdata$r	ENDS
_TEXT	SEGMENT
tv141 = -60						; size = 4
tv147 = -56						; size = 4
tv139 = -52						; size = 4
tv130 = -48						; size = 4
tv90 = -44						; size = 4
$T192031 = -40						; size = 4
$T192030 = -36						; size = 4
$T192027 = -32						; size = 4
$T192026 = -28						; size = 4
$T192023 = -24						; size = 4
$T192022 = -20						; size = 4
_this$ = -16						; size = 4
__$EHRec$ = -12						; size = 12
??0WebGamePlayingWnd@@QAE@XZ PROC NEAR			; WebGamePlayingWnd::WebGamePlayingWnd
; _this$ = ecx

; 19   : {

  00030	55		 push	 ebp
  00031	8b ec		 mov	 ebp, esp
  00033	6a ff		 push	 -1
  00035	68 00 00 00 00	 push	 __ehhandler$??0WebGamePlayingWnd@@QAE@XZ
  0003a	64 a1 00 00 00
	00		 mov	 eax, DWORD PTR fs:__except_list
  00040	50		 push	 eax
  00041	64 89 25 00 00
	00 00		 mov	 DWORD PTR fs:__except_list, esp
  00048	83 ec 30	 sub	 esp, 48			; 00000030H
  0004b	56		 push	 esi
  0004c	57		 push	 edi
  0004d	51		 push	 ecx
  0004e	8d 7d c4	 lea	 edi, DWORD PTR [ebp-60]
  00051	b9 0c 00 00 00	 mov	 ecx, 12			; 0000000cH
  00056	b8 cc cc cc cc	 mov	 eax, -858993460		; ccccccccH
  0005b	f3 ab		 rep stosd
  0005d	59		 pop	 ecx
  0005e	89 4d f0	 mov	 DWORD PTR _this$[ebp], ecx
  00061	8b 4d f0	 mov	 ecx, DWORD PTR _this$[ebp]
  00064	e8 00 00 00 00	 call	 ??0CBasicWnd@@QAE@XZ	; CBasicWnd::CBasicWnd
  00069	c7 45 fc 00 00
	00 00		 mov	 DWORD PTR __$EHRec$[ebp+8], 0
  00070	8b 4d f0	 mov	 ecx, DWORD PTR _this$[ebp]
  00073	83 c1 54	 add	 ecx, 84			; 00000054H
  00076	e8 00 00 00 00	 call	 ??0ILayoutChangeObserver@@QAE@XZ
  0007b	c6 45 fc 01	 mov	 BYTE PTR __$EHRec$[ebp+8], 1
  0007f	8b 45 f0	 mov	 eax, DWORD PTR _this$[ebp]
  00082	c7 00 00 00 00
	00		 mov	 DWORD PTR [eax], OFFSET FLAT:??_7WebGamePlayingWnd@@6BCBasicWnd@@@
  00088	8b 4d f0	 mov	 ecx, DWORD PTR _this$[ebp]
  0008b	c7 41 54 00 00
	00 00		 mov	 DWORD PTR [ecx+84], OFFSET FLAT:??_7WebGamePlayingWnd@@6BILayoutChangeObserver@@@
  00092	8b 4d f0	 mov	 ecx, DWORD PTR _this$[ebp]
  00095	83 c1 58	 add	 ecx, 88			; 00000058H
  00098	e8 00 00 00 00	 call	 ??0WEB_GAME@@QAE@XZ
  0009d	c6 45 fc 02	 mov	 BYTE PTR __$EHRec$[ebp+8], 2

; 20   : 	m_pBtnFullScreen	= new CxSkinButton();

  000a1	68 24 01 00 00	 push	 292			; 00000124H
  000a6	e8 00 00 00 00	 call	 ??2CObject@@SGPAXI@Z	; CObject::operator new
  000ab	89 45 e8	 mov	 DWORD PTR $T192023[ebp], eax
  000ae	c6 45 fc 03	 mov	 BYTE PTR __$EHRec$[ebp+8], 3
  000b2	83 7d e8 00	 cmp	 DWORD PTR $T192023[ebp], 0
  000b6	74 0d		 je	 SHORT $L192024
  000b8	8b 4d e8	 mov	 ecx, DWORD PTR $T192023[ebp]
  000bb	e8 00 00 00 00	 call	 ??0CxSkinButton@@QAE@XZ	; CxSkinButton::CxSkinButton
  000c0	89 45 d4	 mov	 DWORD PTR tv90[ebp], eax
  000c3	eb 07		 jmp	 SHORT $L192025
$L192024:
  000c5	c7 45 d4 00 00
	00 00		 mov	 DWORD PTR tv90[ebp], 0
$L192025:
  000cc	8b 55 d4	 mov	 edx, DWORD PTR tv90[ebp]
  000cf	89 55 ec	 mov	 DWORD PTR $T192022[ebp], edx
  000d2	c6 45 fc 02	 mov	 BYTE PTR __$EHRec$[ebp+8], 2
  000d6	8b 45 f0	 mov	 eax, DWORD PTR _this$[ebp]
  000d9	8b 4d ec	 mov	 ecx, DWORD PTR $T192022[ebp]
  000dc	89 88 ac 00 00
	00		 mov	 DWORD PTR [eax+172], ecx

; 21   : 	m_pBtnGameRight		= new CxSkinButton();

  000e2	68 24 01 00 00	 push	 292			; 00000124H
  000e7	e8 00 00 00 00	 call	 ??2CObject@@SGPAXI@Z	; CObject::operator new
  000ec	89 45 e0	 mov	 DWORD PTR $T192027[ebp], eax
  000ef	c6 45 fc 04	 mov	 BYTE PTR __$EHRec$[ebp+8], 4
  000f3	83 7d e0 00	 cmp	 DWORD PTR $T192027[ebp], 0
  000f7	74 0d		 je	 SHORT $L192028
  000f9	8b 4d e0	 mov	 ecx, DWORD PTR $T192027[ebp]
  000fc	e8 00 00 00 00	 call	 ??0CxSkinButton@@QAE@XZ	; CxSkinButton::CxSkinButton
  00101	89 45 d0	 mov	 DWORD PTR tv130[ebp], eax
  00104	eb 07		 jmp	 SHORT $L192029
$L192028:
  00106	c7 45 d0 00 00
	00 00		 mov	 DWORD PTR tv130[ebp], 0
$L192029:
  0010d	8b 55 d0	 mov	 edx, DWORD PTR tv130[ebp]
  00110	89 55 e4	 mov	 DWORD PTR $T192026[ebp], edx
  00113	c6 45 fc 02	 mov	 BYTE PTR __$EHRec$[ebp+8], 2
  00117	8b 45 f0	 mov	 eax, DWORD PTR _this$[ebp]
  0011a	8b 4d e4	 mov	 ecx, DWORD PTR $T192026[ebp]
  0011d	89 88 b0 00 00
	00		 mov	 DWORD PTR [eax+176], ecx

; 22   : 	m_pWndWebGame		= new MyWebBrowserWnd();

  00123	68 e8 01 00 00	 push	 488			; 000001e8H
  00128	e8 00 00 00 00	 call	 ??2CObject@@SGPAXI@Z	; CObject::operator new
  0012d	89 45 d8	 mov	 DWORD PTR $T192031[ebp], eax
  00130	c6 45 fc 05	 mov	 BYTE PTR __$EHRec$[ebp+8], 5
  00134	83 7d d8 00	 cmp	 DWORD PTR $T192031[ebp], 0
  00138	74 0f		 je	 SHORT $L192032
  0013a	6a 01		 push	 1
  0013c	8b 4d d8	 mov	 ecx, DWORD PTR $T192031[ebp]
  0013f	e8 00 00 00 00	 call	 ??0MyWebBrowserWnd@@QAE@H@Z ; MyWebBrowserWnd::MyWebBrowserWnd
  00144	89 45 cc	 mov	 DWORD PTR tv139[ebp], eax
  00147	eb 07		 jmp	 SHORT $L192033
$L192032:
  00149	c7 45 cc 00 00
	00 00		 mov	 DWORD PTR tv139[ebp], 0
$L192033:
  00150	8b 55 cc	 mov	 edx, DWORD PTR tv139[ebp]
  00153	89 55 dc	 mov	 DWORD PTR $T192030[ebp], edx
  00156	c6 45 fc 02	 mov	 BYTE PTR __$EHRec$[ebp+8], 2
  0015a	8b 45 f0	 mov	 eax, DWORD PTR _this$[ebp]
  0015d	8b 4d dc	 mov	 ecx, DWORD PTR $T192030[ebp]
  00160	89 88 b4 00 00
	00		 mov	 DWORD PTR [eax+180], ecx

; 23   : 	AfxGetMessageManager()->AttachMessage( ID_MESSAGE_LAYOUTMGR,(ILayoutChangeObserver*) this);

  00166	83 7d f0 00	 cmp	 DWORD PTR _this$[ebp], 0
  0016a	74 0b		 je	 SHORT $L192034
  0016c	8b 55 f0	 mov	 edx, DWORD PTR _this$[ebp]
  0016f	83 c2 54	 add	 edx, 84			; 00000054H
  00172	89 55 c8	 mov	 DWORD PTR tv147[ebp], edx
  00175	eb 07		 jmp	 SHORT $L192035
$L192034:
  00177	c7 45 c8 00 00
	00 00		 mov	 DWORD PTR tv147[ebp], 0
$L192035:
  0017e	e8 00 00 00 00	 call	 ?AfxGetMessageManager@@YAPAVIMessageManager@@XZ ; AfxGetMessageManager
  00183	89 45 c4	 mov	 DWORD PTR tv141[ebp], eax
  00186	8b f4		 mov	 esi, esp
  00188	6a 02		 push	 2
  0018a	8b 45 c8	 mov	 eax, DWORD PTR tv147[ebp]
  0018d	50		 push	 eax
  0018e	68 00 00 00 00	 push	 OFFSET FLAT:_ID_MESSAGE_LAYOUTMGR
  00193	8b 4d c4	 mov	 ecx, DWORD PTR tv141[ebp]
  00196	8b 11		 mov	 edx, DWORD PTR [ecx]
  00198	8b 4d c4	 mov	 ecx, DWORD PTR tv141[ebp]
  0019b	ff 52 04	 call	 DWORD PTR [edx+4]
  0019e	3b f4		 cmp	 esi, esp
  001a0	e8 00 00 00 00	 call	 __RTC_CheckEsp

; 24   : }

  001a5	c7 45 fc ff ff
	ff ff		 mov	 DWORD PTR __$EHRec$[ebp+8], -1
  001ac	8b 45 f0	 mov	 eax, DWORD PTR _this$[ebp]
  001af	8b 4d f4	 mov	 ecx, DWORD PTR __$EHRec$[ebp]
  001b2	64 89 0d 00 00
	00 00		 mov	 DWORD PTR fs:__except_list, ecx
  001b9	5f		 pop	 edi
  001ba	5e		 pop	 esi
  001bb	83 c4 3c	 add	 esp, 60			; 0000003cH
  001be	3b ec		 cmp	 ebp, esp
  001c0	e8 00 00 00 00	 call	 __RTC_CheckEsp
  001c5	8b e5		 mov	 esp, ebp
  001c7	5d		 pop	 ebp
  001c8	c3		 ret	 0
_TEXT	ENDS
text$x	SEGMENT
$L192036:
  00000	8b 4d f0	 mov	 ecx, DWORD PTR _this$[ebp]
  00003	e9 00 00 00 00	 jmp	 ??1CBasicWnd@@UAE@XZ	; CBasicWnd::~CBasicWnd
$L192037:
  00008	8b 4d f0	 mov	 ecx, DWORD PTR _this$[ebp]
  0000b	83 c1 54	 add	 ecx, 84			; 00000054H
  0000e	e9 00 00 00 00	 jmp	 ??1ILayoutChangeObserver@@UAE@XZ
$L192038:
  00013	8b 4d f0	 mov	 ecx, DWORD PTR _this$[ebp]
  00016	83 c1 58	 add	 ecx, 88			; 00000058H
  00019	e9 00 00 00 00	 jmp	 ??1WEB_GAME@@QAE@XZ
$L192039:
  0001e	8b 45 e8	 mov	 eax, DWORD PTR $T192023[ebp]
  00021	50		 push	 eax
  00022	e8 00 00 00 00	 call	 ??3CObject@@SGXPAX@Z	; CObject::operator delete
  00027	c3		 ret	 0
$L192040:
  00028	8b 45 e0	 mov	 eax, DWORD PTR $T192027[ebp]
  0002b	50		 push	 eax
  0002c	e8 00 00 00 00	 call	 ??3CObject@@SGXPAX@Z	; CObject::operator delete
  00031	c3		 ret	 0
$L192041:
  00032	8b 45 d8	 mov	 eax, DWORD PTR $T192031[ebp]
  00035	50		 push	 eax
  00036	e8 00 00 00 00	 call	 ??3CObject@@SGXPAX@Z	; CObject::operator delete
  0003b	c3		 ret	 0
__ehhandler$??0WebGamePlayingWnd@@QAE@XZ:
  0003c	b8 00 00 00 00	 mov	 eax, OFFSET FLAT:$T192045
  00041	e9 00 00 00 00	 jmp	 ___CxxFrameHandler
text$x	ENDS
??0WebGamePlayingWnd@@QAE@XZ ENDP			; WebGamePlayingWnd::WebGamePlayingWnd
EXTRN	__imp_??1?$basic_string@DU?$char_traits@D@std@@V?$allocator@D@2@@std@@QAE@XZ:NEAR
;	COMDAT xdata$x
; File d:\boxgit\playbox\playbox\dev\prj\playbox\src\datainterface\ilayoutchangeobserver.h
xdata$x	SEGMENT
$T192057 DD	0ffffffffH
	DD	FLAT:$L192051
	DD	00H
	DD	FLAT:$L192052
$T192055 DD	019930520H
	DD	02H
	DD	FLAT:$T192057
	DD	2 DUP(00H)
	DD	2 DUP(00H)
; Function compile flags: /Odt /RTCsu
xdata$x	ENDS
;	COMDAT ?ILayoutChangeOb_LayerChanged@ILayoutChangeObserver@@UAEXV?$basic_string@DU?$char_traits@D@std@@V?$allocator@D@2@@std@@00@Z
_TEXT	SEGMENT
_this$ = -16						; size = 4
__$EHRec$ = -12						; size = 12
_paneName$ = 8						; size = 28
_oldLayerName$ = 36					; size = 28
_newLayerName$ = 64					; size = 28
?ILayoutChangeOb_LayerChanged@ILayoutChangeObserver@@UAEXV?$basic_string@DU?$char_traits@D@std@@V?$allocator@D@2@@std@@00@Z PROC NEAR ; ILayoutChangeObserver::ILayoutChangeOb_LayerChanged, COMDAT
; _this$ = ecx

; 9    : 	virtual void	ILayoutChangeOb_LayerChanged(string paneName, string oldLayerName, string newLayerName ){};

  00000	55		 push	 ebp
  00001	8b ec		 mov	 ebp, esp
  00003	6a ff		 push	 -1
  00005	68 00 00 00 00	 push	 __ehhandler$?ILayoutChangeOb_LayerChanged@ILayoutChangeObserver@@UAEXV?$basic_string@DU?$char_traits@D@std@@V?$allocator@D@2@@std@@00@Z
  0000a	64 a1 00 00 00
	00		 mov	 eax, DWORD PTR fs:__except_list
  00010	50		 push	 eax
  00011	64 89 25 00 00
	00 00		 mov	 DWORD PTR fs:__except_list, esp
  00018	51		 push	 ecx
  00019	56		 push	 esi
  0001a	c7 45 f0 cc cc
	cc cc		 mov	 DWORD PTR [ebp-16], -858993460 ; ccccccccH
  00021	89 4d f0	 mov	 DWORD PTR _this$[ebp], ecx
  00024	c7 45 fc 01 00
	00 00		 mov	 DWORD PTR __$EHRec$[ebp+8], 1
  0002b	8b f4		 mov	 esi, esp
  0002d	8d 4d 08	 lea	 ecx, DWORD PTR _paneName$[ebp]
  00030	ff 15 00 00 00
	00		 call	 DWORD PTR __imp_??1?$basic_string@DU?$char_traits@D@std@@V?$allocator@D@2@@std@@QAE@XZ
  00036	3b f4		 cmp	 esi, esp
  00038	e8 00 00 00 00	 call	 __RTC_CheckEsp
  0003d	c6 45 fc 00	 mov	 BYTE PTR __$EHRec$[ebp+8], 0
  00041	8b f4		 mov	 esi, esp
  00043	8d 4d 24	 lea	 ecx, DWORD PTR _oldLayerName$[ebp]
  00046	ff 15 00 00 00
	00		 call	 DWORD PTR __imp_??1?$basic_string@DU?$char_traits@D@std@@V?$allocator@D@2@@std@@QAE@XZ
  0004c	3b f4		 cmp	 esi, esp
  0004e	e8 00 00 00 00	 call	 __RTC_CheckEsp
  00053	c7 45 fc ff ff
	ff ff		 mov	 DWORD PTR __$EHRec$[ebp+8], -1
  0005a	8b f4		 mov	 esi, esp
  0005c	8d 4d 40	 lea	 ecx, DWORD PTR _newLayerName$[ebp]
  0005f	ff 15 00 00 00
	00		 call	 DWORD PTR __imp_??1?$basic_string@DU?$char_traits@D@std@@V?$allocator@D@2@@std@@QAE@XZ
  00065	3b f4		 cmp	 esi, esp
  00067	e8 00 00 00 00	 call	 __RTC_CheckEsp
  0006c	8b 4d f4	 mov	 ecx, DWORD PTR __$EHRec$[ebp]
  0006f	64 89 0d 00 00
	00 00		 mov	 DWORD PTR fs:__except_list, ecx
  00076	5e		 pop	 esi
  00077	83 c4 10	 add	 esp, 16			; 00000010H
  0007a	3b ec		 cmp	 ebp, esp
  0007c	e8 00 00 00 00	 call	 __RTC_CheckEsp
  00081	8b e5		 mov	 esp, ebp
  00083	5d		 pop	 ebp
  00084	c2 54 00	 ret	 84			; 00000054H
_TEXT	ENDS
;	COMDAT text$x
text$x	SEGMENT
$L192051:
  00000	8b f4		 mov	 esi, esp
  00002	8d 4d 40	 lea	 ecx, DWORD PTR _newLayerName$[ebp]
  00005	ff 15 00 00 00
	00		 call	 DWORD PTR __imp_??1?$basic_string@DU?$char_traits@D@std@@V?$allocator@D@2@@std@@QAE@XZ
  0000b	3b f4		 cmp	 esi, esp
  0000d	e9 00 00 00 00	 jmp	 __RTC_CheckEsp
$L192052:
  00012	8b f4		 mov	 esi, esp
  00014	8d 4d 24	 lea	 ecx, DWORD PTR _oldLayerName$[ebp]
  00017	ff 15 00 00 00
	00		 call	 DWORD PTR __imp_??1?$basic_string@DU?$char_traits@D@std@@V?$allocator@D@2@@std@@QAE@XZ
  0001d	3b f4		 cmp	 esi, esp
  0001f	e9 00 00 00 00	 jmp	 __RTC_CheckEsp
__ehhandler$?ILayoutChangeOb_LayerChanged@ILayoutChangeObserver@@UAEXV?$basic_string@DU?$char_traits@D@std@@V?$allocator@D@2@@std@@00@Z:
  00024	b8 00 00 00 00	 mov	 eax, OFFSET FLAT:$T192055
  00029	e9 00 00 00 00	 jmp	 ___CxxFrameHandler
text$x	ENDS
?ILayoutChangeOb_LayerChanged@ILayoutChangeObserver@@UAEXV?$basic_string@DU?$char_traits@D@std@@V?$allocator@D@2@@std@@00@Z ENDP ; ILayoutChangeObserver::ILayoutChangeOb_LayerChanged
;	COMDAT xdata$x
xdata$x	SEGMENT
$T192066 DD	0ffffffffH
	DD	FLAT:$L192061
$T192064 DD	019930520H
	DD	01H
	DD	FLAT:$T192066
	DD	2 DUP(00H)
	DD	2 DUP(00H)
; Function compile flags: /Odt /RTCsu
xdata$x	ENDS
;	COMDAT ?ILayoutChangeOb_PaneChanged@ILayoutChangeObserver@@UAEXV?$basic_string@DU?$char_traits@D@std@@V?$allocator@D@2@@std@@0@Z
_TEXT	SEGMENT
_this$ = -16						; size = 4
__$EHRec$ = -12						; size = 12
_oldPaneName$ = 8					; size = 28
_newPaneName$ = 36					; size = 28
?ILayoutChangeOb_PaneChanged@ILayoutChangeObserver@@UAEXV?$basic_string@DU?$char_traits@D@std@@V?$allocator@D@2@@std@@0@Z PROC NEAR ; ILayoutChangeObserver::ILayoutChangeOb_PaneChanged, COMDAT
; _this$ = ecx

; 10   : 	virtual void	ILayoutChangeOb_PaneChanged(string oldPaneName, string newPaneName){};

  00000	55		 push	 ebp
  00001	8b ec		 mov	 ebp, esp
  00003	6a ff		 push	 -1
  00005	68 00 00 00 00	 push	 __ehhandler$?ILayoutChangeOb_PaneChanged@ILayoutChangeObserver@@UAEXV?$basic_string@DU?$char_traits@D@std@@V?$allocator@D@2@@std@@0@Z
  0000a	64 a1 00 00 00
	00		 mov	 eax, DWORD PTR fs:__except_list
  00010	50		 push	 eax
  00011	64 89 25 00 00
	00 00		 mov	 DWORD PTR fs:__except_list, esp
  00018	51		 push	 ecx
  00019	56		 push	 esi
  0001a	c7 45 f0 cc cc
	cc cc		 mov	 DWORD PTR [ebp-16], -858993460 ; ccccccccH
  00021	89 4d f0	 mov	 DWORD PTR _this$[ebp], ecx
  00024	c7 45 fc 00 00
	00 00		 mov	 DWORD PTR __$EHRec$[ebp+8], 0
  0002b	8b f4		 mov	 esi, esp
  0002d	8d 4d 08	 lea	 ecx, DWORD PTR _oldPaneName$[ebp]
  00030	ff 15 00 00 00
	00		 call	 DWORD PTR __imp_??1?$basic_string@DU?$char_traits@D@std@@V?$allocator@D@2@@std@@QAE@XZ
  00036	3b f4		 cmp	 esi, esp
  00038	e8 00 00 00 00	 call	 __RTC_CheckEsp
  0003d	c7 45 fc ff ff
	ff ff		 mov	 DWORD PTR __$EHRec$[ebp+8], -1
  00044	8b f4		 mov	 esi, esp
  00046	8d 4d 24	 lea	 ecx, DWORD PTR _newPaneName$[ebp]
  00049	ff 15 00 00 00
	00		 call	 DWORD PTR __imp_??1?$basic_string@DU?$char_traits@D@std@@V?$allocator@D@2@@std@@QAE@XZ
  0004f	3b f4		 cmp	 esi, esp
  00051	e8 00 00 00 00	 call	 __RTC_CheckEsp
  00056	8b 4d f4	 mov	 ecx, DWORD PTR __$EHRec$[ebp]
  00059	64 89 0d 00 00
	00 00		 mov	 DWORD PTR fs:__except_list, ecx
  00060	5e		 pop	 esi
  00061	83 c4 10	 add	 esp, 16			; 00000010H
  00064	3b ec		 cmp	 ebp, esp
  00066	e8 00 00 00 00	 call	 __RTC_CheckEsp
  0006b	8b e5		 mov	 esp, ebp
  0006d	5d		 pop	 ebp
  0006e	c2 38 00	 ret	 56			; 00000038H
_TEXT	ENDS
;	COMDAT text$x
text$x	SEGMENT
$L192061:
  00000	8b f4		 mov	 esi, esp
  00002	8d 4d 24	 lea	 ecx, DWORD PTR _newPaneName$[ebp]
  00005	ff 15 00 00 00
	00		 call	 DWORD PTR __imp_??1?$basic_string@DU?$char_traits@D@std@@V?$allocator@D@2@@std@@QAE@XZ
  0000b	3b f4		 cmp	 esi, esp
  0000d	e9 00 00 00 00	 jmp	 __RTC_CheckEsp
__ehhandler$?ILayoutChangeOb_PaneChanged@ILayoutChangeObserver@@UAEXV?$basic_string@DU?$char_traits@D@std@@V?$allocator@D@2@@std@@0@Z:
  00012	b8 00 00 00 00	 mov	 eax, OFFSET FLAT:$T192064
  00017	e9 00 00 00 00	 jmp	 ___CxxFrameHandler
text$x	ENDS
?ILayoutChangeOb_PaneChanged@ILayoutChangeObserver@@UAEXV?$basic_string@DU?$char_traits@D@std@@V?$allocator@D@2@@std@@0@Z ENDP ; ILayoutChangeObserver::ILayoutChangeOb_PaneChanged
; Function compile flags: /Odt /RTCsu
;	COMDAT ?ILayoutChangeOb_ColorChanged@ILayoutChangeObserver@@UAEXXZ
_TEXT	SEGMENT
_this$ = -4						; size = 4
?ILayoutChangeOb_ColorChanged@ILayoutChangeObserver@@UAEXXZ PROC NEAR ; ILayoutChangeObserver::ILayoutChangeOb_ColorChanged, COMDAT
; _this$ = ecx

; 12   : 	virtual void	ILayoutChangeOb_ColorChanged(){};

  00000	55		 push	 ebp
  00001	8b ec		 mov	 ebp, esp
  00003	51		 push	 ecx
  00004	c7 45 fc cc cc
	cc cc		 mov	 DWORD PTR [ebp-4], -858993460 ; ccccccccH
  0000b	89 4d fc	 mov	 DWORD PTR _this$[ebp], ecx
  0000e	8b e5		 mov	 esp, ebp
  00010	5d		 pop	 ebp
  00011	c3		 ret	 0
?ILayoutChangeOb_ColorChanged@ILayoutChangeObserver@@UAEXXZ ENDP ; ILayoutChangeObserver::ILayoutChangeOb_ColorChanged
; Function compile flags: /Odt /RTCsu
_TEXT	ENDS
;	COMDAT ?ILayoutChangeOb_ColorChanging@ILayoutChangeObserver@@UAEXXZ
_TEXT	SEGMENT
_this$ = -4						; size = 4
?ILayoutChangeOb_ColorChanging@ILayoutChangeObserver@@UAEXXZ PROC NEAR ; ILayoutChangeObserver::ILayoutChangeOb_ColorChanging, COMDAT
; _this$ = ecx

; 13   : 	virtual void	ILayoutChangeOb_ColorChanging(){};

  00000	55		 push	 ebp
  00001	8b ec		 mov	 ebp, esp
  00003	51		 push	 ecx
  00004	c7 45 fc cc cc
	cc cc		 mov	 DWORD PTR [ebp-4], -858993460 ; ccccccccH
  0000b	89 4d fc	 mov	 DWORD PTR _this$[ebp], ecx
  0000e	8b e5		 mov	 esp, ebp
  00010	5d		 pop	 ebp
  00011	c3		 ret	 0
?ILayoutChangeOb_ColorChanging@ILayoutChangeObserver@@UAEXXZ ENDP ; ILayoutChangeObserver::ILayoutChangeOb_ColorChanging
; Function compile flags: /Odt /RTCsu
_TEXT	ENDS
;	COMDAT ?ILayoutChangeOb_InitBegin@ILayoutChangeObserver@@UAEXXZ
_TEXT	SEGMENT
_this$ = -4						; size = 4
?ILayoutChangeOb_InitBegin@ILayoutChangeObserver@@UAEXXZ PROC NEAR ; ILayoutChangeObserver::ILayoutChangeOb_InitBegin, COMDAT
; _this$ = ecx

; 16   : 	virtual void	ILayoutChangeOb_InitBegin(){};

  00000	55		 push	 ebp
  00001	8b ec		 mov	 ebp, esp
  00003	51		 push	 ecx
  00004	c7 45 fc cc cc
	cc cc		 mov	 DWORD PTR [ebp-4], -858993460 ; ccccccccH
  0000b	89 4d fc	 mov	 DWORD PTR _this$[ebp], ecx
  0000e	8b e5		 mov	 esp, ebp
  00010	5d		 pop	 ebp
  00011	c3		 ret	 0
?ILayoutChangeOb_InitBegin@ILayoutChangeObserver@@UAEXXZ ENDP ; ILayoutChangeObserver::ILayoutChangeOb_InitBegin
_TEXT	ENDS
PUBLIC	??1WebGamePlayingWnd@@UAE@XZ			; WebGamePlayingWnd::~WebGamePlayingWnd
; Function compile flags: /Odt /RTCsu
;	COMDAT ??_GWebGamePlayingWnd@@UAEPAXI@Z
_TEXT	SEGMENT
_this$ = -4						; size = 4
___flags$ = 8						; size = 4
??_GWebGamePlayingWnd@@UAEPAXI@Z PROC NEAR		; WebGamePlayingWnd::`scalar deleting destructor', COMDAT
; _this$ = ecx
  00000	55		 push	 ebp
  00001	8b ec		 mov	 ebp, esp
  00003	51		 push	 ecx
  00004	c7 45 fc cc cc
	cc cc		 mov	 DWORD PTR [ebp-4], -858993460 ; ccccccccH
  0000b	89 4d fc	 mov	 DWORD PTR _this$[ebp], ecx
  0000e	8b 4d fc	 mov	 ecx, DWORD PTR _this$[ebp]
  00011	e8 00 00 00 00	 call	 ??1WebGamePlayingWnd@@UAE@XZ ; WebGamePlayingWnd::~WebGamePlayingWnd
  00016	8b 45 08	 mov	 eax, DWORD PTR ___flags$[ebp]
  00019	83 e0 01	 and	 eax, 1
  0001c	74 09		 je	 SHORT $L190921
  0001e	8b 4d fc	 mov	 ecx, DWORD PTR _this$[ebp]
  00021	51		 push	 ecx
  00022	e8 00 00 00 00	 call	 ??3CObject@@SGXPAX@Z	; CObject::operator delete
$L190921:
  00027	8b 45 fc	 mov	 eax, DWORD PTR _this$[ebp]
  0002a	83 c4 04	 add	 esp, 4
  0002d	3b ec		 cmp	 ebp, esp
  0002f	e8 00 00 00 00	 call	 __RTC_CheckEsp
  00034	8b e5		 mov	 esp, ebp
  00036	5d		 pop	 ebp
  00037	c2 04 00	 ret	 4
??_GWebGamePlayingWnd@@UAEPAXI@Z ENDP			; WebGamePlayingWnd::`scalar deleting destructor'
_TEXT	ENDS
PUBLIC	??0IMessageObserver@@QAE@XZ			; IMessageObserver::IMessageObserver
PUBLIC	??_R1A@?0A@A@IMessageObserver@@8		; IMessageObserver::`RTTI Base Class Descriptor at (0,-1,0,0)'
PUBLIC	?ILayoutChangeOb_SkinChanged@ILayoutChangeObserver@@UAEXV?$basic_string@DU?$char_traits@D@std@@V?$allocator@D@2@@std@@0@Z ; ILayoutChangeObserver::ILayoutChangeOb_SkinChanged
PUBLIC	?ILayoutChangeOb_UpdateLayout@ILayoutChangeObserver@@UAEXPAUHWND__@@@Z ; ILayoutChangeObserver::ILayoutChangeOb_UpdateLayout
PUBLIC	?ILayoutChangeOb_InitFinished@ILayoutChangeObserver@@UAEXXZ ; ILayoutChangeObserver::ILayoutChangeOb_InitFinished
PUBLIC	??_7ILayoutChangeObserver@@6B@			; ILayoutChangeObserver::`vftable'
PUBLIC	??_GILayoutChangeObserver@@UAEPAXI@Z		; ILayoutChangeObserver::`scalar deleting destructor'
PUBLIC	??_R4ILayoutChangeObserver@@6B@			; ILayoutChangeObserver::`RTTI Complete Object Locator'
PUBLIC	??_R3ILayoutChangeObserver@@8			; ILayoutChangeObserver::`RTTI Class Hierarchy Descriptor'
PUBLIC	??_R2ILayoutChangeObserver@@8			; ILayoutChangeObserver::`RTTI Base Class Array'
PUBLIC	??_R1A@?0A@A@ILayoutChangeObserver@@8		; ILayoutChangeObserver::`RTTI Base Class Descriptor at (0,-1,0,0)'
EXTRN	??_EILayoutChangeObserver@@UAEPAXI@Z:NEAR	; ILayoutChangeObserver::`vector deleting destructor'
;	COMDAT ??_7ILayoutChangeObserver@@6B@
CONST	SEGMENT
??_7ILayoutChangeObserver@@6B@ DD FLAT:??_R4ILayoutChangeObserver@@6B@ ; ILayoutChangeObserver::`vftable'
	DD	FLAT:??_EILayoutChangeObserver@@UAEPAXI@Z
	DD	FLAT:?ILayoutChangeOb_LayerChanged@ILayoutChangeObserver@@UAEXV?$basic_string@DU?$char_traits@D@std@@V?$allocator@D@2@@std@@00@Z
	DD	FLAT:?ILayoutChangeOb_PaneChanged@ILayoutChangeObserver@@UAEXV?$basic_string@DU?$char_traits@D@std@@V?$allocator@D@2@@std@@0@Z
	DD	FLAT:?ILayoutChangeOb_SkinChanged@ILayoutChangeObserver@@UAEXV?$basic_string@DU?$char_traits@D@std@@V?$allocator@D@2@@std@@0@Z
	DD	FLAT:?ILayoutChangeOb_ColorChanged@ILayoutChangeObserver@@UAEXXZ
	DD	FLAT:?ILayoutChangeOb_ColorChanging@ILayoutChangeObserver@@UAEXXZ
	DD	FLAT:?ILayoutChangeOb_UpdateLayout@ILayoutChangeObserver@@UAEXPAUHWND__@@@Z
	DD	FLAT:?ILayoutChangeOb_InitFinished@ILayoutChangeObserver@@UAEXXZ
	DD	FLAT:?ILayoutChangeOb_InitBegin@ILayoutChangeObserver@@UAEXXZ
CONST	ENDS
;	COMDAT ??_R4ILayoutChangeObserver@@6B@
rdata$r	SEGMENT
??_R4ILayoutChangeObserver@@6B@ DD 00H			; ILayoutChangeObserver::`RTTI Complete Object Locator'
	DD	00H
	DD	00H
	DD	FLAT:??_R0?AVILayoutChangeObserver@@@8
	DD	FLAT:??_R3ILayoutChangeObserver@@8
rdata$r	ENDS
;	COMDAT ??_R3ILayoutChangeObserver@@8
rdata$r	SEGMENT
??_R3ILayoutChangeObserver@@8 DD 00H			; ILayoutChangeObserver::`RTTI Class Hierarchy Descriptor'
	DD	00H
	DD	02H
	DD	FLAT:??_R2ILayoutChangeObserver@@8
rdata$r	ENDS
;	COMDAT ??_R2ILayoutChangeObserver@@8
rdata$r	SEGMENT
??_R2ILayoutChangeObserver@@8 DD FLAT:??_R1A@?0A@A@ILayoutChangeObserver@@8 ; ILayoutChangeObserver::`RTTI Base Class Array'
	DD	FLAT:??_R1A@?0A@A@IMessageObserver@@8
rdata$r	ENDS
;	COMDAT ??_R1A@?0A@A@ILayoutChangeObserver@@8
rdata$r	SEGMENT
??_R1A@?0A@A@ILayoutChangeObserver@@8 DD FLAT:??_R0?AVILayoutChangeObserver@@@8 ; ILayoutChangeObserver::`RTTI Base Class Descriptor at (0,-1,0,0)'
	DD	01H
	DD	00H
	DD	0ffffffffH
	DD	00H
	DD	00H
rdata$r	ENDS
;	COMDAT ??_R1A@?0A@A@IMessageObserver@@8
rdata$r	SEGMENT
??_R1A@?0A@A@IMessageObserver@@8 DD FLAT:??_R0?AVIMessageObserver@@@8 ; IMessageObserver::`RTTI Base Class Descriptor at (0,-1,0,0)'
	DD	00H
	DD	00H
	DD	0ffffffffH
	DD	00H
	DD	00H
; Function compile flags: /Odt /RTCsu
rdata$r	ENDS
;	COMDAT ??0ILayoutChangeObserver@@QAE@XZ
_TEXT	SEGMENT
_this$ = -4						; size = 4
??0ILayoutChangeObserver@@QAE@XZ PROC NEAR		; ILayoutChangeObserver::ILayoutChangeObserver, COMDAT
; _this$ = ecx
  00000	55		 push	 ebp
  00001	8b ec		 mov	 ebp, esp
  00003	51		 push	 ecx
  00004	c7 45 fc cc cc
	cc cc		 mov	 DWORD PTR [ebp-4], -858993460 ; ccccccccH
  0000b	89 4d fc	 mov	 DWORD PTR _this$[ebp], ecx
  0000e	8b 4d fc	 mov	 ecx, DWORD PTR _this$[ebp]
  00011	e8 00 00 00 00	 call	 ??0IMessageObserver@@QAE@XZ
  00016	8b 45 fc	 mov	 eax, DWORD PTR _this$[ebp]
  00019	c7 00 00 00 00
	00		 mov	 DWORD PTR [eax], OFFSET FLAT:??_7ILayoutChangeObserver@@6B@
  0001f	8b 45 fc	 mov	 eax, DWORD PTR _this$[ebp]
  00022	83 c4 04	 add	 esp, 4
  00025	3b ec		 cmp	 ebp, esp
  00027	e8 00 00 00 00	 call	 __RTC_CheckEsp
  0002c	8b e5		 mov	 esp, ebp
  0002e	5d		 pop	 ebp
  0002f	c3		 ret	 0
??0ILayoutChangeObserver@@QAE@XZ ENDP			; ILayoutChangeObserver::ILayoutChangeObserver
_TEXT	ENDS
;	COMDAT xdata$x
xdata$x	SEGMENT
$T192080 DD	0ffffffffH
	DD	FLAT:$L192075
$T192078 DD	019930520H
	DD	01H
	DD	FLAT:$T192080
	DD	2 DUP(00H)
	DD	2 DUP(00H)
; Function compile flags: /Odt /RTCsu
xdata$x	ENDS
;	COMDAT ?ILayoutChangeOb_SkinChanged@ILayoutChangeObserver@@UAEXV?$basic_string@DU?$char_traits@D@std@@V?$allocator@D@2@@std@@0@Z
_TEXT	SEGMENT
_this$ = -16						; size = 4
__$EHRec$ = -12						; size = 12
_oldSkinPath$ = 8					; size = 28
_newSkinPath$ = 36					; size = 28
?ILayoutChangeOb_SkinChanged@ILayoutChangeObserver@@UAEXV?$basic_string@DU?$char_traits@D@std@@V?$allocator@D@2@@std@@0@Z PROC NEAR ; ILayoutChangeObserver::ILayoutChangeOb_SkinChanged, COMDAT
; _this$ = ecx

; 11   : 	virtual void	ILayoutChangeOb_SkinChanged(string oldSkinPath, string newSkinPath){};

  00000	55		 push	 ebp
  00001	8b ec		 mov	 ebp, esp
  00003	6a ff		 push	 -1
  00005	68 00 00 00 00	 push	 __ehhandler$?ILayoutChangeOb_SkinChanged@ILayoutChangeObserver@@UAEXV?$basic_string@DU?$char_traits@D@std@@V?$allocator@D@2@@std@@0@Z
  0000a	64 a1 00 00 00
	00		 mov	 eax, DWORD PTR fs:__except_list
  00010	50		 push	 eax
  00011	64 89 25 00 00
	00 00		 mov	 DWORD PTR fs:__except_list, esp
  00018	51		 push	 ecx
  00019	56		 push	 esi
  0001a	c7 45 f0 cc cc
	cc cc		 mov	 DWORD PTR [ebp-16], -858993460 ; ccccccccH
  00021	89 4d f0	 mov	 DWORD PTR _this$[ebp], ecx
  00024	c7 45 fc 00 00
	00 00		 mov	 DWORD PTR __$EHRec$[ebp+8], 0
  0002b	8b f4		 mov	 esi, esp
  0002d	8d 4d 08	 lea	 ecx, DWORD PTR _oldSkinPath$[ebp]
  00030	ff 15 00 00 00
	00		 call	 DWORD PTR __imp_??1?$basic_string@DU?$char_traits@D@std@@V?$allocator@D@2@@std@@QAE@XZ
  00036	3b f4		 cmp	 esi, esp
  00038	e8 00 00 00 00	 call	 __RTC_CheckEsp
  0003d	c7 45 fc ff ff
	ff ff		 mov	 DWORD PTR __$EHRec$[ebp+8], -1
  00044	8b f4		 mov	 esi, esp
  00046	8d 4d 24	 lea	 ecx, DWORD PTR _newSkinPath$[ebp]
  00049	ff 15 00 00 00
	00		 call	 DWORD PTR __imp_??1?$basic_string@DU?$char_traits@D@std@@V?$allocator@D@2@@std@@QAE@XZ
  0004f	3b f4		 cmp	 esi, esp
  00051	e8 00 00 00 00	 call	 __RTC_CheckEsp
  00056	8b 4d f4	 mov	 ecx, DWORD PTR __$EHRec$[ebp]
  00059	64 89 0d 00 00
	00 00		 mov	 DWORD PTR fs:__except_list, ecx
  00060	5e		 pop	 esi
  00061	83 c4 10	 add	 esp, 16			; 00000010H
  00064	3b ec		 cmp	 ebp, esp
  00066	e8 00 00 00 00	 call	 __RTC_CheckEsp
  0006b	8b e5		 mov	 esp, ebp
  0006d	5d		 pop	 ebp
  0006e	c2 38 00	 ret	 56			; 00000038H
_TEXT	ENDS
;	COMDAT text$x
text$x	SEGMENT
$L192075:
  00000	8b f4		 mov	 esi, esp
  00002	8d 4d 24	 lea	 ecx, DWORD PTR _newSkinPath$[ebp]
  00005	ff 15 00 00 00
	00		 call	 DWORD PTR __imp_??1?$basic_string@DU?$char_traits@D@std@@V?$allocator@D@2@@std@@QAE@XZ
  0000b	3b f4		 cmp	 esi, esp
  0000d	e9 00 00 00 00	 jmp	 __RTC_CheckEsp
__ehhandler$?ILayoutChangeOb_SkinChanged@ILayoutChangeObserver@@UAEXV?$basic_string@DU?$char_traits@D@std@@V?$allocator@D@2@@std@@0@Z:
  00012	b8 00 00 00 00	 mov	 eax, OFFSET FLAT:$T192078
  00017	e9 00 00 00 00	 jmp	 ___CxxFrameHandler
text$x	ENDS
?ILayoutChangeOb_SkinChanged@ILayoutChangeObserver@@UAEXV?$basic_string@DU?$char_traits@D@std@@V?$allocator@D@2@@std@@0@Z ENDP ; ILayoutChangeObserver::ILayoutChangeOb_SkinChanged
; Function compile flags: /Odt /RTCsu
;	COMDAT ?ILayoutChangeOb_UpdateLayout@ILayoutChangeObserver@@UAEXPAUHWND__@@@Z
_TEXT	SEGMENT
_this$ = -4						; size = 4
_m_hWnd$ = 8						; size = 4
?ILayoutChangeOb_UpdateLayout@ILayoutChangeObserver@@UAEXPAUHWND__@@@Z PROC NEAR ; ILayoutChangeObserver::ILayoutChangeOb_UpdateLayout, COMDAT
; _this$ = ecx

; 14   : 	virtual void	ILayoutChangeOb_UpdateLayout(HWND m_hWnd){};

  00000	55		 push	 ebp
  00001	8b ec		 mov	 ebp, esp
  00003	51		 push	 ecx
  00004	c7 45 fc cc cc
	cc cc		 mov	 DWORD PTR [ebp-4], -858993460 ; ccccccccH
  0000b	89 4d fc	 mov	 DWORD PTR _this$[ebp], ecx
  0000e	8b e5		 mov	 esp, ebp
  00010	5d		 pop	 ebp
  00011	c2 04 00	 ret	 4
?ILayoutChangeOb_UpdateLayout@ILayoutChangeObserver@@UAEXPAUHWND__@@@Z ENDP ; ILayoutChangeObserver::ILayoutChangeOb_UpdateLayout
; Function compile flags: /Odt /RTCsu
_TEXT	ENDS
;	COMDAT ?ILayoutChangeOb_InitFinished@ILayoutChangeObserver@@UAEXXZ
_TEXT	SEGMENT
_this$ = -4						; size = 4
?ILayoutChangeOb_InitFinished@ILayoutChangeObserver@@UAEXXZ PROC NEAR ; ILayoutChangeObserver::ILayoutChangeOb_InitFinished, COMDAT
; _this$ = ecx

; 15   : 	virtual void	ILayoutChangeOb_InitFinished(){};

  00000	55		 push	 ebp
  00001	8b ec		 mov	 ebp, esp
  00003	51		 push	 ecx
  00004	c7 45 fc cc cc
	cc cc		 mov	 DWORD PTR [ebp-4], -858993460 ; ccccccccH
  0000b	89 4d fc	 mov	 DWORD PTR _this$[ebp], ecx
  0000e	8b e5		 mov	 esp, ebp
  00010	5d		 pop	 ebp
  00011	c3		 ret	 0
?ILayoutChangeOb_InitFinished@ILayoutChangeObserver@@UAEXXZ ENDP ; ILayoutChangeObserver::ILayoutChangeOb_InitFinished
_TEXT	ENDS
PUBLIC	??1IMessageObserver@@UAE@XZ			; IMessageObserver::~IMessageObserver
; Function compile flags: /Odt /RTCsu
;	COMDAT ??1ILayoutChangeObserver@@UAE@XZ
_TEXT	SEGMENT
_this$ = -4						; size = 4
??1ILayoutChangeObserver@@UAE@XZ PROC NEAR		; ILayoutChangeObserver::~ILayoutChangeObserver, COMDAT
; _this$ = ecx
  00000	55		 push	 ebp
  00001	8b ec		 mov	 ebp, esp
  00003	51		 push	 ecx
  00004	c7 45 fc cc cc
	cc cc		 mov	 DWORD PTR [ebp-4], -858993460 ; ccccccccH
  0000b	89 4d fc	 mov	 DWORD PTR _this$[ebp], ecx
  0000e	8b 4d fc	 mov	 ecx, DWORD PTR _this$[ebp]
  00011	e8 00 00 00 00	 call	 ??1IMessageObserver@@UAE@XZ ; IMessageObserver::~IMessageObserver
  00016	83 c4 04	 add	 esp, 4
  00019	3b ec		 cmp	 ebp, esp
  0001b	e8 00 00 00 00	 call	 __RTC_CheckEsp
  00020	8b e5		 mov	 esp, ebp
  00022	5d		 pop	 ebp
  00023	c3		 ret	 0
??1ILayoutChangeObserver@@UAE@XZ ENDP			; ILayoutChangeObserver::~ILayoutChangeObserver
_TEXT	ENDS
EXTRN	__imp_??0?$basic_string@DU?$char_traits@D@std@@V?$allocator@D@2@@std@@QAE@XZ:NEAR
;	COMDAT xdata$x
xdata$x	SEGMENT
$T192094 DD	0ffffffffH
	DD	FLAT:$L192088
	DD	00H
	DD	FLAT:$L192089
$T192092 DD	019930520H
	DD	02H
	DD	FLAT:$T192094
	DD	2 DUP(00H)
	DD	2 DUP(00H)
; Function compile flags: /Odt /RTCsu
xdata$x	ENDS
;	COMDAT ??0WEB_GAME@@QAE@XZ
_TEXT	SEGMENT
_this$ = -16						; size = 4
__$EHRec$ = -12						; size = 12
??0WEB_GAME@@QAE@XZ PROC NEAR				; WEB_GAME::WEB_GAME, COMDAT
; _this$ = ecx
  00000	55		 push	 ebp
  00001	8b ec		 mov	 ebp, esp
  00003	6a ff		 push	 -1
  00005	68 00 00 00 00	 push	 __ehhandler$??0WEB_GAME@@QAE@XZ
  0000a	64 a1 00 00 00
	00		 mov	 eax, DWORD PTR fs:__except_list
  00010	50		 push	 eax
  00011	64 89 25 00 00
	00 00		 mov	 DWORD PTR fs:__except_list, esp
  00018	51		 push	 ecx
  00019	56		 push	 esi
  0001a	c7 45 f0 cc cc
	cc cc		 mov	 DWORD PTR [ebp-16], -858993460 ; ccccccccH
  00021	89 4d f0	 mov	 DWORD PTR _this$[ebp], ecx
  00024	8b f4		 mov	 esi, esp
  00026	8b 4d f0	 mov	 ecx, DWORD PTR _this$[ebp]
  00029	ff 15 00 00 00
	00		 call	 DWORD PTR __imp_??0?$basic_string@DU?$char_traits@D@std@@V?$allocator@D@2@@std@@QAE@XZ
  0002f	3b f4		 cmp	 esi, esp
  00031	e8 00 00 00 00	 call	 __RTC_CheckEsp
  00036	c7 45 fc 00 00
	00 00		 mov	 DWORD PTR __$EHRec$[ebp+8], 0
  0003d	8b 4d f0	 mov	 ecx, DWORD PTR _this$[ebp]
  00040	83 c1 1c	 add	 ecx, 28			; 0000001cH
  00043	8b f4		 mov	 esi, esp
  00045	ff 15 00 00 00
	00		 call	 DWORD PTR __imp_??0?$basic_string@DU?$char_traits@D@std@@V?$allocator@D@2@@std@@QAE@XZ
  0004b	3b f4		 cmp	 esi, esp
  0004d	e8 00 00 00 00	 call	 __RTC_CheckEsp
  00052	c6 45 fc 01	 mov	 BYTE PTR __$EHRec$[ebp+8], 1
  00056	8b 4d f0	 mov	 ecx, DWORD PTR _this$[ebp]
  00059	83 c1 38	 add	 ecx, 56			; 00000038H
  0005c	8b f4		 mov	 esi, esp
  0005e	ff 15 00 00 00
	00		 call	 DWORD PTR __imp_??0?$basic_string@DU?$char_traits@D@std@@V?$allocator@D@2@@std@@QAE@XZ
  00064	3b f4		 cmp	 esi, esp
  00066	e8 00 00 00 00	 call	 __RTC_CheckEsp
  0006b	c7 45 fc ff ff
	ff ff		 mov	 DWORD PTR __$EHRec$[ebp+8], -1
  00072	8b 45 f0	 mov	 eax, DWORD PTR _this$[ebp]
  00075	8b 4d f4	 mov	 ecx, DWORD PTR __$EHRec$[ebp]
  00078	64 89 0d 00 00
	00 00		 mov	 DWORD PTR fs:__except_list, ecx
  0007f	5e		 pop	 esi
  00080	83 c4 10	 add	 esp, 16			; 00000010H
  00083	3b ec		 cmp	 ebp, esp
  00085	e8 00 00 00 00	 call	 __RTC_CheckEsp
  0008a	8b e5		 mov	 esp, ebp
  0008c	5d		 pop	 ebp
  0008d	c3		 ret	 0
_TEXT	ENDS
;	COMDAT text$x
text$x	SEGMENT
$L192088:
  00000	8b f4		 mov	 esi, esp
  00002	8b 4d f0	 mov	 ecx, DWORD PTR _this$[ebp]
  00005	ff 15 00 00 00
	00		 call	 DWORD PTR __imp_??1?$basic_string@DU?$char_traits@D@std@@V?$allocator@D@2@@std@@QAE@XZ
  0000b	3b f4		 cmp	 esi, esp
  0000d	e9 00 00 00 00	 jmp	 __RTC_CheckEsp
$L192089:
  00012	8b 4d f0	 mov	 ecx, DWORD PTR _this$[ebp]
  00015	83 c1 1c	 add	 ecx, 28			; 0000001cH
  00018	8b f4		 mov	 esi, esp
  0001a	ff 15 00 00 00
	00		 call	 DWORD PTR __imp_??1?$basic_string@DU?$char_traits@D@std@@V?$allocator@D@2@@std@@QAE@XZ
  00020	3b f4		 cmp	 esi, esp
  00022	e9 00 00 00 00	 jmp	 __RTC_CheckEsp
__ehhandler$??0WEB_GAME@@QAE@XZ:
  00027	b8 00 00 00 00	 mov	 eax, OFFSET FLAT:$T192092
  0002c	e9 00 00 00 00	 jmp	 ___CxxFrameHandler
text$x	ENDS
??0WEB_GAME@@QAE@XZ ENDP				; WEB_GAME::WEB_GAME
;	COMDAT xdata$x
xdata$x	SEGMENT
$T192104 DD	0ffffffffH
	DD	FLAT:$L192098
	DD	00H
	DD	FLAT:$L192099
$T192102 DD	019930520H
	DD	02H
	DD	FLAT:$T192104
	DD	2 DUP(00H)
	DD	2 DUP(00H)
; Function compile flags: /Odt /RTCsu
xdata$x	ENDS
;	COMDAT ??1WEB_GAME@@QAE@XZ
_TEXT	SEGMENT
_this$ = -16						; size = 4
__$EHRec$ = -12						; size = 12
??1WEB_GAME@@QAE@XZ PROC NEAR				; WEB_GAME::~WEB_GAME, COMDAT
; _this$ = ecx
  00000	55		 push	 ebp
  00001	8b ec		 mov	 ebp, esp
  00003	6a ff		 push	 -1
  00005	68 00 00 00 00	 push	 __ehhandler$??1WEB_GAME@@QAE@XZ
  0000a	64 a1 00 00 00
	00		 mov	 eax, DWORD PTR fs:__except_list
  00010	50		 push	 eax
  00011	64 89 25 00 00
	00 00		 mov	 DWORD PTR fs:__except_list, esp
  00018	51		 push	 ecx
  00019	56		 push	 esi
  0001a	c7 45 f0 cc cc
	cc cc		 mov	 DWORD PTR [ebp-16], -858993460 ; ccccccccH
  00021	89 4d f0	 mov	 DWORD PTR _this$[ebp], ecx
  00024	c7 45 fc 01 00
	00 00		 mov	 DWORD PTR __$EHRec$[ebp+8], 1
  0002b	8b 4d f0	 mov	 ecx, DWORD PTR _this$[ebp]
  0002e	83 c1 38	 add	 ecx, 56			; 00000038H
  00031	8b f4		 mov	 esi, esp
  00033	ff 15 00 00 00
	00		 call	 DWORD PTR __imp_??1?$basic_string@DU?$char_traits@D@std@@V?$allocator@D@2@@std@@QAE@XZ
  00039	3b f4		 cmp	 esi, esp
  0003b	e8 00 00 00 00	 call	 __RTC_CheckEsp
  00040	c6 45 fc 00	 mov	 BYTE PTR __$EHRec$[ebp+8], 0
  00044	8b 4d f0	 mov	 ecx, DWORD PTR _this$[ebp]
  00047	83 c1 1c	 add	 ecx, 28			; 0000001cH
  0004a	8b f4		 mov	 esi, esp
  0004c	ff 15 00 00 00
	00		 call	 DWORD PTR __imp_??1?$basic_string@DU?$char_traits@D@std@@V?$allocator@D@2@@std@@QAE@XZ
  00052	3b f4		 cmp	 esi, esp
  00054	e8 00 00 00 00	 call	 __RTC_CheckEsp
  00059	c7 45 fc ff ff
	ff ff		 mov	 DWORD PTR __$EHRec$[ebp+8], -1
  00060	8b f4		 mov	 esi, esp
  00062	8b 4d f0	 mov	 ecx, DWORD PTR _this$[ebp]
  00065	ff 15 00 00 00
	00		 call	 DWORD PTR __imp_??1?$basic_string@DU?$char_traits@D@std@@V?$allocator@D@2@@std@@QAE@XZ
  0006b	3b f4		 cmp	 esi, esp
  0006d	e8 00 00 00 00	 call	 __RTC_CheckEsp
  00072	8b 4d f4	 mov	 ecx, DWORD PTR __$EHRec$[ebp]
  00075	64 89 0d 00 00
	00 00		 mov	 DWORD PTR fs:__except_list, ecx
  0007c	5e		 pop	 esi
  0007d	83 c4 10	 add	 esp, 16			; 00000010H
  00080	3b ec		 cmp	 ebp, esp
  00082	e8 00 00 00 00	 call	 __RTC_CheckEsp
  00087	8b e5		 mov	 esp, ebp
  00089	5d		 pop	 ebp
  0008a	c3		 ret	 0
_TEXT	ENDS
;	COMDAT text$x
text$x	SEGMENT
$L192098:
  00000	8b f4		 mov	 esi, esp
  00002	8b 4d f0	 mov	 ecx, DWORD PTR _this$[ebp]
  00005	ff 15 00 00 00
	00		 call	 DWORD PTR __imp_??1?$basic_string@DU?$char_traits@D@std@@V?$allocator@D@2@@std@@QAE@XZ
  0000b	3b f4		 cmp	 esi, esp
  0000d	e9 00 00 00 00	 jmp	 __RTC_CheckEsp
$L192099:
  00012	8b 4d f0	 mov	 ecx, DWORD PTR _this$[ebp]
  00015	83 c1 1c	 add	 ecx, 28			; 0000001cH
  00018	8b f4		 mov	 esi, esp
  0001a	ff 15 00 00 00
	00		 call	 DWORD PTR __imp_??1?$basic_string@DU?$char_traits@D@std@@V?$allocator@D@2@@std@@QAE@XZ
  00020	3b f4		 cmp	 esi, esp
  00022	e9 00 00 00 00	 jmp	 __RTC_CheckEsp
__ehhandler$??1WEB_GAME@@QAE@XZ:
  00027	b8 00 00 00 00	 mov	 eax, OFFSET FLAT:$T192102
  0002c	e9 00 00 00 00	 jmp	 ___CxxFrameHandler
text$x	ENDS
??1WEB_GAME@@QAE@XZ ENDP				; WEB_GAME::~WEB_GAME
EXTRN	??3@YAXPAX@Z:NEAR				; operator delete
; Function compile flags: /Odt /RTCsu
;	COMDAT ??_GILayoutChangeObserver@@UAEPAXI@Z
_TEXT	SEGMENT
_this$ = -4						; size = 4
___flags$ = 8						; size = 4
??_GILayoutChangeObserver@@UAEPAXI@Z PROC NEAR		; ILayoutChangeObserver::`scalar deleting destructor', COMDAT
; _this$ = ecx
  00000	55		 push	 ebp
  00001	8b ec		 mov	 ebp, esp
  00003	51		 push	 ecx
  00004	c7 45 fc cc cc
	cc cc		 mov	 DWORD PTR [ebp-4], -858993460 ; ccccccccH
  0000b	89 4d fc	 mov	 DWORD PTR _this$[ebp], ecx
  0000e	8b 4d fc	 mov	 ecx, DWORD PTR _this$[ebp]
  00011	e8 00 00 00 00	 call	 ??1ILayoutChangeObserver@@UAE@XZ
  00016	8b 45 08	 mov	 eax, DWORD PTR ___flags$[ebp]
  00019	83 e0 01	 and	 eax, 1
  0001c	74 0c		 je	 SHORT $L190933
  0001e	8b 4d fc	 mov	 ecx, DWORD PTR _this$[ebp]
  00021	51		 push	 ecx
  00022	e8 00 00 00 00	 call	 ??3@YAXPAX@Z		; operator delete
  00027	83 c4 04	 add	 esp, 4
$L190933:
  0002a	8b 45 fc	 mov	 eax, DWORD PTR _this$[ebp]
  0002d	83 c4 04	 add	 esp, 4
  00030	3b ec		 cmp	 ebp, esp
  00032	e8 00 00 00 00	 call	 __RTC_CheckEsp
  00037	8b e5		 mov	 esp, ebp
  00039	5d		 pop	 ebp
  0003a	c2 04 00	 ret	 4
??_GILayoutChangeObserver@@UAEPAXI@Z ENDP		; ILayoutChangeObserver::`scalar deleting destructor'
_TEXT	ENDS
PUBLIC	??_7IMessageObserver@@6B@			; IMessageObserver::`vftable'
PUBLIC	??_GIMessageObserver@@UAEPAXI@Z			; IMessageObserver::`scalar deleting destructor'
PUBLIC	??_R4IMessageObserver@@6B@			; IMessageObserver::`RTTI Complete Object Locator'
PUBLIC	??_R3IMessageObserver@@8			; IMessageObserver::`RTTI Class Hierarchy Descriptor'
PUBLIC	??_R2IMessageObserver@@8			; IMessageObserver::`RTTI Base Class Array'
EXTRN	??_EIMessageObserver@@UAEPAXI@Z:NEAR		; IMessageObserver::`vector deleting destructor'
;	COMDAT ??_7IMessageObserver@@6B@
CONST	SEGMENT
??_7IMessageObserver@@6B@ DD FLAT:??_R4IMessageObserver@@6B@ ; IMessageObserver::`vftable'
	DD	FLAT:??_EIMessageObserver@@UAEPAXI@Z
CONST	ENDS
;	COMDAT ??_R4IMessageObserver@@6B@
rdata$r	SEGMENT
??_R4IMessageObserver@@6B@ DD 00H			; IMessageObserver::`RTTI Complete Object Locator'
	DD	00H
	DD	00H
	DD	FLAT:??_R0?AVIMessageObserver@@@8
	DD	FLAT:??_R3IMessageObserver@@8
rdata$r	ENDS
;	COMDAT ??_R3IMessageObserver@@8
rdata$r	SEGMENT
??_R3IMessageObserver@@8 DD 00H				; IMessageObserver::`RTTI Class Hierarchy Descriptor'
	DD	00H
	DD	01H
	DD	FLAT:??_R2IMessageObserver@@8
rdata$r	ENDS
;	COMDAT ??_R2IMessageObserver@@8
rdata$r	SEGMENT
??_R2IMessageObserver@@8 DD FLAT:??_R1A@?0A@A@IMessageObserver@@8 ; IMessageObserver::`RTTI Base Class Array'
; Function compile flags: /Odt /RTCsu
rdata$r	ENDS
;	COMDAT ??0IMessageObserver@@QAE@XZ
_TEXT	SEGMENT
_this$ = -4						; size = 4
??0IMessageObserver@@QAE@XZ PROC NEAR			; IMessageObserver::IMessageObserver, COMDAT
; _this$ = ecx
  00000	55		 push	 ebp
  00001	8b ec		 mov	 ebp, esp
  00003	51		 push	 ecx
  00004	c7 45 fc cc cc
	cc cc		 mov	 DWORD PTR [ebp-4], -858993460 ; ccccccccH
  0000b	89 4d fc	 mov	 DWORD PTR _this$[ebp], ecx
  0000e	8b 45 fc	 mov	 eax, DWORD PTR _this$[ebp]
  00011	c7 00 00 00 00
	00		 mov	 DWORD PTR [eax], OFFSET FLAT:??_7IMessageObserver@@6B@
  00017	8b 45 fc	 mov	 eax, DWORD PTR _this$[ebp]
  0001a	8b e5		 mov	 esp, ebp
  0001c	5d		 pop	 ebp
  0001d	c3		 ret	 0
??0IMessageObserver@@QAE@XZ ENDP			; IMessageObserver::IMessageObserver
_TEXT	ENDS
xdata$x	SEGMENT
$T192130 DD	0ffffffffH
	DD	FLAT:$L192122
	DD	00H
	DD	FLAT:$L192125
	DD	01H
	DD	FLAT:$L192126
$T192128 DD	019930520H
	DD	03H
	DD	FLAT:$T192130
	DD	2 DUP(00H)
	DD	2 DUP(00H)
; Function compile flags: /Odt /RTCsu
; File d:\boxgit\playbox\playbox\dev\prj\playbox\src\module\gamepanel\webgameplayingwnd.cpp
xdata$x	ENDS
_TEXT	SEGMENT
tv68 = -52						; size = 4
tv92 = -48						; size = 4
tv129 = -44						; size = 4
tv89 = -40						; size = 4
tv81 = -36						; size = 4
$T192117 = -32						; size = 4
$T192116 = -28						; size = 4
$T192113 = -24						; size = 4
$T192112 = -20						; size = 4
_this$ = -16						; size = 4
__$EHRec$ = -12						; size = 12
??1WebGamePlayingWnd@@UAE@XZ PROC NEAR			; WebGamePlayingWnd::~WebGamePlayingWnd
; _this$ = ecx

; 27   : {

  001d0	55		 push	 ebp
  001d1	8b ec		 mov	 ebp, esp
  001d3	6a ff		 push	 -1
  001d5	68 00 00 00 00	 push	 __ehhandler$??1WebGamePlayingWnd@@UAE@XZ
  001da	64 a1 00 00 00
	00		 mov	 eax, DWORD PTR fs:__except_list
  001e0	50		 push	 eax
  001e1	64 89 25 00 00
	00 00		 mov	 DWORD PTR fs:__except_list, esp
  001e8	83 ec 28	 sub	 esp, 40			; 00000028H
  001eb	56		 push	 esi
  001ec	57		 push	 edi
  001ed	51		 push	 ecx
  001ee	8d 7d cc	 lea	 edi, DWORD PTR [ebp-52]
  001f1	b9 0a 00 00 00	 mov	 ecx, 10			; 0000000aH
  001f6	b8 cc cc cc cc	 mov	 eax, -858993460		; ccccccccH
  001fb	f3 ab		 rep stosd
  001fd	59		 pop	 ecx
  001fe	89 4d f0	 mov	 DWORD PTR _this$[ebp], ecx
  00201	8b 45 f0	 mov	 eax, DWORD PTR _this$[ebp]
  00204	c7 00 00 00 00
	00		 mov	 DWORD PTR [eax], OFFSET FLAT:??_7WebGamePlayingWnd@@6BCBasicWnd@@@
  0020a	8b 4d f0	 mov	 ecx, DWORD PTR _this$[ebp]
  0020d	c7 41 54 00 00
	00 00		 mov	 DWORD PTR [ecx+84], OFFSET FLAT:??_7WebGamePlayingWnd@@6BILayoutChangeObserver@@@
  00214	c7 45 fc 02 00
	00 00		 mov	 DWORD PTR __$EHRec$[ebp+8], 2

; 28   : 	delete m_pBtnFullScreen;

  0021b	8b 55 f0	 mov	 edx, DWORD PTR _this$[ebp]
  0021e	8b 82 ac 00 00
	00		 mov	 eax, DWORD PTR [edx+172]
  00224	89 45 e8	 mov	 DWORD PTR $T192113[ebp], eax
  00227	8b 4d e8	 mov	 ecx, DWORD PTR $T192113[ebp]
  0022a	89 4d ec	 mov	 DWORD PTR $T192112[ebp], ecx
  0022d	83 7d ec 00	 cmp	 DWORD PTR $T192112[ebp], 0
  00231	74 1b		 je	 SHORT $L192114
  00233	8b f4		 mov	 esi, esp
  00235	6a 01		 push	 1
  00237	8b 55 ec	 mov	 edx, DWORD PTR $T192112[ebp]
  0023a	8b 02		 mov	 eax, DWORD PTR [edx]
  0023c	8b 4d ec	 mov	 ecx, DWORD PTR $T192112[ebp]
  0023f	ff 50 04	 call	 DWORD PTR [eax+4]
  00242	3b f4		 cmp	 esi, esp
  00244	e8 00 00 00 00	 call	 __RTC_CheckEsp
  00249	89 45 dc	 mov	 DWORD PTR tv81[ebp], eax
  0024c	eb 07		 jmp	 SHORT $L192115
$L192114:
  0024e	c7 45 dc 00 00
	00 00		 mov	 DWORD PTR tv81[ebp], 0
$L192115:

; 29   : 	delete m_pBtnGameRight;

  00255	8b 4d f0	 mov	 ecx, DWORD PTR _this$[ebp]
  00258	8b 91 b0 00 00
	00		 mov	 edx, DWORD PTR [ecx+176]
  0025e	89 55 e0	 mov	 DWORD PTR $T192117[ebp], edx
  00261	8b 45 e0	 mov	 eax, DWORD PTR $T192117[ebp]
  00264	89 45 e4	 mov	 DWORD PTR $T192116[ebp], eax
  00267	83 7d e4 00	 cmp	 DWORD PTR $T192116[ebp], 0
  0026b	74 1b		 je	 SHORT $L192118
  0026d	8b f4		 mov	 esi, esp
  0026f	6a 01		 push	 1
  00271	8b 4d e4	 mov	 ecx, DWORD PTR $T192116[ebp]
  00274	8b 11		 mov	 edx, DWORD PTR [ecx]
  00276	8b 4d e4	 mov	 ecx, DWORD PTR $T192116[ebp]
  00279	ff 52 04	 call	 DWORD PTR [edx+4]
  0027c	3b f4		 cmp	 esi, esp
  0027e	e8 00 00 00 00	 call	 __RTC_CheckEsp
  00283	89 45 d8	 mov	 DWORD PTR tv89[ebp], eax
  00286	eb 07		 jmp	 SHORT $L192119
$L192118:
  00288	c7 45 d8 00 00
	00 00		 mov	 DWORD PTR tv89[ebp], 0
$L192119:

; 30   : 
; 31   : 	AfxGetMessageManager()->DetachMessage( ID_MESSAGE_LAYOUTMGR,(ILayoutChangeObserver*) this);

  0028f	83 7d f0 00	 cmp	 DWORD PTR _this$[ebp], 0
  00293	74 0b		 je	 SHORT $L192120
  00295	8b 45 f0	 mov	 eax, DWORD PTR _this$[ebp]
  00298	83 c0 54	 add	 eax, 84			; 00000054H
  0029b	89 45 d4	 mov	 DWORD PTR tv129[ebp], eax
  0029e	eb 07		 jmp	 SHORT $L192121
$L192120:
  002a0	c7 45 d4 00 00
	00 00		 mov	 DWORD PTR tv129[ebp], 0
$L192121:
  002a7	e8 00 00 00 00	 call	 ?AfxGetMessageManager@@YAPAVIMessageManager@@XZ ; AfxGetMessageManager
  002ac	89 45 d0	 mov	 DWORD PTR tv92[ebp], eax
  002af	8b f4		 mov	 esi, esp
  002b1	8b 4d d4	 mov	 ecx, DWORD PTR tv129[ebp]
  002b4	51		 push	 ecx
  002b5	68 00 00 00 00	 push	 OFFSET FLAT:_ID_MESSAGE_LAYOUTMGR
  002ba	8b 55 d0	 mov	 edx, DWORD PTR tv92[ebp]
  002bd	8b 02		 mov	 eax, DWORD PTR [edx]
  002bf	8b 4d d0	 mov	 ecx, DWORD PTR tv92[ebp]
  002c2	ff 50 08	 call	 DWORD PTR [eax+8]
  002c5	3b f4		 cmp	 esi, esp
  002c7	e8 00 00 00 00	 call	 __RTC_CheckEsp

; 32   : }

  002cc	c6 45 fc 01	 mov	 BYTE PTR __$EHRec$[ebp+8], 1
  002d0	8b 4d f0	 mov	 ecx, DWORD PTR _this$[ebp]
  002d3	83 c1 58	 add	 ecx, 88			; 00000058H
  002d6	e8 00 00 00 00	 call	 ??1WEB_GAME@@QAE@XZ
  002db	c6 45 fc 00	 mov	 BYTE PTR __$EHRec$[ebp+8], 0
  002df	83 7d f0 00	 cmp	 DWORD PTR _this$[ebp], 0
  002e3	74 0b		 je	 SHORT $L192110
  002e5	8b 4d f0	 mov	 ecx, DWORD PTR _this$[ebp]
  002e8	83 c1 54	 add	 ecx, 84			; 00000054H
  002eb	89 4d cc	 mov	 DWORD PTR tv68[ebp], ecx
  002ee	eb 07		 jmp	 SHORT $L192111
$L192110:
  002f0	c7 45 cc 00 00
	00 00		 mov	 DWORD PTR tv68[ebp], 0
$L192111:
  002f7	8b 4d cc	 mov	 ecx, DWORD PTR tv68[ebp]
  002fa	e8 00 00 00 00	 call	 ??1ILayoutChangeObserver@@UAE@XZ
  002ff	c7 45 fc ff ff
	ff ff		 mov	 DWORD PTR __$EHRec$[ebp+8], -1
  00306	8b 4d f0	 mov	 ecx, DWORD PTR _this$[ebp]
  00309	e8 00 00 00 00	 call	 ??1CBasicWnd@@UAE@XZ	; CBasicWnd::~CBasicWnd
  0030e	8b 4d f4	 mov	 ecx, DWORD PTR __$EHRec$[ebp]
  00311	64 89 0d 00 00
	00 00		 mov	 DWORD PTR fs:__except_list, ecx
  00318	5f		 pop	 edi
  00319	5e		 pop	 esi
  0031a	83 c4 34	 add	 esp, 52			; 00000034H
  0031d	3b ec		 cmp	 ebp, esp
  0031f	e8 00 00 00 00	 call	 __RTC_CheckEsp
  00324	8b e5		 mov	 esp, ebp
  00326	5d		 pop	 ebp
  00327	c3		 ret	 0
_TEXT	ENDS
text$x	SEGMENT
$L192122:
  00046	8b 4d f0	 mov	 ecx, DWORD PTR _this$[ebp]
  00049	e9 00 00 00 00	 jmp	 ??1CBasicWnd@@UAE@XZ	; CBasicWnd::~CBasicWnd
$L192125:
  0004e	83 7d f0 00	 cmp	 DWORD PTR _this$[ebp], 0
  00052	0f 84 0e 00 00
	00		 je	 $L192123
  00058	8b 45 f0	 mov	 eax, DWORD PTR _this$[ebp]
  0005b	83 c0 54	 add	 eax, 84			; 00000054H
  0005e	89 45 cc	 mov	 DWORD PTR tv68[ebp], eax
  00061	e9 07 00 00 00	 jmp	 $L192124
$L192123:
  00066	c7 45 cc 00 00
	00 00		 mov	 DWORD PTR tv68[ebp], 0
$L192124:
  0006d	8b 4d cc	 mov	 ecx, DWORD PTR tv68[ebp]
  00070	e9 00 00 00 00	 jmp	 ??1ILayoutChangeObserver@@UAE@XZ
$L192126:
  00075	8b 4d f0	 mov	 ecx, DWORD PTR _this$[ebp]
  00078	83 c1 58	 add	 ecx, 88			; 00000058H
  0007b	e9 00 00 00 00	 jmp	 ??1WEB_GAME@@QAE@XZ
__ehhandler$??1WebGamePlayingWnd@@UAE@XZ:
  00080	b8 00 00 00 00	 mov	 eax, OFFSET FLAT:$T192128
  00085	e9 00 00 00 00	 jmp	 ___CxxFrameHandler
text$x	ENDS
??1WebGamePlayingWnd@@UAE@XZ ENDP			; WebGamePlayingWnd::~WebGamePlayingWnd
PUBLIC	?GetThisMessageMap@WebGamePlayingWnd@@KGPBUAFX_MSGMAP@@XZ ; WebGamePlayingWnd::GetThisMessageMap
; Function compile flags: /Odt /RTCsu
_TEXT	SEGMENT
?GetThisMessageMap@WebGamePlayingWnd@@KGPBUAFX_MSGMAP@@XZ PROC NEAR ; WebGamePlayingWnd::GetThisMessageMap

; 34   : BEGIN_MESSAGE_MAP(WebGamePlayingWnd, CBasicWnd)

  00330	55		 push	 ebp
  00331	8b ec		 mov	 ebp, esp
  00333	b8 00 00 00 00	 mov	 eax, OFFSET FLAT:?messageMap@WebGamePlayingWnd@@1UAFX_MSGMAP@@B ; WebGamePlayingWnd::messageMap
  00338	5d		 pop	 ebp
  00339	c3		 ret	 0
?GetThisMessageMap@WebGamePlayingWnd@@KGPBUAFX_MSGMAP@@XZ ENDP ; WebGamePlayingWnd::GetThisMessageMap
; Function compile flags: /Odt /RTCsu
_this$ = -4						; size = 4
?GetMessageMap@WebGamePlayingWnd@@MBEPBUAFX_MSGMAP@@XZ PROC NEAR ; WebGamePlayingWnd::GetMessageMap
; _this$ = ecx

; 34   : BEGIN_MESSAGE_MAP(WebGamePlayingWnd, CBasicWnd)

  00340	55		 push	 ebp
  00341	8b ec		 mov	 ebp, esp
  00343	51		 push	 ecx
  00344	c7 45 fc cc cc
	cc cc		 mov	 DWORD PTR [ebp-4], -858993460 ; ccccccccH
  0034b	89 4d fc	 mov	 DWORD PTR _this$[ebp], ecx
  0034e	b8 00 00 00 00	 mov	 eax, OFFSET FLAT:?messageMap@WebGamePlayingWnd@@1UAFX_MSGMAP@@B ; WebGamePlayingWnd::messageMap
  00353	8b e5		 mov	 esp, ebp
  00355	5d		 pop	 ebp
  00356	c3		 ret	 0
?GetMessageMap@WebGamePlayingWnd@@MBEPBUAFX_MSGMAP@@XZ ENDP ; WebGamePlayingWnd::GetMessageMap
_TEXT	ENDS
PUBLIC	?UpdateAllWnd@WebGamePlayingWnd@@AAEXXZ		; WebGamePlayingWnd::UpdateAllWnd
EXTRN	?AfxGetUIManager@@YAPAVIUIManager@@XZ:NEAR	; AfxGetUIManager
EXTRN	?OnCreate@CWnd@@IAEHPAUtagCREATESTRUCTA@@@Z:NEAR ; CWnd::OnCreate
EXTRN	??0CRect@@QAE@HHHH@Z:NEAR			; CRect::CRect
EXTRN	__imp_??0?$basic_string@DU?$char_traits@D@std@@V?$allocator@D@2@@std@@QAE@PBD@Z:NEAR
EXTRN	__imp_?YL_Log@@YAXABV?$basic_string@DU?$char_traits@D@std@@V?$allocator@D@2@@std@@H0PBDZZ:NEAR
EXTRN	__imp_??0?$CStringT@DV?$StrTraitMFC_DLL@DV?$ChTraitsCRT@D@ATL@@@@@ATL@@QAE@PBD@Z:NEAR
EXTRN	__imp_??1?$CStringT@DV?$StrTraitMFC_DLL@DV?$ChTraitsCRT@D@ATL@@@@@ATL@@QAE@XZ:NEAR
xdata$x	SEGMENT
$T192162 DD	0ffffffffH
	DD	FLAT:$L192145
	DD	00H
	DD	FLAT:$L192146
	DD	0ffffffffH
	DD	FLAT:$L192150
	DD	0ffffffffH
	DD	FLAT:$L192152
	DD	0ffffffffH
	DD	FLAT:$L192154
	DD	04H
	DD	FLAT:$L192155
$T192157 DD	019930520H
	DD	06H
	DD	FLAT:$T192162
	DD	2 DUP(00H)
	DD	2 DUP(00H)
; Function compile flags: /Odt /RTCsu
xdata$x	ENDS
_TEXT	SEGMENT
tv316 = -224						; size = 4
tv313 = -220						; size = 4
tv324 = -216						; size = 4
tv311 = -212						; size = 4
tv308 = -208						; size = 4
tv321 = -204						; size = 4
tv306 = -200						; size = 4
tv303 = -196						; size = 4
tv300 = -192						; size = 4
tv157 = -188						; size = 4
$T192144 = -184						; size = 28
$T192143 = -156						; size = 28
$T192142 = -128						; size = 4
$T192141 = -124						; size = 4
$T192140 = -120						; size = 4
$T192139 = -116						; size = 4
$T192138 = -112						; size = 4
$T192137 = -108						; size = 4
$T192136 = -104						; size = 4
$T192135 = -100						; size = 28
$T192134 = -72						; size = 28
_pLayoutMgr$ = -44					; size = 4
_rectNull$ = -36					; size = 16
_this$ = -16						; size = 4
__$EHRec$ = -12						; size = 12
_lpCreateStruct$ = 8					; size = 4
?OnCreate@WebGamePlayingWnd@@IAEHPAUtagCREATESTRUCTA@@@Z PROC NEAR ; WebGamePlayingWnd::OnCreate
; _this$ = ecx

; 42   : {

  00360	55		 push	 ebp
  00361	8b ec		 mov	 ebp, esp
  00363	6a ff		 push	 -1
  00365	68 00 00 00 00	 push	 __ehhandler$?OnCreate@WebGamePlayingWnd@@IAEHPAUtagCREATESTRUCTA@@@Z
  0036a	64 a1 00 00 00
	00		 mov	 eax, DWORD PTR fs:__except_list
  00370	50		 push	 eax
  00371	64 89 25 00 00
	00 00		 mov	 DWORD PTR fs:__except_list, esp
  00378	81 ec d4 00 00
	00		 sub	 esp, 212		; 000000d4H
  0037e	56		 push	 esi
  0037f	57		 push	 edi
  00380	51		 push	 ecx
  00381	8d bd 20 ff ff
	ff		 lea	 edi, DWORD PTR [ebp-224]
  00387	b9 35 00 00 00	 mov	 ecx, 53			; 00000035H
  0038c	b8 cc cc cc cc	 mov	 eax, -858993460		; ccccccccH
  00391	f3 ab		 rep stosd
  00393	59		 pop	 ecx
  00394	89 4d f0	 mov	 DWORD PTR _this$[ebp], ecx

; 43   : 	YL_Log("WebGamePlayingWnd.txt", LOG_DEBUG, "WebGamePlayingWnd::OnCreate", "===IN");

  00397	8b f4		 mov	 esi, esp
  00399	68 00 00 00 00	 push	 OFFSET FLAT:$SG190977
  0039e	8d 4d b8	 lea	 ecx, DWORD PTR $T192134[ebp]
  003a1	ff 15 00 00 00
	00		 call	 DWORD PTR __imp_??0?$basic_string@DU?$char_traits@D@std@@V?$allocator@D@2@@std@@QAE@PBD@Z
  003a7	3b f4		 cmp	 esi, esp
  003a9	e8 00 00 00 00	 call	 __RTC_CheckEsp
  003ae	c7 45 fc 00 00
	00 00		 mov	 DWORD PTR __$EHRec$[ebp+8], 0
  003b5	8b f4		 mov	 esi, esp
  003b7	68 00 00 00 00	 push	 OFFSET FLAT:$SG190978
  003bc	8d 4d 9c	 lea	 ecx, DWORD PTR $T192135[ebp]
  003bf	ff 15 00 00 00
	00		 call	 DWORD PTR __imp_??0?$basic_string@DU?$char_traits@D@std@@V?$allocator@D@2@@std@@QAE@PBD@Z
  003c5	3b f4		 cmp	 esi, esp
  003c7	e8 00 00 00 00	 call	 __RTC_CheckEsp
  003cc	c6 45 fc 01	 mov	 BYTE PTR __$EHRec$[ebp+8], 1
  003d0	8b f4		 mov	 esi, esp
  003d2	68 00 00 00 00	 push	 OFFSET FLAT:$SG190976
  003d7	8d 45 b8	 lea	 eax, DWORD PTR $T192134[ebp]
  003da	50		 push	 eax
  003db	6a 00		 push	 0
  003dd	8d 4d 9c	 lea	 ecx, DWORD PTR $T192135[ebp]
  003e0	51		 push	 ecx
  003e1	ff 15 00 00 00
	00		 call	 DWORD PTR __imp_?YL_Log@@YAXABV?$basic_string@DU?$char_traits@D@std@@V?$allocator@D@2@@std@@H0PBDZZ
  003e7	83 c4 10	 add	 esp, 16			; 00000010H
  003ea	3b f4		 cmp	 esi, esp
  003ec	e8 00 00 00 00	 call	 __RTC_CheckEsp
  003f1	c6 45 fc 00	 mov	 BYTE PTR __$EHRec$[ebp+8], 0
  003f5	8b f4		 mov	 esi, esp
  003f7	8d 4d 9c	 lea	 ecx, DWORD PTR $T192135[ebp]
  003fa	ff 15 00 00 00
	00		 call	 DWORD PTR __imp_??1?$basic_string@DU?$char_traits@D@std@@V?$allocator@D@2@@std@@QAE@XZ
  00400	3b f4		 cmp	 esi, esp
  00402	e8 00 00 00 00	 call	 __RTC_CheckEsp
  00407	c7 45 fc ff ff
	ff ff		 mov	 DWORD PTR __$EHRec$[ebp+8], -1
  0040e	8b f4		 mov	 esi, esp
  00410	8d 4d b8	 lea	 ecx, DWORD PTR $T192134[ebp]
  00413	ff 15 00 00 00
	00		 call	 DWORD PTR __imp_??1?$basic_string@DU?$char_traits@D@std@@V?$allocator@D@2@@std@@QAE@XZ
  00419	3b f4		 cmp	 esi, esp
  0041b	e8 00 00 00 00	 call	 __RTC_CheckEsp

; 44   : 	if(__super::OnCreate(lpCreateStruct) == -1)

  00420	8b 55 08	 mov	 edx, DWORD PTR _lpCreateStruct$[ebp]
  00423	52		 push	 edx
  00424	8b 4d f0	 mov	 ecx, DWORD PTR _this$[ebp]
  00427	e8 00 00 00 00	 call	 ?OnCreate@CWnd@@IAEHPAUtagCREATESTRUCTA@@@Z ; CWnd::OnCreate
  0042c	83 f8 ff	 cmp	 eax, -1
  0042f	75 08		 jne	 SHORT $L190979

; 45   : 	{
; 46   : 		return -1;

  00431	83 c8 ff	 or	 eax, -1
  00434	e9 fd 02 00 00	 jmp	 $L190973
$L190979:

; 47   : 	}
; 48   : 	CRect rectNull(0,0,0,0);

  00439	6a 00		 push	 0
  0043b	6a 00		 push	 0
  0043d	6a 00		 push	 0
  0043f	6a 00		 push	 0
  00441	8d 4d dc	 lea	 ecx, DWORD PTR _rectNull$[ebp]
  00444	e8 00 00 00 00	 call	 ??0CRect@@QAE@HHHH@Z	; CRect::CRect

; 49   : 
; 50   : 	m_pBtnFullScreen->Create(NULL,WS_VISIBLE,rectNull,this,IDC_BTN_FULL_SCREEN);

  00449	8b f4		 mov	 esi, esp
  0044b	6a 77		 push	 119			; 00000077H
  0044d	8b 45 f0	 mov	 eax, DWORD PTR _this$[ebp]
  00450	50		 push	 eax
  00451	8d 4d dc	 lea	 ecx, DWORD PTR _rectNull$[ebp]
  00454	51		 push	 ecx
  00455	68 00 00 00 10	 push	 268435456		; 10000000H
  0045a	6a 00		 push	 0
  0045c	8b 55 f0	 mov	 edx, DWORD PTR _this$[ebp]
  0045f	8b 82 ac 00 00
	00		 mov	 eax, DWORD PTR [edx+172]
  00465	8b 4d f0	 mov	 ecx, DWORD PTR _this$[ebp]
  00468	8b 89 ac 00 00
	00		 mov	 ecx, DWORD PTR [ecx+172]
  0046e	8b 10		 mov	 edx, DWORD PTR [eax]
  00470	ff 92 38 01 00
	00		 call	 DWORD PTR [edx+312]
  00476	3b f4		 cmp	 esi, esp
  00478	e8 00 00 00 00	 call	 __RTC_CheckEsp

; 51   : 	m_pBtnGameRight->Create(NULL,WS_VISIBLE,rectNull,this,IDC_BTN_GAMERIGHT);

  0047d	8b f4		 mov	 esi, esp
  0047f	68 82 00 00 00	 push	 130			; 00000082H
  00484	8b 45 f0	 mov	 eax, DWORD PTR _this$[ebp]
  00487	50		 push	 eax
  00488	8d 4d dc	 lea	 ecx, DWORD PTR _rectNull$[ebp]
  0048b	51		 push	 ecx
  0048c	68 00 00 00 10	 push	 268435456		; 10000000H
  00491	6a 00		 push	 0
  00493	8b 55 f0	 mov	 edx, DWORD PTR _this$[ebp]
  00496	8b 82 b0 00 00
	00		 mov	 eax, DWORD PTR [edx+176]
  0049c	8b 4d f0	 mov	 ecx, DWORD PTR _this$[ebp]
  0049f	8b 89 b0 00 00
	00		 mov	 ecx, DWORD PTR [ecx+176]
  004a5	8b 10		 mov	 edx, DWORD PTR [eax]
  004a7	ff 92 38 01 00
	00		 call	 DWORD PTR [edx+312]
  004ad	3b f4		 cmp	 esi, esp
  004af	e8 00 00 00 00	 call	 __RTC_CheckEsp

; 52   : 
; 53   : 	m_pWndWebGame->Create(NULL,NULL,WS_CHILD|WS_CLIPCHILDREN,rectNull,this,ID_WND_WEBGAME );

  004b4	8b f4		 mov	 esi, esp
  004b6	6a 00		 push	 0
  004b8	68 d4 00 00 00	 push	 212			; 000000d4H
  004bd	8b 45 f0	 mov	 eax, DWORD PTR _this$[ebp]
  004c0	50		 push	 eax
  004c1	8d 4d dc	 lea	 ecx, DWORD PTR _rectNull$[ebp]
  004c4	51		 push	 ecx
  004c5	68 00 00 00 42	 push	 1107296256		; 42000000H
  004ca	6a 00		 push	 0
  004cc	6a 00		 push	 0
  004ce	8b 55 f0	 mov	 edx, DWORD PTR _this$[ebp]
  004d1	8b 82 b4 00 00
	00		 mov	 eax, DWORD PTR [edx+180]
  004d7	8b 4d f0	 mov	 ecx, DWORD PTR _this$[ebp]
  004da	8b 89 b4 00 00
	00		 mov	 ecx, DWORD PTR [ecx+180]
  004e0	8b 10		 mov	 edx, DWORD PTR [eax]
  004e2	ff 52 5c	 call	 DWORD PTR [edx+92]
  004e5	3b f4		 cmp	 esi, esp
  004e7	e8 00 00 00 00	 call	 __RTC_CheckEsp

; 54   : 
; 55   : 	ILayoutMgr* pLayoutMgr =  AfxGetUIManager()->UIGetLayoutMgr();

  004ec	e8 00 00 00 00	 call	 ?AfxGetUIManager@@YAPAVIUIManager@@XZ ; AfxGetUIManager
  004f1	89 85 44 ff ff
	ff		 mov	 DWORD PTR tv157[ebp], eax
  004f7	8b 85 44 ff ff
	ff		 mov	 eax, DWORD PTR tv157[ebp]
  004fd	8b 10		 mov	 edx, DWORD PTR [eax]
  004ff	8b f4		 mov	 esi, esp
  00501	8b 8d 44 ff ff
	ff		 mov	 ecx, DWORD PTR tv157[ebp]
  00507	ff 52 24	 call	 DWORD PTR [edx+36]
  0050a	3b f4		 cmp	 esi, esp
  0050c	e8 00 00 00 00	 call	 __RTC_CheckEsp
  00511	89 45 d4	 mov	 DWORD PTR _pLayoutMgr$[ebp], eax

; 56   : 	
; 57   : 	pLayoutMgr->RegisterCtrl( this, "WebGameView", m_pWndWebGame );

  00514	8b 45 f0	 mov	 eax, DWORD PTR _this$[ebp]
  00517	8b 88 b4 00 00
	00		 mov	 ecx, DWORD PTR [eax+180]
  0051d	51		 push	 ecx
  0051e	51		 push	 ecx
  0051f	8b cc		 mov	 ecx, esp
  00521	89 65 98	 mov	 DWORD PTR $T192136[ebp], esp
  00524	8b f4		 mov	 esi, esp
  00526	68 00 00 00 00	 push	 OFFSET FLAT:$SG190983
  0052b	ff 15 00 00 00
	00		 call	 DWORD PTR __imp_??0?$CStringT@DV?$StrTraitMFC_DLL@DV?$ChTraitsCRT@D@ATL@@@@@ATL@@QAE@PBD@Z
  00531	3b f4		 cmp	 esi, esp
  00533	e8 00 00 00 00	 call	 __RTC_CheckEsp
  00538	89 85 40 ff ff
	ff		 mov	 DWORD PTR tv300[ebp], eax
  0053e	8b 55 f0	 mov	 edx, DWORD PTR _this$[ebp]
  00541	52		 push	 edx
  00542	8b 45 d4	 mov	 eax, DWORD PTR _pLayoutMgr$[ebp]
  00545	8b 10		 mov	 edx, DWORD PTR [eax]
  00547	8b 4d d4	 mov	 ecx, DWORD PTR _pLayoutMgr$[ebp]
  0054a	ff 52 34	 call	 DWORD PTR [edx+52]

; 58   : 	pLayoutMgr->RegisterCtrl( this, "WebGameToFull", m_pBtnFullScreen );

  0054d	8b 45 f0	 mov	 eax, DWORD PTR _this$[ebp]
  00550	8b 88 ac 00 00
	00		 mov	 ecx, DWORD PTR [eax+172]
  00556	51		 push	 ecx
  00557	51		 push	 ecx
  00558	8b cc		 mov	 ecx, esp
  0055a	89 65 94	 mov	 DWORD PTR $T192137[ebp], esp
  0055d	8b f4		 mov	 esi, esp
  0055f	68 00 00 00 00	 push	 OFFSET FLAT:$SG190985
  00564	ff 15 00 00 00
	00		 call	 DWORD PTR __imp_??0?$CStringT@DV?$StrTraitMFC_DLL@DV?$ChTraitsCRT@D@ATL@@@@@ATL@@QAE@PBD@Z
  0056a	3b f4		 cmp	 esi, esp
  0056c	e8 00 00 00 00	 call	 __RTC_CheckEsp
  00571	89 85 3c ff ff
	ff		 mov	 DWORD PTR tv303[ebp], eax
  00577	8b 55 f0	 mov	 edx, DWORD PTR _this$[ebp]
  0057a	52		 push	 edx
  0057b	8b 45 d4	 mov	 eax, DWORD PTR _pLayoutMgr$[ebp]
  0057e	8b 10		 mov	 edx, DWORD PTR [eax]
  00580	8b 4d d4	 mov	 ecx, DWORD PTR _pLayoutMgr$[ebp]
  00583	ff 52 34	 call	 DWORD PTR [edx+52]

; 59   : 	pLayoutMgr->RegisterCtrl( this, "WebGameInfo", m_pBtnGameRight );

  00586	8b 45 f0	 mov	 eax, DWORD PTR _this$[ebp]
  00589	8b 88 b0 00 00
	00		 mov	 ecx, DWORD PTR [eax+176]
  0058f	51		 push	 ecx
  00590	51		 push	 ecx
  00591	8b cc		 mov	 ecx, esp
  00593	89 65 90	 mov	 DWORD PTR $T192138[ebp], esp
  00596	8b f4		 mov	 esi, esp
  00598	68 00 00 00 00	 push	 OFFSET FLAT:$SG190987
  0059d	ff 15 00 00 00
	00		 call	 DWORD PTR __imp_??0?$CStringT@DV?$StrTraitMFC_DLL@DV?$ChTraitsCRT@D@ATL@@@@@ATL@@QAE@PBD@Z
  005a3	3b f4		 cmp	 esi, esp
  005a5	e8 00 00 00 00	 call	 __RTC_CheckEsp
  005aa	89 85 38 ff ff
	ff		 mov	 DWORD PTR tv306[ebp], eax
  005b0	8b 55 f0	 mov	 edx, DWORD PTR _this$[ebp]
  005b3	52		 push	 edx
  005b4	8b 45 d4	 mov	 eax, DWORD PTR _pLayoutMgr$[ebp]
  005b7	8b 10		 mov	 edx, DWORD PTR [eax]
  005b9	8b 4d d4	 mov	 ecx, DWORD PTR _pLayoutMgr$[ebp]
  005bc	ff 52 34	 call	 DWORD PTR [edx+52]

; 60   : 	
; 61   : 	pLayoutMgr->CreateControlPane( this, "webgameplaying", "normal" );

  005bf	51		 push	 ecx
  005c0	8b cc		 mov	 ecx, esp
  005c2	89 65 8c	 mov	 DWORD PTR $T192139[ebp], esp
  005c5	8b f4		 mov	 esi, esp
  005c7	68 00 00 00 00	 push	 OFFSET FLAT:$SG190990
  005cc	ff 15 00 00 00
	00		 call	 DWORD PTR __imp_??0?$CStringT@DV?$StrTraitMFC_DLL@DV?$ChTraitsCRT@D@ATL@@@@@ATL@@QAE@PBD@Z
  005d2	3b f4		 cmp	 esi, esp
  005d4	e8 00 00 00 00	 call	 __RTC_CheckEsp
  005d9	89 85 34 ff ff
	ff		 mov	 DWORD PTR tv321[ebp], eax
  005df	8b 85 34 ff ff
	ff		 mov	 eax, DWORD PTR tv321[ebp]
  005e5	89 85 30 ff ff
	ff		 mov	 DWORD PTR tv308[ebp], eax
  005eb	c7 45 fc 02 00
	00 00		 mov	 DWORD PTR __$EHRec$[ebp+8], 2
  005f2	51		 push	 ecx
  005f3	8b cc		 mov	 ecx, esp
  005f5	89 65 88	 mov	 DWORD PTR $T192140[ebp], esp
  005f8	8b f4		 mov	 esi, esp
  005fa	68 00 00 00 00	 push	 OFFSET FLAT:$SG190991
  005ff	ff 15 00 00 00
	00		 call	 DWORD PTR __imp_??0?$CStringT@DV?$StrTraitMFC_DLL@DV?$ChTraitsCRT@D@ATL@@@@@ATL@@QAE@PBD@Z
  00605	3b f4		 cmp	 esi, esp
  00607	e8 00 00 00 00	 call	 __RTC_CheckEsp
  0060c	89 85 2c ff ff
	ff		 mov	 DWORD PTR tv311[ebp], eax
  00612	8b 4d f0	 mov	 ecx, DWORD PTR _this$[ebp]
  00615	51		 push	 ecx
  00616	8b 55 d4	 mov	 edx, DWORD PTR _pLayoutMgr$[ebp]
  00619	8b 02		 mov	 eax, DWORD PTR [edx]
  0061b	c7 45 fc ff ff
	ff ff		 mov	 DWORD PTR __$EHRec$[ebp+8], -1
  00622	8b 4d d4	 mov	 ecx, DWORD PTR _pLayoutMgr$[ebp]
  00625	ff 50 38	 call	 DWORD PTR [eax+56]

; 62   : 	pLayoutMgr->CreateBmpPane( this,"webgameplaying","normal" );

  00628	51		 push	 ecx
  00629	8b cc		 mov	 ecx, esp
  0062b	89 65 84	 mov	 DWORD PTR $T192141[ebp], esp
  0062e	8b f4		 mov	 esi, esp
  00630	68 00 00 00 00	 push	 OFFSET FLAT:$SG190994
  00635	ff 15 00 00 00
	00		 call	 DWORD PTR __imp_??0?$CStringT@DV?$StrTraitMFC_DLL@DV?$ChTraitsCRT@D@ATL@@@@@ATL@@QAE@PBD@Z
  0063b	3b f4		 cmp	 esi, esp
  0063d	e8 00 00 00 00	 call	 __RTC_CheckEsp
  00642	89 85 28 ff ff
	ff		 mov	 DWORD PTR tv324[ebp], eax
  00648	8b 8d 28 ff ff
	ff		 mov	 ecx, DWORD PTR tv324[ebp]
  0064e	89 8d 24 ff ff
	ff		 mov	 DWORD PTR tv313[ebp], ecx
  00654	c7 45 fc 03 00
	00 00		 mov	 DWORD PTR __$EHRec$[ebp+8], 3
  0065b	51		 push	 ecx
  0065c	8b cc		 mov	 ecx, esp
  0065e	89 65 80	 mov	 DWORD PTR $T192142[ebp], esp
  00661	8b f4		 mov	 esi, esp
  00663	68 00 00 00 00	 push	 OFFSET FLAT:$SG190995
  00668	ff 15 00 00 00
	00		 call	 DWORD PTR __imp_??0?$CStringT@DV?$StrTraitMFC_DLL@DV?$ChTraitsCRT@D@ATL@@@@@ATL@@QAE@PBD@Z
  0066e	3b f4		 cmp	 esi, esp
  00670	e8 00 00 00 00	 call	 __RTC_CheckEsp
  00675	89 85 20 ff ff
	ff		 mov	 DWORD PTR tv316[ebp], eax
  0067b	8b 55 f0	 mov	 edx, DWORD PTR _this$[ebp]
  0067e	52		 push	 edx
  0067f	8b 45 d4	 mov	 eax, DWORD PTR _pLayoutMgr$[ebp]
  00682	8b 10		 mov	 edx, DWORD PTR [eax]
  00684	c7 45 fc ff ff
	ff ff		 mov	 DWORD PTR __$EHRec$[ebp+8], -1
  0068b	8b 4d d4	 mov	 ecx, DWORD PTR _pLayoutMgr$[ebp]
  0068e	ff 52 58	 call	 DWORD PTR [edx+88]

; 63   : 
; 64   : 	UpdateAllWnd();

  00691	8b 4d f0	 mov	 ecx, DWORD PTR _this$[ebp]
  00694	e8 00 00 00 00	 call	 ?UpdateAllWnd@WebGamePlayingWnd@@AAEXXZ ; WebGamePlayingWnd::UpdateAllWnd

; 65   : 
; 66   : 	YL_Log("WebGamePlayingWnd.txt", LOG_DEBUG, "WebGamePlayingWnd::OnCreate", "===OUT");

  00699	8b f4		 mov	 esi, esp
  0069b	68 00 00 00 00	 push	 OFFSET FLAT:$SG190999
  006a0	8d 8d 64 ff ff
	ff		 lea	 ecx, DWORD PTR $T192143[ebp]
  006a6	ff 15 00 00 00
	00		 call	 DWORD PTR __imp_??0?$basic_string@DU?$char_traits@D@std@@V?$allocator@D@2@@std@@QAE@PBD@Z
  006ac	3b f4		 cmp	 esi, esp
  006ae	e8 00 00 00 00	 call	 __RTC_CheckEsp
  006b3	c7 45 fc 04 00
	00 00		 mov	 DWORD PTR __$EHRec$[ebp+8], 4
  006ba	8b f4		 mov	 esi, esp
  006bc	68 00 00 00 00	 push	 OFFSET FLAT:$SG191000
  006c1	8d 8d 48 ff ff
	ff		 lea	 ecx, DWORD PTR $T192144[ebp]
  006c7	ff 15 00 00 00
	00		 call	 DWORD PTR __imp_??0?$basic_string@DU?$char_traits@D@std@@V?$allocator@D@2@@std@@QAE@PBD@Z
  006cd	3b f4		 cmp	 esi, esp
  006cf	e8 00 00 00 00	 call	 __RTC_CheckEsp
  006d4	c6 45 fc 05	 mov	 BYTE PTR __$EHRec$[ebp+8], 5
  006d8	8b f4		 mov	 esi, esp
  006da	68 00 00 00 00	 push	 OFFSET FLAT:$SG190998
  006df	8d 85 64 ff ff
	ff		 lea	 eax, DWORD PTR $T192143[ebp]
  006e5	50		 push	 eax
  006e6	6a 00		 push	 0
  006e8	8d 8d 48 ff ff
	ff		 lea	 ecx, DWORD PTR $T192144[ebp]
  006ee	51		 push	 ecx
  006ef	ff 15 00 00 00
	00		 call	 DWORD PTR __imp_?YL_Log@@YAXABV?$basic_string@DU?$char_traits@D@std@@V?$allocator@D@2@@std@@H0PBDZZ
  006f5	83 c4 10	 add	 esp, 16			; 00000010H
  006f8	3b f4		 cmp	 esi, esp
  006fa	e8 00 00 00 00	 call	 __RTC_CheckEsp
  006ff	c6 45 fc 04	 mov	 BYTE PTR __$EHRec$[ebp+8], 4
  00703	8b f4		 mov	 esi, esp
  00705	8d 8d 48 ff ff
	ff		 lea	 ecx, DWORD PTR $T192144[ebp]
  0070b	ff 15 00 00 00
	00		 call	 DWORD PTR __imp_??1?$basic_string@DU?$char_traits@D@std@@V?$allocator@D@2@@std@@QAE@XZ
  00711	3b f4		 cmp	 esi, esp
  00713	e8 00 00 00 00	 call	 __RTC_CheckEsp
  00718	c7 45 fc ff ff
	ff ff		 mov	 DWORD PTR __$EHRec$[ebp+8], -1
  0071f	8b f4		 mov	 esi, esp
  00721	8d 8d 64 ff ff
	ff		 lea	 ecx, DWORD PTR $T192143[ebp]
  00727	ff 15 00 00 00
	00		 call	 DWORD PTR __imp_??1?$basic_string@DU?$char_traits@D@std@@V?$allocator@D@2@@std@@QAE@XZ
  0072d	3b f4		 cmp	 esi, esp
  0072f	e8 00 00 00 00	 call	 __RTC_CheckEsp

; 67   : 	return 0;

  00734	33 c0		 xor	 eax, eax
$L190973:

; 68   : }

  00736	52		 push	 edx
  00737	8b cd		 mov	 ecx, ebp
  00739	50		 push	 eax
  0073a	8d 15 00 00 00
	00		 lea	 edx, DWORD PTR $L192161
  00740	e8 00 00 00 00	 call	 @_RTC_CheckStackVars@8
  00745	58		 pop	 eax
  00746	5a		 pop	 edx
  00747	8b 4d f4	 mov	 ecx, DWORD PTR __$EHRec$[ebp]
  0074a	64 89 0d 00 00
	00 00		 mov	 DWORD PTR fs:__except_list, ecx
  00751	5f		 pop	 edi
  00752	5e		 pop	 esi
  00753	81 c4 e0 00 00
	00		 add	 esp, 224		; 000000e0H
  00759	3b ec		 cmp	 ebp, esp
  0075b	e8 00 00 00 00	 call	 __RTC_CheckEsp
  00760	8b e5		 mov	 esp, ebp
  00762	5d		 pop	 ebp
  00763	c2 04 00	 ret	 4
$L192161:
  00766	01 00 00 00	 DD	 1
  0076a	00 00 00 00	 DD	 $L192160
$L192160:
  0076e	dc ff ff ff	 DD	 -36			; ffffffdcH
  00772	10 00 00 00	 DD	 16			; 00000010H
  00776	00 00 00 00	 DD	 $L192158
$L192158:
  0077a	72		 DB	 114			; 00000072H
  0077b	65		 DB	 101			; 00000065H
  0077c	63		 DB	 99			; 00000063H
  0077d	74		 DB	 116			; 00000074H
  0077e	4e		 DB	 78			; 0000004eH
  0077f	75		 DB	 117			; 00000075H
  00780	6c		 DB	 108			; 0000006cH
  00781	6c		 DB	 108			; 0000006cH
  00782	00		 DB	 0
_TEXT	ENDS
text$x	SEGMENT
$L192145:
  0008a	8b f4		 mov	 esi, esp
  0008c	8d 4d b8	 lea	 ecx, DWORD PTR $T192134[ebp]
  0008f	ff 15 00 00 00
	00		 call	 DWORD PTR __imp_??1?$basic_string@DU?$char_traits@D@std@@V?$allocator@D@2@@std@@QAE@XZ
  00095	3b f4		 cmp	 esi, esp
  00097	e9 00 00 00 00	 jmp	 __RTC_CheckEsp
$L192146:
  0009c	8b f4		 mov	 esi, esp
  0009e	8d 4d 9c	 lea	 ecx, DWORD PTR $T192135[ebp]
  000a1	ff 15 00 00 00
	00		 call	 DWORD PTR __imp_??1?$basic_string@DU?$char_traits@D@std@@V?$allocator@D@2@@std@@QAE@XZ
  000a7	3b f4		 cmp	 esi, esp
  000a9	e9 00 00 00 00	 jmp	 __RTC_CheckEsp
$L192150:
  000ae	8b f4		 mov	 esi, esp
  000b0	8b 4d 8c	 mov	 ecx, DWORD PTR $T192139[ebp]
  000b3	ff 15 00 00 00
	00		 call	 DWORD PTR __imp_??1?$CStringT@DV?$StrTraitMFC_DLL@DV?$ChTraitsCRT@D@ATL@@@@@ATL@@QAE@XZ
  000b9	3b f4		 cmp	 esi, esp
  000bb	e9 00 00 00 00	 jmp	 __RTC_CheckEsp
$L192152:
  000c0	8b f4		 mov	 esi, esp
  000c2	8b 4d 84	 mov	 ecx, DWORD PTR $T192141[ebp]
  000c5	ff 15 00 00 00
	00		 call	 DWORD PTR __imp_??1?$CStringT@DV?$StrTraitMFC_DLL@DV?$ChTraitsCRT@D@ATL@@@@@ATL@@QAE@XZ
  000cb	3b f4		 cmp	 esi, esp
  000cd	e9 00 00 00 00	 jmp	 __RTC_CheckEsp
$L192154:
  000d2	8b f4		 mov	 esi, esp
  000d4	8d 8d 64 ff ff
	ff		 lea	 ecx, DWORD PTR $T192143[ebp]
  000da	ff 15 00 00 00
	00		 call	 DWORD PTR __imp_??1?$basic_string@DU?$char_traits@D@std@@V?$allocator@D@2@@std@@QAE@XZ
  000e0	3b f4		 cmp	 esi, esp
  000e2	e9 00 00 00 00	 jmp	 __RTC_CheckEsp
$L192155:
  000e7	8b f4		 mov	 esi, esp
  000e9	8d 8d 48 ff ff
	ff		 lea	 ecx, DWORD PTR $T192144[ebp]
  000ef	ff 15 00 00 00
	00		 call	 DWORD PTR __imp_??1?$basic_string@DU?$char_traits@D@std@@V?$allocator@D@2@@std@@QAE@XZ
  000f5	3b f4		 cmp	 esi, esp
  000f7	e9 00 00 00 00	 jmp	 __RTC_CheckEsp
__ehhandler$?OnCreate@WebGamePlayingWnd@@IAEHPAUtagCREATESTRUCTA@@@Z:
  000fc	b8 00 00 00 00	 mov	 eax, OFFSET FLAT:$T192157
  00101	e9 00 00 00 00	 jmp	 ___CxxFrameHandler
text$x	ENDS
?OnCreate@WebGamePlayingWnd@@IAEHPAUtagCREATESTRUCTA@@@Z ENDP ; WebGamePlayingWnd::OnCreate
PUBLIC	?LoadSkin@WebGamePlayingWnd@@QAEXXZ		; WebGamePlayingWnd::LoadSkin
; Function compile flags: /Odt /RTCsu
_TEXT	SEGMENT
_this$ = -4						; size = 4
?LoadSkin@WebGamePlayingWnd@@QAEXXZ PROC NEAR		; WebGamePlayingWnd::LoadSkin
; _this$ = ecx

; 71   : {

  00790	55		 push	 ebp
  00791	8b ec		 mov	 ebp, esp
  00793	51		 push	 ecx
  00794	c7 45 fc cc cc
	cc cc		 mov	 DWORD PTR [ebp-4], -858993460 ; ccccccccH
  0079b	89 4d fc	 mov	 DWORD PTR _this$[ebp], ecx

; 72   : }

  0079e	8b e5		 mov	 esp, ebp
  007a0	5d		 pop	 ebp
  007a1	c3		 ret	 0
?LoadSkin@WebGamePlayingWnd@@QAEXXZ ENDP		; WebGamePlayingWnd::LoadSkin
_TEXT	ENDS
PUBLIC	?Init@WebGamePlayingWnd@@QAEXXZ			; WebGamePlayingWnd::Init
EXTRN	?Init@MyWebBrowserWnd@@QAEXXZ:NEAR		; MyWebBrowserWnd::Init
EXTRN	??0CRect@@QAE@XZ:NEAR				; CRect::CRect
EXTRN	?IsRectEmpty@CRect@@QBEHXZ:NEAR			; CRect::IsRectEmpty
EXTRN	?GetParent@CWnd@@QBEPAV1@XZ:NEAR		; CWnd::GetParent
xdata$x	SEGMENT
$T192183 DD	0ffffffffH
	DD	FLAT:$L192171
	DD	00H
	DD	FLAT:$L192172
	DD	0ffffffffH
	DD	FLAT:$L192173
	DD	0ffffffffH
	DD	FLAT:$L192174
	DD	0ffffffffH
	DD	FLAT:$L192175
	DD	04H
	DD	FLAT:$L192176
$T192178 DD	019930520H
	DD	06H
	DD	FLAT:$T192183
	DD	2 DUP(00H)
	DD	2 DUP(00H)
; Function compile flags: /Odt /RTCsu
xdata$x	ENDS
_TEXT	SEGMENT
tv151 = -192						; size = 4
tv146 = -188						; size = 4
tv193 = -184						; size = 4
tv201 = -180						; size = 4
tv87 = -176						; size = 4
tv82 = -172						; size = 4
tv189 = -168						; size = 4
tv198 = -164						; size = 4
$T192170 = -160						; size = 28
$T192169 = -132						; size = 28
$T192168 = -104						; size = 4
$T192167 = -100						; size = 4
$T192166 = -96						; size = 28
$T192165 = -68						; size = 28
_rc$ = -36						; size = 16
_this$ = -16						; size = 4
__$EHRec$ = -12						; size = 12
?Init@WebGamePlayingWnd@@QAEXXZ PROC NEAR		; WebGamePlayingWnd::Init
; _this$ = ecx

; 75   : {

  007b0	55		 push	 ebp
  007b1	8b ec		 mov	 ebp, esp
  007b3	6a ff		 push	 -1
  007b5	68 00 00 00 00	 push	 __ehhandler$?Init@WebGamePlayingWnd@@QAEXXZ
  007ba	64 a1 00 00 00
	00		 mov	 eax, DWORD PTR fs:__except_list
  007c0	50		 push	 eax
  007c1	64 89 25 00 00
	00 00		 mov	 DWORD PTR fs:__except_list, esp
  007c8	81 ec b4 00 00
	00		 sub	 esp, 180		; 000000b4H
  007ce	56		 push	 esi
  007cf	57		 push	 edi
  007d0	51		 push	 ecx
  007d1	8d bd 40 ff ff
	ff		 lea	 edi, DWORD PTR [ebp-192]
  007d7	b9 2d 00 00 00	 mov	 ecx, 45			; 0000002dH
  007dc	b8 cc cc cc cc	 mov	 eax, -858993460		; ccccccccH
  007e1	f3 ab		 rep stosd
  007e3	59		 pop	 ecx
  007e4	89 4d f0	 mov	 DWORD PTR _this$[ebp], ecx

; 76   : 	YL_Log("WebGamePlayingWnd.txt", LOG_DEBUG, "WebGamePlayingWnd::Init", "===IN");

  007e7	8b f4		 mov	 esi, esp
  007e9	68 00 00 00 00	 push	 OFFSET FLAT:$SG191010
  007ee	8d 4d bc	 lea	 ecx, DWORD PTR $T192165[ebp]
  007f1	ff 15 00 00 00
	00		 call	 DWORD PTR __imp_??0?$basic_string@DU?$char_traits@D@std@@V?$allocator@D@2@@std@@QAE@PBD@Z
  007f7	3b f4		 cmp	 esi, esp
  007f9	e8 00 00 00 00	 call	 __RTC_CheckEsp
  007fe	c7 45 fc 00 00
	00 00		 mov	 DWORD PTR __$EHRec$[ebp+8], 0
  00805	8b f4		 mov	 esi, esp
  00807	68 00 00 00 00	 push	 OFFSET FLAT:$SG191011
  0080c	8d 4d a0	 lea	 ecx, DWORD PTR $T192166[ebp]
  0080f	ff 15 00 00 00
	00		 call	 DWORD PTR __imp_??0?$basic_string@DU?$char_traits@D@std@@V?$allocator@D@2@@std@@QAE@PBD@Z
  00815	3b f4		 cmp	 esi, esp
  00817	e8 00 00 00 00	 call	 __RTC_CheckEsp
  0081c	c6 45 fc 01	 mov	 BYTE PTR __$EHRec$[ebp+8], 1
  00820	8b f4		 mov	 esi, esp
  00822	68 00 00 00 00	 push	 OFFSET FLAT:$SG191009
  00827	8d 45 bc	 lea	 eax, DWORD PTR $T192165[ebp]
  0082a	50		 push	 eax
  0082b	6a 00		 push	 0
  0082d	8d 4d a0	 lea	 ecx, DWORD PTR $T192166[ebp]
  00830	51		 push	 ecx
  00831	ff 15 00 00 00
	00		 call	 DWORD PTR __imp_?YL_Log@@YAXABV?$basic_string@DU?$char_traits@D@std@@V?$allocator@D@2@@std@@H0PBDZZ
  00837	83 c4 10	 add	 esp, 16			; 00000010H
  0083a	3b f4		 cmp	 esi, esp
  0083c	e8 00 00 00 00	 call	 __RTC_CheckEsp
  00841	c6 45 fc 00	 mov	 BYTE PTR __$EHRec$[ebp+8], 0
  00845	8b f4		 mov	 esi, esp
  00847	8d 4d a0	 lea	 ecx, DWORD PTR $T192166[ebp]
  0084a	ff 15 00 00 00
	00		 call	 DWORD PTR __imp_??1?$basic_string@DU?$char_traits@D@std@@V?$allocator@D@2@@std@@QAE@XZ
  00850	3b f4		 cmp	 esi, esp
  00852	e8 00 00 00 00	 call	 __RTC_CheckEsp
  00857	c7 45 fc ff ff
	ff ff		 mov	 DWORD PTR __$EHRec$[ebp+8], -1
  0085e	8b f4		 mov	 esi, esp
  00860	8d 4d bc	 lea	 ecx, DWORD PTR $T192165[ebp]
  00863	ff 15 00 00 00
	00		 call	 DWORD PTR __imp_??1?$basic_string@DU?$char_traits@D@std@@V?$allocator@D@2@@std@@QAE@XZ
  00869	3b f4		 cmp	 esi, esp
  0086b	e8 00 00 00 00	 call	 __RTC_CheckEsp

; 77   : 	m_pWndWebGame->Init();

  00870	8b 55 f0	 mov	 edx, DWORD PTR _this$[ebp]
  00873	8b 8a b4 00 00
	00		 mov	 ecx, DWORD PTR [edx+180]
  00879	e8 00 00 00 00	 call	 ?Init@MyWebBrowserWnd@@QAEXXZ ; MyWebBrowserWnd::Init

; 78   : 	//
; 79   : 	CRect rc;

  0087e	8d 4d dc	 lea	 ecx, DWORD PTR _rc$[ebp]
  00881	e8 00 00 00 00	 call	 ??0CRect@@QAE@XZ	; CRect::CRect

; 80   : 	AfxGetUIManager()->UIGetLayoutMgr()->GetPaneItemRect( GetParent(), "WebGameRight", rc );

  00886	8d 45 dc	 lea	 eax, DWORD PTR _rc$[ebp]
  00889	50		 push	 eax
  0088a	51		 push	 ecx
  0088b	8b cc		 mov	 ecx, esp
  0088d	89 65 9c	 mov	 DWORD PTR $T192167[ebp], esp
  00890	8b f4		 mov	 esi, esp
  00892	68 00 00 00 00	 push	 OFFSET FLAT:$SG191014
  00897	ff 15 00 00 00
	00		 call	 DWORD PTR __imp_??0?$CStringT@DV?$StrTraitMFC_DLL@DV?$ChTraitsCRT@D@ATL@@@@@ATL@@QAE@PBD@Z
  0089d	3b f4		 cmp	 esi, esp
  0089f	e8 00 00 00 00	 call	 __RTC_CheckEsp
  008a4	89 85 5c ff ff
	ff		 mov	 DWORD PTR tv198[ebp], eax
  008aa	8b 8d 5c ff ff
	ff		 mov	 ecx, DWORD PTR tv198[ebp]
  008b0	89 8d 58 ff ff
	ff		 mov	 DWORD PTR tv189[ebp], ecx
  008b6	c7 45 fc 02 00
	00 00		 mov	 DWORD PTR __$EHRec$[ebp+8], 2
  008bd	e8 00 00 00 00	 call	 ?AfxGetUIManager@@YAPAVIUIManager@@XZ ; AfxGetUIManager
  008c2	89 85 54 ff ff
	ff		 mov	 DWORD PTR tv82[ebp], eax
  008c8	8b f4		 mov	 esi, esp
  008ca	8b 95 54 ff ff
	ff		 mov	 edx, DWORD PTR tv82[ebp]
  008d0	8b 02		 mov	 eax, DWORD PTR [edx]
  008d2	8b 8d 54 ff ff
	ff		 mov	 ecx, DWORD PTR tv82[ebp]
  008d8	ff 50 24	 call	 DWORD PTR [eax+36]
  008db	3b f4		 cmp	 esi, esp
  008dd	e8 00 00 00 00	 call	 __RTC_CheckEsp
  008e2	89 85 50 ff ff
	ff		 mov	 DWORD PTR tv87[ebp], eax
  008e8	8b 4d f0	 mov	 ecx, DWORD PTR _this$[ebp]
  008eb	e8 00 00 00 00	 call	 ?GetParent@CWnd@@QBEPAV1@XZ ; CWnd::GetParent
  008f0	50		 push	 eax
  008f1	8b 8d 50 ff ff
	ff		 mov	 ecx, DWORD PTR tv87[ebp]
  008f7	8b 11		 mov	 edx, DWORD PTR [ecx]
  008f9	c7 45 fc ff ff
	ff ff		 mov	 DWORD PTR __$EHRec$[ebp+8], -1
  00900	8b 8d 50 ff ff
	ff		 mov	 ecx, DWORD PTR tv87[ebp]
  00906	ff 52 48	 call	 DWORD PTR [edx+72]

; 81   : 	if( rc.IsRectEmpty() )

  00909	8d 4d dc	 lea	 ecx, DWORD PTR _rc$[ebp]
  0090c	e8 00 00 00 00	 call	 ?IsRectEmpty@CRect@@QBEHXZ ; CRect::IsRectEmpty
  00911	85 c0		 test	 eax, eax
  00913	0f 84 a8 00 00
	00		 je	 $L191015

; 82   : 	{
; 83   : 		rc.left = rc.right - WIDTH_RIGHT_WEB;

  00919	8b 45 e4	 mov	 eax, DWORD PTR _rc$[ebp+8]
  0091c	2d dc 00 00 00	 sub	 eax, 220		; 000000dcH
  00921	89 45 dc	 mov	 DWORD PTR _rc$[ebp], eax

; 84   : 		AfxGetUIManager()->UIGetLayoutMgr()->SetPaneSize( GetParent(), "WebGameRight", rc , false);

  00924	6a 00		 push	 0
  00926	83 ec 10	 sub	 esp, 16			; 00000010H
  00929	8b cc		 mov	 ecx, esp
  0092b	8b 55 dc	 mov	 edx, DWORD PTR _rc$[ebp]
  0092e	89 11		 mov	 DWORD PTR [ecx], edx
  00930	8b 45 e0	 mov	 eax, DWORD PTR _rc$[ebp+4]
  00933	89 41 04	 mov	 DWORD PTR [ecx+4], eax
  00936	8b 55 e4	 mov	 edx, DWORD PTR _rc$[ebp+8]
  00939	89 51 08	 mov	 DWORD PTR [ecx+8], edx
  0093c	8b 45 e8	 mov	 eax, DWORD PTR _rc$[ebp+12]
  0093f	89 41 0c	 mov	 DWORD PTR [ecx+12], eax
  00942	51		 push	 ecx
  00943	8b cc		 mov	 ecx, esp
  00945	89 65 98	 mov	 DWORD PTR $T192168[ebp], esp
  00948	8b f4		 mov	 esi, esp
  0094a	68 00 00 00 00	 push	 OFFSET FLAT:$SG191017
  0094f	ff 15 00 00 00
	00		 call	 DWORD PTR __imp_??0?$CStringT@DV?$StrTraitMFC_DLL@DV?$ChTraitsCRT@D@ATL@@@@@ATL@@QAE@PBD@Z
  00955	3b f4		 cmp	 esi, esp
  00957	e8 00 00 00 00	 call	 __RTC_CheckEsp
  0095c	89 85 4c ff ff
	ff		 mov	 DWORD PTR tv201[ebp], eax
  00962	8b 8d 4c ff ff
	ff		 mov	 ecx, DWORD PTR tv201[ebp]
  00968	89 8d 48 ff ff
	ff		 mov	 DWORD PTR tv193[ebp], ecx
  0096e	c7 45 fc 03 00
	00 00		 mov	 DWORD PTR __$EHRec$[ebp+8], 3
  00975	e8 00 00 00 00	 call	 ?AfxGetUIManager@@YAPAVIUIManager@@XZ ; AfxGetUIManager
  0097a	89 85 44 ff ff
	ff		 mov	 DWORD PTR tv146[ebp], eax
  00980	8b f4		 mov	 esi, esp
  00982	8b 95 44 ff ff
	ff		 mov	 edx, DWORD PTR tv146[ebp]
  00988	8b 02		 mov	 eax, DWORD PTR [edx]
  0098a	8b 8d 44 ff ff
	ff		 mov	 ecx, DWORD PTR tv146[ebp]
  00990	ff 50 24	 call	 DWORD PTR [eax+36]
  00993	3b f4		 cmp	 esi, esp
  00995	e8 00 00 00 00	 call	 __RTC_CheckEsp
  0099a	89 85 40 ff ff
	ff		 mov	 DWORD PTR tv151[ebp], eax
  009a0	8b 4d f0	 mov	 ecx, DWORD PTR _this$[ebp]
  009a3	e8 00 00 00 00	 call	 ?GetParent@CWnd@@QBEPAV1@XZ ; CWnd::GetParent
  009a8	50		 push	 eax
  009a9	8b 8d 40 ff ff
	ff		 mov	 ecx, DWORD PTR tv151[ebp]
  009af	8b 11		 mov	 edx, DWORD PTR [ecx]
  009b1	c7 45 fc ff ff
	ff ff		 mov	 DWORD PTR __$EHRec$[ebp+8], -1
  009b8	8b 8d 40 ff ff
	ff		 mov	 ecx, DWORD PTR tv151[ebp]
  009be	ff 52 4c	 call	 DWORD PTR [edx+76]
$L191015:

; 85   : 	}	
; 86   : 	YL_Log("WebGamePlayingWnd.txt", LOG_DEBUG, "WebGamePlayingWnd::Init", "===OUT");

  009c1	8b f4		 mov	 esi, esp
  009c3	68 00 00 00 00	 push	 OFFSET FLAT:$SG191021
  009c8	8d 8d 7c ff ff
	ff		 lea	 ecx, DWORD PTR $T192169[ebp]
  009ce	ff 15 00 00 00
	00		 call	 DWORD PTR __imp_??0?$basic_string@DU?$char_traits@D@std@@V?$allocator@D@2@@std@@QAE@PBD@Z
  009d4	3b f4		 cmp	 esi, esp
  009d6	e8 00 00 00 00	 call	 __RTC_CheckEsp
  009db	c7 45 fc 04 00
	00 00		 mov	 DWORD PTR __$EHRec$[ebp+8], 4
  009e2	8b f4		 mov	 esi, esp
  009e4	68 00 00 00 00	 push	 OFFSET FLAT:$SG191022
  009e9	8d 8d 60 ff ff
	ff		 lea	 ecx, DWORD PTR $T192170[ebp]
  009ef	ff 15 00 00 00
	00		 call	 DWORD PTR __imp_??0?$basic_string@DU?$char_traits@D@std@@V?$allocator@D@2@@std@@QAE@PBD@Z
  009f5	3b f4		 cmp	 esi, esp
  009f7	e8 00 00 00 00	 call	 __RTC_CheckEsp
  009fc	c6 45 fc 05	 mov	 BYTE PTR __$EHRec$[ebp+8], 5
  00a00	8b f4		 mov	 esi, esp
  00a02	68 00 00 00 00	 push	 OFFSET FLAT:$SG191020
  00a07	8d 85 7c ff ff
	ff		 lea	 eax, DWORD PTR $T192169[ebp]
  00a0d	50		 push	 eax
  00a0e	6a 00		 push	 0
  00a10	8d 8d 60 ff ff
	ff		 lea	 ecx, DWORD PTR $T192170[ebp]
  00a16	51		 push	 ecx
  00a17	ff 15 00 00 00
	00		 call	 DWORD PTR __imp_?YL_Log@@YAXABV?$basic_string@DU?$char_traits@D@std@@V?$allocator@D@2@@std@@H0PBDZZ
  00a1d	83 c4 10	 add	 esp, 16			; 00000010H
  00a20	3b f4		 cmp	 esi, esp
  00a22	e8 00 00 00 00	 call	 __RTC_CheckEsp
  00a27	c6 45 fc 04	 mov	 BYTE PTR __$EHRec$[ebp+8], 4
  00a2b	8b f4		 mov	 esi, esp
  00a2d	8d 8d 60 ff ff
	ff		 lea	 ecx, DWORD PTR $T192170[ebp]
  00a33	ff 15 00 00 00
	00		 call	 DWORD PTR __imp_??1?$basic_string@DU?$char_traits@D@std@@V?$allocator@D@2@@std@@QAE@XZ
  00a39	3b f4		 cmp	 esi, esp
  00a3b	e8 00 00 00 00	 call	 __RTC_CheckEsp
  00a40	c7 45 fc ff ff
	ff ff		 mov	 DWORD PTR __$EHRec$[ebp+8], -1
  00a47	8b f4		 mov	 esi, esp
  00a49	8d 8d 7c ff ff
	ff		 lea	 ecx, DWORD PTR $T192169[ebp]
  00a4f	ff 15 00 00 00
	00		 call	 DWORD PTR __imp_??1?$basic_string@DU?$char_traits@D@std@@V?$allocator@D@2@@std@@QAE@XZ
  00a55	3b f4		 cmp	 esi, esp
  00a57	e8 00 00 00 00	 call	 __RTC_CheckEsp

; 87   : }

  00a5c	52		 push	 edx
  00a5d	8b cd		 mov	 ecx, ebp
  00a5f	50		 push	 eax
  00a60	8d 15 00 00 00
	00		 lea	 edx, DWORD PTR $L192182
  00a66	e8 00 00 00 00	 call	 @_RTC_CheckStackVars@8
  00a6b	58		 pop	 eax
  00a6c	5a		 pop	 edx
  00a6d	8b 4d f4	 mov	 ecx, DWORD PTR __$EHRec$[ebp]
  00a70	64 89 0d 00 00
	00 00		 mov	 DWORD PTR fs:__except_list, ecx
  00a77	5f		 pop	 edi
  00a78	5e		 pop	 esi
  00a79	81 c4 c0 00 00
	00		 add	 esp, 192		; 000000c0H
  00a7f	3b ec		 cmp	 ebp, esp
  00a81	e8 00 00 00 00	 call	 __RTC_CheckEsp
  00a86	8b e5		 mov	 esp, ebp
  00a88	5d		 pop	 ebp
  00a89	c3		 ret	 0
$L192182:
  00a8a	01 00 00 00	 DD	 1
  00a8e	00 00 00 00	 DD	 $L192181
$L192181:
  00a92	dc ff ff ff	 DD	 -36			; ffffffdcH
  00a96	10 00 00 00	 DD	 16			; 00000010H
  00a9a	00 00 00 00	 DD	 $L192179
$L192179:
  00a9e	72		 DB	 114			; 00000072H
  00a9f	63		 DB	 99			; 00000063H
  00aa0	00		 DB	 0
_TEXT	ENDS
text$x	SEGMENT
$L192171:
  00106	8b f4		 mov	 esi, esp
  00108	8d 4d bc	 lea	 ecx, DWORD PTR $T192165[ebp]
  0010b	ff 15 00 00 00
	00		 call	 DWORD PTR __imp_??1?$basic_string@DU?$char_traits@D@std@@V?$allocator@D@2@@std@@QAE@XZ
  00111	3b f4		 cmp	 esi, esp
  00113	e9 00 00 00 00	 jmp	 __RTC_CheckEsp
$L192172:
  00118	8b f4		 mov	 esi, esp
  0011a	8d 4d a0	 lea	 ecx, DWORD PTR $T192166[ebp]
  0011d	ff 15 00 00 00
	00		 call	 DWORD PTR __imp_??1?$basic_string@DU?$char_traits@D@std@@V?$allocator@D@2@@std@@QAE@XZ
  00123	3b f4		 cmp	 esi, esp
  00125	e9 00 00 00 00	 jmp	 __RTC_CheckEsp
$L192173:
  0012a	8b f4		 mov	 esi, esp
  0012c	8b 4d 9c	 mov	 ecx, DWORD PTR $T192167[ebp]
  0012f	ff 15 00 00 00
	00		 call	 DWORD PTR __imp_??1?$CStringT@DV?$StrTraitMFC_DLL@DV?$ChTraitsCRT@D@ATL@@@@@ATL@@QAE@XZ
  00135	3b f4		 cmp	 esi, esp
  00137	e9 00 00 00 00	 jmp	 __RTC_CheckEsp
$L192174:
  0013c	8b f4		 mov	 esi, esp
  0013e	8b 4d 98	 mov	 ecx, DWORD PTR $T192168[ebp]
  00141	ff 15 00 00 00
	00		 call	 DWORD PTR __imp_??1?$CStringT@DV?$StrTraitMFC_DLL@DV?$ChTraitsCRT@D@ATL@@@@@ATL@@QAE@XZ
  00147	3b f4		 cmp	 esi, esp
  00149	e9 00 00 00 00	 jmp	 __RTC_CheckEsp
$L192175:
  0014e	8b f4		 mov	 esi, esp
  00150	8d 8d 7c ff ff
	ff		 lea	 ecx, DWORD PTR $T192169[ebp]
  00156	ff 15 00 00 00
	00		 call	 DWORD PTR __imp_??1?$basic_string@DU?$char_traits@D@std@@V?$allocator@D@2@@std@@QAE@XZ
  0015c	3b f4		 cmp	 esi, esp
  0015e	e9 00 00 00 00	 jmp	 __RTC_CheckEsp
$L192176:
  00163	8b f4		 mov	 esi, esp
  00165	8d 8d 60 ff ff
	ff		 lea	 ecx, DWORD PTR $T192170[ebp]
  0016b	ff 15 00 00 00
	00		 call	 DWORD PTR __imp_??1?$basic_string@DU?$char_traits@D@std@@V?$allocator@D@2@@std@@QAE@XZ
  00171	3b f4		 cmp	 esi, esp
  00173	e9 00 00 00 00	 jmp	 __RTC_CheckEsp
__ehhandler$?Init@WebGamePlayingWnd@@QAEXXZ:
  00178	b8 00 00 00 00	 mov	 eax, OFFSET FLAT:$T192178
  0017d	e9 00 00 00 00	 jmp	 ___CxxFrameHandler
text$x	ENDS
?Init@WebGamePlayingWnd@@QAEXXZ ENDP			; WebGamePlayingWnd::Init
PUBLIC	??4WEB_GAME@@QAEAAU0@ABU0@@Z			; WEB_GAME::operator=
PUBLIC	?SetGameEntry@WebGamePlayingWnd@@QAEXUWEB_GAME@@@Z ; WebGamePlayingWnd::SetGameEntry
EXTRN	?Navigate@MyWebBrowserWnd@@QAEXV?$basic_string@DU?$char_traits@D@std@@V?$allocator@D@2@@std@@@Z:NEAR ; MyWebBrowserWnd::Navigate
EXTRN	__imp_??0?$basic_string@DU?$char_traits@D@std@@V?$allocator@D@2@@std@@QAE@ABV01@@Z:NEAR
xdata$x	SEGMENT
$T192199 DD	0ffffffffH
	DD	FLAT:$L192190
	DD	00H
	DD	FLAT:$L192191
	DD	01H
	DD	FLAT:$L192192
	DD	00H
	DD	FLAT:$L192194
	DD	03H
	DD	FLAT:$L192195
$T192197 DD	019930520H
	DD	05H
	DD	FLAT:$T192199
	DD	2 DUP(00H)
	DD	2 DUP(00H)
; Function compile flags: /Odt /RTCsu
xdata$x	ENDS
_TEXT	SEGMENT
tv148 = -136						; size = 4
$T192189 = -132						; size = 28
$T192188 = -104						; size = 28
$T192187 = -76						; size = 4
$T192186 = -72						; size = 28
$T192185 = -44						; size = 28
_this$ = -16						; size = 4
__$EHRec$ = -12						; size = 12
_wg$ = 8						; size = 84
?SetGameEntry@WebGamePlayingWnd@@QAEXUWEB_GAME@@@Z PROC NEAR ; WebGamePlayingWnd::SetGameEntry
; _this$ = ecx

; 90   : {

  00ab0	55		 push	 ebp
  00ab1	8b ec		 mov	 ebp, esp
  00ab3	6a ff		 push	 -1
  00ab5	68 00 00 00 00	 push	 __ehhandler$?SetGameEntry@WebGamePlayingWnd@@QAEXUWEB_GAME@@@Z
  00aba	64 a1 00 00 00
	00		 mov	 eax, DWORD PTR fs:__except_list
  00ac0	50		 push	 eax
  00ac1	64 89 25 00 00
	00 00		 mov	 DWORD PTR fs:__except_list, esp
  00ac8	83 ec 7c	 sub	 esp, 124		; 0000007cH
  00acb	56		 push	 esi
  00acc	57		 push	 edi
  00acd	51		 push	 ecx
  00ace	8d bd 78 ff ff
	ff		 lea	 edi, DWORD PTR [ebp-136]
  00ad4	b9 1f 00 00 00	 mov	 ecx, 31			; 0000001fH
  00ad9	b8 cc cc cc cc	 mov	 eax, -858993460		; ccccccccH
  00ade	f3 ab		 rep stosd
  00ae0	59		 pop	 ecx
  00ae1	89 4d f0	 mov	 DWORD PTR _this$[ebp], ecx
  00ae4	c7 45 fc 00 00
	00 00		 mov	 DWORD PTR __$EHRec$[ebp+8], 0

; 91   : 	YL_Log("WebGamePlayingWnd.txt", LOG_DEBUG, "WebGamePlayingWnd::SetGameEntry", "===IN");

  00aeb	8b f4		 mov	 esi, esp
  00aed	68 00 00 00 00	 push	 OFFSET FLAT:$SG191030
  00af2	8d 4d d4	 lea	 ecx, DWORD PTR $T192185[ebp]
  00af5	ff 15 00 00 00
	00		 call	 DWORD PTR __imp_??0?$basic_string@DU?$char_traits@D@std@@V?$allocator@D@2@@std@@QAE@PBD@Z
  00afb	3b f4		 cmp	 esi, esp
  00afd	e8 00 00 00 00	 call	 __RTC_CheckEsp
  00b02	c6 45 fc 01	 mov	 BYTE PTR __$EHRec$[ebp+8], 1
  00b06	8b f4		 mov	 esi, esp
  00b08	68 00 00 00 00	 push	 OFFSET FLAT:$SG191031
  00b0d	8d 4d b8	 lea	 ecx, DWORD PTR $T192186[ebp]
  00b10	ff 15 00 00 00
	00		 call	 DWORD PTR __imp_??0?$basic_string@DU?$char_traits@D@std@@V?$allocator@D@2@@std@@QAE@PBD@Z
  00b16	3b f4		 cmp	 esi, esp
  00b18	e8 00 00 00 00	 call	 __RTC_CheckEsp
  00b1d	c6 45 fc 02	 mov	 BYTE PTR __$EHRec$[ebp+8], 2
  00b21	8b f4		 mov	 esi, esp
  00b23	68 00 00 00 00	 push	 OFFSET FLAT:$SG191029
  00b28	8d 45 d4	 lea	 eax, DWORD PTR $T192185[ebp]
  00b2b	50		 push	 eax
  00b2c	6a 00		 push	 0
  00b2e	8d 4d b8	 lea	 ecx, DWORD PTR $T192186[ebp]
  00b31	51		 push	 ecx
  00b32	ff 15 00 00 00
	00		 call	 DWORD PTR __imp_?YL_Log@@YAXABV?$basic_string@DU?$char_traits@D@std@@V?$allocator@D@2@@std@@H0PBDZZ
  00b38	83 c4 10	 add	 esp, 16			; 00000010H
  00b3b	3b f4		 cmp	 esi, esp
  00b3d	e8 00 00 00 00	 call	 __RTC_CheckEsp
  00b42	c6 45 fc 01	 mov	 BYTE PTR __$EHRec$[ebp+8], 1
  00b46	8b f4		 mov	 esi, esp
  00b48	8d 4d b8	 lea	 ecx, DWORD PTR $T192186[ebp]
  00b4b	ff 15 00 00 00
	00		 call	 DWORD PTR __imp_??1?$basic_string@DU?$char_traits@D@std@@V?$allocator@D@2@@std@@QAE@XZ
  00b51	3b f4		 cmp	 esi, esp
  00b53	e8 00 00 00 00	 call	 __RTC_CheckEsp
  00b58	c6 45 fc 00	 mov	 BYTE PTR __$EHRec$[ebp+8], 0
  00b5c	8b f4		 mov	 esi, esp
  00b5e	8d 4d d4	 lea	 ecx, DWORD PTR $T192185[ebp]
  00b61	ff 15 00 00 00
	00		 call	 DWORD PTR __imp_??1?$basic_string@DU?$char_traits@D@std@@V?$allocator@D@2@@std@@QAE@XZ
  00b67	3b f4		 cmp	 esi, esp
  00b69	e8 00 00 00 00	 call	 __RTC_CheckEsp

; 92   : 
; 93   : 	m_webGame = wg;

  00b6e	8d 55 08	 lea	 edx, DWORD PTR _wg$[ebp]
  00b71	52		 push	 edx
  00b72	8b 4d f0	 mov	 ecx, DWORD PTR _this$[ebp]
  00b75	83 c1 58	 add	 ecx, 88			; 00000058H
  00b78	e8 00 00 00 00	 call	 ??4WEB_GAME@@QAEAAU0@ABU0@@Z

; 94   : 	m_pWndWebGame->Navigate( m_webGame.strGameUrl );

  00b7d	8b 45 f0	 mov	 eax, DWORD PTR _this$[ebp]
  00b80	05 90 00 00 00	 add	 eax, 144		; 00000090H
  00b85	83 ec 1c	 sub	 esp, 28			; 0000001cH
  00b88	8b cc		 mov	 ecx, esp
  00b8a	89 65 b4	 mov	 DWORD PTR $T192187[ebp], esp
  00b8d	8b f4		 mov	 esi, esp
  00b8f	50		 push	 eax
  00b90	ff 15 00 00 00
	00		 call	 DWORD PTR __imp_??0?$basic_string@DU?$char_traits@D@std@@V?$allocator@D@2@@std@@QAE@ABV01@@Z
  00b96	3b f4		 cmp	 esi, esp
  00b98	e8 00 00 00 00	 call	 __RTC_CheckEsp
  00b9d	89 85 78 ff ff
	ff		 mov	 DWORD PTR tv148[ebp], eax
  00ba3	8b 4d f0	 mov	 ecx, DWORD PTR _this$[ebp]
  00ba6	8b 89 b4 00 00
	00		 mov	 ecx, DWORD PTR [ecx+180]
  00bac	e8 00 00 00 00	 call	 ?Navigate@MyWebBrowserWnd@@QAEXV?$basic_string@DU?$char_traits@D@std@@V?$allocator@D@2@@std@@@Z ; MyWebBrowserWnd::Navigate

; 95   : 	UpdateAllWnd();

  00bb1	8b 4d f0	 mov	 ecx, DWORD PTR _this$[ebp]
  00bb4	e8 00 00 00 00	 call	 ?UpdateAllWnd@WebGamePlayingWnd@@AAEXXZ ; WebGamePlayingWnd::UpdateAllWnd

; 96   : 	YL_Log("WebGamePlayingWnd.txt", LOG_DEBUG, "WebGamePlayingWnd::SetGameEntry", "===OUT");

  00bb9	8b f4		 mov	 esi, esp
  00bbb	68 00 00 00 00	 push	 OFFSET FLAT:$SG191036
  00bc0	8d 4d 98	 lea	 ecx, DWORD PTR $T192188[ebp]
  00bc3	ff 15 00 00 00
	00		 call	 DWORD PTR __imp_??0?$basic_string@DU?$char_traits@D@std@@V?$allocator@D@2@@std@@QAE@PBD@Z
  00bc9	3b f4		 cmp	 esi, esp
  00bcb	e8 00 00 00 00	 call	 __RTC_CheckEsp
  00bd0	c6 45 fc 03	 mov	 BYTE PTR __$EHRec$[ebp+8], 3
  00bd4	8b f4		 mov	 esi, esp
  00bd6	68 00 00 00 00	 push	 OFFSET FLAT:$SG191037
  00bdb	8d 8d 7c ff ff
	ff		 lea	 ecx, DWORD PTR $T192189[ebp]
  00be1	ff 15 00 00 00
	00		 call	 DWORD PTR __imp_??0?$basic_string@DU?$char_traits@D@std@@V?$allocator@D@2@@std@@QAE@PBD@Z
  00be7	3b f4		 cmp	 esi, esp
  00be9	e8 00 00 00 00	 call	 __RTC_CheckEsp
  00bee	c6 45 fc 04	 mov	 BYTE PTR __$EHRec$[ebp+8], 4
  00bf2	8b f4		 mov	 esi, esp
  00bf4	68 00 00 00 00	 push	 OFFSET FLAT:$SG191035
  00bf9	8d 55 98	 lea	 edx, DWORD PTR $T192188[ebp]
  00bfc	52		 push	 edx
  00bfd	6a 00		 push	 0
  00bff	8d 85 7c ff ff
	ff		 lea	 eax, DWORD PTR $T192189[ebp]
  00c05	50		 push	 eax
  00c06	ff 15 00 00 00
	00		 call	 DWORD PTR __imp_?YL_Log@@YAXABV?$basic_string@DU?$char_traits@D@std@@V?$allocator@D@2@@std@@H0PBDZZ
  00c0c	83 c4 10	 add	 esp, 16			; 00000010H
  00c0f	3b f4		 cmp	 esi, esp
  00c11	e8 00 00 00 00	 call	 __RTC_CheckEsp
  00c16	c6 45 fc 03	 mov	 BYTE PTR __$EHRec$[ebp+8], 3
  00c1a	8b f4		 mov	 esi, esp
  00c1c	8d 8d 7c ff ff
	ff		 lea	 ecx, DWORD PTR $T192189[ebp]
  00c22	ff 15 00 00 00
	00		 call	 DWORD PTR __imp_??1?$basic_string@DU?$char_traits@D@std@@V?$allocator@D@2@@std@@QAE@XZ
  00c28	3b f4		 cmp	 esi, esp
  00c2a	e8 00 00 00 00	 call	 __RTC_CheckEsp
  00c2f	c6 45 fc 00	 mov	 BYTE PTR __$EHRec$[ebp+8], 0
  00c33	8b f4		 mov	 esi, esp
  00c35	8d 4d 98	 lea	 ecx, DWORD PTR $T192188[ebp]
  00c38	ff 15 00 00 00
	00		 call	 DWORD PTR __imp_??1?$basic_string@DU?$char_traits@D@std@@V?$allocator@D@2@@std@@QAE@XZ
  00c3e	3b f4		 cmp	 esi, esp
  00c40	e8 00 00 00 00	 call	 __RTC_CheckEsp

; 97   : }

  00c45	c7 45 fc ff ff
	ff ff		 mov	 DWORD PTR __$EHRec$[ebp+8], -1
  00c4c	8d 4d 08	 lea	 ecx, DWORD PTR _wg$[ebp]
  00c4f	e8 00 00 00 00	 call	 ??1WEB_GAME@@QAE@XZ
  00c54	8b 4d f4	 mov	 ecx, DWORD PTR __$EHRec$[ebp]
  00c57	64 89 0d 00 00
	00 00		 mov	 DWORD PTR fs:__except_list, ecx
  00c5e	5f		 pop	 edi
  00c5f	5e		 pop	 esi
  00c60	81 c4 88 00 00
	00		 add	 esp, 136		; 00000088H
  00c66	3b ec		 cmp	 ebp, esp
  00c68	e8 00 00 00 00	 call	 __RTC_CheckEsp
  00c6d	8b e5		 mov	 esp, ebp
  00c6f	5d		 pop	 ebp
  00c70	c2 54 00	 ret	 84			; 00000054H
_TEXT	ENDS
text$x	SEGMENT
$L192190:
  00182	8d 4d 08	 lea	 ecx, DWORD PTR _wg$[ebp]
  00185	e9 00 00 00 00	 jmp	 ??1WEB_GAME@@QAE@XZ
$L192191:
  0018a	8b f4		 mov	 esi, esp
  0018c	8d 4d d4	 lea	 ecx, DWORD PTR $T192185[ebp]
  0018f	ff 15 00 00 00
	00		 call	 DWORD PTR __imp_??1?$basic_string@DU?$char_traits@D@std@@V?$allocator@D@2@@std@@QAE@XZ
  00195	3b f4		 cmp	 esi, esp
  00197	e9 00 00 00 00	 jmp	 __RTC_CheckEsp
$L192192:
  0019c	8b f4		 mov	 esi, esp
  0019e	8d 4d b8	 lea	 ecx, DWORD PTR $T192186[ebp]
  001a1	ff 15 00 00 00
	00		 call	 DWORD PTR __imp_??1?$basic_string@DU?$char_traits@D@std@@V?$allocator@D@2@@std@@QAE@XZ
  001a7	3b f4		 cmp	 esi, esp
  001a9	e9 00 00 00 00	 jmp	 __RTC_CheckEsp
$L192194:
  001ae	8b f4		 mov	 esi, esp
  001b0	8d 4d 98	 lea	 ecx, DWORD PTR $T192188[ebp]
  001b3	ff 15 00 00 00
	00		 call	 DWORD PTR __imp_??1?$basic_string@DU?$char_traits@D@std@@V?$allocator@D@2@@std@@QAE@XZ
  001b9	3b f4		 cmp	 esi, esp
  001bb	e9 00 00 00 00	 jmp	 __RTC_CheckEsp
$L192195:
  001c0	8b f4		 mov	 esi, esp
  001c2	8d 8d 7c ff ff
	ff		 lea	 ecx, DWORD PTR $T192189[ebp]
  001c8	ff 15 00 00 00
	00		 call	 DWORD PTR __imp_??1?$basic_string@DU?$char_traits@D@std@@V?$allocator@D@2@@std@@QAE@XZ
  001ce	3b f4		 cmp	 esi, esp
  001d0	e9 00 00 00 00	 jmp	 __RTC_CheckEsp
__ehhandler$?SetGameEntry@WebGamePlayingWnd@@QAEXUWEB_GAME@@@Z:
  001d5	b8 00 00 00 00	 mov	 eax, OFFSET FLAT:$T192197
  001da	e9 00 00 00 00	 jmp	 ___CxxFrameHandler
text$x	ENDS
?SetGameEntry@WebGamePlayingWnd@@QAEXUWEB_GAME@@@Z ENDP	; WebGamePlayingWnd::SetGameEntry
EXTRN	__imp_??4?$basic_string@DU?$char_traits@D@std@@V?$allocator@D@2@@std@@QAEAAV01@ABV01@@Z:NEAR
; Function compile flags: /Odt /RTCsu
;	COMDAT ??4WEB_GAME@@QAEAAU0@ABU0@@Z
_TEXT	SEGMENT
_this$ = -4						; size = 4
___that$ = 8						; size = 4
??4WEB_GAME@@QAEAAU0@ABU0@@Z PROC NEAR			; WEB_GAME::operator=, COMDAT
; _this$ = ecx
  00000	55		 push	 ebp
  00001	8b ec		 mov	 ebp, esp
  00003	51		 push	 ecx
  00004	56		 push	 esi
  00005	c7 45 fc cc cc
	cc cc		 mov	 DWORD PTR [ebp-4], -858993460 ; ccccccccH
  0000c	89 4d fc	 mov	 DWORD PTR _this$[ebp], ecx
  0000f	8b f4		 mov	 esi, esp
  00011	8b 45 08	 mov	 eax, DWORD PTR ___that$[ebp]
  00014	50		 push	 eax
  00015	8b 4d fc	 mov	 ecx, DWORD PTR _this$[ebp]
  00018	ff 15 00 00 00
	00		 call	 DWORD PTR __imp_??4?$basic_string@DU?$char_traits@D@std@@V?$allocator@D@2@@std@@QAEAAV01@ABV01@@Z
  0001e	3b f4		 cmp	 esi, esp
  00020	e8 00 00 00 00	 call	 __RTC_CheckEsp
  00025	8b 4d 08	 mov	 ecx, DWORD PTR ___that$[ebp]
  00028	83 c1 1c	 add	 ecx, 28			; 0000001cH
  0002b	8b f4		 mov	 esi, esp
  0002d	51		 push	 ecx
  0002e	8b 4d fc	 mov	 ecx, DWORD PTR _this$[ebp]
  00031	83 c1 1c	 add	 ecx, 28			; 0000001cH
  00034	ff 15 00 00 00
	00		 call	 DWORD PTR __imp_??4?$basic_string@DU?$char_traits@D@std@@V?$allocator@D@2@@std@@QAEAAV01@ABV01@@Z
  0003a	3b f4		 cmp	 esi, esp
  0003c	e8 00 00 00 00	 call	 __RTC_CheckEsp
  00041	8b 55 08	 mov	 edx, DWORD PTR ___that$[ebp]
  00044	83 c2 38	 add	 edx, 56			; 00000038H
  00047	8b f4		 mov	 esi, esp
  00049	52		 push	 edx
  0004a	8b 4d fc	 mov	 ecx, DWORD PTR _this$[ebp]
  0004d	83 c1 38	 add	 ecx, 56			; 00000038H
  00050	ff 15 00 00 00
	00		 call	 DWORD PTR __imp_??4?$basic_string@DU?$char_traits@D@std@@V?$allocator@D@2@@std@@QAEAAV01@ABV01@@Z
  00056	3b f4		 cmp	 esi, esp
  00058	e8 00 00 00 00	 call	 __RTC_CheckEsp
  0005d	8b 45 fc	 mov	 eax, DWORD PTR _this$[ebp]
  00060	5e		 pop	 esi
  00061	83 c4 04	 add	 esp, 4
  00064	3b ec		 cmp	 ebp, esp
  00066	e8 00 00 00 00	 call	 __RTC_CheckEsp
  0006b	8b e5		 mov	 esp, ebp
  0006d	5d		 pop	 ebp
  0006e	c2 04 00	 ret	 4
??4WEB_GAME@@QAEAAU0@ABU0@@Z ENDP			; WEB_GAME::operator=
_TEXT	ENDS
EXTRN	?AfxGetDataManager2@@YAPAVIDataManager@@XZ:NEAR	; AfxGetDataManager2
EXTRN	?SetFocus@CWnd@@QAEPAV1@XZ:NEAR			; CWnd::SetFocus
xdata$x	SEGMENT
$T192213 DD	0ffffffffH
	DD	FLAT:$L192206
	DD	00H
	DD	FLAT:$L192207
	DD	0ffffffffH
	DD	FLAT:$L192208
	DD	02H
	DD	FLAT:$L192209
$T192211 DD	019930520H
	DD	04H
	DD	FLAT:$T192213
	DD	2 DUP(00H)
	DD	2 DUP(00H)
; Function compile flags: /Odt /RTCsu
xdata$x	ENDS
_TEXT	SEGMENT
tv144 = -152						; size = 4
tv138 = -148						; size = 4
tv133 = -144						; size = 4
tv95 = -140						; size = 4
tv87 = -136						; size = 4
tv81 = -132						; size = 4
$T192205 = -128						; size = 28
$T192204 = -100						; size = 28
$T192203 = -72						; size = 28
$T192202 = -44						; size = 28
_this$ = -16						; size = 4
__$EHRec$ = -12						; size = 12
?OnClickedFullScreen@WebGamePlayingWnd@@IAEXXZ PROC NEAR ; WebGamePlayingWnd::OnClickedFullScreen
; _this$ = ecx

; 100  : {

  00c80	55		 push	 ebp
  00c81	8b ec		 mov	 ebp, esp
  00c83	6a ff		 push	 -1
  00c85	68 00 00 00 00	 push	 __ehhandler$?OnClickedFullScreen@WebGamePlayingWnd@@IAEXXZ
  00c8a	64 a1 00 00 00
	00		 mov	 eax, DWORD PTR fs:__except_list
  00c90	50		 push	 eax
  00c91	64 89 25 00 00
	00 00		 mov	 DWORD PTR fs:__except_list, esp
  00c98	81 ec 8c 00 00
	00		 sub	 esp, 140		; 0000008cH
  00c9e	56		 push	 esi
  00c9f	57		 push	 edi
  00ca0	51		 push	 ecx
  00ca1	8d bd 68 ff ff
	ff		 lea	 edi, DWORD PTR [ebp-152]
  00ca7	b9 23 00 00 00	 mov	 ecx, 35			; 00000023H
  00cac	b8 cc cc cc cc	 mov	 eax, -858993460		; ccccccccH
  00cb1	f3 ab		 rep stosd
  00cb3	59		 pop	 ecx
  00cb4	89 4d f0	 mov	 DWORD PTR _this$[ebp], ecx

; 101  : 	YL_Log("WebGamePlayingWnd.txt", LOG_DEBUG, "WebGamePlayingWnd::OnClickedFullScreen", "===IN");

  00cb7	8b f4		 mov	 esi, esp
  00cb9	68 00 00 00 00	 push	 OFFSET FLAT:$SG191047
  00cbe	8d 4d d4	 lea	 ecx, DWORD PTR $T192202[ebp]
  00cc1	ff 15 00 00 00
	00		 call	 DWORD PTR __imp_??0?$basic_string@DU?$char_traits@D@std@@V?$allocator@D@2@@std@@QAE@PBD@Z
  00cc7	3b f4		 cmp	 esi, esp
  00cc9	e8 00 00 00 00	 call	 __RTC_CheckEsp
  00cce	c7 45 fc 00 00
	00 00		 mov	 DWORD PTR __$EHRec$[ebp+8], 0
  00cd5	8b f4		 mov	 esi, esp
  00cd7	68 00 00 00 00	 push	 OFFSET FLAT:$SG191048
  00cdc	8d 4d b8	 lea	 ecx, DWORD PTR $T192203[ebp]
  00cdf	ff 15 00 00 00
	00		 call	 DWORD PTR __imp_??0?$basic_string@DU?$char_traits@D@std@@V?$allocator@D@2@@std@@QAE@PBD@Z
  00ce5	3b f4		 cmp	 esi, esp
  00ce7	e8 00 00 00 00	 call	 __RTC_CheckEsp
  00cec	c6 45 fc 01	 mov	 BYTE PTR __$EHRec$[ebp+8], 1
  00cf0	8b f4		 mov	 esi, esp
  00cf2	68 00 00 00 00	 push	 OFFSET FLAT:$SG191046
  00cf7	8d 45 d4	 lea	 eax, DWORD PTR $T192202[ebp]
  00cfa	50		 push	 eax
  00cfb	6a 00		 push	 0
  00cfd	8d 4d b8	 lea	 ecx, DWORD PTR $T192203[ebp]
  00d00	51		 push	 ecx
  00d01	ff 15 00 00 00
	00		 call	 DWORD PTR __imp_?YL_Log@@YAXABV?$basic_string@DU?$char_traits@D@std@@V?$allocator@D@2@@std@@H0PBDZZ
  00d07	83 c4 10	 add	 esp, 16			; 00000010H
  00d0a	3b f4		 cmp	 esi, esp
  00d0c	e8 00 00 00 00	 call	 __RTC_CheckEsp
  00d11	c6 45 fc 00	 mov	 BYTE PTR __$EHRec$[ebp+8], 0
  00d15	8b f4		 mov	 esi, esp
  00d17	8d 4d b8	 lea	 ecx, DWORD PTR $T192203[ebp]
  00d1a	ff 15 00 00 00
	00		 call	 DWORD PTR __imp_??1?$basic_string@DU?$char_traits@D@std@@V?$allocator@D@2@@std@@QAE@XZ
  00d20	3b f4		 cmp	 esi, esp
  00d22	e8 00 00 00 00	 call	 __RTC_CheckEsp
  00d27	c7 45 fc ff ff
	ff ff		 mov	 DWORD PTR __$EHRec$[ebp+8], -1
  00d2e	8b f4		 mov	 esi, esp
  00d30	8d 4d d4	 lea	 ecx, DWORD PTR $T192202[ebp]
  00d33	ff 15 00 00 00
	00		 call	 DWORD PTR __imp_??1?$basic_string@DU?$char_traits@D@std@@V?$allocator@D@2@@std@@QAE@XZ
  00d39	3b f4		 cmp	 esi, esp
  00d3b	e8 00 00 00 00	 call	 __RTC_CheckEsp

; 102  : 	m_pWndWebGame->SetFocus();

  00d40	8b 55 f0	 mov	 edx, DWORD PTR _this$[ebp]
  00d43	8b 8a b4 00 00
	00		 mov	 ecx, DWORD PTR [edx+180]
  00d49	e8 00 00 00 00	 call	 ?SetFocus@CWnd@@QAEPAV1@XZ ; CWnd::SetFocus

; 103  : 	
; 104  : 	if( GLOBAL_PANELCHANGEDATA->IPanelChange_IsFullScreen() )

  00d4e	e8 00 00 00 00	 call	 ?AfxGetDataManager2@@YAPAVIDataManager@@XZ ; AfxGetDataManager2
  00d53	89 85 7c ff ff
	ff		 mov	 DWORD PTR tv81[ebp], eax
  00d59	8b f4		 mov	 esi, esp
  00d5b	68 00 00 00 00	 push	 OFFSET FLAT:_ID_DATA_PANELCHANGE
  00d60	8b 85 7c ff ff
	ff		 mov	 eax, DWORD PTR tv81[ebp]
  00d66	8b 10		 mov	 edx, DWORD PTR [eax]
  00d68	8b 8d 7c ff ff
	ff		 mov	 ecx, DWORD PTR tv81[ebp]
  00d6e	ff 52 0c	 call	 DWORD PTR [edx+12]
  00d71	3b f4		 cmp	 esi, esp
  00d73	e8 00 00 00 00	 call	 __RTC_CheckEsp
  00d78	89 85 78 ff ff
	ff		 mov	 DWORD PTR tv87[ebp], eax
  00d7e	8b 85 78 ff ff
	ff		 mov	 eax, DWORD PTR tv87[ebp]
  00d84	8b 10		 mov	 edx, DWORD PTR [eax]
  00d86	8b f4		 mov	 esi, esp
  00d88	8b 8d 78 ff ff
	ff		 mov	 ecx, DWORD PTR tv87[ebp]
  00d8e	ff 52 14	 call	 DWORD PTR [edx+20]
  00d91	3b f4		 cmp	 esi, esp
  00d93	e8 00 00 00 00	 call	 __RTC_CheckEsp
  00d98	0f b6 c0	 movzx	 eax, al
  00d9b	85 c0		 test	 eax, eax
  00d9d	74 4c		 je	 SHORT $L191050

; 105  : 	{
; 106  : 		GLOBAL_PANELCHANGEDATA->IPanelChange_ExitFullScreen();

  00d9f	e8 00 00 00 00	 call	 ?AfxGetDataManager2@@YAPAVIDataManager@@XZ ; AfxGetDataManager2
  00da4	89 85 74 ff ff
	ff		 mov	 DWORD PTR tv95[ebp], eax
  00daa	8b f4		 mov	 esi, esp
  00dac	68 00 00 00 00	 push	 OFFSET FLAT:_ID_DATA_PANELCHANGE
  00db1	8b 8d 74 ff ff
	ff		 mov	 ecx, DWORD PTR tv95[ebp]
  00db7	8b 11		 mov	 edx, DWORD PTR [ecx]
  00db9	8b 8d 74 ff ff
	ff		 mov	 ecx, DWORD PTR tv95[ebp]
  00dbf	ff 52 0c	 call	 DWORD PTR [edx+12]
  00dc2	3b f4		 cmp	 esi, esp
  00dc4	e8 00 00 00 00	 call	 __RTC_CheckEsp
  00dc9	89 85 70 ff ff
	ff		 mov	 DWORD PTR tv133[ebp], eax
  00dcf	8b 85 70 ff ff
	ff		 mov	 eax, DWORD PTR tv133[ebp]
  00dd5	8b 10		 mov	 edx, DWORD PTR [eax]
  00dd7	8b f4		 mov	 esi, esp
  00dd9	8b 8d 70 ff ff
	ff		 mov	 ecx, DWORD PTR tv133[ebp]
  00ddf	ff 52 10	 call	 DWORD PTR [edx+16]
  00de2	3b f4		 cmp	 esi, esp
  00de4	e8 00 00 00 00	 call	 __RTC_CheckEsp

; 107  : 	}else

  00de9	eb 53		 jmp	 SHORT $L191052
$L191050:

; 108  : 	{
; 109  : 		GLOBAL_PANELCHANGEDATA->IPanelChange_ToFullScreen( GetParent() );

  00deb	e8 00 00 00 00	 call	 ?AfxGetDataManager2@@YAPAVIDataManager@@XZ ; AfxGetDataManager2
  00df0	89 85 6c ff ff
	ff		 mov	 DWORD PTR tv138[ebp], eax
  00df6	8b f4		 mov	 esi, esp
  00df8	68 00 00 00 00	 push	 OFFSET FLAT:_ID_DATA_PANELCHANGE
  00dfd	8b 85 6c ff ff
	ff		 mov	 eax, DWORD PTR tv138[ebp]
  00e03	8b 10		 mov	 edx, DWORD PTR [eax]
  00e05	8b 8d 6c ff ff
	ff		 mov	 ecx, DWORD PTR tv138[ebp]
  00e0b	ff 52 0c	 call	 DWORD PTR [edx+12]
  00e0e	3b f4		 cmp	 esi, esp
  00e10	e8 00 00 00 00	 call	 __RTC_CheckEsp
  00e15	89 85 68 ff ff
	ff		 mov	 DWORD PTR tv144[ebp], eax
  00e1b	8b 4d f0	 mov	 ecx, DWORD PTR _this$[ebp]
  00e1e	e8 00 00 00 00	 call	 ?GetParent@CWnd@@QBEPAV1@XZ ; CWnd::GetParent
  00e23	8b f4		 mov	 esi, esp
  00e25	50		 push	 eax
  00e26	8b 85 68 ff ff
	ff		 mov	 eax, DWORD PTR tv144[ebp]
  00e2c	8b 10		 mov	 edx, DWORD PTR [eax]
  00e2e	8b 8d 68 ff ff
	ff		 mov	 ecx, DWORD PTR tv144[ebp]
  00e34	ff 52 0c	 call	 DWORD PTR [edx+12]
  00e37	3b f4		 cmp	 esi, esp
  00e39	e8 00 00 00 00	 call	 __RTC_CheckEsp
$L191052:

; 110  : 	}	
; 111  : 	YL_Log("WebGamePlayingWnd.txt", LOG_DEBUG, "WebGamePlayingWnd::OnClickedFullScreen", "===OUT");

  00e3e	8b f4		 mov	 esi, esp
  00e40	68 00 00 00 00	 push	 OFFSET FLAT:$SG191057
  00e45	8d 4d 9c	 lea	 ecx, DWORD PTR $T192204[ebp]
  00e48	ff 15 00 00 00
	00		 call	 DWORD PTR __imp_??0?$basic_string@DU?$char_traits@D@std@@V?$allocator@D@2@@std@@QAE@PBD@Z
  00e4e	3b f4		 cmp	 esi, esp
  00e50	e8 00 00 00 00	 call	 __RTC_CheckEsp
  00e55	c7 45 fc 02 00
	00 00		 mov	 DWORD PTR __$EHRec$[ebp+8], 2
  00e5c	8b f4		 mov	 esi, esp
  00e5e	68 00 00 00 00	 push	 OFFSET FLAT:$SG191058
  00e63	8d 4d 80	 lea	 ecx, DWORD PTR $T192205[ebp]
  00e66	ff 15 00 00 00
	00		 call	 DWORD PTR __imp_??0?$basic_string@DU?$char_traits@D@std@@V?$allocator@D@2@@std@@QAE@PBD@Z
  00e6c	3b f4		 cmp	 esi, esp
  00e6e	e8 00 00 00 00	 call	 __RTC_CheckEsp
  00e73	c6 45 fc 03	 mov	 BYTE PTR __$EHRec$[ebp+8], 3
  00e77	8b f4		 mov	 esi, esp
  00e79	68 00 00 00 00	 push	 OFFSET FLAT:$SG191056
  00e7e	8d 45 9c	 lea	 eax, DWORD PTR $T192204[ebp]
  00e81	50		 push	 eax
  00e82	6a 00		 push	 0
  00e84	8d 4d 80	 lea	 ecx, DWORD PTR $T192205[ebp]
  00e87	51		 push	 ecx
  00e88	ff 15 00 00 00
	00		 call	 DWORD PTR __imp_?YL_Log@@YAXABV?$basic_string@DU?$char_traits@D@std@@V?$allocator@D@2@@std@@H0PBDZZ
  00e8e	83 c4 10	 add	 esp, 16			; 00000010H
  00e91	3b f4		 cmp	 esi, esp
  00e93	e8 00 00 00 00	 call	 __RTC_CheckEsp
  00e98	c6 45 fc 02	 mov	 BYTE PTR __$EHRec$[ebp+8], 2
  00e9c	8b f4		 mov	 esi, esp
  00e9e	8d 4d 80	 lea	 ecx, DWORD PTR $T192205[ebp]
  00ea1	ff 15 00 00 00
	00		 call	 DWORD PTR __imp_??1?$basic_string@DU?$char_traits@D@std@@V?$allocator@D@2@@std@@QAE@XZ
  00ea7	3b f4		 cmp	 esi, esp
  00ea9	e8 00 00 00 00	 call	 __RTC_CheckEsp
  00eae	c7 45 fc ff ff
	ff ff		 mov	 DWORD PTR __$EHRec$[ebp+8], -1
  00eb5	8b f4		 mov	 esi, esp
  00eb7	8d 4d 9c	 lea	 ecx, DWORD PTR $T192204[ebp]
  00eba	ff 15 00 00 00
	00		 call	 DWORD PTR __imp_??1?$basic_string@DU?$char_traits@D@std@@V?$allocator@D@2@@std@@QAE@XZ
  00ec0	3b f4		 cmp	 esi, esp
  00ec2	e8 00 00 00 00	 call	 __RTC_CheckEsp

; 112  : }

  00ec7	8b 4d f4	 mov	 ecx, DWORD PTR __$EHRec$[ebp]
  00eca	64 89 0d 00 00
	00 00		 mov	 DWORD PTR fs:__except_list, ecx
  00ed1	5f		 pop	 edi
  00ed2	5e		 pop	 esi
  00ed3	81 c4 98 00 00
	00		 add	 esp, 152		; 00000098H
  00ed9	3b ec		 cmp	 ebp, esp
  00edb	e8 00 00 00 00	 call	 __RTC_CheckEsp
  00ee0	8b e5		 mov	 esp, ebp
  00ee2	5d		 pop	 ebp
  00ee3	c3		 ret	 0
_TEXT	ENDS
text$x	SEGMENT
$L192206:
  001df	8b f4		 mov	 esi, esp
  001e1	8d 4d d4	 lea	 ecx, DWORD PTR $T192202[ebp]
  001e4	ff 15 00 00 00
	00		 call	 DWORD PTR __imp_??1?$basic_string@DU?$char_traits@D@std@@V?$allocator@D@2@@std@@QAE@XZ
  001ea	3b f4		 cmp	 esi, esp
  001ec	e9 00 00 00 00	 jmp	 __RTC_CheckEsp
$L192207:
  001f1	8b f4		 mov	 esi, esp
  001f3	8d 4d b8	 lea	 ecx, DWORD PTR $T192203[ebp]
  001f6	ff 15 00 00 00
	00		 call	 DWORD PTR __imp_??1?$basic_string@DU?$char_traits@D@std@@V?$allocator@D@2@@std@@QAE@XZ
  001fc	3b f4		 cmp	 esi, esp
  001fe	e9 00 00 00 00	 jmp	 __RTC_CheckEsp
$L192208:
  00203	8b f4		 mov	 esi, esp
  00205	8d 4d 9c	 lea	 ecx, DWORD PTR $T192204[ebp]
  00208	ff 15 00 00 00
	00		 call	 DWORD PTR __imp_??1?$basic_string@DU?$char_traits@D@std@@V?$allocator@D@2@@std@@QAE@XZ
  0020e	3b f4		 cmp	 esi, esp
  00210	e9 00 00 00 00	 jmp	 __RTC_CheckEsp
$L192209:
  00215	8b f4		 mov	 esi, esp
  00217	8d 4d 80	 lea	 ecx, DWORD PTR $T192205[ebp]
  0021a	ff 15 00 00 00
	00		 call	 DWORD PTR __imp_??1?$basic_string@DU?$char_traits@D@std@@V?$allocator@D@2@@std@@QAE@XZ
  00220	3b f4		 cmp	 esi, esp
  00222	e9 00 00 00 00	 jmp	 __RTC_CheckEsp
__ehhandler$?OnClickedFullScreen@WebGamePlayingWnd@@IAEXXZ:
  00227	b8 00 00 00 00	 mov	 eax, OFFSET FLAT:$T192211
  0022c	e9 00 00 00 00	 jmp	 ___CxxFrameHandler
text$x	ENDS
?OnClickedFullScreen@WebGamePlayingWnd@@IAEXXZ ENDP	; WebGamePlayingWnd::OnClickedFullScreen
EXTRN	?OnDestroy@CWnd@@IAEXXZ:NEAR			; CWnd::OnDestroy
xdata$x	SEGMENT
$T192226 DD	0ffffffffH
	DD	FLAT:$L192219
	DD	00H
	DD	FLAT:$L192220
	DD	0ffffffffH
	DD	FLAT:$L192221
	DD	02H
	DD	FLAT:$L192222
$T192224 DD	019930520H
	DD	04H
	DD	FLAT:$T192226
	DD	2 DUP(00H)
	DD	2 DUP(00H)
; Function compile flags: /Odt /RTCsu
xdata$x	ENDS
_TEXT	SEGMENT
$T192218 = -128						; size = 28
$T192217 = -100						; size = 28
$T192216 = -72						; size = 28
$T192215 = -44						; size = 28
_this$ = -16						; size = 4
__$EHRec$ = -12						; size = 12
?OnDestroy@WebGamePlayingWnd@@IAEXXZ PROC NEAR		; WebGamePlayingWnd::OnDestroy
; _this$ = ecx

; 115  : {

  00ef0	55		 push	 ebp
  00ef1	8b ec		 mov	 ebp, esp
  00ef3	6a ff		 push	 -1
  00ef5	68 00 00 00 00	 push	 __ehhandler$?OnDestroy@WebGamePlayingWnd@@IAEXXZ
  00efa	64 a1 00 00 00
	00		 mov	 eax, DWORD PTR fs:__except_list
  00f00	50		 push	 eax
  00f01	64 89 25 00 00
	00 00		 mov	 DWORD PTR fs:__except_list, esp
  00f08	83 ec 74	 sub	 esp, 116		; 00000074H
  00f0b	56		 push	 esi
  00f0c	57		 push	 edi
  00f0d	51		 push	 ecx
  00f0e	8d 7d 80	 lea	 edi, DWORD PTR [ebp-128]
  00f11	b9 1d 00 00 00	 mov	 ecx, 29			; 0000001dH
  00f16	b8 cc cc cc cc	 mov	 eax, -858993460		; ccccccccH
  00f1b	f3 ab		 rep stosd
  00f1d	59		 pop	 ecx
  00f1e	89 4d f0	 mov	 DWORD PTR _this$[ebp], ecx

; 116  : 	YL_Log("WebGamePlayingWnd.txt", LOG_DEBUG, "WebGamePlayingWnd::OnDestroy", "===IN");

  00f21	8b f4		 mov	 esi, esp
  00f23	68 00 00 00 00	 push	 OFFSET FLAT:$SG191065
  00f28	8d 4d d4	 lea	 ecx, DWORD PTR $T192215[ebp]
  00f2b	ff 15 00 00 00
	00		 call	 DWORD PTR __imp_??0?$basic_string@DU?$char_traits@D@std@@V?$allocator@D@2@@std@@QAE@PBD@Z
  00f31	3b f4		 cmp	 esi, esp
  00f33	e8 00 00 00 00	 call	 __RTC_CheckEsp
  00f38	c7 45 fc 00 00
	00 00		 mov	 DWORD PTR __$EHRec$[ebp+8], 0
  00f3f	8b f4		 mov	 esi, esp
  00f41	68 00 00 00 00	 push	 OFFSET FLAT:$SG191066
  00f46	8d 4d b8	 lea	 ecx, DWORD PTR $T192216[ebp]
  00f49	ff 15 00 00 00
	00		 call	 DWORD PTR __imp_??0?$basic_string@DU?$char_traits@D@std@@V?$allocator@D@2@@std@@QAE@PBD@Z
  00f4f	3b f4		 cmp	 esi, esp
  00f51	e8 00 00 00 00	 call	 __RTC_CheckEsp
  00f56	c6 45 fc 01	 mov	 BYTE PTR __$EHRec$[ebp+8], 1
  00f5a	8b f4		 mov	 esi, esp
  00f5c	68 00 00 00 00	 push	 OFFSET FLAT:$SG191064
  00f61	8d 45 d4	 lea	 eax, DWORD PTR $T192215[ebp]
  00f64	50		 push	 eax
  00f65	6a 00		 push	 0
  00f67	8d 4d b8	 lea	 ecx, DWORD PTR $T192216[ebp]
  00f6a	51		 push	 ecx
  00f6b	ff 15 00 00 00
	00		 call	 DWORD PTR __imp_?YL_Log@@YAXABV?$basic_string@DU?$char_traits@D@std@@V?$allocator@D@2@@std@@H0PBDZZ
  00f71	83 c4 10	 add	 esp, 16			; 00000010H
  00f74	3b f4		 cmp	 esi, esp
  00f76	e8 00 00 00 00	 call	 __RTC_CheckEsp
  00f7b	c6 45 fc 00	 mov	 BYTE PTR __$EHRec$[ebp+8], 0
  00f7f	8b f4		 mov	 esi, esp
  00f81	8d 4d b8	 lea	 ecx, DWORD PTR $T192216[ebp]
  00f84	ff 15 00 00 00
	00		 call	 DWORD PTR __imp_??1?$basic_string@DU?$char_traits@D@std@@V?$allocator@D@2@@std@@QAE@XZ
  00f8a	3b f4		 cmp	 esi, esp
  00f8c	e8 00 00 00 00	 call	 __RTC_CheckEsp
  00f91	c7 45 fc ff ff
	ff ff		 mov	 DWORD PTR __$EHRec$[ebp+8], -1
  00f98	8b f4		 mov	 esi, esp
  00f9a	8d 4d d4	 lea	 ecx, DWORD PTR $T192215[ebp]
  00f9d	ff 15 00 00 00
	00		 call	 DWORD PTR __imp_??1?$basic_string@DU?$char_traits@D@std@@V?$allocator@D@2@@std@@QAE@XZ
  00fa3	3b f4		 cmp	 esi, esp
  00fa5	e8 00 00 00 00	 call	 __RTC_CheckEsp

; 117  : 	m_pWndWebGame->DestroyWindow();

  00faa	8b 55 f0	 mov	 edx, DWORD PTR _this$[ebp]
  00fad	8b 82 b4 00 00
	00		 mov	 eax, DWORD PTR [edx+180]
  00fb3	8b 4d f0	 mov	 ecx, DWORD PTR _this$[ebp]
  00fb6	8b 89 b4 00 00
	00		 mov	 ecx, DWORD PTR [ecx+180]
  00fbc	8b 10		 mov	 edx, DWORD PTR [eax]
  00fbe	8b f4		 mov	 esi, esp
  00fc0	ff 52 68	 call	 DWORD PTR [edx+104]
  00fc3	3b f4		 cmp	 esi, esp
  00fc5	e8 00 00 00 00	 call	 __RTC_CheckEsp

; 118  : 	__super::OnDestroy();

  00fca	8b 4d f0	 mov	 ecx, DWORD PTR _this$[ebp]
  00fcd	e8 00 00 00 00	 call	 ?OnDestroy@CWnd@@IAEXXZ	; CWnd::OnDestroy

; 119  : 	YL_Log("WebGamePlayingWnd.txt", LOG_DEBUG, "WebGamePlayingWnd::OnDestroy", "===OUT");

  00fd2	8b f4		 mov	 esi, esp
  00fd4	68 00 00 00 00	 push	 OFFSET FLAT:$SG191070
  00fd9	8d 4d 9c	 lea	 ecx, DWORD PTR $T192217[ebp]
  00fdc	ff 15 00 00 00
	00		 call	 DWORD PTR __imp_??0?$basic_string@DU?$char_traits@D@std@@V?$allocator@D@2@@std@@QAE@PBD@Z
  00fe2	3b f4		 cmp	 esi, esp
  00fe4	e8 00 00 00 00	 call	 __RTC_CheckEsp
  00fe9	c7 45 fc 02 00
	00 00		 mov	 DWORD PTR __$EHRec$[ebp+8], 2
  00ff0	8b f4		 mov	 esi, esp
  00ff2	68 00 00 00 00	 push	 OFFSET FLAT:$SG191071
  00ff7	8d 4d 80	 lea	 ecx, DWORD PTR $T192218[ebp]
  00ffa	ff 15 00 00 00
	00		 call	 DWORD PTR __imp_??0?$basic_string@DU?$char_traits@D@std@@V?$allocator@D@2@@std@@QAE@PBD@Z
  01000	3b f4		 cmp	 esi, esp
  01002	e8 00 00 00 00	 call	 __RTC_CheckEsp
  01007	c6 45 fc 03	 mov	 BYTE PTR __$EHRec$[ebp+8], 3
  0100b	8b f4		 mov	 esi, esp
  0100d	68 00 00 00 00	 push	 OFFSET FLAT:$SG191069
  01012	8d 45 9c	 lea	 eax, DWORD PTR $T192217[ebp]
  01015	50		 push	 eax
  01016	6a 00		 push	 0
  01018	8d 4d 80	 lea	 ecx, DWORD PTR $T192218[ebp]
  0101b	51		 push	 ecx
  0101c	ff 15 00 00 00
	00		 call	 DWORD PTR __imp_?YL_Log@@YAXABV?$basic_string@DU?$char_traits@D@std@@V?$allocator@D@2@@std@@H0PBDZZ
  01022	83 c4 10	 add	 esp, 16			; 00000010H
  01025	3b f4		 cmp	 esi, esp
  01027	e8 00 00 00 00	 call	 __RTC_CheckEsp
  0102c	c6 45 fc 02	 mov	 BYTE PTR __$EHRec$[ebp+8], 2
  01030	8b f4		 mov	 esi, esp
  01032	8d 4d 80	 lea	 ecx, DWORD PTR $T192218[ebp]
  01035	ff 15 00 00 00
	00		 call	 DWORD PTR __imp_??1?$basic_string@DU?$char_traits@D@std@@V?$allocator@D@2@@std@@QAE@XZ
  0103b	3b f4		 cmp	 esi, esp
  0103d	e8 00 00 00 00	 call	 __RTC_CheckEsp
  01042	c7 45 fc ff ff
	ff ff		 mov	 DWORD PTR __$EHRec$[ebp+8], -1
  01049	8b f4		 mov	 esi, esp
  0104b	8d 4d 9c	 lea	 ecx, DWORD PTR $T192217[ebp]
  0104e	ff 15 00 00 00
	00		 call	 DWORD PTR __imp_??1?$basic_string@DU?$char_traits@D@std@@V?$allocator@D@2@@std@@QAE@XZ
  01054	3b f4		 cmp	 esi, esp
  01056	e8 00 00 00 00	 call	 __RTC_CheckEsp

; 120  : }

  0105b	8b 4d f4	 mov	 ecx, DWORD PTR __$EHRec$[ebp]
  0105e	64 89 0d 00 00
	00 00		 mov	 DWORD PTR fs:__except_list, ecx
  01065	5f		 pop	 edi
  01066	5e		 pop	 esi
  01067	81 c4 80 00 00
	00		 add	 esp, 128		; 00000080H
  0106d	3b ec		 cmp	 ebp, esp
  0106f	e8 00 00 00 00	 call	 __RTC_CheckEsp
  01074	8b e5		 mov	 esp, ebp
  01076	5d		 pop	 ebp
  01077	c3		 ret	 0
_TEXT	ENDS
text$x	SEGMENT
$L192219:
  00231	8b f4		 mov	 esi, esp
  00233	8d 4d d4	 lea	 ecx, DWORD PTR $T192215[ebp]
  00236	ff 15 00 00 00
	00		 call	 DWORD PTR __imp_??1?$basic_string@DU?$char_traits@D@std@@V?$allocator@D@2@@std@@QAE@XZ
  0023c	3b f4		 cmp	 esi, esp
  0023e	e9 00 00 00 00	 jmp	 __RTC_CheckEsp
$L192220:
  00243	8b f4		 mov	 esi, esp
  00245	8d 4d b8	 lea	 ecx, DWORD PTR $T192216[ebp]
  00248	ff 15 00 00 00
	00		 call	 DWORD PTR __imp_??1?$basic_string@DU?$char_traits@D@std@@V?$allocator@D@2@@std@@QAE@XZ
  0024e	3b f4		 cmp	 esi, esp
  00250	e9 00 00 00 00	 jmp	 __RTC_CheckEsp
$L192221:
  00255	8b f4		 mov	 esi, esp
  00257	8d 4d 9c	 lea	 ecx, DWORD PTR $T192217[ebp]
  0025a	ff 15 00 00 00
	00		 call	 DWORD PTR __imp_??1?$basic_string@DU?$char_traits@D@std@@V?$allocator@D@2@@std@@QAE@XZ
  00260	3b f4		 cmp	 esi, esp
  00262	e9 00 00 00 00	 jmp	 __RTC_CheckEsp
$L192222:
  00267	8b f4		 mov	 esi, esp
  00269	8d 4d 80	 lea	 ecx, DWORD PTR $T192218[ebp]
  0026c	ff 15 00 00 00
	00		 call	 DWORD PTR __imp_??1?$basic_string@DU?$char_traits@D@std@@V?$allocator@D@2@@std@@QAE@XZ
  00272	3b f4		 cmp	 esi, esp
  00274	e9 00 00 00 00	 jmp	 __RTC_CheckEsp
__ehhandler$?OnDestroy@WebGamePlayingWnd@@IAEXXZ:
  00279	b8 00 00 00 00	 mov	 eax, OFFSET FLAT:$T192224
  0027e	e9 00 00 00 00	 jmp	 ___CxxFrameHandler
text$x	ENDS
?OnDestroy@WebGamePlayingWnd@@IAEXXZ ENDP		; WebGamePlayingWnd::OnDestroy
EXTRN	?GetSafeHwnd@CWnd@@QBEPAUHWND__@@XZ:NEAR	; CWnd::GetSafeHwnd
xdata$x	SEGMENT
$T192238 DD	0ffffffffH
	DD	FLAT:$L192230
	DD	0ffffffffH
	DD	FLAT:$L192231
$T192233 DD	019930520H
	DD	02H
	DD	FLAT:$T192238
	DD	2 DUP(00H)
	DD	2 DUP(00H)
; Function compile flags: /Odt /RTCsu
xdata$x	ENDS
_TEXT	SEGMENT
tv165 = -88						; size = 4
tv160 = -84						; size = 4
tv136 = -80						; size = 4
tv131 = -76						; size = 4
tv180 = -72						; size = 4
tv184 = -68						; size = 4
tv72 = -64						; size = 4
tv67 = -60						; size = 4
tv176 = -56						; size = 4
tv181 = -52						; size = 4
$T192229 = -48						; size = 4
$T192228 = -44						; size = 4
_rc$ = -36						; size = 16
_this$ = -16						; size = 4
__$EHRec$ = -12						; size = 12
?OnClickedGameRight@WebGamePlayingWnd@@IAEXXZ PROC NEAR	; WebGamePlayingWnd::OnClickedGameRight
; _this$ = ecx

; 123  : {

  01080	55		 push	 ebp
  01081	8b ec		 mov	 ebp, esp
  01083	6a ff		 push	 -1
  01085	68 00 00 00 00	 push	 __ehhandler$?OnClickedGameRight@WebGamePlayingWnd@@IAEXXZ
  0108a	64 a1 00 00 00
	00		 mov	 eax, DWORD PTR fs:__except_list
  01090	50		 push	 eax
  01091	64 89 25 00 00
	00 00		 mov	 DWORD PTR fs:__except_list, esp
  01098	83 ec 4c	 sub	 esp, 76			; 0000004cH
  0109b	56		 push	 esi
  0109c	57		 push	 edi
  0109d	51		 push	 ecx
  0109e	8d 7d a8	 lea	 edi, DWORD PTR [ebp-88]
  010a1	b9 13 00 00 00	 mov	 ecx, 19			; 00000013H
  010a6	b8 cc cc cc cc	 mov	 eax, -858993460		; ccccccccH
  010ab	f3 ab		 rep stosd
  010ad	59		 pop	 ecx
  010ae	89 4d f0	 mov	 DWORD PTR _this$[ebp], ecx

; 124  : 	CRect rc;

  010b1	8d 4d dc	 lea	 ecx, DWORD PTR _rc$[ebp]
  010b4	e8 00 00 00 00	 call	 ??0CRect@@QAE@XZ	; CRect::CRect

; 125  : 	AfxGetUIManager()->UIGetLayoutMgr()->GetPaneItemRect( GetParent(), "WebGameRight", rc );

  010b9	8d 45 dc	 lea	 eax, DWORD PTR _rc$[ebp]
  010bc	50		 push	 eax
  010bd	51		 push	 ecx
  010be	8b cc		 mov	 ecx, esp
  010c0	89 65 d4	 mov	 DWORD PTR $T192228[ebp], esp
  010c3	8b f4		 mov	 esi, esp
  010c5	68 00 00 00 00	 push	 OFFSET FLAT:$SG191077
  010ca	ff 15 00 00 00
	00		 call	 DWORD PTR __imp_??0?$CStringT@DV?$StrTraitMFC_DLL@DV?$ChTraitsCRT@D@ATL@@@@@ATL@@QAE@PBD@Z
  010d0	3b f4		 cmp	 esi, esp
  010d2	e8 00 00 00 00	 call	 __RTC_CheckEsp
  010d7	89 45 cc	 mov	 DWORD PTR tv181[ebp], eax
  010da	8b 4d cc	 mov	 ecx, DWORD PTR tv181[ebp]
  010dd	89 4d c8	 mov	 DWORD PTR tv176[ebp], ecx
  010e0	c7 45 fc 00 00
	00 00		 mov	 DWORD PTR __$EHRec$[ebp+8], 0
  010e7	e8 00 00 00 00	 call	 ?AfxGetUIManager@@YAPAVIUIManager@@XZ ; AfxGetUIManager
  010ec	89 45 c4	 mov	 DWORD PTR tv67[ebp], eax
  010ef	8b f4		 mov	 esi, esp
  010f1	8b 55 c4	 mov	 edx, DWORD PTR tv67[ebp]
  010f4	8b 02		 mov	 eax, DWORD PTR [edx]
  010f6	8b 4d c4	 mov	 ecx, DWORD PTR tv67[ebp]
  010f9	ff 50 24	 call	 DWORD PTR [eax+36]
  010fc	3b f4		 cmp	 esi, esp
  010fe	e8 00 00 00 00	 call	 __RTC_CheckEsp
  01103	89 45 c0	 mov	 DWORD PTR tv72[ebp], eax
  01106	8b 4d f0	 mov	 ecx, DWORD PTR _this$[ebp]
  01109	e8 00 00 00 00	 call	 ?GetParent@CWnd@@QBEPAV1@XZ ; CWnd::GetParent
  0110e	50		 push	 eax
  0110f	8b 4d c0	 mov	 ecx, DWORD PTR tv72[ebp]
  01112	8b 11		 mov	 edx, DWORD PTR [ecx]
  01114	c7 45 fc ff ff
	ff ff		 mov	 DWORD PTR __$EHRec$[ebp+8], -1
  0111b	8b 4d c0	 mov	 ecx, DWORD PTR tv72[ebp]
  0111e	ff 52 48	 call	 DWORD PTR [edx+72]

; 126  : 	if( !rc.IsRectEmpty() )

  01121	8d 4d dc	 lea	 ecx, DWORD PTR _rc$[ebp]
  01124	e8 00 00 00 00	 call	 ?IsRectEmpty@CRect@@QBEHXZ ; CRect::IsRectEmpty
  01129	85 c0		 test	 eax, eax
  0112b	75 08		 jne	 SHORT $L191078

; 127  : 	{
; 128  : 		rc.left = rc.right;

  0112d	8b 45 e4	 mov	 eax, DWORD PTR _rc$[ebp+8]
  01130	89 45 dc	 mov	 DWORD PTR _rc$[ebp], eax

; 129  : 	}else

  01133	eb 0c		 jmp	 SHORT $L191079
$L191078:

; 130  : 	{
; 131  : 		rc.left = rc.right - WIDTH_RIGHT_WEB;

  01135	8b 4d e4	 mov	 ecx, DWORD PTR _rc$[ebp+8]
  01138	81 e9 dc 00 00
	00		 sub	 ecx, 220		; 000000dcH
  0113e	89 4d dc	 mov	 DWORD PTR _rc$[ebp], ecx
$L191079:

; 132  : 	}
; 133  : 	AfxGetUIManager()->UIGetLayoutMgr()->SetPaneSize( GetParent(), "WebGameRight", rc , false);

  01141	6a 00		 push	 0
  01143	83 ec 10	 sub	 esp, 16			; 00000010H
  01146	8b d4		 mov	 edx, esp
  01148	8b 45 dc	 mov	 eax, DWORD PTR _rc$[ebp]
  0114b	89 02		 mov	 DWORD PTR [edx], eax
  0114d	8b 4d e0	 mov	 ecx, DWORD PTR _rc$[ebp+4]
  01150	89 4a 04	 mov	 DWORD PTR [edx+4], ecx
  01153	8b 45 e4	 mov	 eax, DWORD PTR _rc$[ebp+8]
  01156	89 42 08	 mov	 DWORD PTR [edx+8], eax
  01159	8b 4d e8	 mov	 ecx, DWORD PTR _rc$[ebp+12]
  0115c	89 4a 0c	 mov	 DWORD PTR [edx+12], ecx
  0115f	51		 push	 ecx
  01160	8b cc		 mov	 ecx, esp
  01162	89 65 d0	 mov	 DWORD PTR $T192229[ebp], esp
  01165	8b f4		 mov	 esi, esp
  01167	68 00 00 00 00	 push	 OFFSET FLAT:$SG191081
  0116c	ff 15 00 00 00
	00		 call	 DWORD PTR __imp_??0?$CStringT@DV?$StrTraitMFC_DLL@DV?$ChTraitsCRT@D@ATL@@@@@ATL@@QAE@PBD@Z
  01172	3b f4		 cmp	 esi, esp
  01174	e8 00 00 00 00	 call	 __RTC_CheckEsp
  01179	89 45 bc	 mov	 DWORD PTR tv184[ebp], eax
  0117c	8b 55 bc	 mov	 edx, DWORD PTR tv184[ebp]
  0117f	89 55 b8	 mov	 DWORD PTR tv180[ebp], edx
  01182	c7 45 fc 01 00
	00 00		 mov	 DWORD PTR __$EHRec$[ebp+8], 1
  01189	e8 00 00 00 00	 call	 ?AfxGetUIManager@@YAPAVIUIManager@@XZ ; AfxGetUIManager
  0118e	89 45 b4	 mov	 DWORD PTR tv131[ebp], eax
  01191	8b f4		 mov	 esi, esp
  01193	8b 45 b4	 mov	 eax, DWORD PTR tv131[ebp]
  01196	8b 10		 mov	 edx, DWORD PTR [eax]
  01198	8b 4d b4	 mov	 ecx, DWORD PTR tv131[ebp]
  0119b	ff 52 24	 call	 DWORD PTR [edx+36]
  0119e	3b f4		 cmp	 esi, esp
  011a0	e8 00 00 00 00	 call	 __RTC_CheckEsp
  011a5	89 45 b0	 mov	 DWORD PTR tv136[ebp], eax
  011a8	8b 4d f0	 mov	 ecx, DWORD PTR _this$[ebp]
  011ab	e8 00 00 00 00	 call	 ?GetParent@CWnd@@QBEPAV1@XZ ; CWnd::GetParent
  011b0	50		 push	 eax
  011b1	8b 45 b0	 mov	 eax, DWORD PTR tv136[ebp]
  011b4	8b 10		 mov	 edx, DWORD PTR [eax]
  011b6	c7 45 fc ff ff
	ff ff		 mov	 DWORD PTR __$EHRec$[ebp+8], -1
  011bd	8b 4d b0	 mov	 ecx, DWORD PTR tv136[ebp]
  011c0	ff 52 4c	 call	 DWORD PTR [edx+76]

; 134  : 	AfxGetUIManager()->UIGetLayoutMgr()->UpdateLayout( GetParent()->GetSafeHwnd() );

  011c3	e8 00 00 00 00	 call	 ?AfxGetUIManager@@YAPAVIUIManager@@XZ ; AfxGetUIManager
  011c8	89 45 ac	 mov	 DWORD PTR tv160[ebp], eax
  011cb	8b f4		 mov	 esi, esp
  011cd	8b 45 ac	 mov	 eax, DWORD PTR tv160[ebp]
  011d0	8b 10		 mov	 edx, DWORD PTR [eax]
  011d2	8b 4d ac	 mov	 ecx, DWORD PTR tv160[ebp]
  011d5	ff 52 24	 call	 DWORD PTR [edx+36]
  011d8	3b f4		 cmp	 esi, esp
  011da	e8 00 00 00 00	 call	 __RTC_CheckEsp
  011df	89 45 a8	 mov	 DWORD PTR tv165[ebp], eax
  011e2	8b 4d f0	 mov	 ecx, DWORD PTR _this$[ebp]
  011e5	e8 00 00 00 00	 call	 ?GetParent@CWnd@@QBEPAV1@XZ ; CWnd::GetParent
  011ea	8b c8		 mov	 ecx, eax
  011ec	e8 00 00 00 00	 call	 ?GetSafeHwnd@CWnd@@QBEPAUHWND__@@XZ ; CWnd::GetSafeHwnd
  011f1	8b f4		 mov	 esi, esp
  011f3	50		 push	 eax
  011f4	8b 45 a8	 mov	 eax, DWORD PTR tv165[ebp]
  011f7	8b 10		 mov	 edx, DWORD PTR [eax]
  011f9	8b 4d a8	 mov	 ecx, DWORD PTR tv165[ebp]
  011fc	ff 52 14	 call	 DWORD PTR [edx+20]
  011ff	3b f4		 cmp	 esi, esp
  01201	e8 00 00 00 00	 call	 __RTC_CheckEsp

; 135  : 	UpdateAllWnd();

  01206	8b 4d f0	 mov	 ecx, DWORD PTR _this$[ebp]
  01209	e8 00 00 00 00	 call	 ?UpdateAllWnd@WebGamePlayingWnd@@AAEXXZ ; WebGamePlayingWnd::UpdateAllWnd

; 136  : }

  0120e	52		 push	 edx
  0120f	8b cd		 mov	 ecx, ebp
  01211	50		 push	 eax
  01212	8d 15 00 00 00
	00		 lea	 edx, DWORD PTR $L192237
  01218	e8 00 00 00 00	 call	 @_RTC_CheckStackVars@8
  0121d	58		 pop	 eax
  0121e	5a		 pop	 edx
  0121f	8b 4d f4	 mov	 ecx, DWORD PTR __$EHRec$[ebp]
  01222	64 89 0d 00 00
	00 00		 mov	 DWORD PTR fs:__except_list, ecx
  01229	5f		 pop	 edi
  0122a	5e		 pop	 esi
  0122b	83 c4 58	 add	 esp, 88			; 00000058H
  0122e	3b ec		 cmp	 ebp, esp
  01230	e8 00 00 00 00	 call	 __RTC_CheckEsp
  01235	8b e5		 mov	 esp, ebp
  01237	5d		 pop	 ebp
  01238	c3		 ret	 0
$L192237:
  01239	01 00 00 00	 DD	 1
  0123d	00 00 00 00	 DD	 $L192236
$L192236:
  01241	dc ff ff ff	 DD	 -36			; ffffffdcH
  01245	10 00 00 00	 DD	 16			; 00000010H
  01249	00 00 00 00	 DD	 $L192234
$L192234:
  0124d	72		 DB	 114			; 00000072H
  0124e	63		 DB	 99			; 00000063H
  0124f	00		 DB	 0
_TEXT	ENDS
text$x	SEGMENT
$L192230:
  00283	8b f4		 mov	 esi, esp
  00285	8b 4d d4	 mov	 ecx, DWORD PTR $T192228[ebp]
  00288	ff 15 00 00 00
	00		 call	 DWORD PTR __imp_??1?$CStringT@DV?$StrTraitMFC_DLL@DV?$ChTraitsCRT@D@ATL@@@@@ATL@@QAE@XZ
  0028e	3b f4		 cmp	 esi, esp
  00290	e9 00 00 00 00	 jmp	 __RTC_CheckEsp
$L192231:
  00295	8b f4		 mov	 esi, esp
  00297	8b 4d d0	 mov	 ecx, DWORD PTR $T192229[ebp]
  0029a	ff 15 00 00 00
	00		 call	 DWORD PTR __imp_??1?$CStringT@DV?$StrTraitMFC_DLL@DV?$ChTraitsCRT@D@ATL@@@@@ATL@@QAE@XZ
  002a0	3b f4		 cmp	 esi, esp
  002a2	e9 00 00 00 00	 jmp	 __RTC_CheckEsp
__ehhandler$?OnClickedGameRight@WebGamePlayingWnd@@IAEXXZ:
  002a7	b8 00 00 00 00	 mov	 eax, OFFSET FLAT:$T192233
  002ac	e9 00 00 00 00	 jmp	 ___CxxFrameHandler
text$x	ENDS
?OnClickedGameRight@WebGamePlayingWnd@@IAEXXZ ENDP	; WebGamePlayingWnd::OnClickedGameRight
EXTRN	?SetWindowTextA@CWnd@@QAEXPBD@Z:NEAR		; CWnd::SetWindowTextA
EXTRN	?SetCheck@CButton@@QAEXH@Z:NEAR			; CButton::SetCheck
xdata$x	SEGMENT
$T192256 DD	0ffffffffH
	DD	FLAT:$L192245
	DD	00H
	DD	FLAT:$L192246
	DD	0ffffffffH
	DD	FLAT:$L192247
	DD	0ffffffffH
	DD	FLAT:$L192248
	DD	03H
	DD	FLAT:$L192249
$T192251 DD	019930520H
	DD	05H
	DD	FLAT:$T192256
	DD	2 DUP(00H)
	DD	2 DUP(00H)
; Function compile flags: /Odt /RTCsu
xdata$x	ENDS
_TEXT	SEGMENT
tv138 = -180						; size = 4
tv133 = -176						; size = 4
tv194 = -172						; size = 4
tv199 = -168						; size = 4
tv84 = -164						; size = 4
tv78 = -160						; size = 4
$T192244 = -156						; size = 28
$T192243 = -128						; size = 28
$T192242 = -100						; size = 4
$T192241 = -96						; size = 28
$T192240 = -68						; size = 28
_rc$ = -36						; size = 16
_this$ = -16						; size = 4
__$EHRec$ = -12						; size = 12
?UpdateAllWnd@WebGamePlayingWnd@@AAEXXZ PROC NEAR	; WebGamePlayingWnd::UpdateAllWnd
; _this$ = ecx

; 139  : {

  01250	55		 push	 ebp
  01251	8b ec		 mov	 ebp, esp
  01253	6a ff		 push	 -1
  01255	68 00 00 00 00	 push	 __ehhandler$?UpdateAllWnd@WebGamePlayingWnd@@AAEXXZ
  0125a	64 a1 00 00 00
	00		 mov	 eax, DWORD PTR fs:__except_list
  01260	50		 push	 eax
  01261	64 89 25 00 00
	00 00		 mov	 DWORD PTR fs:__except_list, esp
  01268	81 ec a8 00 00
	00		 sub	 esp, 168		; 000000a8H
  0126e	56		 push	 esi
  0126f	57		 push	 edi
  01270	51		 push	 ecx
  01271	8d bd 4c ff ff
	ff		 lea	 edi, DWORD PTR [ebp-180]
  01277	b9 2a 00 00 00	 mov	 ecx, 42			; 0000002aH
  0127c	b8 cc cc cc cc	 mov	 eax, -858993460		; ccccccccH
  01281	f3 ab		 rep stosd
  01283	59		 pop	 ecx
  01284	89 4d f0	 mov	 DWORD PTR _this$[ebp], ecx

; 140  : 	YL_Log("WebGamePlayingWnd.txt", LOG_DEBUG, "WebGamePlayingWnd::UpdateAllWnd", "===IN");

  01287	8b f4		 mov	 esi, esp
  01289	68 00 00 00 00	 push	 OFFSET FLAT:$SG191088
  0128e	8d 4d bc	 lea	 ecx, DWORD PTR $T192240[ebp]
  01291	ff 15 00 00 00
	00		 call	 DWORD PTR __imp_??0?$basic_string@DU?$char_traits@D@std@@V?$allocator@D@2@@std@@QAE@PBD@Z
  01297	3b f4		 cmp	 esi, esp
  01299	e8 00 00 00 00	 call	 __RTC_CheckEsp
  0129e	c7 45 fc 00 00
	00 00		 mov	 DWORD PTR __$EHRec$[ebp+8], 0
  012a5	8b f4		 mov	 esi, esp
  012a7	68 00 00 00 00	 push	 OFFSET FLAT:$SG191089
  012ac	8d 4d a0	 lea	 ecx, DWORD PTR $T192241[ebp]
  012af	ff 15 00 00 00
	00		 call	 DWORD PTR __imp_??0?$basic_string@DU?$char_traits@D@std@@V?$allocator@D@2@@std@@QAE@PBD@Z
  012b5	3b f4		 cmp	 esi, esp
  012b7	e8 00 00 00 00	 call	 __RTC_CheckEsp
  012bc	c6 45 fc 01	 mov	 BYTE PTR __$EHRec$[ebp+8], 1
  012c0	8b f4		 mov	 esi, esp
  012c2	68 00 00 00 00	 push	 OFFSET FLAT:$SG191087
  012c7	8d 45 bc	 lea	 eax, DWORD PTR $T192240[ebp]
  012ca	50		 push	 eax
  012cb	6a 00		 push	 0
  012cd	8d 4d a0	 lea	 ecx, DWORD PTR $T192241[ebp]
  012d0	51		 push	 ecx
  012d1	ff 15 00 00 00
	00		 call	 DWORD PTR __imp_?YL_Log@@YAXABV?$basic_string@DU?$char_traits@D@std@@V?$allocator@D@2@@std@@H0PBDZZ
  012d7	83 c4 10	 add	 esp, 16			; 00000010H
  012da	3b f4		 cmp	 esi, esp
  012dc	e8 00 00 00 00	 call	 __RTC_CheckEsp
  012e1	c6 45 fc 00	 mov	 BYTE PTR __$EHRec$[ebp+8], 0
  012e5	8b f4		 mov	 esi, esp
  012e7	8d 4d a0	 lea	 ecx, DWORD PTR $T192241[ebp]
  012ea	ff 15 00 00 00
	00		 call	 DWORD PTR __imp_??1?$basic_string@DU?$char_traits@D@std@@V?$allocator@D@2@@std@@QAE@XZ
  012f0	3b f4		 cmp	 esi, esp
  012f2	e8 00 00 00 00	 call	 __RTC_CheckEsp
  012f7	c7 45 fc ff ff
	ff ff		 mov	 DWORD PTR __$EHRec$[ebp+8], -1
  012fe	8b f4		 mov	 esi, esp
  01300	8d 4d bc	 lea	 ecx, DWORD PTR $T192240[ebp]
  01303	ff 15 00 00 00
	00		 call	 DWORD PTR __imp_??1?$basic_string@DU?$char_traits@D@std@@V?$allocator@D@2@@std@@QAE@XZ
  01309	3b f4		 cmp	 esi, esp
  0130b	e8 00 00 00 00	 call	 __RTC_CheckEsp

; 141  : 
; 142  : 	//
; 143  : 	if( GLOBAL_PANELCHANGEDATA->IPanelChange_IsFullScreen() )

  01310	e8 00 00 00 00	 call	 ?AfxGetDataManager2@@YAPAVIDataManager@@XZ ; AfxGetDataManager2
  01315	89 85 60 ff ff
	ff		 mov	 DWORD PTR tv78[ebp], eax
  0131b	8b f4		 mov	 esi, esp
  0131d	68 00 00 00 00	 push	 OFFSET FLAT:_ID_DATA_PANELCHANGE
  01322	8b 95 60 ff ff
	ff		 mov	 edx, DWORD PTR tv78[ebp]
  01328	8b 02		 mov	 eax, DWORD PTR [edx]
  0132a	8b 8d 60 ff ff
	ff		 mov	 ecx, DWORD PTR tv78[ebp]
  01330	ff 50 0c	 call	 DWORD PTR [eax+12]
  01333	3b f4		 cmp	 esi, esp
  01335	e8 00 00 00 00	 call	 __RTC_CheckEsp
  0133a	89 85 5c ff ff
	ff		 mov	 DWORD PTR tv84[ebp], eax
  01340	8b 8d 5c ff ff
	ff		 mov	 ecx, DWORD PTR tv84[ebp]
  01346	8b 11		 mov	 edx, DWORD PTR [ecx]
  01348	8b f4		 mov	 esi, esp
  0134a	8b 8d 5c ff ff
	ff		 mov	 ecx, DWORD PTR tv84[ebp]
  01350	ff 52 14	 call	 DWORD PTR [edx+20]
  01353	3b f4		 cmp	 esi, esp
  01355	e8 00 00 00 00	 call	 __RTC_CheckEsp
  0135a	0f b6 c0	 movzx	 eax, al
  0135d	85 c0		 test	 eax, eax
  0135f	74 15		 je	 SHORT $L191091

; 144  : 	{
; 145  : 		m_pBtnFullScreen->SetWindowText( TEXT_EXIT_FULLSCREEN );

  01361	68 00 00 00 00	 push	 OFFSET FLAT:$SG191092
  01366	8b 4d f0	 mov	 ecx, DWORD PTR _this$[ebp]
  01369	8b 89 ac 00 00
	00		 mov	 ecx, DWORD PTR [ecx+172]
  0136f	e8 00 00 00 00	 call	 ?SetWindowTextA@CWnd@@QAEXPBD@Z ; CWnd::SetWindowTextA

; 146  : 	}else

  01374	eb 13		 jmp	 SHORT $L191093
$L191091:

; 147  : 	{
; 148  : 		m_pBtnFullScreen->SetWindowText( TEXT_TO_FULLSCREEN );

  01376	68 00 00 00 00	 push	 OFFSET FLAT:$SG191094
  0137b	8b 55 f0	 mov	 edx, DWORD PTR _this$[ebp]
  0137e	8b 8a ac 00 00
	00		 mov	 ecx, DWORD PTR [edx+172]
  01384	e8 00 00 00 00	 call	 ?SetWindowTextA@CWnd@@QAEXPBD@Z ; CWnd::SetWindowTextA
$L191093:

; 149  : 	}
; 150  : 	//
; 151  : 	CRect rc;

  01389	8d 4d dc	 lea	 ecx, DWORD PTR _rc$[ebp]
  0138c	e8 00 00 00 00	 call	 ??0CRect@@QAE@XZ	; CRect::CRect

; 152  : 	AfxGetUIManager()->UIGetLayoutMgr()->GetPaneItemRect( GetParent(), "WebGameRight", rc );

  01391	8d 45 dc	 lea	 eax, DWORD PTR _rc$[ebp]
  01394	50		 push	 eax
  01395	51		 push	 ecx
  01396	8b cc		 mov	 ecx, esp
  01398	89 65 9c	 mov	 DWORD PTR $T192242[ebp], esp
  0139b	8b f4		 mov	 esi, esp
  0139d	68 00 00 00 00	 push	 OFFSET FLAT:$SG191097
  013a2	ff 15 00 00 00
	00		 call	 DWORD PTR __imp_??0?$CStringT@DV?$StrTraitMFC_DLL@DV?$ChTraitsCRT@D@ATL@@@@@ATL@@QAE@PBD@Z
  013a8	3b f4		 cmp	 esi, esp
  013aa	e8 00 00 00 00	 call	 __RTC_CheckEsp
  013af	89 85 58 ff ff
	ff		 mov	 DWORD PTR tv199[ebp], eax
  013b5	8b 8d 58 ff ff
	ff		 mov	 ecx, DWORD PTR tv199[ebp]
  013bb	89 8d 54 ff ff
	ff		 mov	 DWORD PTR tv194[ebp], ecx
  013c1	c7 45 fc 02 00
	00 00		 mov	 DWORD PTR __$EHRec$[ebp+8], 2
  013c8	e8 00 00 00 00	 call	 ?AfxGetUIManager@@YAPAVIUIManager@@XZ ; AfxGetUIManager
  013cd	89 85 50 ff ff
	ff		 mov	 DWORD PTR tv133[ebp], eax
  013d3	8b f4		 mov	 esi, esp
  013d5	8b 95 50 ff ff
	ff		 mov	 edx, DWORD PTR tv133[ebp]
  013db	8b 02		 mov	 eax, DWORD PTR [edx]
  013dd	8b 8d 50 ff ff
	ff		 mov	 ecx, DWORD PTR tv133[ebp]
  013e3	ff 50 24	 call	 DWORD PTR [eax+36]
  013e6	3b f4		 cmp	 esi, esp
  013e8	e8 00 00 00 00	 call	 __RTC_CheckEsp
  013ed	89 85 4c ff ff
	ff		 mov	 DWORD PTR tv138[ebp], eax
  013f3	8b 4d f0	 mov	 ecx, DWORD PTR _this$[ebp]
  013f6	e8 00 00 00 00	 call	 ?GetParent@CWnd@@QBEPAV1@XZ ; CWnd::GetParent
  013fb	50		 push	 eax
  013fc	8b 8d 4c ff ff
	ff		 mov	 ecx, DWORD PTR tv138[ebp]
  01402	8b 11		 mov	 edx, DWORD PTR [ecx]
  01404	c7 45 fc ff ff
	ff ff		 mov	 DWORD PTR __$EHRec$[ebp+8], -1
  0140b	8b 8d 4c ff ff
	ff		 mov	 ecx, DWORD PTR tv138[ebp]
  01411	ff 52 48	 call	 DWORD PTR [edx+72]

; 153  : 	if( !rc.IsRectEmpty() )

  01414	8d 4d dc	 lea	 ecx, DWORD PTR _rc$[ebp]
  01417	e8 00 00 00 00	 call	 ?IsRectEmpty@CRect@@QBEHXZ ; CRect::IsRectEmpty
  0141c	85 c0		 test	 eax, eax
  0141e	75 25		 jne	 SHORT $L191098

; 154  : 	{
; 155  : 		m_pBtnGameRight->SetWindowText( TEXT_CLOSE_INFO );

  01420	68 00 00 00 00	 push	 OFFSET FLAT:$SG191099
  01425	8b 45 f0	 mov	 eax, DWORD PTR _this$[ebp]
  01428	8b 88 b0 00 00
	00		 mov	 ecx, DWORD PTR [eax+176]
  0142e	e8 00 00 00 00	 call	 ?SetWindowTextA@CWnd@@QAEXPBD@Z ; CWnd::SetWindowTextA

; 156  : 		m_pBtnGameRight->SetCheck( 1 );

  01433	6a 01		 push	 1
  01435	8b 4d f0	 mov	 ecx, DWORD PTR _this$[ebp]
  01438	8b 89 b0 00 00
	00		 mov	 ecx, DWORD PTR [ecx+176]
  0143e	e8 00 00 00 00	 call	 ?SetCheck@CButton@@QAEXH@Z ; CButton::SetCheck

; 157  : 	}else

  01443	eb 23		 jmp	 SHORT $L191100
$L191098:

; 158  : 	{
; 159  : 		m_pBtnGameRight->SetWindowText( TEXT_OPEN_INFO );

  01445	68 00 00 00 00	 push	 OFFSET FLAT:$SG191101
  0144a	8b 55 f0	 mov	 edx, DWORD PTR _this$[ebp]
  0144d	8b 8a b0 00 00
	00		 mov	 ecx, DWORD PTR [edx+176]
  01453	e8 00 00 00 00	 call	 ?SetWindowTextA@CWnd@@QAEXPBD@Z ; CWnd::SetWindowTextA

; 160  : 		m_pBtnGameRight->SetCheck( 0 );

  01458	6a 00		 push	 0
  0145a	8b 45 f0	 mov	 eax, DWORD PTR _this$[ebp]
  0145d	8b 88 b0 00 00
	00		 mov	 ecx, DWORD PTR [eax+176]
  01463	e8 00 00 00 00	 call	 ?SetCheck@CButton@@QAEXH@Z ; CButton::SetCheck
$L191100:

; 161  : 	}
; 162  : 
; 163  : 	YL_Log("WebGamePlayingWnd.txt", LOG_DEBUG, "WebGamePlayingWnd::UpdateAllWnd", "===OUT");

  01468	8b f4		 mov	 esi, esp
  0146a	68 00 00 00 00	 push	 OFFSET FLAT:$SG191105
  0146f	8d 4d 80	 lea	 ecx, DWORD PTR $T192243[ebp]
  01472	ff 15 00 00 00
	00		 call	 DWORD PTR __imp_??0?$basic_string@DU?$char_traits@D@std@@V?$allocator@D@2@@std@@QAE@PBD@Z
  01478	3b f4		 cmp	 esi, esp
  0147a	e8 00 00 00 00	 call	 __RTC_CheckEsp
  0147f	c7 45 fc 03 00
	00 00		 mov	 DWORD PTR __$EHRec$[ebp+8], 3
  01486	8b f4		 mov	 esi, esp
  01488	68 00 00 00 00	 push	 OFFSET FLAT:$SG191106
  0148d	8d 8d 64 ff ff
	ff		 lea	 ecx, DWORD PTR $T192244[ebp]
  01493	ff 15 00 00 00
	00		 call	 DWORD PTR __imp_??0?$basic_string@DU?$char_traits@D@std@@V?$allocator@D@2@@std@@QAE@PBD@Z
  01499	3b f4		 cmp	 esi, esp
  0149b	e8 00 00 00 00	 call	 __RTC_CheckEsp
  014a0	c6 45 fc 04	 mov	 BYTE PTR __$EHRec$[ebp+8], 4
  014a4	8b f4		 mov	 esi, esp
  014a6	68 00 00 00 00	 push	 OFFSET FLAT:$SG191104
  014ab	8d 4d 80	 lea	 ecx, DWORD PTR $T192243[ebp]
  014ae	51		 push	 ecx
  014af	6a 00		 push	 0
  014b1	8d 95 64 ff ff
	ff		 lea	 edx, DWORD PTR $T192244[ebp]
  014b7	52		 push	 edx
  014b8	ff 15 00 00 00
	00		 call	 DWORD PTR __imp_?YL_Log@@YAXABV?$basic_string@DU?$char_traits@D@std@@V?$allocator@D@2@@std@@H0PBDZZ
  014be	83 c4 10	 add	 esp, 16			; 00000010H
  014c1	3b f4		 cmp	 esi, esp
  014c3	e8 00 00 00 00	 call	 __RTC_CheckEsp
  014c8	c6 45 fc 03	 mov	 BYTE PTR __$EHRec$[ebp+8], 3
  014cc	8b f4		 mov	 esi, esp
  014ce	8d 8d 64 ff ff
	ff		 lea	 ecx, DWORD PTR $T192244[ebp]
  014d4	ff 15 00 00 00
	00		 call	 DWORD PTR __imp_??1?$basic_string@DU?$char_traits@D@std@@V?$allocator@D@2@@std@@QAE@XZ
  014da	3b f4		 cmp	 esi, esp
  014dc	e8 00 00 00 00	 call	 __RTC_CheckEsp
  014e1	c7 45 fc ff ff
	ff ff		 mov	 DWORD PTR __$EHRec$[ebp+8], -1
  014e8	8b f4		 mov	 esi, esp
  014ea	8d 4d 80	 lea	 ecx, DWORD PTR $T192243[ebp]
  014ed	ff 15 00 00 00
	00		 call	 DWORD PTR __imp_??1?$basic_string@DU?$char_traits@D@std@@V?$allocator@D@2@@std@@QAE@XZ
  014f3	3b f4		 cmp	 esi, esp
  014f5	e8 00 00 00 00	 call	 __RTC_CheckEsp

; 164  : }

  014fa	52		 push	 edx
  014fb	8b cd		 mov	 ecx, ebp
  014fd	50		 push	 eax
  014fe	8d 15 00 00 00
	00		 lea	 edx, DWORD PTR $L192255
  01504	e8 00 00 00 00	 call	 @_RTC_CheckStackVars@8
  01509	58		 pop	 eax
  0150a	5a		 pop	 edx
  0150b	8b 4d f4	 mov	 ecx, DWORD PTR __$EHRec$[ebp]
  0150e	64 89 0d 00 00
	00 00		 mov	 DWORD PTR fs:__except_list, ecx
  01515	5f		 pop	 edi
  01516	5e		 pop	 esi
  01517	81 c4 b4 00 00
	00		 add	 esp, 180		; 000000b4H
  0151d	3b ec		 cmp	 ebp, esp
  0151f	e8 00 00 00 00	 call	 __RTC_CheckEsp
  01524	8b e5		 mov	 esp, ebp
  01526	5d		 pop	 ebp
  01527	c3		 ret	 0
$L192255:
  01528	01 00 00 00	 DD	 1
  0152c	00 00 00 00	 DD	 $L192254
$L192254:
  01530	dc ff ff ff	 DD	 -36			; ffffffdcH
  01534	10 00 00 00	 DD	 16			; 00000010H
  01538	00 00 00 00	 DD	 $L192252
$L192252:
  0153c	72		 DB	 114			; 00000072H
  0153d	63		 DB	 99			; 00000063H
  0153e	00		 DB	 0
_TEXT	ENDS
text$x	SEGMENT
$L192245:
  002b1	8b f4		 mov	 esi, esp
  002b3	8d 4d bc	 lea	 ecx, DWORD PTR $T192240[ebp]
  002b6	ff 15 00 00 00
	00		 call	 DWORD PTR __imp_??1?$basic_string@DU?$char_traits@D@std@@V?$allocator@D@2@@std@@QAE@XZ
  002bc	3b f4		 cmp	 esi, esp
  002be	e9 00 00 00 00	 jmp	 __RTC_CheckEsp
$L192246:
  002c3	8b f4		 mov	 esi, esp
  002c5	8d 4d a0	 lea	 ecx, DWORD PTR $T192241[ebp]
  002c8	ff 15 00 00 00
	00		 call	 DWORD PTR __imp_??1?$basic_string@DU?$char_traits@D@std@@V?$allocator@D@2@@std@@QAE@XZ
  002ce	3b f4		 cmp	 esi, esp
  002d0	e9 00 00 00 00	 jmp	 __RTC_CheckEsp
$L192247:
  002d5	8b f4		 mov	 esi, esp
  002d7	8b 4d 9c	 mov	 ecx, DWORD PTR $T192242[ebp]
  002da	ff 15 00 00 00
	00		 call	 DWORD PTR __imp_??1?$CStringT@DV?$StrTraitMFC_DLL@DV?$ChTraitsCRT@D@ATL@@@@@ATL@@QAE@XZ
  002e0	3b f4		 cmp	 esi, esp
  002e2	e9 00 00 00 00	 jmp	 __RTC_CheckEsp
$L192248:
  002e7	8b f4		 mov	 esi, esp
  002e9	8d 4d 80	 lea	 ecx, DWORD PTR $T192243[ebp]
  002ec	ff 15 00 00 00
	00		 call	 DWORD PTR __imp_??1?$basic_string@DU?$char_traits@D@std@@V?$allocator@D@2@@std@@QAE@XZ
  002f2	3b f4		 cmp	 esi, esp
  002f4	e9 00 00 00 00	 jmp	 __RTC_CheckEsp
$L192249:
  002f9	8b f4		 mov	 esi, esp
  002fb	8d 8d 64 ff ff
	ff		 lea	 ecx, DWORD PTR $T192244[ebp]
  00301	ff 15 00 00 00
	00		 call	 DWORD PTR __imp_??1?$basic_string@DU?$char_traits@D@std@@V?$allocator@D@2@@std@@QAE@XZ
  00307	3b f4		 cmp	 esi, esp
  00309	e9 00 00 00 00	 jmp	 __RTC_CheckEsp
__ehhandler$?UpdateAllWnd@WebGamePlayingWnd@@AAEXXZ:
  0030e	b8 00 00 00 00	 mov	 eax, OFFSET FLAT:$T192251
  00313	e9 00 00 00 00	 jmp	 ___CxxFrameHandler
text$x	ENDS
?UpdateAllWnd@WebGamePlayingWnd@@AAEXXZ ENDP		; WebGamePlayingWnd::UpdateAllWnd
xdata$x	SEGMENT
$T192269 DD	0ffffffffH
	DD	FLAT:$L192262
	DD	00H
	DD	FLAT:$L192263
	DD	0ffffffffH
	DD	FLAT:$L192264
	DD	02H
	DD	FLAT:$L192265
$T192267 DD	019930520H
	DD	04H
	DD	FLAT:$T192269
	DD	2 DUP(00H)
	DD	2 DUP(00H)
; Function compile flags: /Odt /RTCsu
xdata$x	ENDS
_TEXT	SEGMENT
$T192261 = -128						; size = 28
$T192260 = -100						; size = 28
$T192259 = -72						; size = 28
$T192258 = -44						; size = 28
_this$ = -16						; size = 4
__$EHRec$ = -12						; size = 12
?ILayoutChangeOb_InitFinished@WebGamePlayingWnd@@UAEXXZ PROC NEAR ; WebGamePlayingWnd::ILayoutChangeOb_InitFinished
; _this$ = ecx

; 168  : {

  01540	55		 push	 ebp
  01541	8b ec		 mov	 ebp, esp
  01543	6a ff		 push	 -1
  01545	68 00 00 00 00	 push	 __ehhandler$?ILayoutChangeOb_InitFinished@WebGamePlayingWnd@@UAEXXZ
  0154a	64 a1 00 00 00
	00		 mov	 eax, DWORD PTR fs:__except_list
  01550	50		 push	 eax
  01551	64 89 25 00 00
	00 00		 mov	 DWORD PTR fs:__except_list, esp
  01558	83 ec 74	 sub	 esp, 116		; 00000074H
  0155b	56		 push	 esi
  0155c	57		 push	 edi
  0155d	51		 push	 ecx
  0155e	8d 7d 80	 lea	 edi, DWORD PTR [ebp-128]
  01561	b9 1d 00 00 00	 mov	 ecx, 29			; 0000001dH
  01566	b8 cc cc cc cc	 mov	 eax, -858993460		; ccccccccH
  0156b	f3 ab		 rep stosd
  0156d	59		 pop	 ecx
  0156e	89 4d f0	 mov	 DWORD PTR _this$[ebp], ecx

; 169  : 	YL_Log("GamePlayingWnd.txt", LOG_DEBUG, "GamePlayingWnd::ILayoutChangeOb_InitFinished", "===IN");

  01571	8b f4		 mov	 esi, esp
  01573	68 00 00 00 00	 push	 OFFSET FLAT:$SG191113
  01578	8d 4d d4	 lea	 ecx, DWORD PTR $T192258[ebp]
  0157b	ff 15 00 00 00
	00		 call	 DWORD PTR __imp_??0?$basic_string@DU?$char_traits@D@std@@V?$allocator@D@2@@std@@QAE@PBD@Z
  01581	3b f4		 cmp	 esi, esp
  01583	e8 00 00 00 00	 call	 __RTC_CheckEsp
  01588	c7 45 fc 00 00
	00 00		 mov	 DWORD PTR __$EHRec$[ebp+8], 0
  0158f	8b f4		 mov	 esi, esp
  01591	68 00 00 00 00	 push	 OFFSET FLAT:$SG191114
  01596	8d 4d b8	 lea	 ecx, DWORD PTR $T192259[ebp]
  01599	ff 15 00 00 00
	00		 call	 DWORD PTR __imp_??0?$basic_string@DU?$char_traits@D@std@@V?$allocator@D@2@@std@@QAE@PBD@Z
  0159f	3b f4		 cmp	 esi, esp
  015a1	e8 00 00 00 00	 call	 __RTC_CheckEsp
  015a6	c6 45 fc 01	 mov	 BYTE PTR __$EHRec$[ebp+8], 1
  015aa	8b f4		 mov	 esi, esp
  015ac	68 00 00 00 00	 push	 OFFSET FLAT:$SG191112
  015b1	8d 45 d4	 lea	 eax, DWORD PTR $T192258[ebp]
  015b4	50		 push	 eax
  015b5	6a 00		 push	 0
  015b7	8d 4d b8	 lea	 ecx, DWORD PTR $T192259[ebp]
  015ba	51		 push	 ecx
  015bb	ff 15 00 00 00
	00		 call	 DWORD PTR __imp_?YL_Log@@YAXABV?$basic_string@DU?$char_traits@D@std@@V?$allocator@D@2@@std@@H0PBDZZ
  015c1	83 c4 10	 add	 esp, 16			; 00000010H
  015c4	3b f4		 cmp	 esi, esp
  015c6	e8 00 00 00 00	 call	 __RTC_CheckEsp
  015cb	c6 45 fc 00	 mov	 BYTE PTR __$EHRec$[ebp+8], 0
  015cf	8b f4		 mov	 esi, esp
  015d1	8d 4d b8	 lea	 ecx, DWORD PTR $T192259[ebp]
  015d4	ff 15 00 00 00
	00		 call	 DWORD PTR __imp_??1?$basic_string@DU?$char_traits@D@std@@V?$allocator@D@2@@std@@QAE@XZ
  015da	3b f4		 cmp	 esi, esp
  015dc	e8 00 00 00 00	 call	 __RTC_CheckEsp
  015e1	c7 45 fc ff ff
	ff ff		 mov	 DWORD PTR __$EHRec$[ebp+8], -1
  015e8	8b f4		 mov	 esi, esp
  015ea	8d 4d d4	 lea	 ecx, DWORD PTR $T192258[ebp]
  015ed	ff 15 00 00 00
	00		 call	 DWORD PTR __imp_??1?$basic_string@DU?$char_traits@D@std@@V?$allocator@D@2@@std@@QAE@XZ
  015f3	3b f4		 cmp	 esi, esp
  015f5	e8 00 00 00 00	 call	 __RTC_CheckEsp

; 170  : 	UpdateAllWnd();

  015fa	8b 4d f0	 mov	 ecx, DWORD PTR _this$[ebp]
  015fd	83 e9 54	 sub	 ecx, 84			; 00000054H
  01600	e8 00 00 00 00	 call	 ?UpdateAllWnd@WebGamePlayingWnd@@AAEXXZ ; WebGamePlayingWnd::UpdateAllWnd

; 171  : 	YL_Log("GamePlayingWnd.txt", LOG_DEBUG, "GamePlayingWnd::ILayoutChangeOb_InitFinished", "===OUT");

  01605	8b f4		 mov	 esi, esp
  01607	68 00 00 00 00	 push	 OFFSET FLAT:$SG191118
  0160c	8d 4d 9c	 lea	 ecx, DWORD PTR $T192260[ebp]
  0160f	ff 15 00 00 00
	00		 call	 DWORD PTR __imp_??0?$basic_string@DU?$char_traits@D@std@@V?$allocator@D@2@@std@@QAE@PBD@Z
  01615	3b f4		 cmp	 esi, esp
  01617	e8 00 00 00 00	 call	 __RTC_CheckEsp
  0161c	c7 45 fc 02 00
	00 00		 mov	 DWORD PTR __$EHRec$[ebp+8], 2
  01623	8b f4		 mov	 esi, esp
  01625	68 00 00 00 00	 push	 OFFSET FLAT:$SG191119
  0162a	8d 4d 80	 lea	 ecx, DWORD PTR $T192261[ebp]
  0162d	ff 15 00 00 00
	00		 call	 DWORD PTR __imp_??0?$basic_string@DU?$char_traits@D@std@@V?$allocator@D@2@@std@@QAE@PBD@Z
  01633	3b f4		 cmp	 esi, esp
  01635	e8 00 00 00 00	 call	 __RTC_CheckEsp
  0163a	c6 45 fc 03	 mov	 BYTE PTR __$EHRec$[ebp+8], 3
  0163e	8b f4		 mov	 esi, esp
  01640	68 00 00 00 00	 push	 OFFSET FLAT:$SG191117
  01645	8d 55 9c	 lea	 edx, DWORD PTR $T192260[ebp]
  01648	52		 push	 edx
  01649	6a 00		 push	 0
  0164b	8d 45 80	 lea	 eax, DWORD PTR $T192261[ebp]
  0164e	50		 push	 eax
  0164f	ff 15 00 00 00
	00		 call	 DWORD PTR __imp_?YL_Log@@YAXABV?$basic_string@DU?$char_traits@D@std@@V?$allocator@D@2@@std@@H0PBDZZ
  01655	83 c4 10	 add	 esp, 16			; 00000010H
  01658	3b f4		 cmp	 esi, esp
  0165a	e8 00 00 00 00	 call	 __RTC_CheckEsp
  0165f	c6 45 fc 02	 mov	 BYTE PTR __$EHRec$[ebp+8], 2
  01663	8b f4		 mov	 esi, esp
  01665	8d 4d 80	 lea	 ecx, DWORD PTR $T192261[ebp]
  01668	ff 15 00 00 00
	00		 call	 DWORD PTR __imp_??1?$basic_string@DU?$char_traits@D@std@@V?$allocator@D@2@@std@@QAE@XZ
  0166e	3b f4		 cmp	 esi, esp
  01670	e8 00 00 00 00	 call	 __RTC_CheckEsp
  01675	c7 45 fc ff ff
	ff ff		 mov	 DWORD PTR __$EHRec$[ebp+8], -1
  0167c	8b f4		 mov	 esi, esp
  0167e	8d 4d 9c	 lea	 ecx, DWORD PTR $T192260[ebp]
  01681	ff 15 00 00 00
	00		 call	 DWORD PTR __imp_??1?$basic_string@DU?$char_traits@D@std@@V?$allocator@D@2@@std@@QAE@XZ
  01687	3b f4		 cmp	 esi, esp
  01689	e8 00 00 00 00	 call	 __RTC_CheckEsp

; 172  : }

  0168e	8b 4d f4	 mov	 ecx, DWORD PTR __$EHRec$[ebp]
  01691	64 89 0d 00 00
	00 00		 mov	 DWORD PTR fs:__except_list, ecx
  01698	5f		 pop	 edi
  01699	5e		 pop	 esi
  0169a	81 c4 80 00 00
	00		 add	 esp, 128		; 00000080H
  016a0	3b ec		 cmp	 ebp, esp
  016a2	e8 00 00 00 00	 call	 __RTC_CheckEsp
  016a7	8b e5		 mov	 esp, ebp
  016a9	5d		 pop	 ebp
  016aa	c3		 ret	 0
_TEXT	ENDS
text$x	SEGMENT
$L192262:
  00318	8b f4		 mov	 esi, esp
  0031a	8d 4d d4	 lea	 ecx, DWORD PTR $T192258[ebp]
  0031d	ff 15 00 00 00
	00		 call	 DWORD PTR __imp_??1?$basic_string@DU?$char_traits@D@std@@V?$allocator@D@2@@std@@QAE@XZ
  00323	3b f4		 cmp	 esi, esp
  00325	e9 00 00 00 00	 jmp	 __RTC_CheckEsp
$L192263:
  0032a	8b f4		 mov	 esi, esp
  0032c	8d 4d b8	 lea	 ecx, DWORD PTR $T192259[ebp]
  0032f	ff 15 00 00 00
	00		 call	 DWORD PTR __imp_??1?$basic_string@DU?$char_traits@D@std@@V?$allocator@D@2@@std@@QAE@XZ
  00335	3b f4		 cmp	 esi, esp
  00337	e9 00 00 00 00	 jmp	 __RTC_CheckEsp
$L192264:
  0033c	8b f4		 mov	 esi, esp
  0033e	8d 4d 9c	 lea	 ecx, DWORD PTR $T192260[ebp]
  00341	ff 15 00 00 00
	00		 call	 DWORD PTR __imp_??1?$basic_string@DU?$char_traits@D@std@@V?$allocator@D@2@@std@@QAE@XZ
  00347	3b f4		 cmp	 esi, esp
  00349	e9 00 00 00 00	 jmp	 __RTC_CheckEsp
$L192265:
  0034e	8b f4		 mov	 esi, esp
  00350	8d 4d 80	 lea	 ecx, DWORD PTR $T192261[ebp]
  00353	ff 15 00 00 00
	00		 call	 DWORD PTR __imp_??1?$basic_string@DU?$char_traits@D@std@@V?$allocator@D@2@@std@@QAE@XZ
  00359	3b f4		 cmp	 esi, esp
  0035b	e9 00 00 00 00	 jmp	 __RTC_CheckEsp
__ehhandler$?ILayoutChangeOb_InitFinished@WebGamePlayingWnd@@UAEXXZ:
  00360	b8 00 00 00 00	 mov	 eax, OFFSET FLAT:$T192267
  00365	e9 00 00 00 00	 jmp	 ___CxxFrameHandler
text$x	ENDS
?ILayoutChangeOb_InitFinished@WebGamePlayingWnd@@UAEXXZ ENDP ; WebGamePlayingWnd::ILayoutChangeOb_InitFinished
xdata$x	SEGMENT
$T192284 DD	0ffffffffH
	DD	FLAT:$L192275
	DD	00H
	DD	FLAT:$L192276
	DD	01H
	DD	FLAT:$L192277
	DD	02H
	DD	FLAT:$L192278
	DD	01H
	DD	FLAT:$L192279
	DD	04H
	DD	FLAT:$L192280
$T192282 DD	019930520H
	DD	06H
	DD	FLAT:$T192284
	DD	2 DUP(00H)
	DD	2 DUP(00H)
; Function compile flags: /Odt /RTCsu
xdata$x	ENDS
_TEXT	SEGMENT
$T192274 = -128						; size = 28
$T192273 = -100						; size = 28
$T192272 = -72						; size = 28
$T192271 = -44						; size = 28
_this$ = -16						; size = 4
__$EHRec$ = -12						; size = 12
_oldSkinPath$ = 8					; size = 28
_newSkinPath$ = 36					; size = 28
?ILayoutChangeOb_SkinChanged@WebGamePlayingWnd@@UAEXV?$basic_string@DU?$char_traits@D@std@@V?$allocator@D@2@@std@@0@Z PROC NEAR ; WebGamePlayingWnd::ILayoutChangeOb_SkinChanged
; _this$ = ecx

; 174  : {

  016b0	55		 push	 ebp
  016b1	8b ec		 mov	 ebp, esp
  016b3	6a ff		 push	 -1
  016b5	68 00 00 00 00	 push	 __ehhandler$?ILayoutChangeOb_SkinChanged@WebGamePlayingWnd@@UAEXV?$basic_string@DU?$char_traits@D@std@@V?$allocator@D@2@@std@@0@Z
  016ba	64 a1 00 00 00
	00		 mov	 eax, DWORD PTR fs:__except_list
  016c0	50		 push	 eax
  016c1	64 89 25 00 00
	00 00		 mov	 DWORD PTR fs:__except_list, esp
  016c8	83 ec 74	 sub	 esp, 116		; 00000074H
  016cb	56		 push	 esi
  016cc	57		 push	 edi
  016cd	51		 push	 ecx
  016ce	8d 7d 80	 lea	 edi, DWORD PTR [ebp-128]
  016d1	b9 1d 00 00 00	 mov	 ecx, 29			; 0000001dH
  016d6	b8 cc cc cc cc	 mov	 eax, -858993460		; ccccccccH
  016db	f3 ab		 rep stosd
  016dd	59		 pop	 ecx
  016de	89 4d f0	 mov	 DWORD PTR _this$[ebp], ecx
  016e1	c7 45 fc 01 00
	00 00		 mov	 DWORD PTR __$EHRec$[ebp+8], 1

; 175  : 	YL_Log("GamePlayingWnd.txt", LOG_DEBUG, "GamePlayingWnd::ILayoutChangeOb_SkinChanged", "===IN");

  016e8	8b f4		 mov	 esi, esp
  016ea	68 00 00 00 00	 push	 OFFSET FLAT:$SG191128
  016ef	8d 4d d4	 lea	 ecx, DWORD PTR $T192271[ebp]
  016f2	ff 15 00 00 00
	00		 call	 DWORD PTR __imp_??0?$basic_string@DU?$char_traits@D@std@@V?$allocator@D@2@@std@@QAE@PBD@Z
  016f8	3b f4		 cmp	 esi, esp
  016fa	e8 00 00 00 00	 call	 __RTC_CheckEsp
  016ff	c6 45 fc 02	 mov	 BYTE PTR __$EHRec$[ebp+8], 2
  01703	8b f4		 mov	 esi, esp
  01705	68 00 00 00 00	 push	 OFFSET FLAT:$SG191129
  0170a	8d 4d b8	 lea	 ecx, DWORD PTR $T192272[ebp]
  0170d	ff 15 00 00 00
	00		 call	 DWORD PTR __imp_??0?$basic_string@DU?$char_traits@D@std@@V?$allocator@D@2@@std@@QAE@PBD@Z
  01713	3b f4		 cmp	 esi, esp
  01715	e8 00 00 00 00	 call	 __RTC_CheckEsp
  0171a	c6 45 fc 03	 mov	 BYTE PTR __$EHRec$[ebp+8], 3
  0171e	8b f4		 mov	 esi, esp
  01720	68 00 00 00 00	 push	 OFFSET FLAT:$SG191127
  01725	8d 45 d4	 lea	 eax, DWORD PTR $T192271[ebp]
  01728	50		 push	 eax
  01729	6a 00		 push	 0
  0172b	8d 4d b8	 lea	 ecx, DWORD PTR $T192272[ebp]
  0172e	51		 push	 ecx
  0172f	ff 15 00 00 00
	00		 call	 DWORD PTR __imp_?YL_Log@@YAXABV?$basic_string@DU?$char_traits@D@std@@V?$allocator@D@2@@std@@H0PBDZZ
  01735	83 c4 10	 add	 esp, 16			; 00000010H
  01738	3b f4		 cmp	 esi, esp
  0173a	e8 00 00 00 00	 call	 __RTC_CheckEsp
  0173f	c6 45 fc 02	 mov	 BYTE PTR __$EHRec$[ebp+8], 2
  01743	8b f4		 mov	 esi, esp
  01745	8d 4d b8	 lea	 ecx, DWORD PTR $T192272[ebp]
  01748	ff 15 00 00 00
	00		 call	 DWORD PTR __imp_??1?$basic_string@DU?$char_traits@D@std@@V?$allocator@D@2@@std@@QAE@XZ
  0174e	3b f4		 cmp	 esi, esp
  01750	e8 00 00 00 00	 call	 __RTC_CheckEsp
  01755	c6 45 fc 01	 mov	 BYTE PTR __$EHRec$[ebp+8], 1
  01759	8b f4		 mov	 esi, esp
  0175b	8d 4d d4	 lea	 ecx, DWORD PTR $T192271[ebp]
  0175e	ff 15 00 00 00
	00		 call	 DWORD PTR __imp_??1?$basic_string@DU?$char_traits@D@std@@V?$allocator@D@2@@std@@QAE@XZ
  01764	3b f4		 cmp	 esi, esp
  01766	e8 00 00 00 00	 call	 __RTC_CheckEsp

; 176  : 	UpdateAllWnd();

  0176b	8b 4d f0	 mov	 ecx, DWORD PTR _this$[ebp]
  0176e	83 e9 54	 sub	 ecx, 84			; 00000054H
  01771	e8 00 00 00 00	 call	 ?UpdateAllWnd@WebGamePlayingWnd@@AAEXXZ ; WebGamePlayingWnd::UpdateAllWnd

; 177  : 	YL_Log("GamePlayingWnd.txt", LOG_DEBUG, "GamePlayingWnd::ILayoutChangeOb_SkinChanged", "===OUT");

  01776	8b f4		 mov	 esi, esp
  01778	68 00 00 00 00	 push	 OFFSET FLAT:$SG191133
  0177d	8d 4d 9c	 lea	 ecx, DWORD PTR $T192273[ebp]
  01780	ff 15 00 00 00
	00		 call	 DWORD PTR __imp_??0?$basic_string@DU?$char_traits@D@std@@V?$allocator@D@2@@std@@QAE@PBD@Z
  01786	3b f4		 cmp	 esi, esp
  01788	e8 00 00 00 00	 call	 __RTC_CheckEsp
  0178d	c6 45 fc 04	 mov	 BYTE PTR __$EHRec$[ebp+8], 4
  01791	8b f4		 mov	 esi, esp
  01793	68 00 00 00 00	 push	 OFFSET FLAT:$SG191134
  01798	8d 4d 80	 lea	 ecx, DWORD PTR $T192274[ebp]
  0179b	ff 15 00 00 00
	00		 call	 DWORD PTR __imp_??0?$basic_string@DU?$char_traits@D@std@@V?$allocator@D@2@@std@@QAE@PBD@Z
  017a1	3b f4		 cmp	 esi, esp
  017a3	e8 00 00 00 00	 call	 __RTC_CheckEsp
  017a8	c6 45 fc 05	 mov	 BYTE PTR __$EHRec$[ebp+8], 5
  017ac	8b f4		 mov	 esi, esp
  017ae	68 00 00 00 00	 push	 OFFSET FLAT:$SG191132
  017b3	8d 55 9c	 lea	 edx, DWORD PTR $T192273[ebp]
  017b6	52		 push	 edx
  017b7	6a 00		 push	 0
  017b9	8d 45 80	 lea	 eax, DWORD PTR $T192274[ebp]
  017bc	50		 push	 eax
  017bd	ff 15 00 00 00
	00		 call	 DWORD PTR __imp_?YL_Log@@YAXABV?$basic_string@DU?$char_traits@D@std@@V?$allocator@D@2@@std@@H0PBDZZ
  017c3	83 c4 10	 add	 esp, 16			; 00000010H
  017c6	3b f4		 cmp	 esi, esp
  017c8	e8 00 00 00 00	 call	 __RTC_CheckEsp
  017cd	c6 45 fc 04	 mov	 BYTE PTR __$EHRec$[ebp+8], 4
  017d1	8b f4		 mov	 esi, esp
  017d3	8d 4d 80	 lea	 ecx, DWORD PTR $T192274[ebp]
  017d6	ff 15 00 00 00
	00		 call	 DWORD PTR __imp_??1?$basic_string@DU?$char_traits@D@std@@V?$allocator@D@2@@std@@QAE@XZ
  017dc	3b f4		 cmp	 esi, esp
  017de	e8 00 00 00 00	 call	 __RTC_CheckEsp
  017e3	c6 45 fc 01	 mov	 BYTE PTR __$EHRec$[ebp+8], 1
  017e7	8b f4		 mov	 esi, esp
  017e9	8d 4d 9c	 lea	 ecx, DWORD PTR $T192273[ebp]
  017ec	ff 15 00 00 00
	00		 call	 DWORD PTR __imp_??1?$basic_string@DU?$char_traits@D@std@@V?$allocator@D@2@@std@@QAE@XZ
  017f2	3b f4		 cmp	 esi, esp
  017f4	e8 00 00 00 00	 call	 __RTC_CheckEsp

; 178  : }

  017f9	c6 45 fc 00	 mov	 BYTE PTR __$EHRec$[ebp+8], 0
  017fd	8b f4		 mov	 esi, esp
  017ff	8d 4d 08	 lea	 ecx, DWORD PTR _oldSkinPath$[ebp]
  01802	ff 15 00 00 00
	00		 call	 DWORD PTR __imp_??1?$basic_string@DU?$char_traits@D@std@@V?$allocator@D@2@@std@@QAE@XZ
  01808	3b f4		 cmp	 esi, esp
  0180a	e8 00 00 00 00	 call	 __RTC_CheckEsp
  0180f	c7 45 fc ff ff
	ff ff		 mov	 DWORD PTR __$EHRec$[ebp+8], -1
  01816	8b f4		 mov	 esi, esp
  01818	8d 4d 24	 lea	 ecx, DWORD PTR _newSkinPath$[ebp]
  0181b	ff 15 00 00 00
	00		 call	 DWORD PTR __imp_??1?$basic_string@DU?$char_traits@D@std@@V?$allocator@D@2@@std@@QAE@XZ
  01821	3b f4		 cmp	 esi, esp
  01823	e8 00 00 00 00	 call	 __RTC_CheckEsp
  01828	8b 4d f4	 mov	 ecx, DWORD PTR __$EHRec$[ebp]
  0182b	64 89 0d 00 00
	00 00		 mov	 DWORD PTR fs:__except_list, ecx
  01832	5f		 pop	 edi
  01833	5e		 pop	 esi
  01834	81 c4 80 00 00
	00		 add	 esp, 128		; 00000080H
  0183a	3b ec		 cmp	 ebp, esp
  0183c	e8 00 00 00 00	 call	 __RTC_CheckEsp
  01841	8b e5		 mov	 esp, ebp
  01843	5d		 pop	 ebp
  01844	c2 38 00	 ret	 56			; 00000038H
_TEXT	ENDS
text$x	SEGMENT
$L192275:
  0036a	8b f4		 mov	 esi, esp
  0036c	8d 4d 24	 lea	 ecx, DWORD PTR _newSkinPath$[ebp]
  0036f	ff 15 00 00 00
	00		 call	 DWORD PTR __imp_??1?$basic_string@DU?$char_traits@D@std@@V?$allocator@D@2@@std@@QAE@XZ
  00375	3b f4		 cmp	 esi, esp
  00377	e9 00 00 00 00	 jmp	 __RTC_CheckEsp
$L192276:
  0037c	8b f4		 mov	 esi, esp
  0037e	8d 4d 08	 lea	 ecx, DWORD PTR _oldSkinPath$[ebp]
  00381	ff 15 00 00 00
	00		 call	 DWORD PTR __imp_??1?$basic_string@DU?$char_traits@D@std@@V?$allocator@D@2@@std@@QAE@XZ
  00387	3b f4		 cmp	 esi, esp
  00389	e9 00 00 00 00	 jmp	 __RTC_CheckEsp
$L192277:
  0038e	8b f4		 mov	 esi, esp
  00390	8d 4d d4	 lea	 ecx, DWORD PTR $T192271[ebp]
  00393	ff 15 00 00 00
	00		 call	 DWORD PTR __imp_??1?$basic_string@DU?$char_traits@D@std@@V?$allocator@D@2@@std@@QAE@XZ
  00399	3b f4		 cmp	 esi, esp
  0039b	e9 00 00 00 00	 jmp	 __RTC_CheckEsp
$L192278:
  003a0	8b f4		 mov	 esi, esp
  003a2	8d 4d b8	 lea	 ecx, DWORD PTR $T192272[ebp]
  003a5	ff 15 00 00 00
	00		 call	 DWORD PTR __imp_??1?$basic_string@DU?$char_traits@D@std@@V?$allocator@D@2@@std@@QAE@XZ
  003ab	3b f4		 cmp	 esi, esp
  003ad	e9 00 00 00 00	 jmp	 __RTC_CheckEsp
$L192279:
  003b2	8b f4		 mov	 esi, esp
  003b4	8d 4d 9c	 lea	 ecx, DWORD PTR $T192273[ebp]
  003b7	ff 15 00 00 00
	00		 call	 DWORD PTR __imp_??1?$basic_string@DU?$char_traits@D@std@@V?$allocator@D@2@@std@@QAE@XZ
  003bd	3b f4		 cmp	 esi, esp
  003bf	e9 00 00 00 00	 jmp	 __RTC_CheckEsp
$L192280:
  003c4	8b f4		 mov	 esi, esp
  003c6	8d 4d 80	 lea	 ecx, DWORD PTR $T192274[ebp]
  003c9	ff 15 00 00 00
	00		 call	 DWORD PTR __imp_??1?$basic_string@DU?$char_traits@D@std@@V?$allocator@D@2@@std@@QAE@XZ
  003cf	3b f4		 cmp	 esi, esp
  003d1	e9 00 00 00 00	 jmp	 __RTC_CheckEsp
__ehhandler$?ILayoutChangeOb_SkinChanged@WebGamePlayingWnd@@UAEXV?$basic_string@DU?$char_traits@D@std@@V?$allocator@D@2@@std@@0@Z:
  003d6	b8 00 00 00 00	 mov	 eax, OFFSET FLAT:$T192282
  003db	e9 00 00 00 00	 jmp	 ___CxxFrameHandler
text$x	ENDS
?ILayoutChangeOb_SkinChanged@WebGamePlayingWnd@@UAEXV?$basic_string@DU?$char_traits@D@std@@V?$allocator@D@2@@std@@0@Z ENDP ; WebGamePlayingWnd::ILayoutChangeOb_SkinChanged
xdata$x	SEGMENT
$T192297 DD	0ffffffffH
	DD	FLAT:$L192290
	DD	00H
	DD	FLAT:$L192291
	DD	0ffffffffH
	DD	FLAT:$L192292
	DD	02H
	DD	FLAT:$L192293
$T192295 DD	019930520H
	DD	04H
	DD	FLAT:$T192297
	DD	2 DUP(00H)
	DD	2 DUP(00H)
; Function compile flags: /Odt /RTCsu
xdata$x	ENDS
_TEXT	SEGMENT
$T192289 = -128						; size = 28
$T192288 = -100						; size = 28
$T192287 = -72						; size = 28
$T192286 = -44						; size = 28
_this$ = -16						; size = 4
__$EHRec$ = -12						; size = 12
_hWnd$ = 8						; size = 4
?ILayoutChangeOb_UpdateLayout@WebGamePlayingWnd@@UAEXPAUHWND__@@@Z PROC NEAR ; WebGamePlayingWnd::ILayoutChangeOb_UpdateLayout
; _this$ = ecx

; 181  : {

  01850	55		 push	 ebp
  01851	8b ec		 mov	 ebp, esp
  01853	6a ff		 push	 -1
  01855	68 00 00 00 00	 push	 __ehhandler$?ILayoutChangeOb_UpdateLayout@WebGamePlayingWnd@@UAEXPAUHWND__@@@Z
  0185a	64 a1 00 00 00
	00		 mov	 eax, DWORD PTR fs:__except_list
  01860	50		 push	 eax
  01861	64 89 25 00 00
	00 00		 mov	 DWORD PTR fs:__except_list, esp
  01868	83 ec 74	 sub	 esp, 116		; 00000074H
  0186b	56		 push	 esi
  0186c	57		 push	 edi
  0186d	51		 push	 ecx
  0186e	8d 7d 80	 lea	 edi, DWORD PTR [ebp-128]
  01871	b9 1d 00 00 00	 mov	 ecx, 29			; 0000001dH
  01876	b8 cc cc cc cc	 mov	 eax, -858993460		; ccccccccH
  0187b	f3 ab		 rep stosd
  0187d	59		 pop	 ecx
  0187e	89 4d f0	 mov	 DWORD PTR _this$[ebp], ecx

; 182  : 	YL_Log("GamePlayingWnd.txt", LOG_DEBUG, "GamePlayingWnd::ILayoutChangeOb_UpdateLayout", "===IN");

  01881	8b f4		 mov	 esi, esp
  01883	68 00 00 00 00	 push	 OFFSET FLAT:$SG191142
  01888	8d 4d d4	 lea	 ecx, DWORD PTR $T192286[ebp]
  0188b	ff 15 00 00 00
	00		 call	 DWORD PTR __imp_??0?$basic_string@DU?$char_traits@D@std@@V?$allocator@D@2@@std@@QAE@PBD@Z
  01891	3b f4		 cmp	 esi, esp
  01893	e8 00 00 00 00	 call	 __RTC_CheckEsp
  01898	c7 45 fc 00 00
	00 00		 mov	 DWORD PTR __$EHRec$[ebp+8], 0
  0189f	8b f4		 mov	 esi, esp
  018a1	68 00 00 00 00	 push	 OFFSET FLAT:$SG191143
  018a6	8d 4d b8	 lea	 ecx, DWORD PTR $T192287[ebp]
  018a9	ff 15 00 00 00
	00		 call	 DWORD PTR __imp_??0?$basic_string@DU?$char_traits@D@std@@V?$allocator@D@2@@std@@QAE@PBD@Z
  018af	3b f4		 cmp	 esi, esp
  018b1	e8 00 00 00 00	 call	 __RTC_CheckEsp
  018b6	c6 45 fc 01	 mov	 BYTE PTR __$EHRec$[ebp+8], 1
  018ba	8b f4		 mov	 esi, esp
  018bc	68 00 00 00 00	 push	 OFFSET FLAT:$SG191141
  018c1	8d 45 d4	 lea	 eax, DWORD PTR $T192286[ebp]
  018c4	50		 push	 eax
  018c5	6a 00		 push	 0
  018c7	8d 4d b8	 lea	 ecx, DWORD PTR $T192287[ebp]
  018ca	51		 push	 ecx
  018cb	ff 15 00 00 00
	00		 call	 DWORD PTR __imp_?YL_Log@@YAXABV?$basic_string@DU?$char_traits@D@std@@V?$allocator@D@2@@std@@H0PBDZZ
  018d1	83 c4 10	 add	 esp, 16			; 00000010H
  018d4	3b f4		 cmp	 esi, esp
  018d6	e8 00 00 00 00	 call	 __RTC_CheckEsp
  018db	c6 45 fc 00	 mov	 BYTE PTR __$EHRec$[ebp+8], 0
  018df	8b f4		 mov	 esi, esp
  018e1	8d 4d b8	 lea	 ecx, DWORD PTR $T192287[ebp]
  018e4	ff 15 00 00 00
	00		 call	 DWORD PTR __imp_??1?$basic_string@DU?$char_traits@D@std@@V?$allocator@D@2@@std@@QAE@XZ
  018ea	3b f4		 cmp	 esi, esp
  018ec	e8 00 00 00 00	 call	 __RTC_CheckEsp
  018f1	c7 45 fc ff ff
	ff ff		 mov	 DWORD PTR __$EHRec$[ebp+8], -1
  018f8	8b f4		 mov	 esi, esp
  018fa	8d 4d d4	 lea	 ecx, DWORD PTR $T192286[ebp]
  018fd	ff 15 00 00 00
	00		 call	 DWORD PTR __imp_??1?$basic_string@DU?$char_traits@D@std@@V?$allocator@D@2@@std@@QAE@XZ
  01903	3b f4		 cmp	 esi, esp
  01905	e8 00 00 00 00	 call	 __RTC_CheckEsp

; 183  : 	if( hWnd == GetSafeHwnd() )

  0190a	8b 4d f0	 mov	 ecx, DWORD PTR _this$[ebp]
  0190d	83 e9 54	 sub	 ecx, 84			; 00000054H
  01910	e8 00 00 00 00	 call	 ?GetSafeHwnd@CWnd@@QBEPAUHWND__@@XZ ; CWnd::GetSafeHwnd
  01915	39 45 08	 cmp	 DWORD PTR _hWnd$[ebp], eax
  01918	75 0b		 jne	 SHORT $L191144

; 184  : 	{
; 185  : 		UpdateAllWnd();

  0191a	8b 4d f0	 mov	 ecx, DWORD PTR _this$[ebp]
  0191d	83 e9 54	 sub	 ecx, 84			; 00000054H
  01920	e8 00 00 00 00	 call	 ?UpdateAllWnd@WebGamePlayingWnd@@AAEXXZ ; WebGamePlayingWnd::UpdateAllWnd
$L191144:

; 186  : 	}
; 187  : 	YL_Log("GamePlayingWnd.txt", LOG_DEBUG, "GamePlayingWnd::ILayoutChangeOb_UpdateLayout", "===OUT");

  01925	8b f4		 mov	 esi, esp
  01927	68 00 00 00 00	 push	 OFFSET FLAT:$SG191148
  0192c	8d 4d 9c	 lea	 ecx, DWORD PTR $T192288[ebp]
  0192f	ff 15 00 00 00
	00		 call	 DWORD PTR __imp_??0?$basic_string@DU?$char_traits@D@std@@V?$allocator@D@2@@std@@QAE@PBD@Z
  01935	3b f4		 cmp	 esi, esp
  01937	e8 00 00 00 00	 call	 __RTC_CheckEsp
  0193c	c7 45 fc 02 00
	00 00		 mov	 DWORD PTR __$EHRec$[ebp+8], 2
  01943	8b f4		 mov	 esi, esp
  01945	68 00 00 00 00	 push	 OFFSET FLAT:$SG191149
  0194a	8d 4d 80	 lea	 ecx, DWORD PTR $T192289[ebp]
  0194d	ff 15 00 00 00
	00		 call	 DWORD PTR __imp_??0?$basic_string@DU?$char_traits@D@std@@V?$allocator@D@2@@std@@QAE@PBD@Z
  01953	3b f4		 cmp	 esi, esp
  01955	e8 00 00 00 00	 call	 __RTC_CheckEsp
  0195a	c6 45 fc 03	 mov	 BYTE PTR __$EHRec$[ebp+8], 3
  0195e	8b f4		 mov	 esi, esp
  01960	68 00 00 00 00	 push	 OFFSET FLAT:$SG191147
  01965	8d 55 9c	 lea	 edx, DWORD PTR $T192288[ebp]
  01968	52		 push	 edx
  01969	6a 00		 push	 0
  0196b	8d 45 80	 lea	 eax, DWORD PTR $T192289[ebp]
  0196e	50		 push	 eax
  0196f	ff 15 00 00 00
	00		 call	 DWORD PTR __imp_?YL_Log@@YAXABV?$basic_string@DU?$char_traits@D@std@@V?$allocator@D@2@@std@@H0PBDZZ
  01975	83 c4 10	 add	 esp, 16			; 00000010H
  01978	3b f4		 cmp	 esi, esp
  0197a	e8 00 00 00 00	 call	 __RTC_CheckEsp
  0197f	c6 45 fc 02	 mov	 BYTE PTR __$EHRec$[ebp+8], 2
  01983	8b f4		 mov	 esi, esp
  01985	8d 4d 80	 lea	 ecx, DWORD PTR $T192289[ebp]
  01988	ff 15 00 00 00
	00		 call	 DWORD PTR __imp_??1?$basic_string@DU?$char_traits@D@std@@V?$allocator@D@2@@std@@QAE@XZ
  0198e	3b f4		 cmp	 esi, esp
  01990	e8 00 00 00 00	 call	 __RTC_CheckEsp
  01995	c7 45 fc ff ff
	ff ff		 mov	 DWORD PTR __$EHRec$[ebp+8], -1
  0199c	8b f4		 mov	 esi, esp
  0199e	8d 4d 9c	 lea	 ecx, DWORD PTR $T192288[ebp]
  019a1	ff 15 00 00 00
	00		 call	 DWORD PTR __imp_??1?$basic_string@DU?$char_traits@D@std@@V?$allocator@D@2@@std@@QAE@XZ
  019a7	3b f4		 cmp	 esi, esp
  019a9	e8 00 00 00 00	 call	 __RTC_CheckEsp

; 188  : }

  019ae	8b 4d f4	 mov	 ecx, DWORD PTR __$EHRec$[ebp]
  019b1	64 89 0d 00 00
	00 00		 mov	 DWORD PTR fs:__except_list, ecx
  019b8	5f		 pop	 edi
  019b9	5e		 pop	 esi
  019ba	81 c4 80 00 00
	00		 add	 esp, 128		; 00000080H
  019c0	3b ec		 cmp	 ebp, esp
  019c2	e8 00 00 00 00	 call	 __RTC_CheckEsp
  019c7	8b e5		 mov	 esp, ebp
  019c9	5d		 pop	 ebp
  019ca	c2 04 00	 ret	 4
_TEXT	ENDS
text$x	SEGMENT
$L192290:
  003e0	8b f4		 mov	 esi, esp
  003e2	8d 4d d4	 lea	 ecx, DWORD PTR $T192286[ebp]
  003e5	ff 15 00 00 00
	00		 call	 DWORD PTR __imp_??1?$basic_string@DU?$char_traits@D@std@@V?$allocator@D@2@@std@@QAE@XZ
  003eb	3b f4		 cmp	 esi, esp
  003ed	e9 00 00 00 00	 jmp	 __RTC_CheckEsp
$L192291:
  003f2	8b f4		 mov	 esi, esp
  003f4	8d 4d b8	 lea	 ecx, DWORD PTR $T192287[ebp]
  003f7	ff 15 00 00 00
	00		 call	 DWORD PTR __imp_??1?$basic_string@DU?$char_traits@D@std@@V?$allocator@D@2@@std@@QAE@XZ
  003fd	3b f4		 cmp	 esi, esp
  003ff	e9 00 00 00 00	 jmp	 __RTC_CheckEsp
$L192292:
  00404	8b f4		 mov	 esi, esp
  00406	8d 4d 9c	 lea	 ecx, DWORD PTR $T192288[ebp]
  00409	ff 15 00 00 00
	00		 call	 DWORD PTR __imp_??1?$basic_string@DU?$char_traits@D@std@@V?$allocator@D@2@@std@@QAE@XZ
  0040f	3b f4		 cmp	 esi, esp
  00411	e9 00 00 00 00	 jmp	 __RTC_CheckEsp
$L192293:
  00416	8b f4		 mov	 esi, esp
  00418	8d 4d 80	 lea	 ecx, DWORD PTR $T192289[ebp]
  0041b	ff 15 00 00 00
	00		 call	 DWORD PTR __imp_??1?$basic_string@DU?$char_traits@D@std@@V?$allocator@D@2@@std@@QAE@XZ
  00421	3b f4		 cmp	 esi, esp
  00423	e9 00 00 00 00	 jmp	 __RTC_CheckEsp
__ehhandler$?ILayoutChangeOb_UpdateLayout@WebGamePlayingWnd@@UAEXPAUHWND__@@@Z:
  00428	b8 00 00 00 00	 mov	 eax, OFFSET FLAT:$T192295
  0042d	e9 00 00 00 00	 jmp	 ___CxxFrameHandler
text$x	ENDS
?ILayoutChangeOb_UpdateLayout@WebGamePlayingWnd@@UAEXPAUHWND__@@@Z ENDP ; WebGamePlayingWnd::ILayoutChangeOb_UpdateLayout
; Function compile flags: /Odt /RTCsu
;	COMDAT ??_EWebGamePlayingWnd@@WFE@AEPAXI@Z
_TEXT	SEGMENT
??_EWebGamePlayingWnd@@WFE@AEPAXI@Z PROC NEAR		; [thunk]:WebGamePlayingWnd::`vector deleting destructor', COMDAT
  00000	83 e9 54	 sub	 ecx, 84			; 00000054H
  00003	e9 00 00 00 00	 jmp	 ??_EWebGamePlayingWnd@@UAEPAXI@Z
??_EWebGamePlayingWnd@@WFE@AEPAXI@Z ENDP		; [thunk]:WebGamePlayingWnd::`vector deleting destructor'
_TEXT	ENDS
PUBLIC	?_AtlInstallStringThunk@ATL@@YAXPAPAXPAX1@Z	; ATL::_AtlInstallStringThunk
PUBLIC	?GetEnvironmentVariableWFake@ATL@@YGKPB_WPA_WK@Z ; ATL::GetEnvironmentVariableWFake
EXTRN	__imp__GetEnvironmentVariableW@12:NEAR
; Function compile flags: /Odt /RTCsu
; File d:\program files (x86)\microsoft visual studio .net 2003\vc7\atlmfc\include\cstringt.h
;	COMDAT ?GetEnvironmentVariableWThunk@ATL@@YGKPB_WPA_WK@Z
_TEXT	SEGMENT
_pszName$ = 8						; size = 4
_pszBuffer$ = 12					; size = 4
_nSize$ = 16						; size = 4
?GetEnvironmentVariableWThunk@ATL@@YGKPB_WPA_WK@Z PROC NEAR ; ATL::GetEnvironmentVariableWThunk, COMDAT

; 183  : {

  00000	55		 push	 ebp
  00001	8b ec		 mov	 ebp, esp
  00003	56		 push	 esi

; 184  : 	_AtlInstallStringThunk(reinterpret_cast<void**>(&_strthunks.pfnGetEnvironmentVariableW), 
; 185  : 		GetEnvironmentVariableWFake, ::GetEnvironmentVariableW);

  00004	a1 00 00 00 00	 mov	 eax, DWORD PTR __imp__GetEnvironmentVariableW@12
  00009	50		 push	 eax
  0000a	68 00 00 00 00	 push	 OFFSET FLAT:?GetEnvironmentVariableWFake@ATL@@YGKPB_WPA_WK@Z ; ATL::GetEnvironmentVariableWFake
  0000f	68 14 00 00 00	 push	 OFFSET FLAT:?_strthunks@ATL@@3U_AtlStringThunks@1@A+20
  00014	e8 00 00 00 00	 call	 ?_AtlInstallStringThunk@ATL@@YAXPAPAXPAX1@Z ; ATL::_AtlInstallStringThunk
  00019	83 c4 0c	 add	 esp, 12			; 0000000cH

; 186  : 
; 187  : 	return _strthunks.pfnGetEnvironmentVariableW(pszName, pszBuffer, nSize);

  0001c	8b f4		 mov	 esi, esp
  0001e	8b 4d 10	 mov	 ecx, DWORD PTR _nSize$[ebp]
  00021	51		 push	 ecx
  00022	8b 55 0c	 mov	 edx, DWORD PTR _pszBuffer$[ebp]
  00025	52		 push	 edx
  00026	8b 45 08	 mov	 eax, DWORD PTR _pszName$[ebp]
  00029	50		 push	 eax
  0002a	ff 15 14 00 00
	00		 call	 DWORD PTR ?_strthunks@ATL@@3U_AtlStringThunks@1@A+20
  00030	3b f4		 cmp	 esi, esp
  00032	e8 00 00 00 00	 call	 __RTC_CheckEsp

; 188  : }

  00037	5e		 pop	 esi
  00038	3b ec		 cmp	 ebp, esp
  0003a	e8 00 00 00 00	 call	 __RTC_CheckEsp
  0003f	5d		 pop	 ebp
  00040	c2 0c 00	 ret	 12			; 0000000cH
?GetEnvironmentVariableWThunk@ATL@@YGKPB_WPA_WK@Z ENDP	; ATL::GetEnvironmentVariableWThunk
_TEXT	ENDS
PUBLIC	?s_bWin9x@?1??_AtlInstallStringThunk@ATL@@YAXPAPAXPAX1@Z@4_NA ; `ATL::_AtlInstallStringThunk'::`2'::s_bWin9x
PUBLIC	??_B?1??_AtlInstallStringThunk@ATL@@YAXPAPAXPAX1@Z@51 ; `ATL::_AtlInstallStringThunk'::`2'::`local static guard'
EXTRN	__imp__GetVersion@0:NEAR
;	COMDAT ?s_bWin9x@?1??_AtlInstallStringThunk@ATL@@YAXPAPAXPAX1@Z@4_NA
_BSS	SEGMENT
?s_bWin9x@?1??_AtlInstallStringThunk@ATL@@YAXPAPAXPAX1@Z@4_NA DB 01H DUP (?) ; `ATL::_AtlInstallStringThunk'::`2'::s_bWin9x
_BSS	ENDS
;	COMDAT ??_B?1??_AtlInstallStringThunk@ATL@@YAXPAPAXPAX1@Z@51
_BSS	SEGMENT
??_B?1??_AtlInstallStringThunk@ATL@@YAXPAPAXPAX1@Z@51 DD 01H DUP (?) ; `ATL::_AtlInstallStringThunk'::`2'::`local static guard'
; Function compile flags: /Odt /RTCsu
_BSS	ENDS
;	COMDAT ?_AtlInstallStringThunk@ATL@@YAXPAPAXPAX1@Z
_TEXT	SEGMENT
_pfn$ = -4						; size = 4
_ppThunk$ = 8						; size = 4
_pfnWin9x$ = 12						; size = 4
_pfnNT$ = 16						; size = 4
?_AtlInstallStringThunk@ATL@@YAXPAPAXPAX1@Z PROC NEAR	; ATL::_AtlInstallStringThunk, COMDAT

; 115  : {

  00000	55		 push	 ebp
  00001	8b ec		 mov	 ebp, esp
  00003	51		 push	 ecx
  00004	56		 push	 esi
  00005	c7 45 fc cc cc
	cc cc		 mov	 DWORD PTR [ebp-4], -858993460 ; ccccccccH

; 116  : #pragma warning (push)
; 117  : #pragma warning (disable : 4640)	// construction of local static object is not thread-safe
; 118  : 
; 119  : 	static bool s_bWin9x = (::GetVersion()&0x80000000) != 0;

  0000c	a1 00 00 00 00	 mov	 eax, DWORD PTR ??_B?1??_AtlInstallStringThunk@ATL@@YAXPAPAXPAX1@Z@51
  00011	83 e0 01	 and	 eax, 1
  00014	75 2e		 jne	 SHORT $L26217
  00016	8b 0d 00 00 00
	00		 mov	 ecx, DWORD PTR ??_B?1??_AtlInstallStringThunk@ATL@@YAXPAPAXPAX1@Z@51
  0001c	83 c9 01	 or	 ecx, 1
  0001f	89 0d 00 00 00
	00		 mov	 DWORD PTR ??_B?1??_AtlInstallStringThunk@ATL@@YAXPAPAXPAX1@Z@51, ecx
  00025	8b f4		 mov	 esi, esp
  00027	ff 15 00 00 00
	00		 call	 DWORD PTR __imp__GetVersion@0
  0002d	3b f4		 cmp	 esi, esp
  0002f	e8 00 00 00 00	 call	 __RTC_CheckEsp
  00034	25 00 00 00 80	 and	 eax, -2147483648	; 80000000H
  00039	f7 d8		 neg	 eax
  0003b	1b c0		 sbb	 eax, eax
  0003d	f7 d8		 neg	 eax
  0003f	a2 00 00 00 00	 mov	 BYTE PTR ?s_bWin9x@?1??_AtlInstallStringThunk@ATL@@YAXPAPAXPAX1@Z@4_NA, al ; `ATL::_AtlInstallStringThunk'::`2'::s_bWin9x
$L26217:

; 120  : 	
; 121  : #pragma warning (pop)
; 122  : 
; 123  : 	void* pfn;
; 124  : 	if (s_bWin9x)

  00044	0f b6 15 00 00
	00 00		 movzx	 edx, BYTE PTR ?s_bWin9x@?1??_AtlInstallStringThunk@ATL@@YAXPAPAXPAX1@Z@4_NA ; `ATL::_AtlInstallStringThunk'::`2'::s_bWin9x
  0004b	85 d2		 test	 edx, edx
  0004d	74 08		 je	 SHORT $L26219

; 125  : 		pfn = pfnWin9x;

  0004f	8b 45 0c	 mov	 eax, DWORD PTR _pfnWin9x$[ebp]
  00052	89 45 fc	 mov	 DWORD PTR _pfn$[ebp], eax

; 126  : 	else

  00055	eb 06		 jmp	 SHORT $L26220
$L26219:

; 127  : 	{
; 128  : #ifdef _CSTRING_ALWAYS_THUNK
; 129  : 		pfn = pfnWin9x;
; 130  : 		(void)pfnNT;
; 131  : #else
; 132  : 		pfn = pfnNT;

  00057	8b 4d 10	 mov	 ecx, DWORD PTR _pfnNT$[ebp]
  0005a	89 4d fc	 mov	 DWORD PTR _pfn$[ebp], ecx
$L26220:

; 133  : #endif
; 134  : 	}
; 135  : 	InterlockedExchangePointer(ppThunk, pfn);

  0005d	8b 55 fc	 mov	 edx, DWORD PTR _pfn$[ebp]
  00060	52		 push	 edx
  00061	8b 45 08	 mov	 eax, DWORD PTR _ppThunk$[ebp]
  00064	50		 push	 eax
  00065	e8 00 00 00 00	 call	 ?InterlockedExchangePointer@@YGPAXPAPAXPAX@Z ; InterlockedExchangePointer

; 136  : }

  0006a	5e		 pop	 esi
  0006b	83 c4 04	 add	 esp, 4
  0006e	3b ec		 cmp	 ebp, esp
  00070	e8 00 00 00 00	 call	 __RTC_CheckEsp
  00075	8b e5		 mov	 esp, ebp
  00077	5d		 pop	 ebp
  00078	c3		 ret	 0
?_AtlInstallStringThunk@ATL@@YAXPAPAXPAX1@Z ENDP	; ATL::_AtlInstallStringThunk
_TEXT	ENDS
PUBLIC	??_C@_0FH@KDPNIMBO@D?3?2Program?5Files?5?$CIx86?$CJ?2Microsoft@ ; `string'
PUBLIC	?_AtlGetConversionACP@ATL@@YGIXZ		; ATL::_AtlGetConversionACP
PUBLIC	??0?$CTempBuffer@D$0IA@VCCRTAllocator@ATL@@@ATL@@QAE@XZ ; ATL::CTempBuffer<char,128,ATL::CCRTAllocator>::CTempBuffer<char,128,ATL::CCRTAllocator>
PUBLIC	??1?$CTempBuffer@D$0IA@VCCRTAllocator@ATL@@@ATL@@QAE@XZ ; ATL::CTempBuffer<char,128,ATL::CCRTAllocator>::~CTempBuffer<char,128,ATL::CCRTAllocator>
PUBLIC	??B?$CTempBuffer@D$0IA@VCCRTAllocator@ATL@@@ATL@@QBEPADXZ ; ATL::CTempBuffer<char,128,ATL::CCRTAllocator>::operator char *
PUBLIC	?Allocate@?$CTempBuffer@D$0IA@VCCRTAllocator@ATL@@@ATL@@QAEPADI@Z ; ATL::CTempBuffer<char,128,ATL::CCRTAllocator>::Allocate
PUBLIC	??0?$CW2AEX@$0IA@@ATL@@QAE@PB_W@Z		; ATL::CW2AEX<128>::CW2AEX<128>
PUBLIC	??1?$CW2AEX@$0IA@@ATL@@QAE@XZ			; ATL::CW2AEX<128>::~CW2AEX<128>
PUBLIC	??B?$CW2AEX@$0IA@@ATL@@QBEPADXZ			; ATL::CW2AEX<128>::operator char *
PUBLIC	??_C@_0BA@CLMJJCOM@nSize?5?$DO?$DN?5nSizeW?$AA@	; `string'
EXTRN	__imp___CrtDbgReport:NEAR
EXTRN	__imp__MultiByteToWideChar@24:NEAR
EXTRN	__imp__GetEnvironmentVariableA@12:NEAR
;	COMDAT xdata$x
xdata$x	SEGMENT
$T192317 DD	0ffffffffH
	DD	FLAT:$L192307
	DD	00H
	DD	FLAT:$L192308
$T192310 DD	019930520H
	DD	02H
	DD	FLAT:$T192317
	DD	2 DUP(00H)
	DD	2 DUP(00H)
xdata$x	ENDS
;	COMDAT ??_C@_0BA@CLMJJCOM@nSize?5?$DO?$DN?5nSizeW?$AA@
CONST	SEGMENT
??_C@_0BA@CLMJJCOM@nSize?5?$DO?$DN?5nSizeW?$AA@ DB 'nSize >= nSizeW', 00H ; `string'
CONST	ENDS
;	COMDAT ??_C@_0FH@KDPNIMBO@D?3?2Program?5Files?5?$CIx86?$CJ?2Microsoft@
CONST	SEGMENT
??_C@_0FH@KDPNIMBO@D?3?2Program?5Files?5?$CIx86?$CJ?2Microsoft@ DB 'D:\Pr'
	DB	'ogram Files (x86)\Microsoft Visual Studio .NET 2003\Vc7\atlmf'
	DB	'c\include\cstringt.h', 00H			; `string'
; Function compile flags: /Odt /RTCsu
CONST	ENDS
;	COMDAT ?GetEnvironmentVariableWFake@ATL@@YGKPB_WPA_WK@Z
_TEXT	SEGMENT
$T192306 = -316						; size = 4
$T192304 = -312						; size = 4
$T192303 = -308						; size = 4
_pszNameA$ = -300					; size = 132
_pszBufferA$ = -160					; size = 132
_nSizeW$ = -24						; size = 4
_nSizeA$ = -20						; size = 4
__$ArrayPad$ = -16					; size = 4
__$EHRec$ = -12						; size = 12
__$ReturnAddr$ = 4					; size = 4
_pszName$ = 8						; size = 4
_pszBuffer$ = 12					; size = 4
_nSize$ = 16						; size = 4
?GetEnvironmentVariableWFake@ATL@@YGKPB_WPA_WK@Z PROC NEAR ; ATL::GetEnvironmentVariableWFake, COMDAT

; 159  : {

  00000	55		 push	 ebp
  00001	8b ec		 mov	 ebp, esp
  00003	6a ff		 push	 -1
  00005	68 00 00 00 00	 push	 __ehhandler$?GetEnvironmentVariableWFake@ATL@@YGKPB_WPA_WK@Z
  0000a	64 a1 00 00 00
	00		 mov	 eax, DWORD PTR fs:__except_list
  00010	50		 push	 eax
  00011	64 89 25 00 00
	00 00		 mov	 DWORD PTR fs:__except_list, esp
  00018	81 ec 30 01 00
	00		 sub	 esp, 304		; 00000130H
  0001e	56		 push	 esi
  0001f	57		 push	 edi
  00020	8d bd c4 fe ff
	ff		 lea	 edi, DWORD PTR [ebp-316]
  00026	b9 4c 00 00 00	 mov	 ecx, 76			; 0000004cH
  0002b	b8 cc cc cc cc	 mov	 eax, -858993460		; ccccccccH
  00030	f3 ab		 rep stosd
  00032	a1 00 00 00 00	 mov	 eax, DWORD PTR ___security_cookie
  00037	89 45 f0	 mov	 DWORD PTR __$ArrayPad$[ebp], eax

; 160  : 	ULONG nSizeA;
; 161  : 	ULONG nSizeW;
; 162  : 	CTempBuffer<char> pszBufferA;

  0003a	8d 8d 60 ff ff
	ff		 lea	 ecx, DWORD PTR _pszBufferA$[ebp]
  00040	e8 00 00 00 00	 call	 ??0?$CTempBuffer@D$0IA@VCCRTAllocator@ATL@@@ATL@@QAE@XZ ; ATL::CTempBuffer<char,128,ATL::CCRTAllocator>::CTempBuffer<char,128,ATL::CCRTAllocator>
  00045	c7 45 fc 00 00
	00 00		 mov	 DWORD PTR __$EHRec$[ebp+8], 0

; 163  : 	CW2A pszNameA(pszName);

  0004c	8b 45 08	 mov	 eax, DWORD PTR _pszName$[ebp]
  0004f	50		 push	 eax
  00050	8d 8d d4 fe ff
	ff		 lea	 ecx, DWORD PTR _pszNameA$[ebp]
  00056	e8 00 00 00 00	 call	 ??0?$CW2AEX@$0IA@@ATL@@QAE@PB_W@Z ; ATL::CW2AEX<128>::CW2AEX<128>
  0005b	c6 45 fc 01	 mov	 BYTE PTR __$EHRec$[ebp+8], 1

; 164  : 
; 165  : 	nSizeA = ::GetEnvironmentVariableA(pszNameA, NULL, 0);

  0005f	8b f4		 mov	 esi, esp
  00061	6a 00		 push	 0
  00063	6a 00		 push	 0
  00065	8d 8d d4 fe ff
	ff		 lea	 ecx, DWORD PTR _pszNameA$[ebp]
  0006b	e8 00 00 00 00	 call	 ??B?$CW2AEX@$0IA@@ATL@@QBEPADXZ ; ATL::CW2AEX<128>::operator char *
  00070	50		 push	 eax
  00071	ff 15 00 00 00
	00		 call	 DWORD PTR __imp__GetEnvironmentVariableA@12
  00077	3b f4		 cmp	 esi, esp
  00079	e8 00 00 00 00	 call	 __RTC_CheckEsp
  0007e	89 45 ec	 mov	 DWORD PTR _nSizeA$[ebp], eax

; 166  : 	if (nSizeA == 0)

  00081	83 7d ec 00	 cmp	 DWORD PTR _nSizeA$[ebp], 0
  00085	75 36		 jne	 SHORT $L26322

; 167  : 		return 0;

  00087	c7 85 cc fe ff
	ff 00 00 00 00	 mov	 DWORD PTR $T192303[ebp], 0
  00091	c6 45 fc 00	 mov	 BYTE PTR __$EHRec$[ebp+8], 0
  00095	8d 8d d4 fe ff
	ff		 lea	 ecx, DWORD PTR _pszNameA$[ebp]
  0009b	e8 00 00 00 00	 call	 ??1?$CW2AEX@$0IA@@ATL@@QAE@XZ ; ATL::CW2AEX<128>::~CW2AEX<128>
  000a0	c7 45 fc ff ff
	ff ff		 mov	 DWORD PTR __$EHRec$[ebp+8], -1
  000a7	8d 8d 60 ff ff
	ff		 lea	 ecx, DWORD PTR _pszBufferA$[ebp]
  000ad	e8 00 00 00 00	 call	 ??1?$CTempBuffer@D$0IA@VCCRTAllocator@ATL@@@ATL@@QAE@XZ ; ATL::CTempBuffer<char,128,ATL::CCRTAllocator>::~CTempBuffer<char,128,ATL::CCRTAllocator>
  000b2	8b 85 cc fe ff
	ff		 mov	 eax, DWORD PTR $T192303[ebp]
  000b8	e9 33 01 00 00	 jmp	 $L26263
$L26322:

; 168  : 
; 169  : 	pszBufferA.Allocate(nSizeA*2);

  000bd	8b 4d ec	 mov	 ecx, DWORD PTR _nSizeA$[ebp]
  000c0	d1 e1		 shl	 ecx, 1
  000c2	51		 push	 ecx
  000c3	8d 8d 60 ff ff
	ff		 lea	 ecx, DWORD PTR _pszBufferA$[ebp]
  000c9	e8 00 00 00 00	 call	 ?Allocate@?$CTempBuffer@D$0IA@VCCRTAllocator@ATL@@@ATL@@QAEPADI@Z ; ATL::CTempBuffer<char,128,ATL::CCRTAllocator>::Allocate

; 170  : 	::GetEnvironmentVariableA(pszNameA, pszBufferA, nSizeA);

  000ce	8b f4		 mov	 esi, esp
  000d0	8b 55 ec	 mov	 edx, DWORD PTR _nSizeA$[ebp]
  000d3	52		 push	 edx
  000d4	8d 8d 60 ff ff
	ff		 lea	 ecx, DWORD PTR _pszBufferA$[ebp]
  000da	e8 00 00 00 00	 call	 ??B?$CTempBuffer@D$0IA@VCCRTAllocator@ATL@@@ATL@@QBEPADXZ ; ATL::CTempBuffer<char,128,ATL::CCRTAllocator>::operator char *
  000df	50		 push	 eax
  000e0	8d 8d d4 fe ff
	ff		 lea	 ecx, DWORD PTR _pszNameA$[ebp]
  000e6	e8 00 00 00 00	 call	 ??B?$CW2AEX@$0IA@@ATL@@QBEPADXZ ; ATL::CW2AEX<128>::operator char *
  000eb	50		 push	 eax
  000ec	ff 15 00 00 00
	00		 call	 DWORD PTR __imp__GetEnvironmentVariableA@12
  000f2	3b f4		 cmp	 esi, esp
  000f4	e8 00 00 00 00	 call	 __RTC_CheckEsp

; 171  : 
; 172  : 	nSizeW = ::MultiByteToWideChar(_AtlGetConversionACP(), 0, pszBufferA, -1, NULL, 0);

  000f9	8b f4		 mov	 esi, esp
  000fb	6a 00		 push	 0
  000fd	6a 00		 push	 0
  000ff	6a ff		 push	 -1
  00101	8d 8d 60 ff ff
	ff		 lea	 ecx, DWORD PTR _pszBufferA$[ebp]
  00107	e8 00 00 00 00	 call	 ??B?$CTempBuffer@D$0IA@VCCRTAllocator@ATL@@@ATL@@QBEPADXZ ; ATL::CTempBuffer<char,128,ATL::CCRTAllocator>::operator char *
  0010c	50		 push	 eax
  0010d	6a 00		 push	 0
  0010f	e8 00 00 00 00	 call	 ?_AtlGetConversionACP@ATL@@YGIXZ ; ATL::_AtlGetConversionACP
  00114	50		 push	 eax
  00115	ff 15 00 00 00
	00		 call	 DWORD PTR __imp__MultiByteToWideChar@24
  0011b	3b f4		 cmp	 esi, esp
  0011d	e8 00 00 00 00	 call	 __RTC_CheckEsp
  00122	89 45 e8	 mov	 DWORD PTR _nSizeW$[ebp], eax

; 173  : 	if (nSize == 0)

  00125	83 7d 10 00	 cmp	 DWORD PTR _nSize$[ebp], 0
  00129	75 35		 jne	 SHORT $L26324

; 174  : 		return nSizeW;

  0012b	8b 45 e8	 mov	 eax, DWORD PTR _nSizeW$[ebp]
  0012e	89 85 c8 fe ff
	ff		 mov	 DWORD PTR $T192304[ebp], eax
  00134	c6 45 fc 00	 mov	 BYTE PTR __$EHRec$[ebp+8], 0
  00138	8d 8d d4 fe ff
	ff		 lea	 ecx, DWORD PTR _pszNameA$[ebp]
  0013e	e8 00 00 00 00	 call	 ??1?$CW2AEX@$0IA@@ATL@@QAE@XZ ; ATL::CW2AEX<128>::~CW2AEX<128>
  00143	c7 45 fc ff ff
	ff ff		 mov	 DWORD PTR __$EHRec$[ebp+8], -1
  0014a	8d 8d 60 ff ff
	ff		 lea	 ecx, DWORD PTR _pszBufferA$[ebp]
  00150	e8 00 00 00 00	 call	 ??1?$CTempBuffer@D$0IA@VCCRTAllocator@ATL@@@ATL@@QAE@XZ ; ATL::CTempBuffer<char,128,ATL::CCRTAllocator>::~CTempBuffer<char,128,ATL::CCRTAllocator>
  00155	8b 85 c8 fe ff
	ff		 mov	 eax, DWORD PTR $T192304[ebp]
  0015b	e9 90 00 00 00	 jmp	 $L26263
$L26324:

; 175  : 	ATLASSERT(nSize >= nSizeW);

  00160	8b 4d 10	 mov	 ecx, DWORD PTR _nSize$[ebp]
  00163	3b 4d e8	 cmp	 ecx, DWORD PTR _nSizeW$[ebp]
  00166	73 2b		 jae	 SHORT $L192305
  00168	8b f4		 mov	 esi, esp
  0016a	68 00 00 00 00	 push	 OFFSET FLAT:??_C@_0BA@CLMJJCOM@nSize?5?$DO?$DN?5nSizeW?$AA@
  0016f	6a 00		 push	 0
  00171	68 af 00 00 00	 push	 175			; 000000afH
  00176	68 00 00 00 00	 push	 OFFSET FLAT:??_C@_0FH@KDPNIMBO@D?3?2Program?5Files?5?$CIx86?$CJ?2Microsoft@
  0017b	6a 02		 push	 2
  0017d	ff 15 00 00 00
	00		 call	 DWORD PTR __imp___CrtDbgReport
  00183	83 c4 14	 add	 esp, 20			; 00000014H
  00186	3b f4		 cmp	 esi, esp
  00188	e8 00 00 00 00	 call	 __RTC_CheckEsp
  0018d	83 f8 01	 cmp	 eax, 1
  00190	75 01		 jne	 SHORT $L192305
  00192	cc		 int	 3
$L192305:

; 176  : 	::MultiByteToWideChar(_AtlGetConversionACP(), 0, pszBufferA, -1, pszBuffer, nSizeW);

  00193	8b f4		 mov	 esi, esp
  00195	8b 45 e8	 mov	 eax, DWORD PTR _nSizeW$[ebp]
  00198	50		 push	 eax
  00199	8b 4d 0c	 mov	 ecx, DWORD PTR _pszBuffer$[ebp]
  0019c	51		 push	 ecx
  0019d	6a ff		 push	 -1
  0019f	8d 8d 60 ff ff
	ff		 lea	 ecx, DWORD PTR _pszBufferA$[ebp]
  001a5	e8 00 00 00 00	 call	 ??B?$CTempBuffer@D$0IA@VCCRTAllocator@ATL@@@ATL@@QBEPADXZ ; ATL::CTempBuffer<char,128,ATL::CCRTAllocator>::operator char *
  001aa	50		 push	 eax
  001ab	6a 00		 push	 0
  001ad	e8 00 00 00 00	 call	 ?_AtlGetConversionACP@ATL@@YGIXZ ; ATL::_AtlGetConversionACP
  001b2	50		 push	 eax
  001b3	ff 15 00 00 00
	00		 call	 DWORD PTR __imp__MultiByteToWideChar@24
  001b9	3b f4		 cmp	 esi, esp
  001bb	e8 00 00 00 00	 call	 __RTC_CheckEsp

; 177  : 
; 178  : 	return nSizeW;

  001c0	8b 55 e8	 mov	 edx, DWORD PTR _nSizeW$[ebp]
  001c3	89 95 c4 fe ff
	ff		 mov	 DWORD PTR $T192306[ebp], edx
  001c9	c6 45 fc 00	 mov	 BYTE PTR __$EHRec$[ebp+8], 0
  001cd	8d 8d d4 fe ff
	ff		 lea	 ecx, DWORD PTR _pszNameA$[ebp]
  001d3	e8 00 00 00 00	 call	 ??1?$CW2AEX@$0IA@@ATL@@QAE@XZ ; ATL::CW2AEX<128>::~CW2AEX<128>
  001d8	c7 45 fc ff ff
	ff ff		 mov	 DWORD PTR __$EHRec$[ebp+8], -1
  001df	8d 8d 60 ff ff
	ff		 lea	 ecx, DWORD PTR _pszBufferA$[ebp]
  001e5	e8 00 00 00 00	 call	 ??1?$CTempBuffer@D$0IA@VCCRTAllocator@ATL@@@ATL@@QAE@XZ ; ATL::CTempBuffer<char,128,ATL::CCRTAllocator>::~CTempBuffer<char,128,ATL::CCRTAllocator>
  001ea	8b 85 c4 fe ff
	ff		 mov	 eax, DWORD PTR $T192306[ebp]
$L26263:

; 179  : }

  001f0	52		 push	 edx
  001f1	8b cd		 mov	 ecx, ebp
  001f3	50		 push	 eax
  001f4	8d 15 00 00 00
	00		 lea	 edx, DWORD PTR $L192316
  001fa	e8 00 00 00 00	 call	 @_RTC_CheckStackVars@8
  001ff	58		 pop	 eax
  00200	5a		 pop	 edx
  00201	8b 4d f4	 mov	 ecx, DWORD PTR __$EHRec$[ebp]
  00204	64 89 0d 00 00
	00 00		 mov	 DWORD PTR fs:__except_list, ecx
  0020b	8b 4d f0	 mov	 ecx, DWORD PTR __$ArrayPad$[ebp]
  0020e	e8 00 00 00 00	 call	 @__security_check_cookie@4
  00213	5f		 pop	 edi
  00214	5e		 pop	 esi
  00215	81 c4 3c 01 00
	00		 add	 esp, 316		; 0000013cH
  0021b	3b ec		 cmp	 ebp, esp
  0021d	e8 00 00 00 00	 call	 __RTC_CheckEsp
  00222	8b e5		 mov	 esp, ebp
  00224	5d		 pop	 ebp
  00225	c2 0c 00	 ret	 12			; 0000000cH
$L192316:
  00228	02 00 00 00	 DD	 2
  0022c	00 00 00 00	 DD	 $L192315
$L192315:
  00230	60 ff ff ff	 DD	 -160			; ffffff60H
  00234	84 00 00 00	 DD	 132			; 00000084H
  00238	00 00 00 00	 DD	 $L192311
  0023c	d4 fe ff ff	 DD	 -300			; fffffed4H
  00240	84 00 00 00	 DD	 132			; 00000084H
  00244	00 00 00 00	 DD	 $L192312
$L192312:
  00248	70		 DB	 112			; 00000070H
  00249	73		 DB	 115			; 00000073H
  0024a	7a		 DB	 122			; 0000007aH
  0024b	4e		 DB	 78			; 0000004eH
  0024c	61		 DB	 97			; 00000061H
  0024d	6d		 DB	 109			; 0000006dH
  0024e	65		 DB	 101			; 00000065H
  0024f	41		 DB	 65			; 00000041H
  00250	00		 DB	 0
$L192311:
  00251	70		 DB	 112			; 00000070H
  00252	73		 DB	 115			; 00000073H
  00253	7a		 DB	 122			; 0000007aH
  00254	42		 DB	 66			; 00000042H
  00255	75		 DB	 117			; 00000075H
  00256	66		 DB	 102			; 00000066H
  00257	66		 DB	 102			; 00000066H
  00258	65		 DB	 101			; 00000065H
  00259	72		 DB	 114			; 00000072H
  0025a	41		 DB	 65			; 00000041H
  0025b	00		 DB	 0
_TEXT	ENDS
;	COMDAT text$x
text$x	SEGMENT
$L192307:
  00000	8d 8d 60 ff ff
	ff		 lea	 ecx, DWORD PTR _pszBufferA$[ebp]
  00006	e9 00 00 00 00	 jmp	 ??1?$CTempBuffer@D$0IA@VCCRTAllocator@ATL@@@ATL@@QAE@XZ ; ATL::CTempBuffer<char,128,ATL::CCRTAllocator>::~CTempBuffer<char,128,ATL::CCRTAllocator>
$L192308:
  0000b	8d 8d d4 fe ff
	ff		 lea	 ecx, DWORD PTR _pszNameA$[ebp]
  00011	e9 00 00 00 00	 jmp	 ??1?$CW2AEX@$0IA@@ATL@@QAE@XZ ; ATL::CW2AEX<128>::~CW2AEX<128>
__ehhandler$?GetEnvironmentVariableWFake@ATL@@YGKPB_WPA_WK@Z:
  00016	b8 00 00 00 00	 mov	 eax, OFFSET FLAT:$T192310
  0001b	e9 00 00 00 00	 jmp	 ___CxxFrameHandler
text$x	ENDS
?GetEnvironmentVariableWFake@ATL@@YGKPB_WPA_WK@Z ENDP	; ATL::GetEnvironmentVariableWFake
; Function compile flags: /Odt /RTCsu
; File d:\program files (x86)\microsoft visual studio .net 2003\vc7\atlmfc\include\atlconv.h
;	COMDAT ?_AtlGetConversionACP@ATL@@YGIXZ
_TEXT	SEGMENT
?_AtlGetConversionACP@ATL@@YGIXZ PROC NEAR		; ATL::_AtlGetConversionACP, COMDAT

; 157  : {

  00000	55		 push	 ebp
  00001	8b ec		 mov	 ebp, esp
  00003	56		 push	 esi

; 158  : 	return( g_pfnGetThreadACP() );

  00004	8b f4		 mov	 esi, esp
  00006	ff 15 00 00 00
	00		 call	 DWORD PTR ?g_pfnGetThreadACP@ATL@@3P6GIXZA ; ATL::g_pfnGetThreadACP
  0000c	3b f4		 cmp	 esi, esp
  0000e	e8 00 00 00 00	 call	 __RTC_CheckEsp

; 159  : }

  00013	5e		 pop	 esi
  00014	3b ec		 cmp	 ebp, esp
  00016	e8 00 00 00 00	 call	 __RTC_CheckEsp
  0001b	5d		 pop	 ebp
  0001c	c3		 ret	 0
?_AtlGetConversionACP@ATL@@YGIXZ ENDP			; ATL::_AtlGetConversionACP
_TEXT	ENDS
PUBLIC	?CompareStringWFake@ATL@@YGHKKPB_WH0H@Z		; ATL::CompareStringWFake
EXTRN	__imp__CompareStringW@24:NEAR
; Function compile flags: /Odt /RTCsu
; File d:\program files (x86)\microsoft visual studio .net 2003\vc7\atlmfc\include\cstringt.h
;	COMDAT ?CompareStringWThunk@ATL@@YGHKKPB_WH0H@Z
_TEXT	SEGMENT
_lcid$ = 8						; size = 4
_dwFlags$ = 12						; size = 4
_pszString1$ = 16					; size = 4
_nLength1$ = 20						; size = 4
_pszString2$ = 24					; size = 4
_nLength2$ = 28						; size = 4
?CompareStringWThunk@ATL@@YGHKKPB_WH0H@Z PROC NEAR	; ATL::CompareStringWThunk, COMDAT

; 216  : {

  00000	55		 push	 ebp
  00001	8b ec		 mov	 ebp, esp
  00003	56		 push	 esi

; 217  : 	_AtlInstallStringThunk(reinterpret_cast<void**>(&_strthunks.pfnCompareStringW), CompareStringWFake, ::CompareStringW);

  00004	a1 00 00 00 00	 mov	 eax, DWORD PTR __imp__CompareStringW@24
  00009	50		 push	 eax
  0000a	68 00 00 00 00	 push	 OFFSET FLAT:?CompareStringWFake@ATL@@YGHKKPB_WH0H@Z ; ATL::CompareStringWFake
  0000f	68 00 00 00 00	 push	 OFFSET FLAT:?_strthunks@ATL@@3U_AtlStringThunks@1@A ; ATL::_strthunks
  00014	e8 00 00 00 00	 call	 ?_AtlInstallStringThunk@ATL@@YAXPAPAXPAX1@Z ; ATL::_AtlInstallStringThunk
  00019	83 c4 0c	 add	 esp, 12			; 0000000cH

; 218  : 
; 219  : 	return _strthunks.pfnCompareStringW(lcid, dwFlags, pszString1, nLength1, pszString2, nLength2);

  0001c	8b f4		 mov	 esi, esp
  0001e	8b 4d 1c	 mov	 ecx, DWORD PTR _nLength2$[ebp]
  00021	51		 push	 ecx
  00022	8b 55 18	 mov	 edx, DWORD PTR _pszString2$[ebp]
  00025	52		 push	 edx
  00026	8b 45 14	 mov	 eax, DWORD PTR _nLength1$[ebp]
  00029	50		 push	 eax
  0002a	8b 4d 10	 mov	 ecx, DWORD PTR _pszString1$[ebp]
  0002d	51		 push	 ecx
  0002e	8b 55 0c	 mov	 edx, DWORD PTR _dwFlags$[ebp]
  00031	52		 push	 edx
  00032	8b 45 08	 mov	 eax, DWORD PTR _lcid$[ebp]
  00035	50		 push	 eax
  00036	ff 15 00 00 00
	00		 call	 DWORD PTR ?_strthunks@ATL@@3U_AtlStringThunks@1@A
  0003c	3b f4		 cmp	 esi, esp
  0003e	e8 00 00 00 00	 call	 __RTC_CheckEsp

; 220  : }

  00043	5e		 pop	 esi
  00044	3b ec		 cmp	 ebp, esp
  00046	e8 00 00 00 00	 call	 __RTC_CheckEsp
  0004b	5d		 pop	 ebp
  0004c	c2 18 00	 ret	 24			; 00000018H
?CompareStringWThunk@ATL@@YGHKKPB_WH0H@Z ENDP		; ATL::CompareStringWThunk
_TEXT	ENDS
PUBLIC	?_AtlVerifyStackAvailable@_ATL_SAFE_ALLOCA_IMPL@ATL@@YA_NK@Z ; ATL::_ATL_SAFE_ALLOCA_IMPL::_AtlVerifyStackAvailable
PUBLIC	?AtlThrow@ATL@@YGXJ@Z				; ATL::AtlThrow
PUBLIC	?AtlW2AHelper@@YGPADPADPB_WHI@Z			; AtlW2AHelper
PUBLIC	??0?$CAtlSafeAllocBufferManager@VCCRTAllocator@ATL@@@_ATL_SAFE_ALLOCA_IMPL@ATL@@QAE@XZ ; ATL::_ATL_SAFE_ALLOCA_IMPL::CAtlSafeAllocBufferManager<ATL::CCRTAllocator>::CAtlSafeAllocBufferManager<ATL::CCRTAllocator>
PUBLIC	?Allocate@?$CAtlSafeAllocBufferManager@VCCRTAllocator@ATL@@@_ATL_SAFE_ALLOCA_IMPL@ATL@@QAEPAXK@Z ; ATL::_ATL_SAFE_ALLOCA_IMPL::CAtlSafeAllocBufferManager<ATL::CCRTAllocator>::Allocate
PUBLIC	??1?$CAtlSafeAllocBufferManager@VCCRTAllocator@ATL@@@_ATL_SAFE_ALLOCA_IMPL@ATL@@QAE@XZ ; ATL::_ATL_SAFE_ALLOCA_IMPL::CAtlSafeAllocBufferManager<ATL::CCRTAllocator>::~CAtlSafeAllocBufferManager<ATL::CCRTAllocator>
EXTRN	__imp__lstrlenW@4:NEAR
EXTRN	__imp__CompareStringA@24:NEAR
EXTRN	__alloca_probe:NEAR
;	COMDAT xdata$x
xdata$x	SEGMENT
$T192340 DD	0ffffffffH
	DD	FLAT:$L192332
$T192334 DD	019930520H
	DD	01H
	DD	FLAT:$T192340
	DD	2 DUP(00H)
	DD	2 DUP(00H)
; Function compile flags: /Odt /RTCsu
xdata$x	ENDS
;	COMDAT ?CompareStringWFake@ATL@@YGHKKPB_WH0H@Z
_TEXT	SEGMENT
tv147 = -76						; size = 4
tv142 = -72						; size = 4
tv149 = -68						; size = 4
tv89 = -64						; size = 4
tv84 = -60						; size = 4
tv91 = -56						; size = 4
$T192331 = -52						; size = 4
_pszAString2$ = -48					; size = 4
_pszAString1$ = -44					; size = 4
__AtlSafeAllocaManager$ = -36				; size = 4
__lpa_ex$ = -28						; size = 4
__lpw_ex$ = -24						; size = 4
__acp_ex$ = -20						; size = 4
__convert_ex$ = -16					; size = 4
__$EHRec$ = -12						; size = 12
_lcid$ = 8						; size = 4
_dwFlags$ = 12						; size = 4
_pszString1$ = 16					; size = 4
_nLength1$ = 20						; size = 4
_pszString2$ = 24					; size = 4
_nLength2$ = 28						; size = 4
?CompareStringWFake@ATL@@YGHKKPB_WH0H@Z PROC NEAR	; ATL::CompareStringWFake, COMDAT

; 192  : {

  00000	55		 push	 ebp
  00001	8b ec		 mov	 ebp, esp
  00003	6a ff		 push	 -1
  00005	68 00 00 00 00	 push	 __ehhandler$?CompareStringWFake@ATL@@YGHKKPB_WH0H@Z
  0000a	64 a1 00 00 00
	00		 mov	 eax, DWORD PTR fs:__except_list
  00010	50		 push	 eax
  00011	64 89 25 00 00
	00 00		 mov	 DWORD PTR fs:__except_list, esp
  00018	83 ec 40	 sub	 esp, 64			; 00000040H
  0001b	56		 push	 esi
  0001c	57		 push	 edi
  0001d	8d 7d b4	 lea	 edi, DWORD PTR [ebp-76]
  00020	b9 10 00 00 00	 mov	 ecx, 16			; 00000010H
  00025	b8 cc cc cc cc	 mov	 eax, -858993460		; ccccccccH
  0002a	f3 ab		 rep stosd

; 193  : 	USES_CONVERSION_EX;

  0002c	c7 45 f0 00 00
	00 00		 mov	 DWORD PTR __convert_ex$[ebp], 0
  00033	e8 00 00 00 00	 call	 ?_AtlGetConversionACP@ATL@@YGIXZ ; ATL::_AtlGetConversionACP
  00038	89 45 ec	 mov	 DWORD PTR __acp_ex$[ebp], eax
  0003b	c7 45 e8 00 00
	00 00		 mov	 DWORD PTR __lpw_ex$[ebp], 0
  00042	c7 45 e4 00 00
	00 00		 mov	 DWORD PTR __lpa_ex$[ebp], 0
  00049	8d 4d dc	 lea	 ecx, DWORD PTR __AtlSafeAllocaManager$[ebp]
  0004c	e8 00 00 00 00	 call	 ??0?$CAtlSafeAllocBufferManager@VCCRTAllocator@ATL@@@_ATL_SAFE_ALLOCA_IMPL@ATL@@QAE@XZ ; ATL::_ATL_SAFE_ALLOCA_IMPL::CAtlSafeAllocBufferManager<ATL::CCRTAllocator>::CAtlSafeAllocBufferManager<ATL::CCRTAllocator>
  00051	c7 45 fc 00 00
	00 00		 mov	 DWORD PTR __$EHRec$[ebp+8], 0

; 194  : 	
; 195  : 	LPCSTR pszAString1 = NULL;

  00058	c7 45 d4 00 00
	00 00		 mov	 DWORD PTR _pszAString1$[ebp], 0

; 196  : 	if(pszString1 != NULL)

  0005f	83 7d 10 00	 cmp	 DWORD PTR _pszString1$[ebp], 0
  00063	0f 84 a1 00 00
	00		 je	 $L26349

; 197  : 	{
; 198  : 		pszAString1 = W2A_EX(pszString1,_ATL_SAFE_ALLOCA_DEF_THRESHOLD);

  00069	8b 45 10	 mov	 eax, DWORD PTR _pszString1$[ebp]
  0006c	89 45 e8	 mov	 DWORD PTR __lpw_ex$[ebp], eax
  0006f	83 7d e8 00	 cmp	 DWORD PTR __lpw_ex$[ebp], 0
  00073	75 09		 jne	 SHORT $L192325
  00075	c7 45 c8 00 00
	00 00		 mov	 DWORD PTR tv91[ebp], 0
  0007c	eb 76		 jmp	 SHORT $L192326
$L192325:
  0007e	8b f4		 mov	 esi, esp
  00080	8b 4d e8	 mov	 ecx, DWORD PTR __lpw_ex$[ebp]
  00083	51		 push	 ecx
  00084	ff 15 00 00 00
	00		 call	 DWORD PTR __imp__lstrlenW@4
  0008a	3b f4		 cmp	 esi, esp
  0008c	e8 00 00 00 00	 call	 __RTC_CheckEsp
  00091	8d 54 00 02	 lea	 edx, DWORD PTR [eax+eax+2]
  00095	89 55 f0	 mov	 DWORD PTR __convert_ex$[ebp], edx
  00098	81 7d f0 00 04
	00 00		 cmp	 DWORD PTR __convert_ex$[ebp], 1024 ; 00000400H
  0009f	7f 2c		 jg	 SHORT $L192323
  000a1	8b 45 f0	 mov	 eax, DWORD PTR __convert_ex$[ebp]
  000a4	50		 push	 eax
  000a5	e8 00 00 00 00	 call	 ?_AtlVerifyStackAvailable@_ATL_SAFE_ALLOCA_IMPL@ATL@@YA_NK@Z ; ATL::_ATL_SAFE_ALLOCA_IMPL::_AtlVerifyStackAvailable
  000aa	83 c4 04	 add	 esp, 4
  000ad	0f b6 c8	 movzx	 ecx, al
  000b0	85 c9		 test	 ecx, ecx
  000b2	74 19		 je	 SHORT $L192323
  000b4	8b 45 f0	 mov	 eax, DWORD PTR __convert_ex$[ebp]
  000b7	83 c0 03	 add	 eax, 3
  000ba	83 e0 fc	 and	 eax, -4			; fffffffcH
  000bd	e8 00 00 00 00	 call	 __alloca_probe
  000c2	89 65 c4	 mov	 DWORD PTR tv84[ebp], esp
  000c5	8b 55 c4	 mov	 edx, DWORD PTR tv84[ebp]
  000c8	89 55 c0	 mov	 DWORD PTR tv89[ebp], edx
  000cb	eb 0f		 jmp	 SHORT $L192324
$L192323:
  000cd	8b 45 f0	 mov	 eax, DWORD PTR __convert_ex$[ebp]
  000d0	50		 push	 eax
  000d1	8d 4d dc	 lea	 ecx, DWORD PTR __AtlSafeAllocaManager$[ebp]
  000d4	e8 00 00 00 00	 call	 ?Allocate@?$CAtlSafeAllocBufferManager@VCCRTAllocator@ATL@@@_ATL_SAFE_ALLOCA_IMPL@ATL@@QAEPAXK@Z ; ATL::_ATL_SAFE_ALLOCA_IMPL::CAtlSafeAllocBufferManager<ATL::CCRTAllocator>::Allocate
  000d9	89 45 c0	 mov	 DWORD PTR tv89[ebp], eax
$L192324:
  000dc	8b 4d ec	 mov	 ecx, DWORD PTR __acp_ex$[ebp]
  000df	51		 push	 ecx
  000e0	8b 55 f0	 mov	 edx, DWORD PTR __convert_ex$[ebp]
  000e3	52		 push	 edx
  000e4	8b 45 e8	 mov	 eax, DWORD PTR __lpw_ex$[ebp]
  000e7	50		 push	 eax
  000e8	8b 4d c0	 mov	 ecx, DWORD PTR tv89[ebp]
  000eb	51		 push	 ecx
  000ec	e8 00 00 00 00	 call	 ?AtlW2AHelper@@YGPADPADPB_WHI@Z ; AtlW2AHelper
  000f1	89 45 c8	 mov	 DWORD PTR tv91[ebp], eax
$L192326:
  000f4	8b 55 c8	 mov	 edx, DWORD PTR tv91[ebp]
  000f7	89 55 d4	 mov	 DWORD PTR _pszAString1$[ebp], edx

; 199  : 		if(pszAString1 == NULL)

  000fa	83 7d d4 00	 cmp	 DWORD PTR _pszAString1$[ebp], 0
  000fe	75 0a		 jne	 SHORT $L26349

; 200  : 			AtlThrow(E_OUTOFMEMORY);

  00100	68 0e 00 07 80	 push	 -2147024882		; 8007000eH
  00105	e8 00 00 00 00	 call	 ?AtlThrow@ATL@@YGXJ@Z	; ATL::AtlThrow
$L26349:

; 201  : 	}
; 202  : 
; 203  : 	LPCSTR pszAString2 = NULL;

  0010a	c7 45 d0 00 00
	00 00		 mov	 DWORD PTR _pszAString2$[ebp], 0

; 204  : 	if(pszString2 != NULL)

  00111	83 7d 18 00	 cmp	 DWORD PTR _pszString2$[ebp], 0
  00115	0f 84 a1 00 00
	00		 je	 $L26355

; 205  : 	{
; 206  : 		pszAString2 = W2A_EX(pszString2,_ATL_SAFE_ALLOCA_DEF_THRESHOLD);

  0011b	8b 45 18	 mov	 eax, DWORD PTR _pszString2$[ebp]
  0011e	89 45 e8	 mov	 DWORD PTR __lpw_ex$[ebp], eax
  00121	83 7d e8 00	 cmp	 DWORD PTR __lpw_ex$[ebp], 0
  00125	75 09		 jne	 SHORT $L192329
  00127	c7 45 bc 00 00
	00 00		 mov	 DWORD PTR tv149[ebp], 0
  0012e	eb 76		 jmp	 SHORT $L192330
$L192329:
  00130	8b f4		 mov	 esi, esp
  00132	8b 4d e8	 mov	 ecx, DWORD PTR __lpw_ex$[ebp]
  00135	51		 push	 ecx
  00136	ff 15 00 00 00
	00		 call	 DWORD PTR __imp__lstrlenW@4
  0013c	3b f4		 cmp	 esi, esp
  0013e	e8 00 00 00 00	 call	 __RTC_CheckEsp
  00143	8d 54 00 02	 lea	 edx, DWORD PTR [eax+eax+2]
  00147	89 55 f0	 mov	 DWORD PTR __convert_ex$[ebp], edx
  0014a	81 7d f0 00 04
	00 00		 cmp	 DWORD PTR __convert_ex$[ebp], 1024 ; 00000400H
  00151	7f 2c		 jg	 SHORT $L192327
  00153	8b 45 f0	 mov	 eax, DWORD PTR __convert_ex$[ebp]
  00156	50		 push	 eax
  00157	e8 00 00 00 00	 call	 ?_AtlVerifyStackAvailable@_ATL_SAFE_ALLOCA_IMPL@ATL@@YA_NK@Z ; ATL::_ATL_SAFE_ALLOCA_IMPL::_AtlVerifyStackAvailable
  0015c	83 c4 04	 add	 esp, 4
  0015f	0f b6 c8	 movzx	 ecx, al
  00162	85 c9		 test	 ecx, ecx
  00164	74 19		 je	 SHORT $L192327
  00166	8b 45 f0	 mov	 eax, DWORD PTR __convert_ex$[ebp]
  00169	83 c0 03	 add	 eax, 3
  0016c	83 e0 fc	 and	 eax, -4			; fffffffcH
  0016f	e8 00 00 00 00	 call	 __alloca_probe
  00174	89 65 b8	 mov	 DWORD PTR tv142[ebp], esp
  00177	8b 55 b8	 mov	 edx, DWORD PTR tv142[ebp]
  0017a	89 55 b4	 mov	 DWORD PTR tv147[ebp], edx
  0017d	eb 0f		 jmp	 SHORT $L192328
$L192327:
  0017f	8b 45 f0	 mov	 eax, DWORD PTR __convert_ex$[ebp]
  00182	50		 push	 eax
  00183	8d 4d dc	 lea	 ecx, DWORD PTR __AtlSafeAllocaManager$[ebp]
  00186	e8 00 00 00 00	 call	 ?Allocate@?$CAtlSafeAllocBufferManager@VCCRTAllocator@ATL@@@_ATL_SAFE_ALLOCA_IMPL@ATL@@QAEPAXK@Z ; ATL::_ATL_SAFE_ALLOCA_IMPL::CAtlSafeAllocBufferManager<ATL::CCRTAllocator>::Allocate
  0018b	89 45 b4	 mov	 DWORD PTR tv147[ebp], eax
$L192328:
  0018e	8b 4d ec	 mov	 ecx, DWORD PTR __acp_ex$[ebp]
  00191	51		 push	 ecx
  00192	8b 55 f0	 mov	 edx, DWORD PTR __convert_ex$[ebp]
  00195	52		 push	 edx
  00196	8b 45 e8	 mov	 eax, DWORD PTR __lpw_ex$[ebp]
  00199	50		 push	 eax
  0019a	8b 4d b4	 mov	 ecx, DWORD PTR tv147[ebp]
  0019d	51		 push	 ecx
  0019e	e8 00 00 00 00	 call	 ?AtlW2AHelper@@YGPADPADPB_WHI@Z ; AtlW2AHelper
  001a3	89 45 bc	 mov	 DWORD PTR tv149[ebp], eax
$L192330:
  001a6	8b 55 bc	 mov	 edx, DWORD PTR tv149[ebp]
  001a9	89 55 d0	 mov	 DWORD PTR _pszAString2$[ebp], edx

; 207  : 		if(pszAString2 == NULL)

  001ac	83 7d d0 00	 cmp	 DWORD PTR _pszAString2$[ebp], 0
  001b0	75 0a		 jne	 SHORT $L26355

; 208  : 			AtlThrow(E_OUTOFMEMORY);

  001b2	68 0e 00 07 80	 push	 -2147024882		; 8007000eH
  001b7	e8 00 00 00 00	 call	 ?AtlThrow@ATL@@YGXJ@Z	; ATL::AtlThrow
$L26355:

; 209  : 	}
; 210  : 
; 211  : 	return ::CompareStringA(lcid, dwFlags, pszAString1, nLength1, pszAString2, nLength2);

  001bc	8b f4		 mov	 esi, esp
  001be	8b 45 1c	 mov	 eax, DWORD PTR _nLength2$[ebp]
  001c1	50		 push	 eax
  001c2	8b 4d d0	 mov	 ecx, DWORD PTR _pszAString2$[ebp]
  001c5	51		 push	 ecx
  001c6	8b 55 14	 mov	 edx, DWORD PTR _nLength1$[ebp]
  001c9	52		 push	 edx
  001ca	8b 45 d4	 mov	 eax, DWORD PTR _pszAString1$[ebp]
  001cd	50		 push	 eax
  001ce	8b 4d 0c	 mov	 ecx, DWORD PTR _dwFlags$[ebp]
  001d1	51		 push	 ecx
  001d2	8b 55 08	 mov	 edx, DWORD PTR _lcid$[ebp]
  001d5	52		 push	 edx
  001d6	ff 15 00 00 00
	00		 call	 DWORD PTR __imp__CompareStringA@24
  001dc	3b f4		 cmp	 esi, esp
  001de	e8 00 00 00 00	 call	 __RTC_CheckEsp
  001e3	89 45 cc	 mov	 DWORD PTR $T192331[ebp], eax
  001e6	c7 45 fc ff ff
	ff ff		 mov	 DWORD PTR __$EHRec$[ebp+8], -1
  001ed	8d 4d dc	 lea	 ecx, DWORD PTR __AtlSafeAllocaManager$[ebp]
  001f0	e8 00 00 00 00	 call	 ??1?$CAtlSafeAllocBufferManager@VCCRTAllocator@ATL@@@_ATL_SAFE_ALLOCA_IMPL@ATL@@QAE@XZ ; ATL::_ATL_SAFE_ALLOCA_IMPL::CAtlSafeAllocBufferManager<ATL::CCRTAllocator>::~CAtlSafeAllocBufferManager<ATL::CCRTAllocator>
  001f5	8b 45 cc	 mov	 eax, DWORD PTR $T192331[ebp]
$L192322:

; 212  : }

  001f8	8d 65 ac	 lea	 esp, DWORD PTR [ebp-84]
  001fb	52		 push	 edx
  001fc	8b cd		 mov	 ecx, ebp
  001fe	50		 push	 eax
  001ff	8d 15 00 00 00
	00		 lea	 edx, DWORD PTR $L192339
  00205	e8 00 00 00 00	 call	 @_RTC_CheckStackVars@8
  0020a	58		 pop	 eax
  0020b	5a		 pop	 edx
  0020c	8b 4d f4	 mov	 ecx, DWORD PTR __$EHRec$[ebp]
  0020f	64 89 0d 00 00
	00 00		 mov	 DWORD PTR fs:__except_list, ecx
  00216	5f		 pop	 edi
  00217	5e		 pop	 esi
  00218	8b e5		 mov	 esp, ebp
  0021a	5d		 pop	 ebp
  0021b	c2 18 00	 ret	 24			; 00000018H
$L192339:
  0021e	01 00 00 00	 DD	 1
  00222	00 00 00 00	 DD	 $L192338
$L192338:
  00226	dc ff ff ff	 DD	 -36			; ffffffdcH
  0022a	04 00 00 00	 DD	 4
  0022e	00 00 00 00	 DD	 $L192336
$L192336:
  00232	5f		 DB	 95			; 0000005fH
  00233	41		 DB	 65			; 00000041H
  00234	74		 DB	 116			; 00000074H
  00235	6c		 DB	 108			; 0000006cH
  00236	53		 DB	 83			; 00000053H
  00237	61		 DB	 97			; 00000061H
  00238	66		 DB	 102			; 00000066H
  00239	65		 DB	 101			; 00000065H
  0023a	41		 DB	 65			; 00000041H
  0023b	6c		 DB	 108			; 0000006cH
  0023c	6c		 DB	 108			; 0000006cH
  0023d	6f		 DB	 111			; 0000006fH
  0023e	63		 DB	 99			; 00000063H
  0023f	61		 DB	 97			; 00000061H
  00240	4d		 DB	 77			; 0000004dH
  00241	61		 DB	 97			; 00000061H
  00242	6e		 DB	 110			; 0000006eH
  00243	61		 DB	 97			; 00000061H
  00244	67		 DB	 103			; 00000067H
  00245	65		 DB	 101			; 00000065H
  00246	72		 DB	 114			; 00000072H
  00247	00		 DB	 0
_TEXT	ENDS
;	COMDAT text$x
text$x	SEGMENT
$L192332:
  00000	8d 4d dc	 lea	 ecx, DWORD PTR __AtlSafeAllocaManager$[ebp]
  00003	e9 00 00 00 00	 jmp	 ??1?$CAtlSafeAllocBufferManager@VCCRTAllocator@ATL@@@_ATL_SAFE_ALLOCA_IMPL@ATL@@QAE@XZ ; ATL::_ATL_SAFE_ALLOCA_IMPL::CAtlSafeAllocBufferManager<ATL::CCRTAllocator>::~CAtlSafeAllocBufferManager<ATL::CCRTAllocator>
__ehhandler$?CompareStringWFake@ATL@@YGHKKPB_WH0H@Z:
  00008	b8 00 00 00 00	 mov	 eax, OFFSET FLAT:$T192334
  0000d	e9 00 00 00 00	 jmp	 ___CxxFrameHandler
text$x	ENDS
?CompareStringWFake@ATL@@YGHKKPB_WH0H@Z ENDP		; ATL::CompareStringWFake
EXTRN	__imp___resetstkoflw:NEAR
EXTRN	__except_handler3:NEAR
;	COMDAT CONST
; File d:\program files (x86)\microsoft visual studio .net 2003\vc7\atlmfc\include\atlalloc.h
CONST	SEGMENT
$T192350 DD	0ffffffffH
	DD	FLAT:$L192345
	DD	FLAT:$L192346
; Function compile flags: /Odt /RTCsu
CONST	ENDS
;	COMDAT ?_AtlVerifyStackAvailable@_ATL_SAFE_ALLOCA_IMPL@ATL@@YA_NK@Z
_TEXT	SEGMENT
tv65 = -48						; size = 4
$T192349 = -44						; size = 4
_p$24107 = -36						; size = 4
_bStackAvailable$ = -25					; size = 1
__$SEHRec$ = -24					; size = 24
_Size$ = 8						; size = 4
?_AtlVerifyStackAvailable@_ATL_SAFE_ALLOCA_IMPL@ATL@@YA_NK@Z PROC NEAR ; ATL::_ATL_SAFE_ALLOCA_IMPL::_AtlVerifyStackAvailable, COMDAT

; 331  : {

  00000	55		 push	 ebp
  00001	8b ec		 mov	 ebp, esp
  00003	6a ff		 push	 -1
  00005	68 00 00 00 00	 push	 OFFSET FLAT:$T192350
  0000a	68 00 00 00 00	 push	 OFFSET FLAT:__except_handler3
  0000f	64 a1 00 00 00
	00		 mov	 eax, DWORD PTR fs:__except_list
  00015	50		 push	 eax
  00016	64 89 25 00 00
	00 00		 mov	 DWORD PTR fs:__except_list, esp
  0001d	83 c4 e0	 add	 esp, -32		; ffffffe0H
  00020	53		 push	 ebx
  00021	56		 push	 esi
  00022	57		 push	 edi
  00023	b8 cc cc cc cc	 mov	 eax, -858993460		; ccccccccH
  00028	89 45 d0	 mov	 DWORD PTR [ebp-48], eax
  0002b	89 45 d4	 mov	 DWORD PTR [ebp-44], eax
  0002e	89 45 d8	 mov	 DWORD PTR [ebp-40], eax
  00031	89 45 dc	 mov	 DWORD PTR [ebp-36], eax
  00034	89 45 e0	 mov	 DWORD PTR [ebp-32], eax
  00037	89 45 e4	 mov	 DWORD PTR [ebp-28], eax
  0003a	89 65 e8	 mov	 DWORD PTR __$SEHRec$[ebp], esp

; 332  :     bool bStackAvailable = true;

  0003d	c6 45 e7 01	 mov	 BYTE PTR _bStackAvailable$[ebp], 1

; 333  : 
; 334  :     __try

  00041	c7 45 fc 00 00
	00 00		 mov	 DWORD PTR __$SEHRec$[ebp+20], 0

; 335  :     {
; 336  :         PVOID p = _alloca(Size + _ATL_STACK_MARGIN);

  00048	8b 45 08	 mov	 eax, DWORD PTR _Size$[ebp]
  0004b	05 03 20 00 00	 add	 eax, 8195		; 00002003H
  00050	83 e0 fc	 and	 eax, -4			; fffffffcH
  00053	e8 00 00 00 00	 call	 __alloca_probe
  00058	89 65 d0	 mov	 DWORD PTR tv65[ebp], esp
  0005b	89 65 e8	 mov	 DWORD PTR __$SEHRec$[ebp], esp
  0005e	8b 45 d0	 mov	 eax, DWORD PTR tv65[ebp]
  00061	89 45 dc	 mov	 DWORD PTR _p$24107[ebp], eax
  00064	c7 45 fc ff ff
	ff ff		 mov	 DWORD PTR __$SEHRec$[ebp+20], -1
  0006b	eb 35		 jmp	 SHORT $L192348
$L192345:

; 337  :         (p);
; 338  :     }
; 339  :     __except ((EXCEPTION_STACK_OVERFLOW == GetExceptionCode()) ?
; 340  :                    EXCEPTION_EXECUTE_HANDLER :
; 341  :                    EXCEPTION_CONTINUE_SEARCH)

  0006d	8b 4d ec	 mov	 ecx, DWORD PTR __$SEHRec$[ebp+4]
  00070	8b 11		 mov	 edx, DWORD PTR [ecx]
  00072	8b 02		 mov	 eax, DWORD PTR [edx]
  00074	89 45 d4	 mov	 DWORD PTR $T192349[ebp], eax
  00077	8b 45 d4	 mov	 eax, DWORD PTR $T192349[ebp]
  0007a	2d fd 00 00 c0	 sub	 eax, -1073741571	; c00000fdH
  0007f	f7 d8		 neg	 eax
  00081	1b c0		 sbb	 eax, eax
  00083	40		 inc	 eax
$L192347:
  00084	c3		 ret	 0
$L192346:
  00085	8b 65 e8	 mov	 esp, DWORD PTR __$SEHRec$[ebp]

; 342  :     {
; 343  :         bStackAvailable = false;

  00088	c6 45 e7 00	 mov	 BYTE PTR _bStackAvailable$[ebp], 0

; 344  :         _resetstkoflw();

  0008c	8b f4		 mov	 esi, esp
  0008e	ff 15 00 00 00
	00		 call	 DWORD PTR __imp___resetstkoflw
  00094	3b f4		 cmp	 esi, esp
  00096	e8 00 00 00 00	 call	 __RTC_CheckEsp
  0009b	c7 45 fc ff ff
	ff ff		 mov	 DWORD PTR __$SEHRec$[ebp+20], -1
$L192348:

; 345  :     }
; 346  :     return bStackAvailable;

  000a2	8a 45 e7	 mov	 al, BYTE PTR _bStackAvailable$[ebp]
$L192344:

; 347  : }

  000a5	8d 65 c4	 lea	 esp, DWORD PTR [ebp-60]
  000a8	52		 push	 edx
  000a9	8b cd		 mov	 ecx, ebp
  000ab	50		 push	 eax
  000ac	8d 15 00 00 00
	00		 lea	 edx, DWORD PTR $L192355
  000b2	e8 00 00 00 00	 call	 @_RTC_CheckStackVars@8
  000b7	58		 pop	 eax
  000b8	5a		 pop	 edx
  000b9	8b 4d f0	 mov	 ecx, DWORD PTR __$SEHRec$[ebp+8]
  000bc	64 89 0d 00 00
	00 00		 mov	 DWORD PTR fs:__except_list, ecx
  000c3	5f		 pop	 edi
  000c4	5e		 pop	 esi
  000c5	5b		 pop	 ebx
  000c6	8b e5		 mov	 esp, ebp
  000c8	5d		 pop	 ebp
  000c9	c3		 ret	 0
$L192355:
  000ca	01 00 00 00	 DD	 1
  000ce	00 00 00 00	 DD	 $L192354
$L192354:
  000d2	dc ff ff ff	 DD	 -36			; ffffffdcH
  000d6	04 00 00 00	 DD	 4
  000da	00 00 00 00	 DD	 $L192352
$L192352:
  000de	70		 DB	 112			; 00000070H
  000df	00		 DB	 0
?_AtlVerifyStackAvailable@_ATL_SAFE_ALLOCA_IMPL@ATL@@YA_NK@Z ENDP ; ATL::_ATL_SAFE_ALLOCA_IMPL::_AtlVerifyStackAvailable
_TEXT	ENDS
PUBLIC	??_C@_08DMHHBMMN@lpa?5?$CB?$DN?50?$AA@		; `string'
PUBLIC	??_C@_0FG@PFHCBDBK@D?3?2Program?5Files?5?$CIx86?$CJ?2Microsoft@ ; `string'
PUBLIC	??_C@_08DIHJLFDJ@lpw?5?$CB?$DN?50?$AA@		; `string'
PUBLIC	??_C@_01GBGANLPD@0?$AA@				; `string'
EXTRN	__imp__WideCharToMultiByte@32:NEAR
;	COMDAT ??_C@_08DIHJLFDJ@lpw?5?$CB?$DN?50?$AA@
; File d:\program files (x86)\microsoft visual studio .net 2003\vc7\atlmfc\include\atlconv.h
CONST	SEGMENT
??_C@_08DIHJLFDJ@lpw?5?$CB?$DN?50?$AA@ DB 'lpw != 0', 00H ; `string'
CONST	ENDS
;	COMDAT ??_C@_0FG@PFHCBDBK@D?3?2Program?5Files?5?$CIx86?$CJ?2Microsoft@
CONST	SEGMENT
??_C@_0FG@PFHCBDBK@D?3?2Program?5Files?5?$CIx86?$CJ?2Microsoft@ DB 'D:\Pr'
	DB	'ogram Files (x86)\Microsoft Visual Studio .NET 2003\Vc7\atlmf'
	DB	'c\include\atlconv.h', 00H			; `string'
CONST	ENDS
;	COMDAT ??_C@_08DMHHBMMN@lpa?5?$CB?$DN?50?$AA@
CONST	SEGMENT
??_C@_08DMHHBMMN@lpa?5?$CB?$DN?50?$AA@ DB 'lpa != 0', 00H ; `string'
CONST	ENDS
;	COMDAT ??_C@_01GBGANLPD@0?$AA@
CONST	SEGMENT
??_C@_01GBGANLPD@0?$AA@ DB '0', 00H			; `string'
; Function compile flags: /Odt /RTCsu
CONST	ENDS
;	COMDAT ?AtlW2AHelper@@YGPADPADPB_WHI@Z
_TEXT	SEGMENT
_ret$ = -4						; size = 4
_lpa$ = 8						; size = 4
_lpw$ = 12						; size = 4
_nChars$ = 16						; size = 4
_acp$ = 20						; size = 4
?AtlW2AHelper@@YGPADPADPB_WHI@Z PROC NEAR		; AtlW2AHelper, COMDAT

; 573  : {

  00000	55		 push	 ebp
  00001	8b ec		 mov	 ebp, esp
  00003	51		 push	 ecx
  00004	56		 push	 esi
  00005	c7 45 fc cc cc
	cc cc		 mov	 DWORD PTR [ebp-4], -858993460 ; ccccccccH

; 574  : 	ATLASSERT(lpw != NULL);

  0000c	83 7d 0c 00	 cmp	 DWORD PTR _lpw$[ebp], 0
  00010	75 2b		 jne	 SHORT $L192359
  00012	8b f4		 mov	 esi, esp
  00014	68 00 00 00 00	 push	 OFFSET FLAT:??_C@_08DIHJLFDJ@lpw?5?$CB?$DN?50?$AA@
  00019	6a 00		 push	 0
  0001b	68 3e 02 00 00	 push	 574			; 0000023eH
  00020	68 00 00 00 00	 push	 OFFSET FLAT:??_C@_0FG@PFHCBDBK@D?3?2Program?5Files?5?$CIx86?$CJ?2Microsoft@
  00025	6a 02		 push	 2
  00027	ff 15 00 00 00
	00		 call	 DWORD PTR __imp___CrtDbgReport
  0002d	83 c4 14	 add	 esp, 20			; 00000014H
  00030	3b f4		 cmp	 esi, esp
  00032	e8 00 00 00 00	 call	 __RTC_CheckEsp
  00037	83 f8 01	 cmp	 eax, 1
  0003a	75 01		 jne	 SHORT $L192359
  0003c	cc		 int	 3
$L192359:

; 575  : 	ATLASSERT(lpa != NULL);

  0003d	83 7d 08 00	 cmp	 DWORD PTR _lpa$[ebp], 0
  00041	75 2b		 jne	 SHORT $L192360
  00043	8b f4		 mov	 esi, esp
  00045	68 00 00 00 00	 push	 OFFSET FLAT:??_C@_08DMHHBMMN@lpa?5?$CB?$DN?50?$AA@
  0004a	6a 00		 push	 0
  0004c	68 3f 02 00 00	 push	 575			; 0000023fH
  00051	68 00 00 00 00	 push	 OFFSET FLAT:??_C@_0FG@PFHCBDBK@D?3?2Program?5Files?5?$CIx86?$CJ?2Microsoft@
  00056	6a 02		 push	 2
  00058	ff 15 00 00 00
	00		 call	 DWORD PTR __imp___CrtDbgReport
  0005e	83 c4 14	 add	 esp, 20			; 00000014H
  00061	3b f4		 cmp	 esi, esp
  00063	e8 00 00 00 00	 call	 __RTC_CheckEsp
  00068	83 f8 01	 cmp	 eax, 1
  0006b	75 01		 jne	 SHORT $L192360
  0006d	cc		 int	 3
$L192360:

; 576  : 	if (lpa == NULL || lpw == NULL)

  0006e	83 7d 08 00	 cmp	 DWORD PTR _lpa$[ebp], 0
  00072	74 06		 je	 SHORT $L24313
  00074	83 7d 0c 00	 cmp	 DWORD PTR _lpw$[ebp], 0
  00078	75 04		 jne	 SHORT $L24312
$L24313:

; 577  : 		return NULL;

  0007a	33 c0		 xor	 eax, eax
  0007c	eb 6c		 jmp	 SHORT $L24309
$L24312:

; 578  : 	// verify that no illegal character present
; 579  : 	// since lpa was allocated based on the size of lpw
; 580  : 	// don't worry about the number of chars
; 581  : 	lpa[0] = '\0';

  0007e	8b 55 08	 mov	 edx, DWORD PTR _lpa$[ebp]
  00081	c6 02 00	 mov	 BYTE PTR [edx], 0

; 582  : 	int ret = WideCharToMultiByte(acp, 0, lpw, -1, lpa, nChars, NULL, NULL);

  00084	8b f4		 mov	 esi, esp
  00086	6a 00		 push	 0
  00088	6a 00		 push	 0
  0008a	8b 45 10	 mov	 eax, DWORD PTR _nChars$[ebp]
  0008d	50		 push	 eax
  0008e	8b 4d 08	 mov	 ecx, DWORD PTR _lpa$[ebp]
  00091	51		 push	 ecx
  00092	6a ff		 push	 -1
  00094	8b 55 0c	 mov	 edx, DWORD PTR _lpw$[ebp]
  00097	52		 push	 edx
  00098	6a 00		 push	 0
  0009a	8b 45 14	 mov	 eax, DWORD PTR _acp$[ebp]
  0009d	50		 push	 eax
  0009e	ff 15 00 00 00
	00		 call	 DWORD PTR __imp__WideCharToMultiByte@32
  000a4	3b f4		 cmp	 esi, esp
  000a6	e8 00 00 00 00	 call	 __RTC_CheckEsp
  000ab	89 45 fc	 mov	 DWORD PTR _ret$[ebp], eax

; 583  : 	if(ret == 0)

  000ae	83 7d fc 00	 cmp	 DWORD PTR _ret$[ebp], 0
  000b2	75 33		 jne	 SHORT $L24315

; 584  : 	{
; 585  : 		ATLASSERT(FALSE);

  000b4	33 c9		 xor	 ecx, ecx
  000b6	75 2b		 jne	 SHORT $L192361
  000b8	8b f4		 mov	 esi, esp
  000ba	68 00 00 00 00	 push	 OFFSET FLAT:??_C@_01GBGANLPD@0?$AA@
  000bf	6a 00		 push	 0
  000c1	68 49 02 00 00	 push	 585			; 00000249H
  000c6	68 00 00 00 00	 push	 OFFSET FLAT:??_C@_0FG@PFHCBDBK@D?3?2Program?5Files?5?$CIx86?$CJ?2Microsoft@
  000cb	6a 02		 push	 2
  000cd	ff 15 00 00 00
	00		 call	 DWORD PTR __imp___CrtDbgReport
  000d3	83 c4 14	 add	 esp, 20			; 00000014H
  000d6	3b f4		 cmp	 esi, esp
  000d8	e8 00 00 00 00	 call	 __RTC_CheckEsp
  000dd	83 f8 01	 cmp	 eax, 1
  000e0	75 01		 jne	 SHORT $L192361
  000e2	cc		 int	 3
$L192361:

; 586  : 		return NULL;

  000e3	33 c0		 xor	 eax, eax
  000e5	eb 03		 jmp	 SHORT $L24309
$L24315:

; 587  : 	}
; 588  : 	return lpa;

  000e7	8b 45 08	 mov	 eax, DWORD PTR _lpa$[ebp]
$L24309:

; 589  : }

  000ea	5e		 pop	 esi
  000eb	83 c4 04	 add	 esp, 4
  000ee	3b ec		 cmp	 ebp, esp
  000f0	e8 00 00 00 00	 call	 __RTC_CheckEsp
  000f5	8b e5		 mov	 esp, ebp
  000f7	5d		 pop	 ebp
  000f8	c2 10 00	 ret	 16			; 00000010H
?AtlW2AHelper@@YGPADPADPB_WHI@Z ENDP			; AtlW2AHelper
_TEXT	ENDS
PUBLIC	??BCTraceCategory@ATL@@QBEKXZ			; ATL::CTraceCategory::operator unsigned long
PUBLIC	??0CTraceFileAndLineInfo@ATL@@QAE@PBDH@Z	; ATL::CTraceFileAndLineInfo::CTraceFileAndLineInfo
PUBLIC	??RCTraceFileAndLineInfo@ATL@@QBAXKIPBDZZ	; ATL::CTraceFileAndLineInfo::operator()
PUBLIC	??_C@_0FI@NHHJANPC@D?3?2Program?5Files?5?$CIx86?$CJ?2Microsoft@ ; `string'
PUBLIC	??_C@_0BF@IAAKIJDJ@AtlThrow?3?5hr?5?$DN?50x?$CFx?6?$AA@ ; `string'
EXTRN	?atlTraceException@ATL@@3VCTraceCategory@1@A:DWORD ; ATL::atlTraceException
EXTRN	?AfxThrowMemoryException@@YGXXZ:NEAR		; AfxThrowMemoryException
EXTRN	?AfxThrowOleException@@YGXJ@Z:NEAR		; AfxThrowOleException
;	COMDAT ??_C@_0BF@IAAKIJDJ@AtlThrow?3?5hr?5?$DN?50x?$CFx?6?$AA@
; File d:\program files (x86)\microsoft visual studio .net 2003\vc7\atlmfc\include\atlexcept.h
CONST	SEGMENT
??_C@_0BF@IAAKIJDJ@AtlThrow?3?5hr?5?$DN?50x?$CFx?6?$AA@ DB 'AtlThrow: hr '
	DB	'= 0x%x', 0aH, 00H				; `string'
CONST	ENDS
;	COMDAT ??_C@_0FI@NHHJANPC@D?3?2Program?5Files?5?$CIx86?$CJ?2Microsoft@
CONST	SEGMENT
??_C@_0FI@NHHJANPC@D?3?2Program?5Files?5?$CIx86?$CJ?2Microsoft@ DB 'D:\Pr'
	DB	'ogram Files (x86)\Microsoft Visual Studio .NET 2003\Vc7\atlmf'
	DB	'c\include\atlexcept.h', 00H			; `string'
; Function compile flags: /Odt /RTCsu
CONST	ENDS
;	COMDAT ?AtlThrow@ATL@@YGXJ@Z
_TEXT	SEGMENT
$T192363 = -8						; size = 8
_hr$ = 8						; size = 4
?AtlThrow@ATL@@YGXJ@Z PROC NEAR				; ATL::AtlThrow, COMDAT

; 61   : {

  00000	55		 push	 ebp
  00001	8b ec		 mov	 ebp, esp
  00003	83 ec 08	 sub	 esp, 8
  00006	c7 45 f8 cc cc
	cc cc		 mov	 DWORD PTR [ebp-8], -858993460 ; ccccccccH
  0000d	c7 45 fc cc cc
	cc cc		 mov	 DWORD PTR [ebp-4], -858993460 ; ccccccccH

; 62   : 	ATLTRACE(atlTraceException, 0, _T("AtlThrow: hr = 0x%x\n"), hr );

  00014	8b 45 08	 mov	 eax, DWORD PTR _hr$[ebp]
  00017	50		 push	 eax
  00018	68 00 00 00 00	 push	 OFFSET FLAT:??_C@_0BF@IAAKIJDJ@AtlThrow?3?5hr?5?$DN?50x?$CFx?6?$AA@
  0001d	6a 00		 push	 0
  0001f	b9 00 00 00 00	 mov	 ecx, OFFSET FLAT:?atlTraceException@ATL@@3VCTraceCategory@1@A ; ATL::atlTraceException
  00024	e8 00 00 00 00	 call	 ??BCTraceCategory@ATL@@QBEKXZ ; ATL::CTraceCategory::operator unsigned long
  00029	50		 push	 eax
  0002a	6a 3e		 push	 62			; 0000003eH
  0002c	68 00 00 00 00	 push	 OFFSET FLAT:??_C@_0FI@NHHJANPC@D?3?2Program?5Files?5?$CIx86?$CJ?2Microsoft@
  00031	8d 4d f8	 lea	 ecx, DWORD PTR $T192363[ebp]
  00034	e8 00 00 00 00	 call	 ??0CTraceFileAndLineInfo@ATL@@QAE@PBDH@Z ; ATL::CTraceFileAndLineInfo::CTraceFileAndLineInfo
  00039	50		 push	 eax
  0003a	e8 00 00 00 00	 call	 ??RCTraceFileAndLineInfo@ATL@@QBAXKIPBDZZ ; ATL::CTraceFileAndLineInfo::operator()
  0003f	83 c4 14	 add	 esp, 20			; 00000014H

; 63   : #ifdef _AFX
; 64   : 	if( hr == E_OUTOFMEMORY )

  00042	81 7d 08 0e 00
	07 80		 cmp	 DWORD PTR _hr$[ebp], -2147024882 ; 8007000eH
  00049	75 05		 jne	 SHORT $L25222

; 65   : 	{
; 66   : 		AfxThrowMemoryException();

  0004b	e8 00 00 00 00	 call	 ?AfxThrowMemoryException@@YGXXZ ; AfxThrowMemoryException
$L25222:

; 67   : 	}
; 68   : 	else
; 69   : 	{
; 70   : 		AfxThrowOleException( hr );

  00050	8b 4d 08	 mov	 ecx, DWORD PTR _hr$[ebp]
  00053	51		 push	 ecx
  00054	e8 00 00 00 00	 call	 ?AfxThrowOleException@@YGXJ@Z ; AfxThrowOleException
$L192362:

; 71   : 	}
; 72   : #else
; 73   : 	throw CAtlException( hr );
; 74   : #endif
; 75   : };

  00059	83 c4 08	 add	 esp, 8
  0005c	3b ec		 cmp	 ebp, esp
  0005e	e8 00 00 00 00	 call	 __RTC_CheckEsp
  00063	8b e5		 mov	 esp, ebp
  00065	5d		 pop	 ebp
  00066	c2 04 00	 ret	 4
?AtlThrow@ATL@@YGXJ@Z ENDP				; ATL::AtlThrow
; Function compile flags: /Odt /RTCsu
; File d:\program files (x86)\microsoft visual studio .net 2003\vc7\atlmfc\include\atltrace.h
_TEXT	ENDS
;	COMDAT ??0CTraceFileAndLineInfo@ATL@@QAE@PBDH@Z
_TEXT	SEGMENT
_this$ = -4						; size = 4
_pszFileName$ = 8					; size = 4
_nLineNo$ = 12						; size = 4
??0CTraceFileAndLineInfo@ATL@@QAE@PBDH@Z PROC NEAR	; ATL::CTraceFileAndLineInfo::CTraceFileAndLineInfo, COMDAT
; _this$ = ecx

; 158  : 	{}

  00000	55		 push	 ebp
  00001	8b ec		 mov	 ebp, esp
  00003	51		 push	 ecx
  00004	c7 45 fc cc cc
	cc cc		 mov	 DWORD PTR [ebp-4], -858993460 ; ccccccccH
  0000b	89 4d fc	 mov	 DWORD PTR _this$[ebp], ecx
  0000e	8b 45 fc	 mov	 eax, DWORD PTR _this$[ebp]
  00011	8b 4d 08	 mov	 ecx, DWORD PTR _pszFileName$[ebp]
  00014	89 08		 mov	 DWORD PTR [eax], ecx
  00016	8b 55 fc	 mov	 edx, DWORD PTR _this$[ebp]
  00019	8b 45 0c	 mov	 eax, DWORD PTR _nLineNo$[ebp]
  0001c	89 42 04	 mov	 DWORD PTR [edx+4], eax
  0001f	8b 45 fc	 mov	 eax, DWORD PTR _this$[ebp]
  00022	8b e5		 mov	 esp, ebp
  00024	5d		 pop	 ebp
  00025	c2 08 00	 ret	 8
??0CTraceFileAndLineInfo@ATL@@QAE@PBDH@Z ENDP		; ATL::CTraceFileAndLineInfo::CTraceFileAndLineInfo
_TEXT	ENDS
PUBLIC	?TraceV@CTrace@ATL@@QBAXPBDHKI0PAD@Z		; ATL::CTrace::TraceV
EXTRN	?s_trace@CTrace@ATL@@2V12@A:QWORD		; ATL::CTrace::s_trace
; Function compile flags: /Odt /RTCsu
;	COMDAT ??RCTraceFileAndLineInfo@ATL@@QBAXKIPBDZZ
_TEXT	SEGMENT
_ptr$ = -4						; size = 4
_this$ = 8						; size = 4
_dwCategory$ = 12					; size = 4
_nLevel$ = 16						; size = 4
_pszFmt$ = 20						; size = 4
??RCTraceFileAndLineInfo@ATL@@QBAXKIPBDZZ PROC NEAR	; ATL::CTraceFileAndLineInfo::operator(), COMDAT

; 161  : 	{

  00000	55		 push	 ebp
  00001	8b ec		 mov	 ebp, esp
  00003	51		 push	 ecx
  00004	c7 45 fc cc cc
	cc cc		 mov	 DWORD PTR [ebp-4], -858993460 ; ccccccccH

; 162  : 		va_list ptr; va_start(ptr, pszFmt);

  0000b	8d 45 18	 lea	 eax, DWORD PTR _pszFmt$[ebp+4]
  0000e	89 45 fc	 mov	 DWORD PTR _ptr$[ebp], eax

; 163  : 		ATL::CTrace::s_trace.TraceV(m_pszFileName, m_nLineNo, dwCategory, nLevel, pszFmt, ptr);

  00011	8b 4d fc	 mov	 ecx, DWORD PTR _ptr$[ebp]
  00014	51		 push	 ecx
  00015	8b 55 14	 mov	 edx, DWORD PTR _pszFmt$[ebp]
  00018	52		 push	 edx
  00019	8b 45 10	 mov	 eax, DWORD PTR _nLevel$[ebp]
  0001c	50		 push	 eax
  0001d	8b 4d 0c	 mov	 ecx, DWORD PTR _dwCategory$[ebp]
  00020	51		 push	 ecx
  00021	8b 55 08	 mov	 edx, DWORD PTR _this$[ebp]
  00024	8b 42 04	 mov	 eax, DWORD PTR [edx+4]
  00027	50		 push	 eax
  00028	8b 4d 08	 mov	 ecx, DWORD PTR _this$[ebp]
  0002b	8b 11		 mov	 edx, DWORD PTR [ecx]
  0002d	52		 push	 edx
  0002e	68 00 00 00 00	 push	 OFFSET FLAT:?s_trace@CTrace@ATL@@2V12@A
  00033	e8 00 00 00 00	 call	 ?TraceV@CTrace@ATL@@QBAXPBDHKI0PAD@Z ; ATL::CTrace::TraceV
  00038	83 c4 1c	 add	 esp, 28			; 0000001cH

; 164  : 		va_end(ptr);

  0003b	c7 45 fc 00 00
	00 00		 mov	 DWORD PTR _ptr$[ebp], 0

; 165  : 	}

  00042	83 c4 04	 add	 esp, 4
  00045	3b ec		 cmp	 ebp, esp
  00047	e8 00 00 00 00	 call	 __RTC_CheckEsp
  0004c	8b e5		 mov	 esp, ebp
  0004e	5d		 pop	 ebp
  0004f	c3		 ret	 0
??RCTraceFileAndLineInfo@ATL@@QBAXKIPBDZZ ENDP		; ATL::CTraceFileAndLineInfo::operator()
_TEXT	ENDS
EXTRN	_AtlTraceVA:NEAR
; Function compile flags: /Odt /RTCsu
;	COMDAT ?TraceV@CTrace@ATL@@QBAXPBDHKI0PAD@Z
_TEXT	SEGMENT
_this$ = 8						; size = 4
_pszFileName$ = 12					; size = 4
_nLine$ = 16						; size = 4
_dwCategory$ = 20					; size = 4
_nLevel$ = 24						; size = 4
_pszFmt$ = 28						; size = 4
_args$ = 32						; size = 4
?TraceV@CTrace@ATL@@QBAXPBDHKI0PAD@Z PROC NEAR		; ATL::CTrace::TraceV, COMDAT

; 121  : 	{

  00000	55		 push	 ebp
  00001	8b ec		 mov	 ebp, esp

; 122  : 		AtlTraceVA(m_dwModule, pszFileName, nLine, dwCategory, nLevel, pszFmt, args);

  00003	8b 45 20	 mov	 eax, DWORD PTR _args$[ebp]
  00006	50		 push	 eax
  00007	8b 4d 1c	 mov	 ecx, DWORD PTR _pszFmt$[ebp]
  0000a	51		 push	 ecx
  0000b	8b 55 18	 mov	 edx, DWORD PTR _nLevel$[ebp]
  0000e	52		 push	 edx
  0000f	8b 45 14	 mov	 eax, DWORD PTR _dwCategory$[ebp]
  00012	50		 push	 eax
  00013	8b 4d 10	 mov	 ecx, DWORD PTR _nLine$[ebp]
  00016	51		 push	 ecx
  00017	8b 55 0c	 mov	 edx, DWORD PTR _pszFileName$[ebp]
  0001a	52		 push	 edx
  0001b	8b 45 08	 mov	 eax, DWORD PTR _this$[ebp]
  0001e	8b 48 04	 mov	 ecx, DWORD PTR [eax+4]
  00021	51		 push	 ecx
  00022	e8 00 00 00 00	 call	 _AtlTraceVA
  00027	83 c4 1c	 add	 esp, 28			; 0000001cH

; 123  : 	}

  0002a	3b ec		 cmp	 ebp, esp
  0002c	e8 00 00 00 00	 call	 __RTC_CheckEsp
  00031	5d		 pop	 ebp
  00032	c3		 ret	 0
?TraceV@CTrace@ATL@@QBAXPBDHKI0PAD@Z ENDP		; ATL::CTrace::TraceV
; Function compile flags: /Odt /RTCsu
_TEXT	ENDS
;	COMDAT ??BCTraceCategory@ATL@@QBEKXZ
_TEXT	SEGMENT
_this$ = -4						; size = 4
??BCTraceCategory@ATL@@QBEKXZ PROC NEAR			; ATL::CTraceCategory::operator unsigned long, COMDAT
; _this$ = ecx

; 202  : {

  00000	55		 push	 ebp
  00001	8b ec		 mov	 ebp, esp
  00003	51		 push	 ecx
  00004	c7 45 fc cc cc
	cc cc		 mov	 DWORD PTR [ebp-4], -858993460 ; ccccccccH
  0000b	89 4d fc	 mov	 DWORD PTR _this$[ebp], ecx

; 203  : 	return( m_dwCategory );

  0000e	8b 45 fc	 mov	 eax, DWORD PTR _this$[ebp]
  00011	8b 00		 mov	 eax, DWORD PTR [eax]

; 204  : }

  00013	8b e5		 mov	 esp, ebp
  00015	5d		 pop	 ebp
  00016	c3		 ret	 0
??BCTraceCategory@ATL@@QBEKXZ ENDP			; ATL::CTraceCategory::operator unsigned long
_TEXT	ENDS
PUBLIC	?GetStringTypeExWFake@ATL@@YGHKKPB_WHPAG@Z	; ATL::GetStringTypeExWFake
EXTRN	__imp__GetStringTypeExW@20:NEAR
; Function compile flags: /Odt /RTCsu
; File d:\program files (x86)\microsoft visual studio .net 2003\vc7\atlmfc\include\cstringt.h
;	COMDAT ?GetStringTypeExWThunk@ATL@@YGHKKPB_WHPAG@Z
_TEXT	SEGMENT
_lcid$ = 8						; size = 4
_dwInfoType$ = 12					; size = 4
_pszSrc$ = 16						; size = 4
_nLength$ = 20						; size = 4
_pwCharType$ = 24					; size = 4
?GetStringTypeExWThunk@ATL@@YGHKKPB_WHPAG@Z PROC NEAR	; ATL::GetStringTypeExWThunk, COMDAT

; 240  : {

  00000	55		 push	 ebp
  00001	8b ec		 mov	 ebp, esp
  00003	56		 push	 esi

; 241  : 	_AtlInstallStringThunk(reinterpret_cast<void**>(&_strthunks.pfnGetStringTypeExW), GetStringTypeExWFake, ::GetStringTypeExW);

  00004	a1 00 00 00 00	 mov	 eax, DWORD PTR __imp__GetStringTypeExW@20
  00009	50		 push	 eax
  0000a	68 00 00 00 00	 push	 OFFSET FLAT:?GetStringTypeExWFake@ATL@@YGHKKPB_WHPAG@Z ; ATL::GetStringTypeExWFake
  0000f	68 04 00 00 00	 push	 OFFSET FLAT:?_strthunks@ATL@@3U_AtlStringThunks@1@A+4
  00014	e8 00 00 00 00	 call	 ?_AtlInstallStringThunk@ATL@@YAXPAPAXPAX1@Z ; ATL::_AtlInstallStringThunk
  00019	83 c4 0c	 add	 esp, 12			; 0000000cH

; 242  : 
; 243  : 	return _strthunks.pfnGetStringTypeExW(lcid, dwInfoType, pszSrc, nLength, pwCharType);

  0001c	8b f4		 mov	 esi, esp
  0001e	8b 4d 18	 mov	 ecx, DWORD PTR _pwCharType$[ebp]
  00021	51		 push	 ecx
  00022	8b 55 14	 mov	 edx, DWORD PTR _nLength$[ebp]
  00025	52		 push	 edx
  00026	8b 45 10	 mov	 eax, DWORD PTR _pszSrc$[ebp]
  00029	50		 push	 eax
  0002a	8b 4d 0c	 mov	 ecx, DWORD PTR _dwInfoType$[ebp]
  0002d	51		 push	 ecx
  0002e	8b 55 08	 mov	 edx, DWORD PTR _lcid$[ebp]
  00031	52		 push	 edx
  00032	ff 15 04 00 00
	00		 call	 DWORD PTR ?_strthunks@ATL@@3U_AtlStringThunks@1@A+4
  00038	3b f4		 cmp	 esi, esp
  0003a	e8 00 00 00 00	 call	 __RTC_CheckEsp

; 244  : }

  0003f	5e		 pop	 esi
  00040	3b ec		 cmp	 ebp, esp
  00042	e8 00 00 00 00	 call	 __RTC_CheckEsp
  00047	5d		 pop	 ebp
  00048	c2 14 00	 ret	 20			; 00000014H
?GetStringTypeExWThunk@ATL@@YGHKKPB_WHPAG@Z ENDP	; ATL::GetStringTypeExWThunk
_TEXT	ENDS
EXTRN	__imp__GetStringTypeExA@20:NEAR
;	COMDAT xdata$x
xdata$x	SEGMENT
$T192380 DD	0ffffffffH
	DD	FLAT:$L192372
$T192374 DD	019930520H
	DD	01H
	DD	FLAT:$T192380
	DD	2 DUP(00H)
	DD	2 DUP(00H)
; Function compile flags: /Odt /RTCsu
xdata$x	ENDS
;	COMDAT ?GetStringTypeExWFake@ATL@@YGHKKPB_WHPAG@Z
_TEXT	SEGMENT
$T192371 = -164						; size = 4
_pszA$ = -156						; size = 132
_nLengthA$ = -20					; size = 4
__$ArrayPad$ = -16					; size = 4
__$EHRec$ = -12						; size = 12
__$ReturnAddr$ = 4					; size = 4
_lcid$ = 8						; size = 4
_dwInfoType$ = 12					; size = 4
_pszSrc$ = 16						; size = 4
_nLength$ = 20						; size = 4
_pwCharType$ = 24					; size = 4
?GetStringTypeExWFake@ATL@@YGHKKPB_WHPAG@Z PROC NEAR	; ATL::GetStringTypeExWFake, COMDAT

; 224  : {

  00000	55		 push	 ebp
  00001	8b ec		 mov	 ebp, esp
  00003	6a ff		 push	 -1
  00005	68 00 00 00 00	 push	 __ehhandler$?GetStringTypeExWFake@ATL@@YGHKKPB_WHPAG@Z
  0000a	64 a1 00 00 00
	00		 mov	 eax, DWORD PTR fs:__except_list
  00010	50		 push	 eax
  00011	64 89 25 00 00
	00 00		 mov	 DWORD PTR fs:__except_list, esp
  00018	81 ec 98 00 00
	00		 sub	 esp, 152		; 00000098H
  0001e	56		 push	 esi
  0001f	57		 push	 edi
  00020	8d bd 5c ff ff
	ff		 lea	 edi, DWORD PTR [ebp-164]
  00026	b9 26 00 00 00	 mov	 ecx, 38			; 00000026H
  0002b	b8 cc cc cc cc	 mov	 eax, -858993460		; ccccccccH
  00030	f3 ab		 rep stosd
  00032	a1 00 00 00 00	 mov	 eax, DWORD PTR ___security_cookie
  00037	89 45 f0	 mov	 DWORD PTR __$ArrayPad$[ebp], eax

; 225  : 	int nLengthA;
; 226  : 	CTempBuffer<char> pszA;

  0003a	8d 8d 64 ff ff
	ff		 lea	 ecx, DWORD PTR _pszA$[ebp]
  00040	e8 00 00 00 00	 call	 ??0?$CTempBuffer@D$0IA@VCCRTAllocator@ATL@@@ATL@@QAE@XZ ; ATL::CTempBuffer<char,128,ATL::CCRTAllocator>::CTempBuffer<char,128,ATL::CCRTAllocator>
  00045	c7 45 fc 00 00
	00 00		 mov	 DWORD PTR __$EHRec$[ebp+8], 0

; 227  : 
; 228  : 	nLengthA = ::WideCharToMultiByte(_AtlGetConversionACP(), 0, pszSrc, nLength, NULL, 0, NULL, NULL);

  0004c	8b f4		 mov	 esi, esp
  0004e	6a 00		 push	 0
  00050	6a 00		 push	 0
  00052	6a 00		 push	 0
  00054	6a 00		 push	 0
  00056	8b 45 14	 mov	 eax, DWORD PTR _nLength$[ebp]
  00059	50		 push	 eax
  0005a	8b 4d 10	 mov	 ecx, DWORD PTR _pszSrc$[ebp]
  0005d	51		 push	 ecx
  0005e	6a 00		 push	 0
  00060	e8 00 00 00 00	 call	 ?_AtlGetConversionACP@ATL@@YGIXZ ; ATL::_AtlGetConversionACP
  00065	50		 push	 eax
  00066	ff 15 00 00 00
	00		 call	 DWORD PTR __imp__WideCharToMultiByte@32
  0006c	3b f4		 cmp	 esi, esp
  0006e	e8 00 00 00 00	 call	 __RTC_CheckEsp
  00073	89 45 ec	 mov	 DWORD PTR _nLengthA$[ebp], eax

; 229  : 	pszA.Allocate(nLengthA);

  00076	8b 55 ec	 mov	 edx, DWORD PTR _nLengthA$[ebp]
  00079	52		 push	 edx
  0007a	8d 8d 64 ff ff
	ff		 lea	 ecx, DWORD PTR _pszA$[ebp]
  00080	e8 00 00 00 00	 call	 ?Allocate@?$CTempBuffer@D$0IA@VCCRTAllocator@ATL@@@ATL@@QAEPADI@Z ; ATL::CTempBuffer<char,128,ATL::CCRTAllocator>::Allocate

; 230  : 	::WideCharToMultiByte(_AtlGetConversionACP(), 0, pszSrc, nLength, pszA, nLengthA, NULL, NULL);

  00085	8b f4		 mov	 esi, esp
  00087	6a 00		 push	 0
  00089	6a 00		 push	 0
  0008b	8b 45 ec	 mov	 eax, DWORD PTR _nLengthA$[ebp]
  0008e	50		 push	 eax
  0008f	8d 8d 64 ff ff
	ff		 lea	 ecx, DWORD PTR _pszA$[ebp]
  00095	e8 00 00 00 00	 call	 ??B?$CTempBuffer@D$0IA@VCCRTAllocator@ATL@@@ATL@@QBEPADXZ ; ATL::CTempBuffer<char,128,ATL::CCRTAllocator>::operator char *
  0009a	50		 push	 eax
  0009b	8b 4d 14	 mov	 ecx, DWORD PTR _nLength$[ebp]
  0009e	51		 push	 ecx
  0009f	8b 55 10	 mov	 edx, DWORD PTR _pszSrc$[ebp]
  000a2	52		 push	 edx
  000a3	6a 00		 push	 0
  000a5	e8 00 00 00 00	 call	 ?_AtlGetConversionACP@ATL@@YGIXZ ; ATL::_AtlGetConversionACP
  000aa	50		 push	 eax
  000ab	ff 15 00 00 00
	00		 call	 DWORD PTR __imp__WideCharToMultiByte@32
  000b1	3b f4		 cmp	 esi, esp
  000b3	e8 00 00 00 00	 call	 __RTC_CheckEsp

; 231  : 
; 232  : 	if (nLength == -1)

  000b8	83 7d 14 ff	 cmp	 DWORD PTR _nLength$[ebp], -1
  000bc	75 07		 jne	 SHORT $L26381

; 233  : 		nLengthA = -1;

  000be	c7 45 ec ff ff
	ff ff		 mov	 DWORD PTR _nLengthA$[ebp], -1
$L26381:

; 234  : 
; 235  : 	return ::GetStringTypeExA(lcid, dwInfoType, pszA, nLengthA, pwCharType);

  000c5	8b f4		 mov	 esi, esp
  000c7	8b 45 18	 mov	 eax, DWORD PTR _pwCharType$[ebp]
  000ca	50		 push	 eax
  000cb	8b 4d ec	 mov	 ecx, DWORD PTR _nLengthA$[ebp]
  000ce	51		 push	 ecx
  000cf	8d 8d 64 ff ff
	ff		 lea	 ecx, DWORD PTR _pszA$[ebp]
  000d5	e8 00 00 00 00	 call	 ??B?$CTempBuffer@D$0IA@VCCRTAllocator@ATL@@@ATL@@QBEPADXZ ; ATL::CTempBuffer<char,128,ATL::CCRTAllocator>::operator char *
  000da	50		 push	 eax
  000db	8b 55 0c	 mov	 edx, DWORD PTR _dwInfoType$[ebp]
  000de	52		 push	 edx
  000df	8b 45 08	 mov	 eax, DWORD PTR _lcid$[ebp]
  000e2	50		 push	 eax
  000e3	ff 15 00 00 00
	00		 call	 DWORD PTR __imp__GetStringTypeExA@20
  000e9	3b f4		 cmp	 esi, esp
  000eb	e8 00 00 00 00	 call	 __RTC_CheckEsp
  000f0	89 85 5c ff ff
	ff		 mov	 DWORD PTR $T192371[ebp], eax
  000f6	c7 45 fc ff ff
	ff ff		 mov	 DWORD PTR __$EHRec$[ebp+8], -1
  000fd	8d 8d 64 ff ff
	ff		 lea	 ecx, DWORD PTR _pszA$[ebp]
  00103	e8 00 00 00 00	 call	 ??1?$CTempBuffer@D$0IA@VCCRTAllocator@ATL@@@ATL@@QAE@XZ ; ATL::CTempBuffer<char,128,ATL::CCRTAllocator>::~CTempBuffer<char,128,ATL::CCRTAllocator>
  00108	8b 85 5c ff ff
	ff		 mov	 eax, DWORD PTR $T192371[ebp]

; 236  : }

  0010e	52		 push	 edx
  0010f	8b cd		 mov	 ecx, ebp
  00111	50		 push	 eax
  00112	8d 15 00 00 00
	00		 lea	 edx, DWORD PTR $L192379
  00118	e8 00 00 00 00	 call	 @_RTC_CheckStackVars@8
  0011d	58		 pop	 eax
  0011e	5a		 pop	 edx
  0011f	8b 4d f4	 mov	 ecx, DWORD PTR __$EHRec$[ebp]
  00122	64 89 0d 00 00
	00 00		 mov	 DWORD PTR fs:__except_list, ecx
  00129	8b 4d f0	 mov	 ecx, DWORD PTR __$ArrayPad$[ebp]
  0012c	e8 00 00 00 00	 call	 @__security_check_cookie@4
  00131	5f		 pop	 edi
  00132	5e		 pop	 esi
  00133	81 c4 a4 00 00
	00		 add	 esp, 164		; 000000a4H
  00139	3b ec		 cmp	 ebp, esp
  0013b	e8 00 00 00 00	 call	 __RTC_CheckEsp
  00140	8b e5		 mov	 esp, ebp
  00142	5d		 pop	 ebp
  00143	c2 14 00	 ret	 20			; 00000014H
$L192379:
  00146	01 00 00 00	 DD	 1
  0014a	00 00 00 00	 DD	 $L192378
$L192378:
  0014e	64 ff ff ff	 DD	 -156			; ffffff64H
  00152	84 00 00 00	 DD	 132			; 00000084H
  00156	00 00 00 00	 DD	 $L192375
$L192375:
  0015a	70		 DB	 112			; 00000070H
  0015b	73		 DB	 115			; 00000073H
  0015c	7a		 DB	 122			; 0000007aH
  0015d	41		 DB	 65			; 00000041H
  0015e	00		 DB	 0
_TEXT	ENDS
;	COMDAT text$x
text$x	SEGMENT
$L192372:
  00000	8d 8d 64 ff ff
	ff		 lea	 ecx, DWORD PTR _pszA$[ebp]
  00006	e9 00 00 00 00	 jmp	 ??1?$CTempBuffer@D$0IA@VCCRTAllocator@ATL@@@ATL@@QAE@XZ ; ATL::CTempBuffer<char,128,ATL::CCRTAllocator>::~CTempBuffer<char,128,ATL::CCRTAllocator>
__ehhandler$?GetStringTypeExWFake@ATL@@YGHKKPB_WHPAG@Z:
  0000b	b8 00 00 00 00	 mov	 eax, OFFSET FLAT:$T192374
  00010	e9 00 00 00 00	 jmp	 ___CxxFrameHandler
text$x	ENDS
?GetStringTypeExWFake@ATL@@YGHKKPB_WHPAG@Z ENDP		; ATL::GetStringTypeExWFake
PUBLIC	?lstrcmpiWFake@ATL@@YGHPB_W0@Z			; ATL::lstrcmpiWFake
EXTRN	__imp__lstrcmpiW@8:NEAR
; Function compile flags: /Odt /RTCsu
;	COMDAT ?lstrcmpiWThunk@ATL@@YGHPB_W0@Z
_TEXT	SEGMENT
_psz1$ = 8						; size = 4
_psz2$ = 12						; size = 4
?lstrcmpiWThunk@ATL@@YGHPB_W0@Z PROC NEAR		; ATL::lstrcmpiWThunk, COMDAT

; 254  : {

  00000	55		 push	 ebp
  00001	8b ec		 mov	 ebp, esp
  00003	56		 push	 esi

; 255  : 	_AtlInstallStringThunk(reinterpret_cast<void**>(&_strthunks.pfnlstrcmpiW), lstrcmpiWFake, ::lstrcmpiW);

  00004	a1 00 00 00 00	 mov	 eax, DWORD PTR __imp__lstrcmpiW@8
  00009	50		 push	 eax
  0000a	68 00 00 00 00	 push	 OFFSET FLAT:?lstrcmpiWFake@ATL@@YGHPB_W0@Z ; ATL::lstrcmpiWFake
  0000f	68 08 00 00 00	 push	 OFFSET FLAT:?_strthunks@ATL@@3U_AtlStringThunks@1@A+8
  00014	e8 00 00 00 00	 call	 ?_AtlInstallStringThunk@ATL@@YAXPAPAXPAX1@Z ; ATL::_AtlInstallStringThunk
  00019	83 c4 0c	 add	 esp, 12			; 0000000cH

; 256  : 
; 257  : 	return _strthunks.pfnlstrcmpiW(psz1, psz2);

  0001c	8b f4		 mov	 esi, esp
  0001e	8b 4d 0c	 mov	 ecx, DWORD PTR _psz2$[ebp]
  00021	51		 push	 ecx
  00022	8b 55 08	 mov	 edx, DWORD PTR _psz1$[ebp]
  00025	52		 push	 edx
  00026	ff 15 08 00 00
	00		 call	 DWORD PTR ?_strthunks@ATL@@3U_AtlStringThunks@1@A+8
  0002c	3b f4		 cmp	 esi, esp
  0002e	e8 00 00 00 00	 call	 __RTC_CheckEsp

; 258  : }

  00033	5e		 pop	 esi
  00034	3b ec		 cmp	 ebp, esp
  00036	e8 00 00 00 00	 call	 __RTC_CheckEsp
  0003b	5d		 pop	 ebp
  0003c	c2 08 00	 ret	 8
?lstrcmpiWThunk@ATL@@YGHPB_W0@Z ENDP			; ATL::lstrcmpiWThunk
_TEXT	ENDS
EXTRN	__imp__lstrcmpiA@8:NEAR
; Function compile flags: /Odt /RTCsu
;	COMDAT ?lstrcmpiWFake@ATL@@YGHPB_W0@Z
_TEXT	SEGMENT
tv91 = -32						; size = 4
tv94 = -28						; size = 4
tv76 = -24						; size = 4
tv79 = -20						; size = 4
__lpa$ = -16						; size = 4
__lpw$ = -12						; size = 4
__acp$ = -8						; size = 4
__convert$ = -4						; size = 4
_psz1$ = 8						; size = 4
_psz2$ = 12						; size = 4
?lstrcmpiWFake@ATL@@YGHPB_W0@Z PROC NEAR		; ATL::lstrcmpiWFake, COMDAT

; 247  : {

  00000	55		 push	 ebp
  00001	8b ec		 mov	 ebp, esp
  00003	83 ec 20	 sub	 esp, 32			; 00000020H
  00006	56		 push	 esi
  00007	b8 cc cc cc cc	 mov	 eax, -858993460		; ccccccccH
  0000c	89 45 e0	 mov	 DWORD PTR [ebp-32], eax
  0000f	89 45 e4	 mov	 DWORD PTR [ebp-28], eax
  00012	89 45 e8	 mov	 DWORD PTR [ebp-24], eax
  00015	89 45 ec	 mov	 DWORD PTR [ebp-20], eax
  00018	89 45 f0	 mov	 DWORD PTR [ebp-16], eax
  0001b	89 45 f4	 mov	 DWORD PTR [ebp-12], eax
  0001e	89 45 f8	 mov	 DWORD PTR [ebp-8], eax
  00021	89 45 fc	 mov	 DWORD PTR [ebp-4], eax

; 248  : 	USES_CONVERSION;

  00024	c7 45 fc 00 00
	00 00		 mov	 DWORD PTR __convert$[ebp], 0
  0002b	e8 00 00 00 00	 call	 ?_AtlGetConversionACP@ATL@@YGIXZ ; ATL::_AtlGetConversionACP
  00030	89 45 f8	 mov	 DWORD PTR __acp$[ebp], eax
  00033	c7 45 f4 00 00
	00 00		 mov	 DWORD PTR __lpw$[ebp], 0
  0003a	c7 45 f0 00 00
	00 00		 mov	 DWORD PTR __lpa$[ebp], 0

; 249  : 
; 250  : 	return ::lstrcmpiA(W2A(psz1), W2A(psz2));

  00041	8b 45 0c	 mov	 eax, DWORD PTR _psz2$[ebp]
  00044	89 45 f4	 mov	 DWORD PTR __lpw$[ebp], eax
  00047	83 7d f4 00	 cmp	 DWORD PTR __lpw$[ebp], 0
  0004b	75 09		 jne	 SHORT $L192385
  0004d	c7 45 ec 00 00
	00 00		 mov	 DWORD PTR tv79[ebp], 0
  00054	eb 43		 jmp	 SHORT $L192386
$L192385:
  00056	8b f4		 mov	 esi, esp
  00058	8b 4d f4	 mov	 ecx, DWORD PTR __lpw$[ebp]
  0005b	51		 push	 ecx
  0005c	ff 15 00 00 00
	00		 call	 DWORD PTR __imp__lstrlenW@4
  00062	3b f4		 cmp	 esi, esp
  00064	e8 00 00 00 00	 call	 __RTC_CheckEsp
  00069	8d 54 00 02	 lea	 edx, DWORD PTR [eax+eax+2]
  0006d	89 55 fc	 mov	 DWORD PTR __convert$[ebp], edx
  00070	8b 45 fc	 mov	 eax, DWORD PTR __convert$[ebp]
  00073	83 c0 03	 add	 eax, 3
  00076	83 e0 fc	 and	 eax, -4			; fffffffcH
  00079	e8 00 00 00 00	 call	 __alloca_probe
  0007e	89 65 e8	 mov	 DWORD PTR tv76[ebp], esp
  00081	8b 45 f8	 mov	 eax, DWORD PTR __acp$[ebp]
  00084	50		 push	 eax
  00085	8b 4d fc	 mov	 ecx, DWORD PTR __convert$[ebp]
  00088	51		 push	 ecx
  00089	8b 55 f4	 mov	 edx, DWORD PTR __lpw$[ebp]
  0008c	52		 push	 edx
  0008d	8b 45 e8	 mov	 eax, DWORD PTR tv76[ebp]
  00090	50		 push	 eax
  00091	e8 00 00 00 00	 call	 ?AtlW2AHelper@@YGPADPADPB_WHI@Z ; AtlW2AHelper
  00096	89 45 ec	 mov	 DWORD PTR tv79[ebp], eax
$L192386:
  00099	8b 4d 08	 mov	 ecx, DWORD PTR _psz1$[ebp]
  0009c	89 4d f4	 mov	 DWORD PTR __lpw$[ebp], ecx
  0009f	83 7d f4 00	 cmp	 DWORD PTR __lpw$[ebp], 0
  000a3	75 09		 jne	 SHORT $L192387
  000a5	c7 45 e4 00 00
	00 00		 mov	 DWORD PTR tv94[ebp], 0
  000ac	eb 43		 jmp	 SHORT $L192388
$L192387:
  000ae	8b f4		 mov	 esi, esp
  000b0	8b 55 f4	 mov	 edx, DWORD PTR __lpw$[ebp]
  000b3	52		 push	 edx
  000b4	ff 15 00 00 00
	00		 call	 DWORD PTR __imp__lstrlenW@4
  000ba	3b f4		 cmp	 esi, esp
  000bc	e8 00 00 00 00	 call	 __RTC_CheckEsp
  000c1	8d 44 00 02	 lea	 eax, DWORD PTR [eax+eax+2]
  000c5	89 45 fc	 mov	 DWORD PTR __convert$[ebp], eax
  000c8	8b 45 fc	 mov	 eax, DWORD PTR __convert$[ebp]
  000cb	83 c0 03	 add	 eax, 3
  000ce	83 e0 fc	 and	 eax, -4			; fffffffcH
  000d1	e8 00 00 00 00	 call	 __alloca_probe
  000d6	89 65 e0	 mov	 DWORD PTR tv91[ebp], esp
  000d9	8b 4d f8	 mov	 ecx, DWORD PTR __acp$[ebp]
  000dc	51		 push	 ecx
  000dd	8b 55 fc	 mov	 edx, DWORD PTR __convert$[ebp]
  000e0	52		 push	 edx
  000e1	8b 45 f4	 mov	 eax, DWORD PTR __lpw$[ebp]
  000e4	50		 push	 eax
  000e5	8b 4d e0	 mov	 ecx, DWORD PTR tv91[ebp]
  000e8	51		 push	 ecx
  000e9	e8 00 00 00 00	 call	 ?AtlW2AHelper@@YGPADPADPB_WHI@Z ; AtlW2AHelper
  000ee	89 45 e4	 mov	 DWORD PTR tv94[ebp], eax
$L192388:
  000f1	8b f4		 mov	 esi, esp
  000f3	8b 55 ec	 mov	 edx, DWORD PTR tv79[ebp]
  000f6	52		 push	 edx
  000f7	8b 45 e4	 mov	 eax, DWORD PTR tv94[ebp]
  000fa	50		 push	 eax
  000fb	ff 15 00 00 00
	00		 call	 DWORD PTR __imp__lstrcmpiA@8
  00101	3b f4		 cmp	 esi, esp
  00103	e8 00 00 00 00	 call	 __RTC_CheckEsp

; 251  : }

  00108	8d 65 dc	 lea	 esp, DWORD PTR [ebp-36]
  0010b	5e		 pop	 esi
  0010c	8b e5		 mov	 esp, ebp
  0010e	5d		 pop	 ebp
  0010f	c2 08 00	 ret	 8
?lstrcmpiWFake@ATL@@YGHPB_W0@Z ENDP			; ATL::lstrcmpiWFake
_TEXT	ENDS
PUBLIC	?CharLowerWFake@ATL@@YGPA_WPA_W@Z		; ATL::CharLowerWFake
EXTRN	__imp__CharLowerW@4:NEAR
; Function compile flags: /Odt /RTCsu
;	COMDAT ?CharLowerWThunk@ATL@@YGPA_WPA_W@Z
_TEXT	SEGMENT
_psz$ = 8						; size = 4
?CharLowerWThunk@ATL@@YGPA_WPA_W@Z PROC NEAR		; ATL::CharLowerWThunk, COMDAT

; 273  : {

  00000	55		 push	 ebp
  00001	8b ec		 mov	 ebp, esp
  00003	56		 push	 esi

; 274  : 	_AtlInstallStringThunk(reinterpret_cast<void**>(&_strthunks.pfnCharLowerW), CharLowerWFake, ::CharLowerW);

  00004	a1 00 00 00 00	 mov	 eax, DWORD PTR __imp__CharLowerW@4
  00009	50		 push	 eax
  0000a	68 00 00 00 00	 push	 OFFSET FLAT:?CharLowerWFake@ATL@@YGPA_WPA_W@Z ; ATL::CharLowerWFake
  0000f	68 0c 00 00 00	 push	 OFFSET FLAT:?_strthunks@ATL@@3U_AtlStringThunks@1@A+12
  00014	e8 00 00 00 00	 call	 ?_AtlInstallStringThunk@ATL@@YAXPAPAXPAX1@Z ; ATL::_AtlInstallStringThunk
  00019	83 c4 0c	 add	 esp, 12			; 0000000cH

; 275  : 
; 276  : 	return _strthunks.pfnCharLowerW(psz);

  0001c	8b f4		 mov	 esi, esp
  0001e	8b 4d 08	 mov	 ecx, DWORD PTR _psz$[ebp]
  00021	51		 push	 ecx
  00022	ff 15 0c 00 00
	00		 call	 DWORD PTR ?_strthunks@ATL@@3U_AtlStringThunks@1@A+12
  00028	3b f4		 cmp	 esi, esp
  0002a	e8 00 00 00 00	 call	 __RTC_CheckEsp

; 277  : }

  0002f	5e		 pop	 esi
  00030	3b ec		 cmp	 ebp, esp
  00032	e8 00 00 00 00	 call	 __RTC_CheckEsp
  00037	5d		 pop	 ebp
  00038	c2 04 00	 ret	 4
?CharLowerWThunk@ATL@@YGPA_WPA_W@Z ENDP			; ATL::CharLowerWThunk
_TEXT	ENDS
PUBLIC	?AtlA2WHelper@@YGPA_WPA_WPBDHI@Z		; AtlA2WHelper
EXTRN	__imp__lstrlenA@4:NEAR
EXTRN	__imp__CharLowerA@4:NEAR
EXTRN	__imp__wcscpy:NEAR
; Function compile flags: /Odt /RTCsu
;	COMDAT ?CharLowerWFake@ATL@@YGPA_WPA_W@Z
_TEXT	SEGMENT
tv90 = -36						; size = 4
tv94 = -32						; size = 4
tv75 = -28						; size = 4
tv78 = -24						; size = 4
_pszA$ = -20						; size = 4
__lpa$ = -16						; size = 4
__lpw$ = -12						; size = 4
__acp$ = -8						; size = 4
__convert$ = -4						; size = 4
_psz$ = 8						; size = 4
?CharLowerWFake@ATL@@YGPA_WPA_W@Z PROC NEAR		; ATL::CharLowerWFake, COMDAT

; 261  : {

  00000	55		 push	 ebp
  00001	8b ec		 mov	 ebp, esp
  00003	83 ec 24	 sub	 esp, 36			; 00000024H
  00006	56		 push	 esi
  00007	b8 cc cc cc cc	 mov	 eax, -858993460		; ccccccccH
  0000c	89 45 dc	 mov	 DWORD PTR [ebp-36], eax
  0000f	89 45 e0	 mov	 DWORD PTR [ebp-32], eax
  00012	89 45 e4	 mov	 DWORD PTR [ebp-28], eax
  00015	89 45 e8	 mov	 DWORD PTR [ebp-24], eax
  00018	89 45 ec	 mov	 DWORD PTR [ebp-20], eax
  0001b	89 45 f0	 mov	 DWORD PTR [ebp-16], eax
  0001e	89 45 f4	 mov	 DWORD PTR [ebp-12], eax
  00021	89 45 f8	 mov	 DWORD PTR [ebp-8], eax
  00024	89 45 fc	 mov	 DWORD PTR [ebp-4], eax

; 262  : 	USES_CONVERSION;

  00027	c7 45 fc 00 00
	00 00		 mov	 DWORD PTR __convert$[ebp], 0
  0002e	e8 00 00 00 00	 call	 ?_AtlGetConversionACP@ATL@@YGIXZ ; ATL::_AtlGetConversionACP
  00033	89 45 f8	 mov	 DWORD PTR __acp$[ebp], eax
  00036	c7 45 f4 00 00
	00 00		 mov	 DWORD PTR __lpw$[ebp], 0
  0003d	c7 45 f0 00 00
	00 00		 mov	 DWORD PTR __lpa$[ebp], 0

; 263  : 	LPSTR pszA;
; 264  : 
; 265  : 	pszA = W2A(psz);

  00044	8b 45 08	 mov	 eax, DWORD PTR _psz$[ebp]
  00047	89 45 f4	 mov	 DWORD PTR __lpw$[ebp], eax
  0004a	83 7d f4 00	 cmp	 DWORD PTR __lpw$[ebp], 0
  0004e	75 09		 jne	 SHORT $L192391
  00050	c7 45 e8 00 00
	00 00		 mov	 DWORD PTR tv78[ebp], 0
  00057	eb 43		 jmp	 SHORT $L192392
$L192391:
  00059	8b f4		 mov	 esi, esp
  0005b	8b 4d f4	 mov	 ecx, DWORD PTR __lpw$[ebp]
  0005e	51		 push	 ecx
  0005f	ff 15 00 00 00
	00		 call	 DWORD PTR __imp__lstrlenW@4
  00065	3b f4		 cmp	 esi, esp
  00067	e8 00 00 00 00	 call	 __RTC_CheckEsp
  0006c	8d 54 00 02	 lea	 edx, DWORD PTR [eax+eax+2]
  00070	89 55 fc	 mov	 DWORD PTR __convert$[ebp], edx
  00073	8b 45 fc	 mov	 eax, DWORD PTR __convert$[ebp]
  00076	83 c0 03	 add	 eax, 3
  00079	83 e0 fc	 and	 eax, -4			; fffffffcH
  0007c	e8 00 00 00 00	 call	 __alloca_probe
  00081	89 65 e4	 mov	 DWORD PTR tv75[ebp], esp
  00084	8b 45 f8	 mov	 eax, DWORD PTR __acp$[ebp]
  00087	50		 push	 eax
  00088	8b 4d fc	 mov	 ecx, DWORD PTR __convert$[ebp]
  0008b	51		 push	 ecx
  0008c	8b 55 f4	 mov	 edx, DWORD PTR __lpw$[ebp]
  0008f	52		 push	 edx
  00090	8b 45 e4	 mov	 eax, DWORD PTR tv75[ebp]
  00093	50		 push	 eax
  00094	e8 00 00 00 00	 call	 ?AtlW2AHelper@@YGPADPADPB_WHI@Z ; AtlW2AHelper
  00099	89 45 e8	 mov	 DWORD PTR tv78[ebp], eax
$L192392:
  0009c	8b 4d e8	 mov	 ecx, DWORD PTR tv78[ebp]
  0009f	89 4d ec	 mov	 DWORD PTR _pszA$[ebp], ecx

; 266  : 	::CharLowerA(pszA);

  000a2	8b f4		 mov	 esi, esp
  000a4	8b 55 ec	 mov	 edx, DWORD PTR _pszA$[ebp]
  000a7	52		 push	 edx
  000a8	ff 15 00 00 00
	00		 call	 DWORD PTR __imp__CharLowerA@4
  000ae	3b f4		 cmp	 esi, esp
  000b0	e8 00 00 00 00	 call	 __RTC_CheckEsp

; 267  : 	wcscpy(psz, A2W(pszA));

  000b5	8b 45 ec	 mov	 eax, DWORD PTR _pszA$[ebp]
  000b8	89 45 f0	 mov	 DWORD PTR __lpa$[ebp], eax
  000bb	83 7d f0 00	 cmp	 DWORD PTR __lpa$[ebp], 0
  000bf	75 09		 jne	 SHORT $L192393
  000c1	c7 45 e0 00 00
	00 00		 mov	 DWORD PTR tv94[ebp], 0
  000c8	eb 44		 jmp	 SHORT $L192394
$L192393:
  000ca	8b f4		 mov	 esi, esp
  000cc	8b 4d f0	 mov	 ecx, DWORD PTR __lpa$[ebp]
  000cf	51		 push	 ecx
  000d0	ff 15 00 00 00
	00		 call	 DWORD PTR __imp__lstrlenA@4
  000d6	3b f4		 cmp	 esi, esp
  000d8	e8 00 00 00 00	 call	 __RTC_CheckEsp
  000dd	83 c0 01	 add	 eax, 1
  000e0	89 45 fc	 mov	 DWORD PTR __convert$[ebp], eax
  000e3	8b 45 fc	 mov	 eax, DWORD PTR __convert$[ebp]
  000e6	d1 e0		 shl	 eax, 1
  000e8	83 c0 03	 add	 eax, 3
  000eb	83 e0 fc	 and	 eax, -4			; fffffffcH
  000ee	e8 00 00 00 00	 call	 __alloca_probe
  000f3	89 65 dc	 mov	 DWORD PTR tv90[ebp], esp
  000f6	8b 55 f8	 mov	 edx, DWORD PTR __acp$[ebp]
  000f9	52		 push	 edx
  000fa	8b 45 fc	 mov	 eax, DWORD PTR __convert$[ebp]
  000fd	50		 push	 eax
  000fe	8b 4d f0	 mov	 ecx, DWORD PTR __lpa$[ebp]
  00101	51		 push	 ecx
  00102	8b 55 dc	 mov	 edx, DWORD PTR tv90[ebp]
  00105	52		 push	 edx
  00106	e8 00 00 00 00	 call	 ?AtlA2WHelper@@YGPA_WPA_WPBDHI@Z ; AtlA2WHelper
  0010b	89 45 e0	 mov	 DWORD PTR tv94[ebp], eax
$L192394:
  0010e	8b f4		 mov	 esi, esp
  00110	8b 45 e0	 mov	 eax, DWORD PTR tv94[ebp]
  00113	50		 push	 eax
  00114	8b 4d 08	 mov	 ecx, DWORD PTR _psz$[ebp]
  00117	51		 push	 ecx
  00118	ff 15 00 00 00
	00		 call	 DWORD PTR __imp__wcscpy
  0011e	83 c4 08	 add	 esp, 8
  00121	3b f4		 cmp	 esi, esp
  00123	e8 00 00 00 00	 call	 __RTC_CheckEsp

; 268  : 
; 269  : 	return psz;

  00128	8b 45 08	 mov	 eax, DWORD PTR _psz$[ebp]

; 270  : }

  0012b	8d 65 d8	 lea	 esp, DWORD PTR [ebp-40]
  0012e	5e		 pop	 esi
  0012f	8b e5		 mov	 esp, ebp
  00131	5d		 pop	 ebp
  00132	c2 04 00	 ret	 4
?CharLowerWFake@ATL@@YGPA_WPA_W@Z ENDP			; ATL::CharLowerWFake
; Function compile flags: /Odt /RTCsu
; File d:\program files (x86)\microsoft visual studio .net 2003\vc7\atlmfc\include\atlconv.h
_TEXT	ENDS
;	COMDAT ?AtlA2WHelper@@YGPA_WPA_WPBDHI@Z
_TEXT	SEGMENT
_ret$ = -4						; size = 4
_lpw$ = 8						; size = 4
_lpa$ = 12						; size = 4
_nChars$ = 16						; size = 4
_acp$ = 20						; size = 4
?AtlA2WHelper@@YGPA_WPA_WPBDHI@Z PROC NEAR		; AtlA2WHelper, COMDAT

; 554  : {

  00000	55		 push	 ebp
  00001	8b ec		 mov	 ebp, esp
  00003	51		 push	 ecx
  00004	56		 push	 esi
  00005	c7 45 fc cc cc
	cc cc		 mov	 DWORD PTR [ebp-4], -858993460 ; ccccccccH

; 555  : 	ATLASSERT(lpa != NULL);

  0000c	83 7d 0c 00	 cmp	 DWORD PTR _lpa$[ebp], 0
  00010	75 2b		 jne	 SHORT $L192396
  00012	8b f4		 mov	 esi, esp
  00014	68 00 00 00 00	 push	 OFFSET FLAT:??_C@_08DMHHBMMN@lpa?5?$CB?$DN?50?$AA@
  00019	6a 00		 push	 0
  0001b	68 2b 02 00 00	 push	 555			; 0000022bH
  00020	68 00 00 00 00	 push	 OFFSET FLAT:??_C@_0FG@PFHCBDBK@D?3?2Program?5Files?5?$CIx86?$CJ?2Microsoft@
  00025	6a 02		 push	 2
  00027	ff 15 00 00 00
	00		 call	 DWORD PTR __imp___CrtDbgReport
  0002d	83 c4 14	 add	 esp, 20			; 00000014H
  00030	3b f4		 cmp	 esi, esp
  00032	e8 00 00 00 00	 call	 __RTC_CheckEsp
  00037	83 f8 01	 cmp	 eax, 1
  0003a	75 01		 jne	 SHORT $L192396
  0003c	cc		 int	 3
$L192396:

; 556  : 	ATLASSERT(lpw != NULL);

  0003d	83 7d 08 00	 cmp	 DWORD PTR _lpw$[ebp], 0
  00041	75 2b		 jne	 SHORT $L192397
  00043	8b f4		 mov	 esi, esp
  00045	68 00 00 00 00	 push	 OFFSET FLAT:??_C@_08DIHJLFDJ@lpw?5?$CB?$DN?50?$AA@
  0004a	6a 00		 push	 0
  0004c	68 2c 02 00 00	 push	 556			; 0000022cH
  00051	68 00 00 00 00	 push	 OFFSET FLAT:??_C@_0FG@PFHCBDBK@D?3?2Program?5Files?5?$CIx86?$CJ?2Microsoft@
  00056	6a 02		 push	 2
  00058	ff 15 00 00 00
	00		 call	 DWORD PTR __imp___CrtDbgReport
  0005e	83 c4 14	 add	 esp, 20			; 00000014H
  00061	3b f4		 cmp	 esi, esp
  00063	e8 00 00 00 00	 call	 __RTC_CheckEsp
  00068	83 f8 01	 cmp	 eax, 1
  0006b	75 01		 jne	 SHORT $L192397
  0006d	cc		 int	 3
$L192397:

; 557  : 	if (lpw == NULL || lpa == NULL)

  0006e	83 7d 08 00	 cmp	 DWORD PTR _lpw$[ebp], 0
  00072	74 06		 je	 SHORT $L24299
  00074	83 7d 0c 00	 cmp	 DWORD PTR _lpa$[ebp], 0
  00078	75 04		 jne	 SHORT $L24298
$L24299:

; 558  : 		return NULL;

  0007a	33 c0		 xor	 eax, eax
  0007c	eb 6a		 jmp	 SHORT $L24292
$L24298:

; 559  : 	// verify that no illegal character present
; 560  : 	// since lpw was allocated based on the size of lpa
; 561  : 	// don't worry about the number of chars
; 562  : 	lpw[0] = '\0';

  0007e	8b 55 08	 mov	 edx, DWORD PTR _lpw$[ebp]
  00081	66 c7 02 00 00	 mov	 WORD PTR [edx], 0

; 563  : 	int ret = MultiByteToWideChar(acp, 0, lpa, -1, lpw, nChars);

  00086	8b f4		 mov	 esi, esp
  00088	8b 45 10	 mov	 eax, DWORD PTR _nChars$[ebp]
  0008b	50		 push	 eax
  0008c	8b 4d 08	 mov	 ecx, DWORD PTR _lpw$[ebp]
  0008f	51		 push	 ecx
  00090	6a ff		 push	 -1
  00092	8b 55 0c	 mov	 edx, DWORD PTR _lpa$[ebp]
  00095	52		 push	 edx
  00096	6a 00		 push	 0
  00098	8b 45 14	 mov	 eax, DWORD PTR _acp$[ebp]
  0009b	50		 push	 eax
  0009c	ff 15 00 00 00
	00		 call	 DWORD PTR __imp__MultiByteToWideChar@24
  000a2	3b f4		 cmp	 esi, esp
  000a4	e8 00 00 00 00	 call	 __RTC_CheckEsp
  000a9	89 45 fc	 mov	 DWORD PTR _ret$[ebp], eax

; 564  : 	if(ret == 0)

  000ac	83 7d fc 00	 cmp	 DWORD PTR _ret$[ebp], 0
  000b0	75 33		 jne	 SHORT $L24301

; 565  : 	{
; 566  : 		ATLASSERT(FALSE);

  000b2	33 c9		 xor	 ecx, ecx
  000b4	75 2b		 jne	 SHORT $L192398
  000b6	8b f4		 mov	 esi, esp
  000b8	68 00 00 00 00	 push	 OFFSET FLAT:??_C@_01GBGANLPD@0?$AA@
  000bd	6a 00		 push	 0
  000bf	68 36 02 00 00	 push	 566			; 00000236H
  000c4	68 00 00 00 00	 push	 OFFSET FLAT:??_C@_0FG@PFHCBDBK@D?3?2Program?5Files?5?$CIx86?$CJ?2Microsoft@
  000c9	6a 02		 push	 2
  000cb	ff 15 00 00 00
	00		 call	 DWORD PTR __imp___CrtDbgReport
  000d1	83 c4 14	 add	 esp, 20			; 00000014H
  000d4	3b f4		 cmp	 esi, esp
  000d6	e8 00 00 00 00	 call	 __RTC_CheckEsp
  000db	83 f8 01	 cmp	 eax, 1
  000de	75 01		 jne	 SHORT $L192398
  000e0	cc		 int	 3
$L192398:

; 567  : 		return NULL;

  000e1	33 c0		 xor	 eax, eax
  000e3	eb 03		 jmp	 SHORT $L24292
$L24301:

; 568  : 	}		
; 569  : 	return lpw;

  000e5	8b 45 08	 mov	 eax, DWORD PTR _lpw$[ebp]
$L24292:

; 570  : }

  000e8	5e		 pop	 esi
  000e9	83 c4 04	 add	 esp, 4
  000ec	3b ec		 cmp	 ebp, esp
  000ee	e8 00 00 00 00	 call	 __RTC_CheckEsp
  000f3	8b e5		 mov	 esp, ebp
  000f5	5d		 pop	 ebp
  000f6	c2 10 00	 ret	 16			; 00000010H
?AtlA2WHelper@@YGPA_WPA_WPBDHI@Z ENDP			; AtlA2WHelper
_TEXT	ENDS
PUBLIC	?CharUpperWFake@ATL@@YGPA_WPA_W@Z		; ATL::CharUpperWFake
EXTRN	__imp__CharUpperW@4:NEAR
; Function compile flags: /Odt /RTCsu
; File d:\program files (x86)\microsoft visual studio .net 2003\vc7\atlmfc\include\cstringt.h
;	COMDAT ?CharUpperWThunk@ATL@@YGPA_WPA_W@Z
_TEXT	SEGMENT
_psz$ = 8						; size = 4
?CharUpperWThunk@ATL@@YGPA_WPA_W@Z PROC NEAR		; ATL::CharUpperWThunk, COMDAT

; 292  : {

  00000	55		 push	 ebp
  00001	8b ec		 mov	 ebp, esp
  00003	56		 push	 esi

; 293  : 	_AtlInstallStringThunk(reinterpret_cast<void**>(&_strthunks.pfnCharUpperW), CharUpperWFake, ::CharUpperW);

  00004	a1 00 00 00 00	 mov	 eax, DWORD PTR __imp__CharUpperW@4
  00009	50		 push	 eax
  0000a	68 00 00 00 00	 push	 OFFSET FLAT:?CharUpperWFake@ATL@@YGPA_WPA_W@Z ; ATL::CharUpperWFake
  0000f	68 10 00 00 00	 push	 OFFSET FLAT:?_strthunks@ATL@@3U_AtlStringThunks@1@A+16
  00014	e8 00 00 00 00	 call	 ?_AtlInstallStringThunk@ATL@@YAXPAPAXPAX1@Z ; ATL::_AtlInstallStringThunk
  00019	83 c4 0c	 add	 esp, 12			; 0000000cH

; 294  : 
; 295  : 	return _strthunks.pfnCharUpperW(psz);

  0001c	8b f4		 mov	 esi, esp
  0001e	8b 4d 08	 mov	 ecx, DWORD PTR _psz$[ebp]
  00021	51		 push	 ecx
  00022	ff 15 10 00 00
	00		 call	 DWORD PTR ?_strthunks@ATL@@3U_AtlStringThunks@1@A+16
  00028	3b f4		 cmp	 esi, esp
  0002a	e8 00 00 00 00	 call	 __RTC_CheckEsp

; 296  : }

  0002f	5e		 pop	 esi
  00030	3b ec		 cmp	 ebp, esp
  00032	e8 00 00 00 00	 call	 __RTC_CheckEsp
  00037	5d		 pop	 ebp
  00038	c2 04 00	 ret	 4
?CharUpperWThunk@ATL@@YGPA_WPA_W@Z ENDP			; ATL::CharUpperWThunk
_TEXT	ENDS
EXTRN	__imp__CharUpperA@4:NEAR
; Function compile flags: /Odt /RTCsu
;	COMDAT ?CharUpperWFake@ATL@@YGPA_WPA_W@Z
_TEXT	SEGMENT
tv90 = -36						; size = 4
tv94 = -32						; size = 4
tv75 = -28						; size = 4
tv78 = -24						; size = 4
_pszA$ = -20						; size = 4
__lpa$ = -16						; size = 4
__lpw$ = -12						; size = 4
__acp$ = -8						; size = 4
__convert$ = -4						; size = 4
_psz$ = 8						; size = 4
?CharUpperWFake@ATL@@YGPA_WPA_W@Z PROC NEAR		; ATL::CharUpperWFake, COMDAT

; 280  : {

  00000	55		 push	 ebp
  00001	8b ec		 mov	 ebp, esp
  00003	83 ec 24	 sub	 esp, 36			; 00000024H
  00006	56		 push	 esi
  00007	b8 cc cc cc cc	 mov	 eax, -858993460		; ccccccccH
  0000c	89 45 dc	 mov	 DWORD PTR [ebp-36], eax
  0000f	89 45 e0	 mov	 DWORD PTR [ebp-32], eax
  00012	89 45 e4	 mov	 DWORD PTR [ebp-28], eax
  00015	89 45 e8	 mov	 DWORD PTR [ebp-24], eax
  00018	89 45 ec	 mov	 DWORD PTR [ebp-20], eax
  0001b	89 45 f0	 mov	 DWORD PTR [ebp-16], eax
  0001e	89 45 f4	 mov	 DWORD PTR [ebp-12], eax
  00021	89 45 f8	 mov	 DWORD PTR [ebp-8], eax
  00024	89 45 fc	 mov	 DWORD PTR [ebp-4], eax

; 281  : 	USES_CONVERSION;

  00027	c7 45 fc 00 00
	00 00		 mov	 DWORD PTR __convert$[ebp], 0
  0002e	e8 00 00 00 00	 call	 ?_AtlGetConversionACP@ATL@@YGIXZ ; ATL::_AtlGetConversionACP
  00033	89 45 f8	 mov	 DWORD PTR __acp$[ebp], eax
  00036	c7 45 f4 00 00
	00 00		 mov	 DWORD PTR __lpw$[ebp], 0
  0003d	c7 45 f0 00 00
	00 00		 mov	 DWORD PTR __lpa$[ebp], 0

; 282  : 	LPSTR pszA;
; 283  : 
; 284  : 	pszA = W2A(psz);

  00044	8b 45 08	 mov	 eax, DWORD PTR _psz$[ebp]
  00047	89 45 f4	 mov	 DWORD PTR __lpw$[ebp], eax
  0004a	83 7d f4 00	 cmp	 DWORD PTR __lpw$[ebp], 0
  0004e	75 09		 jne	 SHORT $L192401
  00050	c7 45 e8 00 00
	00 00		 mov	 DWORD PTR tv78[ebp], 0
  00057	eb 43		 jmp	 SHORT $L192402
$L192401:
  00059	8b f4		 mov	 esi, esp
  0005b	8b 4d f4	 mov	 ecx, DWORD PTR __lpw$[ebp]
  0005e	51		 push	 ecx
  0005f	ff 15 00 00 00
	00		 call	 DWORD PTR __imp__lstrlenW@4
  00065	3b f4		 cmp	 esi, esp
  00067	e8 00 00 00 00	 call	 __RTC_CheckEsp
  0006c	8d 54 00 02	 lea	 edx, DWORD PTR [eax+eax+2]
  00070	89 55 fc	 mov	 DWORD PTR __convert$[ebp], edx
  00073	8b 45 fc	 mov	 eax, DWORD PTR __convert$[ebp]
  00076	83 c0 03	 add	 eax, 3
  00079	83 e0 fc	 and	 eax, -4			; fffffffcH
  0007c	e8 00 00 00 00	 call	 __alloca_probe
  00081	89 65 e4	 mov	 DWORD PTR tv75[ebp], esp
  00084	8b 45 f8	 mov	 eax, DWORD PTR __acp$[ebp]
  00087	50		 push	 eax
  00088	8b 4d fc	 mov	 ecx, DWORD PTR __convert$[ebp]
  0008b	51		 push	 ecx
  0008c	8b 55 f4	 mov	 edx, DWORD PTR __lpw$[ebp]
  0008f	52		 push	 edx
  00090	8b 45 e4	 mov	 eax, DWORD PTR tv75[ebp]
  00093	50		 push	 eax
  00094	e8 00 00 00 00	 call	 ?AtlW2AHelper@@YGPADPADPB_WHI@Z ; AtlW2AHelper
  00099	89 45 e8	 mov	 DWORD PTR tv78[ebp], eax
$L192402:
  0009c	8b 4d e8	 mov	 ecx, DWORD PTR tv78[ebp]
  0009f	89 4d ec	 mov	 DWORD PTR _pszA$[ebp], ecx

; 285  : 	::CharUpperA(pszA);

  000a2	8b f4		 mov	 esi, esp
  000a4	8b 55 ec	 mov	 edx, DWORD PTR _pszA$[ebp]
  000a7	52		 push	 edx
  000a8	ff 15 00 00 00
	00		 call	 DWORD PTR __imp__CharUpperA@4
  000ae	3b f4		 cmp	 esi, esp
  000b0	e8 00 00 00 00	 call	 __RTC_CheckEsp

; 286  : 	wcscpy(psz, A2W(pszA));

  000b5	8b 45 ec	 mov	 eax, DWORD PTR _pszA$[ebp]
  000b8	89 45 f0	 mov	 DWORD PTR __lpa$[ebp], eax
  000bb	83 7d f0 00	 cmp	 DWORD PTR __lpa$[ebp], 0
  000bf	75 09		 jne	 SHORT $L192403
  000c1	c7 45 e0 00 00
	00 00		 mov	 DWORD PTR tv94[ebp], 0
  000c8	eb 44		 jmp	 SHORT $L192404
$L192403:
  000ca	8b f4		 mov	 esi, esp
  000cc	8b 4d f0	 mov	 ecx, DWORD PTR __lpa$[ebp]
  000cf	51		 push	 ecx
  000d0	ff 15 00 00 00
	00		 call	 DWORD PTR __imp__lstrlenA@4
  000d6	3b f4		 cmp	 esi, esp
  000d8	e8 00 00 00 00	 call	 __RTC_CheckEsp
  000dd	83 c0 01	 add	 eax, 1
  000e0	89 45 fc	 mov	 DWORD PTR __convert$[ebp], eax
  000e3	8b 45 fc	 mov	 eax, DWORD PTR __convert$[ebp]
  000e6	d1 e0		 shl	 eax, 1
  000e8	83 c0 03	 add	 eax, 3
  000eb	83 e0 fc	 and	 eax, -4			; fffffffcH
  000ee	e8 00 00 00 00	 call	 __alloca_probe
  000f3	89 65 dc	 mov	 DWORD PTR tv90[ebp], esp
  000f6	8b 55 f8	 mov	 edx, DWORD PTR __acp$[ebp]
  000f9	52		 push	 edx
  000fa	8b 45 fc	 mov	 eax, DWORD PTR __convert$[ebp]
  000fd	50		 push	 eax
  000fe	8b 4d f0	 mov	 ecx, DWORD PTR __lpa$[ebp]
  00101	51		 push	 ecx
  00102	8b 55 dc	 mov	 edx, DWORD PTR tv90[ebp]
  00105	52		 push	 edx
  00106	e8 00 00 00 00	 call	 ?AtlA2WHelper@@YGPA_WPA_WPBDHI@Z ; AtlA2WHelper
  0010b	89 45 e0	 mov	 DWORD PTR tv94[ebp], eax
$L192404:
  0010e	8b f4		 mov	 esi, esp
  00110	8b 45 e0	 mov	 eax, DWORD PTR tv94[ebp]
  00113	50		 push	 eax
  00114	8b 4d 08	 mov	 ecx, DWORD PTR _psz$[ebp]
  00117	51		 push	 ecx
  00118	ff 15 00 00 00
	00		 call	 DWORD PTR __imp__wcscpy
  0011e	83 c4 08	 add	 esp, 8
  00121	3b f4		 cmp	 esi, esp
  00123	e8 00 00 00 00	 call	 __RTC_CheckEsp

; 287  : 
; 288  : 	return psz;

  00128	8b 45 08	 mov	 eax, DWORD PTR _psz$[ebp]

; 289  : }

  0012b	8d 65 d8	 lea	 esp, DWORD PTR [ebp-40]
  0012e	5e		 pop	 esi
  0012f	8b e5		 mov	 esp, ebp
  00131	5d		 pop	 ebp
  00132	c2 04 00	 ret	 4
?CharUpperWFake@ATL@@YGPA_WPA_W@Z ENDP			; ATL::CharUpperWFake
; Function compile flags: /Odt /RTCsu
; File d:\boxgit\playbox\playbox\dev\prj\playbox\src\core\imessageobserver.h
_TEXT	ENDS
;	COMDAT ??1IMessageObserver@@UAE@XZ
_TEXT	SEGMENT
_this$ = -4						; size = 4
??1IMessageObserver@@UAE@XZ PROC NEAR			; IMessageObserver::~IMessageObserver, COMDAT
; _this$ = ecx

; 16   : 	virtual ~IMessageObserver(){};

  00000	55		 push	 ebp
  00001	8b ec		 mov	 ebp, esp
  00003	51		 push	 ecx
  00004	c7 45 fc cc cc
	cc cc		 mov	 DWORD PTR [ebp-4], -858993460 ; ccccccccH
  0000b	89 4d fc	 mov	 DWORD PTR _this$[ebp], ecx
  0000e	8b 45 fc	 mov	 eax, DWORD PTR _this$[ebp]
  00011	c7 00 00 00 00
	00		 mov	 DWORD PTR [eax], OFFSET FLAT:??_7IMessageObserver@@6B@
  00017	8b e5		 mov	 esp, ebp
  00019	5d		 pop	 ebp
  0001a	c3		 ret	 0
??1IMessageObserver@@UAE@XZ ENDP			; IMessageObserver::~IMessageObserver
; Function compile flags: /Odt /RTCsu
_TEXT	ENDS
;	COMDAT ??_GIMessageObserver@@UAEPAXI@Z
_TEXT	SEGMENT
_this$ = -4						; size = 4
___flags$ = 8						; size = 4
??_GIMessageObserver@@UAEPAXI@Z PROC NEAR		; IMessageObserver::`scalar deleting destructor', COMDAT
; _this$ = ecx
  00000	55		 push	 ebp
  00001	8b ec		 mov	 ebp, esp
  00003	51		 push	 ecx
  00004	c7 45 fc cc cc
	cc cc		 mov	 DWORD PTR [ebp-4], -858993460 ; ccccccccH
  0000b	89 4d fc	 mov	 DWORD PTR _this$[ebp], ecx
  0000e	8b 4d fc	 mov	 ecx, DWORD PTR _this$[ebp]
  00011	e8 00 00 00 00	 call	 ??1IMessageObserver@@UAE@XZ ; IMessageObserver::~IMessageObserver
  00016	8b 45 08	 mov	 eax, DWORD PTR ___flags$[ebp]
  00019	83 e0 01	 and	 eax, 1
  0001c	74 0c		 je	 SHORT $L99513
  0001e	8b 4d fc	 mov	 ecx, DWORD PTR _this$[ebp]
  00021	51		 push	 ecx
  00022	e8 00 00 00 00	 call	 ??3@YAXPAX@Z		; operator delete
  00027	83 c4 04	 add	 esp, 4
$L99513:
  0002a	8b 45 fc	 mov	 eax, DWORD PTR _this$[ebp]
  0002d	83 c4 04	 add	 esp, 4
  00030	3b ec		 cmp	 ebp, esp
  00032	e8 00 00 00 00	 call	 __RTC_CheckEsp
  00037	8b e5		 mov	 esp, ebp
  00039	5d		 pop	 ebp
  0003a	c2 04 00	 ret	 4
??_GIMessageObserver@@UAEPAXI@Z ENDP			; IMessageObserver::`scalar deleting destructor'
; Function compile flags: /Odt /RTCsu
; File d:\program files (x86)\microsoft visual studio .net 2003\vc7\atlmfc\include\atlalloc.h
_TEXT	ENDS
;	COMDAT ??0?$CAtlSafeAllocBufferManager@VCCRTAllocator@ATL@@@_ATL_SAFE_ALLOCA_IMPL@ATL@@QAE@XZ
_TEXT	SEGMENT
_this$ = -4						; size = 4
??0?$CAtlSafeAllocBufferManager@VCCRTAllocator@ATL@@@_ATL_SAFE_ALLOCA_IMPL@ATL@@QAE@XZ PROC NEAR ; ATL::_ATL_SAFE_ALLOCA_IMPL::CAtlSafeAllocBufferManager<ATL::CCRTAllocator>::CAtlSafeAllocBufferManager<ATL::CCRTAllocator>, COMDAT
; _this$ = ecx

; 373  : 	CAtlSafeAllocBufferManager() : m_pHead(NULL) {};

  00000	55		 push	 ebp
  00001	8b ec		 mov	 ebp, esp
  00003	51		 push	 ecx
  00004	c7 45 fc cc cc
	cc cc		 mov	 DWORD PTR [ebp-4], -858993460 ; ccccccccH
  0000b	89 4d fc	 mov	 DWORD PTR _this$[ebp], ecx
  0000e	8b 45 fc	 mov	 eax, DWORD PTR _this$[ebp]
  00011	c7 00 00 00 00
	00		 mov	 DWORD PTR [eax], 0
  00017	8b 45 fc	 mov	 eax, DWORD PTR _this$[ebp]
  0001a	8b e5		 mov	 esp, ebp
  0001c	5d		 pop	 ebp
  0001d	c3		 ret	 0
??0?$CAtlSafeAllocBufferManager@VCCRTAllocator@ATL@@@_ATL_SAFE_ALLOCA_IMPL@ATL@@QAE@XZ ENDP ; ATL::_ATL_SAFE_ALLOCA_IMPL::CAtlSafeAllocBufferManager<ATL::CCRTAllocator>::CAtlSafeAllocBufferManager<ATL::CCRTAllocator>
_TEXT	ENDS
PUBLIC	?GetData@CAtlSafeAllocBufferNode@?$CAtlSafeAllocBufferManager@VCCRTAllocator@ATL@@@_ATL_SAFE_ALLOCA_IMPL@ATL@@QAEPAXXZ ; ATL::_ATL_SAFE_ALLOCA_IMPL::CAtlSafeAllocBufferManager<ATL::CCRTAllocator>::CAtlSafeAllocBufferNode::GetData
PUBLIC	?Allocate@CCRTAllocator@ATL@@SAPAXI@Z		; ATL::CCRTAllocator::Allocate
; Function compile flags: /Odt /RTCsu
;	COMDAT ?Allocate@?$CAtlSafeAllocBufferManager@VCCRTAllocator@ATL@@@_ATL_SAFE_ALLOCA_IMPL@ATL@@QAEPAXK@Z
_TEXT	SEGMENT
_p$ = -8						; size = 4
_this$ = -4						; size = 4
_nRequestedSize$ = 8					; size = 4
?Allocate@?$CAtlSafeAllocBufferManager@VCCRTAllocator@ATL@@@_ATL_SAFE_ALLOCA_IMPL@ATL@@QAEPAXK@Z PROC NEAR ; ATL::_ATL_SAFE_ALLOCA_IMPL::CAtlSafeAllocBufferManager<ATL::CCRTAllocator>::Allocate, COMDAT
; _this$ = ecx

; 375  : 	{

  00000	55		 push	 ebp
  00001	8b ec		 mov	 ebp, esp
  00003	83 ec 08	 sub	 esp, 8
  00006	c7 45 f8 cc cc
	cc cc		 mov	 DWORD PTR [ebp-8], -858993460 ; ccccccccH
  0000d	c7 45 fc cc cc
	cc cc		 mov	 DWORD PTR [ebp-4], -858993460 ; ccccccccH
  00014	89 4d fc	 mov	 DWORD PTR _this$[ebp], ecx

; 376  : 		CAtlSafeAllocBufferNode *p = (CAtlSafeAllocBufferNode*)Allocator::Allocate(nRequestedSize + sizeof(CAtlSafeAllocBufferNode));

  00017	8b 45 08	 mov	 eax, DWORD PTR _nRequestedSize$[ebp]
  0001a	83 c0 08	 add	 eax, 8
  0001d	50		 push	 eax
  0001e	e8 00 00 00 00	 call	 ?Allocate@CCRTAllocator@ATL@@SAPAXI@Z ; ATL::CCRTAllocator::Allocate
  00023	83 c4 04	 add	 esp, 4
  00026	89 45 f8	 mov	 DWORD PTR _p$[ebp], eax

; 377  : 		if (p == NULL)

  00029	83 7d f8 00	 cmp	 DWORD PTR _p$[ebp], 0
  0002d	75 04		 jne	 SHORT $L181568

; 378  : 			return NULL;

  0002f	33 c0		 xor	 eax, eax
  00031	eb 1a		 jmp	 SHORT $L181555
$L181568:

; 379  : 		
; 380  : 		// Add buffer to the list
; 381  : 		p->m_pNext = m_pHead;

  00033	8b 4d f8	 mov	 ecx, DWORD PTR _p$[ebp]
  00036	8b 55 fc	 mov	 edx, DWORD PTR _this$[ebp]
  00039	8b 02		 mov	 eax, DWORD PTR [edx]
  0003b	89 01		 mov	 DWORD PTR [ecx], eax

; 382  : 		m_pHead = p;

  0003d	8b 4d fc	 mov	 ecx, DWORD PTR _this$[ebp]
  00040	8b 55 f8	 mov	 edx, DWORD PTR _p$[ebp]
  00043	89 11		 mov	 DWORD PTR [ecx], edx

; 383  : 		
; 384  : 		return p->GetData();

  00045	8b 4d f8	 mov	 ecx, DWORD PTR _p$[ebp]
  00048	e8 00 00 00 00	 call	 ?GetData@CAtlSafeAllocBufferNode@?$CAtlSafeAllocBufferManager@VCCRTAllocator@ATL@@@_ATL_SAFE_ALLOCA_IMPL@ATL@@QAEPAXXZ ; ATL::_ATL_SAFE_ALLOCA_IMPL::CAtlSafeAllocBufferManager<ATL::CCRTAllocator>::CAtlSafeAllocBufferNode::GetData
$L181555:

; 385  : 	}

  0004d	83 c4 08	 add	 esp, 8
  00050	3b ec		 cmp	 ebp, esp
  00052	e8 00 00 00 00	 call	 __RTC_CheckEsp
  00057	8b e5		 mov	 esp, ebp
  00059	5d		 pop	 ebp
  0005a	c2 04 00	 ret	 4
?Allocate@?$CAtlSafeAllocBufferManager@VCCRTAllocator@ATL@@@_ATL_SAFE_ALLOCA_IMPL@ATL@@QAEPAXK@Z ENDP ; ATL::_ATL_SAFE_ALLOCA_IMPL::CAtlSafeAllocBufferManager<ATL::CCRTAllocator>::Allocate
_TEXT	ENDS
EXTRN	__imp__malloc:NEAR
; Function compile flags: /Odt /RTCsu
;	COMDAT ?Allocate@CCRTAllocator@ATL@@SAPAXI@Z
_TEXT	SEGMENT
_nBytes$ = 8						; size = 4
?Allocate@CCRTAllocator@ATL@@SAPAXI@Z PROC NEAR		; ATL::CCRTAllocator::Allocate, COMDAT

; 30   : 	{

  00000	55		 push	 ebp
  00001	8b ec		 mov	 ebp, esp
  00003	56		 push	 esi

; 31   : 		return malloc(nBytes);

  00004	8b f4		 mov	 esi, esp
  00006	8b 45 08	 mov	 eax, DWORD PTR _nBytes$[ebp]
  00009	50		 push	 eax
  0000a	ff 15 00 00 00
	00		 call	 DWORD PTR __imp__malloc
  00010	83 c4 04	 add	 esp, 4
  00013	3b f4		 cmp	 esi, esp
  00015	e8 00 00 00 00	 call	 __RTC_CheckEsp

; 32   : 	}

  0001a	5e		 pop	 esi
  0001b	3b ec		 cmp	 ebp, esp
  0001d	e8 00 00 00 00	 call	 __RTC_CheckEsp
  00022	5d		 pop	 ebp
  00023	c3		 ret	 0
?Allocate@CCRTAllocator@ATL@@SAPAXI@Z ENDP		; ATL::CCRTAllocator::Allocate
_TEXT	ENDS
PUBLIC	?Free@CCRTAllocator@ATL@@SAXPAX@Z		; ATL::CCRTAllocator::Free
; Function compile flags: /Odt /RTCsu
;	COMDAT ??1?$CAtlSafeAllocBufferManager@VCCRTAllocator@ATL@@@_ATL_SAFE_ALLOCA_IMPL@ATL@@QAE@XZ
_TEXT	SEGMENT
_p$181574 = -8						; size = 4
_this$ = -4						; size = 4
??1?$CAtlSafeAllocBufferManager@VCCRTAllocator@ATL@@@_ATL_SAFE_ALLOCA_IMPL@ATL@@QAE@XZ PROC NEAR ; ATL::_ATL_SAFE_ALLOCA_IMPL::CAtlSafeAllocBufferManager<ATL::CCRTAllocator>::~CAtlSafeAllocBufferManager<ATL::CCRTAllocator>, COMDAT
; _this$ = ecx

; 387  : 	{

  00000	55		 push	 ebp
  00001	8b ec		 mov	 ebp, esp
  00003	83 ec 08	 sub	 esp, 8
  00006	c7 45 f8 cc cc
	cc cc		 mov	 DWORD PTR [ebp-8], -858993460 ; ccccccccH
  0000d	c7 45 fc cc cc
	cc cc		 mov	 DWORD PTR [ebp-4], -858993460 ; ccccccccH
  00014	89 4d fc	 mov	 DWORD PTR _this$[ebp], ecx
$L181572:

; 388  : 		// Walk the list and free the buffers
; 389  : 		while (m_pHead != NULL)

  00017	8b 45 fc	 mov	 eax, DWORD PTR _this$[ebp]
  0001a	83 38 00	 cmp	 DWORD PTR [eax], 0
  0001d	74 22		 je	 SHORT $L181570

; 390  : 		{
; 391  : 			CAtlSafeAllocBufferNode* p = m_pHead;

  0001f	8b 4d fc	 mov	 ecx, DWORD PTR _this$[ebp]
  00022	8b 11		 mov	 edx, DWORD PTR [ecx]
  00024	89 55 f8	 mov	 DWORD PTR _p$181574[ebp], edx

; 392  : 			m_pHead = m_pHead->m_pNext;

  00027	8b 45 fc	 mov	 eax, DWORD PTR _this$[ebp]
  0002a	8b 08		 mov	 ecx, DWORD PTR [eax]
  0002c	8b 55 fc	 mov	 edx, DWORD PTR _this$[ebp]
  0002f	8b 01		 mov	 eax, DWORD PTR [ecx]
  00031	89 02		 mov	 DWORD PTR [edx], eax

; 393  : 			Allocator::Free(p);

  00033	8b 4d f8	 mov	 ecx, DWORD PTR _p$181574[ebp]
  00036	51		 push	 ecx
  00037	e8 00 00 00 00	 call	 ?Free@CCRTAllocator@ATL@@SAXPAX@Z ; ATL::CCRTAllocator::Free
  0003c	83 c4 04	 add	 esp, 4

; 394  : 		}

  0003f	eb d6		 jmp	 SHORT $L181572
$L181570:

; 395  : 	}

  00041	83 c4 08	 add	 esp, 8
  00044	3b ec		 cmp	 ebp, esp
  00046	e8 00 00 00 00	 call	 __RTC_CheckEsp
  0004b	8b e5		 mov	 esp, ebp
  0004d	5d		 pop	 ebp
  0004e	c3		 ret	 0
??1?$CAtlSafeAllocBufferManager@VCCRTAllocator@ATL@@@_ATL_SAFE_ALLOCA_IMPL@ATL@@QAE@XZ ENDP ; ATL::_ATL_SAFE_ALLOCA_IMPL::CAtlSafeAllocBufferManager<ATL::CCRTAllocator>::~CAtlSafeAllocBufferManager<ATL::CCRTAllocator>
_TEXT	ENDS
EXTRN	__imp__free:NEAR
; Function compile flags: /Odt /RTCsu
;	COMDAT ?Free@CCRTAllocator@ATL@@SAXPAX@Z
_TEXT	SEGMENT
_p$ = 8							; size = 4
?Free@CCRTAllocator@ATL@@SAXPAX@Z PROC NEAR		; ATL::CCRTAllocator::Free, COMDAT

; 35   : 	{

  00000	55		 push	 ebp
  00001	8b ec		 mov	 ebp, esp
  00003	56		 push	 esi

; 36   : 		free(p);

  00004	8b f4		 mov	 esi, esp
  00006	8b 45 08	 mov	 eax, DWORD PTR _p$[ebp]
  00009	50		 push	 eax
  0000a	ff 15 00 00 00
	00		 call	 DWORD PTR __imp__free
  00010	83 c4 04	 add	 esp, 4
  00013	3b f4		 cmp	 esi, esp
  00015	e8 00 00 00 00	 call	 __RTC_CheckEsp

; 37   : 	}

  0001a	5e		 pop	 esi
  0001b	3b ec		 cmp	 ebp, esp
  0001d	e8 00 00 00 00	 call	 __RTC_CheckEsp
  00022	5d		 pop	 ebp
  00023	c3		 ret	 0
?Free@CCRTAllocator@ATL@@SAXPAX@Z ENDP			; ATL::CCRTAllocator::Free
; Function compile flags: /Odt /RTCsu
_TEXT	ENDS
;	COMDAT ??0?$CTempBuffer@D$0IA@VCCRTAllocator@ATL@@@ATL@@QAE@XZ
_TEXT	SEGMENT
_this$ = -4						; size = 4
??0?$CTempBuffer@D$0IA@VCCRTAllocator@ATL@@@ATL@@QAE@XZ PROC NEAR ; ATL::CTempBuffer<char,128,ATL::CCRTAllocator>::CTempBuffer<char,128,ATL::CCRTAllocator>, COMDAT
; _this$ = ecx

; 216  : 	{

  00000	55		 push	 ebp
  00001	8b ec		 mov	 ebp, esp
  00003	51		 push	 ecx
  00004	c7 45 fc cc cc
	cc cc		 mov	 DWORD PTR [ebp-4], -858993460 ; ccccccccH
  0000b	89 4d fc	 mov	 DWORD PTR _this$[ebp], ecx
  0000e	8b 45 fc	 mov	 eax, DWORD PTR _this$[ebp]
  00011	c7 00 00 00 00
	00		 mov	 DWORD PTR [eax], 0

; 217  : 	}

  00017	8b 45 fc	 mov	 eax, DWORD PTR _this$[ebp]
  0001a	8b e5		 mov	 esp, ebp
  0001c	5d		 pop	 ebp
  0001d	c3		 ret	 0
??0?$CTempBuffer@D$0IA@VCCRTAllocator@ATL@@@ATL@@QAE@XZ ENDP ; ATL::CTempBuffer<char,128,ATL::CCRTAllocator>::CTempBuffer<char,128,ATL::CCRTAllocator>
_TEXT	ENDS
PUBLIC	?FreeHeap@?$CTempBuffer@D$0IA@VCCRTAllocator@ATL@@@ATL@@AAEXXZ ; ATL::CTempBuffer<char,128,ATL::CCRTAllocator>::FreeHeap
; Function compile flags: /Odt /RTCsu
;	COMDAT ??1?$CTempBuffer@D$0IA@VCCRTAllocator@ATL@@@ATL@@QAE@XZ
_TEXT	SEGMENT
_this$ = -4						; size = 4
??1?$CTempBuffer@D$0IA@VCCRTAllocator@ATL@@@ATL@@QAE@XZ PROC NEAR ; ATL::CTempBuffer<char,128,ATL::CCRTAllocator>::~CTempBuffer<char,128,ATL::CCRTAllocator>, COMDAT
; _this$ = ecx

; 225  : 	{

  00000	55		 push	 ebp
  00001	8b ec		 mov	 ebp, esp
  00003	51		 push	 ecx
  00004	c7 45 fc cc cc
	cc cc		 mov	 DWORD PTR [ebp-4], -858993460 ; ccccccccH
  0000b	89 4d fc	 mov	 DWORD PTR _this$[ebp], ecx

; 226  : 		if( m_p != reinterpret_cast< T* >( m_abFixedBuffer ) )

  0000e	8b 45 fc	 mov	 eax, DWORD PTR _this$[ebp]
  00011	83 c0 04	 add	 eax, 4
  00014	8b 4d fc	 mov	 ecx, DWORD PTR _this$[ebp]
  00017	39 01		 cmp	 DWORD PTR [ecx], eax
  00019	74 08		 je	 SHORT $L181578

; 227  : 		{
; 228  : 			FreeHeap();

  0001b	8b 4d fc	 mov	 ecx, DWORD PTR _this$[ebp]
  0001e	e8 00 00 00 00	 call	 ?FreeHeap@?$CTempBuffer@D$0IA@VCCRTAllocator@ATL@@@ATL@@AAEXXZ ; ATL::CTempBuffer<char,128,ATL::CCRTAllocator>::FreeHeap
$L181578:

; 229  : 		}
; 230  : 	}

  00023	83 c4 04	 add	 esp, 4
  00026	3b ec		 cmp	 ebp, esp
  00028	e8 00 00 00 00	 call	 __RTC_CheckEsp
  0002d	8b e5		 mov	 esp, ebp
  0002f	5d		 pop	 ebp
  00030	c3		 ret	 0
??1?$CTempBuffer@D$0IA@VCCRTAllocator@ATL@@@ATL@@QAE@XZ ENDP ; ATL::CTempBuffer<char,128,ATL::CCRTAllocator>::~CTempBuffer<char,128,ATL::CCRTAllocator>
; Function compile flags: /Odt /RTCsu
_TEXT	ENDS
;	COMDAT ??B?$CTempBuffer@D$0IA@VCCRTAllocator@ATL@@@ATL@@QBEPADXZ
_TEXT	SEGMENT
_this$ = -4						; size = 4
??B?$CTempBuffer@D$0IA@VCCRTAllocator@ATL@@@ATL@@QBEPADXZ PROC NEAR ; ATL::CTempBuffer<char,128,ATL::CCRTAllocator>::operator char *, COMDAT
; _this$ = ecx

; 233  : 	{

  00000	55		 push	 ebp
  00001	8b ec		 mov	 ebp, esp
  00003	51		 push	 ecx
  00004	c7 45 fc cc cc
	cc cc		 mov	 DWORD PTR [ebp-4], -858993460 ; ccccccccH
  0000b	89 4d fc	 mov	 DWORD PTR _this$[ebp], ecx

; 234  : 		return( m_p );

  0000e	8b 45 fc	 mov	 eax, DWORD PTR _this$[ebp]
  00011	8b 00		 mov	 eax, DWORD PTR [eax]

; 235  : 	}

  00013	8b e5		 mov	 esp, ebp
  00015	5d		 pop	 ebp
  00016	c3		 ret	 0
??B?$CTempBuffer@D$0IA@VCCRTAllocator@ATL@@@ATL@@QBEPADXZ ENDP ; ATL::CTempBuffer<char,128,ATL::CCRTAllocator>::operator char *
_TEXT	ENDS
PUBLIC	?AllocateBytes@?$CTempBuffer@D$0IA@VCCRTAllocator@ATL@@@ATL@@QAEPADI@Z ; ATL::CTempBuffer<char,128,ATL::CCRTAllocator>::AllocateBytes
; Function compile flags: /Odt /RTCsu
;	COMDAT ?Allocate@?$CTempBuffer@D$0IA@VCCRTAllocator@ATL@@@ATL@@QAEPADI@Z
_TEXT	SEGMENT
_this$ = -4						; size = 4
_nElements$ = 8						; size = 4
?Allocate@?$CTempBuffer@D$0IA@VCCRTAllocator@ATL@@@ATL@@QAEPADI@Z PROC NEAR ; ATL::CTempBuffer<char,128,ATL::CCRTAllocator>::Allocate, COMDAT
; _this$ = ecx

; 243  : 	{

  00000	55		 push	 ebp
  00001	8b ec		 mov	 ebp, esp
  00003	51		 push	 ecx
  00004	c7 45 fc cc cc
	cc cc		 mov	 DWORD PTR [ebp-4], -858993460 ; ccccccccH
  0000b	89 4d fc	 mov	 DWORD PTR _this$[ebp], ecx

; 244  : 		return( AllocateBytes( nElements*sizeof( T ) ) );

  0000e	8b 45 08	 mov	 eax, DWORD PTR _nElements$[ebp]
  00011	50		 push	 eax
  00012	8b 4d fc	 mov	 ecx, DWORD PTR _this$[ebp]
  00015	e8 00 00 00 00	 call	 ?AllocateBytes@?$CTempBuffer@D$0IA@VCCRTAllocator@ATL@@@ATL@@QAEPADI@Z ; ATL::CTempBuffer<char,128,ATL::CCRTAllocator>::AllocateBytes

; 245  : 	}

  0001a	83 c4 04	 add	 esp, 4
  0001d	3b ec		 cmp	 ebp, esp
  0001f	e8 00 00 00 00	 call	 __RTC_CheckEsp
  00024	8b e5		 mov	 esp, ebp
  00026	5d		 pop	 ebp
  00027	c2 04 00	 ret	 4
?Allocate@?$CTempBuffer@D$0IA@VCCRTAllocator@ATL@@@ATL@@QAEPADI@Z ENDP ; ATL::CTempBuffer<char,128,ATL::CCRTAllocator>::Allocate
_TEXT	ENDS
PUBLIC	?Init@?$CW2AEX@$0IA@@ATL@@AAEXPB_WI@Z		; ATL::CW2AEX<128>::Init
; Function compile flags: /Odt /RTCsu
; File d:\program files (x86)\microsoft visual studio .net 2003\vc7\atlmfc\include\atlconv.h
;	COMDAT ??0?$CW2AEX@$0IA@@ATL@@QAE@PB_W@Z
_TEXT	SEGMENT
_this$ = -4						; size = 4
_psz$ = 8						; size = 4
??0?$CW2AEX@$0IA@@ATL@@QAE@PB_W@Z PROC NEAR		; ATL::CW2AEX<128>::CW2AEX<128>, COMDAT
; _this$ = ecx

; 419  : 	{

  00000	55		 push	 ebp
  00001	8b ec		 mov	 ebp, esp
  00003	51		 push	 ecx
  00004	c7 45 fc cc cc
	cc cc		 mov	 DWORD PTR [ebp-4], -858993460 ; ccccccccH
  0000b	89 4d fc	 mov	 DWORD PTR _this$[ebp], ecx
  0000e	8b 45 fc	 mov	 eax, DWORD PTR _this$[ebp]
  00011	83 c0 04	 add	 eax, 4
  00014	8b 4d fc	 mov	 ecx, DWORD PTR _this$[ebp]
  00017	89 01		 mov	 DWORD PTR [ecx], eax

; 420  : 		Init( psz, _AtlGetConversionACP() );

  00019	e8 00 00 00 00	 call	 ?_AtlGetConversionACP@ATL@@YGIXZ ; ATL::_AtlGetConversionACP
  0001e	50		 push	 eax
  0001f	8b 55 08	 mov	 edx, DWORD PTR _psz$[ebp]
  00022	52		 push	 edx
  00023	8b 4d fc	 mov	 ecx, DWORD PTR _this$[ebp]
  00026	e8 00 00 00 00	 call	 ?Init@?$CW2AEX@$0IA@@ATL@@AAEXPB_WI@Z ; ATL::CW2AEX<128>::Init

; 421  : 	}

  0002b	8b 45 fc	 mov	 eax, DWORD PTR _this$[ebp]
  0002e	83 c4 04	 add	 esp, 4
  00031	3b ec		 cmp	 ebp, esp
  00033	e8 00 00 00 00	 call	 __RTC_CheckEsp
  00038	8b e5		 mov	 esp, ebp
  0003a	5d		 pop	 ebp
  0003b	c2 04 00	 ret	 4
??0?$CW2AEX@$0IA@@ATL@@QAE@PB_W@Z ENDP			; ATL::CW2AEX<128>::CW2AEX<128>
; Function compile flags: /Odt /RTCsu
_TEXT	ENDS
;	COMDAT ??1?$CW2AEX@$0IA@@ATL@@QAE@XZ
_TEXT	SEGMENT
_this$ = -4						; size = 4
??1?$CW2AEX@$0IA@@ATL@@QAE@XZ PROC NEAR			; ATL::CW2AEX<128>::~CW2AEX<128>, COMDAT
; _this$ = ecx

; 428  : 	{

  00000	55		 push	 ebp
  00001	8b ec		 mov	 ebp, esp
  00003	51		 push	 ecx
  00004	56		 push	 esi
  00005	c7 45 fc cc cc
	cc cc		 mov	 DWORD PTR [ebp-4], -858993460 ; ccccccccH
  0000c	89 4d fc	 mov	 DWORD PTR _this$[ebp], ecx

; 429  : 		if( m_psz != m_szBuffer )

  0000f	8b 45 fc	 mov	 eax, DWORD PTR _this$[ebp]
  00012	83 c0 04	 add	 eax, 4
  00015	8b 4d fc	 mov	 ecx, DWORD PTR _this$[ebp]
  00018	39 01		 cmp	 DWORD PTR [ecx], eax
  0001a	74 18		 je	 SHORT $L181589

; 430  : 		{
; 431  : 			free( m_psz );

  0001c	8b f4		 mov	 esi, esp
  0001e	8b 55 fc	 mov	 edx, DWORD PTR _this$[ebp]
  00021	8b 02		 mov	 eax, DWORD PTR [edx]
  00023	50		 push	 eax
  00024	ff 15 00 00 00
	00		 call	 DWORD PTR __imp__free
  0002a	83 c4 04	 add	 esp, 4
  0002d	3b f4		 cmp	 esi, esp
  0002f	e8 00 00 00 00	 call	 __RTC_CheckEsp
$L181589:

; 432  : 		}
; 433  : 	}

  00034	5e		 pop	 esi
  00035	83 c4 04	 add	 esp, 4
  00038	3b ec		 cmp	 ebp, esp
  0003a	e8 00 00 00 00	 call	 __RTC_CheckEsp
  0003f	8b e5		 mov	 esp, ebp
  00041	5d		 pop	 ebp
  00042	c3		 ret	 0
??1?$CW2AEX@$0IA@@ATL@@QAE@XZ ENDP			; ATL::CW2AEX<128>::~CW2AEX<128>
; Function compile flags: /Odt /RTCsu
_TEXT	ENDS
;	COMDAT ??B?$CW2AEX@$0IA@@ATL@@QBEPADXZ
_TEXT	SEGMENT
_this$ = -4						; size = 4
??B?$CW2AEX@$0IA@@ATL@@QBEPADXZ PROC NEAR		; ATL::CW2AEX<128>::operator char *, COMDAT
; _this$ = ecx

; 436  : 	{

  00000	55		 push	 ebp
  00001	8b ec		 mov	 ebp, esp
  00003	51		 push	 ecx
  00004	c7 45 fc cc cc
	cc cc		 mov	 DWORD PTR [ebp-4], -858993460 ; ccccccccH
  0000b	89 4d fc	 mov	 DWORD PTR _this$[ebp], ecx

; 437  : 		return( m_psz );

  0000e	8b 45 fc	 mov	 eax, DWORD PTR _this$[ebp]
  00011	8b 00		 mov	 eax, DWORD PTR [eax]

; 438  : 	}

  00013	8b e5		 mov	 esp, ebp
  00015	5d		 pop	 ebp
  00016	c3		 ret	 0
??B?$CW2AEX@$0IA@@ATL@@QBEPADXZ ENDP			; ATL::CW2AEX<128>::operator char *
_TEXT	ENDS
PUBLIC	??_C@_08GPODJFIN@m_p?5?$DN?$DN?50?$AA@		; `string'
PUBLIC	??_C@_0FH@BOCPFCEM@D?3?2Program?5Files?5?$CIx86?$CJ?2Microsoft@ ; `string'
PUBLIC	?AllocateHeap@?$CTempBuffer@D$0IA@VCCRTAllocator@ATL@@@ATL@@AAEXI@Z ; ATL::CTempBuffer<char,128,ATL::CCRTAllocator>::AllocateHeap
;	COMDAT ??_C@_08GPODJFIN@m_p?5?$DN?$DN?50?$AA@
; File d:\program files (x86)\microsoft visual studio .net 2003\vc7\atlmfc\include\atlalloc.h
CONST	SEGMENT
??_C@_08GPODJFIN@m_p?5?$DN?$DN?50?$AA@ DB 'm_p == 0', 00H ; `string'
CONST	ENDS
;	COMDAT ??_C@_0FH@BOCPFCEM@D?3?2Program?5Files?5?$CIx86?$CJ?2Microsoft@
CONST	SEGMENT
??_C@_0FH@BOCPFCEM@D?3?2Program?5Files?5?$CIx86?$CJ?2Microsoft@ DB 'D:\Pr'
	DB	'ogram Files (x86)\Microsoft Visual Studio .NET 2003\Vc7\atlmf'
	DB	'c\include\atlalloc.h', 00H			; `string'
; Function compile flags: /Odt /RTCsu
CONST	ENDS
;	COMDAT ?AllocateBytes@?$CTempBuffer@D$0IA@VCCRTAllocator@ATL@@@ATL@@QAEPADI@Z
_TEXT	SEGMENT
_this$ = -4						; size = 4
_nBytes$ = 8						; size = 4
?AllocateBytes@?$CTempBuffer@D$0IA@VCCRTAllocator@ATL@@@ATL@@QAEPADI@Z PROC NEAR ; ATL::CTempBuffer<char,128,ATL::CCRTAllocator>::AllocateBytes, COMDAT
; _this$ = ecx

; 276  : 	{

  00000	55		 push	 ebp
  00001	8b ec		 mov	 ebp, esp
  00003	51		 push	 ecx
  00004	56		 push	 esi
  00005	c7 45 fc cc cc
	cc cc		 mov	 DWORD PTR [ebp-4], -858993460 ; ccccccccH
  0000c	89 4d fc	 mov	 DWORD PTR _this$[ebp], ecx

; 277  : 		ATLASSERT( m_p == NULL );

  0000f	8b 45 fc	 mov	 eax, DWORD PTR _this$[ebp]
  00012	83 38 00	 cmp	 DWORD PTR [eax], 0
  00015	74 2b		 je	 SHORT $L192420
  00017	8b f4		 mov	 esi, esp
  00019	68 00 00 00 00	 push	 OFFSET FLAT:??_C@_08GPODJFIN@m_p?5?$DN?$DN?50?$AA@
  0001e	6a 00		 push	 0
  00020	68 15 01 00 00	 push	 277			; 00000115H
  00025	68 00 00 00 00	 push	 OFFSET FLAT:??_C@_0FH@BOCPFCEM@D?3?2Program?5Files?5?$CIx86?$CJ?2Microsoft@
  0002a	6a 02		 push	 2
  0002c	ff 15 00 00 00
	00		 call	 DWORD PTR __imp___CrtDbgReport
  00032	83 c4 14	 add	 esp, 20			; 00000014H
  00035	3b f4		 cmp	 esi, esp
  00037	e8 00 00 00 00	 call	 __RTC_CheckEsp
  0003c	83 f8 01	 cmp	 eax, 1
  0003f	75 01		 jne	 SHORT $L192420
  00041	cc		 int	 3
$L192420:

; 278  : 		if( nBytes > t_nFixedBytes )

  00042	81 7d 08 80 00
	00 00		 cmp	 DWORD PTR _nBytes$[ebp], 128 ; 00000080H
  00049	76 0e		 jbe	 SHORT $L183346

; 279  : 		{
; 280  : 			AllocateHeap( nBytes );

  0004b	8b 55 08	 mov	 edx, DWORD PTR _nBytes$[ebp]
  0004e	52		 push	 edx
  0004f	8b 4d fc	 mov	 ecx, DWORD PTR _this$[ebp]
  00052	e8 00 00 00 00	 call	 ?AllocateHeap@?$CTempBuffer@D$0IA@VCCRTAllocator@ATL@@@ATL@@AAEXI@Z ; ATL::CTempBuffer<char,128,ATL::CCRTAllocator>::AllocateHeap

; 281  : 		}
; 282  : 		else

  00057	eb 0b		 jmp	 SHORT $L183347
$L183346:

; 283  : 		{
; 284  : 			m_p = reinterpret_cast< T* >( m_abFixedBuffer );

  00059	8b 45 fc	 mov	 eax, DWORD PTR _this$[ebp]
  0005c	83 c0 04	 add	 eax, 4
  0005f	8b 4d fc	 mov	 ecx, DWORD PTR _this$[ebp]
  00062	89 01		 mov	 DWORD PTR [ecx], eax
$L183347:

; 285  : 		}
; 286  : 
; 287  : 		return( m_p );

  00064	8b 55 fc	 mov	 edx, DWORD PTR _this$[ebp]
  00067	8b 02		 mov	 eax, DWORD PTR [edx]

; 288  : 	}

  00069	5e		 pop	 esi
  0006a	83 c4 04	 add	 esp, 4
  0006d	3b ec		 cmp	 ebp, esp
  0006f	e8 00 00 00 00	 call	 __RTC_CheckEsp
  00074	8b e5		 mov	 esp, ebp
  00076	5d		 pop	 ebp
  00077	c2 04 00	 ret	 4
?AllocateBytes@?$CTempBuffer@D$0IA@VCCRTAllocator@ATL@@@ATL@@QAEPADI@Z ENDP ; ATL::CTempBuffer<char,128,ATL::CCRTAllocator>::AllocateBytes
; Function compile flags: /Odt /RTCsu
_TEXT	ENDS
;	COMDAT ?FreeHeap@?$CTempBuffer@D$0IA@VCCRTAllocator@ATL@@@ATL@@AAEXXZ
_TEXT	SEGMENT
_this$ = -4						; size = 4
?FreeHeap@?$CTempBuffer@D$0IA@VCCRTAllocator@ATL@@@ATL@@AAEXXZ PROC NEAR ; ATL::CTempBuffer<char,128,ATL::CCRTAllocator>::FreeHeap, COMDAT
; _this$ = ecx

; 312  : 	{

  00000	55		 push	 ebp
  00001	8b ec		 mov	 ebp, esp
  00003	51		 push	 ecx
  00004	c7 45 fc cc cc
	cc cc		 mov	 DWORD PTR [ebp-4], -858993460 ; ccccccccH
  0000b	89 4d fc	 mov	 DWORD PTR _this$[ebp], ecx

; 313  : 		Allocator::Free( m_p );

  0000e	8b 45 fc	 mov	 eax, DWORD PTR _this$[ebp]
  00011	8b 08		 mov	 ecx, DWORD PTR [eax]
  00013	51		 push	 ecx
  00014	e8 00 00 00 00	 call	 ?Free@CCRTAllocator@ATL@@SAXPAX@Z ; ATL::CCRTAllocator::Free
  00019	83 c4 04	 add	 esp, 4

; 314  : 	}

  0001c	83 c4 04	 add	 esp, 4
  0001f	3b ec		 cmp	 ebp, esp
  00021	e8 00 00 00 00	 call	 __RTC_CheckEsp
  00026	8b e5		 mov	 esp, ebp
  00028	5d		 pop	 ebp
  00029	c3		 ret	 0
?FreeHeap@?$CTempBuffer@D$0IA@VCCRTAllocator@ATL@@@ATL@@AAEXXZ ENDP ; ATL::CTempBuffer<char,128,ATL::CCRTAllocator>::FreeHeap
_TEXT	ENDS
PUBLIC	?AtlThrowLastWin32@ATL@@YGXXZ			; ATL::AtlThrowLastWin32
; Function compile flags: /Odt /RTCsu
; File d:\program files (x86)\microsoft visual studio .net 2003\vc7\atlmfc\include\atlconv.h
;	COMDAT ?Init@?$CW2AEX@$0IA@@ATL@@AAEXPB_WI@Z
_TEXT	SEGMENT
_nLengthA$ = -12					; size = 4
_nLengthW$ = -8						; size = 4
_this$ = -4						; size = 4
_psz$ = 8						; size = 4
_nCodePage$ = 12					; size = 4
?Init@?$CW2AEX@$0IA@@ATL@@AAEXPB_WI@Z PROC NEAR		; ATL::CW2AEX<128>::Init, COMDAT
; _this$ = ecx

; 442  : 	{

  00000	55		 push	 ebp
  00001	8b ec		 mov	 ebp, esp
  00003	83 ec 0c	 sub	 esp, 12			; 0000000cH
  00006	56		 push	 esi
  00007	c7 45 f4 cc cc
	cc cc		 mov	 DWORD PTR [ebp-12], -858993460 ; ccccccccH
  0000e	c7 45 f8 cc cc
	cc cc		 mov	 DWORD PTR [ebp-8], -858993460 ; ccccccccH
  00015	c7 45 fc cc cc
	cc cc		 mov	 DWORD PTR [ebp-4], -858993460 ; ccccccccH
  0001c	89 4d fc	 mov	 DWORD PTR _this$[ebp], ecx

; 443  : 		if (psz == NULL)

  0001f	83 7d 08 00	 cmp	 DWORD PTR _psz$[ebp], 0
  00023	75 0e		 jne	 SHORT $L183353

; 444  : 		{
; 445  : 			m_psz = NULL;

  00025	8b 45 fc	 mov	 eax, DWORD PTR _this$[ebp]
  00028	c7 00 00 00 00
	00		 mov	 DWORD PTR [eax], 0

; 446  : 			return;

  0002e	e9 8b 00 00 00	 jmp	 $L192422
$L183353:

; 447  : 		}
; 448  : 		int nLengthW = lstrlenW( psz )+1;

  00033	8b f4		 mov	 esi, esp
  00035	8b 4d 08	 mov	 ecx, DWORD PTR _psz$[ebp]
  00038	51		 push	 ecx
  00039	ff 15 00 00 00
	00		 call	 DWORD PTR __imp__lstrlenW@4
  0003f	3b f4		 cmp	 esi, esp
  00041	e8 00 00 00 00	 call	 __RTC_CheckEsp
  00046	83 c0 01	 add	 eax, 1
  00049	89 45 f8	 mov	 DWORD PTR _nLengthW$[ebp], eax

; 449  : 		int nLengthA = nLengthW*2;

  0004c	8b 55 f8	 mov	 edx, DWORD PTR _nLengthW$[ebp]
  0004f	d1 e2		 shl	 edx, 1
  00051	89 55 f4	 mov	 DWORD PTR _nLengthA$[ebp], edx

; 450  : 
; 451  : 		if( nLengthA > t_nBufferLength )

  00054	81 7d f4 80 00
	00 00		 cmp	 DWORD PTR _nLengthA$[ebp], 128 ; 00000080H
  0005b	7e 2d		 jle	 SHORT $L183356

; 452  : 		{
; 453  : 			m_psz = static_cast< LPSTR >( malloc( nLengthA*sizeof( char ) ) );

  0005d	8b f4		 mov	 esi, esp
  0005f	8b 45 f4	 mov	 eax, DWORD PTR _nLengthA$[ebp]
  00062	50		 push	 eax
  00063	ff 15 00 00 00
	00		 call	 DWORD PTR __imp__malloc
  00069	83 c4 04	 add	 esp, 4
  0006c	3b f4		 cmp	 esi, esp
  0006e	e8 00 00 00 00	 call	 __RTC_CheckEsp
  00073	8b 4d fc	 mov	 ecx, DWORD PTR _this$[ebp]
  00076	89 01		 mov	 DWORD PTR [ecx], eax

; 454  : 			if (m_psz == NULL)

  00078	8b 55 fc	 mov	 edx, DWORD PTR _this$[ebp]
  0007b	83 3a 00	 cmp	 DWORD PTR [edx], 0
  0007e	75 0a		 jne	 SHORT $L183356

; 455  : 			{
; 456  : 				AtlThrow( E_OUTOFMEMORY );

  00080	68 0e 00 07 80	 push	 -2147024882		; 8007000eH
  00085	e8 00 00 00 00	 call	 ?AtlThrow@ATL@@YGXJ@Z	; ATL::AtlThrow
$L183356:

; 457  : 			}
; 458  : 		}
; 459  : 
; 460  : 		if (::WideCharToMultiByte( nCodePage, 0, psz, nLengthW, m_psz, nLengthA, NULL, NULL ) == 0)

  0008a	8b f4		 mov	 esi, esp
  0008c	6a 00		 push	 0
  0008e	6a 00		 push	 0
  00090	8b 45 f4	 mov	 eax, DWORD PTR _nLengthA$[ebp]
  00093	50		 push	 eax
  00094	8b 4d fc	 mov	 ecx, DWORD PTR _this$[ebp]
  00097	8b 11		 mov	 edx, DWORD PTR [ecx]
  00099	52		 push	 edx
  0009a	8b 45 f8	 mov	 eax, DWORD PTR _nLengthW$[ebp]
  0009d	50		 push	 eax
  0009e	8b 4d 08	 mov	 ecx, DWORD PTR _psz$[ebp]
  000a1	51		 push	 ecx
  000a2	6a 00		 push	 0
  000a4	8b 55 0c	 mov	 edx, DWORD PTR _nCodePage$[ebp]
  000a7	52		 push	 edx
  000a8	ff 15 00 00 00
	00		 call	 DWORD PTR __imp__WideCharToMultiByte@32
  000ae	3b f4		 cmp	 esi, esp
  000b0	e8 00 00 00 00	 call	 __RTC_CheckEsp
  000b5	85 c0		 test	 eax, eax
  000b7	75 05		 jne	 SHORT $L192422

; 461  : 		{
; 462  : 			AtlThrowLastWin32();

  000b9	e8 00 00 00 00	 call	 ?AtlThrowLastWin32@ATL@@YGXXZ ; ATL::AtlThrowLastWin32
$L192422:

; 463  : 		}
; 464  : 	}

  000be	5e		 pop	 esi
  000bf	83 c4 0c	 add	 esp, 12			; 0000000cH
  000c2	3b ec		 cmp	 ebp, esp
  000c4	e8 00 00 00 00	 call	 __RTC_CheckEsp
  000c9	8b e5		 mov	 esp, ebp
  000cb	5d		 pop	 ebp
  000cc	c2 08 00	 ret	 8
?Init@?$CW2AEX@$0IA@@ATL@@AAEXPB_WI@Z ENDP		; ATL::CW2AEX<128>::Init
_TEXT	ENDS
EXTRN	__imp__GetLastError@0:NEAR
; Function compile flags: /Odt /RTCsu
; File d:\program files (x86)\microsoft visual studio .net 2003\vc7\atlmfc\include\atlexcept.h
;	COMDAT ?AtlThrowLastWin32@ATL@@YGXXZ
_TEXT	SEGMENT
tv69 = -8						; size = 4
_dwError$ = -4						; size = 4
?AtlThrowLastWin32@ATL@@YGXXZ PROC NEAR			; ATL::AtlThrowLastWin32, COMDAT

; 80   : {

  00000	55		 push	 ebp
  00001	8b ec		 mov	 ebp, esp
  00003	83 ec 08	 sub	 esp, 8
  00006	56		 push	 esi
  00007	c7 45 f8 cc cc
	cc cc		 mov	 DWORD PTR [ebp-8], -858993460 ; ccccccccH
  0000e	c7 45 fc cc cc
	cc cc		 mov	 DWORD PTR [ebp-4], -858993460 ; ccccccccH

; 81   : 	DWORD dwError = ::GetLastError();

  00015	8b f4		 mov	 esi, esp
  00017	ff 15 00 00 00
	00		 call	 DWORD PTR __imp__GetLastError@0
  0001d	3b f4		 cmp	 esi, esp
  0001f	e8 00 00 00 00	 call	 __RTC_CheckEsp
  00024	89 45 fc	 mov	 DWORD PTR _dwError$[ebp], eax

; 82   : 	AtlThrow( HRESULT_FROM_WIN32( dwError ) );

  00027	83 7d fc 00	 cmp	 DWORD PTR _dwError$[ebp], 0
  0002b	7f 08		 jg	 SHORT $L192424
  0002d	8b 45 fc	 mov	 eax, DWORD PTR _dwError$[ebp]
  00030	89 45 f8	 mov	 DWORD PTR tv69[ebp], eax
  00033	eb 18		 jmp	 SHORT $L192425
$L192424:
  00035	8b 4d fc	 mov	 ecx, DWORD PTR _dwError$[ebp]
  00038	81 e1 ff ff 00
	00		 and	 ecx, 65535		; 0000ffffH
  0003e	81 c9 00 00 07
	00		 or	 ecx, 458752		; 00070000H
  00044	81 c9 00 00 00
	80		 or	 ecx, -2147483648	; 80000000H
  0004a	89 4d f8	 mov	 DWORD PTR tv69[ebp], ecx
$L192425:
  0004d	8b 55 f8	 mov	 edx, DWORD PTR tv69[ebp]
  00050	52		 push	 edx
  00051	e8 00 00 00 00	 call	 ?AtlThrow@ATL@@YGXJ@Z	; ATL::AtlThrow
$L192423:

; 83   : }

  00056	5e		 pop	 esi
  00057	83 c4 08	 add	 esp, 8
  0005a	3b ec		 cmp	 ebp, esp
  0005c	e8 00 00 00 00	 call	 __RTC_CheckEsp
  00061	8b e5		 mov	 esp, ebp
  00063	5d		 pop	 ebp
  00064	c3		 ret	 0
?AtlThrowLastWin32@ATL@@YGXXZ ENDP			; ATL::AtlThrowLastWin32
; Function compile flags: /Odt /RTCsu
; File d:\program files (x86)\microsoft visual studio .net 2003\vc7\atlmfc\include\atlalloc.h
_TEXT	ENDS
;	COMDAT ?GetData@CAtlSafeAllocBufferNode@?$CAtlSafeAllocBufferManager@VCCRTAllocator@ATL@@@_ATL_SAFE_ALLOCA_IMPL@ATL@@QAEPAXXZ
_TEXT	SEGMENT
_this$ = -4						; size = 4
?GetData@CAtlSafeAllocBufferNode@?$CAtlSafeAllocBufferManager@VCCRTAllocator@ATL@@@_ATL_SAFE_ALLOCA_IMPL@ATL@@QAEPAXXZ PROC NEAR ; ATL::_ATL_SAFE_ALLOCA_IMPL::CAtlSafeAllocBufferManager<ATL::CCRTAllocator>::CAtlSafeAllocBufferNode::GetData, COMDAT
; _this$ = ecx

; 365  : 		{

  00000	55		 push	 ebp
  00001	8b ec		 mov	 ebp, esp
  00003	51		 push	 ecx
  00004	c7 45 fc cc cc
	cc cc		 mov	 DWORD PTR [ebp-4], -858993460 ; ccccccccH
  0000b	89 4d fc	 mov	 DWORD PTR _this$[ebp], ecx

; 366  : 			return (this + 1);

  0000e	8b 45 fc	 mov	 eax, DWORD PTR _this$[ebp]
  00011	83 c0 08	 add	 eax, 8

; 367  : 		}

  00014	8b e5		 mov	 esp, ebp
  00016	5d		 pop	 ebp
  00017	c3		 ret	 0
?GetData@CAtlSafeAllocBufferNode@?$CAtlSafeAllocBufferManager@VCCRTAllocator@ATL@@@_ATL_SAFE_ALLOCA_IMPL@ATL@@QAEPAXXZ ENDP ; ATL::_ATL_SAFE_ALLOCA_IMPL::CAtlSafeAllocBufferManager<ATL::CCRTAllocator>::CAtlSafeAllocBufferNode::GetData
; Function compile flags: /Odt /RTCsu
_TEXT	ENDS
;	COMDAT ?AllocateHeap@?$CTempBuffer@D$0IA@VCCRTAllocator@ATL@@@ATL@@AAEXI@Z
_TEXT	SEGMENT
_p$ = -8						; size = 4
_this$ = -4						; size = 4
_nBytes$ = 8						; size = 4
?AllocateHeap@?$CTempBuffer@D$0IA@VCCRTAllocator@ATL@@@ATL@@AAEXI@Z PROC NEAR ; ATL::CTempBuffer<char,128,ATL::CCRTAllocator>::AllocateHeap, COMDAT
; _this$ = ecx

; 292  : 	{

  00000	55		 push	 ebp
  00001	8b ec		 mov	 ebp, esp
  00003	83 ec 08	 sub	 esp, 8
  00006	c7 45 f8 cc cc
	cc cc		 mov	 DWORD PTR [ebp-8], -858993460 ; ccccccccH
  0000d	c7 45 fc cc cc
	cc cc		 mov	 DWORD PTR [ebp-4], -858993460 ; ccccccccH
  00014	89 4d fc	 mov	 DWORD PTR _this$[ebp], ecx

; 293  : 		T* p = static_cast< T* >( Allocator::Allocate( nBytes ) );

  00017	8b 45 08	 mov	 eax, DWORD PTR _nBytes$[ebp]
  0001a	50		 push	 eax
  0001b	e8 00 00 00 00	 call	 ?Allocate@CCRTAllocator@ATL@@SAPAXI@Z ; ATL::CCRTAllocator::Allocate
  00020	83 c4 04	 add	 esp, 4
  00023	89 45 f8	 mov	 DWORD PTR _p$[ebp], eax

; 294  : 		if( p == NULL )

  00026	83 7d f8 00	 cmp	 DWORD PTR _p$[ebp], 0
  0002a	75 0a		 jne	 SHORT $L184832

; 295  : 		{
; 296  : 			AtlThrow( E_OUTOFMEMORY );

  0002c	68 0e 00 07 80	 push	 -2147024882		; 8007000eH
  00031	e8 00 00 00 00	 call	 ?AtlThrow@ATL@@YGXJ@Z	; ATL::AtlThrow
$L184832:

; 297  : 		}
; 298  : 		m_p = p;

  00036	8b 4d fc	 mov	 ecx, DWORD PTR _this$[ebp]
  00039	8b 55 f8	 mov	 edx, DWORD PTR _p$[ebp]
  0003c	89 11		 mov	 DWORD PTR [ecx], edx
$L192427:

; 299  : 	}

  0003e	83 c4 08	 add	 esp, 8
  00041	3b ec		 cmp	 ebp, esp
  00043	e8 00 00 00 00	 call	 __RTC_CheckEsp
  00048	8b e5		 mov	 esp, ebp
  0004a	5d		 pop	 ebp
  0004b	c2 04 00	 ret	 4
?AllocateHeap@?$CTempBuffer@D$0IA@VCCRTAllocator@ATL@@@ATL@@AAEXI@Z ENDP ; ATL::CTempBuffer<char,128,ATL::CCRTAllocator>::AllocateHeap
_TEXT	ENDS
END
