; Listing generated by Microsoft (R) Optimizing Compiler Version 13.10.3077 

	TITLE	.\src\module\GamePanel\WebGamePanelWnd.cpp
	.386P
include listing.inc
if @Version gt 510
.model FLAT
else
_TEXT	SEGMENT PARA USE32 PUBLIC 'CODE'
_TEXT	ENDS
_DATA	SEGMENT DWORD USE32 PUBLIC 'DATA'
_DATA	ENDS
CONST	SEGMENT DWORD USE32 PUBLIC 'CONST'
CONST	ENDS
_BSS	SEGMENT DWORD USE32 PUBLIC 'BSS'
_BSS	ENDS
$$SYMBOLS	SEGMENT BYTE USE32 'DEBSYM'
$$SYMBOLS	ENDS
_TLS	SEGMENT DWORD USE32 PUBLIC 'TLS'
_TLS	ENDS
;	COMDAT ??_C@_0P@CLMBAKJD@JSCall?5Error?3?6?$AA@
CONST	SEGMENT DWORD USE32 PUBLIC 'CONST'
CONST	ENDS
;	COMDAT ??_C@_0EN@IBFBLEEG@D?3?2Program?5Files?5?$CIx86?$CJ?2Microsoft@
CONST	SEGMENT DWORD USE32 PUBLIC 'CONST'
CONST	ENDS
rdata$r	SEGMENT DWORD USE32 PUBLIC 'CONST'
rdata$r	ENDS
xdata$x	SEGMENT DWORD USE32 PUBLIC 'CONST'
xdata$x	ENDS
text$AFX_COL1	SEGMENT PARA USE32 PUBLIC ''
text$AFX_COL1	ENDS
text$yc	SEGMENT PARA USE32 PUBLIC 'CODE'
text$yc	ENDS
CRT$XCA	SEGMENT DWORD USE32 PUBLIC 'DATA'
CRT$XCA	ENDS
CRT$XCU	SEGMENT DWORD USE32 PUBLIC 'DATA'
CRT$XCU	ENDS
CRT$XCL	SEGMENT DWORD USE32 PUBLIC 'DATA'
CRT$XCL	ENDS
CRT$XCC	SEGMENT DWORD USE32 PUBLIC 'DATA'
CRT$XCC	ENDS
CRT$XCZ	SEGMENT DWORD USE32 PUBLIC 'DATA'
CRT$XCZ	ENDS
text$yd	SEGMENT PARA USE32 PUBLIC 'CODE'
text$yd	ENDS
ATL$__m	SEGMENT DWORD USE32 PUBLIC ''
ATL$__m	ENDS
ATL$__z	SEGMENT DWORD USE32 PUBLIC ''
ATL$__z	ENDS
ATL$__a	SEGMENT DWORD USE32 PUBLIC ''
ATL$__a	ENDS
;	COMDAT ?IPanelChangeOb_WindowMax@IPanelChangeObserver@@UAEXXZ
_TEXT	SEGMENT PARA USE32 PUBLIC 'CODE'
_TEXT	ENDS
;	COMDAT ?IPanelChangeOb_WindowMin@IPanelChangeObserver@@UAEXXZ
_TEXT	SEGMENT PARA USE32 PUBLIC 'CODE'
_TEXT	ENDS
;	COMDAT ?IPanelChangeOb_WindowRestore@IPanelChangeObserver@@UAEXXZ
_TEXT	SEGMENT PARA USE32 PUBLIC 'CODE'
_TEXT	ENDS
;	COMDAT ?IPanelChangeOb_WindowClose@IPanelChangeObserver@@UAEXXZ
_TEXT	SEGMENT PARA USE32 PUBLIC 'CODE'
_TEXT	ENDS
;	COMDAT ?IPanelChangeOb_ToFullScreen@IPanelChangeObserver@@UAEXPAVCWnd@@@Z
_TEXT	SEGMENT PARA USE32 PUBLIC 'CODE'
_TEXT	ENDS
;	COMDAT ?IPanelChangeOb_ExitFullScreen@IPanelChangeObserver@@UAEXPAVCWnd@@@Z
_TEXT	SEGMENT PARA USE32 PUBLIC 'CODE'
_TEXT	ENDS
;	COMDAT ?GetClsid@CShockwaveFlash@@QAEABU_GUID@@XZ
_TEXT	SEGMENT PARA USE32 PUBLIC 'CODE'
_TEXT	ENDS
;	COMDAT ??0CCustomControlSite@@QAE@PAVCOleControlContainer@@@Z
_TEXT	SEGMENT PARA USE32 PUBLIC 'CODE'
_TEXT	ENDS
;	COMDAT ??_GCCustomControlSite@@UAEPAXI@Z
_TEXT	SEGMENT PARA USE32 PUBLIC 'CODE'
_TEXT	ENDS
;	COMDAT ??0XDocHostShowUI@CCustomControlSite@@QAE@XZ
_TEXT	SEGMENT PARA USE32 PUBLIC 'CODE'
_TEXT	ENDS
;	COMDAT ??0XDocHostUIHandler@CCustomControlSite@@QAE@XZ
_TEXT	SEGMENT PARA USE32 PUBLIC 'CODE'
_TEXT	ENDS
;	COMDAT ??1CCustomControlSite@@UAE@XZ
_TEXT	SEGMENT PARA USE32 PUBLIC 'CODE'
_TEXT	ENDS
;	COMDAT ??0IDocHostShowUI@@QAE@XZ
_TEXT	SEGMENT PARA USE32 PUBLIC 'CODE'
_TEXT	ENDS
;	COMDAT ??0IDocHostUIHandler@@QAE@XZ
_TEXT	SEGMENT PARA USE32 PUBLIC 'CODE'
_TEXT	ENDS
;	COMDAT ?CreateSite@CCustomOccManager@@UAEPAVCOleControlSite@@PAVCOleControlContainer@@@Z
_TEXT	SEGMENT PARA USE32 PUBLIC 'CODE'
_TEXT	ENDS
;	COMDAT ??_GCCustomOccManager@@UAEPAXI@Z
_TEXT	SEGMENT PARA USE32 PUBLIC 'CODE'
_TEXT	ENDS
;	COMDAT ??0COccManager@@QAE@XZ
_TEXT	SEGMENT PARA USE32 PUBLIC 'CODE'
_TEXT	ENDS
;	COMDAT ??1COccManager@@UAE@XZ
_TEXT	SEGMENT PARA USE32 PUBLIC 'CODE'
_TEXT	ENDS
;	COMDAT ??1CCustomOccManager@@UAE@XZ
_TEXT	SEGMENT PARA USE32 PUBLIC 'CODE'
_TEXT	ENDS
;	COMDAT ??_GCOccManager@@UAEPAXI@Z
_TEXT	SEGMENT PARA USE32 PUBLIC 'CODE'
_TEXT	ENDS
;	COMDAT ??0CNoTrackObject@@QAE@XZ
_TEXT	SEGMENT PARA USE32 PUBLIC 'CODE'
_TEXT	ENDS
;	COMDAT _$E5
text$yc	SEGMENT PARA USE32 PUBLIC 'CODE'
text$yc	ENDS
;	COMDAT ??1IData@@MAE@XZ
_TEXT	SEGMENT PARA USE32 PUBLIC 'CODE'
_TEXT	ENDS
;	COMDAT ?DataAppStart@IData@@UAEXXZ
_TEXT	SEGMENT PARA USE32 PUBLIC 'CODE'
_TEXT	ENDS
;	COMDAT ?DataAppExit@IData@@UAEXXZ
_TEXT	SEGMENT PARA USE32 PUBLIC 'CODE'
_TEXT	ENDS
;	COMDAT ??_GIData@@MAEPAXI@Z
_TEXT	SEGMENT PARA USE32 PUBLIC 'CODE'
_TEXT	ENDS
;	COMDAT ?clear@OneLocalGame@@QAEXXZ
_TEXT	SEGMENT PARA USE32 PUBLIC 'CODE'
_TEXT	ENDS
;	COMDAT ??_GWebGamePanelWnd@@UAEPAXI@Z
_TEXT	SEGMENT PARA USE32 PUBLIC 'CODE'
_TEXT	ENDS
;	COMDAT ??0IPanelChangeObserver@@QAE@XZ
_TEXT	SEGMENT PARA USE32 PUBLIC 'CODE'
_TEXT	ENDS
;	COMDAT ??1IPanelChangeObserver@@UAE@XZ
_TEXT	SEGMENT PARA USE32 PUBLIC 'CODE'
_TEXT	ENDS
;	COMDAT ??0WEB_GAME@@QAE@XZ
_TEXT	SEGMENT PARA USE32 PUBLIC 'CODE'
_TEXT	ENDS
;	COMDAT ??1WEB_GAME@@QAE@XZ
_TEXT	SEGMENT PARA USE32 PUBLIC 'CODE'
_TEXT	ENDS
;	COMDAT ??_GIPanelChangeObserver@@UAEPAXI@Z
_TEXT	SEGMENT PARA USE32 PUBLIC 'CODE'
_TEXT	ENDS
;	COMDAT ??0IMessageObserver@@QAE@XZ
_TEXT	SEGMENT PARA USE32 PUBLIC 'CODE'
_TEXT	ENDS
;	COMDAT ??1TAB_ITEM@@QAE@XZ
_TEXT	SEGMENT PARA USE32 PUBLIC 'CODE'
_TEXT	ENDS
;	COMDAT ??0WEB_GAME@@QAE@ABU0@@Z
_TEXT	SEGMENT PARA USE32 PUBLIC 'CODE'
_TEXT	ENDS
;	COMDAT ??HATL@@YA?AV?$CStringT@DV?$StrTraitMFC_DLL@DV?$ChTraitsCRT@D@ATL@@@@@0@PBDABV10@@Z
_TEXT	SEGMENT PARA USE32 PUBLIC 'CODE'
_TEXT	ENDS
;	COMDAT ??B?$CComPtrBase@UITypeInfo2@@@ATL@@QBEPAUITypeInfo2@@XZ
_TEXT	SEGMENT PARA USE32 PUBLIC 'CODE'
_TEXT	ENDS
;	COMDAT ??B?$CComPtrBase@UIHTMLDocument2@@@ATL@@QBEPAUIHTMLDocument2@@XZ
_TEXT	SEGMENT PARA USE32 PUBLIC 'CODE'
_TEXT	ENDS
;	COMDAT ?equal@?$istreambuf_iterator@DU?$char_traits@D@std@@@std@@QBE_NABV12@@Z
_TEXT	SEGMENT PARA USE32 PUBLIC 'CODE'
_TEXT	ENDS
;	COMDAT ?equal@?$istreambuf_iterator@_WU?$char_traits@_W@std@@@std@@QBE_NABV12@@Z
_TEXT	SEGMENT PARA USE32 PUBLIC 'CODE'
_TEXT	ENDS
;	COMDAT ??0iterator@?$basic_string@DU?$char_traits@D@std@@V?$allocator@D@2@@std@@QAE@PAD@Z
_TEXT	SEGMENT PARA USE32 PUBLIC 'CODE'
_TEXT	ENDS
;	COMDAT ??0const_iterator@?$basic_string@DU?$char_traits@D@std@@V?$allocator@D@2@@std@@QAE@PBD@Z
_TEXT	SEGMENT PARA USE32 PUBLIC 'CODE'
_TEXT	ENDS
;	COMDAT ??Gconst_iterator@?$basic_string@DU?$char_traits@D@std@@V?$allocator@D@2@@std@@QBEHABV012@@Z
_TEXT	SEGMENT PARA USE32 PUBLIC 'CODE'
_TEXT	ENDS
;	COMDAT ?Unlock@?$CComCritSecLock@VCComCriticalSection@ATL@@@ATL@@QAEXXZ
_TEXT	SEGMENT PARA USE32 PUBLIC 'CODE'
_TEXT	ENDS
;	COMDAT ??$_Maklocstr@D@std@@YAPADPBDPADABU_Cvtvec@@@Z
_TEXT	SEGMENT PARA USE32 PUBLIC 'CODE'
_TEXT	ENDS
;	COMDAT ??_EWebGamePanelWnd@@WFE@AEPAXI@Z
_TEXT	SEGMENT PARA USE32 PUBLIC 'CODE'
_TEXT	ENDS
;	COMDAT ??_R3IDocHostShowUI@@8
rdata$r	SEGMENT DWORD USE32 PUBLIC 'CONST'
rdata$r	ENDS
;	COMDAT ??_R3COccManager@@8
rdata$r	SEGMENT DWORD USE32 PUBLIC 'CONST'
rdata$r	ENDS
;	COMDAT ??_R3IDocHostUIHandler@@8
rdata$r	SEGMENT DWORD USE32 PUBLIC 'CONST'
rdata$r	ENDS
;	COMDAT ??_R3?$numpunct@_W@std@@8
rdata$r	SEGMENT DWORD USE32 PUBLIC 'CONST'
rdata$r	ENDS
;	COMDAT ??_R3?$numpunct@D@std@@8
rdata$r	SEGMENT DWORD USE32 PUBLIC 'CONST'
rdata$r	ENDS
;	COMDAT ??_R3IData@@8
rdata$r	SEGMENT DWORD USE32 PUBLIC 'CONST'
rdata$r	ENDS
;	COMDAT ??_R3WebGamePanelWnd@@8
rdata$r	SEGMENT DWORD USE32 PUBLIC 'CONST'
rdata$r	ENDS
;	COMDAT ??_R3XDocHostUIHandler@CCustomControlSite@@8
rdata$r	SEGMENT DWORD USE32 PUBLIC 'CONST'
rdata$r	ENDS
;	COMDAT ??_R3CCustomOccManager@@8
rdata$r	SEGMENT DWORD USE32 PUBLIC 'CONST'
rdata$r	ENDS
;	COMDAT ??_R3IPanelChangeObserver@@8
rdata$r	SEGMENT DWORD USE32 PUBLIC 'CONST'
rdata$r	ENDS
;	COMDAT ??_R3XDocHostShowUI@CCustomControlSite@@8
rdata$r	SEGMENT DWORD USE32 PUBLIC 'CONST'
rdata$r	ENDS
;	COMDAT ??_R3CCustomControlSite@@8
rdata$r	SEGMENT DWORD USE32 PUBLIC 'CONST'
rdata$r	ENDS
;	COMDAT ??_R2IDocHostShowUI@@8
rdata$r	SEGMENT DWORD USE32 PUBLIC 'CONST'
rdata$r	ENDS
;	COMDAT ??_R2COccManager@@8
rdata$r	SEGMENT DWORD USE32 PUBLIC 'CONST'
rdata$r	ENDS
;	COMDAT ??_R2IDocHostUIHandler@@8
rdata$r	SEGMENT DWORD USE32 PUBLIC 'CONST'
rdata$r	ENDS
;	COMDAT ??_R2?$numpunct@_W@std@@8
rdata$r	SEGMENT DWORD USE32 PUBLIC 'CONST'
rdata$r	ENDS
;	COMDAT ??_R2?$numpunct@D@std@@8
rdata$r	SEGMENT DWORD USE32 PUBLIC 'CONST'
rdata$r	ENDS
;	COMDAT ??_R2IData@@8
rdata$r	SEGMENT DWORD USE32 PUBLIC 'CONST'
rdata$r	ENDS
;	COMDAT ??_R2WebGamePanelWnd@@8
rdata$r	SEGMENT DWORD USE32 PUBLIC 'CONST'
rdata$r	ENDS
;	COMDAT ??_R2XDocHostUIHandler@CCustomControlSite@@8
rdata$r	SEGMENT DWORD USE32 PUBLIC 'CONST'
rdata$r	ENDS
;	COMDAT ??_R2CCustomOccManager@@8
rdata$r	SEGMENT DWORD USE32 PUBLIC 'CONST'
rdata$r	ENDS
;	COMDAT ??_R2IPanelChangeObserver@@8
rdata$r	SEGMENT DWORD USE32 PUBLIC 'CONST'
rdata$r	ENDS
;	COMDAT ??_R2XDocHostShowUI@CCustomControlSite@@8
rdata$r	SEGMENT DWORD USE32 PUBLIC 'CONST'
rdata$r	ENDS
;	COMDAT ??_R2CCustomControlSite@@8
rdata$r	SEGMENT DWORD USE32 PUBLIC 'CONST'
rdata$r	ENDS
;	COMDAT ??_R1A@?0A@A@?$numpunct@_W@std@@8
rdata$r	SEGMENT DWORD USE32 PUBLIC 'CONST'
rdata$r	ENDS
;	COMDAT ??_R1A@?0A@A@facet@locale@std@@8
rdata$r	SEGMENT DWORD USE32 PUBLIC 'CONST'
rdata$r	ENDS
;	COMDAT ??_R0?AVfacet@locale@std@@@8
_DATA	SEGMENT DWORD USE32 PUBLIC 'DATA'
_DATA	ENDS
;	COMDAT ??_R1A@?0A@A@?$numpunct@D@std@@8
rdata$r	SEGMENT DWORD USE32 PUBLIC 'CONST'
rdata$r	ENDS
;	COMDAT ??_R1A@?0A@A@IData@@8
rdata$r	SEGMENT DWORD USE32 PUBLIC 'CONST'
rdata$r	ENDS
;	COMDAT ??_R1FE@?0A@A@IMessageObserver@@8
rdata$r	SEGMENT DWORD USE32 PUBLIC 'CONST'
rdata$r	ENDS
;	COMDAT ??_R1FE@?0A@A@IPanelChangeObserver@@8
rdata$r	SEGMENT DWORD USE32 PUBLIC 'CONST'
rdata$r	ENDS
;	COMDAT ??_R1A@?0A@A@CWnd@@8
rdata$r	SEGMENT DWORD USE32 PUBLIC 'CONST'
rdata$r	ENDS
;	COMDAT ??_R0?AVCWnd@@@8
_DATA	SEGMENT DWORD USE32 PUBLIC 'DATA'
_DATA	ENDS
;	COMDAT ??_R1A@?0A@A@CBasicWnd@@8
rdata$r	SEGMENT DWORD USE32 PUBLIC 'CONST'
rdata$r	ENDS
;	COMDAT ??_R1A@?0A@A@WebGamePanelWnd@@8
rdata$r	SEGMENT DWORD USE32 PUBLIC 'CONST'
rdata$r	ENDS
;	COMDAT ??_R1A@?0A@A@IDocHostUIHandler@@8
rdata$r	SEGMENT DWORD USE32 PUBLIC 'CONST'
rdata$r	ENDS
;	COMDAT ??_R1A@?0A@A@XDocHostUIHandler@CCustomControlSite@@8
rdata$r	SEGMENT DWORD USE32 PUBLIC 'CONST'
rdata$r	ENDS
;	COMDAT ??_R1A@?0A@A@CNoTrackObject@@8
rdata$r	SEGMENT DWORD USE32 PUBLIC 'CONST'
rdata$r	ENDS
;	COMDAT ??_R0?AVCNoTrackObject@@@8
_DATA	SEGMENT DWORD USE32 PUBLIC 'DATA'
_DATA	ENDS
;	COMDAT ??_R1A@?0A@A@COccManager@@8
rdata$r	SEGMENT DWORD USE32 PUBLIC 'CONST'
rdata$r	ENDS
;	COMDAT ??_R1A@?0A@A@CCustomOccManager@@8
rdata$r	SEGMENT DWORD USE32 PUBLIC 'CONST'
rdata$r	ENDS
;	COMDAT ??_R1A@?0A@A@IMessageObserver@@8
rdata$r	SEGMENT DWORD USE32 PUBLIC 'CONST'
rdata$r	ENDS
;	COMDAT ??_R1A@?0A@A@IPanelChangeObserver@@8
rdata$r	SEGMENT DWORD USE32 PUBLIC 'CONST'
rdata$r	ENDS
;	COMDAT ??_R1A@?0A@A@IUnknown@@8
rdata$r	SEGMENT DWORD USE32 PUBLIC 'CONST'
rdata$r	ENDS
;	COMDAT ??_R0?AUIUnknown@@@8
_DATA	SEGMENT DWORD USE32 PUBLIC 'DATA'
_DATA	ENDS
;	COMDAT ??_R1A@?0A@A@IDocHostShowUI@@8
rdata$r	SEGMENT DWORD USE32 PUBLIC 'CONST'
rdata$r	ENDS
;	COMDAT ??_R1A@?0A@A@XDocHostShowUI@CCustomControlSite@@8
rdata$r	SEGMENT DWORD USE32 PUBLIC 'CONST'
rdata$r	ENDS
;	COMDAT ??_R1A@?0A@A@CObject@@8
rdata$r	SEGMENT DWORD USE32 PUBLIC 'CONST'
rdata$r	ENDS
;	COMDAT ??_R0?AVCObject@@@8
_DATA	SEGMENT DWORD USE32 PUBLIC 'DATA'
_DATA	ENDS
;	COMDAT ??_R1A@?0A@A@CCmdTarget@@8
rdata$r	SEGMENT DWORD USE32 PUBLIC 'CONST'
rdata$r	ENDS
;	COMDAT ??_R0?AVCCmdTarget@@@8
_DATA	SEGMENT DWORD USE32 PUBLIC 'DATA'
_DATA	ENDS
;	COMDAT ??_R1A@?0A@A@COleControlSite@@8
rdata$r	SEGMENT DWORD USE32 PUBLIC 'CONST'
rdata$r	ENDS
;	COMDAT ??_R1A@?0A@A@CCustomControlSite@@8
rdata$r	SEGMENT DWORD USE32 PUBLIC 'CONST'
rdata$r	ENDS
;	COMDAT ??_R0?AV?$numpunct@_W@std@@@8
_DATA	SEGMENT DWORD USE32 PUBLIC 'DATA'
_DATA	ENDS
;	COMDAT ??_R0?AV?$numpunct@D@std@@@8
_DATA	SEGMENT DWORD USE32 PUBLIC 'DATA'
_DATA	ENDS
;	COMDAT ??_R0?AVIData@@@8
_DATA	SEGMENT DWORD USE32 PUBLIC 'DATA'
_DATA	ENDS
;	COMDAT ??_R0?AVIMessageObserver@@@8
_DATA	SEGMENT DWORD USE32 PUBLIC 'DATA'
_DATA	ENDS
;	COMDAT ??_R0?AVCBasicWnd@@@8
_DATA	SEGMENT DWORD USE32 PUBLIC 'DATA'
_DATA	ENDS
;	COMDAT ??_R0?AVWebGamePanelWnd@@@8
_DATA	SEGMENT DWORD USE32 PUBLIC 'DATA'
_DATA	ENDS
;	COMDAT ??_R0?AUIDocHostUIHandler@@@8
_DATA	SEGMENT DWORD USE32 PUBLIC 'DATA'
_DATA	ENDS
;	COMDAT ??_R0?AVXDocHostUIHandler@CCustomControlSite@@@8
_DATA	SEGMENT DWORD USE32 PUBLIC 'DATA'
_DATA	ENDS
;	COMDAT ??_R0?AVCOccManager@@@8
_DATA	SEGMENT DWORD USE32 PUBLIC 'DATA'
_DATA	ENDS
;	COMDAT ??_R0?AVCCustomOccManager@@@8
_DATA	SEGMENT DWORD USE32 PUBLIC 'DATA'
_DATA	ENDS
;	COMDAT ??_R0?AVIPanelChangeObserver@@@8
_DATA	SEGMENT DWORD USE32 PUBLIC 'DATA'
_DATA	ENDS
;	COMDAT ??_R0?AUIDocHostShowUI@@@8
_DATA	SEGMENT DWORD USE32 PUBLIC 'DATA'
_DATA	ENDS
;	COMDAT ??_R0?AVXDocHostShowUI@CCustomControlSite@@@8
_DATA	SEGMENT DWORD USE32 PUBLIC 'DATA'
_DATA	ENDS
;	COMDAT ??_R0?AVCOleControlSite@@@8
_DATA	SEGMENT DWORD USE32 PUBLIC 'DATA'
_DATA	ENDS
;	COMDAT ??_R0?AVCCustomControlSite@@@8
_DATA	SEGMENT DWORD USE32 PUBLIC 'DATA'
_DATA	ENDS
;	COMDAT ??_R4IDocHostShowUI@@6B@
rdata$r	SEGMENT DWORD USE32 PUBLIC 'CONST'
rdata$r	ENDS
;	COMDAT ??_R4COccManager@@6B@
rdata$r	SEGMENT DWORD USE32 PUBLIC 'CONST'
rdata$r	ENDS
;	COMDAT ??_R4IDocHostUIHandler@@6B@
rdata$r	SEGMENT DWORD USE32 PUBLIC 'CONST'
rdata$r	ENDS
;	COMDAT ??0?$allocator@_W@std@@QAE@XZ
_TEXT	SEGMENT PARA USE32 PUBLIC 'CODE'
_TEXT	ENDS
;	COMDAT ??_G?$numpunct@_W@std@@MAEPAXI@Z
_TEXT	SEGMENT PARA USE32 PUBLIC 'CODE'
_TEXT	ENDS
;	COMDAT ??_R4?$numpunct@_W@std@@6B@
rdata$r	SEGMENT DWORD USE32 PUBLIC 'CONST'
rdata$r	ENDS
;	COMDAT ??_G?$numpunct@D@std@@MAEPAXI@Z
_TEXT	SEGMENT PARA USE32 PUBLIC 'CODE'
_TEXT	ENDS
;	COMDAT ??_R4?$numpunct@D@std@@6B@
rdata$r	SEGMENT DWORD USE32 PUBLIC 'CONST'
rdata$r	ENDS
;	COMDAT ??_R4IData@@6B@
rdata$r	SEGMENT DWORD USE32 PUBLIC 'CONST'
rdata$r	ENDS
;	COMDAT ??_R4WebGamePanelWnd@@6BIPanelChangeObserver@@@
rdata$r	SEGMENT DWORD USE32 PUBLIC 'CONST'
rdata$r	ENDS
;	COMDAT ??_R4WebGamePanelWnd@@6BCBasicWnd@@@
rdata$r	SEGMENT DWORD USE32 PUBLIC 'CONST'
rdata$r	ENDS
;	COMDAT ??_R4XDocHostUIHandler@CCustomControlSite@@6B@
rdata$r	SEGMENT DWORD USE32 PUBLIC 'CONST'
rdata$r	ENDS
;	COMDAT ??_R4CCustomOccManager@@6B@
rdata$r	SEGMENT DWORD USE32 PUBLIC 'CONST'
rdata$r	ENDS
;	COMDAT ??_R4IPanelChangeObserver@@6B@
rdata$r	SEGMENT DWORD USE32 PUBLIC 'CONST'
rdata$r	ENDS
;	COMDAT ??_R4XDocHostShowUI@CCustomControlSite@@6B@
rdata$r	SEGMENT DWORD USE32 PUBLIC 'CONST'
rdata$r	ENDS
;	COMDAT ??_R4CCustomControlSite@@6B@
rdata$r	SEGMENT DWORD USE32 PUBLIC 'CONST'
rdata$r	ENDS
;	COMDAT ??_C@_0EN@CBMLGOH@D?3?2Program?5Files?5?$CIx86?$CJ?2Microsoft@
CONST	SEGMENT DWORD USE32 PUBLIC 'CONST'
CONST	ENDS
;	COMDAT ?_Psave@?$_Facetptr@V?$numpunct@_W@std@@@std@@2PBVfacet@locale@2@B
_DATA	SEGMENT DWORD USE32 PUBLIC 'DATA'
_DATA	ENDS
;	COMDAT ?_Psave@?$_Facetptr@V?$numpunct@D@std@@@std@@2PBVfacet@locale@2@B
_DATA	SEGMENT DWORD USE32 PUBLIC 'DATA'
_DATA	ENDS
;	COMDAT ?Unlock@CComCriticalSection@ATL@@QAEJXZ
_TEXT	SEGMENT PARA USE32 PUBLIC 'CODE'
_TEXT	ENDS
;	COMDAT ??_C@_0FG@LDNDNCJM@D?3?2Program?5Files?5?$CIx86?$CJ?2Microsoft@
CONST	SEGMENT DWORD USE32 PUBLIC 'CONST'
CONST	ENDS
;	COMDAT ??_C@_09HIEJFN@m_bLocked?$AA@
CONST	SEGMENT DWORD USE32 PUBLIC 'CONST'
CONST	ENDS
;	COMDAT ?_Psave@?$_Facetptr@V?$ctype@_W@std@@@std@@2PBVfacet@locale@2@B
_DATA	SEGMENT DWORD USE32 PUBLIC 'DATA'
_DATA	ENDS
;	COMDAT ?_Psave@?$_Facetptr@V?$ctype@D@std@@@std@@2PBVfacet@locale@2@B
_DATA	SEGMENT DWORD USE32 PUBLIC 'DATA'
_DATA	ENDS
;	COMDAT ??$_Maklocchr@_W@std@@YA_WDPA_WABU_Cvtvec@@@Z
_TEXT	SEGMENT PARA USE32 PUBLIC 'CODE'
_TEXT	ENDS
;	COMDAT ??$_DebugHeapDelete@X@std@@YAXPAX@Z
_TEXT	SEGMENT PARA USE32 PUBLIC 'CODE'
_TEXT	ENDS
;	COMDAT ??$_Maklocstr@_W@std@@YAPA_WPBDPA_WABU_Cvtvec@@@Z
_TEXT	SEGMENT PARA USE32 PUBLIC 'CODE'
_TEXT	ENDS
;	COMDAT ??$_Maklocchr@D@std@@YADDPADABU_Cvtvec@@@Z
_TEXT	SEGMENT PARA USE32 PUBLIC 'CODE'
_TEXT	ENDS
;	COMDAT ??_C@_04LOAJBDKD@true?$AA@
CONST	SEGMENT DWORD USE32 PUBLIC 'CONST'
CONST	ENDS
;	COMDAT ??_C@_05LAPONLG@false?$AA@
CONST	SEGMENT DWORD USE32 PUBLIC 'CONST'
CONST	ENDS
;	COMDAT _wmemcpy
_TEXT	SEGMENT PARA USE32 PUBLIC 'CODE'
_TEXT	ENDS
;	COMDAT ?max_size@?$allocator@_W@std@@QBEIXZ
_TEXT	SEGMENT PARA USE32 PUBLIC 'CODE'
_TEXT	ENDS
;	COMDAT ?allocate@?$allocator@_W@std@@QAEPA_WI@Z
_TEXT	SEGMENT PARA USE32 PUBLIC 'CODE'
_TEXT	ENDS
;	COMDAT ??$_Allocate@_W@std@@YAPA_WIPA_W@Z
_TEXT	SEGMENT PARA USE32 PUBLIC 'CODE'
_TEXT	ENDS
;	COMDAT ??_C@_01GFHCPBMG@C?$AA@
CONST	SEGMENT DWORD USE32 PUBLIC 'CONST'
CONST	ENDS
;	COMDAT ?max_size@?$allocator@D@std@@QBEIXZ
_TEXT	SEGMENT PARA USE32 PUBLIC 'CODE'
_TEXT	ENDS
;	COMDAT ?allocate@?$allocator@D@std@@QAEPADI@Z
_TEXT	SEGMENT PARA USE32 PUBLIC 'CODE'
_TEXT	ENDS
;	COMDAT ??$_Allocate@D@std@@YAPADIPAD@Z
_TEXT	SEGMENT PARA USE32 PUBLIC 'CODE'
_TEXT	ENDS
;	COMDAT ?deallocate@?$allocator@D@std@@QAEXPADI@Z
_TEXT	SEGMENT PARA USE32 PUBLIC 'CODE'
_TEXT	ENDS
;	COMDAT ?Release@CStringData@ATL@@QAEXXZ
_TEXT	SEGMENT PARA USE32 PUBLIC 'CODE'
_TEXT	ENDS
;	COMDAT ??_C@_0L@OIIMFBNE@nRefs?5?$CB?$DN?50?$AA@
CONST	SEGMENT DWORD USE32 PUBLIC 'CONST'
CONST	ENDS
;	COMDAT ??_C@_0FJ@DMHPDOJC@D?3?2Program?5Files?5?$CIx86?$CJ?2Microsoft@
CONST	SEGMENT DWORD USE32 PUBLIC 'CONST'
CONST	ENDS
;	COMDAT ??_C@_0BA@GOIMFHNK@pStringMgr?5?$CB?$DN?50?$AA@
CONST	SEGMENT DWORD USE32 PUBLIC 'CONST'
CONST	ENDS
;	COMDAT ?data@CStringData@ATL@@QAEPAXXZ
_TEXT	SEGMENT PARA USE32 PUBLIC 'CODE'
_TEXT	ENDS
;	COMDAT ??_C@_0BA@GNIEOBOF@nNewLength?5?$DO?$DN?50?$AA@
CONST	SEGMENT DWORD USE32 PUBLIC 'CONST'
CONST	ENDS
;	COMDAT ??_C@_0N@ILOMLJGA@nLength?5?$DO?$DN?50?$AA@
CONST	SEGMENT DWORD USE32 PUBLIC 'CONST'
CONST	ENDS
;	COMDAT ??_C@_0CD@EEFFJEGJ@nLength?5?$DM?$DN?5GetData?$CI?$CJ?9?$DOnAllocLeng@
CONST	SEGMENT DWORD USE32 PUBLIC 'CONST'
CONST	ENDS
;	COMDAT ?AtlThrow@ATL@@YGXJ@Z
_TEXT	SEGMENT PARA USE32 PUBLIC 'CODE'
_TEXT	ENDS
;	COMDAT ??RCTraceFileAndLineInfo@ATL@@QBAXKIPBDZZ
_TEXT	SEGMENT PARA USE32 PUBLIC 'CODE'
_TEXT	ENDS
;	COMDAT ?TraceV@CTrace@ATL@@QBAXPBDHKI0PAD@Z
_TEXT	SEGMENT PARA USE32 PUBLIC 'CODE'
_TEXT	ENDS
;	COMDAT ??0CTraceFileAndLineInfo@ATL@@QAE@PBDH@Z
_TEXT	SEGMENT PARA USE32 PUBLIC 'CODE'
_TEXT	ENDS
;	COMDAT ??_C@_0FI@NHHJANPC@D?3?2Program?5Files?5?$CIx86?$CJ?2Microsoft@
CONST	SEGMENT DWORD USE32 PUBLIC 'CONST'
CONST	ENDS
;	COMDAT ??_C@_0BF@IAAKIJDJ@AtlThrow?3?5hr?5?$DN?50x?$CFx?6?$AA@
CONST	SEGMENT DWORD USE32 PUBLIC 'CONST'
CONST	ENDS
;	COMDAT ??BCTraceCategory@ATL@@QBEKXZ
_TEXT	SEGMENT PARA USE32 PUBLIC 'CODE'
_TEXT	ENDS
;	COMDAT ?IsShared@CStringData@ATL@@QBE_NXZ
_TEXT	SEGMENT PARA USE32 PUBLIC 'CODE'
_TEXT	ENDS
;	COMDAT ??_C@_0CB@GFHAPKDK@pOldData?9?$DOnAllocLength?5?$DM?5nLength@
CONST	SEGMENT DWORD USE32 PUBLIC 'CONST'
CONST	ENDS
;	COMDAT ?_Peek@?$istreambuf_iterator@_WU?$char_traits@_W@std@@@std@@AAE_WXZ
_TEXT	SEGMENT PARA USE32 PUBLIC 'CODE'
_TEXT	ENDS
;	COMDAT ?_Peek@?$istreambuf_iterator@DU?$char_traits@D@std@@@std@@AAEDXZ
_TEXT	SEGMENT PARA USE32 PUBLIC 'CODE'
_TEXT	ENDS
;	COMDAT ??$use_facet@V?$ctype@_W@std@@@std@@YAABV?$ctype@_W@0@ABVlocale@0@@Z
_TEXT	SEGMENT PARA USE32 PUBLIC 'CODE'
_TEXT	ENDS
;	COMDAT ??_S?$ctype@_W@std@@6B@
CONST	SEGMENT DWORD USE32 PUBLIC 'CONST'
CONST	ENDS
;	COMDAT ??_R4?$ctype@_W@std@@6B@
rdata$r	SEGMENT DWORD USE32 PUBLIC 'CONST'
rdata$r	ENDS
;	COMDAT ??_R0?AV?$ctype@_W@std@@@8
_DATA	SEGMENT DWORD USE32 PUBLIC 'DATA'
_DATA	ENDS
;	COMDAT ??_R3?$ctype@_W@std@@8
rdata$r	SEGMENT DWORD USE32 PUBLIC 'CONST'
rdata$r	ENDS
;	COMDAT ??_R2?$ctype@_W@std@@8
rdata$r	SEGMENT DWORD USE32 PUBLIC 'CONST'
rdata$r	ENDS
;	COMDAT ??_R1A@?0A@A@?$ctype@_W@std@@8
rdata$r	SEGMENT DWORD USE32 PUBLIC 'CONST'
rdata$r	ENDS
;	COMDAT ??_R1A@?0A@A@ctype_base@std@@8
rdata$r	SEGMENT DWORD USE32 PUBLIC 'CONST'
rdata$r	ENDS
;	COMDAT ??_R0?AUctype_base@std@@@8
_DATA	SEGMENT DWORD USE32 PUBLIC 'DATA'
_DATA	ENDS
;	COMDAT ??_G?$ctype@_W@std@@MAEPAXI@Z
_TEXT	SEGMENT PARA USE32 PUBLIC 'CODE'
_TEXT	ENDS
;	COMDAT ??_C@_08EPJLHIJG@bad?5cast?$AA@
CONST	SEGMENT DWORD USE32 PUBLIC 'CONST'
CONST	ENDS
;	COMDAT __TI2?AVbad_cast@@
xdata$x	SEGMENT DWORD USE32 PUBLIC 'CONST'
xdata$x	ENDS
;	COMDAT __CTA2?AVbad_cast@@
xdata$x	SEGMENT DWORD USE32 PUBLIC 'CONST'
xdata$x	ENDS
;	COMDAT __CT??_R0?AVbad_cast@@@8??0bad_cast@@QAE@ABV0@@Z12
xdata$x	SEGMENT DWORD USE32 PUBLIC 'CONST'
xdata$x	ENDS
;	COMDAT ??_R0?AVbad_cast@@@8
_DATA	SEGMENT DWORD USE32 PUBLIC 'DATA'
_DATA	ENDS
;	COMDAT __CT??_R0?AVexception@@@8??0exception@@QAE@ABV0@@Z12
xdata$x	SEGMENT DWORD USE32 PUBLIC 'CONST'
xdata$x	ENDS
;	COMDAT ??_R0?AVexception@@@8
_DATA	SEGMENT DWORD USE32 PUBLIC 'DATA'
_DATA	ENDS
;	COMDAT ??$_DebugHeapDelete@Vfacet@locale@std@@@std@@YAXPAVfacet@locale@0@@Z
_TEXT	SEGMENT PARA USE32 PUBLIC 'CODE'
_TEXT	ENDS
;	COMDAT ??$use_facet@V?$ctype@D@std@@@std@@YAABV?$ctype@D@0@ABVlocale@0@@Z
_TEXT	SEGMENT PARA USE32 PUBLIC 'CODE'
_TEXT	ENDS
;	COMDAT ??_S?$ctype@D@std@@6B@
CONST	SEGMENT DWORD USE32 PUBLIC 'CONST'
CONST	ENDS
;	COMDAT ??_R4?$ctype@D@std@@6B@
rdata$r	SEGMENT DWORD USE32 PUBLIC 'CONST'
rdata$r	ENDS
;	COMDAT ??_R0?AV?$ctype@D@std@@@8
_DATA	SEGMENT DWORD USE32 PUBLIC 'DATA'
_DATA	ENDS
;	COMDAT ??_R3?$ctype@D@std@@8
rdata$r	SEGMENT DWORD USE32 PUBLIC 'CONST'
rdata$r	ENDS
;	COMDAT ??_R2?$ctype@D@std@@8
rdata$r	SEGMENT DWORD USE32 PUBLIC 'CONST'
rdata$r	ENDS
;	COMDAT ??_R1A@?0A@A@?$ctype@D@std@@8
rdata$r	SEGMENT DWORD USE32 PUBLIC 'CONST'
rdata$r	ENDS
;	COMDAT ??_G?$ctype@D@std@@MAEPAXI@Z
_TEXT	SEGMENT PARA USE32 PUBLIC 'CODE'
_TEXT	ENDS
;	COMDAT ??_S?$numpunct@_W@std@@6B@
CONST	SEGMENT DWORD USE32 PUBLIC 'CONST'
CONST	ENDS
;	COMDAT ??_S?$numpunct@D@std@@6B@
CONST	SEGMENT DWORD USE32 PUBLIC 'CONST'
CONST	ENDS
;	COMDAT _wmemmove
_TEXT	SEGMENT PARA USE32 PUBLIC 'CODE'
_TEXT	ENDS
;	COMDAT ?deallocate@?$allocator@_W@std@@QAEXPA_WI@Z
_TEXT	SEGMENT PARA USE32 PUBLIC 'CODE'
_TEXT	ENDS
;	COMDAT ??0?$allocator@_W@std@@QAE@ABV01@@Z
_TEXT	SEGMENT PARA USE32 PUBLIC 'CODE'
_TEXT	ENDS
;	COMDAT ??0?$allocator@D@std@@QAE@ABV01@@Z
_TEXT	SEGMENT PARA USE32 PUBLIC 'CODE'
_TEXT	ENDS
;	COMDAT ??0?$allocator@D@std@@QAE@XZ
_TEXT	SEGMENT PARA USE32 PUBLIC 'CODE'
_TEXT	ENDS
;	COMDAT ?_messageEntries@WebGamePanelWnd@@0QBUAFX_MSGMAP_ENTRY@@B
CONST	SEGMENT DWORD USE32 PUBLIC 'CONST'
CONST	ENDS
;	COMDAT ?messageMap@WebGamePanelWnd@@1UAFX_MSGMAP@@B
CONST	SEGMENT DWORD USE32 PUBLIC 'CONST'
CONST	ENDS
;	COMDAT ??_7IMessageObserver@@6B@
CONST	SEGMENT DWORD USE32 PUBLIC 'CONST'
CONST	ENDS
;	COMDAT ??_R4IMessageObserver@@6B@
rdata$r	SEGMENT DWORD USE32 PUBLIC 'CONST'
rdata$r	ENDS
;	COMDAT ??_R3IMessageObserver@@8
rdata$r	SEGMENT DWORD USE32 PUBLIC 'CONST'
rdata$r	ENDS
;	COMDAT ??_R2IMessageObserver@@8
rdata$r	SEGMENT DWORD USE32 PUBLIC 'CONST'
rdata$r	ENDS
;	COMDAT ??_GIMessageObserver@@UAEPAXI@Z
_TEXT	SEGMENT PARA USE32 PUBLIC 'CODE'
_TEXT	ENDS
;	COMDAT ??_7IPanelChangeObserver@@6B@
CONST	SEGMENT DWORD USE32 PUBLIC 'CONST'
CONST	ENDS
;	COMDAT ??1IMessageObserver@@UAE@XZ
_TEXT	SEGMENT PARA USE32 PUBLIC 'CODE'
_TEXT	ENDS
;	COMDAT ??_7WebGamePanelWnd@@6BIPanelChangeObserver@@@
CONST	SEGMENT DWORD USE32 PUBLIC 'CONST'
CONST	ENDS
;	COMDAT ??_7WebGamePanelWnd@@6BCBasicWnd@@@
CONST	SEGMENT DWORD USE32 PUBLIC 'CONST'
CONST	ENDS
;	COMDAT ?classWebGamePanelWnd@WebGamePanelWnd@@2UCRuntimeClass@@B
CONST	SEGMENT DWORD USE32 PUBLIC 'CONST'
CONST	ENDS
;	COMDAT ??_7IData@@6B@
CONST	SEGMENT DWORD USE32 PUBLIC 'CONST'
CONST	ENDS
;	COMDAT ?IsLocked@CStringData@ATL@@QBE_NXZ
_TEXT	SEGMENT PARA USE32 PUBLIC 'CODE'
_TEXT	ENDS
;	COMDAT ?AddRef@CStringData@ATL@@QAEXXZ
_TEXT	SEGMENT PARA USE32 PUBLIC 'CODE'
_TEXT	ENDS
;	COMDAT ??_C@_09EEBKLCFA@nRefs?5?$DO?50?$AA@
CONST	SEGMENT DWORD USE32 PUBLIC 'CONST'
CONST	ENDS
;	COMDAT ?GetDefaultManager@?$StrTraitMFC_DLL@DV?$ChTraitsCRT@D@ATL@@@@SAPAUIAtlStringMgr@ATL@@XZ
_TEXT	SEGMENT PARA USE32 PUBLIC 'CODE'
_TEXT	ENDS
;	COMDAT ?FindStringResourceInstance@?$StrTraitMFC_DLL@DV?$ChTraitsCRT@D@ATL@@@@SAPAUHINSTANCE__@@I@Z
_TEXT	SEGMENT PARA USE32 PUBLIC 'CODE'
_TEXT	ENDS
;	COMDAT ?AtlGetStringResourceImage@ATL@@YAPBUATLSTRINGRESOURCEIMAGE@1@PAUHINSTANCE__@@I@Z
_TEXT	SEGMENT PARA USE32 PUBLIC 'CODE'
_TEXT	ENDS
;	COMDAT ?_AtlGetStringResourceImage@ATL@@YAPBUATLSTRINGRESOURCEIMAGE@1@PAUHINSTANCE__@@PAUHRSRC__@@I@Z
_TEXT	SEGMENT PARA USE32 PUBLIC 'CODE'
_TEXT	ENDS
;	COMDAT ?GetBaseTypeLength@?$ChTraitsCRT@D@ATL@@SAHPB_WH@Z
_TEXT	SEGMENT PARA USE32 PUBLIC 'CODE'
_TEXT	ENDS
;	COMDAT ?_AtlGetConversionACP@ATL@@YGIXZ
_TEXT	SEGMENT PARA USE32 PUBLIC 'CODE'
_TEXT	ENDS
;	COMDAT ?g_pfnGetThreadACP@ATL@@3P6GIXZA
_DATA	SEGMENT DWORD USE32 PUBLIC 'DATA'
_DATA	ENDS
;	COMDAT ?_AtlGetThreadACPThunk@ATL@@YGIXZ
_TEXT	SEGMENT PARA USE32 PUBLIC 'CODE'
_TEXT	ENDS
;	COMDAT ?_AtlGetThreadACPReal@ATL@@YGIXZ
_TEXT	SEGMENT PARA USE32 PUBLIC 'CODE'
_TEXT	ENDS
;	COMDAT ?_AtlGetThreadACPFake@ATL@@YGIXZ
_TEXT	SEGMENT PARA USE32 PUBLIC 'CODE'
_TEXT	ENDS
;	COMDAT ?InterlockedExchangePointer@@YGPAXPAPAXPAX@Z
_TEXT	SEGMENT PARA USE32 PUBLIC 'CODE'
_TEXT	ENDS
;	COMDAT ?ConvertToBaseType@?$ChTraitsCRT@D@ATL@@SAXPADHPB_WH@Z
_TEXT	SEGMENT PARA USE32 PUBLIC 'CODE'
_TEXT	ENDS
;	COMDAT ??_C@_0FH@KDPNIMBO@D?3?2Program?5Files?5?$CIx86?$CJ?2Microsoft@
CONST	SEGMENT DWORD USE32 PUBLIC 'CONST'
CONST	ENDS
;	COMDAT ??_C@_0CJ@FJEKGMMD@Warning?3?5implicit?5LoadString?$CI?$CFu?$CJ@
CONST	SEGMENT DWORD USE32 PUBLIC 'CONST'
CONST	ENDS
;	COMDAT ??_7CNoTrackObject@@6B@
CONST	SEGMENT DWORD USE32 PUBLIC 'CONST'
CONST	ENDS
;	COMDAT ??_R4CNoTrackObject@@6B@
rdata$r	SEGMENT DWORD USE32 PUBLIC 'CONST'
rdata$r	ENDS
;	COMDAT ??_R3CNoTrackObject@@8
rdata$r	SEGMENT DWORD USE32 PUBLIC 'CONST'
rdata$r	ENDS
;	COMDAT ??_R2CNoTrackObject@@8
rdata$r	SEGMENT DWORD USE32 PUBLIC 'CONST'
rdata$r	ENDS
;	COMDAT ??_7COccManager@@6B@
CONST	SEGMENT DWORD USE32 PUBLIC 'CONST'
CONST	ENDS
;	COMDAT ??1CNoTrackObject@@UAE@XZ
_TEXT	SEGMENT PARA USE32 PUBLIC 'CODE'
_TEXT	ENDS
;	COMDAT ??_7CCustomOccManager@@6B@
CONST	SEGMENT DWORD USE32 PUBLIC 'CONST'
CONST	ENDS
;	COMDAT ??0IUnknown@@QAE@XZ
_TEXT	SEGMENT PARA USE32 PUBLIC 'CODE'
_TEXT	ENDS
;	COMDAT ??_7XDocHostUIHandler@CCustomControlSite@@6B@
CONST	SEGMENT DWORD USE32 PUBLIC 'CONST'
CONST	ENDS
;	COMDAT ??_7XDocHostShowUI@CCustomControlSite@@6B@
CONST	SEGMENT DWORD USE32 PUBLIC 'CONST'
CONST	ENDS
;	COMDAT ??_7CCustomControlSite@@6B@
CONST	SEGMENT DWORD USE32 PUBLIC 'CONST'
CONST	ENDS
;	COMDAT ?clsid@?1??GetClsid@CShockwaveFlash@@QAEABU_GUID@@XZ@4U3@B
CONST	SEGMENT DWORD USE32 PUBLIC 'CONST'
CONST	ENDS
sxdata	SEGMENT DWORD USE32 'SXDATA'
sxdata	ENDS
FLAT	GROUP _DATA, CONST, _BSS
	ASSUME	CS: FLAT, DS: FLAT, SS: FLAT
endif

INCLUDELIB MSVCRTD
INCLUDELIB OLDNAMES

PUBLIC	?g_pfnGetThreadACP@ATL@@3P6GIXZA		; ATL::g_pfnGetThreadACP
PUBLIC	?_AtlGetThreadACPThunk@ATL@@YGIXZ		; ATL::_AtlGetThreadACPThunk
PUBLIC	?classWebGamePanelWnd@WebGamePanelWnd@@2UCRuntimeClass@@B ; WebGamePanelWnd::classWebGamePanelWnd
PUBLIC	?_messageEntries@WebGamePanelWnd@@0QBUAFX_MSGMAP_ENTRY@@B ; WebGamePanelWnd::_messageEntries
PUBLIC	?messageMap@WebGamePanelWnd@@1UAFX_MSGMAP@@B	; WebGamePanelWnd::messageMap
PUBLIC	?OnCreate@WebGamePanelWnd@@IAEHPAUtagCREATESTRUCTA@@@Z ; WebGamePanelWnd::OnCreate
PUBLIC	?OnDestroy@WebGamePanelWnd@@IAEXXZ		; WebGamePanelWnd::OnDestroy
PUBLIC	?OnEraseBkgnd@WebGamePanelWnd@@IAEHPAVCDC@@@Z	; WebGamePanelWnd::OnEraseBkgnd
EXTRN	?GetThisClass@CBasicWnd@@SGPAUCRuntimeClass@@XZ:NEAR ; CBasicWnd::GetThisClass
EXTRN	?GetThisMessageMap@CBasicWnd@@KGPBUAFX_MSGMAP@@XZ:NEAR ; CBasicWnd::GetThisMessageMap
CONST	SEGMENT
$SG187788 DB	'int', 00H
CONST	ENDS
_DATA	SEGMENT
_TYPE_CONFIG_INT DD FLAT:$SG187788
_DATA	ENDS
CONST	SEGMENT
$SG187790 DB	'str', 00H
CONST	ENDS
_DATA	SEGMENT
_TYPE_CONFIG_STR DD FLAT:$SG187790
_DATA	ENDS
CONST	SEGMENT
$SG187792 DB	'double', 00H
CONST	ENDS
_DATA	SEGMENT
_TYPE_CONFIG_DOUBLE DD FLAT:$SG187792
_DATA	ENDS
CONST	SEGMENT
	ORG $+1
$SG187794 DB	'bool', 00H
CONST	ENDS
_DATA	SEGMENT
_TYPE_CONFIG_BOOL DD FLAT:$SG187794
_DATA	ENDS
CONST	SEGMENT
	ORG $+3
$SG187796 DB	'sepint', 00H
CONST	ENDS
_DATA	SEGMENT
_TYPE_CONFIG_INT_HASSEP DD FLAT:$SG187796
_DATA	ENDS
CONST	SEGMENT
	ORG $+1
$SG187798 DB	'sepstr', 00H
CONST	ENDS
_DATA	SEGMENT
_TYPE_CONFIG_STR_HASSEP DD FLAT:$SG187798
_DATA	ENDS
CONST	SEGMENT
	ORG $+1
$SG187800 DB	'sepdouble', 00H
CONST	ENDS
_DATA	SEGMENT
_TYPE_CONFIG_DOUBLE_HASSEP DD FLAT:$SG187800
_DATA	ENDS
CONST	SEGMENT
	ORG $+2
$SG187802 DB	'sepbool', 00H
CONST	ENDS
_DATA	SEGMENT
_TYPE_CONFIG_BOOL_HASSEP DD FLAT:$SG187802
_DATA	ENDS
CONST	SEGMENT
$SG187804 DB	'App', 00H
CONST	ENDS
_DATA	SEGMENT
_CONF_APP_MODULE_NAME DD FLAT:$SG187804
_DATA	ENDS
CONST	SEGMENT
$SG187806 DB	'SwfPath', 00H
CONST	ENDS
_DATA	SEGMENT
_CONF_APP_SWF_PATH DD FLAT:$SG187806
_DATA	ENDS
CONST	SEGMENT
$SG187808 DB	'MainWndHold', 00H
CONST	ENDS
_DATA	SEGMENT
_CONF_APP_MAINWND_HOLD DD FLAT:$SG187808
_DATA	ENDS
CONST	SEGMENT
$SG187810 DB	'RunCount', 00H
CONST	ENDS
_DATA	SEGMENT
_CONF_APP_RUN_COUNT DD FLAT:$SG187810
_DATA	ENDS
CONST	SEGMENT
	ORG $+3
$SG187812 DB	'PlayedGame', 00H
CONST	ENDS
_DATA	SEGMENT
_CONF_APP_PLAYED_GAME DD FLAT:$SG187812
_DATA	ENDS
CONST	SEGMENT
	ORG $+1
$SG187814 DB	'playedPcGame', 00H
CONST	ENDS
_DATA	SEGMENT
_CONF_APP_PLAYED_PC_GAME DD FLAT:$SG187814
_DATA	ENDS
CONST	SEGMENT
	ORG $+3
$SG187816 DB	'PlayedIconSize', 00H
CONST	ENDS
_DATA	SEGMENT
_CONF_APP_PLAYED_ICON_SIZE DD FLAT:$SG187816
_DATA	ENDS
CONST	SEGMENT
	ORG $+1
$SG187818 DB	'PictureSavePath', 00H
CONST	ENDS
_DATA	SEGMENT
_CONF_APP_PIC_SAVE_PATH DD FLAT:$SG187818
_DATA	ENDS
CONST	SEGMENT
$SG189325 DB	'WebGamePanelWnd', 00H
CONST	ENDS
;	COMDAT ?classWebGamePanelWnd@WebGamePanelWnd@@2UCRuntimeClass@@B
CONST	SEGMENT
?classWebGamePanelWnd@WebGamePanelWnd@@2UCRuntimeClass@@B DD FLAT:$SG189325 ; WebGamePanelWnd::classWebGamePanelWnd
	DD	0dcH
	DD	0ffffH
	DD	00H
	DD	FLAT:?GetThisClass@CBasicWnd@@SGPAUCRuntimeClass@@XZ
	DD	00H
	DD	00H
CONST	ENDS
;	COMDAT ?_messageEntries@WebGamePanelWnd@@0QBUAFX_MSGMAP_ENTRY@@B
CONST	SEGMENT
?_messageEntries@WebGamePanelWnd@@0QBUAFX_MSGMAP_ENTRY@@B DD 01H ; WebGamePanelWnd::_messageEntries
	DD	00H
	DD	00H
	DD	00H
	DD	0dH
	DD	FLAT:?OnCreate@WebGamePanelWnd@@IAEHPAUtagCREATESTRUCTA@@@Z
	DD	02H
	DD	00H
	DD	00H
	DD	00H
	DD	010H
	DD	FLAT:?OnDestroy@WebGamePanelWnd@@IAEXXZ
	DD	014H
	DD	00H
	DD	00H
	DD	00H
	DD	01H
	DD	FLAT:?OnEraseBkgnd@WebGamePanelWnd@@IAEHPAVCDC@@@Z
	DD	00H
	DD	00H
	DD	00H
	DD	00H
	DD	00H
	DD	00H
CONST	ENDS
;	COMDAT ?messageMap@WebGamePanelWnd@@1UAFX_MSGMAP@@B
CONST	SEGMENT
?messageMap@WebGamePanelWnd@@1UAFX_MSGMAP@@B DD FLAT:?GetThisMessageMap@CBasicWnd@@KGPBUAFX_MSGMAP@@XZ ; WebGamePanelWnd::messageMap
	DD	FLAT:?_messageEntries@WebGamePanelWnd@@0QBUAFX_MSGMAP_ENTRY@@B
CONST	ENDS
CONST	SEGMENT
$SG189399 DB	'WebGamePlaying', 00H
	ORG $+1
$SG189401 DB	'WebGameRight', 00H
	ORG $+3
$SG189404 DB	'normal', 00H
	ORG $+1
$SG189405 DB	'webgamepanel', 00H
	ORG $+3
$SG189408 DB	'normal', 00H
	ORG $+1
$SG189409 DB	'webgamepanel', 00H
	ORG $+3
$SG189419 DB	'id', 00H
	ORG $+1
$SG189422 DB	'url', 00H
$SG189443 DB	'===IN', 00H
	ORG $+2
$SG189444 DB	'WebGamePanelWnd::IPanelChangeOb_ToFullScreen', 00H
	ORG $+3
$SG189445 DB	'WebGamePanelWnd.txt', 00H
$SG189455 DB	'===OUT', 00H
	ORG $+1
$SG189456 DB	'WebGamePanelWnd::IPanelChangeOb_ToFullScreen', 00H
	ORG $+3
$SG189457 DB	'WebGamePanelWnd.txt', 00H
$SG189464 DB	'===IN', 00H
	ORG $+2
$SG189465 DB	'WebGamePanelWnd::SetMainWindow', 00H
	ORG $+1
$SG189466 DB	'WebGamePanelWnd.txt', 00H
$SG189475 DB	'===OUT', 00H
	ORG $+1
$SG189476 DB	'WebGamePanelWnd::SetMainWindow', 00H
	ORG $+1
$SG189477 DB	'WebGamePanelWnd.txt', 00H
$SG189484 DB	'===IN', 00H
	ORG $+2
$SG189485 DB	'WebGamePanelWnd::IPanelChangeOb_ExitFullScreen', 00H
	ORG $+1
$SG189486 DB	'WebGamePanelWnd.txt', 00H
$SG189497 DB	'===OUT', 00H
	ORG $+1
$SG189498 DB	'WebGamePanelWnd::IPanelChangeOb_ExitFullScreen', 00H
	ORG $+1
$SG189499 DB	'WebGamePanelWnd.txt', 00H
CONST	ENDS
;	COMDAT ?g_pfnGetThreadACP@ATL@@3P6GIXZA
_DATA	SEGMENT
?g_pfnGetThreadACP@ATL@@3P6GIXZA DD FLAT:?_AtlGetThreadACPThunk@ATL@@YGIXZ ; ATL::g_pfnGetThreadACP
_DATA	ENDS
CONST	SEGMENT
_ID_MESSAGE_PANEL_CHANGE DD 02H
CONST	ENDS
PUBLIC	?GetThisClass@WebGamePanelWnd@@SGPAUCRuntimeClass@@XZ ; WebGamePanelWnd::GetThisClass
EXTRN	__RTC_InitBase:NEAR
EXTRN	__RTC_Shutdown:NEAR
;	COMDAT rtc$IMZ
; File d:\boxgit\playbox\playbox\dev\prj\playbox\src\module\gamepanel\webgamepanelwnd.cpp
rtc$IMZ	SEGMENT
__RTC_InitBase.rtc$IMZ DD FLAT:__RTC_InitBase
rtc$IMZ	ENDS
;	COMDAT rtc$TMZ
rtc$TMZ	SEGMENT
__RTC_Shutdown.rtc$TMZ DD FLAT:__RTC_Shutdown
; Function compile flags: /Odt /RTCsu
rtc$TMZ	ENDS
_TEXT	SEGMENT
?GetThisClass@WebGamePanelWnd@@SGPAUCRuntimeClass@@XZ PROC NEAR ; WebGamePanelWnd::GetThisClass

; 10   : IMPLEMENT_DYNAMIC(WebGamePanelWnd, CBasicWnd)

  00000	55		 push	 ebp
  00001	8b ec		 mov	 ebp, esp
  00003	b8 00 00 00 00	 mov	 eax, OFFSET FLAT:?classWebGamePanelWnd@WebGamePanelWnd@@2UCRuntimeClass@@B ; WebGamePanelWnd::classWebGamePanelWnd
  00008	5d		 pop	 ebp
  00009	c3		 ret	 0
?GetThisClass@WebGamePanelWnd@@SGPAUCRuntimeClass@@XZ ENDP ; WebGamePanelWnd::GetThisClass
_TEXT	ENDS
PUBLIC	?GetRuntimeClass@WebGamePanelWnd@@UBEPAUCRuntimeClass@@XZ ; WebGamePanelWnd::GetRuntimeClass
; Function compile flags: /Odt /RTCsu
_TEXT	SEGMENT
_this$ = -4						; size = 4
?GetRuntimeClass@WebGamePanelWnd@@UBEPAUCRuntimeClass@@XZ PROC NEAR ; WebGamePanelWnd::GetRuntimeClass
; _this$ = ecx

; 10   : IMPLEMENT_DYNAMIC(WebGamePanelWnd, CBasicWnd)

  00010	55		 push	 ebp
  00011	8b ec		 mov	 ebp, esp
  00013	51		 push	 ecx
  00014	c7 45 fc cc cc
	cc cc		 mov	 DWORD PTR [ebp-4], -858993460 ; ccccccccH
  0001b	89 4d fc	 mov	 DWORD PTR _this$[ebp], ecx
  0001e	b8 00 00 00 00	 mov	 eax, OFFSET FLAT:?classWebGamePanelWnd@WebGamePanelWnd@@2UCRuntimeClass@@B ; WebGamePanelWnd::classWebGamePanelWnd
  00023	8b e5		 mov	 esp, ebp
  00025	5d		 pop	 ebp
  00026	c3		 ret	 0
?GetRuntimeClass@WebGamePanelWnd@@UBEPAUCRuntimeClass@@XZ ENDP ; WebGamePanelWnd::GetRuntimeClass
_TEXT	ENDS
PUBLIC	??0WEB_GAME@@QAE@XZ				; WEB_GAME::WEB_GAME
PUBLIC	??1WEB_GAME@@QAE@XZ				; WEB_GAME::~WEB_GAME
PUBLIC	??_R0?AVIPanelChangeObserver@@@8		; IPanelChangeObserver `RTTI Type Descriptor'
PUBLIC	??_R4WebGamePanelWnd@@6BCBasicWnd@@@		; WebGamePanelWnd::`RTTI Complete Object Locator'
PUBLIC	??_R0?AVWebGamePanelWnd@@@8			; WebGamePanelWnd `RTTI Type Descriptor'
PUBLIC	??_R3WebGamePanelWnd@@8				; WebGamePanelWnd::`RTTI Class Hierarchy Descriptor'
PUBLIC	??_R2WebGamePanelWnd@@8				; WebGamePanelWnd::`RTTI Base Class Array'
PUBLIC	??_R1A@?0A@A@WebGamePanelWnd@@8			; WebGamePanelWnd::`RTTI Base Class Descriptor at (0,-1,0,0)'
PUBLIC	??_R1A@?0A@A@CBasicWnd@@8			; CBasicWnd::`RTTI Base Class Descriptor at (0,-1,0,0)'
PUBLIC	??_R0?AVCBasicWnd@@@8				; CBasicWnd `RTTI Type Descriptor'
PUBLIC	??_R1FE@?0A@A@IPanelChangeObserver@@8		; IPanelChangeObserver::`RTTI Base Class Descriptor at (84,-1,0,0)'
PUBLIC	??_R1FE@?0A@A@IMessageObserver@@8		; IMessageObserver::`RTTI Base Class Descriptor at (84,-1,0,0)'
PUBLIC	??_EWebGamePanelWnd@@WFE@AEPAXI@Z		; [thunk]:WebGamePanelWnd::`vector deleting destructor'
PUBLIC	??_R4WebGamePanelWnd@@6BIPanelChangeObserver@@@	; WebGamePanelWnd::`RTTI Complete Object Locator'
PUBLIC	??_R1A@?0A@A@CWnd@@8				; CWnd::`RTTI Base Class Descriptor at (0,-1,0,0)'
PUBLIC	??_R0?AVCWnd@@@8				; CWnd `RTTI Type Descriptor'
PUBLIC	??_R1A@?0A@A@CCmdTarget@@8			; CCmdTarget::`RTTI Base Class Descriptor at (0,-1,0,0)'
PUBLIC	??_R0?AVCCmdTarget@@@8				; CCmdTarget `RTTI Type Descriptor'
PUBLIC	??_R1A@?0A@A@CObject@@8				; CObject::`RTTI Base Class Descriptor at (0,-1,0,0)'
PUBLIC	??_R0?AVCObject@@@8				; CObject `RTTI Type Descriptor'
PUBLIC	??_R0?AVIMessageObserver@@@8			; IMessageObserver `RTTI Type Descriptor'
PUBLIC	?IPanelChangeOb_WindowMax@IPanelChangeObserver@@UAEXXZ ; IPanelChangeObserver::IPanelChangeOb_WindowMax
PUBLIC	?IPanelChangeOb_WindowMin@IPanelChangeObserver@@UAEXXZ ; IPanelChangeObserver::IPanelChangeOb_WindowMin
PUBLIC	?IPanelChangeOb_WindowRestore@IPanelChangeObserver@@UAEXXZ ; IPanelChangeObserver::IPanelChangeOb_WindowRestore
PUBLIC	?IPanelChangeOb_WindowClose@IPanelChangeObserver@@UAEXXZ ; IPanelChangeObserver::IPanelChangeOb_WindowClose
PUBLIC	??0IPanelChangeObserver@@QAE@XZ			; IPanelChangeObserver::IPanelChangeObserver
PUBLIC	??1IPanelChangeObserver@@UAE@XZ			; IPanelChangeObserver::~IPanelChangeObserver
PUBLIC	??0WebGamePanelWnd@@QAE@XZ			; WebGamePanelWnd::WebGamePanelWnd
PUBLIC	?GetMessageMap@WebGamePanelWnd@@MBEPBUAFX_MSGMAP@@XZ ; WebGamePanelWnd::GetMessageMap
PUBLIC	?IPanelChangeOb_ToFullScreen@WebGamePanelWnd@@UAEXPAVCWnd@@@Z ; WebGamePanelWnd::IPanelChangeOb_ToFullScreen
PUBLIC	?IPanelChangeOb_ExitFullScreen@WebGamePanelWnd@@UAEXPAVCWnd@@@Z ; WebGamePanelWnd::IPanelChangeOb_ExitFullScreen
PUBLIC	??_7WebGamePanelWnd@@6BCBasicWnd@@@		; WebGamePanelWnd::`vftable'
PUBLIC	??_7WebGamePanelWnd@@6BIPanelChangeObserver@@@	; WebGamePanelWnd::`vftable'
PUBLIC	??_GWebGamePanelWnd@@UAEPAXI@Z			; WebGamePanelWnd::`scalar deleting destructor'
EXTRN	?GetInterfaceMap@CWnd@@MBEPBUAFX_INTERFACEMAP@@XZ:NEAR ; CWnd::GetInterfaceMap
EXTRN	?EnsureStdObj@CWnd@@UAEJXZ:NEAR			; CWnd::EnsureStdObj
EXTRN	?get_accParent@CWnd@@UAEJPAPAUIDispatch@@@Z:NEAR ; CWnd::get_accParent
EXTRN	?OnCmdMsg@CCmdTarget@@UAEHIHPAXPAUAFX_CMDHANDLERINFO@@@Z:NEAR ; CCmdTarget::OnCmdMsg
EXTRN	?get_accChildCount@CWnd@@UAEJPAJ@Z:NEAR		; CWnd::get_accChildCount
EXTRN	?IsInvokeAllowed@CCmdTarget@@UAEHJ@Z:NEAR	; CCmdTarget::IsInvokeAllowed
EXTRN	?get_accChild@CWnd@@UAEJUtagVARIANT@@PAPAUIDispatch@@@Z:NEAR ; CWnd::get_accChild
EXTRN	?get_accName@CWnd@@UAEJUtagVARIANT@@PAPA_W@Z:NEAR ; CWnd::get_accName
EXTRN	?get_accValue@CWnd@@UAEJUtagVARIANT@@PAPA_W@Z:NEAR ; CWnd::get_accValue
EXTRN	?GetDispatchIID@CCmdTarget@@UAEHPAU_GUID@@@Z:NEAR ; CCmdTarget::GetDispatchIID
EXTRN	?GetTypeInfoCount@CCmdTarget@@UAEIXZ:NEAR	; CCmdTarget::GetTypeInfoCount
EXTRN	?GetTypeLibCache@CCmdTarget@@UAEPAVCTypeLibCache@@XZ:NEAR ; CCmdTarget::GetTypeLibCache
EXTRN	?get_accDescription@CWnd@@UAEJUtagVARIANT@@PAPA_W@Z:NEAR ; CWnd::get_accDescription
EXTRN	?AfxGetMessageManager@@YAPAVIMessageManager@@XZ:NEAR ; AfxGetMessageManager
EXTRN	?GetTypeLib@CCmdTarget@@UAEJKPAPAUITypeLib@@@Z:NEAR ; CCmdTarget::GetTypeLib
EXTRN	?get_accRole@CWnd@@UAEJUtagVARIANT@@PAU2@@Z:NEAR ; CWnd::get_accRole
EXTRN	?get_accState@CWnd@@UAEJUtagVARIANT@@PAU2@@Z:NEAR ; CWnd::get_accState
EXTRN	?get_accHelp@CWnd@@UAEJUtagVARIANT@@PAPA_W@Z:NEAR ; CWnd::get_accHelp
EXTRN	?get_accHelpTopic@CWnd@@UAEJPAPA_WUtagVARIANT@@PAJ@Z:NEAR ; CWnd::get_accHelpTopic
EXTRN	?get_accKeyboardShortcut@CWnd@@UAEJUtagVARIANT@@PAPA_W@Z:NEAR ; CWnd::get_accKeyboardShortcut
EXTRN	?get_accFocus@CWnd@@UAEJPAUtagVARIANT@@@Z:NEAR	; CWnd::get_accFocus
EXTRN	?get_accSelection@CWnd@@UAEJPAUtagVARIANT@@@Z:NEAR ; CWnd::get_accSelection
EXTRN	?get_accDefaultAction@CWnd@@UAEJUtagVARIANT@@PAPA_W@Z:NEAR ; CWnd::get_accDefaultAction
EXTRN	?GetCommandMap@CCmdTarget@@MBEPBUAFX_OLECMDMAP@@XZ:NEAR ; CCmdTarget::GetCommandMap
EXTRN	?accSelect@CWnd@@UAEJJUtagVARIANT@@@Z:NEAR	; CWnd::accSelect
EXTRN	?accLocation@CWnd@@UAEJPAJ000UtagVARIANT@@@Z:NEAR ; CWnd::accLocation
EXTRN	?GetDispatchMap@CCmdTarget@@MBEPBUAFX_DISPMAP@@XZ:NEAR ; CCmdTarget::GetDispatchMap
EXTRN	?accNavigate@CWnd@@UAEJJUtagVARIANT@@PAU2@@Z:NEAR ; CWnd::accNavigate
EXTRN	?accHitTest@CWnd@@UAEJJJPAUtagVARIANT@@@Z:NEAR	; CWnd::accHitTest
EXTRN	?GetConnectionMap@CCmdTarget@@MBEPBUAFX_CONNECTIONMAP@@XZ:NEAR ; CCmdTarget::GetConnectionMap
EXTRN	?accDoDefaultAction@CWnd@@UAEJUtagVARIANT@@@Z:NEAR ; CWnd::accDoDefaultAction
EXTRN	?put_accName@CWnd@@UAEJUtagVARIANT@@PA_W@Z:NEAR	; CWnd::put_accName
EXTRN	?put_accValue@CWnd@@UAEJUtagVARIANT@@PA_W@Z:NEAR ; CWnd::put_accValue
EXTRN	?SetProxy@CWnd@@UAEJPAUIAccessibleProxy@@@Z:NEAR ; CWnd::SetProxy
EXTRN	?CreateAccessibleProxy@CWnd@@UAEJIJPAJ@Z:NEAR	; CWnd::CreateAccessibleProxy
EXTRN	?GetEventSinkMap@CCmdTarget@@MBEPBUAFX_EVENTSINKMAP@@XZ:NEAR ; CCmdTarget::GetEventSinkMap
EXTRN	?OnCreateAggregates@CCmdTarget@@UAEHXZ:NEAR	; CCmdTarget::OnCreateAggregates
EXTRN	?OnCommand@CWnd@@MAEHIJ@Z:NEAR			; CWnd::OnCommand
EXTRN	?GetInterfaceHook@CCmdTarget@@UAEPAUIUnknown@@PBX@Z:NEAR ; CCmdTarget::GetInterfaceHook
EXTRN	?OnNotify@CWnd@@MAEHIJPAJ@Z:NEAR		; CWnd::OnNotify
EXTRN	??0MyWebBrowserWnd@@QAE@H@Z:NEAR		; MyWebBrowserWnd::MyWebBrowserWnd
EXTRN	?GetExtraConnectionPoints@CCmdTarget@@MAEHPAVCPtrArray@@@Z:NEAR ; CCmdTarget::GetExtraConnectionPoints
EXTRN	?GetConnectionHook@CCmdTarget@@MAEPAUIConnectionPoint@@ABU_GUID@@@Z:NEAR ; CCmdTarget::GetConnectionHook
EXTRN	??0CRect@@QAE@XZ:NEAR				; CRect::CRect
EXTRN	?PreSubclassWindow@CWnd@@UAEXXZ:NEAR		; CWnd::PreSubclassWindow
EXTRN	??0WebGamePlayingWnd@@QAE@XZ:NEAR		; WebGamePlayingWnd::WebGamePlayingWnd
EXTRN	?Create@CWnd@@UAEHPBD0KABUtagRECT@@PAV1@IPAUCCreateContext@@@Z:NEAR ; CWnd::Create
EXTRN	?CreateEx@CWnd@@UAEHKPBD0KHHHHPAUHWND__@@PAUHMENU__@@PAX@Z:NEAR ; CWnd::CreateEx
EXTRN	?CreateEx@CWnd@@UAEHKPBD0KABUtagRECT@@PAV1@IPAX@Z:NEAR ; CWnd::CreateEx
EXTRN	??2CObject@@SGPAXI@Z:NEAR			; CObject::operator new
EXTRN	??3CObject@@SGXPAX@Z:NEAR			; CObject::operator delete
EXTRN	?Serialize@CObject@@UAEXAAVCArchive@@@Z:NEAR	; CObject::Serialize
EXTRN	?DestroyWindow@CWnd@@UAEHXZ:NEAR		; CWnd::DestroyWindow
EXTRN	?PreCreateWindow@CWnd@@UAEHAAUtagCREATESTRUCTA@@@Z:NEAR ; CWnd::PreCreateWindow
EXTRN	?CalcWindowRect@CWnd@@UAEXPAUtagRECT@@I@Z:NEAR	; CWnd::CalcWindowRect
EXTRN	?GetSuperWndProcAddr@CWnd@@MAEPAP6GJPAUHWND__@@IIJ@ZXZ:NEAR ; CWnd::GetSuperWndProcAddr
EXTRN	?DoDataExchange@CWnd@@MAEXPAVCDataExchange@@@Z:NEAR ; CWnd::DoDataExchange
EXTRN	?BeginModalState@CWnd@@UAEXXZ:NEAR		; CWnd::BeginModalState
EXTRN	?EndModalState@CWnd@@UAEXXZ:NEAR		; CWnd::EndModalState
EXTRN	?PreTranslateMessage@CWnd@@UAEHPAUtagMSG@@@Z:NEAR ; CWnd::PreTranslateMessage
EXTRN	?OnAmbientProperty@CWnd@@UAEHPAVCOleControlSite@@JPAUtagVARIANT@@@Z:NEAR ; CWnd::OnAmbientProperty
EXTRN	?WindowProc@CWnd@@MAEJIIJ@Z:NEAR		; CWnd::WindowProc
EXTRN	?OnWndMsg@CWnd@@MAEHIIJPAJ@Z:NEAR		; CWnd::OnWndMsg
EXTRN	?DefWindowProcA@CWnd@@MAEJIIJ@Z:NEAR		; CWnd::DefWindowProcA
EXTRN	?PostNcDestroy@CWnd@@MAEXXZ:NEAR		; CWnd::PostNcDestroy
EXTRN	?OnChildNotify@CWnd@@MAEHIIJPAJ@Z:NEAR		; CWnd::OnChildNotify
EXTRN	?CheckAutoCenter@CWnd@@UAEHXZ:NEAR		; CWnd::CheckAutoCenter
EXTRN	?AssertValid@CWnd@@UBEXXZ:NEAR			; CWnd::AssertValid
EXTRN	?Dump@CWnd@@UBEXAAVCDumpContext@@@Z:NEAR	; CWnd::Dump
EXTRN	?IsFrameWnd@CWnd@@UBEHXZ:NEAR			; CWnd::IsFrameWnd
EXTRN	?OnFinalRelease@CWnd@@UAEXXZ:NEAR		; CWnd::OnFinalRelease
EXTRN	??0CBasicWnd@@QAE@XZ:NEAR			; CBasicWnd::CBasicWnd
EXTRN	??1CBasicWnd@@UAE@XZ:NEAR			; CBasicWnd::~CBasicWnd
EXTRN	?CreateControlContainer@CWnd@@MAEHPAPAVCOleControlContainer@@@Z:NEAR ; CWnd::CreateControlContainer
EXTRN	?CreateControlSite@CWnd@@MAEHPAVCOleControlContainer@@PAPAVCOleControlSite@@IABU_GUID@@@Z:NEAR ; CWnd::CreateControlSite
EXTRN	?SetOccDialogInfo@CWnd@@MAEHPAU_AFX_OCC_DIALOG_INFO@@@Z:NEAR ; CWnd::SetOccDialogInfo
EXTRN	?OnToolHitTest@CWnd@@UBEHVCPoint@@PAUtagTOOLINFOA@@@Z:NEAR ; CWnd::OnToolHitTest
EXTRN	??_EWebGamePanelWnd@@UAEPAXI@Z:NEAR		; WebGamePanelWnd::`vector deleting destructor'
EXTRN	__RTC_CheckEsp:NEAR
EXTRN	__except_list:DWORD
EXTRN	___CxxFrameHandler:NEAR
EXTRN	?GetScrollBarCtrl@CWnd@@UBEPAVCScrollBar@@H@Z:NEAR ; CWnd::GetScrollBarCtrl
EXTRN	?WinHelpA@CWnd@@UAEXKI@Z:NEAR			; CWnd::WinHelpA
EXTRN	?HtmlHelpA@CWnd@@UAEXKI@Z:NEAR			; CWnd::HtmlHelpA
EXTRN	??_7type_info@@6B@:QWORD			; type_info::`vftable'
EXTRN	?WinHelpInternal@CWnd@@UAEXKI@Z:NEAR		; CWnd::WinHelpInternal
EXTRN	?ContinueModal@CWnd@@UAEHXZ:NEAR		; CWnd::ContinueModal
EXTRN	?EndModalLoop@CWnd@@UAEXH@Z:NEAR		; CWnd::EndModalLoop
xdata$x	SEGMENT
$T190272 DD	0ffffffffH
	DD	FLAT:$L190260
	DD	00H
	DD	FLAT:$L190261
	DD	01H
	DD	FLAT:$L190262
	DD	02H
	DD	FLAT:$L190263
	DD	02H
	DD	FLAT:$L190264
$T190268 DD	019930520H
	DD	05H
	DD	FLAT:$T190272
	DD	2 DUP(00H)
	DD	2 DUP(00H)
xdata$x	ENDS
;	COMDAT ??_7WebGamePanelWnd@@6BCBasicWnd@@@
CONST	SEGMENT
??_7WebGamePanelWnd@@6BCBasicWnd@@@ DD FLAT:??_R4WebGamePanelWnd@@6BCBasicWnd@@@ ; WebGamePanelWnd::`vftable'
	DD	FLAT:?GetRuntimeClass@WebGamePanelWnd@@UBEPAUCRuntimeClass@@XZ
	DD	FLAT:??_EWebGamePanelWnd@@UAEPAXI@Z
	DD	FLAT:?Serialize@CObject@@UAEXAAVCArchive@@@Z
	DD	FLAT:?AssertValid@CWnd@@UBEXXZ
	DD	FLAT:?Dump@CWnd@@UBEXAAVCDumpContext@@@Z
	DD	FLAT:?OnCmdMsg@CCmdTarget@@UAEHIHPAXPAUAFX_CMDHANDLERINFO@@@Z
	DD	FLAT:?OnFinalRelease@CWnd@@UAEXXZ
	DD	FLAT:?IsInvokeAllowed@CCmdTarget@@UAEHJ@Z
	DD	FLAT:?GetDispatchIID@CCmdTarget@@UAEHPAU_GUID@@@Z
	DD	FLAT:?GetTypeInfoCount@CCmdTarget@@UAEIXZ
	DD	FLAT:?GetTypeLibCache@CCmdTarget@@UAEPAVCTypeLibCache@@XZ
	DD	FLAT:?GetTypeLib@CCmdTarget@@UAEJKPAPAUITypeLib@@@Z
	DD	FLAT:?GetMessageMap@WebGamePanelWnd@@MBEPBUAFX_MSGMAP@@XZ
	DD	FLAT:?GetCommandMap@CCmdTarget@@MBEPBUAFX_OLECMDMAP@@XZ
	DD	FLAT:?GetDispatchMap@CCmdTarget@@MBEPBUAFX_DISPMAP@@XZ
	DD	FLAT:?GetConnectionMap@CCmdTarget@@MBEPBUAFX_CONNECTIONMAP@@XZ
	DD	FLAT:?GetInterfaceMap@CWnd@@MBEPBUAFX_INTERFACEMAP@@XZ
	DD	FLAT:?GetEventSinkMap@CCmdTarget@@MBEPBUAFX_EVENTSINKMAP@@XZ
	DD	FLAT:?OnCreateAggregates@CCmdTarget@@UAEHXZ
	DD	FLAT:?GetInterfaceHook@CCmdTarget@@UAEPAUIUnknown@@PBX@Z
	DD	FLAT:?GetExtraConnectionPoints@CCmdTarget@@MAEHPAVCPtrArray@@@Z
	DD	FLAT:?GetConnectionHook@CCmdTarget@@MAEPAUIConnectionPoint@@ABU_GUID@@@Z
	DD	FLAT:?PreSubclassWindow@CWnd@@UAEXXZ
	DD	FLAT:?Create@CWnd@@UAEHPBD0KABUtagRECT@@PAV1@IPAUCCreateContext@@@Z
	DD	FLAT:?CreateEx@CWnd@@UAEHKPBD0KABUtagRECT@@PAV1@IPAX@Z
	DD	FLAT:?CreateEx@CWnd@@UAEHKPBD0KHHHHPAUHWND__@@PAUHMENU__@@PAX@Z
	DD	FLAT:?DestroyWindow@CWnd@@UAEHXZ
	DD	FLAT:?PreCreateWindow@CWnd@@UAEHAAUtagCREATESTRUCTA@@@Z
	DD	FLAT:?CalcWindowRect@CWnd@@UAEXPAUtagRECT@@I@Z
	DD	FLAT:?OnToolHitTest@CWnd@@UBEHVCPoint@@PAUtagTOOLINFOA@@@Z
	DD	FLAT:?GetScrollBarCtrl@CWnd@@UBEPAVCScrollBar@@H@Z
	DD	FLAT:?WinHelpA@CWnd@@UAEXKI@Z
	DD	FLAT:?HtmlHelpA@CWnd@@UAEXKI@Z
	DD	FLAT:?WinHelpInternal@CWnd@@UAEXKI@Z
	DD	FLAT:?ContinueModal@CWnd@@UAEHXZ
	DD	FLAT:?EndModalLoop@CWnd@@UAEXH@Z
	DD	FLAT:?EnsureStdObj@CWnd@@UAEJXZ
	DD	FLAT:?get_accParent@CWnd@@UAEJPAPAUIDispatch@@@Z
	DD	FLAT:?get_accChildCount@CWnd@@UAEJPAJ@Z
	DD	FLAT:?get_accChild@CWnd@@UAEJUtagVARIANT@@PAPAUIDispatch@@@Z
	DD	FLAT:?get_accName@CWnd@@UAEJUtagVARIANT@@PAPA_W@Z
	DD	FLAT:?get_accValue@CWnd@@UAEJUtagVARIANT@@PAPA_W@Z
	DD	FLAT:?get_accDescription@CWnd@@UAEJUtagVARIANT@@PAPA_W@Z
	DD	FLAT:?get_accRole@CWnd@@UAEJUtagVARIANT@@PAU2@@Z
	DD	FLAT:?get_accState@CWnd@@UAEJUtagVARIANT@@PAU2@@Z
	DD	FLAT:?get_accHelp@CWnd@@UAEJUtagVARIANT@@PAPA_W@Z
	DD	FLAT:?get_accHelpTopic@CWnd@@UAEJPAPA_WUtagVARIANT@@PAJ@Z
	DD	FLAT:?get_accKeyboardShortcut@CWnd@@UAEJUtagVARIANT@@PAPA_W@Z
	DD	FLAT:?get_accFocus@CWnd@@UAEJPAUtagVARIANT@@@Z
	DD	FLAT:?get_accSelection@CWnd@@UAEJPAUtagVARIANT@@@Z
	DD	FLAT:?get_accDefaultAction@CWnd@@UAEJUtagVARIANT@@PAPA_W@Z
	DD	FLAT:?accSelect@CWnd@@UAEJJUtagVARIANT@@@Z
	DD	FLAT:?accLocation@CWnd@@UAEJPAJ000UtagVARIANT@@@Z
	DD	FLAT:?accNavigate@CWnd@@UAEJJUtagVARIANT@@PAU2@@Z
	DD	FLAT:?accHitTest@CWnd@@UAEJJJPAUtagVARIANT@@@Z
	DD	FLAT:?accDoDefaultAction@CWnd@@UAEJUtagVARIANT@@@Z
	DD	FLAT:?put_accName@CWnd@@UAEJUtagVARIANT@@PA_W@Z
	DD	FLAT:?put_accValue@CWnd@@UAEJUtagVARIANT@@PA_W@Z
	DD	FLAT:?SetProxy@CWnd@@UAEJPAUIAccessibleProxy@@@Z
	DD	FLAT:?CreateAccessibleProxy@CWnd@@UAEJIJPAJ@Z
	DD	FLAT:?OnCommand@CWnd@@MAEHIJ@Z
	DD	FLAT:?OnNotify@CWnd@@MAEHIJPAJ@Z
	DD	FLAT:?GetSuperWndProcAddr@CWnd@@MAEPAP6GJPAUHWND__@@IIJ@ZXZ
	DD	FLAT:?DoDataExchange@CWnd@@MAEXPAVCDataExchange@@@Z
	DD	FLAT:?BeginModalState@CWnd@@UAEXXZ
	DD	FLAT:?EndModalState@CWnd@@UAEXXZ
	DD	FLAT:?PreTranslateMessage@CWnd@@UAEHPAUtagMSG@@@Z
	DD	FLAT:?OnAmbientProperty@CWnd@@UAEHPAVCOleControlSite@@JPAUtagVARIANT@@@Z
	DD	FLAT:?WindowProc@CWnd@@MAEJIIJ@Z
	DD	FLAT:?OnWndMsg@CWnd@@MAEHIIJPAJ@Z
	DD	FLAT:?DefWindowProcA@CWnd@@MAEJIIJ@Z
	DD	FLAT:?PostNcDestroy@CWnd@@MAEXXZ
	DD	FLAT:?OnChildNotify@CWnd@@MAEHIIJPAJ@Z
	DD	FLAT:?CheckAutoCenter@CWnd@@UAEHXZ
	DD	FLAT:?IsFrameWnd@CWnd@@UBEHXZ
	DD	FLAT:?CreateControlContainer@CWnd@@MAEHPAPAVCOleControlContainer@@@Z
	DD	FLAT:?CreateControlSite@CWnd@@MAEHPAVCOleControlContainer@@PAPAVCOleControlSite@@IABU_GUID@@@Z
	DD	FLAT:?SetOccDialogInfo@CWnd@@MAEHPAU_AFX_OCC_DIALOG_INFO@@@Z
CONST	ENDS
;	COMDAT ??_7WebGamePanelWnd@@6BIPanelChangeObserver@@@
CONST	SEGMENT
??_7WebGamePanelWnd@@6BIPanelChangeObserver@@@ DD FLAT:??_R4WebGamePanelWnd@@6BIPanelChangeObserver@@@ ; WebGamePanelWnd::`vftable'
	DD	FLAT:??_EWebGamePanelWnd@@WFE@AEPAXI@Z
	DD	FLAT:?IPanelChangeOb_WindowMax@IPanelChangeObserver@@UAEXXZ
	DD	FLAT:?IPanelChangeOb_WindowMin@IPanelChangeObserver@@UAEXXZ
	DD	FLAT:?IPanelChangeOb_WindowRestore@IPanelChangeObserver@@UAEXXZ
	DD	FLAT:?IPanelChangeOb_WindowClose@IPanelChangeObserver@@UAEXXZ
	DD	FLAT:?IPanelChangeOb_ToFullScreen@WebGamePanelWnd@@UAEXPAVCWnd@@@Z
	DD	FLAT:?IPanelChangeOb_ExitFullScreen@WebGamePanelWnd@@UAEXPAVCWnd@@@Z
CONST	ENDS
;	COMDAT ??_R4WebGamePanelWnd@@6BCBasicWnd@@@
rdata$r	SEGMENT
??_R4WebGamePanelWnd@@6BCBasicWnd@@@ DD 00H		; WebGamePanelWnd::`RTTI Complete Object Locator'
	DD	00H
	DD	00H
	DD	FLAT:??_R0?AVWebGamePanelWnd@@@8
	DD	FLAT:??_R3WebGamePanelWnd@@8
rdata$r	ENDS
;	COMDAT ??_R0?AVWebGamePanelWnd@@@8
_DATA	SEGMENT
??_R0?AVWebGamePanelWnd@@@8 DD FLAT:??_7type_info@@6B@	; WebGamePanelWnd `RTTI Type Descriptor'
	DD	00H
	DB	'.?AVWebGamePanelWnd@@', 00H
_DATA	ENDS
;	COMDAT ??_R3WebGamePanelWnd@@8
rdata$r	SEGMENT
??_R3WebGamePanelWnd@@8 DD 00H				; WebGamePanelWnd::`RTTI Class Hierarchy Descriptor'
	DD	01H
	DD	07H
	DD	FLAT:??_R2WebGamePanelWnd@@8
rdata$r	ENDS
;	COMDAT ??_R2WebGamePanelWnd@@8
rdata$r	SEGMENT
??_R2WebGamePanelWnd@@8 DD FLAT:??_R1A@?0A@A@WebGamePanelWnd@@8 ; WebGamePanelWnd::`RTTI Base Class Array'
	DD	FLAT:??_R1A@?0A@A@CBasicWnd@@8
	DD	FLAT:??_R1A@?0A@A@CWnd@@8
	DD	FLAT:??_R1A@?0A@A@CCmdTarget@@8
	DD	FLAT:??_R1A@?0A@A@CObject@@8
	DD	FLAT:??_R1FE@?0A@A@IPanelChangeObserver@@8
	DD	FLAT:??_R1FE@?0A@A@IMessageObserver@@8
rdata$r	ENDS
;	COMDAT ??_R1A@?0A@A@WebGamePanelWnd@@8
rdata$r	SEGMENT
??_R1A@?0A@A@WebGamePanelWnd@@8 DD FLAT:??_R0?AVWebGamePanelWnd@@@8 ; WebGamePanelWnd::`RTTI Base Class Descriptor at (0,-1,0,0)'
	DD	06H
	DD	00H
	DD	0ffffffffH
	DD	00H
	DD	00H
rdata$r	ENDS
;	COMDAT ??_R1A@?0A@A@CBasicWnd@@8
rdata$r	SEGMENT
??_R1A@?0A@A@CBasicWnd@@8 DD FLAT:??_R0?AVCBasicWnd@@@8	; CBasicWnd::`RTTI Base Class Descriptor at (0,-1,0,0)'
	DD	03H
	DD	00H
	DD	0ffffffffH
	DD	00H
	DD	00H
rdata$r	ENDS
;	COMDAT ??_R0?AVCBasicWnd@@@8
_DATA	SEGMENT
??_R0?AVCBasicWnd@@@8 DD FLAT:??_7type_info@@6B@	; CBasicWnd `RTTI Type Descriptor'
	DD	00H
	DB	'.?AVCBasicWnd@@', 00H
_DATA	ENDS
;	COMDAT ??_R1A@?0A@A@CWnd@@8
rdata$r	SEGMENT
??_R1A@?0A@A@CWnd@@8 DD FLAT:??_R0?AVCWnd@@@8		; CWnd::`RTTI Base Class Descriptor at (0,-1,0,0)'
	DD	02H
	DD	00H
	DD	0ffffffffH
	DD	00H
	DD	00H
rdata$r	ENDS
;	COMDAT ??_R0?AVCWnd@@@8
_DATA	SEGMENT
??_R0?AVCWnd@@@8 DD FLAT:??_7type_info@@6B@		; CWnd `RTTI Type Descriptor'
	DD	00H
	DB	'.?AVCWnd@@', 00H
_DATA	ENDS
;	COMDAT ??_R1A@?0A@A@CCmdTarget@@8
rdata$r	SEGMENT
??_R1A@?0A@A@CCmdTarget@@8 DD FLAT:??_R0?AVCCmdTarget@@@8 ; CCmdTarget::`RTTI Base Class Descriptor at (0,-1,0,0)'
	DD	01H
	DD	00H
	DD	0ffffffffH
	DD	00H
	DD	00H
rdata$r	ENDS
;	COMDAT ??_R0?AVCCmdTarget@@@8
_DATA	SEGMENT
??_R0?AVCCmdTarget@@@8 DD FLAT:??_7type_info@@6B@	; CCmdTarget `RTTI Type Descriptor'
	DD	00H
	DB	'.?AVCCmdTarget@@', 00H
_DATA	ENDS
;	COMDAT ??_R1A@?0A@A@CObject@@8
rdata$r	SEGMENT
??_R1A@?0A@A@CObject@@8 DD FLAT:??_R0?AVCObject@@@8	; CObject::`RTTI Base Class Descriptor at (0,-1,0,0)'
	DD	00H
	DD	00H
	DD	0ffffffffH
	DD	00H
	DD	00H
rdata$r	ENDS
;	COMDAT ??_R0?AVCObject@@@8
_DATA	SEGMENT
??_R0?AVCObject@@@8 DD FLAT:??_7type_info@@6B@		; CObject `RTTI Type Descriptor'
	DD	00H
	DB	'.?AVCObject@@', 00H
_DATA	ENDS
;	COMDAT ??_R1FE@?0A@A@IPanelChangeObserver@@8
rdata$r	SEGMENT
??_R1FE@?0A@A@IPanelChangeObserver@@8 DD FLAT:??_R0?AVIPanelChangeObserver@@@8 ; IPanelChangeObserver::`RTTI Base Class Descriptor at (84,-1,0,0)'
	DD	01H
	DD	054H
	DD	0ffffffffH
	DD	00H
	DD	00H
rdata$r	ENDS
;	COMDAT ??_R0?AVIPanelChangeObserver@@@8
_DATA	SEGMENT
??_R0?AVIPanelChangeObserver@@@8 DD FLAT:??_7type_info@@6B@ ; IPanelChangeObserver `RTTI Type Descriptor'
	DD	00H
	DB	'.?AVIPanelChangeObserver@@', 00H
_DATA	ENDS
;	COMDAT ??_R1FE@?0A@A@IMessageObserver@@8
rdata$r	SEGMENT
??_R1FE@?0A@A@IMessageObserver@@8 DD FLAT:??_R0?AVIMessageObserver@@@8 ; IMessageObserver::`RTTI Base Class Descriptor at (84,-1,0,0)'
	DD	00H
	DD	054H
	DD	0ffffffffH
	DD	00H
	DD	00H
rdata$r	ENDS
;	COMDAT ??_R0?AVIMessageObserver@@@8
_DATA	SEGMENT
??_R0?AVIMessageObserver@@@8 DD FLAT:??_7type_info@@6B@	; IMessageObserver `RTTI Type Descriptor'
	DD	00H
	DB	'.?AVIMessageObserver@@', 00H
	ORG $-31
	DD	FLAT:??_7type_info@@6B@
	DD	00H
	DB	'.?AVIMessageObserver@@', 00H
_DATA	ENDS
;	COMDAT ??_R4WebGamePanelWnd@@6BIPanelChangeObserver@@@
rdata$r	SEGMENT
??_R4WebGamePanelWnd@@6BIPanelChangeObserver@@@ DD 00H	; WebGamePanelWnd::`RTTI Complete Object Locator'
	DD	054H
	DD	00H
	DD	FLAT:??_R0?AVWebGamePanelWnd@@@8
	DD	FLAT:??_R3WebGamePanelWnd@@8
; Function compile flags: /Odt /RTCsu
rdata$r	ENDS
_TEXT	SEGMENT
tv139 = -48						; size = 4
tv145 = -44						; size = 4
tv137 = -40						; size = 4
tv129 = -36						; size = 4
$T190255 = -32						; size = 4
$T190254 = -28						; size = 4
$T190251 = -24						; size = 4
$T190250 = -20						; size = 4
_this$ = -16						; size = 4
__$EHRec$ = -12						; size = 12
??0WebGamePanelWnd@@QAE@XZ PROC NEAR			; WebGamePanelWnd::WebGamePanelWnd
; _this$ = ecx

; 12   : {

  00030	55		 push	 ebp
  00031	8b ec		 mov	 ebp, esp
  00033	6a ff		 push	 -1
  00035	68 00 00 00 00	 push	 __ehhandler$??0WebGamePanelWnd@@QAE@XZ
  0003a	64 a1 00 00 00
	00		 mov	 eax, DWORD PTR fs:__except_list
  00040	50		 push	 eax
  00041	64 89 25 00 00
	00 00		 mov	 DWORD PTR fs:__except_list, esp
  00048	83 ec 24	 sub	 esp, 36			; 00000024H
  0004b	56		 push	 esi
  0004c	b8 cc cc cc cc	 mov	 eax, -858993460		; ccccccccH
  00051	89 45 d0	 mov	 DWORD PTR [ebp-48], eax
  00054	89 45 d4	 mov	 DWORD PTR [ebp-44], eax
  00057	89 45 d8	 mov	 DWORD PTR [ebp-40], eax
  0005a	89 45 dc	 mov	 DWORD PTR [ebp-36], eax
  0005d	89 45 e0	 mov	 DWORD PTR [ebp-32], eax
  00060	89 45 e4	 mov	 DWORD PTR [ebp-28], eax
  00063	89 45 e8	 mov	 DWORD PTR [ebp-24], eax
  00066	89 45 ec	 mov	 DWORD PTR [ebp-20], eax
  00069	89 45 f0	 mov	 DWORD PTR [ebp-16], eax
  0006c	89 4d f0	 mov	 DWORD PTR _this$[ebp], ecx
  0006f	8b 4d f0	 mov	 ecx, DWORD PTR _this$[ebp]
  00072	e8 00 00 00 00	 call	 ??0CBasicWnd@@QAE@XZ	; CBasicWnd::CBasicWnd
  00077	c7 45 fc 00 00
	00 00		 mov	 DWORD PTR __$EHRec$[ebp+8], 0
  0007e	8b 4d f0	 mov	 ecx, DWORD PTR _this$[ebp]
  00081	83 c1 54	 add	 ecx, 84			; 00000054H
  00084	e8 00 00 00 00	 call	 ??0IPanelChangeObserver@@QAE@XZ
  00089	c6 45 fc 01	 mov	 BYTE PTR __$EHRec$[ebp+8], 1
  0008d	8b 45 f0	 mov	 eax, DWORD PTR _this$[ebp]
  00090	c7 00 00 00 00
	00		 mov	 DWORD PTR [eax], OFFSET FLAT:??_7WebGamePanelWnd@@6BCBasicWnd@@@
  00096	8b 4d f0	 mov	 ecx, DWORD PTR _this$[ebp]
  00099	c7 41 54 00 00
	00 00		 mov	 DWORD PTR [ecx+84], OFFSET FLAT:??_7WebGamePanelWnd@@6BIPanelChangeObserver@@@
  000a0	8b 4d f0	 mov	 ecx, DWORD PTR _this$[ebp]
  000a3	83 c1 60	 add	 ecx, 96			; 00000060H
  000a6	e8 00 00 00 00	 call	 ??0WEB_GAME@@QAE@XZ
  000ab	c6 45 fc 02	 mov	 BYTE PTR __$EHRec$[ebp+8], 2
  000af	8b 4d f0	 mov	 ecx, DWORD PTR _this$[ebp]
  000b2	81 c1 b8 00 00
	00		 add	 ecx, 184		; 000000b8H
  000b8	e8 00 00 00 00	 call	 ??0CRect@@QAE@XZ	; CRect::CRect
  000bd	8b 4d f0	 mov	 ecx, DWORD PTR _this$[ebp]
  000c0	81 c1 c8 00 00
	00		 add	 ecx, 200		; 000000c8H
  000c6	e8 00 00 00 00	 call	 ??0CRect@@QAE@XZ	; CRect::CRect

; 13   : 	m_isMainWindowTopMost = false;

  000cb	8b 55 f0	 mov	 edx, DWORD PTR _this$[ebp]
  000ce	c6 82 b4 00 00
	00 00		 mov	 BYTE PTR [edx+180], 0

; 14   : 	m_bFullScreen = false;

  000d5	8b 45 f0	 mov	 eax, DWORD PTR _this$[ebp]
  000d8	c6 80 b5 00 00
	00 00		 mov	 BYTE PTR [eax+181], 0

; 15   : 
; 16   : 	m_pWndGameRight		= new MyWebBrowserWnd();

  000df	68 e8 01 00 00	 push	 488			; 000001e8H
  000e4	e8 00 00 00 00	 call	 ??2CObject@@SGPAXI@Z	; CObject::operator new
  000e9	89 45 e8	 mov	 DWORD PTR $T190251[ebp], eax
  000ec	c6 45 fc 03	 mov	 BYTE PTR __$EHRec$[ebp+8], 3
  000f0	83 7d e8 00	 cmp	 DWORD PTR $T190251[ebp], 0
  000f4	74 0f		 je	 SHORT $L190252
  000f6	6a 01		 push	 1
  000f8	8b 4d e8	 mov	 ecx, DWORD PTR $T190251[ebp]
  000fb	e8 00 00 00 00	 call	 ??0MyWebBrowserWnd@@QAE@H@Z ; MyWebBrowserWnd::MyWebBrowserWnd
  00100	89 45 dc	 mov	 DWORD PTR tv129[ebp], eax
  00103	eb 07		 jmp	 SHORT $L190253
$L190252:
  00105	c7 45 dc 00 00
	00 00		 mov	 DWORD PTR tv129[ebp], 0
$L190253:
  0010c	8b 4d dc	 mov	 ecx, DWORD PTR tv129[ebp]
  0010f	89 4d ec	 mov	 DWORD PTR $T190250[ebp], ecx
  00112	c6 45 fc 02	 mov	 BYTE PTR __$EHRec$[ebp+8], 2
  00116	8b 55 f0	 mov	 edx, DWORD PTR _this$[ebp]
  00119	8b 45 ec	 mov	 eax, DWORD PTR $T190250[ebp]
  0011c	89 42 58	 mov	 DWORD PTR [edx+88], eax

; 17   : 	m_pWndGamePlaying	= new WebGamePlayingWnd();

  0011f	68 b8 00 00 00	 push	 184			; 000000b8H
  00124	e8 00 00 00 00	 call	 ??2CObject@@SGPAXI@Z	; CObject::operator new
  00129	89 45 e0	 mov	 DWORD PTR $T190255[ebp], eax
  0012c	c6 45 fc 04	 mov	 BYTE PTR __$EHRec$[ebp+8], 4
  00130	83 7d e0 00	 cmp	 DWORD PTR $T190255[ebp], 0
  00134	74 0d		 je	 SHORT $L190256
  00136	8b 4d e0	 mov	 ecx, DWORD PTR $T190255[ebp]
  00139	e8 00 00 00 00	 call	 ??0WebGamePlayingWnd@@QAE@XZ ; WebGamePlayingWnd::WebGamePlayingWnd
  0013e	89 45 d8	 mov	 DWORD PTR tv137[ebp], eax
  00141	eb 07		 jmp	 SHORT $L190257
$L190256:
  00143	c7 45 d8 00 00
	00 00		 mov	 DWORD PTR tv137[ebp], 0
$L190257:
  0014a	8b 4d d8	 mov	 ecx, DWORD PTR tv137[ebp]
  0014d	89 4d e4	 mov	 DWORD PTR $T190254[ebp], ecx
  00150	c6 45 fc 02	 mov	 BYTE PTR __$EHRec$[ebp+8], 2
  00154	8b 55 f0	 mov	 edx, DWORD PTR _this$[ebp]
  00157	8b 45 e4	 mov	 eax, DWORD PTR $T190254[ebp]
  0015a	89 42 5c	 mov	 DWORD PTR [edx+92], eax

; 18   : 
; 19   : 	AfxGetMessageManager()->AttachMessage( ID_MESSAGE_PANEL_CHANGE,(IPanelChangeObserver*) this);

  0015d	83 7d f0 00	 cmp	 DWORD PTR _this$[ebp], 0
  00161	74 0b		 je	 SHORT $L190258
  00163	8b 4d f0	 mov	 ecx, DWORD PTR _this$[ebp]
  00166	83 c1 54	 add	 ecx, 84			; 00000054H
  00169	89 4d d4	 mov	 DWORD PTR tv145[ebp], ecx
  0016c	eb 07		 jmp	 SHORT $L190259
$L190258:
  0016e	c7 45 d4 00 00
	00 00		 mov	 DWORD PTR tv145[ebp], 0
$L190259:
  00175	e8 00 00 00 00	 call	 ?AfxGetMessageManager@@YAPAVIMessageManager@@XZ ; AfxGetMessageManager
  0017a	89 45 d0	 mov	 DWORD PTR tv139[ebp], eax
  0017d	8b f4		 mov	 esi, esp
  0017f	6a 02		 push	 2
  00181	8b 55 d4	 mov	 edx, DWORD PTR tv145[ebp]
  00184	52		 push	 edx
  00185	68 00 00 00 00	 push	 OFFSET FLAT:_ID_MESSAGE_PANEL_CHANGE
  0018a	8b 45 d0	 mov	 eax, DWORD PTR tv139[ebp]
  0018d	8b 10		 mov	 edx, DWORD PTR [eax]
  0018f	8b 4d d0	 mov	 ecx, DWORD PTR tv139[ebp]
  00192	ff 52 04	 call	 DWORD PTR [edx+4]
  00195	3b f4		 cmp	 esi, esp
  00197	e8 00 00 00 00	 call	 __RTC_CheckEsp

; 20   : }

  0019c	c7 45 fc ff ff
	ff ff		 mov	 DWORD PTR __$EHRec$[ebp+8], -1
  001a3	8b 45 f0	 mov	 eax, DWORD PTR _this$[ebp]
  001a6	8b 4d f4	 mov	 ecx, DWORD PTR __$EHRec$[ebp]
  001a9	64 89 0d 00 00
	00 00		 mov	 DWORD PTR fs:__except_list, ecx
  001b0	5e		 pop	 esi
  001b1	83 c4 30	 add	 esp, 48			; 00000030H
  001b4	3b ec		 cmp	 ebp, esp
  001b6	e8 00 00 00 00	 call	 __RTC_CheckEsp
  001bb	8b e5		 mov	 esp, ebp
  001bd	5d		 pop	 ebp
  001be	c3		 ret	 0
_TEXT	ENDS
text$x	SEGMENT
$L190260:
  00000	8b 4d f0	 mov	 ecx, DWORD PTR _this$[ebp]
  00003	e9 00 00 00 00	 jmp	 ??1CBasicWnd@@UAE@XZ	; CBasicWnd::~CBasicWnd
$L190261:
  00008	8b 4d f0	 mov	 ecx, DWORD PTR _this$[ebp]
  0000b	83 c1 54	 add	 ecx, 84			; 00000054H
  0000e	e9 00 00 00 00	 jmp	 ??1IPanelChangeObserver@@UAE@XZ
$L190262:
  00013	8b 4d f0	 mov	 ecx, DWORD PTR _this$[ebp]
  00016	83 c1 60	 add	 ecx, 96			; 00000060H
  00019	e9 00 00 00 00	 jmp	 ??1WEB_GAME@@QAE@XZ
$L190263:
  0001e	8b 45 e8	 mov	 eax, DWORD PTR $T190251[ebp]
  00021	50		 push	 eax
  00022	e8 00 00 00 00	 call	 ??3CObject@@SGXPAX@Z	; CObject::operator delete
  00027	c3		 ret	 0
$L190264:
  00028	8b 45 e0	 mov	 eax, DWORD PTR $T190255[ebp]
  0002b	50		 push	 eax
  0002c	e8 00 00 00 00	 call	 ??3CObject@@SGXPAX@Z	; CObject::operator delete
  00031	c3		 ret	 0
__ehhandler$??0WebGamePanelWnd@@QAE@XZ:
  00032	b8 00 00 00 00	 mov	 eax, OFFSET FLAT:$T190268
  00037	e9 00 00 00 00	 jmp	 ___CxxFrameHandler
text$x	ENDS
??0WebGamePanelWnd@@QAE@XZ ENDP				; WebGamePanelWnd::WebGamePanelWnd
; Function compile flags: /Odt /RTCsu
; File d:\boxgit\playbox\playbox\dev\prj\playbox\src\datainterface\ipanelchangeobserver.h
;	COMDAT ?IPanelChangeOb_WindowMax@IPanelChangeObserver@@UAEXXZ
_TEXT	SEGMENT
_this$ = -4						; size = 4
?IPanelChangeOb_WindowMax@IPanelChangeObserver@@UAEXXZ PROC NEAR ; IPanelChangeObserver::IPanelChangeOb_WindowMax, COMDAT
; _this$ = ecx

; 9    : 	virtual void	IPanelChangeOb_WindowMax(){};

  00000	55		 push	 ebp
  00001	8b ec		 mov	 ebp, esp
  00003	51		 push	 ecx
  00004	c7 45 fc cc cc
	cc cc		 mov	 DWORD PTR [ebp-4], -858993460 ; ccccccccH
  0000b	89 4d fc	 mov	 DWORD PTR _this$[ebp], ecx
  0000e	8b e5		 mov	 esp, ebp
  00010	5d		 pop	 ebp
  00011	c3		 ret	 0
?IPanelChangeOb_WindowMax@IPanelChangeObserver@@UAEXXZ ENDP ; IPanelChangeObserver::IPanelChangeOb_WindowMax
; Function compile flags: /Odt /RTCsu
_TEXT	ENDS
;	COMDAT ?IPanelChangeOb_WindowMin@IPanelChangeObserver@@UAEXXZ
_TEXT	SEGMENT
_this$ = -4						; size = 4
?IPanelChangeOb_WindowMin@IPanelChangeObserver@@UAEXXZ PROC NEAR ; IPanelChangeObserver::IPanelChangeOb_WindowMin, COMDAT
; _this$ = ecx

; 10   : 	virtual void	IPanelChangeOb_WindowMin(){};

  00000	55		 push	 ebp
  00001	8b ec		 mov	 ebp, esp
  00003	51		 push	 ecx
  00004	c7 45 fc cc cc
	cc cc		 mov	 DWORD PTR [ebp-4], -858993460 ; ccccccccH
  0000b	89 4d fc	 mov	 DWORD PTR _this$[ebp], ecx
  0000e	8b e5		 mov	 esp, ebp
  00010	5d		 pop	 ebp
  00011	c3		 ret	 0
?IPanelChangeOb_WindowMin@IPanelChangeObserver@@UAEXXZ ENDP ; IPanelChangeObserver::IPanelChangeOb_WindowMin
; Function compile flags: /Odt /RTCsu
_TEXT	ENDS
;	COMDAT ?IPanelChangeOb_WindowRestore@IPanelChangeObserver@@UAEXXZ
_TEXT	SEGMENT
_this$ = -4						; size = 4
?IPanelChangeOb_WindowRestore@IPanelChangeObserver@@UAEXXZ PROC NEAR ; IPanelChangeObserver::IPanelChangeOb_WindowRestore, COMDAT
; _this$ = ecx

; 11   : 	virtual void	IPanelChangeOb_WindowRestore(){};

  00000	55		 push	 ebp
  00001	8b ec		 mov	 ebp, esp
  00003	51		 push	 ecx
  00004	c7 45 fc cc cc
	cc cc		 mov	 DWORD PTR [ebp-4], -858993460 ; ccccccccH
  0000b	89 4d fc	 mov	 DWORD PTR _this$[ebp], ecx
  0000e	8b e5		 mov	 esp, ebp
  00010	5d		 pop	 ebp
  00011	c3		 ret	 0
?IPanelChangeOb_WindowRestore@IPanelChangeObserver@@UAEXXZ ENDP ; IPanelChangeObserver::IPanelChangeOb_WindowRestore
; Function compile flags: /Odt /RTCsu
_TEXT	ENDS
;	COMDAT ?IPanelChangeOb_WindowClose@IPanelChangeObserver@@UAEXXZ
_TEXT	SEGMENT
_this$ = -4						; size = 4
?IPanelChangeOb_WindowClose@IPanelChangeObserver@@UAEXXZ PROC NEAR ; IPanelChangeObserver::IPanelChangeOb_WindowClose, COMDAT
; _this$ = ecx

; 12   : 	virtual void	IPanelChangeOb_WindowClose(){};

  00000	55		 push	 ebp
  00001	8b ec		 mov	 ebp, esp
  00003	51		 push	 ecx
  00004	c7 45 fc cc cc
	cc cc		 mov	 DWORD PTR [ebp-4], -858993460 ; ccccccccH
  0000b	89 4d fc	 mov	 DWORD PTR _this$[ebp], ecx
  0000e	8b e5		 mov	 esp, ebp
  00010	5d		 pop	 ebp
  00011	c3		 ret	 0
?IPanelChangeOb_WindowClose@IPanelChangeObserver@@UAEXXZ ENDP ; IPanelChangeObserver::IPanelChangeOb_WindowClose
_TEXT	ENDS
PUBLIC	??1WebGamePanelWnd@@UAE@XZ			; WebGamePanelWnd::~WebGamePanelWnd
; Function compile flags: /Odt /RTCsu
;	COMDAT ??_GWebGamePanelWnd@@UAEPAXI@Z
_TEXT	SEGMENT
_this$ = -4						; size = 4
___flags$ = 8						; size = 4
??_GWebGamePanelWnd@@UAEPAXI@Z PROC NEAR		; WebGamePanelWnd::`scalar deleting destructor', COMDAT
; _this$ = ecx
  00000	55		 push	 ebp
  00001	8b ec		 mov	 ebp, esp
  00003	51		 push	 ecx
  00004	c7 45 fc cc cc
	cc cc		 mov	 DWORD PTR [ebp-4], -858993460 ; ccccccccH
  0000b	89 4d fc	 mov	 DWORD PTR _this$[ebp], ecx
  0000e	8b 4d fc	 mov	 ecx, DWORD PTR _this$[ebp]
  00011	e8 00 00 00 00	 call	 ??1WebGamePanelWnd@@UAE@XZ ; WebGamePanelWnd::~WebGamePanelWnd
  00016	8b 45 08	 mov	 eax, DWORD PTR ___flags$[ebp]
  00019	83 e0 01	 and	 eax, 1
  0001c	74 09		 je	 SHORT $L189349
  0001e	8b 4d fc	 mov	 ecx, DWORD PTR _this$[ebp]
  00021	51		 push	 ecx
  00022	e8 00 00 00 00	 call	 ??3CObject@@SGXPAX@Z	; CObject::operator delete
$L189349:
  00027	8b 45 fc	 mov	 eax, DWORD PTR _this$[ebp]
  0002a	83 c4 04	 add	 esp, 4
  0002d	3b ec		 cmp	 ebp, esp
  0002f	e8 00 00 00 00	 call	 __RTC_CheckEsp
  00034	8b e5		 mov	 esp, ebp
  00036	5d		 pop	 ebp
  00037	c2 04 00	 ret	 4
??_GWebGamePanelWnd@@UAEPAXI@Z ENDP			; WebGamePanelWnd::`scalar deleting destructor'
_TEXT	ENDS
PUBLIC	??0IMessageObserver@@QAE@XZ			; IMessageObserver::IMessageObserver
PUBLIC	??_R4IPanelChangeObserver@@6B@			; IPanelChangeObserver::`RTTI Complete Object Locator'
PUBLIC	??_R3IPanelChangeObserver@@8			; IPanelChangeObserver::`RTTI Class Hierarchy Descriptor'
PUBLIC	??_R2IPanelChangeObserver@@8			; IPanelChangeObserver::`RTTI Base Class Array'
PUBLIC	??_R1A@?0A@A@IPanelChangeObserver@@8		; IPanelChangeObserver::`RTTI Base Class Descriptor at (0,-1,0,0)'
PUBLIC	??_R1A@?0A@A@IMessageObserver@@8		; IMessageObserver::`RTTI Base Class Descriptor at (0,-1,0,0)'
PUBLIC	?IPanelChangeOb_ToFullScreen@IPanelChangeObserver@@UAEXPAVCWnd@@@Z ; IPanelChangeObserver::IPanelChangeOb_ToFullScreen
PUBLIC	?IPanelChangeOb_ExitFullScreen@IPanelChangeObserver@@UAEXPAVCWnd@@@Z ; IPanelChangeObserver::IPanelChangeOb_ExitFullScreen
PUBLIC	??_7IPanelChangeObserver@@6B@			; IPanelChangeObserver::`vftable'
PUBLIC	??_GIPanelChangeObserver@@UAEPAXI@Z		; IPanelChangeObserver::`scalar deleting destructor'
EXTRN	??_EIPanelChangeObserver@@UAEPAXI@Z:NEAR	; IPanelChangeObserver::`vector deleting destructor'
;	COMDAT ??_7IPanelChangeObserver@@6B@
CONST	SEGMENT
??_7IPanelChangeObserver@@6B@ DD FLAT:??_R4IPanelChangeObserver@@6B@ ; IPanelChangeObserver::`vftable'
	DD	FLAT:??_EIPanelChangeObserver@@UAEPAXI@Z
	DD	FLAT:?IPanelChangeOb_WindowMax@IPanelChangeObserver@@UAEXXZ
	DD	FLAT:?IPanelChangeOb_WindowMin@IPanelChangeObserver@@UAEXXZ
	DD	FLAT:?IPanelChangeOb_WindowRestore@IPanelChangeObserver@@UAEXXZ
	DD	FLAT:?IPanelChangeOb_WindowClose@IPanelChangeObserver@@UAEXXZ
	DD	FLAT:?IPanelChangeOb_ToFullScreen@IPanelChangeObserver@@UAEXPAVCWnd@@@Z
	DD	FLAT:?IPanelChangeOb_ExitFullScreen@IPanelChangeObserver@@UAEXPAVCWnd@@@Z
CONST	ENDS
;	COMDAT ??_R4IPanelChangeObserver@@6B@
rdata$r	SEGMENT
??_R4IPanelChangeObserver@@6B@ DD 00H			; IPanelChangeObserver::`RTTI Complete Object Locator'
	DD	00H
	DD	00H
	DD	FLAT:??_R0?AVIPanelChangeObserver@@@8
	DD	FLAT:??_R3IPanelChangeObserver@@8
rdata$r	ENDS
;	COMDAT ??_R3IPanelChangeObserver@@8
rdata$r	SEGMENT
??_R3IPanelChangeObserver@@8 DD 00H			; IPanelChangeObserver::`RTTI Class Hierarchy Descriptor'
	DD	00H
	DD	02H
	DD	FLAT:??_R2IPanelChangeObserver@@8
rdata$r	ENDS
;	COMDAT ??_R2IPanelChangeObserver@@8
rdata$r	SEGMENT
??_R2IPanelChangeObserver@@8 DD FLAT:??_R1A@?0A@A@IPanelChangeObserver@@8 ; IPanelChangeObserver::`RTTI Base Class Array'
	DD	FLAT:??_R1A@?0A@A@IMessageObserver@@8
rdata$r	ENDS
;	COMDAT ??_R1A@?0A@A@IPanelChangeObserver@@8
rdata$r	SEGMENT
??_R1A@?0A@A@IPanelChangeObserver@@8 DD FLAT:??_R0?AVIPanelChangeObserver@@@8 ; IPanelChangeObserver::`RTTI Base Class Descriptor at (0,-1,0,0)'
	DD	01H
	DD	00H
	DD	0ffffffffH
	DD	00H
	DD	00H
rdata$r	ENDS
;	COMDAT ??_R1A@?0A@A@IMessageObserver@@8
rdata$r	SEGMENT
??_R1A@?0A@A@IMessageObserver@@8 DD FLAT:??_R0?AVIMessageObserver@@@8 ; IMessageObserver::`RTTI Base Class Descriptor at (0,-1,0,0)'
	DD	00H
	DD	00H
	DD	0ffffffffH
	DD	00H
	DD	00H
; Function compile flags: /Odt /RTCsu
rdata$r	ENDS
;	COMDAT ??0IPanelChangeObserver@@QAE@XZ
_TEXT	SEGMENT
_this$ = -4						; size = 4
??0IPanelChangeObserver@@QAE@XZ PROC NEAR		; IPanelChangeObserver::IPanelChangeObserver, COMDAT
; _this$ = ecx
  00000	55		 push	 ebp
  00001	8b ec		 mov	 ebp, esp
  00003	51		 push	 ecx
  00004	c7 45 fc cc cc
	cc cc		 mov	 DWORD PTR [ebp-4], -858993460 ; ccccccccH
  0000b	89 4d fc	 mov	 DWORD PTR _this$[ebp], ecx
  0000e	8b 4d fc	 mov	 ecx, DWORD PTR _this$[ebp]
  00011	e8 00 00 00 00	 call	 ??0IMessageObserver@@QAE@XZ
  00016	8b 45 fc	 mov	 eax, DWORD PTR _this$[ebp]
  00019	c7 00 00 00 00
	00		 mov	 DWORD PTR [eax], OFFSET FLAT:??_7IPanelChangeObserver@@6B@
  0001f	8b 45 fc	 mov	 eax, DWORD PTR _this$[ebp]
  00022	83 c4 04	 add	 esp, 4
  00025	3b ec		 cmp	 ebp, esp
  00027	e8 00 00 00 00	 call	 __RTC_CheckEsp
  0002c	8b e5		 mov	 esp, ebp
  0002e	5d		 pop	 ebp
  0002f	c3		 ret	 0
??0IPanelChangeObserver@@QAE@XZ ENDP			; IPanelChangeObserver::IPanelChangeObserver
; Function compile flags: /Odt /RTCsu
_TEXT	ENDS
;	COMDAT ?IPanelChangeOb_ToFullScreen@IPanelChangeObserver@@UAEXPAVCWnd@@@Z
_TEXT	SEGMENT
_this$ = -4						; size = 4
_pWnd$ = 8						; size = 4
?IPanelChangeOb_ToFullScreen@IPanelChangeObserver@@UAEXPAVCWnd@@@Z PROC NEAR ; IPanelChangeObserver::IPanelChangeOb_ToFullScreen, COMDAT
; _this$ = ecx

; 13   : 	virtual void	IPanelChangeOb_ToFullScreen( CWnd* pWnd ){};

  00000	55		 push	 ebp
  00001	8b ec		 mov	 ebp, esp
  00003	51		 push	 ecx
  00004	c7 45 fc cc cc
	cc cc		 mov	 DWORD PTR [ebp-4], -858993460 ; ccccccccH
  0000b	89 4d fc	 mov	 DWORD PTR _this$[ebp], ecx
  0000e	8b e5		 mov	 esp, ebp
  00010	5d		 pop	 ebp
  00011	c2 04 00	 ret	 4
?IPanelChangeOb_ToFullScreen@IPanelChangeObserver@@UAEXPAVCWnd@@@Z ENDP ; IPanelChangeObserver::IPanelChangeOb_ToFullScreen
; Function compile flags: /Odt /RTCsu
_TEXT	ENDS
;	COMDAT ?IPanelChangeOb_ExitFullScreen@IPanelChangeObserver@@UAEXPAVCWnd@@@Z
_TEXT	SEGMENT
_this$ = -4						; size = 4
_pWnd$ = 8						; size = 4
?IPanelChangeOb_ExitFullScreen@IPanelChangeObserver@@UAEXPAVCWnd@@@Z PROC NEAR ; IPanelChangeObserver::IPanelChangeOb_ExitFullScreen, COMDAT
; _this$ = ecx

; 14   : 	virtual void	IPanelChangeOb_ExitFullScreen( CWnd* pWnd ){};

  00000	55		 push	 ebp
  00001	8b ec		 mov	 ebp, esp
  00003	51		 push	 ecx
  00004	c7 45 fc cc cc
	cc cc		 mov	 DWORD PTR [ebp-4], -858993460 ; ccccccccH
  0000b	89 4d fc	 mov	 DWORD PTR _this$[ebp], ecx
  0000e	8b e5		 mov	 esp, ebp
  00010	5d		 pop	 ebp
  00011	c2 04 00	 ret	 4
?IPanelChangeOb_ExitFullScreen@IPanelChangeObserver@@UAEXPAVCWnd@@@Z ENDP ; IPanelChangeObserver::IPanelChangeOb_ExitFullScreen
_TEXT	ENDS
PUBLIC	??1IMessageObserver@@UAE@XZ			; IMessageObserver::~IMessageObserver
; Function compile flags: /Odt /RTCsu
;	COMDAT ??1IPanelChangeObserver@@UAE@XZ
_TEXT	SEGMENT
_this$ = -4						; size = 4
??1IPanelChangeObserver@@UAE@XZ PROC NEAR		; IPanelChangeObserver::~IPanelChangeObserver, COMDAT
; _this$ = ecx
  00000	55		 push	 ebp
  00001	8b ec		 mov	 ebp, esp
  00003	51		 push	 ecx
  00004	c7 45 fc cc cc
	cc cc		 mov	 DWORD PTR [ebp-4], -858993460 ; ccccccccH
  0000b	89 4d fc	 mov	 DWORD PTR _this$[ebp], ecx
  0000e	8b 4d fc	 mov	 ecx, DWORD PTR _this$[ebp]
  00011	e8 00 00 00 00	 call	 ??1IMessageObserver@@UAE@XZ ; IMessageObserver::~IMessageObserver
  00016	83 c4 04	 add	 esp, 4
  00019	3b ec		 cmp	 ebp, esp
  0001b	e8 00 00 00 00	 call	 __RTC_CheckEsp
  00020	8b e5		 mov	 esp, ebp
  00022	5d		 pop	 ebp
  00023	c3		 ret	 0
??1IPanelChangeObserver@@UAE@XZ ENDP			; IPanelChangeObserver::~IPanelChangeObserver
_TEXT	ENDS
EXTRN	__imp_??0?$basic_string@DU?$char_traits@D@std@@V?$allocator@D@2@@std@@QAE@XZ:NEAR
EXTRN	__imp_??1?$basic_string@DU?$char_traits@D@std@@V?$allocator@D@2@@std@@QAE@XZ:NEAR
;	COMDAT xdata$x
xdata$x	SEGMENT
$T190291 DD	0ffffffffH
	DD	FLAT:$L190285
	DD	00H
	DD	FLAT:$L190286
$T190289 DD	019930520H
	DD	02H
	DD	FLAT:$T190291
	DD	2 DUP(00H)
	DD	2 DUP(00H)
; Function compile flags: /Odt /RTCsu
xdata$x	ENDS
;	COMDAT ??0WEB_GAME@@QAE@XZ
_TEXT	SEGMENT
_this$ = -16						; size = 4
__$EHRec$ = -12						; size = 12
??0WEB_GAME@@QAE@XZ PROC NEAR				; WEB_GAME::WEB_GAME, COMDAT
; _this$ = ecx
  00000	55		 push	 ebp
  00001	8b ec		 mov	 ebp, esp
  00003	6a ff		 push	 -1
  00005	68 00 00 00 00	 push	 __ehhandler$??0WEB_GAME@@QAE@XZ
  0000a	64 a1 00 00 00
	00		 mov	 eax, DWORD PTR fs:__except_list
  00010	50		 push	 eax
  00011	64 89 25 00 00
	00 00		 mov	 DWORD PTR fs:__except_list, esp
  00018	51		 push	 ecx
  00019	56		 push	 esi
  0001a	c7 45 f0 cc cc
	cc cc		 mov	 DWORD PTR [ebp-16], -858993460 ; ccccccccH
  00021	89 4d f0	 mov	 DWORD PTR _this$[ebp], ecx
  00024	8b f4		 mov	 esi, esp
  00026	8b 4d f0	 mov	 ecx, DWORD PTR _this$[ebp]
  00029	ff 15 00 00 00
	00		 call	 DWORD PTR __imp_??0?$basic_string@DU?$char_traits@D@std@@V?$allocator@D@2@@std@@QAE@XZ
  0002f	3b f4		 cmp	 esi, esp
  00031	e8 00 00 00 00	 call	 __RTC_CheckEsp
  00036	c7 45 fc 00 00
	00 00		 mov	 DWORD PTR __$EHRec$[ebp+8], 0
  0003d	8b 4d f0	 mov	 ecx, DWORD PTR _this$[ebp]
  00040	83 c1 1c	 add	 ecx, 28			; 0000001cH
  00043	8b f4		 mov	 esi, esp
  00045	ff 15 00 00 00
	00		 call	 DWORD PTR __imp_??0?$basic_string@DU?$char_traits@D@std@@V?$allocator@D@2@@std@@QAE@XZ
  0004b	3b f4		 cmp	 esi, esp
  0004d	e8 00 00 00 00	 call	 __RTC_CheckEsp
  00052	c6 45 fc 01	 mov	 BYTE PTR __$EHRec$[ebp+8], 1
  00056	8b 4d f0	 mov	 ecx, DWORD PTR _this$[ebp]
  00059	83 c1 38	 add	 ecx, 56			; 00000038H
  0005c	8b f4		 mov	 esi, esp
  0005e	ff 15 00 00 00
	00		 call	 DWORD PTR __imp_??0?$basic_string@DU?$char_traits@D@std@@V?$allocator@D@2@@std@@QAE@XZ
  00064	3b f4		 cmp	 esi, esp
  00066	e8 00 00 00 00	 call	 __RTC_CheckEsp
  0006b	c7 45 fc ff ff
	ff ff		 mov	 DWORD PTR __$EHRec$[ebp+8], -1
  00072	8b 45 f0	 mov	 eax, DWORD PTR _this$[ebp]
  00075	8b 4d f4	 mov	 ecx, DWORD PTR __$EHRec$[ebp]
  00078	64 89 0d 00 00
	00 00		 mov	 DWORD PTR fs:__except_list, ecx
  0007f	5e		 pop	 esi
  00080	83 c4 10	 add	 esp, 16			; 00000010H
  00083	3b ec		 cmp	 ebp, esp
  00085	e8 00 00 00 00	 call	 __RTC_CheckEsp
  0008a	8b e5		 mov	 esp, ebp
  0008c	5d		 pop	 ebp
  0008d	c3		 ret	 0
_TEXT	ENDS
;	COMDAT text$x
text$x	SEGMENT
$L190285:
  00000	8b f4		 mov	 esi, esp
  00002	8b 4d f0	 mov	 ecx, DWORD PTR _this$[ebp]
  00005	ff 15 00 00 00
	00		 call	 DWORD PTR __imp_??1?$basic_string@DU?$char_traits@D@std@@V?$allocator@D@2@@std@@QAE@XZ
  0000b	3b f4		 cmp	 esi, esp
  0000d	e9 00 00 00 00	 jmp	 __RTC_CheckEsp
$L190286:
  00012	8b 4d f0	 mov	 ecx, DWORD PTR _this$[ebp]
  00015	83 c1 1c	 add	 ecx, 28			; 0000001cH
  00018	8b f4		 mov	 esi, esp
  0001a	ff 15 00 00 00
	00		 call	 DWORD PTR __imp_??1?$basic_string@DU?$char_traits@D@std@@V?$allocator@D@2@@std@@QAE@XZ
  00020	3b f4		 cmp	 esi, esp
  00022	e9 00 00 00 00	 jmp	 __RTC_CheckEsp
__ehhandler$??0WEB_GAME@@QAE@XZ:
  00027	b8 00 00 00 00	 mov	 eax, OFFSET FLAT:$T190289
  0002c	e9 00 00 00 00	 jmp	 ___CxxFrameHandler
text$x	ENDS
??0WEB_GAME@@QAE@XZ ENDP				; WEB_GAME::WEB_GAME
;	COMDAT xdata$x
xdata$x	SEGMENT
$T190301 DD	0ffffffffH
	DD	FLAT:$L190295
	DD	00H
	DD	FLAT:$L190296
$T190299 DD	019930520H
	DD	02H
	DD	FLAT:$T190301
	DD	2 DUP(00H)
	DD	2 DUP(00H)
; Function compile flags: /Odt /RTCsu
xdata$x	ENDS
;	COMDAT ??1WEB_GAME@@QAE@XZ
_TEXT	SEGMENT
_this$ = -16						; size = 4
__$EHRec$ = -12						; size = 12
??1WEB_GAME@@QAE@XZ PROC NEAR				; WEB_GAME::~WEB_GAME, COMDAT
; _this$ = ecx
  00000	55		 push	 ebp
  00001	8b ec		 mov	 ebp, esp
  00003	6a ff		 push	 -1
  00005	68 00 00 00 00	 push	 __ehhandler$??1WEB_GAME@@QAE@XZ
  0000a	64 a1 00 00 00
	00		 mov	 eax, DWORD PTR fs:__except_list
  00010	50		 push	 eax
  00011	64 89 25 00 00
	00 00		 mov	 DWORD PTR fs:__except_list, esp
  00018	51		 push	 ecx
  00019	56		 push	 esi
  0001a	c7 45 f0 cc cc
	cc cc		 mov	 DWORD PTR [ebp-16], -858993460 ; ccccccccH
  00021	89 4d f0	 mov	 DWORD PTR _this$[ebp], ecx
  00024	c7 45 fc 01 00
	00 00		 mov	 DWORD PTR __$EHRec$[ebp+8], 1
  0002b	8b 4d f0	 mov	 ecx, DWORD PTR _this$[ebp]
  0002e	83 c1 38	 add	 ecx, 56			; 00000038H
  00031	8b f4		 mov	 esi, esp
  00033	ff 15 00 00 00
	00		 call	 DWORD PTR __imp_??1?$basic_string@DU?$char_traits@D@std@@V?$allocator@D@2@@std@@QAE@XZ
  00039	3b f4		 cmp	 esi, esp
  0003b	e8 00 00 00 00	 call	 __RTC_CheckEsp
  00040	c6 45 fc 00	 mov	 BYTE PTR __$EHRec$[ebp+8], 0
  00044	8b 4d f0	 mov	 ecx, DWORD PTR _this$[ebp]
  00047	83 c1 1c	 add	 ecx, 28			; 0000001cH
  0004a	8b f4		 mov	 esi, esp
  0004c	ff 15 00 00 00
	00		 call	 DWORD PTR __imp_??1?$basic_string@DU?$char_traits@D@std@@V?$allocator@D@2@@std@@QAE@XZ
  00052	3b f4		 cmp	 esi, esp
  00054	e8 00 00 00 00	 call	 __RTC_CheckEsp
  00059	c7 45 fc ff ff
	ff ff		 mov	 DWORD PTR __$EHRec$[ebp+8], -1
  00060	8b f4		 mov	 esi, esp
  00062	8b 4d f0	 mov	 ecx, DWORD PTR _this$[ebp]
  00065	ff 15 00 00 00
	00		 call	 DWORD PTR __imp_??1?$basic_string@DU?$char_traits@D@std@@V?$allocator@D@2@@std@@QAE@XZ
  0006b	3b f4		 cmp	 esi, esp
  0006d	e8 00 00 00 00	 call	 __RTC_CheckEsp
  00072	8b 4d f4	 mov	 ecx, DWORD PTR __$EHRec$[ebp]
  00075	64 89 0d 00 00
	00 00		 mov	 DWORD PTR fs:__except_list, ecx
  0007c	5e		 pop	 esi
  0007d	83 c4 10	 add	 esp, 16			; 00000010H
  00080	3b ec		 cmp	 ebp, esp
  00082	e8 00 00 00 00	 call	 __RTC_CheckEsp
  00087	8b e5		 mov	 esp, ebp
  00089	5d		 pop	 ebp
  0008a	c3		 ret	 0
_TEXT	ENDS
;	COMDAT text$x
text$x	SEGMENT
$L190295:
  00000	8b f4		 mov	 esi, esp
  00002	8b 4d f0	 mov	 ecx, DWORD PTR _this$[ebp]
  00005	ff 15 00 00 00
	00		 call	 DWORD PTR __imp_??1?$basic_string@DU?$char_traits@D@std@@V?$allocator@D@2@@std@@QAE@XZ
  0000b	3b f4		 cmp	 esi, esp
  0000d	e9 00 00 00 00	 jmp	 __RTC_CheckEsp
$L190296:
  00012	8b 4d f0	 mov	 ecx, DWORD PTR _this$[ebp]
  00015	83 c1 1c	 add	 ecx, 28			; 0000001cH
  00018	8b f4		 mov	 esi, esp
  0001a	ff 15 00 00 00
	00		 call	 DWORD PTR __imp_??1?$basic_string@DU?$char_traits@D@std@@V?$allocator@D@2@@std@@QAE@XZ
  00020	3b f4		 cmp	 esi, esp
  00022	e9 00 00 00 00	 jmp	 __RTC_CheckEsp
__ehhandler$??1WEB_GAME@@QAE@XZ:
  00027	b8 00 00 00 00	 mov	 eax, OFFSET FLAT:$T190299
  0002c	e9 00 00 00 00	 jmp	 ___CxxFrameHandler
text$x	ENDS
??1WEB_GAME@@QAE@XZ ENDP				; WEB_GAME::~WEB_GAME
EXTRN	??3@YAXPAX@Z:NEAR				; operator delete
; Function compile flags: /Odt /RTCsu
;	COMDAT ??_GIPanelChangeObserver@@UAEPAXI@Z
_TEXT	SEGMENT
_this$ = -4						; size = 4
___flags$ = 8						; size = 4
??_GIPanelChangeObserver@@UAEPAXI@Z PROC NEAR		; IPanelChangeObserver::`scalar deleting destructor', COMDAT
; _this$ = ecx
  00000	55		 push	 ebp
  00001	8b ec		 mov	 ebp, esp
  00003	51		 push	 ecx
  00004	c7 45 fc cc cc
	cc cc		 mov	 DWORD PTR [ebp-4], -858993460 ; ccccccccH
  0000b	89 4d fc	 mov	 DWORD PTR _this$[ebp], ecx
  0000e	8b 4d fc	 mov	 ecx, DWORD PTR _this$[ebp]
  00011	e8 00 00 00 00	 call	 ??1IPanelChangeObserver@@UAE@XZ
  00016	8b 45 08	 mov	 eax, DWORD PTR ___flags$[ebp]
  00019	83 e0 01	 and	 eax, 1
  0001c	74 0c		 je	 SHORT $L189361
  0001e	8b 4d fc	 mov	 ecx, DWORD PTR _this$[ebp]
  00021	51		 push	 ecx
  00022	e8 00 00 00 00	 call	 ??3@YAXPAX@Z		; operator delete
  00027	83 c4 04	 add	 esp, 4
$L189361:
  0002a	8b 45 fc	 mov	 eax, DWORD PTR _this$[ebp]
  0002d	83 c4 04	 add	 esp, 4
  00030	3b ec		 cmp	 ebp, esp
  00032	e8 00 00 00 00	 call	 __RTC_CheckEsp
  00037	8b e5		 mov	 esp, ebp
  00039	5d		 pop	 ebp
  0003a	c2 04 00	 ret	 4
??_GIPanelChangeObserver@@UAEPAXI@Z ENDP		; IPanelChangeObserver::`scalar deleting destructor'
_TEXT	ENDS
PUBLIC	??_7IMessageObserver@@6B@			; IMessageObserver::`vftable'
PUBLIC	??_GIMessageObserver@@UAEPAXI@Z			; IMessageObserver::`scalar deleting destructor'
PUBLIC	??_R4IMessageObserver@@6B@			; IMessageObserver::`RTTI Complete Object Locator'
PUBLIC	??_R3IMessageObserver@@8			; IMessageObserver::`RTTI Class Hierarchy Descriptor'
PUBLIC	??_R2IMessageObserver@@8			; IMessageObserver::`RTTI Base Class Array'
EXTRN	??_EIMessageObserver@@UAEPAXI@Z:NEAR		; IMessageObserver::`vector deleting destructor'
;	COMDAT ??_7IMessageObserver@@6B@
CONST	SEGMENT
??_7IMessageObserver@@6B@ DD FLAT:??_R4IMessageObserver@@6B@ ; IMessageObserver::`vftable'
	DD	FLAT:??_EIMessageObserver@@UAEPAXI@Z
CONST	ENDS
;	COMDAT ??_R4IMessageObserver@@6B@
rdata$r	SEGMENT
??_R4IMessageObserver@@6B@ DD 00H			; IMessageObserver::`RTTI Complete Object Locator'
	DD	00H
	DD	00H
	DD	FLAT:??_R0?AVIMessageObserver@@@8
	DD	FLAT:??_R3IMessageObserver@@8
rdata$r	ENDS
;	COMDAT ??_R3IMessageObserver@@8
rdata$r	SEGMENT
??_R3IMessageObserver@@8 DD 00H				; IMessageObserver::`RTTI Class Hierarchy Descriptor'
	DD	00H
	DD	01H
	DD	FLAT:??_R2IMessageObserver@@8
rdata$r	ENDS
;	COMDAT ??_R2IMessageObserver@@8
rdata$r	SEGMENT
??_R2IMessageObserver@@8 DD FLAT:??_R1A@?0A@A@IMessageObserver@@8 ; IMessageObserver::`RTTI Base Class Array'
; Function compile flags: /Odt /RTCsu
rdata$r	ENDS
;	COMDAT ??0IMessageObserver@@QAE@XZ
_TEXT	SEGMENT
_this$ = -4						; size = 4
??0IMessageObserver@@QAE@XZ PROC NEAR			; IMessageObserver::IMessageObserver, COMDAT
; _this$ = ecx
  00000	55		 push	 ebp
  00001	8b ec		 mov	 ebp, esp
  00003	51		 push	 ecx
  00004	c7 45 fc cc cc
	cc cc		 mov	 DWORD PTR [ebp-4], -858993460 ; ccccccccH
  0000b	89 4d fc	 mov	 DWORD PTR _this$[ebp], ecx
  0000e	8b 45 fc	 mov	 eax, DWORD PTR _this$[ebp]
  00011	c7 00 00 00 00
	00		 mov	 DWORD PTR [eax], OFFSET FLAT:??_7IMessageObserver@@6B@
  00017	8b 45 fc	 mov	 eax, DWORD PTR _this$[ebp]
  0001a	8b e5		 mov	 esp, ebp
  0001c	5d		 pop	 ebp
  0001d	c3		 ret	 0
??0IMessageObserver@@QAE@XZ ENDP			; IMessageObserver::IMessageObserver
_TEXT	ENDS
xdata$x	SEGMENT
$T190323 DD	0ffffffffH
	DD	FLAT:$L190315
	DD	00H
	DD	FLAT:$L190318
	DD	01H
	DD	FLAT:$L190319
$T190321 DD	019930520H
	DD	03H
	DD	FLAT:$T190323
	DD	2 DUP(00H)
	DD	2 DUP(00H)
; Function compile flags: /Odt /RTCsu
; File d:\boxgit\playbox\playbox\dev\prj\playbox\src\module\gamepanel\webgamepanelwnd.cpp
xdata$x	ENDS
_TEXT	SEGMENT
tv68 = -40						; size = 4
tv84 = -36						; size = 4
tv89 = -32						; size = 4
tv81 = -28						; size = 4
$T190310 = -24						; size = 4
$T190309 = -20						; size = 4
_this$ = -16						; size = 4
__$EHRec$ = -12						; size = 12
??1WebGamePanelWnd@@UAE@XZ PROC NEAR			; WebGamePanelWnd::~WebGamePanelWnd
; _this$ = ecx

; 23   : {

  001c0	55		 push	 ebp
  001c1	8b ec		 mov	 ebp, esp
  001c3	6a ff		 push	 -1
  001c5	68 00 00 00 00	 push	 __ehhandler$??1WebGamePanelWnd@@UAE@XZ
  001ca	64 a1 00 00 00
	00		 mov	 eax, DWORD PTR fs:__except_list
  001d0	50		 push	 eax
  001d1	64 89 25 00 00
	00 00		 mov	 DWORD PTR fs:__except_list, esp
  001d8	83 ec 1c	 sub	 esp, 28			; 0000001cH
  001db	56		 push	 esi
  001dc	b8 cc cc cc cc	 mov	 eax, -858993460		; ccccccccH
  001e1	89 45 d8	 mov	 DWORD PTR [ebp-40], eax
  001e4	89 45 dc	 mov	 DWORD PTR [ebp-36], eax
  001e7	89 45 e0	 mov	 DWORD PTR [ebp-32], eax
  001ea	89 45 e4	 mov	 DWORD PTR [ebp-28], eax
  001ed	89 45 e8	 mov	 DWORD PTR [ebp-24], eax
  001f0	89 45 ec	 mov	 DWORD PTR [ebp-20], eax
  001f3	89 45 f0	 mov	 DWORD PTR [ebp-16], eax
  001f6	89 4d f0	 mov	 DWORD PTR _this$[ebp], ecx
  001f9	8b 45 f0	 mov	 eax, DWORD PTR _this$[ebp]
  001fc	c7 00 00 00 00
	00		 mov	 DWORD PTR [eax], OFFSET FLAT:??_7WebGamePanelWnd@@6BCBasicWnd@@@
  00202	8b 4d f0	 mov	 ecx, DWORD PTR _this$[ebp]
  00205	c7 41 54 00 00
	00 00		 mov	 DWORD PTR [ecx+84], OFFSET FLAT:??_7WebGamePanelWnd@@6BIPanelChangeObserver@@@
  0020c	c7 45 fc 02 00
	00 00		 mov	 DWORD PTR __$EHRec$[ebp+8], 2

; 24   : 	delete m_pWndGamePlaying;

  00213	8b 55 f0	 mov	 edx, DWORD PTR _this$[ebp]
  00216	8b 42 5c	 mov	 eax, DWORD PTR [edx+92]
  00219	89 45 e8	 mov	 DWORD PTR $T190310[ebp], eax
  0021c	8b 4d e8	 mov	 ecx, DWORD PTR $T190310[ebp]
  0021f	89 4d ec	 mov	 DWORD PTR $T190309[ebp], ecx
  00222	83 7d ec 00	 cmp	 DWORD PTR $T190309[ebp], 0
  00226	74 1b		 je	 SHORT $L190311
  00228	8b f4		 mov	 esi, esp
  0022a	6a 01		 push	 1
  0022c	8b 55 ec	 mov	 edx, DWORD PTR $T190309[ebp]
  0022f	8b 02		 mov	 eax, DWORD PTR [edx]
  00231	8b 4d ec	 mov	 ecx, DWORD PTR $T190309[ebp]
  00234	ff 50 04	 call	 DWORD PTR [eax+4]
  00237	3b f4		 cmp	 esi, esp
  00239	e8 00 00 00 00	 call	 __RTC_CheckEsp
  0023e	89 45 e4	 mov	 DWORD PTR tv81[ebp], eax
  00241	eb 07		 jmp	 SHORT $L190312
$L190311:
  00243	c7 45 e4 00 00
	00 00		 mov	 DWORD PTR tv81[ebp], 0
$L190312:

; 25   : 	AfxGetMessageManager()->DetachMessage( ID_MESSAGE_PANEL_CHANGE,(IPanelChangeObserver*) this);

  0024a	83 7d f0 00	 cmp	 DWORD PTR _this$[ebp], 0
  0024e	74 0b		 je	 SHORT $L190313
  00250	8b 4d f0	 mov	 ecx, DWORD PTR _this$[ebp]
  00253	83 c1 54	 add	 ecx, 84			; 00000054H
  00256	89 4d e0	 mov	 DWORD PTR tv89[ebp], ecx
  00259	eb 07		 jmp	 SHORT $L190314
$L190313:
  0025b	c7 45 e0 00 00
	00 00		 mov	 DWORD PTR tv89[ebp], 0
$L190314:
  00262	e8 00 00 00 00	 call	 ?AfxGetMessageManager@@YAPAVIMessageManager@@XZ ; AfxGetMessageManager
  00267	89 45 dc	 mov	 DWORD PTR tv84[ebp], eax
  0026a	8b f4		 mov	 esi, esp
  0026c	8b 55 e0	 mov	 edx, DWORD PTR tv89[ebp]
  0026f	52		 push	 edx
  00270	68 00 00 00 00	 push	 OFFSET FLAT:_ID_MESSAGE_PANEL_CHANGE
  00275	8b 45 dc	 mov	 eax, DWORD PTR tv84[ebp]
  00278	8b 10		 mov	 edx, DWORD PTR [eax]
  0027a	8b 4d dc	 mov	 ecx, DWORD PTR tv84[ebp]
  0027d	ff 52 08	 call	 DWORD PTR [edx+8]
  00280	3b f4		 cmp	 esi, esp
  00282	e8 00 00 00 00	 call	 __RTC_CheckEsp

; 26   : }

  00287	c6 45 fc 01	 mov	 BYTE PTR __$EHRec$[ebp+8], 1
  0028b	8b 4d f0	 mov	 ecx, DWORD PTR _this$[ebp]
  0028e	83 c1 60	 add	 ecx, 96			; 00000060H
  00291	e8 00 00 00 00	 call	 ??1WEB_GAME@@QAE@XZ
  00296	c6 45 fc 00	 mov	 BYTE PTR __$EHRec$[ebp+8], 0
  0029a	83 7d f0 00	 cmp	 DWORD PTR _this$[ebp], 0
  0029e	74 0b		 je	 SHORT $L190307
  002a0	8b 45 f0	 mov	 eax, DWORD PTR _this$[ebp]
  002a3	83 c0 54	 add	 eax, 84			; 00000054H
  002a6	89 45 d8	 mov	 DWORD PTR tv68[ebp], eax
  002a9	eb 07		 jmp	 SHORT $L190308
$L190307:
  002ab	c7 45 d8 00 00
	00 00		 mov	 DWORD PTR tv68[ebp], 0
$L190308:
  002b2	8b 4d d8	 mov	 ecx, DWORD PTR tv68[ebp]
  002b5	e8 00 00 00 00	 call	 ??1IPanelChangeObserver@@UAE@XZ
  002ba	c7 45 fc ff ff
	ff ff		 mov	 DWORD PTR __$EHRec$[ebp+8], -1
  002c1	8b 4d f0	 mov	 ecx, DWORD PTR _this$[ebp]
  002c4	e8 00 00 00 00	 call	 ??1CBasicWnd@@UAE@XZ	; CBasicWnd::~CBasicWnd
  002c9	8b 4d f4	 mov	 ecx, DWORD PTR __$EHRec$[ebp]
  002cc	64 89 0d 00 00
	00 00		 mov	 DWORD PTR fs:__except_list, ecx
  002d3	5e		 pop	 esi
  002d4	83 c4 28	 add	 esp, 40			; 00000028H
  002d7	3b ec		 cmp	 ebp, esp
  002d9	e8 00 00 00 00	 call	 __RTC_CheckEsp
  002de	8b e5		 mov	 esp, ebp
  002e0	5d		 pop	 ebp
  002e1	c3		 ret	 0
_TEXT	ENDS
text$x	SEGMENT
$L190315:
  0003c	8b 4d f0	 mov	 ecx, DWORD PTR _this$[ebp]
  0003f	e9 00 00 00 00	 jmp	 ??1CBasicWnd@@UAE@XZ	; CBasicWnd::~CBasicWnd
$L190318:
  00044	83 7d f0 00	 cmp	 DWORD PTR _this$[ebp], 0
  00048	0f 84 0e 00 00
	00		 je	 $L190316
  0004e	8b 45 f0	 mov	 eax, DWORD PTR _this$[ebp]
  00051	83 c0 54	 add	 eax, 84			; 00000054H
  00054	89 45 d8	 mov	 DWORD PTR tv68[ebp], eax
  00057	e9 07 00 00 00	 jmp	 $L190317
$L190316:
  0005c	c7 45 d8 00 00
	00 00		 mov	 DWORD PTR tv68[ebp], 0
$L190317:
  00063	8b 4d d8	 mov	 ecx, DWORD PTR tv68[ebp]
  00066	e9 00 00 00 00	 jmp	 ??1IPanelChangeObserver@@UAE@XZ
$L190319:
  0006b	8b 4d f0	 mov	 ecx, DWORD PTR _this$[ebp]
  0006e	83 c1 60	 add	 ecx, 96			; 00000060H
  00071	e9 00 00 00 00	 jmp	 ??1WEB_GAME@@QAE@XZ
__ehhandler$??1WebGamePanelWnd@@UAE@XZ:
  00076	b8 00 00 00 00	 mov	 eax, OFFSET FLAT:$T190321
  0007b	e9 00 00 00 00	 jmp	 ___CxxFrameHandler
text$x	ENDS
??1WebGamePanelWnd@@UAE@XZ ENDP				; WebGamePanelWnd::~WebGamePanelWnd
PUBLIC	?GetThisMessageMap@WebGamePanelWnd@@KGPBUAFX_MSGMAP@@XZ ; WebGamePanelWnd::GetThisMessageMap
; Function compile flags: /Odt /RTCsu
_TEXT	SEGMENT
?GetThisMessageMap@WebGamePanelWnd@@KGPBUAFX_MSGMAP@@XZ PROC NEAR ; WebGamePanelWnd::GetThisMessageMap

; 28   : BEGIN_MESSAGE_MAP(WebGamePanelWnd, CBasicWnd)

  002f0	55		 push	 ebp
  002f1	8b ec		 mov	 ebp, esp
  002f3	b8 00 00 00 00	 mov	 eax, OFFSET FLAT:?messageMap@WebGamePanelWnd@@1UAFX_MSGMAP@@B ; WebGamePanelWnd::messageMap
  002f8	5d		 pop	 ebp
  002f9	c3		 ret	 0
?GetThisMessageMap@WebGamePanelWnd@@KGPBUAFX_MSGMAP@@XZ ENDP ; WebGamePanelWnd::GetThisMessageMap
; Function compile flags: /Odt /RTCsu
_this$ = -4						; size = 4
?GetMessageMap@WebGamePanelWnd@@MBEPBUAFX_MSGMAP@@XZ PROC NEAR ; WebGamePanelWnd::GetMessageMap
; _this$ = ecx

; 28   : BEGIN_MESSAGE_MAP(WebGamePanelWnd, CBasicWnd)

  00300	55		 push	 ebp
  00301	8b ec		 mov	 ebp, esp
  00303	51		 push	 ecx
  00304	c7 45 fc cc cc
	cc cc		 mov	 DWORD PTR [ebp-4], -858993460 ; ccccccccH
  0030b	89 4d fc	 mov	 DWORD PTR _this$[ebp], ecx
  0030e	b8 00 00 00 00	 mov	 eax, OFFSET FLAT:?messageMap@WebGamePanelWnd@@1UAFX_MSGMAP@@B ; WebGamePanelWnd::messageMap
  00313	8b e5		 mov	 esp, ebp
  00315	5d		 pop	 ebp
  00316	c3		 ret	 0
?GetMessageMap@WebGamePanelWnd@@MBEPBUAFX_MSGMAP@@XZ ENDP ; WebGamePanelWnd::GetMessageMap
_TEXT	ENDS
EXTRN	?AfxGetUIManager@@YAPAVIUIManager@@XZ:NEAR	; AfxGetUIManager
EXTRN	?OnCreate@CWnd@@IAEHPAUtagCREATESTRUCTA@@@Z:NEAR ; CWnd::OnCreate
EXTRN	??0CRect@@QAE@HHHH@Z:NEAR			; CRect::CRect
EXTRN	__imp_??0?$CStringT@DV?$StrTraitMFC_DLL@DV?$ChTraitsCRT@D@ATL@@@@@ATL@@QAE@PBD@Z:NEAR
EXTRN	__imp_??1?$CStringT@DV?$StrTraitMFC_DLL@DV?$ChTraitsCRT@D@ATL@@@@@ATL@@QAE@XZ:NEAR
EXTRN	@_RTC_CheckStackVars@8:NEAR
xdata$x	SEGMENT
$T190346 DD	0ffffffffH
	DD	FLAT:$L190335
	DD	0ffffffffH
	DD	FLAT:$L190337
$T190340 DD	019930520H
	DD	02H
	DD	FLAT:$T190346
	DD	2 DUP(00H)
	DD	2 DUP(00H)
; Function compile flags: /Odt /RTCsu
xdata$x	ENDS
_TEXT	SEGMENT
tv256 = -104						; size = 4
tv253 = -100						; size = 4
tv260 = -96						; size = 4
tv251 = -92						; size = 4
tv248 = -88						; size = 4
tv257 = -84						; size = 4
tv246 = -80						; size = 4
tv243 = -76						; size = 4
tv135 = -72						; size = 4
$T190332 = -68						; size = 4
$T190331 = -64						; size = 4
$T190330 = -60						; size = 4
$T190329 = -56						; size = 4
$T190328 = -52						; size = 4
$T190327 = -48						; size = 4
_pLayoutMgr$ = -44					; size = 4
_rectNull$ = -36					; size = 16
_this$ = -16						; size = 4
__$EHRec$ = -12						; size = 12
_lpCreateStruct$ = 8					; size = 4
?OnCreate@WebGamePanelWnd@@IAEHPAUtagCREATESTRUCTA@@@Z PROC NEAR ; WebGamePanelWnd::OnCreate
; _this$ = ecx

; 36   : {

  00320	55		 push	 ebp
  00321	8b ec		 mov	 ebp, esp
  00323	6a ff		 push	 -1
  00325	68 00 00 00 00	 push	 __ehhandler$?OnCreate@WebGamePanelWnd@@IAEHPAUtagCREATESTRUCTA@@@Z
  0032a	64 a1 00 00 00
	00		 mov	 eax, DWORD PTR fs:__except_list
  00330	50		 push	 eax
  00331	64 89 25 00 00
	00 00		 mov	 DWORD PTR fs:__except_list, esp
  00338	83 ec 5c	 sub	 esp, 92			; 0000005cH
  0033b	56		 push	 esi
  0033c	57		 push	 edi
  0033d	51		 push	 ecx
  0033e	8d 7d 98	 lea	 edi, DWORD PTR [ebp-104]
  00341	b9 17 00 00 00	 mov	 ecx, 23			; 00000017H
  00346	b8 cc cc cc cc	 mov	 eax, -858993460		; ccccccccH
  0034b	f3 ab		 rep stosd
  0034d	59		 pop	 ecx
  0034e	89 4d f0	 mov	 DWORD PTR _this$[ebp], ecx

; 37   : 	if(__super::OnCreate(lpCreateStruct) == -1)

  00351	8b 45 08	 mov	 eax, DWORD PTR _lpCreateStruct$[ebp]
  00354	50		 push	 eax
  00355	8b 4d f0	 mov	 ecx, DWORD PTR _this$[ebp]
  00358	e8 00 00 00 00	 call	 ?OnCreate@CWnd@@IAEHPAUtagCREATESTRUCTA@@@Z ; CWnd::OnCreate
  0035d	83 f8 ff	 cmp	 eax, -1
  00360	75 08		 jne	 SHORT $L189395

; 38   : 	{
; 39   : 		return -1;

  00362	83 c8 ff	 or	 eax, -1
  00365	e9 b7 01 00 00	 jmp	 $L189394
$L189395:

; 40   : 	}
; 41   : 	CRect rectNull(0,0,0,0);

  0036a	6a 00		 push	 0
  0036c	6a 00		 push	 0
  0036e	6a 00		 push	 0
  00370	6a 00		 push	 0
  00372	8d 4d dc	 lea	 ecx, DWORD PTR _rectNull$[ebp]
  00375	e8 00 00 00 00	 call	 ??0CRect@@QAE@HHHH@Z	; CRect::CRect

; 42   : 
; 43   : 	m_pWndGameRight->Create(NULL,NULL,WS_CHILD|WS_CLIPCHILDREN|WS_CLIPSIBLINGS,rectNull,this,ID_WND_WEBGAMERIGHT );

  0037a	8b f4		 mov	 esi, esp
  0037c	6a 00		 push	 0
  0037e	68 d5 00 00 00	 push	 213			; 000000d5H
  00383	8b 4d f0	 mov	 ecx, DWORD PTR _this$[ebp]
  00386	51		 push	 ecx
  00387	8d 55 dc	 lea	 edx, DWORD PTR _rectNull$[ebp]
  0038a	52		 push	 edx
  0038b	68 00 00 00 46	 push	 1174405120		; 46000000H
  00390	6a 00		 push	 0
  00392	6a 00		 push	 0
  00394	8b 45 f0	 mov	 eax, DWORD PTR _this$[ebp]
  00397	8b 48 58	 mov	 ecx, DWORD PTR [eax+88]
  0039a	8b 55 f0	 mov	 edx, DWORD PTR _this$[ebp]
  0039d	8b 42 58	 mov	 eax, DWORD PTR [edx+88]
  003a0	8b 11		 mov	 edx, DWORD PTR [ecx]
  003a2	8b c8		 mov	 ecx, eax
  003a4	ff 52 5c	 call	 DWORD PTR [edx+92]
  003a7	3b f4		 cmp	 esi, esp
  003a9	e8 00 00 00 00	 call	 __RTC_CheckEsp

; 44   : 	m_pWndGamePlaying->Create(NULL,NULL,WS_CHILD|WS_CLIPCHILDREN|WS_CLIPSIBLINGS,rectNull,this,ID_WND_WEBGAMEPLAYING );

  003ae	8b f4		 mov	 esi, esp
  003b0	6a 00		 push	 0
  003b2	68 d6 00 00 00	 push	 214			; 000000d6H
  003b7	8b 45 f0	 mov	 eax, DWORD PTR _this$[ebp]
  003ba	50		 push	 eax
  003bb	8d 4d dc	 lea	 ecx, DWORD PTR _rectNull$[ebp]
  003be	51		 push	 ecx
  003bf	68 00 00 00 46	 push	 1174405120		; 46000000H
  003c4	6a 00		 push	 0
  003c6	6a 00		 push	 0
  003c8	8b 55 f0	 mov	 edx, DWORD PTR _this$[ebp]
  003cb	8b 42 5c	 mov	 eax, DWORD PTR [edx+92]
  003ce	8b 4d f0	 mov	 ecx, DWORD PTR _this$[ebp]
  003d1	8b 49 5c	 mov	 ecx, DWORD PTR [ecx+92]
  003d4	8b 10		 mov	 edx, DWORD PTR [eax]
  003d6	ff 52 5c	 call	 DWORD PTR [edx+92]
  003d9	3b f4		 cmp	 esi, esp
  003db	e8 00 00 00 00	 call	 __RTC_CheckEsp

; 45   : 
; 46   : 	ILayoutMgr* pLayoutMgr =  AfxGetUIManager()->UIGetLayoutMgr();

  003e0	e8 00 00 00 00	 call	 ?AfxGetUIManager@@YAPAVIUIManager@@XZ ; AfxGetUIManager
  003e5	89 45 b8	 mov	 DWORD PTR tv135[ebp], eax
  003e8	8b 45 b8	 mov	 eax, DWORD PTR tv135[ebp]
  003eb	8b 10		 mov	 edx, DWORD PTR [eax]
  003ed	8b f4		 mov	 esi, esp
  003ef	8b 4d b8	 mov	 ecx, DWORD PTR tv135[ebp]
  003f2	ff 52 24	 call	 DWORD PTR [edx+36]
  003f5	3b f4		 cmp	 esi, esp
  003f7	e8 00 00 00 00	 call	 __RTC_CheckEsp
  003fc	89 45 d4	 mov	 DWORD PTR _pLayoutMgr$[ebp], eax

; 47   : 	
; 48   : 	pLayoutMgr->RegisterCtrl( this, "WebGamePlaying", m_pWndGamePlaying );

  003ff	8b 45 f0	 mov	 eax, DWORD PTR _this$[ebp]
  00402	8b 48 5c	 mov	 ecx, DWORD PTR [eax+92]
  00405	51		 push	 ecx
  00406	51		 push	 ecx
  00407	8b cc		 mov	 ecx, esp
  00409	89 65 d0	 mov	 DWORD PTR $T190327[ebp], esp
  0040c	8b f4		 mov	 esi, esp
  0040e	68 00 00 00 00	 push	 OFFSET FLAT:$SG189399
  00413	ff 15 00 00 00
	00		 call	 DWORD PTR __imp_??0?$CStringT@DV?$StrTraitMFC_DLL@DV?$ChTraitsCRT@D@ATL@@@@@ATL@@QAE@PBD@Z
  00419	3b f4		 cmp	 esi, esp
  0041b	e8 00 00 00 00	 call	 __RTC_CheckEsp
  00420	89 45 b4	 mov	 DWORD PTR tv243[ebp], eax
  00423	8b 55 f0	 mov	 edx, DWORD PTR _this$[ebp]
  00426	52		 push	 edx
  00427	8b 45 d4	 mov	 eax, DWORD PTR _pLayoutMgr$[ebp]
  0042a	8b 10		 mov	 edx, DWORD PTR [eax]
  0042c	8b 4d d4	 mov	 ecx, DWORD PTR _pLayoutMgr$[ebp]
  0042f	ff 52 34	 call	 DWORD PTR [edx+52]

; 49   : 	pLayoutMgr->RegisterCtrl( this, "WebGameRight", m_pWndGameRight );

  00432	8b 45 f0	 mov	 eax, DWORD PTR _this$[ebp]
  00435	8b 48 58	 mov	 ecx, DWORD PTR [eax+88]
  00438	51		 push	 ecx
  00439	51		 push	 ecx
  0043a	8b cc		 mov	 ecx, esp
  0043c	89 65 cc	 mov	 DWORD PTR $T190328[ebp], esp
  0043f	8b f4		 mov	 esi, esp
  00441	68 00 00 00 00	 push	 OFFSET FLAT:$SG189401
  00446	ff 15 00 00 00
	00		 call	 DWORD PTR __imp_??0?$CStringT@DV?$StrTraitMFC_DLL@DV?$ChTraitsCRT@D@ATL@@@@@ATL@@QAE@PBD@Z
  0044c	3b f4		 cmp	 esi, esp
  0044e	e8 00 00 00 00	 call	 __RTC_CheckEsp
  00453	89 45 b0	 mov	 DWORD PTR tv246[ebp], eax
  00456	8b 55 f0	 mov	 edx, DWORD PTR _this$[ebp]
  00459	52		 push	 edx
  0045a	8b 45 d4	 mov	 eax, DWORD PTR _pLayoutMgr$[ebp]
  0045d	8b 10		 mov	 edx, DWORD PTR [eax]
  0045f	8b 4d d4	 mov	 ecx, DWORD PTR _pLayoutMgr$[ebp]
  00462	ff 52 34	 call	 DWORD PTR [edx+52]

; 50   : 
; 51   : 	pLayoutMgr->CreateControlPane( this, "webgamepanel", "normal" );

  00465	51		 push	 ecx
  00466	8b cc		 mov	 ecx, esp
  00468	89 65 c8	 mov	 DWORD PTR $T190329[ebp], esp
  0046b	8b f4		 mov	 esi, esp
  0046d	68 00 00 00 00	 push	 OFFSET FLAT:$SG189404
  00472	ff 15 00 00 00
	00		 call	 DWORD PTR __imp_??0?$CStringT@DV?$StrTraitMFC_DLL@DV?$ChTraitsCRT@D@ATL@@@@@ATL@@QAE@PBD@Z
  00478	3b f4		 cmp	 esi, esp
  0047a	e8 00 00 00 00	 call	 __RTC_CheckEsp
  0047f	89 45 ac	 mov	 DWORD PTR tv257[ebp], eax
  00482	8b 45 ac	 mov	 eax, DWORD PTR tv257[ebp]
  00485	89 45 a8	 mov	 DWORD PTR tv248[ebp], eax
  00488	c7 45 fc 00 00
	00 00		 mov	 DWORD PTR __$EHRec$[ebp+8], 0
  0048f	51		 push	 ecx
  00490	8b cc		 mov	 ecx, esp
  00492	89 65 c4	 mov	 DWORD PTR $T190330[ebp], esp
  00495	8b f4		 mov	 esi, esp
  00497	68 00 00 00 00	 push	 OFFSET FLAT:$SG189405
  0049c	ff 15 00 00 00
	00		 call	 DWORD PTR __imp_??0?$CStringT@DV?$StrTraitMFC_DLL@DV?$ChTraitsCRT@D@ATL@@@@@ATL@@QAE@PBD@Z
  004a2	3b f4		 cmp	 esi, esp
  004a4	e8 00 00 00 00	 call	 __RTC_CheckEsp
  004a9	89 45 a4	 mov	 DWORD PTR tv251[ebp], eax
  004ac	8b 4d f0	 mov	 ecx, DWORD PTR _this$[ebp]
  004af	51		 push	 ecx
  004b0	8b 55 d4	 mov	 edx, DWORD PTR _pLayoutMgr$[ebp]
  004b3	8b 02		 mov	 eax, DWORD PTR [edx]
  004b5	c7 45 fc ff ff
	ff ff		 mov	 DWORD PTR __$EHRec$[ebp+8], -1
  004bc	8b 4d d4	 mov	 ecx, DWORD PTR _pLayoutMgr$[ebp]
  004bf	ff 50 38	 call	 DWORD PTR [eax+56]

; 52   : 	pLayoutMgr->CreateBmpPane( this,"webgamepanel","normal" );

  004c2	51		 push	 ecx
  004c3	8b cc		 mov	 ecx, esp
  004c5	89 65 c0	 mov	 DWORD PTR $T190331[ebp], esp
  004c8	8b f4		 mov	 esi, esp
  004ca	68 00 00 00 00	 push	 OFFSET FLAT:$SG189408
  004cf	ff 15 00 00 00
	00		 call	 DWORD PTR __imp_??0?$CStringT@DV?$StrTraitMFC_DLL@DV?$ChTraitsCRT@D@ATL@@@@@ATL@@QAE@PBD@Z
  004d5	3b f4		 cmp	 esi, esp
  004d7	e8 00 00 00 00	 call	 __RTC_CheckEsp
  004dc	89 45 a0	 mov	 DWORD PTR tv260[ebp], eax
  004df	8b 4d a0	 mov	 ecx, DWORD PTR tv260[ebp]
  004e2	89 4d 9c	 mov	 DWORD PTR tv253[ebp], ecx
  004e5	c7 45 fc 01 00
	00 00		 mov	 DWORD PTR __$EHRec$[ebp+8], 1
  004ec	51		 push	 ecx
  004ed	8b cc		 mov	 ecx, esp
  004ef	89 65 bc	 mov	 DWORD PTR $T190332[ebp], esp
  004f2	8b f4		 mov	 esi, esp
  004f4	68 00 00 00 00	 push	 OFFSET FLAT:$SG189409
  004f9	ff 15 00 00 00
	00		 call	 DWORD PTR __imp_??0?$CStringT@DV?$StrTraitMFC_DLL@DV?$ChTraitsCRT@D@ATL@@@@@ATL@@QAE@PBD@Z
  004ff	3b f4		 cmp	 esi, esp
  00501	e8 00 00 00 00	 call	 __RTC_CheckEsp
  00506	89 45 98	 mov	 DWORD PTR tv256[ebp], eax
  00509	8b 55 f0	 mov	 edx, DWORD PTR _this$[ebp]
  0050c	52		 push	 edx
  0050d	8b 45 d4	 mov	 eax, DWORD PTR _pLayoutMgr$[ebp]
  00510	8b 10		 mov	 edx, DWORD PTR [eax]
  00512	c7 45 fc ff ff
	ff ff		 mov	 DWORD PTR __$EHRec$[ebp+8], -1
  00519	8b 4d d4	 mov	 ecx, DWORD PTR _pLayoutMgr$[ebp]
  0051c	ff 52 58	 call	 DWORD PTR [edx+88]

; 53   : 
; 54   : 	return 0;

  0051f	33 c0		 xor	 eax, eax
$L189394:

; 55   : }

  00521	52		 push	 edx
  00522	8b cd		 mov	 ecx, ebp
  00524	50		 push	 eax
  00525	8d 15 00 00 00
	00		 lea	 edx, DWORD PTR $L190344
  0052b	e8 00 00 00 00	 call	 @_RTC_CheckStackVars@8
  00530	58		 pop	 eax
  00531	5a		 pop	 edx
  00532	8b 4d f4	 mov	 ecx, DWORD PTR __$EHRec$[ebp]
  00535	64 89 0d 00 00
	00 00		 mov	 DWORD PTR fs:__except_list, ecx
  0053c	5f		 pop	 edi
  0053d	5e		 pop	 esi
  0053e	83 c4 68	 add	 esp, 104		; 00000068H
  00541	3b ec		 cmp	 ebp, esp
  00543	e8 00 00 00 00	 call	 __RTC_CheckEsp
  00548	8b e5		 mov	 esp, ebp
  0054a	5d		 pop	 ebp
  0054b	c2 04 00	 ret	 4
$L190344:
  0054e	01 00 00 00	 DD	 1
  00552	00 00 00 00	 DD	 $L190343
$L190343:
  00556	dc ff ff ff	 DD	 -36			; ffffffdcH
  0055a	10 00 00 00	 DD	 16			; 00000010H
  0055e	00 00 00 00	 DD	 $L190341
$L190341:
  00562	72		 DB	 114			; 00000072H
  00563	65		 DB	 101			; 00000065H
  00564	63		 DB	 99			; 00000063H
  00565	74		 DB	 116			; 00000074H
  00566	4e		 DB	 78			; 0000004eH
  00567	75		 DB	 117			; 00000075H
  00568	6c		 DB	 108			; 0000006cH
  00569	6c		 DB	 108			; 0000006cH
  0056a	00		 DB	 0
_TEXT	ENDS
text$x	SEGMENT
$L190335:
  00080	8b f4		 mov	 esi, esp
  00082	8b 4d c8	 mov	 ecx, DWORD PTR $T190329[ebp]
  00085	ff 15 00 00 00
	00		 call	 DWORD PTR __imp_??1?$CStringT@DV?$StrTraitMFC_DLL@DV?$ChTraitsCRT@D@ATL@@@@@ATL@@QAE@XZ
  0008b	3b f4		 cmp	 esi, esp
  0008d	e9 00 00 00 00	 jmp	 __RTC_CheckEsp
$L190337:
  00092	8b f4		 mov	 esi, esp
  00094	8b 4d c0	 mov	 ecx, DWORD PTR $T190331[ebp]
  00097	ff 15 00 00 00
	00		 call	 DWORD PTR __imp_??1?$CStringT@DV?$StrTraitMFC_DLL@DV?$ChTraitsCRT@D@ATL@@@@@ATL@@QAE@XZ
  0009d	3b f4		 cmp	 esi, esp
  0009f	e9 00 00 00 00	 jmp	 __RTC_CheckEsp
__ehhandler$?OnCreate@WebGamePanelWnd@@IAEHPAUtagCREATESTRUCTA@@@Z:
  000a4	b8 00 00 00 00	 mov	 eax, OFFSET FLAT:$T190340
  000a9	e9 00 00 00 00	 jmp	 ___CxxFrameHandler
text$x	ENDS
?OnCreate@WebGamePanelWnd@@IAEHPAUtagCREATESTRUCTA@@@Z ENDP ; WebGamePanelWnd::OnCreate
PUBLIC	?LoadSkin@WebGamePanelWnd@@QAEXXZ		; WebGamePanelWnd::LoadSkin
; Function compile flags: /Odt /RTCsu
_TEXT	SEGMENT
_this$ = -4						; size = 4
?LoadSkin@WebGamePanelWnd@@QAEXXZ PROC NEAR		; WebGamePanelWnd::LoadSkin
; _this$ = ecx

; 58   : {

  00570	55		 push	 ebp
  00571	8b ec		 mov	 ebp, esp
  00573	51		 push	 ecx
  00574	c7 45 fc cc cc
	cc cc		 mov	 DWORD PTR [ebp-4], -858993460 ; ccccccccH
  0057b	89 4d fc	 mov	 DWORD PTR _this$[ebp], ecx

; 59   : }

  0057e	8b e5		 mov	 esp, ebp
  00580	5d		 pop	 ebp
  00581	c3		 ret	 0
?LoadSkin@WebGamePanelWnd@@QAEXXZ ENDP			; WebGamePanelWnd::LoadSkin
_TEXT	ENDS
PUBLIC	??1TAB_ITEM@@QAE@XZ				; TAB_ITEM::~TAB_ITEM
PUBLIC	??0WEB_GAME@@QAE@ABU0@@Z			; WEB_GAME::WEB_GAME
PUBLIC	?SetTabItem@WebGamePanelWnd@@QAEXUTAB_ITEM@@@Z	; WebGamePanelWnd::SetTabItem
EXTRN	?Navigate@MyWebBrowserWnd@@QAEXV?$basic_string@DU?$char_traits@D@std@@V?$allocator@D@2@@std@@@Z:NEAR ; MyWebBrowserWnd::Navigate
EXTRN	__imp_??0?$basic_string@DU?$char_traits@D@std@@V?$allocator@D@2@@std@@QAE@ABV01@@Z:NEAR
EXTRN	__imp_??0?$basic_string@DU?$char_traits@D@std@@V?$allocator@D@2@@std@@QAE@PBD@Z:NEAR
EXTRN	?SetGameEntry@WebGamePlayingWnd@@QAEXUWEB_GAME@@@Z:NEAR ; WebGamePlayingWnd::SetGameEntry
EXTRN	__imp_??4?$basic_string@DU?$char_traits@D@std@@V?$allocator@D@2@@std@@QAEAAV01@ABV01@@Z:NEAR
EXTRN	?GetInstance@CWebManager@@SAPAV1@XZ:NEAR	; CWebManager::GetInstance
EXTRN	?GetValue@CWebManager@@QAE?AV?$basic_string@DU?$char_traits@D@std@@V?$allocator@D@2@@std@@AAV23@V23@@Z:NEAR ; CWebManager::GetValue
EXTRN	___security_cookie:DWORD
EXTRN	@__security_check_cookie@4:NEAR
xdata$x	SEGMENT
$T190373 DD	0ffffffffH
	DD	FLAT:$L190356
	DD	00H
	DD	FLAT:$L190357
	DD	00H
	DD	FLAT:$L190358
	DD	00H
	DD	FLAT:$L190359
	DD	00H
	DD	FLAT:$L190360
	DD	00H
	DD	FLAT:$L190361
$T190365 DD	019930520H
	DD	06H
	DD	FLAT:$T190373
	DD	2 DUP(00H)
	DD	2 DUP(00H)
; Function compile flags: /Odt /RTCsu
xdata$x	ENDS
_TEXT	SEGMENT
tv204 = -168						; size = 4
tv202 = -164						; size = 4
tv199 = -160						; size = 4
tv197 = -156						; size = 4
tv196 = -152						; size = 4
tv211 = -148						; size = 4
tv194 = -144						; size = 4
tv192 = -140						; size = 4
tv191 = -136						; size = 4
tv206 = -132						; size = 4
$T190355 = -128						; size = 4
$T190354 = -124						; size = 4
$T190353 = -120						; size = 28
$T190352 = -92						; size = 4
$T190351 = -88						; size = 28
$T190350 = -60						; size = 4
_strRightUrl$ = -52					; size = 28
_this$ = -20						; size = 4
__$ArrayPad$ = -16					; size = 4
__$EHRec$ = -12						; size = 12
__$ReturnAddr$ = 4					; size = 4
_ti$ = 8						; size = 60
?SetTabItem@WebGamePanelWnd@@QAEXUTAB_ITEM@@@Z PROC NEAR ; WebGamePanelWnd::SetTabItem
; _this$ = ecx

; 62   : {

  00590	55		 push	 ebp
  00591	8b ec		 mov	 ebp, esp
  00593	6a ff		 push	 -1
  00595	68 00 00 00 00	 push	 __ehhandler$?SetTabItem@WebGamePanelWnd@@QAEXUTAB_ITEM@@@Z
  0059a	64 a1 00 00 00
	00		 mov	 eax, DWORD PTR fs:__except_list
  005a0	50		 push	 eax
  005a1	64 89 25 00 00
	00 00		 mov	 DWORD PTR fs:__except_list, esp
  005a8	81 ec 9c 00 00
	00		 sub	 esp, 156		; 0000009cH
  005ae	56		 push	 esi
  005af	57		 push	 edi
  005b0	51		 push	 ecx
  005b1	8d bd 58 ff ff
	ff		 lea	 edi, DWORD PTR [ebp-168]
  005b7	b9 27 00 00 00	 mov	 ecx, 39			; 00000027H
  005bc	b8 cc cc cc cc	 mov	 eax, -858993460		; ccccccccH
  005c1	f3 ab		 rep stosd
  005c3	59		 pop	 ecx
  005c4	a1 00 00 00 00	 mov	 eax, DWORD PTR ___security_cookie
  005c9	89 45 f0	 mov	 DWORD PTR __$ArrayPad$[ebp], eax
  005cc	89 4d ec	 mov	 DWORD PTR _this$[ebp], ecx
  005cf	c7 45 fc 00 00
	00 00		 mov	 DWORD PTR __$EHRec$[ebp+8], 0

; 63   : 	m_webGame.strID = CWebManager::GetInstance()->GetValue( ti.strParam, "id" );

  005d6	83 ec 1c	 sub	 esp, 28			; 0000001cH
  005d9	8b cc		 mov	 ecx, esp
  005db	89 65 c4	 mov	 DWORD PTR $T190350[ebp], esp
  005de	8b f4		 mov	 esi, esp
  005e0	68 00 00 00 00	 push	 OFFSET FLAT:$SG189419
  005e5	ff 15 00 00 00
	00		 call	 DWORD PTR __imp_??0?$basic_string@DU?$char_traits@D@std@@V?$allocator@D@2@@std@@QAE@PBD@Z
  005eb	3b f4		 cmp	 esi, esp
  005ed	e8 00 00 00 00	 call	 __RTC_CheckEsp
  005f2	89 85 7c ff ff
	ff		 mov	 DWORD PTR tv206[ebp], eax
  005f8	8b 85 7c ff ff
	ff		 mov	 eax, DWORD PTR tv206[ebp]
  005fe	89 85 78 ff ff
	ff		 mov	 DWORD PTR tv191[ebp], eax
  00604	c6 45 fc 01	 mov	 BYTE PTR __$EHRec$[ebp+8], 1
  00608	8d 4d 28	 lea	 ecx, DWORD PTR _ti$[ebp+32]
  0060b	51		 push	 ecx
  0060c	8d 55 a8	 lea	 edx, DWORD PTR $T190351[ebp]
  0060f	52		 push	 edx
  00610	e8 00 00 00 00	 call	 ?GetInstance@CWebManager@@SAPAV1@XZ ; CWebManager::GetInstance
  00615	c6 45 fc 00	 mov	 BYTE PTR __$EHRec$[ebp+8], 0
  00619	8b c8		 mov	 ecx, eax
  0061b	e8 00 00 00 00	 call	 ?GetValue@CWebManager@@QAE?AV?$basic_string@DU?$char_traits@D@std@@V?$allocator@D@2@@std@@AAV23@V23@@Z ; CWebManager::GetValue
  00620	89 85 74 ff ff
	ff		 mov	 DWORD PTR tv192[ebp], eax
  00626	8b 85 74 ff ff
	ff		 mov	 eax, DWORD PTR tv192[ebp]
  0062c	89 85 70 ff ff
	ff		 mov	 DWORD PTR tv194[ebp], eax
  00632	c6 45 fc 02	 mov	 BYTE PTR __$EHRec$[ebp+8], 2
  00636	8b f4		 mov	 esi, esp
  00638	8b 8d 70 ff ff
	ff		 mov	 ecx, DWORD PTR tv194[ebp]
  0063e	51		 push	 ecx
  0063f	8b 4d ec	 mov	 ecx, DWORD PTR _this$[ebp]
  00642	83 c1 60	 add	 ecx, 96			; 00000060H
  00645	ff 15 00 00 00
	00		 call	 DWORD PTR __imp_??4?$basic_string@DU?$char_traits@D@std@@V?$allocator@D@2@@std@@QAEAAV01@ABV01@@Z
  0064b	3b f4		 cmp	 esi, esp
  0064d	e8 00 00 00 00	 call	 __RTC_CheckEsp
  00652	c6 45 fc 00	 mov	 BYTE PTR __$EHRec$[ebp+8], 0
  00656	8b f4		 mov	 esi, esp
  00658	8d 4d a8	 lea	 ecx, DWORD PTR $T190351[ebp]
  0065b	ff 15 00 00 00
	00		 call	 DWORD PTR __imp_??1?$basic_string@DU?$char_traits@D@std@@V?$allocator@D@2@@std@@QAE@XZ
  00661	3b f4		 cmp	 esi, esp
  00663	e8 00 00 00 00	 call	 __RTC_CheckEsp

; 64   : 	m_webGame.strName = ti.strName;

  00668	8b f4		 mov	 esi, esp
  0066a	8d 55 08	 lea	 edx, DWORD PTR _ti$[ebp]
  0066d	52		 push	 edx
  0066e	8b 4d ec	 mov	 ecx, DWORD PTR _this$[ebp]
  00671	83 c1 7c	 add	 ecx, 124		; 0000007cH
  00674	ff 15 00 00 00
	00		 call	 DWORD PTR __imp_??4?$basic_string@DU?$char_traits@D@std@@V?$allocator@D@2@@std@@QAEAAV01@ABV01@@Z
  0067a	3b f4		 cmp	 esi, esp
  0067c	e8 00 00 00 00	 call	 __RTC_CheckEsp

; 65   : 	m_webGame.strGameUrl = CWebManager::GetInstance()->GetValue( ti.strParam, "url" );

  00681	83 ec 1c	 sub	 esp, 28			; 0000001cH
  00684	8b cc		 mov	 ecx, esp
  00686	89 65 a4	 mov	 DWORD PTR $T190352[ebp], esp
  00689	8b f4		 mov	 esi, esp
  0068b	68 00 00 00 00	 push	 OFFSET FLAT:$SG189422
  00690	ff 15 00 00 00
	00		 call	 DWORD PTR __imp_??0?$basic_string@DU?$char_traits@D@std@@V?$allocator@D@2@@std@@QAE@PBD@Z
  00696	3b f4		 cmp	 esi, esp
  00698	e8 00 00 00 00	 call	 __RTC_CheckEsp
  0069d	89 85 6c ff ff
	ff		 mov	 DWORD PTR tv211[ebp], eax
  006a3	8b 85 6c ff ff
	ff		 mov	 eax, DWORD PTR tv211[ebp]
  006a9	89 85 68 ff ff
	ff		 mov	 DWORD PTR tv196[ebp], eax
  006af	c6 45 fc 03	 mov	 BYTE PTR __$EHRec$[ebp+8], 3
  006b3	8d 4d 28	 lea	 ecx, DWORD PTR _ti$[ebp+32]
  006b6	51		 push	 ecx
  006b7	8d 55 88	 lea	 edx, DWORD PTR $T190353[ebp]
  006ba	52		 push	 edx
  006bb	e8 00 00 00 00	 call	 ?GetInstance@CWebManager@@SAPAV1@XZ ; CWebManager::GetInstance
  006c0	c6 45 fc 00	 mov	 BYTE PTR __$EHRec$[ebp+8], 0
  006c4	8b c8		 mov	 ecx, eax
  006c6	e8 00 00 00 00	 call	 ?GetValue@CWebManager@@QAE?AV?$basic_string@DU?$char_traits@D@std@@V?$allocator@D@2@@std@@AAV23@V23@@Z ; CWebManager::GetValue
  006cb	89 85 64 ff ff
	ff		 mov	 DWORD PTR tv197[ebp], eax
  006d1	8b 85 64 ff ff
	ff		 mov	 eax, DWORD PTR tv197[ebp]
  006d7	89 85 60 ff ff
	ff		 mov	 DWORD PTR tv199[ebp], eax
  006dd	c6 45 fc 04	 mov	 BYTE PTR __$EHRec$[ebp+8], 4
  006e1	8b f4		 mov	 esi, esp
  006e3	8b 8d 60 ff ff
	ff		 mov	 ecx, DWORD PTR tv199[ebp]
  006e9	51		 push	 ecx
  006ea	8b 4d ec	 mov	 ecx, DWORD PTR _this$[ebp]
  006ed	81 c1 98 00 00
	00		 add	 ecx, 152		; 00000098H
  006f3	ff 15 00 00 00
	00		 call	 DWORD PTR __imp_??4?$basic_string@DU?$char_traits@D@std@@V?$allocator@D@2@@std@@QAEAAV01@ABV01@@Z
  006f9	3b f4		 cmp	 esi, esp
  006fb	e8 00 00 00 00	 call	 __RTC_CheckEsp
  00700	c6 45 fc 00	 mov	 BYTE PTR __$EHRec$[ebp+8], 0
  00704	8b f4		 mov	 esi, esp
  00706	8d 4d 88	 lea	 ecx, DWORD PTR $T190353[ebp]
  00709	ff 15 00 00 00
	00		 call	 DWORD PTR __imp_??1?$basic_string@DU?$char_traits@D@std@@V?$allocator@D@2@@std@@QAE@XZ
  0070f	3b f4		 cmp	 esi, esp
  00711	e8 00 00 00 00	 call	 __RTC_CheckEsp

; 66   : 	
; 67   : 	string strRightUrl;

  00716	8b f4		 mov	 esi, esp
  00718	8d 4d cc	 lea	 ecx, DWORD PTR _strRightUrl$[ebp]
  0071b	ff 15 00 00 00
	00		 call	 DWORD PTR __imp_??0?$basic_string@DU?$char_traits@D@std@@V?$allocator@D@2@@std@@QAE@XZ
  00721	3b f4		 cmp	 esi, esp
  00723	e8 00 00 00 00	 call	 __RTC_CheckEsp
  00728	c6 45 fc 05	 mov	 BYTE PTR __$EHRec$[ebp+8], 5

; 68   : 	m_pWndGameRight->Navigate( strRightUrl );

  0072c	83 ec 1c	 sub	 esp, 28			; 0000001cH
  0072f	8b cc		 mov	 ecx, esp
  00731	89 65 84	 mov	 DWORD PTR $T190354[ebp], esp
  00734	8b f4		 mov	 esi, esp
  00736	8d 55 cc	 lea	 edx, DWORD PTR _strRightUrl$[ebp]
  00739	52		 push	 edx
  0073a	ff 15 00 00 00
	00		 call	 DWORD PTR __imp_??0?$basic_string@DU?$char_traits@D@std@@V?$allocator@D@2@@std@@QAE@ABV01@@Z
  00740	3b f4		 cmp	 esi, esp
  00742	e8 00 00 00 00	 call	 __RTC_CheckEsp
  00747	89 85 5c ff ff
	ff		 mov	 DWORD PTR tv202[ebp], eax
  0074d	8b 45 ec	 mov	 eax, DWORD PTR _this$[ebp]
  00750	8b 48 58	 mov	 ecx, DWORD PTR [eax+88]
  00753	e8 00 00 00 00	 call	 ?Navigate@MyWebBrowserWnd@@QAEXV?$basic_string@DU?$char_traits@D@std@@V?$allocator@D@2@@std@@@Z ; MyWebBrowserWnd::Navigate

; 69   : 	m_pWndGamePlaying->SetGameEntry( m_webGame );

  00758	8b 4d ec	 mov	 ecx, DWORD PTR _this$[ebp]
  0075b	83 c1 60	 add	 ecx, 96			; 00000060H
  0075e	83 ec 54	 sub	 esp, 84			; 00000054H
  00761	8b d4		 mov	 edx, esp
  00763	89 65 80	 mov	 DWORD PTR $T190355[ebp], esp
  00766	51		 push	 ecx
  00767	8b ca		 mov	 ecx, edx
  00769	e8 00 00 00 00	 call	 ??0WEB_GAME@@QAE@ABU0@@Z
  0076e	89 85 58 ff ff
	ff		 mov	 DWORD PTR tv204[ebp], eax
  00774	8b 45 ec	 mov	 eax, DWORD PTR _this$[ebp]
  00777	8b 48 5c	 mov	 ecx, DWORD PTR [eax+92]
  0077a	e8 00 00 00 00	 call	 ?SetGameEntry@WebGamePlayingWnd@@QAEXUWEB_GAME@@@Z ; WebGamePlayingWnd::SetGameEntry

; 70   : }

  0077f	c6 45 fc 00	 mov	 BYTE PTR __$EHRec$[ebp+8], 0
  00783	8b f4		 mov	 esi, esp
  00785	8d 4d cc	 lea	 ecx, DWORD PTR _strRightUrl$[ebp]
  00788	ff 15 00 00 00
	00		 call	 DWORD PTR __imp_??1?$basic_string@DU?$char_traits@D@std@@V?$allocator@D@2@@std@@QAE@XZ
  0078e	3b f4		 cmp	 esi, esp
  00790	e8 00 00 00 00	 call	 __RTC_CheckEsp
  00795	c7 45 fc ff ff
	ff ff		 mov	 DWORD PTR __$EHRec$[ebp+8], -1
  0079c	8d 4d 08	 lea	 ecx, DWORD PTR _ti$[ebp]
  0079f	e8 00 00 00 00	 call	 ??1TAB_ITEM@@QAE@XZ
  007a4	52		 push	 edx
  007a5	8b cd		 mov	 ecx, ebp
  007a7	50		 push	 eax
  007a8	8d 15 00 00 00
	00		 lea	 edx, DWORD PTR $L190371
  007ae	e8 00 00 00 00	 call	 @_RTC_CheckStackVars@8
  007b3	58		 pop	 eax
  007b4	5a		 pop	 edx
  007b5	8b 4d f4	 mov	 ecx, DWORD PTR __$EHRec$[ebp]
  007b8	64 89 0d 00 00
	00 00		 mov	 DWORD PTR fs:__except_list, ecx
  007bf	8b 4d f0	 mov	 ecx, DWORD PTR __$ArrayPad$[ebp]
  007c2	e8 00 00 00 00	 call	 @__security_check_cookie@4
  007c7	5f		 pop	 edi
  007c8	5e		 pop	 esi
  007c9	81 c4 a8 00 00
	00		 add	 esp, 168		; 000000a8H
  007cf	3b ec		 cmp	 ebp, esp
  007d1	e8 00 00 00 00	 call	 __RTC_CheckEsp
  007d6	8b e5		 mov	 esp, ebp
  007d8	5d		 pop	 ebp
  007d9	c2 3c 00	 ret	 60			; 0000003cH
$L190371:
  007dc	01 00 00 00	 DD	 1
  007e0	00 00 00 00	 DD	 $L190370
$L190370:
  007e4	cc ff ff ff	 DD	 -52			; ffffffccH
  007e8	1c 00 00 00	 DD	 28			; 0000001cH
  007ec	00 00 00 00	 DD	 $L190366
$L190366:
  007f0	73		 DB	 115			; 00000073H
  007f1	74		 DB	 116			; 00000074H
  007f2	72		 DB	 114			; 00000072H
  007f3	52		 DB	 82			; 00000052H
  007f4	69		 DB	 105			; 00000069H
  007f5	67		 DB	 103			; 00000067H
  007f6	68		 DB	 104			; 00000068H
  007f7	74		 DB	 116			; 00000074H
  007f8	55		 DB	 85			; 00000055H
  007f9	72		 DB	 114			; 00000072H
  007fa	6c		 DB	 108			; 0000006cH
  007fb	00		 DB	 0
_TEXT	ENDS
text$x	SEGMENT
$L190356:
  000ae	8d 4d 08	 lea	 ecx, DWORD PTR _ti$[ebp]
  000b1	e9 00 00 00 00	 jmp	 ??1TAB_ITEM@@QAE@XZ
$L190357:
  000b6	8b f4		 mov	 esi, esp
  000b8	8b 4d c4	 mov	 ecx, DWORD PTR $T190350[ebp]
  000bb	ff 15 00 00 00
	00		 call	 DWORD PTR __imp_??1?$basic_string@DU?$char_traits@D@std@@V?$allocator@D@2@@std@@QAE@XZ
  000c1	3b f4		 cmp	 esi, esp
  000c3	e9 00 00 00 00	 jmp	 __RTC_CheckEsp
$L190358:
  000c8	8b f4		 mov	 esi, esp
  000ca	8d 4d a8	 lea	 ecx, DWORD PTR $T190351[ebp]
  000cd	ff 15 00 00 00
	00		 call	 DWORD PTR __imp_??1?$basic_string@DU?$char_traits@D@std@@V?$allocator@D@2@@std@@QAE@XZ
  000d3	3b f4		 cmp	 esi, esp
  000d5	e9 00 00 00 00	 jmp	 __RTC_CheckEsp
$L190359:
  000da	8b f4		 mov	 esi, esp
  000dc	8b 4d a4	 mov	 ecx, DWORD PTR $T190352[ebp]
  000df	ff 15 00 00 00
	00		 call	 DWORD PTR __imp_??1?$basic_string@DU?$char_traits@D@std@@V?$allocator@D@2@@std@@QAE@XZ
  000e5	3b f4		 cmp	 esi, esp
  000e7	e9 00 00 00 00	 jmp	 __RTC_CheckEsp
$L190360:
  000ec	8b f4		 mov	 esi, esp
  000ee	8d 4d 88	 lea	 ecx, DWORD PTR $T190353[ebp]
  000f1	ff 15 00 00 00
	00		 call	 DWORD PTR __imp_??1?$basic_string@DU?$char_traits@D@std@@V?$allocator@D@2@@std@@QAE@XZ
  000f7	3b f4		 cmp	 esi, esp
  000f9	e9 00 00 00 00	 jmp	 __RTC_CheckEsp
$L190361:
  000fe	8b f4		 mov	 esi, esp
  00100	8d 4d cc	 lea	 ecx, DWORD PTR _strRightUrl$[ebp]
  00103	ff 15 00 00 00
	00		 call	 DWORD PTR __imp_??1?$basic_string@DU?$char_traits@D@std@@V?$allocator@D@2@@std@@QAE@XZ
  00109	3b f4		 cmp	 esi, esp
  0010b	e9 00 00 00 00	 jmp	 __RTC_CheckEsp
__ehhandler$?SetTabItem@WebGamePanelWnd@@QAEXUTAB_ITEM@@@Z:
  00110	b8 00 00 00 00	 mov	 eax, OFFSET FLAT:$T190365
  00115	e9 00 00 00 00	 jmp	 ___CxxFrameHandler
text$x	ENDS
?SetTabItem@WebGamePanelWnd@@QAEXUTAB_ITEM@@@Z ENDP	; WebGamePanelWnd::SetTabItem
PUBLIC	?InterlockedExchangePointer@@YGPAXPAPAXPAX@Z	; InterlockedExchangePointer
PUBLIC	?_AtlGetThreadACPFake@ATL@@YGIXZ		; ATL::_AtlGetThreadACPFake
PUBLIC	?_AtlGetThreadACPReal@ATL@@YGIXZ		; ATL::_AtlGetThreadACPReal
EXTRN	__imp__GetVersionExA@4:NEAR
; Function compile flags: /Odt /RTCsu
; File d:\program files (x86)\microsoft visual studio .net 2003\vc7\atlmfc\include\atlconv.h
;	COMDAT ?_AtlGetThreadACPThunk@ATL@@YGIXZ
_TEXT	SEGMENT
_pfnGetThreadACP$ = -164				; size = 4
_ver$ = -156						; size = 148
__$ArrayPad$ = -4					; size = 4
__$ReturnAddr$ = 4					; size = 4
?_AtlGetThreadACPThunk@ATL@@YGIXZ PROC NEAR		; ATL::_AtlGetThreadACPThunk, COMDAT

; 134  : {

  00000	55		 push	 ebp
  00001	8b ec		 mov	 ebp, esp
  00003	81 ec a4 00 00
	00		 sub	 esp, 164		; 000000a4H
  00009	56		 push	 esi
  0000a	57		 push	 edi
  0000b	8d bd 5c ff ff
	ff		 lea	 edi, DWORD PTR [ebp-164]
  00011	b9 29 00 00 00	 mov	 ecx, 41			; 00000029H
  00016	b8 cc cc cc cc	 mov	 eax, -858993460		; ccccccccH
  0001b	f3 ab		 rep stosd
  0001d	a1 00 00 00 00	 mov	 eax, DWORD PTR ___security_cookie
  00022	89 45 fc	 mov	 DWORD PTR __$ArrayPad$[ebp], eax

; 135  : 	OSVERSIONINFO ver;
; 136  : 	ATLGETTHREADACP pfnGetThreadACP;
; 137  : 
; 138  : 	ver.dwOSVersionInfoSize = sizeof( ver );

  00025	c7 85 64 ff ff
	ff 94 00 00 00	 mov	 DWORD PTR _ver$[ebp], 148 ; 00000094H

; 139  : 	::GetVersionEx( &ver );

  0002f	8b f4		 mov	 esi, esp
  00031	8d 85 64 ff ff
	ff		 lea	 eax, DWORD PTR _ver$[ebp]
  00037	50		 push	 eax
  00038	ff 15 00 00 00
	00		 call	 DWORD PTR __imp__GetVersionExA@4
  0003e	3b f4		 cmp	 esi, esp
  00040	e8 00 00 00 00	 call	 __RTC_CheckEsp

; 140  : 	if( (ver.dwPlatformId == VER_PLATFORM_WIN32_NT) && (ver.dwMajorVersion >= 5) )

  00045	83 bd 74 ff ff
	ff 02		 cmp	 DWORD PTR _ver$[ebp+16], 2
  0004c	75 15		 jne	 SHORT $L24163
  0004e	83 bd 68 ff ff
	ff 05		 cmp	 DWORD PTR _ver$[ebp+4], 5
  00055	72 0c		 jb	 SHORT $L24163

; 141  : 	{
; 142  : 		// On Win2K, CP_THREAD_ACP is supported
; 143  : 		pfnGetThreadACP = _AtlGetThreadACPReal;

  00057	c7 85 5c ff ff
	ff 00 00 00 00	 mov	 DWORD PTR _pfnGetThreadACP$[ebp], OFFSET FLAT:?_AtlGetThreadACPReal@ATL@@YGIXZ ; ATL::_AtlGetThreadACPReal

; 144  : 	}
; 145  : 	else

  00061	eb 0a		 jmp	 SHORT $L24164
$L24163:

; 146  : 	{
; 147  : 		pfnGetThreadACP = _AtlGetThreadACPFake;

  00063	c7 85 5c ff ff
	ff 00 00 00 00	 mov	 DWORD PTR _pfnGetThreadACP$[ebp], OFFSET FLAT:?_AtlGetThreadACPFake@ATL@@YGIXZ ; ATL::_AtlGetThreadACPFake
$L24164:

; 148  : 	}
; 149  : 	InterlockedExchangePointer( reinterpret_cast< void** >(&g_pfnGetThreadACP), pfnGetThreadACP );

  0006d	8b 8d 5c ff ff
	ff		 mov	 ecx, DWORD PTR _pfnGetThreadACP$[ebp]
  00073	51		 push	 ecx
  00074	68 00 00 00 00	 push	 OFFSET FLAT:?g_pfnGetThreadACP@ATL@@3P6GIXZA ; ATL::g_pfnGetThreadACP
  00079	e8 00 00 00 00	 call	 ?InterlockedExchangePointer@@YGPAXPAPAXPAX@Z ; InterlockedExchangePointer

; 150  : 
; 151  : 	return( g_pfnGetThreadACP() );

  0007e	8b f4		 mov	 esi, esp
  00080	ff 15 00 00 00
	00		 call	 DWORD PTR ?g_pfnGetThreadACP@ATL@@3P6GIXZA ; ATL::g_pfnGetThreadACP
  00086	3b f4		 cmp	 esi, esp
  00088	e8 00 00 00 00	 call	 __RTC_CheckEsp

; 152  : }

  0008d	52		 push	 edx
  0008e	8b cd		 mov	 ecx, ebp
  00090	50		 push	 eax
  00091	8d 15 00 00 00
	00		 lea	 edx, DWORD PTR $L190379
  00097	e8 00 00 00 00	 call	 @_RTC_CheckStackVars@8
  0009c	58		 pop	 eax
  0009d	5a		 pop	 edx
  0009e	8b 4d fc	 mov	 ecx, DWORD PTR __$ArrayPad$[ebp]
  000a1	e8 00 00 00 00	 call	 @__security_check_cookie@4
  000a6	5f		 pop	 edi
  000a7	5e		 pop	 esi
  000a8	81 c4 a4 00 00
	00		 add	 esp, 164		; 000000a4H
  000ae	3b ec		 cmp	 ebp, esp
  000b0	e8 00 00 00 00	 call	 __RTC_CheckEsp
  000b5	8b e5		 mov	 esp, ebp
  000b7	5d		 pop	 ebp
  000b8	c3		 ret	 0
$L190379:
  000b9	01 00 00 00	 DD	 1
  000bd	00 00 00 00	 DD	 $L190378
$L190378:
  000c1	64 ff ff ff	 DD	 -156			; ffffff64H
  000c5	94 00 00 00	 DD	 148			; 00000094H
  000c9	00 00 00 00	 DD	 $L190376
$L190376:
  000cd	76		 DB	 118			; 00000076H
  000ce	65		 DB	 101			; 00000065H
  000cf	72		 DB	 114			; 00000072H
  000d0	00		 DB	 0
?_AtlGetThreadACPThunk@ATL@@YGIXZ ENDP			; ATL::_AtlGetThreadACPThunk
_TEXT	ENDS
EXTRN	__imp__InterlockedExchange@8:NEAR
; Function compile flags: /Odt /RTCsu
;	COMDAT ?InterlockedExchangePointer@@YGPAXPAPAXPAX@Z
_TEXT	SEGMENT
_pp$ = 8						; size = 4
_pNew$ = 12						; size = 4
?InterlockedExchangePointer@@YGPAXPAPAXPAX@Z PROC NEAR	; InterlockedExchangePointer, COMDAT

; 91   : {

  00000	55		 push	 ebp
  00001	8b ec		 mov	 ebp, esp
  00003	56		 push	 esi

; 92   : 	return( reinterpret_cast<void*>(static_cast<LONG_PTR>(::InterlockedExchange(reinterpret_cast<LONG*>(pp), static_cast<LONG>(reinterpret_cast<LONG_PTR>(pNew))))) );

  00004	8b f4		 mov	 esi, esp
  00006	8b 45 0c	 mov	 eax, DWORD PTR _pNew$[ebp]
  00009	50		 push	 eax
  0000a	8b 4d 08	 mov	 ecx, DWORD PTR _pp$[ebp]
  0000d	51		 push	 ecx
  0000e	ff 15 00 00 00
	00		 call	 DWORD PTR __imp__InterlockedExchange@8
  00014	3b f4		 cmp	 esi, esp
  00016	e8 00 00 00 00	 call	 __RTC_CheckEsp

; 93   : }

  0001b	5e		 pop	 esi
  0001c	3b ec		 cmp	 ebp, esp
  0001e	e8 00 00 00 00	 call	 __RTC_CheckEsp
  00023	5d		 pop	 ebp
  00024	c2 08 00	 ret	 8
?InterlockedExchangePointer@@YGPAXPAPAXPAX@Z ENDP	; InterlockedExchangePointer
_TEXT	ENDS
EXTRN	__imp__GetACP@0:NEAR
EXTRN	__imp__GetLocaleInfoA@16:NEAR
EXTRN	__imp__GetThreadLocale@0:NEAR
; Function compile flags: /Odt /RTCsu
;	COMDAT ?_AtlGetThreadACPFake@ATL@@YGIXZ
_TEXT	SEGMENT
_pch$24151 = -32					; size = 4
_szACP$ = -24						; size = 7
_lcidThread$ = -12					; size = 4
_nACP$ = -8						; size = 4
__$ArrayPad$ = -4					; size = 4
__$ReturnAddr$ = 4					; size = 4
?_AtlGetThreadACPFake@ATL@@YGIXZ PROC NEAR		; ATL::_AtlGetThreadACPFake, COMDAT

; 101  : {

  00000	55		 push	 ebp
  00001	8b ec		 mov	 ebp, esp
  00003	83 ec 20	 sub	 esp, 32			; 00000020H
  00006	56		 push	 esi
  00007	b8 cc cc cc cc	 mov	 eax, -858993460		; ccccccccH
  0000c	89 45 e0	 mov	 DWORD PTR [ebp-32], eax
  0000f	89 45 e4	 mov	 DWORD PTR [ebp-28], eax
  00012	89 45 e8	 mov	 DWORD PTR [ebp-24], eax
  00015	89 45 ec	 mov	 DWORD PTR [ebp-20], eax
  00018	89 45 f0	 mov	 DWORD PTR [ebp-16], eax
  0001b	89 45 f4	 mov	 DWORD PTR [ebp-12], eax
  0001e	89 45 f8	 mov	 DWORD PTR [ebp-8], eax
  00021	89 45 fc	 mov	 DWORD PTR [ebp-4], eax
  00024	a1 00 00 00 00	 mov	 eax, DWORD PTR ___security_cookie
  00029	89 45 fc	 mov	 DWORD PTR __$ArrayPad$[ebp], eax

; 102  : 	UINT nACP = 0;

  0002c	c7 45 f8 00 00
	00 00		 mov	 DWORD PTR _nACP$[ebp], 0

; 103  : 
; 104  : 	LCID lcidThread = ::GetThreadLocale();

  00033	8b f4		 mov	 esi, esp
  00035	ff 15 00 00 00
	00		 call	 DWORD PTR __imp__GetThreadLocale@0
  0003b	3b f4		 cmp	 esi, esp
  0003d	e8 00 00 00 00	 call	 __RTC_CheckEsp
  00042	89 45 f4	 mov	 DWORD PTR _lcidThread$[ebp], eax

; 105  : 
; 106  : 	char szACP[7];
; 107  : 	// GetLocaleInfoA will fail for a Unicode-only LCID, but those are only supported on 
; 108  : 	// Windows 2000.  Since Windows 2000 supports CP_THREAD_ACP, this code path is never
; 109  : 	// executed on Windows 2000.
; 110  : 	if (::GetLocaleInfoA(lcidThread, LOCALE_IDEFAULTANSICODEPAGE, szACP, 7) != 0)

  00045	8b f4		 mov	 esi, esp
  00047	6a 07		 push	 7
  00049	8d 45 e8	 lea	 eax, DWORD PTR _szACP$[ebp]
  0004c	50		 push	 eax
  0004d	68 04 10 00 00	 push	 4100			; 00001004H
  00052	8b 4d f4	 mov	 ecx, DWORD PTR _lcidThread$[ebp]
  00055	51		 push	 ecx
  00056	ff 15 00 00 00
	00		 call	 DWORD PTR __imp__GetLocaleInfoA@16
  0005c	3b f4		 cmp	 esi, esp
  0005e	e8 00 00 00 00	 call	 __RTC_CheckEsp
  00063	85 c0		 test	 eax, eax
  00065	74 34		 je	 SHORT $L24150

; 111  : 	{
; 112  : 		char* pch = szACP;

  00067	8d 55 e8	 lea	 edx, DWORD PTR _szACP$[ebp]
  0006a	89 55 e0	 mov	 DWORD PTR _pch$24151[ebp], edx
$L24153:

; 113  : 		while (*pch != '\0')

  0006d	8b 45 e0	 mov	 eax, DWORD PTR _pch$24151[ebp]
  00070	0f be 08	 movsx	 ecx, BYTE PTR [eax]
  00073	85 c9		 test	 ecx, ecx
  00075	74 24		 je	 SHORT $L24150

; 114  : 		{
; 115  : 			nACP *= 10;

  00077	8b 55 f8	 mov	 edx, DWORD PTR _nACP$[ebp]
  0007a	6b d2 0a	 imul	 edx, 10			; 0000000aH
  0007d	89 55 f8	 mov	 DWORD PTR _nACP$[ebp], edx

; 116  : 			nACP += *pch++ - '0';

  00080	8b 45 e0	 mov	 eax, DWORD PTR _pch$24151[ebp]
  00083	0f be 08	 movsx	 ecx, BYTE PTR [eax]
  00086	8b 55 f8	 mov	 edx, DWORD PTR _nACP$[ebp]
  00089	8d 44 0a d0	 lea	 eax, DWORD PTR [edx+ecx-48]
  0008d	89 45 f8	 mov	 DWORD PTR _nACP$[ebp], eax
  00090	8b 4d e0	 mov	 ecx, DWORD PTR _pch$24151[ebp]
  00093	83 c1 01	 add	 ecx, 1
  00096	89 4d e0	 mov	 DWORD PTR _pch$24151[ebp], ecx

; 117  : 		}

  00099	eb d2		 jmp	 SHORT $L24153
$L24150:

; 118  : 	}
; 119  : 	// Use the Default ANSI Code Page if we were unable to get the thread ACP or if one does not exist.
; 120  : 	if (nACP == 0)

  0009b	83 7d f8 00	 cmp	 DWORD PTR _nACP$[ebp], 0
  0009f	75 12		 jne	 SHORT $L24155

; 121  : 		nACP = ::GetACP();

  000a1	8b f4		 mov	 esi, esp
  000a3	ff 15 00 00 00
	00		 call	 DWORD PTR __imp__GetACP@0
  000a9	3b f4		 cmp	 esi, esp
  000ab	e8 00 00 00 00	 call	 __RTC_CheckEsp
  000b0	89 45 f8	 mov	 DWORD PTR _nACP$[ebp], eax
$L24155:

; 122  : 
; 123  : 	return nACP;

  000b3	8b 45 f8	 mov	 eax, DWORD PTR _nACP$[ebp]

; 124  : }

  000b6	52		 push	 edx
  000b7	8b cd		 mov	 ecx, ebp
  000b9	50		 push	 eax
  000ba	8d 15 00 00 00
	00		 lea	 edx, DWORD PTR $L190386
  000c0	e8 00 00 00 00	 call	 @_RTC_CheckStackVars@8
  000c5	58		 pop	 eax
  000c6	5a		 pop	 edx
  000c7	8b 4d fc	 mov	 ecx, DWORD PTR __$ArrayPad$[ebp]
  000ca	e8 00 00 00 00	 call	 @__security_check_cookie@4
  000cf	5e		 pop	 esi
  000d0	83 c4 20	 add	 esp, 32			; 00000020H
  000d3	3b ec		 cmp	 ebp, esp
  000d5	e8 00 00 00 00	 call	 __RTC_CheckEsp
  000da	8b e5		 mov	 esp, ebp
  000dc	5d		 pop	 ebp
  000dd	c3		 ret	 0
$L190386:
  000de	01 00 00 00	 DD	 1
  000e2	00 00 00 00	 DD	 $L190385
$L190385:
  000e6	e8 ff ff ff	 DD	 -24			; ffffffe8H
  000ea	07 00 00 00	 DD	 7
  000ee	00 00 00 00	 DD	 $L190383
$L190383:
  000f2	73		 DB	 115			; 00000073H
  000f3	7a		 DB	 122			; 0000007aH
  000f4	41		 DB	 65			; 00000041H
  000f5	43		 DB	 67			; 00000043H
  000f6	50		 DB	 80			; 00000050H
  000f7	00		 DB	 0
?_AtlGetThreadACPFake@ATL@@YGIXZ ENDP			; ATL::_AtlGetThreadACPFake
; Function compile flags: /Odt /RTCsu
_TEXT	ENDS
;	COMDAT ?_AtlGetThreadACPReal@ATL@@YGIXZ
_TEXT	SEGMENT
?_AtlGetThreadACPReal@ATL@@YGIXZ PROC NEAR		; ATL::_AtlGetThreadACPReal, COMDAT

; 127  : {

  00000	55		 push	 ebp
  00001	8b ec		 mov	 ebp, esp

; 128  : 	return( CP_THREAD_ACP );

  00003	b8 03 00 00 00	 mov	 eax, 3

; 129  : }

  00008	5d		 pop	 ebp
  00009	c3		 ret	 0
?_AtlGetThreadACPReal@ATL@@YGIXZ ENDP			; ATL::_AtlGetThreadACPReal
_TEXT	ENDS
;	COMDAT xdata$x
xdata$x	SEGMENT
$T190394 DD	0ffffffffH
	DD	FLAT:$L190389
$T190392 DD	019930520H
	DD	01H
	DD	FLAT:$T190394
	DD	2 DUP(00H)
	DD	2 DUP(00H)
; Function compile flags: /Odt /RTCsu
xdata$x	ENDS
;	COMDAT ??1TAB_ITEM@@QAE@XZ
_TEXT	SEGMENT
_this$ = -16						; size = 4
__$EHRec$ = -12						; size = 12
??1TAB_ITEM@@QAE@XZ PROC NEAR				; TAB_ITEM::~TAB_ITEM, COMDAT
; _this$ = ecx
  00000	55		 push	 ebp
  00001	8b ec		 mov	 ebp, esp
  00003	6a ff		 push	 -1
  00005	68 00 00 00 00	 push	 __ehhandler$??1TAB_ITEM@@QAE@XZ
  0000a	64 a1 00 00 00
	00		 mov	 eax, DWORD PTR fs:__except_list
  00010	50		 push	 eax
  00011	64 89 25 00 00
	00 00		 mov	 DWORD PTR fs:__except_list, esp
  00018	51		 push	 ecx
  00019	56		 push	 esi
  0001a	c7 45 f0 cc cc
	cc cc		 mov	 DWORD PTR [ebp-16], -858993460 ; ccccccccH
  00021	89 4d f0	 mov	 DWORD PTR _this$[ebp], ecx
  00024	c7 45 fc 00 00
	00 00		 mov	 DWORD PTR __$EHRec$[ebp+8], 0
  0002b	8b 4d f0	 mov	 ecx, DWORD PTR _this$[ebp]
  0002e	83 c1 20	 add	 ecx, 32			; 00000020H
  00031	8b f4		 mov	 esi, esp
  00033	ff 15 00 00 00
	00		 call	 DWORD PTR __imp_??1?$basic_string@DU?$char_traits@D@std@@V?$allocator@D@2@@std@@QAE@XZ
  00039	3b f4		 cmp	 esi, esp
  0003b	e8 00 00 00 00	 call	 __RTC_CheckEsp
  00040	c7 45 fc ff ff
	ff ff		 mov	 DWORD PTR __$EHRec$[ebp+8], -1
  00047	8b f4		 mov	 esi, esp
  00049	8b 4d f0	 mov	 ecx, DWORD PTR _this$[ebp]
  0004c	ff 15 00 00 00
	00		 call	 DWORD PTR __imp_??1?$basic_string@DU?$char_traits@D@std@@V?$allocator@D@2@@std@@QAE@XZ
  00052	3b f4		 cmp	 esi, esp
  00054	e8 00 00 00 00	 call	 __RTC_CheckEsp
  00059	8b 4d f4	 mov	 ecx, DWORD PTR __$EHRec$[ebp]
  0005c	64 89 0d 00 00
	00 00		 mov	 DWORD PTR fs:__except_list, ecx
  00063	5e		 pop	 esi
  00064	83 c4 10	 add	 esp, 16			; 00000010H
  00067	3b ec		 cmp	 ebp, esp
  00069	e8 00 00 00 00	 call	 __RTC_CheckEsp
  0006e	8b e5		 mov	 esp, ebp
  00070	5d		 pop	 ebp
  00071	c3		 ret	 0
_TEXT	ENDS
;	COMDAT text$x
text$x	SEGMENT
$L190389:
  00000	8b f4		 mov	 esi, esp
  00002	8b 4d f0	 mov	 ecx, DWORD PTR _this$[ebp]
  00005	ff 15 00 00 00
	00		 call	 DWORD PTR __imp_??1?$basic_string@DU?$char_traits@D@std@@V?$allocator@D@2@@std@@QAE@XZ
  0000b	3b f4		 cmp	 esi, esp
  0000d	e9 00 00 00 00	 jmp	 __RTC_CheckEsp
__ehhandler$??1TAB_ITEM@@QAE@XZ:
  00012	b8 00 00 00 00	 mov	 eax, OFFSET FLAT:$T190392
  00017	e9 00 00 00 00	 jmp	 ___CxxFrameHandler
text$x	ENDS
??1TAB_ITEM@@QAE@XZ ENDP				; TAB_ITEM::~TAB_ITEM
;	COMDAT xdata$x
xdata$x	SEGMENT
$T190404 DD	0ffffffffH
	DD	FLAT:$L190398
	DD	00H
	DD	FLAT:$L190399
$T190402 DD	019930520H
	DD	02H
	DD	FLAT:$T190404
	DD	2 DUP(00H)
	DD	2 DUP(00H)
; Function compile flags: /Odt /RTCsu
xdata$x	ENDS
;	COMDAT ??0WEB_GAME@@QAE@ABU0@@Z
_TEXT	SEGMENT
_this$ = -16						; size = 4
__$EHRec$ = -12						; size = 12
___that$ = 8						; size = 4
??0WEB_GAME@@QAE@ABU0@@Z PROC NEAR			; WEB_GAME::WEB_GAME, COMDAT
; _this$ = ecx
  00000	55		 push	 ebp
  00001	8b ec		 mov	 ebp, esp
  00003	6a ff		 push	 -1
  00005	68 00 00 00 00	 push	 __ehhandler$??0WEB_GAME@@QAE@ABU0@@Z
  0000a	64 a1 00 00 00
	00		 mov	 eax, DWORD PTR fs:__except_list
  00010	50		 push	 eax
  00011	64 89 25 00 00
	00 00		 mov	 DWORD PTR fs:__except_list, esp
  00018	51		 push	 ecx
  00019	56		 push	 esi
  0001a	c7 45 f0 cc cc
	cc cc		 mov	 DWORD PTR [ebp-16], -858993460 ; ccccccccH
  00021	89 4d f0	 mov	 DWORD PTR _this$[ebp], ecx
  00024	8b f4		 mov	 esi, esp
  00026	8b 45 08	 mov	 eax, DWORD PTR ___that$[ebp]
  00029	50		 push	 eax
  0002a	8b 4d f0	 mov	 ecx, DWORD PTR _this$[ebp]
  0002d	ff 15 00 00 00
	00		 call	 DWORD PTR __imp_??0?$basic_string@DU?$char_traits@D@std@@V?$allocator@D@2@@std@@QAE@ABV01@@Z
  00033	3b f4		 cmp	 esi, esp
  00035	e8 00 00 00 00	 call	 __RTC_CheckEsp
  0003a	c7 45 fc 00 00
	00 00		 mov	 DWORD PTR __$EHRec$[ebp+8], 0
  00041	8b 4d 08	 mov	 ecx, DWORD PTR ___that$[ebp]
  00044	83 c1 1c	 add	 ecx, 28			; 0000001cH
  00047	8b f4		 mov	 esi, esp
  00049	51		 push	 ecx
  0004a	8b 4d f0	 mov	 ecx, DWORD PTR _this$[ebp]
  0004d	83 c1 1c	 add	 ecx, 28			; 0000001cH
  00050	ff 15 00 00 00
	00		 call	 DWORD PTR __imp_??0?$basic_string@DU?$char_traits@D@std@@V?$allocator@D@2@@std@@QAE@ABV01@@Z
  00056	3b f4		 cmp	 esi, esp
  00058	e8 00 00 00 00	 call	 __RTC_CheckEsp
  0005d	c6 45 fc 01	 mov	 BYTE PTR __$EHRec$[ebp+8], 1
  00061	8b 55 08	 mov	 edx, DWORD PTR ___that$[ebp]
  00064	83 c2 38	 add	 edx, 56			; 00000038H
  00067	8b f4		 mov	 esi, esp
  00069	52		 push	 edx
  0006a	8b 4d f0	 mov	 ecx, DWORD PTR _this$[ebp]
  0006d	83 c1 38	 add	 ecx, 56			; 00000038H
  00070	ff 15 00 00 00
	00		 call	 DWORD PTR __imp_??0?$basic_string@DU?$char_traits@D@std@@V?$allocator@D@2@@std@@QAE@ABV01@@Z
  00076	3b f4		 cmp	 esi, esp
  00078	e8 00 00 00 00	 call	 __RTC_CheckEsp
  0007d	c7 45 fc ff ff
	ff ff		 mov	 DWORD PTR __$EHRec$[ebp+8], -1
  00084	8b 45 f0	 mov	 eax, DWORD PTR _this$[ebp]
  00087	8b 4d f4	 mov	 ecx, DWORD PTR __$EHRec$[ebp]
  0008a	64 89 0d 00 00
	00 00		 mov	 DWORD PTR fs:__except_list, ecx
  00091	5e		 pop	 esi
  00092	83 c4 10	 add	 esp, 16			; 00000010H
  00095	3b ec		 cmp	 ebp, esp
  00097	e8 00 00 00 00	 call	 __RTC_CheckEsp
  0009c	8b e5		 mov	 esp, ebp
  0009e	5d		 pop	 ebp
  0009f	c2 04 00	 ret	 4
_TEXT	ENDS
;	COMDAT text$x
text$x	SEGMENT
$L190398:
  00000	8b f4		 mov	 esi, esp
  00002	8b 4d f0	 mov	 ecx, DWORD PTR _this$[ebp]
  00005	ff 15 00 00 00
	00		 call	 DWORD PTR __imp_??1?$basic_string@DU?$char_traits@D@std@@V?$allocator@D@2@@std@@QAE@XZ
  0000b	3b f4		 cmp	 esi, esp
  0000d	e9 00 00 00 00	 jmp	 __RTC_CheckEsp
$L190399:
  00012	8b 4d f0	 mov	 ecx, DWORD PTR _this$[ebp]
  00015	83 c1 1c	 add	 ecx, 28			; 0000001cH
  00018	8b f4		 mov	 esi, esp
  0001a	ff 15 00 00 00
	00		 call	 DWORD PTR __imp_??1?$basic_string@DU?$char_traits@D@std@@V?$allocator@D@2@@std@@QAE@XZ
  00020	3b f4		 cmp	 esi, esp
  00022	e9 00 00 00 00	 jmp	 __RTC_CheckEsp
__ehhandler$??0WEB_GAME@@QAE@ABU0@@Z:
  00027	b8 00 00 00 00	 mov	 eax, OFFSET FLAT:$T190402
  0002c	e9 00 00 00 00	 jmp	 ___CxxFrameHandler
text$x	ENDS
??0WEB_GAME@@QAE@ABU0@@Z ENDP				; WEB_GAME::WEB_GAME
PUBLIC	?Init@WebGamePanelWnd@@QAEXXZ			; WebGamePanelWnd::Init
EXTRN	?Init@MyWebBrowserWnd@@QAEXXZ:NEAR		; MyWebBrowserWnd::Init
EXTRN	?Init@WebGamePlayingWnd@@QAEXXZ:NEAR		; WebGamePlayingWnd::Init
; Function compile flags: /Odt /RTCsu
; File d:\boxgit\playbox\playbox\dev\prj\playbox\src\module\gamepanel\webgamepanelwnd.cpp
_TEXT	SEGMENT
_this$ = -4						; size = 4
?Init@WebGamePanelWnd@@QAEXXZ PROC NEAR			; WebGamePanelWnd::Init
; _this$ = ecx

; 73   : {

  00800	55		 push	 ebp
  00801	8b ec		 mov	 ebp, esp
  00803	51		 push	 ecx
  00804	c7 45 fc cc cc
	cc cc		 mov	 DWORD PTR [ebp-4], -858993460 ; ccccccccH
  0080b	89 4d fc	 mov	 DWORD PTR _this$[ebp], ecx

; 74   : 	m_pWndGameRight->Init();

  0080e	8b 45 fc	 mov	 eax, DWORD PTR _this$[ebp]
  00811	8b 48 58	 mov	 ecx, DWORD PTR [eax+88]
  00814	e8 00 00 00 00	 call	 ?Init@MyWebBrowserWnd@@QAEXXZ ; MyWebBrowserWnd::Init

; 75   : 	m_pWndGamePlaying->Init();

  00819	8b 4d fc	 mov	 ecx, DWORD PTR _this$[ebp]
  0081c	8b 49 5c	 mov	 ecx, DWORD PTR [ecx+92]
  0081f	e8 00 00 00 00	 call	 ?Init@WebGamePlayingWnd@@QAEXXZ ; WebGamePlayingWnd::Init

; 76   : }

  00824	83 c4 04	 add	 esp, 4
  00827	3b ec		 cmp	 ebp, esp
  00829	e8 00 00 00 00	 call	 __RTC_CheckEsp
  0082e	8b e5		 mov	 esp, ebp
  00830	5d		 pop	 ebp
  00831	c3		 ret	 0
?Init@WebGamePanelWnd@@QAEXXZ ENDP			; WebGamePanelWnd::Init
_TEXT	ENDS
EXTRN	?OnDestroy@CWnd@@IAEXXZ:NEAR			; CWnd::OnDestroy
; Function compile flags: /Odt /RTCsu
_TEXT	SEGMENT
_this$ = -4						; size = 4
?OnDestroy@WebGamePanelWnd@@IAEXXZ PROC NEAR		; WebGamePanelWnd::OnDestroy
; _this$ = ecx

; 79   : {

  00840	55		 push	 ebp
  00841	8b ec		 mov	 ebp, esp
  00843	51		 push	 ecx
  00844	56		 push	 esi
  00845	c7 45 fc cc cc
	cc cc		 mov	 DWORD PTR [ebp-4], -858993460 ; ccccccccH
  0084c	89 4d fc	 mov	 DWORD PTR _this$[ebp], ecx

; 80   : 	m_pWndGamePlaying->DestroyWindow();

  0084f	8b 45 fc	 mov	 eax, DWORD PTR _this$[ebp]
  00852	8b 48 5c	 mov	 ecx, DWORD PTR [eax+92]
  00855	8b 55 fc	 mov	 edx, DWORD PTR _this$[ebp]
  00858	8b 42 5c	 mov	 eax, DWORD PTR [edx+92]
  0085b	8b 11		 mov	 edx, DWORD PTR [ecx]
  0085d	8b f4		 mov	 esi, esp
  0085f	8b c8		 mov	 ecx, eax
  00861	ff 52 68	 call	 DWORD PTR [edx+104]
  00864	3b f4		 cmp	 esi, esp
  00866	e8 00 00 00 00	 call	 __RTC_CheckEsp

; 81   : 	m_pWndGameRight->DestroyWindow();

  0086b	8b 45 fc	 mov	 eax, DWORD PTR _this$[ebp]
  0086e	8b 48 58	 mov	 ecx, DWORD PTR [eax+88]
  00871	8b 55 fc	 mov	 edx, DWORD PTR _this$[ebp]
  00874	8b 42 58	 mov	 eax, DWORD PTR [edx+88]
  00877	8b 11		 mov	 edx, DWORD PTR [ecx]
  00879	8b f4		 mov	 esi, esp
  0087b	8b c8		 mov	 ecx, eax
  0087d	ff 52 68	 call	 DWORD PTR [edx+104]
  00880	3b f4		 cmp	 esi, esp
  00882	e8 00 00 00 00	 call	 __RTC_CheckEsp

; 82   : 	__super::OnDestroy();

  00887	8b 4d fc	 mov	 ecx, DWORD PTR _this$[ebp]
  0088a	e8 00 00 00 00	 call	 ?OnDestroy@CWnd@@IAEXXZ	; CWnd::OnDestroy

; 83   : }

  0088f	5e		 pop	 esi
  00890	83 c4 04	 add	 esp, 4
  00893	3b ec		 cmp	 ebp, esp
  00895	e8 00 00 00 00	 call	 __RTC_CheckEsp
  0089a	8b e5		 mov	 esp, ebp
  0089c	5d		 pop	 ebp
  0089d	c3		 ret	 0
?OnDestroy@WebGamePanelWnd@@IAEXXZ ENDP			; WebGamePanelWnd::OnDestroy
_TEXT	ENDS
PUBLIC	?SetMainWindow@WebGamePanelWnd@@QAEX_N@Z	; WebGamePanelWnd::SetMainWindow
EXTRN	?AfxGetUserConfig@@YAPAVAfxUserConfig@@XZ:NEAR	; AfxGetUserConfig
EXTRN	?Width@CRect@@QBEHXZ:NEAR			; CRect::Width
EXTRN	?Height@CRect@@QBEHXZ:NEAR			; CRect::Height
EXTRN	?GetConfigBoolValue@AfxUserConfig@@QAEXABV?$basic_string@DU?$char_traits@D@std@@V?$allocator@D@2@@std@@0AA_N@Z:NEAR ; AfxUserConfig::GetConfigBoolValue
EXTRN	__imp_?YL_Log@@YAXABV?$basic_string@DU?$char_traits@D@std@@V?$allocator@D@2@@std@@H0PBDZZ:NEAR
EXTRN	__imp_?wndTopMost@CWnd@@2V1@B:BYTE
EXTRN	?SetWindowPos@CWnd@@QAEHPBV1@HHHHI@Z:NEAR	; CWnd::SetWindowPos
EXTRN	?GetWindowRect@CWnd@@QBEXPAUtagRECT@@@Z:NEAR	; CWnd::GetWindowRect
EXTRN	?ScreenToClient@CWnd@@QBEXPAUtagRECT@@@Z:NEAR	; CWnd::ScreenToClient
EXTRN	__imp__GetWindowLongA@8:NEAR
EXTRN	__imp__SetWindowLongA@12:NEAR
EXTRN	?GetDesktopWindow@CWnd@@SGPAV1@XZ:NEAR		; CWnd::GetDesktopWindow
EXTRN	?GetParent@CWnd@@QBEPAV1@XZ:NEAR		; CWnd::GetParent
EXTRN	?SetParent@CWnd@@QAEPAV1@PAV1@@Z:NEAR		; CWnd::SetParent
xdata$x	SEGMENT
$T190428 DD	0ffffffffH
	DD	FLAT:$L190416
	DD	00H
	DD	FLAT:$L190417
	DD	0ffffffffH
	DD	FLAT:$L190418
	DD	02H
	DD	FLAT:$L190419
	DD	0ffffffffH
	DD	FLAT:$L190420
	DD	04H
	DD	FLAT:$L190421
$T190423 DD	019930520H
	DD	06H
	DD	FLAT:$T190428
	DD	2 DUP(00H)
	DD	2 DUP(00H)
; Function compile flags: /Odt /RTCsu
xdata$x	ENDS
_TEXT	SEGMENT
$T190415 = -204						; size = 28
$T190414 = -176						; size = 28
$T190413 = -148						; size = 28
$T190412 = -120						; size = 28
$T190411 = -92						; size = 28
$T190410 = -64						; size = 28
_lExStyle$ = -36					; size = 4
_style$ = -32						; size = 4
_curState$ = -21					; size = 1
_this$ = -16						; size = 4
__$EHRec$ = -12						; size = 12
_pWnd$ = 8						; size = 4
?IPanelChangeOb_ToFullScreen@WebGamePanelWnd@@UAEXPAVCWnd@@@Z PROC NEAR ; WebGamePanelWnd::IPanelChangeOb_ToFullScreen
; _this$ = ecx

; 86   : {

  008a0	55		 push	 ebp
  008a1	8b ec		 mov	 ebp, esp
  008a3	6a ff		 push	 -1
  008a5	68 00 00 00 00	 push	 __ehhandler$?IPanelChangeOb_ToFullScreen@WebGamePanelWnd@@UAEXPAVCWnd@@@Z
  008aa	64 a1 00 00 00
	00		 mov	 eax, DWORD PTR fs:__except_list
  008b0	50		 push	 eax
  008b1	64 89 25 00 00
	00 00		 mov	 DWORD PTR fs:__except_list, esp
  008b8	81 ec c0 00 00
	00		 sub	 esp, 192		; 000000c0H
  008be	56		 push	 esi
  008bf	57		 push	 edi
  008c0	51		 push	 ecx
  008c1	8d bd 34 ff ff
	ff		 lea	 edi, DWORD PTR [ebp-204]
  008c7	b9 30 00 00 00	 mov	 ecx, 48			; 00000030H
  008cc	b8 cc cc cc cc	 mov	 eax, -858993460		; ccccccccH
  008d1	f3 ab		 rep stosd
  008d3	59		 pop	 ecx
  008d4	89 4d f0	 mov	 DWORD PTR _this$[ebp], ecx

; 87   : 	YL_Log("WebGamePanelWnd.txt", LOG_DEBUG, "WebGamePanelWnd::IPanelChangeOb_ToFullScreen", "===IN");

  008d7	8b f4		 mov	 esi, esp
  008d9	68 00 00 00 00	 push	 OFFSET FLAT:$SG189444
  008de	8d 4d c0	 lea	 ecx, DWORD PTR $T190410[ebp]
  008e1	ff 15 00 00 00
	00		 call	 DWORD PTR __imp_??0?$basic_string@DU?$char_traits@D@std@@V?$allocator@D@2@@std@@QAE@PBD@Z
  008e7	3b f4		 cmp	 esi, esp
  008e9	e8 00 00 00 00	 call	 __RTC_CheckEsp
  008ee	c7 45 fc 00 00
	00 00		 mov	 DWORD PTR __$EHRec$[ebp+8], 0
  008f5	8b f4		 mov	 esi, esp
  008f7	68 00 00 00 00	 push	 OFFSET FLAT:$SG189445
  008fc	8d 4d a4	 lea	 ecx, DWORD PTR $T190411[ebp]
  008ff	ff 15 00 00 00
	00		 call	 DWORD PTR __imp_??0?$basic_string@DU?$char_traits@D@std@@V?$allocator@D@2@@std@@QAE@PBD@Z
  00905	3b f4		 cmp	 esi, esp
  00907	e8 00 00 00 00	 call	 __RTC_CheckEsp
  0090c	c6 45 fc 01	 mov	 BYTE PTR __$EHRec$[ebp+8], 1
  00910	8b f4		 mov	 esi, esp
  00912	68 00 00 00 00	 push	 OFFSET FLAT:$SG189443
  00917	8d 45 c0	 lea	 eax, DWORD PTR $T190410[ebp]
  0091a	50		 push	 eax
  0091b	6a 00		 push	 0
  0091d	8d 4d a4	 lea	 ecx, DWORD PTR $T190411[ebp]
  00920	51		 push	 ecx
  00921	ff 15 00 00 00
	00		 call	 DWORD PTR __imp_?YL_Log@@YAXABV?$basic_string@DU?$char_traits@D@std@@V?$allocator@D@2@@std@@H0PBDZZ
  00927	83 c4 10	 add	 esp, 16			; 00000010H
  0092a	3b f4		 cmp	 esi, esp
  0092c	e8 00 00 00 00	 call	 __RTC_CheckEsp
  00931	c6 45 fc 00	 mov	 BYTE PTR __$EHRec$[ebp+8], 0
  00935	8b f4		 mov	 esi, esp
  00937	8d 4d a4	 lea	 ecx, DWORD PTR $T190411[ebp]
  0093a	ff 15 00 00 00
	00		 call	 DWORD PTR __imp_??1?$basic_string@DU?$char_traits@D@std@@V?$allocator@D@2@@std@@QAE@XZ
  00940	3b f4		 cmp	 esi, esp
  00942	e8 00 00 00 00	 call	 __RTC_CheckEsp
  00947	c7 45 fc ff ff
	ff ff		 mov	 DWORD PTR __$EHRec$[ebp+8], -1
  0094e	8b f4		 mov	 esi, esp
  00950	8d 4d c0	 lea	 ecx, DWORD PTR $T190410[ebp]
  00953	ff 15 00 00 00
	00		 call	 DWORD PTR __imp_??1?$basic_string@DU?$char_traits@D@std@@V?$allocator@D@2@@std@@QAE@XZ
  00959	3b f4		 cmp	 esi, esp
  0095b	e8 00 00 00 00	 call	 __RTC_CheckEsp

; 88   : 	if( pWnd != this )

  00960	8b 55 f0	 mov	 edx, DWORD PTR _this$[ebp]
  00963	83 ea 54	 sub	 edx, 84			; 00000054H
  00966	39 55 08	 cmp	 DWORD PTR _pWnd$[ebp], edx
  00969	74 05		 je	 SHORT $L189446

; 89   : 		return;

  0096b	e9 7b 02 00 00	 jmp	 $L189440
$L189446:

; 90   : 
; 91   : 	m_isMainWindowTopMost = false;

  00970	8b 45 f0	 mov	 eax, DWORD PTR _this$[ebp]
  00973	c6 40 60 00	 mov	 BYTE PTR [eax+96], 0

; 92   : 	bool curState;
; 93   : 	AfxGetUserConfig()->GetConfigBoolValue( CONF_APP_MODULE_NAME,CONF_APP_MAINWND_HOLD,curState);

  00977	8b f4		 mov	 esi, esp
  00979	8b 0d 00 00 00
	00		 mov	 ecx, DWORD PTR _CONF_APP_MAINWND_HOLD
  0097f	51		 push	 ecx
  00980	8d 4d 88	 lea	 ecx, DWORD PTR $T190412[ebp]
  00983	ff 15 00 00 00
	00		 call	 DWORD PTR __imp_??0?$basic_string@DU?$char_traits@D@std@@V?$allocator@D@2@@std@@QAE@PBD@Z
  00989	3b f4		 cmp	 esi, esp
  0098b	e8 00 00 00 00	 call	 __RTC_CheckEsp
  00990	c7 45 fc 02 00
	00 00		 mov	 DWORD PTR __$EHRec$[ebp+8], 2
  00997	8b f4		 mov	 esi, esp
  00999	8b 15 00 00 00
	00		 mov	 edx, DWORD PTR _CONF_APP_MODULE_NAME
  0099f	52		 push	 edx
  009a0	8d 8d 6c ff ff
	ff		 lea	 ecx, DWORD PTR $T190413[ebp]
  009a6	ff 15 00 00 00
	00		 call	 DWORD PTR __imp_??0?$basic_string@DU?$char_traits@D@std@@V?$allocator@D@2@@std@@QAE@PBD@Z
  009ac	3b f4		 cmp	 esi, esp
  009ae	e8 00 00 00 00	 call	 __RTC_CheckEsp
  009b3	c6 45 fc 03	 mov	 BYTE PTR __$EHRec$[ebp+8], 3
  009b7	8d 45 eb	 lea	 eax, DWORD PTR _curState$[ebp]
  009ba	50		 push	 eax
  009bb	8d 4d 88	 lea	 ecx, DWORD PTR $T190412[ebp]
  009be	51		 push	 ecx
  009bf	8d 95 6c ff ff
	ff		 lea	 edx, DWORD PTR $T190413[ebp]
  009c5	52		 push	 edx
  009c6	e8 00 00 00 00	 call	 ?AfxGetUserConfig@@YAPAVAfxUserConfig@@XZ ; AfxGetUserConfig
  009cb	8b c8		 mov	 ecx, eax
  009cd	e8 00 00 00 00	 call	 ?GetConfigBoolValue@AfxUserConfig@@QAEXABV?$basic_string@DU?$char_traits@D@std@@V?$allocator@D@2@@std@@0AA_N@Z ; AfxUserConfig::GetConfigBoolValue
  009d2	c6 45 fc 02	 mov	 BYTE PTR __$EHRec$[ebp+8], 2
  009d6	8b f4		 mov	 esi, esp
  009d8	8d 8d 6c ff ff
	ff		 lea	 ecx, DWORD PTR $T190413[ebp]
  009de	ff 15 00 00 00
	00		 call	 DWORD PTR __imp_??1?$basic_string@DU?$char_traits@D@std@@V?$allocator@D@2@@std@@QAE@XZ
  009e4	3b f4		 cmp	 esi, esp
  009e6	e8 00 00 00 00	 call	 __RTC_CheckEsp
  009eb	c7 45 fc ff ff
	ff ff		 mov	 DWORD PTR __$EHRec$[ebp+8], -1
  009f2	8b f4		 mov	 esi, esp
  009f4	8d 4d 88	 lea	 ecx, DWORD PTR $T190412[ebp]
  009f7	ff 15 00 00 00
	00		 call	 DWORD PTR __imp_??1?$basic_string@DU?$char_traits@D@std@@V?$allocator@D@2@@std@@QAE@XZ
  009fd	3b f4		 cmp	 esi, esp
  009ff	e8 00 00 00 00	 call	 __RTC_CheckEsp

; 94   : 	if(curState)

  00a04	0f b6 45 eb	 movzx	 eax, BYTE PTR _curState$[ebp]
  00a08	85 c0		 test	 eax, eax
  00a0a	74 14		 je	 SHORT $L189450

; 95   : 	{
; 96   : 		SetMainWindow(false);

  00a0c	6a 00		 push	 0
  00a0e	8b 4d f0	 mov	 ecx, DWORD PTR _this$[ebp]
  00a11	83 e9 54	 sub	 ecx, 84			; 00000054H
  00a14	e8 00 00 00 00	 call	 ?SetMainWindow@WebGamePanelWnd@@QAEX_N@Z ; WebGamePanelWnd::SetMainWindow

; 97   : 		m_isMainWindowTopMost=true;

  00a19	8b 4d f0	 mov	 ecx, DWORD PTR _this$[ebp]
  00a1c	c6 41 60 01	 mov	 BYTE PTR [ecx+96], 1
$L189450:

; 98   : 	}
; 99   : 
; 100  : 	m_pWndParent = GetParent();

  00a20	8b 4d f0	 mov	 ecx, DWORD PTR _this$[ebp]
  00a23	83 e9 54	 sub	 ecx, 84			; 00000054H
  00a26	e8 00 00 00 00	 call	 ?GetParent@CWnd@@QBEPAV1@XZ ; CWnd::GetParent
  00a2b	8b 55 f0	 mov	 edx, DWORD PTR _this$[ebp]
  00a2e	89 82 84 00 00
	00		 mov	 DWORD PTR [edx+132], eax

; 101  : 	GetWindowRect(&m_rectBeforeFull);

  00a34	8b 45 f0	 mov	 eax, DWORD PTR _this$[ebp]
  00a37	83 c0 64	 add	 eax, 100		; 00000064H
  00a3a	50		 push	 eax
  00a3b	8b 4d f0	 mov	 ecx, DWORD PTR _this$[ebp]
  00a3e	83 e9 54	 sub	 ecx, 84			; 00000054H
  00a41	e8 00 00 00 00	 call	 ?GetWindowRect@CWnd@@QBEXPAUtagRECT@@@Z ; CWnd::GetWindowRect

; 102  : 	m_pWndParent->ScreenToClient(&m_rectBeforeFull);

  00a46	8b 4d f0	 mov	 ecx, DWORD PTR _this$[ebp]
  00a49	83 c1 64	 add	 ecx, 100		; 00000064H
  00a4c	51		 push	 ecx
  00a4d	8b 55 f0	 mov	 edx, DWORD PTR _this$[ebp]
  00a50	8b 8a 84 00 00
	00		 mov	 ecx, DWORD PTR [edx+132]
  00a56	e8 00 00 00 00	 call	 ?ScreenToClient@CWnd@@QBEXPAUtagRECT@@@Z ; CWnd::ScreenToClient

; 103  : 
; 104  : 	//,WebGamePanelWnd
; 105  : 	long style = ::GetWindowLong(m_hWnd,GWL_STYLE);

  00a5b	8b f4		 mov	 esi, esp
  00a5d	6a f0		 push	 -16			; fffffff0H
  00a5f	8b 45 f0	 mov	 eax, DWORD PTR _this$[ebp]
  00a62	8b 48 cc	 mov	 ecx, DWORD PTR [eax-52]
  00a65	51		 push	 ecx
  00a66	ff 15 00 00 00
	00		 call	 DWORD PTR __imp__GetWindowLongA@8
  00a6c	3b f4		 cmp	 esi, esp
  00a6e	e8 00 00 00 00	 call	 __RTC_CheckEsp
  00a73	89 45 e0	 mov	 DWORD PTR _style$[ebp], eax

; 106  : 	style &= ~WS_CHILD;

  00a76	8b 55 e0	 mov	 edx, DWORD PTR _style$[ebp]
  00a79	81 e2 ff ff ff
	bf		 and	 edx, -1073741825	; bfffffffH
  00a7f	89 55 e0	 mov	 DWORD PTR _style$[ebp], edx

; 107  : 	//style &= ~WS_CLIPCHILDREN;
; 108  : 	::SetWindowLong(m_hWnd, GWL_STYLE, style);

  00a82	8b f4		 mov	 esi, esp
  00a84	8b 45 e0	 mov	 eax, DWORD PTR _style$[ebp]
  00a87	50		 push	 eax
  00a88	6a f0		 push	 -16			; fffffff0H
  00a8a	8b 4d f0	 mov	 ecx, DWORD PTR _this$[ebp]
  00a8d	8b 51 cc	 mov	 edx, DWORD PTR [ecx-52]
  00a90	52		 push	 edx
  00a91	ff 15 00 00 00
	00		 call	 DWORD PTR __imp__SetWindowLongA@12
  00a97	3b f4		 cmp	 esi, esp
  00a99	e8 00 00 00 00	 call	 __RTC_CheckEsp

; 109  : 
; 110  : 	long lExStyle = ::GetWindowLong(m_hWnd, GWL_EXSTYLE);

  00a9e	8b f4		 mov	 esi, esp
  00aa0	6a ec		 push	 -20			; ffffffecH
  00aa2	8b 45 f0	 mov	 eax, DWORD PTR _this$[ebp]
  00aa5	8b 48 cc	 mov	 ecx, DWORD PTR [eax-52]
  00aa8	51		 push	 ecx
  00aa9	ff 15 00 00 00
	00		 call	 DWORD PTR __imp__GetWindowLongA@8
  00aaf	3b f4		 cmp	 esi, esp
  00ab1	e8 00 00 00 00	 call	 __RTC_CheckEsp
  00ab6	89 45 dc	 mov	 DWORD PTR _lExStyle$[ebp], eax

; 111  : 	lExStyle &= ~WS_EX_APPWINDOW; 

  00ab9	8b 55 dc	 mov	 edx, DWORD PTR _lExStyle$[ebp]
  00abc	81 e2 ff ff fb
	ff		 and	 edx, -262145		; fffbffffH
  00ac2	89 55 dc	 mov	 DWORD PTR _lExStyle$[ebp], edx

; 112  : 	lExStyle |= WS_EX_TOOLWINDOW; 

  00ac5	8b 45 dc	 mov	 eax, DWORD PTR _lExStyle$[ebp]
  00ac8	0d 80 00 00 00	 or	 eax, 128		; 00000080H
  00acd	89 45 dc	 mov	 DWORD PTR _lExStyle$[ebp], eax

; 113  : 	::SetWindowLong(m_hWnd, GWL_EXSTYLE, lExStyle);

  00ad0	8b f4		 mov	 esi, esp
  00ad2	8b 4d dc	 mov	 ecx, DWORD PTR _lExStyle$[ebp]
  00ad5	51		 push	 ecx
  00ad6	6a ec		 push	 -20			; ffffffecH
  00ad8	8b 55 f0	 mov	 edx, DWORD PTR _this$[ebp]
  00adb	8b 42 cc	 mov	 eax, DWORD PTR [edx-52]
  00ade	50		 push	 eax
  00adf	ff 15 00 00 00
	00		 call	 DWORD PTR __imp__SetWindowLongA@12
  00ae5	3b f4		 cmp	 esi, esp
  00ae7	e8 00 00 00 00	 call	 __RTC_CheckEsp

; 114  : 
; 115  : 	SetParent(GetDesktopWindow());

  00aec	e8 00 00 00 00	 call	 ?GetDesktopWindow@CWnd@@SGPAV1@XZ ; CWnd::GetDesktopWindow
  00af1	50		 push	 eax
  00af2	8b 4d f0	 mov	 ecx, DWORD PTR _this$[ebp]
  00af5	83 e9 54	 sub	 ecx, 84			; 00000054H
  00af8	e8 00 00 00 00	 call	 ?SetParent@CWnd@@QAEPAV1@PAV1@@Z ; CWnd::SetParent

; 116  : 	GetDesktopWindow()->GetWindowRect(&m_rectFullScreen);

  00afd	8b 4d f0	 mov	 ecx, DWORD PTR _this$[ebp]
  00b00	83 c1 74	 add	 ecx, 116		; 00000074H
  00b03	51		 push	 ecx
  00b04	e8 00 00 00 00	 call	 ?GetDesktopWindow@CWnd@@SGPAV1@XZ ; CWnd::GetDesktopWindow
  00b09	8b c8		 mov	 ecx, eax
  00b0b	e8 00 00 00 00	 call	 ?GetWindowRect@CWnd@@QBEXPAUtagRECT@@@Z ; CWnd::GetWindowRect

; 117  : 
; 118  : 	SetWindowPos(&wndTopMost,m_rectFullScreen.left,m_rectFullScreen.top,
; 119  : 		m_rectFullScreen.Width(),m_rectFullScreen.Height(),SWP_SHOWWINDOW);

  00b10	6a 40		 push	 64			; 00000040H
  00b12	8b 4d f0	 mov	 ecx, DWORD PTR _this$[ebp]
  00b15	83 c1 74	 add	 ecx, 116		; 00000074H
  00b18	e8 00 00 00 00	 call	 ?Height@CRect@@QBEHXZ	; CRect::Height
  00b1d	50		 push	 eax
  00b1e	8b 4d f0	 mov	 ecx, DWORD PTR _this$[ebp]
  00b21	83 c1 74	 add	 ecx, 116		; 00000074H
  00b24	e8 00 00 00 00	 call	 ?Width@CRect@@QBEHXZ	; CRect::Width
  00b29	50		 push	 eax
  00b2a	8b 55 f0	 mov	 edx, DWORD PTR _this$[ebp]
  00b2d	8b 42 78	 mov	 eax, DWORD PTR [edx+120]
  00b30	50		 push	 eax
  00b31	8b 4d f0	 mov	 ecx, DWORD PTR _this$[ebp]
  00b34	8b 51 74	 mov	 edx, DWORD PTR [ecx+116]
  00b37	52		 push	 edx
  00b38	a1 00 00 00 00	 mov	 eax, DWORD PTR __imp_?wndTopMost@CWnd@@2V1@B
  00b3d	50		 push	 eax
  00b3e	8b 4d f0	 mov	 ecx, DWORD PTR _this$[ebp]
  00b41	83 e9 54	 sub	 ecx, 84			; 00000054H
  00b44	e8 00 00 00 00	 call	 ?SetWindowPos@CWnd@@QAEHPBV1@HHHHI@Z ; CWnd::SetWindowPos

; 120  : 	m_bFullScreen = true;

  00b49	8b 4d f0	 mov	 ecx, DWORD PTR _this$[ebp]
  00b4c	c6 41 61 01	 mov	 BYTE PTR [ecx+97], 1

; 121  : 
; 122  : 	YL_Log("WebGamePanelWnd.txt", LOG_DEBUG, "WebGamePanelWnd::IPanelChangeOb_ToFullScreen", "===OUT");

  00b50	8b f4		 mov	 esi, esp
  00b52	68 00 00 00 00	 push	 OFFSET FLAT:$SG189456
  00b57	8d 8d 50 ff ff
	ff		 lea	 ecx, DWORD PTR $T190414[ebp]
  00b5d	ff 15 00 00 00
	00		 call	 DWORD PTR __imp_??0?$basic_string@DU?$char_traits@D@std@@V?$allocator@D@2@@std@@QAE@PBD@Z
  00b63	3b f4		 cmp	 esi, esp
  00b65	e8 00 00 00 00	 call	 __RTC_CheckEsp
  00b6a	c7 45 fc 04 00
	00 00		 mov	 DWORD PTR __$EHRec$[ebp+8], 4
  00b71	8b f4		 mov	 esi, esp
  00b73	68 00 00 00 00	 push	 OFFSET FLAT:$SG189457
  00b78	8d 8d 34 ff ff
	ff		 lea	 ecx, DWORD PTR $T190415[ebp]
  00b7e	ff 15 00 00 00
	00		 call	 DWORD PTR __imp_??0?$basic_string@DU?$char_traits@D@std@@V?$allocator@D@2@@std@@QAE@PBD@Z
  00b84	3b f4		 cmp	 esi, esp
  00b86	e8 00 00 00 00	 call	 __RTC_CheckEsp
  00b8b	c6 45 fc 05	 mov	 BYTE PTR __$EHRec$[ebp+8], 5
  00b8f	8b f4		 mov	 esi, esp
  00b91	68 00 00 00 00	 push	 OFFSET FLAT:$SG189455
  00b96	8d 95 50 ff ff
	ff		 lea	 edx, DWORD PTR $T190414[ebp]
  00b9c	52		 push	 edx
  00b9d	6a 00		 push	 0
  00b9f	8d 85 34 ff ff
	ff		 lea	 eax, DWORD PTR $T190415[ebp]
  00ba5	50		 push	 eax
  00ba6	ff 15 00 00 00
	00		 call	 DWORD PTR __imp_?YL_Log@@YAXABV?$basic_string@DU?$char_traits@D@std@@V?$allocator@D@2@@std@@H0PBDZZ
  00bac	83 c4 10	 add	 esp, 16			; 00000010H
  00baf	3b f4		 cmp	 esi, esp
  00bb1	e8 00 00 00 00	 call	 __RTC_CheckEsp
  00bb6	c6 45 fc 04	 mov	 BYTE PTR __$EHRec$[ebp+8], 4
  00bba	8b f4		 mov	 esi, esp
  00bbc	8d 8d 34 ff ff
	ff		 lea	 ecx, DWORD PTR $T190415[ebp]
  00bc2	ff 15 00 00 00
	00		 call	 DWORD PTR __imp_??1?$basic_string@DU?$char_traits@D@std@@V?$allocator@D@2@@std@@QAE@XZ
  00bc8	3b f4		 cmp	 esi, esp
  00bca	e8 00 00 00 00	 call	 __RTC_CheckEsp
  00bcf	c7 45 fc ff ff
	ff ff		 mov	 DWORD PTR __$EHRec$[ebp+8], -1
  00bd6	8b f4		 mov	 esi, esp
  00bd8	8d 8d 50 ff ff
	ff		 lea	 ecx, DWORD PTR $T190414[ebp]
  00bde	ff 15 00 00 00
	00		 call	 DWORD PTR __imp_??1?$basic_string@DU?$char_traits@D@std@@V?$allocator@D@2@@std@@QAE@XZ
  00be4	3b f4		 cmp	 esi, esp
  00be6	e8 00 00 00 00	 call	 __RTC_CheckEsp
$L189440:

; 123  : }

  00beb	52		 push	 edx
  00bec	8b cd		 mov	 ecx, ebp
  00bee	50		 push	 eax
  00bef	8d 15 00 00 00
	00		 lea	 edx, DWORD PTR $L190427
  00bf5	e8 00 00 00 00	 call	 @_RTC_CheckStackVars@8
  00bfa	58		 pop	 eax
  00bfb	5a		 pop	 edx
  00bfc	8b 4d f4	 mov	 ecx, DWORD PTR __$EHRec$[ebp]
  00bff	64 89 0d 00 00
	00 00		 mov	 DWORD PTR fs:__except_list, ecx
  00c06	5f		 pop	 edi
  00c07	5e		 pop	 esi
  00c08	81 c4 cc 00 00
	00		 add	 esp, 204		; 000000ccH
  00c0e	3b ec		 cmp	 ebp, esp
  00c10	e8 00 00 00 00	 call	 __RTC_CheckEsp
  00c15	8b e5		 mov	 esp, ebp
  00c17	5d		 pop	 ebp
  00c18	c2 04 00	 ret	 4
$L190427:
  00c1b	01 00 00 00	 DD	 1
  00c1f	00 00 00 00	 DD	 $L190426
$L190426:
  00c23	eb ff ff ff	 DD	 -21			; ffffffebH
  00c27	01 00 00 00	 DD	 1
  00c2b	00 00 00 00	 DD	 $L190424
$L190424:
  00c2f	63		 DB	 99			; 00000063H
  00c30	75		 DB	 117			; 00000075H
  00c31	72		 DB	 114			; 00000072H
  00c32	53		 DB	 83			; 00000053H
  00c33	74		 DB	 116			; 00000074H
  00c34	61		 DB	 97			; 00000061H
  00c35	74		 DB	 116			; 00000074H
  00c36	65		 DB	 101			; 00000065H
  00c37	00		 DB	 0
_TEXT	ENDS
text$x	SEGMENT
$L190416:
  0011a	8b f4		 mov	 esi, esp
  0011c	8d 4d c0	 lea	 ecx, DWORD PTR $T190410[ebp]
  0011f	ff 15 00 00 00
	00		 call	 DWORD PTR __imp_??1?$basic_string@DU?$char_traits@D@std@@V?$allocator@D@2@@std@@QAE@XZ
  00125	3b f4		 cmp	 esi, esp
  00127	e9 00 00 00 00	 jmp	 __RTC_CheckEsp
$L190417:
  0012c	8b f4		 mov	 esi, esp
  0012e	8d 4d a4	 lea	 ecx, DWORD PTR $T190411[ebp]
  00131	ff 15 00 00 00
	00		 call	 DWORD PTR __imp_??1?$basic_string@DU?$char_traits@D@std@@V?$allocator@D@2@@std@@QAE@XZ
  00137	3b f4		 cmp	 esi, esp
  00139	e9 00 00 00 00	 jmp	 __RTC_CheckEsp
$L190418:
  0013e	8b f4		 mov	 esi, esp
  00140	8d 4d 88	 lea	 ecx, DWORD PTR $T190412[ebp]
  00143	ff 15 00 00 00
	00		 call	 DWORD PTR __imp_??1?$basic_string@DU?$char_traits@D@std@@V?$allocator@D@2@@std@@QAE@XZ
  00149	3b f4		 cmp	 esi, esp
  0014b	e9 00 00 00 00	 jmp	 __RTC_CheckEsp
$L190419:
  00150	8b f4		 mov	 esi, esp
  00152	8d 8d 6c ff ff
	ff		 lea	 ecx, DWORD PTR $T190413[ebp]
  00158	ff 15 00 00 00
	00		 call	 DWORD PTR __imp_??1?$basic_string@DU?$char_traits@D@std@@V?$allocator@D@2@@std@@QAE@XZ
  0015e	3b f4		 cmp	 esi, esp
  00160	e9 00 00 00 00	 jmp	 __RTC_CheckEsp
$L190420:
  00165	8b f4		 mov	 esi, esp
  00167	8d 8d 50 ff ff
	ff		 lea	 ecx, DWORD PTR $T190414[ebp]
  0016d	ff 15 00 00 00
	00		 call	 DWORD PTR __imp_??1?$basic_string@DU?$char_traits@D@std@@V?$allocator@D@2@@std@@QAE@XZ
  00173	3b f4		 cmp	 esi, esp
  00175	e9 00 00 00 00	 jmp	 __RTC_CheckEsp
$L190421:
  0017a	8b f4		 mov	 esi, esp
  0017c	8d 8d 34 ff ff
	ff		 lea	 ecx, DWORD PTR $T190415[ebp]
  00182	ff 15 00 00 00
	00		 call	 DWORD PTR __imp_??1?$basic_string@DU?$char_traits@D@std@@V?$allocator@D@2@@std@@QAE@XZ
  00188	3b f4		 cmp	 esi, esp
  0018a	e9 00 00 00 00	 jmp	 __RTC_CheckEsp
__ehhandler$?IPanelChangeOb_ToFullScreen@WebGamePanelWnd@@UAEXPAVCWnd@@@Z:
  0018f	b8 00 00 00 00	 mov	 eax, OFFSET FLAT:$T190423
  00194	e9 00 00 00 00	 jmp	 ___CxxFrameHandler
text$x	ENDS
?IPanelChangeOb_ToFullScreen@WebGamePanelWnd@@UAEXPAVCWnd@@@Z ENDP ; WebGamePanelWnd::IPanelChangeOb_ToFullScreen
EXTRN	?AfxGetMainWindow@@YAPAVCWnd@@XZ:NEAR		; AfxGetMainWindow
EXTRN	?SetConfigBoolValue@AfxUserConfig@@QAEXABV?$basic_string@DU?$char_traits@D@std@@V?$allocator@D@2@@std@@0_N1@Z:NEAR ; AfxUserConfig::SetConfigBoolValue
EXTRN	__imp_?wndNoTopMost@CWnd@@2V1@B:BYTE
xdata$x	SEGMENT
$T190449 DD	0ffffffffH
	DD	FLAT:$L190438
	DD	00H
	DD	FLAT:$L190439
	DD	0ffffffffH
	DD	FLAT:$L190440
	DD	02H
	DD	FLAT:$L190441
	DD	0ffffffffH
	DD	FLAT:$L190442
	DD	04H
	DD	FLAT:$L190443
	DD	0ffffffffH
	DD	FLAT:$L190444
	DD	06H
	DD	FLAT:$L190445
$T190447 DD	019930520H
	DD	08H
	DD	FLAT:$T190449
	DD	2 DUP(00H)
	DD	2 DUP(00H)
; Function compile flags: /Odt /RTCsu
xdata$x	ENDS
_TEXT	SEGMENT
$T190437 = -240						; size = 28
$T190436 = -212						; size = 28
$T190435 = -184						; size = 28
$T190434 = -156						; size = 28
$T190433 = -128						; size = 28
$T190432 = -100						; size = 28
$T190431 = -72						; size = 28
$T190430 = -44						; size = 28
_this$ = -16						; size = 4
__$EHRec$ = -12						; size = 12
_isTopMost$ = 8						; size = 1
?SetMainWindow@WebGamePanelWnd@@QAEX_N@Z PROC NEAR	; WebGamePanelWnd::SetMainWindow
; _this$ = ecx

; 126  : {

  00c40	55		 push	 ebp
  00c41	8b ec		 mov	 ebp, esp
  00c43	6a ff		 push	 -1
  00c45	68 00 00 00 00	 push	 __ehhandler$?SetMainWindow@WebGamePanelWnd@@QAEX_N@Z
  00c4a	64 a1 00 00 00
	00		 mov	 eax, DWORD PTR fs:__except_list
  00c50	50		 push	 eax
  00c51	64 89 25 00 00
	00 00		 mov	 DWORD PTR fs:__except_list, esp
  00c58	81 ec e4 00 00
	00		 sub	 esp, 228		; 000000e4H
  00c5e	56		 push	 esi
  00c5f	57		 push	 edi
  00c60	51		 push	 ecx
  00c61	8d bd 10 ff ff
	ff		 lea	 edi, DWORD PTR [ebp-240]
  00c67	b9 39 00 00 00	 mov	 ecx, 57			; 00000039H
  00c6c	b8 cc cc cc cc	 mov	 eax, -858993460		; ccccccccH
  00c71	f3 ab		 rep stosd
  00c73	59		 pop	 ecx
  00c74	89 4d f0	 mov	 DWORD PTR _this$[ebp], ecx

; 127  : 	YL_Log("WebGamePanelWnd.txt", LOG_DEBUG, "WebGamePanelWnd::SetMainWindow", "===IN");

  00c77	8b f4		 mov	 esi, esp
  00c79	68 00 00 00 00	 push	 OFFSET FLAT:$SG189465
  00c7e	8d 4d d4	 lea	 ecx, DWORD PTR $T190430[ebp]
  00c81	ff 15 00 00 00
	00		 call	 DWORD PTR __imp_??0?$basic_string@DU?$char_traits@D@std@@V?$allocator@D@2@@std@@QAE@PBD@Z
  00c87	3b f4		 cmp	 esi, esp
  00c89	e8 00 00 00 00	 call	 __RTC_CheckEsp
  00c8e	c7 45 fc 00 00
	00 00		 mov	 DWORD PTR __$EHRec$[ebp+8], 0
  00c95	8b f4		 mov	 esi, esp
  00c97	68 00 00 00 00	 push	 OFFSET FLAT:$SG189466
  00c9c	8d 4d b8	 lea	 ecx, DWORD PTR $T190431[ebp]
  00c9f	ff 15 00 00 00
	00		 call	 DWORD PTR __imp_??0?$basic_string@DU?$char_traits@D@std@@V?$allocator@D@2@@std@@QAE@PBD@Z
  00ca5	3b f4		 cmp	 esi, esp
  00ca7	e8 00 00 00 00	 call	 __RTC_CheckEsp
  00cac	c6 45 fc 01	 mov	 BYTE PTR __$EHRec$[ebp+8], 1
  00cb0	8b f4		 mov	 esi, esp
  00cb2	68 00 00 00 00	 push	 OFFSET FLAT:$SG189464
  00cb7	8d 45 d4	 lea	 eax, DWORD PTR $T190430[ebp]
  00cba	50		 push	 eax
  00cbb	6a 00		 push	 0
  00cbd	8d 4d b8	 lea	 ecx, DWORD PTR $T190431[ebp]
  00cc0	51		 push	 ecx
  00cc1	ff 15 00 00 00
	00		 call	 DWORD PTR __imp_?YL_Log@@YAXABV?$basic_string@DU?$char_traits@D@std@@V?$allocator@D@2@@std@@H0PBDZZ
  00cc7	83 c4 10	 add	 esp, 16			; 00000010H
  00cca	3b f4		 cmp	 esi, esp
  00ccc	e8 00 00 00 00	 call	 __RTC_CheckEsp
  00cd1	c6 45 fc 00	 mov	 BYTE PTR __$EHRec$[ebp+8], 0
  00cd5	8b f4		 mov	 esi, esp
  00cd7	8d 4d b8	 lea	 ecx, DWORD PTR $T190431[ebp]
  00cda	ff 15 00 00 00
	00		 call	 DWORD PTR __imp_??1?$basic_string@DU?$char_traits@D@std@@V?$allocator@D@2@@std@@QAE@XZ
  00ce0	3b f4		 cmp	 esi, esp
  00ce2	e8 00 00 00 00	 call	 __RTC_CheckEsp
  00ce7	c7 45 fc ff ff
	ff ff		 mov	 DWORD PTR __$EHRec$[ebp+8], -1
  00cee	8b f4		 mov	 esi, esp
  00cf0	8d 4d d4	 lea	 ecx, DWORD PTR $T190430[ebp]
  00cf3	ff 15 00 00 00
	00		 call	 DWORD PTR __imp_??1?$basic_string@DU?$char_traits@D@std@@V?$allocator@D@2@@std@@QAE@XZ
  00cf9	3b f4		 cmp	 esi, esp
  00cfb	e8 00 00 00 00	 call	 __RTC_CheckEsp

; 128  : 	if(isTopMost)

  00d00	0f b6 55 08	 movzx	 edx, BYTE PTR _isTopMost$[ebp]
  00d04	85 d2		 test	 edx, edx
  00d06	0f 84 a5 00 00
	00		 je	 $L189467

; 129  : 	{
; 130  : 		AfxGetMainWindow()->SetWindowPos(&wndTopMost,-1,-1,-1,-1, SWP_NOSIZE|SWP_NOMOVE);

  00d0c	6a 03		 push	 3
  00d0e	6a ff		 push	 -1
  00d10	6a ff		 push	 -1
  00d12	6a ff		 push	 -1
  00d14	6a ff		 push	 -1
  00d16	a1 00 00 00 00	 mov	 eax, DWORD PTR __imp_?wndTopMost@CWnd@@2V1@B
  00d1b	50		 push	 eax
  00d1c	e8 00 00 00 00	 call	 ?AfxGetMainWindow@@YAPAVCWnd@@XZ ; AfxGetMainWindow
  00d21	8b c8		 mov	 ecx, eax
  00d23	e8 00 00 00 00	 call	 ?SetWindowPos@CWnd@@QAEHPBV1@HHHHI@Z ; CWnd::SetWindowPos

; 131  : 		AfxGetUserConfig()->SetConfigBoolValue( CONF_APP_MODULE_NAME,CONF_APP_MAINWND_HOLD,true);

  00d28	8b f4		 mov	 esi, esp
  00d2a	8b 0d 00 00 00
	00		 mov	 ecx, DWORD PTR _CONF_APP_MAINWND_HOLD
  00d30	51		 push	 ecx
  00d31	8d 4d 9c	 lea	 ecx, DWORD PTR $T190432[ebp]
  00d34	ff 15 00 00 00
	00		 call	 DWORD PTR __imp_??0?$basic_string@DU?$char_traits@D@std@@V?$allocator@D@2@@std@@QAE@PBD@Z
  00d3a	3b f4		 cmp	 esi, esp
  00d3c	e8 00 00 00 00	 call	 __RTC_CheckEsp
  00d41	c7 45 fc 02 00
	00 00		 mov	 DWORD PTR __$EHRec$[ebp+8], 2
  00d48	8b f4		 mov	 esi, esp
  00d4a	8b 15 00 00 00
	00		 mov	 edx, DWORD PTR _CONF_APP_MODULE_NAME
  00d50	52		 push	 edx
  00d51	8d 4d 80	 lea	 ecx, DWORD PTR $T190433[ebp]
  00d54	ff 15 00 00 00
	00		 call	 DWORD PTR __imp_??0?$basic_string@DU?$char_traits@D@std@@V?$allocator@D@2@@std@@QAE@PBD@Z
  00d5a	3b f4		 cmp	 esi, esp
  00d5c	e8 00 00 00 00	 call	 __RTC_CheckEsp
  00d61	c6 45 fc 03	 mov	 BYTE PTR __$EHRec$[ebp+8], 3
  00d65	6a 00		 push	 0
  00d67	6a 01		 push	 1
  00d69	8d 45 9c	 lea	 eax, DWORD PTR $T190432[ebp]
  00d6c	50		 push	 eax
  00d6d	8d 4d 80	 lea	 ecx, DWORD PTR $T190433[ebp]
  00d70	51		 push	 ecx
  00d71	e8 00 00 00 00	 call	 ?AfxGetUserConfig@@YAPAVAfxUserConfig@@XZ ; AfxGetUserConfig
  00d76	8b c8		 mov	 ecx, eax
  00d78	e8 00 00 00 00	 call	 ?SetConfigBoolValue@AfxUserConfig@@QAEXABV?$basic_string@DU?$char_traits@D@std@@V?$allocator@D@2@@std@@0_N1@Z ; AfxUserConfig::SetConfigBoolValue
  00d7d	c6 45 fc 02	 mov	 BYTE PTR __$EHRec$[ebp+8], 2
  00d81	8b f4		 mov	 esi, esp
  00d83	8d 4d 80	 lea	 ecx, DWORD PTR $T190433[ebp]
  00d86	ff 15 00 00 00
	00		 call	 DWORD PTR __imp_??1?$basic_string@DU?$char_traits@D@std@@V?$allocator@D@2@@std@@QAE@XZ
  00d8c	3b f4		 cmp	 esi, esp
  00d8e	e8 00 00 00 00	 call	 __RTC_CheckEsp
  00d93	c7 45 fc ff ff
	ff ff		 mov	 DWORD PTR __$EHRec$[ebp+8], -1
  00d9a	8b f4		 mov	 esi, esp
  00d9c	8d 4d 9c	 lea	 ecx, DWORD PTR $T190432[ebp]
  00d9f	ff 15 00 00 00
	00		 call	 DWORD PTR __imp_??1?$basic_string@DU?$char_traits@D@std@@V?$allocator@D@2@@std@@QAE@XZ
  00da5	3b f4		 cmp	 esi, esp
  00da7	e8 00 00 00 00	 call	 __RTC_CheckEsp

; 132  : 	}else

  00dac	e9 b2 00 00 00	 jmp	 $L189470
$L189467:

; 133  : 	{
; 134  : 		AfxGetMainWindow()->SetWindowPos(&wndNoTopMost,-1,-1,-1,-1, SWP_NOSIZE|SWP_NOMOVE);

  00db1	6a 03		 push	 3
  00db3	6a ff		 push	 -1
  00db5	6a ff		 push	 -1
  00db7	6a ff		 push	 -1
  00db9	6a ff		 push	 -1
  00dbb	8b 15 00 00 00
	00		 mov	 edx, DWORD PTR __imp_?wndNoTopMost@CWnd@@2V1@B
  00dc1	52		 push	 edx
  00dc2	e8 00 00 00 00	 call	 ?AfxGetMainWindow@@YAPAVCWnd@@XZ ; AfxGetMainWindow
  00dc7	8b c8		 mov	 ecx, eax
  00dc9	e8 00 00 00 00	 call	 ?SetWindowPos@CWnd@@QAEHPBV1@HHHHI@Z ; CWnd::SetWindowPos

; 135  : 		AfxGetUserConfig()->SetConfigBoolValue( CONF_APP_MODULE_NAME,CONF_APP_MAINWND_HOLD,false);

  00dce	8b f4		 mov	 esi, esp
  00dd0	a1 00 00 00 00	 mov	 eax, DWORD PTR _CONF_APP_MAINWND_HOLD
  00dd5	50		 push	 eax
  00dd6	8d 8d 64 ff ff
	ff		 lea	 ecx, DWORD PTR $T190434[ebp]
  00ddc	ff 15 00 00 00
	00		 call	 DWORD PTR __imp_??0?$basic_string@DU?$char_traits@D@std@@V?$allocator@D@2@@std@@QAE@PBD@Z
  00de2	3b f4		 cmp	 esi, esp
  00de4	e8 00 00 00 00	 call	 __RTC_CheckEsp
  00de9	c7 45 fc 04 00
	00 00		 mov	 DWORD PTR __$EHRec$[ebp+8], 4
  00df0	8b f4		 mov	 esi, esp
  00df2	8b 0d 00 00 00
	00		 mov	 ecx, DWORD PTR _CONF_APP_MODULE_NAME
  00df8	51		 push	 ecx
  00df9	8d 8d 48 ff ff
	ff		 lea	 ecx, DWORD PTR $T190435[ebp]
  00dff	ff 15 00 00 00
	00		 call	 DWORD PTR __imp_??0?$basic_string@DU?$char_traits@D@std@@V?$allocator@D@2@@std@@QAE@PBD@Z
  00e05	3b f4		 cmp	 esi, esp
  00e07	e8 00 00 00 00	 call	 __RTC_CheckEsp
  00e0c	c6 45 fc 05	 mov	 BYTE PTR __$EHRec$[ebp+8], 5
  00e10	6a 00		 push	 0
  00e12	6a 00		 push	 0
  00e14	8d 95 64 ff ff
	ff		 lea	 edx, DWORD PTR $T190434[ebp]
  00e1a	52		 push	 edx
  00e1b	8d 85 48 ff ff
	ff		 lea	 eax, DWORD PTR $T190435[ebp]
  00e21	50		 push	 eax
  00e22	e8 00 00 00 00	 call	 ?AfxGetUserConfig@@YAPAVAfxUserConfig@@XZ ; AfxGetUserConfig
  00e27	8b c8		 mov	 ecx, eax
  00e29	e8 00 00 00 00	 call	 ?SetConfigBoolValue@AfxUserConfig@@QAEXABV?$basic_string@DU?$char_traits@D@std@@V?$allocator@D@2@@std@@0_N1@Z ; AfxUserConfig::SetConfigBoolValue
  00e2e	c6 45 fc 04	 mov	 BYTE PTR __$EHRec$[ebp+8], 4
  00e32	8b f4		 mov	 esi, esp
  00e34	8d 8d 48 ff ff
	ff		 lea	 ecx, DWORD PTR $T190435[ebp]
  00e3a	ff 15 00 00 00
	00		 call	 DWORD PTR __imp_??1?$basic_string@DU?$char_traits@D@std@@V?$allocator@D@2@@std@@QAE@XZ
  00e40	3b f4		 cmp	 esi, esp
  00e42	e8 00 00 00 00	 call	 __RTC_CheckEsp
  00e47	c7 45 fc ff ff
	ff ff		 mov	 DWORD PTR __$EHRec$[ebp+8], -1
  00e4e	8b f4		 mov	 esi, esp
  00e50	8d 8d 64 ff ff
	ff		 lea	 ecx, DWORD PTR $T190434[ebp]
  00e56	ff 15 00 00 00
	00		 call	 DWORD PTR __imp_??1?$basic_string@DU?$char_traits@D@std@@V?$allocator@D@2@@std@@QAE@XZ
  00e5c	3b f4		 cmp	 esi, esp
  00e5e	e8 00 00 00 00	 call	 __RTC_CheckEsp
$L189470:

; 136  : 	}
; 137  : 	YL_Log("WebGamePanelWnd.txt", LOG_DEBUG, "WebGamePanelWnd::SetMainWindow", "===OUT");

  00e63	8b f4		 mov	 esi, esp
  00e65	68 00 00 00 00	 push	 OFFSET FLAT:$SG189476
  00e6a	8d 8d 2c ff ff
	ff		 lea	 ecx, DWORD PTR $T190436[ebp]
  00e70	ff 15 00 00 00
	00		 call	 DWORD PTR __imp_??0?$basic_string@DU?$char_traits@D@std@@V?$allocator@D@2@@std@@QAE@PBD@Z
  00e76	3b f4		 cmp	 esi, esp
  00e78	e8 00 00 00 00	 call	 __RTC_CheckEsp
  00e7d	c7 45 fc 06 00
	00 00		 mov	 DWORD PTR __$EHRec$[ebp+8], 6
  00e84	8b f4		 mov	 esi, esp
  00e86	68 00 00 00 00	 push	 OFFSET FLAT:$SG189477
  00e8b	8d 8d 10 ff ff
	ff		 lea	 ecx, DWORD PTR $T190437[ebp]
  00e91	ff 15 00 00 00
	00		 call	 DWORD PTR __imp_??0?$basic_string@DU?$char_traits@D@std@@V?$allocator@D@2@@std@@QAE@PBD@Z
  00e97	3b f4		 cmp	 esi, esp
  00e99	e8 00 00 00 00	 call	 __RTC_CheckEsp
  00e9e	c6 45 fc 07	 mov	 BYTE PTR __$EHRec$[ebp+8], 7
  00ea2	8b f4		 mov	 esi, esp
  00ea4	68 00 00 00 00	 push	 OFFSET FLAT:$SG189475
  00ea9	8d 8d 2c ff ff
	ff		 lea	 ecx, DWORD PTR $T190436[ebp]
  00eaf	51		 push	 ecx
  00eb0	6a 00		 push	 0
  00eb2	8d 95 10 ff ff
	ff		 lea	 edx, DWORD PTR $T190437[ebp]
  00eb8	52		 push	 edx
  00eb9	ff 15 00 00 00
	00		 call	 DWORD PTR __imp_?YL_Log@@YAXABV?$basic_string@DU?$char_traits@D@std@@V?$allocator@D@2@@std@@H0PBDZZ
  00ebf	83 c4 10	 add	 esp, 16			; 00000010H
  00ec2	3b f4		 cmp	 esi, esp
  00ec4	e8 00 00 00 00	 call	 __RTC_CheckEsp
  00ec9	c6 45 fc 06	 mov	 BYTE PTR __$EHRec$[ebp+8], 6
  00ecd	8b f4		 mov	 esi, esp
  00ecf	8d 8d 10 ff ff
	ff		 lea	 ecx, DWORD PTR $T190437[ebp]
  00ed5	ff 15 00 00 00
	00		 call	 DWORD PTR __imp_??1?$basic_string@DU?$char_traits@D@std@@V?$allocator@D@2@@std@@QAE@XZ
  00edb	3b f4		 cmp	 esi, esp
  00edd	e8 00 00 00 00	 call	 __RTC_CheckEsp
  00ee2	c7 45 fc ff ff
	ff ff		 mov	 DWORD PTR __$EHRec$[ebp+8], -1
  00ee9	8b f4		 mov	 esi, esp
  00eeb	8d 8d 2c ff ff
	ff		 lea	 ecx, DWORD PTR $T190436[ebp]
  00ef1	ff 15 00 00 00
	00		 call	 DWORD PTR __imp_??1?$basic_string@DU?$char_traits@D@std@@V?$allocator@D@2@@std@@QAE@XZ
  00ef7	3b f4		 cmp	 esi, esp
  00ef9	e8 00 00 00 00	 call	 __RTC_CheckEsp

; 138  : }

  00efe	8b 4d f4	 mov	 ecx, DWORD PTR __$EHRec$[ebp]
  00f01	64 89 0d 00 00
	00 00		 mov	 DWORD PTR fs:__except_list, ecx
  00f08	5f		 pop	 edi
  00f09	5e		 pop	 esi
  00f0a	81 c4 f0 00 00
	00		 add	 esp, 240		; 000000f0H
  00f10	3b ec		 cmp	 ebp, esp
  00f12	e8 00 00 00 00	 call	 __RTC_CheckEsp
  00f17	8b e5		 mov	 esp, ebp
  00f19	5d		 pop	 ebp
  00f1a	c2 04 00	 ret	 4
_TEXT	ENDS
text$x	SEGMENT
$L190438:
  00199	8b f4		 mov	 esi, esp
  0019b	8d 4d d4	 lea	 ecx, DWORD PTR $T190430[ebp]
  0019e	ff 15 00 00 00
	00		 call	 DWORD PTR __imp_??1?$basic_string@DU?$char_traits@D@std@@V?$allocator@D@2@@std@@QAE@XZ
  001a4	3b f4		 cmp	 esi, esp
  001a6	e9 00 00 00 00	 jmp	 __RTC_CheckEsp
$L190439:
  001ab	8b f4		 mov	 esi, esp
  001ad	8d 4d b8	 lea	 ecx, DWORD PTR $T190431[ebp]
  001b0	ff 15 00 00 00
	00		 call	 DWORD PTR __imp_??1?$basic_string@DU?$char_traits@D@std@@V?$allocator@D@2@@std@@QAE@XZ
  001b6	3b f4		 cmp	 esi, esp
  001b8	e9 00 00 00 00	 jmp	 __RTC_CheckEsp
$L190440:
  001bd	8b f4		 mov	 esi, esp
  001bf	8d 4d 9c	 lea	 ecx, DWORD PTR $T190432[ebp]
  001c2	ff 15 00 00 00
	00		 call	 DWORD PTR __imp_??1?$basic_string@DU?$char_traits@D@std@@V?$allocator@D@2@@std@@QAE@XZ
  001c8	3b f4		 cmp	 esi, esp
  001ca	e9 00 00 00 00	 jmp	 __RTC_CheckEsp
$L190441:
  001cf	8b f4		 mov	 esi, esp
  001d1	8d 4d 80	 lea	 ecx, DWORD PTR $T190433[ebp]
  001d4	ff 15 00 00 00
	00		 call	 DWORD PTR __imp_??1?$basic_string@DU?$char_traits@D@std@@V?$allocator@D@2@@std@@QAE@XZ
  001da	3b f4		 cmp	 esi, esp
  001dc	e9 00 00 00 00	 jmp	 __RTC_CheckEsp
$L190442:
  001e1	8b f4		 mov	 esi, esp
  001e3	8d 8d 64 ff ff
	ff		 lea	 ecx, DWORD PTR $T190434[ebp]
  001e9	ff 15 00 00 00
	00		 call	 DWORD PTR __imp_??1?$basic_string@DU?$char_traits@D@std@@V?$allocator@D@2@@std@@QAE@XZ
  001ef	3b f4		 cmp	 esi, esp
  001f1	e9 00 00 00 00	 jmp	 __RTC_CheckEsp
$L190443:
  001f6	8b f4		 mov	 esi, esp
  001f8	8d 8d 48 ff ff
	ff		 lea	 ecx, DWORD PTR $T190435[ebp]
  001fe	ff 15 00 00 00
	00		 call	 DWORD PTR __imp_??1?$basic_string@DU?$char_traits@D@std@@V?$allocator@D@2@@std@@QAE@XZ
  00204	3b f4		 cmp	 esi, esp
  00206	e9 00 00 00 00	 jmp	 __RTC_CheckEsp
$L190444:
  0020b	8b f4		 mov	 esi, esp
  0020d	8d 8d 2c ff ff
	ff		 lea	 ecx, DWORD PTR $T190436[ebp]
  00213	ff 15 00 00 00
	00		 call	 DWORD PTR __imp_??1?$basic_string@DU?$char_traits@D@std@@V?$allocator@D@2@@std@@QAE@XZ
  00219	3b f4		 cmp	 esi, esp
  0021b	e9 00 00 00 00	 jmp	 __RTC_CheckEsp
$L190445:
  00220	8b f4		 mov	 esi, esp
  00222	8d 8d 10 ff ff
	ff		 lea	 ecx, DWORD PTR $T190437[ebp]
  00228	ff 15 00 00 00
	00		 call	 DWORD PTR __imp_??1?$basic_string@DU?$char_traits@D@std@@V?$allocator@D@2@@std@@QAE@XZ
  0022e	3b f4		 cmp	 esi, esp
  00230	e9 00 00 00 00	 jmp	 __RTC_CheckEsp
__ehhandler$?SetMainWindow@WebGamePanelWnd@@QAEX_N@Z:
  00235	b8 00 00 00 00	 mov	 eax, OFFSET FLAT:$T190447
  0023a	e9 00 00 00 00	 jmp	 ___CxxFrameHandler
text$x	ENDS
?SetMainWindow@WebGamePanelWnd@@QAEX_N@Z ENDP		; WebGamePanelWnd::SetMainWindow
EXTRN	?MoveWindow@CWnd@@QAEXPBUtagRECT@@H@Z:NEAR	; CWnd::MoveWindow
xdata$x	SEGMENT
$T190469 DD	0ffffffffH
	DD	FLAT:$L190457
	DD	00H
	DD	FLAT:$L190458
	DD	0ffffffffH
	DD	FLAT:$L190459
	DD	02H
	DD	FLAT:$L190460
	DD	0ffffffffH
	DD	FLAT:$L190461
	DD	04H
	DD	FLAT:$L190462
$T190464 DD	019930520H
	DD	06H
	DD	FLAT:$T190469
	DD	2 DUP(00H)
	DD	2 DUP(00H)
; Function compile flags: /Odt /RTCsu
xdata$x	ENDS
_TEXT	SEGMENT
$T190456 = -204						; size = 28
$T190455 = -176						; size = 28
$T190454 = -148						; size = 28
$T190453 = -120						; size = 28
$T190452 = -92						; size = 28
$T190451 = -64						; size = 28
_bHold$ = -29						; size = 1
_lExStyle$ = -24					; size = 4
_style$ = -20						; size = 4
_this$ = -16						; size = 4
__$EHRec$ = -12						; size = 12
_pWnd$ = 8						; size = 4
?IPanelChangeOb_ExitFullScreen@WebGamePanelWnd@@UAEXPAVCWnd@@@Z PROC NEAR ; WebGamePanelWnd::IPanelChangeOb_ExitFullScreen
; _this$ = ecx

; 141  : {

  00f20	55		 push	 ebp
  00f21	8b ec		 mov	 ebp, esp
  00f23	6a ff		 push	 -1
  00f25	68 00 00 00 00	 push	 __ehhandler$?IPanelChangeOb_ExitFullScreen@WebGamePanelWnd@@UAEXPAVCWnd@@@Z
  00f2a	64 a1 00 00 00
	00		 mov	 eax, DWORD PTR fs:__except_list
  00f30	50		 push	 eax
  00f31	64 89 25 00 00
	00 00		 mov	 DWORD PTR fs:__except_list, esp
  00f38	81 ec c0 00 00
	00		 sub	 esp, 192		; 000000c0H
  00f3e	56		 push	 esi
  00f3f	57		 push	 edi
  00f40	51		 push	 ecx
  00f41	8d bd 34 ff ff
	ff		 lea	 edi, DWORD PTR [ebp-204]
  00f47	b9 30 00 00 00	 mov	 ecx, 48			; 00000030H
  00f4c	b8 cc cc cc cc	 mov	 eax, -858993460		; ccccccccH
  00f51	f3 ab		 rep stosd
  00f53	59		 pop	 ecx
  00f54	89 4d f0	 mov	 DWORD PTR _this$[ebp], ecx

; 142  : 	YL_Log("WebGamePanelWnd.txt", LOG_DEBUG, "WebGamePanelWnd::IPanelChangeOb_ExitFullScreen", "===IN");

  00f57	8b f4		 mov	 esi, esp
  00f59	68 00 00 00 00	 push	 OFFSET FLAT:$SG189485
  00f5e	8d 4d c0	 lea	 ecx, DWORD PTR $T190451[ebp]
  00f61	ff 15 00 00 00
	00		 call	 DWORD PTR __imp_??0?$basic_string@DU?$char_traits@D@std@@V?$allocator@D@2@@std@@QAE@PBD@Z
  00f67	3b f4		 cmp	 esi, esp
  00f69	e8 00 00 00 00	 call	 __RTC_CheckEsp
  00f6e	c7 45 fc 00 00
	00 00		 mov	 DWORD PTR __$EHRec$[ebp+8], 0
  00f75	8b f4		 mov	 esi, esp
  00f77	68 00 00 00 00	 push	 OFFSET FLAT:$SG189486
  00f7c	8d 4d a4	 lea	 ecx, DWORD PTR $T190452[ebp]
  00f7f	ff 15 00 00 00
	00		 call	 DWORD PTR __imp_??0?$basic_string@DU?$char_traits@D@std@@V?$allocator@D@2@@std@@QAE@PBD@Z
  00f85	3b f4		 cmp	 esi, esp
  00f87	e8 00 00 00 00	 call	 __RTC_CheckEsp
  00f8c	c6 45 fc 01	 mov	 BYTE PTR __$EHRec$[ebp+8], 1
  00f90	8b f4		 mov	 esi, esp
  00f92	68 00 00 00 00	 push	 OFFSET FLAT:$SG189484
  00f97	8d 45 c0	 lea	 eax, DWORD PTR $T190451[ebp]
  00f9a	50		 push	 eax
  00f9b	6a 00		 push	 0
  00f9d	8d 4d a4	 lea	 ecx, DWORD PTR $T190452[ebp]
  00fa0	51		 push	 ecx
  00fa1	ff 15 00 00 00
	00		 call	 DWORD PTR __imp_?YL_Log@@YAXABV?$basic_string@DU?$char_traits@D@std@@V?$allocator@D@2@@std@@H0PBDZZ
  00fa7	83 c4 10	 add	 esp, 16			; 00000010H
  00faa	3b f4		 cmp	 esi, esp
  00fac	e8 00 00 00 00	 call	 __RTC_CheckEsp
  00fb1	c6 45 fc 00	 mov	 BYTE PTR __$EHRec$[ebp+8], 0
  00fb5	8b f4		 mov	 esi, esp
  00fb7	8d 4d a4	 lea	 ecx, DWORD PTR $T190452[ebp]
  00fba	ff 15 00 00 00
	00		 call	 DWORD PTR __imp_??1?$basic_string@DU?$char_traits@D@std@@V?$allocator@D@2@@std@@QAE@XZ
  00fc0	3b f4		 cmp	 esi, esp
  00fc2	e8 00 00 00 00	 call	 __RTC_CheckEsp
  00fc7	c7 45 fc ff ff
	ff ff		 mov	 DWORD PTR __$EHRec$[ebp+8], -1
  00fce	8b f4		 mov	 esi, esp
  00fd0	8d 4d c0	 lea	 ecx, DWORD PTR $T190451[ebp]
  00fd3	ff 15 00 00 00
	00		 call	 DWORD PTR __imp_??1?$basic_string@DU?$char_traits@D@std@@V?$allocator@D@2@@std@@QAE@XZ
  00fd9	3b f4		 cmp	 esi, esp
  00fdb	e8 00 00 00 00	 call	 __RTC_CheckEsp

; 143  : 	if( pWnd != this )

  00fe0	8b 55 f0	 mov	 edx, DWORD PTR _this$[ebp]
  00fe3	83 ea 54	 sub	 edx, 84			; 00000054H
  00fe6	39 55 08	 cmp	 DWORD PTR _pWnd$[ebp], edx
  00fe9	74 05		 je	 SHORT $L189487

; 144  : 		return;

  00feb	e9 2f 02 00 00	 jmp	 $L189481
$L189487:

; 145  : 
; 146  : 	m_bFullScreen = false;

  00ff0	8b 45 f0	 mov	 eax, DWORD PTR _this$[ebp]
  00ff3	c6 40 61 00	 mov	 BYTE PTR [eax+97], 0

; 147  : 
; 148  : 	//
; 149  : 	long style = ::GetWindowLong(m_hWnd,GWL_STYLE);

  00ff7	8b f4		 mov	 esi, esp
  00ff9	6a f0		 push	 -16			; fffffff0H
  00ffb	8b 4d f0	 mov	 ecx, DWORD PTR _this$[ebp]
  00ffe	8b 51 cc	 mov	 edx, DWORD PTR [ecx-52]
  01001	52		 push	 edx
  01002	ff 15 00 00 00
	00		 call	 DWORD PTR __imp__GetWindowLongA@8
  01008	3b f4		 cmp	 esi, esp
  0100a	e8 00 00 00 00	 call	 __RTC_CheckEsp
  0100f	89 45 ec	 mov	 DWORD PTR _style$[ebp], eax

; 150  : 	style |= WS_CHILD;

  01012	8b 45 ec	 mov	 eax, DWORD PTR _style$[ebp]
  01015	0d 00 00 00 40	 or	 eax, 1073741824		; 40000000H
  0101a	89 45 ec	 mov	 DWORD PTR _style$[ebp], eax

; 151  : 	//style |= WS_CLIPCHILDREN; //WS_CLIPCHILDRENWebGamePanelWnd
; 152  : 	::SetWindowLong(m_hWnd, GWL_STYLE, style);

  0101d	8b f4		 mov	 esi, esp
  0101f	8b 4d ec	 mov	 ecx, DWORD PTR _style$[ebp]
  01022	51		 push	 ecx
  01023	6a f0		 push	 -16			; fffffff0H
  01025	8b 55 f0	 mov	 edx, DWORD PTR _this$[ebp]
  01028	8b 42 cc	 mov	 eax, DWORD PTR [edx-52]
  0102b	50		 push	 eax
  0102c	ff 15 00 00 00
	00		 call	 DWORD PTR __imp__SetWindowLongA@12
  01032	3b f4		 cmp	 esi, esp
  01034	e8 00 00 00 00	 call	 __RTC_CheckEsp

; 153  : 	
; 154  : 	long lExStyle = ::GetWindowLong(m_hWnd, GWL_EXSTYLE);

  01039	8b f4		 mov	 esi, esp
  0103b	6a ec		 push	 -20			; ffffffecH
  0103d	8b 4d f0	 mov	 ecx, DWORD PTR _this$[ebp]
  01040	8b 51 cc	 mov	 edx, DWORD PTR [ecx-52]
  01043	52		 push	 edx
  01044	ff 15 00 00 00
	00		 call	 DWORD PTR __imp__GetWindowLongA@8
  0104a	3b f4		 cmp	 esi, esp
  0104c	e8 00 00 00 00	 call	 __RTC_CheckEsp
  01051	89 45 e8	 mov	 DWORD PTR _lExStyle$[ebp], eax

; 155  : 	lExStyle |= WS_EX_APPWINDOW; 

  01054	8b 45 e8	 mov	 eax, DWORD PTR _lExStyle$[ebp]
  01057	0d 00 00 04 00	 or	 eax, 262144		; 00040000H
  0105c	89 45 e8	 mov	 DWORD PTR _lExStyle$[ebp], eax

; 156  : 	lExStyle &= ~WS_EX_TOOLWINDOW; 

  0105f	8b 4d e8	 mov	 ecx, DWORD PTR _lExStyle$[ebp]
  01062	81 e1 7f ff ff
	ff		 and	 ecx, -129		; ffffff7fH
  01068	89 4d e8	 mov	 DWORD PTR _lExStyle$[ebp], ecx

; 157  : 	::SetWindowLong(m_hWnd, GWL_EXSTYLE, lExStyle);

  0106b	8b f4		 mov	 esi, esp
  0106d	8b 55 e8	 mov	 edx, DWORD PTR _lExStyle$[ebp]
  01070	52		 push	 edx
  01071	6a ec		 push	 -20			; ffffffecH
  01073	8b 45 f0	 mov	 eax, DWORD PTR _this$[ebp]
  01076	8b 48 cc	 mov	 ecx, DWORD PTR [eax-52]
  01079	51		 push	 ecx
  0107a	ff 15 00 00 00
	00		 call	 DWORD PTR __imp__SetWindowLongA@12
  01080	3b f4		 cmp	 esi, esp
  01082	e8 00 00 00 00	 call	 __RTC_CheckEsp

; 158  : 
; 159  : 	SetParent(m_pWndParent);

  01087	8b 55 f0	 mov	 edx, DWORD PTR _this$[ebp]
  0108a	8b 82 84 00 00
	00		 mov	 eax, DWORD PTR [edx+132]
  01090	50		 push	 eax
  01091	8b 4d f0	 mov	 ecx, DWORD PTR _this$[ebp]
  01094	83 e9 54	 sub	 ecx, 84			; 00000054H
  01097	e8 00 00 00 00	 call	 ?SetParent@CWnd@@QAEPAV1@PAV1@@Z ; CWnd::SetParent

; 160  : 	MoveWindow(&m_rectBeforeFull);

  0109c	6a 01		 push	 1
  0109e	8b 4d f0	 mov	 ecx, DWORD PTR _this$[ebp]
  010a1	83 c1 64	 add	 ecx, 100		; 00000064H
  010a4	51		 push	 ecx
  010a5	8b 4d f0	 mov	 ecx, DWORD PTR _this$[ebp]
  010a8	83 e9 54	 sub	 ecx, 84			; 00000054H
  010ab	e8 00 00 00 00	 call	 ?MoveWindow@CWnd@@QAEXPBUtagRECT@@H@Z ; CWnd::MoveWindow

; 161  : 
; 162  : 	if(m_isMainWindowTopMost)

  010b0	8b 55 f0	 mov	 edx, DWORD PTR _this$[ebp]
  010b3	0f b6 42 60	 movzx	 eax, BYTE PTR [edx+96]
  010b7	85 c0		 test	 eax, eax
  010b9	74 14		 je	 SHORT $L189490

; 163  : 	{
; 164  : 		SetMainWindow(true);

  010bb	6a 01		 push	 1
  010bd	8b 4d f0	 mov	 ecx, DWORD PTR _this$[ebp]
  010c0	83 e9 54	 sub	 ecx, 84			; 00000054H
  010c3	e8 00 00 00 00	 call	 ?SetMainWindow@WebGamePanelWnd@@QAEX_N@Z ; WebGamePanelWnd::SetMainWindow

; 165  : 		m_isMainWindowTopMost = false;

  010c8	8b 4d f0	 mov	 ecx, DWORD PTR _this$[ebp]
  010cb	c6 41 60 00	 mov	 BYTE PTR [ecx+96], 0
$L189490:

; 166  : 	}
; 167  : 
; 168  : 	bool bHold = false;

  010cf	c6 45 e3 00	 mov	 BYTE PTR _bHold$[ebp], 0

; 169  : 	AfxGetUserConfig()->GetConfigBoolValue( CONF_APP_MODULE_NAME,CONF_APP_MAINWND_HOLD,bHold);

  010d3	8b f4		 mov	 esi, esp
  010d5	8b 15 00 00 00
	00		 mov	 edx, DWORD PTR _CONF_APP_MAINWND_HOLD
  010db	52		 push	 edx
  010dc	8d 4d 88	 lea	 ecx, DWORD PTR $T190453[ebp]
  010df	ff 15 00 00 00
	00		 call	 DWORD PTR __imp_??0?$basic_string@DU?$char_traits@D@std@@V?$allocator@D@2@@std@@QAE@PBD@Z
  010e5	3b f4		 cmp	 esi, esp
  010e7	e8 00 00 00 00	 call	 __RTC_CheckEsp
  010ec	c7 45 fc 02 00
	00 00		 mov	 DWORD PTR __$EHRec$[ebp+8], 2
  010f3	8b f4		 mov	 esi, esp
  010f5	a1 00 00 00 00	 mov	 eax, DWORD PTR _CONF_APP_MODULE_NAME
  010fa	50		 push	 eax
  010fb	8d 8d 6c ff ff
	ff		 lea	 ecx, DWORD PTR $T190454[ebp]
  01101	ff 15 00 00 00
	00		 call	 DWORD PTR __imp_??0?$basic_string@DU?$char_traits@D@std@@V?$allocator@D@2@@std@@QAE@PBD@Z
  01107	3b f4		 cmp	 esi, esp
  01109	e8 00 00 00 00	 call	 __RTC_CheckEsp
  0110e	c6 45 fc 03	 mov	 BYTE PTR __$EHRec$[ebp+8], 3
  01112	8d 4d e3	 lea	 ecx, DWORD PTR _bHold$[ebp]
  01115	51		 push	 ecx
  01116	8d 55 88	 lea	 edx, DWORD PTR $T190453[ebp]
  01119	52		 push	 edx
  0111a	8d 85 6c ff ff
	ff		 lea	 eax, DWORD PTR $T190454[ebp]
  01120	50		 push	 eax
  01121	e8 00 00 00 00	 call	 ?AfxGetUserConfig@@YAPAVAfxUserConfig@@XZ ; AfxGetUserConfig
  01126	8b c8		 mov	 ecx, eax
  01128	e8 00 00 00 00	 call	 ?GetConfigBoolValue@AfxUserConfig@@QAEXABV?$basic_string@DU?$char_traits@D@std@@V?$allocator@D@2@@std@@0AA_N@Z ; AfxUserConfig::GetConfigBoolValue
  0112d	c6 45 fc 02	 mov	 BYTE PTR __$EHRec$[ebp+8], 2
  01131	8b f4		 mov	 esi, esp
  01133	8d 8d 6c ff ff
	ff		 lea	 ecx, DWORD PTR $T190454[ebp]
  01139	ff 15 00 00 00
	00		 call	 DWORD PTR __imp_??1?$basic_string@DU?$char_traits@D@std@@V?$allocator@D@2@@std@@QAE@XZ
  0113f	3b f4		 cmp	 esi, esp
  01141	e8 00 00 00 00	 call	 __RTC_CheckEsp
  01146	c7 45 fc ff ff
	ff ff		 mov	 DWORD PTR __$EHRec$[ebp+8], -1
  0114d	8b f4		 mov	 esi, esp
  0114f	8d 4d 88	 lea	 ecx, DWORD PTR $T190453[ebp]
  01152	ff 15 00 00 00
	00		 call	 DWORD PTR __imp_??1?$basic_string@DU?$char_traits@D@std@@V?$allocator@D@2@@std@@QAE@XZ
  01158	3b f4		 cmp	 esi, esp
  0115a	e8 00 00 00 00	 call	 __RTC_CheckEsp

; 170  : 	if( bHold )

  0115f	0f b6 4d e3	 movzx	 ecx, BYTE PTR _bHold$[ebp]
  01163	85 c9		 test	 ecx, ecx
  01165	74 1d		 je	 SHORT $L189494

; 171  : 	{
; 172  : 		AfxGetMainWindow()->SetWindowPos(&wndTopMost,-1,-1,-1,-1, SWP_NOSIZE|SWP_NOMOVE);

  01167	6a 03		 push	 3
  01169	6a ff		 push	 -1
  0116b	6a ff		 push	 -1
  0116d	6a ff		 push	 -1
  0116f	6a ff		 push	 -1
  01171	8b 15 00 00 00
	00		 mov	 edx, DWORD PTR __imp_?wndTopMost@CWnd@@2V1@B
  01177	52		 push	 edx
  01178	e8 00 00 00 00	 call	 ?AfxGetMainWindow@@YAPAVCWnd@@XZ ; AfxGetMainWindow
  0117d	8b c8		 mov	 ecx, eax
  0117f	e8 00 00 00 00	 call	 ?SetWindowPos@CWnd@@QAEHPBV1@HHHHI@Z ; CWnd::SetWindowPos
$L189494:

; 173  : 	}
; 174  : 	YL_Log("WebGamePanelWnd.txt", LOG_DEBUG, "WebGamePanelWnd::IPanelChangeOb_ExitFullScreen", "===OUT");

  01184	8b f4		 mov	 esi, esp
  01186	68 00 00 00 00	 push	 OFFSET FLAT:$SG189498
  0118b	8d 8d 50 ff ff
	ff		 lea	 ecx, DWORD PTR $T190455[ebp]
  01191	ff 15 00 00 00
	00		 call	 DWORD PTR __imp_??0?$basic_string@DU?$char_traits@D@std@@V?$allocator@D@2@@std@@QAE@PBD@Z
  01197	3b f4		 cmp	 esi, esp
  01199	e8 00 00 00 00	 call	 __RTC_CheckEsp
  0119e	c7 45 fc 04 00
	00 00		 mov	 DWORD PTR __$EHRec$[ebp+8], 4
  011a5	8b f4		 mov	 esi, esp
  011a7	68 00 00 00 00	 push	 OFFSET FLAT:$SG189499
  011ac	8d 8d 34 ff ff
	ff		 lea	 ecx, DWORD PTR $T190456[ebp]
  011b2	ff 15 00 00 00
	00		 call	 DWORD PTR __imp_??0?$basic_string@DU?$char_traits@D@std@@V?$allocator@D@2@@std@@QAE@PBD@Z
  011b8	3b f4		 cmp	 esi, esp
  011ba	e8 00 00 00 00	 call	 __RTC_CheckEsp
  011bf	c6 45 fc 05	 mov	 BYTE PTR __$EHRec$[ebp+8], 5
  011c3	8b f4		 mov	 esi, esp
  011c5	68 00 00 00 00	 push	 OFFSET FLAT:$SG189497
  011ca	8d 85 50 ff ff
	ff		 lea	 eax, DWORD PTR $T190455[ebp]
  011d0	50		 push	 eax
  011d1	6a 00		 push	 0
  011d3	8d 8d 34 ff ff
	ff		 lea	 ecx, DWORD PTR $T190456[ebp]
  011d9	51		 push	 ecx
  011da	ff 15 00 00 00
	00		 call	 DWORD PTR __imp_?YL_Log@@YAXABV?$basic_string@DU?$char_traits@D@std@@V?$allocator@D@2@@std@@H0PBDZZ
  011e0	83 c4 10	 add	 esp, 16			; 00000010H
  011e3	3b f4		 cmp	 esi, esp
  011e5	e8 00 00 00 00	 call	 __RTC_CheckEsp
  011ea	c6 45 fc 04	 mov	 BYTE PTR __$EHRec$[ebp+8], 4
  011ee	8b f4		 mov	 esi, esp
  011f0	8d 8d 34 ff ff
	ff		 lea	 ecx, DWORD PTR $T190456[ebp]
  011f6	ff 15 00 00 00
	00		 call	 DWORD PTR __imp_??1?$basic_string@DU?$char_traits@D@std@@V?$allocator@D@2@@std@@QAE@XZ
  011fc	3b f4		 cmp	 esi, esp
  011fe	e8 00 00 00 00	 call	 __RTC_CheckEsp
  01203	c7 45 fc ff ff
	ff ff		 mov	 DWORD PTR __$EHRec$[ebp+8], -1
  0120a	8b f4		 mov	 esi, esp
  0120c	8d 8d 50 ff ff
	ff		 lea	 ecx, DWORD PTR $T190455[ebp]
  01212	ff 15 00 00 00
	00		 call	 DWORD PTR __imp_??1?$basic_string@DU?$char_traits@D@std@@V?$allocator@D@2@@std@@QAE@XZ
  01218	3b f4		 cmp	 esi, esp
  0121a	e8 00 00 00 00	 call	 __RTC_CheckEsp
$L189481:

; 175  : }

  0121f	52		 push	 edx
  01220	8b cd		 mov	 ecx, ebp
  01222	50		 push	 eax
  01223	8d 15 00 00 00
	00		 lea	 edx, DWORD PTR $L190468
  01229	e8 00 00 00 00	 call	 @_RTC_CheckStackVars@8
  0122e	58		 pop	 eax
  0122f	5a		 pop	 edx
  01230	8b 4d f4	 mov	 ecx, DWORD PTR __$EHRec$[ebp]
  01233	64 89 0d 00 00
	00 00		 mov	 DWORD PTR fs:__except_list, ecx
  0123a	5f		 pop	 edi
  0123b	5e		 pop	 esi
  0123c	81 c4 cc 00 00
	00		 add	 esp, 204		; 000000ccH
  01242	3b ec		 cmp	 ebp, esp
  01244	e8 00 00 00 00	 call	 __RTC_CheckEsp
  01249	8b e5		 mov	 esp, ebp
  0124b	5d		 pop	 ebp
  0124c	c2 04 00	 ret	 4
$L190468:
  0124f	01 00 00 00	 DD	 1
  01253	00 00 00 00	 DD	 $L190467
$L190467:
  01257	e3 ff ff ff	 DD	 -29			; ffffffe3H
  0125b	01 00 00 00	 DD	 1
  0125f	00 00 00 00	 DD	 $L190465
$L190465:
  01263	62		 DB	 98			; 00000062H
  01264	48		 DB	 72			; 00000048H
  01265	6f		 DB	 111			; 0000006fH
  01266	6c		 DB	 108			; 0000006cH
  01267	64		 DB	 100			; 00000064H
  01268	00		 DB	 0
_TEXT	ENDS
text$x	SEGMENT
$L190457:
  0023f	8b f4		 mov	 esi, esp
  00241	8d 4d c0	 lea	 ecx, DWORD PTR $T190451[ebp]
  00244	ff 15 00 00 00
	00		 call	 DWORD PTR __imp_??1?$basic_string@DU?$char_traits@D@std@@V?$allocator@D@2@@std@@QAE@XZ
  0024a	3b f4		 cmp	 esi, esp
  0024c	e9 00 00 00 00	 jmp	 __RTC_CheckEsp
$L190458:
  00251	8b f4		 mov	 esi, esp
  00253	8d 4d a4	 lea	 ecx, DWORD PTR $T190452[ebp]
  00256	ff 15 00 00 00
	00		 call	 DWORD PTR __imp_??1?$basic_string@DU?$char_traits@D@std@@V?$allocator@D@2@@std@@QAE@XZ
  0025c	3b f4		 cmp	 esi, esp
  0025e	e9 00 00 00 00	 jmp	 __RTC_CheckEsp
$L190459:
  00263	8b f4		 mov	 esi, esp
  00265	8d 4d 88	 lea	 ecx, DWORD PTR $T190453[ebp]
  00268	ff 15 00 00 00
	00		 call	 DWORD PTR __imp_??1?$basic_string@DU?$char_traits@D@std@@V?$allocator@D@2@@std@@QAE@XZ
  0026e	3b f4		 cmp	 esi, esp
  00270	e9 00 00 00 00	 jmp	 __RTC_CheckEsp
$L190460:
  00275	8b f4		 mov	 esi, esp
  00277	8d 8d 6c ff ff
	ff		 lea	 ecx, DWORD PTR $T190454[ebp]
  0027d	ff 15 00 00 00
	00		 call	 DWORD PTR __imp_??1?$basic_string@DU?$char_traits@D@std@@V?$allocator@D@2@@std@@QAE@XZ
  00283	3b f4		 cmp	 esi, esp
  00285	e9 00 00 00 00	 jmp	 __RTC_CheckEsp
$L190461:
  0028a	8b f4		 mov	 esi, esp
  0028c	8d 8d 50 ff ff
	ff		 lea	 ecx, DWORD PTR $T190455[ebp]
  00292	ff 15 00 00 00
	00		 call	 DWORD PTR __imp_??1?$basic_string@DU?$char_traits@D@std@@V?$allocator@D@2@@std@@QAE@XZ
  00298	3b f4		 cmp	 esi, esp
  0029a	e9 00 00 00 00	 jmp	 __RTC_CheckEsp
$L190462:
  0029f	8b f4		 mov	 esi, esp
  002a1	8d 8d 34 ff ff
	ff		 lea	 ecx, DWORD PTR $T190456[ebp]
  002a7	ff 15 00 00 00
	00		 call	 DWORD PTR __imp_??1?$basic_string@DU?$char_traits@D@std@@V?$allocator@D@2@@std@@QAE@XZ
  002ad	3b f4		 cmp	 esi, esp
  002af	e9 00 00 00 00	 jmp	 __RTC_CheckEsp
__ehhandler$?IPanelChangeOb_ExitFullScreen@WebGamePanelWnd@@UAEXPAVCWnd@@@Z:
  002b4	b8 00 00 00 00	 mov	 eax, OFFSET FLAT:$T190464
  002b9	e9 00 00 00 00	 jmp	 ___CxxFrameHandler
text$x	ENDS
?IPanelChangeOb_ExitFullScreen@WebGamePanelWnd@@UAEXPAVCWnd@@@Z ENDP ; WebGamePanelWnd::IPanelChangeOb_ExitFullScreen
; Function compile flags: /Odt /RTCsu
_TEXT	SEGMENT
_this$ = -4						; size = 4
_pDC$ = 8						; size = 4
?OnEraseBkgnd@WebGamePanelWnd@@IAEHPAVCDC@@@Z PROC NEAR	; WebGamePanelWnd::OnEraseBkgnd
; _this$ = ecx

; 178  : {

  01270	55		 push	 ebp
  01271	8b ec		 mov	 ebp, esp
  01273	51		 push	 ecx
  01274	c7 45 fc cc cc
	cc cc		 mov	 DWORD PTR [ebp-4], -858993460 ; ccccccccH
  0127b	89 4d fc	 mov	 DWORD PTR _this$[ebp], ecx

; 179  : 	return TRUE;

  0127e	b8 01 00 00 00	 mov	 eax, 1

; 180  : }

  01283	8b e5		 mov	 esp, ebp
  01285	5d		 pop	 ebp
  01286	c2 04 00	 ret	 4
?OnEraseBkgnd@WebGamePanelWnd@@IAEHPAVCDC@@@Z ENDP	; WebGamePanelWnd::OnEraseBkgnd
_TEXT	ENDS
PUBLIC	?Recycle@WebGamePanelWnd@@QAEXXZ		; WebGamePanelWnd::Recycle
; Function compile flags: /Odt /RTCsu
_TEXT	SEGMENT
_this$ = -4						; size = 4
?Recycle@WebGamePanelWnd@@QAEXXZ PROC NEAR		; WebGamePanelWnd::Recycle
; _this$ = ecx

; 183  : {

  01290	55		 push	 ebp
  01291	8b ec		 mov	 ebp, esp
  01293	51		 push	 ecx
  01294	c7 45 fc cc cc
	cc cc		 mov	 DWORD PTR [ebp-4], -858993460 ; ccccccccH
  0129b	89 4d fc	 mov	 DWORD PTR _this$[ebp], ecx

; 184  : 	Init();

  0129e	8b 4d fc	 mov	 ecx, DWORD PTR _this$[ebp]
  012a1	e8 00 00 00 00	 call	 ?Init@WebGamePanelWnd@@QAEXXZ ; WebGamePanelWnd::Init

; 185  : }

  012a6	83 c4 04	 add	 esp, 4
  012a9	3b ec		 cmp	 ebp, esp
  012ab	e8 00 00 00 00	 call	 __RTC_CheckEsp
  012b0	8b e5		 mov	 esp, ebp
  012b2	5d		 pop	 ebp
  012b3	c3		 ret	 0
?Recycle@WebGamePanelWnd@@QAEXXZ ENDP			; WebGamePanelWnd::Recycle
; Function compile flags: /Odt /RTCsu
_TEXT	ENDS
;	COMDAT ??_EWebGamePanelWnd@@WFE@AEPAXI@Z
_TEXT	SEGMENT
??_EWebGamePanelWnd@@WFE@AEPAXI@Z PROC NEAR		; [thunk]:WebGamePanelWnd::`vector deleting destructor', COMDAT
  00000	83 e9 54	 sub	 ecx, 84			; 00000054H
  00003	e9 00 00 00 00	 jmp	 ??_EWebGamePanelWnd@@UAEPAXI@Z
??_EWebGamePanelWnd@@WFE@AEPAXI@Z ENDP			; [thunk]:WebGamePanelWnd::`vector deleting destructor'
; Function compile flags: /Odt /RTCsu
; File d:\boxgit\playbox\playbox\dev\prj\playbox\src\core\imessageobserver.h
_TEXT	ENDS
;	COMDAT ??1IMessageObserver@@UAE@XZ
_TEXT	SEGMENT
_this$ = -4						; size = 4
??1IMessageObserver@@UAE@XZ PROC NEAR			; IMessageObserver::~IMessageObserver, COMDAT
; _this$ = ecx

; 16   : 	virtual ~IMessageObserver(){};

  00000	55		 push	 ebp
  00001	8b ec		 mov	 ebp, esp
  00003	51		 push	 ecx
  00004	c7 45 fc cc cc
	cc cc		 mov	 DWORD PTR [ebp-4], -858993460 ; ccccccccH
  0000b	89 4d fc	 mov	 DWORD PTR _this$[ebp], ecx
  0000e	8b 45 fc	 mov	 eax, DWORD PTR _this$[ebp]
  00011	c7 00 00 00 00
	00		 mov	 DWORD PTR [eax], OFFSET FLAT:??_7IMessageObserver@@6B@
  00017	8b e5		 mov	 esp, ebp
  00019	5d		 pop	 ebp
  0001a	c3		 ret	 0
??1IMessageObserver@@UAE@XZ ENDP			; IMessageObserver::~IMessageObserver
; Function compile flags: /Odt /RTCsu
_TEXT	ENDS
;	COMDAT ??_GIMessageObserver@@UAEPAXI@Z
_TEXT	SEGMENT
_this$ = -4						; size = 4
___flags$ = 8						; size = 4
??_GIMessageObserver@@UAEPAXI@Z PROC NEAR		; IMessageObserver::`scalar deleting destructor', COMDAT
; _this$ = ecx
  00000	55		 push	 ebp
  00001	8b ec		 mov	 ebp, esp
  00003	51		 push	 ecx
  00004	c7 45 fc cc cc
	cc cc		 mov	 DWORD PTR [ebp-4], -858993460 ; ccccccccH
  0000b	89 4d fc	 mov	 DWORD PTR _this$[ebp], ecx
  0000e	8b 4d fc	 mov	 ecx, DWORD PTR _this$[ebp]
  00011	e8 00 00 00 00	 call	 ??1IMessageObserver@@UAE@XZ ; IMessageObserver::~IMessageObserver
  00016	8b 45 08	 mov	 eax, DWORD PTR ___flags$[ebp]
  00019	83 e0 01	 and	 eax, 1
  0001c	74 0c		 je	 SHORT $L99513
  0001e	8b 4d fc	 mov	 ecx, DWORD PTR _this$[ebp]
  00021	51		 push	 ecx
  00022	e8 00 00 00 00	 call	 ??3@YAXPAX@Z		; operator delete
  00027	83 c4 04	 add	 esp, 4
$L99513:
  0002a	8b 45 fc	 mov	 eax, DWORD PTR _this$[ebp]
  0002d	83 c4 04	 add	 esp, 4
  00030	3b ec		 cmp	 ebp, esp
  00032	e8 00 00 00 00	 call	 __RTC_CheckEsp
  00037	8b e5		 mov	 esp, ebp
  00039	5d		 pop	 ebp
  0003a	c2 04 00	 ret	 4
??_GIMessageObserver@@UAEPAXI@Z ENDP			; IMessageObserver::`scalar deleting destructor'
_TEXT	ENDS
CRT$XCU	SEGMENT
_$S6	DD	FLAT:_$E5
; Function compile flags: /Odt /RTCsu
; File d:\boxgit\playbox\playbox\dev\prj\playbox\src\appconfig\config\configappdef.h
CRT$XCU	ENDS
;	COMDAT _$E5
text$yc	SEGMENT
_$E5	PROC NEAR					; COMDAT

; 19   : 	CONF_APP_SWF_PATH,			TYPE_CONFIG_STR,

  00000	55		 push	 ebp
  00001	8b ec		 mov	 ebp, esp
  00003	a1 00 00 00 00	 mov	 eax, DWORD PTR _CONF_APP_SWF_PATH
  00008	a3 00 00 00 00	 mov	 DWORD PTR _CONF_APP, eax
  0000d	8b 0d 00 00 00
	00		 mov	 ecx, DWORD PTR _TYPE_CONFIG_STR
  00013	89 0d 04 00 00
	00		 mov	 DWORD PTR _CONF_APP+4, ecx

; 20   : 	CONF_APP_MAINWND_HOLD,		TYPE_CONFIG_BOOL,

  00019	8b 15 00 00 00
	00		 mov	 edx, DWORD PTR _CONF_APP_MAINWND_HOLD
  0001f	89 15 08 00 00
	00		 mov	 DWORD PTR _CONF_APP+8, edx
  00025	a1 00 00 00 00	 mov	 eax, DWORD PTR _TYPE_CONFIG_BOOL
  0002a	a3 0c 00 00 00	 mov	 DWORD PTR _CONF_APP+12, eax

; 21   : 	CONF_APP_RUN_COUNT,			TYPE_CONFIG_INT,

  0002f	8b 0d 00 00 00
	00		 mov	 ecx, DWORD PTR _CONF_APP_RUN_COUNT
  00035	89 0d 10 00 00
	00		 mov	 DWORD PTR _CONF_APP+16, ecx
  0003b	8b 15 00 00 00
	00		 mov	 edx, DWORD PTR _TYPE_CONFIG_INT
  00041	89 15 14 00 00
	00		 mov	 DWORD PTR _CONF_APP+20, edx

; 22   : 	CONF_APP_PLAYED_GAME,		TYPE_CONFIG_INT,

  00047	a1 00 00 00 00	 mov	 eax, DWORD PTR _CONF_APP_PLAYED_GAME
  0004c	a3 18 00 00 00	 mov	 DWORD PTR _CONF_APP+24, eax
  00051	8b 0d 00 00 00
	00		 mov	 ecx, DWORD PTR _TYPE_CONFIG_INT
  00057	89 0d 1c 00 00
	00		 mov	 DWORD PTR _CONF_APP+28, ecx

; 23   : 	CONF_APP_PLAYED_PC_GAME,	TYPE_CONFIG_INT,

  0005d	8b 15 00 00 00
	00		 mov	 edx, DWORD PTR _CONF_APP_PLAYED_PC_GAME
  00063	89 15 20 00 00
	00		 mov	 DWORD PTR _CONF_APP+32, edx
  00069	a1 00 00 00 00	 mov	 eax, DWORD PTR _TYPE_CONFIG_INT
  0006e	a3 24 00 00 00	 mov	 DWORD PTR _CONF_APP+36, eax

; 24   : 	CONF_APP_PLAYED_ICON_SIZE,	TYPE_CONFIG_INT, //panelicon0,1,2

  00073	8b 0d 00 00 00
	00		 mov	 ecx, DWORD PTR _CONF_APP_PLAYED_ICON_SIZE
  00079	89 0d 28 00 00
	00		 mov	 DWORD PTR _CONF_APP+40, ecx
  0007f	8b 15 00 00 00
	00		 mov	 edx, DWORD PTR _TYPE_CONFIG_INT
  00085	89 15 2c 00 00
	00		 mov	 DWORD PTR _CONF_APP+44, edx

; 25   : 	CONF_APP_PIC_SAVE_PATH,		TYPE_CONFIG_STR

  0008b	a1 00 00 00 00	 mov	 eax, DWORD PTR _CONF_APP_PIC_SAVE_PATH
  00090	a3 30 00 00 00	 mov	 DWORD PTR _CONF_APP+48, eax

; 26   : };

  00095	8b 0d 00 00 00
	00		 mov	 ecx, DWORD PTR _TYPE_CONFIG_STR
  0009b	89 0d 34 00 00
	00		 mov	 DWORD PTR _CONF_APP+52, ecx
  000a1	5d		 pop	 ebp
  000a2	c3		 ret	 0
_$E5	ENDP
text$yc	ENDS
_BSS	SEGMENT
_CONF_APP DD	0eH DUP (?)
_BSS	ENDS
END
