; Listing generated by Microsoft (R) Optimizing Compiler Version 13.10.3077 

	TITLE	.\src\module\WebInteract\WebManager.cpp
	.386P
include listing.inc
if @Version gt 510
.model FLAT
else
_TEXT	SEGMENT PARA USE32 PUBLIC 'CODE'
_TEXT	ENDS
_DATA	SEGMENT DWORD USE32 PUBLIC 'DATA'
_DATA	ENDS
CONST	SEGMENT DWORD USE32 PUBLIC 'CONST'
CONST	ENDS
_BSS	SEGMENT DWORD USE32 PUBLIC 'BSS'
_BSS	ENDS
$$SYMBOLS	SEGMENT BYTE USE32 'DEBSYM'
$$SYMBOLS	ENDS
_TLS	SEGMENT DWORD USE32 PUBLIC 'TLS'
_TLS	ENDS
;	COMDAT ??_C@_0P@CLMBAKJD@JSCall?5Error?3?6?$AA@
CONST	SEGMENT DWORD USE32 PUBLIC 'CONST'
CONST	ENDS
;	COMDAT ??_C@_0P@MDHCGOCC@m_pMemMgr?5?$DN?$DN?50?$AA@
CONST	SEGMENT DWORD USE32 PUBLIC 'CONST'
CONST	ENDS
;	COMDAT ??_C@_0FF@PEBLHPJJ@D?3?2Program?5Files?5?$CIx86?$CJ?2Microsoft@
CONST	SEGMENT DWORD USE32 PUBLIC 'CONST'
CONST	ENDS
;	COMDAT ??_C@_0BK@KICONMKH@pData?9?$DOpStringMgr?5?$DN?$DN?5this?$AA@
CONST	SEGMENT DWORD USE32 PUBLIC 'CONST'
CONST	ENDS
;	COMDAT ??_C@_0CG@HPMMCKHL@?$CI?$CIWORD?$CJ?$CI?$CIDWORD_PTR?$CJ?$CIpsz?$CJ?5?$DO?$DO?516?$CJ?$CJ@
CONST	SEGMENT DWORD USE32 PUBLIC 'CONST'
CONST	ENDS
;	COMDAT ??_C@_0BI@GIMJKKKN@AtlIsValidString?$CI?5psz?5?$CJ?$AA@
CONST	SEGMENT DWORD USE32 PUBLIC 'CONST'
CONST	ENDS
;	COMDAT ??_C@_0M@GOJCFFEC@iStart?5?$DO?$DN?50?$AA@
CONST	SEGMENT DWORD USE32 PUBLIC 'CONST'
CONST	ENDS
;	COMDAT ??_C@_0DC@KJIHKHDE@?$CInCount?5?$DN?$DN?50?$CJ?5?$HM?$HM?5?$CI?$CIiFirst?$CLnCount@
CONST	SEGMENT DWORD USE32 PUBLIC 'CONST'
CONST	ENDS
;	COMDAT ??_C@_0EN@IBFBLEEG@D?3?2Program?5Files?5?$CIx86?$CJ?2Microsoft@
CONST	SEGMENT DWORD USE32 PUBLIC 'CONST'
CONST	ENDS
;	COMDAT ??_C@_0BD@OLBABOEK@vector?$DMT?$DO?5too?5long?$AA@
CONST	SEGMENT DWORD USE32 PUBLIC 'CONST'
CONST	ENDS
rdata$r	SEGMENT DWORD USE32 PUBLIC 'CONST'
rdata$r	ENDS
xdata$x	SEGMENT DWORD USE32 PUBLIC 'CONST'
xdata$x	ENDS
text$AFX_COL1	SEGMENT PARA USE32 PUBLIC ''
text$AFX_COL1	ENDS
text$yc	SEGMENT PARA USE32 PUBLIC 'CODE'
text$yc	ENDS
CRT$XCA	SEGMENT DWORD USE32 PUBLIC 'DATA'
CRT$XCA	ENDS
CRT$XCU	SEGMENT DWORD USE32 PUBLIC 'DATA'
CRT$XCU	ENDS
CRT$XCL	SEGMENT DWORD USE32 PUBLIC 'DATA'
CRT$XCL	ENDS
CRT$XCC	SEGMENT DWORD USE32 PUBLIC 'DATA'
CRT$XCC	ENDS
CRT$XCZ	SEGMENT DWORD USE32 PUBLIC 'DATA'
CRT$XCZ	ENDS
text$yd	SEGMENT PARA USE32 PUBLIC 'CODE'
text$yd	ENDS
ATL$__m	SEGMENT DWORD USE32 PUBLIC ''
ATL$__m	ENDS
ATL$__z	SEGMENT DWORD USE32 PUBLIC ''
ATL$__z	ENDS
ATL$__a	SEGMENT DWORD USE32 PUBLIC ''
ATL$__a	ENDS
;	COMDAT ??1CAtlStringMgr@ATL@@UAE@XZ
_TEXT	SEGMENT PARA USE32 PUBLIC 'CODE'
_TEXT	ENDS
;	COMDAT ?Allocate@CAtlStringMgr@ATL@@UAEPAUCStringData@2@HH@Z
_TEXT	SEGMENT PARA USE32 PUBLIC 'CODE'
_TEXT	ENDS
;	COMDAT ?Free@CAtlStringMgr@ATL@@UAEXPAUCStringData@2@@Z
_TEXT	SEGMENT PARA USE32 PUBLIC 'CODE'
_TEXT	ENDS
;	COMDAT ?Reallocate@CAtlStringMgr@ATL@@UAEPAUCStringData@2@PAU32@HH@Z
_TEXT	SEGMENT PARA USE32 PUBLIC 'CODE'
_TEXT	ENDS
;	COMDAT ?GetNilString@CAtlStringMgr@ATL@@UAEPAUCStringData@2@XZ
_TEXT	SEGMENT PARA USE32 PUBLIC 'CODE'
_TEXT	ENDS
;	COMDAT ?Clone@CAtlStringMgr@ATL@@UAEPAUIAtlStringMgr@2@XZ
_TEXT	SEGMENT PARA USE32 PUBLIC 'CODE'
_TEXT	ENDS
;	COMDAT ??_GCAtlStringMgr@ATL@@UAEPAXI@Z
_TEXT	SEGMENT PARA USE32 PUBLIC 'CODE'
_TEXT	ENDS
;	COMDAT ?CompareStringW@?$ChTraitsOS@_W@ATL@@KGHKKPB_WH0H@Z
_TEXT	SEGMENT PARA USE32 PUBLIC 'CODE'
_TEXT	ENDS
;	COMDAT ?GetStringTypeExW@?$ChTraitsOS@_W@ATL@@KGHKKPB_WHPAG@Z
_TEXT	SEGMENT PARA USE32 PUBLIC 'CODE'
_TEXT	ENDS
;	COMDAT ?lstrcmpiW@?$ChTraitsOS@_W@ATL@@KGHPB_W0@Z
_TEXT	SEGMENT PARA USE32 PUBLIC 'CODE'
_TEXT	ENDS
;	COMDAT ?CharLowerW@?$ChTraitsOS@_W@ATL@@KGPA_WPA_W@Z
_TEXT	SEGMENT PARA USE32 PUBLIC 'CODE'
_TEXT	ENDS
;	COMDAT ?CharUpperW@?$ChTraitsOS@_W@ATL@@KGPA_WPA_W@Z
_TEXT	SEGMENT PARA USE32 PUBLIC 'CODE'
_TEXT	ENDS
;	COMDAT ?strchr@?$ChTraitsOS@_W@ATL@@SAPB_WPB_W_W@Z
_TEXT	SEGMENT PARA USE32 PUBLIC 'CODE'
_TEXT	ENDS
;	COMDAT ?strrchr@?$ChTraitsOS@_W@ATL@@SAPB_WPB_W_W@Z
_TEXT	SEGMENT PARA USE32 PUBLIC 'CODE'
_TEXT	ENDS
;	COMDAT ?_strrev@?$ChTraitsOS@_W@ATL@@SAPA_WPA_W@Z
_TEXT	SEGMENT PARA USE32 PUBLIC 'CODE'
_TEXT	ENDS
;	COMDAT ?strstr@?$ChTraitsOS@_W@ATL@@SAPB_WPB_W0@Z
_TEXT	SEGMENT PARA USE32 PUBLIC 'CODE'
_TEXT	ENDS
;	COMDAT ?strspn@?$ChTraitsOS@_W@ATL@@SAHPB_W0@Z
_TEXT	SEGMENT PARA USE32 PUBLIC 'CODE'
_TEXT	ENDS
;	COMDAT ?strcspn@?$ChTraitsOS@_W@ATL@@SAHPB_W0@Z
_TEXT	SEGMENT PARA USE32 PUBLIC 'CODE'
_TEXT	ENDS
;	COMDAT ?strpbrk@?$ChTraitsOS@_W@ATL@@SAPB_WPB_W0@Z
_TEXT	SEGMENT PARA USE32 PUBLIC 'CODE'
_TEXT	ENDS
;	COMDAT ?StringFindString@?$ChTraitsOS@_W@ATL@@SAPB_WPB_W0@Z
_TEXT	SEGMENT PARA USE32 PUBLIC 'CODE'
_TEXT	ENDS
;	COMDAT ??1IData@@MAE@XZ
_TEXT	SEGMENT PARA USE32 PUBLIC 'CODE'
_TEXT	ENDS
;	COMDAT ?DataAppStart@IData@@UAEXXZ
_TEXT	SEGMENT PARA USE32 PUBLIC 'CODE'
_TEXT	ENDS
;	COMDAT ?DataAppExit@IData@@UAEXXZ
_TEXT	SEGMENT PARA USE32 PUBLIC 'CODE'
_TEXT	ENDS
;	COMDAT ??_GIData@@MAEPAXI@Z
_TEXT	SEGMENT PARA USE32 PUBLIC 'CODE'
_TEXT	ENDS
;	COMDAT ??0OneLocalGame@@QAE@XZ
_TEXT	SEGMENT PARA USE32 PUBLIC 'CODE'
_TEXT	ENDS
;	COMDAT ?clear@OneLocalGame@@QAEXXZ
_TEXT	SEGMENT PARA USE32 PUBLIC 'CODE'
_TEXT	ENDS
;	COMDAT ?GetClsid@CShockwaveFlash@@QAEABU_GUID@@XZ
_TEXT	SEGMENT PARA USE32 PUBLIC 'CODE'
_TEXT	ENDS
;	COMDAT ??0CCustomControlSite@@QAE@PAVCOleControlContainer@@@Z
_TEXT	SEGMENT PARA USE32 PUBLIC 'CODE'
_TEXT	ENDS
;	COMDAT ??_GCCustomControlSite@@UAEPAXI@Z
_TEXT	SEGMENT PARA USE32 PUBLIC 'CODE'
_TEXT	ENDS
;	COMDAT ??0XDocHostShowUI@CCustomControlSite@@QAE@XZ
_TEXT	SEGMENT PARA USE32 PUBLIC 'CODE'
_TEXT	ENDS
;	COMDAT ??0XDocHostUIHandler@CCustomControlSite@@QAE@XZ
_TEXT	SEGMENT PARA USE32 PUBLIC 'CODE'
_TEXT	ENDS
;	COMDAT ??1CCustomControlSite@@UAE@XZ
_TEXT	SEGMENT PARA USE32 PUBLIC 'CODE'
_TEXT	ENDS
;	COMDAT ??0IDocHostShowUI@@QAE@XZ
_TEXT	SEGMENT PARA USE32 PUBLIC 'CODE'
_TEXT	ENDS
;	COMDAT ??0IDocHostUIHandler@@QAE@XZ
_TEXT	SEGMENT PARA USE32 PUBLIC 'CODE'
_TEXT	ENDS
;	COMDAT ?CreateSite@CCustomOccManager@@UAEPAVCOleControlSite@@PAVCOleControlContainer@@@Z
_TEXT	SEGMENT PARA USE32 PUBLIC 'CODE'
_TEXT	ENDS
;	COMDAT ??_GCCustomOccManager@@UAEPAXI@Z
_TEXT	SEGMENT PARA USE32 PUBLIC 'CODE'
_TEXT	ENDS
;	COMDAT ??0COccManager@@QAE@XZ
_TEXT	SEGMENT PARA USE32 PUBLIC 'CODE'
_TEXT	ENDS
;	COMDAT ??1COccManager@@UAE@XZ
_TEXT	SEGMENT PARA USE32 PUBLIC 'CODE'
_TEXT	ENDS
;	COMDAT ??1CCustomOccManager@@UAE@XZ
_TEXT	SEGMENT PARA USE32 PUBLIC 'CODE'
_TEXT	ENDS
;	COMDAT ??_GCOccManager@@UAEPAXI@Z
_TEXT	SEGMENT PARA USE32 PUBLIC 'CODE'
_TEXT	ENDS
;	COMDAT ??0CNoTrackObject@@QAE@XZ
_TEXT	SEGMENT PARA USE32 PUBLIC 'CODE'
_TEXT	ENDS
;	COMDAT _$E5
text$yc	SEGMENT PARA USE32 PUBLIC 'CODE'
text$yc	ENDS
;	COMDAT _$E7
text$yc	SEGMENT PARA USE32 PUBLIC 'CODE'
text$yc	ENDS
;	COMDAT ??_GCWebManager@@QAEPAXI@Z
_TEXT	SEGMENT PARA USE32 PUBLIC 'CODE'
_TEXT	ENDS
;	COMDAT ??0TAB_ITEM@@QAE@XZ
_TEXT	SEGMENT PARA USE32 PUBLIC 'CODE'
_TEXT	ENDS
;	COMDAT ??1TAB_ITEM@@QAE@XZ
_TEXT	SEGMENT PARA USE32 PUBLIC 'CODE'
_TEXT	ENDS
;	COMDAT ??1OneLocalGame@@QAE@XZ
_TEXT	SEGMENT PARA USE32 PUBLIC 'CODE'
_TEXT	ENDS
;	COMDAT ??0CallJSParam@@QAE@XZ
_TEXT	SEGMENT PARA USE32 PUBLIC 'CODE'
_TEXT	ENDS
;	COMDAT ??_GCallJSParam@@QAEPAXI@Z
_TEXT	SEGMENT PARA USE32 PUBLIC 'CODE'
_TEXT	ENDS
;	COMDAT ??1CallJSParam@@QAE@XZ
_TEXT	SEGMENT PARA USE32 PUBLIC 'CODE'
_TEXT	ENDS
;	COMDAT ??HATL@@YA?AV?$CStringT@DV?$StrTraitMFC_DLL@DV?$ChTraitsCRT@D@ATL@@@@@0@PBDABV10@@Z
_TEXT	SEGMENT PARA USE32 PUBLIC 'CODE'
_TEXT	ENDS
;	COMDAT ??8ATL@@YA_NABV?$CStringT@DV?$StrTraitMFC_DLL@DV?$ChTraitsCRT@D@ATL@@@@@0@PBD@Z
_TEXT	SEGMENT PARA USE32 PUBLIC 'CODE'
_TEXT	ENDS
;	COMDAT ??9ATL@@YA_NABV?$CStringT@DV?$StrTraitMFC_DLL@DV?$ChTraitsCRT@D@ATL@@@@@0@PBD@Z
_TEXT	SEGMENT PARA USE32 PUBLIC 'CODE'
_TEXT	ENDS
;	COMDAT ??B?$CComPtrBase@UITypeInfo2@@@ATL@@QBEPAUITypeInfo2@@XZ
_TEXT	SEGMENT PARA USE32 PUBLIC 'CODE'
_TEXT	ENDS
;	COMDAT ??B?$CComPtrBase@UIHTMLDocument2@@@ATL@@QBEPAUIHTMLDocument2@@XZ
_TEXT	SEGMENT PARA USE32 PUBLIC 'CODE'
_TEXT	ENDS
;	COMDAT ?equal@?$istreambuf_iterator@DU?$char_traits@D@std@@@std@@QBE_NABV12@@Z
_TEXT	SEGMENT PARA USE32 PUBLIC 'CODE'
_TEXT	ENDS
;	COMDAT ?equal@?$istreambuf_iterator@_WU?$char_traits@_W@std@@@std@@QBE_NABV12@@Z
_TEXT	SEGMENT PARA USE32 PUBLIC 'CODE'
_TEXT	ENDS
;	COMDAT ??0?$vector@UTAB_ITEM@@V?$allocator@UTAB_ITEM@@@std@@@std@@QAE@XZ
_TEXT	SEGMENT PARA USE32 PUBLIC 'CODE'
_TEXT	ENDS
;	COMDAT ??1?$vector@UTAB_ITEM@@V?$allocator@UTAB_ITEM@@@std@@@std@@QAE@XZ
_TEXT	SEGMENT PARA USE32 PUBLIC 'CODE'
_TEXT	ENDS
;	COMDAT ??0?$list@PAVIMessageObserver@@V?$allocator@PAVIMessageObserver@@@std@@@std@@QAE@XZ
_TEXT	SEGMENT PARA USE32 PUBLIC 'CODE'
_TEXT	ENDS
;	COMDAT ??1?$list@PAVIMessageObserver@@V?$allocator@PAVIMessageObserver@@@std@@@std@@QAE@XZ
_TEXT	SEGMENT PARA USE32 PUBLIC 'CODE'
_TEXT	ENDS
;	COMDAT ?begin@?$list@PAVIMessageObserver@@V?$allocator@PAVIMessageObserver@@@std@@@std@@QAE?AViterator@12@XZ
_TEXT	SEGMENT PARA USE32 PUBLIC 'CODE'
_TEXT	ENDS
;	COMDAT ?end@?$list@PAVIMessageObserver@@V?$allocator@PAVIMessageObserver@@@std@@@std@@QAE?AViterator@12@XZ
_TEXT	SEGMENT PARA USE32 PUBLIC 'CODE'
_TEXT	ENDS
;	COMDAT ??Diterator@?$list@PAVIMessageObserver@@V?$allocator@PAVIMessageObserver@@@std@@@std@@QBEAAPAVIMessageObserver@@XZ
_TEXT	SEGMENT PARA USE32 PUBLIC 'CODE'
_TEXT	ENDS
;	COMDAT ??Eiterator@?$list@PAVIMessageObserver@@V?$allocator@PAVIMessageObserver@@@std@@@std@@QAE?AV012@H@Z
_TEXT	SEGMENT PARA USE32 PUBLIC 'CODE'
_TEXT	ENDS
;	COMDAT ??9const_iterator@?$list@PAVIMessageObserver@@V?$allocator@PAVIMessageObserver@@@std@@@std@@QBE_NABV012@@Z
_TEXT	SEGMENT PARA USE32 PUBLIC 'CODE'
_TEXT	ENDS
;	COMDAT ?StringCompare@?$ChTraitsCRT@D@ATL@@SAHPBD0@Z
_TEXT	SEGMENT PARA USE32 PUBLIC 'CODE'
_TEXT	ENDS
;	COMDAT ?StringFindChar@?$ChTraitsCRT@D@ATL@@SAPBDPBDD@Z
_TEXT	SEGMENT PARA USE32 PUBLIC 'CODE'
_TEXT	ENDS
;	COMDAT ?StringSpanIncluding@?$ChTraitsCRT@D@ATL@@SAHPBD0@Z
_TEXT	SEGMENT PARA USE32 PUBLIC 'CODE'
_TEXT	ENDS
;	COMDAT ?StringSpanExcluding@?$ChTraitsCRT@D@ATL@@SAHPBD0@Z
_TEXT	SEGMENT PARA USE32 PUBLIC 'CODE'
_TEXT	ENDS
;	COMDAT ?StringLowercase@?$ChTraitsCRT@D@ATL@@SAPADPAD@Z
_TEXT	SEGMENT PARA USE32 PUBLIC 'CODE'
_TEXT	ENDS
;	COMDAT ?_Buy@?$vector@UTAB_ITEM@@V?$allocator@UTAB_ITEM@@@std@@@std@@IAE_NI@Z
_TEXT	SEGMENT PARA USE32 PUBLIC 'CODE'
_TEXT	ENDS
;	COMDAT ?_Tidy@?$vector@UTAB_ITEM@@V?$allocator@UTAB_ITEM@@@std@@@std@@IAEXXZ
_TEXT	SEGMENT PARA USE32 PUBLIC 'CODE'
_TEXT	ENDS
;	COMDAT ??0?$_Vector_val@UTAB_ITEM@@V?$allocator@UTAB_ITEM@@@std@@@std@@IAE@V?$allocator@UTAB_ITEM@@@1@@Z
_TEXT	SEGMENT PARA USE32 PUBLIC 'CODE'
_TEXT	ENDS
;	COMDAT ??0?$allocator@UTAB_ITEM@@@std@@QAE@XZ
_TEXT	SEGMENT PARA USE32 PUBLIC 'CODE'
_TEXT	ENDS
;	COMDAT ?_Nextnode@?$list@PAVIMessageObserver@@V?$allocator@PAVIMessageObserver@@@std@@@std@@KAAAPAU_Node@?$_List_nod@PAVIMessageObserver@@V?$allocator@PAVIMessageObserver@@@std@@@2@PAU342@@Z
_TEXT	SEGMENT PARA USE32 PUBLIC 'CODE'
_TEXT	ENDS
;	COMDAT ?_Buynode@?$list@PAVIMessageObserver@@V?$allocator@PAVIMessageObserver@@@std@@@std@@IAEPAU_Node@?$_List_nod@PAVIMessageObserver@@V?$allocator@PAVIMessageObserver@@@std@@@2@XZ
_TEXT	SEGMENT PARA USE32 PUBLIC 'CODE'
_TEXT	ENDS
;	COMDAT ?_Tidy@?$list@PAVIMessageObserver@@V?$allocator@PAVIMessageObserver@@@std@@@std@@IAEXXZ
_TEXT	SEGMENT PARA USE32 PUBLIC 'CODE'
_TEXT	ENDS
;	COMDAT ??0?$_List_val@PAVIMessageObserver@@V?$allocator@PAVIMessageObserver@@@std@@@std@@IAE@V?$allocator@PAVIMessageObserver@@@1@@Z
_TEXT	SEGMENT PARA USE32 PUBLIC 'CODE'
_TEXT	ENDS
;	COMDAT ??0?$allocator@PAVIMessageObserver@@@std@@QAE@XZ
_TEXT	SEGMENT PARA USE32 PUBLIC 'CODE'
_TEXT	ENDS
;	COMDAT ??0iterator@?$list@PAVIMessageObserver@@V?$allocator@PAVIMessageObserver@@@std@@@std@@QAE@PAU_Node@?$_List_nod@PAVIMessageObserver@@V?$allocator@PAVIMessageObserver@@@std@@@2@@Z
_TEXT	SEGMENT PARA USE32 PUBLIC 'CODE'
_TEXT	ENDS
;	COMDAT ??Eiterator@?$list@PAVIMessageObserver@@V?$allocator@PAVIMessageObserver@@@std@@@std@@QAEAAV012@XZ
_TEXT	SEGMENT PARA USE32 PUBLIC 'CODE'
_TEXT	ENDS
;	COMDAT ??Dconst_iterator@?$list@PAVIMessageObserver@@V?$allocator@PAVIMessageObserver@@@std@@@std@@QBEABQAVIMessageObserver@@XZ
_TEXT	SEGMENT PARA USE32 PUBLIC 'CODE'
_TEXT	ENDS
;	COMDAT ??8const_iterator@?$list@PAVIMessageObserver@@V?$allocator@PAVIMessageObserver@@@std@@@std@@QBE_NABV012@@Z
_TEXT	SEGMENT PARA USE32 PUBLIC 'CODE'
_TEXT	ENDS
;	COMDAT ??0iterator@?$basic_string@DU?$char_traits@D@std@@V?$allocator@D@2@@std@@QAE@PAD@Z
_TEXT	SEGMENT PARA USE32 PUBLIC 'CODE'
_TEXT	ENDS
;	COMDAT ?max_size@?$vector@UTAB_ITEM@@V?$allocator@UTAB_ITEM@@@std@@@std@@QBEIXZ
_TEXT	SEGMENT PARA USE32 PUBLIC 'CODE'
_TEXT	ENDS
;	COMDAT ?_Destroy@?$vector@UTAB_ITEM@@V?$allocator@UTAB_ITEM@@@std@@@std@@IAEXPAUTAB_ITEM@@0@Z
_TEXT	SEGMENT PARA USE32 PUBLIC 'CODE'
_TEXT	ENDS
;	COMDAT ?_Xlen@?$vector@UTAB_ITEM@@V?$allocator@UTAB_ITEM@@@std@@@std@@IBEXXZ
_TEXT	SEGMENT PARA USE32 PUBLIC 'CODE'
_TEXT	ENDS
;	COMDAT ??0?$allocator@UTAB_ITEM@@@std@@QAE@ABV01@@Z
_TEXT	SEGMENT PARA USE32 PUBLIC 'CODE'
_TEXT	ENDS
;	COMDAT ?deallocate@?$allocator@UTAB_ITEM@@@std@@QAEXPAUTAB_ITEM@@I@Z
_TEXT	SEGMENT PARA USE32 PUBLIC 'CODE'
_TEXT	ENDS
;	COMDAT ?allocate@?$allocator@UTAB_ITEM@@@std@@QAEPAUTAB_ITEM@@I@Z
_TEXT	SEGMENT PARA USE32 PUBLIC 'CODE'
_TEXT	ENDS
;	COMDAT ?_Prevnode@?$list@PAVIMessageObserver@@V?$allocator@PAVIMessageObserver@@@std@@@std@@KAAAPAU_Node@?$_List_nod@PAVIMessageObserver@@V?$allocator@PAVIMessageObserver@@@std@@@2@PAU342@@Z
_TEXT	SEGMENT PARA USE32 PUBLIC 'CODE'
_TEXT	ENDS
;	COMDAT ?_Myval@?$list@PAVIMessageObserver@@V?$allocator@PAVIMessageObserver@@@std@@@std@@KAAAPAVIMessageObserver@@PAU_Node@?$_List_nod@PAVIMessageObserver@@V?$allocator@PAVIMessageObserver@@@std@@@2@@Z
_TEXT	SEGMENT PARA USE32 PUBLIC 'CODE'
_TEXT	ENDS
;	COMDAT ?clear@?$list@PAVIMessageObserver@@V?$allocator@PAVIMessageObserver@@@std@@@std@@QAEXXZ
_TEXT	SEGMENT PARA USE32 PUBLIC 'CODE'
_TEXT	ENDS
;	COMDAT ??0?$_List_ptr@PAVIMessageObserver@@V?$allocator@PAVIMessageObserver@@@std@@@std@@IAE@V?$allocator@PAVIMessageObserver@@@1@@Z
_TEXT	SEGMENT PARA USE32 PUBLIC 'CODE'
_TEXT	ENDS
;	COMDAT ??0?$allocator@PAVIMessageObserver@@@std@@QAE@ABV01@@Z
_TEXT	SEGMENT PARA USE32 PUBLIC 'CODE'
_TEXT	ENDS
;	COMDAT ?deallocate@?$allocator@U_Node@?$_List_nod@PAVIMessageObserver@@V?$allocator@PAVIMessageObserver@@@std@@@std@@@std@@QAEXPAU_Node@?$_List_nod@PAVIMessageObserver@@V?$allocator@PAVIMessageObserver@@@std@@@2@I@Z
_TEXT	SEGMENT PARA USE32 PUBLIC 'CODE'
_TEXT	ENDS
;	COMDAT ?allocate@?$allocator@U_Node@?$_List_nod@PAVIMessageObserver@@V?$allocator@PAVIMessageObserver@@@std@@@std@@@std@@QAEPAU_Node@?$_List_nod@PAVIMessageObserver@@V?$allocator@PAVIMessageObserver@@@std@@@2@I@Z
_TEXT	SEGMENT PARA USE32 PUBLIC 'CODE'
_TEXT	ENDS
;	COMDAT ?construct@?$allocator@PAU_Node@?$_List_nod@PAVIMessageObserver@@V?$allocator@PAVIMessageObserver@@@std@@@std@@@std@@QAEXPAPAU_Node@?$_List_nod@PAVIMessageObserver@@V?$allocator@PAVIMessageObserver@@@std@@@2@ABQAU342@@Z
_TEXT	SEGMENT PARA USE32 PUBLIC 'CODE'
_TEXT	ENDS
;	COMDAT ?destroy@?$allocator@PAU_Node@?$_List_nod@PAVIMessageObserver@@V?$allocator@PAVIMessageObserver@@@std@@@std@@@std@@QAEXPAPAU_Node@?$_List_nod@PAVIMessageObserver@@V?$allocator@PAVIMessageObserver@@@std@@@2@@Z
_TEXT	SEGMENT PARA USE32 PUBLIC 'CODE'
_TEXT	ENDS
;	COMDAT ??0const_iterator@?$list@PAVIMessageObserver@@V?$allocator@PAVIMessageObserver@@@std@@@std@@QAE@PAU_Node@?$_List_nod@PAVIMessageObserver@@V?$allocator@PAVIMessageObserver@@@std@@@2@@Z
_TEXT	SEGMENT PARA USE32 PUBLIC 'CODE'
_TEXT	ENDS
;	COMDAT ??Econst_iterator@?$list@PAVIMessageObserver@@V?$allocator@PAVIMessageObserver@@@std@@@std@@QAEAAV012@XZ
_TEXT	SEGMENT PARA USE32 PUBLIC 'CODE'
_TEXT	ENDS
;	COMDAT ??0length_error@std@@QAE@ABV01@@Z
_TEXT	SEGMENT PARA USE32 PUBLIC 'CODE'
_TEXT	ENDS
;	COMDAT ??0const_iterator@?$basic_string@DU?$char_traits@D@std@@V?$allocator@D@2@@std@@QAE@PBD@Z
_TEXT	SEGMENT PARA USE32 PUBLIC 'CODE'
_TEXT	ENDS
;	COMDAT ??Gconst_iterator@?$basic_string@DU?$char_traits@D@std@@V?$allocator@D@2@@std@@QBEHABV012@@Z
_TEXT	SEGMENT PARA USE32 PUBLIC 'CODE'
_TEXT	ENDS
;	COMDAT ?max_size@?$allocator@UTAB_ITEM@@@std@@QBEIXZ
_TEXT	SEGMENT PARA USE32 PUBLIC 'CODE'
_TEXT	ENDS
;	COMDAT ??0?$_List_nod@PAVIMessageObserver@@V?$allocator@PAVIMessageObserver@@@std@@@std@@IAE@V?$allocator@PAVIMessageObserver@@@1@@Z
_TEXT	SEGMENT PARA USE32 PUBLIC 'CODE'
_TEXT	ENDS
;	COMDAT ?destroy@?$allocator@U_Node@?$_List_nod@PAVIMessageObserver@@V?$allocator@PAVIMessageObserver@@@std@@@std@@@std@@QAEXPAU_Node@?$_List_nod@PAVIMessageObserver@@V?$allocator@PAVIMessageObserver@@@std@@@2@@Z
_TEXT	SEGMENT PARA USE32 PUBLIC 'CODE'
_TEXT	ENDS
;	COMDAT ?Unlock@?$CComCritSecLock@VCComCriticalSection@ATL@@@ATL@@QAEXXZ
_TEXT	SEGMENT PARA USE32 PUBLIC 'CODE'
_TEXT	ENDS
;	COMDAT ??$AtlAlignUp@H@ATL@@YGHHK@Z
_TEXT	SEGMENT PARA USE32 PUBLIC 'CODE'
_TEXT	ENDS
;	COMDAT ??$_Maklocstr@D@std@@YAPADPBDPADABU_Cvtvec@@@Z
_TEXT	SEGMENT PARA USE32 PUBLIC 'CODE'
_TEXT	ENDS
;	COMDAT ??$_Destroy_range@UTAB_ITEM@@V?$allocator@UTAB_ITEM@@@std@@@std@@YAXPAUTAB_ITEM@@0AAV?$allocator@UTAB_ITEM@@@0@@Z
_TEXT	SEGMENT PARA USE32 PUBLIC 'CODE'
_TEXT	ENDS
;	COMDAT ??$_Allocate@UTAB_ITEM@@@std@@YAPAUTAB_ITEM@@IPAU1@@Z
_TEXT	SEGMENT PARA USE32 PUBLIC 'CODE'
_TEXT	ENDS
;	COMDAT ??$?0PAVIMessageObserver@@@?$allocator@PAU_Node@?$_List_nod@PAVIMessageObserver@@V?$allocator@PAVIMessageObserver@@@std@@@std@@@std@@QAE@ABV?$allocator@PAVIMessageObserver@@@1@@Z
_TEXT	SEGMENT PARA USE32 PUBLIC 'CODE'
_TEXT	ENDS
;	COMDAT ??$_Allocate@U_Node@?$_List_nod@PAVIMessageObserver@@V?$allocator@PAVIMessageObserver@@@std@@@std@@@std@@YAPAU_Node@?$_List_nod@PAVIMessageObserver@@V?$allocator@PAVIMessageObserver@@@std@@@0@IPAU120@@Z
_TEXT	SEGMENT PARA USE32 PUBLIC 'CODE'
_TEXT	ENDS
;	COMDAT ??$_Construct@PAU_Node@?$_List_nod@PAVIMessageObserver@@V?$allocator@PAVIMessageObserver@@@std@@@std@@PAU123@@std@@YAXPAPAU_Node@?$_List_nod@PAVIMessageObserver@@V?$allocator@PAVIMessageObserver@@@std@@@0@ABQAU120@@Z
_TEXT	SEGMENT PARA USE32 PUBLIC 'CODE'
_TEXT	ENDS
;	COMDAT ??$_Destroy@PAU_Node@?$_List_nod@PAVIMessageObserver@@V?$allocator@PAVIMessageObserver@@@std@@@std@@@std@@YAXPAPAU_Node@?$_List_nod@PAVIMessageObserver@@V?$allocator@PAVIMessageObserver@@@std@@@0@@Z
_TEXT	SEGMENT PARA USE32 PUBLIC 'CODE'
_TEXT	ENDS
;	COMDAT ??$?0PAVIMessageObserver@@@?$allocator@U_Node@?$_List_nod@PAVIMessageObserver@@V?$allocator@PAVIMessageObserver@@@std@@@std@@@std@@QAE@ABV?$allocator@PAVIMessageObserver@@@1@@Z
_TEXT	SEGMENT PARA USE32 PUBLIC 'CODE'
_TEXT	ENDS
;	COMDAT ??$_Destroy@U_Node@?$_List_nod@PAVIMessageObserver@@V?$allocator@PAVIMessageObserver@@@std@@@std@@@std@@YAXPAU_Node@?$_List_nod@PAVIMessageObserver@@V?$allocator@PAVIMessageObserver@@@std@@@0@@Z
_TEXT	SEGMENT PARA USE32 PUBLIC 'CODE'
_TEXT	ENDS
;	COMDAT ??$_Ptr_cat@PAUTAB_ITEM@@PAU1@@std@@YA?AU_Nonscalar_ptr_iterator_tag@0@AAPAUTAB_ITEM@@0@Z
_TEXT	SEGMENT PARA USE32 PUBLIC 'CODE'
_TEXT	ENDS
;	COMDAT ??$_Destroy_range@UTAB_ITEM@@V?$allocator@UTAB_ITEM@@@std@@@std@@YAXPAUTAB_ITEM@@0AAV?$allocator@UTAB_ITEM@@@0@U_Nonscalar_ptr_iterator_tag@0@@Z
_TEXT	SEGMENT PARA USE32 PUBLIC 'CODE'
_TEXT	ENDS
;	COMDAT ?destroy@?$allocator@UTAB_ITEM@@@std@@QAEXPAUTAB_ITEM@@@Z
_TEXT	SEGMENT PARA USE32 PUBLIC 'CODE'
_TEXT	ENDS
;	COMDAT ??$_Destroy@UTAB_ITEM@@@std@@YAXPAUTAB_ITEM@@@Z
_TEXT	SEGMENT PARA USE32 PUBLIC 'CODE'
_TEXT	ENDS
;	COMDAT ??_GTAB_ITEM@@QAEPAXI@Z
_TEXT	SEGMENT PARA USE32 PUBLIC 'CODE'
_TEXT	ENDS
;	COMDAT ??_R3XDocHostShowUI@CCustomControlSite@@8
rdata$r	SEGMENT DWORD USE32 PUBLIC 'CONST'
rdata$r	ENDS
;	COMDAT ??_R3CCustomControlSite@@8
rdata$r	SEGMENT DWORD USE32 PUBLIC 'CONST'
rdata$r	ENDS
;	COMDAT ??_R3IDocHostShowUI@@8
rdata$r	SEGMENT DWORD USE32 PUBLIC 'CONST'
rdata$r	ENDS
;	COMDAT ??_R3COccManager@@8
rdata$r	SEGMENT DWORD USE32 PUBLIC 'CONST'
rdata$r	ENDS
;	COMDAT ??_R3IDocHostUIHandler@@8
rdata$r	SEGMENT DWORD USE32 PUBLIC 'CONST'
rdata$r	ENDS
;	COMDAT ??_R3?$numpunct@_W@std@@8
rdata$r	SEGMENT DWORD USE32 PUBLIC 'CONST'
rdata$r	ENDS
;	COMDAT ??_R3?$numpunct@D@std@@8
rdata$r	SEGMENT DWORD USE32 PUBLIC 'CONST'
rdata$r	ENDS
;	COMDAT ??_R3IData@@8
rdata$r	SEGMENT DWORD USE32 PUBLIC 'CONST'
rdata$r	ENDS
;	COMDAT ??_R3CCustomOccManager@@8
rdata$r	SEGMENT DWORD USE32 PUBLIC 'CONST'
rdata$r	ENDS
;	COMDAT ??_R3CAtlStringMgr@ATL@@8
rdata$r	SEGMENT DWORD USE32 PUBLIC 'CONST'
rdata$r	ENDS
;	COMDAT ??_R3XDocHostUIHandler@CCustomControlSite@@8
rdata$r	SEGMENT DWORD USE32 PUBLIC 'CONST'
rdata$r	ENDS
;	COMDAT ??_R2XDocHostShowUI@CCustomControlSite@@8
rdata$r	SEGMENT DWORD USE32 PUBLIC 'CONST'
rdata$r	ENDS
;	COMDAT ??_R2CCustomControlSite@@8
rdata$r	SEGMENT DWORD USE32 PUBLIC 'CONST'
rdata$r	ENDS
;	COMDAT ??_R2IDocHostShowUI@@8
rdata$r	SEGMENT DWORD USE32 PUBLIC 'CONST'
rdata$r	ENDS
;	COMDAT ??_R2COccManager@@8
rdata$r	SEGMENT DWORD USE32 PUBLIC 'CONST'
rdata$r	ENDS
;	COMDAT ??_R2IDocHostUIHandler@@8
rdata$r	SEGMENT DWORD USE32 PUBLIC 'CONST'
rdata$r	ENDS
;	COMDAT ??_R2?$numpunct@_W@std@@8
rdata$r	SEGMENT DWORD USE32 PUBLIC 'CONST'
rdata$r	ENDS
;	COMDAT ??_R2?$numpunct@D@std@@8
rdata$r	SEGMENT DWORD USE32 PUBLIC 'CONST'
rdata$r	ENDS
;	COMDAT ??_R2IData@@8
rdata$r	SEGMENT DWORD USE32 PUBLIC 'CONST'
rdata$r	ENDS
;	COMDAT ??_R2CCustomOccManager@@8
rdata$r	SEGMENT DWORD USE32 PUBLIC 'CONST'
rdata$r	ENDS
;	COMDAT ??_R2CAtlStringMgr@ATL@@8
rdata$r	SEGMENT DWORD USE32 PUBLIC 'CONST'
rdata$r	ENDS
;	COMDAT ??_R2XDocHostUIHandler@CCustomControlSite@@8
rdata$r	SEGMENT DWORD USE32 PUBLIC 'CONST'
rdata$r	ENDS
;	COMDAT ??_R1A@?0A@A@XDocHostShowUI@CCustomControlSite@@8
rdata$r	SEGMENT DWORD USE32 PUBLIC 'CONST'
rdata$r	ENDS
;	COMDAT ??_R1A@?0A@A@CObject@@8
rdata$r	SEGMENT DWORD USE32 PUBLIC 'CONST'
rdata$r	ENDS
;	COMDAT ??_R0?AVCObject@@@8
_DATA	SEGMENT DWORD USE32 PUBLIC 'DATA'
_DATA	ENDS
;	COMDAT ??_R1A@?0A@A@CCmdTarget@@8
rdata$r	SEGMENT DWORD USE32 PUBLIC 'CONST'
rdata$r	ENDS
;	COMDAT ??_R0?AVCCmdTarget@@@8
_DATA	SEGMENT DWORD USE32 PUBLIC 'DATA'
_DATA	ENDS
;	COMDAT ??_R1A@?0A@A@COleControlSite@@8
rdata$r	SEGMENT DWORD USE32 PUBLIC 'CONST'
rdata$r	ENDS
;	COMDAT ??_R1A@?0A@A@CCustomControlSite@@8
rdata$r	SEGMENT DWORD USE32 PUBLIC 'CONST'
rdata$r	ENDS
;	COMDAT ??_R1A@?0A@A@IDocHostShowUI@@8
rdata$r	SEGMENT DWORD USE32 PUBLIC 'CONST'
rdata$r	ENDS
;	COMDAT ??_R1A@?0A@A@?$numpunct@_W@std@@8
rdata$r	SEGMENT DWORD USE32 PUBLIC 'CONST'
rdata$r	ENDS
;	COMDAT ??_R1A@?0A@A@facet@locale@std@@8
rdata$r	SEGMENT DWORD USE32 PUBLIC 'CONST'
rdata$r	ENDS
;	COMDAT ??_R0?AVfacet@locale@std@@@8
_DATA	SEGMENT DWORD USE32 PUBLIC 'DATA'
_DATA	ENDS
;	COMDAT ??_R1A@?0A@A@?$numpunct@D@std@@8
rdata$r	SEGMENT DWORD USE32 PUBLIC 'CONST'
rdata$r	ENDS
;	COMDAT ??_R1A@?0A@A@IData@@8
rdata$r	SEGMENT DWORD USE32 PUBLIC 'CONST'
rdata$r	ENDS
;	COMDAT ??_R1A@?0A@A@CNoTrackObject@@8
rdata$r	SEGMENT DWORD USE32 PUBLIC 'CONST'
rdata$r	ENDS
;	COMDAT ??_R0?AVCNoTrackObject@@@8
_DATA	SEGMENT DWORD USE32 PUBLIC 'DATA'
_DATA	ENDS
;	COMDAT ??_R1A@?0A@A@COccManager@@8
rdata$r	SEGMENT DWORD USE32 PUBLIC 'CONST'
rdata$r	ENDS
;	COMDAT ??_R1A@?0A@A@CCustomOccManager@@8
rdata$r	SEGMENT DWORD USE32 PUBLIC 'CONST'
rdata$r	ENDS
;	COMDAT ??_R1A@?0A@A@IAtlStringMgr@ATL@@8
rdata$r	SEGMENT DWORD USE32 PUBLIC 'CONST'
rdata$r	ENDS
;	COMDAT ??_R0?AUIAtlStringMgr@ATL@@@8
_DATA	SEGMENT DWORD USE32 PUBLIC 'DATA'
_DATA	ENDS
;	COMDAT ??_R1A@?0A@A@CAtlStringMgr@ATL@@8
rdata$r	SEGMENT DWORD USE32 PUBLIC 'CONST'
rdata$r	ENDS
;	COMDAT ??_R1A@?0A@A@IUnknown@@8
rdata$r	SEGMENT DWORD USE32 PUBLIC 'CONST'
rdata$r	ENDS
;	COMDAT ??_R0?AUIUnknown@@@8
_DATA	SEGMENT DWORD USE32 PUBLIC 'DATA'
_DATA	ENDS
;	COMDAT ??_R1A@?0A@A@IDocHostUIHandler@@8
rdata$r	SEGMENT DWORD USE32 PUBLIC 'CONST'
rdata$r	ENDS
;	COMDAT ??_R1A@?0A@A@XDocHostUIHandler@CCustomControlSite@@8
rdata$r	SEGMENT DWORD USE32 PUBLIC 'CONST'
rdata$r	ENDS
;	COMDAT ??_R0?AVXDocHostShowUI@CCustomControlSite@@@8
_DATA	SEGMENT DWORD USE32 PUBLIC 'DATA'
_DATA	ENDS
;	COMDAT ??_R0?AVCOleControlSite@@@8
_DATA	SEGMENT DWORD USE32 PUBLIC 'DATA'
_DATA	ENDS
;	COMDAT ??_R0?AVCCustomControlSite@@@8
_DATA	SEGMENT DWORD USE32 PUBLIC 'DATA'
_DATA	ENDS
;	COMDAT ??_R0?AUIDocHostShowUI@@@8
_DATA	SEGMENT DWORD USE32 PUBLIC 'DATA'
_DATA	ENDS
;	COMDAT ??_R0?AV?$numpunct@_W@std@@@8
_DATA	SEGMENT DWORD USE32 PUBLIC 'DATA'
_DATA	ENDS
;	COMDAT ??_R0?AV?$numpunct@D@std@@@8
_DATA	SEGMENT DWORD USE32 PUBLIC 'DATA'
_DATA	ENDS
;	COMDAT ??_R0?AVIData@@@8
_DATA	SEGMENT DWORD USE32 PUBLIC 'DATA'
_DATA	ENDS
;	COMDAT ??_R0?AVCOccManager@@@8
_DATA	SEGMENT DWORD USE32 PUBLIC 'DATA'
_DATA	ENDS
;	COMDAT ??_R0?AVCCustomOccManager@@@8
_DATA	SEGMENT DWORD USE32 PUBLIC 'DATA'
_DATA	ENDS
;	COMDAT ??_R0?AVCAtlStringMgr@ATL@@@8
_DATA	SEGMENT DWORD USE32 PUBLIC 'DATA'
_DATA	ENDS
;	COMDAT ??_R0?AUIDocHostUIHandler@@@8
_DATA	SEGMENT DWORD USE32 PUBLIC 'DATA'
_DATA	ENDS
;	COMDAT ??_R0?AVXDocHostUIHandler@CCustomControlSite@@@8
_DATA	SEGMENT DWORD USE32 PUBLIC 'DATA'
_DATA	ENDS
;	COMDAT ??_R4XDocHostShowUI@CCustomControlSite@@6B@
rdata$r	SEGMENT DWORD USE32 PUBLIC 'CONST'
rdata$r	ENDS
;	COMDAT ??_R4CCustomControlSite@@6B@
rdata$r	SEGMENT DWORD USE32 PUBLIC 'CONST'
rdata$r	ENDS
;	COMDAT ??_R4IDocHostShowUI@@6B@
rdata$r	SEGMENT DWORD USE32 PUBLIC 'CONST'
rdata$r	ENDS
;	COMDAT ??_R4COccManager@@6B@
rdata$r	SEGMENT DWORD USE32 PUBLIC 'CONST'
rdata$r	ENDS
;	COMDAT ??_R4IDocHostUIHandler@@6B@
rdata$r	SEGMENT DWORD USE32 PUBLIC 'CONST'
rdata$r	ENDS
;	COMDAT ??0?$allocator@_W@std@@QAE@XZ
_TEXT	SEGMENT PARA USE32 PUBLIC 'CODE'
_TEXT	ENDS
;	COMDAT ??_G?$numpunct@_W@std@@MAEPAXI@Z
_TEXT	SEGMENT PARA USE32 PUBLIC 'CODE'
_TEXT	ENDS
;	COMDAT ??_R4?$numpunct@_W@std@@6B@
rdata$r	SEGMENT DWORD USE32 PUBLIC 'CONST'
rdata$r	ENDS
;	COMDAT ??_G?$numpunct@D@std@@MAEPAXI@Z
_TEXT	SEGMENT PARA USE32 PUBLIC 'CODE'
_TEXT	ENDS
;	COMDAT ??_R4?$numpunct@D@std@@6B@
rdata$r	SEGMENT DWORD USE32 PUBLIC 'CONST'
rdata$r	ENDS
;	COMDAT ??_R4IData@@6B@
rdata$r	SEGMENT DWORD USE32 PUBLIC 'CONST'
rdata$r	ENDS
;	COMDAT ??_R4CCustomOccManager@@6B@
rdata$r	SEGMENT DWORD USE32 PUBLIC 'CONST'
rdata$r	ENDS
;	COMDAT ??_R4CAtlStringMgr@ATL@@6B@
rdata$r	SEGMENT DWORD USE32 PUBLIC 'CONST'
rdata$r	ENDS
;	COMDAT ??_R4XDocHostUIHandler@CCustomControlSite@@6B@
rdata$r	SEGMENT DWORD USE32 PUBLIC 'CONST'
rdata$r	ENDS
;	COMDAT ??2@YAPAXIPAX@Z
_TEXT	SEGMENT PARA USE32 PUBLIC 'CODE'
_TEXT	ENDS
;	COMDAT ??_C@_0EN@CBMLGOH@D?3?2Program?5Files?5?$CIx86?$CJ?2Microsoft@
CONST	SEGMENT DWORD USE32 PUBLIC 'CONST'
CONST	ENDS
;	COMDAT ?_Psave@?$_Facetptr@V?$numpunct@_W@std@@@std@@2PBVfacet@locale@2@B
_DATA	SEGMENT DWORD USE32 PUBLIC 'DATA'
_DATA	ENDS
;	COMDAT ?_Psave@?$_Facetptr@V?$numpunct@D@std@@@std@@2PBVfacet@locale@2@B
_DATA	SEGMENT DWORD USE32 PUBLIC 'DATA'
_DATA	ENDS
;	COMDAT ?Unlock@CComCriticalSection@ATL@@QAEJXZ
_TEXT	SEGMENT PARA USE32 PUBLIC 'CODE'
_TEXT	ENDS
;	COMDAT ??_C@_0FG@LDNDNCJM@D?3?2Program?5Files?5?$CIx86?$CJ?2Microsoft@
CONST	SEGMENT DWORD USE32 PUBLIC 'CONST'
CONST	ENDS
;	COMDAT ??_C@_09HIEJFN@m_bLocked?$AA@
CONST	SEGMENT DWORD USE32 PUBLIC 'CONST'
CONST	ENDS
;	COMDAT ?_Psave@?$_Facetptr@V?$ctype@_W@std@@@std@@2PBVfacet@locale@2@B
_DATA	SEGMENT DWORD USE32 PUBLIC 'DATA'
_DATA	ENDS
;	COMDAT ?_Psave@?$_Facetptr@V?$ctype@D@std@@@std@@2PBVfacet@locale@2@B
_DATA	SEGMENT DWORD USE32 PUBLIC 'DATA'
_DATA	ENDS
;	COMDAT ??_7length_error@std@@6B@
CONST	SEGMENT DWORD USE32 PUBLIC 'CONST'
CONST	ENDS
;	COMDAT ??_R4length_error@std@@6B@
rdata$r	SEGMENT DWORD USE32 PUBLIC 'CONST'
rdata$r	ENDS
;	COMDAT ??_R3length_error@std@@8
rdata$r	SEGMENT DWORD USE32 PUBLIC 'CONST'
rdata$r	ENDS
;	COMDAT ??_R2length_error@std@@8
rdata$r	SEGMENT DWORD USE32 PUBLIC 'CONST'
rdata$r	ENDS
;	COMDAT ??_R1A@?0A@A@length_error@std@@8
rdata$r	SEGMENT DWORD USE32 PUBLIC 'CONST'
rdata$r	ENDS
;	COMDAT ??_R1A@?0A@A@logic_error@std@@8
rdata$r	SEGMENT DWORD USE32 PUBLIC 'CONST'
rdata$r	ENDS
;	COMDAT ??_R0?AVlogic_error@std@@@8
_DATA	SEGMENT DWORD USE32 PUBLIC 'DATA'
_DATA	ENDS
;	COMDAT ??_R1A@?0A@A@exception@@8
rdata$r	SEGMENT DWORD USE32 PUBLIC 'CONST'
rdata$r	ENDS
;	COMDAT ??_R0?AVexception@@@8
_DATA	SEGMENT DWORD USE32 PUBLIC 'DATA'
_DATA	ENDS
;	COMDAT ??_Glength_error@std@@UAEPAXI@Z
_TEXT	SEGMENT PARA USE32 PUBLIC 'CODE'
_TEXT	ENDS
;	COMDAT ?what@logic_error@std@@UBEPBDXZ
_TEXT	SEGMENT PARA USE32 PUBLIC 'CODE'
_TEXT	ENDS
;	COMDAT ??1logic_error@std@@UAE@XZ
_TEXT	SEGMENT PARA USE32 PUBLIC 'CODE'
_TEXT	ENDS
;	COMDAT ??_7logic_error@std@@6B@
CONST	SEGMENT DWORD USE32 PUBLIC 'CONST'
CONST	ENDS
;	COMDAT ??_R4logic_error@std@@6B@
rdata$r	SEGMENT DWORD USE32 PUBLIC 'CONST'
rdata$r	ENDS
;	COMDAT ??_R3logic_error@std@@8
rdata$r	SEGMENT DWORD USE32 PUBLIC 'CONST'
rdata$r	ENDS
;	COMDAT ??_R2logic_error@std@@8
rdata$r	SEGMENT DWORD USE32 PUBLIC 'CONST'
rdata$r	ENDS
;	COMDAT ??_Glogic_error@std@@UAEPAXI@Z
_TEXT	SEGMENT PARA USE32 PUBLIC 'CODE'
_TEXT	ENDS
;	COMDAT ??0logic_error@std@@QAE@ABV01@@Z
_TEXT	SEGMENT PARA USE32 PUBLIC 'CODE'
_TEXT	ENDS
;	COMDAT __CTA3?AVlength_error@std@@
xdata$x	SEGMENT DWORD USE32 PUBLIC 'CONST'
xdata$x	ENDS
;	COMDAT ??1length_error@std@@UAE@XZ
_TEXT	SEGMENT PARA USE32 PUBLIC 'CODE'
_TEXT	ENDS
;	COMDAT __CT??_R0?AVexception@@@8??0exception@@QAE@ABV0@@Z12
xdata$x	SEGMENT DWORD USE32 PUBLIC 'CONST'
xdata$x	ENDS
;	COMDAT __CT??_R0?AVlogic_error@std@@@8??0logic_error@std@@QAE@ABV01@@Z40
xdata$x	SEGMENT DWORD USE32 PUBLIC 'CONST'
xdata$x	ENDS
;	COMDAT __CT??_R0?AVlength_error@std@@@8??0length_error@std@@QAE@ABV01@@Z40
xdata$x	SEGMENT DWORD USE32 PUBLIC 'CONST'
xdata$x	ENDS
;	COMDAT ??_R0?AVlength_error@std@@@8
_DATA	SEGMENT DWORD USE32 PUBLIC 'DATA'
_DATA	ENDS
;	COMDAT __TI3?AVlength_error@std@@
xdata$x	SEGMENT DWORD USE32 PUBLIC 'CONST'
xdata$x	ENDS
;	COMDAT ??0length_error@std@@QAE@ABV?$basic_string@DU?$char_traits@D@std@@V?$allocator@D@2@@1@@Z
_TEXT	SEGMENT PARA USE32 PUBLIC 'CODE'
_TEXT	ENDS
;	COMDAT ??0logic_error@std@@QAE@ABV?$basic_string@DU?$char_traits@D@std@@V?$allocator@D@2@@1@@Z
_TEXT	SEGMENT PARA USE32 PUBLIC 'CODE'
_TEXT	ENDS
;	COMDAT ??$_Maklocchr@_W@std@@YA_WDPA_WABU_Cvtvec@@@Z
_TEXT	SEGMENT PARA USE32 PUBLIC 'CODE'
_TEXT	ENDS
;	COMDAT ??$_DebugHeapDelete@X@std@@YAXPAX@Z
_TEXT	SEGMENT PARA USE32 PUBLIC 'CODE'
_TEXT	ENDS
;	COMDAT ??$_Maklocstr@_W@std@@YAPA_WPBDPA_WABU_Cvtvec@@@Z
_TEXT	SEGMENT PARA USE32 PUBLIC 'CODE'
_TEXT	ENDS
;	COMDAT ??$_Maklocchr@D@std@@YADDPADABU_Cvtvec@@@Z
_TEXT	SEGMENT PARA USE32 PUBLIC 'CODE'
_TEXT	ENDS
;	COMDAT ??_C@_04LOAJBDKD@true?$AA@
CONST	SEGMENT DWORD USE32 PUBLIC 'CONST'
CONST	ENDS
;	COMDAT ??_C@_05LAPONLG@false?$AA@
CONST	SEGMENT DWORD USE32 PUBLIC 'CONST'
CONST	ENDS
;	COMDAT _wmemcpy
_TEXT	SEGMENT PARA USE32 PUBLIC 'CODE'
_TEXT	ENDS
;	COMDAT ?max_size@?$allocator@_W@std@@QBEIXZ
_TEXT	SEGMENT PARA USE32 PUBLIC 'CODE'
_TEXT	ENDS
;	COMDAT ?allocate@?$allocator@_W@std@@QAEPA_WI@Z
_TEXT	SEGMENT PARA USE32 PUBLIC 'CODE'
_TEXT	ENDS
;	COMDAT ??$_Allocate@_W@std@@YAPA_WIPA_W@Z
_TEXT	SEGMENT PARA USE32 PUBLIC 'CODE'
_TEXT	ENDS
;	COMDAT ??_C@_0N@ILOMLJGA@nLength?5?$DO?$DN?50?$AA@
CONST	SEGMENT DWORD USE32 PUBLIC 'CONST'
CONST	ENDS
;	COMDAT ??_C@_0CD@EEFFJEGJ@nLength?5?$DM?$DN?5GetData?$CI?$CJ?9?$DOnAllocLeng@
CONST	SEGMENT DWORD USE32 PUBLIC 'CONST'
CONST	ENDS
;	COMDAT ?data@CStringData@ATL@@QAEPAXXZ
_TEXT	SEGMENT PARA USE32 PUBLIC 'CODE'
_TEXT	ENDS
;	COMDAT ??_C@_0FJ@DMHPDOJC@D?3?2Program?5Files?5?$CIx86?$CJ?2Microsoft@
CONST	SEGMENT DWORD USE32 PUBLIC 'CONST'
CONST	ENDS
;	COMDAT ??_C@_0BA@GOIMFHNK@pStringMgr?5?$CB?$DN?50?$AA@
CONST	SEGMENT DWORD USE32 PUBLIC 'CONST'
CONST	ENDS
;	COMDAT ??_C@_01GFHCPBMG@C?$AA@
CONST	SEGMENT DWORD USE32 PUBLIC 'CONST'
CONST	ENDS
;	COMDAT ?max_size@?$allocator@D@std@@QBEIXZ
_TEXT	SEGMENT PARA USE32 PUBLIC 'CODE'
_TEXT	ENDS
;	COMDAT ?allocate@?$allocator@D@std@@QAEPADI@Z
_TEXT	SEGMENT PARA USE32 PUBLIC 'CODE'
_TEXT	ENDS
;	COMDAT ??$_Allocate@D@std@@YAPADIPAD@Z
_TEXT	SEGMENT PARA USE32 PUBLIC 'CODE'
_TEXT	ENDS
;	COMDAT ?deallocate@?$allocator@D@std@@QAEXPADI@Z
_TEXT	SEGMENT PARA USE32 PUBLIC 'CODE'
_TEXT	ENDS
;	COMDAT ??0?$allocator@D@std@@QAE@XZ
_TEXT	SEGMENT PARA USE32 PUBLIC 'CODE'
_TEXT	ENDS
;	COMDAT ??0?$allocator@D@std@@QAE@ABV01@@Z
_TEXT	SEGMENT PARA USE32 PUBLIC 'CODE'
_TEXT	ENDS
;	COMDAT ?Release@CStringData@ATL@@QAEXXZ
_TEXT	SEGMENT PARA USE32 PUBLIC 'CODE'
_TEXT	ENDS
;	COMDAT ??_C@_0L@OIIMFBNE@nRefs?5?$CB?$DN?50?$AA@
CONST	SEGMENT DWORD USE32 PUBLIC 'CONST'
CONST	ENDS
;	COMDAT ?_Peek@?$istreambuf_iterator@_WU?$char_traits@_W@std@@@std@@AAE_WXZ
_TEXT	SEGMENT PARA USE32 PUBLIC 'CODE'
_TEXT	ENDS
;	COMDAT ?_Peek@?$istreambuf_iterator@DU?$char_traits@D@std@@@std@@AAEDXZ
_TEXT	SEGMENT PARA USE32 PUBLIC 'CODE'
_TEXT	ENDS
;	COMDAT ??$use_facet@V?$ctype@_W@std@@@std@@YAABV?$ctype@_W@0@ABVlocale@0@@Z
_TEXT	SEGMENT PARA USE32 PUBLIC 'CODE'
_TEXT	ENDS
;	COMDAT ??_S?$ctype@_W@std@@6B@
CONST	SEGMENT DWORD USE32 PUBLIC 'CONST'
CONST	ENDS
;	COMDAT ??_R4?$ctype@_W@std@@6B@
rdata$r	SEGMENT DWORD USE32 PUBLIC 'CONST'
rdata$r	ENDS
;	COMDAT ??_R0?AV?$ctype@_W@std@@@8
_DATA	SEGMENT DWORD USE32 PUBLIC 'DATA'
_DATA	ENDS
;	COMDAT ??_R3?$ctype@_W@std@@8
rdata$r	SEGMENT DWORD USE32 PUBLIC 'CONST'
rdata$r	ENDS
;	COMDAT ??_R2?$ctype@_W@std@@8
rdata$r	SEGMENT DWORD USE32 PUBLIC 'CONST'
rdata$r	ENDS
;	COMDAT ??_R1A@?0A@A@?$ctype@_W@std@@8
rdata$r	SEGMENT DWORD USE32 PUBLIC 'CONST'
rdata$r	ENDS
;	COMDAT ??_R1A@?0A@A@ctype_base@std@@8
rdata$r	SEGMENT DWORD USE32 PUBLIC 'CONST'
rdata$r	ENDS
;	COMDAT ??_R0?AUctype_base@std@@@8
_DATA	SEGMENT DWORD USE32 PUBLIC 'DATA'
_DATA	ENDS
;	COMDAT ??_G?$ctype@_W@std@@MAEPAXI@Z
_TEXT	SEGMENT PARA USE32 PUBLIC 'CODE'
_TEXT	ENDS
;	COMDAT ??_C@_08EPJLHIJG@bad?5cast?$AA@
CONST	SEGMENT DWORD USE32 PUBLIC 'CONST'
CONST	ENDS
;	COMDAT __TI2?AVbad_cast@@
xdata$x	SEGMENT DWORD USE32 PUBLIC 'CONST'
xdata$x	ENDS
;	COMDAT __CTA2?AVbad_cast@@
xdata$x	SEGMENT DWORD USE32 PUBLIC 'CONST'
xdata$x	ENDS
;	COMDAT __CT??_R0?AVbad_cast@@@8??0bad_cast@@QAE@ABV0@@Z12
xdata$x	SEGMENT DWORD USE32 PUBLIC 'CONST'
xdata$x	ENDS
;	COMDAT ??_R0?AVbad_cast@@@8
_DATA	SEGMENT DWORD USE32 PUBLIC 'DATA'
_DATA	ENDS
;	COMDAT ??$_DebugHeapDelete@Vfacet@locale@std@@@std@@YAXPAVfacet@locale@0@@Z
_TEXT	SEGMENT PARA USE32 PUBLIC 'CODE'
_TEXT	ENDS
;	COMDAT ??$use_facet@V?$ctype@D@std@@@std@@YAABV?$ctype@D@0@ABVlocale@0@@Z
_TEXT	SEGMENT PARA USE32 PUBLIC 'CODE'
_TEXT	ENDS
;	COMDAT ??_S?$ctype@D@std@@6B@
CONST	SEGMENT DWORD USE32 PUBLIC 'CONST'
CONST	ENDS
;	COMDAT ??_R4?$ctype@D@std@@6B@
rdata$r	SEGMENT DWORD USE32 PUBLIC 'CONST'
rdata$r	ENDS
;	COMDAT ??_R0?AV?$ctype@D@std@@@8
_DATA	SEGMENT DWORD USE32 PUBLIC 'DATA'
_DATA	ENDS
;	COMDAT ??_R3?$ctype@D@std@@8
rdata$r	SEGMENT DWORD USE32 PUBLIC 'CONST'
rdata$r	ENDS
;	COMDAT ??_R2?$ctype@D@std@@8
rdata$r	SEGMENT DWORD USE32 PUBLIC 'CONST'
rdata$r	ENDS
;	COMDAT ??_R1A@?0A@A@?$ctype@D@std@@8
rdata$r	SEGMENT DWORD USE32 PUBLIC 'CONST'
rdata$r	ENDS
;	COMDAT ??_G?$ctype@D@std@@MAEPAXI@Z
_TEXT	SEGMENT PARA USE32 PUBLIC 'CODE'
_TEXT	ENDS
;	COMDAT ??_S?$numpunct@_W@std@@6B@
CONST	SEGMENT DWORD USE32 PUBLIC 'CONST'
CONST	ENDS
;	COMDAT ??_S?$numpunct@D@std@@6B@
CONST	SEGMENT DWORD USE32 PUBLIC 'CONST'
CONST	ENDS
;	COMDAT _wmemmove
_TEXT	SEGMENT PARA USE32 PUBLIC 'CODE'
_TEXT	ENDS
;	COMDAT ?deallocate@?$allocator@_W@std@@QAEXPA_WI@Z
_TEXT	SEGMENT PARA USE32 PUBLIC 'CODE'
_TEXT	ENDS
;	COMDAT ??0?$allocator@_W@std@@QAE@ABV01@@Z
_TEXT	SEGMENT PARA USE32 PUBLIC 'CODE'
_TEXT	ENDS
;	COMDAT ??_C@_0BA@GNIEOBOF@nNewLength?5?$DO?$DN?50?$AA@
CONST	SEGMENT DWORD USE32 PUBLIC 'CONST'
CONST	ENDS
;	COMDAT ?IsShared@CStringData@ATL@@QBE_NXZ
_TEXT	SEGMENT PARA USE32 PUBLIC 'CODE'
_TEXT	ENDS
;	COMDAT ??_C@_0CB@GFHAPKDK@pOldData?9?$DOnAllocLength?5?$DM?5nLength@
CONST	SEGMENT DWORD USE32 PUBLIC 'CONST'
CONST	ENDS
;	COMDAT ?AtlThrow@ATL@@YGXJ@Z
_TEXT	SEGMENT PARA USE32 PUBLIC 'CODE'
_TEXT	ENDS
;	COMDAT ??RCTraceFileAndLineInfo@ATL@@QBAXKIPBDZZ
_TEXT	SEGMENT PARA USE32 PUBLIC 'CODE'
_TEXT	ENDS
;	COMDAT ?TraceV@CTrace@ATL@@QBAXPBDHKI0PAD@Z
_TEXT	SEGMENT PARA USE32 PUBLIC 'CODE'
_TEXT	ENDS
;	COMDAT ??0CTraceFileAndLineInfo@ATL@@QAE@PBDH@Z
_TEXT	SEGMENT PARA USE32 PUBLIC 'CODE'
_TEXT	ENDS
;	COMDAT ??_C@_0FI@NHHJANPC@D?3?2Program?5Files?5?$CIx86?$CJ?2Microsoft@
CONST	SEGMENT DWORD USE32 PUBLIC 'CONST'
CONST	ENDS
;	COMDAT ??_C@_0BF@IAAKIJDJ@AtlThrow?3?5hr?5?$DN?50x?$CFx?6?$AA@
CONST	SEGMENT DWORD USE32 PUBLIC 'CONST'
CONST	ENDS
;	COMDAT ??BCTraceCategory@ATL@@QBEKXZ
_TEXT	SEGMENT PARA USE32 PUBLIC 'CODE'
_TEXT	ENDS
;	COMDAT ??_C@_0FH@KDPNIMBO@D?3?2Program?5Files?5?$CIx86?$CJ?2Microsoft@
CONST	SEGMENT DWORD USE32 PUBLIC 'CONST'
CONST	ENDS
;	COMDAT ?AtlIsValidString@ATL@@YAHPBDI@Z
_TEXT	SEGMENT PARA USE32 PUBLIC 'CODE'
_TEXT	ENDS
;	COMDAT ?IsLocked@CStringData@ATL@@QBE_NXZ
_TEXT	SEGMENT PARA USE32 PUBLIC 'CODE'
_TEXT	ENDS
;	COMDAT ??$?HDU?$char_traits@D@std@@V?$allocator@D@1@@std@@YA?AV?$basic_string@DU?$char_traits@D@std@@V?$allocator@D@2@@0@PBDABV10@@Z
_TEXT	SEGMENT PARA USE32 PUBLIC 'CODE'
_TEXT	ENDS
;	COMDAT ??_R0?AVIMessageObserver@@@8
_DATA	SEGMENT DWORD USE32 PUBLIC 'DATA'
_DATA	ENDS
;	COMDAT ??_R0?AVIWebRefreshObserver@@@8
_DATA	SEGMENT DWORD USE32 PUBLIC 'DATA'
_DATA	ENDS
;	COMDAT ?GetDefaultManager@?$StrTraitMFC_DLL@DV?$ChTraitsCRT@D@ATL@@@@SAPAUIAtlStringMgr@ATL@@XZ
_TEXT	SEGMENT PARA USE32 PUBLIC 'CODE'
_TEXT	ENDS
;	COMDAT ??_7CNoTrackObject@@6B@
CONST	SEGMENT DWORD USE32 PUBLIC 'CONST'
CONST	ENDS
;	COMDAT ??_R4CNoTrackObject@@6B@
rdata$r	SEGMENT DWORD USE32 PUBLIC 'CONST'
rdata$r	ENDS
;	COMDAT ??_R3CNoTrackObject@@8
rdata$r	SEGMENT DWORD USE32 PUBLIC 'CONST'
rdata$r	ENDS
;	COMDAT ??_R2CNoTrackObject@@8
rdata$r	SEGMENT DWORD USE32 PUBLIC 'CONST'
rdata$r	ENDS
;	COMDAT ??_7COccManager@@6B@
CONST	SEGMENT DWORD USE32 PUBLIC 'CONST'
CONST	ENDS
;	COMDAT ??1CNoTrackObject@@UAE@XZ
_TEXT	SEGMENT PARA USE32 PUBLIC 'CODE'
_TEXT	ENDS
;	COMDAT ??_7CCustomOccManager@@6B@
CONST	SEGMENT DWORD USE32 PUBLIC 'CONST'
CONST	ENDS
;	COMDAT ??0IUnknown@@QAE@XZ
_TEXT	SEGMENT PARA USE32 PUBLIC 'CODE'
_TEXT	ENDS
;	COMDAT ??_7XDocHostUIHandler@CCustomControlSite@@6B@
CONST	SEGMENT DWORD USE32 PUBLIC 'CONST'
CONST	ENDS
;	COMDAT ??_7XDocHostShowUI@CCustomControlSite@@6B@
CONST	SEGMENT DWORD USE32 PUBLIC 'CONST'
CONST	ENDS
;	COMDAT ??_7CCustomControlSite@@6B@
CONST	SEGMENT DWORD USE32 PUBLIC 'CONST'
CONST	ENDS
;	COMDAT ?clsid@?1??GetClsid@CShockwaveFlash@@QAEABU_GUID@@XZ@4U3@B
CONST	SEGMENT DWORD USE32 PUBLIC 'CONST'
CONST	ENDS
;	COMDAT ??_7IData@@6B@
CONST	SEGMENT DWORD USE32 PUBLIC 'CONST'
CONST	ENDS
;	COMDAT ?c_bIsMFCDLLTraits@?$_MFCDLLTraitsCheck@_WV?$StrTraitATL@_WV?$ChTraitsCRT@_W@ATL@@@ATL@@@_CSTRING_IMPL_@ATL@@2_NB
CONST	SEGMENT DWORD USE32 PUBLIC 'CONST'
CONST	ENDS
;	COMDAT ?c_bIsMFCDLLTraits@?$_MFCDLLTraitsCheck@DV?$StrTraitATL@DV?$ChTraitsCRT@D@ATL@@@ATL@@@_CSTRING_IMPL_@ATL@@2_NB
CONST	SEGMENT DWORD USE32 PUBLIC 'CONST'
CONST	ENDS
;	COMDAT ?_AtlGetConversionACP@ATL@@YGIXZ
_TEXT	SEGMENT PARA USE32 PUBLIC 'CODE'
_TEXT	ENDS
;	COMDAT ?g_pfnGetThreadACP@ATL@@3P6GIXZA
_DATA	SEGMENT DWORD USE32 PUBLIC 'DATA'
_DATA	ENDS
;	COMDAT ?_AtlGetThreadACPThunk@ATL@@YGIXZ
_TEXT	SEGMENT PARA USE32 PUBLIC 'CODE'
_TEXT	ENDS
;	COMDAT ?_AtlGetThreadACPReal@ATL@@YGIXZ
_TEXT	SEGMENT PARA USE32 PUBLIC 'CODE'
_TEXT	ENDS
;	COMDAT ?_AtlGetThreadACPFake@ATL@@YGIXZ
_TEXT	SEGMENT PARA USE32 PUBLIC 'CODE'
_TEXT	ENDS
;	COMDAT ?InterlockedExchangePointer@@YGPAXPAPAXPAX@Z
_TEXT	SEGMENT PARA USE32 PUBLIC 'CODE'
_TEXT	ENDS
;	COMDAT ??_C@_09BBJEMDLA@nRet?5?$CB?$DN?50?$AA@
CONST	SEGMENT DWORD USE32 PUBLIC 'CONST'
CONST	ENDS
;	COMDAT ?_strthunks@ATL@@3U_AtlStringThunks@1@A
_DATA	SEGMENT DWORD USE32 PUBLIC 'DATA'
_DATA	ENDS
;	COMDAT ?CompareStringWThunk@ATL@@YGHKKPB_WH0H@Z
_TEXT	SEGMENT PARA USE32 PUBLIC 'CODE'
_TEXT	ENDS
;	COMDAT ?_AtlInstallStringThunk@ATL@@YAXPAPAXPAX1@Z
_TEXT	SEGMENT PARA USE32 PUBLIC 'CODE'
_TEXT	ENDS
;	COMDAT ??_B?1??_AtlInstallStringThunk@ATL@@YAXPAPAXPAX1@Z@51
_BSS	SEGMENT DWORD USE32 PUBLIC 'BSS'
_BSS	ENDS
;	COMDAT ?s_bWin9x@?1??_AtlInstallStringThunk@ATL@@YAXPAPAXPAX1@Z@4_NA
_BSS	SEGMENT DWORD USE32 PUBLIC 'BSS'
_BSS	ENDS
;	COMDAT ?CompareStringWFake@ATL@@YGHKKPB_WH0H@Z
_TEXT	SEGMENT PARA USE32 PUBLIC 'CODE'
_TEXT	ENDS
;	COMDAT ??0?$CAtlSafeAllocBufferManager@VCCRTAllocator@ATL@@@_ATL_SAFE_ALLOCA_IMPL@ATL@@QAE@XZ
_TEXT	SEGMENT PARA USE32 PUBLIC 'CODE'
_TEXT	ENDS
;	COMDAT ??1?$CAtlSafeAllocBufferManager@VCCRTAllocator@ATL@@@_ATL_SAFE_ALLOCA_IMPL@ATL@@QAE@XZ
_TEXT	SEGMENT PARA USE32 PUBLIC 'CODE'
_TEXT	ENDS
;	COMDAT ?Free@CCRTAllocator@ATL@@SAXPAX@Z
_TEXT	SEGMENT PARA USE32 PUBLIC 'CODE'
_TEXT	ENDS
;	COMDAT ?AtlW2AHelper@@YGPADPADPB_WHI@Z
_TEXT	SEGMENT PARA USE32 PUBLIC 'CODE'
_TEXT	ENDS
;	COMDAT ??_C@_08DIHJLFDJ@lpw?5?$CB?$DN?50?$AA@
CONST	SEGMENT DWORD USE32 PUBLIC 'CONST'
CONST	ENDS
;	COMDAT ??_C@_08DMHHBMMN@lpa?5?$CB?$DN?50?$AA@
CONST	SEGMENT DWORD USE32 PUBLIC 'CONST'
CONST	ENDS
;	COMDAT ??_C@_01GBGANLPD@0?$AA@
CONST	SEGMENT DWORD USE32 PUBLIC 'CONST'
CONST	ENDS
;	COMDAT ??_C@_0FG@PFHCBDBK@D?3?2Program?5Files?5?$CIx86?$CJ?2Microsoft@
CONST	SEGMENT DWORD USE32 PUBLIC 'CONST'
CONST	ENDS
;	COMDAT ?_AtlVerifyStackAvailable@_ATL_SAFE_ALLOCA_IMPL@ATL@@YA_NK@Z
_TEXT	SEGMENT PARA USE32 PUBLIC 'CODE'
_TEXT	ENDS
;	COMDAT ?Allocate@?$CAtlSafeAllocBufferManager@VCCRTAllocator@ATL@@@_ATL_SAFE_ALLOCA_IMPL@ATL@@QAEPAXK@Z
_TEXT	SEGMENT PARA USE32 PUBLIC 'CODE'
_TEXT	ENDS
;	COMDAT ?Allocate@CCRTAllocator@ATL@@SAPAXI@Z
_TEXT	SEGMENT PARA USE32 PUBLIC 'CODE'
_TEXT	ENDS
;	COMDAT ?GetData@CAtlSafeAllocBufferNode@?$CAtlSafeAllocBufferManager@VCCRTAllocator@ATL@@@_ATL_SAFE_ALLOCA_IMPL@ATL@@QAEPAXXZ
_TEXT	SEGMENT PARA USE32 PUBLIC 'CODE'
_TEXT	ENDS
;	COMDAT ?GetStringTypeExWThunk@ATL@@YGHKKPB_WHPAG@Z
_TEXT	SEGMENT PARA USE32 PUBLIC 'CODE'
_TEXT	ENDS
;	COMDAT ?GetStringTypeExWFake@ATL@@YGHKKPB_WHPAG@Z
_TEXT	SEGMENT PARA USE32 PUBLIC 'CODE'
_TEXT	ENDS
;	COMDAT ??0?$CTempBuffer@D$0IA@VCCRTAllocator@ATL@@@ATL@@QAE@XZ
_TEXT	SEGMENT PARA USE32 PUBLIC 'CODE'
_TEXT	ENDS
;	COMDAT ??1?$CTempBuffer@D$0IA@VCCRTAllocator@ATL@@@ATL@@QAE@XZ
_TEXT	SEGMENT PARA USE32 PUBLIC 'CODE'
_TEXT	ENDS
;	COMDAT ?FreeHeap@?$CTempBuffer@D$0IA@VCCRTAllocator@ATL@@@ATL@@AAEXXZ
_TEXT	SEGMENT PARA USE32 PUBLIC 'CODE'
_TEXT	ENDS
;	COMDAT ?Allocate@?$CTempBuffer@D$0IA@VCCRTAllocator@ATL@@@ATL@@QAEPADI@Z
_TEXT	SEGMENT PARA USE32 PUBLIC 'CODE'
_TEXT	ENDS
;	COMDAT ?AllocateBytes@?$CTempBuffer@D$0IA@VCCRTAllocator@ATL@@@ATL@@QAEPADI@Z
_TEXT	SEGMENT PARA USE32 PUBLIC 'CODE'
_TEXT	ENDS
;	COMDAT ??_C@_08GPODJFIN@m_p?5?$DN?$DN?50?$AA@
CONST	SEGMENT DWORD USE32 PUBLIC 'CONST'
CONST	ENDS
;	COMDAT ??_C@_0FH@BOCPFCEM@D?3?2Program?5Files?5?$CIx86?$CJ?2Microsoft@
CONST	SEGMENT DWORD USE32 PUBLIC 'CONST'
CONST	ENDS
;	COMDAT ?AllocateHeap@?$CTempBuffer@D$0IA@VCCRTAllocator@ATL@@@ATL@@AAEXI@Z
_TEXT	SEGMENT PARA USE32 PUBLIC 'CODE'
_TEXT	ENDS
;	COMDAT ??B?$CTempBuffer@D$0IA@VCCRTAllocator@ATL@@@ATL@@QBEPADXZ
_TEXT	SEGMENT PARA USE32 PUBLIC 'CODE'
_TEXT	ENDS
;	COMDAT ?lstrcmpiWThunk@ATL@@YGHPB_W0@Z
_TEXT	SEGMENT PARA USE32 PUBLIC 'CODE'
_TEXT	ENDS
;	COMDAT ?lstrcmpiWFake@ATL@@YGHPB_W0@Z
_TEXT	SEGMENT PARA USE32 PUBLIC 'CODE'
_TEXT	ENDS
;	COMDAT ?CharLowerWThunk@ATL@@YGPA_WPA_W@Z
_TEXT	SEGMENT PARA USE32 PUBLIC 'CODE'
_TEXT	ENDS
;	COMDAT ?CharLowerWFake@ATL@@YGPA_WPA_W@Z
_TEXT	SEGMENT PARA USE32 PUBLIC 'CODE'
_TEXT	ENDS
;	COMDAT ?AtlA2WHelper@@YGPA_WPA_WPBDHI@Z
_TEXT	SEGMENT PARA USE32 PUBLIC 'CODE'
_TEXT	ENDS
;	COMDAT ?CharUpperWThunk@ATL@@YGPA_WPA_W@Z
_TEXT	SEGMENT PARA USE32 PUBLIC 'CODE'
_TEXT	ENDS
;	COMDAT ?CharUpperWFake@ATL@@YGPA_WPA_W@Z
_TEXT	SEGMENT PARA USE32 PUBLIC 'CODE'
_TEXT	ENDS
;	COMDAT ?GetEnvironmentVariableWThunk@ATL@@YGKPB_WPA_WK@Z
_TEXT	SEGMENT PARA USE32 PUBLIC 'CODE'
_TEXT	ENDS
;	COMDAT ?GetEnvironmentVariableWFake@ATL@@YGKPB_WPA_WK@Z
_TEXT	SEGMENT PARA USE32 PUBLIC 'CODE'
_TEXT	ENDS
;	COMDAT ??0?$CW2AEX@$0IA@@ATL@@QAE@PB_W@Z
_TEXT	SEGMENT PARA USE32 PUBLIC 'CODE'
_TEXT	ENDS
;	COMDAT ?Init@?$CW2AEX@$0IA@@ATL@@AAEXPB_WI@Z
_TEXT	SEGMENT PARA USE32 PUBLIC 'CODE'
_TEXT	ENDS
;	COMDAT ?AtlThrowLastWin32@ATL@@YGXXZ
_TEXT	SEGMENT PARA USE32 PUBLIC 'CODE'
_TEXT	ENDS
;	COMDAT ??1?$CW2AEX@$0IA@@ATL@@QAE@XZ
_TEXT	SEGMENT PARA USE32 PUBLIC 'CODE'
_TEXT	ENDS
;	COMDAT ??B?$CW2AEX@$0IA@@ATL@@QBEPADXZ
_TEXT	SEGMENT PARA USE32 PUBLIC 'CODE'
_TEXT	ENDS
;	COMDAT ??_C@_0BA@CLMJJCOM@nSize?5?$DO?$DN?5nSizeW?$AA@
CONST	SEGMENT DWORD USE32 PUBLIC 'CONST'
CONST	ENDS
;	COMDAT ?AddRef@CStringData@ATL@@QAEXXZ
_TEXT	SEGMENT PARA USE32 PUBLIC 'CODE'
_TEXT	ENDS
;	COMDAT ??_C@_09EEBKLCFA@nRefs?5?$DO?50?$AA@
CONST	SEGMENT DWORD USE32 PUBLIC 'CONST'
CONST	ENDS
;	COMDAT ?SetManager@CNilStringData@ATL@@QAEXPAUIAtlStringMgr@2@@Z
_TEXT	SEGMENT PARA USE32 PUBLIC 'CODE'
_TEXT	ENDS
;	COMDAT ??_C@_0BA@MLJMCNFJ@pStringMgr?5?$DN?$DN?50?$AA@
CONST	SEGMENT DWORD USE32 PUBLIC 'CONST'
CONST	ENDS
;	COMDAT ??0CNilStringData@ATL@@QAE@XZ
_TEXT	SEGMENT PARA USE32 PUBLIC 'CODE'
_TEXT	ENDS
;	COMDAT ??_7CAtlStringMgr@ATL@@6B@
CONST	SEGMENT DWORD USE32 PUBLIC 'CONST'
CONST	ENDS
;	COMDAT ?FindStringResourceInstance@?$StrTraitMFC_DLL@DV?$ChTraitsCRT@D@ATL@@@@SAPAUHINSTANCE__@@I@Z
_TEXT	SEGMENT PARA USE32 PUBLIC 'CODE'
_TEXT	ENDS
;	COMDAT ?AtlGetStringResourceImage@ATL@@YAPBUATLSTRINGRESOURCEIMAGE@1@PAUHINSTANCE__@@I@Z
_TEXT	SEGMENT PARA USE32 PUBLIC 'CODE'
_TEXT	ENDS
;	COMDAT ?_AtlGetStringResourceImage@ATL@@YAPBUATLSTRINGRESOURCEIMAGE@1@PAUHINSTANCE__@@PAUHRSRC__@@I@Z
_TEXT	SEGMENT PARA USE32 PUBLIC 'CODE'
_TEXT	ENDS
;	COMDAT ?GetBaseTypeLength@?$ChTraitsCRT@D@ATL@@SAHPB_WH@Z
_TEXT	SEGMENT PARA USE32 PUBLIC 'CODE'
_TEXT	ENDS
;	COMDAT ?ConvertToBaseType@?$ChTraitsCRT@D@ATL@@SAXPADHPB_WH@Z
_TEXT	SEGMENT PARA USE32 PUBLIC 'CODE'
_TEXT	ENDS
;	COMDAT ??_C@_0CJ@FJEKGMMD@Warning?3?5implicit?5LoadString?$CI?$CFu?$CJ@
CONST	SEGMENT DWORD USE32 PUBLIC 'CONST'
CONST	ENDS
sxdata	SEGMENT DWORD USE32 'SXDATA'
sxdata	ENDS
FLAT	GROUP _DATA, CONST, _BSS
	ASSUME	CS: FLAT, DS: FLAT, SS: FLAT
endif

INCLUDELIB MSVCRTD
INCLUDELIB OLDNAMES

PUBLIC	?c_bIsMFCDLLTraits@?$_MFCDLLTraitsCheck@DV?$StrTraitATL@DV?$ChTraitsCRT@D@ATL@@@ATL@@@_CSTRING_IMPL_@ATL@@2_NB ; ATL::_CSTRING_IMPL_::_MFCDLLTraitsCheck<char,ATL::StrTraitATL<char,ATL::ChTraitsCRT<char> > >::c_bIsMFCDLLTraits
PUBLIC	?g_pfnGetThreadACP@ATL@@3P6GIXZA		; ATL::g_pfnGetThreadACP
PUBLIC	?_AtlGetThreadACPThunk@ATL@@YGIXZ		; ATL::_AtlGetThreadACPThunk
PUBLIC	?_strthunks@ATL@@3U_AtlStringThunks@1@A		; ATL::_strthunks
PUBLIC	?c_bIsMFCDLLTraits@?$_MFCDLLTraitsCheck@_WV?$StrTraitATL@_WV?$ChTraitsCRT@_W@ATL@@@ATL@@@_CSTRING_IMPL_@ATL@@2_NB ; ATL::_CSTRING_IMPL_::_MFCDLLTraitsCheck<wchar_t,ATL::StrTraitATL<wchar_t,ATL::ChTraitsCRT<wchar_t> > >::c_bIsMFCDLLTraits
PUBLIC	?GetEnvironmentVariableWThunk@ATL@@YGKPB_WPA_WK@Z ; ATL::GetEnvironmentVariableWThunk
PUBLIC	?m_pSelf@CWebManager@@2PAV1@A			; CWebManager::m_pSelf
PUBLIC	?CompareStringWThunk@ATL@@YGHKKPB_WH0H@Z	; ATL::CompareStringWThunk
PUBLIC	?GetStringTypeExWThunk@ATL@@YGHKKPB_WHPAG@Z	; ATL::GetStringTypeExWThunk
PUBLIC	?lstrcmpiWThunk@ATL@@YGHPB_W0@Z			; ATL::lstrcmpiWThunk
PUBLIC	?CharLowerWThunk@ATL@@YGPA_WPA_W@Z		; ATL::CharLowerWThunk
PUBLIC	?CharUpperWThunk@ATL@@YGPA_WPA_W@Z		; ATL::CharUpperWThunk
_BSS	SEGMENT
?m_pSelf@CWebManager@@2PAV1@A DD 01H DUP (?)		; CWebManager::m_pSelf
_BSS	ENDS
;	COMDAT ?c_bIsMFCDLLTraits@?$_MFCDLLTraitsCheck@DV?$StrTraitATL@DV?$ChTraitsCRT@D@ATL@@@ATL@@@_CSTRING_IMPL_@ATL@@2_NB
CONST	SEGMENT
?c_bIsMFCDLLTraits@?$_MFCDLLTraitsCheck@DV?$StrTraitATL@DV?$ChTraitsCRT@D@ATL@@@ATL@@@_CSTRING_IMPL_@ATL@@2_NB DB 00H ; ATL::_CSTRING_IMPL_::_MFCDLLTraitsCheck<char,ATL::StrTraitATL<char,ATL::ChTraitsCRT<char> > >::c_bIsMFCDLLTraits
CONST	ENDS
;	COMDAT ?c_bIsMFCDLLTraits@?$_MFCDLLTraitsCheck@_WV?$StrTraitATL@_WV?$ChTraitsCRT@_W@ATL@@@ATL@@@_CSTRING_IMPL_@ATL@@2_NB
CONST	SEGMENT
?c_bIsMFCDLLTraits@?$_MFCDLLTraitsCheck@_WV?$StrTraitATL@_WV?$ChTraitsCRT@_W@ATL@@@ATL@@@_CSTRING_IMPL_@ATL@@2_NB DB 00H ; ATL::_CSTRING_IMPL_::_MFCDLLTraitsCheck<wchar_t,ATL::StrTraitATL<wchar_t,ATL::ChTraitsCRT<wchar_t> > >::c_bIsMFCDLLTraits
CONST	ENDS
CONST	SEGMENT
$SG190724 DB	'int', 00H
CONST	ENDS
_DATA	SEGMENT
_TYPE_CONFIG_INT DD FLAT:$SG190724
_DATA	ENDS
CONST	SEGMENT
$SG190726 DB	'str', 00H
CONST	ENDS
_DATA	SEGMENT
_TYPE_CONFIG_STR DD FLAT:$SG190726
_DATA	ENDS
CONST	SEGMENT
$SG190728 DB	'double', 00H
CONST	ENDS
_DATA	SEGMENT
_TYPE_CONFIG_DOUBLE DD FLAT:$SG190728
_DATA	ENDS
CONST	SEGMENT
	ORG $+1
$SG190730 DB	'bool', 00H
CONST	ENDS
_DATA	SEGMENT
_TYPE_CONFIG_BOOL DD FLAT:$SG190730
_DATA	ENDS
CONST	SEGMENT
	ORG $+3
$SG190732 DB	'sepint', 00H
CONST	ENDS
_DATA	SEGMENT
_TYPE_CONFIG_INT_HASSEP DD FLAT:$SG190732
_DATA	ENDS
CONST	SEGMENT
	ORG $+1
$SG190734 DB	'sepstr', 00H
CONST	ENDS
_DATA	SEGMENT
_TYPE_CONFIG_STR_HASSEP DD FLAT:$SG190734
_DATA	ENDS
CONST	SEGMENT
	ORG $+1
$SG190736 DB	'sepdouble', 00H
CONST	ENDS
_DATA	SEGMENT
_TYPE_CONFIG_DOUBLE_HASSEP DD FLAT:$SG190736
_DATA	ENDS
CONST	SEGMENT
	ORG $+2
$SG190738 DB	'sepbool', 00H
CONST	ENDS
_DATA	SEGMENT
_TYPE_CONFIG_BOOL_HASSEP DD FLAT:$SG190738
_DATA	ENDS
CONST	SEGMENT
$SG190740 DB	'Setting', 00H
CONST	ENDS
_DATA	SEGMENT
_CONF_SETTING_MODULE_NAME DD FLAT:$SG190740
_DATA	ENDS
CONST	SEGMENT
$SG190742 DB	'skin', 00H
CONST	ENDS
_DATA	SEGMENT
_CONF_SETTING_SKIN_IDX DD FLAT:$SG190742
_DATA	ENDS
CONST	SEGMENT
	ORG $+3
$SG190744 DB	'MainPage', 00H
CONST	ENDS
_DATA	SEGMENT
_CONF_SETTING_CONFIG_MAIN_PAGE DD FLAT:$SG190744
_DATA	ENDS
CONST	SEGMENT
	ORG $+3
$SG190746 DB	'ProblemReport', 00H
CONST	ENDS
_DATA	SEGMENT
_CONF_SETTING_CONFIG_PROBLEM_REPORT DD FLAT:$SG190746
_DATA	ENDS
CONST	SEGMENT
	ORG $+2
$SG190748 DB	'HomePage', 00H
CONST	ENDS
_DATA	SEGMENT
_CONF_SETTING_CONFIG_HOME_PAGE DD FLAT:$SG190748
_DATA	ENDS
CONST	SEGMENT
	ORG $+3
$SG190750 DB	'askexit', 00H
CONST	ENDS
_DATA	SEGMENT
_CONF_SETTING_CONFIG_IFASKEXIT DD FLAT:$SG190750
_DATA	ENDS
CONST	SEGMENT
$SG190752 DB	'exitchoice', 00H
CONST	ENDS
_DATA	SEGMENT
_CONF_SETTING_CONFIG_EXITCHOICE DD FLAT:$SG190752
_DATA	ENDS
CONST	SEGMENT
	ORG $+1
$SG190754 DB	'UN', 00H
CONST	ENDS
_DATA	SEGMENT
_CONF_SETTING_LOGIN_USER_NAME DD FLAT:$SG190754
_DATA	ENDS
CONST	SEGMENT
	ORG $+1
$SG190756 DB	'PW', 00H
CONST	ENDS
_DATA	SEGMENT
_CONF_SETTING_LOGIN_PASSWORD DD FLAT:$SG190756
_DATA	ENDS
CONST	SEGMENT
	ORG $+1
$SG190758 DB	'NetID', 00H
CONST	ENDS
_DATA	SEGMENT
_CONF_SETTING_NETID DD FLAT:$SG190758
_DATA	ENDS
CONST	SEGMENT
	ORG $+2
$SG190760 DB	'ChangeColorValue', 00H
CONST	ENDS
_DATA	SEGMENT
_CONF_SETTING_COLOR DD FLAT:$SG190760
_DATA	ENDS
CONST	SEGMENT
	ORG $+3
$SG190762 DB	'changeColorLight', 00H
CONST	ENDS
_DATA	SEGMENT
_CONF_SETTING_LIGHT DD FLAT:$SG190762
_DATA	ENDS
CONST	SEGMENT
	ORG $+3
$SG190764 DB	'ColorIndex', 00H
CONST	ENDS
_DATA	SEGMENT
_CONF_SETTING_COLOR_BTN_INDEX DD FLAT:$SG190764
_DATA	ENDS
CONST	SEGMENT
	ORG $+1
$SG190766 DB	'ColorUser', 00H
CONST	ENDS
_DATA	SEGMENT
_CONF_SETTING_COLOR_USER DD FLAT:$SG190766
_DATA	ENDS
CONST	SEGMENT
	ORG $+2
$SG190768 DB	'FirstTimeChangeSkin', 00H
CONST	ENDS
_DATA	SEGMENT
_CONF_SETTING_FIRST_TIME_CHANGESKIN DD FLAT:$SG190768
_DATA	ENDS
CONST	SEGMENT
$SG190775 DB	'App', 00H
CONST	ENDS
_DATA	SEGMENT
_CONF_APP_MODULE_NAME DD FLAT:$SG190775
_DATA	ENDS
CONST	SEGMENT
$SG190777 DB	'SwfPath', 00H
CONST	ENDS
_DATA	SEGMENT
_CONF_APP_SWF_PATH DD FLAT:$SG190777
_DATA	ENDS
CONST	SEGMENT
$SG190779 DB	'MainWndHold', 00H
CONST	ENDS
_DATA	SEGMENT
_CONF_APP_MAINWND_HOLD DD FLAT:$SG190779
_DATA	ENDS
CONST	SEGMENT
$SG190781 DB	'RunCount', 00H
CONST	ENDS
_DATA	SEGMENT
_CONF_APP_RUN_COUNT DD FLAT:$SG190781
_DATA	ENDS
CONST	SEGMENT
	ORG $+3
$SG190783 DB	'PlayedGame', 00H
CONST	ENDS
_DATA	SEGMENT
_CONF_APP_PLAYED_GAME DD FLAT:$SG190783
_DATA	ENDS
CONST	SEGMENT
	ORG $+1
$SG190785 DB	'playedPcGame', 00H
CONST	ENDS
_DATA	SEGMENT
_CONF_APP_PLAYED_PC_GAME DD FLAT:$SG190785
_DATA	ENDS
CONST	SEGMENT
	ORG $+3
$SG190787 DB	'PlayedIconSize', 00H
CONST	ENDS
_DATA	SEGMENT
_CONF_APP_PLAYED_ICON_SIZE DD FLAT:$SG190787
_DATA	ENDS
CONST	SEGMENT
	ORG $+1
$SG190789 DB	'PictureSavePath', 00H
CONST	ENDS
_DATA	SEGMENT
_CONF_APP_PIC_SAVE_PATH DD FLAT:$SG190789
_DATA	ENDS
CONST	SEGMENT
$SG191105 DB	'%s', 00H
	ORG $+1
$SG191106 DB	'CallKwMusic', 00H
$SG191107 DB	'KPlugin.txt', 00H
$SG191111 DB	0aH, 0aH, 00H
	ORG $+1
$SG191119 DB	0aH, 00H
$SG191123 DB	00H
	ORG $+1
$SG191127 DB	'method', 00H
	ORG $+1
$SG191129 DB	'flashgame', 00H
	ORG $+2
$SG191133 DB	'webgame', 00H
$SG191137 DB	'refresh', 00H
$SG191141 DB	'opennewtab', 00H
	ORG $+1
$SG191145 DB	'checkdlstatus', 00H
	ORG $+2
$SG191148 DB	0aH, 00H
	ORG $+2
$SG191665 DB	'url', 00H
$SG191667 DB	'res=ok', 0aH, 0aH, 00H
	ORG $+3
$SG191668 DB	'res=err', 0aH, 0aH, 00H
	ORG $+2
$SG191677 DB	'id', 00H
	ORG $+1
$SG191681 DB	'name', 00H
	ORG $+3
$SG191685 DB	'swfurl', 00H
	ORG $+1
$SG191697 DB	'.swf', 00H
	ORG $+3
$SG191703 DB	'PlaySwfGame:', 00H
	ORG $+3
$SG191706 DB	'PLAYGAME', 00H
	ORG $+3
$SG191707 DB	'res=ok', 0aH, 0aH, 00H
	ORG $+3
$SG191709 DB	'res=err', 0aH, 0aH, 00H
	ORG $+2
$SG191722 DB	'id', 00H
	ORG $+1
$SG191726 DB	'name', 00H
	ORG $+3
$SG191730 DB	'url', 00H
$SG191742 DB	'http://', 00H
$SG191748 DB	'PlayWebGame:', 00H
	ORG $+3
$SG191751 DB	'PLAYGAME', 00H
	ORG $+3
$SG191752 DB	'res=ok', 0aH, 0aH, 00H
	ORG $+3
$SG191753 DB	'res=err', 0aH, 0aH, 00H
	ORG $+2
$SG191762 DB	'id', 00H
	ORG $+1
$SG191766 DB	'name', 00H
	ORG $+3
$SG191770 DB	'infourl', 00H
$SG191772 DB	'param=%s', 00H
$SG191775 DB	00H
	ORG $+2
$SG191784 DB	'id', 00H
	ORG $+1
$SG191789 DB	'run', 00H
$SG191790 DB	'download', 00H
	ORG $+3
$SG191800 DB	'setdownloadpic', 00H
$SG191804 DB	00H
$SG191826 DB	0aH, 00H
$SG191830 DB	00H
	ORG $+1
$SG191835 DB	0aH, 00H
$SG191869 DB	00H
CONST	ENDS
;	COMDAT ?g_pfnGetThreadACP@ATL@@3P6GIXZA
_DATA	SEGMENT
?g_pfnGetThreadACP@ATL@@3P6GIXZA DD FLAT:?_AtlGetThreadACPThunk@ATL@@YGIXZ ; ATL::g_pfnGetThreadACP
_DATA	ENDS
;	COMDAT ?_strthunks@ATL@@3U_AtlStringThunks@1@A
_DATA	SEGMENT
?_strthunks@ATL@@3U_AtlStringThunks@1@A DD FLAT:?CompareStringWThunk@ATL@@YGHKKPB_WH0H@Z ; ATL::_strthunks
	DD	FLAT:?GetStringTypeExWThunk@ATL@@YGHKKPB_WHPAG@Z
	DD	FLAT:?lstrcmpiWThunk@ATL@@YGHPB_W0@Z
	DD	FLAT:?CharLowerWThunk@ATL@@YGPA_WPA_W@Z
	DD	FLAT:?CharUpperWThunk@ATL@@YGPA_WPA_W@Z
	DD	FLAT:?GetEnvironmentVariableWThunk@ATL@@YGKPB_WPA_WK@Z
_DATA	ENDS
CONST	SEGMENT
	ORG $+1
_ID_MESSAGE_REFRESH DD 04H
_ID_DATA_TABBAR DD 07H
_ID_DATA_LOCALGAME DD 0aH
CONST	ENDS
PUBLIC	?InterlockedExchangePointer@@YGPAXPAPAXPAX@Z	; InterlockedExchangePointer
PUBLIC	?_AtlGetThreadACPFake@ATL@@YGIXZ		; ATL::_AtlGetThreadACPFake
PUBLIC	?_AtlGetThreadACPReal@ATL@@YGIXZ		; ATL::_AtlGetThreadACPReal
EXTRN	__imp__GetVersionExA@4:NEAR
EXTRN	__RTC_InitBase:NEAR
EXTRN	__RTC_Shutdown:NEAR
EXTRN	__RTC_CheckEsp:NEAR
EXTRN	___security_cookie:DWORD
EXTRN	@_RTC_CheckStackVars@8:NEAR
EXTRN	@__security_check_cookie@4:NEAR
;	COMDAT rtc$IMZ
; File d:\program files (x86)\microsoft visual studio .net 2003\vc7\atlmfc\include\atlconv.h
rtc$IMZ	SEGMENT
__RTC_InitBase.rtc$IMZ DD FLAT:__RTC_InitBase
rtc$IMZ	ENDS
;	COMDAT rtc$TMZ
rtc$TMZ	SEGMENT
__RTC_Shutdown.rtc$TMZ DD FLAT:__RTC_Shutdown
; Function compile flags: /Odt /RTCsu
rtc$TMZ	ENDS
;	COMDAT ?_AtlGetThreadACPThunk@ATL@@YGIXZ
_TEXT	SEGMENT
_pfnGetThreadACP$ = -164				; size = 4
_ver$ = -156						; size = 148
__$ArrayPad$ = -4					; size = 4
__$ReturnAddr$ = 4					; size = 4
?_AtlGetThreadACPThunk@ATL@@YGIXZ PROC NEAR		; ATL::_AtlGetThreadACPThunk, COMDAT

; 134  : {

  00000	55		 push	 ebp
  00001	8b ec		 mov	 ebp, esp
  00003	81 ec a4 00 00
	00		 sub	 esp, 164		; 000000a4H
  00009	56		 push	 esi
  0000a	57		 push	 edi
  0000b	8d bd 5c ff ff
	ff		 lea	 edi, DWORD PTR [ebp-164]
  00011	b9 29 00 00 00	 mov	 ecx, 41			; 00000029H
  00016	b8 cc cc cc cc	 mov	 eax, -858993460		; ccccccccH
  0001b	f3 ab		 rep stosd
  0001d	a1 00 00 00 00	 mov	 eax, DWORD PTR ___security_cookie
  00022	89 45 fc	 mov	 DWORD PTR __$ArrayPad$[ebp], eax

; 135  : 	OSVERSIONINFO ver;
; 136  : 	ATLGETTHREADACP pfnGetThreadACP;
; 137  : 
; 138  : 	ver.dwOSVersionInfoSize = sizeof( ver );

  00025	c7 85 64 ff ff
	ff 94 00 00 00	 mov	 DWORD PTR _ver$[ebp], 148 ; 00000094H

; 139  : 	::GetVersionEx( &ver );

  0002f	8b f4		 mov	 esi, esp
  00031	8d 85 64 ff ff
	ff		 lea	 eax, DWORD PTR _ver$[ebp]
  00037	50		 push	 eax
  00038	ff 15 00 00 00
	00		 call	 DWORD PTR __imp__GetVersionExA@4
  0003e	3b f4		 cmp	 esi, esp
  00040	e8 00 00 00 00	 call	 __RTC_CheckEsp

; 140  : 	if( (ver.dwPlatformId == VER_PLATFORM_WIN32_NT) && (ver.dwMajorVersion >= 5) )

  00045	83 bd 74 ff ff
	ff 02		 cmp	 DWORD PTR _ver$[ebp+16], 2
  0004c	75 15		 jne	 SHORT $L24163
  0004e	83 bd 68 ff ff
	ff 05		 cmp	 DWORD PTR _ver$[ebp+4], 5
  00055	72 0c		 jb	 SHORT $L24163

; 141  : 	{
; 142  : 		// On Win2K, CP_THREAD_ACP is supported
; 143  : 		pfnGetThreadACP = _AtlGetThreadACPReal;

  00057	c7 85 5c ff ff
	ff 00 00 00 00	 mov	 DWORD PTR _pfnGetThreadACP$[ebp], OFFSET FLAT:?_AtlGetThreadACPReal@ATL@@YGIXZ ; ATL::_AtlGetThreadACPReal

; 144  : 	}
; 145  : 	else

  00061	eb 0a		 jmp	 SHORT $L24164
$L24163:

; 146  : 	{
; 147  : 		pfnGetThreadACP = _AtlGetThreadACPFake;

  00063	c7 85 5c ff ff
	ff 00 00 00 00	 mov	 DWORD PTR _pfnGetThreadACP$[ebp], OFFSET FLAT:?_AtlGetThreadACPFake@ATL@@YGIXZ ; ATL::_AtlGetThreadACPFake
$L24164:

; 148  : 	}
; 149  : 	InterlockedExchangePointer( reinterpret_cast< void** >(&g_pfnGetThreadACP), pfnGetThreadACP );

  0006d	8b 8d 5c ff ff
	ff		 mov	 ecx, DWORD PTR _pfnGetThreadACP$[ebp]
  00073	51		 push	 ecx
  00074	68 00 00 00 00	 push	 OFFSET FLAT:?g_pfnGetThreadACP@ATL@@3P6GIXZA ; ATL::g_pfnGetThreadACP
  00079	e8 00 00 00 00	 call	 ?InterlockedExchangePointer@@YGPAXPAPAXPAX@Z ; InterlockedExchangePointer

; 150  : 
; 151  : 	return( g_pfnGetThreadACP() );

  0007e	8b f4		 mov	 esi, esp
  00080	ff 15 00 00 00
	00		 call	 DWORD PTR ?g_pfnGetThreadACP@ATL@@3P6GIXZA ; ATL::g_pfnGetThreadACP
  00086	3b f4		 cmp	 esi, esp
  00088	e8 00 00 00 00	 call	 __RTC_CheckEsp

; 152  : }

  0008d	52		 push	 edx
  0008e	8b cd		 mov	 ecx, ebp
  00090	50		 push	 eax
  00091	8d 15 00 00 00
	00		 lea	 edx, DWORD PTR $L193156
  00097	e8 00 00 00 00	 call	 @_RTC_CheckStackVars@8
  0009c	58		 pop	 eax
  0009d	5a		 pop	 edx
  0009e	8b 4d fc	 mov	 ecx, DWORD PTR __$ArrayPad$[ebp]
  000a1	e8 00 00 00 00	 call	 @__security_check_cookie@4
  000a6	5f		 pop	 edi
  000a7	5e		 pop	 esi
  000a8	81 c4 a4 00 00
	00		 add	 esp, 164		; 000000a4H
  000ae	3b ec		 cmp	 ebp, esp
  000b0	e8 00 00 00 00	 call	 __RTC_CheckEsp
  000b5	8b e5		 mov	 esp, ebp
  000b7	5d		 pop	 ebp
  000b8	c3		 ret	 0
$L193156:
  000b9	01 00 00 00	 DD	 1
  000bd	00 00 00 00	 DD	 $L193155
$L193155:
  000c1	64 ff ff ff	 DD	 -156			; ffffff64H
  000c5	94 00 00 00	 DD	 148			; 00000094H
  000c9	00 00 00 00	 DD	 $L193152
$L193152:
  000cd	76		 DB	 118			; 00000076H
  000ce	65		 DB	 101			; 00000065H
  000cf	72		 DB	 114			; 00000072H
  000d0	00		 DB	 0
?_AtlGetThreadACPThunk@ATL@@YGIXZ ENDP			; ATL::_AtlGetThreadACPThunk
_TEXT	ENDS
EXTRN	__imp__InterlockedExchange@8:NEAR
; Function compile flags: /Odt /RTCsu
;	COMDAT ?InterlockedExchangePointer@@YGPAXPAPAXPAX@Z
_TEXT	SEGMENT
_pp$ = 8						; size = 4
_pNew$ = 12						; size = 4
?InterlockedExchangePointer@@YGPAXPAPAXPAX@Z PROC NEAR	; InterlockedExchangePointer, COMDAT

; 91   : {

  00000	55		 push	 ebp
  00001	8b ec		 mov	 ebp, esp
  00003	56		 push	 esi

; 92   : 	return( reinterpret_cast<void*>(static_cast<LONG_PTR>(::InterlockedExchange(reinterpret_cast<LONG*>(pp), static_cast<LONG>(reinterpret_cast<LONG_PTR>(pNew))))) );

  00004	8b f4		 mov	 esi, esp
  00006	8b 45 0c	 mov	 eax, DWORD PTR _pNew$[ebp]
  00009	50		 push	 eax
  0000a	8b 4d 08	 mov	 ecx, DWORD PTR _pp$[ebp]
  0000d	51		 push	 ecx
  0000e	ff 15 00 00 00
	00		 call	 DWORD PTR __imp__InterlockedExchange@8
  00014	3b f4		 cmp	 esi, esp
  00016	e8 00 00 00 00	 call	 __RTC_CheckEsp

; 93   : }

  0001b	5e		 pop	 esi
  0001c	3b ec		 cmp	 ebp, esp
  0001e	e8 00 00 00 00	 call	 __RTC_CheckEsp
  00023	5d		 pop	 ebp
  00024	c2 08 00	 ret	 8
?InterlockedExchangePointer@@YGPAXPAPAXPAX@Z ENDP	; InterlockedExchangePointer
_TEXT	ENDS
EXTRN	__imp__GetACP@0:NEAR
EXTRN	__imp__GetLocaleInfoA@16:NEAR
EXTRN	__imp__GetThreadLocale@0:NEAR
; Function compile flags: /Odt /RTCsu
;	COMDAT ?_AtlGetThreadACPFake@ATL@@YGIXZ
_TEXT	SEGMENT
_pch$24151 = -32					; size = 4
_szACP$ = -24						; size = 7
_lcidThread$ = -12					; size = 4
_nACP$ = -8						; size = 4
__$ArrayPad$ = -4					; size = 4
__$ReturnAddr$ = 4					; size = 4
?_AtlGetThreadACPFake@ATL@@YGIXZ PROC NEAR		; ATL::_AtlGetThreadACPFake, COMDAT

; 101  : {

  00000	55		 push	 ebp
  00001	8b ec		 mov	 ebp, esp
  00003	83 ec 20	 sub	 esp, 32			; 00000020H
  00006	56		 push	 esi
  00007	b8 cc cc cc cc	 mov	 eax, -858993460		; ccccccccH
  0000c	89 45 e0	 mov	 DWORD PTR [ebp-32], eax
  0000f	89 45 e4	 mov	 DWORD PTR [ebp-28], eax
  00012	89 45 e8	 mov	 DWORD PTR [ebp-24], eax
  00015	89 45 ec	 mov	 DWORD PTR [ebp-20], eax
  00018	89 45 f0	 mov	 DWORD PTR [ebp-16], eax
  0001b	89 45 f4	 mov	 DWORD PTR [ebp-12], eax
  0001e	89 45 f8	 mov	 DWORD PTR [ebp-8], eax
  00021	89 45 fc	 mov	 DWORD PTR [ebp-4], eax
  00024	a1 00 00 00 00	 mov	 eax, DWORD PTR ___security_cookie
  00029	89 45 fc	 mov	 DWORD PTR __$ArrayPad$[ebp], eax

; 102  : 	UINT nACP = 0;

  0002c	c7 45 f8 00 00
	00 00		 mov	 DWORD PTR _nACP$[ebp], 0

; 103  : 
; 104  : 	LCID lcidThread = ::GetThreadLocale();

  00033	8b f4		 mov	 esi, esp
  00035	ff 15 00 00 00
	00		 call	 DWORD PTR __imp__GetThreadLocale@0
  0003b	3b f4		 cmp	 esi, esp
  0003d	e8 00 00 00 00	 call	 __RTC_CheckEsp
  00042	89 45 f4	 mov	 DWORD PTR _lcidThread$[ebp], eax

; 105  : 
; 106  : 	char szACP[7];
; 107  : 	// GetLocaleInfoA will fail for a Unicode-only LCID, but those are only supported on 
; 108  : 	// Windows 2000.  Since Windows 2000 supports CP_THREAD_ACP, this code path is never
; 109  : 	// executed on Windows 2000.
; 110  : 	if (::GetLocaleInfoA(lcidThread, LOCALE_IDEFAULTANSICODEPAGE, szACP, 7) != 0)

  00045	8b f4		 mov	 esi, esp
  00047	6a 07		 push	 7
  00049	8d 45 e8	 lea	 eax, DWORD PTR _szACP$[ebp]
  0004c	50		 push	 eax
  0004d	68 04 10 00 00	 push	 4100			; 00001004H
  00052	8b 4d f4	 mov	 ecx, DWORD PTR _lcidThread$[ebp]
  00055	51		 push	 ecx
  00056	ff 15 00 00 00
	00		 call	 DWORD PTR __imp__GetLocaleInfoA@16
  0005c	3b f4		 cmp	 esi, esp
  0005e	e8 00 00 00 00	 call	 __RTC_CheckEsp
  00063	85 c0		 test	 eax, eax
  00065	74 34		 je	 SHORT $L24150

; 111  : 	{
; 112  : 		char* pch = szACP;

  00067	8d 55 e8	 lea	 edx, DWORD PTR _szACP$[ebp]
  0006a	89 55 e0	 mov	 DWORD PTR _pch$24151[ebp], edx
$L24153:

; 113  : 		while (*pch != '\0')

  0006d	8b 45 e0	 mov	 eax, DWORD PTR _pch$24151[ebp]
  00070	0f be 08	 movsx	 ecx, BYTE PTR [eax]
  00073	85 c9		 test	 ecx, ecx
  00075	74 24		 je	 SHORT $L24150

; 114  : 		{
; 115  : 			nACP *= 10;

  00077	8b 55 f8	 mov	 edx, DWORD PTR _nACP$[ebp]
  0007a	6b d2 0a	 imul	 edx, 10			; 0000000aH
  0007d	89 55 f8	 mov	 DWORD PTR _nACP$[ebp], edx

; 116  : 			nACP += *pch++ - '0';

  00080	8b 45 e0	 mov	 eax, DWORD PTR _pch$24151[ebp]
  00083	0f be 08	 movsx	 ecx, BYTE PTR [eax]
  00086	8b 55 f8	 mov	 edx, DWORD PTR _nACP$[ebp]
  00089	8d 44 0a d0	 lea	 eax, DWORD PTR [edx+ecx-48]
  0008d	89 45 f8	 mov	 DWORD PTR _nACP$[ebp], eax
  00090	8b 4d e0	 mov	 ecx, DWORD PTR _pch$24151[ebp]
  00093	83 c1 01	 add	 ecx, 1
  00096	89 4d e0	 mov	 DWORD PTR _pch$24151[ebp], ecx

; 117  : 		}

  00099	eb d2		 jmp	 SHORT $L24153
$L24150:

; 118  : 	}
; 119  : 	// Use the Default ANSI Code Page if we were unable to get the thread ACP or if one does not exist.
; 120  : 	if (nACP == 0)

  0009b	83 7d f8 00	 cmp	 DWORD PTR _nACP$[ebp], 0
  0009f	75 12		 jne	 SHORT $L24155

; 121  : 		nACP = ::GetACP();

  000a1	8b f4		 mov	 esi, esp
  000a3	ff 15 00 00 00
	00		 call	 DWORD PTR __imp__GetACP@0
  000a9	3b f4		 cmp	 esi, esp
  000ab	e8 00 00 00 00	 call	 __RTC_CheckEsp
  000b0	89 45 f8	 mov	 DWORD PTR _nACP$[ebp], eax
$L24155:

; 122  : 
; 123  : 	return nACP;

  000b3	8b 45 f8	 mov	 eax, DWORD PTR _nACP$[ebp]

; 124  : }

  000b6	52		 push	 edx
  000b7	8b cd		 mov	 ecx, ebp
  000b9	50		 push	 eax
  000ba	8d 15 00 00 00
	00		 lea	 edx, DWORD PTR $L193167
  000c0	e8 00 00 00 00	 call	 @_RTC_CheckStackVars@8
  000c5	58		 pop	 eax
  000c6	5a		 pop	 edx
  000c7	8b 4d fc	 mov	 ecx, DWORD PTR __$ArrayPad$[ebp]
  000ca	e8 00 00 00 00	 call	 @__security_check_cookie@4
  000cf	5e		 pop	 esi
  000d0	83 c4 20	 add	 esp, 32			; 00000020H
  000d3	3b ec		 cmp	 ebp, esp
  000d5	e8 00 00 00 00	 call	 __RTC_CheckEsp
  000da	8b e5		 mov	 esp, ebp
  000dc	5d		 pop	 ebp
  000dd	c3		 ret	 0
$L193167:
  000de	01 00 00 00	 DD	 1
  000e2	00 00 00 00	 DD	 $L193166
$L193166:
  000e6	e8 ff ff ff	 DD	 -24			; ffffffe8H
  000ea	07 00 00 00	 DD	 7
  000ee	00 00 00 00	 DD	 $L193164
$L193164:
  000f2	73		 DB	 115			; 00000073H
  000f3	7a		 DB	 122			; 0000007aH
  000f4	41		 DB	 65			; 00000041H
  000f5	43		 DB	 67			; 00000043H
  000f6	50		 DB	 80			; 00000050H
  000f7	00		 DB	 0
?_AtlGetThreadACPFake@ATL@@YGIXZ ENDP			; ATL::_AtlGetThreadACPFake
; Function compile flags: /Odt /RTCsu
_TEXT	ENDS
;	COMDAT ?_AtlGetThreadACPReal@ATL@@YGIXZ
_TEXT	SEGMENT
?_AtlGetThreadACPReal@ATL@@YGIXZ PROC NEAR		; ATL::_AtlGetThreadACPReal, COMDAT

; 127  : {

  00000	55		 push	 ebp
  00001	8b ec		 mov	 ebp, esp

; 128  : 	return( CP_THREAD_ACP );

  00003	b8 03 00 00 00	 mov	 eax, 3

; 129  : }

  00008	5d		 pop	 ebp
  00009	c3		 ret	 0
?_AtlGetThreadACPReal@ATL@@YGIXZ ENDP			; ATL::_AtlGetThreadACPReal
_TEXT	ENDS
PUBLIC	??0CWebManager@@QAE@XZ				; CWebManager::CWebManager
EXTRN	??0CWebPage@@QAE@XZ:NEAR			; CWebPage::CWebPage
; Function compile flags: /Odt /RTCsu
; File d:\boxgit\playbox\playbox\dev\prj\playbox\src\module\webinteract\webmanager.cpp
_TEXT	SEGMENT
_this$ = -4						; size = 4
??0CWebManager@@QAE@XZ PROC NEAR			; CWebManager::CWebManager
; _this$ = ecx

; 18   : {

  00000	55		 push	 ebp
  00001	8b ec		 mov	 ebp, esp
  00003	51		 push	 ecx
  00004	c7 45 fc cc cc
	cc cc		 mov	 DWORD PTR [ebp-4], -858993460 ; ccccccccH
  0000b	89 4d fc	 mov	 DWORD PTR _this$[ebp], ecx
  0000e	8b 4d fc	 mov	 ecx, DWORD PTR _this$[ebp]
  00011	e8 00 00 00 00	 call	 ??0CWebPage@@QAE@XZ	; CWebPage::CWebPage

; 19   : }

  00016	8b 45 fc	 mov	 eax, DWORD PTR _this$[ebp]
  00019	83 c4 04	 add	 esp, 4
  0001c	3b ec		 cmp	 ebp, esp
  0001e	e8 00 00 00 00	 call	 __RTC_CheckEsp
  00023	8b e5		 mov	 esp, ebp
  00025	5d		 pop	 ebp
  00026	c3		 ret	 0
??0CWebManager@@QAE@XZ ENDP				; CWebManager::CWebManager
_TEXT	ENDS
PUBLIC	??1CWebManager@@QAE@XZ				; CWebManager::~CWebManager
EXTRN	??1CWebPage@@UAE@XZ:NEAR			; CWebPage::~CWebPage
; Function compile flags: /Odt /RTCsu
_TEXT	SEGMENT
_this$ = -4						; size = 4
??1CWebManager@@QAE@XZ PROC NEAR			; CWebManager::~CWebManager
; _this$ = ecx

; 21   : {

  00030	55		 push	 ebp
  00031	8b ec		 mov	 ebp, esp
  00033	51		 push	 ecx
  00034	c7 45 fc cc cc
	cc cc		 mov	 DWORD PTR [ebp-4], -858993460 ; ccccccccH
  0003b	89 4d fc	 mov	 DWORD PTR _this$[ebp], ecx

; 22   : }

  0003e	8b 4d fc	 mov	 ecx, DWORD PTR _this$[ebp]
  00041	e8 00 00 00 00	 call	 ??1CWebPage@@UAE@XZ	; CWebPage::~CWebPage
  00046	83 c4 04	 add	 esp, 4
  00049	3b ec		 cmp	 ebp, esp
  0004b	e8 00 00 00 00	 call	 __RTC_CheckEsp
  00050	8b e5		 mov	 esp, ebp
  00052	5d		 pop	 ebp
  00053	c3		 ret	 0
??1CWebManager@@QAE@XZ ENDP				; CWebManager::~CWebManager
_TEXT	ENDS
PUBLIC	?GetInstance@CWebManager@@SAPAV1@XZ		; CWebManager::GetInstance
EXTRN	??2@YAPAXI@Z:NEAR				; operator new
EXTRN	??3@YAXPAX@Z:NEAR				; operator delete
EXTRN	__except_list:DWORD
EXTRN	___CxxFrameHandler:NEAR
xdata$x	SEGMENT
$T193185 DD	0ffffffffH
	DD	FLAT:$L193178
$T193182 DD	019930520H
	DD	01H
	DD	FLAT:$T193185
	DD	2 DUP(00H)
	DD	2 DUP(00H)
; Function compile flags: /Odt /RTCsu
xdata$x	ENDS
_TEXT	SEGMENT
tv72 = -24						; size = 4
$T193175 = -20						; size = 4
$T193174 = -16						; size = 4
__$EHRec$ = -12						; size = 12
?GetInstance@CWebManager@@SAPAV1@XZ PROC NEAR		; CWebManager::GetInstance

; 25   : {	

  00060	55		 push	 ebp
  00061	8b ec		 mov	 ebp, esp
  00063	6a ff		 push	 -1
  00065	68 00 00 00 00	 push	 __ehhandler$?GetInstance@CWebManager@@SAPAV1@XZ
  0006a	64 a1 00 00 00
	00		 mov	 eax, DWORD PTR fs:__except_list
  00070	50		 push	 eax
  00071	64 89 25 00 00
	00 00		 mov	 DWORD PTR fs:__except_list, esp
  00078	83 ec 0c	 sub	 esp, 12			; 0000000cH
  0007b	c7 45 e8 cc cc
	cc cc		 mov	 DWORD PTR [ebp-24], -858993460 ; ccccccccH
  00082	c7 45 ec cc cc
	cc cc		 mov	 DWORD PTR [ebp-20], -858993460 ; ccccccccH
  00089	c7 45 f0 cc cc
	cc cc		 mov	 DWORD PTR [ebp-16], -858993460 ; ccccccccH

; 26   : 	if( m_pSelf == NULL )

  00090	83 3d 00 00 00
	00 00		 cmp	 DWORD PTR ?m_pSelf@CWebManager@@2PAV1@A, 0 ; CWebManager::m_pSelf
  00097	75 44		 jne	 SHORT $L191084

; 27   : 	{
; 28   : 		m_pSelf = new CWebManager();

  00099	6a 0c		 push	 12			; 0000000cH
  0009b	e8 00 00 00 00	 call	 ??2@YAPAXI@Z		; operator new
  000a0	83 c4 04	 add	 esp, 4
  000a3	89 45 ec	 mov	 DWORD PTR $T193175[ebp], eax
  000a6	c7 45 fc 00 00
	00 00		 mov	 DWORD PTR __$EHRec$[ebp+8], 0
  000ad	83 7d ec 00	 cmp	 DWORD PTR $T193175[ebp], 0
  000b1	74 0d		 je	 SHORT $L193176
  000b3	8b 4d ec	 mov	 ecx, DWORD PTR $T193175[ebp]
  000b6	e8 00 00 00 00	 call	 ??0CWebManager@@QAE@XZ	; CWebManager::CWebManager
  000bb	89 45 e8	 mov	 DWORD PTR tv72[ebp], eax
  000be	eb 07		 jmp	 SHORT $L193177
$L193176:
  000c0	c7 45 e8 00 00
	00 00		 mov	 DWORD PTR tv72[ebp], 0
$L193177:
  000c7	8b 45 e8	 mov	 eax, DWORD PTR tv72[ebp]
  000ca	89 45 f0	 mov	 DWORD PTR $T193174[ebp], eax
  000cd	c7 45 fc ff ff
	ff ff		 mov	 DWORD PTR __$EHRec$[ebp+8], -1
  000d4	8b 4d f0	 mov	 ecx, DWORD PTR $T193174[ebp]
  000d7	89 0d 00 00 00
	00		 mov	 DWORD PTR ?m_pSelf@CWebManager@@2PAV1@A, ecx ; CWebManager::m_pSelf
$L191084:

; 29   : 	}
; 30   : 	return m_pSelf;

  000dd	a1 00 00 00 00	 mov	 eax, DWORD PTR ?m_pSelf@CWebManager@@2PAV1@A ; CWebManager::m_pSelf

; 31   : }

  000e2	8b 4d f4	 mov	 ecx, DWORD PTR __$EHRec$[ebp]
  000e5	64 89 0d 00 00
	00 00		 mov	 DWORD PTR fs:__except_list, ecx
  000ec	83 c4 18	 add	 esp, 24			; 00000018H
  000ef	3b ec		 cmp	 ebp, esp
  000f1	e8 00 00 00 00	 call	 __RTC_CheckEsp
  000f6	8b e5		 mov	 esp, ebp
  000f8	5d		 pop	 ebp
  000f9	c3		 ret	 0
_TEXT	ENDS
text$x	SEGMENT
$L193178:
  00000	8b 45 ec	 mov	 eax, DWORD PTR $T193175[ebp]
  00003	50		 push	 eax
  00004	e8 00 00 00 00	 call	 ??3@YAXPAX@Z		; operator delete
  00009	59		 pop	 ecx
  0000a	c3		 ret	 0
__ehhandler$?GetInstance@CWebManager@@SAPAV1@XZ:
  0000b	b8 00 00 00 00	 mov	 eax, OFFSET FLAT:$T193182
  00010	e9 00 00 00 00	 jmp	 ___CxxFrameHandler
text$x	ENDS
?GetInstance@CWebManager@@SAPAV1@XZ ENDP		; CWebManager::GetInstance
PUBLIC	?DelInstance@CWebManager@@SAXXZ			; CWebManager::DelInstance
PUBLIC	??_GCWebManager@@QAEPAXI@Z			; CWebManager::`scalar deleting destructor'
; Function compile flags: /Odt /RTCsu
_TEXT	SEGMENT
tv69 = -12						; size = 4
$T193189 = -8						; size = 4
$T193188 = -4						; size = 4
?DelInstance@CWebManager@@SAXXZ PROC NEAR		; CWebManager::DelInstance

; 34   : {

  00100	55		 push	 ebp
  00101	8b ec		 mov	 ebp, esp
  00103	83 ec 0c	 sub	 esp, 12			; 0000000cH
  00106	c7 45 f4 cc cc
	cc cc		 mov	 DWORD PTR [ebp-12], -858993460 ; ccccccccH
  0010d	c7 45 f8 cc cc
	cc cc		 mov	 DWORD PTR [ebp-8], -858993460 ; ccccccccH
  00114	c7 45 fc cc cc
	cc cc		 mov	 DWORD PTR [ebp-4], -858993460 ; ccccccccH

; 35   : 	if( m_pSelf != NULL )

  0011b	83 3d 00 00 00
	00 00		 cmp	 DWORD PTR ?m_pSelf@CWebManager@@2PAV1@A, 0 ; CWebManager::m_pSelf
  00122	74 2a		 je	 SHORT $L191090

; 36   : 	{
; 37   : 		delete m_pSelf;

  00124	a1 00 00 00 00	 mov	 eax, DWORD PTR ?m_pSelf@CWebManager@@2PAV1@A ; CWebManager::m_pSelf
  00129	89 45 f8	 mov	 DWORD PTR $T193189[ebp], eax
  0012c	8b 4d f8	 mov	 ecx, DWORD PTR $T193189[ebp]
  0012f	89 4d fc	 mov	 DWORD PTR $T193188[ebp], ecx
  00132	83 7d fc 00	 cmp	 DWORD PTR $T193188[ebp], 0
  00136	74 0f		 je	 SHORT $L193190
  00138	6a 01		 push	 1
  0013a	8b 4d fc	 mov	 ecx, DWORD PTR $T193188[ebp]
  0013d	e8 00 00 00 00	 call	 ??_GCWebManager@@QAEPAXI@Z
  00142	89 45 f4	 mov	 DWORD PTR tv69[ebp], eax
  00145	eb 07		 jmp	 SHORT $L191090
$L193190:
  00147	c7 45 f4 00 00
	00 00		 mov	 DWORD PTR tv69[ebp], 0
$L191090:

; 38   : 	}
; 39   : }

  0014e	83 c4 0c	 add	 esp, 12			; 0000000cH
  00151	3b ec		 cmp	 ebp, esp
  00153	e8 00 00 00 00	 call	 __RTC_CheckEsp
  00158	8b e5		 mov	 esp, ebp
  0015a	5d		 pop	 ebp
  0015b	c3		 ret	 0
?DelInstance@CWebManager@@SAXXZ ENDP			; CWebManager::DelInstance
; Function compile flags: /Odt /RTCsu
_TEXT	ENDS
;	COMDAT ??_GCWebManager@@QAEPAXI@Z
_TEXT	SEGMENT
_this$ = -4						; size = 4
___flags$ = 8						; size = 4
??_GCWebManager@@QAEPAXI@Z PROC NEAR			; CWebManager::`scalar deleting destructor', COMDAT
; _this$ = ecx
  00000	55		 push	 ebp
  00001	8b ec		 mov	 ebp, esp
  00003	51		 push	 ecx
  00004	c7 45 fc cc cc
	cc cc		 mov	 DWORD PTR [ebp-4], -858993460 ; ccccccccH
  0000b	89 4d fc	 mov	 DWORD PTR _this$[ebp], ecx
  0000e	8b 4d fc	 mov	 ecx, DWORD PTR _this$[ebp]
  00011	e8 00 00 00 00	 call	 ??1CWebManager@@QAE@XZ	; CWebManager::~CWebManager
  00016	8b 45 08	 mov	 eax, DWORD PTR ___flags$[ebp]
  00019	83 e0 01	 and	 eax, 1
  0001c	74 0c		 je	 SHORT $L191097
  0001e	8b 4d fc	 mov	 ecx, DWORD PTR _this$[ebp]
  00021	51		 push	 ecx
  00022	e8 00 00 00 00	 call	 ??3@YAXPAX@Z		; operator delete
  00027	83 c4 04	 add	 esp, 4
$L191097:
  0002a	8b 45 fc	 mov	 eax, DWORD PTR _this$[ebp]
  0002d	83 c4 04	 add	 esp, 4
  00030	3b ec		 cmp	 ebp, esp
  00032	e8 00 00 00 00	 call	 __RTC_CheckEsp
  00037	8b e5		 mov	 esp, ebp
  00039	5d		 pop	 ebp
  0003a	c2 04 00	 ret	 4
??_GCWebManager@@QAEPAXI@Z ENDP				; CWebManager::`scalar deleting destructor'
_TEXT	ENDS
PUBLIC	??8ATL@@YA_NABV?$CStringT@DV?$StrTraitMFC_DLL@DV?$ChTraitsCRT@D@ATL@@@@@0@PBD@Z ; ATL::operator==
PUBLIC	??9ATL@@YA_NABV?$CStringT@DV?$StrTraitMFC_DLL@DV?$ChTraitsCRT@D@ATL@@@@@0@PBD@Z ; ATL::operator!=
PUBLIC	?CallGBoxFromWeb@CWebManager@@QAEXABV?$basic_string@DU?$char_traits@D@std@@V?$allocator@D@2@@std@@AAV23@@Z ; CWebManager::CallGBoxFromWeb
PUBLIC	?_string_help@CWebManager@@AAEXABV?$CStringT@DV?$StrTraitMFC_DLL@DV?$ChTraitsCRT@D@ATL@@@@@ATL@@AAV23@1@Z ; CWebManager::_string_help
PUBLIC	?_command_playswfgame@CWebManager@@AAE?AV?$basic_string@DU?$char_traits@D@std@@V?$allocator@D@2@@std@@AAV23@@Z ; CWebManager::_command_playswfgame
PUBLIC	?_command_playwebgame@CWebManager@@AAE?AV?$basic_string@DU?$char_traits@D@std@@V?$allocator@D@2@@std@@AAV23@@Z ; CWebManager::_command_playwebgame
PUBLIC	?_command_refresh@CWebManager@@AAE?AV?$basic_string@DU?$char_traits@D@std@@V?$allocator@D@2@@std@@AAV23@@Z ; CWebManager::_command_refresh
PUBLIC	?_command_opennewtab@CWebManager@@AAE?AV?$basic_string@DU?$char_traits@D@std@@V?$allocator@D@2@@std@@AAV23@@Z ; CWebManager::_command_opennewtab
PUBLIC	?_command_checkdlstatus@CWebManager@@AAE?AV?$basic_string@DU?$char_traits@D@std@@V?$allocator@D@2@@std@@AAV23@@Z ; CWebManager::_command_checkdlstatus
EXTRN	__imp_??0?$basic_string@DU?$char_traits@D@std@@V?$allocator@D@2@@std@@QAE@XZ:NEAR
EXTRN	__imp_??0?$basic_string@DU?$char_traits@D@std@@V?$allocator@D@2@@std@@QAE@PBD@Z:NEAR
EXTRN	__imp_??1?$basic_string@DU?$char_traits@D@std@@V?$allocator@D@2@@std@@QAE@XZ:NEAR
EXTRN	__imp_?npos@?$basic_string@DU?$char_traits@D@std@@V?$allocator@D@2@@std@@2IB:DWORD
EXTRN	__imp_??4?$basic_string@DU?$char_traits@D@std@@V?$allocator@D@2@@std@@QAEAAV01@ABV01@@Z:NEAR
EXTRN	__imp_?YL_Log@@YAXABV?$basic_string@DU?$char_traits@D@std@@V?$allocator@D@2@@std@@H0PBDZZ:NEAR
EXTRN	__imp_?c_str@?$basic_string@DU?$char_traits@D@std@@V?$allocator@D@2@@std@@QBEPBDXZ:NEAR
EXTRN	__imp_??0?$CStringT@DV?$StrTraitMFC_DLL@DV?$ChTraitsCRT@D@ATL@@@@@ATL@@QAE@XZ:NEAR
EXTRN	__imp_??0?$CStringT@DV?$StrTraitMFC_DLL@DV?$ChTraitsCRT@D@ATL@@@@@ATL@@QAE@PBD@Z:NEAR
EXTRN	__imp_?find@?$basic_string@DU?$char_traits@D@std@@V?$allocator@D@2@@std@@QBEIPBDI@Z:NEAR
EXTRN	__imp_??1?$CStringT@DV?$StrTraitMFC_DLL@DV?$ChTraitsCRT@D@ATL@@@@@ATL@@QAE@XZ:NEAR
EXTRN	__imp_??4?$CStringT@DV?$StrTraitMFC_DLL@DV?$ChTraitsCRT@D@ATL@@@@@ATL@@QAEAAV01@ABV01@@Z:NEAR
EXTRN	__imp_?substr@?$basic_string@DU?$char_traits@D@std@@V?$allocator@D@2@@std@@QBE?AV12@II@Z:NEAR
EXTRN	__imp_?Tokenize@?$CStringT@DV?$StrTraitMFC_DLL@DV?$ChTraitsCRT@D@ATL@@@@@ATL@@QBE?AV12@PBDAAH@Z:NEAR
xdata$x	SEGMENT
$T193236 DD	0ffffffffH
	DD	FLAT:$L193206
	DD	00H
	DD	FLAT:$L193207
	DD	0ffffffffH
	DD	FLAT:$L193208
	DD	02H
	DD	FLAT:$L193209
	DD	03H
	DD	FLAT:$L193210
	DD	03H
	DD	FLAT:$L193211
	DD	03H
	DD	FLAT:$L193212
	DD	06H
	DD	FLAT:$L193213
	DD	07H
	DD	FLAT:$L193214
	DD	07H
	DD	FLAT:$L193215
	DD	09H
	DD	FLAT:$L193216
	DD	0aH
	DD	FLAT:$L193217
	DD	0aH
	DD	FLAT:$L193218
	DD	0aH
	DD	FLAT:$L193219
	DD	0aH
	DD	FLAT:$L193220
	DD	0aH
	DD	FLAT:$L193221
	DD	0aH
	DD	FLAT:$L193222
$T193224 DD	019930520H
	DD	011H
	DD	FLAT:$T193236
	DD	2 DUP(00H)
	DD	2 DUP(00H)
; Function compile flags: /Odt /RTCsu
xdata$x	ENDS
_TEXT	SEGMENT
tv310 = -488						; size = 4
tv343 = -484						; size = 4
tv302 = -480						; size = 4
tv340 = -476						; size = 4
tv294 = -472						; size = 4
tv337 = -468						; size = 4
tv286 = -464						; size = 4
tv334 = -460						; size = 4
tv278 = -456						; size = 4
tv331 = -452						; size = 4
tv270 = -448						; size = 4
tv328 = -444						; size = 4
tv266 = -440						; size = 4
tv323 = -436						; size = 4
tv262 = -432						; size = 4
tv318 = -428						; size = 4
tv260 = -424						; size = 4
tv315 = -420						; size = 4
$T193205 = -416						; size = 4
$T193204 = -412						; size = 28
$T193203 = -384						; size = 28
$T193202 = -356						; size = 28
$T193201 = -328						; size = 28
$T193200 = -300						; size = 28
$T193199 = -272						; size = 4
$T193198 = -268						; size = 28
$T193197 = -240						; size = 28
$T193196 = -212						; size = 28
$T193195 = -184						; size = 28
_strRight$191125 = -152					; size = 4
_strLeft$191124 = -140					; size = 4
_curPos$ = -128						; size = 4
_resToken$ = -116					; size = 4
_str$ = -104						; size = 4
_iHeader$ = -96						; size = 4
_strContent$ = -88					; size = 28
_strHeader$ = -52					; size = 28
_this$ = -20						; size = 4
__$ArrayPad$ = -16					; size = 4
__$EHRec$ = -12						; size = 12
__$ReturnAddr$ = 4					; size = 4
_strCommand$ = 8					; size = 4
_strRes$ = 12						; size = 4
?CallGBoxFromWeb@CWebManager@@QAEXABV?$basic_string@DU?$char_traits@D@std@@V?$allocator@D@2@@std@@AAV23@@Z PROC NEAR ; CWebManager::CallGBoxFromWeb
; _this$ = ecx

; 42   : {

  00160	55		 push	 ebp
  00161	8b ec		 mov	 ebp, esp
  00163	6a ff		 push	 -1
  00165	68 00 00 00 00	 push	 __ehhandler$?CallGBoxFromWeb@CWebManager@@QAEXABV?$basic_string@DU?$char_traits@D@std@@V?$allocator@D@2@@std@@AAV23@@Z
  0016a	64 a1 00 00 00
	00		 mov	 eax, DWORD PTR fs:__except_list
  00170	50		 push	 eax
  00171	64 89 25 00 00
	00 00		 mov	 DWORD PTR fs:__except_list, esp
  00178	81 ec dc 01 00
	00		 sub	 esp, 476		; 000001dcH
  0017e	56		 push	 esi
  0017f	57		 push	 edi
  00180	51		 push	 ecx
  00181	8d bd 18 fe ff
	ff		 lea	 edi, DWORD PTR [ebp-488]
  00187	b9 77 00 00 00	 mov	 ecx, 119		; 00000077H
  0018c	b8 cc cc cc cc	 mov	 eax, -858993460		; ccccccccH
  00191	f3 ab		 rep stosd
  00193	59		 pop	 ecx
  00194	a1 00 00 00 00	 mov	 eax, DWORD PTR ___security_cookie
  00199	89 45 f0	 mov	 DWORD PTR __$ArrayPad$[ebp], eax
  0019c	89 4d ec	 mov	 DWORD PTR _this$[ebp], ecx

; 43   : 	YL_Log("KPlugin.txt",LOG_DEBUG,"CallKwMusic","%s",strCommand.c_str() );

  0019f	8b f4		 mov	 esi, esp
  001a1	68 00 00 00 00	 push	 OFFSET FLAT:$SG191106
  001a6	8d 8d 48 ff ff
	ff		 lea	 ecx, DWORD PTR $T193195[ebp]
  001ac	ff 15 00 00 00
	00		 call	 DWORD PTR __imp_??0?$basic_string@DU?$char_traits@D@std@@V?$allocator@D@2@@std@@QAE@PBD@Z
  001b2	3b f4		 cmp	 esi, esp
  001b4	e8 00 00 00 00	 call	 __RTC_CheckEsp
  001b9	c7 45 fc 00 00
	00 00		 mov	 DWORD PTR __$EHRec$[ebp+8], 0
  001c0	8b f4		 mov	 esi, esp
  001c2	68 00 00 00 00	 push	 OFFSET FLAT:$SG191107
  001c7	8d 8d 2c ff ff
	ff		 lea	 ecx, DWORD PTR $T193196[ebp]
  001cd	ff 15 00 00 00
	00		 call	 DWORD PTR __imp_??0?$basic_string@DU?$char_traits@D@std@@V?$allocator@D@2@@std@@QAE@PBD@Z
  001d3	3b f4		 cmp	 esi, esp
  001d5	e8 00 00 00 00	 call	 __RTC_CheckEsp
  001da	c6 45 fc 01	 mov	 BYTE PTR __$EHRec$[ebp+8], 1
  001de	8b f4		 mov	 esi, esp
  001e0	8b 4d 08	 mov	 ecx, DWORD PTR _strCommand$[ebp]
  001e3	ff 15 00 00 00
	00		 call	 DWORD PTR __imp_?c_str@?$basic_string@DU?$char_traits@D@std@@V?$allocator@D@2@@std@@QBEPBDXZ
  001e9	3b f4		 cmp	 esi, esp
  001eb	e8 00 00 00 00	 call	 __RTC_CheckEsp
  001f0	8b f4		 mov	 esi, esp
  001f2	50		 push	 eax
  001f3	68 00 00 00 00	 push	 OFFSET FLAT:$SG191105
  001f8	8d 85 48 ff ff
	ff		 lea	 eax, DWORD PTR $T193195[ebp]
  001fe	50		 push	 eax
  001ff	6a 00		 push	 0
  00201	8d 8d 2c ff ff
	ff		 lea	 ecx, DWORD PTR $T193196[ebp]
  00207	51		 push	 ecx
  00208	ff 15 00 00 00
	00		 call	 DWORD PTR __imp_?YL_Log@@YAXABV?$basic_string@DU?$char_traits@D@std@@V?$allocator@D@2@@std@@H0PBDZZ
  0020e	83 c4 14	 add	 esp, 20			; 00000014H
  00211	3b f4		 cmp	 esi, esp
  00213	e8 00 00 00 00	 call	 __RTC_CheckEsp
  00218	c6 45 fc 00	 mov	 BYTE PTR __$EHRec$[ebp+8], 0
  0021c	8b f4		 mov	 esi, esp
  0021e	8d 8d 2c ff ff
	ff		 lea	 ecx, DWORD PTR $T193196[ebp]
  00224	ff 15 00 00 00
	00		 call	 DWORD PTR __imp_??1?$basic_string@DU?$char_traits@D@std@@V?$allocator@D@2@@std@@QAE@XZ
  0022a	3b f4		 cmp	 esi, esp
  0022c	e8 00 00 00 00	 call	 __RTC_CheckEsp
  00231	c7 45 fc ff ff
	ff ff		 mov	 DWORD PTR __$EHRec$[ebp+8], -1
  00238	8b f4		 mov	 esi, esp
  0023a	8d 8d 48 ff ff
	ff		 lea	 ecx, DWORD PTR $T193195[ebp]
  00240	ff 15 00 00 00
	00		 call	 DWORD PTR __imp_??1?$basic_string@DU?$char_traits@D@std@@V?$allocator@D@2@@std@@QAE@XZ
  00246	3b f4		 cmp	 esi, esp
  00248	e8 00 00 00 00	 call	 __RTC_CheckEsp

; 44   : 
; 45   : 	string strHeader;

  0024d	8b f4		 mov	 esi, esp
  0024f	8d 4d cc	 lea	 ecx, DWORD PTR _strHeader$[ebp]
  00252	ff 15 00 00 00
	00		 call	 DWORD PTR __imp_??0?$basic_string@DU?$char_traits@D@std@@V?$allocator@D@2@@std@@QAE@XZ
  00258	3b f4		 cmp	 esi, esp
  0025a	e8 00 00 00 00	 call	 __RTC_CheckEsp
  0025f	c7 45 fc 02 00
	00 00		 mov	 DWORD PTR __$EHRec$[ebp+8], 2

; 46   : 	string strContent;

  00266	8b f4		 mov	 esi, esp
  00268	8d 4d a8	 lea	 ecx, DWORD PTR _strContent$[ebp]
  0026b	ff 15 00 00 00
	00		 call	 DWORD PTR __imp_??0?$basic_string@DU?$char_traits@D@std@@V?$allocator@D@2@@std@@QAE@XZ
  00271	3b f4		 cmp	 esi, esp
  00273	e8 00 00 00 00	 call	 __RTC_CheckEsp
  00278	c6 45 fc 03	 mov	 BYTE PTR __$EHRec$[ebp+8], 3

; 47   : 
; 48   : 	size_t iHeader = strCommand.find("\n\n");

  0027c	8b f4		 mov	 esi, esp
  0027e	6a 00		 push	 0
  00280	68 00 00 00 00	 push	 OFFSET FLAT:$SG191111
  00285	8b 4d 08	 mov	 ecx, DWORD PTR _strCommand$[ebp]
  00288	ff 15 00 00 00
	00		 call	 DWORD PTR __imp_?find@?$basic_string@DU?$char_traits@D@std@@V?$allocator@D@2@@std@@QBEIPBDI@Z
  0028e	3b f4		 cmp	 esi, esp
  00290	e8 00 00 00 00	 call	 __RTC_CheckEsp
  00295	89 45 a0	 mov	 DWORD PTR _iHeader$[ebp], eax

; 49   : 	if( iHeader == string::npos)

  00298	8b 15 00 00 00
	00		 mov	 edx, DWORD PTR __imp_?npos@?$basic_string@DU?$char_traits@D@std@@V?$allocator@D@2@@std@@2IB
  0029e	8b 45 a0	 mov	 eax, DWORD PTR _iHeader$[ebp]
  002a1	3b 02		 cmp	 eax, DWORD PTR [edx]
  002a3	75 34		 jne	 SHORT $L191112

; 50   : 	{
; 51   : 		return;

  002a5	c6 45 fc 02	 mov	 BYTE PTR __$EHRec$[ebp+8], 2
  002a9	8b f4		 mov	 esi, esp
  002ab	8d 4d a8	 lea	 ecx, DWORD PTR _strContent$[ebp]
  002ae	ff 15 00 00 00
	00		 call	 DWORD PTR __imp_??1?$basic_string@DU?$char_traits@D@std@@V?$allocator@D@2@@std@@QAE@XZ
  002b4	3b f4		 cmp	 esi, esp
  002b6	e8 00 00 00 00	 call	 __RTC_CheckEsp
  002bb	c7 45 fc ff ff
	ff ff		 mov	 DWORD PTR __$EHRec$[ebp+8], -1
  002c2	8b f4		 mov	 esi, esp
  002c4	8d 4d cc	 lea	 ecx, DWORD PTR _strHeader$[ebp]
  002c7	ff 15 00 00 00
	00		 call	 DWORD PTR __imp_??1?$basic_string@DU?$char_traits@D@std@@V?$allocator@D@2@@std@@QAE@XZ
  002cd	3b f4		 cmp	 esi, esp
  002cf	e8 00 00 00 00	 call	 __RTC_CheckEsp
  002d4	e9 47 08 00 00	 jmp	 $L191102
$L191112:

; 52   : 	}
; 53   : 	strHeader	= strCommand.substr(0,iHeader);

  002d9	8b f4		 mov	 esi, esp
  002db	8b 4d a0	 mov	 ecx, DWORD PTR _iHeader$[ebp]
  002de	51		 push	 ecx
  002df	6a 00		 push	 0
  002e1	8d 95 10 ff ff
	ff		 lea	 edx, DWORD PTR $T193197[ebp]
  002e7	52		 push	 edx
  002e8	8b 4d 08	 mov	 ecx, DWORD PTR _strCommand$[ebp]
  002eb	ff 15 00 00 00
	00		 call	 DWORD PTR __imp_?substr@?$basic_string@DU?$char_traits@D@std@@V?$allocator@D@2@@std@@QBE?AV12@II@Z
  002f1	3b f4		 cmp	 esi, esp
  002f3	e8 00 00 00 00	 call	 __RTC_CheckEsp
  002f8	89 85 5c fe ff
	ff		 mov	 DWORD PTR tv315[ebp], eax
  002fe	8b 85 5c fe ff
	ff		 mov	 eax, DWORD PTR tv315[ebp]
  00304	89 85 58 fe ff
	ff		 mov	 DWORD PTR tv260[ebp], eax
  0030a	c6 45 fc 04	 mov	 BYTE PTR __$EHRec$[ebp+8], 4
  0030e	8b f4		 mov	 esi, esp
  00310	8b 8d 58 fe ff
	ff		 mov	 ecx, DWORD PTR tv260[ebp]
  00316	51		 push	 ecx
  00317	8d 4d cc	 lea	 ecx, DWORD PTR _strHeader$[ebp]
  0031a	ff 15 00 00 00
	00		 call	 DWORD PTR __imp_??4?$basic_string@DU?$char_traits@D@std@@V?$allocator@D@2@@std@@QAEAAV01@ABV01@@Z
  00320	3b f4		 cmp	 esi, esp
  00322	e8 00 00 00 00	 call	 __RTC_CheckEsp
  00327	c6 45 fc 03	 mov	 BYTE PTR __$EHRec$[ebp+8], 3
  0032b	8b f4		 mov	 esi, esp
  0032d	8d 8d 10 ff ff
	ff		 lea	 ecx, DWORD PTR $T193197[ebp]
  00333	ff 15 00 00 00
	00		 call	 DWORD PTR __imp_??1?$basic_string@DU?$char_traits@D@std@@V?$allocator@D@2@@std@@QAE@XZ
  00339	3b f4		 cmp	 esi, esp
  0033b	e8 00 00 00 00	 call	 __RTC_CheckEsp

; 54   : 	strContent	= strCommand.substr(iHeader+2);

  00340	8b f4		 mov	 esi, esp
  00342	8b 15 00 00 00
	00		 mov	 edx, DWORD PTR __imp_?npos@?$basic_string@DU?$char_traits@D@std@@V?$allocator@D@2@@std@@2IB
  00348	8b 02		 mov	 eax, DWORD PTR [edx]
  0034a	50		 push	 eax
  0034b	8b 4d a0	 mov	 ecx, DWORD PTR _iHeader$[ebp]
  0034e	83 c1 02	 add	 ecx, 2
  00351	51		 push	 ecx
  00352	8d 95 f4 fe ff
	ff		 lea	 edx, DWORD PTR $T193198[ebp]
  00358	52		 push	 edx
  00359	8b 4d 08	 mov	 ecx, DWORD PTR _strCommand$[ebp]
  0035c	ff 15 00 00 00
	00		 call	 DWORD PTR __imp_?substr@?$basic_string@DU?$char_traits@D@std@@V?$allocator@D@2@@std@@QBE?AV12@II@Z
  00362	3b f4		 cmp	 esi, esp
  00364	e8 00 00 00 00	 call	 __RTC_CheckEsp
  00369	89 85 54 fe ff
	ff		 mov	 DWORD PTR tv318[ebp], eax
  0036f	8b 85 54 fe ff
	ff		 mov	 eax, DWORD PTR tv318[ebp]
  00375	89 85 50 fe ff
	ff		 mov	 DWORD PTR tv262[ebp], eax
  0037b	c6 45 fc 05	 mov	 BYTE PTR __$EHRec$[ebp+8], 5
  0037f	8b f4		 mov	 esi, esp
  00381	8b 8d 50 fe ff
	ff		 mov	 ecx, DWORD PTR tv262[ebp]
  00387	51		 push	 ecx
  00388	8d 4d a8	 lea	 ecx, DWORD PTR _strContent$[ebp]
  0038b	ff 15 00 00 00
	00		 call	 DWORD PTR __imp_??4?$basic_string@DU?$char_traits@D@std@@V?$allocator@D@2@@std@@QAEAAV01@ABV01@@Z
  00391	3b f4		 cmp	 esi, esp
  00393	e8 00 00 00 00	 call	 __RTC_CheckEsp
  00398	c6 45 fc 03	 mov	 BYTE PTR __$EHRec$[ebp+8], 3
  0039c	8b f4		 mov	 esi, esp
  0039e	8d 8d f4 fe ff
	ff		 lea	 ecx, DWORD PTR $T193198[ebp]
  003a4	ff 15 00 00 00
	00		 call	 DWORD PTR __imp_??1?$basic_string@DU?$char_traits@D@std@@V?$allocator@D@2@@std@@QAE@XZ
  003aa	3b f4		 cmp	 esi, esp
  003ac	e8 00 00 00 00	 call	 __RTC_CheckEsp

; 55   : 	//header
; 56   : 	CString str(strHeader.c_str());

  003b1	8b f4		 mov	 esi, esp
  003b3	8d 4d cc	 lea	 ecx, DWORD PTR _strHeader$[ebp]
  003b6	ff 15 00 00 00
	00		 call	 DWORD PTR __imp_?c_str@?$basic_string@DU?$char_traits@D@std@@V?$allocator@D@2@@std@@QBEPBDXZ
  003bc	3b f4		 cmp	 esi, esp
  003be	e8 00 00 00 00	 call	 __RTC_CheckEsp
  003c3	8b f4		 mov	 esi, esp
  003c5	50		 push	 eax
  003c6	8d 4d 98	 lea	 ecx, DWORD PTR _str$[ebp]
  003c9	ff 15 00 00 00
	00		 call	 DWORD PTR __imp_??0?$CStringT@DV?$StrTraitMFC_DLL@DV?$ChTraitsCRT@D@ATL@@@@@ATL@@QAE@PBD@Z
  003cf	3b f4		 cmp	 esi, esp
  003d1	e8 00 00 00 00	 call	 __RTC_CheckEsp
  003d6	c6 45 fc 06	 mov	 BYTE PTR __$EHRec$[ebp+8], 6

; 57   : 	CString resToken;

  003da	8b f4		 mov	 esi, esp
  003dc	8d 4d 8c	 lea	 ecx, DWORD PTR _resToken$[ebp]
  003df	ff 15 00 00 00
	00		 call	 DWORD PTR __imp_??0?$CStringT@DV?$StrTraitMFC_DLL@DV?$ChTraitsCRT@D@ATL@@@@@ATL@@QAE@XZ
  003e5	3b f4		 cmp	 esi, esp
  003e7	e8 00 00 00 00	 call	 __RTC_CheckEsp
  003ec	c6 45 fc 07	 mov	 BYTE PTR __$EHRec$[ebp+8], 7

; 58   : 	int curPos = 0;

  003f0	c7 45 80 00 00
	00 00		 mov	 DWORD PTR _curPos$[ebp], 0

; 59   : 
; 60   : 	resToken= str.Tokenize("\n",curPos);

  003f7	8b f4		 mov	 esi, esp
  003f9	8d 55 80	 lea	 edx, DWORD PTR _curPos$[ebp]
  003fc	52		 push	 edx
  003fd	68 00 00 00 00	 push	 OFFSET FLAT:$SG191119
  00402	8d 85 f0 fe ff
	ff		 lea	 eax, DWORD PTR $T193199[ebp]
  00408	50		 push	 eax
  00409	8d 4d 98	 lea	 ecx, DWORD PTR _str$[ebp]
  0040c	ff 15 00 00 00
	00		 call	 DWORD PTR __imp_?Tokenize@?$CStringT@DV?$StrTraitMFC_DLL@DV?$ChTraitsCRT@D@ATL@@@@@ATL@@QBE?AV12@PBDAAH@Z
  00412	3b f4		 cmp	 esi, esp
  00414	e8 00 00 00 00	 call	 __RTC_CheckEsp
  00419	89 85 4c fe ff
	ff		 mov	 DWORD PTR tv323[ebp], eax
  0041f	8b 8d 4c fe ff
	ff		 mov	 ecx, DWORD PTR tv323[ebp]
  00425	89 8d 48 fe ff
	ff		 mov	 DWORD PTR tv266[ebp], ecx
  0042b	c6 45 fc 08	 mov	 BYTE PTR __$EHRec$[ebp+8], 8
  0042f	8b f4		 mov	 esi, esp
  00431	8b 95 48 fe ff
	ff		 mov	 edx, DWORD PTR tv266[ebp]
  00437	52		 push	 edx
  00438	8d 4d 8c	 lea	 ecx, DWORD PTR _resToken$[ebp]
  0043b	ff 15 00 00 00
	00		 call	 DWORD PTR __imp_??4?$CStringT@DV?$StrTraitMFC_DLL@DV?$ChTraitsCRT@D@ATL@@@@@ATL@@QAEAAV01@ABV01@@Z
  00441	3b f4		 cmp	 esi, esp
  00443	e8 00 00 00 00	 call	 __RTC_CheckEsp
  00448	c6 45 fc 07	 mov	 BYTE PTR __$EHRec$[ebp+8], 7
  0044c	8b f4		 mov	 esi, esp
  0044e	8d 8d f0 fe ff
	ff		 lea	 ecx, DWORD PTR $T193199[ebp]
  00454	ff 15 00 00 00
	00		 call	 DWORD PTR __imp_??1?$CStringT@DV?$StrTraitMFC_DLL@DV?$ChTraitsCRT@D@ATL@@@@@ATL@@QAE@XZ
  0045a	3b f4		 cmp	 esi, esp
  0045c	e8 00 00 00 00	 call	 __RTC_CheckEsp
$L191121:

; 61   : 	while (resToken != "")

  00461	68 00 00 00 00	 push	 OFFSET FLAT:$SG191123
  00466	8d 45 8c	 lea	 eax, DWORD PTR _resToken$[ebp]
  00469	50		 push	 eax
  0046a	e8 00 00 00 00	 call	 ??9ATL@@YA_NABV?$CStringT@DV?$StrTraitMFC_DLL@DV?$ChTraitsCRT@D@ATL@@@@@0@PBD@Z ; ATL::operator!=
  0046f	83 c4 08	 add	 esp, 8
  00472	0f b6 c8	 movzx	 ecx, al
  00475	85 c9		 test	 ecx, ecx
  00477	0f 84 48 06 00
	00		 je	 $L191122

; 62   : 	{
; 63   : 		CString strLeft,strRight;

  0047d	8b f4		 mov	 esi, esp
  0047f	8d 8d 74 ff ff
	ff		 lea	 ecx, DWORD PTR _strLeft$191124[ebp]
  00485	ff 15 00 00 00
	00		 call	 DWORD PTR __imp_??0?$CStringT@DV?$StrTraitMFC_DLL@DV?$ChTraitsCRT@D@ATL@@@@@ATL@@QAE@XZ
  0048b	3b f4		 cmp	 esi, esp
  0048d	e8 00 00 00 00	 call	 __RTC_CheckEsp
  00492	c6 45 fc 09	 mov	 BYTE PTR __$EHRec$[ebp+8], 9
  00496	8b f4		 mov	 esi, esp
  00498	8d 8d 68 ff ff
	ff		 lea	 ecx, DWORD PTR _strRight$191125[ebp]
  0049e	ff 15 00 00 00
	00		 call	 DWORD PTR __imp_??0?$CStringT@DV?$StrTraitMFC_DLL@DV?$ChTraitsCRT@D@ATL@@@@@ATL@@QAE@XZ
  004a4	3b f4		 cmp	 esi, esp
  004a6	e8 00 00 00 00	 call	 __RTC_CheckEsp
  004ab	c6 45 fc 0a	 mov	 BYTE PTR __$EHRec$[ebp+8], 10 ; 0000000aH

; 64   : 		_string_help( resToken,strLeft,strRight );

  004af	8d 95 68 ff ff
	ff		 lea	 edx, DWORD PTR _strRight$191125[ebp]
  004b5	52		 push	 edx
  004b6	8d 85 74 ff ff
	ff		 lea	 eax, DWORD PTR _strLeft$191124[ebp]
  004bc	50		 push	 eax
  004bd	8d 4d 8c	 lea	 ecx, DWORD PTR _resToken$[ebp]
  004c0	51		 push	 ecx
  004c1	8b 4d ec	 mov	 ecx, DWORD PTR _this$[ebp]
  004c4	e8 00 00 00 00	 call	 ?_string_help@CWebManager@@AAEXABV?$CStringT@DV?$StrTraitMFC_DLL@DV?$ChTraitsCRT@D@ATL@@@@@ATL@@AAV23@1@Z ; CWebManager::_string_help

; 65   : 
; 66   : 		if( strLeft == "method" )

  004c9	68 00 00 00 00	 push	 OFFSET FLAT:$SG191127
  004ce	8d 95 74 ff ff
	ff		 lea	 edx, DWORD PTR _strLeft$191124[ebp]
  004d4	52		 push	 edx
  004d5	e8 00 00 00 00	 call	 ??8ATL@@YA_NABV?$CStringT@DV?$StrTraitMFC_DLL@DV?$ChTraitsCRT@D@ATL@@@@@0@PBD@Z ; ATL::operator==
  004da	83 c4 08	 add	 esp, 8
  004dd	0f b6 c0	 movzx	 eax, al
  004e0	85 c0		 test	 eax, eax
  004e2	0f 84 3c 05 00
	00		 je	 $L191126

; 67   : 		{
; 68   : 			if( strRight == "flashgame")//flash

  004e8	68 00 00 00 00	 push	 OFFSET FLAT:$SG191129
  004ed	8d 8d 68 ff ff
	ff		 lea	 ecx, DWORD PTR _strRight$191125[ebp]
  004f3	51		 push	 ecx
  004f4	e8 00 00 00 00	 call	 ??8ATL@@YA_NABV?$CStringT@DV?$StrTraitMFC_DLL@DV?$ChTraitsCRT@D@ATL@@@@@0@PBD@Z ; ATL::operator==
  004f9	83 c4 08	 add	 esp, 8
  004fc	0f b6 d0	 movzx	 edx, al
  004ff	85 d2		 test	 edx, edx
  00501	0f 84 ed 00 00
	00		 je	 $L191128

; 69   : 			{
; 70   : 				strRes = _command_playswfgame( strContent );

  00507	8d 45 a8	 lea	 eax, DWORD PTR _strContent$[ebp]
  0050a	50		 push	 eax
  0050b	8d 8d d4 fe ff
	ff		 lea	 ecx, DWORD PTR $T193200[ebp]
  00511	51		 push	 ecx
  00512	8b 4d ec	 mov	 ecx, DWORD PTR _this$[ebp]
  00515	e8 00 00 00 00	 call	 ?_command_playswfgame@CWebManager@@AAE?AV?$basic_string@DU?$char_traits@D@std@@V?$allocator@D@2@@std@@AAV23@@Z ; CWebManager::_command_playswfgame
  0051a	89 85 44 fe ff
	ff		 mov	 DWORD PTR tv328[ebp], eax
  00520	8b 95 44 fe ff
	ff		 mov	 edx, DWORD PTR tv328[ebp]
  00526	89 95 40 fe ff
	ff		 mov	 DWORD PTR tv270[ebp], edx
  0052c	c6 45 fc 0b	 mov	 BYTE PTR __$EHRec$[ebp+8], 11 ; 0000000bH
  00530	8b f4		 mov	 esi, esp
  00532	8b 85 40 fe ff
	ff		 mov	 eax, DWORD PTR tv270[ebp]
  00538	50		 push	 eax
  00539	8b 4d 0c	 mov	 ecx, DWORD PTR _strRes$[ebp]
  0053c	ff 15 00 00 00
	00		 call	 DWORD PTR __imp_??4?$basic_string@DU?$char_traits@D@std@@V?$allocator@D@2@@std@@QAEAAV01@ABV01@@Z
  00542	3b f4		 cmp	 esi, esp
  00544	e8 00 00 00 00	 call	 __RTC_CheckEsp
  00549	c6 45 fc 0a	 mov	 BYTE PTR __$EHRec$[ebp+8], 10 ; 0000000aH
  0054d	8b f4		 mov	 esi, esp
  0054f	8d 8d d4 fe ff
	ff		 lea	 ecx, DWORD PTR $T193200[ebp]
  00555	ff 15 00 00 00
	00		 call	 DWORD PTR __imp_??1?$basic_string@DU?$char_traits@D@std@@V?$allocator@D@2@@std@@QAE@XZ
  0055b	3b f4		 cmp	 esi, esp
  0055d	e8 00 00 00 00	 call	 __RTC_CheckEsp

; 71   : 				return;			

  00562	c6 45 fc 09	 mov	 BYTE PTR __$EHRec$[ebp+8], 9
  00566	8b f4		 mov	 esi, esp
  00568	8d 8d 68 ff ff
	ff		 lea	 ecx, DWORD PTR _strRight$191125[ebp]
  0056e	ff 15 00 00 00
	00		 call	 DWORD PTR __imp_??1?$CStringT@DV?$StrTraitMFC_DLL@DV?$ChTraitsCRT@D@ATL@@@@@ATL@@QAE@XZ
  00574	3b f4		 cmp	 esi, esp
  00576	e8 00 00 00 00	 call	 __RTC_CheckEsp
  0057b	c6 45 fc 07	 mov	 BYTE PTR __$EHRec$[ebp+8], 7
  0057f	8b f4		 mov	 esi, esp
  00581	8d 8d 74 ff ff
	ff		 lea	 ecx, DWORD PTR _strLeft$191124[ebp]
  00587	ff 15 00 00 00
	00		 call	 DWORD PTR __imp_??1?$CStringT@DV?$StrTraitMFC_DLL@DV?$ChTraitsCRT@D@ATL@@@@@ATL@@QAE@XZ
  0058d	3b f4		 cmp	 esi, esp
  0058f	e8 00 00 00 00	 call	 __RTC_CheckEsp
  00594	c6 45 fc 06	 mov	 BYTE PTR __$EHRec$[ebp+8], 6
  00598	8b f4		 mov	 esi, esp
  0059a	8d 4d 8c	 lea	 ecx, DWORD PTR _resToken$[ebp]
  0059d	ff 15 00 00 00
	00		 call	 DWORD PTR __imp_??1?$CStringT@DV?$StrTraitMFC_DLL@DV?$ChTraitsCRT@D@ATL@@@@@ATL@@QAE@XZ
  005a3	3b f4		 cmp	 esi, esp
  005a5	e8 00 00 00 00	 call	 __RTC_CheckEsp
  005aa	c6 45 fc 03	 mov	 BYTE PTR __$EHRec$[ebp+8], 3
  005ae	8b f4		 mov	 esi, esp
  005b0	8d 4d 98	 lea	 ecx, DWORD PTR _str$[ebp]
  005b3	ff 15 00 00 00
	00		 call	 DWORD PTR __imp_??1?$CStringT@DV?$StrTraitMFC_DLL@DV?$ChTraitsCRT@D@ATL@@@@@ATL@@QAE@XZ
  005b9	3b f4		 cmp	 esi, esp
  005bb	e8 00 00 00 00	 call	 __RTC_CheckEsp
  005c0	c6 45 fc 02	 mov	 BYTE PTR __$EHRec$[ebp+8], 2
  005c4	8b f4		 mov	 esi, esp
  005c6	8d 4d a8	 lea	 ecx, DWORD PTR _strContent$[ebp]
  005c9	ff 15 00 00 00
	00		 call	 DWORD PTR __imp_??1?$basic_string@DU?$char_traits@D@std@@V?$allocator@D@2@@std@@QAE@XZ
  005cf	3b f4		 cmp	 esi, esp
  005d1	e8 00 00 00 00	 call	 __RTC_CheckEsp
  005d6	c7 45 fc ff ff
	ff ff		 mov	 DWORD PTR __$EHRec$[ebp+8], -1
  005dd	8b f4		 mov	 esi, esp
  005df	8d 4d cc	 lea	 ecx, DWORD PTR _strHeader$[ebp]
  005e2	ff 15 00 00 00
	00		 call	 DWORD PTR __imp_??1?$basic_string@DU?$char_traits@D@std@@V?$allocator@D@2@@std@@QAE@XZ
  005e8	3b f4		 cmp	 esi, esp
  005ea	e8 00 00 00 00	 call	 __RTC_CheckEsp
  005ef	e9 2c 05 00 00	 jmp	 $L191102
$L191128:

; 72   : 			}else
; 73   : 			if( strRight == "webgame")//webflash

  005f4	68 00 00 00 00	 push	 OFFSET FLAT:$SG191133
  005f9	8d 8d 68 ff ff
	ff		 lea	 ecx, DWORD PTR _strRight$191125[ebp]
  005ff	51		 push	 ecx
  00600	e8 00 00 00 00	 call	 ??8ATL@@YA_NABV?$CStringT@DV?$StrTraitMFC_DLL@DV?$ChTraitsCRT@D@ATL@@@@@0@PBD@Z ; ATL::operator==
  00605	83 c4 08	 add	 esp, 8
  00608	0f b6 d0	 movzx	 edx, al
  0060b	85 d2		 test	 edx, edx
  0060d	0f 84 ed 00 00
	00		 je	 $L191132

; 74   : 			{
; 75   : 				strRes = _command_playwebgame( strContent );

  00613	8d 45 a8	 lea	 eax, DWORD PTR _strContent$[ebp]
  00616	50		 push	 eax
  00617	8d 8d b8 fe ff
	ff		 lea	 ecx, DWORD PTR $T193201[ebp]
  0061d	51		 push	 ecx
  0061e	8b 4d ec	 mov	 ecx, DWORD PTR _this$[ebp]
  00621	e8 00 00 00 00	 call	 ?_command_playwebgame@CWebManager@@AAE?AV?$basic_string@DU?$char_traits@D@std@@V?$allocator@D@2@@std@@AAV23@@Z ; CWebManager::_command_playwebgame
  00626	89 85 3c fe ff
	ff		 mov	 DWORD PTR tv331[ebp], eax
  0062c	8b 95 3c fe ff
	ff		 mov	 edx, DWORD PTR tv331[ebp]
  00632	89 95 38 fe ff
	ff		 mov	 DWORD PTR tv278[ebp], edx
  00638	c6 45 fc 0c	 mov	 BYTE PTR __$EHRec$[ebp+8], 12 ; 0000000cH
  0063c	8b f4		 mov	 esi, esp
  0063e	8b 85 38 fe ff
	ff		 mov	 eax, DWORD PTR tv278[ebp]
  00644	50		 push	 eax
  00645	8b 4d 0c	 mov	 ecx, DWORD PTR _strRes$[ebp]
  00648	ff 15 00 00 00
	00		 call	 DWORD PTR __imp_??4?$basic_string@DU?$char_traits@D@std@@V?$allocator@D@2@@std@@QAEAAV01@ABV01@@Z
  0064e	3b f4		 cmp	 esi, esp
  00650	e8 00 00 00 00	 call	 __RTC_CheckEsp
  00655	c6 45 fc 0a	 mov	 BYTE PTR __$EHRec$[ebp+8], 10 ; 0000000aH
  00659	8b f4		 mov	 esi, esp
  0065b	8d 8d b8 fe ff
	ff		 lea	 ecx, DWORD PTR $T193201[ebp]
  00661	ff 15 00 00 00
	00		 call	 DWORD PTR __imp_??1?$basic_string@DU?$char_traits@D@std@@V?$allocator@D@2@@std@@QAE@XZ
  00667	3b f4		 cmp	 esi, esp
  00669	e8 00 00 00 00	 call	 __RTC_CheckEsp

; 76   : 				return;			

  0066e	c6 45 fc 09	 mov	 BYTE PTR __$EHRec$[ebp+8], 9
  00672	8b f4		 mov	 esi, esp
  00674	8d 8d 68 ff ff
	ff		 lea	 ecx, DWORD PTR _strRight$191125[ebp]
  0067a	ff 15 00 00 00
	00		 call	 DWORD PTR __imp_??1?$CStringT@DV?$StrTraitMFC_DLL@DV?$ChTraitsCRT@D@ATL@@@@@ATL@@QAE@XZ
  00680	3b f4		 cmp	 esi, esp
  00682	e8 00 00 00 00	 call	 __RTC_CheckEsp
  00687	c6 45 fc 07	 mov	 BYTE PTR __$EHRec$[ebp+8], 7
  0068b	8b f4		 mov	 esi, esp
  0068d	8d 8d 74 ff ff
	ff		 lea	 ecx, DWORD PTR _strLeft$191124[ebp]
  00693	ff 15 00 00 00
	00		 call	 DWORD PTR __imp_??1?$CStringT@DV?$StrTraitMFC_DLL@DV?$ChTraitsCRT@D@ATL@@@@@ATL@@QAE@XZ
  00699	3b f4		 cmp	 esi, esp
  0069b	e8 00 00 00 00	 call	 __RTC_CheckEsp
  006a0	c6 45 fc 06	 mov	 BYTE PTR __$EHRec$[ebp+8], 6
  006a4	8b f4		 mov	 esi, esp
  006a6	8d 4d 8c	 lea	 ecx, DWORD PTR _resToken$[ebp]
  006a9	ff 15 00 00 00
	00		 call	 DWORD PTR __imp_??1?$CStringT@DV?$StrTraitMFC_DLL@DV?$ChTraitsCRT@D@ATL@@@@@ATL@@QAE@XZ
  006af	3b f4		 cmp	 esi, esp
  006b1	e8 00 00 00 00	 call	 __RTC_CheckEsp
  006b6	c6 45 fc 03	 mov	 BYTE PTR __$EHRec$[ebp+8], 3
  006ba	8b f4		 mov	 esi, esp
  006bc	8d 4d 98	 lea	 ecx, DWORD PTR _str$[ebp]
  006bf	ff 15 00 00 00
	00		 call	 DWORD PTR __imp_??1?$CStringT@DV?$StrTraitMFC_DLL@DV?$ChTraitsCRT@D@ATL@@@@@ATL@@QAE@XZ
  006c5	3b f4		 cmp	 esi, esp
  006c7	e8 00 00 00 00	 call	 __RTC_CheckEsp
  006cc	c6 45 fc 02	 mov	 BYTE PTR __$EHRec$[ebp+8], 2
  006d0	8b f4		 mov	 esi, esp
  006d2	8d 4d a8	 lea	 ecx, DWORD PTR _strContent$[ebp]
  006d5	ff 15 00 00 00
	00		 call	 DWORD PTR __imp_??1?$basic_string@DU?$char_traits@D@std@@V?$allocator@D@2@@std@@QAE@XZ
  006db	3b f4		 cmp	 esi, esp
  006dd	e8 00 00 00 00	 call	 __RTC_CheckEsp
  006e2	c7 45 fc ff ff
	ff ff		 mov	 DWORD PTR __$EHRec$[ebp+8], -1
  006e9	8b f4		 mov	 esi, esp
  006eb	8d 4d cc	 lea	 ecx, DWORD PTR _strHeader$[ebp]
  006ee	ff 15 00 00 00
	00		 call	 DWORD PTR __imp_??1?$basic_string@DU?$char_traits@D@std@@V?$allocator@D@2@@std@@QAE@XZ
  006f4	3b f4		 cmp	 esi, esp
  006f6	e8 00 00 00 00	 call	 __RTC_CheckEsp
  006fb	e9 20 04 00 00	 jmp	 $L191102
$L191132:

; 77   : 			}else
; 78   : 			if( strRight == "refresh" )

  00700	68 00 00 00 00	 push	 OFFSET FLAT:$SG191137
  00705	8d 8d 68 ff ff
	ff		 lea	 ecx, DWORD PTR _strRight$191125[ebp]
  0070b	51		 push	 ecx
  0070c	e8 00 00 00 00	 call	 ??8ATL@@YA_NABV?$CStringT@DV?$StrTraitMFC_DLL@DV?$ChTraitsCRT@D@ATL@@@@@0@PBD@Z ; ATL::operator==
  00711	83 c4 08	 add	 esp, 8
  00714	0f b6 d0	 movzx	 edx, al
  00717	85 d2		 test	 edx, edx
  00719	0f 84 ed 00 00
	00		 je	 $L191136

; 79   : 			{
; 80   : 				strRes = _command_refresh( strContent );

  0071f	8d 45 a8	 lea	 eax, DWORD PTR _strContent$[ebp]
  00722	50		 push	 eax
  00723	8d 8d 9c fe ff
	ff		 lea	 ecx, DWORD PTR $T193202[ebp]
  00729	51		 push	 ecx
  0072a	8b 4d ec	 mov	 ecx, DWORD PTR _this$[ebp]
  0072d	e8 00 00 00 00	 call	 ?_command_refresh@CWebManager@@AAE?AV?$basic_string@DU?$char_traits@D@std@@V?$allocator@D@2@@std@@AAV23@@Z ; CWebManager::_command_refresh
  00732	89 85 34 fe ff
	ff		 mov	 DWORD PTR tv334[ebp], eax
  00738	8b 95 34 fe ff
	ff		 mov	 edx, DWORD PTR tv334[ebp]
  0073e	89 95 30 fe ff
	ff		 mov	 DWORD PTR tv286[ebp], edx
  00744	c6 45 fc 0d	 mov	 BYTE PTR __$EHRec$[ebp+8], 13 ; 0000000dH
  00748	8b f4		 mov	 esi, esp
  0074a	8b 85 30 fe ff
	ff		 mov	 eax, DWORD PTR tv286[ebp]
  00750	50		 push	 eax
  00751	8b 4d 0c	 mov	 ecx, DWORD PTR _strRes$[ebp]
  00754	ff 15 00 00 00
	00		 call	 DWORD PTR __imp_??4?$basic_string@DU?$char_traits@D@std@@V?$allocator@D@2@@std@@QAEAAV01@ABV01@@Z
  0075a	3b f4		 cmp	 esi, esp
  0075c	e8 00 00 00 00	 call	 __RTC_CheckEsp
  00761	c6 45 fc 0a	 mov	 BYTE PTR __$EHRec$[ebp+8], 10 ; 0000000aH
  00765	8b f4		 mov	 esi, esp
  00767	8d 8d 9c fe ff
	ff		 lea	 ecx, DWORD PTR $T193202[ebp]
  0076d	ff 15 00 00 00
	00		 call	 DWORD PTR __imp_??1?$basic_string@DU?$char_traits@D@std@@V?$allocator@D@2@@std@@QAE@XZ
  00773	3b f4		 cmp	 esi, esp
  00775	e8 00 00 00 00	 call	 __RTC_CheckEsp

; 81   : 				return;

  0077a	c6 45 fc 09	 mov	 BYTE PTR __$EHRec$[ebp+8], 9
  0077e	8b f4		 mov	 esi, esp
  00780	8d 8d 68 ff ff
	ff		 lea	 ecx, DWORD PTR _strRight$191125[ebp]
  00786	ff 15 00 00 00
	00		 call	 DWORD PTR __imp_??1?$CStringT@DV?$StrTraitMFC_DLL@DV?$ChTraitsCRT@D@ATL@@@@@ATL@@QAE@XZ
  0078c	3b f4		 cmp	 esi, esp
  0078e	e8 00 00 00 00	 call	 __RTC_CheckEsp
  00793	c6 45 fc 07	 mov	 BYTE PTR __$EHRec$[ebp+8], 7
  00797	8b f4		 mov	 esi, esp
  00799	8d 8d 74 ff ff
	ff		 lea	 ecx, DWORD PTR _strLeft$191124[ebp]
  0079f	ff 15 00 00 00
	00		 call	 DWORD PTR __imp_??1?$CStringT@DV?$StrTraitMFC_DLL@DV?$ChTraitsCRT@D@ATL@@@@@ATL@@QAE@XZ
  007a5	3b f4		 cmp	 esi, esp
  007a7	e8 00 00 00 00	 call	 __RTC_CheckEsp
  007ac	c6 45 fc 06	 mov	 BYTE PTR __$EHRec$[ebp+8], 6
  007b0	8b f4		 mov	 esi, esp
  007b2	8d 4d 8c	 lea	 ecx, DWORD PTR _resToken$[ebp]
  007b5	ff 15 00 00 00
	00		 call	 DWORD PTR __imp_??1?$CStringT@DV?$StrTraitMFC_DLL@DV?$ChTraitsCRT@D@ATL@@@@@ATL@@QAE@XZ
  007bb	3b f4		 cmp	 esi, esp
  007bd	e8 00 00 00 00	 call	 __RTC_CheckEsp
  007c2	c6 45 fc 03	 mov	 BYTE PTR __$EHRec$[ebp+8], 3
  007c6	8b f4		 mov	 esi, esp
  007c8	8d 4d 98	 lea	 ecx, DWORD PTR _str$[ebp]
  007cb	ff 15 00 00 00
	00		 call	 DWORD PTR __imp_??1?$CStringT@DV?$StrTraitMFC_DLL@DV?$ChTraitsCRT@D@ATL@@@@@ATL@@QAE@XZ
  007d1	3b f4		 cmp	 esi, esp
  007d3	e8 00 00 00 00	 call	 __RTC_CheckEsp
  007d8	c6 45 fc 02	 mov	 BYTE PTR __$EHRec$[ebp+8], 2
  007dc	8b f4		 mov	 esi, esp
  007de	8d 4d a8	 lea	 ecx, DWORD PTR _strContent$[ebp]
  007e1	ff 15 00 00 00
	00		 call	 DWORD PTR __imp_??1?$basic_string@DU?$char_traits@D@std@@V?$allocator@D@2@@std@@QAE@XZ
  007e7	3b f4		 cmp	 esi, esp
  007e9	e8 00 00 00 00	 call	 __RTC_CheckEsp
  007ee	c7 45 fc ff ff
	ff ff		 mov	 DWORD PTR __$EHRec$[ebp+8], -1
  007f5	8b f4		 mov	 esi, esp
  007f7	8d 4d cc	 lea	 ecx, DWORD PTR _strHeader$[ebp]
  007fa	ff 15 00 00 00
	00		 call	 DWORD PTR __imp_??1?$basic_string@DU?$char_traits@D@std@@V?$allocator@D@2@@std@@QAE@XZ
  00800	3b f4		 cmp	 esi, esp
  00802	e8 00 00 00 00	 call	 __RTC_CheckEsp
  00807	e9 14 03 00 00	 jmp	 $L191102
$L191136:

; 82   : 			}else
; 83   : 			if (strRight == "opennewtab")

  0080c	68 00 00 00 00	 push	 OFFSET FLAT:$SG191141
  00811	8d 8d 68 ff ff
	ff		 lea	 ecx, DWORD PTR _strRight$191125[ebp]
  00817	51		 push	 ecx
  00818	e8 00 00 00 00	 call	 ??8ATL@@YA_NABV?$CStringT@DV?$StrTraitMFC_DLL@DV?$ChTraitsCRT@D@ATL@@@@@0@PBD@Z ; ATL::operator==
  0081d	83 c4 08	 add	 esp, 8
  00820	0f b6 d0	 movzx	 edx, al
  00823	85 d2		 test	 edx, edx
  00825	0f 84 ed 00 00
	00		 je	 $L191140

; 84   : 			{
; 85   : 				strRes = _command_opennewtab (strContent);

  0082b	8d 45 a8	 lea	 eax, DWORD PTR _strContent$[ebp]
  0082e	50		 push	 eax
  0082f	8d 8d 80 fe ff
	ff		 lea	 ecx, DWORD PTR $T193203[ebp]
  00835	51		 push	 ecx
  00836	8b 4d ec	 mov	 ecx, DWORD PTR _this$[ebp]
  00839	e8 00 00 00 00	 call	 ?_command_opennewtab@CWebManager@@AAE?AV?$basic_string@DU?$char_traits@D@std@@V?$allocator@D@2@@std@@AAV23@@Z ; CWebManager::_command_opennewtab
  0083e	89 85 2c fe ff
	ff		 mov	 DWORD PTR tv337[ebp], eax
  00844	8b 95 2c fe ff
	ff		 mov	 edx, DWORD PTR tv337[ebp]
  0084a	89 95 28 fe ff
	ff		 mov	 DWORD PTR tv294[ebp], edx
  00850	c6 45 fc 0e	 mov	 BYTE PTR __$EHRec$[ebp+8], 14 ; 0000000eH
  00854	8b f4		 mov	 esi, esp
  00856	8b 85 28 fe ff
	ff		 mov	 eax, DWORD PTR tv294[ebp]
  0085c	50		 push	 eax
  0085d	8b 4d 0c	 mov	 ecx, DWORD PTR _strRes$[ebp]
  00860	ff 15 00 00 00
	00		 call	 DWORD PTR __imp_??4?$basic_string@DU?$char_traits@D@std@@V?$allocator@D@2@@std@@QAEAAV01@ABV01@@Z
  00866	3b f4		 cmp	 esi, esp
  00868	e8 00 00 00 00	 call	 __RTC_CheckEsp
  0086d	c6 45 fc 0a	 mov	 BYTE PTR __$EHRec$[ebp+8], 10 ; 0000000aH
  00871	8b f4		 mov	 esi, esp
  00873	8d 8d 80 fe ff
	ff		 lea	 ecx, DWORD PTR $T193203[ebp]
  00879	ff 15 00 00 00
	00		 call	 DWORD PTR __imp_??1?$basic_string@DU?$char_traits@D@std@@V?$allocator@D@2@@std@@QAE@XZ
  0087f	3b f4		 cmp	 esi, esp
  00881	e8 00 00 00 00	 call	 __RTC_CheckEsp

; 86   : 				return;

  00886	c6 45 fc 09	 mov	 BYTE PTR __$EHRec$[ebp+8], 9
  0088a	8b f4		 mov	 esi, esp
  0088c	8d 8d 68 ff ff
	ff		 lea	 ecx, DWORD PTR _strRight$191125[ebp]
  00892	ff 15 00 00 00
	00		 call	 DWORD PTR __imp_??1?$CStringT@DV?$StrTraitMFC_DLL@DV?$ChTraitsCRT@D@ATL@@@@@ATL@@QAE@XZ
  00898	3b f4		 cmp	 esi, esp
  0089a	e8 00 00 00 00	 call	 __RTC_CheckEsp
  0089f	c6 45 fc 07	 mov	 BYTE PTR __$EHRec$[ebp+8], 7
  008a3	8b f4		 mov	 esi, esp
  008a5	8d 8d 74 ff ff
	ff		 lea	 ecx, DWORD PTR _strLeft$191124[ebp]
  008ab	ff 15 00 00 00
	00		 call	 DWORD PTR __imp_??1?$CStringT@DV?$StrTraitMFC_DLL@DV?$ChTraitsCRT@D@ATL@@@@@ATL@@QAE@XZ
  008b1	3b f4		 cmp	 esi, esp
  008b3	e8 00 00 00 00	 call	 __RTC_CheckEsp
  008b8	c6 45 fc 06	 mov	 BYTE PTR __$EHRec$[ebp+8], 6
  008bc	8b f4		 mov	 esi, esp
  008be	8d 4d 8c	 lea	 ecx, DWORD PTR _resToken$[ebp]
  008c1	ff 15 00 00 00
	00		 call	 DWORD PTR __imp_??1?$CStringT@DV?$StrTraitMFC_DLL@DV?$ChTraitsCRT@D@ATL@@@@@ATL@@QAE@XZ
  008c7	3b f4		 cmp	 esi, esp
  008c9	e8 00 00 00 00	 call	 __RTC_CheckEsp
  008ce	c6 45 fc 03	 mov	 BYTE PTR __$EHRec$[ebp+8], 3
  008d2	8b f4		 mov	 esi, esp
  008d4	8d 4d 98	 lea	 ecx, DWORD PTR _str$[ebp]
  008d7	ff 15 00 00 00
	00		 call	 DWORD PTR __imp_??1?$CStringT@DV?$StrTraitMFC_DLL@DV?$ChTraitsCRT@D@ATL@@@@@ATL@@QAE@XZ
  008dd	3b f4		 cmp	 esi, esp
  008df	e8 00 00 00 00	 call	 __RTC_CheckEsp
  008e4	c6 45 fc 02	 mov	 BYTE PTR __$EHRec$[ebp+8], 2
  008e8	8b f4		 mov	 esi, esp
  008ea	8d 4d a8	 lea	 ecx, DWORD PTR _strContent$[ebp]
  008ed	ff 15 00 00 00
	00		 call	 DWORD PTR __imp_??1?$basic_string@DU?$char_traits@D@std@@V?$allocator@D@2@@std@@QAE@XZ
  008f3	3b f4		 cmp	 esi, esp
  008f5	e8 00 00 00 00	 call	 __RTC_CheckEsp
  008fa	c7 45 fc ff ff
	ff ff		 mov	 DWORD PTR __$EHRec$[ebp+8], -1
  00901	8b f4		 mov	 esi, esp
  00903	8d 4d cc	 lea	 ecx, DWORD PTR _strHeader$[ebp]
  00906	ff 15 00 00 00
	00		 call	 DWORD PTR __imp_??1?$basic_string@DU?$char_traits@D@std@@V?$allocator@D@2@@std@@QAE@XZ
  0090c	3b f4		 cmp	 esi, esp
  0090e	e8 00 00 00 00	 call	 __RTC_CheckEsp
  00913	e9 08 02 00 00	 jmp	 $L191102
$L191140:

; 87   : 			}else
; 88   : 			if (strRight == "checkdlstatus")

  00918	68 00 00 00 00	 push	 OFFSET FLAT:$SG191145
  0091d	8d 8d 68 ff ff
	ff		 lea	 ecx, DWORD PTR _strRight$191125[ebp]
  00923	51		 push	 ecx
  00924	e8 00 00 00 00	 call	 ??8ATL@@YA_NABV?$CStringT@DV?$StrTraitMFC_DLL@DV?$ChTraitsCRT@D@ATL@@@@@0@PBD@Z ; ATL::operator==
  00929	83 c4 08	 add	 esp, 8
  0092c	0f b6 d0	 movzx	 edx, al
  0092f	85 d2		 test	 edx, edx
  00931	0f 84 ed 00 00
	00		 je	 $L191126

; 89   : 			{
; 90   : 				strRes = _command_checkdlstatus (strContent);

  00937	8d 45 a8	 lea	 eax, DWORD PTR _strContent$[ebp]
  0093a	50		 push	 eax
  0093b	8d 8d 64 fe ff
	ff		 lea	 ecx, DWORD PTR $T193204[ebp]
  00941	51		 push	 ecx
  00942	8b 4d ec	 mov	 ecx, DWORD PTR _this$[ebp]
  00945	e8 00 00 00 00	 call	 ?_command_checkdlstatus@CWebManager@@AAE?AV?$basic_string@DU?$char_traits@D@std@@V?$allocator@D@2@@std@@AAV23@@Z ; CWebManager::_command_checkdlstatus
  0094a	89 85 24 fe ff
	ff		 mov	 DWORD PTR tv340[ebp], eax
  00950	8b 95 24 fe ff
	ff		 mov	 edx, DWORD PTR tv340[ebp]
  00956	89 95 20 fe ff
	ff		 mov	 DWORD PTR tv302[ebp], edx
  0095c	c6 45 fc 0f	 mov	 BYTE PTR __$EHRec$[ebp+8], 15 ; 0000000fH
  00960	8b f4		 mov	 esi, esp
  00962	8b 85 20 fe ff
	ff		 mov	 eax, DWORD PTR tv302[ebp]
  00968	50		 push	 eax
  00969	8b 4d 0c	 mov	 ecx, DWORD PTR _strRes$[ebp]
  0096c	ff 15 00 00 00
	00		 call	 DWORD PTR __imp_??4?$basic_string@DU?$char_traits@D@std@@V?$allocator@D@2@@std@@QAEAAV01@ABV01@@Z
  00972	3b f4		 cmp	 esi, esp
  00974	e8 00 00 00 00	 call	 __RTC_CheckEsp
  00979	c6 45 fc 0a	 mov	 BYTE PTR __$EHRec$[ebp+8], 10 ; 0000000aH
  0097d	8b f4		 mov	 esi, esp
  0097f	8d 8d 64 fe ff
	ff		 lea	 ecx, DWORD PTR $T193204[ebp]
  00985	ff 15 00 00 00
	00		 call	 DWORD PTR __imp_??1?$basic_string@DU?$char_traits@D@std@@V?$allocator@D@2@@std@@QAE@XZ
  0098b	3b f4		 cmp	 esi, esp
  0098d	e8 00 00 00 00	 call	 __RTC_CheckEsp

; 91   : 				return;

  00992	c6 45 fc 09	 mov	 BYTE PTR __$EHRec$[ebp+8], 9
  00996	8b f4		 mov	 esi, esp
  00998	8d 8d 68 ff ff
	ff		 lea	 ecx, DWORD PTR _strRight$191125[ebp]
  0099e	ff 15 00 00 00
	00		 call	 DWORD PTR __imp_??1?$CStringT@DV?$StrTraitMFC_DLL@DV?$ChTraitsCRT@D@ATL@@@@@ATL@@QAE@XZ
  009a4	3b f4		 cmp	 esi, esp
  009a6	e8 00 00 00 00	 call	 __RTC_CheckEsp
  009ab	c6 45 fc 07	 mov	 BYTE PTR __$EHRec$[ebp+8], 7
  009af	8b f4		 mov	 esi, esp
  009b1	8d 8d 74 ff ff
	ff		 lea	 ecx, DWORD PTR _strLeft$191124[ebp]
  009b7	ff 15 00 00 00
	00		 call	 DWORD PTR __imp_??1?$CStringT@DV?$StrTraitMFC_DLL@DV?$ChTraitsCRT@D@ATL@@@@@ATL@@QAE@XZ
  009bd	3b f4		 cmp	 esi, esp
  009bf	e8 00 00 00 00	 call	 __RTC_CheckEsp
  009c4	c6 45 fc 06	 mov	 BYTE PTR __$EHRec$[ebp+8], 6
  009c8	8b f4		 mov	 esi, esp
  009ca	8d 4d 8c	 lea	 ecx, DWORD PTR _resToken$[ebp]
  009cd	ff 15 00 00 00
	00		 call	 DWORD PTR __imp_??1?$CStringT@DV?$StrTraitMFC_DLL@DV?$ChTraitsCRT@D@ATL@@@@@ATL@@QAE@XZ
  009d3	3b f4		 cmp	 esi, esp
  009d5	e8 00 00 00 00	 call	 __RTC_CheckEsp
  009da	c6 45 fc 03	 mov	 BYTE PTR __$EHRec$[ebp+8], 3
  009de	8b f4		 mov	 esi, esp
  009e0	8d 4d 98	 lea	 ecx, DWORD PTR _str$[ebp]
  009e3	ff 15 00 00 00
	00		 call	 DWORD PTR __imp_??1?$CStringT@DV?$StrTraitMFC_DLL@DV?$ChTraitsCRT@D@ATL@@@@@ATL@@QAE@XZ
  009e9	3b f4		 cmp	 esi, esp
  009eb	e8 00 00 00 00	 call	 __RTC_CheckEsp
  009f0	c6 45 fc 02	 mov	 BYTE PTR __$EHRec$[ebp+8], 2
  009f4	8b f4		 mov	 esi, esp
  009f6	8d 4d a8	 lea	 ecx, DWORD PTR _strContent$[ebp]
  009f9	ff 15 00 00 00
	00		 call	 DWORD PTR __imp_??1?$basic_string@DU?$char_traits@D@std@@V?$allocator@D@2@@std@@QAE@XZ
  009ff	3b f4		 cmp	 esi, esp
  00a01	e8 00 00 00 00	 call	 __RTC_CheckEsp
  00a06	c7 45 fc ff ff
	ff ff		 mov	 DWORD PTR __$EHRec$[ebp+8], -1
  00a0d	8b f4		 mov	 esi, esp
  00a0f	8d 4d cc	 lea	 ecx, DWORD PTR _strHeader$[ebp]
  00a12	ff 15 00 00 00
	00		 call	 DWORD PTR __imp_??1?$basic_string@DU?$char_traits@D@std@@V?$allocator@D@2@@std@@QAE@XZ
  00a18	3b f4		 cmp	 esi, esp
  00a1a	e8 00 00 00 00	 call	 __RTC_CheckEsp
  00a1f	e9 fc 00 00 00	 jmp	 $L191102
$L191126:

; 92   : 			}
; 93   : 		}
; 94   : 		resToken = str.Tokenize("\n", curPos);

  00a24	8b f4		 mov	 esi, esp
  00a26	8d 4d 80	 lea	 ecx, DWORD PTR _curPos$[ebp]
  00a29	51		 push	 ecx
  00a2a	68 00 00 00 00	 push	 OFFSET FLAT:$SG191148
  00a2f	8d 95 60 fe ff
	ff		 lea	 edx, DWORD PTR $T193205[ebp]
  00a35	52		 push	 edx
  00a36	8d 4d 98	 lea	 ecx, DWORD PTR _str$[ebp]
  00a39	ff 15 00 00 00
	00		 call	 DWORD PTR __imp_?Tokenize@?$CStringT@DV?$StrTraitMFC_DLL@DV?$ChTraitsCRT@D@ATL@@@@@ATL@@QBE?AV12@PBDAAH@Z
  00a3f	3b f4		 cmp	 esi, esp
  00a41	e8 00 00 00 00	 call	 __RTC_CheckEsp
  00a46	89 85 1c fe ff
	ff		 mov	 DWORD PTR tv343[ebp], eax
  00a4c	8b 85 1c fe ff
	ff		 mov	 eax, DWORD PTR tv343[ebp]
  00a52	89 85 18 fe ff
	ff		 mov	 DWORD PTR tv310[ebp], eax
  00a58	c6 45 fc 10	 mov	 BYTE PTR __$EHRec$[ebp+8], 16 ; 00000010H
  00a5c	8b f4		 mov	 esi, esp
  00a5e	8b 8d 18 fe ff
	ff		 mov	 ecx, DWORD PTR tv310[ebp]
  00a64	51		 push	 ecx
  00a65	8d 4d 8c	 lea	 ecx, DWORD PTR _resToken$[ebp]
  00a68	ff 15 00 00 00
	00		 call	 DWORD PTR __imp_??4?$CStringT@DV?$StrTraitMFC_DLL@DV?$ChTraitsCRT@D@ATL@@@@@ATL@@QAEAAV01@ABV01@@Z
  00a6e	3b f4		 cmp	 esi, esp
  00a70	e8 00 00 00 00	 call	 __RTC_CheckEsp
  00a75	c6 45 fc 0a	 mov	 BYTE PTR __$EHRec$[ebp+8], 10 ; 0000000aH
  00a79	8b f4		 mov	 esi, esp
  00a7b	8d 8d 60 fe ff
	ff		 lea	 ecx, DWORD PTR $T193205[ebp]
  00a81	ff 15 00 00 00
	00		 call	 DWORD PTR __imp_??1?$CStringT@DV?$StrTraitMFC_DLL@DV?$ChTraitsCRT@D@ATL@@@@@ATL@@QAE@XZ
  00a87	3b f4		 cmp	 esi, esp
  00a89	e8 00 00 00 00	 call	 __RTC_CheckEsp

; 95   : 	};   

  00a8e	c6 45 fc 09	 mov	 BYTE PTR __$EHRec$[ebp+8], 9
  00a92	8b f4		 mov	 esi, esp
  00a94	8d 8d 68 ff ff
	ff		 lea	 ecx, DWORD PTR _strRight$191125[ebp]
  00a9a	ff 15 00 00 00
	00		 call	 DWORD PTR __imp_??1?$CStringT@DV?$StrTraitMFC_DLL@DV?$ChTraitsCRT@D@ATL@@@@@ATL@@QAE@XZ
  00aa0	3b f4		 cmp	 esi, esp
  00aa2	e8 00 00 00 00	 call	 __RTC_CheckEsp
  00aa7	c6 45 fc 07	 mov	 BYTE PTR __$EHRec$[ebp+8], 7
  00aab	8b f4		 mov	 esi, esp
  00aad	8d 8d 74 ff ff
	ff		 lea	 ecx, DWORD PTR _strLeft$191124[ebp]
  00ab3	ff 15 00 00 00
	00		 call	 DWORD PTR __imp_??1?$CStringT@DV?$StrTraitMFC_DLL@DV?$ChTraitsCRT@D@ATL@@@@@ATL@@QAE@XZ
  00ab9	3b f4		 cmp	 esi, esp
  00abb	e8 00 00 00 00	 call	 __RTC_CheckEsp
  00ac0	e9 9c f9 ff ff	 jmp	 $L191121
$L191122:

; 96   : }

  00ac5	c6 45 fc 06	 mov	 BYTE PTR __$EHRec$[ebp+8], 6
  00ac9	8b f4		 mov	 esi, esp
  00acb	8d 4d 8c	 lea	 ecx, DWORD PTR _resToken$[ebp]
  00ace	ff 15 00 00 00
	00		 call	 DWORD PTR __imp_??1?$CStringT@DV?$StrTraitMFC_DLL@DV?$ChTraitsCRT@D@ATL@@@@@ATL@@QAE@XZ
  00ad4	3b f4		 cmp	 esi, esp
  00ad6	e8 00 00 00 00	 call	 __RTC_CheckEsp
  00adb	c6 45 fc 03	 mov	 BYTE PTR __$EHRec$[ebp+8], 3
  00adf	8b f4		 mov	 esi, esp
  00ae1	8d 4d 98	 lea	 ecx, DWORD PTR _str$[ebp]
  00ae4	ff 15 00 00 00
	00		 call	 DWORD PTR __imp_??1?$CStringT@DV?$StrTraitMFC_DLL@DV?$ChTraitsCRT@D@ATL@@@@@ATL@@QAE@XZ
  00aea	3b f4		 cmp	 esi, esp
  00aec	e8 00 00 00 00	 call	 __RTC_CheckEsp
  00af1	c6 45 fc 02	 mov	 BYTE PTR __$EHRec$[ebp+8], 2
  00af5	8b f4		 mov	 esi, esp
  00af7	8d 4d a8	 lea	 ecx, DWORD PTR _strContent$[ebp]
  00afa	ff 15 00 00 00
	00		 call	 DWORD PTR __imp_??1?$basic_string@DU?$char_traits@D@std@@V?$allocator@D@2@@std@@QAE@XZ
  00b00	3b f4		 cmp	 esi, esp
  00b02	e8 00 00 00 00	 call	 __RTC_CheckEsp
  00b07	c7 45 fc ff ff
	ff ff		 mov	 DWORD PTR __$EHRec$[ebp+8], -1
  00b0e	8b f4		 mov	 esi, esp
  00b10	8d 4d cc	 lea	 ecx, DWORD PTR _strHeader$[ebp]
  00b13	ff 15 00 00 00
	00		 call	 DWORD PTR __imp_??1?$basic_string@DU?$char_traits@D@std@@V?$allocator@D@2@@std@@QAE@XZ
  00b19	3b f4		 cmp	 esi, esp
  00b1b	e8 00 00 00 00	 call	 __RTC_CheckEsp
$L191102:
  00b20	52		 push	 edx
  00b21	8b cd		 mov	 ecx, ebp
  00b23	50		 push	 eax
  00b24	8d 15 00 00 00
	00		 lea	 edx, DWORD PTR $L193235
  00b2a	e8 00 00 00 00	 call	 @_RTC_CheckStackVars@8
  00b2f	58		 pop	 eax
  00b30	5a		 pop	 edx
  00b31	8b 4d f4	 mov	 ecx, DWORD PTR __$EHRec$[ebp]
  00b34	64 89 0d 00 00
	00 00		 mov	 DWORD PTR fs:__except_list, ecx
  00b3b	8b 4d f0	 mov	 ecx, DWORD PTR __$ArrayPad$[ebp]
  00b3e	e8 00 00 00 00	 call	 @__security_check_cookie@4
  00b43	5f		 pop	 edi
  00b44	5e		 pop	 esi
  00b45	81 c4 e8 01 00
	00		 add	 esp, 488		; 000001e8H
  00b4b	3b ec		 cmp	 ebp, esp
  00b4d	e8 00 00 00 00	 call	 __RTC_CheckEsp
  00b52	8b e5		 mov	 esp, ebp
  00b54	5d		 pop	 ebp
  00b55	c2 08 00	 ret	 8
$L193235:
  00b58	07 00 00 00	 DD	 7
  00b5c	00 00 00 00	 DD	 $L193234
$L193234:
  00b60	cc ff ff ff	 DD	 -52			; ffffffccH
  00b64	1c 00 00 00	 DD	 28			; 0000001cH
  00b68	00 00 00 00	 DD	 $L193225
  00b6c	a8 ff ff ff	 DD	 -88			; ffffffa8H
  00b70	1c 00 00 00	 DD	 28			; 0000001cH
  00b74	00 00 00 00	 DD	 $L193226
  00b78	98 ff ff ff	 DD	 -104			; ffffff98H
  00b7c	04 00 00 00	 DD	 4
  00b80	00 00 00 00	 DD	 $L193227
  00b84	8c ff ff ff	 DD	 -116			; ffffff8cH
  00b88	04 00 00 00	 DD	 4
  00b8c	00 00 00 00	 DD	 $L193228
  00b90	80 ff ff ff	 DD	 -128			; ffffff80H
  00b94	04 00 00 00	 DD	 4
  00b98	00 00 00 00	 DD	 $L193229
  00b9c	74 ff ff ff	 DD	 -140			; ffffff74H
  00ba0	04 00 00 00	 DD	 4
  00ba4	00 00 00 00	 DD	 $L193230
  00ba8	68 ff ff ff	 DD	 -152			; ffffff68H
  00bac	04 00 00 00	 DD	 4
  00bb0	00 00 00 00	 DD	 $L193231
$L193231:
  00bb4	73		 DB	 115			; 00000073H
  00bb5	74		 DB	 116			; 00000074H
  00bb6	72		 DB	 114			; 00000072H
  00bb7	52		 DB	 82			; 00000052H
  00bb8	69		 DB	 105			; 00000069H
  00bb9	67		 DB	 103			; 00000067H
  00bba	68		 DB	 104			; 00000068H
  00bbb	74		 DB	 116			; 00000074H
  00bbc	00		 DB	 0
$L193230:
  00bbd	73		 DB	 115			; 00000073H
  00bbe	74		 DB	 116			; 00000074H
  00bbf	72		 DB	 114			; 00000072H
  00bc0	4c		 DB	 76			; 0000004cH
  00bc1	65		 DB	 101			; 00000065H
  00bc2	66		 DB	 102			; 00000066H
  00bc3	74		 DB	 116			; 00000074H
  00bc4	00		 DB	 0
$L193229:
  00bc5	63		 DB	 99			; 00000063H
  00bc6	75		 DB	 117			; 00000075H
  00bc7	72		 DB	 114			; 00000072H
  00bc8	50		 DB	 80			; 00000050H
  00bc9	6f		 DB	 111			; 0000006fH
  00bca	73		 DB	 115			; 00000073H
  00bcb	00		 DB	 0
$L193228:
  00bcc	72		 DB	 114			; 00000072H
  00bcd	65		 DB	 101			; 00000065H
  00bce	73		 DB	 115			; 00000073H
  00bcf	54		 DB	 84			; 00000054H
  00bd0	6f		 DB	 111			; 0000006fH
  00bd1	6b		 DB	 107			; 0000006bH
  00bd2	65		 DB	 101			; 00000065H
  00bd3	6e		 DB	 110			; 0000006eH
  00bd4	00		 DB	 0
$L193227:
  00bd5	73		 DB	 115			; 00000073H
  00bd6	74		 DB	 116			; 00000074H
  00bd7	72		 DB	 114			; 00000072H
  00bd8	00		 DB	 0
$L193226:
  00bd9	73		 DB	 115			; 00000073H
  00bda	74		 DB	 116			; 00000074H
  00bdb	72		 DB	 114			; 00000072H
  00bdc	43		 DB	 67			; 00000043H
  00bdd	6f		 DB	 111			; 0000006fH
  00bde	6e		 DB	 110			; 0000006eH
  00bdf	74		 DB	 116			; 00000074H
  00be0	65		 DB	 101			; 00000065H
  00be1	6e		 DB	 110			; 0000006eH
  00be2	74		 DB	 116			; 00000074H
  00be3	00		 DB	 0
$L193225:
  00be4	73		 DB	 115			; 00000073H
  00be5	74		 DB	 116			; 00000074H
  00be6	72		 DB	 114			; 00000072H
  00be7	48		 DB	 72			; 00000048H
  00be8	65		 DB	 101			; 00000065H
  00be9	61		 DB	 97			; 00000061H
  00bea	64		 DB	 100			; 00000064H
  00beb	65		 DB	 101			; 00000065H
  00bec	72		 DB	 114			; 00000072H
  00bed	00		 DB	 0
_TEXT	ENDS
text$x	SEGMENT
$L193206:
  00015	8b f4		 mov	 esi, esp
  00017	8d 8d 48 ff ff
	ff		 lea	 ecx, DWORD PTR $T193195[ebp]
  0001d	ff 15 00 00 00
	00		 call	 DWORD PTR __imp_??1?$basic_string@DU?$char_traits@D@std@@V?$allocator@D@2@@std@@QAE@XZ
  00023	3b f4		 cmp	 esi, esp
  00025	e9 00 00 00 00	 jmp	 __RTC_CheckEsp
$L193207:
  0002a	8b f4		 mov	 esi, esp
  0002c	8d 8d 2c ff ff
	ff		 lea	 ecx, DWORD PTR $T193196[ebp]
  00032	ff 15 00 00 00
	00		 call	 DWORD PTR __imp_??1?$basic_string@DU?$char_traits@D@std@@V?$allocator@D@2@@std@@QAE@XZ
  00038	3b f4		 cmp	 esi, esp
  0003a	e9 00 00 00 00	 jmp	 __RTC_CheckEsp
$L193208:
  0003f	8b f4		 mov	 esi, esp
  00041	8d 4d cc	 lea	 ecx, DWORD PTR _strHeader$[ebp]
  00044	ff 15 00 00 00
	00		 call	 DWORD PTR __imp_??1?$basic_string@DU?$char_traits@D@std@@V?$allocator@D@2@@std@@QAE@XZ
  0004a	3b f4		 cmp	 esi, esp
  0004c	e9 00 00 00 00	 jmp	 __RTC_CheckEsp
$L193209:
  00051	8b f4		 mov	 esi, esp
  00053	8d 4d a8	 lea	 ecx, DWORD PTR _strContent$[ebp]
  00056	ff 15 00 00 00
	00		 call	 DWORD PTR __imp_??1?$basic_string@DU?$char_traits@D@std@@V?$allocator@D@2@@std@@QAE@XZ
  0005c	3b f4		 cmp	 esi, esp
  0005e	e9 00 00 00 00	 jmp	 __RTC_CheckEsp
$L193210:
  00063	8b f4		 mov	 esi, esp
  00065	8d 8d 10 ff ff
	ff		 lea	 ecx, DWORD PTR $T193197[ebp]
  0006b	ff 15 00 00 00
	00		 call	 DWORD PTR __imp_??1?$basic_string@DU?$char_traits@D@std@@V?$allocator@D@2@@std@@QAE@XZ
  00071	3b f4		 cmp	 esi, esp
  00073	e9 00 00 00 00	 jmp	 __RTC_CheckEsp
$L193211:
  00078	8b f4		 mov	 esi, esp
  0007a	8d 8d f4 fe ff
	ff		 lea	 ecx, DWORD PTR $T193198[ebp]
  00080	ff 15 00 00 00
	00		 call	 DWORD PTR __imp_??1?$basic_string@DU?$char_traits@D@std@@V?$allocator@D@2@@std@@QAE@XZ
  00086	3b f4		 cmp	 esi, esp
  00088	e9 00 00 00 00	 jmp	 __RTC_CheckEsp
$L193212:
  0008d	8b f4		 mov	 esi, esp
  0008f	8d 4d 98	 lea	 ecx, DWORD PTR _str$[ebp]
  00092	ff 15 00 00 00
	00		 call	 DWORD PTR __imp_??1?$CStringT@DV?$StrTraitMFC_DLL@DV?$ChTraitsCRT@D@ATL@@@@@ATL@@QAE@XZ
  00098	3b f4		 cmp	 esi, esp
  0009a	e9 00 00 00 00	 jmp	 __RTC_CheckEsp
$L193213:
  0009f	8b f4		 mov	 esi, esp
  000a1	8d 4d 8c	 lea	 ecx, DWORD PTR _resToken$[ebp]
  000a4	ff 15 00 00 00
	00		 call	 DWORD PTR __imp_??1?$CStringT@DV?$StrTraitMFC_DLL@DV?$ChTraitsCRT@D@ATL@@@@@ATL@@QAE@XZ
  000aa	3b f4		 cmp	 esi, esp
  000ac	e9 00 00 00 00	 jmp	 __RTC_CheckEsp
$L193214:
  000b1	8b f4		 mov	 esi, esp
  000b3	8d 8d f0 fe ff
	ff		 lea	 ecx, DWORD PTR $T193199[ebp]
  000b9	ff 15 00 00 00
	00		 call	 DWORD PTR __imp_??1?$CStringT@DV?$StrTraitMFC_DLL@DV?$ChTraitsCRT@D@ATL@@@@@ATL@@QAE@XZ
  000bf	3b f4		 cmp	 esi, esp
  000c1	e9 00 00 00 00	 jmp	 __RTC_CheckEsp
$L193215:
  000c6	8b f4		 mov	 esi, esp
  000c8	8d 8d 74 ff ff
	ff		 lea	 ecx, DWORD PTR _strLeft$191124[ebp]
  000ce	ff 15 00 00 00
	00		 call	 DWORD PTR __imp_??1?$CStringT@DV?$StrTraitMFC_DLL@DV?$ChTraitsCRT@D@ATL@@@@@ATL@@QAE@XZ
  000d4	3b f4		 cmp	 esi, esp
  000d6	e9 00 00 00 00	 jmp	 __RTC_CheckEsp
$L193216:
  000db	8b f4		 mov	 esi, esp
  000dd	8d 8d 68 ff ff
	ff		 lea	 ecx, DWORD PTR _strRight$191125[ebp]
  000e3	ff 15 00 00 00
	00		 call	 DWORD PTR __imp_??1?$CStringT@DV?$StrTraitMFC_DLL@DV?$ChTraitsCRT@D@ATL@@@@@ATL@@QAE@XZ
  000e9	3b f4		 cmp	 esi, esp
  000eb	e9 00 00 00 00	 jmp	 __RTC_CheckEsp
$L193217:
  000f0	8b f4		 mov	 esi, esp
  000f2	8d 8d d4 fe ff
	ff		 lea	 ecx, DWORD PTR $T193200[ebp]
  000f8	ff 15 00 00 00
	00		 call	 DWORD PTR __imp_??1?$basic_string@DU?$char_traits@D@std@@V?$allocator@D@2@@std@@QAE@XZ
  000fe	3b f4		 cmp	 esi, esp
  00100	e9 00 00 00 00	 jmp	 __RTC_CheckEsp
$L193218:
  00105	8b f4		 mov	 esi, esp
  00107	8d 8d b8 fe ff
	ff		 lea	 ecx, DWORD PTR $T193201[ebp]
  0010d	ff 15 00 00 00
	00		 call	 DWORD PTR __imp_??1?$basic_string@DU?$char_traits@D@std@@V?$allocator@D@2@@std@@QAE@XZ
  00113	3b f4		 cmp	 esi, esp
  00115	e9 00 00 00 00	 jmp	 __RTC_CheckEsp
$L193219:
  0011a	8b f4		 mov	 esi, esp
  0011c	8d 8d 9c fe ff
	ff		 lea	 ecx, DWORD PTR $T193202[ebp]
  00122	ff 15 00 00 00
	00		 call	 DWORD PTR __imp_??1?$basic_string@DU?$char_traits@D@std@@V?$allocator@D@2@@std@@QAE@XZ
  00128	3b f4		 cmp	 esi, esp
  0012a	e9 00 00 00 00	 jmp	 __RTC_CheckEsp
$L193220:
  0012f	8b f4		 mov	 esi, esp
  00131	8d 8d 80 fe ff
	ff		 lea	 ecx, DWORD PTR $T193203[ebp]
  00137	ff 15 00 00 00
	00		 call	 DWORD PTR __imp_??1?$basic_string@DU?$char_traits@D@std@@V?$allocator@D@2@@std@@QAE@XZ
  0013d	3b f4		 cmp	 esi, esp
  0013f	e9 00 00 00 00	 jmp	 __RTC_CheckEsp
$L193221:
  00144	8b f4		 mov	 esi, esp
  00146	8d 8d 64 fe ff
	ff		 lea	 ecx, DWORD PTR $T193204[ebp]
  0014c	ff 15 00 00 00
	00		 call	 DWORD PTR __imp_??1?$basic_string@DU?$char_traits@D@std@@V?$allocator@D@2@@std@@QAE@XZ
  00152	3b f4		 cmp	 esi, esp
  00154	e9 00 00 00 00	 jmp	 __RTC_CheckEsp
$L193222:
  00159	8b f4		 mov	 esi, esp
  0015b	8d 8d 60 fe ff
	ff		 lea	 ecx, DWORD PTR $T193205[ebp]
  00161	ff 15 00 00 00
	00		 call	 DWORD PTR __imp_??1?$CStringT@DV?$StrTraitMFC_DLL@DV?$ChTraitsCRT@D@ATL@@@@@ATL@@QAE@XZ
  00167	3b f4		 cmp	 esi, esp
  00169	e9 00 00 00 00	 jmp	 __RTC_CheckEsp
__ehhandler$?CallGBoxFromWeb@CWebManager@@QAEXABV?$basic_string@DU?$char_traits@D@std@@V?$allocator@D@2@@std@@AAV23@@Z:
  0016e	b8 00 00 00 00	 mov	 eax, OFFSET FLAT:$T193224
  00173	e9 00 00 00 00	 jmp	 ___CxxFrameHandler
text$x	ENDS
?CallGBoxFromWeb@CWebManager@@QAEXABV?$basic_string@DU?$char_traits@D@std@@V?$allocator@D@2@@std@@AAV23@@Z ENDP ; CWebManager::CallGBoxFromWeb
PUBLIC	??9const_iterator@?$list@PAVIMessageObserver@@V?$allocator@PAVIMessageObserver@@@std@@@std@@QBE_NABV012@@Z ; std::list<IMessageObserver *,std::allocator<IMessageObserver *> >::const_iterator::operator!=
PUBLIC	??Diterator@?$list@PAVIMessageObserver@@V?$allocator@PAVIMessageObserver@@@std@@@std@@QBEAAPAVIMessageObserver@@XZ ; std::list<IMessageObserver *,std::allocator<IMessageObserver *> >::iterator::operator*
PUBLIC	??Eiterator@?$list@PAVIMessageObserver@@V?$allocator@PAVIMessageObserver@@@std@@@std@@QAE?AV012@H@Z ; std::list<IMessageObserver *,std::allocator<IMessageObserver *> >::iterator::operator++
PUBLIC	??_R0?AVIWebRefreshObserver@@@8			; IWebRefreshObserver `RTTI Type Descriptor'
PUBLIC	??_R0?AVIMessageObserver@@@8			; IMessageObserver `RTTI Type Descriptor'
PUBLIC	?NotifyWebRefresh@CWebManager@@AAEXPBD@Z	; CWebManager::NotifyWebRefresh
PUBLIC	??0?$list@PAVIMessageObserver@@V?$allocator@PAVIMessageObserver@@@std@@@std@@QAE@XZ ; std::list<IMessageObserver *,std::allocator<IMessageObserver *> >::list<IMessageObserver *,std::allocator<IMessageObserver *> >
PUBLIC	??1?$list@PAVIMessageObserver@@V?$allocator@PAVIMessageObserver@@@std@@@std@@QAE@XZ ; std::list<IMessageObserver *,std::allocator<IMessageObserver *> >::~list<IMessageObserver *,std::allocator<IMessageObserver *> >
PUBLIC	?begin@?$list@PAVIMessageObserver@@V?$allocator@PAVIMessageObserver@@@std@@@std@@QAE?AViterator@12@XZ ; std::list<IMessageObserver *,std::allocator<IMessageObserver *> >::begin
PUBLIC	?end@?$list@PAVIMessageObserver@@V?$allocator@PAVIMessageObserver@@@std@@@std@@QAE?AViterator@12@XZ ; std::list<IMessageObserver *,std::allocator<IMessageObserver *> >::end
EXTRN	?AfxGetMessageManager@@YAPAVIMessageManager@@XZ:NEAR ; AfxGetMessageManager
EXTRN	___RTDynamicCast:NEAR
EXTRN	??_7type_info@@6B@:QWORD			; type_info::`vftable'
xdata$x	SEGMENT
$T193248 DD	0ffffffffH
	DD	FLAT:$L193240
$T193242 DD	019930520H
	DD	01H
	DD	FLAT:$T193248
	DD	2 DUP(00H)
	DD	2 DUP(00H)
xdata$x	ENDS
;	COMDAT ??_R0?AVIWebRefreshObserver@@@8
_DATA	SEGMENT
??_R0?AVIWebRefreshObserver@@@8 DD FLAT:??_7type_info@@6B@ ; IWebRefreshObserver `RTTI Type Descriptor'
	DD	00H
	DB	'.?AVIWebRefreshObserver@@', 00H
_DATA	ENDS
;	COMDAT ??_R0?AVIMessageObserver@@@8
_DATA	SEGMENT
??_R0?AVIMessageObserver@@@8 DD FLAT:??_7type_info@@6B@	; IMessageObserver `RTTI Type Descriptor'
	DD	00H
	DB	'.?AVIMessageObserver@@', 00H
	ORG $-31
	DD	FLAT:??_7type_info@@6B@
	DD	00H
	DB	'.?AVIMessageObserver@@', 00H
; Function compile flags: /Odt /RTCsu
_DATA	ENDS
_TEXT	SEGMENT
tv69 = -64						; size = 4
$T193239 = -60						; size = 4
$T193238 = -56						; size = 4
_pOb$191654 = -52					; size = 4
_itOb$191647 = -44					; size = 4
_listOb$ = -32						; size = 12
_this$ = -16						; size = 4
__$EHRec$ = -12						; size = 12
_psz$ = 8						; size = 4
?NotifyWebRefresh@CWebManager@@AAEXPBD@Z PROC NEAR	; CWebManager::NotifyWebRefresh
; _this$ = ecx

; 99   : {

  00bf0	55		 push	 ebp
  00bf1	8b ec		 mov	 ebp, esp
  00bf3	6a ff		 push	 -1
  00bf5	68 00 00 00 00	 push	 __ehhandler$?NotifyWebRefresh@CWebManager@@AAEXPBD@Z
  00bfa	64 a1 00 00 00
	00		 mov	 eax, DWORD PTR fs:__except_list
  00c00	50		 push	 eax
  00c01	64 89 25 00 00
	00 00		 mov	 DWORD PTR fs:__except_list, esp
  00c08	83 ec 34	 sub	 esp, 52			; 00000034H
  00c0b	56		 push	 esi
  00c0c	57		 push	 edi
  00c0d	51		 push	 ecx
  00c0e	8d 7d c0	 lea	 edi, DWORD PTR [ebp-64]
  00c11	b9 0d 00 00 00	 mov	 ecx, 13			; 0000000dH
  00c16	b8 cc cc cc cc	 mov	 eax, -858993460		; ccccccccH
  00c1b	f3 ab		 rep stosd
  00c1d	59		 pop	 ecx
  00c1e	89 4d f0	 mov	 DWORD PTR _this$[ebp], ecx

; 100  : 	list<IMessageObserver*> listOb;

  00c21	8d 4d e0	 lea	 ecx, DWORD PTR _listOb$[ebp]
  00c24	e8 00 00 00 00	 call	 ??0?$list@PAVIMessageObserver@@V?$allocator@PAVIMessageObserver@@@std@@@std@@QAE@XZ ; std::list<IMessageObserver *,std::allocator<IMessageObserver *> >::list<IMessageObserver *,std::allocator<IMessageObserver *> >
  00c29	c7 45 fc 00 00
	00 00		 mov	 DWORD PTR __$EHRec$[ebp+8], 0

; 101  : 	AfxGetMessageManager()->QueryObservers( ID_MESSAGE_REFRESH,listOb);

  00c30	e8 00 00 00 00	 call	 ?AfxGetMessageManager@@YAPAVIMessageManager@@XZ ; AfxGetMessageManager
  00c35	89 45 c0	 mov	 DWORD PTR tv69[ebp], eax
  00c38	8b f4		 mov	 esi, esp
  00c3a	8d 45 e0	 lea	 eax, DWORD PTR _listOb$[ebp]
  00c3d	50		 push	 eax
  00c3e	68 00 00 00 00	 push	 OFFSET FLAT:_ID_MESSAGE_REFRESH
  00c43	8b 4d c0	 mov	 ecx, DWORD PTR tv69[ebp]
  00c46	8b 11		 mov	 edx, DWORD PTR [ecx]
  00c48	8b 4d c0	 mov	 ecx, DWORD PTR tv69[ebp]
  00c4b	ff 52 0c	 call	 DWORD PTR [edx+12]
  00c4e	3b f4		 cmp	 esi, esp
  00c50	e8 00 00 00 00	 call	 __RTC_CheckEsp

; 102  : 
; 103  : 	for( list<IMessageObserver*>::iterator itOb = listOb.begin();itOb != listOb.end();itOb++ )

  00c55	8d 45 d4	 lea	 eax, DWORD PTR _itOb$191647[ebp]
  00c58	50		 push	 eax
  00c59	8d 4d e0	 lea	 ecx, DWORD PTR _listOb$[ebp]
  00c5c	e8 00 00 00 00	 call	 ?begin@?$list@PAVIMessageObserver@@V?$allocator@PAVIMessageObserver@@@std@@@std@@QAE?AViterator@12@XZ ; std::list<IMessageObserver *,std::allocator<IMessageObserver *> >::begin
  00c61	eb 0e		 jmp	 SHORT $L191651
$L191652:
  00c63	6a 00		 push	 0
  00c65	8d 4d c8	 lea	 ecx, DWORD PTR $T193238[ebp]
  00c68	51		 push	 ecx
  00c69	8d 4d d4	 lea	 ecx, DWORD PTR _itOb$191647[ebp]
  00c6c	e8 00 00 00 00	 call	 ??Eiterator@?$list@PAVIMessageObserver@@V?$allocator@PAVIMessageObserver@@@std@@@std@@QAE?AV012@H@Z ; std::list<IMessageObserver *,std::allocator<IMessageObserver *> >::iterator::operator++
$L191651:
  00c71	8d 55 c4	 lea	 edx, DWORD PTR $T193239[ebp]
  00c74	52		 push	 edx
  00c75	8d 4d e0	 lea	 ecx, DWORD PTR _listOb$[ebp]
  00c78	e8 00 00 00 00	 call	 ?end@?$list@PAVIMessageObserver@@V?$allocator@PAVIMessageObserver@@@std@@@std@@QAE?AViterator@12@XZ ; std::list<IMessageObserver *,std::allocator<IMessageObserver *> >::end
  00c7d	50		 push	 eax
  00c7e	8d 4d d4	 lea	 ecx, DWORD PTR _itOb$191647[ebp]
  00c81	e8 00 00 00 00	 call	 ??9const_iterator@?$list@PAVIMessageObserver@@V?$allocator@PAVIMessageObserver@@@std@@@std@@QBE_NABV012@@Z ; std::list<IMessageObserver *,std::allocator<IMessageObserver *> >::const_iterator::operator!=
  00c86	0f b6 c0	 movzx	 eax, al
  00c89	85 c0		 test	 eax, eax
  00c8b	74 3e		 je	 SHORT $L191653

; 104  : 	{
; 105  : 		IWebRefreshObserver* pOb = dynamic_cast<IWebRefreshObserver*>(*itOb);

  00c8d	6a 00		 push	 0
  00c8f	68 00 00 00 00	 push	 OFFSET FLAT:??_R0?AVIWebRefreshObserver@@@8
  00c94	68 00 00 00 00	 push	 OFFSET FLAT:??_R0?AVIMessageObserver@@@8
  00c99	6a 00		 push	 0
  00c9b	8d 4d d4	 lea	 ecx, DWORD PTR _itOb$191647[ebp]
  00c9e	e8 00 00 00 00	 call	 ??Diterator@?$list@PAVIMessageObserver@@V?$allocator@PAVIMessageObserver@@@std@@@std@@QBEAAPAVIMessageObserver@@XZ ; std::list<IMessageObserver *,std::allocator<IMessageObserver *> >::iterator::operator*
  00ca3	8b 08		 mov	 ecx, DWORD PTR [eax]
  00ca5	51		 push	 ecx
  00ca6	e8 00 00 00 00	 call	 ___RTDynamicCast
  00cab	83 c4 14	 add	 esp, 20			; 00000014H
  00cae	89 45 cc	 mov	 DWORD PTR _pOb$191654[ebp], eax

; 106  : 		pOb->IWebRefreshOb_Refresh( psz);

  00cb1	8b f4		 mov	 esi, esp
  00cb3	8b 55 08	 mov	 edx, DWORD PTR _psz$[ebp]
  00cb6	52		 push	 edx
  00cb7	8b 45 cc	 mov	 eax, DWORD PTR _pOb$191654[ebp]
  00cba	8b 10		 mov	 edx, DWORD PTR [eax]
  00cbc	8b 4d cc	 mov	 ecx, DWORD PTR _pOb$191654[ebp]
  00cbf	ff 52 04	 call	 DWORD PTR [edx+4]
  00cc2	3b f4		 cmp	 esi, esp
  00cc4	e8 00 00 00 00	 call	 __RTC_CheckEsp

; 107  : 	}

  00cc9	eb 98		 jmp	 SHORT $L191652
$L191653:

; 108  : }

  00ccb	c7 45 fc ff ff
	ff ff		 mov	 DWORD PTR __$EHRec$[ebp+8], -1
  00cd2	8d 4d e0	 lea	 ecx, DWORD PTR _listOb$[ebp]
  00cd5	e8 00 00 00 00	 call	 ??1?$list@PAVIMessageObserver@@V?$allocator@PAVIMessageObserver@@@std@@@std@@QAE@XZ ; std::list<IMessageObserver *,std::allocator<IMessageObserver *> >::~list<IMessageObserver *,std::allocator<IMessageObserver *> >
  00cda	52		 push	 edx
  00cdb	8b cd		 mov	 ecx, ebp
  00cdd	50		 push	 eax
  00cde	8d 15 00 00 00
	00		 lea	 edx, DWORD PTR $L193247
  00ce4	e8 00 00 00 00	 call	 @_RTC_CheckStackVars@8
  00ce9	58		 pop	 eax
  00cea	5a		 pop	 edx
  00ceb	8b 4d f4	 mov	 ecx, DWORD PTR __$EHRec$[ebp]
  00cee	64 89 0d 00 00
	00 00		 mov	 DWORD PTR fs:__except_list, ecx
  00cf5	5f		 pop	 edi
  00cf6	5e		 pop	 esi
  00cf7	83 c4 40	 add	 esp, 64			; 00000040H
  00cfa	3b ec		 cmp	 ebp, esp
  00cfc	e8 00 00 00 00	 call	 __RTC_CheckEsp
  00d01	8b e5		 mov	 esp, ebp
  00d03	5d		 pop	 ebp
  00d04	c2 04 00	 ret	 4
$L193247:
  00d07	02 00 00 00	 DD	 2
  00d0b	00 00 00 00	 DD	 $L193246
$L193246:
  00d0f	e0 ff ff ff	 DD	 -32			; ffffffe0H
  00d13	0c 00 00 00	 DD	 12			; 0000000cH
  00d17	00 00 00 00	 DD	 $L193243
  00d1b	d4 ff ff ff	 DD	 -44			; ffffffd4H
  00d1f	04 00 00 00	 DD	 4
  00d23	00 00 00 00	 DD	 $L193244
$L193244:
  00d27	69		 DB	 105			; 00000069H
  00d28	74		 DB	 116			; 00000074H
  00d29	4f		 DB	 79			; 0000004fH
  00d2a	62		 DB	 98			; 00000062H
  00d2b	00		 DB	 0
$L193243:
  00d2c	6c		 DB	 108			; 0000006cH
  00d2d	69		 DB	 105			; 00000069H
  00d2e	73		 DB	 115			; 00000073H
  00d2f	74		 DB	 116			; 00000074H
  00d30	4f		 DB	 79			; 0000004fH
  00d31	62		 DB	 98			; 00000062H
  00d32	00		 DB	 0
_TEXT	ENDS
text$x	SEGMENT
$L193240:
  00178	8d 4d e0	 lea	 ecx, DWORD PTR _listOb$[ebp]
  0017b	e9 00 00 00 00	 jmp	 ??1?$list@PAVIMessageObserver@@V?$allocator@PAVIMessageObserver@@@std@@@std@@QAE@XZ ; std::list<IMessageObserver *,std::allocator<IMessageObserver *> >::~list<IMessageObserver *,std::allocator<IMessageObserver *> >
__ehhandler$?NotifyWebRefresh@CWebManager@@AAEXPBD@Z:
  00180	b8 00 00 00 00	 mov	 eax, OFFSET FLAT:$T193242
  00185	e9 00 00 00 00	 jmp	 ___CxxFrameHandler
text$x	ENDS
?NotifyWebRefresh@CWebManager@@AAEXPBD@Z ENDP		; CWebManager::NotifyWebRefresh
PUBLIC	?GetValue@CWebManager@@QAE?AV?$basic_string@DU?$char_traits@D@std@@V?$allocator@D@2@@std@@AAV23@V23@@Z ; CWebManager::GetValue
EXTRN	__imp_?length@?$basic_string@DU?$char_traits@D@std@@V?$allocator@D@2@@std@@QBEIXZ:NEAR
xdata$x	SEGMENT
$T193264 DD	0ffffffffH
	DD	FLAT:$L193254
	DD	00H
	DD	FLAT:$L193253
$T193258 DD	019930520H
	DD	02H
	DD	FLAT:$T193264
	DD	2 DUP(00H)
	DD	2 DUP(00H)
; Function compile flags: /Odt /RTCsu
xdata$x	ENDS
_TEXT	SEGMENT
tv132 = -72						; size = 4
tv131 = -68						; size = 4
$T193255 = -64						; size = 4
$T193251 = -60						; size = 4
_strUrl$ = -52						; size = 28
_this$ = -20						; size = 4
__$ArrayPad$ = -16					; size = 4
__$EHRec$ = -12						; size = 12
__$ReturnAddr$ = 4					; size = 4
___$ReturnUdt$ = 8					; size = 4
_strContent$ = 12					; size = 4
?_command_refresh@CWebManager@@AAE?AV?$basic_string@DU?$char_traits@D@std@@V?$allocator@D@2@@std@@AAV23@@Z PROC NEAR ; CWebManager::_command_refresh
; _this$ = ecx

; 110  : {

  00d40	55		 push	 ebp
  00d41	8b ec		 mov	 ebp, esp
  00d43	6a ff		 push	 -1
  00d45	68 00 00 00 00	 push	 __ehhandler$?_command_refresh@CWebManager@@AAE?AV?$basic_string@DU?$char_traits@D@std@@V?$allocator@D@2@@std@@AAV23@@Z
  00d4a	64 a1 00 00 00
	00		 mov	 eax, DWORD PTR fs:__except_list
  00d50	50		 push	 eax
  00d51	64 89 25 00 00
	00 00		 mov	 DWORD PTR fs:__except_list, esp
  00d58	83 ec 3c	 sub	 esp, 60			; 0000003cH
  00d5b	56		 push	 esi
  00d5c	57		 push	 edi
  00d5d	51		 push	 ecx
  00d5e	8d 7d b8	 lea	 edi, DWORD PTR [ebp-72]
  00d61	b9 0f 00 00 00	 mov	 ecx, 15			; 0000000fH
  00d66	b8 cc cc cc cc	 mov	 eax, -858993460		; ccccccccH
  00d6b	f3 ab		 rep stosd
  00d6d	59		 pop	 ecx
  00d6e	a1 00 00 00 00	 mov	 eax, DWORD PTR ___security_cookie
  00d73	89 45 f0	 mov	 DWORD PTR __$ArrayPad$[ebp], eax
  00d76	89 4d ec	 mov	 DWORD PTR _this$[ebp], ecx
  00d79	c7 45 c0 00 00
	00 00		 mov	 DWORD PTR $T193255[ebp], 0

; 111  : 	string strUrl   = GetValue( strContent, "url" );

  00d80	83 ec 1c	 sub	 esp, 28			; 0000001cH
  00d83	8b cc		 mov	 ecx, esp
  00d85	89 65 c4	 mov	 DWORD PTR $T193251[ebp], esp
  00d88	8b f4		 mov	 esi, esp
  00d8a	68 00 00 00 00	 push	 OFFSET FLAT:$SG191665
  00d8f	ff 15 00 00 00
	00		 call	 DWORD PTR __imp_??0?$basic_string@DU?$char_traits@D@std@@V?$allocator@D@2@@std@@QAE@PBD@Z
  00d95	3b f4		 cmp	 esi, esp
  00d97	e8 00 00 00 00	 call	 __RTC_CheckEsp
  00d9c	89 45 bc	 mov	 DWORD PTR tv131[ebp], eax
  00d9f	8b 45 0c	 mov	 eax, DWORD PTR _strContent$[ebp]
  00da2	50		 push	 eax
  00da3	8d 4d cc	 lea	 ecx, DWORD PTR _strUrl$[ebp]
  00da6	51		 push	 ecx
  00da7	8b 4d ec	 mov	 ecx, DWORD PTR _this$[ebp]
  00daa	e8 00 00 00 00	 call	 ?GetValue@CWebManager@@QAE?AV?$basic_string@DU?$char_traits@D@std@@V?$allocator@D@2@@std@@AAV23@V23@@Z ; CWebManager::GetValue
  00daf	89 45 b8	 mov	 DWORD PTR tv132[ebp], eax
  00db2	c7 45 fc 01 00
	00 00		 mov	 DWORD PTR __$EHRec$[ebp+8], 1

; 112  : 
; 113  : 	if( strUrl.length() != 0 )

  00db9	8b f4		 mov	 esi, esp
  00dbb	8d 4d cc	 lea	 ecx, DWORD PTR _strUrl$[ebp]
  00dbe	ff 15 00 00 00
	00		 call	 DWORD PTR __imp_?length@?$basic_string@DU?$char_traits@D@std@@V?$allocator@D@2@@std@@QBEIXZ
  00dc4	3b f4		 cmp	 esi, esp
  00dc6	e8 00 00 00 00	 call	 __RTC_CheckEsp
  00dcb	85 c0		 test	 eax, eax
  00dcd	74 56		 je	 SHORT $L191666

; 114  : 	{
; 115  : 		NotifyWebRefresh( strUrl.c_str() );

  00dcf	8b f4		 mov	 esi, esp
  00dd1	8d 4d cc	 lea	 ecx, DWORD PTR _strUrl$[ebp]
  00dd4	ff 15 00 00 00
	00		 call	 DWORD PTR __imp_?c_str@?$basic_string@DU?$char_traits@D@std@@V?$allocator@D@2@@std@@QBEPBDXZ
  00dda	3b f4		 cmp	 esi, esp
  00ddc	e8 00 00 00 00	 call	 __RTC_CheckEsp
  00de1	50		 push	 eax
  00de2	8b 4d ec	 mov	 ecx, DWORD PTR _this$[ebp]
  00de5	e8 00 00 00 00	 call	 ?NotifyWebRefresh@CWebManager@@AAEXPBD@Z ; CWebManager::NotifyWebRefresh

; 116  : 		return "res=ok\n\n";

  00dea	8b f4		 mov	 esi, esp
  00dec	68 00 00 00 00	 push	 OFFSET FLAT:$SG191667
  00df1	8b 4d 08	 mov	 ecx, DWORD PTR ___$ReturnUdt$[ebp]
  00df4	ff 15 00 00 00
	00		 call	 DWORD PTR __imp_??0?$basic_string@DU?$char_traits@D@std@@V?$allocator@D@2@@std@@QAE@PBD@Z
  00dfa	3b f4		 cmp	 esi, esp
  00dfc	e8 00 00 00 00	 call	 __RTC_CheckEsp
  00e01	8b 55 c0	 mov	 edx, DWORD PTR $T193255[ebp]
  00e04	83 ca 01	 or	 edx, 1
  00e07	89 55 c0	 mov	 DWORD PTR $T193255[ebp], edx
  00e0a	c6 45 fc 00	 mov	 BYTE PTR __$EHRec$[ebp+8], 0
  00e0e	8b f4		 mov	 esi, esp
  00e10	8d 4d cc	 lea	 ecx, DWORD PTR _strUrl$[ebp]
  00e13	ff 15 00 00 00
	00		 call	 DWORD PTR __imp_??1?$basic_string@DU?$char_traits@D@std@@V?$allocator@D@2@@std@@QAE@XZ
  00e19	3b f4		 cmp	 esi, esp
  00e1b	e8 00 00 00 00	 call	 __RTC_CheckEsp
  00e20	8b 45 08	 mov	 eax, DWORD PTR ___$ReturnUdt$[ebp]
  00e23	eb 39		 jmp	 SHORT $L191661
$L191666:

; 117  : 	}	
; 118  : 	return "res=err\n\n";

  00e25	8b f4		 mov	 esi, esp
  00e27	68 00 00 00 00	 push	 OFFSET FLAT:$SG191668
  00e2c	8b 4d 08	 mov	 ecx, DWORD PTR ___$ReturnUdt$[ebp]
  00e2f	ff 15 00 00 00
	00		 call	 DWORD PTR __imp_??0?$basic_string@DU?$char_traits@D@std@@V?$allocator@D@2@@std@@QAE@PBD@Z
  00e35	3b f4		 cmp	 esi, esp
  00e37	e8 00 00 00 00	 call	 __RTC_CheckEsp
  00e3c	8b 45 c0	 mov	 eax, DWORD PTR $T193255[ebp]
  00e3f	83 c8 01	 or	 eax, 1
  00e42	89 45 c0	 mov	 DWORD PTR $T193255[ebp], eax
  00e45	c6 45 fc 00	 mov	 BYTE PTR __$EHRec$[ebp+8], 0
  00e49	8b f4		 mov	 esi, esp
  00e4b	8d 4d cc	 lea	 ecx, DWORD PTR _strUrl$[ebp]
  00e4e	ff 15 00 00 00
	00		 call	 DWORD PTR __imp_??1?$basic_string@DU?$char_traits@D@std@@V?$allocator@D@2@@std@@QAE@XZ
  00e54	3b f4		 cmp	 esi, esp
  00e56	e8 00 00 00 00	 call	 __RTC_CheckEsp
  00e5b	8b 45 08	 mov	 eax, DWORD PTR ___$ReturnUdt$[ebp]
$L191661:

; 119  : }

  00e5e	52		 push	 edx
  00e5f	8b cd		 mov	 ecx, ebp
  00e61	50		 push	 eax
  00e62	8d 15 00 00 00
	00		 lea	 edx, DWORD PTR $L193263
  00e68	e8 00 00 00 00	 call	 @_RTC_CheckStackVars@8
  00e6d	58		 pop	 eax
  00e6e	5a		 pop	 edx
  00e6f	8b 4d f4	 mov	 ecx, DWORD PTR __$EHRec$[ebp]
  00e72	64 89 0d 00 00
	00 00		 mov	 DWORD PTR fs:__except_list, ecx
  00e79	8b 4d f0	 mov	 ecx, DWORD PTR __$ArrayPad$[ebp]
  00e7c	e8 00 00 00 00	 call	 @__security_check_cookie@4
  00e81	5f		 pop	 edi
  00e82	5e		 pop	 esi
  00e83	83 c4 48	 add	 esp, 72			; 00000048H
  00e86	3b ec		 cmp	 ebp, esp
  00e88	e8 00 00 00 00	 call	 __RTC_CheckEsp
  00e8d	8b e5		 mov	 esp, ebp
  00e8f	5d		 pop	 ebp
  00e90	c2 08 00	 ret	 8
$L193263:
  00e93	01 00 00 00	 DD	 1
  00e97	00 00 00 00	 DD	 $L193262
$L193262:
  00e9b	cc ff ff ff	 DD	 -52			; ffffffccH
  00e9f	1c 00 00 00	 DD	 28			; 0000001cH
  00ea3	00 00 00 00	 DD	 $L193259
$L193259:
  00ea7	73		 DB	 115			; 00000073H
  00ea8	74		 DB	 116			; 00000074H
  00ea9	72		 DB	 114			; 00000072H
  00eaa	55		 DB	 85			; 00000055H
  00eab	72		 DB	 114			; 00000072H
  00eac	6c		 DB	 108			; 0000006cH
  00ead	00		 DB	 0
_TEXT	ENDS
text$x	SEGMENT
$L193253:
  0018a	8b f4		 mov	 esi, esp
  0018c	8d 4d cc	 lea	 ecx, DWORD PTR _strUrl$[ebp]
  0018f	ff 15 00 00 00
	00		 call	 DWORD PTR __imp_??1?$basic_string@DU?$char_traits@D@std@@V?$allocator@D@2@@std@@QAE@XZ
  00195	3b f4		 cmp	 esi, esp
  00197	e9 00 00 00 00	 jmp	 __RTC_CheckEsp
$L193254:
  0019c	8b 45 c0	 mov	 eax, DWORD PTR $T193255[ebp]
  0019f	83 e0 01	 and	 eax, 1
  001a2	0f 84 16 00 00
	00		 je	 $L193256
  001a8	83 65 c0 fe	 and	 DWORD PTR $T193255[ebp], -2 ; fffffffeH
  001ac	8b f4		 mov	 esi, esp
  001ae	8b 4d 08	 mov	 ecx, DWORD PTR ___$ReturnUdt$[ebp]
  001b1	ff 15 00 00 00
	00		 call	 DWORD PTR __imp_??1?$basic_string@DU?$char_traits@D@std@@V?$allocator@D@2@@std@@QAE@XZ
  001b7	3b f4		 cmp	 esi, esp
  001b9	e9 00 00 00 00	 jmp	 __RTC_CheckEsp
$L193256:
  001be	c3		 ret	 0
__ehhandler$?_command_refresh@CWebManager@@AAE?AV?$basic_string@DU?$char_traits@D@std@@V?$allocator@D@2@@std@@AAV23@@Z:
  001bf	b8 00 00 00 00	 mov	 eax, OFFSET FLAT:$T193258
  001c4	e9 00 00 00 00	 jmp	 ___CxxFrameHandler
text$x	ENDS
?_command_refresh@CWebManager@@AAE?AV?$basic_string@DU?$char_traits@D@std@@V?$allocator@D@2@@std@@AAV23@@Z ENDP ; CWebManager::_command_refresh
PUBLIC	??0TAB_ITEM@@QAE@XZ				; TAB_ITEM::TAB_ITEM
PUBLIC	??1TAB_ITEM@@QAE@XZ				; TAB_ITEM::~TAB_ITEM
PUBLIC	??$?HDU?$char_traits@D@std@@V?$allocator@D@1@@std@@YA?AV?$basic_string@DU?$char_traits@D@std@@V?$allocator@D@2@@0@PBDABV10@@Z ; std::operator+<char,std::char_traits<char>,std::allocator<char> >
EXTRN	__imp_?Right@?$CStringT@DV?$StrTraitMFC_DLL@DV?$ChTraitsCRT@D@ATL@@@@@ATL@@QBE?AV12@H@Z:NEAR
EXTRN	?AfxGetDataManager2@@YAPAVIDataManager@@XZ:NEAR	; AfxGetDataManager2
EXTRN	?IsNumber@@YA_NV?$basic_string@DU?$char_traits@D@std@@V?$allocator@D@2@@std@@@Z:NEAR ; IsNumber
EXTRN	__imp_??0?$basic_string@DU?$char_traits@D@std@@V?$allocator@D@2@@std@@QAE@ABV01@@Z:NEAR
EXTRN	__imp_?LogRealMsg@@YAXABV?$basic_string@DU?$char_traits@D@std@@V?$allocator@D@2@@std@@0_NPAPAEPAI@Z:NEAR
EXTRN	__imp_?MakeLower@?$CStringT@DV?$StrTraitMFC_DLL@DV?$ChTraitsCRT@D@ATL@@@@@ATL@@QAEAAV12@XZ:NEAR
xdata$x	SEGMENT
$T193303 DD	0ffffffffH
	DD	FLAT:$L193288
	DD	00H
	DD	FLAT:$L193276
	DD	01H
	DD	FLAT:$L193278
	DD	02H
	DD	FLAT:$L193280
	DD	03H
	DD	FLAT:$L193282
	DD	04H
	DD	FLAT:$L193283
	DD	04H
	DD	FLAT:$L193284
	DD	06H
	DD	FLAT:$L193285
	DD	07H
	DD	FLAT:$L193286
	DD	08H
	DD	FLAT:$L193287
$T193292 DD	019930520H
	DD	0aH
	DD	FLAT:$T193303
	DD	2 DUP(00H)
	DD	2 DUP(00H)
; Function compile flags: /Odt /RTCsu
xdata$x	ENDS
_TEXT	SEGMENT
tv216 = -380						; size = 4
tv210 = -376						; size = 4
tv265 = -372						; size = 4
tv324 = -368						; size = 4
tv262 = -361						; size = 1
tv261 = -360						; size = 4
tv258 = -356						; size = 4
tv257 = -352						; size = 4
tv254 = -348						; size = 4
tv253 = -344						; size = 4
tv250 = -340						; size = 4
tv249 = -336						; size = 4
$T193289 = -332						; size = 4
$T193274 = -328						; size = 28
$T193273 = -300						; size = 28
$T193272 = -272						; size = 4
$T193271 = -265						; size = 1
$T193270 = -264						; size = 4
$T193269 = -260						; size = 4
$T193268 = -256						; size = 4
$T193267 = -252						; size = 4
_s$191701 = -244					; size = 28
_tItem$191699 = -208					; size = 60
_cstrUrl$ = -140					; size = 4
_bUrlOK$ = -131						; size = 1
_bNameOK$ = -130					; size = 1
_bIDOK$ = -129						; size = 1
_strUrl$ = -124						; size = 28
_strName$ = -88						; size = 28
_strID$ = -52						; size = 28
_this$ = -20						; size = 4
__$ArrayPad$ = -16					; size = 4
__$EHRec$ = -12						; size = 12
__$ReturnAddr$ = 4					; size = 4
___$ReturnUdt$ = 8					; size = 4
_strContent$ = 12					; size = 4
?_command_playswfgame@CWebManager@@AAE?AV?$basic_string@DU?$char_traits@D@std@@V?$allocator@D@2@@std@@AAV23@@Z PROC NEAR ; CWebManager::_command_playswfgame
; _this$ = ecx

; 122  : {	

  00eb0	55		 push	 ebp
  00eb1	8b ec		 mov	 ebp, esp
  00eb3	6a ff		 push	 -1
  00eb5	68 00 00 00 00	 push	 __ehhandler$?_command_playswfgame@CWebManager@@AAE?AV?$basic_string@DU?$char_traits@D@std@@V?$allocator@D@2@@std@@AAV23@@Z
  00eba	64 a1 00 00 00
	00		 mov	 eax, DWORD PTR fs:__except_list
  00ec0	50		 push	 eax
  00ec1	64 89 25 00 00
	00 00		 mov	 DWORD PTR fs:__except_list, esp
  00ec8	81 ec 70 01 00
	00		 sub	 esp, 368		; 00000170H
  00ece	56		 push	 esi
  00ecf	57		 push	 edi
  00ed0	51		 push	 ecx
  00ed1	8d bd 84 fe ff
	ff		 lea	 edi, DWORD PTR [ebp-380]
  00ed7	b9 5c 00 00 00	 mov	 ecx, 92			; 0000005cH
  00edc	b8 cc cc cc cc	 mov	 eax, -858993460		; ccccccccH
  00ee1	f3 ab		 rep stosd
  00ee3	59		 pop	 ecx
  00ee4	a1 00 00 00 00	 mov	 eax, DWORD PTR ___security_cookie
  00ee9	89 45 f0	 mov	 DWORD PTR __$ArrayPad$[ebp], eax
  00eec	89 4d ec	 mov	 DWORD PTR _this$[ebp], ecx
  00eef	c7 85 b4 fe ff
	ff 00 00 00 00	 mov	 DWORD PTR $T193289[ebp], 0

; 123  : 	string strID   = GetValue( strContent, "id" );

  00ef9	83 ec 1c	 sub	 esp, 28			; 0000001cH
  00efc	8b cc		 mov	 ecx, esp
  00efe	89 a5 04 ff ff
	ff		 mov	 DWORD PTR $T193267[ebp], esp
  00f04	8b f4		 mov	 esi, esp
  00f06	68 00 00 00 00	 push	 OFFSET FLAT:$SG191677
  00f0b	ff 15 00 00 00
	00		 call	 DWORD PTR __imp_??0?$basic_string@DU?$char_traits@D@std@@V?$allocator@D@2@@std@@QAE@PBD@Z
  00f11	3b f4		 cmp	 esi, esp
  00f13	e8 00 00 00 00	 call	 __RTC_CheckEsp
  00f18	89 85 b0 fe ff
	ff		 mov	 DWORD PTR tv249[ebp], eax
  00f1e	8b 45 0c	 mov	 eax, DWORD PTR _strContent$[ebp]
  00f21	50		 push	 eax
  00f22	8d 4d cc	 lea	 ecx, DWORD PTR _strID$[ebp]
  00f25	51		 push	 ecx
  00f26	8b 4d ec	 mov	 ecx, DWORD PTR _this$[ebp]
  00f29	e8 00 00 00 00	 call	 ?GetValue@CWebManager@@QAE?AV?$basic_string@DU?$char_traits@D@std@@V?$allocator@D@2@@std@@AAV23@V23@@Z ; CWebManager::GetValue
  00f2e	89 85 ac fe ff
	ff		 mov	 DWORD PTR tv250[ebp], eax
  00f34	c7 45 fc 01 00
	00 00		 mov	 DWORD PTR __$EHRec$[ebp+8], 1

; 124  : 	string strName = GetValue( strContent, "name" );

  00f3b	83 ec 1c	 sub	 esp, 28			; 0000001cH
  00f3e	8b cc		 mov	 ecx, esp
  00f40	89 a5 00 ff ff
	ff		 mov	 DWORD PTR $T193268[ebp], esp
  00f46	8b f4		 mov	 esi, esp
  00f48	68 00 00 00 00	 push	 OFFSET FLAT:$SG191681
  00f4d	ff 15 00 00 00
	00		 call	 DWORD PTR __imp_??0?$basic_string@DU?$char_traits@D@std@@V?$allocator@D@2@@std@@QAE@PBD@Z
  00f53	3b f4		 cmp	 esi, esp
  00f55	e8 00 00 00 00	 call	 __RTC_CheckEsp
  00f5a	89 85 a8 fe ff
	ff		 mov	 DWORD PTR tv253[ebp], eax
  00f60	8b 55 0c	 mov	 edx, DWORD PTR _strContent$[ebp]
  00f63	52		 push	 edx
  00f64	8d 45 a8	 lea	 eax, DWORD PTR _strName$[ebp]
  00f67	50		 push	 eax
  00f68	8b 4d ec	 mov	 ecx, DWORD PTR _this$[ebp]
  00f6b	e8 00 00 00 00	 call	 ?GetValue@CWebManager@@QAE?AV?$basic_string@DU?$char_traits@D@std@@V?$allocator@D@2@@std@@AAV23@V23@@Z ; CWebManager::GetValue
  00f70	89 85 a4 fe ff
	ff		 mov	 DWORD PTR tv254[ebp], eax
  00f76	c6 45 fc 02	 mov	 BYTE PTR __$EHRec$[ebp+8], 2

; 125  : 	string strUrl  = GetValue( strContent, "swfurl" );

  00f7a	83 ec 1c	 sub	 esp, 28			; 0000001cH
  00f7d	8b cc		 mov	 ecx, esp
  00f7f	89 a5 fc fe ff
	ff		 mov	 DWORD PTR $T193269[ebp], esp
  00f85	8b f4		 mov	 esi, esp
  00f87	68 00 00 00 00	 push	 OFFSET FLAT:$SG191685
  00f8c	ff 15 00 00 00
	00		 call	 DWORD PTR __imp_??0?$basic_string@DU?$char_traits@D@std@@V?$allocator@D@2@@std@@QAE@PBD@Z
  00f92	3b f4		 cmp	 esi, esp
  00f94	e8 00 00 00 00	 call	 __RTC_CheckEsp
  00f99	89 85 a0 fe ff
	ff		 mov	 DWORD PTR tv257[ebp], eax
  00f9f	8b 4d 0c	 mov	 ecx, DWORD PTR _strContent$[ebp]
  00fa2	51		 push	 ecx
  00fa3	8d 55 84	 lea	 edx, DWORD PTR _strUrl$[ebp]
  00fa6	52		 push	 edx
  00fa7	8b 4d ec	 mov	 ecx, DWORD PTR _this$[ebp]
  00faa	e8 00 00 00 00	 call	 ?GetValue@CWebManager@@QAE?AV?$basic_string@DU?$char_traits@D@std@@V?$allocator@D@2@@std@@AAV23@V23@@Z ; CWebManager::GetValue
  00faf	89 85 9c fe ff
	ff		 mov	 DWORD PTR tv258[ebp], eax
  00fb5	c6 45 fc 03	 mov	 BYTE PTR __$EHRec$[ebp+8], 3

; 126  : 
; 127  : 	//idOK
; 128  : 	bool bIDOK = false;

  00fb9	c6 85 7f ff ff
	ff 00		 mov	 BYTE PTR _bIDOK$[ebp], 0

; 129  : 	if( strID.length() > 0 && IsNumber( strID ) ) //ID

  00fc0	8b f4		 mov	 esi, esp
  00fc2	8d 4d cc	 lea	 ecx, DWORD PTR _strID$[ebp]
  00fc5	ff 15 00 00 00
	00		 call	 DWORD PTR __imp_?length@?$basic_string@DU?$char_traits@D@std@@V?$allocator@D@2@@std@@QBEIXZ
  00fcb	3b f4		 cmp	 esi, esp
  00fcd	e8 00 00 00 00	 call	 __RTC_CheckEsp
  00fd2	85 c0		 test	 eax, eax
  00fd4	76 44		 jbe	 SHORT $L191688
  00fd6	83 ec 1c	 sub	 esp, 28			; 0000001cH
  00fd9	8b cc		 mov	 ecx, esp
  00fdb	89 a5 f8 fe ff
	ff		 mov	 DWORD PTR $T193270[ebp], esp
  00fe1	8b f4		 mov	 esi, esp
  00fe3	8d 45 cc	 lea	 eax, DWORD PTR _strID$[ebp]
  00fe6	50		 push	 eax
  00fe7	ff 15 00 00 00
	00		 call	 DWORD PTR __imp_??0?$basic_string@DU?$char_traits@D@std@@V?$allocator@D@2@@std@@QAE@ABV01@@Z
  00fed	3b f4		 cmp	 esi, esp
  00fef	e8 00 00 00 00	 call	 __RTC_CheckEsp
  00ff4	89 85 98 fe ff
	ff		 mov	 DWORD PTR tv261[ebp], eax
  00ffa	e8 00 00 00 00	 call	 ?IsNumber@@YA_NV?$basic_string@DU?$char_traits@D@std@@V?$allocator@D@2@@std@@@Z ; IsNumber
  00fff	83 c4 1c	 add	 esp, 28			; 0000001cH
  01002	88 85 97 fe ff
	ff		 mov	 BYTE PTR tv262[ebp], al
  01008	0f b6 8d 97 fe
	ff ff		 movzx	 ecx, BYTE PTR tv262[ebp]
  0100f	85 c9		 test	 ecx, ecx
  01011	74 07		 je	 SHORT $L191688

; 130  : 	{
; 131  : 		bIDOK = true;

  01013	c6 85 7f ff ff
	ff 01		 mov	 BYTE PTR _bIDOK$[ebp], 1
$L191688:

; 132  : 	}
; 133  : 	//nameOK
; 134  : 	bool bNameOK = false;

  0101a	c6 85 7e ff ff
	ff 00		 mov	 BYTE PTR _bNameOK$[ebp], 0

; 135  : 	if( strName.length() != 0 )

  01021	8b f4		 mov	 esi, esp
  01023	8d 4d a8	 lea	 ecx, DWORD PTR _strName$[ebp]
  01026	ff 15 00 00 00
	00		 call	 DWORD PTR __imp_?length@?$basic_string@DU?$char_traits@D@std@@V?$allocator@D@2@@std@@QBEIXZ
  0102c	3b f4		 cmp	 esi, esp
  0102e	e8 00 00 00 00	 call	 __RTC_CheckEsp
  01033	85 c0		 test	 eax, eax
  01035	74 07		 je	 SHORT $L191690

; 136  : 	{
; 137  : 		bNameOK = true;

  01037	c6 85 7e ff ff
	ff 01		 mov	 BYTE PTR _bNameOK$[ebp], 1
$L191690:

; 138  : 	}
; 139  : 	//urlOK
; 140  : 	bool bUrlOK = false;

  0103e	c6 85 7d ff ff
	ff 00		 mov	 BYTE PTR _bUrlOK$[ebp], 0

; 141  : 	CString cstrUrl = CString( strUrl.c_str() );

  01045	8b f4		 mov	 esi, esp
  01047	8d 4d 84	 lea	 ecx, DWORD PTR _strUrl$[ebp]
  0104a	ff 15 00 00 00
	00		 call	 DWORD PTR __imp_?c_str@?$basic_string@DU?$char_traits@D@std@@V?$allocator@D@2@@std@@QBEPBDXZ
  01050	3b f4		 cmp	 esi, esp
  01052	e8 00 00 00 00	 call	 __RTC_CheckEsp
  01057	8b f4		 mov	 esi, esp
  01059	50		 push	 eax
  0105a	8d 8d 74 ff ff
	ff		 lea	 ecx, DWORD PTR _cstrUrl$[ebp]
  01060	ff 15 00 00 00
	00		 call	 DWORD PTR __imp_??0?$CStringT@DV?$StrTraitMFC_DLL@DV?$ChTraitsCRT@D@ATL@@@@@ATL@@QAE@PBD@Z
  01066	3b f4		 cmp	 esi, esp
  01068	e8 00 00 00 00	 call	 __RTC_CheckEsp
  0106d	c6 45 fc 04	 mov	 BYTE PTR __$EHRec$[ebp+8], 4

; 142  : 	if( cstrUrl.Right(4).MakeLower() == ".swf" ) //url4.swf

  01071	8b f4		 mov	 esi, esp
  01073	6a 04		 push	 4
  01075	8d 95 f0 fe ff
	ff		 lea	 edx, DWORD PTR $T193272[ebp]
  0107b	52		 push	 edx
  0107c	8d 8d 74 ff ff
	ff		 lea	 ecx, DWORD PTR _cstrUrl$[ebp]
  01082	ff 15 00 00 00
	00		 call	 DWORD PTR __imp_?Right@?$CStringT@DV?$StrTraitMFC_DLL@DV?$ChTraitsCRT@D@ATL@@@@@ATL@@QBE?AV12@H@Z
  01088	3b f4		 cmp	 esi, esp
  0108a	e8 00 00 00 00	 call	 __RTC_CheckEsp
  0108f	89 85 90 fe ff
	ff		 mov	 DWORD PTR tv324[ebp], eax
  01095	8b 85 90 fe ff
	ff		 mov	 eax, DWORD PTR tv324[ebp]
  0109b	89 85 8c fe ff
	ff		 mov	 DWORD PTR tv265[ebp], eax
  010a1	c6 45 fc 05	 mov	 BYTE PTR __$EHRec$[ebp+8], 5
  010a5	68 00 00 00 00	 push	 OFFSET FLAT:$SG191697
  010aa	8b f4		 mov	 esi, esp
  010ac	8b 8d 8c fe ff
	ff		 mov	 ecx, DWORD PTR tv265[ebp]
  010b2	ff 15 00 00 00
	00		 call	 DWORD PTR __imp_?MakeLower@?$CStringT@DV?$StrTraitMFC_DLL@DV?$ChTraitsCRT@D@ATL@@@@@ATL@@QAEAAV12@XZ
  010b8	3b f4		 cmp	 esi, esp
  010ba	e8 00 00 00 00	 call	 __RTC_CheckEsp
  010bf	50		 push	 eax
  010c0	e8 00 00 00 00	 call	 ??8ATL@@YA_NABV?$CStringT@DV?$StrTraitMFC_DLL@DV?$ChTraitsCRT@D@ATL@@@@@0@PBD@Z ; ATL::operator==
  010c5	83 c4 08	 add	 esp, 8
  010c8	88 85 f7 fe ff
	ff		 mov	 BYTE PTR $T193271[ebp], al
  010ce	c6 45 fc 04	 mov	 BYTE PTR __$EHRec$[ebp+8], 4
  010d2	8b f4		 mov	 esi, esp
  010d4	8d 8d f0 fe ff
	ff		 lea	 ecx, DWORD PTR $T193272[ebp]
  010da	ff 15 00 00 00
	00		 call	 DWORD PTR __imp_??1?$CStringT@DV?$StrTraitMFC_DLL@DV?$ChTraitsCRT@D@ATL@@@@@ATL@@QAE@XZ
  010e0	3b f4		 cmp	 esi, esp
  010e2	e8 00 00 00 00	 call	 __RTC_CheckEsp
  010e7	0f b6 8d f7 fe
	ff ff		 movzx	 ecx, BYTE PTR $T193271[ebp]
  010ee	85 c9		 test	 ecx, ecx
  010f0	74 07		 je	 SHORT $L191695

; 143  : 	{
; 144  : 		bUrlOK = true;

  010f2	c6 85 7d ff ff
	ff 01		 mov	 BYTE PTR _bUrlOK$[ebp], 1
$L191695:

; 145  : 	}	
; 146  : 	
; 147  : 	if( bIDOK && bNameOK && bUrlOK )

  010f9	0f b6 95 7f ff
	ff ff		 movzx	 edx, BYTE PTR _bIDOK$[ebp]
  01100	85 d2		 test	 edx, edx
  01102	0f 84 2c 02 00
	00		 je	 $L191698
  01108	0f b6 85 7e ff
	ff ff		 movzx	 eax, BYTE PTR _bNameOK$[ebp]
  0110f	85 c0		 test	 eax, eax
  01111	0f 84 1d 02 00
	00		 je	 $L191698
  01117	0f b6 8d 7d ff
	ff ff		 movzx	 ecx, BYTE PTR _bUrlOK$[ebp]
  0111e	85 c9		 test	 ecx, ecx
  01120	0f 84 0e 02 00
	00		 je	 $L191698

; 148  : 	{
; 149  : 		TAB_ITEM tItem;

  01126	8d 8d 30 ff ff
	ff		 lea	 ecx, DWORD PTR _tItem$191699[ebp]
  0112c	e8 00 00 00 00	 call	 ??0TAB_ITEM@@QAE@XZ
  01131	c6 45 fc 06	 mov	 BYTE PTR __$EHRec$[ebp+8], 6

; 150  : 		tItem.eumType = TAB_GAME;

  01135	c7 85 4c ff ff
	ff 03 00 00 00	 mov	 DWORD PTR _tItem$191699[ebp+28], 3

; 151  : 		tItem.strName = strName;

  0113f	8b f4		 mov	 esi, esp
  01141	8d 55 a8	 lea	 edx, DWORD PTR _strName$[ebp]
  01144	52		 push	 edx
  01145	8d 8d 30 ff ff
	ff		 lea	 ecx, DWORD PTR _tItem$191699[ebp]
  0114b	ff 15 00 00 00
	00		 call	 DWORD PTR __imp_??4?$basic_string@DU?$char_traits@D@std@@V?$allocator@D@2@@std@@QAEAAV01@ABV01@@Z
  01151	3b f4		 cmp	 esi, esp
  01153	e8 00 00 00 00	 call	 __RTC_CheckEsp

; 152  : 		tItem.strParam = strContent;

  01158	8b f4		 mov	 esi, esp
  0115a	8b 45 0c	 mov	 eax, DWORD PTR _strContent$[ebp]
  0115d	50		 push	 eax
  0115e	8d 8d 50 ff ff
	ff		 lea	 ecx, DWORD PTR _tItem$191699[ebp+32]
  01164	ff 15 00 00 00
	00		 call	 DWORD PTR __imp_??4?$basic_string@DU?$char_traits@D@std@@V?$allocator@D@2@@std@@QAEAAV01@ABV01@@Z
  0116a	3b f4		 cmp	 esi, esp
  0116c	e8 00 00 00 00	 call	 __RTC_CheckEsp

; 153  : 		GLOBAL_TABBARDATA->ITabBar_ChangeTab(tItem);

  01171	e8 00 00 00 00	 call	 ?AfxGetDataManager2@@YAPAVIDataManager@@XZ ; AfxGetDataManager2
  01176	89 85 88 fe ff
	ff		 mov	 DWORD PTR tv210[ebp], eax
  0117c	8b f4		 mov	 esi, esp
  0117e	68 00 00 00 00	 push	 OFFSET FLAT:_ID_DATA_TABBAR
  01183	8b 8d 88 fe ff
	ff		 mov	 ecx, DWORD PTR tv210[ebp]
  01189	8b 11		 mov	 edx, DWORD PTR [ecx]
  0118b	8b 8d 88 fe ff
	ff		 mov	 ecx, DWORD PTR tv210[ebp]
  01191	ff 52 0c	 call	 DWORD PTR [edx+12]
  01194	3b f4		 cmp	 esi, esp
  01196	e8 00 00 00 00	 call	 __RTC_CheckEsp
  0119b	89 85 84 fe ff
	ff		 mov	 DWORD PTR tv216[ebp], eax
  011a1	8b f4		 mov	 esi, esp
  011a3	8d 85 30 ff ff
	ff		 lea	 eax, DWORD PTR _tItem$191699[ebp]
  011a9	50		 push	 eax
  011aa	8b 8d 84 fe ff
	ff		 mov	 ecx, DWORD PTR tv216[ebp]
  011b0	8b 11		 mov	 edx, DWORD PTR [ecx]
  011b2	8b 8d 84 fe ff
	ff		 mov	 ecx, DWORD PTR tv216[ebp]
  011b8	ff 52 0c	 call	 DWORD PTR [edx+12]
  011bb	3b f4		 cmp	 esi, esp
  011bd	e8 00 00 00 00	 call	 __RTC_CheckEsp

; 154  : 
; 155  : 		string s = "PlaySwfGame:" + strID;

  011c2	8d 45 cc	 lea	 eax, DWORD PTR _strID$[ebp]
  011c5	50		 push	 eax
  011c6	68 00 00 00 00	 push	 OFFSET FLAT:$SG191703
  011cb	8d 8d 0c ff ff
	ff		 lea	 ecx, DWORD PTR _s$191701[ebp]
  011d1	51		 push	 ecx
  011d2	e8 00 00 00 00	 call	 ??$?HDU?$char_traits@D@std@@V?$allocator@D@1@@std@@YA?AV?$basic_string@DU?$char_traits@D@std@@V?$allocator@D@2@@0@PBDABV10@@Z ; std::operator+<char,std::char_traits<char>,std::allocator<char> >
  011d7	83 c4 0c	 add	 esp, 12			; 0000000cH
  011da	c6 45 fc 07	 mov	 BYTE PTR __$EHRec$[ebp+8], 7

; 156  : 		LogRealMsg("PLAYGAME",s.c_str());

  011de	8b f4		 mov	 esi, esp
  011e0	8d 8d 0c ff ff
	ff		 lea	 ecx, DWORD PTR _s$191701[ebp]
  011e6	ff 15 00 00 00
	00		 call	 DWORD PTR __imp_?c_str@?$basic_string@DU?$char_traits@D@std@@V?$allocator@D@2@@std@@QBEPBDXZ
  011ec	3b f4		 cmp	 esi, esp
  011ee	e8 00 00 00 00	 call	 __RTC_CheckEsp
  011f3	8b f4		 mov	 esi, esp
  011f5	50		 push	 eax
  011f6	8d 8d d4 fe ff
	ff		 lea	 ecx, DWORD PTR $T193273[ebp]
  011fc	ff 15 00 00 00
	00		 call	 DWORD PTR __imp_??0?$basic_string@DU?$char_traits@D@std@@V?$allocator@D@2@@std@@QAE@PBD@Z
  01202	3b f4		 cmp	 esi, esp
  01204	e8 00 00 00 00	 call	 __RTC_CheckEsp
  01209	c6 45 fc 08	 mov	 BYTE PTR __$EHRec$[ebp+8], 8
  0120d	8b f4		 mov	 esi, esp
  0120f	68 00 00 00 00	 push	 OFFSET FLAT:$SG191706
  01214	8d 8d b8 fe ff
	ff		 lea	 ecx, DWORD PTR $T193274[ebp]
  0121a	ff 15 00 00 00
	00		 call	 DWORD PTR __imp_??0?$basic_string@DU?$char_traits@D@std@@V?$allocator@D@2@@std@@QAE@PBD@Z
  01220	3b f4		 cmp	 esi, esp
  01222	e8 00 00 00 00	 call	 __RTC_CheckEsp
  01227	c6 45 fc 09	 mov	 BYTE PTR __$EHRec$[ebp+8], 9
  0122b	8b f4		 mov	 esi, esp
  0122d	6a 00		 push	 0
  0122f	6a 00		 push	 0
  01231	6a 00		 push	 0
  01233	8d 95 d4 fe ff
	ff		 lea	 edx, DWORD PTR $T193273[ebp]
  01239	52		 push	 edx
  0123a	8d 85 b8 fe ff
	ff		 lea	 eax, DWORD PTR $T193274[ebp]
  01240	50		 push	 eax
  01241	ff 15 00 00 00
	00		 call	 DWORD PTR __imp_?LogRealMsg@@YAXABV?$basic_string@DU?$char_traits@D@std@@V?$allocator@D@2@@std@@0_NPAPAEPAI@Z
  01247	83 c4 14	 add	 esp, 20			; 00000014H
  0124a	3b f4		 cmp	 esi, esp
  0124c	e8 00 00 00 00	 call	 __RTC_CheckEsp
  01251	c6 45 fc 08	 mov	 BYTE PTR __$EHRec$[ebp+8], 8
  01255	8b f4		 mov	 esi, esp
  01257	8d 8d b8 fe ff
	ff		 lea	 ecx, DWORD PTR $T193274[ebp]
  0125d	ff 15 00 00 00
	00		 call	 DWORD PTR __imp_??1?$basic_string@DU?$char_traits@D@std@@V?$allocator@D@2@@std@@QAE@XZ
  01263	3b f4		 cmp	 esi, esp
  01265	e8 00 00 00 00	 call	 __RTC_CheckEsp
  0126a	c6 45 fc 07	 mov	 BYTE PTR __$EHRec$[ebp+8], 7
  0126e	8b f4		 mov	 esi, esp
  01270	8d 8d d4 fe ff
	ff		 lea	 ecx, DWORD PTR $T193273[ebp]
  01276	ff 15 00 00 00
	00		 call	 DWORD PTR __imp_??1?$basic_string@DU?$char_traits@D@std@@V?$allocator@D@2@@std@@QAE@XZ
  0127c	3b f4		 cmp	 esi, esp
  0127e	e8 00 00 00 00	 call	 __RTC_CheckEsp

; 157  : 		return "res=ok\n\n";

  01283	8b f4		 mov	 esi, esp
  01285	68 00 00 00 00	 push	 OFFSET FLAT:$SG191707
  0128a	8b 4d 08	 mov	 ecx, DWORD PTR ___$ReturnUdt$[ebp]
  0128d	ff 15 00 00 00
	00		 call	 DWORD PTR __imp_??0?$basic_string@DU?$char_traits@D@std@@V?$allocator@D@2@@std@@QAE@PBD@Z
  01293	3b f4		 cmp	 esi, esp
  01295	e8 00 00 00 00	 call	 __RTC_CheckEsp
  0129a	8b 8d b4 fe ff
	ff		 mov	 ecx, DWORD PTR $T193289[ebp]
  012a0	83 c9 01	 or	 ecx, 1
  012a3	89 8d b4 fe ff
	ff		 mov	 DWORD PTR $T193289[ebp], ecx
  012a9	c6 45 fc 06	 mov	 BYTE PTR __$EHRec$[ebp+8], 6
  012ad	8b f4		 mov	 esi, esp
  012af	8d 8d 0c ff ff
	ff		 lea	 ecx, DWORD PTR _s$191701[ebp]
  012b5	ff 15 00 00 00
	00		 call	 DWORD PTR __imp_??1?$basic_string@DU?$char_traits@D@std@@V?$allocator@D@2@@std@@QAE@XZ
  012bb	3b f4		 cmp	 esi, esp
  012bd	e8 00 00 00 00	 call	 __RTC_CheckEsp
  012c2	c6 45 fc 04	 mov	 BYTE PTR __$EHRec$[ebp+8], 4
  012c6	8d 8d 30 ff ff
	ff		 lea	 ecx, DWORD PTR _tItem$191699[ebp]
  012cc	e8 00 00 00 00	 call	 ??1TAB_ITEM@@QAE@XZ
  012d1	c6 45 fc 03	 mov	 BYTE PTR __$EHRec$[ebp+8], 3
  012d5	8b f4		 mov	 esi, esp
  012d7	8d 8d 74 ff ff
	ff		 lea	 ecx, DWORD PTR _cstrUrl$[ebp]
  012dd	ff 15 00 00 00
	00		 call	 DWORD PTR __imp_??1?$CStringT@DV?$StrTraitMFC_DLL@DV?$ChTraitsCRT@D@ATL@@@@@ATL@@QAE@XZ
  012e3	3b f4		 cmp	 esi, esp
  012e5	e8 00 00 00 00	 call	 __RTC_CheckEsp
  012ea	c6 45 fc 02	 mov	 BYTE PTR __$EHRec$[ebp+8], 2
  012ee	8b f4		 mov	 esi, esp
  012f0	8d 4d 84	 lea	 ecx, DWORD PTR _strUrl$[ebp]
  012f3	ff 15 00 00 00
	00		 call	 DWORD PTR __imp_??1?$basic_string@DU?$char_traits@D@std@@V?$allocator@D@2@@std@@QAE@XZ
  012f9	3b f4		 cmp	 esi, esp
  012fb	e8 00 00 00 00	 call	 __RTC_CheckEsp
  01300	c6 45 fc 01	 mov	 BYTE PTR __$EHRec$[ebp+8], 1
  01304	8b f4		 mov	 esi, esp
  01306	8d 4d a8	 lea	 ecx, DWORD PTR _strName$[ebp]
  01309	ff 15 00 00 00
	00		 call	 DWORD PTR __imp_??1?$basic_string@DU?$char_traits@D@std@@V?$allocator@D@2@@std@@QAE@XZ
  0130f	3b f4		 cmp	 esi, esp
  01311	e8 00 00 00 00	 call	 __RTC_CheckEsp
  01316	c6 45 fc 00	 mov	 BYTE PTR __$EHRec$[ebp+8], 0
  0131a	8b f4		 mov	 esi, esp
  0131c	8d 4d cc	 lea	 ecx, DWORD PTR _strID$[ebp]
  0131f	ff 15 00 00 00
	00		 call	 DWORD PTR __imp_??1?$basic_string@DU?$char_traits@D@std@@V?$allocator@D@2@@std@@QAE@XZ
  01325	3b f4		 cmp	 esi, esp
  01327	e8 00 00 00 00	 call	 __RTC_CheckEsp
  0132c	8b 45 08	 mov	 eax, DWORD PTR ___$ReturnUdt$[ebp]
  0132f	e9 84 00 00 00	 jmp	 $L191673
$L191698:

; 158  : 	}else
; 159  : 	{
; 160  : 		return "res=err\n\n";

  01334	8b f4		 mov	 esi, esp
  01336	68 00 00 00 00	 push	 OFFSET FLAT:$SG191709
  0133b	8b 4d 08	 mov	 ecx, DWORD PTR ___$ReturnUdt$[ebp]
  0133e	ff 15 00 00 00
	00		 call	 DWORD PTR __imp_??0?$basic_string@DU?$char_traits@D@std@@V?$allocator@D@2@@std@@QAE@PBD@Z
  01344	3b f4		 cmp	 esi, esp
  01346	e8 00 00 00 00	 call	 __RTC_CheckEsp
  0134b	8b 95 b4 fe ff
	ff		 mov	 edx, DWORD PTR $T193289[ebp]
  01351	83 ca 01	 or	 edx, 1
  01354	89 95 b4 fe ff
	ff		 mov	 DWORD PTR $T193289[ebp], edx
  0135a	c6 45 fc 03	 mov	 BYTE PTR __$EHRec$[ebp+8], 3
  0135e	8b f4		 mov	 esi, esp
  01360	8d 8d 74 ff ff
	ff		 lea	 ecx, DWORD PTR _cstrUrl$[ebp]
  01366	ff 15 00 00 00
	00		 call	 DWORD PTR __imp_??1?$CStringT@DV?$StrTraitMFC_DLL@DV?$ChTraitsCRT@D@ATL@@@@@ATL@@QAE@XZ
  0136c	3b f4		 cmp	 esi, esp
  0136e	e8 00 00 00 00	 call	 __RTC_CheckEsp
  01373	c6 45 fc 02	 mov	 BYTE PTR __$EHRec$[ebp+8], 2
  01377	8b f4		 mov	 esi, esp
  01379	8d 4d 84	 lea	 ecx, DWORD PTR _strUrl$[ebp]
  0137c	ff 15 00 00 00
	00		 call	 DWORD PTR __imp_??1?$basic_string@DU?$char_traits@D@std@@V?$allocator@D@2@@std@@QAE@XZ
  01382	3b f4		 cmp	 esi, esp
  01384	e8 00 00 00 00	 call	 __RTC_CheckEsp
  01389	c6 45 fc 01	 mov	 BYTE PTR __$EHRec$[ebp+8], 1
  0138d	8b f4		 mov	 esi, esp
  0138f	8d 4d a8	 lea	 ecx, DWORD PTR _strName$[ebp]
  01392	ff 15 00 00 00
	00		 call	 DWORD PTR __imp_??1?$basic_string@DU?$char_traits@D@std@@V?$allocator@D@2@@std@@QAE@XZ
  01398	3b f4		 cmp	 esi, esp
  0139a	e8 00 00 00 00	 call	 __RTC_CheckEsp
  0139f	c6 45 fc 00	 mov	 BYTE PTR __$EHRec$[ebp+8], 0
  013a3	8b f4		 mov	 esi, esp
  013a5	8d 4d cc	 lea	 ecx, DWORD PTR _strID$[ebp]
  013a8	ff 15 00 00 00
	00		 call	 DWORD PTR __imp_??1?$basic_string@DU?$char_traits@D@std@@V?$allocator@D@2@@std@@QAE@XZ
  013ae	3b f4		 cmp	 esi, esp
  013b0	e8 00 00 00 00	 call	 __RTC_CheckEsp
  013b5	8b 45 08	 mov	 eax, DWORD PTR ___$ReturnUdt$[ebp]
$L191673:

; 161  : 	}	
; 162  : }

  013b8	52		 push	 edx
  013b9	8b cd		 mov	 ecx, ebp
  013bb	50		 push	 eax
  013bc	8d 15 00 00 00
	00		 lea	 edx, DWORD PTR $L193302
  013c2	e8 00 00 00 00	 call	 @_RTC_CheckStackVars@8
  013c7	58		 pop	 eax
  013c8	5a		 pop	 edx
  013c9	8b 4d f4	 mov	 ecx, DWORD PTR __$EHRec$[ebp]
  013cc	64 89 0d 00 00
	00 00		 mov	 DWORD PTR fs:__except_list, ecx
  013d3	8b 4d f0	 mov	 ecx, DWORD PTR __$ArrayPad$[ebp]
  013d6	e8 00 00 00 00	 call	 @__security_check_cookie@4
  013db	5f		 pop	 edi
  013dc	5e		 pop	 esi
  013dd	81 c4 7c 01 00
	00		 add	 esp, 380		; 0000017cH
  013e3	3b ec		 cmp	 ebp, esp
  013e5	e8 00 00 00 00	 call	 __RTC_CheckEsp
  013ea	8b e5		 mov	 esp, ebp
  013ec	5d		 pop	 ebp
  013ed	c2 08 00	 ret	 8
$L193302:
  013f0	06 00 00 00	 DD	 6
  013f4	00 00 00 00	 DD	 $L193301
$L193301:
  013f8	cc ff ff ff	 DD	 -52			; ffffffccH
  013fc	1c 00 00 00	 DD	 28			; 0000001cH
  01400	00 00 00 00	 DD	 $L193293
  01404	a8 ff ff ff	 DD	 -88			; ffffffa8H
  01408	1c 00 00 00	 DD	 28			; 0000001cH
  0140c	00 00 00 00	 DD	 $L193294
  01410	84 ff ff ff	 DD	 -124			; ffffff84H
  01414	1c 00 00 00	 DD	 28			; 0000001cH
  01418	00 00 00 00	 DD	 $L193295
  0141c	74 ff ff ff	 DD	 -140			; ffffff74H
  01420	04 00 00 00	 DD	 4
  01424	00 00 00 00	 DD	 $L193296
  01428	30 ff ff ff	 DD	 -208			; ffffff30H
  0142c	3c 00 00 00	 DD	 60			; 0000003cH
  01430	00 00 00 00	 DD	 $L193297
  01434	0c ff ff ff	 DD	 -244			; ffffff0cH
  01438	1c 00 00 00	 DD	 28			; 0000001cH
  0143c	00 00 00 00	 DD	 $L193298
$L193298:
  01440	73		 DB	 115			; 00000073H
  01441	00		 DB	 0
$L193297:
  01442	74		 DB	 116			; 00000074H
  01443	49		 DB	 73			; 00000049H
  01444	74		 DB	 116			; 00000074H
  01445	65		 DB	 101			; 00000065H
  01446	6d		 DB	 109			; 0000006dH
  01447	00		 DB	 0
$L193296:
  01448	63		 DB	 99			; 00000063H
  01449	73		 DB	 115			; 00000073H
  0144a	74		 DB	 116			; 00000074H
  0144b	72		 DB	 114			; 00000072H
  0144c	55		 DB	 85			; 00000055H
  0144d	72		 DB	 114			; 00000072H
  0144e	6c		 DB	 108			; 0000006cH
  0144f	00		 DB	 0
$L193295:
  01450	73		 DB	 115			; 00000073H
  01451	74		 DB	 116			; 00000074H
  01452	72		 DB	 114			; 00000072H
  01453	55		 DB	 85			; 00000055H
  01454	72		 DB	 114			; 00000072H
  01455	6c		 DB	 108			; 0000006cH
  01456	00		 DB	 0
$L193294:
  01457	73		 DB	 115			; 00000073H
  01458	74		 DB	 116			; 00000074H
  01459	72		 DB	 114			; 00000072H
  0145a	4e		 DB	 78			; 0000004eH
  0145b	61		 DB	 97			; 00000061H
  0145c	6d		 DB	 109			; 0000006dH
  0145d	65		 DB	 101			; 00000065H
  0145e	00		 DB	 0
$L193293:
  0145f	73		 DB	 115			; 00000073H
  01460	74		 DB	 116			; 00000074H
  01461	72		 DB	 114			; 00000072H
  01462	49		 DB	 73			; 00000049H
  01463	44		 DB	 68			; 00000044H
  01464	00		 DB	 0
_TEXT	ENDS
text$x	SEGMENT
$L193276:
  001c9	8b f4		 mov	 esi, esp
  001cb	8d 4d cc	 lea	 ecx, DWORD PTR _strID$[ebp]
  001ce	ff 15 00 00 00
	00		 call	 DWORD PTR __imp_??1?$basic_string@DU?$char_traits@D@std@@V?$allocator@D@2@@std@@QAE@XZ
  001d4	3b f4		 cmp	 esi, esp
  001d6	e9 00 00 00 00	 jmp	 __RTC_CheckEsp
$L193278:
  001db	8b f4		 mov	 esi, esp
  001dd	8d 4d a8	 lea	 ecx, DWORD PTR _strName$[ebp]
  001e0	ff 15 00 00 00
	00		 call	 DWORD PTR __imp_??1?$basic_string@DU?$char_traits@D@std@@V?$allocator@D@2@@std@@QAE@XZ
  001e6	3b f4		 cmp	 esi, esp
  001e8	e9 00 00 00 00	 jmp	 __RTC_CheckEsp
$L193280:
  001ed	8b f4		 mov	 esi, esp
  001ef	8d 4d 84	 lea	 ecx, DWORD PTR _strUrl$[ebp]
  001f2	ff 15 00 00 00
	00		 call	 DWORD PTR __imp_??1?$basic_string@DU?$char_traits@D@std@@V?$allocator@D@2@@std@@QAE@XZ
  001f8	3b f4		 cmp	 esi, esp
  001fa	e9 00 00 00 00	 jmp	 __RTC_CheckEsp
$L193282:
  001ff	8b f4		 mov	 esi, esp
  00201	8d 8d 74 ff ff
	ff		 lea	 ecx, DWORD PTR _cstrUrl$[ebp]
  00207	ff 15 00 00 00
	00		 call	 DWORD PTR __imp_??1?$CStringT@DV?$StrTraitMFC_DLL@DV?$ChTraitsCRT@D@ATL@@@@@ATL@@QAE@XZ
  0020d	3b f4		 cmp	 esi, esp
  0020f	e9 00 00 00 00	 jmp	 __RTC_CheckEsp
$L193283:
  00214	8b f4		 mov	 esi, esp
  00216	8d 8d f0 fe ff
	ff		 lea	 ecx, DWORD PTR $T193272[ebp]
  0021c	ff 15 00 00 00
	00		 call	 DWORD PTR __imp_??1?$CStringT@DV?$StrTraitMFC_DLL@DV?$ChTraitsCRT@D@ATL@@@@@ATL@@QAE@XZ
  00222	3b f4		 cmp	 esi, esp
  00224	e9 00 00 00 00	 jmp	 __RTC_CheckEsp
$L193284:
  00229	8d 8d 30 ff ff
	ff		 lea	 ecx, DWORD PTR _tItem$191699[ebp]
  0022f	e9 00 00 00 00	 jmp	 ??1TAB_ITEM@@QAE@XZ
$L193285:
  00234	8b f4		 mov	 esi, esp
  00236	8d 8d 0c ff ff
	ff		 lea	 ecx, DWORD PTR _s$191701[ebp]
  0023c	ff 15 00 00 00
	00		 call	 DWORD PTR __imp_??1?$basic_string@DU?$char_traits@D@std@@V?$allocator@D@2@@std@@QAE@XZ
  00242	3b f4		 cmp	 esi, esp
  00244	e9 00 00 00 00	 jmp	 __RTC_CheckEsp
$L193286:
  00249	8b f4		 mov	 esi, esp
  0024b	8d 8d d4 fe ff
	ff		 lea	 ecx, DWORD PTR $T193273[ebp]
  00251	ff 15 00 00 00
	00		 call	 DWORD PTR __imp_??1?$basic_string@DU?$char_traits@D@std@@V?$allocator@D@2@@std@@QAE@XZ
  00257	3b f4		 cmp	 esi, esp
  00259	e9 00 00 00 00	 jmp	 __RTC_CheckEsp
$L193287:
  0025e	8b f4		 mov	 esi, esp
  00260	8d 8d b8 fe ff
	ff		 lea	 ecx, DWORD PTR $T193274[ebp]
  00266	ff 15 00 00 00
	00		 call	 DWORD PTR __imp_??1?$basic_string@DU?$char_traits@D@std@@V?$allocator@D@2@@std@@QAE@XZ
  0026c	3b f4		 cmp	 esi, esp
  0026e	e9 00 00 00 00	 jmp	 __RTC_CheckEsp
$L193288:
  00273	8b 85 b4 fe ff
	ff		 mov	 eax, DWORD PTR $T193289[ebp]
  00279	83 e0 01	 and	 eax, 1
  0027c	0f 84 19 00 00
	00		 je	 $L193290
  00282	83 a5 b4 fe ff
	ff fe		 and	 DWORD PTR $T193289[ebp], -2 ; fffffffeH
  00289	8b f4		 mov	 esi, esp
  0028b	8b 4d 08	 mov	 ecx, DWORD PTR ___$ReturnUdt$[ebp]
  0028e	ff 15 00 00 00
	00		 call	 DWORD PTR __imp_??1?$basic_string@DU?$char_traits@D@std@@V?$allocator@D@2@@std@@QAE@XZ
  00294	3b f4		 cmp	 esi, esp
  00296	e9 00 00 00 00	 jmp	 __RTC_CheckEsp
$L193290:
  0029b	c3		 ret	 0
__ehhandler$?_command_playswfgame@CWebManager@@AAE?AV?$basic_string@DU?$char_traits@D@std@@V?$allocator@D@2@@std@@AAV23@@Z:
  0029c	b8 00 00 00 00	 mov	 eax, OFFSET FLAT:$T193292
  002a1	e9 00 00 00 00	 jmp	 ___CxxFrameHandler
text$x	ENDS
?_command_playswfgame@CWebManager@@AAE?AV?$basic_string@DU?$char_traits@D@std@@V?$allocator@D@2@@std@@AAV23@@Z ENDP ; CWebManager::_command_playswfgame
;	COMDAT xdata$x
xdata$x	SEGMENT
$T193310 DD	0ffffffffH
	DD	FLAT:$L193305
$T193308 DD	019930520H
	DD	01H
	DD	FLAT:$T193310
	DD	2 DUP(00H)
	DD	2 DUP(00H)
; Function compile flags: /Odt /RTCsu
xdata$x	ENDS
;	COMDAT ??0TAB_ITEM@@QAE@XZ
_TEXT	SEGMENT
_this$ = -16						; size = 4
__$EHRec$ = -12						; size = 12
??0TAB_ITEM@@QAE@XZ PROC NEAR				; TAB_ITEM::TAB_ITEM, COMDAT
; _this$ = ecx
  00000	55		 push	 ebp
  00001	8b ec		 mov	 ebp, esp
  00003	6a ff		 push	 -1
  00005	68 00 00 00 00	 push	 __ehhandler$??0TAB_ITEM@@QAE@XZ
  0000a	64 a1 00 00 00
	00		 mov	 eax, DWORD PTR fs:__except_list
  00010	50		 push	 eax
  00011	64 89 25 00 00
	00 00		 mov	 DWORD PTR fs:__except_list, esp
  00018	51		 push	 ecx
  00019	56		 push	 esi
  0001a	c7 45 f0 cc cc
	cc cc		 mov	 DWORD PTR [ebp-16], -858993460 ; ccccccccH
  00021	89 4d f0	 mov	 DWORD PTR _this$[ebp], ecx
  00024	8b f4		 mov	 esi, esp
  00026	8b 4d f0	 mov	 ecx, DWORD PTR _this$[ebp]
  00029	ff 15 00 00 00
	00		 call	 DWORD PTR __imp_??0?$basic_string@DU?$char_traits@D@std@@V?$allocator@D@2@@std@@QAE@XZ
  0002f	3b f4		 cmp	 esi, esp
  00031	e8 00 00 00 00	 call	 __RTC_CheckEsp
  00036	c7 45 fc 00 00
	00 00		 mov	 DWORD PTR __$EHRec$[ebp+8], 0
  0003d	8b 4d f0	 mov	 ecx, DWORD PTR _this$[ebp]
  00040	83 c1 20	 add	 ecx, 32			; 00000020H
  00043	8b f4		 mov	 esi, esp
  00045	ff 15 00 00 00
	00		 call	 DWORD PTR __imp_??0?$basic_string@DU?$char_traits@D@std@@V?$allocator@D@2@@std@@QAE@XZ
  0004b	3b f4		 cmp	 esi, esp
  0004d	e8 00 00 00 00	 call	 __RTC_CheckEsp
  00052	c7 45 fc ff ff
	ff ff		 mov	 DWORD PTR __$EHRec$[ebp+8], -1
  00059	8b 45 f0	 mov	 eax, DWORD PTR _this$[ebp]
  0005c	8b 4d f4	 mov	 ecx, DWORD PTR __$EHRec$[ebp]
  0005f	64 89 0d 00 00
	00 00		 mov	 DWORD PTR fs:__except_list, ecx
  00066	5e		 pop	 esi
  00067	83 c4 10	 add	 esp, 16			; 00000010H
  0006a	3b ec		 cmp	 ebp, esp
  0006c	e8 00 00 00 00	 call	 __RTC_CheckEsp
  00071	8b e5		 mov	 esp, ebp
  00073	5d		 pop	 ebp
  00074	c3		 ret	 0
_TEXT	ENDS
;	COMDAT text$x
text$x	SEGMENT
$L193305:
  00000	8b f4		 mov	 esi, esp
  00002	8b 4d f0	 mov	 ecx, DWORD PTR _this$[ebp]
  00005	ff 15 00 00 00
	00		 call	 DWORD PTR __imp_??1?$basic_string@DU?$char_traits@D@std@@V?$allocator@D@2@@std@@QAE@XZ
  0000b	3b f4		 cmp	 esi, esp
  0000d	e9 00 00 00 00	 jmp	 __RTC_CheckEsp
__ehhandler$??0TAB_ITEM@@QAE@XZ:
  00012	b8 00 00 00 00	 mov	 eax, OFFSET FLAT:$T193308
  00017	e9 00 00 00 00	 jmp	 ___CxxFrameHandler
text$x	ENDS
??0TAB_ITEM@@QAE@XZ ENDP				; TAB_ITEM::TAB_ITEM
;	COMDAT xdata$x
xdata$x	SEGMENT
$T193319 DD	0ffffffffH
	DD	FLAT:$L193314
$T193317 DD	019930520H
	DD	01H
	DD	FLAT:$T193319
	DD	2 DUP(00H)
	DD	2 DUP(00H)
; Function compile flags: /Odt /RTCsu
xdata$x	ENDS
;	COMDAT ??1TAB_ITEM@@QAE@XZ
_TEXT	SEGMENT
_this$ = -16						; size = 4
__$EHRec$ = -12						; size = 12
??1TAB_ITEM@@QAE@XZ PROC NEAR				; TAB_ITEM::~TAB_ITEM, COMDAT
; _this$ = ecx
  00000	55		 push	 ebp
  00001	8b ec		 mov	 ebp, esp
  00003	6a ff		 push	 -1
  00005	68 00 00 00 00	 push	 __ehhandler$??1TAB_ITEM@@QAE@XZ
  0000a	64 a1 00 00 00
	00		 mov	 eax, DWORD PTR fs:__except_list
  00010	50		 push	 eax
  00011	64 89 25 00 00
	00 00		 mov	 DWORD PTR fs:__except_list, esp
  00018	51		 push	 ecx
  00019	56		 push	 esi
  0001a	c7 45 f0 cc cc
	cc cc		 mov	 DWORD PTR [ebp-16], -858993460 ; ccccccccH
  00021	89 4d f0	 mov	 DWORD PTR _this$[ebp], ecx
  00024	c7 45 fc 00 00
	00 00		 mov	 DWORD PTR __$EHRec$[ebp+8], 0
  0002b	8b 4d f0	 mov	 ecx, DWORD PTR _this$[ebp]
  0002e	83 c1 20	 add	 ecx, 32			; 00000020H
  00031	8b f4		 mov	 esi, esp
  00033	ff 15 00 00 00
	00		 call	 DWORD PTR __imp_??1?$basic_string@DU?$char_traits@D@std@@V?$allocator@D@2@@std@@QAE@XZ
  00039	3b f4		 cmp	 esi, esp
  0003b	e8 00 00 00 00	 call	 __RTC_CheckEsp
  00040	c7 45 fc ff ff
	ff ff		 mov	 DWORD PTR __$EHRec$[ebp+8], -1
  00047	8b f4		 mov	 esi, esp
  00049	8b 4d f0	 mov	 ecx, DWORD PTR _this$[ebp]
  0004c	ff 15 00 00 00
	00		 call	 DWORD PTR __imp_??1?$basic_string@DU?$char_traits@D@std@@V?$allocator@D@2@@std@@QAE@XZ
  00052	3b f4		 cmp	 esi, esp
  00054	e8 00 00 00 00	 call	 __RTC_CheckEsp
  00059	8b 4d f4	 mov	 ecx, DWORD PTR __$EHRec$[ebp]
  0005c	64 89 0d 00 00
	00 00		 mov	 DWORD PTR fs:__except_list, ecx
  00063	5e		 pop	 esi
  00064	83 c4 10	 add	 esp, 16			; 00000010H
  00067	3b ec		 cmp	 ebp, esp
  00069	e8 00 00 00 00	 call	 __RTC_CheckEsp
  0006e	8b e5		 mov	 esp, ebp
  00070	5d		 pop	 ebp
  00071	c3		 ret	 0
_TEXT	ENDS
;	COMDAT text$x
text$x	SEGMENT
$L193314:
  00000	8b f4		 mov	 esi, esp
  00002	8b 4d f0	 mov	 ecx, DWORD PTR _this$[ebp]
  00005	ff 15 00 00 00
	00		 call	 DWORD PTR __imp_??1?$basic_string@DU?$char_traits@D@std@@V?$allocator@D@2@@std@@QAE@XZ
  0000b	3b f4		 cmp	 esi, esp
  0000d	e9 00 00 00 00	 jmp	 __RTC_CheckEsp
__ehhandler$??1TAB_ITEM@@QAE@XZ:
  00012	b8 00 00 00 00	 mov	 eax, OFFSET FLAT:$T193317
  00017	e9 00 00 00 00	 jmp	 ___CxxFrameHandler
text$x	ENDS
??1TAB_ITEM@@QAE@XZ ENDP				; TAB_ITEM::~TAB_ITEM
EXTRN	__imp_?Left@?$CStringT@DV?$StrTraitMFC_DLL@DV?$ChTraitsCRT@D@ATL@@@@@ATL@@QBE?AV12@H@Z:NEAR
xdata$x	SEGMENT
$T193360 DD	0ffffffffH
	DD	FLAT:$L193345
	DD	00H
	DD	FLAT:$L193333
	DD	01H
	DD	FLAT:$L193335
	DD	02H
	DD	FLAT:$L193337
	DD	03H
	DD	FLAT:$L193339
	DD	04H
	DD	FLAT:$L193340
	DD	04H
	DD	FLAT:$L193341
	DD	06H
	DD	FLAT:$L193342
	DD	07H
	DD	FLAT:$L193343
	DD	08H
	DD	FLAT:$L193344
$T193349 DD	019930520H
	DD	0aH
	DD	FLAT:$T193360
	DD	2 DUP(00H)
	DD	2 DUP(00H)
; Function compile flags: /Odt /RTCsu
xdata$x	ENDS
_TEXT	SEGMENT
tv216 = -380						; size = 4
tv210 = -376						; size = 4
tv265 = -372						; size = 4
tv324 = -368						; size = 4
tv262 = -361						; size = 1
tv261 = -360						; size = 4
tv258 = -356						; size = 4
tv257 = -352						; size = 4
tv254 = -348						; size = 4
tv253 = -344						; size = 4
tv250 = -340						; size = 4
tv249 = -336						; size = 4
$T193346 = -332						; size = 4
$T193331 = -328						; size = 28
$T193330 = -300						; size = 28
$T193329 = -272						; size = 4
$T193328 = -265						; size = 1
$T193327 = -264						; size = 4
$T193326 = -260						; size = 4
$T193325 = -256						; size = 4
$T193324 = -252						; size = 4
_s$191746 = -244					; size = 28
_tItem$191744 = -208					; size = 60
_cstrUrl$ = -140					; size = 4
_bUrlOK$ = -131						; size = 1
_bNameOK$ = -130					; size = 1
_bIDOK$ = -129						; size = 1
_strUrl$ = -124						; size = 28
_strName$ = -88						; size = 28
_strID$ = -52						; size = 28
_this$ = -20						; size = 4
__$ArrayPad$ = -16					; size = 4
__$EHRec$ = -12						; size = 12
__$ReturnAddr$ = 4					; size = 4
___$ReturnUdt$ = 8					; size = 4
_strContent$ = 12					; size = 4
?_command_playwebgame@CWebManager@@AAE?AV?$basic_string@DU?$char_traits@D@std@@V?$allocator@D@2@@std@@AAV23@@Z PROC NEAR ; CWebManager::_command_playwebgame
; _this$ = ecx

; 165  : {	

  01470	55		 push	 ebp
  01471	8b ec		 mov	 ebp, esp
  01473	6a ff		 push	 -1
  01475	68 00 00 00 00	 push	 __ehhandler$?_command_playwebgame@CWebManager@@AAE?AV?$basic_string@DU?$char_traits@D@std@@V?$allocator@D@2@@std@@AAV23@@Z
  0147a	64 a1 00 00 00
	00		 mov	 eax, DWORD PTR fs:__except_list
  01480	50		 push	 eax
  01481	64 89 25 00 00
	00 00		 mov	 DWORD PTR fs:__except_list, esp
  01488	81 ec 70 01 00
	00		 sub	 esp, 368		; 00000170H
  0148e	56		 push	 esi
  0148f	57		 push	 edi
  01490	51		 push	 ecx
  01491	8d bd 84 fe ff
	ff		 lea	 edi, DWORD PTR [ebp-380]
  01497	b9 5c 00 00 00	 mov	 ecx, 92			; 0000005cH
  0149c	b8 cc cc cc cc	 mov	 eax, -858993460		; ccccccccH
  014a1	f3 ab		 rep stosd
  014a3	59		 pop	 ecx
  014a4	a1 00 00 00 00	 mov	 eax, DWORD PTR ___security_cookie
  014a9	89 45 f0	 mov	 DWORD PTR __$ArrayPad$[ebp], eax
  014ac	89 4d ec	 mov	 DWORD PTR _this$[ebp], ecx
  014af	c7 85 b4 fe ff
	ff 00 00 00 00	 mov	 DWORD PTR $T193346[ebp], 0

; 166  : 	string strID   = GetValue( strContent, "id" );

  014b9	83 ec 1c	 sub	 esp, 28			; 0000001cH
  014bc	8b cc		 mov	 ecx, esp
  014be	89 a5 04 ff ff
	ff		 mov	 DWORD PTR $T193324[ebp], esp
  014c4	8b f4		 mov	 esi, esp
  014c6	68 00 00 00 00	 push	 OFFSET FLAT:$SG191722
  014cb	ff 15 00 00 00
	00		 call	 DWORD PTR __imp_??0?$basic_string@DU?$char_traits@D@std@@V?$allocator@D@2@@std@@QAE@PBD@Z
  014d1	3b f4		 cmp	 esi, esp
  014d3	e8 00 00 00 00	 call	 __RTC_CheckEsp
  014d8	89 85 b0 fe ff
	ff		 mov	 DWORD PTR tv249[ebp], eax
  014de	8b 45 0c	 mov	 eax, DWORD PTR _strContent$[ebp]
  014e1	50		 push	 eax
  014e2	8d 4d cc	 lea	 ecx, DWORD PTR _strID$[ebp]
  014e5	51		 push	 ecx
  014e6	8b 4d ec	 mov	 ecx, DWORD PTR _this$[ebp]
  014e9	e8 00 00 00 00	 call	 ?GetValue@CWebManager@@QAE?AV?$basic_string@DU?$char_traits@D@std@@V?$allocator@D@2@@std@@AAV23@V23@@Z ; CWebManager::GetValue
  014ee	89 85 ac fe ff
	ff		 mov	 DWORD PTR tv250[ebp], eax
  014f4	c7 45 fc 01 00
	00 00		 mov	 DWORD PTR __$EHRec$[ebp+8], 1

; 167  : 	string strName = GetValue( strContent, "name" );

  014fb	83 ec 1c	 sub	 esp, 28			; 0000001cH
  014fe	8b cc		 mov	 ecx, esp
  01500	89 a5 00 ff ff
	ff		 mov	 DWORD PTR $T193325[ebp], esp
  01506	8b f4		 mov	 esi, esp
  01508	68 00 00 00 00	 push	 OFFSET FLAT:$SG191726
  0150d	ff 15 00 00 00
	00		 call	 DWORD PTR __imp_??0?$basic_string@DU?$char_traits@D@std@@V?$allocator@D@2@@std@@QAE@PBD@Z
  01513	3b f4		 cmp	 esi, esp
  01515	e8 00 00 00 00	 call	 __RTC_CheckEsp
  0151a	89 85 a8 fe ff
	ff		 mov	 DWORD PTR tv253[ebp], eax
  01520	8b 55 0c	 mov	 edx, DWORD PTR _strContent$[ebp]
  01523	52		 push	 edx
  01524	8d 45 a8	 lea	 eax, DWORD PTR _strName$[ebp]
  01527	50		 push	 eax
  01528	8b 4d ec	 mov	 ecx, DWORD PTR _this$[ebp]
  0152b	e8 00 00 00 00	 call	 ?GetValue@CWebManager@@QAE?AV?$basic_string@DU?$char_traits@D@std@@V?$allocator@D@2@@std@@AAV23@V23@@Z ; CWebManager::GetValue
  01530	89 85 a4 fe ff
	ff		 mov	 DWORD PTR tv254[ebp], eax
  01536	c6 45 fc 02	 mov	 BYTE PTR __$EHRec$[ebp+8], 2

; 168  : 	string strUrl  = GetValue( strContent, "url" );

  0153a	83 ec 1c	 sub	 esp, 28			; 0000001cH
  0153d	8b cc		 mov	 ecx, esp
  0153f	89 a5 fc fe ff
	ff		 mov	 DWORD PTR $T193326[ebp], esp
  01545	8b f4		 mov	 esi, esp
  01547	68 00 00 00 00	 push	 OFFSET FLAT:$SG191730
  0154c	ff 15 00 00 00
	00		 call	 DWORD PTR __imp_??0?$basic_string@DU?$char_traits@D@std@@V?$allocator@D@2@@std@@QAE@PBD@Z
  01552	3b f4		 cmp	 esi, esp
  01554	e8 00 00 00 00	 call	 __RTC_CheckEsp
  01559	89 85 a0 fe ff
	ff		 mov	 DWORD PTR tv257[ebp], eax
  0155f	8b 4d 0c	 mov	 ecx, DWORD PTR _strContent$[ebp]
  01562	51		 push	 ecx
  01563	8d 55 84	 lea	 edx, DWORD PTR _strUrl$[ebp]
  01566	52		 push	 edx
  01567	8b 4d ec	 mov	 ecx, DWORD PTR _this$[ebp]
  0156a	e8 00 00 00 00	 call	 ?GetValue@CWebManager@@QAE?AV?$basic_string@DU?$char_traits@D@std@@V?$allocator@D@2@@std@@AAV23@V23@@Z ; CWebManager::GetValue
  0156f	89 85 9c fe ff
	ff		 mov	 DWORD PTR tv258[ebp], eax
  01575	c6 45 fc 03	 mov	 BYTE PTR __$EHRec$[ebp+8], 3

; 169  : 
; 170  : 	//idOK
; 171  : 	bool bIDOK = false;

  01579	c6 85 7f ff ff
	ff 00		 mov	 BYTE PTR _bIDOK$[ebp], 0

; 172  : 	if( strID.length() > 0 && IsNumber( strID ) ) //ID

  01580	8b f4		 mov	 esi, esp
  01582	8d 4d cc	 lea	 ecx, DWORD PTR _strID$[ebp]
  01585	ff 15 00 00 00
	00		 call	 DWORD PTR __imp_?length@?$basic_string@DU?$char_traits@D@std@@V?$allocator@D@2@@std@@QBEIXZ
  0158b	3b f4		 cmp	 esi, esp
  0158d	e8 00 00 00 00	 call	 __RTC_CheckEsp
  01592	85 c0		 test	 eax, eax
  01594	76 44		 jbe	 SHORT $L191733
  01596	83 ec 1c	 sub	 esp, 28			; 0000001cH
  01599	8b cc		 mov	 ecx, esp
  0159b	89 a5 f8 fe ff
	ff		 mov	 DWORD PTR $T193327[ebp], esp
  015a1	8b f4		 mov	 esi, esp
  015a3	8d 45 cc	 lea	 eax, DWORD PTR _strID$[ebp]
  015a6	50		 push	 eax
  015a7	ff 15 00 00 00
	00		 call	 DWORD PTR __imp_??0?$basic_string@DU?$char_traits@D@std@@V?$allocator@D@2@@std@@QAE@ABV01@@Z
  015ad	3b f4		 cmp	 esi, esp
  015af	e8 00 00 00 00	 call	 __RTC_CheckEsp
  015b4	89 85 98 fe ff
	ff		 mov	 DWORD PTR tv261[ebp], eax
  015ba	e8 00 00 00 00	 call	 ?IsNumber@@YA_NV?$basic_string@DU?$char_traits@D@std@@V?$allocator@D@2@@std@@@Z ; IsNumber
  015bf	83 c4 1c	 add	 esp, 28			; 0000001cH
  015c2	88 85 97 fe ff
	ff		 mov	 BYTE PTR tv262[ebp], al
  015c8	0f b6 8d 97 fe
	ff ff		 movzx	 ecx, BYTE PTR tv262[ebp]
  015cf	85 c9		 test	 ecx, ecx
  015d1	74 07		 je	 SHORT $L191733

; 173  : 	{
; 174  : 		bIDOK = true;

  015d3	c6 85 7f ff ff
	ff 01		 mov	 BYTE PTR _bIDOK$[ebp], 1
$L191733:

; 175  : 	}
; 176  : 	//nameOK
; 177  : 	bool bNameOK = false;

  015da	c6 85 7e ff ff
	ff 00		 mov	 BYTE PTR _bNameOK$[ebp], 0

; 178  : 	if( strName.length() != 0 )

  015e1	8b f4		 mov	 esi, esp
  015e3	8d 4d a8	 lea	 ecx, DWORD PTR _strName$[ebp]
  015e6	ff 15 00 00 00
	00		 call	 DWORD PTR __imp_?length@?$basic_string@DU?$char_traits@D@std@@V?$allocator@D@2@@std@@QBEIXZ
  015ec	3b f4		 cmp	 esi, esp
  015ee	e8 00 00 00 00	 call	 __RTC_CheckEsp
  015f3	85 c0		 test	 eax, eax
  015f5	74 07		 je	 SHORT $L191735

; 179  : 	{
; 180  : 		bNameOK = true;

  015f7	c6 85 7e ff ff
	ff 01		 mov	 BYTE PTR _bNameOK$[ebp], 1
$L191735:

; 181  : 	}
; 182  : 	//urlOK
; 183  : 	bool bUrlOK = false;

  015fe	c6 85 7d ff ff
	ff 00		 mov	 BYTE PTR _bUrlOK$[ebp], 0

; 184  : 	CString cstrUrl = CString( strUrl.c_str() );

  01605	8b f4		 mov	 esi, esp
  01607	8d 4d 84	 lea	 ecx, DWORD PTR _strUrl$[ebp]
  0160a	ff 15 00 00 00
	00		 call	 DWORD PTR __imp_?c_str@?$basic_string@DU?$char_traits@D@std@@V?$allocator@D@2@@std@@QBEPBDXZ
  01610	3b f4		 cmp	 esi, esp
  01612	e8 00 00 00 00	 call	 __RTC_CheckEsp
  01617	8b f4		 mov	 esi, esp
  01619	50		 push	 eax
  0161a	8d 8d 74 ff ff
	ff		 lea	 ecx, DWORD PTR _cstrUrl$[ebp]
  01620	ff 15 00 00 00
	00		 call	 DWORD PTR __imp_??0?$CStringT@DV?$StrTraitMFC_DLL@DV?$ChTraitsCRT@D@ATL@@@@@ATL@@QAE@PBD@Z
  01626	3b f4		 cmp	 esi, esp
  01628	e8 00 00 00 00	 call	 __RTC_CheckEsp
  0162d	c6 45 fc 04	 mov	 BYTE PTR __$EHRec$[ebp+8], 4

; 185  : 	if( cstrUrl.Left(7).MakeLower() == "http://" ) //urlhttp:// 

  01631	8b f4		 mov	 esi, esp
  01633	6a 07		 push	 7
  01635	8d 95 f0 fe ff
	ff		 lea	 edx, DWORD PTR $T193329[ebp]
  0163b	52		 push	 edx
  0163c	8d 8d 74 ff ff
	ff		 lea	 ecx, DWORD PTR _cstrUrl$[ebp]
  01642	ff 15 00 00 00
	00		 call	 DWORD PTR __imp_?Left@?$CStringT@DV?$StrTraitMFC_DLL@DV?$ChTraitsCRT@D@ATL@@@@@ATL@@QBE?AV12@H@Z
  01648	3b f4		 cmp	 esi, esp
  0164a	e8 00 00 00 00	 call	 __RTC_CheckEsp
  0164f	89 85 90 fe ff
	ff		 mov	 DWORD PTR tv324[ebp], eax
  01655	8b 85 90 fe ff
	ff		 mov	 eax, DWORD PTR tv324[ebp]
  0165b	89 85 8c fe ff
	ff		 mov	 DWORD PTR tv265[ebp], eax
  01661	c6 45 fc 05	 mov	 BYTE PTR __$EHRec$[ebp+8], 5
  01665	68 00 00 00 00	 push	 OFFSET FLAT:$SG191742
  0166a	8b f4		 mov	 esi, esp
  0166c	8b 8d 8c fe ff
	ff		 mov	 ecx, DWORD PTR tv265[ebp]
  01672	ff 15 00 00 00
	00		 call	 DWORD PTR __imp_?MakeLower@?$CStringT@DV?$StrTraitMFC_DLL@DV?$ChTraitsCRT@D@ATL@@@@@ATL@@QAEAAV12@XZ
  01678	3b f4		 cmp	 esi, esp
  0167a	e8 00 00 00 00	 call	 __RTC_CheckEsp
  0167f	50		 push	 eax
  01680	e8 00 00 00 00	 call	 ??8ATL@@YA_NABV?$CStringT@DV?$StrTraitMFC_DLL@DV?$ChTraitsCRT@D@ATL@@@@@0@PBD@Z ; ATL::operator==
  01685	83 c4 08	 add	 esp, 8
  01688	88 85 f7 fe ff
	ff		 mov	 BYTE PTR $T193328[ebp], al
  0168e	c6 45 fc 04	 mov	 BYTE PTR __$EHRec$[ebp+8], 4
  01692	8b f4		 mov	 esi, esp
  01694	8d 8d f0 fe ff
	ff		 lea	 ecx, DWORD PTR $T193329[ebp]
  0169a	ff 15 00 00 00
	00		 call	 DWORD PTR __imp_??1?$CStringT@DV?$StrTraitMFC_DLL@DV?$ChTraitsCRT@D@ATL@@@@@ATL@@QAE@XZ
  016a0	3b f4		 cmp	 esi, esp
  016a2	e8 00 00 00 00	 call	 __RTC_CheckEsp
  016a7	0f b6 8d f7 fe
	ff ff		 movzx	 ecx, BYTE PTR $T193328[ebp]
  016ae	85 c9		 test	 ecx, ecx
  016b0	74 07		 je	 SHORT $L191740

; 186  : 	{
; 187  : 		bUrlOK = true;

  016b2	c6 85 7d ff ff
	ff 01		 mov	 BYTE PTR _bUrlOK$[ebp], 1
$L191740:

; 188  : 	}	
; 189  : 	
; 190  : 	if( bIDOK && bNameOK && bUrlOK )	

  016b9	0f b6 95 7f ff
	ff ff		 movzx	 edx, BYTE PTR _bIDOK$[ebp]
  016c0	85 d2		 test	 edx, edx
  016c2	0f 84 2c 02 00
	00		 je	 $L191743
  016c8	0f b6 85 7e ff
	ff ff		 movzx	 eax, BYTE PTR _bNameOK$[ebp]
  016cf	85 c0		 test	 eax, eax
  016d1	0f 84 1d 02 00
	00		 je	 $L191743
  016d7	0f b6 8d 7d ff
	ff ff		 movzx	 ecx, BYTE PTR _bUrlOK$[ebp]
  016de	85 c9		 test	 ecx, ecx
  016e0	0f 84 0e 02 00
	00		 je	 $L191743

; 191  : 	{
; 192  : 		TAB_ITEM tItem;

  016e6	8d 8d 30 ff ff
	ff		 lea	 ecx, DWORD PTR _tItem$191744[ebp]
  016ec	e8 00 00 00 00	 call	 ??0TAB_ITEM@@QAE@XZ
  016f1	c6 45 fc 06	 mov	 BYTE PTR __$EHRec$[ebp+8], 6

; 193  : 		tItem.eumType = TAB_WEBGAME;

  016f5	c7 85 4c ff ff
	ff 01 00 00 00	 mov	 DWORD PTR _tItem$191744[ebp+28], 1

; 194  : 		tItem.strName = strName;

  016ff	8b f4		 mov	 esi, esp
  01701	8d 55 a8	 lea	 edx, DWORD PTR _strName$[ebp]
  01704	52		 push	 edx
  01705	8d 8d 30 ff ff
	ff		 lea	 ecx, DWORD PTR _tItem$191744[ebp]
  0170b	ff 15 00 00 00
	00		 call	 DWORD PTR __imp_??4?$basic_string@DU?$char_traits@D@std@@V?$allocator@D@2@@std@@QAEAAV01@ABV01@@Z
  01711	3b f4		 cmp	 esi, esp
  01713	e8 00 00 00 00	 call	 __RTC_CheckEsp

; 195  : 		tItem.strParam = strContent;

  01718	8b f4		 mov	 esi, esp
  0171a	8b 45 0c	 mov	 eax, DWORD PTR _strContent$[ebp]
  0171d	50		 push	 eax
  0171e	8d 8d 50 ff ff
	ff		 lea	 ecx, DWORD PTR _tItem$191744[ebp+32]
  01724	ff 15 00 00 00
	00		 call	 DWORD PTR __imp_??4?$basic_string@DU?$char_traits@D@std@@V?$allocator@D@2@@std@@QAEAAV01@ABV01@@Z
  0172a	3b f4		 cmp	 esi, esp
  0172c	e8 00 00 00 00	 call	 __RTC_CheckEsp

; 196  : 		GLOBAL_TABBARDATA->ITabBar_ChangeTab(tItem);

  01731	e8 00 00 00 00	 call	 ?AfxGetDataManager2@@YAPAVIDataManager@@XZ ; AfxGetDataManager2
  01736	89 85 88 fe ff
	ff		 mov	 DWORD PTR tv210[ebp], eax
  0173c	8b f4		 mov	 esi, esp
  0173e	68 00 00 00 00	 push	 OFFSET FLAT:_ID_DATA_TABBAR
  01743	8b 8d 88 fe ff
	ff		 mov	 ecx, DWORD PTR tv210[ebp]
  01749	8b 11		 mov	 edx, DWORD PTR [ecx]
  0174b	8b 8d 88 fe ff
	ff		 mov	 ecx, DWORD PTR tv210[ebp]
  01751	ff 52 0c	 call	 DWORD PTR [edx+12]
  01754	3b f4		 cmp	 esi, esp
  01756	e8 00 00 00 00	 call	 __RTC_CheckEsp
  0175b	89 85 84 fe ff
	ff		 mov	 DWORD PTR tv216[ebp], eax
  01761	8b f4		 mov	 esi, esp
  01763	8d 85 30 ff ff
	ff		 lea	 eax, DWORD PTR _tItem$191744[ebp]
  01769	50		 push	 eax
  0176a	8b 8d 84 fe ff
	ff		 mov	 ecx, DWORD PTR tv216[ebp]
  01770	8b 11		 mov	 edx, DWORD PTR [ecx]
  01772	8b 8d 84 fe ff
	ff		 mov	 ecx, DWORD PTR tv216[ebp]
  01778	ff 52 0c	 call	 DWORD PTR [edx+12]
  0177b	3b f4		 cmp	 esi, esp
  0177d	e8 00 00 00 00	 call	 __RTC_CheckEsp

; 197  : 
; 198  : 		string s = "PlayWebGame:" + strID;

  01782	8d 45 cc	 lea	 eax, DWORD PTR _strID$[ebp]
  01785	50		 push	 eax
  01786	68 00 00 00 00	 push	 OFFSET FLAT:$SG191748
  0178b	8d 8d 0c ff ff
	ff		 lea	 ecx, DWORD PTR _s$191746[ebp]
  01791	51		 push	 ecx
  01792	e8 00 00 00 00	 call	 ??$?HDU?$char_traits@D@std@@V?$allocator@D@1@@std@@YA?AV?$basic_string@DU?$char_traits@D@std@@V?$allocator@D@2@@0@PBDABV10@@Z ; std::operator+<char,std::char_traits<char>,std::allocator<char> >
  01797	83 c4 0c	 add	 esp, 12			; 0000000cH
  0179a	c6 45 fc 07	 mov	 BYTE PTR __$EHRec$[ebp+8], 7

; 199  : 		LogRealMsg("PLAYGAME",s.c_str());

  0179e	8b f4		 mov	 esi, esp
  017a0	8d 8d 0c ff ff
	ff		 lea	 ecx, DWORD PTR _s$191746[ebp]
  017a6	ff 15 00 00 00
	00		 call	 DWORD PTR __imp_?c_str@?$basic_string@DU?$char_traits@D@std@@V?$allocator@D@2@@std@@QBEPBDXZ
  017ac	3b f4		 cmp	 esi, esp
  017ae	e8 00 00 00 00	 call	 __RTC_CheckEsp
  017b3	8b f4		 mov	 esi, esp
  017b5	50		 push	 eax
  017b6	8d 8d d4 fe ff
	ff		 lea	 ecx, DWORD PTR $T193330[ebp]
  017bc	ff 15 00 00 00
	00		 call	 DWORD PTR __imp_??0?$basic_string@DU?$char_traits@D@std@@V?$allocator@D@2@@std@@QAE@PBD@Z
  017c2	3b f4		 cmp	 esi, esp
  017c4	e8 00 00 00 00	 call	 __RTC_CheckEsp
  017c9	c6 45 fc 08	 mov	 BYTE PTR __$EHRec$[ebp+8], 8
  017cd	8b f4		 mov	 esi, esp
  017cf	68 00 00 00 00	 push	 OFFSET FLAT:$SG191751
  017d4	8d 8d b8 fe ff
	ff		 lea	 ecx, DWORD PTR $T193331[ebp]
  017da	ff 15 00 00 00
	00		 call	 DWORD PTR __imp_??0?$basic_string@DU?$char_traits@D@std@@V?$allocator@D@2@@std@@QAE@PBD@Z
  017e0	3b f4		 cmp	 esi, esp
  017e2	e8 00 00 00 00	 call	 __RTC_CheckEsp
  017e7	c6 45 fc 09	 mov	 BYTE PTR __$EHRec$[ebp+8], 9
  017eb	8b f4		 mov	 esi, esp
  017ed	6a 00		 push	 0
  017ef	6a 00		 push	 0
  017f1	6a 00		 push	 0
  017f3	8d 95 d4 fe ff
	ff		 lea	 edx, DWORD PTR $T193330[ebp]
  017f9	52		 push	 edx
  017fa	8d 85 b8 fe ff
	ff		 lea	 eax, DWORD PTR $T193331[ebp]
  01800	50		 push	 eax
  01801	ff 15 00 00 00
	00		 call	 DWORD PTR __imp_?LogRealMsg@@YAXABV?$basic_string@DU?$char_traits@D@std@@V?$allocator@D@2@@std@@0_NPAPAEPAI@Z
  01807	83 c4 14	 add	 esp, 20			; 00000014H
  0180a	3b f4		 cmp	 esi, esp
  0180c	e8 00 00 00 00	 call	 __RTC_CheckEsp
  01811	c6 45 fc 08	 mov	 BYTE PTR __$EHRec$[ebp+8], 8
  01815	8b f4		 mov	 esi, esp
  01817	8d 8d b8 fe ff
	ff		 lea	 ecx, DWORD PTR $T193331[ebp]
  0181d	ff 15 00 00 00
	00		 call	 DWORD PTR __imp_??1?$basic_string@DU?$char_traits@D@std@@V?$allocator@D@2@@std@@QAE@XZ
  01823	3b f4		 cmp	 esi, esp
  01825	e8 00 00 00 00	 call	 __RTC_CheckEsp
  0182a	c6 45 fc 07	 mov	 BYTE PTR __$EHRec$[ebp+8], 7
  0182e	8b f4		 mov	 esi, esp
  01830	8d 8d d4 fe ff
	ff		 lea	 ecx, DWORD PTR $T193330[ebp]
  01836	ff 15 00 00 00
	00		 call	 DWORD PTR __imp_??1?$basic_string@DU?$char_traits@D@std@@V?$allocator@D@2@@std@@QAE@XZ
  0183c	3b f4		 cmp	 esi, esp
  0183e	e8 00 00 00 00	 call	 __RTC_CheckEsp

; 200  : 		return "res=ok\n\n";

  01843	8b f4		 mov	 esi, esp
  01845	68 00 00 00 00	 push	 OFFSET FLAT:$SG191752
  0184a	8b 4d 08	 mov	 ecx, DWORD PTR ___$ReturnUdt$[ebp]
  0184d	ff 15 00 00 00
	00		 call	 DWORD PTR __imp_??0?$basic_string@DU?$char_traits@D@std@@V?$allocator@D@2@@std@@QAE@PBD@Z
  01853	3b f4		 cmp	 esi, esp
  01855	e8 00 00 00 00	 call	 __RTC_CheckEsp
  0185a	8b 8d b4 fe ff
	ff		 mov	 ecx, DWORD PTR $T193346[ebp]
  01860	83 c9 01	 or	 ecx, 1
  01863	89 8d b4 fe ff
	ff		 mov	 DWORD PTR $T193346[ebp], ecx
  01869	c6 45 fc 06	 mov	 BYTE PTR __$EHRec$[ebp+8], 6
  0186d	8b f4		 mov	 esi, esp
  0186f	8d 8d 0c ff ff
	ff		 lea	 ecx, DWORD PTR _s$191746[ebp]
  01875	ff 15 00 00 00
	00		 call	 DWORD PTR __imp_??1?$basic_string@DU?$char_traits@D@std@@V?$allocator@D@2@@std@@QAE@XZ
  0187b	3b f4		 cmp	 esi, esp
  0187d	e8 00 00 00 00	 call	 __RTC_CheckEsp
  01882	c6 45 fc 04	 mov	 BYTE PTR __$EHRec$[ebp+8], 4
  01886	8d 8d 30 ff ff
	ff		 lea	 ecx, DWORD PTR _tItem$191744[ebp]
  0188c	e8 00 00 00 00	 call	 ??1TAB_ITEM@@QAE@XZ
  01891	c6 45 fc 03	 mov	 BYTE PTR __$EHRec$[ebp+8], 3
  01895	8b f4		 mov	 esi, esp
  01897	8d 8d 74 ff ff
	ff		 lea	 ecx, DWORD PTR _cstrUrl$[ebp]
  0189d	ff 15 00 00 00
	00		 call	 DWORD PTR __imp_??1?$CStringT@DV?$StrTraitMFC_DLL@DV?$ChTraitsCRT@D@ATL@@@@@ATL@@QAE@XZ
  018a3	3b f4		 cmp	 esi, esp
  018a5	e8 00 00 00 00	 call	 __RTC_CheckEsp
  018aa	c6 45 fc 02	 mov	 BYTE PTR __$EHRec$[ebp+8], 2
  018ae	8b f4		 mov	 esi, esp
  018b0	8d 4d 84	 lea	 ecx, DWORD PTR _strUrl$[ebp]
  018b3	ff 15 00 00 00
	00		 call	 DWORD PTR __imp_??1?$basic_string@DU?$char_traits@D@std@@V?$allocator@D@2@@std@@QAE@XZ
  018b9	3b f4		 cmp	 esi, esp
  018bb	e8 00 00 00 00	 call	 __RTC_CheckEsp
  018c0	c6 45 fc 01	 mov	 BYTE PTR __$EHRec$[ebp+8], 1
  018c4	8b f4		 mov	 esi, esp
  018c6	8d 4d a8	 lea	 ecx, DWORD PTR _strName$[ebp]
  018c9	ff 15 00 00 00
	00		 call	 DWORD PTR __imp_??1?$basic_string@DU?$char_traits@D@std@@V?$allocator@D@2@@std@@QAE@XZ
  018cf	3b f4		 cmp	 esi, esp
  018d1	e8 00 00 00 00	 call	 __RTC_CheckEsp
  018d6	c6 45 fc 00	 mov	 BYTE PTR __$EHRec$[ebp+8], 0
  018da	8b f4		 mov	 esi, esp
  018dc	8d 4d cc	 lea	 ecx, DWORD PTR _strID$[ebp]
  018df	ff 15 00 00 00
	00		 call	 DWORD PTR __imp_??1?$basic_string@DU?$char_traits@D@std@@V?$allocator@D@2@@std@@QAE@XZ
  018e5	3b f4		 cmp	 esi, esp
  018e7	e8 00 00 00 00	 call	 __RTC_CheckEsp
  018ec	8b 45 08	 mov	 eax, DWORD PTR ___$ReturnUdt$[ebp]
  018ef	e9 84 00 00 00	 jmp	 $L191718
$L191743:

; 201  : 	}	
; 202  : 	return "res=err\n\n";

  018f4	8b f4		 mov	 esi, esp
  018f6	68 00 00 00 00	 push	 OFFSET FLAT:$SG191753
  018fb	8b 4d 08	 mov	 ecx, DWORD PTR ___$ReturnUdt$[ebp]
  018fe	ff 15 00 00 00
	00		 call	 DWORD PTR __imp_??0?$basic_string@DU?$char_traits@D@std@@V?$allocator@D@2@@std@@QAE@PBD@Z
  01904	3b f4		 cmp	 esi, esp
  01906	e8 00 00 00 00	 call	 __RTC_CheckEsp
  0190b	8b 95 b4 fe ff
	ff		 mov	 edx, DWORD PTR $T193346[ebp]
  01911	83 ca 01	 or	 edx, 1
  01914	89 95 b4 fe ff
	ff		 mov	 DWORD PTR $T193346[ebp], edx
  0191a	c6 45 fc 03	 mov	 BYTE PTR __$EHRec$[ebp+8], 3
  0191e	8b f4		 mov	 esi, esp
  01920	8d 8d 74 ff ff
	ff		 lea	 ecx, DWORD PTR _cstrUrl$[ebp]
  01926	ff 15 00 00 00
	00		 call	 DWORD PTR __imp_??1?$CStringT@DV?$StrTraitMFC_DLL@DV?$ChTraitsCRT@D@ATL@@@@@ATL@@QAE@XZ
  0192c	3b f4		 cmp	 esi, esp
  0192e	e8 00 00 00 00	 call	 __RTC_CheckEsp
  01933	c6 45 fc 02	 mov	 BYTE PTR __$EHRec$[ebp+8], 2
  01937	8b f4		 mov	 esi, esp
  01939	8d 4d 84	 lea	 ecx, DWORD PTR _strUrl$[ebp]
  0193c	ff 15 00 00 00
	00		 call	 DWORD PTR __imp_??1?$basic_string@DU?$char_traits@D@std@@V?$allocator@D@2@@std@@QAE@XZ
  01942	3b f4		 cmp	 esi, esp
  01944	e8 00 00 00 00	 call	 __RTC_CheckEsp
  01949	c6 45 fc 01	 mov	 BYTE PTR __$EHRec$[ebp+8], 1
  0194d	8b f4		 mov	 esi, esp
  0194f	8d 4d a8	 lea	 ecx, DWORD PTR _strName$[ebp]
  01952	ff 15 00 00 00
	00		 call	 DWORD PTR __imp_??1?$basic_string@DU?$char_traits@D@std@@V?$allocator@D@2@@std@@QAE@XZ
  01958	3b f4		 cmp	 esi, esp
  0195a	e8 00 00 00 00	 call	 __RTC_CheckEsp
  0195f	c6 45 fc 00	 mov	 BYTE PTR __$EHRec$[ebp+8], 0
  01963	8b f4		 mov	 esi, esp
  01965	8d 4d cc	 lea	 ecx, DWORD PTR _strID$[ebp]
  01968	ff 15 00 00 00
	00		 call	 DWORD PTR __imp_??1?$basic_string@DU?$char_traits@D@std@@V?$allocator@D@2@@std@@QAE@XZ
  0196e	3b f4		 cmp	 esi, esp
  01970	e8 00 00 00 00	 call	 __RTC_CheckEsp
  01975	8b 45 08	 mov	 eax, DWORD PTR ___$ReturnUdt$[ebp]
$L191718:

; 203  : }

  01978	52		 push	 edx
  01979	8b cd		 mov	 ecx, ebp
  0197b	50		 push	 eax
  0197c	8d 15 00 00 00
	00		 lea	 edx, DWORD PTR $L193359
  01982	e8 00 00 00 00	 call	 @_RTC_CheckStackVars@8
  01987	58		 pop	 eax
  01988	5a		 pop	 edx
  01989	8b 4d f4	 mov	 ecx, DWORD PTR __$EHRec$[ebp]
  0198c	64 89 0d 00 00
	00 00		 mov	 DWORD PTR fs:__except_list, ecx
  01993	8b 4d f0	 mov	 ecx, DWORD PTR __$ArrayPad$[ebp]
  01996	e8 00 00 00 00	 call	 @__security_check_cookie@4
  0199b	5f		 pop	 edi
  0199c	5e		 pop	 esi
  0199d	81 c4 7c 01 00
	00		 add	 esp, 380		; 0000017cH
  019a3	3b ec		 cmp	 ebp, esp
  019a5	e8 00 00 00 00	 call	 __RTC_CheckEsp
  019aa	8b e5		 mov	 esp, ebp
  019ac	5d		 pop	 ebp
  019ad	c2 08 00	 ret	 8
$L193359:
  019b0	06 00 00 00	 DD	 6
  019b4	00 00 00 00	 DD	 $L193358
$L193358:
  019b8	cc ff ff ff	 DD	 -52			; ffffffccH
  019bc	1c 00 00 00	 DD	 28			; 0000001cH
  019c0	00 00 00 00	 DD	 $L193350
  019c4	a8 ff ff ff	 DD	 -88			; ffffffa8H
  019c8	1c 00 00 00	 DD	 28			; 0000001cH
  019cc	00 00 00 00	 DD	 $L193351
  019d0	84 ff ff ff	 DD	 -124			; ffffff84H
  019d4	1c 00 00 00	 DD	 28			; 0000001cH
  019d8	00 00 00 00	 DD	 $L193352
  019dc	74 ff ff ff	 DD	 -140			; ffffff74H
  019e0	04 00 00 00	 DD	 4
  019e4	00 00 00 00	 DD	 $L193353
  019e8	30 ff ff ff	 DD	 -208			; ffffff30H
  019ec	3c 00 00 00	 DD	 60			; 0000003cH
  019f0	00 00 00 00	 DD	 $L193354
  019f4	0c ff ff ff	 DD	 -244			; ffffff0cH
  019f8	1c 00 00 00	 DD	 28			; 0000001cH
  019fc	00 00 00 00	 DD	 $L193355
$L193355:
  01a00	73		 DB	 115			; 00000073H
  01a01	00		 DB	 0
$L193354:
  01a02	74		 DB	 116			; 00000074H
  01a03	49		 DB	 73			; 00000049H
  01a04	74		 DB	 116			; 00000074H
  01a05	65		 DB	 101			; 00000065H
  01a06	6d		 DB	 109			; 0000006dH
  01a07	00		 DB	 0
$L193353:
  01a08	63		 DB	 99			; 00000063H
  01a09	73		 DB	 115			; 00000073H
  01a0a	74		 DB	 116			; 00000074H
  01a0b	72		 DB	 114			; 00000072H
  01a0c	55		 DB	 85			; 00000055H
  01a0d	72		 DB	 114			; 00000072H
  01a0e	6c		 DB	 108			; 0000006cH
  01a0f	00		 DB	 0
$L193352:
  01a10	73		 DB	 115			; 00000073H
  01a11	74		 DB	 116			; 00000074H
  01a12	72		 DB	 114			; 00000072H
  01a13	55		 DB	 85			; 00000055H
  01a14	72		 DB	 114			; 00000072H
  01a15	6c		 DB	 108			; 0000006cH
  01a16	00		 DB	 0
$L193351:
  01a17	73		 DB	 115			; 00000073H
  01a18	74		 DB	 116			; 00000074H
  01a19	72		 DB	 114			; 00000072H
  01a1a	4e		 DB	 78			; 0000004eH
  01a1b	61		 DB	 97			; 00000061H
  01a1c	6d		 DB	 109			; 0000006dH
  01a1d	65		 DB	 101			; 00000065H
  01a1e	00		 DB	 0
$L193350:
  01a1f	73		 DB	 115			; 00000073H
  01a20	74		 DB	 116			; 00000074H
  01a21	72		 DB	 114			; 00000072H
  01a22	49		 DB	 73			; 00000049H
  01a23	44		 DB	 68			; 00000044H
  01a24	00		 DB	 0
_TEXT	ENDS
text$x	SEGMENT
$L193333:
  002a6	8b f4		 mov	 esi, esp
  002a8	8d 4d cc	 lea	 ecx, DWORD PTR _strID$[ebp]
  002ab	ff 15 00 00 00
	00		 call	 DWORD PTR __imp_??1?$basic_string@DU?$char_traits@D@std@@V?$allocator@D@2@@std@@QAE@XZ
  002b1	3b f4		 cmp	 esi, esp
  002b3	e9 00 00 00 00	 jmp	 __RTC_CheckEsp
$L193335:
  002b8	8b f4		 mov	 esi, esp
  002ba	8d 4d a8	 lea	 ecx, DWORD PTR _strName$[ebp]
  002bd	ff 15 00 00 00
	00		 call	 DWORD PTR __imp_??1?$basic_string@DU?$char_traits@D@std@@V?$allocator@D@2@@std@@QAE@XZ
  002c3	3b f4		 cmp	 esi, esp
  002c5	e9 00 00 00 00	 jmp	 __RTC_CheckEsp
$L193337:
  002ca	8b f4		 mov	 esi, esp
  002cc	8d 4d 84	 lea	 ecx, DWORD PTR _strUrl$[ebp]
  002cf	ff 15 00 00 00
	00		 call	 DWORD PTR __imp_??1?$basic_string@DU?$char_traits@D@std@@V?$allocator@D@2@@std@@QAE@XZ
  002d5	3b f4		 cmp	 esi, esp
  002d7	e9 00 00 00 00	 jmp	 __RTC_CheckEsp
$L193339:
  002dc	8b f4		 mov	 esi, esp
  002de	8d 8d 74 ff ff
	ff		 lea	 ecx, DWORD PTR _cstrUrl$[ebp]
  002e4	ff 15 00 00 00
	00		 call	 DWORD PTR __imp_??1?$CStringT@DV?$StrTraitMFC_DLL@DV?$ChTraitsCRT@D@ATL@@@@@ATL@@QAE@XZ
  002ea	3b f4		 cmp	 esi, esp
  002ec	e9 00 00 00 00	 jmp	 __RTC_CheckEsp
$L193340:
  002f1	8b f4		 mov	 esi, esp
  002f3	8d 8d f0 fe ff
	ff		 lea	 ecx, DWORD PTR $T193329[ebp]
  002f9	ff 15 00 00 00
	00		 call	 DWORD PTR __imp_??1?$CStringT@DV?$StrTraitMFC_DLL@DV?$ChTraitsCRT@D@ATL@@@@@ATL@@QAE@XZ
  002ff	3b f4		 cmp	 esi, esp
  00301	e9 00 00 00 00	 jmp	 __RTC_CheckEsp
$L193341:
  00306	8d 8d 30 ff ff
	ff		 lea	 ecx, DWORD PTR _tItem$191744[ebp]
  0030c	e9 00 00 00 00	 jmp	 ??1TAB_ITEM@@QAE@XZ
$L193342:
  00311	8b f4		 mov	 esi, esp
  00313	8d 8d 0c ff ff
	ff		 lea	 ecx, DWORD PTR _s$191746[ebp]
  00319	ff 15 00 00 00
	00		 call	 DWORD PTR __imp_??1?$basic_string@DU?$char_traits@D@std@@V?$allocator@D@2@@std@@QAE@XZ
  0031f	3b f4		 cmp	 esi, esp
  00321	e9 00 00 00 00	 jmp	 __RTC_CheckEsp
$L193343:
  00326	8b f4		 mov	 esi, esp
  00328	8d 8d d4 fe ff
	ff		 lea	 ecx, DWORD PTR $T193330[ebp]
  0032e	ff 15 00 00 00
	00		 call	 DWORD PTR __imp_??1?$basic_string@DU?$char_traits@D@std@@V?$allocator@D@2@@std@@QAE@XZ
  00334	3b f4		 cmp	 esi, esp
  00336	e9 00 00 00 00	 jmp	 __RTC_CheckEsp
$L193344:
  0033b	8b f4		 mov	 esi, esp
  0033d	8d 8d b8 fe ff
	ff		 lea	 ecx, DWORD PTR $T193331[ebp]
  00343	ff 15 00 00 00
	00		 call	 DWORD PTR __imp_??1?$basic_string@DU?$char_traits@D@std@@V?$allocator@D@2@@std@@QAE@XZ
  00349	3b f4		 cmp	 esi, esp
  0034b	e9 00 00 00 00	 jmp	 __RTC_CheckEsp
$L193345:
  00350	8b 85 b4 fe ff
	ff		 mov	 eax, DWORD PTR $T193346[ebp]
  00356	83 e0 01	 and	 eax, 1
  00359	0f 84 19 00 00
	00		 je	 $L193347
  0035f	83 a5 b4 fe ff
	ff fe		 and	 DWORD PTR $T193346[ebp], -2 ; fffffffeH
  00366	8b f4		 mov	 esi, esp
  00368	8b 4d 08	 mov	 ecx, DWORD PTR ___$ReturnUdt$[ebp]
  0036b	ff 15 00 00 00
	00		 call	 DWORD PTR __imp_??1?$basic_string@DU?$char_traits@D@std@@V?$allocator@D@2@@std@@QAE@XZ
  00371	3b f4		 cmp	 esi, esp
  00373	e9 00 00 00 00	 jmp	 __RTC_CheckEsp
$L193347:
  00378	c3		 ret	 0
__ehhandler$?_command_playwebgame@CWebManager@@AAE?AV?$basic_string@DU?$char_traits@D@std@@V?$allocator@D@2@@std@@AAV23@@Z:
  00379	b8 00 00 00 00	 mov	 eax, OFFSET FLAT:$T193349
  0037e	e9 00 00 00 00	 jmp	 ___CxxFrameHandler
text$x	ENDS
?_command_playwebgame@CWebManager@@AAE?AV?$basic_string@DU?$char_traits@D@std@@V?$allocator@D@2@@std@@AAV23@@Z ENDP ; CWebManager::_command_playwebgame
EXTRN	?Format@YL_StringUtil@@SA_NAAV?$basic_string@DU?$char_traits@D@std@@V?$allocator@D@2@@std@@PBDZZ:NEAR ; YL_StringUtil::Format
xdata$x	SEGMENT
$T193388 DD	0ffffffffH
	DD	FLAT:$L193374
	DD	00H
	DD	FLAT:$L193367
	DD	01H
	DD	FLAT:$L193369
	DD	02H
	DD	FLAT:$L193371
	DD	03H
	DD	FLAT:$L193372
	DD	04H
	DD	FLAT:$L193373
$T193378 DD	019930520H
	DD	06H
	DD	FLAT:$T193388
	DD	2 DUP(00H)
	DD	2 DUP(00H)
; Function compile flags: /Odt /RTCsu
xdata$x	ENDS
_TEXT	SEGMENT
tv176 = -280						; size = 4
tv170 = -276						; size = 4
tv194 = -272						; size = 4
tv193 = -268						; size = 4
tv190 = -264						; size = 4
tv189 = -260						; size = 4
tv186 = -256						; size = 4
tv185 = -252						; size = 4
$T193375 = -248						; size = 4
$T193365 = -244						; size = 4
$T193364 = -240						; size = 4
$T193363 = -236						; size = 4
_tItem$ = -228						; size = 60
_strParam$ = -160					; size = 28
_strUrl$ = -124						; size = 28
_strName$ = -88						; size = 28
_strID$ = -52						; size = 28
_this$ = -20						; size = 4
__$ArrayPad$ = -16					; size = 4
__$EHRec$ = -12						; size = 12
__$ReturnAddr$ = 4					; size = 4
___$ReturnUdt$ = 8					; size = 4
_strContent$ = 12					; size = 4
?_command_opennewtab@CWebManager@@AAE?AV?$basic_string@DU?$char_traits@D@std@@V?$allocator@D@2@@std@@AAV23@@Z PROC NEAR ; CWebManager::_command_opennewtab
; _this$ = ecx

; 207  : {

  01a30	55		 push	 ebp
  01a31	8b ec		 mov	 ebp, esp
  01a33	6a ff		 push	 -1
  01a35	68 00 00 00 00	 push	 __ehhandler$?_command_opennewtab@CWebManager@@AAE?AV?$basic_string@DU?$char_traits@D@std@@V?$allocator@D@2@@std@@AAV23@@Z
  01a3a	64 a1 00 00 00
	00		 mov	 eax, DWORD PTR fs:__except_list
  01a40	50		 push	 eax
  01a41	64 89 25 00 00
	00 00		 mov	 DWORD PTR fs:__except_list, esp
  01a48	81 ec 0c 01 00
	00		 sub	 esp, 268		; 0000010cH
  01a4e	56		 push	 esi
  01a4f	57		 push	 edi
  01a50	51		 push	 ecx
  01a51	8d bd e8 fe ff
	ff		 lea	 edi, DWORD PTR [ebp-280]
  01a57	b9 43 00 00 00	 mov	 ecx, 67			; 00000043H
  01a5c	b8 cc cc cc cc	 mov	 eax, -858993460		; ccccccccH
  01a61	f3 ab		 rep stosd
  01a63	59		 pop	 ecx
  01a64	a1 00 00 00 00	 mov	 eax, DWORD PTR ___security_cookie
  01a69	89 45 f0	 mov	 DWORD PTR __$ArrayPad$[ebp], eax
  01a6c	89 4d ec	 mov	 DWORD PTR _this$[ebp], ecx
  01a6f	c7 85 08 ff ff
	ff 00 00 00 00	 mov	 DWORD PTR $T193375[ebp], 0

; 208  : 	string strID = GetValue (strContent, "id");

  01a79	83 ec 1c	 sub	 esp, 28			; 0000001cH
  01a7c	8b cc		 mov	 ecx, esp
  01a7e	89 a5 14 ff ff
	ff		 mov	 DWORD PTR $T193363[ebp], esp
  01a84	8b f4		 mov	 esi, esp
  01a86	68 00 00 00 00	 push	 OFFSET FLAT:$SG191762
  01a8b	ff 15 00 00 00
	00		 call	 DWORD PTR __imp_??0?$basic_string@DU?$char_traits@D@std@@V?$allocator@D@2@@std@@QAE@PBD@Z
  01a91	3b f4		 cmp	 esi, esp
  01a93	e8 00 00 00 00	 call	 __RTC_CheckEsp
  01a98	89 85 04 ff ff
	ff		 mov	 DWORD PTR tv185[ebp], eax
  01a9e	8b 45 0c	 mov	 eax, DWORD PTR _strContent$[ebp]
  01aa1	50		 push	 eax
  01aa2	8d 4d cc	 lea	 ecx, DWORD PTR _strID$[ebp]
  01aa5	51		 push	 ecx
  01aa6	8b 4d ec	 mov	 ecx, DWORD PTR _this$[ebp]
  01aa9	e8 00 00 00 00	 call	 ?GetValue@CWebManager@@QAE?AV?$basic_string@DU?$char_traits@D@std@@V?$allocator@D@2@@std@@AAV23@V23@@Z ; CWebManager::GetValue
  01aae	89 85 00 ff ff
	ff		 mov	 DWORD PTR tv186[ebp], eax
  01ab4	c7 45 fc 01 00
	00 00		 mov	 DWORD PTR __$EHRec$[ebp+8], 1

; 209  : 	string strName = GetValue (strContent, "name");

  01abb	83 ec 1c	 sub	 esp, 28			; 0000001cH
  01abe	8b cc		 mov	 ecx, esp
  01ac0	89 a5 10 ff ff
	ff		 mov	 DWORD PTR $T193364[ebp], esp
  01ac6	8b f4		 mov	 esi, esp
  01ac8	68 00 00 00 00	 push	 OFFSET FLAT:$SG191766
  01acd	ff 15 00 00 00
	00		 call	 DWORD PTR __imp_??0?$basic_string@DU?$char_traits@D@std@@V?$allocator@D@2@@std@@QAE@PBD@Z
  01ad3	3b f4		 cmp	 esi, esp
  01ad5	e8 00 00 00 00	 call	 __RTC_CheckEsp
  01ada	89 85 fc fe ff
	ff		 mov	 DWORD PTR tv189[ebp], eax
  01ae0	8b 55 0c	 mov	 edx, DWORD PTR _strContent$[ebp]
  01ae3	52		 push	 edx
  01ae4	8d 45 a8	 lea	 eax, DWORD PTR _strName$[ebp]
  01ae7	50		 push	 eax
  01ae8	8b 4d ec	 mov	 ecx, DWORD PTR _this$[ebp]
  01aeb	e8 00 00 00 00	 call	 ?GetValue@CWebManager@@QAE?AV?$basic_string@DU?$char_traits@D@std@@V?$allocator@D@2@@std@@AAV23@V23@@Z ; CWebManager::GetValue
  01af0	89 85 f8 fe ff
	ff		 mov	 DWORD PTR tv190[ebp], eax
  01af6	c6 45 fc 02	 mov	 BYTE PTR __$EHRec$[ebp+8], 2

; 210  : 	string strUrl = GetValue (strContent, "infourl");

  01afa	83 ec 1c	 sub	 esp, 28			; 0000001cH
  01afd	8b cc		 mov	 ecx, esp
  01aff	89 a5 0c ff ff
	ff		 mov	 DWORD PTR $T193365[ebp], esp
  01b05	8b f4		 mov	 esi, esp
  01b07	68 00 00 00 00	 push	 OFFSET FLAT:$SG191770
  01b0c	ff 15 00 00 00
	00		 call	 DWORD PTR __imp_??0?$basic_string@DU?$char_traits@D@std@@V?$allocator@D@2@@std@@QAE@PBD@Z
  01b12	3b f4		 cmp	 esi, esp
  01b14	e8 00 00 00 00	 call	 __RTC_CheckEsp
  01b19	89 85 f4 fe ff
	ff		 mov	 DWORD PTR tv193[ebp], eax
  01b1f	8b 4d 0c	 mov	 ecx, DWORD PTR _strContent$[ebp]
  01b22	51		 push	 ecx
  01b23	8d 55 84	 lea	 edx, DWORD PTR _strUrl$[ebp]
  01b26	52		 push	 edx
  01b27	8b 4d ec	 mov	 ecx, DWORD PTR _this$[ebp]
  01b2a	e8 00 00 00 00	 call	 ?GetValue@CWebManager@@QAE?AV?$basic_string@DU?$char_traits@D@std@@V?$allocator@D@2@@std@@AAV23@V23@@Z ; CWebManager::GetValue
  01b2f	89 85 f0 fe ff
	ff		 mov	 DWORD PTR tv194[ebp], eax
  01b35	c6 45 fc 03	 mov	 BYTE PTR __$EHRec$[ebp+8], 3

; 211  : 
; 212  : 	string strParam;

  01b39	8b f4		 mov	 esi, esp
  01b3b	8d 8d 60 ff ff
	ff		 lea	 ecx, DWORD PTR _strParam$[ebp]
  01b41	ff 15 00 00 00
	00		 call	 DWORD PTR __imp_??0?$basic_string@DU?$char_traits@D@std@@V?$allocator@D@2@@std@@QAE@XZ
  01b47	3b f4		 cmp	 esi, esp
  01b49	e8 00 00 00 00	 call	 __RTC_CheckEsp
  01b4e	c6 45 fc 04	 mov	 BYTE PTR __$EHRec$[ebp+8], 4

; 213  : 	YL_StringUtil::Format (strParam, "param=%s", strUrl.c_str ());

  01b52	8b f4		 mov	 esi, esp
  01b54	8d 4d 84	 lea	 ecx, DWORD PTR _strUrl$[ebp]
  01b57	ff 15 00 00 00
	00		 call	 DWORD PTR __imp_?c_str@?$basic_string@DU?$char_traits@D@std@@V?$allocator@D@2@@std@@QBEPBDXZ
  01b5d	3b f4		 cmp	 esi, esp
  01b5f	e8 00 00 00 00	 call	 __RTC_CheckEsp
  01b64	50		 push	 eax
  01b65	68 00 00 00 00	 push	 OFFSET FLAT:$SG191772
  01b6a	8d 85 60 ff ff
	ff		 lea	 eax, DWORD PTR _strParam$[ebp]
  01b70	50		 push	 eax
  01b71	e8 00 00 00 00	 call	 ?Format@YL_StringUtil@@SA_NAAV?$basic_string@DU?$char_traits@D@std@@V?$allocator@D@2@@std@@PBDZZ ; YL_StringUtil::Format
  01b76	83 c4 0c	 add	 esp, 12			; 0000000cH

; 214  : 
; 215  : 	TAB_ITEM tItem;

  01b79	8d 8d 1c ff ff
	ff		 lea	 ecx, DWORD PTR _tItem$[ebp]
  01b7f	e8 00 00 00 00	 call	 ??0TAB_ITEM@@QAE@XZ
  01b84	c6 45 fc 05	 mov	 BYTE PTR __$EHRec$[ebp+8], 5

; 216  : 	tItem.eumType = TAB_WEB;

  01b88	c7 85 38 ff ff
	ff 02 00 00 00	 mov	 DWORD PTR _tItem$[ebp+28], 2

; 217  : 	tItem.strName = strName;

  01b92	8b f4		 mov	 esi, esp
  01b94	8d 4d a8	 lea	 ecx, DWORD PTR _strName$[ebp]
  01b97	51		 push	 ecx
  01b98	8d 8d 1c ff ff
	ff		 lea	 ecx, DWORD PTR _tItem$[ebp]
  01b9e	ff 15 00 00 00
	00		 call	 DWORD PTR __imp_??4?$basic_string@DU?$char_traits@D@std@@V?$allocator@D@2@@std@@QAEAAV01@ABV01@@Z
  01ba4	3b f4		 cmp	 esi, esp
  01ba6	e8 00 00 00 00	 call	 __RTC_CheckEsp

; 218  : 	tItem.strParam = strParam;

  01bab	8b f4		 mov	 esi, esp
  01bad	8d 95 60 ff ff
	ff		 lea	 edx, DWORD PTR _strParam$[ebp]
  01bb3	52		 push	 edx
  01bb4	8d 8d 3c ff ff
	ff		 lea	 ecx, DWORD PTR _tItem$[ebp+32]
  01bba	ff 15 00 00 00
	00		 call	 DWORD PTR __imp_??4?$basic_string@DU?$char_traits@D@std@@V?$allocator@D@2@@std@@QAEAAV01@ABV01@@Z
  01bc0	3b f4		 cmp	 esi, esp
  01bc2	e8 00 00 00 00	 call	 __RTC_CheckEsp

; 219  : 
; 220  : 	GLOBAL_TABBARDATA->ITabBar_ChangeTab(tItem);

  01bc7	e8 00 00 00 00	 call	 ?AfxGetDataManager2@@YAPAVIDataManager@@XZ ; AfxGetDataManager2
  01bcc	89 85 ec fe ff
	ff		 mov	 DWORD PTR tv170[ebp], eax
  01bd2	8b f4		 mov	 esi, esp
  01bd4	68 00 00 00 00	 push	 OFFSET FLAT:_ID_DATA_TABBAR
  01bd9	8b 85 ec fe ff
	ff		 mov	 eax, DWORD PTR tv170[ebp]
  01bdf	8b 10		 mov	 edx, DWORD PTR [eax]
  01be1	8b 8d ec fe ff
	ff		 mov	 ecx, DWORD PTR tv170[ebp]
  01be7	ff 52 0c	 call	 DWORD PTR [edx+12]
  01bea	3b f4		 cmp	 esi, esp
  01bec	e8 00 00 00 00	 call	 __RTC_CheckEsp
  01bf1	89 85 e8 fe ff
	ff		 mov	 DWORD PTR tv176[ebp], eax
  01bf7	8b f4		 mov	 esi, esp
  01bf9	8d 85 1c ff ff
	ff		 lea	 eax, DWORD PTR _tItem$[ebp]
  01bff	50		 push	 eax
  01c00	8b 8d e8 fe ff
	ff		 mov	 ecx, DWORD PTR tv176[ebp]
  01c06	8b 11		 mov	 edx, DWORD PTR [ecx]
  01c08	8b 8d e8 fe ff
	ff		 mov	 ecx, DWORD PTR tv176[ebp]
  01c0e	ff 52 0c	 call	 DWORD PTR [edx+12]
  01c11	3b f4		 cmp	 esi, esp
  01c13	e8 00 00 00 00	 call	 __RTC_CheckEsp

; 221  : 
; 222  : 	return "";

  01c18	8b f4		 mov	 esi, esp
  01c1a	68 00 00 00 00	 push	 OFFSET FLAT:$SG191775
  01c1f	8b 4d 08	 mov	 ecx, DWORD PTR ___$ReturnUdt$[ebp]
  01c22	ff 15 00 00 00
	00		 call	 DWORD PTR __imp_??0?$basic_string@DU?$char_traits@D@std@@V?$allocator@D@2@@std@@QAE@PBD@Z
  01c28	3b f4		 cmp	 esi, esp
  01c2a	e8 00 00 00 00	 call	 __RTC_CheckEsp
  01c2f	8b 85 08 ff ff
	ff		 mov	 eax, DWORD PTR $T193375[ebp]
  01c35	83 c8 01	 or	 eax, 1
  01c38	89 85 08 ff ff
	ff		 mov	 DWORD PTR $T193375[ebp], eax
  01c3e	c6 45 fc 04	 mov	 BYTE PTR __$EHRec$[ebp+8], 4
  01c42	8d 8d 1c ff ff
	ff		 lea	 ecx, DWORD PTR _tItem$[ebp]
  01c48	e8 00 00 00 00	 call	 ??1TAB_ITEM@@QAE@XZ
  01c4d	c6 45 fc 03	 mov	 BYTE PTR __$EHRec$[ebp+8], 3
  01c51	8b f4		 mov	 esi, esp
  01c53	8d 8d 60 ff ff
	ff		 lea	 ecx, DWORD PTR _strParam$[ebp]
  01c59	ff 15 00 00 00
	00		 call	 DWORD PTR __imp_??1?$basic_string@DU?$char_traits@D@std@@V?$allocator@D@2@@std@@QAE@XZ
  01c5f	3b f4		 cmp	 esi, esp
  01c61	e8 00 00 00 00	 call	 __RTC_CheckEsp
  01c66	c6 45 fc 02	 mov	 BYTE PTR __$EHRec$[ebp+8], 2
  01c6a	8b f4		 mov	 esi, esp
  01c6c	8d 4d 84	 lea	 ecx, DWORD PTR _strUrl$[ebp]
  01c6f	ff 15 00 00 00
	00		 call	 DWORD PTR __imp_??1?$basic_string@DU?$char_traits@D@std@@V?$allocator@D@2@@std@@QAE@XZ
  01c75	3b f4		 cmp	 esi, esp
  01c77	e8 00 00 00 00	 call	 __RTC_CheckEsp
  01c7c	c6 45 fc 01	 mov	 BYTE PTR __$EHRec$[ebp+8], 1
  01c80	8b f4		 mov	 esi, esp
  01c82	8d 4d a8	 lea	 ecx, DWORD PTR _strName$[ebp]
  01c85	ff 15 00 00 00
	00		 call	 DWORD PTR __imp_??1?$basic_string@DU?$char_traits@D@std@@V?$allocator@D@2@@std@@QAE@XZ
  01c8b	3b f4		 cmp	 esi, esp
  01c8d	e8 00 00 00 00	 call	 __RTC_CheckEsp
  01c92	c6 45 fc 00	 mov	 BYTE PTR __$EHRec$[ebp+8], 0
  01c96	8b f4		 mov	 esi, esp
  01c98	8d 4d cc	 lea	 ecx, DWORD PTR _strID$[ebp]
  01c9b	ff 15 00 00 00
	00		 call	 DWORD PTR __imp_??1?$basic_string@DU?$char_traits@D@std@@V?$allocator@D@2@@std@@QAE@XZ
  01ca1	3b f4		 cmp	 esi, esp
  01ca3	e8 00 00 00 00	 call	 __RTC_CheckEsp
  01ca8	8b 45 08	 mov	 eax, DWORD PTR ___$ReturnUdt$[ebp]

; 223  : }

  01cab	52		 push	 edx
  01cac	8b cd		 mov	 ecx, ebp
  01cae	50		 push	 eax
  01caf	8d 15 00 00 00
	00		 lea	 edx, DWORD PTR $L193387
  01cb5	e8 00 00 00 00	 call	 @_RTC_CheckStackVars@8
  01cba	58		 pop	 eax
  01cbb	5a		 pop	 edx
  01cbc	8b 4d f4	 mov	 ecx, DWORD PTR __$EHRec$[ebp]
  01cbf	64 89 0d 00 00
	00 00		 mov	 DWORD PTR fs:__except_list, ecx
  01cc6	8b 4d f0	 mov	 ecx, DWORD PTR __$ArrayPad$[ebp]
  01cc9	e8 00 00 00 00	 call	 @__security_check_cookie@4
  01cce	5f		 pop	 edi
  01ccf	5e		 pop	 esi
  01cd0	81 c4 18 01 00
	00		 add	 esp, 280		; 00000118H
  01cd6	3b ec		 cmp	 ebp, esp
  01cd8	e8 00 00 00 00	 call	 __RTC_CheckEsp
  01cdd	8b e5		 mov	 esp, ebp
  01cdf	5d		 pop	 ebp
  01ce0	c2 08 00	 ret	 8
$L193387:
  01ce3	05 00 00 00	 DD	 5
  01ce7	00 00 00 00	 DD	 $L193386
$L193386:
  01ceb	cc ff ff ff	 DD	 -52			; ffffffccH
  01cef	1c 00 00 00	 DD	 28			; 0000001cH
  01cf3	00 00 00 00	 DD	 $L193379
  01cf7	a8 ff ff ff	 DD	 -88			; ffffffa8H
  01cfb	1c 00 00 00	 DD	 28			; 0000001cH
  01cff	00 00 00 00	 DD	 $L193380
  01d03	84 ff ff ff	 DD	 -124			; ffffff84H
  01d07	1c 00 00 00	 DD	 28			; 0000001cH
  01d0b	00 00 00 00	 DD	 $L193381
  01d0f	60 ff ff ff	 DD	 -160			; ffffff60H
  01d13	1c 00 00 00	 DD	 28			; 0000001cH
  01d17	00 00 00 00	 DD	 $L193382
  01d1b	1c ff ff ff	 DD	 -228			; ffffff1cH
  01d1f	3c 00 00 00	 DD	 60			; 0000003cH
  01d23	00 00 00 00	 DD	 $L193383
$L193383:
  01d27	74		 DB	 116			; 00000074H
  01d28	49		 DB	 73			; 00000049H
  01d29	74		 DB	 116			; 00000074H
  01d2a	65		 DB	 101			; 00000065H
  01d2b	6d		 DB	 109			; 0000006dH
  01d2c	00		 DB	 0
$L193382:
  01d2d	73		 DB	 115			; 00000073H
  01d2e	74		 DB	 116			; 00000074H
  01d2f	72		 DB	 114			; 00000072H
  01d30	50		 DB	 80			; 00000050H
  01d31	61		 DB	 97			; 00000061H
  01d32	72		 DB	 114			; 00000072H
  01d33	61		 DB	 97			; 00000061H
  01d34	6d		 DB	 109			; 0000006dH
  01d35	00		 DB	 0
$L193381:
  01d36	73		 DB	 115			; 00000073H
  01d37	74		 DB	 116			; 00000074H
  01d38	72		 DB	 114			; 00000072H
  01d39	55		 DB	 85			; 00000055H
  01d3a	72		 DB	 114			; 00000072H
  01d3b	6c		 DB	 108			; 0000006cH
  01d3c	00		 DB	 0
$L193380:
  01d3d	73		 DB	 115			; 00000073H
  01d3e	74		 DB	 116			; 00000074H
  01d3f	72		 DB	 114			; 00000072H
  01d40	4e		 DB	 78			; 0000004eH
  01d41	61		 DB	 97			; 00000061H
  01d42	6d		 DB	 109			; 0000006dH
  01d43	65		 DB	 101			; 00000065H
  01d44	00		 DB	 0
$L193379:
  01d45	73		 DB	 115			; 00000073H
  01d46	74		 DB	 116			; 00000074H
  01d47	72		 DB	 114			; 00000072H
  01d48	49		 DB	 73			; 00000049H
  01d49	44		 DB	 68			; 00000044H
  01d4a	00		 DB	 0
_TEXT	ENDS
text$x	SEGMENT
$L193367:
  00383	8b f4		 mov	 esi, esp
  00385	8d 4d cc	 lea	 ecx, DWORD PTR _strID$[ebp]
  00388	ff 15 00 00 00
	00		 call	 DWORD PTR __imp_??1?$basic_string@DU?$char_traits@D@std@@V?$allocator@D@2@@std@@QAE@XZ
  0038e	3b f4		 cmp	 esi, esp
  00390	e9 00 00 00 00	 jmp	 __RTC_CheckEsp
$L193369:
  00395	8b f4		 mov	 esi, esp
  00397	8d 4d a8	 lea	 ecx, DWORD PTR _strName$[ebp]
  0039a	ff 15 00 00 00
	00		 call	 DWORD PTR __imp_??1?$basic_string@DU?$char_traits@D@std@@V?$allocator@D@2@@std@@QAE@XZ
  003a0	3b f4		 cmp	 esi, esp
  003a2	e9 00 00 00 00	 jmp	 __RTC_CheckEsp
$L193371:
  003a7	8b f4		 mov	 esi, esp
  003a9	8d 4d 84	 lea	 ecx, DWORD PTR _strUrl$[ebp]
  003ac	ff 15 00 00 00
	00		 call	 DWORD PTR __imp_??1?$basic_string@DU?$char_traits@D@std@@V?$allocator@D@2@@std@@QAE@XZ
  003b2	3b f4		 cmp	 esi, esp
  003b4	e9 00 00 00 00	 jmp	 __RTC_CheckEsp
$L193372:
  003b9	8b f4		 mov	 esi, esp
  003bb	8d 8d 60 ff ff
	ff		 lea	 ecx, DWORD PTR _strParam$[ebp]
  003c1	ff 15 00 00 00
	00		 call	 DWORD PTR __imp_??1?$basic_string@DU?$char_traits@D@std@@V?$allocator@D@2@@std@@QAE@XZ
  003c7	3b f4		 cmp	 esi, esp
  003c9	e9 00 00 00 00	 jmp	 __RTC_CheckEsp
$L193373:
  003ce	8d 8d 1c ff ff
	ff		 lea	 ecx, DWORD PTR _tItem$[ebp]
  003d4	e9 00 00 00 00	 jmp	 ??1TAB_ITEM@@QAE@XZ
$L193374:
  003d9	8b 85 08 ff ff
	ff		 mov	 eax, DWORD PTR $T193375[ebp]
  003df	83 e0 01	 and	 eax, 1
  003e2	0f 84 19 00 00
	00		 je	 $L193376
  003e8	83 a5 08 ff ff
	ff fe		 and	 DWORD PTR $T193375[ebp], -2 ; fffffffeH
  003ef	8b f4		 mov	 esi, esp
  003f1	8b 4d 08	 mov	 ecx, DWORD PTR ___$ReturnUdt$[ebp]
  003f4	ff 15 00 00 00
	00		 call	 DWORD PTR __imp_??1?$basic_string@DU?$char_traits@D@std@@V?$allocator@D@2@@std@@QAE@XZ
  003fa	3b f4		 cmp	 esi, esp
  003fc	e9 00 00 00 00	 jmp	 __RTC_CheckEsp
$L193376:
  00401	c3		 ret	 0
__ehhandler$?_command_opennewtab@CWebManager@@AAE?AV?$basic_string@DU?$char_traits@D@std@@V?$allocator@D@2@@std@@AAV23@@Z:
  00402	b8 00 00 00 00	 mov	 eax, OFFSET FLAT:$T193378
  00407	e9 00 00 00 00	 jmp	 ___CxxFrameHandler
text$x	ENDS
?_command_opennewtab@CWebManager@@AAE?AV?$basic_string@DU?$char_traits@D@std@@V?$allocator@D@2@@std@@AAV23@@Z ENDP ; CWebManager::_command_opennewtab
PUBLIC	??0?$vector@UTAB_ITEM@@V?$allocator@UTAB_ITEM@@@std@@@std@@QAE@XZ ; std::vector<TAB_ITEM,std::allocator<TAB_ITEM> >::vector<TAB_ITEM,std::allocator<TAB_ITEM> >
PUBLIC	??1?$vector@UTAB_ITEM@@V?$allocator@UTAB_ITEM@@@std@@@std@@QAE@XZ ; std::vector<TAB_ITEM,std::allocator<TAB_ITEM> >::~vector<TAB_ITEM,std::allocator<TAB_ITEM> >
PUBLIC	??0OneLocalGame@@QAE@XZ				; OneLocalGame::OneLocalGame
PUBLIC	??1OneLocalGame@@QAE@XZ				; OneLocalGame::~OneLocalGame
PUBLIC	??0CallJSParam@@QAE@XZ				; CallJSParam::CallJSParam
PUBLIC	??_GCallJSParam@@QAEPAXI@Z			; CallJSParam::`scalar deleting destructor'
EXTRN	__imp_??4?$basic_string@DU?$char_traits@D@std@@V?$allocator@D@2@@std@@QAEAAV01@PBD@Z:NEAR
EXTRN	?GetInstance@CTabPageControl@@SAPAV1@XZ:NEAR	; CTabPageControl::GetInstance
EXTRN	?CallJS@CTabPageControl@@QAEXPAX@Z:NEAR		; CTabPageControl::CallJS
EXTRN	_memset:NEAR
xdata$x	SEGMENT
$T193423 DD	0ffffffffH
	DD	FLAT:$L193410
	DD	00H
	DD	FLAT:$L193404
	DD	01H
	DD	FLAT:$L193405
	DD	02H
	DD	FLAT:$L193406
	DD	02H
	DD	FLAT:$L193407
	DD	04H
	DD	FLAT:$L193408
	DD	05H
	DD	FLAT:$L193409
$T193414 DD	019930520H
	DD	07H
	DD	FLAT:$T193423
	DD	2 DUP(00H)
	DD	2 DUP(00H)
; Function compile flags: /Odt /RTCsu
xdata$x	ENDS
_TEXT	SEGMENT
tv193 = -348						; size = 4
tv174 = -344						; size = 4
tv163 = -340						; size = 4
tv157 = -336						; size = 4
tv149 = -332						; size = 4
tv206 = -325						; size = 1
tv128 = -324						; size = 4
tv90 = -320						; size = 4
tv205 = -316						; size = 4
tv84 = -312						; size = 4
tv200 = -308						; size = 4
tv199 = -304						; size = 4
$T193411 = -300						; size = 4
$T193400 = -296						; size = 4
$T193399 = -292						; size = 4
$T193396 = -288						; size = 4
$T193395 = -284						; size = 4
$T193392 = -280						; size = 4
$T193391 = -276						; size = 4
_pParam$ = -272						; size = 4
_vTab$ = -264						; size = 16
_strStatus$ = -240					; size = 28
_olg$ = -204						; size = 144
_strID$ = -52						; size = 28
_this$ = -20						; size = 4
__$ArrayPad$ = -16					; size = 4
__$EHRec$ = -12						; size = 12
__$ReturnAddr$ = 4					; size = 4
___$ReturnUdt$ = 8					; size = 4
_strContent$ = 12					; size = 4
?_command_checkdlstatus@CWebManager@@AAE?AV?$basic_string@DU?$char_traits@D@std@@V?$allocator@D@2@@std@@AAV23@@Z PROC NEAR ; CWebManager::_command_checkdlstatus
; _this$ = ecx

; 226  : {

  01d50	55		 push	 ebp
  01d51	8b ec		 mov	 ebp, esp
  01d53	6a ff		 push	 -1
  01d55	68 00 00 00 00	 push	 __ehhandler$?_command_checkdlstatus@CWebManager@@AAE?AV?$basic_string@DU?$char_traits@D@std@@V?$allocator@D@2@@std@@AAV23@@Z
  01d5a	64 a1 00 00 00
	00		 mov	 eax, DWORD PTR fs:__except_list
  01d60	50		 push	 eax
  01d61	64 89 25 00 00
	00 00		 mov	 DWORD PTR fs:__except_list, esp
  01d68	81 ec 50 01 00
	00		 sub	 esp, 336		; 00000150H
  01d6e	56		 push	 esi
  01d6f	57		 push	 edi
  01d70	51		 push	 ecx
  01d71	8d bd a4 fe ff
	ff		 lea	 edi, DWORD PTR [ebp-348]
  01d77	b9 54 00 00 00	 mov	 ecx, 84			; 00000054H
  01d7c	b8 cc cc cc cc	 mov	 eax, -858993460		; ccccccccH
  01d81	f3 ab		 rep stosd
  01d83	59		 pop	 ecx
  01d84	a1 00 00 00 00	 mov	 eax, DWORD PTR ___security_cookie
  01d89	89 45 f0	 mov	 DWORD PTR __$ArrayPad$[ebp], eax
  01d8c	89 4d ec	 mov	 DWORD PTR _this$[ebp], ecx
  01d8f	c7 85 d4 fe ff
	ff 00 00 00 00	 mov	 DWORD PTR $T193411[ebp], 0

; 227  : 	string strID = GetValue (strContent, "id");

  01d99	83 ec 1c	 sub	 esp, 28			; 0000001cH
  01d9c	8b cc		 mov	 ecx, esp
  01d9e	89 a5 ec fe ff
	ff		 mov	 DWORD PTR $T193391[ebp], esp
  01da4	8b f4		 mov	 esi, esp
  01da6	68 00 00 00 00	 push	 OFFSET FLAT:$SG191784
  01dab	ff 15 00 00 00
	00		 call	 DWORD PTR __imp_??0?$basic_string@DU?$char_traits@D@std@@V?$allocator@D@2@@std@@QAE@PBD@Z
  01db1	3b f4		 cmp	 esi, esp
  01db3	e8 00 00 00 00	 call	 __RTC_CheckEsp
  01db8	89 85 d0 fe ff
	ff		 mov	 DWORD PTR tv199[ebp], eax
  01dbe	8b 45 0c	 mov	 eax, DWORD PTR _strContent$[ebp]
  01dc1	50		 push	 eax
  01dc2	8d 4d cc	 lea	 ecx, DWORD PTR _strID$[ebp]
  01dc5	51		 push	 ecx
  01dc6	8b 4d ec	 mov	 ecx, DWORD PTR _this$[ebp]
  01dc9	e8 00 00 00 00	 call	 ?GetValue@CWebManager@@QAE?AV?$basic_string@DU?$char_traits@D@std@@V?$allocator@D@2@@std@@AAV23@V23@@Z ; CWebManager::GetValue
  01dce	89 85 cc fe ff
	ff		 mov	 DWORD PTR tv200[ebp], eax
  01dd4	c7 45 fc 01 00
	00 00		 mov	 DWORD PTR __$EHRec$[ebp+8], 1

; 228  : 
; 229  : 	OneLocalGame olg;

  01ddb	8d 8d 34 ff ff
	ff		 lea	 ecx, DWORD PTR _olg$[ebp]
  01de1	e8 00 00 00 00	 call	 ??0OneLocalGame@@QAE@XZ	; OneLocalGame::OneLocalGame
  01de6	c6 45 fc 02	 mov	 BYTE PTR __$EHRec$[ebp+8], 2

; 230  : 
; 231  : 	string strStatus  = 
; 232  : 		GLOBAL_LOCALGAME->ILocalGameData_GetGameByID (strID, olg) ? "run" : "download";

  01dea	8d 95 34 ff ff
	ff		 lea	 edx, DWORD PTR _olg$[ebp]
  01df0	52		 push	 edx
  01df1	83 ec 1c	 sub	 esp, 28			; 0000001cH
  01df4	8b cc		 mov	 ecx, esp
  01df6	89 a5 e8 fe ff
	ff		 mov	 DWORD PTR $T193392[ebp], esp
  01dfc	8b f4		 mov	 esi, esp
  01dfe	8d 45 cc	 lea	 eax, DWORD PTR _strID$[ebp]
  01e01	50		 push	 eax
  01e02	ff 15 00 00 00
	00		 call	 DWORD PTR __imp_??0?$basic_string@DU?$char_traits@D@std@@V?$allocator@D@2@@std@@QAE@ABV01@@Z
  01e08	3b f4		 cmp	 esi, esp
  01e0a	e8 00 00 00 00	 call	 __RTC_CheckEsp
  01e0f	89 85 c8 fe ff
	ff		 mov	 DWORD PTR tv84[ebp], eax
  01e15	8b 8d c8 fe ff
	ff		 mov	 ecx, DWORD PTR tv84[ebp]
  01e1b	89 8d c4 fe ff
	ff		 mov	 DWORD PTR tv205[ebp], ecx
  01e21	c6 45 fc 03	 mov	 BYTE PTR __$EHRec$[ebp+8], 3
  01e25	e8 00 00 00 00	 call	 ?AfxGetDataManager2@@YAPAVIDataManager@@XZ ; AfxGetDataManager2
  01e2a	89 85 c0 fe ff
	ff		 mov	 DWORD PTR tv90[ebp], eax
  01e30	8b f4		 mov	 esi, esp
  01e32	68 00 00 00 00	 push	 OFFSET FLAT:_ID_DATA_LOCALGAME
  01e37	8b 95 c0 fe ff
	ff		 mov	 edx, DWORD PTR tv90[ebp]
  01e3d	8b 02		 mov	 eax, DWORD PTR [edx]
  01e3f	8b 8d c0 fe ff
	ff		 mov	 ecx, DWORD PTR tv90[ebp]
  01e45	ff 50 0c	 call	 DWORD PTR [eax+12]
  01e48	3b f4		 cmp	 esi, esp
  01e4a	e8 00 00 00 00	 call	 __RTC_CheckEsp
  01e4f	89 85 bc fe ff
	ff		 mov	 DWORD PTR tv128[ebp], eax
  01e55	8b 8d bc fe ff
	ff		 mov	 ecx, DWORD PTR tv128[ebp]
  01e5b	8b 11		 mov	 edx, DWORD PTR [ecx]
  01e5d	c6 45 fc 02	 mov	 BYTE PTR __$EHRec$[ebp+8], 2
  01e61	8b 8d bc fe ff
	ff		 mov	 ecx, DWORD PTR tv128[ebp]
  01e67	ff 52 0c	 call	 DWORD PTR [edx+12]
  01e6a	88 85 bb fe ff
	ff		 mov	 BYTE PTR tv206[ebp], al
  01e70	0f b6 85 bb fe
	ff ff		 movzx	 eax, BYTE PTR tv206[ebp]
  01e77	85 c0		 test	 eax, eax
  01e79	74 0c		 je	 SHORT $L193393
  01e7b	c7 85 b4 fe ff
	ff 00 00 00 00	 mov	 DWORD PTR tv149[ebp], OFFSET FLAT:$SG191789
  01e85	eb 0a		 jmp	 SHORT $L193394
$L193393:
  01e87	c7 85 b4 fe ff
	ff 00 00 00 00	 mov	 DWORD PTR tv149[ebp], OFFSET FLAT:$SG191790
$L193394:
  01e91	8b f4		 mov	 esi, esp
  01e93	8b 8d b4 fe ff
	ff		 mov	 ecx, DWORD PTR tv149[ebp]
  01e99	51		 push	 ecx
  01e9a	8d 8d 10 ff ff
	ff		 lea	 ecx, DWORD PTR _strStatus$[ebp]
  01ea0	ff 15 00 00 00
	00		 call	 DWORD PTR __imp_??0?$basic_string@DU?$char_traits@D@std@@V?$allocator@D@2@@std@@QAE@PBD@Z
  01ea6	3b f4		 cmp	 esi, esp
  01ea8	e8 00 00 00 00	 call	 __RTC_CheckEsp
  01ead	c6 45 fc 04	 mov	 BYTE PTR __$EHRec$[ebp+8], 4

; 233  : 
; 234  : 	vector<TAB_ITEM> vTab;

  01eb1	8d 8d f8 fe ff
	ff		 lea	 ecx, DWORD PTR _vTab$[ebp]
  01eb7	e8 00 00 00 00	 call	 ??0?$vector@UTAB_ITEM@@V?$allocator@UTAB_ITEM@@@std@@@std@@QAE@XZ ; std::vector<TAB_ITEM,std::allocator<TAB_ITEM> >::vector<TAB_ITEM,std::allocator<TAB_ITEM> >
  01ebc	c6 45 fc 05	 mov	 BYTE PTR __$EHRec$[ebp+8], 5

; 235  : 	GLOBAL_TABBARDATA->ITabBar_GetTabBarData (vTab);

  01ec0	e8 00 00 00 00	 call	 ?AfxGetDataManager2@@YAPAVIDataManager@@XZ ; AfxGetDataManager2
  01ec5	89 85 b0 fe ff
	ff		 mov	 DWORD PTR tv157[ebp], eax
  01ecb	8b f4		 mov	 esi, esp
  01ecd	68 00 00 00 00	 push	 OFFSET FLAT:_ID_DATA_TABBAR
  01ed2	8b 95 b0 fe ff
	ff		 mov	 edx, DWORD PTR tv157[ebp]
  01ed8	8b 02		 mov	 eax, DWORD PTR [edx]
  01eda	8b 8d b0 fe ff
	ff		 mov	 ecx, DWORD PTR tv157[ebp]
  01ee0	ff 50 0c	 call	 DWORD PTR [eax+12]
  01ee3	3b f4		 cmp	 esi, esp
  01ee5	e8 00 00 00 00	 call	 __RTC_CheckEsp
  01eea	89 85 ac fe ff
	ff		 mov	 DWORD PTR tv163[ebp], eax
  01ef0	8b f4		 mov	 esi, esp
  01ef2	8d 8d f8 fe ff
	ff		 lea	 ecx, DWORD PTR _vTab$[ebp]
  01ef8	51		 push	 ecx
  01ef9	8b 95 ac fe ff
	ff		 mov	 edx, DWORD PTR tv163[ebp]
  01eff	8b 02		 mov	 eax, DWORD PTR [edx]
  01f01	8b 8d ac fe ff
	ff		 mov	 ecx, DWORD PTR tv163[ebp]
  01f07	ff 50 1c	 call	 DWORD PTR [eax+28]
  01f0a	3b f4		 cmp	 esi, esp
  01f0c	e8 00 00 00 00	 call	 __RTC_CheckEsp

; 236  : 
; 237  : 	CallJSParam * pParam = new CallJSParam;

  01f11	6a 74		 push	 116			; 00000074H
  01f13	e8 00 00 00 00	 call	 ??2@YAPAXI@Z		; operator new
  01f18	83 c4 04	 add	 esp, 4
  01f1b	89 85 e0 fe ff
	ff		 mov	 DWORD PTR $T193396[ebp], eax
  01f21	c6 45 fc 06	 mov	 BYTE PTR __$EHRec$[ebp+8], 6
  01f25	83 bd e0 fe ff
	ff 00		 cmp	 DWORD PTR $T193396[ebp], 0
  01f2c	74 13		 je	 SHORT $L193397
  01f2e	8b 8d e0 fe ff
	ff		 mov	 ecx, DWORD PTR $T193396[ebp]
  01f34	e8 00 00 00 00	 call	 ??0CallJSParam@@QAE@XZ
  01f39	89 85 a8 fe ff
	ff		 mov	 DWORD PTR tv174[ebp], eax
  01f3f	eb 0a		 jmp	 SHORT $L193398
$L193397:
  01f41	c7 85 a8 fe ff
	ff 00 00 00 00	 mov	 DWORD PTR tv174[ebp], 0
$L193398:
  01f4b	8b 8d a8 fe ff
	ff		 mov	 ecx, DWORD PTR tv174[ebp]
  01f51	89 8d e4 fe ff
	ff		 mov	 DWORD PTR $T193395[ebp], ecx
  01f57	c6 45 fc 05	 mov	 BYTE PTR __$EHRec$[ebp+8], 5
  01f5b	8b 95 e4 fe ff
	ff		 mov	 edx, DWORD PTR $T193395[ebp]
  01f61	89 95 f0 fe ff
	ff		 mov	 DWORD PTR _pParam$[ebp], edx

; 238  : 	memset (pParam, 0, sizeof (CallJSParam));

  01f67	6a 74		 push	 116			; 00000074H
  01f69	6a 00		 push	 0
  01f6b	8b 85 f0 fe ff
	ff		 mov	 eax, DWORD PTR _pParam$[ebp]
  01f71	50		 push	 eax
  01f72	e8 00 00 00 00	 call	 _memset
  01f77	83 c4 0c	 add	 esp, 12			; 0000000cH

; 239  : 
; 240  : 	pParam->strFunc = "setdownloadpic";

  01f7a	8b f4		 mov	 esi, esp
  01f7c	68 00 00 00 00	 push	 OFFSET FLAT:$SG191800
  01f81	8b 8d f0 fe ff
	ff		 mov	 ecx, DWORD PTR _pParam$[ebp]
  01f87	83 c1 04	 add	 ecx, 4
  01f8a	ff 15 00 00 00
	00		 call	 DWORD PTR __imp_??4?$basic_string@DU?$char_traits@D@std@@V?$allocator@D@2@@std@@QAEAAV01@PBD@Z
  01f90	3b f4		 cmp	 esi, esp
  01f92	e8 00 00 00 00	 call	 __RTC_CheckEsp

; 241  : 	pParam->nParam = 2;

  01f97	8b 8d f0 fe ff
	ff		 mov	 ecx, DWORD PTR _pParam$[ebp]
  01f9d	c7 01 02 00 00
	00		 mov	 DWORD PTR [ecx], 2

; 242  : 	pParam->strParam1 = strID;

  01fa3	8b f4		 mov	 esi, esp
  01fa5	8d 55 cc	 lea	 edx, DWORD PTR _strID$[ebp]
  01fa8	52		 push	 edx
  01fa9	8b 8d f0 fe ff
	ff		 mov	 ecx, DWORD PTR _pParam$[ebp]
  01faf	83 c1 20	 add	 ecx, 32			; 00000020H
  01fb2	ff 15 00 00 00
	00		 call	 DWORD PTR __imp_??4?$basic_string@DU?$char_traits@D@std@@V?$allocator@D@2@@std@@QAEAAV01@ABV01@@Z
  01fb8	3b f4		 cmp	 esi, esp
  01fba	e8 00 00 00 00	 call	 __RTC_CheckEsp

; 243  : 	pParam->strParam2 = strStatus;

  01fbf	8b f4		 mov	 esi, esp
  01fc1	8d 85 10 ff ff
	ff		 lea	 eax, DWORD PTR _strStatus$[ebp]
  01fc7	50		 push	 eax
  01fc8	8b 8d f0 fe ff
	ff		 mov	 ecx, DWORD PTR _pParam$[ebp]
  01fce	83 c1 3c	 add	 ecx, 60			; 0000003cH
  01fd1	ff 15 00 00 00
	00		 call	 DWORD PTR __imp_??4?$basic_string@DU?$char_traits@D@std@@V?$allocator@D@2@@std@@QAEAAV01@ABV01@@Z
  01fd7	3b f4		 cmp	 esi, esp
  01fd9	e8 00 00 00 00	 call	 __RTC_CheckEsp

; 244  : 
; 245  : 	CTabPageControl::GetInstance ()->CallJS ((LPVOID)pParam);

  01fde	8b 8d f0 fe ff
	ff		 mov	 ecx, DWORD PTR _pParam$[ebp]
  01fe4	51		 push	 ecx
  01fe5	e8 00 00 00 00	 call	 ?GetInstance@CTabPageControl@@SAPAV1@XZ ; CTabPageControl::GetInstance
  01fea	8b c8		 mov	 ecx, eax
  01fec	e8 00 00 00 00	 call	 ?CallJS@CTabPageControl@@QAEXPAX@Z ; CTabPageControl::CallJS

; 246  : 
; 247  : 	delete pParam;

  01ff1	8b 95 f0 fe ff
	ff		 mov	 edx, DWORD PTR _pParam$[ebp]
  01ff7	89 95 d8 fe ff
	ff		 mov	 DWORD PTR $T193400[ebp], edx
  01ffd	8b 85 d8 fe ff
	ff		 mov	 eax, DWORD PTR $T193400[ebp]
  02003	89 85 dc fe ff
	ff		 mov	 DWORD PTR $T193399[ebp], eax
  02009	83 bd dc fe ff
	ff 00		 cmp	 DWORD PTR $T193399[ebp], 0
  02010	74 15		 je	 SHORT $L193401
  02012	6a 01		 push	 1
  02014	8b 8d dc fe ff
	ff		 mov	 ecx, DWORD PTR $T193399[ebp]
  0201a	e8 00 00 00 00	 call	 ??_GCallJSParam@@QAEPAXI@Z
  0201f	89 85 a4 fe ff
	ff		 mov	 DWORD PTR tv193[ebp], eax
  02025	eb 0a		 jmp	 SHORT $L193402
$L193401:
  02027	c7 85 a4 fe ff
	ff 00 00 00 00	 mov	 DWORD PTR tv193[ebp], 0
$L193402:

; 248  : 	pParam = NULL;

  02031	c7 85 f0 fe ff
	ff 00 00 00 00	 mov	 DWORD PTR _pParam$[ebp], 0

; 249  : 
; 250  : 	return "";

  0203b	8b f4		 mov	 esi, esp
  0203d	68 00 00 00 00	 push	 OFFSET FLAT:$SG191804
  02042	8b 4d 08	 mov	 ecx, DWORD PTR ___$ReturnUdt$[ebp]
  02045	ff 15 00 00 00
	00		 call	 DWORD PTR __imp_??0?$basic_string@DU?$char_traits@D@std@@V?$allocator@D@2@@std@@QAE@PBD@Z
  0204b	3b f4		 cmp	 esi, esp
  0204d	e8 00 00 00 00	 call	 __RTC_CheckEsp
  02052	8b 8d d4 fe ff
	ff		 mov	 ecx, DWORD PTR $T193411[ebp]
  02058	83 c9 01	 or	 ecx, 1
  0205b	89 8d d4 fe ff
	ff		 mov	 DWORD PTR $T193411[ebp], ecx
  02061	c6 45 fc 04	 mov	 BYTE PTR __$EHRec$[ebp+8], 4
  02065	8d 8d f8 fe ff
	ff		 lea	 ecx, DWORD PTR _vTab$[ebp]
  0206b	e8 00 00 00 00	 call	 ??1?$vector@UTAB_ITEM@@V?$allocator@UTAB_ITEM@@@std@@@std@@QAE@XZ ; std::vector<TAB_ITEM,std::allocator<TAB_ITEM> >::~vector<TAB_ITEM,std::allocator<TAB_ITEM> >
  02070	c6 45 fc 02	 mov	 BYTE PTR __$EHRec$[ebp+8], 2
  02074	8b f4		 mov	 esi, esp
  02076	8d 8d 10 ff ff
	ff		 lea	 ecx, DWORD PTR _strStatus$[ebp]
  0207c	ff 15 00 00 00
	00		 call	 DWORD PTR __imp_??1?$basic_string@DU?$char_traits@D@std@@V?$allocator@D@2@@std@@QAE@XZ
  02082	3b f4		 cmp	 esi, esp
  02084	e8 00 00 00 00	 call	 __RTC_CheckEsp
  02089	c6 45 fc 01	 mov	 BYTE PTR __$EHRec$[ebp+8], 1
  0208d	8d 8d 34 ff ff
	ff		 lea	 ecx, DWORD PTR _olg$[ebp]
  02093	e8 00 00 00 00	 call	 ??1OneLocalGame@@QAE@XZ
  02098	c6 45 fc 00	 mov	 BYTE PTR __$EHRec$[ebp+8], 0
  0209c	8b f4		 mov	 esi, esp
  0209e	8d 4d cc	 lea	 ecx, DWORD PTR _strID$[ebp]
  020a1	ff 15 00 00 00
	00		 call	 DWORD PTR __imp_??1?$basic_string@DU?$char_traits@D@std@@V?$allocator@D@2@@std@@QAE@XZ
  020a7	3b f4		 cmp	 esi, esp
  020a9	e8 00 00 00 00	 call	 __RTC_CheckEsp
  020ae	8b 45 08	 mov	 eax, DWORD PTR ___$ReturnUdt$[ebp]

; 251  : }

  020b1	52		 push	 edx
  020b2	8b cd		 mov	 ecx, ebp
  020b4	50		 push	 eax
  020b5	8d 15 00 00 00
	00		 lea	 edx, DWORD PTR $L193422
  020bb	e8 00 00 00 00	 call	 @_RTC_CheckStackVars@8
  020c0	58		 pop	 eax
  020c1	5a		 pop	 edx
  020c2	8b 4d f4	 mov	 ecx, DWORD PTR __$EHRec$[ebp]
  020c5	64 89 0d 00 00
	00 00		 mov	 DWORD PTR fs:__except_list, ecx
  020cc	8b 4d f0	 mov	 ecx, DWORD PTR __$ArrayPad$[ebp]
  020cf	e8 00 00 00 00	 call	 @__security_check_cookie@4
  020d4	5f		 pop	 edi
  020d5	5e		 pop	 esi
  020d6	81 c4 5c 01 00
	00		 add	 esp, 348		; 0000015cH
  020dc	3b ec		 cmp	 ebp, esp
  020de	e8 00 00 00 00	 call	 __RTC_CheckEsp
  020e3	8b e5		 mov	 esp, ebp
  020e5	5d		 pop	 ebp
  020e6	c2 08 00	 ret	 8
$L193422:
  020e9	04 00 00 00	 DD	 4
  020ed	00 00 00 00	 DD	 $L193421
$L193421:
  020f1	cc ff ff ff	 DD	 -52			; ffffffccH
  020f5	1c 00 00 00	 DD	 28			; 0000001cH
  020f9	00 00 00 00	 DD	 $L193415
  020fd	34 ff ff ff	 DD	 -204			; ffffff34H
  02101	90 00 00 00	 DD	 144			; 00000090H
  02105	00 00 00 00	 DD	 $L193416
  02109	10 ff ff ff	 DD	 -240			; ffffff10H
  0210d	1c 00 00 00	 DD	 28			; 0000001cH
  02111	00 00 00 00	 DD	 $L193417
  02115	f8 fe ff ff	 DD	 -264			; fffffef8H
  02119	10 00 00 00	 DD	 16			; 00000010H
  0211d	00 00 00 00	 DD	 $L193418
$L193418:
  02121	76		 DB	 118			; 00000076H
  02122	54		 DB	 84			; 00000054H
  02123	61		 DB	 97			; 00000061H
  02124	62		 DB	 98			; 00000062H
  02125	00		 DB	 0
$L193417:
  02126	73		 DB	 115			; 00000073H
  02127	74		 DB	 116			; 00000074H
  02128	72		 DB	 114			; 00000072H
  02129	53		 DB	 83			; 00000053H
  0212a	74		 DB	 116			; 00000074H
  0212b	61		 DB	 97			; 00000061H
  0212c	74		 DB	 116			; 00000074H
  0212d	75		 DB	 117			; 00000075H
  0212e	73		 DB	 115			; 00000073H
  0212f	00		 DB	 0
$L193416:
  02130	6f		 DB	 111			; 0000006fH
  02131	6c		 DB	 108			; 0000006cH
  02132	67		 DB	 103			; 00000067H
  02133	00		 DB	 0
$L193415:
  02134	73		 DB	 115			; 00000073H
  02135	74		 DB	 116			; 00000074H
  02136	72		 DB	 114			; 00000072H
  02137	49		 DB	 73			; 00000049H
  02138	44		 DB	 68			; 00000044H
  02139	00		 DB	 0
_TEXT	ENDS
text$x	SEGMENT
$L193404:
  0040c	8b f4		 mov	 esi, esp
  0040e	8d 4d cc	 lea	 ecx, DWORD PTR _strID$[ebp]
  00411	ff 15 00 00 00
	00		 call	 DWORD PTR __imp_??1?$basic_string@DU?$char_traits@D@std@@V?$allocator@D@2@@std@@QAE@XZ
  00417	3b f4		 cmp	 esi, esp
  00419	e9 00 00 00 00	 jmp	 __RTC_CheckEsp
$L193405:
  0041e	8d 8d 34 ff ff
	ff		 lea	 ecx, DWORD PTR _olg$[ebp]
  00424	e9 00 00 00 00	 jmp	 ??1OneLocalGame@@QAE@XZ
$L193406:
  00429	8b f4		 mov	 esi, esp
  0042b	8b 8d e8 fe ff
	ff		 mov	 ecx, DWORD PTR $T193392[ebp]
  00431	ff 15 00 00 00
	00		 call	 DWORD PTR __imp_??1?$basic_string@DU?$char_traits@D@std@@V?$allocator@D@2@@std@@QAE@XZ
  00437	3b f4		 cmp	 esi, esp
  00439	e9 00 00 00 00	 jmp	 __RTC_CheckEsp
$L193407:
  0043e	8b f4		 mov	 esi, esp
  00440	8d 8d 10 ff ff
	ff		 lea	 ecx, DWORD PTR _strStatus$[ebp]
  00446	ff 15 00 00 00
	00		 call	 DWORD PTR __imp_??1?$basic_string@DU?$char_traits@D@std@@V?$allocator@D@2@@std@@QAE@XZ
  0044c	3b f4		 cmp	 esi, esp
  0044e	e9 00 00 00 00	 jmp	 __RTC_CheckEsp
$L193408:
  00453	8d 8d f8 fe ff
	ff		 lea	 ecx, DWORD PTR _vTab$[ebp]
  00459	e9 00 00 00 00	 jmp	 ??1?$vector@UTAB_ITEM@@V?$allocator@UTAB_ITEM@@@std@@@std@@QAE@XZ ; std::vector<TAB_ITEM,std::allocator<TAB_ITEM> >::~vector<TAB_ITEM,std::allocator<TAB_ITEM> >
$L193409:
  0045e	8b 85 e0 fe ff
	ff		 mov	 eax, DWORD PTR $T193396[ebp]
  00464	50		 push	 eax
  00465	e8 00 00 00 00	 call	 ??3@YAXPAX@Z		; operator delete
  0046a	59		 pop	 ecx
  0046b	c3		 ret	 0
$L193410:
  0046c	8b 85 d4 fe ff
	ff		 mov	 eax, DWORD PTR $T193411[ebp]
  00472	83 e0 01	 and	 eax, 1
  00475	0f 84 19 00 00
	00		 je	 $L193412
  0047b	83 a5 d4 fe ff
	ff fe		 and	 DWORD PTR $T193411[ebp], -2 ; fffffffeH
  00482	8b f4		 mov	 esi, esp
  00484	8b 4d 08	 mov	 ecx, DWORD PTR ___$ReturnUdt$[ebp]
  00487	ff 15 00 00 00
	00		 call	 DWORD PTR __imp_??1?$basic_string@DU?$char_traits@D@std@@V?$allocator@D@2@@std@@QAE@XZ
  0048d	3b f4		 cmp	 esi, esp
  0048f	e9 00 00 00 00	 jmp	 __RTC_CheckEsp
$L193412:
  00494	c3		 ret	 0
__ehhandler$?_command_checkdlstatus@CWebManager@@AAE?AV?$basic_string@DU?$char_traits@D@std@@V?$allocator@D@2@@std@@AAV23@@Z:
  00495	b8 00 00 00 00	 mov	 eax, OFFSET FLAT:$T193414
  0049a	e9 00 00 00 00	 jmp	 ___CxxFrameHandler
text$x	ENDS
?_command_checkdlstatus@CWebManager@@AAE?AV?$basic_string@DU?$char_traits@D@std@@V?$allocator@D@2@@std@@AAV23@@Z ENDP ; CWebManager::_command_checkdlstatus
PUBLIC	?clear@OneLocalGame@@QAEXXZ			; OneLocalGame::clear
;	COMDAT xdata$x
; File d:\boxgit\playbox\playbox\dev\prj\playbox\src\datainterface\ilocalgamedata.h
xdata$x	SEGMENT
$T193433 DD	0ffffffffH
	DD	FLAT:$L193425
	DD	00H
	DD	FLAT:$L193426
	DD	01H
	DD	FLAT:$L193427
	DD	02H
	DD	FLAT:$L193428
	DD	03H
	DD	FLAT:$L193429
$T193431 DD	019930520H
	DD	05H
	DD	FLAT:$T193433
	DD	2 DUP(00H)
	DD	2 DUP(00H)
; Function compile flags: /Odt /RTCsu
xdata$x	ENDS
;	COMDAT ??0OneLocalGame@@QAE@XZ
_TEXT	SEGMENT
_this$ = -16						; size = 4
__$EHRec$ = -12						; size = 12
??0OneLocalGame@@QAE@XZ PROC NEAR			; OneLocalGame::OneLocalGame, COMDAT
; _this$ = ecx

; 20   : 	OneLocalGame()

  00000	55		 push	 ebp
  00001	8b ec		 mov	 ebp, esp
  00003	6a ff		 push	 -1
  00005	68 00 00 00 00	 push	 __ehhandler$??0OneLocalGame@@QAE@XZ
  0000a	64 a1 00 00 00
	00		 mov	 eax, DWORD PTR fs:__except_list
  00010	50		 push	 eax
  00011	64 89 25 00 00
	00 00		 mov	 DWORD PTR fs:__except_list, esp
  00018	51		 push	 ecx
  00019	56		 push	 esi
  0001a	c7 45 f0 cc cc
	cc cc		 mov	 DWORD PTR [ebp-16], -858993460 ; ccccccccH
  00021	89 4d f0	 mov	 DWORD PTR _this$[ebp], ecx
  00024	8b f4		 mov	 esi, esp
  00026	8b 4d f0	 mov	 ecx, DWORD PTR _this$[ebp]
  00029	ff 15 00 00 00
	00		 call	 DWORD PTR __imp_??0?$basic_string@DU?$char_traits@D@std@@V?$allocator@D@2@@std@@QAE@XZ
  0002f	3b f4		 cmp	 esi, esp
  00031	e8 00 00 00 00	 call	 __RTC_CheckEsp
  00036	c7 45 fc 00 00
	00 00		 mov	 DWORD PTR __$EHRec$[ebp+8], 0
  0003d	8b 4d f0	 mov	 ecx, DWORD PTR _this$[ebp]
  00040	83 c1 1c	 add	 ecx, 28			; 0000001cH
  00043	8b f4		 mov	 esi, esp
  00045	ff 15 00 00 00
	00		 call	 DWORD PTR __imp_??0?$basic_string@DU?$char_traits@D@std@@V?$allocator@D@2@@std@@QAE@XZ
  0004b	3b f4		 cmp	 esi, esp
  0004d	e8 00 00 00 00	 call	 __RTC_CheckEsp
  00052	c6 45 fc 01	 mov	 BYTE PTR __$EHRec$[ebp+8], 1
  00056	8b 4d f0	 mov	 ecx, DWORD PTR _this$[ebp]
  00059	83 c1 38	 add	 ecx, 56			; 00000038H
  0005c	8b f4		 mov	 esi, esp
  0005e	ff 15 00 00 00
	00		 call	 DWORD PTR __imp_??0?$basic_string@DU?$char_traits@D@std@@V?$allocator@D@2@@std@@QAE@XZ
  00064	3b f4		 cmp	 esi, esp
  00066	e8 00 00 00 00	 call	 __RTC_CheckEsp
  0006b	c6 45 fc 02	 mov	 BYTE PTR __$EHRec$[ebp+8], 2
  0006f	8b 4d f0	 mov	 ecx, DWORD PTR _this$[ebp]
  00072	83 c1 54	 add	 ecx, 84			; 00000054H
  00075	8b f4		 mov	 esi, esp
  00077	ff 15 00 00 00
	00		 call	 DWORD PTR __imp_??0?$basic_string@DU?$char_traits@D@std@@V?$allocator@D@2@@std@@QAE@XZ
  0007d	3b f4		 cmp	 esi, esp
  0007f	e8 00 00 00 00	 call	 __RTC_CheckEsp
  00084	c6 45 fc 03	 mov	 BYTE PTR __$EHRec$[ebp+8], 3
  00088	8b 4d f0	 mov	 ecx, DWORD PTR _this$[ebp]
  0008b	83 c1 70	 add	 ecx, 112		; 00000070H
  0008e	8b f4		 mov	 esi, esp
  00090	ff 15 00 00 00
	00		 call	 DWORD PTR __imp_??0?$basic_string@DU?$char_traits@D@std@@V?$allocator@D@2@@std@@QAE@XZ
  00096	3b f4		 cmp	 esi, esp
  00098	e8 00 00 00 00	 call	 __RTC_CheckEsp
  0009d	c6 45 fc 04	 mov	 BYTE PTR __$EHRec$[ebp+8], 4

; 21   : 	{
; 22   : 		clear();

  000a1	8b 4d f0	 mov	 ecx, DWORD PTR _this$[ebp]
  000a4	e8 00 00 00 00	 call	 ?clear@OneLocalGame@@QAEXXZ ; OneLocalGame::clear

; 23   : 	}

  000a9	c7 45 fc ff ff
	ff ff		 mov	 DWORD PTR __$EHRec$[ebp+8], -1
  000b0	8b 45 f0	 mov	 eax, DWORD PTR _this$[ebp]
  000b3	8b 4d f4	 mov	 ecx, DWORD PTR __$EHRec$[ebp]
  000b6	64 89 0d 00 00
	00 00		 mov	 DWORD PTR fs:__except_list, ecx
  000bd	5e		 pop	 esi
  000be	83 c4 10	 add	 esp, 16			; 00000010H
  000c1	3b ec		 cmp	 ebp, esp
  000c3	e8 00 00 00 00	 call	 __RTC_CheckEsp
  000c8	8b e5		 mov	 esp, ebp
  000ca	5d		 pop	 ebp
  000cb	c3		 ret	 0
_TEXT	ENDS
;	COMDAT text$x
text$x	SEGMENT
$L193425:
  00000	8b f4		 mov	 esi, esp
  00002	8b 4d f0	 mov	 ecx, DWORD PTR _this$[ebp]
  00005	ff 15 00 00 00
	00		 call	 DWORD PTR __imp_??1?$basic_string@DU?$char_traits@D@std@@V?$allocator@D@2@@std@@QAE@XZ
  0000b	3b f4		 cmp	 esi, esp
  0000d	e9 00 00 00 00	 jmp	 __RTC_CheckEsp
$L193426:
  00012	8b 4d f0	 mov	 ecx, DWORD PTR _this$[ebp]
  00015	83 c1 1c	 add	 ecx, 28			; 0000001cH
  00018	8b f4		 mov	 esi, esp
  0001a	ff 15 00 00 00
	00		 call	 DWORD PTR __imp_??1?$basic_string@DU?$char_traits@D@std@@V?$allocator@D@2@@std@@QAE@XZ
  00020	3b f4		 cmp	 esi, esp
  00022	e9 00 00 00 00	 jmp	 __RTC_CheckEsp
$L193427:
  00027	8b 4d f0	 mov	 ecx, DWORD PTR _this$[ebp]
  0002a	83 c1 38	 add	 ecx, 56			; 00000038H
  0002d	8b f4		 mov	 esi, esp
  0002f	ff 15 00 00 00
	00		 call	 DWORD PTR __imp_??1?$basic_string@DU?$char_traits@D@std@@V?$allocator@D@2@@std@@QAE@XZ
  00035	3b f4		 cmp	 esi, esp
  00037	e9 00 00 00 00	 jmp	 __RTC_CheckEsp
$L193428:
  0003c	8b 4d f0	 mov	 ecx, DWORD PTR _this$[ebp]
  0003f	83 c1 54	 add	 ecx, 84			; 00000054H
  00042	8b f4		 mov	 esi, esp
  00044	ff 15 00 00 00
	00		 call	 DWORD PTR __imp_??1?$basic_string@DU?$char_traits@D@std@@V?$allocator@D@2@@std@@QAE@XZ
  0004a	3b f4		 cmp	 esi, esp
  0004c	e9 00 00 00 00	 jmp	 __RTC_CheckEsp
$L193429:
  00051	8b 4d f0	 mov	 ecx, DWORD PTR _this$[ebp]
  00054	83 c1 70	 add	 ecx, 112		; 00000070H
  00057	8b f4		 mov	 esi, esp
  00059	ff 15 00 00 00
	00		 call	 DWORD PTR __imp_??1?$basic_string@DU?$char_traits@D@std@@V?$allocator@D@2@@std@@QAE@XZ
  0005f	3b f4		 cmp	 esi, esp
  00061	e9 00 00 00 00	 jmp	 __RTC_CheckEsp
__ehhandler$??0OneLocalGame@@QAE@XZ:
  00066	b8 00 00 00 00	 mov	 eax, OFFSET FLAT:$T193431
  0006b	e9 00 00 00 00	 jmp	 ___CxxFrameHandler
text$x	ENDS
??0OneLocalGame@@QAE@XZ ENDP				; OneLocalGame::OneLocalGame
EXTRN	__imp_?clear@?$basic_string@DU?$char_traits@D@std@@V?$allocator@D@2@@std@@QAEXXZ:NEAR
; Function compile flags: /Odt /RTCsu
;	COMDAT ?clear@OneLocalGame@@QAEXXZ
_TEXT	SEGMENT
_this$ = -4						; size = 4
?clear@OneLocalGame@@QAEXXZ PROC NEAR			; OneLocalGame::clear, COMDAT
; _this$ = ecx

; 25   : 	{

  00000	55		 push	 ebp
  00001	8b ec		 mov	 ebp, esp
  00003	51		 push	 ecx
  00004	56		 push	 esi
  00005	c7 45 fc cc cc
	cc cc		 mov	 DWORD PTR [ebp-4], -858993460 ; ccccccccH
  0000c	89 4d fc	 mov	 DWORD PTR _this$[ebp], ecx

; 26   : 		strID.clear();

  0000f	8b f4		 mov	 esi, esp
  00011	8b 4d fc	 mov	 ecx, DWORD PTR _this$[ebp]
  00014	ff 15 00 00 00
	00		 call	 DWORD PTR __imp_?clear@?$basic_string@DU?$char_traits@D@std@@V?$allocator@D@2@@std@@QAEXXZ
  0001a	3b f4		 cmp	 esi, esp
  0001c	e8 00 00 00 00	 call	 __RTC_CheckEsp

; 27   : 		strName.clear();

  00021	8b 4d fc	 mov	 ecx, DWORD PTR _this$[ebp]
  00024	83 c1 1c	 add	 ecx, 28			; 0000001cH
  00027	8b f4		 mov	 esi, esp
  00029	ff 15 00 00 00
	00		 call	 DWORD PTR __imp_?clear@?$basic_string@DU?$char_traits@D@std@@V?$allocator@D@2@@std@@QAEXXZ
  0002f	3b f4		 cmp	 esi, esp
  00031	e8 00 00 00 00	 call	 __RTC_CheckEsp

; 28   : 		strGamePath.clear();

  00036	8b 4d fc	 mov	 ecx, DWORD PTR _this$[ebp]
  00039	83 c1 38	 add	 ecx, 56			; 00000038H
  0003c	8b f4		 mov	 esi, esp
  0003e	ff 15 00 00 00
	00		 call	 DWORD PTR __imp_?clear@?$basic_string@DU?$char_traits@D@std@@V?$allocator@D@2@@std@@QAEXXZ
  00044	3b f4		 cmp	 esi, esp
  00046	e8 00 00 00 00	 call	 __RTC_CheckEsp

; 29   : 		strPicPath.clear();

  0004b	8b 4d fc	 mov	 ecx, DWORD PTR _this$[ebp]
  0004e	83 c1 54	 add	 ecx, 84			; 00000054H
  00051	8b f4		 mov	 esi, esp
  00053	ff 15 00 00 00
	00		 call	 DWORD PTR __imp_?clear@?$basic_string@DU?$char_traits@D@std@@V?$allocator@D@2@@std@@QAEXXZ
  00059	3b f4		 cmp	 esi, esp
  0005b	e8 00 00 00 00	 call	 __RTC_CheckEsp

; 30   : 		strIntro.clear();

  00060	8b 4d fc	 mov	 ecx, DWORD PTR _this$[ebp]
  00063	83 c1 70	 add	 ecx, 112		; 00000070H
  00066	8b f4		 mov	 esi, esp
  00068	ff 15 00 00 00
	00		 call	 DWORD PTR __imp_?clear@?$basic_string@DU?$char_traits@D@std@@V?$allocator@D@2@@std@@QAEXXZ
  0006e	3b f4		 cmp	 esi, esp
  00070	e8 00 00 00 00	 call	 __RTC_CheckEsp

; 31   : 		uiFileSize    = 0;

  00075	8b 45 fc	 mov	 eax, DWORD PTR _this$[ebp]
  00078	c7 80 8c 00 00
	00 00 00 00 00	 mov	 DWORD PTR [eax+140], 0

; 32   : 	}

  00082	5e		 pop	 esi
  00083	83 c4 04	 add	 esp, 4
  00086	3b ec		 cmp	 ebp, esp
  00088	e8 00 00 00 00	 call	 __RTC_CheckEsp
  0008d	8b e5		 mov	 esp, ebp
  0008f	5d		 pop	 ebp
  00090	c3		 ret	 0
?clear@OneLocalGame@@QAEXXZ ENDP			; OneLocalGame::clear
_TEXT	ENDS
;	COMDAT xdata$x
xdata$x	SEGMENT
$T193446 DD	0ffffffffH
	DD	FLAT:$L193438
	DD	00H
	DD	FLAT:$L193439
	DD	01H
	DD	FLAT:$L193440
	DD	02H
	DD	FLAT:$L193441
$T193444 DD	019930520H
	DD	04H
	DD	FLAT:$T193446
	DD	2 DUP(00H)
	DD	2 DUP(00H)
; Function compile flags: /Odt /RTCsu
xdata$x	ENDS
;	COMDAT ??1OneLocalGame@@QAE@XZ
_TEXT	SEGMENT
_this$ = -16						; size = 4
__$EHRec$ = -12						; size = 12
??1OneLocalGame@@QAE@XZ PROC NEAR			; OneLocalGame::~OneLocalGame, COMDAT
; _this$ = ecx
  00000	55		 push	 ebp
  00001	8b ec		 mov	 ebp, esp
  00003	6a ff		 push	 -1
  00005	68 00 00 00 00	 push	 __ehhandler$??1OneLocalGame@@QAE@XZ
  0000a	64 a1 00 00 00
	00		 mov	 eax, DWORD PTR fs:__except_list
  00010	50		 push	 eax
  00011	64 89 25 00 00
	00 00		 mov	 DWORD PTR fs:__except_list, esp
  00018	51		 push	 ecx
  00019	56		 push	 esi
  0001a	c7 45 f0 cc cc
	cc cc		 mov	 DWORD PTR [ebp-16], -858993460 ; ccccccccH
  00021	89 4d f0	 mov	 DWORD PTR _this$[ebp], ecx
  00024	c7 45 fc 03 00
	00 00		 mov	 DWORD PTR __$EHRec$[ebp+8], 3
  0002b	8b 4d f0	 mov	 ecx, DWORD PTR _this$[ebp]
  0002e	83 c1 70	 add	 ecx, 112		; 00000070H
  00031	8b f4		 mov	 esi, esp
  00033	ff 15 00 00 00
	00		 call	 DWORD PTR __imp_??1?$basic_string@DU?$char_traits@D@std@@V?$allocator@D@2@@std@@QAE@XZ
  00039	3b f4		 cmp	 esi, esp
  0003b	e8 00 00 00 00	 call	 __RTC_CheckEsp
  00040	c6 45 fc 02	 mov	 BYTE PTR __$EHRec$[ebp+8], 2
  00044	8b 4d f0	 mov	 ecx, DWORD PTR _this$[ebp]
  00047	83 c1 54	 add	 ecx, 84			; 00000054H
  0004a	8b f4		 mov	 esi, esp
  0004c	ff 15 00 00 00
	00		 call	 DWORD PTR __imp_??1?$basic_string@DU?$char_traits@D@std@@V?$allocator@D@2@@std@@QAE@XZ
  00052	3b f4		 cmp	 esi, esp
  00054	e8 00 00 00 00	 call	 __RTC_CheckEsp
  00059	c6 45 fc 01	 mov	 BYTE PTR __$EHRec$[ebp+8], 1
  0005d	8b 4d f0	 mov	 ecx, DWORD PTR _this$[ebp]
  00060	83 c1 38	 add	 ecx, 56			; 00000038H
  00063	8b f4		 mov	 esi, esp
  00065	ff 15 00 00 00
	00		 call	 DWORD PTR __imp_??1?$basic_string@DU?$char_traits@D@std@@V?$allocator@D@2@@std@@QAE@XZ
  0006b	3b f4		 cmp	 esi, esp
  0006d	e8 00 00 00 00	 call	 __RTC_CheckEsp
  00072	c6 45 fc 00	 mov	 BYTE PTR __$EHRec$[ebp+8], 0
  00076	8b 4d f0	 mov	 ecx, DWORD PTR _this$[ebp]
  00079	83 c1 1c	 add	 ecx, 28			; 0000001cH
  0007c	8b f4		 mov	 esi, esp
  0007e	ff 15 00 00 00
	00		 call	 DWORD PTR __imp_??1?$basic_string@DU?$char_traits@D@std@@V?$allocator@D@2@@std@@QAE@XZ
  00084	3b f4		 cmp	 esi, esp
  00086	e8 00 00 00 00	 call	 __RTC_CheckEsp
  0008b	c7 45 fc ff ff
	ff ff		 mov	 DWORD PTR __$EHRec$[ebp+8], -1
  00092	8b f4		 mov	 esi, esp
  00094	8b 4d f0	 mov	 ecx, DWORD PTR _this$[ebp]
  00097	ff 15 00 00 00
	00		 call	 DWORD PTR __imp_??1?$basic_string@DU?$char_traits@D@std@@V?$allocator@D@2@@std@@QAE@XZ
  0009d	3b f4		 cmp	 esi, esp
  0009f	e8 00 00 00 00	 call	 __RTC_CheckEsp
  000a4	8b 4d f4	 mov	 ecx, DWORD PTR __$EHRec$[ebp]
  000a7	64 89 0d 00 00
	00 00		 mov	 DWORD PTR fs:__except_list, ecx
  000ae	5e		 pop	 esi
  000af	83 c4 10	 add	 esp, 16			; 00000010H
  000b2	3b ec		 cmp	 ebp, esp
  000b4	e8 00 00 00 00	 call	 __RTC_CheckEsp
  000b9	8b e5		 mov	 esp, ebp
  000bb	5d		 pop	 ebp
  000bc	c3		 ret	 0
_TEXT	ENDS
;	COMDAT text$x
text$x	SEGMENT
$L193438:
  00000	8b f4		 mov	 esi, esp
  00002	8b 4d f0	 mov	 ecx, DWORD PTR _this$[ebp]
  00005	ff 15 00 00 00
	00		 call	 DWORD PTR __imp_??1?$basic_string@DU?$char_traits@D@std@@V?$allocator@D@2@@std@@QAE@XZ
  0000b	3b f4		 cmp	 esi, esp
  0000d	e9 00 00 00 00	 jmp	 __RTC_CheckEsp
$L193439:
  00012	8b 4d f0	 mov	 ecx, DWORD PTR _this$[ebp]
  00015	83 c1 1c	 add	 ecx, 28			; 0000001cH
  00018	8b f4		 mov	 esi, esp
  0001a	ff 15 00 00 00
	00		 call	 DWORD PTR __imp_??1?$basic_string@DU?$char_traits@D@std@@V?$allocator@D@2@@std@@QAE@XZ
  00020	3b f4		 cmp	 esi, esp
  00022	e9 00 00 00 00	 jmp	 __RTC_CheckEsp
$L193440:
  00027	8b 4d f0	 mov	 ecx, DWORD PTR _this$[ebp]
  0002a	83 c1 38	 add	 ecx, 56			; 00000038H
  0002d	8b f4		 mov	 esi, esp
  0002f	ff 15 00 00 00
	00		 call	 DWORD PTR __imp_??1?$basic_string@DU?$char_traits@D@std@@V?$allocator@D@2@@std@@QAE@XZ
  00035	3b f4		 cmp	 esi, esp
  00037	e9 00 00 00 00	 jmp	 __RTC_CheckEsp
$L193441:
  0003c	8b 4d f0	 mov	 ecx, DWORD PTR _this$[ebp]
  0003f	83 c1 54	 add	 ecx, 84			; 00000054H
  00042	8b f4		 mov	 esi, esp
  00044	ff 15 00 00 00
	00		 call	 DWORD PTR __imp_??1?$basic_string@DU?$char_traits@D@std@@V?$allocator@D@2@@std@@QAE@XZ
  0004a	3b f4		 cmp	 esi, esp
  0004c	e9 00 00 00 00	 jmp	 __RTC_CheckEsp
__ehhandler$??1OneLocalGame@@QAE@XZ:
  00051	b8 00 00 00 00	 mov	 eax, OFFSET FLAT:$T193444
  00056	e9 00 00 00 00	 jmp	 ___CxxFrameHandler
text$x	ENDS
??1OneLocalGame@@QAE@XZ ENDP				; OneLocalGame::~OneLocalGame
;	COMDAT xdata$x
xdata$x	SEGMENT
$T193457 DD	0ffffffffH
	DD	FLAT:$L193450
	DD	00H
	DD	FLAT:$L193451
	DD	01H
	DD	FLAT:$L193452
$T193455 DD	019930520H
	DD	03H
	DD	FLAT:$T193457
	DD	2 DUP(00H)
	DD	2 DUP(00H)
; Function compile flags: /Odt /RTCsu
xdata$x	ENDS
;	COMDAT ??0CallJSParam@@QAE@XZ
_TEXT	SEGMENT
_this$ = -16						; size = 4
__$EHRec$ = -12						; size = 12
??0CallJSParam@@QAE@XZ PROC NEAR			; CallJSParam::CallJSParam, COMDAT
; _this$ = ecx
  00000	55		 push	 ebp
  00001	8b ec		 mov	 ebp, esp
  00003	6a ff		 push	 -1
  00005	68 00 00 00 00	 push	 __ehhandler$??0CallJSParam@@QAE@XZ
  0000a	64 a1 00 00 00
	00		 mov	 eax, DWORD PTR fs:__except_list
  00010	50		 push	 eax
  00011	64 89 25 00 00
	00 00		 mov	 DWORD PTR fs:__except_list, esp
  00018	51		 push	 ecx
  00019	56		 push	 esi
  0001a	c7 45 f0 cc cc
	cc cc		 mov	 DWORD PTR [ebp-16], -858993460 ; ccccccccH
  00021	89 4d f0	 mov	 DWORD PTR _this$[ebp], ecx
  00024	8b 4d f0	 mov	 ecx, DWORD PTR _this$[ebp]
  00027	83 c1 04	 add	 ecx, 4
  0002a	8b f4		 mov	 esi, esp
  0002c	ff 15 00 00 00
	00		 call	 DWORD PTR __imp_??0?$basic_string@DU?$char_traits@D@std@@V?$allocator@D@2@@std@@QAE@XZ
  00032	3b f4		 cmp	 esi, esp
  00034	e8 00 00 00 00	 call	 __RTC_CheckEsp
  00039	c7 45 fc 00 00
	00 00		 mov	 DWORD PTR __$EHRec$[ebp+8], 0
  00040	8b 4d f0	 mov	 ecx, DWORD PTR _this$[ebp]
  00043	83 c1 20	 add	 ecx, 32			; 00000020H
  00046	8b f4		 mov	 esi, esp
  00048	ff 15 00 00 00
	00		 call	 DWORD PTR __imp_??0?$basic_string@DU?$char_traits@D@std@@V?$allocator@D@2@@std@@QAE@XZ
  0004e	3b f4		 cmp	 esi, esp
  00050	e8 00 00 00 00	 call	 __RTC_CheckEsp
  00055	c6 45 fc 01	 mov	 BYTE PTR __$EHRec$[ebp+8], 1
  00059	8b 4d f0	 mov	 ecx, DWORD PTR _this$[ebp]
  0005c	83 c1 3c	 add	 ecx, 60			; 0000003cH
  0005f	8b f4		 mov	 esi, esp
  00061	ff 15 00 00 00
	00		 call	 DWORD PTR __imp_??0?$basic_string@DU?$char_traits@D@std@@V?$allocator@D@2@@std@@QAE@XZ
  00067	3b f4		 cmp	 esi, esp
  00069	e8 00 00 00 00	 call	 __RTC_CheckEsp
  0006e	c6 45 fc 02	 mov	 BYTE PTR __$EHRec$[ebp+8], 2
  00072	8b 4d f0	 mov	 ecx, DWORD PTR _this$[ebp]
  00075	83 c1 58	 add	 ecx, 88			; 00000058H
  00078	8b f4		 mov	 esi, esp
  0007a	ff 15 00 00 00
	00		 call	 DWORD PTR __imp_??0?$basic_string@DU?$char_traits@D@std@@V?$allocator@D@2@@std@@QAE@XZ
  00080	3b f4		 cmp	 esi, esp
  00082	e8 00 00 00 00	 call	 __RTC_CheckEsp
  00087	c7 45 fc ff ff
	ff ff		 mov	 DWORD PTR __$EHRec$[ebp+8], -1
  0008e	8b 45 f0	 mov	 eax, DWORD PTR _this$[ebp]
  00091	8b 4d f4	 mov	 ecx, DWORD PTR __$EHRec$[ebp]
  00094	64 89 0d 00 00
	00 00		 mov	 DWORD PTR fs:__except_list, ecx
  0009b	5e		 pop	 esi
  0009c	83 c4 10	 add	 esp, 16			; 00000010H
  0009f	3b ec		 cmp	 ebp, esp
  000a1	e8 00 00 00 00	 call	 __RTC_CheckEsp
  000a6	8b e5		 mov	 esp, ebp
  000a8	5d		 pop	 ebp
  000a9	c3		 ret	 0
_TEXT	ENDS
;	COMDAT text$x
text$x	SEGMENT
$L193450:
  00000	8b 4d f0	 mov	 ecx, DWORD PTR _this$[ebp]
  00003	83 c1 04	 add	 ecx, 4
  00006	8b f4		 mov	 esi, esp
  00008	ff 15 00 00 00
	00		 call	 DWORD PTR __imp_??1?$basic_string@DU?$char_traits@D@std@@V?$allocator@D@2@@std@@QAE@XZ
  0000e	3b f4		 cmp	 esi, esp
  00010	e9 00 00 00 00	 jmp	 __RTC_CheckEsp
$L193451:
  00015	8b 4d f0	 mov	 ecx, DWORD PTR _this$[ebp]
  00018	83 c1 20	 add	 ecx, 32			; 00000020H
  0001b	8b f4		 mov	 esi, esp
  0001d	ff 15 00 00 00
	00		 call	 DWORD PTR __imp_??1?$basic_string@DU?$char_traits@D@std@@V?$allocator@D@2@@std@@QAE@XZ
  00023	3b f4		 cmp	 esi, esp
  00025	e9 00 00 00 00	 jmp	 __RTC_CheckEsp
$L193452:
  0002a	8b 4d f0	 mov	 ecx, DWORD PTR _this$[ebp]
  0002d	83 c1 3c	 add	 ecx, 60			; 0000003cH
  00030	8b f4		 mov	 esi, esp
  00032	ff 15 00 00 00
	00		 call	 DWORD PTR __imp_??1?$basic_string@DU?$char_traits@D@std@@V?$allocator@D@2@@std@@QAE@XZ
  00038	3b f4		 cmp	 esi, esp
  0003a	e9 00 00 00 00	 jmp	 __RTC_CheckEsp
__ehhandler$??0CallJSParam@@QAE@XZ:
  0003f	b8 00 00 00 00	 mov	 eax, OFFSET FLAT:$T193455
  00044	e9 00 00 00 00	 jmp	 ___CxxFrameHandler
text$x	ENDS
??0CallJSParam@@QAE@XZ ENDP				; CallJSParam::CallJSParam
PUBLIC	??1CallJSParam@@QAE@XZ				; CallJSParam::~CallJSParam
; Function compile flags: /Odt /RTCsu
;	COMDAT ??_GCallJSParam@@QAEPAXI@Z
_TEXT	SEGMENT
_this$ = -4						; size = 4
___flags$ = 8						; size = 4
??_GCallJSParam@@QAEPAXI@Z PROC NEAR			; CallJSParam::`scalar deleting destructor', COMDAT
; _this$ = ecx
  00000	55		 push	 ebp
  00001	8b ec		 mov	 ebp, esp
  00003	51		 push	 ecx
  00004	c7 45 fc cc cc
	cc cc		 mov	 DWORD PTR [ebp-4], -858993460 ; ccccccccH
  0000b	89 4d fc	 mov	 DWORD PTR _this$[ebp], ecx
  0000e	8b 4d fc	 mov	 ecx, DWORD PTR _this$[ebp]
  00011	e8 00 00 00 00	 call	 ??1CallJSParam@@QAE@XZ
  00016	8b 45 08	 mov	 eax, DWORD PTR ___flags$[ebp]
  00019	83 e0 01	 and	 eax, 1
  0001c	74 0c		 je	 SHORT $L191812
  0001e	8b 4d fc	 mov	 ecx, DWORD PTR _this$[ebp]
  00021	51		 push	 ecx
  00022	e8 00 00 00 00	 call	 ??3@YAXPAX@Z		; operator delete
  00027	83 c4 04	 add	 esp, 4
$L191812:
  0002a	8b 45 fc	 mov	 eax, DWORD PTR _this$[ebp]
  0002d	83 c4 04	 add	 esp, 4
  00030	3b ec		 cmp	 ebp, esp
  00032	e8 00 00 00 00	 call	 __RTC_CheckEsp
  00037	8b e5		 mov	 esp, ebp
  00039	5d		 pop	 ebp
  0003a	c2 04 00	 ret	 4
??_GCallJSParam@@QAEPAXI@Z ENDP				; CallJSParam::`scalar deleting destructor'
_TEXT	ENDS
;	COMDAT xdata$x
xdata$x	SEGMENT
$T193469 DD	0ffffffffH
	DD	FLAT:$L193462
	DD	00H
	DD	FLAT:$L193463
	DD	01H
	DD	FLAT:$L193464
$T193467 DD	019930520H
	DD	03H
	DD	FLAT:$T193469
	DD	2 DUP(00H)
	DD	2 DUP(00H)
; Function compile flags: /Odt /RTCsu
xdata$x	ENDS
;	COMDAT ??1CallJSParam@@QAE@XZ
_TEXT	SEGMENT
_this$ = -16						; size = 4
__$EHRec$ = -12						; size = 12
??1CallJSParam@@QAE@XZ PROC NEAR			; CallJSParam::~CallJSParam, COMDAT
; _this$ = ecx
  00000	55		 push	 ebp
  00001	8b ec		 mov	 ebp, esp
  00003	6a ff		 push	 -1
  00005	68 00 00 00 00	 push	 __ehhandler$??1CallJSParam@@QAE@XZ
  0000a	64 a1 00 00 00
	00		 mov	 eax, DWORD PTR fs:__except_list
  00010	50		 push	 eax
  00011	64 89 25 00 00
	00 00		 mov	 DWORD PTR fs:__except_list, esp
  00018	51		 push	 ecx
  00019	56		 push	 esi
  0001a	c7 45 f0 cc cc
	cc cc		 mov	 DWORD PTR [ebp-16], -858993460 ; ccccccccH
  00021	89 4d f0	 mov	 DWORD PTR _this$[ebp], ecx
  00024	c7 45 fc 02 00
	00 00		 mov	 DWORD PTR __$EHRec$[ebp+8], 2
  0002b	8b 4d f0	 mov	 ecx, DWORD PTR _this$[ebp]
  0002e	83 c1 58	 add	 ecx, 88			; 00000058H
  00031	8b f4		 mov	 esi, esp
  00033	ff 15 00 00 00
	00		 call	 DWORD PTR __imp_??1?$basic_string@DU?$char_traits@D@std@@V?$allocator@D@2@@std@@QAE@XZ
  00039	3b f4		 cmp	 esi, esp
  0003b	e8 00 00 00 00	 call	 __RTC_CheckEsp
  00040	c6 45 fc 01	 mov	 BYTE PTR __$EHRec$[ebp+8], 1
  00044	8b 4d f0	 mov	 ecx, DWORD PTR _this$[ebp]
  00047	83 c1 3c	 add	 ecx, 60			; 0000003cH
  0004a	8b f4		 mov	 esi, esp
  0004c	ff 15 00 00 00
	00		 call	 DWORD PTR __imp_??1?$basic_string@DU?$char_traits@D@std@@V?$allocator@D@2@@std@@QAE@XZ
  00052	3b f4		 cmp	 esi, esp
  00054	e8 00 00 00 00	 call	 __RTC_CheckEsp
  00059	c6 45 fc 00	 mov	 BYTE PTR __$EHRec$[ebp+8], 0
  0005d	8b 4d f0	 mov	 ecx, DWORD PTR _this$[ebp]
  00060	83 c1 20	 add	 ecx, 32			; 00000020H
  00063	8b f4		 mov	 esi, esp
  00065	ff 15 00 00 00
	00		 call	 DWORD PTR __imp_??1?$basic_string@DU?$char_traits@D@std@@V?$allocator@D@2@@std@@QAE@XZ
  0006b	3b f4		 cmp	 esi, esp
  0006d	e8 00 00 00 00	 call	 __RTC_CheckEsp
  00072	c7 45 fc ff ff
	ff ff		 mov	 DWORD PTR __$EHRec$[ebp+8], -1
  00079	8b 4d f0	 mov	 ecx, DWORD PTR _this$[ebp]
  0007c	83 c1 04	 add	 ecx, 4
  0007f	8b f4		 mov	 esi, esp
  00081	ff 15 00 00 00
	00		 call	 DWORD PTR __imp_??1?$basic_string@DU?$char_traits@D@std@@V?$allocator@D@2@@std@@QAE@XZ
  00087	3b f4		 cmp	 esi, esp
  00089	e8 00 00 00 00	 call	 __RTC_CheckEsp
  0008e	8b 4d f4	 mov	 ecx, DWORD PTR __$EHRec$[ebp]
  00091	64 89 0d 00 00
	00 00		 mov	 DWORD PTR fs:__except_list, ecx
  00098	5e		 pop	 esi
  00099	83 c4 10	 add	 esp, 16			; 00000010H
  0009c	3b ec		 cmp	 ebp, esp
  0009e	e8 00 00 00 00	 call	 __RTC_CheckEsp
  000a3	8b e5		 mov	 esp, ebp
  000a5	5d		 pop	 ebp
  000a6	c3		 ret	 0
_TEXT	ENDS
;	COMDAT text$x
text$x	SEGMENT
$L193462:
  00000	8b 4d f0	 mov	 ecx, DWORD PTR _this$[ebp]
  00003	83 c1 04	 add	 ecx, 4
  00006	8b f4		 mov	 esi, esp
  00008	ff 15 00 00 00
	00		 call	 DWORD PTR __imp_??1?$basic_string@DU?$char_traits@D@std@@V?$allocator@D@2@@std@@QAE@XZ
  0000e	3b f4		 cmp	 esi, esp
  00010	e9 00 00 00 00	 jmp	 __RTC_CheckEsp
$L193463:
  00015	8b 4d f0	 mov	 ecx, DWORD PTR _this$[ebp]
  00018	83 c1 20	 add	 ecx, 32			; 00000020H
  0001b	8b f4		 mov	 esi, esp
  0001d	ff 15 00 00 00
	00		 call	 DWORD PTR __imp_??1?$basic_string@DU?$char_traits@D@std@@V?$allocator@D@2@@std@@QAE@XZ
  00023	3b f4		 cmp	 esi, esp
  00025	e9 00 00 00 00	 jmp	 __RTC_CheckEsp
$L193464:
  0002a	8b 4d f0	 mov	 ecx, DWORD PTR _this$[ebp]
  0002d	83 c1 3c	 add	 ecx, 60			; 0000003cH
  00030	8b f4		 mov	 esi, esp
  00032	ff 15 00 00 00
	00		 call	 DWORD PTR __imp_??1?$basic_string@DU?$char_traits@D@std@@V?$allocator@D@2@@std@@QAE@XZ
  00038	3b f4		 cmp	 esi, esp
  0003a	e9 00 00 00 00	 jmp	 __RTC_CheckEsp
__ehhandler$??1CallJSParam@@QAE@XZ:
  0003f	b8 00 00 00 00	 mov	 eax, OFFSET FLAT:$T193467
  00044	e9 00 00 00 00	 jmp	 ___CxxFrameHandler
text$x	ENDS
??1CallJSParam@@QAE@XZ ENDP				; CallJSParam::~CallJSParam
EXTRN	__imp_??B?$CSimpleStringT@D$00@ATL@@QBEPBDXZ:NEAR
EXTRN	__imp_?Compare@?$CStringT@DV?$StrTraitMFC_DLL@DV?$ChTraitsCRT@D@ATL@@@@@ATL@@QBEHPBD@Z:NEAR
xdata$x	SEGMENT
$T193499 DD	0ffffffffH
	DD	FLAT:$L193484
	DD	00H
	DD	FLAT:$L193476
	DD	01H
	DD	FLAT:$L193477
	DD	02H
	DD	FLAT:$L193478
	DD	03H
	DD	FLAT:$L193479
	DD	04H
	DD	FLAT:$L193480
	DD	04H
	DD	FLAT:$L193481
	DD	06H
	DD	FLAT:$L193482
	DD	07H
	DD	FLAT:$L193483
$T193488 DD	019930520H
	DD	09H
	DD	FLAT:$T193499
	DD	2 DUP(00H)
	DD	2 DUP(00H)
; Function compile flags: /Odt /RTCsu
; File d:\boxgit\playbox\playbox\dev\prj\playbox\src\module\webinteract\webmanager.cpp
xdata$x	ENDS
_TEXT	SEGMENT
tv167 = -144						; size = 4
tv186 = -140						; size = 4
tv161 = -136						; size = 4
tv181 = -132						; size = 4
$T193485 = -128						; size = 4
$T193475 = -124						; size = 4
$T193474 = -120						; size = 4
_strRight$191832 = -112					; size = 4
_strLeft$191831 = -100					; size = 4
_curPos$ = -88						; size = 4
_strOneItem$ = -76					; size = 4
_str$ = -64						; size = 4
_strRes$ = -52						; size = 28
_this$ = -20						; size = 4
__$ArrayPad$ = -16					; size = 4
__$EHRec$ = -12						; size = 12
__$ReturnAddr$ = 4					; size = 4
___$ReturnUdt$ = 8					; size = 4
_strContent$ = 12					; size = 4
_strKey$ = 16						; size = 28
?GetValue@CWebManager@@QAE?AV?$basic_string@DU?$char_traits@D@std@@V?$allocator@D@2@@std@@AAV23@V23@@Z PROC NEAR ; CWebManager::GetValue
; _this$ = ecx

; 254  : {

  02140	55		 push	 ebp
  02141	8b ec		 mov	 ebp, esp
  02143	6a ff		 push	 -1
  02145	68 00 00 00 00	 push	 __ehhandler$?GetValue@CWebManager@@QAE?AV?$basic_string@DU?$char_traits@D@std@@V?$allocator@D@2@@std@@AAV23@V23@@Z
  0214a	64 a1 00 00 00
	00		 mov	 eax, DWORD PTR fs:__except_list
  02150	50		 push	 eax
  02151	64 89 25 00 00
	00 00		 mov	 DWORD PTR fs:__except_list, esp
  02158	81 ec 84 00 00
	00		 sub	 esp, 132		; 00000084H
  0215e	56		 push	 esi
  0215f	57		 push	 edi
  02160	51		 push	 ecx
  02161	8d bd 70 ff ff
	ff		 lea	 edi, DWORD PTR [ebp-144]
  02167	b9 21 00 00 00	 mov	 ecx, 33			; 00000021H
  0216c	b8 cc cc cc cc	 mov	 eax, -858993460		; ccccccccH
  02171	f3 ab		 rep stosd
  02173	59		 pop	 ecx
  02174	a1 00 00 00 00	 mov	 eax, DWORD PTR ___security_cookie
  02179	89 45 f0	 mov	 DWORD PTR __$ArrayPad$[ebp], eax
  0217c	89 4d ec	 mov	 DWORD PTR _this$[ebp], ecx
  0217f	c7 45 80 00 00
	00 00		 mov	 DWORD PTR $T193485[ebp], 0
  02186	c7 45 fc 01 00
	00 00		 mov	 DWORD PTR __$EHRec$[ebp+8], 1

; 255  : 	string strRes;

  0218d	8b f4		 mov	 esi, esp
  0218f	8d 4d cc	 lea	 ecx, DWORD PTR _strRes$[ebp]
  02192	ff 15 00 00 00
	00		 call	 DWORD PTR __imp_??0?$basic_string@DU?$char_traits@D@std@@V?$allocator@D@2@@std@@QAE@XZ
  02198	3b f4		 cmp	 esi, esp
  0219a	e8 00 00 00 00	 call	 __RTC_CheckEsp
  0219f	c6 45 fc 02	 mov	 BYTE PTR __$EHRec$[ebp+8], 2

; 256  : 	CString str(strContent.c_str());

  021a3	8b f4		 mov	 esi, esp
  021a5	8b 4d 0c	 mov	 ecx, DWORD PTR _strContent$[ebp]
  021a8	ff 15 00 00 00
	00		 call	 DWORD PTR __imp_?c_str@?$basic_string@DU?$char_traits@D@std@@V?$allocator@D@2@@std@@QBEPBDXZ
  021ae	3b f4		 cmp	 esi, esp
  021b0	e8 00 00 00 00	 call	 __RTC_CheckEsp
  021b5	8b f4		 mov	 esi, esp
  021b7	50		 push	 eax
  021b8	8d 4d c0	 lea	 ecx, DWORD PTR _str$[ebp]
  021bb	ff 15 00 00 00
	00		 call	 DWORD PTR __imp_??0?$CStringT@DV?$StrTraitMFC_DLL@DV?$ChTraitsCRT@D@ATL@@@@@ATL@@QAE@PBD@Z
  021c1	3b f4		 cmp	 esi, esp
  021c3	e8 00 00 00 00	 call	 __RTC_CheckEsp
  021c8	c6 45 fc 03	 mov	 BYTE PTR __$EHRec$[ebp+8], 3

; 257  : 	CString strOneItem;

  021cc	8b f4		 mov	 esi, esp
  021ce	8d 4d b4	 lea	 ecx, DWORD PTR _strOneItem$[ebp]
  021d1	ff 15 00 00 00
	00		 call	 DWORD PTR __imp_??0?$CStringT@DV?$StrTraitMFC_DLL@DV?$ChTraitsCRT@D@ATL@@@@@ATL@@QAE@XZ
  021d7	3b f4		 cmp	 esi, esp
  021d9	e8 00 00 00 00	 call	 __RTC_CheckEsp
  021de	c6 45 fc 04	 mov	 BYTE PTR __$EHRec$[ebp+8], 4

; 258  : 	int curPos = 0;

  021e2	c7 45 a8 00 00
	00 00		 mov	 DWORD PTR _curPos$[ebp], 0

; 259  : 	strOneItem= str.Tokenize("\n",curPos);

  021e9	8b f4		 mov	 esi, esp
  021eb	8d 45 a8	 lea	 eax, DWORD PTR _curPos$[ebp]
  021ee	50		 push	 eax
  021ef	68 00 00 00 00	 push	 OFFSET FLAT:$SG191826
  021f4	8d 4d 88	 lea	 ecx, DWORD PTR $T193474[ebp]
  021f7	51		 push	 ecx
  021f8	8d 4d c0	 lea	 ecx, DWORD PTR _str$[ebp]
  021fb	ff 15 00 00 00
	00		 call	 DWORD PTR __imp_?Tokenize@?$CStringT@DV?$StrTraitMFC_DLL@DV?$ChTraitsCRT@D@ATL@@@@@ATL@@QBE?AV12@PBDAAH@Z
  02201	3b f4		 cmp	 esi, esp
  02203	e8 00 00 00 00	 call	 __RTC_CheckEsp
  02208	89 85 7c ff ff
	ff		 mov	 DWORD PTR tv181[ebp], eax
  0220e	8b 95 7c ff ff
	ff		 mov	 edx, DWORD PTR tv181[ebp]
  02214	89 95 78 ff ff
	ff		 mov	 DWORD PTR tv161[ebp], edx
  0221a	c6 45 fc 05	 mov	 BYTE PTR __$EHRec$[ebp+8], 5
  0221e	8b f4		 mov	 esi, esp
  02220	8b 85 78 ff ff
	ff		 mov	 eax, DWORD PTR tv161[ebp]
  02226	50		 push	 eax
  02227	8d 4d b4	 lea	 ecx, DWORD PTR _strOneItem$[ebp]
  0222a	ff 15 00 00 00
	00		 call	 DWORD PTR __imp_??4?$CStringT@DV?$StrTraitMFC_DLL@DV?$ChTraitsCRT@D@ATL@@@@@ATL@@QAEAAV01@ABV01@@Z
  02230	3b f4		 cmp	 esi, esp
  02232	e8 00 00 00 00	 call	 __RTC_CheckEsp
  02237	c6 45 fc 04	 mov	 BYTE PTR __$EHRec$[ebp+8], 4
  0223b	8b f4		 mov	 esi, esp
  0223d	8d 4d 88	 lea	 ecx, DWORD PTR $T193474[ebp]
  02240	ff 15 00 00 00
	00		 call	 DWORD PTR __imp_??1?$CStringT@DV?$StrTraitMFC_DLL@DV?$ChTraitsCRT@D@ATL@@@@@ATL@@QAE@XZ
  02246	3b f4		 cmp	 esi, esp
  02248	e8 00 00 00 00	 call	 __RTC_CheckEsp
$L191828:

; 260  : 	while(strOneItem != "")

  0224d	68 00 00 00 00	 push	 OFFSET FLAT:$SG191830
  02252	8d 4d b4	 lea	 ecx, DWORD PTR _strOneItem$[ebp]
  02255	51		 push	 ecx
  02256	e8 00 00 00 00	 call	 ??9ATL@@YA_NABV?$CStringT@DV?$StrTraitMFC_DLL@DV?$ChTraitsCRT@D@ATL@@@@@0@PBD@Z ; ATL::operator!=
  0225b	83 c4 08	 add	 esp, 8
  0225e	0f b6 d0	 movzx	 edx, al
  02261	85 d2		 test	 edx, edx
  02263	0f 84 54 01 00
	00		 je	 $L191829

; 261  : 	{		
; 262  : 		CString strLeft,strRight;

  02269	8b f4		 mov	 esi, esp
  0226b	8d 4d 9c	 lea	 ecx, DWORD PTR _strLeft$191831[ebp]
  0226e	ff 15 00 00 00
	00		 call	 DWORD PTR __imp_??0?$CStringT@DV?$StrTraitMFC_DLL@DV?$ChTraitsCRT@D@ATL@@@@@ATL@@QAE@XZ
  02274	3b f4		 cmp	 esi, esp
  02276	e8 00 00 00 00	 call	 __RTC_CheckEsp
  0227b	c6 45 fc 06	 mov	 BYTE PTR __$EHRec$[ebp+8], 6
  0227f	8b f4		 mov	 esi, esp
  02281	8d 4d 90	 lea	 ecx, DWORD PTR _strRight$191832[ebp]
  02284	ff 15 00 00 00
	00		 call	 DWORD PTR __imp_??0?$CStringT@DV?$StrTraitMFC_DLL@DV?$ChTraitsCRT@D@ATL@@@@@ATL@@QAE@XZ
  0228a	3b f4		 cmp	 esi, esp
  0228c	e8 00 00 00 00	 call	 __RTC_CheckEsp
  02291	c6 45 fc 07	 mov	 BYTE PTR __$EHRec$[ebp+8], 7

; 263  : 		_string_help( strOneItem,strLeft,strRight );

  02295	8d 45 90	 lea	 eax, DWORD PTR _strRight$191832[ebp]
  02298	50		 push	 eax
  02299	8d 4d 9c	 lea	 ecx, DWORD PTR _strLeft$191831[ebp]
  0229c	51		 push	 ecx
  0229d	8d 55 b4	 lea	 edx, DWORD PTR _strOneItem$[ebp]
  022a0	52		 push	 edx
  022a1	8b 4d ec	 mov	 ecx, DWORD PTR _this$[ebp]
  022a4	e8 00 00 00 00	 call	 ?_string_help@CWebManager@@AAEXABV?$CStringT@DV?$StrTraitMFC_DLL@DV?$ChTraitsCRT@D@ATL@@@@@ATL@@AAV23@1@Z ; CWebManager::_string_help

; 264  : 		if( strLeft.Compare(strKey.c_str()) == 0 )

  022a9	8b f4		 mov	 esi, esp
  022ab	8d 4d 10	 lea	 ecx, DWORD PTR _strKey$[ebp]
  022ae	ff 15 00 00 00
	00		 call	 DWORD PTR __imp_?c_str@?$basic_string@DU?$char_traits@D@std@@V?$allocator@D@2@@std@@QBEPBDXZ
  022b4	3b f4		 cmp	 esi, esp
  022b6	e8 00 00 00 00	 call	 __RTC_CheckEsp
  022bb	8b f4		 mov	 esi, esp
  022bd	50		 push	 eax
  022be	8d 4d 9c	 lea	 ecx, DWORD PTR _strLeft$191831[ebp]
  022c1	ff 15 00 00 00
	00		 call	 DWORD PTR __imp_?Compare@?$CStringT@DV?$StrTraitMFC_DLL@DV?$ChTraitsCRT@D@ATL@@@@@ATL@@QBEHPBD@Z
  022c7	3b f4		 cmp	 esi, esp
  022c9	e8 00 00 00 00	 call	 __RTC_CheckEsp
  022ce	85 c0		 test	 eax, eax
  022d0	75 56		 jne	 SHORT $L191833

; 265  : 		{
; 266  : 			strRes = strRight;

  022d2	8b f4		 mov	 esi, esp
  022d4	8d 4d 90	 lea	 ecx, DWORD PTR _strRight$191832[ebp]
  022d7	ff 15 00 00 00
	00		 call	 DWORD PTR __imp_??B?$CSimpleStringT@D$00@ATL@@QBEPBDXZ
  022dd	3b f4		 cmp	 esi, esp
  022df	e8 00 00 00 00	 call	 __RTC_CheckEsp
  022e4	8b f4		 mov	 esi, esp
  022e6	50		 push	 eax
  022e7	8d 4d cc	 lea	 ecx, DWORD PTR _strRes$[ebp]
  022ea	ff 15 00 00 00
	00		 call	 DWORD PTR __imp_??4?$basic_string@DU?$char_traits@D@std@@V?$allocator@D@2@@std@@QAEAAV01@PBD@Z
  022f0	3b f4		 cmp	 esi, esp
  022f2	e8 00 00 00 00	 call	 __RTC_CheckEsp

; 267  : 			break;

  022f7	c6 45 fc 06	 mov	 BYTE PTR __$EHRec$[ebp+8], 6
  022fb	8b f4		 mov	 esi, esp
  022fd	8d 4d 90	 lea	 ecx, DWORD PTR _strRight$191832[ebp]
  02300	ff 15 00 00 00
	00		 call	 DWORD PTR __imp_??1?$CStringT@DV?$StrTraitMFC_DLL@DV?$ChTraitsCRT@D@ATL@@@@@ATL@@QAE@XZ
  02306	3b f4		 cmp	 esi, esp
  02308	e8 00 00 00 00	 call	 __RTC_CheckEsp
  0230d	c6 45 fc 04	 mov	 BYTE PTR __$EHRec$[ebp+8], 4
  02311	8b f4		 mov	 esi, esp
  02313	8d 4d 9c	 lea	 ecx, DWORD PTR _strLeft$191831[ebp]
  02316	ff 15 00 00 00
	00		 call	 DWORD PTR __imp_??1?$CStringT@DV?$StrTraitMFC_DLL@DV?$ChTraitsCRT@D@ATL@@@@@ATL@@QAE@XZ
  0231c	3b f4		 cmp	 esi, esp
  0231e	e8 00 00 00 00	 call	 __RTC_CheckEsp
  02323	e9 95 00 00 00	 jmp	 $L191829
$L191833:

; 268  : 		}
; 269  : 		strOneItem = str.Tokenize("\n", curPos);

  02328	8b f4		 mov	 esi, esp
  0232a	8d 45 a8	 lea	 eax, DWORD PTR _curPos$[ebp]
  0232d	50		 push	 eax
  0232e	68 00 00 00 00	 push	 OFFSET FLAT:$SG191835
  02333	8d 4d 84	 lea	 ecx, DWORD PTR $T193475[ebp]
  02336	51		 push	 ecx
  02337	8d 4d c0	 lea	 ecx, DWORD PTR _str$[ebp]
  0233a	ff 15 00 00 00
	00		 call	 DWORD PTR __imp_?Tokenize@?$CStringT@DV?$StrTraitMFC_DLL@DV?$ChTraitsCRT@D@ATL@@@@@ATL@@QBE?AV12@PBDAAH@Z
  02340	3b f4		 cmp	 esi, esp
  02342	e8 00 00 00 00	 call	 __RTC_CheckEsp
  02347	89 85 74 ff ff
	ff		 mov	 DWORD PTR tv186[ebp], eax
  0234d	8b 95 74 ff ff
	ff		 mov	 edx, DWORD PTR tv186[ebp]
  02353	89 95 70 ff ff
	ff		 mov	 DWORD PTR tv167[ebp], edx
  02359	c6 45 fc 08	 mov	 BYTE PTR __$EHRec$[ebp+8], 8
  0235d	8b f4		 mov	 esi, esp
  0235f	8b 85 70 ff ff
	ff		 mov	 eax, DWORD PTR tv167[ebp]
  02365	50		 push	 eax
  02366	8d 4d b4	 lea	 ecx, DWORD PTR _strOneItem$[ebp]
  02369	ff 15 00 00 00
	00		 call	 DWORD PTR __imp_??4?$CStringT@DV?$StrTraitMFC_DLL@DV?$ChTraitsCRT@D@ATL@@@@@ATL@@QAEAAV01@ABV01@@Z
  0236f	3b f4		 cmp	 esi, esp
  02371	e8 00 00 00 00	 call	 __RTC_CheckEsp
  02376	c6 45 fc 07	 mov	 BYTE PTR __$EHRec$[ebp+8], 7
  0237a	8b f4		 mov	 esi, esp
  0237c	8d 4d 84	 lea	 ecx, DWORD PTR $T193475[ebp]
  0237f	ff 15 00 00 00
	00		 call	 DWORD PTR __imp_??1?$CStringT@DV?$StrTraitMFC_DLL@DV?$ChTraitsCRT@D@ATL@@@@@ATL@@QAE@XZ
  02385	3b f4		 cmp	 esi, esp
  02387	e8 00 00 00 00	 call	 __RTC_CheckEsp

; 270  : 	};

  0238c	c6 45 fc 06	 mov	 BYTE PTR __$EHRec$[ebp+8], 6
  02390	8b f4		 mov	 esi, esp
  02392	8d 4d 90	 lea	 ecx, DWORD PTR _strRight$191832[ebp]
  02395	ff 15 00 00 00
	00		 call	 DWORD PTR __imp_??1?$CStringT@DV?$StrTraitMFC_DLL@DV?$ChTraitsCRT@D@ATL@@@@@ATL@@QAE@XZ
  0239b	3b f4		 cmp	 esi, esp
  0239d	e8 00 00 00 00	 call	 __RTC_CheckEsp
  023a2	c6 45 fc 04	 mov	 BYTE PTR __$EHRec$[ebp+8], 4
  023a6	8b f4		 mov	 esi, esp
  023a8	8d 4d 9c	 lea	 ecx, DWORD PTR _strLeft$191831[ebp]
  023ab	ff 15 00 00 00
	00		 call	 DWORD PTR __imp_??1?$CStringT@DV?$StrTraitMFC_DLL@DV?$ChTraitsCRT@D@ATL@@@@@ATL@@QAE@XZ
  023b1	3b f4		 cmp	 esi, esp
  023b3	e8 00 00 00 00	 call	 __RTC_CheckEsp
  023b8	e9 90 fe ff ff	 jmp	 $L191828
$L191829:

; 271  : 	return strRes;

  023bd	8b f4		 mov	 esi, esp
  023bf	8d 4d cc	 lea	 ecx, DWORD PTR _strRes$[ebp]
  023c2	51		 push	 ecx
  023c3	8b 4d 08	 mov	 ecx, DWORD PTR ___$ReturnUdt$[ebp]
  023c6	ff 15 00 00 00
	00		 call	 DWORD PTR __imp_??0?$basic_string@DU?$char_traits@D@std@@V?$allocator@D@2@@std@@QAE@ABV01@@Z
  023cc	3b f4		 cmp	 esi, esp
  023ce	e8 00 00 00 00	 call	 __RTC_CheckEsp
  023d3	8b 55 80	 mov	 edx, DWORD PTR $T193485[ebp]
  023d6	83 ca 01	 or	 edx, 1
  023d9	89 55 80	 mov	 DWORD PTR $T193485[ebp], edx
  023dc	c6 45 fc 03	 mov	 BYTE PTR __$EHRec$[ebp+8], 3
  023e0	8b f4		 mov	 esi, esp
  023e2	8d 4d b4	 lea	 ecx, DWORD PTR _strOneItem$[ebp]
  023e5	ff 15 00 00 00
	00		 call	 DWORD PTR __imp_??1?$CStringT@DV?$StrTraitMFC_DLL@DV?$ChTraitsCRT@D@ATL@@@@@ATL@@QAE@XZ
  023eb	3b f4		 cmp	 esi, esp
  023ed	e8 00 00 00 00	 call	 __RTC_CheckEsp
  023f2	c6 45 fc 02	 mov	 BYTE PTR __$EHRec$[ebp+8], 2
  023f6	8b f4		 mov	 esi, esp
  023f8	8d 4d c0	 lea	 ecx, DWORD PTR _str$[ebp]
  023fb	ff 15 00 00 00
	00		 call	 DWORD PTR __imp_??1?$CStringT@DV?$StrTraitMFC_DLL@DV?$ChTraitsCRT@D@ATL@@@@@ATL@@QAE@XZ
  02401	3b f4		 cmp	 esi, esp
  02403	e8 00 00 00 00	 call	 __RTC_CheckEsp
  02408	c6 45 fc 01	 mov	 BYTE PTR __$EHRec$[ebp+8], 1
  0240c	8b f4		 mov	 esi, esp
  0240e	8d 4d cc	 lea	 ecx, DWORD PTR _strRes$[ebp]
  02411	ff 15 00 00 00
	00		 call	 DWORD PTR __imp_??1?$basic_string@DU?$char_traits@D@std@@V?$allocator@D@2@@std@@QAE@XZ
  02417	3b f4		 cmp	 esi, esp
  02419	e8 00 00 00 00	 call	 __RTC_CheckEsp
  0241e	c6 45 fc 00	 mov	 BYTE PTR __$EHRec$[ebp+8], 0
  02422	8b f4		 mov	 esi, esp
  02424	8d 4d 10	 lea	 ecx, DWORD PTR _strKey$[ebp]
  02427	ff 15 00 00 00
	00		 call	 DWORD PTR __imp_??1?$basic_string@DU?$char_traits@D@std@@V?$allocator@D@2@@std@@QAE@XZ
  0242d	3b f4		 cmp	 esi, esp
  0242f	e8 00 00 00 00	 call	 __RTC_CheckEsp
  02434	8b 45 08	 mov	 eax, DWORD PTR ___$ReturnUdt$[ebp]

; 272  : }

  02437	52		 push	 edx
  02438	8b cd		 mov	 ecx, ebp
  0243a	50		 push	 eax
  0243b	8d 15 00 00 00
	00		 lea	 edx, DWORD PTR $L193498
  02441	e8 00 00 00 00	 call	 @_RTC_CheckStackVars@8
  02446	58		 pop	 eax
  02447	5a		 pop	 edx
  02448	8b 4d f4	 mov	 ecx, DWORD PTR __$EHRec$[ebp]
  0244b	64 89 0d 00 00
	00 00		 mov	 DWORD PTR fs:__except_list, ecx
  02452	8b 4d f0	 mov	 ecx, DWORD PTR __$ArrayPad$[ebp]
  02455	e8 00 00 00 00	 call	 @__security_check_cookie@4
  0245a	5f		 pop	 edi
  0245b	5e		 pop	 esi
  0245c	81 c4 90 00 00
	00		 add	 esp, 144		; 00000090H
  02462	3b ec		 cmp	 ebp, esp
  02464	e8 00 00 00 00	 call	 __RTC_CheckEsp
  02469	8b e5		 mov	 esp, ebp
  0246b	5d		 pop	 ebp
  0246c	c2 24 00	 ret	 36			; 00000024H
$L193498:
  0246f	06 00 00 00	 DD	 6
  02473	00 00 00 00	 DD	 $L193497
$L193497:
  02477	cc ff ff ff	 DD	 -52			; ffffffccH
  0247b	1c 00 00 00	 DD	 28			; 0000001cH
  0247f	00 00 00 00	 DD	 $L193489
  02483	c0 ff ff ff	 DD	 -64			; ffffffc0H
  02487	04 00 00 00	 DD	 4
  0248b	00 00 00 00	 DD	 $L193490
  0248f	b4 ff ff ff	 DD	 -76			; ffffffb4H
  02493	04 00 00 00	 DD	 4
  02497	00 00 00 00	 DD	 $L193491
  0249b	a8 ff ff ff	 DD	 -88			; ffffffa8H
  0249f	04 00 00 00	 DD	 4
  024a3	00 00 00 00	 DD	 $L193492
  024a7	9c ff ff ff	 DD	 -100			; ffffff9cH
  024ab	04 00 00 00	 DD	 4
  024af	00 00 00 00	 DD	 $L193493
  024b3	90 ff ff ff	 DD	 -112			; ffffff90H
  024b7	04 00 00 00	 DD	 4
  024bb	00 00 00 00	 DD	 $L193494
$L193494:
  024bf	73		 DB	 115			; 00000073H
  024c0	74		 DB	 116			; 00000074H
  024c1	72		 DB	 114			; 00000072H
  024c2	52		 DB	 82			; 00000052H
  024c3	69		 DB	 105			; 00000069H
  024c4	67		 DB	 103			; 00000067H
  024c5	68		 DB	 104			; 00000068H
  024c6	74		 DB	 116			; 00000074H
  024c7	00		 DB	 0
$L193493:
  024c8	73		 DB	 115			; 00000073H
  024c9	74		 DB	 116			; 00000074H
  024ca	72		 DB	 114			; 00000072H
  024cb	4c		 DB	 76			; 0000004cH
  024cc	65		 DB	 101			; 00000065H
  024cd	66		 DB	 102			; 00000066H
  024ce	74		 DB	 116			; 00000074H
  024cf	00		 DB	 0
$L193492:
  024d0	63		 DB	 99			; 00000063H
  024d1	75		 DB	 117			; 00000075H
  024d2	72		 DB	 114			; 00000072H
  024d3	50		 DB	 80			; 00000050H
  024d4	6f		 DB	 111			; 0000006fH
  024d5	73		 DB	 115			; 00000073H
  024d6	00		 DB	 0
$L193491:
  024d7	73		 DB	 115			; 00000073H
  024d8	74		 DB	 116			; 00000074H
  024d9	72		 DB	 114			; 00000072H
  024da	4f		 DB	 79			; 0000004fH
  024db	6e		 DB	 110			; 0000006eH
  024dc	65		 DB	 101			; 00000065H
  024dd	49		 DB	 73			; 00000049H
  024de	74		 DB	 116			; 00000074H
  024df	65		 DB	 101			; 00000065H
  024e0	6d		 DB	 109			; 0000006dH
  024e1	00		 DB	 0
$L193490:
  024e2	73		 DB	 115			; 00000073H
  024e3	74		 DB	 116			; 00000074H
  024e4	72		 DB	 114			; 00000072H
  024e5	00		 DB	 0
$L193489:
  024e6	73		 DB	 115			; 00000073H
  024e7	74		 DB	 116			; 00000074H
  024e8	72		 DB	 114			; 00000072H
  024e9	52		 DB	 82			; 00000052H
  024ea	65		 DB	 101			; 00000065H
  024eb	73		 DB	 115			; 00000073H
  024ec	00		 DB	 0
_TEXT	ENDS
text$x	SEGMENT
$L193476:
  0049f	8b f4		 mov	 esi, esp
  004a1	8d 4d 10	 lea	 ecx, DWORD PTR _strKey$[ebp]
  004a4	ff 15 00 00 00
	00		 call	 DWORD PTR __imp_??1?$basic_string@DU?$char_traits@D@std@@V?$allocator@D@2@@std@@QAE@XZ
  004aa	3b f4		 cmp	 esi, esp
  004ac	e9 00 00 00 00	 jmp	 __RTC_CheckEsp
$L193477:
  004b1	8b f4		 mov	 esi, esp
  004b3	8d 4d cc	 lea	 ecx, DWORD PTR _strRes$[ebp]
  004b6	ff 15 00 00 00
	00		 call	 DWORD PTR __imp_??1?$basic_string@DU?$char_traits@D@std@@V?$allocator@D@2@@std@@QAE@XZ
  004bc	3b f4		 cmp	 esi, esp
  004be	e9 00 00 00 00	 jmp	 __RTC_CheckEsp
$L193478:
  004c3	8b f4		 mov	 esi, esp
  004c5	8d 4d c0	 lea	 ecx, DWORD PTR _str$[ebp]
  004c8	ff 15 00 00 00
	00		 call	 DWORD PTR __imp_??1?$CStringT@DV?$StrTraitMFC_DLL@DV?$ChTraitsCRT@D@ATL@@@@@ATL@@QAE@XZ
  004ce	3b f4		 cmp	 esi, esp
  004d0	e9 00 00 00 00	 jmp	 __RTC_CheckEsp
$L193479:
  004d5	8b f4		 mov	 esi, esp
  004d7	8d 4d b4	 lea	 ecx, DWORD PTR _strOneItem$[ebp]
  004da	ff 15 00 00 00
	00		 call	 DWORD PTR __imp_??1?$CStringT@DV?$StrTraitMFC_DLL@DV?$ChTraitsCRT@D@ATL@@@@@ATL@@QAE@XZ
  004e0	3b f4		 cmp	 esi, esp
  004e2	e9 00 00 00 00	 jmp	 __RTC_CheckEsp
$L193480:
  004e7	8b f4		 mov	 esi, esp
  004e9	8d 4d 88	 lea	 ecx, DWORD PTR $T193474[ebp]
  004ec	ff 15 00 00 00
	00		 call	 DWORD PTR __imp_??1?$CStringT@DV?$StrTraitMFC_DLL@DV?$ChTraitsCRT@D@ATL@@@@@ATL@@QAE@XZ
  004f2	3b f4		 cmp	 esi, esp
  004f4	e9 00 00 00 00	 jmp	 __RTC_CheckEsp
$L193481:
  004f9	8b f4		 mov	 esi, esp
  004fb	8d 4d 9c	 lea	 ecx, DWORD PTR _strLeft$191831[ebp]
  004fe	ff 15 00 00 00
	00		 call	 DWORD PTR __imp_??1?$CStringT@DV?$StrTraitMFC_DLL@DV?$ChTraitsCRT@D@ATL@@@@@ATL@@QAE@XZ
  00504	3b f4		 cmp	 esi, esp
  00506	e9 00 00 00 00	 jmp	 __RTC_CheckEsp
$L193482:
  0050b	8b f4		 mov	 esi, esp
  0050d	8d 4d 90	 lea	 ecx, DWORD PTR _strRight$191832[ebp]
  00510	ff 15 00 00 00
	00		 call	 DWORD PTR __imp_??1?$CStringT@DV?$StrTraitMFC_DLL@DV?$ChTraitsCRT@D@ATL@@@@@ATL@@QAE@XZ
  00516	3b f4		 cmp	 esi, esp
  00518	e9 00 00 00 00	 jmp	 __RTC_CheckEsp
$L193483:
  0051d	8b f4		 mov	 esi, esp
  0051f	8d 4d 84	 lea	 ecx, DWORD PTR $T193475[ebp]
  00522	ff 15 00 00 00
	00		 call	 DWORD PTR __imp_??1?$CStringT@DV?$StrTraitMFC_DLL@DV?$ChTraitsCRT@D@ATL@@@@@ATL@@QAE@XZ
  00528	3b f4		 cmp	 esi, esp
  0052a	e9 00 00 00 00	 jmp	 __RTC_CheckEsp
$L193484:
  0052f	8b 45 80	 mov	 eax, DWORD PTR $T193485[ebp]
  00532	83 e0 01	 and	 eax, 1
  00535	0f 84 16 00 00
	00		 je	 $L193486
  0053b	83 65 80 fe	 and	 DWORD PTR $T193485[ebp], -2 ; fffffffeH
  0053f	8b f4		 mov	 esi, esp
  00541	8b 4d 08	 mov	 ecx, DWORD PTR ___$ReturnUdt$[ebp]
  00544	ff 15 00 00 00
	00		 call	 DWORD PTR __imp_??1?$basic_string@DU?$char_traits@D@std@@V?$allocator@D@2@@std@@QAE@XZ
  0054a	3b f4		 cmp	 esi, esp
  0054c	e9 00 00 00 00	 jmp	 __RTC_CheckEsp
$L193486:
  00551	c3		 ret	 0
__ehhandler$?GetValue@CWebManager@@QAE?AV?$basic_string@DU?$char_traits@D@std@@V?$allocator@D@2@@std@@AAV23@V23@@Z:
  00552	b8 00 00 00 00	 mov	 eax, OFFSET FLAT:$T193488
  00557	e9 00 00 00 00	 jmp	 ___CxxFrameHandler
text$x	ENDS
?GetValue@CWebManager@@QAE?AV?$basic_string@DU?$char_traits@D@std@@V?$allocator@D@2@@std@@AAV23@V23@@Z ENDP ; CWebManager::GetValue
PUBLIC	?CallWebFromGBox@CWebManager@@QAEXPAVCHtmlView@@PAUCallJSParam@@@Z ; CWebManager::CallWebFromGBox
EXTRN	?GetHtmlDocument@CHtmlView@@QBEPAUIDispatch@@XZ:NEAR ; CHtmlView::GetHtmlDocument
EXTRN	?SetDocument@CWebPage@@QAE_NPAUIDispatch@@@Z:NEAR ; CWebPage::SetDocument
EXTRN	?CallJScript@CWebPage@@QAE_NV?$CStringT@DV?$StrTraitMFC_DLL@DV?$ChTraitsCRT@D@ATL@@@@@ATL@@PAVCComVariant@3@@Z:NEAR ; CWebPage::CallJScript
EXTRN	?CallJScript@CWebPage@@QAE_NV?$CStringT@DV?$StrTraitMFC_DLL@DV?$ChTraitsCRT@D@ATL@@@@@ATL@@0PAVCComVariant@3@@Z:NEAR ; CWebPage::CallJScript
EXTRN	?CallJScript@CWebPage@@QAE_NV?$CStringT@DV?$StrTraitMFC_DLL@DV?$ChTraitsCRT@D@ATL@@@@@ATL@@00PAVCComVariant@3@@Z:NEAR ; CWebPage::CallJScript
EXTRN	?CallJScript@CWebPage@@QAE_NV?$CStringT@DV?$StrTraitMFC_DLL@DV?$ChTraitsCRT@D@ATL@@@@@ATL@@000PAVCComVariant@3@@Z:NEAR ; CWebPage::CallJScript
xdata$x	SEGMENT
$T193525 DD	0ffffffffH
	DD	FLAT:$L193512
	DD	0ffffffffH
	DD	FLAT:$L193514
	DD	01H
	DD	FLAT:$L193515
	DD	0ffffffffH
	DD	FLAT:$L193517
	DD	03H
	DD	FLAT:$L193518
	DD	04H
	DD	FLAT:$L193519
$T193522 DD	019930520H
	DD	06H
	DD	FLAT:$T193525
	DD	2 DUP(00H)
	DD	2 DUP(00H)
; Function compile flags: /Odt /RTCsu
xdata$x	ENDS
_TEXT	SEGMENT
tv306 = -124						; size = 4
tv303 = -120						; size = 4
tv322 = -116						; size = 4
tv300 = -112						; size = 4
tv319 = -108						; size = 4
tv297 = -104						; size = 4
tv316 = -100						; size = 4
tv294 = -96						; size = 4
tv291 = -92						; size = 4
tv313 = -88						; size = 4
tv288 = -84						; size = 4
tv310 = -80						; size = 4
tv285 = -76						; size = 4
tv282 = -72						; size = 4
tv307 = -68						; size = 4
tv279 = -64						; size = 4
tv68 = -60						; size = 4
$T193510 = -56						; size = 4
$T193509 = -52						; size = 4
$T193508 = -48						; size = 4
$T193507 = -44						; size = 4
$T193506 = -40						; size = 4
$T193505 = -36						; size = 4
$T193504 = -32						; size = 4
$T193503 = -28						; size = 4
$T193502 = -24						; size = 4
$T193501 = -20						; size = 4
_this$ = -16						; size = 4
__$EHRec$ = -12						; size = 12
_pHTMLView$ = 8						; size = 4
_pParam$ = 12						; size = 4
?CallWebFromGBox@CWebManager@@QAEXPAVCHtmlView@@PAUCallJSParam@@@Z PROC NEAR ; CWebManager::CallWebFromGBox
; _this$ = ecx

; 275  : {

  024f0	55		 push	 ebp
  024f1	8b ec		 mov	 ebp, esp
  024f3	6a ff		 push	 -1
  024f5	68 00 00 00 00	 push	 __ehhandler$?CallWebFromGBox@CWebManager@@QAEXPAVCHtmlView@@PAUCallJSParam@@@Z
  024fa	64 a1 00 00 00
	00		 mov	 eax, DWORD PTR fs:__except_list
  02500	50		 push	 eax
  02501	64 89 25 00 00
	00 00		 mov	 DWORD PTR fs:__except_list, esp
  02508	83 ec 70	 sub	 esp, 112		; 00000070H
  0250b	56		 push	 esi
  0250c	57		 push	 edi
  0250d	51		 push	 ecx
  0250e	8d 7d 84	 lea	 edi, DWORD PTR [ebp-124]
  02511	b9 1c 00 00 00	 mov	 ecx, 28			; 0000001cH
  02516	b8 cc cc cc cc	 mov	 eax, -858993460		; ccccccccH
  0251b	f3 ab		 rep stosd
  0251d	59		 pop	 ecx
  0251e	89 4d f0	 mov	 DWORD PTR _this$[ebp], ecx

; 276  : 	if (pParam == NULL || pParam->nParam > 3)

  02521	83 7d 0c 00	 cmp	 DWORD PTR _pParam$[ebp], 0
  02525	74 08		 je	 SHORT $L191842
  02527	8b 45 0c	 mov	 eax, DWORD PTR _pParam$[ebp]
  0252a	83 38 03	 cmp	 DWORD PTR [eax], 3
  0252d	76 05		 jbe	 SHORT $L191841
$L191842:

; 277  : 		return;

  0252f	e9 94 02 00 00	 jmp	 $L191840
$L191841:

; 278  : 
; 279  : 	if( pHTMLView)

  02534	83 7d 08 00	 cmp	 DWORD PTR _pHTMLView$[ebp], 0
  02538	0f 84 8a 02 00
	00		 je	 $L191840

; 280  : 	{
; 281  : 		m_WebPage.SetDocument( pHTMLView->GetHtmlDocument() );

  0253e	8b 4d 08	 mov	 ecx, DWORD PTR _pHTMLView$[ebp]
  02541	e8 00 00 00 00	 call	 ?GetHtmlDocument@CHtmlView@@QBEPAUIDispatch@@XZ ; CHtmlView::GetHtmlDocument
  02546	50		 push	 eax
  02547	8b 4d f0	 mov	 ecx, DWORD PTR _this$[ebp]
  0254a	e8 00 00 00 00	 call	 ?SetDocument@CWebPage@@QAE_NPAUIDispatch@@@Z ; CWebPage::SetDocument

; 282  : // 		m_WebPage.CallJScript("setdownloadpic",strCommand.c_str());
; 283  : 		switch (pParam->nParam)

  0254f	8b 4d 0c	 mov	 ecx, DWORD PTR _pParam$[ebp]
  02552	8b 11		 mov	 edx, DWORD PTR [ecx]
  02554	89 55 c4	 mov	 DWORD PTR tv68[ebp], edx
  02557	83 7d c4 03	 cmp	 DWORD PTR tv68[ebp], 3
  0255b	0f 87 67 02 00
	00		 ja	 $L191840
  02561	8b 45 c4	 mov	 eax, DWORD PTR tv68[ebp]
  02564	ff 24 85 00 00
	00 00		 jmp	 DWORD PTR $L193524[eax*4]
$L191848:

; 284  : 		{
; 285  : 		case 0:
; 286  : 			m_WebPage.CallJScript (pParam->strFunc.c_str ());

  0256b	6a 00		 push	 0
  0256d	8b 4d 0c	 mov	 ecx, DWORD PTR _pParam$[ebp]
  02570	83 c1 04	 add	 ecx, 4
  02573	8b f4		 mov	 esi, esp
  02575	ff 15 00 00 00
	00		 call	 DWORD PTR __imp_?c_str@?$basic_string@DU?$char_traits@D@std@@V?$allocator@D@2@@std@@QBEPBDXZ
  0257b	3b f4		 cmp	 esi, esp
  0257d	e8 00 00 00 00	 call	 __RTC_CheckEsp
  02582	51		 push	 ecx
  02583	8b cc		 mov	 ecx, esp
  02585	89 65 ec	 mov	 DWORD PTR $T193501[ebp], esp
  02588	8b f4		 mov	 esi, esp
  0258a	50		 push	 eax
  0258b	ff 15 00 00 00
	00		 call	 DWORD PTR __imp_??0?$CStringT@DV?$StrTraitMFC_DLL@DV?$ChTraitsCRT@D@ATL@@@@@ATL@@QAE@PBD@Z
  02591	3b f4		 cmp	 esi, esp
  02593	e8 00 00 00 00	 call	 __RTC_CheckEsp
  02598	89 45 c0	 mov	 DWORD PTR tv279[ebp], eax
  0259b	8b 4d f0	 mov	 ecx, DWORD PTR _this$[ebp]
  0259e	e8 00 00 00 00	 call	 ?CallJScript@CWebPage@@QAE_NV?$CStringT@DV?$StrTraitMFC_DLL@DV?$ChTraitsCRT@D@ATL@@@@@ATL@@PAVCComVariant@3@@Z ; CWebPage::CallJScript

; 287  : 			break;

  025a3	e9 20 02 00 00	 jmp	 $L191840
$L191850:

; 288  : 		case 1:
; 289  : 			m_WebPage.CallJScript (pParam->strFunc.c_str (), pParam->strParam1.c_str ());

  025a8	6a 00		 push	 0
  025aa	8b 4d 0c	 mov	 ecx, DWORD PTR _pParam$[ebp]
  025ad	83 c1 20	 add	 ecx, 32			; 00000020H
  025b0	8b f4		 mov	 esi, esp
  025b2	ff 15 00 00 00
	00		 call	 DWORD PTR __imp_?c_str@?$basic_string@DU?$char_traits@D@std@@V?$allocator@D@2@@std@@QBEPBDXZ
  025b8	3b f4		 cmp	 esi, esp
  025ba	e8 00 00 00 00	 call	 __RTC_CheckEsp
  025bf	51		 push	 ecx
  025c0	8b cc		 mov	 ecx, esp
  025c2	89 65 e8	 mov	 DWORD PTR $T193502[ebp], esp
  025c5	8b f4		 mov	 esi, esp
  025c7	50		 push	 eax
  025c8	ff 15 00 00 00
	00		 call	 DWORD PTR __imp_??0?$CStringT@DV?$StrTraitMFC_DLL@DV?$ChTraitsCRT@D@ATL@@@@@ATL@@QAE@PBD@Z
  025ce	3b f4		 cmp	 esi, esp
  025d0	e8 00 00 00 00	 call	 __RTC_CheckEsp
  025d5	89 45 bc	 mov	 DWORD PTR tv307[ebp], eax
  025d8	8b 4d bc	 mov	 ecx, DWORD PTR tv307[ebp]
  025db	89 4d b8	 mov	 DWORD PTR tv282[ebp], ecx
  025de	c7 45 fc 00 00
	00 00		 mov	 DWORD PTR __$EHRec$[ebp+8], 0
  025e5	8b 4d 0c	 mov	 ecx, DWORD PTR _pParam$[ebp]
  025e8	83 c1 04	 add	 ecx, 4
  025eb	8b f4		 mov	 esi, esp
  025ed	ff 15 00 00 00
	00		 call	 DWORD PTR __imp_?c_str@?$basic_string@DU?$char_traits@D@std@@V?$allocator@D@2@@std@@QBEPBDXZ
  025f3	3b f4		 cmp	 esi, esp
  025f5	e8 00 00 00 00	 call	 __RTC_CheckEsp
  025fa	51		 push	 ecx
  025fb	8b cc		 mov	 ecx, esp
  025fd	89 65 e4	 mov	 DWORD PTR $T193503[ebp], esp
  02600	8b f4		 mov	 esi, esp
  02602	50		 push	 eax
  02603	ff 15 00 00 00
	00		 call	 DWORD PTR __imp_??0?$CStringT@DV?$StrTraitMFC_DLL@DV?$ChTraitsCRT@D@ATL@@@@@ATL@@QAE@PBD@Z
  02609	3b f4		 cmp	 esi, esp
  0260b	e8 00 00 00 00	 call	 __RTC_CheckEsp
  02610	89 45 b4	 mov	 DWORD PTR tv285[ebp], eax
  02613	c7 45 fc ff ff
	ff ff		 mov	 DWORD PTR __$EHRec$[ebp+8], -1
  0261a	8b 4d f0	 mov	 ecx, DWORD PTR _this$[ebp]
  0261d	e8 00 00 00 00	 call	 ?CallJScript@CWebPage@@QAE_NV?$CStringT@DV?$StrTraitMFC_DLL@DV?$ChTraitsCRT@D@ATL@@@@@ATL@@0PAVCComVariant@3@@Z ; CWebPage::CallJScript

; 290  : 			break;

  02622	e9 a1 01 00 00	 jmp	 $L191840
$L191853:

; 291  : 		case 2:
; 292  : 			m_WebPage.CallJScript (pParam->strFunc.c_str (), pParam->strParam1.c_str (), pParam->strParam2.c_str ());

  02627	6a 00		 push	 0
  02629	8b 4d 0c	 mov	 ecx, DWORD PTR _pParam$[ebp]
  0262c	83 c1 3c	 add	 ecx, 60			; 0000003cH
  0262f	8b f4		 mov	 esi, esp
  02631	ff 15 00 00 00
	00		 call	 DWORD PTR __imp_?c_str@?$basic_string@DU?$char_traits@D@std@@V?$allocator@D@2@@std@@QBEPBDXZ
  02637	3b f4		 cmp	 esi, esp
  02639	e8 00 00 00 00	 call	 __RTC_CheckEsp
  0263e	51		 push	 ecx
  0263f	8b cc		 mov	 ecx, esp
  02641	89 65 e0	 mov	 DWORD PTR $T193504[ebp], esp
  02644	8b f4		 mov	 esi, esp
  02646	50		 push	 eax
  02647	ff 15 00 00 00
	00		 call	 DWORD PTR __imp_??0?$CStringT@DV?$StrTraitMFC_DLL@DV?$ChTraitsCRT@D@ATL@@@@@ATL@@QAE@PBD@Z
  0264d	3b f4		 cmp	 esi, esp
  0264f	e8 00 00 00 00	 call	 __RTC_CheckEsp
  02654	89 45 b0	 mov	 DWORD PTR tv310[ebp], eax
  02657	8b 55 b0	 mov	 edx, DWORD PTR tv310[ebp]
  0265a	89 55 ac	 mov	 DWORD PTR tv288[ebp], edx
  0265d	c7 45 fc 01 00
	00 00		 mov	 DWORD PTR __$EHRec$[ebp+8], 1
  02664	8b 4d 0c	 mov	 ecx, DWORD PTR _pParam$[ebp]
  02667	83 c1 20	 add	 ecx, 32			; 00000020H
  0266a	8b f4		 mov	 esi, esp
  0266c	ff 15 00 00 00
	00		 call	 DWORD PTR __imp_?c_str@?$basic_string@DU?$char_traits@D@std@@V?$allocator@D@2@@std@@QBEPBDXZ
  02672	3b f4		 cmp	 esi, esp
  02674	e8 00 00 00 00	 call	 __RTC_CheckEsp
  02679	51		 push	 ecx
  0267a	8b cc		 mov	 ecx, esp
  0267c	89 65 dc	 mov	 DWORD PTR $T193505[ebp], esp
  0267f	8b f4		 mov	 esi, esp
  02681	50		 push	 eax
  02682	ff 15 00 00 00
	00		 call	 DWORD PTR __imp_??0?$CStringT@DV?$StrTraitMFC_DLL@DV?$ChTraitsCRT@D@ATL@@@@@ATL@@QAE@PBD@Z
  02688	3b f4		 cmp	 esi, esp
  0268a	e8 00 00 00 00	 call	 __RTC_CheckEsp
  0268f	89 45 a8	 mov	 DWORD PTR tv313[ebp], eax
  02692	8b 45 a8	 mov	 eax, DWORD PTR tv313[ebp]
  02695	89 45 a4	 mov	 DWORD PTR tv291[ebp], eax
  02698	c6 45 fc 02	 mov	 BYTE PTR __$EHRec$[ebp+8], 2
  0269c	8b 4d 0c	 mov	 ecx, DWORD PTR _pParam$[ebp]
  0269f	83 c1 04	 add	 ecx, 4
  026a2	8b f4		 mov	 esi, esp
  026a4	ff 15 00 00 00
	00		 call	 DWORD PTR __imp_?c_str@?$basic_string@DU?$char_traits@D@std@@V?$allocator@D@2@@std@@QBEPBDXZ
  026aa	3b f4		 cmp	 esi, esp
  026ac	e8 00 00 00 00	 call	 __RTC_CheckEsp
  026b1	51		 push	 ecx
  026b2	8b cc		 mov	 ecx, esp
  026b4	89 65 d8	 mov	 DWORD PTR $T193506[ebp], esp
  026b7	8b f4		 mov	 esi, esp
  026b9	50		 push	 eax
  026ba	ff 15 00 00 00
	00		 call	 DWORD PTR __imp_??0?$CStringT@DV?$StrTraitMFC_DLL@DV?$ChTraitsCRT@D@ATL@@@@@ATL@@QAE@PBD@Z
  026c0	3b f4		 cmp	 esi, esp
  026c2	e8 00 00 00 00	 call	 __RTC_CheckEsp
  026c7	89 45 a0	 mov	 DWORD PTR tv294[ebp], eax
  026ca	c7 45 fc ff ff
	ff ff		 mov	 DWORD PTR __$EHRec$[ebp+8], -1
  026d1	8b 4d f0	 mov	 ecx, DWORD PTR _this$[ebp]
  026d4	e8 00 00 00 00	 call	 ?CallJScript@CWebPage@@QAE_NV?$CStringT@DV?$StrTraitMFC_DLL@DV?$ChTraitsCRT@D@ATL@@@@@ATL@@00PAVCComVariant@3@@Z ; CWebPage::CallJScript

; 293  : 			break;

  026d9	e9 ea 00 00 00	 jmp	 $L191840
$L191857:

; 294  : 		case 3:
; 295  : 			m_WebPage.CallJScript (pParam->strFunc.c_str (), pParam->strParam1.c_str (), pParam->strParam2.c_str (), pParam->strParam3.c_str ());

  026de	6a 00		 push	 0
  026e0	8b 4d 0c	 mov	 ecx, DWORD PTR _pParam$[ebp]
  026e3	83 c1 58	 add	 ecx, 88			; 00000058H
  026e6	8b f4		 mov	 esi, esp
  026e8	ff 15 00 00 00
	00		 call	 DWORD PTR __imp_?c_str@?$basic_string@DU?$char_traits@D@std@@V?$allocator@D@2@@std@@QBEPBDXZ
  026ee	3b f4		 cmp	 esi, esp
  026f0	e8 00 00 00 00	 call	 __RTC_CheckEsp
  026f5	51		 push	 ecx
  026f6	8b cc		 mov	 ecx, esp
  026f8	89 65 d4	 mov	 DWORD PTR $T193507[ebp], esp
  026fb	8b f4		 mov	 esi, esp
  026fd	50		 push	 eax
  026fe	ff 15 00 00 00
	00		 call	 DWORD PTR __imp_??0?$CStringT@DV?$StrTraitMFC_DLL@DV?$ChTraitsCRT@D@ATL@@@@@ATL@@QAE@PBD@Z
  02704	3b f4		 cmp	 esi, esp
  02706	e8 00 00 00 00	 call	 __RTC_CheckEsp
  0270b	89 45 9c	 mov	 DWORD PTR tv316[ebp], eax
  0270e	8b 4d 9c	 mov	 ecx, DWORD PTR tv316[ebp]
  02711	89 4d 98	 mov	 DWORD PTR tv297[ebp], ecx
  02714	c7 45 fc 03 00
	00 00		 mov	 DWORD PTR __$EHRec$[ebp+8], 3
  0271b	8b 4d 0c	 mov	 ecx, DWORD PTR _pParam$[ebp]
  0271e	83 c1 3c	 add	 ecx, 60			; 0000003cH
  02721	8b f4		 mov	 esi, esp
  02723	ff 15 00 00 00
	00		 call	 DWORD PTR __imp_?c_str@?$basic_string@DU?$char_traits@D@std@@V?$allocator@D@2@@std@@QBEPBDXZ
  02729	3b f4		 cmp	 esi, esp
  0272b	e8 00 00 00 00	 call	 __RTC_CheckEsp
  02730	51		 push	 ecx
  02731	8b cc		 mov	 ecx, esp
  02733	89 65 d0	 mov	 DWORD PTR $T193508[ebp], esp
  02736	8b f4		 mov	 esi, esp
  02738	50		 push	 eax
  02739	ff 15 00 00 00
	00		 call	 DWORD PTR __imp_??0?$CStringT@DV?$StrTraitMFC_DLL@DV?$ChTraitsCRT@D@ATL@@@@@ATL@@QAE@PBD@Z
  0273f	3b f4		 cmp	 esi, esp
  02741	e8 00 00 00 00	 call	 __RTC_CheckEsp
  02746	89 45 94	 mov	 DWORD PTR tv319[ebp], eax
  02749	8b 55 94	 mov	 edx, DWORD PTR tv319[ebp]
  0274c	89 55 90	 mov	 DWORD PTR tv300[ebp], edx
  0274f	c6 45 fc 04	 mov	 BYTE PTR __$EHRec$[ebp+8], 4
  02753	8b 4d 0c	 mov	 ecx, DWORD PTR _pParam$[ebp]
  02756	83 c1 20	 add	 ecx, 32			; 00000020H
  02759	8b f4		 mov	 esi, esp
  0275b	ff 15 00 00 00
	00		 call	 DWORD PTR __imp_?c_str@?$basic_string@DU?$char_traits@D@std@@V?$allocator@D@2@@std@@QBEPBDXZ
  02761	3b f4		 cmp	 esi, esp
  02763	e8 00 00 00 00	 call	 __RTC_CheckEsp
  02768	51		 push	 ecx
  02769	8b cc		 mov	 ecx, esp
  0276b	89 65 cc	 mov	 DWORD PTR $T193509[ebp], esp
  0276e	8b f4		 mov	 esi, esp
  02770	50		 push	 eax
  02771	ff 15 00 00 00
	00		 call	 DWORD PTR __imp_??0?$CStringT@DV?$StrTraitMFC_DLL@DV?$ChTraitsCRT@D@ATL@@@@@ATL@@QAE@PBD@Z
  02777	3b f4		 cmp	 esi, esp
  02779	e8 00 00 00 00	 call	 __RTC_CheckEsp
  0277e	89 45 8c	 mov	 DWORD PTR tv322[ebp], eax
  02781	8b 45 8c	 mov	 eax, DWORD PTR tv322[ebp]
  02784	89 45 88	 mov	 DWORD PTR tv303[ebp], eax
  02787	c6 45 fc 05	 mov	 BYTE PTR __$EHRec$[ebp+8], 5
  0278b	8b 4d 0c	 mov	 ecx, DWORD PTR _pParam$[ebp]
  0278e	83 c1 04	 add	 ecx, 4
  02791	8b f4		 mov	 esi, esp
  02793	ff 15 00 00 00
	00		 call	 DWORD PTR __imp_?c_str@?$basic_string@DU?$char_traits@D@std@@V?$allocator@D@2@@std@@QBEPBDXZ
  02799	3b f4		 cmp	 esi, esp
  0279b	e8 00 00 00 00	 call	 __RTC_CheckEsp
  027a0	51		 push	 ecx
  027a1	8b cc		 mov	 ecx, esp
  027a3	89 65 c8	 mov	 DWORD PTR $T193510[ebp], esp
  027a6	8b f4		 mov	 esi, esp
  027a8	50		 push	 eax
  027a9	ff 15 00 00 00
	00		 call	 DWORD PTR __imp_??0?$CStringT@DV?$StrTraitMFC_DLL@DV?$ChTraitsCRT@D@ATL@@@@@ATL@@QAE@PBD@Z
  027af	3b f4		 cmp	 esi, esp
  027b1	e8 00 00 00 00	 call	 __RTC_CheckEsp
  027b6	89 45 84	 mov	 DWORD PTR tv306[ebp], eax
  027b9	c7 45 fc ff ff
	ff ff		 mov	 DWORD PTR __$EHRec$[ebp+8], -1
  027c0	8b 4d f0	 mov	 ecx, DWORD PTR _this$[ebp]
  027c3	e8 00 00 00 00	 call	 ?CallJScript@CWebPage@@QAE_NV?$CStringT@DV?$StrTraitMFC_DLL@DV?$ChTraitsCRT@D@ATL@@@@@ATL@@000PAVCComVariant@3@@Z ; CWebPage::CallJScript
$L191840:

; 296  : 			break;
; 297  : 		default:
; 298  : 			break;
; 299  : 		}
; 300  : 	}
; 301  : }

  027c8	8b 4d f4	 mov	 ecx, DWORD PTR __$EHRec$[ebp]
  027cb	64 89 0d 00 00
	00 00		 mov	 DWORD PTR fs:__except_list, ecx
  027d2	5f		 pop	 edi
  027d3	5e		 pop	 esi
  027d4	83 c4 7c	 add	 esp, 124		; 0000007cH
  027d7	3b ec		 cmp	 ebp, esp
  027d9	e8 00 00 00 00	 call	 __RTC_CheckEsp
  027de	8b e5		 mov	 esp, ebp
  027e0	5d		 pop	 ebp
  027e1	c2 08 00	 ret	 8
$L193524:
  027e4	00 00 00 00	 DD	 $L191848
  027e8	00 00 00 00	 DD	 $L191850
  027ec	00 00 00 00	 DD	 $L191853
  027f0	00 00 00 00	 DD	 $L191857
_TEXT	ENDS
text$x	SEGMENT
$L193512:
  0055c	8b f4		 mov	 esi, esp
  0055e	8b 4d e8	 mov	 ecx, DWORD PTR $T193502[ebp]
  00561	ff 15 00 00 00
	00		 call	 DWORD PTR __imp_??1?$CStringT@DV?$StrTraitMFC_DLL@DV?$ChTraitsCRT@D@ATL@@@@@ATL@@QAE@XZ
  00567	3b f4		 cmp	 esi, esp
  00569	e9 00 00 00 00	 jmp	 __RTC_CheckEsp
$L193514:
  0056e	8b f4		 mov	 esi, esp
  00570	8b 4d e0	 mov	 ecx, DWORD PTR $T193504[ebp]
  00573	ff 15 00 00 00
	00		 call	 DWORD PTR __imp_??1?$CStringT@DV?$StrTraitMFC_DLL@DV?$ChTraitsCRT@D@ATL@@@@@ATL@@QAE@XZ
  00579	3b f4		 cmp	 esi, esp
  0057b	e9 00 00 00 00	 jmp	 __RTC_CheckEsp
$L193515:
  00580	8b f4		 mov	 esi, esp
  00582	8b 4d dc	 mov	 ecx, DWORD PTR $T193505[ebp]
  00585	ff 15 00 00 00
	00		 call	 DWORD PTR __imp_??1?$CStringT@DV?$StrTraitMFC_DLL@DV?$ChTraitsCRT@D@ATL@@@@@ATL@@QAE@XZ
  0058b	3b f4		 cmp	 esi, esp
  0058d	e9 00 00 00 00	 jmp	 __RTC_CheckEsp
$L193517:
  00592	8b f4		 mov	 esi, esp
  00594	8b 4d d4	 mov	 ecx, DWORD PTR $T193507[ebp]
  00597	ff 15 00 00 00
	00		 call	 DWORD PTR __imp_??1?$CStringT@DV?$StrTraitMFC_DLL@DV?$ChTraitsCRT@D@ATL@@@@@ATL@@QAE@XZ
  0059d	3b f4		 cmp	 esi, esp
  0059f	e9 00 00 00 00	 jmp	 __RTC_CheckEsp
$L193518:
  005a4	8b f4		 mov	 esi, esp
  005a6	8b 4d d0	 mov	 ecx, DWORD PTR $T193508[ebp]
  005a9	ff 15 00 00 00
	00		 call	 DWORD PTR __imp_??1?$CStringT@DV?$StrTraitMFC_DLL@DV?$ChTraitsCRT@D@ATL@@@@@ATL@@QAE@XZ
  005af	3b f4		 cmp	 esi, esp
  005b1	e9 00 00 00 00	 jmp	 __RTC_CheckEsp
$L193519:
  005b6	8b f4		 mov	 esi, esp
  005b8	8b 4d cc	 mov	 ecx, DWORD PTR $T193509[ebp]
  005bb	ff 15 00 00 00
	00		 call	 DWORD PTR __imp_??1?$CStringT@DV?$StrTraitMFC_DLL@DV?$ChTraitsCRT@D@ATL@@@@@ATL@@QAE@XZ
  005c1	3b f4		 cmp	 esi, esp
  005c3	e9 00 00 00 00	 jmp	 __RTC_CheckEsp
__ehhandler$?CallWebFromGBox@CWebManager@@QAEXPAVCHtmlView@@PAUCallJSParam@@@Z:
  005c8	b8 00 00 00 00	 mov	 eax, OFFSET FLAT:$T193522
  005cd	e9 00 00 00 00	 jmp	 ___CxxFrameHandler
text$x	ENDS
?CallWebFromGBox@CWebManager@@QAEXPAVCHtmlView@@PAUCallJSParam@@@Z ENDP ; CWebManager::CallWebFromGBox
EXTRN	__imp_?Mid@?$CStringT@DV?$StrTraitMFC_DLL@DV?$ChTraitsCRT@D@ATL@@@@@ATL@@QBE?AV12@HH@Z:NEAR
EXTRN	__imp_?GetLength@?$CSimpleStringT@D$00@ATL@@QBEHXZ:NEAR
EXTRN	__imp_??4?$CStringT@DV?$StrTraitMFC_DLL@DV?$ChTraitsCRT@D@ATL@@@@@ATL@@QAEAAV01@PBD@Z:NEAR
EXTRN	__imp_?Find@?$CStringT@DV?$StrTraitMFC_DLL@DV?$ChTraitsCRT@D@ATL@@@@@ATL@@QBEHDH@Z:NEAR
xdata$x	SEGMENT
$T193534 DD	0ffffffffH
	DD	FLAT:$L193529
	DD	0ffffffffH
	DD	FLAT:$L193530
$T193532 DD	019930520H
	DD	02H
	DD	FLAT:$T193534
	DD	2 DUP(00H)
	DD	2 DUP(00H)
; Function compile flags: /Odt /RTCsu
xdata$x	ENDS
_TEXT	SEGMENT
tv131 = -44						; size = 4
tv135 = -40						; size = 4
tv129 = -36						; size = 4
tv132 = -32						; size = 4
$T193528 = -28						; size = 4
$T193527 = -24						; size = 4
_iPosEq$ = -20						; size = 4
_this$ = -16						; size = 4
__$EHRec$ = -12						; size = 12
_strInput$ = 8						; size = 4
_strLeft$ = 12						; size = 4
_strRight$ = 16						; size = 4
?_string_help@CWebManager@@AAEXABV?$CStringT@DV?$StrTraitMFC_DLL@DV?$ChTraitsCRT@D@ATL@@@@@ATL@@AAV23@1@Z PROC NEAR ; CWebManager::_string_help
; _this$ = ecx

; 304  : {

  02800	55		 push	 ebp
  02801	8b ec		 mov	 ebp, esp
  02803	6a ff		 push	 -1
  02805	68 00 00 00 00	 push	 __ehhandler$?_string_help@CWebManager@@AAEXABV?$CStringT@DV?$StrTraitMFC_DLL@DV?$ChTraitsCRT@D@ATL@@@@@ATL@@AAV23@1@Z
  0280a	64 a1 00 00 00
	00		 mov	 eax, DWORD PTR fs:__except_list
  02810	50		 push	 eax
  02811	64 89 25 00 00
	00 00		 mov	 DWORD PTR fs:__except_list, esp
  02818	83 ec 20	 sub	 esp, 32			; 00000020H
  0281b	56		 push	 esi
  0281c	b8 cc cc cc cc	 mov	 eax, -858993460		; ccccccccH
  02821	89 45 d4	 mov	 DWORD PTR [ebp-44], eax
  02824	89 45 d8	 mov	 DWORD PTR [ebp-40], eax
  02827	89 45 dc	 mov	 DWORD PTR [ebp-36], eax
  0282a	89 45 e0	 mov	 DWORD PTR [ebp-32], eax
  0282d	89 45 e4	 mov	 DWORD PTR [ebp-28], eax
  02830	89 45 e8	 mov	 DWORD PTR [ebp-24], eax
  02833	89 45 ec	 mov	 DWORD PTR [ebp-20], eax
  02836	89 45 f0	 mov	 DWORD PTR [ebp-16], eax
  02839	89 4d f0	 mov	 DWORD PTR _this$[ebp], ecx

; 305  : 	strLeft = strRight = "";

  0283c	8b f4		 mov	 esi, esp
  0283e	68 00 00 00 00	 push	 OFFSET FLAT:$SG191869
  02843	8b 4d 10	 mov	 ecx, DWORD PTR _strRight$[ebp]
  02846	ff 15 00 00 00
	00		 call	 DWORD PTR __imp_??4?$CStringT@DV?$StrTraitMFC_DLL@DV?$ChTraitsCRT@D@ATL@@@@@ATL@@QAEAAV01@PBD@Z
  0284c	3b f4		 cmp	 esi, esp
  0284e	e8 00 00 00 00	 call	 __RTC_CheckEsp
  02853	8b f4		 mov	 esi, esp
  02855	50		 push	 eax
  02856	8b 4d 0c	 mov	 ecx, DWORD PTR _strLeft$[ebp]
  02859	ff 15 00 00 00
	00		 call	 DWORD PTR __imp_??4?$CStringT@DV?$StrTraitMFC_DLL@DV?$ChTraitsCRT@D@ATL@@@@@ATL@@QAEAAV01@ABV01@@Z
  0285f	3b f4		 cmp	 esi, esp
  02861	e8 00 00 00 00	 call	 __RTC_CheckEsp

; 306  : 
; 307  : 	int iPosEq = strInput.Find('=');

  02866	8b f4		 mov	 esi, esp
  02868	6a 00		 push	 0
  0286a	6a 3d		 push	 61			; 0000003dH
  0286c	8b 4d 08	 mov	 ecx, DWORD PTR _strInput$[ebp]
  0286f	ff 15 00 00 00
	00		 call	 DWORD PTR __imp_?Find@?$CStringT@DV?$StrTraitMFC_DLL@DV?$ChTraitsCRT@D@ATL@@@@@ATL@@QBEHDH@Z
  02875	3b f4		 cmp	 esi, esp
  02877	e8 00 00 00 00	 call	 __RTC_CheckEsp
  0287c	89 45 ec	 mov	 DWORD PTR _iPosEq$[ebp], eax

; 308  : 	if( iPosEq == -1 )

  0287f	83 7d ec ff	 cmp	 DWORD PTR _iPosEq$[ebp], -1
  02883	75 05		 jne	 SHORT $L191871

; 309  : 	{
; 310  : 		return;

  02885	e9 ce 00 00 00	 jmp	 $L191868
$L191871:

; 311  : 	}
; 312  : 	strLeft		= strInput.Left(iPosEq);

  0288a	8b f4		 mov	 esi, esp
  0288c	8b 45 ec	 mov	 eax, DWORD PTR _iPosEq$[ebp]
  0288f	50		 push	 eax
  02890	8d 4d e8	 lea	 ecx, DWORD PTR $T193527[ebp]
  02893	51		 push	 ecx
  02894	8b 4d 08	 mov	 ecx, DWORD PTR _strInput$[ebp]
  02897	ff 15 00 00 00
	00		 call	 DWORD PTR __imp_?Left@?$CStringT@DV?$StrTraitMFC_DLL@DV?$ChTraitsCRT@D@ATL@@@@@ATL@@QBE?AV12@H@Z
  0289d	3b f4		 cmp	 esi, esp
  0289f	e8 00 00 00 00	 call	 __RTC_CheckEsp
  028a4	89 45 e0	 mov	 DWORD PTR tv132[ebp], eax
  028a7	8b 55 e0	 mov	 edx, DWORD PTR tv132[ebp]
  028aa	89 55 dc	 mov	 DWORD PTR tv129[ebp], edx
  028ad	c7 45 fc 00 00
	00 00		 mov	 DWORD PTR __$EHRec$[ebp+8], 0
  028b4	8b f4		 mov	 esi, esp
  028b6	8b 45 dc	 mov	 eax, DWORD PTR tv129[ebp]
  028b9	50		 push	 eax
  028ba	8b 4d 0c	 mov	 ecx, DWORD PTR _strLeft$[ebp]
  028bd	ff 15 00 00 00
	00		 call	 DWORD PTR __imp_??4?$CStringT@DV?$StrTraitMFC_DLL@DV?$ChTraitsCRT@D@ATL@@@@@ATL@@QAEAAV01@ABV01@@Z
  028c3	3b f4		 cmp	 esi, esp
  028c5	e8 00 00 00 00	 call	 __RTC_CheckEsp
  028ca	c7 45 fc ff ff
	ff ff		 mov	 DWORD PTR __$EHRec$[ebp+8], -1
  028d1	8b f4		 mov	 esi, esp
  028d3	8d 4d e8	 lea	 ecx, DWORD PTR $T193527[ebp]
  028d6	ff 15 00 00 00
	00		 call	 DWORD PTR __imp_??1?$CStringT@DV?$StrTraitMFC_DLL@DV?$ChTraitsCRT@D@ATL@@@@@ATL@@QAE@XZ
  028dc	3b f4		 cmp	 esi, esp
  028de	e8 00 00 00 00	 call	 __RTC_CheckEsp

; 313  : 	strRight	= strInput.Mid(iPosEq+1,strInput.GetLength()-iPosEq-1);

  028e3	8b f4		 mov	 esi, esp
  028e5	8b 4d 08	 mov	 ecx, DWORD PTR _strInput$[ebp]
  028e8	ff 15 00 00 00
	00		 call	 DWORD PTR __imp_?GetLength@?$CSimpleStringT@D$00@ATL@@QBEHXZ
  028ee	3b f4		 cmp	 esi, esp
  028f0	e8 00 00 00 00	 call	 __RTC_CheckEsp
  028f5	2b 45 ec	 sub	 eax, DWORD PTR _iPosEq$[ebp]
  028f8	83 e8 01	 sub	 eax, 1
  028fb	8b f4		 mov	 esi, esp
  028fd	50		 push	 eax
  028fe	8b 4d ec	 mov	 ecx, DWORD PTR _iPosEq$[ebp]
  02901	83 c1 01	 add	 ecx, 1
  02904	51		 push	 ecx
  02905	8d 55 e4	 lea	 edx, DWORD PTR $T193528[ebp]
  02908	52		 push	 edx
  02909	8b 4d 08	 mov	 ecx, DWORD PTR _strInput$[ebp]
  0290c	ff 15 00 00 00
	00		 call	 DWORD PTR __imp_?Mid@?$CStringT@DV?$StrTraitMFC_DLL@DV?$ChTraitsCRT@D@ATL@@@@@ATL@@QBE?AV12@HH@Z
  02912	3b f4		 cmp	 esi, esp
  02914	e8 00 00 00 00	 call	 __RTC_CheckEsp
  02919	89 45 d8	 mov	 DWORD PTR tv135[ebp], eax
  0291c	8b 45 d8	 mov	 eax, DWORD PTR tv135[ebp]
  0291f	89 45 d4	 mov	 DWORD PTR tv131[ebp], eax
  02922	c7 45 fc 01 00
	00 00		 mov	 DWORD PTR __$EHRec$[ebp+8], 1
  02929	8b f4		 mov	 esi, esp
  0292b	8b 4d d4	 mov	 ecx, DWORD PTR tv131[ebp]
  0292e	51		 push	 ecx
  0292f	8b 4d 10	 mov	 ecx, DWORD PTR _strRight$[ebp]
  02932	ff 15 00 00 00
	00		 call	 DWORD PTR __imp_??4?$CStringT@DV?$StrTraitMFC_DLL@DV?$ChTraitsCRT@D@ATL@@@@@ATL@@QAEAAV01@ABV01@@Z
  02938	3b f4		 cmp	 esi, esp
  0293a	e8 00 00 00 00	 call	 __RTC_CheckEsp
  0293f	c7 45 fc ff ff
	ff ff		 mov	 DWORD PTR __$EHRec$[ebp+8], -1
  02946	8b f4		 mov	 esi, esp
  02948	8d 4d e4	 lea	 ecx, DWORD PTR $T193528[ebp]
  0294b	ff 15 00 00 00
	00		 call	 DWORD PTR __imp_??1?$CStringT@DV?$StrTraitMFC_DLL@DV?$ChTraitsCRT@D@ATL@@@@@ATL@@QAE@XZ
  02951	3b f4		 cmp	 esi, esp
  02953	e8 00 00 00 00	 call	 __RTC_CheckEsp
$L191868:

; 314  : }

  02958	8b 4d f4	 mov	 ecx, DWORD PTR __$EHRec$[ebp]
  0295b	64 89 0d 00 00
	00 00		 mov	 DWORD PTR fs:__except_list, ecx
  02962	5e		 pop	 esi
  02963	83 c4 2c	 add	 esp, 44			; 0000002cH
  02966	3b ec		 cmp	 ebp, esp
  02968	e8 00 00 00 00	 call	 __RTC_CheckEsp
  0296d	8b e5		 mov	 esp, ebp
  0296f	5d		 pop	 ebp
  02970	c2 0c 00	 ret	 12			; 0000000cH
_TEXT	ENDS
text$x	SEGMENT
$L193529:
  005d2	8b f4		 mov	 esi, esp
  005d4	8d 4d e8	 lea	 ecx, DWORD PTR $T193527[ebp]
  005d7	ff 15 00 00 00
	00		 call	 DWORD PTR __imp_??1?$CStringT@DV?$StrTraitMFC_DLL@DV?$ChTraitsCRT@D@ATL@@@@@ATL@@QAE@XZ
  005dd	3b f4		 cmp	 esi, esp
  005df	e9 00 00 00 00	 jmp	 __RTC_CheckEsp
$L193530:
  005e4	8b f4		 mov	 esi, esp
  005e6	8d 4d e4	 lea	 ecx, DWORD PTR $T193528[ebp]
  005e9	ff 15 00 00 00
	00		 call	 DWORD PTR __imp_??1?$CStringT@DV?$StrTraitMFC_DLL@DV?$ChTraitsCRT@D@ATL@@@@@ATL@@QAE@XZ
  005ef	3b f4		 cmp	 esi, esp
  005f1	e9 00 00 00 00	 jmp	 __RTC_CheckEsp
__ehhandler$?_string_help@CWebManager@@AAEXABV?$CStringT@DV?$StrTraitMFC_DLL@DV?$ChTraitsCRT@D@ATL@@@@@ATL@@AAV23@1@Z:
  005f6	b8 00 00 00 00	 mov	 eax, OFFSET FLAT:$T193532
  005fb	e9 00 00 00 00	 jmp	 ___CxxFrameHandler
text$x	ENDS
?_string_help@CWebManager@@AAEXABV?$CStringT@DV?$StrTraitMFC_DLL@DV?$ChTraitsCRT@D@ATL@@@@@ATL@@AAV23@1@Z ENDP ; CWebManager::_string_help
; Function compile flags: /Odt /RTCsu
; File d:\program files (x86)\microsoft visual studio .net 2003\vc7\atlmfc\include\cstringt.h
;	COMDAT ??8ATL@@YA_NABV?$CStringT@DV?$StrTraitMFC_DLL@DV?$ChTraitsCRT@D@ATL@@@@@0@PBD@Z
_TEXT	SEGMENT
_str1$ = 8						; size = 4
_psz2$ = 12						; size = 4
??8ATL@@YA_NABV?$CStringT@DV?$StrTraitMFC_DLL@DV?$ChTraitsCRT@D@ATL@@@@@0@PBD@Z PROC NEAR ; ATL::operator==, COMDAT

; 2087 : 	{

  00000	55		 push	 ebp
  00001	8b ec		 mov	 ebp, esp
  00003	56		 push	 esi

; 2088 : 		return( str1.Compare( psz2 ) == 0 );

  00004	8b f4		 mov	 esi, esp
  00006	8b 45 0c	 mov	 eax, DWORD PTR _psz2$[ebp]
  00009	50		 push	 eax
  0000a	8b 4d 08	 mov	 ecx, DWORD PTR _str1$[ebp]
  0000d	ff 15 00 00 00
	00		 call	 DWORD PTR __imp_?Compare@?$CStringT@DV?$StrTraitMFC_DLL@DV?$ChTraitsCRT@D@ATL@@@@@ATL@@QBEHPBD@Z
  00013	3b f4		 cmp	 esi, esp
  00015	e8 00 00 00 00	 call	 __RTC_CheckEsp
  0001a	f7 d8		 neg	 eax
  0001c	1b c0		 sbb	 eax, eax
  0001e	40		 inc	 eax

; 2089 : 	}

  0001f	5e		 pop	 esi
  00020	3b ec		 cmp	 ebp, esp
  00022	e8 00 00 00 00	 call	 __RTC_CheckEsp
  00027	5d		 pop	 ebp
  00028	c3		 ret	 0
??8ATL@@YA_NABV?$CStringT@DV?$StrTraitMFC_DLL@DV?$ChTraitsCRT@D@ATL@@@@@0@PBD@Z ENDP ; ATL::operator==
; Function compile flags: /Odt /RTCsu
_TEXT	ENDS
;	COMDAT ??9ATL@@YA_NABV?$CStringT@DV?$StrTraitMFC_DLL@DV?$ChTraitsCRT@D@ATL@@@@@0@PBD@Z
_TEXT	SEGMENT
_str1$ = 8						; size = 4
_psz2$ = 12						; size = 4
??9ATL@@YA_NABV?$CStringT@DV?$StrTraitMFC_DLL@DV?$ChTraitsCRT@D@ATL@@@@@0@PBD@Z PROC NEAR ; ATL::operator!=, COMDAT

; 2121 : 	{

  00000	55		 push	 ebp
  00001	8b ec		 mov	 ebp, esp
  00003	56		 push	 esi

; 2122 : 		return( str1.Compare( psz2 ) != 0 );

  00004	8b f4		 mov	 esi, esp
  00006	8b 45 0c	 mov	 eax, DWORD PTR _psz2$[ebp]
  00009	50		 push	 eax
  0000a	8b 4d 08	 mov	 ecx, DWORD PTR _str1$[ebp]
  0000d	ff 15 00 00 00
	00		 call	 DWORD PTR __imp_?Compare@?$CStringT@DV?$StrTraitMFC_DLL@DV?$ChTraitsCRT@D@ATL@@@@@ATL@@QBEHPBD@Z
  00013	3b f4		 cmp	 esi, esp
  00015	e8 00 00 00 00	 call	 __RTC_CheckEsp
  0001a	f7 d8		 neg	 eax
  0001c	1b c0		 sbb	 eax, eax
  0001e	f7 d8		 neg	 eax

; 2123 : 	}

  00020	5e		 pop	 esi
  00021	3b ec		 cmp	 ebp, esp
  00023	e8 00 00 00 00	 call	 __RTC_CheckEsp
  00028	5d		 pop	 ebp
  00029	c3		 ret	 0
??9ATL@@YA_NABV?$CStringT@DV?$StrTraitMFC_DLL@DV?$ChTraitsCRT@D@ATL@@@@@0@PBD@Z ENDP ; ATL::operator!=
_TEXT	ENDS
PUBLIC	?_AtlInstallStringThunk@ATL@@YAXPAPAXPAX1@Z	; ATL::_AtlInstallStringThunk
PUBLIC	?GetEnvironmentVariableWFake@ATL@@YGKPB_WPA_WK@Z ; ATL::GetEnvironmentVariableWFake
EXTRN	__imp__GetEnvironmentVariableW@12:NEAR
; Function compile flags: /Odt /RTCsu
;	COMDAT ?GetEnvironmentVariableWThunk@ATL@@YGKPB_WPA_WK@Z
_TEXT	SEGMENT
_pszName$ = 8						; size = 4
_pszBuffer$ = 12					; size = 4
_nSize$ = 16						; size = 4
?GetEnvironmentVariableWThunk@ATL@@YGKPB_WPA_WK@Z PROC NEAR ; ATL::GetEnvironmentVariableWThunk, COMDAT

; 183  : {

  00000	55		 push	 ebp
  00001	8b ec		 mov	 ebp, esp
  00003	56		 push	 esi

; 184  : 	_AtlInstallStringThunk(reinterpret_cast<void**>(&_strthunks.pfnGetEnvironmentVariableW), 
; 185  : 		GetEnvironmentVariableWFake, ::GetEnvironmentVariableW);

  00004	a1 00 00 00 00	 mov	 eax, DWORD PTR __imp__GetEnvironmentVariableW@12
  00009	50		 push	 eax
  0000a	68 00 00 00 00	 push	 OFFSET FLAT:?GetEnvironmentVariableWFake@ATL@@YGKPB_WPA_WK@Z ; ATL::GetEnvironmentVariableWFake
  0000f	68 14 00 00 00	 push	 OFFSET FLAT:?_strthunks@ATL@@3U_AtlStringThunks@1@A+20
  00014	e8 00 00 00 00	 call	 ?_AtlInstallStringThunk@ATL@@YAXPAPAXPAX1@Z ; ATL::_AtlInstallStringThunk
  00019	83 c4 0c	 add	 esp, 12			; 0000000cH

; 186  : 
; 187  : 	return _strthunks.pfnGetEnvironmentVariableW(pszName, pszBuffer, nSize);

  0001c	8b f4		 mov	 esi, esp
  0001e	8b 4d 10	 mov	 ecx, DWORD PTR _nSize$[ebp]
  00021	51		 push	 ecx
  00022	8b 55 0c	 mov	 edx, DWORD PTR _pszBuffer$[ebp]
  00025	52		 push	 edx
  00026	8b 45 08	 mov	 eax, DWORD PTR _pszName$[ebp]
  00029	50		 push	 eax
  0002a	ff 15 14 00 00
	00		 call	 DWORD PTR ?_strthunks@ATL@@3U_AtlStringThunks@1@A+20
  00030	3b f4		 cmp	 esi, esp
  00032	e8 00 00 00 00	 call	 __RTC_CheckEsp

; 188  : }

  00037	5e		 pop	 esi
  00038	3b ec		 cmp	 ebp, esp
  0003a	e8 00 00 00 00	 call	 __RTC_CheckEsp
  0003f	5d		 pop	 ebp
  00040	c2 0c 00	 ret	 12			; 0000000cH
?GetEnvironmentVariableWThunk@ATL@@YGKPB_WPA_WK@Z ENDP	; ATL::GetEnvironmentVariableWThunk
_TEXT	ENDS
PUBLIC	?s_bWin9x@?1??_AtlInstallStringThunk@ATL@@YAXPAPAXPAX1@Z@4_NA ; `ATL::_AtlInstallStringThunk'::`2'::s_bWin9x
PUBLIC	??_B?1??_AtlInstallStringThunk@ATL@@YAXPAPAXPAX1@Z@51 ; `ATL::_AtlInstallStringThunk'::`2'::`local static guard'
EXTRN	__imp__GetVersion@0:NEAR
;	COMDAT ?s_bWin9x@?1??_AtlInstallStringThunk@ATL@@YAXPAPAXPAX1@Z@4_NA
_BSS	SEGMENT
?s_bWin9x@?1??_AtlInstallStringThunk@ATL@@YAXPAPAXPAX1@Z@4_NA DB 01H DUP (?) ; `ATL::_AtlInstallStringThunk'::`2'::s_bWin9x
_BSS	ENDS
;	COMDAT ??_B?1??_AtlInstallStringThunk@ATL@@YAXPAPAXPAX1@Z@51
_BSS	SEGMENT
??_B?1??_AtlInstallStringThunk@ATL@@YAXPAPAXPAX1@Z@51 DD 01H DUP (?) ; `ATL::_AtlInstallStringThunk'::`2'::`local static guard'
; Function compile flags: /Odt /RTCsu
_BSS	ENDS
;	COMDAT ?_AtlInstallStringThunk@ATL@@YAXPAPAXPAX1@Z
_TEXT	SEGMENT
_pfn$ = -4						; size = 4
_ppThunk$ = 8						; size = 4
_pfnWin9x$ = 12						; size = 4
_pfnNT$ = 16						; size = 4
?_AtlInstallStringThunk@ATL@@YAXPAPAXPAX1@Z PROC NEAR	; ATL::_AtlInstallStringThunk, COMDAT

; 115  : {

  00000	55		 push	 ebp
  00001	8b ec		 mov	 ebp, esp
  00003	51		 push	 ecx
  00004	56		 push	 esi
  00005	c7 45 fc cc cc
	cc cc		 mov	 DWORD PTR [ebp-4], -858993460 ; ccccccccH

; 116  : #pragma warning (push)
; 117  : #pragma warning (disable : 4640)	// construction of local static object is not thread-safe
; 118  : 
; 119  : 	static bool s_bWin9x = (::GetVersion()&0x80000000) != 0;

  0000c	a1 00 00 00 00	 mov	 eax, DWORD PTR ??_B?1??_AtlInstallStringThunk@ATL@@YAXPAPAXPAX1@Z@51
  00011	83 e0 01	 and	 eax, 1
  00014	75 2e		 jne	 SHORT $L26217
  00016	8b 0d 00 00 00
	00		 mov	 ecx, DWORD PTR ??_B?1??_AtlInstallStringThunk@ATL@@YAXPAPAXPAX1@Z@51
  0001c	83 c9 01	 or	 ecx, 1
  0001f	89 0d 00 00 00
	00		 mov	 DWORD PTR ??_B?1??_AtlInstallStringThunk@ATL@@YAXPAPAXPAX1@Z@51, ecx
  00025	8b f4		 mov	 esi, esp
  00027	ff 15 00 00 00
	00		 call	 DWORD PTR __imp__GetVersion@0
  0002d	3b f4		 cmp	 esi, esp
  0002f	e8 00 00 00 00	 call	 __RTC_CheckEsp
  00034	25 00 00 00 80	 and	 eax, -2147483648	; 80000000H
  00039	f7 d8		 neg	 eax
  0003b	1b c0		 sbb	 eax, eax
  0003d	f7 d8		 neg	 eax
  0003f	a2 00 00 00 00	 mov	 BYTE PTR ?s_bWin9x@?1??_AtlInstallStringThunk@ATL@@YAXPAPAXPAX1@Z@4_NA, al ; `ATL::_AtlInstallStringThunk'::`2'::s_bWin9x
$L26217:

; 120  : 	
; 121  : #pragma warning (pop)
; 122  : 
; 123  : 	void* pfn;
; 124  : 	if (s_bWin9x)

  00044	0f b6 15 00 00
	00 00		 movzx	 edx, BYTE PTR ?s_bWin9x@?1??_AtlInstallStringThunk@ATL@@YAXPAPAXPAX1@Z@4_NA ; `ATL::_AtlInstallStringThunk'::`2'::s_bWin9x
  0004b	85 d2		 test	 edx, edx
  0004d	74 08		 je	 SHORT $L26219

; 125  : 		pfn = pfnWin9x;

  0004f	8b 45 0c	 mov	 eax, DWORD PTR _pfnWin9x$[ebp]
  00052	89 45 fc	 mov	 DWORD PTR _pfn$[ebp], eax

; 126  : 	else

  00055	eb 06		 jmp	 SHORT $L26220
$L26219:

; 127  : 	{
; 128  : #ifdef _CSTRING_ALWAYS_THUNK
; 129  : 		pfn = pfnWin9x;
; 130  : 		(void)pfnNT;
; 131  : #else
; 132  : 		pfn = pfnNT;

  00057	8b 4d 10	 mov	 ecx, DWORD PTR _pfnNT$[ebp]
  0005a	89 4d fc	 mov	 DWORD PTR _pfn$[ebp], ecx
$L26220:

; 133  : #endif
; 134  : 	}
; 135  : 	InterlockedExchangePointer(ppThunk, pfn);

  0005d	8b 55 fc	 mov	 edx, DWORD PTR _pfn$[ebp]
  00060	52		 push	 edx
  00061	8b 45 08	 mov	 eax, DWORD PTR _ppThunk$[ebp]
  00064	50		 push	 eax
  00065	e8 00 00 00 00	 call	 ?InterlockedExchangePointer@@YGPAXPAPAXPAX@Z ; InterlockedExchangePointer

; 136  : }

  0006a	5e		 pop	 esi
  0006b	83 c4 04	 add	 esp, 4
  0006e	3b ec		 cmp	 ebp, esp
  00070	e8 00 00 00 00	 call	 __RTC_CheckEsp
  00075	8b e5		 mov	 esp, ebp
  00077	5d		 pop	 ebp
  00078	c3		 ret	 0
?_AtlInstallStringThunk@ATL@@YAXPAPAXPAX1@Z ENDP	; ATL::_AtlInstallStringThunk
_TEXT	ENDS
PUBLIC	??_C@_0FH@KDPNIMBO@D?3?2Program?5Files?5?$CIx86?$CJ?2Microsoft@ ; `string'
PUBLIC	?_AtlGetConversionACP@ATL@@YGIXZ		; ATL::_AtlGetConversionACP
PUBLIC	??0?$CTempBuffer@D$0IA@VCCRTAllocator@ATL@@@ATL@@QAE@XZ ; ATL::CTempBuffer<char,128,ATL::CCRTAllocator>::CTempBuffer<char,128,ATL::CCRTAllocator>
PUBLIC	??1?$CTempBuffer@D$0IA@VCCRTAllocator@ATL@@@ATL@@QAE@XZ ; ATL::CTempBuffer<char,128,ATL::CCRTAllocator>::~CTempBuffer<char,128,ATL::CCRTAllocator>
PUBLIC	??B?$CTempBuffer@D$0IA@VCCRTAllocator@ATL@@@ATL@@QBEPADXZ ; ATL::CTempBuffer<char,128,ATL::CCRTAllocator>::operator char *
PUBLIC	?Allocate@?$CTempBuffer@D$0IA@VCCRTAllocator@ATL@@@ATL@@QAEPADI@Z ; ATL::CTempBuffer<char,128,ATL::CCRTAllocator>::Allocate
PUBLIC	??0?$CW2AEX@$0IA@@ATL@@QAE@PB_W@Z		; ATL::CW2AEX<128>::CW2AEX<128>
PUBLIC	??1?$CW2AEX@$0IA@@ATL@@QAE@XZ			; ATL::CW2AEX<128>::~CW2AEX<128>
PUBLIC	??B?$CW2AEX@$0IA@@ATL@@QBEPADXZ			; ATL::CW2AEX<128>::operator char *
PUBLIC	??_C@_0BA@CLMJJCOM@nSize?5?$DO?$DN?5nSizeW?$AA@	; `string'
EXTRN	__imp___CrtDbgReport:NEAR
EXTRN	__imp__MultiByteToWideChar@24:NEAR
EXTRN	__imp__GetEnvironmentVariableA@12:NEAR
;	COMDAT xdata$x
xdata$x	SEGMENT
$T193555 DD	0ffffffffH
	DD	FLAT:$L193545
	DD	00H
	DD	FLAT:$L193546
$T193548 DD	019930520H
	DD	02H
	DD	FLAT:$T193555
	DD	2 DUP(00H)
	DD	2 DUP(00H)
xdata$x	ENDS
;	COMDAT ??_C@_0BA@CLMJJCOM@nSize?5?$DO?$DN?5nSizeW?$AA@
CONST	SEGMENT
??_C@_0BA@CLMJJCOM@nSize?5?$DO?$DN?5nSizeW?$AA@ DB 'nSize >= nSizeW', 00H ; `string'
CONST	ENDS
;	COMDAT ??_C@_0FH@KDPNIMBO@D?3?2Program?5Files?5?$CIx86?$CJ?2Microsoft@
CONST	SEGMENT
??_C@_0FH@KDPNIMBO@D?3?2Program?5Files?5?$CIx86?$CJ?2Microsoft@ DB 'D:\Pr'
	DB	'ogram Files (x86)\Microsoft Visual Studio .NET 2003\Vc7\atlmf'
	DB	'c\include\cstringt.h', 00H			; `string'
; Function compile flags: /Odt /RTCsu
CONST	ENDS
;	COMDAT ?GetEnvironmentVariableWFake@ATL@@YGKPB_WPA_WK@Z
_TEXT	SEGMENT
$T193544 = -316						; size = 4
$T193542 = -312						; size = 4
$T193541 = -308						; size = 4
_pszNameA$ = -300					; size = 132
_pszBufferA$ = -160					; size = 132
_nSizeW$ = -24						; size = 4
_nSizeA$ = -20						; size = 4
__$ArrayPad$ = -16					; size = 4
__$EHRec$ = -12						; size = 12
__$ReturnAddr$ = 4					; size = 4
_pszName$ = 8						; size = 4
_pszBuffer$ = 12					; size = 4
_nSize$ = 16						; size = 4
?GetEnvironmentVariableWFake@ATL@@YGKPB_WPA_WK@Z PROC NEAR ; ATL::GetEnvironmentVariableWFake, COMDAT

; 159  : {

  00000	55		 push	 ebp
  00001	8b ec		 mov	 ebp, esp
  00003	6a ff		 push	 -1
  00005	68 00 00 00 00	 push	 __ehhandler$?GetEnvironmentVariableWFake@ATL@@YGKPB_WPA_WK@Z
  0000a	64 a1 00 00 00
	00		 mov	 eax, DWORD PTR fs:__except_list
  00010	50		 push	 eax
  00011	64 89 25 00 00
	00 00		 mov	 DWORD PTR fs:__except_list, esp
  00018	81 ec 30 01 00
	00		 sub	 esp, 304		; 00000130H
  0001e	56		 push	 esi
  0001f	57		 push	 edi
  00020	8d bd c4 fe ff
	ff		 lea	 edi, DWORD PTR [ebp-316]
  00026	b9 4c 00 00 00	 mov	 ecx, 76			; 0000004cH
  0002b	b8 cc cc cc cc	 mov	 eax, -858993460		; ccccccccH
  00030	f3 ab		 rep stosd
  00032	a1 00 00 00 00	 mov	 eax, DWORD PTR ___security_cookie
  00037	89 45 f0	 mov	 DWORD PTR __$ArrayPad$[ebp], eax

; 160  : 	ULONG nSizeA;
; 161  : 	ULONG nSizeW;
; 162  : 	CTempBuffer<char> pszBufferA;

  0003a	8d 8d 60 ff ff
	ff		 lea	 ecx, DWORD PTR _pszBufferA$[ebp]
  00040	e8 00 00 00 00	 call	 ??0?$CTempBuffer@D$0IA@VCCRTAllocator@ATL@@@ATL@@QAE@XZ ; ATL::CTempBuffer<char,128,ATL::CCRTAllocator>::CTempBuffer<char,128,ATL::CCRTAllocator>
  00045	c7 45 fc 00 00
	00 00		 mov	 DWORD PTR __$EHRec$[ebp+8], 0

; 163  : 	CW2A pszNameA(pszName);

  0004c	8b 45 08	 mov	 eax, DWORD PTR _pszName$[ebp]
  0004f	50		 push	 eax
  00050	8d 8d d4 fe ff
	ff		 lea	 ecx, DWORD PTR _pszNameA$[ebp]
  00056	e8 00 00 00 00	 call	 ??0?$CW2AEX@$0IA@@ATL@@QAE@PB_W@Z ; ATL::CW2AEX<128>::CW2AEX<128>
  0005b	c6 45 fc 01	 mov	 BYTE PTR __$EHRec$[ebp+8], 1

; 164  : 
; 165  : 	nSizeA = ::GetEnvironmentVariableA(pszNameA, NULL, 0);

  0005f	8b f4		 mov	 esi, esp
  00061	6a 00		 push	 0
  00063	6a 00		 push	 0
  00065	8d 8d d4 fe ff
	ff		 lea	 ecx, DWORD PTR _pszNameA$[ebp]
  0006b	e8 00 00 00 00	 call	 ??B?$CW2AEX@$0IA@@ATL@@QBEPADXZ ; ATL::CW2AEX<128>::operator char *
  00070	50		 push	 eax
  00071	ff 15 00 00 00
	00		 call	 DWORD PTR __imp__GetEnvironmentVariableA@12
  00077	3b f4		 cmp	 esi, esp
  00079	e8 00 00 00 00	 call	 __RTC_CheckEsp
  0007e	89 45 ec	 mov	 DWORD PTR _nSizeA$[ebp], eax

; 166  : 	if (nSizeA == 0)

  00081	83 7d ec 00	 cmp	 DWORD PTR _nSizeA$[ebp], 0
  00085	75 36		 jne	 SHORT $L26322

; 167  : 		return 0;

  00087	c7 85 cc fe ff
	ff 00 00 00 00	 mov	 DWORD PTR $T193541[ebp], 0
  00091	c6 45 fc 00	 mov	 BYTE PTR __$EHRec$[ebp+8], 0
  00095	8d 8d d4 fe ff
	ff		 lea	 ecx, DWORD PTR _pszNameA$[ebp]
  0009b	e8 00 00 00 00	 call	 ??1?$CW2AEX@$0IA@@ATL@@QAE@XZ ; ATL::CW2AEX<128>::~CW2AEX<128>
  000a0	c7 45 fc ff ff
	ff ff		 mov	 DWORD PTR __$EHRec$[ebp+8], -1
  000a7	8d 8d 60 ff ff
	ff		 lea	 ecx, DWORD PTR _pszBufferA$[ebp]
  000ad	e8 00 00 00 00	 call	 ??1?$CTempBuffer@D$0IA@VCCRTAllocator@ATL@@@ATL@@QAE@XZ ; ATL::CTempBuffer<char,128,ATL::CCRTAllocator>::~CTempBuffer<char,128,ATL::CCRTAllocator>
  000b2	8b 85 cc fe ff
	ff		 mov	 eax, DWORD PTR $T193541[ebp]
  000b8	e9 33 01 00 00	 jmp	 $L26263
$L26322:

; 168  : 
; 169  : 	pszBufferA.Allocate(nSizeA*2);

  000bd	8b 4d ec	 mov	 ecx, DWORD PTR _nSizeA$[ebp]
  000c0	d1 e1		 shl	 ecx, 1
  000c2	51		 push	 ecx
  000c3	8d 8d 60 ff ff
	ff		 lea	 ecx, DWORD PTR _pszBufferA$[ebp]
  000c9	e8 00 00 00 00	 call	 ?Allocate@?$CTempBuffer@D$0IA@VCCRTAllocator@ATL@@@ATL@@QAEPADI@Z ; ATL::CTempBuffer<char,128,ATL::CCRTAllocator>::Allocate

; 170  : 	::GetEnvironmentVariableA(pszNameA, pszBufferA, nSizeA);

  000ce	8b f4		 mov	 esi, esp
  000d0	8b 55 ec	 mov	 edx, DWORD PTR _nSizeA$[ebp]
  000d3	52		 push	 edx
  000d4	8d 8d 60 ff ff
	ff		 lea	 ecx, DWORD PTR _pszBufferA$[ebp]
  000da	e8 00 00 00 00	 call	 ??B?$CTempBuffer@D$0IA@VCCRTAllocator@ATL@@@ATL@@QBEPADXZ ; ATL::CTempBuffer<char,128,ATL::CCRTAllocator>::operator char *
  000df	50		 push	 eax
  000e0	8d 8d d4 fe ff
	ff		 lea	 ecx, DWORD PTR _pszNameA$[ebp]
  000e6	e8 00 00 00 00	 call	 ??B?$CW2AEX@$0IA@@ATL@@QBEPADXZ ; ATL::CW2AEX<128>::operator char *
  000eb	50		 push	 eax
  000ec	ff 15 00 00 00
	00		 call	 DWORD PTR __imp__GetEnvironmentVariableA@12
  000f2	3b f4		 cmp	 esi, esp
  000f4	e8 00 00 00 00	 call	 __RTC_CheckEsp

; 171  : 
; 172  : 	nSizeW = ::MultiByteToWideChar(_AtlGetConversionACP(), 0, pszBufferA, -1, NULL, 0);

  000f9	8b f4		 mov	 esi, esp
  000fb	6a 00		 push	 0
  000fd	6a 00		 push	 0
  000ff	6a ff		 push	 -1
  00101	8d 8d 60 ff ff
	ff		 lea	 ecx, DWORD PTR _pszBufferA$[ebp]
  00107	e8 00 00 00 00	 call	 ??B?$CTempBuffer@D$0IA@VCCRTAllocator@ATL@@@ATL@@QBEPADXZ ; ATL::CTempBuffer<char,128,ATL::CCRTAllocator>::operator char *
  0010c	50		 push	 eax
  0010d	6a 00		 push	 0
  0010f	e8 00 00 00 00	 call	 ?_AtlGetConversionACP@ATL@@YGIXZ ; ATL::_AtlGetConversionACP
  00114	50		 push	 eax
  00115	ff 15 00 00 00
	00		 call	 DWORD PTR __imp__MultiByteToWideChar@24
  0011b	3b f4		 cmp	 esi, esp
  0011d	e8 00 00 00 00	 call	 __RTC_CheckEsp
  00122	89 45 e8	 mov	 DWORD PTR _nSizeW$[ebp], eax

; 173  : 	if (nSize == 0)

  00125	83 7d 10 00	 cmp	 DWORD PTR _nSize$[ebp], 0
  00129	75 35		 jne	 SHORT $L26324

; 174  : 		return nSizeW;

  0012b	8b 45 e8	 mov	 eax, DWORD PTR _nSizeW$[ebp]
  0012e	89 85 c8 fe ff
	ff		 mov	 DWORD PTR $T193542[ebp], eax
  00134	c6 45 fc 00	 mov	 BYTE PTR __$EHRec$[ebp+8], 0
  00138	8d 8d d4 fe ff
	ff		 lea	 ecx, DWORD PTR _pszNameA$[ebp]
  0013e	e8 00 00 00 00	 call	 ??1?$CW2AEX@$0IA@@ATL@@QAE@XZ ; ATL::CW2AEX<128>::~CW2AEX<128>
  00143	c7 45 fc ff ff
	ff ff		 mov	 DWORD PTR __$EHRec$[ebp+8], -1
  0014a	8d 8d 60 ff ff
	ff		 lea	 ecx, DWORD PTR _pszBufferA$[ebp]
  00150	e8 00 00 00 00	 call	 ??1?$CTempBuffer@D$0IA@VCCRTAllocator@ATL@@@ATL@@QAE@XZ ; ATL::CTempBuffer<char,128,ATL::CCRTAllocator>::~CTempBuffer<char,128,ATL::CCRTAllocator>
  00155	8b 85 c8 fe ff
	ff		 mov	 eax, DWORD PTR $T193542[ebp]
  0015b	e9 90 00 00 00	 jmp	 $L26263
$L26324:

; 175  : 	ATLASSERT(nSize >= nSizeW);

  00160	8b 4d 10	 mov	 ecx, DWORD PTR _nSize$[ebp]
  00163	3b 4d e8	 cmp	 ecx, DWORD PTR _nSizeW$[ebp]
  00166	73 2b		 jae	 SHORT $L193543
  00168	8b f4		 mov	 esi, esp
  0016a	68 00 00 00 00	 push	 OFFSET FLAT:??_C@_0BA@CLMJJCOM@nSize?5?$DO?$DN?5nSizeW?$AA@
  0016f	6a 00		 push	 0
  00171	68 af 00 00 00	 push	 175			; 000000afH
  00176	68 00 00 00 00	 push	 OFFSET FLAT:??_C@_0FH@KDPNIMBO@D?3?2Program?5Files?5?$CIx86?$CJ?2Microsoft@
  0017b	6a 02		 push	 2
  0017d	ff 15 00 00 00
	00		 call	 DWORD PTR __imp___CrtDbgReport
  00183	83 c4 14	 add	 esp, 20			; 00000014H
  00186	3b f4		 cmp	 esi, esp
  00188	e8 00 00 00 00	 call	 __RTC_CheckEsp
  0018d	83 f8 01	 cmp	 eax, 1
  00190	75 01		 jne	 SHORT $L193543
  00192	cc		 int	 3
$L193543:

; 176  : 	::MultiByteToWideChar(_AtlGetConversionACP(), 0, pszBufferA, -1, pszBuffer, nSizeW);

  00193	8b f4		 mov	 esi, esp
  00195	8b 45 e8	 mov	 eax, DWORD PTR _nSizeW$[ebp]
  00198	50		 push	 eax
  00199	8b 4d 0c	 mov	 ecx, DWORD PTR _pszBuffer$[ebp]
  0019c	51		 push	 ecx
  0019d	6a ff		 push	 -1
  0019f	8d 8d 60 ff ff
	ff		 lea	 ecx, DWORD PTR _pszBufferA$[ebp]
  001a5	e8 00 00 00 00	 call	 ??B?$CTempBuffer@D$0IA@VCCRTAllocator@ATL@@@ATL@@QBEPADXZ ; ATL::CTempBuffer<char,128,ATL::CCRTAllocator>::operator char *
  001aa	50		 push	 eax
  001ab	6a 00		 push	 0
  001ad	e8 00 00 00 00	 call	 ?_AtlGetConversionACP@ATL@@YGIXZ ; ATL::_AtlGetConversionACP
  001b2	50		 push	 eax
  001b3	ff 15 00 00 00
	00		 call	 DWORD PTR __imp__MultiByteToWideChar@24
  001b9	3b f4		 cmp	 esi, esp
  001bb	e8 00 00 00 00	 call	 __RTC_CheckEsp

; 177  : 
; 178  : 	return nSizeW;

  001c0	8b 55 e8	 mov	 edx, DWORD PTR _nSizeW$[ebp]
  001c3	89 95 c4 fe ff
	ff		 mov	 DWORD PTR $T193544[ebp], edx
  001c9	c6 45 fc 00	 mov	 BYTE PTR __$EHRec$[ebp+8], 0
  001cd	8d 8d d4 fe ff
	ff		 lea	 ecx, DWORD PTR _pszNameA$[ebp]
  001d3	e8 00 00 00 00	 call	 ??1?$CW2AEX@$0IA@@ATL@@QAE@XZ ; ATL::CW2AEX<128>::~CW2AEX<128>
  001d8	c7 45 fc ff ff
	ff ff		 mov	 DWORD PTR __$EHRec$[ebp+8], -1
  001df	8d 8d 60 ff ff
	ff		 lea	 ecx, DWORD PTR _pszBufferA$[ebp]
  001e5	e8 00 00 00 00	 call	 ??1?$CTempBuffer@D$0IA@VCCRTAllocator@ATL@@@ATL@@QAE@XZ ; ATL::CTempBuffer<char,128,ATL::CCRTAllocator>::~CTempBuffer<char,128,ATL::CCRTAllocator>
  001ea	8b 85 c4 fe ff
	ff		 mov	 eax, DWORD PTR $T193544[ebp]
$L26263:

; 179  : }

  001f0	52		 push	 edx
  001f1	8b cd		 mov	 ecx, ebp
  001f3	50		 push	 eax
  001f4	8d 15 00 00 00
	00		 lea	 edx, DWORD PTR $L193554
  001fa	e8 00 00 00 00	 call	 @_RTC_CheckStackVars@8
  001ff	58		 pop	 eax
  00200	5a		 pop	 edx
  00201	8b 4d f4	 mov	 ecx, DWORD PTR __$EHRec$[ebp]
  00204	64 89 0d 00 00
	00 00		 mov	 DWORD PTR fs:__except_list, ecx
  0020b	8b 4d f0	 mov	 ecx, DWORD PTR __$ArrayPad$[ebp]
  0020e	e8 00 00 00 00	 call	 @__security_check_cookie@4
  00213	5f		 pop	 edi
  00214	5e		 pop	 esi
  00215	81 c4 3c 01 00
	00		 add	 esp, 316		; 0000013cH
  0021b	3b ec		 cmp	 ebp, esp
  0021d	e8 00 00 00 00	 call	 __RTC_CheckEsp
  00222	8b e5		 mov	 esp, ebp
  00224	5d		 pop	 ebp
  00225	c2 0c 00	 ret	 12			; 0000000cH
$L193554:
  00228	02 00 00 00	 DD	 2
  0022c	00 00 00 00	 DD	 $L193553
$L193553:
  00230	60 ff ff ff	 DD	 -160			; ffffff60H
  00234	84 00 00 00	 DD	 132			; 00000084H
  00238	00 00 00 00	 DD	 $L193549
  0023c	d4 fe ff ff	 DD	 -300			; fffffed4H
  00240	84 00 00 00	 DD	 132			; 00000084H
  00244	00 00 00 00	 DD	 $L193550
$L193550:
  00248	70		 DB	 112			; 00000070H
  00249	73		 DB	 115			; 00000073H
  0024a	7a		 DB	 122			; 0000007aH
  0024b	4e		 DB	 78			; 0000004eH
  0024c	61		 DB	 97			; 00000061H
  0024d	6d		 DB	 109			; 0000006dH
  0024e	65		 DB	 101			; 00000065H
  0024f	41		 DB	 65			; 00000041H
  00250	00		 DB	 0
$L193549:
  00251	70		 DB	 112			; 00000070H
  00252	73		 DB	 115			; 00000073H
  00253	7a		 DB	 122			; 0000007aH
  00254	42		 DB	 66			; 00000042H
  00255	75		 DB	 117			; 00000075H
  00256	66		 DB	 102			; 00000066H
  00257	66		 DB	 102			; 00000066H
  00258	65		 DB	 101			; 00000065H
  00259	72		 DB	 114			; 00000072H
  0025a	41		 DB	 65			; 00000041H
  0025b	00		 DB	 0
_TEXT	ENDS
;	COMDAT text$x
text$x	SEGMENT
$L193545:
  00000	8d 8d 60 ff ff
	ff		 lea	 ecx, DWORD PTR _pszBufferA$[ebp]
  00006	e9 00 00 00 00	 jmp	 ??1?$CTempBuffer@D$0IA@VCCRTAllocator@ATL@@@ATL@@QAE@XZ ; ATL::CTempBuffer<char,128,ATL::CCRTAllocator>::~CTempBuffer<char,128,ATL::CCRTAllocator>
$L193546:
  0000b	8d 8d d4 fe ff
	ff		 lea	 ecx, DWORD PTR _pszNameA$[ebp]
  00011	e9 00 00 00 00	 jmp	 ??1?$CW2AEX@$0IA@@ATL@@QAE@XZ ; ATL::CW2AEX<128>::~CW2AEX<128>
__ehhandler$?GetEnvironmentVariableWFake@ATL@@YGKPB_WPA_WK@Z:
  00016	b8 00 00 00 00	 mov	 eax, OFFSET FLAT:$T193548
  0001b	e9 00 00 00 00	 jmp	 ___CxxFrameHandler
text$x	ENDS
?GetEnvironmentVariableWFake@ATL@@YGKPB_WPA_WK@Z ENDP	; ATL::GetEnvironmentVariableWFake
; Function compile flags: /Odt /RTCsu
; File d:\program files (x86)\microsoft visual studio .net 2003\vc7\atlmfc\include\atlconv.h
;	COMDAT ?_AtlGetConversionACP@ATL@@YGIXZ
_TEXT	SEGMENT
?_AtlGetConversionACP@ATL@@YGIXZ PROC NEAR		; ATL::_AtlGetConversionACP, COMDAT

; 157  : {

  00000	55		 push	 ebp
  00001	8b ec		 mov	 ebp, esp
  00003	56		 push	 esi

; 158  : 	return( g_pfnGetThreadACP() );

  00004	8b f4		 mov	 esi, esp
  00006	ff 15 00 00 00
	00		 call	 DWORD PTR ?g_pfnGetThreadACP@ATL@@3P6GIXZA ; ATL::g_pfnGetThreadACP
  0000c	3b f4		 cmp	 esi, esp
  0000e	e8 00 00 00 00	 call	 __RTC_CheckEsp

; 159  : }

  00013	5e		 pop	 esi
  00014	3b ec		 cmp	 ebp, esp
  00016	e8 00 00 00 00	 call	 __RTC_CheckEsp
  0001b	5d		 pop	 ebp
  0001c	c3		 ret	 0
?_AtlGetConversionACP@ATL@@YGIXZ ENDP			; ATL::_AtlGetConversionACP
_TEXT	ENDS
PUBLIC	??0?$_Vector_val@UTAB_ITEM@@V?$allocator@UTAB_ITEM@@@std@@@std@@IAE@V?$allocator@UTAB_ITEM@@@1@@Z ; std::_Vector_val<TAB_ITEM,std::allocator<TAB_ITEM> >::_Vector_val<TAB_ITEM,std::allocator<TAB_ITEM> >
PUBLIC	??0?$allocator@UTAB_ITEM@@@std@@QAE@XZ		; std::allocator<TAB_ITEM>::allocator<TAB_ITEM>
PUBLIC	?_Buy@?$vector@UTAB_ITEM@@V?$allocator@UTAB_ITEM@@@std@@@std@@IAE_NI@Z ; std::vector<TAB_ITEM,std::allocator<TAB_ITEM> >::_Buy
; Function compile flags: /Odt /RTCsu
; File d:\program files (x86)\microsoft visual studio .net 2003\vc7\include\vector
;	COMDAT ??0?$vector@UTAB_ITEM@@V?$allocator@UTAB_ITEM@@@std@@@std@@QAE@XZ
_TEXT	SEGMENT
_this$ = -4						; size = 4
??0?$vector@UTAB_ITEM@@V?$allocator@UTAB_ITEM@@@std@@@std@@QAE@XZ PROC NEAR ; std::vector<TAB_ITEM,std::allocator<TAB_ITEM> >::vector<TAB_ITEM,std::allocator<TAB_ITEM> >, COMDAT
; _this$ = ecx

; 299  : 		{	// construct empty vector

  00000	55		 push	 ebp
  00001	8b ec		 mov	 ebp, esp
  00003	83 ec 08	 sub	 esp, 8
  00006	c7 45 f8 cc cc
	cc cc		 mov	 DWORD PTR [ebp-8], -858993460 ; ccccccccH
  0000d	c7 45 fc cc cc
	cc cc		 mov	 DWORD PTR [ebp-4], -858993460 ; ccccccccH
  00014	89 4d fc	 mov	 DWORD PTR _this$[ebp], ecx
  00017	51		 push	 ecx
  00018	8b cc		 mov	 ecx, esp
  0001a	e8 00 00 00 00	 call	 ??0?$allocator@UTAB_ITEM@@@std@@QAE@XZ ; std::allocator<TAB_ITEM>::allocator<TAB_ITEM>
  0001f	8b 4d fc	 mov	 ecx, DWORD PTR _this$[ebp]
  00022	e8 00 00 00 00	 call	 ??0?$_Vector_val@UTAB_ITEM@@V?$allocator@UTAB_ITEM@@@std@@@std@@IAE@V?$allocator@UTAB_ITEM@@@1@@Z ; std::_Vector_val<TAB_ITEM,std::allocator<TAB_ITEM> >::_Vector_val<TAB_ITEM,std::allocator<TAB_ITEM> >

; 300  : 		_Buy(0);

  00027	6a 00		 push	 0
  00029	8b 4d fc	 mov	 ecx, DWORD PTR _this$[ebp]
  0002c	e8 00 00 00 00	 call	 ?_Buy@?$vector@UTAB_ITEM@@V?$allocator@UTAB_ITEM@@@std@@@std@@IAE_NI@Z ; std::vector<TAB_ITEM,std::allocator<TAB_ITEM> >::_Buy

; 301  : 		}

  00031	8b 45 fc	 mov	 eax, DWORD PTR _this$[ebp]
  00034	83 c4 08	 add	 esp, 8
  00037	3b ec		 cmp	 ebp, esp
  00039	e8 00 00 00 00	 call	 __RTC_CheckEsp
  0003e	8b e5		 mov	 esp, ebp
  00040	5d		 pop	 ebp
  00041	c3		 ret	 0
??0?$vector@UTAB_ITEM@@V?$allocator@UTAB_ITEM@@@std@@@std@@QAE@XZ ENDP ; std::vector<TAB_ITEM,std::allocator<TAB_ITEM> >::vector<TAB_ITEM,std::allocator<TAB_ITEM> >
_TEXT	ENDS
PUBLIC	?_Tidy@?$vector@UTAB_ITEM@@V?$allocator@UTAB_ITEM@@@std@@@std@@IAEXXZ ; std::vector<TAB_ITEM,std::allocator<TAB_ITEM> >::_Tidy
; Function compile flags: /Odt /RTCsu
;	COMDAT ??1?$vector@UTAB_ITEM@@V?$allocator@UTAB_ITEM@@@std@@@std@@QAE@XZ
_TEXT	SEGMENT
_this$ = -4						; size = 4
??1?$vector@UTAB_ITEM@@V?$allocator@UTAB_ITEM@@@std@@@std@@QAE@XZ PROC NEAR ; std::vector<TAB_ITEM,std::allocator<TAB_ITEM> >::~vector<TAB_ITEM,std::allocator<TAB_ITEM> >, COMDAT
; _this$ = ecx

; 387  : 		{	// destroy the object

  00000	55		 push	 ebp
  00001	8b ec		 mov	 ebp, esp
  00003	51		 push	 ecx
  00004	c7 45 fc cc cc
	cc cc		 mov	 DWORD PTR [ebp-4], -858993460 ; ccccccccH
  0000b	89 4d fc	 mov	 DWORD PTR _this$[ebp], ecx

; 388  : 		_Tidy();

  0000e	8b 4d fc	 mov	 ecx, DWORD PTR _this$[ebp]
  00011	e8 00 00 00 00	 call	 ?_Tidy@?$vector@UTAB_ITEM@@V?$allocator@UTAB_ITEM@@@std@@@std@@IAEXXZ ; std::vector<TAB_ITEM,std::allocator<TAB_ITEM> >::_Tidy

; 389  : 		}

  00016	83 c4 04	 add	 esp, 4
  00019	3b ec		 cmp	 ebp, esp
  0001b	e8 00 00 00 00	 call	 __RTC_CheckEsp
  00020	8b e5		 mov	 esp, ebp
  00022	5d		 pop	 ebp
  00023	c3		 ret	 0
??1?$vector@UTAB_ITEM@@V?$allocator@UTAB_ITEM@@@std@@@std@@QAE@XZ ENDP ; std::vector<TAB_ITEM,std::allocator<TAB_ITEM> >::~vector<TAB_ITEM,std::allocator<TAB_ITEM> >
_TEXT	ENDS
PUBLIC	?_Buynode@?$list@PAVIMessageObserver@@V?$allocator@PAVIMessageObserver@@@std@@@std@@IAEPAU_Node@?$_List_nod@PAVIMessageObserver@@V?$allocator@PAVIMessageObserver@@@std@@@2@XZ ; std::list<IMessageObserver *,std::allocator<IMessageObserver *> >::_Buynode
PUBLIC	??0?$allocator@PAVIMessageObserver@@@std@@QAE@XZ ; std::allocator<IMessageObserver *>::allocator<IMessageObserver *>
PUBLIC	??0?$_List_val@PAVIMessageObserver@@V?$allocator@PAVIMessageObserver@@@std@@@std@@IAE@V?$allocator@PAVIMessageObserver@@@1@@Z ; std::_List_val<IMessageObserver *,std::allocator<IMessageObserver *> >::_List_val<IMessageObserver *,std::allocator<IMessageObserver *> >
; Function compile flags: /Odt /RTCsu
; File d:\program files (x86)\microsoft visual studio .net 2003\vc7\include\list
;	COMDAT ??0?$list@PAVIMessageObserver@@V?$allocator@PAVIMessageObserver@@@std@@@std@@QAE@XZ
_TEXT	SEGMENT
_this$ = -4						; size = 4
??0?$list@PAVIMessageObserver@@V?$allocator@PAVIMessageObserver@@@std@@@std@@QAE@XZ PROC NEAR ; std::list<IMessageObserver *,std::allocator<IMessageObserver *> >::list<IMessageObserver *,std::allocator<IMessageObserver *> >, COMDAT
; _this$ = ecx

; 280  : 		{	// construct empty list

  00000	55		 push	 ebp
  00001	8b ec		 mov	 ebp, esp
  00003	83 ec 08	 sub	 esp, 8
  00006	c7 45 f8 cc cc
	cc cc		 mov	 DWORD PTR [ebp-8], -858993460 ; ccccccccH
  0000d	c7 45 fc cc cc
	cc cc		 mov	 DWORD PTR [ebp-4], -858993460 ; ccccccccH
  00014	89 4d fc	 mov	 DWORD PTR _this$[ebp], ecx
  00017	51		 push	 ecx
  00018	8b cc		 mov	 ecx, esp
  0001a	e8 00 00 00 00	 call	 ??0?$allocator@PAVIMessageObserver@@@std@@QAE@XZ ; std::allocator<IMessageObserver *>::allocator<IMessageObserver *>
  0001f	8b 4d fc	 mov	 ecx, DWORD PTR _this$[ebp]
  00022	e8 00 00 00 00	 call	 ??0?$_List_val@PAVIMessageObserver@@V?$allocator@PAVIMessageObserver@@@std@@@std@@IAE@V?$allocator@PAVIMessageObserver@@@1@@Z ; std::_List_val<IMessageObserver *,std::allocator<IMessageObserver *> >::_List_val<IMessageObserver *,std::allocator<IMessageObserver *> >
  00027	8b 4d fc	 mov	 ecx, DWORD PTR _this$[ebp]
  0002a	e8 00 00 00 00	 call	 ?_Buynode@?$list@PAVIMessageObserver@@V?$allocator@PAVIMessageObserver@@@std@@@std@@IAEPAU_Node@?$_List_nod@PAVIMessageObserver@@V?$allocator@PAVIMessageObserver@@@std@@@2@XZ ; std::list<IMessageObserver *,std::allocator<IMessageObserver *> >::_Buynode
  0002f	8b 4d fc	 mov	 ecx, DWORD PTR _this$[ebp]
  00032	89 41 04	 mov	 DWORD PTR [ecx+4], eax
  00035	8b 55 fc	 mov	 edx, DWORD PTR _this$[ebp]
  00038	c7 42 08 00 00
	00 00		 mov	 DWORD PTR [edx+8], 0

; 281  : 		}

  0003f	8b 45 fc	 mov	 eax, DWORD PTR _this$[ebp]
  00042	83 c4 08	 add	 esp, 8
  00045	3b ec		 cmp	 ebp, esp
  00047	e8 00 00 00 00	 call	 __RTC_CheckEsp
  0004c	8b e5		 mov	 esp, ebp
  0004e	5d		 pop	 ebp
  0004f	c3		 ret	 0
??0?$list@PAVIMessageObserver@@V?$allocator@PAVIMessageObserver@@@std@@@std@@QAE@XZ ENDP ; std::list<IMessageObserver *,std::allocator<IMessageObserver *> >::list<IMessageObserver *,std::allocator<IMessageObserver *> >
_TEXT	ENDS
PUBLIC	?_Tidy@?$list@PAVIMessageObserver@@V?$allocator@PAVIMessageObserver@@@std@@@std@@IAEXXZ ; std::list<IMessageObserver *,std::allocator<IMessageObserver *> >::_Tidy
; Function compile flags: /Odt /RTCsu
;	COMDAT ??1?$list@PAVIMessageObserver@@V?$allocator@PAVIMessageObserver@@@std@@@std@@QAE@XZ
_TEXT	SEGMENT
_this$ = -4						; size = 4
??1?$list@PAVIMessageObserver@@V?$allocator@PAVIMessageObserver@@@std@@@std@@QAE@XZ PROC NEAR ; std::list<IMessageObserver *,std::allocator<IMessageObserver *> >::~list<IMessageObserver *,std::allocator<IMessageObserver *> >, COMDAT
; _this$ = ecx

; 364  : 		{	// destroy the object

  00000	55		 push	 ebp
  00001	8b ec		 mov	 ebp, esp
  00003	51		 push	 ecx
  00004	c7 45 fc cc cc
	cc cc		 mov	 DWORD PTR [ebp-4], -858993460 ; ccccccccH
  0000b	89 4d fc	 mov	 DWORD PTR _this$[ebp], ecx

; 365  : 		_Tidy();

  0000e	8b 4d fc	 mov	 ecx, DWORD PTR _this$[ebp]
  00011	e8 00 00 00 00	 call	 ?_Tidy@?$list@PAVIMessageObserver@@V?$allocator@PAVIMessageObserver@@@std@@@std@@IAEXXZ ; std::list<IMessageObserver *,std::allocator<IMessageObserver *> >::_Tidy

; 366  : 		}

  00016	83 c4 04	 add	 esp, 4
  00019	3b ec		 cmp	 ebp, esp
  0001b	e8 00 00 00 00	 call	 __RTC_CheckEsp
  00020	8b e5		 mov	 esp, ebp
  00022	5d		 pop	 ebp
  00023	c3		 ret	 0
??1?$list@PAVIMessageObserver@@V?$allocator@PAVIMessageObserver@@@std@@@std@@QAE@XZ ENDP ; std::list<IMessageObserver *,std::allocator<IMessageObserver *> >::~list<IMessageObserver *,std::allocator<IMessageObserver *> >
_TEXT	ENDS
PUBLIC	?CompareStringWFake@ATL@@YGHKKPB_WH0H@Z		; ATL::CompareStringWFake
EXTRN	__imp__CompareStringW@24:NEAR
; Function compile flags: /Odt /RTCsu
; File d:\program files (x86)\microsoft visual studio .net 2003\vc7\atlmfc\include\cstringt.h
;	COMDAT ?CompareStringWThunk@ATL@@YGHKKPB_WH0H@Z
_TEXT	SEGMENT
_lcid$ = 8						; size = 4
_dwFlags$ = 12						; size = 4
_pszString1$ = 16					; size = 4
_nLength1$ = 20						; size = 4
_pszString2$ = 24					; size = 4
_nLength2$ = 28						; size = 4
?CompareStringWThunk@ATL@@YGHKKPB_WH0H@Z PROC NEAR	; ATL::CompareStringWThunk, COMDAT

; 216  : {

  00000	55		 push	 ebp
  00001	8b ec		 mov	 ebp, esp
  00003	56		 push	 esi

; 217  : 	_AtlInstallStringThunk(reinterpret_cast<void**>(&_strthunks.pfnCompareStringW), CompareStringWFake, ::CompareStringW);

  00004	a1 00 00 00 00	 mov	 eax, DWORD PTR __imp__CompareStringW@24
  00009	50		 push	 eax
  0000a	68 00 00 00 00	 push	 OFFSET FLAT:?CompareStringWFake@ATL@@YGHKKPB_WH0H@Z ; ATL::CompareStringWFake
  0000f	68 00 00 00 00	 push	 OFFSET FLAT:?_strthunks@ATL@@3U_AtlStringThunks@1@A ; ATL::_strthunks
  00014	e8 00 00 00 00	 call	 ?_AtlInstallStringThunk@ATL@@YAXPAPAXPAX1@Z ; ATL::_AtlInstallStringThunk
  00019	83 c4 0c	 add	 esp, 12			; 0000000cH

; 218  : 
; 219  : 	return _strthunks.pfnCompareStringW(lcid, dwFlags, pszString1, nLength1, pszString2, nLength2);

  0001c	8b f4		 mov	 esi, esp
  0001e	8b 4d 1c	 mov	 ecx, DWORD PTR _nLength2$[ebp]
  00021	51		 push	 ecx
  00022	8b 55 18	 mov	 edx, DWORD PTR _pszString2$[ebp]
  00025	52		 push	 edx
  00026	8b 45 14	 mov	 eax, DWORD PTR _nLength1$[ebp]
  00029	50		 push	 eax
  0002a	8b 4d 10	 mov	 ecx, DWORD PTR _pszString1$[ebp]
  0002d	51		 push	 ecx
  0002e	8b 55 0c	 mov	 edx, DWORD PTR _dwFlags$[ebp]
  00031	52		 push	 edx
  00032	8b 45 08	 mov	 eax, DWORD PTR _lcid$[ebp]
  00035	50		 push	 eax
  00036	ff 15 00 00 00
	00		 call	 DWORD PTR ?_strthunks@ATL@@3U_AtlStringThunks@1@A
  0003c	3b f4		 cmp	 esi, esp
  0003e	e8 00 00 00 00	 call	 __RTC_CheckEsp

; 220  : }

  00043	5e		 pop	 esi
  00044	3b ec		 cmp	 ebp, esp
  00046	e8 00 00 00 00	 call	 __RTC_CheckEsp
  0004b	5d		 pop	 ebp
  0004c	c2 18 00	 ret	 24			; 00000018H
?CompareStringWThunk@ATL@@YGHKKPB_WH0H@Z ENDP		; ATL::CompareStringWThunk
_TEXT	ENDS
PUBLIC	?_AtlVerifyStackAvailable@_ATL_SAFE_ALLOCA_IMPL@ATL@@YA_NK@Z ; ATL::_ATL_SAFE_ALLOCA_IMPL::_AtlVerifyStackAvailable
PUBLIC	?AtlThrow@ATL@@YGXJ@Z				; ATL::AtlThrow
PUBLIC	?AtlW2AHelper@@YGPADPADPB_WHI@Z			; AtlW2AHelper
PUBLIC	??0?$CAtlSafeAllocBufferManager@VCCRTAllocator@ATL@@@_ATL_SAFE_ALLOCA_IMPL@ATL@@QAE@XZ ; ATL::_ATL_SAFE_ALLOCA_IMPL::CAtlSafeAllocBufferManager<ATL::CCRTAllocator>::CAtlSafeAllocBufferManager<ATL::CCRTAllocator>
PUBLIC	?Allocate@?$CAtlSafeAllocBufferManager@VCCRTAllocator@ATL@@@_ATL_SAFE_ALLOCA_IMPL@ATL@@QAEPAXK@Z ; ATL::_ATL_SAFE_ALLOCA_IMPL::CAtlSafeAllocBufferManager<ATL::CCRTAllocator>::Allocate
PUBLIC	??1?$CAtlSafeAllocBufferManager@VCCRTAllocator@ATL@@@_ATL_SAFE_ALLOCA_IMPL@ATL@@QAE@XZ ; ATL::_ATL_SAFE_ALLOCA_IMPL::CAtlSafeAllocBufferManager<ATL::CCRTAllocator>::~CAtlSafeAllocBufferManager<ATL::CCRTAllocator>
EXTRN	__alloca_probe:NEAR
EXTRN	__imp__lstrlenW@4:NEAR
EXTRN	__imp__CompareStringA@24:NEAR
;	COMDAT xdata$x
xdata$x	SEGMENT
$T193584 DD	0ffffffffH
	DD	FLAT:$L193576
$T193578 DD	019930520H
	DD	01H
	DD	FLAT:$T193584
	DD	2 DUP(00H)
	DD	2 DUP(00H)
; Function compile flags: /Odt /RTCsu
xdata$x	ENDS
;	COMDAT ?CompareStringWFake@ATL@@YGHKKPB_WH0H@Z
_TEXT	SEGMENT
tv147 = -76						; size = 4
tv142 = -72						; size = 4
tv149 = -68						; size = 4
tv89 = -64						; size = 4
tv84 = -60						; size = 4
tv91 = -56						; size = 4
$T193575 = -52						; size = 4
_pszAString2$ = -48					; size = 4
_pszAString1$ = -44					; size = 4
__AtlSafeAllocaManager$ = -36				; size = 4
__lpa_ex$ = -28						; size = 4
__lpw_ex$ = -24						; size = 4
__acp_ex$ = -20						; size = 4
__convert_ex$ = -16					; size = 4
__$EHRec$ = -12						; size = 12
_lcid$ = 8						; size = 4
_dwFlags$ = 12						; size = 4
_pszString1$ = 16					; size = 4
_nLength1$ = 20						; size = 4
_pszString2$ = 24					; size = 4
_nLength2$ = 28						; size = 4
?CompareStringWFake@ATL@@YGHKKPB_WH0H@Z PROC NEAR	; ATL::CompareStringWFake, COMDAT

; 192  : {

  00000	55		 push	 ebp
  00001	8b ec		 mov	 ebp, esp
  00003	6a ff		 push	 -1
  00005	68 00 00 00 00	 push	 __ehhandler$?CompareStringWFake@ATL@@YGHKKPB_WH0H@Z
  0000a	64 a1 00 00 00
	00		 mov	 eax, DWORD PTR fs:__except_list
  00010	50		 push	 eax
  00011	64 89 25 00 00
	00 00		 mov	 DWORD PTR fs:__except_list, esp
  00018	83 ec 40	 sub	 esp, 64			; 00000040H
  0001b	56		 push	 esi
  0001c	57		 push	 edi
  0001d	8d 7d b4	 lea	 edi, DWORD PTR [ebp-76]
  00020	b9 10 00 00 00	 mov	 ecx, 16			; 00000010H
  00025	b8 cc cc cc cc	 mov	 eax, -858993460		; ccccccccH
  0002a	f3 ab		 rep stosd

; 193  : 	USES_CONVERSION_EX;

  0002c	c7 45 f0 00 00
	00 00		 mov	 DWORD PTR __convert_ex$[ebp], 0
  00033	e8 00 00 00 00	 call	 ?_AtlGetConversionACP@ATL@@YGIXZ ; ATL::_AtlGetConversionACP
  00038	89 45 ec	 mov	 DWORD PTR __acp_ex$[ebp], eax
  0003b	c7 45 e8 00 00
	00 00		 mov	 DWORD PTR __lpw_ex$[ebp], 0
  00042	c7 45 e4 00 00
	00 00		 mov	 DWORD PTR __lpa_ex$[ebp], 0
  00049	8d 4d dc	 lea	 ecx, DWORD PTR __AtlSafeAllocaManager$[ebp]
  0004c	e8 00 00 00 00	 call	 ??0?$CAtlSafeAllocBufferManager@VCCRTAllocator@ATL@@@_ATL_SAFE_ALLOCA_IMPL@ATL@@QAE@XZ ; ATL::_ATL_SAFE_ALLOCA_IMPL::CAtlSafeAllocBufferManager<ATL::CCRTAllocator>::CAtlSafeAllocBufferManager<ATL::CCRTAllocator>
  00051	c7 45 fc 00 00
	00 00		 mov	 DWORD PTR __$EHRec$[ebp+8], 0

; 194  : 	
; 195  : 	LPCSTR pszAString1 = NULL;

  00058	c7 45 d4 00 00
	00 00		 mov	 DWORD PTR _pszAString1$[ebp], 0

; 196  : 	if(pszString1 != NULL)

  0005f	83 7d 10 00	 cmp	 DWORD PTR _pszString1$[ebp], 0
  00063	0f 84 a1 00 00
	00		 je	 $L26349

; 197  : 	{
; 198  : 		pszAString1 = W2A_EX(pszString1,_ATL_SAFE_ALLOCA_DEF_THRESHOLD);

  00069	8b 45 10	 mov	 eax, DWORD PTR _pszString1$[ebp]
  0006c	89 45 e8	 mov	 DWORD PTR __lpw_ex$[ebp], eax
  0006f	83 7d e8 00	 cmp	 DWORD PTR __lpw_ex$[ebp], 0
  00073	75 09		 jne	 SHORT $L193569
  00075	c7 45 c8 00 00
	00 00		 mov	 DWORD PTR tv91[ebp], 0
  0007c	eb 76		 jmp	 SHORT $L193570
$L193569:
  0007e	8b f4		 mov	 esi, esp
  00080	8b 4d e8	 mov	 ecx, DWORD PTR __lpw_ex$[ebp]
  00083	51		 push	 ecx
  00084	ff 15 00 00 00
	00		 call	 DWORD PTR __imp__lstrlenW@4
  0008a	3b f4		 cmp	 esi, esp
  0008c	e8 00 00 00 00	 call	 __RTC_CheckEsp
  00091	8d 54 00 02	 lea	 edx, DWORD PTR [eax+eax+2]
  00095	89 55 f0	 mov	 DWORD PTR __convert_ex$[ebp], edx
  00098	81 7d f0 00 04
	00 00		 cmp	 DWORD PTR __convert_ex$[ebp], 1024 ; 00000400H
  0009f	7f 2c		 jg	 SHORT $L193567
  000a1	8b 45 f0	 mov	 eax, DWORD PTR __convert_ex$[ebp]
  000a4	50		 push	 eax
  000a5	e8 00 00 00 00	 call	 ?_AtlVerifyStackAvailable@_ATL_SAFE_ALLOCA_IMPL@ATL@@YA_NK@Z ; ATL::_ATL_SAFE_ALLOCA_IMPL::_AtlVerifyStackAvailable
  000aa	83 c4 04	 add	 esp, 4
  000ad	0f b6 c8	 movzx	 ecx, al
  000b0	85 c9		 test	 ecx, ecx
  000b2	74 19		 je	 SHORT $L193567
  000b4	8b 45 f0	 mov	 eax, DWORD PTR __convert_ex$[ebp]
  000b7	83 c0 03	 add	 eax, 3
  000ba	83 e0 fc	 and	 eax, -4			; fffffffcH
  000bd	e8 00 00 00 00	 call	 __alloca_probe
  000c2	89 65 c4	 mov	 DWORD PTR tv84[ebp], esp
  000c5	8b 55 c4	 mov	 edx, DWORD PTR tv84[ebp]
  000c8	89 55 c0	 mov	 DWORD PTR tv89[ebp], edx
  000cb	eb 0f		 jmp	 SHORT $L193568
$L193567:
  000cd	8b 45 f0	 mov	 eax, DWORD PTR __convert_ex$[ebp]
  000d0	50		 push	 eax
  000d1	8d 4d dc	 lea	 ecx, DWORD PTR __AtlSafeAllocaManager$[ebp]
  000d4	e8 00 00 00 00	 call	 ?Allocate@?$CAtlSafeAllocBufferManager@VCCRTAllocator@ATL@@@_ATL_SAFE_ALLOCA_IMPL@ATL@@QAEPAXK@Z ; ATL::_ATL_SAFE_ALLOCA_IMPL::CAtlSafeAllocBufferManager<ATL::CCRTAllocator>::Allocate
  000d9	89 45 c0	 mov	 DWORD PTR tv89[ebp], eax
$L193568:
  000dc	8b 4d ec	 mov	 ecx, DWORD PTR __acp_ex$[ebp]
  000df	51		 push	 ecx
  000e0	8b 55 f0	 mov	 edx, DWORD PTR __convert_ex$[ebp]
  000e3	52		 push	 edx
  000e4	8b 45 e8	 mov	 eax, DWORD PTR __lpw_ex$[ebp]
  000e7	50		 push	 eax
  000e8	8b 4d c0	 mov	 ecx, DWORD PTR tv89[ebp]
  000eb	51		 push	 ecx
  000ec	e8 00 00 00 00	 call	 ?AtlW2AHelper@@YGPADPADPB_WHI@Z ; AtlW2AHelper
  000f1	89 45 c8	 mov	 DWORD PTR tv91[ebp], eax
$L193570:
  000f4	8b 55 c8	 mov	 edx, DWORD PTR tv91[ebp]
  000f7	89 55 d4	 mov	 DWORD PTR _pszAString1$[ebp], edx

; 199  : 		if(pszAString1 == NULL)

  000fa	83 7d d4 00	 cmp	 DWORD PTR _pszAString1$[ebp], 0
  000fe	75 0a		 jne	 SHORT $L26349

; 200  : 			AtlThrow(E_OUTOFMEMORY);

  00100	68 0e 00 07 80	 push	 -2147024882		; 8007000eH
  00105	e8 00 00 00 00	 call	 ?AtlThrow@ATL@@YGXJ@Z	; ATL::AtlThrow
$L26349:

; 201  : 	}
; 202  : 
; 203  : 	LPCSTR pszAString2 = NULL;

  0010a	c7 45 d0 00 00
	00 00		 mov	 DWORD PTR _pszAString2$[ebp], 0

; 204  : 	if(pszString2 != NULL)

  00111	83 7d 18 00	 cmp	 DWORD PTR _pszString2$[ebp], 0
  00115	0f 84 a1 00 00
	00		 je	 $L26355

; 205  : 	{
; 206  : 		pszAString2 = W2A_EX(pszString2,_ATL_SAFE_ALLOCA_DEF_THRESHOLD);

  0011b	8b 45 18	 mov	 eax, DWORD PTR _pszString2$[ebp]
  0011e	89 45 e8	 mov	 DWORD PTR __lpw_ex$[ebp], eax
  00121	83 7d e8 00	 cmp	 DWORD PTR __lpw_ex$[ebp], 0
  00125	75 09		 jne	 SHORT $L193573
  00127	c7 45 bc 00 00
	00 00		 mov	 DWORD PTR tv149[ebp], 0
  0012e	eb 76		 jmp	 SHORT $L193574
$L193573:
  00130	8b f4		 mov	 esi, esp
  00132	8b 4d e8	 mov	 ecx, DWORD PTR __lpw_ex$[ebp]
  00135	51		 push	 ecx
  00136	ff 15 00 00 00
	00		 call	 DWORD PTR __imp__lstrlenW@4
  0013c	3b f4		 cmp	 esi, esp
  0013e	e8 00 00 00 00	 call	 __RTC_CheckEsp
  00143	8d 54 00 02	 lea	 edx, DWORD PTR [eax+eax+2]
  00147	89 55 f0	 mov	 DWORD PTR __convert_ex$[ebp], edx
  0014a	81 7d f0 00 04
	00 00		 cmp	 DWORD PTR __convert_ex$[ebp], 1024 ; 00000400H
  00151	7f 2c		 jg	 SHORT $L193571
  00153	8b 45 f0	 mov	 eax, DWORD PTR __convert_ex$[ebp]
  00156	50		 push	 eax
  00157	e8 00 00 00 00	 call	 ?_AtlVerifyStackAvailable@_ATL_SAFE_ALLOCA_IMPL@ATL@@YA_NK@Z ; ATL::_ATL_SAFE_ALLOCA_IMPL::_AtlVerifyStackAvailable
  0015c	83 c4 04	 add	 esp, 4
  0015f	0f b6 c8	 movzx	 ecx, al
  00162	85 c9		 test	 ecx, ecx
  00164	74 19		 je	 SHORT $L193571
  00166	8b 45 f0	 mov	 eax, DWORD PTR __convert_ex$[ebp]
  00169	83 c0 03	 add	 eax, 3
  0016c	83 e0 fc	 and	 eax, -4			; fffffffcH
  0016f	e8 00 00 00 00	 call	 __alloca_probe
  00174	89 65 b8	 mov	 DWORD PTR tv142[ebp], esp
  00177	8b 55 b8	 mov	 edx, DWORD PTR tv142[ebp]
  0017a	89 55 b4	 mov	 DWORD PTR tv147[ebp], edx
  0017d	eb 0f		 jmp	 SHORT $L193572
$L193571:
  0017f	8b 45 f0	 mov	 eax, DWORD PTR __convert_ex$[ebp]
  00182	50		 push	 eax
  00183	8d 4d dc	 lea	 ecx, DWORD PTR __AtlSafeAllocaManager$[ebp]
  00186	e8 00 00 00 00	 call	 ?Allocate@?$CAtlSafeAllocBufferManager@VCCRTAllocator@ATL@@@_ATL_SAFE_ALLOCA_IMPL@ATL@@QAEPAXK@Z ; ATL::_ATL_SAFE_ALLOCA_IMPL::CAtlSafeAllocBufferManager<ATL::CCRTAllocator>::Allocate
  0018b	89 45 b4	 mov	 DWORD PTR tv147[ebp], eax
$L193572:
  0018e	8b 4d ec	 mov	 ecx, DWORD PTR __acp_ex$[ebp]
  00191	51		 push	 ecx
  00192	8b 55 f0	 mov	 edx, DWORD PTR __convert_ex$[ebp]
  00195	52		 push	 edx
  00196	8b 45 e8	 mov	 eax, DWORD PTR __lpw_ex$[ebp]
  00199	50		 push	 eax
  0019a	8b 4d b4	 mov	 ecx, DWORD PTR tv147[ebp]
  0019d	51		 push	 ecx
  0019e	e8 00 00 00 00	 call	 ?AtlW2AHelper@@YGPADPADPB_WHI@Z ; AtlW2AHelper
  001a3	89 45 bc	 mov	 DWORD PTR tv149[ebp], eax
$L193574:
  001a6	8b 55 bc	 mov	 edx, DWORD PTR tv149[ebp]
  001a9	89 55 d0	 mov	 DWORD PTR _pszAString2$[ebp], edx

; 207  : 		if(pszAString2 == NULL)

  001ac	83 7d d0 00	 cmp	 DWORD PTR _pszAString2$[ebp], 0
  001b0	75 0a		 jne	 SHORT $L26355

; 208  : 			AtlThrow(E_OUTOFMEMORY);

  001b2	68 0e 00 07 80	 push	 -2147024882		; 8007000eH
  001b7	e8 00 00 00 00	 call	 ?AtlThrow@ATL@@YGXJ@Z	; ATL::AtlThrow
$L26355:

; 209  : 	}
; 210  : 
; 211  : 	return ::CompareStringA(lcid, dwFlags, pszAString1, nLength1, pszAString2, nLength2);

  001bc	8b f4		 mov	 esi, esp
  001be	8b 45 1c	 mov	 eax, DWORD PTR _nLength2$[ebp]
  001c1	50		 push	 eax
  001c2	8b 4d d0	 mov	 ecx, DWORD PTR _pszAString2$[ebp]
  001c5	51		 push	 ecx
  001c6	8b 55 14	 mov	 edx, DWORD PTR _nLength1$[ebp]
  001c9	52		 push	 edx
  001ca	8b 45 d4	 mov	 eax, DWORD PTR _pszAString1$[ebp]
  001cd	50		 push	 eax
  001ce	8b 4d 0c	 mov	 ecx, DWORD PTR _dwFlags$[ebp]
  001d1	51		 push	 ecx
  001d2	8b 55 08	 mov	 edx, DWORD PTR _lcid$[ebp]
  001d5	52		 push	 edx
  001d6	ff 15 00 00 00
	00		 call	 DWORD PTR __imp__CompareStringA@24
  001dc	3b f4		 cmp	 esi, esp
  001de	e8 00 00 00 00	 call	 __RTC_CheckEsp
  001e3	89 45 cc	 mov	 DWORD PTR $T193575[ebp], eax
  001e6	c7 45 fc ff ff
	ff ff		 mov	 DWORD PTR __$EHRec$[ebp+8], -1
  001ed	8d 4d dc	 lea	 ecx, DWORD PTR __AtlSafeAllocaManager$[ebp]
  001f0	e8 00 00 00 00	 call	 ??1?$CAtlSafeAllocBufferManager@VCCRTAllocator@ATL@@@_ATL_SAFE_ALLOCA_IMPL@ATL@@QAE@XZ ; ATL::_ATL_SAFE_ALLOCA_IMPL::CAtlSafeAllocBufferManager<ATL::CCRTAllocator>::~CAtlSafeAllocBufferManager<ATL::CCRTAllocator>
  001f5	8b 45 cc	 mov	 eax, DWORD PTR $T193575[ebp]
$L193566:

; 212  : }

  001f8	8d 65 ac	 lea	 esp, DWORD PTR [ebp-84]
  001fb	52		 push	 edx
  001fc	8b cd		 mov	 ecx, ebp
  001fe	50		 push	 eax
  001ff	8d 15 00 00 00
	00		 lea	 edx, DWORD PTR $L193583
  00205	e8 00 00 00 00	 call	 @_RTC_CheckStackVars@8
  0020a	58		 pop	 eax
  0020b	5a		 pop	 edx
  0020c	8b 4d f4	 mov	 ecx, DWORD PTR __$EHRec$[ebp]
  0020f	64 89 0d 00 00
	00 00		 mov	 DWORD PTR fs:__except_list, ecx
  00216	5f		 pop	 edi
  00217	5e		 pop	 esi
  00218	8b e5		 mov	 esp, ebp
  0021a	5d		 pop	 ebp
  0021b	c2 18 00	 ret	 24			; 00000018H
$L193583:
  0021e	01 00 00 00	 DD	 1
  00222	00 00 00 00	 DD	 $L193582
$L193582:
  00226	dc ff ff ff	 DD	 -36			; ffffffdcH
  0022a	04 00 00 00	 DD	 4
  0022e	00 00 00 00	 DD	 $L193580
$L193580:
  00232	5f		 DB	 95			; 0000005fH
  00233	41		 DB	 65			; 00000041H
  00234	74		 DB	 116			; 00000074H
  00235	6c		 DB	 108			; 0000006cH
  00236	53		 DB	 83			; 00000053H
  00237	61		 DB	 97			; 00000061H
  00238	66		 DB	 102			; 00000066H
  00239	65		 DB	 101			; 00000065H
  0023a	41		 DB	 65			; 00000041H
  0023b	6c		 DB	 108			; 0000006cH
  0023c	6c		 DB	 108			; 0000006cH
  0023d	6f		 DB	 111			; 0000006fH
  0023e	63		 DB	 99			; 00000063H
  0023f	61		 DB	 97			; 00000061H
  00240	4d		 DB	 77			; 0000004dH
  00241	61		 DB	 97			; 00000061H
  00242	6e		 DB	 110			; 0000006eH
  00243	61		 DB	 97			; 00000061H
  00244	67		 DB	 103			; 00000067H
  00245	65		 DB	 101			; 00000065H
  00246	72		 DB	 114			; 00000072H
  00247	00		 DB	 0
_TEXT	ENDS
;	COMDAT text$x
text$x	SEGMENT
$L193576:
  00000	8d 4d dc	 lea	 ecx, DWORD PTR __AtlSafeAllocaManager$[ebp]
  00003	e9 00 00 00 00	 jmp	 ??1?$CAtlSafeAllocBufferManager@VCCRTAllocator@ATL@@@_ATL_SAFE_ALLOCA_IMPL@ATL@@QAE@XZ ; ATL::_ATL_SAFE_ALLOCA_IMPL::CAtlSafeAllocBufferManager<ATL::CCRTAllocator>::~CAtlSafeAllocBufferManager<ATL::CCRTAllocator>
__ehhandler$?CompareStringWFake@ATL@@YGHKKPB_WH0H@Z:
  00008	b8 00 00 00 00	 mov	 eax, OFFSET FLAT:$T193578
  0000d	e9 00 00 00 00	 jmp	 ___CxxFrameHandler
text$x	ENDS
?CompareStringWFake@ATL@@YGHKKPB_WH0H@Z ENDP		; ATL::CompareStringWFake
EXTRN	__except_handler3:NEAR
EXTRN	__imp___resetstkoflw:NEAR
;	COMDAT CONST
; File d:\program files (x86)\microsoft visual studio .net 2003\vc7\atlmfc\include\atlalloc.h
CONST	SEGMENT
$T193594 DD	0ffffffffH
	DD	FLAT:$L193589
	DD	FLAT:$L193590
; Function compile flags: /Odt /RTCsu
CONST	ENDS
;	COMDAT ?_AtlVerifyStackAvailable@_ATL_SAFE_ALLOCA_IMPL@ATL@@YA_NK@Z
_TEXT	SEGMENT
tv65 = -48						; size = 4
$T193593 = -44						; size = 4
_p$24107 = -36						; size = 4
_bStackAvailable$ = -25					; size = 1
__$SEHRec$ = -24					; size = 24
_Size$ = 8						; size = 4
?_AtlVerifyStackAvailable@_ATL_SAFE_ALLOCA_IMPL@ATL@@YA_NK@Z PROC NEAR ; ATL::_ATL_SAFE_ALLOCA_IMPL::_AtlVerifyStackAvailable, COMDAT

; 331  : {

  00000	55		 push	 ebp
  00001	8b ec		 mov	 ebp, esp
  00003	6a ff		 push	 -1
  00005	68 00 00 00 00	 push	 OFFSET FLAT:$T193594
  0000a	68 00 00 00 00	 push	 OFFSET FLAT:__except_handler3
  0000f	64 a1 00 00 00
	00		 mov	 eax, DWORD PTR fs:__except_list
  00015	50		 push	 eax
  00016	64 89 25 00 00
	00 00		 mov	 DWORD PTR fs:__except_list, esp
  0001d	83 c4 e0	 add	 esp, -32		; ffffffe0H
  00020	53		 push	 ebx
  00021	56		 push	 esi
  00022	57		 push	 edi
  00023	b8 cc cc cc cc	 mov	 eax, -858993460		; ccccccccH
  00028	89 45 d0	 mov	 DWORD PTR [ebp-48], eax
  0002b	89 45 d4	 mov	 DWORD PTR [ebp-44], eax
  0002e	89 45 d8	 mov	 DWORD PTR [ebp-40], eax
  00031	89 45 dc	 mov	 DWORD PTR [ebp-36], eax
  00034	89 45 e0	 mov	 DWORD PTR [ebp-32], eax
  00037	89 45 e4	 mov	 DWORD PTR [ebp-28], eax
  0003a	89 65 e8	 mov	 DWORD PTR __$SEHRec$[ebp], esp

; 332  :     bool bStackAvailable = true;

  0003d	c6 45 e7 01	 mov	 BYTE PTR _bStackAvailable$[ebp], 1

; 333  : 
; 334  :     __try

  00041	c7 45 fc 00 00
	00 00		 mov	 DWORD PTR __$SEHRec$[ebp+20], 0

; 335  :     {
; 336  :         PVOID p = _alloca(Size + _ATL_STACK_MARGIN);

  00048	8b 45 08	 mov	 eax, DWORD PTR _Size$[ebp]
  0004b	05 03 20 00 00	 add	 eax, 8195		; 00002003H
  00050	83 e0 fc	 and	 eax, -4			; fffffffcH
  00053	e8 00 00 00 00	 call	 __alloca_probe
  00058	89 65 d0	 mov	 DWORD PTR tv65[ebp], esp
  0005b	89 65 e8	 mov	 DWORD PTR __$SEHRec$[ebp], esp
  0005e	8b 45 d0	 mov	 eax, DWORD PTR tv65[ebp]
  00061	89 45 dc	 mov	 DWORD PTR _p$24107[ebp], eax
  00064	c7 45 fc ff ff
	ff ff		 mov	 DWORD PTR __$SEHRec$[ebp+20], -1
  0006b	eb 35		 jmp	 SHORT $L193592
$L193589:

; 337  :         (p);
; 338  :     }
; 339  :     __except ((EXCEPTION_STACK_OVERFLOW == GetExceptionCode()) ?
; 340  :                    EXCEPTION_EXECUTE_HANDLER :
; 341  :                    EXCEPTION_CONTINUE_SEARCH)

  0006d	8b 4d ec	 mov	 ecx, DWORD PTR __$SEHRec$[ebp+4]
  00070	8b 11		 mov	 edx, DWORD PTR [ecx]
  00072	8b 02		 mov	 eax, DWORD PTR [edx]
  00074	89 45 d4	 mov	 DWORD PTR $T193593[ebp], eax
  00077	8b 45 d4	 mov	 eax, DWORD PTR $T193593[ebp]
  0007a	2d fd 00 00 c0	 sub	 eax, -1073741571	; c00000fdH
  0007f	f7 d8		 neg	 eax
  00081	1b c0		 sbb	 eax, eax
  00083	40		 inc	 eax
$L193591:
  00084	c3		 ret	 0
$L193590:
  00085	8b 65 e8	 mov	 esp, DWORD PTR __$SEHRec$[ebp]

; 342  :     {
; 343  :         bStackAvailable = false;

  00088	c6 45 e7 00	 mov	 BYTE PTR _bStackAvailable$[ebp], 0

; 344  :         _resetstkoflw();

  0008c	8b f4		 mov	 esi, esp
  0008e	ff 15 00 00 00
	00		 call	 DWORD PTR __imp___resetstkoflw
  00094	3b f4		 cmp	 esi, esp
  00096	e8 00 00 00 00	 call	 __RTC_CheckEsp
  0009b	c7 45 fc ff ff
	ff ff		 mov	 DWORD PTR __$SEHRec$[ebp+20], -1
$L193592:

; 345  :     }
; 346  :     return bStackAvailable;

  000a2	8a 45 e7	 mov	 al, BYTE PTR _bStackAvailable$[ebp]
$L193588:

; 347  : }

  000a5	8d 65 c4	 lea	 esp, DWORD PTR [ebp-60]
  000a8	52		 push	 edx
  000a9	8b cd		 mov	 ecx, ebp
  000ab	50		 push	 eax
  000ac	8d 15 00 00 00
	00		 lea	 edx, DWORD PTR $L193599
  000b2	e8 00 00 00 00	 call	 @_RTC_CheckStackVars@8
  000b7	58		 pop	 eax
  000b8	5a		 pop	 edx
  000b9	8b 4d f0	 mov	 ecx, DWORD PTR __$SEHRec$[ebp+8]
  000bc	64 89 0d 00 00
	00 00		 mov	 DWORD PTR fs:__except_list, ecx
  000c3	5f		 pop	 edi
  000c4	5e		 pop	 esi
  000c5	5b		 pop	 ebx
  000c6	8b e5		 mov	 esp, ebp
  000c8	5d		 pop	 ebp
  000c9	c3		 ret	 0
$L193599:
  000ca	01 00 00 00	 DD	 1
  000ce	00 00 00 00	 DD	 $L193598
$L193598:
  000d2	dc ff ff ff	 DD	 -36			; ffffffdcH
  000d6	04 00 00 00	 DD	 4
  000da	00 00 00 00	 DD	 $L193596
$L193596:
  000de	70		 DB	 112			; 00000070H
  000df	00		 DB	 0
?_AtlVerifyStackAvailable@_ATL_SAFE_ALLOCA_IMPL@ATL@@YA_NK@Z ENDP ; ATL::_ATL_SAFE_ALLOCA_IMPL::_AtlVerifyStackAvailable
_TEXT	ENDS
PUBLIC	??_C@_08DMHHBMMN@lpa?5?$CB?$DN?50?$AA@		; `string'
PUBLIC	??_C@_0FG@PFHCBDBK@D?3?2Program?5Files?5?$CIx86?$CJ?2Microsoft@ ; `string'
PUBLIC	??_C@_08DIHJLFDJ@lpw?5?$CB?$DN?50?$AA@		; `string'
PUBLIC	??_C@_01GBGANLPD@0?$AA@				; `string'
EXTRN	__imp__WideCharToMultiByte@32:NEAR
;	COMDAT ??_C@_08DIHJLFDJ@lpw?5?$CB?$DN?50?$AA@
; File d:\program files (x86)\microsoft visual studio .net 2003\vc7\atlmfc\include\atlconv.h
CONST	SEGMENT
??_C@_08DIHJLFDJ@lpw?5?$CB?$DN?50?$AA@ DB 'lpw != 0', 00H ; `string'
CONST	ENDS
;	COMDAT ??_C@_0FG@PFHCBDBK@D?3?2Program?5Files?5?$CIx86?$CJ?2Microsoft@
CONST	SEGMENT
??_C@_0FG@PFHCBDBK@D?3?2Program?5Files?5?$CIx86?$CJ?2Microsoft@ DB 'D:\Pr'
	DB	'ogram Files (x86)\Microsoft Visual Studio .NET 2003\Vc7\atlmf'
	DB	'c\include\atlconv.h', 00H			; `string'
CONST	ENDS
;	COMDAT ??_C@_08DMHHBMMN@lpa?5?$CB?$DN?50?$AA@
CONST	SEGMENT
??_C@_08DMHHBMMN@lpa?5?$CB?$DN?50?$AA@ DB 'lpa != 0', 00H ; `string'
CONST	ENDS
;	COMDAT ??_C@_01GBGANLPD@0?$AA@
CONST	SEGMENT
??_C@_01GBGANLPD@0?$AA@ DB '0', 00H			; `string'
; Function compile flags: /Odt /RTCsu
CONST	ENDS
;	COMDAT ?AtlW2AHelper@@YGPADPADPB_WHI@Z
_TEXT	SEGMENT
_ret$ = -4						; size = 4
_lpa$ = 8						; size = 4
_lpw$ = 12						; size = 4
_nChars$ = 16						; size = 4
_acp$ = 20						; size = 4
?AtlW2AHelper@@YGPADPADPB_WHI@Z PROC NEAR		; AtlW2AHelper, COMDAT

; 573  : {

  00000	55		 push	 ebp
  00001	8b ec		 mov	 ebp, esp
  00003	51		 push	 ecx
  00004	56		 push	 esi
  00005	c7 45 fc cc cc
	cc cc		 mov	 DWORD PTR [ebp-4], -858993460 ; ccccccccH

; 574  : 	ATLASSERT(lpw != NULL);

  0000c	83 7d 0c 00	 cmp	 DWORD PTR _lpw$[ebp], 0
  00010	75 2b		 jne	 SHORT $L193603
  00012	8b f4		 mov	 esi, esp
  00014	68 00 00 00 00	 push	 OFFSET FLAT:??_C@_08DIHJLFDJ@lpw?5?$CB?$DN?50?$AA@
  00019	6a 00		 push	 0
  0001b	68 3e 02 00 00	 push	 574			; 0000023eH
  00020	68 00 00 00 00	 push	 OFFSET FLAT:??_C@_0FG@PFHCBDBK@D?3?2Program?5Files?5?$CIx86?$CJ?2Microsoft@
  00025	6a 02		 push	 2
  00027	ff 15 00 00 00
	00		 call	 DWORD PTR __imp___CrtDbgReport
  0002d	83 c4 14	 add	 esp, 20			; 00000014H
  00030	3b f4		 cmp	 esi, esp
  00032	e8 00 00 00 00	 call	 __RTC_CheckEsp
  00037	83 f8 01	 cmp	 eax, 1
  0003a	75 01		 jne	 SHORT $L193603
  0003c	cc		 int	 3
$L193603:

; 575  : 	ATLASSERT(lpa != NULL);

  0003d	83 7d 08 00	 cmp	 DWORD PTR _lpa$[ebp], 0
  00041	75 2b		 jne	 SHORT $L193604
  00043	8b f4		 mov	 esi, esp
  00045	68 00 00 00 00	 push	 OFFSET FLAT:??_C@_08DMHHBMMN@lpa?5?$CB?$DN?50?$AA@
  0004a	6a 00		 push	 0
  0004c	68 3f 02 00 00	 push	 575			; 0000023fH
  00051	68 00 00 00 00	 push	 OFFSET FLAT:??_C@_0FG@PFHCBDBK@D?3?2Program?5Files?5?$CIx86?$CJ?2Microsoft@
  00056	6a 02		 push	 2
  00058	ff 15 00 00 00
	00		 call	 DWORD PTR __imp___CrtDbgReport
  0005e	83 c4 14	 add	 esp, 20			; 00000014H
  00061	3b f4		 cmp	 esi, esp
  00063	e8 00 00 00 00	 call	 __RTC_CheckEsp
  00068	83 f8 01	 cmp	 eax, 1
  0006b	75 01		 jne	 SHORT $L193604
  0006d	cc		 int	 3
$L193604:

; 576  : 	if (lpa == NULL || lpw == NULL)

  0006e	83 7d 08 00	 cmp	 DWORD PTR _lpa$[ebp], 0
  00072	74 06		 je	 SHORT $L24313
  00074	83 7d 0c 00	 cmp	 DWORD PTR _lpw$[ebp], 0
  00078	75 04		 jne	 SHORT $L24312
$L24313:

; 577  : 		return NULL;

  0007a	33 c0		 xor	 eax, eax
  0007c	eb 6c		 jmp	 SHORT $L24309
$L24312:

; 578  : 	// verify that no illegal character present
; 579  : 	// since lpa was allocated based on the size of lpw
; 580  : 	// don't worry about the number of chars
; 581  : 	lpa[0] = '\0';

  0007e	8b 55 08	 mov	 edx, DWORD PTR _lpa$[ebp]
  00081	c6 02 00	 mov	 BYTE PTR [edx], 0

; 582  : 	int ret = WideCharToMultiByte(acp, 0, lpw, -1, lpa, nChars, NULL, NULL);

  00084	8b f4		 mov	 esi, esp
  00086	6a 00		 push	 0
  00088	6a 00		 push	 0
  0008a	8b 45 10	 mov	 eax, DWORD PTR _nChars$[ebp]
  0008d	50		 push	 eax
  0008e	8b 4d 08	 mov	 ecx, DWORD PTR _lpa$[ebp]
  00091	51		 push	 ecx
  00092	6a ff		 push	 -1
  00094	8b 55 0c	 mov	 edx, DWORD PTR _lpw$[ebp]
  00097	52		 push	 edx
  00098	6a 00		 push	 0
  0009a	8b 45 14	 mov	 eax, DWORD PTR _acp$[ebp]
  0009d	50		 push	 eax
  0009e	ff 15 00 00 00
	00		 call	 DWORD PTR __imp__WideCharToMultiByte@32
  000a4	3b f4		 cmp	 esi, esp
  000a6	e8 00 00 00 00	 call	 __RTC_CheckEsp
  000ab	89 45 fc	 mov	 DWORD PTR _ret$[ebp], eax

; 583  : 	if(ret == 0)

  000ae	83 7d fc 00	 cmp	 DWORD PTR _ret$[ebp], 0
  000b2	75 33		 jne	 SHORT $L24315

; 584  : 	{
; 585  : 		ATLASSERT(FALSE);

  000b4	33 c9		 xor	 ecx, ecx
  000b6	75 2b		 jne	 SHORT $L193605
  000b8	8b f4		 mov	 esi, esp
  000ba	68 00 00 00 00	 push	 OFFSET FLAT:??_C@_01GBGANLPD@0?$AA@
  000bf	6a 00		 push	 0
  000c1	68 49 02 00 00	 push	 585			; 00000249H
  000c6	68 00 00 00 00	 push	 OFFSET FLAT:??_C@_0FG@PFHCBDBK@D?3?2Program?5Files?5?$CIx86?$CJ?2Microsoft@
  000cb	6a 02		 push	 2
  000cd	ff 15 00 00 00
	00		 call	 DWORD PTR __imp___CrtDbgReport
  000d3	83 c4 14	 add	 esp, 20			; 00000014H
  000d6	3b f4		 cmp	 esi, esp
  000d8	e8 00 00 00 00	 call	 __RTC_CheckEsp
  000dd	83 f8 01	 cmp	 eax, 1
  000e0	75 01		 jne	 SHORT $L193605
  000e2	cc		 int	 3
$L193605:

; 586  : 		return NULL;

  000e3	33 c0		 xor	 eax, eax
  000e5	eb 03		 jmp	 SHORT $L24309
$L24315:

; 587  : 	}
; 588  : 	return lpa;

  000e7	8b 45 08	 mov	 eax, DWORD PTR _lpa$[ebp]
$L24309:

; 589  : }

  000ea	5e		 pop	 esi
  000eb	83 c4 04	 add	 esp, 4
  000ee	3b ec		 cmp	 ebp, esp
  000f0	e8 00 00 00 00	 call	 __RTC_CheckEsp
  000f5	8b e5		 mov	 esp, ebp
  000f7	5d		 pop	 ebp
  000f8	c2 10 00	 ret	 16			; 00000010H
?AtlW2AHelper@@YGPADPADPB_WHI@Z ENDP			; AtlW2AHelper
_TEXT	ENDS
PUBLIC	??BCTraceCategory@ATL@@QBEKXZ			; ATL::CTraceCategory::operator unsigned long
PUBLIC	??0CTraceFileAndLineInfo@ATL@@QAE@PBDH@Z	; ATL::CTraceFileAndLineInfo::CTraceFileAndLineInfo
PUBLIC	??RCTraceFileAndLineInfo@ATL@@QBAXKIPBDZZ	; ATL::CTraceFileAndLineInfo::operator()
PUBLIC	??_C@_0FI@NHHJANPC@D?3?2Program?5Files?5?$CIx86?$CJ?2Microsoft@ ; `string'
PUBLIC	??_C@_0BF@IAAKIJDJ@AtlThrow?3?5hr?5?$DN?50x?$CFx?6?$AA@ ; `string'
EXTRN	?atlTraceException@ATL@@3VCTraceCategory@1@A:DWORD ; ATL::atlTraceException
EXTRN	?AfxThrowMemoryException@@YGXXZ:NEAR		; AfxThrowMemoryException
EXTRN	?AfxThrowOleException@@YGXJ@Z:NEAR		; AfxThrowOleException
;	COMDAT ??_C@_0BF@IAAKIJDJ@AtlThrow?3?5hr?5?$DN?50x?$CFx?6?$AA@
; File d:\program files (x86)\microsoft visual studio .net 2003\vc7\atlmfc\include\atlexcept.h
CONST	SEGMENT
??_C@_0BF@IAAKIJDJ@AtlThrow?3?5hr?5?$DN?50x?$CFx?6?$AA@ DB 'AtlThrow: hr '
	DB	'= 0x%x', 0aH, 00H				; `string'
CONST	ENDS
;	COMDAT ??_C@_0FI@NHHJANPC@D?3?2Program?5Files?5?$CIx86?$CJ?2Microsoft@
CONST	SEGMENT
??_C@_0FI@NHHJANPC@D?3?2Program?5Files?5?$CIx86?$CJ?2Microsoft@ DB 'D:\Pr'
	DB	'ogram Files (x86)\Microsoft Visual Studio .NET 2003\Vc7\atlmf'
	DB	'c\include\atlexcept.h', 00H			; `string'
; Function compile flags: /Odt /RTCsu
CONST	ENDS
;	COMDAT ?AtlThrow@ATL@@YGXJ@Z
_TEXT	SEGMENT
$T193607 = -8						; size = 8
_hr$ = 8						; size = 4
?AtlThrow@ATL@@YGXJ@Z PROC NEAR				; ATL::AtlThrow, COMDAT

; 61   : {

  00000	55		 push	 ebp
  00001	8b ec		 mov	 ebp, esp
  00003	83 ec 08	 sub	 esp, 8
  00006	c7 45 f8 cc cc
	cc cc		 mov	 DWORD PTR [ebp-8], -858993460 ; ccccccccH
  0000d	c7 45 fc cc cc
	cc cc		 mov	 DWORD PTR [ebp-4], -858993460 ; ccccccccH

; 62   : 	ATLTRACE(atlTraceException, 0, _T("AtlThrow: hr = 0x%x\n"), hr );

  00014	8b 45 08	 mov	 eax, DWORD PTR _hr$[ebp]
  00017	50		 push	 eax
  00018	68 00 00 00 00	 push	 OFFSET FLAT:??_C@_0BF@IAAKIJDJ@AtlThrow?3?5hr?5?$DN?50x?$CFx?6?$AA@
  0001d	6a 00		 push	 0
  0001f	b9 00 00 00 00	 mov	 ecx, OFFSET FLAT:?atlTraceException@ATL@@3VCTraceCategory@1@A ; ATL::atlTraceException
  00024	e8 00 00 00 00	 call	 ??BCTraceCategory@ATL@@QBEKXZ ; ATL::CTraceCategory::operator unsigned long
  00029	50		 push	 eax
  0002a	6a 3e		 push	 62			; 0000003eH
  0002c	68 00 00 00 00	 push	 OFFSET FLAT:??_C@_0FI@NHHJANPC@D?3?2Program?5Files?5?$CIx86?$CJ?2Microsoft@
  00031	8d 4d f8	 lea	 ecx, DWORD PTR $T193607[ebp]
  00034	e8 00 00 00 00	 call	 ??0CTraceFileAndLineInfo@ATL@@QAE@PBDH@Z ; ATL::CTraceFileAndLineInfo::CTraceFileAndLineInfo
  00039	50		 push	 eax
  0003a	e8 00 00 00 00	 call	 ??RCTraceFileAndLineInfo@ATL@@QBAXKIPBDZZ ; ATL::CTraceFileAndLineInfo::operator()
  0003f	83 c4 14	 add	 esp, 20			; 00000014H

; 63   : #ifdef _AFX
; 64   : 	if( hr == E_OUTOFMEMORY )

  00042	81 7d 08 0e 00
	07 80		 cmp	 DWORD PTR _hr$[ebp], -2147024882 ; 8007000eH
  00049	75 05		 jne	 SHORT $L25222

; 65   : 	{
; 66   : 		AfxThrowMemoryException();

  0004b	e8 00 00 00 00	 call	 ?AfxThrowMemoryException@@YGXXZ ; AfxThrowMemoryException
$L25222:

; 67   : 	}
; 68   : 	else
; 69   : 	{
; 70   : 		AfxThrowOleException( hr );

  00050	8b 4d 08	 mov	 ecx, DWORD PTR _hr$[ebp]
  00053	51		 push	 ecx
  00054	e8 00 00 00 00	 call	 ?AfxThrowOleException@@YGXJ@Z ; AfxThrowOleException
$L193606:

; 71   : 	}
; 72   : #else
; 73   : 	throw CAtlException( hr );
; 74   : #endif
; 75   : };

  00059	83 c4 08	 add	 esp, 8
  0005c	3b ec		 cmp	 ebp, esp
  0005e	e8 00 00 00 00	 call	 __RTC_CheckEsp
  00063	8b e5		 mov	 esp, ebp
  00065	5d		 pop	 ebp
  00066	c2 04 00	 ret	 4
?AtlThrow@ATL@@YGXJ@Z ENDP				; ATL::AtlThrow
; Function compile flags: /Odt /RTCsu
; File d:\program files (x86)\microsoft visual studio .net 2003\vc7\atlmfc\include\atltrace.h
_TEXT	ENDS
;	COMDAT ??0CTraceFileAndLineInfo@ATL@@QAE@PBDH@Z
_TEXT	SEGMENT
_this$ = -4						; size = 4
_pszFileName$ = 8					; size = 4
_nLineNo$ = 12						; size = 4
??0CTraceFileAndLineInfo@ATL@@QAE@PBDH@Z PROC NEAR	; ATL::CTraceFileAndLineInfo::CTraceFileAndLineInfo, COMDAT
; _this$ = ecx

; 158  : 	{}

  00000	55		 push	 ebp
  00001	8b ec		 mov	 ebp, esp
  00003	51		 push	 ecx
  00004	c7 45 fc cc cc
	cc cc		 mov	 DWORD PTR [ebp-4], -858993460 ; ccccccccH
  0000b	89 4d fc	 mov	 DWORD PTR _this$[ebp], ecx
  0000e	8b 45 fc	 mov	 eax, DWORD PTR _this$[ebp]
  00011	8b 4d 08	 mov	 ecx, DWORD PTR _pszFileName$[ebp]
  00014	89 08		 mov	 DWORD PTR [eax], ecx
  00016	8b 55 fc	 mov	 edx, DWORD PTR _this$[ebp]
  00019	8b 45 0c	 mov	 eax, DWORD PTR _nLineNo$[ebp]
  0001c	89 42 04	 mov	 DWORD PTR [edx+4], eax
  0001f	8b 45 fc	 mov	 eax, DWORD PTR _this$[ebp]
  00022	8b e5		 mov	 esp, ebp
  00024	5d		 pop	 ebp
  00025	c2 08 00	 ret	 8
??0CTraceFileAndLineInfo@ATL@@QAE@PBDH@Z ENDP		; ATL::CTraceFileAndLineInfo::CTraceFileAndLineInfo
_TEXT	ENDS
PUBLIC	?TraceV@CTrace@ATL@@QBAXPBDHKI0PAD@Z		; ATL::CTrace::TraceV
EXTRN	?s_trace@CTrace@ATL@@2V12@A:QWORD		; ATL::CTrace::s_trace
; Function compile flags: /Odt /RTCsu
;	COMDAT ??RCTraceFileAndLineInfo@ATL@@QBAXKIPBDZZ
_TEXT	SEGMENT
_ptr$ = -4						; size = 4
_this$ = 8						; size = 4
_dwCategory$ = 12					; size = 4
_nLevel$ = 16						; size = 4
_pszFmt$ = 20						; size = 4
??RCTraceFileAndLineInfo@ATL@@QBAXKIPBDZZ PROC NEAR	; ATL::CTraceFileAndLineInfo::operator(), COMDAT

; 161  : 	{

  00000	55		 push	 ebp
  00001	8b ec		 mov	 ebp, esp
  00003	51		 push	 ecx
  00004	c7 45 fc cc cc
	cc cc		 mov	 DWORD PTR [ebp-4], -858993460 ; ccccccccH

; 162  : 		va_list ptr; va_start(ptr, pszFmt);

  0000b	8d 45 18	 lea	 eax, DWORD PTR _pszFmt$[ebp+4]
  0000e	89 45 fc	 mov	 DWORD PTR _ptr$[ebp], eax

; 163  : 		ATL::CTrace::s_trace.TraceV(m_pszFileName, m_nLineNo, dwCategory, nLevel, pszFmt, ptr);

  00011	8b 4d fc	 mov	 ecx, DWORD PTR _ptr$[ebp]
  00014	51		 push	 ecx
  00015	8b 55 14	 mov	 edx, DWORD PTR _pszFmt$[ebp]
  00018	52		 push	 edx
  00019	8b 45 10	 mov	 eax, DWORD PTR _nLevel$[ebp]
  0001c	50		 push	 eax
  0001d	8b 4d 0c	 mov	 ecx, DWORD PTR _dwCategory$[ebp]
  00020	51		 push	 ecx
  00021	8b 55 08	 mov	 edx, DWORD PTR _this$[ebp]
  00024	8b 42 04	 mov	 eax, DWORD PTR [edx+4]
  00027	50		 push	 eax
  00028	8b 4d 08	 mov	 ecx, DWORD PTR _this$[ebp]
  0002b	8b 11		 mov	 edx, DWORD PTR [ecx]
  0002d	52		 push	 edx
  0002e	68 00 00 00 00	 push	 OFFSET FLAT:?s_trace@CTrace@ATL@@2V12@A
  00033	e8 00 00 00 00	 call	 ?TraceV@CTrace@ATL@@QBAXPBDHKI0PAD@Z ; ATL::CTrace::TraceV
  00038	83 c4 1c	 add	 esp, 28			; 0000001cH

; 164  : 		va_end(ptr);

  0003b	c7 45 fc 00 00
	00 00		 mov	 DWORD PTR _ptr$[ebp], 0

; 165  : 	}

  00042	83 c4 04	 add	 esp, 4
  00045	3b ec		 cmp	 ebp, esp
  00047	e8 00 00 00 00	 call	 __RTC_CheckEsp
  0004c	8b e5		 mov	 esp, ebp
  0004e	5d		 pop	 ebp
  0004f	c3		 ret	 0
??RCTraceFileAndLineInfo@ATL@@QBAXKIPBDZZ ENDP		; ATL::CTraceFileAndLineInfo::operator()
_TEXT	ENDS
EXTRN	_AtlTraceVA:NEAR
; Function compile flags: /Odt /RTCsu
;	COMDAT ?TraceV@CTrace@ATL@@QBAXPBDHKI0PAD@Z
_TEXT	SEGMENT
_this$ = 8						; size = 4
_pszFileName$ = 12					; size = 4
_nLine$ = 16						; size = 4
_dwCategory$ = 20					; size = 4
_nLevel$ = 24						; size = 4
_pszFmt$ = 28						; size = 4
_args$ = 32						; size = 4
?TraceV@CTrace@ATL@@QBAXPBDHKI0PAD@Z PROC NEAR		; ATL::CTrace::TraceV, COMDAT

; 121  : 	{

  00000	55		 push	 ebp
  00001	8b ec		 mov	 ebp, esp

; 122  : 		AtlTraceVA(m_dwModule, pszFileName, nLine, dwCategory, nLevel, pszFmt, args);

  00003	8b 45 20	 mov	 eax, DWORD PTR _args$[ebp]
  00006	50		 push	 eax
  00007	8b 4d 1c	 mov	 ecx, DWORD PTR _pszFmt$[ebp]
  0000a	51		 push	 ecx
  0000b	8b 55 18	 mov	 edx, DWORD PTR _nLevel$[ebp]
  0000e	52		 push	 edx
  0000f	8b 45 14	 mov	 eax, DWORD PTR _dwCategory$[ebp]
  00012	50		 push	 eax
  00013	8b 4d 10	 mov	 ecx, DWORD PTR _nLine$[ebp]
  00016	51		 push	 ecx
  00017	8b 55 0c	 mov	 edx, DWORD PTR _pszFileName$[ebp]
  0001a	52		 push	 edx
  0001b	8b 45 08	 mov	 eax, DWORD PTR _this$[ebp]
  0001e	8b 48 04	 mov	 ecx, DWORD PTR [eax+4]
  00021	51		 push	 ecx
  00022	e8 00 00 00 00	 call	 _AtlTraceVA
  00027	83 c4 1c	 add	 esp, 28			; 0000001cH

; 123  : 	}

  0002a	3b ec		 cmp	 ebp, esp
  0002c	e8 00 00 00 00	 call	 __RTC_CheckEsp
  00031	5d		 pop	 ebp
  00032	c3		 ret	 0
?TraceV@CTrace@ATL@@QBAXPBDHKI0PAD@Z ENDP		; ATL::CTrace::TraceV
; Function compile flags: /Odt /RTCsu
_TEXT	ENDS
;	COMDAT ??BCTraceCategory@ATL@@QBEKXZ
_TEXT	SEGMENT
_this$ = -4						; size = 4
??BCTraceCategory@ATL@@QBEKXZ PROC NEAR			; ATL::CTraceCategory::operator unsigned long, COMDAT
; _this$ = ecx

; 202  : {

  00000	55		 push	 ebp
  00001	8b ec		 mov	 ebp, esp
  00003	51		 push	 ecx
  00004	c7 45 fc cc cc
	cc cc		 mov	 DWORD PTR [ebp-4], -858993460 ; ccccccccH
  0000b	89 4d fc	 mov	 DWORD PTR _this$[ebp], ecx

; 203  : 	return( m_dwCategory );

  0000e	8b 45 fc	 mov	 eax, DWORD PTR _this$[ebp]
  00011	8b 00		 mov	 eax, DWORD PTR [eax]

; 204  : }

  00013	8b e5		 mov	 esp, ebp
  00015	5d		 pop	 ebp
  00016	c3		 ret	 0
??BCTraceCategory@ATL@@QBEKXZ ENDP			; ATL::CTraceCategory::operator unsigned long
_TEXT	ENDS
PUBLIC	??0iterator@?$list@PAVIMessageObserver@@V?$allocator@PAVIMessageObserver@@@std@@@std@@QAE@PAU_Node@?$_List_nod@PAVIMessageObserver@@V?$allocator@PAVIMessageObserver@@@std@@@2@@Z ; std::list<IMessageObserver *,std::allocator<IMessageObserver *> >::iterator::iterator
PUBLIC	?_Nextnode@?$list@PAVIMessageObserver@@V?$allocator@PAVIMessageObserver@@@std@@@std@@KAAAPAU_Node@?$_List_nod@PAVIMessageObserver@@V?$allocator@PAVIMessageObserver@@@std@@@2@PAU342@@Z ; std::list<IMessageObserver *,std::allocator<IMessageObserver *> >::_Nextnode
; Function compile flags: /Odt /RTCsu
; File d:\program files (x86)\microsoft visual studio .net 2003\vc7\include\list
;	COMDAT ?begin@?$list@PAVIMessageObserver@@V?$allocator@PAVIMessageObserver@@@std@@@std@@QAE?AViterator@12@XZ
_TEXT	SEGMENT
_this$ = -4						; size = 4
___$ReturnUdt$ = 8					; size = 4
?begin@?$list@PAVIMessageObserver@@V?$allocator@PAVIMessageObserver@@@std@@@std@@QAE?AViterator@12@XZ PROC NEAR ; std::list<IMessageObserver *,std::allocator<IMessageObserver *> >::begin, COMDAT
; _this$ = ecx

; 376  : 		{	// return iterator for beginning of mutable sequence

  00000	55		 push	 ebp
  00001	8b ec		 mov	 ebp, esp
  00003	51		 push	 ecx
  00004	c7 45 fc cc cc
	cc cc		 mov	 DWORD PTR [ebp-4], -858993460 ; ccccccccH
  0000b	89 4d fc	 mov	 DWORD PTR _this$[ebp], ecx

; 377  : 		return (iterator(_Nextnode(_Myhead)));

  0000e	8b 45 fc	 mov	 eax, DWORD PTR _this$[ebp]
  00011	8b 48 04	 mov	 ecx, DWORD PTR [eax+4]
  00014	51		 push	 ecx
  00015	e8 00 00 00 00	 call	 ?_Nextnode@?$list@PAVIMessageObserver@@V?$allocator@PAVIMessageObserver@@@std@@@std@@KAAAPAU_Node@?$_List_nod@PAVIMessageObserver@@V?$allocator@PAVIMessageObserver@@@std@@@2@PAU342@@Z ; std::list<IMessageObserver *,std::allocator<IMessageObserver *> >::_Nextnode
  0001a	83 c4 04	 add	 esp, 4
  0001d	8b 10		 mov	 edx, DWORD PTR [eax]
  0001f	52		 push	 edx
  00020	8b 4d 08	 mov	 ecx, DWORD PTR ___$ReturnUdt$[ebp]
  00023	e8 00 00 00 00	 call	 ??0iterator@?$list@PAVIMessageObserver@@V?$allocator@PAVIMessageObserver@@@std@@@std@@QAE@PAU_Node@?$_List_nod@PAVIMessageObserver@@V?$allocator@PAVIMessageObserver@@@std@@@2@@Z ; std::list<IMessageObserver *,std::allocator<IMessageObserver *> >::iterator::iterator
  00028	8b 45 08	 mov	 eax, DWORD PTR ___$ReturnUdt$[ebp]

; 378  : 		}

  0002b	83 c4 04	 add	 esp, 4
  0002e	3b ec		 cmp	 ebp, esp
  00030	e8 00 00 00 00	 call	 __RTC_CheckEsp
  00035	8b e5		 mov	 esp, ebp
  00037	5d		 pop	 ebp
  00038	c2 04 00	 ret	 4
?begin@?$list@PAVIMessageObserver@@V?$allocator@PAVIMessageObserver@@@std@@@std@@QAE?AViterator@12@XZ ENDP ; std::list<IMessageObserver *,std::allocator<IMessageObserver *> >::begin
; Function compile flags: /Odt /RTCsu
_TEXT	ENDS
;	COMDAT ?end@?$list@PAVIMessageObserver@@V?$allocator@PAVIMessageObserver@@@std@@@std@@QAE?AViterator@12@XZ
_TEXT	SEGMENT
_this$ = -4						; size = 4
___$ReturnUdt$ = 8					; size = 4
?end@?$list@PAVIMessageObserver@@V?$allocator@PAVIMessageObserver@@@std@@@std@@QAE?AViterator@12@XZ PROC NEAR ; std::list<IMessageObserver *,std::allocator<IMessageObserver *> >::end, COMDAT
; _this$ = ecx

; 386  : 		{	// return iterator for end of mutable sequence

  00000	55		 push	 ebp
  00001	8b ec		 mov	 ebp, esp
  00003	51		 push	 ecx
  00004	c7 45 fc cc cc
	cc cc		 mov	 DWORD PTR [ebp-4], -858993460 ; ccccccccH
  0000b	89 4d fc	 mov	 DWORD PTR _this$[ebp], ecx

; 387  : 		return (iterator(_Myhead));

  0000e	8b 45 fc	 mov	 eax, DWORD PTR _this$[ebp]
  00011	8b 48 04	 mov	 ecx, DWORD PTR [eax+4]
  00014	51		 push	 ecx
  00015	8b 4d 08	 mov	 ecx, DWORD PTR ___$ReturnUdt$[ebp]
  00018	e8 00 00 00 00	 call	 ??0iterator@?$list@PAVIMessageObserver@@V?$allocator@PAVIMessageObserver@@@std@@@std@@QAE@PAU_Node@?$_List_nod@PAVIMessageObserver@@V?$allocator@PAVIMessageObserver@@@std@@@2@@Z ; std::list<IMessageObserver *,std::allocator<IMessageObserver *> >::iterator::iterator
  0001d	8b 45 08	 mov	 eax, DWORD PTR ___$ReturnUdt$[ebp]

; 388  : 		}

  00020	83 c4 04	 add	 esp, 4
  00023	3b ec		 cmp	 ebp, esp
  00025	e8 00 00 00 00	 call	 __RTC_CheckEsp
  0002a	8b e5		 mov	 esp, ebp
  0002c	5d		 pop	 ebp
  0002d	c2 04 00	 ret	 4
?end@?$list@PAVIMessageObserver@@V?$allocator@PAVIMessageObserver@@@std@@@std@@QAE?AViterator@12@XZ ENDP ; std::list<IMessageObserver *,std::allocator<IMessageObserver *> >::end
_TEXT	ENDS
PUBLIC	??Dconst_iterator@?$list@PAVIMessageObserver@@V?$allocator@PAVIMessageObserver@@@std@@@std@@QBEABQAVIMessageObserver@@XZ ; std::list<IMessageObserver *,std::allocator<IMessageObserver *> >::const_iterator::operator*
; Function compile flags: /Odt /RTCsu
;	COMDAT ??Diterator@?$list@PAVIMessageObserver@@V?$allocator@PAVIMessageObserver@@@std@@@std@@QBEAAPAVIMessageObserver@@XZ
_TEXT	SEGMENT
_this$ = -4						; size = 4
??Diterator@?$list@PAVIMessageObserver@@V?$allocator@PAVIMessageObserver@@@std@@@std@@QBEAAPAVIMessageObserver@@XZ PROC NEAR ; std::list<IMessageObserver *,std::allocator<IMessageObserver *> >::iterator::operator*, COMDAT
; _this$ = ecx

; 239  : 			{	// return designated value

  00000	55		 push	 ebp
  00001	8b ec		 mov	 ebp, esp
  00003	51		 push	 ecx
  00004	c7 45 fc cc cc
	cc cc		 mov	 DWORD PTR [ebp-4], -858993460 ; ccccccccH
  0000b	89 4d fc	 mov	 DWORD PTR _this$[ebp], ecx

; 240  : 			return ((reference)**(const_iterator *)this);

  0000e	8b 4d fc	 mov	 ecx, DWORD PTR _this$[ebp]
  00011	e8 00 00 00 00	 call	 ??Dconst_iterator@?$list@PAVIMessageObserver@@V?$allocator@PAVIMessageObserver@@@std@@@std@@QBEABQAVIMessageObserver@@XZ ; std::list<IMessageObserver *,std::allocator<IMessageObserver *> >::const_iterator::operator*

; 241  : 			}

  00016	83 c4 04	 add	 esp, 4
  00019	3b ec		 cmp	 ebp, esp
  0001b	e8 00 00 00 00	 call	 __RTC_CheckEsp
  00020	8b e5		 mov	 esp, ebp
  00022	5d		 pop	 ebp
  00023	c3		 ret	 0
??Diterator@?$list@PAVIMessageObserver@@V?$allocator@PAVIMessageObserver@@@std@@@std@@QBEAAPAVIMessageObserver@@XZ ENDP ; std::list<IMessageObserver *,std::allocator<IMessageObserver *> >::iterator::operator*
_TEXT	ENDS
PUBLIC	??Eiterator@?$list@PAVIMessageObserver@@V?$allocator@PAVIMessageObserver@@@std@@@std@@QAEAAV012@XZ ; std::list<IMessageObserver *,std::allocator<IMessageObserver *> >::iterator::operator++
; Function compile flags: /Odt /RTCsu
;	COMDAT ??Eiterator@?$list@PAVIMessageObserver@@V?$allocator@PAVIMessageObserver@@@std@@@std@@QAE?AV012@H@Z
_TEXT	SEGMENT
__Tmp$ = -12						; size = 4
_this$ = -4						; size = 4
___$ReturnUdt$ = 8					; size = 4
___formal$ = 12						; size = 4
??Eiterator@?$list@PAVIMessageObserver@@V?$allocator@PAVIMessageObserver@@@std@@@std@@QAE?AV012@H@Z PROC NEAR ; std::list<IMessageObserver *,std::allocator<IMessageObserver *> >::iterator::operator++, COMDAT
; _this$ = ecx

; 255  : 			{	// postincrement

  00000	55		 push	 ebp
  00001	8b ec		 mov	 ebp, esp
  00003	83 ec 10	 sub	 esp, 16			; 00000010H
  00006	b8 cc cc cc cc	 mov	 eax, -858993460		; ccccccccH
  0000b	89 45 f0	 mov	 DWORD PTR [ebp-16], eax
  0000e	89 45 f4	 mov	 DWORD PTR [ebp-12], eax
  00011	89 45 f8	 mov	 DWORD PTR [ebp-8], eax
  00014	89 45 fc	 mov	 DWORD PTR [ebp-4], eax
  00017	89 4d fc	 mov	 DWORD PTR _this$[ebp], ecx

; 256  : 			iterator _Tmp = *this;

  0001a	8b 45 fc	 mov	 eax, DWORD PTR _this$[ebp]
  0001d	8b 08		 mov	 ecx, DWORD PTR [eax]
  0001f	89 4d f4	 mov	 DWORD PTR __Tmp$[ebp], ecx

; 257  : 			++*this;

  00022	8b 4d fc	 mov	 ecx, DWORD PTR _this$[ebp]
  00025	e8 00 00 00 00	 call	 ??Eiterator@?$list@PAVIMessageObserver@@V?$allocator@PAVIMessageObserver@@@std@@@std@@QAEAAV012@XZ ; std::list<IMessageObserver *,std::allocator<IMessageObserver *> >::iterator::operator++

; 258  : 			return (_Tmp);

  0002a	8b 55 08	 mov	 edx, DWORD PTR ___$ReturnUdt$[ebp]
  0002d	8b 45 f4	 mov	 eax, DWORD PTR __Tmp$[ebp]
  00030	89 02		 mov	 DWORD PTR [edx], eax
  00032	8b 45 08	 mov	 eax, DWORD PTR ___$ReturnUdt$[ebp]

; 259  : 			}

  00035	52		 push	 edx
  00036	8b cd		 mov	 ecx, ebp
  00038	50		 push	 eax
  00039	8d 15 00 00 00
	00		 lea	 edx, DWORD PTR $L193618
  0003f	e8 00 00 00 00	 call	 @_RTC_CheckStackVars@8
  00044	58		 pop	 eax
  00045	5a		 pop	 edx
  00046	83 c4 10	 add	 esp, 16			; 00000010H
  00049	3b ec		 cmp	 ebp, esp
  0004b	e8 00 00 00 00	 call	 __RTC_CheckEsp
  00050	8b e5		 mov	 esp, ebp
  00052	5d		 pop	 ebp
  00053	c2 08 00	 ret	 8
$L193618:
  00056	01 00 00 00	 DD	 1
  0005a	00 00 00 00	 DD	 $L193617
$L193617:
  0005e	f4 ff ff ff	 DD	 -12			; fffffff4H
  00062	04 00 00 00	 DD	 4
  00066	00 00 00 00	 DD	 $L193616
$L193616:
  0006a	5f		 DB	 95			; 0000005fH
  0006b	54		 DB	 84			; 00000054H
  0006c	6d		 DB	 109			; 0000006dH
  0006d	70		 DB	 112			; 00000070H
  0006e	00		 DB	 0
??Eiterator@?$list@PAVIMessageObserver@@V?$allocator@PAVIMessageObserver@@@std@@@std@@QAE?AV012@H@Z ENDP ; std::list<IMessageObserver *,std::allocator<IMessageObserver *> >::iterator::operator++
_TEXT	ENDS
PUBLIC	?GetStringTypeExWFake@ATL@@YGHKKPB_WHPAG@Z	; ATL::GetStringTypeExWFake
EXTRN	__imp__GetStringTypeExW@20:NEAR
; Function compile flags: /Odt /RTCsu
; File d:\program files (x86)\microsoft visual studio .net 2003\vc7\atlmfc\include\cstringt.h
;	COMDAT ?GetStringTypeExWThunk@ATL@@YGHKKPB_WHPAG@Z
_TEXT	SEGMENT
_lcid$ = 8						; size = 4
_dwInfoType$ = 12					; size = 4
_pszSrc$ = 16						; size = 4
_nLength$ = 20						; size = 4
_pwCharType$ = 24					; size = 4
?GetStringTypeExWThunk@ATL@@YGHKKPB_WHPAG@Z PROC NEAR	; ATL::GetStringTypeExWThunk, COMDAT

; 240  : {

  00000	55		 push	 ebp
  00001	8b ec		 mov	 ebp, esp
  00003	56		 push	 esi

; 241  : 	_AtlInstallStringThunk(reinterpret_cast<void**>(&_strthunks.pfnGetStringTypeExW), GetStringTypeExWFake, ::GetStringTypeExW);

  00004	a1 00 00 00 00	 mov	 eax, DWORD PTR __imp__GetStringTypeExW@20
  00009	50		 push	 eax
  0000a	68 00 00 00 00	 push	 OFFSET FLAT:?GetStringTypeExWFake@ATL@@YGHKKPB_WHPAG@Z ; ATL::GetStringTypeExWFake
  0000f	68 04 00 00 00	 push	 OFFSET FLAT:?_strthunks@ATL@@3U_AtlStringThunks@1@A+4
  00014	e8 00 00 00 00	 call	 ?_AtlInstallStringThunk@ATL@@YAXPAPAXPAX1@Z ; ATL::_AtlInstallStringThunk
  00019	83 c4 0c	 add	 esp, 12			; 0000000cH

; 242  : 
; 243  : 	return _strthunks.pfnGetStringTypeExW(lcid, dwInfoType, pszSrc, nLength, pwCharType);

  0001c	8b f4		 mov	 esi, esp
  0001e	8b 4d 18	 mov	 ecx, DWORD PTR _pwCharType$[ebp]
  00021	51		 push	 ecx
  00022	8b 55 14	 mov	 edx, DWORD PTR _nLength$[ebp]
  00025	52		 push	 edx
  00026	8b 45 10	 mov	 eax, DWORD PTR _pszSrc$[ebp]
  00029	50		 push	 eax
  0002a	8b 4d 0c	 mov	 ecx, DWORD PTR _dwInfoType$[ebp]
  0002d	51		 push	 ecx
  0002e	8b 55 08	 mov	 edx, DWORD PTR _lcid$[ebp]
  00031	52		 push	 edx
  00032	ff 15 04 00 00
	00		 call	 DWORD PTR ?_strthunks@ATL@@3U_AtlStringThunks@1@A+4
  00038	3b f4		 cmp	 esi, esp
  0003a	e8 00 00 00 00	 call	 __RTC_CheckEsp

; 244  : }

  0003f	5e		 pop	 esi
  00040	3b ec		 cmp	 ebp, esp
  00042	e8 00 00 00 00	 call	 __RTC_CheckEsp
  00047	5d		 pop	 ebp
  00048	c2 14 00	 ret	 20			; 00000014H
?GetStringTypeExWThunk@ATL@@YGHKKPB_WHPAG@Z ENDP	; ATL::GetStringTypeExWThunk
_TEXT	ENDS
EXTRN	__imp__GetStringTypeExA@20:NEAR
;	COMDAT xdata$x
xdata$x	SEGMENT
$T193631 DD	0ffffffffH
	DD	FLAT:$L193623
$T193625 DD	019930520H
	DD	01H
	DD	FLAT:$T193631
	DD	2 DUP(00H)
	DD	2 DUP(00H)
; Function compile flags: /Odt /RTCsu
xdata$x	ENDS
;	COMDAT ?GetStringTypeExWFake@ATL@@YGHKKPB_WHPAG@Z
_TEXT	SEGMENT
$T193622 = -164						; size = 4
_pszA$ = -156						; size = 132
_nLengthA$ = -20					; size = 4
__$ArrayPad$ = -16					; size = 4
__$EHRec$ = -12						; size = 12
__$ReturnAddr$ = 4					; size = 4
_lcid$ = 8						; size = 4
_dwInfoType$ = 12					; size = 4
_pszSrc$ = 16						; size = 4
_nLength$ = 20						; size = 4
_pwCharType$ = 24					; size = 4
?GetStringTypeExWFake@ATL@@YGHKKPB_WHPAG@Z PROC NEAR	; ATL::GetStringTypeExWFake, COMDAT

; 224  : {

  00000	55		 push	 ebp
  00001	8b ec		 mov	 ebp, esp
  00003	6a ff		 push	 -1
  00005	68 00 00 00 00	 push	 __ehhandler$?GetStringTypeExWFake@ATL@@YGHKKPB_WHPAG@Z
  0000a	64 a1 00 00 00
	00		 mov	 eax, DWORD PTR fs:__except_list
  00010	50		 push	 eax
  00011	64 89 25 00 00
	00 00		 mov	 DWORD PTR fs:__except_list, esp
  00018	81 ec 98 00 00
	00		 sub	 esp, 152		; 00000098H
  0001e	56		 push	 esi
  0001f	57		 push	 edi
  00020	8d bd 5c ff ff
	ff		 lea	 edi, DWORD PTR [ebp-164]
  00026	b9 26 00 00 00	 mov	 ecx, 38			; 00000026H
  0002b	b8 cc cc cc cc	 mov	 eax, -858993460		; ccccccccH
  00030	f3 ab		 rep stosd
  00032	a1 00 00 00 00	 mov	 eax, DWORD PTR ___security_cookie
  00037	89 45 f0	 mov	 DWORD PTR __$ArrayPad$[ebp], eax

; 225  : 	int nLengthA;
; 226  : 	CTempBuffer<char> pszA;

  0003a	8d 8d 64 ff ff
	ff		 lea	 ecx, DWORD PTR _pszA$[ebp]
  00040	e8 00 00 00 00	 call	 ??0?$CTempBuffer@D$0IA@VCCRTAllocator@ATL@@@ATL@@QAE@XZ ; ATL::CTempBuffer<char,128,ATL::CCRTAllocator>::CTempBuffer<char,128,ATL::CCRTAllocator>
  00045	c7 45 fc 00 00
	00 00		 mov	 DWORD PTR __$EHRec$[ebp+8], 0

; 227  : 
; 228  : 	nLengthA = ::WideCharToMultiByte(_AtlGetConversionACP(), 0, pszSrc, nLength, NULL, 0, NULL, NULL);

  0004c	8b f4		 mov	 esi, esp
  0004e	6a 00		 push	 0
  00050	6a 00		 push	 0
  00052	6a 00		 push	 0
  00054	6a 00		 push	 0
  00056	8b 45 14	 mov	 eax, DWORD PTR _nLength$[ebp]
  00059	50		 push	 eax
  0005a	8b 4d 10	 mov	 ecx, DWORD PTR _pszSrc$[ebp]
  0005d	51		 push	 ecx
  0005e	6a 00		 push	 0
  00060	e8 00 00 00 00	 call	 ?_AtlGetConversionACP@ATL@@YGIXZ ; ATL::_AtlGetConversionACP
  00065	50		 push	 eax
  00066	ff 15 00 00 00
	00		 call	 DWORD PTR __imp__WideCharToMultiByte@32
  0006c	3b f4		 cmp	 esi, esp
  0006e	e8 00 00 00 00	 call	 __RTC_CheckEsp
  00073	89 45 ec	 mov	 DWORD PTR _nLengthA$[ebp], eax

; 229  : 	pszA.Allocate(nLengthA);

  00076	8b 55 ec	 mov	 edx, DWORD PTR _nLengthA$[ebp]
  00079	52		 push	 edx
  0007a	8d 8d 64 ff ff
	ff		 lea	 ecx, DWORD PTR _pszA$[ebp]
  00080	e8 00 00 00 00	 call	 ?Allocate@?$CTempBuffer@D$0IA@VCCRTAllocator@ATL@@@ATL@@QAEPADI@Z ; ATL::CTempBuffer<char,128,ATL::CCRTAllocator>::Allocate

; 230  : 	::WideCharToMultiByte(_AtlGetConversionACP(), 0, pszSrc, nLength, pszA, nLengthA, NULL, NULL);

  00085	8b f4		 mov	 esi, esp
  00087	6a 00		 push	 0
  00089	6a 00		 push	 0
  0008b	8b 45 ec	 mov	 eax, DWORD PTR _nLengthA$[ebp]
  0008e	50		 push	 eax
  0008f	8d 8d 64 ff ff
	ff		 lea	 ecx, DWORD PTR _pszA$[ebp]
  00095	e8 00 00 00 00	 call	 ??B?$CTempBuffer@D$0IA@VCCRTAllocator@ATL@@@ATL@@QBEPADXZ ; ATL::CTempBuffer<char,128,ATL::CCRTAllocator>::operator char *
  0009a	50		 push	 eax
  0009b	8b 4d 14	 mov	 ecx, DWORD PTR _nLength$[ebp]
  0009e	51		 push	 ecx
  0009f	8b 55 10	 mov	 edx, DWORD PTR _pszSrc$[ebp]
  000a2	52		 push	 edx
  000a3	6a 00		 push	 0
  000a5	e8 00 00 00 00	 call	 ?_AtlGetConversionACP@ATL@@YGIXZ ; ATL::_AtlGetConversionACP
  000aa	50		 push	 eax
  000ab	ff 15 00 00 00
	00		 call	 DWORD PTR __imp__WideCharToMultiByte@32
  000b1	3b f4		 cmp	 esi, esp
  000b3	e8 00 00 00 00	 call	 __RTC_CheckEsp

; 231  : 
; 232  : 	if (nLength == -1)

  000b8	83 7d 14 ff	 cmp	 DWORD PTR _nLength$[ebp], -1
  000bc	75 07		 jne	 SHORT $L26381

; 233  : 		nLengthA = -1;

  000be	c7 45 ec ff ff
	ff ff		 mov	 DWORD PTR _nLengthA$[ebp], -1
$L26381:

; 234  : 
; 235  : 	return ::GetStringTypeExA(lcid, dwInfoType, pszA, nLengthA, pwCharType);

  000c5	8b f4		 mov	 esi, esp
  000c7	8b 45 18	 mov	 eax, DWORD PTR _pwCharType$[ebp]
  000ca	50		 push	 eax
  000cb	8b 4d ec	 mov	 ecx, DWORD PTR _nLengthA$[ebp]
  000ce	51		 push	 ecx
  000cf	8d 8d 64 ff ff
	ff		 lea	 ecx, DWORD PTR _pszA$[ebp]
  000d5	e8 00 00 00 00	 call	 ??B?$CTempBuffer@D$0IA@VCCRTAllocator@ATL@@@ATL@@QBEPADXZ ; ATL::CTempBuffer<char,128,ATL::CCRTAllocator>::operator char *
  000da	50		 push	 eax
  000db	8b 55 0c	 mov	 edx, DWORD PTR _dwInfoType$[ebp]
  000de	52		 push	 edx
  000df	8b 45 08	 mov	 eax, DWORD PTR _lcid$[ebp]
  000e2	50		 push	 eax
  000e3	ff 15 00 00 00
	00		 call	 DWORD PTR __imp__GetStringTypeExA@20
  000e9	3b f4		 cmp	 esi, esp
  000eb	e8 00 00 00 00	 call	 __RTC_CheckEsp
  000f0	89 85 5c ff ff
	ff		 mov	 DWORD PTR $T193622[ebp], eax
  000f6	c7 45 fc ff ff
	ff ff		 mov	 DWORD PTR __$EHRec$[ebp+8], -1
  000fd	8d 8d 64 ff ff
	ff		 lea	 ecx, DWORD PTR _pszA$[ebp]
  00103	e8 00 00 00 00	 call	 ??1?$CTempBuffer@D$0IA@VCCRTAllocator@ATL@@@ATL@@QAE@XZ ; ATL::CTempBuffer<char,128,ATL::CCRTAllocator>::~CTempBuffer<char,128,ATL::CCRTAllocator>
  00108	8b 85 5c ff ff
	ff		 mov	 eax, DWORD PTR $T193622[ebp]

; 236  : }

  0010e	52		 push	 edx
  0010f	8b cd		 mov	 ecx, ebp
  00111	50		 push	 eax
  00112	8d 15 00 00 00
	00		 lea	 edx, DWORD PTR $L193630
  00118	e8 00 00 00 00	 call	 @_RTC_CheckStackVars@8
  0011d	58		 pop	 eax
  0011e	5a		 pop	 edx
  0011f	8b 4d f4	 mov	 ecx, DWORD PTR __$EHRec$[ebp]
  00122	64 89 0d 00 00
	00 00		 mov	 DWORD PTR fs:__except_list, ecx
  00129	8b 4d f0	 mov	 ecx, DWORD PTR __$ArrayPad$[ebp]
  0012c	e8 00 00 00 00	 call	 @__security_check_cookie@4
  00131	5f		 pop	 edi
  00132	5e		 pop	 esi
  00133	81 c4 a4 00 00
	00		 add	 esp, 164		; 000000a4H
  00139	3b ec		 cmp	 ebp, esp
  0013b	e8 00 00 00 00	 call	 __RTC_CheckEsp
  00140	8b e5		 mov	 esp, ebp
  00142	5d		 pop	 ebp
  00143	c2 14 00	 ret	 20			; 00000014H
$L193630:
  00146	01 00 00 00	 DD	 1
  0014a	00 00 00 00	 DD	 $L193629
$L193629:
  0014e	64 ff ff ff	 DD	 -156			; ffffff64H
  00152	84 00 00 00	 DD	 132			; 00000084H
  00156	00 00 00 00	 DD	 $L193626
$L193626:
  0015a	70		 DB	 112			; 00000070H
  0015b	73		 DB	 115			; 00000073H
  0015c	7a		 DB	 122			; 0000007aH
  0015d	41		 DB	 65			; 00000041H
  0015e	00		 DB	 0
_TEXT	ENDS
;	COMDAT text$x
text$x	SEGMENT
$L193623:
  00000	8d 8d 64 ff ff
	ff		 lea	 ecx, DWORD PTR _pszA$[ebp]
  00006	e9 00 00 00 00	 jmp	 ??1?$CTempBuffer@D$0IA@VCCRTAllocator@ATL@@@ATL@@QAE@XZ ; ATL::CTempBuffer<char,128,ATL::CCRTAllocator>::~CTempBuffer<char,128,ATL::CCRTAllocator>
__ehhandler$?GetStringTypeExWFake@ATL@@YGHKKPB_WHPAG@Z:
  0000b	b8 00 00 00 00	 mov	 eax, OFFSET FLAT:$T193625
  00010	e9 00 00 00 00	 jmp	 ___CxxFrameHandler
text$x	ENDS
?GetStringTypeExWFake@ATL@@YGHKKPB_WHPAG@Z ENDP		; ATL::GetStringTypeExWFake
PUBLIC	??8const_iterator@?$list@PAVIMessageObserver@@V?$allocator@PAVIMessageObserver@@@std@@@std@@QBE_NABV012@@Z ; std::list<IMessageObserver *,std::allocator<IMessageObserver *> >::const_iterator::operator==
; Function compile flags: /Odt /RTCsu
; File d:\program files (x86)\microsoft visual studio .net 2003\vc7\include\list
;	COMDAT ??9const_iterator@?$list@PAVIMessageObserver@@V?$allocator@PAVIMessageObserver@@@std@@@std@@QBE_NABV012@@Z
_TEXT	SEGMENT
_this$ = -4						; size = 4
__Right$ = 8						; size = 4
??9const_iterator@?$list@PAVIMessageObserver@@V?$allocator@PAVIMessageObserver@@@std@@@std@@QBE_NABV012@@Z PROC NEAR ; std::list<IMessageObserver *,std::allocator<IMessageObserver *> >::const_iterator::operator!=, COMDAT
; _this$ = ecx

; 201  : 			{	// test for iterator inequality

  00000	55		 push	 ebp
  00001	8b ec		 mov	 ebp, esp
  00003	51		 push	 ecx
  00004	c7 45 fc cc cc
	cc cc		 mov	 DWORD PTR [ebp-4], -858993460 ; ccccccccH
  0000b	89 4d fc	 mov	 DWORD PTR _this$[ebp], ecx

; 202  : 			return (!(*this == _Right));

  0000e	8b 45 08	 mov	 eax, DWORD PTR __Right$[ebp]
  00011	50		 push	 eax
  00012	8b 4d fc	 mov	 ecx, DWORD PTR _this$[ebp]
  00015	e8 00 00 00 00	 call	 ??8const_iterator@?$list@PAVIMessageObserver@@V?$allocator@PAVIMessageObserver@@@std@@@std@@QBE_NABV012@@Z ; std::list<IMessageObserver *,std::allocator<IMessageObserver *> >::const_iterator::operator==
  0001a	0f b6 c0	 movzx	 eax, al
  0001d	f7 d8		 neg	 eax
  0001f	1b c0		 sbb	 eax, eax
  00021	40		 inc	 eax

; 203  : 			}

  00022	83 c4 04	 add	 esp, 4
  00025	3b ec		 cmp	 ebp, esp
  00027	e8 00 00 00 00	 call	 __RTC_CheckEsp
  0002c	8b e5		 mov	 esp, ebp
  0002e	5d		 pop	 ebp
  0002f	c2 04 00	 ret	 4
??9const_iterator@?$list@PAVIMessageObserver@@V?$allocator@PAVIMessageObserver@@@std@@@std@@QBE_NABV012@@Z ENDP ; std::list<IMessageObserver *,std::allocator<IMessageObserver *> >::const_iterator::operator!=
_TEXT	ENDS
PUBLIC	?lstrcmpiWFake@ATL@@YGHPB_W0@Z			; ATL::lstrcmpiWFake
EXTRN	__imp__lstrcmpiW@8:NEAR
; Function compile flags: /Odt /RTCsu
; File d:\program files (x86)\microsoft visual studio .net 2003\vc7\atlmfc\include\cstringt.h
;	COMDAT ?lstrcmpiWThunk@ATL@@YGHPB_W0@Z
_TEXT	SEGMENT
_psz1$ = 8						; size = 4
_psz2$ = 12						; size = 4
?lstrcmpiWThunk@ATL@@YGHPB_W0@Z PROC NEAR		; ATL::lstrcmpiWThunk, COMDAT

; 254  : {

  00000	55		 push	 ebp
  00001	8b ec		 mov	 ebp, esp
  00003	56		 push	 esi

; 255  : 	_AtlInstallStringThunk(reinterpret_cast<void**>(&_strthunks.pfnlstrcmpiW), lstrcmpiWFake, ::lstrcmpiW);

  00004	a1 00 00 00 00	 mov	 eax, DWORD PTR __imp__lstrcmpiW@8
  00009	50		 push	 eax
  0000a	68 00 00 00 00	 push	 OFFSET FLAT:?lstrcmpiWFake@ATL@@YGHPB_W0@Z ; ATL::lstrcmpiWFake
  0000f	68 08 00 00 00	 push	 OFFSET FLAT:?_strthunks@ATL@@3U_AtlStringThunks@1@A+8
  00014	e8 00 00 00 00	 call	 ?_AtlInstallStringThunk@ATL@@YAXPAPAXPAX1@Z ; ATL::_AtlInstallStringThunk
  00019	83 c4 0c	 add	 esp, 12			; 0000000cH

; 256  : 
; 257  : 	return _strthunks.pfnlstrcmpiW(psz1, psz2);

  0001c	8b f4		 mov	 esi, esp
  0001e	8b 4d 0c	 mov	 ecx, DWORD PTR _psz2$[ebp]
  00021	51		 push	 ecx
  00022	8b 55 08	 mov	 edx, DWORD PTR _psz1$[ebp]
  00025	52		 push	 edx
  00026	ff 15 08 00 00
	00		 call	 DWORD PTR ?_strthunks@ATL@@3U_AtlStringThunks@1@A+8
  0002c	3b f4		 cmp	 esi, esp
  0002e	e8 00 00 00 00	 call	 __RTC_CheckEsp

; 258  : }

  00033	5e		 pop	 esi
  00034	3b ec		 cmp	 ebp, esp
  00036	e8 00 00 00 00	 call	 __RTC_CheckEsp
  0003b	5d		 pop	 ebp
  0003c	c2 08 00	 ret	 8
?lstrcmpiWThunk@ATL@@YGHPB_W0@Z ENDP			; ATL::lstrcmpiWThunk
_TEXT	ENDS
EXTRN	__imp__lstrcmpiA@8:NEAR
; Function compile flags: /Odt /RTCsu
;	COMDAT ?lstrcmpiWFake@ATL@@YGHPB_W0@Z
_TEXT	SEGMENT
tv91 = -32						; size = 4
tv94 = -28						; size = 4
tv76 = -24						; size = 4
tv79 = -20						; size = 4
__lpa$ = -16						; size = 4
__lpw$ = -12						; size = 4
__acp$ = -8						; size = 4
__convert$ = -4						; size = 4
_psz1$ = 8						; size = 4
_psz2$ = 12						; size = 4
?lstrcmpiWFake@ATL@@YGHPB_W0@Z PROC NEAR		; ATL::lstrcmpiWFake, COMDAT

; 247  : {

  00000	55		 push	 ebp
  00001	8b ec		 mov	 ebp, esp
  00003	83 ec 20	 sub	 esp, 32			; 00000020H
  00006	56		 push	 esi
  00007	b8 cc cc cc cc	 mov	 eax, -858993460		; ccccccccH
  0000c	89 45 e0	 mov	 DWORD PTR [ebp-32], eax
  0000f	89 45 e4	 mov	 DWORD PTR [ebp-28], eax
  00012	89 45 e8	 mov	 DWORD PTR [ebp-24], eax
  00015	89 45 ec	 mov	 DWORD PTR [ebp-20], eax
  00018	89 45 f0	 mov	 DWORD PTR [ebp-16], eax
  0001b	89 45 f4	 mov	 DWORD PTR [ebp-12], eax
  0001e	89 45 f8	 mov	 DWORD PTR [ebp-8], eax
  00021	89 45 fc	 mov	 DWORD PTR [ebp-4], eax

; 248  : 	USES_CONVERSION;

  00024	c7 45 fc 00 00
	00 00		 mov	 DWORD PTR __convert$[ebp], 0
  0002b	e8 00 00 00 00	 call	 ?_AtlGetConversionACP@ATL@@YGIXZ ; ATL::_AtlGetConversionACP
  00030	89 45 f8	 mov	 DWORD PTR __acp$[ebp], eax
  00033	c7 45 f4 00 00
	00 00		 mov	 DWORD PTR __lpw$[ebp], 0
  0003a	c7 45 f0 00 00
	00 00		 mov	 DWORD PTR __lpa$[ebp], 0

; 249  : 
; 250  : 	return ::lstrcmpiA(W2A(psz1), W2A(psz2));

  00041	8b 45 0c	 mov	 eax, DWORD PTR _psz2$[ebp]
  00044	89 45 f4	 mov	 DWORD PTR __lpw$[ebp], eax
  00047	83 7d f4 00	 cmp	 DWORD PTR __lpw$[ebp], 0
  0004b	75 09		 jne	 SHORT $L193637
  0004d	c7 45 ec 00 00
	00 00		 mov	 DWORD PTR tv79[ebp], 0
  00054	eb 43		 jmp	 SHORT $L193638
$L193637:
  00056	8b f4		 mov	 esi, esp
  00058	8b 4d f4	 mov	 ecx, DWORD PTR __lpw$[ebp]
  0005b	51		 push	 ecx
  0005c	ff 15 00 00 00
	00		 call	 DWORD PTR __imp__lstrlenW@4
  00062	3b f4		 cmp	 esi, esp
  00064	e8 00 00 00 00	 call	 __RTC_CheckEsp
  00069	8d 54 00 02	 lea	 edx, DWORD PTR [eax+eax+2]
  0006d	89 55 fc	 mov	 DWORD PTR __convert$[ebp], edx
  00070	8b 45 fc	 mov	 eax, DWORD PTR __convert$[ebp]
  00073	83 c0 03	 add	 eax, 3
  00076	83 e0 fc	 and	 eax, -4			; fffffffcH
  00079	e8 00 00 00 00	 call	 __alloca_probe
  0007e	89 65 e8	 mov	 DWORD PTR tv76[ebp], esp
  00081	8b 45 f8	 mov	 eax, DWORD PTR __acp$[ebp]
  00084	50		 push	 eax
  00085	8b 4d fc	 mov	 ecx, DWORD PTR __convert$[ebp]
  00088	51		 push	 ecx
  00089	8b 55 f4	 mov	 edx, DWORD PTR __lpw$[ebp]
  0008c	52		 push	 edx
  0008d	8b 45 e8	 mov	 eax, DWORD PTR tv76[ebp]
  00090	50		 push	 eax
  00091	e8 00 00 00 00	 call	 ?AtlW2AHelper@@YGPADPADPB_WHI@Z ; AtlW2AHelper
  00096	89 45 ec	 mov	 DWORD PTR tv79[ebp], eax
$L193638:
  00099	8b 4d 08	 mov	 ecx, DWORD PTR _psz1$[ebp]
  0009c	89 4d f4	 mov	 DWORD PTR __lpw$[ebp], ecx
  0009f	83 7d f4 00	 cmp	 DWORD PTR __lpw$[ebp], 0
  000a3	75 09		 jne	 SHORT $L193639
  000a5	c7 45 e4 00 00
	00 00		 mov	 DWORD PTR tv94[ebp], 0
  000ac	eb 43		 jmp	 SHORT $L193640
$L193639:
  000ae	8b f4		 mov	 esi, esp
  000b0	8b 55 f4	 mov	 edx, DWORD PTR __lpw$[ebp]
  000b3	52		 push	 edx
  000b4	ff 15 00 00 00
	00		 call	 DWORD PTR __imp__lstrlenW@4
  000ba	3b f4		 cmp	 esi, esp
  000bc	e8 00 00 00 00	 call	 __RTC_CheckEsp
  000c1	8d 44 00 02	 lea	 eax, DWORD PTR [eax+eax+2]
  000c5	89 45 fc	 mov	 DWORD PTR __convert$[ebp], eax
  000c8	8b 45 fc	 mov	 eax, DWORD PTR __convert$[ebp]
  000cb	83 c0 03	 add	 eax, 3
  000ce	83 e0 fc	 and	 eax, -4			; fffffffcH
  000d1	e8 00 00 00 00	 call	 __alloca_probe
  000d6	89 65 e0	 mov	 DWORD PTR tv91[ebp], esp
  000d9	8b 4d f8	 mov	 ecx, DWORD PTR __acp$[ebp]
  000dc	51		 push	 ecx
  000dd	8b 55 fc	 mov	 edx, DWORD PTR __convert$[ebp]
  000e0	52		 push	 edx
  000e1	8b 45 f4	 mov	 eax, DWORD PTR __lpw$[ebp]
  000e4	50		 push	 eax
  000e5	8b 4d e0	 mov	 ecx, DWORD PTR tv91[ebp]
  000e8	51		 push	 ecx
  000e9	e8 00 00 00 00	 call	 ?AtlW2AHelper@@YGPADPADPB_WHI@Z ; AtlW2AHelper
  000ee	89 45 e4	 mov	 DWORD PTR tv94[ebp], eax
$L193640:
  000f1	8b f4		 mov	 esi, esp
  000f3	8b 55 ec	 mov	 edx, DWORD PTR tv79[ebp]
  000f6	52		 push	 edx
  000f7	8b 45 e4	 mov	 eax, DWORD PTR tv94[ebp]
  000fa	50		 push	 eax
  000fb	ff 15 00 00 00
	00		 call	 DWORD PTR __imp__lstrcmpiA@8
  00101	3b f4		 cmp	 esi, esp
  00103	e8 00 00 00 00	 call	 __RTC_CheckEsp

; 251  : }

  00108	8d 65 dc	 lea	 esp, DWORD PTR [ebp-36]
  0010b	5e		 pop	 esi
  0010c	8b e5		 mov	 esp, ebp
  0010e	5d		 pop	 ebp
  0010f	c2 08 00	 ret	 8
?lstrcmpiWFake@ATL@@YGHPB_W0@Z ENDP			; ATL::lstrcmpiWFake
_TEXT	ENDS
PUBLIC	?CharLowerWFake@ATL@@YGPA_WPA_W@Z		; ATL::CharLowerWFake
EXTRN	__imp__CharLowerW@4:NEAR
; Function compile flags: /Odt /RTCsu
;	COMDAT ?CharLowerWThunk@ATL@@YGPA_WPA_W@Z
_TEXT	SEGMENT
_psz$ = 8						; size = 4
?CharLowerWThunk@ATL@@YGPA_WPA_W@Z PROC NEAR		; ATL::CharLowerWThunk, COMDAT

; 273  : {

  00000	55		 push	 ebp
  00001	8b ec		 mov	 ebp, esp
  00003	56		 push	 esi

; 274  : 	_AtlInstallStringThunk(reinterpret_cast<void**>(&_strthunks.pfnCharLowerW), CharLowerWFake, ::CharLowerW);

  00004	a1 00 00 00 00	 mov	 eax, DWORD PTR __imp__CharLowerW@4
  00009	50		 push	 eax
  0000a	68 00 00 00 00	 push	 OFFSET FLAT:?CharLowerWFake@ATL@@YGPA_WPA_W@Z ; ATL::CharLowerWFake
  0000f	68 0c 00 00 00	 push	 OFFSET FLAT:?_strthunks@ATL@@3U_AtlStringThunks@1@A+12
  00014	e8 00 00 00 00	 call	 ?_AtlInstallStringThunk@ATL@@YAXPAPAXPAX1@Z ; ATL::_AtlInstallStringThunk
  00019	83 c4 0c	 add	 esp, 12			; 0000000cH

; 275  : 
; 276  : 	return _strthunks.pfnCharLowerW(psz);

  0001c	8b f4		 mov	 esi, esp
  0001e	8b 4d 08	 mov	 ecx, DWORD PTR _psz$[ebp]
  00021	51		 push	 ecx
  00022	ff 15 0c 00 00
	00		 call	 DWORD PTR ?_strthunks@ATL@@3U_AtlStringThunks@1@A+12
  00028	3b f4		 cmp	 esi, esp
  0002a	e8 00 00 00 00	 call	 __RTC_CheckEsp

; 277  : }

  0002f	5e		 pop	 esi
  00030	3b ec		 cmp	 ebp, esp
  00032	e8 00 00 00 00	 call	 __RTC_CheckEsp
  00037	5d		 pop	 ebp
  00038	c2 04 00	 ret	 4
?CharLowerWThunk@ATL@@YGPA_WPA_W@Z ENDP			; ATL::CharLowerWThunk
_TEXT	ENDS
PUBLIC	?AtlA2WHelper@@YGPA_WPA_WPBDHI@Z		; AtlA2WHelper
EXTRN	__imp__lstrlenA@4:NEAR
EXTRN	__imp__CharLowerA@4:NEAR
EXTRN	__imp__wcscpy:NEAR
; Function compile flags: /Odt /RTCsu
;	COMDAT ?CharLowerWFake@ATL@@YGPA_WPA_W@Z
_TEXT	SEGMENT
tv90 = -36						; size = 4
tv94 = -32						; size = 4
tv75 = -28						; size = 4
tv78 = -24						; size = 4
_pszA$ = -20						; size = 4
__lpa$ = -16						; size = 4
__lpw$ = -12						; size = 4
__acp$ = -8						; size = 4
__convert$ = -4						; size = 4
_psz$ = 8						; size = 4
?CharLowerWFake@ATL@@YGPA_WPA_W@Z PROC NEAR		; ATL::CharLowerWFake, COMDAT

; 261  : {

  00000	55		 push	 ebp
  00001	8b ec		 mov	 ebp, esp
  00003	83 ec 24	 sub	 esp, 36			; 00000024H
  00006	56		 push	 esi
  00007	b8 cc cc cc cc	 mov	 eax, -858993460		; ccccccccH
  0000c	89 45 dc	 mov	 DWORD PTR [ebp-36], eax
  0000f	89 45 e0	 mov	 DWORD PTR [ebp-32], eax
  00012	89 45 e4	 mov	 DWORD PTR [ebp-28], eax
  00015	89 45 e8	 mov	 DWORD PTR [ebp-24], eax
  00018	89 45 ec	 mov	 DWORD PTR [ebp-20], eax
  0001b	89 45 f0	 mov	 DWORD PTR [ebp-16], eax
  0001e	89 45 f4	 mov	 DWORD PTR [ebp-12], eax
  00021	89 45 f8	 mov	 DWORD PTR [ebp-8], eax
  00024	89 45 fc	 mov	 DWORD PTR [ebp-4], eax

; 262  : 	USES_CONVERSION;

  00027	c7 45 fc 00 00
	00 00		 mov	 DWORD PTR __convert$[ebp], 0
  0002e	e8 00 00 00 00	 call	 ?_AtlGetConversionACP@ATL@@YGIXZ ; ATL::_AtlGetConversionACP
  00033	89 45 f8	 mov	 DWORD PTR __acp$[ebp], eax
  00036	c7 45 f4 00 00
	00 00		 mov	 DWORD PTR __lpw$[ebp], 0
  0003d	c7 45 f0 00 00
	00 00		 mov	 DWORD PTR __lpa$[ebp], 0

; 263  : 	LPSTR pszA;
; 264  : 
; 265  : 	pszA = W2A(psz);

  00044	8b 45 08	 mov	 eax, DWORD PTR _psz$[ebp]
  00047	89 45 f4	 mov	 DWORD PTR __lpw$[ebp], eax
  0004a	83 7d f4 00	 cmp	 DWORD PTR __lpw$[ebp], 0
  0004e	75 09		 jne	 SHORT $L193643
  00050	c7 45 e8 00 00
	00 00		 mov	 DWORD PTR tv78[ebp], 0
  00057	eb 43		 jmp	 SHORT $L193644
$L193643:
  00059	8b f4		 mov	 esi, esp
  0005b	8b 4d f4	 mov	 ecx, DWORD PTR __lpw$[ebp]
  0005e	51		 push	 ecx
  0005f	ff 15 00 00 00
	00		 call	 DWORD PTR __imp__lstrlenW@4
  00065	3b f4		 cmp	 esi, esp
  00067	e8 00 00 00 00	 call	 __RTC_CheckEsp
  0006c	8d 54 00 02	 lea	 edx, DWORD PTR [eax+eax+2]
  00070	89 55 fc	 mov	 DWORD PTR __convert$[ebp], edx
  00073	8b 45 fc	 mov	 eax, DWORD PTR __convert$[ebp]
  00076	83 c0 03	 add	 eax, 3
  00079	83 e0 fc	 and	 eax, -4			; fffffffcH
  0007c	e8 00 00 00 00	 call	 __alloca_probe
  00081	89 65 e4	 mov	 DWORD PTR tv75[ebp], esp
  00084	8b 45 f8	 mov	 eax, DWORD PTR __acp$[ebp]
  00087	50		 push	 eax
  00088	8b 4d fc	 mov	 ecx, DWORD PTR __convert$[ebp]
  0008b	51		 push	 ecx
  0008c	8b 55 f4	 mov	 edx, DWORD PTR __lpw$[ebp]
  0008f	52		 push	 edx
  00090	8b 45 e4	 mov	 eax, DWORD PTR tv75[ebp]
  00093	50		 push	 eax
  00094	e8 00 00 00 00	 call	 ?AtlW2AHelper@@YGPADPADPB_WHI@Z ; AtlW2AHelper
  00099	89 45 e8	 mov	 DWORD PTR tv78[ebp], eax
$L193644:
  0009c	8b 4d e8	 mov	 ecx, DWORD PTR tv78[ebp]
  0009f	89 4d ec	 mov	 DWORD PTR _pszA$[ebp], ecx

; 266  : 	::CharLowerA(pszA);

  000a2	8b f4		 mov	 esi, esp
  000a4	8b 55 ec	 mov	 edx, DWORD PTR _pszA$[ebp]
  000a7	52		 push	 edx
  000a8	ff 15 00 00 00
	00		 call	 DWORD PTR __imp__CharLowerA@4
  000ae	3b f4		 cmp	 esi, esp
  000b0	e8 00 00 00 00	 call	 __RTC_CheckEsp

; 267  : 	wcscpy(psz, A2W(pszA));

  000b5	8b 45 ec	 mov	 eax, DWORD PTR _pszA$[ebp]
  000b8	89 45 f0	 mov	 DWORD PTR __lpa$[ebp], eax
  000bb	83 7d f0 00	 cmp	 DWORD PTR __lpa$[ebp], 0
  000bf	75 09		 jne	 SHORT $L193645
  000c1	c7 45 e0 00 00
	00 00		 mov	 DWORD PTR tv94[ebp], 0
  000c8	eb 44		 jmp	 SHORT $L193646
$L193645:
  000ca	8b f4		 mov	 esi, esp
  000cc	8b 4d f0	 mov	 ecx, DWORD PTR __lpa$[ebp]
  000cf	51		 push	 ecx
  000d0	ff 15 00 00 00
	00		 call	 DWORD PTR __imp__lstrlenA@4
  000d6	3b f4		 cmp	 esi, esp
  000d8	e8 00 00 00 00	 call	 __RTC_CheckEsp
  000dd	83 c0 01	 add	 eax, 1
  000e0	89 45 fc	 mov	 DWORD PTR __convert$[ebp], eax
  000e3	8b 45 fc	 mov	 eax, DWORD PTR __convert$[ebp]
  000e6	d1 e0		 shl	 eax, 1
  000e8	83 c0 03	 add	 eax, 3
  000eb	83 e0 fc	 and	 eax, -4			; fffffffcH
  000ee	e8 00 00 00 00	 call	 __alloca_probe
  000f3	89 65 dc	 mov	 DWORD PTR tv90[ebp], esp
  000f6	8b 55 f8	 mov	 edx, DWORD PTR __acp$[ebp]
  000f9	52		 push	 edx
  000fa	8b 45 fc	 mov	 eax, DWORD PTR __convert$[ebp]
  000fd	50		 push	 eax
  000fe	8b 4d f0	 mov	 ecx, DWORD PTR __lpa$[ebp]
  00101	51		 push	 ecx
  00102	8b 55 dc	 mov	 edx, DWORD PTR tv90[ebp]
  00105	52		 push	 edx
  00106	e8 00 00 00 00	 call	 ?AtlA2WHelper@@YGPA_WPA_WPBDHI@Z ; AtlA2WHelper
  0010b	89 45 e0	 mov	 DWORD PTR tv94[ebp], eax
$L193646:
  0010e	8b f4		 mov	 esi, esp
  00110	8b 45 e0	 mov	 eax, DWORD PTR tv94[ebp]
  00113	50		 push	 eax
  00114	8b 4d 08	 mov	 ecx, DWORD PTR _psz$[ebp]
  00117	51		 push	 ecx
  00118	ff 15 00 00 00
	00		 call	 DWORD PTR __imp__wcscpy
  0011e	83 c4 08	 add	 esp, 8
  00121	3b f4		 cmp	 esi, esp
  00123	e8 00 00 00 00	 call	 __RTC_CheckEsp

; 268  : 
; 269  : 	return psz;

  00128	8b 45 08	 mov	 eax, DWORD PTR _psz$[ebp]

; 270  : }

  0012b	8d 65 d8	 lea	 esp, DWORD PTR [ebp-40]
  0012e	5e		 pop	 esi
  0012f	8b e5		 mov	 esp, ebp
  00131	5d		 pop	 ebp
  00132	c2 04 00	 ret	 4
?CharLowerWFake@ATL@@YGPA_WPA_W@Z ENDP			; ATL::CharLowerWFake
; Function compile flags: /Odt /RTCsu
; File d:\program files (x86)\microsoft visual studio .net 2003\vc7\atlmfc\include\atlconv.h
_TEXT	ENDS
;	COMDAT ?AtlA2WHelper@@YGPA_WPA_WPBDHI@Z
_TEXT	SEGMENT
_ret$ = -4						; size = 4
_lpw$ = 8						; size = 4
_lpa$ = 12						; size = 4
_nChars$ = 16						; size = 4
_acp$ = 20						; size = 4
?AtlA2WHelper@@YGPA_WPA_WPBDHI@Z PROC NEAR		; AtlA2WHelper, COMDAT

; 554  : {

  00000	55		 push	 ebp
  00001	8b ec		 mov	 ebp, esp
  00003	51		 push	 ecx
  00004	56		 push	 esi
  00005	c7 45 fc cc cc
	cc cc		 mov	 DWORD PTR [ebp-4], -858993460 ; ccccccccH

; 555  : 	ATLASSERT(lpa != NULL);

  0000c	83 7d 0c 00	 cmp	 DWORD PTR _lpa$[ebp], 0
  00010	75 2b		 jne	 SHORT $L193648
  00012	8b f4		 mov	 esi, esp
  00014	68 00 00 00 00	 push	 OFFSET FLAT:??_C@_08DMHHBMMN@lpa?5?$CB?$DN?50?$AA@
  00019	6a 00		 push	 0
  0001b	68 2b 02 00 00	 push	 555			; 0000022bH
  00020	68 00 00 00 00	 push	 OFFSET FLAT:??_C@_0FG@PFHCBDBK@D?3?2Program?5Files?5?$CIx86?$CJ?2Microsoft@
  00025	6a 02		 push	 2
  00027	ff 15 00 00 00
	00		 call	 DWORD PTR __imp___CrtDbgReport
  0002d	83 c4 14	 add	 esp, 20			; 00000014H
  00030	3b f4		 cmp	 esi, esp
  00032	e8 00 00 00 00	 call	 __RTC_CheckEsp
  00037	83 f8 01	 cmp	 eax, 1
  0003a	75 01		 jne	 SHORT $L193648
  0003c	cc		 int	 3
$L193648:

; 556  : 	ATLASSERT(lpw != NULL);

  0003d	83 7d 08 00	 cmp	 DWORD PTR _lpw$[ebp], 0
  00041	75 2b		 jne	 SHORT $L193649
  00043	8b f4		 mov	 esi, esp
  00045	68 00 00 00 00	 push	 OFFSET FLAT:??_C@_08DIHJLFDJ@lpw?5?$CB?$DN?50?$AA@
  0004a	6a 00		 push	 0
  0004c	68 2c 02 00 00	 push	 556			; 0000022cH
  00051	68 00 00 00 00	 push	 OFFSET FLAT:??_C@_0FG@PFHCBDBK@D?3?2Program?5Files?5?$CIx86?$CJ?2Microsoft@
  00056	6a 02		 push	 2
  00058	ff 15 00 00 00
	00		 call	 DWORD PTR __imp___CrtDbgReport
  0005e	83 c4 14	 add	 esp, 20			; 00000014H
  00061	3b f4		 cmp	 esi, esp
  00063	e8 00 00 00 00	 call	 __RTC_CheckEsp
  00068	83 f8 01	 cmp	 eax, 1
  0006b	75 01		 jne	 SHORT $L193649
  0006d	cc		 int	 3
$L193649:

; 557  : 	if (lpw == NULL || lpa == NULL)

  0006e	83 7d 08 00	 cmp	 DWORD PTR _lpw$[ebp], 0
  00072	74 06		 je	 SHORT $L24299
  00074	83 7d 0c 00	 cmp	 DWORD PTR _lpa$[ebp], 0
  00078	75 04		 jne	 SHORT $L24298
$L24299:

; 558  : 		return NULL;

  0007a	33 c0		 xor	 eax, eax
  0007c	eb 6a		 jmp	 SHORT $L24292
$L24298:

; 559  : 	// verify that no illegal character present
; 560  : 	// since lpw was allocated based on the size of lpa
; 561  : 	// don't worry about the number of chars
; 562  : 	lpw[0] = '\0';

  0007e	8b 55 08	 mov	 edx, DWORD PTR _lpw$[ebp]
  00081	66 c7 02 00 00	 mov	 WORD PTR [edx], 0

; 563  : 	int ret = MultiByteToWideChar(acp, 0, lpa, -1, lpw, nChars);

  00086	8b f4		 mov	 esi, esp
  00088	8b 45 10	 mov	 eax, DWORD PTR _nChars$[ebp]
  0008b	50		 push	 eax
  0008c	8b 4d 08	 mov	 ecx, DWORD PTR _lpw$[ebp]
  0008f	51		 push	 ecx
  00090	6a ff		 push	 -1
  00092	8b 55 0c	 mov	 edx, DWORD PTR _lpa$[ebp]
  00095	52		 push	 edx
  00096	6a 00		 push	 0
  00098	8b 45 14	 mov	 eax, DWORD PTR _acp$[ebp]
  0009b	50		 push	 eax
  0009c	ff 15 00 00 00
	00		 call	 DWORD PTR __imp__MultiByteToWideChar@24
  000a2	3b f4		 cmp	 esi, esp
  000a4	e8 00 00 00 00	 call	 __RTC_CheckEsp
  000a9	89 45 fc	 mov	 DWORD PTR _ret$[ebp], eax

; 564  : 	if(ret == 0)

  000ac	83 7d fc 00	 cmp	 DWORD PTR _ret$[ebp], 0
  000b0	75 33		 jne	 SHORT $L24301

; 565  : 	{
; 566  : 		ATLASSERT(FALSE);

  000b2	33 c9		 xor	 ecx, ecx
  000b4	75 2b		 jne	 SHORT $L193650
  000b6	8b f4		 mov	 esi, esp
  000b8	68 00 00 00 00	 push	 OFFSET FLAT:??_C@_01GBGANLPD@0?$AA@
  000bd	6a 00		 push	 0
  000bf	68 36 02 00 00	 push	 566			; 00000236H
  000c4	68 00 00 00 00	 push	 OFFSET FLAT:??_C@_0FG@PFHCBDBK@D?3?2Program?5Files?5?$CIx86?$CJ?2Microsoft@
  000c9	6a 02		 push	 2
  000cb	ff 15 00 00 00
	00		 call	 DWORD PTR __imp___CrtDbgReport
  000d1	83 c4 14	 add	 esp, 20			; 00000014H
  000d4	3b f4		 cmp	 esi, esp
  000d6	e8 00 00 00 00	 call	 __RTC_CheckEsp
  000db	83 f8 01	 cmp	 eax, 1
  000de	75 01		 jne	 SHORT $L193650
  000e0	cc		 int	 3
$L193650:

; 567  : 		return NULL;

  000e1	33 c0		 xor	 eax, eax
  000e3	eb 03		 jmp	 SHORT $L24292
$L24301:

; 568  : 	}		
; 569  : 	return lpw;

  000e5	8b 45 08	 mov	 eax, DWORD PTR _lpw$[ebp]
$L24292:

; 570  : }

  000e8	5e		 pop	 esi
  000e9	83 c4 04	 add	 esp, 4
  000ec	3b ec		 cmp	 ebp, esp
  000ee	e8 00 00 00 00	 call	 __RTC_CheckEsp
  000f3	8b e5		 mov	 esp, ebp
  000f5	5d		 pop	 ebp
  000f6	c2 10 00	 ret	 16			; 00000010H
?AtlA2WHelper@@YGPA_WPA_WPBDHI@Z ENDP			; AtlA2WHelper
_TEXT	ENDS
PUBLIC	?CharUpperWFake@ATL@@YGPA_WPA_W@Z		; ATL::CharUpperWFake
EXTRN	__imp__CharUpperW@4:NEAR
; Function compile flags: /Odt /RTCsu
; File d:\program files (x86)\microsoft visual studio .net 2003\vc7\atlmfc\include\cstringt.h
;	COMDAT ?CharUpperWThunk@ATL@@YGPA_WPA_W@Z
_TEXT	SEGMENT
_psz$ = 8						; size = 4
?CharUpperWThunk@ATL@@YGPA_WPA_W@Z PROC NEAR		; ATL::CharUpperWThunk, COMDAT

; 292  : {

  00000	55		 push	 ebp
  00001	8b ec		 mov	 ebp, esp
  00003	56		 push	 esi

; 293  : 	_AtlInstallStringThunk(reinterpret_cast<void**>(&_strthunks.pfnCharUpperW), CharUpperWFake, ::CharUpperW);

  00004	a1 00 00 00 00	 mov	 eax, DWORD PTR __imp__CharUpperW@4
  00009	50		 push	 eax
  0000a	68 00 00 00 00	 push	 OFFSET FLAT:?CharUpperWFake@ATL@@YGPA_WPA_W@Z ; ATL::CharUpperWFake
  0000f	68 10 00 00 00	 push	 OFFSET FLAT:?_strthunks@ATL@@3U_AtlStringThunks@1@A+16
  00014	e8 00 00 00 00	 call	 ?_AtlInstallStringThunk@ATL@@YAXPAPAXPAX1@Z ; ATL::_AtlInstallStringThunk
  00019	83 c4 0c	 add	 esp, 12			; 0000000cH

; 294  : 
; 295  : 	return _strthunks.pfnCharUpperW(psz);

  0001c	8b f4		 mov	 esi, esp
  0001e	8b 4d 08	 mov	 ecx, DWORD PTR _psz$[ebp]
  00021	51		 push	 ecx
  00022	ff 15 10 00 00
	00		 call	 DWORD PTR ?_strthunks@ATL@@3U_AtlStringThunks@1@A+16
  00028	3b f4		 cmp	 esi, esp
  0002a	e8 00 00 00 00	 call	 __RTC_CheckEsp

; 296  : }

  0002f	5e		 pop	 esi
  00030	3b ec		 cmp	 ebp, esp
  00032	e8 00 00 00 00	 call	 __RTC_CheckEsp
  00037	5d		 pop	 ebp
  00038	c2 04 00	 ret	 4
?CharUpperWThunk@ATL@@YGPA_WPA_W@Z ENDP			; ATL::CharUpperWThunk
_TEXT	ENDS
EXTRN	__imp__CharUpperA@4:NEAR
; Function compile flags: /Odt /RTCsu
;	COMDAT ?CharUpperWFake@ATL@@YGPA_WPA_W@Z
_TEXT	SEGMENT
tv90 = -36						; size = 4
tv94 = -32						; size = 4
tv75 = -28						; size = 4
tv78 = -24						; size = 4
_pszA$ = -20						; size = 4
__lpa$ = -16						; size = 4
__lpw$ = -12						; size = 4
__acp$ = -8						; size = 4
__convert$ = -4						; size = 4
_psz$ = 8						; size = 4
?CharUpperWFake@ATL@@YGPA_WPA_W@Z PROC NEAR		; ATL::CharUpperWFake, COMDAT

; 280  : {

  00000	55		 push	 ebp
  00001	8b ec		 mov	 ebp, esp
  00003	83 ec 24	 sub	 esp, 36			; 00000024H
  00006	56		 push	 esi
  00007	b8 cc cc cc cc	 mov	 eax, -858993460		; ccccccccH
  0000c	89 45 dc	 mov	 DWORD PTR [ebp-36], eax
  0000f	89 45 e0	 mov	 DWORD PTR [ebp-32], eax
  00012	89 45 e4	 mov	 DWORD PTR [ebp-28], eax
  00015	89 45 e8	 mov	 DWORD PTR [ebp-24], eax
  00018	89 45 ec	 mov	 DWORD PTR [ebp-20], eax
  0001b	89 45 f0	 mov	 DWORD PTR [ebp-16], eax
  0001e	89 45 f4	 mov	 DWORD PTR [ebp-12], eax
  00021	89 45 f8	 mov	 DWORD PTR [ebp-8], eax
  00024	89 45 fc	 mov	 DWORD PTR [ebp-4], eax

; 281  : 	USES_CONVERSION;

  00027	c7 45 fc 00 00
	00 00		 mov	 DWORD PTR __convert$[ebp], 0
  0002e	e8 00 00 00 00	 call	 ?_AtlGetConversionACP@ATL@@YGIXZ ; ATL::_AtlGetConversionACP
  00033	89 45 f8	 mov	 DWORD PTR __acp$[ebp], eax
  00036	c7 45 f4 00 00
	00 00		 mov	 DWORD PTR __lpw$[ebp], 0
  0003d	c7 45 f0 00 00
	00 00		 mov	 DWORD PTR __lpa$[ebp], 0

; 282  : 	LPSTR pszA;
; 283  : 
; 284  : 	pszA = W2A(psz);

  00044	8b 45 08	 mov	 eax, DWORD PTR _psz$[ebp]
  00047	89 45 f4	 mov	 DWORD PTR __lpw$[ebp], eax
  0004a	83 7d f4 00	 cmp	 DWORD PTR __lpw$[ebp], 0
  0004e	75 09		 jne	 SHORT $L193653
  00050	c7 45 e8 00 00
	00 00		 mov	 DWORD PTR tv78[ebp], 0
  00057	eb 43		 jmp	 SHORT $L193654
$L193653:
  00059	8b f4		 mov	 esi, esp
  0005b	8b 4d f4	 mov	 ecx, DWORD PTR __lpw$[ebp]
  0005e	51		 push	 ecx
  0005f	ff 15 00 00 00
	00		 call	 DWORD PTR __imp__lstrlenW@4
  00065	3b f4		 cmp	 esi, esp
  00067	e8 00 00 00 00	 call	 __RTC_CheckEsp
  0006c	8d 54 00 02	 lea	 edx, DWORD PTR [eax+eax+2]
  00070	89 55 fc	 mov	 DWORD PTR __convert$[ebp], edx
  00073	8b 45 fc	 mov	 eax, DWORD PTR __convert$[ebp]
  00076	83 c0 03	 add	 eax, 3
  00079	83 e0 fc	 and	 eax, -4			; fffffffcH
  0007c	e8 00 00 00 00	 call	 __alloca_probe
  00081	89 65 e4	 mov	 DWORD PTR tv75[ebp], esp
  00084	8b 45 f8	 mov	 eax, DWORD PTR __acp$[ebp]
  00087	50		 push	 eax
  00088	8b 4d fc	 mov	 ecx, DWORD PTR __convert$[ebp]
  0008b	51		 push	 ecx
  0008c	8b 55 f4	 mov	 edx, DWORD PTR __lpw$[ebp]
  0008f	52		 push	 edx
  00090	8b 45 e4	 mov	 eax, DWORD PTR tv75[ebp]
  00093	50		 push	 eax
  00094	e8 00 00 00 00	 call	 ?AtlW2AHelper@@YGPADPADPB_WHI@Z ; AtlW2AHelper
  00099	89 45 e8	 mov	 DWORD PTR tv78[ebp], eax
$L193654:
  0009c	8b 4d e8	 mov	 ecx, DWORD PTR tv78[ebp]
  0009f	89 4d ec	 mov	 DWORD PTR _pszA$[ebp], ecx

; 285  : 	::CharUpperA(pszA);

  000a2	8b f4		 mov	 esi, esp
  000a4	8b 55 ec	 mov	 edx, DWORD PTR _pszA$[ebp]
  000a7	52		 push	 edx
  000a8	ff 15 00 00 00
	00		 call	 DWORD PTR __imp__CharUpperA@4
  000ae	3b f4		 cmp	 esi, esp
  000b0	e8 00 00 00 00	 call	 __RTC_CheckEsp

; 286  : 	wcscpy(psz, A2W(pszA));

  000b5	8b 45 ec	 mov	 eax, DWORD PTR _pszA$[ebp]
  000b8	89 45 f0	 mov	 DWORD PTR __lpa$[ebp], eax
  000bb	83 7d f0 00	 cmp	 DWORD PTR __lpa$[ebp], 0
  000bf	75 09		 jne	 SHORT $L193655
  000c1	c7 45 e0 00 00
	00 00		 mov	 DWORD PTR tv94[ebp], 0
  000c8	eb 44		 jmp	 SHORT $L193656
$L193655:
  000ca	8b f4		 mov	 esi, esp
  000cc	8b 4d f0	 mov	 ecx, DWORD PTR __lpa$[ebp]
  000cf	51		 push	 ecx
  000d0	ff 15 00 00 00
	00		 call	 DWORD PTR __imp__lstrlenA@4
  000d6	3b f4		 cmp	 esi, esp
  000d8	e8 00 00 00 00	 call	 __RTC_CheckEsp
  000dd	83 c0 01	 add	 eax, 1
  000e0	89 45 fc	 mov	 DWORD PTR __convert$[ebp], eax
  000e3	8b 45 fc	 mov	 eax, DWORD PTR __convert$[ebp]
  000e6	d1 e0		 shl	 eax, 1
  000e8	83 c0 03	 add	 eax, 3
  000eb	83 e0 fc	 and	 eax, -4			; fffffffcH
  000ee	e8 00 00 00 00	 call	 __alloca_probe
  000f3	89 65 dc	 mov	 DWORD PTR tv90[ebp], esp
  000f6	8b 55 f8	 mov	 edx, DWORD PTR __acp$[ebp]
  000f9	52		 push	 edx
  000fa	8b 45 fc	 mov	 eax, DWORD PTR __convert$[ebp]
  000fd	50		 push	 eax
  000fe	8b 4d f0	 mov	 ecx, DWORD PTR __lpa$[ebp]
  00101	51		 push	 ecx
  00102	8b 55 dc	 mov	 edx, DWORD PTR tv90[ebp]
  00105	52		 push	 edx
  00106	e8 00 00 00 00	 call	 ?AtlA2WHelper@@YGPA_WPA_WPBDHI@Z ; AtlA2WHelper
  0010b	89 45 e0	 mov	 DWORD PTR tv94[ebp], eax
$L193656:
  0010e	8b f4		 mov	 esi, esp
  00110	8b 45 e0	 mov	 eax, DWORD PTR tv94[ebp]
  00113	50		 push	 eax
  00114	8b 4d 08	 mov	 ecx, DWORD PTR _psz$[ebp]
  00117	51		 push	 ecx
  00118	ff 15 00 00 00
	00		 call	 DWORD PTR __imp__wcscpy
  0011e	83 c4 08	 add	 esp, 8
  00121	3b f4		 cmp	 esi, esp
  00123	e8 00 00 00 00	 call	 __RTC_CheckEsp

; 287  : 
; 288  : 	return psz;

  00128	8b 45 08	 mov	 eax, DWORD PTR _psz$[ebp]

; 289  : }

  0012b	8d 65 d8	 lea	 esp, DWORD PTR [ebp-40]
  0012e	5e		 pop	 esi
  0012f	8b e5		 mov	 esp, ebp
  00131	5d		 pop	 ebp
  00132	c2 04 00	 ret	 4
?CharUpperWFake@ATL@@YGPA_WPA_W@Z ENDP			; ATL::CharUpperWFake
_TEXT	ENDS
PUBLIC	?allocate@?$allocator@UTAB_ITEM@@@std@@QAEPAUTAB_ITEM@@I@Z ; std::allocator<TAB_ITEM>::allocate
PUBLIC	?max_size@?$vector@UTAB_ITEM@@V?$allocator@UTAB_ITEM@@@std@@@std@@QBEIXZ ; std::vector<TAB_ITEM,std::allocator<TAB_ITEM> >::max_size
PUBLIC	?_Xlen@?$vector@UTAB_ITEM@@V?$allocator@UTAB_ITEM@@@std@@@std@@IBEXXZ ; std::vector<TAB_ITEM,std::allocator<TAB_ITEM> >::_Xlen
; Function compile flags: /Odt /RTCsu
; File d:\program files (x86)\microsoft visual studio .net 2003\vc7\include\vector
;	COMDAT ?_Buy@?$vector@UTAB_ITEM@@V?$allocator@UTAB_ITEM@@@std@@@std@@IAE_NI@Z
_TEXT	SEGMENT
_this$ = -4						; size = 4
__Capacity$ = 8						; size = 4
?_Buy@?$vector@UTAB_ITEM@@V?$allocator@UTAB_ITEM@@@std@@@std@@IAE_NI@Z PROC NEAR ; std::vector<TAB_ITEM,std::allocator<TAB_ITEM> >::_Buy, COMDAT
; _this$ = ecx

; 770  : 		{	// allocate array with _Capacity elements

  00000	55		 push	 ebp
  00001	8b ec		 mov	 ebp, esp
  00003	51		 push	 ecx
  00004	c7 45 fc cc cc
	cc cc		 mov	 DWORD PTR [ebp-4], -858993460 ; ccccccccH
  0000b	89 4d fc	 mov	 DWORD PTR _this$[ebp], ecx

; 771  : 		_Myfirst = 0, _Mylast = 0, _Myend = 0;

  0000e	8b 45 fc	 mov	 eax, DWORD PTR _this$[ebp]
  00011	c7 40 04 00 00
	00 00		 mov	 DWORD PTR [eax+4], 0
  00018	8b 4d fc	 mov	 ecx, DWORD PTR _this$[ebp]
  0001b	c7 41 08 00 00
	00 00		 mov	 DWORD PTR [ecx+8], 0
  00022	8b 55 fc	 mov	 edx, DWORD PTR _this$[ebp]
  00025	c7 42 0c 00 00
	00 00		 mov	 DWORD PTR [edx+12], 0

; 772  : 		if (_Capacity == 0)

  0002c	83 7d 08 00	 cmp	 DWORD PTR __Capacity$[ebp], 0
  00030	75 04		 jne	 SHORT $L192119

; 773  : 			return (false);

  00032	32 c0		 xor	 al, al
  00034	eb 49		 jmp	 SHORT $L192118
$L192119:

; 774  : 		else if (max_size() < _Capacity)

  00036	8b 4d fc	 mov	 ecx, DWORD PTR _this$[ebp]
  00039	e8 00 00 00 00	 call	 ?max_size@?$vector@UTAB_ITEM@@V?$allocator@UTAB_ITEM@@@std@@@std@@QBEIXZ ; std::vector<TAB_ITEM,std::allocator<TAB_ITEM> >::max_size
  0003e	3b 45 08	 cmp	 eax, DWORD PTR __Capacity$[ebp]
  00041	73 0a		 jae	 SHORT $L192121

; 775  : 			_Xlen();	// result too long

  00043	8b 4d fc	 mov	 ecx, DWORD PTR _this$[ebp]
  00046	e8 00 00 00 00	 call	 ?_Xlen@?$vector@UTAB_ITEM@@V?$allocator@UTAB_ITEM@@@std@@@std@@IBEXXZ ; std::vector<TAB_ITEM,std::allocator<TAB_ITEM> >::_Xlen

; 776  : 		else

  0004b	eb 30		 jmp	 SHORT $L192120
$L192121:

; 777  : 			{	// nonempty array, allocate storage
; 778  : 			_Myfirst = this->_Alval.allocate(_Capacity);

  0004d	8b 45 08	 mov	 eax, DWORD PTR __Capacity$[ebp]
  00050	50		 push	 eax
  00051	8b 4d fc	 mov	 ecx, DWORD PTR _this$[ebp]
  00054	e8 00 00 00 00	 call	 ?allocate@?$allocator@UTAB_ITEM@@@std@@QAEPAUTAB_ITEM@@I@Z ; std::allocator<TAB_ITEM>::allocate
  00059	8b 4d fc	 mov	 ecx, DWORD PTR _this$[ebp]
  0005c	89 41 04	 mov	 DWORD PTR [ecx+4], eax

; 779  : 			_Mylast = _Myfirst;

  0005f	8b 55 fc	 mov	 edx, DWORD PTR _this$[ebp]
  00062	8b 45 fc	 mov	 eax, DWORD PTR _this$[ebp]
  00065	8b 48 04	 mov	 ecx, DWORD PTR [eax+4]
  00068	89 4a 08	 mov	 DWORD PTR [edx+8], ecx

; 780  : 			_Myend = _Myfirst + _Capacity;

  0006b	8b 55 08	 mov	 edx, DWORD PTR __Capacity$[ebp]
  0006e	6b d2 3c	 imul	 edx, 60			; 0000003cH
  00071	8b 45 fc	 mov	 eax, DWORD PTR _this$[ebp]
  00074	03 50 04	 add	 edx, DWORD PTR [eax+4]
  00077	8b 4d fc	 mov	 ecx, DWORD PTR _this$[ebp]
  0007a	89 51 0c	 mov	 DWORD PTR [ecx+12], edx
$L192120:

; 781  : 			}
; 782  : 		return (true);

  0007d	b0 01		 mov	 al, 1
$L192118:

; 783  : 		}

  0007f	83 c4 04	 add	 esp, 4
  00082	3b ec		 cmp	 ebp, esp
  00084	e8 00 00 00 00	 call	 __RTC_CheckEsp
  00089	8b e5		 mov	 esp, ebp
  0008b	5d		 pop	 ebp
  0008c	c2 04 00	 ret	 4
?_Buy@?$vector@UTAB_ITEM@@V?$allocator@UTAB_ITEM@@@std@@@std@@IAE_NI@Z ENDP ; std::vector<TAB_ITEM,std::allocator<TAB_ITEM> >::_Buy
_TEXT	ENDS
PUBLIC	?deallocate@?$allocator@UTAB_ITEM@@@std@@QAEXPAUTAB_ITEM@@I@Z ; std::allocator<TAB_ITEM>::deallocate
PUBLIC	?_Destroy@?$vector@UTAB_ITEM@@V?$allocator@UTAB_ITEM@@@std@@@std@@IAEXPAUTAB_ITEM@@0@Z ; std::vector<TAB_ITEM,std::allocator<TAB_ITEM> >::_Destroy
; Function compile flags: /Odt /RTCsu
;	COMDAT ?_Tidy@?$vector@UTAB_ITEM@@V?$allocator@UTAB_ITEM@@@std@@@std@@IAEXXZ
_TEXT	SEGMENT
_this$ = -4						; size = 4
?_Tidy@?$vector@UTAB_ITEM@@V?$allocator@UTAB_ITEM@@@std@@@std@@IAEXXZ PROC NEAR ; std::vector<TAB_ITEM,std::allocator<TAB_ITEM> >::_Tidy, COMDAT
; _this$ = ecx

; 791  : 		{	// free all storage

  00000	55		 push	 ebp
  00001	8b ec		 mov	 ebp, esp
  00003	51		 push	 ecx
  00004	c7 45 fc cc cc
	cc cc		 mov	 DWORD PTR [ebp-4], -858993460 ; ccccccccH
  0000b	89 4d fc	 mov	 DWORD PTR _this$[ebp], ecx

; 792  : 		if (_Myfirst != 0)

  0000e	8b 45 fc	 mov	 eax, DWORD PTR _this$[ebp]
  00011	83 78 04 00	 cmp	 DWORD PTR [eax+4], 0
  00015	74 3c		 je	 SHORT $L192125

; 793  : 			{	// something to free, destroy and deallocate it
; 794  : 			_Destroy(_Myfirst, _Mylast);

  00017	8b 4d fc	 mov	 ecx, DWORD PTR _this$[ebp]
  0001a	8b 51 08	 mov	 edx, DWORD PTR [ecx+8]
  0001d	52		 push	 edx
  0001e	8b 45 fc	 mov	 eax, DWORD PTR _this$[ebp]
  00021	8b 48 04	 mov	 ecx, DWORD PTR [eax+4]
  00024	51		 push	 ecx
  00025	8b 4d fc	 mov	 ecx, DWORD PTR _this$[ebp]
  00028	e8 00 00 00 00	 call	 ?_Destroy@?$vector@UTAB_ITEM@@V?$allocator@UTAB_ITEM@@@std@@@std@@IAEXPAUTAB_ITEM@@0@Z ; std::vector<TAB_ITEM,std::allocator<TAB_ITEM> >::_Destroy

; 795  : 			this->_Alval.deallocate(_Myfirst, _Myend - _Myfirst);

  0002d	8b 55 fc	 mov	 edx, DWORD PTR _this$[ebp]
  00030	8b 45 fc	 mov	 eax, DWORD PTR _this$[ebp]
  00033	8b 4a 0c	 mov	 ecx, DWORD PTR [edx+12]
  00036	2b 48 04	 sub	 ecx, DWORD PTR [eax+4]
  00039	8b c1		 mov	 eax, ecx
  0003b	99		 cdq
  0003c	b9 3c 00 00 00	 mov	 ecx, 60			; 0000003cH
  00041	f7 f9		 idiv	 ecx
  00043	50		 push	 eax
  00044	8b 55 fc	 mov	 edx, DWORD PTR _this$[ebp]
  00047	8b 42 04	 mov	 eax, DWORD PTR [edx+4]
  0004a	50		 push	 eax
  0004b	8b 4d fc	 mov	 ecx, DWORD PTR _this$[ebp]
  0004e	e8 00 00 00 00	 call	 ?deallocate@?$allocator@UTAB_ITEM@@@std@@QAEXPAUTAB_ITEM@@I@Z ; std::allocator<TAB_ITEM>::deallocate
$L192125:

; 796  : 			}
; 797  : 		_Myfirst = 0, _Mylast = 0, _Myend = 0;

  00053	8b 4d fc	 mov	 ecx, DWORD PTR _this$[ebp]
  00056	c7 41 04 00 00
	00 00		 mov	 DWORD PTR [ecx+4], 0
  0005d	8b 55 fc	 mov	 edx, DWORD PTR _this$[ebp]
  00060	c7 42 08 00 00
	00 00		 mov	 DWORD PTR [edx+8], 0
  00067	8b 45 fc	 mov	 eax, DWORD PTR _this$[ebp]
  0006a	c7 40 0c 00 00
	00 00		 mov	 DWORD PTR [eax+12], 0

; 798  : 		}

  00071	83 c4 04	 add	 esp, 4
  00074	3b ec		 cmp	 ebp, esp
  00076	e8 00 00 00 00	 call	 __RTC_CheckEsp
  0007b	8b e5		 mov	 esp, ebp
  0007d	5d		 pop	 ebp
  0007e	c3		 ret	 0
?_Tidy@?$vector@UTAB_ITEM@@V?$allocator@UTAB_ITEM@@@std@@@std@@IAEXXZ ENDP ; std::vector<TAB_ITEM,std::allocator<TAB_ITEM> >::_Tidy
_TEXT	ENDS
PUBLIC	??0?$allocator@UTAB_ITEM@@@std@@QAE@ABV01@@Z	; std::allocator<TAB_ITEM>::allocator<TAB_ITEM>
; Function compile flags: /Odt /RTCsu
;	COMDAT ??0?$_Vector_val@UTAB_ITEM@@V?$allocator@UTAB_ITEM@@@std@@@std@@IAE@V?$allocator@UTAB_ITEM@@@1@@Z
_TEXT	SEGMENT
_this$ = -4						; size = 4
__Al$ = 8						; size = 1
??0?$_Vector_val@UTAB_ITEM@@V?$allocator@UTAB_ITEM@@@std@@@std@@IAE@V?$allocator@UTAB_ITEM@@@1@@Z PROC NEAR ; std::_Vector_val<TAB_ITEM,std::allocator<TAB_ITEM> >::_Vector_val<TAB_ITEM,std::allocator<TAB_ITEM> >, COMDAT
; _this$ = ecx

; 21   : 		{	// construct allocator from _Al

  00000	55		 push	 ebp
  00001	8b ec		 mov	 ebp, esp
  00003	51		 push	 ecx
  00004	c7 45 fc cc cc
	cc cc		 mov	 DWORD PTR [ebp-4], -858993460 ; ccccccccH
  0000b	89 4d fc	 mov	 DWORD PTR _this$[ebp], ecx
  0000e	8d 45 08	 lea	 eax, DWORD PTR __Al$[ebp]
  00011	50		 push	 eax
  00012	8b 4d fc	 mov	 ecx, DWORD PTR _this$[ebp]
  00015	e8 00 00 00 00	 call	 ??0?$allocator@UTAB_ITEM@@@std@@QAE@ABV01@@Z ; std::allocator<TAB_ITEM>::allocator<TAB_ITEM>

; 22   : 		}

  0001a	8b 45 fc	 mov	 eax, DWORD PTR _this$[ebp]
  0001d	83 c4 04	 add	 esp, 4
  00020	3b ec		 cmp	 ebp, esp
  00022	e8 00 00 00 00	 call	 __RTC_CheckEsp
  00027	8b e5		 mov	 esp, ebp
  00029	5d		 pop	 ebp
  0002a	c2 04 00	 ret	 4
??0?$_Vector_val@UTAB_ITEM@@V?$allocator@UTAB_ITEM@@@std@@@std@@IAE@V?$allocator@UTAB_ITEM@@@1@@Z ENDP ; std::_Vector_val<TAB_ITEM,std::allocator<TAB_ITEM> >::_Vector_val<TAB_ITEM,std::allocator<TAB_ITEM> >
; Function compile flags: /Odt /RTCsu
; File d:\program files (x86)\microsoft visual studio .net 2003\vc7\include\xmemory
_TEXT	ENDS
;	COMDAT ??0?$allocator@UTAB_ITEM@@@std@@QAE@XZ
_TEXT	SEGMENT
_this$ = -4						; size = 4
??0?$allocator@UTAB_ITEM@@@std@@QAE@XZ PROC NEAR	; std::allocator<TAB_ITEM>::allocator<TAB_ITEM>, COMDAT
; _this$ = ecx

; 111  : 	allocator()

  00000	55		 push	 ebp
  00001	8b ec		 mov	 ebp, esp
  00003	51		 push	 ecx
  00004	c7 45 fc cc cc
	cc cc		 mov	 DWORD PTR [ebp-4], -858993460 ; ccccccccH
  0000b	89 4d fc	 mov	 DWORD PTR _this$[ebp], ecx

; 112  : 		{	// construct default allocator (do nothing)
; 113  : 		}

  0000e	8b 45 fc	 mov	 eax, DWORD PTR _this$[ebp]
  00011	8b e5		 mov	 esp, ebp
  00013	5d		 pop	 ebp
  00014	c3		 ret	 0
??0?$allocator@UTAB_ITEM@@@std@@QAE@XZ ENDP		; std::allocator<TAB_ITEM>::allocator<TAB_ITEM>
; Function compile flags: /Odt /RTCsu
; File d:\program files (x86)\microsoft visual studio .net 2003\vc7\include\list
_TEXT	ENDS
;	COMDAT ?_Nextnode@?$list@PAVIMessageObserver@@V?$allocator@PAVIMessageObserver@@@std@@@std@@KAAAPAU_Node@?$_List_nod@PAVIMessageObserver@@V?$allocator@PAVIMessageObserver@@@std@@@2@PAU342@@Z
_TEXT	SEGMENT
__Pnode$ = 8						; size = 4
?_Nextnode@?$list@PAVIMessageObserver@@V?$allocator@PAVIMessageObserver@@@std@@@std@@KAAAPAU_Node@?$_List_nod@PAVIMessageObserver@@V?$allocator@PAVIMessageObserver@@@std@@@2@PAU342@@Z PROC NEAR ; std::list<IMessageObserver *,std::allocator<IMessageObserver *> >::_Nextnode, COMDAT

; 107  : 		{	// return reference to successor pointer in node

  00000	55		 push	 ebp
  00001	8b ec		 mov	 ebp, esp

; 108  : 		return ((_Nodepref)(*_Pnode)._Next);

  00003	8b 45 08	 mov	 eax, DWORD PTR __Pnode$[ebp]

; 109  : 		}

  00006	5d		 pop	 ebp
  00007	c3		 ret	 0
?_Nextnode@?$list@PAVIMessageObserver@@V?$allocator@PAVIMessageObserver@@@std@@@std@@KAAAPAU_Node@?$_List_nod@PAVIMessageObserver@@V?$allocator@PAVIMessageObserver@@@std@@@2@PAU342@@Z ENDP ; std::list<IMessageObserver *,std::allocator<IMessageObserver *> >::_Nextnode
_TEXT	ENDS
PUBLIC	?deallocate@?$allocator@U_Node@?$_List_nod@PAVIMessageObserver@@V?$allocator@PAVIMessageObserver@@@std@@@std@@@std@@QAEXPAU_Node@?$_List_nod@PAVIMessageObserver@@V?$allocator@PAVIMessageObserver@@@std@@@2@I@Z ; std::allocator<std::_List_nod<IMessageObserver *,std::allocator<IMessageObserver *> >::_Node>::deallocate
PUBLIC	?allocate@?$allocator@U_Node@?$_List_nod@PAVIMessageObserver@@V?$allocator@PAVIMessageObserver@@@std@@@std@@@std@@QAEPAU_Node@?$_List_nod@PAVIMessageObserver@@V?$allocator@PAVIMessageObserver@@@std@@@2@I@Z ; std::allocator<std::_List_nod<IMessageObserver *,std::allocator<IMessageObserver *> >::_Node>::allocate
PUBLIC	?construct@?$allocator@PAU_Node@?$_List_nod@PAVIMessageObserver@@V?$allocator@PAVIMessageObserver@@@std@@@std@@@std@@QAEXPAPAU_Node@?$_List_nod@PAVIMessageObserver@@V?$allocator@PAVIMessageObserver@@@std@@@2@ABQAU342@@Z ; std::allocator<std::_List_nod<IMessageObserver *,std::allocator<IMessageObserver *> >::_Node *>::construct
PUBLIC	?destroy@?$allocator@PAU_Node@?$_List_nod@PAVIMessageObserver@@V?$allocator@PAVIMessageObserver@@@std@@@std@@@std@@QAEXPAPAU_Node@?$_List_nod@PAVIMessageObserver@@V?$allocator@PAVIMessageObserver@@@std@@@2@@Z ; std::allocator<std::_List_nod<IMessageObserver *,std::allocator<IMessageObserver *> >::_Node *>::destroy
PUBLIC	?_Prevnode@?$list@PAVIMessageObserver@@V?$allocator@PAVIMessageObserver@@@std@@@std@@KAAAPAU_Node@?$_List_nod@PAVIMessageObserver@@V?$allocator@PAVIMessageObserver@@@std@@@2@PAU342@@Z ; std::list<IMessageObserver *,std::allocator<IMessageObserver *> >::_Prevnode
EXTRN	__CxxThrowException@8:NEAR
;	COMDAT xdata$x
xdata$x	SEGMENT
$T193672 DD	0ffffffffH
	DD	00H
	DD	0ffffffffH
	DD	00H
$T193674 DD	00H
	DD	00H
	DD	00H
	DD	FLAT:$L193665
$T193673 DD	00H
	DD	00H
	DD	01H
	DD	01H
	DD	FLAT:$T193674
$T193667 DD	019930520H
	DD	02H
	DD	FLAT:$T193672
	DD	01H
	DD	FLAT:$T193673
	DD	2 DUP(00H)
; Function compile flags: /Odt /RTCsu
xdata$x	ENDS
;	COMDAT ?_Buynode@?$list@PAVIMessageObserver@@V?$allocator@PAVIMessageObserver@@@std@@@std@@IAEPAU_Node@?$_List_nod@PAVIMessageObserver@@V?$allocator@PAVIMessageObserver@@@std@@@2@XZ
_TEXT	SEGMENT
tv93 = -44						; size = 4
tv92 = -40						; size = 4
__Linkcnt$ = -36					; size = 4
__Pnode$ = -28						; size = 4
_this$ = -20						; size = 4
__$EHRec$ = -16						; size = 16
?_Buynode@?$list@PAVIMessageObserver@@V?$allocator@PAVIMessageObserver@@@std@@@std@@IAEPAU_Node@?$_List_nod@PAVIMessageObserver@@V?$allocator@PAVIMessageObserver@@@std@@@2@XZ PROC NEAR ; std::list<IMessageObserver *,std::allocator<IMessageObserver *> >::_Buynode, COMDAT
; _this$ = ecx

; 898  : 		{	// allocate a head node and set links

  00000	55		 push	 ebp
  00001	8b ec		 mov	 ebp, esp
  00003	6a ff		 push	 -1
  00005	68 00 00 00 00	 push	 __ehhandler$?_Buynode@?$list@PAVIMessageObserver@@V?$allocator@PAVIMessageObserver@@@std@@@std@@IAEPAU_Node@?$_List_nod@PAVIMessageObserver@@V?$allocator@PAVIMessageObserver@@@std@@@2@XZ
  0000a	64 a1 00 00 00
	00		 mov	 eax, DWORD PTR fs:__except_list
  00010	50		 push	 eax
  00011	64 89 25 00 00
	00 00		 mov	 DWORD PTR fs:__except_list, esp
  00018	51		 push	 ecx
  00019	83 ec 1c	 sub	 esp, 28			; 0000001cH
  0001c	53		 push	 ebx
  0001d	56		 push	 esi
  0001e	57		 push	 edi
  0001f	b8 cc cc cc cc	 mov	 eax, -858993460		; ccccccccH
  00024	89 45 d4	 mov	 DWORD PTR [ebp-44], eax
  00027	89 45 d8	 mov	 DWORD PTR [ebp-40], eax
  0002a	89 45 dc	 mov	 DWORD PTR [ebp-36], eax
  0002d	89 45 e0	 mov	 DWORD PTR [ebp-32], eax
  00030	89 45 e4	 mov	 DWORD PTR [ebp-28], eax
  00033	89 45 e8	 mov	 DWORD PTR [ebp-24], eax
  00036	89 45 ec	 mov	 DWORD PTR [ebp-20], eax
  00039	89 65 f0	 mov	 DWORD PTR __$EHRec$[ebp], esp
  0003c	89 4d ec	 mov	 DWORD PTR _this$[ebp], ecx

; 899  : 		_Nodeptr _Pnode = this->_Alnod.allocate(1);

  0003f	6a 01		 push	 1
  00041	8b 4d ec	 mov	 ecx, DWORD PTR _this$[ebp]
  00044	e8 00 00 00 00	 call	 ?allocate@?$allocator@U_Node@?$_List_nod@PAVIMessageObserver@@V?$allocator@PAVIMessageObserver@@@std@@@std@@@std@@QAEPAU_Node@?$_List_nod@PAVIMessageObserver@@V?$allocator@PAVIMessageObserver@@@std@@@2@I@Z ; std::allocator<std::_List_nod<IMessageObserver *,std::allocator<IMessageObserver *> >::_Node>::allocate
  00049	89 45 e4	 mov	 DWORD PTR __Pnode$[ebp], eax

; 900  : 		int _Linkcnt = 0;

  0004c	c7 45 dc 00 00
	00 00		 mov	 DWORD PTR __Linkcnt$[ebp], 0

; 901  : 
; 902  : 		_TRY_BEGIN

  00053	c7 45 fc 00 00
	00 00		 mov	 DWORD PTR __$EHRec$[ebp+12], 0

; 903  : 		this->_Alptr.construct(&_Nextnode(_Pnode), _Pnode);

  0005a	8b 45 e4	 mov	 eax, DWORD PTR __Pnode$[ebp]
  0005d	50		 push	 eax
  0005e	e8 00 00 00 00	 call	 ?_Nextnode@?$list@PAVIMessageObserver@@V?$allocator@PAVIMessageObserver@@@std@@@std@@KAAAPAU_Node@?$_List_nod@PAVIMessageObserver@@V?$allocator@PAVIMessageObserver@@@std@@@2@PAU342@@Z ; std::list<IMessageObserver *,std::allocator<IMessageObserver *> >::_Nextnode
  00063	83 c4 04	 add	 esp, 4
  00066	89 45 d8	 mov	 DWORD PTR tv92[ebp], eax
  00069	8d 4d e4	 lea	 ecx, DWORD PTR __Pnode$[ebp]
  0006c	51		 push	 ecx
  0006d	8b 55 d8	 mov	 edx, DWORD PTR tv92[ebp]
  00070	52		 push	 edx
  00071	8b 4d ec	 mov	 ecx, DWORD PTR _this$[ebp]
  00074	83 c1 01	 add	 ecx, 1
  00077	e8 00 00 00 00	 call	 ?construct@?$allocator@PAU_Node@?$_List_nod@PAVIMessageObserver@@V?$allocator@PAVIMessageObserver@@@std@@@std@@@std@@QAEXPAPAU_Node@?$_List_nod@PAVIMessageObserver@@V?$allocator@PAVIMessageObserver@@@std@@@2@ABQAU342@@Z ; std::allocator<std::_List_nod<IMessageObserver *,std::allocator<IMessageObserver *> >::_Node *>::construct

; 904  : 		++_Linkcnt;

  0007c	8b 45 dc	 mov	 eax, DWORD PTR __Linkcnt$[ebp]
  0007f	83 c0 01	 add	 eax, 1
  00082	89 45 dc	 mov	 DWORD PTR __Linkcnt$[ebp], eax

; 905  : 		this->_Alptr.construct(&_Prevnode(_Pnode), _Pnode);

  00085	8b 4d e4	 mov	 ecx, DWORD PTR __Pnode$[ebp]
  00088	51		 push	 ecx
  00089	e8 00 00 00 00	 call	 ?_Prevnode@?$list@PAVIMessageObserver@@V?$allocator@PAVIMessageObserver@@@std@@@std@@KAAAPAU_Node@?$_List_nod@PAVIMessageObserver@@V?$allocator@PAVIMessageObserver@@@std@@@2@PAU342@@Z ; std::list<IMessageObserver *,std::allocator<IMessageObserver *> >::_Prevnode
  0008e	83 c4 04	 add	 esp, 4
  00091	89 45 d4	 mov	 DWORD PTR tv93[ebp], eax
  00094	8d 55 e4	 lea	 edx, DWORD PTR __Pnode$[ebp]
  00097	52		 push	 edx
  00098	8b 45 d4	 mov	 eax, DWORD PTR tv93[ebp]
  0009b	50		 push	 eax
  0009c	8b 4d ec	 mov	 ecx, DWORD PTR _this$[ebp]
  0009f	83 c1 01	 add	 ecx, 1
  000a2	e8 00 00 00 00	 call	 ?construct@?$allocator@PAU_Node@?$_List_nod@PAVIMessageObserver@@V?$allocator@PAVIMessageObserver@@@std@@@std@@@std@@QAEXPAPAU_Node@?$_List_nod@PAVIMessageObserver@@V?$allocator@PAVIMessageObserver@@@std@@@2@ABQAU342@@Z ; std::allocator<std::_List_nod<IMessageObserver *,std::allocator<IMessageObserver *> >::_Node *>::construct
  000a7	eb 35		 jmp	 SHORT $L193664
$L193665:

; 906  : 		_CATCH_ALL
; 907  : 		if (0 < _Linkcnt)

  000a9	83 7d dc 00	 cmp	 DWORD PTR __Linkcnt$[ebp], 0
  000ad	7e 18		 jle	 SHORT $L192149

; 908  : 			this->_Alptr.destroy(&_Nextnode(_Pnode));

  000af	8b 4d e4	 mov	 ecx, DWORD PTR __Pnode$[ebp]
  000b2	51		 push	 ecx
  000b3	e8 00 00 00 00	 call	 ?_Nextnode@?$list@PAVIMessageObserver@@V?$allocator@PAVIMessageObserver@@@std@@@std@@KAAAPAU_Node@?$_List_nod@PAVIMessageObserver@@V?$allocator@PAVIMessageObserver@@@std@@@2@PAU342@@Z ; std::list<IMessageObserver *,std::allocator<IMessageObserver *> >::_Nextnode
  000b8	83 c4 04	 add	 esp, 4
  000bb	50		 push	 eax
  000bc	8b 4d ec	 mov	 ecx, DWORD PTR _this$[ebp]
  000bf	83 c1 01	 add	 ecx, 1
  000c2	e8 00 00 00 00	 call	 ?destroy@?$allocator@PAU_Node@?$_List_nod@PAVIMessageObserver@@V?$allocator@PAVIMessageObserver@@@std@@@std@@@std@@QAEXPAPAU_Node@?$_List_nod@PAVIMessageObserver@@V?$allocator@PAVIMessageObserver@@@std@@@2@@Z ; std::allocator<std::_List_nod<IMessageObserver *,std::allocator<IMessageObserver *> >::_Node *>::destroy
$L192149:

; 909  : 		this->_Alnod.deallocate(_Pnode, 1);

  000c7	6a 01		 push	 1
  000c9	8b 55 e4	 mov	 edx, DWORD PTR __Pnode$[ebp]
  000cc	52		 push	 edx
  000cd	8b 4d ec	 mov	 ecx, DWORD PTR _this$[ebp]
  000d0	e8 00 00 00 00	 call	 ?deallocate@?$allocator@U_Node@?$_List_nod@PAVIMessageObserver@@V?$allocator@PAVIMessageObserver@@@std@@@std@@@std@@QAEXPAU_Node@?$_List_nod@PAVIMessageObserver@@V?$allocator@PAVIMessageObserver@@@std@@@2@I@Z ; std::allocator<std::_List_nod<IMessageObserver *,std::allocator<IMessageObserver *> >::_Node>::deallocate

; 910  : 		_RERAISE;

  000d5	6a 00		 push	 0
  000d7	6a 00		 push	 0
  000d9	e8 00 00 00 00	 call	 __CxxThrowException@8
$L193664:

; 911  : 		_CATCH_END

  000de	c7 45 fc ff ff
	ff ff		 mov	 DWORD PTR __$EHRec$[ebp+12], -1

; 912  : 		return (_Pnode);

  000e5	8b 45 e4	 mov	 eax, DWORD PTR __Pnode$[ebp]
$L193662:

; 913  : 		}

  000e8	52		 push	 edx
  000e9	8b cd		 mov	 ecx, ebp
  000eb	50		 push	 eax
  000ec	8d 15 00 00 00
	00		 lea	 edx, DWORD PTR $L193671
  000f2	e8 00 00 00 00	 call	 @_RTC_CheckStackVars@8
  000f7	58		 pop	 eax
  000f8	5a		 pop	 edx
  000f9	8b 4d f4	 mov	 ecx, DWORD PTR __$EHRec$[ebp+4]
  000fc	64 89 0d 00 00
	00 00		 mov	 DWORD PTR fs:__except_list, ecx
  00103	5f		 pop	 edi
  00104	5e		 pop	 esi
  00105	5b		 pop	 ebx
  00106	83 c4 2c	 add	 esp, 44			; 0000002cH
  00109	3b ec		 cmp	 ebp, esp
  0010b	e8 00 00 00 00	 call	 __RTC_CheckEsp
  00110	8b e5		 mov	 esp, ebp
  00112	5d		 pop	 ebp
  00113	c3		 ret	 0
$L193671:
  00114	01 00 00 00	 DD	 1
  00118	00 00 00 00	 DD	 $L193670
$L193670:
  0011c	e4 ff ff ff	 DD	 -28			; ffffffe4H
  00120	04 00 00 00	 DD	 4
  00124	00 00 00 00	 DD	 $L193668
$L193668:
  00128	5f		 DB	 95			; 0000005fH
  00129	50		 DB	 80			; 00000050H
  0012a	6e		 DB	 110			; 0000006eH
  0012b	6f		 DB	 111			; 0000006fH
  0012c	64		 DB	 100			; 00000064H
  0012d	65		 DB	 101			; 00000065H
  0012e	00		 DB	 0
_TEXT	ENDS
;	COMDAT text$x
text$x	SEGMENT
__ehhandler$?_Buynode@?$list@PAVIMessageObserver@@V?$allocator@PAVIMessageObserver@@@std@@@std@@IAEPAU_Node@?$_List_nod@PAVIMessageObserver@@V?$allocator@PAVIMessageObserver@@@std@@@2@XZ:
  00000	b8 00 00 00 00	 mov	 eax, OFFSET FLAT:$T193667
  00005	e9 00 00 00 00	 jmp	 ___CxxFrameHandler
text$x	ENDS
?_Buynode@?$list@PAVIMessageObserver@@V?$allocator@PAVIMessageObserver@@@std@@@std@@IAEPAU_Node@?$_List_nod@PAVIMessageObserver@@V?$allocator@PAVIMessageObserver@@@std@@@2@XZ ENDP ; std::list<IMessageObserver *,std::allocator<IMessageObserver *> >::_Buynode
PUBLIC	?clear@?$list@PAVIMessageObserver@@V?$allocator@PAVIMessageObserver@@@std@@@std@@QAEXXZ ; std::list<IMessageObserver *,std::allocator<IMessageObserver *> >::clear
; Function compile flags: /Odt /RTCsu
;	COMDAT ?_Tidy@?$list@PAVIMessageObserver@@V?$allocator@PAVIMessageObserver@@@std@@@std@@IAEXXZ
_TEXT	SEGMENT
_this$ = -4						; size = 4
?_Tidy@?$list@PAVIMessageObserver@@V?$allocator@PAVIMessageObserver@@@std@@@std@@IAEXXZ PROC NEAR ; std::list<IMessageObserver *,std::allocator<IMessageObserver *> >::_Tidy, COMDAT
; _this$ = ecx

; 929  : 		{	// free all storage

  00000	55		 push	 ebp
  00001	8b ec		 mov	 ebp, esp
  00003	51		 push	 ecx
  00004	c7 45 fc cc cc
	cc cc		 mov	 DWORD PTR [ebp-4], -858993460 ; ccccccccH
  0000b	89 4d fc	 mov	 DWORD PTR _this$[ebp], ecx

; 930  : 		clear();

  0000e	8b 4d fc	 mov	 ecx, DWORD PTR _this$[ebp]
  00011	e8 00 00 00 00	 call	 ?clear@?$list@PAVIMessageObserver@@V?$allocator@PAVIMessageObserver@@@std@@@std@@QAEXXZ ; std::list<IMessageObserver *,std::allocator<IMessageObserver *> >::clear

; 931  : 		this->_Alptr.destroy(&_Nextnode(_Myhead));

  00016	8b 45 fc	 mov	 eax, DWORD PTR _this$[ebp]
  00019	8b 48 04	 mov	 ecx, DWORD PTR [eax+4]
  0001c	51		 push	 ecx
  0001d	e8 00 00 00 00	 call	 ?_Nextnode@?$list@PAVIMessageObserver@@V?$allocator@PAVIMessageObserver@@@std@@@std@@KAAAPAU_Node@?$_List_nod@PAVIMessageObserver@@V?$allocator@PAVIMessageObserver@@@std@@@2@PAU342@@Z ; std::list<IMessageObserver *,std::allocator<IMessageObserver *> >::_Nextnode
  00022	83 c4 04	 add	 esp, 4
  00025	50		 push	 eax
  00026	8b 4d fc	 mov	 ecx, DWORD PTR _this$[ebp]
  00029	83 c1 01	 add	 ecx, 1
  0002c	e8 00 00 00 00	 call	 ?destroy@?$allocator@PAU_Node@?$_List_nod@PAVIMessageObserver@@V?$allocator@PAVIMessageObserver@@@std@@@std@@@std@@QAEXPAPAU_Node@?$_List_nod@PAVIMessageObserver@@V?$allocator@PAVIMessageObserver@@@std@@@2@@Z ; std::allocator<std::_List_nod<IMessageObserver *,std::allocator<IMessageObserver *> >::_Node *>::destroy

; 932  : 		this->_Alptr.destroy(&_Prevnode(_Myhead));

  00031	8b 55 fc	 mov	 edx, DWORD PTR _this$[ebp]
  00034	8b 42 04	 mov	 eax, DWORD PTR [edx+4]
  00037	50		 push	 eax
  00038	e8 00 00 00 00	 call	 ?_Prevnode@?$list@PAVIMessageObserver@@V?$allocator@PAVIMessageObserver@@@std@@@std@@KAAAPAU_Node@?$_List_nod@PAVIMessageObserver@@V?$allocator@PAVIMessageObserver@@@std@@@2@PAU342@@Z ; std::list<IMessageObserver *,std::allocator<IMessageObserver *> >::_Prevnode
  0003d	83 c4 04	 add	 esp, 4
  00040	50		 push	 eax
  00041	8b 4d fc	 mov	 ecx, DWORD PTR _this$[ebp]
  00044	83 c1 01	 add	 ecx, 1
  00047	e8 00 00 00 00	 call	 ?destroy@?$allocator@PAU_Node@?$_List_nod@PAVIMessageObserver@@V?$allocator@PAVIMessageObserver@@@std@@@std@@@std@@QAEXPAPAU_Node@?$_List_nod@PAVIMessageObserver@@V?$allocator@PAVIMessageObserver@@@std@@@2@@Z ; std::allocator<std::_List_nod<IMessageObserver *,std::allocator<IMessageObserver *> >::_Node *>::destroy

; 933  : 		this->_Alnod.deallocate(_Myhead, 1);

  0004c	6a 01		 push	 1
  0004e	8b 4d fc	 mov	 ecx, DWORD PTR _this$[ebp]
  00051	8b 51 04	 mov	 edx, DWORD PTR [ecx+4]
  00054	52		 push	 edx
  00055	8b 4d fc	 mov	 ecx, DWORD PTR _this$[ebp]
  00058	e8 00 00 00 00	 call	 ?deallocate@?$allocator@U_Node@?$_List_nod@PAVIMessageObserver@@V?$allocator@PAVIMessageObserver@@@std@@@std@@@std@@QAEXPAU_Node@?$_List_nod@PAVIMessageObserver@@V?$allocator@PAVIMessageObserver@@@std@@@2@I@Z ; std::allocator<std::_List_nod<IMessageObserver *,std::allocator<IMessageObserver *> >::_Node>::deallocate

; 934  : 		_Myhead = 0;

  0005d	8b 45 fc	 mov	 eax, DWORD PTR _this$[ebp]
  00060	c7 40 04 00 00
	00 00		 mov	 DWORD PTR [eax+4], 0

; 935  : 		}

  00067	83 c4 04	 add	 esp, 4
  0006a	3b ec		 cmp	 ebp, esp
  0006c	e8 00 00 00 00	 call	 __RTC_CheckEsp
  00071	8b e5		 mov	 esp, ebp
  00073	5d		 pop	 ebp
  00074	c3		 ret	 0
?_Tidy@?$list@PAVIMessageObserver@@V?$allocator@PAVIMessageObserver@@@std@@@std@@IAEXXZ ENDP ; std::list<IMessageObserver *,std::allocator<IMessageObserver *> >::_Tidy
_TEXT	ENDS
PUBLIC	??0?$allocator@PAVIMessageObserver@@@std@@QAE@ABV01@@Z ; std::allocator<IMessageObserver *>::allocator<IMessageObserver *>
PUBLIC	??0?$_List_ptr@PAVIMessageObserver@@V?$allocator@PAVIMessageObserver@@@std@@@std@@IAE@V?$allocator@PAVIMessageObserver@@@1@@Z ; std::_List_ptr<IMessageObserver *,std::allocator<IMessageObserver *> >::_List_ptr<IMessageObserver *,std::allocator<IMessageObserver *> >
; Function compile flags: /Odt /RTCsu
;	COMDAT ??0?$_List_val@PAVIMessageObserver@@V?$allocator@PAVIMessageObserver@@@std@@@std@@IAE@V?$allocator@PAVIMessageObserver@@@1@@Z
_TEXT	SEGMENT
_this$ = -4						; size = 4
__Al$ = 8						; size = 1
??0?$_List_val@PAVIMessageObserver@@V?$allocator@PAVIMessageObserver@@@std@@@std@@IAE@V?$allocator@PAVIMessageObserver@@@1@@Z PROC NEAR ; std::_List_val<IMessageObserver *,std::allocator<IMessageObserver *> >::_List_val<IMessageObserver *,std::allocator<IMessageObserver *> >, COMDAT
; _this$ = ecx

; 82   : 		{	// construct base, and allocator from _Al

  00000	55		 push	 ebp
  00001	8b ec		 mov	 ebp, esp
  00003	83 ec 08	 sub	 esp, 8
  00006	c7 45 f8 cc cc
	cc cc		 mov	 DWORD PTR [ebp-8], -858993460 ; ccccccccH
  0000d	c7 45 fc cc cc
	cc cc		 mov	 DWORD PTR [ebp-4], -858993460 ; ccccccccH
  00014	89 4d fc	 mov	 DWORD PTR _this$[ebp], ecx
  00017	51		 push	 ecx
  00018	8b cc		 mov	 ecx, esp
  0001a	8d 45 08	 lea	 eax, DWORD PTR __Al$[ebp]
  0001d	50		 push	 eax
  0001e	e8 00 00 00 00	 call	 ??0?$allocator@PAVIMessageObserver@@@std@@QAE@ABV01@@Z ; std::allocator<IMessageObserver *>::allocator<IMessageObserver *>
  00023	8b 4d fc	 mov	 ecx, DWORD PTR _this$[ebp]
  00026	e8 00 00 00 00	 call	 ??0?$_List_ptr@PAVIMessageObserver@@V?$allocator@PAVIMessageObserver@@@std@@@std@@IAE@V?$allocator@PAVIMessageObserver@@@1@@Z ; std::_List_ptr<IMessageObserver *,std::allocator<IMessageObserver *> >::_List_ptr<IMessageObserver *,std::allocator<IMessageObserver *> >
  0002b	8d 4d 08	 lea	 ecx, DWORD PTR __Al$[ebp]
  0002e	51		 push	 ecx
  0002f	8b 4d fc	 mov	 ecx, DWORD PTR _this$[ebp]
  00032	83 c1 02	 add	 ecx, 2
  00035	e8 00 00 00 00	 call	 ??0?$allocator@PAVIMessageObserver@@@std@@QAE@ABV01@@Z ; std::allocator<IMessageObserver *>::allocator<IMessageObserver *>

; 83   : 		}

  0003a	8b 45 fc	 mov	 eax, DWORD PTR _this$[ebp]
  0003d	83 c4 08	 add	 esp, 8
  00040	3b ec		 cmp	 ebp, esp
  00042	e8 00 00 00 00	 call	 __RTC_CheckEsp
  00047	8b e5		 mov	 esp, ebp
  00049	5d		 pop	 ebp
  0004a	c2 04 00	 ret	 4
??0?$_List_val@PAVIMessageObserver@@V?$allocator@PAVIMessageObserver@@@std@@@std@@IAE@V?$allocator@PAVIMessageObserver@@@1@@Z ENDP ; std::_List_val<IMessageObserver *,std::allocator<IMessageObserver *> >::_List_val<IMessageObserver *,std::allocator<IMessageObserver *> >
; Function compile flags: /Odt /RTCsu
; File d:\program files (x86)\microsoft visual studio .net 2003\vc7\include\xmemory
_TEXT	ENDS
;	COMDAT ??0?$allocator@PAVIMessageObserver@@@std@@QAE@XZ
_TEXT	SEGMENT
_this$ = -4						; size = 4
??0?$allocator@PAVIMessageObserver@@@std@@QAE@XZ PROC NEAR ; std::allocator<IMessageObserver *>::allocator<IMessageObserver *>, COMDAT
; _this$ = ecx

; 111  : 	allocator()

  00000	55		 push	 ebp
  00001	8b ec		 mov	 ebp, esp
  00003	51		 push	 ecx
  00004	c7 45 fc cc cc
	cc cc		 mov	 DWORD PTR [ebp-4], -858993460 ; ccccccccH
  0000b	89 4d fc	 mov	 DWORD PTR _this$[ebp], ecx

; 112  : 		{	// construct default allocator (do nothing)
; 113  : 		}

  0000e	8b 45 fc	 mov	 eax, DWORD PTR _this$[ebp]
  00011	8b e5		 mov	 esp, ebp
  00013	5d		 pop	 ebp
  00014	c3		 ret	 0
??0?$allocator@PAVIMessageObserver@@@std@@QAE@XZ ENDP	; std::allocator<IMessageObserver *>::allocator<IMessageObserver *>
_TEXT	ENDS
PUBLIC	??0const_iterator@?$list@PAVIMessageObserver@@V?$allocator@PAVIMessageObserver@@@std@@@std@@QAE@PAU_Node@?$_List_nod@PAVIMessageObserver@@V?$allocator@PAVIMessageObserver@@@std@@@2@@Z ; std::list<IMessageObserver *,std::allocator<IMessageObserver *> >::const_iterator::const_iterator
; Function compile flags: /Odt /RTCsu
; File d:\program files (x86)\microsoft visual studio .net 2003\vc7\include\list
;	COMDAT ??0iterator@?$list@PAVIMessageObserver@@V?$allocator@PAVIMessageObserver@@@std@@@std@@QAE@PAU_Node@?$_List_nod@PAVIMessageObserver@@V?$allocator@PAVIMessageObserver@@@std@@@2@@Z
_TEXT	SEGMENT
_this$ = -4						; size = 4
__Pnode$ = 8						; size = 4
??0iterator@?$list@PAVIMessageObserver@@V?$allocator@PAVIMessageObserver@@@std@@@std@@QAE@PAU_Node@?$_List_nod@PAVIMessageObserver@@V?$allocator@PAVIMessageObserver@@@std@@@2@@Z PROC NEAR ; std::list<IMessageObserver *,std::allocator<IMessageObserver *> >::iterator::iterator, COMDAT
; _this$ = ecx

; 235  : 			{	// construct with node pointer _Pnode

  00000	55		 push	 ebp
  00001	8b ec		 mov	 ebp, esp
  00003	51		 push	 ecx
  00004	c7 45 fc cc cc
	cc cc		 mov	 DWORD PTR [ebp-4], -858993460 ; ccccccccH
  0000b	89 4d fc	 mov	 DWORD PTR _this$[ebp], ecx
  0000e	8b 45 08	 mov	 eax, DWORD PTR __Pnode$[ebp]
  00011	50		 push	 eax
  00012	8b 4d fc	 mov	 ecx, DWORD PTR _this$[ebp]
  00015	e8 00 00 00 00	 call	 ??0const_iterator@?$list@PAVIMessageObserver@@V?$allocator@PAVIMessageObserver@@@std@@@std@@QAE@PAU_Node@?$_List_nod@PAVIMessageObserver@@V?$allocator@PAVIMessageObserver@@@std@@@2@@Z ; std::list<IMessageObserver *,std::allocator<IMessageObserver *> >::const_iterator::const_iterator

; 236  : 			}

  0001a	8b 45 fc	 mov	 eax, DWORD PTR _this$[ebp]
  0001d	83 c4 04	 add	 esp, 4
  00020	3b ec		 cmp	 ebp, esp
  00022	e8 00 00 00 00	 call	 __RTC_CheckEsp
  00027	8b e5		 mov	 esp, ebp
  00029	5d		 pop	 ebp
  0002a	c2 04 00	 ret	 4
??0iterator@?$list@PAVIMessageObserver@@V?$allocator@PAVIMessageObserver@@@std@@@std@@QAE@PAU_Node@?$_List_nod@PAVIMessageObserver@@V?$allocator@PAVIMessageObserver@@@std@@@2@@Z ENDP ; std::list<IMessageObserver *,std::allocator<IMessageObserver *> >::iterator::iterator
_TEXT	ENDS
PUBLIC	??Econst_iterator@?$list@PAVIMessageObserver@@V?$allocator@PAVIMessageObserver@@@std@@@std@@QAEAAV012@XZ ; std::list<IMessageObserver *,std::allocator<IMessageObserver *> >::const_iterator::operator++
; Function compile flags: /Odt /RTCsu
;	COMDAT ??Eiterator@?$list@PAVIMessageObserver@@V?$allocator@PAVIMessageObserver@@@std@@@std@@QAEAAV012@XZ
_TEXT	SEGMENT
_this$ = -4						; size = 4
??Eiterator@?$list@PAVIMessageObserver@@V?$allocator@PAVIMessageObserver@@@std@@@std@@QAEAAV012@XZ PROC NEAR ; std::list<IMessageObserver *,std::allocator<IMessageObserver *> >::iterator::operator++, COMDAT
; _this$ = ecx

; 249  : 			{	// preincrement

  00000	55		 push	 ebp
  00001	8b ec		 mov	 ebp, esp
  00003	51		 push	 ecx
  00004	c7 45 fc cc cc
	cc cc		 mov	 DWORD PTR [ebp-4], -858993460 ; ccccccccH
  0000b	89 4d fc	 mov	 DWORD PTR _this$[ebp], ecx

; 250  : 			++(*(const_iterator *)this);

  0000e	8b 4d fc	 mov	 ecx, DWORD PTR _this$[ebp]
  00011	e8 00 00 00 00	 call	 ??Econst_iterator@?$list@PAVIMessageObserver@@V?$allocator@PAVIMessageObserver@@@std@@@std@@QAEAAV012@XZ ; std::list<IMessageObserver *,std::allocator<IMessageObserver *> >::const_iterator::operator++

; 251  : 			return (*this);

  00016	8b 45 fc	 mov	 eax, DWORD PTR _this$[ebp]

; 252  : 			}

  00019	83 c4 04	 add	 esp, 4
  0001c	3b ec		 cmp	 ebp, esp
  0001e	e8 00 00 00 00	 call	 __RTC_CheckEsp
  00023	8b e5		 mov	 esp, ebp
  00025	5d		 pop	 ebp
  00026	c3		 ret	 0
??Eiterator@?$list@PAVIMessageObserver@@V?$allocator@PAVIMessageObserver@@@std@@@std@@QAEAAV012@XZ ENDP ; std::list<IMessageObserver *,std::allocator<IMessageObserver *> >::iterator::operator++
_TEXT	ENDS
PUBLIC	?_Myval@?$list@PAVIMessageObserver@@V?$allocator@PAVIMessageObserver@@@std@@@std@@KAAAPAVIMessageObserver@@PAU_Node@?$_List_nod@PAVIMessageObserver@@V?$allocator@PAVIMessageObserver@@@std@@@2@@Z ; std::list<IMessageObserver *,std::allocator<IMessageObserver *> >::_Myval
; Function compile flags: /Odt /RTCsu
;	COMDAT ??Dconst_iterator@?$list@PAVIMessageObserver@@V?$allocator@PAVIMessageObserver@@@std@@@std@@QBEABQAVIMessageObserver@@XZ
_TEXT	SEGMENT
_this$ = -4						; size = 4
??Dconst_iterator@?$list@PAVIMessageObserver@@V?$allocator@PAVIMessageObserver@@@std@@@std@@QBEABQAVIMessageObserver@@XZ PROC NEAR ; std::list<IMessageObserver *,std::allocator<IMessageObserver *> >::const_iterator::operator*, COMDAT
; _this$ = ecx

; 160  : 			{	// return designated value

  00000	55		 push	 ebp
  00001	8b ec		 mov	 ebp, esp
  00003	51		 push	 ecx
  00004	c7 45 fc cc cc
	cc cc		 mov	 DWORD PTR [ebp-4], -858993460 ; ccccccccH
  0000b	89 4d fc	 mov	 DWORD PTR _this$[ebp], ecx

; 161  : 			return (_Myval(_Ptr));

  0000e	8b 45 fc	 mov	 eax, DWORD PTR _this$[ebp]
  00011	8b 08		 mov	 ecx, DWORD PTR [eax]
  00013	51		 push	 ecx
  00014	e8 00 00 00 00	 call	 ?_Myval@?$list@PAVIMessageObserver@@V?$allocator@PAVIMessageObserver@@@std@@@std@@KAAAPAVIMessageObserver@@PAU_Node@?$_List_nod@PAVIMessageObserver@@V?$allocator@PAVIMessageObserver@@@std@@@2@@Z ; std::list<IMessageObserver *,std::allocator<IMessageObserver *> >::_Myval
  00019	83 c4 04	 add	 esp, 4

; 162  : 			}

  0001c	83 c4 04	 add	 esp, 4
  0001f	3b ec		 cmp	 ebp, esp
  00021	e8 00 00 00 00	 call	 __RTC_CheckEsp
  00026	8b e5		 mov	 esp, ebp
  00028	5d		 pop	 ebp
  00029	c3		 ret	 0
??Dconst_iterator@?$list@PAVIMessageObserver@@V?$allocator@PAVIMessageObserver@@@std@@@std@@QBEABQAVIMessageObserver@@XZ ENDP ; std::list<IMessageObserver *,std::allocator<IMessageObserver *> >::const_iterator::operator*
; Function compile flags: /Odt /RTCsu
_TEXT	ENDS
;	COMDAT ??8const_iterator@?$list@PAVIMessageObserver@@V?$allocator@PAVIMessageObserver@@@std@@@std@@QBE_NABV012@@Z
_TEXT	SEGMENT
_this$ = -4						; size = 4
__Right$ = 8						; size = 4
??8const_iterator@?$list@PAVIMessageObserver@@V?$allocator@PAVIMessageObserver@@@std@@@std@@QBE_NABV012@@Z PROC NEAR ; std::list<IMessageObserver *,std::allocator<IMessageObserver *> >::const_iterator::operator==, COMDAT
; _this$ = ecx

; 196  : 			{	// test for iterator equality

  00000	55		 push	 ebp
  00001	8b ec		 mov	 ebp, esp
  00003	51		 push	 ecx
  00004	c7 45 fc cc cc
	cc cc		 mov	 DWORD PTR [ebp-4], -858993460 ; ccccccccH
  0000b	89 4d fc	 mov	 DWORD PTR _this$[ebp], ecx

; 197  : 			return (_Ptr == _Right._Ptr);

  0000e	8b 45 fc	 mov	 eax, DWORD PTR _this$[ebp]
  00011	8b 4d 08	 mov	 ecx, DWORD PTR __Right$[ebp]
  00014	8b 00		 mov	 eax, DWORD PTR [eax]
  00016	2b 01		 sub	 eax, DWORD PTR [ecx]
  00018	f7 d8		 neg	 eax
  0001a	1b c0		 sbb	 eax, eax
  0001c	40		 inc	 eax

; 198  : 			}

  0001d	8b e5		 mov	 esp, ebp
  0001f	5d		 pop	 ebp
  00020	c2 04 00	 ret	 4
??8const_iterator@?$list@PAVIMessageObserver@@V?$allocator@PAVIMessageObserver@@@std@@@std@@QBE_NABV012@@Z ENDP ; std::list<IMessageObserver *,std::allocator<IMessageObserver *> >::const_iterator::operator==
_TEXT	ENDS
PUBLIC	?max_size@?$allocator@UTAB_ITEM@@@std@@QBEIXZ	; std::allocator<TAB_ITEM>::max_size
; Function compile flags: /Odt /RTCsu
; File d:\program files (x86)\microsoft visual studio .net 2003\vc7\include\vector
;	COMDAT ?max_size@?$vector@UTAB_ITEM@@V?$allocator@UTAB_ITEM@@@std@@@std@@QBEIXZ
_TEXT	SEGMENT
_this$ = -4						; size = 4
?max_size@?$vector@UTAB_ITEM@@V?$allocator@UTAB_ITEM@@@std@@@std@@QBEIXZ PROC NEAR ; std::vector<TAB_ITEM,std::allocator<TAB_ITEM> >::max_size, COMDAT
; _this$ = ecx

; 520  : 		{	// return maximum possible length of sequence

  00000	55		 push	 ebp
  00001	8b ec		 mov	 ebp, esp
  00003	51		 push	 ecx
  00004	c7 45 fc cc cc
	cc cc		 mov	 DWORD PTR [ebp-4], -858993460 ; ccccccccH
  0000b	89 4d fc	 mov	 DWORD PTR _this$[ebp], ecx

; 521  : 		return (this->_Alval.max_size());

  0000e	8b 4d fc	 mov	 ecx, DWORD PTR _this$[ebp]
  00011	e8 00 00 00 00	 call	 ?max_size@?$allocator@UTAB_ITEM@@@std@@QBEIXZ ; std::allocator<TAB_ITEM>::max_size

; 522  : 		}

  00016	83 c4 04	 add	 esp, 4
  00019	3b ec		 cmp	 ebp, esp
  0001b	e8 00 00 00 00	 call	 __RTC_CheckEsp
  00020	8b e5		 mov	 esp, ebp
  00022	5d		 pop	 ebp
  00023	c3		 ret	 0
?max_size@?$vector@UTAB_ITEM@@V?$allocator@UTAB_ITEM@@@std@@@std@@QBEIXZ ENDP ; std::vector<TAB_ITEM,std::allocator<TAB_ITEM> >::max_size
_TEXT	ENDS
PUBLIC	??$_Destroy_range@UTAB_ITEM@@V?$allocator@UTAB_ITEM@@@std@@@std@@YAXPAUTAB_ITEM@@0AAV?$allocator@UTAB_ITEM@@@0@@Z ; std::_Destroy_range<TAB_ITEM,std::allocator<TAB_ITEM> >
; Function compile flags: /Odt /RTCsu
;	COMDAT ?_Destroy@?$vector@UTAB_ITEM@@V?$allocator@UTAB_ITEM@@@std@@@std@@IAEXPAUTAB_ITEM@@0@Z
_TEXT	SEGMENT
_this$ = -4						; size = 4
__First$ = 8						; size = 4
__Last$ = 12						; size = 4
?_Destroy@?$vector@UTAB_ITEM@@V?$allocator@UTAB_ITEM@@@std@@@std@@IAEXPAUTAB_ITEM@@0@Z PROC NEAR ; std::vector<TAB_ITEM,std::allocator<TAB_ITEM> >::_Destroy, COMDAT
; _this$ = ecx

; 786  : 		{	// destroy [_First, _Last) using allocator

  00000	55		 push	 ebp
  00001	8b ec		 mov	 ebp, esp
  00003	51		 push	 ecx
  00004	c7 45 fc cc cc
	cc cc		 mov	 DWORD PTR [ebp-4], -858993460 ; ccccccccH
  0000b	89 4d fc	 mov	 DWORD PTR _this$[ebp], ecx

; 787  : 		_Destroy_range(_First, _Last, this->_Alval);

  0000e	8b 45 fc	 mov	 eax, DWORD PTR _this$[ebp]
  00011	50		 push	 eax
  00012	8b 4d 0c	 mov	 ecx, DWORD PTR __Last$[ebp]
  00015	51		 push	 ecx
  00016	8b 55 08	 mov	 edx, DWORD PTR __First$[ebp]
  00019	52		 push	 edx
  0001a	e8 00 00 00 00	 call	 ??$_Destroy_range@UTAB_ITEM@@V?$allocator@UTAB_ITEM@@@std@@@std@@YAXPAUTAB_ITEM@@0AAV?$allocator@UTAB_ITEM@@@0@@Z ; std::_Destroy_range<TAB_ITEM,std::allocator<TAB_ITEM> >
  0001f	83 c4 0c	 add	 esp, 12			; 0000000cH

; 788  : 		}

  00022	83 c4 04	 add	 esp, 4
  00025	3b ec		 cmp	 ebp, esp
  00027	e8 00 00 00 00	 call	 __RTC_CheckEsp
  0002c	8b e5		 mov	 esp, ebp
  0002e	5d		 pop	 ebp
  0002f	c2 08 00	 ret	 8
?_Destroy@?$vector@UTAB_ITEM@@V?$allocator@UTAB_ITEM@@@std@@@std@@IAEXPAUTAB_ITEM@@0@Z ENDP ; std::vector<TAB_ITEM,std::allocator<TAB_ITEM> >::_Destroy
_TEXT	ENDS
PUBLIC	??_R0?AVlogic_error@std@@@8			; std::logic_error `RTTI Type Descriptor'
PUBLIC	__CT??_R0?AVlogic_error@std@@@8??0logic_error@std@@QAE@ABV01@@Z40
PUBLIC	??_R0?AVexception@@@8				; exception `RTTI Type Descriptor'
PUBLIC	__CT??_R0?AVexception@@@8??0exception@@QAE@ABV0@@Z12
PUBLIC	??_R0?AVlength_error@std@@@8			; std::length_error `RTTI Type Descriptor'
PUBLIC	??0logic_error@std@@QAE@ABV01@@Z		; std::logic_error::logic_error
PUBLIC	??0length_error@std@@QAE@ABV?$basic_string@DU?$char_traits@D@std@@V?$allocator@D@2@@1@@Z ; std::length_error::length_error
PUBLIC	??1length_error@std@@UAE@XZ			; std::length_error::~length_error
PUBLIC	??0length_error@std@@QAE@ABV01@@Z		; std::length_error::length_error
PUBLIC	__TI3?AVlength_error@std@@
PUBLIC	__CTA3?AVlength_error@std@@
PUBLIC	__CT??_R0?AVlength_error@std@@@8??0length_error@std@@QAE@ABV01@@Z40
PUBLIC	??_C@_0BD@OLBABOEK@vector?$DMT?$DO?5too?5long?$AA@ ; `string'
EXTRN	??0exception@@QAE@ABV0@@Z:NEAR			; exception::exception
;	COMDAT xdata$x
xdata$x	SEGMENT
$T193694 DD	0ffffffffH
	DD	FLAT:$L193690
$T193692 DD	019930520H
	DD	01H
	DD	FLAT:$T193694
	DD	2 DUP(00H)
	DD	2 DUP(00H)
xdata$x	ENDS
;	COMDAT ??_C@_0BD@OLBABOEK@vector?$DMT?$DO?5too?5long?$AA@
CONST	SEGMENT
??_C@_0BD@OLBABOEK@vector?$DMT?$DO?5too?5long?$AA@ DB 'vector<T> too long'
	DB	00H						; `string'
CONST	ENDS
;	COMDAT __TI3?AVlength_error@std@@
xdata$x	SEGMENT
__TI3?AVlength_error@std@@ DD 00H
	DD	FLAT:??1length_error@std@@UAE@XZ
	DD	00H
	DD	FLAT:__CTA3?AVlength_error@std@@
xdata$x	ENDS
;	COMDAT __CTA3?AVlength_error@std@@
xdata$x	SEGMENT
__CTA3?AVlength_error@std@@ DD 03H
	DD	FLAT:__CT??_R0?AVlength_error@std@@@8??0length_error@std@@QAE@ABV01@@Z40
	DD	FLAT:__CT??_R0?AVlogic_error@std@@@8??0logic_error@std@@QAE@ABV01@@Z40
	DD	FLAT:__CT??_R0?AVexception@@@8??0exception@@QAE@ABV0@@Z12
xdata$x	ENDS
;	COMDAT __CT??_R0?AVlength_error@std@@@8??0length_error@std@@QAE@ABV01@@Z40
xdata$x	SEGMENT
__CT??_R0?AVlength_error@std@@@8??0length_error@std@@QAE@ABV01@@Z40 DD 00H
	DD	FLAT:??_R0?AVlength_error@std@@@8
	DD	00H
	DD	0ffffffffH
	ORG $+4
	DD	028H
	DD	FLAT:??0length_error@std@@QAE@ABV01@@Z
xdata$x	ENDS
;	COMDAT ??_R0?AVlength_error@std@@@8
_DATA	SEGMENT
??_R0?AVlength_error@std@@@8 DD FLAT:??_7type_info@@6B@	; std::length_error `RTTI Type Descriptor'
	DD	00H
	DB	'.?AVlength_error@std@@', 00H
	ORG $-31
	DD	FLAT:??_7type_info@@6B@
	DD	00H
	DB	'.?AVlength_error@std@@', 00H
_DATA	ENDS
;	COMDAT __CT??_R0?AVlogic_error@std@@@8??0logic_error@std@@QAE@ABV01@@Z40
xdata$x	SEGMENT
__CT??_R0?AVlogic_error@std@@@8??0logic_error@std@@QAE@ABV01@@Z40 DD 00H
	DD	FLAT:??_R0?AVlogic_error@std@@@8
	DD	00H
	DD	0ffffffffH
	ORG $+4
	DD	028H
	DD	FLAT:??0logic_error@std@@QAE@ABV01@@Z
xdata$x	ENDS
;	COMDAT ??_R0?AVlogic_error@std@@@8
_DATA	SEGMENT
??_R0?AVlogic_error@std@@@8 DD FLAT:??_7type_info@@6B@	; std::logic_error `RTTI Type Descriptor'
	DD	00H
	DB	'.?AVlogic_error@std@@', 00H
	ORG $-30
	DD	FLAT:??_7type_info@@6B@
	DD	00H
	DB	'.?AVlogic_error@std@@', 00H
_DATA	ENDS
;	COMDAT __CT??_R0?AVexception@@@8??0exception@@QAE@ABV0@@Z12
xdata$x	SEGMENT
__CT??_R0?AVexception@@@8??0exception@@QAE@ABV0@@Z12 DD 00H
	DD	FLAT:??_R0?AVexception@@@8
	DD	00H
	DD	0ffffffffH
	ORG $+4
	DD	0cH
	DD	FLAT:??0exception@@QAE@ABV0@@Z
xdata$x	ENDS
;	COMDAT ??_R0?AVexception@@@8
_DATA	SEGMENT
??_R0?AVexception@@@8 DD FLAT:??_7type_info@@6B@	; exception `RTTI Type Descriptor'
	DD	00H
	DB	'.?AVexception@@', 00H
	ORG $-24
	DD	FLAT:??_7type_info@@6B@
	DD	00H
	DB	'.?AVexception@@', 00H
; Function compile flags: /Odt /RTCsu
_DATA	ENDS
;	COMDAT ?_Xlen@?$vector@UTAB_ITEM@@V?$allocator@UTAB_ITEM@@@std@@@std@@IBEXXZ
_TEXT	SEGMENT
$T193689 = -84						; size = 28
$T193688 = -56						; size = 40
_this$ = -16						; size = 4
__$EHRec$ = -12						; size = 12
?_Xlen@?$vector@UTAB_ITEM@@V?$allocator@UTAB_ITEM@@@std@@@std@@IBEXXZ PROC NEAR ; std::vector<TAB_ITEM,std::allocator<TAB_ITEM> >::_Xlen, COMDAT
; _this$ = ecx

; 883  : 		{	// report a length_error

  00000	55		 push	 ebp
  00001	8b ec		 mov	 ebp, esp
  00003	6a ff		 push	 -1
  00005	68 00 00 00 00	 push	 __ehhandler$?_Xlen@?$vector@UTAB_ITEM@@V?$allocator@UTAB_ITEM@@@std@@@std@@IBEXXZ
  0000a	64 a1 00 00 00
	00		 mov	 eax, DWORD PTR fs:__except_list
  00010	50		 push	 eax
  00011	64 89 25 00 00
	00 00		 mov	 DWORD PTR fs:__except_list, esp
  00018	83 ec 48	 sub	 esp, 72			; 00000048H
  0001b	56		 push	 esi
  0001c	57		 push	 edi
  0001d	51		 push	 ecx
  0001e	8d 7d ac	 lea	 edi, DWORD PTR [ebp-84]
  00021	b9 12 00 00 00	 mov	 ecx, 18			; 00000012H
  00026	b8 cc cc cc cc	 mov	 eax, -858993460		; ccccccccH
  0002b	f3 ab		 rep stosd
  0002d	59		 pop	 ecx
  0002e	89 4d f0	 mov	 DWORD PTR _this$[ebp], ecx

; 884  : 		_THROW(length_error, "vector<T> too long");

  00031	8b f4		 mov	 esi, esp
  00033	68 00 00 00 00	 push	 OFFSET FLAT:??_C@_0BD@OLBABOEK@vector?$DMT?$DO?5too?5long?$AA@
  00038	8d 4d ac	 lea	 ecx, DWORD PTR $T193689[ebp]
  0003b	ff 15 00 00 00
	00		 call	 DWORD PTR __imp_??0?$basic_string@DU?$char_traits@D@std@@V?$allocator@D@2@@std@@QAE@PBD@Z
  00041	3b f4		 cmp	 esi, esp
  00043	e8 00 00 00 00	 call	 __RTC_CheckEsp
  00048	c7 45 fc 00 00
	00 00		 mov	 DWORD PTR __$EHRec$[ebp+8], 0
  0004f	8d 45 ac	 lea	 eax, DWORD PTR $T193689[ebp]
  00052	50		 push	 eax
  00053	8d 4d c8	 lea	 ecx, DWORD PTR $T193688[ebp]
  00056	e8 00 00 00 00	 call	 ??0length_error@std@@QAE@ABV?$basic_string@DU?$char_traits@D@std@@V?$allocator@D@2@@1@@Z ; std::length_error::length_error
  0005b	68 00 00 00 00	 push	 OFFSET FLAT:__TI3?AVlength_error@std@@
  00060	8d 4d c8	 lea	 ecx, DWORD PTR $T193688[ebp]
  00063	51		 push	 ecx
  00064	e8 00 00 00 00	 call	 __CxxThrowException@8
$L193687:

; 885  : 		}

  00069	8b 4d f4	 mov	 ecx, DWORD PTR __$EHRec$[ebp]
  0006c	64 89 0d 00 00
	00 00		 mov	 DWORD PTR fs:__except_list, ecx
  00073	5f		 pop	 edi
  00074	5e		 pop	 esi
  00075	83 c4 54	 add	 esp, 84			; 00000054H
  00078	3b ec		 cmp	 ebp, esp
  0007a	e8 00 00 00 00	 call	 __RTC_CheckEsp
  0007f	8b e5		 mov	 esp, ebp
  00081	5d		 pop	 ebp
  00082	c3		 ret	 0
_TEXT	ENDS
;	COMDAT text$x
text$x	SEGMENT
$L193690:
  00000	8b f4		 mov	 esi, esp
  00002	8d 4d ac	 lea	 ecx, DWORD PTR $T193689[ebp]
  00005	ff 15 00 00 00
	00		 call	 DWORD PTR __imp_??1?$basic_string@DU?$char_traits@D@std@@V?$allocator@D@2@@std@@QAE@XZ
  0000b	3b f4		 cmp	 esi, esp
  0000d	e9 00 00 00 00	 jmp	 __RTC_CheckEsp
__ehhandler$?_Xlen@?$vector@UTAB_ITEM@@V?$allocator@UTAB_ITEM@@@std@@@std@@IBEXXZ:
  00012	b8 00 00 00 00	 mov	 eax, OFFSET FLAT:$T193692
  00017	e9 00 00 00 00	 jmp	 ___CxxFrameHandler
text$x	ENDS
?_Xlen@?$vector@UTAB_ITEM@@V?$allocator@UTAB_ITEM@@@std@@@std@@IBEXXZ ENDP ; std::vector<TAB_ITEM,std::allocator<TAB_ITEM> >::_Xlen
; Function compile flags: /Odt /RTCsu
; File d:\program files (x86)\microsoft visual studio .net 2003\vc7\include\xmemory
;	COMDAT ??0?$allocator@UTAB_ITEM@@@std@@QAE@ABV01@@Z
_TEXT	SEGMENT
_this$ = -4						; size = 4
___formal$ = 8						; size = 4
??0?$allocator@UTAB_ITEM@@@std@@QAE@ABV01@@Z PROC NEAR	; std::allocator<TAB_ITEM>::allocator<TAB_ITEM>, COMDAT
; _this$ = ecx

; 115  : 	allocator(const allocator<_Ty>&)

  00000	55		 push	 ebp
  00001	8b ec		 mov	 ebp, esp
  00003	51		 push	 ecx
  00004	c7 45 fc cc cc
	cc cc		 mov	 DWORD PTR [ebp-4], -858993460 ; ccccccccH
  0000b	89 4d fc	 mov	 DWORD PTR _this$[ebp], ecx

; 116  : 		{	// construct by copying (do nothing)
; 117  : 		}

  0000e	8b 45 fc	 mov	 eax, DWORD PTR _this$[ebp]
  00011	8b e5		 mov	 esp, ebp
  00013	5d		 pop	 ebp
  00014	c2 04 00	 ret	 4
??0?$allocator@UTAB_ITEM@@@std@@QAE@ABV01@@Z ENDP	; std::allocator<TAB_ITEM>::allocator<TAB_ITEM>
; Function compile flags: /Odt /RTCsu
_TEXT	ENDS
;	COMDAT ?deallocate@?$allocator@UTAB_ITEM@@@std@@QAEXPAUTAB_ITEM@@I@Z
_TEXT	SEGMENT
_this$ = -4						; size = 4
__Ptr$ = 8						; size = 4
___formal$ = 12						; size = 4
?deallocate@?$allocator@UTAB_ITEM@@@std@@QAEXPAUTAB_ITEM@@I@Z PROC NEAR ; std::allocator<TAB_ITEM>::deallocate, COMDAT
; _this$ = ecx

; 131  : 		{	// deallocate object at _Ptr, ignore size

  00000	55		 push	 ebp
  00001	8b ec		 mov	 ebp, esp
  00003	51		 push	 ecx
  00004	c7 45 fc cc cc
	cc cc		 mov	 DWORD PTR [ebp-4], -858993460 ; ccccccccH
  0000b	89 4d fc	 mov	 DWORD PTR _this$[ebp], ecx

; 132  : 		operator delete(_Ptr);

  0000e	8b 45 08	 mov	 eax, DWORD PTR __Ptr$[ebp]
  00011	50		 push	 eax
  00012	e8 00 00 00 00	 call	 ??3@YAXPAX@Z		; operator delete
  00017	83 c4 04	 add	 esp, 4

; 133  : 		}

  0001a	83 c4 04	 add	 esp, 4
  0001d	3b ec		 cmp	 ebp, esp
  0001f	e8 00 00 00 00	 call	 __RTC_CheckEsp
  00024	8b e5		 mov	 esp, ebp
  00026	5d		 pop	 ebp
  00027	c2 08 00	 ret	 8
?deallocate@?$allocator@UTAB_ITEM@@@std@@QAEXPAUTAB_ITEM@@I@Z ENDP ; std::allocator<TAB_ITEM>::deallocate
_TEXT	ENDS
PUBLIC	??$_Allocate@UTAB_ITEM@@@std@@YAPAUTAB_ITEM@@IPAU1@@Z ; std::_Allocate<TAB_ITEM>
; Function compile flags: /Odt /RTCsu
;	COMDAT ?allocate@?$allocator@UTAB_ITEM@@@std@@QAEPAUTAB_ITEM@@I@Z
_TEXT	SEGMENT
_this$ = -4						; size = 4
__Count$ = 8						; size = 4
?allocate@?$allocator@UTAB_ITEM@@@std@@QAEPAUTAB_ITEM@@I@Z PROC NEAR ; std::allocator<TAB_ITEM>::allocate, COMDAT
; _this$ = ecx

; 136  : 		{	// allocate array of _Count elements

  00000	55		 push	 ebp
  00001	8b ec		 mov	 ebp, esp
  00003	51		 push	 ecx
  00004	c7 45 fc cc cc
	cc cc		 mov	 DWORD PTR [ebp-4], -858993460 ; ccccccccH
  0000b	89 4d fc	 mov	 DWORD PTR _this$[ebp], ecx

; 137  : 		return (_Allocate(_Count, (pointer)0));

  0000e	6a 00		 push	 0
  00010	8b 45 08	 mov	 eax, DWORD PTR __Count$[ebp]
  00013	50		 push	 eax
  00014	e8 00 00 00 00	 call	 ??$_Allocate@UTAB_ITEM@@@std@@YAPAUTAB_ITEM@@IPAU1@@Z ; std::_Allocate<TAB_ITEM>
  00019	83 c4 08	 add	 esp, 8

; 138  : 		}

  0001c	83 c4 04	 add	 esp, 4
  0001f	3b ec		 cmp	 ebp, esp
  00021	e8 00 00 00 00	 call	 __RTC_CheckEsp
  00026	8b e5		 mov	 esp, ebp
  00028	5d		 pop	 ebp
  00029	c2 04 00	 ret	 4
?allocate@?$allocator@UTAB_ITEM@@@std@@QAEPAUTAB_ITEM@@I@Z ENDP ; std::allocator<TAB_ITEM>::allocate
; Function compile flags: /Odt /RTCsu
; File d:\program files (x86)\microsoft visual studio .net 2003\vc7\include\list
_TEXT	ENDS
;	COMDAT ?_Prevnode@?$list@PAVIMessageObserver@@V?$allocator@PAVIMessageObserver@@@std@@@std@@KAAAPAU_Node@?$_List_nod@PAVIMessageObserver@@V?$allocator@PAVIMessageObserver@@@std@@@2@PAU342@@Z
_TEXT	SEGMENT
__Pnode$ = 8						; size = 4
?_Prevnode@?$list@PAVIMessageObserver@@V?$allocator@PAVIMessageObserver@@@std@@@std@@KAAAPAU_Node@?$_List_nod@PAVIMessageObserver@@V?$allocator@PAVIMessageObserver@@@std@@@2@PAU342@@Z PROC NEAR ; std::list<IMessageObserver *,std::allocator<IMessageObserver *> >::_Prevnode, COMDAT

; 112  : 		{	// return reference to predecessor pointer in node

  00000	55		 push	 ebp
  00001	8b ec		 mov	 ebp, esp

; 113  : 		return ((_Nodepref)(*_Pnode)._Prev);

  00003	8b 45 08	 mov	 eax, DWORD PTR __Pnode$[ebp]
  00006	83 c0 04	 add	 eax, 4

; 114  : 		}

  00009	5d		 pop	 ebp
  0000a	c3		 ret	 0
?_Prevnode@?$list@PAVIMessageObserver@@V?$allocator@PAVIMessageObserver@@@std@@@std@@KAAAPAU_Node@?$_List_nod@PAVIMessageObserver@@V?$allocator@PAVIMessageObserver@@@std@@@2@PAU342@@Z ENDP ; std::list<IMessageObserver *,std::allocator<IMessageObserver *> >::_Prevnode
; Function compile flags: /Odt /RTCsu
_TEXT	ENDS
;	COMDAT ?_Myval@?$list@PAVIMessageObserver@@V?$allocator@PAVIMessageObserver@@@std@@@std@@KAAAPAVIMessageObserver@@PAU_Node@?$_List_nod@PAVIMessageObserver@@V?$allocator@PAVIMessageObserver@@@std@@@2@@Z
_TEXT	SEGMENT
__Pnode$ = 8						; size = 4
?_Myval@?$list@PAVIMessageObserver@@V?$allocator@PAVIMessageObserver@@@std@@@std@@KAAAPAVIMessageObserver@@PAU_Node@?$_List_nod@PAVIMessageObserver@@V?$allocator@PAVIMessageObserver@@@std@@@2@@Z PROC NEAR ; std::list<IMessageObserver *,std::allocator<IMessageObserver *> >::_Myval, COMDAT

; 117  : 		{	// return reference to value in node

  00000	55		 push	 ebp
  00001	8b ec		 mov	 ebp, esp

; 118  : 		return ((_Vref)(*_Pnode)._Myval);

  00003	8b 45 08	 mov	 eax, DWORD PTR __Pnode$[ebp]
  00006	83 c0 08	 add	 eax, 8

; 119  : 		}

  00009	5d		 pop	 ebp
  0000a	c3		 ret	 0
?_Myval@?$list@PAVIMessageObserver@@V?$allocator@PAVIMessageObserver@@@std@@@std@@KAAAPAVIMessageObserver@@PAU_Node@?$_List_nod@PAVIMessageObserver@@V?$allocator@PAVIMessageObserver@@@std@@@2@@Z ENDP ; std::list<IMessageObserver *,std::allocator<IMessageObserver *> >::_Myval
_TEXT	ENDS
PUBLIC	?destroy@?$allocator@U_Node@?$_List_nod@PAVIMessageObserver@@V?$allocator@PAVIMessageObserver@@@std@@@std@@@std@@QAEXPAU_Node@?$_List_nod@PAVIMessageObserver@@V?$allocator@PAVIMessageObserver@@@std@@@2@@Z ; std::allocator<std::_List_nod<IMessageObserver *,std::allocator<IMessageObserver *> >::_Node>::destroy
; Function compile flags: /Odt /RTCsu
;	COMDAT ?clear@?$list@PAVIMessageObserver@@V?$allocator@PAVIMessageObserver@@@std@@@std@@QAEXXZ
_TEXT	SEGMENT
__Pnode$ = -12						; size = 4
__Pnext$ = -8						; size = 4
_this$ = -4						; size = 4
?clear@?$list@PAVIMessageObserver@@V?$allocator@PAVIMessageObserver@@@std@@@std@@QAEXXZ PROC NEAR ; std::list<IMessageObserver *,std::allocator<IMessageObserver *> >::clear, COMDAT
; _this$ = ecx

; 610  : 		{	// erase all

  00000	55		 push	 ebp
  00001	8b ec		 mov	 ebp, esp
  00003	83 ec 0c	 sub	 esp, 12			; 0000000cH
  00006	c7 45 f4 cc cc
	cc cc		 mov	 DWORD PTR [ebp-12], -858993460 ; ccccccccH
  0000d	c7 45 f8 cc cc
	cc cc		 mov	 DWORD PTR [ebp-8], -858993460 ; ccccccccH
  00014	c7 45 fc cc cc
	cc cc		 mov	 DWORD PTR [ebp-4], -858993460 ; ccccccccH
  0001b	89 4d fc	 mov	 DWORD PTR _this$[ebp], ecx

; 611  : 		_Nodeptr _Pnext;
; 612  : 		_Nodeptr _Pnode = _Nextnode(_Myhead);

  0001e	8b 45 fc	 mov	 eax, DWORD PTR _this$[ebp]
  00021	8b 48 04	 mov	 ecx, DWORD PTR [eax+4]
  00024	51		 push	 ecx
  00025	e8 00 00 00 00	 call	 ?_Nextnode@?$list@PAVIMessageObserver@@V?$allocator@PAVIMessageObserver@@@std@@@std@@KAAAPAU_Node@?$_List_nod@PAVIMessageObserver@@V?$allocator@PAVIMessageObserver@@@std@@@2@PAU342@@Z ; std::list<IMessageObserver *,std::allocator<IMessageObserver *> >::_Nextnode
  0002a	83 c4 04	 add	 esp, 4
  0002d	8b 10		 mov	 edx, DWORD PTR [eax]
  0002f	89 55 f4	 mov	 DWORD PTR __Pnode$[ebp], edx

; 613  : 		_Nextnode(_Myhead) = _Myhead;

  00032	8b 45 fc	 mov	 eax, DWORD PTR _this$[ebp]
  00035	8b 48 04	 mov	 ecx, DWORD PTR [eax+4]
  00038	51		 push	 ecx
  00039	e8 00 00 00 00	 call	 ?_Nextnode@?$list@PAVIMessageObserver@@V?$allocator@PAVIMessageObserver@@@std@@@std@@KAAAPAU_Node@?$_List_nod@PAVIMessageObserver@@V?$allocator@PAVIMessageObserver@@@std@@@2@PAU342@@Z ; std::list<IMessageObserver *,std::allocator<IMessageObserver *> >::_Nextnode
  0003e	83 c4 04	 add	 esp, 4
  00041	8b 55 fc	 mov	 edx, DWORD PTR _this$[ebp]
  00044	8b 4a 04	 mov	 ecx, DWORD PTR [edx+4]
  00047	89 08		 mov	 DWORD PTR [eax], ecx

; 614  : 		_Prevnode(_Myhead) = _Myhead;

  00049	8b 55 fc	 mov	 edx, DWORD PTR _this$[ebp]
  0004c	8b 42 04	 mov	 eax, DWORD PTR [edx+4]
  0004f	50		 push	 eax
  00050	e8 00 00 00 00	 call	 ?_Prevnode@?$list@PAVIMessageObserver@@V?$allocator@PAVIMessageObserver@@@std@@@std@@KAAAPAU_Node@?$_List_nod@PAVIMessageObserver@@V?$allocator@PAVIMessageObserver@@@std@@@2@PAU342@@Z ; std::list<IMessageObserver *,std::allocator<IMessageObserver *> >::_Prevnode
  00055	83 c4 04	 add	 esp, 4
  00058	8b 4d fc	 mov	 ecx, DWORD PTR _this$[ebp]
  0005b	8b 51 04	 mov	 edx, DWORD PTR [ecx+4]
  0005e	89 10		 mov	 DWORD PTR [eax], edx

; 615  : 		_Mysize = 0;

  00060	8b 45 fc	 mov	 eax, DWORD PTR _this$[ebp]
  00063	c7 40 08 00 00
	00 00		 mov	 DWORD PTR [eax+8], 0

; 616  : 
; 617  : 		for (; _Pnode != _Myhead; _Pnode = _Pnext)

  0006a	eb 06		 jmp	 SHORT $L192257
$L192258:
  0006c	8b 4d f8	 mov	 ecx, DWORD PTR __Pnext$[ebp]
  0006f	89 4d f4	 mov	 DWORD PTR __Pnode$[ebp], ecx
$L192257:
  00072	8b 55 fc	 mov	 edx, DWORD PTR _this$[ebp]
  00075	8b 45 f4	 mov	 eax, DWORD PTR __Pnode$[ebp]
  00078	3b 42 04	 cmp	 eax, DWORD PTR [edx+4]
  0007b	74 2d		 je	 SHORT $L192254

; 618  : 			{	// delete an element
; 619  : 			_Pnext = _Nextnode(_Pnode);

  0007d	8b 4d f4	 mov	 ecx, DWORD PTR __Pnode$[ebp]
  00080	51		 push	 ecx
  00081	e8 00 00 00 00	 call	 ?_Nextnode@?$list@PAVIMessageObserver@@V?$allocator@PAVIMessageObserver@@@std@@@std@@KAAAPAU_Node@?$_List_nod@PAVIMessageObserver@@V?$allocator@PAVIMessageObserver@@@std@@@2@PAU342@@Z ; std::list<IMessageObserver *,std::allocator<IMessageObserver *> >::_Nextnode
  00086	83 c4 04	 add	 esp, 4
  00089	8b 10		 mov	 edx, DWORD PTR [eax]
  0008b	89 55 f8	 mov	 DWORD PTR __Pnext$[ebp], edx

; 620  : 			this->_Alnod.destroy(_Pnode);

  0008e	8b 45 f4	 mov	 eax, DWORD PTR __Pnode$[ebp]
  00091	50		 push	 eax
  00092	8b 4d fc	 mov	 ecx, DWORD PTR _this$[ebp]
  00095	e8 00 00 00 00	 call	 ?destroy@?$allocator@U_Node@?$_List_nod@PAVIMessageObserver@@V?$allocator@PAVIMessageObserver@@@std@@@std@@@std@@QAEXPAU_Node@?$_List_nod@PAVIMessageObserver@@V?$allocator@PAVIMessageObserver@@@std@@@2@@Z ; std::allocator<std::_List_nod<IMessageObserver *,std::allocator<IMessageObserver *> >::_Node>::destroy

; 621  : 			this->_Alnod.deallocate(_Pnode, 1);

  0009a	6a 01		 push	 1
  0009c	8b 4d f4	 mov	 ecx, DWORD PTR __Pnode$[ebp]
  0009f	51		 push	 ecx
  000a0	8b 4d fc	 mov	 ecx, DWORD PTR _this$[ebp]
  000a3	e8 00 00 00 00	 call	 ?deallocate@?$allocator@U_Node@?$_List_nod@PAVIMessageObserver@@V?$allocator@PAVIMessageObserver@@@std@@@std@@@std@@QAEXPAU_Node@?$_List_nod@PAVIMessageObserver@@V?$allocator@PAVIMessageObserver@@@std@@@2@I@Z ; std::allocator<std::_List_nod<IMessageObserver *,std::allocator<IMessageObserver *> >::_Node>::deallocate

; 622  : 			}

  000a8	eb c2		 jmp	 SHORT $L192258
$L192254:

; 623  : 		}

  000aa	83 c4 0c	 add	 esp, 12			; 0000000cH
  000ad	3b ec		 cmp	 ebp, esp
  000af	e8 00 00 00 00	 call	 __RTC_CheckEsp
  000b4	8b e5		 mov	 esp, ebp
  000b6	5d		 pop	 ebp
  000b7	c3		 ret	 0
?clear@?$list@PAVIMessageObserver@@V?$allocator@PAVIMessageObserver@@@std@@@std@@QAEXXZ ENDP ; std::list<IMessageObserver *,std::allocator<IMessageObserver *> >::clear
_TEXT	ENDS
PUBLIC	??$?0PAVIMessageObserver@@@?$allocator@PAU_Node@?$_List_nod@PAVIMessageObserver@@V?$allocator@PAVIMessageObserver@@@std@@@std@@@std@@QAE@ABV?$allocator@PAVIMessageObserver@@@1@@Z ; std::allocator<std::_List_nod<IMessageObserver *,std::allocator<IMessageObserver *> >::_Node *>::allocator<std::_List_nod<IMessageObserver *,std::allocator<IMessageObserver *> >::_Node *><IMessageObserver *>
PUBLIC	??0?$_List_nod@PAVIMessageObserver@@V?$allocator@PAVIMessageObserver@@@std@@@std@@IAE@V?$allocator@PAVIMessageObserver@@@1@@Z ; std::_List_nod<IMessageObserver *,std::allocator<IMessageObserver *> >::_List_nod<IMessageObserver *,std::allocator<IMessageObserver *> >
; Function compile flags: /Odt /RTCsu
;	COMDAT ??0?$_List_ptr@PAVIMessageObserver@@V?$allocator@PAVIMessageObserver@@@std@@@std@@IAE@V?$allocator@PAVIMessageObserver@@@1@@Z
_TEXT	SEGMENT
_this$ = -4						; size = 4
__Al$ = 8						; size = 1
??0?$_List_ptr@PAVIMessageObserver@@V?$allocator@PAVIMessageObserver@@@std@@@std@@IAE@V?$allocator@PAVIMessageObserver@@@1@@Z PROC NEAR ; std::_List_ptr<IMessageObserver *,std::allocator<IMessageObserver *> >::_List_ptr<IMessageObserver *,std::allocator<IMessageObserver *> >, COMDAT
; _this$ = ecx

; 64   : 		{	// construct base, and allocator from _Al

  00000	55		 push	 ebp
  00001	8b ec		 mov	 ebp, esp
  00003	83 ec 08	 sub	 esp, 8
  00006	c7 45 f8 cc cc
	cc cc		 mov	 DWORD PTR [ebp-8], -858993460 ; ccccccccH
  0000d	c7 45 fc cc cc
	cc cc		 mov	 DWORD PTR [ebp-4], -858993460 ; ccccccccH
  00014	89 4d fc	 mov	 DWORD PTR _this$[ebp], ecx
  00017	51		 push	 ecx
  00018	8b cc		 mov	 ecx, esp
  0001a	8d 45 08	 lea	 eax, DWORD PTR __Al$[ebp]
  0001d	50		 push	 eax
  0001e	e8 00 00 00 00	 call	 ??0?$allocator@PAVIMessageObserver@@@std@@QAE@ABV01@@Z ; std::allocator<IMessageObserver *>::allocator<IMessageObserver *>
  00023	8b 4d fc	 mov	 ecx, DWORD PTR _this$[ebp]
  00026	e8 00 00 00 00	 call	 ??0?$_List_nod@PAVIMessageObserver@@V?$allocator@PAVIMessageObserver@@@std@@@std@@IAE@V?$allocator@PAVIMessageObserver@@@1@@Z ; std::_List_nod<IMessageObserver *,std::allocator<IMessageObserver *> >::_List_nod<IMessageObserver *,std::allocator<IMessageObserver *> >
  0002b	8d 4d 08	 lea	 ecx, DWORD PTR __Al$[ebp]
  0002e	51		 push	 ecx
  0002f	8b 4d fc	 mov	 ecx, DWORD PTR _this$[ebp]
  00032	83 c1 01	 add	 ecx, 1
  00035	e8 00 00 00 00	 call	 ??$?0PAVIMessageObserver@@@?$allocator@PAU_Node@?$_List_nod@PAVIMessageObserver@@V?$allocator@PAVIMessageObserver@@@std@@@std@@@std@@QAE@ABV?$allocator@PAVIMessageObserver@@@1@@Z ; std::allocator<std::_List_nod<IMessageObserver *,std::allocator<IMessageObserver *> >::_Node *>::allocator<std::_List_nod<IMessageObserver *,std::allocator<IMessageObserver *> >::_Node *><IMessageObserver *>

; 65   : 		}

  0003a	8b 45 fc	 mov	 eax, DWORD PTR _this$[ebp]
  0003d	83 c4 08	 add	 esp, 8
  00040	3b ec		 cmp	 ebp, esp
  00042	e8 00 00 00 00	 call	 __RTC_CheckEsp
  00047	8b e5		 mov	 esp, ebp
  00049	5d		 pop	 ebp
  0004a	c2 04 00	 ret	 4
??0?$_List_ptr@PAVIMessageObserver@@V?$allocator@PAVIMessageObserver@@@std@@@std@@IAE@V?$allocator@PAVIMessageObserver@@@1@@Z ENDP ; std::_List_ptr<IMessageObserver *,std::allocator<IMessageObserver *> >::_List_ptr<IMessageObserver *,std::allocator<IMessageObserver *> >
; Function compile flags: /Odt /RTCsu
; File d:\program files (x86)\microsoft visual studio .net 2003\vc7\include\xmemory
_TEXT	ENDS
;	COMDAT ??0?$allocator@PAVIMessageObserver@@@std@@QAE@ABV01@@Z
_TEXT	SEGMENT
_this$ = -4						; size = 4
___formal$ = 8						; size = 4
??0?$allocator@PAVIMessageObserver@@@std@@QAE@ABV01@@Z PROC NEAR ; std::allocator<IMessageObserver *>::allocator<IMessageObserver *>, COMDAT
; _this$ = ecx

; 115  : 	allocator(const allocator<_Ty>&)

  00000	55		 push	 ebp
  00001	8b ec		 mov	 ebp, esp
  00003	51		 push	 ecx
  00004	c7 45 fc cc cc
	cc cc		 mov	 DWORD PTR [ebp-4], -858993460 ; ccccccccH
  0000b	89 4d fc	 mov	 DWORD PTR _this$[ebp], ecx

; 116  : 		{	// construct by copying (do nothing)
; 117  : 		}

  0000e	8b 45 fc	 mov	 eax, DWORD PTR _this$[ebp]
  00011	8b e5		 mov	 esp, ebp
  00013	5d		 pop	 ebp
  00014	c2 04 00	 ret	 4
??0?$allocator@PAVIMessageObserver@@@std@@QAE@ABV01@@Z ENDP ; std::allocator<IMessageObserver *>::allocator<IMessageObserver *>
; Function compile flags: /Odt /RTCsu
_TEXT	ENDS
;	COMDAT ?deallocate@?$allocator@U_Node@?$_List_nod@PAVIMessageObserver@@V?$allocator@PAVIMessageObserver@@@std@@@std@@@std@@QAEXPAU_Node@?$_List_nod@PAVIMessageObserver@@V?$allocator@PAVIMessageObserver@@@std@@@2@I@Z
_TEXT	SEGMENT
_this$ = -4						; size = 4
__Ptr$ = 8						; size = 4
___formal$ = 12						; size = 4
?deallocate@?$allocator@U_Node@?$_List_nod@PAVIMessageObserver@@V?$allocator@PAVIMessageObserver@@@std@@@std@@@std@@QAEXPAU_Node@?$_List_nod@PAVIMessageObserver@@V?$allocator@PAVIMessageObserver@@@std@@@2@I@Z PROC NEAR ; std::allocator<std::_List_nod<IMessageObserver *,std::allocator<IMessageObserver *> >::_Node>::deallocate, COMDAT
; _this$ = ecx

; 131  : 		{	// deallocate object at _Ptr, ignore size

  00000	55		 push	 ebp
  00001	8b ec		 mov	 ebp, esp
  00003	51		 push	 ecx
  00004	c7 45 fc cc cc
	cc cc		 mov	 DWORD PTR [ebp-4], -858993460 ; ccccccccH
  0000b	89 4d fc	 mov	 DWORD PTR _this$[ebp], ecx

; 132  : 		operator delete(_Ptr);

  0000e	8b 45 08	 mov	 eax, DWORD PTR __Ptr$[ebp]
  00011	50		 push	 eax
  00012	e8 00 00 00 00	 call	 ??3@YAXPAX@Z		; operator delete
  00017	83 c4 04	 add	 esp, 4

; 133  : 		}

  0001a	83 c4 04	 add	 esp, 4
  0001d	3b ec		 cmp	 ebp, esp
  0001f	e8 00 00 00 00	 call	 __RTC_CheckEsp
  00024	8b e5		 mov	 esp, ebp
  00026	5d		 pop	 ebp
  00027	c2 08 00	 ret	 8
?deallocate@?$allocator@U_Node@?$_List_nod@PAVIMessageObserver@@V?$allocator@PAVIMessageObserver@@@std@@@std@@@std@@QAEXPAU_Node@?$_List_nod@PAVIMessageObserver@@V?$allocator@PAVIMessageObserver@@@std@@@2@I@Z ENDP ; std::allocator<std::_List_nod<IMessageObserver *,std::allocator<IMessageObserver *> >::_Node>::deallocate
_TEXT	ENDS
PUBLIC	??$_Allocate@U_Node@?$_List_nod@PAVIMessageObserver@@V?$allocator@PAVIMessageObserver@@@std@@@std@@@std@@YAPAU_Node@?$_List_nod@PAVIMessageObserver@@V?$allocator@PAVIMessageObserver@@@std@@@0@IPAU120@@Z ; std::_Allocate<std::_List_nod<IMessageObserver *,std::allocator<IMessageObserver *> >::_Node>
; Function compile flags: /Odt /RTCsu
;	COMDAT ?allocate@?$allocator@U_Node@?$_List_nod@PAVIMessageObserver@@V?$allocator@PAVIMessageObserver@@@std@@@std@@@std@@QAEPAU_Node@?$_List_nod@PAVIMessageObserver@@V?$allocator@PAVIMessageObserver@@@std@@@2@I@Z
_TEXT	SEGMENT
_this$ = -4						; size = 4
__Count$ = 8						; size = 4
?allocate@?$allocator@U_Node@?$_List_nod@PAVIMessageObserver@@V?$allocator@PAVIMessageObserver@@@std@@@std@@@std@@QAEPAU_Node@?$_List_nod@PAVIMessageObserver@@V?$allocator@PAVIMessageObserver@@@std@@@2@I@Z PROC NEAR ; std::allocator<std::_List_nod<IMessageObserver *,std::allocator<IMessageObserver *> >::_Node>::allocate, COMDAT
; _this$ = ecx

; 136  : 		{	// allocate array of _Count elements

  00000	55		 push	 ebp
  00001	8b ec		 mov	 ebp, esp
  00003	51		 push	 ecx
  00004	c7 45 fc cc cc
	cc cc		 mov	 DWORD PTR [ebp-4], -858993460 ; ccccccccH
  0000b	89 4d fc	 mov	 DWORD PTR _this$[ebp], ecx

; 137  : 		return (_Allocate(_Count, (pointer)0));

  0000e	6a 00		 push	 0
  00010	8b 45 08	 mov	 eax, DWORD PTR __Count$[ebp]
  00013	50		 push	 eax
  00014	e8 00 00 00 00	 call	 ??$_Allocate@U_Node@?$_List_nod@PAVIMessageObserver@@V?$allocator@PAVIMessageObserver@@@std@@@std@@@std@@YAPAU_Node@?$_List_nod@PAVIMessageObserver@@V?$allocator@PAVIMessageObserver@@@std@@@0@IPAU120@@Z ; std::_Allocate<std::_List_nod<IMessageObserver *,std::allocator<IMessageObserver *> >::_Node>
  00019	83 c4 08	 add	 esp, 8

; 138  : 		}

  0001c	83 c4 04	 add	 esp, 4
  0001f	3b ec		 cmp	 ebp, esp
  00021	e8 00 00 00 00	 call	 __RTC_CheckEsp
  00026	8b e5		 mov	 esp, ebp
  00028	5d		 pop	 ebp
  00029	c2 04 00	 ret	 4
?allocate@?$allocator@U_Node@?$_List_nod@PAVIMessageObserver@@V?$allocator@PAVIMessageObserver@@@std@@@std@@@std@@QAEPAU_Node@?$_List_nod@PAVIMessageObserver@@V?$allocator@PAVIMessageObserver@@@std@@@2@I@Z ENDP ; std::allocator<std::_List_nod<IMessageObserver *,std::allocator<IMessageObserver *> >::_Node>::allocate
_TEXT	ENDS
PUBLIC	??$_Construct@PAU_Node@?$_List_nod@PAVIMessageObserver@@V?$allocator@PAVIMessageObserver@@@std@@@std@@PAU123@@std@@YAXPAPAU_Node@?$_List_nod@PAVIMessageObserver@@V?$allocator@PAVIMessageObserver@@@std@@@0@ABQAU120@@Z ; std::_Construct<std::_List_nod<IMessageObserver *,std::allocator<IMessageObserver *> >::_Node *,std::_List_nod<IMessageObserver *,std::allocator<IMessageObserver *> >::_Node *>
; Function compile flags: /Odt /RTCsu
;	COMDAT ?construct@?$allocator@PAU_Node@?$_List_nod@PAVIMessageObserver@@V?$allocator@PAVIMessageObserver@@@std@@@std@@@std@@QAEXPAPAU_Node@?$_List_nod@PAVIMessageObserver@@V?$allocator@PAVIMessageObserver@@@std@@@2@ABQAU342@@Z
_TEXT	SEGMENT
_this$ = -4						; size = 4
__Ptr$ = 8						; size = 4
__Val$ = 12						; size = 4
?construct@?$allocator@PAU_Node@?$_List_nod@PAVIMessageObserver@@V?$allocator@PAVIMessageObserver@@@std@@@std@@@std@@QAEXPAPAU_Node@?$_List_nod@PAVIMessageObserver@@V?$allocator@PAVIMessageObserver@@@std@@@2@ABQAU342@@Z PROC NEAR ; std::allocator<std::_List_nod<IMessageObserver *,std::allocator<IMessageObserver *> >::_Node *>::construct, COMDAT
; _this$ = ecx

; 146  : 		{	// construct object at _Ptr with value _Val

  00000	55		 push	 ebp
  00001	8b ec		 mov	 ebp, esp
  00003	51		 push	 ecx
  00004	c7 45 fc cc cc
	cc cc		 mov	 DWORD PTR [ebp-4], -858993460 ; ccccccccH
  0000b	89 4d fc	 mov	 DWORD PTR _this$[ebp], ecx

; 147  : 		_Construct(_Ptr, _Val);

  0000e	8b 45 0c	 mov	 eax, DWORD PTR __Val$[ebp]
  00011	50		 push	 eax
  00012	8b 4d 08	 mov	 ecx, DWORD PTR __Ptr$[ebp]
  00015	51		 push	 ecx
  00016	e8 00 00 00 00	 call	 ??$_Construct@PAU_Node@?$_List_nod@PAVIMessageObserver@@V?$allocator@PAVIMessageObserver@@@std@@@std@@PAU123@@std@@YAXPAPAU_Node@?$_List_nod@PAVIMessageObserver@@V?$allocator@PAVIMessageObserver@@@std@@@0@ABQAU120@@Z ; std::_Construct<std::_List_nod<IMessageObserver *,std::allocator<IMessageObserver *> >::_Node *,std::_List_nod<IMessageObserver *,std::allocator<IMessageObserver *> >::_Node *>
  0001b	83 c4 08	 add	 esp, 8

; 148  : 		}

  0001e	83 c4 04	 add	 esp, 4
  00021	3b ec		 cmp	 ebp, esp
  00023	e8 00 00 00 00	 call	 __RTC_CheckEsp
  00028	8b e5		 mov	 esp, ebp
  0002a	5d		 pop	 ebp
  0002b	c2 08 00	 ret	 8
?construct@?$allocator@PAU_Node@?$_List_nod@PAVIMessageObserver@@V?$allocator@PAVIMessageObserver@@@std@@@std@@@std@@QAEXPAPAU_Node@?$_List_nod@PAVIMessageObserver@@V?$allocator@PAVIMessageObserver@@@std@@@2@ABQAU342@@Z ENDP ; std::allocator<std::_List_nod<IMessageObserver *,std::allocator<IMessageObserver *> >::_Node *>::construct
_TEXT	ENDS
PUBLIC	??$_Destroy@PAU_Node@?$_List_nod@PAVIMessageObserver@@V?$allocator@PAVIMessageObserver@@@std@@@std@@@std@@YAXPAPAU_Node@?$_List_nod@PAVIMessageObserver@@V?$allocator@PAVIMessageObserver@@@std@@@0@@Z ; std::_Destroy<std::_List_nod<IMessageObserver *,std::allocator<IMessageObserver *> >::_Node *>
; Function compile flags: /Odt /RTCsu
;	COMDAT ?destroy@?$allocator@PAU_Node@?$_List_nod@PAVIMessageObserver@@V?$allocator@PAVIMessageObserver@@@std@@@std@@@std@@QAEXPAPAU_Node@?$_List_nod@PAVIMessageObserver@@V?$allocator@PAVIMessageObserver@@@std@@@2@@Z
_TEXT	SEGMENT
_this$ = -4						; size = 4
__Ptr$ = 8						; size = 4
?destroy@?$allocator@PAU_Node@?$_List_nod@PAVIMessageObserver@@V?$allocator@PAVIMessageObserver@@@std@@@std@@@std@@QAEXPAPAU_Node@?$_List_nod@PAVIMessageObserver@@V?$allocator@PAVIMessageObserver@@@std@@@2@@Z PROC NEAR ; std::allocator<std::_List_nod<IMessageObserver *,std::allocator<IMessageObserver *> >::_Node *>::destroy, COMDAT
; _this$ = ecx

; 151  : 		{	// destroy object at _Ptr

  00000	55		 push	 ebp
  00001	8b ec		 mov	 ebp, esp
  00003	51		 push	 ecx
  00004	c7 45 fc cc cc
	cc cc		 mov	 DWORD PTR [ebp-4], -858993460 ; ccccccccH
  0000b	89 4d fc	 mov	 DWORD PTR _this$[ebp], ecx

; 152  : 		_Destroy(_Ptr);

  0000e	8b 45 08	 mov	 eax, DWORD PTR __Ptr$[ebp]
  00011	50		 push	 eax
  00012	e8 00 00 00 00	 call	 ??$_Destroy@PAU_Node@?$_List_nod@PAVIMessageObserver@@V?$allocator@PAVIMessageObserver@@@std@@@std@@@std@@YAXPAPAU_Node@?$_List_nod@PAVIMessageObserver@@V?$allocator@PAVIMessageObserver@@@std@@@0@@Z ; std::_Destroy<std::_List_nod<IMessageObserver *,std::allocator<IMessageObserver *> >::_Node *>
  00017	83 c4 04	 add	 esp, 4

; 153  : 		}

  0001a	83 c4 04	 add	 esp, 4
  0001d	3b ec		 cmp	 ebp, esp
  0001f	e8 00 00 00 00	 call	 __RTC_CheckEsp
  00024	8b e5		 mov	 esp, ebp
  00026	5d		 pop	 ebp
  00027	c2 04 00	 ret	 4
?destroy@?$allocator@PAU_Node@?$_List_nod@PAVIMessageObserver@@V?$allocator@PAVIMessageObserver@@@std@@@std@@@std@@QAEXPAPAU_Node@?$_List_nod@PAVIMessageObserver@@V?$allocator@PAVIMessageObserver@@@std@@@2@@Z ENDP ; std::allocator<std::_List_nod<IMessageObserver *,std::allocator<IMessageObserver *> >::_Node *>::destroy
; Function compile flags: /Odt /RTCsu
; File d:\program files (x86)\microsoft visual studio .net 2003\vc7\include\list
_TEXT	ENDS
;	COMDAT ??0const_iterator@?$list@PAVIMessageObserver@@V?$allocator@PAVIMessageObserver@@@std@@@std@@QAE@PAU_Node@?$_List_nod@PAVIMessageObserver@@V?$allocator@PAVIMessageObserver@@@std@@@2@@Z
_TEXT	SEGMENT
_this$ = -4						; size = 4
__Pnode$ = 8						; size = 4
??0const_iterator@?$list@PAVIMessageObserver@@V?$allocator@PAVIMessageObserver@@@std@@@std@@QAE@PAU_Node@?$_List_nod@PAVIMessageObserver@@V?$allocator@PAVIMessageObserver@@@std@@@2@@Z PROC NEAR ; std::list<IMessageObserver *,std::allocator<IMessageObserver *> >::const_iterator::const_iterator, COMDAT
; _this$ = ecx

; 156  : 			{	// construct with node pointer _Pnode

  00000	55		 push	 ebp
  00001	8b ec		 mov	 ebp, esp
  00003	51		 push	 ecx
  00004	c7 45 fc cc cc
	cc cc		 mov	 DWORD PTR [ebp-4], -858993460 ; ccccccccH
  0000b	89 4d fc	 mov	 DWORD PTR _this$[ebp], ecx
  0000e	8b 45 fc	 mov	 eax, DWORD PTR _this$[ebp]
  00011	8b 4d 08	 mov	 ecx, DWORD PTR __Pnode$[ebp]
  00014	89 08		 mov	 DWORD PTR [eax], ecx

; 157  : 			}

  00016	8b 45 fc	 mov	 eax, DWORD PTR _this$[ebp]
  00019	8b e5		 mov	 esp, ebp
  0001b	5d		 pop	 ebp
  0001c	c2 04 00	 ret	 4
??0const_iterator@?$list@PAVIMessageObserver@@V?$allocator@PAVIMessageObserver@@@std@@@std@@QAE@PAU_Node@?$_List_nod@PAVIMessageObserver@@V?$allocator@PAVIMessageObserver@@@std@@@2@@Z ENDP ; std::list<IMessageObserver *,std::allocator<IMessageObserver *> >::const_iterator::const_iterator
; Function compile flags: /Odt /RTCsu
_TEXT	ENDS
;	COMDAT ??Econst_iterator@?$list@PAVIMessageObserver@@V?$allocator@PAVIMessageObserver@@@std@@@std@@QAEAAV012@XZ
_TEXT	SEGMENT
_this$ = -4						; size = 4
??Econst_iterator@?$list@PAVIMessageObserver@@V?$allocator@PAVIMessageObserver@@@std@@@std@@QAEAAV012@XZ PROC NEAR ; std::list<IMessageObserver *,std::allocator<IMessageObserver *> >::const_iterator::operator++, COMDAT
; _this$ = ecx

; 170  : 			{	// preincrement

  00000	55		 push	 ebp
  00001	8b ec		 mov	 ebp, esp
  00003	51		 push	 ecx
  00004	c7 45 fc cc cc
	cc cc		 mov	 DWORD PTR [ebp-4], -858993460 ; ccccccccH
  0000b	89 4d fc	 mov	 DWORD PTR _this$[ebp], ecx

; 171  : 			_Ptr = _Nextnode(_Ptr);

  0000e	8b 45 fc	 mov	 eax, DWORD PTR _this$[ebp]
  00011	8b 08		 mov	 ecx, DWORD PTR [eax]
  00013	51		 push	 ecx
  00014	e8 00 00 00 00	 call	 ?_Nextnode@?$list@PAVIMessageObserver@@V?$allocator@PAVIMessageObserver@@@std@@@std@@KAAAPAU_Node@?$_List_nod@PAVIMessageObserver@@V?$allocator@PAVIMessageObserver@@@std@@@2@PAU342@@Z ; std::list<IMessageObserver *,std::allocator<IMessageObserver *> >::_Nextnode
  00019	83 c4 04	 add	 esp, 4
  0001c	8b 55 fc	 mov	 edx, DWORD PTR _this$[ebp]
  0001f	8b 00		 mov	 eax, DWORD PTR [eax]
  00021	89 02		 mov	 DWORD PTR [edx], eax

; 172  : 			return (*this);

  00023	8b 45 fc	 mov	 eax, DWORD PTR _this$[ebp]

; 173  : 			}

  00026	83 c4 04	 add	 esp, 4
  00029	3b ec		 cmp	 ebp, esp
  0002b	e8 00 00 00 00	 call	 __RTC_CheckEsp
  00030	8b e5		 mov	 esp, ebp
  00032	5d		 pop	 ebp
  00033	c3		 ret	 0
??Econst_iterator@?$list@PAVIMessageObserver@@V?$allocator@PAVIMessageObserver@@@std@@@std@@QAEAAV012@XZ ENDP ; std::list<IMessageObserver *,std::allocator<IMessageObserver *> >::const_iterator::operator++
_TEXT	ENDS
PUBLIC	??_R1A@?0A@A@exception@@8			; exception::`RTTI Base Class Descriptor at (0,-1,0,0)'
PUBLIC	??_R1A@?0A@A@logic_error@std@@8			; std::logic_error::`RTTI Base Class Descriptor at (0,-1,0,0)'
PUBLIC	??_R4length_error@std@@6B@			; std::length_error::`RTTI Complete Object Locator'
PUBLIC	??_R3length_error@std@@8			; std::length_error::`RTTI Class Hierarchy Descriptor'
PUBLIC	??_R2length_error@std@@8			; std::length_error::`RTTI Base Class Array'
PUBLIC	??_R1A@?0A@A@length_error@std@@8		; std::length_error::`RTTI Base Class Descriptor at (0,-1,0,0)'
PUBLIC	?what@logic_error@std@@UBEPBDXZ			; std::logic_error::what
PUBLIC	??_7length_error@std@@6B@			; std::length_error::`vftable'
PUBLIC	??_Glength_error@std@@UAEPAXI@Z			; std::length_error::`scalar deleting destructor'
EXTRN	??_Elength_error@std@@UAEPAXI@Z:NEAR		; std::length_error::`vector deleting destructor'
;	COMDAT ??_7length_error@std@@6B@
CONST	SEGMENT
??_7length_error@std@@6B@ DD FLAT:??_R4length_error@std@@6B@ ; std::length_error::`vftable'
	DD	FLAT:??_Elength_error@std@@UAEPAXI@Z
	DD	FLAT:?what@logic_error@std@@UBEPBDXZ
CONST	ENDS
;	COMDAT ??_R4length_error@std@@6B@
rdata$r	SEGMENT
??_R4length_error@std@@6B@ DD 00H			; std::length_error::`RTTI Complete Object Locator'
	DD	00H
	DD	00H
	DD	FLAT:??_R0?AVlength_error@std@@@8
	DD	FLAT:??_R3length_error@std@@8
rdata$r	ENDS
;	COMDAT ??_R3length_error@std@@8
rdata$r	SEGMENT
??_R3length_error@std@@8 DD 00H				; std::length_error::`RTTI Class Hierarchy Descriptor'
	DD	00H
	DD	03H
	DD	FLAT:??_R2length_error@std@@8
rdata$r	ENDS
;	COMDAT ??_R2length_error@std@@8
rdata$r	SEGMENT
??_R2length_error@std@@8 DD FLAT:??_R1A@?0A@A@length_error@std@@8 ; std::length_error::`RTTI Base Class Array'
	DD	FLAT:??_R1A@?0A@A@logic_error@std@@8
	DD	FLAT:??_R1A@?0A@A@exception@@8
rdata$r	ENDS
;	COMDAT ??_R1A@?0A@A@length_error@std@@8
rdata$r	SEGMENT
??_R1A@?0A@A@length_error@std@@8 DD FLAT:??_R0?AVlength_error@std@@@8 ; std::length_error::`RTTI Base Class Descriptor at (0,-1,0,0)'
	DD	02H
	DD	00H
	DD	0ffffffffH
	DD	00H
	DD	00H
rdata$r	ENDS
;	COMDAT ??_R1A@?0A@A@logic_error@std@@8
rdata$r	SEGMENT
??_R1A@?0A@A@logic_error@std@@8 DD FLAT:??_R0?AVlogic_error@std@@@8 ; std::logic_error::`RTTI Base Class Descriptor at (0,-1,0,0)'
	DD	01H
	DD	00H
	DD	0ffffffffH
	DD	00H
	DD	00H
rdata$r	ENDS
;	COMDAT ??_R1A@?0A@A@exception@@8
rdata$r	SEGMENT
??_R1A@?0A@A@exception@@8 DD FLAT:??_R0?AVexception@@@8	; exception::`RTTI Base Class Descriptor at (0,-1,0,0)'
	DD	00H
	DD	00H
	DD	0ffffffffH
	DD	00H
	DD	00H
; Function compile flags: /Odt /RTCsu
rdata$r	ENDS
;	COMDAT ??0length_error@std@@QAE@ABV01@@Z
_TEXT	SEGMENT
_this$ = -4						; size = 4
___that$ = 8						; size = 4
??0length_error@std@@QAE@ABV01@@Z PROC NEAR		; std::length_error::length_error, COMDAT
; _this$ = ecx
  00000	55		 push	 ebp
  00001	8b ec		 mov	 ebp, esp
  00003	51		 push	 ecx
  00004	c7 45 fc cc cc
	cc cc		 mov	 DWORD PTR [ebp-4], -858993460 ; ccccccccH
  0000b	89 4d fc	 mov	 DWORD PTR _this$[ebp], ecx
  0000e	8b 45 08	 mov	 eax, DWORD PTR ___that$[ebp]
  00011	50		 push	 eax
  00012	8b 4d fc	 mov	 ecx, DWORD PTR _this$[ebp]
  00015	e8 00 00 00 00	 call	 ??0logic_error@std@@QAE@ABV01@@Z
  0001a	8b 4d fc	 mov	 ecx, DWORD PTR _this$[ebp]
  0001d	c7 01 00 00 00
	00		 mov	 DWORD PTR [ecx], OFFSET FLAT:??_7length_error@std@@6B@
  00023	8b 45 fc	 mov	 eax, DWORD PTR _this$[ebp]
  00026	83 c4 04	 add	 esp, 4
  00029	3b ec		 cmp	 ebp, esp
  0002b	e8 00 00 00 00	 call	 __RTC_CheckEsp
  00030	8b e5		 mov	 esp, ebp
  00032	5d		 pop	 ebp
  00033	c2 04 00	 ret	 4
??0length_error@std@@QAE@ABV01@@Z ENDP			; std::length_error::length_error
; Function compile flags: /Odt /RTCsu
; File d:\program files (x86)\microsoft visual studio .net 2003\vc7\include\xmemory
_TEXT	ENDS
;	COMDAT ?max_size@?$allocator@UTAB_ITEM@@@std@@QBEIXZ
_TEXT	SEGMENT
tv65 = -12						; size = 4
__Count$ = -8						; size = 4
_this$ = -4						; size = 4
?max_size@?$allocator@UTAB_ITEM@@@std@@QBEIXZ PROC NEAR	; std::allocator<TAB_ITEM>::max_size, COMDAT
; _this$ = ecx

; 156  : 		{	// estimate maximum array size

  00000	55		 push	 ebp
  00001	8b ec		 mov	 ebp, esp
  00003	83 ec 0c	 sub	 esp, 12			; 0000000cH
  00006	c7 45 f4 cc cc
	cc cc		 mov	 DWORD PTR [ebp-12], -858993460 ; ccccccccH
  0000d	c7 45 f8 cc cc
	cc cc		 mov	 DWORD PTR [ebp-8], -858993460 ; ccccccccH
  00014	c7 45 fc cc cc
	cc cc		 mov	 DWORD PTR [ebp-4], -858993460 ; ccccccccH
  0001b	89 4d fc	 mov	 DWORD PTR _this$[ebp], ecx

; 157  : 		_SIZT _Count = (_SIZT)(-1) / sizeof (_Ty);

  0001e	c7 45 f8 44 44
	44 04		 mov	 DWORD PTR __Count$[ebp], 71582788 ; 04444444H

; 158  : 		return (0 < _Count ? _Count : 1);

  00025	83 7d f8 00	 cmp	 DWORD PTR __Count$[ebp], 0
  00029	76 08		 jbe	 SHORT $L193715
  0002b	8b 45 f8	 mov	 eax, DWORD PTR __Count$[ebp]
  0002e	89 45 f4	 mov	 DWORD PTR tv65[ebp], eax
  00031	eb 07		 jmp	 SHORT $L193716
$L193715:
  00033	c7 45 f4 01 00
	00 00		 mov	 DWORD PTR tv65[ebp], 1
$L193716:
  0003a	8b 45 f4	 mov	 eax, DWORD PTR tv65[ebp]

; 159  : 		}

  0003d	8b e5		 mov	 esp, ebp
  0003f	5d		 pop	 ebp
  00040	c3		 ret	 0
?max_size@?$allocator@UTAB_ITEM@@@std@@QBEIXZ ENDP	; std::allocator<TAB_ITEM>::max_size
_TEXT	ENDS
PUBLIC	??$?0PAVIMessageObserver@@@?$allocator@U_Node@?$_List_nod@PAVIMessageObserver@@V?$allocator@PAVIMessageObserver@@@std@@@std@@@std@@QAE@ABV?$allocator@PAVIMessageObserver@@@1@@Z ; std::allocator<std::_List_nod<IMessageObserver *,std::allocator<IMessageObserver *> >::_Node>::allocator<std::_List_nod<IMessageObserver *,std::allocator<IMessageObserver *> >::_Node><IMessageObserver *>
; Function compile flags: /Odt /RTCsu
; File d:\program files (x86)\microsoft visual studio .net 2003\vc7\include\list
;	COMDAT ??0?$_List_nod@PAVIMessageObserver@@V?$allocator@PAVIMessageObserver@@@std@@@std@@IAE@V?$allocator@PAVIMessageObserver@@@1@@Z
_TEXT	SEGMENT
_this$ = -4						; size = 4
__Al$ = 8						; size = 1
??0?$_List_nod@PAVIMessageObserver@@V?$allocator@PAVIMessageObserver@@@std@@@std@@IAE@V?$allocator@PAVIMessageObserver@@@1@@Z PROC NEAR ; std::_List_nod<IMessageObserver *,std::allocator<IMessageObserver *> >::_List_nod<IMessageObserver *,std::allocator<IMessageObserver *> >, COMDAT
; _this$ = ecx

; 44   : 		{	// construct allocator from _Al

  00000	55		 push	 ebp
  00001	8b ec		 mov	 ebp, esp
  00003	51		 push	 ecx
  00004	c7 45 fc cc cc
	cc cc		 mov	 DWORD PTR [ebp-4], -858993460 ; ccccccccH
  0000b	89 4d fc	 mov	 DWORD PTR _this$[ebp], ecx
  0000e	8d 45 08	 lea	 eax, DWORD PTR __Al$[ebp]
  00011	50		 push	 eax
  00012	8b 4d fc	 mov	 ecx, DWORD PTR _this$[ebp]
  00015	e8 00 00 00 00	 call	 ??$?0PAVIMessageObserver@@@?$allocator@U_Node@?$_List_nod@PAVIMessageObserver@@V?$allocator@PAVIMessageObserver@@@std@@@std@@@std@@QAE@ABV?$allocator@PAVIMessageObserver@@@1@@Z ; std::allocator<std::_List_nod<IMessageObserver *,std::allocator<IMessageObserver *> >::_Node>::allocator<std::_List_nod<IMessageObserver *,std::allocator<IMessageObserver *> >::_Node><IMessageObserver *>

; 45   : 		}

  0001a	8b 45 fc	 mov	 eax, DWORD PTR _this$[ebp]
  0001d	83 c4 04	 add	 esp, 4
  00020	3b ec		 cmp	 ebp, esp
  00022	e8 00 00 00 00	 call	 __RTC_CheckEsp
  00027	8b e5		 mov	 esp, ebp
  00029	5d		 pop	 ebp
  0002a	c2 04 00	 ret	 4
??0?$_List_nod@PAVIMessageObserver@@V?$allocator@PAVIMessageObserver@@@std@@@std@@IAE@V?$allocator@PAVIMessageObserver@@@1@@Z ENDP ; std::_List_nod<IMessageObserver *,std::allocator<IMessageObserver *> >::_List_nod<IMessageObserver *,std::allocator<IMessageObserver *> >
_TEXT	ENDS
PUBLIC	??$_Destroy@U_Node@?$_List_nod@PAVIMessageObserver@@V?$allocator@PAVIMessageObserver@@@std@@@std@@@std@@YAXPAU_Node@?$_List_nod@PAVIMessageObserver@@V?$allocator@PAVIMessageObserver@@@std@@@0@@Z ; std::_Destroy<std::_List_nod<IMessageObserver *,std::allocator<IMessageObserver *> >::_Node>
; Function compile flags: /Odt /RTCsu
; File d:\program files (x86)\microsoft visual studio .net 2003\vc7\include\xmemory
;	COMDAT ?destroy@?$allocator@U_Node@?$_List_nod@PAVIMessageObserver@@V?$allocator@PAVIMessageObserver@@@std@@@std@@@std@@QAEXPAU_Node@?$_List_nod@PAVIMessageObserver@@V?$allocator@PAVIMessageObserver@@@std@@@2@@Z
_TEXT	SEGMENT
_this$ = -4						; size = 4
__Ptr$ = 8						; size = 4
?destroy@?$allocator@U_Node@?$_List_nod@PAVIMessageObserver@@V?$allocator@PAVIMessageObserver@@@std@@@std@@@std@@QAEXPAU_Node@?$_List_nod@PAVIMessageObserver@@V?$allocator@PAVIMessageObserver@@@std@@@2@@Z PROC NEAR ; std::allocator<std::_List_nod<IMessageObserver *,std::allocator<IMessageObserver *> >::_Node>::destroy, COMDAT
; _this$ = ecx

; 151  : 		{	// destroy object at _Ptr

  00000	55		 push	 ebp
  00001	8b ec		 mov	 ebp, esp
  00003	51		 push	 ecx
  00004	c7 45 fc cc cc
	cc cc		 mov	 DWORD PTR [ebp-4], -858993460 ; ccccccccH
  0000b	89 4d fc	 mov	 DWORD PTR _this$[ebp], ecx

; 152  : 		_Destroy(_Ptr);

  0000e	8b 45 08	 mov	 eax, DWORD PTR __Ptr$[ebp]
  00011	50		 push	 eax
  00012	e8 00 00 00 00	 call	 ??$_Destroy@U_Node@?$_List_nod@PAVIMessageObserver@@V?$allocator@PAVIMessageObserver@@@std@@@std@@@std@@YAXPAU_Node@?$_List_nod@PAVIMessageObserver@@V?$allocator@PAVIMessageObserver@@@std@@@0@@Z ; std::_Destroy<std::_List_nod<IMessageObserver *,std::allocator<IMessageObserver *> >::_Node>
  00017	83 c4 04	 add	 esp, 4

; 153  : 		}

  0001a	83 c4 04	 add	 esp, 4
  0001d	3b ec		 cmp	 ebp, esp
  0001f	e8 00 00 00 00	 call	 __RTC_CheckEsp
  00024	8b e5		 mov	 esp, ebp
  00026	5d		 pop	 ebp
  00027	c2 04 00	 ret	 4
?destroy@?$allocator@U_Node@?$_List_nod@PAVIMessageObserver@@V?$allocator@PAVIMessageObserver@@@std@@@std@@@std@@QAEXPAU_Node@?$_List_nod@PAVIMessageObserver@@V?$allocator@PAVIMessageObserver@@@std@@@2@@Z ENDP ; std::allocator<std::_List_nod<IMessageObserver *,std::allocator<IMessageObserver *> >::_Node>::destroy
_TEXT	ENDS
PUBLIC	??$_Ptr_cat@PAUTAB_ITEM@@PAU1@@std@@YA?AU_Nonscalar_ptr_iterator_tag@0@AAPAUTAB_ITEM@@0@Z ; std::_Ptr_cat<TAB_ITEM *,TAB_ITEM *>
PUBLIC	??$_Destroy_range@UTAB_ITEM@@V?$allocator@UTAB_ITEM@@@std@@@std@@YAXPAUTAB_ITEM@@0AAV?$allocator@UTAB_ITEM@@@0@U_Nonscalar_ptr_iterator_tag@0@@Z ; std::_Destroy_range<TAB_ITEM,std::allocator<TAB_ITEM> >
; Function compile flags: /Odt /RTCsu
;	COMDAT ??$_Destroy_range@UTAB_ITEM@@V?$allocator@UTAB_ITEM@@@std@@@std@@YAXPAUTAB_ITEM@@0AAV?$allocator@UTAB_ITEM@@@0@@Z
_TEXT	SEGMENT
$T193720 = -1						; size = 1
__First$ = 8						; size = 4
__Last$ = 12						; size = 4
__Al$ = 16						; size = 4
??$_Destroy_range@UTAB_ITEM@@V?$allocator@UTAB_ITEM@@@std@@@std@@YAXPAUTAB_ITEM@@0AAV?$allocator@UTAB_ITEM@@@0@@Z PROC NEAR ; std::_Destroy_range<TAB_ITEM,std::allocator<TAB_ITEM> >, COMDAT

; 216  : 	{	// destroy [_First, _Last)

  00000	55		 push	 ebp
  00001	8b ec		 mov	 ebp, esp
  00003	51		 push	 ecx
  00004	c7 45 fc cc cc
	cc cc		 mov	 DWORD PTR [ebp-4], -858993460 ; ccccccccH

; 217  : 	_Destroy_range(_First, _Last, _Al, _Ptr_cat(_First, _Last));

  0000b	8d 45 0c	 lea	 eax, DWORD PTR __Last$[ebp]
  0000e	50		 push	 eax
  0000f	8d 4d 08	 lea	 ecx, DWORD PTR __First$[ebp]
  00012	51		 push	 ecx
  00013	e8 00 00 00 00	 call	 ??$_Ptr_cat@PAUTAB_ITEM@@PAU1@@std@@YA?AU_Nonscalar_ptr_iterator_tag@0@AAPAUTAB_ITEM@@0@Z ; std::_Ptr_cat<TAB_ITEM *,TAB_ITEM *>
  00018	83 c4 08	 add	 esp, 8
  0001b	88 45 ff	 mov	 BYTE PTR $T193720[ebp], al
  0001e	8a 55 ff	 mov	 dl, BYTE PTR $T193720[ebp]
  00021	52		 push	 edx
  00022	8b 45 10	 mov	 eax, DWORD PTR __Al$[ebp]
  00025	50		 push	 eax
  00026	8b 4d 0c	 mov	 ecx, DWORD PTR __Last$[ebp]
  00029	51		 push	 ecx
  0002a	8b 55 08	 mov	 edx, DWORD PTR __First$[ebp]
  0002d	52		 push	 edx
  0002e	e8 00 00 00 00	 call	 ??$_Destroy_range@UTAB_ITEM@@V?$allocator@UTAB_ITEM@@@std@@@std@@YAXPAUTAB_ITEM@@0AAV?$allocator@UTAB_ITEM@@@0@U_Nonscalar_ptr_iterator_tag@0@@Z ; std::_Destroy_range<TAB_ITEM,std::allocator<TAB_ITEM> >
  00033	83 c4 10	 add	 esp, 16			; 00000010H

; 218  : 	}

  00036	83 c4 04	 add	 esp, 4
  00039	3b ec		 cmp	 ebp, esp
  0003b	e8 00 00 00 00	 call	 __RTC_CheckEsp
  00040	8b e5		 mov	 esp, ebp
  00042	5d		 pop	 ebp
  00043	c3		 ret	 0
??$_Destroy_range@UTAB_ITEM@@V?$allocator@UTAB_ITEM@@@std@@@std@@YAXPAUTAB_ITEM@@0AAV?$allocator@UTAB_ITEM@@@0@@Z ENDP ; std::_Destroy_range<TAB_ITEM,std::allocator<TAB_ITEM> >
; Function compile flags: /Odt /RTCsu
_TEXT	ENDS
;	COMDAT ??$_Allocate@UTAB_ITEM@@@std@@YAPAUTAB_ITEM@@IPAU1@@Z
_TEXT	SEGMENT
__Count$ = 8						; size = 4
___formal$ = 12						; size = 4
??$_Allocate@UTAB_ITEM@@@std@@YAPAUTAB_ITEM@@IPAU1@@Z PROC NEAR ; std::_Allocate<TAB_ITEM>, COMDAT

; 33   : 	{	// allocate storage for _Count elements of type _Ty

  00000	55		 push	 ebp
  00001	8b ec		 mov	 ebp, esp

; 34   : 	return ((_Ty _FARQ *)operator new(_Count * sizeof (_Ty)));

  00003	8b 45 08	 mov	 eax, DWORD PTR __Count$[ebp]
  00006	6b c0 3c	 imul	 eax, 60			; 0000003cH
  00009	50		 push	 eax
  0000a	e8 00 00 00 00	 call	 ??2@YAPAXI@Z		; operator new
  0000f	83 c4 04	 add	 esp, 4

; 35   : 	}

  00012	3b ec		 cmp	 ebp, esp
  00014	e8 00 00 00 00	 call	 __RTC_CheckEsp
  00019	5d		 pop	 ebp
  0001a	c3		 ret	 0
??$_Allocate@UTAB_ITEM@@@std@@YAPAUTAB_ITEM@@IPAU1@@Z ENDP ; std::_Allocate<TAB_ITEM>
; Function compile flags: /Odt /RTCsu
_TEXT	ENDS
;	COMDAT ??$?0PAVIMessageObserver@@@?$allocator@PAU_Node@?$_List_nod@PAVIMessageObserver@@V?$allocator@PAVIMessageObserver@@@std@@@std@@@std@@QAE@ABV?$allocator@PAVIMessageObserver@@@1@@Z
_TEXT	SEGMENT
_this$ = -4						; size = 4
___formal$ = 8						; size = 4
??$?0PAVIMessageObserver@@@?$allocator@PAU_Node@?$_List_nod@PAVIMessageObserver@@V?$allocator@PAVIMessageObserver@@@std@@@std@@@std@@QAE@ABV?$allocator@PAVIMessageObserver@@@1@@Z PROC NEAR ; std::allocator<std::_List_nod<IMessageObserver *,std::allocator<IMessageObserver *> >::_Node *>::allocator<std::_List_nod<IMessageObserver *,std::allocator<IMessageObserver *> >::_Node *><IMessageObserver *>, COMDAT
; _this$ = ecx

; 120  : 		allocator(const allocator<_Other>&)

  00000	55		 push	 ebp
  00001	8b ec		 mov	 ebp, esp
  00003	51		 push	 ecx
  00004	c7 45 fc cc cc
	cc cc		 mov	 DWORD PTR [ebp-4], -858993460 ; ccccccccH
  0000b	89 4d fc	 mov	 DWORD PTR _this$[ebp], ecx

; 121  : 		{	// construct from a related allocator (do nothing)
; 122  : 		}

  0000e	8b 45 fc	 mov	 eax, DWORD PTR _this$[ebp]
  00011	8b e5		 mov	 esp, ebp
  00013	5d		 pop	 ebp
  00014	c2 04 00	 ret	 4
??$?0PAVIMessageObserver@@@?$allocator@PAU_Node@?$_List_nod@PAVIMessageObserver@@V?$allocator@PAVIMessageObserver@@@std@@@std@@@std@@QAE@ABV?$allocator@PAVIMessageObserver@@@1@@Z ENDP ; std::allocator<std::_List_nod<IMessageObserver *,std::allocator<IMessageObserver *> >::_Node *>::allocator<std::_List_nod<IMessageObserver *,std::allocator<IMessageObserver *> >::_Node *><IMessageObserver *>
; Function compile flags: /Odt /RTCsu
_TEXT	ENDS
;	COMDAT ??$_Allocate@U_Node@?$_List_nod@PAVIMessageObserver@@V?$allocator@PAVIMessageObserver@@@std@@@std@@@std@@YAPAU_Node@?$_List_nod@PAVIMessageObserver@@V?$allocator@PAVIMessageObserver@@@std@@@0@IPAU120@@Z
_TEXT	SEGMENT
__Count$ = 8						; size = 4
___formal$ = 12						; size = 4
??$_Allocate@U_Node@?$_List_nod@PAVIMessageObserver@@V?$allocator@PAVIMessageObserver@@@std@@@std@@@std@@YAPAU_Node@?$_List_nod@PAVIMessageObserver@@V?$allocator@PAVIMessageObserver@@@std@@@0@IPAU120@@Z PROC NEAR ; std::_Allocate<std::_List_nod<IMessageObserver *,std::allocator<IMessageObserver *> >::_Node>, COMDAT

; 33   : 	{	// allocate storage for _Count elements of type _Ty

  00000	55		 push	 ebp
  00001	8b ec		 mov	 ebp, esp

; 34   : 	return ((_Ty _FARQ *)operator new(_Count * sizeof (_Ty)));

  00003	8b 45 08	 mov	 eax, DWORD PTR __Count$[ebp]
  00006	6b c0 0c	 imul	 eax, 12			; 0000000cH
  00009	50		 push	 eax
  0000a	e8 00 00 00 00	 call	 ??2@YAPAXI@Z		; operator new
  0000f	83 c4 04	 add	 esp, 4

; 35   : 	}

  00012	3b ec		 cmp	 ebp, esp
  00014	e8 00 00 00 00	 call	 __RTC_CheckEsp
  00019	5d		 pop	 ebp
  0001a	c3		 ret	 0
??$_Allocate@U_Node@?$_List_nod@PAVIMessageObserver@@V?$allocator@PAVIMessageObserver@@@std@@@std@@@std@@YAPAU_Node@?$_List_nod@PAVIMessageObserver@@V?$allocator@PAVIMessageObserver@@@std@@@0@IPAU120@@Z ENDP ; std::_Allocate<std::_List_nod<IMessageObserver *,std::allocator<IMessageObserver *> >::_Node>
_TEXT	ENDS
PUBLIC	??2@YAPAXIPAX@Z					; operator new
; Function compile flags: /Odt /RTCsu
;	COMDAT ??$_Construct@PAU_Node@?$_List_nod@PAVIMessageObserver@@V?$allocator@PAVIMessageObserver@@@std@@@std@@PAU123@@std@@YAXPAPAU_Node@?$_List_nod@PAVIMessageObserver@@V?$allocator@PAVIMessageObserver@@@std@@@0@ABQAU120@@Z
_TEXT	SEGMENT
tv68 = -8						; size = 4
$T193725 = -4						; size = 4
__Ptr$ = 8						; size = 4
__Val$ = 12						; size = 4
??$_Construct@PAU_Node@?$_List_nod@PAVIMessageObserver@@V?$allocator@PAVIMessageObserver@@@std@@@std@@PAU123@@std@@YAXPAPAU_Node@?$_List_nod@PAVIMessageObserver@@V?$allocator@PAVIMessageObserver@@@std@@@0@ABQAU120@@Z PROC NEAR ; std::_Construct<std::_List_nod<IMessageObserver *,std::allocator<IMessageObserver *> >::_Node *,std::_List_nod<IMessageObserver *,std::allocator<IMessageObserver *> >::_Node *>, COMDAT

; 41   : 	{	// construct object at _Ptr with value _Val

  00000	55		 push	 ebp
  00001	8b ec		 mov	 ebp, esp
  00003	83 ec 08	 sub	 esp, 8
  00006	c7 45 f8 cc cc
	cc cc		 mov	 DWORD PTR [ebp-8], -858993460 ; ccccccccH
  0000d	c7 45 fc cc cc
	cc cc		 mov	 DWORD PTR [ebp-4], -858993460 ; ccccccccH

; 42   : 	new ((void _FARQ *)_Ptr) _T1(_Val);

  00014	8b 45 08	 mov	 eax, DWORD PTR __Ptr$[ebp]
  00017	50		 push	 eax
  00018	6a 04		 push	 4
  0001a	e8 00 00 00 00	 call	 ??2@YAPAXIPAX@Z		; operator new
  0001f	83 c4 08	 add	 esp, 8
  00022	89 45 fc	 mov	 DWORD PTR $T193725[ebp], eax
  00025	83 7d fc 00	 cmp	 DWORD PTR $T193725[ebp], 0
  00029	74 12		 je	 SHORT $L193726
  0002b	8b 4d fc	 mov	 ecx, DWORD PTR $T193725[ebp]
  0002e	8b 55 0c	 mov	 edx, DWORD PTR __Val$[ebp]
  00031	8b 02		 mov	 eax, DWORD PTR [edx]
  00033	89 01		 mov	 DWORD PTR [ecx], eax
  00035	8b 4d fc	 mov	 ecx, DWORD PTR $T193725[ebp]
  00038	89 4d f8	 mov	 DWORD PTR tv68[ebp], ecx
  0003b	eb 07		 jmp	 SHORT $L192372
$L193726:
  0003d	c7 45 f8 00 00
	00 00		 mov	 DWORD PTR tv68[ebp], 0
$L192372:

; 43   : 	}

  00044	83 c4 08	 add	 esp, 8
  00047	3b ec		 cmp	 ebp, esp
  00049	e8 00 00 00 00	 call	 __RTC_CheckEsp
  0004e	8b e5		 mov	 esp, ebp
  00050	5d		 pop	 ebp
  00051	c3		 ret	 0
??$_Construct@PAU_Node@?$_List_nod@PAVIMessageObserver@@V?$allocator@PAVIMessageObserver@@@std@@@std@@PAU123@@std@@YAXPAPAU_Node@?$_List_nod@PAVIMessageObserver@@V?$allocator@PAVIMessageObserver@@@std@@@0@ABQAU120@@Z ENDP ; std::_Construct<std::_List_nod<IMessageObserver *,std::allocator<IMessageObserver *> >::_Node *,std::_List_nod<IMessageObserver *,std::allocator<IMessageObserver *> >::_Node *>
; Function compile flags: /Odt /RTCsu
; File d:\program files (x86)\microsoft visual studio .net 2003\vc7\include\new.h
_TEXT	ENDS
;	COMDAT ??2@YAPAXIPAX@Z
_TEXT	SEGMENT
___formal$ = 8						; size = 4
__P$ = 12						; size = 4
??2@YAPAXIPAX@Z PROC NEAR				; operator new, COMDAT

; 109  :         {return (_P); }

  00000	55		 push	 ebp
  00001	8b ec		 mov	 ebp, esp
  00003	8b 45 0c	 mov	 eax, DWORD PTR __P$[ebp]
  00006	5d		 pop	 ebp
  00007	c3		 ret	 0
??2@YAPAXIPAX@Z ENDP					; operator new
; Function compile flags: /Odt /RTCsu
; File d:\program files (x86)\microsoft visual studio .net 2003\vc7\include\xmemory
_TEXT	ENDS
;	COMDAT ??$_Destroy@PAU_Node@?$_List_nod@PAVIMessageObserver@@V?$allocator@PAVIMessageObserver@@@std@@@std@@@std@@YAXPAPAU_Node@?$_List_nod@PAVIMessageObserver@@V?$allocator@PAVIMessageObserver@@@std@@@0@@Z
_TEXT	SEGMENT
__Ptr$ = 8						; size = 4
??$_Destroy@PAU_Node@?$_List_nod@PAVIMessageObserver@@V?$allocator@PAVIMessageObserver@@@std@@@std@@@std@@YAXPAPAU_Node@?$_List_nod@PAVIMessageObserver@@V?$allocator@PAVIMessageObserver@@@std@@@0@@Z PROC NEAR ; std::_Destroy<std::_List_nod<IMessageObserver *,std::allocator<IMessageObserver *> >::_Node *>, COMDAT

; 48   : 	{	// destroy object at _Ptr

  00000	55		 push	 ebp
  00001	8b ec		 mov	 ebp, esp

; 49   : 	_DESTRUCTOR(_Ty, _Ptr);
; 50   : 	}

  00003	5d		 pop	 ebp
  00004	c3		 ret	 0
??$_Destroy@PAU_Node@?$_List_nod@PAVIMessageObserver@@V?$allocator@PAVIMessageObserver@@@std@@@std@@@std@@YAXPAPAU_Node@?$_List_nod@PAVIMessageObserver@@V?$allocator@PAVIMessageObserver@@@std@@@0@@Z ENDP ; std::_Destroy<std::_List_nod<IMessageObserver *,std::allocator<IMessageObserver *> >::_Node *>
; Function compile flags: /Odt /RTCsu
_TEXT	ENDS
;	COMDAT ??$?0PAVIMessageObserver@@@?$allocator@U_Node@?$_List_nod@PAVIMessageObserver@@V?$allocator@PAVIMessageObserver@@@std@@@std@@@std@@QAE@ABV?$allocator@PAVIMessageObserver@@@1@@Z
_TEXT	SEGMENT
_this$ = -4						; size = 4
___formal$ = 8						; size = 4
??$?0PAVIMessageObserver@@@?$allocator@U_Node@?$_List_nod@PAVIMessageObserver@@V?$allocator@PAVIMessageObserver@@@std@@@std@@@std@@QAE@ABV?$allocator@PAVIMessageObserver@@@1@@Z PROC NEAR ; std::allocator<std::_List_nod<IMessageObserver *,std::allocator<IMessageObserver *> >::_Node>::allocator<std::_List_nod<IMessageObserver *,std::allocator<IMessageObserver *> >::_Node><IMessageObserver *>, COMDAT
; _this$ = ecx

; 120  : 		allocator(const allocator<_Other>&)

  00000	55		 push	 ebp
  00001	8b ec		 mov	 ebp, esp
  00003	51		 push	 ecx
  00004	c7 45 fc cc cc
	cc cc		 mov	 DWORD PTR [ebp-4], -858993460 ; ccccccccH
  0000b	89 4d fc	 mov	 DWORD PTR _this$[ebp], ecx

; 121  : 		{	// construct from a related allocator (do nothing)
; 122  : 		}

  0000e	8b 45 fc	 mov	 eax, DWORD PTR _this$[ebp]
  00011	8b e5		 mov	 esp, ebp
  00013	5d		 pop	 ebp
  00014	c2 04 00	 ret	 4
??$?0PAVIMessageObserver@@@?$allocator@U_Node@?$_List_nod@PAVIMessageObserver@@V?$allocator@PAVIMessageObserver@@@std@@@std@@@std@@QAE@ABV?$allocator@PAVIMessageObserver@@@1@@Z ENDP ; std::allocator<std::_List_nod<IMessageObserver *,std::allocator<IMessageObserver *> >::_Node>::allocator<std::_List_nod<IMessageObserver *,std::allocator<IMessageObserver *> >::_Node><IMessageObserver *>
; Function compile flags: /Odt /RTCsu
_TEXT	ENDS
;	COMDAT ??$_Destroy@U_Node@?$_List_nod@PAVIMessageObserver@@V?$allocator@PAVIMessageObserver@@@std@@@std@@@std@@YAXPAU_Node@?$_List_nod@PAVIMessageObserver@@V?$allocator@PAVIMessageObserver@@@std@@@0@@Z
_TEXT	SEGMENT
__Ptr$ = 8						; size = 4
??$_Destroy@U_Node@?$_List_nod@PAVIMessageObserver@@V?$allocator@PAVIMessageObserver@@@std@@@std@@@std@@YAXPAU_Node@?$_List_nod@PAVIMessageObserver@@V?$allocator@PAVIMessageObserver@@@std@@@0@@Z PROC NEAR ; std::_Destroy<std::_List_nod<IMessageObserver *,std::allocator<IMessageObserver *> >::_Node>, COMDAT

; 48   : 	{	// destroy object at _Ptr

  00000	55		 push	 ebp
  00001	8b ec		 mov	 ebp, esp

; 49   : 	_DESTRUCTOR(_Ty, _Ptr);
; 50   : 	}

  00003	5d		 pop	 ebp
  00004	c3		 ret	 0
??$_Destroy@U_Node@?$_List_nod@PAVIMessageObserver@@V?$allocator@PAVIMessageObserver@@@std@@@std@@@std@@YAXPAU_Node@?$_List_nod@PAVIMessageObserver@@V?$allocator@PAVIMessageObserver@@@std@@@0@@Z ENDP ; std::_Destroy<std::_List_nod<IMessageObserver *,std::allocator<IMessageObserver *> >::_Node>
; Function compile flags: /Odt /RTCsu
; File d:\program files (x86)\microsoft visual studio .net 2003\vc7\include\xutility
_TEXT	ENDS
;	COMDAT ??$_Ptr_cat@PAUTAB_ITEM@@PAU1@@std@@YA?AU_Nonscalar_ptr_iterator_tag@0@AAPAUTAB_ITEM@@0@Z
_TEXT	SEGMENT
__Cat$ = -5						; size = 1
___formal$ = 8						; size = 4
___formal$ = 12						; size = 4
??$_Ptr_cat@PAUTAB_ITEM@@PAU1@@std@@YA?AU_Nonscalar_ptr_iterator_tag@0@AAPAUTAB_ITEM@@0@Z PROC NEAR ; std::_Ptr_cat<TAB_ITEM *,TAB_ITEM *>, COMDAT

; 211  : 	{	// return pointer category from arbitrary arguments

  00000	55		 push	 ebp
  00001	8b ec		 mov	 ebp, esp
  00003	83 ec 0c	 sub	 esp, 12			; 0000000cH
  00006	c7 45 f4 cc cc
	cc cc		 mov	 DWORD PTR [ebp-12], -858993460 ; ccccccccH
  0000d	c7 45 f8 cc cc
	cc cc		 mov	 DWORD PTR [ebp-8], -858993460 ; ccccccccH
  00014	c7 45 fc cc cc
	cc cc		 mov	 DWORD PTR [ebp-4], -858993460 ; ccccccccH

; 212  : 	_Nonscalar_ptr_iterator_tag _Cat;
; 213  : 	return (_Cat);

  0001b	8a 45 fb	 mov	 al, BYTE PTR __Cat$[ebp]

; 214  : 	}

  0001e	52		 push	 edx
  0001f	8b cd		 mov	 ecx, ebp
  00021	50		 push	 eax
  00022	8d 15 00 00 00
	00		 lea	 edx, DWORD PTR $L193735
  00028	e8 00 00 00 00	 call	 @_RTC_CheckStackVars@8
  0002d	58		 pop	 eax
  0002e	5a		 pop	 edx
  0002f	8b e5		 mov	 esp, ebp
  00031	5d		 pop	 ebp
  00032	c3		 ret	 0
$L193735:
  00033	01 00 00 00	 DD	 1
  00037	00 00 00 00	 DD	 $L193734
$L193734:
  0003b	fb ff ff ff	 DD	 -5			; fffffffbH
  0003f	01 00 00 00	 DD	 1
  00043	00 00 00 00	 DD	 $L193733
$L193733:
  00047	5f		 DB	 95			; 0000005fH
  00048	43		 DB	 67			; 00000043H
  00049	61		 DB	 97			; 00000061H
  0004a	74		 DB	 116			; 00000074H
  0004b	00		 DB	 0
??$_Ptr_cat@PAUTAB_ITEM@@PAU1@@std@@YA?AU_Nonscalar_ptr_iterator_tag@0@AAPAUTAB_ITEM@@0@Z ENDP ; std::_Ptr_cat<TAB_ITEM *,TAB_ITEM *>
_TEXT	ENDS
PUBLIC	?destroy@?$allocator@UTAB_ITEM@@@std@@QAEXPAUTAB_ITEM@@@Z ; std::allocator<TAB_ITEM>::destroy
; Function compile flags: /Odt /RTCsu
; File d:\program files (x86)\microsoft visual studio .net 2003\vc7\include\xmemory
;	COMDAT ??$_Destroy_range@UTAB_ITEM@@V?$allocator@UTAB_ITEM@@@std@@@std@@YAXPAUTAB_ITEM@@0AAV?$allocator@UTAB_ITEM@@@0@U_Nonscalar_ptr_iterator_tag@0@@Z
_TEXT	SEGMENT
__First$ = 8						; size = 4
__Last$ = 12						; size = 4
__Al$ = 16						; size = 4
___formal$ = 20						; size = 1
??$_Destroy_range@UTAB_ITEM@@V?$allocator@UTAB_ITEM@@@std@@@std@@YAXPAUTAB_ITEM@@0AAV?$allocator@UTAB_ITEM@@@0@U_Nonscalar_ptr_iterator_tag@0@@Z PROC NEAR ; std::_Destroy_range<TAB_ITEM,std::allocator<TAB_ITEM> >, COMDAT

; 224  : 	{	// destroy [_First, _Last), arbitrary type

  00000	55		 push	 ebp
  00001	8b ec		 mov	 ebp, esp

; 225  : 	for (; _First != _Last; ++_First)

  00003	eb 09		 jmp	 SHORT $L192383
$L192384:
  00005	8b 45 08	 mov	 eax, DWORD PTR __First$[ebp]
  00008	83 c0 3c	 add	 eax, 60			; 0000003cH
  0000b	89 45 08	 mov	 DWORD PTR __First$[ebp], eax
$L192383:
  0000e	8b 4d 08	 mov	 ecx, DWORD PTR __First$[ebp]
  00011	3b 4d 0c	 cmp	 ecx, DWORD PTR __Last$[ebp]
  00014	74 0e		 je	 SHORT $L192382

; 226  : 		_Al.destroy(_First);

  00016	8b 55 08	 mov	 edx, DWORD PTR __First$[ebp]
  00019	52		 push	 edx
  0001a	8b 4d 10	 mov	 ecx, DWORD PTR __Al$[ebp]
  0001d	e8 00 00 00 00	 call	 ?destroy@?$allocator@UTAB_ITEM@@@std@@QAEXPAUTAB_ITEM@@@Z ; std::allocator<TAB_ITEM>::destroy
  00022	eb e1		 jmp	 SHORT $L192384
$L192382:

; 227  : 	}

  00024	3b ec		 cmp	 ebp, esp
  00026	e8 00 00 00 00	 call	 __RTC_CheckEsp
  0002b	5d		 pop	 ebp
  0002c	c3		 ret	 0
??$_Destroy_range@UTAB_ITEM@@V?$allocator@UTAB_ITEM@@@std@@@std@@YAXPAUTAB_ITEM@@0AAV?$allocator@UTAB_ITEM@@@0@U_Nonscalar_ptr_iterator_tag@0@@Z ENDP ; std::_Destroy_range<TAB_ITEM,std::allocator<TAB_ITEM> >
_TEXT	ENDS
PUBLIC	??$_Destroy@UTAB_ITEM@@@std@@YAXPAUTAB_ITEM@@@Z	; std::_Destroy<TAB_ITEM>
; Function compile flags: /Odt /RTCsu
;	COMDAT ?destroy@?$allocator@UTAB_ITEM@@@std@@QAEXPAUTAB_ITEM@@@Z
_TEXT	SEGMENT
_this$ = -4						; size = 4
__Ptr$ = 8						; size = 4
?destroy@?$allocator@UTAB_ITEM@@@std@@QAEXPAUTAB_ITEM@@@Z PROC NEAR ; std::allocator<TAB_ITEM>::destroy, COMDAT
; _this$ = ecx

; 151  : 		{	// destroy object at _Ptr

  00000	55		 push	 ebp
  00001	8b ec		 mov	 ebp, esp
  00003	51		 push	 ecx
  00004	c7 45 fc cc cc
	cc cc		 mov	 DWORD PTR [ebp-4], -858993460 ; ccccccccH
  0000b	89 4d fc	 mov	 DWORD PTR _this$[ebp], ecx

; 152  : 		_Destroy(_Ptr);

  0000e	8b 45 08	 mov	 eax, DWORD PTR __Ptr$[ebp]
  00011	50		 push	 eax
  00012	e8 00 00 00 00	 call	 ??$_Destroy@UTAB_ITEM@@@std@@YAXPAUTAB_ITEM@@@Z ; std::_Destroy<TAB_ITEM>
  00017	83 c4 04	 add	 esp, 4

; 153  : 		}

  0001a	83 c4 04	 add	 esp, 4
  0001d	3b ec		 cmp	 ebp, esp
  0001f	e8 00 00 00 00	 call	 __RTC_CheckEsp
  00024	8b e5		 mov	 esp, ebp
  00026	5d		 pop	 ebp
  00027	c2 04 00	 ret	 4
?destroy@?$allocator@UTAB_ITEM@@@std@@QAEXPAUTAB_ITEM@@@Z ENDP ; std::allocator<TAB_ITEM>::destroy
_TEXT	ENDS
PUBLIC	??_GTAB_ITEM@@QAEPAXI@Z				; TAB_ITEM::`scalar deleting destructor'
; Function compile flags: /Odt /RTCsu
;	COMDAT ??$_Destroy@UTAB_ITEM@@@std@@YAXPAUTAB_ITEM@@@Z
_TEXT	SEGMENT
__Ptr$ = 8						; size = 4
??$_Destroy@UTAB_ITEM@@@std@@YAXPAUTAB_ITEM@@@Z PROC NEAR ; std::_Destroy<TAB_ITEM>, COMDAT

; 48   : 	{	// destroy object at _Ptr

  00000	55		 push	 ebp
  00001	8b ec		 mov	 ebp, esp

; 49   : 	_DESTRUCTOR(_Ty, _Ptr);

  00003	6a 00		 push	 0
  00005	8b 4d 08	 mov	 ecx, DWORD PTR __Ptr$[ebp]
  00008	e8 00 00 00 00	 call	 ??_GTAB_ITEM@@QAEPAXI@Z

; 50   : 	}

  0000d	3b ec		 cmp	 ebp, esp
  0000f	e8 00 00 00 00	 call	 __RTC_CheckEsp
  00014	5d		 pop	 ebp
  00015	c3		 ret	 0
??$_Destroy@UTAB_ITEM@@@std@@YAXPAUTAB_ITEM@@@Z ENDP	; std::_Destroy<TAB_ITEM>
; Function compile flags: /Odt /RTCsu
_TEXT	ENDS
;	COMDAT ??_GTAB_ITEM@@QAEPAXI@Z
_TEXT	SEGMENT
_this$ = -4						; size = 4
___flags$ = 8						; size = 4
??_GTAB_ITEM@@QAEPAXI@Z PROC NEAR			; TAB_ITEM::`scalar deleting destructor', COMDAT
; _this$ = ecx
  00000	55		 push	 ebp
  00001	8b ec		 mov	 ebp, esp
  00003	51		 push	 ecx
  00004	c7 45 fc cc cc
	cc cc		 mov	 DWORD PTR [ebp-4], -858993460 ; ccccccccH
  0000b	89 4d fc	 mov	 DWORD PTR _this$[ebp], ecx
  0000e	8b 4d fc	 mov	 ecx, DWORD PTR _this$[ebp]
  00011	e8 00 00 00 00	 call	 ??1TAB_ITEM@@QAE@XZ
  00016	8b 45 08	 mov	 eax, DWORD PTR ___flags$[ebp]
  00019	83 e0 01	 and	 eax, 1
  0001c	74 0c		 je	 SHORT $L192396
  0001e	8b 4d fc	 mov	 ecx, DWORD PTR _this$[ebp]
  00021	51		 push	 ecx
  00022	e8 00 00 00 00	 call	 ??3@YAXPAX@Z		; operator delete
  00027	83 c4 04	 add	 esp, 4
$L192396:
  0002a	8b 45 fc	 mov	 eax, DWORD PTR _this$[ebp]
  0002d	83 c4 04	 add	 esp, 4
  00030	3b ec		 cmp	 ebp, esp
  00032	e8 00 00 00 00	 call	 __RTC_CheckEsp
  00037	8b e5		 mov	 esp, ebp
  00039	5d		 pop	 ebp
  0003a	c2 04 00	 ret	 4
??_GTAB_ITEM@@QAEPAXI@Z ENDP				; TAB_ITEM::`scalar deleting destructor'
; Function compile flags: /Odt /RTCsu
; File d:\program files (x86)\microsoft visual studio .net 2003\vc7\include\stdexcept
_TEXT	ENDS
;	COMDAT ?what@logic_error@std@@UBEPBDXZ
_TEXT	SEGMENT
_this$ = -4						; size = 4
?what@logic_error@std@@UBEPBDXZ PROC NEAR		; std::logic_error::what, COMDAT
; _this$ = ecx

; 26   : 		{	// return pointer to message string

  00000	55		 push	 ebp
  00001	8b ec		 mov	 ebp, esp
  00003	51		 push	 ecx
  00004	56		 push	 esi
  00005	c7 45 fc cc cc
	cc cc		 mov	 DWORD PTR [ebp-4], -858993460 ; ccccccccH
  0000c	89 4d fc	 mov	 DWORD PTR _this$[ebp], ecx

; 27   : 		return (_Str.c_str());

  0000f	8b 4d fc	 mov	 ecx, DWORD PTR _this$[ebp]
  00012	83 c1 0c	 add	 ecx, 12			; 0000000cH
  00015	8b f4		 mov	 esi, esp
  00017	ff 15 00 00 00
	00		 call	 DWORD PTR __imp_?c_str@?$basic_string@DU?$char_traits@D@std@@V?$allocator@D@2@@std@@QBEPBDXZ
  0001d	3b f4		 cmp	 esi, esp
  0001f	e8 00 00 00 00	 call	 __RTC_CheckEsp

; 28   : 		}

  00024	5e		 pop	 esi
  00025	83 c4 04	 add	 esp, 4
  00028	3b ec		 cmp	 ebp, esp
  0002a	e8 00 00 00 00	 call	 __RTC_CheckEsp
  0002f	8b e5		 mov	 esp, ebp
  00031	5d		 pop	 ebp
  00032	c3		 ret	 0
?what@logic_error@std@@UBEPBDXZ ENDP			; std::logic_error::what
_TEXT	ENDS
PUBLIC	??0logic_error@std@@QAE@ABV?$basic_string@DU?$char_traits@D@std@@V?$allocator@D@2@@1@@Z ; std::logic_error::logic_error
; Function compile flags: /Odt /RTCsu
;	COMDAT ??0length_error@std@@QAE@ABV?$basic_string@DU?$char_traits@D@std@@V?$allocator@D@2@@1@@Z
_TEXT	SEGMENT
_this$ = -4						; size = 4
__Message$ = 8						; size = 4
??0length_error@std@@QAE@ABV?$basic_string@DU?$char_traits@D@std@@V?$allocator@D@2@@1@@Z PROC NEAR ; std::length_error::length_error, COMDAT
; _this$ = ecx

; 95   : 		{	// construct from message string

  00000	55		 push	 ebp
  00001	8b ec		 mov	 ebp, esp
  00003	51		 push	 ecx
  00004	c7 45 fc cc cc
	cc cc		 mov	 DWORD PTR [ebp-4], -858993460 ; ccccccccH
  0000b	89 4d fc	 mov	 DWORD PTR _this$[ebp], ecx
  0000e	8b 45 08	 mov	 eax, DWORD PTR __Message$[ebp]
  00011	50		 push	 eax
  00012	8b 4d fc	 mov	 ecx, DWORD PTR _this$[ebp]
  00015	e8 00 00 00 00	 call	 ??0logic_error@std@@QAE@ABV?$basic_string@DU?$char_traits@D@std@@V?$allocator@D@2@@1@@Z ; std::logic_error::logic_error
  0001a	8b 4d fc	 mov	 ecx, DWORD PTR _this$[ebp]
  0001d	c7 01 00 00 00
	00		 mov	 DWORD PTR [ecx], OFFSET FLAT:??_7length_error@std@@6B@

; 96   : 		}

  00023	8b 45 fc	 mov	 eax, DWORD PTR _this$[ebp]
  00026	83 c4 04	 add	 esp, 4
  00029	3b ec		 cmp	 ebp, esp
  0002b	e8 00 00 00 00	 call	 __RTC_CheckEsp
  00030	8b e5		 mov	 esp, ebp
  00032	5d		 pop	 ebp
  00033	c2 04 00	 ret	 4
??0length_error@std@@QAE@ABV?$basic_string@DU?$char_traits@D@std@@V?$allocator@D@2@@1@@Z ENDP ; std::length_error::length_error
_TEXT	ENDS
PUBLIC	??_7logic_error@std@@6B@			; std::logic_error::`vftable'
PUBLIC	??_Glogic_error@std@@UAEPAXI@Z			; std::logic_error::`scalar deleting destructor'
PUBLIC	??_R4logic_error@std@@6B@			; std::logic_error::`RTTI Complete Object Locator'
PUBLIC	??_R3logic_error@std@@8				; std::logic_error::`RTTI Class Hierarchy Descriptor'
PUBLIC	??_R2logic_error@std@@8				; std::logic_error::`RTTI Base Class Array'
EXTRN	__imp_??0exception@@QAE@XZ:NEAR
EXTRN	__imp_??1exception@@UAE@XZ:NEAR
EXTRN	??_Elogic_error@std@@UAEPAXI@Z:NEAR		; std::logic_error::`vector deleting destructor'
;	COMDAT xdata$x
xdata$x	SEGMENT
$T193749 DD	0ffffffffH
	DD	FLAT:$L193744
$T193747 DD	019930520H
	DD	01H
	DD	FLAT:$T193749
	DD	2 DUP(00H)
	DD	2 DUP(00H)
xdata$x	ENDS
;	COMDAT ??_7logic_error@std@@6B@
CONST	SEGMENT
??_7logic_error@std@@6B@ DD FLAT:??_R4logic_error@std@@6B@ ; std::logic_error::`vftable'
	DD	FLAT:??_Elogic_error@std@@UAEPAXI@Z
	DD	FLAT:?what@logic_error@std@@UBEPBDXZ
CONST	ENDS
;	COMDAT ??_R4logic_error@std@@6B@
rdata$r	SEGMENT
??_R4logic_error@std@@6B@ DD 00H			; std::logic_error::`RTTI Complete Object Locator'
	DD	00H
	DD	00H
	DD	FLAT:??_R0?AVlogic_error@std@@@8
	DD	FLAT:??_R3logic_error@std@@8
rdata$r	ENDS
;	COMDAT ??_R3logic_error@std@@8
rdata$r	SEGMENT
??_R3logic_error@std@@8 DD 00H				; std::logic_error::`RTTI Class Hierarchy Descriptor'
	DD	00H
	DD	02H
	DD	FLAT:??_R2logic_error@std@@8
rdata$r	ENDS
;	COMDAT ??_R2logic_error@std@@8
rdata$r	SEGMENT
??_R2logic_error@std@@8 DD FLAT:??_R1A@?0A@A@logic_error@std@@8 ; std::logic_error::`RTTI Base Class Array'
	DD	FLAT:??_R1A@?0A@A@exception@@8
; Function compile flags: /Odt /RTCsu
rdata$r	ENDS
;	COMDAT ??0logic_error@std@@QAE@ABV?$basic_string@DU?$char_traits@D@std@@V?$allocator@D@2@@1@@Z
_TEXT	SEGMENT
_this$ = -16						; size = 4
__$EHRec$ = -12						; size = 12
__Message$ = 8						; size = 4
??0logic_error@std@@QAE@ABV?$basic_string@DU?$char_traits@D@std@@V?$allocator@D@2@@1@@Z PROC NEAR ; std::logic_error::logic_error, COMDAT
; _this$ = ecx

; 19   : 		{	// construct from message string

  00000	55		 push	 ebp
  00001	8b ec		 mov	 ebp, esp
  00003	6a ff		 push	 -1
  00005	68 00 00 00 00	 push	 __ehhandler$??0logic_error@std@@QAE@ABV?$basic_string@DU?$char_traits@D@std@@V?$allocator@D@2@@1@@Z
  0000a	64 a1 00 00 00
	00		 mov	 eax, DWORD PTR fs:__except_list
  00010	50		 push	 eax
  00011	64 89 25 00 00
	00 00		 mov	 DWORD PTR fs:__except_list, esp
  00018	51		 push	 ecx
  00019	56		 push	 esi
  0001a	c7 45 f0 cc cc
	cc cc		 mov	 DWORD PTR [ebp-16], -858993460 ; ccccccccH
  00021	89 4d f0	 mov	 DWORD PTR _this$[ebp], ecx
  00024	8b f4		 mov	 esi, esp
  00026	8b 4d f0	 mov	 ecx, DWORD PTR _this$[ebp]
  00029	ff 15 00 00 00
	00		 call	 DWORD PTR __imp_??0exception@@QAE@XZ
  0002f	3b f4		 cmp	 esi, esp
  00031	e8 00 00 00 00	 call	 __RTC_CheckEsp
  00036	c7 45 fc 00 00
	00 00		 mov	 DWORD PTR __$EHRec$[ebp+8], 0
  0003d	8b 45 f0	 mov	 eax, DWORD PTR _this$[ebp]
  00040	c7 00 00 00 00
	00		 mov	 DWORD PTR [eax], OFFSET FLAT:??_7logic_error@std@@6B@
  00046	8b f4		 mov	 esi, esp
  00048	8b 4d 08	 mov	 ecx, DWORD PTR __Message$[ebp]
  0004b	51		 push	 ecx
  0004c	8b 4d f0	 mov	 ecx, DWORD PTR _this$[ebp]
  0004f	83 c1 0c	 add	 ecx, 12			; 0000000cH
  00052	ff 15 00 00 00
	00		 call	 DWORD PTR __imp_??0?$basic_string@DU?$char_traits@D@std@@V?$allocator@D@2@@std@@QAE@ABV01@@Z
  00058	3b f4		 cmp	 esi, esp
  0005a	e8 00 00 00 00	 call	 __RTC_CheckEsp

; 20   : 		}

  0005f	c7 45 fc ff ff
	ff ff		 mov	 DWORD PTR __$EHRec$[ebp+8], -1
  00066	8b 45 f0	 mov	 eax, DWORD PTR _this$[ebp]
  00069	8b 4d f4	 mov	 ecx, DWORD PTR __$EHRec$[ebp]
  0006c	64 89 0d 00 00
	00 00		 mov	 DWORD PTR fs:__except_list, ecx
  00073	5e		 pop	 esi
  00074	83 c4 10	 add	 esp, 16			; 00000010H
  00077	3b ec		 cmp	 ebp, esp
  00079	e8 00 00 00 00	 call	 __RTC_CheckEsp
  0007e	8b e5		 mov	 esp, ebp
  00080	5d		 pop	 ebp
  00081	c2 04 00	 ret	 4
_TEXT	ENDS
;	COMDAT text$x
text$x	SEGMENT
$L193744:
  00000	8b f4		 mov	 esi, esp
  00002	8b 4d f0	 mov	 ecx, DWORD PTR _this$[ebp]
  00005	ff 15 00 00 00
	00		 call	 DWORD PTR __imp_??1exception@@UAE@XZ
  0000b	3b f4		 cmp	 esi, esp
  0000d	e9 00 00 00 00	 jmp	 __RTC_CheckEsp
__ehhandler$??0logic_error@std@@QAE@ABV?$basic_string@DU?$char_traits@D@std@@V?$allocator@D@2@@1@@Z:
  00012	b8 00 00 00 00	 mov	 eax, OFFSET FLAT:$T193747
  00017	e9 00 00 00 00	 jmp	 ___CxxFrameHandler
text$x	ENDS
??0logic_error@std@@QAE@ABV?$basic_string@DU?$char_traits@D@std@@V?$allocator@D@2@@1@@Z ENDP ; std::logic_error::logic_error
PUBLIC	??1logic_error@std@@UAE@XZ			; std::logic_error::~logic_error
; Function compile flags: /Odt /RTCsu
;	COMDAT ??_Glogic_error@std@@UAEPAXI@Z
_TEXT	SEGMENT
_this$ = -4						; size = 4
___flags$ = 8						; size = 4
??_Glogic_error@std@@UAEPAXI@Z PROC NEAR		; std::logic_error::`scalar deleting destructor', COMDAT
; _this$ = ecx
  00000	55		 push	 ebp
  00001	8b ec		 mov	 ebp, esp
  00003	51		 push	 ecx
  00004	c7 45 fc cc cc
	cc cc		 mov	 DWORD PTR [ebp-4], -858993460 ; ccccccccH
  0000b	89 4d fc	 mov	 DWORD PTR _this$[ebp], ecx
  0000e	8b 4d fc	 mov	 ecx, DWORD PTR _this$[ebp]
  00011	e8 00 00 00 00	 call	 ??1logic_error@std@@UAE@XZ ; std::logic_error::~logic_error
  00016	8b 45 08	 mov	 eax, DWORD PTR ___flags$[ebp]
  00019	83 e0 01	 and	 eax, 1
  0001c	74 0c		 je	 SHORT $L91647
  0001e	8b 4d fc	 mov	 ecx, DWORD PTR _this$[ebp]
  00021	51		 push	 ecx
  00022	e8 00 00 00 00	 call	 ??3@YAXPAX@Z		; operator delete
  00027	83 c4 04	 add	 esp, 4
$L91647:
  0002a	8b 45 fc	 mov	 eax, DWORD PTR _this$[ebp]
  0002d	83 c4 04	 add	 esp, 4
  00030	3b ec		 cmp	 ebp, esp
  00032	e8 00 00 00 00	 call	 __RTC_CheckEsp
  00037	8b e5		 mov	 esp, ebp
  00039	5d		 pop	 ebp
  0003a	c2 04 00	 ret	 4
??_Glogic_error@std@@UAEPAXI@Z ENDP			; std::logic_error::`scalar deleting destructor'
_TEXT	ENDS
;	COMDAT xdata$x
xdata$x	SEGMENT
$T193759 DD	0ffffffffH
	DD	FLAT:$L193754
$T193757 DD	019930520H
	DD	01H
	DD	FLAT:$T193759
	DD	2 DUP(00H)
	DD	2 DUP(00H)
; Function compile flags: /Odt /RTCsu
xdata$x	ENDS
;	COMDAT ??1logic_error@std@@UAE@XZ
_TEXT	SEGMENT
_this$ = -16						; size = 4
__$EHRec$ = -12						; size = 12
??1logic_error@std@@UAE@XZ PROC NEAR			; std::logic_error::~logic_error, COMDAT
; _this$ = ecx

; 23   : 		{}	// destroy the object

  00000	55		 push	 ebp
  00001	8b ec		 mov	 ebp, esp
  00003	6a ff		 push	 -1
  00005	68 00 00 00 00	 push	 __ehhandler$??1logic_error@std@@UAE@XZ
  0000a	64 a1 00 00 00
	00		 mov	 eax, DWORD PTR fs:__except_list
  00010	50		 push	 eax
  00011	64 89 25 00 00
	00 00		 mov	 DWORD PTR fs:__except_list, esp
  00018	51		 push	 ecx
  00019	56		 push	 esi
  0001a	c7 45 f0 cc cc
	cc cc		 mov	 DWORD PTR [ebp-16], -858993460 ; ccccccccH
  00021	89 4d f0	 mov	 DWORD PTR _this$[ebp], ecx
  00024	8b 45 f0	 mov	 eax, DWORD PTR _this$[ebp]
  00027	c7 00 00 00 00
	00		 mov	 DWORD PTR [eax], OFFSET FLAT:??_7logic_error@std@@6B@
  0002d	c7 45 fc 00 00
	00 00		 mov	 DWORD PTR __$EHRec$[ebp+8], 0
  00034	8b 4d f0	 mov	 ecx, DWORD PTR _this$[ebp]
  00037	83 c1 0c	 add	 ecx, 12			; 0000000cH
  0003a	8b f4		 mov	 esi, esp
  0003c	ff 15 00 00 00
	00		 call	 DWORD PTR __imp_??1?$basic_string@DU?$char_traits@D@std@@V?$allocator@D@2@@std@@QAE@XZ
  00042	3b f4		 cmp	 esi, esp
  00044	e8 00 00 00 00	 call	 __RTC_CheckEsp
  00049	c7 45 fc ff ff
	ff ff		 mov	 DWORD PTR __$EHRec$[ebp+8], -1
  00050	8b f4		 mov	 esi, esp
  00052	8b 4d f0	 mov	 ecx, DWORD PTR _this$[ebp]
  00055	ff 15 00 00 00
	00		 call	 DWORD PTR __imp_??1exception@@UAE@XZ
  0005b	3b f4		 cmp	 esi, esp
  0005d	e8 00 00 00 00	 call	 __RTC_CheckEsp
  00062	8b 4d f4	 mov	 ecx, DWORD PTR __$EHRec$[ebp]
  00065	64 89 0d 00 00
	00 00		 mov	 DWORD PTR fs:__except_list, ecx
  0006c	5e		 pop	 esi
  0006d	83 c4 10	 add	 esp, 16			; 00000010H
  00070	3b ec		 cmp	 ebp, esp
  00072	e8 00 00 00 00	 call	 __RTC_CheckEsp
  00077	8b e5		 mov	 esp, ebp
  00079	5d		 pop	 ebp
  0007a	c3		 ret	 0
_TEXT	ENDS
;	COMDAT text$x
text$x	SEGMENT
$L193754:
  00000	8b f4		 mov	 esi, esp
  00002	8b 4d f0	 mov	 ecx, DWORD PTR _this$[ebp]
  00005	ff 15 00 00 00
	00		 call	 DWORD PTR __imp_??1exception@@UAE@XZ
  0000b	3b f4		 cmp	 esi, esp
  0000d	e9 00 00 00 00	 jmp	 __RTC_CheckEsp
__ehhandler$??1logic_error@std@@UAE@XZ:
  00012	b8 00 00 00 00	 mov	 eax, OFFSET FLAT:$T193757
  00017	e9 00 00 00 00	 jmp	 ___CxxFrameHandler
text$x	ENDS
??1logic_error@std@@UAE@XZ ENDP				; std::logic_error::~logic_error
; Function compile flags: /Odt /RTCsu
;	COMDAT ??1length_error@std@@UAE@XZ
_TEXT	SEGMENT
_this$ = -4						; size = 4
??1length_error@std@@UAE@XZ PROC NEAR			; std::length_error::~length_error, COMDAT
; _this$ = ecx

; 99   : 		{}	// destroy the object

  00000	55		 push	 ebp
  00001	8b ec		 mov	 ebp, esp
  00003	51		 push	 ecx
  00004	c7 45 fc cc cc
	cc cc		 mov	 DWORD PTR [ebp-4], -858993460 ; ccccccccH
  0000b	89 4d fc	 mov	 DWORD PTR _this$[ebp], ecx
  0000e	8b 45 fc	 mov	 eax, DWORD PTR _this$[ebp]
  00011	c7 00 00 00 00
	00		 mov	 DWORD PTR [eax], OFFSET FLAT:??_7length_error@std@@6B@
  00017	8b 4d fc	 mov	 ecx, DWORD PTR _this$[ebp]
  0001a	e8 00 00 00 00	 call	 ??1logic_error@std@@UAE@XZ ; std::logic_error::~logic_error
  0001f	83 c4 04	 add	 esp, 4
  00022	3b ec		 cmp	 ebp, esp
  00024	e8 00 00 00 00	 call	 __RTC_CheckEsp
  00029	8b e5		 mov	 esp, ebp
  0002b	5d		 pop	 ebp
  0002c	c3		 ret	 0
??1length_error@std@@UAE@XZ ENDP			; std::length_error::~length_error
; Function compile flags: /Odt /RTCsu
_TEXT	ENDS
;	COMDAT ??_Glength_error@std@@UAEPAXI@Z
_TEXT	SEGMENT
_this$ = -4						; size = 4
___flags$ = 8						; size = 4
??_Glength_error@std@@UAEPAXI@Z PROC NEAR		; std::length_error::`scalar deleting destructor', COMDAT
; _this$ = ecx
  00000	55		 push	 ebp
  00001	8b ec		 mov	 ebp, esp
  00003	51		 push	 ecx
  00004	c7 45 fc cc cc
	cc cc		 mov	 DWORD PTR [ebp-4], -858993460 ; ccccccccH
  0000b	89 4d fc	 mov	 DWORD PTR _this$[ebp], ecx
  0000e	8b 4d fc	 mov	 ecx, DWORD PTR _this$[ebp]
  00011	e8 00 00 00 00	 call	 ??1length_error@std@@UAE@XZ ; std::length_error::~length_error
  00016	8b 45 08	 mov	 eax, DWORD PTR ___flags$[ebp]
  00019	83 e0 01	 and	 eax, 1
  0001c	74 0c		 je	 SHORT $L91713
  0001e	8b 4d fc	 mov	 ecx, DWORD PTR _this$[ebp]
  00021	51		 push	 ecx
  00022	e8 00 00 00 00	 call	 ??3@YAXPAX@Z		; operator delete
  00027	83 c4 04	 add	 esp, 4
$L91713:
  0002a	8b 45 fc	 mov	 eax, DWORD PTR _this$[ebp]
  0002d	83 c4 04	 add	 esp, 4
  00030	3b ec		 cmp	 ebp, esp
  00032	e8 00 00 00 00	 call	 __RTC_CheckEsp
  00037	8b e5		 mov	 esp, ebp
  00039	5d		 pop	 ebp
  0003a	c2 04 00	 ret	 4
??_Glength_error@std@@UAEPAXI@Z ENDP			; std::length_error::`scalar deleting destructor'
; Function compile flags: /Odt /RTCsu
; File d:\program files (x86)\microsoft visual studio .net 2003\vc7\atlmfc\include\atlalloc.h
_TEXT	ENDS
;	COMDAT ??0?$CAtlSafeAllocBufferManager@VCCRTAllocator@ATL@@@_ATL_SAFE_ALLOCA_IMPL@ATL@@QAE@XZ
_TEXT	SEGMENT
_this$ = -4						; size = 4
??0?$CAtlSafeAllocBufferManager@VCCRTAllocator@ATL@@@_ATL_SAFE_ALLOCA_IMPL@ATL@@QAE@XZ PROC NEAR ; ATL::_ATL_SAFE_ALLOCA_IMPL::CAtlSafeAllocBufferManager<ATL::CCRTAllocator>::CAtlSafeAllocBufferManager<ATL::CCRTAllocator>, COMDAT
; _this$ = ecx

; 373  : 	CAtlSafeAllocBufferManager() : m_pHead(NULL) {};

  00000	55		 push	 ebp
  00001	8b ec		 mov	 ebp, esp
  00003	51		 push	 ecx
  00004	c7 45 fc cc cc
	cc cc		 mov	 DWORD PTR [ebp-4], -858993460 ; ccccccccH
  0000b	89 4d fc	 mov	 DWORD PTR _this$[ebp], ecx
  0000e	8b 45 fc	 mov	 eax, DWORD PTR _this$[ebp]
  00011	c7 00 00 00 00
	00		 mov	 DWORD PTR [eax], 0
  00017	8b 45 fc	 mov	 eax, DWORD PTR _this$[ebp]
  0001a	8b e5		 mov	 esp, ebp
  0001c	5d		 pop	 ebp
  0001d	c3		 ret	 0
??0?$CAtlSafeAllocBufferManager@VCCRTAllocator@ATL@@@_ATL_SAFE_ALLOCA_IMPL@ATL@@QAE@XZ ENDP ; ATL::_ATL_SAFE_ALLOCA_IMPL::CAtlSafeAllocBufferManager<ATL::CCRTAllocator>::CAtlSafeAllocBufferManager<ATL::CCRTAllocator>
_TEXT	ENDS
PUBLIC	?GetData@CAtlSafeAllocBufferNode@?$CAtlSafeAllocBufferManager@VCCRTAllocator@ATL@@@_ATL_SAFE_ALLOCA_IMPL@ATL@@QAEPAXXZ ; ATL::_ATL_SAFE_ALLOCA_IMPL::CAtlSafeAllocBufferManager<ATL::CCRTAllocator>::CAtlSafeAllocBufferNode::GetData
PUBLIC	?Allocate@CCRTAllocator@ATL@@SAPAXI@Z		; ATL::CCRTAllocator::Allocate
; Function compile flags: /Odt /RTCsu
;	COMDAT ?Allocate@?$CAtlSafeAllocBufferManager@VCCRTAllocator@ATL@@@_ATL_SAFE_ALLOCA_IMPL@ATL@@QAEPAXK@Z
_TEXT	SEGMENT
_p$ = -8						; size = 4
_this$ = -4						; size = 4
_nRequestedSize$ = 8					; size = 4
?Allocate@?$CAtlSafeAllocBufferManager@VCCRTAllocator@ATL@@@_ATL_SAFE_ALLOCA_IMPL@ATL@@QAEPAXK@Z PROC NEAR ; ATL::_ATL_SAFE_ALLOCA_IMPL::CAtlSafeAllocBufferManager<ATL::CCRTAllocator>::Allocate, COMDAT
; _this$ = ecx

; 375  : 	{

  00000	55		 push	 ebp
  00001	8b ec		 mov	 ebp, esp
  00003	83 ec 08	 sub	 esp, 8
  00006	c7 45 f8 cc cc
	cc cc		 mov	 DWORD PTR [ebp-8], -858993460 ; ccccccccH
  0000d	c7 45 fc cc cc
	cc cc		 mov	 DWORD PTR [ebp-4], -858993460 ; ccccccccH
  00014	89 4d fc	 mov	 DWORD PTR _this$[ebp], ecx

; 376  : 		CAtlSafeAllocBufferNode *p = (CAtlSafeAllocBufferNode*)Allocator::Allocate(nRequestedSize + sizeof(CAtlSafeAllocBufferNode));

  00017	8b 45 08	 mov	 eax, DWORD PTR _nRequestedSize$[ebp]
  0001a	83 c0 08	 add	 eax, 8
  0001d	50		 push	 eax
  0001e	e8 00 00 00 00	 call	 ?Allocate@CCRTAllocator@ATL@@SAPAXI@Z ; ATL::CCRTAllocator::Allocate
  00023	83 c4 04	 add	 esp, 4
  00026	89 45 f8	 mov	 DWORD PTR _p$[ebp], eax

; 377  : 		if (p == NULL)

  00029	83 7d f8 00	 cmp	 DWORD PTR _p$[ebp], 0
  0002d	75 04		 jne	 SHORT $L181568

; 378  : 			return NULL;

  0002f	33 c0		 xor	 eax, eax
  00031	eb 1a		 jmp	 SHORT $L181555
$L181568:

; 379  : 		
; 380  : 		// Add buffer to the list
; 381  : 		p->m_pNext = m_pHead;

  00033	8b 4d f8	 mov	 ecx, DWORD PTR _p$[ebp]
  00036	8b 55 fc	 mov	 edx, DWORD PTR _this$[ebp]
  00039	8b 02		 mov	 eax, DWORD PTR [edx]
  0003b	89 01		 mov	 DWORD PTR [ecx], eax

; 382  : 		m_pHead = p;

  0003d	8b 4d fc	 mov	 ecx, DWORD PTR _this$[ebp]
  00040	8b 55 f8	 mov	 edx, DWORD PTR _p$[ebp]
  00043	89 11		 mov	 DWORD PTR [ecx], edx

; 383  : 		
; 384  : 		return p->GetData();

  00045	8b 4d f8	 mov	 ecx, DWORD PTR _p$[ebp]
  00048	e8 00 00 00 00	 call	 ?GetData@CAtlSafeAllocBufferNode@?$CAtlSafeAllocBufferManager@VCCRTAllocator@ATL@@@_ATL_SAFE_ALLOCA_IMPL@ATL@@QAEPAXXZ ; ATL::_ATL_SAFE_ALLOCA_IMPL::CAtlSafeAllocBufferManager<ATL::CCRTAllocator>::CAtlSafeAllocBufferNode::GetData
$L181555:

; 385  : 	}

  0004d	83 c4 08	 add	 esp, 8
  00050	3b ec		 cmp	 ebp, esp
  00052	e8 00 00 00 00	 call	 __RTC_CheckEsp
  00057	8b e5		 mov	 esp, ebp
  00059	5d		 pop	 ebp
  0005a	c2 04 00	 ret	 4
?Allocate@?$CAtlSafeAllocBufferManager@VCCRTAllocator@ATL@@@_ATL_SAFE_ALLOCA_IMPL@ATL@@QAEPAXK@Z ENDP ; ATL::_ATL_SAFE_ALLOCA_IMPL::CAtlSafeAllocBufferManager<ATL::CCRTAllocator>::Allocate
_TEXT	ENDS
EXTRN	__imp__malloc:NEAR
; Function compile flags: /Odt /RTCsu
;	COMDAT ?Allocate@CCRTAllocator@ATL@@SAPAXI@Z
_TEXT	SEGMENT
_nBytes$ = 8						; size = 4
?Allocate@CCRTAllocator@ATL@@SAPAXI@Z PROC NEAR		; ATL::CCRTAllocator::Allocate, COMDAT

; 30   : 	{

  00000	55		 push	 ebp
  00001	8b ec		 mov	 ebp, esp
  00003	56		 push	 esi

; 31   : 		return malloc(nBytes);

  00004	8b f4		 mov	 esi, esp
  00006	8b 45 08	 mov	 eax, DWORD PTR _nBytes$[ebp]
  00009	50		 push	 eax
  0000a	ff 15 00 00 00
	00		 call	 DWORD PTR __imp__malloc
  00010	83 c4 04	 add	 esp, 4
  00013	3b f4		 cmp	 esi, esp
  00015	e8 00 00 00 00	 call	 __RTC_CheckEsp

; 32   : 	}

  0001a	5e		 pop	 esi
  0001b	3b ec		 cmp	 ebp, esp
  0001d	e8 00 00 00 00	 call	 __RTC_CheckEsp
  00022	5d		 pop	 ebp
  00023	c3		 ret	 0
?Allocate@CCRTAllocator@ATL@@SAPAXI@Z ENDP		; ATL::CCRTAllocator::Allocate
_TEXT	ENDS
PUBLIC	?Free@CCRTAllocator@ATL@@SAXPAX@Z		; ATL::CCRTAllocator::Free
; Function compile flags: /Odt /RTCsu
;	COMDAT ??1?$CAtlSafeAllocBufferManager@VCCRTAllocator@ATL@@@_ATL_SAFE_ALLOCA_IMPL@ATL@@QAE@XZ
_TEXT	SEGMENT
_p$181574 = -8						; size = 4
_this$ = -4						; size = 4
??1?$CAtlSafeAllocBufferManager@VCCRTAllocator@ATL@@@_ATL_SAFE_ALLOCA_IMPL@ATL@@QAE@XZ PROC NEAR ; ATL::_ATL_SAFE_ALLOCA_IMPL::CAtlSafeAllocBufferManager<ATL::CCRTAllocator>::~CAtlSafeAllocBufferManager<ATL::CCRTAllocator>, COMDAT
; _this$ = ecx

; 387  : 	{

  00000	55		 push	 ebp
  00001	8b ec		 mov	 ebp, esp
  00003	83 ec 08	 sub	 esp, 8
  00006	c7 45 f8 cc cc
	cc cc		 mov	 DWORD PTR [ebp-8], -858993460 ; ccccccccH
  0000d	c7 45 fc cc cc
	cc cc		 mov	 DWORD PTR [ebp-4], -858993460 ; ccccccccH
  00014	89 4d fc	 mov	 DWORD PTR _this$[ebp], ecx
$L181572:

; 388  : 		// Walk the list and free the buffers
; 389  : 		while (m_pHead != NULL)

  00017	8b 45 fc	 mov	 eax, DWORD PTR _this$[ebp]
  0001a	83 38 00	 cmp	 DWORD PTR [eax], 0
  0001d	74 22		 je	 SHORT $L181570

; 390  : 		{
; 391  : 			CAtlSafeAllocBufferNode* p = m_pHead;

  0001f	8b 4d fc	 mov	 ecx, DWORD PTR _this$[ebp]
  00022	8b 11		 mov	 edx, DWORD PTR [ecx]
  00024	89 55 f8	 mov	 DWORD PTR _p$181574[ebp], edx

; 392  : 			m_pHead = m_pHead->m_pNext;

  00027	8b 45 fc	 mov	 eax, DWORD PTR _this$[ebp]
  0002a	8b 08		 mov	 ecx, DWORD PTR [eax]
  0002c	8b 55 fc	 mov	 edx, DWORD PTR _this$[ebp]
  0002f	8b 01		 mov	 eax, DWORD PTR [ecx]
  00031	89 02		 mov	 DWORD PTR [edx], eax

; 393  : 			Allocator::Free(p);

  00033	8b 4d f8	 mov	 ecx, DWORD PTR _p$181574[ebp]
  00036	51		 push	 ecx
  00037	e8 00 00 00 00	 call	 ?Free@CCRTAllocator@ATL@@SAXPAX@Z ; ATL::CCRTAllocator::Free
  0003c	83 c4 04	 add	 esp, 4

; 394  : 		}

  0003f	eb d6		 jmp	 SHORT $L181572
$L181570:

; 395  : 	}

  00041	83 c4 08	 add	 esp, 8
  00044	3b ec		 cmp	 ebp, esp
  00046	e8 00 00 00 00	 call	 __RTC_CheckEsp
  0004b	8b e5		 mov	 esp, ebp
  0004d	5d		 pop	 ebp
  0004e	c3		 ret	 0
??1?$CAtlSafeAllocBufferManager@VCCRTAllocator@ATL@@@_ATL_SAFE_ALLOCA_IMPL@ATL@@QAE@XZ ENDP ; ATL::_ATL_SAFE_ALLOCA_IMPL::CAtlSafeAllocBufferManager<ATL::CCRTAllocator>::~CAtlSafeAllocBufferManager<ATL::CCRTAllocator>
_TEXT	ENDS
EXTRN	__imp__free:NEAR
; Function compile flags: /Odt /RTCsu
;	COMDAT ?Free@CCRTAllocator@ATL@@SAXPAX@Z
_TEXT	SEGMENT
_p$ = 8							; size = 4
?Free@CCRTAllocator@ATL@@SAXPAX@Z PROC NEAR		; ATL::CCRTAllocator::Free, COMDAT

; 35   : 	{

  00000	55		 push	 ebp
  00001	8b ec		 mov	 ebp, esp
  00003	56		 push	 esi

; 36   : 		free(p);

  00004	8b f4		 mov	 esi, esp
  00006	8b 45 08	 mov	 eax, DWORD PTR _p$[ebp]
  00009	50		 push	 eax
  0000a	ff 15 00 00 00
	00		 call	 DWORD PTR __imp__free
  00010	83 c4 04	 add	 esp, 4
  00013	3b f4		 cmp	 esi, esp
  00015	e8 00 00 00 00	 call	 __RTC_CheckEsp

; 37   : 	}

  0001a	5e		 pop	 esi
  0001b	3b ec		 cmp	 ebp, esp
  0001d	e8 00 00 00 00	 call	 __RTC_CheckEsp
  00022	5d		 pop	 ebp
  00023	c3		 ret	 0
?Free@CCRTAllocator@ATL@@SAXPAX@Z ENDP			; ATL::CCRTAllocator::Free
; Function compile flags: /Odt /RTCsu
_TEXT	ENDS
;	COMDAT ??0?$CTempBuffer@D$0IA@VCCRTAllocator@ATL@@@ATL@@QAE@XZ
_TEXT	SEGMENT
_this$ = -4						; size = 4
??0?$CTempBuffer@D$0IA@VCCRTAllocator@ATL@@@ATL@@QAE@XZ PROC NEAR ; ATL::CTempBuffer<char,128,ATL::CCRTAllocator>::CTempBuffer<char,128,ATL::CCRTAllocator>, COMDAT
; _this$ = ecx

; 216  : 	{

  00000	55		 push	 ebp
  00001	8b ec		 mov	 ebp, esp
  00003	51		 push	 ecx
  00004	c7 45 fc cc cc
	cc cc		 mov	 DWORD PTR [ebp-4], -858993460 ; ccccccccH
  0000b	89 4d fc	 mov	 DWORD PTR _this$[ebp], ecx
  0000e	8b 45 fc	 mov	 eax, DWORD PTR _this$[ebp]
  00011	c7 00 00 00 00
	00		 mov	 DWORD PTR [eax], 0

; 217  : 	}

  00017	8b 45 fc	 mov	 eax, DWORD PTR _this$[ebp]
  0001a	8b e5		 mov	 esp, ebp
  0001c	5d		 pop	 ebp
  0001d	c3		 ret	 0
??0?$CTempBuffer@D$0IA@VCCRTAllocator@ATL@@@ATL@@QAE@XZ ENDP ; ATL::CTempBuffer<char,128,ATL::CCRTAllocator>::CTempBuffer<char,128,ATL::CCRTAllocator>
_TEXT	ENDS
PUBLIC	?FreeHeap@?$CTempBuffer@D$0IA@VCCRTAllocator@ATL@@@ATL@@AAEXXZ ; ATL::CTempBuffer<char,128,ATL::CCRTAllocator>::FreeHeap
; Function compile flags: /Odt /RTCsu
;	COMDAT ??1?$CTempBuffer@D$0IA@VCCRTAllocator@ATL@@@ATL@@QAE@XZ
_TEXT	SEGMENT
_this$ = -4						; size = 4
??1?$CTempBuffer@D$0IA@VCCRTAllocator@ATL@@@ATL@@QAE@XZ PROC NEAR ; ATL::CTempBuffer<char,128,ATL::CCRTAllocator>::~CTempBuffer<char,128,ATL::CCRTAllocator>, COMDAT
; _this$ = ecx

; 225  : 	{

  00000	55		 push	 ebp
  00001	8b ec		 mov	 ebp, esp
  00003	51		 push	 ecx
  00004	c7 45 fc cc cc
	cc cc		 mov	 DWORD PTR [ebp-4], -858993460 ; ccccccccH
  0000b	89 4d fc	 mov	 DWORD PTR _this$[ebp], ecx

; 226  : 		if( m_p != reinterpret_cast< T* >( m_abFixedBuffer ) )

  0000e	8b 45 fc	 mov	 eax, DWORD PTR _this$[ebp]
  00011	83 c0 04	 add	 eax, 4
  00014	8b 4d fc	 mov	 ecx, DWORD PTR _this$[ebp]
  00017	39 01		 cmp	 DWORD PTR [ecx], eax
  00019	74 08		 je	 SHORT $L181578

; 227  : 		{
; 228  : 			FreeHeap();

  0001b	8b 4d fc	 mov	 ecx, DWORD PTR _this$[ebp]
  0001e	e8 00 00 00 00	 call	 ?FreeHeap@?$CTempBuffer@D$0IA@VCCRTAllocator@ATL@@@ATL@@AAEXXZ ; ATL::CTempBuffer<char,128,ATL::CCRTAllocator>::FreeHeap
$L181578:

; 229  : 		}
; 230  : 	}

  00023	83 c4 04	 add	 esp, 4
  00026	3b ec		 cmp	 ebp, esp
  00028	e8 00 00 00 00	 call	 __RTC_CheckEsp
  0002d	8b e5		 mov	 esp, ebp
  0002f	5d		 pop	 ebp
  00030	c3		 ret	 0
??1?$CTempBuffer@D$0IA@VCCRTAllocator@ATL@@@ATL@@QAE@XZ ENDP ; ATL::CTempBuffer<char,128,ATL::CCRTAllocator>::~CTempBuffer<char,128,ATL::CCRTAllocator>
; Function compile flags: /Odt /RTCsu
_TEXT	ENDS
;	COMDAT ??B?$CTempBuffer@D$0IA@VCCRTAllocator@ATL@@@ATL@@QBEPADXZ
_TEXT	SEGMENT
_this$ = -4						; size = 4
??B?$CTempBuffer@D$0IA@VCCRTAllocator@ATL@@@ATL@@QBEPADXZ PROC NEAR ; ATL::CTempBuffer<char,128,ATL::CCRTAllocator>::operator char *, COMDAT
; _this$ = ecx

; 233  : 	{

  00000	55		 push	 ebp
  00001	8b ec		 mov	 ebp, esp
  00003	51		 push	 ecx
  00004	c7 45 fc cc cc
	cc cc		 mov	 DWORD PTR [ebp-4], -858993460 ; ccccccccH
  0000b	89 4d fc	 mov	 DWORD PTR _this$[ebp], ecx

; 234  : 		return( m_p );

  0000e	8b 45 fc	 mov	 eax, DWORD PTR _this$[ebp]
  00011	8b 00		 mov	 eax, DWORD PTR [eax]

; 235  : 	}

  00013	8b e5		 mov	 esp, ebp
  00015	5d		 pop	 ebp
  00016	c3		 ret	 0
??B?$CTempBuffer@D$0IA@VCCRTAllocator@ATL@@@ATL@@QBEPADXZ ENDP ; ATL::CTempBuffer<char,128,ATL::CCRTAllocator>::operator char *
_TEXT	ENDS
PUBLIC	?AllocateBytes@?$CTempBuffer@D$0IA@VCCRTAllocator@ATL@@@ATL@@QAEPADI@Z ; ATL::CTempBuffer<char,128,ATL::CCRTAllocator>::AllocateBytes
; Function compile flags: /Odt /RTCsu
;	COMDAT ?Allocate@?$CTempBuffer@D$0IA@VCCRTAllocator@ATL@@@ATL@@QAEPADI@Z
_TEXT	SEGMENT
_this$ = -4						; size = 4
_nElements$ = 8						; size = 4
?Allocate@?$CTempBuffer@D$0IA@VCCRTAllocator@ATL@@@ATL@@QAEPADI@Z PROC NEAR ; ATL::CTempBuffer<char,128,ATL::CCRTAllocator>::Allocate, COMDAT
; _this$ = ecx

; 243  : 	{

  00000	55		 push	 ebp
  00001	8b ec		 mov	 ebp, esp
  00003	51		 push	 ecx
  00004	c7 45 fc cc cc
	cc cc		 mov	 DWORD PTR [ebp-4], -858993460 ; ccccccccH
  0000b	89 4d fc	 mov	 DWORD PTR _this$[ebp], ecx

; 244  : 		return( AllocateBytes( nElements*sizeof( T ) ) );

  0000e	8b 45 08	 mov	 eax, DWORD PTR _nElements$[ebp]
  00011	50		 push	 eax
  00012	8b 4d fc	 mov	 ecx, DWORD PTR _this$[ebp]
  00015	e8 00 00 00 00	 call	 ?AllocateBytes@?$CTempBuffer@D$0IA@VCCRTAllocator@ATL@@@ATL@@QAEPADI@Z ; ATL::CTempBuffer<char,128,ATL::CCRTAllocator>::AllocateBytes

; 245  : 	}

  0001a	83 c4 04	 add	 esp, 4
  0001d	3b ec		 cmp	 ebp, esp
  0001f	e8 00 00 00 00	 call	 __RTC_CheckEsp
  00024	8b e5		 mov	 esp, ebp
  00026	5d		 pop	 ebp
  00027	c2 04 00	 ret	 4
?Allocate@?$CTempBuffer@D$0IA@VCCRTAllocator@ATL@@@ATL@@QAEPADI@Z ENDP ; ATL::CTempBuffer<char,128,ATL::CCRTAllocator>::Allocate
_TEXT	ENDS
PUBLIC	?Init@?$CW2AEX@$0IA@@ATL@@AAEXPB_WI@Z		; ATL::CW2AEX<128>::Init
; Function compile flags: /Odt /RTCsu
; File d:\program files (x86)\microsoft visual studio .net 2003\vc7\atlmfc\include\atlconv.h
;	COMDAT ??0?$CW2AEX@$0IA@@ATL@@QAE@PB_W@Z
_TEXT	SEGMENT
_this$ = -4						; size = 4
_psz$ = 8						; size = 4
??0?$CW2AEX@$0IA@@ATL@@QAE@PB_W@Z PROC NEAR		; ATL::CW2AEX<128>::CW2AEX<128>, COMDAT
; _this$ = ecx

; 419  : 	{

  00000	55		 push	 ebp
  00001	8b ec		 mov	 ebp, esp
  00003	51		 push	 ecx
  00004	c7 45 fc cc cc
	cc cc		 mov	 DWORD PTR [ebp-4], -858993460 ; ccccccccH
  0000b	89 4d fc	 mov	 DWORD PTR _this$[ebp], ecx
  0000e	8b 45 fc	 mov	 eax, DWORD PTR _this$[ebp]
  00011	83 c0 04	 add	 eax, 4
  00014	8b 4d fc	 mov	 ecx, DWORD PTR _this$[ebp]
  00017	89 01		 mov	 DWORD PTR [ecx], eax

; 420  : 		Init( psz, _AtlGetConversionACP() );

  00019	e8 00 00 00 00	 call	 ?_AtlGetConversionACP@ATL@@YGIXZ ; ATL::_AtlGetConversionACP
  0001e	50		 push	 eax
  0001f	8b 55 08	 mov	 edx, DWORD PTR _psz$[ebp]
  00022	52		 push	 edx
  00023	8b 4d fc	 mov	 ecx, DWORD PTR _this$[ebp]
  00026	e8 00 00 00 00	 call	 ?Init@?$CW2AEX@$0IA@@ATL@@AAEXPB_WI@Z ; ATL::CW2AEX<128>::Init

; 421  : 	}

  0002b	8b 45 fc	 mov	 eax, DWORD PTR _this$[ebp]
  0002e	83 c4 04	 add	 esp, 4
  00031	3b ec		 cmp	 ebp, esp
  00033	e8 00 00 00 00	 call	 __RTC_CheckEsp
  00038	8b e5		 mov	 esp, ebp
  0003a	5d		 pop	 ebp
  0003b	c2 04 00	 ret	 4
??0?$CW2AEX@$0IA@@ATL@@QAE@PB_W@Z ENDP			; ATL::CW2AEX<128>::CW2AEX<128>
; Function compile flags: /Odt /RTCsu
_TEXT	ENDS
;	COMDAT ??1?$CW2AEX@$0IA@@ATL@@QAE@XZ
_TEXT	SEGMENT
_this$ = -4						; size = 4
??1?$CW2AEX@$0IA@@ATL@@QAE@XZ PROC NEAR			; ATL::CW2AEX<128>::~CW2AEX<128>, COMDAT
; _this$ = ecx

; 428  : 	{

  00000	55		 push	 ebp
  00001	8b ec		 mov	 ebp, esp
  00003	51		 push	 ecx
  00004	56		 push	 esi
  00005	c7 45 fc cc cc
	cc cc		 mov	 DWORD PTR [ebp-4], -858993460 ; ccccccccH
  0000c	89 4d fc	 mov	 DWORD PTR _this$[ebp], ecx

; 429  : 		if( m_psz != m_szBuffer )

  0000f	8b 45 fc	 mov	 eax, DWORD PTR _this$[ebp]
  00012	83 c0 04	 add	 eax, 4
  00015	8b 4d fc	 mov	 ecx, DWORD PTR _this$[ebp]
  00018	39 01		 cmp	 DWORD PTR [ecx], eax
  0001a	74 18		 je	 SHORT $L181589

; 430  : 		{
; 431  : 			free( m_psz );

  0001c	8b f4		 mov	 esi, esp
  0001e	8b 55 fc	 mov	 edx, DWORD PTR _this$[ebp]
  00021	8b 02		 mov	 eax, DWORD PTR [edx]
  00023	50		 push	 eax
  00024	ff 15 00 00 00
	00		 call	 DWORD PTR __imp__free
  0002a	83 c4 04	 add	 esp, 4
  0002d	3b f4		 cmp	 esi, esp
  0002f	e8 00 00 00 00	 call	 __RTC_CheckEsp
$L181589:

; 432  : 		}
; 433  : 	}

  00034	5e		 pop	 esi
  00035	83 c4 04	 add	 esp, 4
  00038	3b ec		 cmp	 ebp, esp
  0003a	e8 00 00 00 00	 call	 __RTC_CheckEsp
  0003f	8b e5		 mov	 esp, ebp
  00041	5d		 pop	 ebp
  00042	c3		 ret	 0
??1?$CW2AEX@$0IA@@ATL@@QAE@XZ ENDP			; ATL::CW2AEX<128>::~CW2AEX<128>
; Function compile flags: /Odt /RTCsu
_TEXT	ENDS
;	COMDAT ??B?$CW2AEX@$0IA@@ATL@@QBEPADXZ
_TEXT	SEGMENT
_this$ = -4						; size = 4
??B?$CW2AEX@$0IA@@ATL@@QBEPADXZ PROC NEAR		; ATL::CW2AEX<128>::operator char *, COMDAT
; _this$ = ecx

; 436  : 	{

  00000	55		 push	 ebp
  00001	8b ec		 mov	 ebp, esp
  00003	51		 push	 ecx
  00004	c7 45 fc cc cc
	cc cc		 mov	 DWORD PTR [ebp-4], -858993460 ; ccccccccH
  0000b	89 4d fc	 mov	 DWORD PTR _this$[ebp], ecx

; 437  : 		return( m_psz );

  0000e	8b 45 fc	 mov	 eax, DWORD PTR _this$[ebp]
  00011	8b 00		 mov	 eax, DWORD PTR [eax]

; 438  : 	}

  00013	8b e5		 mov	 esp, ebp
  00015	5d		 pop	 ebp
  00016	c3		 ret	 0
??B?$CW2AEX@$0IA@@ATL@@QBEPADXZ ENDP			; ATL::CW2AEX<128>::operator char *
_TEXT	ENDS
PUBLIC	??_C@_08GPODJFIN@m_p?5?$DN?$DN?50?$AA@		; `string'
PUBLIC	??_C@_0FH@BOCPFCEM@D?3?2Program?5Files?5?$CIx86?$CJ?2Microsoft@ ; `string'
PUBLIC	?AllocateHeap@?$CTempBuffer@D$0IA@VCCRTAllocator@ATL@@@ATL@@AAEXI@Z ; ATL::CTempBuffer<char,128,ATL::CCRTAllocator>::AllocateHeap
;	COMDAT ??_C@_08GPODJFIN@m_p?5?$DN?$DN?50?$AA@
; File d:\program files (x86)\microsoft visual studio .net 2003\vc7\atlmfc\include\atlalloc.h
CONST	SEGMENT
??_C@_08GPODJFIN@m_p?5?$DN?$DN?50?$AA@ DB 'm_p == 0', 00H ; `string'
CONST	ENDS
;	COMDAT ??_C@_0FH@BOCPFCEM@D?3?2Program?5Files?5?$CIx86?$CJ?2Microsoft@
CONST	SEGMENT
??_C@_0FH@BOCPFCEM@D?3?2Program?5Files?5?$CIx86?$CJ?2Microsoft@ DB 'D:\Pr'
	DB	'ogram Files (x86)\Microsoft Visual Studio .NET 2003\Vc7\atlmf'
	DB	'c\include\atlalloc.h', 00H			; `string'
; Function compile flags: /Odt /RTCsu
CONST	ENDS
;	COMDAT ?AllocateBytes@?$CTempBuffer@D$0IA@VCCRTAllocator@ATL@@@ATL@@QAEPADI@Z
_TEXT	SEGMENT
_this$ = -4						; size = 4
_nBytes$ = 8						; size = 4
?AllocateBytes@?$CTempBuffer@D$0IA@VCCRTAllocator@ATL@@@ATL@@QAEPADI@Z PROC NEAR ; ATL::CTempBuffer<char,128,ATL::CCRTAllocator>::AllocateBytes, COMDAT
; _this$ = ecx

; 276  : 	{

  00000	55		 push	 ebp
  00001	8b ec		 mov	 ebp, esp
  00003	51		 push	 ecx
  00004	56		 push	 esi
  00005	c7 45 fc cc cc
	cc cc		 mov	 DWORD PTR [ebp-4], -858993460 ; ccccccccH
  0000c	89 4d fc	 mov	 DWORD PTR _this$[ebp], ecx

; 277  : 		ATLASSERT( m_p == NULL );

  0000f	8b 45 fc	 mov	 eax, DWORD PTR _this$[ebp]
  00012	83 38 00	 cmp	 DWORD PTR [eax], 0
  00015	74 2b		 je	 SHORT $L193778
  00017	8b f4		 mov	 esi, esp
  00019	68 00 00 00 00	 push	 OFFSET FLAT:??_C@_08GPODJFIN@m_p?5?$DN?$DN?50?$AA@
  0001e	6a 00		 push	 0
  00020	68 15 01 00 00	 push	 277			; 00000115H
  00025	68 00 00 00 00	 push	 OFFSET FLAT:??_C@_0FH@BOCPFCEM@D?3?2Program?5Files?5?$CIx86?$CJ?2Microsoft@
  0002a	6a 02		 push	 2
  0002c	ff 15 00 00 00
	00		 call	 DWORD PTR __imp___CrtDbgReport
  00032	83 c4 14	 add	 esp, 20			; 00000014H
  00035	3b f4		 cmp	 esi, esp
  00037	e8 00 00 00 00	 call	 __RTC_CheckEsp
  0003c	83 f8 01	 cmp	 eax, 1
  0003f	75 01		 jne	 SHORT $L193778
  00041	cc		 int	 3
$L193778:

; 278  : 		if( nBytes > t_nFixedBytes )

  00042	81 7d 08 80 00
	00 00		 cmp	 DWORD PTR _nBytes$[ebp], 128 ; 00000080H
  00049	76 0e		 jbe	 SHORT $L183346

; 279  : 		{
; 280  : 			AllocateHeap( nBytes );

  0004b	8b 55 08	 mov	 edx, DWORD PTR _nBytes$[ebp]
  0004e	52		 push	 edx
  0004f	8b 4d fc	 mov	 ecx, DWORD PTR _this$[ebp]
  00052	e8 00 00 00 00	 call	 ?AllocateHeap@?$CTempBuffer@D$0IA@VCCRTAllocator@ATL@@@ATL@@AAEXI@Z ; ATL::CTempBuffer<char,128,ATL::CCRTAllocator>::AllocateHeap

; 281  : 		}
; 282  : 		else

  00057	eb 0b		 jmp	 SHORT $L183347
$L183346:

; 283  : 		{
; 284  : 			m_p = reinterpret_cast< T* >( m_abFixedBuffer );

  00059	8b 45 fc	 mov	 eax, DWORD PTR _this$[ebp]
  0005c	83 c0 04	 add	 eax, 4
  0005f	8b 4d fc	 mov	 ecx, DWORD PTR _this$[ebp]
  00062	89 01		 mov	 DWORD PTR [ecx], eax
$L183347:

; 285  : 		}
; 286  : 
; 287  : 		return( m_p );

  00064	8b 55 fc	 mov	 edx, DWORD PTR _this$[ebp]
  00067	8b 02		 mov	 eax, DWORD PTR [edx]

; 288  : 	}

  00069	5e		 pop	 esi
  0006a	83 c4 04	 add	 esp, 4
  0006d	3b ec		 cmp	 ebp, esp
  0006f	e8 00 00 00 00	 call	 __RTC_CheckEsp
  00074	8b e5		 mov	 esp, ebp
  00076	5d		 pop	 ebp
  00077	c2 04 00	 ret	 4
?AllocateBytes@?$CTempBuffer@D$0IA@VCCRTAllocator@ATL@@@ATL@@QAEPADI@Z ENDP ; ATL::CTempBuffer<char,128,ATL::CCRTAllocator>::AllocateBytes
; Function compile flags: /Odt /RTCsu
_TEXT	ENDS
;	COMDAT ?FreeHeap@?$CTempBuffer@D$0IA@VCCRTAllocator@ATL@@@ATL@@AAEXXZ
_TEXT	SEGMENT
_this$ = -4						; size = 4
?FreeHeap@?$CTempBuffer@D$0IA@VCCRTAllocator@ATL@@@ATL@@AAEXXZ PROC NEAR ; ATL::CTempBuffer<char,128,ATL::CCRTAllocator>::FreeHeap, COMDAT
; _this$ = ecx

; 312  : 	{

  00000	55		 push	 ebp
  00001	8b ec		 mov	 ebp, esp
  00003	51		 push	 ecx
  00004	c7 45 fc cc cc
	cc cc		 mov	 DWORD PTR [ebp-4], -858993460 ; ccccccccH
  0000b	89 4d fc	 mov	 DWORD PTR _this$[ebp], ecx

; 313  : 		Allocator::Free( m_p );

  0000e	8b 45 fc	 mov	 eax, DWORD PTR _this$[ebp]
  00011	8b 08		 mov	 ecx, DWORD PTR [eax]
  00013	51		 push	 ecx
  00014	e8 00 00 00 00	 call	 ?Free@CCRTAllocator@ATL@@SAXPAX@Z ; ATL::CCRTAllocator::Free
  00019	83 c4 04	 add	 esp, 4

; 314  : 	}

  0001c	83 c4 04	 add	 esp, 4
  0001f	3b ec		 cmp	 ebp, esp
  00021	e8 00 00 00 00	 call	 __RTC_CheckEsp
  00026	8b e5		 mov	 esp, ebp
  00028	5d		 pop	 ebp
  00029	c3		 ret	 0
?FreeHeap@?$CTempBuffer@D$0IA@VCCRTAllocator@ATL@@@ATL@@AAEXXZ ENDP ; ATL::CTempBuffer<char,128,ATL::CCRTAllocator>::FreeHeap
_TEXT	ENDS
PUBLIC	?AtlThrowLastWin32@ATL@@YGXXZ			; ATL::AtlThrowLastWin32
; Function compile flags: /Odt /RTCsu
; File d:\program files (x86)\microsoft visual studio .net 2003\vc7\atlmfc\include\atlconv.h
;	COMDAT ?Init@?$CW2AEX@$0IA@@ATL@@AAEXPB_WI@Z
_TEXT	SEGMENT
_nLengthA$ = -12					; size = 4
_nLengthW$ = -8						; size = 4
_this$ = -4						; size = 4
_psz$ = 8						; size = 4
_nCodePage$ = 12					; size = 4
?Init@?$CW2AEX@$0IA@@ATL@@AAEXPB_WI@Z PROC NEAR		; ATL::CW2AEX<128>::Init, COMDAT
; _this$ = ecx

; 442  : 	{

  00000	55		 push	 ebp
  00001	8b ec		 mov	 ebp, esp
  00003	83 ec 0c	 sub	 esp, 12			; 0000000cH
  00006	56		 push	 esi
  00007	c7 45 f4 cc cc
	cc cc		 mov	 DWORD PTR [ebp-12], -858993460 ; ccccccccH
  0000e	c7 45 f8 cc cc
	cc cc		 mov	 DWORD PTR [ebp-8], -858993460 ; ccccccccH
  00015	c7 45 fc cc cc
	cc cc		 mov	 DWORD PTR [ebp-4], -858993460 ; ccccccccH
  0001c	89 4d fc	 mov	 DWORD PTR _this$[ebp], ecx

; 443  : 		if (psz == NULL)

  0001f	83 7d 08 00	 cmp	 DWORD PTR _psz$[ebp], 0
  00023	75 0e		 jne	 SHORT $L183353

; 444  : 		{
; 445  : 			m_psz = NULL;

  00025	8b 45 fc	 mov	 eax, DWORD PTR _this$[ebp]
  00028	c7 00 00 00 00
	00		 mov	 DWORD PTR [eax], 0

; 446  : 			return;

  0002e	e9 8b 00 00 00	 jmp	 $L193780
$L183353:

; 447  : 		}
; 448  : 		int nLengthW = lstrlenW( psz )+1;

  00033	8b f4		 mov	 esi, esp
  00035	8b 4d 08	 mov	 ecx, DWORD PTR _psz$[ebp]
  00038	51		 push	 ecx
  00039	ff 15 00 00 00
	00		 call	 DWORD PTR __imp__lstrlenW@4
  0003f	3b f4		 cmp	 esi, esp
  00041	e8 00 00 00 00	 call	 __RTC_CheckEsp
  00046	83 c0 01	 add	 eax, 1
  00049	89 45 f8	 mov	 DWORD PTR _nLengthW$[ebp], eax

; 449  : 		int nLengthA = nLengthW*2;

  0004c	8b 55 f8	 mov	 edx, DWORD PTR _nLengthW$[ebp]
  0004f	d1 e2		 shl	 edx, 1
  00051	89 55 f4	 mov	 DWORD PTR _nLengthA$[ebp], edx

; 450  : 
; 451  : 		if( nLengthA > t_nBufferLength )

  00054	81 7d f4 80 00
	00 00		 cmp	 DWORD PTR _nLengthA$[ebp], 128 ; 00000080H
  0005b	7e 2d		 jle	 SHORT $L183356

; 452  : 		{
; 453  : 			m_psz = static_cast< LPSTR >( malloc( nLengthA*sizeof( char ) ) );

  0005d	8b f4		 mov	 esi, esp
  0005f	8b 45 f4	 mov	 eax, DWORD PTR _nLengthA$[ebp]
  00062	50		 push	 eax
  00063	ff 15 00 00 00
	00		 call	 DWORD PTR __imp__malloc
  00069	83 c4 04	 add	 esp, 4
  0006c	3b f4		 cmp	 esi, esp
  0006e	e8 00 00 00 00	 call	 __RTC_CheckEsp
  00073	8b 4d fc	 mov	 ecx, DWORD PTR _this$[ebp]
  00076	89 01		 mov	 DWORD PTR [ecx], eax

; 454  : 			if (m_psz == NULL)

  00078	8b 55 fc	 mov	 edx, DWORD PTR _this$[ebp]
  0007b	83 3a 00	 cmp	 DWORD PTR [edx], 0
  0007e	75 0a		 jne	 SHORT $L183356

; 455  : 			{
; 456  : 				AtlThrow( E_OUTOFMEMORY );

  00080	68 0e 00 07 80	 push	 -2147024882		; 8007000eH
  00085	e8 00 00 00 00	 call	 ?AtlThrow@ATL@@YGXJ@Z	; ATL::AtlThrow
$L183356:

; 457  : 			}
; 458  : 		}
; 459  : 
; 460  : 		if (::WideCharToMultiByte( nCodePage, 0, psz, nLengthW, m_psz, nLengthA, NULL, NULL ) == 0)

  0008a	8b f4		 mov	 esi, esp
  0008c	6a 00		 push	 0
  0008e	6a 00		 push	 0
  00090	8b 45 f4	 mov	 eax, DWORD PTR _nLengthA$[ebp]
  00093	50		 push	 eax
  00094	8b 4d fc	 mov	 ecx, DWORD PTR _this$[ebp]
  00097	8b 11		 mov	 edx, DWORD PTR [ecx]
  00099	52		 push	 edx
  0009a	8b 45 f8	 mov	 eax, DWORD PTR _nLengthW$[ebp]
  0009d	50		 push	 eax
  0009e	8b 4d 08	 mov	 ecx, DWORD PTR _psz$[ebp]
  000a1	51		 push	 ecx
  000a2	6a 00		 push	 0
  000a4	8b 55 0c	 mov	 edx, DWORD PTR _nCodePage$[ebp]
  000a7	52		 push	 edx
  000a8	ff 15 00 00 00
	00		 call	 DWORD PTR __imp__WideCharToMultiByte@32
  000ae	3b f4		 cmp	 esi, esp
  000b0	e8 00 00 00 00	 call	 __RTC_CheckEsp
  000b5	85 c0		 test	 eax, eax
  000b7	75 05		 jne	 SHORT $L193780

; 461  : 		{
; 462  : 			AtlThrowLastWin32();

  000b9	e8 00 00 00 00	 call	 ?AtlThrowLastWin32@ATL@@YGXXZ ; ATL::AtlThrowLastWin32
$L193780:

; 463  : 		}
; 464  : 	}

  000be	5e		 pop	 esi
  000bf	83 c4 0c	 add	 esp, 12			; 0000000cH
  000c2	3b ec		 cmp	 ebp, esp
  000c4	e8 00 00 00 00	 call	 __RTC_CheckEsp
  000c9	8b e5		 mov	 esp, ebp
  000cb	5d		 pop	 ebp
  000cc	c2 08 00	 ret	 8
?Init@?$CW2AEX@$0IA@@ATL@@AAEXPB_WI@Z ENDP		; ATL::CW2AEX<128>::Init
_TEXT	ENDS
EXTRN	__imp__GetLastError@0:NEAR
; Function compile flags: /Odt /RTCsu
; File d:\program files (x86)\microsoft visual studio .net 2003\vc7\atlmfc\include\atlexcept.h
;	COMDAT ?AtlThrowLastWin32@ATL@@YGXXZ
_TEXT	SEGMENT
tv69 = -8						; size = 4
_dwError$ = -4						; size = 4
?AtlThrowLastWin32@ATL@@YGXXZ PROC NEAR			; ATL::AtlThrowLastWin32, COMDAT

; 80   : {

  00000	55		 push	 ebp
  00001	8b ec		 mov	 ebp, esp
  00003	83 ec 08	 sub	 esp, 8
  00006	56		 push	 esi
  00007	c7 45 f8 cc cc
	cc cc		 mov	 DWORD PTR [ebp-8], -858993460 ; ccccccccH
  0000e	c7 45 fc cc cc
	cc cc		 mov	 DWORD PTR [ebp-4], -858993460 ; ccccccccH

; 81   : 	DWORD dwError = ::GetLastError();

  00015	8b f4		 mov	 esi, esp
  00017	ff 15 00 00 00
	00		 call	 DWORD PTR __imp__GetLastError@0
  0001d	3b f4		 cmp	 esi, esp
  0001f	e8 00 00 00 00	 call	 __RTC_CheckEsp
  00024	89 45 fc	 mov	 DWORD PTR _dwError$[ebp], eax

; 82   : 	AtlThrow( HRESULT_FROM_WIN32( dwError ) );

  00027	83 7d fc 00	 cmp	 DWORD PTR _dwError$[ebp], 0
  0002b	7f 08		 jg	 SHORT $L193782
  0002d	8b 45 fc	 mov	 eax, DWORD PTR _dwError$[ebp]
  00030	89 45 f8	 mov	 DWORD PTR tv69[ebp], eax
  00033	eb 18		 jmp	 SHORT $L193783
$L193782:
  00035	8b 4d fc	 mov	 ecx, DWORD PTR _dwError$[ebp]
  00038	81 e1 ff ff 00
	00		 and	 ecx, 65535		; 0000ffffH
  0003e	81 c9 00 00 07
	00		 or	 ecx, 458752		; 00070000H
  00044	81 c9 00 00 00
	80		 or	 ecx, -2147483648	; 80000000H
  0004a	89 4d f8	 mov	 DWORD PTR tv69[ebp], ecx
$L193783:
  0004d	8b 55 f8	 mov	 edx, DWORD PTR tv69[ebp]
  00050	52		 push	 edx
  00051	e8 00 00 00 00	 call	 ?AtlThrow@ATL@@YGXJ@Z	; ATL::AtlThrow
$L193781:

; 83   : }

  00056	5e		 pop	 esi
  00057	83 c4 08	 add	 esp, 8
  0005a	3b ec		 cmp	 ebp, esp
  0005c	e8 00 00 00 00	 call	 __RTC_CheckEsp
  00061	8b e5		 mov	 esp, ebp
  00063	5d		 pop	 ebp
  00064	c3		 ret	 0
?AtlThrowLastWin32@ATL@@YGXXZ ENDP			; ATL::AtlThrowLastWin32
; Function compile flags: /Odt /RTCsu
; File d:\program files (x86)\microsoft visual studio .net 2003\vc7\atlmfc\include\atlalloc.h
_TEXT	ENDS
;	COMDAT ?GetData@CAtlSafeAllocBufferNode@?$CAtlSafeAllocBufferManager@VCCRTAllocator@ATL@@@_ATL_SAFE_ALLOCA_IMPL@ATL@@QAEPAXXZ
_TEXT	SEGMENT
_this$ = -4						; size = 4
?GetData@CAtlSafeAllocBufferNode@?$CAtlSafeAllocBufferManager@VCCRTAllocator@ATL@@@_ATL_SAFE_ALLOCA_IMPL@ATL@@QAEPAXXZ PROC NEAR ; ATL::_ATL_SAFE_ALLOCA_IMPL::CAtlSafeAllocBufferManager<ATL::CCRTAllocator>::CAtlSafeAllocBufferNode::GetData, COMDAT
; _this$ = ecx

; 365  : 		{

  00000	55		 push	 ebp
  00001	8b ec		 mov	 ebp, esp
  00003	51		 push	 ecx
  00004	c7 45 fc cc cc
	cc cc		 mov	 DWORD PTR [ebp-4], -858993460 ; ccccccccH
  0000b	89 4d fc	 mov	 DWORD PTR _this$[ebp], ecx

; 366  : 			return (this + 1);

  0000e	8b 45 fc	 mov	 eax, DWORD PTR _this$[ebp]
  00011	83 c0 08	 add	 eax, 8

; 367  : 		}

  00014	8b e5		 mov	 esp, ebp
  00016	5d		 pop	 ebp
  00017	c3		 ret	 0
?GetData@CAtlSafeAllocBufferNode@?$CAtlSafeAllocBufferManager@VCCRTAllocator@ATL@@@_ATL_SAFE_ALLOCA_IMPL@ATL@@QAEPAXXZ ENDP ; ATL::_ATL_SAFE_ALLOCA_IMPL::CAtlSafeAllocBufferManager<ATL::CCRTAllocator>::CAtlSafeAllocBufferNode::GetData
; Function compile flags: /Odt /RTCsu
_TEXT	ENDS
;	COMDAT ?AllocateHeap@?$CTempBuffer@D$0IA@VCCRTAllocator@ATL@@@ATL@@AAEXI@Z
_TEXT	SEGMENT
_p$ = -8						; size = 4
_this$ = -4						; size = 4
_nBytes$ = 8						; size = 4
?AllocateHeap@?$CTempBuffer@D$0IA@VCCRTAllocator@ATL@@@ATL@@AAEXI@Z PROC NEAR ; ATL::CTempBuffer<char,128,ATL::CCRTAllocator>::AllocateHeap, COMDAT
; _this$ = ecx

; 292  : 	{

  00000	55		 push	 ebp
  00001	8b ec		 mov	 ebp, esp
  00003	83 ec 08	 sub	 esp, 8
  00006	c7 45 f8 cc cc
	cc cc		 mov	 DWORD PTR [ebp-8], -858993460 ; ccccccccH
  0000d	c7 45 fc cc cc
	cc cc		 mov	 DWORD PTR [ebp-4], -858993460 ; ccccccccH
  00014	89 4d fc	 mov	 DWORD PTR _this$[ebp], ecx

; 293  : 		T* p = static_cast< T* >( Allocator::Allocate( nBytes ) );

  00017	8b 45 08	 mov	 eax, DWORD PTR _nBytes$[ebp]
  0001a	50		 push	 eax
  0001b	e8 00 00 00 00	 call	 ?Allocate@CCRTAllocator@ATL@@SAPAXI@Z ; ATL::CCRTAllocator::Allocate
  00020	83 c4 04	 add	 esp, 4
  00023	89 45 f8	 mov	 DWORD PTR _p$[ebp], eax

; 294  : 		if( p == NULL )

  00026	83 7d f8 00	 cmp	 DWORD PTR _p$[ebp], 0
  0002a	75 0a		 jne	 SHORT $L184832

; 295  : 		{
; 296  : 			AtlThrow( E_OUTOFMEMORY );

  0002c	68 0e 00 07 80	 push	 -2147024882		; 8007000eH
  00031	e8 00 00 00 00	 call	 ?AtlThrow@ATL@@YGXJ@Z	; ATL::AtlThrow
$L184832:

; 297  : 		}
; 298  : 		m_p = p;

  00036	8b 4d fc	 mov	 ecx, DWORD PTR _this$[ebp]
  00039	8b 55 f8	 mov	 edx, DWORD PTR _p$[ebp]
  0003c	89 11		 mov	 DWORD PTR [ecx], edx
$L193785:

; 299  : 	}

  0003e	83 c4 08	 add	 esp, 8
  00041	3b ec		 cmp	 ebp, esp
  00043	e8 00 00 00 00	 call	 __RTC_CheckEsp
  00048	8b e5		 mov	 esp, ebp
  0004a	5d		 pop	 ebp
  0004b	c2 04 00	 ret	 4
?AllocateHeap@?$CTempBuffer@D$0IA@VCCRTAllocator@ATL@@@ATL@@AAEXI@Z ENDP ; ATL::CTempBuffer<char,128,ATL::CCRTAllocator>::AllocateHeap
_TEXT	ENDS
EXTRN	__imp_??0exception@@QAE@ABV0@@Z:NEAR
;	COMDAT xdata$x
xdata$x	SEGMENT
$T193792 DD	0ffffffffH
	DD	FLAT:$L193787
$T193790 DD	019930520H
	DD	01H
	DD	FLAT:$T193792
	DD	2 DUP(00H)
	DD	2 DUP(00H)
; Function compile flags: /Odt /RTCsu
xdata$x	ENDS
;	COMDAT ??0logic_error@std@@QAE@ABV01@@Z
_TEXT	SEGMENT
_this$ = -16						; size = 4
__$EHRec$ = -12						; size = 12
___that$ = 8						; size = 4
??0logic_error@std@@QAE@ABV01@@Z PROC NEAR		; std::logic_error::logic_error, COMDAT
; _this$ = ecx
  00000	55		 push	 ebp
  00001	8b ec		 mov	 ebp, esp
  00003	6a ff		 push	 -1
  00005	68 00 00 00 00	 push	 __ehhandler$??0logic_error@std@@QAE@ABV01@@Z
  0000a	64 a1 00 00 00
	00		 mov	 eax, DWORD PTR fs:__except_list
  00010	50		 push	 eax
  00011	64 89 25 00 00
	00 00		 mov	 DWORD PTR fs:__except_list, esp
  00018	51		 push	 ecx
  00019	56		 push	 esi
  0001a	c7 45 f0 cc cc
	cc cc		 mov	 DWORD PTR [ebp-16], -858993460 ; ccccccccH
  00021	89 4d f0	 mov	 DWORD PTR _this$[ebp], ecx
  00024	8b f4		 mov	 esi, esp
  00026	8b 45 08	 mov	 eax, DWORD PTR ___that$[ebp]
  00029	50		 push	 eax
  0002a	8b 4d f0	 mov	 ecx, DWORD PTR _this$[ebp]
  0002d	ff 15 00 00 00
	00		 call	 DWORD PTR __imp_??0exception@@QAE@ABV0@@Z
  00033	3b f4		 cmp	 esi, esp
  00035	e8 00 00 00 00	 call	 __RTC_CheckEsp
  0003a	c7 45 fc 00 00
	00 00		 mov	 DWORD PTR __$EHRec$[ebp+8], 0
  00041	8b 4d f0	 mov	 ecx, DWORD PTR _this$[ebp]
  00044	c7 01 00 00 00
	00		 mov	 DWORD PTR [ecx], OFFSET FLAT:??_7logic_error@std@@6B@
  0004a	8b 55 08	 mov	 edx, DWORD PTR ___that$[ebp]
  0004d	83 c2 0c	 add	 edx, 12			; 0000000cH
  00050	8b f4		 mov	 esi, esp
  00052	52		 push	 edx
  00053	8b 4d f0	 mov	 ecx, DWORD PTR _this$[ebp]
  00056	83 c1 0c	 add	 ecx, 12			; 0000000cH
  00059	ff 15 00 00 00
	00		 call	 DWORD PTR __imp_??0?$basic_string@DU?$char_traits@D@std@@V?$allocator@D@2@@std@@QAE@ABV01@@Z
  0005f	3b f4		 cmp	 esi, esp
  00061	e8 00 00 00 00	 call	 __RTC_CheckEsp
  00066	c7 45 fc ff ff
	ff ff		 mov	 DWORD PTR __$EHRec$[ebp+8], -1
  0006d	8b 45 f0	 mov	 eax, DWORD PTR _this$[ebp]
  00070	8b 4d f4	 mov	 ecx, DWORD PTR __$EHRec$[ebp]
  00073	64 89 0d 00 00
	00 00		 mov	 DWORD PTR fs:__except_list, ecx
  0007a	5e		 pop	 esi
  0007b	83 c4 10	 add	 esp, 16			; 00000010H
  0007e	3b ec		 cmp	 ebp, esp
  00080	e8 00 00 00 00	 call	 __RTC_CheckEsp
  00085	8b e5		 mov	 esp, ebp
  00087	5d		 pop	 ebp
  00088	c2 04 00	 ret	 4
_TEXT	ENDS
;	COMDAT text$x
text$x	SEGMENT
$L193787:
  00000	8b f4		 mov	 esi, esp
  00002	8b 4d f0	 mov	 ecx, DWORD PTR _this$[ebp]
  00005	ff 15 00 00 00
	00		 call	 DWORD PTR __imp_??1exception@@UAE@XZ
  0000b	3b f4		 cmp	 esi, esp
  0000d	e9 00 00 00 00	 jmp	 __RTC_CheckEsp
__ehhandler$??0logic_error@std@@QAE@ABV01@@Z:
  00012	b8 00 00 00 00	 mov	 eax, OFFSET FLAT:$T193790
  00017	e9 00 00 00 00	 jmp	 ___CxxFrameHandler
text$x	ENDS
??0logic_error@std@@QAE@ABV01@@Z ENDP			; std::logic_error::logic_error
EXTRN	__imp_??Y?$basic_string@DU?$char_traits@D@std@@V?$allocator@D@2@@std@@QAEAAV01@ABV01@@Z:NEAR
;	COMDAT xdata$x
; File d:\program files (x86)\microsoft visual studio .net 2003\vc7\include\string
xdata$x	SEGMENT
$T193804 DD	0ffffffffH
	DD	FLAT:$L193798
	DD	00H
	DD	FLAT:$L193797
$T193802 DD	019930520H
	DD	02H
	DD	FLAT:$T193804
	DD	2 DUP(00H)
	DD	2 DUP(00H)
; Function compile flags: /Odt /RTCsu
xdata$x	ENDS
;	COMDAT ??$?HDU?$char_traits@D@std@@V?$allocator@D@1@@std@@YA?AV?$basic_string@DU?$char_traits@D@std@@V?$allocator@D@2@@0@PBDABV10@@Z
_TEXT	SEGMENT
tv77 = -52						; size = 4
tv82 = -48						; size = 4
$T193799 = -44						; size = 4
$T193796 = -40						; size = 28
__$EHRec$ = -12						; size = 12
___$ReturnUdt$ = 8					; size = 4
__Left$ = 12						; size = 4
__Right$ = 16						; size = 4
??$?HDU?$char_traits@D@std@@V?$allocator@D@1@@std@@YA?AV?$basic_string@DU?$char_traits@D@std@@V?$allocator@D@2@@0@PBDABV10@@Z PROC NEAR ; std::operator+<char,std::char_traits<char>,std::allocator<char> >, COMDAT

; 31   : 	{	// return NTCS + string

  00000	55		 push	 ebp
  00001	8b ec		 mov	 ebp, esp
  00003	6a ff		 push	 -1
  00005	68 00 00 00 00	 push	 __ehhandler$??$?HDU?$char_traits@D@std@@V?$allocator@D@1@@std@@YA?AV?$basic_string@DU?$char_traits@D@std@@V?$allocator@D@2@@0@PBDABV10@@Z
  0000a	64 a1 00 00 00
	00		 mov	 eax, DWORD PTR fs:__except_list
  00010	50		 push	 eax
  00011	64 89 25 00 00
	00 00		 mov	 DWORD PTR fs:__except_list, esp
  00018	83 ec 28	 sub	 esp, 40			; 00000028H
  0001b	56		 push	 esi
  0001c	57		 push	 edi
  0001d	8d 7d cc	 lea	 edi, DWORD PTR [ebp-52]
  00020	b9 0a 00 00 00	 mov	 ecx, 10			; 0000000aH
  00025	b8 cc cc cc cc	 mov	 eax, -858993460		; ccccccccH
  0002a	f3 ab		 rep stosd
  0002c	c7 45 d4 00 00
	00 00		 mov	 DWORD PTR $T193799[ebp], 0

; 32   : 	return (basic_string<_Elem, _Traits, _Alloc>(_Left) += _Right);

  00033	8b f4		 mov	 esi, esp
  00035	8b 45 0c	 mov	 eax, DWORD PTR __Left$[ebp]
  00038	50		 push	 eax
  00039	8d 4d d8	 lea	 ecx, DWORD PTR $T193796[ebp]
  0003c	ff 15 00 00 00
	00		 call	 DWORD PTR __imp_??0?$basic_string@DU?$char_traits@D@std@@V?$allocator@D@2@@std@@QAE@PBD@Z
  00042	3b f4		 cmp	 esi, esp
  00044	e8 00 00 00 00	 call	 __RTC_CheckEsp
  00049	89 45 d0	 mov	 DWORD PTR tv82[ebp], eax
  0004c	8b 4d d0	 mov	 ecx, DWORD PTR tv82[ebp]
  0004f	89 4d cc	 mov	 DWORD PTR tv77[ebp], ecx
  00052	c7 45 fc 01 00
	00 00		 mov	 DWORD PTR __$EHRec$[ebp+8], 1
  00059	8b f4		 mov	 esi, esp
  0005b	8b 55 10	 mov	 edx, DWORD PTR __Right$[ebp]
  0005e	52		 push	 edx
  0005f	8b 4d cc	 mov	 ecx, DWORD PTR tv77[ebp]
  00062	ff 15 00 00 00
	00		 call	 DWORD PTR __imp_??Y?$basic_string@DU?$char_traits@D@std@@V?$allocator@D@2@@std@@QAEAAV01@ABV01@@Z
  00068	3b f4		 cmp	 esi, esp
  0006a	e8 00 00 00 00	 call	 __RTC_CheckEsp
  0006f	8b f4		 mov	 esi, esp
  00071	50		 push	 eax
  00072	8b 4d 08	 mov	 ecx, DWORD PTR ___$ReturnUdt$[ebp]
  00075	ff 15 00 00 00
	00		 call	 DWORD PTR __imp_??0?$basic_string@DU?$char_traits@D@std@@V?$allocator@D@2@@std@@QAE@ABV01@@Z
  0007b	3b f4		 cmp	 esi, esp
  0007d	e8 00 00 00 00	 call	 __RTC_CheckEsp
  00082	8b 45 d4	 mov	 eax, DWORD PTR $T193799[ebp]
  00085	83 c8 01	 or	 eax, 1
  00088	89 45 d4	 mov	 DWORD PTR $T193799[ebp], eax
  0008b	c6 45 fc 00	 mov	 BYTE PTR __$EHRec$[ebp+8], 0
  0008f	8b f4		 mov	 esi, esp
  00091	8d 4d d8	 lea	 ecx, DWORD PTR $T193796[ebp]
  00094	ff 15 00 00 00
	00		 call	 DWORD PTR __imp_??1?$basic_string@DU?$char_traits@D@std@@V?$allocator@D@2@@std@@QAE@XZ
  0009a	3b f4		 cmp	 esi, esp
  0009c	e8 00 00 00 00	 call	 __RTC_CheckEsp
  000a1	8b 45 08	 mov	 eax, DWORD PTR ___$ReturnUdt$[ebp]

; 33   : 	}

  000a4	8b 4d f4	 mov	 ecx, DWORD PTR __$EHRec$[ebp]
  000a7	64 89 0d 00 00
	00 00		 mov	 DWORD PTR fs:__except_list, ecx
  000ae	5f		 pop	 edi
  000af	5e		 pop	 esi
  000b0	83 c4 34	 add	 esp, 52			; 00000034H
  000b3	3b ec		 cmp	 ebp, esp
  000b5	e8 00 00 00 00	 call	 __RTC_CheckEsp
  000ba	8b e5		 mov	 esp, ebp
  000bc	5d		 pop	 ebp
  000bd	c3		 ret	 0
_TEXT	ENDS
;	COMDAT text$x
text$x	SEGMENT
$L193797:
  00000	8b f4		 mov	 esi, esp
  00002	8d 4d d8	 lea	 ecx, DWORD PTR $T193796[ebp]
  00005	ff 15 00 00 00
	00		 call	 DWORD PTR __imp_??1?$basic_string@DU?$char_traits@D@std@@V?$allocator@D@2@@std@@QAE@XZ
  0000b	3b f4		 cmp	 esi, esp
  0000d	e9 00 00 00 00	 jmp	 __RTC_CheckEsp
$L193798:
  00012	8b 45 d4	 mov	 eax, DWORD PTR $T193799[ebp]
  00015	83 e0 01	 and	 eax, 1
  00018	0f 84 16 00 00
	00		 je	 $L193800
  0001e	83 65 d4 fe	 and	 DWORD PTR $T193799[ebp], -2 ; fffffffeH
  00022	8b f4		 mov	 esi, esp
  00024	8b 4d 08	 mov	 ecx, DWORD PTR ___$ReturnUdt$[ebp]
  00027	ff 15 00 00 00
	00		 call	 DWORD PTR __imp_??1?$basic_string@DU?$char_traits@D@std@@V?$allocator@D@2@@std@@QAE@XZ
  0002d	3b f4		 cmp	 esi, esp
  0002f	e9 00 00 00 00	 jmp	 __RTC_CheckEsp
$L193800:
  00034	c3		 ret	 0
__ehhandler$??$?HDU?$char_traits@D@std@@V?$allocator@D@1@@std@@YA?AV?$basic_string@DU?$char_traits@D@std@@V?$allocator@D@2@@0@PBDABV10@@Z:
  00035	b8 00 00 00 00	 mov	 eax, OFFSET FLAT:$T193802
  0003a	e9 00 00 00 00	 jmp	 ___CxxFrameHandler
text$x	ENDS
??$?HDU?$char_traits@D@std@@V?$allocator@D@1@@std@@YA?AV?$basic_string@DU?$char_traits@D@std@@V?$allocator@D@2@@0@PBDABV10@@Z ENDP ; std::operator+<char,std::char_traits<char>,std::allocator<char> >
CRT$XCU	SEGMENT
_$S6	DD	FLAT:_$E5
; Function compile flags: /Odt /RTCsu
; File d:\boxgit\playbox\playbox\dev\prj\playbox\src\appconfig\config\configsettingdef.h
CRT$XCU	ENDS
;	COMDAT _$E5
text$yc	SEGMENT
_$E5	PROC NEAR					; COMDAT

; 25   : 	CONF_SETTING_SKIN_IDX,				TYPE_CONFIG_STR,

  00000	55		 push	 ebp
  00001	8b ec		 mov	 ebp, esp
  00003	a1 00 00 00 00	 mov	 eax, DWORD PTR _CONF_SETTING_SKIN_IDX
  00008	a3 00 00 00 00	 mov	 DWORD PTR _CONF_SETTING, eax
  0000d	8b 0d 00 00 00
	00		 mov	 ecx, DWORD PTR _TYPE_CONFIG_STR
  00013	89 0d 04 00 00
	00		 mov	 DWORD PTR _CONF_SETTING+4, ecx

; 26   : 	CONF_SETTING_CONFIG_MAIN_PAGE,		TYPE_CONFIG_STR,

  00019	8b 15 00 00 00
	00		 mov	 edx, DWORD PTR _CONF_SETTING_CONFIG_MAIN_PAGE
  0001f	89 15 08 00 00
	00		 mov	 DWORD PTR _CONF_SETTING+8, edx
  00025	a1 00 00 00 00	 mov	 eax, DWORD PTR _TYPE_CONFIG_STR
  0002a	a3 0c 00 00 00	 mov	 DWORD PTR _CONF_SETTING+12, eax

; 27   : 	CONF_SETTING_CONFIG_PROBLEM_REPORT,	TYPE_CONFIG_STR,

  0002f	8b 0d 00 00 00
	00		 mov	 ecx, DWORD PTR _CONF_SETTING_CONFIG_PROBLEM_REPORT
  00035	89 0d 10 00 00
	00		 mov	 DWORD PTR _CONF_SETTING+16, ecx
  0003b	8b 15 00 00 00
	00		 mov	 edx, DWORD PTR _TYPE_CONFIG_STR
  00041	89 15 14 00 00
	00		 mov	 DWORD PTR _CONF_SETTING+20, edx

; 28   : 	CONF_SETTING_CONFIG_HOME_PAGE,		TYPE_CONFIG_STR,

  00047	a1 00 00 00 00	 mov	 eax, DWORD PTR _CONF_SETTING_CONFIG_HOME_PAGE
  0004c	a3 18 00 00 00	 mov	 DWORD PTR _CONF_SETTING+24, eax
  00051	8b 0d 00 00 00
	00		 mov	 ecx, DWORD PTR _TYPE_CONFIG_STR
  00057	89 0d 1c 00 00
	00		 mov	 DWORD PTR _CONF_SETTING+28, ecx

; 29   : 	CONF_SETTING_CONFIG_IFASKEXIT,		TYPE_CONFIG_BOOL,

  0005d	8b 15 00 00 00
	00		 mov	 edx, DWORD PTR _CONF_SETTING_CONFIG_IFASKEXIT
  00063	89 15 20 00 00
	00		 mov	 DWORD PTR _CONF_SETTING+32, edx
  00069	a1 00 00 00 00	 mov	 eax, DWORD PTR _TYPE_CONFIG_BOOL
  0006e	a3 24 00 00 00	 mov	 DWORD PTR _CONF_SETTING+36, eax

; 30   : 	CONF_SETTING_CONFIG_EXITCHOICE,		TYPE_CONFIG_BOOL,

  00073	8b 0d 00 00 00
	00		 mov	 ecx, DWORD PTR _CONF_SETTING_CONFIG_EXITCHOICE
  00079	89 0d 28 00 00
	00		 mov	 DWORD PTR _CONF_SETTING+40, ecx
  0007f	8b 15 00 00 00
	00		 mov	 edx, DWORD PTR _TYPE_CONFIG_BOOL
  00085	89 15 2c 00 00
	00		 mov	 DWORD PTR _CONF_SETTING+44, edx

; 31   : 	CONF_SETTING_LOGIN_USER_NAME,		TYPE_CONFIG_STR,

  0008b	a1 00 00 00 00	 mov	 eax, DWORD PTR _CONF_SETTING_LOGIN_USER_NAME
  00090	a3 30 00 00 00	 mov	 DWORD PTR _CONF_SETTING+48, eax
  00095	8b 0d 00 00 00
	00		 mov	 ecx, DWORD PTR _TYPE_CONFIG_STR
  0009b	89 0d 34 00 00
	00		 mov	 DWORD PTR _CONF_SETTING+52, ecx

; 32   : 	CONF_SETTING_LOGIN_PASSWORD,		TYPE_CONFIG_STR,

  000a1	8b 15 00 00 00
	00		 mov	 edx, DWORD PTR _CONF_SETTING_LOGIN_PASSWORD
  000a7	89 15 38 00 00
	00		 mov	 DWORD PTR _CONF_SETTING+56, edx
  000ad	a1 00 00 00 00	 mov	 eax, DWORD PTR _TYPE_CONFIG_STR
  000b2	a3 3c 00 00 00	 mov	 DWORD PTR _CONF_SETTING+60, eax

; 33   : 	CONF_SETTING_NETID,					TYPE_CONFIG_STR,

  000b7	8b 0d 00 00 00
	00		 mov	 ecx, DWORD PTR _CONF_SETTING_NETID
  000bd	89 0d 40 00 00
	00		 mov	 DWORD PTR _CONF_SETTING+64, ecx
  000c3	8b 15 00 00 00
	00		 mov	 edx, DWORD PTR _TYPE_CONFIG_STR
  000c9	89 15 44 00 00
	00		 mov	 DWORD PTR _CONF_SETTING+68, edx

; 34   : 	CONF_SETTING_COLOR,					TYPE_CONFIG_INT,

  000cf	a1 00 00 00 00	 mov	 eax, DWORD PTR _CONF_SETTING_COLOR
  000d4	a3 48 00 00 00	 mov	 DWORD PTR _CONF_SETTING+72, eax
  000d9	8b 0d 00 00 00
	00		 mov	 ecx, DWORD PTR _TYPE_CONFIG_INT
  000df	89 0d 4c 00 00
	00		 mov	 DWORD PTR _CONF_SETTING+76, ecx

; 35   : 	CONF_SETTING_LIGHT,					TYPE_CONFIG_INT,

  000e5	8b 15 00 00 00
	00		 mov	 edx, DWORD PTR _CONF_SETTING_LIGHT
  000eb	89 15 50 00 00
	00		 mov	 DWORD PTR _CONF_SETTING+80, edx
  000f1	a1 00 00 00 00	 mov	 eax, DWORD PTR _TYPE_CONFIG_INT
  000f6	a3 54 00 00 00	 mov	 DWORD PTR _CONF_SETTING+84, eax

; 36   : 	CONF_SETTING_COLOR_BTN_INDEX,		TYPE_CONFIG_INT,

  000fb	8b 0d 00 00 00
	00		 mov	 ecx, DWORD PTR _CONF_SETTING_COLOR_BTN_INDEX
  00101	89 0d 58 00 00
	00		 mov	 DWORD PTR _CONF_SETTING+88, ecx
  00107	8b 15 00 00 00
	00		 mov	 edx, DWORD PTR _TYPE_CONFIG_INT
  0010d	89 15 5c 00 00
	00		 mov	 DWORD PTR _CONF_SETTING+92, edx

; 37   : 	CONF_SETTING_COLOR_USER,			TYPE_CONFIG_INT,

  00113	a1 00 00 00 00	 mov	 eax, DWORD PTR _CONF_SETTING_COLOR_USER
  00118	a3 60 00 00 00	 mov	 DWORD PTR _CONF_SETTING+96, eax
  0011d	8b 0d 00 00 00
	00		 mov	 ecx, DWORD PTR _TYPE_CONFIG_INT
  00123	89 0d 64 00 00
	00		 mov	 DWORD PTR _CONF_SETTING+100, ecx

; 38   : 	CONF_SETTING_FIRST_TIME_CHANGESKIN, TYPE_CONFIG_BOOL

  00129	8b 15 00 00 00
	00		 mov	 edx, DWORD PTR _CONF_SETTING_FIRST_TIME_CHANGESKIN
  0012f	89 15 68 00 00
	00		 mov	 DWORD PTR _CONF_SETTING+104, edx

; 39   : };

  00135	a1 00 00 00 00	 mov	 eax, DWORD PTR _TYPE_CONFIG_BOOL
  0013a	a3 6c 00 00 00	 mov	 DWORD PTR _CONF_SETTING+108, eax
  0013f	5d		 pop	 ebp
  00140	c3		 ret	 0
_$E5	ENDP
text$yc	ENDS
CRT$XCU	SEGMENT
_$S8	DD	FLAT:_$E7
; Function compile flags: /Odt /RTCsu
; File d:\boxgit\playbox\playbox\dev\prj\playbox\src\appconfig\config\configappdef.h
CRT$XCU	ENDS
;	COMDAT _$E7
text$yc	SEGMENT
_$E7	PROC NEAR					; COMDAT

; 19   : 	CONF_APP_SWF_PATH,			TYPE_CONFIG_STR,

  00000	55		 push	 ebp
  00001	8b ec		 mov	 ebp, esp
  00003	a1 00 00 00 00	 mov	 eax, DWORD PTR _CONF_APP_SWF_PATH
  00008	a3 00 00 00 00	 mov	 DWORD PTR _CONF_APP, eax
  0000d	8b 0d 00 00 00
	00		 mov	 ecx, DWORD PTR _TYPE_CONFIG_STR
  00013	89 0d 04 00 00
	00		 mov	 DWORD PTR _CONF_APP+4, ecx

; 20   : 	CONF_APP_MAINWND_HOLD,		TYPE_CONFIG_BOOL,

  00019	8b 15 00 00 00
	00		 mov	 edx, DWORD PTR _CONF_APP_MAINWND_HOLD
  0001f	89 15 08 00 00
	00		 mov	 DWORD PTR _CONF_APP+8, edx
  00025	a1 00 00 00 00	 mov	 eax, DWORD PTR _TYPE_CONFIG_BOOL
  0002a	a3 0c 00 00 00	 mov	 DWORD PTR _CONF_APP+12, eax

; 21   : 	CONF_APP_RUN_COUNT,			TYPE_CONFIG_INT,

  0002f	8b 0d 00 00 00
	00		 mov	 ecx, DWORD PTR _CONF_APP_RUN_COUNT
  00035	89 0d 10 00 00
	00		 mov	 DWORD PTR _CONF_APP+16, ecx
  0003b	8b 15 00 00 00
	00		 mov	 edx, DWORD PTR _TYPE_CONFIG_INT
  00041	89 15 14 00 00
	00		 mov	 DWORD PTR _CONF_APP+20, edx

; 22   : 	CONF_APP_PLAYED_GAME,		TYPE_CONFIG_INT,

  00047	a1 00 00 00 00	 mov	 eax, DWORD PTR _CONF_APP_PLAYED_GAME
  0004c	a3 18 00 00 00	 mov	 DWORD PTR _CONF_APP+24, eax
  00051	8b 0d 00 00 00
	00		 mov	 ecx, DWORD PTR _TYPE_CONFIG_INT
  00057	89 0d 1c 00 00
	00		 mov	 DWORD PTR _CONF_APP+28, ecx

; 23   : 	CONF_APP_PLAYED_PC_GAME,	TYPE_CONFIG_INT,

  0005d	8b 15 00 00 00
	00		 mov	 edx, DWORD PTR _CONF_APP_PLAYED_PC_GAME
  00063	89 15 20 00 00
	00		 mov	 DWORD PTR _CONF_APP+32, edx
  00069	a1 00 00 00 00	 mov	 eax, DWORD PTR _TYPE_CONFIG_INT
  0006e	a3 24 00 00 00	 mov	 DWORD PTR _CONF_APP+36, eax

; 24   : 	CONF_APP_PLAYED_ICON_SIZE,	TYPE_CONFIG_INT, //panelicon0,1,2

  00073	8b 0d 00 00 00
	00		 mov	 ecx, DWORD PTR _CONF_APP_PLAYED_ICON_SIZE
  00079	89 0d 28 00 00
	00		 mov	 DWORD PTR _CONF_APP+40, ecx
  0007f	8b 15 00 00 00
	00		 mov	 edx, DWORD PTR _TYPE_CONFIG_INT
  00085	89 15 2c 00 00
	00		 mov	 DWORD PTR _CONF_APP+44, edx

; 25   : 	CONF_APP_PIC_SAVE_PATH,		TYPE_CONFIG_STR

  0008b	a1 00 00 00 00	 mov	 eax, DWORD PTR _CONF_APP_PIC_SAVE_PATH
  00090	a3 30 00 00 00	 mov	 DWORD PTR _CONF_APP+48, eax

; 26   : };

  00095	8b 0d 00 00 00
	00		 mov	 ecx, DWORD PTR _TYPE_CONFIG_STR
  0009b	89 0d 34 00 00
	00		 mov	 DWORD PTR _CONF_APP+52, ecx
  000a1	5d		 pop	 ebp
  000a2	c3		 ret	 0
_$E7	ENDP
text$yc	ENDS
_BSS	SEGMENT
_CONF_SETTING DD 01cH DUP (?)
_CONF_APP DD	0eH DUP (?)
_BSS	ENDS
END
