; Listing generated by Microsoft (R) Optimizing Compiler Version 13.10.3077 

	TITLE	.\src\LayoutMgr\SeperateMode\WindowsMover.cpp
	.386P
include listing.inc
if @Version gt 510
.model FLAT
else
_TEXT	SEGMENT PARA USE32 PUBLIC 'CODE'
_TEXT	ENDS
_DATA	SEGMENT DWORD USE32 PUBLIC 'DATA'
_DATA	ENDS
CONST	SEGMENT DWORD USE32 PUBLIC 'CONST'
CONST	ENDS
_BSS	SEGMENT DWORD USE32 PUBLIC 'BSS'
_BSS	ENDS
$$SYMBOLS	SEGMENT BYTE USE32 'DEBSYM'
$$SYMBOLS	ENDS
_TLS	SEGMENT DWORD USE32 PUBLIC 'TLS'
_TLS	ENDS
;	COMDAT ??_C@_0EN@IBFBLEEG@D?3?2Program?5Files?5?$CIx86?$CJ?2Microsoft@
CONST	SEGMENT DWORD USE32 PUBLIC 'CONST'
CONST	ENDS
;	COMDAT ??_C@_0BE@JONHPENG@map?1set?$DMT?$DO?5too?5long?$AA@
CONST	SEGMENT DWORD USE32 PUBLIC 'CONST'
CONST	ENDS
rdata$r	SEGMENT DWORD USE32 PUBLIC 'CONST'
rdata$r	ENDS
xdata$x	SEGMENT DWORD USE32 PUBLIC 'CONST'
xdata$x	ENDS
text$AFX_COL1	SEGMENT PARA USE32 PUBLIC ''
text$AFX_COL1	ENDS
text$yc	SEGMENT PARA USE32 PUBLIC 'CODE'
text$yc	ENDS
CRT$XCA	SEGMENT DWORD USE32 PUBLIC 'DATA'
CRT$XCA	ENDS
CRT$XCU	SEGMENT DWORD USE32 PUBLIC 'DATA'
CRT$XCU	ENDS
CRT$XCL	SEGMENT DWORD USE32 PUBLIC 'DATA'
CRT$XCL	ENDS
CRT$XCC	SEGMENT DWORD USE32 PUBLIC 'DATA'
CRT$XCC	ENDS
CRT$XCZ	SEGMENT DWORD USE32 PUBLIC 'DATA'
CRT$XCZ	ENDS
text$yd	SEGMENT PARA USE32 PUBLIC 'CODE'
text$yd	ENDS
ATL$__m	SEGMENT DWORD USE32 PUBLIC ''
ATL$__m	ENDS
ATL$__z	SEGMENT DWORD USE32 PUBLIC ''
ATL$__z	ENDS
ATL$__a	SEGMENT DWORD USE32 PUBLIC ''
ATL$__a	ENDS
;	COMDAT ??1IData@@MAE@XZ
_TEXT	SEGMENT PARA USE32 PUBLIC 'CODE'
_TEXT	ENDS
;	COMDAT ?DataAppStart@IData@@UAEXXZ
_TEXT	SEGMENT PARA USE32 PUBLIC 'CODE'
_TEXT	ENDS
;	COMDAT ?DataAppExit@IData@@UAEXXZ
_TEXT	SEGMENT PARA USE32 PUBLIC 'CODE'
_TEXT	ENDS
;	COMDAT ??_GIData@@MAEPAXI@Z
_TEXT	SEGMENT PARA USE32 PUBLIC 'CODE'
_TEXT	ENDS
;	COMDAT ??_GCWindowsMover@@AAEPAXI@Z
_TEXT	SEGMENT PARA USE32 PUBLIC 'CODE'
_TEXT	ENDS
;	COMDAT ??1?$map@PAUHWND__@@UWndMoveData@@U?$less@PAUHWND__@@@std@@V?$allocator@U?$pair@QAUHWND__@@UWndMoveData@@@std@@@4@@std@@QAE@XZ
_TEXT	SEGMENT PARA USE32 PUBLIC 'CODE'
_TEXT	ENDS
;	COMDAT ??0WndMoveData@@QAE@XZ
_TEXT	SEGMENT PARA USE32 PUBLIC 'CODE'
_TEXT	ENDS
;	COMDAT ??B?$CComPtrBase@UITypeInfo2@@@ATL@@QBEPAUITypeInfo2@@XZ
_TEXT	SEGMENT PARA USE32 PUBLIC 'CODE'
_TEXT	ENDS
;	COMDAT ?equal@?$istreambuf_iterator@DU?$char_traits@D@std@@@std@@QBE_NABV12@@Z
_TEXT	SEGMENT PARA USE32 PUBLIC 'CODE'
_TEXT	ENDS
;	COMDAT ?equal@?$istreambuf_iterator@_WU?$char_traits@_W@std@@@std@@QBE_NABV12@@Z
_TEXT	SEGMENT PARA USE32 PUBLIC 'CODE'
_TEXT	ENDS
;	COMDAT ??0?$map@PAUHWND__@@UWndMoveData@@U?$less@PAUHWND__@@@std@@V?$allocator@U?$pair@QAUHWND__@@UWndMoveData@@@std@@@4@@std@@QAE@XZ
_TEXT	SEGMENT PARA USE32 PUBLIC 'CODE'
_TEXT	ENDS
;	COMDAT ??A?$map@PAUHWND__@@UWndMoveData@@U?$less@PAUHWND__@@@std@@V?$allocator@U?$pair@QAUHWND__@@UWndMoveData@@@std@@@4@@std@@QAEAAUWndMoveData@@ABQAUHWND__@@@Z
_TEXT	SEGMENT PARA USE32 PUBLIC 'CODE'
_TEXT	ENDS
;	COMDAT ??1?$_Tree@V?$_Tmap_traits@PAUHWND__@@UWndMoveData@@U?$less@PAUHWND__@@@std@@V?$allocator@U?$pair@QAUHWND__@@UWndMoveData@@@std@@@4@$0A@@std@@@std@@QAE@XZ
_TEXT	SEGMENT PARA USE32 PUBLIC 'CODE'
_TEXT	ENDS
;	COMDAT ?begin@?$_Tree@V?$_Tmap_traits@PAUHWND__@@UWndMoveData@@U?$less@PAUHWND__@@@std@@V?$allocator@U?$pair@QAUHWND__@@UWndMoveData@@@std@@@4@$0A@@std@@@std@@QAE?AViterator@12@XZ
_TEXT	SEGMENT PARA USE32 PUBLIC 'CODE'
_TEXT	ENDS
;	COMDAT ?end@?$_Tree@V?$_Tmap_traits@PAUHWND__@@UWndMoveData@@U?$less@PAUHWND__@@@std@@V?$allocator@U?$pair@QAUHWND__@@UWndMoveData@@@std@@@4@$0A@@std@@@std@@QAE?AViterator@12@XZ
_TEXT	SEGMENT PARA USE32 PUBLIC 'CODE'
_TEXT	ENDS
;	COMDAT ?clear@?$_Tree@V?$_Tmap_traits@PAUHWND__@@UWndMoveData@@U?$less@PAUHWND__@@@std@@V?$allocator@U?$pair@QAUHWND__@@UWndMoveData@@@std@@@4@$0A@@std@@@std@@QAEXXZ
_TEXT	SEGMENT PARA USE32 PUBLIC 'CODE'
_TEXT	ENDS
;	COMDAT ??0iterator@?$_Tree@V?$_Tmap_traits@PAUHWND__@@UWndMoveData@@U?$less@PAUHWND__@@@std@@V?$allocator@U?$pair@QAUHWND__@@UWndMoveData@@@std@@@4@$0A@@std@@@std@@QAE@XZ
_TEXT	SEGMENT PARA USE32 PUBLIC 'CODE'
_TEXT	ENDS
;	COMDAT ??Citerator@?$_Tree@V?$_Tmap_traits@PAUHWND__@@UWndMoveData@@U?$less@PAUHWND__@@@std@@V?$allocator@U?$pair@QAUHWND__@@UWndMoveData@@@std@@@4@$0A@@std@@@std@@QBEPAU?$pair@QAUHWND__@@UWndMoveData@@@2@XZ
_TEXT	SEGMENT PARA USE32 PUBLIC 'CODE'
_TEXT	ENDS
;	COMDAT ??Eiterator@?$_Tree@V?$_Tmap_traits@PAUHWND__@@UWndMoveData@@U?$less@PAUHWND__@@@std@@V?$allocator@U?$pair@QAUHWND__@@UWndMoveData@@@std@@@4@$0A@@std@@@std@@QAE?AV012@H@Z
_TEXT	SEGMENT PARA USE32 PUBLIC 'CODE'
_TEXT	ENDS
;	COMDAT ??9const_iterator@?$_Tree@V?$_Tmap_traits@PAUHWND__@@UWndMoveData@@U?$less@PAUHWND__@@@std@@V?$allocator@U?$pair@QAUHWND__@@UWndMoveData@@@std@@@4@$0A@@std@@@std@@QBE_NABV012@@Z
_TEXT	SEGMENT PARA USE32 PUBLIC 'CODE'
_TEXT	ENDS
;	COMDAT ?_Key@?$_Tree@V?$_Tmap_traits@PAUHWND__@@UWndMoveData@@U?$less@PAUHWND__@@@std@@V?$allocator@U?$pair@QAUHWND__@@UWndMoveData@@@std@@@4@$0A@@std@@@std@@KAABQAUHWND__@@PAU_Node@?$_Tree_nod@V?$_Tmap_traits@PAUHWND__@@UWndMoveData@@U?$less@PAUHWND__@@@std@@V?$allocator@U?$pair@QAUHWND__@@UWndMoveData@@@std@@@4@$0A@@std@@@2@@Z
_TEXT	SEGMENT PARA USE32 PUBLIC 'CODE'
_TEXT	ENDS
;	COMDAT ??0?$_Tree@V?$_Tmap_traits@PAUHWND__@@UWndMoveData@@U?$less@PAUHWND__@@@std@@V?$allocator@U?$pair@QAUHWND__@@UWndMoveData@@@std@@@4@$0A@@std@@@std@@QAE@ABU?$less@PAUHWND__@@@1@ABV?$allocator@U?$pair@QAUHWND__@@UWndMoveData@@@std@@@1@@Z
_TEXT	SEGMENT PARA USE32 PUBLIC 'CODE'
_TEXT	ENDS
;	COMDAT ?insert@?$_Tree@V?$_Tmap_traits@PAUHWND__@@UWndMoveData@@U?$less@PAUHWND__@@@std@@V?$allocator@U?$pair@QAUHWND__@@UWndMoveData@@@std@@@4@$0A@@std@@@std@@QAE?AViterator@12@V312@ABU?$pair@QAUHWND__@@UWndMoveData@@@2@@Z
_TEXT	SEGMENT PARA USE32 PUBLIC 'CODE'
_TEXT	ENDS
;	COMDAT ?lower_bound@?$_Tree@V?$_Tmap_traits@PAUHWND__@@UWndMoveData@@U?$less@PAUHWND__@@@std@@V?$allocator@U?$pair@QAUHWND__@@UWndMoveData@@@std@@@4@$0A@@std@@@std@@QAE?AViterator@12@ABQAUHWND__@@@Z
_TEXT	SEGMENT PARA USE32 PUBLIC 'CODE'
_TEXT	ENDS
;	COMDAT ?_Erase@?$_Tree@V?$_Tmap_traits@PAUHWND__@@UWndMoveData@@U?$less@PAUHWND__@@@std@@V?$allocator@U?$pair@QAUHWND__@@UWndMoveData@@@std@@@4@$0A@@std@@@std@@IAEXPAU_Node@?$_Tree_nod@V?$_Tmap_traits@PAUHWND__@@UWndMoveData@@U?$less@PAUHWND__@@@std@@V?$allocator@U?$pair@QAUHWND__@@UWndMoveData@@@std@@@4@$0A@@std@@@2@@Z
_TEXT	SEGMENT PARA USE32 PUBLIC 'CODE'
_TEXT	ENDS
;	COMDAT ?_Lmost@?$_Tree@V?$_Tmap_traits@PAUHWND__@@UWndMoveData@@U?$less@PAUHWND__@@@std@@V?$allocator@U?$pair@QAUHWND__@@UWndMoveData@@@std@@@4@$0A@@std@@@std@@IAEAAPAU_Node@?$_Tree_nod@V?$_Tmap_traits@PAUHWND__@@UWndMoveData@@U?$less@PAUHWND__@@@std@@V?$allocator@U?$pair@QAUHWND__@@UWndMoveData@@@std@@@4@$0A@@std@@@2@XZ
_TEXT	SEGMENT PARA USE32 PUBLIC 'CODE'
_TEXT	ENDS
;	COMDAT ?_Rmost@?$_Tree@V?$_Tmap_traits@PAUHWND__@@UWndMoveData@@U?$less@PAUHWND__@@@std@@V?$allocator@U?$pair@QAUHWND__@@UWndMoveData@@@std@@@4@$0A@@std@@@std@@IAEAAPAU_Node@?$_Tree_nod@V?$_Tmap_traits@PAUHWND__@@UWndMoveData@@U?$less@PAUHWND__@@@std@@V?$allocator@U?$pair@QAUHWND__@@UWndMoveData@@@std@@@4@$0A@@std@@@2@XZ
_TEXT	SEGMENT PARA USE32 PUBLIC 'CODE'
_TEXT	ENDS
;	COMDAT ?_Root@?$_Tree@V?$_Tmap_traits@PAUHWND__@@UWndMoveData@@U?$less@PAUHWND__@@@std@@V?$allocator@U?$pair@QAUHWND__@@UWndMoveData@@@std@@@4@$0A@@std@@@std@@IAEAAPAU_Node@?$_Tree_nod@V?$_Tmap_traits@PAUHWND__@@UWndMoveData@@U?$less@PAUHWND__@@@std@@V?$allocator@U?$pair@QAUHWND__@@UWndMoveData@@@std@@@4@$0A@@std@@@2@XZ
_TEXT	SEGMENT PARA USE32 PUBLIC 'CODE'
_TEXT	ENDS
;	COMDAT ?_Tidy@?$_Tree@V?$_Tmap_traits@PAUHWND__@@UWndMoveData@@U?$less@PAUHWND__@@@std@@V?$allocator@U?$pair@QAUHWND__@@UWndMoveData@@@std@@@4@$0A@@std@@@std@@IAEXXZ
_TEXT	SEGMENT PARA USE32 PUBLIC 'CODE'
_TEXT	ENDS
;	COMDAT ??0?$allocator@U?$pair@QAUHWND__@@UWndMoveData@@@std@@@std@@QAE@XZ
_TEXT	SEGMENT PARA USE32 PUBLIC 'CODE'
_TEXT	ENDS
;	COMDAT ??R?$less@PAUHWND__@@@std@@QBE_NABQAUHWND__@@0@Z
_TEXT	SEGMENT PARA USE32 PUBLIC 'CODE'
_TEXT	ENDS
;	COMDAT ??0iterator@?$_Tree@V?$_Tmap_traits@PAUHWND__@@UWndMoveData@@U?$less@PAUHWND__@@@std@@V?$allocator@U?$pair@QAUHWND__@@UWndMoveData@@@std@@@4@$0A@@std@@@std@@QAE@PAU_Node@?$_Tree_nod@V?$_Tmap_traits@PAUHWND__@@UWndMoveData@@U?$less@PAUHWND__@@@std@@V?$allocator@U?$pair@QAUHWND__@@UWndMoveData@@@std@@@4@$0A@@std@@@2@@Z
_TEXT	SEGMENT PARA USE32 PUBLIC 'CODE'
_TEXT	ENDS
;	COMDAT ??Diterator@?$_Tree@V?$_Tmap_traits@PAUHWND__@@UWndMoveData@@U?$less@PAUHWND__@@@std@@V?$allocator@U?$pair@QAUHWND__@@UWndMoveData@@@std@@@4@$0A@@std@@@std@@QBEAAU?$pair@QAUHWND__@@UWndMoveData@@@2@XZ
_TEXT	SEGMENT PARA USE32 PUBLIC 'CODE'
_TEXT	ENDS
;	COMDAT ??Eiterator@?$_Tree@V?$_Tmap_traits@PAUHWND__@@UWndMoveData@@U?$less@PAUHWND__@@@std@@V?$allocator@U?$pair@QAUHWND__@@UWndMoveData@@@std@@@4@$0A@@std@@@std@@QAEAAV012@XZ
_TEXT	SEGMENT PARA USE32 PUBLIC 'CODE'
_TEXT	ENDS
;	COMDAT ??0const_iterator@?$_Tree@V?$_Tmap_traits@PAUHWND__@@UWndMoveData@@U?$less@PAUHWND__@@@std@@V?$allocator@U?$pair@QAUHWND__@@UWndMoveData@@@std@@@4@$0A@@std@@@std@@QAE@XZ
_TEXT	SEGMENT PARA USE32 PUBLIC 'CODE'
_TEXT	ENDS
;	COMDAT ??8const_iterator@?$_Tree@V?$_Tmap_traits@PAUHWND__@@UWndMoveData@@U?$less@PAUHWND__@@@std@@V?$allocator@U?$pair@QAUHWND__@@UWndMoveData@@@std@@@4@$0A@@std@@@std@@QBE_NABV012@@Z
_TEXT	SEGMENT PARA USE32 PUBLIC 'CODE'
_TEXT	ENDS
;	COMDAT ?_Mynode@const_iterator@?$_Tree@V?$_Tmap_traits@PAUHWND__@@UWndMoveData@@U?$less@PAUHWND__@@@std@@V?$allocator@U?$pair@QAUHWND__@@UWndMoveData@@@std@@@4@$0A@@std@@@std@@QBEPAU_Node@?$_Tree_nod@V?$_Tmap_traits@PAUHWND__@@UWndMoveData@@U?$less@PAUHWND__@@@std@@V?$allocator@U?$pair@QAUHWND__@@UWndMoveData@@@std@@@4@$0A@@std@@@3@XZ
_TEXT	SEGMENT PARA USE32 PUBLIC 'CODE'
_TEXT	ENDS
;	COMDAT ??0?$pair@QAUHWND__@@UWndMoveData@@@std@@QAE@ABQAUHWND__@@ABUWndMoveData@@@Z
_TEXT	SEGMENT PARA USE32 PUBLIC 'CODE'
_TEXT	ENDS
;	COMDAT ?_Isnil@?$_Tree@V?$_Tmap_traits@PAUHWND__@@UWndMoveData@@U?$less@PAUHWND__@@@std@@V?$allocator@U?$pair@QAUHWND__@@UWndMoveData@@@std@@@4@$0A@@std@@@std@@KAAADPAU_Node@?$_Tree_nod@V?$_Tmap_traits@PAUHWND__@@UWndMoveData@@U?$less@PAUHWND__@@@std@@V?$allocator@U?$pair@QAUHWND__@@UWndMoveData@@@std@@@4@$0A@@std@@@2@@Z
_TEXT	SEGMENT PARA USE32 PUBLIC 'CODE'
_TEXT	ENDS
;	COMDAT ?_Left@?$_Tree@V?$_Tmap_traits@PAUHWND__@@UWndMoveData@@U?$less@PAUHWND__@@@std@@V?$allocator@U?$pair@QAUHWND__@@UWndMoveData@@@std@@@4@$0A@@std@@@std@@KAAAPAU_Node@?$_Tree_nod@V?$_Tmap_traits@PAUHWND__@@UWndMoveData@@U?$less@PAUHWND__@@@std@@V?$allocator@U?$pair@QAUHWND__@@UWndMoveData@@@std@@@4@$0A@@std@@@2@PAU342@@Z
_TEXT	SEGMENT PARA USE32 PUBLIC 'CODE'
_TEXT	ENDS
;	COMDAT ?_Parent@?$_Tree@V?$_Tmap_traits@PAUHWND__@@UWndMoveData@@U?$less@PAUHWND__@@@std@@V?$allocator@U?$pair@QAUHWND__@@UWndMoveData@@@std@@@4@$0A@@std@@@std@@KAAAPAU_Node@?$_Tree_nod@V?$_Tmap_traits@PAUHWND__@@UWndMoveData@@U?$less@PAUHWND__@@@std@@V?$allocator@U?$pair@QAUHWND__@@UWndMoveData@@@std@@@4@$0A@@std@@@2@PAU342@@Z
_TEXT	SEGMENT PARA USE32 PUBLIC 'CODE'
_TEXT	ENDS
;	COMDAT ?_Right@?$_Tree@V?$_Tmap_traits@PAUHWND__@@UWndMoveData@@U?$less@PAUHWND__@@@std@@V?$allocator@U?$pair@QAUHWND__@@UWndMoveData@@@std@@@4@$0A@@std@@@std@@KAAAPAU_Node@?$_Tree_nod@V?$_Tmap_traits@PAUHWND__@@UWndMoveData@@U?$less@PAUHWND__@@@std@@V?$allocator@U?$pair@QAUHWND__@@UWndMoveData@@@std@@@4@$0A@@std@@@2@PAU342@@Z
_TEXT	SEGMENT PARA USE32 PUBLIC 'CODE'
_TEXT	ENDS
;	COMDAT ?_Myval@?$_Tree@V?$_Tmap_traits@PAUHWND__@@UWndMoveData@@U?$less@PAUHWND__@@@std@@V?$allocator@U?$pair@QAUHWND__@@UWndMoveData@@@std@@@4@$0A@@std@@@std@@KAAAU?$pair@QAUHWND__@@UWndMoveData@@@2@PAU_Node@?$_Tree_nod@V?$_Tmap_traits@PAUHWND__@@UWndMoveData@@U?$less@PAUHWND__@@@std@@V?$allocator@U?$pair@QAUHWND__@@UWndMoveData@@@std@@@4@$0A@@std@@@2@@Z
_TEXT	SEGMENT PARA USE32 PUBLIC 'CODE'
_TEXT	ENDS
;	COMDAT ?size@?$_Tree@V?$_Tmap_traits@PAUHWND__@@UWndMoveData@@U?$less@PAUHWND__@@@std@@V?$allocator@U?$pair@QAUHWND__@@UWndMoveData@@@std@@@4@$0A@@std@@@std@@QBEIXZ
_TEXT	SEGMENT PARA USE32 PUBLIC 'CODE'
_TEXT	ENDS
;	COMDAT ?insert@?$_Tree@V?$_Tmap_traits@PAUHWND__@@UWndMoveData@@U?$less@PAUHWND__@@@std@@V?$allocator@U?$pair@QAUHWND__@@UWndMoveData@@@std@@@4@$0A@@std@@@std@@QAE?AU?$pair@Viterator@?$_Tree@V?$_Tmap_traits@PAUHWND__@@UWndMoveData@@U?$less@PAUHWND__@@@std@@V?$allocator@U?$pair@QAUHWND__@@UWndMoveData@@@std@@@4@$0A@@std@@@std@@_N@2@ABU?$pair@QAUHWND__@@UWndMoveData@@@2@@Z
_TEXT	SEGMENT PARA USE32 PUBLIC 'CODE'
_TEXT	ENDS
;	COMDAT ?erase@?$_Tree@V?$_Tmap_traits@PAUHWND__@@UWndMoveData@@U?$less@PAUHWND__@@@std@@V?$allocator@U?$pair@QAUHWND__@@UWndMoveData@@@std@@@4@$0A@@std@@@std@@QAE?AViterator@12@V312@0@Z
_TEXT	SEGMENT PARA USE32 PUBLIC 'CODE'
_TEXT	ENDS
;	COMDAT ?_Init@?$_Tree@V?$_Tmap_traits@PAUHWND__@@UWndMoveData@@U?$less@PAUHWND__@@@std@@V?$allocator@U?$pair@QAUHWND__@@UWndMoveData@@@std@@@4@$0A@@std@@@std@@IAEXXZ
_TEXT	SEGMENT PARA USE32 PUBLIC 'CODE'
_TEXT	ENDS
;	COMDAT ?_Insert@?$_Tree@V?$_Tmap_traits@PAUHWND__@@UWndMoveData@@U?$less@PAUHWND__@@@std@@V?$allocator@U?$pair@QAUHWND__@@UWndMoveData@@@std@@@4@$0A@@std@@@std@@IAE?AViterator@12@_NPAU_Node@?$_Tree_nod@V?$_Tmap_traits@PAUHWND__@@UWndMoveData@@U?$less@PAUHWND__@@@std@@V?$allocator@U?$pair@QAUHWND__@@UWndMoveData@@@std@@@4@$0A@@std@@@2@ABU?$pair@QAUHWND__@@UWndMoveData@@@2@@Z
_TEXT	SEGMENT PARA USE32 PUBLIC 'CODE'
_TEXT	ENDS
;	COMDAT ?_Lbound@?$_Tree@V?$_Tmap_traits@PAUHWND__@@UWndMoveData@@U?$less@PAUHWND__@@@std@@V?$allocator@U?$pair@QAUHWND__@@UWndMoveData@@@std@@@4@$0A@@std@@@std@@IBEPAU_Node@?$_Tree_nod@V?$_Tmap_traits@PAUHWND__@@UWndMoveData@@U?$less@PAUHWND__@@@std@@V?$allocator@U?$pair@QAUHWND__@@UWndMoveData@@@std@@@4@$0A@@std@@@2@ABQAUHWND__@@@Z
_TEXT	SEGMENT PARA USE32 PUBLIC 'CODE'
_TEXT	ENDS
;	COMDAT ??0?$_Tree_val@V?$_Tmap_traits@PAUHWND__@@UWndMoveData@@U?$less@PAUHWND__@@@std@@V?$allocator@U?$pair@QAUHWND__@@UWndMoveData@@@std@@@4@$0A@@std@@@std@@IAE@ABU?$less@PAUHWND__@@@1@V?$allocator@U?$pair@QAUHWND__@@UWndMoveData@@@std@@@1@@Z
_TEXT	SEGMENT PARA USE32 PUBLIC 'CODE'
_TEXT	ENDS
;	COMDAT ?_Kfn@?$_Tmap_traits@PAUHWND__@@UWndMoveData@@U?$less@PAUHWND__@@@std@@V?$allocator@U?$pair@QAUHWND__@@UWndMoveData@@@std@@@4@$0A@@std@@SAABQAUHWND__@@ABU?$pair@QAUHWND__@@UWndMoveData@@@2@@Z
_TEXT	SEGMENT PARA USE32 PUBLIC 'CODE'
_TEXT	ENDS
;	COMDAT ??0?$allocator@U?$pair@QAUHWND__@@UWndMoveData@@@std@@@std@@QAE@ABV01@@Z
_TEXT	SEGMENT PARA USE32 PUBLIC 'CODE'
_TEXT	ENDS
;	COMDAT ?deallocate@?$allocator@U_Node@?$_Tree_nod@V?$_Tmap_traits@PAUHWND__@@UWndMoveData@@U?$less@PAUHWND__@@@std@@V?$allocator@U?$pair@QAUHWND__@@UWndMoveData@@@std@@@4@$0A@@std@@@std@@@std@@QAEXPAU_Node@?$_Tree_nod@V?$_Tmap_traits@PAUHWND__@@UWndMoveData@@U?$less@PAUHWND__@@@std@@V?$allocator@U?$pair@QAUHWND__@@UWndMoveData@@@std@@@4@$0A@@std@@@2@I@Z
_TEXT	SEGMENT PARA USE32 PUBLIC 'CODE'
_TEXT	ENDS
;	COMDAT ?destroy@?$allocator@U_Node@?$_Tree_nod@V?$_Tmap_traits@PAUHWND__@@UWndMoveData@@U?$less@PAUHWND__@@@std@@V?$allocator@U?$pair@QAUHWND__@@UWndMoveData@@@std@@@4@$0A@@std@@@std@@@std@@QAEXPAU_Node@?$_Tree_nod@V?$_Tmap_traits@PAUHWND__@@UWndMoveData@@U?$less@PAUHWND__@@@std@@V?$allocator@U?$pair@QAUHWND__@@UWndMoveData@@@std@@@4@$0A@@std@@@2@@Z
_TEXT	SEGMENT PARA USE32 PUBLIC 'CODE'
_TEXT	ENDS
;	COMDAT ?destroy@?$allocator@PAU_Node@?$_Tree_nod@V?$_Tmap_traits@PAUHWND__@@UWndMoveData@@U?$less@PAUHWND__@@@std@@V?$allocator@U?$pair@QAUHWND__@@UWndMoveData@@@std@@@4@$0A@@std@@@std@@@std@@QAEXPAPAU_Node@?$_Tree_nod@V?$_Tmap_traits@PAUHWND__@@UWndMoveData@@U?$less@PAUHWND__@@@std@@V?$allocator@U?$pair@QAUHWND__@@UWndMoveData@@@std@@@4@$0A@@std@@@2@@Z
_TEXT	SEGMENT PARA USE32 PUBLIC 'CODE'
_TEXT	ENDS
;	COMDAT ??Fiterator@?$_Tree@V?$_Tmap_traits@PAUHWND__@@UWndMoveData@@U?$less@PAUHWND__@@@std@@V?$allocator@U?$pair@QAUHWND__@@UWndMoveData@@@std@@@4@$0A@@std@@@std@@QAEAAV012@XZ
_TEXT	SEGMENT PARA USE32 PUBLIC 'CODE'
_TEXT	ENDS
;	COMDAT ??0const_iterator@?$_Tree@V?$_Tmap_traits@PAUHWND__@@UWndMoveData@@U?$less@PAUHWND__@@@std@@V?$allocator@U?$pair@QAUHWND__@@UWndMoveData@@@std@@@4@$0A@@std@@@std@@QAE@PAU_Node@?$_Tree_nod@V?$_Tmap_traits@PAUHWND__@@UWndMoveData@@U?$less@PAUHWND__@@@std@@V?$allocator@U?$pair@QAUHWND__@@UWndMoveData@@@std@@@4@$0A@@std@@@2@@Z
_TEXT	SEGMENT PARA USE32 PUBLIC 'CODE'
_TEXT	ENDS
;	COMDAT ??Dconst_iterator@?$_Tree@V?$_Tmap_traits@PAUHWND__@@UWndMoveData@@U?$less@PAUHWND__@@@std@@V?$allocator@U?$pair@QAUHWND__@@UWndMoveData@@@std@@@4@$0A@@std@@@std@@QBEABU?$pair@QAUHWND__@@UWndMoveData@@@2@XZ
_TEXT	SEGMENT PARA USE32 PUBLIC 'CODE'
_TEXT	ENDS
;	COMDAT ??Econst_iterator@?$_Tree@V?$_Tmap_traits@PAUHWND__@@UWndMoveData@@U?$less@PAUHWND__@@@std@@V?$allocator@U?$pair@QAUHWND__@@UWndMoveData@@@std@@@4@$0A@@std@@@std@@QAEAAV012@XZ
_TEXT	SEGMENT PARA USE32 PUBLIC 'CODE'
_TEXT	ENDS
;	COMDAT ??0length_error@std@@QAE@ABV01@@Z
_TEXT	SEGMENT PARA USE32 PUBLIC 'CODE'
_TEXT	ENDS
;	COMDAT ?_Color@?$_Tree@V?$_Tmap_traits@PAUHWND__@@UWndMoveData@@U?$less@PAUHWND__@@@std@@V?$allocator@U?$pair@QAUHWND__@@UWndMoveData@@@std@@@4@$0A@@std@@@std@@KAAADPAU_Node@?$_Tree_nod@V?$_Tmap_traits@PAUHWND__@@UWndMoveData@@U?$less@PAUHWND__@@@std@@V?$allocator@U?$pair@QAUHWND__@@UWndMoveData@@@std@@@4@$0A@@std@@@2@@Z
_TEXT	SEGMENT PARA USE32 PUBLIC 'CODE'
_TEXT	ENDS
;	COMDAT ?max_size@?$_Tree@V?$_Tmap_traits@PAUHWND__@@UWndMoveData@@U?$less@PAUHWND__@@@std@@V?$allocator@U?$pair@QAUHWND__@@UWndMoveData@@@std@@@4@$0A@@std@@@std@@QBEIXZ
_TEXT	SEGMENT PARA USE32 PUBLIC 'CODE'
_TEXT	ENDS
;	COMDAT ?erase@?$_Tree@V?$_Tmap_traits@PAUHWND__@@UWndMoveData@@U?$less@PAUHWND__@@@std@@V?$allocator@U?$pair@QAUHWND__@@UWndMoveData@@@std@@@4@$0A@@std@@@std@@QAE?AViterator@12@V312@@Z
_TEXT	SEGMENT PARA USE32 PUBLIC 'CODE'
_TEXT	ENDS
;	COMDAT ?_Lrotate@?$_Tree@V?$_Tmap_traits@PAUHWND__@@UWndMoveData@@U?$less@PAUHWND__@@@std@@V?$allocator@U?$pair@QAUHWND__@@UWndMoveData@@@std@@@4@$0A@@std@@@std@@IAEXPAU_Node@?$_Tree_nod@V?$_Tmap_traits@PAUHWND__@@UWndMoveData@@U?$less@PAUHWND__@@@std@@V?$allocator@U?$pair@QAUHWND__@@UWndMoveData@@@std@@@4@$0A@@std@@@2@@Z
_TEXT	SEGMENT PARA USE32 PUBLIC 'CODE'
_TEXT	ENDS
;	COMDAT ?_Root@?$_Tree@V?$_Tmap_traits@PAUHWND__@@UWndMoveData@@U?$less@PAUHWND__@@@std@@V?$allocator@U?$pair@QAUHWND__@@UWndMoveData@@@std@@@4@$0A@@std@@@std@@IBEAAPAU_Node@?$_Tree_nod@V?$_Tmap_traits@PAUHWND__@@UWndMoveData@@U?$less@PAUHWND__@@@std@@V?$allocator@U?$pair@QAUHWND__@@UWndMoveData@@@std@@@4@$0A@@std@@@2@XZ
_TEXT	SEGMENT PARA USE32 PUBLIC 'CODE'
_TEXT	ENDS
;	COMDAT ?_Rrotate@?$_Tree@V?$_Tmap_traits@PAUHWND__@@UWndMoveData@@U?$less@PAUHWND__@@@std@@V?$allocator@U?$pair@QAUHWND__@@UWndMoveData@@@std@@@4@$0A@@std@@@std@@IAEXPAU_Node@?$_Tree_nod@V?$_Tmap_traits@PAUHWND__@@UWndMoveData@@U?$less@PAUHWND__@@@std@@V?$allocator@U?$pair@QAUHWND__@@UWndMoveData@@@std@@@4@$0A@@std@@@2@@Z
_TEXT	SEGMENT PARA USE32 PUBLIC 'CODE'
_TEXT	ENDS
;	COMDAT ?_Buynode@?$_Tree@V?$_Tmap_traits@PAUHWND__@@UWndMoveData@@U?$less@PAUHWND__@@@std@@V?$allocator@U?$pair@QAUHWND__@@UWndMoveData@@@std@@@4@$0A@@std@@@std@@IAEPAU_Node@?$_Tree_nod@V?$_Tmap_traits@PAUHWND__@@UWndMoveData@@U?$less@PAUHWND__@@@std@@V?$allocator@U?$pair@QAUHWND__@@UWndMoveData@@@std@@@4@$0A@@std@@@2@XZ
_TEXT	SEGMENT PARA USE32 PUBLIC 'CODE'
_TEXT	ENDS
;	COMDAT ?_Buynode@?$_Tree@V?$_Tmap_traits@PAUHWND__@@UWndMoveData@@U?$less@PAUHWND__@@@std@@V?$allocator@U?$pair@QAUHWND__@@UWndMoveData@@@std@@@4@$0A@@std@@@std@@IAEPAU_Node@?$_Tree_nod@V?$_Tmap_traits@PAUHWND__@@UWndMoveData@@U?$less@PAUHWND__@@@std@@V?$allocator@U?$pair@QAUHWND__@@UWndMoveData@@@std@@@4@$0A@@std@@@2@PAU342@00ABU?$pair@QAUHWND__@@UWndMoveData@@@2@D@Z
_TEXT	SEGMENT PARA USE32 PUBLIC 'CODE'
_TEXT	ENDS
;	COMDAT ??0?$_Tree_ptr@V?$_Tmap_traits@PAUHWND__@@UWndMoveData@@U?$less@PAUHWND__@@@std@@V?$allocator@U?$pair@QAUHWND__@@UWndMoveData@@@std@@@4@$0A@@std@@@std@@IAE@ABU?$less@PAUHWND__@@@1@V?$allocator@U?$pair@QAUHWND__@@UWndMoveData@@@std@@@1@@Z
_TEXT	SEGMENT PARA USE32 PUBLIC 'CODE'
_TEXT	ENDS
;	COMDAT ??Fconst_iterator@?$_Tree@V?$_Tmap_traits@PAUHWND__@@UWndMoveData@@U?$less@PAUHWND__@@@std@@V?$allocator@U?$pair@QAUHWND__@@UWndMoveData@@@std@@@4@$0A@@std@@@std@@QAEAAV012@XZ
_TEXT	SEGMENT PARA USE32 PUBLIC 'CODE'
_TEXT	ENDS
;	COMDAT ?_Inc@const_iterator@?$_Tree@V?$_Tmap_traits@PAUHWND__@@UWndMoveData@@U?$less@PAUHWND__@@@std@@V?$allocator@U?$pair@QAUHWND__@@UWndMoveData@@@std@@@4@$0A@@std@@@std@@QAEXXZ
_TEXT	SEGMENT PARA USE32 PUBLIC 'CODE'
_TEXT	ENDS
;	COMDAT ??0?$pair@Viterator@?$_Tree@V?$_Tmap_traits@PAUHWND__@@UWndMoveData@@U?$less@PAUHWND__@@@std@@V?$allocator@U?$pair@QAUHWND__@@UWndMoveData@@@std@@@4@$0A@@std@@@std@@_N@std@@QAE@ABViterator@?$_Tree@V?$_Tmap_traits@PAUHWND__@@UWndMoveData@@U?$less@PAUHWND__@@@std@@V?$allocator@U?$pair@QAUHWND__@@UWndMoveData@@@std@@@4@$0A@@std@@@1@AB_N@Z
_TEXT	SEGMENT PARA USE32 PUBLIC 'CODE'
_TEXT	ENDS
;	COMDAT ?_Max@?$_Tree@V?$_Tmap_traits@PAUHWND__@@UWndMoveData@@U?$less@PAUHWND__@@@std@@V?$allocator@U?$pair@QAUHWND__@@UWndMoveData@@@std@@@4@$0A@@std@@@std@@KAPAU_Node@?$_Tree_nod@V?$_Tmap_traits@PAUHWND__@@UWndMoveData@@U?$less@PAUHWND__@@@std@@V?$allocator@U?$pair@QAUHWND__@@UWndMoveData@@@std@@@4@$0A@@std@@@2@PAU342@@Z
_TEXT	SEGMENT PARA USE32 PUBLIC 'CODE'
_TEXT	ENDS
;	COMDAT ?_Min@?$_Tree@V?$_Tmap_traits@PAUHWND__@@UWndMoveData@@U?$less@PAUHWND__@@@std@@V?$allocator@U?$pair@QAUHWND__@@UWndMoveData@@@std@@@4@$0A@@std@@@std@@KAPAU_Node@?$_Tree_nod@V?$_Tmap_traits@PAUHWND__@@UWndMoveData@@U?$less@PAUHWND__@@@std@@V?$allocator@U?$pair@QAUHWND__@@UWndMoveData@@@std@@@4@$0A@@std@@@2@PAU342@@Z
_TEXT	SEGMENT PARA USE32 PUBLIC 'CODE'
_TEXT	ENDS
;	COMDAT ??0?$_Tree_nod@V?$_Tmap_traits@PAUHWND__@@UWndMoveData@@U?$less@PAUHWND__@@@std@@V?$allocator@U?$pair@QAUHWND__@@UWndMoveData@@@std@@@4@$0A@@std@@@std@@IAE@ABU?$less@PAUHWND__@@@1@V?$allocator@U?$pair@QAUHWND__@@UWndMoveData@@@std@@@1@@Z
_TEXT	SEGMENT PARA USE32 PUBLIC 'CODE'
_TEXT	ENDS
;	COMDAT ?max_size@?$allocator@U?$pair@QAUHWND__@@UWndMoveData@@@std@@@std@@QBEIXZ
_TEXT	SEGMENT PARA USE32 PUBLIC 'CODE'
_TEXT	ENDS
;	COMDAT ?allocate@?$allocator@U_Node@?$_Tree_nod@V?$_Tmap_traits@PAUHWND__@@UWndMoveData@@U?$less@PAUHWND__@@@std@@V?$allocator@U?$pair@QAUHWND__@@UWndMoveData@@@std@@@4@$0A@@std@@@std@@@std@@QAEPAU_Node@?$_Tree_nod@V?$_Tmap_traits@PAUHWND__@@UWndMoveData@@U?$less@PAUHWND__@@@std@@V?$allocator@U?$pair@QAUHWND__@@UWndMoveData@@@std@@@4@$0A@@std@@@2@I@Z
_TEXT	SEGMENT PARA USE32 PUBLIC 'CODE'
_TEXT	ENDS
;	COMDAT ?construct@?$allocator@PAU_Node@?$_Tree_nod@V?$_Tmap_traits@PAUHWND__@@UWndMoveData@@U?$less@PAUHWND__@@@std@@V?$allocator@U?$pair@QAUHWND__@@UWndMoveData@@@std@@@4@$0A@@std@@@std@@@std@@QAEXPAPAU_Node@?$_Tree_nod@V?$_Tmap_traits@PAUHWND__@@UWndMoveData@@U?$less@PAUHWND__@@@std@@V?$allocator@U?$pair@QAUHWND__@@UWndMoveData@@@std@@@4@$0A@@std@@@2@ABQAU342@@Z
_TEXT	SEGMENT PARA USE32 PUBLIC 'CODE'
_TEXT	ENDS
;	COMDAT ?_Dec@const_iterator@?$_Tree@V?$_Tmap_traits@PAUHWND__@@UWndMoveData@@U?$less@PAUHWND__@@@std@@V?$allocator@U?$pair@QAUHWND__@@UWndMoveData@@@std@@@4@$0A@@std@@@std@@QAEXXZ
_TEXT	SEGMENT PARA USE32 PUBLIC 'CODE'
_TEXT	ENDS
;	COMDAT ??0_Node@?$_Tree_nod@V?$_Tmap_traits@PAUHWND__@@UWndMoveData@@U?$less@PAUHWND__@@@std@@V?$allocator@U?$pair@QAUHWND__@@UWndMoveData@@@std@@@4@$0A@@std@@@std@@QAE@PAU012@00ABU?$pair@QAUHWND__@@UWndMoveData@@@2@D@Z
_TEXT	SEGMENT PARA USE32 PUBLIC 'CODE'
_TEXT	ENDS
;	COMDAT ??0?$_Tmap_traits@PAUHWND__@@UWndMoveData@@U?$less@PAUHWND__@@@std@@V?$allocator@U?$pair@QAUHWND__@@UWndMoveData@@@std@@@4@$0A@@std@@QAE@U?$less@PAUHWND__@@@1@@Z
_TEXT	SEGMENT PARA USE32 PUBLIC 'CODE'
_TEXT	ENDS
;	COMDAT ?Unlock@?$CComCritSecLock@VCComCriticalSection@ATL@@@ATL@@QAEXXZ
_TEXT	SEGMENT PARA USE32 PUBLIC 'CODE'
_TEXT	ENDS
;	COMDAT ??$_Maklocstr@D@std@@YAPADPBDPADABU_Cvtvec@@@Z
_TEXT	SEGMENT PARA USE32 PUBLIC 'CODE'
_TEXT	ENDS
;	COMDAT ??$_Destroy@U_Node@?$_Tree_nod@V?$_Tmap_traits@PAUHWND__@@UWndMoveData@@U?$less@PAUHWND__@@@std@@V?$allocator@U?$pair@QAUHWND__@@UWndMoveData@@@std@@@4@$0A@@std@@@std@@@std@@YAXPAU_Node@?$_Tree_nod@V?$_Tmap_traits@PAUHWND__@@UWndMoveData@@U?$less@PAUHWND__@@@std@@V?$allocator@U?$pair@QAUHWND__@@UWndMoveData@@@std@@@4@$0A@@std@@@0@@Z
_TEXT	SEGMENT PARA USE32 PUBLIC 'CODE'
_TEXT	ENDS
;	COMDAT ??$_Destroy@PAU_Node@?$_Tree_nod@V?$_Tmap_traits@PAUHWND__@@UWndMoveData@@U?$less@PAUHWND__@@@std@@V?$allocator@U?$pair@QAUHWND__@@UWndMoveData@@@std@@@4@$0A@@std@@@std@@@std@@YAXPAPAU_Node@?$_Tree_nod@V?$_Tmap_traits@PAUHWND__@@UWndMoveData@@U?$less@PAUHWND__@@@std@@V?$allocator@U?$pair@QAUHWND__@@UWndMoveData@@@std@@@4@$0A@@std@@@0@@Z
_TEXT	SEGMENT PARA USE32 PUBLIC 'CODE'
_TEXT	ENDS
;	COMDAT ??$?0U?$pair@QAUHWND__@@UWndMoveData@@@std@@@?$allocator@PAU_Node@?$_Tree_nod@V?$_Tmap_traits@PAUHWND__@@UWndMoveData@@U?$less@PAUHWND__@@@std@@V?$allocator@U?$pair@QAUHWND__@@UWndMoveData@@@std@@@4@$0A@@std@@@std@@@std@@QAE@ABV?$allocator@U?$pair@QAUHWND__@@UWndMoveData@@@std@@@1@@Z
_TEXT	SEGMENT PARA USE32 PUBLIC 'CODE'
_TEXT	ENDS
;	COMDAT ??$?0U?$pair@QAUHWND__@@UWndMoveData@@@std@@@?$allocator@U_Node@?$_Tree_nod@V?$_Tmap_traits@PAUHWND__@@UWndMoveData@@U?$less@PAUHWND__@@@std@@V?$allocator@U?$pair@QAUHWND__@@UWndMoveData@@@std@@@4@$0A@@std@@@std@@@std@@QAE@ABV?$allocator@U?$pair@QAUHWND__@@UWndMoveData@@@std@@@1@@Z
_TEXT	SEGMENT PARA USE32 PUBLIC 'CODE'
_TEXT	ENDS
;	COMDAT ??$_Allocate@U_Node@?$_Tree_nod@V?$_Tmap_traits@PAUHWND__@@UWndMoveData@@U?$less@PAUHWND__@@@std@@V?$allocator@U?$pair@QAUHWND__@@UWndMoveData@@@std@@@4@$0A@@std@@@std@@@std@@YAPAU_Node@?$_Tree_nod@V?$_Tmap_traits@PAUHWND__@@UWndMoveData@@U?$less@PAUHWND__@@@std@@V?$allocator@U?$pair@QAUHWND__@@UWndMoveData@@@std@@@4@$0A@@std@@@0@IPAU120@@Z
_TEXT	SEGMENT PARA USE32 PUBLIC 'CODE'
_TEXT	ENDS
;	COMDAT ??$_Construct@PAU_Node@?$_Tree_nod@V?$_Tmap_traits@PAUHWND__@@UWndMoveData@@U?$less@PAUHWND__@@@std@@V?$allocator@U?$pair@QAUHWND__@@UWndMoveData@@@std@@@4@$0A@@std@@@std@@PAU123@@std@@YAXPAPAU_Node@?$_Tree_nod@V?$_Tmap_traits@PAUHWND__@@UWndMoveData@@U?$less@PAUHWND__@@@std@@V?$allocator@U?$pair@QAUHWND__@@UWndMoveData@@@std@@@4@$0A@@std@@@0@ABQAU120@@Z
_TEXT	SEGMENT PARA USE32 PUBLIC 'CODE'
_TEXT	ENDS
;	COMDAT ??_R3?$numpunct@_W@std@@8
rdata$r	SEGMENT DWORD USE32 PUBLIC 'CONST'
rdata$r	ENDS
;	COMDAT ??_R3?$numpunct@D@std@@8
rdata$r	SEGMENT DWORD USE32 PUBLIC 'CONST'
rdata$r	ENDS
;	COMDAT ??_R3IData@@8
rdata$r	SEGMENT DWORD USE32 PUBLIC 'CONST'
rdata$r	ENDS
;	COMDAT ??_R2?$numpunct@_W@std@@8
rdata$r	SEGMENT DWORD USE32 PUBLIC 'CONST'
rdata$r	ENDS
;	COMDAT ??_R2?$numpunct@D@std@@8
rdata$r	SEGMENT DWORD USE32 PUBLIC 'CONST'
rdata$r	ENDS
;	COMDAT ??_R2IData@@8
rdata$r	SEGMENT DWORD USE32 PUBLIC 'CONST'
rdata$r	ENDS
;	COMDAT ??_R1A@?0A@A@?$numpunct@_W@std@@8
rdata$r	SEGMENT DWORD USE32 PUBLIC 'CONST'
rdata$r	ENDS
;	COMDAT ??_R1A@?0A@A@facet@locale@std@@8
rdata$r	SEGMENT DWORD USE32 PUBLIC 'CONST'
rdata$r	ENDS
;	COMDAT ??_R0?AVfacet@locale@std@@@8
_DATA	SEGMENT DWORD USE32 PUBLIC 'DATA'
_DATA	ENDS
;	COMDAT ??_R1A@?0A@A@?$numpunct@D@std@@8
rdata$r	SEGMENT DWORD USE32 PUBLIC 'CONST'
rdata$r	ENDS
;	COMDAT ??_R1A@?0A@A@IData@@8
rdata$r	SEGMENT DWORD USE32 PUBLIC 'CONST'
rdata$r	ENDS
;	COMDAT ??_R0?AV?$numpunct@_W@std@@@8
_DATA	SEGMENT DWORD USE32 PUBLIC 'DATA'
_DATA	ENDS
;	COMDAT ??_R0?AV?$numpunct@D@std@@@8
_DATA	SEGMENT DWORD USE32 PUBLIC 'DATA'
_DATA	ENDS
;	COMDAT ??_R0?AVIData@@@8
_DATA	SEGMENT DWORD USE32 PUBLIC 'DATA'
_DATA	ENDS
;	COMDAT ??0?$allocator@_W@std@@QAE@XZ
_TEXT	SEGMENT PARA USE32 PUBLIC 'CODE'
_TEXT	ENDS
;	COMDAT ??_G?$numpunct@_W@std@@MAEPAXI@Z
_TEXT	SEGMENT PARA USE32 PUBLIC 'CODE'
_TEXT	ENDS
;	COMDAT ??_R4?$numpunct@_W@std@@6B@
rdata$r	SEGMENT DWORD USE32 PUBLIC 'CONST'
rdata$r	ENDS
;	COMDAT ??_G?$numpunct@D@std@@MAEPAXI@Z
_TEXT	SEGMENT PARA USE32 PUBLIC 'CODE'
_TEXT	ENDS
;	COMDAT ??_R4?$numpunct@D@std@@6B@
rdata$r	SEGMENT DWORD USE32 PUBLIC 'CONST'
rdata$r	ENDS
;	COMDAT ??_R4IData@@6B@
rdata$r	SEGMENT DWORD USE32 PUBLIC 'CONST'
rdata$r	ENDS
;	COMDAT ??_C@_0EN@CBMLGOH@D?3?2Program?5Files?5?$CIx86?$CJ?2Microsoft@
CONST	SEGMENT DWORD USE32 PUBLIC 'CONST'
CONST	ENDS
;	COMDAT ?_Psave@?$_Facetptr@V?$numpunct@_W@std@@@std@@2PBVfacet@locale@2@B
_DATA	SEGMENT DWORD USE32 PUBLIC 'DATA'
_DATA	ENDS
;	COMDAT ?_Psave@?$_Facetptr@V?$numpunct@D@std@@@std@@2PBVfacet@locale@2@B
_DATA	SEGMENT DWORD USE32 PUBLIC 'DATA'
_DATA	ENDS
;	COMDAT ?Unlock@CComCriticalSection@ATL@@QAEJXZ
_TEXT	SEGMENT PARA USE32 PUBLIC 'CODE'
_TEXT	ENDS
;	COMDAT ??_C@_0FG@LDNDNCJM@D?3?2Program?5Files?5?$CIx86?$CJ?2Microsoft@
CONST	SEGMENT DWORD USE32 PUBLIC 'CONST'
CONST	ENDS
;	COMDAT ??_C@_09HIEJFN@m_bLocked?$AA@
CONST	SEGMENT DWORD USE32 PUBLIC 'CONST'
CONST	ENDS
;	COMDAT ?_Psave@?$_Facetptr@V?$ctype@_W@std@@@std@@2PBVfacet@locale@2@B
_DATA	SEGMENT DWORD USE32 PUBLIC 'DATA'
_DATA	ENDS
;	COMDAT ?_Psave@?$_Facetptr@V?$ctype@D@std@@@std@@2PBVfacet@locale@2@B
_DATA	SEGMENT DWORD USE32 PUBLIC 'DATA'
_DATA	ENDS
;	COMDAT ??3@YAXPAX0@Z
_TEXT	SEGMENT PARA USE32 PUBLIC 'CODE'
_TEXT	ENDS
;	COMDAT ??2@YAPAXIPAX@Z
_TEXT	SEGMENT PARA USE32 PUBLIC 'CODE'
_TEXT	ENDS
;	COMDAT ??$swap@D@std@@YAXAAD0@Z
_TEXT	SEGMENT PARA USE32 PUBLIC 'CODE'
_TEXT	ENDS
;	COMDAT __TI3?AVout_of_range@std@@
xdata$x	SEGMENT DWORD USE32 PUBLIC 'CONST'
xdata$x	ENDS
;	COMDAT ??1out_of_range@std@@UAE@XZ
_TEXT	SEGMENT PARA USE32 PUBLIC 'CODE'
_TEXT	ENDS
;	COMDAT ??_7out_of_range@std@@6B@
CONST	SEGMENT DWORD USE32 PUBLIC 'CONST'
CONST	ENDS
;	COMDAT ??_R4out_of_range@std@@6B@
rdata$r	SEGMENT DWORD USE32 PUBLIC 'CONST'
rdata$r	ENDS
;	COMDAT ??_R0?AVout_of_range@std@@@8
_DATA	SEGMENT DWORD USE32 PUBLIC 'DATA'
_DATA	ENDS
;	COMDAT ??_R3out_of_range@std@@8
rdata$r	SEGMENT DWORD USE32 PUBLIC 'CONST'
rdata$r	ENDS
;	COMDAT ??_R2out_of_range@std@@8
rdata$r	SEGMENT DWORD USE32 PUBLIC 'CONST'
rdata$r	ENDS
;	COMDAT ??_R1A@?0A@A@out_of_range@std@@8
rdata$r	SEGMENT DWORD USE32 PUBLIC 'CONST'
rdata$r	ENDS
;	COMDAT ??_R1A@?0A@A@logic_error@std@@8
rdata$r	SEGMENT DWORD USE32 PUBLIC 'CONST'
rdata$r	ENDS
;	COMDAT ??_R0?AVlogic_error@std@@@8
_DATA	SEGMENT DWORD USE32 PUBLIC 'DATA'
_DATA	ENDS
;	COMDAT ??_R1A@?0A@A@exception@@8
rdata$r	SEGMENT DWORD USE32 PUBLIC 'CONST'
rdata$r	ENDS
;	COMDAT ??_R0?AVexception@@@8
_DATA	SEGMENT DWORD USE32 PUBLIC 'DATA'
_DATA	ENDS
;	COMDAT ??_Gout_of_range@std@@UAEPAXI@Z
_TEXT	SEGMENT PARA USE32 PUBLIC 'CODE'
_TEXT	ENDS
;	COMDAT ?what@logic_error@std@@UBEPBDXZ
_TEXT	SEGMENT PARA USE32 PUBLIC 'CODE'
_TEXT	ENDS
;	COMDAT __CTA3?AVout_of_range@std@@
xdata$x	SEGMENT DWORD USE32 PUBLIC 'CONST'
xdata$x	ENDS
;	COMDAT __CT??_R0?AVout_of_range@std@@@8??0out_of_range@std@@QAE@ABV01@@Z40
xdata$x	SEGMENT DWORD USE32 PUBLIC 'CONST'
xdata$x	ENDS
;	COMDAT ??0out_of_range@std@@QAE@ABV01@@Z
_TEXT	SEGMENT PARA USE32 PUBLIC 'CODE'
_TEXT	ENDS
;	COMDAT ??_C@_0BM@PAPJHAGI@invalid?5map?1set?$DMT?$DO?5iterator?$AA@
CONST	SEGMENT DWORD USE32 PUBLIC 'CONST'
CONST	ENDS
;	COMDAT ??0out_of_range@std@@QAE@ABV?$basic_string@DU?$char_traits@D@std@@V?$allocator@D@2@@1@@Z
_TEXT	SEGMENT PARA USE32 PUBLIC 'CODE'
_TEXT	ENDS
;	COMDAT ??0logic_error@std@@QAE@ABV?$basic_string@DU?$char_traits@D@std@@V?$allocator@D@2@@1@@Z
_TEXT	SEGMENT PARA USE32 PUBLIC 'CODE'
_TEXT	ENDS
;	COMDAT ??_7logic_error@std@@6B@
CONST	SEGMENT DWORD USE32 PUBLIC 'CONST'
CONST	ENDS
;	COMDAT ??_R4logic_error@std@@6B@
rdata$r	SEGMENT DWORD USE32 PUBLIC 'CONST'
rdata$r	ENDS
;	COMDAT ??_R3logic_error@std@@8
rdata$r	SEGMENT DWORD USE32 PUBLIC 'CONST'
rdata$r	ENDS
;	COMDAT ??_R2logic_error@std@@8
rdata$r	SEGMENT DWORD USE32 PUBLIC 'CONST'
rdata$r	ENDS
;	COMDAT ??_Glogic_error@std@@UAEPAXI@Z
_TEXT	SEGMENT PARA USE32 PUBLIC 'CODE'
_TEXT	ENDS
;	COMDAT ??_7length_error@std@@6B@
CONST	SEGMENT DWORD USE32 PUBLIC 'CONST'
CONST	ENDS
;	COMDAT ??_R4length_error@std@@6B@
rdata$r	SEGMENT DWORD USE32 PUBLIC 'CONST'
rdata$r	ENDS
;	COMDAT ??_R3length_error@std@@8
rdata$r	SEGMENT DWORD USE32 PUBLIC 'CONST'
rdata$r	ENDS
;	COMDAT ??_R2length_error@std@@8
rdata$r	SEGMENT DWORD USE32 PUBLIC 'CONST'
rdata$r	ENDS
;	COMDAT ??_R1A@?0A@A@length_error@std@@8
rdata$r	SEGMENT DWORD USE32 PUBLIC 'CONST'
rdata$r	ENDS
;	COMDAT ??_Glength_error@std@@UAEPAXI@Z
_TEXT	SEGMENT PARA USE32 PUBLIC 'CODE'
_TEXT	ENDS
;	COMDAT ??1logic_error@std@@UAE@XZ
_TEXT	SEGMENT PARA USE32 PUBLIC 'CODE'
_TEXT	ENDS
;	COMDAT ??0logic_error@std@@QAE@ABV01@@Z
_TEXT	SEGMENT PARA USE32 PUBLIC 'CODE'
_TEXT	ENDS
;	COMDAT __CTA3?AVlength_error@std@@
xdata$x	SEGMENT DWORD USE32 PUBLIC 'CONST'
xdata$x	ENDS
;	COMDAT ??1length_error@std@@UAE@XZ
_TEXT	SEGMENT PARA USE32 PUBLIC 'CODE'
_TEXT	ENDS
;	COMDAT __CT??_R0?AVexception@@@8??0exception@@QAE@ABV0@@Z12
xdata$x	SEGMENT DWORD USE32 PUBLIC 'CONST'
xdata$x	ENDS
;	COMDAT __CT??_R0?AVlogic_error@std@@@8??0logic_error@std@@QAE@ABV01@@Z40
xdata$x	SEGMENT DWORD USE32 PUBLIC 'CONST'
xdata$x	ENDS
;	COMDAT __CT??_R0?AVlength_error@std@@@8??0length_error@std@@QAE@ABV01@@Z40
xdata$x	SEGMENT DWORD USE32 PUBLIC 'CONST'
xdata$x	ENDS
;	COMDAT ??_R0?AVlength_error@std@@@8
_DATA	SEGMENT DWORD USE32 PUBLIC 'DATA'
_DATA	ENDS
;	COMDAT __TI3?AVlength_error@std@@
xdata$x	SEGMENT DWORD USE32 PUBLIC 'CONST'
xdata$x	ENDS
;	COMDAT ??0?$allocator@D@std@@QAE@ABV01@@Z
_TEXT	SEGMENT PARA USE32 PUBLIC 'CODE'
_TEXT	ENDS
;	COMDAT ??0?$allocator@D@std@@QAE@XZ
_TEXT	SEGMENT PARA USE32 PUBLIC 'CODE'
_TEXT	ENDS
;	COMDAT ?deallocate@?$allocator@D@std@@QAEXPADI@Z
_TEXT	SEGMENT PARA USE32 PUBLIC 'CODE'
_TEXT	ENDS
;	COMDAT ?max_size@?$allocator@D@std@@QBEIXZ
_TEXT	SEGMENT PARA USE32 PUBLIC 'CODE'
_TEXT	ENDS
;	COMDAT ?allocate@?$allocator@D@std@@QAEPADI@Z
_TEXT	SEGMENT PARA USE32 PUBLIC 'CODE'
_TEXT	ENDS
;	COMDAT ??$_Allocate@D@std@@YAPADIPAD@Z
_TEXT	SEGMENT PARA USE32 PUBLIC 'CODE'
_TEXT	ENDS
;	COMDAT ??0length_error@std@@QAE@ABV?$basic_string@DU?$char_traits@D@std@@V?$allocator@D@2@@1@@Z
_TEXT	SEGMENT PARA USE32 PUBLIC 'CODE'
_TEXT	ENDS
;	COMDAT ??$_Maklocchr@_W@std@@YA_WDPA_WABU_Cvtvec@@@Z
_TEXT	SEGMENT PARA USE32 PUBLIC 'CODE'
_TEXT	ENDS
;	COMDAT ??$_DebugHeapDelete@X@std@@YAXPAX@Z
_TEXT	SEGMENT PARA USE32 PUBLIC 'CODE'
_TEXT	ENDS
;	COMDAT ??$_Maklocstr@_W@std@@YAPA_WPBDPA_WABU_Cvtvec@@@Z
_TEXT	SEGMENT PARA USE32 PUBLIC 'CODE'
_TEXT	ENDS
;	COMDAT ??$_Maklocchr@D@std@@YADDPADABU_Cvtvec@@@Z
_TEXT	SEGMENT PARA USE32 PUBLIC 'CODE'
_TEXT	ENDS
;	COMDAT ??_C@_04LOAJBDKD@true?$AA@
CONST	SEGMENT DWORD USE32 PUBLIC 'CONST'
CONST	ENDS
;	COMDAT ??_C@_05LAPONLG@false?$AA@
CONST	SEGMENT DWORD USE32 PUBLIC 'CONST'
CONST	ENDS
;	COMDAT _wmemcpy
_TEXT	SEGMENT PARA USE32 PUBLIC 'CODE'
_TEXT	ENDS
;	COMDAT ?max_size@?$allocator@_W@std@@QBEIXZ
_TEXT	SEGMENT PARA USE32 PUBLIC 'CODE'
_TEXT	ENDS
;	COMDAT ?allocate@?$allocator@_W@std@@QAEPA_WI@Z
_TEXT	SEGMENT PARA USE32 PUBLIC 'CODE'
_TEXT	ENDS
;	COMDAT ??$_Allocate@_W@std@@YAPA_WIPA_W@Z
_TEXT	SEGMENT PARA USE32 PUBLIC 'CODE'
_TEXT	ENDS
;	COMDAT ??_C@_01GFHCPBMG@C?$AA@
CONST	SEGMENT DWORD USE32 PUBLIC 'CONST'
CONST	ENDS
;	COMDAT ?_Peek@?$istreambuf_iterator@_WU?$char_traits@_W@std@@@std@@AAE_WXZ
_TEXT	SEGMENT PARA USE32 PUBLIC 'CODE'
_TEXT	ENDS
;	COMDAT ?_Peek@?$istreambuf_iterator@DU?$char_traits@D@std@@@std@@AAEDXZ
_TEXT	SEGMENT PARA USE32 PUBLIC 'CODE'
_TEXT	ENDS
;	COMDAT ??$use_facet@V?$ctype@_W@std@@@std@@YAABV?$ctype@_W@0@ABVlocale@0@@Z
_TEXT	SEGMENT PARA USE32 PUBLIC 'CODE'
_TEXT	ENDS
;	COMDAT ??_S?$ctype@_W@std@@6B@
CONST	SEGMENT DWORD USE32 PUBLIC 'CONST'
CONST	ENDS
;	COMDAT ??_R4?$ctype@_W@std@@6B@
rdata$r	SEGMENT DWORD USE32 PUBLIC 'CONST'
rdata$r	ENDS
;	COMDAT ??_R0?AV?$ctype@_W@std@@@8
_DATA	SEGMENT DWORD USE32 PUBLIC 'DATA'
_DATA	ENDS
;	COMDAT ??_R3?$ctype@_W@std@@8
rdata$r	SEGMENT DWORD USE32 PUBLIC 'CONST'
rdata$r	ENDS
;	COMDAT ??_R2?$ctype@_W@std@@8
rdata$r	SEGMENT DWORD USE32 PUBLIC 'CONST'
rdata$r	ENDS
;	COMDAT ??_R1A@?0A@A@?$ctype@_W@std@@8
rdata$r	SEGMENT DWORD USE32 PUBLIC 'CONST'
rdata$r	ENDS
;	COMDAT ??_R1A@?0A@A@ctype_base@std@@8
rdata$r	SEGMENT DWORD USE32 PUBLIC 'CONST'
rdata$r	ENDS
;	COMDAT ??_R0?AUctype_base@std@@@8
_DATA	SEGMENT DWORD USE32 PUBLIC 'DATA'
_DATA	ENDS
;	COMDAT ??_G?$ctype@_W@std@@MAEPAXI@Z
_TEXT	SEGMENT PARA USE32 PUBLIC 'CODE'
_TEXT	ENDS
;	COMDAT ??_C@_08EPJLHIJG@bad?5cast?$AA@
CONST	SEGMENT DWORD USE32 PUBLIC 'CONST'
CONST	ENDS
;	COMDAT __TI2?AVbad_cast@@
xdata$x	SEGMENT DWORD USE32 PUBLIC 'CONST'
xdata$x	ENDS
;	COMDAT __CTA2?AVbad_cast@@
xdata$x	SEGMENT DWORD USE32 PUBLIC 'CONST'
xdata$x	ENDS
;	COMDAT __CT??_R0?AVbad_cast@@@8??0bad_cast@@QAE@ABV0@@Z12
xdata$x	SEGMENT DWORD USE32 PUBLIC 'CONST'
xdata$x	ENDS
;	COMDAT ??_R0?AVbad_cast@@@8
_DATA	SEGMENT DWORD USE32 PUBLIC 'DATA'
_DATA	ENDS
;	COMDAT ??$_DebugHeapDelete@Vfacet@locale@std@@@std@@YAXPAVfacet@locale@0@@Z
_TEXT	SEGMENT PARA USE32 PUBLIC 'CODE'
_TEXT	ENDS
;	COMDAT ??$use_facet@V?$ctype@D@std@@@std@@YAABV?$ctype@D@0@ABVlocale@0@@Z
_TEXT	SEGMENT PARA USE32 PUBLIC 'CODE'
_TEXT	ENDS
;	COMDAT ??_S?$ctype@D@std@@6B@
CONST	SEGMENT DWORD USE32 PUBLIC 'CONST'
CONST	ENDS
;	COMDAT ??_R4?$ctype@D@std@@6B@
rdata$r	SEGMENT DWORD USE32 PUBLIC 'CONST'
rdata$r	ENDS
;	COMDAT ??_R0?AV?$ctype@D@std@@@8
_DATA	SEGMENT DWORD USE32 PUBLIC 'DATA'
_DATA	ENDS
;	COMDAT ??_R3?$ctype@D@std@@8
rdata$r	SEGMENT DWORD USE32 PUBLIC 'CONST'
rdata$r	ENDS
;	COMDAT ??_R2?$ctype@D@std@@8
rdata$r	SEGMENT DWORD USE32 PUBLIC 'CONST'
rdata$r	ENDS
;	COMDAT ??_R1A@?0A@A@?$ctype@D@std@@8
rdata$r	SEGMENT DWORD USE32 PUBLIC 'CONST'
rdata$r	ENDS
;	COMDAT ??_G?$ctype@D@std@@MAEPAXI@Z
_TEXT	SEGMENT PARA USE32 PUBLIC 'CODE'
_TEXT	ENDS
;	COMDAT ??_S?$numpunct@_W@std@@6B@
CONST	SEGMENT DWORD USE32 PUBLIC 'CONST'
CONST	ENDS
;	COMDAT ??_S?$numpunct@D@std@@6B@
CONST	SEGMENT DWORD USE32 PUBLIC 'CONST'
CONST	ENDS
;	COMDAT _wmemmove
_TEXT	SEGMENT PARA USE32 PUBLIC 'CODE'
_TEXT	ENDS
;	COMDAT ?deallocate@?$allocator@_W@std@@QAEXPA_WI@Z
_TEXT	SEGMENT PARA USE32 PUBLIC 'CODE'
_TEXT	ENDS
;	COMDAT ??0?$allocator@_W@std@@QAE@ABV01@@Z
_TEXT	SEGMENT PARA USE32 PUBLIC 'CODE'
_TEXT	ENDS
;	COMDAT ??0CTraceFileAndLineInfo@ATL@@QAE@PBDH@Z
_TEXT	SEGMENT PARA USE32 PUBLIC 'CODE'
_TEXT	ENDS
;	COMDAT ??RCTraceFileAndLineInfo@ATL@@QBAXPBDZZ
_TEXT	SEGMENT PARA USE32 PUBLIC 'CODE'
_TEXT	ENDS
;	COMDAT ?TraceV@CTrace@ATL@@QBAXPBDHKI0PAD@Z
_TEXT	SEGMENT PARA USE32 PUBLIC 'CODE'
_TEXT	ENDS
;	COMDAT ??BCTraceCategory@ATL@@QBEKXZ
_TEXT	SEGMENT PARA USE32 PUBLIC 'CODE'
_TEXT	ENDS
;	COMDAT ?IsLocked@CStringData@ATL@@QBE_NXZ
_TEXT	SEGMENT PARA USE32 PUBLIC 'CODE'
_TEXT	ENDS
;	COMDAT ??_C@_0N@ILOMLJGA@nLength?5?$DO?$DN?50?$AA@
CONST	SEGMENT DWORD USE32 PUBLIC 'CONST'
CONST	ENDS
;	COMDAT ??_C@_0CD@EEFFJEGJ@nLength?5?$DM?$DN?5GetData?$CI?$CJ?9?$DOnAllocLeng@
CONST	SEGMENT DWORD USE32 PUBLIC 'CONST'
CONST	ENDS
;	COMDAT ??_C@_0FJ@DMHPDOJC@D?3?2Program?5Files?5?$CIx86?$CJ?2Microsoft@
CONST	SEGMENT DWORD USE32 PUBLIC 'CONST'
CONST	ENDS
;	COMDAT ?AtlThrow@ATL@@YGXJ@Z
_TEXT	SEGMENT PARA USE32 PUBLIC 'CODE'
_TEXT	ENDS
;	COMDAT ??RCTraceFileAndLineInfo@ATL@@QBAXKIPBDZZ
_TEXT	SEGMENT PARA USE32 PUBLIC 'CODE'
_TEXT	ENDS
;	COMDAT ??_C@_0FI@NHHJANPC@D?3?2Program?5Files?5?$CIx86?$CJ?2Microsoft@
CONST	SEGMENT DWORD USE32 PUBLIC 'CONST'
CONST	ENDS
;	COMDAT ??_C@_0BF@IAAKIJDJ@AtlThrow?3?5hr?5?$DN?50x?$CFx?6?$AA@
CONST	SEGMENT DWORD USE32 PUBLIC 'CONST'
CONST	ENDS
;	COMDAT ?IsShared@CStringData@ATL@@QBE_NXZ
_TEXT	SEGMENT PARA USE32 PUBLIC 'CODE'
_TEXT	ENDS
;	COMDAT ?data@CStringData@ATL@@QAEPAXXZ
_TEXT	SEGMENT PARA USE32 PUBLIC 'CODE'
_TEXT	ENDS
;	COMDAT ??_C@_0CB@GFHAPKDK@pOldData?9?$DOnAllocLength?5?$DM?5nLength@
CONST	SEGMENT DWORD USE32 PUBLIC 'CONST'
CONST	ENDS
;	COMDAT ??_C@_0BA@GNIEOBOF@nNewLength?5?$DO?$DN?50?$AA@
CONST	SEGMENT DWORD USE32 PUBLIC 'CONST'
CONST	ENDS
;	COMDAT ?AddRef@CStringData@ATL@@QAEXXZ
_TEXT	SEGMENT PARA USE32 PUBLIC 'CODE'
_TEXT	ENDS
;	COMDAT ??_C@_09EEBKLCFA@nRefs?5?$DO?50?$AA@
CONST	SEGMENT DWORD USE32 PUBLIC 'CONST'
CONST	ENDS
;	COMDAT ?Release@CStringData@ATL@@QAEXXZ
_TEXT	SEGMENT PARA USE32 PUBLIC 'CODE'
_TEXT	ENDS
;	COMDAT ??_C@_0L@OIIMFBNE@nRefs?5?$CB?$DN?50?$AA@
CONST	SEGMENT DWORD USE32 PUBLIC 'CONST'
CONST	ENDS
;	COMDAT ??_7IData@@6B@
CONST	SEGMENT DWORD USE32 PUBLIC 'CONST'
CONST	ENDS
sxdata	SEGMENT DWORD USE32 'SXDATA'
sxdata	ENDS
FLAT	GROUP _DATA, CONST, _BSS
	ASSUME	CS: FLAT, DS: FLAT, SS: FLAT
endif

INCLUDELIB MSVCRTD
INCLUDELIB OLDNAMES

PUBLIC	?m_pMover@CWindowsMover@@0PAV1@A		; CWindowsMover::m_pMover
_BSS	SEGMENT
?m_pMover@CWindowsMover@@0PAV1@A DD 01H DUP (?)		; CWindowsMover::m_pMover
_BSS	ENDS
CONST	SEGMENT
$SG188188 DB	'.\src\LayoutMgr\SeperateMode\WindowsMover.cpp', 00H
	ORG $+2
$SG188189 DB	'offset:%d , %d', 0aH, 00H
$SG188333 DB	'.\src\LayoutMgr\SeperateMode\WindowsMover.cpp', 00H
	ORG $+2
$SG188334 DB	'MOVING %d, %d, %d, %d', 0aH, 00H
CONST	ENDS
PUBLIC	?GetInstance@CWindowsMover@@SAPAV1@XZ		; CWindowsMover::GetInstance
PUBLIC	??0CWindowsMover@@AAE@XZ			; CWindowsMover::CWindowsMover
EXTRN	__RTC_InitBase:NEAR
EXTRN	__RTC_Shutdown:NEAR
EXTRN	??2@YAPAXI@Z:NEAR				; operator new
EXTRN	??3@YAXPAX@Z:NEAR				; operator delete
EXTRN	__except_list:DWORD
EXTRN	__RTC_CheckEsp:NEAR
EXTRN	___CxxFrameHandler:NEAR
;	COMDAT rtc$IMZ
; File d:\boxgit\playbox\playbox\dev\prj\playbox\src\layoutmgr\seperatemode\windowsmover.cpp
rtc$IMZ	SEGMENT
__RTC_InitBase.rtc$IMZ DD FLAT:__RTC_InitBase
rtc$IMZ	ENDS
;	COMDAT rtc$TMZ
rtc$TMZ	SEGMENT
__RTC_Shutdown.rtc$TMZ DD FLAT:__RTC_Shutdown
rtc$TMZ	ENDS
xdata$x	SEGMENT
$T189559 DD	0ffffffffH
	DD	FLAT:$L189551
$T189555 DD	019930520H
	DD	01H
	DD	FLAT:$T189559
	DD	2 DUP(00H)
	DD	2 DUP(00H)
; Function compile flags: /Odt /RTCsu
xdata$x	ENDS
_TEXT	SEGMENT
tv72 = -24						; size = 4
$T189542 = -20						; size = 4
$T189541 = -16						; size = 4
__$EHRec$ = -12						; size = 12
?GetInstance@CWindowsMover@@SAPAV1@XZ PROC NEAR		; CWindowsMover::GetInstance

; 8    : {

  00000	55		 push	 ebp
  00001	8b ec		 mov	 ebp, esp
  00003	6a ff		 push	 -1
  00005	68 00 00 00 00	 push	 __ehhandler$?GetInstance@CWindowsMover@@SAPAV1@XZ
  0000a	64 a1 00 00 00
	00		 mov	 eax, DWORD PTR fs:__except_list
  00010	50		 push	 eax
  00011	64 89 25 00 00
	00 00		 mov	 DWORD PTR fs:__except_list, esp
  00018	83 ec 0c	 sub	 esp, 12			; 0000000cH
  0001b	c7 45 e8 cc cc
	cc cc		 mov	 DWORD PTR [ebp-24], -858993460 ; ccccccccH
  00022	c7 45 ec cc cc
	cc cc		 mov	 DWORD PTR [ebp-20], -858993460 ; ccccccccH
  00029	c7 45 f0 cc cc
	cc cc		 mov	 DWORD PTR [ebp-16], -858993460 ; ccccccccH

; 9    : 	if(m_pMover == NULL)

  00030	83 3d 00 00 00
	00 00		 cmp	 DWORD PTR ?m_pMover@CWindowsMover@@0PAV1@A, 0 ; CWindowsMover::m_pMover
  00037	75 44		 jne	 SHORT $L188041

; 10   : 	{
; 11   : 		m_pMover = new CWindowsMover();

  00039	6a 40		 push	 64			; 00000040H
  0003b	e8 00 00 00 00	 call	 ??2@YAPAXI@Z		; operator new
  00040	83 c4 04	 add	 esp, 4
  00043	89 45 ec	 mov	 DWORD PTR $T189542[ebp], eax
  00046	c7 45 fc 00 00
	00 00		 mov	 DWORD PTR __$EHRec$[ebp+8], 0
  0004d	83 7d ec 00	 cmp	 DWORD PTR $T189542[ebp], 0
  00051	74 0d		 je	 SHORT $L189543
  00053	8b 4d ec	 mov	 ecx, DWORD PTR $T189542[ebp]
  00056	e8 00 00 00 00	 call	 ??0CWindowsMover@@AAE@XZ ; CWindowsMover::CWindowsMover
  0005b	89 45 e8	 mov	 DWORD PTR tv72[ebp], eax
  0005e	eb 07		 jmp	 SHORT $L189544
$L189543:
  00060	c7 45 e8 00 00
	00 00		 mov	 DWORD PTR tv72[ebp], 0
$L189544:
  00067	8b 45 e8	 mov	 eax, DWORD PTR tv72[ebp]
  0006a	89 45 f0	 mov	 DWORD PTR $T189541[ebp], eax
  0006d	c7 45 fc ff ff
	ff ff		 mov	 DWORD PTR __$EHRec$[ebp+8], -1
  00074	8b 4d f0	 mov	 ecx, DWORD PTR $T189541[ebp]
  00077	89 0d 00 00 00
	00		 mov	 DWORD PTR ?m_pMover@CWindowsMover@@0PAV1@A, ecx ; CWindowsMover::m_pMover
$L188041:

; 12   : 	}
; 13   : 
; 14   : 	return m_pMover;

  0007d	a1 00 00 00 00	 mov	 eax, DWORD PTR ?m_pMover@CWindowsMover@@0PAV1@A ; CWindowsMover::m_pMover

; 15   : }

  00082	8b 4d f4	 mov	 ecx, DWORD PTR __$EHRec$[ebp]
  00085	64 89 0d 00 00
	00 00		 mov	 DWORD PTR fs:__except_list, ecx
  0008c	83 c4 18	 add	 esp, 24			; 00000018H
  0008f	3b ec		 cmp	 ebp, esp
  00091	e8 00 00 00 00	 call	 __RTC_CheckEsp
  00096	8b e5		 mov	 esp, ebp
  00098	5d		 pop	 ebp
  00099	c3		 ret	 0
_TEXT	ENDS
text$x	SEGMENT
$L189551:
  00000	8b 45 ec	 mov	 eax, DWORD PTR $T189542[ebp]
  00003	50		 push	 eax
  00004	e8 00 00 00 00	 call	 ??3@YAXPAX@Z		; operator delete
  00009	59		 pop	 ecx
  0000a	c3		 ret	 0
__ehhandler$?GetInstance@CWindowsMover@@SAPAV1@XZ:
  0000b	b8 00 00 00 00	 mov	 eax, OFFSET FLAT:$T189555
  00010	e9 00 00 00 00	 jmp	 ___CxxFrameHandler
text$x	ENDS
?GetInstance@CWindowsMover@@SAPAV1@XZ ENDP		; CWindowsMover::GetInstance
PUBLIC	?DelInstance@CWindowsMover@@SAXXZ		; CWindowsMover::DelInstance
PUBLIC	??_GCWindowsMover@@AAEPAXI@Z			; CWindowsMover::`scalar deleting destructor'
; Function compile flags: /Odt /RTCsu
_TEXT	SEGMENT
tv68 = -12						; size = 4
$T189563 = -8						; size = 4
$T189562 = -4						; size = 4
?DelInstance@CWindowsMover@@SAXXZ PROC NEAR		; CWindowsMover::DelInstance

; 18   : {

  000a0	55		 push	 ebp
  000a1	8b ec		 mov	 ebp, esp
  000a3	83 ec 0c	 sub	 esp, 12			; 0000000cH
  000a6	c7 45 f4 cc cc
	cc cc		 mov	 DWORD PTR [ebp-12], -858993460 ; ccccccccH
  000ad	c7 45 f8 cc cc
	cc cc		 mov	 DWORD PTR [ebp-8], -858993460 ; ccccccccH
  000b4	c7 45 fc cc cc
	cc cc		 mov	 DWORD PTR [ebp-4], -858993460 ; ccccccccH

; 19   : 	delete m_pMover;

  000bb	a1 00 00 00 00	 mov	 eax, DWORD PTR ?m_pMover@CWindowsMover@@0PAV1@A ; CWindowsMover::m_pMover
  000c0	89 45 f8	 mov	 DWORD PTR $T189563[ebp], eax
  000c3	8b 4d f8	 mov	 ecx, DWORD PTR $T189563[ebp]
  000c6	89 4d fc	 mov	 DWORD PTR $T189562[ebp], ecx
  000c9	83 7d fc 00	 cmp	 DWORD PTR $T189562[ebp], 0
  000cd	74 0f		 je	 SHORT $L189564
  000cf	6a 01		 push	 1
  000d1	8b 4d fc	 mov	 ecx, DWORD PTR $T189562[ebp]
  000d4	e8 00 00 00 00	 call	 ??_GCWindowsMover@@AAEPAXI@Z
  000d9	89 45 f4	 mov	 DWORD PTR tv68[ebp], eax
  000dc	eb 07		 jmp	 SHORT $L188047
$L189564:
  000de	c7 45 f4 00 00
	00 00		 mov	 DWORD PTR tv68[ebp], 0
$L188047:

; 20   : }

  000e5	83 c4 0c	 add	 esp, 12			; 0000000cH
  000e8	3b ec		 cmp	 ebp, esp
  000ea	e8 00 00 00 00	 call	 __RTC_CheckEsp
  000ef	8b e5		 mov	 esp, ebp
  000f1	5d		 pop	 ebp
  000f2	c3		 ret	 0
?DelInstance@CWindowsMover@@SAXXZ ENDP			; CWindowsMover::DelInstance
_TEXT	ENDS
PUBLIC	??1CWindowsMover@@AAE@XZ			; CWindowsMover::~CWindowsMover
; Function compile flags: /Odt /RTCsu
;	COMDAT ??_GCWindowsMover@@AAEPAXI@Z
_TEXT	SEGMENT
_this$ = -4						; size = 4
___flags$ = 8						; size = 4
??_GCWindowsMover@@AAEPAXI@Z PROC NEAR			; CWindowsMover::`scalar deleting destructor', COMDAT
; _this$ = ecx
  00000	55		 push	 ebp
  00001	8b ec		 mov	 ebp, esp
  00003	51		 push	 ecx
  00004	c7 45 fc cc cc
	cc cc		 mov	 DWORD PTR [ebp-4], -858993460 ; ccccccccH
  0000b	89 4d fc	 mov	 DWORD PTR _this$[ebp], ecx
  0000e	8b 4d fc	 mov	 ecx, DWORD PTR _this$[ebp]
  00011	e8 00 00 00 00	 call	 ??1CWindowsMover@@AAE@XZ ; CWindowsMover::~CWindowsMover
  00016	8b 45 08	 mov	 eax, DWORD PTR ___flags$[ebp]
  00019	83 e0 01	 and	 eax, 1
  0001c	74 0c		 je	 SHORT $L188053
  0001e	8b 4d fc	 mov	 ecx, DWORD PTR _this$[ebp]
  00021	51		 push	 ecx
  00022	e8 00 00 00 00	 call	 ??3@YAXPAX@Z		; operator delete
  00027	83 c4 04	 add	 esp, 4
$L188053:
  0002a	8b 45 fc	 mov	 eax, DWORD PTR _this$[ebp]
  0002d	83 c4 04	 add	 esp, 4
  00030	3b ec		 cmp	 ebp, esp
  00032	e8 00 00 00 00	 call	 __RTC_CheckEsp
  00037	8b e5		 mov	 esp, ebp
  00039	5d		 pop	 ebp
  0003a	c2 04 00	 ret	 4
??_GCWindowsMover@@AAEPAXI@Z ENDP			; CWindowsMover::`scalar deleting destructor'
_TEXT	ENDS
PUBLIC	??0?$map@PAUHWND__@@UWndMoveData@@U?$less@PAUHWND__@@@std@@V?$allocator@U?$pair@QAUHWND__@@UWndMoveData@@@std@@@4@@std@@QAE@XZ ; std::map<HWND__ *,WndMoveData,std::less<HWND__ *>,std::allocator<std::pair<HWND__ * const,WndMoveData> > >::map<HWND__ *,WndMoveData,std::less<HWND__ *>,std::allocator<std::pair<HWND__ * const,WndMoveData> > >
EXTRN	??0CPoint@@QAE@XZ:NEAR				; CPoint::CPoint
EXTRN	??0CRect@@QAE@XZ:NEAR				; CRect::CRect
; Function compile flags: /Odt /RTCsu
_TEXT	SEGMENT
_this$ = -4						; size = 4
??0CWindowsMover@@AAE@XZ PROC NEAR			; CWindowsMover::CWindowsMover
; _this$ = ecx

; 23   : {

  00100	55		 push	 ebp
  00101	8b ec		 mov	 ebp, esp
  00103	51		 push	 ecx
  00104	c7 45 fc cc cc
	cc cc		 mov	 DWORD PTR [ebp-4], -858993460 ; ccccccccH
  0010b	89 4d fc	 mov	 DWORD PTR _this$[ebp], ecx
  0010e	8b 4d fc	 mov	 ecx, DWORD PTR _this$[ebp]
  00111	83 c1 04	 add	 ecx, 4
  00114	e8 00 00 00 00	 call	 ??0?$map@PAUHWND__@@UWndMoveData@@U?$less@PAUHWND__@@@std@@V?$allocator@U?$pair@QAUHWND__@@UWndMoveData@@@std@@@4@@std@@QAE@XZ ; std::map<HWND__ *,WndMoveData,std::less<HWND__ *>,std::allocator<std::pair<HWND__ * const,WndMoveData> > >::map<HWND__ *,WndMoveData,std::less<HWND__ *>,std::allocator<std::pair<HWND__ * const,WndMoveData> > >
  00119	8b 4d fc	 mov	 ecx, DWORD PTR _this$[ebp]
  0011c	83 c1 14	 add	 ecx, 20			; 00000014H
  0011f	e8 00 00 00 00	 call	 ??0CPoint@@QAE@XZ	; CPoint::CPoint
  00124	8b 4d fc	 mov	 ecx, DWORD PTR _this$[ebp]
  00127	83 c1 1c	 add	 ecx, 28			; 0000001cH
  0012a	e8 00 00 00 00	 call	 ??0CPoint@@QAE@XZ	; CPoint::CPoint
  0012f	8b 4d fc	 mov	 ecx, DWORD PTR _this$[ebp]
  00132	83 c1 2c	 add	 ecx, 44			; 0000002cH
  00135	e8 00 00 00 00	 call	 ??0CRect@@QAE@XZ	; CRect::CRect

; 24   : 	m_bMouseDown = false;

  0013a	8b 45 fc	 mov	 eax, DWORD PTR _this$[ebp]
  0013d	c7 00 00 00 00
	00		 mov	 DWORD PTR [eax], 0

; 25   : 	m_bDontMoveContent = false;

  00143	8b 4d fc	 mov	 ecx, DWORD PTR _this$[ebp]
  00146	c7 41 3c 00 00
	00 00		 mov	 DWORD PTR [ecx+60], 0

; 26   : }

  0014d	8b 45 fc	 mov	 eax, DWORD PTR _this$[ebp]
  00150	83 c4 04	 add	 esp, 4
  00153	3b ec		 cmp	 ebp, esp
  00155	e8 00 00 00 00	 call	 __RTC_CheckEsp
  0015a	8b e5		 mov	 esp, ebp
  0015c	5d		 pop	 ebp
  0015d	c3		 ret	 0
??0CWindowsMover@@AAE@XZ ENDP				; CWindowsMover::CWindowsMover
_TEXT	ENDS
PUBLIC	??1?$map@PAUHWND__@@UWndMoveData@@U?$less@PAUHWND__@@@std@@V?$allocator@U?$pair@QAUHWND__@@UWndMoveData@@@std@@@4@@std@@QAE@XZ ; std::map<HWND__ *,WndMoveData,std::less<HWND__ *>,std::allocator<std::pair<HWND__ * const,WndMoveData> > >::~map<HWND__ *,WndMoveData,std::less<HWND__ *>,std::allocator<std::pair<HWND__ * const,WndMoveData> > >
; Function compile flags: /Odt /RTCsu
_TEXT	SEGMENT
_this$ = -4						; size = 4
??1CWindowsMover@@AAE@XZ PROC NEAR			; CWindowsMover::~CWindowsMover
; _this$ = ecx

; 29   : {

  00160	55		 push	 ebp
  00161	8b ec		 mov	 ebp, esp
  00163	51		 push	 ecx
  00164	c7 45 fc cc cc
	cc cc		 mov	 DWORD PTR [ebp-4], -858993460 ; ccccccccH
  0016b	89 4d fc	 mov	 DWORD PTR _this$[ebp], ecx

; 30   : }

  0016e	8b 4d fc	 mov	 ecx, DWORD PTR _this$[ebp]
  00171	83 c1 04	 add	 ecx, 4
  00174	e8 00 00 00 00	 call	 ??1?$map@PAUHWND__@@UWndMoveData@@U?$less@PAUHWND__@@@std@@V?$allocator@U?$pair@QAUHWND__@@UWndMoveData@@@std@@@4@@std@@QAE@XZ
  00179	83 c4 04	 add	 esp, 4
  0017c	3b ec		 cmp	 ebp, esp
  0017e	e8 00 00 00 00	 call	 __RTC_CheckEsp
  00183	8b e5		 mov	 esp, ebp
  00185	5d		 pop	 ebp
  00186	c3		 ret	 0
??1CWindowsMover@@AAE@XZ ENDP				; CWindowsMover::~CWindowsMover
_TEXT	ENDS
PUBLIC	??1?$_Tree@V?$_Tmap_traits@PAUHWND__@@UWndMoveData@@U?$less@PAUHWND__@@@std@@V?$allocator@U?$pair@QAUHWND__@@UWndMoveData@@@std@@@4@$0A@@std@@@std@@QAE@XZ ; std::_Tree<std::_Tmap_traits<HWND__ *,WndMoveData,std::less<HWND__ *>,std::allocator<std::pair<HWND__ * const,WndMoveData> >,0> >::~_Tree<std::_Tmap_traits<HWND__ *,WndMoveData,std::less<HWND__ *>,std::allocator<std::pair<HWND__ * const,WndMoveData> >,0> >
; Function compile flags: /Odt /RTCsu
;	COMDAT ??1?$map@PAUHWND__@@UWndMoveData@@U?$less@PAUHWND__@@@std@@V?$allocator@U?$pair@QAUHWND__@@UWndMoveData@@@std@@@4@@std@@QAE@XZ
_TEXT	SEGMENT
_this$ = -4						; size = 4
??1?$map@PAUHWND__@@UWndMoveData@@U?$less@PAUHWND__@@@std@@V?$allocator@U?$pair@QAUHWND__@@UWndMoveData@@@std@@@4@@std@@QAE@XZ PROC NEAR ; std::map<HWND__ *,WndMoveData,std::less<HWND__ *>,std::allocator<std::pair<HWND__ * const,WndMoveData> > >::~map<HWND__ *,WndMoveData,std::less<HWND__ *>,std::allocator<std::pair<HWND__ * const,WndMoveData> > >, COMDAT
; _this$ = ecx
  00000	55		 push	 ebp
  00001	8b ec		 mov	 ebp, esp
  00003	51		 push	 ecx
  00004	c7 45 fc cc cc
	cc cc		 mov	 DWORD PTR [ebp-4], -858993460 ; ccccccccH
  0000b	89 4d fc	 mov	 DWORD PTR _this$[ebp], ecx
  0000e	8b 4d fc	 mov	 ecx, DWORD PTR _this$[ebp]
  00011	e8 00 00 00 00	 call	 ??1?$_Tree@V?$_Tmap_traits@PAUHWND__@@UWndMoveData@@U?$less@PAUHWND__@@@std@@V?$allocator@U?$pair@QAUHWND__@@UWndMoveData@@@std@@@4@$0A@@std@@@std@@QAE@XZ ; std::_Tree<std::_Tmap_traits<HWND__ *,WndMoveData,std::less<HWND__ *>,std::allocator<std::pair<HWND__ * const,WndMoveData> >,0> >::~_Tree<std::_Tmap_traits<HWND__ *,WndMoveData,std::less<HWND__ *>,std::allocator<std::pair<HWND__ * const,WndMoveData> >,0> >
  00016	83 c4 04	 add	 esp, 4
  00019	3b ec		 cmp	 ebp, esp
  0001b	e8 00 00 00 00	 call	 __RTC_CheckEsp
  00020	8b e5		 mov	 esp, ebp
  00022	5d		 pop	 ebp
  00023	c3		 ret	 0
??1?$map@PAUHWND__@@UWndMoveData@@U?$less@PAUHWND__@@@std@@V?$allocator@U?$pair@QAUHWND__@@UWndMoveData@@@std@@@4@@std@@QAE@XZ ENDP ; std::map<HWND__ *,WndMoveData,std::less<HWND__ *>,std::allocator<std::pair<HWND__ * const,WndMoveData> > >::~map<HWND__ *,WndMoveData,std::less<HWND__ *>,std::allocator<std::pair<HWND__ * const,WndMoveData> > >
_TEXT	ENDS
PUBLIC	??A?$map@PAUHWND__@@UWndMoveData@@U?$less@PAUHWND__@@@std@@V?$allocator@U?$pair@QAUHWND__@@UWndMoveData@@@std@@@4@@std@@QAEAAUWndMoveData@@ABQAUHWND__@@@Z ; std::map<HWND__ *,WndMoveData,std::less<HWND__ *>,std::allocator<std::pair<HWND__ * const,WndMoveData> > >::operator[]
PUBLIC	?AddWndindow@CWindowsMover@@QAEXPAVCWnd@@_N@Z	; CWindowsMover::AddWndindow
PUBLIC	??0WndMoveData@@QAE@XZ				; WndMoveData::WndMoveData
EXTRN	@_RTC_CheckStackVars@8:NEAR
; Function compile flags: /Odt /RTCsu
_TEXT	SEGMENT
_data$ = -36						; size = 28
_this$ = -4						; size = 4
_pWnd$ = 8						; size = 4
_isMain$ = 12						; size = 1
?AddWndindow@CWindowsMover@@QAEXPAVCWnd@@_N@Z PROC NEAR	; CWindowsMover::AddWndindow
; _this$ = ecx

; 33   : {

  00190	55		 push	 ebp
  00191	8b ec		 mov	 ebp, esp
  00193	83 ec 28	 sub	 esp, 40			; 00000028H
  00196	56		 push	 esi
  00197	57		 push	 edi
  00198	51		 push	 ecx
  00199	8d 7d d8	 lea	 edi, DWORD PTR [ebp-40]
  0019c	b9 0a 00 00 00	 mov	 ecx, 10			; 0000000aH
  001a1	b8 cc cc cc cc	 mov	 eax, -858993460		; ccccccccH
  001a6	f3 ab		 rep stosd
  001a8	59		 pop	 ecx
  001a9	89 4d fc	 mov	 DWORD PTR _this$[ebp], ecx

; 34   : 	WndMoveData data;

  001ac	8d 4d dc	 lea	 ecx, DWORD PTR _data$[ebp]
  001af	e8 00 00 00 00	 call	 ??0WndMoveData@@QAE@XZ

; 35   : 	data.pWnd = pWnd;

  001b4	8b 45 08	 mov	 eax, DWORD PTR _pWnd$[ebp]
  001b7	89 45 dc	 mov	 DWORD PTR _data$[ebp], eax

; 36   : 	data.isMain = isMain;

  001ba	8a 4d 0c	 mov	 cl, BYTE PTR _isMain$[ebp]
  001bd	88 4d f4	 mov	 BYTE PTR _data$[ebp+24], cl

; 37   : 	m_mapWndMoveData[pWnd->m_hWnd] = data;

  001c0	8b 55 08	 mov	 edx, DWORD PTR _pWnd$[ebp]
  001c3	83 c2 20	 add	 edx, 32			; 00000020H
  001c6	52		 push	 edx
  001c7	8b 4d fc	 mov	 ecx, DWORD PTR _this$[ebp]
  001ca	83 c1 04	 add	 ecx, 4
  001cd	e8 00 00 00 00	 call	 ??A?$map@PAUHWND__@@UWndMoveData@@U?$less@PAUHWND__@@@std@@V?$allocator@U?$pair@QAUHWND__@@UWndMoveData@@@std@@@4@@std@@QAEAAUWndMoveData@@ABQAUHWND__@@@Z ; std::map<HWND__ *,WndMoveData,std::less<HWND__ *>,std::allocator<std::pair<HWND__ * const,WndMoveData> > >::operator[]
  001d2	b9 07 00 00 00	 mov	 ecx, 7
  001d7	8d 75 dc	 lea	 esi, DWORD PTR _data$[ebp]
  001da	8b f8		 mov	 edi, eax
  001dc	f3 a5		 rep movsd

; 38   : }

  001de	52		 push	 edx
  001df	8b cd		 mov	 ecx, ebp
  001e1	50		 push	 eax
  001e2	8d 15 00 00 00
	00		 lea	 edx, DWORD PTR $L189576
  001e8	e8 00 00 00 00	 call	 @_RTC_CheckStackVars@8
  001ed	58		 pop	 eax
  001ee	5a		 pop	 edx
  001ef	5f		 pop	 edi
  001f0	5e		 pop	 esi
  001f1	83 c4 28	 add	 esp, 40			; 00000028H
  001f4	3b ec		 cmp	 ebp, esp
  001f6	e8 00 00 00 00	 call	 __RTC_CheckEsp
  001fb	8b e5		 mov	 esp, ebp
  001fd	5d		 pop	 ebp
  001fe	c2 08 00	 ret	 8
$L189576:
  00201	01 00 00 00	 DD	 1
  00205	00 00 00 00	 DD	 $L189575
$L189575:
  00209	dc ff ff ff	 DD	 -36			; ffffffdcH
  0020d	1c 00 00 00	 DD	 28			; 0000001cH
  00211	00 00 00 00	 DD	 $L189574
$L189574:
  00215	64		 DB	 100			; 00000064H
  00216	61		 DB	 97			; 00000061H
  00217	74		 DB	 116			; 00000074H
  00218	61		 DB	 97			; 00000061H
  00219	00		 DB	 0
?AddWndindow@CWindowsMover@@QAEXPAVCWnd@@_N@Z ENDP	; CWindowsMover::AddWndindow
; Function compile flags: /Odt /RTCsu
_TEXT	ENDS
;	COMDAT ??0WndMoveData@@QAE@XZ
_TEXT	SEGMENT
_this$ = -4						; size = 4
??0WndMoveData@@QAE@XZ PROC NEAR			; WndMoveData::WndMoveData, COMDAT
; _this$ = ecx
  00000	55		 push	 ebp
  00001	8b ec		 mov	 ebp, esp
  00003	51		 push	 ecx
  00004	c7 45 fc cc cc
	cc cc		 mov	 DWORD PTR [ebp-4], -858993460 ; ccccccccH
  0000b	89 4d fc	 mov	 DWORD PTR _this$[ebp], ecx
  0000e	8b 4d fc	 mov	 ecx, DWORD PTR _this$[ebp]
  00011	83 c1 04	 add	 ecx, 4
  00014	e8 00 00 00 00	 call	 ??0CRect@@QAE@XZ	; CRect::CRect
  00019	8b 45 fc	 mov	 eax, DWORD PTR _this$[ebp]
  0001c	83 c4 04	 add	 esp, 4
  0001f	3b ec		 cmp	 ebp, esp
  00021	e8 00 00 00 00	 call	 __RTC_CheckEsp
  00026	8b e5		 mov	 esp, ebp
  00028	5d		 pop	 ebp
  00029	c3		 ret	 0
??0WndMoveData@@QAE@XZ ENDP				; WndMoveData::WndMoveData
_TEXT	ENDS
PUBLIC	?clear@?$_Tree@V?$_Tmap_traits@PAUHWND__@@UWndMoveData@@U?$less@PAUHWND__@@@std@@V?$allocator@U?$pair@QAUHWND__@@UWndMoveData@@@std@@@4@$0A@@std@@@std@@QAEXXZ ; std::_Tree<std::_Tmap_traits<HWND__ *,WndMoveData,std::less<HWND__ *>,std::allocator<std::pair<HWND__ * const,WndMoveData> >,0> >::clear
PUBLIC	?Clear@CWindowsMover@@QAEXXZ			; CWindowsMover::Clear
; Function compile flags: /Odt /RTCsu
_TEXT	SEGMENT
_this$ = -4						; size = 4
?Clear@CWindowsMover@@QAEXXZ PROC NEAR			; CWindowsMover::Clear
; _this$ = ecx

; 41   : {

  00220	55		 push	 ebp
  00221	8b ec		 mov	 ebp, esp
  00223	51		 push	 ecx
  00224	c7 45 fc cc cc
	cc cc		 mov	 DWORD PTR [ebp-4], -858993460 ; ccccccccH
  0022b	89 4d fc	 mov	 DWORD PTR _this$[ebp], ecx

; 42   : 	m_mapWndMoveData.clear();

  0022e	8b 4d fc	 mov	 ecx, DWORD PTR _this$[ebp]
  00231	83 c1 04	 add	 ecx, 4
  00234	e8 00 00 00 00	 call	 ?clear@?$_Tree@V?$_Tmap_traits@PAUHWND__@@UWndMoveData@@U?$less@PAUHWND__@@@std@@V?$allocator@U?$pair@QAUHWND__@@UWndMoveData@@@std@@@4@$0A@@std@@@std@@QAEXXZ ; std::_Tree<std::_Tmap_traits<HWND__ *,WndMoveData,std::less<HWND__ *>,std::allocator<std::pair<HWND__ * const,WndMoveData> >,0> >::clear

; 43   : }

  00239	83 c4 04	 add	 esp, 4
  0023c	3b ec		 cmp	 ebp, esp
  0023e	e8 00 00 00 00	 call	 __RTC_CheckEsp
  00243	8b e5		 mov	 esp, ebp
  00245	5d		 pop	 ebp
  00246	c3		 ret	 0
?Clear@CWindowsMover@@QAEXXZ ENDP			; CWindowsMover::Clear
_TEXT	ENDS
PUBLIC	?GetAllWindowsRect@CWindowsMover@@AAEXXZ	; CWindowsMover::GetAllWindowsRect
; Function compile flags: /Odt /RTCsu
_TEXT	SEGMENT
_this$ = -4						; size = 4
?GetAllWindowsRect@CWindowsMover@@AAEXXZ PROC NEAR	; CWindowsMover::GetAllWindowsRect
; _this$ = ecx

; 46   : {

  00250	55		 push	 ebp
  00251	8b ec		 mov	 ebp, esp
  00253	51		 push	 ecx
  00254	c7 45 fc cc cc
	cc cc		 mov	 DWORD PTR [ebp-4], -858993460 ; ccccccccH
  0025b	89 4d fc	 mov	 DWORD PTR _this$[ebp], ecx

; 47   : 
; 48   : }

  0025e	8b e5		 mov	 esp, ebp
  00260	5d		 pop	 ebp
  00261	c3		 ret	 0
?GetAllWindowsRect@CWindowsMover@@AAEXXZ ENDP		; CWindowsMover::GetAllWindowsRect
_TEXT	ENDS
PUBLIC	?begin@?$_Tree@V?$_Tmap_traits@PAUHWND__@@UWndMoveData@@U?$less@PAUHWND__@@@std@@V?$allocator@U?$pair@QAUHWND__@@UWndMoveData@@@std@@@4@$0A@@std@@@std@@QAE?AViterator@12@XZ ; std::_Tree<std::_Tmap_traits<HWND__ *,WndMoveData,std::less<HWND__ *>,std::allocator<std::pair<HWND__ * const,WndMoveData> >,0> >::begin
PUBLIC	?end@?$_Tree@V?$_Tmap_traits@PAUHWND__@@UWndMoveData@@U?$less@PAUHWND__@@@std@@V?$allocator@U?$pair@QAUHWND__@@UWndMoveData@@@std@@@4@$0A@@std@@@std@@QAE?AViterator@12@XZ ; std::_Tree<std::_Tmap_traits<HWND__ *,WndMoveData,std::less<HWND__ *>,std::allocator<std::pair<HWND__ * const,WndMoveData> >,0> >::end
PUBLIC	?CalMovingWndNewPos@CWindowsMover@@AAEXXZ	; CWindowsMover::CalMovingWndNewPos
PUBLIC	??0CTraceFileAndLineInfo@ATL@@QAE@PBDH@Z	; ATL::CTraceFileAndLineInfo::CTraceFileAndLineInfo
PUBLIC	??RCTraceFileAndLineInfo@ATL@@QBAXPBDZZ		; ATL::CTraceFileAndLineInfo::operator()
PUBLIC	??9const_iterator@?$_Tree@V?$_Tmap_traits@PAUHWND__@@UWndMoveData@@U?$less@PAUHWND__@@@std@@V?$allocator@U?$pair@QAUHWND__@@UWndMoveData@@@std@@@4@$0A@@std@@@std@@QBE_NABV012@@Z ; std::_Tree<std::_Tmap_traits<HWND__ *,WndMoveData,std::less<HWND__ *>,std::allocator<std::pair<HWND__ * const,WndMoveData> >,0> >::const_iterator::operator!=
PUBLIC	??Citerator@?$_Tree@V?$_Tmap_traits@PAUHWND__@@UWndMoveData@@U?$less@PAUHWND__@@@std@@V?$allocator@U?$pair@QAUHWND__@@UWndMoveData@@@std@@@4@$0A@@std@@@std@@QBEPAU?$pair@QAUHWND__@@UWndMoveData@@@2@XZ ; std::_Tree<std::_Tmap_traits<HWND__ *,WndMoveData,std::less<HWND__ *>,std::allocator<std::pair<HWND__ * const,WndMoveData> >,0> >::iterator::operator->
PUBLIC	??Eiterator@?$_Tree@V?$_Tmap_traits@PAUHWND__@@UWndMoveData@@U?$less@PAUHWND__@@@std@@V?$allocator@U?$pair@QAUHWND__@@UWndMoveData@@@std@@@4@$0A@@std@@@std@@QAE?AV012@H@Z ; std::_Tree<std::_Tmap_traits<HWND__ *,WndMoveData,std::less<HWND__ *>,std::allocator<std::pair<HWND__ * const,WndMoveData> >,0> >::iterator::operator++
EXTRN	?OffsetRect@CRect@@QAEXHH@Z:NEAR		; CRect::OffsetRect
; Function compile flags: /Odt /RTCsu
_TEXT	SEGMENT
$T189584 = -56						; size = 4
$T189583 = -52						; size = 8
$T189582 = -44						; size = 4
_rc$188167 = -36					; size = 16
_it$ = -12						; size = 4
_this$ = -4						; size = 4
?CalMovingWndNewPos@CWindowsMover@@AAEXXZ PROC NEAR	; CWindowsMover::CalMovingWndNewPos
; _this$ = ecx

; 51   : {

  00270	55		 push	 ebp
  00271	8b ec		 mov	 ebp, esp
  00273	83 ec 38	 sub	 esp, 56			; 00000038H
  00276	57		 push	 edi
  00277	51		 push	 ecx
  00278	8d 7d c8	 lea	 edi, DWORD PTR [ebp-56]
  0027b	b9 0e 00 00 00	 mov	 ecx, 14			; 0000000eH
  00280	b8 cc cc cc cc	 mov	 eax, -858993460		; ccccccccH
  00285	f3 ab		 rep stosd
  00287	59		 pop	 ecx
  00288	89 4d fc	 mov	 DWORD PTR _this$[ebp], ecx

; 52   : 	map<HWND, WndMoveData>::iterator it = m_mapWndMoveData.begin();

  0028b	8d 45 f4	 lea	 eax, DWORD PTR _it$[ebp]
  0028e	50		 push	 eax
  0028f	8b 4d fc	 mov	 ecx, DWORD PTR _this$[ebp]
  00292	83 c1 04	 add	 ecx, 4
  00295	e8 00 00 00 00	 call	 ?begin@?$_Tree@V?$_Tmap_traits@PAUHWND__@@UWndMoveData@@U?$less@PAUHWND__@@@std@@V?$allocator@U?$pair@QAUHWND__@@UWndMoveData@@@std@@@4@$0A@@std@@@std@@QAE?AViterator@12@XZ ; std::_Tree<std::_Tmap_traits<HWND__ *,WndMoveData,std::less<HWND__ *>,std::allocator<std::pair<HWND__ * const,WndMoveData> >,0> >::begin
$L188164:

; 53   : 
; 54   : 	while(it != m_mapWndMoveData.end())

  0029a	8d 4d d4	 lea	 ecx, DWORD PTR $T189582[ebp]
  0029d	51		 push	 ecx
  0029e	8b 4d fc	 mov	 ecx, DWORD PTR _this$[ebp]
  002a1	83 c1 04	 add	 ecx, 4
  002a4	e8 00 00 00 00	 call	 ?end@?$_Tree@V?$_Tmap_traits@PAUHWND__@@UWndMoveData@@U?$less@PAUHWND__@@@std@@V?$allocator@U?$pair@QAUHWND__@@UWndMoveData@@@std@@@4@$0A@@std@@@std@@QAE?AViterator@12@XZ ; std::_Tree<std::_Tmap_traits<HWND__ *,WndMoveData,std::less<HWND__ *>,std::allocator<std::pair<HWND__ * const,WndMoveData> >,0> >::end
  002a9	50		 push	 eax
  002aa	8d 4d f4	 lea	 ecx, DWORD PTR _it$[ebp]
  002ad	e8 00 00 00 00	 call	 ??9const_iterator@?$_Tree@V?$_Tmap_traits@PAUHWND__@@UWndMoveData@@U?$less@PAUHWND__@@@std@@V?$allocator@U?$pair@QAUHWND__@@UWndMoveData@@@std@@@4@$0A@@std@@@std@@QBE_NABV012@@Z ; std::_Tree<std::_Tmap_traits<HWND__ *,WndMoveData,std::less<HWND__ *>,std::allocator<std::pair<HWND__ * const,WndMoveData> >,0> >::const_iterator::operator!=
  002b2	0f b6 d0	 movzx	 edx, al
  002b5	85 d2		 test	 edx, edx
  002b7	74 74		 je	 SHORT $L188078

; 55   : 	{
; 56   : 		CRect rc;

  002b9	8d 4d dc	 lea	 ecx, DWORD PTR _rc$188167[ebp]
  002bc	e8 00 00 00 00	 call	 ??0CRect@@QAE@XZ	; CRect::CRect

; 57   : 		if(it->second.nState == STATE_MOVING)

  002c1	8d 4d f4	 lea	 ecx, DWORD PTR _it$[ebp]
  002c4	e8 00 00 00 00	 call	 ??Citerator@?$_Tree@V?$_Tmap_traits@PAUHWND__@@UWndMoveData@@U?$less@PAUHWND__@@@std@@V?$allocator@U?$pair@QAUHWND__@@UWndMoveData@@@std@@@4@$0A@@std@@@std@@QBEPAU?$pair@QAUHWND__@@UWndMoveData@@@2@XZ ; std::_Tree<std::_Tmap_traits<HWND__ *,WndMoveData,std::less<HWND__ *>,std::allocator<std::pair<HWND__ * const,WndMoveData> >,0> >::iterator::operator->
  002c9	83 78 18 00	 cmp	 DWORD PTR [eax+24], 0
  002cd	75 4b		 jne	 SHORT $L188186

; 58   : 		{
; 59   : 			TRACE("offset:%d , %d\n", m_offsetX, m_offsetY);

  002cf	8b 45 fc	 mov	 eax, DWORD PTR _this$[ebp]
  002d2	8b 48 28	 mov	 ecx, DWORD PTR [eax+40]
  002d5	51		 push	 ecx
  002d6	8b 55 fc	 mov	 edx, DWORD PTR _this$[ebp]
  002d9	8b 42 24	 mov	 eax, DWORD PTR [edx+36]
  002dc	50		 push	 eax
  002dd	68 00 00 00 00	 push	 OFFSET FLAT:$SG188189
  002e2	6a 3b		 push	 59			; 0000003bH
  002e4	68 00 00 00 00	 push	 OFFSET FLAT:$SG188188
  002e9	8d 4d cc	 lea	 ecx, DWORD PTR $T189583[ebp]
  002ec	e8 00 00 00 00	 call	 ??0CTraceFileAndLineInfo@ATL@@QAE@PBDH@Z ; ATL::CTraceFileAndLineInfo::CTraceFileAndLineInfo
  002f1	50		 push	 eax
  002f2	e8 00 00 00 00	 call	 ??RCTraceFileAndLineInfo@ATL@@QBAXPBDZZ ; ATL::CTraceFileAndLineInfo::operator()
  002f7	83 c4 10	 add	 esp, 16			; 00000010H

; 60   : 			it->second.rc.OffsetRect(m_offsetX, m_offsetY);

  002fa	8b 4d fc	 mov	 ecx, DWORD PTR _this$[ebp]
  002fd	8b 51 28	 mov	 edx, DWORD PTR [ecx+40]
  00300	52		 push	 edx
  00301	8b 45 fc	 mov	 eax, DWORD PTR _this$[ebp]
  00304	8b 48 24	 mov	 ecx, DWORD PTR [eax+36]
  00307	51		 push	 ecx
  00308	8d 4d f4	 lea	 ecx, DWORD PTR _it$[ebp]
  0030b	e8 00 00 00 00	 call	 ??Citerator@?$_Tree@V?$_Tmap_traits@PAUHWND__@@UWndMoveData@@U?$less@PAUHWND__@@@std@@V?$allocator@U?$pair@QAUHWND__@@UWndMoveData@@@std@@@4@$0A@@std@@@std@@QBEPAU?$pair@QAUHWND__@@UWndMoveData@@@2@XZ ; std::_Tree<std::_Tmap_traits<HWND__ *,WndMoveData,std::less<HWND__ *>,std::allocator<std::pair<HWND__ * const,WndMoveData> >,0> >::iterator::operator->
  00310	83 c0 08	 add	 eax, 8
  00313	8b c8		 mov	 ecx, eax
  00315	e8 00 00 00 00	 call	 ?OffsetRect@CRect@@QAEXHH@Z ; CRect::OffsetRect
$L188186:

; 61   : 		}
; 62   : 		it++;

  0031a	6a 00		 push	 0
  0031c	8d 55 c8	 lea	 edx, DWORD PTR $T189584[ebp]
  0031f	52		 push	 edx
  00320	8d 4d f4	 lea	 ecx, DWORD PTR _it$[ebp]
  00323	e8 00 00 00 00	 call	 ??Eiterator@?$_Tree@V?$_Tmap_traits@PAUHWND__@@UWndMoveData@@U?$less@PAUHWND__@@@std@@V?$allocator@U?$pair@QAUHWND__@@UWndMoveData@@@std@@@4@$0A@@std@@@std@@QAE?AV012@H@Z ; std::_Tree<std::_Tmap_traits<HWND__ *,WndMoveData,std::less<HWND__ *>,std::allocator<std::pair<HWND__ * const,WndMoveData> >,0> >::iterator::operator++

; 63   : 	}

  00328	e9 6d ff ff ff	 jmp	 $L188164
$L188078:

; 64   : }

  0032d	52		 push	 edx
  0032e	8b cd		 mov	 ecx, ebp
  00330	50		 push	 eax
  00331	8d 15 00 00 00
	00		 lea	 edx, DWORD PTR $L189588
  00337	e8 00 00 00 00	 call	 @_RTC_CheckStackVars@8
  0033c	58		 pop	 eax
  0033d	5a		 pop	 edx
  0033e	5f		 pop	 edi
  0033f	83 c4 38	 add	 esp, 56			; 00000038H
  00342	3b ec		 cmp	 ebp, esp
  00344	e8 00 00 00 00	 call	 __RTC_CheckEsp
  00349	8b e5		 mov	 esp, ebp
  0034b	5d		 pop	 ebp
  0034c	c3		 ret	 0
$L189588:
  0034d	02 00 00 00	 DD	 2
  00351	00 00 00 00	 DD	 $L189587
$L189587:
  00355	f4 ff ff ff	 DD	 -12			; fffffff4H
  00359	04 00 00 00	 DD	 4
  0035d	00 00 00 00	 DD	 $L189585
  00361	dc ff ff ff	 DD	 -36			; ffffffdcH
  00365	10 00 00 00	 DD	 16			; 00000010H
  00369	00 00 00 00	 DD	 $L189586
$L189586:
  0036d	72		 DB	 114			; 00000072H
  0036e	63		 DB	 99			; 00000063H
  0036f	00		 DB	 0
$L189585:
  00370	69		 DB	 105			; 00000069H
  00371	74		 DB	 116			; 00000074H
  00372	00		 DB	 0
?CalMovingWndNewPos@CWindowsMover@@AAEXXZ ENDP		; CWindowsMover::CalMovingWndNewPos
_TEXT	ENDS
PUBLIC	?IsTwoWndStucked@CWindowsMover@@AAEHVCRect@@00@Z ; CWindowsMover::IsTwoWndStucked
PUBLIC	?DoMouseDown@CWindowsMover@@QAEXPAUHWND__@@VCPoint@@@Z ; CWindowsMover::DoMouseDown
PUBLIC	?DrawMoveFrame@CWindowsMover@@QAEXVCRect@@@Z	; CWindowsMover::DrawMoveFrame
PUBLIC	??0iterator@?$_Tree@V?$_Tmap_traits@PAUHWND__@@UWndMoveData@@U?$less@PAUHWND__@@@std@@V?$allocator@U?$pair@QAUHWND__@@UWndMoveData@@@std@@@4@$0A@@std@@@std@@QAE@XZ ; std::_Tree<std::_Tmap_traits<HWND__ *,WndMoveData,std::less<HWND__ *>,std::allocator<std::pair<HWND__ * const,WndMoveData> >,0> >::iterator::iterator
EXTRN	__imp__GetWindowRect@8:NEAR
EXTRN	__imp__SetCapture@4:NEAR
; Function compile flags: /Odt /RTCsu
_TEXT	SEGMENT
$T189599 = -160						; size = 4
$T189598 = -156						; size = 4
$T189597 = -152						; size = 4
$T189596 = -148						; size = 4
$T189595 = -144						; size = 4
$T189594 = -140						; size = 4
$T189593 = -136						; size = 4
$T189592 = -132						; size = 4
$T189591 = -128						; size = 4
$T189590 = -124						; size = 4
_bFind$ = -117						; size = 1
_data$188217 = -112					; size = 28
_rc$188216 = -76					; size = 16
_it1$ = -52						; size = 4
_it$ = -40						; size = 4
_rcMain$ = -28						; size = 16
_isMain$ = -5						; size = 1
_this$ = -4						; size = 4
_hwnd$ = 8						; size = 4
_p$ = 12						; size = 8
?DoMouseDown@CWindowsMover@@QAEXPAUHWND__@@VCPoint@@@Z PROC NEAR ; CWindowsMover::DoMouseDown
; _this$ = ecx

; 67   : {

  00380	55		 push	 ebp
  00381	8b ec		 mov	 ebp, esp
  00383	81 ec a0 00 00
	00		 sub	 esp, 160		; 000000a0H
  00389	56		 push	 esi
  0038a	57		 push	 edi
  0038b	51		 push	 ecx
  0038c	8d bd 60 ff ff
	ff		 lea	 edi, DWORD PTR [ebp-160]
  00392	b9 28 00 00 00	 mov	 ecx, 40			; 00000028H
  00397	b8 cc cc cc cc	 mov	 eax, -858993460		; ccccccccH
  0039c	f3 ab		 rep stosd
  0039e	59		 pop	 ecx
  0039f	89 4d fc	 mov	 DWORD PTR _this$[ebp], ecx

; 68   : //	ClientToScreen(hwnd, &p);
; 69   : 	m_ptMouseDownPos = p;

  003a2	8b 45 fc	 mov	 eax, DWORD PTR _this$[ebp]
  003a5	8b 4d 0c	 mov	 ecx, DWORD PTR _p$[ebp]
  003a8	89 48 14	 mov	 DWORD PTR [eax+20], ecx
  003ab	8b 55 10	 mov	 edx, DWORD PTR _p$[ebp+4]
  003ae	89 50 18	 mov	 DWORD PTR [eax+24], edx

; 70   : 	m_bMouseDown = true;

  003b1	8b 45 fc	 mov	 eax, DWORD PTR _this$[ebp]
  003b4	c7 00 01 00 00
	00		 mov	 DWORD PTR [eax], 1

; 71   : 	SetCapture(hwnd);

  003ba	8b f4		 mov	 esi, esp
  003bc	8b 4d 08	 mov	 ecx, DWORD PTR _hwnd$[ebp]
  003bf	51		 push	 ecx
  003c0	ff 15 00 00 00
	00		 call	 DWORD PTR __imp__SetCapture@4
  003c6	3b f4		 cmp	 esi, esp
  003c8	e8 00 00 00 00	 call	 __RTC_CheckEsp

; 72   : 	bool isMain = m_mapWndMoveData[hwnd].isMain;

  003cd	8d 55 08	 lea	 edx, DWORD PTR _hwnd$[ebp]
  003d0	52		 push	 edx
  003d1	8b 4d fc	 mov	 ecx, DWORD PTR _this$[ebp]
  003d4	83 c1 04	 add	 ecx, 4
  003d7	e8 00 00 00 00	 call	 ??A?$map@PAUHWND__@@UWndMoveData@@U?$less@PAUHWND__@@@std@@V?$allocator@U?$pair@QAUHWND__@@UWndMoveData@@@std@@@4@@std@@QAEAAUWndMoveData@@ABQAUHWND__@@@Z ; std::map<HWND__ *,WndMoveData,std::less<HWND__ *>,std::allocator<std::pair<HWND__ * const,WndMoveData> > >::operator[]
  003dc	8a 40 18	 mov	 al, BYTE PTR [eax+24]
  003df	88 45 fb	 mov	 BYTE PTR _isMain$[ebp], al

; 73   : 	CRect rcMain ;//= m_mapWndMoveData[hwnd].rc;

  003e2	8d 4d e4	 lea	 ecx, DWORD PTR _rcMain$[ebp]
  003e5	e8 00 00 00 00	 call	 ??0CRect@@QAE@XZ	; CRect::CRect

; 74   : 	GetWindowRect(hwnd, &rcMain);

  003ea	8b f4		 mov	 esi, esp
  003ec	8d 4d e4	 lea	 ecx, DWORD PTR _rcMain$[ebp]
  003ef	51		 push	 ecx
  003f0	8b 55 08	 mov	 edx, DWORD PTR _hwnd$[ebp]
  003f3	52		 push	 edx
  003f4	ff 15 00 00 00
	00		 call	 DWORD PTR __imp__GetWindowRect@8
  003fa	3b f4		 cmp	 esi, esp
  003fc	e8 00 00 00 00	 call	 __RTC_CheckEsp

; 75   : 
; 76   : 	if(m_bDontMoveContent)

  00401	8b 45 fc	 mov	 eax, DWORD PTR _this$[ebp]
  00404	83 78 3c 00	 cmp	 DWORD PTR [eax+60], 0
  00408	74 4b		 je	 SHORT $L188198

; 77   : 	{
; 78   : 		m_rcKeep = rcMain;

  0040a	8b 4d fc	 mov	 ecx, DWORD PTR _this$[ebp]
  0040d	83 c1 2c	 add	 ecx, 44			; 0000002cH
  00410	8b 55 e4	 mov	 edx, DWORD PTR _rcMain$[ebp]
  00413	89 11		 mov	 DWORD PTR [ecx], edx
  00415	8b 45 e8	 mov	 eax, DWORD PTR _rcMain$[ebp+4]
  00418	89 41 04	 mov	 DWORD PTR [ecx+4], eax
  0041b	8b 55 ec	 mov	 edx, DWORD PTR _rcMain$[ebp+8]
  0041e	89 51 08	 mov	 DWORD PTR [ecx+8], edx
  00421	8b 45 f0	 mov	 eax, DWORD PTR _rcMain$[ebp+12]
  00424	89 41 0c	 mov	 DWORD PTR [ecx+12], eax

; 79   : 		DrawMoveFrame(m_rcKeep);

  00427	8b 4d fc	 mov	 ecx, DWORD PTR _this$[ebp]
  0042a	83 c1 2c	 add	 ecx, 44			; 0000002cH
  0042d	83 ec 10	 sub	 esp, 16			; 00000010H
  00430	8b d4		 mov	 edx, esp
  00432	8b 01		 mov	 eax, DWORD PTR [ecx]
  00434	89 02		 mov	 DWORD PTR [edx], eax
  00436	8b 41 04	 mov	 eax, DWORD PTR [ecx+4]
  00439	89 42 04	 mov	 DWORD PTR [edx+4], eax
  0043c	8b 41 08	 mov	 eax, DWORD PTR [ecx+8]
  0043f	89 42 08	 mov	 DWORD PTR [edx+8], eax
  00442	8b 49 0c	 mov	 ecx, DWORD PTR [ecx+12]
  00445	89 4a 0c	 mov	 DWORD PTR [edx+12], ecx
  00448	8b 4d fc	 mov	 ecx, DWORD PTR _this$[ebp]
  0044b	e8 00 00 00 00	 call	 ?DrawMoveFrame@CWindowsMover@@QAEXVCRect@@@Z ; CWindowsMover::DrawMoveFrame

; 80   : 		return;

  00450	e9 70 02 00 00	 jmp	 $L188195
$L188198:

; 81   : 	}
; 82   : 
; 83   : 	map<HWND, WndMoveData>::iterator it;

  00455	8d 4d d8	 lea	 ecx, DWORD PTR _it$[ebp]
  00458	e8 00 00 00 00	 call	 ??0iterator@?$_Tree@V?$_Tmap_traits@PAUHWND__@@UWndMoveData@@U?$less@PAUHWND__@@@std@@V?$allocator@U?$pair@QAUHWND__@@UWndMoveData@@@std@@@4@$0A@@std@@@std@@QAE@XZ ; std::_Tree<std::_Tmap_traits<HWND__ *,WndMoveData,std::less<HWND__ *>,std::allocator<std::pair<HWND__ * const,WndMoveData> >,0> >::iterator::iterator

; 84   : 	map<HWND, WndMoveData>::iterator it1;

  0045d	8d 4d cc	 lea	 ecx, DWORD PTR _it1$[ebp]
  00460	e8 00 00 00 00	 call	 ??0iterator@?$_Tree@V?$_Tmap_traits@PAUHWND__@@UWndMoveData@@U?$less@PAUHWND__@@@std@@V?$allocator@U?$pair@QAUHWND__@@UWndMoveData@@@std@@@4@$0A@@std@@@std@@QAE@XZ ; std::_Tree<std::_Tmap_traits<HWND__ *,WndMoveData,std::less<HWND__ *>,std::allocator<std::pair<HWND__ * const,WndMoveData> >,0> >::iterator::iterator

; 85   : 
; 86   : 	it = m_mapWndMoveData.begin();

  00465	8d 55 84	 lea	 edx, DWORD PTR $T189590[ebp]
  00468	52		 push	 edx
  00469	8b 4d fc	 mov	 ecx, DWORD PTR _this$[ebp]
  0046c	83 c1 04	 add	 ecx, 4
  0046f	e8 00 00 00 00	 call	 ?begin@?$_Tree@V?$_Tmap_traits@PAUHWND__@@UWndMoveData@@U?$less@PAUHWND__@@@std@@V?$allocator@U?$pair@QAUHWND__@@UWndMoveData@@@std@@@4@$0A@@std@@@std@@QAE?AViterator@12@XZ ; std::_Tree<std::_Tmap_traits<HWND__ *,WndMoveData,std::less<HWND__ *>,std::allocator<std::pair<HWND__ * const,WndMoveData> >,0> >::begin
  00474	8b 00		 mov	 eax, DWORD PTR [eax]
  00476	89 45 d8	 mov	 DWORD PTR _it$[ebp], eax
$L188213:

; 87   : 	while(it != m_mapWndMoveData.end())

  00479	8d 4d 80	 lea	 ecx, DWORD PTR $T189591[ebp]
  0047c	51		 push	 ecx
  0047d	8b 4d fc	 mov	 ecx, DWORD PTR _this$[ebp]
  00480	83 c1 04	 add	 ecx, 4
  00483	e8 00 00 00 00	 call	 ?end@?$_Tree@V?$_Tmap_traits@PAUHWND__@@UWndMoveData@@U?$less@PAUHWND__@@@std@@V?$allocator@U?$pair@QAUHWND__@@UWndMoveData@@@std@@@4@$0A@@std@@@std@@QAE?AViterator@12@XZ ; std::_Tree<std::_Tmap_traits<HWND__ *,WndMoveData,std::less<HWND__ *>,std::allocator<std::pair<HWND__ * const,WndMoveData> >,0> >::end
  00488	50		 push	 eax
  00489	8d 4d d8	 lea	 ecx, DWORD PTR _it$[ebp]
  0048c	e8 00 00 00 00	 call	 ??9const_iterator@?$_Tree@V?$_Tmap_traits@PAUHWND__@@UWndMoveData@@U?$less@PAUHWND__@@@std@@V?$allocator@U?$pair@QAUHWND__@@UWndMoveData@@@std@@@4@$0A@@std@@@std@@QBE_NABV012@@Z ; std::_Tree<std::_Tmap_traits<HWND__ *,WndMoveData,std::less<HWND__ *>,std::allocator<std::pair<HWND__ * const,WndMoveData> >,0> >::const_iterator::operator!=
  00491	0f b6 d0	 movzx	 edx, al
  00494	85 d2		 test	 edx, edx
  00496	0f 84 a0 00 00
	00		 je	 $L188214

; 88   : 	{
; 89   : 		CRect rc;

  0049c	8d 4d b4	 lea	 ecx, DWORD PTR _rc$188216[ebp]
  0049f	e8 00 00 00 00	 call	 ??0CRect@@QAE@XZ	; CRect::CRect

; 90   : 		WndMoveData data = it->second;

  004a4	8d 4d d8	 lea	 ecx, DWORD PTR _it$[ebp]
  004a7	e8 00 00 00 00	 call	 ??Citerator@?$_Tree@V?$_Tmap_traits@PAUHWND__@@UWndMoveData@@U?$less@PAUHWND__@@@std@@V?$allocator@U?$pair@QAUHWND__@@UWndMoveData@@@std@@@4@$0A@@std@@@std@@QBEPAU?$pair@QAUHWND__@@UWndMoveData@@@2@XZ ; std::_Tree<std::_Tmap_traits<HWND__ *,WndMoveData,std::less<HWND__ *>,std::allocator<std::pair<HWND__ * const,WndMoveData> >,0> >::iterator::operator->
  004ac	83 c0 04	 add	 eax, 4
  004af	b9 07 00 00 00	 mov	 ecx, 7
  004b4	8b f0		 mov	 esi, eax
  004b6	8d 7d 90	 lea	 edi, DWORD PTR _data$188217[ebp]
  004b9	f3 a5		 rep movsd

; 91   : 		::GetWindowRect(data.pWnd->m_hWnd, &data.rc);

  004bb	8b f4		 mov	 esi, esp
  004bd	8d 45 94	 lea	 eax, DWORD PTR _data$188217[ebp+4]
  004c0	50		 push	 eax
  004c1	8b 4d 90	 mov	 ecx, DWORD PTR _data$188217[ebp]
  004c4	8b 51 20	 mov	 edx, DWORD PTR [ecx+32]
  004c7	52		 push	 edx
  004c8	ff 15 00 00 00
	00		 call	 DWORD PTR __imp__GetWindowRect@8
  004ce	3b f4		 cmp	 esi, esp
  004d0	e8 00 00 00 00	 call	 __RTC_CheckEsp

; 92   : 		it->second = data;

  004d5	8d 4d d8	 lea	 ecx, DWORD PTR _it$[ebp]
  004d8	e8 00 00 00 00	 call	 ??Citerator@?$_Tree@V?$_Tmap_traits@PAUHWND__@@UWndMoveData@@U?$less@PAUHWND__@@@std@@V?$allocator@U?$pair@QAUHWND__@@UWndMoveData@@@std@@@4@$0A@@std@@@std@@QBEPAU?$pair@QAUHWND__@@UWndMoveData@@@2@XZ ; std::_Tree<std::_Tmap_traits<HWND__ *,WndMoveData,std::less<HWND__ *>,std::allocator<std::pair<HWND__ * const,WndMoveData> >,0> >::iterator::operator->
  004dd	83 c0 04	 add	 eax, 4
  004e0	b9 07 00 00 00	 mov	 ecx, 7
  004e5	8d 75 90	 lea	 esi, DWORD PTR _data$188217[ebp]
  004e8	8b f8		 mov	 edi, eax
  004ea	f3 a5		 rep movsd

; 93   : 		if(it->second.pWnd->m_hWnd == hwnd)

  004ec	8d 4d d8	 lea	 ecx, DWORD PTR _it$[ebp]
  004ef	e8 00 00 00 00	 call	 ??Citerator@?$_Tree@V?$_Tmap_traits@PAUHWND__@@UWndMoveData@@U?$less@PAUHWND__@@@std@@V?$allocator@U?$pair@QAUHWND__@@UWndMoveData@@@std@@@4@$0A@@std@@@std@@QBEPAU?$pair@QAUHWND__@@UWndMoveData@@@2@XZ ; std::_Tree<std::_Tmap_traits<HWND__ *,WndMoveData,std::less<HWND__ *>,std::allocator<std::pair<HWND__ * const,WndMoveData> >,0> >::iterator::operator->
  004f4	8b 40 04	 mov	 eax, DWORD PTR [eax+4]
  004f7	8b 48 20	 mov	 ecx, DWORD PTR [eax+32]
  004fa	3b 4d 08	 cmp	 ecx, DWORD PTR _hwnd$[ebp]
  004fd	75 18		 jne	 SHORT $L188218

; 94   : 			m_mapWndMoveData[hwnd].nState = STATE_MOVING;

  004ff	8d 55 08	 lea	 edx, DWORD PTR _hwnd$[ebp]
  00502	52		 push	 edx
  00503	8b 4d fc	 mov	 ecx, DWORD PTR _this$[ebp]
  00506	83 c1 04	 add	 ecx, 4
  00509	e8 00 00 00 00	 call	 ??A?$map@PAUHWND__@@UWndMoveData@@U?$less@PAUHWND__@@@std@@V?$allocator@U?$pair@QAUHWND__@@UWndMoveData@@@std@@@4@@std@@QAEAAUWndMoveData@@ABQAUHWND__@@@Z ; std::map<HWND__ *,WndMoveData,std::less<HWND__ *>,std::allocator<std::pair<HWND__ * const,WndMoveData> > >::operator[]
  0050e	c7 40 14 00 00
	00 00		 mov	 DWORD PTR [eax+20], 0

; 95   : 		else

  00515	eb 0f		 jmp	 SHORT $L188219
$L188218:

; 96   : 			it->second.nState = STATE_STAND;

  00517	8d 4d d8	 lea	 ecx, DWORD PTR _it$[ebp]
  0051a	e8 00 00 00 00	 call	 ??Citerator@?$_Tree@V?$_Tmap_traits@PAUHWND__@@UWndMoveData@@U?$less@PAUHWND__@@@std@@V?$allocator@U?$pair@QAUHWND__@@UWndMoveData@@@std@@@4@$0A@@std@@@std@@QBEPAU?$pair@QAUHWND__@@UWndMoveData@@@2@XZ ; std::_Tree<std::_Tmap_traits<HWND__ *,WndMoveData,std::less<HWND__ *>,std::allocator<std::pair<HWND__ * const,WndMoveData> >,0> >::iterator::operator->
  0051f	c7 40 18 01 00
	00 00		 mov	 DWORD PTR [eax+24], 1
$L188219:

; 97   : 		it++;

  00526	6a 00		 push	 0
  00528	8d 85 7c ff ff
	ff		 lea	 eax, DWORD PTR $T189592[ebp]
  0052e	50		 push	 eax
  0052f	8d 4d d8	 lea	 ecx, DWORD PTR _it$[ebp]
  00532	e8 00 00 00 00	 call	 ??Eiterator@?$_Tree@V?$_Tmap_traits@PAUHWND__@@UWndMoveData@@U?$less@PAUHWND__@@@std@@V?$allocator@U?$pair@QAUHWND__@@UWndMoveData@@@std@@@4@$0A@@std@@@std@@QAE?AV012@H@Z ; std::_Tree<std::_Tmap_traits<HWND__ *,WndMoveData,std::less<HWND__ *>,std::allocator<std::pair<HWND__ * const,WndMoveData> >,0> >::iterator::operator++

; 98   : 	}

  00537	e9 3d ff ff ff	 jmp	 $L188213
$L188214:

; 99   : 
; 100  : 	bool bFind = false;

  0053c	c6 45 8b 00	 mov	 BYTE PTR _bFind$[ebp], 0

; 101  : 	if(isMain)

  00540	0f b6 4d fb	 movzx	 ecx, BYTE PTR _isMain$[ebp]
  00544	85 c9		 test	 ecx, ecx
  00546	0f 84 79 01 00
	00		 je	 $L188195

; 102  : 	{
; 103  : 		it = m_mapWndMoveData.begin();

  0054c	8d 95 78 ff ff
	ff		 lea	 edx, DWORD PTR $T189593[ebp]
  00552	52		 push	 edx
  00553	8b 4d fc	 mov	 ecx, DWORD PTR _this$[ebp]
  00556	83 c1 04	 add	 ecx, 4
  00559	e8 00 00 00 00	 call	 ?begin@?$_Tree@V?$_Tmap_traits@PAUHWND__@@UWndMoveData@@U?$less@PAUHWND__@@@std@@V?$allocator@U?$pair@QAUHWND__@@UWndMoveData@@@std@@@4@$0A@@std@@@std@@QAE?AViterator@12@XZ ; std::_Tree<std::_Tmap_traits<HWND__ *,WndMoveData,std::less<HWND__ *>,std::allocator<std::pair<HWND__ * const,WndMoveData> >,0> >::begin
  0055e	8b 00		 mov	 eax, DWORD PTR [eax]
  00560	89 45 d8	 mov	 DWORD PTR _it$[ebp], eax
$L188225:

; 104  : 		while(it != m_mapWndMoveData.end())

  00563	8d 8d 74 ff ff
	ff		 lea	 ecx, DWORD PTR $T189594[ebp]
  00569	51		 push	 ecx
  0056a	8b 4d fc	 mov	 ecx, DWORD PTR _this$[ebp]
  0056d	83 c1 04	 add	 ecx, 4
  00570	e8 00 00 00 00	 call	 ?end@?$_Tree@V?$_Tmap_traits@PAUHWND__@@UWndMoveData@@U?$less@PAUHWND__@@@std@@V?$allocator@U?$pair@QAUHWND__@@UWndMoveData@@@std@@@4@$0A@@std@@@std@@QAE?AViterator@12@XZ ; std::_Tree<std::_Tmap_traits<HWND__ *,WndMoveData,std::less<HWND__ *>,std::allocator<std::pair<HWND__ * const,WndMoveData> >,0> >::end
  00575	50		 push	 eax
  00576	8d 4d d8	 lea	 ecx, DWORD PTR _it$[ebp]
  00579	e8 00 00 00 00	 call	 ??9const_iterator@?$_Tree@V?$_Tmap_traits@PAUHWND__@@UWndMoveData@@U?$less@PAUHWND__@@@std@@V?$allocator@U?$pair@QAUHWND__@@UWndMoveData@@@std@@@4@$0A@@std@@@std@@QBE_NABV012@@Z ; std::_Tree<std::_Tmap_traits<HWND__ *,WndMoveData,std::less<HWND__ *>,std::allocator<std::pair<HWND__ * const,WndMoveData> >,0> >::const_iterator::operator!=
  0057e	0f b6 d0	 movzx	 edx, al
  00581	85 d2		 test	 edx, edx
  00583	0f 84 3c 01 00
	00		 je	 $L188195

; 105  : 		{
; 106  : 			if(it->second.nState != STATE_MOVING)

  00589	8d 4d d8	 lea	 ecx, DWORD PTR _it$[ebp]
  0058c	e8 00 00 00 00	 call	 ??Citerator@?$_Tree@V?$_Tmap_traits@PAUHWND__@@UWndMoveData@@U?$less@PAUHWND__@@@std@@V?$allocator@U?$pair@QAUHWND__@@UWndMoveData@@@std@@@4@$0A@@std@@@std@@QBEPAU?$pair@QAUHWND__@@UWndMoveData@@@2@XZ ; std::_Tree<std::_Tmap_traits<HWND__ *,WndMoveData,std::less<HWND__ *>,std::allocator<std::pair<HWND__ * const,WndMoveData> >,0> >::iterator::operator->
  00591	83 78 18 00	 cmp	 DWORD PTR [eax+24], 0
  00595	0f 84 ee 00 00
	00		 je	 $L188228

; 107  : 			{
; 108  : 				it1 = m_mapWndMoveData.begin();

  0059b	8d 85 70 ff ff
	ff		 lea	 eax, DWORD PTR $T189595[ebp]
  005a1	50		 push	 eax
  005a2	8b 4d fc	 mov	 ecx, DWORD PTR _this$[ebp]
  005a5	83 c1 04	 add	 ecx, 4
  005a8	e8 00 00 00 00	 call	 ?begin@?$_Tree@V?$_Tmap_traits@PAUHWND__@@UWndMoveData@@U?$less@PAUHWND__@@@std@@V?$allocator@U?$pair@QAUHWND__@@UWndMoveData@@@std@@@4@$0A@@std@@@std@@QAE?AViterator@12@XZ ; std::_Tree<std::_Tmap_traits<HWND__ *,WndMoveData,std::less<HWND__ *>,std::allocator<std::pair<HWND__ * const,WndMoveData> >,0> >::begin
  005ad	8b 08		 mov	 ecx, DWORD PTR [eax]
  005af	89 4d cc	 mov	 DWORD PTR _it1$[ebp], ecx
$L188231:

; 109  : 				while(it1 != m_mapWndMoveData.end())

  005b2	8d 95 6c ff ff
	ff		 lea	 edx, DWORD PTR $T189596[ebp]
  005b8	52		 push	 edx
  005b9	8b 4d fc	 mov	 ecx, DWORD PTR _this$[ebp]
  005bc	83 c1 04	 add	 ecx, 4
  005bf	e8 00 00 00 00	 call	 ?end@?$_Tree@V?$_Tmap_traits@PAUHWND__@@UWndMoveData@@U?$less@PAUHWND__@@@std@@V?$allocator@U?$pair@QAUHWND__@@UWndMoveData@@@std@@@4@$0A@@std@@@std@@QAE?AViterator@12@XZ ; std::_Tree<std::_Tmap_traits<HWND__ *,WndMoveData,std::less<HWND__ *>,std::allocator<std::pair<HWND__ * const,WndMoveData> >,0> >::end
  005c4	50		 push	 eax
  005c5	8d 4d cc	 lea	 ecx, DWORD PTR _it1$[ebp]
  005c8	e8 00 00 00 00	 call	 ??9const_iterator@?$_Tree@V?$_Tmap_traits@PAUHWND__@@UWndMoveData@@U?$less@PAUHWND__@@@std@@V?$allocator@U?$pair@QAUHWND__@@UWndMoveData@@@std@@@4@$0A@@std@@@std@@QBE_NABV012@@Z ; std::_Tree<std::_Tmap_traits<HWND__ *,WndMoveData,std::less<HWND__ *>,std::allocator<std::pair<HWND__ * const,WndMoveData> >,0> >::const_iterator::operator!=
  005cd	0f b6 c0	 movzx	 eax, al
  005d0	85 c0		 test	 eax, eax
  005d2	0f 84 b1 00 00
	00		 je	 $L188228

; 110  : 				{
; 111  : 					if(it1->second.nState == STATE_MOVING
; 112  : 						&& IsTwoWndStucked(it->second.rc, it1->second.rc, rcMain))

  005d8	8d 4d cc	 lea	 ecx, DWORD PTR _it1$[ebp]
  005db	e8 00 00 00 00	 call	 ??Citerator@?$_Tree@V?$_Tmap_traits@PAUHWND__@@UWndMoveData@@U?$less@PAUHWND__@@@std@@V?$allocator@U?$pair@QAUHWND__@@UWndMoveData@@@std@@@4@$0A@@std@@@std@@QBEPAU?$pair@QAUHWND__@@UWndMoveData@@@2@XZ ; std::_Tree<std::_Tmap_traits<HWND__ *,WndMoveData,std::less<HWND__ *>,std::allocator<std::pair<HWND__ * const,WndMoveData> >,0> >::iterator::operator->
  005e0	83 78 18 00	 cmp	 DWORD PTR [eax+24], 0
  005e4	0f 85 89 00 00
	00		 jne	 $L188234
  005ea	83 ec 10	 sub	 esp, 16			; 00000010H
  005ed	8b cc		 mov	 ecx, esp
  005ef	8b 55 e4	 mov	 edx, DWORD PTR _rcMain$[ebp]
  005f2	89 11		 mov	 DWORD PTR [ecx], edx
  005f4	8b 45 e8	 mov	 eax, DWORD PTR _rcMain$[ebp+4]
  005f7	89 41 04	 mov	 DWORD PTR [ecx+4], eax
  005fa	8b 55 ec	 mov	 edx, DWORD PTR _rcMain$[ebp+8]
  005fd	89 51 08	 mov	 DWORD PTR [ecx+8], edx
  00600	8b 45 f0	 mov	 eax, DWORD PTR _rcMain$[ebp+12]
  00603	89 41 0c	 mov	 DWORD PTR [ecx+12], eax
  00606	8d 4d cc	 lea	 ecx, DWORD PTR _it1$[ebp]
  00609	e8 00 00 00 00	 call	 ??Citerator@?$_Tree@V?$_Tmap_traits@PAUHWND__@@UWndMoveData@@U?$less@PAUHWND__@@@std@@V?$allocator@U?$pair@QAUHWND__@@UWndMoveData@@@std@@@4@$0A@@std@@@std@@QBEPAU?$pair@QAUHWND__@@UWndMoveData@@@2@XZ ; std::_Tree<std::_Tmap_traits<HWND__ *,WndMoveData,std::less<HWND__ *>,std::allocator<std::pair<HWND__ * const,WndMoveData> >,0> >::iterator::operator->
  0060e	83 c0 08	 add	 eax, 8
  00611	83 ec 10	 sub	 esp, 16			; 00000010H
  00614	8b cc		 mov	 ecx, esp
  00616	8b 10		 mov	 edx, DWORD PTR [eax]
  00618	89 11		 mov	 DWORD PTR [ecx], edx
  0061a	8b 50 04	 mov	 edx, DWORD PTR [eax+4]
  0061d	89 51 04	 mov	 DWORD PTR [ecx+4], edx
  00620	8b 50 08	 mov	 edx, DWORD PTR [eax+8]
  00623	89 51 08	 mov	 DWORD PTR [ecx+8], edx
  00626	8b 40 0c	 mov	 eax, DWORD PTR [eax+12]
  00629	89 41 0c	 mov	 DWORD PTR [ecx+12], eax
  0062c	8d 4d d8	 lea	 ecx, DWORD PTR _it$[ebp]
  0062f	e8 00 00 00 00	 call	 ??Citerator@?$_Tree@V?$_Tmap_traits@PAUHWND__@@UWndMoveData@@U?$less@PAUHWND__@@@std@@V?$allocator@U?$pair@QAUHWND__@@UWndMoveData@@@std@@@4@$0A@@std@@@std@@QBEPAU?$pair@QAUHWND__@@UWndMoveData@@@2@XZ ; std::_Tree<std::_Tmap_traits<HWND__ *,WndMoveData,std::less<HWND__ *>,std::allocator<std::pair<HWND__ * const,WndMoveData> >,0> >::iterator::operator->
  00634	83 c0 08	 add	 eax, 8
  00637	83 ec 10	 sub	 esp, 16			; 00000010H
  0063a	8b cc		 mov	 ecx, esp
  0063c	8b 10		 mov	 edx, DWORD PTR [eax]
  0063e	89 11		 mov	 DWORD PTR [ecx], edx
  00640	8b 50 04	 mov	 edx, DWORD PTR [eax+4]
  00643	89 51 04	 mov	 DWORD PTR [ecx+4], edx
  00646	8b 50 08	 mov	 edx, DWORD PTR [eax+8]
  00649	89 51 08	 mov	 DWORD PTR [ecx+8], edx
  0064c	8b 40 0c	 mov	 eax, DWORD PTR [eax+12]
  0064f	89 41 0c	 mov	 DWORD PTR [ecx+12], eax
  00652	8b 4d fc	 mov	 ecx, DWORD PTR _this$[ebp]
  00655	e8 00 00 00 00	 call	 ?IsTwoWndStucked@CWindowsMover@@AAEHVCRect@@00@Z ; CWindowsMover::IsTwoWndStucked
  0065a	85 c0		 test	 eax, eax
  0065c	74 15		 je	 SHORT $L188234

; 113  : 					{
; 114  : 						it->second.nState = STATE_MOVING;

  0065e	8d 4d d8	 lea	 ecx, DWORD PTR _it$[ebp]
  00661	e8 00 00 00 00	 call	 ??Citerator@?$_Tree@V?$_Tmap_traits@PAUHWND__@@UWndMoveData@@U?$less@PAUHWND__@@@std@@V?$allocator@U?$pair@QAUHWND__@@UWndMoveData@@@std@@@4@$0A@@std@@@std@@QBEPAU?$pair@QAUHWND__@@UWndMoveData@@@2@XZ ; std::_Tree<std::_Tmap_traits<HWND__ *,WndMoveData,std::less<HWND__ *>,std::allocator<std::pair<HWND__ * const,WndMoveData> >,0> >::iterator::operator->
  00666	c7 40 18 00 00
	00 00		 mov	 DWORD PTR [eax+24], 0

; 115  : 						bFind = true;

  0066d	c6 45 8b 01	 mov	 BYTE PTR _bFind$[ebp], 1

; 116  : 						break;

  00671	eb 16		 jmp	 SHORT $L188228
$L188234:

; 117  : 					}
; 118  : 					it1 ++;

  00673	6a 00		 push	 0
  00675	8d 8d 68 ff ff
	ff		 lea	 ecx, DWORD PTR $T189597[ebp]
  0067b	51		 push	 ecx
  0067c	8d 4d cc	 lea	 ecx, DWORD PTR _it1$[ebp]
  0067f	e8 00 00 00 00	 call	 ??Eiterator@?$_Tree@V?$_Tmap_traits@PAUHWND__@@UWndMoveData@@U?$less@PAUHWND__@@@std@@V?$allocator@U?$pair@QAUHWND__@@UWndMoveData@@@std@@@4@$0A@@std@@@std@@QAE?AV012@H@Z ; std::_Tree<std::_Tmap_traits<HWND__ *,WndMoveData,std::less<HWND__ *>,std::allocator<std::pair<HWND__ * const,WndMoveData> >,0> >::iterator::operator++

; 119  : 				}

  00684	e9 29 ff ff ff	 jmp	 $L188231
$L188228:

; 120  : 
; 121  : 			}
; 122  : 			if(bFind == true)

  00689	0f b6 55 8b	 movzx	 edx, BYTE PTR _bFind$[ebp]
  0068d	83 fa 01	 cmp	 edx, 1
  00690	75 1d		 jne	 SHORT $L188236

; 123  : 			{
; 124  : 				it = m_mapWndMoveData.begin();

  00692	8d 85 64 ff ff
	ff		 lea	 eax, DWORD PTR $T189598[ebp]
  00698	50		 push	 eax
  00699	8b 4d fc	 mov	 ecx, DWORD PTR _this$[ebp]
  0069c	83 c1 04	 add	 ecx, 4
  0069f	e8 00 00 00 00	 call	 ?begin@?$_Tree@V?$_Tmap_traits@PAUHWND__@@UWndMoveData@@U?$less@PAUHWND__@@@std@@V?$allocator@U?$pair@QAUHWND__@@UWndMoveData@@@std@@@4@$0A@@std@@@std@@QAE?AViterator@12@XZ ; std::_Tree<std::_Tmap_traits<HWND__ *,WndMoveData,std::less<HWND__ *>,std::allocator<std::pair<HWND__ * const,WndMoveData> >,0> >::begin
  006a4	8b 08		 mov	 ecx, DWORD PTR [eax]
  006a6	89 4d d8	 mov	 DWORD PTR _it$[ebp], ecx

; 125  : 				bFind = false;

  006a9	c6 45 8b 00	 mov	 BYTE PTR _bFind$[ebp], 0

; 126  : 			}
; 127  : 			else

  006ad	eb 11		 jmp	 SHORT $L188238
$L188236:

; 128  : 				it++;

  006af	6a 00		 push	 0
  006b1	8d 95 60 ff ff
	ff		 lea	 edx, DWORD PTR $T189599[ebp]
  006b7	52		 push	 edx
  006b8	8d 4d d8	 lea	 ecx, DWORD PTR _it$[ebp]
  006bb	e8 00 00 00 00	 call	 ??Eiterator@?$_Tree@V?$_Tmap_traits@PAUHWND__@@UWndMoveData@@U?$less@PAUHWND__@@@std@@V?$allocator@U?$pair@QAUHWND__@@UWndMoveData@@@std@@@4@$0A@@std@@@std@@QAE?AV012@H@Z ; std::_Tree<std::_Tmap_traits<HWND__ *,WndMoveData,std::less<HWND__ *>,std::allocator<std::pair<HWND__ * const,WndMoveData> >,0> >::iterator::operator++
$L188238:

; 129  : 		}

  006c0	e9 9e fe ff ff	 jmp	 $L188225
$L188195:

; 130  : 	}
; 131  : }

  006c5	52		 push	 edx
  006c6	8b cd		 mov	 ecx, ebp
  006c8	50		 push	 eax
  006c9	8d 15 00 00 00
	00		 lea	 edx, DWORD PTR $L189606
  006cf	e8 00 00 00 00	 call	 @_RTC_CheckStackVars@8
  006d4	58		 pop	 eax
  006d5	5a		 pop	 edx
  006d6	5f		 pop	 edi
  006d7	5e		 pop	 esi
  006d8	81 c4 a0 00 00
	00		 add	 esp, 160		; 000000a0H
  006de	3b ec		 cmp	 ebp, esp
  006e0	e8 00 00 00 00	 call	 __RTC_CheckEsp
  006e5	8b e5		 mov	 esp, ebp
  006e7	5d		 pop	 ebp
  006e8	c2 0c 00	 ret	 12			; 0000000cH
$L189606:
  006eb	05 00 00 00	 DD	 5
  006ef	00 00 00 00	 DD	 $L189605
$L189605:
  006f3	e4 ff ff ff	 DD	 -28			; ffffffe4H
  006f7	10 00 00 00	 DD	 16			; 00000010H
  006fb	00 00 00 00	 DD	 $L189600
  006ff	d8 ff ff ff	 DD	 -40			; ffffffd8H
  00703	04 00 00 00	 DD	 4
  00707	00 00 00 00	 DD	 $L189601
  0070b	cc ff ff ff	 DD	 -52			; ffffffccH
  0070f	04 00 00 00	 DD	 4
  00713	00 00 00 00	 DD	 $L189602
  00717	b4 ff ff ff	 DD	 -76			; ffffffb4H
  0071b	10 00 00 00	 DD	 16			; 00000010H
  0071f	00 00 00 00	 DD	 $L189603
  00723	90 ff ff ff	 DD	 -112			; ffffff90H
  00727	1c 00 00 00	 DD	 28			; 0000001cH
  0072b	00 00 00 00	 DD	 $L189604
$L189604:
  0072f	64		 DB	 100			; 00000064H
  00730	61		 DB	 97			; 00000061H
  00731	74		 DB	 116			; 00000074H
  00732	61		 DB	 97			; 00000061H
  00733	00		 DB	 0
$L189603:
  00734	72		 DB	 114			; 00000072H
  00735	63		 DB	 99			; 00000063H
  00736	00		 DB	 0
$L189602:
  00737	69		 DB	 105			; 00000069H
  00738	74		 DB	 116			; 00000074H
  00739	31		 DB	 49			; 00000031H
  0073a	00		 DB	 0
$L189601:
  0073b	69		 DB	 105			; 00000069H
  0073c	74		 DB	 116			; 00000074H
  0073d	00		 DB	 0
$L189600:
  0073e	72		 DB	 114			; 00000072H
  0073f	63		 DB	 99			; 00000063H
  00740	4d		 DB	 77			; 0000004dH
  00741	61		 DB	 97			; 00000061H
  00742	69		 DB	 105			; 00000069H
  00743	6e		 DB	 110			; 0000006eH
  00744	00		 DB	 0
?DoMouseDown@CWindowsMover@@QAEXPAUHWND__@@VCPoint@@@Z ENDP ; CWindowsMover::DoMouseDown
_TEXT	ENDS
EXTRN	?DeleteObject@CGdiObject@@QAEHXZ:NEAR		; CGdiObject::DeleteObject
EXTRN	?Width@CRect@@QBEHXZ:NEAR			; CRect::Width
EXTRN	?Height@CRect@@QBEHXZ:NEAR			; CRect::Height
EXTRN	??BCRect@@QAEPAUtagRECT@@XZ:NEAR		; CRect::operator tagRECT *
EXTRN	??0CRgn@@QAE@XZ:NEAR				; CRgn::CRgn
EXTRN	?CreateRectRgn@CRgn@@QAEHHHHH@Z:NEAR		; CRgn::CreateRectRgn
EXTRN	?RectInRegion@CRgn@@QBEHPBUtagRECT@@@Z:NEAR	; CRgn::RectInRegion
EXTRN	??1CRgn@@UAE@XZ:NEAR				; CRgn::~CRgn
xdata$x	SEGMENT
$T189626 DD	0ffffffffH
	DD	FLAT:$L189619
$T189621 DD	019930520H
	DD	01H
	DD	FLAT:$T189626
	DD	2 DUP(00H)
	DD	2 DUP(00H)
; Function compile flags: /Odt /RTCsu
xdata$x	ENDS
_TEXT	SEGMENT
tv81 = -64						; size = 4
tv79 = -60						; size = 4
tv67 = -56						; size = 4
tv65 = -52						; size = 4
$T189618 = -48						; size = 4
$T189617 = -44						; size = 4
$T189616 = -40						; size = 4
_rgn$ = -32						; size = 8
_bHorzJoined$ = -18					; size = 1
_bVertJoined$ = -17					; size = 1
_this$ = -16						; size = 4
__$EHRec$ = -12						; size = 12
_rc$ = 8						; size = 16
_rcTwo$ = 24						; size = 16
_rcMain$ = 40						; size = 16
?IsTwoWndStucked@CWindowsMover@@AAEHVCRect@@00@Z PROC NEAR ; CWindowsMover::IsTwoWndStucked
; _this$ = ecx

; 134  : {

  00750	55		 push	 ebp
  00751	8b ec		 mov	 ebp, esp
  00753	6a ff		 push	 -1
  00755	68 00 00 00 00	 push	 __ehhandler$?IsTwoWndStucked@CWindowsMover@@AAEHVCRect@@00@Z
  0075a	64 a1 00 00 00
	00		 mov	 eax, DWORD PTR fs:__except_list
  00760	50		 push	 eax
  00761	64 89 25 00 00
	00 00		 mov	 DWORD PTR fs:__except_list, esp
  00768	83 ec 34	 sub	 esp, 52			; 00000034H
  0076b	56		 push	 esi
  0076c	57		 push	 edi
  0076d	51		 push	 ecx
  0076e	8d 7d c0	 lea	 edi, DWORD PTR [ebp-64]
  00771	b9 0d 00 00 00	 mov	 ecx, 13			; 0000000dH
  00776	b8 cc cc cc cc	 mov	 eax, -858993460		; ccccccccH
  0077b	f3 ab		 rep stosd
  0077d	59		 pop	 ecx
  0077e	89 4d f0	 mov	 DWORD PTR _this$[ebp], ecx

; 135  : 	bool bVertJoined = max(rc.bottom, rcTwo.bottom) - min(rc.top , rcTwo.top) <= rc.Height() + rcTwo.Height() + 1;

  00781	8b 45 14	 mov	 eax, DWORD PTR _rc$[ebp+12]
  00784	3b 45 24	 cmp	 eax, DWORD PTR _rcTwo$[ebp+12]
  00787	7e 08		 jle	 SHORT $L189608
  00789	8b 4d 14	 mov	 ecx, DWORD PTR _rc$[ebp+12]
  0078c	89 4d cc	 mov	 DWORD PTR tv65[ebp], ecx
  0078f	eb 06		 jmp	 SHORT $L189609
$L189608:
  00791	8b 55 24	 mov	 edx, DWORD PTR _rcTwo$[ebp+12]
  00794	89 55 cc	 mov	 DWORD PTR tv65[ebp], edx
$L189609:
  00797	8b 45 0c	 mov	 eax, DWORD PTR _rc$[ebp+4]
  0079a	3b 45 1c	 cmp	 eax, DWORD PTR _rcTwo$[ebp+4]
  0079d	7d 08		 jge	 SHORT $L189610
  0079f	8b 4d 0c	 mov	 ecx, DWORD PTR _rc$[ebp+4]
  007a2	89 4d c8	 mov	 DWORD PTR tv67[ebp], ecx
  007a5	eb 06		 jmp	 SHORT $L189611
$L189610:
  007a7	8b 55 1c	 mov	 edx, DWORD PTR _rcTwo$[ebp+4]
  007aa	89 55 c8	 mov	 DWORD PTR tv67[ebp], edx
$L189611:
  007ad	8b 75 cc	 mov	 esi, DWORD PTR tv65[ebp]
  007b0	2b 75 c8	 sub	 esi, DWORD PTR tv67[ebp]
  007b3	8d 4d 08	 lea	 ecx, DWORD PTR _rc$[ebp]
  007b6	e8 00 00 00 00	 call	 ?Height@CRect@@QBEHXZ	; CRect::Height
  007bb	8b f8		 mov	 edi, eax
  007bd	8d 4d 18	 lea	 ecx, DWORD PTR _rcTwo$[ebp]
  007c0	e8 00 00 00 00	 call	 ?Height@CRect@@QBEHXZ	; CRect::Height
  007c5	8d 44 07 01	 lea	 eax, DWORD PTR [edi+eax+1]
  007c9	33 c9		 xor	 ecx, ecx
  007cb	3b f0		 cmp	 esi, eax
  007cd	0f 9e c1	 setle	 cl
  007d0	88 4d ef	 mov	 BYTE PTR _bVertJoined$[ebp], cl

; 136  : 	bool bHorzJoined = max(rc.right, rcTwo.right) - min(rc.left, rcTwo.left) <= rc.Width() + rcTwo.Width() + 1;

  007d3	8b 55 10	 mov	 edx, DWORD PTR _rc$[ebp+8]
  007d6	3b 55 20	 cmp	 edx, DWORD PTR _rcTwo$[ebp+8]
  007d9	7e 08		 jle	 SHORT $L189612
  007db	8b 45 10	 mov	 eax, DWORD PTR _rc$[ebp+8]
  007de	89 45 c4	 mov	 DWORD PTR tv79[ebp], eax
  007e1	eb 06		 jmp	 SHORT $L189613
$L189612:
  007e3	8b 4d 20	 mov	 ecx, DWORD PTR _rcTwo$[ebp+8]
  007e6	89 4d c4	 mov	 DWORD PTR tv79[ebp], ecx
$L189613:
  007e9	8b 55 08	 mov	 edx, DWORD PTR _rc$[ebp]
  007ec	3b 55 18	 cmp	 edx, DWORD PTR _rcTwo$[ebp]
  007ef	7d 08		 jge	 SHORT $L189614
  007f1	8b 45 08	 mov	 eax, DWORD PTR _rc$[ebp]
  007f4	89 45 c0	 mov	 DWORD PTR tv81[ebp], eax
  007f7	eb 06		 jmp	 SHORT $L189615
$L189614:
  007f9	8b 4d 18	 mov	 ecx, DWORD PTR _rcTwo$[ebp]
  007fc	89 4d c0	 mov	 DWORD PTR tv81[ebp], ecx
$L189615:
  007ff	8b 75 c4	 mov	 esi, DWORD PTR tv79[ebp]
  00802	2b 75 c0	 sub	 esi, DWORD PTR tv81[ebp]
  00805	8d 4d 08	 lea	 ecx, DWORD PTR _rc$[ebp]
  00808	e8 00 00 00 00	 call	 ?Width@CRect@@QBEHXZ	; CRect::Width
  0080d	8b f8		 mov	 edi, eax
  0080f	8d 4d 18	 lea	 ecx, DWORD PTR _rcTwo$[ebp]
  00812	e8 00 00 00 00	 call	 ?Width@CRect@@QBEHXZ	; CRect::Width
  00817	8d 54 07 01	 lea	 edx, DWORD PTR [edi+eax+1]
  0081b	33 c0		 xor	 eax, eax
  0081d	3b f2		 cmp	 esi, edx
  0081f	0f 9e c0	 setle	 al
  00822	88 45 ee	 mov	 BYTE PTR _bHorzJoined$[ebp], al

; 137  : 
; 138  : 	// CRgn, 
; 139  : 	CRgn rgn;

  00825	8d 4d e0	 lea	 ecx, DWORD PTR _rgn$[ebp]
  00828	e8 00 00 00 00	 call	 ??0CRgn@@QAE@XZ		; CRgn::CRgn
  0082d	c7 45 fc 00 00
	00 00		 mov	 DWORD PTR __$EHRec$[ebp+8], 0

; 140  : 	rgn.CreateRectRgn(rc.left, rc.top, rc.right, rc.bottom);

  00834	8b 4d 14	 mov	 ecx, DWORD PTR _rc$[ebp+12]
  00837	51		 push	 ecx
  00838	8b 55 10	 mov	 edx, DWORD PTR _rc$[ebp+8]
  0083b	52		 push	 edx
  0083c	8b 45 0c	 mov	 eax, DWORD PTR _rc$[ebp+4]
  0083f	50		 push	 eax
  00840	8b 4d 08	 mov	 ecx, DWORD PTR _rc$[ebp]
  00843	51		 push	 ecx
  00844	8d 4d e0	 lea	 ecx, DWORD PTR _rgn$[ebp]
  00847	e8 00 00 00 00	 call	 ?CreateRectRgn@CRgn@@QAEHHHHH@Z ; CRgn::CreateRectRgn

; 141  : 
; 142  : 	// 
; 143  : 	if (rgn.RectInRegion(&rcTwo) || rgn.RectInRegion(rcMain))

  0084c	8d 55 18	 lea	 edx, DWORD PTR _rcTwo$[ebp]
  0084f	52		 push	 edx
  00850	8d 4d e0	 lea	 ecx, DWORD PTR _rgn$[ebp]
  00853	e8 00 00 00 00	 call	 ?RectInRegion@CRgn@@QBEHPBUtagRECT@@@Z ; CRgn::RectInRegion
  00858	85 c0		 test	 eax, eax
  0085a	75 15		 jne	 SHORT $L188250
  0085c	8d 4d 28	 lea	 ecx, DWORD PTR _rcMain$[ebp]
  0085f	e8 00 00 00 00	 call	 ??BCRect@@QAEPAUtagRECT@@XZ ; CRect::operator tagRECT *
  00864	50		 push	 eax
  00865	8d 4d e0	 lea	 ecx, DWORD PTR _rgn$[ebp]
  00868	e8 00 00 00 00	 call	 ?RectInRegion@CRgn@@QBEHPBUtagRECT@@@Z ; CRgn::RectInRegion
  0086d	85 c0		 test	 eax, eax
  0086f	74 26		 je	 SHORT $L188249
$L188250:

; 144  : 	{
; 145  : 		rgn.DeleteObject();

  00871	8d 4d e0	 lea	 ecx, DWORD PTR _rgn$[ebp]
  00874	e8 00 00 00 00	 call	 ?DeleteObject@CGdiObject@@QAEHXZ ; CGdiObject::DeleteObject

; 146  : 		return false;

  00879	c7 45 d8 00 00
	00 00		 mov	 DWORD PTR $T189616[ebp], 0
  00880	c7 45 fc ff ff
	ff ff		 mov	 DWORD PTR __$EHRec$[ebp+8], -1
  00887	8d 4d e0	 lea	 ecx, DWORD PTR _rgn$[ebp]
  0088a	e8 00 00 00 00	 call	 ??1CRgn@@UAE@XZ		; CRgn::~CRgn
  0088f	8b 45 d8	 mov	 eax, DWORD PTR $T189616[ebp]
  00892	e9 bc 00 00 00	 jmp	 $L188245
$L188249:

; 147  : 	}
; 148  : 	rgn.DeleteObject();

  00897	8d 4d e0	 lea	 ecx, DWORD PTR _rgn$[ebp]
  0089a	e8 00 00 00 00	 call	 ?DeleteObject@CGdiObject@@QAEHXZ ; CGdiObject::DeleteObject

; 149  : 
; 150  : 	if(
; 151  : 		(rc.left  == rcTwo.left && bVertJoined)	||
; 152  : 		(rc.left  == rcTwo.right	&& bVertJoined)	||
; 153  : 		(rc.right == rcTwo.left	&& bVertJoined)	||
; 154  : 		(rc.right == rcTwo.right && bVertJoined)	||
; 155  : 		(rc.top   == rcTwo.top && bHorzJoined	)	||
; 156  : 		(rc.top	  == rcTwo.bottom && bHorzJoined)	||
; 157  : 		(rc.bottom== rcTwo.top && bHorzJoined)		||
; 158  : 		(rc.bottom== rcTwo.bottom && bHorzJoined)
; 159  : 	)

  0089f	8b 45 08	 mov	 eax, DWORD PTR _rc$[ebp]
  008a2	3b 45 18	 cmp	 eax, DWORD PTR _rcTwo$[ebp]
  008a5	75 08		 jne	 SHORT $L188254
  008a7	0f b6 4d ef	 movzx	 ecx, BYTE PTR _bVertJoined$[ebp]
  008ab	85 c9		 test	 ecx, ecx
  008ad	75 70		 jne	 SHORT $L188253
$L188254:
  008af	8b 55 08	 mov	 edx, DWORD PTR _rc$[ebp]
  008b2	3b 55 20	 cmp	 edx, DWORD PTR _rcTwo$[ebp+8]
  008b5	75 08		 jne	 SHORT $L188255
  008b7	0f b6 45 ef	 movzx	 eax, BYTE PTR _bVertJoined$[ebp]
  008bb	85 c0		 test	 eax, eax
  008bd	75 60		 jne	 SHORT $L188253
$L188255:
  008bf	8b 4d 10	 mov	 ecx, DWORD PTR _rc$[ebp+8]
  008c2	3b 4d 18	 cmp	 ecx, DWORD PTR _rcTwo$[ebp]
  008c5	75 08		 jne	 SHORT $L188256
  008c7	0f b6 55 ef	 movzx	 edx, BYTE PTR _bVertJoined$[ebp]
  008cb	85 d2		 test	 edx, edx
  008cd	75 50		 jne	 SHORT $L188253
$L188256:
  008cf	8b 45 10	 mov	 eax, DWORD PTR _rc$[ebp+8]
  008d2	3b 45 20	 cmp	 eax, DWORD PTR _rcTwo$[ebp+8]
  008d5	75 08		 jne	 SHORT $L188257
  008d7	0f b6 4d ef	 movzx	 ecx, BYTE PTR _bVertJoined$[ebp]
  008db	85 c9		 test	 ecx, ecx
  008dd	75 40		 jne	 SHORT $L188253
$L188257:
  008df	8b 55 0c	 mov	 edx, DWORD PTR _rc$[ebp+4]
  008e2	3b 55 1c	 cmp	 edx, DWORD PTR _rcTwo$[ebp+4]
  008e5	75 08		 jne	 SHORT $L188258
  008e7	0f b6 45 ee	 movzx	 eax, BYTE PTR _bHorzJoined$[ebp]
  008eb	85 c0		 test	 eax, eax
  008ed	75 30		 jne	 SHORT $L188253
$L188258:
  008ef	8b 4d 0c	 mov	 ecx, DWORD PTR _rc$[ebp+4]
  008f2	3b 4d 24	 cmp	 ecx, DWORD PTR _rcTwo$[ebp+12]
  008f5	75 08		 jne	 SHORT $L188259
  008f7	0f b6 55 ee	 movzx	 edx, BYTE PTR _bHorzJoined$[ebp]
  008fb	85 d2		 test	 edx, edx
  008fd	75 20		 jne	 SHORT $L188253
$L188259:
  008ff	8b 45 14	 mov	 eax, DWORD PTR _rc$[ebp+12]
  00902	3b 45 1c	 cmp	 eax, DWORD PTR _rcTwo$[ebp+4]
  00905	75 08		 jne	 SHORT $L188260
  00907	0f b6 4d ee	 movzx	 ecx, BYTE PTR _bHorzJoined$[ebp]
  0090b	85 c9		 test	 ecx, ecx
  0090d	75 10		 jne	 SHORT $L188253
$L188260:
  0090f	8b 55 14	 mov	 edx, DWORD PTR _rc$[ebp+12]
  00912	3b 55 24	 cmp	 edx, DWORD PTR _rcTwo$[ebp+12]
  00915	75 23		 jne	 SHORT $L188252
  00917	0f b6 45 ee	 movzx	 eax, BYTE PTR _bHorzJoined$[ebp]
  0091b	85 c0		 test	 eax, eax
  0091d	74 1b		 je	 SHORT $L188252
$L188253:

; 160  : 		return true;

  0091f	c7 45 d4 01 00
	00 00		 mov	 DWORD PTR $T189617[ebp], 1
  00926	c7 45 fc ff ff
	ff ff		 mov	 DWORD PTR __$EHRec$[ebp+8], -1
  0092d	8d 4d e0	 lea	 ecx, DWORD PTR _rgn$[ebp]
  00930	e8 00 00 00 00	 call	 ??1CRgn@@UAE@XZ		; CRgn::~CRgn
  00935	8b 45 d4	 mov	 eax, DWORD PTR $T189617[ebp]
  00938	eb 19		 jmp	 SHORT $L188245
$L188252:

; 161  : 	else
; 162  : 		return false;

  0093a	c7 45 d0 00 00
	00 00		 mov	 DWORD PTR $T189618[ebp], 0
  00941	c7 45 fc ff ff
	ff ff		 mov	 DWORD PTR __$EHRec$[ebp+8], -1
  00948	8d 4d e0	 lea	 ecx, DWORD PTR _rgn$[ebp]
  0094b	e8 00 00 00 00	 call	 ??1CRgn@@UAE@XZ		; CRgn::~CRgn
  00950	8b 45 d0	 mov	 eax, DWORD PTR $T189618[ebp]
$L188245:

; 163  : }

  00953	52		 push	 edx
  00954	8b cd		 mov	 ecx, ebp
  00956	50		 push	 eax
  00957	8d 15 00 00 00
	00		 lea	 edx, DWORD PTR $L189625
  0095d	e8 00 00 00 00	 call	 @_RTC_CheckStackVars@8
  00962	58		 pop	 eax
  00963	5a		 pop	 edx
  00964	8b 4d f4	 mov	 ecx, DWORD PTR __$EHRec$[ebp]
  00967	64 89 0d 00 00
	00 00		 mov	 DWORD PTR fs:__except_list, ecx
  0096e	5f		 pop	 edi
  0096f	5e		 pop	 esi
  00970	83 c4 40	 add	 esp, 64			; 00000040H
  00973	3b ec		 cmp	 ebp, esp
  00975	e8 00 00 00 00	 call	 __RTC_CheckEsp
  0097a	8b e5		 mov	 esp, ebp
  0097c	5d		 pop	 ebp
  0097d	c2 30 00	 ret	 48			; 00000030H
$L189625:
  00980	01 00 00 00	 DD	 1
  00984	00 00 00 00	 DD	 $L189624
$L189624:
  00988	e0 ff ff ff	 DD	 -32			; ffffffe0H
  0098c	08 00 00 00	 DD	 8
  00990	00 00 00 00	 DD	 $L189622
$L189622:
  00994	72		 DB	 114			; 00000072H
  00995	67		 DB	 103			; 00000067H
  00996	6e		 DB	 110			; 0000006eH
  00997	00		 DB	 0
_TEXT	ENDS
text$x	SEGMENT
$L189619:
  00015	8d 4d e0	 lea	 ecx, DWORD PTR _rgn$[ebp]
  00018	e9 00 00 00 00	 jmp	 ??1CRgn@@UAE@XZ		; CRgn::~CRgn
__ehhandler$?IsTwoWndStucked@CWindowsMover@@AAEHVCRect@@00@Z:
  0001d	b8 00 00 00 00	 mov	 eax, OFFSET FLAT:$T189621
  00022	e9 00 00 00 00	 jmp	 ___CxxFrameHandler
text$x	ENDS
?IsTwoWndStucked@CWindowsMover@@AAEHVCRect@@00@Z ENDP	; CWindowsMover::IsTwoWndStucked
PUBLIC	?MovingAllWindows@CWindowsMover@@AAEXXZ		; CWindowsMover::MovingAllWindows
PUBLIC	?DoMouseUp@CWindowsMover@@QAEXPAUHWND__@@VCPoint@@@Z ; CWindowsMover::DoMouseUp
EXTRN	??0CRect@@QAE@PBUtagRECT@@@Z:NEAR		; CRect::CRect
EXTRN	?MoveWindow@CWnd@@QAEXPBUtagRECT@@H@Z:NEAR	; CWnd::MoveWindow
EXTRN	__imp__ReleaseCapture@0:NEAR
; Function compile flags: /Odt /RTCsu
_TEXT	SEGMENT
_rc$188270 = -24					; size = 16
_this$ = -4						; size = 4
_hwnd$ = 8						; size = 4
_p$ = 12						; size = 8
?DoMouseUp@CWindowsMover@@QAEXPAUHWND__@@VCPoint@@@Z PROC NEAR ; CWindowsMover::DoMouseUp
; _this$ = ecx

; 166  : {

  009a0	55		 push	 ebp
  009a1	8b ec		 mov	 ebp, esp
  009a3	83 ec 20	 sub	 esp, 32			; 00000020H
  009a6	56		 push	 esi
  009a7	b8 cc cc cc cc	 mov	 eax, -858993460		; ccccccccH
  009ac	89 45 e0	 mov	 DWORD PTR [ebp-32], eax
  009af	89 45 e4	 mov	 DWORD PTR [ebp-28], eax
  009b2	89 45 e8	 mov	 DWORD PTR [ebp-24], eax
  009b5	89 45 ec	 mov	 DWORD PTR [ebp-20], eax
  009b8	89 45 f0	 mov	 DWORD PTR [ebp-16], eax
  009bb	89 45 f4	 mov	 DWORD PTR [ebp-12], eax
  009be	89 45 f8	 mov	 DWORD PTR [ebp-8], eax
  009c1	89 45 fc	 mov	 DWORD PTR [ebp-4], eax
  009c4	89 4d fc	 mov	 DWORD PTR _this$[ebp], ecx

; 167  : 
; 168  : 	ReleaseCapture();

  009c7	8b f4		 mov	 esi, esp
  009c9	ff 15 00 00 00
	00		 call	 DWORD PTR __imp__ReleaseCapture@0
  009cf	3b f4		 cmp	 esi, esp
  009d1	e8 00 00 00 00	 call	 __RTC_CheckEsp

; 169  : 
; 170  : 	if(m_bDontMoveContent && m_bMouseDown)

  009d6	8b 45 fc	 mov	 eax, DWORD PTR _this$[ebp]
  009d9	83 78 3c 00	 cmp	 DWORD PTR [eax+60], 0
  009dd	0f 84 9f 00 00
	00		 je	 $L188269
  009e3	8b 4d fc	 mov	 ecx, DWORD PTR _this$[ebp]
  009e6	83 39 00	 cmp	 DWORD PTR [ecx], 0
  009e9	0f 84 93 00 00
	00		 je	 $L188269

; 171  : 	{
; 172  : 		CRect rc;

  009ef	8d 4d e8	 lea	 ecx, DWORD PTR _rc$188270[ebp]
  009f2	e8 00 00 00 00	 call	 ??0CRect@@QAE@XZ	; CRect::CRect

; 173  : 
; 174  : 		m_offsetX = p.x-m_ptMouseDownPos.x;

  009f7	8b 55 fc	 mov	 edx, DWORD PTR _this$[ebp]
  009fa	8b 45 0c	 mov	 eax, DWORD PTR _p$[ebp]
  009fd	2b 42 14	 sub	 eax, DWORD PTR [edx+20]
  00a00	8b 4d fc	 mov	 ecx, DWORD PTR _this$[ebp]
  00a03	89 41 24	 mov	 DWORD PTR [ecx+36], eax

; 175  : 		m_offsetY = p.y-m_ptMouseDownPos.y;

  00a06	8b 55 fc	 mov	 edx, DWORD PTR _this$[ebp]
  00a09	8b 45 10	 mov	 eax, DWORD PTR _p$[ebp+4]
  00a0c	2b 42 18	 sub	 eax, DWORD PTR [edx+24]
  00a0f	8b 4d fc	 mov	 ecx, DWORD PTR _this$[ebp]
  00a12	89 41 28	 mov	 DWORD PTR [ecx+40], eax

; 176  : 
; 177  : 		GetWindowRect(hwnd, &rc);

  00a15	8b f4		 mov	 esi, esp
  00a17	8d 55 e8	 lea	 edx, DWORD PTR _rc$188270[ebp]
  00a1a	52		 push	 edx
  00a1b	8b 45 08	 mov	 eax, DWORD PTR _hwnd$[ebp]
  00a1e	50		 push	 eax
  00a1f	ff 15 00 00 00
	00		 call	 DWORD PTR __imp__GetWindowRect@8
  00a25	3b f4		 cmp	 esi, esp
  00a27	e8 00 00 00 00	 call	 __RTC_CheckEsp

; 178  : 		rc.OffsetRect(m_offsetX, m_offsetY);

  00a2c	8b 4d fc	 mov	 ecx, DWORD PTR _this$[ebp]
  00a2f	8b 51 28	 mov	 edx, DWORD PTR [ecx+40]
  00a32	52		 push	 edx
  00a33	8b 45 fc	 mov	 eax, DWORD PTR _this$[ebp]
  00a36	8b 48 24	 mov	 ecx, DWORD PTR [eax+36]
  00a39	51		 push	 ecx
  00a3a	8d 4d e8	 lea	 ecx, DWORD PTR _rc$188270[ebp]
  00a3d	e8 00 00 00 00	 call	 ?OffsetRect@CRect@@QAEXHH@Z ; CRect::OffsetRect

; 179  : 
; 180  : 		DrawMoveFrame(&m_rcKeep);

  00a42	8b 55 fc	 mov	 edx, DWORD PTR _this$[ebp]
  00a45	83 c2 2c	 add	 edx, 44			; 0000002cH
  00a48	83 ec 10	 sub	 esp, 16			; 00000010H
  00a4b	8b cc		 mov	 ecx, esp
  00a4d	52		 push	 edx
  00a4e	e8 00 00 00 00	 call	 ??0CRect@@QAE@PBUtagRECT@@@Z ; CRect::CRect
  00a53	8b 4d fc	 mov	 ecx, DWORD PTR _this$[ebp]
  00a56	e8 00 00 00 00	 call	 ?DrawMoveFrame@CWindowsMover@@QAEXVCRect@@@Z ; CWindowsMover::DrawMoveFrame

; 181  : 
; 182  : 		m_mapWndMoveData[hwnd].pWnd->MoveWindow(&rc);

  00a5b	6a 01		 push	 1
  00a5d	8d 45 e8	 lea	 eax, DWORD PTR _rc$188270[ebp]
  00a60	50		 push	 eax
  00a61	8d 4d 08	 lea	 ecx, DWORD PTR _hwnd$[ebp]
  00a64	51		 push	 ecx
  00a65	8b 4d fc	 mov	 ecx, DWORD PTR _this$[ebp]
  00a68	83 c1 04	 add	 ecx, 4
  00a6b	e8 00 00 00 00	 call	 ??A?$map@PAUHWND__@@UWndMoveData@@U?$less@PAUHWND__@@@std@@V?$allocator@U?$pair@QAUHWND__@@UWndMoveData@@@std@@@4@@std@@QAEAAUWndMoveData@@ABQAUHWND__@@@Z ; std::map<HWND__ *,WndMoveData,std::less<HWND__ *>,std::allocator<std::pair<HWND__ * const,WndMoveData> > >::operator[]
  00a70	8b 08		 mov	 ecx, DWORD PTR [eax]
  00a72	e8 00 00 00 00	 call	 ?MoveWindow@CWnd@@QAEXPBUtagRECT@@H@Z ; CWnd::MoveWindow

; 183  : 		m_bMouseDown = false;

  00a77	8b 55 fc	 mov	 edx, DWORD PTR _this$[ebp]
  00a7a	c7 02 00 00 00
	00		 mov	 DWORD PTR [edx], 0

; 184  : 		return;

  00a80	eb 11		 jmp	 SHORT $L188268
$L188269:

; 185  : 	}
; 186  : 	m_bMouseDown = false;

  00a82	8b 45 fc	 mov	 eax, DWORD PTR _this$[ebp]
  00a85	c7 00 00 00 00
	00		 mov	 DWORD PTR [eax], 0

; 187  : 	MovingAllWindows();

  00a8b	8b 4d fc	 mov	 ecx, DWORD PTR _this$[ebp]
  00a8e	e8 00 00 00 00	 call	 ?MovingAllWindows@CWindowsMover@@AAEXXZ ; CWindowsMover::MovingAllWindows
$L188268:

; 188  : }

  00a93	52		 push	 edx
  00a94	8b cd		 mov	 ecx, ebp
  00a96	50		 push	 eax
  00a97	8d 15 00 00 00
	00		 lea	 edx, DWORD PTR $L189631
  00a9d	e8 00 00 00 00	 call	 @_RTC_CheckStackVars@8
  00aa2	58		 pop	 eax
  00aa3	5a		 pop	 edx
  00aa4	5e		 pop	 esi
  00aa5	83 c4 20	 add	 esp, 32			; 00000020H
  00aa8	3b ec		 cmp	 ebp, esp
  00aaa	e8 00 00 00 00	 call	 __RTC_CheckEsp
  00aaf	8b e5		 mov	 esp, ebp
  00ab1	5d		 pop	 ebp
  00ab2	c2 0c 00	 ret	 12			; 0000000cH
$L189631:
  00ab5	01 00 00 00	 DD	 1
  00ab9	00 00 00 00	 DD	 $L189630
$L189630:
  00abd	e8 ff ff ff	 DD	 -24			; ffffffe8H
  00ac1	10 00 00 00	 DD	 16			; 00000010H
  00ac5	00 00 00 00	 DD	 $L189629
$L189629:
  00ac9	72		 DB	 114			; 00000072H
  00aca	63		 DB	 99			; 00000063H
  00acb	00		 DB	 0
?DoMouseUp@CWindowsMover@@QAEXPAUHWND__@@VCPoint@@@Z ENDP ; CWindowsMover::DoMouseUp
_TEXT	ENDS
PUBLIC	?CalMinDistance@CWindowsMover@@AAEXAAH0@Z	; CWindowsMover::CalMinDistance
PUBLIC	?ModifyMovingWndPos@CWindowsMover@@AAEXHH@Z	; CWindowsMover::ModifyMovingWndPos
PUBLIC	?DoMouseMove@CWindowsMover@@QAEXPAUHWND__@@IVCPoint@@@Z ; CWindowsMover::DoMouseMove
EXTRN	??8CPoint@@QBEHUtagPOINT@@@Z:NEAR		; CPoint::operator==
EXTRN	_abs:NEAR
EXTRN	__imp__GetTickCount@0:NEAR
; Function compile flags: /Odt /RTCsu
_TEXT	SEGMENT
$T189635 = -72						; size = 8
_count$ = -56						; size = 4
_rc$188283 = -48					; size = 16
_nMinY$ = -24						; size = 4
_nMinX$ = -12						; size = 4
_this$ = -4						; size = 4
_hWnd$ = 8						; size = 4
_nFlags$ = 12						; size = 4
_p$ = 16						; size = 8
?DoMouseMove@CWindowsMover@@QAEXPAUHWND__@@IVCPoint@@@Z PROC NEAR ; CWindowsMover::DoMouseMove
; _this$ = ecx

; 191  : {

  00ad0	55		 push	 ebp
  00ad1	8b ec		 mov	 ebp, esp
  00ad3	83 ec 48	 sub	 esp, 72			; 00000048H
  00ad6	56		 push	 esi
  00ad7	57		 push	 edi
  00ad8	51		 push	 ecx
  00ad9	8d 7d b8	 lea	 edi, DWORD PTR [ebp-72]
  00adc	b9 12 00 00 00	 mov	 ecx, 18			; 00000012H
  00ae1	b8 cc cc cc cc	 mov	 eax, -858993460		; ccccccccH
  00ae6	f3 ab		 rep stosd
  00ae8	59		 pop	 ecx
  00ae9	89 4d fc	 mov	 DWORD PTR _this$[ebp], ecx

; 192  : 	//ClientToScreen(hWnd, &p);
; 193  : 	if(!m_bMouseDown)

  00aec	8b 45 fc	 mov	 eax, DWORD PTR _this$[ebp]
  00aef	83 38 00	 cmp	 DWORD PTR [eax], 0
  00af2	75 05		 jne	 SHORT $L188278

; 194  : 		return;

  00af4	e9 9e 01 00 00	 jmp	 $L188277
$L188278:

; 195  : 
; 196  : 	int nMinX, nMinY;
; 197  : 	if(!(nFlags & MK_LBUTTON))

  00af9	8b 4d 0c	 mov	 ecx, DWORD PTR _nFlags$[ebp]
  00afc	83 e1 01	 and	 ecx, 1
  00aff	75 05		 jne	 SHORT $L188281

; 198  : 	{
; 199  : 		return;

  00b01	e9 91 01 00 00	 jmp	 $L188277
$L188281:

; 200  : 	}
; 201  : 
; 202  : 	if(m_bDontMoveContent)

  00b06	8b 55 fc	 mov	 edx, DWORD PTR _this$[ebp]
  00b09	83 7a 3c 00	 cmp	 DWORD PTR [edx+60], 0
  00b0d	0f 84 a4 00 00
	00		 je	 $L188282

; 203  : 	{
; 204  : 		CRect rc;

  00b13	8d 4d d0	 lea	 ecx, DWORD PTR _rc$188283[ebp]
  00b16	e8 00 00 00 00	 call	 ??0CRect@@QAE@XZ	; CRect::CRect

; 205  : 
; 206  : 		m_offsetX = p.x-m_ptMouseDownPos.x;

  00b1b	8b 45 fc	 mov	 eax, DWORD PTR _this$[ebp]
  00b1e	8b 4d 10	 mov	 ecx, DWORD PTR _p$[ebp]
  00b21	2b 48 14	 sub	 ecx, DWORD PTR [eax+20]
  00b24	8b 55 fc	 mov	 edx, DWORD PTR _this$[ebp]
  00b27	89 4a 24	 mov	 DWORD PTR [edx+36], ecx

; 207  : 		m_offsetY = p.y-m_ptMouseDownPos.y;

  00b2a	8b 45 fc	 mov	 eax, DWORD PTR _this$[ebp]
  00b2d	8b 4d 14	 mov	 ecx, DWORD PTR _p$[ebp+4]
  00b30	2b 48 18	 sub	 ecx, DWORD PTR [eax+24]
  00b33	8b 55 fc	 mov	 edx, DWORD PTR _this$[ebp]
  00b36	89 4a 28	 mov	 DWORD PTR [edx+40], ecx

; 208  : 
; 209  : 		GetWindowRect(hWnd, &rc);

  00b39	8b f4		 mov	 esi, esp
  00b3b	8d 45 d0	 lea	 eax, DWORD PTR _rc$188283[ebp]
  00b3e	50		 push	 eax
  00b3f	8b 4d 08	 mov	 ecx, DWORD PTR _hWnd$[ebp]
  00b42	51		 push	 ecx
  00b43	ff 15 00 00 00
	00		 call	 DWORD PTR __imp__GetWindowRect@8
  00b49	3b f4		 cmp	 esi, esp
  00b4b	e8 00 00 00 00	 call	 __RTC_CheckEsp

; 210  : 		rc.OffsetRect(m_offsetX, m_offsetY);

  00b50	8b 55 fc	 mov	 edx, DWORD PTR _this$[ebp]
  00b53	8b 42 28	 mov	 eax, DWORD PTR [edx+40]
  00b56	50		 push	 eax
  00b57	8b 4d fc	 mov	 ecx, DWORD PTR _this$[ebp]
  00b5a	8b 51 24	 mov	 edx, DWORD PTR [ecx+36]
  00b5d	52		 push	 edx
  00b5e	8d 4d d0	 lea	 ecx, DWORD PTR _rc$188283[ebp]
  00b61	e8 00 00 00 00	 call	 ?OffsetRect@CRect@@QAEXHH@Z ; CRect::OffsetRect

; 211  : 
; 212  : 		DrawMoveFrame(&m_rcKeep);

  00b66	8b 45 fc	 mov	 eax, DWORD PTR _this$[ebp]
  00b69	83 c0 2c	 add	 eax, 44			; 0000002cH
  00b6c	83 ec 10	 sub	 esp, 16			; 00000010H
  00b6f	8b cc		 mov	 ecx, esp
  00b71	50		 push	 eax
  00b72	e8 00 00 00 00	 call	 ??0CRect@@QAE@PBUtagRECT@@@Z ; CRect::CRect
  00b77	8b 4d fc	 mov	 ecx, DWORD PTR _this$[ebp]
  00b7a	e8 00 00 00 00	 call	 ?DrawMoveFrame@CWindowsMover@@QAEXVCRect@@@Z ; CWindowsMover::DrawMoveFrame

; 213  : 		m_rcKeep = rc;

  00b7f	8b 4d fc	 mov	 ecx, DWORD PTR _this$[ebp]
  00b82	83 c1 2c	 add	 ecx, 44			; 0000002cH
  00b85	8b 55 d0	 mov	 edx, DWORD PTR _rc$188283[ebp]
  00b88	89 11		 mov	 DWORD PTR [ecx], edx
  00b8a	8b 45 d4	 mov	 eax, DWORD PTR _rc$188283[ebp+4]
  00b8d	89 41 04	 mov	 DWORD PTR [ecx+4], eax
  00b90	8b 55 d8	 mov	 edx, DWORD PTR _rc$188283[ebp+8]
  00b93	89 51 08	 mov	 DWORD PTR [ecx+8], edx
  00b96	8b 45 dc	 mov	 eax, DWORD PTR _rc$188283[ebp+12]
  00b99	89 41 0c	 mov	 DWORD PTR [ecx+12], eax

; 214  : 		DrawMoveFrame(&rc);

  00b9c	83 ec 10	 sub	 esp, 16			; 00000010H
  00b9f	8b cc		 mov	 ecx, esp
  00ba1	8d 55 d0	 lea	 edx, DWORD PTR _rc$188283[ebp]
  00ba4	52		 push	 edx
  00ba5	e8 00 00 00 00	 call	 ??0CRect@@QAE@PBUtagRECT@@@Z ; CRect::CRect
  00baa	8b 4d fc	 mov	 ecx, DWORD PTR _this$[ebp]
  00bad	e8 00 00 00 00	 call	 ?DrawMoveFrame@CWindowsMover@@QAEXVCRect@@@Z ; CWindowsMover::DrawMoveFrame

; 215  : 		return;

  00bb2	e9 e0 00 00 00	 jmp	 $L188277
$L188282:

; 216  : 	}
; 217  : 
; 218  : 	if(m_ptLastMousePos == p)

  00bb7	8b 45 10	 mov	 eax, DWORD PTR _p$[ebp]
  00bba	89 45 b8	 mov	 DWORD PTR $T189635[ebp], eax
  00bbd	8b 4d 14	 mov	 ecx, DWORD PTR _p$[ebp+4]
  00bc0	89 4d bc	 mov	 DWORD PTR $T189635[ebp+4], ecx
  00bc3	8b 55 bc	 mov	 edx, DWORD PTR $T189635[ebp+4]
  00bc6	52		 push	 edx
  00bc7	8b 45 b8	 mov	 eax, DWORD PTR $T189635[ebp]
  00bca	50		 push	 eax
  00bcb	8b 4d fc	 mov	 ecx, DWORD PTR _this$[ebp]
  00bce	83 c1 1c	 add	 ecx, 28			; 0000001cH
  00bd1	e8 00 00 00 00	 call	 ??8CPoint@@QBEHUtagPOINT@@@Z ; CPoint::operator==
  00bd6	85 c0		 test	 eax, eax
  00bd8	74 05		 je	 SHORT $L188287

; 219  : 		return;

  00bda	e9 b8 00 00 00	 jmp	 $L188277
$L188287:

; 220  : 
; 221  : 	if(abs(m_ptLastMousePos.x - p.x) < 3 && abs(m_ptLastMousePos.y - p.y) < 3)

  00bdf	8b 4d fc	 mov	 ecx, DWORD PTR _this$[ebp]
  00be2	8b 51 1c	 mov	 edx, DWORD PTR [ecx+28]
  00be5	2b 55 10	 sub	 edx, DWORD PTR _p$[ebp]
  00be8	52		 push	 edx
  00be9	e8 00 00 00 00	 call	 _abs
  00bee	83 c4 04	 add	 esp, 4
  00bf1	83 f8 03	 cmp	 eax, 3
  00bf4	7d 1c		 jge	 SHORT $L188288
  00bf6	8b 45 fc	 mov	 eax, DWORD PTR _this$[ebp]
  00bf9	8b 48 20	 mov	 ecx, DWORD PTR [eax+32]
  00bfc	2b 4d 14	 sub	 ecx, DWORD PTR _p$[ebp+4]
  00bff	51		 push	 ecx
  00c00	e8 00 00 00 00	 call	 _abs
  00c05	83 c4 04	 add	 esp, 4
  00c08	83 f8 03	 cmp	 eax, 3
  00c0b	7d 05		 jge	 SHORT $L188288

; 222  : 		return;

  00c0d	e9 85 00 00 00	 jmp	 $L188277
$L188288:

; 223  : 
; 224  : 	DWORD count = GetTickCount();

  00c12	8b f4		 mov	 esi, esp
  00c14	ff 15 00 00 00
	00		 call	 DWORD PTR __imp__GetTickCount@0
  00c1a	3b f4		 cmp	 esi, esp
  00c1c	e8 00 00 00 00	 call	 __RTC_CheckEsp
  00c21	89 45 c8	 mov	 DWORD PTR _count$[ebp], eax

; 225  : 	m_ptLastMousePos = p;

  00c24	8b 55 fc	 mov	 edx, DWORD PTR _this$[ebp]
  00c27	8b 45 10	 mov	 eax, DWORD PTR _p$[ebp]
  00c2a	89 42 1c	 mov	 DWORD PTR [edx+28], eax
  00c2d	8b 4d 14	 mov	 ecx, DWORD PTR _p$[ebp+4]
  00c30	89 4a 20	 mov	 DWORD PTR [edx+32], ecx

; 226  : 	m_hCurWnd = hWnd;

  00c33	8b 55 fc	 mov	 edx, DWORD PTR _this$[ebp]
  00c36	8b 45 08	 mov	 eax, DWORD PTR _hWnd$[ebp]
  00c39	89 42 10	 mov	 DWORD PTR [edx+16], eax

; 227  : 	nMinX = nMinY = 0;

  00c3c	c7 45 e8 00 00
	00 00		 mov	 DWORD PTR _nMinY$[ebp], 0
  00c43	8b 4d e8	 mov	 ecx, DWORD PTR _nMinY$[ebp]
  00c46	89 4d f4	 mov	 DWORD PTR _nMinX$[ebp], ecx

; 228  : 	m_offsetX = p.x-m_ptMouseDownPos.x;

  00c49	8b 55 fc	 mov	 edx, DWORD PTR _this$[ebp]
  00c4c	8b 45 10	 mov	 eax, DWORD PTR _p$[ebp]
  00c4f	2b 42 14	 sub	 eax, DWORD PTR [edx+20]
  00c52	8b 4d fc	 mov	 ecx, DWORD PTR _this$[ebp]
  00c55	89 41 24	 mov	 DWORD PTR [ecx+36], eax

; 229  : 	m_offsetY = p.y-m_ptMouseDownPos.y;

  00c58	8b 55 fc	 mov	 edx, DWORD PTR _this$[ebp]
  00c5b	8b 45 14	 mov	 eax, DWORD PTR _p$[ebp+4]
  00c5e	2b 42 18	 sub	 eax, DWORD PTR [edx+24]
  00c61	8b 4d fc	 mov	 ecx, DWORD PTR _this$[ebp]
  00c64	89 41 28	 mov	 DWORD PTR [ecx+40], eax

; 230  : 	CalMovingWndNewPos();

  00c67	8b 4d fc	 mov	 ecx, DWORD PTR _this$[ebp]
  00c6a	e8 00 00 00 00	 call	 ?CalMovingWndNewPos@CWindowsMover@@AAEXXZ ; CWindowsMover::CalMovingWndNewPos

; 231  : 	CalMinDistance(nMinX, nMinY);

  00c6f	8d 55 e8	 lea	 edx, DWORD PTR _nMinY$[ebp]
  00c72	52		 push	 edx
  00c73	8d 45 f4	 lea	 eax, DWORD PTR _nMinX$[ebp]
  00c76	50		 push	 eax
  00c77	8b 4d fc	 mov	 ecx, DWORD PTR _this$[ebp]
  00c7a	e8 00 00 00 00	 call	 ?CalMinDistance@CWindowsMover@@AAEXAAH0@Z ; CWindowsMover::CalMinDistance

; 232  : 	ModifyMovingWndPos(nMinX, nMinY);

  00c7f	8b 4d e8	 mov	 ecx, DWORD PTR _nMinY$[ebp]
  00c82	51		 push	 ecx
  00c83	8b 55 f4	 mov	 edx, DWORD PTR _nMinX$[ebp]
  00c86	52		 push	 edx
  00c87	8b 4d fc	 mov	 ecx, DWORD PTR _this$[ebp]
  00c8a	e8 00 00 00 00	 call	 ?ModifyMovingWndPos@CWindowsMover@@AAEXHH@Z ; CWindowsMover::ModifyMovingWndPos

; 233  : 	MovingAllWindows();

  00c8f	8b 4d fc	 mov	 ecx, DWORD PTR _this$[ebp]
  00c92	e8 00 00 00 00	 call	 ?MovingAllWindows@CWindowsMover@@AAEXXZ ; CWindowsMover::MovingAllWindows
$L188277:

; 234  : 
; 235  : 	//TRACE("%d\n", GetTickCount() - count);
; 236  : }

  00c97	52		 push	 edx
  00c98	8b cd		 mov	 ecx, ebp
  00c9a	50		 push	 eax
  00c9b	8d 15 00 00 00
	00		 lea	 edx, DWORD PTR $L189640
  00ca1	e8 00 00 00 00	 call	 @_RTC_CheckStackVars@8
  00ca6	58		 pop	 eax
  00ca7	5a		 pop	 edx
  00ca8	5f		 pop	 edi
  00ca9	5e		 pop	 esi
  00caa	83 c4 48	 add	 esp, 72			; 00000048H
  00cad	3b ec		 cmp	 ebp, esp
  00caf	e8 00 00 00 00	 call	 __RTC_CheckEsp
  00cb4	8b e5		 mov	 esp, ebp
  00cb6	5d		 pop	 ebp
  00cb7	c2 10 00	 ret	 16			; 00000010H
$L189640:
  00cba	03 00 00 00	 DD	 3
  00cbe	00 00 00 00	 DD	 $L189639
$L189639:
  00cc2	f4 ff ff ff	 DD	 -12			; fffffff4H
  00cc6	04 00 00 00	 DD	 4
  00cca	00 00 00 00	 DD	 $L189636
  00cce	e8 ff ff ff	 DD	 -24			; ffffffe8H
  00cd2	04 00 00 00	 DD	 4
  00cd6	00 00 00 00	 DD	 $L189637
  00cda	d0 ff ff ff	 DD	 -48			; ffffffd0H
  00cde	10 00 00 00	 DD	 16			; 00000010H
  00ce2	00 00 00 00	 DD	 $L189638
$L189638:
  00ce6	72		 DB	 114			; 00000072H
  00ce7	63		 DB	 99			; 00000063H
  00ce8	00		 DB	 0
$L189637:
  00ce9	6e		 DB	 110			; 0000006eH
  00cea	4d		 DB	 77			; 0000004dH
  00ceb	69		 DB	 105			; 00000069H
  00cec	6e		 DB	 110			; 0000006eH
  00ced	59		 DB	 89			; 00000059H
  00cee	00		 DB	 0
$L189636:
  00cef	6e		 DB	 110			; 0000006eH
  00cf0	4d		 DB	 77			; 0000004dH
  00cf1	69		 DB	 105			; 00000069H
  00cf2	6e		 DB	 110			; 0000006eH
  00cf3	58		 DB	 88			; 00000058H
  00cf4	00		 DB	 0
?DoMouseMove@CWindowsMover@@QAEXPAUHWND__@@IVCPoint@@@Z ENDP ; CWindowsMover::DoMouseMove
_TEXT	ENDS
PUBLIC	?ModifyMovingWndPosAndSize@CWindowsMover@@AAEXHHH@Z ; CWindowsMover::ModifyMovingWndPosAndSize
PUBLIC	?DoMouseResizingFinished@CWindowsMover@@QAEXPAUHWND__@@IVCPoint@@H@Z ; CWindowsMover::DoMouseResizingFinished
; Function compile flags: /Odt /RTCsu
_TEXT	SEGMENT
$T189644 = -60						; size = 4
$T189643 = -56						; size = 4
$T189642 = -52						; size = 8
_it$ = -40						; size = 4
_count$ = -32						; size = 4
_nMinY$ = -24						; size = 4
_nMinX$ = -12						; size = 4
_this$ = -4						; size = 4
_hWnd$ = 8						; size = 4
_nFlags$ = 12						; size = 4
_p$ = 16						; size = 8
_iDirection$ = 24					; size = 4
?DoMouseResizingFinished@CWindowsMover@@QAEXPAUHWND__@@IVCPoint@@H@Z PROC NEAR ; CWindowsMover::DoMouseResizingFinished
; _this$ = ecx

; 239  : {

  00d00	55		 push	 ebp
  00d01	8b ec		 mov	 ebp, esp
  00d03	83 ec 3c	 sub	 esp, 60			; 0000003cH
  00d06	56		 push	 esi
  00d07	57		 push	 edi
  00d08	51		 push	 ecx
  00d09	8d 7d c4	 lea	 edi, DWORD PTR [ebp-60]
  00d0c	b9 0f 00 00 00	 mov	 ecx, 15			; 0000000fH
  00d11	b8 cc cc cc cc	 mov	 eax, -858993460		; ccccccccH
  00d16	f3 ab		 rep stosd
  00d18	59		 pop	 ecx
  00d19	89 4d fc	 mov	 DWORD PTR _this$[ebp], ecx

; 240  : 	int nMinX, nMinY;
; 241  : 
; 242  : //	ClientToScreen(hWnd, &p);
; 243  : 	if(m_ptLastMousePos == p)

  00d1c	8b 45 10	 mov	 eax, DWORD PTR _p$[ebp]
  00d1f	89 45 cc	 mov	 DWORD PTR $T189642[ebp], eax
  00d22	8b 4d 14	 mov	 ecx, DWORD PTR _p$[ebp+4]
  00d25	89 4d d0	 mov	 DWORD PTR $T189642[ebp+4], ecx
  00d28	8b 55 d0	 mov	 edx, DWORD PTR $T189642[ebp+4]
  00d2b	52		 push	 edx
  00d2c	8b 45 cc	 mov	 eax, DWORD PTR $T189642[ebp]
  00d2f	50		 push	 eax
  00d30	8b 4d fc	 mov	 ecx, DWORD PTR _this$[ebp]
  00d33	83 c1 1c	 add	 ecx, 28			; 0000001cH
  00d36	e8 00 00 00 00	 call	 ??8CPoint@@QBEHUtagPOINT@@@Z ; CPoint::operator==
  00d3b	85 c0		 test	 eax, eax
  00d3d	74 05		 je	 SHORT $L188300

; 244  : 		return;

  00d3f	e9 1a 01 00 00	 jmp	 $L188296
$L188300:

; 245  : 
; 246  : 	if(abs(m_ptLastMousePos.x - p.x) < 3 && abs(m_ptLastMousePos.y - p.y) < 3)

  00d44	8b 4d fc	 mov	 ecx, DWORD PTR _this$[ebp]
  00d47	8b 51 1c	 mov	 edx, DWORD PTR [ecx+28]
  00d4a	2b 55 10	 sub	 edx, DWORD PTR _p$[ebp]
  00d4d	52		 push	 edx
  00d4e	e8 00 00 00 00	 call	 _abs
  00d53	83 c4 04	 add	 esp, 4
  00d56	83 f8 03	 cmp	 eax, 3
  00d59	7d 1c		 jge	 SHORT $L188301
  00d5b	8b 45 fc	 mov	 eax, DWORD PTR _this$[ebp]
  00d5e	8b 48 20	 mov	 ecx, DWORD PTR [eax+32]
  00d61	2b 4d 14	 sub	 ecx, DWORD PTR _p$[ebp+4]
  00d64	51		 push	 ecx
  00d65	e8 00 00 00 00	 call	 _abs
  00d6a	83 c4 04	 add	 esp, 4
  00d6d	83 f8 03	 cmp	 eax, 3
  00d70	7d 05		 jge	 SHORT $L188301

; 247  : 		return;

  00d72	e9 e7 00 00 00	 jmp	 $L188296
$L188301:

; 248  : 
; 249  : 	DWORD count = GetTickCount();

  00d77	8b f4		 mov	 esi, esp
  00d79	ff 15 00 00 00
	00		 call	 DWORD PTR __imp__GetTickCount@0
  00d7f	3b f4		 cmp	 esi, esp
  00d81	e8 00 00 00 00	 call	 __RTC_CheckEsp
  00d86	89 45 e0	 mov	 DWORD PTR _count$[ebp], eax

; 250  : 
; 251  : 	m_ptLastMousePos = p;

  00d89	8b 55 fc	 mov	 edx, DWORD PTR _this$[ebp]
  00d8c	8b 45 10	 mov	 eax, DWORD PTR _p$[ebp]
  00d8f	89 42 1c	 mov	 DWORD PTR [edx+28], eax
  00d92	8b 4d 14	 mov	 ecx, DWORD PTR _p$[ebp+4]
  00d95	89 4a 20	 mov	 DWORD PTR [edx+32], ecx

; 252  : 	m_hCurWnd = hWnd;

  00d98	8b 55 fc	 mov	 edx, DWORD PTR _this$[ebp]
  00d9b	8b 45 08	 mov	 eax, DWORD PTR _hWnd$[ebp]
  00d9e	89 42 10	 mov	 DWORD PTR [edx+16], eax

; 253  : 
; 254  : 	nMinX = nMinY = 0;

  00da1	c7 45 e8 00 00
	00 00		 mov	 DWORD PTR _nMinY$[ebp], 0
  00da8	8b 4d e8	 mov	 ecx, DWORD PTR _nMinY$[ebp]
  00dab	89 4d f4	 mov	 DWORD PTR _nMinX$[ebp], ecx

; 255  : 	m_offsetX = 0;//p.x-m_ptMouseDownPos.x;

  00dae	8b 55 fc	 mov	 edx, DWORD PTR _this$[ebp]
  00db1	c7 42 24 00 00
	00 00		 mov	 DWORD PTR [edx+36], 0

; 256  : 	m_offsetY = 0;//p.y-m_ptMouseDownPos.y;

  00db8	8b 45 fc	 mov	 eax, DWORD PTR _this$[ebp]
  00dbb	c7 40 28 00 00
	00 00		 mov	 DWORD PTR [eax+40], 0

; 257  : 
; 258  : 	map<HWND, WndMoveData>::iterator it = m_mapWndMoveData.begin();

  00dc2	8d 4d d8	 lea	 ecx, DWORD PTR _it$[ebp]
  00dc5	51		 push	 ecx
  00dc6	8b 4d fc	 mov	 ecx, DWORD PTR _this$[ebp]
  00dc9	83 c1 04	 add	 ecx, 4
  00dcc	e8 00 00 00 00	 call	 ?begin@?$_Tree@V?$_Tmap_traits@PAUHWND__@@UWndMoveData@@U?$less@PAUHWND__@@@std@@V?$allocator@U?$pair@QAUHWND__@@UWndMoveData@@@std@@@4@$0A@@std@@@std@@QAE?AViterator@12@XZ ; std::_Tree<std::_Tmap_traits<HWND__ *,WndMoveData,std::less<HWND__ *>,std::allocator<std::pair<HWND__ * const,WndMoveData> >,0> >::begin
$L188311:

; 259  : 	while(it != m_mapWndMoveData.end())

  00dd1	8d 55 c8	 lea	 edx, DWORD PTR $T189643[ebp]
  00dd4	52		 push	 edx
  00dd5	8b 4d fc	 mov	 ecx, DWORD PTR _this$[ebp]
  00dd8	83 c1 04	 add	 ecx, 4
  00ddb	e8 00 00 00 00	 call	 ?end@?$_Tree@V?$_Tmap_traits@PAUHWND__@@UWndMoveData@@U?$less@PAUHWND__@@@std@@V?$allocator@U?$pair@QAUHWND__@@UWndMoveData@@@std@@@4@$0A@@std@@@std@@QAE?AViterator@12@XZ ; std::_Tree<std::_Tmap_traits<HWND__ *,WndMoveData,std::less<HWND__ *>,std::allocator<std::pair<HWND__ * const,WndMoveData> >,0> >::end
  00de0	50		 push	 eax
  00de1	8d 4d d8	 lea	 ecx, DWORD PTR _it$[ebp]
  00de4	e8 00 00 00 00	 call	 ??9const_iterator@?$_Tree@V?$_Tmap_traits@PAUHWND__@@UWndMoveData@@U?$less@PAUHWND__@@@std@@V?$allocator@U?$pair@QAUHWND__@@UWndMoveData@@@std@@@4@$0A@@std@@@std@@QBE_NABV012@@Z ; std::_Tree<std::_Tmap_traits<HWND__ *,WndMoveData,std::less<HWND__ *>,std::allocator<std::pair<HWND__ * const,WndMoveData> >,0> >::const_iterator::operator!=
  00de9	0f b6 c0	 movzx	 eax, al
  00dec	85 c0		 test	 eax, eax
  00dee	74 3a		 je	 SHORT $L188312

; 260  : 	{
; 261  : 		//::GetWindowRect(hWnd, &m_mapWndMoveData[hWnd].rc);
; 262  : 		::GetWindowRect(it->second.pWnd->m_hWnd, &it->second.rc);

  00df0	8d 4d d8	 lea	 ecx, DWORD PTR _it$[ebp]
  00df3	e8 00 00 00 00	 call	 ??Citerator@?$_Tree@V?$_Tmap_traits@PAUHWND__@@UWndMoveData@@U?$less@PAUHWND__@@@std@@V?$allocator@U?$pair@QAUHWND__@@UWndMoveData@@@std@@@4@$0A@@std@@@std@@QBEPAU?$pair@QAUHWND__@@UWndMoveData@@@2@XZ ; std::_Tree<std::_Tmap_traits<HWND__ *,WndMoveData,std::less<HWND__ *>,std::allocator<std::pair<HWND__ * const,WndMoveData> >,0> >::iterator::operator->
  00df8	83 c0 08	 add	 eax, 8
  00dfb	8b f4		 mov	 esi, esp
  00dfd	50		 push	 eax
  00dfe	8d 4d d8	 lea	 ecx, DWORD PTR _it$[ebp]
  00e01	e8 00 00 00 00	 call	 ??Citerator@?$_Tree@V?$_Tmap_traits@PAUHWND__@@UWndMoveData@@U?$less@PAUHWND__@@@std@@V?$allocator@U?$pair@QAUHWND__@@UWndMoveData@@@std@@@4@$0A@@std@@@std@@QBEPAU?$pair@QAUHWND__@@UWndMoveData@@@2@XZ ; std::_Tree<std::_Tmap_traits<HWND__ *,WndMoveData,std::less<HWND__ *>,std::allocator<std::pair<HWND__ * const,WndMoveData> >,0> >::iterator::operator->
  00e06	8b 48 04	 mov	 ecx, DWORD PTR [eax+4]
  00e09	8b 51 20	 mov	 edx, DWORD PTR [ecx+32]
  00e0c	52		 push	 edx
  00e0d	ff 15 00 00 00
	00		 call	 DWORD PTR __imp__GetWindowRect@8
  00e13	3b f4		 cmp	 esi, esp
  00e15	e8 00 00 00 00	 call	 __RTC_CheckEsp

; 263  : 		it++;

  00e1a	6a 00		 push	 0
  00e1c	8d 45 c4	 lea	 eax, DWORD PTR $T189644[ebp]
  00e1f	50		 push	 eax
  00e20	8d 4d d8	 lea	 ecx, DWORD PTR _it$[ebp]
  00e23	e8 00 00 00 00	 call	 ??Eiterator@?$_Tree@V?$_Tmap_traits@PAUHWND__@@UWndMoveData@@U?$less@PAUHWND__@@@std@@V?$allocator@U?$pair@QAUHWND__@@UWndMoveData@@@std@@@4@$0A@@std@@@std@@QAE?AV012@H@Z ; std::_Tree<std::_Tmap_traits<HWND__ *,WndMoveData,std::less<HWND__ *>,std::allocator<std::pair<HWND__ * const,WndMoveData> >,0> >::iterator::operator++

; 264  : 	}

  00e28	eb a7		 jmp	 SHORT $L188311
$L188312:

; 265  : 
; 266  : 	//	TRACE("OFFSET %d, %d, %d, %d\n", m_offsetX, m_offsetY, m_ptMouseDownPos.x, m_ptMouseDownPos.y);
; 267  : 
; 268  : 	CalMovingWndNewPos();

  00e2a	8b 4d fc	 mov	 ecx, DWORD PTR _this$[ebp]
  00e2d	e8 00 00 00 00	 call	 ?CalMovingWndNewPos@CWindowsMover@@AAEXXZ ; CWindowsMover::CalMovingWndNewPos

; 269  : 	CalMinDistance(nMinX, nMinY);

  00e32	8d 4d e8	 lea	 ecx, DWORD PTR _nMinY$[ebp]
  00e35	51		 push	 ecx
  00e36	8d 55 f4	 lea	 edx, DWORD PTR _nMinX$[ebp]
  00e39	52		 push	 edx
  00e3a	8b 4d fc	 mov	 ecx, DWORD PTR _this$[ebp]
  00e3d	e8 00 00 00 00	 call	 ?CalMinDistance@CWindowsMover@@AAEXAAH0@Z ; CWindowsMover::CalMinDistance

; 270  : 	//ModifyMovingWndPos(nMinX, nMinY);
; 271  : 	ModifyMovingWndPosAndSize(nMinX, nMinY, iDirection);

  00e42	8b 45 18	 mov	 eax, DWORD PTR _iDirection$[ebp]
  00e45	50		 push	 eax
  00e46	8b 4d e8	 mov	 ecx, DWORD PTR _nMinY$[ebp]
  00e49	51		 push	 ecx
  00e4a	8b 55 f4	 mov	 edx, DWORD PTR _nMinX$[ebp]
  00e4d	52		 push	 edx
  00e4e	8b 4d fc	 mov	 ecx, DWORD PTR _this$[ebp]
  00e51	e8 00 00 00 00	 call	 ?ModifyMovingWndPosAndSize@CWindowsMover@@AAEXHHH@Z ; CWindowsMover::ModifyMovingWndPosAndSize

; 272  : 	MovingAllWindows();

  00e56	8b 4d fc	 mov	 ecx, DWORD PTR _this$[ebp]
  00e59	e8 00 00 00 00	 call	 ?MovingAllWindows@CWindowsMover@@AAEXXZ ; CWindowsMover::MovingAllWindows
$L188296:

; 273  : 	//TRACE("%d\n", GetTickCount() - count);
; 274  : }

  00e5e	52		 push	 edx
  00e5f	8b cd		 mov	 ecx, ebp
  00e61	50		 push	 eax
  00e62	8d 15 00 00 00
	00		 lea	 edx, DWORD PTR $L189649
  00e68	e8 00 00 00 00	 call	 @_RTC_CheckStackVars@8
  00e6d	58		 pop	 eax
  00e6e	5a		 pop	 edx
  00e6f	5f		 pop	 edi
  00e70	5e		 pop	 esi
  00e71	83 c4 3c	 add	 esp, 60			; 0000003cH
  00e74	3b ec		 cmp	 ebp, esp
  00e76	e8 00 00 00 00	 call	 __RTC_CheckEsp
  00e7b	8b e5		 mov	 esp, ebp
  00e7d	5d		 pop	 ebp
  00e7e	c2 14 00	 ret	 20			; 00000014H
$L189649:
  00e81	03 00 00 00	 DD	 3
  00e85	00 00 00 00	 DD	 $L189648
$L189648:
  00e89	f4 ff ff ff	 DD	 -12			; fffffff4H
  00e8d	04 00 00 00	 DD	 4
  00e91	00 00 00 00	 DD	 $L189645
  00e95	e8 ff ff ff	 DD	 -24			; ffffffe8H
  00e99	04 00 00 00	 DD	 4
  00e9d	00 00 00 00	 DD	 $L189646
  00ea1	d8 ff ff ff	 DD	 -40			; ffffffd8H
  00ea5	04 00 00 00	 DD	 4
  00ea9	00 00 00 00	 DD	 $L189647
$L189647:
  00ead	69		 DB	 105			; 00000069H
  00eae	74		 DB	 116			; 00000074H
  00eaf	00		 DB	 0
$L189646:
  00eb0	6e		 DB	 110			; 0000006eH
  00eb1	4d		 DB	 77			; 0000004dH
  00eb2	69		 DB	 105			; 00000069H
  00eb3	6e		 DB	 110			; 0000006eH
  00eb4	59		 DB	 89			; 00000059H
  00eb5	00		 DB	 0
$L189645:
  00eb6	6e		 DB	 110			; 0000006eH
  00eb7	4d		 DB	 77			; 0000004dH
  00eb8	69		 DB	 105			; 00000069H
  00eb9	6e		 DB	 110			; 0000006eH
  00eba	58		 DB	 88			; 00000058H
  00ebb	00		 DB	 0
?DoMouseResizingFinished@CWindowsMover@@QAEXPAUHWND__@@IVCPoint@@H@Z ENDP ; CWindowsMover::DoMouseResizingFinished
_TEXT	ENDS
PUBLIC	?IsRectValid@CWindowsMover@@AAEHVCRect@@@Z	; CWindowsMover::IsRectValid
; Function compile flags: /Odt /RTCsu
_TEXT	SEGMENT
$T189653 = -56						; size = 4
$T189652 = -52						; size = 8
$T189651 = -44						; size = 4
_rc$188329 = -36					; size = 16
_it$ = -12						; size = 4
_this$ = -4						; size = 4
?MovingAllWindows@CWindowsMover@@AAEXXZ PROC NEAR	; CWindowsMover::MovingAllWindows
; _this$ = ecx

; 277  : {

  00ec0	55		 push	 ebp
  00ec1	8b ec		 mov	 ebp, esp
  00ec3	83 ec 38	 sub	 esp, 56			; 00000038H
  00ec6	57		 push	 edi
  00ec7	51		 push	 ecx
  00ec8	8d 7d c8	 lea	 edi, DWORD PTR [ebp-56]
  00ecb	b9 0e 00 00 00	 mov	 ecx, 14			; 0000000eH
  00ed0	b8 cc cc cc cc	 mov	 eax, -858993460		; ccccccccH
  00ed5	f3 ab		 rep stosd
  00ed7	59		 pop	 ecx
  00ed8	89 4d fc	 mov	 DWORD PTR _this$[ebp], ecx

; 278  : 	map<HWND, WndMoveData>::iterator it = m_mapWndMoveData.begin();

  00edb	8d 45 f4	 lea	 eax, DWORD PTR _it$[ebp]
  00ede	50		 push	 eax
  00edf	8b 4d fc	 mov	 ecx, DWORD PTR _this$[ebp]
  00ee2	83 c1 04	 add	 ecx, 4
  00ee5	e8 00 00 00 00	 call	 ?begin@?$_Tree@V?$_Tmap_traits@PAUHWND__@@UWndMoveData@@U?$less@PAUHWND__@@@std@@V?$allocator@U?$pair@QAUHWND__@@UWndMoveData@@@std@@@4@$0A@@std@@@std@@QAE?AViterator@12@XZ ; std::_Tree<std::_Tmap_traits<HWND__ *,WndMoveData,std::less<HWND__ *>,std::allocator<std::pair<HWND__ * const,WndMoveData> >,0> >::begin
$L188326:

; 279  : 	while(it != m_mapWndMoveData.end())

  00eea	8d 4d d4	 lea	 ecx, DWORD PTR $T189651[ebp]
  00eed	51		 push	 ecx
  00eee	8b 4d fc	 mov	 ecx, DWORD PTR _this$[ebp]
  00ef1	83 c1 04	 add	 ecx, 4
  00ef4	e8 00 00 00 00	 call	 ?end@?$_Tree@V?$_Tmap_traits@PAUHWND__@@UWndMoveData@@U?$less@PAUHWND__@@@std@@V?$allocator@U?$pair@QAUHWND__@@UWndMoveData@@@std@@@4@$0A@@std@@@std@@QAE?AViterator@12@XZ ; std::_Tree<std::_Tmap_traits<HWND__ *,WndMoveData,std::less<HWND__ *>,std::allocator<std::pair<HWND__ * const,WndMoveData> >,0> >::end
  00ef9	50		 push	 eax
  00efa	8d 4d f4	 lea	 ecx, DWORD PTR _it$[ebp]
  00efd	e8 00 00 00 00	 call	 ??9const_iterator@?$_Tree@V?$_Tmap_traits@PAUHWND__@@UWndMoveData@@U?$less@PAUHWND__@@@std@@V?$allocator@U?$pair@QAUHWND__@@UWndMoveData@@@std@@@4@$0A@@std@@@std@@QBE_NABV012@@Z ; std::_Tree<std::_Tmap_traits<HWND__ *,WndMoveData,std::less<HWND__ *>,std::allocator<std::pair<HWND__ * const,WndMoveData> >,0> >::const_iterator::operator!=
  00f02	0f b6 d0	 movzx	 edx, al
  00f05	85 d2		 test	 edx, edx
  00f07	0f 84 bd 00 00
	00		 je	 $L188317

; 280  : 	{
; 281  : 		CRect rc;

  00f0d	8d 4d dc	 lea	 ecx, DWORD PTR _rc$188329[ebp]
  00f10	e8 00 00 00 00	 call	 ??0CRect@@QAE@XZ	; CRect::CRect

; 282  : 		if(it->second.nState == STATE_MOVING)

  00f15	8d 4d f4	 lea	 ecx, DWORD PTR _it$[ebp]
  00f18	e8 00 00 00 00	 call	 ??Citerator@?$_Tree@V?$_Tmap_traits@PAUHWND__@@UWndMoveData@@U?$less@PAUHWND__@@@std@@V?$allocator@U?$pair@QAUHWND__@@UWndMoveData@@@std@@@4@$0A@@std@@@std@@QBEPAU?$pair@QAUHWND__@@UWndMoveData@@@2@XZ ; std::_Tree<std::_Tmap_traits<HWND__ *,WndMoveData,std::less<HWND__ *>,std::allocator<std::pair<HWND__ * const,WndMoveData> >,0> >::iterator::operator->
  00f1d	83 78 18 00	 cmp	 DWORD PTR [eax+24], 0
  00f21	0f 85 90 00 00
	00		 jne	 $L188330

; 283  : 		{
; 284  : 			rc = it->second.rc;

  00f27	8d 4d f4	 lea	 ecx, DWORD PTR _it$[ebp]
  00f2a	e8 00 00 00 00	 call	 ??Citerator@?$_Tree@V?$_Tmap_traits@PAUHWND__@@UWndMoveData@@U?$less@PAUHWND__@@@std@@V?$allocator@U?$pair@QAUHWND__@@UWndMoveData@@@std@@@4@$0A@@std@@@std@@QBEPAU?$pair@QAUHWND__@@UWndMoveData@@@2@XZ ; std::_Tree<std::_Tmap_traits<HWND__ *,WndMoveData,std::less<HWND__ *>,std::allocator<std::pair<HWND__ * const,WndMoveData> >,0> >::iterator::operator->
  00f2f	83 c0 08	 add	 eax, 8
  00f32	8b 08		 mov	 ecx, DWORD PTR [eax]
  00f34	89 4d dc	 mov	 DWORD PTR _rc$188329[ebp], ecx
  00f37	8b 50 04	 mov	 edx, DWORD PTR [eax+4]
  00f3a	89 55 e0	 mov	 DWORD PTR _rc$188329[ebp+4], edx
  00f3d	8b 48 08	 mov	 ecx, DWORD PTR [eax+8]
  00f40	89 4d e4	 mov	 DWORD PTR _rc$188329[ebp+8], ecx
  00f43	8b 50 0c	 mov	 edx, DWORD PTR [eax+12]
  00f46	89 55 e8	 mov	 DWORD PTR _rc$188329[ebp+12], edx

; 285  : 			if(IsRectValid(rc))

  00f49	83 ec 10	 sub	 esp, 16			; 00000010H
  00f4c	8b c4		 mov	 eax, esp
  00f4e	8b 4d dc	 mov	 ecx, DWORD PTR _rc$188329[ebp]
  00f51	89 08		 mov	 DWORD PTR [eax], ecx
  00f53	8b 55 e0	 mov	 edx, DWORD PTR _rc$188329[ebp+4]
  00f56	89 50 04	 mov	 DWORD PTR [eax+4], edx
  00f59	8b 4d e4	 mov	 ecx, DWORD PTR _rc$188329[ebp+8]
  00f5c	89 48 08	 mov	 DWORD PTR [eax+8], ecx
  00f5f	8b 55 e8	 mov	 edx, DWORD PTR _rc$188329[ebp+12]
  00f62	89 50 0c	 mov	 DWORD PTR [eax+12], edx
  00f65	8b 4d fc	 mov	 ecx, DWORD PTR _this$[ebp]
  00f68	e8 00 00 00 00	 call	 ?IsRectValid@CWindowsMover@@AAEHVCRect@@@Z ; CWindowsMover::IsRectValid
  00f6d	85 c0		 test	 eax, eax
  00f6f	74 16		 je	 SHORT $L188331

; 286  : 			{
; 287  : 				it->second.pWnd->MoveWindow(&rc, true);

  00f71	6a 01		 push	 1
  00f73	8d 45 dc	 lea	 eax, DWORD PTR _rc$188329[ebp]
  00f76	50		 push	 eax
  00f77	8d 4d f4	 lea	 ecx, DWORD PTR _it$[ebp]
  00f7a	e8 00 00 00 00	 call	 ??Citerator@?$_Tree@V?$_Tmap_traits@PAUHWND__@@UWndMoveData@@U?$less@PAUHWND__@@@std@@V?$allocator@U?$pair@QAUHWND__@@UWndMoveData@@@std@@@4@$0A@@std@@@std@@QBEPAU?$pair@QAUHWND__@@UWndMoveData@@@2@XZ ; std::_Tree<std::_Tmap_traits<HWND__ *,WndMoveData,std::less<HWND__ *>,std::allocator<std::pair<HWND__ * const,WndMoveData> >,0> >::iterator::operator->
  00f7f	8b 48 04	 mov	 ecx, DWORD PTR [eax+4]
  00f82	e8 00 00 00 00	 call	 ?MoveWindow@CWnd@@QAEXPBUtagRECT@@H@Z ; CWnd::MoveWindow
$L188331:

; 288  : 			}
; 289  : 			TRACE("MOVING %d, %d, %d, %d\n", rc.left, rc.right, rc.top, rc.bottom);

  00f87	8b 4d e8	 mov	 ecx, DWORD PTR _rc$188329[ebp+12]
  00f8a	51		 push	 ecx
  00f8b	8b 55 e0	 mov	 edx, DWORD PTR _rc$188329[ebp+4]
  00f8e	52		 push	 edx
  00f8f	8b 45 e4	 mov	 eax, DWORD PTR _rc$188329[ebp+8]
  00f92	50		 push	 eax
  00f93	8b 4d dc	 mov	 ecx, DWORD PTR _rc$188329[ebp]
  00f96	51		 push	 ecx
  00f97	68 00 00 00 00	 push	 OFFSET FLAT:$SG188334
  00f9c	68 21 01 00 00	 push	 289			; 00000121H
  00fa1	68 00 00 00 00	 push	 OFFSET FLAT:$SG188333
  00fa6	8d 4d cc	 lea	 ecx, DWORD PTR $T189652[ebp]
  00fa9	e8 00 00 00 00	 call	 ??0CTraceFileAndLineInfo@ATL@@QAE@PBDH@Z ; ATL::CTraceFileAndLineInfo::CTraceFileAndLineInfo
  00fae	50		 push	 eax
  00faf	e8 00 00 00 00	 call	 ??RCTraceFileAndLineInfo@ATL@@QBAXPBDZZ ; ATL::CTraceFileAndLineInfo::operator()
  00fb4	83 c4 18	 add	 esp, 24			; 00000018H
$L188330:

; 290  : 		}
; 291  : 		it++;

  00fb7	6a 00		 push	 0
  00fb9	8d 55 c8	 lea	 edx, DWORD PTR $T189653[ebp]
  00fbc	52		 push	 edx
  00fbd	8d 4d f4	 lea	 ecx, DWORD PTR _it$[ebp]
  00fc0	e8 00 00 00 00	 call	 ??Eiterator@?$_Tree@V?$_Tmap_traits@PAUHWND__@@UWndMoveData@@U?$less@PAUHWND__@@@std@@V?$allocator@U?$pair@QAUHWND__@@UWndMoveData@@@std@@@4@$0A@@std@@@std@@QAE?AV012@H@Z ; std::_Tree<std::_Tmap_traits<HWND__ *,WndMoveData,std::less<HWND__ *>,std::allocator<std::pair<HWND__ * const,WndMoveData> >,0> >::iterator::operator++

; 292  : 	}

  00fc5	e9 20 ff ff ff	 jmp	 $L188326
$L188317:

; 293  : }

  00fca	52		 push	 edx
  00fcb	8b cd		 mov	 ecx, ebp
  00fcd	50		 push	 eax
  00fce	8d 15 00 00 00
	00		 lea	 edx, DWORD PTR $L189657
  00fd4	e8 00 00 00 00	 call	 @_RTC_CheckStackVars@8
  00fd9	58		 pop	 eax
  00fda	5a		 pop	 edx
  00fdb	5f		 pop	 edi
  00fdc	83 c4 38	 add	 esp, 56			; 00000038H
  00fdf	3b ec		 cmp	 ebp, esp
  00fe1	e8 00 00 00 00	 call	 __RTC_CheckEsp
  00fe6	8b e5		 mov	 esp, ebp
  00fe8	5d		 pop	 ebp
  00fe9	c3		 ret	 0
$L189657:
  00fea	02 00 00 00	 DD	 2
  00fee	00 00 00 00	 DD	 $L189656
$L189656:
  00ff2	f4 ff ff ff	 DD	 -12			; fffffff4H
  00ff6	04 00 00 00	 DD	 4
  00ffa	00 00 00 00	 DD	 $L189654
  00ffe	dc ff ff ff	 DD	 -36			; ffffffdcH
  01002	10 00 00 00	 DD	 16			; 00000010H
  01006	00 00 00 00	 DD	 $L189655
$L189655:
  0100a	72		 DB	 114			; 00000072H
  0100b	63		 DB	 99			; 00000063H
  0100c	00		 DB	 0
$L189654:
  0100d	69		 DB	 105			; 00000069H
  0100e	74		 DB	 116			; 00000074H
  0100f	00		 DB	 0
?MovingAllWindows@CWindowsMover@@AAEXXZ ENDP		; CWindowsMover::MovingAllWindows
; Function compile flags: /Odt /RTCsu
_this$ = -4						; size = 4
_rc$ = 8						; size = 16
?IsRectValid@CWindowsMover@@AAEHVCRect@@@Z PROC NEAR	; CWindowsMover::IsRectValid
; _this$ = ecx

; 297  : {

  01010	55		 push	 ebp
  01011	8b ec		 mov	 ebp, esp
  01013	51		 push	 ecx
  01014	c7 45 fc cc cc
	cc cc		 mov	 DWORD PTR [ebp-4], -858993460 ; ccccccccH
  0101b	89 4d fc	 mov	 DWORD PTR _this$[ebp], ecx

; 298  : 	if(rc.left < -2000 || rc.left > 3000)

  0101e	81 7d 08 30 f8
	ff ff		 cmp	 DWORD PTR _rc$[ebp], -2000 ; fffff830H
  01025	7c 09		 jl	 SHORT $L188341
  01027	81 7d 08 b8 0b
	00 00		 cmp	 DWORD PTR _rc$[ebp], 3000 ; 00000bb8H
  0102e	7e 04		 jle	 SHORT $L188340
$L188341:

; 299  : 		return false; 

  01030	33 c0		 xor	 eax, eax
  01032	eb 47		 jmp	 SHORT $L188339
$L188340:

; 300  : 	if(rc.right < -2000 || rc.right > 3000)

  01034	81 7d 10 30 f8
	ff ff		 cmp	 DWORD PTR _rc$[ebp+8], -2000 ; fffff830H
  0103b	7c 09		 jl	 SHORT $L188343
  0103d	81 7d 10 b8 0b
	00 00		 cmp	 DWORD PTR _rc$[ebp+8], 3000 ; 00000bb8H
  01044	7e 04		 jle	 SHORT $L188342
$L188343:

; 301  : 		return false;

  01046	33 c0		 xor	 eax, eax
  01048	eb 31		 jmp	 SHORT $L188339
$L188342:

; 302  : 	if(rc.top < -2000 || rc.top > 3000)

  0104a	81 7d 0c 30 f8
	ff ff		 cmp	 DWORD PTR _rc$[ebp+4], -2000 ; fffff830H
  01051	7c 09		 jl	 SHORT $L188345
  01053	81 7d 0c b8 0b
	00 00		 cmp	 DWORD PTR _rc$[ebp+4], 3000 ; 00000bb8H
  0105a	7e 04		 jle	 SHORT $L188344
$L188345:

; 303  : 		return false;

  0105c	33 c0		 xor	 eax, eax
  0105e	eb 1b		 jmp	 SHORT $L188339
$L188344:

; 304  : 	if(rc.bottom < -2000 || rc.bottom > 3000)

  01060	81 7d 14 30 f8
	ff ff		 cmp	 DWORD PTR _rc$[ebp+12], -2000 ; fffff830H
  01067	7c 09		 jl	 SHORT $L188347
  01069	81 7d 14 b8 0b
	00 00		 cmp	 DWORD PTR _rc$[ebp+12], 3000 ; 00000bb8H
  01070	7e 04		 jle	 SHORT $L188346
$L188347:

; 305  : 		return false;

  01072	33 c0		 xor	 eax, eax
  01074	eb 05		 jmp	 SHORT $L188339
$L188346:

; 306  : 	return true;

  01076	b8 01 00 00 00	 mov	 eax, 1
$L188339:

; 307  : }

  0107b	8b e5		 mov	 esp, ebp
  0107d	5d		 pop	 ebp
  0107e	c2 10 00	 ret	 16			; 00000010H
?IsRectValid@CWindowsMover@@AAEHVCRect@@@Z ENDP		; CWindowsMover::IsRectValid
; Function compile flags: /Odt /RTCsu
tv157 = -64						; size = 4
tv148 = -60						; size = 4
tv139 = -56						; size = 4
tv130 = -52						; size = 4
$T189661 = -48						; size = 4
$T189660 = -44						; size = 4
_rc$188366 = -36					; size = 16
_it$ = -12						; size = 4
_this$ = -4						; size = 4
_deltaX$ = 8						; size = 4
_deltaY$ = 12						; size = 4
_iDirection$ = 16					; size = 4
?ModifyMovingWndPosAndSize@CWindowsMover@@AAEXHHH@Z PROC NEAR ; CWindowsMover::ModifyMovingWndPosAndSize
; _this$ = ecx

; 310  : {

  01090	55		 push	 ebp
  01091	8b ec		 mov	 ebp, esp
  01093	83 ec 40	 sub	 esp, 64			; 00000040H
  01096	57		 push	 edi
  01097	51		 push	 ecx
  01098	8d 7d c0	 lea	 edi, DWORD PTR [ebp-64]
  0109b	b9 10 00 00 00	 mov	 ecx, 16			; 00000010H
  010a0	b8 cc cc cc cc	 mov	 eax, -858993460		; ccccccccH
  010a5	f3 ab		 rep stosd
  010a7	59		 pop	 ecx
  010a8	89 4d fc	 mov	 DWORD PTR _this$[ebp], ecx

; 311  : 	if(deltaX == 0 && deltaY == 0)

  010ab	83 7d 08 00	 cmp	 DWORD PTR _deltaX$[ebp], 0
  010af	75 0b		 jne	 SHORT $L188354
  010b1	83 7d 0c 00	 cmp	 DWORD PTR _deltaY$[ebp], 0
  010b5	75 05		 jne	 SHORT $L188354

; 312  : 		return;

  010b7	e9 2f 01 00 00	 jmp	 $L188353
$L188354:

; 313  : 
; 314  : 	map<HWND, WndMoveData>::iterator it = m_mapWndMoveData.begin();

  010bc	8d 45 f4	 lea	 eax, DWORD PTR _it$[ebp]
  010bf	50		 push	 eax
  010c0	8b 4d fc	 mov	 ecx, DWORD PTR _this$[ebp]
  010c3	83 c1 04	 add	 ecx, 4
  010c6	e8 00 00 00 00	 call	 ?begin@?$_Tree@V?$_Tmap_traits@PAUHWND__@@UWndMoveData@@U?$less@PAUHWND__@@@std@@V?$allocator@U?$pair@QAUHWND__@@UWndMoveData@@@std@@@4@$0A@@std@@@std@@QAE?AViterator@12@XZ ; std::_Tree<std::_Tmap_traits<HWND__ *,WndMoveData,std::less<HWND__ *>,std::allocator<std::pair<HWND__ * const,WndMoveData> >,0> >::begin
$L188363:

; 315  : 	while(it != m_mapWndMoveData.end())

  010cb	8d 4d d4	 lea	 ecx, DWORD PTR $T189660[ebp]
  010ce	51		 push	 ecx
  010cf	8b 4d fc	 mov	 ecx, DWORD PTR _this$[ebp]
  010d2	83 c1 04	 add	 ecx, 4
  010d5	e8 00 00 00 00	 call	 ?end@?$_Tree@V?$_Tmap_traits@PAUHWND__@@UWndMoveData@@U?$less@PAUHWND__@@@std@@V?$allocator@U?$pair@QAUHWND__@@UWndMoveData@@@std@@@4@$0A@@std@@@std@@QAE?AViterator@12@XZ ; std::_Tree<std::_Tmap_traits<HWND__ *,WndMoveData,std::less<HWND__ *>,std::allocator<std::pair<HWND__ * const,WndMoveData> >,0> >::end
  010da	50		 push	 eax
  010db	8d 4d f4	 lea	 ecx, DWORD PTR _it$[ebp]
  010de	e8 00 00 00 00	 call	 ??9const_iterator@?$_Tree@V?$_Tmap_traits@PAUHWND__@@UWndMoveData@@U?$less@PAUHWND__@@@std@@V?$allocator@U?$pair@QAUHWND__@@UWndMoveData@@@std@@@4@$0A@@std@@@std@@QBE_NABV012@@Z ; std::_Tree<std::_Tmap_traits<HWND__ *,WndMoveData,std::less<HWND__ *>,std::allocator<std::pair<HWND__ * const,WndMoveData> >,0> >::const_iterator::operator!=
  010e3	0f b6 d0	 movzx	 edx, al
  010e6	85 d2		 test	 edx, edx
  010e8	0f 84 fd 00 00
	00		 je	 $L188353

; 316  : 	{
; 317  : 		CRect rc;

  010ee	8d 4d dc	 lea	 ecx, DWORD PTR _rc$188366[ebp]
  010f1	e8 00 00 00 00	 call	 ??0CRect@@QAE@XZ	; CRect::CRect

; 318  : 		if(it->second.nState == STATE_MOVING)

  010f6	8d 4d f4	 lea	 ecx, DWORD PTR _it$[ebp]
  010f9	e8 00 00 00 00	 call	 ??Citerator@?$_Tree@V?$_Tmap_traits@PAUHWND__@@UWndMoveData@@U?$less@PAUHWND__@@@std@@V?$allocator@U?$pair@QAUHWND__@@UWndMoveData@@@std@@@4@$0A@@std@@@std@@QBEPAU?$pair@QAUHWND__@@UWndMoveData@@@2@XZ ; std::_Tree<std::_Tmap_traits<HWND__ *,WndMoveData,std::less<HWND__ *>,std::allocator<std::pair<HWND__ * const,WndMoveData> >,0> >::iterator::operator->
  010fe	83 78 18 00	 cmp	 DWORD PTR [eax+24], 0
  01102	0f 85 d0 00 00
	00		 jne	 $L188367

; 319  : 		{
; 320  : 			rc = it->second.rc;

  01108	8d 4d f4	 lea	 ecx, DWORD PTR _it$[ebp]
  0110b	e8 00 00 00 00	 call	 ??Citerator@?$_Tree@V?$_Tmap_traits@PAUHWND__@@UWndMoveData@@U?$less@PAUHWND__@@@std@@V?$allocator@U?$pair@QAUHWND__@@UWndMoveData@@@std@@@4@$0A@@std@@@std@@QBEPAU?$pair@QAUHWND__@@UWndMoveData@@@2@XZ ; std::_Tree<std::_Tmap_traits<HWND__ *,WndMoveData,std::less<HWND__ *>,std::allocator<std::pair<HWND__ * const,WndMoveData> >,0> >::iterator::operator->
  01110	83 c0 08	 add	 eax, 8
  01113	8b 08		 mov	 ecx, DWORD PTR [eax]
  01115	89 4d dc	 mov	 DWORD PTR _rc$188366[ebp], ecx
  01118	8b 50 04	 mov	 edx, DWORD PTR [eax+4]
  0111b	89 55 e0	 mov	 DWORD PTR _rc$188366[ebp+4], edx
  0111e	8b 48 08	 mov	 ecx, DWORD PTR [eax+8]
  01121	89 4d e4	 mov	 DWORD PTR _rc$188366[ebp+8], ecx
  01124	8b 50 0c	 mov	 edx, DWORD PTR [eax+12]
  01127	89 55 e8	 mov	 DWORD PTR _rc$188366[ebp+12], edx

; 321  : 			if(iDirection & DIRECTION_LEFT)

  0112a	8b 45 10	 mov	 eax, DWORD PTR _iDirection$[ebp]
  0112d	83 e0 01	 and	 eax, 1
  01130	74 1b		 je	 SHORT $L188368

; 322  : 				it->second.rc.left -= deltaX;

  01132	8d 4d f4	 lea	 ecx, DWORD PTR _it$[ebp]
  01135	e8 00 00 00 00	 call	 ??Citerator@?$_Tree@V?$_Tmap_traits@PAUHWND__@@UWndMoveData@@U?$less@PAUHWND__@@@std@@V?$allocator@U?$pair@QAUHWND__@@UWndMoveData@@@std@@@4@$0A@@std@@@std@@QBEPAU?$pair@QAUHWND__@@UWndMoveData@@@2@XZ ; std::_Tree<std::_Tmap_traits<HWND__ *,WndMoveData,std::less<HWND__ *>,std::allocator<std::pair<HWND__ * const,WndMoveData> >,0> >::iterator::operator->
  0113a	83 c0 08	 add	 eax, 8
  0113d	89 45 cc	 mov	 DWORD PTR tv130[ebp], eax
  01140	8b 4d cc	 mov	 ecx, DWORD PTR tv130[ebp]
  01143	8b 11		 mov	 edx, DWORD PTR [ecx]
  01145	2b 55 08	 sub	 edx, DWORD PTR _deltaX$[ebp]
  01148	8b 45 cc	 mov	 eax, DWORD PTR tv130[ebp]
  0114b	89 10		 mov	 DWORD PTR [eax], edx
$L188368:

; 323  : 			if(iDirection & DIRECTION_RIGHT)

  0114d	8b 4d 10	 mov	 ecx, DWORD PTR _iDirection$[ebp]
  01150	83 e1 02	 and	 ecx, 2
  01153	74 1b		 je	 SHORT $L188369

; 324  : 				it->second.rc.right -= deltaX;

  01155	8d 4d f4	 lea	 ecx, DWORD PTR _it$[ebp]
  01158	e8 00 00 00 00	 call	 ??Citerator@?$_Tree@V?$_Tmap_traits@PAUHWND__@@UWndMoveData@@U?$less@PAUHWND__@@@std@@V?$allocator@U?$pair@QAUHWND__@@UWndMoveData@@@std@@@4@$0A@@std@@@std@@QBEPAU?$pair@QAUHWND__@@UWndMoveData@@@2@XZ ; std::_Tree<std::_Tmap_traits<HWND__ *,WndMoveData,std::less<HWND__ *>,std::allocator<std::pair<HWND__ * const,WndMoveData> >,0> >::iterator::operator->
  0115d	83 c0 10	 add	 eax, 16			; 00000010H
  01160	89 45 c8	 mov	 DWORD PTR tv139[ebp], eax
  01163	8b 55 c8	 mov	 edx, DWORD PTR tv139[ebp]
  01166	8b 02		 mov	 eax, DWORD PTR [edx]
  01168	2b 45 08	 sub	 eax, DWORD PTR _deltaX$[ebp]
  0116b	8b 4d c8	 mov	 ecx, DWORD PTR tv139[ebp]
  0116e	89 01		 mov	 DWORD PTR [ecx], eax
$L188369:

; 325  : 			if(iDirection & DIRECTION_TOP)

  01170	8b 55 10	 mov	 edx, DWORD PTR _iDirection$[ebp]
  01173	83 e2 04	 and	 edx, 4
  01176	74 1b		 je	 SHORT $L188370

; 326  : 				it->second.rc.top -= deltaY;

  01178	8d 4d f4	 lea	 ecx, DWORD PTR _it$[ebp]
  0117b	e8 00 00 00 00	 call	 ??Citerator@?$_Tree@V?$_Tmap_traits@PAUHWND__@@UWndMoveData@@U?$less@PAUHWND__@@@std@@V?$allocator@U?$pair@QAUHWND__@@UWndMoveData@@@std@@@4@$0A@@std@@@std@@QBEPAU?$pair@QAUHWND__@@UWndMoveData@@@2@XZ ; std::_Tree<std::_Tmap_traits<HWND__ *,WndMoveData,std::less<HWND__ *>,std::allocator<std::pair<HWND__ * const,WndMoveData> >,0> >::iterator::operator->
  01180	83 c0 0c	 add	 eax, 12			; 0000000cH
  01183	89 45 c4	 mov	 DWORD PTR tv148[ebp], eax
  01186	8b 45 c4	 mov	 eax, DWORD PTR tv148[ebp]
  01189	8b 08		 mov	 ecx, DWORD PTR [eax]
  0118b	2b 4d 0c	 sub	 ecx, DWORD PTR _deltaY$[ebp]
  0118e	8b 55 c4	 mov	 edx, DWORD PTR tv148[ebp]
  01191	89 0a		 mov	 DWORD PTR [edx], ecx
$L188370:

; 327  : 			if(iDirection & DIRECTION_BOTTOM)

  01193	8b 45 10	 mov	 eax, DWORD PTR _iDirection$[ebp]
  01196	83 e0 08	 and	 eax, 8
  01199	74 1b		 je	 SHORT $L188371

; 328  : 				it->second.rc.bottom -= deltaY;

  0119b	8d 4d f4	 lea	 ecx, DWORD PTR _it$[ebp]
  0119e	e8 00 00 00 00	 call	 ??Citerator@?$_Tree@V?$_Tmap_traits@PAUHWND__@@UWndMoveData@@U?$less@PAUHWND__@@@std@@V?$allocator@U?$pair@QAUHWND__@@UWndMoveData@@@std@@@4@$0A@@std@@@std@@QBEPAU?$pair@QAUHWND__@@UWndMoveData@@@2@XZ ; std::_Tree<std::_Tmap_traits<HWND__ *,WndMoveData,std::less<HWND__ *>,std::allocator<std::pair<HWND__ * const,WndMoveData> >,0> >::iterator::operator->
  011a3	83 c0 14	 add	 eax, 20			; 00000014H
  011a6	89 45 c0	 mov	 DWORD PTR tv157[ebp], eax
  011a9	8b 4d c0	 mov	 ecx, DWORD PTR tv157[ebp]
  011ac	8b 11		 mov	 edx, DWORD PTR [ecx]
  011ae	2b 55 0c	 sub	 edx, DWORD PTR _deltaY$[ebp]
  011b1	8b 45 c0	 mov	 eax, DWORD PTR tv157[ebp]
  011b4	89 10		 mov	 DWORD PTR [eax], edx
$L188371:

; 329  : 			//it->second.rc.OffsetRect(-deltaX, -deltaY);
; 330  : 			rc = it->second.rc;

  011b6	8d 4d f4	 lea	 ecx, DWORD PTR _it$[ebp]
  011b9	e8 00 00 00 00	 call	 ??Citerator@?$_Tree@V?$_Tmap_traits@PAUHWND__@@UWndMoveData@@U?$less@PAUHWND__@@@std@@V?$allocator@U?$pair@QAUHWND__@@UWndMoveData@@@std@@@4@$0A@@std@@@std@@QBEPAU?$pair@QAUHWND__@@UWndMoveData@@@2@XZ ; std::_Tree<std::_Tmap_traits<HWND__ *,WndMoveData,std::less<HWND__ *>,std::allocator<std::pair<HWND__ * const,WndMoveData> >,0> >::iterator::operator->
  011be	83 c0 08	 add	 eax, 8
  011c1	8b 08		 mov	 ecx, DWORD PTR [eax]
  011c3	89 4d dc	 mov	 DWORD PTR _rc$188366[ebp], ecx
  011c6	8b 50 04	 mov	 edx, DWORD PTR [eax+4]
  011c9	89 55 e0	 mov	 DWORD PTR _rc$188366[ebp+4], edx
  011cc	8b 48 08	 mov	 ecx, DWORD PTR [eax+8]
  011cf	89 4d e4	 mov	 DWORD PTR _rc$188366[ebp+8], ecx
  011d2	8b 50 0c	 mov	 edx, DWORD PTR [eax+12]
  011d5	89 55 e8	 mov	 DWORD PTR _rc$188366[ebp+12], edx
$L188367:

; 331  : 		}
; 332  : 		it++;

  011d8	6a 00		 push	 0
  011da	8d 45 d0	 lea	 eax, DWORD PTR $T189661[ebp]
  011dd	50		 push	 eax
  011de	8d 4d f4	 lea	 ecx, DWORD PTR _it$[ebp]
  011e1	e8 00 00 00 00	 call	 ??Eiterator@?$_Tree@V?$_Tmap_traits@PAUHWND__@@UWndMoveData@@U?$less@PAUHWND__@@@std@@V?$allocator@U?$pair@QAUHWND__@@UWndMoveData@@@std@@@4@$0A@@std@@@std@@QAE?AV012@H@Z ; std::_Tree<std::_Tmap_traits<HWND__ *,WndMoveData,std::less<HWND__ *>,std::allocator<std::pair<HWND__ * const,WndMoveData> >,0> >::iterator::operator++

; 333  : 	}

  011e6	e9 e0 fe ff ff	 jmp	 $L188363
$L188353:

; 334  : }

  011eb	52		 push	 edx
  011ec	8b cd		 mov	 ecx, ebp
  011ee	50		 push	 eax
  011ef	8d 15 00 00 00
	00		 lea	 edx, DWORD PTR $L189665
  011f5	e8 00 00 00 00	 call	 @_RTC_CheckStackVars@8
  011fa	58		 pop	 eax
  011fb	5a		 pop	 edx
  011fc	5f		 pop	 edi
  011fd	83 c4 40	 add	 esp, 64			; 00000040H
  01200	3b ec		 cmp	 ebp, esp
  01202	e8 00 00 00 00	 call	 __RTC_CheckEsp
  01207	8b e5		 mov	 esp, ebp
  01209	5d		 pop	 ebp
  0120a	c2 0c 00	 ret	 12			; 0000000cH
$L189665:
  0120d	02 00 00 00	 DD	 2
  01211	00 00 00 00	 DD	 $L189664
$L189664:
  01215	f4 ff ff ff	 DD	 -12			; fffffff4H
  01219	04 00 00 00	 DD	 4
  0121d	00 00 00 00	 DD	 $L189662
  01221	dc ff ff ff	 DD	 -36			; ffffffdcH
  01225	10 00 00 00	 DD	 16			; 00000010H
  01229	00 00 00 00	 DD	 $L189663
$L189663:
  0122d	72		 DB	 114			; 00000072H
  0122e	63		 DB	 99			; 00000063H
  0122f	00		 DB	 0
$L189662:
  01230	69		 DB	 105			; 00000069H
  01231	74		 DB	 116			; 00000074H
  01232	00		 DB	 0
?ModifyMovingWndPosAndSize@CWindowsMover@@AAEXHHH@Z ENDP ; CWindowsMover::ModifyMovingWndPosAndSize
; Function compile flags: /Odt /RTCsu
$T189668 = -48						; size = 4
$T189667 = -44						; size = 4
_rc$188390 = -36					; size = 16
_it$ = -12						; size = 4
_this$ = -4						; size = 4
_deltaX$ = 8						; size = 4
_deltaY$ = 12						; size = 4
?ModifyMovingWndPos@CWindowsMover@@AAEXHH@Z PROC NEAR	; CWindowsMover::ModifyMovingWndPos
; _this$ = ecx

; 337  : {

  01240	55		 push	 ebp
  01241	8b ec		 mov	 ebp, esp
  01243	83 ec 30	 sub	 esp, 48			; 00000030H
  01246	57		 push	 edi
  01247	51		 push	 ecx
  01248	8d 7d d0	 lea	 edi, DWORD PTR [ebp-48]
  0124b	b9 0c 00 00 00	 mov	 ecx, 12			; 0000000cH
  01250	b8 cc cc cc cc	 mov	 eax, -858993460		; ccccccccH
  01255	f3 ab		 rep stosd
  01257	59		 pop	 ecx
  01258	89 4d fc	 mov	 DWORD PTR _this$[ebp], ecx

; 338  : 	if(deltaX == 0 && deltaY == 0)

  0125b	83 7d 08 00	 cmp	 DWORD PTR _deltaX$[ebp], 0
  0125f	75 0b		 jne	 SHORT $L188378
  01261	83 7d 0c 00	 cmp	 DWORD PTR _deltaY$[ebp], 0
  01265	75 05		 jne	 SHORT $L188378

; 339  : 		return;

  01267	e9 bd 00 00 00	 jmp	 $L188377
$L188378:

; 340  : 
; 341  : 	map<HWND, WndMoveData>::iterator it = m_mapWndMoveData.begin();

  0126c	8d 45 f4	 lea	 eax, DWORD PTR _it$[ebp]
  0126f	50		 push	 eax
  01270	8b 4d fc	 mov	 ecx, DWORD PTR _this$[ebp]
  01273	83 c1 04	 add	 ecx, 4
  01276	e8 00 00 00 00	 call	 ?begin@?$_Tree@V?$_Tmap_traits@PAUHWND__@@UWndMoveData@@U?$less@PAUHWND__@@@std@@V?$allocator@U?$pair@QAUHWND__@@UWndMoveData@@@std@@@4@$0A@@std@@@std@@QAE?AViterator@12@XZ ; std::_Tree<std::_Tmap_traits<HWND__ *,WndMoveData,std::less<HWND__ *>,std::allocator<std::pair<HWND__ * const,WndMoveData> >,0> >::begin
$L188387:

; 342  : 	while(it != m_mapWndMoveData.end())

  0127b	8d 4d d4	 lea	 ecx, DWORD PTR $T189667[ebp]
  0127e	51		 push	 ecx
  0127f	8b 4d fc	 mov	 ecx, DWORD PTR _this$[ebp]
  01282	83 c1 04	 add	 ecx, 4
  01285	e8 00 00 00 00	 call	 ?end@?$_Tree@V?$_Tmap_traits@PAUHWND__@@UWndMoveData@@U?$less@PAUHWND__@@@std@@V?$allocator@U?$pair@QAUHWND__@@UWndMoveData@@@std@@@4@$0A@@std@@@std@@QAE?AViterator@12@XZ ; std::_Tree<std::_Tmap_traits<HWND__ *,WndMoveData,std::less<HWND__ *>,std::allocator<std::pair<HWND__ * const,WndMoveData> >,0> >::end
  0128a	50		 push	 eax
  0128b	8d 4d f4	 lea	 ecx, DWORD PTR _it$[ebp]
  0128e	e8 00 00 00 00	 call	 ??9const_iterator@?$_Tree@V?$_Tmap_traits@PAUHWND__@@UWndMoveData@@U?$less@PAUHWND__@@@std@@V?$allocator@U?$pair@QAUHWND__@@UWndMoveData@@@std@@@4@$0A@@std@@@std@@QBE_NABV012@@Z ; std::_Tree<std::_Tmap_traits<HWND__ *,WndMoveData,std::less<HWND__ *>,std::allocator<std::pair<HWND__ * const,WndMoveData> >,0> >::const_iterator::operator!=
  01293	0f b6 d0	 movzx	 edx, al
  01296	85 d2		 test	 edx, edx
  01298	0f 84 8b 00 00
	00		 je	 $L188377

; 343  : 	{
; 344  : 		CRect rc;

  0129e	8d 4d dc	 lea	 ecx, DWORD PTR _rc$188390[ebp]
  012a1	e8 00 00 00 00	 call	 ??0CRect@@QAE@XZ	; CRect::CRect

; 345  : 		if(it->second.nState == STATE_MOVING)

  012a6	8d 4d f4	 lea	 ecx, DWORD PTR _it$[ebp]
  012a9	e8 00 00 00 00	 call	 ??Citerator@?$_Tree@V?$_Tmap_traits@PAUHWND__@@UWndMoveData@@U?$less@PAUHWND__@@@std@@V?$allocator@U?$pair@QAUHWND__@@UWndMoveData@@@std@@@4@$0A@@std@@@std@@QBEPAU?$pair@QAUHWND__@@UWndMoveData@@@2@XZ ; std::_Tree<std::_Tmap_traits<HWND__ *,WndMoveData,std::less<HWND__ *>,std::allocator<std::pair<HWND__ * const,WndMoveData> >,0> >::iterator::operator->
  012ae	83 78 18 00	 cmp	 DWORD PTR [eax+24], 0
  012b2	75 62		 jne	 SHORT $L188391

; 346  : 		{
; 347  : 			rc = it->second.rc;

  012b4	8d 4d f4	 lea	 ecx, DWORD PTR _it$[ebp]
  012b7	e8 00 00 00 00	 call	 ??Citerator@?$_Tree@V?$_Tmap_traits@PAUHWND__@@UWndMoveData@@U?$less@PAUHWND__@@@std@@V?$allocator@U?$pair@QAUHWND__@@UWndMoveData@@@std@@@4@$0A@@std@@@std@@QBEPAU?$pair@QAUHWND__@@UWndMoveData@@@2@XZ ; std::_Tree<std::_Tmap_traits<HWND__ *,WndMoveData,std::less<HWND__ *>,std::allocator<std::pair<HWND__ * const,WndMoveData> >,0> >::iterator::operator->
  012bc	83 c0 08	 add	 eax, 8
  012bf	8b 08		 mov	 ecx, DWORD PTR [eax]
  012c1	89 4d dc	 mov	 DWORD PTR _rc$188390[ebp], ecx
  012c4	8b 50 04	 mov	 edx, DWORD PTR [eax+4]
  012c7	89 55 e0	 mov	 DWORD PTR _rc$188390[ebp+4], edx
  012ca	8b 48 08	 mov	 ecx, DWORD PTR [eax+8]
  012cd	89 4d e4	 mov	 DWORD PTR _rc$188390[ebp+8], ecx
  012d0	8b 50 0c	 mov	 edx, DWORD PTR [eax+12]
  012d3	89 55 e8	 mov	 DWORD PTR _rc$188390[ebp+12], edx

; 348  : 			it->second.rc.OffsetRect(-deltaX, -deltaY);

  012d6	8b 45 0c	 mov	 eax, DWORD PTR _deltaY$[ebp]
  012d9	f7 d8		 neg	 eax
  012db	50		 push	 eax
  012dc	8b 4d 08	 mov	 ecx, DWORD PTR _deltaX$[ebp]
  012df	f7 d9		 neg	 ecx
  012e1	51		 push	 ecx
  012e2	8d 4d f4	 lea	 ecx, DWORD PTR _it$[ebp]
  012e5	e8 00 00 00 00	 call	 ??Citerator@?$_Tree@V?$_Tmap_traits@PAUHWND__@@UWndMoveData@@U?$less@PAUHWND__@@@std@@V?$allocator@U?$pair@QAUHWND__@@UWndMoveData@@@std@@@4@$0A@@std@@@std@@QBEPAU?$pair@QAUHWND__@@UWndMoveData@@@2@XZ ; std::_Tree<std::_Tmap_traits<HWND__ *,WndMoveData,std::less<HWND__ *>,std::allocator<std::pair<HWND__ * const,WndMoveData> >,0> >::iterator::operator->
  012ea	83 c0 08	 add	 eax, 8
  012ed	8b c8		 mov	 ecx, eax
  012ef	e8 00 00 00 00	 call	 ?OffsetRect@CRect@@QAEXHH@Z ; CRect::OffsetRect

; 349  : 			rc = it->second.rc;

  012f4	8d 4d f4	 lea	 ecx, DWORD PTR _it$[ebp]
  012f7	e8 00 00 00 00	 call	 ??Citerator@?$_Tree@V?$_Tmap_traits@PAUHWND__@@UWndMoveData@@U?$less@PAUHWND__@@@std@@V?$allocator@U?$pair@QAUHWND__@@UWndMoveData@@@std@@@4@$0A@@std@@@std@@QBEPAU?$pair@QAUHWND__@@UWndMoveData@@@2@XZ ; std::_Tree<std::_Tmap_traits<HWND__ *,WndMoveData,std::less<HWND__ *>,std::allocator<std::pair<HWND__ * const,WndMoveData> >,0> >::iterator::operator->
  012fc	83 c0 08	 add	 eax, 8
  012ff	8b 10		 mov	 edx, DWORD PTR [eax]
  01301	89 55 dc	 mov	 DWORD PTR _rc$188390[ebp], edx
  01304	8b 48 04	 mov	 ecx, DWORD PTR [eax+4]
  01307	89 4d e0	 mov	 DWORD PTR _rc$188390[ebp+4], ecx
  0130a	8b 50 08	 mov	 edx, DWORD PTR [eax+8]
  0130d	89 55 e4	 mov	 DWORD PTR _rc$188390[ebp+8], edx
  01310	8b 40 0c	 mov	 eax, DWORD PTR [eax+12]
  01313	89 45 e8	 mov	 DWORD PTR _rc$188390[ebp+12], eax
$L188391:

; 350  : 		}
; 351  : 		it++;

  01316	6a 00		 push	 0
  01318	8d 4d d0	 lea	 ecx, DWORD PTR $T189668[ebp]
  0131b	51		 push	 ecx
  0131c	8d 4d f4	 lea	 ecx, DWORD PTR _it$[ebp]
  0131f	e8 00 00 00 00	 call	 ??Eiterator@?$_Tree@V?$_Tmap_traits@PAUHWND__@@UWndMoveData@@U?$less@PAUHWND__@@@std@@V?$allocator@U?$pair@QAUHWND__@@UWndMoveData@@@std@@@4@$0A@@std@@@std@@QAE?AV012@H@Z ; std::_Tree<std::_Tmap_traits<HWND__ *,WndMoveData,std::less<HWND__ *>,std::allocator<std::pair<HWND__ * const,WndMoveData> >,0> >::iterator::operator++

; 352  : 	}

  01324	e9 52 ff ff ff	 jmp	 $L188387
$L188377:

; 353  : }

  01329	52		 push	 edx
  0132a	8b cd		 mov	 ecx, ebp
  0132c	50		 push	 eax
  0132d	8d 15 00 00 00
	00		 lea	 edx, DWORD PTR $L189672
  01333	e8 00 00 00 00	 call	 @_RTC_CheckStackVars@8
  01338	58		 pop	 eax
  01339	5a		 pop	 edx
  0133a	5f		 pop	 edi
  0133b	83 c4 30	 add	 esp, 48			; 00000030H
  0133e	3b ec		 cmp	 ebp, esp
  01340	e8 00 00 00 00	 call	 __RTC_CheckEsp
  01345	8b e5		 mov	 esp, ebp
  01347	5d		 pop	 ebp
  01348	c2 08 00	 ret	 8
$L189672:
  0134b	02 00 00 00	 DD	 2
  0134f	00 00 00 00	 DD	 $L189671
$L189671:
  01353	f4 ff ff ff	 DD	 -12			; fffffff4H
  01357	04 00 00 00	 DD	 4
  0135b	00 00 00 00	 DD	 $L189669
  0135f	dc ff ff ff	 DD	 -36			; ffffffdcH
  01363	10 00 00 00	 DD	 16			; 00000010H
  01367	00 00 00 00	 DD	 $L189670
$L189670:
  0136b	72		 DB	 114			; 00000072H
  0136c	63		 DB	 99			; 00000063H
  0136d	00		 DB	 0
$L189669:
  0136e	69		 DB	 105			; 00000069H
  0136f	74		 DB	 116			; 00000074H
  01370	00		 DB	 0
?ModifyMovingWndPos@CWindowsMover@@AAEXHH@Z ENDP	; CWindowsMover::ModifyMovingWndPos
_TEXT	ENDS
PUBLIC	?CalMinDistanceBetweenTwoWindows@CWindowsMover@@AAEXAAUWndMoveData@@0AAH1@Z ; CWindowsMover::CalMinDistanceBetweenTwoWindows
; Function compile flags: /Odt /RTCsu
_TEXT	SEGMENT
_diff$ = -56						; size = 4
_rcS$ = -48						; size = 16
_rcM$ = -24						; size = 16
_this$ = -4						; size = 4
_moving$ = 8						; size = 4
_stand$ = 12						; size = 4
_deltax$ = 16						; size = 4
_deltay$ = 20						; size = 4
?CalMinDistanceBetweenTwoWindows@CWindowsMover@@AAEXAAUWndMoveData@@0AAH1@Z PROC NEAR ; CWindowsMover::CalMinDistanceBetweenTwoWindows
; _this$ = ecx

; 356  : {

  01380	55		 push	 ebp
  01381	8b ec		 mov	 ebp, esp
  01383	83 ec 38	 sub	 esp, 56			; 00000038H
  01386	57		 push	 edi
  01387	51		 push	 ecx
  01388	8d 7d c8	 lea	 edi, DWORD PTR [ebp-56]
  0138b	b9 0e 00 00 00	 mov	 ecx, 14			; 0000000eH
  01390	b8 cc cc cc cc	 mov	 eax, -858993460		; ccccccccH
  01395	f3 ab		 rep stosd
  01397	59		 pop	 ecx
  01398	89 4d fc	 mov	 DWORD PTR _this$[ebp], ecx

; 357  : 	CRect rcM = moving.rc;

  0139b	8b 45 08	 mov	 eax, DWORD PTR _moving$[ebp]
  0139e	83 c0 04	 add	 eax, 4
  013a1	8b 08		 mov	 ecx, DWORD PTR [eax]
  013a3	89 4d e8	 mov	 DWORD PTR _rcM$[ebp], ecx
  013a6	8b 50 04	 mov	 edx, DWORD PTR [eax+4]
  013a9	89 55 ec	 mov	 DWORD PTR _rcM$[ebp+4], edx
  013ac	8b 48 08	 mov	 ecx, DWORD PTR [eax+8]
  013af	89 4d f0	 mov	 DWORD PTR _rcM$[ebp+8], ecx
  013b2	8b 50 0c	 mov	 edx, DWORD PTR [eax+12]
  013b5	89 55 f4	 mov	 DWORD PTR _rcM$[ebp+12], edx

; 358  : 	CRect rcS = stand.rc;

  013b8	8b 45 0c	 mov	 eax, DWORD PTR _stand$[ebp]
  013bb	83 c0 04	 add	 eax, 4
  013be	8b 08		 mov	 ecx, DWORD PTR [eax]
  013c0	89 4d d0	 mov	 DWORD PTR _rcS$[ebp], ecx
  013c3	8b 50 04	 mov	 edx, DWORD PTR [eax+4]
  013c6	89 55 d4	 mov	 DWORD PTR _rcS$[ebp+4], edx
  013c9	8b 48 08	 mov	 ecx, DWORD PTR [eax+8]
  013cc	89 4d d8	 mov	 DWORD PTR _rcS$[ebp+8], ecx
  013cf	8b 50 0c	 mov	 edx, DWORD PTR [eax+12]
  013d2	89 55 dc	 mov	 DWORD PTR _rcS$[ebp+12], edx

; 359  : 
; 360  : 	int  diff;
; 361  : 	//if(	
; 362  : 	//	( rcS.left - STICK_DISTANCE < rcM.left && rcM.left < rcS.right + STICK_DISTANCE )
; 363  : 	//  ||( rcS.left - STICK_DISTANCE < rcM.right && rcM.right < rcS.right + STICK_DISTANCE)
; 364  : 	//  )
; 365  : 	if( !(rcS.right + STICK_DISTANCE < rcM.left || rcS.left - STICK_DISTANCE > rcM.right))

  013d5	8b 45 d8	 mov	 eax, DWORD PTR _rcS$[ebp+8]
  013d8	83 c0 0f	 add	 eax, 15			; 0000000fH
  013db	3b 45 e8	 cmp	 eax, DWORD PTR _rcM$[ebp]
  013de	0f 8c af 00 00
	00		 jl	 $L188403
  013e4	8b 4d d0	 mov	 ecx, DWORD PTR _rcS$[ebp]
  013e7	83 e9 0f	 sub	 ecx, 15			; 0000000fH
  013ea	3b 4d f0	 cmp	 ecx, DWORD PTR _rcM$[ebp+8]
  013ed	0f 8f a0 00 00
	00		 jg	 $L188403

; 366  : 	{
; 367  : 		//|y2-y1|<D
; 368  : 		//top and top
; 369  : 		diff = rcM.top - rcS.top;

  013f3	8b 55 ec	 mov	 edx, DWORD PTR _rcM$[ebp+4]
  013f6	2b 55 d4	 sub	 edx, DWORD PTR _rcS$[ebp+4]
  013f9	89 55 c8	 mov	 DWORD PTR _diff$[ebp], edx

; 370  : 		if(abs(diff)<STICK_DISTANCE && diff != 0)

  013fc	8b 45 c8	 mov	 eax, DWORD PTR _diff$[ebp]
  013ff	50		 push	 eax
  01400	e8 00 00 00 00	 call	 _abs
  01405	83 c4 04	 add	 esp, 4
  01408	83 f8 0f	 cmp	 eax, 15			; 0000000fH
  0140b	7d 0e		 jge	 SHORT $L188404
  0140d	83 7d c8 00	 cmp	 DWORD PTR _diff$[ebp], 0
  01411	74 08		 je	 SHORT $L188404

; 371  : 		{
; 372  : 			deltay = diff;

  01413	8b 4d 14	 mov	 ecx, DWORD PTR _deltay$[ebp]
  01416	8b 55 c8	 mov	 edx, DWORD PTR _diff$[ebp]
  01419	89 11		 mov	 DWORD PTR [ecx], edx
$L188404:

; 373  : 		}
; 374  : 		//top and bottom
; 375  : 		diff=rcM.top-rcS.bottom;

  0141b	8b 45 ec	 mov	 eax, DWORD PTR _rcM$[ebp+4]
  0141e	2b 45 dc	 sub	 eax, DWORD PTR _rcS$[ebp+12]
  01421	89 45 c8	 mov	 DWORD PTR _diff$[ebp], eax

; 376  : 		if(abs(diff)<STICK_DISTANCE && diff != 0)

  01424	8b 4d c8	 mov	 ecx, DWORD PTR _diff$[ebp]
  01427	51		 push	 ecx
  01428	e8 00 00 00 00	 call	 _abs
  0142d	83 c4 04	 add	 esp, 4
  01430	83 f8 0f	 cmp	 eax, 15			; 0000000fH
  01433	7d 0e		 jge	 SHORT $L188405
  01435	83 7d c8 00	 cmp	 DWORD PTR _diff$[ebp], 0
  01439	74 08		 je	 SHORT $L188405

; 377  : 		{
; 378  : 			deltay = diff;

  0143b	8b 55 14	 mov	 edx, DWORD PTR _deltay$[ebp]
  0143e	8b 45 c8	 mov	 eax, DWORD PTR _diff$[ebp]
  01441	89 02		 mov	 DWORD PTR [edx], eax
$L188405:

; 379  : 		}
; 380  : 
; 381  : 		//bottom and top
; 382  : 		diff=rcM.bottom-rcS.top;

  01443	8b 4d f4	 mov	 ecx, DWORD PTR _rcM$[ebp+12]
  01446	2b 4d d4	 sub	 ecx, DWORD PTR _rcS$[ebp+4]
  01449	89 4d c8	 mov	 DWORD PTR _diff$[ebp], ecx

; 383  : 		if(abs(diff)<STICK_DISTANCE && diff != 0)

  0144c	8b 55 c8	 mov	 edx, DWORD PTR _diff$[ebp]
  0144f	52		 push	 edx
  01450	e8 00 00 00 00	 call	 _abs
  01455	83 c4 04	 add	 esp, 4
  01458	83 f8 0f	 cmp	 eax, 15			; 0000000fH
  0145b	7d 0e		 jge	 SHORT $L188406
  0145d	83 7d c8 00	 cmp	 DWORD PTR _diff$[ebp], 0
  01461	74 08		 je	 SHORT $L188406

; 384  : 		{
; 385  : 			deltay = diff;

  01463	8b 45 14	 mov	 eax, DWORD PTR _deltay$[ebp]
  01466	8b 4d c8	 mov	 ecx, DWORD PTR _diff$[ebp]
  01469	89 08		 mov	 DWORD PTR [eax], ecx
$L188406:

; 386  : 		}
; 387  : 
; 388  : 		//bottom and bottom
; 389  : 		diff=rcM.bottom-rcS.bottom;

  0146b	8b 55 f4	 mov	 edx, DWORD PTR _rcM$[ebp+12]
  0146e	2b 55 dc	 sub	 edx, DWORD PTR _rcS$[ebp+12]
  01471	89 55 c8	 mov	 DWORD PTR _diff$[ebp], edx

; 390  : 		if(abs(diff)<STICK_DISTANCE && diff != 0)

  01474	8b 45 c8	 mov	 eax, DWORD PTR _diff$[ebp]
  01477	50		 push	 eax
  01478	e8 00 00 00 00	 call	 _abs
  0147d	83 c4 04	 add	 esp, 4
  01480	83 f8 0f	 cmp	 eax, 15			; 0000000fH
  01483	7d 0e		 jge	 SHORT $L188403
  01485	83 7d c8 00	 cmp	 DWORD PTR _diff$[ebp], 0
  01489	74 08		 je	 SHORT $L188403

; 391  : 		{
; 392  : 			deltay = diff;

  0148b	8b 4d 14	 mov	 ecx, DWORD PTR _deltay$[ebp]
  0148e	8b 55 c8	 mov	 edx, DWORD PTR _diff$[ebp]
  01491	89 11		 mov	 DWORD PTR [ecx], edx
$L188403:

; 393  : 		}
; 394  : 	}
; 395  : 
; 396  : 	if(!(rcS.bottom + STICK_DISTANCE < rcM.top || rcS.top - STICK_DISTANCE > rcM.bottom))

  01493	8b 45 dc	 mov	 eax, DWORD PTR _rcS$[ebp+12]
  01496	83 c0 0f	 add	 eax, 15			; 0000000fH
  01499	3b 45 ec	 cmp	 eax, DWORD PTR _rcM$[ebp+4]
  0149c	0f 8c af 00 00
	00		 jl	 $L188399
  014a2	8b 4d d4	 mov	 ecx, DWORD PTR _rcS$[ebp+4]
  014a5	83 e9 0f	 sub	 ecx, 15			; 0000000fH
  014a8	3b 4d f4	 cmp	 ecx, DWORD PTR _rcM$[ebp+12]
  014ab	0f 8f a0 00 00
	00		 jg	 $L188399

; 397  : 	{
; 398  : 		//|y2-y1|<D
; 399  : 		//left and left
; 400  : 		diff=rcM.left-rcS.left;

  014b1	8b 55 e8	 mov	 edx, DWORD PTR _rcM$[ebp]
  014b4	2b 55 d0	 sub	 edx, DWORD PTR _rcS$[ebp]
  014b7	89 55 c8	 mov	 DWORD PTR _diff$[ebp], edx

; 401  : 		if(abs(diff)<STICK_DISTANCE && diff != 0)

  014ba	8b 45 c8	 mov	 eax, DWORD PTR _diff$[ebp]
  014bd	50		 push	 eax
  014be	e8 00 00 00 00	 call	 _abs
  014c3	83 c4 04	 add	 esp, 4
  014c6	83 f8 0f	 cmp	 eax, 15			; 0000000fH
  014c9	7d 0e		 jge	 SHORT $L188409
  014cb	83 7d c8 00	 cmp	 DWORD PTR _diff$[ebp], 0
  014cf	74 08		 je	 SHORT $L188409

; 402  : 		{
; 403  : 			deltax=diff;

  014d1	8b 4d 10	 mov	 ecx, DWORD PTR _deltax$[ebp]
  014d4	8b 55 c8	 mov	 edx, DWORD PTR _diff$[ebp]
  014d7	89 11		 mov	 DWORD PTR [ecx], edx
$L188409:

; 404  : 		}
; 405  : 
; 406  : 		//left and right
; 407  : 		diff=rcM.left-rcS.right;

  014d9	8b 45 e8	 mov	 eax, DWORD PTR _rcM$[ebp]
  014dc	2b 45 d8	 sub	 eax, DWORD PTR _rcS$[ebp+8]
  014df	89 45 c8	 mov	 DWORD PTR _diff$[ebp], eax

; 408  : 		if(abs(diff)<STICK_DISTANCE && diff != 0)

  014e2	8b 4d c8	 mov	 ecx, DWORD PTR _diff$[ebp]
  014e5	51		 push	 ecx
  014e6	e8 00 00 00 00	 call	 _abs
  014eb	83 c4 04	 add	 esp, 4
  014ee	83 f8 0f	 cmp	 eax, 15			; 0000000fH
  014f1	7d 0e		 jge	 SHORT $L188410
  014f3	83 7d c8 00	 cmp	 DWORD PTR _diff$[ebp], 0
  014f7	74 08		 je	 SHORT $L188410

; 409  : 		{
; 410  : 			deltax=diff;

  014f9	8b 55 10	 mov	 edx, DWORD PTR _deltax$[ebp]
  014fc	8b 45 c8	 mov	 eax, DWORD PTR _diff$[ebp]
  014ff	89 02		 mov	 DWORD PTR [edx], eax
$L188410:

; 411  : 		}
; 412  : 
; 413  : 		//right and left
; 414  : 		diff=rcM.right-rcS.left;

  01501	8b 4d f0	 mov	 ecx, DWORD PTR _rcM$[ebp+8]
  01504	2b 4d d0	 sub	 ecx, DWORD PTR _rcS$[ebp]
  01507	89 4d c8	 mov	 DWORD PTR _diff$[ebp], ecx

; 415  : 		if(abs(diff)<STICK_DISTANCE && diff != 0) 

  0150a	8b 55 c8	 mov	 edx, DWORD PTR _diff$[ebp]
  0150d	52		 push	 edx
  0150e	e8 00 00 00 00	 call	 _abs
  01513	83 c4 04	 add	 esp, 4
  01516	83 f8 0f	 cmp	 eax, 15			; 0000000fH
  01519	7d 0e		 jge	 SHORT $L188411
  0151b	83 7d c8 00	 cmp	 DWORD PTR _diff$[ebp], 0
  0151f	74 08		 je	 SHORT $L188411

; 416  : 		{
; 417  : 			deltax=diff;

  01521	8b 45 10	 mov	 eax, DWORD PTR _deltax$[ebp]
  01524	8b 4d c8	 mov	 ecx, DWORD PTR _diff$[ebp]
  01527	89 08		 mov	 DWORD PTR [eax], ecx
$L188411:

; 418  : 		}
; 419  : 
; 420  : 		//right and right
; 421  : 		diff=rcM.right-rcS.right;

  01529	8b 55 f0	 mov	 edx, DWORD PTR _rcM$[ebp+8]
  0152c	2b 55 d8	 sub	 edx, DWORD PTR _rcS$[ebp+8]
  0152f	89 55 c8	 mov	 DWORD PTR _diff$[ebp], edx

; 422  : 		if(abs(diff)<STICK_DISTANCE && diff != 0)

  01532	8b 45 c8	 mov	 eax, DWORD PTR _diff$[ebp]
  01535	50		 push	 eax
  01536	e8 00 00 00 00	 call	 _abs
  0153b	83 c4 04	 add	 esp, 4
  0153e	83 f8 0f	 cmp	 eax, 15			; 0000000fH
  01541	7d 0e		 jge	 SHORT $L188399
  01543	83 7d c8 00	 cmp	 DWORD PTR _diff$[ebp], 0
  01547	74 08		 je	 SHORT $L188399

; 423  : 		{
; 424  : 			deltax=diff;

  01549	8b 4d 10	 mov	 ecx, DWORD PTR _deltax$[ebp]
  0154c	8b 55 c8	 mov	 edx, DWORD PTR _diff$[ebp]
  0154f	89 11		 mov	 DWORD PTR [ecx], edx
$L188399:

; 425  : 		}
; 426  : 	}
; 427  : }

  01551	52		 push	 edx
  01552	8b cd		 mov	 ecx, ebp
  01554	50		 push	 eax
  01555	8d 15 00 00 00
	00		 lea	 edx, DWORD PTR $L189677
  0155b	e8 00 00 00 00	 call	 @_RTC_CheckStackVars@8
  01560	58		 pop	 eax
  01561	5a		 pop	 edx
  01562	5f		 pop	 edi
  01563	83 c4 38	 add	 esp, 56			; 00000038H
  01566	3b ec		 cmp	 ebp, esp
  01568	e8 00 00 00 00	 call	 __RTC_CheckEsp
  0156d	8b e5		 mov	 esp, ebp
  0156f	5d		 pop	 ebp
  01570	c2 10 00	 ret	 16			; 00000010H
$L189677:
  01573	02 00 00 00	 DD	 2
  01577	00 00 00 00	 DD	 $L189676
$L189676:
  0157b	e8 ff ff ff	 DD	 -24			; ffffffe8H
  0157f	10 00 00 00	 DD	 16			; 00000010H
  01583	00 00 00 00	 DD	 $L189674
  01587	d0 ff ff ff	 DD	 -48			; ffffffd0H
  0158b	10 00 00 00	 DD	 16			; 00000010H
  0158f	00 00 00 00	 DD	 $L189675
$L189675:
  01593	72		 DB	 114			; 00000072H
  01594	63		 DB	 99			; 00000063H
  01595	53		 DB	 83			; 00000053H
  01596	00		 DB	 0
$L189674:
  01597	72		 DB	 114			; 00000072H
  01598	63		 DB	 99			; 00000063H
  01599	4d		 DB	 77			; 0000004dH
  0159a	00		 DB	 0
?CalMinDistanceBetweenTwoWindows@CWindowsMover@@AAEXAAUWndMoveData@@0AAH1@Z ENDP ; CWindowsMover::CalMinDistanceBetweenTwoWindows
; Function compile flags: /Odt /RTCsu
$T189682 = -68						; size = 4
$T189681 = -64						; size = 4
$T189680 = -60						; size = 4
$T189679 = -56						; size = 4
_itStand$188436 = -48					; size = 4
_rc$188429 = -36					; size = 16
_itMoving$ = -12					; size = 4
_this$ = -4						; size = 4
_deltaX$ = 8						; size = 4
_deltaY$ = 12						; size = 4
?CalMinDistance@CWindowsMover@@AAEXAAH0@Z PROC NEAR	; CWindowsMover::CalMinDistance
; _this$ = ecx

; 430  : {

  015a0	55		 push	 ebp
  015a1	8b ec		 mov	 ebp, esp
  015a3	83 ec 44	 sub	 esp, 68			; 00000044H
  015a6	57		 push	 edi
  015a7	51		 push	 ecx
  015a8	8d 7d bc	 lea	 edi, DWORD PTR [ebp-68]
  015ab	b9 11 00 00 00	 mov	 ecx, 17			; 00000011H
  015b0	b8 cc cc cc cc	 mov	 eax, -858993460		; ccccccccH
  015b5	f3 ab		 rep stosd
  015b7	59		 pop	 ecx
  015b8	89 4d fc	 mov	 DWORD PTR _this$[ebp], ecx

; 431  : 	map<HWND, WndMoveData>::iterator itMoving = m_mapWndMoveData.begin();

  015bb	8d 45 f4	 lea	 eax, DWORD PTR _itMoving$[ebp]
  015be	50		 push	 eax
  015bf	8b 4d fc	 mov	 ecx, DWORD PTR _this$[ebp]
  015c2	83 c1 04	 add	 ecx, 4
  015c5	e8 00 00 00 00	 call	 ?begin@?$_Tree@V?$_Tmap_traits@PAUHWND__@@UWndMoveData@@U?$less@PAUHWND__@@@std@@V?$allocator@U?$pair@QAUHWND__@@UWndMoveData@@@std@@@4@$0A@@std@@@std@@QAE?AViterator@12@XZ ; std::_Tree<std::_Tmap_traits<HWND__ *,WndMoveData,std::less<HWND__ *>,std::allocator<std::pair<HWND__ * const,WndMoveData> >,0> >::begin

; 432  : 	deltaX = deltaY = 0;

  015ca	8b 4d 0c	 mov	 ecx, DWORD PTR _deltaY$[ebp]
  015cd	c7 01 00 00 00
	00		 mov	 DWORD PTR [ecx], 0
  015d3	8b 55 08	 mov	 edx, DWORD PTR _deltaX$[ebp]
  015d6	c7 02 00 00 00
	00		 mov	 DWORD PTR [edx], 0
$L188426:

; 433  : 	while(itMoving != m_mapWndMoveData.end())

  015dc	8d 45 c8	 lea	 eax, DWORD PTR $T189679[ebp]
  015df	50		 push	 eax
  015e0	8b 4d fc	 mov	 ecx, DWORD PTR _this$[ebp]
  015e3	83 c1 04	 add	 ecx, 4
  015e6	e8 00 00 00 00	 call	 ?end@?$_Tree@V?$_Tmap_traits@PAUHWND__@@UWndMoveData@@U?$less@PAUHWND__@@@std@@V?$allocator@U?$pair@QAUHWND__@@UWndMoveData@@@std@@@4@$0A@@std@@@std@@QAE?AViterator@12@XZ ; std::_Tree<std::_Tmap_traits<HWND__ *,WndMoveData,std::less<HWND__ *>,std::allocator<std::pair<HWND__ * const,WndMoveData> >,0> >::end
  015eb	50		 push	 eax
  015ec	8d 4d f4	 lea	 ecx, DWORD PTR _itMoving$[ebp]
  015ef	e8 00 00 00 00	 call	 ??9const_iterator@?$_Tree@V?$_Tmap_traits@PAUHWND__@@UWndMoveData@@U?$less@PAUHWND__@@@std@@V?$allocator@U?$pair@QAUHWND__@@UWndMoveData@@@std@@@4@$0A@@std@@@std@@QBE_NABV012@@Z ; std::_Tree<std::_Tmap_traits<HWND__ *,WndMoveData,std::less<HWND__ *>,std::allocator<std::pair<HWND__ * const,WndMoveData> >,0> >::const_iterator::operator!=
  015f4	0f b6 c8	 movzx	 ecx, al
  015f7	85 c9		 test	 ecx, ecx
  015f9	0f 84 9d 00 00
	00		 je	 $L188417

; 434  : 	{
; 435  : 		CRect rc;

  015ff	8d 4d dc	 lea	 ecx, DWORD PTR _rc$188429[ebp]
  01602	e8 00 00 00 00	 call	 ??0CRect@@QAE@XZ	; CRect::CRect

; 436  : 		if(itMoving->second.nState == STATE_MOVING)

  01607	8d 4d f4	 lea	 ecx, DWORD PTR _itMoving$[ebp]
  0160a	e8 00 00 00 00	 call	 ??Citerator@?$_Tree@V?$_Tmap_traits@PAUHWND__@@UWndMoveData@@U?$less@PAUHWND__@@@std@@V?$allocator@U?$pair@QAUHWND__@@UWndMoveData@@@std@@@4@$0A@@std@@@std@@QBEPAU?$pair@QAUHWND__@@UWndMoveData@@@2@XZ ; std::_Tree<std::_Tmap_traits<HWND__ *,WndMoveData,std::less<HWND__ *>,std::allocator<std::pair<HWND__ * const,WndMoveData> >,0> >::iterator::operator->
  0160f	83 78 18 00	 cmp	 DWORD PTR [eax+24], 0
  01613	75 74		 jne	 SHORT $L188430

; 437  : 		{
; 438  : 			map<HWND, WndMoveData>::iterator itStand = m_mapWndMoveData.begin();

  01615	8d 55 d0	 lea	 edx, DWORD PTR _itStand$188436[ebp]
  01618	52		 push	 edx
  01619	8b 4d fc	 mov	 ecx, DWORD PTR _this$[ebp]
  0161c	83 c1 04	 add	 ecx, 4
  0161f	e8 00 00 00 00	 call	 ?begin@?$_Tree@V?$_Tmap_traits@PAUHWND__@@UWndMoveData@@U?$less@PAUHWND__@@@std@@V?$allocator@U?$pair@QAUHWND__@@UWndMoveData@@@std@@@4@$0A@@std@@@std@@QAE?AViterator@12@XZ ; std::_Tree<std::_Tmap_traits<HWND__ *,WndMoveData,std::less<HWND__ *>,std::allocator<std::pair<HWND__ * const,WndMoveData> >,0> >::begin
$L188439:

; 439  : 			while(itStand != m_mapWndMoveData.end())

  01624	8d 45 c4	 lea	 eax, DWORD PTR $T189680[ebp]
  01627	50		 push	 eax
  01628	8b 4d fc	 mov	 ecx, DWORD PTR _this$[ebp]
  0162b	83 c1 04	 add	 ecx, 4
  0162e	e8 00 00 00 00	 call	 ?end@?$_Tree@V?$_Tmap_traits@PAUHWND__@@UWndMoveData@@U?$less@PAUHWND__@@@std@@V?$allocator@U?$pair@QAUHWND__@@UWndMoveData@@@std@@@4@$0A@@std@@@std@@QAE?AViterator@12@XZ ; std::_Tree<std::_Tmap_traits<HWND__ *,WndMoveData,std::less<HWND__ *>,std::allocator<std::pair<HWND__ * const,WndMoveData> >,0> >::end
  01633	50		 push	 eax
  01634	8d 4d d0	 lea	 ecx, DWORD PTR _itStand$188436[ebp]
  01637	e8 00 00 00 00	 call	 ??9const_iterator@?$_Tree@V?$_Tmap_traits@PAUHWND__@@UWndMoveData@@U?$less@PAUHWND__@@@std@@V?$allocator@U?$pair@QAUHWND__@@UWndMoveData@@@std@@@4@$0A@@std@@@std@@QBE_NABV012@@Z ; std::_Tree<std::_Tmap_traits<HWND__ *,WndMoveData,std::less<HWND__ *>,std::allocator<std::pair<HWND__ * const,WndMoveData> >,0> >::const_iterator::operator!=
  0163c	0f b6 c8	 movzx	 ecx, al
  0163f	85 c9		 test	 ecx, ecx
  01641	74 46		 je	 SHORT $L188430

; 440  : 			{
; 441  : 				if(itStand->second.nState == STATE_STAND)

  01643	8d 4d d0	 lea	 ecx, DWORD PTR _itStand$188436[ebp]
  01646	e8 00 00 00 00	 call	 ??Citerator@?$_Tree@V?$_Tmap_traits@PAUHWND__@@UWndMoveData@@U?$less@PAUHWND__@@@std@@V?$allocator@U?$pair@QAUHWND__@@UWndMoveData@@@std@@@4@$0A@@std@@@std@@QBEPAU?$pair@QAUHWND__@@UWndMoveData@@@2@XZ ; std::_Tree<std::_Tmap_traits<HWND__ *,WndMoveData,std::less<HWND__ *>,std::allocator<std::pair<HWND__ * const,WndMoveData> >,0> >::iterator::operator->
  0164b	83 78 18 01	 cmp	 DWORD PTR [eax+24], 1
  0164f	75 28		 jne	 SHORT $L188442

; 442  : 				{
; 443  : 					CalMinDistanceBetweenTwoWindows(itMoving->second, itStand->second, deltaX, deltaY);

  01651	8b 55 0c	 mov	 edx, DWORD PTR _deltaY$[ebp]
  01654	52		 push	 edx
  01655	8b 45 08	 mov	 eax, DWORD PTR _deltaX$[ebp]
  01658	50		 push	 eax
  01659	8d 4d d0	 lea	 ecx, DWORD PTR _itStand$188436[ebp]
  0165c	e8 00 00 00 00	 call	 ??Citerator@?$_Tree@V?$_Tmap_traits@PAUHWND__@@UWndMoveData@@U?$less@PAUHWND__@@@std@@V?$allocator@U?$pair@QAUHWND__@@UWndMoveData@@@std@@@4@$0A@@std@@@std@@QBEPAU?$pair@QAUHWND__@@UWndMoveData@@@2@XZ ; std::_Tree<std::_Tmap_traits<HWND__ *,WndMoveData,std::less<HWND__ *>,std::allocator<std::pair<HWND__ * const,WndMoveData> >,0> >::iterator::operator->
  01661	83 c0 04	 add	 eax, 4
  01664	50		 push	 eax
  01665	8d 4d f4	 lea	 ecx, DWORD PTR _itMoving$[ebp]
  01668	e8 00 00 00 00	 call	 ??Citerator@?$_Tree@V?$_Tmap_traits@PAUHWND__@@UWndMoveData@@U?$less@PAUHWND__@@@std@@V?$allocator@U?$pair@QAUHWND__@@UWndMoveData@@@std@@@4@$0A@@std@@@std@@QBEPAU?$pair@QAUHWND__@@UWndMoveData@@@2@XZ ; std::_Tree<std::_Tmap_traits<HWND__ *,WndMoveData,std::less<HWND__ *>,std::allocator<std::pair<HWND__ * const,WndMoveData> >,0> >::iterator::operator->
  0166d	83 c0 04	 add	 eax, 4
  01670	50		 push	 eax
  01671	8b 4d fc	 mov	 ecx, DWORD PTR _this$[ebp]
  01674	e8 00 00 00 00	 call	 ?CalMinDistanceBetweenTwoWindows@CWindowsMover@@AAEXAAUWndMoveData@@0AAH1@Z ; CWindowsMover::CalMinDistanceBetweenTwoWindows
$L188442:

; 444  : 				}
; 445  : 				itStand ++;

  01679	6a 00		 push	 0
  0167b	8d 4d c0	 lea	 ecx, DWORD PTR $T189681[ebp]
  0167e	51		 push	 ecx
  0167f	8d 4d d0	 lea	 ecx, DWORD PTR _itStand$188436[ebp]
  01682	e8 00 00 00 00	 call	 ??Eiterator@?$_Tree@V?$_Tmap_traits@PAUHWND__@@UWndMoveData@@U?$less@PAUHWND__@@@std@@V?$allocator@U?$pair@QAUHWND__@@UWndMoveData@@@std@@@4@$0A@@std@@@std@@QAE?AV012@H@Z ; std::_Tree<std::_Tmap_traits<HWND__ *,WndMoveData,std::less<HWND__ *>,std::allocator<std::pair<HWND__ * const,WndMoveData> >,0> >::iterator::operator++

; 446  : 			}

  01687	eb 9b		 jmp	 SHORT $L188439
$L188430:

; 447  : 			//it->second.rc.MoveToXY(m_offsetX, m_offsetY);
; 448  : 		}
; 449  : 		itMoving++;

  01689	6a 00		 push	 0
  0168b	8d 55 bc	 lea	 edx, DWORD PTR $T189682[ebp]
  0168e	52		 push	 edx
  0168f	8d 4d f4	 lea	 ecx, DWORD PTR _itMoving$[ebp]
  01692	e8 00 00 00 00	 call	 ??Eiterator@?$_Tree@V?$_Tmap_traits@PAUHWND__@@UWndMoveData@@U?$less@PAUHWND__@@@std@@V?$allocator@U?$pair@QAUHWND__@@UWndMoveData@@@std@@@4@$0A@@std@@@std@@QAE?AV012@H@Z ; std::_Tree<std::_Tmap_traits<HWND__ *,WndMoveData,std::less<HWND__ *>,std::allocator<std::pair<HWND__ * const,WndMoveData> >,0> >::iterator::operator++

; 450  : 	}

  01697	e9 40 ff ff ff	 jmp	 $L188426
$L188417:

; 451  : }

  0169c	52		 push	 edx
  0169d	8b cd		 mov	 ecx, ebp
  0169f	50		 push	 eax
  016a0	8d 15 00 00 00
	00		 lea	 edx, DWORD PTR $L189687
  016a6	e8 00 00 00 00	 call	 @_RTC_CheckStackVars@8
  016ab	58		 pop	 eax
  016ac	5a		 pop	 edx
  016ad	5f		 pop	 edi
  016ae	83 c4 44	 add	 esp, 68			; 00000044H
  016b1	3b ec		 cmp	 ebp, esp
  016b3	e8 00 00 00 00	 call	 __RTC_CheckEsp
  016b8	8b e5		 mov	 esp, ebp
  016ba	5d		 pop	 ebp
  016bb	c2 08 00	 ret	 8
$L189687:
  016be	03 00 00 00	 DD	 3
  016c2	00 00 00 00	 DD	 $L189686
$L189686:
  016c6	f4 ff ff ff	 DD	 -12			; fffffff4H
  016ca	04 00 00 00	 DD	 4
  016ce	00 00 00 00	 DD	 $L189683
  016d2	dc ff ff ff	 DD	 -36			; ffffffdcH
  016d6	10 00 00 00	 DD	 16			; 00000010H
  016da	00 00 00 00	 DD	 $L189684
  016de	d0 ff ff ff	 DD	 -48			; ffffffd0H
  016e2	04 00 00 00	 DD	 4
  016e6	00 00 00 00	 DD	 $L189685
$L189685:
  016ea	69		 DB	 105			; 00000069H
  016eb	74		 DB	 116			; 00000074H
  016ec	53		 DB	 83			; 00000053H
  016ed	74		 DB	 116			; 00000074H
  016ee	61		 DB	 97			; 00000061H
  016ef	6e		 DB	 110			; 0000006eH
  016f0	64		 DB	 100			; 00000064H
  016f1	00		 DB	 0
$L189684:
  016f2	72		 DB	 114			; 00000072H
  016f3	63		 DB	 99			; 00000063H
  016f4	00		 DB	 0
$L189683:
  016f5	69		 DB	 105			; 00000069H
  016f6	74		 DB	 116			; 00000074H
  016f7	4d		 DB	 77			; 0000004dH
  016f8	6f		 DB	 111			; 0000006fH
  016f9	76		 DB	 118			; 00000076H
  016fa	69		 DB	 105			; 00000069H
  016fb	6e		 DB	 110			; 0000006eH
  016fc	67		 DB	 103			; 00000067H
  016fd	00		 DB	 0
?CalMinDistance@CWindowsMover@@AAEXAAH0@Z ENDP		; CWindowsMover::CalMinDistance
_TEXT	ENDS
EXTRN	?PatBlt@CDC@@QAEHHHHHK@Z:NEAR			; CDC::PatBlt
EXTRN	?AfxGetMainWindow@@YAPAVCWnd@@XZ:NEAR		; AfxGetMainWindow
EXTRN	??0CBrush@@QAE@PAVCBitmap@@@Z:NEAR		; CBrush::CBrush
EXTRN	??1CBrush@@UAE@XZ:NEAR				; CBrush::~CBrush
EXTRN	??0CBitmap@@QAE@XZ:NEAR				; CBitmap::CBitmap
EXTRN	?LoadBitmapA@CBitmap@@QAEHI@Z:NEAR		; CBitmap::LoadBitmapA
EXTRN	??0CWindowDC@@QAE@PAVCWnd@@@Z:NEAR		; CWindowDC::CWindowDC
EXTRN	??1CWindowDC@@UAE@XZ:NEAR			; CWindowDC::~CWindowDC
EXTRN	??1CBitmap@@UAE@XZ:NEAR				; CBitmap::~CBitmap
EXTRN	?SelectObject@CDC@@QAEPAVCBrush@@PAV2@@Z:NEAR	; CDC::SelectObject
EXTRN	?GetParent@CWnd@@QBEPAV1@XZ:NEAR		; CWnd::GetParent
xdata$x	SEGMENT
$T189700 DD	0ffffffffH
	DD	FLAT:$L189689
	DD	00H
	DD	FLAT:$L189690
	DD	01H
	DD	FLAT:$L189691
$T189693 DD	019930520H
	DD	03H
	DD	FLAT:$T189700
	DD	2 DUP(00H)
	DD	2 DUP(00H)
; Function compile flags: /Odt /RTCsu
xdata$x	ENDS
_TEXT	SEGMENT
_pOldBrush$ = -84					; size = 4
_brush$ = -76						; size = 8
_bmp$ = -60						; size = 8
_dc$ = -44						; size = 20
_pParentWnd$ = -20					; size = 4
_this$ = -16						; size = 4
__$EHRec$ = -12						; size = 12
_rc$ = 8						; size = 16
?DrawMoveFrame@CWindowsMover@@QAEXVCRect@@@Z PROC NEAR	; CWindowsMover::DrawMoveFrame
; _this$ = ecx

; 454  : {

  01700	55		 push	 ebp
  01701	8b ec		 mov	 ebp, esp
  01703	6a ff		 push	 -1
  01705	68 00 00 00 00	 push	 __ehhandler$?DrawMoveFrame@CWindowsMover@@QAEXVCRect@@@Z
  0170a	64 a1 00 00 00
	00		 mov	 eax, DWORD PTR fs:__except_list
  01710	50		 push	 eax
  01711	64 89 25 00 00
	00 00		 mov	 DWORD PTR fs:__except_list, esp
  01718	83 ec 48	 sub	 esp, 72			; 00000048H
  0171b	57		 push	 edi
  0171c	51		 push	 ecx
  0171d	8d 7d ac	 lea	 edi, DWORD PTR [ebp-84]
  01720	b9 12 00 00 00	 mov	 ecx, 18			; 00000012H
  01725	b8 cc cc cc cc	 mov	 eax, -858993460		; ccccccccH
  0172a	f3 ab		 rep stosd
  0172c	59		 pop	 ecx
  0172d	89 4d f0	 mov	 DWORD PTR _this$[ebp], ecx

; 455  : 	CWnd* pParentWnd = AfxGetMainWindow()->GetParent();

  01730	e8 00 00 00 00	 call	 ?AfxGetMainWindow@@YAPAVCWnd@@XZ ; AfxGetMainWindow
  01735	8b c8		 mov	 ecx, eax
  01737	e8 00 00 00 00	 call	 ?GetParent@CWnd@@QBEPAV1@XZ ; CWnd::GetParent
  0173c	89 45 ec	 mov	 DWORD PTR _pParentWnd$[ebp], eax

; 456  : 	CWindowDC dc(pParentWnd);

  0173f	8b 45 ec	 mov	 eax, DWORD PTR _pParentWnd$[ebp]
  01742	50		 push	 eax
  01743	8d 4d d4	 lea	 ecx, DWORD PTR _dc$[ebp]
  01746	e8 00 00 00 00	 call	 ??0CWindowDC@@QAE@PAVCWnd@@@Z ; CWindowDC::CWindowDC
  0174b	c7 45 fc 00 00
	00 00		 mov	 DWORD PTR __$EHRec$[ebp+8], 0

; 457  : 
; 458  : 
; 459  : 	//CRect rc;
; 460  : 	//this->GetWindowRect(&rc);
; 461  : 	//rc -= rcWin.TopLeft();					 
; 462  : 
; 463  : 	CBitmap bmp;

  01752	8d 4d c4	 lea	 ecx, DWORD PTR _bmp$[ebp]
  01755	e8 00 00 00 00	 call	 ??0CBitmap@@QAE@XZ	; CBitmap::CBitmap
  0175a	c6 45 fc 01	 mov	 BYTE PTR __$EHRec$[ebp+8], 1

; 464  : 
; 465  : 	bmp.LoadBitmap(IDB_FRAME_LINE);

  0175e	68 84 00 00 00	 push	 132			; 00000084H
  01763	8d 4d c4	 lea	 ecx, DWORD PTR _bmp$[ebp]
  01766	e8 00 00 00 00	 call	 ?LoadBitmapA@CBitmap@@QAEHI@Z ; CBitmap::LoadBitmapA

; 466  : 
; 467  : 	CBrush brush(&bmp);

  0176b	8d 4d c4	 lea	 ecx, DWORD PTR _bmp$[ebp]
  0176e	51		 push	 ecx
  0176f	8d 4d b4	 lea	 ecx, DWORD PTR _brush$[ebp]
  01772	e8 00 00 00 00	 call	 ??0CBrush@@QAE@PAVCBitmap@@@Z ; CBrush::CBrush
  01777	c6 45 fc 02	 mov	 BYTE PTR __$EHRec$[ebp+8], 2

; 468  : 	CBrush* pOldBrush = dc.SelectObject(&brush);

  0177b	8d 55 b4	 lea	 edx, DWORD PTR _brush$[ebp]
  0177e	52		 push	 edx
  0177f	8d 4d d4	 lea	 ecx, DWORD PTR _dc$[ebp]
  01782	e8 00 00 00 00	 call	 ?SelectObject@CDC@@QAEPAVCBrush@@PAV2@@Z ; CDC::SelectObject
  01787	89 45 ac	 mov	 DWORD PTR _pOldBrush$[ebp], eax

; 469  : 
; 470  : 	dc.PatBlt(
; 471  : 		rc.left, 
; 472  : 		rc.top, 
; 473  : 		1, 
; 474  : 		rc.Height(), 
; 475  : 		PATINVERT);

  0178a	68 49 00 5a 00	 push	 5898313			; 005a0049H
  0178f	8d 4d 08	 lea	 ecx, DWORD PTR _rc$[ebp]
  01792	e8 00 00 00 00	 call	 ?Height@CRect@@QBEHXZ	; CRect::Height
  01797	50		 push	 eax
  01798	6a 01		 push	 1
  0179a	8b 45 0c	 mov	 eax, DWORD PTR _rc$[ebp+4]
  0179d	50		 push	 eax
  0179e	8b 4d 08	 mov	 ecx, DWORD PTR _rc$[ebp]
  017a1	51		 push	 ecx
  017a2	8d 4d d4	 lea	 ecx, DWORD PTR _dc$[ebp]
  017a5	e8 00 00 00 00	 call	 ?PatBlt@CDC@@QAEHHHHHK@Z ; CDC::PatBlt

; 476  : 
; 477  : 	dc.PatBlt(
; 478  : 		rc.left, 
; 479  : 		rc.top, 
; 480  : 		rc.Width(), 
; 481  : 		1, 
; 482  : 		PATINVERT);

  017aa	68 49 00 5a 00	 push	 5898313			; 005a0049H
  017af	6a 01		 push	 1
  017b1	8d 4d 08	 lea	 ecx, DWORD PTR _rc$[ebp]
  017b4	e8 00 00 00 00	 call	 ?Width@CRect@@QBEHXZ	; CRect::Width
  017b9	50		 push	 eax
  017ba	8b 55 0c	 mov	 edx, DWORD PTR _rc$[ebp+4]
  017bd	52		 push	 edx
  017be	8b 45 08	 mov	 eax, DWORD PTR _rc$[ebp]
  017c1	50		 push	 eax
  017c2	8d 4d d4	 lea	 ecx, DWORD PTR _dc$[ebp]
  017c5	e8 00 00 00 00	 call	 ?PatBlt@CDC@@QAEHHHHHK@Z ; CDC::PatBlt

; 483  : 
; 484  : 	dc.PatBlt(
; 485  : 		rc.left, 
; 486  : 		rc.bottom - 4, 
; 487  : 		rc.Width(), 
; 488  : 		1, 
; 489  : 		PATINVERT);

  017ca	68 49 00 5a 00	 push	 5898313			; 005a0049H
  017cf	6a 01		 push	 1
  017d1	8d 4d 08	 lea	 ecx, DWORD PTR _rc$[ebp]
  017d4	e8 00 00 00 00	 call	 ?Width@CRect@@QBEHXZ	; CRect::Width
  017d9	50		 push	 eax
  017da	8b 4d 14	 mov	 ecx, DWORD PTR _rc$[ebp+12]
  017dd	83 e9 04	 sub	 ecx, 4
  017e0	51		 push	 ecx
  017e1	8b 55 08	 mov	 edx, DWORD PTR _rc$[ebp]
  017e4	52		 push	 edx
  017e5	8d 4d d4	 lea	 ecx, DWORD PTR _dc$[ebp]
  017e8	e8 00 00 00 00	 call	 ?PatBlt@CDC@@QAEHHHHHK@Z ; CDC::PatBlt

; 490  : 
; 491  : 	dc.PatBlt(
; 492  : 		rc.right, 
; 493  : 		rc.top, 
; 494  : 		1, 
; 495  : 		rc.Height(), 
; 496  : 		PATINVERT);

  017ed	68 49 00 5a 00	 push	 5898313			; 005a0049H
  017f2	8d 4d 08	 lea	 ecx, DWORD PTR _rc$[ebp]
  017f5	e8 00 00 00 00	 call	 ?Height@CRect@@QBEHXZ	; CRect::Height
  017fa	50		 push	 eax
  017fb	6a 01		 push	 1
  017fd	8b 45 0c	 mov	 eax, DWORD PTR _rc$[ebp+4]
  01800	50		 push	 eax
  01801	8b 4d 10	 mov	 ecx, DWORD PTR _rc$[ebp+8]
  01804	51		 push	 ecx
  01805	8d 4d d4	 lea	 ecx, DWORD PTR _dc$[ebp]
  01808	e8 00 00 00 00	 call	 ?PatBlt@CDC@@QAEHHHHHK@Z ; CDC::PatBlt

; 497  : 
; 498  : 	dc.SelectObject(pOldBrush);

  0180d	8b 55 ac	 mov	 edx, DWORD PTR _pOldBrush$[ebp]
  01810	52		 push	 edx
  01811	8d 4d d4	 lea	 ecx, DWORD PTR _dc$[ebp]
  01814	e8 00 00 00 00	 call	 ?SelectObject@CDC@@QAEPAVCBrush@@PAV2@@Z ; CDC::SelectObject

; 499  : }

  01819	c6 45 fc 01	 mov	 BYTE PTR __$EHRec$[ebp+8], 1
  0181d	8d 4d b4	 lea	 ecx, DWORD PTR _brush$[ebp]
  01820	e8 00 00 00 00	 call	 ??1CBrush@@UAE@XZ	; CBrush::~CBrush
  01825	c6 45 fc 00	 mov	 BYTE PTR __$EHRec$[ebp+8], 0
  01829	8d 4d c4	 lea	 ecx, DWORD PTR _bmp$[ebp]
  0182c	e8 00 00 00 00	 call	 ??1CBitmap@@UAE@XZ	; CBitmap::~CBitmap
  01831	c7 45 fc ff ff
	ff ff		 mov	 DWORD PTR __$EHRec$[ebp+8], -1
  01838	8d 4d d4	 lea	 ecx, DWORD PTR _dc$[ebp]
  0183b	e8 00 00 00 00	 call	 ??1CWindowDC@@UAE@XZ	; CWindowDC::~CWindowDC
  01840	52		 push	 edx
  01841	8b cd		 mov	 ecx, ebp
  01843	50		 push	 eax
  01844	8d 15 00 00 00
	00		 lea	 edx, DWORD PTR $L189699
  0184a	e8 00 00 00 00	 call	 @_RTC_CheckStackVars@8
  0184f	58		 pop	 eax
  01850	5a		 pop	 edx
  01851	8b 4d f4	 mov	 ecx, DWORD PTR __$EHRec$[ebp]
  01854	64 89 0d 00 00
	00 00		 mov	 DWORD PTR fs:__except_list, ecx
  0185b	5f		 pop	 edi
  0185c	83 c4 54	 add	 esp, 84			; 00000054H
  0185f	3b ec		 cmp	 ebp, esp
  01861	e8 00 00 00 00	 call	 __RTC_CheckEsp
  01866	8b e5		 mov	 esp, ebp
  01868	5d		 pop	 ebp
  01869	c2 10 00	 ret	 16			; 00000010H
$L189699:
  0186c	03 00 00 00	 DD	 3
  01870	00 00 00 00	 DD	 $L189698
$L189698:
  01874	d4 ff ff ff	 DD	 -44			; ffffffd4H
  01878	14 00 00 00	 DD	 20			; 00000014H
  0187c	00 00 00 00	 DD	 $L189694
  01880	c4 ff ff ff	 DD	 -60			; ffffffc4H
  01884	08 00 00 00	 DD	 8
  01888	00 00 00 00	 DD	 $L189695
  0188c	b4 ff ff ff	 DD	 -76			; ffffffb4H
  01890	08 00 00 00	 DD	 8
  01894	00 00 00 00	 DD	 $L189696
$L189696:
  01898	62		 DB	 98			; 00000062H
  01899	72		 DB	 114			; 00000072H
  0189a	75		 DB	 117			; 00000075H
  0189b	73		 DB	 115			; 00000073H
  0189c	68		 DB	 104			; 00000068H
  0189d	00		 DB	 0
$L189695:
  0189e	62		 DB	 98			; 00000062H
  0189f	6d		 DB	 109			; 0000006dH
  018a0	70		 DB	 112			; 00000070H
  018a1	00		 DB	 0
$L189694:
  018a2	64		 DB	 100			; 00000064H
  018a3	63		 DB	 99			; 00000063H
  018a4	00		 DB	 0
_TEXT	ENDS
text$x	SEGMENT
$L189689:
  00027	8d 4d d4	 lea	 ecx, DWORD PTR _dc$[ebp]
  0002a	e9 00 00 00 00	 jmp	 ??1CWindowDC@@UAE@XZ	; CWindowDC::~CWindowDC
$L189690:
  0002f	8d 4d c4	 lea	 ecx, DWORD PTR _bmp$[ebp]
  00032	e9 00 00 00 00	 jmp	 ??1CBitmap@@UAE@XZ	; CBitmap::~CBitmap
$L189691:
  00037	8d 4d b4	 lea	 ecx, DWORD PTR _brush$[ebp]
  0003a	e9 00 00 00 00	 jmp	 ??1CBrush@@UAE@XZ	; CBrush::~CBrush
__ehhandler$?DrawMoveFrame@CWindowsMover@@QAEXVCRect@@@Z:
  0003f	b8 00 00 00 00	 mov	 eax, OFFSET FLAT:$T189693
  00044	e9 00 00 00 00	 jmp	 ___CxxFrameHandler
text$x	ENDS
?DrawMoveFrame@CWindowsMover@@QAEXVCRect@@@Z ENDP	; CWindowsMover::DrawMoveFrame
PUBLIC	??0?$_Tree@V?$_Tmap_traits@PAUHWND__@@UWndMoveData@@U?$less@PAUHWND__@@@std@@V?$allocator@U?$pair@QAUHWND__@@UWndMoveData@@@std@@@4@$0A@@std@@@std@@QAE@ABU?$less@PAUHWND__@@@1@ABV?$allocator@U?$pair@QAUHWND__@@UWndMoveData@@@std@@@1@@Z ; std::_Tree<std::_Tmap_traits<HWND__ *,WndMoveData,std::less<HWND__ *>,std::allocator<std::pair<HWND__ * const,WndMoveData> >,0> >::_Tree<std::_Tmap_traits<HWND__ *,WndMoveData,std::less<HWND__ *>,std::allocator<std::pair<HWND__ * const,WndMoveData> >,0> >
PUBLIC	??0?$allocator@U?$pair@QAUHWND__@@UWndMoveData@@@std@@@std@@QAE@XZ ; std::allocator<std::pair<HWND__ * const,WndMoveData> >::allocator<std::pair<HWND__ * const,WndMoveData> >
; Function compile flags: /Odt /RTCsu
; File d:\program files (x86)\microsoft visual studio .net 2003\vc7\include\map
;	COMDAT ??0?$map@PAUHWND__@@UWndMoveData@@U?$less@PAUHWND__@@@std@@V?$allocator@U?$pair@QAUHWND__@@UWndMoveData@@@std@@@4@@std@@QAE@XZ
_TEXT	SEGMENT
$T189703 = -6						; size = 1
$T189702 = -5						; size = 1
_this$ = -4						; size = 4
??0?$map@PAUHWND__@@UWndMoveData@@U?$less@PAUHWND__@@@std@@V?$allocator@U?$pair@QAUHWND__@@UWndMoveData@@@std@@@4@@std@@QAE@XZ PROC NEAR ; std::map<HWND__ *,WndMoveData,std::less<HWND__ *>,std::allocator<std::pair<HWND__ * const,WndMoveData> > >::map<HWND__ *,WndMoveData,std::less<HWND__ *>,std::allocator<std::pair<HWND__ * const,WndMoveData> > >, COMDAT
; _this$ = ecx

; 102  : 		{	// construct empty map from defaults

  00000	55		 push	 ebp
  00001	8b ec		 mov	 ebp, esp
  00003	83 ec 08	 sub	 esp, 8
  00006	c7 45 f8 cc cc
	cc cc		 mov	 DWORD PTR [ebp-8], -858993460 ; ccccccccH
  0000d	c7 45 fc cc cc
	cc cc		 mov	 DWORD PTR [ebp-4], -858993460 ; ccccccccH
  00014	89 4d fc	 mov	 DWORD PTR _this$[ebp], ecx
  00017	8d 4d fb	 lea	 ecx, DWORD PTR $T189702[ebp]
  0001a	e8 00 00 00 00	 call	 ??0?$allocator@U?$pair@QAUHWND__@@UWndMoveData@@@std@@@std@@QAE@XZ ; std::allocator<std::pair<HWND__ * const,WndMoveData> >::allocator<std::pair<HWND__ * const,WndMoveData> >
  0001f	50		 push	 eax
  00020	8d 45 fa	 lea	 eax, DWORD PTR $T189703[ebp]
  00023	50		 push	 eax
  00024	8b 4d fc	 mov	 ecx, DWORD PTR _this$[ebp]
  00027	e8 00 00 00 00	 call	 ??0?$_Tree@V?$_Tmap_traits@PAUHWND__@@UWndMoveData@@U?$less@PAUHWND__@@@std@@V?$allocator@U?$pair@QAUHWND__@@UWndMoveData@@@std@@@4@$0A@@std@@@std@@QAE@ABU?$less@PAUHWND__@@@1@ABV?$allocator@U?$pair@QAUHWND__@@UWndMoveData@@@std@@@1@@Z ; std::_Tree<std::_Tmap_traits<HWND__ *,WndMoveData,std::less<HWND__ *>,std::allocator<std::pair<HWND__ * const,WndMoveData> >,0> >::_Tree<std::_Tmap_traits<HWND__ *,WndMoveData,std::less<HWND__ *>,std::allocator<std::pair<HWND__ * const,WndMoveData> >,0> >

; 103  : 		}

  0002c	8b 45 fc	 mov	 eax, DWORD PTR _this$[ebp]
  0002f	83 c4 08	 add	 esp, 8
  00032	3b ec		 cmp	 ebp, esp
  00034	e8 00 00 00 00	 call	 __RTC_CheckEsp
  00039	8b e5		 mov	 esp, ebp
  0003b	5d		 pop	 ebp
  0003c	c3		 ret	 0
??0?$map@PAUHWND__@@UWndMoveData@@U?$less@PAUHWND__@@@std@@V?$allocator@U?$pair@QAUHWND__@@UWndMoveData@@@std@@@4@@std@@QAE@XZ ENDP ; std::map<HWND__ *,WndMoveData,std::less<HWND__ *>,std::allocator<std::pair<HWND__ * const,WndMoveData> > >::map<HWND__ *,WndMoveData,std::less<HWND__ *>,std::allocator<std::pair<HWND__ * const,WndMoveData> > >
_TEXT	ENDS
PUBLIC	?_Key@?$_Tree@V?$_Tmap_traits@PAUHWND__@@UWndMoveData@@U?$less@PAUHWND__@@@std@@V?$allocator@U?$pair@QAUHWND__@@UWndMoveData@@@std@@@4@$0A@@std@@@std@@KAABQAUHWND__@@PAU_Node@?$_Tree_nod@V?$_Tmap_traits@PAUHWND__@@UWndMoveData@@U?$less@PAUHWND__@@@std@@V?$allocator@U?$pair@QAUHWND__@@UWndMoveData@@@std@@@4@$0A@@std@@@2@@Z ; std::_Tree<std::_Tmap_traits<HWND__ *,WndMoveData,std::less<HWND__ *>,std::allocator<std::pair<HWND__ * const,WndMoveData> >,0> >::_Key
PUBLIC	?insert@?$_Tree@V?$_Tmap_traits@PAUHWND__@@UWndMoveData@@U?$less@PAUHWND__@@@std@@V?$allocator@U?$pair@QAUHWND__@@UWndMoveData@@@std@@@4@$0A@@std@@@std@@QAE?AViterator@12@V312@ABU?$pair@QAUHWND__@@UWndMoveData@@@2@@Z ; std::_Tree<std::_Tmap_traits<HWND__ *,WndMoveData,std::less<HWND__ *>,std::allocator<std::pair<HWND__ * const,WndMoveData> >,0> >::insert
PUBLIC	?lower_bound@?$_Tree@V?$_Tmap_traits@PAUHWND__@@UWndMoveData@@U?$less@PAUHWND__@@@std@@V?$allocator@U?$pair@QAUHWND__@@UWndMoveData@@@std@@@4@$0A@@std@@@std@@QAE?AViterator@12@ABQAUHWND__@@@Z ; std::_Tree<std::_Tmap_traits<HWND__ *,WndMoveData,std::less<HWND__ *>,std::allocator<std::pair<HWND__ * const,WndMoveData> >,0> >::lower_bound
PUBLIC	??8const_iterator@?$_Tree@V?$_Tmap_traits@PAUHWND__@@UWndMoveData@@U?$less@PAUHWND__@@@std@@V?$allocator@U?$pair@QAUHWND__@@UWndMoveData@@@std@@@4@$0A@@std@@@std@@QBE_NABV012@@Z ; std::_Tree<std::_Tmap_traits<HWND__ *,WndMoveData,std::less<HWND__ *>,std::allocator<std::pair<HWND__ * const,WndMoveData> >,0> >::const_iterator::operator==
PUBLIC	?_Mynode@const_iterator@?$_Tree@V?$_Tmap_traits@PAUHWND__@@UWndMoveData@@U?$less@PAUHWND__@@@std@@V?$allocator@U?$pair@QAUHWND__@@UWndMoveData@@@std@@@4@$0A@@std@@@std@@QBEPAU_Node@?$_Tree_nod@V?$_Tmap_traits@PAUHWND__@@UWndMoveData@@U?$less@PAUHWND__@@@std@@V?$allocator@U?$pair@QAUHWND__@@UWndMoveData@@@std@@@4@$0A@@std@@@3@XZ ; std::_Tree<std::_Tmap_traits<HWND__ *,WndMoveData,std::less<HWND__ *>,std::allocator<std::pair<HWND__ * const,WndMoveData> >,0> >::const_iterator::_Mynode
PUBLIC	??Diterator@?$_Tree@V?$_Tmap_traits@PAUHWND__@@UWndMoveData@@U?$less@PAUHWND__@@@std@@V?$allocator@U?$pair@QAUHWND__@@UWndMoveData@@@std@@@4@$0A@@std@@@std@@QBEAAU?$pair@QAUHWND__@@UWndMoveData@@@2@XZ ; std::_Tree<std::_Tmap_traits<HWND__ *,WndMoveData,std::less<HWND__ *>,std::allocator<std::pair<HWND__ * const,WndMoveData> >,0> >::iterator::operator*
PUBLIC	??R?$less@PAUHWND__@@@std@@QBE_NABQAUHWND__@@0@Z ; std::less<HWND__ *>::operator()
PUBLIC	??0?$pair@QAUHWND__@@UWndMoveData@@@std@@QAE@ABQAUHWND__@@ABUWndMoveData@@@Z ; std::pair<HWND__ * const,WndMoveData>::pair<HWND__ * const,WndMoveData>
; Function compile flags: /Odt /RTCsu
;	COMDAT ??A?$map@PAUHWND__@@UWndMoveData@@U?$less@PAUHWND__@@@std@@V?$allocator@U?$pair@QAUHWND__@@UWndMoveData@@@std@@@4@@std@@QAEAAUWndMoveData@@ABQAUHWND__@@@Z
_TEXT	SEGMENT
$T189709 = -84						; size = 4
$T189708 = -80						; size = 28
$T189707 = -52						; size = 32
$T189706 = -20						; size = 4
__Where$ = -12						; size = 4
_this$ = -4						; size = 4
__Keyval$ = 8						; size = 4
??A?$map@PAUHWND__@@UWndMoveData@@U?$less@PAUHWND__@@@std@@V?$allocator@U?$pair@QAUHWND__@@UWndMoveData@@@std@@@4@@std@@QAEAAUWndMoveData@@ABQAUHWND__@@@Z PROC NEAR ; std::map<HWND__ *,WndMoveData,std::less<HWND__ *>,std::allocator<std::pair<HWND__ * const,WndMoveData> > >::operator[], COMDAT
; _this$ = ecx

; 142  : 		{	// find element matching _Keyval or insert with default mapped

  00000	55		 push	 ebp
  00001	8b ec		 mov	 ebp, esp
  00003	83 ec 54	 sub	 esp, 84			; 00000054H
  00006	57		 push	 edi
  00007	51		 push	 ecx
  00008	8d 7d ac	 lea	 edi, DWORD PTR [ebp-84]
  0000b	b9 15 00 00 00	 mov	 ecx, 21			; 00000015H
  00010	b8 cc cc cc cc	 mov	 eax, -858993460		; ccccccccH
  00015	f3 ab		 rep stosd
  00017	59		 pop	 ecx
  00018	89 4d fc	 mov	 DWORD PTR _this$[ebp], ecx

; 143  : 		iterator _Where = this->lower_bound(_Keyval);

  0001b	8b 45 08	 mov	 eax, DWORD PTR __Keyval$[ebp]
  0001e	50		 push	 eax
  0001f	8d 4d f4	 lea	 ecx, DWORD PTR __Where$[ebp]
  00022	51		 push	 ecx
  00023	8b 4d fc	 mov	 ecx, DWORD PTR _this$[ebp]
  00026	e8 00 00 00 00	 call	 ?lower_bound@?$_Tree@V?$_Tmap_traits@PAUHWND__@@UWndMoveData@@U?$less@PAUHWND__@@@std@@V?$allocator@U?$pair@QAUHWND__@@UWndMoveData@@@std@@@4@$0A@@std@@@std@@QAE?AViterator@12@ABQAUHWND__@@@Z ; std::_Tree<std::_Tmap_traits<HWND__ *,WndMoveData,std::less<HWND__ *>,std::allocator<std::pair<HWND__ * const,WndMoveData> >,0> >::lower_bound

; 144  : 		if (_Where == this->end() || this->comp(_Keyval, this->_Key(_Where._Mynode())))

  0002b	8d 55 ec	 lea	 edx, DWORD PTR $T189706[ebp]
  0002e	52		 push	 edx
  0002f	8b 4d fc	 mov	 ecx, DWORD PTR _this$[ebp]
  00032	e8 00 00 00 00	 call	 ?end@?$_Tree@V?$_Tmap_traits@PAUHWND__@@UWndMoveData@@U?$less@PAUHWND__@@@std@@V?$allocator@U?$pair@QAUHWND__@@UWndMoveData@@@std@@@4@$0A@@std@@@std@@QAE?AViterator@12@XZ ; std::_Tree<std::_Tmap_traits<HWND__ *,WndMoveData,std::less<HWND__ *>,std::allocator<std::pair<HWND__ * const,WndMoveData> >,0> >::end
  00037	50		 push	 eax
  00038	8d 4d f4	 lea	 ecx, DWORD PTR __Where$[ebp]
  0003b	e8 00 00 00 00	 call	 ??8const_iterator@?$_Tree@V?$_Tmap_traits@PAUHWND__@@UWndMoveData@@U?$less@PAUHWND__@@@std@@V?$allocator@U?$pair@QAUHWND__@@UWndMoveData@@@std@@@4@$0A@@std@@@std@@QBE_NABV012@@Z ; std::_Tree<std::_Tmap_traits<HWND__ *,WndMoveData,std::less<HWND__ *>,std::allocator<std::pair<HWND__ * const,WndMoveData> >,0> >::const_iterator::operator==
  00040	0f b6 c0	 movzx	 eax, al
  00043	85 c0		 test	 eax, eax
  00045	75 25		 jne	 SHORT $L188526
  00047	8d 4d f4	 lea	 ecx, DWORD PTR __Where$[ebp]
  0004a	e8 00 00 00 00	 call	 ?_Mynode@const_iterator@?$_Tree@V?$_Tmap_traits@PAUHWND__@@UWndMoveData@@U?$less@PAUHWND__@@@std@@V?$allocator@U?$pair@QAUHWND__@@UWndMoveData@@@std@@@4@$0A@@std@@@std@@QBEPAU_Node@?$_Tree_nod@V?$_Tmap_traits@PAUHWND__@@UWndMoveData@@U?$less@PAUHWND__@@@std@@V?$allocator@U?$pair@QAUHWND__@@UWndMoveData@@@std@@@4@$0A@@std@@@3@XZ ; std::_Tree<std::_Tmap_traits<HWND__ *,WndMoveData,std::less<HWND__ *>,std::allocator<std::pair<HWND__ * const,WndMoveData> >,0> >::const_iterator::_Mynode
  0004f	50		 push	 eax
  00050	e8 00 00 00 00	 call	 ?_Key@?$_Tree@V?$_Tmap_traits@PAUHWND__@@UWndMoveData@@U?$less@PAUHWND__@@@std@@V?$allocator@U?$pair@QAUHWND__@@UWndMoveData@@@std@@@4@$0A@@std@@@std@@KAABQAUHWND__@@PAU_Node@?$_Tree_nod@V?$_Tmap_traits@PAUHWND__@@UWndMoveData@@U?$less@PAUHWND__@@@std@@V?$allocator@U?$pair@QAUHWND__@@UWndMoveData@@@std@@@4@$0A@@std@@@2@@Z ; std::_Tree<std::_Tmap_traits<HWND__ *,WndMoveData,std::less<HWND__ *>,std::allocator<std::pair<HWND__ * const,WndMoveData> >,0> >::_Key
  00055	83 c4 04	 add	 esp, 4
  00058	50		 push	 eax
  00059	8b 4d 08	 mov	 ecx, DWORD PTR __Keyval$[ebp]
  0005c	51		 push	 ecx
  0005d	8b 4d fc	 mov	 ecx, DWORD PTR _this$[ebp]
  00060	e8 00 00 00 00	 call	 ??R?$less@PAUHWND__@@@std@@QBE_NABQAUHWND__@@0@Z ; std::less<HWND__ *>::operator()
  00065	0f b6 d0	 movzx	 edx, al
  00068	85 d2		 test	 edx, edx
  0006a	74 2b		 je	 SHORT $L188525
$L188526:

; 145  : 			_Where = this->insert(_Where,
; 146  : 				value_type(_Keyval, mapped_type()));

  0006c	8d 4d b0	 lea	 ecx, DWORD PTR $T189708[ebp]
  0006f	e8 00 00 00 00	 call	 ??0WndMoveData@@QAE@XZ
  00074	50		 push	 eax
  00075	8b 45 08	 mov	 eax, DWORD PTR __Keyval$[ebp]
  00078	50		 push	 eax
  00079	8d 4d cc	 lea	 ecx, DWORD PTR $T189707[ebp]
  0007c	e8 00 00 00 00	 call	 ??0?$pair@QAUHWND__@@UWndMoveData@@@std@@QAE@ABQAUHWND__@@ABUWndMoveData@@@Z ; std::pair<HWND__ * const,WndMoveData>::pair<HWND__ * const,WndMoveData>
  00081	50		 push	 eax
  00082	8b 4d f4	 mov	 ecx, DWORD PTR __Where$[ebp]
  00085	51		 push	 ecx
  00086	8d 55 ac	 lea	 edx, DWORD PTR $T189709[ebp]
  00089	52		 push	 edx
  0008a	8b 4d fc	 mov	 ecx, DWORD PTR _this$[ebp]
  0008d	e8 00 00 00 00	 call	 ?insert@?$_Tree@V?$_Tmap_traits@PAUHWND__@@UWndMoveData@@U?$less@PAUHWND__@@@std@@V?$allocator@U?$pair@QAUHWND__@@UWndMoveData@@@std@@@4@$0A@@std@@@std@@QAE?AViterator@12@V312@ABU?$pair@QAUHWND__@@UWndMoveData@@@2@@Z ; std::_Tree<std::_Tmap_traits<HWND__ *,WndMoveData,std::less<HWND__ *>,std::allocator<std::pair<HWND__ * const,WndMoveData> >,0> >::insert
  00092	8b 00		 mov	 eax, DWORD PTR [eax]
  00094	89 45 f4	 mov	 DWORD PTR __Where$[ebp], eax
$L188525:

; 147  : 		return ((*_Where).second);

  00097	8d 4d f4	 lea	 ecx, DWORD PTR __Where$[ebp]
  0009a	e8 00 00 00 00	 call	 ??Diterator@?$_Tree@V?$_Tmap_traits@PAUHWND__@@UWndMoveData@@U?$less@PAUHWND__@@@std@@V?$allocator@U?$pair@QAUHWND__@@UWndMoveData@@@std@@@4@$0A@@std@@@std@@QBEAAU?$pair@QAUHWND__@@UWndMoveData@@@2@XZ ; std::_Tree<std::_Tmap_traits<HWND__ *,WndMoveData,std::less<HWND__ *>,std::allocator<std::pair<HWND__ * const,WndMoveData> >,0> >::iterator::operator*
  0009f	83 c0 04	 add	 eax, 4

; 148  : 		}

  000a2	52		 push	 edx
  000a3	8b cd		 mov	 ecx, ebp
  000a5	50		 push	 eax
  000a6	8d 15 00 00 00
	00		 lea	 edx, DWORD PTR $L189712
  000ac	e8 00 00 00 00	 call	 @_RTC_CheckStackVars@8
  000b1	58		 pop	 eax
  000b2	5a		 pop	 edx
  000b3	5f		 pop	 edi
  000b4	83 c4 54	 add	 esp, 84			; 00000054H
  000b7	3b ec		 cmp	 ebp, esp
  000b9	e8 00 00 00 00	 call	 __RTC_CheckEsp
  000be	8b e5		 mov	 esp, ebp
  000c0	5d		 pop	 ebp
  000c1	c2 04 00	 ret	 4
$L189712:
  000c4	01 00 00 00	 DD	 1
  000c8	00 00 00 00	 DD	 $L189711
$L189711:
  000cc	f4 ff ff ff	 DD	 -12			; fffffff4H
  000d0	04 00 00 00	 DD	 4
  000d4	00 00 00 00	 DD	 $L189710
$L189710:
  000d8	5f		 DB	 95			; 0000005fH
  000d9	57		 DB	 87			; 00000057H
  000da	68		 DB	 104			; 00000068H
  000db	65		 DB	 101			; 00000065H
  000dc	72		 DB	 114			; 00000072H
  000dd	65		 DB	 101			; 00000065H
  000de	00		 DB	 0
??A?$map@PAUHWND__@@UWndMoveData@@U?$less@PAUHWND__@@@std@@V?$allocator@U?$pair@QAUHWND__@@UWndMoveData@@@std@@@4@@std@@QAEAAUWndMoveData@@ABQAUHWND__@@@Z ENDP ; std::map<HWND__ *,WndMoveData,std::less<HWND__ *>,std::allocator<std::pair<HWND__ * const,WndMoveData> > >::operator[]
_TEXT	ENDS
PUBLIC	?_Tidy@?$_Tree@V?$_Tmap_traits@PAUHWND__@@UWndMoveData@@U?$less@PAUHWND__@@@std@@V?$allocator@U?$pair@QAUHWND__@@UWndMoveData@@@std@@@4@$0A@@std@@@std@@IAEXXZ ; std::_Tree<std::_Tmap_traits<HWND__ *,WndMoveData,std::less<HWND__ *>,std::allocator<std::pair<HWND__ * const,WndMoveData> >,0> >::_Tidy
; Function compile flags: /Odt /RTCsu
; File d:\program files (x86)\microsoft visual studio .net 2003\vc7\include\xtree
;	COMDAT ??1?$_Tree@V?$_Tmap_traits@PAUHWND__@@UWndMoveData@@U?$less@PAUHWND__@@@std@@V?$allocator@U?$pair@QAUHWND__@@UWndMoveData@@@std@@@4@$0A@@std@@@std@@QAE@XZ
_TEXT	SEGMENT
_this$ = -4						; size = 4
??1?$_Tree@V?$_Tmap_traits@PAUHWND__@@UWndMoveData@@U?$less@PAUHWND__@@@std@@V?$allocator@U?$pair@QAUHWND__@@UWndMoveData@@@std@@@4@$0A@@std@@@std@@QAE@XZ PROC NEAR ; std::_Tree<std::_Tmap_traits<HWND__ *,WndMoveData,std::less<HWND__ *>,std::allocator<std::pair<HWND__ * const,WndMoveData> >,0> >::~_Tree<std::_Tmap_traits<HWND__ *,WndMoveData,std::less<HWND__ *>,std::allocator<std::pair<HWND__ * const,WndMoveData> >,0> >, COMDAT
; _this$ = ecx

; 391  : 		{	// destroy tree

  00000	55		 push	 ebp
  00001	8b ec		 mov	 ebp, esp
  00003	51		 push	 ecx
  00004	c7 45 fc cc cc
	cc cc		 mov	 DWORD PTR [ebp-4], -858993460 ; ccccccccH
  0000b	89 4d fc	 mov	 DWORD PTR _this$[ebp], ecx

; 392  : 		_Tidy();

  0000e	8b 4d fc	 mov	 ecx, DWORD PTR _this$[ebp]
  00011	e8 00 00 00 00	 call	 ?_Tidy@?$_Tree@V?$_Tmap_traits@PAUHWND__@@UWndMoveData@@U?$less@PAUHWND__@@@std@@V?$allocator@U?$pair@QAUHWND__@@UWndMoveData@@@std@@@4@$0A@@std@@@std@@IAEXXZ ; std::_Tree<std::_Tmap_traits<HWND__ *,WndMoveData,std::less<HWND__ *>,std::allocator<std::pair<HWND__ * const,WndMoveData> >,0> >::_Tidy

; 393  : 		}

  00016	83 c4 04	 add	 esp, 4
  00019	3b ec		 cmp	 ebp, esp
  0001b	e8 00 00 00 00	 call	 __RTC_CheckEsp
  00020	8b e5		 mov	 esp, ebp
  00022	5d		 pop	 ebp
  00023	c3		 ret	 0
??1?$_Tree@V?$_Tmap_traits@PAUHWND__@@UWndMoveData@@U?$less@PAUHWND__@@@std@@V?$allocator@U?$pair@QAUHWND__@@UWndMoveData@@@std@@@4@$0A@@std@@@std@@QAE@XZ ENDP ; std::_Tree<std::_Tmap_traits<HWND__ *,WndMoveData,std::less<HWND__ *>,std::allocator<std::pair<HWND__ * const,WndMoveData> >,0> >::~_Tree<std::_Tmap_traits<HWND__ *,WndMoveData,std::less<HWND__ *>,std::allocator<std::pair<HWND__ * const,WndMoveData> >,0> >
_TEXT	ENDS
PUBLIC	?_Lmost@?$_Tree@V?$_Tmap_traits@PAUHWND__@@UWndMoveData@@U?$less@PAUHWND__@@@std@@V?$allocator@U?$pair@QAUHWND__@@UWndMoveData@@@std@@@4@$0A@@std@@@std@@IAEAAPAU_Node@?$_Tree_nod@V?$_Tmap_traits@PAUHWND__@@UWndMoveData@@U?$less@PAUHWND__@@@std@@V?$allocator@U?$pair@QAUHWND__@@UWndMoveData@@@std@@@4@$0A@@std@@@2@XZ ; std::_Tree<std::_Tmap_traits<HWND__ *,WndMoveData,std::less<HWND__ *>,std::allocator<std::pair<HWND__ * const,WndMoveData> >,0> >::_Lmost
PUBLIC	??0iterator@?$_Tree@V?$_Tmap_traits@PAUHWND__@@UWndMoveData@@U?$less@PAUHWND__@@@std@@V?$allocator@U?$pair@QAUHWND__@@UWndMoveData@@@std@@@4@$0A@@std@@@std@@QAE@PAU_Node@?$_Tree_nod@V?$_Tmap_traits@PAUHWND__@@UWndMoveData@@U?$less@PAUHWND__@@@std@@V?$allocator@U?$pair@QAUHWND__@@UWndMoveData@@@std@@@4@$0A@@std@@@2@@Z ; std::_Tree<std::_Tmap_traits<HWND__ *,WndMoveData,std::less<HWND__ *>,std::allocator<std::pair<HWND__ * const,WndMoveData> >,0> >::iterator::iterator
; Function compile flags: /Odt /RTCsu
;	COMDAT ?begin@?$_Tree@V?$_Tmap_traits@PAUHWND__@@UWndMoveData@@U?$less@PAUHWND__@@@std@@V?$allocator@U?$pair@QAUHWND__@@UWndMoveData@@@std@@@4@$0A@@std@@@std@@QAE?AViterator@12@XZ
_TEXT	SEGMENT
_this$ = -4						; size = 4
___$ReturnUdt$ = 8					; size = 4
?begin@?$_Tree@V?$_Tmap_traits@PAUHWND__@@UWndMoveData@@U?$less@PAUHWND__@@@std@@V?$allocator@U?$pair@QAUHWND__@@UWndMoveData@@@std@@@4@$0A@@std@@@std@@QAE?AViterator@12@XZ PROC NEAR ; std::_Tree<std::_Tmap_traits<HWND__ *,WndMoveData,std::less<HWND__ *>,std::allocator<std::pair<HWND__ * const,WndMoveData> >,0> >::begin, COMDAT
; _this$ = ecx

; 407  : 		{	// return iterator for beginning of mutable sequence

  00000	55		 push	 ebp
  00001	8b ec		 mov	 ebp, esp
  00003	51		 push	 ecx
  00004	c7 45 fc cc cc
	cc cc		 mov	 DWORD PTR [ebp-4], -858993460 ; ccccccccH
  0000b	89 4d fc	 mov	 DWORD PTR _this$[ebp], ecx

; 408  : 		return (_TREE_ITERATOR(_Lmost()));

  0000e	8b 4d fc	 mov	 ecx, DWORD PTR _this$[ebp]
  00011	e8 00 00 00 00	 call	 ?_Lmost@?$_Tree@V?$_Tmap_traits@PAUHWND__@@UWndMoveData@@U?$less@PAUHWND__@@@std@@V?$allocator@U?$pair@QAUHWND__@@UWndMoveData@@@std@@@4@$0A@@std@@@std@@IAEAAPAU_Node@?$_Tree_nod@V?$_Tmap_traits@PAUHWND__@@UWndMoveData@@U?$less@PAUHWND__@@@std@@V?$allocator@U?$pair@QAUHWND__@@UWndMoveData@@@std@@@4@$0A@@std@@@2@XZ ; std::_Tree<std::_Tmap_traits<HWND__ *,WndMoveData,std::less<HWND__ *>,std::allocator<std::pair<HWND__ * const,WndMoveData> >,0> >::_Lmost
  00016	8b 00		 mov	 eax, DWORD PTR [eax]
  00018	50		 push	 eax
  00019	8b 4d 08	 mov	 ecx, DWORD PTR ___$ReturnUdt$[ebp]
  0001c	e8 00 00 00 00	 call	 ??0iterator@?$_Tree@V?$_Tmap_traits@PAUHWND__@@UWndMoveData@@U?$less@PAUHWND__@@@std@@V?$allocator@U?$pair@QAUHWND__@@UWndMoveData@@@std@@@4@$0A@@std@@@std@@QAE@PAU_Node@?$_Tree_nod@V?$_Tmap_traits@PAUHWND__@@UWndMoveData@@U?$less@PAUHWND__@@@std@@V?$allocator@U?$pair@QAUHWND__@@UWndMoveData@@@std@@@4@$0A@@std@@@2@@Z ; std::_Tree<std::_Tmap_traits<HWND__ *,WndMoveData,std::less<HWND__ *>,std::allocator<std::pair<HWND__ * const,WndMoveData> >,0> >::iterator::iterator
  00021	8b 45 08	 mov	 eax, DWORD PTR ___$ReturnUdt$[ebp]

; 409  : 		}

  00024	83 c4 04	 add	 esp, 4
  00027	3b ec		 cmp	 ebp, esp
  00029	e8 00 00 00 00	 call	 __RTC_CheckEsp
  0002e	8b e5		 mov	 esp, ebp
  00030	5d		 pop	 ebp
  00031	c2 04 00	 ret	 4
?begin@?$_Tree@V?$_Tmap_traits@PAUHWND__@@UWndMoveData@@U?$less@PAUHWND__@@@std@@V?$allocator@U?$pair@QAUHWND__@@UWndMoveData@@@std@@@4@$0A@@std@@@std@@QAE?AViterator@12@XZ ENDP ; std::_Tree<std::_Tmap_traits<HWND__ *,WndMoveData,std::less<HWND__ *>,std::allocator<std::pair<HWND__ * const,WndMoveData> >,0> >::begin
; Function compile flags: /Odt /RTCsu
_TEXT	ENDS
;	COMDAT ?end@?$_Tree@V?$_Tmap_traits@PAUHWND__@@UWndMoveData@@U?$less@PAUHWND__@@@std@@V?$allocator@U?$pair@QAUHWND__@@UWndMoveData@@@std@@@4@$0A@@std@@@std@@QAE?AViterator@12@XZ
_TEXT	SEGMENT
_this$ = -4						; size = 4
___$ReturnUdt$ = 8					; size = 4
?end@?$_Tree@V?$_Tmap_traits@PAUHWND__@@UWndMoveData@@U?$less@PAUHWND__@@@std@@V?$allocator@U?$pair@QAUHWND__@@UWndMoveData@@@std@@@4@$0A@@std@@@std@@QAE?AViterator@12@XZ PROC NEAR ; std::_Tree<std::_Tmap_traits<HWND__ *,WndMoveData,std::less<HWND__ *>,std::allocator<std::pair<HWND__ * const,WndMoveData> >,0> >::end, COMDAT
; _this$ = ecx

; 417  : 		{	// return iterator for end of mutable sequence

  00000	55		 push	 ebp
  00001	8b ec		 mov	 ebp, esp
  00003	51		 push	 ecx
  00004	c7 45 fc cc cc
	cc cc		 mov	 DWORD PTR [ebp-4], -858993460 ; ccccccccH
  0000b	89 4d fc	 mov	 DWORD PTR _this$[ebp], ecx

; 418  : 		return (_TREE_ITERATOR(_Myhead));

  0000e	8b 45 fc	 mov	 eax, DWORD PTR _this$[ebp]
  00011	8b 48 04	 mov	 ecx, DWORD PTR [eax+4]
  00014	51		 push	 ecx
  00015	8b 4d 08	 mov	 ecx, DWORD PTR ___$ReturnUdt$[ebp]
  00018	e8 00 00 00 00	 call	 ??0iterator@?$_Tree@V?$_Tmap_traits@PAUHWND__@@UWndMoveData@@U?$less@PAUHWND__@@@std@@V?$allocator@U?$pair@QAUHWND__@@UWndMoveData@@@std@@@4@$0A@@std@@@std@@QAE@PAU_Node@?$_Tree_nod@V?$_Tmap_traits@PAUHWND__@@UWndMoveData@@U?$less@PAUHWND__@@@std@@V?$allocator@U?$pair@QAUHWND__@@UWndMoveData@@@std@@@4@$0A@@std@@@2@@Z ; std::_Tree<std::_Tmap_traits<HWND__ *,WndMoveData,std::less<HWND__ *>,std::allocator<std::pair<HWND__ * const,WndMoveData> >,0> >::iterator::iterator
  0001d	8b 45 08	 mov	 eax, DWORD PTR ___$ReturnUdt$[ebp]

; 419  : 		}

  00020	83 c4 04	 add	 esp, 4
  00023	3b ec		 cmp	 ebp, esp
  00025	e8 00 00 00 00	 call	 __RTC_CheckEsp
  0002a	8b e5		 mov	 esp, ebp
  0002c	5d		 pop	 ebp
  0002d	c2 04 00	 ret	 4
?end@?$_Tree@V?$_Tmap_traits@PAUHWND__@@UWndMoveData@@U?$less@PAUHWND__@@@std@@V?$allocator@U?$pair@QAUHWND__@@UWndMoveData@@@std@@@4@$0A@@std@@@std@@QAE?AViterator@12@XZ ENDP ; std::_Tree<std::_Tmap_traits<HWND__ *,WndMoveData,std::less<HWND__ *>,std::allocator<std::pair<HWND__ * const,WndMoveData> >,0> >::end
_TEXT	ENDS
PUBLIC	?_Erase@?$_Tree@V?$_Tmap_traits@PAUHWND__@@UWndMoveData@@U?$less@PAUHWND__@@@std@@V?$allocator@U?$pair@QAUHWND__@@UWndMoveData@@@std@@@4@$0A@@std@@@std@@IAEXPAU_Node@?$_Tree_nod@V?$_Tmap_traits@PAUHWND__@@UWndMoveData@@U?$less@PAUHWND__@@@std@@V?$allocator@U?$pair@QAUHWND__@@UWndMoveData@@@std@@@4@$0A@@std@@@2@@Z ; std::_Tree<std::_Tmap_traits<HWND__ *,WndMoveData,std::less<HWND__ *>,std::allocator<std::pair<HWND__ * const,WndMoveData> >,0> >::_Erase
PUBLIC	?_Rmost@?$_Tree@V?$_Tmap_traits@PAUHWND__@@UWndMoveData@@U?$less@PAUHWND__@@@std@@V?$allocator@U?$pair@QAUHWND__@@UWndMoveData@@@std@@@4@$0A@@std@@@std@@IAEAAPAU_Node@?$_Tree_nod@V?$_Tmap_traits@PAUHWND__@@UWndMoveData@@U?$less@PAUHWND__@@@std@@V?$allocator@U?$pair@QAUHWND__@@UWndMoveData@@@std@@@4@$0A@@std@@@2@XZ ; std::_Tree<std::_Tmap_traits<HWND__ *,WndMoveData,std::less<HWND__ *>,std::allocator<std::pair<HWND__ * const,WndMoveData> >,0> >::_Rmost
PUBLIC	?_Root@?$_Tree@V?$_Tmap_traits@PAUHWND__@@UWndMoveData@@U?$less@PAUHWND__@@@std@@V?$allocator@U?$pair@QAUHWND__@@UWndMoveData@@@std@@@4@$0A@@std@@@std@@IAEAAPAU_Node@?$_Tree_nod@V?$_Tmap_traits@PAUHWND__@@UWndMoveData@@U?$less@PAUHWND__@@@std@@V?$allocator@U?$pair@QAUHWND__@@UWndMoveData@@@std@@@4@$0A@@std@@@2@XZ ; std::_Tree<std::_Tmap_traits<HWND__ *,WndMoveData,std::less<HWND__ *>,std::allocator<std::pair<HWND__ * const,WndMoveData> >,0> >::_Root
; Function compile flags: /Odt /RTCsu
;	COMDAT ?clear@?$_Tree@V?$_Tmap_traits@PAUHWND__@@UWndMoveData@@U?$less@PAUHWND__@@@std@@V?$allocator@U?$pair@QAUHWND__@@UWndMoveData@@@std@@@4@$0A@@std@@@std@@QAEXXZ
_TEXT	SEGMENT
_this$ = -4						; size = 4
?clear@?$_Tree@V?$_Tmap_traits@PAUHWND__@@UWndMoveData@@U?$less@PAUHWND__@@@std@@V?$allocator@U?$pair@QAUHWND__@@UWndMoveData@@@std@@@4@$0A@@std@@@std@@QAEXXZ PROC NEAR ; std::_Tree<std::_Tmap_traits<HWND__ *,WndMoveData,std::less<HWND__ *>,std::allocator<std::pair<HWND__ * const,WndMoveData> >,0> >::clear, COMDAT
; _this$ = ecx

; 780  : 		{	// erase all

  00000	55		 push	 ebp
  00001	8b ec		 mov	 ebp, esp
  00003	51		 push	 ecx
  00004	c7 45 fc cc cc
	cc cc		 mov	 DWORD PTR [ebp-4], -858993460 ; ccccccccH
  0000b	89 4d fc	 mov	 DWORD PTR _this$[ebp], ecx

; 781  : 		_Erase(_Root());

  0000e	8b 4d fc	 mov	 ecx, DWORD PTR _this$[ebp]
  00011	e8 00 00 00 00	 call	 ?_Root@?$_Tree@V?$_Tmap_traits@PAUHWND__@@UWndMoveData@@U?$less@PAUHWND__@@@std@@V?$allocator@U?$pair@QAUHWND__@@UWndMoveData@@@std@@@4@$0A@@std@@@std@@IAEAAPAU_Node@?$_Tree_nod@V?$_Tmap_traits@PAUHWND__@@UWndMoveData@@U?$less@PAUHWND__@@@std@@V?$allocator@U?$pair@QAUHWND__@@UWndMoveData@@@std@@@4@$0A@@std@@@2@XZ ; std::_Tree<std::_Tmap_traits<HWND__ *,WndMoveData,std::less<HWND__ *>,std::allocator<std::pair<HWND__ * const,WndMoveData> >,0> >::_Root
  00016	8b 00		 mov	 eax, DWORD PTR [eax]
  00018	50		 push	 eax
  00019	8b 4d fc	 mov	 ecx, DWORD PTR _this$[ebp]
  0001c	e8 00 00 00 00	 call	 ?_Erase@?$_Tree@V?$_Tmap_traits@PAUHWND__@@UWndMoveData@@U?$less@PAUHWND__@@@std@@V?$allocator@U?$pair@QAUHWND__@@UWndMoveData@@@std@@@4@$0A@@std@@@std@@IAEXPAU_Node@?$_Tree_nod@V?$_Tmap_traits@PAUHWND__@@UWndMoveData@@U?$less@PAUHWND__@@@std@@V?$allocator@U?$pair@QAUHWND__@@UWndMoveData@@@std@@@4@$0A@@std@@@2@@Z ; std::_Tree<std::_Tmap_traits<HWND__ *,WndMoveData,std::less<HWND__ *>,std::allocator<std::pair<HWND__ * const,WndMoveData> >,0> >::_Erase

; 782  : 		_Root() = _Myhead, _Mysize = 0;

  00021	8b 4d fc	 mov	 ecx, DWORD PTR _this$[ebp]
  00024	e8 00 00 00 00	 call	 ?_Root@?$_Tree@V?$_Tmap_traits@PAUHWND__@@UWndMoveData@@U?$less@PAUHWND__@@@std@@V?$allocator@U?$pair@QAUHWND__@@UWndMoveData@@@std@@@4@$0A@@std@@@std@@IAEAAPAU_Node@?$_Tree_nod@V?$_Tmap_traits@PAUHWND__@@UWndMoveData@@U?$less@PAUHWND__@@@std@@V?$allocator@U?$pair@QAUHWND__@@UWndMoveData@@@std@@@4@$0A@@std@@@2@XZ ; std::_Tree<std::_Tmap_traits<HWND__ *,WndMoveData,std::less<HWND__ *>,std::allocator<std::pair<HWND__ * const,WndMoveData> >,0> >::_Root
  00029	8b 4d fc	 mov	 ecx, DWORD PTR _this$[ebp]
  0002c	8b 51 04	 mov	 edx, DWORD PTR [ecx+4]
  0002f	89 10		 mov	 DWORD PTR [eax], edx
  00031	8b 45 fc	 mov	 eax, DWORD PTR _this$[ebp]
  00034	c7 40 08 00 00
	00 00		 mov	 DWORD PTR [eax+8], 0

; 783  : 		_Lmost() = _Myhead, _Rmost() = _Myhead;

  0003b	8b 4d fc	 mov	 ecx, DWORD PTR _this$[ebp]
  0003e	e8 00 00 00 00	 call	 ?_Lmost@?$_Tree@V?$_Tmap_traits@PAUHWND__@@UWndMoveData@@U?$less@PAUHWND__@@@std@@V?$allocator@U?$pair@QAUHWND__@@UWndMoveData@@@std@@@4@$0A@@std@@@std@@IAEAAPAU_Node@?$_Tree_nod@V?$_Tmap_traits@PAUHWND__@@UWndMoveData@@U?$less@PAUHWND__@@@std@@V?$allocator@U?$pair@QAUHWND__@@UWndMoveData@@@std@@@4@$0A@@std@@@2@XZ ; std::_Tree<std::_Tmap_traits<HWND__ *,WndMoveData,std::less<HWND__ *>,std::allocator<std::pair<HWND__ * const,WndMoveData> >,0> >::_Lmost
  00043	8b 4d fc	 mov	 ecx, DWORD PTR _this$[ebp]
  00046	8b 51 04	 mov	 edx, DWORD PTR [ecx+4]
  00049	89 10		 mov	 DWORD PTR [eax], edx
  0004b	8b 4d fc	 mov	 ecx, DWORD PTR _this$[ebp]
  0004e	e8 00 00 00 00	 call	 ?_Rmost@?$_Tree@V?$_Tmap_traits@PAUHWND__@@UWndMoveData@@U?$less@PAUHWND__@@@std@@V?$allocator@U?$pair@QAUHWND__@@UWndMoveData@@@std@@@4@$0A@@std@@@std@@IAEAAPAU_Node@?$_Tree_nod@V?$_Tmap_traits@PAUHWND__@@UWndMoveData@@U?$less@PAUHWND__@@@std@@V?$allocator@U?$pair@QAUHWND__@@UWndMoveData@@@std@@@4@$0A@@std@@@2@XZ ; std::_Tree<std::_Tmap_traits<HWND__ *,WndMoveData,std::less<HWND__ *>,std::allocator<std::pair<HWND__ * const,WndMoveData> >,0> >::_Rmost
  00053	8b 4d fc	 mov	 ecx, DWORD PTR _this$[ebp]
  00056	8b 51 04	 mov	 edx, DWORD PTR [ecx+4]
  00059	89 10		 mov	 DWORD PTR [eax], edx

; 784  : 		}

  0005b	83 c4 04	 add	 esp, 4
  0005e	3b ec		 cmp	 ebp, esp
  00060	e8 00 00 00 00	 call	 __RTC_CheckEsp
  00065	8b e5		 mov	 esp, ebp
  00067	5d		 pop	 ebp
  00068	c3		 ret	 0
?clear@?$_Tree@V?$_Tmap_traits@PAUHWND__@@UWndMoveData@@U?$less@PAUHWND__@@@std@@V?$allocator@U?$pair@QAUHWND__@@UWndMoveData@@@std@@@4@$0A@@std@@@std@@QAEXXZ ENDP ; std::_Tree<std::_Tmap_traits<HWND__ *,WndMoveData,std::less<HWND__ *>,std::allocator<std::pair<HWND__ * const,WndMoveData> >,0> >::clear
_TEXT	ENDS
PUBLIC	??0const_iterator@?$_Tree@V?$_Tmap_traits@PAUHWND__@@UWndMoveData@@U?$less@PAUHWND__@@@std@@V?$allocator@U?$pair@QAUHWND__@@UWndMoveData@@@std@@@4@$0A@@std@@@std@@QAE@XZ ; std::_Tree<std::_Tmap_traits<HWND__ *,WndMoveData,std::less<HWND__ *>,std::allocator<std::pair<HWND__ * const,WndMoveData> >,0> >::const_iterator::const_iterator
; Function compile flags: /Odt /RTCsu
;	COMDAT ??0iterator@?$_Tree@V?$_Tmap_traits@PAUHWND__@@UWndMoveData@@U?$less@PAUHWND__@@@std@@V?$allocator@U?$pair@QAUHWND__@@UWndMoveData@@@std@@@4@$0A@@std@@@std@@QAE@XZ
_TEXT	SEGMENT
_this$ = -4						; size = 4
??0iterator@?$_Tree@V?$_Tmap_traits@PAUHWND__@@UWndMoveData@@U?$less@PAUHWND__@@@std@@V?$allocator@U?$pair@QAUHWND__@@UWndMoveData@@@std@@@4@$0A@@std@@@std@@QAE@XZ PROC NEAR ; std::_Tree<std::_Tmap_traits<HWND__ *,WndMoveData,std::less<HWND__ *>,std::allocator<std::pair<HWND__ * const,WndMoveData> >,0> >::iterator::iterator, COMDAT
; _this$ = ecx

; 304  : 		iterator()

  00000	55		 push	 ebp
  00001	8b ec		 mov	 ebp, esp
  00003	51		 push	 ecx
  00004	c7 45 fc cc cc
	cc cc		 mov	 DWORD PTR [ebp-4], -858993460 ; ccccccccH
  0000b	89 4d fc	 mov	 DWORD PTR _this$[ebp], ecx
  0000e	8b 4d fc	 mov	 ecx, DWORD PTR _this$[ebp]
  00011	e8 00 00 00 00	 call	 ??0const_iterator@?$_Tree@V?$_Tmap_traits@PAUHWND__@@UWndMoveData@@U?$less@PAUHWND__@@@std@@V?$allocator@U?$pair@QAUHWND__@@UWndMoveData@@@std@@@4@$0A@@std@@@std@@QAE@XZ ; std::_Tree<std::_Tmap_traits<HWND__ *,WndMoveData,std::less<HWND__ *>,std::allocator<std::pair<HWND__ * const,WndMoveData> >,0> >::const_iterator::const_iterator

; 305  : 			{	// construct with null node pointer
; 306  : 			}

  00016	8b 45 fc	 mov	 eax, DWORD PTR _this$[ebp]
  00019	83 c4 04	 add	 esp, 4
  0001c	3b ec		 cmp	 ebp, esp
  0001e	e8 00 00 00 00	 call	 __RTC_CheckEsp
  00023	8b e5		 mov	 esp, ebp
  00025	5d		 pop	 ebp
  00026	c3		 ret	 0
??0iterator@?$_Tree@V?$_Tmap_traits@PAUHWND__@@UWndMoveData@@U?$less@PAUHWND__@@@std@@V?$allocator@U?$pair@QAUHWND__@@UWndMoveData@@@std@@@4@$0A@@std@@@std@@QAE@XZ ENDP ; std::_Tree<std::_Tmap_traits<HWND__ *,WndMoveData,std::less<HWND__ *>,std::allocator<std::pair<HWND__ * const,WndMoveData> >,0> >::iterator::iterator
; Function compile flags: /Odt /RTCsu
_TEXT	ENDS
;	COMDAT ??Citerator@?$_Tree@V?$_Tmap_traits@PAUHWND__@@UWndMoveData@@U?$less@PAUHWND__@@@std@@V?$allocator@U?$pair@QAUHWND__@@UWndMoveData@@@std@@@4@$0A@@std@@@std@@QBEPAU?$pair@QAUHWND__@@UWndMoveData@@@2@XZ
_TEXT	SEGMENT
_this$ = -4						; size = 4
??Citerator@?$_Tree@V?$_Tmap_traits@PAUHWND__@@UWndMoveData@@U?$less@PAUHWND__@@@std@@V?$allocator@U?$pair@QAUHWND__@@UWndMoveData@@@std@@@4@$0A@@std@@@std@@QBEPAU?$pair@QAUHWND__@@UWndMoveData@@@2@XZ PROC NEAR ; std::_Tree<std::_Tmap_traits<HWND__ *,WndMoveData,std::less<HWND__ *>,std::allocator<std::pair<HWND__ * const,WndMoveData> >,0> >::iterator::operator->, COMDAT
; _this$ = ecx

; 321  : 			{	// return pointer to class object

  00000	55		 push	 ebp
  00001	8b ec		 mov	 ebp, esp
  00003	51		 push	 ecx
  00004	c7 45 fc cc cc
	cc cc		 mov	 DWORD PTR [ebp-4], -858993460 ; ccccccccH
  0000b	89 4d fc	 mov	 DWORD PTR _this$[ebp], ecx

; 322  : 			return (&**this);

  0000e	8b 4d fc	 mov	 ecx, DWORD PTR _this$[ebp]
  00011	e8 00 00 00 00	 call	 ??Diterator@?$_Tree@V?$_Tmap_traits@PAUHWND__@@UWndMoveData@@U?$less@PAUHWND__@@@std@@V?$allocator@U?$pair@QAUHWND__@@UWndMoveData@@@std@@@4@$0A@@std@@@std@@QBEAAU?$pair@QAUHWND__@@UWndMoveData@@@2@XZ ; std::_Tree<std::_Tmap_traits<HWND__ *,WndMoveData,std::less<HWND__ *>,std::allocator<std::pair<HWND__ * const,WndMoveData> >,0> >::iterator::operator*

; 323  : 			}

  00016	83 c4 04	 add	 esp, 4
  00019	3b ec		 cmp	 ebp, esp
  0001b	e8 00 00 00 00	 call	 __RTC_CheckEsp
  00020	8b e5		 mov	 esp, ebp
  00022	5d		 pop	 ebp
  00023	c3		 ret	 0
??Citerator@?$_Tree@V?$_Tmap_traits@PAUHWND__@@UWndMoveData@@U?$less@PAUHWND__@@@std@@V?$allocator@U?$pair@QAUHWND__@@UWndMoveData@@@std@@@4@$0A@@std@@@std@@QBEPAU?$pair@QAUHWND__@@UWndMoveData@@@2@XZ ENDP ; std::_Tree<std::_Tmap_traits<HWND__ *,WndMoveData,std::less<HWND__ *>,std::allocator<std::pair<HWND__ * const,WndMoveData> >,0> >::iterator::operator->
_TEXT	ENDS
PUBLIC	??Eiterator@?$_Tree@V?$_Tmap_traits@PAUHWND__@@UWndMoveData@@U?$less@PAUHWND__@@@std@@V?$allocator@U?$pair@QAUHWND__@@UWndMoveData@@@std@@@4@$0A@@std@@@std@@QAEAAV012@XZ ; std::_Tree<std::_Tmap_traits<HWND__ *,WndMoveData,std::less<HWND__ *>,std::allocator<std::pair<HWND__ * const,WndMoveData> >,0> >::iterator::operator++
; Function compile flags: /Odt /RTCsu
;	COMDAT ??Eiterator@?$_Tree@V?$_Tmap_traits@PAUHWND__@@UWndMoveData@@U?$less@PAUHWND__@@@std@@V?$allocator@U?$pair@QAUHWND__@@UWndMoveData@@@std@@@4@$0A@@std@@@std@@QAE?AV012@H@Z
_TEXT	SEGMENT
__Tmp$ = -12						; size = 4
_this$ = -4						; size = 4
___$ReturnUdt$ = 8					; size = 4
___formal$ = 12						; size = 4
??Eiterator@?$_Tree@V?$_Tmap_traits@PAUHWND__@@UWndMoveData@@U?$less@PAUHWND__@@@std@@V?$allocator@U?$pair@QAUHWND__@@UWndMoveData@@@std@@@4@$0A@@std@@@std@@QAE?AV012@H@Z PROC NEAR ; std::_Tree<std::_Tmap_traits<HWND__ *,WndMoveData,std::less<HWND__ *>,std::allocator<std::pair<HWND__ * const,WndMoveData> >,0> >::iterator::operator++, COMDAT
; _this$ = ecx

; 332  : 			{	// postincrement

  00000	55		 push	 ebp
  00001	8b ec		 mov	 ebp, esp
  00003	83 ec 10	 sub	 esp, 16			; 00000010H
  00006	b8 cc cc cc cc	 mov	 eax, -858993460		; ccccccccH
  0000b	89 45 f0	 mov	 DWORD PTR [ebp-16], eax
  0000e	89 45 f4	 mov	 DWORD PTR [ebp-12], eax
  00011	89 45 f8	 mov	 DWORD PTR [ebp-8], eax
  00014	89 45 fc	 mov	 DWORD PTR [ebp-4], eax
  00017	89 4d fc	 mov	 DWORD PTR _this$[ebp], ecx

; 333  : 			iterator _Tmp = *this;

  0001a	8b 45 fc	 mov	 eax, DWORD PTR _this$[ebp]
  0001d	8b 08		 mov	 ecx, DWORD PTR [eax]
  0001f	89 4d f4	 mov	 DWORD PTR __Tmp$[ebp], ecx

; 334  : 			++*this;

  00022	8b 4d fc	 mov	 ecx, DWORD PTR _this$[ebp]
  00025	e8 00 00 00 00	 call	 ??Eiterator@?$_Tree@V?$_Tmap_traits@PAUHWND__@@UWndMoveData@@U?$less@PAUHWND__@@@std@@V?$allocator@U?$pair@QAUHWND__@@UWndMoveData@@@std@@@4@$0A@@std@@@std@@QAEAAV012@XZ ; std::_Tree<std::_Tmap_traits<HWND__ *,WndMoveData,std::less<HWND__ *>,std::allocator<std::pair<HWND__ * const,WndMoveData> >,0> >::iterator::operator++

; 335  : 			return (_Tmp);

  0002a	8b 55 08	 mov	 edx, DWORD PTR ___$ReturnUdt$[ebp]
  0002d	8b 45 f4	 mov	 eax, DWORD PTR __Tmp$[ebp]
  00030	89 02		 mov	 DWORD PTR [edx], eax
  00032	8b 45 08	 mov	 eax, DWORD PTR ___$ReturnUdt$[ebp]

; 336  : 			}

  00035	52		 push	 edx
  00036	8b cd		 mov	 ecx, ebp
  00038	50		 push	 eax
  00039	8d 15 00 00 00
	00		 lea	 edx, DWORD PTR $L189722
  0003f	e8 00 00 00 00	 call	 @_RTC_CheckStackVars@8
  00044	58		 pop	 eax
  00045	5a		 pop	 edx
  00046	83 c4 10	 add	 esp, 16			; 00000010H
  00049	3b ec		 cmp	 ebp, esp
  0004b	e8 00 00 00 00	 call	 __RTC_CheckEsp
  00050	8b e5		 mov	 esp, ebp
  00052	5d		 pop	 ebp
  00053	c2 08 00	 ret	 8
$L189722:
  00056	01 00 00 00	 DD	 1
  0005a	00 00 00 00	 DD	 $L189721
$L189721:
  0005e	f4 ff ff ff	 DD	 -12			; fffffff4H
  00062	04 00 00 00	 DD	 4
  00066	00 00 00 00	 DD	 $L189720
$L189720:
  0006a	5f		 DB	 95			; 0000005fH
  0006b	54		 DB	 84			; 00000054H
  0006c	6d		 DB	 109			; 0000006dH
  0006d	70		 DB	 112			; 00000070H
  0006e	00		 DB	 0
??Eiterator@?$_Tree@V?$_Tmap_traits@PAUHWND__@@UWndMoveData@@U?$less@PAUHWND__@@@std@@V?$allocator@U?$pair@QAUHWND__@@UWndMoveData@@@std@@@4@$0A@@std@@@std@@QAE?AV012@H@Z ENDP ; std::_Tree<std::_Tmap_traits<HWND__ *,WndMoveData,std::less<HWND__ *>,std::allocator<std::pair<HWND__ * const,WndMoveData> >,0> >::iterator::operator++
; Function compile flags: /Odt /RTCsu
_TEXT	ENDS
;	COMDAT ??9const_iterator@?$_Tree@V?$_Tmap_traits@PAUHWND__@@UWndMoveData@@U?$less@PAUHWND__@@@std@@V?$allocator@U?$pair@QAUHWND__@@UWndMoveData@@@std@@@4@$0A@@std@@@std@@QBE_NABV012@@Z
_TEXT	SEGMENT
_this$ = -4						; size = 4
__Right$ = 8						; size = 4
??9const_iterator@?$_Tree@V?$_Tmap_traits@PAUHWND__@@UWndMoveData@@U?$less@PAUHWND__@@@std@@V?$allocator@U?$pair@QAUHWND__@@UWndMoveData@@@std@@@4@$0A@@std@@@std@@QBE_NABV012@@Z PROC NEAR ; std::_Tree<std::_Tmap_traits<HWND__ *,WndMoveData,std::less<HWND__ *>,std::allocator<std::pair<HWND__ * const,WndMoveData> >,0> >::const_iterator::operator!=, COMDAT
; _this$ = ecx

; 245  : 			{	// test for iterator inequality

  00000	55		 push	 ebp
  00001	8b ec		 mov	 ebp, esp
  00003	51		 push	 ecx
  00004	c7 45 fc cc cc
	cc cc		 mov	 DWORD PTR [ebp-4], -858993460 ; ccccccccH
  0000b	89 4d fc	 mov	 DWORD PTR _this$[ebp], ecx

; 246  : 			return (!(*this == _Right));

  0000e	8b 45 08	 mov	 eax, DWORD PTR __Right$[ebp]
  00011	50		 push	 eax
  00012	8b 4d fc	 mov	 ecx, DWORD PTR _this$[ebp]
  00015	e8 00 00 00 00	 call	 ??8const_iterator@?$_Tree@V?$_Tmap_traits@PAUHWND__@@UWndMoveData@@U?$less@PAUHWND__@@@std@@V?$allocator@U?$pair@QAUHWND__@@UWndMoveData@@@std@@@4@$0A@@std@@@std@@QBE_NABV012@@Z ; std::_Tree<std::_Tmap_traits<HWND__ *,WndMoveData,std::less<HWND__ *>,std::allocator<std::pair<HWND__ * const,WndMoveData> >,0> >::const_iterator::operator==
  0001a	0f b6 c0	 movzx	 eax, al
  0001d	f7 d8		 neg	 eax
  0001f	1b c0		 sbb	 eax, eax
  00021	40		 inc	 eax

; 247  : 			}

  00022	83 c4 04	 add	 esp, 4
  00025	3b ec		 cmp	 ebp, esp
  00027	e8 00 00 00 00	 call	 __RTC_CheckEsp
  0002c	8b e5		 mov	 esp, ebp
  0002e	5d		 pop	 ebp
  0002f	c2 04 00	 ret	 4
??9const_iterator@?$_Tree@V?$_Tmap_traits@PAUHWND__@@UWndMoveData@@U?$less@PAUHWND__@@@std@@V?$allocator@U?$pair@QAUHWND__@@UWndMoveData@@@std@@@4@$0A@@std@@@std@@QBE_NABV012@@Z ENDP ; std::_Tree<std::_Tmap_traits<HWND__ *,WndMoveData,std::less<HWND__ *>,std::allocator<std::pair<HWND__ * const,WndMoveData> >,0> >::const_iterator::operator!=
_TEXT	ENDS
PUBLIC	?_Myval@?$_Tree@V?$_Tmap_traits@PAUHWND__@@UWndMoveData@@U?$less@PAUHWND__@@@std@@V?$allocator@U?$pair@QAUHWND__@@UWndMoveData@@@std@@@4@$0A@@std@@@std@@KAAAU?$pair@QAUHWND__@@UWndMoveData@@@2@PAU_Node@?$_Tree_nod@V?$_Tmap_traits@PAUHWND__@@UWndMoveData@@U?$less@PAUHWND__@@@std@@V?$allocator@U?$pair@QAUHWND__@@UWndMoveData@@@std@@@4@$0A@@std@@@2@@Z ; std::_Tree<std::_Tmap_traits<HWND__ *,WndMoveData,std::less<HWND__ *>,std::allocator<std::pair<HWND__ * const,WndMoveData> >,0> >::_Myval
PUBLIC	?_Kfn@?$_Tmap_traits@PAUHWND__@@UWndMoveData@@U?$less@PAUHWND__@@@std@@V?$allocator@U?$pair@QAUHWND__@@UWndMoveData@@@std@@@4@$0A@@std@@SAABQAUHWND__@@ABU?$pair@QAUHWND__@@UWndMoveData@@@2@@Z ; std::_Tmap_traits<HWND__ *,WndMoveData,std::less<HWND__ *>,std::allocator<std::pair<HWND__ * const,WndMoveData> >,0>::_Kfn
; Function compile flags: /Odt /RTCsu
;	COMDAT ?_Key@?$_Tree@V?$_Tmap_traits@PAUHWND__@@UWndMoveData@@U?$less@PAUHWND__@@@std@@V?$allocator@U?$pair@QAUHWND__@@UWndMoveData@@@std@@@4@$0A@@std@@@std@@KAABQAUHWND__@@PAU_Node@?$_Tree_nod@V?$_Tmap_traits@PAUHWND__@@UWndMoveData@@U?$less@PAUHWND__@@@std@@V?$allocator@U?$pair@QAUHWND__@@UWndMoveData@@@std@@@4@$0A@@std@@@2@@Z
_TEXT	SEGMENT
__Pnode$ = 8						; size = 4
?_Key@?$_Tree@V?$_Tmap_traits@PAUHWND__@@UWndMoveData@@U?$less@PAUHWND__@@@std@@V?$allocator@U?$pair@QAUHWND__@@UWndMoveData@@@std@@@4@$0A@@std@@@std@@KAABQAUHWND__@@PAU_Node@?$_Tree_nod@V?$_Tmap_traits@PAUHWND__@@UWndMoveData@@U?$less@PAUHWND__@@@std@@V?$allocator@U?$pair@QAUHWND__@@UWndMoveData@@@std@@@4@$0A@@std@@@2@@Z PROC NEAR ; std::_Tree<std::_Tmap_traits<HWND__ *,WndMoveData,std::less<HWND__ *>,std::allocator<std::pair<HWND__ * const,WndMoveData> >,0> >::_Key, COMDAT

; 141  : 		{	// return reference to key in node

  00000	55		 push	 ebp
  00001	8b ec		 mov	 ebp, esp

; 142  : 		return (_Mybase::_Kfn(_Myval(_Pnode)));

  00003	8b 45 08	 mov	 eax, DWORD PTR __Pnode$[ebp]
  00006	50		 push	 eax
  00007	e8 00 00 00 00	 call	 ?_Myval@?$_Tree@V?$_Tmap_traits@PAUHWND__@@UWndMoveData@@U?$less@PAUHWND__@@@std@@V?$allocator@U?$pair@QAUHWND__@@UWndMoveData@@@std@@@4@$0A@@std@@@std@@KAAAU?$pair@QAUHWND__@@UWndMoveData@@@2@PAU_Node@?$_Tree_nod@V?$_Tmap_traits@PAUHWND__@@UWndMoveData@@U?$less@PAUHWND__@@@std@@V?$allocator@U?$pair@QAUHWND__@@UWndMoveData@@@std@@@4@$0A@@std@@@2@@Z ; std::_Tree<std::_Tmap_traits<HWND__ *,WndMoveData,std::less<HWND__ *>,std::allocator<std::pair<HWND__ * const,WndMoveData> >,0> >::_Myval
  0000c	83 c4 04	 add	 esp, 4
  0000f	50		 push	 eax
  00010	e8 00 00 00 00	 call	 ?_Kfn@?$_Tmap_traits@PAUHWND__@@UWndMoveData@@U?$less@PAUHWND__@@@std@@V?$allocator@U?$pair@QAUHWND__@@UWndMoveData@@@std@@@4@$0A@@std@@SAABQAUHWND__@@ABU?$pair@QAUHWND__@@UWndMoveData@@@2@@Z ; std::_Tmap_traits<HWND__ *,WndMoveData,std::less<HWND__ *>,std::allocator<std::pair<HWND__ * const,WndMoveData> >,0>::_Kfn
  00015	83 c4 04	 add	 esp, 4

; 143  : 		}

  00018	3b ec		 cmp	 ebp, esp
  0001a	e8 00 00 00 00	 call	 __RTC_CheckEsp
  0001f	5d		 pop	 ebp
  00020	c3		 ret	 0
?_Key@?$_Tree@V?$_Tmap_traits@PAUHWND__@@UWndMoveData@@U?$less@PAUHWND__@@@std@@V?$allocator@U?$pair@QAUHWND__@@UWndMoveData@@@std@@@4@$0A@@std@@@std@@KAABQAUHWND__@@PAU_Node@?$_Tree_nod@V?$_Tmap_traits@PAUHWND__@@UWndMoveData@@U?$less@PAUHWND__@@@std@@V?$allocator@U?$pair@QAUHWND__@@UWndMoveData@@@std@@@4@$0A@@std@@@2@@Z ENDP ; std::_Tree<std::_Tmap_traits<HWND__ *,WndMoveData,std::less<HWND__ *>,std::allocator<std::pair<HWND__ * const,WndMoveData> >,0> >::_Key
_TEXT	ENDS
PUBLIC	?_Init@?$_Tree@V?$_Tmap_traits@PAUHWND__@@UWndMoveData@@U?$less@PAUHWND__@@@std@@V?$allocator@U?$pair@QAUHWND__@@UWndMoveData@@@std@@@4@$0A@@std@@@std@@IAEXXZ ; std::_Tree<std::_Tmap_traits<HWND__ *,WndMoveData,std::less<HWND__ *>,std::allocator<std::pair<HWND__ * const,WndMoveData> >,0> >::_Init
PUBLIC	??0?$allocator@U?$pair@QAUHWND__@@UWndMoveData@@@std@@@std@@QAE@ABV01@@Z ; std::allocator<std::pair<HWND__ * const,WndMoveData> >::allocator<std::pair<HWND__ * const,WndMoveData> >
PUBLIC	??0?$_Tree_val@V?$_Tmap_traits@PAUHWND__@@UWndMoveData@@U?$less@PAUHWND__@@@std@@V?$allocator@U?$pair@QAUHWND__@@UWndMoveData@@@std@@@4@$0A@@std@@@std@@IAE@ABU?$less@PAUHWND__@@@1@V?$allocator@U?$pair@QAUHWND__@@UWndMoveData@@@std@@@1@@Z ; std::_Tree_val<std::_Tmap_traits<HWND__ *,WndMoveData,std::less<HWND__ *>,std::allocator<std::pair<HWND__ * const,WndMoveData> >,0> >::_Tree_val<std::_Tmap_traits<HWND__ *,WndMoveData,std::less<HWND__ *>,std::allocator<std::pair<HWND__ * const,WndMoveData> >,0> >
; Function compile flags: /Odt /RTCsu
;	COMDAT ??0?$_Tree@V?$_Tmap_traits@PAUHWND__@@UWndMoveData@@U?$less@PAUHWND__@@@std@@V?$allocator@U?$pair@QAUHWND__@@UWndMoveData@@@std@@@4@$0A@@std@@@std@@QAE@ABU?$less@PAUHWND__@@@1@ABV?$allocator@U?$pair@QAUHWND__@@UWndMoveData@@@std@@@1@@Z
_TEXT	SEGMENT
_this$ = -4						; size = 4
__Parg$ = 8						; size = 4
__Al$ = 12						; size = 4
??0?$_Tree@V?$_Tmap_traits@PAUHWND__@@UWndMoveData@@U?$less@PAUHWND__@@@std@@V?$allocator@U?$pair@QAUHWND__@@UWndMoveData@@@std@@@4@$0A@@std@@@std@@QAE@ABU?$less@PAUHWND__@@@1@ABV?$allocator@U?$pair@QAUHWND__@@UWndMoveData@@@std@@@1@@Z PROC NEAR ; std::_Tree<std::_Tmap_traits<HWND__ *,WndMoveData,std::less<HWND__ *>,std::allocator<std::pair<HWND__ * const,WndMoveData> >,0> >::_Tree<std::_Tmap_traits<HWND__ *,WndMoveData,std::less<HWND__ *>,std::allocator<std::pair<HWND__ * const,WndMoveData> >,0> >, COMDAT
; _this$ = ecx

; 361  : 		{	// construct empty tree

  00000	55		 push	 ebp
  00001	8b ec		 mov	 ebp, esp
  00003	83 ec 08	 sub	 esp, 8
  00006	c7 45 f8 cc cc
	cc cc		 mov	 DWORD PTR [ebp-8], -858993460 ; ccccccccH
  0000d	c7 45 fc cc cc
	cc cc		 mov	 DWORD PTR [ebp-4], -858993460 ; ccccccccH
  00014	89 4d fc	 mov	 DWORD PTR _this$[ebp], ecx
  00017	51		 push	 ecx
  00018	8b cc		 mov	 ecx, esp
  0001a	8b 45 0c	 mov	 eax, DWORD PTR __Al$[ebp]
  0001d	50		 push	 eax
  0001e	e8 00 00 00 00	 call	 ??0?$allocator@U?$pair@QAUHWND__@@UWndMoveData@@@std@@@std@@QAE@ABV01@@Z ; std::allocator<std::pair<HWND__ * const,WndMoveData> >::allocator<std::pair<HWND__ * const,WndMoveData> >
  00023	8b 4d 08	 mov	 ecx, DWORD PTR __Parg$[ebp]
  00026	51		 push	 ecx
  00027	8b 4d fc	 mov	 ecx, DWORD PTR _this$[ebp]
  0002a	e8 00 00 00 00	 call	 ??0?$_Tree_val@V?$_Tmap_traits@PAUHWND__@@UWndMoveData@@U?$less@PAUHWND__@@@std@@V?$allocator@U?$pair@QAUHWND__@@UWndMoveData@@@std@@@4@$0A@@std@@@std@@IAE@ABU?$less@PAUHWND__@@@1@V?$allocator@U?$pair@QAUHWND__@@UWndMoveData@@@std@@@1@@Z ; std::_Tree_val<std::_Tmap_traits<HWND__ *,WndMoveData,std::less<HWND__ *>,std::allocator<std::pair<HWND__ * const,WndMoveData> >,0> >::_Tree_val<std::_Tmap_traits<HWND__ *,WndMoveData,std::less<HWND__ *>,std::allocator<std::pair<HWND__ * const,WndMoveData> >,0> >

; 362  : 		_Init();

  0002f	8b 4d fc	 mov	 ecx, DWORD PTR _this$[ebp]
  00032	e8 00 00 00 00	 call	 ?_Init@?$_Tree@V?$_Tmap_traits@PAUHWND__@@UWndMoveData@@U?$less@PAUHWND__@@@std@@V?$allocator@U?$pair@QAUHWND__@@UWndMoveData@@@std@@@4@$0A@@std@@@std@@IAEXXZ ; std::_Tree<std::_Tmap_traits<HWND__ *,WndMoveData,std::less<HWND__ *>,std::allocator<std::pair<HWND__ * const,WndMoveData> >,0> >::_Init

; 363  : 		}

  00037	8b 45 fc	 mov	 eax, DWORD PTR _this$[ebp]
  0003a	83 c4 08	 add	 esp, 8
  0003d	3b ec		 cmp	 ebp, esp
  0003f	e8 00 00 00 00	 call	 __RTC_CheckEsp
  00044	8b e5		 mov	 esp, ebp
  00046	5d		 pop	 ebp
  00047	c2 08 00	 ret	 8
??0?$_Tree@V?$_Tmap_traits@PAUHWND__@@UWndMoveData@@U?$less@PAUHWND__@@@std@@V?$allocator@U?$pair@QAUHWND__@@UWndMoveData@@@std@@@4@$0A@@std@@@std@@QAE@ABU?$less@PAUHWND__@@@1@ABV?$allocator@U?$pair@QAUHWND__@@UWndMoveData@@@std@@@1@@Z ENDP ; std::_Tree<std::_Tmap_traits<HWND__ *,WndMoveData,std::less<HWND__ *>,std::allocator<std::pair<HWND__ * const,WndMoveData> >,0> >::_Tree<std::_Tmap_traits<HWND__ *,WndMoveData,std::less<HWND__ *>,std::allocator<std::pair<HWND__ * const,WndMoveData> >,0> >
; Function compile flags: /Odt /RTCsu
; File d:\program files (x86)\microsoft visual studio .net 2003\vc7\atlmfc\include\atltrace.h
_TEXT	ENDS
;	COMDAT ??0CTraceFileAndLineInfo@ATL@@QAE@PBDH@Z
_TEXT	SEGMENT
_this$ = -4						; size = 4
_pszFileName$ = 8					; size = 4
_nLineNo$ = 12						; size = 4
??0CTraceFileAndLineInfo@ATL@@QAE@PBDH@Z PROC NEAR	; ATL::CTraceFileAndLineInfo::CTraceFileAndLineInfo, COMDAT
; _this$ = ecx

; 158  : 	{}

  00000	55		 push	 ebp
  00001	8b ec		 mov	 ebp, esp
  00003	51		 push	 ecx
  00004	c7 45 fc cc cc
	cc cc		 mov	 DWORD PTR [ebp-4], -858993460 ; ccccccccH
  0000b	89 4d fc	 mov	 DWORD PTR _this$[ebp], ecx
  0000e	8b 45 fc	 mov	 eax, DWORD PTR _this$[ebp]
  00011	8b 4d 08	 mov	 ecx, DWORD PTR _pszFileName$[ebp]
  00014	89 08		 mov	 DWORD PTR [eax], ecx
  00016	8b 55 fc	 mov	 edx, DWORD PTR _this$[ebp]
  00019	8b 45 0c	 mov	 eax, DWORD PTR _nLineNo$[ebp]
  0001c	89 42 04	 mov	 DWORD PTR [edx+4], eax
  0001f	8b 45 fc	 mov	 eax, DWORD PTR _this$[ebp]
  00022	8b e5		 mov	 esp, ebp
  00024	5d		 pop	 ebp
  00025	c2 08 00	 ret	 8
??0CTraceFileAndLineInfo@ATL@@QAE@PBDH@Z ENDP		; ATL::CTraceFileAndLineInfo::CTraceFileAndLineInfo
_TEXT	ENDS
PUBLIC	?_Isnil@?$_Tree@V?$_Tmap_traits@PAUHWND__@@UWndMoveData@@U?$less@PAUHWND__@@@std@@V?$allocator@U?$pair@QAUHWND__@@UWndMoveData@@@std@@@4@$0A@@std@@@std@@KAAADPAU_Node@?$_Tree_nod@V?$_Tmap_traits@PAUHWND__@@UWndMoveData@@U?$less@PAUHWND__@@@std@@V?$allocator@U?$pair@QAUHWND__@@UWndMoveData@@@std@@@4@$0A@@std@@@2@@Z ; std::_Tree<std::_Tmap_traits<HWND__ *,WndMoveData,std::less<HWND__ *>,std::allocator<std::pair<HWND__ * const,WndMoveData> >,0> >::_Isnil
PUBLIC	?_Right@?$_Tree@V?$_Tmap_traits@PAUHWND__@@UWndMoveData@@U?$less@PAUHWND__@@@std@@V?$allocator@U?$pair@QAUHWND__@@UWndMoveData@@@std@@@4@$0A@@std@@@std@@KAAAPAU_Node@?$_Tree_nod@V?$_Tmap_traits@PAUHWND__@@UWndMoveData@@U?$less@PAUHWND__@@@std@@V?$allocator@U?$pair@QAUHWND__@@UWndMoveData@@@std@@@4@$0A@@std@@@2@PAU342@@Z ; std::_Tree<std::_Tmap_traits<HWND__ *,WndMoveData,std::less<HWND__ *>,std::allocator<std::pair<HWND__ * const,WndMoveData> >,0> >::_Right
PUBLIC	?size@?$_Tree@V?$_Tmap_traits@PAUHWND__@@UWndMoveData@@U?$less@PAUHWND__@@@std@@V?$allocator@U?$pair@QAUHWND__@@UWndMoveData@@@std@@@4@$0A@@std@@@std@@QBEIXZ ; std::_Tree<std::_Tmap_traits<HWND__ *,WndMoveData,std::less<HWND__ *>,std::allocator<std::pair<HWND__ * const,WndMoveData> >,0> >::size
PUBLIC	?insert@?$_Tree@V?$_Tmap_traits@PAUHWND__@@UWndMoveData@@U?$less@PAUHWND__@@@std@@V?$allocator@U?$pair@QAUHWND__@@UWndMoveData@@@std@@@4@$0A@@std@@@std@@QAE?AU?$pair@Viterator@?$_Tree@V?$_Tmap_traits@PAUHWND__@@UWndMoveData@@U?$less@PAUHWND__@@@std@@V?$allocator@U?$pair@QAUHWND__@@UWndMoveData@@@std@@@4@$0A@@std@@@std@@_N@2@ABU?$pair@QAUHWND__@@UWndMoveData@@@2@@Z ; std::_Tree<std::_Tmap_traits<HWND__ *,WndMoveData,std::less<HWND__ *>,std::allocator<std::pair<HWND__ * const,WndMoveData> >,0> >::insert
PUBLIC	?_Insert@?$_Tree@V?$_Tmap_traits@PAUHWND__@@UWndMoveData@@U?$less@PAUHWND__@@@std@@V?$allocator@U?$pair@QAUHWND__@@UWndMoveData@@@std@@@4@$0A@@std@@@std@@IAE?AViterator@12@_NPAU_Node@?$_Tree_nod@V?$_Tmap_traits@PAUHWND__@@UWndMoveData@@U?$less@PAUHWND__@@@std@@V?$allocator@U?$pair@QAUHWND__@@UWndMoveData@@@std@@@4@$0A@@std@@@2@ABU?$pair@QAUHWND__@@UWndMoveData@@@2@@Z ; std::_Tree<std::_Tmap_traits<HWND__ *,WndMoveData,std::less<HWND__ *>,std::allocator<std::pair<HWND__ * const,WndMoveData> >,0> >::_Insert
PUBLIC	??Fiterator@?$_Tree@V?$_Tmap_traits@PAUHWND__@@UWndMoveData@@U?$less@PAUHWND__@@@std@@V?$allocator@U?$pair@QAUHWND__@@UWndMoveData@@@std@@@4@$0A@@std@@@std@@QAEAAV012@XZ ; std::_Tree<std::_Tmap_traits<HWND__ *,WndMoveData,std::less<HWND__ *>,std::allocator<std::pair<HWND__ * const,WndMoveData> >,0> >::iterator::operator--
; Function compile flags: /Odt /RTCsu
; File d:\program files (x86)\microsoft visual studio .net 2003\vc7\include\xtree
;	COMDAT ?insert@?$_Tree@V?$_Tmap_traits@PAUHWND__@@UWndMoveData@@U?$less@PAUHWND__@@@std@@V?$allocator@U?$pair@QAUHWND__@@UWndMoveData@@@std@@@4@$0A@@std@@@std@@QAE?AViterator@12@V312@ABU?$pair@QAUHWND__@@UWndMoveData@@@2@@Z
_TEXT	SEGMENT
$T189735 = -48						; size = 8
$T189734 = -40						; size = 4
$T189733 = -36						; size = 4
$T189732 = -32						; size = 4
$T189731 = -28						; size = 4
$T189730 = -24						; size = 4
$T189729 = -20						; size = 4
__Next$ = -12						; size = 4
_this$ = -4						; size = 4
___$ReturnUdt$ = 8					; size = 4
__Where$ = 12						; size = 4
__Val$ = 16						; size = 4
?insert@?$_Tree@V?$_Tmap_traits@PAUHWND__@@UWndMoveData@@U?$less@PAUHWND__@@@std@@V?$allocator@U?$pair@QAUHWND__@@UWndMoveData@@@std@@@4@$0A@@std@@@std@@QAE?AViterator@12@V312@ABU?$pair@QAUHWND__@@UWndMoveData@@@2@@Z PROC NEAR ; std::_Tree<std::_Tmap_traits<HWND__ *,WndMoveData,std::less<HWND__ *>,std::allocator<std::pair<HWND__ * const,WndMoveData> >,0> >::insert, COMDAT
; _this$ = ecx

; 509  : 		{	// try to insert node with value _Val using _Where as a hint

  00000	55		 push	 ebp
  00001	8b ec		 mov	 ebp, esp
  00003	83 ec 30	 sub	 esp, 48			; 00000030H
  00006	57		 push	 edi
  00007	51		 push	 ecx
  00008	8d 7d d0	 lea	 edi, DWORD PTR [ebp-48]
  0000b	b9 0c 00 00 00	 mov	 ecx, 12			; 0000000cH
  00010	b8 cc cc cc cc	 mov	 eax, -858993460		; ccccccccH
  00015	f3 ab		 rep stosd
  00017	59		 pop	 ecx
  00018	89 4d fc	 mov	 DWORD PTR _this$[ebp], ecx

; 510  : 		iterator _Next;

  0001b	8d 4d f4	 lea	 ecx, DWORD PTR __Next$[ebp]
  0001e	e8 00 00 00 00	 call	 ??0iterator@?$_Tree@V?$_Tmap_traits@PAUHWND__@@UWndMoveData@@U?$less@PAUHWND__@@@std@@V?$allocator@U?$pair@QAUHWND__@@UWndMoveData@@@std@@@4@$0A@@std@@@std@@QAE@XZ ; std::_Tree<std::_Tmap_traits<HWND__ *,WndMoveData,std::less<HWND__ *>,std::allocator<std::pair<HWND__ * const,WndMoveData> >,0> >::iterator::iterator

; 511  : 
; 512  : 		if (size() == 0)

  00023	8b 4d fc	 mov	 ecx, DWORD PTR _this$[ebp]
  00026	e8 00 00 00 00	 call	 ?size@?$_Tree@V?$_Tmap_traits@PAUHWND__@@UWndMoveData@@U?$less@PAUHWND__@@@std@@V?$allocator@U?$pair@QAUHWND__@@UWndMoveData@@@std@@@4@$0A@@std@@@std@@QBEIXZ ; std::_Tree<std::_Tmap_traits<HWND__ *,WndMoveData,std::less<HWND__ *>,std::allocator<std::pair<HWND__ * const,WndMoveData> >,0> >::size
  0002b	85 c0		 test	 eax, eax
  0002d	75 21		 jne	 SHORT $L188573

; 513  : 			return (_Insert(true, _Myhead, _Val));	// insert into empty tree

  0002f	8b 45 10	 mov	 eax, DWORD PTR __Val$[ebp]
  00032	50		 push	 eax
  00033	8b 4d fc	 mov	 ecx, DWORD PTR _this$[ebp]
  00036	8b 51 04	 mov	 edx, DWORD PTR [ecx+4]
  00039	52		 push	 edx
  0003a	6a 01		 push	 1
  0003c	8b 45 08	 mov	 eax, DWORD PTR ___$ReturnUdt$[ebp]
  0003f	50		 push	 eax
  00040	8b 4d fc	 mov	 ecx, DWORD PTR _this$[ebp]
  00043	e8 00 00 00 00	 call	 ?_Insert@?$_Tree@V?$_Tmap_traits@PAUHWND__@@UWndMoveData@@U?$less@PAUHWND__@@@std@@V?$allocator@U?$pair@QAUHWND__@@UWndMoveData@@@std@@@4@$0A@@std@@@std@@IAE?AViterator@12@_NPAU_Node@?$_Tree_nod@V?$_Tmap_traits@PAUHWND__@@UWndMoveData@@U?$less@PAUHWND__@@@std@@V?$allocator@U?$pair@QAUHWND__@@UWndMoveData@@@std@@@4@$0A@@std@@@2@ABU?$pair@QAUHWND__@@UWndMoveData@@@2@@Z ; std::_Tree<std::_Tmap_traits<HWND__ *,WndMoveData,std::less<HWND__ *>,std::allocator<std::pair<HWND__ * const,WndMoveData> >,0> >::_Insert
  00048	8b 45 08	 mov	 eax, DWORD PTR ___$ReturnUdt$[ebp]
  0004b	e9 81 05 00 00	 jmp	 $L188571
$L188573:

; 514  : 		else if (this->_Multi)

  00050	33 c9		 xor	 ecx, ecx
  00052	0f 84 b5 02 00
	00		 je	 $L188576

; 515  : 			{	// insert even if duplicate
; 516  : 			if (_Where == begin())

  00058	8d 55 ec	 lea	 edx, DWORD PTR $T189729[ebp]
  0005b	52		 push	 edx
  0005c	8b 4d fc	 mov	 ecx, DWORD PTR _this$[ebp]
  0005f	e8 00 00 00 00	 call	 ?begin@?$_Tree@V?$_Tmap_traits@PAUHWND__@@UWndMoveData@@U?$less@PAUHWND__@@@std@@V?$allocator@U?$pair@QAUHWND__@@UWndMoveData@@@std@@@4@$0A@@std@@@std@@QAE?AViterator@12@XZ ; std::_Tree<std::_Tmap_traits<HWND__ *,WndMoveData,std::less<HWND__ *>,std::allocator<std::pair<HWND__ * const,WndMoveData> >,0> >::begin
  00064	50		 push	 eax
  00065	8d 4d 0c	 lea	 ecx, DWORD PTR __Where$[ebp]
  00068	e8 00 00 00 00	 call	 ??8const_iterator@?$_Tree@V?$_Tmap_traits@PAUHWND__@@UWndMoveData@@U?$less@PAUHWND__@@@std@@V?$allocator@U?$pair@QAUHWND__@@UWndMoveData@@@std@@@4@$0A@@std@@@std@@QBE_NABV012@@Z ; std::_Tree<std::_Tmap_traits<HWND__ *,WndMoveData,std::less<HWND__ *>,std::allocator<std::pair<HWND__ * const,WndMoveData> >,0> >::const_iterator::operator==
  0006d	0f b6 c0	 movzx	 eax, al
  00070	85 c0		 test	 eax, eax
  00072	74 56		 je	 SHORT $L188578

; 517  : 				{	// insert at beginning if before first element
; 518  : 				if (!this->comp(_Key(_Where._Mynode()), this->_Kfn(_Val)))

  00074	8b 4d 10	 mov	 ecx, DWORD PTR __Val$[ebp]
  00077	51		 push	 ecx
  00078	e8 00 00 00 00	 call	 ?_Kfn@?$_Tmap_traits@PAUHWND__@@UWndMoveData@@U?$less@PAUHWND__@@@std@@V?$allocator@U?$pair@QAUHWND__@@UWndMoveData@@@std@@@4@$0A@@std@@SAABQAUHWND__@@ABU?$pair@QAUHWND__@@UWndMoveData@@@2@@Z ; std::_Tmap_traits<HWND__ *,WndMoveData,std::less<HWND__ *>,std::allocator<std::pair<HWND__ * const,WndMoveData> >,0>::_Kfn
  0007d	83 c4 04	 add	 esp, 4
  00080	50		 push	 eax
  00081	8d 4d 0c	 lea	 ecx, DWORD PTR __Where$[ebp]
  00084	e8 00 00 00 00	 call	 ?_Mynode@const_iterator@?$_Tree@V?$_Tmap_traits@PAUHWND__@@UWndMoveData@@U?$less@PAUHWND__@@@std@@V?$allocator@U?$pair@QAUHWND__@@UWndMoveData@@@std@@@4@$0A@@std@@@std@@QBEPAU_Node@?$_Tree_nod@V?$_Tmap_traits@PAUHWND__@@UWndMoveData@@U?$less@PAUHWND__@@@std@@V?$allocator@U?$pair@QAUHWND__@@UWndMoveData@@@std@@@4@$0A@@std@@@3@XZ ; std::_Tree<std::_Tmap_traits<HWND__ *,WndMoveData,std::less<HWND__ *>,std::allocator<std::pair<HWND__ * const,WndMoveData> >,0> >::const_iterator::_Mynode
  00089	50		 push	 eax
  0008a	e8 00 00 00 00	 call	 ?_Key@?$_Tree@V?$_Tmap_traits@PAUHWND__@@UWndMoveData@@U?$less@PAUHWND__@@@std@@V?$allocator@U?$pair@QAUHWND__@@UWndMoveData@@@std@@@4@$0A@@std@@@std@@KAABQAUHWND__@@PAU_Node@?$_Tree_nod@V?$_Tmap_traits@PAUHWND__@@UWndMoveData@@U?$less@PAUHWND__@@@std@@V?$allocator@U?$pair@QAUHWND__@@UWndMoveData@@@std@@@4@$0A@@std@@@2@@Z ; std::_Tree<std::_Tmap_traits<HWND__ *,WndMoveData,std::less<HWND__ *>,std::allocator<std::pair<HWND__ * const,WndMoveData> >,0> >::_Key
  0008f	83 c4 04	 add	 esp, 4
  00092	50		 push	 eax
  00093	8b 4d fc	 mov	 ecx, DWORD PTR _this$[ebp]
  00096	e8 00 00 00 00	 call	 ??R?$less@PAUHWND__@@@std@@QBE_NABQAUHWND__@@0@Z ; std::less<HWND__ *>::operator()
  0009b	0f b6 d0	 movzx	 edx, al
  0009e	85 d2		 test	 edx, edx
  000a0	75 23		 jne	 SHORT $L188579

; 519  : 					return (_Insert(true, _Where._Mynode(), _Val));

  000a2	8b 45 10	 mov	 eax, DWORD PTR __Val$[ebp]
  000a5	50		 push	 eax
  000a6	8d 4d 0c	 lea	 ecx, DWORD PTR __Where$[ebp]
  000a9	e8 00 00 00 00	 call	 ?_Mynode@const_iterator@?$_Tree@V?$_Tmap_traits@PAUHWND__@@UWndMoveData@@U?$less@PAUHWND__@@@std@@V?$allocator@U?$pair@QAUHWND__@@UWndMoveData@@@std@@@4@$0A@@std@@@std@@QBEPAU_Node@?$_Tree_nod@V?$_Tmap_traits@PAUHWND__@@UWndMoveData@@U?$less@PAUHWND__@@@std@@V?$allocator@U?$pair@QAUHWND__@@UWndMoveData@@@std@@@4@$0A@@std@@@3@XZ ; std::_Tree<std::_Tmap_traits<HWND__ *,WndMoveData,std::less<HWND__ *>,std::allocator<std::pair<HWND__ * const,WndMoveData> >,0> >::const_iterator::_Mynode
  000ae	50		 push	 eax
  000af	6a 01		 push	 1
  000b1	8b 4d 08	 mov	 ecx, DWORD PTR ___$ReturnUdt$[ebp]
  000b4	51		 push	 ecx
  000b5	8b 4d fc	 mov	 ecx, DWORD PTR _this$[ebp]
  000b8	e8 00 00 00 00	 call	 ?_Insert@?$_Tree@V?$_Tmap_traits@PAUHWND__@@UWndMoveData@@U?$less@PAUHWND__@@@std@@V?$allocator@U?$pair@QAUHWND__@@UWndMoveData@@@std@@@4@$0A@@std@@@std@@IAE?AViterator@12@_NPAU_Node@?$_Tree_nod@V?$_Tmap_traits@PAUHWND__@@UWndMoveData@@U?$less@PAUHWND__@@@std@@V?$allocator@U?$pair@QAUHWND__@@UWndMoveData@@@std@@@4@$0A@@std@@@2@ABU?$pair@QAUHWND__@@UWndMoveData@@@2@@Z ; std::_Tree<std::_Tmap_traits<HWND__ *,WndMoveData,std::less<HWND__ *>,std::allocator<std::pair<HWND__ * const,WndMoveData> >,0> >::_Insert
  000bd	8b 45 08	 mov	 eax, DWORD PTR ___$ReturnUdt$[ebp]
  000c0	e9 0c 05 00 00	 jmp	 $L188571
$L188579:

; 520  : 				}
; 521  : 			else if (_Where == end())

  000c5	e9 3e 02 00 00	 jmp	 $L188581
$L188578:
  000ca	8d 55 e8	 lea	 edx, DWORD PTR $T189730[ebp]
  000cd	52		 push	 edx
  000ce	8b 4d fc	 mov	 ecx, DWORD PTR _this$[ebp]
  000d1	e8 00 00 00 00	 call	 ?end@?$_Tree@V?$_Tmap_traits@PAUHWND__@@UWndMoveData@@U?$less@PAUHWND__@@@std@@V?$allocator@U?$pair@QAUHWND__@@UWndMoveData@@@std@@@4@$0A@@std@@@std@@QAE?AViterator@12@XZ ; std::_Tree<std::_Tmap_traits<HWND__ *,WndMoveData,std::less<HWND__ *>,std::allocator<std::pair<HWND__ * const,WndMoveData> >,0> >::end
  000d6	50		 push	 eax
  000d7	8d 4d 0c	 lea	 ecx, DWORD PTR __Where$[ebp]
  000da	e8 00 00 00 00	 call	 ??8const_iterator@?$_Tree@V?$_Tmap_traits@PAUHWND__@@UWndMoveData@@U?$less@PAUHWND__@@@std@@V?$allocator@U?$pair@QAUHWND__@@UWndMoveData@@@std@@@4@$0A@@std@@@std@@QBE_NABV012@@Z ; std::_Tree<std::_Tmap_traits<HWND__ *,WndMoveData,std::less<HWND__ *>,std::allocator<std::pair<HWND__ * const,WndMoveData> >,0> >::const_iterator::operator==
  000df	0f b6 c0	 movzx	 eax, al
  000e2	85 c0		 test	 eax, eax
  000e4	74 5a		 je	 SHORT $L188583

; 522  : 				{	// insert at end if after last element
; 523  : 				if (!this->comp(this->_Kfn(_Val), _Key(_Rmost())))

  000e6	8b 4d fc	 mov	 ecx, DWORD PTR _this$[ebp]
  000e9	e8 00 00 00 00	 call	 ?_Rmost@?$_Tree@V?$_Tmap_traits@PAUHWND__@@UWndMoveData@@U?$less@PAUHWND__@@@std@@V?$allocator@U?$pair@QAUHWND__@@UWndMoveData@@@std@@@4@$0A@@std@@@std@@IAEAAPAU_Node@?$_Tree_nod@V?$_Tmap_traits@PAUHWND__@@UWndMoveData@@U?$less@PAUHWND__@@@std@@V?$allocator@U?$pair@QAUHWND__@@UWndMoveData@@@std@@@4@$0A@@std@@@2@XZ ; std::_Tree<std::_Tmap_traits<HWND__ *,WndMoveData,std::less<HWND__ *>,std::allocator<std::pair<HWND__ * const,WndMoveData> >,0> >::_Rmost
  000ee	8b 08		 mov	 ecx, DWORD PTR [eax]
  000f0	51		 push	 ecx
  000f1	e8 00 00 00 00	 call	 ?_Key@?$_Tree@V?$_Tmap_traits@PAUHWND__@@UWndMoveData@@U?$less@PAUHWND__@@@std@@V?$allocator@U?$pair@QAUHWND__@@UWndMoveData@@@std@@@4@$0A@@std@@@std@@KAABQAUHWND__@@PAU_Node@?$_Tree_nod@V?$_Tmap_traits@PAUHWND__@@UWndMoveData@@U?$less@PAUHWND__@@@std@@V?$allocator@U?$pair@QAUHWND__@@UWndMoveData@@@std@@@4@$0A@@std@@@2@@Z ; std::_Tree<std::_Tmap_traits<HWND__ *,WndMoveData,std::less<HWND__ *>,std::allocator<std::pair<HWND__ * const,WndMoveData> >,0> >::_Key
  000f6	83 c4 04	 add	 esp, 4
  000f9	50		 push	 eax
  000fa	8b 55 10	 mov	 edx, DWORD PTR __Val$[ebp]
  000fd	52		 push	 edx
  000fe	e8 00 00 00 00	 call	 ?_Kfn@?$_Tmap_traits@PAUHWND__@@UWndMoveData@@U?$less@PAUHWND__@@@std@@V?$allocator@U?$pair@QAUHWND__@@UWndMoveData@@@std@@@4@$0A@@std@@SAABQAUHWND__@@ABU?$pair@QAUHWND__@@UWndMoveData@@@2@@Z ; std::_Tmap_traits<HWND__ *,WndMoveData,std::less<HWND__ *>,std::allocator<std::pair<HWND__ * const,WndMoveData> >,0>::_Kfn
  00103	83 c4 04	 add	 esp, 4
  00106	50		 push	 eax
  00107	8b 4d fc	 mov	 ecx, DWORD PTR _this$[ebp]
  0010a	e8 00 00 00 00	 call	 ??R?$less@PAUHWND__@@@std@@QBE_NABQAUHWND__@@0@Z ; std::less<HWND__ *>::operator()
  0010f	0f b6 c0	 movzx	 eax, al
  00112	85 c0		 test	 eax, eax
  00114	75 25		 jne	 SHORT $L188584

; 524  : 					return (_Insert(false, _Rmost(), _Val));

  00116	8b 4d 10	 mov	 ecx, DWORD PTR __Val$[ebp]
  00119	51		 push	 ecx
  0011a	8b 4d fc	 mov	 ecx, DWORD PTR _this$[ebp]
  0011d	e8 00 00 00 00	 call	 ?_Rmost@?$_Tree@V?$_Tmap_traits@PAUHWND__@@UWndMoveData@@U?$less@PAUHWND__@@@std@@V?$allocator@U?$pair@QAUHWND__@@UWndMoveData@@@std@@@4@$0A@@std@@@std@@IAEAAPAU_Node@?$_Tree_nod@V?$_Tmap_traits@PAUHWND__@@UWndMoveData@@U?$less@PAUHWND__@@@std@@V?$allocator@U?$pair@QAUHWND__@@UWndMoveData@@@std@@@4@$0A@@std@@@2@XZ ; std::_Tree<std::_Tmap_traits<HWND__ *,WndMoveData,std::less<HWND__ *>,std::allocator<std::pair<HWND__ * const,WndMoveData> >,0> >::_Rmost
  00122	8b 10		 mov	 edx, DWORD PTR [eax]
  00124	52		 push	 edx
  00125	6a 00		 push	 0
  00127	8b 45 08	 mov	 eax, DWORD PTR ___$ReturnUdt$[ebp]
  0012a	50		 push	 eax
  0012b	8b 4d fc	 mov	 ecx, DWORD PTR _this$[ebp]
  0012e	e8 00 00 00 00	 call	 ?_Insert@?$_Tree@V?$_Tmap_traits@PAUHWND__@@UWndMoveData@@U?$less@PAUHWND__@@@std@@V?$allocator@U?$pair@QAUHWND__@@UWndMoveData@@@std@@@4@$0A@@std@@@std@@IAE?AViterator@12@_NPAU_Node@?$_Tree_nod@V?$_Tmap_traits@PAUHWND__@@UWndMoveData@@U?$less@PAUHWND__@@@std@@V?$allocator@U?$pair@QAUHWND__@@UWndMoveData@@@std@@@4@$0A@@std@@@2@ABU?$pair@QAUHWND__@@UWndMoveData@@@2@@Z ; std::_Tree<std::_Tmap_traits<HWND__ *,WndMoveData,std::less<HWND__ *>,std::allocator<std::pair<HWND__ * const,WndMoveData> >,0> >::_Insert
  00133	8b 45 08	 mov	 eax, DWORD PTR ___$ReturnUdt$[ebp]
  00136	e9 96 04 00 00	 jmp	 $L188571
$L188584:

; 525  : 				}
; 526  : 			else if (!this->comp(_Key(_Where._Mynode()), this->_Kfn(_Val))

  0013b	e9 c8 01 00 00	 jmp	 $L188581
$L188583:

; 527  : 				&& !this->comp(this->_Kfn(_Val),
; 528  : 					_Key((--(_Next = _Where))._Mynode())))

  00140	8b 4d 10	 mov	 ecx, DWORD PTR __Val$[ebp]
  00143	51		 push	 ecx
  00144	e8 00 00 00 00	 call	 ?_Kfn@?$_Tmap_traits@PAUHWND__@@UWndMoveData@@U?$less@PAUHWND__@@@std@@V?$allocator@U?$pair@QAUHWND__@@UWndMoveData@@@std@@@4@$0A@@std@@SAABQAUHWND__@@ABU?$pair@QAUHWND__@@UWndMoveData@@@2@@Z ; std::_Tmap_traits<HWND__ *,WndMoveData,std::less<HWND__ *>,std::allocator<std::pair<HWND__ * const,WndMoveData> >,0>::_Kfn
  00149	83 c4 04	 add	 esp, 4
  0014c	50		 push	 eax
  0014d	8d 4d 0c	 lea	 ecx, DWORD PTR __Where$[ebp]
  00150	e8 00 00 00 00	 call	 ?_Mynode@const_iterator@?$_Tree@V?$_Tmap_traits@PAUHWND__@@UWndMoveData@@U?$less@PAUHWND__@@@std@@V?$allocator@U?$pair@QAUHWND__@@UWndMoveData@@@std@@@4@$0A@@std@@@std@@QBEPAU_Node@?$_Tree_nod@V?$_Tmap_traits@PAUHWND__@@UWndMoveData@@U?$less@PAUHWND__@@@std@@V?$allocator@U?$pair@QAUHWND__@@UWndMoveData@@@std@@@4@$0A@@std@@@3@XZ ; std::_Tree<std::_Tmap_traits<HWND__ *,WndMoveData,std::less<HWND__ *>,std::allocator<std::pair<HWND__ * const,WndMoveData> >,0> >::const_iterator::_Mynode
  00155	50		 push	 eax
  00156	e8 00 00 00 00	 call	 ?_Key@?$_Tree@V?$_Tmap_traits@PAUHWND__@@UWndMoveData@@U?$less@PAUHWND__@@@std@@V?$allocator@U?$pair@QAUHWND__@@UWndMoveData@@@std@@@4@$0A@@std@@@std@@KAABQAUHWND__@@PAU_Node@?$_Tree_nod@V?$_Tmap_traits@PAUHWND__@@UWndMoveData@@U?$less@PAUHWND__@@@std@@V?$allocator@U?$pair@QAUHWND__@@UWndMoveData@@@std@@@4@$0A@@std@@@2@@Z ; std::_Tree<std::_Tmap_traits<HWND__ *,WndMoveData,std::less<HWND__ *>,std::allocator<std::pair<HWND__ * const,WndMoveData> >,0> >::_Key
  0015b	83 c4 04	 add	 esp, 4
  0015e	50		 push	 eax
  0015f	8b 4d fc	 mov	 ecx, DWORD PTR _this$[ebp]
  00162	e8 00 00 00 00	 call	 ??R?$less@PAUHWND__@@@std@@QBE_NABQAUHWND__@@0@Z ; std::less<HWND__ *>::operator()
  00167	0f b6 d0	 movzx	 edx, al
  0016a	85 d2		 test	 edx, edx
  0016c	0f 85 a4 00 00
	00		 jne	 $L188587
  00172	8b 45 0c	 mov	 eax, DWORD PTR __Where$[ebp]
  00175	89 45 f4	 mov	 DWORD PTR __Next$[ebp], eax
  00178	8d 4d f4	 lea	 ecx, DWORD PTR __Next$[ebp]
  0017b	e8 00 00 00 00	 call	 ??Fiterator@?$_Tree@V?$_Tmap_traits@PAUHWND__@@UWndMoveData@@U?$less@PAUHWND__@@@std@@V?$allocator@U?$pair@QAUHWND__@@UWndMoveData@@@std@@@4@$0A@@std@@@std@@QAEAAV012@XZ ; std::_Tree<std::_Tmap_traits<HWND__ *,WndMoveData,std::less<HWND__ *>,std::allocator<std::pair<HWND__ * const,WndMoveData> >,0> >::iterator::operator--
  00180	8b c8		 mov	 ecx, eax
  00182	e8 00 00 00 00	 call	 ?_Mynode@const_iterator@?$_Tree@V?$_Tmap_traits@PAUHWND__@@UWndMoveData@@U?$less@PAUHWND__@@@std@@V?$allocator@U?$pair@QAUHWND__@@UWndMoveData@@@std@@@4@$0A@@std@@@std@@QBEPAU_Node@?$_Tree_nod@V?$_Tmap_traits@PAUHWND__@@UWndMoveData@@U?$less@PAUHWND__@@@std@@V?$allocator@U?$pair@QAUHWND__@@UWndMoveData@@@std@@@4@$0A@@std@@@3@XZ ; std::_Tree<std::_Tmap_traits<HWND__ *,WndMoveData,std::less<HWND__ *>,std::allocator<std::pair<HWND__ * const,WndMoveData> >,0> >::const_iterator::_Mynode
  00187	50		 push	 eax
  00188	e8 00 00 00 00	 call	 ?_Key@?$_Tree@V?$_Tmap_traits@PAUHWND__@@UWndMoveData@@U?$less@PAUHWND__@@@std@@V?$allocator@U?$pair@QAUHWND__@@UWndMoveData@@@std@@@4@$0A@@std@@@std@@KAABQAUHWND__@@PAU_Node@?$_Tree_nod@V?$_Tmap_traits@PAUHWND__@@UWndMoveData@@U?$less@PAUHWND__@@@std@@V?$allocator@U?$pair@QAUHWND__@@UWndMoveData@@@std@@@4@$0A@@std@@@2@@Z ; std::_Tree<std::_Tmap_traits<HWND__ *,WndMoveData,std::less<HWND__ *>,std::allocator<std::pair<HWND__ * const,WndMoveData> >,0> >::_Key
  0018d	83 c4 04	 add	 esp, 4
  00190	50		 push	 eax
  00191	8b 4d 10	 mov	 ecx, DWORD PTR __Val$[ebp]
  00194	51		 push	 ecx
  00195	e8 00 00 00 00	 call	 ?_Kfn@?$_Tmap_traits@PAUHWND__@@UWndMoveData@@U?$less@PAUHWND__@@@std@@V?$allocator@U?$pair@QAUHWND__@@UWndMoveData@@@std@@@4@$0A@@std@@SAABQAUHWND__@@ABU?$pair@QAUHWND__@@UWndMoveData@@@2@@Z ; std::_Tmap_traits<HWND__ *,WndMoveData,std::less<HWND__ *>,std::allocator<std::pair<HWND__ * const,WndMoveData> >,0>::_Kfn
  0019a	83 c4 04	 add	 esp, 4
  0019d	50		 push	 eax
  0019e	8b 4d fc	 mov	 ecx, DWORD PTR _this$[ebp]
  001a1	e8 00 00 00 00	 call	 ??R?$less@PAUHWND__@@@std@@QBE_NABQAUHWND__@@0@Z ; std::less<HWND__ *>::operator()
  001a6	0f b6 d0	 movzx	 edx, al
  001a9	85 d2		 test	 edx, edx
  001ab	75 69		 jne	 SHORT $L188587

; 529  : 				{	// insert before _Where
; 530  : 				if (_Isnil(_Right(_Next._Mynode())))

  001ad	8d 4d f4	 lea	 ecx, DWORD PTR __Next$[ebp]
  001b0	e8 00 00 00 00	 call	 ?_Mynode@const_iterator@?$_Tree@V?$_Tmap_traits@PAUHWND__@@UWndMoveData@@U?$less@PAUHWND__@@@std@@V?$allocator@U?$pair@QAUHWND__@@UWndMoveData@@@std@@@4@$0A@@std@@@std@@QBEPAU_Node@?$_Tree_nod@V?$_Tmap_traits@PAUHWND__@@UWndMoveData@@U?$less@PAUHWND__@@@std@@V?$allocator@U?$pair@QAUHWND__@@UWndMoveData@@@std@@@4@$0A@@std@@@3@XZ ; std::_Tree<std::_Tmap_traits<HWND__ *,WndMoveData,std::less<HWND__ *>,std::allocator<std::pair<HWND__ * const,WndMoveData> >,0> >::const_iterator::_Mynode
  001b5	50		 push	 eax
  001b6	e8 00 00 00 00	 call	 ?_Right@?$_Tree@V?$_Tmap_traits@PAUHWND__@@UWndMoveData@@U?$less@PAUHWND__@@@std@@V?$allocator@U?$pair@QAUHWND__@@UWndMoveData@@@std@@@4@$0A@@std@@@std@@KAAAPAU_Node@?$_Tree_nod@V?$_Tmap_traits@PAUHWND__@@UWndMoveData@@U?$less@PAUHWND__@@@std@@V?$allocator@U?$pair@QAUHWND__@@UWndMoveData@@@std@@@4@$0A@@std@@@2@PAU342@@Z ; std::_Tree<std::_Tmap_traits<HWND__ *,WndMoveData,std::less<HWND__ *>,std::allocator<std::pair<HWND__ * const,WndMoveData> >,0> >::_Right
  001bb	83 c4 04	 add	 esp, 4
  001be	8b 00		 mov	 eax, DWORD PTR [eax]
  001c0	50		 push	 eax
  001c1	e8 00 00 00 00	 call	 ?_Isnil@?$_Tree@V?$_Tmap_traits@PAUHWND__@@UWndMoveData@@U?$less@PAUHWND__@@@std@@V?$allocator@U?$pair@QAUHWND__@@UWndMoveData@@@std@@@4@$0A@@std@@@std@@KAAADPAU_Node@?$_Tree_nod@V?$_Tmap_traits@PAUHWND__@@UWndMoveData@@U?$less@PAUHWND__@@@std@@V?$allocator@U?$pair@QAUHWND__@@UWndMoveData@@@std@@@4@$0A@@std@@@2@@Z ; std::_Tree<std::_Tmap_traits<HWND__ *,WndMoveData,std::less<HWND__ *>,std::allocator<std::pair<HWND__ * const,WndMoveData> >,0> >::_Isnil
  001c6	83 c4 04	 add	 esp, 4
  001c9	0f be 08	 movsx	 ecx, BYTE PTR [eax]
  001cc	85 c9		 test	 ecx, ecx
  001ce	74 23		 je	 SHORT $L188588

; 531  : 					return (_Insert(false, _Next._Mynode(), _Val));

  001d0	8b 55 10	 mov	 edx, DWORD PTR __Val$[ebp]
  001d3	52		 push	 edx
  001d4	8d 4d f4	 lea	 ecx, DWORD PTR __Next$[ebp]
  001d7	e8 00 00 00 00	 call	 ?_Mynode@const_iterator@?$_Tree@V?$_Tmap_traits@PAUHWND__@@UWndMoveData@@U?$less@PAUHWND__@@@std@@V?$allocator@U?$pair@QAUHWND__@@UWndMoveData@@@std@@@4@$0A@@std@@@std@@QBEPAU_Node@?$_Tree_nod@V?$_Tmap_traits@PAUHWND__@@UWndMoveData@@U?$less@PAUHWND__@@@std@@V?$allocator@U?$pair@QAUHWND__@@UWndMoveData@@@std@@@4@$0A@@std@@@3@XZ ; std::_Tree<std::_Tmap_traits<HWND__ *,WndMoveData,std::less<HWND__ *>,std::allocator<std::pair<HWND__ * const,WndMoveData> >,0> >::const_iterator::_Mynode
  001dc	50		 push	 eax
  001dd	6a 00		 push	 0
  001df	8b 45 08	 mov	 eax, DWORD PTR ___$ReturnUdt$[ebp]
  001e2	50		 push	 eax
  001e3	8b 4d fc	 mov	 ecx, DWORD PTR _this$[ebp]
  001e6	e8 00 00 00 00	 call	 ?_Insert@?$_Tree@V?$_Tmap_traits@PAUHWND__@@UWndMoveData@@U?$less@PAUHWND__@@@std@@V?$allocator@U?$pair@QAUHWND__@@UWndMoveData@@@std@@@4@$0A@@std@@@std@@IAE?AViterator@12@_NPAU_Node@?$_Tree_nod@V?$_Tmap_traits@PAUHWND__@@UWndMoveData@@U?$less@PAUHWND__@@@std@@V?$allocator@U?$pair@QAUHWND__@@UWndMoveData@@@std@@@4@$0A@@std@@@2@ABU?$pair@QAUHWND__@@UWndMoveData@@@2@@Z ; std::_Tree<std::_Tmap_traits<HWND__ *,WndMoveData,std::less<HWND__ *>,std::allocator<std::pair<HWND__ * const,WndMoveData> >,0> >::_Insert
  001eb	8b 45 08	 mov	 eax, DWORD PTR ___$ReturnUdt$[ebp]
  001ee	e9 de 03 00 00	 jmp	 $L188571
$L188588:

; 532  : 				else
; 533  : 					return (_Insert(true, _Where._Mynode(), _Val));

  001f3	8b 4d 10	 mov	 ecx, DWORD PTR __Val$[ebp]
  001f6	51		 push	 ecx
  001f7	8d 4d 0c	 lea	 ecx, DWORD PTR __Where$[ebp]
  001fa	e8 00 00 00 00	 call	 ?_Mynode@const_iterator@?$_Tree@V?$_Tmap_traits@PAUHWND__@@UWndMoveData@@U?$less@PAUHWND__@@@std@@V?$allocator@U?$pair@QAUHWND__@@UWndMoveData@@@std@@@4@$0A@@std@@@std@@QBEPAU_Node@?$_Tree_nod@V?$_Tmap_traits@PAUHWND__@@UWndMoveData@@U?$less@PAUHWND__@@@std@@V?$allocator@U?$pair@QAUHWND__@@UWndMoveData@@@std@@@4@$0A@@std@@@3@XZ ; std::_Tree<std::_Tmap_traits<HWND__ *,WndMoveData,std::less<HWND__ *>,std::allocator<std::pair<HWND__ * const,WndMoveData> >,0> >::const_iterator::_Mynode
  001ff	50		 push	 eax
  00200	6a 01		 push	 1
  00202	8b 55 08	 mov	 edx, DWORD PTR ___$ReturnUdt$[ebp]
  00205	52		 push	 edx
  00206	8b 4d fc	 mov	 ecx, DWORD PTR _this$[ebp]
  00209	e8 00 00 00 00	 call	 ?_Insert@?$_Tree@V?$_Tmap_traits@PAUHWND__@@UWndMoveData@@U?$less@PAUHWND__@@@std@@V?$allocator@U?$pair@QAUHWND__@@UWndMoveData@@@std@@@4@$0A@@std@@@std@@IAE?AViterator@12@_NPAU_Node@?$_Tree_nod@V?$_Tmap_traits@PAUHWND__@@UWndMoveData@@U?$less@PAUHWND__@@@std@@V?$allocator@U?$pair@QAUHWND__@@UWndMoveData@@@std@@@4@$0A@@std@@@2@ABU?$pair@QAUHWND__@@UWndMoveData@@@2@@Z ; std::_Tree<std::_Tmap_traits<HWND__ *,WndMoveData,std::less<HWND__ *>,std::allocator<std::pair<HWND__ * const,WndMoveData> >,0> >::_Insert
  0020e	8b 45 08	 mov	 eax, DWORD PTR ___$ReturnUdt$[ebp]
  00211	e9 bb 03 00 00	 jmp	 $L188571
$L188587:

; 534  : 				}
; 535  : 			else if (!this->comp(this->_Kfn(_Val), _Key(_Where._Mynode()))
; 536  : 				&& (++(_Next = _Where) == end()
; 537  : 					|| !this->comp(_Key(_Next._Mynode()),
; 538  : 						this->_Kfn(_Val))))

  00216	8d 4d 0c	 lea	 ecx, DWORD PTR __Where$[ebp]
  00219	e8 00 00 00 00	 call	 ?_Mynode@const_iterator@?$_Tree@V?$_Tmap_traits@PAUHWND__@@UWndMoveData@@U?$less@PAUHWND__@@@std@@V?$allocator@U?$pair@QAUHWND__@@UWndMoveData@@@std@@@4@$0A@@std@@@std@@QBEPAU_Node@?$_Tree_nod@V?$_Tmap_traits@PAUHWND__@@UWndMoveData@@U?$less@PAUHWND__@@@std@@V?$allocator@U?$pair@QAUHWND__@@UWndMoveData@@@std@@@4@$0A@@std@@@3@XZ ; std::_Tree<std::_Tmap_traits<HWND__ *,WndMoveData,std::less<HWND__ *>,std::allocator<std::pair<HWND__ * const,WndMoveData> >,0> >::const_iterator::_Mynode
  0021e	50		 push	 eax
  0021f	e8 00 00 00 00	 call	 ?_Key@?$_Tree@V?$_Tmap_traits@PAUHWND__@@UWndMoveData@@U?$less@PAUHWND__@@@std@@V?$allocator@U?$pair@QAUHWND__@@UWndMoveData@@@std@@@4@$0A@@std@@@std@@KAABQAUHWND__@@PAU_Node@?$_Tree_nod@V?$_Tmap_traits@PAUHWND__@@UWndMoveData@@U?$less@PAUHWND__@@@std@@V?$allocator@U?$pair@QAUHWND__@@UWndMoveData@@@std@@@4@$0A@@std@@@2@@Z ; std::_Tree<std::_Tmap_traits<HWND__ *,WndMoveData,std::less<HWND__ *>,std::allocator<std::pair<HWND__ * const,WndMoveData> >,0> >::_Key
  00224	83 c4 04	 add	 esp, 4
  00227	50		 push	 eax
  00228	8b 45 10	 mov	 eax, DWORD PTR __Val$[ebp]
  0022b	50		 push	 eax
  0022c	e8 00 00 00 00	 call	 ?_Kfn@?$_Tmap_traits@PAUHWND__@@UWndMoveData@@U?$less@PAUHWND__@@@std@@V?$allocator@U?$pair@QAUHWND__@@UWndMoveData@@@std@@@4@$0A@@std@@SAABQAUHWND__@@ABU?$pair@QAUHWND__@@UWndMoveData@@@2@@Z ; std::_Tmap_traits<HWND__ *,WndMoveData,std::less<HWND__ *>,std::allocator<std::pair<HWND__ * const,WndMoveData> >,0>::_Kfn
  00231	83 c4 04	 add	 esp, 4
  00234	50		 push	 eax
  00235	8b 4d fc	 mov	 ecx, DWORD PTR _this$[ebp]
  00238	e8 00 00 00 00	 call	 ??R?$less@PAUHWND__@@@std@@QBE_NABQAUHWND__@@0@Z ; std::less<HWND__ *>::operator()
  0023d	0f b6 c8	 movzx	 ecx, al
  00240	85 c9		 test	 ecx, ecx
  00242	0f 85 c0 00 00
	00		 jne	 $L188581
  00248	8b 55 0c	 mov	 edx, DWORD PTR __Where$[ebp]
  0024b	89 55 f4	 mov	 DWORD PTR __Next$[ebp], edx
  0024e	8d 45 e4	 lea	 eax, DWORD PTR $T189731[ebp]
  00251	50		 push	 eax
  00252	8b 4d fc	 mov	 ecx, DWORD PTR _this$[ebp]
  00255	e8 00 00 00 00	 call	 ?end@?$_Tree@V?$_Tmap_traits@PAUHWND__@@UWndMoveData@@U?$less@PAUHWND__@@@std@@V?$allocator@U?$pair@QAUHWND__@@UWndMoveData@@@std@@@4@$0A@@std@@@std@@QAE?AViterator@12@XZ ; std::_Tree<std::_Tmap_traits<HWND__ *,WndMoveData,std::less<HWND__ *>,std::allocator<std::pair<HWND__ * const,WndMoveData> >,0> >::end
  0025a	50		 push	 eax
  0025b	8d 4d f4	 lea	 ecx, DWORD PTR __Next$[ebp]
  0025e	e8 00 00 00 00	 call	 ??Eiterator@?$_Tree@V?$_Tmap_traits@PAUHWND__@@UWndMoveData@@U?$less@PAUHWND__@@@std@@V?$allocator@U?$pair@QAUHWND__@@UWndMoveData@@@std@@@4@$0A@@std@@@std@@QAEAAV012@XZ ; std::_Tree<std::_Tmap_traits<HWND__ *,WndMoveData,std::less<HWND__ *>,std::allocator<std::pair<HWND__ * const,WndMoveData> >,0> >::iterator::operator++
  00263	8b c8		 mov	 ecx, eax
  00265	e8 00 00 00 00	 call	 ??8const_iterator@?$_Tree@V?$_Tmap_traits@PAUHWND__@@UWndMoveData@@U?$less@PAUHWND__@@@std@@V?$allocator@U?$pair@QAUHWND__@@UWndMoveData@@@std@@@4@$0A@@std@@@std@@QBE_NABV012@@Z ; std::_Tree<std::_Tmap_traits<HWND__ *,WndMoveData,std::less<HWND__ *>,std::allocator<std::pair<HWND__ * const,WndMoveData> >,0> >::const_iterator::operator==
  0026a	0f b6 c8	 movzx	 ecx, al
  0026d	85 c9		 test	 ecx, ecx
  0026f	75 2e		 jne	 SHORT $L188595
  00271	8b 55 10	 mov	 edx, DWORD PTR __Val$[ebp]
  00274	52		 push	 edx
  00275	e8 00 00 00 00	 call	 ?_Kfn@?$_Tmap_traits@PAUHWND__@@UWndMoveData@@U?$less@PAUHWND__@@@std@@V?$allocator@U?$pair@QAUHWND__@@UWndMoveData@@@std@@@4@$0A@@std@@SAABQAUHWND__@@ABU?$pair@QAUHWND__@@UWndMoveData@@@2@@Z ; std::_Tmap_traits<HWND__ *,WndMoveData,std::less<HWND__ *>,std::allocator<std::pair<HWND__ * const,WndMoveData> >,0>::_Kfn
  0027a	83 c4 04	 add	 esp, 4
  0027d	50		 push	 eax
  0027e	8d 4d f4	 lea	 ecx, DWORD PTR __Next$[ebp]
  00281	e8 00 00 00 00	 call	 ?_Mynode@const_iterator@?$_Tree@V?$_Tmap_traits@PAUHWND__@@UWndMoveData@@U?$less@PAUHWND__@@@std@@V?$allocator@U?$pair@QAUHWND__@@UWndMoveData@@@std@@@4@$0A@@std@@@std@@QBEPAU_Node@?$_Tree_nod@V?$_Tmap_traits@PAUHWND__@@UWndMoveData@@U?$less@PAUHWND__@@@std@@V?$allocator@U?$pair@QAUHWND__@@UWndMoveData@@@std@@@4@$0A@@std@@@3@XZ ; std::_Tree<std::_Tmap_traits<HWND__ *,WndMoveData,std::less<HWND__ *>,std::allocator<std::pair<HWND__ * const,WndMoveData> >,0> >::const_iterator::_Mynode
  00286	50		 push	 eax
  00287	e8 00 00 00 00	 call	 ?_Key@?$_Tree@V?$_Tmap_traits@PAUHWND__@@UWndMoveData@@U?$less@PAUHWND__@@@std@@V?$allocator@U?$pair@QAUHWND__@@UWndMoveData@@@std@@@4@$0A@@std@@@std@@KAABQAUHWND__@@PAU_Node@?$_Tree_nod@V?$_Tmap_traits@PAUHWND__@@UWndMoveData@@U?$less@PAUHWND__@@@std@@V?$allocator@U?$pair@QAUHWND__@@UWndMoveData@@@std@@@4@$0A@@std@@@2@@Z ; std::_Tree<std::_Tmap_traits<HWND__ *,WndMoveData,std::less<HWND__ *>,std::allocator<std::pair<HWND__ * const,WndMoveData> >,0> >::_Key
  0028c	83 c4 04	 add	 esp, 4
  0028f	50		 push	 eax
  00290	8b 4d fc	 mov	 ecx, DWORD PTR _this$[ebp]
  00293	e8 00 00 00 00	 call	 ??R?$less@PAUHWND__@@@std@@QBE_NABQAUHWND__@@0@Z ; std::less<HWND__ *>::operator()
  00298	0f b6 c0	 movzx	 eax, al
  0029b	85 c0		 test	 eax, eax
  0029d	75 69		 jne	 SHORT $L188581
$L188595:

; 539  : 				{	// insert after _Where
; 540  : 				if (_Isnil(_Right(_Where._Mynode())))

  0029f	8d 4d 0c	 lea	 ecx, DWORD PTR __Where$[ebp]
  002a2	e8 00 00 00 00	 call	 ?_Mynode@const_iterator@?$_Tree@V?$_Tmap_traits@PAUHWND__@@UWndMoveData@@U?$less@PAUHWND__@@@std@@V?$allocator@U?$pair@QAUHWND__@@UWndMoveData@@@std@@@4@$0A@@std@@@std@@QBEPAU_Node@?$_Tree_nod@V?$_Tmap_traits@PAUHWND__@@UWndMoveData@@U?$less@PAUHWND__@@@std@@V?$allocator@U?$pair@QAUHWND__@@UWndMoveData@@@std@@@4@$0A@@std@@@3@XZ ; std::_Tree<std::_Tmap_traits<HWND__ *,WndMoveData,std::less<HWND__ *>,std::allocator<std::pair<HWND__ * const,WndMoveData> >,0> >::const_iterator::_Mynode
  002a7	50		 push	 eax
  002a8	e8 00 00 00 00	 call	 ?_Right@?$_Tree@V?$_Tmap_traits@PAUHWND__@@UWndMoveData@@U?$less@PAUHWND__@@@std@@V?$allocator@U?$pair@QAUHWND__@@UWndMoveData@@@std@@@4@$0A@@std@@@std@@KAAAPAU_Node@?$_Tree_nod@V?$_Tmap_traits@PAUHWND__@@UWndMoveData@@U?$less@PAUHWND__@@@std@@V?$allocator@U?$pair@QAUHWND__@@UWndMoveData@@@std@@@4@$0A@@std@@@2@PAU342@@Z ; std::_Tree<std::_Tmap_traits<HWND__ *,WndMoveData,std::less<HWND__ *>,std::allocator<std::pair<HWND__ * const,WndMoveData> >,0> >::_Right
  002ad	83 c4 04	 add	 esp, 4
  002b0	8b 08		 mov	 ecx, DWORD PTR [eax]
  002b2	51		 push	 ecx
  002b3	e8 00 00 00 00	 call	 ?_Isnil@?$_Tree@V?$_Tmap_traits@PAUHWND__@@UWndMoveData@@U?$less@PAUHWND__@@@std@@V?$allocator@U?$pair@QAUHWND__@@UWndMoveData@@@std@@@4@$0A@@std@@@std@@KAAADPAU_Node@?$_Tree_nod@V?$_Tmap_traits@PAUHWND__@@UWndMoveData@@U?$less@PAUHWND__@@@std@@V?$allocator@U?$pair@QAUHWND__@@UWndMoveData@@@std@@@4@$0A@@std@@@2@@Z ; std::_Tree<std::_Tmap_traits<HWND__ *,WndMoveData,std::less<HWND__ *>,std::allocator<std::pair<HWND__ * const,WndMoveData> >,0> >::_Isnil
  002b8	83 c4 04	 add	 esp, 4
  002bb	0f be 10	 movsx	 edx, BYTE PTR [eax]
  002be	85 d2		 test	 edx, edx
  002c0	74 23		 je	 SHORT $L188596

; 541  : 					return (_Insert(false, _Where._Mynode(), _Val));

  002c2	8b 45 10	 mov	 eax, DWORD PTR __Val$[ebp]
  002c5	50		 push	 eax
  002c6	8d 4d 0c	 lea	 ecx, DWORD PTR __Where$[ebp]
  002c9	e8 00 00 00 00	 call	 ?_Mynode@const_iterator@?$_Tree@V?$_Tmap_traits@PAUHWND__@@UWndMoveData@@U?$less@PAUHWND__@@@std@@V?$allocator@U?$pair@QAUHWND__@@UWndMoveData@@@std@@@4@$0A@@std@@@std@@QBEPAU_Node@?$_Tree_nod@V?$_Tmap_traits@PAUHWND__@@UWndMoveData@@U?$less@PAUHWND__@@@std@@V?$allocator@U?$pair@QAUHWND__@@UWndMoveData@@@std@@@4@$0A@@std@@@3@XZ ; std::_Tree<std::_Tmap_traits<HWND__ *,WndMoveData,std::less<HWND__ *>,std::allocator<std::pair<HWND__ * const,WndMoveData> >,0> >::const_iterator::_Mynode
  002ce	50		 push	 eax
  002cf	6a 00		 push	 0
  002d1	8b 4d 08	 mov	 ecx, DWORD PTR ___$ReturnUdt$[ebp]
  002d4	51		 push	 ecx
  002d5	8b 4d fc	 mov	 ecx, DWORD PTR _this$[ebp]
  002d8	e8 00 00 00 00	 call	 ?_Insert@?$_Tree@V?$_Tmap_traits@PAUHWND__@@UWndMoveData@@U?$less@PAUHWND__@@@std@@V?$allocator@U?$pair@QAUHWND__@@UWndMoveData@@@std@@@4@$0A@@std@@@std@@IAE?AViterator@12@_NPAU_Node@?$_Tree_nod@V?$_Tmap_traits@PAUHWND__@@UWndMoveData@@U?$less@PAUHWND__@@@std@@V?$allocator@U?$pair@QAUHWND__@@UWndMoveData@@@std@@@4@$0A@@std@@@2@ABU?$pair@QAUHWND__@@UWndMoveData@@@2@@Z ; std::_Tree<std::_Tmap_traits<HWND__ *,WndMoveData,std::less<HWND__ *>,std::allocator<std::pair<HWND__ * const,WndMoveData> >,0> >::_Insert
  002dd	8b 45 08	 mov	 eax, DWORD PTR ___$ReturnUdt$[ebp]
  002e0	e9 ec 02 00 00	 jmp	 $L188571
$L188596:

; 542  : 				else
; 543  : 					return (_Insert(true, _Next._Mynode(), _Val));

  002e5	8b 55 10	 mov	 edx, DWORD PTR __Val$[ebp]
  002e8	52		 push	 edx
  002e9	8d 4d f4	 lea	 ecx, DWORD PTR __Next$[ebp]
  002ec	e8 00 00 00 00	 call	 ?_Mynode@const_iterator@?$_Tree@V?$_Tmap_traits@PAUHWND__@@UWndMoveData@@U?$less@PAUHWND__@@@std@@V?$allocator@U?$pair@QAUHWND__@@UWndMoveData@@@std@@@4@$0A@@std@@@std@@QBEPAU_Node@?$_Tree_nod@V?$_Tmap_traits@PAUHWND__@@UWndMoveData@@U?$less@PAUHWND__@@@std@@V?$allocator@U?$pair@QAUHWND__@@UWndMoveData@@@std@@@4@$0A@@std@@@3@XZ ; std::_Tree<std::_Tmap_traits<HWND__ *,WndMoveData,std::less<HWND__ *>,std::allocator<std::pair<HWND__ * const,WndMoveData> >,0> >::const_iterator::_Mynode
  002f1	50		 push	 eax
  002f2	6a 01		 push	 1
  002f4	8b 45 08	 mov	 eax, DWORD PTR ___$ReturnUdt$[ebp]
  002f7	50		 push	 eax
  002f8	8b 4d fc	 mov	 ecx, DWORD PTR _this$[ebp]
  002fb	e8 00 00 00 00	 call	 ?_Insert@?$_Tree@V?$_Tmap_traits@PAUHWND__@@UWndMoveData@@U?$less@PAUHWND__@@@std@@V?$allocator@U?$pair@QAUHWND__@@UWndMoveData@@@std@@@4@$0A@@std@@@std@@IAE?AViterator@12@_NPAU_Node@?$_Tree_nod@V?$_Tmap_traits@PAUHWND__@@UWndMoveData@@U?$less@PAUHWND__@@@std@@V?$allocator@U?$pair@QAUHWND__@@UWndMoveData@@@std@@@4@$0A@@std@@@2@ABU?$pair@QAUHWND__@@UWndMoveData@@@2@@Z ; std::_Tree<std::_Tmap_traits<HWND__ *,WndMoveData,std::less<HWND__ *>,std::allocator<std::pair<HWND__ * const,WndMoveData> >,0> >::_Insert
  00300	8b 45 08	 mov	 eax, DWORD PTR ___$ReturnUdt$[ebp]
  00303	e9 c9 02 00 00	 jmp	 $L188571
$L188581:

; 544  : 				}
; 545  : 			}
; 546  : 		else

  00308	e9 aa 02 00 00	 jmp	 $L188575
$L188576:

; 547  : 			{	// insert only if unique
; 548  : 			if (_Where == begin())

  0030d	8d 4d e0	 lea	 ecx, DWORD PTR $T189732[ebp]
  00310	51		 push	 ecx
  00311	8b 4d fc	 mov	 ecx, DWORD PTR _this$[ebp]
  00314	e8 00 00 00 00	 call	 ?begin@?$_Tree@V?$_Tmap_traits@PAUHWND__@@UWndMoveData@@U?$less@PAUHWND__@@@std@@V?$allocator@U?$pair@QAUHWND__@@UWndMoveData@@@std@@@4@$0A@@std@@@std@@QAE?AViterator@12@XZ ; std::_Tree<std::_Tmap_traits<HWND__ *,WndMoveData,std::less<HWND__ *>,std::allocator<std::pair<HWND__ * const,WndMoveData> >,0> >::begin
  00319	50		 push	 eax
  0031a	8d 4d 0c	 lea	 ecx, DWORD PTR __Where$[ebp]
  0031d	e8 00 00 00 00	 call	 ??8const_iterator@?$_Tree@V?$_Tmap_traits@PAUHWND__@@UWndMoveData@@U?$less@PAUHWND__@@@std@@V?$allocator@U?$pair@QAUHWND__@@UWndMoveData@@@std@@@4@$0A@@std@@@std@@QBE_NABV012@@Z ; std::_Tree<std::_Tmap_traits<HWND__ *,WndMoveData,std::less<HWND__ *>,std::allocator<std::pair<HWND__ * const,WndMoveData> >,0> >::const_iterator::operator==
  00322	0f b6 d0	 movzx	 edx, al
  00325	85 d2		 test	 edx, edx
  00327	74 56		 je	 SHORT $L188602

; 549  : 				{	// insert at beginning if before first element
; 550  : 				if (this->comp(this->_Kfn(_Val), _Key(_Where._Mynode())))

  00329	8d 4d 0c	 lea	 ecx, DWORD PTR __Where$[ebp]
  0032c	e8 00 00 00 00	 call	 ?_Mynode@const_iterator@?$_Tree@V?$_Tmap_traits@PAUHWND__@@UWndMoveData@@U?$less@PAUHWND__@@@std@@V?$allocator@U?$pair@QAUHWND__@@UWndMoveData@@@std@@@4@$0A@@std@@@std@@QBEPAU_Node@?$_Tree_nod@V?$_Tmap_traits@PAUHWND__@@UWndMoveData@@U?$less@PAUHWND__@@@std@@V?$allocator@U?$pair@QAUHWND__@@UWndMoveData@@@std@@@4@$0A@@std@@@3@XZ ; std::_Tree<std::_Tmap_traits<HWND__ *,WndMoveData,std::less<HWND__ *>,std::allocator<std::pair<HWND__ * const,WndMoveData> >,0> >::const_iterator::_Mynode
  00331	50		 push	 eax
  00332	e8 00 00 00 00	 call	 ?_Key@?$_Tree@V?$_Tmap_traits@PAUHWND__@@UWndMoveData@@U?$less@PAUHWND__@@@std@@V?$allocator@U?$pair@QAUHWND__@@UWndMoveData@@@std@@@4@$0A@@std@@@std@@KAABQAUHWND__@@PAU_Node@?$_Tree_nod@V?$_Tmap_traits@PAUHWND__@@UWndMoveData@@U?$less@PAUHWND__@@@std@@V?$allocator@U?$pair@QAUHWND__@@UWndMoveData@@@std@@@4@$0A@@std@@@2@@Z ; std::_Tree<std::_Tmap_traits<HWND__ *,WndMoveData,std::less<HWND__ *>,std::allocator<std::pair<HWND__ * const,WndMoveData> >,0> >::_Key
  00337	83 c4 04	 add	 esp, 4
  0033a	50		 push	 eax
  0033b	8b 45 10	 mov	 eax, DWORD PTR __Val$[ebp]
  0033e	50		 push	 eax
  0033f	e8 00 00 00 00	 call	 ?_Kfn@?$_Tmap_traits@PAUHWND__@@UWndMoveData@@U?$less@PAUHWND__@@@std@@V?$allocator@U?$pair@QAUHWND__@@UWndMoveData@@@std@@@4@$0A@@std@@SAABQAUHWND__@@ABU?$pair@QAUHWND__@@UWndMoveData@@@2@@Z ; std::_Tmap_traits<HWND__ *,WndMoveData,std::less<HWND__ *>,std::allocator<std::pair<HWND__ * const,WndMoveData> >,0>::_Kfn
  00344	83 c4 04	 add	 esp, 4
  00347	50		 push	 eax
  00348	8b 4d fc	 mov	 ecx, DWORD PTR _this$[ebp]
  0034b	e8 00 00 00 00	 call	 ??R?$less@PAUHWND__@@@std@@QBE_NABQAUHWND__@@0@Z ; std::less<HWND__ *>::operator()
  00350	0f b6 c8	 movzx	 ecx, al
  00353	85 c9		 test	 ecx, ecx
  00355	74 23		 je	 SHORT $L188603

; 551  : 					return (_Insert(true, _Where._Mynode(), _Val));

  00357	8b 55 10	 mov	 edx, DWORD PTR __Val$[ebp]
  0035a	52		 push	 edx
  0035b	8d 4d 0c	 lea	 ecx, DWORD PTR __Where$[ebp]
  0035e	e8 00 00 00 00	 call	 ?_Mynode@const_iterator@?$_Tree@V?$_Tmap_traits@PAUHWND__@@UWndMoveData@@U?$less@PAUHWND__@@@std@@V?$allocator@U?$pair@QAUHWND__@@UWndMoveData@@@std@@@4@$0A@@std@@@std@@QBEPAU_Node@?$_Tree_nod@V?$_Tmap_traits@PAUHWND__@@UWndMoveData@@U?$less@PAUHWND__@@@std@@V?$allocator@U?$pair@QAUHWND__@@UWndMoveData@@@std@@@4@$0A@@std@@@3@XZ ; std::_Tree<std::_Tmap_traits<HWND__ *,WndMoveData,std::less<HWND__ *>,std::allocator<std::pair<HWND__ * const,WndMoveData> >,0> >::const_iterator::_Mynode
  00363	50		 push	 eax
  00364	6a 01		 push	 1
  00366	8b 45 08	 mov	 eax, DWORD PTR ___$ReturnUdt$[ebp]
  00369	50		 push	 eax
  0036a	8b 4d fc	 mov	 ecx, DWORD PTR _this$[ebp]
  0036d	e8 00 00 00 00	 call	 ?_Insert@?$_Tree@V?$_Tmap_traits@PAUHWND__@@UWndMoveData@@U?$less@PAUHWND__@@@std@@V?$allocator@U?$pair@QAUHWND__@@UWndMoveData@@@std@@@4@$0A@@std@@@std@@IAE?AViterator@12@_NPAU_Node@?$_Tree_nod@V?$_Tmap_traits@PAUHWND__@@UWndMoveData@@U?$less@PAUHWND__@@@std@@V?$allocator@U?$pair@QAUHWND__@@UWndMoveData@@@std@@@4@$0A@@std@@@2@ABU?$pair@QAUHWND__@@UWndMoveData@@@2@@Z ; std::_Tree<std::_Tmap_traits<HWND__ *,WndMoveData,std::less<HWND__ *>,std::allocator<std::pair<HWND__ * const,WndMoveData> >,0> >::_Insert
  00372	8b 45 08	 mov	 eax, DWORD PTR ___$ReturnUdt$[ebp]
  00375	e9 57 02 00 00	 jmp	 $L188571
$L188603:

; 552  : 				}
; 553  : 			else if (_Where == end())

  0037a	e9 38 02 00 00	 jmp	 $L188575
$L188602:
  0037f	8d 4d dc	 lea	 ecx, DWORD PTR $T189733[ebp]
  00382	51		 push	 ecx
  00383	8b 4d fc	 mov	 ecx, DWORD PTR _this$[ebp]
  00386	e8 00 00 00 00	 call	 ?end@?$_Tree@V?$_Tmap_traits@PAUHWND__@@UWndMoveData@@U?$less@PAUHWND__@@@std@@V?$allocator@U?$pair@QAUHWND__@@UWndMoveData@@@std@@@4@$0A@@std@@@std@@QAE?AViterator@12@XZ ; std::_Tree<std::_Tmap_traits<HWND__ *,WndMoveData,std::less<HWND__ *>,std::allocator<std::pair<HWND__ * const,WndMoveData> >,0> >::end
  0038b	50		 push	 eax
  0038c	8d 4d 0c	 lea	 ecx, DWORD PTR __Where$[ebp]
  0038f	e8 00 00 00 00	 call	 ??8const_iterator@?$_Tree@V?$_Tmap_traits@PAUHWND__@@UWndMoveData@@U?$less@PAUHWND__@@@std@@V?$allocator@U?$pair@QAUHWND__@@UWndMoveData@@@std@@@4@$0A@@std@@@std@@QBE_NABV012@@Z ; std::_Tree<std::_Tmap_traits<HWND__ *,WndMoveData,std::less<HWND__ *>,std::allocator<std::pair<HWND__ * const,WndMoveData> >,0> >::const_iterator::operator==
  00394	0f b6 d0	 movzx	 edx, al
  00397	85 d2		 test	 edx, edx
  00399	74 5a		 je	 SHORT $L188607

; 554  : 				{	// insert at end if after last element
; 555  : 				if (this->comp(_Key(_Rmost()), this->_Kfn(_Val)))

  0039b	8b 45 10	 mov	 eax, DWORD PTR __Val$[ebp]
  0039e	50		 push	 eax
  0039f	e8 00 00 00 00	 call	 ?_Kfn@?$_Tmap_traits@PAUHWND__@@UWndMoveData@@U?$less@PAUHWND__@@@std@@V?$allocator@U?$pair@QAUHWND__@@UWndMoveData@@@std@@@4@$0A@@std@@SAABQAUHWND__@@ABU?$pair@QAUHWND__@@UWndMoveData@@@2@@Z ; std::_Tmap_traits<HWND__ *,WndMoveData,std::less<HWND__ *>,std::allocator<std::pair<HWND__ * const,WndMoveData> >,0>::_Kfn
  003a4	83 c4 04	 add	 esp, 4
  003a7	50		 push	 eax
  003a8	8b 4d fc	 mov	 ecx, DWORD PTR _this$[ebp]
  003ab	e8 00 00 00 00	 call	 ?_Rmost@?$_Tree@V?$_Tmap_traits@PAUHWND__@@UWndMoveData@@U?$less@PAUHWND__@@@std@@V?$allocator@U?$pair@QAUHWND__@@UWndMoveData@@@std@@@4@$0A@@std@@@std@@IAEAAPAU_Node@?$_Tree_nod@V?$_Tmap_traits@PAUHWND__@@UWndMoveData@@U?$less@PAUHWND__@@@std@@V?$allocator@U?$pair@QAUHWND__@@UWndMoveData@@@std@@@4@$0A@@std@@@2@XZ ; std::_Tree<std::_Tmap_traits<HWND__ *,WndMoveData,std::less<HWND__ *>,std::allocator<std::pair<HWND__ * const,WndMoveData> >,0> >::_Rmost
  003b0	8b 08		 mov	 ecx, DWORD PTR [eax]
  003b2	51		 push	 ecx
  003b3	e8 00 00 00 00	 call	 ?_Key@?$_Tree@V?$_Tmap_traits@PAUHWND__@@UWndMoveData@@U?$less@PAUHWND__@@@std@@V?$allocator@U?$pair@QAUHWND__@@UWndMoveData@@@std@@@4@$0A@@std@@@std@@KAABQAUHWND__@@PAU_Node@?$_Tree_nod@V?$_Tmap_traits@PAUHWND__@@UWndMoveData@@U?$less@PAUHWND__@@@std@@V?$allocator@U?$pair@QAUHWND__@@UWndMoveData@@@std@@@4@$0A@@std@@@2@@Z ; std::_Tree<std::_Tmap_traits<HWND__ *,WndMoveData,std::less<HWND__ *>,std::allocator<std::pair<HWND__ * const,WndMoveData> >,0> >::_Key
  003b8	83 c4 04	 add	 esp, 4
  003bb	50		 push	 eax
  003bc	8b 4d fc	 mov	 ecx, DWORD PTR _this$[ebp]
  003bf	e8 00 00 00 00	 call	 ??R?$less@PAUHWND__@@@std@@QBE_NABQAUHWND__@@0@Z ; std::less<HWND__ *>::operator()
  003c4	0f b6 d0	 movzx	 edx, al
  003c7	85 d2		 test	 edx, edx
  003c9	74 25		 je	 SHORT $L188608

; 556  : 					return (_Insert(false, _Rmost(), _Val));

  003cb	8b 45 10	 mov	 eax, DWORD PTR __Val$[ebp]
  003ce	50		 push	 eax
  003cf	8b 4d fc	 mov	 ecx, DWORD PTR _this$[ebp]
  003d2	e8 00 00 00 00	 call	 ?_Rmost@?$_Tree@V?$_Tmap_traits@PAUHWND__@@UWndMoveData@@U?$less@PAUHWND__@@@std@@V?$allocator@U?$pair@QAUHWND__@@UWndMoveData@@@std@@@4@$0A@@std@@@std@@IAEAAPAU_Node@?$_Tree_nod@V?$_Tmap_traits@PAUHWND__@@UWndMoveData@@U?$less@PAUHWND__@@@std@@V?$allocator@U?$pair@QAUHWND__@@UWndMoveData@@@std@@@4@$0A@@std@@@2@XZ ; std::_Tree<std::_Tmap_traits<HWND__ *,WndMoveData,std::less<HWND__ *>,std::allocator<std::pair<HWND__ * const,WndMoveData> >,0> >::_Rmost
  003d7	8b 08		 mov	 ecx, DWORD PTR [eax]
  003d9	51		 push	 ecx
  003da	6a 00		 push	 0
  003dc	8b 55 08	 mov	 edx, DWORD PTR ___$ReturnUdt$[ebp]
  003df	52		 push	 edx
  003e0	8b 4d fc	 mov	 ecx, DWORD PTR _this$[ebp]
  003e3	e8 00 00 00 00	 call	 ?_Insert@?$_Tree@V?$_Tmap_traits@PAUHWND__@@UWndMoveData@@U?$less@PAUHWND__@@@std@@V?$allocator@U?$pair@QAUHWND__@@UWndMoveData@@@std@@@4@$0A@@std@@@std@@IAE?AViterator@12@_NPAU_Node@?$_Tree_nod@V?$_Tmap_traits@PAUHWND__@@UWndMoveData@@U?$less@PAUHWND__@@@std@@V?$allocator@U?$pair@QAUHWND__@@UWndMoveData@@@std@@@4@$0A@@std@@@2@ABU?$pair@QAUHWND__@@UWndMoveData@@@2@@Z ; std::_Tree<std::_Tmap_traits<HWND__ *,WndMoveData,std::less<HWND__ *>,std::allocator<std::pair<HWND__ * const,WndMoveData> >,0> >::_Insert
  003e8	8b 45 08	 mov	 eax, DWORD PTR ___$ReturnUdt$[ebp]
  003eb	e9 e1 01 00 00	 jmp	 $L188571
$L188608:

; 557  : 				}
; 558  : 			else if (this->comp(this->_Kfn(_Val), _Key(_Where._Mynode()))

  003f0	e9 c2 01 00 00	 jmp	 $L188575
$L188607:

; 559  : 				&& this->comp(_Key((--(_Next = _Where))._Mynode()),
; 560  : 					this->_Kfn(_Val)))

  003f5	8d 4d 0c	 lea	 ecx, DWORD PTR __Where$[ebp]
  003f8	e8 00 00 00 00	 call	 ?_Mynode@const_iterator@?$_Tree@V?$_Tmap_traits@PAUHWND__@@UWndMoveData@@U?$less@PAUHWND__@@@std@@V?$allocator@U?$pair@QAUHWND__@@UWndMoveData@@@std@@@4@$0A@@std@@@std@@QBEPAU_Node@?$_Tree_nod@V?$_Tmap_traits@PAUHWND__@@UWndMoveData@@U?$less@PAUHWND__@@@std@@V?$allocator@U?$pair@QAUHWND__@@UWndMoveData@@@std@@@4@$0A@@std@@@3@XZ ; std::_Tree<std::_Tmap_traits<HWND__ *,WndMoveData,std::less<HWND__ *>,std::allocator<std::pair<HWND__ * const,WndMoveData> >,0> >::const_iterator::_Mynode
  003fd	50		 push	 eax
  003fe	e8 00 00 00 00	 call	 ?_Key@?$_Tree@V?$_Tmap_traits@PAUHWND__@@UWndMoveData@@U?$less@PAUHWND__@@@std@@V?$allocator@U?$pair@QAUHWND__@@UWndMoveData@@@std@@@4@$0A@@std@@@std@@KAABQAUHWND__@@PAU_Node@?$_Tree_nod@V?$_Tmap_traits@PAUHWND__@@UWndMoveData@@U?$less@PAUHWND__@@@std@@V?$allocator@U?$pair@QAUHWND__@@UWndMoveData@@@std@@@4@$0A@@std@@@2@@Z ; std::_Tree<std::_Tmap_traits<HWND__ *,WndMoveData,std::less<HWND__ *>,std::allocator<std::pair<HWND__ * const,WndMoveData> >,0> >::_Key
  00403	83 c4 04	 add	 esp, 4
  00406	50		 push	 eax
  00407	8b 45 10	 mov	 eax, DWORD PTR __Val$[ebp]
  0040a	50		 push	 eax
  0040b	e8 00 00 00 00	 call	 ?_Kfn@?$_Tmap_traits@PAUHWND__@@UWndMoveData@@U?$less@PAUHWND__@@@std@@V?$allocator@U?$pair@QAUHWND__@@UWndMoveData@@@std@@@4@$0A@@std@@SAABQAUHWND__@@ABU?$pair@QAUHWND__@@UWndMoveData@@@2@@Z ; std::_Tmap_traits<HWND__ *,WndMoveData,std::less<HWND__ *>,std::allocator<std::pair<HWND__ * const,WndMoveData> >,0>::_Kfn
  00410	83 c4 04	 add	 esp, 4
  00413	50		 push	 eax
  00414	8b 4d fc	 mov	 ecx, DWORD PTR _this$[ebp]
  00417	e8 00 00 00 00	 call	 ??R?$less@PAUHWND__@@@std@@QBE_NABQAUHWND__@@0@Z ; std::less<HWND__ *>::operator()
  0041c	0f b6 c8	 movzx	 ecx, al
  0041f	85 c9		 test	 ecx, ecx
  00421	0f 84 a4 00 00
	00		 je	 $L188611
  00427	8b 55 0c	 mov	 edx, DWORD PTR __Where$[ebp]
  0042a	89 55 f4	 mov	 DWORD PTR __Next$[ebp], edx
  0042d	8b 45 10	 mov	 eax, DWORD PTR __Val$[ebp]
  00430	50		 push	 eax
  00431	e8 00 00 00 00	 call	 ?_Kfn@?$_Tmap_traits@PAUHWND__@@UWndMoveData@@U?$less@PAUHWND__@@@std@@V?$allocator@U?$pair@QAUHWND__@@UWndMoveData@@@std@@@4@$0A@@std@@SAABQAUHWND__@@ABU?$pair@QAUHWND__@@UWndMoveData@@@2@@Z ; std::_Tmap_traits<HWND__ *,WndMoveData,std::less<HWND__ *>,std::allocator<std::pair<HWND__ * const,WndMoveData> >,0>::_Kfn
  00436	83 c4 04	 add	 esp, 4
  00439	50		 push	 eax
  0043a	8d 4d f4	 lea	 ecx, DWORD PTR __Next$[ebp]
  0043d	e8 00 00 00 00	 call	 ??Fiterator@?$_Tree@V?$_Tmap_traits@PAUHWND__@@UWndMoveData@@U?$less@PAUHWND__@@@std@@V?$allocator@U?$pair@QAUHWND__@@UWndMoveData@@@std@@@4@$0A@@std@@@std@@QAEAAV012@XZ ; std::_Tree<std::_Tmap_traits<HWND__ *,WndMoveData,std::less<HWND__ *>,std::allocator<std::pair<HWND__ * const,WndMoveData> >,0> >::iterator::operator--
  00442	8b c8		 mov	 ecx, eax
  00444	e8 00 00 00 00	 call	 ?_Mynode@const_iterator@?$_Tree@V?$_Tmap_traits@PAUHWND__@@UWndMoveData@@U?$less@PAUHWND__@@@std@@V?$allocator@U?$pair@QAUHWND__@@UWndMoveData@@@std@@@4@$0A@@std@@@std@@QBEPAU_Node@?$_Tree_nod@V?$_Tmap_traits@PAUHWND__@@UWndMoveData@@U?$less@PAUHWND__@@@std@@V?$allocator@U?$pair@QAUHWND__@@UWndMoveData@@@std@@@4@$0A@@std@@@3@XZ ; std::_Tree<std::_Tmap_traits<HWND__ *,WndMoveData,std::less<HWND__ *>,std::allocator<std::pair<HWND__ * const,WndMoveData> >,0> >::const_iterator::_Mynode
  00449	50		 push	 eax
  0044a	e8 00 00 00 00	 call	 ?_Key@?$_Tree@V?$_Tmap_traits@PAUHWND__@@UWndMoveData@@U?$less@PAUHWND__@@@std@@V?$allocator@U?$pair@QAUHWND__@@UWndMoveData@@@std@@@4@$0A@@std@@@std@@KAABQAUHWND__@@PAU_Node@?$_Tree_nod@V?$_Tmap_traits@PAUHWND__@@UWndMoveData@@U?$less@PAUHWND__@@@std@@V?$allocator@U?$pair@QAUHWND__@@UWndMoveData@@@std@@@4@$0A@@std@@@2@@Z ; std::_Tree<std::_Tmap_traits<HWND__ *,WndMoveData,std::less<HWND__ *>,std::allocator<std::pair<HWND__ * const,WndMoveData> >,0> >::_Key
  0044f	83 c4 04	 add	 esp, 4
  00452	50		 push	 eax
  00453	8b 4d fc	 mov	 ecx, DWORD PTR _this$[ebp]
  00456	e8 00 00 00 00	 call	 ??R?$less@PAUHWND__@@@std@@QBE_NABQAUHWND__@@0@Z ; std::less<HWND__ *>::operator()
  0045b	0f b6 c8	 movzx	 ecx, al
  0045e	85 c9		 test	 ecx, ecx
  00460	74 69		 je	 SHORT $L188611

; 561  : 				{	// insert before _Where
; 562  : 				if (_Isnil(_Right(_Next._Mynode())))

  00462	8d 4d f4	 lea	 ecx, DWORD PTR __Next$[ebp]
  00465	e8 00 00 00 00	 call	 ?_Mynode@const_iterator@?$_Tree@V?$_Tmap_traits@PAUHWND__@@UWndMoveData@@U?$less@PAUHWND__@@@std@@V?$allocator@U?$pair@QAUHWND__@@UWndMoveData@@@std@@@4@$0A@@std@@@std@@QBEPAU_Node@?$_Tree_nod@V?$_Tmap_traits@PAUHWND__@@UWndMoveData@@U?$less@PAUHWND__@@@std@@V?$allocator@U?$pair@QAUHWND__@@UWndMoveData@@@std@@@4@$0A@@std@@@3@XZ ; std::_Tree<std::_Tmap_traits<HWND__ *,WndMoveData,std::less<HWND__ *>,std::allocator<std::pair<HWND__ * const,WndMoveData> >,0> >::const_iterator::_Mynode
  0046a	50		 push	 eax
  0046b	e8 00 00 00 00	 call	 ?_Right@?$_Tree@V?$_Tmap_traits@PAUHWND__@@UWndMoveData@@U?$less@PAUHWND__@@@std@@V?$allocator@U?$pair@QAUHWND__@@UWndMoveData@@@std@@@4@$0A@@std@@@std@@KAAAPAU_Node@?$_Tree_nod@V?$_Tmap_traits@PAUHWND__@@UWndMoveData@@U?$less@PAUHWND__@@@std@@V?$allocator@U?$pair@QAUHWND__@@UWndMoveData@@@std@@@4@$0A@@std@@@2@PAU342@@Z ; std::_Tree<std::_Tmap_traits<HWND__ *,WndMoveData,std::less<HWND__ *>,std::allocator<std::pair<HWND__ * const,WndMoveData> >,0> >::_Right
  00470	83 c4 04	 add	 esp, 4
  00473	8b 10		 mov	 edx, DWORD PTR [eax]
  00475	52		 push	 edx
  00476	e8 00 00 00 00	 call	 ?_Isnil@?$_Tree@V?$_Tmap_traits@PAUHWND__@@UWndMoveData@@U?$less@PAUHWND__@@@std@@V?$allocator@U?$pair@QAUHWND__@@UWndMoveData@@@std@@@4@$0A@@std@@@std@@KAAADPAU_Node@?$_Tree_nod@V?$_Tmap_traits@PAUHWND__@@UWndMoveData@@U?$less@PAUHWND__@@@std@@V?$allocator@U?$pair@QAUHWND__@@UWndMoveData@@@std@@@4@$0A@@std@@@2@@Z ; std::_Tree<std::_Tmap_traits<HWND__ *,WndMoveData,std::less<HWND__ *>,std::allocator<std::pair<HWND__ * const,WndMoveData> >,0> >::_Isnil
  0047b	83 c4 04	 add	 esp, 4
  0047e	0f be 00	 movsx	 eax, BYTE PTR [eax]
  00481	85 c0		 test	 eax, eax
  00483	74 23		 je	 SHORT $L188612

; 563  : 					return (_Insert(false, _Next._Mynode(), _Val));

  00485	8b 4d 10	 mov	 ecx, DWORD PTR __Val$[ebp]
  00488	51		 push	 ecx
  00489	8d 4d f4	 lea	 ecx, DWORD PTR __Next$[ebp]
  0048c	e8 00 00 00 00	 call	 ?_Mynode@const_iterator@?$_Tree@V?$_Tmap_traits@PAUHWND__@@UWndMoveData@@U?$less@PAUHWND__@@@std@@V?$allocator@U?$pair@QAUHWND__@@UWndMoveData@@@std@@@4@$0A@@std@@@std@@QBEPAU_Node@?$_Tree_nod@V?$_Tmap_traits@PAUHWND__@@UWndMoveData@@U?$less@PAUHWND__@@@std@@V?$allocator@U?$pair@QAUHWND__@@UWndMoveData@@@std@@@4@$0A@@std@@@3@XZ ; std::_Tree<std::_Tmap_traits<HWND__ *,WndMoveData,std::less<HWND__ *>,std::allocator<std::pair<HWND__ * const,WndMoveData> >,0> >::const_iterator::_Mynode
  00491	50		 push	 eax
  00492	6a 00		 push	 0
  00494	8b 55 08	 mov	 edx, DWORD PTR ___$ReturnUdt$[ebp]
  00497	52		 push	 edx
  00498	8b 4d fc	 mov	 ecx, DWORD PTR _this$[ebp]
  0049b	e8 00 00 00 00	 call	 ?_Insert@?$_Tree@V?$_Tmap_traits@PAUHWND__@@UWndMoveData@@U?$less@PAUHWND__@@@std@@V?$allocator@U?$pair@QAUHWND__@@UWndMoveData@@@std@@@4@$0A@@std@@@std@@IAE?AViterator@12@_NPAU_Node@?$_Tree_nod@V?$_Tmap_traits@PAUHWND__@@UWndMoveData@@U?$less@PAUHWND__@@@std@@V?$allocator@U?$pair@QAUHWND__@@UWndMoveData@@@std@@@4@$0A@@std@@@2@ABU?$pair@QAUHWND__@@UWndMoveData@@@2@@Z ; std::_Tree<std::_Tmap_traits<HWND__ *,WndMoveData,std::less<HWND__ *>,std::allocator<std::pair<HWND__ * const,WndMoveData> >,0> >::_Insert
  004a0	8b 45 08	 mov	 eax, DWORD PTR ___$ReturnUdt$[ebp]
  004a3	e9 29 01 00 00	 jmp	 $L188571
$L188612:

; 564  : 				else
; 565  : 					return (_Insert(true, _Where._Mynode(), _Val));

  004a8	8b 45 10	 mov	 eax, DWORD PTR __Val$[ebp]
  004ab	50		 push	 eax
  004ac	8d 4d 0c	 lea	 ecx, DWORD PTR __Where$[ebp]
  004af	e8 00 00 00 00	 call	 ?_Mynode@const_iterator@?$_Tree@V?$_Tmap_traits@PAUHWND__@@UWndMoveData@@U?$less@PAUHWND__@@@std@@V?$allocator@U?$pair@QAUHWND__@@UWndMoveData@@@std@@@4@$0A@@std@@@std@@QBEPAU_Node@?$_Tree_nod@V?$_Tmap_traits@PAUHWND__@@UWndMoveData@@U?$less@PAUHWND__@@@std@@V?$allocator@U?$pair@QAUHWND__@@UWndMoveData@@@std@@@4@$0A@@std@@@3@XZ ; std::_Tree<std::_Tmap_traits<HWND__ *,WndMoveData,std::less<HWND__ *>,std::allocator<std::pair<HWND__ * const,WndMoveData> >,0> >::const_iterator::_Mynode
  004b4	50		 push	 eax
  004b5	6a 01		 push	 1
  004b7	8b 4d 08	 mov	 ecx, DWORD PTR ___$ReturnUdt$[ebp]
  004ba	51		 push	 ecx
  004bb	8b 4d fc	 mov	 ecx, DWORD PTR _this$[ebp]
  004be	e8 00 00 00 00	 call	 ?_Insert@?$_Tree@V?$_Tmap_traits@PAUHWND__@@UWndMoveData@@U?$less@PAUHWND__@@@std@@V?$allocator@U?$pair@QAUHWND__@@UWndMoveData@@@std@@@4@$0A@@std@@@std@@IAE?AViterator@12@_NPAU_Node@?$_Tree_nod@V?$_Tmap_traits@PAUHWND__@@UWndMoveData@@U?$less@PAUHWND__@@@std@@V?$allocator@U?$pair@QAUHWND__@@UWndMoveData@@@std@@@4@$0A@@std@@@2@ABU?$pair@QAUHWND__@@UWndMoveData@@@2@@Z ; std::_Tree<std::_Tmap_traits<HWND__ *,WndMoveData,std::less<HWND__ *>,std::allocator<std::pair<HWND__ * const,WndMoveData> >,0> >::_Insert
  004c3	8b 45 08	 mov	 eax, DWORD PTR ___$ReturnUdt$[ebp]
  004c6	e9 06 01 00 00	 jmp	 $L188571
$L188611:

; 566  : 				}
; 567  : 			else if (this->comp(_Key(_Where._Mynode()), this->_Kfn(_Val))
; 568  : 				&& (++(_Next = _Where) == end()
; 569  : 					|| this->comp(this->_Kfn(_Val),
; 570  : 						_Key(_Next._Mynode()))))

  004cb	8b 55 10	 mov	 edx, DWORD PTR __Val$[ebp]
  004ce	52		 push	 edx
  004cf	e8 00 00 00 00	 call	 ?_Kfn@?$_Tmap_traits@PAUHWND__@@UWndMoveData@@U?$less@PAUHWND__@@@std@@V?$allocator@U?$pair@QAUHWND__@@UWndMoveData@@@std@@@4@$0A@@std@@SAABQAUHWND__@@ABU?$pair@QAUHWND__@@UWndMoveData@@@2@@Z ; std::_Tmap_traits<HWND__ *,WndMoveData,std::less<HWND__ *>,std::allocator<std::pair<HWND__ * const,WndMoveData> >,0>::_Kfn
  004d4	83 c4 04	 add	 esp, 4
  004d7	50		 push	 eax
  004d8	8d 4d 0c	 lea	 ecx, DWORD PTR __Where$[ebp]
  004db	e8 00 00 00 00	 call	 ?_Mynode@const_iterator@?$_Tree@V?$_Tmap_traits@PAUHWND__@@UWndMoveData@@U?$less@PAUHWND__@@@std@@V?$allocator@U?$pair@QAUHWND__@@UWndMoveData@@@std@@@4@$0A@@std@@@std@@QBEPAU_Node@?$_Tree_nod@V?$_Tmap_traits@PAUHWND__@@UWndMoveData@@U?$less@PAUHWND__@@@std@@V?$allocator@U?$pair@QAUHWND__@@UWndMoveData@@@std@@@4@$0A@@std@@@3@XZ ; std::_Tree<std::_Tmap_traits<HWND__ *,WndMoveData,std::less<HWND__ *>,std::allocator<std::pair<HWND__ * const,WndMoveData> >,0> >::const_iterator::_Mynode
  004e0	50		 push	 eax
  004e1	e8 00 00 00 00	 call	 ?_Key@?$_Tree@V?$_Tmap_traits@PAUHWND__@@UWndMoveData@@U?$less@PAUHWND__@@@std@@V?$allocator@U?$pair@QAUHWND__@@UWndMoveData@@@std@@@4@$0A@@std@@@std@@KAABQAUHWND__@@PAU_Node@?$_Tree_nod@V?$_Tmap_traits@PAUHWND__@@UWndMoveData@@U?$less@PAUHWND__@@@std@@V?$allocator@U?$pair@QAUHWND__@@UWndMoveData@@@std@@@4@$0A@@std@@@2@@Z ; std::_Tree<std::_Tmap_traits<HWND__ *,WndMoveData,std::less<HWND__ *>,std::allocator<std::pair<HWND__ * const,WndMoveData> >,0> >::_Key
  004e6	83 c4 04	 add	 esp, 4
  004e9	50		 push	 eax
  004ea	8b 4d fc	 mov	 ecx, DWORD PTR _this$[ebp]
  004ed	e8 00 00 00 00	 call	 ??R?$less@PAUHWND__@@@std@@QBE_NABQAUHWND__@@0@Z ; std::less<HWND__ *>::operator()
  004f2	0f b6 c0	 movzx	 eax, al
  004f5	85 c0		 test	 eax, eax
  004f7	0f 84 ba 00 00
	00		 je	 $L188575
  004fd	8b 4d 0c	 mov	 ecx, DWORD PTR __Where$[ebp]
  00500	89 4d f4	 mov	 DWORD PTR __Next$[ebp], ecx
  00503	8d 55 d8	 lea	 edx, DWORD PTR $T189734[ebp]
  00506	52		 push	 edx
  00507	8b 4d fc	 mov	 ecx, DWORD PTR _this$[ebp]
  0050a	e8 00 00 00 00	 call	 ?end@?$_Tree@V?$_Tmap_traits@PAUHWND__@@UWndMoveData@@U?$less@PAUHWND__@@@std@@V?$allocator@U?$pair@QAUHWND__@@UWndMoveData@@@std@@@4@$0A@@std@@@std@@QAE?AViterator@12@XZ ; std::_Tree<std::_Tmap_traits<HWND__ *,WndMoveData,std::less<HWND__ *>,std::allocator<std::pair<HWND__ * const,WndMoveData> >,0> >::end
  0050f	50		 push	 eax
  00510	8d 4d f4	 lea	 ecx, DWORD PTR __Next$[ebp]
  00513	e8 00 00 00 00	 call	 ??Eiterator@?$_Tree@V?$_Tmap_traits@PAUHWND__@@UWndMoveData@@U?$less@PAUHWND__@@@std@@V?$allocator@U?$pair@QAUHWND__@@UWndMoveData@@@std@@@4@$0A@@std@@@std@@QAEAAV012@XZ ; std::_Tree<std::_Tmap_traits<HWND__ *,WndMoveData,std::less<HWND__ *>,std::allocator<std::pair<HWND__ * const,WndMoveData> >,0> >::iterator::operator++
  00518	8b c8		 mov	 ecx, eax
  0051a	e8 00 00 00 00	 call	 ??8const_iterator@?$_Tree@V?$_Tmap_traits@PAUHWND__@@UWndMoveData@@U?$less@PAUHWND__@@@std@@V?$allocator@U?$pair@QAUHWND__@@UWndMoveData@@@std@@@4@$0A@@std@@@std@@QBE_NABV012@@Z ; std::_Tree<std::_Tmap_traits<HWND__ *,WndMoveData,std::less<HWND__ *>,std::allocator<std::pair<HWND__ * const,WndMoveData> >,0> >::const_iterator::operator==
  0051f	0f b6 c0	 movzx	 eax, al
  00522	85 c0		 test	 eax, eax
  00524	75 2e		 jne	 SHORT $L188619
  00526	8d 4d f4	 lea	 ecx, DWORD PTR __Next$[ebp]
  00529	e8 00 00 00 00	 call	 ?_Mynode@const_iterator@?$_Tree@V?$_Tmap_traits@PAUHWND__@@UWndMoveData@@U?$less@PAUHWND__@@@std@@V?$allocator@U?$pair@QAUHWND__@@UWndMoveData@@@std@@@4@$0A@@std@@@std@@QBEPAU_Node@?$_Tree_nod@V?$_Tmap_traits@PAUHWND__@@UWndMoveData@@U?$less@PAUHWND__@@@std@@V?$allocator@U?$pair@QAUHWND__@@UWndMoveData@@@std@@@4@$0A@@std@@@3@XZ ; std::_Tree<std::_Tmap_traits<HWND__ *,WndMoveData,std::less<HWND__ *>,std::allocator<std::pair<HWND__ * const,WndMoveData> >,0> >::const_iterator::_Mynode
  0052e	50		 push	 eax
  0052f	e8 00 00 00 00	 call	 ?_Key@?$_Tree@V?$_Tmap_traits@PAUHWND__@@UWndMoveData@@U?$less@PAUHWND__@@@std@@V?$allocator@U?$pair@QAUHWND__@@UWndMoveData@@@std@@@4@$0A@@std@@@std@@KAABQAUHWND__@@PAU_Node@?$_Tree_nod@V?$_Tmap_traits@PAUHWND__@@UWndMoveData@@U?$less@PAUHWND__@@@std@@V?$allocator@U?$pair@QAUHWND__@@UWndMoveData@@@std@@@4@$0A@@std@@@2@@Z ; std::_Tree<std::_Tmap_traits<HWND__ *,WndMoveData,std::less<HWND__ *>,std::allocator<std::pair<HWND__ * const,WndMoveData> >,0> >::_Key
  00534	83 c4 04	 add	 esp, 4
  00537	50		 push	 eax
  00538	8b 4d 10	 mov	 ecx, DWORD PTR __Val$[ebp]
  0053b	51		 push	 ecx
  0053c	e8 00 00 00 00	 call	 ?_Kfn@?$_Tmap_traits@PAUHWND__@@UWndMoveData@@U?$less@PAUHWND__@@@std@@V?$allocator@U?$pair@QAUHWND__@@UWndMoveData@@@std@@@4@$0A@@std@@SAABQAUHWND__@@ABU?$pair@QAUHWND__@@UWndMoveData@@@2@@Z ; std::_Tmap_traits<HWND__ *,WndMoveData,std::less<HWND__ *>,std::allocator<std::pair<HWND__ * const,WndMoveData> >,0>::_Kfn
  00541	83 c4 04	 add	 esp, 4
  00544	50		 push	 eax
  00545	8b 4d fc	 mov	 ecx, DWORD PTR _this$[ebp]
  00548	e8 00 00 00 00	 call	 ??R?$less@PAUHWND__@@@std@@QBE_NABQAUHWND__@@0@Z ; std::less<HWND__ *>::operator()
  0054d	0f b6 d0	 movzx	 edx, al
  00550	85 d2		 test	 edx, edx
  00552	74 63		 je	 SHORT $L188575
$L188619:

; 571  : 				{	// insert after _Where
; 572  : 				if (_Isnil(_Right(_Where._Mynode())))

  00554	8d 4d 0c	 lea	 ecx, DWORD PTR __Where$[ebp]
  00557	e8 00 00 00 00	 call	 ?_Mynode@const_iterator@?$_Tree@V?$_Tmap_traits@PAUHWND__@@UWndMoveData@@U?$less@PAUHWND__@@@std@@V?$allocator@U?$pair@QAUHWND__@@UWndMoveData@@@std@@@4@$0A@@std@@@std@@QBEPAU_Node@?$_Tree_nod@V?$_Tmap_traits@PAUHWND__@@UWndMoveData@@U?$less@PAUHWND__@@@std@@V?$allocator@U?$pair@QAUHWND__@@UWndMoveData@@@std@@@4@$0A@@std@@@3@XZ ; std::_Tree<std::_Tmap_traits<HWND__ *,WndMoveData,std::less<HWND__ *>,std::allocator<std::pair<HWND__ * const,WndMoveData> >,0> >::const_iterator::_Mynode
  0055c	50		 push	 eax
  0055d	e8 00 00 00 00	 call	 ?_Right@?$_Tree@V?$_Tmap_traits@PAUHWND__@@UWndMoveData@@U?$less@PAUHWND__@@@std@@V?$allocator@U?$pair@QAUHWND__@@UWndMoveData@@@std@@@4@$0A@@std@@@std@@KAAAPAU_Node@?$_Tree_nod@V?$_Tmap_traits@PAUHWND__@@UWndMoveData@@U?$less@PAUHWND__@@@std@@V?$allocator@U?$pair@QAUHWND__@@UWndMoveData@@@std@@@4@$0A@@std@@@2@PAU342@@Z ; std::_Tree<std::_Tmap_traits<HWND__ *,WndMoveData,std::less<HWND__ *>,std::allocator<std::pair<HWND__ * const,WndMoveData> >,0> >::_Right
  00562	83 c4 04	 add	 esp, 4
  00565	8b 00		 mov	 eax, DWORD PTR [eax]
  00567	50		 push	 eax
  00568	e8 00 00 00 00	 call	 ?_Isnil@?$_Tree@V?$_Tmap_traits@PAUHWND__@@UWndMoveData@@U?$less@PAUHWND__@@@std@@V?$allocator@U?$pair@QAUHWND__@@UWndMoveData@@@std@@@4@$0A@@std@@@std@@KAAADPAU_Node@?$_Tree_nod@V?$_Tmap_traits@PAUHWND__@@UWndMoveData@@U?$less@PAUHWND__@@@std@@V?$allocator@U?$pair@QAUHWND__@@UWndMoveData@@@std@@@4@$0A@@std@@@2@@Z ; std::_Tree<std::_Tmap_traits<HWND__ *,WndMoveData,std::less<HWND__ *>,std::allocator<std::pair<HWND__ * const,WndMoveData> >,0> >::_Isnil
  0056d	83 c4 04	 add	 esp, 4
  00570	0f be 08	 movsx	 ecx, BYTE PTR [eax]
  00573	85 c9		 test	 ecx, ecx
  00575	74 20		 je	 SHORT $L188620

; 573  : 					return (_Insert(false, _Where._Mynode(), _Val));

  00577	8b 55 10	 mov	 edx, DWORD PTR __Val$[ebp]
  0057a	52		 push	 edx
  0057b	8d 4d 0c	 lea	 ecx, DWORD PTR __Where$[ebp]
  0057e	e8 00 00 00 00	 call	 ?_Mynode@const_iterator@?$_Tree@V?$_Tmap_traits@PAUHWND__@@UWndMoveData@@U?$less@PAUHWND__@@@std@@V?$allocator@U?$pair@QAUHWND__@@UWndMoveData@@@std@@@4@$0A@@std@@@std@@QBEPAU_Node@?$_Tree_nod@V?$_Tmap_traits@PAUHWND__@@UWndMoveData@@U?$less@PAUHWND__@@@std@@V?$allocator@U?$pair@QAUHWND__@@UWndMoveData@@@std@@@4@$0A@@std@@@3@XZ ; std::_Tree<std::_Tmap_traits<HWND__ *,WndMoveData,std::less<HWND__ *>,std::allocator<std::pair<HWND__ * const,WndMoveData> >,0> >::const_iterator::_Mynode
  00583	50		 push	 eax
  00584	6a 00		 push	 0
  00586	8b 45 08	 mov	 eax, DWORD PTR ___$ReturnUdt$[ebp]
  00589	50		 push	 eax
  0058a	8b 4d fc	 mov	 ecx, DWORD PTR _this$[ebp]
  0058d	e8 00 00 00 00	 call	 ?_Insert@?$_Tree@V?$_Tmap_traits@PAUHWND__@@UWndMoveData@@U?$less@PAUHWND__@@@std@@V?$allocator@U?$pair@QAUHWND__@@UWndMoveData@@@std@@@4@$0A@@std@@@std@@IAE?AViterator@12@_NPAU_Node@?$_Tree_nod@V?$_Tmap_traits@PAUHWND__@@UWndMoveData@@U?$less@PAUHWND__@@@std@@V?$allocator@U?$pair@QAUHWND__@@UWndMoveData@@@std@@@4@$0A@@std@@@2@ABU?$pair@QAUHWND__@@UWndMoveData@@@2@@Z ; std::_Tree<std::_Tmap_traits<HWND__ *,WndMoveData,std::less<HWND__ *>,std::allocator<std::pair<HWND__ * const,WndMoveData> >,0> >::_Insert
  00592	8b 45 08	 mov	 eax, DWORD PTR ___$ReturnUdt$[ebp]
  00595	eb 3a		 jmp	 SHORT $L188571
$L188620:

; 574  : 				else
; 575  : 					return (_Insert(true, _Next._Mynode(), _Val));

  00597	8b 4d 10	 mov	 ecx, DWORD PTR __Val$[ebp]
  0059a	51		 push	 ecx
  0059b	8d 4d f4	 lea	 ecx, DWORD PTR __Next$[ebp]
  0059e	e8 00 00 00 00	 call	 ?_Mynode@const_iterator@?$_Tree@V?$_Tmap_traits@PAUHWND__@@UWndMoveData@@U?$less@PAUHWND__@@@std@@V?$allocator@U?$pair@QAUHWND__@@UWndMoveData@@@std@@@4@$0A@@std@@@std@@QBEPAU_Node@?$_Tree_nod@V?$_Tmap_traits@PAUHWND__@@UWndMoveData@@U?$less@PAUHWND__@@@std@@V?$allocator@U?$pair@QAUHWND__@@UWndMoveData@@@std@@@4@$0A@@std@@@3@XZ ; std::_Tree<std::_Tmap_traits<HWND__ *,WndMoveData,std::less<HWND__ *>,std::allocator<std::pair<HWND__ * const,WndMoveData> >,0> >::const_iterator::_Mynode
  005a3	50		 push	 eax
  005a4	6a 01		 push	 1
  005a6	8b 55 08	 mov	 edx, DWORD PTR ___$ReturnUdt$[ebp]
  005a9	52		 push	 edx
  005aa	8b 4d fc	 mov	 ecx, DWORD PTR _this$[ebp]
  005ad	e8 00 00 00 00	 call	 ?_Insert@?$_Tree@V?$_Tmap_traits@PAUHWND__@@UWndMoveData@@U?$less@PAUHWND__@@@std@@V?$allocator@U?$pair@QAUHWND__@@UWndMoveData@@@std@@@4@$0A@@std@@@std@@IAE?AViterator@12@_NPAU_Node@?$_Tree_nod@V?$_Tmap_traits@PAUHWND__@@UWndMoveData@@U?$less@PAUHWND__@@@std@@V?$allocator@U?$pair@QAUHWND__@@UWndMoveData@@@std@@@4@$0A@@std@@@2@ABU?$pair@QAUHWND__@@UWndMoveData@@@2@@Z ; std::_Tree<std::_Tmap_traits<HWND__ *,WndMoveData,std::less<HWND__ *>,std::allocator<std::pair<HWND__ * const,WndMoveData> >,0> >::_Insert
  005b2	8b 45 08	 mov	 eax, DWORD PTR ___$ReturnUdt$[ebp]
  005b5	eb 1a		 jmp	 SHORT $L188571
$L188575:

; 576  : 				}
; 577  : 			}
; 578  : 
; 579  : 		return (insert(_Val).first);	// try usual insert if all else fails

  005b7	8b 45 10	 mov	 eax, DWORD PTR __Val$[ebp]
  005ba	50		 push	 eax
  005bb	8d 4d d0	 lea	 ecx, DWORD PTR $T189735[ebp]
  005be	51		 push	 ecx
  005bf	8b 4d fc	 mov	 ecx, DWORD PTR _this$[ebp]
  005c2	e8 00 00 00 00	 call	 ?insert@?$_Tree@V?$_Tmap_traits@PAUHWND__@@UWndMoveData@@U?$less@PAUHWND__@@@std@@V?$allocator@U?$pair@QAUHWND__@@UWndMoveData@@@std@@@4@$0A@@std@@@std@@QAE?AU?$pair@Viterator@?$_Tree@V?$_Tmap_traits@PAUHWND__@@UWndMoveData@@U?$less@PAUHWND__@@@std@@V?$allocator@U?$pair@QAUHWND__@@UWndMoveData@@@std@@@4@$0A@@std@@@std@@_N@2@ABU?$pair@QAUHWND__@@UWndMoveData@@@2@@Z ; std::_Tree<std::_Tmap_traits<HWND__ *,WndMoveData,std::less<HWND__ *>,std::allocator<std::pair<HWND__ * const,WndMoveData> >,0> >::insert
  005c7	8b 10		 mov	 edx, DWORD PTR [eax]
  005c9	8b 45 08	 mov	 eax, DWORD PTR ___$ReturnUdt$[ebp]
  005cc	89 10		 mov	 DWORD PTR [eax], edx
  005ce	8b 45 08	 mov	 eax, DWORD PTR ___$ReturnUdt$[ebp]
$L188571:

; 580  : 		}

  005d1	52		 push	 edx
  005d2	8b cd		 mov	 ecx, ebp
  005d4	50		 push	 eax
  005d5	8d 15 00 00 00
	00		 lea	 edx, DWORD PTR $L189738
  005db	e8 00 00 00 00	 call	 @_RTC_CheckStackVars@8
  005e0	58		 pop	 eax
  005e1	5a		 pop	 edx
  005e2	5f		 pop	 edi
  005e3	83 c4 30	 add	 esp, 48			; 00000030H
  005e6	3b ec		 cmp	 ebp, esp
  005e8	e8 00 00 00 00	 call	 __RTC_CheckEsp
  005ed	8b e5		 mov	 esp, ebp
  005ef	5d		 pop	 ebp
  005f0	c2 0c 00	 ret	 12			; 0000000cH
$L189738:
  005f3	01 00 00 00	 DD	 1
  005f7	00 00 00 00	 DD	 $L189737
$L189737:
  005fb	f4 ff ff ff	 DD	 -12			; fffffff4H
  005ff	04 00 00 00	 DD	 4
  00603	00 00 00 00	 DD	 $L189736
$L189736:
  00607	5f		 DB	 95			; 0000005fH
  00608	4e		 DB	 78			; 0000004eH
  00609	65		 DB	 101			; 00000065H
  0060a	78		 DB	 120			; 00000078H
  0060b	74		 DB	 116			; 00000074H
  0060c	00		 DB	 0
?insert@?$_Tree@V?$_Tmap_traits@PAUHWND__@@UWndMoveData@@U?$less@PAUHWND__@@@std@@V?$allocator@U?$pair@QAUHWND__@@UWndMoveData@@@std@@@4@$0A@@std@@@std@@QAE?AViterator@12@V312@ABU?$pair@QAUHWND__@@UWndMoveData@@@2@@Z ENDP ; std::_Tree<std::_Tmap_traits<HWND__ *,WndMoveData,std::less<HWND__ *>,std::allocator<std::pair<HWND__ * const,WndMoveData> >,0> >::insert
_TEXT	ENDS
PUBLIC	??BCTraceCategory@ATL@@QBEKXZ			; ATL::CTraceCategory::operator unsigned long
PUBLIC	?TraceV@CTrace@ATL@@QBAXPBDHKI0PAD@Z		; ATL::CTrace::TraceV
EXTRN	?s_trace@CTrace@ATL@@2V12@A:QWORD		; ATL::CTrace::s_trace
EXTRN	?atlTraceGeneral@ATL@@3VCTraceCategory@1@A:DWORD ; ATL::atlTraceGeneral
; Function compile flags: /Odt /RTCsu
; File d:\program files (x86)\microsoft visual studio .net 2003\vc7\atlmfc\include\atltrace.h
;	COMDAT ??RCTraceFileAndLineInfo@ATL@@QBAXPBDZZ
_TEXT	SEGMENT
_ptr$ = -4						; size = 4
_this$ = 8						; size = 4
_pszFmt$ = 12						; size = 4
??RCTraceFileAndLineInfo@ATL@@QBAXPBDZZ PROC NEAR	; ATL::CTraceFileAndLineInfo::operator(), COMDAT

; 173  : 	{

  00000	55		 push	 ebp
  00001	8b ec		 mov	 ebp, esp
  00003	51		 push	 ecx
  00004	c7 45 fc cc cc
	cc cc		 mov	 DWORD PTR [ebp-4], -858993460 ; ccccccccH

; 174  : 		va_list ptr; va_start(ptr, pszFmt);

  0000b	8d 45 10	 lea	 eax, DWORD PTR _pszFmt$[ebp+4]
  0000e	89 45 fc	 mov	 DWORD PTR _ptr$[ebp], eax

; 175  : 		ATL::CTrace::s_trace.TraceV(m_pszFileName, m_nLineNo, atlTraceGeneral, 0, pszFmt, ptr);

  00011	8b 4d fc	 mov	 ecx, DWORD PTR _ptr$[ebp]
  00014	51		 push	 ecx
  00015	8b 55 0c	 mov	 edx, DWORD PTR _pszFmt$[ebp]
  00018	52		 push	 edx
  00019	6a 00		 push	 0
  0001b	b9 00 00 00 00	 mov	 ecx, OFFSET FLAT:?atlTraceGeneral@ATL@@3VCTraceCategory@1@A ; ATL::atlTraceGeneral
  00020	e8 00 00 00 00	 call	 ??BCTraceCategory@ATL@@QBEKXZ ; ATL::CTraceCategory::operator unsigned long
  00025	50		 push	 eax
  00026	8b 45 08	 mov	 eax, DWORD PTR _this$[ebp]
  00029	8b 48 04	 mov	 ecx, DWORD PTR [eax+4]
  0002c	51		 push	 ecx
  0002d	8b 55 08	 mov	 edx, DWORD PTR _this$[ebp]
  00030	8b 02		 mov	 eax, DWORD PTR [edx]
  00032	50		 push	 eax
  00033	68 00 00 00 00	 push	 OFFSET FLAT:?s_trace@CTrace@ATL@@2V12@A
  00038	e8 00 00 00 00	 call	 ?TraceV@CTrace@ATL@@QBAXPBDHKI0PAD@Z ; ATL::CTrace::TraceV
  0003d	83 c4 1c	 add	 esp, 28			; 0000001cH

; 176  : 		va_end(ptr);

  00040	c7 45 fc 00 00
	00 00		 mov	 DWORD PTR _ptr$[ebp], 0

; 177  : 	}

  00047	83 c4 04	 add	 esp, 4
  0004a	3b ec		 cmp	 ebp, esp
  0004c	e8 00 00 00 00	 call	 __RTC_CheckEsp
  00051	8b e5		 mov	 esp, ebp
  00053	5d		 pop	 ebp
  00054	c3		 ret	 0
??RCTraceFileAndLineInfo@ATL@@QBAXPBDZZ ENDP		; ATL::CTraceFileAndLineInfo::operator()
_TEXT	ENDS
EXTRN	_AtlTraceVA:NEAR
; Function compile flags: /Odt /RTCsu
;	COMDAT ?TraceV@CTrace@ATL@@QBAXPBDHKI0PAD@Z
_TEXT	SEGMENT
_this$ = 8						; size = 4
_pszFileName$ = 12					; size = 4
_nLine$ = 16						; size = 4
_dwCategory$ = 20					; size = 4
_nLevel$ = 24						; size = 4
_pszFmt$ = 28						; size = 4
_args$ = 32						; size = 4
?TraceV@CTrace@ATL@@QBAXPBDHKI0PAD@Z PROC NEAR		; ATL::CTrace::TraceV, COMDAT

; 121  : 	{

  00000	55		 push	 ebp
  00001	8b ec		 mov	 ebp, esp

; 122  : 		AtlTraceVA(m_dwModule, pszFileName, nLine, dwCategory, nLevel, pszFmt, args);

  00003	8b 45 20	 mov	 eax, DWORD PTR _args$[ebp]
  00006	50		 push	 eax
  00007	8b 4d 1c	 mov	 ecx, DWORD PTR _pszFmt$[ebp]
  0000a	51		 push	 ecx
  0000b	8b 55 18	 mov	 edx, DWORD PTR _nLevel$[ebp]
  0000e	52		 push	 edx
  0000f	8b 45 14	 mov	 eax, DWORD PTR _dwCategory$[ebp]
  00012	50		 push	 eax
  00013	8b 4d 10	 mov	 ecx, DWORD PTR _nLine$[ebp]
  00016	51		 push	 ecx
  00017	8b 55 0c	 mov	 edx, DWORD PTR _pszFileName$[ebp]
  0001a	52		 push	 edx
  0001b	8b 45 08	 mov	 eax, DWORD PTR _this$[ebp]
  0001e	8b 48 04	 mov	 ecx, DWORD PTR [eax+4]
  00021	51		 push	 ecx
  00022	e8 00 00 00 00	 call	 _AtlTraceVA
  00027	83 c4 1c	 add	 esp, 28			; 0000001cH

; 123  : 	}

  0002a	3b ec		 cmp	 ebp, esp
  0002c	e8 00 00 00 00	 call	 __RTC_CheckEsp
  00031	5d		 pop	 ebp
  00032	c3		 ret	 0
?TraceV@CTrace@ATL@@QBAXPBDHKI0PAD@Z ENDP		; ATL::CTrace::TraceV
; Function compile flags: /Odt /RTCsu
_TEXT	ENDS
;	COMDAT ??BCTraceCategory@ATL@@QBEKXZ
_TEXT	SEGMENT
_this$ = -4						; size = 4
??BCTraceCategory@ATL@@QBEKXZ PROC NEAR			; ATL::CTraceCategory::operator unsigned long, COMDAT
; _this$ = ecx

; 202  : {

  00000	55		 push	 ebp
  00001	8b ec		 mov	 ebp, esp
  00003	51		 push	 ecx
  00004	c7 45 fc cc cc
	cc cc		 mov	 DWORD PTR [ebp-4], -858993460 ; ccccccccH
  0000b	89 4d fc	 mov	 DWORD PTR _this$[ebp], ecx

; 203  : 	return( m_dwCategory );

  0000e	8b 45 fc	 mov	 eax, DWORD PTR _this$[ebp]
  00011	8b 00		 mov	 eax, DWORD PTR [eax]

; 204  : }

  00013	8b e5		 mov	 esp, ebp
  00015	5d		 pop	 ebp
  00016	c3		 ret	 0
??BCTraceCategory@ATL@@QBEKXZ ENDP			; ATL::CTraceCategory::operator unsigned long
_TEXT	ENDS
PUBLIC	?_Lbound@?$_Tree@V?$_Tmap_traits@PAUHWND__@@UWndMoveData@@U?$less@PAUHWND__@@@std@@V?$allocator@U?$pair@QAUHWND__@@UWndMoveData@@@std@@@4@$0A@@std@@@std@@IBEPAU_Node@?$_Tree_nod@V?$_Tmap_traits@PAUHWND__@@UWndMoveData@@U?$less@PAUHWND__@@@std@@V?$allocator@U?$pair@QAUHWND__@@UWndMoveData@@@std@@@4@$0A@@std@@@2@ABQAUHWND__@@@Z ; std::_Tree<std::_Tmap_traits<HWND__ *,WndMoveData,std::less<HWND__ *>,std::allocator<std::pair<HWND__ * const,WndMoveData> >,0> >::_Lbound
; Function compile flags: /Odt /RTCsu
; File d:\program files (x86)\microsoft visual studio .net 2003\vc7\include\xtree
;	COMDAT ?lower_bound@?$_Tree@V?$_Tmap_traits@PAUHWND__@@UWndMoveData@@U?$less@PAUHWND__@@@std@@V?$allocator@U?$pair@QAUHWND__@@UWndMoveData@@@std@@@4@$0A@@std@@@std@@QAE?AViterator@12@ABQAUHWND__@@@Z
_TEXT	SEGMENT
_this$ = -4						; size = 4
___$ReturnUdt$ = 8					; size = 4
__Keyval$ = 12						; size = 4
?lower_bound@?$_Tree@V?$_Tmap_traits@PAUHWND__@@UWndMoveData@@U?$less@PAUHWND__@@@std@@V?$allocator@U?$pair@QAUHWND__@@UWndMoveData@@@std@@@4@$0A@@std@@@std@@QAE?AViterator@12@ABQAUHWND__@@@Z PROC NEAR ; std::_Tree<std::_Tmap_traits<HWND__ *,WndMoveData,std::less<HWND__ *>,std::allocator<std::pair<HWND__ * const,WndMoveData> >,0> >::lower_bound, COMDAT
; _this$ = ecx

; 809  : 		{	// find leftmost node not less than _Keyval in mutable tree

  00000	55		 push	 ebp
  00001	8b ec		 mov	 ebp, esp
  00003	51		 push	 ecx
  00004	c7 45 fc cc cc
	cc cc		 mov	 DWORD PTR [ebp-4], -858993460 ; ccccccccH
  0000b	89 4d fc	 mov	 DWORD PTR _this$[ebp], ecx

; 810  : 		return (_TREE_ITERATOR(_Lbound(_Keyval)));

  0000e	8b 45 0c	 mov	 eax, DWORD PTR __Keyval$[ebp]
  00011	50		 push	 eax
  00012	8b 4d fc	 mov	 ecx, DWORD PTR _this$[ebp]
  00015	e8 00 00 00 00	 call	 ?_Lbound@?$_Tree@V?$_Tmap_traits@PAUHWND__@@UWndMoveData@@U?$less@PAUHWND__@@@std@@V?$allocator@U?$pair@QAUHWND__@@UWndMoveData@@@std@@@4@$0A@@std@@@std@@IBEPAU_Node@?$_Tree_nod@V?$_Tmap_traits@PAUHWND__@@UWndMoveData@@U?$less@PAUHWND__@@@std@@V?$allocator@U?$pair@QAUHWND__@@UWndMoveData@@@std@@@4@$0A@@std@@@2@ABQAUHWND__@@@Z ; std::_Tree<std::_Tmap_traits<HWND__ *,WndMoveData,std::less<HWND__ *>,std::allocator<std::pair<HWND__ * const,WndMoveData> >,0> >::_Lbound
  0001a	50		 push	 eax
  0001b	8b 4d 08	 mov	 ecx, DWORD PTR ___$ReturnUdt$[ebp]
  0001e	e8 00 00 00 00	 call	 ??0iterator@?$_Tree@V?$_Tmap_traits@PAUHWND__@@UWndMoveData@@U?$less@PAUHWND__@@@std@@V?$allocator@U?$pair@QAUHWND__@@UWndMoveData@@@std@@@4@$0A@@std@@@std@@QAE@PAU_Node@?$_Tree_nod@V?$_Tmap_traits@PAUHWND__@@UWndMoveData@@U?$less@PAUHWND__@@@std@@V?$allocator@U?$pair@QAUHWND__@@UWndMoveData@@@std@@@4@$0A@@std@@@2@@Z ; std::_Tree<std::_Tmap_traits<HWND__ *,WndMoveData,std::less<HWND__ *>,std::allocator<std::pair<HWND__ * const,WndMoveData> >,0> >::iterator::iterator
  00023	8b 45 08	 mov	 eax, DWORD PTR ___$ReturnUdt$[ebp]

; 811  : 		}

  00026	83 c4 04	 add	 esp, 4
  00029	3b ec		 cmp	 ebp, esp
  0002b	e8 00 00 00 00	 call	 __RTC_CheckEsp
  00030	8b e5		 mov	 esp, ebp
  00032	5d		 pop	 ebp
  00033	c2 08 00	 ret	 8
?lower_bound@?$_Tree@V?$_Tmap_traits@PAUHWND__@@UWndMoveData@@U?$less@PAUHWND__@@@std@@V?$allocator@U?$pair@QAUHWND__@@UWndMoveData@@@std@@@4@$0A@@std@@@std@@QAE?AViterator@12@ABQAUHWND__@@@Z ENDP ; std::_Tree<std::_Tmap_traits<HWND__ *,WndMoveData,std::less<HWND__ *>,std::allocator<std::pair<HWND__ * const,WndMoveData> >,0> >::lower_bound
_TEXT	ENDS
PUBLIC	?_Left@?$_Tree@V?$_Tmap_traits@PAUHWND__@@UWndMoveData@@U?$less@PAUHWND__@@@std@@V?$allocator@U?$pair@QAUHWND__@@UWndMoveData@@@std@@@4@$0A@@std@@@std@@KAAAPAU_Node@?$_Tree_nod@V?$_Tmap_traits@PAUHWND__@@UWndMoveData@@U?$less@PAUHWND__@@@std@@V?$allocator@U?$pair@QAUHWND__@@UWndMoveData@@@std@@@4@$0A@@std@@@2@PAU342@@Z ; std::_Tree<std::_Tmap_traits<HWND__ *,WndMoveData,std::less<HWND__ *>,std::allocator<std::pair<HWND__ * const,WndMoveData> >,0> >::_Left
PUBLIC	?deallocate@?$allocator@U_Node@?$_Tree_nod@V?$_Tmap_traits@PAUHWND__@@UWndMoveData@@U?$less@PAUHWND__@@@std@@V?$allocator@U?$pair@QAUHWND__@@UWndMoveData@@@std@@@4@$0A@@std@@@std@@@std@@QAEXPAU_Node@?$_Tree_nod@V?$_Tmap_traits@PAUHWND__@@UWndMoveData@@U?$less@PAUHWND__@@@std@@V?$allocator@U?$pair@QAUHWND__@@UWndMoveData@@@std@@@4@$0A@@std@@@2@I@Z ; std::allocator<std::_Tree_nod<std::_Tmap_traits<HWND__ *,WndMoveData,std::less<HWND__ *>,std::allocator<std::pair<HWND__ * const,WndMoveData> >,0> >::_Node>::deallocate
PUBLIC	?destroy@?$allocator@U_Node@?$_Tree_nod@V?$_Tmap_traits@PAUHWND__@@UWndMoveData@@U?$less@PAUHWND__@@@std@@V?$allocator@U?$pair@QAUHWND__@@UWndMoveData@@@std@@@4@$0A@@std@@@std@@@std@@QAEXPAU_Node@?$_Tree_nod@V?$_Tmap_traits@PAUHWND__@@UWndMoveData@@U?$less@PAUHWND__@@@std@@V?$allocator@U?$pair@QAUHWND__@@UWndMoveData@@@std@@@4@$0A@@std@@@2@@Z ; std::allocator<std::_Tree_nod<std::_Tmap_traits<HWND__ *,WndMoveData,std::less<HWND__ *>,std::allocator<std::pair<HWND__ * const,WndMoveData> >,0> >::_Node>::destroy
; Function compile flags: /Odt /RTCsu
;	COMDAT ?_Erase@?$_Tree@V?$_Tmap_traits@PAUHWND__@@UWndMoveData@@U?$less@PAUHWND__@@@std@@V?$allocator@U?$pair@QAUHWND__@@UWndMoveData@@@std@@@4@$0A@@std@@@std@@IAEXPAU_Node@?$_Tree_nod@V?$_Tmap_traits@PAUHWND__@@UWndMoveData@@U?$less@PAUHWND__@@@std@@V?$allocator@U?$pair@QAUHWND__@@UWndMoveData@@@std@@@4@$0A@@std@@@2@@Z
_TEXT	SEGMENT
__Pnode$188651 = -8					; size = 4
_this$ = -4						; size = 4
__Rootnode$ = 8						; size = 4
?_Erase@?$_Tree@V?$_Tmap_traits@PAUHWND__@@UWndMoveData@@U?$less@PAUHWND__@@@std@@V?$allocator@U?$pair@QAUHWND__@@UWndMoveData@@@std@@@4@$0A@@std@@@std@@IAEXPAU_Node@?$_Tree_nod@V?$_Tmap_traits@PAUHWND__@@UWndMoveData@@U?$less@PAUHWND__@@@std@@V?$allocator@U?$pair@QAUHWND__@@UWndMoveData@@@std@@@4@$0A@@std@@@2@@Z PROC NEAR ; std::_Tree<std::_Tmap_traits<HWND__ *,WndMoveData,std::less<HWND__ *>,std::allocator<std::pair<HWND__ * const,WndMoveData> >,0> >::_Erase, COMDAT
; _this$ = ecx

; 890  : 		{	// free entire subtree, recursively

  00000	55		 push	 ebp
  00001	8b ec		 mov	 ebp, esp
  00003	83 ec 08	 sub	 esp, 8
  00006	c7 45 f8 cc cc
	cc cc		 mov	 DWORD PTR [ebp-8], -858993460 ; ccccccccH
  0000d	c7 45 fc cc cc
	cc cc		 mov	 DWORD PTR [ebp-4], -858993460 ; ccccccccH
  00014	89 4d fc	 mov	 DWORD PTR _this$[ebp], ecx

; 891  : 		for (_Nodeptr _Pnode = _Rootnode; !_Isnil(_Pnode); _Rootnode = _Pnode)

  00017	8b 45 08	 mov	 eax, DWORD PTR __Rootnode$[ebp]
  0001a	89 45 f8	 mov	 DWORD PTR __Pnode$188651[ebp], eax
  0001d	eb 06		 jmp	 SHORT $L188652
$L188653:
  0001f	8b 4d f8	 mov	 ecx, DWORD PTR __Pnode$188651[ebp]
  00022	89 4d 08	 mov	 DWORD PTR __Rootnode$[ebp], ecx
$L188652:
  00025	8b 55 f8	 mov	 edx, DWORD PTR __Pnode$188651[ebp]
  00028	52		 push	 edx
  00029	e8 00 00 00 00	 call	 ?_Isnil@?$_Tree@V?$_Tmap_traits@PAUHWND__@@UWndMoveData@@U?$less@PAUHWND__@@@std@@V?$allocator@U?$pair@QAUHWND__@@UWndMoveData@@@std@@@4@$0A@@std@@@std@@KAAADPAU_Node@?$_Tree_nod@V?$_Tmap_traits@PAUHWND__@@UWndMoveData@@U?$less@PAUHWND__@@@std@@V?$allocator@U?$pair@QAUHWND__@@UWndMoveData@@@std@@@4@$0A@@std@@@2@@Z ; std::_Tree<std::_Tmap_traits<HWND__ *,WndMoveData,std::less<HWND__ *>,std::allocator<std::pair<HWND__ * const,WndMoveData> >,0> >::_Isnil
  0002e	83 c4 04	 add	 esp, 4
  00031	0f be 00	 movsx	 eax, BYTE PTR [eax]
  00034	85 c0		 test	 eax, eax
  00036	75 4a		 jne	 SHORT $L188650

; 892  : 			{	// free subtrees, then node
; 893  : 			_Erase(_Right(_Pnode));

  00038	8b 4d f8	 mov	 ecx, DWORD PTR __Pnode$188651[ebp]
  0003b	51		 push	 ecx
  0003c	e8 00 00 00 00	 call	 ?_Right@?$_Tree@V?$_Tmap_traits@PAUHWND__@@UWndMoveData@@U?$less@PAUHWND__@@@std@@V?$allocator@U?$pair@QAUHWND__@@UWndMoveData@@@std@@@4@$0A@@std@@@std@@KAAAPAU_Node@?$_Tree_nod@V?$_Tmap_traits@PAUHWND__@@UWndMoveData@@U?$less@PAUHWND__@@@std@@V?$allocator@U?$pair@QAUHWND__@@UWndMoveData@@@std@@@4@$0A@@std@@@2@PAU342@@Z ; std::_Tree<std::_Tmap_traits<HWND__ *,WndMoveData,std::less<HWND__ *>,std::allocator<std::pair<HWND__ * const,WndMoveData> >,0> >::_Right
  00041	83 c4 04	 add	 esp, 4
  00044	8b 10		 mov	 edx, DWORD PTR [eax]
  00046	52		 push	 edx
  00047	8b 4d fc	 mov	 ecx, DWORD PTR _this$[ebp]
  0004a	e8 00 00 00 00	 call	 ?_Erase@?$_Tree@V?$_Tmap_traits@PAUHWND__@@UWndMoveData@@U?$less@PAUHWND__@@@std@@V?$allocator@U?$pair@QAUHWND__@@UWndMoveData@@@std@@@4@$0A@@std@@@std@@IAEXPAU_Node@?$_Tree_nod@V?$_Tmap_traits@PAUHWND__@@UWndMoveData@@U?$less@PAUHWND__@@@std@@V?$allocator@U?$pair@QAUHWND__@@UWndMoveData@@@std@@@4@$0A@@std@@@2@@Z ; std::_Tree<std::_Tmap_traits<HWND__ *,WndMoveData,std::less<HWND__ *>,std::allocator<std::pair<HWND__ * const,WndMoveData> >,0> >::_Erase

; 894  : 			_Pnode = _Left(_Pnode);

  0004f	8b 45 f8	 mov	 eax, DWORD PTR __Pnode$188651[ebp]
  00052	50		 push	 eax
  00053	e8 00 00 00 00	 call	 ?_Left@?$_Tree@V?$_Tmap_traits@PAUHWND__@@UWndMoveData@@U?$less@PAUHWND__@@@std@@V?$allocator@U?$pair@QAUHWND__@@UWndMoveData@@@std@@@4@$0A@@std@@@std@@KAAAPAU_Node@?$_Tree_nod@V?$_Tmap_traits@PAUHWND__@@UWndMoveData@@U?$less@PAUHWND__@@@std@@V?$allocator@U?$pair@QAUHWND__@@UWndMoveData@@@std@@@4@$0A@@std@@@2@PAU342@@Z ; std::_Tree<std::_Tmap_traits<HWND__ *,WndMoveData,std::less<HWND__ *>,std::allocator<std::pair<HWND__ * const,WndMoveData> >,0> >::_Left
  00058	83 c4 04	 add	 esp, 4
  0005b	8b 08		 mov	 ecx, DWORD PTR [eax]
  0005d	89 4d f8	 mov	 DWORD PTR __Pnode$188651[ebp], ecx

; 895  : 			this->_Alnod.destroy(_Rootnode);	// destroy, free erased node

  00060	8b 55 08	 mov	 edx, DWORD PTR __Rootnode$[ebp]
  00063	52		 push	 edx
  00064	8b 4d fc	 mov	 ecx, DWORD PTR _this$[ebp]
  00067	83 c1 01	 add	 ecx, 1
  0006a	e8 00 00 00 00	 call	 ?destroy@?$allocator@U_Node@?$_Tree_nod@V?$_Tmap_traits@PAUHWND__@@UWndMoveData@@U?$less@PAUHWND__@@@std@@V?$allocator@U?$pair@QAUHWND__@@UWndMoveData@@@std@@@4@$0A@@std@@@std@@@std@@QAEXPAU_Node@?$_Tree_nod@V?$_Tmap_traits@PAUHWND__@@UWndMoveData@@U?$less@PAUHWND__@@@std@@V?$allocator@U?$pair@QAUHWND__@@UWndMoveData@@@std@@@4@$0A@@std@@@2@@Z ; std::allocator<std::_Tree_nod<std::_Tmap_traits<HWND__ *,WndMoveData,std::less<HWND__ *>,std::allocator<std::pair<HWND__ * const,WndMoveData> >,0> >::_Node>::destroy

; 896  : 			this->_Alnod.deallocate(_Rootnode, 1);

  0006f	6a 01		 push	 1
  00071	8b 45 08	 mov	 eax, DWORD PTR __Rootnode$[ebp]
  00074	50		 push	 eax
  00075	8b 4d fc	 mov	 ecx, DWORD PTR _this$[ebp]
  00078	83 c1 01	 add	 ecx, 1
  0007b	e8 00 00 00 00	 call	 ?deallocate@?$allocator@U_Node@?$_Tree_nod@V?$_Tmap_traits@PAUHWND__@@UWndMoveData@@U?$less@PAUHWND__@@@std@@V?$allocator@U?$pair@QAUHWND__@@UWndMoveData@@@std@@@4@$0A@@std@@@std@@@std@@QAEXPAU_Node@?$_Tree_nod@V?$_Tmap_traits@PAUHWND__@@UWndMoveData@@U?$less@PAUHWND__@@@std@@V?$allocator@U?$pair@QAUHWND__@@UWndMoveData@@@std@@@4@$0A@@std@@@2@I@Z ; std::allocator<std::_Tree_nod<std::_Tmap_traits<HWND__ *,WndMoveData,std::less<HWND__ *>,std::allocator<std::pair<HWND__ * const,WndMoveData> >,0> >::_Node>::deallocate

; 897  : 			}

  00080	eb 9d		 jmp	 SHORT $L188653
$L188650:

; 898  : 		}

  00082	83 c4 08	 add	 esp, 8
  00085	3b ec		 cmp	 ebp, esp
  00087	e8 00 00 00 00	 call	 __RTC_CheckEsp
  0008c	8b e5		 mov	 esp, ebp
  0008e	5d		 pop	 ebp
  0008f	c2 04 00	 ret	 4
?_Erase@?$_Tree@V?$_Tmap_traits@PAUHWND__@@UWndMoveData@@U?$less@PAUHWND__@@@std@@V?$allocator@U?$pair@QAUHWND__@@UWndMoveData@@@std@@@4@$0A@@std@@@std@@IAEXPAU_Node@?$_Tree_nod@V?$_Tmap_traits@PAUHWND__@@UWndMoveData@@U?$less@PAUHWND__@@@std@@V?$allocator@U?$pair@QAUHWND__@@UWndMoveData@@@std@@@4@$0A@@std@@@2@@Z ENDP ; std::_Tree<std::_Tmap_traits<HWND__ *,WndMoveData,std::less<HWND__ *>,std::allocator<std::pair<HWND__ * const,WndMoveData> >,0> >::_Erase
; Function compile flags: /Odt /RTCsu
_TEXT	ENDS
;	COMDAT ?_Lmost@?$_Tree@V?$_Tmap_traits@PAUHWND__@@UWndMoveData@@U?$less@PAUHWND__@@@std@@V?$allocator@U?$pair@QAUHWND__@@UWndMoveData@@@std@@@4@$0A@@std@@@std@@IAEAAPAU_Node@?$_Tree_nod@V?$_Tmap_traits@PAUHWND__@@UWndMoveData@@U?$less@PAUHWND__@@@std@@V?$allocator@U?$pair@QAUHWND__@@UWndMoveData@@@std@@@4@$0A@@std@@@2@XZ
_TEXT	SEGMENT
_this$ = -4						; size = 4
?_Lmost@?$_Tree@V?$_Tmap_traits@PAUHWND__@@UWndMoveData@@U?$less@PAUHWND__@@@std@@V?$allocator@U?$pair@QAUHWND__@@UWndMoveData@@@std@@@4@$0A@@std@@@std@@IAEAAPAU_Node@?$_Tree_nod@V?$_Tmap_traits@PAUHWND__@@UWndMoveData@@U?$less@PAUHWND__@@@std@@V?$allocator@U?$pair@QAUHWND__@@UWndMoveData@@@std@@@4@$0A@@std@@@2@XZ PROC NEAR ; std::_Tree<std::_Tmap_traits<HWND__ *,WndMoveData,std::less<HWND__ *>,std::allocator<std::pair<HWND__ * const,WndMoveData> >,0> >::_Lmost, COMDAT
; _this$ = ecx

; 1004 : 		{	// return leftmost node in mutable tree

  00000	55		 push	 ebp
  00001	8b ec		 mov	 ebp, esp
  00003	51		 push	 ecx
  00004	c7 45 fc cc cc
	cc cc		 mov	 DWORD PTR [ebp-4], -858993460 ; ccccccccH
  0000b	89 4d fc	 mov	 DWORD PTR _this$[ebp], ecx

; 1005 : 		return (_Left(_Myhead));

  0000e	8b 45 fc	 mov	 eax, DWORD PTR _this$[ebp]
  00011	8b 48 04	 mov	 ecx, DWORD PTR [eax+4]
  00014	51		 push	 ecx
  00015	e8 00 00 00 00	 call	 ?_Left@?$_Tree@V?$_Tmap_traits@PAUHWND__@@UWndMoveData@@U?$less@PAUHWND__@@@std@@V?$allocator@U?$pair@QAUHWND__@@UWndMoveData@@@std@@@4@$0A@@std@@@std@@KAAAPAU_Node@?$_Tree_nod@V?$_Tmap_traits@PAUHWND__@@UWndMoveData@@U?$less@PAUHWND__@@@std@@V?$allocator@U?$pair@QAUHWND__@@UWndMoveData@@@std@@@4@$0A@@std@@@2@PAU342@@Z ; std::_Tree<std::_Tmap_traits<HWND__ *,WndMoveData,std::less<HWND__ *>,std::allocator<std::pair<HWND__ * const,WndMoveData> >,0> >::_Left
  0001a	83 c4 04	 add	 esp, 4

; 1006 : 		}

  0001d	83 c4 04	 add	 esp, 4
  00020	3b ec		 cmp	 ebp, esp
  00022	e8 00 00 00 00	 call	 __RTC_CheckEsp
  00027	8b e5		 mov	 esp, ebp
  00029	5d		 pop	 ebp
  0002a	c3		 ret	 0
?_Lmost@?$_Tree@V?$_Tmap_traits@PAUHWND__@@UWndMoveData@@U?$less@PAUHWND__@@@std@@V?$allocator@U?$pair@QAUHWND__@@UWndMoveData@@@std@@@4@$0A@@std@@@std@@IAEAAPAU_Node@?$_Tree_nod@V?$_Tmap_traits@PAUHWND__@@UWndMoveData@@U?$less@PAUHWND__@@@std@@V?$allocator@U?$pair@QAUHWND__@@UWndMoveData@@@std@@@4@$0A@@std@@@2@XZ ENDP ; std::_Tree<std::_Tmap_traits<HWND__ *,WndMoveData,std::less<HWND__ *>,std::allocator<std::pair<HWND__ * const,WndMoveData> >,0> >::_Lmost
; Function compile flags: /Odt /RTCsu
_TEXT	ENDS
;	COMDAT ?_Rmost@?$_Tree@V?$_Tmap_traits@PAUHWND__@@UWndMoveData@@U?$less@PAUHWND__@@@std@@V?$allocator@U?$pair@QAUHWND__@@UWndMoveData@@@std@@@4@$0A@@std@@@std@@IAEAAPAU_Node@?$_Tree_nod@V?$_Tmap_traits@PAUHWND__@@UWndMoveData@@U?$less@PAUHWND__@@@std@@V?$allocator@U?$pair@QAUHWND__@@UWndMoveData@@@std@@@4@$0A@@std@@@2@XZ
_TEXT	SEGMENT
_this$ = -4						; size = 4
?_Rmost@?$_Tree@V?$_Tmap_traits@PAUHWND__@@UWndMoveData@@U?$less@PAUHWND__@@@std@@V?$allocator@U?$pair@QAUHWND__@@UWndMoveData@@@std@@@4@$0A@@std@@@std@@IAEAAPAU_Node@?$_Tree_nod@V?$_Tmap_traits@PAUHWND__@@UWndMoveData@@U?$less@PAUHWND__@@@std@@V?$allocator@U?$pair@QAUHWND__@@UWndMoveData@@@std@@@4@$0A@@std@@@2@XZ PROC NEAR ; std::_Tree<std::_Tmap_traits<HWND__ *,WndMoveData,std::less<HWND__ *>,std::allocator<std::pair<HWND__ * const,WndMoveData> >,0> >::_Rmost, COMDAT
; _this$ = ecx

; 1048 : 		{	// return rightmost node in mutable tree

  00000	55		 push	 ebp
  00001	8b ec		 mov	 ebp, esp
  00003	51		 push	 ecx
  00004	c7 45 fc cc cc
	cc cc		 mov	 DWORD PTR [ebp-4], -858993460 ; ccccccccH
  0000b	89 4d fc	 mov	 DWORD PTR _this$[ebp], ecx

; 1049 : 		return (_Right(_Myhead));

  0000e	8b 45 fc	 mov	 eax, DWORD PTR _this$[ebp]
  00011	8b 48 04	 mov	 ecx, DWORD PTR [eax+4]
  00014	51		 push	 ecx
  00015	e8 00 00 00 00	 call	 ?_Right@?$_Tree@V?$_Tmap_traits@PAUHWND__@@UWndMoveData@@U?$less@PAUHWND__@@@std@@V?$allocator@U?$pair@QAUHWND__@@UWndMoveData@@@std@@@4@$0A@@std@@@std@@KAAAPAU_Node@?$_Tree_nod@V?$_Tmap_traits@PAUHWND__@@UWndMoveData@@U?$less@PAUHWND__@@@std@@V?$allocator@U?$pair@QAUHWND__@@UWndMoveData@@@std@@@4@$0A@@std@@@2@PAU342@@Z ; std::_Tree<std::_Tmap_traits<HWND__ *,WndMoveData,std::less<HWND__ *>,std::allocator<std::pair<HWND__ * const,WndMoveData> >,0> >::_Right
  0001a	83 c4 04	 add	 esp, 4

; 1050 : 		}

  0001d	83 c4 04	 add	 esp, 4
  00020	3b ec		 cmp	 ebp, esp
  00022	e8 00 00 00 00	 call	 __RTC_CheckEsp
  00027	8b e5		 mov	 esp, ebp
  00029	5d		 pop	 ebp
  0002a	c3		 ret	 0
?_Rmost@?$_Tree@V?$_Tmap_traits@PAUHWND__@@UWndMoveData@@U?$less@PAUHWND__@@@std@@V?$allocator@U?$pair@QAUHWND__@@UWndMoveData@@@std@@@4@$0A@@std@@@std@@IAEAAPAU_Node@?$_Tree_nod@V?$_Tmap_traits@PAUHWND__@@UWndMoveData@@U?$less@PAUHWND__@@@std@@V?$allocator@U?$pair@QAUHWND__@@UWndMoveData@@@std@@@4@$0A@@std@@@2@XZ ENDP ; std::_Tree<std::_Tmap_traits<HWND__ *,WndMoveData,std::less<HWND__ *>,std::allocator<std::pair<HWND__ * const,WndMoveData> >,0> >::_Rmost
_TEXT	ENDS
PUBLIC	?_Parent@?$_Tree@V?$_Tmap_traits@PAUHWND__@@UWndMoveData@@U?$less@PAUHWND__@@@std@@V?$allocator@U?$pair@QAUHWND__@@UWndMoveData@@@std@@@4@$0A@@std@@@std@@KAAAPAU_Node@?$_Tree_nod@V?$_Tmap_traits@PAUHWND__@@UWndMoveData@@U?$less@PAUHWND__@@@std@@V?$allocator@U?$pair@QAUHWND__@@UWndMoveData@@@std@@@4@$0A@@std@@@2@PAU342@@Z ; std::_Tree<std::_Tmap_traits<HWND__ *,WndMoveData,std::less<HWND__ *>,std::allocator<std::pair<HWND__ * const,WndMoveData> >,0> >::_Parent
; Function compile flags: /Odt /RTCsu
;	COMDAT ?_Root@?$_Tree@V?$_Tmap_traits@PAUHWND__@@UWndMoveData@@U?$less@PAUHWND__@@@std@@V?$allocator@U?$pair@QAUHWND__@@UWndMoveData@@@std@@@4@$0A@@std@@@std@@IAEAAPAU_Node@?$_Tree_nod@V?$_Tmap_traits@PAUHWND__@@UWndMoveData@@U?$less@PAUHWND__@@@std@@V?$allocator@U?$pair@QAUHWND__@@UWndMoveData@@@std@@@4@$0A@@std@@@2@XZ
_TEXT	SEGMENT
_this$ = -4						; size = 4
?_Root@?$_Tree@V?$_Tmap_traits@PAUHWND__@@UWndMoveData@@U?$less@PAUHWND__@@@std@@V?$allocator@U?$pair@QAUHWND__@@UWndMoveData@@@std@@@4@$0A@@std@@@std@@IAEAAPAU_Node@?$_Tree_nod@V?$_Tmap_traits@PAUHWND__@@UWndMoveData@@U?$less@PAUHWND__@@@std@@V?$allocator@U?$pair@QAUHWND__@@UWndMoveData@@@std@@@4@$0A@@std@@@2@XZ PROC NEAR ; std::_Tree<std::_Tmap_traits<HWND__ *,WndMoveData,std::less<HWND__ *>,std::allocator<std::pair<HWND__ * const,WndMoveData> >,0> >::_Root, COMDAT
; _this$ = ecx

; 1058 : 		{	// return root of mutable tree

  00000	55		 push	 ebp
  00001	8b ec		 mov	 ebp, esp
  00003	51		 push	 ecx
  00004	c7 45 fc cc cc
	cc cc		 mov	 DWORD PTR [ebp-4], -858993460 ; ccccccccH
  0000b	89 4d fc	 mov	 DWORD PTR _this$[ebp], ecx

; 1059 : 		return (_Parent(_Myhead));

  0000e	8b 45 fc	 mov	 eax, DWORD PTR _this$[ebp]
  00011	8b 48 04	 mov	 ecx, DWORD PTR [eax+4]
  00014	51		 push	 ecx
  00015	e8 00 00 00 00	 call	 ?_Parent@?$_Tree@V?$_Tmap_traits@PAUHWND__@@UWndMoveData@@U?$less@PAUHWND__@@@std@@V?$allocator@U?$pair@QAUHWND__@@UWndMoveData@@@std@@@4@$0A@@std@@@std@@KAAAPAU_Node@?$_Tree_nod@V?$_Tmap_traits@PAUHWND__@@UWndMoveData@@U?$less@PAUHWND__@@@std@@V?$allocator@U?$pair@QAUHWND__@@UWndMoveData@@@std@@@4@$0A@@std@@@2@PAU342@@Z ; std::_Tree<std::_Tmap_traits<HWND__ *,WndMoveData,std::less<HWND__ *>,std::allocator<std::pair<HWND__ * const,WndMoveData> >,0> >::_Parent
  0001a	83 c4 04	 add	 esp, 4

; 1060 : 		}

  0001d	83 c4 04	 add	 esp, 4
  00020	3b ec		 cmp	 ebp, esp
  00022	e8 00 00 00 00	 call	 __RTC_CheckEsp
  00027	8b e5		 mov	 esp, ebp
  00029	5d		 pop	 ebp
  0002a	c3		 ret	 0
?_Root@?$_Tree@V?$_Tmap_traits@PAUHWND__@@UWndMoveData@@U?$less@PAUHWND__@@@std@@V?$allocator@U?$pair@QAUHWND__@@UWndMoveData@@@std@@@4@$0A@@std@@@std@@IAEAAPAU_Node@?$_Tree_nod@V?$_Tmap_traits@PAUHWND__@@UWndMoveData@@U?$less@PAUHWND__@@@std@@V?$allocator@U?$pair@QAUHWND__@@UWndMoveData@@@std@@@4@$0A@@std@@@2@XZ ENDP ; std::_Tree<std::_Tmap_traits<HWND__ *,WndMoveData,std::less<HWND__ *>,std::allocator<std::pair<HWND__ * const,WndMoveData> >,0> >::_Root
_TEXT	ENDS
PUBLIC	?erase@?$_Tree@V?$_Tmap_traits@PAUHWND__@@UWndMoveData@@U?$less@PAUHWND__@@@std@@V?$allocator@U?$pair@QAUHWND__@@UWndMoveData@@@std@@@4@$0A@@std@@@std@@QAE?AViterator@12@V312@0@Z ; std::_Tree<std::_Tmap_traits<HWND__ *,WndMoveData,std::less<HWND__ *>,std::allocator<std::pair<HWND__ * const,WndMoveData> >,0> >::erase
PUBLIC	?destroy@?$allocator@PAU_Node@?$_Tree_nod@V?$_Tmap_traits@PAUHWND__@@UWndMoveData@@U?$less@PAUHWND__@@@std@@V?$allocator@U?$pair@QAUHWND__@@UWndMoveData@@@std@@@4@$0A@@std@@@std@@@std@@QAEXPAPAU_Node@?$_Tree_nod@V?$_Tmap_traits@PAUHWND__@@UWndMoveData@@U?$less@PAUHWND__@@@std@@V?$allocator@U?$pair@QAUHWND__@@UWndMoveData@@@std@@@4@$0A@@std@@@2@@Z ; std::allocator<std::_Tree_nod<std::_Tmap_traits<HWND__ *,WndMoveData,std::less<HWND__ *>,std::allocator<std::pair<HWND__ * const,WndMoveData> >,0> >::_Node *>::destroy
; Function compile flags: /Odt /RTCsu
;	COMDAT ?_Tidy@?$_Tree@V?$_Tmap_traits@PAUHWND__@@UWndMoveData@@U?$less@PAUHWND__@@@std@@V?$allocator@U?$pair@QAUHWND__@@UWndMoveData@@@std@@@4@$0A@@std@@@std@@IAEXXZ
_TEXT	SEGMENT
$T189750 = -16						; size = 4
$T189749 = -12						; size = 4
$T189748 = -8						; size = 4
_this$ = -4						; size = 4
?_Tidy@?$_Tree@V?$_Tmap_traits@PAUHWND__@@UWndMoveData@@U?$less@PAUHWND__@@@std@@V?$allocator@U?$pair@QAUHWND__@@UWndMoveData@@@std@@@4@$0A@@std@@@std@@IAEXXZ PROC NEAR ; std::_Tree<std::_Tmap_traits<HWND__ *,WndMoveData,std::less<HWND__ *>,std::allocator<std::pair<HWND__ * const,WndMoveData> >,0> >::_Tidy, COMDAT
; _this$ = ecx

; 1142 : 		{	// free all storage

  00000	55		 push	 ebp
  00001	8b ec		 mov	 ebp, esp
  00003	83 ec 10	 sub	 esp, 16			; 00000010H
  00006	b8 cc cc cc cc	 mov	 eax, -858993460		; ccccccccH
  0000b	89 45 f0	 mov	 DWORD PTR [ebp-16], eax
  0000e	89 45 f4	 mov	 DWORD PTR [ebp-12], eax
  00011	89 45 f8	 mov	 DWORD PTR [ebp-8], eax
  00014	89 45 fc	 mov	 DWORD PTR [ebp-4], eax
  00017	89 4d fc	 mov	 DWORD PTR _this$[ebp], ecx

; 1143 : 		erase(begin(), end());

  0001a	8d 45 f8	 lea	 eax, DWORD PTR $T189748[ebp]
  0001d	50		 push	 eax
  0001e	8b 4d fc	 mov	 ecx, DWORD PTR _this$[ebp]
  00021	e8 00 00 00 00	 call	 ?end@?$_Tree@V?$_Tmap_traits@PAUHWND__@@UWndMoveData@@U?$less@PAUHWND__@@@std@@V?$allocator@U?$pair@QAUHWND__@@UWndMoveData@@@std@@@4@$0A@@std@@@std@@QAE?AViterator@12@XZ ; std::_Tree<std::_Tmap_traits<HWND__ *,WndMoveData,std::less<HWND__ *>,std::allocator<std::pair<HWND__ * const,WndMoveData> >,0> >::end
  00026	8b 08		 mov	 ecx, DWORD PTR [eax]
  00028	51		 push	 ecx
  00029	8d 55 f4	 lea	 edx, DWORD PTR $T189749[ebp]
  0002c	52		 push	 edx
  0002d	8b 4d fc	 mov	 ecx, DWORD PTR _this$[ebp]
  00030	e8 00 00 00 00	 call	 ?begin@?$_Tree@V?$_Tmap_traits@PAUHWND__@@UWndMoveData@@U?$less@PAUHWND__@@@std@@V?$allocator@U?$pair@QAUHWND__@@UWndMoveData@@@std@@@4@$0A@@std@@@std@@QAE?AViterator@12@XZ ; std::_Tree<std::_Tmap_traits<HWND__ *,WndMoveData,std::less<HWND__ *>,std::allocator<std::pair<HWND__ * const,WndMoveData> >,0> >::begin
  00035	8b 00		 mov	 eax, DWORD PTR [eax]
  00037	50		 push	 eax
  00038	8d 4d f0	 lea	 ecx, DWORD PTR $T189750[ebp]
  0003b	51		 push	 ecx
  0003c	8b 4d fc	 mov	 ecx, DWORD PTR _this$[ebp]
  0003f	e8 00 00 00 00	 call	 ?erase@?$_Tree@V?$_Tmap_traits@PAUHWND__@@UWndMoveData@@U?$less@PAUHWND__@@@std@@V?$allocator@U?$pair@QAUHWND__@@UWndMoveData@@@std@@@4@$0A@@std@@@std@@QAE?AViterator@12@V312@0@Z ; std::_Tree<std::_Tmap_traits<HWND__ *,WndMoveData,std::less<HWND__ *>,std::allocator<std::pair<HWND__ * const,WndMoveData> >,0> >::erase

; 1144 : 		this->_Alptr.destroy(&_Left(_Myhead));

  00044	8b 55 fc	 mov	 edx, DWORD PTR _this$[ebp]
  00047	8b 42 04	 mov	 eax, DWORD PTR [edx+4]
  0004a	50		 push	 eax
  0004b	e8 00 00 00 00	 call	 ?_Left@?$_Tree@V?$_Tmap_traits@PAUHWND__@@UWndMoveData@@U?$less@PAUHWND__@@@std@@V?$allocator@U?$pair@QAUHWND__@@UWndMoveData@@@std@@@4@$0A@@std@@@std@@KAAAPAU_Node@?$_Tree_nod@V?$_Tmap_traits@PAUHWND__@@UWndMoveData@@U?$less@PAUHWND__@@@std@@V?$allocator@U?$pair@QAUHWND__@@UWndMoveData@@@std@@@4@$0A@@std@@@2@PAU342@@Z ; std::_Tree<std::_Tmap_traits<HWND__ *,WndMoveData,std::less<HWND__ *>,std::allocator<std::pair<HWND__ * const,WndMoveData> >,0> >::_Left
  00050	83 c4 04	 add	 esp, 4
  00053	50		 push	 eax
  00054	8b 4d fc	 mov	 ecx, DWORD PTR _this$[ebp]
  00057	83 c1 02	 add	 ecx, 2
  0005a	e8 00 00 00 00	 call	 ?destroy@?$allocator@PAU_Node@?$_Tree_nod@V?$_Tmap_traits@PAUHWND__@@UWndMoveData@@U?$less@PAUHWND__@@@std@@V?$allocator@U?$pair@QAUHWND__@@UWndMoveData@@@std@@@4@$0A@@std@@@std@@@std@@QAEXPAPAU_Node@?$_Tree_nod@V?$_Tmap_traits@PAUHWND__@@UWndMoveData@@U?$less@PAUHWND__@@@std@@V?$allocator@U?$pair@QAUHWND__@@UWndMoveData@@@std@@@4@$0A@@std@@@2@@Z ; std::allocator<std::_Tree_nod<std::_Tmap_traits<HWND__ *,WndMoveData,std::less<HWND__ *>,std::allocator<std::pair<HWND__ * const,WndMoveData> >,0> >::_Node *>::destroy

; 1145 : 		this->_Alptr.destroy(&_Parent(_Myhead));

  0005f	8b 4d fc	 mov	 ecx, DWORD PTR _this$[ebp]
  00062	8b 51 04	 mov	 edx, DWORD PTR [ecx+4]
  00065	52		 push	 edx
  00066	e8 00 00 00 00	 call	 ?_Parent@?$_Tree@V?$_Tmap_traits@PAUHWND__@@UWndMoveData@@U?$less@PAUHWND__@@@std@@V?$allocator@U?$pair@QAUHWND__@@UWndMoveData@@@std@@@4@$0A@@std@@@std@@KAAAPAU_Node@?$_Tree_nod@V?$_Tmap_traits@PAUHWND__@@UWndMoveData@@U?$less@PAUHWND__@@@std@@V?$allocator@U?$pair@QAUHWND__@@UWndMoveData@@@std@@@4@$0A@@std@@@2@PAU342@@Z ; std::_Tree<std::_Tmap_traits<HWND__ *,WndMoveData,std::less<HWND__ *>,std::allocator<std::pair<HWND__ * const,WndMoveData> >,0> >::_Parent
  0006b	83 c4 04	 add	 esp, 4
  0006e	50		 push	 eax
  0006f	8b 4d fc	 mov	 ecx, DWORD PTR _this$[ebp]
  00072	83 c1 02	 add	 ecx, 2
  00075	e8 00 00 00 00	 call	 ?destroy@?$allocator@PAU_Node@?$_Tree_nod@V?$_Tmap_traits@PAUHWND__@@UWndMoveData@@U?$less@PAUHWND__@@@std@@V?$allocator@U?$pair@QAUHWND__@@UWndMoveData@@@std@@@4@$0A@@std@@@std@@@std@@QAEXPAPAU_Node@?$_Tree_nod@V?$_Tmap_traits@PAUHWND__@@UWndMoveData@@U?$less@PAUHWND__@@@std@@V?$allocator@U?$pair@QAUHWND__@@UWndMoveData@@@std@@@4@$0A@@std@@@2@@Z ; std::allocator<std::_Tree_nod<std::_Tmap_traits<HWND__ *,WndMoveData,std::less<HWND__ *>,std::allocator<std::pair<HWND__ * const,WndMoveData> >,0> >::_Node *>::destroy

; 1146 : 		this->_Alptr.destroy(&_Right(_Myhead));

  0007a	8b 45 fc	 mov	 eax, DWORD PTR _this$[ebp]
  0007d	8b 48 04	 mov	 ecx, DWORD PTR [eax+4]
  00080	51		 push	 ecx
  00081	e8 00 00 00 00	 call	 ?_Right@?$_Tree@V?$_Tmap_traits@PAUHWND__@@UWndMoveData@@U?$less@PAUHWND__@@@std@@V?$allocator@U?$pair@QAUHWND__@@UWndMoveData@@@std@@@4@$0A@@std@@@std@@KAAAPAU_Node@?$_Tree_nod@V?$_Tmap_traits@PAUHWND__@@UWndMoveData@@U?$less@PAUHWND__@@@std@@V?$allocator@U?$pair@QAUHWND__@@UWndMoveData@@@std@@@4@$0A@@std@@@2@PAU342@@Z ; std::_Tree<std::_Tmap_traits<HWND__ *,WndMoveData,std::less<HWND__ *>,std::allocator<std::pair<HWND__ * const,WndMoveData> >,0> >::_Right
  00086	83 c4 04	 add	 esp, 4
  00089	50		 push	 eax
  0008a	8b 4d fc	 mov	 ecx, DWORD PTR _this$[ebp]
  0008d	83 c1 02	 add	 ecx, 2
  00090	e8 00 00 00 00	 call	 ?destroy@?$allocator@PAU_Node@?$_Tree_nod@V?$_Tmap_traits@PAUHWND__@@UWndMoveData@@U?$less@PAUHWND__@@@std@@V?$allocator@U?$pair@QAUHWND__@@UWndMoveData@@@std@@@4@$0A@@std@@@std@@@std@@QAEXPAPAU_Node@?$_Tree_nod@V?$_Tmap_traits@PAUHWND__@@UWndMoveData@@U?$less@PAUHWND__@@@std@@V?$allocator@U?$pair@QAUHWND__@@UWndMoveData@@@std@@@4@$0A@@std@@@2@@Z ; std::allocator<std::_Tree_nod<std::_Tmap_traits<HWND__ *,WndMoveData,std::less<HWND__ *>,std::allocator<std::pair<HWND__ * const,WndMoveData> >,0> >::_Node *>::destroy

; 1147 : 		this->_Alnod.deallocate(_Myhead, 1);

  00095	6a 01		 push	 1
  00097	8b 55 fc	 mov	 edx, DWORD PTR _this$[ebp]
  0009a	8b 42 04	 mov	 eax, DWORD PTR [edx+4]
  0009d	50		 push	 eax
  0009e	8b 4d fc	 mov	 ecx, DWORD PTR _this$[ebp]
  000a1	83 c1 01	 add	 ecx, 1
  000a4	e8 00 00 00 00	 call	 ?deallocate@?$allocator@U_Node@?$_Tree_nod@V?$_Tmap_traits@PAUHWND__@@UWndMoveData@@U?$less@PAUHWND__@@@std@@V?$allocator@U?$pair@QAUHWND__@@UWndMoveData@@@std@@@4@$0A@@std@@@std@@@std@@QAEXPAU_Node@?$_Tree_nod@V?$_Tmap_traits@PAUHWND__@@UWndMoveData@@U?$less@PAUHWND__@@@std@@V?$allocator@U?$pair@QAUHWND__@@UWndMoveData@@@std@@@4@$0A@@std@@@2@I@Z ; std::allocator<std::_Tree_nod<std::_Tmap_traits<HWND__ *,WndMoveData,std::less<HWND__ *>,std::allocator<std::pair<HWND__ * const,WndMoveData> >,0> >::_Node>::deallocate

; 1148 : 		_Myhead = 0, _Mysize = 0;

  000a9	8b 4d fc	 mov	 ecx, DWORD PTR _this$[ebp]
  000ac	c7 41 04 00 00
	00 00		 mov	 DWORD PTR [ecx+4], 0
  000b3	8b 55 fc	 mov	 edx, DWORD PTR _this$[ebp]
  000b6	c7 42 08 00 00
	00 00		 mov	 DWORD PTR [edx+8], 0

; 1149 : 		}

  000bd	83 c4 10	 add	 esp, 16			; 00000010H
  000c0	3b ec		 cmp	 ebp, esp
  000c2	e8 00 00 00 00	 call	 __RTC_CheckEsp
  000c7	8b e5		 mov	 esp, ebp
  000c9	5d		 pop	 ebp
  000ca	c3		 ret	 0
?_Tidy@?$_Tree@V?$_Tmap_traits@PAUHWND__@@UWndMoveData@@U?$less@PAUHWND__@@@std@@V?$allocator@U?$pair@QAUHWND__@@UWndMoveData@@@std@@@4@$0A@@std@@@std@@IAEXXZ ENDP ; std::_Tree<std::_Tmap_traits<HWND__ *,WndMoveData,std::less<HWND__ *>,std::allocator<std::pair<HWND__ * const,WndMoveData> >,0> >::_Tidy
; Function compile flags: /Odt /RTCsu
; File d:\program files (x86)\microsoft visual studio .net 2003\vc7\include\xmemory
_TEXT	ENDS
;	COMDAT ??0?$allocator@U?$pair@QAUHWND__@@UWndMoveData@@@std@@@std@@QAE@XZ
_TEXT	SEGMENT
_this$ = -4						; size = 4
??0?$allocator@U?$pair@QAUHWND__@@UWndMoveData@@@std@@@std@@QAE@XZ PROC NEAR ; std::allocator<std::pair<HWND__ * const,WndMoveData> >::allocator<std::pair<HWND__ * const,WndMoveData> >, COMDAT
; _this$ = ecx

; 111  : 	allocator()

  00000	55		 push	 ebp
  00001	8b ec		 mov	 ebp, esp
  00003	51		 push	 ecx
  00004	c7 45 fc cc cc
	cc cc		 mov	 DWORD PTR [ebp-4], -858993460 ; ccccccccH
  0000b	89 4d fc	 mov	 DWORD PTR _this$[ebp], ecx

; 112  : 		{	// construct default allocator (do nothing)
; 113  : 		}

  0000e	8b 45 fc	 mov	 eax, DWORD PTR _this$[ebp]
  00011	8b e5		 mov	 esp, ebp
  00013	5d		 pop	 ebp
  00014	c3		 ret	 0
??0?$allocator@U?$pair@QAUHWND__@@UWndMoveData@@@std@@@std@@QAE@XZ ENDP ; std::allocator<std::pair<HWND__ * const,WndMoveData> >::allocator<std::pair<HWND__ * const,WndMoveData> >
; Function compile flags: /Odt /RTCsu
; File d:\program files (x86)\microsoft visual studio .net 2003\vc7\include\functional
_TEXT	ENDS
;	COMDAT ??R?$less@PAUHWND__@@@std@@QBE_NABQAUHWND__@@0@Z
_TEXT	SEGMENT
_this$ = -4						; size = 4
__Left$ = 8						; size = 4
__Right$ = 12						; size = 4
??R?$less@PAUHWND__@@@std@@QBE_NABQAUHWND__@@0@Z PROC NEAR ; std::less<HWND__ *>::operator(), COMDAT
; _this$ = ecx

; 138  : 		{	// apply operator< to operands

  00000	55		 push	 ebp
  00001	8b ec		 mov	 ebp, esp
  00003	51		 push	 ecx
  00004	c7 45 fc cc cc
	cc cc		 mov	 DWORD PTR [ebp-4], -858993460 ; ccccccccH
  0000b	89 4d fc	 mov	 DWORD PTR _this$[ebp], ecx

; 139  : 		return (_Left < _Right);

  0000e	8b 45 08	 mov	 eax, DWORD PTR __Left$[ebp]
  00011	8b 4d 0c	 mov	 ecx, DWORD PTR __Right$[ebp]
  00014	8b 10		 mov	 edx, DWORD PTR [eax]
  00016	3b 11		 cmp	 edx, DWORD PTR [ecx]
  00018	1b c0		 sbb	 eax, eax
  0001a	f7 d8		 neg	 eax

; 140  : 		}

  0001c	8b e5		 mov	 esp, ebp
  0001e	5d		 pop	 ebp
  0001f	c2 08 00	 ret	 8
??R?$less@PAUHWND__@@@std@@QBE_NABQAUHWND__@@0@Z ENDP	; std::less<HWND__ *>::operator()
_TEXT	ENDS
PUBLIC	??0const_iterator@?$_Tree@V?$_Tmap_traits@PAUHWND__@@UWndMoveData@@U?$less@PAUHWND__@@@std@@V?$allocator@U?$pair@QAUHWND__@@UWndMoveData@@@std@@@4@$0A@@std@@@std@@QAE@PAU_Node@?$_Tree_nod@V?$_Tmap_traits@PAUHWND__@@UWndMoveData@@U?$less@PAUHWND__@@@std@@V?$allocator@U?$pair@QAUHWND__@@UWndMoveData@@@std@@@4@$0A@@std@@@2@@Z ; std::_Tree<std::_Tmap_traits<HWND__ *,WndMoveData,std::less<HWND__ *>,std::allocator<std::pair<HWND__ * const,WndMoveData> >,0> >::const_iterator::const_iterator
; Function compile flags: /Odt /RTCsu
; File d:\program files (x86)\microsoft visual studio .net 2003\vc7\include\xtree
;	COMDAT ??0iterator@?$_Tree@V?$_Tmap_traits@PAUHWND__@@UWndMoveData@@U?$less@PAUHWND__@@@std@@V?$allocator@U?$pair@QAUHWND__@@UWndMoveData@@@std@@@4@$0A@@std@@@std@@QAE@PAU_Node@?$_Tree_nod@V?$_Tmap_traits@PAUHWND__@@UWndMoveData@@U?$less@PAUHWND__@@@std@@V?$allocator@U?$pair@QAUHWND__@@UWndMoveData@@@std@@@4@$0A@@std@@@2@@Z
_TEXT	SEGMENT
_this$ = -4						; size = 4
__Pnode$ = 8						; size = 4
??0iterator@?$_Tree@V?$_Tmap_traits@PAUHWND__@@UWndMoveData@@U?$less@PAUHWND__@@@std@@V?$allocator@U?$pair@QAUHWND__@@UWndMoveData@@@std@@@4@$0A@@std@@@std@@QAE@PAU_Node@?$_Tree_nod@V?$_Tmap_traits@PAUHWND__@@UWndMoveData@@U?$less@PAUHWND__@@@std@@V?$allocator@U?$pair@QAUHWND__@@UWndMoveData@@@std@@@4@$0A@@std@@@2@@Z PROC NEAR ; std::_Tree<std::_Tmap_traits<HWND__ *,WndMoveData,std::less<HWND__ *>,std::allocator<std::pair<HWND__ * const,WndMoveData> >,0> >::iterator::iterator, COMDAT
; _this$ = ecx

; 312  : 			{	// construct with node pointer _Pnode

  00000	55		 push	 ebp
  00001	8b ec		 mov	 ebp, esp
  00003	51		 push	 ecx
  00004	c7 45 fc cc cc
	cc cc		 mov	 DWORD PTR [ebp-4], -858993460 ; ccccccccH
  0000b	89 4d fc	 mov	 DWORD PTR _this$[ebp], ecx
  0000e	8b 45 08	 mov	 eax, DWORD PTR __Pnode$[ebp]
  00011	50		 push	 eax
  00012	8b 4d fc	 mov	 ecx, DWORD PTR _this$[ebp]
  00015	e8 00 00 00 00	 call	 ??0const_iterator@?$_Tree@V?$_Tmap_traits@PAUHWND__@@UWndMoveData@@U?$less@PAUHWND__@@@std@@V?$allocator@U?$pair@QAUHWND__@@UWndMoveData@@@std@@@4@$0A@@std@@@std@@QAE@PAU_Node@?$_Tree_nod@V?$_Tmap_traits@PAUHWND__@@UWndMoveData@@U?$less@PAUHWND__@@@std@@V?$allocator@U?$pair@QAUHWND__@@UWndMoveData@@@std@@@4@$0A@@std@@@2@@Z ; std::_Tree<std::_Tmap_traits<HWND__ *,WndMoveData,std::less<HWND__ *>,std::allocator<std::pair<HWND__ * const,WndMoveData> >,0> >::const_iterator::const_iterator

; 313  : 			}

  0001a	8b 45 fc	 mov	 eax, DWORD PTR _this$[ebp]
  0001d	83 c4 04	 add	 esp, 4
  00020	3b ec		 cmp	 ebp, esp
  00022	e8 00 00 00 00	 call	 __RTC_CheckEsp
  00027	8b e5		 mov	 esp, ebp
  00029	5d		 pop	 ebp
  0002a	c2 04 00	 ret	 4
??0iterator@?$_Tree@V?$_Tmap_traits@PAUHWND__@@UWndMoveData@@U?$less@PAUHWND__@@@std@@V?$allocator@U?$pair@QAUHWND__@@UWndMoveData@@@std@@@4@$0A@@std@@@std@@QAE@PAU_Node@?$_Tree_nod@V?$_Tmap_traits@PAUHWND__@@UWndMoveData@@U?$less@PAUHWND__@@@std@@V?$allocator@U?$pair@QAUHWND__@@UWndMoveData@@@std@@@4@$0A@@std@@@2@@Z ENDP ; std::_Tree<std::_Tmap_traits<HWND__ *,WndMoveData,std::less<HWND__ *>,std::allocator<std::pair<HWND__ * const,WndMoveData> >,0> >::iterator::iterator
_TEXT	ENDS
PUBLIC	??Dconst_iterator@?$_Tree@V?$_Tmap_traits@PAUHWND__@@UWndMoveData@@U?$less@PAUHWND__@@@std@@V?$allocator@U?$pair@QAUHWND__@@UWndMoveData@@@std@@@4@$0A@@std@@@std@@QBEABU?$pair@QAUHWND__@@UWndMoveData@@@2@XZ ; std::_Tree<std::_Tmap_traits<HWND__ *,WndMoveData,std::less<HWND__ *>,std::allocator<std::pair<HWND__ * const,WndMoveData> >,0> >::const_iterator::operator*
; Function compile flags: /Odt /RTCsu
;	COMDAT ??Diterator@?$_Tree@V?$_Tmap_traits@PAUHWND__@@UWndMoveData@@U?$less@PAUHWND__@@@std@@V?$allocator@U?$pair@QAUHWND__@@UWndMoveData@@@std@@@4@$0A@@std@@@std@@QBEAAU?$pair@QAUHWND__@@UWndMoveData@@@2@XZ
_TEXT	SEGMENT
_this$ = -4						; size = 4
??Diterator@?$_Tree@V?$_Tmap_traits@PAUHWND__@@UWndMoveData@@U?$less@PAUHWND__@@@std@@V?$allocator@U?$pair@QAUHWND__@@UWndMoveData@@@std@@@4@$0A@@std@@@std@@QBEAAU?$pair@QAUHWND__@@UWndMoveData@@@2@XZ PROC NEAR ; std::_Tree<std::_Tmap_traits<HWND__ *,WndMoveData,std::less<HWND__ *>,std::allocator<std::pair<HWND__ * const,WndMoveData> >,0> >::iterator::operator*, COMDAT
; _this$ = ecx

; 316  : 			{	// return designated value

  00000	55		 push	 ebp
  00001	8b ec		 mov	 ebp, esp
  00003	51		 push	 ecx
  00004	c7 45 fc cc cc
	cc cc		 mov	 DWORD PTR [ebp-4], -858993460 ; ccccccccH
  0000b	89 4d fc	 mov	 DWORD PTR _this$[ebp], ecx

; 317  : 			return ((reference)**(const_iterator *)this);

  0000e	8b 4d fc	 mov	 ecx, DWORD PTR _this$[ebp]
  00011	e8 00 00 00 00	 call	 ??Dconst_iterator@?$_Tree@V?$_Tmap_traits@PAUHWND__@@UWndMoveData@@U?$less@PAUHWND__@@@std@@V?$allocator@U?$pair@QAUHWND__@@UWndMoveData@@@std@@@4@$0A@@std@@@std@@QBEABU?$pair@QAUHWND__@@UWndMoveData@@@2@XZ ; std::_Tree<std::_Tmap_traits<HWND__ *,WndMoveData,std::less<HWND__ *>,std::allocator<std::pair<HWND__ * const,WndMoveData> >,0> >::const_iterator::operator*

; 318  : 			}

  00016	83 c4 04	 add	 esp, 4
  00019	3b ec		 cmp	 ebp, esp
  0001b	e8 00 00 00 00	 call	 __RTC_CheckEsp
  00020	8b e5		 mov	 esp, ebp
  00022	5d		 pop	 ebp
  00023	c3		 ret	 0
??Diterator@?$_Tree@V?$_Tmap_traits@PAUHWND__@@UWndMoveData@@U?$less@PAUHWND__@@@std@@V?$allocator@U?$pair@QAUHWND__@@UWndMoveData@@@std@@@4@$0A@@std@@@std@@QBEAAU?$pair@QAUHWND__@@UWndMoveData@@@2@XZ ENDP ; std::_Tree<std::_Tmap_traits<HWND__ *,WndMoveData,std::less<HWND__ *>,std::allocator<std::pair<HWND__ * const,WndMoveData> >,0> >::iterator::operator*
_TEXT	ENDS
PUBLIC	??Econst_iterator@?$_Tree@V?$_Tmap_traits@PAUHWND__@@UWndMoveData@@U?$less@PAUHWND__@@@std@@V?$allocator@U?$pair@QAUHWND__@@UWndMoveData@@@std@@@4@$0A@@std@@@std@@QAEAAV012@XZ ; std::_Tree<std::_Tmap_traits<HWND__ *,WndMoveData,std::less<HWND__ *>,std::allocator<std::pair<HWND__ * const,WndMoveData> >,0> >::const_iterator::operator++
; Function compile flags: /Odt /RTCsu
;	COMDAT ??Eiterator@?$_Tree@V?$_Tmap_traits@PAUHWND__@@UWndMoveData@@U?$less@PAUHWND__@@@std@@V?$allocator@U?$pair@QAUHWND__@@UWndMoveData@@@std@@@4@$0A@@std@@@std@@QAEAAV012@XZ
_TEXT	SEGMENT
_this$ = -4						; size = 4
??Eiterator@?$_Tree@V?$_Tmap_traits@PAUHWND__@@UWndMoveData@@U?$less@PAUHWND__@@@std@@V?$allocator@U?$pair@QAUHWND__@@UWndMoveData@@@std@@@4@$0A@@std@@@std@@QAEAAV012@XZ PROC NEAR ; std::_Tree<std::_Tmap_traits<HWND__ *,WndMoveData,std::less<HWND__ *>,std::allocator<std::pair<HWND__ * const,WndMoveData> >,0> >::iterator::operator++, COMDAT
; _this$ = ecx

; 326  : 			{	// preincrement

  00000	55		 push	 ebp
  00001	8b ec		 mov	 ebp, esp
  00003	51		 push	 ecx
  00004	c7 45 fc cc cc
	cc cc		 mov	 DWORD PTR [ebp-4], -858993460 ; ccccccccH
  0000b	89 4d fc	 mov	 DWORD PTR _this$[ebp], ecx

; 327  : 			++(*(const_iterator *)this);

  0000e	8b 4d fc	 mov	 ecx, DWORD PTR _this$[ebp]
  00011	e8 00 00 00 00	 call	 ??Econst_iterator@?$_Tree@V?$_Tmap_traits@PAUHWND__@@UWndMoveData@@U?$less@PAUHWND__@@@std@@V?$allocator@U?$pair@QAUHWND__@@UWndMoveData@@@std@@@4@$0A@@std@@@std@@QAEAAV012@XZ ; std::_Tree<std::_Tmap_traits<HWND__ *,WndMoveData,std::less<HWND__ *>,std::allocator<std::pair<HWND__ * const,WndMoveData> >,0> >::const_iterator::operator++

; 328  : 			return (*this);

  00016	8b 45 fc	 mov	 eax, DWORD PTR _this$[ebp]

; 329  : 			}

  00019	83 c4 04	 add	 esp, 4
  0001c	3b ec		 cmp	 ebp, esp
  0001e	e8 00 00 00 00	 call	 __RTC_CheckEsp
  00023	8b e5		 mov	 esp, ebp
  00025	5d		 pop	 ebp
  00026	c3		 ret	 0
??Eiterator@?$_Tree@V?$_Tmap_traits@PAUHWND__@@UWndMoveData@@U?$less@PAUHWND__@@@std@@V?$allocator@U?$pair@QAUHWND__@@UWndMoveData@@@std@@@4@$0A@@std@@@std@@QAEAAV012@XZ ENDP ; std::_Tree<std::_Tmap_traits<HWND__ *,WndMoveData,std::less<HWND__ *>,std::allocator<std::pair<HWND__ * const,WndMoveData> >,0> >::iterator::operator++
; Function compile flags: /Odt /RTCsu
_TEXT	ENDS
;	COMDAT ??0const_iterator@?$_Tree@V?$_Tmap_traits@PAUHWND__@@UWndMoveData@@U?$less@PAUHWND__@@@std@@V?$allocator@U?$pair@QAUHWND__@@UWndMoveData@@@std@@@4@$0A@@std@@@std@@QAE@XZ
_TEXT	SEGMENT
_this$ = -4						; size = 4
??0const_iterator@?$_Tree@V?$_Tmap_traits@PAUHWND__@@UWndMoveData@@U?$less@PAUHWND__@@@std@@V?$allocator@U?$pair@QAUHWND__@@UWndMoveData@@@std@@@4@$0A@@std@@@std@@QAE@XZ PROC NEAR ; std::_Tree<std::_Tmap_traits<HWND__ *,WndMoveData,std::less<HWND__ *>,std::allocator<std::pair<HWND__ * const,WndMoveData> >,0> >::const_iterator::const_iterator, COMDAT
; _this$ = ecx

; 193  : 			{	// construct with null node pointer

  00000	55		 push	 ebp
  00001	8b ec		 mov	 ebp, esp
  00003	51		 push	 ecx
  00004	c7 45 fc cc cc
	cc cc		 mov	 DWORD PTR [ebp-4], -858993460 ; ccccccccH
  0000b	89 4d fc	 mov	 DWORD PTR _this$[ebp], ecx
  0000e	8b 45 fc	 mov	 eax, DWORD PTR _this$[ebp]
  00011	c7 00 00 00 00
	00		 mov	 DWORD PTR [eax], 0

; 194  : 			}

  00017	8b 45 fc	 mov	 eax, DWORD PTR _this$[ebp]
  0001a	8b e5		 mov	 esp, ebp
  0001c	5d		 pop	 ebp
  0001d	c3		 ret	 0
??0const_iterator@?$_Tree@V?$_Tmap_traits@PAUHWND__@@UWndMoveData@@U?$less@PAUHWND__@@@std@@V?$allocator@U?$pair@QAUHWND__@@UWndMoveData@@@std@@@4@$0A@@std@@@std@@QAE@XZ ENDP ; std::_Tree<std::_Tmap_traits<HWND__ *,WndMoveData,std::less<HWND__ *>,std::allocator<std::pair<HWND__ * const,WndMoveData> >,0> >::const_iterator::const_iterator
; Function compile flags: /Odt /RTCsu
_TEXT	ENDS
;	COMDAT ??8const_iterator@?$_Tree@V?$_Tmap_traits@PAUHWND__@@UWndMoveData@@U?$less@PAUHWND__@@@std@@V?$allocator@U?$pair@QAUHWND__@@UWndMoveData@@@std@@@4@$0A@@std@@@std@@QBE_NABV012@@Z
_TEXT	SEGMENT
_this$ = -4						; size = 4
__Right$ = 8						; size = 4
??8const_iterator@?$_Tree@V?$_Tmap_traits@PAUHWND__@@UWndMoveData@@U?$less@PAUHWND__@@@std@@V?$allocator@U?$pair@QAUHWND__@@UWndMoveData@@@std@@@4@$0A@@std@@@std@@QBE_NABV012@@Z PROC NEAR ; std::_Tree<std::_Tmap_traits<HWND__ *,WndMoveData,std::less<HWND__ *>,std::allocator<std::pair<HWND__ * const,WndMoveData> >,0> >::const_iterator::operator==, COMDAT
; _this$ = ecx

; 240  : 			{	// test for iterator equality

  00000	55		 push	 ebp
  00001	8b ec		 mov	 ebp, esp
  00003	51		 push	 ecx
  00004	c7 45 fc cc cc
	cc cc		 mov	 DWORD PTR [ebp-4], -858993460 ; ccccccccH
  0000b	89 4d fc	 mov	 DWORD PTR _this$[ebp], ecx

; 241  : 			return (_Ptr == _Right._Ptr);

  0000e	8b 45 fc	 mov	 eax, DWORD PTR _this$[ebp]
  00011	8b 4d 08	 mov	 ecx, DWORD PTR __Right$[ebp]
  00014	8b 00		 mov	 eax, DWORD PTR [eax]
  00016	2b 01		 sub	 eax, DWORD PTR [ecx]
  00018	f7 d8		 neg	 eax
  0001a	1b c0		 sbb	 eax, eax
  0001c	40		 inc	 eax

; 242  : 			}

  0001d	8b e5		 mov	 esp, ebp
  0001f	5d		 pop	 ebp
  00020	c2 04 00	 ret	 4
??8const_iterator@?$_Tree@V?$_Tmap_traits@PAUHWND__@@UWndMoveData@@U?$less@PAUHWND__@@@std@@V?$allocator@U?$pair@QAUHWND__@@UWndMoveData@@@std@@@4@$0A@@std@@@std@@QBE_NABV012@@Z ENDP ; std::_Tree<std::_Tmap_traits<HWND__ *,WndMoveData,std::less<HWND__ *>,std::allocator<std::pair<HWND__ * const,WndMoveData> >,0> >::const_iterator::operator==
; Function compile flags: /Odt /RTCsu
_TEXT	ENDS
;	COMDAT ?_Mynode@const_iterator@?$_Tree@V?$_Tmap_traits@PAUHWND__@@UWndMoveData@@U?$less@PAUHWND__@@@std@@V?$allocator@U?$pair@QAUHWND__@@UWndMoveData@@@std@@@4@$0A@@std@@@std@@QBEPAU_Node@?$_Tree_nod@V?$_Tmap_traits@PAUHWND__@@UWndMoveData@@U?$less@PAUHWND__@@@std@@V?$allocator@U?$pair@QAUHWND__@@UWndMoveData@@@std@@@4@$0A@@std@@@3@XZ
_TEXT	SEGMENT
_this$ = -4						; size = 4
?_Mynode@const_iterator@?$_Tree@V?$_Tmap_traits@PAUHWND__@@UWndMoveData@@U?$less@PAUHWND__@@@std@@V?$allocator@U?$pair@QAUHWND__@@UWndMoveData@@@std@@@4@$0A@@std@@@std@@QBEPAU_Node@?$_Tree_nod@V?$_Tmap_traits@PAUHWND__@@UWndMoveData@@U?$less@PAUHWND__@@@std@@V?$allocator@U?$pair@QAUHWND__@@UWndMoveData@@@std@@@4@$0A@@std@@@3@XZ PROC NEAR ; std::_Tree<std::_Tmap_traits<HWND__ *,WndMoveData,std::less<HWND__ *>,std::allocator<std::pair<HWND__ * const,WndMoveData> >,0> >::const_iterator::_Mynode, COMDAT
; _this$ = ecx

; 283  : 			{	// return node pointer

  00000	55		 push	 ebp
  00001	8b ec		 mov	 ebp, esp
  00003	51		 push	 ecx
  00004	c7 45 fc cc cc
	cc cc		 mov	 DWORD PTR [ebp-4], -858993460 ; ccccccccH
  0000b	89 4d fc	 mov	 DWORD PTR _this$[ebp], ecx

; 284  : 			return (_Ptr);

  0000e	8b 45 fc	 mov	 eax, DWORD PTR _this$[ebp]
  00011	8b 00		 mov	 eax, DWORD PTR [eax]

; 285  : 			}

  00013	8b e5		 mov	 esp, ebp
  00015	5d		 pop	 ebp
  00016	c3		 ret	 0
?_Mynode@const_iterator@?$_Tree@V?$_Tmap_traits@PAUHWND__@@UWndMoveData@@U?$less@PAUHWND__@@@std@@V?$allocator@U?$pair@QAUHWND__@@UWndMoveData@@@std@@@4@$0A@@std@@@std@@QBEPAU_Node@?$_Tree_nod@V?$_Tmap_traits@PAUHWND__@@UWndMoveData@@U?$less@PAUHWND__@@@std@@V?$allocator@U?$pair@QAUHWND__@@UWndMoveData@@@std@@@4@$0A@@std@@@3@XZ ENDP ; std::_Tree<std::_Tmap_traits<HWND__ *,WndMoveData,std::less<HWND__ *>,std::allocator<std::pair<HWND__ * const,WndMoveData> >,0> >::const_iterator::_Mynode
; Function compile flags: /Odt /RTCsu
; File d:\program files (x86)\microsoft visual studio .net 2003\vc7\include\utility
_TEXT	ENDS
;	COMDAT ??0?$pair@QAUHWND__@@UWndMoveData@@@std@@QAE@ABQAUHWND__@@ABUWndMoveData@@@Z
_TEXT	SEGMENT
_this$ = -4						; size = 4
__Val1$ = 8						; size = 4
__Val2$ = 12						; size = 4
??0?$pair@QAUHWND__@@UWndMoveData@@@std@@QAE@ABQAUHWND__@@ABUWndMoveData@@@Z PROC NEAR ; std::pair<HWND__ * const,WndMoveData>::pair<HWND__ * const,WndMoveData>, COMDAT
; _this$ = ecx

; 34   : 		{	// construct from specified values

  00000	55		 push	 ebp
  00001	8b ec		 mov	 ebp, esp
  00003	51		 push	 ecx
  00004	56		 push	 esi
  00005	57		 push	 edi
  00006	c7 45 fc cc cc
	cc cc		 mov	 DWORD PTR [ebp-4], -858993460 ; ccccccccH
  0000d	89 4d fc	 mov	 DWORD PTR _this$[ebp], ecx
  00010	8b 45 fc	 mov	 eax, DWORD PTR _this$[ebp]
  00013	8b 4d 08	 mov	 ecx, DWORD PTR __Val1$[ebp]
  00016	8b 11		 mov	 edx, DWORD PTR [ecx]
  00018	89 10		 mov	 DWORD PTR [eax], edx
  0001a	8b 75 0c	 mov	 esi, DWORD PTR __Val2$[ebp]
  0001d	8b 7d fc	 mov	 edi, DWORD PTR _this$[ebp]
  00020	83 c7 04	 add	 edi, 4
  00023	b9 07 00 00 00	 mov	 ecx, 7
  00028	f3 a5		 rep movsd

; 35   : 		}

  0002a	8b 45 fc	 mov	 eax, DWORD PTR _this$[ebp]
  0002d	5f		 pop	 edi
  0002e	5e		 pop	 esi
  0002f	8b e5		 mov	 esp, ebp
  00031	5d		 pop	 ebp
  00032	c2 08 00	 ret	 8
??0?$pair@QAUHWND__@@UWndMoveData@@@std@@QAE@ABQAUHWND__@@ABUWndMoveData@@@Z ENDP ; std::pair<HWND__ * const,WndMoveData>::pair<HWND__ * const,WndMoveData>
; Function compile flags: /Odt /RTCsu
; File d:\program files (x86)\microsoft visual studio .net 2003\vc7\include\xtree
_TEXT	ENDS
;	COMDAT ?_Isnil@?$_Tree@V?$_Tmap_traits@PAUHWND__@@UWndMoveData@@U?$less@PAUHWND__@@@std@@V?$allocator@U?$pair@QAUHWND__@@UWndMoveData@@@std@@@4@$0A@@std@@@std@@KAAADPAU_Node@?$_Tree_nod@V?$_Tmap_traits@PAUHWND__@@UWndMoveData@@U?$less@PAUHWND__@@@std@@V?$allocator@U?$pair@QAUHWND__@@UWndMoveData@@@std@@@4@$0A@@std@@@2@@Z
_TEXT	SEGMENT
__Pnode$ = 8						; size = 4
?_Isnil@?$_Tree@V?$_Tmap_traits@PAUHWND__@@UWndMoveData@@U?$less@PAUHWND__@@@std@@V?$allocator@U?$pair@QAUHWND__@@UWndMoveData@@@std@@@4@$0A@@std@@@std@@KAAADPAU_Node@?$_Tree_nod@V?$_Tmap_traits@PAUHWND__@@UWndMoveData@@U?$less@PAUHWND__@@@std@@V?$allocator@U?$pair@QAUHWND__@@UWndMoveData@@@std@@@4@$0A@@std@@@2@@Z PROC NEAR ; std::_Tree<std::_Tmap_traits<HWND__ *,WndMoveData,std::less<HWND__ *>,std::allocator<std::pair<HWND__ * const,WndMoveData> >,0> >::_Isnil, COMDAT

; 136  : 		{	// return reference to nil flag in node

  00000	55		 push	 ebp
  00001	8b ec		 mov	 ebp, esp

; 137  : 		return ((_Charref)(*_Pnode)._Isnil);

  00003	8b 45 08	 mov	 eax, DWORD PTR __Pnode$[ebp]
  00006	83 c0 2d	 add	 eax, 45			; 0000002dH

; 138  : 		}

  00009	5d		 pop	 ebp
  0000a	c3		 ret	 0
?_Isnil@?$_Tree@V?$_Tmap_traits@PAUHWND__@@UWndMoveData@@U?$less@PAUHWND__@@@std@@V?$allocator@U?$pair@QAUHWND__@@UWndMoveData@@@std@@@4@$0A@@std@@@std@@KAAADPAU_Node@?$_Tree_nod@V?$_Tmap_traits@PAUHWND__@@UWndMoveData@@U?$less@PAUHWND__@@@std@@V?$allocator@U?$pair@QAUHWND__@@UWndMoveData@@@std@@@4@$0A@@std@@@2@@Z ENDP ; std::_Tree<std::_Tmap_traits<HWND__ *,WndMoveData,std::less<HWND__ *>,std::allocator<std::pair<HWND__ * const,WndMoveData> >,0> >::_Isnil
; Function compile flags: /Odt /RTCsu
_TEXT	ENDS
;	COMDAT ?_Left@?$_Tree@V?$_Tmap_traits@PAUHWND__@@UWndMoveData@@U?$less@PAUHWND__@@@std@@V?$allocator@U?$pair@QAUHWND__@@UWndMoveData@@@std@@@4@$0A@@std@@@std@@KAAAPAU_Node@?$_Tree_nod@V?$_Tmap_traits@PAUHWND__@@UWndMoveData@@U?$less@PAUHWND__@@@std@@V?$allocator@U?$pair@QAUHWND__@@UWndMoveData@@@std@@@4@$0A@@std@@@2@PAU342@@Z
_TEXT	SEGMENT
__Pnode$ = 8						; size = 4
?_Left@?$_Tree@V?$_Tmap_traits@PAUHWND__@@UWndMoveData@@U?$less@PAUHWND__@@@std@@V?$allocator@U?$pair@QAUHWND__@@UWndMoveData@@@std@@@4@$0A@@std@@@std@@KAAAPAU_Node@?$_Tree_nod@V?$_Tmap_traits@PAUHWND__@@UWndMoveData@@U?$less@PAUHWND__@@@std@@V?$allocator@U?$pair@QAUHWND__@@UWndMoveData@@@std@@@4@$0A@@std@@@2@PAU342@@Z PROC NEAR ; std::_Tree<std::_Tmap_traits<HWND__ *,WndMoveData,std::less<HWND__ *>,std::allocator<std::pair<HWND__ * const,WndMoveData> >,0> >::_Left, COMDAT

; 146  : 		{	// return reference to left pointer in node

  00000	55		 push	 ebp
  00001	8b ec		 mov	 ebp, esp

; 147  : 		return ((_Nodepref)(*_Pnode)._Left);

  00003	8b 45 08	 mov	 eax, DWORD PTR __Pnode$[ebp]

; 148  : 		}

  00006	5d		 pop	 ebp
  00007	c3		 ret	 0
?_Left@?$_Tree@V?$_Tmap_traits@PAUHWND__@@UWndMoveData@@U?$less@PAUHWND__@@@std@@V?$allocator@U?$pair@QAUHWND__@@UWndMoveData@@@std@@@4@$0A@@std@@@std@@KAAAPAU_Node@?$_Tree_nod@V?$_Tmap_traits@PAUHWND__@@UWndMoveData@@U?$less@PAUHWND__@@@std@@V?$allocator@U?$pair@QAUHWND__@@UWndMoveData@@@std@@@4@$0A@@std@@@2@PAU342@@Z ENDP ; std::_Tree<std::_Tmap_traits<HWND__ *,WndMoveData,std::less<HWND__ *>,std::allocator<std::pair<HWND__ * const,WndMoveData> >,0> >::_Left
; Function compile flags: /Odt /RTCsu
_TEXT	ENDS
;	COMDAT ?_Parent@?$_Tree@V?$_Tmap_traits@PAUHWND__@@UWndMoveData@@U?$less@PAUHWND__@@@std@@V?$allocator@U?$pair@QAUHWND__@@UWndMoveData@@@std@@@4@$0A@@std@@@std@@KAAAPAU_Node@?$_Tree_nod@V?$_Tmap_traits@PAUHWND__@@UWndMoveData@@U?$less@PAUHWND__@@@std@@V?$allocator@U?$pair@QAUHWND__@@UWndMoveData@@@std@@@4@$0A@@std@@@2@PAU342@@Z
_TEXT	SEGMENT
__Pnode$ = 8						; size = 4
?_Parent@?$_Tree@V?$_Tmap_traits@PAUHWND__@@UWndMoveData@@U?$less@PAUHWND__@@@std@@V?$allocator@U?$pair@QAUHWND__@@UWndMoveData@@@std@@@4@$0A@@std@@@std@@KAAAPAU_Node@?$_Tree_nod@V?$_Tmap_traits@PAUHWND__@@UWndMoveData@@U?$less@PAUHWND__@@@std@@V?$allocator@U?$pair@QAUHWND__@@UWndMoveData@@@std@@@4@$0A@@std@@@2@PAU342@@Z PROC NEAR ; std::_Tree<std::_Tmap_traits<HWND__ *,WndMoveData,std::less<HWND__ *>,std::allocator<std::pair<HWND__ * const,WndMoveData> >,0> >::_Parent, COMDAT

; 151  : 		{	// return reference to parent pointer in node

  00000	55		 push	 ebp
  00001	8b ec		 mov	 ebp, esp

; 152  : 		return ((_Nodepref)(*_Pnode)._Parent);

  00003	8b 45 08	 mov	 eax, DWORD PTR __Pnode$[ebp]
  00006	83 c0 04	 add	 eax, 4

; 153  : 		}

  00009	5d		 pop	 ebp
  0000a	c3		 ret	 0
?_Parent@?$_Tree@V?$_Tmap_traits@PAUHWND__@@UWndMoveData@@U?$less@PAUHWND__@@@std@@V?$allocator@U?$pair@QAUHWND__@@UWndMoveData@@@std@@@4@$0A@@std@@@std@@KAAAPAU_Node@?$_Tree_nod@V?$_Tmap_traits@PAUHWND__@@UWndMoveData@@U?$less@PAUHWND__@@@std@@V?$allocator@U?$pair@QAUHWND__@@UWndMoveData@@@std@@@4@$0A@@std@@@2@PAU342@@Z ENDP ; std::_Tree<std::_Tmap_traits<HWND__ *,WndMoveData,std::less<HWND__ *>,std::allocator<std::pair<HWND__ * const,WndMoveData> >,0> >::_Parent
; Function compile flags: /Odt /RTCsu
_TEXT	ENDS
;	COMDAT ?_Right@?$_Tree@V?$_Tmap_traits@PAUHWND__@@UWndMoveData@@U?$less@PAUHWND__@@@std@@V?$allocator@U?$pair@QAUHWND__@@UWndMoveData@@@std@@@4@$0A@@std@@@std@@KAAAPAU_Node@?$_Tree_nod@V?$_Tmap_traits@PAUHWND__@@UWndMoveData@@U?$less@PAUHWND__@@@std@@V?$allocator@U?$pair@QAUHWND__@@UWndMoveData@@@std@@@4@$0A@@std@@@2@PAU342@@Z
_TEXT	SEGMENT
__Pnode$ = 8						; size = 4
?_Right@?$_Tree@V?$_Tmap_traits@PAUHWND__@@UWndMoveData@@U?$less@PAUHWND__@@@std@@V?$allocator@U?$pair@QAUHWND__@@UWndMoveData@@@std@@@4@$0A@@std@@@std@@KAAAPAU_Node@?$_Tree_nod@V?$_Tmap_traits@PAUHWND__@@UWndMoveData@@U?$less@PAUHWND__@@@std@@V?$allocator@U?$pair@QAUHWND__@@UWndMoveData@@@std@@@4@$0A@@std@@@2@PAU342@@Z PROC NEAR ; std::_Tree<std::_Tmap_traits<HWND__ *,WndMoveData,std::less<HWND__ *>,std::allocator<std::pair<HWND__ * const,WndMoveData> >,0> >::_Right, COMDAT

; 156  : 		{	// return reference to right pointer in node

  00000	55		 push	 ebp
  00001	8b ec		 mov	 ebp, esp

; 157  : 		return ((_Nodepref)(*_Pnode)._Right);

  00003	8b 45 08	 mov	 eax, DWORD PTR __Pnode$[ebp]
  00006	83 c0 08	 add	 eax, 8

; 158  : 		}

  00009	5d		 pop	 ebp
  0000a	c3		 ret	 0
?_Right@?$_Tree@V?$_Tmap_traits@PAUHWND__@@UWndMoveData@@U?$less@PAUHWND__@@@std@@V?$allocator@U?$pair@QAUHWND__@@UWndMoveData@@@std@@@4@$0A@@std@@@std@@KAAAPAU_Node@?$_Tree_nod@V?$_Tmap_traits@PAUHWND__@@UWndMoveData@@U?$less@PAUHWND__@@@std@@V?$allocator@U?$pair@QAUHWND__@@UWndMoveData@@@std@@@4@$0A@@std@@@2@PAU342@@Z ENDP ; std::_Tree<std::_Tmap_traits<HWND__ *,WndMoveData,std::less<HWND__ *>,std::allocator<std::pair<HWND__ * const,WndMoveData> >,0> >::_Right
; Function compile flags: /Odt /RTCsu
_TEXT	ENDS
;	COMDAT ?_Myval@?$_Tree@V?$_Tmap_traits@PAUHWND__@@UWndMoveData@@U?$less@PAUHWND__@@@std@@V?$allocator@U?$pair@QAUHWND__@@UWndMoveData@@@std@@@4@$0A@@std@@@std@@KAAAU?$pair@QAUHWND__@@UWndMoveData@@@2@PAU_Node@?$_Tree_nod@V?$_Tmap_traits@PAUHWND__@@UWndMoveData@@U?$less@PAUHWND__@@@std@@V?$allocator@U?$pair@QAUHWND__@@UWndMoveData@@@std@@@4@$0A@@std@@@2@@Z
_TEXT	SEGMENT
__Pnode$ = 8						; size = 4
?_Myval@?$_Tree@V?$_Tmap_traits@PAUHWND__@@UWndMoveData@@U?$less@PAUHWND__@@@std@@V?$allocator@U?$pair@QAUHWND__@@UWndMoveData@@@std@@@4@$0A@@std@@@std@@KAAAU?$pair@QAUHWND__@@UWndMoveData@@@2@PAU_Node@?$_Tree_nod@V?$_Tmap_traits@PAUHWND__@@UWndMoveData@@U?$less@PAUHWND__@@@std@@V?$allocator@U?$pair@QAUHWND__@@UWndMoveData@@@std@@@4@$0A@@std@@@2@@Z PROC NEAR ; std::_Tree<std::_Tmap_traits<HWND__ *,WndMoveData,std::less<HWND__ *>,std::allocator<std::pair<HWND__ * const,WndMoveData> >,0> >::_Myval, COMDAT

; 161  : 		{	// return reference to value in node

  00000	55		 push	 ebp
  00001	8b ec		 mov	 ebp, esp

; 162  : 		return ((_Vref)(*_Pnode)._Myval);

  00003	8b 45 08	 mov	 eax, DWORD PTR __Pnode$[ebp]
  00006	83 c0 0c	 add	 eax, 12			; 0000000cH

; 163  : 		}

  00009	5d		 pop	 ebp
  0000a	c3		 ret	 0
?_Myval@?$_Tree@V?$_Tmap_traits@PAUHWND__@@UWndMoveData@@U?$less@PAUHWND__@@@std@@V?$allocator@U?$pair@QAUHWND__@@UWndMoveData@@@std@@@4@$0A@@std@@@std@@KAAAU?$pair@QAUHWND__@@UWndMoveData@@@2@PAU_Node@?$_Tree_nod@V?$_Tmap_traits@PAUHWND__@@UWndMoveData@@U?$less@PAUHWND__@@@std@@V?$allocator@U?$pair@QAUHWND__@@UWndMoveData@@@std@@@4@$0A@@std@@@2@@Z ENDP ; std::_Tree<std::_Tmap_traits<HWND__ *,WndMoveData,std::less<HWND__ *>,std::allocator<std::pair<HWND__ * const,WndMoveData> >,0> >::_Myval
; Function compile flags: /Odt /RTCsu
_TEXT	ENDS
;	COMDAT ?size@?$_Tree@V?$_Tmap_traits@PAUHWND__@@UWndMoveData@@U?$less@PAUHWND__@@@std@@V?$allocator@U?$pair@QAUHWND__@@UWndMoveData@@@std@@@4@$0A@@std@@@std@@QBEIXZ
_TEXT	SEGMENT
_this$ = -4						; size = 4
?size@?$_Tree@V?$_Tmap_traits@PAUHWND__@@UWndMoveData@@U?$less@PAUHWND__@@@std@@V?$allocator@U?$pair@QAUHWND__@@UWndMoveData@@@std@@@4@$0A@@std@@@std@@QBEIXZ PROC NEAR ; std::_Tree<std::_Tmap_traits<HWND__ *,WndMoveData,std::less<HWND__ *>,std::allocator<std::pair<HWND__ * const,WndMoveData> >,0> >::size, COMDAT
; _this$ = ecx

; 447  : 		{	// return length of sequence

  00000	55		 push	 ebp
  00001	8b ec		 mov	 ebp, esp
  00003	51		 push	 ecx
  00004	c7 45 fc cc cc
	cc cc		 mov	 DWORD PTR [ebp-4], -858993460 ; ccccccccH
  0000b	89 4d fc	 mov	 DWORD PTR _this$[ebp], ecx

; 448  : 		return (_Mysize);

  0000e	8b 45 fc	 mov	 eax, DWORD PTR _this$[ebp]
  00011	8b 40 08	 mov	 eax, DWORD PTR [eax+8]

; 449  : 		}

  00014	8b e5		 mov	 esp, ebp
  00016	5d		 pop	 ebp
  00017	c3		 ret	 0
?size@?$_Tree@V?$_Tmap_traits@PAUHWND__@@UWndMoveData@@U?$less@PAUHWND__@@@std@@V?$allocator@U?$pair@QAUHWND__@@UWndMoveData@@@std@@@4@$0A@@std@@@std@@QBEIXZ ENDP ; std::_Tree<std::_Tmap_traits<HWND__ *,WndMoveData,std::less<HWND__ *>,std::allocator<std::pair<HWND__ * const,WndMoveData> >,0> >::size
_TEXT	ENDS
PUBLIC	??0?$pair@Viterator@?$_Tree@V?$_Tmap_traits@PAUHWND__@@UWndMoveData@@U?$less@PAUHWND__@@@std@@V?$allocator@U?$pair@QAUHWND__@@UWndMoveData@@@std@@@4@$0A@@std@@@std@@_N@std@@QAE@ABViterator@?$_Tree@V?$_Tmap_traits@PAUHWND__@@UWndMoveData@@U?$less@PAUHWND__@@@std@@V?$allocator@U?$pair@QAUHWND__@@UWndMoveData@@@std@@@4@$0A@@std@@@1@AB_N@Z ; std::pair<std::_Tree<std::_Tmap_traits<HWND__ *,WndMoveData,std::less<HWND__ *>,std::allocator<std::pair<HWND__ * const,WndMoveData> >,0> >::iterator,bool>::pair<std::_Tree<std::_Tmap_traits<HWND__ *,WndMoveData,std::less<HWND__ *>,std::allocator<std::pair<HWND__ * const,WndMoveData> >,0> >::iterator,bool>
; Function compile flags: /Odt /RTCsu
;	COMDAT ?insert@?$_Tree@V?$_Tmap_traits@PAUHWND__@@UWndMoveData@@U?$less@PAUHWND__@@@std@@V?$allocator@U?$pair@QAUHWND__@@UWndMoveData@@@std@@@4@$0A@@std@@@std@@QAE?AU?$pair@Viterator@?$_Tree@V?$_Tmap_traits@PAUHWND__@@UWndMoveData@@U?$less@PAUHWND__@@@std@@V?$allocator@U?$pair@QAUHWND__@@UWndMoveData@@@std@@@4@$0A@@std@@@std@@_N@2@ABU?$pair@QAUHWND__@@UWndMoveData@@@2@@Z
_TEXT	SEGMENT
tv85 = -64						; size = 4
$T189776 = -57						; size = 1
$T189775 = -56						; size = 4
$T189774 = -49						; size = 1
$T189773 = -48						; size = 4
$T189772 = -41						; size = 1
$T189771 = -40						; size = 4
$T189770 = -36						; size = 4
$T189769 = -29						; size = 1
__Where$188772 = -24					; size = 4
__Addleft$ = -13					; size = 1
__Wherenode$ = -12					; size = 4
__Trynode$ = -8						; size = 4
_this$ = -4						; size = 4
___$ReturnUdt$ = 8					; size = 4
__Val$ = 12						; size = 4
?insert@?$_Tree@V?$_Tmap_traits@PAUHWND__@@UWndMoveData@@U?$less@PAUHWND__@@@std@@V?$allocator@U?$pair@QAUHWND__@@UWndMoveData@@@std@@@4@$0A@@std@@@std@@QAE?AU?$pair@Viterator@?$_Tree@V?$_Tmap_traits@PAUHWND__@@UWndMoveData@@U?$less@PAUHWND__@@@std@@V?$allocator@U?$pair@QAUHWND__@@UWndMoveData@@@std@@@4@$0A@@std@@@std@@_N@2@ABU?$pair@QAUHWND__@@UWndMoveData@@@2@@Z PROC NEAR ; std::_Tree<std::_Tmap_traits<HWND__ *,WndMoveData,std::less<HWND__ *>,std::allocator<std::pair<HWND__ * const,WndMoveData> >,0> >::insert, COMDAT
; _this$ = ecx

; 477  : 		{	// try to insert node with value _Val

  00000	55		 push	 ebp
  00001	8b ec		 mov	 ebp, esp
  00003	83 ec 40	 sub	 esp, 64			; 00000040H
  00006	57		 push	 edi
  00007	51		 push	 ecx
  00008	8d 7d c0	 lea	 edi, DWORD PTR [ebp-64]
  0000b	b9 10 00 00 00	 mov	 ecx, 16			; 00000010H
  00010	b8 cc cc cc cc	 mov	 eax, -858993460		; ccccccccH
  00015	f3 ab		 rep stosd
  00017	59		 pop	 ecx
  00018	89 4d fc	 mov	 DWORD PTR _this$[ebp], ecx

; 478  : 		_Nodeptr _Trynode = _Root();

  0001b	8b 4d fc	 mov	 ecx, DWORD PTR _this$[ebp]
  0001e	e8 00 00 00 00	 call	 ?_Root@?$_Tree@V?$_Tmap_traits@PAUHWND__@@UWndMoveData@@U?$less@PAUHWND__@@@std@@V?$allocator@U?$pair@QAUHWND__@@UWndMoveData@@@std@@@4@$0A@@std@@@std@@IAEAAPAU_Node@?$_Tree_nod@V?$_Tmap_traits@PAUHWND__@@UWndMoveData@@U?$less@PAUHWND__@@@std@@V?$allocator@U?$pair@QAUHWND__@@UWndMoveData@@@std@@@4@$0A@@std@@@2@XZ ; std::_Tree<std::_Tmap_traits<HWND__ *,WndMoveData,std::less<HWND__ *>,std::allocator<std::pair<HWND__ * const,WndMoveData> >,0> >::_Root
  00023	8b 00		 mov	 eax, DWORD PTR [eax]
  00025	89 45 f8	 mov	 DWORD PTR __Trynode$[ebp], eax

; 479  : 		_Nodeptr _Wherenode = _Myhead;

  00028	8b 4d fc	 mov	 ecx, DWORD PTR _this$[ebp]
  0002b	8b 51 04	 mov	 edx, DWORD PTR [ecx+4]
  0002e	89 55 f4	 mov	 DWORD PTR __Wherenode$[ebp], edx

; 480  : 		bool _Addleft = true;	// add to left of head if tree empty

  00031	c6 45 f3 01	 mov	 BYTE PTR __Addleft$[ebp], 1
$L188761:

; 481  : 		while (!_Isnil(_Trynode))

  00035	8b 45 f8	 mov	 eax, DWORD PTR __Trynode$[ebp]
  00038	50		 push	 eax
  00039	e8 00 00 00 00	 call	 ?_Isnil@?$_Tree@V?$_Tmap_traits@PAUHWND__@@UWndMoveData@@U?$less@PAUHWND__@@@std@@V?$allocator@U?$pair@QAUHWND__@@UWndMoveData@@@std@@@4@$0A@@std@@@std@@KAAADPAU_Node@?$_Tree_nod@V?$_Tmap_traits@PAUHWND__@@UWndMoveData@@U?$less@PAUHWND__@@@std@@V?$allocator@U?$pair@QAUHWND__@@UWndMoveData@@@std@@@4@$0A@@std@@@2@@Z ; std::_Tree<std::_Tmap_traits<HWND__ *,WndMoveData,std::less<HWND__ *>,std::allocator<std::pair<HWND__ * const,WndMoveData> >,0> >::_Isnil
  0003e	83 c4 04	 add	 esp, 4
  00041	0f be 08	 movsx	 ecx, BYTE PTR [eax]
  00044	85 c9		 test	 ecx, ecx
  00046	75 5f		 jne	 SHORT $L188762

; 482  : 			{	// look for leaf to insert before (_Addleft) or after
; 483  : 			_Wherenode = _Trynode;

  00048	8b 55 f8	 mov	 edx, DWORD PTR __Trynode$[ebp]
  0004b	89 55 f4	 mov	 DWORD PTR __Wherenode$[ebp], edx

; 484  : 			_Addleft = this->comp(this->_Kfn(_Val), _Key(_Trynode));

  0004e	8b 45 f8	 mov	 eax, DWORD PTR __Trynode$[ebp]
  00051	50		 push	 eax
  00052	e8 00 00 00 00	 call	 ?_Key@?$_Tree@V?$_Tmap_traits@PAUHWND__@@UWndMoveData@@U?$less@PAUHWND__@@@std@@V?$allocator@U?$pair@QAUHWND__@@UWndMoveData@@@std@@@4@$0A@@std@@@std@@KAABQAUHWND__@@PAU_Node@?$_Tree_nod@V?$_Tmap_traits@PAUHWND__@@UWndMoveData@@U?$less@PAUHWND__@@@std@@V?$allocator@U?$pair@QAUHWND__@@UWndMoveData@@@std@@@4@$0A@@std@@@2@@Z ; std::_Tree<std::_Tmap_traits<HWND__ *,WndMoveData,std::less<HWND__ *>,std::allocator<std::pair<HWND__ * const,WndMoveData> >,0> >::_Key
  00057	83 c4 04	 add	 esp, 4
  0005a	50		 push	 eax
  0005b	8b 4d 0c	 mov	 ecx, DWORD PTR __Val$[ebp]
  0005e	51		 push	 ecx
  0005f	e8 00 00 00 00	 call	 ?_Kfn@?$_Tmap_traits@PAUHWND__@@UWndMoveData@@U?$less@PAUHWND__@@@std@@V?$allocator@U?$pair@QAUHWND__@@UWndMoveData@@@std@@@4@$0A@@std@@SAABQAUHWND__@@ABU?$pair@QAUHWND__@@UWndMoveData@@@2@@Z ; std::_Tmap_traits<HWND__ *,WndMoveData,std::less<HWND__ *>,std::allocator<std::pair<HWND__ * const,WndMoveData> >,0>::_Kfn
  00064	83 c4 04	 add	 esp, 4
  00067	50		 push	 eax
  00068	8b 4d fc	 mov	 ecx, DWORD PTR _this$[ebp]
  0006b	e8 00 00 00 00	 call	 ??R?$less@PAUHWND__@@@std@@QBE_NABQAUHWND__@@0@Z ; std::less<HWND__ *>::operator()
  00070	88 45 f3	 mov	 BYTE PTR __Addleft$[ebp], al

; 485  : 			_Trynode = _Addleft ? _Left(_Trynode) : _Right(_Trynode);

  00073	0f b6 55 f3	 movzx	 edx, BYTE PTR __Addleft$[ebp]
  00077	85 d2		 test	 edx, edx
  00079	74 13		 je	 SHORT $L189767
  0007b	8b 45 f8	 mov	 eax, DWORD PTR __Trynode$[ebp]
  0007e	50		 push	 eax
  0007f	e8 00 00 00 00	 call	 ?_Left@?$_Tree@V?$_Tmap_traits@PAUHWND__@@UWndMoveData@@U?$less@PAUHWND__@@@std@@V?$allocator@U?$pair@QAUHWND__@@UWndMoveData@@@std@@@4@$0A@@std@@@std@@KAAAPAU_Node@?$_Tree_nod@V?$_Tmap_traits@PAUHWND__@@UWndMoveData@@U?$less@PAUHWND__@@@std@@V?$allocator@U?$pair@QAUHWND__@@UWndMoveData@@@std@@@4@$0A@@std@@@2@PAU342@@Z ; std::_Tree<std::_Tmap_traits<HWND__ *,WndMoveData,std::less<HWND__ *>,std::allocator<std::pair<HWND__ * const,WndMoveData> >,0> >::_Left
  00084	83 c4 04	 add	 esp, 4
  00087	8b 08		 mov	 ecx, DWORD PTR [eax]
  00089	89 4d c0	 mov	 DWORD PTR tv85[ebp], ecx
  0008c	eb 11		 jmp	 SHORT $L189768
$L189767:
  0008e	8b 55 f8	 mov	 edx, DWORD PTR __Trynode$[ebp]
  00091	52		 push	 edx
  00092	e8 00 00 00 00	 call	 ?_Right@?$_Tree@V?$_Tmap_traits@PAUHWND__@@UWndMoveData@@U?$less@PAUHWND__@@@std@@V?$allocator@U?$pair@QAUHWND__@@UWndMoveData@@@std@@@4@$0A@@std@@@std@@KAAAPAU_Node@?$_Tree_nod@V?$_Tmap_traits@PAUHWND__@@UWndMoveData@@U?$less@PAUHWND__@@@std@@V?$allocator@U?$pair@QAUHWND__@@UWndMoveData@@@std@@@4@$0A@@std@@@2@PAU342@@Z ; std::_Tree<std::_Tmap_traits<HWND__ *,WndMoveData,std::less<HWND__ *>,std::allocator<std::pair<HWND__ * const,WndMoveData> >,0> >::_Right
  00097	83 c4 04	 add	 esp, 4
  0009a	8b 00		 mov	 eax, DWORD PTR [eax]
  0009c	89 45 c0	 mov	 DWORD PTR tv85[ebp], eax
$L189768:
  0009f	8b 4d c0	 mov	 ecx, DWORD PTR tv85[ebp]
  000a2	89 4d f8	 mov	 DWORD PTR __Trynode$[ebp], ecx

; 486  : 			}

  000a5	eb 8e		 jmp	 SHORT $L188761
$L188762:

; 487  : 
; 488  : 		if (this->_Multi)

  000a7	33 d2		 xor	 edx, edx
  000a9	74 31		 je	 SHORT $L188763

; 489  : 			return (_Pairib(_Insert(_Addleft, _Wherenode, _Val), true));

  000ab	c6 45 e3 01	 mov	 BYTE PTR $T189769[ebp], 1
  000af	8d 45 e3	 lea	 eax, DWORD PTR $T189769[ebp]
  000b2	50		 push	 eax
  000b3	8b 4d 0c	 mov	 ecx, DWORD PTR __Val$[ebp]
  000b6	51		 push	 ecx
  000b7	8b 55 f4	 mov	 edx, DWORD PTR __Wherenode$[ebp]
  000ba	52		 push	 edx
  000bb	8a 45 f3	 mov	 al, BYTE PTR __Addleft$[ebp]
  000be	50		 push	 eax
  000bf	8d 4d dc	 lea	 ecx, DWORD PTR $T189770[ebp]
  000c2	51		 push	 ecx
  000c3	8b 4d fc	 mov	 ecx, DWORD PTR _this$[ebp]
  000c6	e8 00 00 00 00	 call	 ?_Insert@?$_Tree@V?$_Tmap_traits@PAUHWND__@@UWndMoveData@@U?$less@PAUHWND__@@@std@@V?$allocator@U?$pair@QAUHWND__@@UWndMoveData@@@std@@@4@$0A@@std@@@std@@IAE?AViterator@12@_NPAU_Node@?$_Tree_nod@V?$_Tmap_traits@PAUHWND__@@UWndMoveData@@U?$less@PAUHWND__@@@std@@V?$allocator@U?$pair@QAUHWND__@@UWndMoveData@@@std@@@4@$0A@@std@@@2@ABU?$pair@QAUHWND__@@UWndMoveData@@@2@@Z ; std::_Tree<std::_Tmap_traits<HWND__ *,WndMoveData,std::less<HWND__ *>,std::allocator<std::pair<HWND__ * const,WndMoveData> >,0> >::_Insert
  000cb	50		 push	 eax
  000cc	8b 4d 08	 mov	 ecx, DWORD PTR ___$ReturnUdt$[ebp]
  000cf	e8 00 00 00 00	 call	 ??0?$pair@Viterator@?$_Tree@V?$_Tmap_traits@PAUHWND__@@UWndMoveData@@U?$less@PAUHWND__@@@std@@V?$allocator@U?$pair@QAUHWND__@@UWndMoveData@@@std@@@4@$0A@@std@@@std@@_N@std@@QAE@ABViterator@?$_Tree@V?$_Tmap_traits@PAUHWND__@@UWndMoveData@@U?$less@PAUHWND__@@@std@@V?$allocator@U?$pair@QAUHWND__@@UWndMoveData@@@std@@@4@$0A@@std@@@1@AB_N@Z ; std::pair<std::_Tree<std::_Tmap_traits<HWND__ *,WndMoveData,std::less<HWND__ *>,std::allocator<std::pair<HWND__ * const,WndMoveData> >,0> >::iterator,bool>::pair<std::_Tree<std::_Tmap_traits<HWND__ *,WndMoveData,std::less<HWND__ *>,std::allocator<std::pair<HWND__ * const,WndMoveData> >,0> >::iterator,bool>
  000d4	8b 45 08	 mov	 eax, DWORD PTR ___$ReturnUdt$[ebp]
  000d7	e9 d9 00 00 00	 jmp	 $L188756
$L188763:

; 490  : 		else
; 491  : 			{	// insert only if unique
; 492  : 			iterator _Where = _TREE_ITERATOR(_Wherenode);

  000dc	8b 55 f4	 mov	 edx, DWORD PTR __Wherenode$[ebp]
  000df	52		 push	 edx
  000e0	8d 4d e8	 lea	 ecx, DWORD PTR __Where$188772[ebp]
  000e3	e8 00 00 00 00	 call	 ??0iterator@?$_Tree@V?$_Tmap_traits@PAUHWND__@@UWndMoveData@@U?$less@PAUHWND__@@@std@@V?$allocator@U?$pair@QAUHWND__@@UWndMoveData@@@std@@@4@$0A@@std@@@std@@QAE@PAU_Node@?$_Tree_nod@V?$_Tmap_traits@PAUHWND__@@UWndMoveData@@U?$less@PAUHWND__@@@std@@V?$allocator@U?$pair@QAUHWND__@@UWndMoveData@@@std@@@4@$0A@@std@@@2@@Z ; std::_Tree<std::_Tmap_traits<HWND__ *,WndMoveData,std::less<HWND__ *>,std::allocator<std::pair<HWND__ * const,WndMoveData> >,0> >::iterator::iterator

; 493  : 			if (!_Addleft)

  000e8	0f b6 45 f3	 movzx	 eax, BYTE PTR __Addleft$[ebp]
  000ec	85 c0		 test	 eax, eax
  000ee	75 02		 jne	 SHORT $L188774

; 494  : 				;	// need to test if insert after is okay
; 495  : 			else if (_Where == begin())

  000f0	eb 50		 jmp	 SHORT $L188775
$L188774:
  000f2	8d 4d d8	 lea	 ecx, DWORD PTR $T189771[ebp]
  000f5	51		 push	 ecx
  000f6	8b 4d fc	 mov	 ecx, DWORD PTR _this$[ebp]
  000f9	e8 00 00 00 00	 call	 ?begin@?$_Tree@V?$_Tmap_traits@PAUHWND__@@UWndMoveData@@U?$less@PAUHWND__@@@std@@V?$allocator@U?$pair@QAUHWND__@@UWndMoveData@@@std@@@4@$0A@@std@@@std@@QAE?AViterator@12@XZ ; std::_Tree<std::_Tmap_traits<HWND__ *,WndMoveData,std::less<HWND__ *>,std::allocator<std::pair<HWND__ * const,WndMoveData> >,0> >::begin
  000fe	50		 push	 eax
  000ff	8d 4d e8	 lea	 ecx, DWORD PTR __Where$188772[ebp]
  00102	e8 00 00 00 00	 call	 ??8const_iterator@?$_Tree@V?$_Tmap_traits@PAUHWND__@@UWndMoveData@@U?$less@PAUHWND__@@@std@@V?$allocator@U?$pair@QAUHWND__@@UWndMoveData@@@std@@@4@$0A@@std@@@std@@QBE_NABV012@@Z ; std::_Tree<std::_Tmap_traits<HWND__ *,WndMoveData,std::less<HWND__ *>,std::allocator<std::pair<HWND__ * const,WndMoveData> >,0> >::const_iterator::operator==
  00107	0f b6 d0	 movzx	 edx, al
  0010a	85 d2		 test	 edx, edx
  0010c	74 2c		 je	 SHORT $L188777

; 496  : 				return (_Pairib(_Insert(true, _Wherenode, _Val), true));

  0010e	c6 45 d7 01	 mov	 BYTE PTR $T189772[ebp], 1
  00112	8d 45 d7	 lea	 eax, DWORD PTR $T189772[ebp]
  00115	50		 push	 eax
  00116	8b 4d 0c	 mov	 ecx, DWORD PTR __Val$[ebp]
  00119	51		 push	 ecx
  0011a	8b 55 f4	 mov	 edx, DWORD PTR __Wherenode$[ebp]
  0011d	52		 push	 edx
  0011e	6a 01		 push	 1
  00120	8d 45 d0	 lea	 eax, DWORD PTR $T189773[ebp]
  00123	50		 push	 eax
  00124	8b 4d fc	 mov	 ecx, DWORD PTR _this$[ebp]
  00127	e8 00 00 00 00	 call	 ?_Insert@?$_Tree@V?$_Tmap_traits@PAUHWND__@@UWndMoveData@@U?$less@PAUHWND__@@@std@@V?$allocator@U?$pair@QAUHWND__@@UWndMoveData@@@std@@@4@$0A@@std@@@std@@IAE?AViterator@12@_NPAU_Node@?$_Tree_nod@V?$_Tmap_traits@PAUHWND__@@UWndMoveData@@U?$less@PAUHWND__@@@std@@V?$allocator@U?$pair@QAUHWND__@@UWndMoveData@@@std@@@4@$0A@@std@@@2@ABU?$pair@QAUHWND__@@UWndMoveData@@@2@@Z ; std::_Tree<std::_Tmap_traits<HWND__ *,WndMoveData,std::less<HWND__ *>,std::allocator<std::pair<HWND__ * const,WndMoveData> >,0> >::_Insert
  0012c	50		 push	 eax
  0012d	8b 4d 08	 mov	 ecx, DWORD PTR ___$ReturnUdt$[ebp]
  00130	e8 00 00 00 00	 call	 ??0?$pair@Viterator@?$_Tree@V?$_Tmap_traits@PAUHWND__@@UWndMoveData@@U?$less@PAUHWND__@@@std@@V?$allocator@U?$pair@QAUHWND__@@UWndMoveData@@@std@@@4@$0A@@std@@@std@@_N@std@@QAE@ABViterator@?$_Tree@V?$_Tmap_traits@PAUHWND__@@UWndMoveData@@U?$less@PAUHWND__@@@std@@V?$allocator@U?$pair@QAUHWND__@@UWndMoveData@@@std@@@4@$0A@@std@@@1@AB_N@Z ; std::pair<std::_Tree<std::_Tmap_traits<HWND__ *,WndMoveData,std::less<HWND__ *>,std::allocator<std::pair<HWND__ * const,WndMoveData> >,0> >::iterator,bool>::pair<std::_Tree<std::_Tmap_traits<HWND__ *,WndMoveData,std::less<HWND__ *>,std::allocator<std::pair<HWND__ * const,WndMoveData> >,0> >::iterator,bool>
  00135	8b 45 08	 mov	 eax, DWORD PTR ___$ReturnUdt$[ebp]
  00138	eb 7b		 jmp	 SHORT $L188756
$L188777:

; 497  : 			else
; 498  : 				--_Where;	// need to test if insert before is okay

  0013a	8d 4d e8	 lea	 ecx, DWORD PTR __Where$188772[ebp]
  0013d	e8 00 00 00 00	 call	 ??Fiterator@?$_Tree@V?$_Tmap_traits@PAUHWND__@@UWndMoveData@@U?$less@PAUHWND__@@@std@@V?$allocator@U?$pair@QAUHWND__@@UWndMoveData@@@std@@@4@$0A@@std@@@std@@QAEAAV012@XZ ; std::_Tree<std::_Tmap_traits<HWND__ *,WndMoveData,std::less<HWND__ *>,std::allocator<std::pair<HWND__ * const,WndMoveData> >,0> >::iterator::operator--
$L188775:

; 499  : 
; 500  : 			if (this->comp(_Key(_Where._Mynode()), this->_Kfn(_Val)))

  00142	8b 4d 0c	 mov	 ecx, DWORD PTR __Val$[ebp]
  00145	51		 push	 ecx
  00146	e8 00 00 00 00	 call	 ?_Kfn@?$_Tmap_traits@PAUHWND__@@UWndMoveData@@U?$less@PAUHWND__@@@std@@V?$allocator@U?$pair@QAUHWND__@@UWndMoveData@@@std@@@4@$0A@@std@@SAABQAUHWND__@@ABU?$pair@QAUHWND__@@UWndMoveData@@@2@@Z ; std::_Tmap_traits<HWND__ *,WndMoveData,std::less<HWND__ *>,std::allocator<std::pair<HWND__ * const,WndMoveData> >,0>::_Kfn
  0014b	83 c4 04	 add	 esp, 4
  0014e	50		 push	 eax
  0014f	8d 4d e8	 lea	 ecx, DWORD PTR __Where$188772[ebp]
  00152	e8 00 00 00 00	 call	 ?_Mynode@const_iterator@?$_Tree@V?$_Tmap_traits@PAUHWND__@@UWndMoveData@@U?$less@PAUHWND__@@@std@@V?$allocator@U?$pair@QAUHWND__@@UWndMoveData@@@std@@@4@$0A@@std@@@std@@QBEPAU_Node@?$_Tree_nod@V?$_Tmap_traits@PAUHWND__@@UWndMoveData@@U?$less@PAUHWND__@@@std@@V?$allocator@U?$pair@QAUHWND__@@UWndMoveData@@@std@@@4@$0A@@std@@@3@XZ ; std::_Tree<std::_Tmap_traits<HWND__ *,WndMoveData,std::less<HWND__ *>,std::allocator<std::pair<HWND__ * const,WndMoveData> >,0> >::const_iterator::_Mynode
  00157	50		 push	 eax
  00158	e8 00 00 00 00	 call	 ?_Key@?$_Tree@V?$_Tmap_traits@PAUHWND__@@UWndMoveData@@U?$less@PAUHWND__@@@std@@V?$allocator@U?$pair@QAUHWND__@@UWndMoveData@@@std@@@4@$0A@@std@@@std@@KAABQAUHWND__@@PAU_Node@?$_Tree_nod@V?$_Tmap_traits@PAUHWND__@@UWndMoveData@@U?$less@PAUHWND__@@@std@@V?$allocator@U?$pair@QAUHWND__@@UWndMoveData@@@std@@@4@$0A@@std@@@2@@Z ; std::_Tree<std::_Tmap_traits<HWND__ *,WndMoveData,std::less<HWND__ *>,std::allocator<std::pair<HWND__ * const,WndMoveData> >,0> >::_Key
  0015d	83 c4 04	 add	 esp, 4
  00160	50		 push	 eax
  00161	8b 4d fc	 mov	 ecx, DWORD PTR _this$[ebp]
  00164	e8 00 00 00 00	 call	 ??R?$less@PAUHWND__@@@std@@QBE_NABQAUHWND__@@0@Z ; std::less<HWND__ *>::operator()
  00169	0f b6 d0	 movzx	 edx, al
  0016c	85 d2		 test	 edx, edx
  0016e	74 2e		 je	 SHORT $L188782

; 501  : 				return (_Pairib(_Insert(_Addleft, _Wherenode, _Val), true));

  00170	c6 45 cf 01	 mov	 BYTE PTR $T189774[ebp], 1
  00174	8d 45 cf	 lea	 eax, DWORD PTR $T189774[ebp]
  00177	50		 push	 eax
  00178	8b 4d 0c	 mov	 ecx, DWORD PTR __Val$[ebp]
  0017b	51		 push	 ecx
  0017c	8b 55 f4	 mov	 edx, DWORD PTR __Wherenode$[ebp]
  0017f	52		 push	 edx
  00180	8a 45 f3	 mov	 al, BYTE PTR __Addleft$[ebp]
  00183	50		 push	 eax
  00184	8d 4d c8	 lea	 ecx, DWORD PTR $T189775[ebp]
  00187	51		 push	 ecx
  00188	8b 4d fc	 mov	 ecx, DWORD PTR _this$[ebp]
  0018b	e8 00 00 00 00	 call	 ?_Insert@?$_Tree@V?$_Tmap_traits@PAUHWND__@@UWndMoveData@@U?$less@PAUHWND__@@@std@@V?$allocator@U?$pair@QAUHWND__@@UWndMoveData@@@std@@@4@$0A@@std@@@std@@IAE?AViterator@12@_NPAU_Node@?$_Tree_nod@V?$_Tmap_traits@PAUHWND__@@UWndMoveData@@U?$less@PAUHWND__@@@std@@V?$allocator@U?$pair@QAUHWND__@@UWndMoveData@@@std@@@4@$0A@@std@@@2@ABU?$pair@QAUHWND__@@UWndMoveData@@@2@@Z ; std::_Tree<std::_Tmap_traits<HWND__ *,WndMoveData,std::less<HWND__ *>,std::allocator<std::pair<HWND__ * const,WndMoveData> >,0> >::_Insert
  00190	50		 push	 eax
  00191	8b 4d 08	 mov	 ecx, DWORD PTR ___$ReturnUdt$[ebp]
  00194	e8 00 00 00 00	 call	 ??0?$pair@Viterator@?$_Tree@V?$_Tmap_traits@PAUHWND__@@UWndMoveData@@U?$less@PAUHWND__@@@std@@V?$allocator@U?$pair@QAUHWND__@@UWndMoveData@@@std@@@4@$0A@@std@@@std@@_N@std@@QAE@ABViterator@?$_Tree@V?$_Tmap_traits@PAUHWND__@@UWndMoveData@@U?$less@PAUHWND__@@@std@@V?$allocator@U?$pair@QAUHWND__@@UWndMoveData@@@std@@@4@$0A@@std@@@1@AB_N@Z ; std::pair<std::_Tree<std::_Tmap_traits<HWND__ *,WndMoveData,std::less<HWND__ *>,std::allocator<std::pair<HWND__ * const,WndMoveData> >,0> >::iterator,bool>::pair<std::_Tree<std::_Tmap_traits<HWND__ *,WndMoveData,std::less<HWND__ *>,std::allocator<std::pair<HWND__ * const,WndMoveData> >,0> >::iterator,bool>
  00199	8b 45 08	 mov	 eax, DWORD PTR ___$ReturnUdt$[ebp]
  0019c	eb 17		 jmp	 SHORT $L188756
$L188782:

; 502  : 			else
; 503  : 				return (_Pairib(_Where, false));

  0019e	c6 45 c7 00	 mov	 BYTE PTR $T189776[ebp], 0
  001a2	8d 55 c7	 lea	 edx, DWORD PTR $T189776[ebp]
  001a5	52		 push	 edx
  001a6	8d 45 e8	 lea	 eax, DWORD PTR __Where$188772[ebp]
  001a9	50		 push	 eax
  001aa	8b 4d 08	 mov	 ecx, DWORD PTR ___$ReturnUdt$[ebp]
  001ad	e8 00 00 00 00	 call	 ??0?$pair@Viterator@?$_Tree@V?$_Tmap_traits@PAUHWND__@@UWndMoveData@@U?$less@PAUHWND__@@@std@@V?$allocator@U?$pair@QAUHWND__@@UWndMoveData@@@std@@@4@$0A@@std@@@std@@_N@std@@QAE@ABViterator@?$_Tree@V?$_Tmap_traits@PAUHWND__@@UWndMoveData@@U?$less@PAUHWND__@@@std@@V?$allocator@U?$pair@QAUHWND__@@UWndMoveData@@@std@@@4@$0A@@std@@@1@AB_N@Z ; std::pair<std::_Tree<std::_Tmap_traits<HWND__ *,WndMoveData,std::less<HWND__ *>,std::allocator<std::pair<HWND__ * const,WndMoveData> >,0> >::iterator,bool>::pair<std::_Tree<std::_Tmap_traits<HWND__ *,WndMoveData,std::less<HWND__ *>,std::allocator<std::pair<HWND__ * const,WndMoveData> >,0> >::iterator,bool>
  001b2	8b 45 08	 mov	 eax, DWORD PTR ___$ReturnUdt$[ebp]
$L188756:

; 504  : 			}
; 505  : 		}

  001b5	52		 push	 edx
  001b6	8b cd		 mov	 ecx, ebp
  001b8	50		 push	 eax
  001b9	8d 15 00 00 00
	00		 lea	 edx, DWORD PTR $L189779
  001bf	e8 00 00 00 00	 call	 @_RTC_CheckStackVars@8
  001c4	58		 pop	 eax
  001c5	5a		 pop	 edx
  001c6	5f		 pop	 edi
  001c7	83 c4 40	 add	 esp, 64			; 00000040H
  001ca	3b ec		 cmp	 ebp, esp
  001cc	e8 00 00 00 00	 call	 __RTC_CheckEsp
  001d1	8b e5		 mov	 esp, ebp
  001d3	5d		 pop	 ebp
  001d4	c2 08 00	 ret	 8
$L189779:
  001d7	01 00 00 00	 DD	 1
  001db	00 00 00 00	 DD	 $L189778
$L189778:
  001df	e8 ff ff ff	 DD	 -24			; ffffffe8H
  001e3	04 00 00 00	 DD	 4
  001e7	00 00 00 00	 DD	 $L189777
$L189777:
  001eb	5f		 DB	 95			; 0000005fH
  001ec	57		 DB	 87			; 00000057H
  001ed	68		 DB	 104			; 00000068H
  001ee	65		 DB	 101			; 00000065H
  001ef	72		 DB	 114			; 00000072H
  001f0	65		 DB	 101			; 00000065H
  001f1	00		 DB	 0
?insert@?$_Tree@V?$_Tmap_traits@PAUHWND__@@UWndMoveData@@U?$less@PAUHWND__@@@std@@V?$allocator@U?$pair@QAUHWND__@@UWndMoveData@@@std@@@4@$0A@@std@@@std@@QAE?AU?$pair@Viterator@?$_Tree@V?$_Tmap_traits@PAUHWND__@@UWndMoveData@@U?$less@PAUHWND__@@@std@@V?$allocator@U?$pair@QAUHWND__@@UWndMoveData@@@std@@@4@$0A@@std@@@std@@_N@2@ABU?$pair@QAUHWND__@@UWndMoveData@@@2@@Z ENDP ; std::_Tree<std::_Tmap_traits<HWND__ *,WndMoveData,std::less<HWND__ *>,std::allocator<std::pair<HWND__ * const,WndMoveData> >,0> >::insert
_TEXT	ENDS
PUBLIC	?erase@?$_Tree@V?$_Tmap_traits@PAUHWND__@@UWndMoveData@@U?$less@PAUHWND__@@@std@@V?$allocator@U?$pair@QAUHWND__@@UWndMoveData@@@std@@@4@$0A@@std@@@std@@QAE?AViterator@12@V312@@Z ; std::_Tree<std::_Tmap_traits<HWND__ *,WndMoveData,std::less<HWND__ *>,std::allocator<std::pair<HWND__ * const,WndMoveData> >,0> >::erase
; Function compile flags: /Odt /RTCsu
;	COMDAT ?erase@?$_Tree@V?$_Tmap_traits@PAUHWND__@@UWndMoveData@@U?$less@PAUHWND__@@@std@@V?$allocator@U?$pair@QAUHWND__@@UWndMoveData@@@std@@@4@$0A@@std@@@std@@QAE?AViterator@12@V312@0@Z
_TEXT	SEGMENT
$T189784 = -20						; size = 4
$T189783 = -16						; size = 4
$T189782 = -12						; size = 4
$T189781 = -8						; size = 4
_this$ = -4						; size = 4
___$ReturnUdt$ = 8					; size = 4
__First$ = 12						; size = 4
__Last$ = 16						; size = 4
?erase@?$_Tree@V?$_Tmap_traits@PAUHWND__@@UWndMoveData@@U?$less@PAUHWND__@@@std@@V?$allocator@U?$pair@QAUHWND__@@UWndMoveData@@@std@@@4@$0A@@std@@@std@@QAE?AViterator@12@V312@0@Z PROC NEAR ; std::_Tree<std::_Tmap_traits<HWND__ *,WndMoveData,std::less<HWND__ *>,std::allocator<std::pair<HWND__ * const,WndMoveData> >,0> >::erase, COMDAT
; _this$ = ecx

; 750  : 		{	// erase [_First, _Last)

  00000	55		 push	 ebp
  00001	8b ec		 mov	 ebp, esp
  00003	83 ec 14	 sub	 esp, 20			; 00000014H
  00006	b8 cc cc cc cc	 mov	 eax, -858993460		; ccccccccH
  0000b	89 45 ec	 mov	 DWORD PTR [ebp-20], eax
  0000e	89 45 f0	 mov	 DWORD PTR [ebp-16], eax
  00011	89 45 f4	 mov	 DWORD PTR [ebp-12], eax
  00014	89 45 f8	 mov	 DWORD PTR [ebp-8], eax
  00017	89 45 fc	 mov	 DWORD PTR [ebp-4], eax
  0001a	89 4d fc	 mov	 DWORD PTR _this$[ebp], ecx

; 751  : 		if (_First == begin() && _Last == end())

  0001d	8d 45 f8	 lea	 eax, DWORD PTR $T189781[ebp]
  00020	50		 push	 eax
  00021	8b 4d fc	 mov	 ecx, DWORD PTR _this$[ebp]
  00024	e8 00 00 00 00	 call	 ?begin@?$_Tree@V?$_Tmap_traits@PAUHWND__@@UWndMoveData@@U?$less@PAUHWND__@@@std@@V?$allocator@U?$pair@QAUHWND__@@UWndMoveData@@@std@@@4@$0A@@std@@@std@@QAE?AViterator@12@XZ ; std::_Tree<std::_Tmap_traits<HWND__ *,WndMoveData,std::less<HWND__ *>,std::allocator<std::pair<HWND__ * const,WndMoveData> >,0> >::begin
  00029	50		 push	 eax
  0002a	8d 4d 0c	 lea	 ecx, DWORD PTR __First$[ebp]
  0002d	e8 00 00 00 00	 call	 ??8const_iterator@?$_Tree@V?$_Tmap_traits@PAUHWND__@@UWndMoveData@@U?$less@PAUHWND__@@@std@@V?$allocator@U?$pair@QAUHWND__@@UWndMoveData@@@std@@@4@$0A@@std@@@std@@QBE_NABV012@@Z ; std::_Tree<std::_Tmap_traits<HWND__ *,WndMoveData,std::less<HWND__ *>,std::allocator<std::pair<HWND__ * const,WndMoveData> >,0> >::const_iterator::operator==
  00032	0f b6 c8	 movzx	 ecx, al
  00035	85 c9		 test	 ecx, ecx
  00037	74 35		 je	 SHORT $L188798
  00039	8d 55 f4	 lea	 edx, DWORD PTR $T189782[ebp]
  0003c	52		 push	 edx
  0003d	8b 4d fc	 mov	 ecx, DWORD PTR _this$[ebp]
  00040	e8 00 00 00 00	 call	 ?end@?$_Tree@V?$_Tmap_traits@PAUHWND__@@UWndMoveData@@U?$less@PAUHWND__@@@std@@V?$allocator@U?$pair@QAUHWND__@@UWndMoveData@@@std@@@4@$0A@@std@@@std@@QAE?AViterator@12@XZ ; std::_Tree<std::_Tmap_traits<HWND__ *,WndMoveData,std::less<HWND__ *>,std::allocator<std::pair<HWND__ * const,WndMoveData> >,0> >::end
  00045	50		 push	 eax
  00046	8d 4d 10	 lea	 ecx, DWORD PTR __Last$[ebp]
  00049	e8 00 00 00 00	 call	 ??8const_iterator@?$_Tree@V?$_Tmap_traits@PAUHWND__@@UWndMoveData@@U?$less@PAUHWND__@@@std@@V?$allocator@U?$pair@QAUHWND__@@UWndMoveData@@@std@@@4@$0A@@std@@@std@@QBE_NABV012@@Z ; std::_Tree<std::_Tmap_traits<HWND__ *,WndMoveData,std::less<HWND__ *>,std::allocator<std::pair<HWND__ * const,WndMoveData> >,0> >::const_iterator::operator==
  0004e	0f b6 c0	 movzx	 eax, al
  00051	85 c0		 test	 eax, eax
  00053	74 19		 je	 SHORT $L188798

; 752  : 			{	// erase all
; 753  : 			clear();

  00055	8b 4d fc	 mov	 ecx, DWORD PTR _this$[ebp]
  00058	e8 00 00 00 00	 call	 ?clear@?$_Tree@V?$_Tmap_traits@PAUHWND__@@UWndMoveData@@U?$less@PAUHWND__@@@std@@V?$allocator@U?$pair@QAUHWND__@@UWndMoveData@@@std@@@4@$0A@@std@@@std@@QAEXXZ ; std::_Tree<std::_Tmap_traits<HWND__ *,WndMoveData,std::less<HWND__ *>,std::allocator<std::pair<HWND__ * const,WndMoveData> >,0> >::clear

; 754  : 			return (begin());

  0005d	8b 4d 08	 mov	 ecx, DWORD PTR ___$ReturnUdt$[ebp]
  00060	51		 push	 ecx
  00061	8b 4d fc	 mov	 ecx, DWORD PTR _this$[ebp]
  00064	e8 00 00 00 00	 call	 ?begin@?$_Tree@V?$_Tmap_traits@PAUHWND__@@UWndMoveData@@U?$less@PAUHWND__@@@std@@V?$allocator@U?$pair@QAUHWND__@@UWndMoveData@@@std@@@4@$0A@@std@@@std@@QAE?AViterator@12@XZ ; std::_Tree<std::_Tmap_traits<HWND__ *,WndMoveData,std::less<HWND__ *>,std::allocator<std::pair<HWND__ * const,WndMoveData> >,0> >::begin
  00069	8b 45 08	 mov	 eax, DWORD PTR ___$ReturnUdt$[ebp]
  0006c	eb 3d		 jmp	 SHORT $L188791
$L188798:

; 755  : 			}
; 756  : 		else
; 757  : 			{	// partial erase, one at a time
; 758  : 			while (_First != _Last)

  0006e	8d 55 10	 lea	 edx, DWORD PTR __Last$[ebp]
  00071	52		 push	 edx
  00072	8d 4d 0c	 lea	 ecx, DWORD PTR __First$[ebp]
  00075	e8 00 00 00 00	 call	 ??9const_iterator@?$_Tree@V?$_Tmap_traits@PAUHWND__@@UWndMoveData@@U?$less@PAUHWND__@@@std@@V?$allocator@U?$pair@QAUHWND__@@UWndMoveData@@@std@@@4@$0A@@std@@@std@@QBE_NABV012@@Z ; std::_Tree<std::_Tmap_traits<HWND__ *,WndMoveData,std::less<HWND__ *>,std::allocator<std::pair<HWND__ * const,WndMoveData> >,0> >::const_iterator::operator!=
  0007a	0f b6 c0	 movzx	 eax, al
  0007d	85 c0		 test	 eax, eax
  0007f	74 1f		 je	 SHORT $L188799

; 759  : 				erase(_First++);

  00081	6a 00		 push	 0
  00083	8d 4d f0	 lea	 ecx, DWORD PTR $T189783[ebp]
  00086	51		 push	 ecx
  00087	8d 4d 0c	 lea	 ecx, DWORD PTR __First$[ebp]
  0008a	e8 00 00 00 00	 call	 ??Eiterator@?$_Tree@V?$_Tmap_traits@PAUHWND__@@UWndMoveData@@U?$less@PAUHWND__@@@std@@V?$allocator@U?$pair@QAUHWND__@@UWndMoveData@@@std@@@4@$0A@@std@@@std@@QAE?AV012@H@Z ; std::_Tree<std::_Tmap_traits<HWND__ *,WndMoveData,std::less<HWND__ *>,std::allocator<std::pair<HWND__ * const,WndMoveData> >,0> >::iterator::operator++
  0008f	8b 10		 mov	 edx, DWORD PTR [eax]
  00091	52		 push	 edx
  00092	8d 45 ec	 lea	 eax, DWORD PTR $T189784[ebp]
  00095	50		 push	 eax
  00096	8b 4d fc	 mov	 ecx, DWORD PTR _this$[ebp]
  00099	e8 00 00 00 00	 call	 ?erase@?$_Tree@V?$_Tmap_traits@PAUHWND__@@UWndMoveData@@U?$less@PAUHWND__@@@std@@V?$allocator@U?$pair@QAUHWND__@@UWndMoveData@@@std@@@4@$0A@@std@@@std@@QAE?AViterator@12@V312@@Z ; std::_Tree<std::_Tmap_traits<HWND__ *,WndMoveData,std::less<HWND__ *>,std::allocator<std::pair<HWND__ * const,WndMoveData> >,0> >::erase
  0009e	eb ce		 jmp	 SHORT $L188798
$L188799:

; 760  : 			return (_First);

  000a0	8b 4d 08	 mov	 ecx, DWORD PTR ___$ReturnUdt$[ebp]
  000a3	8b 55 0c	 mov	 edx, DWORD PTR __First$[ebp]
  000a6	89 11		 mov	 DWORD PTR [ecx], edx
  000a8	8b 45 08	 mov	 eax, DWORD PTR ___$ReturnUdt$[ebp]
$L188791:

; 761  : 			}
; 762  : 		}

  000ab	83 c4 14	 add	 esp, 20			; 00000014H
  000ae	3b ec		 cmp	 ebp, esp
  000b0	e8 00 00 00 00	 call	 __RTC_CheckEsp
  000b5	8b e5		 mov	 esp, ebp
  000b7	5d		 pop	 ebp
  000b8	c2 0c 00	 ret	 12			; 0000000cH
?erase@?$_Tree@V?$_Tmap_traits@PAUHWND__@@UWndMoveData@@U?$less@PAUHWND__@@@std@@V?$allocator@U?$pair@QAUHWND__@@UWndMoveData@@@std@@@4@$0A@@std@@@std@@QAE?AViterator@12@V312@0@Z ENDP ; std::_Tree<std::_Tmap_traits<HWND__ *,WndMoveData,std::less<HWND__ *>,std::allocator<std::pair<HWND__ * const,WndMoveData> >,0> >::erase
_TEXT	ENDS
PUBLIC	?_Buynode@?$_Tree@V?$_Tmap_traits@PAUHWND__@@UWndMoveData@@U?$less@PAUHWND__@@@std@@V?$allocator@U?$pair@QAUHWND__@@UWndMoveData@@@std@@@4@$0A@@std@@@std@@IAEPAU_Node@?$_Tree_nod@V?$_Tmap_traits@PAUHWND__@@UWndMoveData@@U?$less@PAUHWND__@@@std@@V?$allocator@U?$pair@QAUHWND__@@UWndMoveData@@@std@@@4@$0A@@std@@@2@XZ ; std::_Tree<std::_Tmap_traits<HWND__ *,WndMoveData,std::less<HWND__ *>,std::allocator<std::pair<HWND__ * const,WndMoveData> >,0> >::_Buynode
; Function compile flags: /Odt /RTCsu
;	COMDAT ?_Init@?$_Tree@V?$_Tmap_traits@PAUHWND__@@UWndMoveData@@U?$less@PAUHWND__@@@std@@V?$allocator@U?$pair@QAUHWND__@@UWndMoveData@@@std@@@4@$0A@@std@@@std@@IAEXXZ
_TEXT	SEGMENT
_this$ = -4						; size = 4
?_Init@?$_Tree@V?$_Tmap_traits@PAUHWND__@@UWndMoveData@@U?$less@PAUHWND__@@@std@@V?$allocator@U?$pair@QAUHWND__@@UWndMoveData@@@std@@@4@$0A@@std@@@std@@IAEXXZ PROC NEAR ; std::_Tree<std::_Tmap_traits<HWND__ *,WndMoveData,std::less<HWND__ *>,std::allocator<std::pair<HWND__ * const,WndMoveData> >,0> >::_Init, COMDAT
; _this$ = ecx

; 901  : 		{	// create head/nil node and make tree empty

  00000	55		 push	 ebp
  00001	8b ec		 mov	 ebp, esp
  00003	51		 push	 ecx
  00004	c7 45 fc cc cc
	cc cc		 mov	 DWORD PTR [ebp-4], -858993460 ; ccccccccH
  0000b	89 4d fc	 mov	 DWORD PTR _this$[ebp], ecx

; 902  : 		_Myhead = _Buynode();

  0000e	8b 4d fc	 mov	 ecx, DWORD PTR _this$[ebp]
  00011	e8 00 00 00 00	 call	 ?_Buynode@?$_Tree@V?$_Tmap_traits@PAUHWND__@@UWndMoveData@@U?$less@PAUHWND__@@@std@@V?$allocator@U?$pair@QAUHWND__@@UWndMoveData@@@std@@@4@$0A@@std@@@std@@IAEPAU_Node@?$_Tree_nod@V?$_Tmap_traits@PAUHWND__@@UWndMoveData@@U?$less@PAUHWND__@@@std@@V?$allocator@U?$pair@QAUHWND__@@UWndMoveData@@@std@@@4@$0A@@std@@@2@XZ ; std::_Tree<std::_Tmap_traits<HWND__ *,WndMoveData,std::less<HWND__ *>,std::allocator<std::pair<HWND__ * const,WndMoveData> >,0> >::_Buynode
  00016	8b 4d fc	 mov	 ecx, DWORD PTR _this$[ebp]
  00019	89 41 04	 mov	 DWORD PTR [ecx+4], eax

; 903  : 		_Isnil(_Myhead) = true;

  0001c	8b 55 fc	 mov	 edx, DWORD PTR _this$[ebp]
  0001f	8b 42 04	 mov	 eax, DWORD PTR [edx+4]
  00022	50		 push	 eax
  00023	e8 00 00 00 00	 call	 ?_Isnil@?$_Tree@V?$_Tmap_traits@PAUHWND__@@UWndMoveData@@U?$less@PAUHWND__@@@std@@V?$allocator@U?$pair@QAUHWND__@@UWndMoveData@@@std@@@4@$0A@@std@@@std@@KAAADPAU_Node@?$_Tree_nod@V?$_Tmap_traits@PAUHWND__@@UWndMoveData@@U?$less@PAUHWND__@@@std@@V?$allocator@U?$pair@QAUHWND__@@UWndMoveData@@@std@@@4@$0A@@std@@@2@@Z ; std::_Tree<std::_Tmap_traits<HWND__ *,WndMoveData,std::less<HWND__ *>,std::allocator<std::pair<HWND__ * const,WndMoveData> >,0> >::_Isnil
  00028	83 c4 04	 add	 esp, 4
  0002b	c6 00 01	 mov	 BYTE PTR [eax], 1

; 904  : 		_Root() = _Myhead;

  0002e	8b 4d fc	 mov	 ecx, DWORD PTR _this$[ebp]
  00031	e8 00 00 00 00	 call	 ?_Root@?$_Tree@V?$_Tmap_traits@PAUHWND__@@UWndMoveData@@U?$less@PAUHWND__@@@std@@V?$allocator@U?$pair@QAUHWND__@@UWndMoveData@@@std@@@4@$0A@@std@@@std@@IAEAAPAU_Node@?$_Tree_nod@V?$_Tmap_traits@PAUHWND__@@UWndMoveData@@U?$less@PAUHWND__@@@std@@V?$allocator@U?$pair@QAUHWND__@@UWndMoveData@@@std@@@4@$0A@@std@@@2@XZ ; std::_Tree<std::_Tmap_traits<HWND__ *,WndMoveData,std::less<HWND__ *>,std::allocator<std::pair<HWND__ * const,WndMoveData> >,0> >::_Root
  00036	8b 4d fc	 mov	 ecx, DWORD PTR _this$[ebp]
  00039	8b 51 04	 mov	 edx, DWORD PTR [ecx+4]
  0003c	89 10		 mov	 DWORD PTR [eax], edx

; 905  : 		_Lmost() = _Myhead, _Rmost() = _Myhead;

  0003e	8b 4d fc	 mov	 ecx, DWORD PTR _this$[ebp]
  00041	e8 00 00 00 00	 call	 ?_Lmost@?$_Tree@V?$_Tmap_traits@PAUHWND__@@UWndMoveData@@U?$less@PAUHWND__@@@std@@V?$allocator@U?$pair@QAUHWND__@@UWndMoveData@@@std@@@4@$0A@@std@@@std@@IAEAAPAU_Node@?$_Tree_nod@V?$_Tmap_traits@PAUHWND__@@UWndMoveData@@U?$less@PAUHWND__@@@std@@V?$allocator@U?$pair@QAUHWND__@@UWndMoveData@@@std@@@4@$0A@@std@@@2@XZ ; std::_Tree<std::_Tmap_traits<HWND__ *,WndMoveData,std::less<HWND__ *>,std::allocator<std::pair<HWND__ * const,WndMoveData> >,0> >::_Lmost
  00046	8b 4d fc	 mov	 ecx, DWORD PTR _this$[ebp]
  00049	8b 51 04	 mov	 edx, DWORD PTR [ecx+4]
  0004c	89 10		 mov	 DWORD PTR [eax], edx
  0004e	8b 4d fc	 mov	 ecx, DWORD PTR _this$[ebp]
  00051	e8 00 00 00 00	 call	 ?_Rmost@?$_Tree@V?$_Tmap_traits@PAUHWND__@@UWndMoveData@@U?$less@PAUHWND__@@@std@@V?$allocator@U?$pair@QAUHWND__@@UWndMoveData@@@std@@@4@$0A@@std@@@std@@IAEAAPAU_Node@?$_Tree_nod@V?$_Tmap_traits@PAUHWND__@@UWndMoveData@@U?$less@PAUHWND__@@@std@@V?$allocator@U?$pair@QAUHWND__@@UWndMoveData@@@std@@@4@$0A@@std@@@2@XZ ; std::_Tree<std::_Tmap_traits<HWND__ *,WndMoveData,std::less<HWND__ *>,std::allocator<std::pair<HWND__ * const,WndMoveData> >,0> >::_Rmost
  00056	8b 4d fc	 mov	 ecx, DWORD PTR _this$[ebp]
  00059	8b 51 04	 mov	 edx, DWORD PTR [ecx+4]
  0005c	89 10		 mov	 DWORD PTR [eax], edx

; 906  : 		_Mysize = 0;

  0005e	8b 45 fc	 mov	 eax, DWORD PTR _this$[ebp]
  00061	c7 40 08 00 00
	00 00		 mov	 DWORD PTR [eax+8], 0

; 907  : 		}

  00068	83 c4 04	 add	 esp, 4
  0006b	3b ec		 cmp	 ebp, esp
  0006d	e8 00 00 00 00	 call	 __RTC_CheckEsp
  00072	8b e5		 mov	 esp, ebp
  00074	5d		 pop	 ebp
  00075	c3		 ret	 0
?_Init@?$_Tree@V?$_Tmap_traits@PAUHWND__@@UWndMoveData@@U?$less@PAUHWND__@@@std@@V?$allocator@U?$pair@QAUHWND__@@UWndMoveData@@@std@@@4@$0A@@std@@@std@@IAEXXZ ENDP ; std::_Tree<std::_Tmap_traits<HWND__ *,WndMoveData,std::less<HWND__ *>,std::allocator<std::pair<HWND__ * const,WndMoveData> >,0> >::_Init
_TEXT	ENDS
PUBLIC	?_Color@?$_Tree@V?$_Tmap_traits@PAUHWND__@@UWndMoveData@@U?$less@PAUHWND__@@@std@@V?$allocator@U?$pair@QAUHWND__@@UWndMoveData@@@std@@@4@$0A@@std@@@std@@KAAADPAU_Node@?$_Tree_nod@V?$_Tmap_traits@PAUHWND__@@UWndMoveData@@U?$less@PAUHWND__@@@std@@V?$allocator@U?$pair@QAUHWND__@@UWndMoveData@@@std@@@4@$0A@@std@@@2@@Z ; std::_Tree<std::_Tmap_traits<HWND__ *,WndMoveData,std::less<HWND__ *>,std::allocator<std::pair<HWND__ * const,WndMoveData> >,0> >::_Color
PUBLIC	?max_size@?$_Tree@V?$_Tmap_traits@PAUHWND__@@UWndMoveData@@U?$less@PAUHWND__@@@std@@V?$allocator@U?$pair@QAUHWND__@@UWndMoveData@@@std@@@4@$0A@@std@@@std@@QBEIXZ ; std::_Tree<std::_Tmap_traits<HWND__ *,WndMoveData,std::less<HWND__ *>,std::allocator<std::pair<HWND__ * const,WndMoveData> >,0> >::max_size
PUBLIC	?_Lrotate@?$_Tree@V?$_Tmap_traits@PAUHWND__@@UWndMoveData@@U?$less@PAUHWND__@@@std@@V?$allocator@U?$pair@QAUHWND__@@UWndMoveData@@@std@@@4@$0A@@std@@@std@@IAEXPAU_Node@?$_Tree_nod@V?$_Tmap_traits@PAUHWND__@@UWndMoveData@@U?$less@PAUHWND__@@@std@@V?$allocator@U?$pair@QAUHWND__@@UWndMoveData@@@std@@@4@$0A@@std@@@2@@Z ; std::_Tree<std::_Tmap_traits<HWND__ *,WndMoveData,std::less<HWND__ *>,std::allocator<std::pair<HWND__ * const,WndMoveData> >,0> >::_Lrotate
PUBLIC	?_Rrotate@?$_Tree@V?$_Tmap_traits@PAUHWND__@@UWndMoveData@@U?$less@PAUHWND__@@@std@@V?$allocator@U?$pair@QAUHWND__@@UWndMoveData@@@std@@@4@$0A@@std@@@std@@IAEXPAU_Node@?$_Tree_nod@V?$_Tmap_traits@PAUHWND__@@UWndMoveData@@U?$less@PAUHWND__@@@std@@V?$allocator@U?$pair@QAUHWND__@@UWndMoveData@@@std@@@4@$0A@@std@@@2@@Z ; std::_Tree<std::_Tmap_traits<HWND__ *,WndMoveData,std::less<HWND__ *>,std::allocator<std::pair<HWND__ * const,WndMoveData> >,0> >::_Rrotate
PUBLIC	?_Buynode@?$_Tree@V?$_Tmap_traits@PAUHWND__@@UWndMoveData@@U?$less@PAUHWND__@@@std@@V?$allocator@U?$pair@QAUHWND__@@UWndMoveData@@@std@@@4@$0A@@std@@@std@@IAEPAU_Node@?$_Tree_nod@V?$_Tmap_traits@PAUHWND__@@UWndMoveData@@U?$less@PAUHWND__@@@std@@V?$allocator@U?$pair@QAUHWND__@@UWndMoveData@@@std@@@4@$0A@@std@@@2@PAU342@00ABU?$pair@QAUHWND__@@UWndMoveData@@@2@D@Z ; std::_Tree<std::_Tmap_traits<HWND__ *,WndMoveData,std::less<HWND__ *>,std::allocator<std::pair<HWND__ * const,WndMoveData> >,0> >::_Buynode
PUBLIC	??_R0?AVlogic_error@std@@@8			; std::logic_error `RTTI Type Descriptor'
PUBLIC	__CT??_R0?AVlogic_error@std@@@8??0logic_error@std@@QAE@ABV01@@Z40
PUBLIC	??_R0?AVexception@@@8				; exception `RTTI Type Descriptor'
PUBLIC	__CT??_R0?AVexception@@@8??0exception@@QAE@ABV0@@Z12
PUBLIC	__TI3?AVlength_error@std@@
PUBLIC	__CTA3?AVlength_error@std@@
PUBLIC	__CT??_R0?AVlength_error@std@@@8??0length_error@std@@QAE@ABV01@@Z40
PUBLIC	??_C@_0BE@JONHPENG@map?1set?$DMT?$DO?5too?5long?$AA@ ; `string'
PUBLIC	??_R0?AVlength_error@std@@@8			; std::length_error `RTTI Type Descriptor'
PUBLIC	??0logic_error@std@@QAE@ABV01@@Z		; std::logic_error::logic_error
PUBLIC	??0length_error@std@@QAE@ABV?$basic_string@DU?$char_traits@D@std@@V?$allocator@D@2@@1@@Z ; std::length_error::length_error
PUBLIC	??1length_error@std@@UAE@XZ			; std::length_error::~length_error
PUBLIC	??0length_error@std@@QAE@ABV01@@Z		; std::length_error::length_error
EXTRN	__CxxThrowException@8:NEAR
EXTRN	__imp_??0?$basic_string@DU?$char_traits@D@std@@V?$allocator@D@2@@std@@QAE@PBD@Z:NEAR
EXTRN	__imp_??1?$basic_string@DU?$char_traits@D@std@@V?$allocator@D@2@@std@@QAE@XZ:NEAR
EXTRN	??0exception@@QAE@ABV0@@Z:NEAR			; exception::exception
EXTRN	??_7type_info@@6B@:QWORD			; type_info::`vftable'
;	COMDAT xdata$x
xdata$x	SEGMENT
$T189794 DD	0ffffffffH
	DD	FLAT:$L189790
$T189792 DD	019930520H
	DD	01H
	DD	FLAT:$T189794
	DD	2 DUP(00H)
	DD	2 DUP(00H)
xdata$x	ENDS
;	COMDAT ??_C@_0BE@JONHPENG@map?1set?$DMT?$DO?5too?5long?$AA@
CONST	SEGMENT
??_C@_0BE@JONHPENG@map?1set?$DMT?$DO?5too?5long?$AA@ DB 'map/set<T> too l'
	DB	'ong', 00H					; `string'
CONST	ENDS
;	COMDAT __TI3?AVlength_error@std@@
xdata$x	SEGMENT
__TI3?AVlength_error@std@@ DD 00H
	DD	FLAT:??1length_error@std@@UAE@XZ
	DD	00H
	DD	FLAT:__CTA3?AVlength_error@std@@
xdata$x	ENDS
;	COMDAT __CTA3?AVlength_error@std@@
xdata$x	SEGMENT
__CTA3?AVlength_error@std@@ DD 03H
	DD	FLAT:__CT??_R0?AVlength_error@std@@@8??0length_error@std@@QAE@ABV01@@Z40
	DD	FLAT:__CT??_R0?AVlogic_error@std@@@8??0logic_error@std@@QAE@ABV01@@Z40
	DD	FLAT:__CT??_R0?AVexception@@@8??0exception@@QAE@ABV0@@Z12
xdata$x	ENDS
;	COMDAT __CT??_R0?AVlength_error@std@@@8??0length_error@std@@QAE@ABV01@@Z40
xdata$x	SEGMENT
__CT??_R0?AVlength_error@std@@@8??0length_error@std@@QAE@ABV01@@Z40 DD 00H
	DD	FLAT:??_R0?AVlength_error@std@@@8
	DD	00H
	DD	0ffffffffH
	ORG $+4
	DD	028H
	DD	FLAT:??0length_error@std@@QAE@ABV01@@Z
xdata$x	ENDS
;	COMDAT ??_R0?AVlength_error@std@@@8
_DATA	SEGMENT
??_R0?AVlength_error@std@@@8 DD FLAT:??_7type_info@@6B@	; std::length_error `RTTI Type Descriptor'
	DD	00H
	DB	'.?AVlength_error@std@@', 00H
	ORG $-31
	DD	FLAT:??_7type_info@@6B@
	DD	00H
	DB	'.?AVlength_error@std@@', 00H
_DATA	ENDS
;	COMDAT __CT??_R0?AVlogic_error@std@@@8??0logic_error@std@@QAE@ABV01@@Z40
xdata$x	SEGMENT
__CT??_R0?AVlogic_error@std@@@8??0logic_error@std@@QAE@ABV01@@Z40 DD 00H
	DD	FLAT:??_R0?AVlogic_error@std@@@8
	DD	00H
	DD	0ffffffffH
	ORG $+4
	DD	028H
	DD	FLAT:??0logic_error@std@@QAE@ABV01@@Z
xdata$x	ENDS
;	COMDAT ??_R0?AVlogic_error@std@@@8
_DATA	SEGMENT
??_R0?AVlogic_error@std@@@8 DD FLAT:??_7type_info@@6B@	; std::logic_error `RTTI Type Descriptor'
	DD	00H
	DB	'.?AVlogic_error@std@@', 00H
	ORG $-30
	DD	FLAT:??_7type_info@@6B@
	DD	00H
	DB	'.?AVlogic_error@std@@', 00H
_DATA	ENDS
;	COMDAT __CT??_R0?AVexception@@@8??0exception@@QAE@ABV0@@Z12
xdata$x	SEGMENT
__CT??_R0?AVexception@@@8??0exception@@QAE@ABV0@@Z12 DD 00H
	DD	FLAT:??_R0?AVexception@@@8
	DD	00H
	DD	0ffffffffH
	ORG $+4
	DD	0cH
	DD	FLAT:??0exception@@QAE@ABV0@@Z
xdata$x	ENDS
;	COMDAT ??_R0?AVexception@@@8
_DATA	SEGMENT
??_R0?AVexception@@@8 DD FLAT:??_7type_info@@6B@	; exception `RTTI Type Descriptor'
	DD	00H
	DB	'.?AVexception@@', 00H
	ORG $-24
	DD	FLAT:??_7type_info@@6B@
	DD	00H
	DB	'.?AVexception@@', 00H
; Function compile flags: /Odt /RTCsu
_DATA	ENDS
;	COMDAT ?_Insert@?$_Tree@V?$_Tmap_traits@PAUHWND__@@UWndMoveData@@U?$less@PAUHWND__@@@std@@V?$allocator@U?$pair@QAUHWND__@@UWndMoveData@@@std@@@4@$0A@@std@@@std@@IAE?AViterator@12@_NPAU_Node@?$_Tree_nod@V?$_Tmap_traits@PAUHWND__@@UWndMoveData@@U?$less@PAUHWND__@@@std@@V?$allocator@U?$pair@QAUHWND__@@UWndMoveData@@@std@@@4@$0A@@std@@@2@ABU?$pair@QAUHWND__@@UWndMoveData@@@2@@Z
_TEXT	SEGMENT
$T189788 = -92						; size = 28
$T189787 = -64						; size = 40
__Pnode$188822 = -24					; size = 4
__Newnode$ = -20					; size = 4
_this$ = -16						; size = 4
__$EHRec$ = -12						; size = 12
___$ReturnUdt$ = 8					; size = 4
__Addleft$ = 12						; size = 1
__Wherenode$ = 16					; size = 4
__Val$ = 20						; size = 4
?_Insert@?$_Tree@V?$_Tmap_traits@PAUHWND__@@UWndMoveData@@U?$less@PAUHWND__@@@std@@V?$allocator@U?$pair@QAUHWND__@@UWndMoveData@@@std@@@4@$0A@@std@@@std@@IAE?AViterator@12@_NPAU_Node@?$_Tree_nod@V?$_Tmap_traits@PAUHWND__@@UWndMoveData@@U?$less@PAUHWND__@@@std@@V?$allocator@U?$pair@QAUHWND__@@UWndMoveData@@@std@@@4@$0A@@std@@@2@ABU?$pair@QAUHWND__@@UWndMoveData@@@2@@Z PROC NEAR ; std::_Tree<std::_Tmap_traits<HWND__ *,WndMoveData,std::less<HWND__ *>,std::allocator<std::pair<HWND__ * const,WndMoveData> >,0> >::_Insert, COMDAT
; _this$ = ecx

; 911  : 		{	// add node with value next to _Wherenode, to left if _Addnode

  00000	55		 push	 ebp
  00001	8b ec		 mov	 ebp, esp
  00003	6a ff		 push	 -1
  00005	68 00 00 00 00	 push	 __ehhandler$?_Insert@?$_Tree@V?$_Tmap_traits@PAUHWND__@@UWndMoveData@@U?$less@PAUHWND__@@@std@@V?$allocator@U?$pair@QAUHWND__@@UWndMoveData@@@std@@@4@$0A@@std@@@std@@IAE?AViterator@12@_NPAU_Node@?$_Tree_nod@V?$_Tmap_traits@PAUHWND__@@UWndMoveData@@U?$less@PAUHWND__@@@std@@V?$allocator@U?$pair@QAUHWND__@@UWndMoveData@@@std@@@4@$0A@@std@@@2@ABU?$pair@QAUHWND__@@UWndMoveData@@@2@@Z
  0000a	64 a1 00 00 00
	00		 mov	 eax, DWORD PTR fs:__except_list
  00010	50		 push	 eax
  00011	64 89 25 00 00
	00 00		 mov	 DWORD PTR fs:__except_list, esp
  00018	83 ec 50	 sub	 esp, 80			; 00000050H
  0001b	56		 push	 esi
  0001c	57		 push	 edi
  0001d	51		 push	 ecx
  0001e	8d 7d a4	 lea	 edi, DWORD PTR [ebp-92]
  00021	b9 14 00 00 00	 mov	 ecx, 20			; 00000014H
  00026	b8 cc cc cc cc	 mov	 eax, -858993460		; ccccccccH
  0002b	f3 ab		 rep stosd
  0002d	59		 pop	 ecx
  0002e	89 4d f0	 mov	 DWORD PTR _this$[ebp], ecx

; 912  : 		if (max_size() - 1 <= _Mysize)

  00031	8b 4d f0	 mov	 ecx, DWORD PTR _this$[ebp]
  00034	e8 00 00 00 00	 call	 ?max_size@?$_Tree@V?$_Tmap_traits@PAUHWND__@@UWndMoveData@@U?$less@PAUHWND__@@@std@@V?$allocator@U?$pair@QAUHWND__@@UWndMoveData@@@std@@@4@$0A@@std@@@std@@QBEIXZ ; std::_Tree<std::_Tmap_traits<HWND__ *,WndMoveData,std::less<HWND__ *>,std::allocator<std::pair<HWND__ * const,WndMoveData> >,0> >::max_size
  00039	83 e8 01	 sub	 eax, 1
  0003c	8b 4d f0	 mov	 ecx, DWORD PTR _this$[ebp]
  0003f	3b 41 08	 cmp	 eax, DWORD PTR [ecx+8]
  00042	77 38		 ja	 SHORT $L188807

; 913  : 			_THROW(length_error, "map/set<T> too long");

  00044	8b f4		 mov	 esi, esp
  00046	68 00 00 00 00	 push	 OFFSET FLAT:??_C@_0BE@JONHPENG@map?1set?$DMT?$DO?5too?5long?$AA@
  0004b	8d 4d a4	 lea	 ecx, DWORD PTR $T189788[ebp]
  0004e	ff 15 00 00 00
	00		 call	 DWORD PTR __imp_??0?$basic_string@DU?$char_traits@D@std@@V?$allocator@D@2@@std@@QAE@PBD@Z
  00054	3b f4		 cmp	 esi, esp
  00056	e8 00 00 00 00	 call	 __RTC_CheckEsp
  0005b	c7 45 fc 00 00
	00 00		 mov	 DWORD PTR __$EHRec$[ebp+8], 0
  00062	8d 55 a4	 lea	 edx, DWORD PTR $T189788[ebp]
  00065	52		 push	 edx
  00066	8d 4d c0	 lea	 ecx, DWORD PTR $T189787[ebp]
  00069	e8 00 00 00 00	 call	 ??0length_error@std@@QAE@ABV?$basic_string@DU?$char_traits@D@std@@V?$allocator@D@2@@1@@Z ; std::length_error::length_error
  0006e	68 00 00 00 00	 push	 OFFSET FLAT:__TI3?AVlength_error@std@@
  00073	8d 45 c0	 lea	 eax, DWORD PTR $T189787[ebp]
  00076	50		 push	 eax
  00077	e8 00 00 00 00	 call	 __CxxThrowException@8
$L188807:

; 914  : 		_Nodeptr _Newnode = _Buynode(_Myhead, _Wherenode, _Myhead,
; 915  : 			_Val, _Red);

  0007c	6a 00		 push	 0
  0007e	8b 4d 14	 mov	 ecx, DWORD PTR __Val$[ebp]
  00081	51		 push	 ecx
  00082	8b 55 f0	 mov	 edx, DWORD PTR _this$[ebp]
  00085	8b 42 04	 mov	 eax, DWORD PTR [edx+4]
  00088	50		 push	 eax
  00089	8b 4d 10	 mov	 ecx, DWORD PTR __Wherenode$[ebp]
  0008c	51		 push	 ecx
  0008d	8b 55 f0	 mov	 edx, DWORD PTR _this$[ebp]
  00090	8b 42 04	 mov	 eax, DWORD PTR [edx+4]
  00093	50		 push	 eax
  00094	8b 4d f0	 mov	 ecx, DWORD PTR _this$[ebp]
  00097	e8 00 00 00 00	 call	 ?_Buynode@?$_Tree@V?$_Tmap_traits@PAUHWND__@@UWndMoveData@@U?$less@PAUHWND__@@@std@@V?$allocator@U?$pair@QAUHWND__@@UWndMoveData@@@std@@@4@$0A@@std@@@std@@IAEPAU_Node@?$_Tree_nod@V?$_Tmap_traits@PAUHWND__@@UWndMoveData@@U?$less@PAUHWND__@@@std@@V?$allocator@U?$pair@QAUHWND__@@UWndMoveData@@@std@@@4@$0A@@std@@@2@PAU342@00ABU?$pair@QAUHWND__@@UWndMoveData@@@2@D@Z ; std::_Tree<std::_Tmap_traits<HWND__ *,WndMoveData,std::less<HWND__ *>,std::allocator<std::pair<HWND__ * const,WndMoveData> >,0> >::_Buynode
  0009c	89 45 ec	 mov	 DWORD PTR __Newnode$[ebp], eax

; 916  : 
; 917  : 		++_Mysize;

  0009f	8b 4d f0	 mov	 ecx, DWORD PTR _this$[ebp]
  000a2	8b 51 08	 mov	 edx, DWORD PTR [ecx+8]
  000a5	83 c2 01	 add	 edx, 1
  000a8	8b 45 f0	 mov	 eax, DWORD PTR _this$[ebp]
  000ab	89 50 08	 mov	 DWORD PTR [eax+8], edx

; 918  : 		if (_Wherenode == _Myhead)

  000ae	8b 4d f0	 mov	 ecx, DWORD PTR _this$[ebp]
  000b1	8b 55 10	 mov	 edx, DWORD PTR __Wherenode$[ebp]
  000b4	3b 51 04	 cmp	 edx, DWORD PTR [ecx+4]
  000b7	75 29		 jne	 SHORT $L188816

; 919  : 			{	// first node in tree, just set head values
; 920  : 			_Root() = _Newnode;

  000b9	8b 4d f0	 mov	 ecx, DWORD PTR _this$[ebp]
  000bc	e8 00 00 00 00	 call	 ?_Root@?$_Tree@V?$_Tmap_traits@PAUHWND__@@UWndMoveData@@U?$less@PAUHWND__@@@std@@V?$allocator@U?$pair@QAUHWND__@@UWndMoveData@@@std@@@4@$0A@@std@@@std@@IAEAAPAU_Node@?$_Tree_nod@V?$_Tmap_traits@PAUHWND__@@UWndMoveData@@U?$less@PAUHWND__@@@std@@V?$allocator@U?$pair@QAUHWND__@@UWndMoveData@@@std@@@4@$0A@@std@@@2@XZ ; std::_Tree<std::_Tmap_traits<HWND__ *,WndMoveData,std::less<HWND__ *>,std::allocator<std::pair<HWND__ * const,WndMoveData> >,0> >::_Root
  000c1	8b 4d ec	 mov	 ecx, DWORD PTR __Newnode$[ebp]
  000c4	89 08		 mov	 DWORD PTR [eax], ecx

; 921  : 			_Lmost() = _Newnode, _Rmost() = _Newnode;

  000c6	8b 4d f0	 mov	 ecx, DWORD PTR _this$[ebp]
  000c9	e8 00 00 00 00	 call	 ?_Lmost@?$_Tree@V?$_Tmap_traits@PAUHWND__@@UWndMoveData@@U?$less@PAUHWND__@@@std@@V?$allocator@U?$pair@QAUHWND__@@UWndMoveData@@@std@@@4@$0A@@std@@@std@@IAEAAPAU_Node@?$_Tree_nod@V?$_Tmap_traits@PAUHWND__@@UWndMoveData@@U?$less@PAUHWND__@@@std@@V?$allocator@U?$pair@QAUHWND__@@UWndMoveData@@@std@@@4@$0A@@std@@@2@XZ ; std::_Tree<std::_Tmap_traits<HWND__ *,WndMoveData,std::less<HWND__ *>,std::allocator<std::pair<HWND__ * const,WndMoveData> >,0> >::_Lmost
  000ce	8b 55 ec	 mov	 edx, DWORD PTR __Newnode$[ebp]
  000d1	89 10		 mov	 DWORD PTR [eax], edx
  000d3	8b 4d f0	 mov	 ecx, DWORD PTR _this$[ebp]
  000d6	e8 00 00 00 00	 call	 ?_Rmost@?$_Tree@V?$_Tmap_traits@PAUHWND__@@UWndMoveData@@U?$less@PAUHWND__@@@std@@V?$allocator@U?$pair@QAUHWND__@@UWndMoveData@@@std@@@4@$0A@@std@@@std@@IAEAAPAU_Node@?$_Tree_nod@V?$_Tmap_traits@PAUHWND__@@UWndMoveData@@U?$less@PAUHWND__@@@std@@V?$allocator@U?$pair@QAUHWND__@@UWndMoveData@@@std@@@4@$0A@@std@@@2@XZ ; std::_Tree<std::_Tmap_traits<HWND__ *,WndMoveData,std::less<HWND__ *>,std::allocator<std::pair<HWND__ * const,WndMoveData> >,0> >::_Rmost
  000db	8b 4d ec	 mov	 ecx, DWORD PTR __Newnode$[ebp]
  000de	89 08		 mov	 DWORD PTR [eax], ecx

; 922  : 			}
; 923  : 		else if (_Addleft)

  000e0	eb 64		 jmp	 SHORT $L188817
$L188816:
  000e2	0f b6 55 0c	 movzx	 edx, BYTE PTR __Addleft$[ebp]
  000e6	85 d2		 test	 edx, edx
  000e8	74 2f		 je	 SHORT $L188818

; 924  : 			{	// add to left of _Wherenode
; 925  : 			_Left(_Wherenode) = _Newnode;

  000ea	8b 45 10	 mov	 eax, DWORD PTR __Wherenode$[ebp]
  000ed	50		 push	 eax
  000ee	e8 00 00 00 00	 call	 ?_Left@?$_Tree@V?$_Tmap_traits@PAUHWND__@@UWndMoveData@@U?$less@PAUHWND__@@@std@@V?$allocator@U?$pair@QAUHWND__@@UWndMoveData@@@std@@@4@$0A@@std@@@std@@KAAAPAU_Node@?$_Tree_nod@V?$_Tmap_traits@PAUHWND__@@UWndMoveData@@U?$less@PAUHWND__@@@std@@V?$allocator@U?$pair@QAUHWND__@@UWndMoveData@@@std@@@4@$0A@@std@@@2@PAU342@@Z ; std::_Tree<std::_Tmap_traits<HWND__ *,WndMoveData,std::less<HWND__ *>,std::allocator<std::pair<HWND__ * const,WndMoveData> >,0> >::_Left
  000f3	83 c4 04	 add	 esp, 4
  000f6	8b 4d ec	 mov	 ecx, DWORD PTR __Newnode$[ebp]
  000f9	89 08		 mov	 DWORD PTR [eax], ecx

; 926  : 			if (_Wherenode == _Lmost())

  000fb	8b 4d f0	 mov	 ecx, DWORD PTR _this$[ebp]
  000fe	e8 00 00 00 00	 call	 ?_Lmost@?$_Tree@V?$_Tmap_traits@PAUHWND__@@UWndMoveData@@U?$less@PAUHWND__@@@std@@V?$allocator@U?$pair@QAUHWND__@@UWndMoveData@@@std@@@4@$0A@@std@@@std@@IAEAAPAU_Node@?$_Tree_nod@V?$_Tmap_traits@PAUHWND__@@UWndMoveData@@U?$less@PAUHWND__@@@std@@V?$allocator@U?$pair@QAUHWND__@@UWndMoveData@@@std@@@4@$0A@@std@@@2@XZ ; std::_Tree<std::_Tmap_traits<HWND__ *,WndMoveData,std::less<HWND__ *>,std::allocator<std::pair<HWND__ * const,WndMoveData> >,0> >::_Lmost
  00103	8b 55 10	 mov	 edx, DWORD PTR __Wherenode$[ebp]
  00106	3b 10		 cmp	 edx, DWORD PTR [eax]
  00108	75 0d		 jne	 SHORT $L188819

; 927  : 				_Lmost() = _Newnode;

  0010a	8b 4d f0	 mov	 ecx, DWORD PTR _this$[ebp]
  0010d	e8 00 00 00 00	 call	 ?_Lmost@?$_Tree@V?$_Tmap_traits@PAUHWND__@@UWndMoveData@@U?$less@PAUHWND__@@@std@@V?$allocator@U?$pair@QAUHWND__@@UWndMoveData@@@std@@@4@$0A@@std@@@std@@IAEAAPAU_Node@?$_Tree_nod@V?$_Tmap_traits@PAUHWND__@@UWndMoveData@@U?$less@PAUHWND__@@@std@@V?$allocator@U?$pair@QAUHWND__@@UWndMoveData@@@std@@@4@$0A@@std@@@2@XZ ; std::_Tree<std::_Tmap_traits<HWND__ *,WndMoveData,std::less<HWND__ *>,std::allocator<std::pair<HWND__ * const,WndMoveData> >,0> >::_Lmost
  00112	8b 4d ec	 mov	 ecx, DWORD PTR __Newnode$[ebp]
  00115	89 08		 mov	 DWORD PTR [eax], ecx
$L188819:

; 928  : 			}
; 929  : 		else

  00117	eb 2d		 jmp	 SHORT $L188817
$L188818:

; 930  : 			{	// add to right of _Wherenode
; 931  : 			_Right(_Wherenode) = _Newnode;

  00119	8b 55 10	 mov	 edx, DWORD PTR __Wherenode$[ebp]
  0011c	52		 push	 edx
  0011d	e8 00 00 00 00	 call	 ?_Right@?$_Tree@V?$_Tmap_traits@PAUHWND__@@UWndMoveData@@U?$less@PAUHWND__@@@std@@V?$allocator@U?$pair@QAUHWND__@@UWndMoveData@@@std@@@4@$0A@@std@@@std@@KAAAPAU_Node@?$_Tree_nod@V?$_Tmap_traits@PAUHWND__@@UWndMoveData@@U?$less@PAUHWND__@@@std@@V?$allocator@U?$pair@QAUHWND__@@UWndMoveData@@@std@@@4@$0A@@std@@@2@PAU342@@Z ; std::_Tree<std::_Tmap_traits<HWND__ *,WndMoveData,std::less<HWND__ *>,std::allocator<std::pair<HWND__ * const,WndMoveData> >,0> >::_Right
  00122	83 c4 04	 add	 esp, 4
  00125	8b 4d ec	 mov	 ecx, DWORD PTR __Newnode$[ebp]
  00128	89 08		 mov	 DWORD PTR [eax], ecx

; 932  : 			if (_Wherenode == _Rmost())

  0012a	8b 4d f0	 mov	 ecx, DWORD PTR _this$[ebp]
  0012d	e8 00 00 00 00	 call	 ?_Rmost@?$_Tree@V?$_Tmap_traits@PAUHWND__@@UWndMoveData@@U?$less@PAUHWND__@@@std@@V?$allocator@U?$pair@QAUHWND__@@UWndMoveData@@@std@@@4@$0A@@std@@@std@@IAEAAPAU_Node@?$_Tree_nod@V?$_Tmap_traits@PAUHWND__@@UWndMoveData@@U?$less@PAUHWND__@@@std@@V?$allocator@U?$pair@QAUHWND__@@UWndMoveData@@@std@@@4@$0A@@std@@@2@XZ ; std::_Tree<std::_Tmap_traits<HWND__ *,WndMoveData,std::less<HWND__ *>,std::allocator<std::pair<HWND__ * const,WndMoveData> >,0> >::_Rmost
  00132	8b 55 10	 mov	 edx, DWORD PTR __Wherenode$[ebp]
  00135	3b 10		 cmp	 edx, DWORD PTR [eax]
  00137	75 0d		 jne	 SHORT $L188817

; 933  : 				_Rmost() = _Newnode;

  00139	8b 4d f0	 mov	 ecx, DWORD PTR _this$[ebp]
  0013c	e8 00 00 00 00	 call	 ?_Rmost@?$_Tree@V?$_Tmap_traits@PAUHWND__@@UWndMoveData@@U?$less@PAUHWND__@@@std@@V?$allocator@U?$pair@QAUHWND__@@UWndMoveData@@@std@@@4@$0A@@std@@@std@@IAEAAPAU_Node@?$_Tree_nod@V?$_Tmap_traits@PAUHWND__@@UWndMoveData@@U?$less@PAUHWND__@@@std@@V?$allocator@U?$pair@QAUHWND__@@UWndMoveData@@@std@@@4@$0A@@std@@@2@XZ ; std::_Tree<std::_Tmap_traits<HWND__ *,WndMoveData,std::less<HWND__ *>,std::allocator<std::pair<HWND__ * const,WndMoveData> >,0> >::_Rmost
  00141	8b 4d ec	 mov	 ecx, DWORD PTR __Newnode$[ebp]
  00144	89 08		 mov	 DWORD PTR [eax], ecx
$L188817:

; 934  : 			}
; 935  : 
; 936  : 		for (_Nodeptr _Pnode = _Newnode; _Color(_Parent(_Pnode)) == _Red; )

  00146	8b 55 ec	 mov	 edx, DWORD PTR __Newnode$[ebp]
  00149	89 55 e8	 mov	 DWORD PTR __Pnode$188822[ebp], edx
$L188824:
  0014c	8b 45 e8	 mov	 eax, DWORD PTR __Pnode$188822[ebp]
  0014f	50		 push	 eax
  00150	e8 00 00 00 00	 call	 ?_Parent@?$_Tree@V?$_Tmap_traits@PAUHWND__@@UWndMoveData@@U?$less@PAUHWND__@@@std@@V?$allocator@U?$pair@QAUHWND__@@UWndMoveData@@@std@@@4@$0A@@std@@@std@@KAAAPAU_Node@?$_Tree_nod@V?$_Tmap_traits@PAUHWND__@@UWndMoveData@@U?$less@PAUHWND__@@@std@@V?$allocator@U?$pair@QAUHWND__@@UWndMoveData@@@std@@@4@$0A@@std@@@2@PAU342@@Z ; std::_Tree<std::_Tmap_traits<HWND__ *,WndMoveData,std::less<HWND__ *>,std::allocator<std::pair<HWND__ * const,WndMoveData> >,0> >::_Parent
  00155	83 c4 04	 add	 esp, 4
  00158	8b 08		 mov	 ecx, DWORD PTR [eax]
  0015a	51		 push	 ecx
  0015b	e8 00 00 00 00	 call	 ?_Color@?$_Tree@V?$_Tmap_traits@PAUHWND__@@UWndMoveData@@U?$less@PAUHWND__@@@std@@V?$allocator@U?$pair@QAUHWND__@@UWndMoveData@@@std@@@4@$0A@@std@@@std@@KAAADPAU_Node@?$_Tree_nod@V?$_Tmap_traits@PAUHWND__@@UWndMoveData@@U?$less@PAUHWND__@@@std@@V?$allocator@U?$pair@QAUHWND__@@UWndMoveData@@@std@@@4@$0A@@std@@@2@@Z ; std::_Tree<std::_Tmap_traits<HWND__ *,WndMoveData,std::less<HWND__ *>,std::allocator<std::pair<HWND__ * const,WndMoveData> >,0> >::_Color
  00160	83 c4 04	 add	 esp, 4
  00163	0f be 10	 movsx	 edx, BYTE PTR [eax]
  00166	85 d2		 test	 edx, edx
  00168	0f 85 ce 02 00
	00		 jne	 $L188825

; 937  : 			if (_Parent(_Pnode) == _Left(_Parent(_Parent(_Pnode))))

  0016e	8b 45 e8	 mov	 eax, DWORD PTR __Pnode$188822[ebp]
  00171	50		 push	 eax
  00172	e8 00 00 00 00	 call	 ?_Parent@?$_Tree@V?$_Tmap_traits@PAUHWND__@@UWndMoveData@@U?$less@PAUHWND__@@@std@@V?$allocator@U?$pair@QAUHWND__@@UWndMoveData@@@std@@@4@$0A@@std@@@std@@KAAAPAU_Node@?$_Tree_nod@V?$_Tmap_traits@PAUHWND__@@UWndMoveData@@U?$less@PAUHWND__@@@std@@V?$allocator@U?$pair@QAUHWND__@@UWndMoveData@@@std@@@4@$0A@@std@@@2@PAU342@@Z ; std::_Tree<std::_Tmap_traits<HWND__ *,WndMoveData,std::less<HWND__ *>,std::allocator<std::pair<HWND__ * const,WndMoveData> >,0> >::_Parent
  00177	83 c4 04	 add	 esp, 4
  0017a	8b f0		 mov	 esi, eax
  0017c	8b 4d e8	 mov	 ecx, DWORD PTR __Pnode$188822[ebp]
  0017f	51		 push	 ecx
  00180	e8 00 00 00 00	 call	 ?_Parent@?$_Tree@V?$_Tmap_traits@PAUHWND__@@UWndMoveData@@U?$less@PAUHWND__@@@std@@V?$allocator@U?$pair@QAUHWND__@@UWndMoveData@@@std@@@4@$0A@@std@@@std@@KAAAPAU_Node@?$_Tree_nod@V?$_Tmap_traits@PAUHWND__@@UWndMoveData@@U?$less@PAUHWND__@@@std@@V?$allocator@U?$pair@QAUHWND__@@UWndMoveData@@@std@@@4@$0A@@std@@@2@PAU342@@Z ; std::_Tree<std::_Tmap_traits<HWND__ *,WndMoveData,std::less<HWND__ *>,std::allocator<std::pair<HWND__ * const,WndMoveData> >,0> >::_Parent
  00185	83 c4 04	 add	 esp, 4
  00188	8b 10		 mov	 edx, DWORD PTR [eax]
  0018a	52		 push	 edx
  0018b	e8 00 00 00 00	 call	 ?_Parent@?$_Tree@V?$_Tmap_traits@PAUHWND__@@UWndMoveData@@U?$less@PAUHWND__@@@std@@V?$allocator@U?$pair@QAUHWND__@@UWndMoveData@@@std@@@4@$0A@@std@@@std@@KAAAPAU_Node@?$_Tree_nod@V?$_Tmap_traits@PAUHWND__@@UWndMoveData@@U?$less@PAUHWND__@@@std@@V?$allocator@U?$pair@QAUHWND__@@UWndMoveData@@@std@@@4@$0A@@std@@@2@PAU342@@Z ; std::_Tree<std::_Tmap_traits<HWND__ *,WndMoveData,std::less<HWND__ *>,std::allocator<std::pair<HWND__ * const,WndMoveData> >,0> >::_Parent
  00190	83 c4 04	 add	 esp, 4
  00193	8b 00		 mov	 eax, DWORD PTR [eax]
  00195	50		 push	 eax
  00196	e8 00 00 00 00	 call	 ?_Left@?$_Tree@V?$_Tmap_traits@PAUHWND__@@UWndMoveData@@U?$less@PAUHWND__@@@std@@V?$allocator@U?$pair@QAUHWND__@@UWndMoveData@@@std@@@4@$0A@@std@@@std@@KAAAPAU_Node@?$_Tree_nod@V?$_Tmap_traits@PAUHWND__@@UWndMoveData@@U?$less@PAUHWND__@@@std@@V?$allocator@U?$pair@QAUHWND__@@UWndMoveData@@@std@@@4@$0A@@std@@@2@PAU342@@Z ; std::_Tree<std::_Tmap_traits<HWND__ *,WndMoveData,std::less<HWND__ *>,std::allocator<std::pair<HWND__ * const,WndMoveData> >,0> >::_Left
  0019b	83 c4 04	 add	 esp, 4
  0019e	8b 0e		 mov	 ecx, DWORD PTR [esi]
  001a0	3b 08		 cmp	 ecx, DWORD PTR [eax]
  001a2	0f 85 4a 01 00
	00		 jne	 $L188826

; 938  : 				{	// fixup red-red in left subtree
; 939  : 				_Wherenode = _Right(_Parent(_Parent(_Pnode)));

  001a8	8b 55 e8	 mov	 edx, DWORD PTR __Pnode$188822[ebp]
  001ab	52		 push	 edx
  001ac	e8 00 00 00 00	 call	 ?_Parent@?$_Tree@V?$_Tmap_traits@PAUHWND__@@UWndMoveData@@U?$less@PAUHWND__@@@std@@V?$allocator@U?$pair@QAUHWND__@@UWndMoveData@@@std@@@4@$0A@@std@@@std@@KAAAPAU_Node@?$_Tree_nod@V?$_Tmap_traits@PAUHWND__@@UWndMoveData@@U?$less@PAUHWND__@@@std@@V?$allocator@U?$pair@QAUHWND__@@UWndMoveData@@@std@@@4@$0A@@std@@@2@PAU342@@Z ; std::_Tree<std::_Tmap_traits<HWND__ *,WndMoveData,std::less<HWND__ *>,std::allocator<std::pair<HWND__ * const,WndMoveData> >,0> >::_Parent
  001b1	83 c4 04	 add	 esp, 4
  001b4	8b 00		 mov	 eax, DWORD PTR [eax]
  001b6	50		 push	 eax
  001b7	e8 00 00 00 00	 call	 ?_Parent@?$_Tree@V?$_Tmap_traits@PAUHWND__@@UWndMoveData@@U?$less@PAUHWND__@@@std@@V?$allocator@U?$pair@QAUHWND__@@UWndMoveData@@@std@@@4@$0A@@std@@@std@@KAAAPAU_Node@?$_Tree_nod@V?$_Tmap_traits@PAUHWND__@@UWndMoveData@@U?$less@PAUHWND__@@@std@@V?$allocator@U?$pair@QAUHWND__@@UWndMoveData@@@std@@@4@$0A@@std@@@2@PAU342@@Z ; std::_Tree<std::_Tmap_traits<HWND__ *,WndMoveData,std::less<HWND__ *>,std::allocator<std::pair<HWND__ * const,WndMoveData> >,0> >::_Parent
  001bc	83 c4 04	 add	 esp, 4
  001bf	8b 08		 mov	 ecx, DWORD PTR [eax]
  001c1	51		 push	 ecx
  001c2	e8 00 00 00 00	 call	 ?_Right@?$_Tree@V?$_Tmap_traits@PAUHWND__@@UWndMoveData@@U?$less@PAUHWND__@@@std@@V?$allocator@U?$pair@QAUHWND__@@UWndMoveData@@@std@@@4@$0A@@std@@@std@@KAAAPAU_Node@?$_Tree_nod@V?$_Tmap_traits@PAUHWND__@@UWndMoveData@@U?$less@PAUHWND__@@@std@@V?$allocator@U?$pair@QAUHWND__@@UWndMoveData@@@std@@@4@$0A@@std@@@2@PAU342@@Z ; std::_Tree<std::_Tmap_traits<HWND__ *,WndMoveData,std::less<HWND__ *>,std::allocator<std::pair<HWND__ * const,WndMoveData> >,0> >::_Right
  001c7	83 c4 04	 add	 esp, 4
  001ca	8b 10		 mov	 edx, DWORD PTR [eax]
  001cc	89 55 10	 mov	 DWORD PTR __Wherenode$[ebp], edx

; 940  : 				if (_Color(_Wherenode) == _Red)

  001cf	8b 45 10	 mov	 eax, DWORD PTR __Wherenode$[ebp]
  001d2	50		 push	 eax
  001d3	e8 00 00 00 00	 call	 ?_Color@?$_Tree@V?$_Tmap_traits@PAUHWND__@@UWndMoveData@@U?$less@PAUHWND__@@@std@@V?$allocator@U?$pair@QAUHWND__@@UWndMoveData@@@std@@@4@$0A@@std@@@std@@KAAADPAU_Node@?$_Tree_nod@V?$_Tmap_traits@PAUHWND__@@UWndMoveData@@U?$less@PAUHWND__@@@std@@V?$allocator@U?$pair@QAUHWND__@@UWndMoveData@@@std@@@4@$0A@@std@@@2@@Z ; std::_Tree<std::_Tmap_traits<HWND__ *,WndMoveData,std::less<HWND__ *>,std::allocator<std::pair<HWND__ * const,WndMoveData> >,0> >::_Color
  001d8	83 c4 04	 add	 esp, 4
  001db	0f be 08	 movsx	 ecx, BYTE PTR [eax]
  001de	85 c9		 test	 ecx, ecx
  001e0	75 6f		 jne	 SHORT $L188827

; 941  : 					{	// parent has two red children, blacken both
; 942  : 					_Color(_Parent(_Pnode)) = _Black;

  001e2	8b 55 e8	 mov	 edx, DWORD PTR __Pnode$188822[ebp]
  001e5	52		 push	 edx
  001e6	e8 00 00 00 00	 call	 ?_Parent@?$_Tree@V?$_Tmap_traits@PAUHWND__@@UWndMoveData@@U?$less@PAUHWND__@@@std@@V?$allocator@U?$pair@QAUHWND__@@UWndMoveData@@@std@@@4@$0A@@std@@@std@@KAAAPAU_Node@?$_Tree_nod@V?$_Tmap_traits@PAUHWND__@@UWndMoveData@@U?$less@PAUHWND__@@@std@@V?$allocator@U?$pair@QAUHWND__@@UWndMoveData@@@std@@@4@$0A@@std@@@2@PAU342@@Z ; std::_Tree<std::_Tmap_traits<HWND__ *,WndMoveData,std::less<HWND__ *>,std::allocator<std::pair<HWND__ * const,WndMoveData> >,0> >::_Parent
  001eb	83 c4 04	 add	 esp, 4
  001ee	8b 00		 mov	 eax, DWORD PTR [eax]
  001f0	50		 push	 eax
  001f1	e8 00 00 00 00	 call	 ?_Color@?$_Tree@V?$_Tmap_traits@PAUHWND__@@UWndMoveData@@U?$less@PAUHWND__@@@std@@V?$allocator@U?$pair@QAUHWND__@@UWndMoveData@@@std@@@4@$0A@@std@@@std@@KAAADPAU_Node@?$_Tree_nod@V?$_Tmap_traits@PAUHWND__@@UWndMoveData@@U?$less@PAUHWND__@@@std@@V?$allocator@U?$pair@QAUHWND__@@UWndMoveData@@@std@@@4@$0A@@std@@@2@@Z ; std::_Tree<std::_Tmap_traits<HWND__ *,WndMoveData,std::less<HWND__ *>,std::allocator<std::pair<HWND__ * const,WndMoveData> >,0> >::_Color
  001f6	83 c4 04	 add	 esp, 4
  001f9	c6 00 01	 mov	 BYTE PTR [eax], 1

; 943  : 					_Color(_Wherenode) = _Black;

  001fc	8b 4d 10	 mov	 ecx, DWORD PTR __Wherenode$[ebp]
  001ff	51		 push	 ecx
  00200	e8 00 00 00 00	 call	 ?_Color@?$_Tree@V?$_Tmap_traits@PAUHWND__@@UWndMoveData@@U?$less@PAUHWND__@@@std@@V?$allocator@U?$pair@QAUHWND__@@UWndMoveData@@@std@@@4@$0A@@std@@@std@@KAAADPAU_Node@?$_Tree_nod@V?$_Tmap_traits@PAUHWND__@@UWndMoveData@@U?$less@PAUHWND__@@@std@@V?$allocator@U?$pair@QAUHWND__@@UWndMoveData@@@std@@@4@$0A@@std@@@2@@Z ; std::_Tree<std::_Tmap_traits<HWND__ *,WndMoveData,std::less<HWND__ *>,std::allocator<std::pair<HWND__ * const,WndMoveData> >,0> >::_Color
  00205	83 c4 04	 add	 esp, 4
  00208	c6 00 01	 mov	 BYTE PTR [eax], 1

; 944  : 					_Color(_Parent(_Parent(_Pnode))) = _Red;

  0020b	8b 55 e8	 mov	 edx, DWORD PTR __Pnode$188822[ebp]
  0020e	52		 push	 edx
  0020f	e8 00 00 00 00	 call	 ?_Parent@?$_Tree@V?$_Tmap_traits@PAUHWND__@@UWndMoveData@@U?$less@PAUHWND__@@@std@@V?$allocator@U?$pair@QAUHWND__@@UWndMoveData@@@std@@@4@$0A@@std@@@std@@KAAAPAU_Node@?$_Tree_nod@V?$_Tmap_traits@PAUHWND__@@UWndMoveData@@U?$less@PAUHWND__@@@std@@V?$allocator@U?$pair@QAUHWND__@@UWndMoveData@@@std@@@4@$0A@@std@@@2@PAU342@@Z ; std::_Tree<std::_Tmap_traits<HWND__ *,WndMoveData,std::less<HWND__ *>,std::allocator<std::pair<HWND__ * const,WndMoveData> >,0> >::_Parent
  00214	83 c4 04	 add	 esp, 4
  00217	8b 00		 mov	 eax, DWORD PTR [eax]
  00219	50		 push	 eax
  0021a	e8 00 00 00 00	 call	 ?_Parent@?$_Tree@V?$_Tmap_traits@PAUHWND__@@UWndMoveData@@U?$less@PAUHWND__@@@std@@V?$allocator@U?$pair@QAUHWND__@@UWndMoveData@@@std@@@4@$0A@@std@@@std@@KAAAPAU_Node@?$_Tree_nod@V?$_Tmap_traits@PAUHWND__@@UWndMoveData@@U?$less@PAUHWND__@@@std@@V?$allocator@U?$pair@QAUHWND__@@UWndMoveData@@@std@@@4@$0A@@std@@@2@PAU342@@Z ; std::_Tree<std::_Tmap_traits<HWND__ *,WndMoveData,std::less<HWND__ *>,std::allocator<std::pair<HWND__ * const,WndMoveData> >,0> >::_Parent
  0021f	83 c4 04	 add	 esp, 4
  00222	8b 08		 mov	 ecx, DWORD PTR [eax]
  00224	51		 push	 ecx
  00225	e8 00 00 00 00	 call	 ?_Color@?$_Tree@V?$_Tmap_traits@PAUHWND__@@UWndMoveData@@U?$less@PAUHWND__@@@std@@V?$allocator@U?$pair@QAUHWND__@@UWndMoveData@@@std@@@4@$0A@@std@@@std@@KAAADPAU_Node@?$_Tree_nod@V?$_Tmap_traits@PAUHWND__@@UWndMoveData@@U?$less@PAUHWND__@@@std@@V?$allocator@U?$pair@QAUHWND__@@UWndMoveData@@@std@@@4@$0A@@std@@@2@@Z ; std::_Tree<std::_Tmap_traits<HWND__ *,WndMoveData,std::less<HWND__ *>,std::allocator<std::pair<HWND__ * const,WndMoveData> >,0> >::_Color
  0022a	83 c4 04	 add	 esp, 4
  0022d	c6 00 00	 mov	 BYTE PTR [eax], 0

; 945  : 					_Pnode = _Parent(_Parent(_Pnode));

  00230	8b 55 e8	 mov	 edx, DWORD PTR __Pnode$188822[ebp]
  00233	52		 push	 edx
  00234	e8 00 00 00 00	 call	 ?_Parent@?$_Tree@V?$_Tmap_traits@PAUHWND__@@UWndMoveData@@U?$less@PAUHWND__@@@std@@V?$allocator@U?$pair@QAUHWND__@@UWndMoveData@@@std@@@4@$0A@@std@@@std@@KAAAPAU_Node@?$_Tree_nod@V?$_Tmap_traits@PAUHWND__@@UWndMoveData@@U?$less@PAUHWND__@@@std@@V?$allocator@U?$pair@QAUHWND__@@UWndMoveData@@@std@@@4@$0A@@std@@@2@PAU342@@Z ; std::_Tree<std::_Tmap_traits<HWND__ *,WndMoveData,std::less<HWND__ *>,std::allocator<std::pair<HWND__ * const,WndMoveData> >,0> >::_Parent
  00239	83 c4 04	 add	 esp, 4
  0023c	8b 00		 mov	 eax, DWORD PTR [eax]
  0023e	50		 push	 eax
  0023f	e8 00 00 00 00	 call	 ?_Parent@?$_Tree@V?$_Tmap_traits@PAUHWND__@@UWndMoveData@@U?$less@PAUHWND__@@@std@@V?$allocator@U?$pair@QAUHWND__@@UWndMoveData@@@std@@@4@$0A@@std@@@std@@KAAAPAU_Node@?$_Tree_nod@V?$_Tmap_traits@PAUHWND__@@UWndMoveData@@U?$less@PAUHWND__@@@std@@V?$allocator@U?$pair@QAUHWND__@@UWndMoveData@@@std@@@4@$0A@@std@@@2@PAU342@@Z ; std::_Tree<std::_Tmap_traits<HWND__ *,WndMoveData,std::less<HWND__ *>,std::allocator<std::pair<HWND__ * const,WndMoveData> >,0> >::_Parent
  00244	83 c4 04	 add	 esp, 4
  00247	8b 08		 mov	 ecx, DWORD PTR [eax]
  00249	89 4d e8	 mov	 DWORD PTR __Pnode$188822[ebp], ecx

; 946  : 					}
; 947  : 				else

  0024c	e9 9c 00 00 00	 jmp	 $L188828
$L188827:

; 948  : 					{	// parent has red and black children
; 949  : 					if (_Pnode == _Right(_Parent(_Pnode)))

  00251	8b 55 e8	 mov	 edx, DWORD PTR __Pnode$188822[ebp]
  00254	52		 push	 edx
  00255	e8 00 00 00 00	 call	 ?_Parent@?$_Tree@V?$_Tmap_traits@PAUHWND__@@UWndMoveData@@U?$less@PAUHWND__@@@std@@V?$allocator@U?$pair@QAUHWND__@@UWndMoveData@@@std@@@4@$0A@@std@@@std@@KAAAPAU_Node@?$_Tree_nod@V?$_Tmap_traits@PAUHWND__@@UWndMoveData@@U?$less@PAUHWND__@@@std@@V?$allocator@U?$pair@QAUHWND__@@UWndMoveData@@@std@@@4@$0A@@std@@@2@PAU342@@Z ; std::_Tree<std::_Tmap_traits<HWND__ *,WndMoveData,std::less<HWND__ *>,std::allocator<std::pair<HWND__ * const,WndMoveData> >,0> >::_Parent
  0025a	83 c4 04	 add	 esp, 4
  0025d	8b 00		 mov	 eax, DWORD PTR [eax]
  0025f	50		 push	 eax
  00260	e8 00 00 00 00	 call	 ?_Right@?$_Tree@V?$_Tmap_traits@PAUHWND__@@UWndMoveData@@U?$less@PAUHWND__@@@std@@V?$allocator@U?$pair@QAUHWND__@@UWndMoveData@@@std@@@4@$0A@@std@@@std@@KAAAPAU_Node@?$_Tree_nod@V?$_Tmap_traits@PAUHWND__@@UWndMoveData@@U?$less@PAUHWND__@@@std@@V?$allocator@U?$pair@QAUHWND__@@UWndMoveData@@@std@@@4@$0A@@std@@@2@PAU342@@Z ; std::_Tree<std::_Tmap_traits<HWND__ *,WndMoveData,std::less<HWND__ *>,std::allocator<std::pair<HWND__ * const,WndMoveData> >,0> >::_Right
  00265	83 c4 04	 add	 esp, 4
  00268	8b 4d e8	 mov	 ecx, DWORD PTR __Pnode$188822[ebp]
  0026b	3b 08		 cmp	 ecx, DWORD PTR [eax]
  0026d	75 1d		 jne	 SHORT $L188829

; 950  : 						{	// rotate right child to left
; 951  : 						_Pnode = _Parent(_Pnode);

  0026f	8b 55 e8	 mov	 edx, DWORD PTR __Pnode$188822[ebp]
  00272	52		 push	 edx
  00273	e8 00 00 00 00	 call	 ?_Parent@?$_Tree@V?$_Tmap_traits@PAUHWND__@@UWndMoveData@@U?$less@PAUHWND__@@@std@@V?$allocator@U?$pair@QAUHWND__@@UWndMoveData@@@std@@@4@$0A@@std@@@std@@KAAAPAU_Node@?$_Tree_nod@V?$_Tmap_traits@PAUHWND__@@UWndMoveData@@U?$less@PAUHWND__@@@std@@V?$allocator@U?$pair@QAUHWND__@@UWndMoveData@@@std@@@4@$0A@@std@@@2@PAU342@@Z ; std::_Tree<std::_Tmap_traits<HWND__ *,WndMoveData,std::less<HWND__ *>,std::allocator<std::pair<HWND__ * const,WndMoveData> >,0> >::_Parent
  00278	83 c4 04	 add	 esp, 4
  0027b	8b 00		 mov	 eax, DWORD PTR [eax]
  0027d	89 45 e8	 mov	 DWORD PTR __Pnode$188822[ebp], eax

; 952  : 						_Lrotate(_Pnode);

  00280	8b 4d e8	 mov	 ecx, DWORD PTR __Pnode$188822[ebp]
  00283	51		 push	 ecx
  00284	8b 4d f0	 mov	 ecx, DWORD PTR _this$[ebp]
  00287	e8 00 00 00 00	 call	 ?_Lrotate@?$_Tree@V?$_Tmap_traits@PAUHWND__@@UWndMoveData@@U?$less@PAUHWND__@@@std@@V?$allocator@U?$pair@QAUHWND__@@UWndMoveData@@@std@@@4@$0A@@std@@@std@@IAEXPAU_Node@?$_Tree_nod@V?$_Tmap_traits@PAUHWND__@@UWndMoveData@@U?$less@PAUHWND__@@@std@@V?$allocator@U?$pair@QAUHWND__@@UWndMoveData@@@std@@@4@$0A@@std@@@2@@Z ; std::_Tree<std::_Tmap_traits<HWND__ *,WndMoveData,std::less<HWND__ *>,std::allocator<std::pair<HWND__ * const,WndMoveData> >,0> >::_Lrotate
$L188829:

; 953  : 						}
; 954  : 					_Color(_Parent(_Pnode)) = _Black;	// propagate red up

  0028c	8b 55 e8	 mov	 edx, DWORD PTR __Pnode$188822[ebp]
  0028f	52		 push	 edx
  00290	e8 00 00 00 00	 call	 ?_Parent@?$_Tree@V?$_Tmap_traits@PAUHWND__@@UWndMoveData@@U?$less@PAUHWND__@@@std@@V?$allocator@U?$pair@QAUHWND__@@UWndMoveData@@@std@@@4@$0A@@std@@@std@@KAAAPAU_Node@?$_Tree_nod@V?$_Tmap_traits@PAUHWND__@@UWndMoveData@@U?$less@PAUHWND__@@@std@@V?$allocator@U?$pair@QAUHWND__@@UWndMoveData@@@std@@@4@$0A@@std@@@2@PAU342@@Z ; std::_Tree<std::_Tmap_traits<HWND__ *,WndMoveData,std::less<HWND__ *>,std::allocator<std::pair<HWND__ * const,WndMoveData> >,0> >::_Parent
  00295	83 c4 04	 add	 esp, 4
  00298	8b 00		 mov	 eax, DWORD PTR [eax]
  0029a	50		 push	 eax
  0029b	e8 00 00 00 00	 call	 ?_Color@?$_Tree@V?$_Tmap_traits@PAUHWND__@@UWndMoveData@@U?$less@PAUHWND__@@@std@@V?$allocator@U?$pair@QAUHWND__@@UWndMoveData@@@std@@@4@$0A@@std@@@std@@KAAADPAU_Node@?$_Tree_nod@V?$_Tmap_traits@PAUHWND__@@UWndMoveData@@U?$less@PAUHWND__@@@std@@V?$allocator@U?$pair@QAUHWND__@@UWndMoveData@@@std@@@4@$0A@@std@@@2@@Z ; std::_Tree<std::_Tmap_traits<HWND__ *,WndMoveData,std::less<HWND__ *>,std::allocator<std::pair<HWND__ * const,WndMoveData> >,0> >::_Color
  002a0	83 c4 04	 add	 esp, 4
  002a3	c6 00 01	 mov	 BYTE PTR [eax], 1

; 955  : 					_Color(_Parent(_Parent(_Pnode))) = _Red;

  002a6	8b 4d e8	 mov	 ecx, DWORD PTR __Pnode$188822[ebp]
  002a9	51		 push	 ecx
  002aa	e8 00 00 00 00	 call	 ?_Parent@?$_Tree@V?$_Tmap_traits@PAUHWND__@@UWndMoveData@@U?$less@PAUHWND__@@@std@@V?$allocator@U?$pair@QAUHWND__@@UWndMoveData@@@std@@@4@$0A@@std@@@std@@KAAAPAU_Node@?$_Tree_nod@V?$_Tmap_traits@PAUHWND__@@UWndMoveData@@U?$less@PAUHWND__@@@std@@V?$allocator@U?$pair@QAUHWND__@@UWndMoveData@@@std@@@4@$0A@@std@@@2@PAU342@@Z ; std::_Tree<std::_Tmap_traits<HWND__ *,WndMoveData,std::less<HWND__ *>,std::allocator<std::pair<HWND__ * const,WndMoveData> >,0> >::_Parent
  002af	83 c4 04	 add	 esp, 4
  002b2	8b 10		 mov	 edx, DWORD PTR [eax]
  002b4	52		 push	 edx
  002b5	e8 00 00 00 00	 call	 ?_Parent@?$_Tree@V?$_Tmap_traits@PAUHWND__@@UWndMoveData@@U?$less@PAUHWND__@@@std@@V?$allocator@U?$pair@QAUHWND__@@UWndMoveData@@@std@@@4@$0A@@std@@@std@@KAAAPAU_Node@?$_Tree_nod@V?$_Tmap_traits@PAUHWND__@@UWndMoveData@@U?$less@PAUHWND__@@@std@@V?$allocator@U?$pair@QAUHWND__@@UWndMoveData@@@std@@@4@$0A@@std@@@2@PAU342@@Z ; std::_Tree<std::_Tmap_traits<HWND__ *,WndMoveData,std::less<HWND__ *>,std::allocator<std::pair<HWND__ * const,WndMoveData> >,0> >::_Parent
  002ba	83 c4 04	 add	 esp, 4
  002bd	8b 00		 mov	 eax, DWORD PTR [eax]
  002bf	50		 push	 eax
  002c0	e8 00 00 00 00	 call	 ?_Color@?$_Tree@V?$_Tmap_traits@PAUHWND__@@UWndMoveData@@U?$less@PAUHWND__@@@std@@V?$allocator@U?$pair@QAUHWND__@@UWndMoveData@@@std@@@4@$0A@@std@@@std@@KAAADPAU_Node@?$_Tree_nod@V?$_Tmap_traits@PAUHWND__@@UWndMoveData@@U?$less@PAUHWND__@@@std@@V?$allocator@U?$pair@QAUHWND__@@UWndMoveData@@@std@@@4@$0A@@std@@@2@@Z ; std::_Tree<std::_Tmap_traits<HWND__ *,WndMoveData,std::less<HWND__ *>,std::allocator<std::pair<HWND__ * const,WndMoveData> >,0> >::_Color
  002c5	83 c4 04	 add	 esp, 4
  002c8	c6 00 00	 mov	 BYTE PTR [eax], 0

; 956  : 					_Rrotate(_Parent(_Parent(_Pnode)));

  002cb	8b 4d e8	 mov	 ecx, DWORD PTR __Pnode$188822[ebp]
  002ce	51		 push	 ecx
  002cf	e8 00 00 00 00	 call	 ?_Parent@?$_Tree@V?$_Tmap_traits@PAUHWND__@@UWndMoveData@@U?$less@PAUHWND__@@@std@@V?$allocator@U?$pair@QAUHWND__@@UWndMoveData@@@std@@@4@$0A@@std@@@std@@KAAAPAU_Node@?$_Tree_nod@V?$_Tmap_traits@PAUHWND__@@UWndMoveData@@U?$less@PAUHWND__@@@std@@V?$allocator@U?$pair@QAUHWND__@@UWndMoveData@@@std@@@4@$0A@@std@@@2@PAU342@@Z ; std::_Tree<std::_Tmap_traits<HWND__ *,WndMoveData,std::less<HWND__ *>,std::allocator<std::pair<HWND__ * const,WndMoveData> >,0> >::_Parent
  002d4	83 c4 04	 add	 esp, 4
  002d7	8b 10		 mov	 edx, DWORD PTR [eax]
  002d9	52		 push	 edx
  002da	e8 00 00 00 00	 call	 ?_Parent@?$_Tree@V?$_Tmap_traits@PAUHWND__@@UWndMoveData@@U?$less@PAUHWND__@@@std@@V?$allocator@U?$pair@QAUHWND__@@UWndMoveData@@@std@@@4@$0A@@std@@@std@@KAAAPAU_Node@?$_Tree_nod@V?$_Tmap_traits@PAUHWND__@@UWndMoveData@@U?$less@PAUHWND__@@@std@@V?$allocator@U?$pair@QAUHWND__@@UWndMoveData@@@std@@@4@$0A@@std@@@2@PAU342@@Z ; std::_Tree<std::_Tmap_traits<HWND__ *,WndMoveData,std::less<HWND__ *>,std::allocator<std::pair<HWND__ * const,WndMoveData> >,0> >::_Parent
  002df	83 c4 04	 add	 esp, 4
  002e2	8b 00		 mov	 eax, DWORD PTR [eax]
  002e4	50		 push	 eax
  002e5	8b 4d f0	 mov	 ecx, DWORD PTR _this$[ebp]
  002e8	e8 00 00 00 00	 call	 ?_Rrotate@?$_Tree@V?$_Tmap_traits@PAUHWND__@@UWndMoveData@@U?$less@PAUHWND__@@@std@@V?$allocator@U?$pair@QAUHWND__@@UWndMoveData@@@std@@@4@$0A@@std@@@std@@IAEXPAU_Node@?$_Tree_nod@V?$_Tmap_traits@PAUHWND__@@UWndMoveData@@U?$less@PAUHWND__@@@std@@V?$allocator@U?$pair@QAUHWND__@@UWndMoveData@@@std@@@4@$0A@@std@@@2@@Z ; std::_Tree<std::_Tmap_traits<HWND__ *,WndMoveData,std::less<HWND__ *>,std::allocator<std::pair<HWND__ * const,WndMoveData> >,0> >::_Rrotate
$L188828:

; 957  : 					}
; 958  : 				}
; 959  : 			else

  002ed	e9 45 01 00 00	 jmp	 $L188830
$L188826:

; 960  : 				{	// fixup red-red in right subtree
; 961  : 				_Wherenode = _Left(_Parent(_Parent(_Pnode)));

  002f2	8b 4d e8	 mov	 ecx, DWORD PTR __Pnode$188822[ebp]
  002f5	51		 push	 ecx
  002f6	e8 00 00 00 00	 call	 ?_Parent@?$_Tree@V?$_Tmap_traits@PAUHWND__@@UWndMoveData@@U?$less@PAUHWND__@@@std@@V?$allocator@U?$pair@QAUHWND__@@UWndMoveData@@@std@@@4@$0A@@std@@@std@@KAAAPAU_Node@?$_Tree_nod@V?$_Tmap_traits@PAUHWND__@@UWndMoveData@@U?$less@PAUHWND__@@@std@@V?$allocator@U?$pair@QAUHWND__@@UWndMoveData@@@std@@@4@$0A@@std@@@2@PAU342@@Z ; std::_Tree<std::_Tmap_traits<HWND__ *,WndMoveData,std::less<HWND__ *>,std::allocator<std::pair<HWND__ * const,WndMoveData> >,0> >::_Parent
  002fb	83 c4 04	 add	 esp, 4
  002fe	8b 10		 mov	 edx, DWORD PTR [eax]
  00300	52		 push	 edx
  00301	e8 00 00 00 00	 call	 ?_Parent@?$_Tree@V?$_Tmap_traits@PAUHWND__@@UWndMoveData@@U?$less@PAUHWND__@@@std@@V?$allocator@U?$pair@QAUHWND__@@UWndMoveData@@@std@@@4@$0A@@std@@@std@@KAAAPAU_Node@?$_Tree_nod@V?$_Tmap_traits@PAUHWND__@@UWndMoveData@@U?$less@PAUHWND__@@@std@@V?$allocator@U?$pair@QAUHWND__@@UWndMoveData@@@std@@@4@$0A@@std@@@2@PAU342@@Z ; std::_Tree<std::_Tmap_traits<HWND__ *,WndMoveData,std::less<HWND__ *>,std::allocator<std::pair<HWND__ * const,WndMoveData> >,0> >::_Parent
  00306	83 c4 04	 add	 esp, 4
  00309	8b 00		 mov	 eax, DWORD PTR [eax]
  0030b	50		 push	 eax
  0030c	e8 00 00 00 00	 call	 ?_Left@?$_Tree@V?$_Tmap_traits@PAUHWND__@@UWndMoveData@@U?$less@PAUHWND__@@@std@@V?$allocator@U?$pair@QAUHWND__@@UWndMoveData@@@std@@@4@$0A@@std@@@std@@KAAAPAU_Node@?$_Tree_nod@V?$_Tmap_traits@PAUHWND__@@UWndMoveData@@U?$less@PAUHWND__@@@std@@V?$allocator@U?$pair@QAUHWND__@@UWndMoveData@@@std@@@4@$0A@@std@@@2@PAU342@@Z ; std::_Tree<std::_Tmap_traits<HWND__ *,WndMoveData,std::less<HWND__ *>,std::allocator<std::pair<HWND__ * const,WndMoveData> >,0> >::_Left
  00311	83 c4 04	 add	 esp, 4
  00314	8b 08		 mov	 ecx, DWORD PTR [eax]
  00316	89 4d 10	 mov	 DWORD PTR __Wherenode$[ebp], ecx

; 962  : 				if (_Color(_Wherenode) == _Red)

  00319	8b 55 10	 mov	 edx, DWORD PTR __Wherenode$[ebp]
  0031c	52		 push	 edx
  0031d	e8 00 00 00 00	 call	 ?_Color@?$_Tree@V?$_Tmap_traits@PAUHWND__@@UWndMoveData@@U?$less@PAUHWND__@@@std@@V?$allocator@U?$pair@QAUHWND__@@UWndMoveData@@@std@@@4@$0A@@std@@@std@@KAAADPAU_Node@?$_Tree_nod@V?$_Tmap_traits@PAUHWND__@@UWndMoveData@@U?$less@PAUHWND__@@@std@@V?$allocator@U?$pair@QAUHWND__@@UWndMoveData@@@std@@@4@$0A@@std@@@2@@Z ; std::_Tree<std::_Tmap_traits<HWND__ *,WndMoveData,std::less<HWND__ *>,std::allocator<std::pair<HWND__ * const,WndMoveData> >,0> >::_Color
  00322	83 c4 04	 add	 esp, 4
  00325	0f be 00	 movsx	 eax, BYTE PTR [eax]
  00328	85 c0		 test	 eax, eax
  0032a	75 6f		 jne	 SHORT $L188831

; 963  : 					{	// parent has two red children, blacken both
; 964  : 					_Color(_Parent(_Pnode)) = _Black;

  0032c	8b 4d e8	 mov	 ecx, DWORD PTR __Pnode$188822[ebp]
  0032f	51		 push	 ecx
  00330	e8 00 00 00 00	 call	 ?_Parent@?$_Tree@V?$_Tmap_traits@PAUHWND__@@UWndMoveData@@U?$less@PAUHWND__@@@std@@V?$allocator@U?$pair@QAUHWND__@@UWndMoveData@@@std@@@4@$0A@@std@@@std@@KAAAPAU_Node@?$_Tree_nod@V?$_Tmap_traits@PAUHWND__@@UWndMoveData@@U?$less@PAUHWND__@@@std@@V?$allocator@U?$pair@QAUHWND__@@UWndMoveData@@@std@@@4@$0A@@std@@@2@PAU342@@Z ; std::_Tree<std::_Tmap_traits<HWND__ *,WndMoveData,std::less<HWND__ *>,std::allocator<std::pair<HWND__ * const,WndMoveData> >,0> >::_Parent
  00335	83 c4 04	 add	 esp, 4
  00338	8b 10		 mov	 edx, DWORD PTR [eax]
  0033a	52		 push	 edx
  0033b	e8 00 00 00 00	 call	 ?_Color@?$_Tree@V?$_Tmap_traits@PAUHWND__@@UWndMoveData@@U?$less@PAUHWND__@@@std@@V?$allocator@U?$pair@QAUHWND__@@UWndMoveData@@@std@@@4@$0A@@std@@@std@@KAAADPAU_Node@?$_Tree_nod@V?$_Tmap_traits@PAUHWND__@@UWndMoveData@@U?$less@PAUHWND__@@@std@@V?$allocator@U?$pair@QAUHWND__@@UWndMoveData@@@std@@@4@$0A@@std@@@2@@Z ; std::_Tree<std::_Tmap_traits<HWND__ *,WndMoveData,std::less<HWND__ *>,std::allocator<std::pair<HWND__ * const,WndMoveData> >,0> >::_Color
  00340	83 c4 04	 add	 esp, 4
  00343	c6 00 01	 mov	 BYTE PTR [eax], 1

; 965  : 					_Color(_Wherenode) = _Black;

  00346	8b 45 10	 mov	 eax, DWORD PTR __Wherenode$[ebp]
  00349	50		 push	 eax
  0034a	e8 00 00 00 00	 call	 ?_Color@?$_Tree@V?$_Tmap_traits@PAUHWND__@@UWndMoveData@@U?$less@PAUHWND__@@@std@@V?$allocator@U?$pair@QAUHWND__@@UWndMoveData@@@std@@@4@$0A@@std@@@std@@KAAADPAU_Node@?$_Tree_nod@V?$_Tmap_traits@PAUHWND__@@UWndMoveData@@U?$less@PAUHWND__@@@std@@V?$allocator@U?$pair@QAUHWND__@@UWndMoveData@@@std@@@4@$0A@@std@@@2@@Z ; std::_Tree<std::_Tmap_traits<HWND__ *,WndMoveData,std::less<HWND__ *>,std::allocator<std::pair<HWND__ * const,WndMoveData> >,0> >::_Color
  0034f	83 c4 04	 add	 esp, 4
  00352	c6 00 01	 mov	 BYTE PTR [eax], 1

; 966  : 					_Color(_Parent(_Parent(_Pnode))) = _Red;

  00355	8b 4d e8	 mov	 ecx, DWORD PTR __Pnode$188822[ebp]
  00358	51		 push	 ecx
  00359	e8 00 00 00 00	 call	 ?_Parent@?$_Tree@V?$_Tmap_traits@PAUHWND__@@UWndMoveData@@U?$less@PAUHWND__@@@std@@V?$allocator@U?$pair@QAUHWND__@@UWndMoveData@@@std@@@4@$0A@@std@@@std@@KAAAPAU_Node@?$_Tree_nod@V?$_Tmap_traits@PAUHWND__@@UWndMoveData@@U?$less@PAUHWND__@@@std@@V?$allocator@U?$pair@QAUHWND__@@UWndMoveData@@@std@@@4@$0A@@std@@@2@PAU342@@Z ; std::_Tree<std::_Tmap_traits<HWND__ *,WndMoveData,std::less<HWND__ *>,std::allocator<std::pair<HWND__ * const,WndMoveData> >,0> >::_Parent
  0035e	83 c4 04	 add	 esp, 4
  00361	8b 10		 mov	 edx, DWORD PTR [eax]
  00363	52		 push	 edx
  00364	e8 00 00 00 00	 call	 ?_Parent@?$_Tree@V?$_Tmap_traits@PAUHWND__@@UWndMoveData@@U?$less@PAUHWND__@@@std@@V?$allocator@U?$pair@QAUHWND__@@UWndMoveData@@@std@@@4@$0A@@std@@@std@@KAAAPAU_Node@?$_Tree_nod@V?$_Tmap_traits@PAUHWND__@@UWndMoveData@@U?$less@PAUHWND__@@@std@@V?$allocator@U?$pair@QAUHWND__@@UWndMoveData@@@std@@@4@$0A@@std@@@2@PAU342@@Z ; std::_Tree<std::_Tmap_traits<HWND__ *,WndMoveData,std::less<HWND__ *>,std::allocator<std::pair<HWND__ * const,WndMoveData> >,0> >::_Parent
  00369	83 c4 04	 add	 esp, 4
  0036c	8b 00		 mov	 eax, DWORD PTR [eax]
  0036e	50		 push	 eax
  0036f	e8 00 00 00 00	 call	 ?_Color@?$_Tree@V?$_Tmap_traits@PAUHWND__@@UWndMoveData@@U?$less@PAUHWND__@@@std@@V?$allocator@U?$pair@QAUHWND__@@UWndMoveData@@@std@@@4@$0A@@std@@@std@@KAAADPAU_Node@?$_Tree_nod@V?$_Tmap_traits@PAUHWND__@@UWndMoveData@@U?$less@PAUHWND__@@@std@@V?$allocator@U?$pair@QAUHWND__@@UWndMoveData@@@std@@@4@$0A@@std@@@2@@Z ; std::_Tree<std::_Tmap_traits<HWND__ *,WndMoveData,std::less<HWND__ *>,std::allocator<std::pair<HWND__ * const,WndMoveData> >,0> >::_Color
  00374	83 c4 04	 add	 esp, 4
  00377	c6 00 00	 mov	 BYTE PTR [eax], 0

; 967  : 					_Pnode = _Parent(_Parent(_Pnode));

  0037a	8b 4d e8	 mov	 ecx, DWORD PTR __Pnode$188822[ebp]
  0037d	51		 push	 ecx
  0037e	e8 00 00 00 00	 call	 ?_Parent@?$_Tree@V?$_Tmap_traits@PAUHWND__@@UWndMoveData@@U?$less@PAUHWND__@@@std@@V?$allocator@U?$pair@QAUHWND__@@UWndMoveData@@@std@@@4@$0A@@std@@@std@@KAAAPAU_Node@?$_Tree_nod@V?$_Tmap_traits@PAUHWND__@@UWndMoveData@@U?$less@PAUHWND__@@@std@@V?$allocator@U?$pair@QAUHWND__@@UWndMoveData@@@std@@@4@$0A@@std@@@2@PAU342@@Z ; std::_Tree<std::_Tmap_traits<HWND__ *,WndMoveData,std::less<HWND__ *>,std::allocator<std::pair<HWND__ * const,WndMoveData> >,0> >::_Parent
  00383	83 c4 04	 add	 esp, 4
  00386	8b 10		 mov	 edx, DWORD PTR [eax]
  00388	52		 push	 edx
  00389	e8 00 00 00 00	 call	 ?_Parent@?$_Tree@V?$_Tmap_traits@PAUHWND__@@UWndMoveData@@U?$less@PAUHWND__@@@std@@V?$allocator@U?$pair@QAUHWND__@@UWndMoveData@@@std@@@4@$0A@@std@@@std@@KAAAPAU_Node@?$_Tree_nod@V?$_Tmap_traits@PAUHWND__@@UWndMoveData@@U?$less@PAUHWND__@@@std@@V?$allocator@U?$pair@QAUHWND__@@UWndMoveData@@@std@@@4@$0A@@std@@@2@PAU342@@Z ; std::_Tree<std::_Tmap_traits<HWND__ *,WndMoveData,std::less<HWND__ *>,std::allocator<std::pair<HWND__ * const,WndMoveData> >,0> >::_Parent
  0038e	83 c4 04	 add	 esp, 4
  00391	8b 00		 mov	 eax, DWORD PTR [eax]
  00393	89 45 e8	 mov	 DWORD PTR __Pnode$188822[ebp], eax

; 968  : 					}
; 969  : 				else

  00396	e9 9c 00 00 00	 jmp	 $L188830
$L188831:

; 970  : 					{	// parent has red and black children
; 971  : 					if (_Pnode == _Left(_Parent(_Pnode)))

  0039b	8b 4d e8	 mov	 ecx, DWORD PTR __Pnode$188822[ebp]
  0039e	51		 push	 ecx
  0039f	e8 00 00 00 00	 call	 ?_Parent@?$_Tree@V?$_Tmap_traits@PAUHWND__@@UWndMoveData@@U?$less@PAUHWND__@@@std@@V?$allocator@U?$pair@QAUHWND__@@UWndMoveData@@@std@@@4@$0A@@std@@@std@@KAAAPAU_Node@?$_Tree_nod@V?$_Tmap_traits@PAUHWND__@@UWndMoveData@@U?$less@PAUHWND__@@@std@@V?$allocator@U?$pair@QAUHWND__@@UWndMoveData@@@std@@@4@$0A@@std@@@2@PAU342@@Z ; std::_Tree<std::_Tmap_traits<HWND__ *,WndMoveData,std::less<HWND__ *>,std::allocator<std::pair<HWND__ * const,WndMoveData> >,0> >::_Parent
  003a4	83 c4 04	 add	 esp, 4
  003a7	8b 10		 mov	 edx, DWORD PTR [eax]
  003a9	52		 push	 edx
  003aa	e8 00 00 00 00	 call	 ?_Left@?$_Tree@V?$_Tmap_traits@PAUHWND__@@UWndMoveData@@U?$less@PAUHWND__@@@std@@V?$allocator@U?$pair@QAUHWND__@@UWndMoveData@@@std@@@4@$0A@@std@@@std@@KAAAPAU_Node@?$_Tree_nod@V?$_Tmap_traits@PAUHWND__@@UWndMoveData@@U?$less@PAUHWND__@@@std@@V?$allocator@U?$pair@QAUHWND__@@UWndMoveData@@@std@@@4@$0A@@std@@@2@PAU342@@Z ; std::_Tree<std::_Tmap_traits<HWND__ *,WndMoveData,std::less<HWND__ *>,std::allocator<std::pair<HWND__ * const,WndMoveData> >,0> >::_Left
  003af	83 c4 04	 add	 esp, 4
  003b2	8b 4d e8	 mov	 ecx, DWORD PTR __Pnode$188822[ebp]
  003b5	3b 08		 cmp	 ecx, DWORD PTR [eax]
  003b7	75 1d		 jne	 SHORT $L188833

; 972  : 						{	// rotate left child to right
; 973  : 						_Pnode = _Parent(_Pnode);

  003b9	8b 55 e8	 mov	 edx, DWORD PTR __Pnode$188822[ebp]
  003bc	52		 push	 edx
  003bd	e8 00 00 00 00	 call	 ?_Parent@?$_Tree@V?$_Tmap_traits@PAUHWND__@@UWndMoveData@@U?$less@PAUHWND__@@@std@@V?$allocator@U?$pair@QAUHWND__@@UWndMoveData@@@std@@@4@$0A@@std@@@std@@KAAAPAU_Node@?$_Tree_nod@V?$_Tmap_traits@PAUHWND__@@UWndMoveData@@U?$less@PAUHWND__@@@std@@V?$allocator@U?$pair@QAUHWND__@@UWndMoveData@@@std@@@4@$0A@@std@@@2@PAU342@@Z ; std::_Tree<std::_Tmap_traits<HWND__ *,WndMoveData,std::less<HWND__ *>,std::allocator<std::pair<HWND__ * const,WndMoveData> >,0> >::_Parent
  003c2	83 c4 04	 add	 esp, 4
  003c5	8b 00		 mov	 eax, DWORD PTR [eax]
  003c7	89 45 e8	 mov	 DWORD PTR __Pnode$188822[ebp], eax

; 974  : 						_Rrotate(_Pnode);

  003ca	8b 4d e8	 mov	 ecx, DWORD PTR __Pnode$188822[ebp]
  003cd	51		 push	 ecx
  003ce	8b 4d f0	 mov	 ecx, DWORD PTR _this$[ebp]
  003d1	e8 00 00 00 00	 call	 ?_Rrotate@?$_Tree@V?$_Tmap_traits@PAUHWND__@@UWndMoveData@@U?$less@PAUHWND__@@@std@@V?$allocator@U?$pair@QAUHWND__@@UWndMoveData@@@std@@@4@$0A@@std@@@std@@IAEXPAU_Node@?$_Tree_nod@V?$_Tmap_traits@PAUHWND__@@UWndMoveData@@U?$less@PAUHWND__@@@std@@V?$allocator@U?$pair@QAUHWND__@@UWndMoveData@@@std@@@4@$0A@@std@@@2@@Z ; std::_Tree<std::_Tmap_traits<HWND__ *,WndMoveData,std::less<HWND__ *>,std::allocator<std::pair<HWND__ * const,WndMoveData> >,0> >::_Rrotate
$L188833:

; 975  : 						}
; 976  : 					_Color(_Parent(_Pnode)) = _Black;	// propagate red up

  003d6	8b 55 e8	 mov	 edx, DWORD PTR __Pnode$188822[ebp]
  003d9	52		 push	 edx
  003da	e8 00 00 00 00	 call	 ?_Parent@?$_Tree@V?$_Tmap_traits@PAUHWND__@@UWndMoveData@@U?$less@PAUHWND__@@@std@@V?$allocator@U?$pair@QAUHWND__@@UWndMoveData@@@std@@@4@$0A@@std@@@std@@KAAAPAU_Node@?$_Tree_nod@V?$_Tmap_traits@PAUHWND__@@UWndMoveData@@U?$less@PAUHWND__@@@std@@V?$allocator@U?$pair@QAUHWND__@@UWndMoveData@@@std@@@4@$0A@@std@@@2@PAU342@@Z ; std::_Tree<std::_Tmap_traits<HWND__ *,WndMoveData,std::less<HWND__ *>,std::allocator<std::pair<HWND__ * const,WndMoveData> >,0> >::_Parent
  003df	83 c4 04	 add	 esp, 4
  003e2	8b 00		 mov	 eax, DWORD PTR [eax]
  003e4	50		 push	 eax
  003e5	e8 00 00 00 00	 call	 ?_Color@?$_Tree@V?$_Tmap_traits@PAUHWND__@@UWndMoveData@@U?$less@PAUHWND__@@@std@@V?$allocator@U?$pair@QAUHWND__@@UWndMoveData@@@std@@@4@$0A@@std@@@std@@KAAADPAU_Node@?$_Tree_nod@V?$_Tmap_traits@PAUHWND__@@UWndMoveData@@U?$less@PAUHWND__@@@std@@V?$allocator@U?$pair@QAUHWND__@@UWndMoveData@@@std@@@4@$0A@@std@@@2@@Z ; std::_Tree<std::_Tmap_traits<HWND__ *,WndMoveData,std::less<HWND__ *>,std::allocator<std::pair<HWND__ * const,WndMoveData> >,0> >::_Color
  003ea	83 c4 04	 add	 esp, 4
  003ed	c6 00 01	 mov	 BYTE PTR [eax], 1

; 977  : 					_Color(_Parent(_Parent(_Pnode))) = _Red;

  003f0	8b 4d e8	 mov	 ecx, DWORD PTR __Pnode$188822[ebp]
  003f3	51		 push	 ecx
  003f4	e8 00 00 00 00	 call	 ?_Parent@?$_Tree@V?$_Tmap_traits@PAUHWND__@@UWndMoveData@@U?$less@PAUHWND__@@@std@@V?$allocator@U?$pair@QAUHWND__@@UWndMoveData@@@std@@@4@$0A@@std@@@std@@KAAAPAU_Node@?$_Tree_nod@V?$_Tmap_traits@PAUHWND__@@UWndMoveData@@U?$less@PAUHWND__@@@std@@V?$allocator@U?$pair@QAUHWND__@@UWndMoveData@@@std@@@4@$0A@@std@@@2@PAU342@@Z ; std::_Tree<std::_Tmap_traits<HWND__ *,WndMoveData,std::less<HWND__ *>,std::allocator<std::pair<HWND__ * const,WndMoveData> >,0> >::_Parent
  003f9	83 c4 04	 add	 esp, 4
  003fc	8b 10		 mov	 edx, DWORD PTR [eax]
  003fe	52		 push	 edx
  003ff	e8 00 00 00 00	 call	 ?_Parent@?$_Tree@V?$_Tmap_traits@PAUHWND__@@UWndMoveData@@U?$less@PAUHWND__@@@std@@V?$allocator@U?$pair@QAUHWND__@@UWndMoveData@@@std@@@4@$0A@@std@@@std@@KAAAPAU_Node@?$_Tree_nod@V?$_Tmap_traits@PAUHWND__@@UWndMoveData@@U?$less@PAUHWND__@@@std@@V?$allocator@U?$pair@QAUHWND__@@UWndMoveData@@@std@@@4@$0A@@std@@@2@PAU342@@Z ; std::_Tree<std::_Tmap_traits<HWND__ *,WndMoveData,std::less<HWND__ *>,std::allocator<std::pair<HWND__ * const,WndMoveData> >,0> >::_Parent
  00404	83 c4 04	 add	 esp, 4
  00407	8b 00		 mov	 eax, DWORD PTR [eax]
  00409	50		 push	 eax
  0040a	e8 00 00 00 00	 call	 ?_Color@?$_Tree@V?$_Tmap_traits@PAUHWND__@@UWndMoveData@@U?$less@PAUHWND__@@@std@@V?$allocator@U?$pair@QAUHWND__@@UWndMoveData@@@std@@@4@$0A@@std@@@std@@KAAADPAU_Node@?$_Tree_nod@V?$_Tmap_traits@PAUHWND__@@UWndMoveData@@U?$less@PAUHWND__@@@std@@V?$allocator@U?$pair@QAUHWND__@@UWndMoveData@@@std@@@4@$0A@@std@@@2@@Z ; std::_Tree<std::_Tmap_traits<HWND__ *,WndMoveData,std::less<HWND__ *>,std::allocator<std::pair<HWND__ * const,WndMoveData> >,0> >::_Color
  0040f	83 c4 04	 add	 esp, 4
  00412	c6 00 00	 mov	 BYTE PTR [eax], 0

; 978  : 					_Lrotate(_Parent(_Parent(_Pnode)));

  00415	8b 4d e8	 mov	 ecx, DWORD PTR __Pnode$188822[ebp]
  00418	51		 push	 ecx
  00419	e8 00 00 00 00	 call	 ?_Parent@?$_Tree@V?$_Tmap_traits@PAUHWND__@@UWndMoveData@@U?$less@PAUHWND__@@@std@@V?$allocator@U?$pair@QAUHWND__@@UWndMoveData@@@std@@@4@$0A@@std@@@std@@KAAAPAU_Node@?$_Tree_nod@V?$_Tmap_traits@PAUHWND__@@UWndMoveData@@U?$less@PAUHWND__@@@std@@V?$allocator@U?$pair@QAUHWND__@@UWndMoveData@@@std@@@4@$0A@@std@@@2@PAU342@@Z ; std::_Tree<std::_Tmap_traits<HWND__ *,WndMoveData,std::less<HWND__ *>,std::allocator<std::pair<HWND__ * const,WndMoveData> >,0> >::_Parent
  0041e	83 c4 04	 add	 esp, 4
  00421	8b 10		 mov	 edx, DWORD PTR [eax]
  00423	52		 push	 edx
  00424	e8 00 00 00 00	 call	 ?_Parent@?$_Tree@V?$_Tmap_traits@PAUHWND__@@UWndMoveData@@U?$less@PAUHWND__@@@std@@V?$allocator@U?$pair@QAUHWND__@@UWndMoveData@@@std@@@4@$0A@@std@@@std@@KAAAPAU_Node@?$_Tree_nod@V?$_Tmap_traits@PAUHWND__@@UWndMoveData@@U?$less@PAUHWND__@@@std@@V?$allocator@U?$pair@QAUHWND__@@UWndMoveData@@@std@@@4@$0A@@std@@@2@PAU342@@Z ; std::_Tree<std::_Tmap_traits<HWND__ *,WndMoveData,std::less<HWND__ *>,std::allocator<std::pair<HWND__ * const,WndMoveData> >,0> >::_Parent
  00429	83 c4 04	 add	 esp, 4
  0042c	8b 00		 mov	 eax, DWORD PTR [eax]
  0042e	50		 push	 eax
  0042f	8b 4d f0	 mov	 ecx, DWORD PTR _this$[ebp]
  00432	e8 00 00 00 00	 call	 ?_Lrotate@?$_Tree@V?$_Tmap_traits@PAUHWND__@@UWndMoveData@@U?$less@PAUHWND__@@@std@@V?$allocator@U?$pair@QAUHWND__@@UWndMoveData@@@std@@@4@$0A@@std@@@std@@IAEXPAU_Node@?$_Tree_nod@V?$_Tmap_traits@PAUHWND__@@UWndMoveData@@U?$less@PAUHWND__@@@std@@V?$allocator@U?$pair@QAUHWND__@@UWndMoveData@@@std@@@4@$0A@@std@@@2@@Z ; std::_Tree<std::_Tmap_traits<HWND__ *,WndMoveData,std::less<HWND__ *>,std::allocator<std::pair<HWND__ * const,WndMoveData> >,0> >::_Lrotate
$L188830:

; 979  : 					}
; 980  : 				}

  00437	e9 10 fd ff ff	 jmp	 $L188824
$L188825:

; 981  : 
; 982  : 		_Color(_Root()) = _Black;	// root is always black

  0043c	8b 4d f0	 mov	 ecx, DWORD PTR _this$[ebp]
  0043f	e8 00 00 00 00	 call	 ?_Root@?$_Tree@V?$_Tmap_traits@PAUHWND__@@UWndMoveData@@U?$less@PAUHWND__@@@std@@V?$allocator@U?$pair@QAUHWND__@@UWndMoveData@@@std@@@4@$0A@@std@@@std@@IAEAAPAU_Node@?$_Tree_nod@V?$_Tmap_traits@PAUHWND__@@UWndMoveData@@U?$less@PAUHWND__@@@std@@V?$allocator@U?$pair@QAUHWND__@@UWndMoveData@@@std@@@4@$0A@@std@@@2@XZ ; std::_Tree<std::_Tmap_traits<HWND__ *,WndMoveData,std::less<HWND__ *>,std::allocator<std::pair<HWND__ * const,WndMoveData> >,0> >::_Root
  00444	8b 08		 mov	 ecx, DWORD PTR [eax]
  00446	51		 push	 ecx
  00447	e8 00 00 00 00	 call	 ?_Color@?$_Tree@V?$_Tmap_traits@PAUHWND__@@UWndMoveData@@U?$less@PAUHWND__@@@std@@V?$allocator@U?$pair@QAUHWND__@@UWndMoveData@@@std@@@4@$0A@@std@@@std@@KAAADPAU_Node@?$_Tree_nod@V?$_Tmap_traits@PAUHWND__@@UWndMoveData@@U?$less@PAUHWND__@@@std@@V?$allocator@U?$pair@QAUHWND__@@UWndMoveData@@@std@@@4@$0A@@std@@@2@@Z ; std::_Tree<std::_Tmap_traits<HWND__ *,WndMoveData,std::less<HWND__ *>,std::allocator<std::pair<HWND__ * const,WndMoveData> >,0> >::_Color
  0044c	83 c4 04	 add	 esp, 4
  0044f	c6 00 01	 mov	 BYTE PTR [eax], 1

; 983  : 		return (_TREE_ITERATOR(_Newnode));

  00452	8b 55 ec	 mov	 edx, DWORD PTR __Newnode$[ebp]
  00455	52		 push	 edx
  00456	8b 4d 08	 mov	 ecx, DWORD PTR ___$ReturnUdt$[ebp]
  00459	e8 00 00 00 00	 call	 ??0iterator@?$_Tree@V?$_Tmap_traits@PAUHWND__@@UWndMoveData@@U?$less@PAUHWND__@@@std@@V?$allocator@U?$pair@QAUHWND__@@UWndMoveData@@@std@@@4@$0A@@std@@@std@@QAE@PAU_Node@?$_Tree_nod@V?$_Tmap_traits@PAUHWND__@@UWndMoveData@@U?$less@PAUHWND__@@@std@@V?$allocator@U?$pair@QAUHWND__@@UWndMoveData@@@std@@@4@$0A@@std@@@2@@Z ; std::_Tree<std::_Tmap_traits<HWND__ *,WndMoveData,std::less<HWND__ *>,std::allocator<std::pair<HWND__ * const,WndMoveData> >,0> >::iterator::iterator
  0045e	8b 45 08	 mov	 eax, DWORD PTR ___$ReturnUdt$[ebp]
$L189786:

; 984  : 		}

  00461	8b 4d f4	 mov	 ecx, DWORD PTR __$EHRec$[ebp]
  00464	64 89 0d 00 00
	00 00		 mov	 DWORD PTR fs:__except_list, ecx
  0046b	5f		 pop	 edi
  0046c	5e		 pop	 esi
  0046d	83 c4 5c	 add	 esp, 92			; 0000005cH
  00470	3b ec		 cmp	 ebp, esp
  00472	e8 00 00 00 00	 call	 __RTC_CheckEsp
  00477	8b e5		 mov	 esp, ebp
  00479	5d		 pop	 ebp
  0047a	c2 10 00	 ret	 16			; 00000010H
_TEXT	ENDS
;	COMDAT text$x
text$x	SEGMENT
$L189790:
  00000	8b f4		 mov	 esi, esp
  00002	8d 4d a4	 lea	 ecx, DWORD PTR $T189788[ebp]
  00005	ff 15 00 00 00
	00		 call	 DWORD PTR __imp_??1?$basic_string@DU?$char_traits@D@std@@V?$allocator@D@2@@std@@QAE@XZ
  0000b	3b f4		 cmp	 esi, esp
  0000d	e9 00 00 00 00	 jmp	 __RTC_CheckEsp
__ehhandler$?_Insert@?$_Tree@V?$_Tmap_traits@PAUHWND__@@UWndMoveData@@U?$less@PAUHWND__@@@std@@V?$allocator@U?$pair@QAUHWND__@@UWndMoveData@@@std@@@4@$0A@@std@@@std@@IAE?AViterator@12@_NPAU_Node@?$_Tree_nod@V?$_Tmap_traits@PAUHWND__@@UWndMoveData@@U?$less@PAUHWND__@@@std@@V?$allocator@U?$pair@QAUHWND__@@UWndMoveData@@@std@@@4@$0A@@std@@@2@ABU?$pair@QAUHWND__@@UWndMoveData@@@2@@Z:
  00012	b8 00 00 00 00	 mov	 eax, OFFSET FLAT:$T189792
  00017	e9 00 00 00 00	 jmp	 ___CxxFrameHandler
text$x	ENDS
?_Insert@?$_Tree@V?$_Tmap_traits@PAUHWND__@@UWndMoveData@@U?$less@PAUHWND__@@@std@@V?$allocator@U?$pair@QAUHWND__@@UWndMoveData@@@std@@@4@$0A@@std@@@std@@IAE?AViterator@12@_NPAU_Node@?$_Tree_nod@V?$_Tmap_traits@PAUHWND__@@UWndMoveData@@U?$less@PAUHWND__@@@std@@V?$allocator@U?$pair@QAUHWND__@@UWndMoveData@@@std@@@4@$0A@@std@@@2@ABU?$pair@QAUHWND__@@UWndMoveData@@@2@@Z ENDP ; std::_Tree<std::_Tmap_traits<HWND__ *,WndMoveData,std::less<HWND__ *>,std::allocator<std::pair<HWND__ * const,WndMoveData> >,0> >::_Insert
PUBLIC	?_Root@?$_Tree@V?$_Tmap_traits@PAUHWND__@@UWndMoveData@@U?$less@PAUHWND__@@@std@@V?$allocator@U?$pair@QAUHWND__@@UWndMoveData@@@std@@@4@$0A@@std@@@std@@IBEAAPAU_Node@?$_Tree_nod@V?$_Tmap_traits@PAUHWND__@@UWndMoveData@@U?$less@PAUHWND__@@@std@@V?$allocator@U?$pair@QAUHWND__@@UWndMoveData@@@std@@@4@$0A@@std@@@2@XZ ; std::_Tree<std::_Tmap_traits<HWND__ *,WndMoveData,std::less<HWND__ *>,std::allocator<std::pair<HWND__ * const,WndMoveData> >,0> >::_Root
; Function compile flags: /Odt /RTCsu
;	COMDAT ?_Lbound@?$_Tree@V?$_Tmap_traits@PAUHWND__@@UWndMoveData@@U?$less@PAUHWND__@@@std@@V?$allocator@U?$pair@QAUHWND__@@UWndMoveData@@@std@@@4@$0A@@std@@@std@@IBEPAU_Node@?$_Tree_nod@V?$_Tmap_traits@PAUHWND__@@UWndMoveData@@U?$less@PAUHWND__@@@std@@V?$allocator@U?$pair@QAUHWND__@@UWndMoveData@@@std@@@4@$0A@@std@@@2@ABQAUHWND__@@@Z
_TEXT	SEGMENT
__Wherenode$ = -12					; size = 4
__Pnode$ = -8						; size = 4
_this$ = -4						; size = 4
__Keyval$ = 8						; size = 4
?_Lbound@?$_Tree@V?$_Tmap_traits@PAUHWND__@@UWndMoveData@@U?$less@PAUHWND__@@@std@@V?$allocator@U?$pair@QAUHWND__@@UWndMoveData@@@std@@@4@$0A@@std@@@std@@IBEPAU_Node@?$_Tree_nod@V?$_Tmap_traits@PAUHWND__@@UWndMoveData@@U?$less@PAUHWND__@@@std@@V?$allocator@U?$pair@QAUHWND__@@UWndMoveData@@@std@@@4@$0A@@std@@@2@ABQAUHWND__@@@Z PROC NEAR ; std::_Tree<std::_Tmap_traits<HWND__ *,WndMoveData,std::less<HWND__ *>,std::allocator<std::pair<HWND__ * const,WndMoveData> >,0> >::_Lbound, COMDAT
; _this$ = ecx

; 987  : 		{	// find leftmost node not less than _Keyval

  00000	55		 push	 ebp
  00001	8b ec		 mov	 ebp, esp
  00003	83 ec 0c	 sub	 esp, 12			; 0000000cH
  00006	c7 45 f4 cc cc
	cc cc		 mov	 DWORD PTR [ebp-12], -858993460 ; ccccccccH
  0000d	c7 45 f8 cc cc
	cc cc		 mov	 DWORD PTR [ebp-8], -858993460 ; ccccccccH
  00014	c7 45 fc cc cc
	cc cc		 mov	 DWORD PTR [ebp-4], -858993460 ; ccccccccH
  0001b	89 4d fc	 mov	 DWORD PTR _this$[ebp], ecx

; 988  : 		_Nodeptr _Pnode = _Root();

  0001e	8b 4d fc	 mov	 ecx, DWORD PTR _this$[ebp]
  00021	e8 00 00 00 00	 call	 ?_Root@?$_Tree@V?$_Tmap_traits@PAUHWND__@@UWndMoveData@@U?$less@PAUHWND__@@@std@@V?$allocator@U?$pair@QAUHWND__@@UWndMoveData@@@std@@@4@$0A@@std@@@std@@IBEAAPAU_Node@?$_Tree_nod@V?$_Tmap_traits@PAUHWND__@@UWndMoveData@@U?$less@PAUHWND__@@@std@@V?$allocator@U?$pair@QAUHWND__@@UWndMoveData@@@std@@@4@$0A@@std@@@2@XZ ; std::_Tree<std::_Tmap_traits<HWND__ *,WndMoveData,std::less<HWND__ *>,std::allocator<std::pair<HWND__ * const,WndMoveData> >,0> >::_Root
  00026	8b 00		 mov	 eax, DWORD PTR [eax]
  00028	89 45 f8	 mov	 DWORD PTR __Pnode$[ebp], eax

; 989  : 		_Nodeptr _Wherenode = _Myhead;	// end() if search fails

  0002b	8b 4d fc	 mov	 ecx, DWORD PTR _this$[ebp]
  0002e	8b 51 04	 mov	 edx, DWORD PTR [ecx+4]
  00031	89 55 f4	 mov	 DWORD PTR __Wherenode$[ebp], edx
$L188840:

; 990  : 
; 991  : 		while (!_Isnil(_Pnode))

  00034	8b 45 f8	 mov	 eax, DWORD PTR __Pnode$[ebp]
  00037	50		 push	 eax
  00038	e8 00 00 00 00	 call	 ?_Isnil@?$_Tree@V?$_Tmap_traits@PAUHWND__@@UWndMoveData@@U?$less@PAUHWND__@@@std@@V?$allocator@U?$pair@QAUHWND__@@UWndMoveData@@@std@@@4@$0A@@std@@@std@@KAAADPAU_Node@?$_Tree_nod@V?$_Tmap_traits@PAUHWND__@@UWndMoveData@@U?$less@PAUHWND__@@@std@@V?$allocator@U?$pair@QAUHWND__@@UWndMoveData@@@std@@@4@$0A@@std@@@2@@Z ; std::_Tree<std::_Tmap_traits<HWND__ *,WndMoveData,std::less<HWND__ *>,std::allocator<std::pair<HWND__ * const,WndMoveData> >,0> >::_Isnil
  0003d	83 c4 04	 add	 esp, 4
  00040	0f be 08	 movsx	 ecx, BYTE PTR [eax]
  00043	85 c9		 test	 ecx, ecx
  00045	75 4c		 jne	 SHORT $L188841

; 992  : 			if (this->comp(_Key(_Pnode), _Keyval))

  00047	8b 55 08	 mov	 edx, DWORD PTR __Keyval$[ebp]
  0004a	52		 push	 edx
  0004b	8b 45 f8	 mov	 eax, DWORD PTR __Pnode$[ebp]
  0004e	50		 push	 eax
  0004f	e8 00 00 00 00	 call	 ?_Key@?$_Tree@V?$_Tmap_traits@PAUHWND__@@UWndMoveData@@U?$less@PAUHWND__@@@std@@V?$allocator@U?$pair@QAUHWND__@@UWndMoveData@@@std@@@4@$0A@@std@@@std@@KAABQAUHWND__@@PAU_Node@?$_Tree_nod@V?$_Tmap_traits@PAUHWND__@@UWndMoveData@@U?$less@PAUHWND__@@@std@@V?$allocator@U?$pair@QAUHWND__@@UWndMoveData@@@std@@@4@$0A@@std@@@2@@Z ; std::_Tree<std::_Tmap_traits<HWND__ *,WndMoveData,std::less<HWND__ *>,std::allocator<std::pair<HWND__ * const,WndMoveData> >,0> >::_Key
  00054	83 c4 04	 add	 esp, 4
  00057	50		 push	 eax
  00058	8b 4d fc	 mov	 ecx, DWORD PTR _this$[ebp]
  0005b	e8 00 00 00 00	 call	 ??R?$less@PAUHWND__@@@std@@QBE_NABQAUHWND__@@0@Z ; std::less<HWND__ *>::operator()
  00060	0f b6 c8	 movzx	 ecx, al
  00063	85 c9		 test	 ecx, ecx
  00065	74 13		 je	 SHORT $L188842

; 993  : 				_Pnode = _Right(_Pnode);	// descend right subtree

  00067	8b 55 f8	 mov	 edx, DWORD PTR __Pnode$[ebp]
  0006a	52		 push	 edx
  0006b	e8 00 00 00 00	 call	 ?_Right@?$_Tree@V?$_Tmap_traits@PAUHWND__@@UWndMoveData@@U?$less@PAUHWND__@@@std@@V?$allocator@U?$pair@QAUHWND__@@UWndMoveData@@@std@@@4@$0A@@std@@@std@@KAAAPAU_Node@?$_Tree_nod@V?$_Tmap_traits@PAUHWND__@@UWndMoveData@@U?$less@PAUHWND__@@@std@@V?$allocator@U?$pair@QAUHWND__@@UWndMoveData@@@std@@@4@$0A@@std@@@2@PAU342@@Z ; std::_Tree<std::_Tmap_traits<HWND__ *,WndMoveData,std::less<HWND__ *>,std::allocator<std::pair<HWND__ * const,WndMoveData> >,0> >::_Right
  00070	83 c4 04	 add	 esp, 4
  00073	8b 00		 mov	 eax, DWORD PTR [eax]
  00075	89 45 f8	 mov	 DWORD PTR __Pnode$[ebp], eax

; 994  : 			else

  00078	eb 17		 jmp	 SHORT $L188843
$L188842:

; 995  : 				{	// _Pnode not less than _Keyval, remember it
; 996  : 				_Wherenode = _Pnode;

  0007a	8b 4d f8	 mov	 ecx, DWORD PTR __Pnode$[ebp]
  0007d	89 4d f4	 mov	 DWORD PTR __Wherenode$[ebp], ecx

; 997  : 				_Pnode = _Left(_Pnode);	// descend left subtree

  00080	8b 55 f8	 mov	 edx, DWORD PTR __Pnode$[ebp]
  00083	52		 push	 edx
  00084	e8 00 00 00 00	 call	 ?_Left@?$_Tree@V?$_Tmap_traits@PAUHWND__@@UWndMoveData@@U?$less@PAUHWND__@@@std@@V?$allocator@U?$pair@QAUHWND__@@UWndMoveData@@@std@@@4@$0A@@std@@@std@@KAAAPAU_Node@?$_Tree_nod@V?$_Tmap_traits@PAUHWND__@@UWndMoveData@@U?$less@PAUHWND__@@@std@@V?$allocator@U?$pair@QAUHWND__@@UWndMoveData@@@std@@@4@$0A@@std@@@2@PAU342@@Z ; std::_Tree<std::_Tmap_traits<HWND__ *,WndMoveData,std::less<HWND__ *>,std::allocator<std::pair<HWND__ * const,WndMoveData> >,0> >::_Left
  00089	83 c4 04	 add	 esp, 4
  0008c	8b 00		 mov	 eax, DWORD PTR [eax]
  0008e	89 45 f8	 mov	 DWORD PTR __Pnode$[ebp], eax
$L188843:

; 998  : 				}

  00091	eb a1		 jmp	 SHORT $L188840
$L188841:

; 999  : 
; 1000 : 		return (_Wherenode);	// return best remembered candidate

  00093	8b 45 f4	 mov	 eax, DWORD PTR __Wherenode$[ebp]

; 1001 : 		}

  00096	83 c4 0c	 add	 esp, 12			; 0000000cH
  00099	3b ec		 cmp	 ebp, esp
  0009b	e8 00 00 00 00	 call	 __RTC_CheckEsp
  000a0	8b e5		 mov	 esp, ebp
  000a2	5d		 pop	 ebp
  000a3	c2 04 00	 ret	 4
?_Lbound@?$_Tree@V?$_Tmap_traits@PAUHWND__@@UWndMoveData@@U?$less@PAUHWND__@@@std@@V?$allocator@U?$pair@QAUHWND__@@UWndMoveData@@@std@@@4@$0A@@std@@@std@@IBEPAU_Node@?$_Tree_nod@V?$_Tmap_traits@PAUHWND__@@UWndMoveData@@U?$less@PAUHWND__@@@std@@V?$allocator@U?$pair@QAUHWND__@@UWndMoveData@@@std@@@4@$0A@@std@@@2@ABQAUHWND__@@@Z ENDP ; std::_Tree<std::_Tmap_traits<HWND__ *,WndMoveData,std::less<HWND__ *>,std::allocator<std::pair<HWND__ * const,WndMoveData> >,0> >::_Lbound
_TEXT	ENDS
PUBLIC	??0?$_Tree_ptr@V?$_Tmap_traits@PAUHWND__@@UWndMoveData@@U?$less@PAUHWND__@@@std@@V?$allocator@U?$pair@QAUHWND__@@UWndMoveData@@@std@@@4@$0A@@std@@@std@@IAE@ABU?$less@PAUHWND__@@@1@V?$allocator@U?$pair@QAUHWND__@@UWndMoveData@@@std@@@1@@Z ; std::_Tree_ptr<std::_Tmap_traits<HWND__ *,WndMoveData,std::less<HWND__ *>,std::allocator<std::pair<HWND__ * const,WndMoveData> >,0> >::_Tree_ptr<std::_Tmap_traits<HWND__ *,WndMoveData,std::less<HWND__ *>,std::allocator<std::pair<HWND__ * const,WndMoveData> >,0> >
; Function compile flags: /Odt /RTCsu
;	COMDAT ??0?$_Tree_val@V?$_Tmap_traits@PAUHWND__@@UWndMoveData@@U?$less@PAUHWND__@@@std@@V?$allocator@U?$pair@QAUHWND__@@UWndMoveData@@@std@@@4@$0A@@std@@@std@@IAE@ABU?$less@PAUHWND__@@@1@V?$allocator@U?$pair@QAUHWND__@@UWndMoveData@@@std@@@1@@Z
_TEXT	SEGMENT
_this$ = -4						; size = 4
__Parg$ = 8						; size = 4
__Al$ = 12						; size = 1
??0?$_Tree_val@V?$_Tmap_traits@PAUHWND__@@UWndMoveData@@U?$less@PAUHWND__@@@std@@V?$allocator@U?$pair@QAUHWND__@@UWndMoveData@@@std@@@4@$0A@@std@@@std@@IAE@ABU?$less@PAUHWND__@@@1@V?$allocator@U?$pair@QAUHWND__@@UWndMoveData@@@std@@@1@@Z PROC NEAR ; std::_Tree_val<std::_Tmap_traits<HWND__ *,WndMoveData,std::less<HWND__ *>,std::allocator<std::pair<HWND__ * const,WndMoveData> >,0> >::_Tree_val<std::_Tmap_traits<HWND__ *,WndMoveData,std::less<HWND__ *>,std::allocator<std::pair<HWND__ * const,WndMoveData> >,0> >, COMDAT
; _this$ = ecx

; 95   : 		{	// construct base, and allocator from _Al

  00000	55		 push	 ebp
  00001	8b ec		 mov	 ebp, esp
  00003	83 ec 08	 sub	 esp, 8
  00006	c7 45 f8 cc cc
	cc cc		 mov	 DWORD PTR [ebp-8], -858993460 ; ccccccccH
  0000d	c7 45 fc cc cc
	cc cc		 mov	 DWORD PTR [ebp-4], -858993460 ; ccccccccH
  00014	89 4d fc	 mov	 DWORD PTR _this$[ebp], ecx
  00017	51		 push	 ecx
  00018	8b cc		 mov	 ecx, esp
  0001a	8d 45 0c	 lea	 eax, DWORD PTR __Al$[ebp]
  0001d	50		 push	 eax
  0001e	e8 00 00 00 00	 call	 ??0?$allocator@U?$pair@QAUHWND__@@UWndMoveData@@@std@@@std@@QAE@ABV01@@Z ; std::allocator<std::pair<HWND__ * const,WndMoveData> >::allocator<std::pair<HWND__ * const,WndMoveData> >
  00023	8b 4d 08	 mov	 ecx, DWORD PTR __Parg$[ebp]
  00026	51		 push	 ecx
  00027	8b 4d fc	 mov	 ecx, DWORD PTR _this$[ebp]
  0002a	e8 00 00 00 00	 call	 ??0?$_Tree_ptr@V?$_Tmap_traits@PAUHWND__@@UWndMoveData@@U?$less@PAUHWND__@@@std@@V?$allocator@U?$pair@QAUHWND__@@UWndMoveData@@@std@@@4@$0A@@std@@@std@@IAE@ABU?$less@PAUHWND__@@@1@V?$allocator@U?$pair@QAUHWND__@@UWndMoveData@@@std@@@1@@Z ; std::_Tree_ptr<std::_Tmap_traits<HWND__ *,WndMoveData,std::less<HWND__ *>,std::allocator<std::pair<HWND__ * const,WndMoveData> >,0> >::_Tree_ptr<std::_Tmap_traits<HWND__ *,WndMoveData,std::less<HWND__ *>,std::allocator<std::pair<HWND__ * const,WndMoveData> >,0> >
  0002f	8d 55 0c	 lea	 edx, DWORD PTR __Al$[ebp]
  00032	52		 push	 edx
  00033	8b 4d fc	 mov	 ecx, DWORD PTR _this$[ebp]
  00036	83 c1 03	 add	 ecx, 3
  00039	e8 00 00 00 00	 call	 ??0?$allocator@U?$pair@QAUHWND__@@UWndMoveData@@@std@@@std@@QAE@ABV01@@Z ; std::allocator<std::pair<HWND__ * const,WndMoveData> >::allocator<std::pair<HWND__ * const,WndMoveData> >

; 96   : 		}

  0003e	8b 45 fc	 mov	 eax, DWORD PTR _this$[ebp]
  00041	83 c4 08	 add	 esp, 8
  00044	3b ec		 cmp	 ebp, esp
  00046	e8 00 00 00 00	 call	 __RTC_CheckEsp
  0004b	8b e5		 mov	 esp, ebp
  0004d	5d		 pop	 ebp
  0004e	c2 08 00	 ret	 8
??0?$_Tree_val@V?$_Tmap_traits@PAUHWND__@@UWndMoveData@@U?$less@PAUHWND__@@@std@@V?$allocator@U?$pair@QAUHWND__@@UWndMoveData@@@std@@@4@$0A@@std@@@std@@IAE@ABU?$less@PAUHWND__@@@1@V?$allocator@U?$pair@QAUHWND__@@UWndMoveData@@@std@@@1@@Z ENDP ; std::_Tree_val<std::_Tmap_traits<HWND__ *,WndMoveData,std::less<HWND__ *>,std::allocator<std::pair<HWND__ * const,WndMoveData> >,0> >::_Tree_val<std::_Tmap_traits<HWND__ *,WndMoveData,std::less<HWND__ *>,std::allocator<std::pair<HWND__ * const,WndMoveData> >,0> >
; Function compile flags: /Odt /RTCsu
; File d:\program files (x86)\microsoft visual studio .net 2003\vc7\include\map
_TEXT	ENDS
;	COMDAT ?_Kfn@?$_Tmap_traits@PAUHWND__@@UWndMoveData@@U?$less@PAUHWND__@@@std@@V?$allocator@U?$pair@QAUHWND__@@UWndMoveData@@@std@@@4@$0A@@std@@SAABQAUHWND__@@ABU?$pair@QAUHWND__@@UWndMoveData@@@2@@Z
_TEXT	SEGMENT
__Val$ = 8						; size = 4
?_Kfn@?$_Tmap_traits@PAUHWND__@@UWndMoveData@@U?$less@PAUHWND__@@@std@@V?$allocator@U?$pair@QAUHWND__@@UWndMoveData@@@std@@@4@$0A@@std@@SAABQAUHWND__@@ABU?$pair@QAUHWND__@@UWndMoveData@@@2@@Z PROC NEAR ; std::_Tmap_traits<HWND__ *,WndMoveData,std::less<HWND__ *>,std::allocator<std::pair<HWND__ * const,WndMoveData> >,0>::_Kfn, COMDAT

; 63   : 		{	// extract key from element value

  00000	55		 push	 ebp
  00001	8b ec		 mov	 ebp, esp

; 64   : 		return (_Val.first);

  00003	8b 45 08	 mov	 eax, DWORD PTR __Val$[ebp]

; 65   : 		}

  00006	5d		 pop	 ebp
  00007	c3		 ret	 0
?_Kfn@?$_Tmap_traits@PAUHWND__@@UWndMoveData@@U?$less@PAUHWND__@@@std@@V?$allocator@U?$pair@QAUHWND__@@UWndMoveData@@@std@@@4@$0A@@std@@SAABQAUHWND__@@ABU?$pair@QAUHWND__@@UWndMoveData@@@2@@Z ENDP ; std::_Tmap_traits<HWND__ *,WndMoveData,std::less<HWND__ *>,std::allocator<std::pair<HWND__ * const,WndMoveData> >,0>::_Kfn
; Function compile flags: /Odt /RTCsu
; File d:\program files (x86)\microsoft visual studio .net 2003\vc7\include\xmemory
_TEXT	ENDS
;	COMDAT ??0?$allocator@U?$pair@QAUHWND__@@UWndMoveData@@@std@@@std@@QAE@ABV01@@Z
_TEXT	SEGMENT
_this$ = -4						; size = 4
___formal$ = 8						; size = 4
??0?$allocator@U?$pair@QAUHWND__@@UWndMoveData@@@std@@@std@@QAE@ABV01@@Z PROC NEAR ; std::allocator<std::pair<HWND__ * const,WndMoveData> >::allocator<std::pair<HWND__ * const,WndMoveData> >, COMDAT
; _this$ = ecx

; 115  : 	allocator(const allocator<_Ty>&)

  00000	55		 push	 ebp
  00001	8b ec		 mov	 ebp, esp
  00003	51		 push	 ecx
  00004	c7 45 fc cc cc
	cc cc		 mov	 DWORD PTR [ebp-4], -858993460 ; ccccccccH
  0000b	89 4d fc	 mov	 DWORD PTR _this$[ebp], ecx

; 116  : 		{	// construct by copying (do nothing)
; 117  : 		}

  0000e	8b 45 fc	 mov	 eax, DWORD PTR _this$[ebp]
  00011	8b e5		 mov	 esp, ebp
  00013	5d		 pop	 ebp
  00014	c2 04 00	 ret	 4
??0?$allocator@U?$pair@QAUHWND__@@UWndMoveData@@@std@@@std@@QAE@ABV01@@Z ENDP ; std::allocator<std::pair<HWND__ * const,WndMoveData> >::allocator<std::pair<HWND__ * const,WndMoveData> >
; Function compile flags: /Odt /RTCsu
_TEXT	ENDS
;	COMDAT ?deallocate@?$allocator@U_Node@?$_Tree_nod@V?$_Tmap_traits@PAUHWND__@@UWndMoveData@@U?$less@PAUHWND__@@@std@@V?$allocator@U?$pair@QAUHWND__@@UWndMoveData@@@std@@@4@$0A@@std@@@std@@@std@@QAEXPAU_Node@?$_Tree_nod@V?$_Tmap_traits@PAUHWND__@@UWndMoveData@@U?$less@PAUHWND__@@@std@@V?$allocator@U?$pair@QAUHWND__@@UWndMoveData@@@std@@@4@$0A@@std@@@2@I@Z
_TEXT	SEGMENT
_this$ = -4						; size = 4
__Ptr$ = 8						; size = 4
___formal$ = 12						; size = 4
?deallocate@?$allocator@U_Node@?$_Tree_nod@V?$_Tmap_traits@PAUHWND__@@UWndMoveData@@U?$less@PAUHWND__@@@std@@V?$allocator@U?$pair@QAUHWND__@@UWndMoveData@@@std@@@4@$0A@@std@@@std@@@std@@QAEXPAU_Node@?$_Tree_nod@V?$_Tmap_traits@PAUHWND__@@UWndMoveData@@U?$less@PAUHWND__@@@std@@V?$allocator@U?$pair@QAUHWND__@@UWndMoveData@@@std@@@4@$0A@@std@@@2@I@Z PROC NEAR ; std::allocator<std::_Tree_nod<std::_Tmap_traits<HWND__ *,WndMoveData,std::less<HWND__ *>,std::allocator<std::pair<HWND__ * const,WndMoveData> >,0> >::_Node>::deallocate, COMDAT
; _this$ = ecx

; 131  : 		{	// deallocate object at _Ptr, ignore size

  00000	55		 push	 ebp
  00001	8b ec		 mov	 ebp, esp
  00003	51		 push	 ecx
  00004	c7 45 fc cc cc
	cc cc		 mov	 DWORD PTR [ebp-4], -858993460 ; ccccccccH
  0000b	89 4d fc	 mov	 DWORD PTR _this$[ebp], ecx

; 132  : 		operator delete(_Ptr);

  0000e	8b 45 08	 mov	 eax, DWORD PTR __Ptr$[ebp]
  00011	50		 push	 eax
  00012	e8 00 00 00 00	 call	 ??3@YAXPAX@Z		; operator delete
  00017	83 c4 04	 add	 esp, 4

; 133  : 		}

  0001a	83 c4 04	 add	 esp, 4
  0001d	3b ec		 cmp	 ebp, esp
  0001f	e8 00 00 00 00	 call	 __RTC_CheckEsp
  00024	8b e5		 mov	 esp, ebp
  00026	5d		 pop	 ebp
  00027	c2 08 00	 ret	 8
?deallocate@?$allocator@U_Node@?$_Tree_nod@V?$_Tmap_traits@PAUHWND__@@UWndMoveData@@U?$less@PAUHWND__@@@std@@V?$allocator@U?$pair@QAUHWND__@@UWndMoveData@@@std@@@4@$0A@@std@@@std@@@std@@QAEXPAU_Node@?$_Tree_nod@V?$_Tmap_traits@PAUHWND__@@UWndMoveData@@U?$less@PAUHWND__@@@std@@V?$allocator@U?$pair@QAUHWND__@@UWndMoveData@@@std@@@4@$0A@@std@@@2@I@Z ENDP ; std::allocator<std::_Tree_nod<std::_Tmap_traits<HWND__ *,WndMoveData,std::less<HWND__ *>,std::allocator<std::pair<HWND__ * const,WndMoveData> >,0> >::_Node>::deallocate
_TEXT	ENDS
PUBLIC	??$_Destroy@U_Node@?$_Tree_nod@V?$_Tmap_traits@PAUHWND__@@UWndMoveData@@U?$less@PAUHWND__@@@std@@V?$allocator@U?$pair@QAUHWND__@@UWndMoveData@@@std@@@4@$0A@@std@@@std@@@std@@YAXPAU_Node@?$_Tree_nod@V?$_Tmap_traits@PAUHWND__@@UWndMoveData@@U?$less@PAUHWND__@@@std@@V?$allocator@U?$pair@QAUHWND__@@UWndMoveData@@@std@@@4@$0A@@std@@@0@@Z ; std::_Destroy<std::_Tree_nod<std::_Tmap_traits<HWND__ *,WndMoveData,std::less<HWND__ *>,std::allocator<std::pair<HWND__ * const,WndMoveData> >,0> >::_Node>
; Function compile flags: /Odt /RTCsu
;	COMDAT ?destroy@?$allocator@U_Node@?$_Tree_nod@V?$_Tmap_traits@PAUHWND__@@UWndMoveData@@U?$less@PAUHWND__@@@std@@V?$allocator@U?$pair@QAUHWND__@@UWndMoveData@@@std@@@4@$0A@@std@@@std@@@std@@QAEXPAU_Node@?$_Tree_nod@V?$_Tmap_traits@PAUHWND__@@UWndMoveData@@U?$less@PAUHWND__@@@std@@V?$allocator@U?$pair@QAUHWND__@@UWndMoveData@@@std@@@4@$0A@@std@@@2@@Z
_TEXT	SEGMENT
_this$ = -4						; size = 4
__Ptr$ = 8						; size = 4
?destroy@?$allocator@U_Node@?$_Tree_nod@V?$_Tmap_traits@PAUHWND__@@UWndMoveData@@U?$less@PAUHWND__@@@std@@V?$allocator@U?$pair@QAUHWND__@@UWndMoveData@@@std@@@4@$0A@@std@@@std@@@std@@QAEXPAU_Node@?$_Tree_nod@V?$_Tmap_traits@PAUHWND__@@UWndMoveData@@U?$less@PAUHWND__@@@std@@V?$allocator@U?$pair@QAUHWND__@@UWndMoveData@@@std@@@4@$0A@@std@@@2@@Z PROC NEAR ; std::allocator<std::_Tree_nod<std::_Tmap_traits<HWND__ *,WndMoveData,std::less<HWND__ *>,std::allocator<std::pair<HWND__ * const,WndMoveData> >,0> >::_Node>::destroy, COMDAT
; _this$ = ecx

; 151  : 		{	// destroy object at _Ptr

  00000	55		 push	 ebp
  00001	8b ec		 mov	 ebp, esp
  00003	51		 push	 ecx
  00004	c7 45 fc cc cc
	cc cc		 mov	 DWORD PTR [ebp-4], -858993460 ; ccccccccH
  0000b	89 4d fc	 mov	 DWORD PTR _this$[ebp], ecx

; 152  : 		_Destroy(_Ptr);

  0000e	8b 45 08	 mov	 eax, DWORD PTR __Ptr$[ebp]
  00011	50		 push	 eax
  00012	e8 00 00 00 00	 call	 ??$_Destroy@U_Node@?$_Tree_nod@V?$_Tmap_traits@PAUHWND__@@UWndMoveData@@U?$less@PAUHWND__@@@std@@V?$allocator@U?$pair@QAUHWND__@@UWndMoveData@@@std@@@4@$0A@@std@@@std@@@std@@YAXPAU_Node@?$_Tree_nod@V?$_Tmap_traits@PAUHWND__@@UWndMoveData@@U?$less@PAUHWND__@@@std@@V?$allocator@U?$pair@QAUHWND__@@UWndMoveData@@@std@@@4@$0A@@std@@@0@@Z ; std::_Destroy<std::_Tree_nod<std::_Tmap_traits<HWND__ *,WndMoveData,std::less<HWND__ *>,std::allocator<std::pair<HWND__ * const,WndMoveData> >,0> >::_Node>
  00017	83 c4 04	 add	 esp, 4

; 153  : 		}

  0001a	83 c4 04	 add	 esp, 4
  0001d	3b ec		 cmp	 ebp, esp
  0001f	e8 00 00 00 00	 call	 __RTC_CheckEsp
  00024	8b e5		 mov	 esp, ebp
  00026	5d		 pop	 ebp
  00027	c2 04 00	 ret	 4
?destroy@?$allocator@U_Node@?$_Tree_nod@V?$_Tmap_traits@PAUHWND__@@UWndMoveData@@U?$less@PAUHWND__@@@std@@V?$allocator@U?$pair@QAUHWND__@@UWndMoveData@@@std@@@4@$0A@@std@@@std@@@std@@QAEXPAU_Node@?$_Tree_nod@V?$_Tmap_traits@PAUHWND__@@UWndMoveData@@U?$less@PAUHWND__@@@std@@V?$allocator@U?$pair@QAUHWND__@@UWndMoveData@@@std@@@4@$0A@@std@@@2@@Z ENDP ; std::allocator<std::_Tree_nod<std::_Tmap_traits<HWND__ *,WndMoveData,std::less<HWND__ *>,std::allocator<std::pair<HWND__ * const,WndMoveData> >,0> >::_Node>::destroy
_TEXT	ENDS
PUBLIC	??$_Destroy@PAU_Node@?$_Tree_nod@V?$_Tmap_traits@PAUHWND__@@UWndMoveData@@U?$less@PAUHWND__@@@std@@V?$allocator@U?$pair@QAUHWND__@@UWndMoveData@@@std@@@4@$0A@@std@@@std@@@std@@YAXPAPAU_Node@?$_Tree_nod@V?$_Tmap_traits@PAUHWND__@@UWndMoveData@@U?$less@PAUHWND__@@@std@@V?$allocator@U?$pair@QAUHWND__@@UWndMoveData@@@std@@@4@$0A@@std@@@0@@Z ; std::_Destroy<std::_Tree_nod<std::_Tmap_traits<HWND__ *,WndMoveData,std::less<HWND__ *>,std::allocator<std::pair<HWND__ * const,WndMoveData> >,0> >::_Node *>
; Function compile flags: /Odt /RTCsu
;	COMDAT ?destroy@?$allocator@PAU_Node@?$_Tree_nod@V?$_Tmap_traits@PAUHWND__@@UWndMoveData@@U?$less@PAUHWND__@@@std@@V?$allocator@U?$pair@QAUHWND__@@UWndMoveData@@@std@@@4@$0A@@std@@@std@@@std@@QAEXPAPAU_Node@?$_Tree_nod@V?$_Tmap_traits@PAUHWND__@@UWndMoveData@@U?$less@PAUHWND__@@@std@@V?$allocator@U?$pair@QAUHWND__@@UWndMoveData@@@std@@@4@$0A@@std@@@2@@Z
_TEXT	SEGMENT
_this$ = -4						; size = 4
__Ptr$ = 8						; size = 4
?destroy@?$allocator@PAU_Node@?$_Tree_nod@V?$_Tmap_traits@PAUHWND__@@UWndMoveData@@U?$less@PAUHWND__@@@std@@V?$allocator@U?$pair@QAUHWND__@@UWndMoveData@@@std@@@4@$0A@@std@@@std@@@std@@QAEXPAPAU_Node@?$_Tree_nod@V?$_Tmap_traits@PAUHWND__@@UWndMoveData@@U?$less@PAUHWND__@@@std@@V?$allocator@U?$pair@QAUHWND__@@UWndMoveData@@@std@@@4@$0A@@std@@@2@@Z PROC NEAR ; std::allocator<std::_Tree_nod<std::_Tmap_traits<HWND__ *,WndMoveData,std::less<HWND__ *>,std::allocator<std::pair<HWND__ * const,WndMoveData> >,0> >::_Node *>::destroy, COMDAT
; _this$ = ecx

; 151  : 		{	// destroy object at _Ptr

  00000	55		 push	 ebp
  00001	8b ec		 mov	 ebp, esp
  00003	51		 push	 ecx
  00004	c7 45 fc cc cc
	cc cc		 mov	 DWORD PTR [ebp-4], -858993460 ; ccccccccH
  0000b	89 4d fc	 mov	 DWORD PTR _this$[ebp], ecx

; 152  : 		_Destroy(_Ptr);

  0000e	8b 45 08	 mov	 eax, DWORD PTR __Ptr$[ebp]
  00011	50		 push	 eax
  00012	e8 00 00 00 00	 call	 ??$_Destroy@PAU_Node@?$_Tree_nod@V?$_Tmap_traits@PAUHWND__@@UWndMoveData@@U?$less@PAUHWND__@@@std@@V?$allocator@U?$pair@QAUHWND__@@UWndMoveData@@@std@@@4@$0A@@std@@@std@@@std@@YAXPAPAU_Node@?$_Tree_nod@V?$_Tmap_traits@PAUHWND__@@UWndMoveData@@U?$less@PAUHWND__@@@std@@V?$allocator@U?$pair@QAUHWND__@@UWndMoveData@@@std@@@4@$0A@@std@@@0@@Z ; std::_Destroy<std::_Tree_nod<std::_Tmap_traits<HWND__ *,WndMoveData,std::less<HWND__ *>,std::allocator<std::pair<HWND__ * const,WndMoveData> >,0> >::_Node *>
  00017	83 c4 04	 add	 esp, 4

; 153  : 		}

  0001a	83 c4 04	 add	 esp, 4
  0001d	3b ec		 cmp	 ebp, esp
  0001f	e8 00 00 00 00	 call	 __RTC_CheckEsp
  00024	8b e5		 mov	 esp, ebp
  00026	5d		 pop	 ebp
  00027	c2 04 00	 ret	 4
?destroy@?$allocator@PAU_Node@?$_Tree_nod@V?$_Tmap_traits@PAUHWND__@@UWndMoveData@@U?$less@PAUHWND__@@@std@@V?$allocator@U?$pair@QAUHWND__@@UWndMoveData@@@std@@@4@$0A@@std@@@std@@@std@@QAEXPAPAU_Node@?$_Tree_nod@V?$_Tmap_traits@PAUHWND__@@UWndMoveData@@U?$less@PAUHWND__@@@std@@V?$allocator@U?$pair@QAUHWND__@@UWndMoveData@@@std@@@4@$0A@@std@@@2@@Z ENDP ; std::allocator<std::_Tree_nod<std::_Tmap_traits<HWND__ *,WndMoveData,std::less<HWND__ *>,std::allocator<std::pair<HWND__ * const,WndMoveData> >,0> >::_Node *>::destroy
_TEXT	ENDS
PUBLIC	??Fconst_iterator@?$_Tree@V?$_Tmap_traits@PAUHWND__@@UWndMoveData@@U?$less@PAUHWND__@@@std@@V?$allocator@U?$pair@QAUHWND__@@UWndMoveData@@@std@@@4@$0A@@std@@@std@@QAEAAV012@XZ ; std::_Tree<std::_Tmap_traits<HWND__ *,WndMoveData,std::less<HWND__ *>,std::allocator<std::pair<HWND__ * const,WndMoveData> >,0> >::const_iterator::operator--
; Function compile flags: /Odt /RTCsu
; File d:\program files (x86)\microsoft visual studio .net 2003\vc7\include\xtree
;	COMDAT ??Fiterator@?$_Tree@V?$_Tmap_traits@PAUHWND__@@UWndMoveData@@U?$less@PAUHWND__@@@std@@V?$allocator@U?$pair@QAUHWND__@@UWndMoveData@@@std@@@4@$0A@@std@@@std@@QAEAAV012@XZ
_TEXT	SEGMENT
_this$ = -4						; size = 4
??Fiterator@?$_Tree@V?$_Tmap_traits@PAUHWND__@@UWndMoveData@@U?$less@PAUHWND__@@@std@@V?$allocator@U?$pair@QAUHWND__@@UWndMoveData@@@std@@@4@$0A@@std@@@std@@QAEAAV012@XZ PROC NEAR ; std::_Tree<std::_Tmap_traits<HWND__ *,WndMoveData,std::less<HWND__ *>,std::allocator<std::pair<HWND__ * const,WndMoveData> >,0> >::iterator::operator--, COMDAT
; _this$ = ecx

; 339  : 			{	// predecrement

  00000	55		 push	 ebp
  00001	8b ec		 mov	 ebp, esp
  00003	51		 push	 ecx
  00004	c7 45 fc cc cc
	cc cc		 mov	 DWORD PTR [ebp-4], -858993460 ; ccccccccH
  0000b	89 4d fc	 mov	 DWORD PTR _this$[ebp], ecx

; 340  : 			--(*(const_iterator *)this);

  0000e	8b 4d fc	 mov	 ecx, DWORD PTR _this$[ebp]
  00011	e8 00 00 00 00	 call	 ??Fconst_iterator@?$_Tree@V?$_Tmap_traits@PAUHWND__@@UWndMoveData@@U?$less@PAUHWND__@@@std@@V?$allocator@U?$pair@QAUHWND__@@UWndMoveData@@@std@@@4@$0A@@std@@@std@@QAEAAV012@XZ ; std::_Tree<std::_Tmap_traits<HWND__ *,WndMoveData,std::less<HWND__ *>,std::allocator<std::pair<HWND__ * const,WndMoveData> >,0> >::const_iterator::operator--

; 341  : 			return (*this);

  00016	8b 45 fc	 mov	 eax, DWORD PTR _this$[ebp]

; 342  : 			}

  00019	83 c4 04	 add	 esp, 4
  0001c	3b ec		 cmp	 ebp, esp
  0001e	e8 00 00 00 00	 call	 __RTC_CheckEsp
  00023	8b e5		 mov	 esp, ebp
  00025	5d		 pop	 ebp
  00026	c3		 ret	 0
??Fiterator@?$_Tree@V?$_Tmap_traits@PAUHWND__@@UWndMoveData@@U?$less@PAUHWND__@@@std@@V?$allocator@U?$pair@QAUHWND__@@UWndMoveData@@@std@@@4@$0A@@std@@@std@@QAEAAV012@XZ ENDP ; std::_Tree<std::_Tmap_traits<HWND__ *,WndMoveData,std::less<HWND__ *>,std::allocator<std::pair<HWND__ * const,WndMoveData> >,0> >::iterator::operator--
; Function compile flags: /Odt /RTCsu
_TEXT	ENDS
;	COMDAT ??0const_iterator@?$_Tree@V?$_Tmap_traits@PAUHWND__@@UWndMoveData@@U?$less@PAUHWND__@@@std@@V?$allocator@U?$pair@QAUHWND__@@UWndMoveData@@@std@@@4@$0A@@std@@@std@@QAE@PAU_Node@?$_Tree_nod@V?$_Tmap_traits@PAUHWND__@@UWndMoveData@@U?$less@PAUHWND__@@@std@@V?$allocator@U?$pair@QAUHWND__@@UWndMoveData@@@std@@@4@$0A@@std@@@2@@Z
_TEXT	SEGMENT
_this$ = -4						; size = 4
__Pnode$ = 8						; size = 4
??0const_iterator@?$_Tree@V?$_Tmap_traits@PAUHWND__@@UWndMoveData@@U?$less@PAUHWND__@@@std@@V?$allocator@U?$pair@QAUHWND__@@UWndMoveData@@@std@@@4@$0A@@std@@@std@@QAE@PAU_Node@?$_Tree_nod@V?$_Tmap_traits@PAUHWND__@@UWndMoveData@@U?$less@PAUHWND__@@@std@@V?$allocator@U?$pair@QAUHWND__@@UWndMoveData@@@std@@@4@$0A@@std@@@2@@Z PROC NEAR ; std::_Tree<std::_Tmap_traits<HWND__ *,WndMoveData,std::less<HWND__ *>,std::allocator<std::pair<HWND__ * const,WndMoveData> >,0> >::const_iterator::const_iterator, COMDAT
; _this$ = ecx

; 200  : 			{	// construct with node pointer _Pnode

  00000	55		 push	 ebp
  00001	8b ec		 mov	 ebp, esp
  00003	51		 push	 ecx
  00004	c7 45 fc cc cc
	cc cc		 mov	 DWORD PTR [ebp-4], -858993460 ; ccccccccH
  0000b	89 4d fc	 mov	 DWORD PTR _this$[ebp], ecx
  0000e	8b 45 fc	 mov	 eax, DWORD PTR _this$[ebp]
  00011	8b 4d 08	 mov	 ecx, DWORD PTR __Pnode$[ebp]
  00014	89 08		 mov	 DWORD PTR [eax], ecx

; 201  : 			}

  00016	8b 45 fc	 mov	 eax, DWORD PTR _this$[ebp]
  00019	8b e5		 mov	 esp, ebp
  0001b	5d		 pop	 ebp
  0001c	c2 04 00	 ret	 4
??0const_iterator@?$_Tree@V?$_Tmap_traits@PAUHWND__@@UWndMoveData@@U?$less@PAUHWND__@@@std@@V?$allocator@U?$pair@QAUHWND__@@UWndMoveData@@@std@@@4@$0A@@std@@@std@@QAE@PAU_Node@?$_Tree_nod@V?$_Tmap_traits@PAUHWND__@@UWndMoveData@@U?$less@PAUHWND__@@@std@@V?$allocator@U?$pair@QAUHWND__@@UWndMoveData@@@std@@@4@$0A@@std@@@2@@Z ENDP ; std::_Tree<std::_Tmap_traits<HWND__ *,WndMoveData,std::less<HWND__ *>,std::allocator<std::pair<HWND__ * const,WndMoveData> >,0> >::const_iterator::const_iterator
; Function compile flags: /Odt /RTCsu
_TEXT	ENDS
;	COMDAT ??Dconst_iterator@?$_Tree@V?$_Tmap_traits@PAUHWND__@@UWndMoveData@@U?$less@PAUHWND__@@@std@@V?$allocator@U?$pair@QAUHWND__@@UWndMoveData@@@std@@@4@$0A@@std@@@std@@QBEABU?$pair@QAUHWND__@@UWndMoveData@@@2@XZ
_TEXT	SEGMENT
_this$ = -4						; size = 4
??Dconst_iterator@?$_Tree@V?$_Tmap_traits@PAUHWND__@@UWndMoveData@@U?$less@PAUHWND__@@@std@@V?$allocator@U?$pair@QAUHWND__@@UWndMoveData@@@std@@@4@$0A@@std@@@std@@QBEABU?$pair@QAUHWND__@@UWndMoveData@@@2@XZ PROC NEAR ; std::_Tree<std::_Tmap_traits<HWND__ *,WndMoveData,std::less<HWND__ *>,std::allocator<std::pair<HWND__ * const,WndMoveData> >,0> >::const_iterator::operator*, COMDAT
; _this$ = ecx

; 204  : 			{	// return designated value

  00000	55		 push	 ebp
  00001	8b ec		 mov	 ebp, esp
  00003	51		 push	 ecx
  00004	c7 45 fc cc cc
	cc cc		 mov	 DWORD PTR [ebp-4], -858993460 ; ccccccccH
  0000b	89 4d fc	 mov	 DWORD PTR _this$[ebp], ecx

; 205  : 			return (_Myval(_Ptr));

  0000e	8b 45 fc	 mov	 eax, DWORD PTR _this$[ebp]
  00011	8b 08		 mov	 ecx, DWORD PTR [eax]
  00013	51		 push	 ecx
  00014	e8 00 00 00 00	 call	 ?_Myval@?$_Tree@V?$_Tmap_traits@PAUHWND__@@UWndMoveData@@U?$less@PAUHWND__@@@std@@V?$allocator@U?$pair@QAUHWND__@@UWndMoveData@@@std@@@4@$0A@@std@@@std@@KAAAU?$pair@QAUHWND__@@UWndMoveData@@@2@PAU_Node@?$_Tree_nod@V?$_Tmap_traits@PAUHWND__@@UWndMoveData@@U?$less@PAUHWND__@@@std@@V?$allocator@U?$pair@QAUHWND__@@UWndMoveData@@@std@@@4@$0A@@std@@@2@@Z ; std::_Tree<std::_Tmap_traits<HWND__ *,WndMoveData,std::less<HWND__ *>,std::allocator<std::pair<HWND__ * const,WndMoveData> >,0> >::_Myval
  00019	83 c4 04	 add	 esp, 4

; 206  : 			}

  0001c	83 c4 04	 add	 esp, 4
  0001f	3b ec		 cmp	 ebp, esp
  00021	e8 00 00 00 00	 call	 __RTC_CheckEsp
  00026	8b e5		 mov	 esp, ebp
  00028	5d		 pop	 ebp
  00029	c3		 ret	 0
??Dconst_iterator@?$_Tree@V?$_Tmap_traits@PAUHWND__@@UWndMoveData@@U?$less@PAUHWND__@@@std@@V?$allocator@U?$pair@QAUHWND__@@UWndMoveData@@@std@@@4@$0A@@std@@@std@@QBEABU?$pair@QAUHWND__@@UWndMoveData@@@2@XZ ENDP ; std::_Tree<std::_Tmap_traits<HWND__ *,WndMoveData,std::less<HWND__ *>,std::allocator<std::pair<HWND__ * const,WndMoveData> >,0> >::const_iterator::operator*
_TEXT	ENDS
PUBLIC	?_Inc@const_iterator@?$_Tree@V?$_Tmap_traits@PAUHWND__@@UWndMoveData@@U?$less@PAUHWND__@@@std@@V?$allocator@U?$pair@QAUHWND__@@UWndMoveData@@@std@@@4@$0A@@std@@@std@@QAEXXZ ; std::_Tree<std::_Tmap_traits<HWND__ *,WndMoveData,std::less<HWND__ *>,std::allocator<std::pair<HWND__ * const,WndMoveData> >,0> >::const_iterator::_Inc
; Function compile flags: /Odt /RTCsu
;	COMDAT ??Econst_iterator@?$_Tree@V?$_Tmap_traits@PAUHWND__@@UWndMoveData@@U?$less@PAUHWND__@@@std@@V?$allocator@U?$pair@QAUHWND__@@UWndMoveData@@@std@@@4@$0A@@std@@@std@@QAEAAV012@XZ
_TEXT	SEGMENT
_this$ = -4						; size = 4
??Econst_iterator@?$_Tree@V?$_Tmap_traits@PAUHWND__@@UWndMoveData@@U?$less@PAUHWND__@@@std@@V?$allocator@U?$pair@QAUHWND__@@UWndMoveData@@@std@@@4@$0A@@std@@@std@@QAEAAV012@XZ PROC NEAR ; std::_Tree<std::_Tmap_traits<HWND__ *,WndMoveData,std::less<HWND__ *>,std::allocator<std::pair<HWND__ * const,WndMoveData> >,0> >::const_iterator::operator++, COMDAT
; _this$ = ecx

; 214  : 			{	// preincrement

  00000	55		 push	 ebp
  00001	8b ec		 mov	 ebp, esp
  00003	51		 push	 ecx
  00004	c7 45 fc cc cc
	cc cc		 mov	 DWORD PTR [ebp-4], -858993460 ; ccccccccH
  0000b	89 4d fc	 mov	 DWORD PTR _this$[ebp], ecx

; 215  : 			_Inc();

  0000e	8b 4d fc	 mov	 ecx, DWORD PTR _this$[ebp]
  00011	e8 00 00 00 00	 call	 ?_Inc@const_iterator@?$_Tree@V?$_Tmap_traits@PAUHWND__@@UWndMoveData@@U?$less@PAUHWND__@@@std@@V?$allocator@U?$pair@QAUHWND__@@UWndMoveData@@@std@@@4@$0A@@std@@@std@@QAEXXZ ; std::_Tree<std::_Tmap_traits<HWND__ *,WndMoveData,std::less<HWND__ *>,std::allocator<std::pair<HWND__ * const,WndMoveData> >,0> >::const_iterator::_Inc

; 216  : 			return (*this);

  00016	8b 45 fc	 mov	 eax, DWORD PTR _this$[ebp]

; 217  : 			}

  00019	83 c4 04	 add	 esp, 4
  0001c	3b ec		 cmp	 ebp, esp
  0001e	e8 00 00 00 00	 call	 __RTC_CheckEsp
  00023	8b e5		 mov	 esp, ebp
  00025	5d		 pop	 ebp
  00026	c3		 ret	 0
??Econst_iterator@?$_Tree@V?$_Tmap_traits@PAUHWND__@@UWndMoveData@@U?$less@PAUHWND__@@@std@@V?$allocator@U?$pair@QAUHWND__@@UWndMoveData@@@std@@@4@$0A@@std@@@std@@QAEAAV012@XZ ENDP ; std::_Tree<std::_Tmap_traits<HWND__ *,WndMoveData,std::less<HWND__ *>,std::allocator<std::pair<HWND__ * const,WndMoveData> >,0> >::const_iterator::operator++
_TEXT	ENDS
PUBLIC	??_R1A@?0A@A@exception@@8			; exception::`RTTI Base Class Descriptor at (0,-1,0,0)'
PUBLIC	??_R1A@?0A@A@logic_error@std@@8			; std::logic_error::`RTTI Base Class Descriptor at (0,-1,0,0)'
PUBLIC	??_R4length_error@std@@6B@			; std::length_error::`RTTI Complete Object Locator'
PUBLIC	??_R3length_error@std@@8			; std::length_error::`RTTI Class Hierarchy Descriptor'
PUBLIC	??_R2length_error@std@@8			; std::length_error::`RTTI Base Class Array'
PUBLIC	??_R1A@?0A@A@length_error@std@@8		; std::length_error::`RTTI Base Class Descriptor at (0,-1,0,0)'
PUBLIC	?what@logic_error@std@@UBEPBDXZ			; std::logic_error::what
PUBLIC	??_7length_error@std@@6B@			; std::length_error::`vftable'
PUBLIC	??_Glength_error@std@@UAEPAXI@Z			; std::length_error::`scalar deleting destructor'
EXTRN	??_Elength_error@std@@UAEPAXI@Z:NEAR		; std::length_error::`vector deleting destructor'
;	COMDAT ??_7length_error@std@@6B@
CONST	SEGMENT
??_7length_error@std@@6B@ DD FLAT:??_R4length_error@std@@6B@ ; std::length_error::`vftable'
	DD	FLAT:??_Elength_error@std@@UAEPAXI@Z
	DD	FLAT:?what@logic_error@std@@UBEPBDXZ
CONST	ENDS
;	COMDAT ??_R4length_error@std@@6B@
rdata$r	SEGMENT
??_R4length_error@std@@6B@ DD 00H			; std::length_error::`RTTI Complete Object Locator'
	DD	00H
	DD	00H
	DD	FLAT:??_R0?AVlength_error@std@@@8
	DD	FLAT:??_R3length_error@std@@8
rdata$r	ENDS
;	COMDAT ??_R3length_error@std@@8
rdata$r	SEGMENT
??_R3length_error@std@@8 DD 00H				; std::length_error::`RTTI Class Hierarchy Descriptor'
	DD	00H
	DD	03H
	DD	FLAT:??_R2length_error@std@@8
rdata$r	ENDS
;	COMDAT ??_R2length_error@std@@8
rdata$r	SEGMENT
??_R2length_error@std@@8 DD FLAT:??_R1A@?0A@A@length_error@std@@8 ; std::length_error::`RTTI Base Class Array'
	DD	FLAT:??_R1A@?0A@A@logic_error@std@@8
	DD	FLAT:??_R1A@?0A@A@exception@@8
rdata$r	ENDS
;	COMDAT ??_R1A@?0A@A@length_error@std@@8
rdata$r	SEGMENT
??_R1A@?0A@A@length_error@std@@8 DD FLAT:??_R0?AVlength_error@std@@@8 ; std::length_error::`RTTI Base Class Descriptor at (0,-1,0,0)'
	DD	02H
	DD	00H
	DD	0ffffffffH
	DD	00H
	DD	00H
rdata$r	ENDS
;	COMDAT ??_R1A@?0A@A@logic_error@std@@8
rdata$r	SEGMENT
??_R1A@?0A@A@logic_error@std@@8 DD FLAT:??_R0?AVlogic_error@std@@@8 ; std::logic_error::`RTTI Base Class Descriptor at (0,-1,0,0)'
	DD	01H
	DD	00H
	DD	0ffffffffH
	DD	00H
	DD	00H
rdata$r	ENDS
;	COMDAT ??_R1A@?0A@A@exception@@8
rdata$r	SEGMENT
??_R1A@?0A@A@exception@@8 DD FLAT:??_R0?AVexception@@@8	; exception::`RTTI Base Class Descriptor at (0,-1,0,0)'
	DD	00H
	DD	00H
	DD	0ffffffffH
	DD	00H
	DD	00H
; Function compile flags: /Odt /RTCsu
rdata$r	ENDS
;	COMDAT ??0length_error@std@@QAE@ABV01@@Z
_TEXT	SEGMENT
_this$ = -4						; size = 4
___that$ = 8						; size = 4
??0length_error@std@@QAE@ABV01@@Z PROC NEAR		; std::length_error::length_error, COMDAT
; _this$ = ecx
  00000	55		 push	 ebp
  00001	8b ec		 mov	 ebp, esp
  00003	51		 push	 ecx
  00004	c7 45 fc cc cc
	cc cc		 mov	 DWORD PTR [ebp-4], -858993460 ; ccccccccH
  0000b	89 4d fc	 mov	 DWORD PTR _this$[ebp], ecx
  0000e	8b 45 08	 mov	 eax, DWORD PTR ___that$[ebp]
  00011	50		 push	 eax
  00012	8b 4d fc	 mov	 ecx, DWORD PTR _this$[ebp]
  00015	e8 00 00 00 00	 call	 ??0logic_error@std@@QAE@ABV01@@Z
  0001a	8b 4d fc	 mov	 ecx, DWORD PTR _this$[ebp]
  0001d	c7 01 00 00 00
	00		 mov	 DWORD PTR [ecx], OFFSET FLAT:??_7length_error@std@@6B@
  00023	8b 45 fc	 mov	 eax, DWORD PTR _this$[ebp]
  00026	83 c4 04	 add	 esp, 4
  00029	3b ec		 cmp	 ebp, esp
  0002b	e8 00 00 00 00	 call	 __RTC_CheckEsp
  00030	8b e5		 mov	 esp, ebp
  00032	5d		 pop	 ebp
  00033	c2 04 00	 ret	 4
??0length_error@std@@QAE@ABV01@@Z ENDP			; std::length_error::length_error
; Function compile flags: /Odt /RTCsu
_TEXT	ENDS
;	COMDAT ?_Color@?$_Tree@V?$_Tmap_traits@PAUHWND__@@UWndMoveData@@U?$less@PAUHWND__@@@std@@V?$allocator@U?$pair@QAUHWND__@@UWndMoveData@@@std@@@4@$0A@@std@@@std@@KAAADPAU_Node@?$_Tree_nod@V?$_Tmap_traits@PAUHWND__@@UWndMoveData@@U?$less@PAUHWND__@@@std@@V?$allocator@U?$pair@QAUHWND__@@UWndMoveData@@@std@@@4@$0A@@std@@@2@@Z
_TEXT	SEGMENT
__Pnode$ = 8						; size = 4
?_Color@?$_Tree@V?$_Tmap_traits@PAUHWND__@@UWndMoveData@@U?$less@PAUHWND__@@@std@@V?$allocator@U?$pair@QAUHWND__@@UWndMoveData@@@std@@@4@$0A@@std@@@std@@KAAADPAU_Node@?$_Tree_nod@V?$_Tmap_traits@PAUHWND__@@UWndMoveData@@U?$less@PAUHWND__@@@std@@V?$allocator@U?$pair@QAUHWND__@@UWndMoveData@@@std@@@4@$0A@@std@@@2@@Z PROC NEAR ; std::_Tree<std::_Tmap_traits<HWND__ *,WndMoveData,std::less<HWND__ *>,std::allocator<std::pair<HWND__ * const,WndMoveData> >,0> >::_Color, COMDAT

; 131  : 		{	// return reference to color in node

  00000	55		 push	 ebp
  00001	8b ec		 mov	 ebp, esp

; 132  : 		return ((_Charref)(*_Pnode)._Color);

  00003	8b 45 08	 mov	 eax, DWORD PTR __Pnode$[ebp]
  00006	83 c0 2c	 add	 eax, 44			; 0000002cH

; 133  : 		}

  00009	5d		 pop	 ebp
  0000a	c3		 ret	 0
?_Color@?$_Tree@V?$_Tmap_traits@PAUHWND__@@UWndMoveData@@U?$less@PAUHWND__@@@std@@V?$allocator@U?$pair@QAUHWND__@@UWndMoveData@@@std@@@4@$0A@@std@@@std@@KAAADPAU_Node@?$_Tree_nod@V?$_Tmap_traits@PAUHWND__@@UWndMoveData@@U?$less@PAUHWND__@@@std@@V?$allocator@U?$pair@QAUHWND__@@UWndMoveData@@@std@@@4@$0A@@std@@@2@@Z ENDP ; std::_Tree<std::_Tmap_traits<HWND__ *,WndMoveData,std::less<HWND__ *>,std::allocator<std::pair<HWND__ * const,WndMoveData> >,0> >::_Color
_TEXT	ENDS
PUBLIC	?max_size@?$allocator@U?$pair@QAUHWND__@@UWndMoveData@@@std@@@std@@QBEIXZ ; std::allocator<std::pair<HWND__ * const,WndMoveData> >::max_size
; Function compile flags: /Odt /RTCsu
;	COMDAT ?max_size@?$_Tree@V?$_Tmap_traits@PAUHWND__@@UWndMoveData@@U?$less@PAUHWND__@@@std@@V?$allocator@U?$pair@QAUHWND__@@UWndMoveData@@@std@@@4@$0A@@std@@@std@@QBEIXZ
_TEXT	SEGMENT
_this$ = -4						; size = 4
?max_size@?$_Tree@V?$_Tmap_traits@PAUHWND__@@UWndMoveData@@U?$less@PAUHWND__@@@std@@V?$allocator@U?$pair@QAUHWND__@@UWndMoveData@@@std@@@4@$0A@@std@@@std@@QBEIXZ PROC NEAR ; std::_Tree<std::_Tmap_traits<HWND__ *,WndMoveData,std::less<HWND__ *>,std::allocator<std::pair<HWND__ * const,WndMoveData> >,0> >::max_size, COMDAT
; _this$ = ecx

; 452  : 		{	// return maximum possible length of sequence

  00000	55		 push	 ebp
  00001	8b ec		 mov	 ebp, esp
  00003	51		 push	 ecx
  00004	c7 45 fc cc cc
	cc cc		 mov	 DWORD PTR [ebp-4], -858993460 ; ccccccccH
  0000b	89 4d fc	 mov	 DWORD PTR _this$[ebp], ecx

; 453  : 		return (this->_Alval.max_size());

  0000e	8b 4d fc	 mov	 ecx, DWORD PTR _this$[ebp]
  00011	83 c1 03	 add	 ecx, 3
  00014	e8 00 00 00 00	 call	 ?max_size@?$allocator@U?$pair@QAUHWND__@@UWndMoveData@@@std@@@std@@QBEIXZ ; std::allocator<std::pair<HWND__ * const,WndMoveData> >::max_size

; 454  : 		}

  00019	83 c4 04	 add	 esp, 4
  0001c	3b ec		 cmp	 ebp, esp
  0001e	e8 00 00 00 00	 call	 __RTC_CheckEsp
  00023	8b e5		 mov	 esp, ebp
  00025	5d		 pop	 ebp
  00026	c3		 ret	 0
?max_size@?$_Tree@V?$_Tmap_traits@PAUHWND__@@UWndMoveData@@U?$less@PAUHWND__@@@std@@V?$allocator@U?$pair@QAUHWND__@@UWndMoveData@@@std@@@4@$0A@@std@@@std@@QBEIXZ ENDP ; std::_Tree<std::_Tmap_traits<HWND__ *,WndMoveData,std::less<HWND__ *>,std::allocator<std::pair<HWND__ * const,WndMoveData> >,0> >::max_size
_TEXT	ENDS
PUBLIC	?_Max@?$_Tree@V?$_Tmap_traits@PAUHWND__@@UWndMoveData@@U?$less@PAUHWND__@@@std@@V?$allocator@U?$pair@QAUHWND__@@UWndMoveData@@@std@@@4@$0A@@std@@@std@@KAPAU_Node@?$_Tree_nod@V?$_Tmap_traits@PAUHWND__@@UWndMoveData@@U?$less@PAUHWND__@@@std@@V?$allocator@U?$pair@QAUHWND__@@UWndMoveData@@@std@@@4@$0A@@std@@@2@PAU342@@Z ; std::_Tree<std::_Tmap_traits<HWND__ *,WndMoveData,std::less<HWND__ *>,std::allocator<std::pair<HWND__ * const,WndMoveData> >,0> >::_Max
PUBLIC	?_Min@?$_Tree@V?$_Tmap_traits@PAUHWND__@@UWndMoveData@@U?$less@PAUHWND__@@@std@@V?$allocator@U?$pair@QAUHWND__@@UWndMoveData@@@std@@@4@$0A@@std@@@std@@KAPAU_Node@?$_Tree_nod@V?$_Tmap_traits@PAUHWND__@@UWndMoveData@@U?$less@PAUHWND__@@@std@@V?$allocator@U?$pair@QAUHWND__@@UWndMoveData@@@std@@@4@$0A@@std@@@2@PAU342@@Z ; std::_Tree<std::_Tmap_traits<HWND__ *,WndMoveData,std::less<HWND__ *>,std::allocator<std::pair<HWND__ * const,WndMoveData> >,0> >::_Min
PUBLIC	__TI3?AVout_of_range@std@@
PUBLIC	__CTA3?AVout_of_range@std@@
PUBLIC	??_R0?AVout_of_range@std@@@8			; std::out_of_range `RTTI Type Descriptor'
PUBLIC	__CT??_R0?AVout_of_range@std@@@8??0out_of_range@std@@QAE@ABV01@@Z40
PUBLIC	??_C@_0BM@PAPJHAGI@invalid?5map?1set?$DMT?$DO?5iterator?$AA@ ; `string'
PUBLIC	??$swap@D@std@@YAXAAD0@Z			; std::swap<char>
PUBLIC	??0out_of_range@std@@QAE@ABV?$basic_string@DU?$char_traits@D@std@@V?$allocator@D@2@@1@@Z ; std::out_of_range::out_of_range
PUBLIC	??1out_of_range@std@@UAE@XZ			; std::out_of_range::~out_of_range
PUBLIC	??0out_of_range@std@@QAE@ABV01@@Z		; std::out_of_range::out_of_range
;	COMDAT xdata$x
xdata$x	SEGMENT
$T189824 DD	0ffffffffH
	DD	FLAT:$L189820
$T189822 DD	019930520H
	DD	01H
	DD	FLAT:$T189824
	DD	2 DUP(00H)
	DD	2 DUP(00H)
xdata$x	ENDS
;	COMDAT ??_C@_0BM@PAPJHAGI@invalid?5map?1set?$DMT?$DO?5iterator?$AA@
CONST	SEGMENT
??_C@_0BM@PAPJHAGI@invalid?5map?1set?$DMT?$DO?5iterator?$AA@ DB 'invalid '
	DB	'map/set<T> iterator', 00H			; `string'
CONST	ENDS
;	COMDAT __TI3?AVout_of_range@std@@
xdata$x	SEGMENT
__TI3?AVout_of_range@std@@ DD 00H
	DD	FLAT:??1out_of_range@std@@UAE@XZ
	DD	00H
	DD	FLAT:__CTA3?AVout_of_range@std@@
xdata$x	ENDS
;	COMDAT __CTA3?AVout_of_range@std@@
xdata$x	SEGMENT
__CTA3?AVout_of_range@std@@ DD 03H
	DD	FLAT:__CT??_R0?AVout_of_range@std@@@8??0out_of_range@std@@QAE@ABV01@@Z40
	DD	FLAT:__CT??_R0?AVlogic_error@std@@@8??0logic_error@std@@QAE@ABV01@@Z40
	DD	FLAT:__CT??_R0?AVexception@@@8??0exception@@QAE@ABV0@@Z12
xdata$x	ENDS
;	COMDAT __CT??_R0?AVout_of_range@std@@@8??0out_of_range@std@@QAE@ABV01@@Z40
xdata$x	SEGMENT
__CT??_R0?AVout_of_range@std@@@8??0out_of_range@std@@QAE@ABV01@@Z40 DD 00H
	DD	FLAT:??_R0?AVout_of_range@std@@@8
	DD	00H
	DD	0ffffffffH
	ORG $+4
	DD	028H
	DD	FLAT:??0out_of_range@std@@QAE@ABV01@@Z
xdata$x	ENDS
;	COMDAT ??_R0?AVout_of_range@std@@@8
_DATA	SEGMENT
??_R0?AVout_of_range@std@@@8 DD FLAT:??_7type_info@@6B@	; std::out_of_range `RTTI Type Descriptor'
	DD	00H
	DB	'.?AVout_of_range@std@@', 00H
; Function compile flags: /Odt /RTCsu
_DATA	ENDS
;	COMDAT ?erase@?$_Tree@V?$_Tmap_traits@PAUHWND__@@UWndMoveData@@U?$less@PAUHWND__@@@std@@V?$allocator@U?$pair@QAUHWND__@@UWndMoveData@@@std@@@4@$0A@@std@@@std@@QAE?AViterator@12@V312@@Z
_TEXT	SEGMENT
tv177 = -108						; size = 4
tv165 = -104						; size = 4
$T189815 = -100						; size = 28
$T189814 = -72						; size = 40
__Pnode$ = -32						; size = 4
__Fixnodeparent$ = -28					; size = 4
__Fixnode$ = -24					; size = 4
__Erasednode$ = -20					; size = 4
_this$ = -16						; size = 4
__$EHRec$ = -12						; size = 12
___$ReturnUdt$ = 8					; size = 4
__Where$ = 12						; size = 4
?erase@?$_Tree@V?$_Tmap_traits@PAUHWND__@@UWndMoveData@@U?$less@PAUHWND__@@@std@@V?$allocator@U?$pair@QAUHWND__@@UWndMoveData@@@std@@@4@$0A@@std@@@std@@QAE?AViterator@12@V312@@Z PROC NEAR ; std::_Tree<std::_Tmap_traits<HWND__ *,WndMoveData,std::less<HWND__ *>,std::allocator<std::pair<HWND__ * const,WndMoveData> >,0> >::erase, COMDAT
; _this$ = ecx

; 590  : 		{	// erase element at _Where

  00000	55		 push	 ebp
  00001	8b ec		 mov	 ebp, esp
  00003	6a ff		 push	 -1
  00005	68 00 00 00 00	 push	 __ehhandler$?erase@?$_Tree@V?$_Tmap_traits@PAUHWND__@@UWndMoveData@@U?$less@PAUHWND__@@@std@@V?$allocator@U?$pair@QAUHWND__@@UWndMoveData@@@std@@@4@$0A@@std@@@std@@QAE?AViterator@12@V312@@Z
  0000a	64 a1 00 00 00
	00		 mov	 eax, DWORD PTR fs:__except_list
  00010	50		 push	 eax
  00011	64 89 25 00 00
	00 00		 mov	 DWORD PTR fs:__except_list, esp
  00018	83 ec 60	 sub	 esp, 96			; 00000060H
  0001b	56		 push	 esi
  0001c	57		 push	 edi
  0001d	51		 push	 ecx
  0001e	8d 7d 94	 lea	 edi, DWORD PTR [ebp-108]
  00021	b9 18 00 00 00	 mov	 ecx, 24			; 00000018H
  00026	b8 cc cc cc cc	 mov	 eax, -858993460		; ccccccccH
  0002b	f3 ab		 rep stosd
  0002d	59		 pop	 ecx
  0002e	89 4d f0	 mov	 DWORD PTR _this$[ebp], ecx

; 591  : 		if (_Isnil(_Where._Mynode()))

  00031	8d 4d 0c	 lea	 ecx, DWORD PTR __Where$[ebp]
  00034	e8 00 00 00 00	 call	 ?_Mynode@const_iterator@?$_Tree@V?$_Tmap_traits@PAUHWND__@@UWndMoveData@@U?$less@PAUHWND__@@@std@@V?$allocator@U?$pair@QAUHWND__@@UWndMoveData@@@std@@@4@$0A@@std@@@std@@QBEPAU_Node@?$_Tree_nod@V?$_Tmap_traits@PAUHWND__@@UWndMoveData@@U?$less@PAUHWND__@@@std@@V?$allocator@U?$pair@QAUHWND__@@UWndMoveData@@@std@@@4@$0A@@std@@@3@XZ ; std::_Tree<std::_Tmap_traits<HWND__ *,WndMoveData,std::less<HWND__ *>,std::allocator<std::pair<HWND__ * const,WndMoveData> >,0> >::const_iterator::_Mynode
  00039	50		 push	 eax
  0003a	e8 00 00 00 00	 call	 ?_Isnil@?$_Tree@V?$_Tmap_traits@PAUHWND__@@UWndMoveData@@U?$less@PAUHWND__@@@std@@V?$allocator@U?$pair@QAUHWND__@@UWndMoveData@@@std@@@4@$0A@@std@@@std@@KAAADPAU_Node@?$_Tree_nod@V?$_Tmap_traits@PAUHWND__@@UWndMoveData@@U?$less@PAUHWND__@@@std@@V?$allocator@U?$pair@QAUHWND__@@UWndMoveData@@@std@@@4@$0A@@std@@@2@@Z ; std::_Tree<std::_Tmap_traits<HWND__ *,WndMoveData,std::less<HWND__ *>,std::allocator<std::pair<HWND__ * const,WndMoveData> >,0> >::_Isnil
  0003f	83 c4 04	 add	 esp, 4
  00042	0f be 00	 movsx	 eax, BYTE PTR [eax]
  00045	85 c0		 test	 eax, eax
  00047	74 38		 je	 SHORT $L188883

; 592  : 			_THROW(out_of_range, "invalid map/set<T> iterator");

  00049	8b f4		 mov	 esi, esp
  0004b	68 00 00 00 00	 push	 OFFSET FLAT:??_C@_0BM@PAPJHAGI@invalid?5map?1set?$DMT?$DO?5iterator?$AA@
  00050	8d 4d 9c	 lea	 ecx, DWORD PTR $T189815[ebp]
  00053	ff 15 00 00 00
	00		 call	 DWORD PTR __imp_??0?$basic_string@DU?$char_traits@D@std@@V?$allocator@D@2@@std@@QAE@PBD@Z
  00059	3b f4		 cmp	 esi, esp
  0005b	e8 00 00 00 00	 call	 __RTC_CheckEsp
  00060	c7 45 fc 00 00
	00 00		 mov	 DWORD PTR __$EHRec$[ebp+8], 0
  00067	8d 4d 9c	 lea	 ecx, DWORD PTR $T189815[ebp]
  0006a	51		 push	 ecx
  0006b	8d 4d b8	 lea	 ecx, DWORD PTR $T189814[ebp]
  0006e	e8 00 00 00 00	 call	 ??0out_of_range@std@@QAE@ABV?$basic_string@DU?$char_traits@D@std@@V?$allocator@D@2@@1@@Z ; std::out_of_range::out_of_range
  00073	68 00 00 00 00	 push	 OFFSET FLAT:__TI3?AVout_of_range@std@@
  00078	8d 55 b8	 lea	 edx, DWORD PTR $T189814[ebp]
  0007b	52		 push	 edx
  0007c	e8 00 00 00 00	 call	 __CxxThrowException@8
$L188883:

; 593  : 		_Nodeptr _Erasednode = _Where._Mynode();	// node to erase

  00081	8d 4d 0c	 lea	 ecx, DWORD PTR __Where$[ebp]
  00084	e8 00 00 00 00	 call	 ?_Mynode@const_iterator@?$_Tree@V?$_Tmap_traits@PAUHWND__@@UWndMoveData@@U?$less@PAUHWND__@@@std@@V?$allocator@U?$pair@QAUHWND__@@UWndMoveData@@@std@@@4@$0A@@std@@@std@@QBEPAU_Node@?$_Tree_nod@V?$_Tmap_traits@PAUHWND__@@UWndMoveData@@U?$less@PAUHWND__@@@std@@V?$allocator@U?$pair@QAUHWND__@@UWndMoveData@@@std@@@4@$0A@@std@@@3@XZ ; std::_Tree<std::_Tmap_traits<HWND__ *,WndMoveData,std::less<HWND__ *>,std::allocator<std::pair<HWND__ * const,WndMoveData> >,0> >::const_iterator::_Mynode
  00089	89 45 ec	 mov	 DWORD PTR __Erasednode$[ebp], eax

; 594  : 		++_Where;	// save successor iterator for return

  0008c	8d 4d 0c	 lea	 ecx, DWORD PTR __Where$[ebp]
  0008f	e8 00 00 00 00	 call	 ??Eiterator@?$_Tree@V?$_Tmap_traits@PAUHWND__@@UWndMoveData@@U?$less@PAUHWND__@@@std@@V?$allocator@U?$pair@QAUHWND__@@UWndMoveData@@@std@@@4@$0A@@std@@@std@@QAEAAV012@XZ ; std::_Tree<std::_Tmap_traits<HWND__ *,WndMoveData,std::less<HWND__ *>,std::allocator<std::pair<HWND__ * const,WndMoveData> >,0> >::iterator::operator++

; 595  : 
; 596  : 		_Nodeptr _Fixnode;	// the node to recolor as needed
; 597  : 		_Nodeptr _Fixnodeparent;	// parent of _Fixnode (which may be nil)
; 598  : 		_Nodeptr _Pnode = _Erasednode;

  00094	8b 45 ec	 mov	 eax, DWORD PTR __Erasednode$[ebp]
  00097	89 45 e0	 mov	 DWORD PTR __Pnode$[ebp], eax

; 599  : 
; 600  : 		if (_Isnil(_Left(_Pnode)))

  0009a	8b 4d e0	 mov	 ecx, DWORD PTR __Pnode$[ebp]
  0009d	51		 push	 ecx
  0009e	e8 00 00 00 00	 call	 ?_Left@?$_Tree@V?$_Tmap_traits@PAUHWND__@@UWndMoveData@@U?$less@PAUHWND__@@@std@@V?$allocator@U?$pair@QAUHWND__@@UWndMoveData@@@std@@@4@$0A@@std@@@std@@KAAAPAU_Node@?$_Tree_nod@V?$_Tmap_traits@PAUHWND__@@UWndMoveData@@U?$less@PAUHWND__@@@std@@V?$allocator@U?$pair@QAUHWND__@@UWndMoveData@@@std@@@4@$0A@@std@@@2@PAU342@@Z ; std::_Tree<std::_Tmap_traits<HWND__ *,WndMoveData,std::less<HWND__ *>,std::allocator<std::pair<HWND__ * const,WndMoveData> >,0> >::_Left
  000a3	83 c4 04	 add	 esp, 4
  000a6	8b 10		 mov	 edx, DWORD PTR [eax]
  000a8	52		 push	 edx
  000a9	e8 00 00 00 00	 call	 ?_Isnil@?$_Tree@V?$_Tmap_traits@PAUHWND__@@UWndMoveData@@U?$less@PAUHWND__@@@std@@V?$allocator@U?$pair@QAUHWND__@@UWndMoveData@@@std@@@4@$0A@@std@@@std@@KAAADPAU_Node@?$_Tree_nod@V?$_Tmap_traits@PAUHWND__@@UWndMoveData@@U?$less@PAUHWND__@@@std@@V?$allocator@U?$pair@QAUHWND__@@UWndMoveData@@@std@@@4@$0A@@std@@@2@@Z ; std::_Tree<std::_Tmap_traits<HWND__ *,WndMoveData,std::less<HWND__ *>,std::allocator<std::pair<HWND__ * const,WndMoveData> >,0> >::_Isnil
  000ae	83 c4 04	 add	 esp, 4
  000b1	0f be 00	 movsx	 eax, BYTE PTR [eax]
  000b4	85 c0		 test	 eax, eax
  000b6	74 13		 je	 SHORT $L188891

; 601  : 			_Fixnode = _Right(_Pnode);	// must stitch up right subtree

  000b8	8b 4d e0	 mov	 ecx, DWORD PTR __Pnode$[ebp]
  000bb	51		 push	 ecx
  000bc	e8 00 00 00 00	 call	 ?_Right@?$_Tree@V?$_Tmap_traits@PAUHWND__@@UWndMoveData@@U?$less@PAUHWND__@@@std@@V?$allocator@U?$pair@QAUHWND__@@UWndMoveData@@@std@@@4@$0A@@std@@@std@@KAAAPAU_Node@?$_Tree_nod@V?$_Tmap_traits@PAUHWND__@@UWndMoveData@@U?$less@PAUHWND__@@@std@@V?$allocator@U?$pair@QAUHWND__@@UWndMoveData@@@std@@@4@$0A@@std@@@2@PAU342@@Z ; std::_Tree<std::_Tmap_traits<HWND__ *,WndMoveData,std::less<HWND__ *>,std::allocator<std::pair<HWND__ * const,WndMoveData> >,0> >::_Right
  000c1	83 c4 04	 add	 esp, 4
  000c4	8b 10		 mov	 edx, DWORD PTR [eax]
  000c6	89 55 e8	 mov	 DWORD PTR __Fixnode$[ebp], edx

; 602  : 		else if (_Isnil(_Right(_Pnode)))

  000c9	eb 4d		 jmp	 SHORT $L188892
$L188891:
  000cb	8b 45 e0	 mov	 eax, DWORD PTR __Pnode$[ebp]
  000ce	50		 push	 eax
  000cf	e8 00 00 00 00	 call	 ?_Right@?$_Tree@V?$_Tmap_traits@PAUHWND__@@UWndMoveData@@U?$less@PAUHWND__@@@std@@V?$allocator@U?$pair@QAUHWND__@@UWndMoveData@@@std@@@4@$0A@@std@@@std@@KAAAPAU_Node@?$_Tree_nod@V?$_Tmap_traits@PAUHWND__@@UWndMoveData@@U?$less@PAUHWND__@@@std@@V?$allocator@U?$pair@QAUHWND__@@UWndMoveData@@@std@@@4@$0A@@std@@@2@PAU342@@Z ; std::_Tree<std::_Tmap_traits<HWND__ *,WndMoveData,std::less<HWND__ *>,std::allocator<std::pair<HWND__ * const,WndMoveData> >,0> >::_Right
  000d4	83 c4 04	 add	 esp, 4
  000d7	8b 08		 mov	 ecx, DWORD PTR [eax]
  000d9	51		 push	 ecx
  000da	e8 00 00 00 00	 call	 ?_Isnil@?$_Tree@V?$_Tmap_traits@PAUHWND__@@UWndMoveData@@U?$less@PAUHWND__@@@std@@V?$allocator@U?$pair@QAUHWND__@@UWndMoveData@@@std@@@4@$0A@@std@@@std@@KAAADPAU_Node@?$_Tree_nod@V?$_Tmap_traits@PAUHWND__@@UWndMoveData@@U?$less@PAUHWND__@@@std@@V?$allocator@U?$pair@QAUHWND__@@UWndMoveData@@@std@@@4@$0A@@std@@@2@@Z ; std::_Tree<std::_Tmap_traits<HWND__ *,WndMoveData,std::less<HWND__ *>,std::allocator<std::pair<HWND__ * const,WndMoveData> >,0> >::_Isnil
  000df	83 c4 04	 add	 esp, 4
  000e2	0f be 10	 movsx	 edx, BYTE PTR [eax]
  000e5	85 d2		 test	 edx, edx
  000e7	74 13		 je	 SHORT $L188893

; 603  : 			_Fixnode = _Left(_Pnode);	// must stitch up left subtree

  000e9	8b 45 e0	 mov	 eax, DWORD PTR __Pnode$[ebp]
  000ec	50		 push	 eax
  000ed	e8 00 00 00 00	 call	 ?_Left@?$_Tree@V?$_Tmap_traits@PAUHWND__@@UWndMoveData@@U?$less@PAUHWND__@@@std@@V?$allocator@U?$pair@QAUHWND__@@UWndMoveData@@@std@@@4@$0A@@std@@@std@@KAAAPAU_Node@?$_Tree_nod@V?$_Tmap_traits@PAUHWND__@@UWndMoveData@@U?$less@PAUHWND__@@@std@@V?$allocator@U?$pair@QAUHWND__@@UWndMoveData@@@std@@@4@$0A@@std@@@2@PAU342@@Z ; std::_Tree<std::_Tmap_traits<HWND__ *,WndMoveData,std::less<HWND__ *>,std::allocator<std::pair<HWND__ * const,WndMoveData> >,0> >::_Left
  000f2	83 c4 04	 add	 esp, 4
  000f5	8b 08		 mov	 ecx, DWORD PTR [eax]
  000f7	89 4d e8	 mov	 DWORD PTR __Fixnode$[ebp], ecx

; 604  : 		else

  000fa	eb 1c		 jmp	 SHORT $L188892
$L188893:

; 605  : 			{	// two subtrees, must lift successor node to replace erased
; 606  : 			_Pnode = _Where._Mynode();	// _Pnode is successor node

  000fc	8d 4d 0c	 lea	 ecx, DWORD PTR __Where$[ebp]
  000ff	e8 00 00 00 00	 call	 ?_Mynode@const_iterator@?$_Tree@V?$_Tmap_traits@PAUHWND__@@UWndMoveData@@U?$less@PAUHWND__@@@std@@V?$allocator@U?$pair@QAUHWND__@@UWndMoveData@@@std@@@4@$0A@@std@@@std@@QBEPAU_Node@?$_Tree_nod@V?$_Tmap_traits@PAUHWND__@@UWndMoveData@@U?$less@PAUHWND__@@@std@@V?$allocator@U?$pair@QAUHWND__@@UWndMoveData@@@std@@@4@$0A@@std@@@3@XZ ; std::_Tree<std::_Tmap_traits<HWND__ *,WndMoveData,std::less<HWND__ *>,std::allocator<std::pair<HWND__ * const,WndMoveData> >,0> >::const_iterator::_Mynode
  00104	89 45 e0	 mov	 DWORD PTR __Pnode$[ebp], eax

; 607  : 			_Fixnode = _Right(_Pnode);	// _Fixnode is its only subtree

  00107	8b 55 e0	 mov	 edx, DWORD PTR __Pnode$[ebp]
  0010a	52		 push	 edx
  0010b	e8 00 00 00 00	 call	 ?_Right@?$_Tree@V?$_Tmap_traits@PAUHWND__@@UWndMoveData@@U?$less@PAUHWND__@@@std@@V?$allocator@U?$pair@QAUHWND__@@UWndMoveData@@@std@@@4@$0A@@std@@@std@@KAAAPAU_Node@?$_Tree_nod@V?$_Tmap_traits@PAUHWND__@@UWndMoveData@@U?$less@PAUHWND__@@@std@@V?$allocator@U?$pair@QAUHWND__@@UWndMoveData@@@std@@@4@$0A@@std@@@2@PAU342@@Z ; std::_Tree<std::_Tmap_traits<HWND__ *,WndMoveData,std::less<HWND__ *>,std::allocator<std::pair<HWND__ * const,WndMoveData> >,0> >::_Right
  00110	83 c4 04	 add	 esp, 4
  00113	8b 00		 mov	 eax, DWORD PTR [eax]
  00115	89 45 e8	 mov	 DWORD PTR __Fixnode$[ebp], eax
$L188892:

; 608  : 			}
; 609  : 
; 610  : 		if (_Pnode == _Erasednode)

  00118	8b 4d e0	 mov	 ecx, DWORD PTR __Pnode$[ebp]
  0011b	3b 4d ec	 cmp	 ecx, DWORD PTR __Erasednode$[ebp]
  0011e	0f 85 1b 01 00
	00		 jne	 $L188895

; 611  : 			{	// at most one subtree, relink it
; 612  : 			_Fixnodeparent = _Parent(_Erasednode);

  00124	8b 55 ec	 mov	 edx, DWORD PTR __Erasednode$[ebp]
  00127	52		 push	 edx
  00128	e8 00 00 00 00	 call	 ?_Parent@?$_Tree@V?$_Tmap_traits@PAUHWND__@@UWndMoveData@@U?$less@PAUHWND__@@@std@@V?$allocator@U?$pair@QAUHWND__@@UWndMoveData@@@std@@@4@$0A@@std@@@std@@KAAAPAU_Node@?$_Tree_nod@V?$_Tmap_traits@PAUHWND__@@UWndMoveData@@U?$less@PAUHWND__@@@std@@V?$allocator@U?$pair@QAUHWND__@@UWndMoveData@@@std@@@4@$0A@@std@@@2@PAU342@@Z ; std::_Tree<std::_Tmap_traits<HWND__ *,WndMoveData,std::less<HWND__ *>,std::allocator<std::pair<HWND__ * const,WndMoveData> >,0> >::_Parent
  0012d	83 c4 04	 add	 esp, 4
  00130	8b 00		 mov	 eax, DWORD PTR [eax]
  00132	89 45 e4	 mov	 DWORD PTR __Fixnodeparent$[ebp], eax

; 613  : 			if (!_Isnil(_Fixnode))

  00135	8b 4d e8	 mov	 ecx, DWORD PTR __Fixnode$[ebp]
  00138	51		 push	 ecx
  00139	e8 00 00 00 00	 call	 ?_Isnil@?$_Tree@V?$_Tmap_traits@PAUHWND__@@UWndMoveData@@U?$less@PAUHWND__@@@std@@V?$allocator@U?$pair@QAUHWND__@@UWndMoveData@@@std@@@4@$0A@@std@@@std@@KAAADPAU_Node@?$_Tree_nod@V?$_Tmap_traits@PAUHWND__@@UWndMoveData@@U?$less@PAUHWND__@@@std@@V?$allocator@U?$pair@QAUHWND__@@UWndMoveData@@@std@@@4@$0A@@std@@@2@@Z ; std::_Tree<std::_Tmap_traits<HWND__ *,WndMoveData,std::less<HWND__ *>,std::allocator<std::pair<HWND__ * const,WndMoveData> >,0> >::_Isnil
  0013e	83 c4 04	 add	 esp, 4
  00141	0f be 10	 movsx	 edx, BYTE PTR [eax]
  00144	85 d2		 test	 edx, edx
  00146	75 11		 jne	 SHORT $L188896

; 614  : 				_Parent(_Fixnode) = _Fixnodeparent;	// link up

  00148	8b 45 e8	 mov	 eax, DWORD PTR __Fixnode$[ebp]
  0014b	50		 push	 eax
  0014c	e8 00 00 00 00	 call	 ?_Parent@?$_Tree@V?$_Tmap_traits@PAUHWND__@@UWndMoveData@@U?$less@PAUHWND__@@@std@@V?$allocator@U?$pair@QAUHWND__@@UWndMoveData@@@std@@@4@$0A@@std@@@std@@KAAAPAU_Node@?$_Tree_nod@V?$_Tmap_traits@PAUHWND__@@UWndMoveData@@U?$less@PAUHWND__@@@std@@V?$allocator@U?$pair@QAUHWND__@@UWndMoveData@@@std@@@4@$0A@@std@@@2@PAU342@@Z ; std::_Tree<std::_Tmap_traits<HWND__ *,WndMoveData,std::less<HWND__ *>,std::allocator<std::pair<HWND__ * const,WndMoveData> >,0> >::_Parent
  00151	83 c4 04	 add	 esp, 4
  00154	8b 4d e4	 mov	 ecx, DWORD PTR __Fixnodeparent$[ebp]
  00157	89 08		 mov	 DWORD PTR [eax], ecx
$L188896:

; 615  : 
; 616  : 			if (_Root() == _Erasednode)

  00159	8b 4d f0	 mov	 ecx, DWORD PTR _this$[ebp]
  0015c	e8 00 00 00 00	 call	 ?_Root@?$_Tree@V?$_Tmap_traits@PAUHWND__@@UWndMoveData@@U?$less@PAUHWND__@@@std@@V?$allocator@U?$pair@QAUHWND__@@UWndMoveData@@@std@@@4@$0A@@std@@@std@@IAEAAPAU_Node@?$_Tree_nod@V?$_Tmap_traits@PAUHWND__@@UWndMoveData@@U?$less@PAUHWND__@@@std@@V?$allocator@U?$pair@QAUHWND__@@UWndMoveData@@@std@@@4@$0A@@std@@@2@XZ ; std::_Tree<std::_Tmap_traits<HWND__ *,WndMoveData,std::less<HWND__ *>,std::allocator<std::pair<HWND__ * const,WndMoveData> >,0> >::_Root
  00161	8b 10		 mov	 edx, DWORD PTR [eax]
  00163	3b 55 ec	 cmp	 edx, DWORD PTR __Erasednode$[ebp]
  00166	75 0f		 jne	 SHORT $L188897

; 617  : 				_Root() = _Fixnode;	// link down from root

  00168	8b 4d f0	 mov	 ecx, DWORD PTR _this$[ebp]
  0016b	e8 00 00 00 00	 call	 ?_Root@?$_Tree@V?$_Tmap_traits@PAUHWND__@@UWndMoveData@@U?$less@PAUHWND__@@@std@@V?$allocator@U?$pair@QAUHWND__@@UWndMoveData@@@std@@@4@$0A@@std@@@std@@IAEAAPAU_Node@?$_Tree_nod@V?$_Tmap_traits@PAUHWND__@@UWndMoveData@@U?$less@PAUHWND__@@@std@@V?$allocator@U?$pair@QAUHWND__@@UWndMoveData@@@std@@@4@$0A@@std@@@2@XZ ; std::_Tree<std::_Tmap_traits<HWND__ *,WndMoveData,std::less<HWND__ *>,std::allocator<std::pair<HWND__ * const,WndMoveData> >,0> >::_Root
  00170	8b 4d e8	 mov	 ecx, DWORD PTR __Fixnode$[ebp]
  00173	89 08		 mov	 DWORD PTR [eax], ecx

; 618  : 			else if (_Left(_Fixnodeparent) == _Erasednode)

  00175	eb 37		 jmp	 SHORT $L188898
$L188897:
  00177	8b 55 e4	 mov	 edx, DWORD PTR __Fixnodeparent$[ebp]
  0017a	52		 push	 edx
  0017b	e8 00 00 00 00	 call	 ?_Left@?$_Tree@V?$_Tmap_traits@PAUHWND__@@UWndMoveData@@U?$less@PAUHWND__@@@std@@V?$allocator@U?$pair@QAUHWND__@@UWndMoveData@@@std@@@4@$0A@@std@@@std@@KAAAPAU_Node@?$_Tree_nod@V?$_Tmap_traits@PAUHWND__@@UWndMoveData@@U?$less@PAUHWND__@@@std@@V?$allocator@U?$pair@QAUHWND__@@UWndMoveData@@@std@@@4@$0A@@std@@@2@PAU342@@Z ; std::_Tree<std::_Tmap_traits<HWND__ *,WndMoveData,std::less<HWND__ *>,std::allocator<std::pair<HWND__ * const,WndMoveData> >,0> >::_Left
  00180	83 c4 04	 add	 esp, 4
  00183	8b 00		 mov	 eax, DWORD PTR [eax]
  00185	3b 45 ec	 cmp	 eax, DWORD PTR __Erasednode$[ebp]
  00188	75 13		 jne	 SHORT $L188899

; 619  : 				_Left(_Fixnodeparent) = _Fixnode;	// link down to left

  0018a	8b 4d e4	 mov	 ecx, DWORD PTR __Fixnodeparent$[ebp]
  0018d	51		 push	 ecx
  0018e	e8 00 00 00 00	 call	 ?_Left@?$_Tree@V?$_Tmap_traits@PAUHWND__@@UWndMoveData@@U?$less@PAUHWND__@@@std@@V?$allocator@U?$pair@QAUHWND__@@UWndMoveData@@@std@@@4@$0A@@std@@@std@@KAAAPAU_Node@?$_Tree_nod@V?$_Tmap_traits@PAUHWND__@@UWndMoveData@@U?$less@PAUHWND__@@@std@@V?$allocator@U?$pair@QAUHWND__@@UWndMoveData@@@std@@@4@$0A@@std@@@2@PAU342@@Z ; std::_Tree<std::_Tmap_traits<HWND__ *,WndMoveData,std::less<HWND__ *>,std::allocator<std::pair<HWND__ * const,WndMoveData> >,0> >::_Left
  00193	83 c4 04	 add	 esp, 4
  00196	8b 55 e8	 mov	 edx, DWORD PTR __Fixnode$[ebp]
  00199	89 10		 mov	 DWORD PTR [eax], edx

; 620  : 			else

  0019b	eb 11		 jmp	 SHORT $L188898
$L188899:

; 621  : 				_Right(_Fixnodeparent) = _Fixnode;	// link down to right

  0019d	8b 45 e4	 mov	 eax, DWORD PTR __Fixnodeparent$[ebp]
  001a0	50		 push	 eax
  001a1	e8 00 00 00 00	 call	 ?_Right@?$_Tree@V?$_Tmap_traits@PAUHWND__@@UWndMoveData@@U?$less@PAUHWND__@@@std@@V?$allocator@U?$pair@QAUHWND__@@UWndMoveData@@@std@@@4@$0A@@std@@@std@@KAAAPAU_Node@?$_Tree_nod@V?$_Tmap_traits@PAUHWND__@@UWndMoveData@@U?$less@PAUHWND__@@@std@@V?$allocator@U?$pair@QAUHWND__@@UWndMoveData@@@std@@@4@$0A@@std@@@2@PAU342@@Z ; std::_Tree<std::_Tmap_traits<HWND__ *,WndMoveData,std::less<HWND__ *>,std::allocator<std::pair<HWND__ * const,WndMoveData> >,0> >::_Right
  001a6	83 c4 04	 add	 esp, 4
  001a9	8b 4d e8	 mov	 ecx, DWORD PTR __Fixnode$[ebp]
  001ac	89 08		 mov	 DWORD PTR [eax], ecx
$L188898:

; 622  : 
; 623  : 			if (_Lmost() == _Erasednode)

  001ae	8b 4d f0	 mov	 ecx, DWORD PTR _this$[ebp]
  001b1	e8 00 00 00 00	 call	 ?_Lmost@?$_Tree@V?$_Tmap_traits@PAUHWND__@@UWndMoveData@@U?$less@PAUHWND__@@@std@@V?$allocator@U?$pair@QAUHWND__@@UWndMoveData@@@std@@@4@$0A@@std@@@std@@IAEAAPAU_Node@?$_Tree_nod@V?$_Tmap_traits@PAUHWND__@@UWndMoveData@@U?$less@PAUHWND__@@@std@@V?$allocator@U?$pair@QAUHWND__@@UWndMoveData@@@std@@@4@$0A@@std@@@2@XZ ; std::_Tree<std::_Tmap_traits<HWND__ *,WndMoveData,std::less<HWND__ *>,std::allocator<std::pair<HWND__ * const,WndMoveData> >,0> >::_Lmost
  001b6	8b 10		 mov	 edx, DWORD PTR [eax]
  001b8	3b 55 ec	 cmp	 edx, DWORD PTR __Erasednode$[ebp]
  001bb	75 37		 jne	 SHORT $L188901

; 624  : 				_Lmost() = _Isnil(_Fixnode)
; 625  : 					? _Fixnodeparent	// smallest is parent of erased node
; 626  : 					: _Min(_Fixnode);	// smallest in relinked subtree

  001bd	8b 45 e8	 mov	 eax, DWORD PTR __Fixnode$[ebp]
  001c0	50		 push	 eax
  001c1	e8 00 00 00 00	 call	 ?_Isnil@?$_Tree@V?$_Tmap_traits@PAUHWND__@@UWndMoveData@@U?$less@PAUHWND__@@@std@@V?$allocator@U?$pair@QAUHWND__@@UWndMoveData@@@std@@@4@$0A@@std@@@std@@KAAADPAU_Node@?$_Tree_nod@V?$_Tmap_traits@PAUHWND__@@UWndMoveData@@U?$less@PAUHWND__@@@std@@V?$allocator@U?$pair@QAUHWND__@@UWndMoveData@@@std@@@4@$0A@@std@@@2@@Z ; std::_Tree<std::_Tmap_traits<HWND__ *,WndMoveData,std::less<HWND__ *>,std::allocator<std::pair<HWND__ * const,WndMoveData> >,0> >::_Isnil
  001c6	83 c4 04	 add	 esp, 4
  001c9	0f be 08	 movsx	 ecx, BYTE PTR [eax]
  001cc	85 c9		 test	 ecx, ecx
  001ce	74 08		 je	 SHORT $L189816
  001d0	8b 55 e4	 mov	 edx, DWORD PTR __Fixnodeparent$[ebp]
  001d3	89 55 98	 mov	 DWORD PTR tv165[ebp], edx
  001d6	eb 0f		 jmp	 SHORT $L189817
$L189816:
  001d8	8b 45 e8	 mov	 eax, DWORD PTR __Fixnode$[ebp]
  001db	50		 push	 eax
  001dc	e8 00 00 00 00	 call	 ?_Min@?$_Tree@V?$_Tmap_traits@PAUHWND__@@UWndMoveData@@U?$less@PAUHWND__@@@std@@V?$allocator@U?$pair@QAUHWND__@@UWndMoveData@@@std@@@4@$0A@@std@@@std@@KAPAU_Node@?$_Tree_nod@V?$_Tmap_traits@PAUHWND__@@UWndMoveData@@U?$less@PAUHWND__@@@std@@V?$allocator@U?$pair@QAUHWND__@@UWndMoveData@@@std@@@4@$0A@@std@@@2@PAU342@@Z ; std::_Tree<std::_Tmap_traits<HWND__ *,WndMoveData,std::less<HWND__ *>,std::allocator<std::pair<HWND__ * const,WndMoveData> >,0> >::_Min
  001e1	83 c4 04	 add	 esp, 4
  001e4	89 45 98	 mov	 DWORD PTR tv165[ebp], eax
$L189817:
  001e7	8b 4d f0	 mov	 ecx, DWORD PTR _this$[ebp]
  001ea	e8 00 00 00 00	 call	 ?_Lmost@?$_Tree@V?$_Tmap_traits@PAUHWND__@@UWndMoveData@@U?$less@PAUHWND__@@@std@@V?$allocator@U?$pair@QAUHWND__@@UWndMoveData@@@std@@@4@$0A@@std@@@std@@IAEAAPAU_Node@?$_Tree_nod@V?$_Tmap_traits@PAUHWND__@@UWndMoveData@@U?$less@PAUHWND__@@@std@@V?$allocator@U?$pair@QAUHWND__@@UWndMoveData@@@std@@@4@$0A@@std@@@2@XZ ; std::_Tree<std::_Tmap_traits<HWND__ *,WndMoveData,std::less<HWND__ *>,std::allocator<std::pair<HWND__ * const,WndMoveData> >,0> >::_Lmost
  001ef	8b 4d 98	 mov	 ecx, DWORD PTR tv165[ebp]
  001f2	89 08		 mov	 DWORD PTR [eax], ecx
$L188901:

; 627  : 
; 628  : 			if (_Rmost() == _Erasednode)

  001f4	8b 4d f0	 mov	 ecx, DWORD PTR _this$[ebp]
  001f7	e8 00 00 00 00	 call	 ?_Rmost@?$_Tree@V?$_Tmap_traits@PAUHWND__@@UWndMoveData@@U?$less@PAUHWND__@@@std@@V?$allocator@U?$pair@QAUHWND__@@UWndMoveData@@@std@@@4@$0A@@std@@@std@@IAEAAPAU_Node@?$_Tree_nod@V?$_Tmap_traits@PAUHWND__@@UWndMoveData@@U?$less@PAUHWND__@@@std@@V?$allocator@U?$pair@QAUHWND__@@UWndMoveData@@@std@@@4@$0A@@std@@@2@XZ ; std::_Tree<std::_Tmap_traits<HWND__ *,WndMoveData,std::less<HWND__ *>,std::allocator<std::pair<HWND__ * const,WndMoveData> >,0> >::_Rmost
  001fc	8b 10		 mov	 edx, DWORD PTR [eax]
  001fe	3b 55 ec	 cmp	 edx, DWORD PTR __Erasednode$[ebp]
  00201	75 37		 jne	 SHORT $L188902

; 629  : 				_Rmost() = _Isnil(_Fixnode)
; 630  : 					? _Fixnodeparent	// largest is parent of erased node
; 631  : 					: _Max(_Fixnode);	// largest in relinked subtree

  00203	8b 45 e8	 mov	 eax, DWORD PTR __Fixnode$[ebp]
  00206	50		 push	 eax
  00207	e8 00 00 00 00	 call	 ?_Isnil@?$_Tree@V?$_Tmap_traits@PAUHWND__@@UWndMoveData@@U?$less@PAUHWND__@@@std@@V?$allocator@U?$pair@QAUHWND__@@UWndMoveData@@@std@@@4@$0A@@std@@@std@@KAAADPAU_Node@?$_Tree_nod@V?$_Tmap_traits@PAUHWND__@@UWndMoveData@@U?$less@PAUHWND__@@@std@@V?$allocator@U?$pair@QAUHWND__@@UWndMoveData@@@std@@@4@$0A@@std@@@2@@Z ; std::_Tree<std::_Tmap_traits<HWND__ *,WndMoveData,std::less<HWND__ *>,std::allocator<std::pair<HWND__ * const,WndMoveData> >,0> >::_Isnil
  0020c	83 c4 04	 add	 esp, 4
  0020f	0f be 08	 movsx	 ecx, BYTE PTR [eax]
  00212	85 c9		 test	 ecx, ecx
  00214	74 08		 je	 SHORT $L189818
  00216	8b 55 e4	 mov	 edx, DWORD PTR __Fixnodeparent$[ebp]
  00219	89 55 94	 mov	 DWORD PTR tv177[ebp], edx
  0021c	eb 0f		 jmp	 SHORT $L189819
$L189818:
  0021e	8b 45 e8	 mov	 eax, DWORD PTR __Fixnode$[ebp]
  00221	50		 push	 eax
  00222	e8 00 00 00 00	 call	 ?_Max@?$_Tree@V?$_Tmap_traits@PAUHWND__@@UWndMoveData@@U?$less@PAUHWND__@@@std@@V?$allocator@U?$pair@QAUHWND__@@UWndMoveData@@@std@@@4@$0A@@std@@@std@@KAPAU_Node@?$_Tree_nod@V?$_Tmap_traits@PAUHWND__@@UWndMoveData@@U?$less@PAUHWND__@@@std@@V?$allocator@U?$pair@QAUHWND__@@UWndMoveData@@@std@@@4@$0A@@std@@@2@PAU342@@Z ; std::_Tree<std::_Tmap_traits<HWND__ *,WndMoveData,std::less<HWND__ *>,std::allocator<std::pair<HWND__ * const,WndMoveData> >,0> >::_Max
  00227	83 c4 04	 add	 esp, 4
  0022a	89 45 94	 mov	 DWORD PTR tv177[ebp], eax
$L189819:
  0022d	8b 4d f0	 mov	 ecx, DWORD PTR _this$[ebp]
  00230	e8 00 00 00 00	 call	 ?_Rmost@?$_Tree@V?$_Tmap_traits@PAUHWND__@@UWndMoveData@@U?$less@PAUHWND__@@@std@@V?$allocator@U?$pair@QAUHWND__@@UWndMoveData@@@std@@@4@$0A@@std@@@std@@IAEAAPAU_Node@?$_Tree_nod@V?$_Tmap_traits@PAUHWND__@@UWndMoveData@@U?$less@PAUHWND__@@@std@@V?$allocator@U?$pair@QAUHWND__@@UWndMoveData@@@std@@@4@$0A@@std@@@2@XZ ; std::_Tree<std::_Tmap_traits<HWND__ *,WndMoveData,std::less<HWND__ *>,std::allocator<std::pair<HWND__ * const,WndMoveData> >,0> >::_Rmost
  00235	8b 4d 94	 mov	 ecx, DWORD PTR tv177[ebp]
  00238	89 08		 mov	 DWORD PTR [eax], ecx
$L188902:

; 632  : 			}
; 633  : 		else

  0023a	e9 8e 01 00 00	 jmp	 $L188903
$L188895:

; 634  : 			{	// erased has two subtrees, _Pnode is successor to erased
; 635  : 			_Parent(_Left(_Erasednode)) = _Pnode;	// link left up

  0023f	8b 55 ec	 mov	 edx, DWORD PTR __Erasednode$[ebp]
  00242	52		 push	 edx
  00243	e8 00 00 00 00	 call	 ?_Left@?$_Tree@V?$_Tmap_traits@PAUHWND__@@UWndMoveData@@U?$less@PAUHWND__@@@std@@V?$allocator@U?$pair@QAUHWND__@@UWndMoveData@@@std@@@4@$0A@@std@@@std@@KAAAPAU_Node@?$_Tree_nod@V?$_Tmap_traits@PAUHWND__@@UWndMoveData@@U?$less@PAUHWND__@@@std@@V?$allocator@U?$pair@QAUHWND__@@UWndMoveData@@@std@@@4@$0A@@std@@@2@PAU342@@Z ; std::_Tree<std::_Tmap_traits<HWND__ *,WndMoveData,std::less<HWND__ *>,std::allocator<std::pair<HWND__ * const,WndMoveData> >,0> >::_Left
  00248	83 c4 04	 add	 esp, 4
  0024b	8b 00		 mov	 eax, DWORD PTR [eax]
  0024d	50		 push	 eax
  0024e	e8 00 00 00 00	 call	 ?_Parent@?$_Tree@V?$_Tmap_traits@PAUHWND__@@UWndMoveData@@U?$less@PAUHWND__@@@std@@V?$allocator@U?$pair@QAUHWND__@@UWndMoveData@@@std@@@4@$0A@@std@@@std@@KAAAPAU_Node@?$_Tree_nod@V?$_Tmap_traits@PAUHWND__@@UWndMoveData@@U?$less@PAUHWND__@@@std@@V?$allocator@U?$pair@QAUHWND__@@UWndMoveData@@@std@@@4@$0A@@std@@@2@PAU342@@Z ; std::_Tree<std::_Tmap_traits<HWND__ *,WndMoveData,std::less<HWND__ *>,std::allocator<std::pair<HWND__ * const,WndMoveData> >,0> >::_Parent
  00253	83 c4 04	 add	 esp, 4
  00256	8b 4d e0	 mov	 ecx, DWORD PTR __Pnode$[ebp]
  00259	89 08		 mov	 DWORD PTR [eax], ecx

; 636  : 			_Left(_Pnode) = _Left(_Erasednode);	// link successor down

  0025b	8b 55 ec	 mov	 edx, DWORD PTR __Erasednode$[ebp]
  0025e	52		 push	 edx
  0025f	e8 00 00 00 00	 call	 ?_Left@?$_Tree@V?$_Tmap_traits@PAUHWND__@@UWndMoveData@@U?$less@PAUHWND__@@@std@@V?$allocator@U?$pair@QAUHWND__@@UWndMoveData@@@std@@@4@$0A@@std@@@std@@KAAAPAU_Node@?$_Tree_nod@V?$_Tmap_traits@PAUHWND__@@UWndMoveData@@U?$less@PAUHWND__@@@std@@V?$allocator@U?$pair@QAUHWND__@@UWndMoveData@@@std@@@4@$0A@@std@@@2@PAU342@@Z ; std::_Tree<std::_Tmap_traits<HWND__ *,WndMoveData,std::less<HWND__ *>,std::allocator<std::pair<HWND__ * const,WndMoveData> >,0> >::_Left
  00264	83 c4 04	 add	 esp, 4
  00267	8b f0		 mov	 esi, eax
  00269	8b 45 e0	 mov	 eax, DWORD PTR __Pnode$[ebp]
  0026c	50		 push	 eax
  0026d	e8 00 00 00 00	 call	 ?_Left@?$_Tree@V?$_Tmap_traits@PAUHWND__@@UWndMoveData@@U?$less@PAUHWND__@@@std@@V?$allocator@U?$pair@QAUHWND__@@UWndMoveData@@@std@@@4@$0A@@std@@@std@@KAAAPAU_Node@?$_Tree_nod@V?$_Tmap_traits@PAUHWND__@@UWndMoveData@@U?$less@PAUHWND__@@@std@@V?$allocator@U?$pair@QAUHWND__@@UWndMoveData@@@std@@@4@$0A@@std@@@2@PAU342@@Z ; std::_Tree<std::_Tmap_traits<HWND__ *,WndMoveData,std::less<HWND__ *>,std::allocator<std::pair<HWND__ * const,WndMoveData> >,0> >::_Left
  00272	83 c4 04	 add	 esp, 4
  00275	8b 0e		 mov	 ecx, DWORD PTR [esi]
  00277	89 08		 mov	 DWORD PTR [eax], ecx

; 637  : 
; 638  : 			if (_Pnode == _Right(_Erasednode))

  00279	8b 55 ec	 mov	 edx, DWORD PTR __Erasednode$[ebp]
  0027c	52		 push	 edx
  0027d	e8 00 00 00 00	 call	 ?_Right@?$_Tree@V?$_Tmap_traits@PAUHWND__@@UWndMoveData@@U?$less@PAUHWND__@@@std@@V?$allocator@U?$pair@QAUHWND__@@UWndMoveData@@@std@@@4@$0A@@std@@@std@@KAAAPAU_Node@?$_Tree_nod@V?$_Tmap_traits@PAUHWND__@@UWndMoveData@@U?$less@PAUHWND__@@@std@@V?$allocator@U?$pair@QAUHWND__@@UWndMoveData@@@std@@@4@$0A@@std@@@2@PAU342@@Z ; std::_Tree<std::_Tmap_traits<HWND__ *,WndMoveData,std::less<HWND__ *>,std::allocator<std::pair<HWND__ * const,WndMoveData> >,0> >::_Right
  00282	83 c4 04	 add	 esp, 4
  00285	8b 4d e0	 mov	 ecx, DWORD PTR __Pnode$[ebp]
  00288	3b 08		 cmp	 ecx, DWORD PTR [eax]
  0028a	75 0b		 jne	 SHORT $L188904

; 639  : 				_Fixnodeparent = _Pnode;	// successor is next to erased

  0028c	8b 55 e0	 mov	 edx, DWORD PTR __Pnode$[ebp]
  0028f	89 55 e4	 mov	 DWORD PTR __Fixnodeparent$[ebp], edx

; 640  : 			else

  00292	e9 80 00 00 00	 jmp	 $L188905
$L188904:

; 641  : 				{	// successor further down, link in place of erased
; 642  : 				_Fixnodeparent = _Parent(_Pnode);	// parent is successor's

  00297	8b 45 e0	 mov	 eax, DWORD PTR __Pnode$[ebp]
  0029a	50		 push	 eax
  0029b	e8 00 00 00 00	 call	 ?_Parent@?$_Tree@V?$_Tmap_traits@PAUHWND__@@UWndMoveData@@U?$less@PAUHWND__@@@std@@V?$allocator@U?$pair@QAUHWND__@@UWndMoveData@@@std@@@4@$0A@@std@@@std@@KAAAPAU_Node@?$_Tree_nod@V?$_Tmap_traits@PAUHWND__@@UWndMoveData@@U?$less@PAUHWND__@@@std@@V?$allocator@U?$pair@QAUHWND__@@UWndMoveData@@@std@@@4@$0A@@std@@@2@PAU342@@Z ; std::_Tree<std::_Tmap_traits<HWND__ *,WndMoveData,std::less<HWND__ *>,std::allocator<std::pair<HWND__ * const,WndMoveData> >,0> >::_Parent
  002a0	83 c4 04	 add	 esp, 4
  002a3	8b 08		 mov	 ecx, DWORD PTR [eax]
  002a5	89 4d e4	 mov	 DWORD PTR __Fixnodeparent$[ebp], ecx

; 643  : 				if (!_Isnil(_Fixnode))

  002a8	8b 55 e8	 mov	 edx, DWORD PTR __Fixnode$[ebp]
  002ab	52		 push	 edx
  002ac	e8 00 00 00 00	 call	 ?_Isnil@?$_Tree@V?$_Tmap_traits@PAUHWND__@@UWndMoveData@@U?$less@PAUHWND__@@@std@@V?$allocator@U?$pair@QAUHWND__@@UWndMoveData@@@std@@@4@$0A@@std@@@std@@KAAADPAU_Node@?$_Tree_nod@V?$_Tmap_traits@PAUHWND__@@UWndMoveData@@U?$less@PAUHWND__@@@std@@V?$allocator@U?$pair@QAUHWND__@@UWndMoveData@@@std@@@4@$0A@@std@@@2@@Z ; std::_Tree<std::_Tmap_traits<HWND__ *,WndMoveData,std::less<HWND__ *>,std::allocator<std::pair<HWND__ * const,WndMoveData> >,0> >::_Isnil
  002b1	83 c4 04	 add	 esp, 4
  002b4	0f be 00	 movsx	 eax, BYTE PTR [eax]
  002b7	85 c0		 test	 eax, eax
  002b9	75 11		 jne	 SHORT $L188906

; 644  : 					_Parent(_Fixnode) = _Fixnodeparent;	// link fix up

  002bb	8b 4d e8	 mov	 ecx, DWORD PTR __Fixnode$[ebp]
  002be	51		 push	 ecx
  002bf	e8 00 00 00 00	 call	 ?_Parent@?$_Tree@V?$_Tmap_traits@PAUHWND__@@UWndMoveData@@U?$less@PAUHWND__@@@std@@V?$allocator@U?$pair@QAUHWND__@@UWndMoveData@@@std@@@4@$0A@@std@@@std@@KAAAPAU_Node@?$_Tree_nod@V?$_Tmap_traits@PAUHWND__@@UWndMoveData@@U?$less@PAUHWND__@@@std@@V?$allocator@U?$pair@QAUHWND__@@UWndMoveData@@@std@@@4@$0A@@std@@@2@PAU342@@Z ; std::_Tree<std::_Tmap_traits<HWND__ *,WndMoveData,std::less<HWND__ *>,std::allocator<std::pair<HWND__ * const,WndMoveData> >,0> >::_Parent
  002c4	83 c4 04	 add	 esp, 4
  002c7	8b 55 e4	 mov	 edx, DWORD PTR __Fixnodeparent$[ebp]
  002ca	89 10		 mov	 DWORD PTR [eax], edx
$L188906:

; 645  : 				_Left(_Fixnodeparent) = _Fixnode;	// link fix down

  002cc	8b 45 e4	 mov	 eax, DWORD PTR __Fixnodeparent$[ebp]
  002cf	50		 push	 eax
  002d0	e8 00 00 00 00	 call	 ?_Left@?$_Tree@V?$_Tmap_traits@PAUHWND__@@UWndMoveData@@U?$less@PAUHWND__@@@std@@V?$allocator@U?$pair@QAUHWND__@@UWndMoveData@@@std@@@4@$0A@@std@@@std@@KAAAPAU_Node@?$_Tree_nod@V?$_Tmap_traits@PAUHWND__@@UWndMoveData@@U?$less@PAUHWND__@@@std@@V?$allocator@U?$pair@QAUHWND__@@UWndMoveData@@@std@@@4@$0A@@std@@@2@PAU342@@Z ; std::_Tree<std::_Tmap_traits<HWND__ *,WndMoveData,std::less<HWND__ *>,std::allocator<std::pair<HWND__ * const,WndMoveData> >,0> >::_Left
  002d5	83 c4 04	 add	 esp, 4
  002d8	8b 4d e8	 mov	 ecx, DWORD PTR __Fixnode$[ebp]
  002db	89 08		 mov	 DWORD PTR [eax], ecx

; 646  : 				_Right(_Pnode) = _Right(_Erasednode);	// link successor down

  002dd	8b 55 ec	 mov	 edx, DWORD PTR __Erasednode$[ebp]
  002e0	52		 push	 edx
  002e1	e8 00 00 00 00	 call	 ?_Right@?$_Tree@V?$_Tmap_traits@PAUHWND__@@UWndMoveData@@U?$less@PAUHWND__@@@std@@V?$allocator@U?$pair@QAUHWND__@@UWndMoveData@@@std@@@4@$0A@@std@@@std@@KAAAPAU_Node@?$_Tree_nod@V?$_Tmap_traits@PAUHWND__@@UWndMoveData@@U?$less@PAUHWND__@@@std@@V?$allocator@U?$pair@QAUHWND__@@UWndMoveData@@@std@@@4@$0A@@std@@@2@PAU342@@Z ; std::_Tree<std::_Tmap_traits<HWND__ *,WndMoveData,std::less<HWND__ *>,std::allocator<std::pair<HWND__ * const,WndMoveData> >,0> >::_Right
  002e6	83 c4 04	 add	 esp, 4
  002e9	8b f0		 mov	 esi, eax
  002eb	8b 45 e0	 mov	 eax, DWORD PTR __Pnode$[ebp]
  002ee	50		 push	 eax
  002ef	e8 00 00 00 00	 call	 ?_Right@?$_Tree@V?$_Tmap_traits@PAUHWND__@@UWndMoveData@@U?$less@PAUHWND__@@@std@@V?$allocator@U?$pair@QAUHWND__@@UWndMoveData@@@std@@@4@$0A@@std@@@std@@KAAAPAU_Node@?$_Tree_nod@V?$_Tmap_traits@PAUHWND__@@UWndMoveData@@U?$less@PAUHWND__@@@std@@V?$allocator@U?$pair@QAUHWND__@@UWndMoveData@@@std@@@4@$0A@@std@@@2@PAU342@@Z ; std::_Tree<std::_Tmap_traits<HWND__ *,WndMoveData,std::less<HWND__ *>,std::allocator<std::pair<HWND__ * const,WndMoveData> >,0> >::_Right
  002f4	83 c4 04	 add	 esp, 4
  002f7	8b 0e		 mov	 ecx, DWORD PTR [esi]
  002f9	89 08		 mov	 DWORD PTR [eax], ecx

; 647  : 				_Parent(_Right(_Erasednode)) = _Pnode;	// link right up

  002fb	8b 55 ec	 mov	 edx, DWORD PTR __Erasednode$[ebp]
  002fe	52		 push	 edx
  002ff	e8 00 00 00 00	 call	 ?_Right@?$_Tree@V?$_Tmap_traits@PAUHWND__@@UWndMoveData@@U?$less@PAUHWND__@@@std@@V?$allocator@U?$pair@QAUHWND__@@UWndMoveData@@@std@@@4@$0A@@std@@@std@@KAAAPAU_Node@?$_Tree_nod@V?$_Tmap_traits@PAUHWND__@@UWndMoveData@@U?$less@PAUHWND__@@@std@@V?$allocator@U?$pair@QAUHWND__@@UWndMoveData@@@std@@@4@$0A@@std@@@2@PAU342@@Z ; std::_Tree<std::_Tmap_traits<HWND__ *,WndMoveData,std::less<HWND__ *>,std::allocator<std::pair<HWND__ * const,WndMoveData> >,0> >::_Right
  00304	83 c4 04	 add	 esp, 4
  00307	8b 00		 mov	 eax, DWORD PTR [eax]
  00309	50		 push	 eax
  0030a	e8 00 00 00 00	 call	 ?_Parent@?$_Tree@V?$_Tmap_traits@PAUHWND__@@UWndMoveData@@U?$less@PAUHWND__@@@std@@V?$allocator@U?$pair@QAUHWND__@@UWndMoveData@@@std@@@4@$0A@@std@@@std@@KAAAPAU_Node@?$_Tree_nod@V?$_Tmap_traits@PAUHWND__@@UWndMoveData@@U?$less@PAUHWND__@@@std@@V?$allocator@U?$pair@QAUHWND__@@UWndMoveData@@@std@@@4@$0A@@std@@@2@PAU342@@Z ; std::_Tree<std::_Tmap_traits<HWND__ *,WndMoveData,std::less<HWND__ *>,std::allocator<std::pair<HWND__ * const,WndMoveData> >,0> >::_Parent
  0030f	83 c4 04	 add	 esp, 4
  00312	8b 4d e0	 mov	 ecx, DWORD PTR __Pnode$[ebp]
  00315	89 08		 mov	 DWORD PTR [eax], ecx
$L188905:

; 648  : 				}
; 649  : 
; 650  : 			if (_Root() == _Erasednode)

  00317	8b 4d f0	 mov	 ecx, DWORD PTR _this$[ebp]
  0031a	e8 00 00 00 00	 call	 ?_Root@?$_Tree@V?$_Tmap_traits@PAUHWND__@@UWndMoveData@@U?$less@PAUHWND__@@@std@@V?$allocator@U?$pair@QAUHWND__@@UWndMoveData@@@std@@@4@$0A@@std@@@std@@IAEAAPAU_Node@?$_Tree_nod@V?$_Tmap_traits@PAUHWND__@@UWndMoveData@@U?$less@PAUHWND__@@@std@@V?$allocator@U?$pair@QAUHWND__@@UWndMoveData@@@std@@@4@$0A@@std@@@2@XZ ; std::_Tree<std::_Tmap_traits<HWND__ *,WndMoveData,std::less<HWND__ *>,std::allocator<std::pair<HWND__ * const,WndMoveData> >,0> >::_Root
  0031f	8b 10		 mov	 edx, DWORD PTR [eax]
  00321	3b 55 ec	 cmp	 edx, DWORD PTR __Erasednode$[ebp]
  00324	75 0f		 jne	 SHORT $L188907

; 651  : 				_Root() = _Pnode;	// link down from root

  00326	8b 4d f0	 mov	 ecx, DWORD PTR _this$[ebp]
  00329	e8 00 00 00 00	 call	 ?_Root@?$_Tree@V?$_Tmap_traits@PAUHWND__@@UWndMoveData@@U?$less@PAUHWND__@@@std@@V?$allocator@U?$pair@QAUHWND__@@UWndMoveData@@@std@@@4@$0A@@std@@@std@@IAEAAPAU_Node@?$_Tree_nod@V?$_Tmap_traits@PAUHWND__@@UWndMoveData@@U?$less@PAUHWND__@@@std@@V?$allocator@U?$pair@QAUHWND__@@UWndMoveData@@@std@@@4@$0A@@std@@@2@XZ ; std::_Tree<std::_Tmap_traits<HWND__ *,WndMoveData,std::less<HWND__ *>,std::allocator<std::pair<HWND__ * const,WndMoveData> >,0> >::_Root
  0032e	8b 4d e0	 mov	 ecx, DWORD PTR __Pnode$[ebp]
  00331	89 08		 mov	 DWORD PTR [eax], ecx

; 652  : 			else if (_Left(_Parent(_Erasednode)) == _Erasednode)

  00333	eb 58		 jmp	 SHORT $L188908
$L188907:
  00335	8b 55 ec	 mov	 edx, DWORD PTR __Erasednode$[ebp]
  00338	52		 push	 edx
  00339	e8 00 00 00 00	 call	 ?_Parent@?$_Tree@V?$_Tmap_traits@PAUHWND__@@UWndMoveData@@U?$less@PAUHWND__@@@std@@V?$allocator@U?$pair@QAUHWND__@@UWndMoveData@@@std@@@4@$0A@@std@@@std@@KAAAPAU_Node@?$_Tree_nod@V?$_Tmap_traits@PAUHWND__@@UWndMoveData@@U?$less@PAUHWND__@@@std@@V?$allocator@U?$pair@QAUHWND__@@UWndMoveData@@@std@@@4@$0A@@std@@@2@PAU342@@Z ; std::_Tree<std::_Tmap_traits<HWND__ *,WndMoveData,std::less<HWND__ *>,std::allocator<std::pair<HWND__ * const,WndMoveData> >,0> >::_Parent
  0033e	83 c4 04	 add	 esp, 4
  00341	8b 00		 mov	 eax, DWORD PTR [eax]
  00343	50		 push	 eax
  00344	e8 00 00 00 00	 call	 ?_Left@?$_Tree@V?$_Tmap_traits@PAUHWND__@@UWndMoveData@@U?$less@PAUHWND__@@@std@@V?$allocator@U?$pair@QAUHWND__@@UWndMoveData@@@std@@@4@$0A@@std@@@std@@KAAAPAU_Node@?$_Tree_nod@V?$_Tmap_traits@PAUHWND__@@UWndMoveData@@U?$less@PAUHWND__@@@std@@V?$allocator@U?$pair@QAUHWND__@@UWndMoveData@@@std@@@4@$0A@@std@@@2@PAU342@@Z ; std::_Tree<std::_Tmap_traits<HWND__ *,WndMoveData,std::less<HWND__ *>,std::allocator<std::pair<HWND__ * const,WndMoveData> >,0> >::_Left
  00349	83 c4 04	 add	 esp, 4
  0034c	8b 08		 mov	 ecx, DWORD PTR [eax]
  0034e	3b 4d ec	 cmp	 ecx, DWORD PTR __Erasednode$[ebp]
  00351	75 1e		 jne	 SHORT $L188909

; 653  : 				_Left(_Parent(_Erasednode)) = _Pnode;	// link down to left

  00353	8b 55 ec	 mov	 edx, DWORD PTR __Erasednode$[ebp]
  00356	52		 push	 edx
  00357	e8 00 00 00 00	 call	 ?_Parent@?$_Tree@V?$_Tmap_traits@PAUHWND__@@UWndMoveData@@U?$less@PAUHWND__@@@std@@V?$allocator@U?$pair@QAUHWND__@@UWndMoveData@@@std@@@4@$0A@@std@@@std@@KAAAPAU_Node@?$_Tree_nod@V?$_Tmap_traits@PAUHWND__@@UWndMoveData@@U?$less@PAUHWND__@@@std@@V?$allocator@U?$pair@QAUHWND__@@UWndMoveData@@@std@@@4@$0A@@std@@@2@PAU342@@Z ; std::_Tree<std::_Tmap_traits<HWND__ *,WndMoveData,std::less<HWND__ *>,std::allocator<std::pair<HWND__ * const,WndMoveData> >,0> >::_Parent
  0035c	83 c4 04	 add	 esp, 4
  0035f	8b 00		 mov	 eax, DWORD PTR [eax]
  00361	50		 push	 eax
  00362	e8 00 00 00 00	 call	 ?_Left@?$_Tree@V?$_Tmap_traits@PAUHWND__@@UWndMoveData@@U?$less@PAUHWND__@@@std@@V?$allocator@U?$pair@QAUHWND__@@UWndMoveData@@@std@@@4@$0A@@std@@@std@@KAAAPAU_Node@?$_Tree_nod@V?$_Tmap_traits@PAUHWND__@@UWndMoveData@@U?$less@PAUHWND__@@@std@@V?$allocator@U?$pair@QAUHWND__@@UWndMoveData@@@std@@@4@$0A@@std@@@2@PAU342@@Z ; std::_Tree<std::_Tmap_traits<HWND__ *,WndMoveData,std::less<HWND__ *>,std::allocator<std::pair<HWND__ * const,WndMoveData> >,0> >::_Left
  00367	83 c4 04	 add	 esp, 4
  0036a	8b 4d e0	 mov	 ecx, DWORD PTR __Pnode$[ebp]
  0036d	89 08		 mov	 DWORD PTR [eax], ecx

; 654  : 			else

  0036f	eb 1c		 jmp	 SHORT $L188908
$L188909:

; 655  : 				_Right(_Parent(_Erasednode)) = _Pnode;	// link down to right

  00371	8b 55 ec	 mov	 edx, DWORD PTR __Erasednode$[ebp]
  00374	52		 push	 edx
  00375	e8 00 00 00 00	 call	 ?_Parent@?$_Tree@V?$_Tmap_traits@PAUHWND__@@UWndMoveData@@U?$less@PAUHWND__@@@std@@V?$allocator@U?$pair@QAUHWND__@@UWndMoveData@@@std@@@4@$0A@@std@@@std@@KAAAPAU_Node@?$_Tree_nod@V?$_Tmap_traits@PAUHWND__@@UWndMoveData@@U?$less@PAUHWND__@@@std@@V?$allocator@U?$pair@QAUHWND__@@UWndMoveData@@@std@@@4@$0A@@std@@@2@PAU342@@Z ; std::_Tree<std::_Tmap_traits<HWND__ *,WndMoveData,std::less<HWND__ *>,std::allocator<std::pair<HWND__ * const,WndMoveData> >,0> >::_Parent
  0037a	83 c4 04	 add	 esp, 4
  0037d	8b 00		 mov	 eax, DWORD PTR [eax]
  0037f	50		 push	 eax
  00380	e8 00 00 00 00	 call	 ?_Right@?$_Tree@V?$_Tmap_traits@PAUHWND__@@UWndMoveData@@U?$less@PAUHWND__@@@std@@V?$allocator@U?$pair@QAUHWND__@@UWndMoveData@@@std@@@4@$0A@@std@@@std@@KAAAPAU_Node@?$_Tree_nod@V?$_Tmap_traits@PAUHWND__@@UWndMoveData@@U?$less@PAUHWND__@@@std@@V?$allocator@U?$pair@QAUHWND__@@UWndMoveData@@@std@@@4@$0A@@std@@@2@PAU342@@Z ; std::_Tree<std::_Tmap_traits<HWND__ *,WndMoveData,std::less<HWND__ *>,std::allocator<std::pair<HWND__ * const,WndMoveData> >,0> >::_Right
  00385	83 c4 04	 add	 esp, 4
  00388	8b 4d e0	 mov	 ecx, DWORD PTR __Pnode$[ebp]
  0038b	89 08		 mov	 DWORD PTR [eax], ecx
$L188908:

; 656  : 
; 657  : 			_Parent(_Pnode) = _Parent(_Erasednode);	// link successor up

  0038d	8b 55 ec	 mov	 edx, DWORD PTR __Erasednode$[ebp]
  00390	52		 push	 edx
  00391	e8 00 00 00 00	 call	 ?_Parent@?$_Tree@V?$_Tmap_traits@PAUHWND__@@UWndMoveData@@U?$less@PAUHWND__@@@std@@V?$allocator@U?$pair@QAUHWND__@@UWndMoveData@@@std@@@4@$0A@@std@@@std@@KAAAPAU_Node@?$_Tree_nod@V?$_Tmap_traits@PAUHWND__@@UWndMoveData@@U?$less@PAUHWND__@@@std@@V?$allocator@U?$pair@QAUHWND__@@UWndMoveData@@@std@@@4@$0A@@std@@@2@PAU342@@Z ; std::_Tree<std::_Tmap_traits<HWND__ *,WndMoveData,std::less<HWND__ *>,std::allocator<std::pair<HWND__ * const,WndMoveData> >,0> >::_Parent
  00396	83 c4 04	 add	 esp, 4
  00399	8b f0		 mov	 esi, eax
  0039b	8b 45 e0	 mov	 eax, DWORD PTR __Pnode$[ebp]
  0039e	50		 push	 eax
  0039f	e8 00 00 00 00	 call	 ?_Parent@?$_Tree@V?$_Tmap_traits@PAUHWND__@@UWndMoveData@@U?$less@PAUHWND__@@@std@@V?$allocator@U?$pair@QAUHWND__@@UWndMoveData@@@std@@@4@$0A@@std@@@std@@KAAAPAU_Node@?$_Tree_nod@V?$_Tmap_traits@PAUHWND__@@UWndMoveData@@U?$less@PAUHWND__@@@std@@V?$allocator@U?$pair@QAUHWND__@@UWndMoveData@@@std@@@4@$0A@@std@@@2@PAU342@@Z ; std::_Tree<std::_Tmap_traits<HWND__ *,WndMoveData,std::less<HWND__ *>,std::allocator<std::pair<HWND__ * const,WndMoveData> >,0> >::_Parent
  003a4	83 c4 04	 add	 esp, 4
  003a7	8b 0e		 mov	 ecx, DWORD PTR [esi]
  003a9	89 08		 mov	 DWORD PTR [eax], ecx

; 658  : 			std::swap(_Color(_Pnode), _Color(_Erasednode));	// recolor it

  003ab	8b 55 ec	 mov	 edx, DWORD PTR __Erasednode$[ebp]
  003ae	52		 push	 edx
  003af	e8 00 00 00 00	 call	 ?_Color@?$_Tree@V?$_Tmap_traits@PAUHWND__@@UWndMoveData@@U?$less@PAUHWND__@@@std@@V?$allocator@U?$pair@QAUHWND__@@UWndMoveData@@@std@@@4@$0A@@std@@@std@@KAAADPAU_Node@?$_Tree_nod@V?$_Tmap_traits@PAUHWND__@@UWndMoveData@@U?$less@PAUHWND__@@@std@@V?$allocator@U?$pair@QAUHWND__@@UWndMoveData@@@std@@@4@$0A@@std@@@2@@Z ; std::_Tree<std::_Tmap_traits<HWND__ *,WndMoveData,std::less<HWND__ *>,std::allocator<std::pair<HWND__ * const,WndMoveData> >,0> >::_Color
  003b4	83 c4 04	 add	 esp, 4
  003b7	50		 push	 eax
  003b8	8b 45 e0	 mov	 eax, DWORD PTR __Pnode$[ebp]
  003bb	50		 push	 eax
  003bc	e8 00 00 00 00	 call	 ?_Color@?$_Tree@V?$_Tmap_traits@PAUHWND__@@UWndMoveData@@U?$less@PAUHWND__@@@std@@V?$allocator@U?$pair@QAUHWND__@@UWndMoveData@@@std@@@4@$0A@@std@@@std@@KAAADPAU_Node@?$_Tree_nod@V?$_Tmap_traits@PAUHWND__@@UWndMoveData@@U?$less@PAUHWND__@@@std@@V?$allocator@U?$pair@QAUHWND__@@UWndMoveData@@@std@@@4@$0A@@std@@@2@@Z ; std::_Tree<std::_Tmap_traits<HWND__ *,WndMoveData,std::less<HWND__ *>,std::allocator<std::pair<HWND__ * const,WndMoveData> >,0> >::_Color
  003c1	83 c4 04	 add	 esp, 4
  003c4	50		 push	 eax
  003c5	e8 00 00 00 00	 call	 ??$swap@D@std@@YAXAAD0@Z ; std::swap<char>
  003ca	83 c4 08	 add	 esp, 8
$L188903:

; 659  : 			}
; 660  : 
; 661  : 		if (_Color(_Erasednode) == _Black)

  003cd	8b 4d ec	 mov	 ecx, DWORD PTR __Erasednode$[ebp]
  003d0	51		 push	 ecx
  003d1	e8 00 00 00 00	 call	 ?_Color@?$_Tree@V?$_Tmap_traits@PAUHWND__@@UWndMoveData@@U?$less@PAUHWND__@@@std@@V?$allocator@U?$pair@QAUHWND__@@UWndMoveData@@@std@@@4@$0A@@std@@@std@@KAAADPAU_Node@?$_Tree_nod@V?$_Tmap_traits@PAUHWND__@@UWndMoveData@@U?$less@PAUHWND__@@@std@@V?$allocator@U?$pair@QAUHWND__@@UWndMoveData@@@std@@@4@$0A@@std@@@2@@Z ; std::_Tree<std::_Tmap_traits<HWND__ *,WndMoveData,std::less<HWND__ *>,std::allocator<std::pair<HWND__ * const,WndMoveData> >,0> >::_Color
  003d6	83 c4 04	 add	 esp, 4
  003d9	0f be 10	 movsx	 edx, BYTE PTR [eax]
  003dc	83 fa 01	 cmp	 edx, 1
  003df	0f 85 8f 03 00
	00		 jne	 $L188911

; 662  : 			{	// erasing black link, must recolor/rebalance tree
; 663  : 			for (; _Fixnode != _Root() && _Color(_Fixnode) == _Black;
; 664  : 				_Fixnodeparent = _Parent(_Fixnode))

  003e5	eb 11		 jmp	 SHORT $L188912
$L188913:
  003e7	8b 45 e8	 mov	 eax, DWORD PTR __Fixnode$[ebp]
  003ea	50		 push	 eax
  003eb	e8 00 00 00 00	 call	 ?_Parent@?$_Tree@V?$_Tmap_traits@PAUHWND__@@UWndMoveData@@U?$less@PAUHWND__@@@std@@V?$allocator@U?$pair@QAUHWND__@@UWndMoveData@@@std@@@4@$0A@@std@@@std@@KAAAPAU_Node@?$_Tree_nod@V?$_Tmap_traits@PAUHWND__@@UWndMoveData@@U?$less@PAUHWND__@@@std@@V?$allocator@U?$pair@QAUHWND__@@UWndMoveData@@@std@@@4@$0A@@std@@@2@PAU342@@Z ; std::_Tree<std::_Tmap_traits<HWND__ *,WndMoveData,std::less<HWND__ *>,std::allocator<std::pair<HWND__ * const,WndMoveData> >,0> >::_Parent
  003f0	83 c4 04	 add	 esp, 4
  003f3	8b 08		 mov	 ecx, DWORD PTR [eax]
  003f5	89 4d e4	 mov	 DWORD PTR __Fixnodeparent$[ebp], ecx
$L188912:
  003f8	8b 4d f0	 mov	 ecx, DWORD PTR _this$[ebp]
  003fb	e8 00 00 00 00	 call	 ?_Root@?$_Tree@V?$_Tmap_traits@PAUHWND__@@UWndMoveData@@U?$less@PAUHWND__@@@std@@V?$allocator@U?$pair@QAUHWND__@@UWndMoveData@@@std@@@4@$0A@@std@@@std@@IAEAAPAU_Node@?$_Tree_nod@V?$_Tmap_traits@PAUHWND__@@UWndMoveData@@U?$less@PAUHWND__@@@std@@V?$allocator@U?$pair@QAUHWND__@@UWndMoveData@@@std@@@4@$0A@@std@@@2@XZ ; std::_Tree<std::_Tmap_traits<HWND__ *,WndMoveData,std::less<HWND__ *>,std::allocator<std::pair<HWND__ * const,WndMoveData> >,0> >::_Root
  00400	8b 55 e8	 mov	 edx, DWORD PTR __Fixnode$[ebp]
  00403	3b 10		 cmp	 edx, DWORD PTR [eax]
  00405	0f 84 5a 03 00
	00		 je	 $L188914
  0040b	8b 45 e8	 mov	 eax, DWORD PTR __Fixnode$[ebp]
  0040e	50		 push	 eax
  0040f	e8 00 00 00 00	 call	 ?_Color@?$_Tree@V?$_Tmap_traits@PAUHWND__@@UWndMoveData@@U?$less@PAUHWND__@@@std@@V?$allocator@U?$pair@QAUHWND__@@UWndMoveData@@@std@@@4@$0A@@std@@@std@@KAAADPAU_Node@?$_Tree_nod@V?$_Tmap_traits@PAUHWND__@@UWndMoveData@@U?$less@PAUHWND__@@@std@@V?$allocator@U?$pair@QAUHWND__@@UWndMoveData@@@std@@@4@$0A@@std@@@2@@Z ; std::_Tree<std::_Tmap_traits<HWND__ *,WndMoveData,std::less<HWND__ *>,std::allocator<std::pair<HWND__ * const,WndMoveData> >,0> >::_Color
  00414	83 c4 04	 add	 esp, 4
  00417	0f be 08	 movsx	 ecx, BYTE PTR [eax]
  0041a	83 f9 01	 cmp	 ecx, 1
  0041d	0f 85 42 03 00
	00		 jne	 $L188914

; 665  : 				if (_Fixnode == _Left(_Fixnodeparent))

  00423	8b 55 e4	 mov	 edx, DWORD PTR __Fixnodeparent$[ebp]
  00426	52		 push	 edx
  00427	e8 00 00 00 00	 call	 ?_Left@?$_Tree@V?$_Tmap_traits@PAUHWND__@@UWndMoveData@@U?$less@PAUHWND__@@@std@@V?$allocator@U?$pair@QAUHWND__@@UWndMoveData@@@std@@@4@$0A@@std@@@std@@KAAAPAU_Node@?$_Tree_nod@V?$_Tmap_traits@PAUHWND__@@UWndMoveData@@U?$less@PAUHWND__@@@std@@V?$allocator@U?$pair@QAUHWND__@@UWndMoveData@@@std@@@4@$0A@@std@@@2@PAU342@@Z ; std::_Tree<std::_Tmap_traits<HWND__ *,WndMoveData,std::less<HWND__ *>,std::allocator<std::pair<HWND__ * const,WndMoveData> >,0> >::_Left
  0042c	83 c4 04	 add	 esp, 4
  0042f	8b 4d e8	 mov	 ecx, DWORD PTR __Fixnode$[ebp]
  00432	3b 08		 cmp	 ecx, DWORD PTR [eax]
  00434	0f 85 97 01 00
	00		 jne	 $L188915

; 666  : 					{	// fixup left subtree
; 667  : 					_Pnode = _Right(_Fixnodeparent);

  0043a	8b 55 e4	 mov	 edx, DWORD PTR __Fixnodeparent$[ebp]
  0043d	52		 push	 edx
  0043e	e8 00 00 00 00	 call	 ?_Right@?$_Tree@V?$_Tmap_traits@PAUHWND__@@UWndMoveData@@U?$less@PAUHWND__@@@std@@V?$allocator@U?$pair@QAUHWND__@@UWndMoveData@@@std@@@4@$0A@@std@@@std@@KAAAPAU_Node@?$_Tree_nod@V?$_Tmap_traits@PAUHWND__@@UWndMoveData@@U?$less@PAUHWND__@@@std@@V?$allocator@U?$pair@QAUHWND__@@UWndMoveData@@@std@@@4@$0A@@std@@@2@PAU342@@Z ; std::_Tree<std::_Tmap_traits<HWND__ *,WndMoveData,std::less<HWND__ *>,std::allocator<std::pair<HWND__ * const,WndMoveData> >,0> >::_Right
  00443	83 c4 04	 add	 esp, 4
  00446	8b 00		 mov	 eax, DWORD PTR [eax]
  00448	89 45 e0	 mov	 DWORD PTR __Pnode$[ebp], eax

; 668  : 					if (_Color(_Pnode) == _Red)

  0044b	8b 4d e0	 mov	 ecx, DWORD PTR __Pnode$[ebp]
  0044e	51		 push	 ecx
  0044f	e8 00 00 00 00	 call	 ?_Color@?$_Tree@V?$_Tmap_traits@PAUHWND__@@UWndMoveData@@U?$less@PAUHWND__@@@std@@V?$allocator@U?$pair@QAUHWND__@@UWndMoveData@@@std@@@4@$0A@@std@@@std@@KAAADPAU_Node@?$_Tree_nod@V?$_Tmap_traits@PAUHWND__@@UWndMoveData@@U?$less@PAUHWND__@@@std@@V?$allocator@U?$pair@QAUHWND__@@UWndMoveData@@@std@@@4@$0A@@std@@@2@@Z ; std::_Tree<std::_Tmap_traits<HWND__ *,WndMoveData,std::less<HWND__ *>,std::allocator<std::pair<HWND__ * const,WndMoveData> >,0> >::_Color
  00454	83 c4 04	 add	 esp, 4
  00457	0f be 10	 movsx	 edx, BYTE PTR [eax]
  0045a	85 d2		 test	 edx, edx
  0045c	75 3b		 jne	 SHORT $L188916

; 669  : 						{	// rotate red up from right subtree
; 670  : 						_Color(_Pnode) = _Black;

  0045e	8b 45 e0	 mov	 eax, DWORD PTR __Pnode$[ebp]
  00461	50		 push	 eax
  00462	e8 00 00 00 00	 call	 ?_Color@?$_Tree@V?$_Tmap_traits@PAUHWND__@@UWndMoveData@@U?$less@PAUHWND__@@@std@@V?$allocator@U?$pair@QAUHWND__@@UWndMoveData@@@std@@@4@$0A@@std@@@std@@KAAADPAU_Node@?$_Tree_nod@V?$_Tmap_traits@PAUHWND__@@UWndMoveData@@U?$less@PAUHWND__@@@std@@V?$allocator@U?$pair@QAUHWND__@@UWndMoveData@@@std@@@4@$0A@@std@@@2@@Z ; std::_Tree<std::_Tmap_traits<HWND__ *,WndMoveData,std::less<HWND__ *>,std::allocator<std::pair<HWND__ * const,WndMoveData> >,0> >::_Color
  00467	83 c4 04	 add	 esp, 4
  0046a	c6 00 01	 mov	 BYTE PTR [eax], 1

; 671  : 						_Color(_Fixnodeparent) = _Red;

  0046d	8b 4d e4	 mov	 ecx, DWORD PTR __Fixnodeparent$[ebp]
  00470	51		 push	 ecx
  00471	e8 00 00 00 00	 call	 ?_Color@?$_Tree@V?$_Tmap_traits@PAUHWND__@@UWndMoveData@@U?$less@PAUHWND__@@@std@@V?$allocator@U?$pair@QAUHWND__@@UWndMoveData@@@std@@@4@$0A@@std@@@std@@KAAADPAU_Node@?$_Tree_nod@V?$_Tmap_traits@PAUHWND__@@UWndMoveData@@U?$less@PAUHWND__@@@std@@V?$allocator@U?$pair@QAUHWND__@@UWndMoveData@@@std@@@4@$0A@@std@@@2@@Z ; std::_Tree<std::_Tmap_traits<HWND__ *,WndMoveData,std::less<HWND__ *>,std::allocator<std::pair<HWND__ * const,WndMoveData> >,0> >::_Color
  00476	83 c4 04	 add	 esp, 4
  00479	c6 00 00	 mov	 BYTE PTR [eax], 0

; 672  : 						_Lrotate(_Fixnodeparent);

  0047c	8b 55 e4	 mov	 edx, DWORD PTR __Fixnodeparent$[ebp]
  0047f	52		 push	 edx
  00480	8b 4d f0	 mov	 ecx, DWORD PTR _this$[ebp]
  00483	e8 00 00 00 00	 call	 ?_Lrotate@?$_Tree@V?$_Tmap_traits@PAUHWND__@@UWndMoveData@@U?$less@PAUHWND__@@@std@@V?$allocator@U?$pair@QAUHWND__@@UWndMoveData@@@std@@@4@$0A@@std@@@std@@IAEXPAU_Node@?$_Tree_nod@V?$_Tmap_traits@PAUHWND__@@UWndMoveData@@U?$less@PAUHWND__@@@std@@V?$allocator@U?$pair@QAUHWND__@@UWndMoveData@@@std@@@4@$0A@@std@@@2@@Z ; std::_Tree<std::_Tmap_traits<HWND__ *,WndMoveData,std::less<HWND__ *>,std::allocator<std::pair<HWND__ * const,WndMoveData> >,0> >::_Lrotate

; 673  : 						_Pnode = _Right(_Fixnodeparent);

  00488	8b 45 e4	 mov	 eax, DWORD PTR __Fixnodeparent$[ebp]
  0048b	50		 push	 eax
  0048c	e8 00 00 00 00	 call	 ?_Right@?$_Tree@V?$_Tmap_traits@PAUHWND__@@UWndMoveData@@U?$less@PAUHWND__@@@std@@V?$allocator@U?$pair@QAUHWND__@@UWndMoveData@@@std@@@4@$0A@@std@@@std@@KAAAPAU_Node@?$_Tree_nod@V?$_Tmap_traits@PAUHWND__@@UWndMoveData@@U?$less@PAUHWND__@@@std@@V?$allocator@U?$pair@QAUHWND__@@UWndMoveData@@@std@@@4@$0A@@std@@@2@PAU342@@Z ; std::_Tree<std::_Tmap_traits<HWND__ *,WndMoveData,std::less<HWND__ *>,std::allocator<std::pair<HWND__ * const,WndMoveData> >,0> >::_Right
  00491	83 c4 04	 add	 esp, 4
  00494	8b 08		 mov	 ecx, DWORD PTR [eax]
  00496	89 4d e0	 mov	 DWORD PTR __Pnode$[ebp], ecx
$L188916:

; 674  : 						}
; 675  : 
; 676  : 					if (_Isnil(_Pnode))

  00499	8b 55 e0	 mov	 edx, DWORD PTR __Pnode$[ebp]
  0049c	52		 push	 edx
  0049d	e8 00 00 00 00	 call	 ?_Isnil@?$_Tree@V?$_Tmap_traits@PAUHWND__@@UWndMoveData@@U?$less@PAUHWND__@@@std@@V?$allocator@U?$pair@QAUHWND__@@UWndMoveData@@@std@@@4@$0A@@std@@@std@@KAAADPAU_Node@?$_Tree_nod@V?$_Tmap_traits@PAUHWND__@@UWndMoveData@@U?$less@PAUHWND__@@@std@@V?$allocator@U?$pair@QAUHWND__@@UWndMoveData@@@std@@@4@$0A@@std@@@2@@Z ; std::_Tree<std::_Tmap_traits<HWND__ *,WndMoveData,std::less<HWND__ *>,std::allocator<std::pair<HWND__ * const,WndMoveData> >,0> >::_Isnil
  004a2	83 c4 04	 add	 esp, 4
  004a5	0f be 00	 movsx	 eax, BYTE PTR [eax]
  004a8	85 c0		 test	 eax, eax
  004aa	74 0b		 je	 SHORT $L188917

; 677  : 						_Fixnode = _Fixnodeparent;	// shouldn't happen

  004ac	8b 4d e4	 mov	 ecx, DWORD PTR __Fixnodeparent$[ebp]
  004af	89 4d e8	 mov	 DWORD PTR __Fixnode$[ebp], ecx

; 678  : 					else if (_Color(_Left(_Pnode)) == _Black

  004b2	e9 15 01 00 00	 jmp	 $L188918
$L188917:

; 679  : 						&& _Color(_Right(_Pnode)) == _Black)

  004b7	8b 55 e0	 mov	 edx, DWORD PTR __Pnode$[ebp]
  004ba	52		 push	 edx
  004bb	e8 00 00 00 00	 call	 ?_Left@?$_Tree@V?$_Tmap_traits@PAUHWND__@@UWndMoveData@@U?$less@PAUHWND__@@@std@@V?$allocator@U?$pair@QAUHWND__@@UWndMoveData@@@std@@@4@$0A@@std@@@std@@KAAAPAU_Node@?$_Tree_nod@V?$_Tmap_traits@PAUHWND__@@UWndMoveData@@U?$less@PAUHWND__@@@std@@V?$allocator@U?$pair@QAUHWND__@@UWndMoveData@@@std@@@4@$0A@@std@@@2@PAU342@@Z ; std::_Tree<std::_Tmap_traits<HWND__ *,WndMoveData,std::less<HWND__ *>,std::allocator<std::pair<HWND__ * const,WndMoveData> >,0> >::_Left
  004c0	83 c4 04	 add	 esp, 4
  004c3	8b 00		 mov	 eax, DWORD PTR [eax]
  004c5	50		 push	 eax
  004c6	e8 00 00 00 00	 call	 ?_Color@?$_Tree@V?$_Tmap_traits@PAUHWND__@@UWndMoveData@@U?$less@PAUHWND__@@@std@@V?$allocator@U?$pair@QAUHWND__@@UWndMoveData@@@std@@@4@$0A@@std@@@std@@KAAADPAU_Node@?$_Tree_nod@V?$_Tmap_traits@PAUHWND__@@UWndMoveData@@U?$less@PAUHWND__@@@std@@V?$allocator@U?$pair@QAUHWND__@@UWndMoveData@@@std@@@4@$0A@@std@@@2@@Z ; std::_Tree<std::_Tmap_traits<HWND__ *,WndMoveData,std::less<HWND__ *>,std::allocator<std::pair<HWND__ * const,WndMoveData> >,0> >::_Color
  004cb	83 c4 04	 add	 esp, 4
  004ce	0f be 08	 movsx	 ecx, BYTE PTR [eax]
  004d1	83 f9 01	 cmp	 ecx, 1
  004d4	75 39		 jne	 SHORT $L188919
  004d6	8b 55 e0	 mov	 edx, DWORD PTR __Pnode$[ebp]
  004d9	52		 push	 edx
  004da	e8 00 00 00 00	 call	 ?_Right@?$_Tree@V?$_Tmap_traits@PAUHWND__@@UWndMoveData@@U?$less@PAUHWND__@@@std@@V?$allocator@U?$pair@QAUHWND__@@UWndMoveData@@@std@@@4@$0A@@std@@@std@@KAAAPAU_Node@?$_Tree_nod@V?$_Tmap_traits@PAUHWND__@@UWndMoveData@@U?$less@PAUHWND__@@@std@@V?$allocator@U?$pair@QAUHWND__@@UWndMoveData@@@std@@@4@$0A@@std@@@2@PAU342@@Z ; std::_Tree<std::_Tmap_traits<HWND__ *,WndMoveData,std::less<HWND__ *>,std::allocator<std::pair<HWND__ * const,WndMoveData> >,0> >::_Right
  004df	83 c4 04	 add	 esp, 4
  004e2	8b 00		 mov	 eax, DWORD PTR [eax]
  004e4	50		 push	 eax
  004e5	e8 00 00 00 00	 call	 ?_Color@?$_Tree@V?$_Tmap_traits@PAUHWND__@@UWndMoveData@@U?$less@PAUHWND__@@@std@@V?$allocator@U?$pair@QAUHWND__@@UWndMoveData@@@std@@@4@$0A@@std@@@std@@KAAADPAU_Node@?$_Tree_nod@V?$_Tmap_traits@PAUHWND__@@UWndMoveData@@U?$less@PAUHWND__@@@std@@V?$allocator@U?$pair@QAUHWND__@@UWndMoveData@@@std@@@4@$0A@@std@@@2@@Z ; std::_Tree<std::_Tmap_traits<HWND__ *,WndMoveData,std::less<HWND__ *>,std::allocator<std::pair<HWND__ * const,WndMoveData> >,0> >::_Color
  004ea	83 c4 04	 add	 esp, 4
  004ed	0f be 08	 movsx	 ecx, BYTE PTR [eax]
  004f0	83 f9 01	 cmp	 ecx, 1
  004f3	75 1a		 jne	 SHORT $L188919

; 680  : 						{	// redden right subtree with black children
; 681  : 						_Color(_Pnode) = _Red;

  004f5	8b 55 e0	 mov	 edx, DWORD PTR __Pnode$[ebp]
  004f8	52		 push	 edx
  004f9	e8 00 00 00 00	 call	 ?_Color@?$_Tree@V?$_Tmap_traits@PAUHWND__@@UWndMoveData@@U?$less@PAUHWND__@@@std@@V?$allocator@U?$pair@QAUHWND__@@UWndMoveData@@@std@@@4@$0A@@std@@@std@@KAAADPAU_Node@?$_Tree_nod@V?$_Tmap_traits@PAUHWND__@@UWndMoveData@@U?$less@PAUHWND__@@@std@@V?$allocator@U?$pair@QAUHWND__@@UWndMoveData@@@std@@@4@$0A@@std@@@2@@Z ; std::_Tree<std::_Tmap_traits<HWND__ *,WndMoveData,std::less<HWND__ *>,std::allocator<std::pair<HWND__ * const,WndMoveData> >,0> >::_Color
  004fe	83 c4 04	 add	 esp, 4
  00501	c6 00 00	 mov	 BYTE PTR [eax], 0

; 682  : 						_Fixnode = _Fixnodeparent;

  00504	8b 45 e4	 mov	 eax, DWORD PTR __Fixnodeparent$[ebp]
  00507	89 45 e8	 mov	 DWORD PTR __Fixnode$[ebp], eax

; 683  : 						}
; 684  : 					else

  0050a	e9 bd 00 00 00	 jmp	 $L188918
$L188919:

; 685  : 						{	// must rearrange right subtree
; 686  : 						if (_Color(_Right(_Pnode)) == _Black)

  0050f	8b 4d e0	 mov	 ecx, DWORD PTR __Pnode$[ebp]
  00512	51		 push	 ecx
  00513	e8 00 00 00 00	 call	 ?_Right@?$_Tree@V?$_Tmap_traits@PAUHWND__@@UWndMoveData@@U?$less@PAUHWND__@@@std@@V?$allocator@U?$pair@QAUHWND__@@UWndMoveData@@@std@@@4@$0A@@std@@@std@@KAAAPAU_Node@?$_Tree_nod@V?$_Tmap_traits@PAUHWND__@@UWndMoveData@@U?$less@PAUHWND__@@@std@@V?$allocator@U?$pair@QAUHWND__@@UWndMoveData@@@std@@@4@$0A@@std@@@2@PAU342@@Z ; std::_Tree<std::_Tmap_traits<HWND__ *,WndMoveData,std::less<HWND__ *>,std::allocator<std::pair<HWND__ * const,WndMoveData> >,0> >::_Right
  00518	83 c4 04	 add	 esp, 4
  0051b	8b 10		 mov	 edx, DWORD PTR [eax]
  0051d	52		 push	 edx
  0051e	e8 00 00 00 00	 call	 ?_Color@?$_Tree@V?$_Tmap_traits@PAUHWND__@@UWndMoveData@@U?$less@PAUHWND__@@@std@@V?$allocator@U?$pair@QAUHWND__@@UWndMoveData@@@std@@@4@$0A@@std@@@std@@KAAADPAU_Node@?$_Tree_nod@V?$_Tmap_traits@PAUHWND__@@UWndMoveData@@U?$less@PAUHWND__@@@std@@V?$allocator@U?$pair@QAUHWND__@@UWndMoveData@@@std@@@4@$0A@@std@@@2@@Z ; std::_Tree<std::_Tmap_traits<HWND__ *,WndMoveData,std::less<HWND__ *>,std::allocator<std::pair<HWND__ * const,WndMoveData> >,0> >::_Color
  00523	83 c4 04	 add	 esp, 4
  00526	0f be 00	 movsx	 eax, BYTE PTR [eax]
  00529	83 f8 01	 cmp	 eax, 1
  0052c	75 46		 jne	 SHORT $L188921

; 687  : 							{	// rotate red up from left sub-subtree
; 688  : 							_Color(_Left(_Pnode)) = _Black;

  0052e	8b 4d e0	 mov	 ecx, DWORD PTR __Pnode$[ebp]
  00531	51		 push	 ecx
  00532	e8 00 00 00 00	 call	 ?_Left@?$_Tree@V?$_Tmap_traits@PAUHWND__@@UWndMoveData@@U?$less@PAUHWND__@@@std@@V?$allocator@U?$pair@QAUHWND__@@UWndMoveData@@@std@@@4@$0A@@std@@@std@@KAAAPAU_Node@?$_Tree_nod@V?$_Tmap_traits@PAUHWND__@@UWndMoveData@@U?$less@PAUHWND__@@@std@@V?$allocator@U?$pair@QAUHWND__@@UWndMoveData@@@std@@@4@$0A@@std@@@2@PAU342@@Z ; std::_Tree<std::_Tmap_traits<HWND__ *,WndMoveData,std::less<HWND__ *>,std::allocator<std::pair<HWND__ * const,WndMoveData> >,0> >::_Left
  00537	83 c4 04	 add	 esp, 4
  0053a	8b 10		 mov	 edx, DWORD PTR [eax]
  0053c	52		 push	 edx
  0053d	e8 00 00 00 00	 call	 ?_Color@?$_Tree@V?$_Tmap_traits@PAUHWND__@@UWndMoveData@@U?$less@PAUHWND__@@@std@@V?$allocator@U?$pair@QAUHWND__@@UWndMoveData@@@std@@@4@$0A@@std@@@std@@KAAADPAU_Node@?$_Tree_nod@V?$_Tmap_traits@PAUHWND__@@UWndMoveData@@U?$less@PAUHWND__@@@std@@V?$allocator@U?$pair@QAUHWND__@@UWndMoveData@@@std@@@4@$0A@@std@@@2@@Z ; std::_Tree<std::_Tmap_traits<HWND__ *,WndMoveData,std::less<HWND__ *>,std::allocator<std::pair<HWND__ * const,WndMoveData> >,0> >::_Color
  00542	83 c4 04	 add	 esp, 4
  00545	c6 00 01	 mov	 BYTE PTR [eax], 1

; 689  : 							_Color(_Pnode) = _Red;

  00548	8b 45 e0	 mov	 eax, DWORD PTR __Pnode$[ebp]
  0054b	50		 push	 eax
  0054c	e8 00 00 00 00	 call	 ?_Color@?$_Tree@V?$_Tmap_traits@PAUHWND__@@UWndMoveData@@U?$less@PAUHWND__@@@std@@V?$allocator@U?$pair@QAUHWND__@@UWndMoveData@@@std@@@4@$0A@@std@@@std@@KAAADPAU_Node@?$_Tree_nod@V?$_Tmap_traits@PAUHWND__@@UWndMoveData@@U?$less@PAUHWND__@@@std@@V?$allocator@U?$pair@QAUHWND__@@UWndMoveData@@@std@@@4@$0A@@std@@@2@@Z ; std::_Tree<std::_Tmap_traits<HWND__ *,WndMoveData,std::less<HWND__ *>,std::allocator<std::pair<HWND__ * const,WndMoveData> >,0> >::_Color
  00551	83 c4 04	 add	 esp, 4
  00554	c6 00 00	 mov	 BYTE PTR [eax], 0

; 690  : 							_Rrotate(_Pnode);

  00557	8b 4d e0	 mov	 ecx, DWORD PTR __Pnode$[ebp]
  0055a	51		 push	 ecx
  0055b	8b 4d f0	 mov	 ecx, DWORD PTR _this$[ebp]
  0055e	e8 00 00 00 00	 call	 ?_Rrotate@?$_Tree@V?$_Tmap_traits@PAUHWND__@@UWndMoveData@@U?$less@PAUHWND__@@@std@@V?$allocator@U?$pair@QAUHWND__@@UWndMoveData@@@std@@@4@$0A@@std@@@std@@IAEXPAU_Node@?$_Tree_nod@V?$_Tmap_traits@PAUHWND__@@UWndMoveData@@U?$less@PAUHWND__@@@std@@V?$allocator@U?$pair@QAUHWND__@@UWndMoveData@@@std@@@4@$0A@@std@@@2@@Z ; std::_Tree<std::_Tmap_traits<HWND__ *,WndMoveData,std::less<HWND__ *>,std::allocator<std::pair<HWND__ * const,WndMoveData> >,0> >::_Rrotate

; 691  : 							_Pnode = _Right(_Fixnodeparent);

  00563	8b 55 e4	 mov	 edx, DWORD PTR __Fixnodeparent$[ebp]
  00566	52		 push	 edx
  00567	e8 00 00 00 00	 call	 ?_Right@?$_Tree@V?$_Tmap_traits@PAUHWND__@@UWndMoveData@@U?$less@PAUHWND__@@@std@@V?$allocator@U?$pair@QAUHWND__@@UWndMoveData@@@std@@@4@$0A@@std@@@std@@KAAAPAU_Node@?$_Tree_nod@V?$_Tmap_traits@PAUHWND__@@UWndMoveData@@U?$less@PAUHWND__@@@std@@V?$allocator@U?$pair@QAUHWND__@@UWndMoveData@@@std@@@4@$0A@@std@@@2@PAU342@@Z ; std::_Tree<std::_Tmap_traits<HWND__ *,WndMoveData,std::less<HWND__ *>,std::allocator<std::pair<HWND__ * const,WndMoveData> >,0> >::_Right
  0056c	83 c4 04	 add	 esp, 4
  0056f	8b 00		 mov	 eax, DWORD PTR [eax]
  00571	89 45 e0	 mov	 DWORD PTR __Pnode$[ebp], eax
$L188921:

; 692  : 							}
; 693  : 
; 694  : 						_Color(_Pnode) = _Color(_Fixnodeparent);

  00574	8b 4d e4	 mov	 ecx, DWORD PTR __Fixnodeparent$[ebp]
  00577	51		 push	 ecx
  00578	e8 00 00 00 00	 call	 ?_Color@?$_Tree@V?$_Tmap_traits@PAUHWND__@@UWndMoveData@@U?$less@PAUHWND__@@@std@@V?$allocator@U?$pair@QAUHWND__@@UWndMoveData@@@std@@@4@$0A@@std@@@std@@KAAADPAU_Node@?$_Tree_nod@V?$_Tmap_traits@PAUHWND__@@UWndMoveData@@U?$less@PAUHWND__@@@std@@V?$allocator@U?$pair@QAUHWND__@@UWndMoveData@@@std@@@4@$0A@@std@@@2@@Z ; std::_Tree<std::_Tmap_traits<HWND__ *,WndMoveData,std::less<HWND__ *>,std::allocator<std::pair<HWND__ * const,WndMoveData> >,0> >::_Color
  0057d	83 c4 04	 add	 esp, 4
  00580	8b f0		 mov	 esi, eax
  00582	8b 55 e0	 mov	 edx, DWORD PTR __Pnode$[ebp]
  00585	52		 push	 edx
  00586	e8 00 00 00 00	 call	 ?_Color@?$_Tree@V?$_Tmap_traits@PAUHWND__@@UWndMoveData@@U?$less@PAUHWND__@@@std@@V?$allocator@U?$pair@QAUHWND__@@UWndMoveData@@@std@@@4@$0A@@std@@@std@@KAAADPAU_Node@?$_Tree_nod@V?$_Tmap_traits@PAUHWND__@@UWndMoveData@@U?$less@PAUHWND__@@@std@@V?$allocator@U?$pair@QAUHWND__@@UWndMoveData@@@std@@@4@$0A@@std@@@2@@Z ; std::_Tree<std::_Tmap_traits<HWND__ *,WndMoveData,std::less<HWND__ *>,std::allocator<std::pair<HWND__ * const,WndMoveData> >,0> >::_Color
  0058b	83 c4 04	 add	 esp, 4
  0058e	8a 0e		 mov	 cl, BYTE PTR [esi]
  00590	88 08		 mov	 BYTE PTR [eax], cl

; 695  : 						_Color(_Fixnodeparent) = _Black;

  00592	8b 55 e4	 mov	 edx, DWORD PTR __Fixnodeparent$[ebp]
  00595	52		 push	 edx
  00596	e8 00 00 00 00	 call	 ?_Color@?$_Tree@V?$_Tmap_traits@PAUHWND__@@UWndMoveData@@U?$less@PAUHWND__@@@std@@V?$allocator@U?$pair@QAUHWND__@@UWndMoveData@@@std@@@4@$0A@@std@@@std@@KAAADPAU_Node@?$_Tree_nod@V?$_Tmap_traits@PAUHWND__@@UWndMoveData@@U?$less@PAUHWND__@@@std@@V?$allocator@U?$pair@QAUHWND__@@UWndMoveData@@@std@@@4@$0A@@std@@@2@@Z ; std::_Tree<std::_Tmap_traits<HWND__ *,WndMoveData,std::less<HWND__ *>,std::allocator<std::pair<HWND__ * const,WndMoveData> >,0> >::_Color
  0059b	83 c4 04	 add	 esp, 4
  0059e	c6 00 01	 mov	 BYTE PTR [eax], 1

; 696  : 						_Color(_Right(_Pnode)) = _Black;

  005a1	8b 45 e0	 mov	 eax, DWORD PTR __Pnode$[ebp]
  005a4	50		 push	 eax
  005a5	e8 00 00 00 00	 call	 ?_Right@?$_Tree@V?$_Tmap_traits@PAUHWND__@@UWndMoveData@@U?$less@PAUHWND__@@@std@@V?$allocator@U?$pair@QAUHWND__@@UWndMoveData@@@std@@@4@$0A@@std@@@std@@KAAAPAU_Node@?$_Tree_nod@V?$_Tmap_traits@PAUHWND__@@UWndMoveData@@U?$less@PAUHWND__@@@std@@V?$allocator@U?$pair@QAUHWND__@@UWndMoveData@@@std@@@4@$0A@@std@@@2@PAU342@@Z ; std::_Tree<std::_Tmap_traits<HWND__ *,WndMoveData,std::less<HWND__ *>,std::allocator<std::pair<HWND__ * const,WndMoveData> >,0> >::_Right
  005aa	83 c4 04	 add	 esp, 4
  005ad	8b 08		 mov	 ecx, DWORD PTR [eax]
  005af	51		 push	 ecx
  005b0	e8 00 00 00 00	 call	 ?_Color@?$_Tree@V?$_Tmap_traits@PAUHWND__@@UWndMoveData@@U?$less@PAUHWND__@@@std@@V?$allocator@U?$pair@QAUHWND__@@UWndMoveData@@@std@@@4@$0A@@std@@@std@@KAAADPAU_Node@?$_Tree_nod@V?$_Tmap_traits@PAUHWND__@@UWndMoveData@@U?$less@PAUHWND__@@@std@@V?$allocator@U?$pair@QAUHWND__@@UWndMoveData@@@std@@@4@$0A@@std@@@2@@Z ; std::_Tree<std::_Tmap_traits<HWND__ *,WndMoveData,std::less<HWND__ *>,std::allocator<std::pair<HWND__ * const,WndMoveData> >,0> >::_Color
  005b5	83 c4 04	 add	 esp, 4
  005b8	c6 00 01	 mov	 BYTE PTR [eax], 1

; 697  : 						_Lrotate(_Fixnodeparent);

  005bb	8b 55 e4	 mov	 edx, DWORD PTR __Fixnodeparent$[ebp]
  005be	52		 push	 edx
  005bf	8b 4d f0	 mov	 ecx, DWORD PTR _this$[ebp]
  005c2	e8 00 00 00 00	 call	 ?_Lrotate@?$_Tree@V?$_Tmap_traits@PAUHWND__@@UWndMoveData@@U?$less@PAUHWND__@@@std@@V?$allocator@U?$pair@QAUHWND__@@UWndMoveData@@@std@@@4@$0A@@std@@@std@@IAEXPAU_Node@?$_Tree_nod@V?$_Tmap_traits@PAUHWND__@@UWndMoveData@@U?$less@PAUHWND__@@@std@@V?$allocator@U?$pair@QAUHWND__@@UWndMoveData@@@std@@@4@$0A@@std@@@2@@Z ; std::_Tree<std::_Tmap_traits<HWND__ *,WndMoveData,std::less<HWND__ *>,std::allocator<std::pair<HWND__ * const,WndMoveData> >,0> >::_Lrotate

; 698  : 						break;	// tree now recolored/rebalanced

  005c7	e9 99 01 00 00	 jmp	 $L188914
$L188918:

; 699  : 						}
; 700  : 					}
; 701  : 				else

  005cc	e9 8f 01 00 00	 jmp	 $L188922
$L188915:

; 702  : 					{	// fixup right subtree
; 703  : 					_Pnode = _Left(_Fixnodeparent);

  005d1	8b 45 e4	 mov	 eax, DWORD PTR __Fixnodeparent$[ebp]
  005d4	50		 push	 eax
  005d5	e8 00 00 00 00	 call	 ?_Left@?$_Tree@V?$_Tmap_traits@PAUHWND__@@UWndMoveData@@U?$less@PAUHWND__@@@std@@V?$allocator@U?$pair@QAUHWND__@@UWndMoveData@@@std@@@4@$0A@@std@@@std@@KAAAPAU_Node@?$_Tree_nod@V?$_Tmap_traits@PAUHWND__@@UWndMoveData@@U?$less@PAUHWND__@@@std@@V?$allocator@U?$pair@QAUHWND__@@UWndMoveData@@@std@@@4@$0A@@std@@@2@PAU342@@Z ; std::_Tree<std::_Tmap_traits<HWND__ *,WndMoveData,std::less<HWND__ *>,std::allocator<std::pair<HWND__ * const,WndMoveData> >,0> >::_Left
  005da	83 c4 04	 add	 esp, 4
  005dd	8b 08		 mov	 ecx, DWORD PTR [eax]
  005df	89 4d e0	 mov	 DWORD PTR __Pnode$[ebp], ecx

; 704  : 					if (_Color(_Pnode) == _Red)

  005e2	8b 55 e0	 mov	 edx, DWORD PTR __Pnode$[ebp]
  005e5	52		 push	 edx
  005e6	e8 00 00 00 00	 call	 ?_Color@?$_Tree@V?$_Tmap_traits@PAUHWND__@@UWndMoveData@@U?$less@PAUHWND__@@@std@@V?$allocator@U?$pair@QAUHWND__@@UWndMoveData@@@std@@@4@$0A@@std@@@std@@KAAADPAU_Node@?$_Tree_nod@V?$_Tmap_traits@PAUHWND__@@UWndMoveData@@U?$less@PAUHWND__@@@std@@V?$allocator@U?$pair@QAUHWND__@@UWndMoveData@@@std@@@4@$0A@@std@@@2@@Z ; std::_Tree<std::_Tmap_traits<HWND__ *,WndMoveData,std::less<HWND__ *>,std::allocator<std::pair<HWND__ * const,WndMoveData> >,0> >::_Color
  005eb	83 c4 04	 add	 esp, 4
  005ee	0f be 00	 movsx	 eax, BYTE PTR [eax]
  005f1	85 c0		 test	 eax, eax
  005f3	75 3b		 jne	 SHORT $L188923

; 705  : 						{	// rotate red up from left subtree
; 706  : 						_Color(_Pnode) = _Black;

  005f5	8b 4d e0	 mov	 ecx, DWORD PTR __Pnode$[ebp]
  005f8	51		 push	 ecx
  005f9	e8 00 00 00 00	 call	 ?_Color@?$_Tree@V?$_Tmap_traits@PAUHWND__@@UWndMoveData@@U?$less@PAUHWND__@@@std@@V?$allocator@U?$pair@QAUHWND__@@UWndMoveData@@@std@@@4@$0A@@std@@@std@@KAAADPAU_Node@?$_Tree_nod@V?$_Tmap_traits@PAUHWND__@@UWndMoveData@@U?$less@PAUHWND__@@@std@@V?$allocator@U?$pair@QAUHWND__@@UWndMoveData@@@std@@@4@$0A@@std@@@2@@Z ; std::_Tree<std::_Tmap_traits<HWND__ *,WndMoveData,std::less<HWND__ *>,std::allocator<std::pair<HWND__ * const,WndMoveData> >,0> >::_Color
  005fe	83 c4 04	 add	 esp, 4
  00601	c6 00 01	 mov	 BYTE PTR [eax], 1

; 707  : 						_Color(_Fixnodeparent) = _Red;

  00604	8b 55 e4	 mov	 edx, DWORD PTR __Fixnodeparent$[ebp]
  00607	52		 push	 edx
  00608	e8 00 00 00 00	 call	 ?_Color@?$_Tree@V?$_Tmap_traits@PAUHWND__@@UWndMoveData@@U?$less@PAUHWND__@@@std@@V?$allocator@U?$pair@QAUHWND__@@UWndMoveData@@@std@@@4@$0A@@std@@@std@@KAAADPAU_Node@?$_Tree_nod@V?$_Tmap_traits@PAUHWND__@@UWndMoveData@@U?$less@PAUHWND__@@@std@@V?$allocator@U?$pair@QAUHWND__@@UWndMoveData@@@std@@@4@$0A@@std@@@2@@Z ; std::_Tree<std::_Tmap_traits<HWND__ *,WndMoveData,std::less<HWND__ *>,std::allocator<std::pair<HWND__ * const,WndMoveData> >,0> >::_Color
  0060d	83 c4 04	 add	 esp, 4
  00610	c6 00 00	 mov	 BYTE PTR [eax], 0

; 708  : 						_Rrotate(_Fixnodeparent);

  00613	8b 45 e4	 mov	 eax, DWORD PTR __Fixnodeparent$[ebp]
  00616	50		 push	 eax
  00617	8b 4d f0	 mov	 ecx, DWORD PTR _this$[ebp]
  0061a	e8 00 00 00 00	 call	 ?_Rrotate@?$_Tree@V?$_Tmap_traits@PAUHWND__@@UWndMoveData@@U?$less@PAUHWND__@@@std@@V?$allocator@U?$pair@QAUHWND__@@UWndMoveData@@@std@@@4@$0A@@std@@@std@@IAEXPAU_Node@?$_Tree_nod@V?$_Tmap_traits@PAUHWND__@@UWndMoveData@@U?$less@PAUHWND__@@@std@@V?$allocator@U?$pair@QAUHWND__@@UWndMoveData@@@std@@@4@$0A@@std@@@2@@Z ; std::_Tree<std::_Tmap_traits<HWND__ *,WndMoveData,std::less<HWND__ *>,std::allocator<std::pair<HWND__ * const,WndMoveData> >,0> >::_Rrotate

; 709  : 						_Pnode = _Left(_Fixnodeparent);

  0061f	8b 4d e4	 mov	 ecx, DWORD PTR __Fixnodeparent$[ebp]
  00622	51		 push	 ecx
  00623	e8 00 00 00 00	 call	 ?_Left@?$_Tree@V?$_Tmap_traits@PAUHWND__@@UWndMoveData@@U?$less@PAUHWND__@@@std@@V?$allocator@U?$pair@QAUHWND__@@UWndMoveData@@@std@@@4@$0A@@std@@@std@@KAAAPAU_Node@?$_Tree_nod@V?$_Tmap_traits@PAUHWND__@@UWndMoveData@@U?$less@PAUHWND__@@@std@@V?$allocator@U?$pair@QAUHWND__@@UWndMoveData@@@std@@@4@$0A@@std@@@2@PAU342@@Z ; std::_Tree<std::_Tmap_traits<HWND__ *,WndMoveData,std::less<HWND__ *>,std::allocator<std::pair<HWND__ * const,WndMoveData> >,0> >::_Left
  00628	83 c4 04	 add	 esp, 4
  0062b	8b 10		 mov	 edx, DWORD PTR [eax]
  0062d	89 55 e0	 mov	 DWORD PTR __Pnode$[ebp], edx
$L188923:

; 710  : 						}
; 711  : 					if (_Isnil(_Pnode))

  00630	8b 45 e0	 mov	 eax, DWORD PTR __Pnode$[ebp]
  00633	50		 push	 eax
  00634	e8 00 00 00 00	 call	 ?_Isnil@?$_Tree@V?$_Tmap_traits@PAUHWND__@@UWndMoveData@@U?$less@PAUHWND__@@@std@@V?$allocator@U?$pair@QAUHWND__@@UWndMoveData@@@std@@@4@$0A@@std@@@std@@KAAADPAU_Node@?$_Tree_nod@V?$_Tmap_traits@PAUHWND__@@UWndMoveData@@U?$less@PAUHWND__@@@std@@V?$allocator@U?$pair@QAUHWND__@@UWndMoveData@@@std@@@4@$0A@@std@@@2@@Z ; std::_Tree<std::_Tmap_traits<HWND__ *,WndMoveData,std::less<HWND__ *>,std::allocator<std::pair<HWND__ * const,WndMoveData> >,0> >::_Isnil
  00639	83 c4 04	 add	 esp, 4
  0063c	0f be 08	 movsx	 ecx, BYTE PTR [eax]
  0063f	85 c9		 test	 ecx, ecx
  00641	74 0b		 je	 SHORT $L188924

; 712  : 						_Fixnode = _Fixnodeparent;	// shouldn't happen

  00643	8b 55 e4	 mov	 edx, DWORD PTR __Fixnodeparent$[ebp]
  00646	89 55 e8	 mov	 DWORD PTR __Fixnode$[ebp], edx

; 713  : 					else if (_Color(_Right(_Pnode)) == _Black

  00649	e9 12 01 00 00	 jmp	 $L188922
$L188924:

; 714  : 						&& _Color(_Left(_Pnode)) == _Black)

  0064e	8b 45 e0	 mov	 eax, DWORD PTR __Pnode$[ebp]
  00651	50		 push	 eax
  00652	e8 00 00 00 00	 call	 ?_Right@?$_Tree@V?$_Tmap_traits@PAUHWND__@@UWndMoveData@@U?$less@PAUHWND__@@@std@@V?$allocator@U?$pair@QAUHWND__@@UWndMoveData@@@std@@@4@$0A@@std@@@std@@KAAAPAU_Node@?$_Tree_nod@V?$_Tmap_traits@PAUHWND__@@UWndMoveData@@U?$less@PAUHWND__@@@std@@V?$allocator@U?$pair@QAUHWND__@@UWndMoveData@@@std@@@4@$0A@@std@@@2@PAU342@@Z ; std::_Tree<std::_Tmap_traits<HWND__ *,WndMoveData,std::less<HWND__ *>,std::allocator<std::pair<HWND__ * const,WndMoveData> >,0> >::_Right
  00657	83 c4 04	 add	 esp, 4
  0065a	8b 08		 mov	 ecx, DWORD PTR [eax]
  0065c	51		 push	 ecx
  0065d	e8 00 00 00 00	 call	 ?_Color@?$_Tree@V?$_Tmap_traits@PAUHWND__@@UWndMoveData@@U?$less@PAUHWND__@@@std@@V?$allocator@U?$pair@QAUHWND__@@UWndMoveData@@@std@@@4@$0A@@std@@@std@@KAAADPAU_Node@?$_Tree_nod@V?$_Tmap_traits@PAUHWND__@@UWndMoveData@@U?$less@PAUHWND__@@@std@@V?$allocator@U?$pair@QAUHWND__@@UWndMoveData@@@std@@@4@$0A@@std@@@2@@Z ; std::_Tree<std::_Tmap_traits<HWND__ *,WndMoveData,std::less<HWND__ *>,std::allocator<std::pair<HWND__ * const,WndMoveData> >,0> >::_Color
  00662	83 c4 04	 add	 esp, 4
  00665	0f be 10	 movsx	 edx, BYTE PTR [eax]
  00668	83 fa 01	 cmp	 edx, 1
  0066b	75 39		 jne	 SHORT $L188926
  0066d	8b 45 e0	 mov	 eax, DWORD PTR __Pnode$[ebp]
  00670	50		 push	 eax
  00671	e8 00 00 00 00	 call	 ?_Left@?$_Tree@V?$_Tmap_traits@PAUHWND__@@UWndMoveData@@U?$less@PAUHWND__@@@std@@V?$allocator@U?$pair@QAUHWND__@@UWndMoveData@@@std@@@4@$0A@@std@@@std@@KAAAPAU_Node@?$_Tree_nod@V?$_Tmap_traits@PAUHWND__@@UWndMoveData@@U?$less@PAUHWND__@@@std@@V?$allocator@U?$pair@QAUHWND__@@UWndMoveData@@@std@@@4@$0A@@std@@@2@PAU342@@Z ; std::_Tree<std::_Tmap_traits<HWND__ *,WndMoveData,std::less<HWND__ *>,std::allocator<std::pair<HWND__ * const,WndMoveData> >,0> >::_Left
  00676	83 c4 04	 add	 esp, 4
  00679	8b 08		 mov	 ecx, DWORD PTR [eax]
  0067b	51		 push	 ecx
  0067c	e8 00 00 00 00	 call	 ?_Color@?$_Tree@V?$_Tmap_traits@PAUHWND__@@UWndMoveData@@U?$less@PAUHWND__@@@std@@V?$allocator@U?$pair@QAUHWND__@@UWndMoveData@@@std@@@4@$0A@@std@@@std@@KAAADPAU_Node@?$_Tree_nod@V?$_Tmap_traits@PAUHWND__@@UWndMoveData@@U?$less@PAUHWND__@@@std@@V?$allocator@U?$pair@QAUHWND__@@UWndMoveData@@@std@@@4@$0A@@std@@@2@@Z ; std::_Tree<std::_Tmap_traits<HWND__ *,WndMoveData,std::less<HWND__ *>,std::allocator<std::pair<HWND__ * const,WndMoveData> >,0> >::_Color
  00681	83 c4 04	 add	 esp, 4
  00684	0f be 10	 movsx	 edx, BYTE PTR [eax]
  00687	83 fa 01	 cmp	 edx, 1
  0068a	75 1a		 jne	 SHORT $L188926

; 715  : 						{	// redden left subtree with black children
; 716  : 						_Color(_Pnode) = _Red;

  0068c	8b 45 e0	 mov	 eax, DWORD PTR __Pnode$[ebp]
  0068f	50		 push	 eax
  00690	e8 00 00 00 00	 call	 ?_Color@?$_Tree@V?$_Tmap_traits@PAUHWND__@@UWndMoveData@@U?$less@PAUHWND__@@@std@@V?$allocator@U?$pair@QAUHWND__@@UWndMoveData@@@std@@@4@$0A@@std@@@std@@KAAADPAU_Node@?$_Tree_nod@V?$_Tmap_traits@PAUHWND__@@UWndMoveData@@U?$less@PAUHWND__@@@std@@V?$allocator@U?$pair@QAUHWND__@@UWndMoveData@@@std@@@4@$0A@@std@@@2@@Z ; std::_Tree<std::_Tmap_traits<HWND__ *,WndMoveData,std::less<HWND__ *>,std::allocator<std::pair<HWND__ * const,WndMoveData> >,0> >::_Color
  00695	83 c4 04	 add	 esp, 4
  00698	c6 00 00	 mov	 BYTE PTR [eax], 0

; 717  : 						_Fixnode = _Fixnodeparent;

  0069b	8b 4d e4	 mov	 ecx, DWORD PTR __Fixnodeparent$[ebp]
  0069e	89 4d e8	 mov	 DWORD PTR __Fixnode$[ebp], ecx

; 718  : 						}
; 719  : 					else

  006a1	e9 ba 00 00 00	 jmp	 $L188922
$L188926:

; 720  : 						{	// must rearrange left subtree
; 721  : 						if (_Color(_Left(_Pnode)) == _Black)

  006a6	8b 55 e0	 mov	 edx, DWORD PTR __Pnode$[ebp]
  006a9	52		 push	 edx
  006aa	e8 00 00 00 00	 call	 ?_Left@?$_Tree@V?$_Tmap_traits@PAUHWND__@@UWndMoveData@@U?$less@PAUHWND__@@@std@@V?$allocator@U?$pair@QAUHWND__@@UWndMoveData@@@std@@@4@$0A@@std@@@std@@KAAAPAU_Node@?$_Tree_nod@V?$_Tmap_traits@PAUHWND__@@UWndMoveData@@U?$less@PAUHWND__@@@std@@V?$allocator@U?$pair@QAUHWND__@@UWndMoveData@@@std@@@4@$0A@@std@@@2@PAU342@@Z ; std::_Tree<std::_Tmap_traits<HWND__ *,WndMoveData,std::less<HWND__ *>,std::allocator<std::pair<HWND__ * const,WndMoveData> >,0> >::_Left
  006af	83 c4 04	 add	 esp, 4
  006b2	8b 00		 mov	 eax, DWORD PTR [eax]
  006b4	50		 push	 eax
  006b5	e8 00 00 00 00	 call	 ?_Color@?$_Tree@V?$_Tmap_traits@PAUHWND__@@UWndMoveData@@U?$less@PAUHWND__@@@std@@V?$allocator@U?$pair@QAUHWND__@@UWndMoveData@@@std@@@4@$0A@@std@@@std@@KAAADPAU_Node@?$_Tree_nod@V?$_Tmap_traits@PAUHWND__@@UWndMoveData@@U?$less@PAUHWND__@@@std@@V?$allocator@U?$pair@QAUHWND__@@UWndMoveData@@@std@@@4@$0A@@std@@@2@@Z ; std::_Tree<std::_Tmap_traits<HWND__ *,WndMoveData,std::less<HWND__ *>,std::allocator<std::pair<HWND__ * const,WndMoveData> >,0> >::_Color
  006ba	83 c4 04	 add	 esp, 4
  006bd	0f be 08	 movsx	 ecx, BYTE PTR [eax]
  006c0	83 f9 01	 cmp	 ecx, 1
  006c3	75 46		 jne	 SHORT $L188928

; 722  : 							{	// rotate red up from right sub-subtree
; 723  : 							_Color(_Right(_Pnode)) = _Black;

  006c5	8b 55 e0	 mov	 edx, DWORD PTR __Pnode$[ebp]
  006c8	52		 push	 edx
  006c9	e8 00 00 00 00	 call	 ?_Right@?$_Tree@V?$_Tmap_traits@PAUHWND__@@UWndMoveData@@U?$less@PAUHWND__@@@std@@V?$allocator@U?$pair@QAUHWND__@@UWndMoveData@@@std@@@4@$0A@@std@@@std@@KAAAPAU_Node@?$_Tree_nod@V?$_Tmap_traits@PAUHWND__@@UWndMoveData@@U?$less@PAUHWND__@@@std@@V?$allocator@U?$pair@QAUHWND__@@UWndMoveData@@@std@@@4@$0A@@std@@@2@PAU342@@Z ; std::_Tree<std::_Tmap_traits<HWND__ *,WndMoveData,std::less<HWND__ *>,std::allocator<std::pair<HWND__ * const,WndMoveData> >,0> >::_Right
  006ce	83 c4 04	 add	 esp, 4
  006d1	8b 00		 mov	 eax, DWORD PTR [eax]
  006d3	50		 push	 eax
  006d4	e8 00 00 00 00	 call	 ?_Color@?$_Tree@V?$_Tmap_traits@PAUHWND__@@UWndMoveData@@U?$less@PAUHWND__@@@std@@V?$allocator@U?$pair@QAUHWND__@@UWndMoveData@@@std@@@4@$0A@@std@@@std@@KAAADPAU_Node@?$_Tree_nod@V?$_Tmap_traits@PAUHWND__@@UWndMoveData@@U?$less@PAUHWND__@@@std@@V?$allocator@U?$pair@QAUHWND__@@UWndMoveData@@@std@@@4@$0A@@std@@@2@@Z ; std::_Tree<std::_Tmap_traits<HWND__ *,WndMoveData,std::less<HWND__ *>,std::allocator<std::pair<HWND__ * const,WndMoveData> >,0> >::_Color
  006d9	83 c4 04	 add	 esp, 4
  006dc	c6 00 01	 mov	 BYTE PTR [eax], 1

; 724  : 							_Color(_Pnode) = _Red;

  006df	8b 4d e0	 mov	 ecx, DWORD PTR __Pnode$[ebp]
  006e2	51		 push	 ecx
  006e3	e8 00 00 00 00	 call	 ?_Color@?$_Tree@V?$_Tmap_traits@PAUHWND__@@UWndMoveData@@U?$less@PAUHWND__@@@std@@V?$allocator@U?$pair@QAUHWND__@@UWndMoveData@@@std@@@4@$0A@@std@@@std@@KAAADPAU_Node@?$_Tree_nod@V?$_Tmap_traits@PAUHWND__@@UWndMoveData@@U?$less@PAUHWND__@@@std@@V?$allocator@U?$pair@QAUHWND__@@UWndMoveData@@@std@@@4@$0A@@std@@@2@@Z ; std::_Tree<std::_Tmap_traits<HWND__ *,WndMoveData,std::less<HWND__ *>,std::allocator<std::pair<HWND__ * const,WndMoveData> >,0> >::_Color
  006e8	83 c4 04	 add	 esp, 4
  006eb	c6 00 00	 mov	 BYTE PTR [eax], 0

; 725  : 							_Lrotate(_Pnode);

  006ee	8b 55 e0	 mov	 edx, DWORD PTR __Pnode$[ebp]
  006f1	52		 push	 edx
  006f2	8b 4d f0	 mov	 ecx, DWORD PTR _this$[ebp]
  006f5	e8 00 00 00 00	 call	 ?_Lrotate@?$_Tree@V?$_Tmap_traits@PAUHWND__@@UWndMoveData@@U?$less@PAUHWND__@@@std@@V?$allocator@U?$pair@QAUHWND__@@UWndMoveData@@@std@@@4@$0A@@std@@@std@@IAEXPAU_Node@?$_Tree_nod@V?$_Tmap_traits@PAUHWND__@@UWndMoveData@@U?$less@PAUHWND__@@@std@@V?$allocator@U?$pair@QAUHWND__@@UWndMoveData@@@std@@@4@$0A@@std@@@2@@Z ; std::_Tree<std::_Tmap_traits<HWND__ *,WndMoveData,std::less<HWND__ *>,std::allocator<std::pair<HWND__ * const,WndMoveData> >,0> >::_Lrotate

; 726  : 							_Pnode = _Left(_Fixnodeparent);

  006fa	8b 45 e4	 mov	 eax, DWORD PTR __Fixnodeparent$[ebp]
  006fd	50		 push	 eax
  006fe	e8 00 00 00 00	 call	 ?_Left@?$_Tree@V?$_Tmap_traits@PAUHWND__@@UWndMoveData@@U?$less@PAUHWND__@@@std@@V?$allocator@U?$pair@QAUHWND__@@UWndMoveData@@@std@@@4@$0A@@std@@@std@@KAAAPAU_Node@?$_Tree_nod@V?$_Tmap_traits@PAUHWND__@@UWndMoveData@@U?$less@PAUHWND__@@@std@@V?$allocator@U?$pair@QAUHWND__@@UWndMoveData@@@std@@@4@$0A@@std@@@2@PAU342@@Z ; std::_Tree<std::_Tmap_traits<HWND__ *,WndMoveData,std::less<HWND__ *>,std::allocator<std::pair<HWND__ * const,WndMoveData> >,0> >::_Left
  00703	83 c4 04	 add	 esp, 4
  00706	8b 08		 mov	 ecx, DWORD PTR [eax]
  00708	89 4d e0	 mov	 DWORD PTR __Pnode$[ebp], ecx
$L188928:

; 727  : 							}
; 728  : 
; 729  : 						_Color(_Pnode) = _Color(_Fixnodeparent);

  0070b	8b 55 e4	 mov	 edx, DWORD PTR __Fixnodeparent$[ebp]
  0070e	52		 push	 edx
  0070f	e8 00 00 00 00	 call	 ?_Color@?$_Tree@V?$_Tmap_traits@PAUHWND__@@UWndMoveData@@U?$less@PAUHWND__@@@std@@V?$allocator@U?$pair@QAUHWND__@@UWndMoveData@@@std@@@4@$0A@@std@@@std@@KAAADPAU_Node@?$_Tree_nod@V?$_Tmap_traits@PAUHWND__@@UWndMoveData@@U?$less@PAUHWND__@@@std@@V?$allocator@U?$pair@QAUHWND__@@UWndMoveData@@@std@@@4@$0A@@std@@@2@@Z ; std::_Tree<std::_Tmap_traits<HWND__ *,WndMoveData,std::less<HWND__ *>,std::allocator<std::pair<HWND__ * const,WndMoveData> >,0> >::_Color
  00714	83 c4 04	 add	 esp, 4
  00717	8b f0		 mov	 esi, eax
  00719	8b 45 e0	 mov	 eax, DWORD PTR __Pnode$[ebp]
  0071c	50		 push	 eax
  0071d	e8 00 00 00 00	 call	 ?_Color@?$_Tree@V?$_Tmap_traits@PAUHWND__@@UWndMoveData@@U?$less@PAUHWND__@@@std@@V?$allocator@U?$pair@QAUHWND__@@UWndMoveData@@@std@@@4@$0A@@std@@@std@@KAAADPAU_Node@?$_Tree_nod@V?$_Tmap_traits@PAUHWND__@@UWndMoveData@@U?$less@PAUHWND__@@@std@@V?$allocator@U?$pair@QAUHWND__@@UWndMoveData@@@std@@@4@$0A@@std@@@2@@Z ; std::_Tree<std::_Tmap_traits<HWND__ *,WndMoveData,std::less<HWND__ *>,std::allocator<std::pair<HWND__ * const,WndMoveData> >,0> >::_Color
  00722	83 c4 04	 add	 esp, 4
  00725	8a 0e		 mov	 cl, BYTE PTR [esi]
  00727	88 08		 mov	 BYTE PTR [eax], cl

; 730  : 						_Color(_Fixnodeparent) = _Black;

  00729	8b 55 e4	 mov	 edx, DWORD PTR __Fixnodeparent$[ebp]
  0072c	52		 push	 edx
  0072d	e8 00 00 00 00	 call	 ?_Color@?$_Tree@V?$_Tmap_traits@PAUHWND__@@UWndMoveData@@U?$less@PAUHWND__@@@std@@V?$allocator@U?$pair@QAUHWND__@@UWndMoveData@@@std@@@4@$0A@@std@@@std@@KAAADPAU_Node@?$_Tree_nod@V?$_Tmap_traits@PAUHWND__@@UWndMoveData@@U?$less@PAUHWND__@@@std@@V?$allocator@U?$pair@QAUHWND__@@UWndMoveData@@@std@@@4@$0A@@std@@@2@@Z ; std::_Tree<std::_Tmap_traits<HWND__ *,WndMoveData,std::less<HWND__ *>,std::allocator<std::pair<HWND__ * const,WndMoveData> >,0> >::_Color
  00732	83 c4 04	 add	 esp, 4
  00735	c6 00 01	 mov	 BYTE PTR [eax], 1

; 731  : 						_Color(_Left(_Pnode)) = _Black;

  00738	8b 45 e0	 mov	 eax, DWORD PTR __Pnode$[ebp]
  0073b	50		 push	 eax
  0073c	e8 00 00 00 00	 call	 ?_Left@?$_Tree@V?$_Tmap_traits@PAUHWND__@@UWndMoveData@@U?$less@PAUHWND__@@@std@@V?$allocator@U?$pair@QAUHWND__@@UWndMoveData@@@std@@@4@$0A@@std@@@std@@KAAAPAU_Node@?$_Tree_nod@V?$_Tmap_traits@PAUHWND__@@UWndMoveData@@U?$less@PAUHWND__@@@std@@V?$allocator@U?$pair@QAUHWND__@@UWndMoveData@@@std@@@4@$0A@@std@@@2@PAU342@@Z ; std::_Tree<std::_Tmap_traits<HWND__ *,WndMoveData,std::less<HWND__ *>,std::allocator<std::pair<HWND__ * const,WndMoveData> >,0> >::_Left
  00741	83 c4 04	 add	 esp, 4
  00744	8b 08		 mov	 ecx, DWORD PTR [eax]
  00746	51		 push	 ecx
  00747	e8 00 00 00 00	 call	 ?_Color@?$_Tree@V?$_Tmap_traits@PAUHWND__@@UWndMoveData@@U?$less@PAUHWND__@@@std@@V?$allocator@U?$pair@QAUHWND__@@UWndMoveData@@@std@@@4@$0A@@std@@@std@@KAAADPAU_Node@?$_Tree_nod@V?$_Tmap_traits@PAUHWND__@@UWndMoveData@@U?$less@PAUHWND__@@@std@@V?$allocator@U?$pair@QAUHWND__@@UWndMoveData@@@std@@@4@$0A@@std@@@2@@Z ; std::_Tree<std::_Tmap_traits<HWND__ *,WndMoveData,std::less<HWND__ *>,std::allocator<std::pair<HWND__ * const,WndMoveData> >,0> >::_Color
  0074c	83 c4 04	 add	 esp, 4
  0074f	c6 00 01	 mov	 BYTE PTR [eax], 1

; 732  : 						_Rrotate(_Fixnodeparent);

  00752	8b 55 e4	 mov	 edx, DWORD PTR __Fixnodeparent$[ebp]
  00755	52		 push	 edx
  00756	8b 4d f0	 mov	 ecx, DWORD PTR _this$[ebp]
  00759	e8 00 00 00 00	 call	 ?_Rrotate@?$_Tree@V?$_Tmap_traits@PAUHWND__@@UWndMoveData@@U?$less@PAUHWND__@@@std@@V?$allocator@U?$pair@QAUHWND__@@UWndMoveData@@@std@@@4@$0A@@std@@@std@@IAEXPAU_Node@?$_Tree_nod@V?$_Tmap_traits@PAUHWND__@@UWndMoveData@@U?$less@PAUHWND__@@@std@@V?$allocator@U?$pair@QAUHWND__@@UWndMoveData@@@std@@@4@$0A@@std@@@2@@Z ; std::_Tree<std::_Tmap_traits<HWND__ *,WndMoveData,std::less<HWND__ *>,std::allocator<std::pair<HWND__ * const,WndMoveData> >,0> >::_Rrotate

; 733  : 						break;	// tree now recolored/rebalanced

  0075e	eb 05		 jmp	 SHORT $L188914
$L188922:

; 734  : 						}
; 735  : 					}

  00760	e9 82 fc ff ff	 jmp	 $L188913
$L188914:

; 736  : 
; 737  : 			_Color(_Fixnode) = _Black;	// ensure stopping node is black

  00765	8b 45 e8	 mov	 eax, DWORD PTR __Fixnode$[ebp]
  00768	50		 push	 eax
  00769	e8 00 00 00 00	 call	 ?_Color@?$_Tree@V?$_Tmap_traits@PAUHWND__@@UWndMoveData@@U?$less@PAUHWND__@@@std@@V?$allocator@U?$pair@QAUHWND__@@UWndMoveData@@@std@@@4@$0A@@std@@@std@@KAAADPAU_Node@?$_Tree_nod@V?$_Tmap_traits@PAUHWND__@@UWndMoveData@@U?$less@PAUHWND__@@@std@@V?$allocator@U?$pair@QAUHWND__@@UWndMoveData@@@std@@@4@$0A@@std@@@2@@Z ; std::_Tree<std::_Tmap_traits<HWND__ *,WndMoveData,std::less<HWND__ *>,std::allocator<std::pair<HWND__ * const,WndMoveData> >,0> >::_Color
  0076e	83 c4 04	 add	 esp, 4
  00771	c6 00 01	 mov	 BYTE PTR [eax], 1
$L188911:

; 738  : 			}
; 739  : 
; 740  : 		this->_Alnod.destroy(_Erasednode);	// destroy, free erased node

  00774	8b 4d ec	 mov	 ecx, DWORD PTR __Erasednode$[ebp]
  00777	51		 push	 ecx
  00778	8b 4d f0	 mov	 ecx, DWORD PTR _this$[ebp]
  0077b	83 c1 01	 add	 ecx, 1
  0077e	e8 00 00 00 00	 call	 ?destroy@?$allocator@U_Node@?$_Tree_nod@V?$_Tmap_traits@PAUHWND__@@UWndMoveData@@U?$less@PAUHWND__@@@std@@V?$allocator@U?$pair@QAUHWND__@@UWndMoveData@@@std@@@4@$0A@@std@@@std@@@std@@QAEXPAU_Node@?$_Tree_nod@V?$_Tmap_traits@PAUHWND__@@UWndMoveData@@U?$less@PAUHWND__@@@std@@V?$allocator@U?$pair@QAUHWND__@@UWndMoveData@@@std@@@4@$0A@@std@@@2@@Z ; std::allocator<std::_Tree_nod<std::_Tmap_traits<HWND__ *,WndMoveData,std::less<HWND__ *>,std::allocator<std::pair<HWND__ * const,WndMoveData> >,0> >::_Node>::destroy

; 741  : 		this->_Alnod.deallocate(_Erasednode, 1);

  00783	6a 01		 push	 1
  00785	8b 55 ec	 mov	 edx, DWORD PTR __Erasednode$[ebp]
  00788	52		 push	 edx
  00789	8b 4d f0	 mov	 ecx, DWORD PTR _this$[ebp]
  0078c	83 c1 01	 add	 ecx, 1
  0078f	e8 00 00 00 00	 call	 ?deallocate@?$allocator@U_Node@?$_Tree_nod@V?$_Tmap_traits@PAUHWND__@@UWndMoveData@@U?$less@PAUHWND__@@@std@@V?$allocator@U?$pair@QAUHWND__@@UWndMoveData@@@std@@@4@$0A@@std@@@std@@@std@@QAEXPAU_Node@?$_Tree_nod@V?$_Tmap_traits@PAUHWND__@@UWndMoveData@@U?$less@PAUHWND__@@@std@@V?$allocator@U?$pair@QAUHWND__@@UWndMoveData@@@std@@@4@$0A@@std@@@2@I@Z ; std::allocator<std::_Tree_nod<std::_Tmap_traits<HWND__ *,WndMoveData,std::less<HWND__ *>,std::allocator<std::pair<HWND__ * const,WndMoveData> >,0> >::_Node>::deallocate

; 742  : 
; 743  : 		if (0 < _Mysize)

  00794	8b 45 f0	 mov	 eax, DWORD PTR _this$[ebp]
  00797	83 78 08 00	 cmp	 DWORD PTR [eax+8], 0
  0079b	76 0f		 jbe	 SHORT $L188929

; 744  : 			--_Mysize;

  0079d	8b 4d f0	 mov	 ecx, DWORD PTR _this$[ebp]
  007a0	8b 51 08	 mov	 edx, DWORD PTR [ecx+8]
  007a3	83 ea 01	 sub	 edx, 1
  007a6	8b 45 f0	 mov	 eax, DWORD PTR _this$[ebp]
  007a9	89 50 08	 mov	 DWORD PTR [eax+8], edx
$L188929:

; 745  : 
; 746  : 		return (_Where);	// return successor iterator

  007ac	8b 4d 08	 mov	 ecx, DWORD PTR ___$ReturnUdt$[ebp]
  007af	8b 55 0c	 mov	 edx, DWORD PTR __Where$[ebp]
  007b2	89 11		 mov	 DWORD PTR [ecx], edx
  007b4	8b 45 08	 mov	 eax, DWORD PTR ___$ReturnUdt$[ebp]
$L189813:

; 747  : 		}

  007b7	8b 4d f4	 mov	 ecx, DWORD PTR __$EHRec$[ebp]
  007ba	64 89 0d 00 00
	00 00		 mov	 DWORD PTR fs:__except_list, ecx
  007c1	5f		 pop	 edi
  007c2	5e		 pop	 esi
  007c3	83 c4 6c	 add	 esp, 108		; 0000006cH
  007c6	3b ec		 cmp	 ebp, esp
  007c8	e8 00 00 00 00	 call	 __RTC_CheckEsp
  007cd	8b e5		 mov	 esp, ebp
  007cf	5d		 pop	 ebp
  007d0	c2 08 00	 ret	 8
_TEXT	ENDS
;	COMDAT text$x
text$x	SEGMENT
$L189820:
  00000	8b f4		 mov	 esi, esp
  00002	8d 4d 9c	 lea	 ecx, DWORD PTR $T189815[ebp]
  00005	ff 15 00 00 00
	00		 call	 DWORD PTR __imp_??1?$basic_string@DU?$char_traits@D@std@@V?$allocator@D@2@@std@@QAE@XZ
  0000b	3b f4		 cmp	 esi, esp
  0000d	e9 00 00 00 00	 jmp	 __RTC_CheckEsp
__ehhandler$?erase@?$_Tree@V?$_Tmap_traits@PAUHWND__@@UWndMoveData@@U?$less@PAUHWND__@@@std@@V?$allocator@U?$pair@QAUHWND__@@UWndMoveData@@@std@@@4@$0A@@std@@@std@@QAE?AViterator@12@V312@@Z:
  00012	b8 00 00 00 00	 mov	 eax, OFFSET FLAT:$T189822
  00017	e9 00 00 00 00	 jmp	 ___CxxFrameHandler
text$x	ENDS
?erase@?$_Tree@V?$_Tmap_traits@PAUHWND__@@UWndMoveData@@U?$less@PAUHWND__@@@std@@V?$allocator@U?$pair@QAUHWND__@@UWndMoveData@@@std@@@4@$0A@@std@@@std@@QAE?AViterator@12@V312@@Z ENDP ; std::_Tree<std::_Tmap_traits<HWND__ *,WndMoveData,std::less<HWND__ *>,std::allocator<std::pair<HWND__ * const,WndMoveData> >,0> >::erase
; Function compile flags: /Odt /RTCsu
;	COMDAT ?_Lrotate@?$_Tree@V?$_Tmap_traits@PAUHWND__@@UWndMoveData@@U?$less@PAUHWND__@@@std@@V?$allocator@U?$pair@QAUHWND__@@UWndMoveData@@@std@@@4@$0A@@std@@@std@@IAEXPAU_Node@?$_Tree_nod@V?$_Tmap_traits@PAUHWND__@@UWndMoveData@@U?$less@PAUHWND__@@@std@@V?$allocator@U?$pair@QAUHWND__@@UWndMoveData@@@std@@@4@$0A@@std@@@2@@Z
_TEXT	SEGMENT
__Pnode$ = -8						; size = 4
_this$ = -4						; size = 4
__Wherenode$ = 8					; size = 4
?_Lrotate@?$_Tree@V?$_Tmap_traits@PAUHWND__@@UWndMoveData@@U?$less@PAUHWND__@@@std@@V?$allocator@U?$pair@QAUHWND__@@UWndMoveData@@@std@@@4@$0A@@std@@@std@@IAEXPAU_Node@?$_Tree_nod@V?$_Tmap_traits@PAUHWND__@@UWndMoveData@@U?$less@PAUHWND__@@@std@@V?$allocator@U?$pair@QAUHWND__@@UWndMoveData@@@std@@@4@$0A@@std@@@2@@Z PROC NEAR ; std::_Tree<std::_Tmap_traits<HWND__ *,WndMoveData,std::less<HWND__ *>,std::allocator<std::pair<HWND__ * const,WndMoveData> >,0> >::_Lrotate, COMDAT
; _this$ = ecx

; 1014 : 		{	// promote right node to root of subtree

  00000	55		 push	 ebp
  00001	8b ec		 mov	 ebp, esp
  00003	83 ec 08	 sub	 esp, 8
  00006	56		 push	 esi
  00007	c7 45 f8 cc cc
	cc cc		 mov	 DWORD PTR [ebp-8], -858993460 ; ccccccccH
  0000e	c7 45 fc cc cc
	cc cc		 mov	 DWORD PTR [ebp-4], -858993460 ; ccccccccH
  00015	89 4d fc	 mov	 DWORD PTR _this$[ebp], ecx

; 1015 : 		_Nodeptr _Pnode = _Right(_Wherenode);

  00018	8b 45 08	 mov	 eax, DWORD PTR __Wherenode$[ebp]
  0001b	50		 push	 eax
  0001c	e8 00 00 00 00	 call	 ?_Right@?$_Tree@V?$_Tmap_traits@PAUHWND__@@UWndMoveData@@U?$less@PAUHWND__@@@std@@V?$allocator@U?$pair@QAUHWND__@@UWndMoveData@@@std@@@4@$0A@@std@@@std@@KAAAPAU_Node@?$_Tree_nod@V?$_Tmap_traits@PAUHWND__@@UWndMoveData@@U?$less@PAUHWND__@@@std@@V?$allocator@U?$pair@QAUHWND__@@UWndMoveData@@@std@@@4@$0A@@std@@@2@PAU342@@Z ; std::_Tree<std::_Tmap_traits<HWND__ *,WndMoveData,std::less<HWND__ *>,std::allocator<std::pair<HWND__ * const,WndMoveData> >,0> >::_Right
  00021	83 c4 04	 add	 esp, 4
  00024	8b 08		 mov	 ecx, DWORD PTR [eax]
  00026	89 4d f8	 mov	 DWORD PTR __Pnode$[ebp], ecx

; 1016 : 		_Right(_Wherenode) = _Left(_Pnode);

  00029	8b 55 f8	 mov	 edx, DWORD PTR __Pnode$[ebp]
  0002c	52		 push	 edx
  0002d	e8 00 00 00 00	 call	 ?_Left@?$_Tree@V?$_Tmap_traits@PAUHWND__@@UWndMoveData@@U?$less@PAUHWND__@@@std@@V?$allocator@U?$pair@QAUHWND__@@UWndMoveData@@@std@@@4@$0A@@std@@@std@@KAAAPAU_Node@?$_Tree_nod@V?$_Tmap_traits@PAUHWND__@@UWndMoveData@@U?$less@PAUHWND__@@@std@@V?$allocator@U?$pair@QAUHWND__@@UWndMoveData@@@std@@@4@$0A@@std@@@2@PAU342@@Z ; std::_Tree<std::_Tmap_traits<HWND__ *,WndMoveData,std::less<HWND__ *>,std::allocator<std::pair<HWND__ * const,WndMoveData> >,0> >::_Left
  00032	83 c4 04	 add	 esp, 4
  00035	8b f0		 mov	 esi, eax
  00037	8b 45 08	 mov	 eax, DWORD PTR __Wherenode$[ebp]
  0003a	50		 push	 eax
  0003b	e8 00 00 00 00	 call	 ?_Right@?$_Tree@V?$_Tmap_traits@PAUHWND__@@UWndMoveData@@U?$less@PAUHWND__@@@std@@V?$allocator@U?$pair@QAUHWND__@@UWndMoveData@@@std@@@4@$0A@@std@@@std@@KAAAPAU_Node@?$_Tree_nod@V?$_Tmap_traits@PAUHWND__@@UWndMoveData@@U?$less@PAUHWND__@@@std@@V?$allocator@U?$pair@QAUHWND__@@UWndMoveData@@@std@@@4@$0A@@std@@@2@PAU342@@Z ; std::_Tree<std::_Tmap_traits<HWND__ *,WndMoveData,std::less<HWND__ *>,std::allocator<std::pair<HWND__ * const,WndMoveData> >,0> >::_Right
  00040	83 c4 04	 add	 esp, 4
  00043	8b 0e		 mov	 ecx, DWORD PTR [esi]
  00045	89 08		 mov	 DWORD PTR [eax], ecx

; 1017 : 
; 1018 : 		if (!_Isnil(_Left(_Pnode)))

  00047	8b 55 f8	 mov	 edx, DWORD PTR __Pnode$[ebp]
  0004a	52		 push	 edx
  0004b	e8 00 00 00 00	 call	 ?_Left@?$_Tree@V?$_Tmap_traits@PAUHWND__@@UWndMoveData@@U?$less@PAUHWND__@@@std@@V?$allocator@U?$pair@QAUHWND__@@UWndMoveData@@@std@@@4@$0A@@std@@@std@@KAAAPAU_Node@?$_Tree_nod@V?$_Tmap_traits@PAUHWND__@@UWndMoveData@@U?$less@PAUHWND__@@@std@@V?$allocator@U?$pair@QAUHWND__@@UWndMoveData@@@std@@@4@$0A@@std@@@2@PAU342@@Z ; std::_Tree<std::_Tmap_traits<HWND__ *,WndMoveData,std::less<HWND__ *>,std::allocator<std::pair<HWND__ * const,WndMoveData> >,0> >::_Left
  00050	83 c4 04	 add	 esp, 4
  00053	8b 00		 mov	 eax, DWORD PTR [eax]
  00055	50		 push	 eax
  00056	e8 00 00 00 00	 call	 ?_Isnil@?$_Tree@V?$_Tmap_traits@PAUHWND__@@UWndMoveData@@U?$less@PAUHWND__@@@std@@V?$allocator@U?$pair@QAUHWND__@@UWndMoveData@@@std@@@4@$0A@@std@@@std@@KAAADPAU_Node@?$_Tree_nod@V?$_Tmap_traits@PAUHWND__@@UWndMoveData@@U?$less@PAUHWND__@@@std@@V?$allocator@U?$pair@QAUHWND__@@UWndMoveData@@@std@@@4@$0A@@std@@@2@@Z ; std::_Tree<std::_Tmap_traits<HWND__ *,WndMoveData,std::less<HWND__ *>,std::allocator<std::pair<HWND__ * const,WndMoveData> >,0> >::_Isnil
  0005b	83 c4 04	 add	 esp, 4
  0005e	0f be 08	 movsx	 ecx, BYTE PTR [eax]
  00061	85 c9		 test	 ecx, ecx
  00063	75 1c		 jne	 SHORT $L188933

; 1019 : 			_Parent(_Left(_Pnode)) = _Wherenode;

  00065	8b 55 f8	 mov	 edx, DWORD PTR __Pnode$[ebp]
  00068	52		 push	 edx
  00069	e8 00 00 00 00	 call	 ?_Left@?$_Tree@V?$_Tmap_traits@PAUHWND__@@UWndMoveData@@U?$less@PAUHWND__@@@std@@V?$allocator@U?$pair@QAUHWND__@@UWndMoveData@@@std@@@4@$0A@@std@@@std@@KAAAPAU_Node@?$_Tree_nod@V?$_Tmap_traits@PAUHWND__@@UWndMoveData@@U?$less@PAUHWND__@@@std@@V?$allocator@U?$pair@QAUHWND__@@UWndMoveData@@@std@@@4@$0A@@std@@@2@PAU342@@Z ; std::_Tree<std::_Tmap_traits<HWND__ *,WndMoveData,std::less<HWND__ *>,std::allocator<std::pair<HWND__ * const,WndMoveData> >,0> >::_Left
  0006e	83 c4 04	 add	 esp, 4
  00071	8b 00		 mov	 eax, DWORD PTR [eax]
  00073	50		 push	 eax
  00074	e8 00 00 00 00	 call	 ?_Parent@?$_Tree@V?$_Tmap_traits@PAUHWND__@@UWndMoveData@@U?$less@PAUHWND__@@@std@@V?$allocator@U?$pair@QAUHWND__@@UWndMoveData@@@std@@@4@$0A@@std@@@std@@KAAAPAU_Node@?$_Tree_nod@V?$_Tmap_traits@PAUHWND__@@UWndMoveData@@U?$less@PAUHWND__@@@std@@V?$allocator@U?$pair@QAUHWND__@@UWndMoveData@@@std@@@4@$0A@@std@@@2@PAU342@@Z ; std::_Tree<std::_Tmap_traits<HWND__ *,WndMoveData,std::less<HWND__ *>,std::allocator<std::pair<HWND__ * const,WndMoveData> >,0> >::_Parent
  00079	83 c4 04	 add	 esp, 4
  0007c	8b 4d 08	 mov	 ecx, DWORD PTR __Wherenode$[ebp]
  0007f	89 08		 mov	 DWORD PTR [eax], ecx
$L188933:

; 1020 : 		_Parent(_Pnode) = _Parent(_Wherenode);

  00081	8b 55 08	 mov	 edx, DWORD PTR __Wherenode$[ebp]
  00084	52		 push	 edx
  00085	e8 00 00 00 00	 call	 ?_Parent@?$_Tree@V?$_Tmap_traits@PAUHWND__@@UWndMoveData@@U?$less@PAUHWND__@@@std@@V?$allocator@U?$pair@QAUHWND__@@UWndMoveData@@@std@@@4@$0A@@std@@@std@@KAAAPAU_Node@?$_Tree_nod@V?$_Tmap_traits@PAUHWND__@@UWndMoveData@@U?$less@PAUHWND__@@@std@@V?$allocator@U?$pair@QAUHWND__@@UWndMoveData@@@std@@@4@$0A@@std@@@2@PAU342@@Z ; std::_Tree<std::_Tmap_traits<HWND__ *,WndMoveData,std::less<HWND__ *>,std::allocator<std::pair<HWND__ * const,WndMoveData> >,0> >::_Parent
  0008a	83 c4 04	 add	 esp, 4
  0008d	8b f0		 mov	 esi, eax
  0008f	8b 45 f8	 mov	 eax, DWORD PTR __Pnode$[ebp]
  00092	50		 push	 eax
  00093	e8 00 00 00 00	 call	 ?_Parent@?$_Tree@V?$_Tmap_traits@PAUHWND__@@UWndMoveData@@U?$less@PAUHWND__@@@std@@V?$allocator@U?$pair@QAUHWND__@@UWndMoveData@@@std@@@4@$0A@@std@@@std@@KAAAPAU_Node@?$_Tree_nod@V?$_Tmap_traits@PAUHWND__@@UWndMoveData@@U?$less@PAUHWND__@@@std@@V?$allocator@U?$pair@QAUHWND__@@UWndMoveData@@@std@@@4@$0A@@std@@@2@PAU342@@Z ; std::_Tree<std::_Tmap_traits<HWND__ *,WndMoveData,std::less<HWND__ *>,std::allocator<std::pair<HWND__ * const,WndMoveData> >,0> >::_Parent
  00098	83 c4 04	 add	 esp, 4
  0009b	8b 0e		 mov	 ecx, DWORD PTR [esi]
  0009d	89 08		 mov	 DWORD PTR [eax], ecx

; 1021 : 
; 1022 : 		if (_Wherenode == _Root())

  0009f	8b 4d fc	 mov	 ecx, DWORD PTR _this$[ebp]
  000a2	e8 00 00 00 00	 call	 ?_Root@?$_Tree@V?$_Tmap_traits@PAUHWND__@@UWndMoveData@@U?$less@PAUHWND__@@@std@@V?$allocator@U?$pair@QAUHWND__@@UWndMoveData@@@std@@@4@$0A@@std@@@std@@IAEAAPAU_Node@?$_Tree_nod@V?$_Tmap_traits@PAUHWND__@@UWndMoveData@@U?$less@PAUHWND__@@@std@@V?$allocator@U?$pair@QAUHWND__@@UWndMoveData@@@std@@@4@$0A@@std@@@2@XZ ; std::_Tree<std::_Tmap_traits<HWND__ *,WndMoveData,std::less<HWND__ *>,std::allocator<std::pair<HWND__ * const,WndMoveData> >,0> >::_Root
  000a7	8b 55 08	 mov	 edx, DWORD PTR __Wherenode$[ebp]
  000aa	3b 10		 cmp	 edx, DWORD PTR [eax]
  000ac	75 0f		 jne	 SHORT $L188934

; 1023 : 			_Root() = _Pnode;

  000ae	8b 4d fc	 mov	 ecx, DWORD PTR _this$[ebp]
  000b1	e8 00 00 00 00	 call	 ?_Root@?$_Tree@V?$_Tmap_traits@PAUHWND__@@UWndMoveData@@U?$less@PAUHWND__@@@std@@V?$allocator@U?$pair@QAUHWND__@@UWndMoveData@@@std@@@4@$0A@@std@@@std@@IAEAAPAU_Node@?$_Tree_nod@V?$_Tmap_traits@PAUHWND__@@UWndMoveData@@U?$less@PAUHWND__@@@std@@V?$allocator@U?$pair@QAUHWND__@@UWndMoveData@@@std@@@4@$0A@@std@@@2@XZ ; std::_Tree<std::_Tmap_traits<HWND__ *,WndMoveData,std::less<HWND__ *>,std::allocator<std::pair<HWND__ * const,WndMoveData> >,0> >::_Root
  000b6	8b 4d f8	 mov	 ecx, DWORD PTR __Pnode$[ebp]
  000b9	89 08		 mov	 DWORD PTR [eax], ecx

; 1024 : 		else if (_Wherenode == _Left(_Parent(_Wherenode)))

  000bb	eb 58		 jmp	 SHORT $L188935
$L188934:
  000bd	8b 55 08	 mov	 edx, DWORD PTR __Wherenode$[ebp]
  000c0	52		 push	 edx
  000c1	e8 00 00 00 00	 call	 ?_Parent@?$_Tree@V?$_Tmap_traits@PAUHWND__@@UWndMoveData@@U?$less@PAUHWND__@@@std@@V?$allocator@U?$pair@QAUHWND__@@UWndMoveData@@@std@@@4@$0A@@std@@@std@@KAAAPAU_Node@?$_Tree_nod@V?$_Tmap_traits@PAUHWND__@@UWndMoveData@@U?$less@PAUHWND__@@@std@@V?$allocator@U?$pair@QAUHWND__@@UWndMoveData@@@std@@@4@$0A@@std@@@2@PAU342@@Z ; std::_Tree<std::_Tmap_traits<HWND__ *,WndMoveData,std::less<HWND__ *>,std::allocator<std::pair<HWND__ * const,WndMoveData> >,0> >::_Parent
  000c6	83 c4 04	 add	 esp, 4
  000c9	8b 00		 mov	 eax, DWORD PTR [eax]
  000cb	50		 push	 eax
  000cc	e8 00 00 00 00	 call	 ?_Left@?$_Tree@V?$_Tmap_traits@PAUHWND__@@UWndMoveData@@U?$less@PAUHWND__@@@std@@V?$allocator@U?$pair@QAUHWND__@@UWndMoveData@@@std@@@4@$0A@@std@@@std@@KAAAPAU_Node@?$_Tree_nod@V?$_Tmap_traits@PAUHWND__@@UWndMoveData@@U?$less@PAUHWND__@@@std@@V?$allocator@U?$pair@QAUHWND__@@UWndMoveData@@@std@@@4@$0A@@std@@@2@PAU342@@Z ; std::_Tree<std::_Tmap_traits<HWND__ *,WndMoveData,std::less<HWND__ *>,std::allocator<std::pair<HWND__ * const,WndMoveData> >,0> >::_Left
  000d1	83 c4 04	 add	 esp, 4
  000d4	8b 4d 08	 mov	 ecx, DWORD PTR __Wherenode$[ebp]
  000d7	3b 08		 cmp	 ecx, DWORD PTR [eax]
  000d9	75 1e		 jne	 SHORT $L188936

; 1025 : 			_Left(_Parent(_Wherenode)) = _Pnode;

  000db	8b 55 08	 mov	 edx, DWORD PTR __Wherenode$[ebp]
  000de	52		 push	 edx
  000df	e8 00 00 00 00	 call	 ?_Parent@?$_Tree@V?$_Tmap_traits@PAUHWND__@@UWndMoveData@@U?$less@PAUHWND__@@@std@@V?$allocator@U?$pair@QAUHWND__@@UWndMoveData@@@std@@@4@$0A@@std@@@std@@KAAAPAU_Node@?$_Tree_nod@V?$_Tmap_traits@PAUHWND__@@UWndMoveData@@U?$less@PAUHWND__@@@std@@V?$allocator@U?$pair@QAUHWND__@@UWndMoveData@@@std@@@4@$0A@@std@@@2@PAU342@@Z ; std::_Tree<std::_Tmap_traits<HWND__ *,WndMoveData,std::less<HWND__ *>,std::allocator<std::pair<HWND__ * const,WndMoveData> >,0> >::_Parent
  000e4	83 c4 04	 add	 esp, 4
  000e7	8b 00		 mov	 eax, DWORD PTR [eax]
  000e9	50		 push	 eax
  000ea	e8 00 00 00 00	 call	 ?_Left@?$_Tree@V?$_Tmap_traits@PAUHWND__@@UWndMoveData@@U?$less@PAUHWND__@@@std@@V?$allocator@U?$pair@QAUHWND__@@UWndMoveData@@@std@@@4@$0A@@std@@@std@@KAAAPAU_Node@?$_Tree_nod@V?$_Tmap_traits@PAUHWND__@@UWndMoveData@@U?$less@PAUHWND__@@@std@@V?$allocator@U?$pair@QAUHWND__@@UWndMoveData@@@std@@@4@$0A@@std@@@2@PAU342@@Z ; std::_Tree<std::_Tmap_traits<HWND__ *,WndMoveData,std::less<HWND__ *>,std::allocator<std::pair<HWND__ * const,WndMoveData> >,0> >::_Left
  000ef	83 c4 04	 add	 esp, 4
  000f2	8b 4d f8	 mov	 ecx, DWORD PTR __Pnode$[ebp]
  000f5	89 08		 mov	 DWORD PTR [eax], ecx

; 1026 : 		else

  000f7	eb 1c		 jmp	 SHORT $L188935
$L188936:

; 1027 : 			_Right(_Parent(_Wherenode)) = _Pnode;

  000f9	8b 55 08	 mov	 edx, DWORD PTR __Wherenode$[ebp]
  000fc	52		 push	 edx
  000fd	e8 00 00 00 00	 call	 ?_Parent@?$_Tree@V?$_Tmap_traits@PAUHWND__@@UWndMoveData@@U?$less@PAUHWND__@@@std@@V?$allocator@U?$pair@QAUHWND__@@UWndMoveData@@@std@@@4@$0A@@std@@@std@@KAAAPAU_Node@?$_Tree_nod@V?$_Tmap_traits@PAUHWND__@@UWndMoveData@@U?$less@PAUHWND__@@@std@@V?$allocator@U?$pair@QAUHWND__@@UWndMoveData@@@std@@@4@$0A@@std@@@2@PAU342@@Z ; std::_Tree<std::_Tmap_traits<HWND__ *,WndMoveData,std::less<HWND__ *>,std::allocator<std::pair<HWND__ * const,WndMoveData> >,0> >::_Parent
  00102	83 c4 04	 add	 esp, 4
  00105	8b 00		 mov	 eax, DWORD PTR [eax]
  00107	50		 push	 eax
  00108	e8 00 00 00 00	 call	 ?_Right@?$_Tree@V?$_Tmap_traits@PAUHWND__@@UWndMoveData@@U?$less@PAUHWND__@@@std@@V?$allocator@U?$pair@QAUHWND__@@UWndMoveData@@@std@@@4@$0A@@std@@@std@@KAAAPAU_Node@?$_Tree_nod@V?$_Tmap_traits@PAUHWND__@@UWndMoveData@@U?$less@PAUHWND__@@@std@@V?$allocator@U?$pair@QAUHWND__@@UWndMoveData@@@std@@@4@$0A@@std@@@2@PAU342@@Z ; std::_Tree<std::_Tmap_traits<HWND__ *,WndMoveData,std::less<HWND__ *>,std::allocator<std::pair<HWND__ * const,WndMoveData> >,0> >::_Right
  0010d	83 c4 04	 add	 esp, 4
  00110	8b 4d f8	 mov	 ecx, DWORD PTR __Pnode$[ebp]
  00113	89 08		 mov	 DWORD PTR [eax], ecx
$L188935:

; 1028 : 
; 1029 : 		_Left(_Pnode) = _Wherenode;

  00115	8b 55 f8	 mov	 edx, DWORD PTR __Pnode$[ebp]
  00118	52		 push	 edx
  00119	e8 00 00 00 00	 call	 ?_Left@?$_Tree@V?$_Tmap_traits@PAUHWND__@@UWndMoveData@@U?$less@PAUHWND__@@@std@@V?$allocator@U?$pair@QAUHWND__@@UWndMoveData@@@std@@@4@$0A@@std@@@std@@KAAAPAU_Node@?$_Tree_nod@V?$_Tmap_traits@PAUHWND__@@UWndMoveData@@U?$less@PAUHWND__@@@std@@V?$allocator@U?$pair@QAUHWND__@@UWndMoveData@@@std@@@4@$0A@@std@@@2@PAU342@@Z ; std::_Tree<std::_Tmap_traits<HWND__ *,WndMoveData,std::less<HWND__ *>,std::allocator<std::pair<HWND__ * const,WndMoveData> >,0> >::_Left
  0011e	83 c4 04	 add	 esp, 4
  00121	8b 4d 08	 mov	 ecx, DWORD PTR __Wherenode$[ebp]
  00124	89 08		 mov	 DWORD PTR [eax], ecx

; 1030 : 		_Parent(_Wherenode) = _Pnode;

  00126	8b 55 08	 mov	 edx, DWORD PTR __Wherenode$[ebp]
  00129	52		 push	 edx
  0012a	e8 00 00 00 00	 call	 ?_Parent@?$_Tree@V?$_Tmap_traits@PAUHWND__@@UWndMoveData@@U?$less@PAUHWND__@@@std@@V?$allocator@U?$pair@QAUHWND__@@UWndMoveData@@@std@@@4@$0A@@std@@@std@@KAAAPAU_Node@?$_Tree_nod@V?$_Tmap_traits@PAUHWND__@@UWndMoveData@@U?$less@PAUHWND__@@@std@@V?$allocator@U?$pair@QAUHWND__@@UWndMoveData@@@std@@@4@$0A@@std@@@2@PAU342@@Z ; std::_Tree<std::_Tmap_traits<HWND__ *,WndMoveData,std::less<HWND__ *>,std::allocator<std::pair<HWND__ * const,WndMoveData> >,0> >::_Parent
  0012f	83 c4 04	 add	 esp, 4
  00132	8b 4d f8	 mov	 ecx, DWORD PTR __Pnode$[ebp]
  00135	89 08		 mov	 DWORD PTR [eax], ecx

; 1031 : 		}

  00137	5e		 pop	 esi
  00138	83 c4 08	 add	 esp, 8
  0013b	3b ec		 cmp	 ebp, esp
  0013d	e8 00 00 00 00	 call	 __RTC_CheckEsp
  00142	8b e5		 mov	 esp, ebp
  00144	5d		 pop	 ebp
  00145	c2 04 00	 ret	 4
?_Lrotate@?$_Tree@V?$_Tmap_traits@PAUHWND__@@UWndMoveData@@U?$less@PAUHWND__@@@std@@V?$allocator@U?$pair@QAUHWND__@@UWndMoveData@@@std@@@4@$0A@@std@@@std@@IAEXPAU_Node@?$_Tree_nod@V?$_Tmap_traits@PAUHWND__@@UWndMoveData@@U?$less@PAUHWND__@@@std@@V?$allocator@U?$pair@QAUHWND__@@UWndMoveData@@@std@@@4@$0A@@std@@@2@@Z ENDP ; std::_Tree<std::_Tmap_traits<HWND__ *,WndMoveData,std::less<HWND__ *>,std::allocator<std::pair<HWND__ * const,WndMoveData> >,0> >::_Lrotate
; Function compile flags: /Odt /RTCsu
_TEXT	ENDS
;	COMDAT ?_Root@?$_Tree@V?$_Tmap_traits@PAUHWND__@@UWndMoveData@@U?$less@PAUHWND__@@@std@@V?$allocator@U?$pair@QAUHWND__@@UWndMoveData@@@std@@@4@$0A@@std@@@std@@IBEAAPAU_Node@?$_Tree_nod@V?$_Tmap_traits@PAUHWND__@@UWndMoveData@@U?$less@PAUHWND__@@@std@@V?$allocator@U?$pair@QAUHWND__@@UWndMoveData@@@std@@@4@$0A@@std@@@2@XZ
_TEXT	SEGMENT
_this$ = -4						; size = 4
?_Root@?$_Tree@V?$_Tmap_traits@PAUHWND__@@UWndMoveData@@U?$less@PAUHWND__@@@std@@V?$allocator@U?$pair@QAUHWND__@@UWndMoveData@@@std@@@4@$0A@@std@@@std@@IBEAAPAU_Node@?$_Tree_nod@V?$_Tmap_traits@PAUHWND__@@UWndMoveData@@U?$less@PAUHWND__@@@std@@V?$allocator@U?$pair@QAUHWND__@@UWndMoveData@@@std@@@4@$0A@@std@@@2@XZ PROC NEAR ; std::_Tree<std::_Tmap_traits<HWND__ *,WndMoveData,std::less<HWND__ *>,std::allocator<std::pair<HWND__ * const,WndMoveData> >,0> >::_Root, COMDAT
; _this$ = ecx

; 1063 : 		{	// return root of nonmutable tree

  00000	55		 push	 ebp
  00001	8b ec		 mov	 ebp, esp
  00003	51		 push	 ecx
  00004	c7 45 fc cc cc
	cc cc		 mov	 DWORD PTR [ebp-4], -858993460 ; ccccccccH
  0000b	89 4d fc	 mov	 DWORD PTR _this$[ebp], ecx

; 1064 : 		return (_Parent(_Myhead));

  0000e	8b 45 fc	 mov	 eax, DWORD PTR _this$[ebp]
  00011	8b 48 04	 mov	 ecx, DWORD PTR [eax+4]
  00014	51		 push	 ecx
  00015	e8 00 00 00 00	 call	 ?_Parent@?$_Tree@V?$_Tmap_traits@PAUHWND__@@UWndMoveData@@U?$less@PAUHWND__@@@std@@V?$allocator@U?$pair@QAUHWND__@@UWndMoveData@@@std@@@4@$0A@@std@@@std@@KAAAPAU_Node@?$_Tree_nod@V?$_Tmap_traits@PAUHWND__@@UWndMoveData@@U?$less@PAUHWND__@@@std@@V?$allocator@U?$pair@QAUHWND__@@UWndMoveData@@@std@@@4@$0A@@std@@@2@PAU342@@Z ; std::_Tree<std::_Tmap_traits<HWND__ *,WndMoveData,std::less<HWND__ *>,std::allocator<std::pair<HWND__ * const,WndMoveData> >,0> >::_Parent
  0001a	83 c4 04	 add	 esp, 4

; 1065 : 		}

  0001d	83 c4 04	 add	 esp, 4
  00020	3b ec		 cmp	 ebp, esp
  00022	e8 00 00 00 00	 call	 __RTC_CheckEsp
  00027	8b e5		 mov	 esp, ebp
  00029	5d		 pop	 ebp
  0002a	c3		 ret	 0
?_Root@?$_Tree@V?$_Tmap_traits@PAUHWND__@@UWndMoveData@@U?$less@PAUHWND__@@@std@@V?$allocator@U?$pair@QAUHWND__@@UWndMoveData@@@std@@@4@$0A@@std@@@std@@IBEAAPAU_Node@?$_Tree_nod@V?$_Tmap_traits@PAUHWND__@@UWndMoveData@@U?$less@PAUHWND__@@@std@@V?$allocator@U?$pair@QAUHWND__@@UWndMoveData@@@std@@@4@$0A@@std@@@2@XZ ENDP ; std::_Tree<std::_Tmap_traits<HWND__ *,WndMoveData,std::less<HWND__ *>,std::allocator<std::pair<HWND__ * const,WndMoveData> >,0> >::_Root
; Function compile flags: /Odt /RTCsu
_TEXT	ENDS
;	COMDAT ?_Rrotate@?$_Tree@V?$_Tmap_traits@PAUHWND__@@UWndMoveData@@U?$less@PAUHWND__@@@std@@V?$allocator@U?$pair@QAUHWND__@@UWndMoveData@@@std@@@4@$0A@@std@@@std@@IAEXPAU_Node@?$_Tree_nod@V?$_Tmap_traits@PAUHWND__@@UWndMoveData@@U?$less@PAUHWND__@@@std@@V?$allocator@U?$pair@QAUHWND__@@UWndMoveData@@@std@@@4@$0A@@std@@@2@@Z
_TEXT	SEGMENT
__Pnode$ = -8						; size = 4
_this$ = -4						; size = 4
__Wherenode$ = 8					; size = 4
?_Rrotate@?$_Tree@V?$_Tmap_traits@PAUHWND__@@UWndMoveData@@U?$less@PAUHWND__@@@std@@V?$allocator@U?$pair@QAUHWND__@@UWndMoveData@@@std@@@4@$0A@@std@@@std@@IAEXPAU_Node@?$_Tree_nod@V?$_Tmap_traits@PAUHWND__@@UWndMoveData@@U?$less@PAUHWND__@@@std@@V?$allocator@U?$pair@QAUHWND__@@UWndMoveData@@@std@@@4@$0A@@std@@@2@@Z PROC NEAR ; std::_Tree<std::_Tmap_traits<HWND__ *,WndMoveData,std::less<HWND__ *>,std::allocator<std::pair<HWND__ * const,WndMoveData> >,0> >::_Rrotate, COMDAT
; _this$ = ecx

; 1068 : 		{	// promote left node to root of subtree

  00000	55		 push	 ebp
  00001	8b ec		 mov	 ebp, esp
  00003	83 ec 08	 sub	 esp, 8
  00006	56		 push	 esi
  00007	c7 45 f8 cc cc
	cc cc		 mov	 DWORD PTR [ebp-8], -858993460 ; ccccccccH
  0000e	c7 45 fc cc cc
	cc cc		 mov	 DWORD PTR [ebp-4], -858993460 ; ccccccccH
  00015	89 4d fc	 mov	 DWORD PTR _this$[ebp], ecx

; 1069 : 		_Nodeptr _Pnode = _Left(_Wherenode);

  00018	8b 45 08	 mov	 eax, DWORD PTR __Wherenode$[ebp]
  0001b	50		 push	 eax
  0001c	e8 00 00 00 00	 call	 ?_Left@?$_Tree@V?$_Tmap_traits@PAUHWND__@@UWndMoveData@@U?$less@PAUHWND__@@@std@@V?$allocator@U?$pair@QAUHWND__@@UWndMoveData@@@std@@@4@$0A@@std@@@std@@KAAAPAU_Node@?$_Tree_nod@V?$_Tmap_traits@PAUHWND__@@UWndMoveData@@U?$less@PAUHWND__@@@std@@V?$allocator@U?$pair@QAUHWND__@@UWndMoveData@@@std@@@4@$0A@@std@@@2@PAU342@@Z ; std::_Tree<std::_Tmap_traits<HWND__ *,WndMoveData,std::less<HWND__ *>,std::allocator<std::pair<HWND__ * const,WndMoveData> >,0> >::_Left
  00021	83 c4 04	 add	 esp, 4
  00024	8b 08		 mov	 ecx, DWORD PTR [eax]
  00026	89 4d f8	 mov	 DWORD PTR __Pnode$[ebp], ecx

; 1070 : 		_Left(_Wherenode) = _Right(_Pnode);

  00029	8b 55 f8	 mov	 edx, DWORD PTR __Pnode$[ebp]
  0002c	52		 push	 edx
  0002d	e8 00 00 00 00	 call	 ?_Right@?$_Tree@V?$_Tmap_traits@PAUHWND__@@UWndMoveData@@U?$less@PAUHWND__@@@std@@V?$allocator@U?$pair@QAUHWND__@@UWndMoveData@@@std@@@4@$0A@@std@@@std@@KAAAPAU_Node@?$_Tree_nod@V?$_Tmap_traits@PAUHWND__@@UWndMoveData@@U?$less@PAUHWND__@@@std@@V?$allocator@U?$pair@QAUHWND__@@UWndMoveData@@@std@@@4@$0A@@std@@@2@PAU342@@Z ; std::_Tree<std::_Tmap_traits<HWND__ *,WndMoveData,std::less<HWND__ *>,std::allocator<std::pair<HWND__ * const,WndMoveData> >,0> >::_Right
  00032	83 c4 04	 add	 esp, 4
  00035	8b f0		 mov	 esi, eax
  00037	8b 45 08	 mov	 eax, DWORD PTR __Wherenode$[ebp]
  0003a	50		 push	 eax
  0003b	e8 00 00 00 00	 call	 ?_Left@?$_Tree@V?$_Tmap_traits@PAUHWND__@@UWndMoveData@@U?$less@PAUHWND__@@@std@@V?$allocator@U?$pair@QAUHWND__@@UWndMoveData@@@std@@@4@$0A@@std@@@std@@KAAAPAU_Node@?$_Tree_nod@V?$_Tmap_traits@PAUHWND__@@UWndMoveData@@U?$less@PAUHWND__@@@std@@V?$allocator@U?$pair@QAUHWND__@@UWndMoveData@@@std@@@4@$0A@@std@@@2@PAU342@@Z ; std::_Tree<std::_Tmap_traits<HWND__ *,WndMoveData,std::less<HWND__ *>,std::allocator<std::pair<HWND__ * const,WndMoveData> >,0> >::_Left
  00040	83 c4 04	 add	 esp, 4
  00043	8b 0e		 mov	 ecx, DWORD PTR [esi]
  00045	89 08		 mov	 DWORD PTR [eax], ecx

; 1071 : 
; 1072 : 		if (!_Isnil(_Right(_Pnode)))

  00047	8b 55 f8	 mov	 edx, DWORD PTR __Pnode$[ebp]
  0004a	52		 push	 edx
  0004b	e8 00 00 00 00	 call	 ?_Right@?$_Tree@V?$_Tmap_traits@PAUHWND__@@UWndMoveData@@U?$less@PAUHWND__@@@std@@V?$allocator@U?$pair@QAUHWND__@@UWndMoveData@@@std@@@4@$0A@@std@@@std@@KAAAPAU_Node@?$_Tree_nod@V?$_Tmap_traits@PAUHWND__@@UWndMoveData@@U?$less@PAUHWND__@@@std@@V?$allocator@U?$pair@QAUHWND__@@UWndMoveData@@@std@@@4@$0A@@std@@@2@PAU342@@Z ; std::_Tree<std::_Tmap_traits<HWND__ *,WndMoveData,std::less<HWND__ *>,std::allocator<std::pair<HWND__ * const,WndMoveData> >,0> >::_Right
  00050	83 c4 04	 add	 esp, 4
  00053	8b 00		 mov	 eax, DWORD PTR [eax]
  00055	50		 push	 eax
  00056	e8 00 00 00 00	 call	 ?_Isnil@?$_Tree@V?$_Tmap_traits@PAUHWND__@@UWndMoveData@@U?$less@PAUHWND__@@@std@@V?$allocator@U?$pair@QAUHWND__@@UWndMoveData@@@std@@@4@$0A@@std@@@std@@KAAADPAU_Node@?$_Tree_nod@V?$_Tmap_traits@PAUHWND__@@UWndMoveData@@U?$less@PAUHWND__@@@std@@V?$allocator@U?$pair@QAUHWND__@@UWndMoveData@@@std@@@4@$0A@@std@@@2@@Z ; std::_Tree<std::_Tmap_traits<HWND__ *,WndMoveData,std::less<HWND__ *>,std::allocator<std::pair<HWND__ * const,WndMoveData> >,0> >::_Isnil
  0005b	83 c4 04	 add	 esp, 4
  0005e	0f be 08	 movsx	 ecx, BYTE PTR [eax]
  00061	85 c9		 test	 ecx, ecx
  00063	75 1c		 jne	 SHORT $L188943

; 1073 : 			_Parent(_Right(_Pnode)) = _Wherenode;

  00065	8b 55 f8	 mov	 edx, DWORD PTR __Pnode$[ebp]
  00068	52		 push	 edx
  00069	e8 00 00 00 00	 call	 ?_Right@?$_Tree@V?$_Tmap_traits@PAUHWND__@@UWndMoveData@@U?$less@PAUHWND__@@@std@@V?$allocator@U?$pair@QAUHWND__@@UWndMoveData@@@std@@@4@$0A@@std@@@std@@KAAAPAU_Node@?$_Tree_nod@V?$_Tmap_traits@PAUHWND__@@UWndMoveData@@U?$less@PAUHWND__@@@std@@V?$allocator@U?$pair@QAUHWND__@@UWndMoveData@@@std@@@4@$0A@@std@@@2@PAU342@@Z ; std::_Tree<std::_Tmap_traits<HWND__ *,WndMoveData,std::less<HWND__ *>,std::allocator<std::pair<HWND__ * const,WndMoveData> >,0> >::_Right
  0006e	83 c4 04	 add	 esp, 4
  00071	8b 00		 mov	 eax, DWORD PTR [eax]
  00073	50		 push	 eax
  00074	e8 00 00 00 00	 call	 ?_Parent@?$_Tree@V?$_Tmap_traits@PAUHWND__@@UWndMoveData@@U?$less@PAUHWND__@@@std@@V?$allocator@U?$pair@QAUHWND__@@UWndMoveData@@@std@@@4@$0A@@std@@@std@@KAAAPAU_Node@?$_Tree_nod@V?$_Tmap_traits@PAUHWND__@@UWndMoveData@@U?$less@PAUHWND__@@@std@@V?$allocator@U?$pair@QAUHWND__@@UWndMoveData@@@std@@@4@$0A@@std@@@2@PAU342@@Z ; std::_Tree<std::_Tmap_traits<HWND__ *,WndMoveData,std::less<HWND__ *>,std::allocator<std::pair<HWND__ * const,WndMoveData> >,0> >::_Parent
  00079	83 c4 04	 add	 esp, 4
  0007c	8b 4d 08	 mov	 ecx, DWORD PTR __Wherenode$[ebp]
  0007f	89 08		 mov	 DWORD PTR [eax], ecx
$L188943:

; 1074 : 		_Parent(_Pnode) = _Parent(_Wherenode);

  00081	8b 55 08	 mov	 edx, DWORD PTR __Wherenode$[ebp]
  00084	52		 push	 edx
  00085	e8 00 00 00 00	 call	 ?_Parent@?$_Tree@V?$_Tmap_traits@PAUHWND__@@UWndMoveData@@U?$less@PAUHWND__@@@std@@V?$allocator@U?$pair@QAUHWND__@@UWndMoveData@@@std@@@4@$0A@@std@@@std@@KAAAPAU_Node@?$_Tree_nod@V?$_Tmap_traits@PAUHWND__@@UWndMoveData@@U?$less@PAUHWND__@@@std@@V?$allocator@U?$pair@QAUHWND__@@UWndMoveData@@@std@@@4@$0A@@std@@@2@PAU342@@Z ; std::_Tree<std::_Tmap_traits<HWND__ *,WndMoveData,std::less<HWND__ *>,std::allocator<std::pair<HWND__ * const,WndMoveData> >,0> >::_Parent
  0008a	83 c4 04	 add	 esp, 4
  0008d	8b f0		 mov	 esi, eax
  0008f	8b 45 f8	 mov	 eax, DWORD PTR __Pnode$[ebp]
  00092	50		 push	 eax
  00093	e8 00 00 00 00	 call	 ?_Parent@?$_Tree@V?$_Tmap_traits@PAUHWND__@@UWndMoveData@@U?$less@PAUHWND__@@@std@@V?$allocator@U?$pair@QAUHWND__@@UWndMoveData@@@std@@@4@$0A@@std@@@std@@KAAAPAU_Node@?$_Tree_nod@V?$_Tmap_traits@PAUHWND__@@UWndMoveData@@U?$less@PAUHWND__@@@std@@V?$allocator@U?$pair@QAUHWND__@@UWndMoveData@@@std@@@4@$0A@@std@@@2@PAU342@@Z ; std::_Tree<std::_Tmap_traits<HWND__ *,WndMoveData,std::less<HWND__ *>,std::allocator<std::pair<HWND__ * const,WndMoveData> >,0> >::_Parent
  00098	83 c4 04	 add	 esp, 4
  0009b	8b 0e		 mov	 ecx, DWORD PTR [esi]
  0009d	89 08		 mov	 DWORD PTR [eax], ecx

; 1075 : 
; 1076 : 		if (_Wherenode == _Root())

  0009f	8b 4d fc	 mov	 ecx, DWORD PTR _this$[ebp]
  000a2	e8 00 00 00 00	 call	 ?_Root@?$_Tree@V?$_Tmap_traits@PAUHWND__@@UWndMoveData@@U?$less@PAUHWND__@@@std@@V?$allocator@U?$pair@QAUHWND__@@UWndMoveData@@@std@@@4@$0A@@std@@@std@@IAEAAPAU_Node@?$_Tree_nod@V?$_Tmap_traits@PAUHWND__@@UWndMoveData@@U?$less@PAUHWND__@@@std@@V?$allocator@U?$pair@QAUHWND__@@UWndMoveData@@@std@@@4@$0A@@std@@@2@XZ ; std::_Tree<std::_Tmap_traits<HWND__ *,WndMoveData,std::less<HWND__ *>,std::allocator<std::pair<HWND__ * const,WndMoveData> >,0> >::_Root
  000a7	8b 55 08	 mov	 edx, DWORD PTR __Wherenode$[ebp]
  000aa	3b 10		 cmp	 edx, DWORD PTR [eax]
  000ac	75 0f		 jne	 SHORT $L188944

; 1077 : 			_Root() = _Pnode;

  000ae	8b 4d fc	 mov	 ecx, DWORD PTR _this$[ebp]
  000b1	e8 00 00 00 00	 call	 ?_Root@?$_Tree@V?$_Tmap_traits@PAUHWND__@@UWndMoveData@@U?$less@PAUHWND__@@@std@@V?$allocator@U?$pair@QAUHWND__@@UWndMoveData@@@std@@@4@$0A@@std@@@std@@IAEAAPAU_Node@?$_Tree_nod@V?$_Tmap_traits@PAUHWND__@@UWndMoveData@@U?$less@PAUHWND__@@@std@@V?$allocator@U?$pair@QAUHWND__@@UWndMoveData@@@std@@@4@$0A@@std@@@2@XZ ; std::_Tree<std::_Tmap_traits<HWND__ *,WndMoveData,std::less<HWND__ *>,std::allocator<std::pair<HWND__ * const,WndMoveData> >,0> >::_Root
  000b6	8b 4d f8	 mov	 ecx, DWORD PTR __Pnode$[ebp]
  000b9	89 08		 mov	 DWORD PTR [eax], ecx

; 1078 : 		else if (_Wherenode == _Right(_Parent(_Wherenode)))

  000bb	eb 58		 jmp	 SHORT $L188945
$L188944:
  000bd	8b 55 08	 mov	 edx, DWORD PTR __Wherenode$[ebp]
  000c0	52		 push	 edx
  000c1	e8 00 00 00 00	 call	 ?_Parent@?$_Tree@V?$_Tmap_traits@PAUHWND__@@UWndMoveData@@U?$less@PAUHWND__@@@std@@V?$allocator@U?$pair@QAUHWND__@@UWndMoveData@@@std@@@4@$0A@@std@@@std@@KAAAPAU_Node@?$_Tree_nod@V?$_Tmap_traits@PAUHWND__@@UWndMoveData@@U?$less@PAUHWND__@@@std@@V?$allocator@U?$pair@QAUHWND__@@UWndMoveData@@@std@@@4@$0A@@std@@@2@PAU342@@Z ; std::_Tree<std::_Tmap_traits<HWND__ *,WndMoveData,std::less<HWND__ *>,std::allocator<std::pair<HWND__ * const,WndMoveData> >,0> >::_Parent
  000c6	83 c4 04	 add	 esp, 4
  000c9	8b 00		 mov	 eax, DWORD PTR [eax]
  000cb	50		 push	 eax
  000cc	e8 00 00 00 00	 call	 ?_Right@?$_Tree@V?$_Tmap_traits@PAUHWND__@@UWndMoveData@@U?$less@PAUHWND__@@@std@@V?$allocator@U?$pair@QAUHWND__@@UWndMoveData@@@std@@@4@$0A@@std@@@std@@KAAAPAU_Node@?$_Tree_nod@V?$_Tmap_traits@PAUHWND__@@UWndMoveData@@U?$less@PAUHWND__@@@std@@V?$allocator@U?$pair@QAUHWND__@@UWndMoveData@@@std@@@4@$0A@@std@@@2@PAU342@@Z ; std::_Tree<std::_Tmap_traits<HWND__ *,WndMoveData,std::less<HWND__ *>,std::allocator<std::pair<HWND__ * const,WndMoveData> >,0> >::_Right
  000d1	83 c4 04	 add	 esp, 4
  000d4	8b 4d 08	 mov	 ecx, DWORD PTR __Wherenode$[ebp]
  000d7	3b 08		 cmp	 ecx, DWORD PTR [eax]
  000d9	75 1e		 jne	 SHORT $L188946

; 1079 : 			_Right(_Parent(_Wherenode)) = _Pnode;

  000db	8b 55 08	 mov	 edx, DWORD PTR __Wherenode$[ebp]
  000de	52		 push	 edx
  000df	e8 00 00 00 00	 call	 ?_Parent@?$_Tree@V?$_Tmap_traits@PAUHWND__@@UWndMoveData@@U?$less@PAUHWND__@@@std@@V?$allocator@U?$pair@QAUHWND__@@UWndMoveData@@@std@@@4@$0A@@std@@@std@@KAAAPAU_Node@?$_Tree_nod@V?$_Tmap_traits@PAUHWND__@@UWndMoveData@@U?$less@PAUHWND__@@@std@@V?$allocator@U?$pair@QAUHWND__@@UWndMoveData@@@std@@@4@$0A@@std@@@2@PAU342@@Z ; std::_Tree<std::_Tmap_traits<HWND__ *,WndMoveData,std::less<HWND__ *>,std::allocator<std::pair<HWND__ * const,WndMoveData> >,0> >::_Parent
  000e4	83 c4 04	 add	 esp, 4
  000e7	8b 00		 mov	 eax, DWORD PTR [eax]
  000e9	50		 push	 eax
  000ea	e8 00 00 00 00	 call	 ?_Right@?$_Tree@V?$_Tmap_traits@PAUHWND__@@UWndMoveData@@U?$less@PAUHWND__@@@std@@V?$allocator@U?$pair@QAUHWND__@@UWndMoveData@@@std@@@4@$0A@@std@@@std@@KAAAPAU_Node@?$_Tree_nod@V?$_Tmap_traits@PAUHWND__@@UWndMoveData@@U?$less@PAUHWND__@@@std@@V?$allocator@U?$pair@QAUHWND__@@UWndMoveData@@@std@@@4@$0A@@std@@@2@PAU342@@Z ; std::_Tree<std::_Tmap_traits<HWND__ *,WndMoveData,std::less<HWND__ *>,std::allocator<std::pair<HWND__ * const,WndMoveData> >,0> >::_Right
  000ef	83 c4 04	 add	 esp, 4
  000f2	8b 4d f8	 mov	 ecx, DWORD PTR __Pnode$[ebp]
  000f5	89 08		 mov	 DWORD PTR [eax], ecx

; 1080 : 		else

  000f7	eb 1c		 jmp	 SHORT $L188945
$L188946:

; 1081 : 			_Left(_Parent(_Wherenode)) = _Pnode;

  000f9	8b 55 08	 mov	 edx, DWORD PTR __Wherenode$[ebp]
  000fc	52		 push	 edx
  000fd	e8 00 00 00 00	 call	 ?_Parent@?$_Tree@V?$_Tmap_traits@PAUHWND__@@UWndMoveData@@U?$less@PAUHWND__@@@std@@V?$allocator@U?$pair@QAUHWND__@@UWndMoveData@@@std@@@4@$0A@@std@@@std@@KAAAPAU_Node@?$_Tree_nod@V?$_Tmap_traits@PAUHWND__@@UWndMoveData@@U?$less@PAUHWND__@@@std@@V?$allocator@U?$pair@QAUHWND__@@UWndMoveData@@@std@@@4@$0A@@std@@@2@PAU342@@Z ; std::_Tree<std::_Tmap_traits<HWND__ *,WndMoveData,std::less<HWND__ *>,std::allocator<std::pair<HWND__ * const,WndMoveData> >,0> >::_Parent
  00102	83 c4 04	 add	 esp, 4
  00105	8b 00		 mov	 eax, DWORD PTR [eax]
  00107	50		 push	 eax
  00108	e8 00 00 00 00	 call	 ?_Left@?$_Tree@V?$_Tmap_traits@PAUHWND__@@UWndMoveData@@U?$less@PAUHWND__@@@std@@V?$allocator@U?$pair@QAUHWND__@@UWndMoveData@@@std@@@4@$0A@@std@@@std@@KAAAPAU_Node@?$_Tree_nod@V?$_Tmap_traits@PAUHWND__@@UWndMoveData@@U?$less@PAUHWND__@@@std@@V?$allocator@U?$pair@QAUHWND__@@UWndMoveData@@@std@@@4@$0A@@std@@@2@PAU342@@Z ; std::_Tree<std::_Tmap_traits<HWND__ *,WndMoveData,std::less<HWND__ *>,std::allocator<std::pair<HWND__ * const,WndMoveData> >,0> >::_Left
  0010d	83 c4 04	 add	 esp, 4
  00110	8b 4d f8	 mov	 ecx, DWORD PTR __Pnode$[ebp]
  00113	89 08		 mov	 DWORD PTR [eax], ecx
$L188945:

; 1082 : 
; 1083 : 		_Right(_Pnode) = _Wherenode;

  00115	8b 55 f8	 mov	 edx, DWORD PTR __Pnode$[ebp]
  00118	52		 push	 edx
  00119	e8 00 00 00 00	 call	 ?_Right@?$_Tree@V?$_Tmap_traits@PAUHWND__@@UWndMoveData@@U?$less@PAUHWND__@@@std@@V?$allocator@U?$pair@QAUHWND__@@UWndMoveData@@@std@@@4@$0A@@std@@@std@@KAAAPAU_Node@?$_Tree_nod@V?$_Tmap_traits@PAUHWND__@@UWndMoveData@@U?$less@PAUHWND__@@@std@@V?$allocator@U?$pair@QAUHWND__@@UWndMoveData@@@std@@@4@$0A@@std@@@2@PAU342@@Z ; std::_Tree<std::_Tmap_traits<HWND__ *,WndMoveData,std::less<HWND__ *>,std::allocator<std::pair<HWND__ * const,WndMoveData> >,0> >::_Right
  0011e	83 c4 04	 add	 esp, 4
  00121	8b 4d 08	 mov	 ecx, DWORD PTR __Wherenode$[ebp]
  00124	89 08		 mov	 DWORD PTR [eax], ecx

; 1084 : 		_Parent(_Wherenode) = _Pnode;

  00126	8b 55 08	 mov	 edx, DWORD PTR __Wherenode$[ebp]
  00129	52		 push	 edx
  0012a	e8 00 00 00 00	 call	 ?_Parent@?$_Tree@V?$_Tmap_traits@PAUHWND__@@UWndMoveData@@U?$less@PAUHWND__@@@std@@V?$allocator@U?$pair@QAUHWND__@@UWndMoveData@@@std@@@4@$0A@@std@@@std@@KAAAPAU_Node@?$_Tree_nod@V?$_Tmap_traits@PAUHWND__@@UWndMoveData@@U?$less@PAUHWND__@@@std@@V?$allocator@U?$pair@QAUHWND__@@UWndMoveData@@@std@@@4@$0A@@std@@@2@PAU342@@Z ; std::_Tree<std::_Tmap_traits<HWND__ *,WndMoveData,std::less<HWND__ *>,std::allocator<std::pair<HWND__ * const,WndMoveData> >,0> >::_Parent
  0012f	83 c4 04	 add	 esp, 4
  00132	8b 4d f8	 mov	 ecx, DWORD PTR __Pnode$[ebp]
  00135	89 08		 mov	 DWORD PTR [eax], ecx

; 1085 : 		}

  00137	5e		 pop	 esi
  00138	83 c4 08	 add	 esp, 8
  0013b	3b ec		 cmp	 ebp, esp
  0013d	e8 00 00 00 00	 call	 __RTC_CheckEsp
  00142	8b e5		 mov	 esp, ebp
  00144	5d		 pop	 ebp
  00145	c2 04 00	 ret	 4
?_Rrotate@?$_Tree@V?$_Tmap_traits@PAUHWND__@@UWndMoveData@@U?$less@PAUHWND__@@@std@@V?$allocator@U?$pair@QAUHWND__@@UWndMoveData@@@std@@@4@$0A@@std@@@std@@IAEXPAU_Node@?$_Tree_nod@V?$_Tmap_traits@PAUHWND__@@UWndMoveData@@U?$less@PAUHWND__@@@std@@V?$allocator@U?$pair@QAUHWND__@@UWndMoveData@@@std@@@4@$0A@@std@@@2@@Z ENDP ; std::_Tree<std::_Tmap_traits<HWND__ *,WndMoveData,std::less<HWND__ *>,std::allocator<std::pair<HWND__ * const,WndMoveData> >,0> >::_Rrotate
_TEXT	ENDS
PUBLIC	?allocate@?$allocator@U_Node@?$_Tree_nod@V?$_Tmap_traits@PAUHWND__@@UWndMoveData@@U?$less@PAUHWND__@@@std@@V?$allocator@U?$pair@QAUHWND__@@UWndMoveData@@@std@@@4@$0A@@std@@@std@@@std@@QAEPAU_Node@?$_Tree_nod@V?$_Tmap_traits@PAUHWND__@@UWndMoveData@@U?$less@PAUHWND__@@@std@@V?$allocator@U?$pair@QAUHWND__@@UWndMoveData@@@std@@@4@$0A@@std@@@2@I@Z ; std::allocator<std::_Tree_nod<std::_Tmap_traits<HWND__ *,WndMoveData,std::less<HWND__ *>,std::allocator<std::pair<HWND__ * const,WndMoveData> >,0> >::_Node>::allocate
PUBLIC	?construct@?$allocator@PAU_Node@?$_Tree_nod@V?$_Tmap_traits@PAUHWND__@@UWndMoveData@@U?$less@PAUHWND__@@@std@@V?$allocator@U?$pair@QAUHWND__@@UWndMoveData@@@std@@@4@$0A@@std@@@std@@@std@@QAEXPAPAU_Node@?$_Tree_nod@V?$_Tmap_traits@PAUHWND__@@UWndMoveData@@U?$less@PAUHWND__@@@std@@V?$allocator@U?$pair@QAUHWND__@@UWndMoveData@@@std@@@4@$0A@@std@@@2@ABQAU342@@Z ; std::allocator<std::_Tree_nod<std::_Tmap_traits<HWND__ *,WndMoveData,std::less<HWND__ *>,std::allocator<std::pair<HWND__ * const,WndMoveData> >,0> >::_Node *>::construct
;	COMDAT xdata$x
xdata$x	SEGMENT
$T189839 DD	0ffffffffH
	DD	00H
	DD	0ffffffffH
	DD	00H
$T189841 DD	00H
	DD	00H
	DD	00H
	DD	FLAT:$L189835
$T189840 DD	00H
	DD	00H
	DD	01H
	DD	01H
	DD	FLAT:$T189841
$T189837 DD	019930520H
	DD	02H
	DD	FLAT:$T189839
	DD	01H
	DD	FLAT:$T189840
	DD	2 DUP(00H)
; Function compile flags: /Odt /RTCsu
xdata$x	ENDS
;	COMDAT ?_Buynode@?$_Tree@V?$_Tmap_traits@PAUHWND__@@UWndMoveData@@U?$less@PAUHWND__@@@std@@V?$allocator@U?$pair@QAUHWND__@@UWndMoveData@@@std@@@4@$0A@@std@@@std@@IAEPAU_Node@?$_Tree_nod@V?$_Tmap_traits@PAUHWND__@@UWndMoveData@@U?$less@PAUHWND__@@@std@@V?$allocator@U?$pair@QAUHWND__@@UWndMoveData@@@std@@@4@$0A@@std@@@2@XZ
_TEXT	SEGMENT
tv145 = -52						; size = 4
tv144 = -48						; size = 4
tv143 = -44						; size = 4
$T189833 = -40						; size = 4
$T189832 = -36						; size = 4
$T189831 = -32						; size = 4
__Linkcnt$ = -28					; size = 4
__Wherenode$ = -24					; size = 4
_this$ = -20						; size = 4
__$EHRec$ = -16						; size = 16
?_Buynode@?$_Tree@V?$_Tmap_traits@PAUHWND__@@UWndMoveData@@U?$less@PAUHWND__@@@std@@V?$allocator@U?$pair@QAUHWND__@@UWndMoveData@@@std@@@4@$0A@@std@@@std@@IAEPAU_Node@?$_Tree_nod@V?$_Tmap_traits@PAUHWND__@@UWndMoveData@@U?$less@PAUHWND__@@@std@@V?$allocator@U?$pair@QAUHWND__@@UWndMoveData@@@std@@@4@$0A@@std@@@2@XZ PROC NEAR ; std::_Tree<std::_Tmap_traits<HWND__ *,WndMoveData,std::less<HWND__ *>,std::allocator<std::pair<HWND__ * const,WndMoveData> >,0> >::_Buynode, COMDAT
; _this$ = ecx

; 1105 : 		{	// allocate a head/nil node

  00000	55		 push	 ebp
  00001	8b ec		 mov	 ebp, esp
  00003	6a ff		 push	 -1
  00005	68 00 00 00 00	 push	 __ehhandler$?_Buynode@?$_Tree@V?$_Tmap_traits@PAUHWND__@@UWndMoveData@@U?$less@PAUHWND__@@@std@@V?$allocator@U?$pair@QAUHWND__@@UWndMoveData@@@std@@@4@$0A@@std@@@std@@IAEPAU_Node@?$_Tree_nod@V?$_Tmap_traits@PAUHWND__@@UWndMoveData@@U?$less@PAUHWND__@@@std@@V?$allocator@U?$pair@QAUHWND__@@UWndMoveData@@@std@@@4@$0A@@std@@@2@XZ
  0000a	64 a1 00 00 00
	00		 mov	 eax, DWORD PTR fs:__except_list
  00010	50		 push	 eax
  00011	64 89 25 00 00
	00 00		 mov	 DWORD PTR fs:__except_list, esp
  00018	51		 push	 ecx
  00019	83 ec 24	 sub	 esp, 36			; 00000024H
  0001c	53		 push	 ebx
  0001d	56		 push	 esi
  0001e	57		 push	 edi
  0001f	b8 cc cc cc cc	 mov	 eax, -858993460		; ccccccccH
  00024	89 45 cc	 mov	 DWORD PTR [ebp-52], eax
  00027	89 45 d0	 mov	 DWORD PTR [ebp-48], eax
  0002a	89 45 d4	 mov	 DWORD PTR [ebp-44], eax
  0002d	89 45 d8	 mov	 DWORD PTR [ebp-40], eax
  00030	89 45 dc	 mov	 DWORD PTR [ebp-36], eax
  00033	89 45 e0	 mov	 DWORD PTR [ebp-32], eax
  00036	89 45 e4	 mov	 DWORD PTR [ebp-28], eax
  00039	89 45 e8	 mov	 DWORD PTR [ebp-24], eax
  0003c	89 45 ec	 mov	 DWORD PTR [ebp-20], eax
  0003f	89 65 f0	 mov	 DWORD PTR __$EHRec$[ebp], esp
  00042	89 4d ec	 mov	 DWORD PTR _this$[ebp], ecx

; 1106 : 		_Nodeptr _Wherenode = this->_Alnod.allocate(1);

  00045	6a 01		 push	 1
  00047	8b 4d ec	 mov	 ecx, DWORD PTR _this$[ebp]
  0004a	83 c1 01	 add	 ecx, 1
  0004d	e8 00 00 00 00	 call	 ?allocate@?$allocator@U_Node@?$_Tree_nod@V?$_Tmap_traits@PAUHWND__@@UWndMoveData@@U?$less@PAUHWND__@@@std@@V?$allocator@U?$pair@QAUHWND__@@UWndMoveData@@@std@@@4@$0A@@std@@@std@@@std@@QAEPAU_Node@?$_Tree_nod@V?$_Tmap_traits@PAUHWND__@@UWndMoveData@@U?$less@PAUHWND__@@@std@@V?$allocator@U?$pair@QAUHWND__@@UWndMoveData@@@std@@@4@$0A@@std@@@2@I@Z ; std::allocator<std::_Tree_nod<std::_Tmap_traits<HWND__ *,WndMoveData,std::less<HWND__ *>,std::allocator<std::pair<HWND__ * const,WndMoveData> >,0> >::_Node>::allocate
  00052	89 45 e8	 mov	 DWORD PTR __Wherenode$[ebp], eax

; 1107 : 		int _Linkcnt = 0;

  00055	c7 45 e4 00 00
	00 00		 mov	 DWORD PTR __Linkcnt$[ebp], 0

; 1108 : 
; 1109 : 		_TRY_BEGIN

  0005c	c7 45 fc 00 00
	00 00		 mov	 DWORD PTR __$EHRec$[ebp+12], 0

; 1110 : 		this->_Alptr.construct(&_Left(_Wherenode), 0);

  00063	c7 45 e0 00 00
	00 00		 mov	 DWORD PTR $T189831[ebp], 0
  0006a	8b 45 e8	 mov	 eax, DWORD PTR __Wherenode$[ebp]
  0006d	50		 push	 eax
  0006e	e8 00 00 00 00	 call	 ?_Left@?$_Tree@V?$_Tmap_traits@PAUHWND__@@UWndMoveData@@U?$less@PAUHWND__@@@std@@V?$allocator@U?$pair@QAUHWND__@@UWndMoveData@@@std@@@4@$0A@@std@@@std@@KAAAPAU_Node@?$_Tree_nod@V?$_Tmap_traits@PAUHWND__@@UWndMoveData@@U?$less@PAUHWND__@@@std@@V?$allocator@U?$pair@QAUHWND__@@UWndMoveData@@@std@@@4@$0A@@std@@@2@PAU342@@Z ; std::_Tree<std::_Tmap_traits<HWND__ *,WndMoveData,std::less<HWND__ *>,std::allocator<std::pair<HWND__ * const,WndMoveData> >,0> >::_Left
  00073	83 c4 04	 add	 esp, 4
  00076	89 45 d4	 mov	 DWORD PTR tv143[ebp], eax
  00079	8d 4d e0	 lea	 ecx, DWORD PTR $T189831[ebp]
  0007c	51		 push	 ecx
  0007d	8b 55 d4	 mov	 edx, DWORD PTR tv143[ebp]
  00080	52		 push	 edx
  00081	8b 4d ec	 mov	 ecx, DWORD PTR _this$[ebp]
  00084	83 c1 02	 add	 ecx, 2
  00087	e8 00 00 00 00	 call	 ?construct@?$allocator@PAU_Node@?$_Tree_nod@V?$_Tmap_traits@PAUHWND__@@UWndMoveData@@U?$less@PAUHWND__@@@std@@V?$allocator@U?$pair@QAUHWND__@@UWndMoveData@@@std@@@4@$0A@@std@@@std@@@std@@QAEXPAPAU_Node@?$_Tree_nod@V?$_Tmap_traits@PAUHWND__@@UWndMoveData@@U?$less@PAUHWND__@@@std@@V?$allocator@U?$pair@QAUHWND__@@UWndMoveData@@@std@@@4@$0A@@std@@@2@ABQAU342@@Z ; std::allocator<std::_Tree_nod<std::_Tmap_traits<HWND__ *,WndMoveData,std::less<HWND__ *>,std::allocator<std::pair<HWND__ * const,WndMoveData> >,0> >::_Node *>::construct

; 1111 : 		++_Linkcnt;

  0008c	8b 45 e4	 mov	 eax, DWORD PTR __Linkcnt$[ebp]
  0008f	83 c0 01	 add	 eax, 1
  00092	89 45 e4	 mov	 DWORD PTR __Linkcnt$[ebp], eax

; 1112 : 		this->_Alptr.construct(&_Parent(_Wherenode), 0);

  00095	c7 45 dc 00 00
	00 00		 mov	 DWORD PTR $T189832[ebp], 0
  0009c	8b 4d e8	 mov	 ecx, DWORD PTR __Wherenode$[ebp]
  0009f	51		 push	 ecx
  000a0	e8 00 00 00 00	 call	 ?_Parent@?$_Tree@V?$_Tmap_traits@PAUHWND__@@UWndMoveData@@U?$less@PAUHWND__@@@std@@V?$allocator@U?$pair@QAUHWND__@@UWndMoveData@@@std@@@4@$0A@@std@@@std@@KAAAPAU_Node@?$_Tree_nod@V?$_Tmap_traits@PAUHWND__@@UWndMoveData@@U?$less@PAUHWND__@@@std@@V?$allocator@U?$pair@QAUHWND__@@UWndMoveData@@@std@@@4@$0A@@std@@@2@PAU342@@Z ; std::_Tree<std::_Tmap_traits<HWND__ *,WndMoveData,std::less<HWND__ *>,std::allocator<std::pair<HWND__ * const,WndMoveData> >,0> >::_Parent
  000a5	83 c4 04	 add	 esp, 4
  000a8	89 45 d0	 mov	 DWORD PTR tv144[ebp], eax
  000ab	8d 55 dc	 lea	 edx, DWORD PTR $T189832[ebp]
  000ae	52		 push	 edx
  000af	8b 45 d0	 mov	 eax, DWORD PTR tv144[ebp]
  000b2	50		 push	 eax
  000b3	8b 4d ec	 mov	 ecx, DWORD PTR _this$[ebp]
  000b6	83 c1 02	 add	 ecx, 2
  000b9	e8 00 00 00 00	 call	 ?construct@?$allocator@PAU_Node@?$_Tree_nod@V?$_Tmap_traits@PAUHWND__@@UWndMoveData@@U?$less@PAUHWND__@@@std@@V?$allocator@U?$pair@QAUHWND__@@UWndMoveData@@@std@@@4@$0A@@std@@@std@@@std@@QAEXPAPAU_Node@?$_Tree_nod@V?$_Tmap_traits@PAUHWND__@@UWndMoveData@@U?$less@PAUHWND__@@@std@@V?$allocator@U?$pair@QAUHWND__@@UWndMoveData@@@std@@@4@$0A@@std@@@2@ABQAU342@@Z ; std::allocator<std::_Tree_nod<std::_Tmap_traits<HWND__ *,WndMoveData,std::less<HWND__ *>,std::allocator<std::pair<HWND__ * const,WndMoveData> >,0> >::_Node *>::construct

; 1113 : 		++_Linkcnt;

  000be	8b 4d e4	 mov	 ecx, DWORD PTR __Linkcnt$[ebp]
  000c1	83 c1 01	 add	 ecx, 1
  000c4	89 4d e4	 mov	 DWORD PTR __Linkcnt$[ebp], ecx

; 1114 : 		this->_Alptr.construct(&_Right(_Wherenode), 0);

  000c7	c7 45 d8 00 00
	00 00		 mov	 DWORD PTR $T189833[ebp], 0
  000ce	8b 55 e8	 mov	 edx, DWORD PTR __Wherenode$[ebp]
  000d1	52		 push	 edx
  000d2	e8 00 00 00 00	 call	 ?_Right@?$_Tree@V?$_Tmap_traits@PAUHWND__@@UWndMoveData@@U?$less@PAUHWND__@@@std@@V?$allocator@U?$pair@QAUHWND__@@UWndMoveData@@@std@@@4@$0A@@std@@@std@@KAAAPAU_Node@?$_Tree_nod@V?$_Tmap_traits@PAUHWND__@@UWndMoveData@@U?$less@PAUHWND__@@@std@@V?$allocator@U?$pair@QAUHWND__@@UWndMoveData@@@std@@@4@$0A@@std@@@2@PAU342@@Z ; std::_Tree<std::_Tmap_traits<HWND__ *,WndMoveData,std::less<HWND__ *>,std::allocator<std::pair<HWND__ * const,WndMoveData> >,0> >::_Right
  000d7	83 c4 04	 add	 esp, 4
  000da	89 45 cc	 mov	 DWORD PTR tv145[ebp], eax
  000dd	8d 45 d8	 lea	 eax, DWORD PTR $T189833[ebp]
  000e0	50		 push	 eax
  000e1	8b 4d cc	 mov	 ecx, DWORD PTR tv145[ebp]
  000e4	51		 push	 ecx
  000e5	8b 4d ec	 mov	 ecx, DWORD PTR _this$[ebp]
  000e8	83 c1 02	 add	 ecx, 2
  000eb	e8 00 00 00 00	 call	 ?construct@?$allocator@PAU_Node@?$_Tree_nod@V?$_Tmap_traits@PAUHWND__@@UWndMoveData@@U?$less@PAUHWND__@@@std@@V?$allocator@U?$pair@QAUHWND__@@UWndMoveData@@@std@@@4@$0A@@std@@@std@@@std@@QAEXPAPAU_Node@?$_Tree_nod@V?$_Tmap_traits@PAUHWND__@@UWndMoveData@@U?$less@PAUHWND__@@@std@@V?$allocator@U?$pair@QAUHWND__@@UWndMoveData@@@std@@@4@$0A@@std@@@2@ABQAU342@@Z ; std::allocator<std::_Tree_nod<std::_Tmap_traits<HWND__ *,WndMoveData,std::less<HWND__ *>,std::allocator<std::pair<HWND__ * const,WndMoveData> >,0> >::_Node *>::construct
  000f0	eb 56		 jmp	 SHORT $L189834
$L189835:

; 1115 : 		_CATCH_ALL
; 1116 : 		if (1 < _Linkcnt)

  000f2	83 7d e4 01	 cmp	 DWORD PTR __Linkcnt$[ebp], 1
  000f6	7e 18		 jle	 SHORT $L188956

; 1117 : 			this->_Alptr.destroy(&_Parent(_Wherenode));

  000f8	8b 55 e8	 mov	 edx, DWORD PTR __Wherenode$[ebp]
  000fb	52		 push	 edx
  000fc	e8 00 00 00 00	 call	 ?_Parent@?$_Tree@V?$_Tmap_traits@PAUHWND__@@UWndMoveData@@U?$less@PAUHWND__@@@std@@V?$allocator@U?$pair@QAUHWND__@@UWndMoveData@@@std@@@4@$0A@@std@@@std@@KAAAPAU_Node@?$_Tree_nod@V?$_Tmap_traits@PAUHWND__@@UWndMoveData@@U?$less@PAUHWND__@@@std@@V?$allocator@U?$pair@QAUHWND__@@UWndMoveData@@@std@@@4@$0A@@std@@@2@PAU342@@Z ; std::_Tree<std::_Tmap_traits<HWND__ *,WndMoveData,std::less<HWND__ *>,std::allocator<std::pair<HWND__ * const,WndMoveData> >,0> >::_Parent
  00101	83 c4 04	 add	 esp, 4
  00104	50		 push	 eax
  00105	8b 4d ec	 mov	 ecx, DWORD PTR _this$[ebp]
  00108	83 c1 02	 add	 ecx, 2
  0010b	e8 00 00 00 00	 call	 ?destroy@?$allocator@PAU_Node@?$_Tree_nod@V?$_Tmap_traits@PAUHWND__@@UWndMoveData@@U?$less@PAUHWND__@@@std@@V?$allocator@U?$pair@QAUHWND__@@UWndMoveData@@@std@@@4@$0A@@std@@@std@@@std@@QAEXPAPAU_Node@?$_Tree_nod@V?$_Tmap_traits@PAUHWND__@@UWndMoveData@@U?$less@PAUHWND__@@@std@@V?$allocator@U?$pair@QAUHWND__@@UWndMoveData@@@std@@@4@$0A@@std@@@2@@Z ; std::allocator<std::_Tree_nod<std::_Tmap_traits<HWND__ *,WndMoveData,std::less<HWND__ *>,std::allocator<std::pair<HWND__ * const,WndMoveData> >,0> >::_Node *>::destroy
$L188956:

; 1118 : 		if (0 < _Linkcnt)

  00110	83 7d e4 00	 cmp	 DWORD PTR __Linkcnt$[ebp], 0
  00114	7e 18		 jle	 SHORT $L188957

; 1119 : 			this->_Alptr.destroy(&_Left(_Wherenode));

  00116	8b 45 e8	 mov	 eax, DWORD PTR __Wherenode$[ebp]
  00119	50		 push	 eax
  0011a	e8 00 00 00 00	 call	 ?_Left@?$_Tree@V?$_Tmap_traits@PAUHWND__@@UWndMoveData@@U?$less@PAUHWND__@@@std@@V?$allocator@U?$pair@QAUHWND__@@UWndMoveData@@@std@@@4@$0A@@std@@@std@@KAAAPAU_Node@?$_Tree_nod@V?$_Tmap_traits@PAUHWND__@@UWndMoveData@@U?$less@PAUHWND__@@@std@@V?$allocator@U?$pair@QAUHWND__@@UWndMoveData@@@std@@@4@$0A@@std@@@2@PAU342@@Z ; std::_Tree<std::_Tmap_traits<HWND__ *,WndMoveData,std::less<HWND__ *>,std::allocator<std::pair<HWND__ * const,WndMoveData> >,0> >::_Left
  0011f	83 c4 04	 add	 esp, 4
  00122	50		 push	 eax
  00123	8b 4d ec	 mov	 ecx, DWORD PTR _this$[ebp]
  00126	83 c1 02	 add	 ecx, 2
  00129	e8 00 00 00 00	 call	 ?destroy@?$allocator@PAU_Node@?$_Tree_nod@V?$_Tmap_traits@PAUHWND__@@UWndMoveData@@U?$less@PAUHWND__@@@std@@V?$allocator@U?$pair@QAUHWND__@@UWndMoveData@@@std@@@4@$0A@@std@@@std@@@std@@QAEXPAPAU_Node@?$_Tree_nod@V?$_Tmap_traits@PAUHWND__@@UWndMoveData@@U?$less@PAUHWND__@@@std@@V?$allocator@U?$pair@QAUHWND__@@UWndMoveData@@@std@@@4@$0A@@std@@@2@@Z ; std::allocator<std::_Tree_nod<std::_Tmap_traits<HWND__ *,WndMoveData,std::less<HWND__ *>,std::allocator<std::pair<HWND__ * const,WndMoveData> >,0> >::_Node *>::destroy
$L188957:

; 1120 : 		this->_Alnod.deallocate(_Wherenode, 1);

  0012e	6a 01		 push	 1
  00130	8b 4d e8	 mov	 ecx, DWORD PTR __Wherenode$[ebp]
  00133	51		 push	 ecx
  00134	8b 4d ec	 mov	 ecx, DWORD PTR _this$[ebp]
  00137	83 c1 01	 add	 ecx, 1
  0013a	e8 00 00 00 00	 call	 ?deallocate@?$allocator@U_Node@?$_Tree_nod@V?$_Tmap_traits@PAUHWND__@@UWndMoveData@@U?$less@PAUHWND__@@@std@@V?$allocator@U?$pair@QAUHWND__@@UWndMoveData@@@std@@@4@$0A@@std@@@std@@@std@@QAEXPAU_Node@?$_Tree_nod@V?$_Tmap_traits@PAUHWND__@@UWndMoveData@@U?$less@PAUHWND__@@@std@@V?$allocator@U?$pair@QAUHWND__@@UWndMoveData@@@std@@@4@$0A@@std@@@2@I@Z ; std::allocator<std::_Tree_nod<std::_Tmap_traits<HWND__ *,WndMoveData,std::less<HWND__ *>,std::allocator<std::pair<HWND__ * const,WndMoveData> >,0> >::_Node>::deallocate

; 1121 : 		_RERAISE;

  0013f	6a 00		 push	 0
  00141	6a 00		 push	 0
  00143	e8 00 00 00 00	 call	 __CxxThrowException@8
$L189834:

; 1122 : 		_CATCH_END

  00148	c7 45 fc ff ff
	ff ff		 mov	 DWORD PTR __$EHRec$[ebp+12], -1

; 1123 : 		_Color(_Wherenode) = _Black;

  0014f	8b 55 e8	 mov	 edx, DWORD PTR __Wherenode$[ebp]
  00152	52		 push	 edx
  00153	e8 00 00 00 00	 call	 ?_Color@?$_Tree@V?$_Tmap_traits@PAUHWND__@@UWndMoveData@@U?$less@PAUHWND__@@@std@@V?$allocator@U?$pair@QAUHWND__@@UWndMoveData@@@std@@@4@$0A@@std@@@std@@KAAADPAU_Node@?$_Tree_nod@V?$_Tmap_traits@PAUHWND__@@UWndMoveData@@U?$less@PAUHWND__@@@std@@V?$allocator@U?$pair@QAUHWND__@@UWndMoveData@@@std@@@4@$0A@@std@@@2@@Z ; std::_Tree<std::_Tmap_traits<HWND__ *,WndMoveData,std::less<HWND__ *>,std::allocator<std::pair<HWND__ * const,WndMoveData> >,0> >::_Color
  00158	83 c4 04	 add	 esp, 4
  0015b	c6 00 01	 mov	 BYTE PTR [eax], 1

; 1124 : 		_Isnil(_Wherenode) = false;

  0015e	8b 45 e8	 mov	 eax, DWORD PTR __Wherenode$[ebp]
  00161	50		 push	 eax
  00162	e8 00 00 00 00	 call	 ?_Isnil@?$_Tree@V?$_Tmap_traits@PAUHWND__@@UWndMoveData@@U?$less@PAUHWND__@@@std@@V?$allocator@U?$pair@QAUHWND__@@UWndMoveData@@@std@@@4@$0A@@std@@@std@@KAAADPAU_Node@?$_Tree_nod@V?$_Tmap_traits@PAUHWND__@@UWndMoveData@@U?$less@PAUHWND__@@@std@@V?$allocator@U?$pair@QAUHWND__@@UWndMoveData@@@std@@@4@$0A@@std@@@2@@Z ; std::_Tree<std::_Tmap_traits<HWND__ *,WndMoveData,std::less<HWND__ *>,std::allocator<std::pair<HWND__ * const,WndMoveData> >,0> >::_Isnil
  00167	83 c4 04	 add	 esp, 4
  0016a	c6 00 00	 mov	 BYTE PTR [eax], 0

; 1125 : 		return (_Wherenode);

  0016d	8b 45 e8	 mov	 eax, DWORD PTR __Wherenode$[ebp]
$L189830:

; 1126 : 		}

  00170	8b 4d f4	 mov	 ecx, DWORD PTR __$EHRec$[ebp+4]
  00173	64 89 0d 00 00
	00 00		 mov	 DWORD PTR fs:__except_list, ecx
  0017a	5f		 pop	 edi
  0017b	5e		 pop	 esi
  0017c	5b		 pop	 ebx
  0017d	83 c4 34	 add	 esp, 52			; 00000034H
  00180	3b ec		 cmp	 ebp, esp
  00182	e8 00 00 00 00	 call	 __RTC_CheckEsp
  00187	8b e5		 mov	 esp, ebp
  00189	5d		 pop	 ebp
  0018a	c3		 ret	 0
_TEXT	ENDS
;	COMDAT text$x
text$x	SEGMENT
__ehhandler$?_Buynode@?$_Tree@V?$_Tmap_traits@PAUHWND__@@UWndMoveData@@U?$less@PAUHWND__@@@std@@V?$allocator@U?$pair@QAUHWND__@@UWndMoveData@@@std@@@4@$0A@@std@@@std@@IAEPAU_Node@?$_Tree_nod@V?$_Tmap_traits@PAUHWND__@@UWndMoveData@@U?$less@PAUHWND__@@@std@@V?$allocator@U?$pair@QAUHWND__@@UWndMoveData@@@std@@@4@$0A@@std@@@2@XZ:
  00000	b8 00 00 00 00	 mov	 eax, OFFSET FLAT:$T189837
  00005	e9 00 00 00 00	 jmp	 ___CxxFrameHandler
text$x	ENDS
?_Buynode@?$_Tree@V?$_Tmap_traits@PAUHWND__@@UWndMoveData@@U?$less@PAUHWND__@@@std@@V?$allocator@U?$pair@QAUHWND__@@UWndMoveData@@@std@@@4@$0A@@std@@@std@@IAEPAU_Node@?$_Tree_nod@V?$_Tmap_traits@PAUHWND__@@UWndMoveData@@U?$less@PAUHWND__@@@std@@V?$allocator@U?$pair@QAUHWND__@@UWndMoveData@@@std@@@4@$0A@@std@@@2@XZ ENDP ; std::_Tree<std::_Tmap_traits<HWND__ *,WndMoveData,std::less<HWND__ *>,std::allocator<std::pair<HWND__ * const,WndMoveData> >,0> >::_Buynode
PUBLIC	??2@YAPAXIPAX@Z					; operator new
PUBLIC	??3@YAXPAX0@Z					; operator delete
PUBLIC	??0_Node@?$_Tree_nod@V?$_Tmap_traits@PAUHWND__@@UWndMoveData@@U?$less@PAUHWND__@@@std@@V?$allocator@U?$pair@QAUHWND__@@UWndMoveData@@@std@@@4@$0A@@std@@@std@@QAE@PAU012@00ABU?$pair@QAUHWND__@@UWndMoveData@@@2@D@Z ; std::_Tree_nod<std::_Tmap_traits<HWND__ *,WndMoveData,std::less<HWND__ *>,std::allocator<std::pair<HWND__ * const,WndMoveData> >,0> >::_Node::_Node
;	COMDAT xdata$x
xdata$x	SEGMENT
$T189855 DD	0ffffffffH
	DD	00H
	DD	00H
	DD	FLAT:$L189851
	DD	0ffffffffH
	DD	00H
$T189857 DD	00H
	DD	00H
	DD	00H
	DD	FLAT:$L189850
$T189856 DD	00H
	DD	01H
	DD	02H
	DD	01H
	DD	FLAT:$T189857
$T189853 DD	019930520H
	DD	03H
	DD	FLAT:$T189855
	DD	01H
	DD	FLAT:$T189856
	DD	2 DUP(00H)
; Function compile flags: /Odt /RTCsu
xdata$x	ENDS
;	COMDAT ?_Buynode@?$_Tree@V?$_Tmap_traits@PAUHWND__@@UWndMoveData@@U?$less@PAUHWND__@@@std@@V?$allocator@U?$pair@QAUHWND__@@UWndMoveData@@@std@@@4@$0A@@std@@@std@@IAEPAU_Node@?$_Tree_nod@V?$_Tmap_traits@PAUHWND__@@UWndMoveData@@U?$less@PAUHWND__@@@std@@V?$allocator@U?$pair@QAUHWND__@@UWndMoveData@@@std@@@4@$0A@@std@@@2@PAU342@00ABU?$pair@QAUHWND__@@UWndMoveData@@@2@D@Z
_TEXT	SEGMENT
tv82 = -44						; size = 4
tv94 = -40						; size = 4
tv91 = -36						; size = 4
$T189846 = -32						; size = 4
$T189845 = -28						; size = 4
__Wherenode$ = -24					; size = 4
_this$ = -20						; size = 4
__$EHRec$ = -16						; size = 16
__Larg$ = 8						; size = 4
__Parg$ = 12						; size = 4
__Rarg$ = 16						; size = 4
__Val$ = 20						; size = 4
__Carg$ = 24						; size = 1
?_Buynode@?$_Tree@V?$_Tmap_traits@PAUHWND__@@UWndMoveData@@U?$less@PAUHWND__@@@std@@V?$allocator@U?$pair@QAUHWND__@@UWndMoveData@@@std@@@4@$0A@@std@@@std@@IAEPAU_Node@?$_Tree_nod@V?$_Tmap_traits@PAUHWND__@@UWndMoveData@@U?$less@PAUHWND__@@@std@@V?$allocator@U?$pair@QAUHWND__@@UWndMoveData@@@std@@@4@$0A@@std@@@2@PAU342@00ABU?$pair@QAUHWND__@@UWndMoveData@@@2@D@Z PROC NEAR ; std::_Tree<std::_Tmap_traits<HWND__ *,WndMoveData,std::less<HWND__ *>,std::allocator<std::pair<HWND__ * const,WndMoveData> >,0> >::_Buynode, COMDAT
; _this$ = ecx

; 1130 : 		{	// allocate a node with pointers, value, and color

  00000	55		 push	 ebp
  00001	8b ec		 mov	 ebp, esp
  00003	6a ff		 push	 -1
  00005	68 00 00 00 00	 push	 __ehhandler$?_Buynode@?$_Tree@V?$_Tmap_traits@PAUHWND__@@UWndMoveData@@U?$less@PAUHWND__@@@std@@V?$allocator@U?$pair@QAUHWND__@@UWndMoveData@@@std@@@4@$0A@@std@@@std@@IAEPAU_Node@?$_Tree_nod@V?$_Tmap_traits@PAUHWND__@@UWndMoveData@@U?$less@PAUHWND__@@@std@@V?$allocator@U?$pair@QAUHWND__@@UWndMoveData@@@std@@@4@$0A@@std@@@2@PAU342@00ABU?$pair@QAUHWND__@@UWndMoveData@@@2@D@Z
  0000a	64 a1 00 00 00
	00		 mov	 eax, DWORD PTR fs:__except_list
  00010	50		 push	 eax
  00011	64 89 25 00 00
	00 00		 mov	 DWORD PTR fs:__except_list, esp
  00018	51		 push	 ecx
  00019	83 ec 1c	 sub	 esp, 28			; 0000001cH
  0001c	53		 push	 ebx
  0001d	56		 push	 esi
  0001e	57		 push	 edi
  0001f	b8 cc cc cc cc	 mov	 eax, -858993460		; ccccccccH
  00024	89 45 d4	 mov	 DWORD PTR [ebp-44], eax
  00027	89 45 d8	 mov	 DWORD PTR [ebp-40], eax
  0002a	89 45 dc	 mov	 DWORD PTR [ebp-36], eax
  0002d	89 45 e0	 mov	 DWORD PTR [ebp-32], eax
  00030	89 45 e4	 mov	 DWORD PTR [ebp-28], eax
  00033	89 45 e8	 mov	 DWORD PTR [ebp-24], eax
  00036	89 45 ec	 mov	 DWORD PTR [ebp-20], eax
  00039	89 65 f0	 mov	 DWORD PTR __$EHRec$[ebp], esp
  0003c	89 4d ec	 mov	 DWORD PTR _this$[ebp], ecx

; 1131 : 		_Nodeptr _Wherenode = this->_Alnod.allocate(1);

  0003f	6a 01		 push	 1
  00041	8b 4d ec	 mov	 ecx, DWORD PTR _this$[ebp]
  00044	83 c1 01	 add	 ecx, 1
  00047	e8 00 00 00 00	 call	 ?allocate@?$allocator@U_Node@?$_Tree_nod@V?$_Tmap_traits@PAUHWND__@@UWndMoveData@@U?$less@PAUHWND__@@@std@@V?$allocator@U?$pair@QAUHWND__@@UWndMoveData@@@std@@@4@$0A@@std@@@std@@@std@@QAEPAU_Node@?$_Tree_nod@V?$_Tmap_traits@PAUHWND__@@UWndMoveData@@U?$less@PAUHWND__@@@std@@V?$allocator@U?$pair@QAUHWND__@@UWndMoveData@@@std@@@4@$0A@@std@@@2@I@Z ; std::allocator<std::_Tree_nod<std::_Tmap_traits<HWND__ *,WndMoveData,std::less<HWND__ *>,std::allocator<std::pair<HWND__ * const,WndMoveData> >,0> >::_Node>::allocate
  0004c	89 45 e8	 mov	 DWORD PTR __Wherenode$[ebp], eax

; 1132 : 		_TRY_BEGIN

  0004f	c7 45 fc 00 00
	00 00		 mov	 DWORD PTR __$EHRec$[ebp+12], 0

; 1133 : 		new (_Wherenode) _Node(_Larg, _Parg, _Rarg, _Val, _Carg);

  00056	8b 45 e8	 mov	 eax, DWORD PTR __Wherenode$[ebp]
  00059	50		 push	 eax
  0005a	6a 30		 push	 48			; 00000030H
  0005c	e8 00 00 00 00	 call	 ??2@YAPAXIPAX@Z		; operator new
  00061	83 c4 08	 add	 esp, 8
  00064	89 45 dc	 mov	 DWORD PTR tv91[ebp], eax
  00067	8b 4d dc	 mov	 ecx, DWORD PTR tv91[ebp]
  0006a	89 4d e0	 mov	 DWORD PTR $T189846[ebp], ecx
  0006d	c6 45 fc 01	 mov	 BYTE PTR __$EHRec$[ebp+12], 1
  00071	83 7d e0 00	 cmp	 DWORD PTR $T189846[ebp], 0
  00075	74 27		 je	 SHORT $L189847
  00077	8a 55 18	 mov	 dl, BYTE PTR __Carg$[ebp]
  0007a	52		 push	 edx
  0007b	8b 45 14	 mov	 eax, DWORD PTR __Val$[ebp]
  0007e	50		 push	 eax
  0007f	8b 4d 10	 mov	 ecx, DWORD PTR __Rarg$[ebp]
  00082	51		 push	 ecx
  00083	8b 55 0c	 mov	 edx, DWORD PTR __Parg$[ebp]
  00086	52		 push	 edx
  00087	8b 45 08	 mov	 eax, DWORD PTR __Larg$[ebp]
  0008a	50		 push	 eax
  0008b	8b 4d e0	 mov	 ecx, DWORD PTR $T189846[ebp]
  0008e	e8 00 00 00 00	 call	 ??0_Node@?$_Tree_nod@V?$_Tmap_traits@PAUHWND__@@UWndMoveData@@U?$less@PAUHWND__@@@std@@V?$allocator@U?$pair@QAUHWND__@@UWndMoveData@@@std@@@4@$0A@@std@@@std@@QAE@PAU012@00ABU?$pair@QAUHWND__@@UWndMoveData@@@2@D@Z ; std::_Tree_nod<std::_Tmap_traits<HWND__ *,WndMoveData,std::less<HWND__ *>,std::allocator<std::pair<HWND__ * const,WndMoveData> >,0> >::_Node::_Node
  00093	89 45 d8	 mov	 DWORD PTR tv94[ebp], eax
  00096	8b 4d d8	 mov	 ecx, DWORD PTR tv94[ebp]
  00099	89 4d d4	 mov	 DWORD PTR tv82[ebp], ecx
  0009c	eb 07		 jmp	 SHORT $L189848
$L189847:
  0009e	c7 45 d4 00 00
	00 00		 mov	 DWORD PTR tv82[ebp], 0
$L189848:
  000a5	8b 55 d4	 mov	 edx, DWORD PTR tv82[ebp]
  000a8	89 55 e4	 mov	 DWORD PTR $T189845[ebp], edx
  000ab	c6 45 fc 00	 mov	 BYTE PTR __$EHRec$[ebp+12], 0
  000af	eb 1a		 jmp	 SHORT $L189849
$L189850:

; 1134 : 		_CATCH_ALL
; 1135 : 		this->_Alnod.deallocate(_Wherenode, 1);

  000b1	6a 01		 push	 1
  000b3	8b 45 e8	 mov	 eax, DWORD PTR __Wherenode$[ebp]
  000b6	50		 push	 eax
  000b7	8b 4d ec	 mov	 ecx, DWORD PTR _this$[ebp]
  000ba	83 c1 01	 add	 ecx, 1
  000bd	e8 00 00 00 00	 call	 ?deallocate@?$allocator@U_Node@?$_Tree_nod@V?$_Tmap_traits@PAUHWND__@@UWndMoveData@@U?$less@PAUHWND__@@@std@@V?$allocator@U?$pair@QAUHWND__@@UWndMoveData@@@std@@@4@$0A@@std@@@std@@@std@@QAEXPAU_Node@?$_Tree_nod@V?$_Tmap_traits@PAUHWND__@@UWndMoveData@@U?$less@PAUHWND__@@@std@@V?$allocator@U?$pair@QAUHWND__@@UWndMoveData@@@std@@@4@$0A@@std@@@2@I@Z ; std::allocator<std::_Tree_nod<std::_Tmap_traits<HWND__ *,WndMoveData,std::less<HWND__ *>,std::allocator<std::pair<HWND__ * const,WndMoveData> >,0> >::_Node>::deallocate

; 1136 : 		_RERAISE;

  000c2	6a 00		 push	 0
  000c4	6a 00		 push	 0
  000c6	e8 00 00 00 00	 call	 __CxxThrowException@8
$L189849:

; 1137 : 		_CATCH_END

  000cb	c7 45 fc ff ff
	ff ff		 mov	 DWORD PTR __$EHRec$[ebp+12], -1

; 1138 : 		return (_Wherenode);

  000d2	8b 45 e8	 mov	 eax, DWORD PTR __Wherenode$[ebp]
$L189844:

; 1139 : 		}

  000d5	8b 4d f4	 mov	 ecx, DWORD PTR __$EHRec$[ebp+4]
  000d8	64 89 0d 00 00
	00 00		 mov	 DWORD PTR fs:__except_list, ecx
  000df	5f		 pop	 edi
  000e0	5e		 pop	 esi
  000e1	5b		 pop	 ebx
  000e2	83 c4 2c	 add	 esp, 44			; 0000002cH
  000e5	3b ec		 cmp	 ebp, esp
  000e7	e8 00 00 00 00	 call	 __RTC_CheckEsp
  000ec	8b e5		 mov	 esp, ebp
  000ee	5d		 pop	 ebp
  000ef	c2 14 00	 ret	 20			; 00000014H
_TEXT	ENDS
;	COMDAT text$x
text$x	SEGMENT
$L189851:
  00000	8b 45 e8	 mov	 eax, DWORD PTR __Wherenode$[ebp]
  00003	50		 push	 eax
  00004	8b 4d e0	 mov	 ecx, DWORD PTR $T189846[ebp]
  00007	51		 push	 ecx
  00008	e8 00 00 00 00	 call	 ??3@YAXPAX0@Z		; operator delete
  0000d	83 c4 08	 add	 esp, 8
  00010	c3		 ret	 0
__ehhandler$?_Buynode@?$_Tree@V?$_Tmap_traits@PAUHWND__@@UWndMoveData@@U?$less@PAUHWND__@@@std@@V?$allocator@U?$pair@QAUHWND__@@UWndMoveData@@@std@@@4@$0A@@std@@@std@@IAEPAU_Node@?$_Tree_nod@V?$_Tmap_traits@PAUHWND__@@UWndMoveData@@U?$less@PAUHWND__@@@std@@V?$allocator@U?$pair@QAUHWND__@@UWndMoveData@@@std@@@4@$0A@@std@@@2@PAU342@00ABU?$pair@QAUHWND__@@UWndMoveData@@@2@D@Z:
  00011	b8 00 00 00 00	 mov	 eax, OFFSET FLAT:$T189853
  00016	e9 00 00 00 00	 jmp	 ___CxxFrameHandler
text$x	ENDS
?_Buynode@?$_Tree@V?$_Tmap_traits@PAUHWND__@@UWndMoveData@@U?$less@PAUHWND__@@@std@@V?$allocator@U?$pair@QAUHWND__@@UWndMoveData@@@std@@@4@$0A@@std@@@std@@IAEPAU_Node@?$_Tree_nod@V?$_Tmap_traits@PAUHWND__@@UWndMoveData@@U?$less@PAUHWND__@@@std@@V?$allocator@U?$pair@QAUHWND__@@UWndMoveData@@@std@@@4@$0A@@std@@@2@PAU342@00ABU?$pair@QAUHWND__@@UWndMoveData@@@2@D@Z ENDP ; std::_Tree<std::_Tmap_traits<HWND__ *,WndMoveData,std::less<HWND__ *>,std::allocator<std::pair<HWND__ * const,WndMoveData> >,0> >::_Buynode
; Function compile flags: /Odt /RTCsu
; File d:\program files (x86)\microsoft visual studio .net 2003\vc7\include\new.h
;	COMDAT ??2@YAPAXIPAX@Z
_TEXT	SEGMENT
___formal$ = 8						; size = 4
__P$ = 12						; size = 4
??2@YAPAXIPAX@Z PROC NEAR				; operator new, COMDAT

; 109  :         {return (_P); }

  00000	55		 push	 ebp
  00001	8b ec		 mov	 ebp, esp
  00003	8b 45 0c	 mov	 eax, DWORD PTR __P$[ebp]
  00006	5d		 pop	 ebp
  00007	c3		 ret	 0
??2@YAPAXIPAX@Z ENDP					; operator new
; Function compile flags: /Odt /RTCsu
_TEXT	ENDS
;	COMDAT ??3@YAXPAX0@Z
_TEXT	SEGMENT
___formal$ = 8						; size = 4
___formal$ = 12						; size = 4
??3@YAXPAX0@Z PROC NEAR					; operator delete, COMDAT

; 112  :         {return; }

  00000	55		 push	 ebp
  00001	8b ec		 mov	 ebp, esp
  00003	5d		 pop	 ebp
  00004	c3		 ret	 0
??3@YAXPAX0@Z ENDP					; operator delete
_TEXT	ENDS
PUBLIC	??$?0U?$pair@QAUHWND__@@UWndMoveData@@@std@@@?$allocator@PAU_Node@?$_Tree_nod@V?$_Tmap_traits@PAUHWND__@@UWndMoveData@@U?$less@PAUHWND__@@@std@@V?$allocator@U?$pair@QAUHWND__@@UWndMoveData@@@std@@@4@$0A@@std@@@std@@@std@@QAE@ABV?$allocator@U?$pair@QAUHWND__@@UWndMoveData@@@std@@@1@@Z ; std::allocator<std::_Tree_nod<std::_Tmap_traits<HWND__ *,WndMoveData,std::less<HWND__ *>,std::allocator<std::pair<HWND__ * const,WndMoveData> >,0> >::_Node *>::allocator<std::_Tree_nod<std::_Tmap_traits<HWND__ *,WndMoveData,std::less<HWND__ *>,std::allocator<std::pair<HWND__ * const,WndMoveData> >,0> >::_Node *><std::pair<HWND__ * const,WndMoveData> >
PUBLIC	??0?$_Tree_nod@V?$_Tmap_traits@PAUHWND__@@UWndMoveData@@U?$less@PAUHWND__@@@std@@V?$allocator@U?$pair@QAUHWND__@@UWndMoveData@@@std@@@4@$0A@@std@@@std@@IAE@ABU?$less@PAUHWND__@@@1@V?$allocator@U?$pair@QAUHWND__@@UWndMoveData@@@std@@@1@@Z ; std::_Tree_nod<std::_Tmap_traits<HWND__ *,WndMoveData,std::less<HWND__ *>,std::allocator<std::pair<HWND__ * const,WndMoveData> >,0> >::_Tree_nod<std::_Tmap_traits<HWND__ *,WndMoveData,std::less<HWND__ *>,std::allocator<std::pair<HWND__ * const,WndMoveData> >,0> >
; Function compile flags: /Odt /RTCsu
; File d:\program files (x86)\microsoft visual studio .net 2003\vc7\include\xtree
;	COMDAT ??0?$_Tree_ptr@V?$_Tmap_traits@PAUHWND__@@UWndMoveData@@U?$less@PAUHWND__@@@std@@V?$allocator@U?$pair@QAUHWND__@@UWndMoveData@@@std@@@4@$0A@@std@@@std@@IAE@ABU?$less@PAUHWND__@@@1@V?$allocator@U?$pair@QAUHWND__@@UWndMoveData@@@std@@@1@@Z
_TEXT	SEGMENT
_this$ = -4						; size = 4
__Parg$ = 8						; size = 4
__Al$ = 12						; size = 1
??0?$_Tree_ptr@V?$_Tmap_traits@PAUHWND__@@UWndMoveData@@U?$less@PAUHWND__@@@std@@V?$allocator@U?$pair@QAUHWND__@@UWndMoveData@@@std@@@4@$0A@@std@@@std@@IAE@ABU?$less@PAUHWND__@@@1@V?$allocator@U?$pair@QAUHWND__@@UWndMoveData@@@std@@@1@@Z PROC NEAR ; std::_Tree_ptr<std::_Tmap_traits<HWND__ *,WndMoveData,std::less<HWND__ *>,std::allocator<std::pair<HWND__ * const,WndMoveData> >,0> >::_Tree_ptr<std::_Tmap_traits<HWND__ *,WndMoveData,std::less<HWND__ *>,std::allocator<std::pair<HWND__ * const,WndMoveData> >,0> >, COMDAT
; _this$ = ecx

; 76   : 		{	// construct base, and allocator from _Al

  00000	55		 push	 ebp
  00001	8b ec		 mov	 ebp, esp
  00003	83 ec 08	 sub	 esp, 8
  00006	c7 45 f8 cc cc
	cc cc		 mov	 DWORD PTR [ebp-8], -858993460 ; ccccccccH
  0000d	c7 45 fc cc cc
	cc cc		 mov	 DWORD PTR [ebp-4], -858993460 ; ccccccccH
  00014	89 4d fc	 mov	 DWORD PTR _this$[ebp], ecx
  00017	51		 push	 ecx
  00018	8b cc		 mov	 ecx, esp
  0001a	8d 45 0c	 lea	 eax, DWORD PTR __Al$[ebp]
  0001d	50		 push	 eax
  0001e	e8 00 00 00 00	 call	 ??0?$allocator@U?$pair@QAUHWND__@@UWndMoveData@@@std@@@std@@QAE@ABV01@@Z ; std::allocator<std::pair<HWND__ * const,WndMoveData> >::allocator<std::pair<HWND__ * const,WndMoveData> >
  00023	8b 4d 08	 mov	 ecx, DWORD PTR __Parg$[ebp]
  00026	51		 push	 ecx
  00027	8b 4d fc	 mov	 ecx, DWORD PTR _this$[ebp]
  0002a	e8 00 00 00 00	 call	 ??0?$_Tree_nod@V?$_Tmap_traits@PAUHWND__@@UWndMoveData@@U?$less@PAUHWND__@@@std@@V?$allocator@U?$pair@QAUHWND__@@UWndMoveData@@@std@@@4@$0A@@std@@@std@@IAE@ABU?$less@PAUHWND__@@@1@V?$allocator@U?$pair@QAUHWND__@@UWndMoveData@@@std@@@1@@Z ; std::_Tree_nod<std::_Tmap_traits<HWND__ *,WndMoveData,std::less<HWND__ *>,std::allocator<std::pair<HWND__ * const,WndMoveData> >,0> >::_Tree_nod<std::_Tmap_traits<HWND__ *,WndMoveData,std::less<HWND__ *>,std::allocator<std::pair<HWND__ * const,WndMoveData> >,0> >
  0002f	8d 55 0c	 lea	 edx, DWORD PTR __Al$[ebp]
  00032	52		 push	 edx
  00033	8b 4d fc	 mov	 ecx, DWORD PTR _this$[ebp]
  00036	83 c1 02	 add	 ecx, 2
  00039	e8 00 00 00 00	 call	 ??$?0U?$pair@QAUHWND__@@UWndMoveData@@@std@@@?$allocator@PAU_Node@?$_Tree_nod@V?$_Tmap_traits@PAUHWND__@@UWndMoveData@@U?$less@PAUHWND__@@@std@@V?$allocator@U?$pair@QAUHWND__@@UWndMoveData@@@std@@@4@$0A@@std@@@std@@@std@@QAE@ABV?$allocator@U?$pair@QAUHWND__@@UWndMoveData@@@std@@@1@@Z ; std::allocator<std::_Tree_nod<std::_Tmap_traits<HWND__ *,WndMoveData,std::less<HWND__ *>,std::allocator<std::pair<HWND__ * const,WndMoveData> >,0> >::_Node *>::allocator<std::_Tree_nod<std::_Tmap_traits<HWND__ *,WndMoveData,std::less<HWND__ *>,std::allocator<std::pair<HWND__ * const,WndMoveData> >,0> >::_Node *><std::pair<HWND__ * const,WndMoveData> >

; 77   : 		}

  0003e	8b 45 fc	 mov	 eax, DWORD PTR _this$[ebp]
  00041	83 c4 08	 add	 esp, 8
  00044	3b ec		 cmp	 ebp, esp
  00046	e8 00 00 00 00	 call	 __RTC_CheckEsp
  0004b	8b e5		 mov	 esp, ebp
  0004d	5d		 pop	 ebp
  0004e	c2 08 00	 ret	 8
??0?$_Tree_ptr@V?$_Tmap_traits@PAUHWND__@@UWndMoveData@@U?$less@PAUHWND__@@@std@@V?$allocator@U?$pair@QAUHWND__@@UWndMoveData@@@std@@@4@$0A@@std@@@std@@IAE@ABU?$less@PAUHWND__@@@1@V?$allocator@U?$pair@QAUHWND__@@UWndMoveData@@@std@@@1@@Z ENDP ; std::_Tree_ptr<std::_Tmap_traits<HWND__ *,WndMoveData,std::less<HWND__ *>,std::allocator<std::pair<HWND__ * const,WndMoveData> >,0> >::_Tree_ptr<std::_Tmap_traits<HWND__ *,WndMoveData,std::less<HWND__ *>,std::allocator<std::pair<HWND__ * const,WndMoveData> >,0> >
_TEXT	ENDS
PUBLIC	?_Dec@const_iterator@?$_Tree@V?$_Tmap_traits@PAUHWND__@@UWndMoveData@@U?$less@PAUHWND__@@@std@@V?$allocator@U?$pair@QAUHWND__@@UWndMoveData@@@std@@@4@$0A@@std@@@std@@QAEXXZ ; std::_Tree<std::_Tmap_traits<HWND__ *,WndMoveData,std::less<HWND__ *>,std::allocator<std::pair<HWND__ * const,WndMoveData> >,0> >::const_iterator::_Dec
; Function compile flags: /Odt /RTCsu
;	COMDAT ??Fconst_iterator@?$_Tree@V?$_Tmap_traits@PAUHWND__@@UWndMoveData@@U?$less@PAUHWND__@@@std@@V?$allocator@U?$pair@QAUHWND__@@UWndMoveData@@@std@@@4@$0A@@std@@@std@@QAEAAV012@XZ
_TEXT	SEGMENT
_this$ = -4						; size = 4
??Fconst_iterator@?$_Tree@V?$_Tmap_traits@PAUHWND__@@UWndMoveData@@U?$less@PAUHWND__@@@std@@V?$allocator@U?$pair@QAUHWND__@@UWndMoveData@@@std@@@4@$0A@@std@@@std@@QAEAAV012@XZ PROC NEAR ; std::_Tree<std::_Tmap_traits<HWND__ *,WndMoveData,std::less<HWND__ *>,std::allocator<std::pair<HWND__ * const,WndMoveData> >,0> >::const_iterator::operator--, COMDAT
; _this$ = ecx

; 227  : 			{	// predecrement

  00000	55		 push	 ebp
  00001	8b ec		 mov	 ebp, esp
  00003	51		 push	 ecx
  00004	c7 45 fc cc cc
	cc cc		 mov	 DWORD PTR [ebp-4], -858993460 ; ccccccccH
  0000b	89 4d fc	 mov	 DWORD PTR _this$[ebp], ecx

; 228  : 			_Dec();

  0000e	8b 4d fc	 mov	 ecx, DWORD PTR _this$[ebp]
  00011	e8 00 00 00 00	 call	 ?_Dec@const_iterator@?$_Tree@V?$_Tmap_traits@PAUHWND__@@UWndMoveData@@U?$less@PAUHWND__@@@std@@V?$allocator@U?$pair@QAUHWND__@@UWndMoveData@@@std@@@4@$0A@@std@@@std@@QAEXXZ ; std::_Tree<std::_Tmap_traits<HWND__ *,WndMoveData,std::less<HWND__ *>,std::allocator<std::pair<HWND__ * const,WndMoveData> >,0> >::const_iterator::_Dec

; 229  : 			return (*this);

  00016	8b 45 fc	 mov	 eax, DWORD PTR _this$[ebp]

; 230  : 			}

  00019	83 c4 04	 add	 esp, 4
  0001c	3b ec		 cmp	 ebp, esp
  0001e	e8 00 00 00 00	 call	 __RTC_CheckEsp
  00023	8b e5		 mov	 esp, ebp
  00025	5d		 pop	 ebp
  00026	c3		 ret	 0
??Fconst_iterator@?$_Tree@V?$_Tmap_traits@PAUHWND__@@UWndMoveData@@U?$less@PAUHWND__@@@std@@V?$allocator@U?$pair@QAUHWND__@@UWndMoveData@@@std@@@4@$0A@@std@@@std@@QAEAAV012@XZ ENDP ; std::_Tree<std::_Tmap_traits<HWND__ *,WndMoveData,std::less<HWND__ *>,std::allocator<std::pair<HWND__ * const,WndMoveData> >,0> >::const_iterator::operator--
; Function compile flags: /Odt /RTCsu
_TEXT	ENDS
;	COMDAT ?_Inc@const_iterator@?$_Tree@V?$_Tmap_traits@PAUHWND__@@UWndMoveData@@U?$less@PAUHWND__@@@std@@V?$allocator@U?$pair@QAUHWND__@@UWndMoveData@@@std@@@4@$0A@@std@@@std@@QAEXXZ
_TEXT	SEGMENT
__Pnode$188981 = -8					; size = 4
_this$ = -4						; size = 4
?_Inc@const_iterator@?$_Tree@V?$_Tmap_traits@PAUHWND__@@UWndMoveData@@U?$less@PAUHWND__@@@std@@V?$allocator@U?$pair@QAUHWND__@@UWndMoveData@@@std@@@4@$0A@@std@@@std@@QAEXXZ PROC NEAR ; std::_Tree<std::_Tmap_traits<HWND__ *,WndMoveData,std::less<HWND__ *>,std::allocator<std::pair<HWND__ * const,WndMoveData> >,0> >::const_iterator::_Inc, COMDAT
; _this$ = ecx

; 267  : 			{	// move to node with next larger value

  00000	55		 push	 ebp
  00001	8b ec		 mov	 ebp, esp
  00003	83 ec 08	 sub	 esp, 8
  00006	c7 45 f8 cc cc
	cc cc		 mov	 DWORD PTR [ebp-8], -858993460 ; ccccccccH
  0000d	c7 45 fc cc cc
	cc cc		 mov	 DWORD PTR [ebp-4], -858993460 ; ccccccccH
  00014	89 4d fc	 mov	 DWORD PTR _this$[ebp], ecx

; 268  : 			if (_Isnil(_Ptr))

  00017	8b 45 fc	 mov	 eax, DWORD PTR _this$[ebp]
  0001a	8b 08		 mov	 ecx, DWORD PTR [eax]
  0001c	51		 push	 ecx
  0001d	e8 00 00 00 00	 call	 ?_Isnil@?$_Tree@V?$_Tmap_traits@PAUHWND__@@UWndMoveData@@U?$less@PAUHWND__@@@std@@V?$allocator@U?$pair@QAUHWND__@@UWndMoveData@@@std@@@4@$0A@@std@@@std@@KAAADPAU_Node@?$_Tree_nod@V?$_Tmap_traits@PAUHWND__@@UWndMoveData@@U?$less@PAUHWND__@@@std@@V?$allocator@U?$pair@QAUHWND__@@UWndMoveData@@@std@@@4@$0A@@std@@@2@@Z ; std::_Tree<std::_Tmap_traits<HWND__ *,WndMoveData,std::less<HWND__ *>,std::allocator<std::pair<HWND__ * const,WndMoveData> >,0> >::_Isnil
  00022	83 c4 04	 add	 esp, 4
  00025	0f be 10	 movsx	 edx, BYTE PTR [eax]
  00028	85 d2		 test	 edx, edx
  0002a	74 05		 je	 SHORT $L188977

; 269  : 				;	// end() shouldn't be incremented, don't move
; 270  : 			else if (!_Isnil(_Right(_Ptr)))

  0002c	e9 8d 00 00 00	 jmp	 $L188976
$L188977:
  00031	8b 45 fc	 mov	 eax, DWORD PTR _this$[ebp]
  00034	8b 08		 mov	 ecx, DWORD PTR [eax]
  00036	51		 push	 ecx
  00037	e8 00 00 00 00	 call	 ?_Right@?$_Tree@V?$_Tmap_traits@PAUHWND__@@UWndMoveData@@U?$less@PAUHWND__@@@std@@V?$allocator@U?$pair@QAUHWND__@@UWndMoveData@@@std@@@4@$0A@@std@@@std@@KAAAPAU_Node@?$_Tree_nod@V?$_Tmap_traits@PAUHWND__@@UWndMoveData@@U?$less@PAUHWND__@@@std@@V?$allocator@U?$pair@QAUHWND__@@UWndMoveData@@@std@@@4@$0A@@std@@@2@PAU342@@Z ; std::_Tree<std::_Tmap_traits<HWND__ *,WndMoveData,std::less<HWND__ *>,std::allocator<std::pair<HWND__ * const,WndMoveData> >,0> >::_Right
  0003c	83 c4 04	 add	 esp, 4
  0003f	8b 10		 mov	 edx, DWORD PTR [eax]
  00041	52		 push	 edx
  00042	e8 00 00 00 00	 call	 ?_Isnil@?$_Tree@V?$_Tmap_traits@PAUHWND__@@UWndMoveData@@U?$less@PAUHWND__@@@std@@V?$allocator@U?$pair@QAUHWND__@@UWndMoveData@@@std@@@4@$0A@@std@@@std@@KAAADPAU_Node@?$_Tree_nod@V?$_Tmap_traits@PAUHWND__@@UWndMoveData@@U?$less@PAUHWND__@@@std@@V?$allocator@U?$pair@QAUHWND__@@UWndMoveData@@@std@@@4@$0A@@std@@@2@@Z ; std::_Tree<std::_Tmap_traits<HWND__ *,WndMoveData,std::less<HWND__ *>,std::allocator<std::pair<HWND__ * const,WndMoveData> >,0> >::_Isnil
  00047	83 c4 04	 add	 esp, 4
  0004a	0f be 00	 movsx	 eax, BYTE PTR [eax]
  0004d	85 c0		 test	 eax, eax
  0004f	75 20		 jne	 SHORT $L188983

; 271  : 				_Ptr = _Min(_Right(_Ptr));	// ==> smallest of right subtree

  00051	8b 4d fc	 mov	 ecx, DWORD PTR _this$[ebp]
  00054	8b 11		 mov	 edx, DWORD PTR [ecx]
  00056	52		 push	 edx
  00057	e8 00 00 00 00	 call	 ?_Right@?$_Tree@V?$_Tmap_traits@PAUHWND__@@UWndMoveData@@U?$less@PAUHWND__@@@std@@V?$allocator@U?$pair@QAUHWND__@@UWndMoveData@@@std@@@4@$0A@@std@@@std@@KAAAPAU_Node@?$_Tree_nod@V?$_Tmap_traits@PAUHWND__@@UWndMoveData@@U?$less@PAUHWND__@@@std@@V?$allocator@U?$pair@QAUHWND__@@UWndMoveData@@@std@@@4@$0A@@std@@@2@PAU342@@Z ; std::_Tree<std::_Tmap_traits<HWND__ *,WndMoveData,std::less<HWND__ *>,std::allocator<std::pair<HWND__ * const,WndMoveData> >,0> >::_Right
  0005c	83 c4 04	 add	 esp, 4
  0005f	8b 00		 mov	 eax, DWORD PTR [eax]
  00061	50		 push	 eax
  00062	e8 00 00 00 00	 call	 ?_Min@?$_Tree@V?$_Tmap_traits@PAUHWND__@@UWndMoveData@@U?$less@PAUHWND__@@@std@@V?$allocator@U?$pair@QAUHWND__@@UWndMoveData@@@std@@@4@$0A@@std@@@std@@KAPAU_Node@?$_Tree_nod@V?$_Tmap_traits@PAUHWND__@@UWndMoveData@@U?$less@PAUHWND__@@@std@@V?$allocator@U?$pair@QAUHWND__@@UWndMoveData@@@std@@@4@$0A@@std@@@2@PAU342@@Z ; std::_Tree<std::_Tmap_traits<HWND__ *,WndMoveData,std::less<HWND__ *>,std::allocator<std::pair<HWND__ * const,WndMoveData> >,0> >::_Min
  00067	83 c4 04	 add	 esp, 4
  0006a	8b 4d fc	 mov	 ecx, DWORD PTR _this$[ebp]
  0006d	89 01		 mov	 DWORD PTR [ecx], eax

; 272  : 			else

  0006f	eb 4d		 jmp	 SHORT $L188976
$L188983:

; 273  : 				{	// climb looking for right subtree
; 274  : 				_Nodeptr _Pnode;
; 275  : 				while (!_Isnil(_Pnode = _Parent(_Ptr))
; 276  : 					&& _Ptr == _Right(_Pnode))

  00071	8b 55 fc	 mov	 edx, DWORD PTR _this$[ebp]
  00074	8b 02		 mov	 eax, DWORD PTR [edx]
  00076	50		 push	 eax
  00077	e8 00 00 00 00	 call	 ?_Parent@?$_Tree@V?$_Tmap_traits@PAUHWND__@@UWndMoveData@@U?$less@PAUHWND__@@@std@@V?$allocator@U?$pair@QAUHWND__@@UWndMoveData@@@std@@@4@$0A@@std@@@std@@KAAAPAU_Node@?$_Tree_nod@V?$_Tmap_traits@PAUHWND__@@UWndMoveData@@U?$less@PAUHWND__@@@std@@V?$allocator@U?$pair@QAUHWND__@@UWndMoveData@@@std@@@4@$0A@@std@@@2@PAU342@@Z ; std::_Tree<std::_Tmap_traits<HWND__ *,WndMoveData,std::less<HWND__ *>,std::allocator<std::pair<HWND__ * const,WndMoveData> >,0> >::_Parent
  0007c	83 c4 04	 add	 esp, 4
  0007f	8b 08		 mov	 ecx, DWORD PTR [eax]
  00081	89 4d f8	 mov	 DWORD PTR __Pnode$188981[ebp], ecx
  00084	8b 55 f8	 mov	 edx, DWORD PTR __Pnode$188981[ebp]
  00087	52		 push	 edx
  00088	e8 00 00 00 00	 call	 ?_Isnil@?$_Tree@V?$_Tmap_traits@PAUHWND__@@UWndMoveData@@U?$less@PAUHWND__@@@std@@V?$allocator@U?$pair@QAUHWND__@@UWndMoveData@@@std@@@4@$0A@@std@@@std@@KAAADPAU_Node@?$_Tree_nod@V?$_Tmap_traits@PAUHWND__@@UWndMoveData@@U?$less@PAUHWND__@@@std@@V?$allocator@U?$pair@QAUHWND__@@UWndMoveData@@@std@@@4@$0A@@std@@@2@@Z ; std::_Tree<std::_Tmap_traits<HWND__ *,WndMoveData,std::less<HWND__ *>,std::allocator<std::pair<HWND__ * const,WndMoveData> >,0> >::_Isnil
  0008d	83 c4 04	 add	 esp, 4
  00090	0f be 00	 movsx	 eax, BYTE PTR [eax]
  00093	85 c0		 test	 eax, eax
  00095	75 1f		 jne	 SHORT $L188984
  00097	8b 4d f8	 mov	 ecx, DWORD PTR __Pnode$188981[ebp]
  0009a	51		 push	 ecx
  0009b	e8 00 00 00 00	 call	 ?_Right@?$_Tree@V?$_Tmap_traits@PAUHWND__@@UWndMoveData@@U?$less@PAUHWND__@@@std@@V?$allocator@U?$pair@QAUHWND__@@UWndMoveData@@@std@@@4@$0A@@std@@@std@@KAAAPAU_Node@?$_Tree_nod@V?$_Tmap_traits@PAUHWND__@@UWndMoveData@@U?$less@PAUHWND__@@@std@@V?$allocator@U?$pair@QAUHWND__@@UWndMoveData@@@std@@@4@$0A@@std@@@2@PAU342@@Z ; std::_Tree<std::_Tmap_traits<HWND__ *,WndMoveData,std::less<HWND__ *>,std::allocator<std::pair<HWND__ * const,WndMoveData> >,0> >::_Right
  000a0	83 c4 04	 add	 esp, 4
  000a3	8b 55 fc	 mov	 edx, DWORD PTR _this$[ebp]
  000a6	8b 0a		 mov	 ecx, DWORD PTR [edx]
  000a8	3b 08		 cmp	 ecx, DWORD PTR [eax]
  000aa	75 0a		 jne	 SHORT $L188984

; 277  : 					_Ptr = _Pnode;	// ==> parent while right subtree

  000ac	8b 55 fc	 mov	 edx, DWORD PTR _this$[ebp]
  000af	8b 45 f8	 mov	 eax, DWORD PTR __Pnode$188981[ebp]
  000b2	89 02		 mov	 DWORD PTR [edx], eax
  000b4	eb bb		 jmp	 SHORT $L188983
$L188984:

; 278  : 				_Ptr = _Pnode;	// ==> parent (head if end())

  000b6	8b 4d fc	 mov	 ecx, DWORD PTR _this$[ebp]
  000b9	8b 55 f8	 mov	 edx, DWORD PTR __Pnode$188981[ebp]
  000bc	89 11		 mov	 DWORD PTR [ecx], edx
$L188976:

; 279  : 				}
; 280  : 			}

  000be	83 c4 08	 add	 esp, 8
  000c1	3b ec		 cmp	 ebp, esp
  000c3	e8 00 00 00 00	 call	 __RTC_CheckEsp
  000c8	8b e5		 mov	 esp, ebp
  000ca	5d		 pop	 ebp
  000cb	c3		 ret	 0
?_Inc@const_iterator@?$_Tree@V?$_Tmap_traits@PAUHWND__@@UWndMoveData@@U?$less@PAUHWND__@@@std@@V?$allocator@U?$pair@QAUHWND__@@UWndMoveData@@@std@@@4@$0A@@std@@@std@@QAEXXZ ENDP ; std::_Tree<std::_Tmap_traits<HWND__ *,WndMoveData,std::less<HWND__ *>,std::allocator<std::pair<HWND__ * const,WndMoveData> >,0> >::const_iterator::_Inc
; Function compile flags: /Odt /RTCsu
; File d:\program files (x86)\microsoft visual studio .net 2003\vc7\include\utility
_TEXT	ENDS
;	COMDAT ??0?$pair@Viterator@?$_Tree@V?$_Tmap_traits@PAUHWND__@@UWndMoveData@@U?$less@PAUHWND__@@@std@@V?$allocator@U?$pair@QAUHWND__@@UWndMoveData@@@std@@@4@$0A@@std@@@std@@_N@std@@QAE@ABViterator@?$_Tree@V?$_Tmap_traits@PAUHWND__@@UWndMoveData@@U?$less@PAUHWND__@@@std@@V?$allocator@U?$pair@QAUHWND__@@UWndMoveData@@@std@@@4@$0A@@std@@@1@AB_N@Z
_TEXT	SEGMENT
_this$ = -4						; size = 4
__Val1$ = 8						; size = 4
__Val2$ = 12						; size = 4
??0?$pair@Viterator@?$_Tree@V?$_Tmap_traits@PAUHWND__@@UWndMoveData@@U?$less@PAUHWND__@@@std@@V?$allocator@U?$pair@QAUHWND__@@UWndMoveData@@@std@@@4@$0A@@std@@@std@@_N@std@@QAE@ABViterator@?$_Tree@V?$_Tmap_traits@PAUHWND__@@UWndMoveData@@U?$less@PAUHWND__@@@std@@V?$allocator@U?$pair@QAUHWND__@@UWndMoveData@@@std@@@4@$0A@@std@@@1@AB_N@Z PROC NEAR ; std::pair<std::_Tree<std::_Tmap_traits<HWND__ *,WndMoveData,std::less<HWND__ *>,std::allocator<std::pair<HWND__ * const,WndMoveData> >,0> >::iterator,bool>::pair<std::_Tree<std::_Tmap_traits<HWND__ *,WndMoveData,std::less<HWND__ *>,std::allocator<std::pair<HWND__ * const,WndMoveData> >,0> >::iterator,bool>, COMDAT
; _this$ = ecx

; 34   : 		{	// construct from specified values

  00000	55		 push	 ebp
  00001	8b ec		 mov	 ebp, esp
  00003	51		 push	 ecx
  00004	c7 45 fc cc cc
	cc cc		 mov	 DWORD PTR [ebp-4], -858993460 ; ccccccccH
  0000b	89 4d fc	 mov	 DWORD PTR _this$[ebp], ecx
  0000e	8b 45 08	 mov	 eax, DWORD PTR __Val1$[ebp]
  00011	8b 08		 mov	 ecx, DWORD PTR [eax]
  00013	8b 55 fc	 mov	 edx, DWORD PTR _this$[ebp]
  00016	89 0a		 mov	 DWORD PTR [edx], ecx
  00018	8b 45 fc	 mov	 eax, DWORD PTR _this$[ebp]
  0001b	8b 4d 0c	 mov	 ecx, DWORD PTR __Val2$[ebp]
  0001e	8a 11		 mov	 dl, BYTE PTR [ecx]
  00020	88 50 04	 mov	 BYTE PTR [eax+4], dl

; 35   : 		}

  00023	8b 45 fc	 mov	 eax, DWORD PTR _this$[ebp]
  00026	8b e5		 mov	 esp, ebp
  00028	5d		 pop	 ebp
  00029	c2 08 00	 ret	 8
??0?$pair@Viterator@?$_Tree@V?$_Tmap_traits@PAUHWND__@@UWndMoveData@@U?$less@PAUHWND__@@@std@@V?$allocator@U?$pair@QAUHWND__@@UWndMoveData@@@std@@@4@$0A@@std@@@std@@_N@std@@QAE@ABViterator@?$_Tree@V?$_Tmap_traits@PAUHWND__@@UWndMoveData@@U?$less@PAUHWND__@@@std@@V?$allocator@U?$pair@QAUHWND__@@UWndMoveData@@@std@@@4@$0A@@std@@@1@AB_N@Z ENDP ; std::pair<std::_Tree<std::_Tmap_traits<HWND__ *,WndMoveData,std::less<HWND__ *>,std::allocator<std::pair<HWND__ * const,WndMoveData> >,0> >::iterator,bool>::pair<std::_Tree<std::_Tmap_traits<HWND__ *,WndMoveData,std::less<HWND__ *>,std::allocator<std::pair<HWND__ * const,WndMoveData> >,0> >::iterator,bool>
; Function compile flags: /Odt /RTCsu
; File d:\program files (x86)\microsoft visual studio .net 2003\vc7\include\xtree
_TEXT	ENDS
;	COMDAT ?_Max@?$_Tree@V?$_Tmap_traits@PAUHWND__@@UWndMoveData@@U?$less@PAUHWND__@@@std@@V?$allocator@U?$pair@QAUHWND__@@UWndMoveData@@@std@@@4@$0A@@std@@@std@@KAPAU_Node@?$_Tree_nod@V?$_Tmap_traits@PAUHWND__@@UWndMoveData@@U?$less@PAUHWND__@@@std@@V?$allocator@U?$pair@QAUHWND__@@UWndMoveData@@@std@@@4@$0A@@std@@@2@PAU342@@Z
_TEXT	SEGMENT
__Pnode$ = 8						; size = 4
?_Max@?$_Tree@V?$_Tmap_traits@PAUHWND__@@UWndMoveData@@U?$less@PAUHWND__@@@std@@V?$allocator@U?$pair@QAUHWND__@@UWndMoveData@@@std@@@4@$0A@@std@@@std@@KAPAU_Node@?$_Tree_nod@V?$_Tmap_traits@PAUHWND__@@UWndMoveData@@U?$less@PAUHWND__@@@std@@V?$allocator@U?$pair@QAUHWND__@@UWndMoveData@@@std@@@4@$0A@@std@@@2@PAU342@@Z PROC NEAR ; std::_Tree<std::_Tmap_traits<HWND__ *,WndMoveData,std::less<HWND__ *>,std::allocator<std::pair<HWND__ * const,WndMoveData> >,0> >::_Max, COMDAT

; 1034 : 		{	// return rightmost node in subtree at _Pnode

  00000	55		 push	 ebp
  00001	8b ec		 mov	 ebp, esp
$L188989:

; 1035 : 		while (!_Isnil(_Right(_Pnode)))

  00003	8b 45 08	 mov	 eax, DWORD PTR __Pnode$[ebp]
  00006	50		 push	 eax
  00007	e8 00 00 00 00	 call	 ?_Right@?$_Tree@V?$_Tmap_traits@PAUHWND__@@UWndMoveData@@U?$less@PAUHWND__@@@std@@V?$allocator@U?$pair@QAUHWND__@@UWndMoveData@@@std@@@4@$0A@@std@@@std@@KAAAPAU_Node@?$_Tree_nod@V?$_Tmap_traits@PAUHWND__@@UWndMoveData@@U?$less@PAUHWND__@@@std@@V?$allocator@U?$pair@QAUHWND__@@UWndMoveData@@@std@@@4@$0A@@std@@@2@PAU342@@Z ; std::_Tree<std::_Tmap_traits<HWND__ *,WndMoveData,std::less<HWND__ *>,std::allocator<std::pair<HWND__ * const,WndMoveData> >,0> >::_Right
  0000c	83 c4 04	 add	 esp, 4
  0000f	8b 08		 mov	 ecx, DWORD PTR [eax]
  00011	51		 push	 ecx
  00012	e8 00 00 00 00	 call	 ?_Isnil@?$_Tree@V?$_Tmap_traits@PAUHWND__@@UWndMoveData@@U?$less@PAUHWND__@@@std@@V?$allocator@U?$pair@QAUHWND__@@UWndMoveData@@@std@@@4@$0A@@std@@@std@@KAAADPAU_Node@?$_Tree_nod@V?$_Tmap_traits@PAUHWND__@@UWndMoveData@@U?$less@PAUHWND__@@@std@@V?$allocator@U?$pair@QAUHWND__@@UWndMoveData@@@std@@@4@$0A@@std@@@2@@Z ; std::_Tree<std::_Tmap_traits<HWND__ *,WndMoveData,std::less<HWND__ *>,std::allocator<std::pair<HWND__ * const,WndMoveData> >,0> >::_Isnil
  00017	83 c4 04	 add	 esp, 4
  0001a	0f be 10	 movsx	 edx, BYTE PTR [eax]
  0001d	85 d2		 test	 edx, edx
  0001f	75 13		 jne	 SHORT $L188990

; 1036 : 			_Pnode = _Right(_Pnode);

  00021	8b 45 08	 mov	 eax, DWORD PTR __Pnode$[ebp]
  00024	50		 push	 eax
  00025	e8 00 00 00 00	 call	 ?_Right@?$_Tree@V?$_Tmap_traits@PAUHWND__@@UWndMoveData@@U?$less@PAUHWND__@@@std@@V?$allocator@U?$pair@QAUHWND__@@UWndMoveData@@@std@@@4@$0A@@std@@@std@@KAAAPAU_Node@?$_Tree_nod@V?$_Tmap_traits@PAUHWND__@@UWndMoveData@@U?$less@PAUHWND__@@@std@@V?$allocator@U?$pair@QAUHWND__@@UWndMoveData@@@std@@@4@$0A@@std@@@2@PAU342@@Z ; std::_Tree<std::_Tmap_traits<HWND__ *,WndMoveData,std::less<HWND__ *>,std::allocator<std::pair<HWND__ * const,WndMoveData> >,0> >::_Right
  0002a	83 c4 04	 add	 esp, 4
  0002d	8b 08		 mov	 ecx, DWORD PTR [eax]
  0002f	89 4d 08	 mov	 DWORD PTR __Pnode$[ebp], ecx
  00032	eb cf		 jmp	 SHORT $L188989
$L188990:

; 1037 : 		return (_Pnode);

  00034	8b 45 08	 mov	 eax, DWORD PTR __Pnode$[ebp]

; 1038 : 		}

  00037	3b ec		 cmp	 ebp, esp
  00039	e8 00 00 00 00	 call	 __RTC_CheckEsp
  0003e	5d		 pop	 ebp
  0003f	c3		 ret	 0
?_Max@?$_Tree@V?$_Tmap_traits@PAUHWND__@@UWndMoveData@@U?$less@PAUHWND__@@@std@@V?$allocator@U?$pair@QAUHWND__@@UWndMoveData@@@std@@@4@$0A@@std@@@std@@KAPAU_Node@?$_Tree_nod@V?$_Tmap_traits@PAUHWND__@@UWndMoveData@@U?$less@PAUHWND__@@@std@@V?$allocator@U?$pair@QAUHWND__@@UWndMoveData@@@std@@@4@$0A@@std@@@2@PAU342@@Z ENDP ; std::_Tree<std::_Tmap_traits<HWND__ *,WndMoveData,std::less<HWND__ *>,std::allocator<std::pair<HWND__ * const,WndMoveData> >,0> >::_Max
; Function compile flags: /Odt /RTCsu
_TEXT	ENDS
;	COMDAT ?_Min@?$_Tree@V?$_Tmap_traits@PAUHWND__@@UWndMoveData@@U?$less@PAUHWND__@@@std@@V?$allocator@U?$pair@QAUHWND__@@UWndMoveData@@@std@@@4@$0A@@std@@@std@@KAPAU_Node@?$_Tree_nod@V?$_Tmap_traits@PAUHWND__@@UWndMoveData@@U?$less@PAUHWND__@@@std@@V?$allocator@U?$pair@QAUHWND__@@UWndMoveData@@@std@@@4@$0A@@std@@@2@PAU342@@Z
_TEXT	SEGMENT
__Pnode$ = 8						; size = 4
?_Min@?$_Tree@V?$_Tmap_traits@PAUHWND__@@UWndMoveData@@U?$less@PAUHWND__@@@std@@V?$allocator@U?$pair@QAUHWND__@@UWndMoveData@@@std@@@4@$0A@@std@@@std@@KAPAU_Node@?$_Tree_nod@V?$_Tmap_traits@PAUHWND__@@UWndMoveData@@U?$less@PAUHWND__@@@std@@V?$allocator@U?$pair@QAUHWND__@@UWndMoveData@@@std@@@4@$0A@@std@@@2@PAU342@@Z PROC NEAR ; std::_Tree<std::_Tmap_traits<HWND__ *,WndMoveData,std::less<HWND__ *>,std::allocator<std::pair<HWND__ * const,WndMoveData> >,0> >::_Min, COMDAT

; 1041 : 		{	// return leftmost node in subtree at _Pnode

  00000	55		 push	 ebp
  00001	8b ec		 mov	 ebp, esp
$L188993:

; 1042 : 		while (!_Isnil(_Left(_Pnode)))

  00003	8b 45 08	 mov	 eax, DWORD PTR __Pnode$[ebp]
  00006	50		 push	 eax
  00007	e8 00 00 00 00	 call	 ?_Left@?$_Tree@V?$_Tmap_traits@PAUHWND__@@UWndMoveData@@U?$less@PAUHWND__@@@std@@V?$allocator@U?$pair@QAUHWND__@@UWndMoveData@@@std@@@4@$0A@@std@@@std@@KAAAPAU_Node@?$_Tree_nod@V?$_Tmap_traits@PAUHWND__@@UWndMoveData@@U?$less@PAUHWND__@@@std@@V?$allocator@U?$pair@QAUHWND__@@UWndMoveData@@@std@@@4@$0A@@std@@@2@PAU342@@Z ; std::_Tree<std::_Tmap_traits<HWND__ *,WndMoveData,std::less<HWND__ *>,std::allocator<std::pair<HWND__ * const,WndMoveData> >,0> >::_Left
  0000c	83 c4 04	 add	 esp, 4
  0000f	8b 08		 mov	 ecx, DWORD PTR [eax]
  00011	51		 push	 ecx
  00012	e8 00 00 00 00	 call	 ?_Isnil@?$_Tree@V?$_Tmap_traits@PAUHWND__@@UWndMoveData@@U?$less@PAUHWND__@@@std@@V?$allocator@U?$pair@QAUHWND__@@UWndMoveData@@@std@@@4@$0A@@std@@@std@@KAAADPAU_Node@?$_Tree_nod@V?$_Tmap_traits@PAUHWND__@@UWndMoveData@@U?$less@PAUHWND__@@@std@@V?$allocator@U?$pair@QAUHWND__@@UWndMoveData@@@std@@@4@$0A@@std@@@2@@Z ; std::_Tree<std::_Tmap_traits<HWND__ *,WndMoveData,std::less<HWND__ *>,std::allocator<std::pair<HWND__ * const,WndMoveData> >,0> >::_Isnil
  00017	83 c4 04	 add	 esp, 4
  0001a	0f be 10	 movsx	 edx, BYTE PTR [eax]
  0001d	85 d2		 test	 edx, edx
  0001f	75 13		 jne	 SHORT $L188994

; 1043 : 			_Pnode = _Left(_Pnode);

  00021	8b 45 08	 mov	 eax, DWORD PTR __Pnode$[ebp]
  00024	50		 push	 eax
  00025	e8 00 00 00 00	 call	 ?_Left@?$_Tree@V?$_Tmap_traits@PAUHWND__@@UWndMoveData@@U?$less@PAUHWND__@@@std@@V?$allocator@U?$pair@QAUHWND__@@UWndMoveData@@@std@@@4@$0A@@std@@@std@@KAAAPAU_Node@?$_Tree_nod@V?$_Tmap_traits@PAUHWND__@@UWndMoveData@@U?$less@PAUHWND__@@@std@@V?$allocator@U?$pair@QAUHWND__@@UWndMoveData@@@std@@@4@$0A@@std@@@2@PAU342@@Z ; std::_Tree<std::_Tmap_traits<HWND__ *,WndMoveData,std::less<HWND__ *>,std::allocator<std::pair<HWND__ * const,WndMoveData> >,0> >::_Left
  0002a	83 c4 04	 add	 esp, 4
  0002d	8b 08		 mov	 ecx, DWORD PTR [eax]
  0002f	89 4d 08	 mov	 DWORD PTR __Pnode$[ebp], ecx
  00032	eb cf		 jmp	 SHORT $L188993
$L188994:

; 1044 : 		return (_Pnode);

  00034	8b 45 08	 mov	 eax, DWORD PTR __Pnode$[ebp]

; 1045 : 		}

  00037	3b ec		 cmp	 ebp, esp
  00039	e8 00 00 00 00	 call	 __RTC_CheckEsp
  0003e	5d		 pop	 ebp
  0003f	c3		 ret	 0
?_Min@?$_Tree@V?$_Tmap_traits@PAUHWND__@@UWndMoveData@@U?$less@PAUHWND__@@@std@@V?$allocator@U?$pair@QAUHWND__@@UWndMoveData@@@std@@@4@$0A@@std@@@std@@KAPAU_Node@?$_Tree_nod@V?$_Tmap_traits@PAUHWND__@@UWndMoveData@@U?$less@PAUHWND__@@@std@@V?$allocator@U?$pair@QAUHWND__@@UWndMoveData@@@std@@@4@$0A@@std@@@2@PAU342@@Z ENDP ; std::_Tree<std::_Tmap_traits<HWND__ *,WndMoveData,std::less<HWND__ *>,std::allocator<std::pair<HWND__ * const,WndMoveData> >,0> >::_Min
_TEXT	ENDS
PUBLIC	??$?0U?$pair@QAUHWND__@@UWndMoveData@@@std@@@?$allocator@U_Node@?$_Tree_nod@V?$_Tmap_traits@PAUHWND__@@UWndMoveData@@U?$less@PAUHWND__@@@std@@V?$allocator@U?$pair@QAUHWND__@@UWndMoveData@@@std@@@4@$0A@@std@@@std@@@std@@QAE@ABV?$allocator@U?$pair@QAUHWND__@@UWndMoveData@@@std@@@1@@Z ; std::allocator<std::_Tree_nod<std::_Tmap_traits<HWND__ *,WndMoveData,std::less<HWND__ *>,std::allocator<std::pair<HWND__ * const,WndMoveData> >,0> >::_Node>::allocator<std::_Tree_nod<std::_Tmap_traits<HWND__ *,WndMoveData,std::less<HWND__ *>,std::allocator<std::pair<HWND__ * const,WndMoveData> >,0> >::_Node><std::pair<HWND__ * const,WndMoveData> >
PUBLIC	??0?$_Tmap_traits@PAUHWND__@@UWndMoveData@@U?$less@PAUHWND__@@@std@@V?$allocator@U?$pair@QAUHWND__@@UWndMoveData@@@std@@@4@$0A@@std@@QAE@U?$less@PAUHWND__@@@1@@Z ; std::_Tmap_traits<HWND__ *,WndMoveData,std::less<HWND__ *>,std::allocator<std::pair<HWND__ * const,WndMoveData> >,0>::_Tmap_traits<HWND__ *,WndMoveData,std::less<HWND__ *>,std::allocator<std::pair<HWND__ * const,WndMoveData> >,0>
; Function compile flags: /Odt /RTCsu
;	COMDAT ??0?$_Tree_nod@V?$_Tmap_traits@PAUHWND__@@UWndMoveData@@U?$less@PAUHWND__@@@std@@V?$allocator@U?$pair@QAUHWND__@@UWndMoveData@@@std@@@4@$0A@@std@@@std@@IAE@ABU?$less@PAUHWND__@@@1@V?$allocator@U?$pair@QAUHWND__@@UWndMoveData@@@std@@@1@@Z
_TEXT	SEGMENT
_this$ = -4						; size = 4
__Parg$ = 8						; size = 4
__Al$ = 12						; size = 1
??0?$_Tree_nod@V?$_Tmap_traits@PAUHWND__@@UWndMoveData@@U?$less@PAUHWND__@@@std@@V?$allocator@U?$pair@QAUHWND__@@UWndMoveData@@@std@@@4@$0A@@std@@@std@@IAE@ABU?$less@PAUHWND__@@@1@V?$allocator@U?$pair@QAUHWND__@@UWndMoveData@@@std@@@1@@Z PROC NEAR ; std::_Tree_nod<std::_Tmap_traits<HWND__ *,WndMoveData,std::less<HWND__ *>,std::allocator<std::pair<HWND__ * const,WndMoveData> >,0> >::_Tree_nod<std::_Tmap_traits<HWND__ *,WndMoveData,std::less<HWND__ *>,std::allocator<std::pair<HWND__ * const,WndMoveData> >,0> >, COMDAT
; _this$ = ecx

; 54   : 		{	// construct traits from _Parg and allocator from _Al

  00000	55		 push	 ebp
  00001	8b ec		 mov	 ebp, esp
  00003	51		 push	 ecx
  00004	c7 45 fc cc cc
	cc cc		 mov	 DWORD PTR [ebp-4], -858993460 ; ccccccccH
  0000b	89 4d fc	 mov	 DWORD PTR _this$[ebp], ecx
  0000e	8b 45 08	 mov	 eax, DWORD PTR __Parg$[ebp]
  00011	8a 08		 mov	 cl, BYTE PTR [eax]
  00013	51		 push	 ecx
  00014	8b 4d fc	 mov	 ecx, DWORD PTR _this$[ebp]
  00017	e8 00 00 00 00	 call	 ??0?$_Tmap_traits@PAUHWND__@@UWndMoveData@@U?$less@PAUHWND__@@@std@@V?$allocator@U?$pair@QAUHWND__@@UWndMoveData@@@std@@@4@$0A@@std@@QAE@U?$less@PAUHWND__@@@1@@Z ; std::_Tmap_traits<HWND__ *,WndMoveData,std::less<HWND__ *>,std::allocator<std::pair<HWND__ * const,WndMoveData> >,0>::_Tmap_traits<HWND__ *,WndMoveData,std::less<HWND__ *>,std::allocator<std::pair<HWND__ * const,WndMoveData> >,0>
  0001c	8d 55 0c	 lea	 edx, DWORD PTR __Al$[ebp]
  0001f	52		 push	 edx
  00020	8b 4d fc	 mov	 ecx, DWORD PTR _this$[ebp]
  00023	83 c1 01	 add	 ecx, 1
  00026	e8 00 00 00 00	 call	 ??$?0U?$pair@QAUHWND__@@UWndMoveData@@@std@@@?$allocator@U_Node@?$_Tree_nod@V?$_Tmap_traits@PAUHWND__@@UWndMoveData@@U?$less@PAUHWND__@@@std@@V?$allocator@U?$pair@QAUHWND__@@UWndMoveData@@@std@@@4@$0A@@std@@@std@@@std@@QAE@ABV?$allocator@U?$pair@QAUHWND__@@UWndMoveData@@@std@@@1@@Z ; std::allocator<std::_Tree_nod<std::_Tmap_traits<HWND__ *,WndMoveData,std::less<HWND__ *>,std::allocator<std::pair<HWND__ * const,WndMoveData> >,0> >::_Node>::allocator<std::_Tree_nod<std::_Tmap_traits<HWND__ *,WndMoveData,std::less<HWND__ *>,std::allocator<std::pair<HWND__ * const,WndMoveData> >,0> >::_Node><std::pair<HWND__ * const,WndMoveData> >

; 55   : 		}

  0002b	8b 45 fc	 mov	 eax, DWORD PTR _this$[ebp]
  0002e	83 c4 04	 add	 esp, 4
  00031	3b ec		 cmp	 ebp, esp
  00033	e8 00 00 00 00	 call	 __RTC_CheckEsp
  00038	8b e5		 mov	 esp, ebp
  0003a	5d		 pop	 ebp
  0003b	c2 08 00	 ret	 8
??0?$_Tree_nod@V?$_Tmap_traits@PAUHWND__@@UWndMoveData@@U?$less@PAUHWND__@@@std@@V?$allocator@U?$pair@QAUHWND__@@UWndMoveData@@@std@@@4@$0A@@std@@@std@@IAE@ABU?$less@PAUHWND__@@@1@V?$allocator@U?$pair@QAUHWND__@@UWndMoveData@@@std@@@1@@Z ENDP ; std::_Tree_nod<std::_Tmap_traits<HWND__ *,WndMoveData,std::less<HWND__ *>,std::allocator<std::pair<HWND__ * const,WndMoveData> >,0> >::_Tree_nod<std::_Tmap_traits<HWND__ *,WndMoveData,std::less<HWND__ *>,std::allocator<std::pair<HWND__ * const,WndMoveData> >,0> >
; Function compile flags: /Odt /RTCsu
; File d:\program files (x86)\microsoft visual studio .net 2003\vc7\include\xmemory
_TEXT	ENDS
;	COMDAT ?max_size@?$allocator@U?$pair@QAUHWND__@@UWndMoveData@@@std@@@std@@QBEIXZ
_TEXT	SEGMENT
tv65 = -12						; size = 4
__Count$ = -8						; size = 4
_this$ = -4						; size = 4
?max_size@?$allocator@U?$pair@QAUHWND__@@UWndMoveData@@@std@@@std@@QBEIXZ PROC NEAR ; std::allocator<std::pair<HWND__ * const,WndMoveData> >::max_size, COMDAT
; _this$ = ecx

; 156  : 		{	// estimate maximum array size

  00000	55		 push	 ebp
  00001	8b ec		 mov	 ebp, esp
  00003	83 ec 0c	 sub	 esp, 12			; 0000000cH
  00006	c7 45 f4 cc cc
	cc cc		 mov	 DWORD PTR [ebp-12], -858993460 ; ccccccccH
  0000d	c7 45 f8 cc cc
	cc cc		 mov	 DWORD PTR [ebp-8], -858993460 ; ccccccccH
  00014	c7 45 fc cc cc
	cc cc		 mov	 DWORD PTR [ebp-4], -858993460 ; ccccccccH
  0001b	89 4d fc	 mov	 DWORD PTR _this$[ebp], ecx

; 157  : 		_SIZT _Count = (_SIZT)(-1) / sizeof (_Ty);

  0001e	c7 45 f8 ff ff
	ff 07		 mov	 DWORD PTR __Count$[ebp], 134217727 ; 07ffffffH

; 158  : 		return (0 < _Count ? _Count : 1);

  00025	83 7d f8 00	 cmp	 DWORD PTR __Count$[ebp], 0
  00029	76 08		 jbe	 SHORT $L189871
  0002b	8b 45 f8	 mov	 eax, DWORD PTR __Count$[ebp]
  0002e	89 45 f4	 mov	 DWORD PTR tv65[ebp], eax
  00031	eb 07		 jmp	 SHORT $L189872
$L189871:
  00033	c7 45 f4 01 00
	00 00		 mov	 DWORD PTR tv65[ebp], 1
$L189872:
  0003a	8b 45 f4	 mov	 eax, DWORD PTR tv65[ebp]

; 159  : 		}

  0003d	8b e5		 mov	 esp, ebp
  0003f	5d		 pop	 ebp
  00040	c3		 ret	 0
?max_size@?$allocator@U?$pair@QAUHWND__@@UWndMoveData@@@std@@@std@@QBEIXZ ENDP ; std::allocator<std::pair<HWND__ * const,WndMoveData> >::max_size
_TEXT	ENDS
PUBLIC	??$_Allocate@U_Node@?$_Tree_nod@V?$_Tmap_traits@PAUHWND__@@UWndMoveData@@U?$less@PAUHWND__@@@std@@V?$allocator@U?$pair@QAUHWND__@@UWndMoveData@@@std@@@4@$0A@@std@@@std@@@std@@YAPAU_Node@?$_Tree_nod@V?$_Tmap_traits@PAUHWND__@@UWndMoveData@@U?$less@PAUHWND__@@@std@@V?$allocator@U?$pair@QAUHWND__@@UWndMoveData@@@std@@@4@$0A@@std@@@0@IPAU120@@Z ; std::_Allocate<std::_Tree_nod<std::_Tmap_traits<HWND__ *,WndMoveData,std::less<HWND__ *>,std::allocator<std::pair<HWND__ * const,WndMoveData> >,0> >::_Node>
; Function compile flags: /Odt /RTCsu
;	COMDAT ?allocate@?$allocator@U_Node@?$_Tree_nod@V?$_Tmap_traits@PAUHWND__@@UWndMoveData@@U?$less@PAUHWND__@@@std@@V?$allocator@U?$pair@QAUHWND__@@UWndMoveData@@@std@@@4@$0A@@std@@@std@@@std@@QAEPAU_Node@?$_Tree_nod@V?$_Tmap_traits@PAUHWND__@@UWndMoveData@@U?$less@PAUHWND__@@@std@@V?$allocator@U?$pair@QAUHWND__@@UWndMoveData@@@std@@@4@$0A@@std@@@2@I@Z
_TEXT	SEGMENT
_this$ = -4						; size = 4
__Count$ = 8						; size = 4
?allocate@?$allocator@U_Node@?$_Tree_nod@V?$_Tmap_traits@PAUHWND__@@UWndMoveData@@U?$less@PAUHWND__@@@std@@V?$allocator@U?$pair@QAUHWND__@@UWndMoveData@@@std@@@4@$0A@@std@@@std@@@std@@QAEPAU_Node@?$_Tree_nod@V?$_Tmap_traits@PAUHWND__@@UWndMoveData@@U?$less@PAUHWND__@@@std@@V?$allocator@U?$pair@QAUHWND__@@UWndMoveData@@@std@@@4@$0A@@std@@@2@I@Z PROC NEAR ; std::allocator<std::_Tree_nod<std::_Tmap_traits<HWND__ *,WndMoveData,std::less<HWND__ *>,std::allocator<std::pair<HWND__ * const,WndMoveData> >,0> >::_Node>::allocate, COMDAT
; _this$ = ecx

; 136  : 		{	// allocate array of _Count elements

  00000	55		 push	 ebp
  00001	8b ec		 mov	 ebp, esp
  00003	51		 push	 ecx
  00004	c7 45 fc cc cc
	cc cc		 mov	 DWORD PTR [ebp-4], -858993460 ; ccccccccH
  0000b	89 4d fc	 mov	 DWORD PTR _this$[ebp], ecx

; 137  : 		return (_Allocate(_Count, (pointer)0));

  0000e	6a 00		 push	 0
  00010	8b 45 08	 mov	 eax, DWORD PTR __Count$[ebp]
  00013	50		 push	 eax
  00014	e8 00 00 00 00	 call	 ??$_Allocate@U_Node@?$_Tree_nod@V?$_Tmap_traits@PAUHWND__@@UWndMoveData@@U?$less@PAUHWND__@@@std@@V?$allocator@U?$pair@QAUHWND__@@UWndMoveData@@@std@@@4@$0A@@std@@@std@@@std@@YAPAU_Node@?$_Tree_nod@V?$_Tmap_traits@PAUHWND__@@UWndMoveData@@U?$less@PAUHWND__@@@std@@V?$allocator@U?$pair@QAUHWND__@@UWndMoveData@@@std@@@4@$0A@@std@@@0@IPAU120@@Z ; std::_Allocate<std::_Tree_nod<std::_Tmap_traits<HWND__ *,WndMoveData,std::less<HWND__ *>,std::allocator<std::pair<HWND__ * const,WndMoveData> >,0> >::_Node>
  00019	83 c4 08	 add	 esp, 8

; 138  : 		}

  0001c	83 c4 04	 add	 esp, 4
  0001f	3b ec		 cmp	 ebp, esp
  00021	e8 00 00 00 00	 call	 __RTC_CheckEsp
  00026	8b e5		 mov	 esp, ebp
  00028	5d		 pop	 ebp
  00029	c2 04 00	 ret	 4
?allocate@?$allocator@U_Node@?$_Tree_nod@V?$_Tmap_traits@PAUHWND__@@UWndMoveData@@U?$less@PAUHWND__@@@std@@V?$allocator@U?$pair@QAUHWND__@@UWndMoveData@@@std@@@4@$0A@@std@@@std@@@std@@QAEPAU_Node@?$_Tree_nod@V?$_Tmap_traits@PAUHWND__@@UWndMoveData@@U?$less@PAUHWND__@@@std@@V?$allocator@U?$pair@QAUHWND__@@UWndMoveData@@@std@@@4@$0A@@std@@@2@I@Z ENDP ; std::allocator<std::_Tree_nod<std::_Tmap_traits<HWND__ *,WndMoveData,std::less<HWND__ *>,std::allocator<std::pair<HWND__ * const,WndMoveData> >,0> >::_Node>::allocate
_TEXT	ENDS
PUBLIC	??$_Construct@PAU_Node@?$_Tree_nod@V?$_Tmap_traits@PAUHWND__@@UWndMoveData@@U?$less@PAUHWND__@@@std@@V?$allocator@U?$pair@QAUHWND__@@UWndMoveData@@@std@@@4@$0A@@std@@@std@@PAU123@@std@@YAXPAPAU_Node@?$_Tree_nod@V?$_Tmap_traits@PAUHWND__@@UWndMoveData@@U?$less@PAUHWND__@@@std@@V?$allocator@U?$pair@QAUHWND__@@UWndMoveData@@@std@@@4@$0A@@std@@@0@ABQAU120@@Z ; std::_Construct<std::_Tree_nod<std::_Tmap_traits<HWND__ *,WndMoveData,std::less<HWND__ *>,std::allocator<std::pair<HWND__ * const,WndMoveData> >,0> >::_Node *,std::_Tree_nod<std::_Tmap_traits<HWND__ *,WndMoveData,std::less<HWND__ *>,std::allocator<std::pair<HWND__ * const,WndMoveData> >,0> >::_Node *>
; Function compile flags: /Odt /RTCsu
;	COMDAT ?construct@?$allocator@PAU_Node@?$_Tree_nod@V?$_Tmap_traits@PAUHWND__@@UWndMoveData@@U?$less@PAUHWND__@@@std@@V?$allocator@U?$pair@QAUHWND__@@UWndMoveData@@@std@@@4@$0A@@std@@@std@@@std@@QAEXPAPAU_Node@?$_Tree_nod@V?$_Tmap_traits@PAUHWND__@@UWndMoveData@@U?$less@PAUHWND__@@@std@@V?$allocator@U?$pair@QAUHWND__@@UWndMoveData@@@std@@@4@$0A@@std@@@2@ABQAU342@@Z
_TEXT	SEGMENT
_this$ = -4						; size = 4
__Ptr$ = 8						; size = 4
__Val$ = 12						; size = 4
?construct@?$allocator@PAU_Node@?$_Tree_nod@V?$_Tmap_traits@PAUHWND__@@UWndMoveData@@U?$less@PAUHWND__@@@std@@V?$allocator@U?$pair@QAUHWND__@@UWndMoveData@@@std@@@4@$0A@@std@@@std@@@std@@QAEXPAPAU_Node@?$_Tree_nod@V?$_Tmap_traits@PAUHWND__@@UWndMoveData@@U?$less@PAUHWND__@@@std@@V?$allocator@U?$pair@QAUHWND__@@UWndMoveData@@@std@@@4@$0A@@std@@@2@ABQAU342@@Z PROC NEAR ; std::allocator<std::_Tree_nod<std::_Tmap_traits<HWND__ *,WndMoveData,std::less<HWND__ *>,std::allocator<std::pair<HWND__ * const,WndMoveData> >,0> >::_Node *>::construct, COMDAT
; _this$ = ecx

; 146  : 		{	// construct object at _Ptr with value _Val

  00000	55		 push	 ebp
  00001	8b ec		 mov	 ebp, esp
  00003	51		 push	 ecx
  00004	c7 45 fc cc cc
	cc cc		 mov	 DWORD PTR [ebp-4], -858993460 ; ccccccccH
  0000b	89 4d fc	 mov	 DWORD PTR _this$[ebp], ecx

; 147  : 		_Construct(_Ptr, _Val);

  0000e	8b 45 0c	 mov	 eax, DWORD PTR __Val$[ebp]
  00011	50		 push	 eax
  00012	8b 4d 08	 mov	 ecx, DWORD PTR __Ptr$[ebp]
  00015	51		 push	 ecx
  00016	e8 00 00 00 00	 call	 ??$_Construct@PAU_Node@?$_Tree_nod@V?$_Tmap_traits@PAUHWND__@@UWndMoveData@@U?$less@PAUHWND__@@@std@@V?$allocator@U?$pair@QAUHWND__@@UWndMoveData@@@std@@@4@$0A@@std@@@std@@PAU123@@std@@YAXPAPAU_Node@?$_Tree_nod@V?$_Tmap_traits@PAUHWND__@@UWndMoveData@@U?$less@PAUHWND__@@@std@@V?$allocator@U?$pair@QAUHWND__@@UWndMoveData@@@std@@@4@$0A@@std@@@0@ABQAU120@@Z ; std::_Construct<std::_Tree_nod<std::_Tmap_traits<HWND__ *,WndMoveData,std::less<HWND__ *>,std::allocator<std::pair<HWND__ * const,WndMoveData> >,0> >::_Node *,std::_Tree_nod<std::_Tmap_traits<HWND__ *,WndMoveData,std::less<HWND__ *>,std::allocator<std::pair<HWND__ * const,WndMoveData> >,0> >::_Node *>
  0001b	83 c4 08	 add	 esp, 8

; 148  : 		}

  0001e	83 c4 04	 add	 esp, 4
  00021	3b ec		 cmp	 ebp, esp
  00023	e8 00 00 00 00	 call	 __RTC_CheckEsp
  00028	8b e5		 mov	 esp, ebp
  0002a	5d		 pop	 ebp
  0002b	c2 08 00	 ret	 8
?construct@?$allocator@PAU_Node@?$_Tree_nod@V?$_Tmap_traits@PAUHWND__@@UWndMoveData@@U?$less@PAUHWND__@@@std@@V?$allocator@U?$pair@QAUHWND__@@UWndMoveData@@@std@@@4@$0A@@std@@@std@@@std@@QAEXPAPAU_Node@?$_Tree_nod@V?$_Tmap_traits@PAUHWND__@@UWndMoveData@@U?$less@PAUHWND__@@@std@@V?$allocator@U?$pair@QAUHWND__@@UWndMoveData@@@std@@@4@$0A@@std@@@2@ABQAU342@@Z ENDP ; std::allocator<std::_Tree_nod<std::_Tmap_traits<HWND__ *,WndMoveData,std::less<HWND__ *>,std::allocator<std::pair<HWND__ * const,WndMoveData> >,0> >::_Node *>::construct
; Function compile flags: /Odt /RTCsu
; File d:\program files (x86)\microsoft visual studio .net 2003\vc7\include\xtree
_TEXT	ENDS
;	COMDAT ?_Dec@const_iterator@?$_Tree@V?$_Tmap_traits@PAUHWND__@@UWndMoveData@@U?$less@PAUHWND__@@@std@@V?$allocator@U?$pair@QAUHWND__@@UWndMoveData@@@std@@@4@$0A@@std@@@std@@QAEXXZ
_TEXT	SEGMENT
__Pnode$189027 = -8					; size = 4
_this$ = -4						; size = 4
?_Dec@const_iterator@?$_Tree@V?$_Tmap_traits@PAUHWND__@@UWndMoveData@@U?$less@PAUHWND__@@@std@@V?$allocator@U?$pair@QAUHWND__@@UWndMoveData@@@std@@@4@$0A@@std@@@std@@QAEXXZ PROC NEAR ; std::_Tree<std::_Tmap_traits<HWND__ *,WndMoveData,std::less<HWND__ *>,std::allocator<std::pair<HWND__ * const,WndMoveData> >,0> >::const_iterator::_Dec, COMDAT
; _this$ = ecx

; 250  : 			{	// move to node with next smaller value

  00000	55		 push	 ebp
  00001	8b ec		 mov	 ebp, esp
  00003	83 ec 08	 sub	 esp, 8
  00006	c7 45 f8 cc cc
	cc cc		 mov	 DWORD PTR [ebp-8], -858993460 ; ccccccccH
  0000d	c7 45 fc cc cc
	cc cc		 mov	 DWORD PTR [ebp-4], -858993460 ; ccccccccH
  00014	89 4d fc	 mov	 DWORD PTR _this$[ebp], ecx

; 251  : 			if (_Isnil(_Ptr))

  00017	8b 45 fc	 mov	 eax, DWORD PTR _this$[ebp]
  0001a	8b 08		 mov	 ecx, DWORD PTR [eax]
  0001c	51		 push	 ecx
  0001d	e8 00 00 00 00	 call	 ?_Isnil@?$_Tree@V?$_Tmap_traits@PAUHWND__@@UWndMoveData@@U?$less@PAUHWND__@@@std@@V?$allocator@U?$pair@QAUHWND__@@UWndMoveData@@@std@@@4@$0A@@std@@@std@@KAAADPAU_Node@?$_Tree_nod@V?$_Tmap_traits@PAUHWND__@@UWndMoveData@@U?$less@PAUHWND__@@@std@@V?$allocator@U?$pair@QAUHWND__@@UWndMoveData@@@std@@@4@$0A@@std@@@2@@Z ; std::_Tree<std::_Tmap_traits<HWND__ *,WndMoveData,std::less<HWND__ *>,std::allocator<std::pair<HWND__ * const,WndMoveData> >,0> >::_Isnil
  00022	83 c4 04	 add	 esp, 4
  00025	0f be 10	 movsx	 edx, BYTE PTR [eax]
  00028	85 d2		 test	 edx, edx
  0002a	74 1a		 je	 SHORT $L189023

; 252  : 				_Ptr = _Right(_Ptr);	// end() ==> rightmost

  0002c	8b 45 fc	 mov	 eax, DWORD PTR _this$[ebp]
  0002f	8b 08		 mov	 ecx, DWORD PTR [eax]
  00031	51		 push	 ecx
  00032	e8 00 00 00 00	 call	 ?_Right@?$_Tree@V?$_Tmap_traits@PAUHWND__@@UWndMoveData@@U?$less@PAUHWND__@@@std@@V?$allocator@U?$pair@QAUHWND__@@UWndMoveData@@@std@@@4@$0A@@std@@@std@@KAAAPAU_Node@?$_Tree_nod@V?$_Tmap_traits@PAUHWND__@@UWndMoveData@@U?$less@PAUHWND__@@@std@@V?$allocator@U?$pair@QAUHWND__@@UWndMoveData@@@std@@@4@$0A@@std@@@2@PAU342@@Z ; std::_Tree<std::_Tmap_traits<HWND__ *,WndMoveData,std::less<HWND__ *>,std::allocator<std::pair<HWND__ * const,WndMoveData> >,0> >::_Right
  00037	83 c4 04	 add	 esp, 4
  0003a	8b 55 fc	 mov	 edx, DWORD PTR _this$[ebp]
  0003d	8b 00		 mov	 eax, DWORD PTR [eax]
  0003f	89 02		 mov	 DWORD PTR [edx], eax

; 253  : 			else if (!_Isnil(_Left(_Ptr)))

  00041	e9 a0 00 00 00	 jmp	 $L189022
$L189023:
  00046	8b 4d fc	 mov	 ecx, DWORD PTR _this$[ebp]
  00049	8b 11		 mov	 edx, DWORD PTR [ecx]
  0004b	52		 push	 edx
  0004c	e8 00 00 00 00	 call	 ?_Left@?$_Tree@V?$_Tmap_traits@PAUHWND__@@UWndMoveData@@U?$less@PAUHWND__@@@std@@V?$allocator@U?$pair@QAUHWND__@@UWndMoveData@@@std@@@4@$0A@@std@@@std@@KAAAPAU_Node@?$_Tree_nod@V?$_Tmap_traits@PAUHWND__@@UWndMoveData@@U?$less@PAUHWND__@@@std@@V?$allocator@U?$pair@QAUHWND__@@UWndMoveData@@@std@@@4@$0A@@std@@@2@PAU342@@Z ; std::_Tree<std::_Tmap_traits<HWND__ *,WndMoveData,std::less<HWND__ *>,std::allocator<std::pair<HWND__ * const,WndMoveData> >,0> >::_Left
  00051	83 c4 04	 add	 esp, 4
  00054	8b 00		 mov	 eax, DWORD PTR [eax]
  00056	50		 push	 eax
  00057	e8 00 00 00 00	 call	 ?_Isnil@?$_Tree@V?$_Tmap_traits@PAUHWND__@@UWndMoveData@@U?$less@PAUHWND__@@@std@@V?$allocator@U?$pair@QAUHWND__@@UWndMoveData@@@std@@@4@$0A@@std@@@std@@KAAADPAU_Node@?$_Tree_nod@V?$_Tmap_traits@PAUHWND__@@UWndMoveData@@U?$less@PAUHWND__@@@std@@V?$allocator@U?$pair@QAUHWND__@@UWndMoveData@@@std@@@4@$0A@@std@@@2@@Z ; std::_Tree<std::_Tmap_traits<HWND__ *,WndMoveData,std::less<HWND__ *>,std::allocator<std::pair<HWND__ * const,WndMoveData> >,0> >::_Isnil
  0005c	83 c4 04	 add	 esp, 4
  0005f	0f be 08	 movsx	 ecx, BYTE PTR [eax]
  00062	85 c9		 test	 ecx, ecx
  00064	75 20		 jne	 SHORT $L189029

; 254  : 				_Ptr = _Max(_Left(_Ptr));	// ==> largest of left subtree

  00066	8b 55 fc	 mov	 edx, DWORD PTR _this$[ebp]
  00069	8b 02		 mov	 eax, DWORD PTR [edx]
  0006b	50		 push	 eax
  0006c	e8 00 00 00 00	 call	 ?_Left@?$_Tree@V?$_Tmap_traits@PAUHWND__@@UWndMoveData@@U?$less@PAUHWND__@@@std@@V?$allocator@U?$pair@QAUHWND__@@UWndMoveData@@@std@@@4@$0A@@std@@@std@@KAAAPAU_Node@?$_Tree_nod@V?$_Tmap_traits@PAUHWND__@@UWndMoveData@@U?$less@PAUHWND__@@@std@@V?$allocator@U?$pair@QAUHWND__@@UWndMoveData@@@std@@@4@$0A@@std@@@2@PAU342@@Z ; std::_Tree<std::_Tmap_traits<HWND__ *,WndMoveData,std::less<HWND__ *>,std::allocator<std::pair<HWND__ * const,WndMoveData> >,0> >::_Left
  00071	83 c4 04	 add	 esp, 4
  00074	8b 08		 mov	 ecx, DWORD PTR [eax]
  00076	51		 push	 ecx
  00077	e8 00 00 00 00	 call	 ?_Max@?$_Tree@V?$_Tmap_traits@PAUHWND__@@UWndMoveData@@U?$less@PAUHWND__@@@std@@V?$allocator@U?$pair@QAUHWND__@@UWndMoveData@@@std@@@4@$0A@@std@@@std@@KAPAU_Node@?$_Tree_nod@V?$_Tmap_traits@PAUHWND__@@UWndMoveData@@U?$less@PAUHWND__@@@std@@V?$allocator@U?$pair@QAUHWND__@@UWndMoveData@@@std@@@4@$0A@@std@@@2@PAU342@@Z ; std::_Tree<std::_Tmap_traits<HWND__ *,WndMoveData,std::less<HWND__ *>,std::allocator<std::pair<HWND__ * const,WndMoveData> >,0> >::_Max
  0007c	83 c4 04	 add	 esp, 4
  0007f	8b 55 fc	 mov	 edx, DWORD PTR _this$[ebp]
  00082	89 02		 mov	 DWORD PTR [edx], eax

; 255  : 			else

  00084	eb 60		 jmp	 SHORT $L189022
$L189029:

; 256  : 				{	// climb looking for left subtree
; 257  : 				_Nodeptr _Pnode;
; 258  : 				while (!_Isnil(_Pnode = _Parent(_Ptr))
; 259  : 					&& _Ptr == _Left(_Pnode))

  00086	8b 45 fc	 mov	 eax, DWORD PTR _this$[ebp]
  00089	8b 08		 mov	 ecx, DWORD PTR [eax]
  0008b	51		 push	 ecx
  0008c	e8 00 00 00 00	 call	 ?_Parent@?$_Tree@V?$_Tmap_traits@PAUHWND__@@UWndMoveData@@U?$less@PAUHWND__@@@std@@V?$allocator@U?$pair@QAUHWND__@@UWndMoveData@@@std@@@4@$0A@@std@@@std@@KAAAPAU_Node@?$_Tree_nod@V?$_Tmap_traits@PAUHWND__@@UWndMoveData@@U?$less@PAUHWND__@@@std@@V?$allocator@U?$pair@QAUHWND__@@UWndMoveData@@@std@@@4@$0A@@std@@@2@PAU342@@Z ; std::_Tree<std::_Tmap_traits<HWND__ *,WndMoveData,std::less<HWND__ *>,std::allocator<std::pair<HWND__ * const,WndMoveData> >,0> >::_Parent
  00091	83 c4 04	 add	 esp, 4
  00094	8b 10		 mov	 edx, DWORD PTR [eax]
  00096	89 55 f8	 mov	 DWORD PTR __Pnode$189027[ebp], edx
  00099	8b 45 f8	 mov	 eax, DWORD PTR __Pnode$189027[ebp]
  0009c	50		 push	 eax
  0009d	e8 00 00 00 00	 call	 ?_Isnil@?$_Tree@V?$_Tmap_traits@PAUHWND__@@UWndMoveData@@U?$less@PAUHWND__@@@std@@V?$allocator@U?$pair@QAUHWND__@@UWndMoveData@@@std@@@4@$0A@@std@@@std@@KAAADPAU_Node@?$_Tree_nod@V?$_Tmap_traits@PAUHWND__@@UWndMoveData@@U?$less@PAUHWND__@@@std@@V?$allocator@U?$pair@QAUHWND__@@UWndMoveData@@@std@@@4@$0A@@std@@@2@@Z ; std::_Tree<std::_Tmap_traits<HWND__ *,WndMoveData,std::less<HWND__ *>,std::allocator<std::pair<HWND__ * const,WndMoveData> >,0> >::_Isnil
  000a2	83 c4 04	 add	 esp, 4
  000a5	0f be 08	 movsx	 ecx, BYTE PTR [eax]
  000a8	85 c9		 test	 ecx, ecx
  000aa	75 1f		 jne	 SHORT $L189030
  000ac	8b 55 f8	 mov	 edx, DWORD PTR __Pnode$189027[ebp]
  000af	52		 push	 edx
  000b0	e8 00 00 00 00	 call	 ?_Left@?$_Tree@V?$_Tmap_traits@PAUHWND__@@UWndMoveData@@U?$less@PAUHWND__@@@std@@V?$allocator@U?$pair@QAUHWND__@@UWndMoveData@@@std@@@4@$0A@@std@@@std@@KAAAPAU_Node@?$_Tree_nod@V?$_Tmap_traits@PAUHWND__@@UWndMoveData@@U?$less@PAUHWND__@@@std@@V?$allocator@U?$pair@QAUHWND__@@UWndMoveData@@@std@@@4@$0A@@std@@@2@PAU342@@Z ; std::_Tree<std::_Tmap_traits<HWND__ *,WndMoveData,std::less<HWND__ *>,std::allocator<std::pair<HWND__ * const,WndMoveData> >,0> >::_Left
  000b5	83 c4 04	 add	 esp, 4
  000b8	8b 4d fc	 mov	 ecx, DWORD PTR _this$[ebp]
  000bb	8b 11		 mov	 edx, DWORD PTR [ecx]
  000bd	3b 10		 cmp	 edx, DWORD PTR [eax]
  000bf	75 0a		 jne	 SHORT $L189030

; 260  : 					_Ptr = _Pnode;	// ==> parent while left subtree

  000c1	8b 45 fc	 mov	 eax, DWORD PTR _this$[ebp]
  000c4	8b 4d f8	 mov	 ecx, DWORD PTR __Pnode$189027[ebp]
  000c7	89 08		 mov	 DWORD PTR [eax], ecx
  000c9	eb bb		 jmp	 SHORT $L189029
$L189030:

; 261  : 				if (!_Isnil(_Pnode))

  000cb	8b 55 f8	 mov	 edx, DWORD PTR __Pnode$189027[ebp]
  000ce	52		 push	 edx
  000cf	e8 00 00 00 00	 call	 ?_Isnil@?$_Tree@V?$_Tmap_traits@PAUHWND__@@UWndMoveData@@U?$less@PAUHWND__@@@std@@V?$allocator@U?$pair@QAUHWND__@@UWndMoveData@@@std@@@4@$0A@@std@@@std@@KAAADPAU_Node@?$_Tree_nod@V?$_Tmap_traits@PAUHWND__@@UWndMoveData@@U?$less@PAUHWND__@@@std@@V?$allocator@U?$pair@QAUHWND__@@UWndMoveData@@@std@@@4@$0A@@std@@@2@@Z ; std::_Tree<std::_Tmap_traits<HWND__ *,WndMoveData,std::less<HWND__ *>,std::allocator<std::pair<HWND__ * const,WndMoveData> >,0> >::_Isnil
  000d4	83 c4 04	 add	 esp, 4
  000d7	0f be 00	 movsx	 eax, BYTE PTR [eax]
  000da	85 c0		 test	 eax, eax
  000dc	75 08		 jne	 SHORT $L189022

; 262  : 					_Ptr = _Pnode;	// ==> parent if not head

  000de	8b 4d fc	 mov	 ecx, DWORD PTR _this$[ebp]
  000e1	8b 55 f8	 mov	 edx, DWORD PTR __Pnode$189027[ebp]
  000e4	89 11		 mov	 DWORD PTR [ecx], edx
$L189022:

; 263  : 				}
; 264  : 			}

  000e6	83 c4 08	 add	 esp, 8
  000e9	3b ec		 cmp	 ebp, esp
  000eb	e8 00 00 00 00	 call	 __RTC_CheckEsp
  000f0	8b e5		 mov	 esp, ebp
  000f2	5d		 pop	 ebp
  000f3	c3		 ret	 0
?_Dec@const_iterator@?$_Tree@V?$_Tmap_traits@PAUHWND__@@UWndMoveData@@U?$less@PAUHWND__@@@std@@V?$allocator@U?$pair@QAUHWND__@@UWndMoveData@@@std@@@4@$0A@@std@@@std@@QAEXXZ ENDP ; std::_Tree<std::_Tmap_traits<HWND__ *,WndMoveData,std::less<HWND__ *>,std::allocator<std::pair<HWND__ * const,WndMoveData> >,0> >::const_iterator::_Dec
; Function compile flags: /Odt /RTCsu
_TEXT	ENDS
;	COMDAT ??0_Node@?$_Tree_nod@V?$_Tmap_traits@PAUHWND__@@UWndMoveData@@U?$less@PAUHWND__@@@std@@V?$allocator@U?$pair@QAUHWND__@@UWndMoveData@@@std@@@4@$0A@@std@@@std@@QAE@PAU012@00ABU?$pair@QAUHWND__@@UWndMoveData@@@2@D@Z
_TEXT	SEGMENT
_this$ = -4						; size = 4
__Larg$ = 8						; size = 4
__Parg$ = 12						; size = 4
__Rarg$ = 16						; size = 4
__Val$ = 20						; size = 4
__Carg$ = 24						; size = 1
??0_Node@?$_Tree_nod@V?$_Tmap_traits@PAUHWND__@@UWndMoveData@@U?$less@PAUHWND__@@@std@@V?$allocator@U?$pair@QAUHWND__@@UWndMoveData@@@std@@@4@$0A@@std@@@std@@QAE@PAU012@00ABU?$pair@QAUHWND__@@UWndMoveData@@@2@D@Z PROC NEAR ; std::_Tree_nod<std::_Tmap_traits<HWND__ *,WndMoveData,std::less<HWND__ *>,std::allocator<std::pair<HWND__ * const,WndMoveData> >,0> >::_Node::_Node, COMDAT
; _this$ = ecx

; 40   : 			{	// construct a node with value

  00000	55		 push	 ebp
  00001	8b ec		 mov	 ebp, esp
  00003	51		 push	 ecx
  00004	56		 push	 esi
  00005	57		 push	 edi
  00006	c7 45 fc cc cc
	cc cc		 mov	 DWORD PTR [ebp-4], -858993460 ; ccccccccH
  0000d	89 4d fc	 mov	 DWORD PTR _this$[ebp], ecx
  00010	8b 45 fc	 mov	 eax, DWORD PTR _this$[ebp]
  00013	8b 4d 08	 mov	 ecx, DWORD PTR __Larg$[ebp]
  00016	89 08		 mov	 DWORD PTR [eax], ecx
  00018	8b 55 fc	 mov	 edx, DWORD PTR _this$[ebp]
  0001b	8b 45 0c	 mov	 eax, DWORD PTR __Parg$[ebp]
  0001e	89 42 04	 mov	 DWORD PTR [edx+4], eax
  00021	8b 4d fc	 mov	 ecx, DWORD PTR _this$[ebp]
  00024	8b 55 10	 mov	 edx, DWORD PTR __Rarg$[ebp]
  00027	89 51 08	 mov	 DWORD PTR [ecx+8], edx
  0002a	8b 75 14	 mov	 esi, DWORD PTR __Val$[ebp]
  0002d	8b 7d fc	 mov	 edi, DWORD PTR _this$[ebp]
  00030	83 c7 0c	 add	 edi, 12			; 0000000cH
  00033	b9 08 00 00 00	 mov	 ecx, 8
  00038	f3 a5		 rep movsd
  0003a	8b 45 fc	 mov	 eax, DWORD PTR _this$[ebp]
  0003d	8a 4d 18	 mov	 cl, BYTE PTR __Carg$[ebp]
  00040	88 48 2c	 mov	 BYTE PTR [eax+44], cl
  00043	8b 55 fc	 mov	 edx, DWORD PTR _this$[ebp]
  00046	c6 42 2d 00	 mov	 BYTE PTR [edx+45], 0

; 41   : 			}

  0004a	8b 45 fc	 mov	 eax, DWORD PTR _this$[ebp]
  0004d	5f		 pop	 edi
  0004e	5e		 pop	 esi
  0004f	8b e5		 mov	 esp, ebp
  00051	5d		 pop	 ebp
  00052	c2 14 00	 ret	 20			; 00000014H
??0_Node@?$_Tree_nod@V?$_Tmap_traits@PAUHWND__@@UWndMoveData@@U?$less@PAUHWND__@@@std@@V?$allocator@U?$pair@QAUHWND__@@UWndMoveData@@@std@@@4@$0A@@std@@@std@@QAE@PAU012@00ABU?$pair@QAUHWND__@@UWndMoveData@@@2@D@Z ENDP ; std::_Tree_nod<std::_Tmap_traits<HWND__ *,WndMoveData,std::less<HWND__ *>,std::allocator<std::pair<HWND__ * const,WndMoveData> >,0> >::_Node::_Node
; Function compile flags: /Odt /RTCsu
; File d:\program files (x86)\microsoft visual studio .net 2003\vc7\include\map
_TEXT	ENDS
;	COMDAT ??0?$_Tmap_traits@PAUHWND__@@UWndMoveData@@U?$less@PAUHWND__@@@std@@V?$allocator@U?$pair@QAUHWND__@@UWndMoveData@@@std@@@4@$0A@@std@@QAE@U?$less@PAUHWND__@@@1@@Z
_TEXT	SEGMENT
_this$ = -4						; size = 4
__Parg$ = 8						; size = 1
??0?$_Tmap_traits@PAUHWND__@@UWndMoveData@@U?$less@PAUHWND__@@@std@@V?$allocator@U?$pair@QAUHWND__@@UWndMoveData@@@std@@@4@$0A@@std@@QAE@U?$less@PAUHWND__@@@1@@Z PROC NEAR ; std::_Tmap_traits<HWND__ *,WndMoveData,std::less<HWND__ *>,std::allocator<std::pair<HWND__ * const,WndMoveData> >,0>::_Tmap_traits<HWND__ *,WndMoveData,std::less<HWND__ *>,std::allocator<std::pair<HWND__ * const,WndMoveData> >,0>, COMDAT
; _this$ = ecx

; 38   : 		{	// construct with specified comparator

  00000	55		 push	 ebp
  00001	8b ec		 mov	 ebp, esp
  00003	51		 push	 ecx
  00004	c7 45 fc cc cc
	cc cc		 mov	 DWORD PTR [ebp-4], -858993460 ; ccccccccH
  0000b	89 4d fc	 mov	 DWORD PTR _this$[ebp], ecx

; 39   : 		}

  0000e	8b 45 fc	 mov	 eax, DWORD PTR _this$[ebp]
  00011	8b e5		 mov	 esp, ebp
  00013	5d		 pop	 ebp
  00014	c2 04 00	 ret	 4
??0?$_Tmap_traits@PAUHWND__@@UWndMoveData@@U?$less@PAUHWND__@@@std@@V?$allocator@U?$pair@QAUHWND__@@UWndMoveData@@@std@@@4@$0A@@std@@QAE@U?$less@PAUHWND__@@@1@@Z ENDP ; std::_Tmap_traits<HWND__ *,WndMoveData,std::less<HWND__ *>,std::allocator<std::pair<HWND__ * const,WndMoveData> >,0>::_Tmap_traits<HWND__ *,WndMoveData,std::less<HWND__ *>,std::allocator<std::pair<HWND__ * const,WndMoveData> >,0>
; Function compile flags: /Odt /RTCsu
; File d:\program files (x86)\microsoft visual studio .net 2003\vc7\include\xmemory
_TEXT	ENDS
;	COMDAT ??$_Destroy@U_Node@?$_Tree_nod@V?$_Tmap_traits@PAUHWND__@@UWndMoveData@@U?$less@PAUHWND__@@@std@@V?$allocator@U?$pair@QAUHWND__@@UWndMoveData@@@std@@@4@$0A@@std@@@std@@@std@@YAXPAU_Node@?$_Tree_nod@V?$_Tmap_traits@PAUHWND__@@UWndMoveData@@U?$less@PAUHWND__@@@std@@V?$allocator@U?$pair@QAUHWND__@@UWndMoveData@@@std@@@4@$0A@@std@@@0@@Z
_TEXT	SEGMENT
__Ptr$ = 8						; size = 4
??$_Destroy@U_Node@?$_Tree_nod@V?$_Tmap_traits@PAUHWND__@@UWndMoveData@@U?$less@PAUHWND__@@@std@@V?$allocator@U?$pair@QAUHWND__@@UWndMoveData@@@std@@@4@$0A@@std@@@std@@@std@@YAXPAU_Node@?$_Tree_nod@V?$_Tmap_traits@PAUHWND__@@UWndMoveData@@U?$less@PAUHWND__@@@std@@V?$allocator@U?$pair@QAUHWND__@@UWndMoveData@@@std@@@4@$0A@@std@@@0@@Z PROC NEAR ; std::_Destroy<std::_Tree_nod<std::_Tmap_traits<HWND__ *,WndMoveData,std::less<HWND__ *>,std::allocator<std::pair<HWND__ * const,WndMoveData> >,0> >::_Node>, COMDAT

; 48   : 	{	// destroy object at _Ptr

  00000	55		 push	 ebp
  00001	8b ec		 mov	 ebp, esp

; 49   : 	_DESTRUCTOR(_Ty, _Ptr);
; 50   : 	}

  00003	5d		 pop	 ebp
  00004	c3		 ret	 0
??$_Destroy@U_Node@?$_Tree_nod@V?$_Tmap_traits@PAUHWND__@@UWndMoveData@@U?$less@PAUHWND__@@@std@@V?$allocator@U?$pair@QAUHWND__@@UWndMoveData@@@std@@@4@$0A@@std@@@std@@@std@@YAXPAU_Node@?$_Tree_nod@V?$_Tmap_traits@PAUHWND__@@UWndMoveData@@U?$less@PAUHWND__@@@std@@V?$allocator@U?$pair@QAUHWND__@@UWndMoveData@@@std@@@4@$0A@@std@@@0@@Z ENDP ; std::_Destroy<std::_Tree_nod<std::_Tmap_traits<HWND__ *,WndMoveData,std::less<HWND__ *>,std::allocator<std::pair<HWND__ * const,WndMoveData> >,0> >::_Node>
; Function compile flags: /Odt /RTCsu
_TEXT	ENDS
;	COMDAT ??$_Destroy@PAU_Node@?$_Tree_nod@V?$_Tmap_traits@PAUHWND__@@UWndMoveData@@U?$less@PAUHWND__@@@std@@V?$allocator@U?$pair@QAUHWND__@@UWndMoveData@@@std@@@4@$0A@@std@@@std@@@std@@YAXPAPAU_Node@?$_Tree_nod@V?$_Tmap_traits@PAUHWND__@@UWndMoveData@@U?$less@PAUHWND__@@@std@@V?$allocator@U?$pair@QAUHWND__@@UWndMoveData@@@std@@@4@$0A@@std@@@0@@Z
_TEXT	SEGMENT
__Ptr$ = 8						; size = 4
??$_Destroy@PAU_Node@?$_Tree_nod@V?$_Tmap_traits@PAUHWND__@@UWndMoveData@@U?$less@PAUHWND__@@@std@@V?$allocator@U?$pair@QAUHWND__@@UWndMoveData@@@std@@@4@$0A@@std@@@std@@@std@@YAXPAPAU_Node@?$_Tree_nod@V?$_Tmap_traits@PAUHWND__@@UWndMoveData@@U?$less@PAUHWND__@@@std@@V?$allocator@U?$pair@QAUHWND__@@UWndMoveData@@@std@@@4@$0A@@std@@@0@@Z PROC NEAR ; std::_Destroy<std::_Tree_nod<std::_Tmap_traits<HWND__ *,WndMoveData,std::less<HWND__ *>,std::allocator<std::pair<HWND__ * const,WndMoveData> >,0> >::_Node *>, COMDAT

; 48   : 	{	// destroy object at _Ptr

  00000	55		 push	 ebp
  00001	8b ec		 mov	 ebp, esp

; 49   : 	_DESTRUCTOR(_Ty, _Ptr);
; 50   : 	}

  00003	5d		 pop	 ebp
  00004	c3		 ret	 0
??$_Destroy@PAU_Node@?$_Tree_nod@V?$_Tmap_traits@PAUHWND__@@UWndMoveData@@U?$less@PAUHWND__@@@std@@V?$allocator@U?$pair@QAUHWND__@@UWndMoveData@@@std@@@4@$0A@@std@@@std@@@std@@YAXPAPAU_Node@?$_Tree_nod@V?$_Tmap_traits@PAUHWND__@@UWndMoveData@@U?$less@PAUHWND__@@@std@@V?$allocator@U?$pair@QAUHWND__@@UWndMoveData@@@std@@@4@$0A@@std@@@0@@Z ENDP ; std::_Destroy<std::_Tree_nod<std::_Tmap_traits<HWND__ *,WndMoveData,std::less<HWND__ *>,std::allocator<std::pair<HWND__ * const,WndMoveData> >,0> >::_Node *>
; Function compile flags: /Odt /RTCsu
_TEXT	ENDS
;	COMDAT ??$?0U?$pair@QAUHWND__@@UWndMoveData@@@std@@@?$allocator@PAU_Node@?$_Tree_nod@V?$_Tmap_traits@PAUHWND__@@UWndMoveData@@U?$less@PAUHWND__@@@std@@V?$allocator@U?$pair@QAUHWND__@@UWndMoveData@@@std@@@4@$0A@@std@@@std@@@std@@QAE@ABV?$allocator@U?$pair@QAUHWND__@@UWndMoveData@@@std@@@1@@Z
_TEXT	SEGMENT
_this$ = -4						; size = 4
___formal$ = 8						; size = 4
??$?0U?$pair@QAUHWND__@@UWndMoveData@@@std@@@?$allocator@PAU_Node@?$_Tree_nod@V?$_Tmap_traits@PAUHWND__@@UWndMoveData@@U?$less@PAUHWND__@@@std@@V?$allocator@U?$pair@QAUHWND__@@UWndMoveData@@@std@@@4@$0A@@std@@@std@@@std@@QAE@ABV?$allocator@U?$pair@QAUHWND__@@UWndMoveData@@@std@@@1@@Z PROC NEAR ; std::allocator<std::_Tree_nod<std::_Tmap_traits<HWND__ *,WndMoveData,std::less<HWND__ *>,std::allocator<std::pair<HWND__ * const,WndMoveData> >,0> >::_Node *>::allocator<std::_Tree_nod<std::_Tmap_traits<HWND__ *,WndMoveData,std::less<HWND__ *>,std::allocator<std::pair<HWND__ * const,WndMoveData> >,0> >::_Node *><std::pair<HWND__ * const,WndMoveData> >, COMDAT
; _this$ = ecx

; 120  : 		allocator(const allocator<_Other>&)

  00000	55		 push	 ebp
  00001	8b ec		 mov	 ebp, esp
  00003	51		 push	 ecx
  00004	c7 45 fc cc cc
	cc cc		 mov	 DWORD PTR [ebp-4], -858993460 ; ccccccccH
  0000b	89 4d fc	 mov	 DWORD PTR _this$[ebp], ecx

; 121  : 		{	// construct from a related allocator (do nothing)
; 122  : 		}

  0000e	8b 45 fc	 mov	 eax, DWORD PTR _this$[ebp]
  00011	8b e5		 mov	 esp, ebp
  00013	5d		 pop	 ebp
  00014	c2 04 00	 ret	 4
??$?0U?$pair@QAUHWND__@@UWndMoveData@@@std@@@?$allocator@PAU_Node@?$_Tree_nod@V?$_Tmap_traits@PAUHWND__@@UWndMoveData@@U?$less@PAUHWND__@@@std@@V?$allocator@U?$pair@QAUHWND__@@UWndMoveData@@@std@@@4@$0A@@std@@@std@@@std@@QAE@ABV?$allocator@U?$pair@QAUHWND__@@UWndMoveData@@@std@@@1@@Z ENDP ; std::allocator<std::_Tree_nod<std::_Tmap_traits<HWND__ *,WndMoveData,std::less<HWND__ *>,std::allocator<std::pair<HWND__ * const,WndMoveData> >,0> >::_Node *>::allocator<std::_Tree_nod<std::_Tmap_traits<HWND__ *,WndMoveData,std::less<HWND__ *>,std::allocator<std::pair<HWND__ * const,WndMoveData> >,0> >::_Node *><std::pair<HWND__ * const,WndMoveData> >
; Function compile flags: /Odt /RTCsu
_TEXT	ENDS
;	COMDAT ??$?0U?$pair@QAUHWND__@@UWndMoveData@@@std@@@?$allocator@U_Node@?$_Tree_nod@V?$_Tmap_traits@PAUHWND__@@UWndMoveData@@U?$less@PAUHWND__@@@std@@V?$allocator@U?$pair@QAUHWND__@@UWndMoveData@@@std@@@4@$0A@@std@@@std@@@std@@QAE@ABV?$allocator@U?$pair@QAUHWND__@@UWndMoveData@@@std@@@1@@Z
_TEXT	SEGMENT
_this$ = -4						; size = 4
___formal$ = 8						; size = 4
??$?0U?$pair@QAUHWND__@@UWndMoveData@@@std@@@?$allocator@U_Node@?$_Tree_nod@V?$_Tmap_traits@PAUHWND__@@UWndMoveData@@U?$less@PAUHWND__@@@std@@V?$allocator@U?$pair@QAUHWND__@@UWndMoveData@@@std@@@4@$0A@@std@@@std@@@std@@QAE@ABV?$allocator@U?$pair@QAUHWND__@@UWndMoveData@@@std@@@1@@Z PROC NEAR ; std::allocator<std::_Tree_nod<std::_Tmap_traits<HWND__ *,WndMoveData,std::less<HWND__ *>,std::allocator<std::pair<HWND__ * const,WndMoveData> >,0> >::_Node>::allocator<std::_Tree_nod<std::_Tmap_traits<HWND__ *,WndMoveData,std::less<HWND__ *>,std::allocator<std::pair<HWND__ * const,WndMoveData> >,0> >::_Node><std::pair<HWND__ * const,WndMoveData> >, COMDAT
; _this$ = ecx

; 120  : 		allocator(const allocator<_Other>&)

  00000	55		 push	 ebp
  00001	8b ec		 mov	 ebp, esp
  00003	51		 push	 ecx
  00004	c7 45 fc cc cc
	cc cc		 mov	 DWORD PTR [ebp-4], -858993460 ; ccccccccH
  0000b	89 4d fc	 mov	 DWORD PTR _this$[ebp], ecx

; 121  : 		{	// construct from a related allocator (do nothing)
; 122  : 		}

  0000e	8b 45 fc	 mov	 eax, DWORD PTR _this$[ebp]
  00011	8b e5		 mov	 esp, ebp
  00013	5d		 pop	 ebp
  00014	c2 04 00	 ret	 4
??$?0U?$pair@QAUHWND__@@UWndMoveData@@@std@@@?$allocator@U_Node@?$_Tree_nod@V?$_Tmap_traits@PAUHWND__@@UWndMoveData@@U?$less@PAUHWND__@@@std@@V?$allocator@U?$pair@QAUHWND__@@UWndMoveData@@@std@@@4@$0A@@std@@@std@@@std@@QAE@ABV?$allocator@U?$pair@QAUHWND__@@UWndMoveData@@@std@@@1@@Z ENDP ; std::allocator<std::_Tree_nod<std::_Tmap_traits<HWND__ *,WndMoveData,std::less<HWND__ *>,std::allocator<std::pair<HWND__ * const,WndMoveData> >,0> >::_Node>::allocator<std::_Tree_nod<std::_Tmap_traits<HWND__ *,WndMoveData,std::less<HWND__ *>,std::allocator<std::pair<HWND__ * const,WndMoveData> >,0> >::_Node><std::pair<HWND__ * const,WndMoveData> >
; Function compile flags: /Odt /RTCsu
_TEXT	ENDS
;	COMDAT ??$_Allocate@U_Node@?$_Tree_nod@V?$_Tmap_traits@PAUHWND__@@UWndMoveData@@U?$less@PAUHWND__@@@std@@V?$allocator@U?$pair@QAUHWND__@@UWndMoveData@@@std@@@4@$0A@@std@@@std@@@std@@YAPAU_Node@?$_Tree_nod@V?$_Tmap_traits@PAUHWND__@@UWndMoveData@@U?$less@PAUHWND__@@@std@@V?$allocator@U?$pair@QAUHWND__@@UWndMoveData@@@std@@@4@$0A@@std@@@0@IPAU120@@Z
_TEXT	SEGMENT
__Count$ = 8						; size = 4
___formal$ = 12						; size = 4
??$_Allocate@U_Node@?$_Tree_nod@V?$_Tmap_traits@PAUHWND__@@UWndMoveData@@U?$less@PAUHWND__@@@std@@V?$allocator@U?$pair@QAUHWND__@@UWndMoveData@@@std@@@4@$0A@@std@@@std@@@std@@YAPAU_Node@?$_Tree_nod@V?$_Tmap_traits@PAUHWND__@@UWndMoveData@@U?$less@PAUHWND__@@@std@@V?$allocator@U?$pair@QAUHWND__@@UWndMoveData@@@std@@@4@$0A@@std@@@0@IPAU120@@Z PROC NEAR ; std::_Allocate<std::_Tree_nod<std::_Tmap_traits<HWND__ *,WndMoveData,std::less<HWND__ *>,std::allocator<std::pair<HWND__ * const,WndMoveData> >,0> >::_Node>, COMDAT

; 33   : 	{	// allocate storage for _Count elements of type _Ty

  00000	55		 push	 ebp
  00001	8b ec		 mov	 ebp, esp

; 34   : 	return ((_Ty _FARQ *)operator new(_Count * sizeof (_Ty)));

  00003	8b 45 08	 mov	 eax, DWORD PTR __Count$[ebp]
  00006	6b c0 30	 imul	 eax, 48			; 00000030H
  00009	50		 push	 eax
  0000a	e8 00 00 00 00	 call	 ??2@YAPAXI@Z		; operator new
  0000f	83 c4 04	 add	 esp, 4

; 35   : 	}

  00012	3b ec		 cmp	 ebp, esp
  00014	e8 00 00 00 00	 call	 __RTC_CheckEsp
  00019	5d		 pop	 ebp
  0001a	c3		 ret	 0
??$_Allocate@U_Node@?$_Tree_nod@V?$_Tmap_traits@PAUHWND__@@UWndMoveData@@U?$less@PAUHWND__@@@std@@V?$allocator@U?$pair@QAUHWND__@@UWndMoveData@@@std@@@4@$0A@@std@@@std@@@std@@YAPAU_Node@?$_Tree_nod@V?$_Tmap_traits@PAUHWND__@@UWndMoveData@@U?$less@PAUHWND__@@@std@@V?$allocator@U?$pair@QAUHWND__@@UWndMoveData@@@std@@@4@$0A@@std@@@0@IPAU120@@Z ENDP ; std::_Allocate<std::_Tree_nod<std::_Tmap_traits<HWND__ *,WndMoveData,std::less<HWND__ *>,std::allocator<std::pair<HWND__ * const,WndMoveData> >,0> >::_Node>
; Function compile flags: /Odt /RTCsu
_TEXT	ENDS
;	COMDAT ??$_Construct@PAU_Node@?$_Tree_nod@V?$_Tmap_traits@PAUHWND__@@UWndMoveData@@U?$less@PAUHWND__@@@std@@V?$allocator@U?$pair@QAUHWND__@@UWndMoveData@@@std@@@4@$0A@@std@@@std@@PAU123@@std@@YAXPAPAU_Node@?$_Tree_nod@V?$_Tmap_traits@PAUHWND__@@UWndMoveData@@U?$less@PAUHWND__@@@std@@V?$allocator@U?$pair@QAUHWND__@@UWndMoveData@@@std@@@4@$0A@@std@@@0@ABQAU120@@Z
_TEXT	SEGMENT
tv68 = -8						; size = 4
$T189884 = -4						; size = 4
__Ptr$ = 8						; size = 4
__Val$ = 12						; size = 4
??$_Construct@PAU_Node@?$_Tree_nod@V?$_Tmap_traits@PAUHWND__@@UWndMoveData@@U?$less@PAUHWND__@@@std@@V?$allocator@U?$pair@QAUHWND__@@UWndMoveData@@@std@@@4@$0A@@std@@@std@@PAU123@@std@@YAXPAPAU_Node@?$_Tree_nod@V?$_Tmap_traits@PAUHWND__@@UWndMoveData@@U?$less@PAUHWND__@@@std@@V?$allocator@U?$pair@QAUHWND__@@UWndMoveData@@@std@@@4@$0A@@std@@@0@ABQAU120@@Z PROC NEAR ; std::_Construct<std::_Tree_nod<std::_Tmap_traits<HWND__ *,WndMoveData,std::less<HWND__ *>,std::allocator<std::pair<HWND__ * const,WndMoveData> >,0> >::_Node *,std::_Tree_nod<std::_Tmap_traits<HWND__ *,WndMoveData,std::less<HWND__ *>,std::allocator<std::pair<HWND__ * const,WndMoveData> >,0> >::_Node *>, COMDAT

; 41   : 	{	// construct object at _Ptr with value _Val

  00000	55		 push	 ebp
  00001	8b ec		 mov	 ebp, esp
  00003	83 ec 08	 sub	 esp, 8
  00006	c7 45 f8 cc cc
	cc cc		 mov	 DWORD PTR [ebp-8], -858993460 ; ccccccccH
  0000d	c7 45 fc cc cc
	cc cc		 mov	 DWORD PTR [ebp-4], -858993460 ; ccccccccH

; 42   : 	new ((void _FARQ *)_Ptr) _T1(_Val);

  00014	8b 45 08	 mov	 eax, DWORD PTR __Ptr$[ebp]
  00017	50		 push	 eax
  00018	6a 04		 push	 4
  0001a	e8 00 00 00 00	 call	 ??2@YAPAXIPAX@Z		; operator new
  0001f	83 c4 08	 add	 esp, 8
  00022	89 45 fc	 mov	 DWORD PTR $T189884[ebp], eax
  00025	83 7d fc 00	 cmp	 DWORD PTR $T189884[ebp], 0
  00029	74 12		 je	 SHORT $L189885
  0002b	8b 4d fc	 mov	 ecx, DWORD PTR $T189884[ebp]
  0002e	8b 55 0c	 mov	 edx, DWORD PTR __Val$[ebp]
  00031	8b 02		 mov	 eax, DWORD PTR [edx]
  00033	89 01		 mov	 DWORD PTR [ecx], eax
  00035	8b 4d fc	 mov	 ecx, DWORD PTR $T189884[ebp]
  00038	89 4d f8	 mov	 DWORD PTR tv68[ebp], ecx
  0003b	eb 07		 jmp	 SHORT $L189069
$L189885:
  0003d	c7 45 f8 00 00
	00 00		 mov	 DWORD PTR tv68[ebp], 0
$L189069:

; 43   : 	}

  00044	83 c4 08	 add	 esp, 8
  00047	3b ec		 cmp	 ebp, esp
  00049	e8 00 00 00 00	 call	 __RTC_CheckEsp
  0004e	8b e5		 mov	 esp, ebp
  00050	5d		 pop	 ebp
  00051	c3		 ret	 0
??$_Construct@PAU_Node@?$_Tree_nod@V?$_Tmap_traits@PAUHWND__@@UWndMoveData@@U?$less@PAUHWND__@@@std@@V?$allocator@U?$pair@QAUHWND__@@UWndMoveData@@@std@@@4@$0A@@std@@@std@@PAU123@@std@@YAXPAPAU_Node@?$_Tree_nod@V?$_Tmap_traits@PAUHWND__@@UWndMoveData@@U?$less@PAUHWND__@@@std@@V?$allocator@U?$pair@QAUHWND__@@UWndMoveData@@@std@@@4@$0A@@std@@@0@ABQAU120@@Z ENDP ; std::_Construct<std::_Tree_nod<std::_Tmap_traits<HWND__ *,WndMoveData,std::less<HWND__ *>,std::allocator<std::pair<HWND__ * const,WndMoveData> >,0> >::_Node *,std::_Tree_nod<std::_Tmap_traits<HWND__ *,WndMoveData,std::less<HWND__ *>,std::allocator<std::pair<HWND__ * const,WndMoveData> >,0> >::_Node *>
_TEXT	ENDS
EXTRN	__imp_?c_str@?$basic_string@DU?$char_traits@D@std@@V?$allocator@D@2@@std@@QBEPBDXZ:NEAR
; Function compile flags: /Odt /RTCsu
; File d:\program files (x86)\microsoft visual studio .net 2003\vc7\include\stdexcept
;	COMDAT ?what@logic_error@std@@UBEPBDXZ
_TEXT	SEGMENT
_this$ = -4						; size = 4
?what@logic_error@std@@UBEPBDXZ PROC NEAR		; std::logic_error::what, COMDAT
; _this$ = ecx

; 26   : 		{	// return pointer to message string

  00000	55		 push	 ebp
  00001	8b ec		 mov	 ebp, esp
  00003	51		 push	 ecx
  00004	56		 push	 esi
  00005	c7 45 fc cc cc
	cc cc		 mov	 DWORD PTR [ebp-4], -858993460 ; ccccccccH
  0000c	89 4d fc	 mov	 DWORD PTR _this$[ebp], ecx

; 27   : 		return (_Str.c_str());

  0000f	8b 4d fc	 mov	 ecx, DWORD PTR _this$[ebp]
  00012	83 c1 0c	 add	 ecx, 12			; 0000000cH
  00015	8b f4		 mov	 esi, esp
  00017	ff 15 00 00 00
	00		 call	 DWORD PTR __imp_?c_str@?$basic_string@DU?$char_traits@D@std@@V?$allocator@D@2@@std@@QBEPBDXZ
  0001d	3b f4		 cmp	 esi, esp
  0001f	e8 00 00 00 00	 call	 __RTC_CheckEsp

; 28   : 		}

  00024	5e		 pop	 esi
  00025	83 c4 04	 add	 esp, 4
  00028	3b ec		 cmp	 ebp, esp
  0002a	e8 00 00 00 00	 call	 __RTC_CheckEsp
  0002f	8b e5		 mov	 esp, ebp
  00031	5d		 pop	 ebp
  00032	c3		 ret	 0
?what@logic_error@std@@UBEPBDXZ ENDP			; std::logic_error::what
_TEXT	ENDS
PUBLIC	??0logic_error@std@@QAE@ABV?$basic_string@DU?$char_traits@D@std@@V?$allocator@D@2@@1@@Z ; std::logic_error::logic_error
; Function compile flags: /Odt /RTCsu
;	COMDAT ??0length_error@std@@QAE@ABV?$basic_string@DU?$char_traits@D@std@@V?$allocator@D@2@@1@@Z
_TEXT	SEGMENT
_this$ = -4						; size = 4
__Message$ = 8						; size = 4
??0length_error@std@@QAE@ABV?$basic_string@DU?$char_traits@D@std@@V?$allocator@D@2@@1@@Z PROC NEAR ; std::length_error::length_error, COMDAT
; _this$ = ecx

; 95   : 		{	// construct from message string

  00000	55		 push	 ebp
  00001	8b ec		 mov	 ebp, esp
  00003	51		 push	 ecx
  00004	c7 45 fc cc cc
	cc cc		 mov	 DWORD PTR [ebp-4], -858993460 ; ccccccccH
  0000b	89 4d fc	 mov	 DWORD PTR _this$[ebp], ecx
  0000e	8b 45 08	 mov	 eax, DWORD PTR __Message$[ebp]
  00011	50		 push	 eax
  00012	8b 4d fc	 mov	 ecx, DWORD PTR _this$[ebp]
  00015	e8 00 00 00 00	 call	 ??0logic_error@std@@QAE@ABV?$basic_string@DU?$char_traits@D@std@@V?$allocator@D@2@@1@@Z ; std::logic_error::logic_error
  0001a	8b 4d fc	 mov	 ecx, DWORD PTR _this$[ebp]
  0001d	c7 01 00 00 00
	00		 mov	 DWORD PTR [ecx], OFFSET FLAT:??_7length_error@std@@6B@

; 96   : 		}

  00023	8b 45 fc	 mov	 eax, DWORD PTR _this$[ebp]
  00026	83 c4 04	 add	 esp, 4
  00029	3b ec		 cmp	 ebp, esp
  0002b	e8 00 00 00 00	 call	 __RTC_CheckEsp
  00030	8b e5		 mov	 esp, ebp
  00032	5d		 pop	 ebp
  00033	c2 04 00	 ret	 4
??0length_error@std@@QAE@ABV?$basic_string@DU?$char_traits@D@std@@V?$allocator@D@2@@1@@Z ENDP ; std::length_error::length_error
_TEXT	ENDS
PUBLIC	??_7logic_error@std@@6B@			; std::logic_error::`vftable'
PUBLIC	??_Glogic_error@std@@UAEPAXI@Z			; std::logic_error::`scalar deleting destructor'
PUBLIC	??_R4logic_error@std@@6B@			; std::logic_error::`RTTI Complete Object Locator'
PUBLIC	??_R3logic_error@std@@8				; std::logic_error::`RTTI Class Hierarchy Descriptor'
PUBLIC	??_R2logic_error@std@@8				; std::logic_error::`RTTI Base Class Array'
EXTRN	__imp_??0exception@@QAE@XZ:NEAR
EXTRN	__imp_??1exception@@UAE@XZ:NEAR
EXTRN	__imp_??0?$basic_string@DU?$char_traits@D@std@@V?$allocator@D@2@@std@@QAE@ABV01@@Z:NEAR
EXTRN	??_Elogic_error@std@@UAEPAXI@Z:NEAR		; std::logic_error::`vector deleting destructor'
;	COMDAT xdata$x
xdata$x	SEGMENT
$T189896 DD	0ffffffffH
	DD	FLAT:$L189891
$T189894 DD	019930520H
	DD	01H
	DD	FLAT:$T189896
	DD	2 DUP(00H)
	DD	2 DUP(00H)
xdata$x	ENDS
;	COMDAT ??_7logic_error@std@@6B@
CONST	SEGMENT
??_7logic_error@std@@6B@ DD FLAT:??_R4logic_error@std@@6B@ ; std::logic_error::`vftable'
	DD	FLAT:??_Elogic_error@std@@UAEPAXI@Z
	DD	FLAT:?what@logic_error@std@@UBEPBDXZ
CONST	ENDS
;	COMDAT ??_R4logic_error@std@@6B@
rdata$r	SEGMENT
??_R4logic_error@std@@6B@ DD 00H			; std::logic_error::`RTTI Complete Object Locator'
	DD	00H
	DD	00H
	DD	FLAT:??_R0?AVlogic_error@std@@@8
	DD	FLAT:??_R3logic_error@std@@8
rdata$r	ENDS
;	COMDAT ??_R3logic_error@std@@8
rdata$r	SEGMENT
??_R3logic_error@std@@8 DD 00H				; std::logic_error::`RTTI Class Hierarchy Descriptor'
	DD	00H
	DD	02H
	DD	FLAT:??_R2logic_error@std@@8
rdata$r	ENDS
;	COMDAT ??_R2logic_error@std@@8
rdata$r	SEGMENT
??_R2logic_error@std@@8 DD FLAT:??_R1A@?0A@A@logic_error@std@@8 ; std::logic_error::`RTTI Base Class Array'
	DD	FLAT:??_R1A@?0A@A@exception@@8
; Function compile flags: /Odt /RTCsu
rdata$r	ENDS
;	COMDAT ??0logic_error@std@@QAE@ABV?$basic_string@DU?$char_traits@D@std@@V?$allocator@D@2@@1@@Z
_TEXT	SEGMENT
_this$ = -16						; size = 4
__$EHRec$ = -12						; size = 12
__Message$ = 8						; size = 4
??0logic_error@std@@QAE@ABV?$basic_string@DU?$char_traits@D@std@@V?$allocator@D@2@@1@@Z PROC NEAR ; std::logic_error::logic_error, COMDAT
; _this$ = ecx

; 19   : 		{	// construct from message string

  00000	55		 push	 ebp
  00001	8b ec		 mov	 ebp, esp
  00003	6a ff		 push	 -1
  00005	68 00 00 00 00	 push	 __ehhandler$??0logic_error@std@@QAE@ABV?$basic_string@DU?$char_traits@D@std@@V?$allocator@D@2@@1@@Z
  0000a	64 a1 00 00 00
	00		 mov	 eax, DWORD PTR fs:__except_list
  00010	50		 push	 eax
  00011	64 89 25 00 00
	00 00		 mov	 DWORD PTR fs:__except_list, esp
  00018	51		 push	 ecx
  00019	56		 push	 esi
  0001a	c7 45 f0 cc cc
	cc cc		 mov	 DWORD PTR [ebp-16], -858993460 ; ccccccccH
  00021	89 4d f0	 mov	 DWORD PTR _this$[ebp], ecx
  00024	8b f4		 mov	 esi, esp
  00026	8b 4d f0	 mov	 ecx, DWORD PTR _this$[ebp]
  00029	ff 15 00 00 00
	00		 call	 DWORD PTR __imp_??0exception@@QAE@XZ
  0002f	3b f4		 cmp	 esi, esp
  00031	e8 00 00 00 00	 call	 __RTC_CheckEsp
  00036	c7 45 fc 00 00
	00 00		 mov	 DWORD PTR __$EHRec$[ebp+8], 0
  0003d	8b 45 f0	 mov	 eax, DWORD PTR _this$[ebp]
  00040	c7 00 00 00 00
	00		 mov	 DWORD PTR [eax], OFFSET FLAT:??_7logic_error@std@@6B@
  00046	8b f4		 mov	 esi, esp
  00048	8b 4d 08	 mov	 ecx, DWORD PTR __Message$[ebp]
  0004b	51		 push	 ecx
  0004c	8b 4d f0	 mov	 ecx, DWORD PTR _this$[ebp]
  0004f	83 c1 0c	 add	 ecx, 12			; 0000000cH
  00052	ff 15 00 00 00
	00		 call	 DWORD PTR __imp_??0?$basic_string@DU?$char_traits@D@std@@V?$allocator@D@2@@std@@QAE@ABV01@@Z
  00058	3b f4		 cmp	 esi, esp
  0005a	e8 00 00 00 00	 call	 __RTC_CheckEsp

; 20   : 		}

  0005f	c7 45 fc ff ff
	ff ff		 mov	 DWORD PTR __$EHRec$[ebp+8], -1
  00066	8b 45 f0	 mov	 eax, DWORD PTR _this$[ebp]
  00069	8b 4d f4	 mov	 ecx, DWORD PTR __$EHRec$[ebp]
  0006c	64 89 0d 00 00
	00 00		 mov	 DWORD PTR fs:__except_list, ecx
  00073	5e		 pop	 esi
  00074	83 c4 10	 add	 esp, 16			; 00000010H
  00077	3b ec		 cmp	 ebp, esp
  00079	e8 00 00 00 00	 call	 __RTC_CheckEsp
  0007e	8b e5		 mov	 esp, ebp
  00080	5d		 pop	 ebp
  00081	c2 04 00	 ret	 4
_TEXT	ENDS
;	COMDAT text$x
text$x	SEGMENT
$L189891:
  00000	8b f4		 mov	 esi, esp
  00002	8b 4d f0	 mov	 ecx, DWORD PTR _this$[ebp]
  00005	ff 15 00 00 00
	00		 call	 DWORD PTR __imp_??1exception@@UAE@XZ
  0000b	3b f4		 cmp	 esi, esp
  0000d	e9 00 00 00 00	 jmp	 __RTC_CheckEsp
__ehhandler$??0logic_error@std@@QAE@ABV?$basic_string@DU?$char_traits@D@std@@V?$allocator@D@2@@1@@Z:
  00012	b8 00 00 00 00	 mov	 eax, OFFSET FLAT:$T189894
  00017	e9 00 00 00 00	 jmp	 ___CxxFrameHandler
text$x	ENDS
??0logic_error@std@@QAE@ABV?$basic_string@DU?$char_traits@D@std@@V?$allocator@D@2@@1@@Z ENDP ; std::logic_error::logic_error
PUBLIC	??1logic_error@std@@UAE@XZ			; std::logic_error::~logic_error
; Function compile flags: /Odt /RTCsu
;	COMDAT ??_Glogic_error@std@@UAEPAXI@Z
_TEXT	SEGMENT
_this$ = -4						; size = 4
___flags$ = 8						; size = 4
??_Glogic_error@std@@UAEPAXI@Z PROC NEAR		; std::logic_error::`scalar deleting destructor', COMDAT
; _this$ = ecx
  00000	55		 push	 ebp
  00001	8b ec		 mov	 ebp, esp
  00003	51		 push	 ecx
  00004	c7 45 fc cc cc
	cc cc		 mov	 DWORD PTR [ebp-4], -858993460 ; ccccccccH
  0000b	89 4d fc	 mov	 DWORD PTR _this$[ebp], ecx
  0000e	8b 4d fc	 mov	 ecx, DWORD PTR _this$[ebp]
  00011	e8 00 00 00 00	 call	 ??1logic_error@std@@UAE@XZ ; std::logic_error::~logic_error
  00016	8b 45 08	 mov	 eax, DWORD PTR ___flags$[ebp]
  00019	83 e0 01	 and	 eax, 1
  0001c	74 0c		 je	 SHORT $L91647
  0001e	8b 4d fc	 mov	 ecx, DWORD PTR _this$[ebp]
  00021	51		 push	 ecx
  00022	e8 00 00 00 00	 call	 ??3@YAXPAX@Z		; operator delete
  00027	83 c4 04	 add	 esp, 4
$L91647:
  0002a	8b 45 fc	 mov	 eax, DWORD PTR _this$[ebp]
  0002d	83 c4 04	 add	 esp, 4
  00030	3b ec		 cmp	 ebp, esp
  00032	e8 00 00 00 00	 call	 __RTC_CheckEsp
  00037	8b e5		 mov	 esp, ebp
  00039	5d		 pop	 ebp
  0003a	c2 04 00	 ret	 4
??_Glogic_error@std@@UAEPAXI@Z ENDP			; std::logic_error::`scalar deleting destructor'
_TEXT	ENDS
;	COMDAT xdata$x
xdata$x	SEGMENT
$T189906 DD	0ffffffffH
	DD	FLAT:$L189901
$T189904 DD	019930520H
	DD	01H
	DD	FLAT:$T189906
	DD	2 DUP(00H)
	DD	2 DUP(00H)
; Function compile flags: /Odt /RTCsu
xdata$x	ENDS
;	COMDAT ??1logic_error@std@@UAE@XZ
_TEXT	SEGMENT
_this$ = -16						; size = 4
__$EHRec$ = -12						; size = 12
??1logic_error@std@@UAE@XZ PROC NEAR			; std::logic_error::~logic_error, COMDAT
; _this$ = ecx

; 23   : 		{}	// destroy the object

  00000	55		 push	 ebp
  00001	8b ec		 mov	 ebp, esp
  00003	6a ff		 push	 -1
  00005	68 00 00 00 00	 push	 __ehhandler$??1logic_error@std@@UAE@XZ
  0000a	64 a1 00 00 00
	00		 mov	 eax, DWORD PTR fs:__except_list
  00010	50		 push	 eax
  00011	64 89 25 00 00
	00 00		 mov	 DWORD PTR fs:__except_list, esp
  00018	51		 push	 ecx
  00019	56		 push	 esi
  0001a	c7 45 f0 cc cc
	cc cc		 mov	 DWORD PTR [ebp-16], -858993460 ; ccccccccH
  00021	89 4d f0	 mov	 DWORD PTR _this$[ebp], ecx
  00024	8b 45 f0	 mov	 eax, DWORD PTR _this$[ebp]
  00027	c7 00 00 00 00
	00		 mov	 DWORD PTR [eax], OFFSET FLAT:??_7logic_error@std@@6B@
  0002d	c7 45 fc 00 00
	00 00		 mov	 DWORD PTR __$EHRec$[ebp+8], 0
  00034	8b 4d f0	 mov	 ecx, DWORD PTR _this$[ebp]
  00037	83 c1 0c	 add	 ecx, 12			; 0000000cH
  0003a	8b f4		 mov	 esi, esp
  0003c	ff 15 00 00 00
	00		 call	 DWORD PTR __imp_??1?$basic_string@DU?$char_traits@D@std@@V?$allocator@D@2@@std@@QAE@XZ
  00042	3b f4		 cmp	 esi, esp
  00044	e8 00 00 00 00	 call	 __RTC_CheckEsp
  00049	c7 45 fc ff ff
	ff ff		 mov	 DWORD PTR __$EHRec$[ebp+8], -1
  00050	8b f4		 mov	 esi, esp
  00052	8b 4d f0	 mov	 ecx, DWORD PTR _this$[ebp]
  00055	ff 15 00 00 00
	00		 call	 DWORD PTR __imp_??1exception@@UAE@XZ
  0005b	3b f4		 cmp	 esi, esp
  0005d	e8 00 00 00 00	 call	 __RTC_CheckEsp
  00062	8b 4d f4	 mov	 ecx, DWORD PTR __$EHRec$[ebp]
  00065	64 89 0d 00 00
	00 00		 mov	 DWORD PTR fs:__except_list, ecx
  0006c	5e		 pop	 esi
  0006d	83 c4 10	 add	 esp, 16			; 00000010H
  00070	3b ec		 cmp	 ebp, esp
  00072	e8 00 00 00 00	 call	 __RTC_CheckEsp
  00077	8b e5		 mov	 esp, ebp
  00079	5d		 pop	 ebp
  0007a	c3		 ret	 0
_TEXT	ENDS
;	COMDAT text$x
text$x	SEGMENT
$L189901:
  00000	8b f4		 mov	 esi, esp
  00002	8b 4d f0	 mov	 ecx, DWORD PTR _this$[ebp]
  00005	ff 15 00 00 00
	00		 call	 DWORD PTR __imp_??1exception@@UAE@XZ
  0000b	3b f4		 cmp	 esi, esp
  0000d	e9 00 00 00 00	 jmp	 __RTC_CheckEsp
__ehhandler$??1logic_error@std@@UAE@XZ:
  00012	b8 00 00 00 00	 mov	 eax, OFFSET FLAT:$T189904
  00017	e9 00 00 00 00	 jmp	 ___CxxFrameHandler
text$x	ENDS
??1logic_error@std@@UAE@XZ ENDP				; std::logic_error::~logic_error
; Function compile flags: /Odt /RTCsu
;	COMDAT ??1length_error@std@@UAE@XZ
_TEXT	SEGMENT
_this$ = -4						; size = 4
??1length_error@std@@UAE@XZ PROC NEAR			; std::length_error::~length_error, COMDAT
; _this$ = ecx

; 99   : 		{}	// destroy the object

  00000	55		 push	 ebp
  00001	8b ec		 mov	 ebp, esp
  00003	51		 push	 ecx
  00004	c7 45 fc cc cc
	cc cc		 mov	 DWORD PTR [ebp-4], -858993460 ; ccccccccH
  0000b	89 4d fc	 mov	 DWORD PTR _this$[ebp], ecx
  0000e	8b 45 fc	 mov	 eax, DWORD PTR _this$[ebp]
  00011	c7 00 00 00 00
	00		 mov	 DWORD PTR [eax], OFFSET FLAT:??_7length_error@std@@6B@
  00017	8b 4d fc	 mov	 ecx, DWORD PTR _this$[ebp]
  0001a	e8 00 00 00 00	 call	 ??1logic_error@std@@UAE@XZ ; std::logic_error::~logic_error
  0001f	83 c4 04	 add	 esp, 4
  00022	3b ec		 cmp	 ebp, esp
  00024	e8 00 00 00 00	 call	 __RTC_CheckEsp
  00029	8b e5		 mov	 esp, ebp
  0002b	5d		 pop	 ebp
  0002c	c3		 ret	 0
??1length_error@std@@UAE@XZ ENDP			; std::length_error::~length_error
; Function compile flags: /Odt /RTCsu
_TEXT	ENDS
;	COMDAT ??_Glength_error@std@@UAEPAXI@Z
_TEXT	SEGMENT
_this$ = -4						; size = 4
___flags$ = 8						; size = 4
??_Glength_error@std@@UAEPAXI@Z PROC NEAR		; std::length_error::`scalar deleting destructor', COMDAT
; _this$ = ecx
  00000	55		 push	 ebp
  00001	8b ec		 mov	 ebp, esp
  00003	51		 push	 ecx
  00004	c7 45 fc cc cc
	cc cc		 mov	 DWORD PTR [ebp-4], -858993460 ; ccccccccH
  0000b	89 4d fc	 mov	 DWORD PTR _this$[ebp], ecx
  0000e	8b 4d fc	 mov	 ecx, DWORD PTR _this$[ebp]
  00011	e8 00 00 00 00	 call	 ??1length_error@std@@UAE@XZ ; std::length_error::~length_error
  00016	8b 45 08	 mov	 eax, DWORD PTR ___flags$[ebp]
  00019	83 e0 01	 and	 eax, 1
  0001c	74 0c		 je	 SHORT $L91713
  0001e	8b 4d fc	 mov	 ecx, DWORD PTR _this$[ebp]
  00021	51		 push	 ecx
  00022	e8 00 00 00 00	 call	 ??3@YAXPAX@Z		; operator delete
  00027	83 c4 04	 add	 esp, 4
$L91713:
  0002a	8b 45 fc	 mov	 eax, DWORD PTR _this$[ebp]
  0002d	83 c4 04	 add	 esp, 4
  00030	3b ec		 cmp	 ebp, esp
  00032	e8 00 00 00 00	 call	 __RTC_CheckEsp
  00037	8b e5		 mov	 esp, ebp
  00039	5d		 pop	 ebp
  0003a	c2 04 00	 ret	 4
??_Glength_error@std@@UAEPAXI@Z ENDP			; std::length_error::`scalar deleting destructor'
_TEXT	ENDS
PUBLIC	??_R4out_of_range@std@@6B@			; std::out_of_range::`RTTI Complete Object Locator'
PUBLIC	??_R3out_of_range@std@@8			; std::out_of_range::`RTTI Class Hierarchy Descriptor'
PUBLIC	??_R2out_of_range@std@@8			; std::out_of_range::`RTTI Base Class Array'
PUBLIC	??_R1A@?0A@A@out_of_range@std@@8		; std::out_of_range::`RTTI Base Class Descriptor at (0,-1,0,0)'
PUBLIC	??_7out_of_range@std@@6B@			; std::out_of_range::`vftable'
PUBLIC	??_Gout_of_range@std@@UAEPAXI@Z			; std::out_of_range::`scalar deleting destructor'
EXTRN	??_Eout_of_range@std@@UAEPAXI@Z:NEAR		; std::out_of_range::`vector deleting destructor'
;	COMDAT ??_7out_of_range@std@@6B@
CONST	SEGMENT
??_7out_of_range@std@@6B@ DD FLAT:??_R4out_of_range@std@@6B@ ; std::out_of_range::`vftable'
	DD	FLAT:??_Eout_of_range@std@@UAEPAXI@Z
	DD	FLAT:?what@logic_error@std@@UBEPBDXZ
CONST	ENDS
;	COMDAT ??_R4out_of_range@std@@6B@
rdata$r	SEGMENT
??_R4out_of_range@std@@6B@ DD 00H			; std::out_of_range::`RTTI Complete Object Locator'
	DD	00H
	DD	00H
	DD	FLAT:??_R0?AVout_of_range@std@@@8
	DD	FLAT:??_R3out_of_range@std@@8
rdata$r	ENDS
;	COMDAT ??_R3out_of_range@std@@8
rdata$r	SEGMENT
??_R3out_of_range@std@@8 DD 00H				; std::out_of_range::`RTTI Class Hierarchy Descriptor'
	DD	00H
	DD	03H
	DD	FLAT:??_R2out_of_range@std@@8
rdata$r	ENDS
;	COMDAT ??_R2out_of_range@std@@8
rdata$r	SEGMENT
??_R2out_of_range@std@@8 DD FLAT:??_R1A@?0A@A@out_of_range@std@@8 ; std::out_of_range::`RTTI Base Class Array'
	DD	FLAT:??_R1A@?0A@A@logic_error@std@@8
	DD	FLAT:??_R1A@?0A@A@exception@@8
rdata$r	ENDS
;	COMDAT ??_R1A@?0A@A@out_of_range@std@@8
rdata$r	SEGMENT
??_R1A@?0A@A@out_of_range@std@@8 DD FLAT:??_R0?AVout_of_range@std@@@8 ; std::out_of_range::`RTTI Base Class Descriptor at (0,-1,0,0)'
	DD	02H
	DD	00H
	DD	0ffffffffH
	DD	00H
	DD	00H
; Function compile flags: /Odt /RTCsu
rdata$r	ENDS
;	COMDAT ??0out_of_range@std@@QAE@ABV?$basic_string@DU?$char_traits@D@std@@V?$allocator@D@2@@1@@Z
_TEXT	SEGMENT
_this$ = -4						; size = 4
__Message$ = 8						; size = 4
??0out_of_range@std@@QAE@ABV?$basic_string@DU?$char_traits@D@std@@V?$allocator@D@2@@1@@Z PROC NEAR ; std::out_of_range::out_of_range, COMDAT
; _this$ = ecx

; 118  : 		{	// construct from message string

  00000	55		 push	 ebp
  00001	8b ec		 mov	 ebp, esp
  00003	51		 push	 ecx
  00004	c7 45 fc cc cc
	cc cc		 mov	 DWORD PTR [ebp-4], -858993460 ; ccccccccH
  0000b	89 4d fc	 mov	 DWORD PTR _this$[ebp], ecx
  0000e	8b 45 08	 mov	 eax, DWORD PTR __Message$[ebp]
  00011	50		 push	 eax
  00012	8b 4d fc	 mov	 ecx, DWORD PTR _this$[ebp]
  00015	e8 00 00 00 00	 call	 ??0logic_error@std@@QAE@ABV?$basic_string@DU?$char_traits@D@std@@V?$allocator@D@2@@1@@Z ; std::logic_error::logic_error
  0001a	8b 4d fc	 mov	 ecx, DWORD PTR _this$[ebp]
  0001d	c7 01 00 00 00
	00		 mov	 DWORD PTR [ecx], OFFSET FLAT:??_7out_of_range@std@@6B@

; 119  : 		}

  00023	8b 45 fc	 mov	 eax, DWORD PTR _this$[ebp]
  00026	83 c4 04	 add	 esp, 4
  00029	3b ec		 cmp	 ebp, esp
  0002b	e8 00 00 00 00	 call	 __RTC_CheckEsp
  00030	8b e5		 mov	 esp, ebp
  00032	5d		 pop	 ebp
  00033	c2 04 00	 ret	 4
??0out_of_range@std@@QAE@ABV?$basic_string@DU?$char_traits@D@std@@V?$allocator@D@2@@1@@Z ENDP ; std::out_of_range::out_of_range
; Function compile flags: /Odt /RTCsu
_TEXT	ENDS
;	COMDAT ??1out_of_range@std@@UAE@XZ
_TEXT	SEGMENT
_this$ = -4						; size = 4
??1out_of_range@std@@UAE@XZ PROC NEAR			; std::out_of_range::~out_of_range, COMDAT
; _this$ = ecx

; 122  : 		{}	// destroy the object

  00000	55		 push	 ebp
  00001	8b ec		 mov	 ebp, esp
  00003	51		 push	 ecx
  00004	c7 45 fc cc cc
	cc cc		 mov	 DWORD PTR [ebp-4], -858993460 ; ccccccccH
  0000b	89 4d fc	 mov	 DWORD PTR _this$[ebp], ecx
  0000e	8b 45 fc	 mov	 eax, DWORD PTR _this$[ebp]
  00011	c7 00 00 00 00
	00		 mov	 DWORD PTR [eax], OFFSET FLAT:??_7out_of_range@std@@6B@
  00017	8b 4d fc	 mov	 ecx, DWORD PTR _this$[ebp]
  0001a	e8 00 00 00 00	 call	 ??1logic_error@std@@UAE@XZ ; std::logic_error::~logic_error
  0001f	83 c4 04	 add	 esp, 4
  00022	3b ec		 cmp	 ebp, esp
  00024	e8 00 00 00 00	 call	 __RTC_CheckEsp
  00029	8b e5		 mov	 esp, ebp
  0002b	5d		 pop	 ebp
  0002c	c3		 ret	 0
??1out_of_range@std@@UAE@XZ ENDP			; std::out_of_range::~out_of_range
; Function compile flags: /Odt /RTCsu
_TEXT	ENDS
;	COMDAT ??_Gout_of_range@std@@UAEPAXI@Z
_TEXT	SEGMENT
_this$ = -4						; size = 4
___flags$ = 8						; size = 4
??_Gout_of_range@std@@UAEPAXI@Z PROC NEAR		; std::out_of_range::`scalar deleting destructor', COMDAT
; _this$ = ecx
  00000	55		 push	 ebp
  00001	8b ec		 mov	 ebp, esp
  00003	51		 push	 ecx
  00004	c7 45 fc cc cc
	cc cc		 mov	 DWORD PTR [ebp-4], -858993460 ; ccccccccH
  0000b	89 4d fc	 mov	 DWORD PTR _this$[ebp], ecx
  0000e	8b 4d fc	 mov	 ecx, DWORD PTR _this$[ebp]
  00011	e8 00 00 00 00	 call	 ??1out_of_range@std@@UAE@XZ ; std::out_of_range::~out_of_range
  00016	8b 45 08	 mov	 eax, DWORD PTR ___flags$[ebp]
  00019	83 e0 01	 and	 eax, 1
  0001c	74 0c		 je	 SHORT $L91735
  0001e	8b 4d fc	 mov	 ecx, DWORD PTR _this$[ebp]
  00021	51		 push	 ecx
  00022	e8 00 00 00 00	 call	 ??3@YAXPAX@Z		; operator delete
  00027	83 c4 04	 add	 esp, 4
$L91735:
  0002a	8b 45 fc	 mov	 eax, DWORD PTR _this$[ebp]
  0002d	83 c4 04	 add	 esp, 4
  00030	3b ec		 cmp	 ebp, esp
  00032	e8 00 00 00 00	 call	 __RTC_CheckEsp
  00037	8b e5		 mov	 esp, ebp
  00039	5d		 pop	 ebp
  0003a	c2 04 00	 ret	 4
??_Gout_of_range@std@@UAEPAXI@Z ENDP			; std::out_of_range::`scalar deleting destructor'
; Function compile flags: /Odt /RTCsu
_TEXT	ENDS
;	COMDAT ??0out_of_range@std@@QAE@ABV01@@Z
_TEXT	SEGMENT
_this$ = -4						; size = 4
___that$ = 8						; size = 4
??0out_of_range@std@@QAE@ABV01@@Z PROC NEAR		; std::out_of_range::out_of_range, COMDAT
; _this$ = ecx
  00000	55		 push	 ebp
  00001	8b ec		 mov	 ebp, esp
  00003	51		 push	 ecx
  00004	c7 45 fc cc cc
	cc cc		 mov	 DWORD PTR [ebp-4], -858993460 ; ccccccccH
  0000b	89 4d fc	 mov	 DWORD PTR _this$[ebp], ecx
  0000e	8b 45 08	 mov	 eax, DWORD PTR ___that$[ebp]
  00011	50		 push	 eax
  00012	8b 4d fc	 mov	 ecx, DWORD PTR _this$[ebp]
  00015	e8 00 00 00 00	 call	 ??0logic_error@std@@QAE@ABV01@@Z
  0001a	8b 4d fc	 mov	 ecx, DWORD PTR _this$[ebp]
  0001d	c7 01 00 00 00
	00		 mov	 DWORD PTR [ecx], OFFSET FLAT:??_7out_of_range@std@@6B@
  00023	8b 45 fc	 mov	 eax, DWORD PTR _this$[ebp]
  00026	83 c4 04	 add	 esp, 4
  00029	3b ec		 cmp	 ebp, esp
  0002b	e8 00 00 00 00	 call	 __RTC_CheckEsp
  00030	8b e5		 mov	 esp, ebp
  00032	5d		 pop	 ebp
  00033	c2 04 00	 ret	 4
??0out_of_range@std@@QAE@ABV01@@Z ENDP			; std::out_of_range::out_of_range
_TEXT	ENDS
EXTRN	__imp_??0exception@@QAE@ABV0@@Z:NEAR
;	COMDAT xdata$x
xdata$x	SEGMENT
$T189925 DD	0ffffffffH
	DD	FLAT:$L189920
$T189923 DD	019930520H
	DD	01H
	DD	FLAT:$T189925
	DD	2 DUP(00H)
	DD	2 DUP(00H)
; Function compile flags: /Odt /RTCsu
xdata$x	ENDS
;	COMDAT ??0logic_error@std@@QAE@ABV01@@Z
_TEXT	SEGMENT
_this$ = -16						; size = 4
__$EHRec$ = -12						; size = 12
___that$ = 8						; size = 4
??0logic_error@std@@QAE@ABV01@@Z PROC NEAR		; std::logic_error::logic_error, COMDAT
; _this$ = ecx
  00000	55		 push	 ebp
  00001	8b ec		 mov	 ebp, esp
  00003	6a ff		 push	 -1
  00005	68 00 00 00 00	 push	 __ehhandler$??0logic_error@std@@QAE@ABV01@@Z
  0000a	64 a1 00 00 00
	00		 mov	 eax, DWORD PTR fs:__except_list
  00010	50		 push	 eax
  00011	64 89 25 00 00
	00 00		 mov	 DWORD PTR fs:__except_list, esp
  00018	51		 push	 ecx
  00019	56		 push	 esi
  0001a	c7 45 f0 cc cc
	cc cc		 mov	 DWORD PTR [ebp-16], -858993460 ; ccccccccH
  00021	89 4d f0	 mov	 DWORD PTR _this$[ebp], ecx
  00024	8b f4		 mov	 esi, esp
  00026	8b 45 08	 mov	 eax, DWORD PTR ___that$[ebp]
  00029	50		 push	 eax
  0002a	8b 4d f0	 mov	 ecx, DWORD PTR _this$[ebp]
  0002d	ff 15 00 00 00
	00		 call	 DWORD PTR __imp_??0exception@@QAE@ABV0@@Z
  00033	3b f4		 cmp	 esi, esp
  00035	e8 00 00 00 00	 call	 __RTC_CheckEsp
  0003a	c7 45 fc 00 00
	00 00		 mov	 DWORD PTR __$EHRec$[ebp+8], 0
  00041	8b 4d f0	 mov	 ecx, DWORD PTR _this$[ebp]
  00044	c7 01 00 00 00
	00		 mov	 DWORD PTR [ecx], OFFSET FLAT:??_7logic_error@std@@6B@
  0004a	8b 55 08	 mov	 edx, DWORD PTR ___that$[ebp]
  0004d	83 c2 0c	 add	 edx, 12			; 0000000cH
  00050	8b f4		 mov	 esi, esp
  00052	52		 push	 edx
  00053	8b 4d f0	 mov	 ecx, DWORD PTR _this$[ebp]
  00056	83 c1 0c	 add	 ecx, 12			; 0000000cH
  00059	ff 15 00 00 00
	00		 call	 DWORD PTR __imp_??0?$basic_string@DU?$char_traits@D@std@@V?$allocator@D@2@@std@@QAE@ABV01@@Z
  0005f	3b f4		 cmp	 esi, esp
  00061	e8 00 00 00 00	 call	 __RTC_CheckEsp
  00066	c7 45 fc ff ff
	ff ff		 mov	 DWORD PTR __$EHRec$[ebp+8], -1
  0006d	8b 45 f0	 mov	 eax, DWORD PTR _this$[ebp]
  00070	8b 4d f4	 mov	 ecx, DWORD PTR __$EHRec$[ebp]
  00073	64 89 0d 00 00
	00 00		 mov	 DWORD PTR fs:__except_list, ecx
  0007a	5e		 pop	 esi
  0007b	83 c4 10	 add	 esp, 16			; 00000010H
  0007e	3b ec		 cmp	 ebp, esp
  00080	e8 00 00 00 00	 call	 __RTC_CheckEsp
  00085	8b e5		 mov	 esp, ebp
  00087	5d		 pop	 ebp
  00088	c2 04 00	 ret	 4
_TEXT	ENDS
;	COMDAT text$x
text$x	SEGMENT
$L189920:
  00000	8b f4		 mov	 esi, esp
  00002	8b 4d f0	 mov	 ecx, DWORD PTR _this$[ebp]
  00005	ff 15 00 00 00
	00		 call	 DWORD PTR __imp_??1exception@@UAE@XZ
  0000b	3b f4		 cmp	 esi, esp
  0000d	e9 00 00 00 00	 jmp	 __RTC_CheckEsp
__ehhandler$??0logic_error@std@@QAE@ABV01@@Z:
  00012	b8 00 00 00 00	 mov	 eax, OFFSET FLAT:$T189923
  00017	e9 00 00 00 00	 jmp	 ___CxxFrameHandler
text$x	ENDS
??0logic_error@std@@QAE@ABV01@@Z ENDP			; std::logic_error::logic_error
; Function compile flags: /Odt /RTCsu
; File d:\program files (x86)\microsoft visual studio .net 2003\vc7\include\utility
;	COMDAT ??$swap@D@std@@YAXAAD0@Z
_TEXT	SEGMENT
__Tmp$ = -1						; size = 1
__Left$ = 8						; size = 4
__Right$ = 12						; size = 4
??$swap@D@std@@YAXAAD0@Z PROC NEAR			; std::swap<char>, COMDAT

; 14   : 	{	// exchange values stored at _Left and _Right

  00000	55		 push	 ebp
  00001	8b ec		 mov	 ebp, esp
  00003	51		 push	 ecx
  00004	c7 45 fc cc cc
	cc cc		 mov	 DWORD PTR [ebp-4], -858993460 ; ccccccccH

; 15   : 	_Ty _Tmp = _Left;

  0000b	8b 45 08	 mov	 eax, DWORD PTR __Left$[ebp]
  0000e	8a 08		 mov	 cl, BYTE PTR [eax]
  00010	88 4d ff	 mov	 BYTE PTR __Tmp$[ebp], cl

; 16   : 	_Left = _Right, _Right = _Tmp;

  00013	8b 55 08	 mov	 edx, DWORD PTR __Left$[ebp]
  00016	8b 45 0c	 mov	 eax, DWORD PTR __Right$[ebp]
  00019	8a 08		 mov	 cl, BYTE PTR [eax]
  0001b	88 0a		 mov	 BYTE PTR [edx], cl
  0001d	8b 55 0c	 mov	 edx, DWORD PTR __Right$[ebp]
  00020	8a 45 ff	 mov	 al, BYTE PTR __Tmp$[ebp]
  00023	88 02		 mov	 BYTE PTR [edx], al

; 17   : 	}

  00025	8b e5		 mov	 esp, ebp
  00027	5d		 pop	 ebp
  00028	c3		 ret	 0
??$swap@D@std@@YAXAAD0@Z ENDP				; std::swap<char>
_TEXT	ENDS
END
