; Listing generated by Microsoft (R) Optimizing Compiler Version 13.10.3077 

	TITLE	.\src\LayoutMgr\ChangeColor\WndColorMgr.cpp
	.386P
include listing.inc
if @Version gt 510
.model FLAT
else
_TEXT	SEGMENT PARA USE32 PUBLIC 'CODE'
_TEXT	ENDS
_DATA	SEGMENT DWORD USE32 PUBLIC 'DATA'
_DATA	ENDS
CONST	SEGMENT DWORD USE32 PUBLIC 'CONST'
CONST	ENDS
_BSS	SEGMENT DWORD USE32 PUBLIC 'BSS'
_BSS	ENDS
$$SYMBOLS	SEGMENT BYTE USE32 'DEBSYM'
$$SYMBOLS	ENDS
_TLS	SEGMENT DWORD USE32 PUBLIC 'TLS'
_TLS	ENDS
;	COMDAT ??_C@_0FC@OGIBLEP@d?3?2boxgit?2playbox?2playbox?2dev?2pr@
CONST	SEGMENT DWORD USE32 PUBLIC 'CONST'
CONST	ENDS
;	COMDAT ??_C@_0EN@IBFBLEEG@D?3?2Program?5Files?5?$CIx86?$CJ?2Microsoft@
CONST	SEGMENT DWORD USE32 PUBLIC 'CONST'
CONST	ENDS
rdata$r	SEGMENT DWORD USE32 PUBLIC 'CONST'
rdata$r	ENDS
xdata$x	SEGMENT DWORD USE32 PUBLIC 'CONST'
xdata$x	ENDS
text$AFX_COL1	SEGMENT PARA USE32 PUBLIC ''
text$AFX_COL1	ENDS
text$yc	SEGMENT PARA USE32 PUBLIC 'CODE'
text$yc	ENDS
CRT$XCA	SEGMENT DWORD USE32 PUBLIC 'DATA'
CRT$XCA	ENDS
CRT$XCU	SEGMENT DWORD USE32 PUBLIC 'DATA'
CRT$XCU	ENDS
CRT$XCL	SEGMENT DWORD USE32 PUBLIC 'DATA'
CRT$XCL	ENDS
CRT$XCC	SEGMENT DWORD USE32 PUBLIC 'DATA'
CRT$XCC	ENDS
CRT$XCZ	SEGMENT DWORD USE32 PUBLIC 'DATA'
CRT$XCZ	ENDS
text$yd	SEGMENT PARA USE32 PUBLIC 'CODE'
text$yd	ENDS
ATL$__m	SEGMENT DWORD USE32 PUBLIC ''
ATL$__m	ENDS
ATL$__z	SEGMENT DWORD USE32 PUBLIC ''
ATL$__z	ENDS
ATL$__a	SEGMENT DWORD USE32 PUBLIC ''
ATL$__a	ENDS
;	COMDAT ??0BaseColor@@QAE@XZ
_TEXT	SEGMENT PARA USE32 PUBLIC 'CODE'
_TEXT	ENDS
;	COMDAT ??1BaseColor@@QAE@XZ
_TEXT	SEGMENT PARA USE32 PUBLIC 'CODE'
_TEXT	ENDS
;	COMDAT ??0CtrColBase@@QAE@XZ
_TEXT	SEGMENT PARA USE32 PUBLIC 'CODE'
_TEXT	ENDS
;	COMDAT ??1CtrColBase@@QAE@XZ
_TEXT	SEGMENT PARA USE32 PUBLIC 'CODE'
_TEXT	ENDS
;	COMDAT ??_GBaseColor@@QAEPAXI@Z
_TEXT	SEGMENT PARA USE32 PUBLIC 'CODE'
_TEXT	ENDS
;	COMDAT ??_ECtrColBase@@QAEPAXI@Z
_TEXT	SEGMENT PARA USE32 PUBLIC 'CODE'
_TEXT	ENDS
;	COMDAT _$E5
text$yc	SEGMENT PARA USE32 PUBLIC 'CODE'
text$yc	ENDS
;	COMDAT _$E6
text$yd	SEGMENT PARA USE32 PUBLIC 'CODE'
text$yd	ENDS
;	COMDAT ??B?$CComPtrBase@UITypeInfo2@@@ATL@@QBEPAUITypeInfo2@@XZ
_TEXT	SEGMENT PARA USE32 PUBLIC 'CODE'
_TEXT	ENDS
;	COMDAT ?equal@?$istreambuf_iterator@DU?$char_traits@D@std@@@std@@QBE_NABV12@@Z
_TEXT	SEGMENT PARA USE32 PUBLIC 'CODE'
_TEXT	ENDS
;	COMDAT ?equal@?$istreambuf_iterator@_WU?$char_traits@_W@std@@@std@@QBE_NABV12@@Z
_TEXT	SEGMENT PARA USE32 PUBLIC 'CODE'
_TEXT	ENDS
;	COMDAT ?Unlock@?$CComCritSecLock@VCComCriticalSection@ATL@@@ATL@@QAEXXZ
_TEXT	SEGMENT PARA USE32 PUBLIC 'CODE'
_TEXT	ENDS
;	COMDAT ??$_Maklocstr@D@std@@YAPADPBDPADABU_Cvtvec@@@Z
_TEXT	SEGMENT PARA USE32 PUBLIC 'CODE'
_TEXT	ENDS
;	COMDAT ??_R3?$numpunct@_W@std@@8
rdata$r	SEGMENT DWORD USE32 PUBLIC 'CONST'
rdata$r	ENDS
;	COMDAT ??_R3?$numpunct@D@std@@8
rdata$r	SEGMENT DWORD USE32 PUBLIC 'CONST'
rdata$r	ENDS
;	COMDAT ??_R2?$numpunct@_W@std@@8
rdata$r	SEGMENT DWORD USE32 PUBLIC 'CONST'
rdata$r	ENDS
;	COMDAT ??_R2?$numpunct@D@std@@8
rdata$r	SEGMENT DWORD USE32 PUBLIC 'CONST'
rdata$r	ENDS
;	COMDAT ??_R1A@?0A@A@?$numpunct@_W@std@@8
rdata$r	SEGMENT DWORD USE32 PUBLIC 'CONST'
rdata$r	ENDS
;	COMDAT ??_R1A@?0A@A@facet@locale@std@@8
rdata$r	SEGMENT DWORD USE32 PUBLIC 'CONST'
rdata$r	ENDS
;	COMDAT ??_R0?AVfacet@locale@std@@@8
_DATA	SEGMENT DWORD USE32 PUBLIC 'DATA'
_DATA	ENDS
;	COMDAT ??_R1A@?0A@A@?$numpunct@D@std@@8
rdata$r	SEGMENT DWORD USE32 PUBLIC 'CONST'
rdata$r	ENDS
;	COMDAT ??_R0?AV?$numpunct@_W@std@@@8
_DATA	SEGMENT DWORD USE32 PUBLIC 'DATA'
_DATA	ENDS
;	COMDAT ??_R0?AV?$numpunct@D@std@@@8
_DATA	SEGMENT DWORD USE32 PUBLIC 'DATA'
_DATA	ENDS
;	COMDAT ??0?$allocator@_W@std@@QAE@XZ
_TEXT	SEGMENT PARA USE32 PUBLIC 'CODE'
_TEXT	ENDS
;	COMDAT ??0?$allocator@D@std@@QAE@ABV01@@Z
_TEXT	SEGMENT PARA USE32 PUBLIC 'CODE'
_TEXT	ENDS
;	COMDAT ??0?$allocator@D@std@@QAE@XZ
_TEXT	SEGMENT PARA USE32 PUBLIC 'CODE'
_TEXT	ENDS
;	COMDAT ?deallocate@?$allocator@D@std@@QAEXPADI@Z
_TEXT	SEGMENT PARA USE32 PUBLIC 'CODE'
_TEXT	ENDS
;	COMDAT ?max_size@?$allocator@D@std@@QBEIXZ
_TEXT	SEGMENT PARA USE32 PUBLIC 'CODE'
_TEXT	ENDS
;	COMDAT ?allocate@?$allocator@D@std@@QAEPADI@Z
_TEXT	SEGMENT PARA USE32 PUBLIC 'CODE'
_TEXT	ENDS
;	COMDAT ??$_Allocate@D@std@@YAPADIPAD@Z
_TEXT	SEGMENT PARA USE32 PUBLIC 'CODE'
_TEXT	ENDS
;	COMDAT ??_G?$numpunct@_W@std@@MAEPAXI@Z
_TEXT	SEGMENT PARA USE32 PUBLIC 'CODE'
_TEXT	ENDS
;	COMDAT ??_R4?$numpunct@_W@std@@6B@
rdata$r	SEGMENT DWORD USE32 PUBLIC 'CONST'
rdata$r	ENDS
;	COMDAT ??_G?$numpunct@D@std@@MAEPAXI@Z
_TEXT	SEGMENT PARA USE32 PUBLIC 'CODE'
_TEXT	ENDS
;	COMDAT ??_R4?$numpunct@D@std@@6B@
rdata$r	SEGMENT DWORD USE32 PUBLIC 'CONST'
rdata$r	ENDS
;	COMDAT ??_C@_0EN@CBMLGOH@D?3?2Program?5Files?5?$CIx86?$CJ?2Microsoft@
CONST	SEGMENT DWORD USE32 PUBLIC 'CONST'
CONST	ENDS
;	COMDAT ?_Psave@?$_Facetptr@V?$numpunct@_W@std@@@std@@2PBVfacet@locale@2@B
_DATA	SEGMENT DWORD USE32 PUBLIC 'DATA'
_DATA	ENDS
;	COMDAT ?_Psave@?$_Facetptr@V?$numpunct@D@std@@@std@@2PBVfacet@locale@2@B
_DATA	SEGMENT DWORD USE32 PUBLIC 'DATA'
_DATA	ENDS
;	COMDAT ?Unlock@CComCriticalSection@ATL@@QAEJXZ
_TEXT	SEGMENT PARA USE32 PUBLIC 'CODE'
_TEXT	ENDS
;	COMDAT ??_C@_0FG@LDNDNCJM@D?3?2Program?5Files?5?$CIx86?$CJ?2Microsoft@
CONST	SEGMENT DWORD USE32 PUBLIC 'CONST'
CONST	ENDS
;	COMDAT ??_C@_09HIEJFN@m_bLocked?$AA@
CONST	SEGMENT DWORD USE32 PUBLIC 'CONST'
CONST	ENDS
;	COMDAT ?_Psave@?$_Facetptr@V?$ctype@_W@std@@@std@@2PBVfacet@locale@2@B
_DATA	SEGMENT DWORD USE32 PUBLIC 'DATA'
_DATA	ENDS
;	COMDAT ?_Psave@?$_Facetptr@V?$ctype@D@std@@@std@@2PBVfacet@locale@2@B
_DATA	SEGMENT DWORD USE32 PUBLIC 'DATA'
_DATA	ENDS
;	COMDAT ??$_Maklocchr@_W@std@@YA_WDPA_WABU_Cvtvec@@@Z
_TEXT	SEGMENT PARA USE32 PUBLIC 'CODE'
_TEXT	ENDS
;	COMDAT ??$_DebugHeapDelete@X@std@@YAXPAX@Z
_TEXT	SEGMENT PARA USE32 PUBLIC 'CODE'
_TEXT	ENDS
;	COMDAT ??$_Maklocstr@_W@std@@YAPA_WPBDPA_WABU_Cvtvec@@@Z
_TEXT	SEGMENT PARA USE32 PUBLIC 'CODE'
_TEXT	ENDS
;	COMDAT ??$_Maklocchr@D@std@@YADDPADABU_Cvtvec@@@Z
_TEXT	SEGMENT PARA USE32 PUBLIC 'CODE'
_TEXT	ENDS
;	COMDAT ??_C@_04LOAJBDKD@true?$AA@
CONST	SEGMENT DWORD USE32 PUBLIC 'CONST'
CONST	ENDS
;	COMDAT ??_C@_05LAPONLG@false?$AA@
CONST	SEGMENT DWORD USE32 PUBLIC 'CONST'
CONST	ENDS
;	COMDAT _wmemcpy
_TEXT	SEGMENT PARA USE32 PUBLIC 'CODE'
_TEXT	ENDS
;	COMDAT ?max_size@?$allocator@_W@std@@QBEIXZ
_TEXT	SEGMENT PARA USE32 PUBLIC 'CODE'
_TEXT	ENDS
;	COMDAT ?allocate@?$allocator@_W@std@@QAEPA_WI@Z
_TEXT	SEGMENT PARA USE32 PUBLIC 'CODE'
_TEXT	ENDS
;	COMDAT ??$_Allocate@_W@std@@YAPA_WIPA_W@Z
_TEXT	SEGMENT PARA USE32 PUBLIC 'CODE'
_TEXT	ENDS
;	COMDAT ??_C@_01GFHCPBMG@C?$AA@
CONST	SEGMENT DWORD USE32 PUBLIC 'CONST'
CONST	ENDS
;	COMDAT ?_Peek@?$istreambuf_iterator@_WU?$char_traits@_W@std@@@std@@AAE_WXZ
_TEXT	SEGMENT PARA USE32 PUBLIC 'CODE'
_TEXT	ENDS
;	COMDAT ?_Peek@?$istreambuf_iterator@DU?$char_traits@D@std@@@std@@AAEDXZ
_TEXT	SEGMENT PARA USE32 PUBLIC 'CODE'
_TEXT	ENDS
;	COMDAT ??$use_facet@V?$ctype@_W@std@@@std@@YAABV?$ctype@_W@0@ABVlocale@0@@Z
_TEXT	SEGMENT PARA USE32 PUBLIC 'CODE'
_TEXT	ENDS
;	COMDAT ??_S?$ctype@_W@std@@6B@
CONST	SEGMENT DWORD USE32 PUBLIC 'CONST'
CONST	ENDS
;	COMDAT ??_R4?$ctype@_W@std@@6B@
rdata$r	SEGMENT DWORD USE32 PUBLIC 'CONST'
rdata$r	ENDS
;	COMDAT ??_R0?AV?$ctype@_W@std@@@8
_DATA	SEGMENT DWORD USE32 PUBLIC 'DATA'
_DATA	ENDS
;	COMDAT ??_R3?$ctype@_W@std@@8
rdata$r	SEGMENT DWORD USE32 PUBLIC 'CONST'
rdata$r	ENDS
;	COMDAT ??_R2?$ctype@_W@std@@8
rdata$r	SEGMENT DWORD USE32 PUBLIC 'CONST'
rdata$r	ENDS
;	COMDAT ??_R1A@?0A@A@?$ctype@_W@std@@8
rdata$r	SEGMENT DWORD USE32 PUBLIC 'CONST'
rdata$r	ENDS
;	COMDAT ??_R1A@?0A@A@ctype_base@std@@8
rdata$r	SEGMENT DWORD USE32 PUBLIC 'CONST'
rdata$r	ENDS
;	COMDAT ??_R0?AUctype_base@std@@@8
_DATA	SEGMENT DWORD USE32 PUBLIC 'DATA'
_DATA	ENDS
;	COMDAT ??_G?$ctype@_W@std@@MAEPAXI@Z
_TEXT	SEGMENT PARA USE32 PUBLIC 'CODE'
_TEXT	ENDS
;	COMDAT ??_C@_08EPJLHIJG@bad?5cast?$AA@
CONST	SEGMENT DWORD USE32 PUBLIC 'CONST'
CONST	ENDS
;	COMDAT __TI2?AVbad_cast@@
xdata$x	SEGMENT DWORD USE32 PUBLIC 'CONST'
xdata$x	ENDS
;	COMDAT __CTA2?AVbad_cast@@
xdata$x	SEGMENT DWORD USE32 PUBLIC 'CONST'
xdata$x	ENDS
;	COMDAT __CT??_R0?AVbad_cast@@@8??0bad_cast@@QAE@ABV0@@Z12
xdata$x	SEGMENT DWORD USE32 PUBLIC 'CONST'
xdata$x	ENDS
;	COMDAT ??_R0?AVbad_cast@@@8
_DATA	SEGMENT DWORD USE32 PUBLIC 'DATA'
_DATA	ENDS
;	COMDAT __CT??_R0?AVexception@@@8??0exception@@QAE@ABV0@@Z12
xdata$x	SEGMENT DWORD USE32 PUBLIC 'CONST'
xdata$x	ENDS
;	COMDAT ??_R0?AVexception@@@8
_DATA	SEGMENT DWORD USE32 PUBLIC 'DATA'
_DATA	ENDS
;	COMDAT ??$_DebugHeapDelete@Vfacet@locale@std@@@std@@YAXPAVfacet@locale@0@@Z
_TEXT	SEGMENT PARA USE32 PUBLIC 'CODE'
_TEXT	ENDS
;	COMDAT ??$use_facet@V?$ctype@D@std@@@std@@YAABV?$ctype@D@0@ABVlocale@0@@Z
_TEXT	SEGMENT PARA USE32 PUBLIC 'CODE'
_TEXT	ENDS
;	COMDAT ??_S?$ctype@D@std@@6B@
CONST	SEGMENT DWORD USE32 PUBLIC 'CONST'
CONST	ENDS
;	COMDAT ??_R4?$ctype@D@std@@6B@
rdata$r	SEGMENT DWORD USE32 PUBLIC 'CONST'
rdata$r	ENDS
;	COMDAT ??_R0?AV?$ctype@D@std@@@8
_DATA	SEGMENT DWORD USE32 PUBLIC 'DATA'
_DATA	ENDS
;	COMDAT ??_R3?$ctype@D@std@@8
rdata$r	SEGMENT DWORD USE32 PUBLIC 'CONST'
rdata$r	ENDS
;	COMDAT ??_R2?$ctype@D@std@@8
rdata$r	SEGMENT DWORD USE32 PUBLIC 'CONST'
rdata$r	ENDS
;	COMDAT ??_R1A@?0A@A@?$ctype@D@std@@8
rdata$r	SEGMENT DWORD USE32 PUBLIC 'CONST'
rdata$r	ENDS
;	COMDAT ??_G?$ctype@D@std@@MAEPAXI@Z
_TEXT	SEGMENT PARA USE32 PUBLIC 'CODE'
_TEXT	ENDS
;	COMDAT ??_S?$numpunct@_W@std@@6B@
CONST	SEGMENT DWORD USE32 PUBLIC 'CONST'
CONST	ENDS
;	COMDAT ??_S?$numpunct@D@std@@6B@
CONST	SEGMENT DWORD USE32 PUBLIC 'CONST'
CONST	ENDS
;	COMDAT _wmemmove
_TEXT	SEGMENT PARA USE32 PUBLIC 'CODE'
_TEXT	ENDS
;	COMDAT ?deallocate@?$allocator@_W@std@@QAEXPA_WI@Z
_TEXT	SEGMENT PARA USE32 PUBLIC 'CODE'
_TEXT	ENDS
;	COMDAT ??0?$allocator@_W@std@@QAE@ABV01@@Z
_TEXT	SEGMENT PARA USE32 PUBLIC 'CODE'
_TEXT	ENDS
sxdata	SEGMENT DWORD USE32 'SXDATA'
sxdata	ENDS
FLAT	GROUP _DATA, CONST, _BSS
	ASSUME	CS: FLAT, DS: FLAT, SS: FLAT
endif

INCLUDELIB MSVCRTD
INCLUDELIB OLDNAMES

CONST	SEGMENT
$SG187144 DB	'.\src\LayoutMgr\ChangeColor\WndColorMgr.cpp', 00H
$SG187145 DB	'.\src\LayoutMgr\ChangeColor\WndColorMgr.cpp', 00H
CONST	ENDS
PUBLIC	??0CtrColBase@@QAE@XZ				; CtrColBase::CtrColBase
PUBLIC	??1CtrColBase@@QAE@XZ				; CtrColBase::~CtrColBase
PUBLIC	??0CWndColorMgr@@QAE@XZ				; CWndColorMgr::CWndColorMgr
PUBLIC	?inIt@CWndColorMgr@@AAEXXZ			; CWndColorMgr::inIt
EXTRN	??_L@YGXPAXIHP6EX0@Z1@Z:NEAR			; `eh vector constructor iterator'
EXTRN	__RTC_InitBase:NEAR
EXTRN	__RTC_Shutdown:NEAR
EXTRN	__except_list:DWORD
EXTRN	__RTC_CheckEsp:NEAR
EXTRN	___CxxFrameHandler:NEAR
EXTRN	??_U@YAPAXIPBDH@Z:NEAR				; operator new[]
EXTRN	??_V@YAXPAXPBDH@Z:NEAR				; operator delete[]
;	COMDAT rtc$IMZ
; File d:\boxgit\playbox\playbox\dev\prj\playbox\src\layoutmgr\changecolor\wndcolormgr.cpp
rtc$IMZ	SEGMENT
__RTC_InitBase.rtc$IMZ DD FLAT:__RTC_InitBase
rtc$IMZ	ENDS
;	COMDAT rtc$TMZ
rtc$TMZ	SEGMENT
__RTC_Shutdown.rtc$TMZ DD FLAT:__RTC_Shutdown
rtc$TMZ	ENDS
xdata$x	SEGMENT
$T187720 DD	0ffffffffH
	DD	FLAT:$L187712
$T187716 DD	019930520H
	DD	01H
	DD	FLAT:$T187720
	DD	2 DUP(00H)
	DD	2 DUP(00H)
; Function compile flags: /Odt /RTCsu
xdata$x	ENDS
_TEXT	SEGMENT
tv80 = -28						; size = 4
$T187703 = -24						; size = 4
$T187702 = -20						; size = 4
_this$ = -16						; size = 4
__$EHRec$ = -12						; size = 12
??0CWndColorMgr@@QAE@XZ PROC NEAR			; CWndColorMgr::CWndColorMgr
; _this$ = ecx

; 10   : {

  00000	55		 push	 ebp
  00001	8b ec		 mov	 ebp, esp
  00003	6a ff		 push	 -1
  00005	68 00 00 00 00	 push	 __ehhandler$??0CWndColorMgr@@QAE@XZ
  0000a	64 a1 00 00 00
	00		 mov	 eax, DWORD PTR fs:__except_list
  00010	50		 push	 eax
  00011	64 89 25 00 00
	00 00		 mov	 DWORD PTR fs:__except_list, esp
  00018	83 ec 10	 sub	 esp, 16			; 00000010H
  0001b	b8 cc cc cc cc	 mov	 eax, -858993460		; ccccccccH
  00020	89 45 e4	 mov	 DWORD PTR [ebp-28], eax
  00023	89 45 e8	 mov	 DWORD PTR [ebp-24], eax
  00026	89 45 ec	 mov	 DWORD PTR [ebp-20], eax
  00029	89 45 f0	 mov	 DWORD PTR [ebp-16], eax
  0002c	89 4d f0	 mov	 DWORD PTR _this$[ebp], ecx

; 11   : 	mpColor = new STRU_CTR_COL_BASE[WND_TYPE_NUM];

  0002f	6a 0b		 push	 11			; 0000000bH
  00031	68 00 00 00 00	 push	 OFFSET FLAT:$SG187144
  00036	68 1c 01 00 00	 push	 284			; 0000011cH
  0003b	e8 00 00 00 00	 call	 ??_U@YAPAXIPBDH@Z	; operator new[]
  00040	83 c4 0c	 add	 esp, 12			; 0000000cH
  00043	89 45 e8	 mov	 DWORD PTR $T187703[ebp], eax
  00046	c7 45 fc 00 00
	00 00		 mov	 DWORD PTR __$EHRec$[ebp+8], 0
  0004d	83 7d e8 00	 cmp	 DWORD PTR $T187703[ebp], 0
  00051	74 2e		 je	 SHORT $L187704
  00053	8b 45 e8	 mov	 eax, DWORD PTR $T187703[ebp]
  00056	c7 00 07 00 00
	00		 mov	 DWORD PTR [eax], 7
  0005c	68 00 00 00 00	 push	 OFFSET FLAT:??1CtrColBase@@QAE@XZ ; CtrColBase::~CtrColBase
  00061	68 00 00 00 00	 push	 OFFSET FLAT:??0CtrColBase@@QAE@XZ ; CtrColBase::CtrColBase
  00066	6a 07		 push	 7
  00068	6a 28		 push	 40			; 00000028H
  0006a	8b 4d e8	 mov	 ecx, DWORD PTR $T187703[ebp]
  0006d	83 c1 04	 add	 ecx, 4
  00070	51		 push	 ecx
  00071	e8 00 00 00 00	 call	 ??_L@YGXPAXIHP6EX0@Z1@Z
  00076	8b 55 e8	 mov	 edx, DWORD PTR $T187703[ebp]
  00079	83 c2 04	 add	 edx, 4
  0007c	89 55 e4	 mov	 DWORD PTR tv80[ebp], edx
  0007f	eb 07		 jmp	 SHORT $L187705
$L187704:
  00081	c7 45 e4 00 00
	00 00		 mov	 DWORD PTR tv80[ebp], 0
$L187705:
  00088	8b 45 e4	 mov	 eax, DWORD PTR tv80[ebp]
  0008b	89 45 ec	 mov	 DWORD PTR $T187702[ebp], eax
  0008e	c7 45 fc ff ff
	ff ff		 mov	 DWORD PTR __$EHRec$[ebp+8], -1
  00095	8b 4d f0	 mov	 ecx, DWORD PTR _this$[ebp]
  00098	8b 55 ec	 mov	 edx, DWORD PTR $T187702[ebp]
  0009b	89 11		 mov	 DWORD PTR [ecx], edx

; 12   : 	inIt();

  0009d	8b 4d f0	 mov	 ecx, DWORD PTR _this$[ebp]
  000a0	e8 00 00 00 00	 call	 ?inIt@CWndColorMgr@@AAEXXZ ; CWndColorMgr::inIt

; 13   : 
; 14   : }

  000a5	8b 45 f0	 mov	 eax, DWORD PTR _this$[ebp]
  000a8	8b 4d f4	 mov	 ecx, DWORD PTR __$EHRec$[ebp]
  000ab	64 89 0d 00 00
	00 00		 mov	 DWORD PTR fs:__except_list, ecx
  000b2	83 c4 1c	 add	 esp, 28			; 0000001cH
  000b5	3b ec		 cmp	 ebp, esp
  000b7	e8 00 00 00 00	 call	 __RTC_CheckEsp
  000bc	8b e5		 mov	 esp, ebp
  000be	5d		 pop	 ebp
  000bf	c3		 ret	 0
_TEXT	ENDS
text$x	SEGMENT
$L187712:
  00000	6a 0b		 push	 11			; 0000000bH
  00002	68 00 00 00 00	 push	 OFFSET FLAT:$SG187145
  00007	8b 45 e8	 mov	 eax, DWORD PTR $T187703[ebp]
  0000a	50		 push	 eax
  0000b	e8 00 00 00 00	 call	 ??_V@YAXPAXPBDH@Z	; operator delete[]
  00010	83 c4 0c	 add	 esp, 12			; 0000000cH
  00013	c3		 ret	 0
__ehhandler$??0CWndColorMgr@@QAE@XZ:
  00014	b8 00 00 00 00	 mov	 eax, OFFSET FLAT:$T187716
  00019	e9 00 00 00 00	 jmp	 ___CxxFrameHandler
text$x	ENDS
??0CWndColorMgr@@QAE@XZ ENDP				; CWndColorMgr::CWndColorMgr
PUBLIC	??0BaseColor@@QAE@XZ				; BaseColor::BaseColor
PUBLIC	??_C@_0FC@OGIBLEP@d?3?2boxgit?2playbox?2playbox?2dev?2pr@ ; `string'
EXTRN	??2@YAPAXIPBDH@Z:NEAR				; operator new
EXTRN	??3@YAXPAXPBDH@Z:NEAR				; operator delete
;	COMDAT xdata$x
; File d:\boxgit\playbox\playbox\dev\prj\playbox\src\layoutmgr\changecolor\wndcolormgr.h
xdata$x	SEGMENT
$T187731 DD	0ffffffffH
	DD	FLAT:$L187727
$T187729 DD	019930520H
	DD	01H
	DD	FLAT:$T187731
	DD	2 DUP(00H)
	DD	2 DUP(00H)
xdata$x	ENDS
;	COMDAT ??_C@_0FC@OGIBLEP@d?3?2boxgit?2playbox?2playbox?2dev?2pr@
CONST	SEGMENT
??_C@_0FC@OGIBLEP@d?3?2boxgit?2playbox?2playbox?2dev?2pr@ DB 'd:\boxgit\p'
	DB	'laybox\playbox\dev\prj\playbox\src\layoutmgr\changecolor\WndC'
	DB	'olorMgr.h', 00H				; `string'
; Function compile flags: /Odt /RTCsu
CONST	ENDS
;	COMDAT ??0CtrColBase@@QAE@XZ
_TEXT	SEGMENT
tv75 = -28						; size = 4
$T187724 = -24						; size = 4
$T187723 = -20						; size = 4
_this$ = -16						; size = 4
__$EHRec$ = -12						; size = 12
??0CtrColBase@@QAE@XZ PROC NEAR				; CtrColBase::CtrColBase, COMDAT
; _this$ = ecx

; 60   : 	CtrColBase()

  00000	55		 push	 ebp
  00001	8b ec		 mov	 ebp, esp
  00003	6a ff		 push	 -1
  00005	68 00 00 00 00	 push	 __ehhandler$??0CtrColBase@@QAE@XZ
  0000a	64 a1 00 00 00
	00		 mov	 eax, DWORD PTR fs:__except_list
  00010	50		 push	 eax
  00011	64 89 25 00 00
	00 00		 mov	 DWORD PTR fs:__except_list, esp
  00018	83 ec 10	 sub	 esp, 16			; 00000010H
  0001b	b8 cc cc cc cc	 mov	 eax, -858993460		; ccccccccH
  00020	89 45 e4	 mov	 DWORD PTR [ebp-28], eax
  00023	89 45 e8	 mov	 DWORD PTR [ebp-24], eax
  00026	89 45 ec	 mov	 DWORD PTR [ebp-20], eax
  00029	89 45 f0	 mov	 DWORD PTR [ebp-16], eax
  0002c	89 4d f0	 mov	 DWORD PTR _this$[ebp], ecx

; 61   : 	{
; 62   : 		structColBase = new STRU_BASE_COLOR;

  0002f	6a 3e		 push	 62			; 0000003eH
  00031	68 00 00 00 00	 push	 OFFSET FLAT:??_C@_0FC@OGIBLEP@d?3?2boxgit?2playbox?2playbox?2dev?2pr@
  00036	6a 14		 push	 20			; 00000014H
  00038	e8 00 00 00 00	 call	 ??2@YAPAXIPBDH@Z	; operator new
  0003d	83 c4 0c	 add	 esp, 12			; 0000000cH
  00040	89 45 e8	 mov	 DWORD PTR $T187724[ebp], eax
  00043	c7 45 fc 00 00
	00 00		 mov	 DWORD PTR __$EHRec$[ebp+8], 0
  0004a	83 7d e8 00	 cmp	 DWORD PTR $T187724[ebp], 0
  0004e	74 0d		 je	 SHORT $L187725
  00050	8b 4d e8	 mov	 ecx, DWORD PTR $T187724[ebp]
  00053	e8 00 00 00 00	 call	 ??0BaseColor@@QAE@XZ	; BaseColor::BaseColor
  00058	89 45 e4	 mov	 DWORD PTR tv75[ebp], eax
  0005b	eb 07		 jmp	 SHORT $L187726
$L187725:
  0005d	c7 45 e4 00 00
	00 00		 mov	 DWORD PTR tv75[ebp], 0
$L187726:
  00064	8b 45 e4	 mov	 eax, DWORD PTR tv75[ebp]
  00067	89 45 ec	 mov	 DWORD PTR $T187723[ebp], eax
  0006a	c7 45 fc ff ff
	ff ff		 mov	 DWORD PTR __$EHRec$[ebp+8], -1
  00071	8b 4d f0	 mov	 ecx, DWORD PTR _this$[ebp]
  00074	8b 55 ec	 mov	 edx, DWORD PTR $T187723[ebp]
  00077	89 11		 mov	 DWORD PTR [ecx], edx

; 63   : 	};

  00079	8b 45 f0	 mov	 eax, DWORD PTR _this$[ebp]
  0007c	8b 4d f4	 mov	 ecx, DWORD PTR __$EHRec$[ebp]
  0007f	64 89 0d 00 00
	00 00		 mov	 DWORD PTR fs:__except_list, ecx
  00086	83 c4 1c	 add	 esp, 28			; 0000001cH
  00089	3b ec		 cmp	 ebp, esp
  0008b	e8 00 00 00 00	 call	 __RTC_CheckEsp
  00090	8b e5		 mov	 esp, ebp
  00092	5d		 pop	 ebp
  00093	c3		 ret	 0
_TEXT	ENDS
;	COMDAT text$x
text$x	SEGMENT
$L187727:
  00000	6a 3e		 push	 62			; 0000003eH
  00002	68 00 00 00 00	 push	 OFFSET FLAT:??_C@_0FC@OGIBLEP@d?3?2boxgit?2playbox?2playbox?2dev?2pr@
  00007	8b 45 e8	 mov	 eax, DWORD PTR $T187724[ebp]
  0000a	50		 push	 eax
  0000b	e8 00 00 00 00	 call	 ??3@YAXPAXPBDH@Z	; operator delete
  00010	83 c4 0c	 add	 esp, 12			; 0000000cH
  00013	c3		 ret	 0
__ehhandler$??0CtrColBase@@QAE@XZ:
  00014	b8 00 00 00 00	 mov	 eax, OFFSET FLAT:$T187729
  00019	e9 00 00 00 00	 jmp	 ___CxxFrameHandler
text$x	ENDS
??0CtrColBase@@QAE@XZ ENDP				; CtrColBase::CtrColBase
; Function compile flags: /Odt /RTCsu
;	COMDAT ??0BaseColor@@QAE@XZ
_TEXT	SEGMENT
_this$ = -4						; size = 4
??0BaseColor@@QAE@XZ PROC NEAR				; BaseColor::BaseColor, COMDAT
; _this$ = ecx

; 21   : 	BaseColor()	{};

  00000	55		 push	 ebp
  00001	8b ec		 mov	 ebp, esp
  00003	51		 push	 ecx
  00004	c7 45 fc cc cc
	cc cc		 mov	 DWORD PTR [ebp-4], -858993460 ; ccccccccH
  0000b	89 4d fc	 mov	 DWORD PTR _this$[ebp], ecx
  0000e	8b 45 fc	 mov	 eax, DWORD PTR _this$[ebp]
  00011	8b e5		 mov	 esp, ebp
  00013	5d		 pop	 ebp
  00014	c3		 ret	 0
??0BaseColor@@QAE@XZ ENDP				; BaseColor::BaseColor
_TEXT	ENDS
PUBLIC	??_GBaseColor@@QAEPAXI@Z			; BaseColor::`scalar deleting destructor'
; Function compile flags: /Odt /RTCsu
;	COMDAT ??1CtrColBase@@QAE@XZ
_TEXT	SEGMENT
tv68 = -16						; size = 4
$T187737 = -12						; size = 4
$T187736 = -8						; size = 4
_this$ = -4						; size = 4
??1CtrColBase@@QAE@XZ PROC NEAR				; CtrColBase::~CtrColBase, COMDAT
; _this$ = ecx

; 65   : 	{

  00000	55		 push	 ebp
  00001	8b ec		 mov	 ebp, esp
  00003	83 ec 10	 sub	 esp, 16			; 00000010H
  00006	b8 cc cc cc cc	 mov	 eax, -858993460		; ccccccccH
  0000b	89 45 f0	 mov	 DWORD PTR [ebp-16], eax
  0000e	89 45 f4	 mov	 DWORD PTR [ebp-12], eax
  00011	89 45 f8	 mov	 DWORD PTR [ebp-8], eax
  00014	89 45 fc	 mov	 DWORD PTR [ebp-4], eax
  00017	89 4d fc	 mov	 DWORD PTR _this$[ebp], ecx

; 66   : 		delete structColBase;

  0001a	8b 45 fc	 mov	 eax, DWORD PTR _this$[ebp]
  0001d	8b 08		 mov	 ecx, DWORD PTR [eax]
  0001f	89 4d f4	 mov	 DWORD PTR $T187737[ebp], ecx
  00022	8b 55 f4	 mov	 edx, DWORD PTR $T187737[ebp]
  00025	89 55 f8	 mov	 DWORD PTR $T187736[ebp], edx
  00028	83 7d f8 00	 cmp	 DWORD PTR $T187736[ebp], 0
  0002c	74 0f		 je	 SHORT $L187738
  0002e	6a 01		 push	 1
  00030	8b 4d f8	 mov	 ecx, DWORD PTR $T187736[ebp]
  00033	e8 00 00 00 00	 call	 ??_GBaseColor@@QAEPAXI@Z
  00038	89 45 f0	 mov	 DWORD PTR tv68[ebp], eax
  0003b	eb 07		 jmp	 SHORT $L187106
$L187738:
  0003d	c7 45 f0 00 00
	00 00		 mov	 DWORD PTR tv68[ebp], 0
$L187106:

; 67   : 	};

  00044	83 c4 10	 add	 esp, 16			; 00000010H
  00047	3b ec		 cmp	 ebp, esp
  00049	e8 00 00 00 00	 call	 __RTC_CheckEsp
  0004e	8b e5		 mov	 esp, ebp
  00050	5d		 pop	 ebp
  00051	c3		 ret	 0
??1CtrColBase@@QAE@XZ ENDP				; CtrColBase::~CtrColBase
_TEXT	ENDS
PUBLIC	??1BaseColor@@QAE@XZ				; BaseColor::~BaseColor
EXTRN	??3@YAXPAX@Z:NEAR				; operator delete
; Function compile flags: /Odt /RTCsu
;	COMDAT ??_GBaseColor@@QAEPAXI@Z
_TEXT	SEGMENT
_this$ = -4						; size = 4
___flags$ = 8						; size = 4
??_GBaseColor@@QAEPAXI@Z PROC NEAR			; BaseColor::`scalar deleting destructor', COMDAT
; _this$ = ecx
  00000	55		 push	 ebp
  00001	8b ec		 mov	 ebp, esp
  00003	51		 push	 ecx
  00004	c7 45 fc cc cc
	cc cc		 mov	 DWORD PTR [ebp-4], -858993460 ; ccccccccH
  0000b	89 4d fc	 mov	 DWORD PTR _this$[ebp], ecx
  0000e	8b 4d fc	 mov	 ecx, DWORD PTR _this$[ebp]
  00011	e8 00 00 00 00	 call	 ??1BaseColor@@QAE@XZ	; BaseColor::~BaseColor
  00016	8b 45 08	 mov	 eax, DWORD PTR ___flags$[ebp]
  00019	83 e0 01	 and	 eax, 1
  0001c	74 0c		 je	 SHORT $L187112
  0001e	8b 4d fc	 mov	 ecx, DWORD PTR _this$[ebp]
  00021	51		 push	 ecx
  00022	e8 00 00 00 00	 call	 ??3@YAXPAX@Z		; operator delete
  00027	83 c4 04	 add	 esp, 4
$L187112:
  0002a	8b 45 fc	 mov	 eax, DWORD PTR _this$[ebp]
  0002d	83 c4 04	 add	 esp, 4
  00030	3b ec		 cmp	 ebp, esp
  00032	e8 00 00 00 00	 call	 __RTC_CheckEsp
  00037	8b e5		 mov	 esp, ebp
  00039	5d		 pop	 ebp
  0003a	c2 04 00	 ret	 4
??_GBaseColor@@QAEPAXI@Z ENDP				; BaseColor::`scalar deleting destructor'
; Function compile flags: /Odt /RTCsu
_TEXT	ENDS
;	COMDAT ??1BaseColor@@QAE@XZ
_TEXT	SEGMENT
_this$ = -4						; size = 4
??1BaseColor@@QAE@XZ PROC NEAR				; BaseColor::~BaseColor, COMDAT
; _this$ = ecx

; 22   : 	~BaseColor() {};

  00000	55		 push	 ebp
  00001	8b ec		 mov	 ebp, esp
  00003	51		 push	 ecx
  00004	c7 45 fc cc cc
	cc cc		 mov	 DWORD PTR [ebp-4], -858993460 ; ccccccccH
  0000b	89 4d fc	 mov	 DWORD PTR _this$[ebp], ecx
  0000e	8b e5		 mov	 esp, ebp
  00010	5d		 pop	 ebp
  00011	c3		 ret	 0
??1BaseColor@@QAE@XZ ENDP				; BaseColor::~BaseColor
_TEXT	ENDS
PUBLIC	??_ECtrColBase@@QAEPAXI@Z			; CtrColBase::`vector deleting destructor'
EXTRN	??_M@YGXPAXIHP6EX0@Z@Z:NEAR			; `eh vector destructor iterator'
EXTRN	??_V@YAXPAX@Z:NEAR				; operator delete[]
; Function compile flags: /Odt /RTCsu
;	COMDAT ??_ECtrColBase@@QAEPAXI@Z
_TEXT	SEGMENT
_this$ = -4						; size = 4
___flags$ = 8						; size = 4
??_ECtrColBase@@QAEPAXI@Z PROC NEAR			; CtrColBase::`vector deleting destructor', COMDAT
; _this$ = ecx
  00000	55		 push	 ebp
  00001	8b ec		 mov	 ebp, esp
  00003	51		 push	 ecx
  00004	c7 45 fc cc cc
	cc cc		 mov	 DWORD PTR [ebp-4], -858993460 ; ccccccccH
  0000b	89 4d fc	 mov	 DWORD PTR _this$[ebp], ecx
  0000e	8b 45 08	 mov	 eax, DWORD PTR ___flags$[ebp]
  00011	83 e0 02	 and	 eax, 2
  00014	74 36		 je	 SHORT $L187149
  00016	68 00 00 00 00	 push	 OFFSET FLAT:??1CtrColBase@@QAE@XZ ; CtrColBase::~CtrColBase
  0001b	8b 4d fc	 mov	 ecx, DWORD PTR _this$[ebp]
  0001e	8b 51 fc	 mov	 edx, DWORD PTR [ecx-4]
  00021	52		 push	 edx
  00022	6a 28		 push	 40			; 00000028H
  00024	8b 45 fc	 mov	 eax, DWORD PTR _this$[ebp]
  00027	50		 push	 eax
  00028	e8 00 00 00 00	 call	 ??_M@YGXPAXIHP6EX0@Z@Z
  0002d	8b 4d 08	 mov	 ecx, DWORD PTR ___flags$[ebp]
  00030	83 e1 01	 and	 ecx, 1
  00033	74 0f		 je	 SHORT $L187150
  00035	8b 55 fc	 mov	 edx, DWORD PTR _this$[ebp]
  00038	83 ea 04	 sub	 edx, 4
  0003b	52		 push	 edx
  0003c	e8 00 00 00 00	 call	 ??_V@YAXPAX@Z		; operator delete[]
  00041	83 c4 04	 add	 esp, 4
$L187150:
  00044	8b 45 fc	 mov	 eax, DWORD PTR _this$[ebp]
  00047	83 e8 04	 sub	 eax, 4
  0004a	eb 1f		 jmp	 SHORT $L187148
$L187149:
  0004c	8b 4d fc	 mov	 ecx, DWORD PTR _this$[ebp]
  0004f	e8 00 00 00 00	 call	 ??1CtrColBase@@QAE@XZ	; CtrColBase::~CtrColBase
  00054	8b 45 08	 mov	 eax, DWORD PTR ___flags$[ebp]
  00057	83 e0 01	 and	 eax, 1
  0005a	74 0c		 je	 SHORT $L187152
  0005c	8b 4d fc	 mov	 ecx, DWORD PTR _this$[ebp]
  0005f	51		 push	 ecx
  00060	e8 00 00 00 00	 call	 ??3@YAXPAX@Z		; operator delete
  00065	83 c4 04	 add	 esp, 4
$L187152:
  00068	8b 45 fc	 mov	 eax, DWORD PTR _this$[ebp]
$L187148:
  0006b	83 c4 04	 add	 esp, 4
  0006e	3b ec		 cmp	 ebp, esp
  00070	e8 00 00 00 00	 call	 __RTC_CheckEsp
  00075	8b e5		 mov	 esp, ebp
  00077	5d		 pop	 ebp
  00078	c2 04 00	 ret	 4
??_ECtrColBase@@QAEPAXI@Z ENDP				; CtrColBase::`vector deleting destructor'
_TEXT	ENDS
PUBLIC	??1CWndColorMgr@@QAE@XZ				; CWndColorMgr::~CWndColorMgr
; Function compile flags: /Odt /RTCsu
; File d:\boxgit\playbox\playbox\dev\prj\playbox\src\layoutmgr\changecolor\wndcolormgr.cpp
_TEXT	SEGMENT
tv69 = -16						; size = 4
$T187745 = -12						; size = 4
$T187744 = -8						; size = 4
_this$ = -4						; size = 4
??1CWndColorMgr@@QAE@XZ PROC NEAR			; CWndColorMgr::~CWndColorMgr
; _this$ = ecx

; 22   : {

  000c0	55		 push	 ebp
  000c1	8b ec		 mov	 ebp, esp
  000c3	83 ec 10	 sub	 esp, 16			; 00000010H
  000c6	b8 cc cc cc cc	 mov	 eax, -858993460		; ccccccccH
  000cb	89 45 f0	 mov	 DWORD PTR [ebp-16], eax
  000ce	89 45 f4	 mov	 DWORD PTR [ebp-12], eax
  000d1	89 45 f8	 mov	 DWORD PTR [ebp-8], eax
  000d4	89 45 fc	 mov	 DWORD PTR [ebp-4], eax
  000d7	89 4d fc	 mov	 DWORD PTR _this$[ebp], ecx

; 23   : 	if(mpColor)

  000da	8b 45 fc	 mov	 eax, DWORD PTR _this$[ebp]
  000dd	83 38 00	 cmp	 DWORD PTR [eax], 0
  000e0	74 2a		 je	 SHORT $L187157

; 24   : 	{
; 25   : 		delete[] mpColor;

  000e2	8b 4d fc	 mov	 ecx, DWORD PTR _this$[ebp]
  000e5	8b 11		 mov	 edx, DWORD PTR [ecx]
  000e7	89 55 f4	 mov	 DWORD PTR $T187745[ebp], edx
  000ea	8b 45 f4	 mov	 eax, DWORD PTR $T187745[ebp]
  000ed	89 45 f8	 mov	 DWORD PTR $T187744[ebp], eax
  000f0	83 7d f8 00	 cmp	 DWORD PTR $T187744[ebp], 0
  000f4	74 0f		 je	 SHORT $L187746
  000f6	6a 03		 push	 3
  000f8	8b 4d f8	 mov	 ecx, DWORD PTR $T187744[ebp]
  000fb	e8 00 00 00 00	 call	 ??_ECtrColBase@@QAEPAXI@Z
  00100	89 45 f0	 mov	 DWORD PTR tv69[ebp], eax
  00103	eb 07		 jmp	 SHORT $L187157
$L187746:
  00105	c7 45 f0 00 00
	00 00		 mov	 DWORD PTR tv69[ebp], 0
$L187157:

; 26   : 	}
; 27   : 	mpColor = NULL;

  0010c	8b 4d fc	 mov	 ecx, DWORD PTR _this$[ebp]
  0010f	c7 01 00 00 00
	00		 mov	 DWORD PTR [ecx], 0

; 28   : }

  00115	83 c4 10	 add	 esp, 16			; 00000010H
  00118	3b ec		 cmp	 ebp, esp
  0011a	e8 00 00 00 00	 call	 __RTC_CheckEsp
  0011f	8b e5		 mov	 esp, ebp
  00121	5d		 pop	 ebp
  00122	c3		 ret	 0
??1CWndColorMgr@@QAE@XZ ENDP				; CWndColorMgr::~CWndColorMgr
_TEXT	ENDS
PUBLIC	?getColor@CWndColorMgr@@QAEPAUCtrColBase@@I@Z	; CWndColorMgr::getColor
; Function compile flags: /Odt /RTCsu
_TEXT	SEGMENT
_this$ = -4						; size = 4
_aiFaceType$ = 8					; size = 4
?getColor@CWndColorMgr@@QAEPAUCtrColBase@@I@Z PROC NEAR	; CWndColorMgr::getColor
; _this$ = ecx

; 37   : {

  00130	55		 push	 ebp
  00131	8b ec		 mov	 ebp, esp
  00133	51		 push	 ecx
  00134	c7 45 fc cc cc
	cc cc		 mov	 DWORD PTR [ebp-4], -858993460 ; ccccccccH
  0013b	89 4d fc	 mov	 DWORD PTR _this$[ebp], ecx

; 38   : 	return &mpColor[aiFaceType];

  0013e	8b 45 08	 mov	 eax, DWORD PTR _aiFaceType$[ebp]
  00141	6b c0 28	 imul	 eax, 40			; 00000028H
  00144	8b 4d fc	 mov	 ecx, DWORD PTR _this$[ebp]
  00147	03 01		 add	 eax, DWORD PTR [ecx]

; 39   : }

  00149	8b e5		 mov	 esp, ebp
  0014b	5d		 pop	 ebp
  0014c	c2 04 00	 ret	 4
?getColor@CWndColorMgr@@QAEPAUCtrColBase@@I@Z ENDP	; CWndColorMgr::getColor
_TEXT	ENDS
PUBLIC	?setColor@CWndColorMgr@@QAEHI@Z			; CWndColorMgr::setColor
; Function compile flags: /Odt /RTCsu
_TEXT	SEGMENT
_this$ = -4						; size = 4
_aiFaceNum$ = 8						; size = 4
?setColor@CWndColorMgr@@QAEHI@Z PROC NEAR		; CWndColorMgr::setColor
; _this$ = ecx

; 47   : {

  00150	55		 push	 ebp
  00151	8b ec		 mov	 ebp, esp
  00153	51		 push	 ecx
  00154	c7 45 fc cc cc
	cc cc		 mov	 DWORD PTR [ebp-4], -858993460 ; ccccccccH
  0015b	89 4d fc	 mov	 DWORD PTR _this$[ebp], ecx

; 48   : 	return 1;

  0015e	b8 01 00 00 00	 mov	 eax, 1

; 49   : }

  00163	8b e5		 mov	 esp, ebp
  00165	5d		 pop	 ebp
  00166	c2 04 00	 ret	 4
?setColor@CWndColorMgr@@QAEHI@Z ENDP			; CWndColorMgr::setColor
; Function compile flags: /Odt /RTCsu
_this$ = -4						; size = 4
?inIt@CWndColorMgr@@AAEXXZ PROC NEAR			; CWndColorMgr::inIt
; _this$ = ecx

; 51   : {

  00170	55		 push	 ebp
  00171	8b ec		 mov	 ebp, esp
  00173	51		 push	 ecx
  00174	c7 45 fc cc cc
	cc cc		 mov	 DWORD PTR [ebp-4], -858993460 ; ccccccccH
  0017b	89 4d fc	 mov	 DWORD PTR _this$[ebp], ecx

; 52   : 	mpColor[BITMAP_WND].structColEX = 0;

  0017e	8b 45 fc	 mov	 eax, DWORD PTR _this$[ebp]
  00181	8b 08		 mov	 ecx, DWORD PTR [eax]
  00183	c7 41 04 00 00
	00 00		 mov	 DWORD PTR [ecx+4], 0

; 53   : 	mpColor[BITMAP_WND].structColBase->colBK =  RGB(250,250,250);

  0018a	8b 55 fc	 mov	 edx, DWORD PTR _this$[ebp]
  0018d	8b 02		 mov	 eax, DWORD PTR [edx]
  0018f	8b 08		 mov	 ecx, DWORD PTR [eax]
  00191	c7 41 10 fa fa
	fa 00		 mov	 DWORD PTR [ecx+16], 16448250 ; 00fafafaH

; 54   : 	//mpColor[BITMAP_WND].colNormal2 =  RGB(255,255,255);
; 55   : 	mpColor[BITMAP_WND].structColBase->colFrame1 = RGB(109,109,109);

  00198	8b 55 fc	 mov	 edx, DWORD PTR _this$[ebp]
  0019b	8b 02		 mov	 eax, DWORD PTR [edx]
  0019d	8b 08		 mov	 ecx, DWORD PTR [eax]
  0019f	c7 01 6d 6d 6d
	00		 mov	 DWORD PTR [ecx], 7171437 ; 006d6d6dH

; 56   : 
; 57   : 	mpColor[COLOR_WND].structColEX = 0;

  001a5	8b 55 fc	 mov	 edx, DWORD PTR _this$[ebp]
  001a8	8b 02		 mov	 eax, DWORD PTR [edx]
  001aa	c7 40 2c 00 00
	00 00		 mov	 DWORD PTR [eax+44], 0

; 58   : 	mpColor[COLOR_WND].structColBase->colBK =  RGB(250,250,250);

  001b1	8b 4d fc	 mov	 ecx, DWORD PTR _this$[ebp]
  001b4	8b 11		 mov	 edx, DWORD PTR [ecx]
  001b6	8b 42 28	 mov	 eax, DWORD PTR [edx+40]
  001b9	c7 40 10 fa fa
	fa 00		 mov	 DWORD PTR [eax+16], 16448250 ; 00fafafaH

; 59   : 	//mpColor[COLOR_WND].colNormal2 =  RGB(255,255,255);
; 60   : 	mpColor[COLOR_WND].structColBase->colFrame1 = RGB(109,109,109);

  001c0	8b 4d fc	 mov	 ecx, DWORD PTR _this$[ebp]
  001c3	8b 11		 mov	 edx, DWORD PTR [ecx]
  001c5	8b 42 28	 mov	 eax, DWORD PTR [edx+40]
  001c8	c7 00 6d 6d 6d
	00		 mov	 DWORD PTR [eax], 7171437 ; 006d6d6dH

; 61   : 
; 62   : 	mpColor[TABLE_CTROL].structColEX = 0;

  001ce	8b 4d fc	 mov	 ecx, DWORD PTR _this$[ebp]
  001d1	8b 11		 mov	 edx, DWORD PTR [ecx]
  001d3	c7 42 54 00 00
	00 00		 mov	 DWORD PTR [edx+84], 0

; 63   : 	mpColor[TABLE_CTROL].structColBase->colFont = RGB(0,0,0);

  001da	8b 45 fc	 mov	 eax, DWORD PTR _this$[ebp]
  001dd	8b 08		 mov	 ecx, DWORD PTR [eax]
  001df	8b 51 50	 mov	 edx, DWORD PTR [ecx+80]
  001e2	c7 42 0c 00 00
	00 00		 mov	 DWORD PTR [edx+12], 0

; 64   : 	mpColor[TABLE_CTROL].structColBase->colBK = RGB(250,250,250);

  001e9	8b 45 fc	 mov	 eax, DWORD PTR _this$[ebp]
  001ec	8b 08		 mov	 ecx, DWORD PTR [eax]
  001ee	8b 51 50	 mov	 edx, DWORD PTR [ecx+80]
  001f1	c7 42 10 fa fa
	fa 00		 mov	 DWORD PTR [edx+16], 16448250 ; 00fafafaH

; 65   : 	mpColor[TABLE_CTROL].colNormal1 =  RGB(222,222,222);

  001f8	8b 45 fc	 mov	 eax, DWORD PTR _this$[ebp]
  001fb	8b 08		 mov	 ecx, DWORD PTR [eax]
  001fd	c7 41 58 de de
	de 00		 mov	 DWORD PTR [ecx+88], 14606046 ; 00dededeH

; 66   : 	mpColor[TABLE_CTROL].colNormal2 =  RGB(235,235,235);

  00204	8b 55 fc	 mov	 edx, DWORD PTR _this$[ebp]
  00207	8b 02		 mov	 eax, DWORD PTR [edx]
  00209	c7 40 5c eb eb
	eb 00		 mov	 DWORD PTR [eax+92], 15461355 ; 00ebebebH

; 67   : 	mpColor[TABLE_CTROL].colDown1 = RGB(230,230,230);

  00210	8b 4d fc	 mov	 ecx, DWORD PTR _this$[ebp]
  00213	8b 11		 mov	 edx, DWORD PTR [ecx]
  00215	c7 42 68 e6 e6
	e6 00		 mov	 DWORD PTR [edx+104], 15132390 ; 00e6e6e6H

; 68   : 	mpColor[TABLE_CTROL].colDown2 =  RGB(250,250,250);

  0021c	8b 45 fc	 mov	 eax, DWORD PTR _this$[ebp]
  0021f	8b 08		 mov	 ecx, DWORD PTR [eax]
  00221	c7 41 6c fa fa
	fa 00		 mov	 DWORD PTR [ecx+108], 16448250 ; 00fafafaH

; 69   : 	mpColor[TABLE_CTROL].structColBase->colFrame1 = RGB(109,109,109);

  00228	8b 55 fc	 mov	 edx, DWORD PTR _this$[ebp]
  0022b	8b 02		 mov	 eax, DWORD PTR [edx]
  0022d	8b 48 50	 mov	 ecx, DWORD PTR [eax+80]
  00230	c7 01 6d 6d 6d
	00		 mov	 DWORD PTR [ecx], 7171437 ; 006d6d6dH

; 70   : 
; 71   : 	mpColor[SCROLLBAR_CTROL].colNormal1 = 0xfbfbfb;

  00236	8b 55 fc	 mov	 edx, DWORD PTR _this$[ebp]
  00239	8b 02		 mov	 eax, DWORD PTR [edx]
  0023b	c7 80 80 00 00
	00 fb fb fb 00	 mov	 DWORD PTR [eax+128], 16514043 ; 00fbfbfbH

; 72   : 	mpColor[SCROLLBAR_CTROL].colNormal2 = 0xe9e9e9;

  00245	8b 4d fc	 mov	 ecx, DWORD PTR _this$[ebp]
  00248	8b 11		 mov	 edx, DWORD PTR [ecx]
  0024a	c7 82 84 00 00
	00 e9 e9 e9 00	 mov	 DWORD PTR [edx+132], 15329769 ; 00e9e9e9H

; 73   : 	mpColor[SCROLLBAR_CTROL].colEnter1 = 0xfcfbf6;

  00254	8b 45 fc	 mov	 eax, DWORD PTR _this$[ebp]
  00257	8b 08		 mov	 ecx, DWORD PTR [eax]
  00259	c7 81 88 00 00
	00 f6 fb fc 00	 mov	 DWORD PTR [ecx+136], 16579574 ; 00fcfbf6H

; 74   : 	mpColor[SCROLLBAR_CTROL].colEnter2 = 0xebeae4;

  00263	8b 55 fc	 mov	 edx, DWORD PTR _this$[ebp]
  00266	8b 02		 mov	 eax, DWORD PTR [edx]
  00268	c7 80 8c 00 00
	00 e4 ea eb 00	 mov	 DWORD PTR [eax+140], 15461092 ; 00ebeae4H

; 75   : 	mpColor[SCROLLBAR_CTROL].colDown1 = 0xebeae4;

  00272	8b 4d fc	 mov	 ecx, DWORD PTR _this$[ebp]
  00275	8b 11		 mov	 edx, DWORD PTR [ecx]
  00277	c7 82 90 00 00
	00 e4 ea eb 00	 mov	 DWORD PTR [edx+144], 15461092 ; 00ebeae4H

; 76   : 	mpColor[SCROLLBAR_CTROL].colDown2 = 0xfcfbf6;

  00281	8b 45 fc	 mov	 eax, DWORD PTR _this$[ebp]
  00284	8b 08		 mov	 ecx, DWORD PTR [eax]
  00286	c7 81 94 00 00
	00 f6 fb fc 00	 mov	 DWORD PTR [ecx+148], 16579574 ; 00fcfbf6H

; 77   : 	mpColor[SCROLLBAR_CTROL].structColBase->colFrame1 =0xb6b6b6;

  00290	8b 55 fc	 mov	 edx, DWORD PTR _this$[ebp]
  00293	8b 02		 mov	 eax, DWORD PTR [edx]
  00295	8b 48 78	 mov	 ecx, DWORD PTR [eax+120]
  00298	c7 01 b6 b6 b6
	00		 mov	 DWORD PTR [ecx], 11974326 ; 00b6b6b6H

; 78   : 	mpColor[SCROLLBAR_CTROL].structColBase->colFrame2 =0xf8f8f8;

  0029e	8b 55 fc	 mov	 edx, DWORD PTR _this$[ebp]
  002a1	8b 02		 mov	 eax, DWORD PTR [edx]
  002a3	8b 48 78	 mov	 ecx, DWORD PTR [eax+120]
  002a6	c7 41 04 f8 f8
	f8 00		 mov	 DWORD PTR [ecx+4], 16316664 ; 00f8f8f8H

; 79   : 	mpColor[SCROLLBAR_CTROL].colDisable1 = 0xf7f3f3; // 用做按扭颜色

  002ad	8b 55 fc	 mov	 edx, DWORD PTR _this$[ebp]
  002b0	8b 02		 mov	 eax, DWORD PTR [edx]
  002b2	c7 80 98 00 00
	00 f3 f3 f7 00	 mov	 DWORD PTR [eax+152], 16249843 ; 00f7f3f3H

; 80   : 	mpColor[SCROLLBAR_CTROL].colDisable2 = 0xd7d2c5;

  002bc	8b 4d fc	 mov	 ecx, DWORD PTR _this$[ebp]
  002bf	8b 11		 mov	 edx, DWORD PTR [ecx]
  002c1	c7 82 9c 00 00
	00 c5 d2 d7 00	 mov	 DWORD PTR [edx+156], 14144197 ; 00d7d2c5H

; 81   : 	mpColor[SCROLLBAR_CTROL].structColBase->colFont =0x5a5956;

  002cb	8b 45 fc	 mov	 eax, DWORD PTR _this$[ebp]
  002ce	8b 08		 mov	 ecx, DWORD PTR [eax]
  002d0	8b 51 78	 mov	 edx, DWORD PTR [ecx+120]
  002d3	c7 42 0c 56 59
	5a 00		 mov	 DWORD PTR [edx+12], 5921110 ; 005a5956H

; 82   : 	mpColor[SCROLLBAR_CTROL].structColBase->colBK = 0x837654;

  002da	8b 45 fc	 mov	 eax, DWORD PTR _this$[ebp]
  002dd	8b 08		 mov	 ecx, DWORD PTR [eax]
  002df	8b 51 78	 mov	 edx, DWORD PTR [ecx+120]
  002e2	c7 42 10 54 76
	83 00		 mov	 DWORD PTR [edx+16], 8615508 ; 00837654H

; 83   : 
; 84   : 	mpColor[BITMAP_CTROL].structColEX  = 0;

  002e9	8b 45 fc	 mov	 eax, DWORD PTR _this$[ebp]
  002ec	8b 08		 mov	 ecx, DWORD PTR [eax]
  002ee	c7 81 a4 00 00
	00 00 00 00 00	 mov	 DWORD PTR [ecx+164], 0

; 85   : 	mpColor[BITMAP_CTROL].structColBase->colFont =   RGB(4,4,4);

  002f8	8b 55 fc	 mov	 edx, DWORD PTR _this$[ebp]
  002fb	8b 02		 mov	 eax, DWORD PTR [edx]
  002fd	8b 88 a0 00 00
	00		 mov	 ecx, DWORD PTR [eax+160]
  00303	c7 41 0c 04 04
	04 00		 mov	 DWORD PTR [ecx+12], 263172 ; 00040404H

; 86   : 	mpColor[BITMAP_CTROL].structColBase->colFrame1 = RGB(250,250,250);

  0030a	8b 55 fc	 mov	 edx, DWORD PTR _this$[ebp]
  0030d	8b 02		 mov	 eax, DWORD PTR [edx]
  0030f	8b 88 a0 00 00
	00		 mov	 ecx, DWORD PTR [eax+160]
  00315	c7 01 fa fa fa
	00		 mov	 DWORD PTR [ecx], 16448250 ; 00fafafaH

; 87   : 	mpColor[BITMAP_CTROL].structColBase->colFrame2 = RGB(225,150,0);

  0031b	8b 55 fc	 mov	 edx, DWORD PTR _this$[ebp]
  0031e	8b 02		 mov	 eax, DWORD PTR [edx]
  00320	8b 88 a0 00 00
	00		 mov	 ecx, DWORD PTR [eax+160]
  00326	c7 41 04 e1 96
	00 00		 mov	 DWORD PTR [ecx+4], 38625 ; 000096e1H

; 88   : 
; 89   : 	mpColor[COLOL_CTROL].structColEX  = 0;

  0032d	8b 55 fc	 mov	 edx, DWORD PTR _this$[ebp]
  00330	8b 02		 mov	 eax, DWORD PTR [edx]
  00332	c7 80 cc 00 00
	00 00 00 00 00	 mov	 DWORD PTR [eax+204], 0

; 90   : 	mpColor[COLOL_CTROL].structColBase->colFont   = RGB(4,4,4);

  0033c	8b 4d fc	 mov	 ecx, DWORD PTR _this$[ebp]
  0033f	8b 11		 mov	 edx, DWORD PTR [ecx]
  00341	8b 82 c8 00 00
	00		 mov	 eax, DWORD PTR [edx+200]
  00347	c7 40 0c 04 04
	04 00		 mov	 DWORD PTR [eax+12], 263172 ; 00040404H

; 91   : 	mpColor[COLOL_CTROL].structColBase->colFrame1 = RGB(250,250,250);

  0034e	8b 4d fc	 mov	 ecx, DWORD PTR _this$[ebp]
  00351	8b 11		 mov	 edx, DWORD PTR [ecx]
  00353	8b 82 c8 00 00
	00		 mov	 eax, DWORD PTR [edx+200]
  00359	c7 00 fa fa fa
	00		 mov	 DWORD PTR [eax], 16448250 ; 00fafafaH

; 92   : 	mpColor[COLOL_CTROL].structColBase->colFrame2 = RGB(255,106,0);//RGB(225,150,0);

  0035f	8b 4d fc	 mov	 ecx, DWORD PTR _this$[ebp]
  00362	8b 11		 mov	 edx, DWORD PTR [ecx]
  00364	8b 82 c8 00 00
	00		 mov	 eax, DWORD PTR [edx+200]
  0036a	c7 40 04 ff 6a
	00 00		 mov	 DWORD PTR [eax+4], 27391 ; 00006affH

; 93   : 
; 94   : 	mpColor[SLIDER_CTROL].structColBase->colFrame1 = RGB(0,0,0); 

  00371	8b 4d fc	 mov	 ecx, DWORD PTR _this$[ebp]
  00374	8b 11		 mov	 edx, DWORD PTR [ecx]
  00376	8b 82 f0 00 00
	00		 mov	 eax, DWORD PTR [edx+240]
  0037c	c7 00 00 00 00
	00		 mov	 DWORD PTR [eax], 0

; 95   : 	mpColor[SLIDER_CTROL].structColBase->colFont    = RGB(109,109,109);

  00382	8b 4d fc	 mov	 ecx, DWORD PTR _this$[ebp]
  00385	8b 11		 mov	 edx, DWORD PTR [ecx]
  00387	8b 82 f0 00 00
	00		 mov	 eax, DWORD PTR [edx+240]
  0038d	c7 40 0c 6d 6d
	6d 00		 mov	 DWORD PTR [eax+12], 7171437 ; 006d6d6dH

; 96   : 
; 97   : 
; 98   : }

  00394	8b e5		 mov	 esp, ebp
  00396	5d		 pop	 ebp
  00397	c3		 ret	 0
?inIt@CWndColorMgr@@AAEXXZ ENDP				; CWndColorMgr::inIt
_TEXT	ENDS
EXTRN	_atexit:NEAR
CRT$XCU	SEGMENT
_$S7	DD	FLAT:_$E5
; Function compile flags: /Odt /RTCsu
CRT$XCU	ENDS
;	COMDAT _$E5
text$yc	SEGMENT
_$E5	PROC NEAR					; COMDAT

; 99   :  CWndColorMgr   gWndColor;

  00000	55		 push	 ebp
  00001	8b ec		 mov	 ebp, esp
  00003	b9 00 00 00 00	 mov	 ecx, OFFSET FLAT:?gWndColor@@3VCWndColorMgr@@A ; gWndColor
  00008	e8 00 00 00 00	 call	 ??0CWndColorMgr@@QAE@XZ	; CWndColorMgr::CWndColorMgr
  0000d	68 00 00 00 00	 push	 OFFSET FLAT:_$E6
  00012	e8 00 00 00 00	 call	 _atexit
  00017	83 c4 04	 add	 esp, 4
  0001a	3b ec		 cmp	 ebp, esp
  0001c	e8 00 00 00 00	 call	 __RTC_CheckEsp
  00021	5d		 pop	 ebp
  00022	c3		 ret	 0
_$E5	ENDP
; Function compile flags: /Odt /RTCsu
text$yc	ENDS
;	COMDAT _$E6
text$yd	SEGMENT
_$E6	PROC NEAR					; COMDAT
  00000	55		 push	 ebp
  00001	8b ec		 mov	 ebp, esp
  00003	b9 00 00 00 00	 mov	 ecx, OFFSET FLAT:?gWndColor@@3VCWndColorMgr@@A ; gWndColor
  00008	e8 00 00 00 00	 call	 ??1CWndColorMgr@@QAE@XZ	; CWndColorMgr::~CWndColorMgr
  0000d	3b ec		 cmp	 ebp, esp
  0000f	e8 00 00 00 00	 call	 __RTC_CheckEsp
  00014	5d		 pop	 ebp
  00015	c3		 ret	 0
_$E6	ENDP
text$yd	ENDS
PUBLIC	?gWndColor@@3VCWndColorMgr@@A			; gWndColor
_BSS	SEGMENT
?gWndColor@@3VCWndColorMgr@@A DD 01H DUP (?)		; gWndColor
_BSS	ENDS
END
