; Listing generated by Microsoft (R) Optimizing Compiler Version 13.10.3077 

	TITLE	.\src\Gui\util\WToolTips.cpp
	.386P
include listing.inc
if @Version gt 510
.model FLAT
else
_TEXT	SEGMENT PARA USE32 PUBLIC 'CODE'
_TEXT	ENDS
_DATA	SEGMENT DWORD USE32 PUBLIC 'DATA'
_DATA	ENDS
CONST	SEGMENT DWORD USE32 PUBLIC 'CONST'
CONST	ENDS
_BSS	SEGMENT DWORD USE32 PUBLIC 'BSS'
_BSS	ENDS
$$SYMBOLS	SEGMENT BYTE USE32 'DEBSYM'
$$SYMBOLS	ENDS
_TLS	SEGMENT DWORD USE32 PUBLIC 'TLS'
_TLS	ENDS
;	COMDAT ??_C@_0M@GOJCFFEC@iStart?5?$DO?$DN?50?$AA@
CONST	SEGMENT DWORD USE32 PUBLIC 'CONST'
CONST	ENDS
;	COMDAT ??_C@_0BL@PKIBFLAK@AtlIsValidString?$CI?5pszSub?5?$CJ?$AA@
CONST	SEGMENT DWORD USE32 PUBLIC 'CONST'
CONST	ENDS
;	COMDAT ??_C@_0EN@IBFBLEEG@D?3?2Program?5Files?5?$CIx86?$CJ?2Microsoft@
CONST	SEGMENT DWORD USE32 PUBLIC 'CONST'
CONST	ENDS
rdata$r	SEGMENT DWORD USE32 PUBLIC 'CONST'
rdata$r	ENDS
xdata$x	SEGMENT DWORD USE32 PUBLIC 'CONST'
xdata$x	ENDS
text$AFX_COL1	SEGMENT PARA USE32 PUBLIC ''
text$AFX_COL1	ENDS
text$yc	SEGMENT PARA USE32 PUBLIC 'CODE'
text$yc	ENDS
CRT$XCA	SEGMENT DWORD USE32 PUBLIC 'DATA'
CRT$XCA	ENDS
CRT$XCU	SEGMENT DWORD USE32 PUBLIC 'DATA'
CRT$XCU	ENDS
CRT$XCL	SEGMENT DWORD USE32 PUBLIC 'DATA'
CRT$XCL	ENDS
CRT$XCC	SEGMENT DWORD USE32 PUBLIC 'DATA'
CRT$XCC	ENDS
CRT$XCZ	SEGMENT DWORD USE32 PUBLIC 'DATA'
CRT$XCZ	ENDS
text$yd	SEGMENT PARA USE32 PUBLIC 'CODE'
text$yd	ENDS
ATL$__m	SEGMENT DWORD USE32 PUBLIC ''
ATL$__m	ENDS
ATL$__z	SEGMENT DWORD USE32 PUBLIC ''
ATL$__z	ENDS
ATL$__a	SEGMENT DWORD USE32 PUBLIC ''
ATL$__a	ENDS
;	COMDAT ??_GCCWToolTips@@UAEPAXI@Z
_TEXT	SEGMENT PARA USE32 PUBLIC 'CODE'
_TEXT	ENDS
;	COMDAT ??B?$CComPtrBase@UITypeInfo2@@@ATL@@QBEPAUITypeInfo2@@XZ
_TEXT	SEGMENT PARA USE32 PUBLIC 'CODE'
_TEXT	ENDS
;	COMDAT ?equal@?$istreambuf_iterator@DU?$char_traits@D@std@@@std@@QBE_NABV12@@Z
_TEXT	SEGMENT PARA USE32 PUBLIC 'CODE'
_TEXT	ENDS
;	COMDAT ?equal@?$istreambuf_iterator@_WU?$char_traits@_W@std@@@std@@QBE_NABV12@@Z
_TEXT	SEGMENT PARA USE32 PUBLIC 'CODE'
_TEXT	ENDS
;	COMDAT ?StringFindString@?$ChTraitsCRT@D@ATL@@SAPBDPBD0@Z
_TEXT	SEGMENT PARA USE32 PUBLIC 'CODE'
_TEXT	ENDS
;	COMDAT ?Unlock@?$CComCritSecLock@VCComCriticalSection@ATL@@@ATL@@QAEXXZ
_TEXT	SEGMENT PARA USE32 PUBLIC 'CODE'
_TEXT	ENDS
;	COMDAT ??$_Maklocstr@D@std@@YAPADPBDPADABU_Cvtvec@@@Z
_TEXT	SEGMENT PARA USE32 PUBLIC 'CODE'
_TEXT	ENDS
;	COMDAT ??_R3CCWToolTips@@8
rdata$r	SEGMENT DWORD USE32 PUBLIC 'CONST'
rdata$r	ENDS
;	COMDAT ??_R3?$numpunct@_W@std@@8
rdata$r	SEGMENT DWORD USE32 PUBLIC 'CONST'
rdata$r	ENDS
;	COMDAT ??_R3?$numpunct@D@std@@8
rdata$r	SEGMENT DWORD USE32 PUBLIC 'CONST'
rdata$r	ENDS
;	COMDAT ??_R2CCWToolTips@@8
rdata$r	SEGMENT DWORD USE32 PUBLIC 'CONST'
rdata$r	ENDS
;	COMDAT ??_R2?$numpunct@_W@std@@8
rdata$r	SEGMENT DWORD USE32 PUBLIC 'CONST'
rdata$r	ENDS
;	COMDAT ??_R2?$numpunct@D@std@@8
rdata$r	SEGMENT DWORD USE32 PUBLIC 'CONST'
rdata$r	ENDS
;	COMDAT ??_R1A@?0A@A@CObject@@8
rdata$r	SEGMENT DWORD USE32 PUBLIC 'CONST'
rdata$r	ENDS
;	COMDAT ??_R0?AVCObject@@@8
_DATA	SEGMENT DWORD USE32 PUBLIC 'DATA'
_DATA	ENDS
;	COMDAT ??_R1A@?0A@A@CCmdTarget@@8
rdata$r	SEGMENT DWORD USE32 PUBLIC 'CONST'
rdata$r	ENDS
;	COMDAT ??_R0?AVCCmdTarget@@@8
_DATA	SEGMENT DWORD USE32 PUBLIC 'DATA'
_DATA	ENDS
;	COMDAT ??_R1A@?0A@A@CWnd@@8
rdata$r	SEGMENT DWORD USE32 PUBLIC 'CONST'
rdata$r	ENDS
;	COMDAT ??_R0?AVCWnd@@@8
_DATA	SEGMENT DWORD USE32 PUBLIC 'DATA'
_DATA	ENDS
;	COMDAT ??_R1A@?0A@A@CCWToolTips@@8
rdata$r	SEGMENT DWORD USE32 PUBLIC 'CONST'
rdata$r	ENDS
;	COMDAT ??_R1A@?0A@A@?$numpunct@_W@std@@8
rdata$r	SEGMENT DWORD USE32 PUBLIC 'CONST'
rdata$r	ENDS
;	COMDAT ??_R1A@?0A@A@facet@locale@std@@8
rdata$r	SEGMENT DWORD USE32 PUBLIC 'CONST'
rdata$r	ENDS
;	COMDAT ??_R0?AVfacet@locale@std@@@8
_DATA	SEGMENT DWORD USE32 PUBLIC 'DATA'
_DATA	ENDS
;	COMDAT ??_R1A@?0A@A@?$numpunct@D@std@@8
rdata$r	SEGMENT DWORD USE32 PUBLIC 'CONST'
rdata$r	ENDS
;	COMDAT ??_R0?AVCCWToolTips@@@8
_DATA	SEGMENT DWORD USE32 PUBLIC 'DATA'
_DATA	ENDS
;	COMDAT ??_R0?AV?$numpunct@_W@std@@@8
_DATA	SEGMENT DWORD USE32 PUBLIC 'DATA'
_DATA	ENDS
;	COMDAT ??_R0?AV?$numpunct@D@std@@@8
_DATA	SEGMENT DWORD USE32 PUBLIC 'DATA'
_DATA	ENDS
;	COMDAT ??_R4CCWToolTips@@6B@
rdata$r	SEGMENT DWORD USE32 PUBLIC 'CONST'
rdata$r	ENDS
;	COMDAT ??0?$allocator@_W@std@@QAE@XZ
_TEXT	SEGMENT PARA USE32 PUBLIC 'CODE'
_TEXT	ENDS
;	COMDAT ??0?$allocator@D@std@@QAE@ABV01@@Z
_TEXT	SEGMENT PARA USE32 PUBLIC 'CODE'
_TEXT	ENDS
;	COMDAT ??0?$allocator@D@std@@QAE@XZ
_TEXT	SEGMENT PARA USE32 PUBLIC 'CODE'
_TEXT	ENDS
;	COMDAT ?deallocate@?$allocator@D@std@@QAEXPADI@Z
_TEXT	SEGMENT PARA USE32 PUBLIC 'CODE'
_TEXT	ENDS
;	COMDAT ?max_size@?$allocator@D@std@@QBEIXZ
_TEXT	SEGMENT PARA USE32 PUBLIC 'CODE'
_TEXT	ENDS
;	COMDAT ?allocate@?$allocator@D@std@@QAEPADI@Z
_TEXT	SEGMENT PARA USE32 PUBLIC 'CODE'
_TEXT	ENDS
;	COMDAT ??$_Allocate@D@std@@YAPADIPAD@Z
_TEXT	SEGMENT PARA USE32 PUBLIC 'CODE'
_TEXT	ENDS
;	COMDAT ??_G?$numpunct@_W@std@@MAEPAXI@Z
_TEXT	SEGMENT PARA USE32 PUBLIC 'CODE'
_TEXT	ENDS
;	COMDAT ??_R4?$numpunct@_W@std@@6B@
rdata$r	SEGMENT DWORD USE32 PUBLIC 'CONST'
rdata$r	ENDS
;	COMDAT ??_G?$numpunct@D@std@@MAEPAXI@Z
_TEXT	SEGMENT PARA USE32 PUBLIC 'CODE'
_TEXT	ENDS
;	COMDAT ??_R4?$numpunct@D@std@@6B@
rdata$r	SEGMENT DWORD USE32 PUBLIC 'CONST'
rdata$r	ENDS
;	COMDAT ??_C@_0EN@CBMLGOH@D?3?2Program?5Files?5?$CIx86?$CJ?2Microsoft@
CONST	SEGMENT DWORD USE32 PUBLIC 'CONST'
CONST	ENDS
;	COMDAT ?_Psave@?$_Facetptr@V?$numpunct@_W@std@@@std@@2PBVfacet@locale@2@B
_DATA	SEGMENT DWORD USE32 PUBLIC 'DATA'
_DATA	ENDS
;	COMDAT ?_Psave@?$_Facetptr@V?$numpunct@D@std@@@std@@2PBVfacet@locale@2@B
_DATA	SEGMENT DWORD USE32 PUBLIC 'DATA'
_DATA	ENDS
;	COMDAT ?Unlock@CComCriticalSection@ATL@@QAEJXZ
_TEXT	SEGMENT PARA USE32 PUBLIC 'CODE'
_TEXT	ENDS
;	COMDAT ??_C@_0FG@LDNDNCJM@D?3?2Program?5Files?5?$CIx86?$CJ?2Microsoft@
CONST	SEGMENT DWORD USE32 PUBLIC 'CONST'
CONST	ENDS
;	COMDAT ??_C@_09HIEJFN@m_bLocked?$AA@
CONST	SEGMENT DWORD USE32 PUBLIC 'CONST'
CONST	ENDS
;	COMDAT ?_Psave@?$_Facetptr@V?$ctype@_W@std@@@std@@2PBVfacet@locale@2@B
_DATA	SEGMENT DWORD USE32 PUBLIC 'DATA'
_DATA	ENDS
;	COMDAT ?_Psave@?$_Facetptr@V?$ctype@D@std@@@std@@2PBVfacet@locale@2@B
_DATA	SEGMENT DWORD USE32 PUBLIC 'DATA'
_DATA	ENDS
;	COMDAT ??$_Maklocchr@_W@std@@YA_WDPA_WABU_Cvtvec@@@Z
_TEXT	SEGMENT PARA USE32 PUBLIC 'CODE'
_TEXT	ENDS
;	COMDAT ??$_DebugHeapDelete@X@std@@YAXPAX@Z
_TEXT	SEGMENT PARA USE32 PUBLIC 'CODE'
_TEXT	ENDS
;	COMDAT ??$_Maklocstr@_W@std@@YAPA_WPBDPA_WABU_Cvtvec@@@Z
_TEXT	SEGMENT PARA USE32 PUBLIC 'CODE'
_TEXT	ENDS
;	COMDAT ??$_Maklocchr@D@std@@YADDPADABU_Cvtvec@@@Z
_TEXT	SEGMENT PARA USE32 PUBLIC 'CODE'
_TEXT	ENDS
;	COMDAT ??_C@_04LOAJBDKD@true?$AA@
CONST	SEGMENT DWORD USE32 PUBLIC 'CONST'
CONST	ENDS
;	COMDAT ??_C@_05LAPONLG@false?$AA@
CONST	SEGMENT DWORD USE32 PUBLIC 'CONST'
CONST	ENDS
;	COMDAT _wmemcpy
_TEXT	SEGMENT PARA USE32 PUBLIC 'CODE'
_TEXT	ENDS
;	COMDAT ?max_size@?$allocator@_W@std@@QBEIXZ
_TEXT	SEGMENT PARA USE32 PUBLIC 'CODE'
_TEXT	ENDS
;	COMDAT ?allocate@?$allocator@_W@std@@QAEPA_WI@Z
_TEXT	SEGMENT PARA USE32 PUBLIC 'CODE'
_TEXT	ENDS
;	COMDAT ??$_Allocate@_W@std@@YAPA_WIPA_W@Z
_TEXT	SEGMENT PARA USE32 PUBLIC 'CODE'
_TEXT	ENDS
;	COMDAT ??_C@_0N@ILOMLJGA@nLength?5?$DO?$DN?50?$AA@
CONST	SEGMENT DWORD USE32 PUBLIC 'CONST'
CONST	ENDS
;	COMDAT ??_C@_0CD@EEFFJEGJ@nLength?5?$DM?$DN?5GetData?$CI?$CJ?9?$DOnAllocLeng@
CONST	SEGMENT DWORD USE32 PUBLIC 'CONST'
CONST	ENDS
;	COMDAT ?data@CStringData@ATL@@QAEPAXXZ
_TEXT	SEGMENT PARA USE32 PUBLIC 'CODE'
_TEXT	ENDS
;	COMDAT ?AtlThrow@ATL@@YGXJ@Z
_TEXT	SEGMENT PARA USE32 PUBLIC 'CODE'
_TEXT	ENDS
;	COMDAT ??RCTraceFileAndLineInfo@ATL@@QBAXKIPBDZZ
_TEXT	SEGMENT PARA USE32 PUBLIC 'CODE'
_TEXT	ENDS
;	COMDAT ?TraceV@CTrace@ATL@@QBAXPBDHKI0PAD@Z
_TEXT	SEGMENT PARA USE32 PUBLIC 'CODE'
_TEXT	ENDS
;	COMDAT ??0CTraceFileAndLineInfo@ATL@@QAE@PBDH@Z
_TEXT	SEGMENT PARA USE32 PUBLIC 'CODE'
_TEXT	ENDS
;	COMDAT ??_C@_0FI@NHHJANPC@D?3?2Program?5Files?5?$CIx86?$CJ?2Microsoft@
CONST	SEGMENT DWORD USE32 PUBLIC 'CONST'
CONST	ENDS
;	COMDAT ??_C@_0BF@IAAKIJDJ@AtlThrow?3?5hr?5?$DN?50x?$CFx?6?$AA@
CONST	SEGMENT DWORD USE32 PUBLIC 'CONST'
CONST	ENDS
;	COMDAT ??BCTraceCategory@ATL@@QBEKXZ
_TEXT	SEGMENT PARA USE32 PUBLIC 'CODE'
_TEXT	ENDS
;	COMDAT ??_C@_0FJ@DMHPDOJC@D?3?2Program?5Files?5?$CIx86?$CJ?2Microsoft@
CONST	SEGMENT DWORD USE32 PUBLIC 'CONST'
CONST	ENDS
;	COMDAT ??_C@_0BA@GOIMFHNK@pStringMgr?5?$CB?$DN?50?$AA@
CONST	SEGMENT DWORD USE32 PUBLIC 'CONST'
CONST	ENDS
;	COMDAT ??_C@_01GFHCPBMG@C?$AA@
CONST	SEGMENT DWORD USE32 PUBLIC 'CONST'
CONST	ENDS
;	COMDAT ?Release@CStringData@ATL@@QAEXXZ
_TEXT	SEGMENT PARA USE32 PUBLIC 'CODE'
_TEXT	ENDS
;	COMDAT ??_C@_0L@OIIMFBNE@nRefs?5?$CB?$DN?50?$AA@
CONST	SEGMENT DWORD USE32 PUBLIC 'CONST'
CONST	ENDS
;	COMDAT ?_Peek@?$istreambuf_iterator@_WU?$char_traits@_W@std@@@std@@AAE_WXZ
_TEXT	SEGMENT PARA USE32 PUBLIC 'CODE'
_TEXT	ENDS
;	COMDAT ?_Peek@?$istreambuf_iterator@DU?$char_traits@D@std@@@std@@AAEDXZ
_TEXT	SEGMENT PARA USE32 PUBLIC 'CODE'
_TEXT	ENDS
;	COMDAT ??$use_facet@V?$ctype@_W@std@@@std@@YAABV?$ctype@_W@0@ABVlocale@0@@Z
_TEXT	SEGMENT PARA USE32 PUBLIC 'CODE'
_TEXT	ENDS
;	COMDAT ??_S?$ctype@_W@std@@6B@
CONST	SEGMENT DWORD USE32 PUBLIC 'CONST'
CONST	ENDS
;	COMDAT ??_R4?$ctype@_W@std@@6B@
rdata$r	SEGMENT DWORD USE32 PUBLIC 'CONST'
rdata$r	ENDS
;	COMDAT ??_R0?AV?$ctype@_W@std@@@8
_DATA	SEGMENT DWORD USE32 PUBLIC 'DATA'
_DATA	ENDS
;	COMDAT ??_R3?$ctype@_W@std@@8
rdata$r	SEGMENT DWORD USE32 PUBLIC 'CONST'
rdata$r	ENDS
;	COMDAT ??_R2?$ctype@_W@std@@8
rdata$r	SEGMENT DWORD USE32 PUBLIC 'CONST'
rdata$r	ENDS
;	COMDAT ??_R1A@?0A@A@?$ctype@_W@std@@8
rdata$r	SEGMENT DWORD USE32 PUBLIC 'CONST'
rdata$r	ENDS
;	COMDAT ??_R1A@?0A@A@ctype_base@std@@8
rdata$r	SEGMENT DWORD USE32 PUBLIC 'CONST'
rdata$r	ENDS
;	COMDAT ??_R0?AUctype_base@std@@@8
_DATA	SEGMENT DWORD USE32 PUBLIC 'DATA'
_DATA	ENDS
;	COMDAT ??_G?$ctype@_W@std@@MAEPAXI@Z
_TEXT	SEGMENT PARA USE32 PUBLIC 'CODE'
_TEXT	ENDS
;	COMDAT ??_C@_08EPJLHIJG@bad?5cast?$AA@
CONST	SEGMENT DWORD USE32 PUBLIC 'CONST'
CONST	ENDS
;	COMDAT __TI2?AVbad_cast@@
xdata$x	SEGMENT DWORD USE32 PUBLIC 'CONST'
xdata$x	ENDS
;	COMDAT __CTA2?AVbad_cast@@
xdata$x	SEGMENT DWORD USE32 PUBLIC 'CONST'
xdata$x	ENDS
;	COMDAT __CT??_R0?AVbad_cast@@@8??0bad_cast@@QAE@ABV0@@Z12
xdata$x	SEGMENT DWORD USE32 PUBLIC 'CONST'
xdata$x	ENDS
;	COMDAT ??_R0?AVbad_cast@@@8
_DATA	SEGMENT DWORD USE32 PUBLIC 'DATA'
_DATA	ENDS
;	COMDAT __CT??_R0?AVexception@@@8??0exception@@QAE@ABV0@@Z12
xdata$x	SEGMENT DWORD USE32 PUBLIC 'CONST'
xdata$x	ENDS
;	COMDAT ??_R0?AVexception@@@8
_DATA	SEGMENT DWORD USE32 PUBLIC 'DATA'
_DATA	ENDS
;	COMDAT ??$_DebugHeapDelete@Vfacet@locale@std@@@std@@YAXPAVfacet@locale@0@@Z
_TEXT	SEGMENT PARA USE32 PUBLIC 'CODE'
_TEXT	ENDS
;	COMDAT ??$use_facet@V?$ctype@D@std@@@std@@YAABV?$ctype@D@0@ABVlocale@0@@Z
_TEXT	SEGMENT PARA USE32 PUBLIC 'CODE'
_TEXT	ENDS
;	COMDAT ??_S?$ctype@D@std@@6B@
CONST	SEGMENT DWORD USE32 PUBLIC 'CONST'
CONST	ENDS
;	COMDAT ??_R4?$ctype@D@std@@6B@
rdata$r	SEGMENT DWORD USE32 PUBLIC 'CONST'
rdata$r	ENDS
;	COMDAT ??_R0?AV?$ctype@D@std@@@8
_DATA	SEGMENT DWORD USE32 PUBLIC 'DATA'
_DATA	ENDS
;	COMDAT ??_R3?$ctype@D@std@@8
rdata$r	SEGMENT DWORD USE32 PUBLIC 'CONST'
rdata$r	ENDS
;	COMDAT ??_R2?$ctype@D@std@@8
rdata$r	SEGMENT DWORD USE32 PUBLIC 'CONST'
rdata$r	ENDS
;	COMDAT ??_R1A@?0A@A@?$ctype@D@std@@8
rdata$r	SEGMENT DWORD USE32 PUBLIC 'CONST'
rdata$r	ENDS
;	COMDAT ??_G?$ctype@D@std@@MAEPAXI@Z
_TEXT	SEGMENT PARA USE32 PUBLIC 'CODE'
_TEXT	ENDS
;	COMDAT ??_S?$numpunct@_W@std@@6B@
CONST	SEGMENT DWORD USE32 PUBLIC 'CONST'
CONST	ENDS
;	COMDAT ??_S?$numpunct@D@std@@6B@
CONST	SEGMENT DWORD USE32 PUBLIC 'CONST'
CONST	ENDS
;	COMDAT _wmemmove
_TEXT	SEGMENT PARA USE32 PUBLIC 'CODE'
_TEXT	ENDS
;	COMDAT ?deallocate@?$allocator@_W@std@@QAEXPA_WI@Z
_TEXT	SEGMENT PARA USE32 PUBLIC 'CODE'
_TEXT	ENDS
;	COMDAT ??0?$allocator@_W@std@@QAE@ABV01@@Z
_TEXT	SEGMENT PARA USE32 PUBLIC 'CODE'
_TEXT	ENDS
;	COMDAT ?AtlIsValidString@ATL@@YAHPBDI@Z
_TEXT	SEGMENT PARA USE32 PUBLIC 'CODE'
_TEXT	ENDS
;	COMDAT ??_C@_0FH@KDPNIMBO@D?3?2Program?5Files?5?$CIx86?$CJ?2Microsoft@
CONST	SEGMENT DWORD USE32 PUBLIC 'CONST'
CONST	ENDS
;	COMDAT ?IsLocked@CStringData@ATL@@QBE_NXZ
_TEXT	SEGMENT PARA USE32 PUBLIC 'CODE'
_TEXT	ENDS
;	COMDAT ?IsShared@CStringData@ATL@@QBE_NXZ
_TEXT	SEGMENT PARA USE32 PUBLIC 'CODE'
_TEXT	ENDS
;	COMDAT ??_C@_0CB@GFHAPKDK@pOldData?9?$DOnAllocLength?5?$DM?5nLength@
CONST	SEGMENT DWORD USE32 PUBLIC 'CONST'
CONST	ENDS
;	COMDAT ??_C@_0BA@GNIEOBOF@nNewLength?5?$DO?$DN?50?$AA@
CONST	SEGMENT DWORD USE32 PUBLIC 'CONST'
CONST	ENDS
;	COMDAT ?GetDefaultManager@?$StrTraitMFC_DLL@DV?$ChTraitsCRT@D@ATL@@@@SAPAUIAtlStringMgr@ATL@@XZ
_TEXT	SEGMENT PARA USE32 PUBLIC 'CODE'
_TEXT	ENDS
;	COMDAT ?FindStringResourceInstance@?$StrTraitMFC_DLL@DV?$ChTraitsCRT@D@ATL@@@@SAPAUHINSTANCE__@@I@Z
_TEXT	SEGMENT PARA USE32 PUBLIC 'CODE'
_TEXT	ENDS
;	COMDAT ?AtlGetStringResourceImage@ATL@@YAPBUATLSTRINGRESOURCEIMAGE@1@PAUHINSTANCE__@@I@Z
_TEXT	SEGMENT PARA USE32 PUBLIC 'CODE'
_TEXT	ENDS
;	COMDAT ?_AtlGetStringResourceImage@ATL@@YAPBUATLSTRINGRESOURCEIMAGE@1@PAUHINSTANCE__@@PAUHRSRC__@@I@Z
_TEXT	SEGMENT PARA USE32 PUBLIC 'CODE'
_TEXT	ENDS
;	COMDAT ?GetBaseTypeLength@?$ChTraitsCRT@D@ATL@@SAHPB_WH@Z
_TEXT	SEGMENT PARA USE32 PUBLIC 'CODE'
_TEXT	ENDS
;	COMDAT ?_AtlGetConversionACP@ATL@@YGIXZ
_TEXT	SEGMENT PARA USE32 PUBLIC 'CODE'
_TEXT	ENDS
;	COMDAT ?g_pfnGetThreadACP@ATL@@3P6GIXZA
_DATA	SEGMENT DWORD USE32 PUBLIC 'DATA'
_DATA	ENDS
;	COMDAT ?_AtlGetThreadACPThunk@ATL@@YGIXZ
_TEXT	SEGMENT PARA USE32 PUBLIC 'CODE'
_TEXT	ENDS
;	COMDAT ?_AtlGetThreadACPReal@ATL@@YGIXZ
_TEXT	SEGMENT PARA USE32 PUBLIC 'CODE'
_TEXT	ENDS
;	COMDAT ?_AtlGetThreadACPFake@ATL@@YGIXZ
_TEXT	SEGMENT PARA USE32 PUBLIC 'CODE'
_TEXT	ENDS
;	COMDAT ?InterlockedExchangePointer@@YGPAXPAPAXPAX@Z
_TEXT	SEGMENT PARA USE32 PUBLIC 'CODE'
_TEXT	ENDS
;	COMDAT ?ConvertToBaseType@?$ChTraitsCRT@D@ATL@@SAXPADHPB_WH@Z
_TEXT	SEGMENT PARA USE32 PUBLIC 'CODE'
_TEXT	ENDS
;	COMDAT ??_C@_0CJ@FJEKGMMD@Warning?3?5implicit?5LoadString?$CI?$CFu?$CJ@
CONST	SEGMENT DWORD USE32 PUBLIC 'CONST'
CONST	ENDS
;	COMDAT ?AddRef@CStringData@ATL@@QAEXXZ
_TEXT	SEGMENT PARA USE32 PUBLIC 'CODE'
_TEXT	ENDS
;	COMDAT ??_C@_09EEBKLCFA@nRefs?5?$DO?50?$AA@
CONST	SEGMENT DWORD USE32 PUBLIC 'CONST'
CONST	ENDS
;	COMDAT ?_messageEntries@CCWToolTips@@0QBUAFX_MSGMAP_ENTRY@@B
CONST	SEGMENT DWORD USE32 PUBLIC 'CONST'
CONST	ENDS
;	COMDAT ?messageMap@CCWToolTips@@1UAFX_MSGMAP@@B
CONST	SEGMENT DWORD USE32 PUBLIC 'CONST'
CONST	ENDS
;	COMDAT ??_7CCWToolTips@@6B@
CONST	SEGMENT DWORD USE32 PUBLIC 'CONST'
CONST	ENDS
;	COMDAT ?classCCWToolTips@CCWToolTips@@2UCRuntimeClass@@B
CONST	SEGMENT DWORD USE32 PUBLIC 'CONST'
CONST	ENDS
sxdata	SEGMENT DWORD USE32 'SXDATA'
sxdata	ENDS
FLAT	GROUP _DATA, CONST, _BSS
	ASSUME	CS: FLAT, DS: FLAT, SS: FLAT
endif

INCLUDELIB MSVCRTD
INCLUDELIB OLDNAMES

PUBLIC	?g_pfnGetThreadACP@ATL@@3P6GIXZA		; ATL::g_pfnGetThreadACP
PUBLIC	?_AtlGetThreadACPThunk@ATL@@YGIXZ		; ATL::_AtlGetThreadACPThunk
PUBLIC	?classCCWToolTips@CCWToolTips@@2UCRuntimeClass@@B ; CCWToolTips::classCCWToolTips
PUBLIC	?_messageEntries@CCWToolTips@@0QBUAFX_MSGMAP_ENTRY@@B ; CCWToolTips::_messageEntries
PUBLIC	?messageMap@CCWToolTips@@1UAFX_MSGMAP@@B	; CCWToolTips::messageMap
PUBLIC	?OnPaint@CCWToolTips@@QAEXXZ			; CCWToolTips::OnPaint
PUBLIC	?OnTimer@CCWToolTips@@QAEXI@Z			; CCWToolTips::OnTimer
PUBLIC	?OnNcPaint@CCWToolTips@@QAEXXZ			; CCWToolTips::OnNcPaint
EXTRN	?GetThisClass@CWnd@@SGPAUCRuntimeClass@@XZ:NEAR	; CWnd::GetThisClass
EXTRN	?GetThisMessageMap@CWnd@@KGPBUAFX_MSGMAP@@XZ:NEAR ; CWnd::GetThisMessageMap
CONST	SEGMENT
$SG187070 DB	'CCWToolTips', 00H
CONST	ENDS
;	COMDAT ?classCCWToolTips@CCWToolTips@@2UCRuntimeClass@@B
CONST	SEGMENT
?classCCWToolTips@CCWToolTips@@2UCRuntimeClass@@B DD FLAT:$SG187070 ; CCWToolTips::classCCWToolTips
	DD	090H
	DD	0ffffH
	DD	00H
	DD	FLAT:?GetThisClass@CWnd@@SGPAUCRuntimeClass@@XZ
	DD	00H
	DD	00H
CONST	ENDS
;	COMDAT ?_messageEntries@CCWToolTips@@0QBUAFX_MSGMAP_ENTRY@@B
CONST	SEGMENT
?_messageEntries@CCWToolTips@@0QBUAFX_MSGMAP_ENTRY@@B DD 0fH ; CCWToolTips::_messageEntries
	DD	00H
	DD	00H
	DD	00H
	DD	010H
	DD	FLAT:?OnPaint@CCWToolTips@@QAEXXZ
	DD	0113H
	DD	00H
	DD	00H
	DD	00H
	DD	011H
	DD	FLAT:?OnTimer@CCWToolTips@@QAEXI@Z
	DD	085H
	DD	00H
	DD	00H
	DD	00H
	DD	010H
	DD	FLAT:?OnNcPaint@CCWToolTips@@QAEXXZ
	DD	00H
	DD	00H
	DD	00H
	DD	00H
	DD	00H
	DD	00H
CONST	ENDS
;	COMDAT ?messageMap@CCWToolTips@@1UAFX_MSGMAP@@B
CONST	SEGMENT
?messageMap@CCWToolTips@@1UAFX_MSGMAP@@B DD FLAT:?GetThisMessageMap@CWnd@@KGPBUAFX_MSGMAP@@XZ ; CCWToolTips::messageMap
	DD	FLAT:?_messageEntries@CCWToolTips@@0QBUAFX_MSGMAP_ENTRY@@B
CONST	ENDS
CONST	SEGMENT
$SG187135 DB	'TooltipTextColor', 00H
	ORG $+3
$SG187136 DB	'TooltipBorderColor', 00H
	ORG $+1
$SG187137 DB	'TooltipBKColor', 00H
	ORG $+1
$SG187140 DB	0cbH, 0ceH, 0ccH, 0e5H, 00H
	ORG $+3
$SG187151 DB	'$#', 00H
	ORG $+1
$SG187170 DB	'a', 00H
$SG187191 DB	00H
	ORG $+1
$SG187238 DB	0cbH, 0ceH, 0ccH, 0e5H, 00H
	ORG $+3
$SG187247 DB	'$#', 00H
	ORG $+1
$SG187281 DB	'TooltipBorderColor', 00H
CONST	ENDS
;	COMDAT ?g_pfnGetThreadACP@ATL@@3P6GIXZA
_DATA	SEGMENT
?g_pfnGetThreadACP@ATL@@3P6GIXZA DD FLAT:?_AtlGetThreadACPThunk@ATL@@YGIXZ ; ATL::g_pfnGetThreadACP
_DATA	ENDS
PUBLIC	?GetThisClass@CCWToolTips@@SGPAUCRuntimeClass@@XZ ; CCWToolTips::GetThisClass
EXTRN	__RTC_InitBase:NEAR
EXTRN	__RTC_Shutdown:NEAR
;	COMDAT rtc$IMZ
; File d:\boxgit\playbox\playbox\dev\prj\playbox\src\gui\util\wtooltips.cpp
rtc$IMZ	SEGMENT
__RTC_InitBase.rtc$IMZ DD FLAT:__RTC_InitBase
rtc$IMZ	ENDS
;	COMDAT rtc$TMZ
rtc$TMZ	SEGMENT
__RTC_Shutdown.rtc$TMZ DD FLAT:__RTC_Shutdown
; Function compile flags: /Odt /RTCsu
rtc$TMZ	ENDS
_TEXT	SEGMENT
?GetThisClass@CCWToolTips@@SGPAUCRuntimeClass@@XZ PROC NEAR ; CCWToolTips::GetThisClass

; 6    : IMPLEMENT_DYNAMIC(CCWToolTips, CWnd)

  00000	55		 push	 ebp
  00001	8b ec		 mov	 ebp, esp
  00003	b8 00 00 00 00	 mov	 eax, OFFSET FLAT:?classCCWToolTips@CCWToolTips@@2UCRuntimeClass@@B ; CCWToolTips::classCCWToolTips
  00008	5d		 pop	 ebp
  00009	c3		 ret	 0
?GetThisClass@CCWToolTips@@SGPAUCRuntimeClass@@XZ ENDP	; CCWToolTips::GetThisClass
_TEXT	ENDS
PUBLIC	?GetRuntimeClass@CCWToolTips@@UBEPAUCRuntimeClass@@XZ ; CCWToolTips::GetRuntimeClass
; Function compile flags: /Odt /RTCsu
_TEXT	SEGMENT
_this$ = -4						; size = 4
?GetRuntimeClass@CCWToolTips@@UBEPAUCRuntimeClass@@XZ PROC NEAR ; CCWToolTips::GetRuntimeClass
; _this$ = ecx

; 6    : IMPLEMENT_DYNAMIC(CCWToolTips, CWnd)

  00010	55		 push	 ebp
  00011	8b ec		 mov	 ebp, esp
  00013	51		 push	 ecx
  00014	c7 45 fc cc cc
	cc cc		 mov	 DWORD PTR [ebp-4], -858993460 ; ccccccccH
  0001b	89 4d fc	 mov	 DWORD PTR _this$[ebp], ecx
  0001e	b8 00 00 00 00	 mov	 eax, OFFSET FLAT:?classCCWToolTips@CCWToolTips@@2UCRuntimeClass@@B ; CCWToolTips::classCCWToolTips
  00023	8b e5		 mov	 esp, ebp
  00025	5d		 pop	 ebp
  00026	c3		 ret	 0
?GetRuntimeClass@CCWToolTips@@UBEPAUCRuntimeClass@@XZ ENDP ; CCWToolTips::GetRuntimeClass
_TEXT	ENDS
PUBLIC	??_R4CCWToolTips@@6B@				; CCWToolTips::`RTTI Complete Object Locator'
PUBLIC	??_R0?AVCCWToolTips@@@8				; CCWToolTips `RTTI Type Descriptor'
PUBLIC	??_R3CCWToolTips@@8				; CCWToolTips::`RTTI Class Hierarchy Descriptor'
PUBLIC	??_R2CCWToolTips@@8				; CCWToolTips::`RTTI Base Class Array'
PUBLIC	??_R1A@?0A@A@CCWToolTips@@8			; CCWToolTips::`RTTI Base Class Descriptor at (0,-1,0,0)'
PUBLIC	??_R1A@?0A@A@CWnd@@8				; CWnd::`RTTI Base Class Descriptor at (0,-1,0,0)'
PUBLIC	??_R0?AVCWnd@@@8				; CWnd `RTTI Type Descriptor'
PUBLIC	??_R1A@?0A@A@CCmdTarget@@8			; CCmdTarget::`RTTI Base Class Descriptor at (0,-1,0,0)'
PUBLIC	??_R0?AVCCmdTarget@@@8				; CCmdTarget `RTTI Type Descriptor'
PUBLIC	??_R1A@?0A@A@CObject@@8				; CObject::`RTTI Base Class Descriptor at (0,-1,0,0)'
PUBLIC	??_R0?AVCObject@@@8				; CObject `RTTI Type Descriptor'
PUBLIC	??0CCWToolTips@@QAE@XZ				; CCWToolTips::CCWToolTips
PUBLIC	?PreTranslateMessage@CCWToolTips@@UAEHPAUtagMSG@@@Z ; CCWToolTips::PreTranslateMessage
PUBLIC	?GetMessageMap@CCWToolTips@@MBEPBUAFX_MSGMAP@@XZ ; CCWToolTips::GetMessageMap
PUBLIC	??_7CCWToolTips@@6B@				; CCWToolTips::`vftable'
PUBLIC	??_GCCWToolTips@@UAEPAXI@Z			; CCWToolTips::`scalar deleting destructor'
EXTRN	?GetInterfaceMap@CWnd@@MBEPBUAFX_INTERFACEMAP@@XZ:NEAR ; CWnd::GetInterfaceMap
EXTRN	?EnsureStdObj@CWnd@@UAEJXZ:NEAR			; CWnd::EnsureStdObj
EXTRN	?get_accParent@CWnd@@UAEJPAPAUIDispatch@@@Z:NEAR ; CWnd::get_accParent
EXTRN	?OnCmdMsg@CCmdTarget@@UAEHIHPAXPAUAFX_CMDHANDLERINFO@@@Z:NEAR ; CCmdTarget::OnCmdMsg
EXTRN	?get_accChildCount@CWnd@@UAEJPAJ@Z:NEAR		; CWnd::get_accChildCount
EXTRN	?IsInvokeAllowed@CCmdTarget@@UAEHJ@Z:NEAR	; CCmdTarget::IsInvokeAllowed
EXTRN	?get_accChild@CWnd@@UAEJUtagVARIANT@@PAPAUIDispatch@@@Z:NEAR ; CWnd::get_accChild
EXTRN	?get_accName@CWnd@@UAEJUtagVARIANT@@PAPA_W@Z:NEAR ; CWnd::get_accName
EXTRN	?get_accValue@CWnd@@UAEJUtagVARIANT@@PAPA_W@Z:NEAR ; CWnd::get_accValue
EXTRN	?GetDispatchIID@CCmdTarget@@UAEHPAU_GUID@@@Z:NEAR ; CCmdTarget::GetDispatchIID
EXTRN	?GetTypeInfoCount@CCmdTarget@@UAEIXZ:NEAR	; CCmdTarget::GetTypeInfoCount
EXTRN	?GetTypeLibCache@CCmdTarget@@UAEPAVCTypeLibCache@@XZ:NEAR ; CCmdTarget::GetTypeLibCache
EXTRN	?get_accDescription@CWnd@@UAEJUtagVARIANT@@PAPA_W@Z:NEAR ; CWnd::get_accDescription
EXTRN	?GetTypeLib@CCmdTarget@@UAEJKPAPAUITypeLib@@@Z:NEAR ; CCmdTarget::GetTypeLib
EXTRN	?get_accRole@CWnd@@UAEJUtagVARIANT@@PAU2@@Z:NEAR ; CWnd::get_accRole
EXTRN	?get_accState@CWnd@@UAEJUtagVARIANT@@PAU2@@Z:NEAR ; CWnd::get_accState
EXTRN	?get_accHelp@CWnd@@UAEJUtagVARIANT@@PAPA_W@Z:NEAR ; CWnd::get_accHelp
EXTRN	?get_accHelpTopic@CWnd@@UAEJPAPA_WUtagVARIANT@@PAJ@Z:NEAR ; CWnd::get_accHelpTopic
EXTRN	?get_accKeyboardShortcut@CWnd@@UAEJUtagVARIANT@@PAPA_W@Z:NEAR ; CWnd::get_accKeyboardShortcut
EXTRN	?get_accFocus@CWnd@@UAEJPAUtagVARIANT@@@Z:NEAR	; CWnd::get_accFocus
EXTRN	?get_accSelection@CWnd@@UAEJPAUtagVARIANT@@@Z:NEAR ; CWnd::get_accSelection
EXTRN	?get_accDefaultAction@CWnd@@UAEJUtagVARIANT@@PAPA_W@Z:NEAR ; CWnd::get_accDefaultAction
EXTRN	?GetCommandMap@CCmdTarget@@MBEPBUAFX_OLECMDMAP@@XZ:NEAR ; CCmdTarget::GetCommandMap
EXTRN	?accSelect@CWnd@@UAEJJUtagVARIANT@@@Z:NEAR	; CWnd::accSelect
EXTRN	?accLocation@CWnd@@UAEJPAJ000UtagVARIANT@@@Z:NEAR ; CWnd::accLocation
EXTRN	?GetDispatchMap@CCmdTarget@@MBEPBUAFX_DISPMAP@@XZ:NEAR ; CCmdTarget::GetDispatchMap
EXTRN	?accNavigate@CWnd@@UAEJJUtagVARIANT@@PAU2@@Z:NEAR ; CWnd::accNavigate
EXTRN	?accHitTest@CWnd@@UAEJJJPAUtagVARIANT@@@Z:NEAR	; CWnd::accHitTest
EXTRN	?GetConnectionMap@CCmdTarget@@MBEPBUAFX_CONNECTIONMAP@@XZ:NEAR ; CCmdTarget::GetConnectionMap
EXTRN	?accDoDefaultAction@CWnd@@UAEJUtagVARIANT@@@Z:NEAR ; CWnd::accDoDefaultAction
EXTRN	?put_accName@CWnd@@UAEJUtagVARIANT@@PA_W@Z:NEAR	; CWnd::put_accName
EXTRN	?put_accValue@CWnd@@UAEJUtagVARIANT@@PA_W@Z:NEAR ; CWnd::put_accValue
EXTRN	?SetProxy@CWnd@@UAEJPAUIAccessibleProxy@@@Z:NEAR ; CWnd::SetProxy
EXTRN	?CreateAccessibleProxy@CWnd@@UAEJIJPAJ@Z:NEAR	; CWnd::CreateAccessibleProxy
EXTRN	?GetEventSinkMap@CCmdTarget@@MBEPBUAFX_EVENTSINKMAP@@XZ:NEAR ; CCmdTarget::GetEventSinkMap
EXTRN	?OnCreateAggregates@CCmdTarget@@UAEHXZ:NEAR	; CCmdTarget::OnCreateAggregates
EXTRN	?OnCommand@CWnd@@MAEHIJ@Z:NEAR			; CWnd::OnCommand
EXTRN	?GetInterfaceHook@CCmdTarget@@UAEPAUIUnknown@@PBX@Z:NEAR ; CCmdTarget::GetInterfaceHook
EXTRN	?OnNotify@CWnd@@MAEHIJPAJ@Z:NEAR		; CWnd::OnNotify
EXTRN	?GetExtraConnectionPoints@CCmdTarget@@MAEHPAVCPtrArray@@@Z:NEAR ; CCmdTarget::GetExtraConnectionPoints
EXTRN	?GetConnectionHook@CCmdTarget@@MAEPAUIConnectionPoint@@ABU_GUID@@@Z:NEAR ; CCmdTarget::GetConnectionHook
EXTRN	??0CPoint@@QAE@XZ:NEAR				; CPoint::CPoint
EXTRN	??0CPoint@@QAE@HH@Z:NEAR			; CPoint::CPoint
EXTRN	??0CRect@@QAE@XZ:NEAR				; CRect::CRect
EXTRN	??0CWnd@@QAE@XZ:NEAR				; CWnd::CWnd
EXTRN	__RTC_CheckEsp:NEAR
EXTRN	?PreSubclassWindow@CWnd@@UAEXXZ:NEAR		; CWnd::PreSubclassWindow
EXTRN	?Create@CWnd@@UAEHPBD0KABUtagRECT@@PAV1@IPAUCCreateContext@@@Z:NEAR ; CWnd::Create
EXTRN	?CreateEx@CWnd@@UAEHKPBD0KHHHHPAUHWND__@@PAUHMENU__@@PAX@Z:NEAR ; CWnd::CreateEx
EXTRN	?CreateEx@CWnd@@UAEHKPBD0KABUtagRECT@@PAV1@IPAX@Z:NEAR ; CWnd::CreateEx
EXTRN	?Serialize@CObject@@UAEXAAVCArchive@@@Z:NEAR	; CObject::Serialize
EXTRN	?DestroyWindow@CWnd@@UAEHXZ:NEAR		; CWnd::DestroyWindow
EXTRN	?PreCreateWindow@CWnd@@UAEHAAUtagCREATESTRUCTA@@@Z:NEAR ; CWnd::PreCreateWindow
EXTRN	?CalcWindowRect@CWnd@@UAEXPAUtagRECT@@I@Z:NEAR	; CWnd::CalcWindowRect
EXTRN	?GetSuperWndProcAddr@CWnd@@MAEPAP6GJPAUHWND__@@IIJ@ZXZ:NEAR ; CWnd::GetSuperWndProcAddr
EXTRN	?DoDataExchange@CWnd@@MAEXPAVCDataExchange@@@Z:NEAR ; CWnd::DoDataExchange
EXTRN	?BeginModalState@CWnd@@UAEXXZ:NEAR		; CWnd::BeginModalState
EXTRN	?EndModalState@CWnd@@UAEXXZ:NEAR		; CWnd::EndModalState
EXTRN	?OnAmbientProperty@CWnd@@UAEHPAVCOleControlSite@@JPAUtagVARIANT@@@Z:NEAR ; CWnd::OnAmbientProperty
EXTRN	?WindowProc@CWnd@@MAEJIIJ@Z:NEAR		; CWnd::WindowProc
EXTRN	?OnWndMsg@CWnd@@MAEHIIJPAJ@Z:NEAR		; CWnd::OnWndMsg
EXTRN	?DefWindowProcA@CWnd@@MAEJIIJ@Z:NEAR		; CWnd::DefWindowProcA
EXTRN	?PostNcDestroy@CWnd@@MAEXXZ:NEAR		; CWnd::PostNcDestroy
EXTRN	?OnChildNotify@CWnd@@MAEHIIJPAJ@Z:NEAR		; CWnd::OnChildNotify
EXTRN	?CheckAutoCenter@CWnd@@UAEHXZ:NEAR		; CWnd::CheckAutoCenter
EXTRN	?AssertValid@CWnd@@UBEXXZ:NEAR			; CWnd::AssertValid
EXTRN	?Dump@CWnd@@UBEXAAVCDumpContext@@@Z:NEAR	; CWnd::Dump
EXTRN	?IsFrameWnd@CWnd@@UBEHXZ:NEAR			; CWnd::IsFrameWnd
EXTRN	?OnFinalRelease@CWnd@@UAEXXZ:NEAR		; CWnd::OnFinalRelease
EXTRN	?CreateControlContainer@CWnd@@MAEHPAPAVCOleControlContainer@@@Z:NEAR ; CWnd::CreateControlContainer
EXTRN	?CreateControlSite@CWnd@@MAEHPAVCOleControlContainer@@PAPAVCOleControlSite@@IABU_GUID@@@Z:NEAR ; CWnd::CreateControlSite
EXTRN	??_ECCWToolTips@@UAEPAXI@Z:NEAR			; CCWToolTips::`vector deleting destructor'
EXTRN	?SetOccDialogInfo@CWnd@@MAEHPAU_AFX_OCC_DIALOG_INFO@@@Z:NEAR ; CWnd::SetOccDialogInfo
EXTRN	__imp_??0?$CStringT@DV?$StrTraitMFC_DLL@DV?$ChTraitsCRT@D@ATL@@@@@ATL@@QAE@XZ:NEAR
EXTRN	?OnToolHitTest@CWnd@@UBEHVCPoint@@PAUtagTOOLINFOA@@@Z:NEAR ; CWnd::OnToolHitTest
EXTRN	?GetScrollBarCtrl@CWnd@@UBEPAVCScrollBar@@H@Z:NEAR ; CWnd::GetScrollBarCtrl
EXTRN	?WinHelpA@CWnd@@UAEXKI@Z:NEAR			; CWnd::WinHelpA
EXTRN	?HtmlHelpA@CWnd@@UAEXKI@Z:NEAR			; CWnd::HtmlHelpA
EXTRN	??_7type_info@@6B@:QWORD			; type_info::`vftable'
EXTRN	?WinHelpInternal@CWnd@@UAEXKI@Z:NEAR		; CWnd::WinHelpInternal
EXTRN	?ContinueModal@CWnd@@UAEHXZ:NEAR		; CWnd::ContinueModal
EXTRN	?EndModalLoop@CWnd@@UAEXH@Z:NEAR		; CWnd::EndModalLoop
;	COMDAT ??_7CCWToolTips@@6B@
CONST	SEGMENT
??_7CCWToolTips@@6B@ DD FLAT:??_R4CCWToolTips@@6B@	; CCWToolTips::`vftable'
	DD	FLAT:?GetRuntimeClass@CCWToolTips@@UBEPAUCRuntimeClass@@XZ
	DD	FLAT:??_ECCWToolTips@@UAEPAXI@Z
	DD	FLAT:?Serialize@CObject@@UAEXAAVCArchive@@@Z
	DD	FLAT:?AssertValid@CWnd@@UBEXXZ
	DD	FLAT:?Dump@CWnd@@UBEXAAVCDumpContext@@@Z
	DD	FLAT:?OnCmdMsg@CCmdTarget@@UAEHIHPAXPAUAFX_CMDHANDLERINFO@@@Z
	DD	FLAT:?OnFinalRelease@CWnd@@UAEXXZ
	DD	FLAT:?IsInvokeAllowed@CCmdTarget@@UAEHJ@Z
	DD	FLAT:?GetDispatchIID@CCmdTarget@@UAEHPAU_GUID@@@Z
	DD	FLAT:?GetTypeInfoCount@CCmdTarget@@UAEIXZ
	DD	FLAT:?GetTypeLibCache@CCmdTarget@@UAEPAVCTypeLibCache@@XZ
	DD	FLAT:?GetTypeLib@CCmdTarget@@UAEJKPAPAUITypeLib@@@Z
	DD	FLAT:?GetMessageMap@CCWToolTips@@MBEPBUAFX_MSGMAP@@XZ
	DD	FLAT:?GetCommandMap@CCmdTarget@@MBEPBUAFX_OLECMDMAP@@XZ
	DD	FLAT:?GetDispatchMap@CCmdTarget@@MBEPBUAFX_DISPMAP@@XZ
	DD	FLAT:?GetConnectionMap@CCmdTarget@@MBEPBUAFX_CONNECTIONMAP@@XZ
	DD	FLAT:?GetInterfaceMap@CWnd@@MBEPBUAFX_INTERFACEMAP@@XZ
	DD	FLAT:?GetEventSinkMap@CCmdTarget@@MBEPBUAFX_EVENTSINKMAP@@XZ
	DD	FLAT:?OnCreateAggregates@CCmdTarget@@UAEHXZ
	DD	FLAT:?GetInterfaceHook@CCmdTarget@@UAEPAUIUnknown@@PBX@Z
	DD	FLAT:?GetExtraConnectionPoints@CCmdTarget@@MAEHPAVCPtrArray@@@Z
	DD	FLAT:?GetConnectionHook@CCmdTarget@@MAEPAUIConnectionPoint@@ABU_GUID@@@Z
	DD	FLAT:?PreSubclassWindow@CWnd@@UAEXXZ
	DD	FLAT:?Create@CWnd@@UAEHPBD0KABUtagRECT@@PAV1@IPAUCCreateContext@@@Z
	DD	FLAT:?CreateEx@CWnd@@UAEHKPBD0KABUtagRECT@@PAV1@IPAX@Z
	DD	FLAT:?CreateEx@CWnd@@UAEHKPBD0KHHHHPAUHWND__@@PAUHMENU__@@PAX@Z
	DD	FLAT:?DestroyWindow@CWnd@@UAEHXZ
	DD	FLAT:?PreCreateWindow@CWnd@@UAEHAAUtagCREATESTRUCTA@@@Z
	DD	FLAT:?CalcWindowRect@CWnd@@UAEXPAUtagRECT@@I@Z
	DD	FLAT:?OnToolHitTest@CWnd@@UBEHVCPoint@@PAUtagTOOLINFOA@@@Z
	DD	FLAT:?GetScrollBarCtrl@CWnd@@UBEPAVCScrollBar@@H@Z
	DD	FLAT:?WinHelpA@CWnd@@UAEXKI@Z
	DD	FLAT:?HtmlHelpA@CWnd@@UAEXKI@Z
	DD	FLAT:?WinHelpInternal@CWnd@@UAEXKI@Z
	DD	FLAT:?ContinueModal@CWnd@@UAEHXZ
	DD	FLAT:?EndModalLoop@CWnd@@UAEXH@Z
	DD	FLAT:?EnsureStdObj@CWnd@@UAEJXZ
	DD	FLAT:?get_accParent@CWnd@@UAEJPAPAUIDispatch@@@Z
	DD	FLAT:?get_accChildCount@CWnd@@UAEJPAJ@Z
	DD	FLAT:?get_accChild@CWnd@@UAEJUtagVARIANT@@PAPAUIDispatch@@@Z
	DD	FLAT:?get_accName@CWnd@@UAEJUtagVARIANT@@PAPA_W@Z
	DD	FLAT:?get_accValue@CWnd@@UAEJUtagVARIANT@@PAPA_W@Z
	DD	FLAT:?get_accDescription@CWnd@@UAEJUtagVARIANT@@PAPA_W@Z
	DD	FLAT:?get_accRole@CWnd@@UAEJUtagVARIANT@@PAU2@@Z
	DD	FLAT:?get_accState@CWnd@@UAEJUtagVARIANT@@PAU2@@Z
	DD	FLAT:?get_accHelp@CWnd@@UAEJUtagVARIANT@@PAPA_W@Z
	DD	FLAT:?get_accHelpTopic@CWnd@@UAEJPAPA_WUtagVARIANT@@PAJ@Z
	DD	FLAT:?get_accKeyboardShortcut@CWnd@@UAEJUtagVARIANT@@PAPA_W@Z
	DD	FLAT:?get_accFocus@CWnd@@UAEJPAUtagVARIANT@@@Z
	DD	FLAT:?get_accSelection@CWnd@@UAEJPAUtagVARIANT@@@Z
	DD	FLAT:?get_accDefaultAction@CWnd@@UAEJUtagVARIANT@@PAPA_W@Z
	DD	FLAT:?accSelect@CWnd@@UAEJJUtagVARIANT@@@Z
	DD	FLAT:?accLocation@CWnd@@UAEJPAJ000UtagVARIANT@@@Z
	DD	FLAT:?accNavigate@CWnd@@UAEJJUtagVARIANT@@PAU2@@Z
	DD	FLAT:?accHitTest@CWnd@@UAEJJJPAUtagVARIANT@@@Z
	DD	FLAT:?accDoDefaultAction@CWnd@@UAEJUtagVARIANT@@@Z
	DD	FLAT:?put_accName@CWnd@@UAEJUtagVARIANT@@PA_W@Z
	DD	FLAT:?put_accValue@CWnd@@UAEJUtagVARIANT@@PA_W@Z
	DD	FLAT:?SetProxy@CWnd@@UAEJPAUIAccessibleProxy@@@Z
	DD	FLAT:?CreateAccessibleProxy@CWnd@@UAEJIJPAJ@Z
	DD	FLAT:?OnCommand@CWnd@@MAEHIJ@Z
	DD	FLAT:?OnNotify@CWnd@@MAEHIJPAJ@Z
	DD	FLAT:?GetSuperWndProcAddr@CWnd@@MAEPAP6GJPAUHWND__@@IIJ@ZXZ
	DD	FLAT:?DoDataExchange@CWnd@@MAEXPAVCDataExchange@@@Z
	DD	FLAT:?BeginModalState@CWnd@@UAEXXZ
	DD	FLAT:?EndModalState@CWnd@@UAEXXZ
	DD	FLAT:?PreTranslateMessage@CCWToolTips@@UAEHPAUtagMSG@@@Z
	DD	FLAT:?OnAmbientProperty@CWnd@@UAEHPAVCOleControlSite@@JPAUtagVARIANT@@@Z
	DD	FLAT:?WindowProc@CWnd@@MAEJIIJ@Z
	DD	FLAT:?OnWndMsg@CWnd@@MAEHIIJPAJ@Z
	DD	FLAT:?DefWindowProcA@CWnd@@MAEJIIJ@Z
	DD	FLAT:?PostNcDestroy@CWnd@@MAEXXZ
	DD	FLAT:?OnChildNotify@CWnd@@MAEHIIJPAJ@Z
	DD	FLAT:?CheckAutoCenter@CWnd@@UAEHXZ
	DD	FLAT:?IsFrameWnd@CWnd@@UBEHXZ
	DD	FLAT:?CreateControlContainer@CWnd@@MAEHPAPAVCOleControlContainer@@@Z
	DD	FLAT:?CreateControlSite@CWnd@@MAEHPAVCOleControlContainer@@PAPAVCOleControlSite@@IABU_GUID@@@Z
	DD	FLAT:?SetOccDialogInfo@CWnd@@MAEHPAU_AFX_OCC_DIALOG_INFO@@@Z
CONST	ENDS
;	COMDAT ??_R4CCWToolTips@@6B@
rdata$r	SEGMENT
??_R4CCWToolTips@@6B@ DD 00H				; CCWToolTips::`RTTI Complete Object Locator'
	DD	00H
	DD	00H
	DD	FLAT:??_R0?AVCCWToolTips@@@8
	DD	FLAT:??_R3CCWToolTips@@8
rdata$r	ENDS
;	COMDAT ??_R0?AVCCWToolTips@@@8
_DATA	SEGMENT
??_R0?AVCCWToolTips@@@8 DD FLAT:??_7type_info@@6B@	; CCWToolTips `RTTI Type Descriptor'
	DD	00H
	DB	'.?AVCCWToolTips@@', 00H
_DATA	ENDS
;	COMDAT ??_R3CCWToolTips@@8
rdata$r	SEGMENT
??_R3CCWToolTips@@8 DD 00H				; CCWToolTips::`RTTI Class Hierarchy Descriptor'
	DD	00H
	DD	04H
	DD	FLAT:??_R2CCWToolTips@@8
rdata$r	ENDS
;	COMDAT ??_R2CCWToolTips@@8
rdata$r	SEGMENT
??_R2CCWToolTips@@8 DD FLAT:??_R1A@?0A@A@CCWToolTips@@8	; CCWToolTips::`RTTI Base Class Array'
	DD	FLAT:??_R1A@?0A@A@CWnd@@8
	DD	FLAT:??_R1A@?0A@A@CCmdTarget@@8
	DD	FLAT:??_R1A@?0A@A@CObject@@8
rdata$r	ENDS
;	COMDAT ??_R1A@?0A@A@CCWToolTips@@8
rdata$r	SEGMENT
??_R1A@?0A@A@CCWToolTips@@8 DD FLAT:??_R0?AVCCWToolTips@@@8 ; CCWToolTips::`RTTI Base Class Descriptor at (0,-1,0,0)'
	DD	03H
	DD	00H
	DD	0ffffffffH
	DD	00H
	DD	00H
rdata$r	ENDS
;	COMDAT ??_R1A@?0A@A@CWnd@@8
rdata$r	SEGMENT
??_R1A@?0A@A@CWnd@@8 DD FLAT:??_R0?AVCWnd@@@8		; CWnd::`RTTI Base Class Descriptor at (0,-1,0,0)'
	DD	02H
	DD	00H
	DD	0ffffffffH
	DD	00H
	DD	00H
rdata$r	ENDS
;	COMDAT ??_R0?AVCWnd@@@8
_DATA	SEGMENT
??_R0?AVCWnd@@@8 DD FLAT:??_7type_info@@6B@		; CWnd `RTTI Type Descriptor'
	DD	00H
	DB	'.?AVCWnd@@', 00H
_DATA	ENDS
;	COMDAT ??_R1A@?0A@A@CCmdTarget@@8
rdata$r	SEGMENT
??_R1A@?0A@A@CCmdTarget@@8 DD FLAT:??_R0?AVCCmdTarget@@@8 ; CCmdTarget::`RTTI Base Class Descriptor at (0,-1,0,0)'
	DD	01H
	DD	00H
	DD	0ffffffffH
	DD	00H
	DD	00H
rdata$r	ENDS
;	COMDAT ??_R0?AVCCmdTarget@@@8
_DATA	SEGMENT
??_R0?AVCCmdTarget@@@8 DD FLAT:??_7type_info@@6B@	; CCmdTarget `RTTI Type Descriptor'
	DD	00H
	DB	'.?AVCCmdTarget@@', 00H
_DATA	ENDS
;	COMDAT ??_R1A@?0A@A@CObject@@8
rdata$r	SEGMENT
??_R1A@?0A@A@CObject@@8 DD FLAT:??_R0?AVCObject@@@8	; CObject::`RTTI Base Class Descriptor at (0,-1,0,0)'
	DD	00H
	DD	00H
	DD	0ffffffffH
	DD	00H
	DD	00H
rdata$r	ENDS
;	COMDAT ??_R0?AVCObject@@@8
_DATA	SEGMENT
??_R0?AVCObject@@@8 DD FLAT:??_7type_info@@6B@		; CObject `RTTI Type Descriptor'
	DD	00H
	DB	'.?AVCObject@@', 00H
; Function compile flags: /Odt /RTCsu
_DATA	ENDS
_TEXT	SEGMENT
$T187855 = -12						; size = 8
_this$ = -4						; size = 4
??0CCWToolTips@@QAE@XZ PROC NEAR			; CCWToolTips::CCWToolTips
; _this$ = ecx

; 8    : {

  00030	55		 push	 ebp
  00031	8b ec		 mov	 ebp, esp
  00033	83 ec 0c	 sub	 esp, 12			; 0000000cH
  00036	56		 push	 esi
  00037	c7 45 f4 cc cc
	cc cc		 mov	 DWORD PTR [ebp-12], -858993460 ; ccccccccH
  0003e	c7 45 f8 cc cc
	cc cc		 mov	 DWORD PTR [ebp-8], -858993460 ; ccccccccH
  00045	c7 45 fc cc cc
	cc cc		 mov	 DWORD PTR [ebp-4], -858993460 ; ccccccccH
  0004c	89 4d fc	 mov	 DWORD PTR _this$[ebp], ecx
  0004f	8b 4d fc	 mov	 ecx, DWORD PTR _this$[ebp]
  00052	e8 00 00 00 00	 call	 ??0CWnd@@QAE@XZ		; CWnd::CWnd
  00057	8b 45 fc	 mov	 eax, DWORD PTR _this$[ebp]
  0005a	c7 00 00 00 00
	00		 mov	 DWORD PTR [eax], OFFSET FLAT:??_7CCWToolTips@@6B@
  00060	8b 4d fc	 mov	 ecx, DWORD PTR _this$[ebp]
  00063	83 c1 64	 add	 ecx, 100		; 00000064H
  00066	8b f4		 mov	 esi, esp
  00068	ff 15 00 00 00
	00		 call	 DWORD PTR __imp_??0?$CStringT@DV?$StrTraitMFC_DLL@DV?$ChTraitsCRT@D@ATL@@@@@ATL@@QAE@XZ
  0006e	3b f4		 cmp	 esi, esp
  00070	e8 00 00 00 00	 call	 __RTC_CheckEsp
  00075	8b 4d fc	 mov	 ecx, DWORD PTR _this$[ebp]
  00078	83 c1 68	 add	 ecx, 104		; 00000068H
  0007b	e8 00 00 00 00	 call	 ??0CPoint@@QAE@XZ	; CPoint::CPoint
  00080	8b 4d fc	 mov	 ecx, DWORD PTR _this$[ebp]
  00083	83 c1 70	 add	 ecx, 112		; 00000070H
  00086	e8 00 00 00 00	 call	 ??0CRect@@QAE@XZ	; CRect::CRect

; 9    : 	m_lastPoint = CPoint(0,0);

  0008b	6a 00		 push	 0
  0008d	6a 00		 push	 0
  0008f	8d 4d f4	 lea	 ecx, DWORD PTR $T187855[ebp]
  00092	e8 00 00 00 00	 call	 ??0CPoint@@QAE@HH@Z	; CPoint::CPoint
  00097	8b 08		 mov	 ecx, DWORD PTR [eax]
  00099	8b 50 04	 mov	 edx, DWORD PTR [eax+4]
  0009c	8b 45 fc	 mov	 eax, DWORD PTR _this$[ebp]
  0009f	89 48 68	 mov	 DWORD PTR [eax+104], ecx
  000a2	89 50 6c	 mov	 DWORD PTR [eax+108], edx

; 10   : 	m_pClientWnd = NULL;

  000a5	8b 4d fc	 mov	 ecx, DWORD PTR _this$[ebp]
  000a8	c7 41 60 00 00
	00 00		 mov	 DWORD PTR [ecx+96], 0

; 11   : 	m_type = CLIENT_TOOLTIPS;

  000af	8b 55 fc	 mov	 edx, DWORD PTR _this$[ebp]
  000b2	c7 82 80 00 00
	00 00 00 00 00	 mov	 DWORD PTR [edx+128], 0

; 12   : 
; 13   : 	m_clrFontText = RGB(0x00,0x00,0x00);

  000bc	8b 45 fc	 mov	 eax, DWORD PTR _this$[ebp]
  000bf	c7 40 54 00 00
	00 00		 mov	 DWORD PTR [eax+84], 0

; 14   : 	m_clrBorder = RGB(0x00,0x00,0x00);

  000c6	8b 4d fc	 mov	 ecx, DWORD PTR _this$[ebp]
  000c9	c7 41 58 00 00
	00 00		 mov	 DWORD PTR [ecx+88], 0

; 15   : 	m_clrBK=RGB(0xFF,0xFF,0xFF);

  000d0	8b 55 fc	 mov	 edx, DWORD PTR _this$[ebp]
  000d3	c7 42 5c ff ff
	ff 00		 mov	 DWORD PTR [edx+92], 16777215 ; 00ffffffH

; 16   : 	m_hParent = NULL;

  000da	8b 45 fc	 mov	 eax, DWORD PTR _this$[ebp]
  000dd	c7 80 88 00 00
	00 00 00 00 00	 mov	 DWORD PTR [eax+136], 0

; 17   : 	m_nTimer = 800;

  000e7	8b 4d fc	 mov	 ecx, DWORD PTR _this$[ebp]
  000ea	c7 81 84 00 00
	00 20 03 00 00	 mov	 DWORD PTR [ecx+132], 800 ; 00000320H

; 18   : 	m_bChangeColor = TRUE;

  000f4	8b 55 fc	 mov	 edx, DWORD PTR _this$[ebp]
  000f7	c7 82 8c 00 00
	00 01 00 00 00	 mov	 DWORD PTR [edx+140], 1

; 19   : }

  00101	8b 45 fc	 mov	 eax, DWORD PTR _this$[ebp]
  00104	5e		 pop	 esi
  00105	83 c4 0c	 add	 esp, 12			; 0000000cH
  00108	3b ec		 cmp	 ebp, esp
  0010a	e8 00 00 00 00	 call	 __RTC_CheckEsp
  0010f	8b e5		 mov	 esp, ebp
  00111	5d		 pop	 ebp
  00112	c3		 ret	 0
??0CCWToolTips@@QAE@XZ ENDP				; CCWToolTips::CCWToolTips
_TEXT	ENDS
PUBLIC	??1CCWToolTips@@UAE@XZ				; CCWToolTips::~CCWToolTips
EXTRN	??3CObject@@SGXPAX@Z:NEAR			; CObject::operator delete
; Function compile flags: /Odt /RTCsu
;	COMDAT ??_GCCWToolTips@@UAEPAXI@Z
_TEXT	SEGMENT
_this$ = -4						; size = 4
___flags$ = 8						; size = 4
??_GCCWToolTips@@UAEPAXI@Z PROC NEAR			; CCWToolTips::`scalar deleting destructor', COMDAT
; _this$ = ecx
  00000	55		 push	 ebp
  00001	8b ec		 mov	 ebp, esp
  00003	51		 push	 ecx
  00004	c7 45 fc cc cc
	cc cc		 mov	 DWORD PTR [ebp-4], -858993460 ; ccccccccH
  0000b	89 4d fc	 mov	 DWORD PTR _this$[ebp], ecx
  0000e	8b 4d fc	 mov	 ecx, DWORD PTR _this$[ebp]
  00011	e8 00 00 00 00	 call	 ??1CCWToolTips@@UAE@XZ	; CCWToolTips::~CCWToolTips
  00016	8b 45 08	 mov	 eax, DWORD PTR ___flags$[ebp]
  00019	83 e0 01	 and	 eax, 1
  0001c	74 09		 je	 SHORT $L187104
  0001e	8b 4d fc	 mov	 ecx, DWORD PTR _this$[ebp]
  00021	51		 push	 ecx
  00022	e8 00 00 00 00	 call	 ??3CObject@@SGXPAX@Z	; CObject::operator delete
$L187104:
  00027	8b 45 fc	 mov	 eax, DWORD PTR _this$[ebp]
  0002a	83 c4 04	 add	 esp, 4
  0002d	3b ec		 cmp	 ebp, esp
  0002f	e8 00 00 00 00	 call	 __RTC_CheckEsp
  00034	8b e5		 mov	 esp, ebp
  00036	5d		 pop	 ebp
  00037	c2 04 00	 ret	 4
??_GCCWToolTips@@UAEPAXI@Z ENDP				; CCWToolTips::`scalar deleting destructor'
_TEXT	ENDS
EXTRN	??1CWnd@@UAE@XZ:NEAR				; CWnd::~CWnd
EXTRN	__imp_??1?$CStringT@DV?$StrTraitMFC_DLL@DV?$ChTraitsCRT@D@ATL@@@@@ATL@@QAE@XZ:NEAR
; Function compile flags: /Odt /RTCsu
_TEXT	SEGMENT
_this$ = -4						; size = 4
??1CCWToolTips@@UAE@XZ PROC NEAR			; CCWToolTips::~CCWToolTips
; _this$ = ecx

; 22   : {

  00120	55		 push	 ebp
  00121	8b ec		 mov	 ebp, esp
  00123	51		 push	 ecx
  00124	56		 push	 esi
  00125	c7 45 fc cc cc
	cc cc		 mov	 DWORD PTR [ebp-4], -858993460 ; ccccccccH
  0012c	89 4d fc	 mov	 DWORD PTR _this$[ebp], ecx
  0012f	8b 45 fc	 mov	 eax, DWORD PTR _this$[ebp]
  00132	c7 00 00 00 00
	00		 mov	 DWORD PTR [eax], OFFSET FLAT:??_7CCWToolTips@@6B@

; 23   : }

  00138	8b 4d fc	 mov	 ecx, DWORD PTR _this$[ebp]
  0013b	83 c1 64	 add	 ecx, 100		; 00000064H
  0013e	8b f4		 mov	 esi, esp
  00140	ff 15 00 00 00
	00		 call	 DWORD PTR __imp_??1?$CStringT@DV?$StrTraitMFC_DLL@DV?$ChTraitsCRT@D@ATL@@@@@ATL@@QAE@XZ
  00146	3b f4		 cmp	 esi, esp
  00148	e8 00 00 00 00	 call	 __RTC_CheckEsp
  0014d	8b 4d fc	 mov	 ecx, DWORD PTR _this$[ebp]
  00150	e8 00 00 00 00	 call	 ??1CWnd@@UAE@XZ		; CWnd::~CWnd
  00155	5e		 pop	 esi
  00156	83 c4 04	 add	 esp, 4
  00159	3b ec		 cmp	 ebp, esp
  0015b	e8 00 00 00 00	 call	 __RTC_CheckEsp
  00160	8b e5		 mov	 esp, ebp
  00162	5d		 pop	 ebp
  00163	c3		 ret	 0
??1CCWToolTips@@UAE@XZ ENDP				; CCWToolTips::~CCWToolTips
_TEXT	ENDS
PUBLIC	?GetThisMessageMap@CCWToolTips@@KGPBUAFX_MSGMAP@@XZ ; CCWToolTips::GetThisMessageMap
; Function compile flags: /Odt /RTCsu
_TEXT	SEGMENT
?GetThisMessageMap@CCWToolTips@@KGPBUAFX_MSGMAP@@XZ PROC NEAR ; CCWToolTips::GetThisMessageMap

; 25   : BEGIN_MESSAGE_MAP(CCWToolTips, CWnd)

  00170	55		 push	 ebp
  00171	8b ec		 mov	 ebp, esp
  00173	b8 00 00 00 00	 mov	 eax, OFFSET FLAT:?messageMap@CCWToolTips@@1UAFX_MSGMAP@@B ; CCWToolTips::messageMap
  00178	5d		 pop	 ebp
  00179	c3		 ret	 0
?GetThisMessageMap@CCWToolTips@@KGPBUAFX_MSGMAP@@XZ ENDP ; CCWToolTips::GetThisMessageMap
; Function compile flags: /Odt /RTCsu
_this$ = -4						; size = 4
?GetMessageMap@CCWToolTips@@MBEPBUAFX_MSGMAP@@XZ PROC NEAR ; CCWToolTips::GetMessageMap
; _this$ = ecx

; 25   : BEGIN_MESSAGE_MAP(CCWToolTips, CWnd)

  00180	55		 push	 ebp
  00181	8b ec		 mov	 ebp, esp
  00183	51		 push	 ecx
  00184	c7 45 fc cc cc
	cc cc		 mov	 DWORD PTR [ebp-4], -858993460 ; ccccccccH
  0018b	89 4d fc	 mov	 DWORD PTR _this$[ebp], ecx
  0018e	b8 00 00 00 00	 mov	 eax, OFFSET FLAT:?messageMap@CCWToolTips@@1UAFX_MSGMAP@@B ; CCWToolTips::messageMap
  00193	8b e5		 mov	 esp, ebp
  00195	5d		 pop	 ebp
  00196	c3		 ret	 0
?GetMessageMap@CCWToolTips@@MBEPBUAFX_MSGMAP@@XZ ENDP	; CCWToolTips::GetMessageMap
_TEXT	ENDS
PUBLIC	?SetChangeColor@CCWToolTips@@QAEXH@Z		; CCWToolTips::SetChangeColor
; Function compile flags: /Odt /RTCsu
_TEXT	SEGMENT
_this$ = -4						; size = 4
_bchange$ = 8						; size = 4
?SetChangeColor@CCWToolTips@@QAEXH@Z PROC NEAR		; CCWToolTips::SetChangeColor
; _this$ = ecx

; 34   : {

  001a0	55		 push	 ebp
  001a1	8b ec		 mov	 ebp, esp
  001a3	51		 push	 ecx
  001a4	c7 45 fc cc cc
	cc cc		 mov	 DWORD PTR [ebp-4], -858993460 ; ccccccccH
  001ab	89 4d fc	 mov	 DWORD PTR _this$[ebp], ecx

; 35   : 	m_bChangeColor = bchange;

  001ae	8b 45 fc	 mov	 eax, DWORD PTR _this$[ebp]
  001b1	8b 4d 08	 mov	 ecx, DWORD PTR _bchange$[ebp]
  001b4	89 88 8c 00 00
	00		 mov	 DWORD PTR [eax+140], ecx

; 36   : }

  001ba	8b e5		 mov	 esp, ebp
  001bc	5d		 pop	 ebp
  001bd	c2 04 00	 ret	 4
?SetChangeColor@CCWToolTips@@QAEXH@Z ENDP		; CCWToolTips::SetChangeColor
_TEXT	ENDS
PUBLIC	?DrawMultiLine@CCWToolTips@@QAEHV?$CStringT@DV?$StrTraitMFC_DLL@DV?$ChTraitsCRT@D@ATL@@@@@ATL@@VCRect@@AAVCDC@@@Z ; CCWToolTips::DrawMultiLine
EXTRN	__imp_?Right@?$CStringT@DV?$StrTraitMFC_DLL@DV?$ChTraitsCRT@D@ATL@@@@@ATL@@QBE?AV12@H@Z:NEAR
EXTRN	__imp_?Left@?$CStringT@DV?$StrTraitMFC_DLL@DV?$ChTraitsCRT@D@ATL@@@@@ATL@@QBE?AV12@H@Z:NEAR
EXTRN	?AfxGetUIManager@@YAPAVIUIManager@@XZ:NEAR	; AfxGetUIManager
EXTRN	??0CBrush@@QAE@K@Z:NEAR				; CBrush::CBrush
EXTRN	??1CBrush@@UAE@XZ:NEAR				; CBrush::~CBrush
EXTRN	??0CFont@@QAE@XZ:NEAR				; CFont::CFont
EXTRN	?CreatePointFont@CFont@@QAEHHPBDPAVCDC@@@Z:NEAR	; CFont::CreatePointFont
EXTRN	??1CFont@@UAE@XZ:NEAR				; CFont::~CFont
EXTRN	??0CPaintDC@@QAE@PAVCWnd@@@Z:NEAR		; CPaintDC::CPaintDC
EXTRN	??1CPaintDC@@UAE@XZ:NEAR			; CPaintDC::~CPaintDC
EXTRN	??0CRect@@QAE@HHHH@Z:NEAR			; CRect::CRect
EXTRN	??BCRect@@QAEPAUtagRECT@@XZ:NEAR		; CRect::operator tagRECT *
EXTRN	__except_list:DWORD
EXTRN	___security_cookie:DWORD
EXTRN	@_RTC_CheckStackVars@8:NEAR
EXTRN	@__security_check_cookie@4:NEAR
EXTRN	___CxxFrameHandler:NEAR
EXTRN	?GetClientRect@CWnd@@QBEXPAUtagRECT@@@Z:NEAR	; CWnd::GetClientRect
EXTRN	__imp_?GetLength@?$CSimpleStringT@D$00@ATL@@QBEHXZ:NEAR
EXTRN	?SelectObject@CDC@@QAEPAVCBrush@@PAV2@@Z:NEAR	; CDC::SelectObject
EXTRN	?SelectObject@CDC@@UAEPAVCFont@@PAV2@@Z:NEAR	; CDC::SelectObject
EXTRN	?SetBkMode@CDC@@QAEHH@Z:NEAR			; CDC::SetBkMode
EXTRN	?SetTextColor@CDC@@UAEKK@Z:NEAR			; CDC::SetTextColor
EXTRN	__imp_??0?$CStringT@DV?$StrTraitMFC_DLL@DV?$ChTraitsCRT@D@ATL@@@@@ATL@@QAE@ABV01@@Z:NEAR
EXTRN	__imp_??4?$CStringT@DV?$StrTraitMFC_DLL@DV?$ChTraitsCRT@D@ATL@@@@@ATL@@QAEAAV01@ABV01@@Z:NEAR
EXTRN	__imp_?Find@?$CStringT@DV?$StrTraitMFC_DLL@DV?$ChTraitsCRT@D@ATL@@@@@ATL@@QBEHPBDH@Z:NEAR
EXTRN	?FillRect@CDC@@QAEXPBUtagRECT@@PAVCBrush@@@Z:NEAR ; CDC::FillRect
xdata$x	SEGMENT
$T187898 DD	0ffffffffH
	DD	FLAT:$L187871
	DD	00H
	DD	FLAT:$L187872
	DD	01H
	DD	FLAT:$L187873
	DD	02H
	DD	FLAT:$L187874
	DD	03H
	DD	FLAT:$L187875
	DD	04H
	DD	FLAT:$L187877
$T187882 DD	019930520H
	DD	06H
	DD	FLAT:$T187898
	DD	2 DUP(00H)
	DD	2 DUP(00H)
; Function compile flags: /Odt /RTCsu
xdata$x	ENDS
_TEXT	SEGMENT
tv264 = -288						; size = 4
tv260 = -284						; size = 4
tv65 = -280						; size = 4
tv258 = -276						; size = 4
tv257 = -272						; size = 4
tv136 = -268						; size = 4
tv131 = -264						; size = 4
tv91 = -260						; size = 4
tv86 = -256						; size = 4
tv78 = -252						; size = 4
tv73 = -248						; size = 4
$T187870 = -244						; size = 4
$T187869 = -240						; size = 4
$T187868 = -236						; size = 4
_rows$187154 = -232					; size = 4
_temp$187152 = -224					; size = 4
_nowindex$ = -216					; size = 4
_textRect$ = -208					; size = 16
_tempStrInfo$ = -184					; size = 4
_pOldBrush$ = -176					; size = 4
_brush$ = -168						; size = 8
_rect$ = -152						; size = 16
_font$ = -128						; size = 8
_pDC$ = -116						; size = 4
_dc$ = -108						; size = 84
_this$ = -20						; size = 4
__$ArrayPad$ = -16					; size = 4
__$EHRec$ = -12						; size = 12
__$ReturnAddr$ = 4					; size = 4
?OnPaint@CCWToolTips@@QAEXXZ PROC NEAR			; CCWToolTips::OnPaint
; _this$ = ecx

; 38   : {

  001c0	55		 push	 ebp
  001c1	8b ec		 mov	 ebp, esp
  001c3	6a ff		 push	 -1
  001c5	68 00 00 00 00	 push	 __ehhandler$?OnPaint@CCWToolTips@@QAEXXZ
  001ca	64 a1 00 00 00
	00		 mov	 eax, DWORD PTR fs:__except_list
  001d0	50		 push	 eax
  001d1	64 89 25 00 00
	00 00		 mov	 DWORD PTR fs:__except_list, esp
  001d8	81 ec 14 01 00
	00		 sub	 esp, 276		; 00000114H
  001de	56		 push	 esi
  001df	57		 push	 edi
  001e0	51		 push	 ecx
  001e1	8d bd e0 fe ff
	ff		 lea	 edi, DWORD PTR [ebp-288]
  001e7	b9 45 00 00 00	 mov	 ecx, 69			; 00000045H
  001ec	b8 cc cc cc cc	 mov	 eax, -858993460		; ccccccccH
  001f1	f3 ab		 rep stosd
  001f3	59		 pop	 ecx
  001f4	a1 00 00 00 00	 mov	 eax, DWORD PTR ___security_cookie
  001f9	89 45 f0	 mov	 DWORD PTR __$ArrayPad$[ebp], eax
  001fc	89 4d ec	 mov	 DWORD PTR _this$[ebp], ecx

; 39   : 	CPaintDC dc(this); 

  001ff	8b 45 ec	 mov	 eax, DWORD PTR _this$[ebp]
  00202	50		 push	 eax
  00203	8d 4d 94	 lea	 ecx, DWORD PTR _dc$[ebp]
  00206	e8 00 00 00 00	 call	 ??0CPaintDC@@QAE@PAVCWnd@@@Z ; CPaintDC::CPaintDC
  0020b	c7 45 fc 00 00
	00 00		 mov	 DWORD PTR __$EHRec$[ebp+8], 0

; 40   : 	if(m_bChangeColor)

  00212	8b 4d ec	 mov	 ecx, DWORD PTR _this$[ebp]
  00215	83 b9 8c 00 00
	00 00		 cmp	 DWORD PTR [ecx+140], 0
  0021c	0f 84 f0 00 00
	00		 je	 $L187134

; 41   : 	{
; 42   : 		m_clrFontText = ::AfxGetUIManager()->UIGetSkinMgr()->GetColor("TooltipTextColor");

  00222	e8 00 00 00 00	 call	 ?AfxGetUIManager@@YAPAVIUIManager@@XZ ; AfxGetUIManager
  00227	89 85 08 ff ff
	ff		 mov	 DWORD PTR tv73[ebp], eax
  0022d	8b f4		 mov	 esi, esp
  0022f	8b 95 08 ff ff
	ff		 mov	 edx, DWORD PTR tv73[ebp]
  00235	8b 02		 mov	 eax, DWORD PTR [edx]
  00237	8b 8d 08 ff ff
	ff		 mov	 ecx, DWORD PTR tv73[ebp]
  0023d	ff 50 28	 call	 DWORD PTR [eax+40]
  00240	3b f4		 cmp	 esi, esp
  00242	e8 00 00 00 00	 call	 __RTC_CheckEsp
  00247	89 85 04 ff ff
	ff		 mov	 DWORD PTR tv78[ebp], eax
  0024d	8b f4		 mov	 esi, esp
  0024f	68 00 00 00 00	 push	 OFFSET FLAT:$SG187135
  00254	8b 8d 04 ff ff
	ff		 mov	 ecx, DWORD PTR tv78[ebp]
  0025a	8b 11		 mov	 edx, DWORD PTR [ecx]
  0025c	8b 8d 04 ff ff
	ff		 mov	 ecx, DWORD PTR tv78[ebp]
  00262	ff 52 08	 call	 DWORD PTR [edx+8]
  00265	3b f4		 cmp	 esi, esp
  00267	e8 00 00 00 00	 call	 __RTC_CheckEsp
  0026c	8b 4d ec	 mov	 ecx, DWORD PTR _this$[ebp]
  0026f	89 41 54	 mov	 DWORD PTR [ecx+84], eax

; 43   : 		m_clrBorder = ::AfxGetUIManager()->UIGetSkinMgr()->GetColor("TooltipBorderColor");

  00272	e8 00 00 00 00	 call	 ?AfxGetUIManager@@YAPAVIUIManager@@XZ ; AfxGetUIManager
  00277	89 85 00 ff ff
	ff		 mov	 DWORD PTR tv86[ebp], eax
  0027d	8b f4		 mov	 esi, esp
  0027f	8b 95 00 ff ff
	ff		 mov	 edx, DWORD PTR tv86[ebp]
  00285	8b 02		 mov	 eax, DWORD PTR [edx]
  00287	8b 8d 00 ff ff
	ff		 mov	 ecx, DWORD PTR tv86[ebp]
  0028d	ff 50 28	 call	 DWORD PTR [eax+40]
  00290	3b f4		 cmp	 esi, esp
  00292	e8 00 00 00 00	 call	 __RTC_CheckEsp
  00297	89 85 fc fe ff
	ff		 mov	 DWORD PTR tv91[ebp], eax
  0029d	8b f4		 mov	 esi, esp
  0029f	68 00 00 00 00	 push	 OFFSET FLAT:$SG187136
  002a4	8b 8d fc fe ff
	ff		 mov	 ecx, DWORD PTR tv91[ebp]
  002aa	8b 11		 mov	 edx, DWORD PTR [ecx]
  002ac	8b 8d fc fe ff
	ff		 mov	 ecx, DWORD PTR tv91[ebp]
  002b2	ff 52 08	 call	 DWORD PTR [edx+8]
  002b5	3b f4		 cmp	 esi, esp
  002b7	e8 00 00 00 00	 call	 __RTC_CheckEsp
  002bc	8b 4d ec	 mov	 ecx, DWORD PTR _this$[ebp]
  002bf	89 41 58	 mov	 DWORD PTR [ecx+88], eax

; 44   : 		m_clrBK = ::AfxGetUIManager()->UIGetSkinMgr()->GetColor("TooltipBKColor");

  002c2	e8 00 00 00 00	 call	 ?AfxGetUIManager@@YAPAVIUIManager@@XZ ; AfxGetUIManager
  002c7	89 85 f8 fe ff
	ff		 mov	 DWORD PTR tv131[ebp], eax
  002cd	8b f4		 mov	 esi, esp
  002cf	8b 95 f8 fe ff
	ff		 mov	 edx, DWORD PTR tv131[ebp]
  002d5	8b 02		 mov	 eax, DWORD PTR [edx]
  002d7	8b 8d f8 fe ff
	ff		 mov	 ecx, DWORD PTR tv131[ebp]
  002dd	ff 50 28	 call	 DWORD PTR [eax+40]
  002e0	3b f4		 cmp	 esi, esp
  002e2	e8 00 00 00 00	 call	 __RTC_CheckEsp
  002e7	89 85 f4 fe ff
	ff		 mov	 DWORD PTR tv136[ebp], eax
  002ed	8b f4		 mov	 esi, esp
  002ef	68 00 00 00 00	 push	 OFFSET FLAT:$SG187137
  002f4	8b 8d f4 fe ff
	ff		 mov	 ecx, DWORD PTR tv136[ebp]
  002fa	8b 11		 mov	 edx, DWORD PTR [ecx]
  002fc	8b 8d f4 fe ff
	ff		 mov	 ecx, DWORD PTR tv136[ebp]
  00302	ff 52 08	 call	 DWORD PTR [edx+8]
  00305	3b f4		 cmp	 esi, esp
  00307	e8 00 00 00 00	 call	 __RTC_CheckEsp
  0030c	8b 4d ec	 mov	 ecx, DWORD PTR _this$[ebp]
  0030f	89 41 5c	 mov	 DWORD PTR [ecx+92], eax
$L187134:

; 45   : 	}
; 46   : 	CDC *pDC = &dc;

  00312	8d 55 94	 lea	 edx, DWORD PTR _dc$[ebp]
  00315	89 55 8c	 mov	 DWORD PTR _pDC$[ebp], edx

; 47   : 	dc.SetBkMode(TRANSPARENT);	

  00318	6a 01		 push	 1
  0031a	8d 4d 94	 lea	 ecx, DWORD PTR _dc$[ebp]
  0031d	e8 00 00 00 00	 call	 ?SetBkMode@CDC@@QAEHH@Z	; CDC::SetBkMode

; 48   : 	CFont font;

  00322	8d 4d 80	 lea	 ecx, DWORD PTR _font$[ebp]
  00325	e8 00 00 00 00	 call	 ??0CFont@@QAE@XZ	; CFont::CFont
  0032a	c6 45 fc 01	 mov	 BYTE PTR __$EHRec$[ebp+8], 1

; 49   : 	font.CreatePointFont(90,_T("ו"));	

  0032e	6a 00		 push	 0
  00330	68 00 00 00 00	 push	 OFFSET FLAT:$SG187140
  00335	6a 5a		 push	 90			; 0000005aH
  00337	8d 4d 80	 lea	 ecx, DWORD PTR _font$[ebp]
  0033a	e8 00 00 00 00	 call	 ?CreatePointFont@CFont@@QAEHHPBDPAVCDC@@@Z ; CFont::CreatePointFont

; 50   : 	dc.SelectObject(&font);	

  0033f	8d 45 80	 lea	 eax, DWORD PTR _font$[ebp]
  00342	50		 push	 eax
  00343	8d 4d 94	 lea	 ecx, DWORD PTR _dc$[ebp]
  00346	e8 00 00 00 00	 call	 ?SelectObject@CDC@@UAEPAVCFont@@PAV2@@Z ; CDC::SelectObject

; 51   : 	CRect rect;

  0034b	8d 8d 68 ff ff
	ff		 lea	 ecx, DWORD PTR _rect$[ebp]
  00351	e8 00 00 00 00	 call	 ??0CRect@@QAE@XZ	; CRect::CRect

; 52   : 	GetClientRect(rect);	

  00356	8d 8d 68 ff ff
	ff		 lea	 ecx, DWORD PTR _rect$[ebp]
  0035c	e8 00 00 00 00	 call	 ??BCRect@@QAEPAUtagRECT@@XZ ; CRect::operator tagRECT *
  00361	50		 push	 eax
  00362	8b 4d ec	 mov	 ecx, DWORD PTR _this$[ebp]
  00365	e8 00 00 00 00	 call	 ?GetClientRect@CWnd@@QBEXPAUtagRECT@@@Z ; CWnd::GetClientRect

; 53   : //	rect.InflateRect(1,1,1,1);
; 54   : 	CBrush brush(m_clrBK);

  0036a	8b 4d ec	 mov	 ecx, DWORD PTR _this$[ebp]
  0036d	8b 51 5c	 mov	 edx, DWORD PTR [ecx+92]
  00370	52		 push	 edx
  00371	8d 8d 58 ff ff
	ff		 lea	 ecx, DWORD PTR _brush$[ebp]
  00377	e8 00 00 00 00	 call	 ??0CBrush@@QAE@K@Z	; CBrush::CBrush
  0037c	c6 45 fc 02	 mov	 BYTE PTR __$EHRec$[ebp+8], 2

; 55   : 	CBrush* pOldBrush = dc.SelectObject(&brush);

  00380	8d 85 58 ff ff
	ff		 lea	 eax, DWORD PTR _brush$[ebp]
  00386	50		 push	 eax
  00387	8d 4d 94	 lea	 ecx, DWORD PTR _dc$[ebp]
  0038a	e8 00 00 00 00	 call	 ?SelectObject@CDC@@QAEPAVCBrush@@PAV2@@Z ; CDC::SelectObject
  0038f	89 85 50 ff ff
	ff		 mov	 DWORD PTR _pOldBrush$[ebp], eax

; 56   : 	dc.FillRect(rect,&brush);

  00395	8d 8d 58 ff ff
	ff		 lea	 ecx, DWORD PTR _brush$[ebp]
  0039b	51		 push	 ecx
  0039c	8d 8d 68 ff ff
	ff		 lea	 ecx, DWORD PTR _rect$[ebp]
  003a2	e8 00 00 00 00	 call	 ??BCRect@@QAEPAUtagRECT@@XZ ; CRect::operator tagRECT *
  003a7	50		 push	 eax
  003a8	8d 4d 94	 lea	 ecx, DWORD PTR _dc$[ebp]
  003ab	e8 00 00 00 00	 call	 ?FillRect@CDC@@QAEXPBUtagRECT@@PAVCBrush@@@Z ; CDC::FillRect

; 57   : 	dc.SelectObject(pOldBrush);

  003b0	8b 95 50 ff ff
	ff		 mov	 edx, DWORD PTR _pOldBrush$[ebp]
  003b6	52		 push	 edx
  003b7	8d 4d 94	 lea	 ecx, DWORD PTR _dc$[ebp]
  003ba	e8 00 00 00 00	 call	 ?SelectObject@CDC@@QAEPAVCBrush@@PAV2@@Z ; CDC::SelectObject

; 58   : 
; 59   : 	CString tempStrInfo = m_strInfo;

  003bf	8b 45 ec	 mov	 eax, DWORD PTR _this$[ebp]
  003c2	83 c0 64	 add	 eax, 100		; 00000064H
  003c5	8b f4		 mov	 esi, esp
  003c7	50		 push	 eax
  003c8	8d 8d 48 ff ff
	ff		 lea	 ecx, DWORD PTR _tempStrInfo$[ebp]
  003ce	ff 15 00 00 00
	00		 call	 DWORD PTR __imp_??0?$CStringT@DV?$StrTraitMFC_DLL@DV?$ChTraitsCRT@D@ATL@@@@@ATL@@QAE@ABV01@@Z
  003d4	3b f4		 cmp	 esi, esp
  003d6	e8 00 00 00 00	 call	 __RTC_CheckEsp
  003db	c6 45 fc 03	 mov	 BYTE PTR __$EHRec$[ebp+8], 3

; 60   : 	CRect textRect = CRect(rect.left+5,rect.top+3,rect.right,rect.top + 23);

  003df	8b 8d 6c ff ff
	ff		 mov	 ecx, DWORD PTR _rect$[ebp+4]
  003e5	83 c1 17	 add	 ecx, 23			; 00000017H
  003e8	51		 push	 ecx
  003e9	8b 95 70 ff ff
	ff		 mov	 edx, DWORD PTR _rect$[ebp+8]
  003ef	52		 push	 edx
  003f0	8b 85 6c ff ff
	ff		 mov	 eax, DWORD PTR _rect$[ebp+4]
  003f6	83 c0 03	 add	 eax, 3
  003f9	50		 push	 eax
  003fa	8b 8d 68 ff ff
	ff		 mov	 ecx, DWORD PTR _rect$[ebp]
  00400	83 c1 05	 add	 ecx, 5
  00403	51		 push	 ecx
  00404	8d 8d 30 ff ff
	ff		 lea	 ecx, DWORD PTR _textRect$[ebp]
  0040a	e8 00 00 00 00	 call	 ??0CRect@@QAE@HHHH@Z	; CRect::CRect

; 61   : 	int nowindex = -1;

  0040f	c7 85 28 ff ff
	ff ff ff ff ff	 mov	 DWORD PTR _nowindex$[ebp], -1

; 62   : 	dc.SetTextColor(m_clrFontText);

  00419	8b 55 ec	 mov	 edx, DWORD PTR _this$[ebp]
  0041c	8b 42 54	 mov	 eax, DWORD PTR [edx+84]
  0041f	50		 push	 eax
  00420	8d 4d 94	 lea	 ecx, DWORD PTR _dc$[ebp]
  00423	e8 00 00 00 00	 call	 ?SetTextColor@CDC@@UAEKK@Z ; CDC::SetTextColor
$L187149:

; 63   : 	while((nowindex = tempStrInfo.Find("$#",0))!= -1)

  00428	8b f4		 mov	 esi, esp
  0042a	6a 00		 push	 0
  0042c	68 00 00 00 00	 push	 OFFSET FLAT:$SG187151
  00431	8d 8d 48 ff ff
	ff		 lea	 ecx, DWORD PTR _tempStrInfo$[ebp]
  00437	ff 15 00 00 00
	00		 call	 DWORD PTR __imp_?Find@?$CStringT@DV?$StrTraitMFC_DLL@DV?$ChTraitsCRT@D@ATL@@@@@ATL@@QBEHPBDH@Z
  0043d	3b f4		 cmp	 esi, esp
  0043f	e8 00 00 00 00	 call	 __RTC_CheckEsp
  00444	89 85 28 ff ff
	ff		 mov	 DWORD PTR _nowindex$[ebp], eax
  0044a	83 bd 28 ff ff
	ff ff		 cmp	 DWORD PTR _nowindex$[ebp], -1
  00451	0f 84 60 01 00
	00		 je	 $L187150

; 64   : 	{
; 65   : 		CString temp = tempStrInfo.Left(nowindex);		

  00457	8b f4		 mov	 esi, esp
  00459	8b 8d 28 ff ff
	ff		 mov	 ecx, DWORD PTR _nowindex$[ebp]
  0045f	51		 push	 ecx
  00460	8d 95 20 ff ff
	ff		 lea	 edx, DWORD PTR _temp$187152[ebp]
  00466	52		 push	 edx
  00467	8d 8d 48 ff ff
	ff		 lea	 ecx, DWORD PTR _tempStrInfo$[ebp]
  0046d	ff 15 00 00 00
	00		 call	 DWORD PTR __imp_?Left@?$CStringT@DV?$StrTraitMFC_DLL@DV?$ChTraitsCRT@D@ATL@@@@@ATL@@QBE?AV12@H@Z
  00473	3b f4		 cmp	 esi, esp
  00475	e8 00 00 00 00	 call	 __RTC_CheckEsp
  0047a	c6 45 fc 04	 mov	 BYTE PTR __$EHRec$[ebp+8], 4

; 66   : 		//dc.DrawText(temp,textRect,DT_NOPREFIX);
; 67   : 		int rows = DrawMultiLine(temp, textRect, dc );

  0047e	8d 45 94	 lea	 eax, DWORD PTR _dc$[ebp]
  00481	50		 push	 eax
  00482	83 ec 10	 sub	 esp, 16			; 00000010H
  00485	8b cc		 mov	 ecx, esp
  00487	8b 95 30 ff ff
	ff		 mov	 edx, DWORD PTR _textRect$[ebp]
  0048d	89 11		 mov	 DWORD PTR [ecx], edx
  0048f	8b 85 34 ff ff
	ff		 mov	 eax, DWORD PTR _textRect$[ebp+4]
  00495	89 41 04	 mov	 DWORD PTR [ecx+4], eax
  00498	8b 95 38 ff ff
	ff		 mov	 edx, DWORD PTR _textRect$[ebp+8]
  0049e	89 51 08	 mov	 DWORD PTR [ecx+8], edx
  004a1	8b 85 3c ff ff
	ff		 mov	 eax, DWORD PTR _textRect$[ebp+12]
  004a7	89 41 0c	 mov	 DWORD PTR [ecx+12], eax
  004aa	51		 push	 ecx
  004ab	8b cc		 mov	 ecx, esp
  004ad	89 a5 14 ff ff
	ff		 mov	 DWORD PTR $T187868[ebp], esp
  004b3	8b f4		 mov	 esi, esp
  004b5	8d 95 20 ff ff
	ff		 lea	 edx, DWORD PTR _temp$187152[ebp]
  004bb	52		 push	 edx
  004bc	ff 15 00 00 00
	00		 call	 DWORD PTR __imp_??0?$CStringT@DV?$StrTraitMFC_DLL@DV?$ChTraitsCRT@D@ATL@@@@@ATL@@QAE@ABV01@@Z
  004c2	3b f4		 cmp	 esi, esp
  004c4	e8 00 00 00 00	 call	 __RTC_CheckEsp
  004c9	89 85 f0 fe ff
	ff		 mov	 DWORD PTR tv257[ebp], eax
  004cf	8b 4d ec	 mov	 ecx, DWORD PTR _this$[ebp]
  004d2	e8 00 00 00 00	 call	 ?DrawMultiLine@CCWToolTips@@QAEHV?$CStringT@DV?$StrTraitMFC_DLL@DV?$ChTraitsCRT@D@ATL@@@@@ATL@@VCRect@@AAVCDC@@@Z ; CCWToolTips::DrawMultiLine
  004d7	89 85 ec fe ff
	ff		 mov	 DWORD PTR tv258[ebp], eax
  004dd	8b 85 ec fe ff
	ff		 mov	 eax, DWORD PTR tv258[ebp]
  004e3	89 85 18 ff ff
	ff		 mov	 DWORD PTR _rows$187154[ebp], eax

; 68   : 		textRect.top+= rows * LINE_HIGHT;

  004e9	8b 8d 18 ff ff
	ff		 mov	 ecx, DWORD PTR _rows$187154[ebp]
  004ef	6b c9 0f	 imul	 ecx, 15			; 0000000fH
  004f2	03 8d 34 ff ff
	ff		 add	 ecx, DWORD PTR _textRect$[ebp+4]
  004f8	89 8d 34 ff ff
	ff		 mov	 DWORD PTR _textRect$[ebp+4], ecx

; 69   : 		textRect.bottom += rows * LINE_HIGHT;	

  004fe	8b 95 18 ff ff
	ff		 mov	 edx, DWORD PTR _rows$187154[ebp]
  00504	6b d2 0f	 imul	 edx, 15			; 0000000fH
  00507	03 95 3c ff ff
	ff		 add	 edx, DWORD PTR _textRect$[ebp+12]
  0050d	89 95 3c ff ff
	ff		 mov	 DWORD PTR _textRect$[ebp+12], edx

; 70   : 		tempStrInfo = tempStrInfo.Right(tempStrInfo.GetLength() - 2 - nowindex);

  00513	8b f4		 mov	 esi, esp
  00515	8d 8d 48 ff ff
	ff		 lea	 ecx, DWORD PTR _tempStrInfo$[ebp]
  0051b	ff 15 00 00 00
	00		 call	 DWORD PTR __imp_?GetLength@?$CSimpleStringT@D$00@ATL@@QBEHXZ
  00521	3b f4		 cmp	 esi, esp
  00523	e8 00 00 00 00	 call	 __RTC_CheckEsp
  00528	83 e8 02	 sub	 eax, 2
  0052b	2b 85 28 ff ff
	ff		 sub	 eax, DWORD PTR _nowindex$[ebp]
  00531	8b f4		 mov	 esi, esp
  00533	50		 push	 eax
  00534	8d 85 10 ff ff
	ff		 lea	 eax, DWORD PTR $T187869[ebp]
  0053a	50		 push	 eax
  0053b	8d 8d 48 ff ff
	ff		 lea	 ecx, DWORD PTR _tempStrInfo$[ebp]
  00541	ff 15 00 00 00
	00		 call	 DWORD PTR __imp_?Right@?$CStringT@DV?$StrTraitMFC_DLL@DV?$ChTraitsCRT@D@ATL@@@@@ATL@@QBE?AV12@H@Z
  00547	3b f4		 cmp	 esi, esp
  00549	e8 00 00 00 00	 call	 __RTC_CheckEsp
  0054e	89 85 e8 fe ff
	ff		 mov	 DWORD PTR tv65[ebp], eax
  00554	8b 8d e8 fe ff
	ff		 mov	 ecx, DWORD PTR tv65[ebp]
  0055a	89 8d e4 fe ff
	ff		 mov	 DWORD PTR tv260[ebp], ecx
  00560	c6 45 fc 05	 mov	 BYTE PTR __$EHRec$[ebp+8], 5
  00564	8b f4		 mov	 esi, esp
  00566	8b 95 e4 fe ff
	ff		 mov	 edx, DWORD PTR tv260[ebp]
  0056c	52		 push	 edx
  0056d	8d 8d 48 ff ff
	ff		 lea	 ecx, DWORD PTR _tempStrInfo$[ebp]
  00573	ff 15 00 00 00
	00		 call	 DWORD PTR __imp_??4?$CStringT@DV?$StrTraitMFC_DLL@DV?$ChTraitsCRT@D@ATL@@@@@ATL@@QAEAAV01@ABV01@@Z
  00579	3b f4		 cmp	 esi, esp
  0057b	e8 00 00 00 00	 call	 __RTC_CheckEsp
  00580	c6 45 fc 04	 mov	 BYTE PTR __$EHRec$[ebp+8], 4
  00584	8b f4		 mov	 esi, esp
  00586	8d 8d 10 ff ff
	ff		 lea	 ecx, DWORD PTR $T187869[ebp]
  0058c	ff 15 00 00 00
	00		 call	 DWORD PTR __imp_??1?$CStringT@DV?$StrTraitMFC_DLL@DV?$ChTraitsCRT@D@ATL@@@@@ATL@@QAE@XZ
  00592	3b f4		 cmp	 esi, esp
  00594	e8 00 00 00 00	 call	 __RTC_CheckEsp

; 71   : 	}

  00599	c6 45 fc 03	 mov	 BYTE PTR __$EHRec$[ebp+8], 3
  0059d	8b f4		 mov	 esi, esp
  0059f	8d 8d 20 ff ff
	ff		 lea	 ecx, DWORD PTR _temp$187152[ebp]
  005a5	ff 15 00 00 00
	00		 call	 DWORD PTR __imp_??1?$CStringT@DV?$StrTraitMFC_DLL@DV?$ChTraitsCRT@D@ATL@@@@@ATL@@QAE@XZ
  005ab	3b f4		 cmp	 esi, esp
  005ad	e8 00 00 00 00	 call	 __RTC_CheckEsp
  005b2	e9 71 fe ff ff	 jmp	 $L187149
$L187150:

; 72   : 
; 73   : 	DrawMultiLine(tempStrInfo, textRect, dc );

  005b7	8d 45 94	 lea	 eax, DWORD PTR _dc$[ebp]
  005ba	50		 push	 eax
  005bb	83 ec 10	 sub	 esp, 16			; 00000010H
  005be	8b cc		 mov	 ecx, esp
  005c0	8b 95 30 ff ff
	ff		 mov	 edx, DWORD PTR _textRect$[ebp]
  005c6	89 11		 mov	 DWORD PTR [ecx], edx
  005c8	8b 85 34 ff ff
	ff		 mov	 eax, DWORD PTR _textRect$[ebp+4]
  005ce	89 41 04	 mov	 DWORD PTR [ecx+4], eax
  005d1	8b 95 38 ff ff
	ff		 mov	 edx, DWORD PTR _textRect$[ebp+8]
  005d7	89 51 08	 mov	 DWORD PTR [ecx+8], edx
  005da	8b 85 3c ff ff
	ff		 mov	 eax, DWORD PTR _textRect$[ebp+12]
  005e0	89 41 0c	 mov	 DWORD PTR [ecx+12], eax
  005e3	51		 push	 ecx
  005e4	8b cc		 mov	 ecx, esp
  005e6	89 a5 0c ff ff
	ff		 mov	 DWORD PTR $T187870[ebp], esp
  005ec	8b f4		 mov	 esi, esp
  005ee	8d 95 48 ff ff
	ff		 lea	 edx, DWORD PTR _tempStrInfo$[ebp]
  005f4	52		 push	 edx
  005f5	ff 15 00 00 00
	00		 call	 DWORD PTR __imp_??0?$CStringT@DV?$StrTraitMFC_DLL@DV?$ChTraitsCRT@D@ATL@@@@@ATL@@QAE@ABV01@@Z
  005fb	3b f4		 cmp	 esi, esp
  005fd	e8 00 00 00 00	 call	 __RTC_CheckEsp
  00602	89 85 e0 fe ff
	ff		 mov	 DWORD PTR tv264[ebp], eax
  00608	8b 4d ec	 mov	 ecx, DWORD PTR _this$[ebp]
  0060b	e8 00 00 00 00	 call	 ?DrawMultiLine@CCWToolTips@@QAEHV?$CStringT@DV?$StrTraitMFC_DLL@DV?$ChTraitsCRT@D@ATL@@@@@ATL@@VCRect@@AAVCDC@@@Z ; CCWToolTips::DrawMultiLine

; 74   : }

  00610	c6 45 fc 02	 mov	 BYTE PTR __$EHRec$[ebp+8], 2
  00614	8b f4		 mov	 esi, esp
  00616	8d 8d 48 ff ff
	ff		 lea	 ecx, DWORD PTR _tempStrInfo$[ebp]
  0061c	ff 15 00 00 00
	00		 call	 DWORD PTR __imp_??1?$CStringT@DV?$StrTraitMFC_DLL@DV?$ChTraitsCRT@D@ATL@@@@@ATL@@QAE@XZ
  00622	3b f4		 cmp	 esi, esp
  00624	e8 00 00 00 00	 call	 __RTC_CheckEsp
  00629	c6 45 fc 01	 mov	 BYTE PTR __$EHRec$[ebp+8], 1
  0062d	8d 8d 58 ff ff
	ff		 lea	 ecx, DWORD PTR _brush$[ebp]
  00633	e8 00 00 00 00	 call	 ??1CBrush@@UAE@XZ	; CBrush::~CBrush
  00638	c6 45 fc 00	 mov	 BYTE PTR __$EHRec$[ebp+8], 0
  0063c	8d 4d 80	 lea	 ecx, DWORD PTR _font$[ebp]
  0063f	e8 00 00 00 00	 call	 ??1CFont@@UAE@XZ	; CFont::~CFont
  00644	c7 45 fc ff ff
	ff ff		 mov	 DWORD PTR __$EHRec$[ebp+8], -1
  0064b	8d 4d 94	 lea	 ecx, DWORD PTR _dc$[ebp]
  0064e	e8 00 00 00 00	 call	 ??1CPaintDC@@UAE@XZ	; CPaintDC::~CPaintDC
  00653	52		 push	 edx
  00654	8b cd		 mov	 ecx, ebp
  00656	50		 push	 eax
  00657	8d 15 00 00 00
	00		 lea	 edx, DWORD PTR $L187895
  0065d	e8 00 00 00 00	 call	 @_RTC_CheckStackVars@8
  00662	58		 pop	 eax
  00663	5a		 pop	 edx
  00664	8b 4d f4	 mov	 ecx, DWORD PTR __$EHRec$[ebp]
  00667	64 89 0d 00 00
	00 00		 mov	 DWORD PTR fs:__except_list, ecx
  0066e	8b 4d f0	 mov	 ecx, DWORD PTR __$ArrayPad$[ebp]
  00671	e8 00 00 00 00	 call	 @__security_check_cookie@4
  00676	5f		 pop	 edi
  00677	5e		 pop	 esi
  00678	81 c4 20 01 00
	00		 add	 esp, 288		; 00000120H
  0067e	3b ec		 cmp	 ebp, esp
  00680	e8 00 00 00 00	 call	 __RTC_CheckEsp
  00685	8b e5		 mov	 esp, ebp
  00687	5d		 pop	 ebp
  00688	c3		 ret	 0
$L187895:
  00689	07 00 00 00	 DD	 7
  0068d	00 00 00 00	 DD	 $L187894
$L187894:
  00691	94 ff ff ff	 DD	 -108			; ffffff94H
  00695	54 00 00 00	 DD	 84			; 00000054H
  00699	00 00 00 00	 DD	 $L187883
  0069d	80 ff ff ff	 DD	 -128			; ffffff80H
  006a1	08 00 00 00	 DD	 8
  006a5	00 00 00 00	 DD	 $L187884
  006a9	68 ff ff ff	 DD	 -152			; ffffff68H
  006ad	10 00 00 00	 DD	 16			; 00000010H
  006b1	00 00 00 00	 DD	 $L187885
  006b5	58 ff ff ff	 DD	 -168			; ffffff58H
  006b9	08 00 00 00	 DD	 8
  006bd	00 00 00 00	 DD	 $L187886
  006c1	48 ff ff ff	 DD	 -184			; ffffff48H
  006c5	04 00 00 00	 DD	 4
  006c9	00 00 00 00	 DD	 $L187887
  006cd	30 ff ff ff	 DD	 -208			; ffffff30H
  006d1	10 00 00 00	 DD	 16			; 00000010H
  006d5	00 00 00 00	 DD	 $L187888
  006d9	20 ff ff ff	 DD	 -224			; ffffff20H
  006dd	04 00 00 00	 DD	 4
  006e1	00 00 00 00	 DD	 $L187889
$L187889:
  006e5	74		 DB	 116			; 00000074H
  006e6	65		 DB	 101			; 00000065H
  006e7	6d		 DB	 109			; 0000006dH
  006e8	70		 DB	 112			; 00000070H
  006e9	00		 DB	 0
$L187888:
  006ea	74		 DB	 116			; 00000074H
  006eb	65		 DB	 101			; 00000065H
  006ec	78		 DB	 120			; 00000078H
  006ed	74		 DB	 116			; 00000074H
  006ee	52		 DB	 82			; 00000052H
  006ef	65		 DB	 101			; 00000065H
  006f0	63		 DB	 99			; 00000063H
  006f1	74		 DB	 116			; 00000074H
  006f2	00		 DB	 0
$L187887:
  006f3	74		 DB	 116			; 00000074H
  006f4	65		 DB	 101			; 00000065H
  006f5	6d		 DB	 109			; 0000006dH
  006f6	70		 DB	 112			; 00000070H
  006f7	53		 DB	 83			; 00000053H
  006f8	74		 DB	 116			; 00000074H
  006f9	72		 DB	 114			; 00000072H
  006fa	49		 DB	 73			; 00000049H
  006fb	6e		 DB	 110			; 0000006eH
  006fc	66		 DB	 102			; 00000066H
  006fd	6f		 DB	 111			; 0000006fH
  006fe	00		 DB	 0
$L187886:
  006ff	62		 DB	 98			; 00000062H
  00700	72		 DB	 114			; 00000072H
  00701	75		 DB	 117			; 00000075H
  00702	73		 DB	 115			; 00000073H
  00703	68		 DB	 104			; 00000068H
  00704	00		 DB	 0
$L187885:
  00705	72		 DB	 114			; 00000072H
  00706	65		 DB	 101			; 00000065H
  00707	63		 DB	 99			; 00000063H
  00708	74		 DB	 116			; 00000074H
  00709	00		 DB	 0
$L187884:
  0070a	66		 DB	 102			; 00000066H
  0070b	6f		 DB	 111			; 0000006fH
  0070c	6e		 DB	 110			; 0000006eH
  0070d	74		 DB	 116			; 00000074H
  0070e	00		 DB	 0
$L187883:
  0070f	64		 DB	 100			; 00000064H
  00710	63		 DB	 99			; 00000063H
  00711	00		 DB	 0
_TEXT	ENDS
text$x	SEGMENT
$L187871:
  00000	8d 4d 94	 lea	 ecx, DWORD PTR _dc$[ebp]
  00003	e9 00 00 00 00	 jmp	 ??1CPaintDC@@UAE@XZ	; CPaintDC::~CPaintDC
$L187872:
  00008	8d 4d 80	 lea	 ecx, DWORD PTR _font$[ebp]
  0000b	e9 00 00 00 00	 jmp	 ??1CFont@@UAE@XZ	; CFont::~CFont
$L187873:
  00010	8d 8d 58 ff ff
	ff		 lea	 ecx, DWORD PTR _brush$[ebp]
  00016	e9 00 00 00 00	 jmp	 ??1CBrush@@UAE@XZ	; CBrush::~CBrush
$L187874:
  0001b	8b f4		 mov	 esi, esp
  0001d	8d 8d 48 ff ff
	ff		 lea	 ecx, DWORD PTR _tempStrInfo$[ebp]
  00023	ff 15 00 00 00
	00		 call	 DWORD PTR __imp_??1?$CStringT@DV?$StrTraitMFC_DLL@DV?$ChTraitsCRT@D@ATL@@@@@ATL@@QAE@XZ
  00029	3b f4		 cmp	 esi, esp
  0002b	e9 00 00 00 00	 jmp	 __RTC_CheckEsp
$L187875:
  00030	8b f4		 mov	 esi, esp
  00032	8d 8d 20 ff ff
	ff		 lea	 ecx, DWORD PTR _temp$187152[ebp]
  00038	ff 15 00 00 00
	00		 call	 DWORD PTR __imp_??1?$CStringT@DV?$StrTraitMFC_DLL@DV?$ChTraitsCRT@D@ATL@@@@@ATL@@QAE@XZ
  0003e	3b f4		 cmp	 esi, esp
  00040	e9 00 00 00 00	 jmp	 __RTC_CheckEsp
$L187877:
  00045	8b f4		 mov	 esi, esp
  00047	8d 8d 10 ff ff
	ff		 lea	 ecx, DWORD PTR $T187869[ebp]
  0004d	ff 15 00 00 00
	00		 call	 DWORD PTR __imp_??1?$CStringT@DV?$StrTraitMFC_DLL@DV?$ChTraitsCRT@D@ATL@@@@@ATL@@QAE@XZ
  00053	3b f4		 cmp	 esi, esp
  00055	e9 00 00 00 00	 jmp	 __RTC_CheckEsp
__ehhandler$?OnPaint@CCWToolTips@@QAEXXZ:
  0005a	b8 00 00 00 00	 mov	 eax, OFFSET FLAT:$T187882
  0005f	e9 00 00 00 00	 jmp	 ___CxxFrameHandler
text$x	ENDS
?OnPaint@CCWToolTips@@QAEXXZ ENDP			; CCWToolTips::OnPaint
EXTRN	?DrawTextA@CDC@@QAEHABV?$CStringT@DV?$StrTraitMFC_DLL@DV?$ChTraitsCRT@D@ATL@@@@@ATL@@PAUtagRECT@@I@Z:NEAR ; CDC::DrawTextA
EXTRN	?GetTextExtent@CDC@@QBE?AVCSize@@ABV?$CStringT@DV?$StrTraitMFC_DLL@DV?$ChTraitsCRT@D@ATL@@@@@ATL@@@Z:NEAR ; CDC::GetTextExtent
EXTRN	?Width@CRect@@QBEHXZ:NEAR			; CRect::Width
EXTRN	__imp_?GetBuffer@?$CSimpleStringT@D$00@ATL@@QAEPADXZ:NEAR
EXTRN	__imp_??0?$CStringT@DV?$StrTraitMFC_DLL@DV?$ChTraitsCRT@D@ATL@@@@@ATL@@QAE@PBD@Z:NEAR
EXTRN	__imp_??4?$CStringT@DV?$StrTraitMFC_DLL@DV?$ChTraitsCRT@D@ATL@@@@@ATL@@QAEAAV01@PBD@Z:NEAR
EXTRN	__imp_??Y?$CStringT@DV?$StrTraitMFC_DLL@DV?$ChTraitsCRT@D@ATL@@@@@ATL@@QAEAAV01@D@Z:NEAR
xdata$x	SEGMENT
$T187914 DD	0ffffffffH
	DD	FLAT:$L187903
	DD	00H
	DD	FLAT:$L187904
	DD	00H
	DD	FLAT:$L187905
$T187907 DD	019930520H
	DD	03H
	DD	FLAT:$T187914
	DD	2 DUP(00H)
	DD	2 DUP(00H)
; Function compile flags: /Odt /RTCsu
xdata$x	ENDS
_TEXT	SEGMENT
$T187902 = -96						; size = 4
$T187901 = -92						; size = 4
_i$187185 = -88						; size = 4
_isMultiByte$ = -84					; size = 4
_lastpos$ = -80						; size = 4
_line$ = -72						; size = 4
_total$ = -64						; size = 4
_p$ = -60						; size = 4
_pos$ = -56						; size = 4
_one$ = -48						; size = 8
_size$ = -32						; size = 8
_rows$ = -20						; size = 4
_this$ = -16						; size = 4
__$EHRec$ = -12						; size = 12
_tempStrInfo$ = 8					; size = 4
_textRect$ = 12						; size = 16
_dc$ = 28						; size = 4
?DrawMultiLine@CCWToolTips@@QAEHV?$CStringT@DV?$StrTraitMFC_DLL@DV?$ChTraitsCRT@D@ATL@@@@@ATL@@VCRect@@AAVCDC@@@Z PROC NEAR ; CCWToolTips::DrawMultiLine
; _this$ = ecx

; 78   : {

  00720	55		 push	 ebp
  00721	8b ec		 mov	 ebp, esp
  00723	6a ff		 push	 -1
  00725	68 00 00 00 00	 push	 __ehhandler$?DrawMultiLine@CCWToolTips@@QAEHV?$CStringT@DV?$StrTraitMFC_DLL@DV?$ChTraitsCRT@D@ATL@@@@@ATL@@VCRect@@AAVCDC@@@Z
  0072a	64 a1 00 00 00
	00		 mov	 eax, DWORD PTR fs:__except_list
  00730	50		 push	 eax
  00731	64 89 25 00 00
	00 00		 mov	 DWORD PTR fs:__except_list, esp
  00738	83 ec 54	 sub	 esp, 84			; 00000054H
  0073b	56		 push	 esi
  0073c	57		 push	 edi
  0073d	51		 push	 ecx
  0073e	8d 7d a0	 lea	 edi, DWORD PTR [ebp-96]
  00741	b9 15 00 00 00	 mov	 ecx, 21			; 00000015H
  00746	b8 cc cc cc cc	 mov	 eax, -858993460		; ccccccccH
  0074b	f3 ab		 rep stosd
  0074d	59		 pop	 ecx
  0074e	89 4d f0	 mov	 DWORD PTR _this$[ebp], ecx
  00751	c7 45 fc 00 00
	00 00		 mov	 DWORD PTR __$EHRec$[ebp+8], 0

; 79   : 	int rows = 0;

  00758	c7 45 ec 00 00
	00 00		 mov	 DWORD PTR _rows$[ebp], 0

; 80   : 	CSize size = dc.GetTextExtent(tempStrInfo);

  0075f	8d 45 08	 lea	 eax, DWORD PTR _tempStrInfo$[ebp]
  00762	50		 push	 eax
  00763	8d 4d e0	 lea	 ecx, DWORD PTR _size$[ebp]
  00766	51		 push	 ecx
  00767	8b 4d 1c	 mov	 ecx, DWORD PTR _dc$[ebp]
  0076a	e8 00 00 00 00	 call	 ?GetTextExtent@CDC@@QBE?AVCSize@@ABV?$CStringT@DV?$StrTraitMFC_DLL@DV?$ChTraitsCRT@D@ATL@@@@@ATL@@@Z ; CDC::GetTextExtent

; 81   : 	CSize one = dc.GetTextExtent("a");

  0076f	8b f4		 mov	 esi, esp
  00771	68 00 00 00 00	 push	 OFFSET FLAT:$SG187170
  00776	8d 4d a4	 lea	 ecx, DWORD PTR $T187901[ebp]
  00779	ff 15 00 00 00
	00		 call	 DWORD PTR __imp_??0?$CStringT@DV?$StrTraitMFC_DLL@DV?$ChTraitsCRT@D@ATL@@@@@ATL@@QAE@PBD@Z
  0077f	3b f4		 cmp	 esi, esp
  00781	e8 00 00 00 00	 call	 __RTC_CheckEsp
  00786	c6 45 fc 01	 mov	 BYTE PTR __$EHRec$[ebp+8], 1
  0078a	8d 55 a4	 lea	 edx, DWORD PTR $T187901[ebp]
  0078d	52		 push	 edx
  0078e	8d 45 d0	 lea	 eax, DWORD PTR _one$[ebp]
  00791	50		 push	 eax
  00792	8b 4d 1c	 mov	 ecx, DWORD PTR _dc$[ebp]
  00795	e8 00 00 00 00	 call	 ?GetTextExtent@CDC@@QBE?AVCSize@@ABV?$CStringT@DV?$StrTraitMFC_DLL@DV?$ChTraitsCRT@D@ATL@@@@@ATL@@@Z ; CDC::GetTextExtent
  0079a	c6 45 fc 00	 mov	 BYTE PTR __$EHRec$[ebp+8], 0
  0079e	8b f4		 mov	 esi, esp
  007a0	8d 4d a4	 lea	 ecx, DWORD PTR $T187901[ebp]
  007a3	ff 15 00 00 00
	00		 call	 DWORD PTR __imp_??1?$CStringT@DV?$StrTraitMFC_DLL@DV?$ChTraitsCRT@D@ATL@@@@@ATL@@QAE@XZ
  007a9	3b f4		 cmp	 esi, esp
  007ab	e8 00 00 00 00	 call	 __RTC_CheckEsp

; 82   : 
; 83   : 	textRect.right -= one.cx;

  007b0	8b 4d 14	 mov	 ecx, DWORD PTR _textRect$[ebp+8]
  007b3	2b 4d d0	 sub	 ecx, DWORD PTR _one$[ebp]
  007b6	89 4d 14	 mov	 DWORD PTR _textRect$[ebp+8], ecx

; 84   : 	int pos = textRect.Width()/one.cx - 1;

  007b9	8d 4d 0c	 lea	 ecx, DWORD PTR _textRect$[ebp]
  007bc	e8 00 00 00 00	 call	 ?Width@CRect@@QBEHXZ	; CRect::Width
  007c1	99		 cdq
  007c2	f7 7d d0	 idiv	 DWORD PTR _one$[ebp]
  007c5	83 e8 01	 sub	 eax, 1
  007c8	89 45 c8	 mov	 DWORD PTR _pos$[ebp], eax

; 85   : 	LPTSTR p = tempStrInfo.GetBuffer();

  007cb	8b f4		 mov	 esi, esp
  007cd	8d 4d 08	 lea	 ecx, DWORD PTR _tempStrInfo$[ebp]
  007d0	ff 15 00 00 00
	00		 call	 DWORD PTR __imp_?GetBuffer@?$CSimpleStringT@D$00@ATL@@QAEPADXZ
  007d6	3b f4		 cmp	 esi, esp
  007d8	e8 00 00 00 00	 call	 __RTC_CheckEsp
  007dd	89 45 c4	 mov	 DWORD PTR _p$[ebp], eax

; 86   : 	int total = 0;

  007e0	c7 45 c0 00 00
	00 00		 mov	 DWORD PTR _total$[ebp], 0
$L187175:

; 87   : 	while(p[total] != 0)

  007e7	8b 55 c4	 mov	 edx, DWORD PTR _p$[ebp]
  007ea	03 55 c0	 add	 edx, DWORD PTR _total$[ebp]
  007ed	0f be 02	 movsx	 eax, BYTE PTR [edx]
  007f0	85 c0		 test	 eax, eax
  007f2	74 0b		 je	 SHORT $L187176

; 88   : 	{
; 89   : 		total ++;

  007f4	8b 4d c0	 mov	 ecx, DWORD PTR _total$[ebp]
  007f7	83 c1 01	 add	 ecx, 1
  007fa	89 4d c0	 mov	 DWORD PTR _total$[ebp], ecx

; 90   : 	}

  007fd	eb e8		 jmp	 SHORT $L187175
$L187176:

; 91   : 
; 92   : 	CString line;

  007ff	8b f4		 mov	 esi, esp
  00801	8d 4d b8	 lea	 ecx, DWORD PTR _line$[ebp]
  00804	ff 15 00 00 00
	00		 call	 DWORD PTR __imp_??0?$CStringT@DV?$StrTraitMFC_DLL@DV?$ChTraitsCRT@D@ATL@@@@@ATL@@QAE@XZ
  0080a	3b f4		 cmp	 esi, esp
  0080c	e8 00 00 00 00	 call	 __RTC_CheckEsp
  00811	c6 45 fc 02	 mov	 BYTE PTR __$EHRec$[ebp+8], 2

; 93   : 	int lastpos = 0;

  00815	c7 45 b0 00 00
	00 00		 mov	 DWORD PTR _lastpos$[ebp], 0

; 94   : 	int isMultiByte = 0;

  0081c	c7 45 ac 00 00
	00 00		 mov	 DWORD PTR _isMultiByte$[ebp], 0

; 95   : 	if(textRect.Width() < size.cx)

  00823	8d 4d 0c	 lea	 ecx, DWORD PTR _textRect$[ebp]
  00826	e8 00 00 00 00	 call	 ?Width@CRect@@QBEHXZ	; CRect::Width
  0082b	3b 45 e0	 cmp	 eax, DWORD PTR _size$[ebp]
  0082e	0f 8d 17 01 00
	00		 jge	 $L187180

; 96   : 	{
; 97   : 		textRect.right += 2;

  00834	8b 55 14	 mov	 edx, DWORD PTR _textRect$[ebp+8]
  00837	83 c2 02	 add	 edx, 2
  0083a	89 55 14	 mov	 DWORD PTR _textRect$[ebp+8], edx
$L187182:

; 98   : 		while(lastpos < total)

  0083d	8b 45 b0	 mov	 eax, DWORD PTR _lastpos$[ebp]
  00840	3b 45 c0	 cmp	 eax, DWORD PTR _total$[ebp]
  00843	0f 8d 00 01 00
	00		 jge	 $L187183

; 99   : 		{
; 100  : 			if(pos > total)

  00849	8b 4d c8	 mov	 ecx, DWORD PTR _pos$[ebp]
  0084c	3b 4d c0	 cmp	 ecx, DWORD PTR _total$[ebp]
  0084f	7e 09		 jle	 SHORT $L187184

; 101  : 				pos = total - 1;

  00851	8b 55 c0	 mov	 edx, DWORD PTR _total$[ebp]
  00854	83 ea 01	 sub	 edx, 1
  00857	89 55 c8	 mov	 DWORD PTR _pos$[ebp], edx
$L187184:

; 102  : 			for(int i = lastpos ; i<pos+1; i++ )

  0085a	8b 45 b0	 mov	 eax, DWORD PTR _lastpos$[ebp]
  0085d	89 45 a8	 mov	 DWORD PTR _i$187185[ebp], eax
  00860	eb 09		 jmp	 SHORT $L187186
$L187187:
  00862	8b 4d a8	 mov	 ecx, DWORD PTR _i$187185[ebp]
  00865	83 c1 01	 add	 ecx, 1
  00868	89 4d a8	 mov	 DWORD PTR _i$187185[ebp], ecx
$L187186:
  0086b	8b 55 c8	 mov	 edx, DWORD PTR _pos$[ebp]
  0086e	83 c2 01	 add	 edx, 1
  00871	39 55 a8	 cmp	 DWORD PTR _i$187185[ebp], edx
  00874	7d 63		 jge	 SHORT $L187188

; 103  : 			{
; 104  : 				line += p[i];

  00876	8b 45 c4	 mov	 eax, DWORD PTR _p$[ebp]
  00879	03 45 a8	 add	 eax, DWORD PTR _i$187185[ebp]
  0087c	8b f4		 mov	 esi, esp
  0087e	8a 08		 mov	 cl, BYTE PTR [eax]
  00880	51		 push	 ecx
  00881	8d 4d b8	 lea	 ecx, DWORD PTR _line$[ebp]
  00884	ff 15 00 00 00
	00		 call	 DWORD PTR __imp_??Y?$CStringT@DV?$StrTraitMFC_DLL@DV?$ChTraitsCRT@D@ATL@@@@@ATL@@QAEAAV01@D@Z
  0088a	3b f4		 cmp	 esi, esp
  0088c	e8 00 00 00 00	 call	 __RTC_CheckEsp

; 105  : 				if(p[i] & 0x80)

  00891	8b 55 c4	 mov	 edx, DWORD PTR _p$[ebp]
  00894	03 55 a8	 add	 edx, DWORD PTR _i$187185[ebp]
  00897	0f be 02	 movsx	 eax, BYTE PTR [edx]
  0089a	25 80 00 00 00	 and	 eax, 128		; 00000080H
  0089f	74 36		 je	 SHORT $L187189

; 106  : 				{
; 107  : 					line += p[i+1];

  008a1	8b 4d c4	 mov	 ecx, DWORD PTR _p$[ebp]
  008a4	03 4d a8	 add	 ecx, DWORD PTR _i$187185[ebp]
  008a7	8b f4		 mov	 esi, esp
  008a9	8a 51 01	 mov	 dl, BYTE PTR [ecx+1]
  008ac	52		 push	 edx
  008ad	8d 4d b8	 lea	 ecx, DWORD PTR _line$[ebp]
  008b0	ff 15 00 00 00
	00		 call	 DWORD PTR __imp_??Y?$CStringT@DV?$StrTraitMFC_DLL@DV?$ChTraitsCRT@D@ATL@@@@@ATL@@QAEAAV01@D@Z
  008b6	3b f4		 cmp	 esi, esp
  008b8	e8 00 00 00 00	 call	 __RTC_CheckEsp

; 108  : 					if(i == pos)

  008bd	8b 45 a8	 mov	 eax, DWORD PTR _i$187185[ebp]
  008c0	3b 45 c8	 cmp	 eax, DWORD PTR _pos$[ebp]
  008c3	75 09		 jne	 SHORT $L187190

; 109  : 						pos ++;

  008c5	8b 4d c8	 mov	 ecx, DWORD PTR _pos$[ebp]
  008c8	83 c1 01	 add	 ecx, 1
  008cb	89 4d c8	 mov	 DWORD PTR _pos$[ebp], ecx
$L187190:

; 110  : 					i++;

  008ce	8b 55 a8	 mov	 edx, DWORD PTR _i$187185[ebp]
  008d1	83 c2 01	 add	 edx, 1
  008d4	89 55 a8	 mov	 DWORD PTR _i$187185[ebp], edx
$L187189:

; 111  : 				}
; 112  : 			}

  008d7	eb 89		 jmp	 SHORT $L187187
$L187188:

; 113  : 
; 114  : 			lastpos = pos+1;

  008d9	8b 45 c8	 mov	 eax, DWORD PTR _pos$[ebp]
  008dc	83 c0 01	 add	 eax, 1
  008df	89 45 b0	 mov	 DWORD PTR _lastpos$[ebp], eax

; 115  : 			dc.DrawText(line,textRect,DT_NOPREFIX);

  008e2	68 00 08 00 00	 push	 2048			; 00000800H
  008e7	8d 4d 0c	 lea	 ecx, DWORD PTR _textRect$[ebp]
  008ea	e8 00 00 00 00	 call	 ??BCRect@@QAEPAUtagRECT@@XZ ; CRect::operator tagRECT *
  008ef	50		 push	 eax
  008f0	8d 4d b8	 lea	 ecx, DWORD PTR _line$[ebp]
  008f3	51		 push	 ecx
  008f4	8b 4d 1c	 mov	 ecx, DWORD PTR _dc$[ebp]
  008f7	e8 00 00 00 00	 call	 ?DrawTextA@CDC@@QAEHABV?$CStringT@DV?$StrTraitMFC_DLL@DV?$ChTraitsCRT@D@ATL@@@@@ATL@@PAUtagRECT@@I@Z ; CDC::DrawTextA

; 116  : 			rows ++;

  008fc	8b 55 ec	 mov	 edx, DWORD PTR _rows$[ebp]
  008ff	83 c2 01	 add	 edx, 1
  00902	89 55 ec	 mov	 DWORD PTR _rows$[ebp], edx

; 117  : 
; 118  : 			line = "";

  00905	8b f4		 mov	 esi, esp
  00907	68 00 00 00 00	 push	 OFFSET FLAT:$SG187191
  0090c	8d 4d b8	 lea	 ecx, DWORD PTR _line$[ebp]
  0090f	ff 15 00 00 00
	00		 call	 DWORD PTR __imp_??4?$CStringT@DV?$StrTraitMFC_DLL@DV?$ChTraitsCRT@D@ATL@@@@@ATL@@QAEAAV01@PBD@Z
  00915	3b f4		 cmp	 esi, esp
  00917	e8 00 00 00 00	 call	 __RTC_CheckEsp

; 119  : 			textRect.top += LINE_HIGHT;

  0091c	8b 45 10	 mov	 eax, DWORD PTR _textRect$[ebp+4]
  0091f	83 c0 0f	 add	 eax, 15			; 0000000fH
  00922	89 45 10	 mov	 DWORD PTR _textRect$[ebp+4], eax

; 120  : 			textRect.bottom += LINE_HIGHT;

  00925	8b 4d 18	 mov	 ecx, DWORD PTR _textRect$[ebp+12]
  00928	83 c1 0f	 add	 ecx, 15			; 0000000fH
  0092b	89 4d 18	 mov	 DWORD PTR _textRect$[ebp+12], ecx

; 121  : 			pos += textRect.Width()/one.cx - 1;

  0092e	8d 4d 0c	 lea	 ecx, DWORD PTR _textRect$[ebp]
  00931	e8 00 00 00 00	 call	 ?Width@CRect@@QBEHXZ	; CRect::Width
  00936	99		 cdq
  00937	f7 7d d0	 idiv	 DWORD PTR _one$[ebp]
  0093a	8b 55 c8	 mov	 edx, DWORD PTR _pos$[ebp]
  0093d	8d 44 02 ff	 lea	 eax, DWORD PTR [edx+eax-1]
  00941	89 45 c8	 mov	 DWORD PTR _pos$[ebp], eax

; 122  : 		}

  00944	e9 f4 fe ff ff	 jmp	 $L187182
$L187183:

; 123  : 	}
; 124  : 	else

  00949	eb 23		 jmp	 SHORT $L187192
$L187180:

; 125  : 	{
; 126  : 		rows ++;

  0094b	8b 4d ec	 mov	 ecx, DWORD PTR _rows$[ebp]
  0094e	83 c1 01	 add	 ecx, 1
  00951	89 4d ec	 mov	 DWORD PTR _rows$[ebp], ecx

; 127  : 		dc.DrawText(tempStrInfo,textRect,DT_NOPREFIX);

  00954	68 00 08 00 00	 push	 2048			; 00000800H
  00959	8d 4d 0c	 lea	 ecx, DWORD PTR _textRect$[ebp]
  0095c	e8 00 00 00 00	 call	 ??BCRect@@QAEPAUtagRECT@@XZ ; CRect::operator tagRECT *
  00961	50		 push	 eax
  00962	8d 55 08	 lea	 edx, DWORD PTR _tempStrInfo$[ebp]
  00965	52		 push	 edx
  00966	8b 4d 1c	 mov	 ecx, DWORD PTR _dc$[ebp]
  00969	e8 00 00 00 00	 call	 ?DrawTextA@CDC@@QAEHABV?$CStringT@DV?$StrTraitMFC_DLL@DV?$ChTraitsCRT@D@ATL@@@@@ATL@@PAUtagRECT@@I@Z ; CDC::DrawTextA
$L187192:

; 128  : 	}
; 129  : 
; 130  : 	return rows;

  0096e	8b 45 ec	 mov	 eax, DWORD PTR _rows$[ebp]
  00971	89 45 a0	 mov	 DWORD PTR $T187902[ebp], eax
  00974	c6 45 fc 00	 mov	 BYTE PTR __$EHRec$[ebp+8], 0
  00978	8b f4		 mov	 esi, esp
  0097a	8d 4d b8	 lea	 ecx, DWORD PTR _line$[ebp]
  0097d	ff 15 00 00 00
	00		 call	 DWORD PTR __imp_??1?$CStringT@DV?$StrTraitMFC_DLL@DV?$ChTraitsCRT@D@ATL@@@@@ATL@@QAE@XZ
  00983	3b f4		 cmp	 esi, esp
  00985	e8 00 00 00 00	 call	 __RTC_CheckEsp
  0098a	c7 45 fc ff ff
	ff ff		 mov	 DWORD PTR __$EHRec$[ebp+8], -1
  00991	8b f4		 mov	 esi, esp
  00993	8d 4d 08	 lea	 ecx, DWORD PTR _tempStrInfo$[ebp]
  00996	ff 15 00 00 00
	00		 call	 DWORD PTR __imp_??1?$CStringT@DV?$StrTraitMFC_DLL@DV?$ChTraitsCRT@D@ATL@@@@@ATL@@QAE@XZ
  0099c	3b f4		 cmp	 esi, esp
  0099e	e8 00 00 00 00	 call	 __RTC_CheckEsp
  009a3	8b 45 a0	 mov	 eax, DWORD PTR $T187902[ebp]

; 131  : }

  009a6	52		 push	 edx
  009a7	8b cd		 mov	 ecx, ebp
  009a9	50		 push	 eax
  009aa	8d 15 00 00 00
	00		 lea	 edx, DWORD PTR $L187913
  009b0	e8 00 00 00 00	 call	 @_RTC_CheckStackVars@8
  009b5	58		 pop	 eax
  009b6	5a		 pop	 edx
  009b7	8b 4d f4	 mov	 ecx, DWORD PTR __$EHRec$[ebp]
  009ba	64 89 0d 00 00
	00 00		 mov	 DWORD PTR fs:__except_list, ecx
  009c1	5f		 pop	 edi
  009c2	5e		 pop	 esi
  009c3	83 c4 60	 add	 esp, 96			; 00000060H
  009c6	3b ec		 cmp	 ebp, esp
  009c8	e8 00 00 00 00	 call	 __RTC_CheckEsp
  009cd	8b e5		 mov	 esp, ebp
  009cf	5d		 pop	 ebp
  009d0	c2 18 00	 ret	 24			; 00000018H
$L187913:
  009d3	03 00 00 00	 DD	 3
  009d7	00 00 00 00	 DD	 $L187912
$L187912:
  009db	e0 ff ff ff	 DD	 -32			; ffffffe0H
  009df	08 00 00 00	 DD	 8
  009e3	00 00 00 00	 DD	 $L187908
  009e7	d0 ff ff ff	 DD	 -48			; ffffffd0H
  009eb	08 00 00 00	 DD	 8
  009ef	00 00 00 00	 DD	 $L187909
  009f3	b8 ff ff ff	 DD	 -72			; ffffffb8H
  009f7	04 00 00 00	 DD	 4
  009fb	00 00 00 00	 DD	 $L187910
$L187910:
  009ff	6c		 DB	 108			; 0000006cH
  00a00	69		 DB	 105			; 00000069H
  00a01	6e		 DB	 110			; 0000006eH
  00a02	65		 DB	 101			; 00000065H
  00a03	00		 DB	 0
$L187909:
  00a04	6f		 DB	 111			; 0000006fH
  00a05	6e		 DB	 110			; 0000006eH
  00a06	65		 DB	 101			; 00000065H
  00a07	00		 DB	 0
$L187908:
  00a08	73		 DB	 115			; 00000073H
  00a09	69		 DB	 105			; 00000069H
  00a0a	7a		 DB	 122			; 0000007aH
  00a0b	65		 DB	 101			; 00000065H
  00a0c	00		 DB	 0
_TEXT	ENDS
text$x	SEGMENT
$L187903:
  00064	8b f4		 mov	 esi, esp
  00066	8d 4d 08	 lea	 ecx, DWORD PTR _tempStrInfo$[ebp]
  00069	ff 15 00 00 00
	00		 call	 DWORD PTR __imp_??1?$CStringT@DV?$StrTraitMFC_DLL@DV?$ChTraitsCRT@D@ATL@@@@@ATL@@QAE@XZ
  0006f	3b f4		 cmp	 esi, esp
  00071	e9 00 00 00 00	 jmp	 __RTC_CheckEsp
$L187904:
  00076	8b f4		 mov	 esi, esp
  00078	8d 4d a4	 lea	 ecx, DWORD PTR $T187901[ebp]
  0007b	ff 15 00 00 00
	00		 call	 DWORD PTR __imp_??1?$CStringT@DV?$StrTraitMFC_DLL@DV?$ChTraitsCRT@D@ATL@@@@@ATL@@QAE@XZ
  00081	3b f4		 cmp	 esi, esp
  00083	e9 00 00 00 00	 jmp	 __RTC_CheckEsp
$L187905:
  00088	8b f4		 mov	 esi, esp
  0008a	8d 4d b8	 lea	 ecx, DWORD PTR _line$[ebp]
  0008d	ff 15 00 00 00
	00		 call	 DWORD PTR __imp_??1?$CStringT@DV?$StrTraitMFC_DLL@DV?$ChTraitsCRT@D@ATL@@@@@ATL@@QAE@XZ
  00093	3b f4		 cmp	 esi, esp
  00095	e9 00 00 00 00	 jmp	 __RTC_CheckEsp
__ehhandler$?DrawMultiLine@CCWToolTips@@QAEHV?$CStringT@DV?$StrTraitMFC_DLL@DV?$ChTraitsCRT@D@ATL@@@@@ATL@@VCRect@@AAVCDC@@@Z:
  0009a	b8 00 00 00 00	 mov	 eax, OFFSET FLAT:$T187907
  0009f	e9 00 00 00 00	 jmp	 ___CxxFrameHandler
text$x	ENDS
?DrawMultiLine@CCWToolTips@@QAEHV?$CStringT@DV?$StrTraitMFC_DLL@DV?$ChTraitsCRT@D@ATL@@@@@ATL@@VCRect@@AAVCDC@@@Z ENDP ; CCWToolTips::DrawMultiLine
PUBLIC	?ShowToolTips@CCWToolTips@@QAEXV?$CStringT@DV?$StrTraitMFC_DLL@DV?$ChTraitsCRT@D@ATL@@@@@ATL@@VCPoint@@VCRect@@H@Z ; CCWToolTips::ShowToolTips
EXTRN	?SetTimer@CWnd@@QAEIIIP6GXPAUHWND__@@IIK@Z@Z:NEAR ; CWnd::SetTimer
xdata$x	SEGMENT
$T187920 DD	0ffffffffH
	DD	FLAT:$L187916
$T187918 DD	019930520H
	DD	01H
	DD	FLAT:$T187920
	DD	2 DUP(00H)
	DD	2 DUP(00H)
; Function compile flags: /Odt /RTCsu
xdata$x	ENDS
_TEXT	SEGMENT
_this$ = -16						; size = 4
__$EHRec$ = -12						; size = 12
_info$ = 8						; size = 4
_point$ = 12						; size = 8
_rect$ = 20						; size = 16
_type$ = 36						; size = 4
?ShowToolTips@CCWToolTips@@QAEXV?$CStringT@DV?$StrTraitMFC_DLL@DV?$ChTraitsCRT@D@ATL@@@@@ATL@@VCPoint@@VCRect@@H@Z PROC NEAR ; CCWToolTips::ShowToolTips
; _this$ = ecx

; 133  : {

  00a10	55		 push	 ebp
  00a11	8b ec		 mov	 ebp, esp
  00a13	6a ff		 push	 -1
  00a15	68 00 00 00 00	 push	 __ehhandler$?ShowToolTips@CCWToolTips@@QAEXV?$CStringT@DV?$StrTraitMFC_DLL@DV?$ChTraitsCRT@D@ATL@@@@@ATL@@VCPoint@@VCRect@@H@Z
  00a1a	64 a1 00 00 00
	00		 mov	 eax, DWORD PTR fs:__except_list
  00a20	50		 push	 eax
  00a21	64 89 25 00 00
	00 00		 mov	 DWORD PTR fs:__except_list, esp
  00a28	51		 push	 ecx
  00a29	56		 push	 esi
  00a2a	c7 45 f0 cc cc
	cc cc		 mov	 DWORD PTR [ebp-16], -858993460 ; ccccccccH
  00a31	89 4d f0	 mov	 DWORD PTR _this$[ebp], ecx
  00a34	c7 45 fc 00 00
	00 00		 mov	 DWORD PTR __$EHRec$[ebp+8], 0

; 134  : 	SetTimer(ID_TEMER_TOOLTIPS,m_nTimer,NULL);

  00a3b	6a 00		 push	 0
  00a3d	8b 45 f0	 mov	 eax, DWORD PTR _this$[ebp]
  00a40	8b 88 84 00 00
	00		 mov	 ecx, DWORD PTR [eax+132]
  00a46	51		 push	 ecx
  00a47	68 e6 00 00 00	 push	 230			; 000000e6H
  00a4c	8b 4d f0	 mov	 ecx, DWORD PTR _this$[ebp]
  00a4f	e8 00 00 00 00	 call	 ?SetTimer@CWnd@@QAEIIIP6GXPAUHWND__@@IIK@Z@Z ; CWnd::SetTimer

; 135  : 	m_rcRange = rect;

  00a54	8b 55 f0	 mov	 edx, DWORD PTR _this$[ebp]
  00a57	83 c2 70	 add	 edx, 112		; 00000070H
  00a5a	8b 45 14	 mov	 eax, DWORD PTR _rect$[ebp]
  00a5d	89 02		 mov	 DWORD PTR [edx], eax
  00a5f	8b 4d 18	 mov	 ecx, DWORD PTR _rect$[ebp+4]
  00a62	89 4a 04	 mov	 DWORD PTR [edx+4], ecx
  00a65	8b 45 1c	 mov	 eax, DWORD PTR _rect$[ebp+8]
  00a68	89 42 08	 mov	 DWORD PTR [edx+8], eax
  00a6b	8b 4d 20	 mov	 ecx, DWORD PTR _rect$[ebp+12]
  00a6e	89 4a 0c	 mov	 DWORD PTR [edx+12], ecx

; 136  : 	m_type = type;

  00a71	8b 55 f0	 mov	 edx, DWORD PTR _this$[ebp]
  00a74	8b 45 24	 mov	 eax, DWORD PTR _type$[ebp]
  00a77	89 82 80 00 00
	00		 mov	 DWORD PTR [edx+128], eax

; 137  : 	m_lastPoint = point;

  00a7d	8b 4d f0	 mov	 ecx, DWORD PTR _this$[ebp]
  00a80	8b 55 0c	 mov	 edx, DWORD PTR _point$[ebp]
  00a83	89 51 68	 mov	 DWORD PTR [ecx+104], edx
  00a86	8b 45 10	 mov	 eax, DWORD PTR _point$[ebp+4]
  00a89	89 41 6c	 mov	 DWORD PTR [ecx+108], eax

; 138  : 	m_strInfo = info;

  00a8c	8b f4		 mov	 esi, esp
  00a8e	8d 4d 08	 lea	 ecx, DWORD PTR _info$[ebp]
  00a91	51		 push	 ecx
  00a92	8b 4d f0	 mov	 ecx, DWORD PTR _this$[ebp]
  00a95	83 c1 64	 add	 ecx, 100		; 00000064H
  00a98	ff 15 00 00 00
	00		 call	 DWORD PTR __imp_??4?$CStringT@DV?$StrTraitMFC_DLL@DV?$ChTraitsCRT@D@ATL@@@@@ATL@@QAEAAV01@ABV01@@Z
  00a9e	3b f4		 cmp	 esi, esp
  00aa0	e8 00 00 00 00	 call	 __RTC_CheckEsp

; 139  : }

  00aa5	c7 45 fc ff ff
	ff ff		 mov	 DWORD PTR __$EHRec$[ebp+8], -1
  00aac	8b f4		 mov	 esi, esp
  00aae	8d 4d 08	 lea	 ecx, DWORD PTR _info$[ebp]
  00ab1	ff 15 00 00 00
	00		 call	 DWORD PTR __imp_??1?$CStringT@DV?$StrTraitMFC_DLL@DV?$ChTraitsCRT@D@ATL@@@@@ATL@@QAE@XZ
  00ab7	3b f4		 cmp	 esi, esp
  00ab9	e8 00 00 00 00	 call	 __RTC_CheckEsp
  00abe	8b 4d f4	 mov	 ecx, DWORD PTR __$EHRec$[ebp]
  00ac1	64 89 0d 00 00
	00 00		 mov	 DWORD PTR fs:__except_list, ecx
  00ac8	5e		 pop	 esi
  00ac9	83 c4 10	 add	 esp, 16			; 00000010H
  00acc	3b ec		 cmp	 ebp, esp
  00ace	e8 00 00 00 00	 call	 __RTC_CheckEsp
  00ad3	8b e5		 mov	 esp, ebp
  00ad5	5d		 pop	 ebp
  00ad6	c2 20 00	 ret	 32			; 00000020H
_TEXT	ENDS
text$x	SEGMENT
$L187916:
  000a4	8b f4		 mov	 esi, esp
  000a6	8d 4d 08	 lea	 ecx, DWORD PTR _info$[ebp]
  000a9	ff 15 00 00 00
	00		 call	 DWORD PTR __imp_??1?$CStringT@DV?$StrTraitMFC_DLL@DV?$ChTraitsCRT@D@ATL@@@@@ATL@@QAE@XZ
  000af	3b f4		 cmp	 esi, esp
  000b1	e9 00 00 00 00	 jmp	 __RTC_CheckEsp
__ehhandler$?ShowToolTips@CCWToolTips@@QAEXV?$CStringT@DV?$StrTraitMFC_DLL@DV?$ChTraitsCRT@D@ATL@@@@@ATL@@VCPoint@@VCRect@@H@Z:
  000b6	b8 00 00 00 00	 mov	 eax, OFFSET FLAT:$T187918
  000bb	e9 00 00 00 00	 jmp	 ___CxxFrameHandler
text$x	ENDS
?ShowToolTips@CCWToolTips@@QAEXV?$CStringT@DV?$StrTraitMFC_DLL@DV?$ChTraitsCRT@D@ATL@@@@@ATL@@VCPoint@@VCRect@@H@Z ENDP ; CCWToolTips::ShowToolTips
PUBLIC	?ShowToolTips@CCWToolTips@@QAEXV?$CStringT@DV?$StrTraitMFC_DLL@DV?$ChTraitsCRT@D@ATL@@@@@ATL@@VCPoint@@H@Z ; CCWToolTips::ShowToolTips
xdata$x	SEGMENT
$T187927 DD	0ffffffffH
	DD	FLAT:$L187923
$T187925 DD	019930520H
	DD	01H
	DD	FLAT:$T187927
	DD	2 DUP(00H)
	DD	2 DUP(00H)
; Function compile flags: /Odt /RTCsu
xdata$x	ENDS
_TEXT	SEGMENT
$T187922 = -32						; size = 16
_this$ = -16						; size = 4
__$EHRec$ = -12						; size = 12
_info$ = 8						; size = 4
_point$ = 12						; size = 8
_type$ = 20						; size = 4
?ShowToolTips@CCWToolTips@@QAEXV?$CStringT@DV?$StrTraitMFC_DLL@DV?$ChTraitsCRT@D@ATL@@@@@ATL@@VCPoint@@H@Z PROC NEAR ; CCWToolTips::ShowToolTips
; _this$ = ecx

; 142  : {

  00ae0	55		 push	 ebp
  00ae1	8b ec		 mov	 ebp, esp
  00ae3	6a ff		 push	 -1
  00ae5	68 00 00 00 00	 push	 __ehhandler$?ShowToolTips@CCWToolTips@@QAEXV?$CStringT@DV?$StrTraitMFC_DLL@DV?$ChTraitsCRT@D@ATL@@@@@ATL@@VCPoint@@H@Z
  00aea	64 a1 00 00 00
	00		 mov	 eax, DWORD PTR fs:__except_list
  00af0	50		 push	 eax
  00af1	64 89 25 00 00
	00 00		 mov	 DWORD PTR fs:__except_list, esp
  00af8	83 ec 14	 sub	 esp, 20			; 00000014H
  00afb	56		 push	 esi
  00afc	b8 cc cc cc cc	 mov	 eax, -858993460		; ccccccccH
  00b01	89 45 e0	 mov	 DWORD PTR [ebp-32], eax
  00b04	89 45 e4	 mov	 DWORD PTR [ebp-28], eax
  00b07	89 45 e8	 mov	 DWORD PTR [ebp-24], eax
  00b0a	89 45 ec	 mov	 DWORD PTR [ebp-20], eax
  00b0d	89 45 f0	 mov	 DWORD PTR [ebp-16], eax
  00b10	89 4d f0	 mov	 DWORD PTR _this$[ebp], ecx
  00b13	c7 45 fc 00 00
	00 00		 mov	 DWORD PTR __$EHRec$[ebp+8], 0

; 143  : 	SetTimer(ID_TEMER_TOOLTIPS,m_nTimer,NULL);

  00b1a	6a 00		 push	 0
  00b1c	8b 45 f0	 mov	 eax, DWORD PTR _this$[ebp]
  00b1f	8b 88 84 00 00
	00		 mov	 ecx, DWORD PTR [eax+132]
  00b25	51		 push	 ecx
  00b26	68 e6 00 00 00	 push	 230			; 000000e6H
  00b2b	8b 4d f0	 mov	 ecx, DWORD PTR _this$[ebp]
  00b2e	e8 00 00 00 00	 call	 ?SetTimer@CWnd@@QAEIIIP6GXPAUHWND__@@IIK@Z@Z ; CWnd::SetTimer

; 144  : 	m_rcRange = CRect(0,0,0,0);

  00b33	6a 00		 push	 0
  00b35	6a 00		 push	 0
  00b37	6a 00		 push	 0
  00b39	6a 00		 push	 0
  00b3b	8d 4d e0	 lea	 ecx, DWORD PTR $T187922[ebp]
  00b3e	e8 00 00 00 00	 call	 ??0CRect@@QAE@HHHH@Z	; CRect::CRect
  00b43	8b 55 f0	 mov	 edx, DWORD PTR _this$[ebp]
  00b46	83 c2 70	 add	 edx, 112		; 00000070H
  00b49	8b 08		 mov	 ecx, DWORD PTR [eax]
  00b4b	89 0a		 mov	 DWORD PTR [edx], ecx
  00b4d	8b 48 04	 mov	 ecx, DWORD PTR [eax+4]
  00b50	89 4a 04	 mov	 DWORD PTR [edx+4], ecx
  00b53	8b 48 08	 mov	 ecx, DWORD PTR [eax+8]
  00b56	89 4a 08	 mov	 DWORD PTR [edx+8], ecx
  00b59	8b 40 0c	 mov	 eax, DWORD PTR [eax+12]
  00b5c	89 42 0c	 mov	 DWORD PTR [edx+12], eax

; 145  : 	m_type = type;

  00b5f	8b 4d f0	 mov	 ecx, DWORD PTR _this$[ebp]
  00b62	8b 55 14	 mov	 edx, DWORD PTR _type$[ebp]
  00b65	89 91 80 00 00
	00		 mov	 DWORD PTR [ecx+128], edx

; 146  : 	m_lastPoint = point;

  00b6b	8b 45 f0	 mov	 eax, DWORD PTR _this$[ebp]
  00b6e	8b 4d 0c	 mov	 ecx, DWORD PTR _point$[ebp]
  00b71	89 48 68	 mov	 DWORD PTR [eax+104], ecx
  00b74	8b 55 10	 mov	 edx, DWORD PTR _point$[ebp+4]
  00b77	89 50 6c	 mov	 DWORD PTR [eax+108], edx

; 147  : 	m_strInfo = info;

  00b7a	8b f4		 mov	 esi, esp
  00b7c	8d 45 08	 lea	 eax, DWORD PTR _info$[ebp]
  00b7f	50		 push	 eax
  00b80	8b 4d f0	 mov	 ecx, DWORD PTR _this$[ebp]
  00b83	83 c1 64	 add	 ecx, 100		; 00000064H
  00b86	ff 15 00 00 00
	00		 call	 DWORD PTR __imp_??4?$CStringT@DV?$StrTraitMFC_DLL@DV?$ChTraitsCRT@D@ATL@@@@@ATL@@QAEAAV01@ABV01@@Z
  00b8c	3b f4		 cmp	 esi, esp
  00b8e	e8 00 00 00 00	 call	 __RTC_CheckEsp

; 148  : }

  00b93	c7 45 fc ff ff
	ff ff		 mov	 DWORD PTR __$EHRec$[ebp+8], -1
  00b9a	8b f4		 mov	 esi, esp
  00b9c	8d 4d 08	 lea	 ecx, DWORD PTR _info$[ebp]
  00b9f	ff 15 00 00 00
	00		 call	 DWORD PTR __imp_??1?$CStringT@DV?$StrTraitMFC_DLL@DV?$ChTraitsCRT@D@ATL@@@@@ATL@@QAE@XZ
  00ba5	3b f4		 cmp	 esi, esp
  00ba7	e8 00 00 00 00	 call	 __RTC_CheckEsp
  00bac	8b 4d f4	 mov	 ecx, DWORD PTR __$EHRec$[ebp]
  00baf	64 89 0d 00 00
	00 00		 mov	 DWORD PTR fs:__except_list, ecx
  00bb6	5e		 pop	 esi
  00bb7	83 c4 20	 add	 esp, 32			; 00000020H
  00bba	3b ec		 cmp	 ebp, esp
  00bbc	e8 00 00 00 00	 call	 __RTC_CheckEsp
  00bc1	8b e5		 mov	 esp, ebp
  00bc3	5d		 pop	 ebp
  00bc4	c2 10 00	 ret	 16			; 00000010H
_TEXT	ENDS
text$x	SEGMENT
$L187923:
  000c0	8b f4		 mov	 esi, esp
  000c2	8d 4d 08	 lea	 ecx, DWORD PTR _info$[ebp]
  000c5	ff 15 00 00 00
	00		 call	 DWORD PTR __imp_??1?$CStringT@DV?$StrTraitMFC_DLL@DV?$ChTraitsCRT@D@ATL@@@@@ATL@@QAE@XZ
  000cb	3b f4		 cmp	 esi, esp
  000cd	e9 00 00 00 00	 jmp	 __RTC_CheckEsp
__ehhandler$?ShowToolTips@CCWToolTips@@QAEXV?$CStringT@DV?$StrTraitMFC_DLL@DV?$ChTraitsCRT@D@ATL@@@@@ATL@@VCPoint@@H@Z:
  000d2	b8 00 00 00 00	 mov	 eax, OFFSET FLAT:$T187925
  000d7	e9 00 00 00 00	 jmp	 ___CxxFrameHandler
text$x	ENDS
?ShowToolTips@CCWToolTips@@QAEXV?$CStringT@DV?$StrTraitMFC_DLL@DV?$ChTraitsCRT@D@ATL@@@@@ATL@@VCPoint@@H@Z ENDP ; CCWToolTips::ShowToolTips
PUBLIC	?HideTooTips@CCWToolTips@@QAEXXZ		; CCWToolTips::HideTooTips
EXTRN	__imp__IsWindow@4:NEAR
EXTRN	?ShowWindow@CWnd@@QAEHH@Z:NEAR			; CWnd::ShowWindow
EXTRN	?KillTimer@CWnd@@QAEHI@Z:NEAR			; CWnd::KillTimer
; Function compile flags: /Odt /RTCsu
_TEXT	SEGMENT
_this$ = -4						; size = 4
?HideTooTips@CCWToolTips@@QAEXXZ PROC NEAR		; CCWToolTips::HideTooTips
; _this$ = ecx

; 151  : {

  00bd0	55		 push	 ebp
  00bd1	8b ec		 mov	 ebp, esp
  00bd3	51		 push	 ecx
  00bd4	56		 push	 esi
  00bd5	c7 45 fc cc cc
	cc cc		 mov	 DWORD PTR [ebp-4], -858993460 ; ccccccccH
  00bdc	89 4d fc	 mov	 DWORD PTR _this$[ebp], ecx

; 152  : 	if(IsWindow(m_hWnd))

  00bdf	8b f4		 mov	 esi, esp
  00be1	8b 45 fc	 mov	 eax, DWORD PTR _this$[ebp]
  00be4	8b 48 20	 mov	 ecx, DWORD PTR [eax+32]
  00be7	51		 push	 ecx
  00be8	ff 15 00 00 00
	00		 call	 DWORD PTR __imp__IsWindow@4
  00bee	3b f4		 cmp	 esi, esp
  00bf0	e8 00 00 00 00	 call	 __RTC_CheckEsp
  00bf5	85 c0		 test	 eax, eax
  00bf7	74 17		 je	 SHORT $L187210

; 153  : 	{
; 154  : 		this->ShowWindow(SW_HIDE);

  00bf9	6a 00		 push	 0
  00bfb	8b 4d fc	 mov	 ecx, DWORD PTR _this$[ebp]
  00bfe	e8 00 00 00 00	 call	 ?ShowWindow@CWnd@@QAEHH@Z ; CWnd::ShowWindow

; 155  : 		KillTimer(ID_TEMER_TOOLTIPS);

  00c03	68 e6 00 00 00	 push	 230			; 000000e6H
  00c08	8b 4d fc	 mov	 ecx, DWORD PTR _this$[ebp]
  00c0b	e8 00 00 00 00	 call	 ?KillTimer@CWnd@@QAEHI@Z ; CWnd::KillTimer
$L187210:

; 156  : 	}
; 157  : }

  00c10	5e		 pop	 esi
  00c11	83 c4 04	 add	 esp, 4
  00c14	3b ec		 cmp	 ebp, esp
  00c16	e8 00 00 00 00	 call	 __RTC_CheckEsp
  00c1b	8b e5		 mov	 esp, ebp
  00c1d	5d		 pop	 ebp
  00c1e	c3		 ret	 0
?HideTooTips@CCWToolTips@@QAEXXZ ENDP			; CCWToolTips::HideTooTips
_TEXT	ENDS
PUBLIC	?ShowToolTips@CCWToolTips@@QAEXV?$CStringT@DV?$StrTraitMFC_DLL@DV?$ChTraitsCRT@D@ATL@@@@@ATL@@VCRect@@H@Z ; CCWToolTips::ShowToolTips
EXTRN	?Height@CRect@@QBEHXZ:NEAR			; CRect::Height
EXTRN	__imp_?wndTopMost@CWnd@@2V1@B:BYTE
EXTRN	?SetWindowPos@CWnd@@QAEHPBV1@HHHHI@Z:NEAR	; CWnd::SetWindowPos
xdata$x	SEGMENT
$T187934 DD	0ffffffffH
	DD	FLAT:$L187930
$T187932 DD	019930520H
	DD	01H
	DD	FLAT:$T187934
	DD	2 DUP(00H)
	DD	2 DUP(00H)
; Function compile flags: /Odt /RTCsu
xdata$x	ENDS
_TEXT	SEGMENT
_this$ = -16						; size = 4
__$EHRec$ = -12						; size = 12
_info$ = 8						; size = 4
_rect$ = 12						; size = 16
_timeout$ = 28						; size = 4
?ShowToolTips@CCWToolTips@@QAEXV?$CStringT@DV?$StrTraitMFC_DLL@DV?$ChTraitsCRT@D@ATL@@@@@ATL@@VCRect@@H@Z PROC NEAR ; CCWToolTips::ShowToolTips
; _this$ = ecx

; 160  : {

  00c20	55		 push	 ebp
  00c21	8b ec		 mov	 ebp, esp
  00c23	6a ff		 push	 -1
  00c25	68 00 00 00 00	 push	 __ehhandler$?ShowToolTips@CCWToolTips@@QAEXV?$CStringT@DV?$StrTraitMFC_DLL@DV?$ChTraitsCRT@D@ATL@@@@@ATL@@VCRect@@H@Z
  00c2a	64 a1 00 00 00
	00		 mov	 eax, DWORD PTR fs:__except_list
  00c30	50		 push	 eax
  00c31	64 89 25 00 00
	00 00		 mov	 DWORD PTR fs:__except_list, esp
  00c38	51		 push	 ecx
  00c39	56		 push	 esi
  00c3a	c7 45 f0 cc cc
	cc cc		 mov	 DWORD PTR [ebp-16], -858993460 ; ccccccccH
  00c41	89 4d f0	 mov	 DWORD PTR _this$[ebp], ecx
  00c44	c7 45 fc 00 00
	00 00		 mov	 DWORD PTR __$EHRec$[ebp+8], 0

; 161  : 	m_strInfo = info;

  00c4b	8b f4		 mov	 esi, esp
  00c4d	8d 45 08	 lea	 eax, DWORD PTR _info$[ebp]
  00c50	50		 push	 eax
  00c51	8b 4d f0	 mov	 ecx, DWORD PTR _this$[ebp]
  00c54	83 c1 64	 add	 ecx, 100		; 00000064H
  00c57	ff 15 00 00 00
	00		 call	 DWORD PTR __imp_??4?$CStringT@DV?$StrTraitMFC_DLL@DV?$ChTraitsCRT@D@ATL@@@@@ATL@@QAEAAV01@ABV01@@Z
  00c5d	3b f4		 cmp	 esi, esp
  00c5f	e8 00 00 00 00	 call	 __RTC_CheckEsp

; 162  : 	SetWindowPos(&wndTopMost,rect.left,rect.top,rect.Width(),rect.Height(), SWP_NOACTIVATE);

  00c64	6a 10		 push	 16			; 00000010H
  00c66	8d 4d 0c	 lea	 ecx, DWORD PTR _rect$[ebp]
  00c69	e8 00 00 00 00	 call	 ?Height@CRect@@QBEHXZ	; CRect::Height
  00c6e	50		 push	 eax
  00c6f	8d 4d 0c	 lea	 ecx, DWORD PTR _rect$[ebp]
  00c72	e8 00 00 00 00	 call	 ?Width@CRect@@QBEHXZ	; CRect::Width
  00c77	50		 push	 eax
  00c78	8b 4d 10	 mov	 ecx, DWORD PTR _rect$[ebp+4]
  00c7b	51		 push	 ecx
  00c7c	8b 55 0c	 mov	 edx, DWORD PTR _rect$[ebp]
  00c7f	52		 push	 edx
  00c80	a1 00 00 00 00	 mov	 eax, DWORD PTR __imp_?wndTopMost@CWnd@@2V1@B
  00c85	50		 push	 eax
  00c86	8b 4d f0	 mov	 ecx, DWORD PTR _this$[ebp]
  00c89	e8 00 00 00 00	 call	 ?SetWindowPos@CWnd@@QAEHPBV1@HHHHI@Z ; CWnd::SetWindowPos

; 163  : 	ShowWindow(SW_SHOWNOACTIVATE);

  00c8e	6a 04		 push	 4
  00c90	8b 4d f0	 mov	 ecx, DWORD PTR _this$[ebp]
  00c93	e8 00 00 00 00	 call	 ?ShowWindow@CWnd@@QAEHH@Z ; CWnd::ShowWindow

; 164  : 	SetTimer(ID_TIMER_HIDE, timeout, NULL);

  00c98	6a 00		 push	 0
  00c9a	8b 4d 1c	 mov	 ecx, DWORD PTR _timeout$[ebp]
  00c9d	51		 push	 ecx
  00c9e	68 e7 00 00 00	 push	 231			; 000000e7H
  00ca3	8b 4d f0	 mov	 ecx, DWORD PTR _this$[ebp]
  00ca6	e8 00 00 00 00	 call	 ?SetTimer@CWnd@@QAEIIIP6GXPAUHWND__@@IIK@Z@Z ; CWnd::SetTimer

; 165  : 	OnPaint();

  00cab	8b 4d f0	 mov	 ecx, DWORD PTR _this$[ebp]
  00cae	e8 00 00 00 00	 call	 ?OnPaint@CCWToolTips@@QAEXXZ ; CCWToolTips::OnPaint

; 166  : 	//Invalidate();
; 167  : }

  00cb3	c7 45 fc ff ff
	ff ff		 mov	 DWORD PTR __$EHRec$[ebp+8], -1
  00cba	8b f4		 mov	 esi, esp
  00cbc	8d 4d 08	 lea	 ecx, DWORD PTR _info$[ebp]
  00cbf	ff 15 00 00 00
	00		 call	 DWORD PTR __imp_??1?$CStringT@DV?$StrTraitMFC_DLL@DV?$ChTraitsCRT@D@ATL@@@@@ATL@@QAE@XZ
  00cc5	3b f4		 cmp	 esi, esp
  00cc7	e8 00 00 00 00	 call	 __RTC_CheckEsp
  00ccc	8b 4d f4	 mov	 ecx, DWORD PTR __$EHRec$[ebp]
  00ccf	64 89 0d 00 00
	00 00		 mov	 DWORD PTR fs:__except_list, ecx
  00cd6	5e		 pop	 esi
  00cd7	83 c4 10	 add	 esp, 16			; 00000010H
  00cda	3b ec		 cmp	 ebp, esp
  00cdc	e8 00 00 00 00	 call	 __RTC_CheckEsp
  00ce1	8b e5		 mov	 esp, ebp
  00ce3	5d		 pop	 ebp
  00ce4	c2 18 00	 ret	 24			; 00000018H
_TEXT	ENDS
text$x	SEGMENT
$L187930:
  000dc	8b f4		 mov	 esi, esp
  000de	8d 4d 08	 lea	 ecx, DWORD PTR _info$[ebp]
  000e1	ff 15 00 00 00
	00		 call	 DWORD PTR __imp_??1?$CStringT@DV?$StrTraitMFC_DLL@DV?$ChTraitsCRT@D@ATL@@@@@ATL@@QAE@XZ
  000e7	3b f4		 cmp	 esi, esp
  000e9	e9 00 00 00 00	 jmp	 __RTC_CheckEsp
__ehhandler$?ShowToolTips@CCWToolTips@@QAEXV?$CStringT@DV?$StrTraitMFC_DLL@DV?$ChTraitsCRT@D@ATL@@@@@ATL@@VCRect@@H@Z:
  000ee	b8 00 00 00 00	 mov	 eax, OFFSET FLAT:$T187932
  000f3	e9 00 00 00 00	 jmp	 ___CxxFrameHandler
text$x	ENDS
?ShowToolTips@CCWToolTips@@QAEXV?$CStringT@DV?$StrTraitMFC_DLL@DV?$ChTraitsCRT@D@ATL@@@@@ATL@@VCRect@@H@Z ENDP ; CCWToolTips::ShowToolTips
EXTRN	??8CPoint@@QBEHUtagPOINT@@@Z:NEAR		; CPoint::operator==
EXTRN	??0CRect@@QAE@UtagPOINT@@0@Z:NEAR		; CRect::CRect
EXTRN	?PtInRect@CRect@@QBEHUtagPOINT@@@Z:NEAR		; CRect::PtInRect
EXTRN	?OnTimer@CWnd@@IAEXI@Z:NEAR			; CWnd::OnTimer
EXTRN	??8CRect@@QBEHABUtagRECT@@@Z:NEAR		; CRect::operator==
EXTRN	__imp__GetCursorPos@4:NEAR
EXTRN	?ClientToScreen@CWnd@@QBEXPAUtagPOINT@@@Z:NEAR	; CWnd::ClientToScreen
EXTRN	?ClientToScreen@CWnd@@QBEXPAUtagRECT@@@Z:NEAR	; CWnd::ClientToScreen
EXTRN	?ScreenToClient@CWnd@@QBEXPAUtagRECT@@@Z:NEAR	; CWnd::ScreenToClient
EXTRN	?Invalidate@CWnd@@QAEXH@Z:NEAR			; CWnd::Invalidate
EXTRN	?GetParent@CWnd@@QBEPAV1@XZ:NEAR		; CWnd::GetParent
xdata$x	SEGMENT
$T187967 DD	0ffffffffH
	DD	FLAT:$L187944
	DD	00H
	DD	FLAT:$L187945
	DD	01H
	DD	FLAT:$L187946
	DD	02H
	DD	FLAT:$L187947
	DD	03H
	DD	FLAT:$L187948
$T187950 DD	019930520H
	DD	05H
	DD	FLAT:$T187967
	DD	2 DUP(00H)
	DD	2 DUP(00H)
; Function compile flags: /Odt /RTCsu
xdata$x	ENDS
_TEXT	SEGMENT
tv313 = -400						; size = 4
tv314 = -396						; size = 4
$T187943 = -392						; size = 8
$T187942 = -384						; size = 8
$T187941 = -376						; size = 16
$T187940 = -360						; size = 4
$T187939 = -356						; size = 8
$T187938 = -348						; size = 8
$T187937 = -340						; size = 16
_mainRect$187264 = -320					; size = 16
_clientRect$187263 = -296				; size = 16
_rectNew$187262 = -272					; size = 16
_point$187261 = -248					; size = 8
_opoint$187260 = -232					; size = 8
_size$187255 = -216					; size = 8
_size$187250 = -200					; size = 8
_temp$187248 = -184					; size = 4
_tempStrInfo$187243 = -172				; size = 4
_maxysize$187242 = -164					; size = 4
_maxxsize$187241 = -160					; size = 4
_nowindex$187240 = -156					; size = 4
_start$187239 = -152					; size = 4
_font$187237 = -144					; size = 8
_dc$187236 = -128					; size = 84
_pt$187226 = -36					; size = 8
_bShowToolTips$187225 = -21				; size = 1
_this$ = -20						; size = 4
__$ArrayPad$ = -16					; size = 4
__$EHRec$ = -12						; size = 12
__$ReturnAddr$ = 4					; size = 4
_nIDEvent$ = 8						; size = 4
?OnTimer@CCWToolTips@@QAEXI@Z PROC NEAR			; CCWToolTips::OnTimer
; _this$ = ecx

; 170  : {

  00cf0	55		 push	 ebp
  00cf1	8b ec		 mov	 ebp, esp
  00cf3	6a ff		 push	 -1
  00cf5	68 00 00 00 00	 push	 __ehhandler$?OnTimer@CCWToolTips@@QAEXI@Z
  00cfa	64 a1 00 00 00
	00		 mov	 eax, DWORD PTR fs:__except_list
  00d00	50		 push	 eax
  00d01	64 89 25 00 00
	00 00		 mov	 DWORD PTR fs:__except_list, esp
  00d08	81 ec 84 01 00
	00		 sub	 esp, 388		; 00000184H
  00d0e	56		 push	 esi
  00d0f	57		 push	 edi
  00d10	51		 push	 ecx
  00d11	8d bd 70 fe ff
	ff		 lea	 edi, DWORD PTR [ebp-400]
  00d17	b9 61 00 00 00	 mov	 ecx, 97			; 00000061H
  00d1c	b8 cc cc cc cc	 mov	 eax, -858993460		; ccccccccH
  00d21	f3 ab		 rep stosd
  00d23	59		 pop	 ecx
  00d24	a1 00 00 00 00	 mov	 eax, DWORD PTR ___security_cookie
  00d29	89 45 f0	 mov	 DWORD PTR __$ArrayPad$[ebp], eax
  00d2c	89 4d ec	 mov	 DWORD PTR _this$[ebp], ecx

; 171  : 	if(nIDEvent == ID_TIMER_HIDE)

  00d2f	81 7d 08 e7 00
	00 00		 cmp	 DWORD PTR _nIDEvent$[ebp], 231 ; 000000e7H
  00d36	75 15		 jne	 SHORT $L187222

; 172  : 	{
; 173  : 		HideTooTips();

  00d38	8b 4d ec	 mov	 ecx, DWORD PTR _this$[ebp]
  00d3b	e8 00 00 00 00	 call	 ?HideTooTips@CCWToolTips@@QAEXXZ ; CCWToolTips::HideTooTips

; 174  : 		KillTimer(ID_TIMER_HIDE);

  00d40	68 e7 00 00 00	 push	 231			; 000000e7H
  00d45	8b 4d ec	 mov	 ecx, DWORD PTR _this$[ebp]
  00d48	e8 00 00 00 00	 call	 ?KillTimer@CWnd@@QAEHI@Z ; CWnd::KillTimer
$L187222:

; 175  : 	}
; 176  : 	if(m_pClientWnd == NULL )

  00d4d	8b 45 ec	 mov	 eax, DWORD PTR _this$[ebp]
  00d50	83 78 60 00	 cmp	 DWORD PTR [eax+96], 0
  00d54	75 05		 jne	 SHORT $L187223

; 177  : 	{
; 178  : 		return;

  00d56	e9 a6 05 00 00	 jmp	 $L187221
$L187223:

; 179  : 	}
; 180  : 
; 181  : 	if(nIDEvent == ID_TEMER_TOOLTIPS)

  00d5b	81 7d 08 e6 00
	00 00		 cmp	 DWORD PTR _nIDEvent$[ebp], 230 ; 000000e6H
  00d62	0f 85 8d 05 00
	00		 jne	 $L187224

; 182  : 	{
; 183  : 		bool bShowToolTips = false;

  00d68	c6 45 eb 00	 mov	 BYTE PTR _bShowToolTips$187225[ebp], 0

; 184  : 		CPoint pt(0,0);

  00d6c	6a 00		 push	 0
  00d6e	6a 00		 push	 0
  00d70	8d 4d dc	 lea	 ecx, DWORD PTR _pt$187226[ebp]
  00d73	e8 00 00 00 00	 call	 ??0CPoint@@QAE@HH@Z	; CPoint::CPoint

; 185  : 		::GetCursorPos(&pt);

  00d78	8b f4		 mov	 esi, esp
  00d7a	8d 4d dc	 lea	 ecx, DWORD PTR _pt$187226[ebp]
  00d7d	51		 push	 ecx
  00d7e	ff 15 00 00 00
	00		 call	 DWORD PTR __imp__GetCursorPos@4
  00d84	3b f4		 cmp	 esi, esp
  00d86	e8 00 00 00 00	 call	 __RTC_CheckEsp

; 186  : 		if(m_type == FRAME_TOOLTIPS )

  00d8b	8b 55 ec	 mov	 edx, DWORD PTR _this$[ebp]
  00d8e	83 ba 80 00 00
	00 01		 cmp	 DWORD PTR [edx+128], 1
  00d95	75 0c		 jne	 SHORT $L187227

; 187  : 		{
; 188  : 			this->ClientToScreen(&pt);

  00d97	8d 45 dc	 lea	 eax, DWORD PTR _pt$187226[ebp]
  00d9a	50		 push	 eax
  00d9b	8b 4d ec	 mov	 ecx, DWORD PTR _this$[ebp]
  00d9e	e8 00 00 00 00	 call	 ?ClientToScreen@CWnd@@QBEXPAUtagPOINT@@@Z ; CWnd::ClientToScreen
$L187227:

; 189  : 		}
; 190  : 
; 191  : 		if(m_rcRange == CRect(0,0,0,0))

  00da3	6a 00		 push	 0
  00da5	6a 00		 push	 0
  00da7	6a 00		 push	 0
  00da9	6a 00		 push	 0
  00dab	8d 8d ac fe ff
	ff		 lea	 ecx, DWORD PTR $T187937[ebp]
  00db1	e8 00 00 00 00	 call	 ??0CRect@@QAE@HHHH@Z	; CRect::CRect
  00db6	50		 push	 eax
  00db7	8b 4d ec	 mov	 ecx, DWORD PTR _this$[ebp]
  00dba	83 c1 70	 add	 ecx, 112		; 00000070H
  00dbd	e8 00 00 00 00	 call	 ??8CRect@@QBEHABUtagRECT@@@Z ; CRect::operator==
  00dc2	85 c0		 test	 eax, eax
  00dc4	74 35		 je	 SHORT $L187229

; 192  : 		{
; 193  : 			if(pt == m_lastPoint)

  00dc6	8b 4d ec	 mov	 ecx, DWORD PTR _this$[ebp]
  00dc9	8b 51 68	 mov	 edx, DWORD PTR [ecx+104]
  00dcc	8b 41 6c	 mov	 eax, DWORD PTR [ecx+108]
  00dcf	89 95 a4 fe ff
	ff		 mov	 DWORD PTR $T187938[ebp], edx
  00dd5	89 85 a8 fe ff
	ff		 mov	 DWORD PTR $T187938[ebp+4], eax
  00ddb	8b 8d a8 fe ff
	ff		 mov	 ecx, DWORD PTR $T187938[ebp+4]
  00de1	51		 push	 ecx
  00de2	8b 95 a4 fe ff
	ff		 mov	 edx, DWORD PTR $T187938[ebp]
  00de8	52		 push	 edx
  00de9	8d 4d dc	 lea	 ecx, DWORD PTR _pt$187226[ebp]
  00dec	e8 00 00 00 00	 call	 ??8CPoint@@QBEHUtagPOINT@@@Z ; CPoint::operator==
  00df1	85 c0		 test	 eax, eax
  00df3	74 04		 je	 SHORT $L187231

; 194  : 				bShowToolTips = true;

  00df5	c6 45 eb 01	 mov	 BYTE PTR _bShowToolTips$187225[ebp], 1
$L187231:

; 195  : 		}
; 196  : 		else

  00df9	eb 33		 jmp	 SHORT $L187232
$L187229:

; 197  : 		{
; 198  : 			if(m_rcRange.PtInRect(pt))

  00dfb	8b 45 dc	 mov	 eax, DWORD PTR _pt$187226[ebp]
  00dfe	89 85 9c fe ff
	ff		 mov	 DWORD PTR $T187939[ebp], eax
  00e04	8b 4d e0	 mov	 ecx, DWORD PTR _pt$187226[ebp+4]
  00e07	89 8d a0 fe ff
	ff		 mov	 DWORD PTR $T187939[ebp+4], ecx
  00e0d	8b 95 a0 fe ff
	ff		 mov	 edx, DWORD PTR $T187939[ebp+4]
  00e13	52		 push	 edx
  00e14	8b 85 9c fe ff
	ff		 mov	 eax, DWORD PTR $T187939[ebp]
  00e1a	50		 push	 eax
  00e1b	8b 4d ec	 mov	 ecx, DWORD PTR _this$[ebp]
  00e1e	83 c1 70	 add	 ecx, 112		; 00000070H
  00e21	e8 00 00 00 00	 call	 ?PtInRect@CRect@@QBEHUtagPOINT@@@Z ; CRect::PtInRect
  00e26	85 c0		 test	 eax, eax
  00e28	74 04		 je	 SHORT $L187232

; 199  : 				bShowToolTips = true;

  00e2a	c6 45 eb 01	 mov	 BYTE PTR _bShowToolTips$187225[ebp], 1
$L187232:

; 200  : 		}
; 201  : 
; 202  : 		if(bShowToolTips)

  00e2e	0f b6 4d eb	 movzx	 ecx, BYTE PTR _bShowToolTips$187225[ebp]
  00e32	85 c9		 test	 ecx, ecx
  00e34	0f 84 a4 04 00
	00		 je	 $L187235

; 203  : 		{
; 204  : 			CPaintDC dc(this); 

  00e3a	8b 55 ec	 mov	 edx, DWORD PTR _this$[ebp]
  00e3d	52		 push	 edx
  00e3e	8d 4d 80	 lea	 ecx, DWORD PTR _dc$187236[ebp]
  00e41	e8 00 00 00 00	 call	 ??0CPaintDC@@QAE@PAVCWnd@@@Z ; CPaintDC::CPaintDC
  00e46	c7 45 fc 00 00
	00 00		 mov	 DWORD PTR __$EHRec$[ebp+8], 0

; 205  : 			dc.SetBkMode(TRANSPARENT);	

  00e4d	6a 01		 push	 1
  00e4f	8d 4d 80	 lea	 ecx, DWORD PTR _dc$187236[ebp]
  00e52	e8 00 00 00 00	 call	 ?SetBkMode@CDC@@QAEHH@Z	; CDC::SetBkMode

; 206  : 			CFont font;

  00e57	8d 8d 70 ff ff
	ff		 lea	 ecx, DWORD PTR _font$187237[ebp]
  00e5d	e8 00 00 00 00	 call	 ??0CFont@@QAE@XZ	; CFont::CFont
  00e62	c6 45 fc 01	 mov	 BYTE PTR __$EHRec$[ebp+8], 1

; 207  : 			font.CreatePointFont(90,_T("ו"));	

  00e66	6a 00		 push	 0
  00e68	68 00 00 00 00	 push	 OFFSET FLAT:$SG187238
  00e6d	6a 5a		 push	 90			; 0000005aH
  00e6f	8d 8d 70 ff ff
	ff		 lea	 ecx, DWORD PTR _font$187237[ebp]
  00e75	e8 00 00 00 00	 call	 ?CreatePointFont@CFont@@QAEHHPBDPAVCDC@@@Z ; CFont::CreatePointFont

; 208  : 			dc.SelectObject(&font);	

  00e7a	8d 85 70 ff ff
	ff		 lea	 eax, DWORD PTR _font$187237[ebp]
  00e80	50		 push	 eax
  00e81	8d 4d 80	 lea	 ecx, DWORD PTR _dc$187236[ebp]
  00e84	e8 00 00 00 00	 call	 ?SelectObject@CDC@@UAEPAVCFont@@PAV2@@Z ; CDC::SelectObject

; 209  : 			int start = 0;

  00e89	c7 85 68 ff ff
	ff 00 00 00 00	 mov	 DWORD PTR _start$187239[ebp], 0

; 210  : 			int nowindex = -1;

  00e93	c7 85 64 ff ff
	ff ff ff ff ff	 mov	 DWORD PTR _nowindex$187240[ebp], -1

; 211  : 			int maxxsize = 0;

  00e9d	c7 85 60 ff ff
	ff 00 00 00 00	 mov	 DWORD PTR _maxxsize$187241[ebp], 0

; 212  : 			int maxysize = LINE_HIGHT;

  00ea7	c7 85 5c ff ff
	ff 0f 00 00 00	 mov	 DWORD PTR _maxysize$187242[ebp], 15 ; 0000000fH

; 213  : 			CString tempStrInfo = m_strInfo;

  00eb1	8b 4d ec	 mov	 ecx, DWORD PTR _this$[ebp]
  00eb4	83 c1 64	 add	 ecx, 100		; 00000064H
  00eb7	8b f4		 mov	 esi, esp
  00eb9	51		 push	 ecx
  00eba	8d 8d 54 ff ff
	ff		 lea	 ecx, DWORD PTR _tempStrInfo$187243[ebp]
  00ec0	ff 15 00 00 00
	00		 call	 DWORD PTR __imp_??0?$CStringT@DV?$StrTraitMFC_DLL@DV?$ChTraitsCRT@D@ATL@@@@@ATL@@QAE@ABV01@@Z
  00ec6	3b f4		 cmp	 esi, esp
  00ec8	e8 00 00 00 00	 call	 __RTC_CheckEsp
  00ecd	c6 45 fc 02	 mov	 BYTE PTR __$EHRec$[ebp+8], 2
$L187245:

; 214  : 			while((nowindex = tempStrInfo.Find("$#",0))!= -1)

  00ed1	8b f4		 mov	 esi, esp
  00ed3	6a 00		 push	 0
  00ed5	68 00 00 00 00	 push	 OFFSET FLAT:$SG187247
  00eda	8d 8d 54 ff ff
	ff		 lea	 ecx, DWORD PTR _tempStrInfo$187243[ebp]
  00ee0	ff 15 00 00 00
	00		 call	 DWORD PTR __imp_?Find@?$CStringT@DV?$StrTraitMFC_DLL@DV?$ChTraitsCRT@D@ATL@@@@@ATL@@QBEHPBDH@Z
  00ee6	3b f4		 cmp	 esi, esp
  00ee8	e8 00 00 00 00	 call	 __RTC_CheckEsp
  00eed	89 85 64 ff ff
	ff		 mov	 DWORD PTR _nowindex$187240[ebp], eax
  00ef3	83 bd 64 ff ff
	ff ff		 cmp	 DWORD PTR _nowindex$187240[ebp], -1
  00efa	0f 84 3d 01 00
	00		 je	 $L187246

; 215  : 			{
; 216  : 				CString temp = tempStrInfo.Left(nowindex);

  00f00	8b f4		 mov	 esi, esp
  00f02	8b 95 64 ff ff
	ff		 mov	 edx, DWORD PTR _nowindex$187240[ebp]
  00f08	52		 push	 edx
  00f09	8d 85 48 ff ff
	ff		 lea	 eax, DWORD PTR _temp$187248[ebp]
  00f0f	50		 push	 eax
  00f10	8d 8d 54 ff ff
	ff		 lea	 ecx, DWORD PTR _tempStrInfo$187243[ebp]
  00f16	ff 15 00 00 00
	00		 call	 DWORD PTR __imp_?Left@?$CStringT@DV?$StrTraitMFC_DLL@DV?$ChTraitsCRT@D@ATL@@@@@ATL@@QBE?AV12@H@Z
  00f1c	3b f4		 cmp	 esi, esp
  00f1e	e8 00 00 00 00	 call	 __RTC_CheckEsp
  00f23	c6 45 fc 03	 mov	 BYTE PTR __$EHRec$[ebp+8], 3

; 217  : 				CSize size = dc.GetTextExtent(temp);

  00f27	8d 8d 48 ff ff
	ff		 lea	 ecx, DWORD PTR _temp$187248[ebp]
  00f2d	51		 push	 ecx
  00f2e	8d 95 38 ff ff
	ff		 lea	 edx, DWORD PTR _size$187250[ebp]
  00f34	52		 push	 edx
  00f35	8d 4d 80	 lea	 ecx, DWORD PTR _dc$187236[ebp]
  00f38	e8 00 00 00 00	 call	 ?GetTextExtent@CDC@@QBE?AVCSize@@ABV?$CStringT@DV?$StrTraitMFC_DLL@DV?$ChTraitsCRT@D@ATL@@@@@ATL@@@Z ; CDC::GetTextExtent

; 218  : 				if(size.cx>maxxsize)

  00f3d	8b 85 38 ff ff
	ff		 mov	 eax, DWORD PTR _size$187250[ebp]
  00f43	3b 85 60 ff ff
	ff		 cmp	 eax, DWORD PTR _maxxsize$187241[ebp]
  00f49	7e 0c		 jle	 SHORT $L187252

; 219  : 					maxxsize = size.cx;

  00f4b	8b 8d 38 ff ff
	ff		 mov	 ecx, DWORD PTR _size$187250[ebp]
  00f51	89 8d 60 ff ff
	ff		 mov	 DWORD PTR _maxxsize$187241[ebp], ecx
$L187252:

; 220  : 				//מם²»³¬¹‎300ס
; 221  : 				if(maxxsize > 300)

  00f57	81 bd 60 ff ff
	ff 2c 01 00 00	 cmp	 DWORD PTR _maxxsize$187241[ebp], 300 ; 0000012cH
  00f61	7e 27		 jle	 SHORT $L187253

; 222  : 				{
; 223  : 					maxysize += (maxxsize / 300) * LINE_HIGHT;

  00f63	8b 85 60 ff ff
	ff		 mov	 eax, DWORD PTR _maxxsize$187241[ebp]
  00f69	99		 cdq
  00f6a	b9 2c 01 00 00	 mov	 ecx, 300		; 0000012cH
  00f6f	f7 f9		 idiv	 ecx
  00f71	6b c0 0f	 imul	 eax, 15			; 0000000fH
  00f74	03 85 5c ff ff
	ff		 add	 eax, DWORD PTR _maxysize$187242[ebp]
  00f7a	89 85 5c ff ff
	ff		 mov	 DWORD PTR _maxysize$187242[ebp], eax

; 224  : 					maxxsize = 300;

  00f80	c7 85 60 ff ff
	ff 2c 01 00 00	 mov	 DWORD PTR _maxxsize$187241[ebp], 300 ; 0000012cH
$L187253:

; 225  : 				}
; 226  : 				tempStrInfo = tempStrInfo.Right(tempStrInfo.GetLength() - 2 - nowindex);

  00f8a	8b f4		 mov	 esi, esp
  00f8c	8d 8d 54 ff ff
	ff		 lea	 ecx, DWORD PTR _tempStrInfo$187243[ebp]
  00f92	ff 15 00 00 00
	00		 call	 DWORD PTR __imp_?GetLength@?$CSimpleStringT@D$00@ATL@@QBEHXZ
  00f98	3b f4		 cmp	 esi, esp
  00f9a	e8 00 00 00 00	 call	 __RTC_CheckEsp
  00f9f	83 e8 02	 sub	 eax, 2
  00fa2	2b 85 64 ff ff
	ff		 sub	 eax, DWORD PTR _nowindex$187240[ebp]
  00fa8	8b f4		 mov	 esi, esp
  00faa	50		 push	 eax
  00fab	8d 95 98 fe ff
	ff		 lea	 edx, DWORD PTR $T187940[ebp]
  00fb1	52		 push	 edx
  00fb2	8d 8d 54 ff ff
	ff		 lea	 ecx, DWORD PTR _tempStrInfo$187243[ebp]
  00fb8	ff 15 00 00 00
	00		 call	 DWORD PTR __imp_?Right@?$CStringT@DV?$StrTraitMFC_DLL@DV?$ChTraitsCRT@D@ATL@@@@@ATL@@QBE?AV12@H@Z
  00fbe	3b f4		 cmp	 esi, esp
  00fc0	e8 00 00 00 00	 call	 __RTC_CheckEsp
  00fc5	89 85 74 fe ff
	ff		 mov	 DWORD PTR tv314[ebp], eax
  00fcb	8b 85 74 fe ff
	ff		 mov	 eax, DWORD PTR tv314[ebp]
  00fd1	89 85 70 fe ff
	ff		 mov	 DWORD PTR tv313[ebp], eax
  00fd7	c6 45 fc 04	 mov	 BYTE PTR __$EHRec$[ebp+8], 4
  00fdb	8b f4		 mov	 esi, esp
  00fdd	8b 8d 70 fe ff
	ff		 mov	 ecx, DWORD PTR tv313[ebp]
  00fe3	51		 push	 ecx
  00fe4	8d 8d 54 ff ff
	ff		 lea	 ecx, DWORD PTR _tempStrInfo$187243[ebp]
  00fea	ff 15 00 00 00
	00		 call	 DWORD PTR __imp_??4?$CStringT@DV?$StrTraitMFC_DLL@DV?$ChTraitsCRT@D@ATL@@@@@ATL@@QAEAAV01@ABV01@@Z
  00ff0	3b f4		 cmp	 esi, esp
  00ff2	e8 00 00 00 00	 call	 __RTC_CheckEsp
  00ff7	c6 45 fc 03	 mov	 BYTE PTR __$EHRec$[ebp+8], 3
  00ffb	8b f4		 mov	 esi, esp
  00ffd	8d 8d 98 fe ff
	ff		 lea	 ecx, DWORD PTR $T187940[ebp]
  01003	ff 15 00 00 00
	00		 call	 DWORD PTR __imp_??1?$CStringT@DV?$StrTraitMFC_DLL@DV?$ChTraitsCRT@D@ATL@@@@@ATL@@QAE@XZ
  01009	3b f4		 cmp	 esi, esp
  0100b	e8 00 00 00 00	 call	 __RTC_CheckEsp

; 227  : 				maxysize+=LINE_HIGHT;

  01010	8b 95 5c ff ff
	ff		 mov	 edx, DWORD PTR _maxysize$187242[ebp]
  01016	83 c2 0f	 add	 edx, 15			; 0000000fH
  01019	89 95 5c ff ff
	ff		 mov	 DWORD PTR _maxysize$187242[ebp], edx

; 228  : 			}

  0101f	c6 45 fc 02	 mov	 BYTE PTR __$EHRec$[ebp+8], 2
  01023	8b f4		 mov	 esi, esp
  01025	8d 8d 48 ff ff
	ff		 lea	 ecx, DWORD PTR _temp$187248[ebp]
  0102b	ff 15 00 00 00
	00		 call	 DWORD PTR __imp_??1?$CStringT@DV?$StrTraitMFC_DLL@DV?$ChTraitsCRT@D@ATL@@@@@ATL@@QAE@XZ
  01031	3b f4		 cmp	 esi, esp
  01033	e8 00 00 00 00	 call	 __RTC_CheckEsp
  01038	e9 94 fe ff ff	 jmp	 $L187245
$L187246:

; 229  : 			CSize size = dc.GetTextExtent(tempStrInfo);

  0103d	8d 85 54 ff ff
	ff		 lea	 eax, DWORD PTR _tempStrInfo$187243[ebp]
  01043	50		 push	 eax
  01044	8d 8d 28 ff ff
	ff		 lea	 ecx, DWORD PTR _size$187255[ebp]
  0104a	51		 push	 ecx
  0104b	8d 4d 80	 lea	 ecx, DWORD PTR _dc$187236[ebp]
  0104e	e8 00 00 00 00	 call	 ?GetTextExtent@CDC@@QBE?AVCSize@@ABV?$CStringT@DV?$StrTraitMFC_DLL@DV?$ChTraitsCRT@D@ATL@@@@@ATL@@@Z ; CDC::GetTextExtent

; 230  : 			if(size.cx>maxxsize)

  01053	8b 95 28 ff ff
	ff		 mov	 edx, DWORD PTR _size$187255[ebp]
  01059	3b 95 60 ff ff
	ff		 cmp	 edx, DWORD PTR _maxxsize$187241[ebp]
  0105f	7e 0c		 jle	 SHORT $L187257

; 231  : 				maxxsize = size.cx;

  01061	8b 85 28 ff ff
	ff		 mov	 eax, DWORD PTR _size$187255[ebp]
  01067	89 85 60 ff ff
	ff		 mov	 DWORD PTR _maxxsize$187241[ebp], eax
$L187257:

; 232  : 
; 233  : 			//מם²»³¬¹‎300ס
; 234  : 			if(maxxsize > 300)

  0106d	81 bd 60 ff ff
	ff 2c 01 00 00	 cmp	 DWORD PTR _maxxsize$187241[ebp], 300 ; 0000012cH
  01077	7e 2d		 jle	 SHORT $L187258

; 235  : 			{
; 236  : 				maxysize += (maxxsize / 300) * LINE_HIGHT + 20;

  01079	8b 85 60 ff ff
	ff		 mov	 eax, DWORD PTR _maxxsize$187241[ebp]
  0107f	99		 cdq
  01080	b9 2c 01 00 00	 mov	 ecx, 300		; 0000012cH
  01085	f7 f9		 idiv	 ecx
  01087	6b c0 0f	 imul	 eax, 15			; 0000000fH
  0108a	8b 95 5c ff ff
	ff		 mov	 edx, DWORD PTR _maxysize$187242[ebp]
  01090	8d 44 02 14	 lea	 eax, DWORD PTR [edx+eax+20]
  01094	89 85 5c ff ff
	ff		 mov	 DWORD PTR _maxysize$187242[ebp], eax

; 237  : 				maxxsize = 326;

  0109a	c7 85 60 ff ff
	ff 46 01 00 00	 mov	 DWORD PTR _maxxsize$187241[ebp], 326 ; 00000146H

; 238  : 			}
; 239  : 			else 

  010a4	eb 1e		 jmp	 SHORT $L187259
$L187258:

; 240  : 			{
; 241  : 				maxxsize+=25;

  010a6	8b 8d 60 ff ff
	ff		 mov	 ecx, DWORD PTR _maxxsize$187241[ebp]
  010ac	83 c1 19	 add	 ecx, 25			; 00000019H
  010af	89 8d 60 ff ff
	ff		 mov	 DWORD PTR _maxxsize$187241[ebp], ecx

; 242  : 				maxysize+=20;

  010b5	8b 95 5c ff ff
	ff		 mov	 edx, DWORD PTR _maxysize$187242[ebp]
  010bb	83 c2 14	 add	 edx, 20			; 00000014H
  010be	89 95 5c ff ff
	ff		 mov	 DWORD PTR _maxysize$187242[ebp], edx
$L187259:

; 243  : 			}
; 244  : 			
; 245  : 			CPoint opoint(m_lastPoint.x+10,m_lastPoint.y+20), point(m_lastPoint.x+maxxsize,m_lastPoint.y+maxysize+20-LINE_HIGHT);

  010c4	8b 45 ec	 mov	 eax, DWORD PTR _this$[ebp]
  010c7	8b 48 6c	 mov	 ecx, DWORD PTR [eax+108]
  010ca	83 c1 14	 add	 ecx, 20			; 00000014H
  010cd	51		 push	 ecx
  010ce	8b 55 ec	 mov	 edx, DWORD PTR _this$[ebp]
  010d1	8b 42 68	 mov	 eax, DWORD PTR [edx+104]
  010d4	83 c0 0a	 add	 eax, 10			; 0000000aH
  010d7	50		 push	 eax
  010d8	8d 8d 18 ff ff
	ff		 lea	 ecx, DWORD PTR _opoint$187260[ebp]
  010de	e8 00 00 00 00	 call	 ??0CPoint@@QAE@HH@Z	; CPoint::CPoint
  010e3	8b 4d ec	 mov	 ecx, DWORD PTR _this$[ebp]
  010e6	8b 51 6c	 mov	 edx, DWORD PTR [ecx+108]
  010e9	8b 85 5c ff ff
	ff		 mov	 eax, DWORD PTR _maxysize$187242[ebp]
  010ef	8d 4c 02 05	 lea	 ecx, DWORD PTR [edx+eax+5]
  010f3	51		 push	 ecx
  010f4	8b 55 ec	 mov	 edx, DWORD PTR _this$[ebp]
  010f7	8b 42 68	 mov	 eax, DWORD PTR [edx+104]
  010fa	03 85 60 ff ff
	ff		 add	 eax, DWORD PTR _maxxsize$187241[ebp]
  01100	50		 push	 eax
  01101	8d 8d 08 ff ff
	ff		 lea	 ecx, DWORD PTR _point$187261[ebp]
  01107	e8 00 00 00 00	 call	 ??0CPoint@@QAE@HH@Z	; CPoint::CPoint

; 246  : 			CRect rectNew, clientRect, mainRect;

  0110c	8d 8d f0 fe ff
	ff		 lea	 ecx, DWORD PTR _rectNew$187262[ebp]
  01112	e8 00 00 00 00	 call	 ??0CRect@@QAE@XZ	; CRect::CRect
  01117	8d 8d d8 fe ff
	ff		 lea	 ecx, DWORD PTR _clientRect$187263[ebp]
  0111d	e8 00 00 00 00	 call	 ??0CRect@@QAE@XZ	; CRect::CRect
  01122	8d 8d c0 fe ff
	ff		 lea	 ecx, DWORD PTR _mainRect$187264[ebp]
  01128	e8 00 00 00 00	 call	 ??0CRect@@QAE@XZ	; CRect::CRect

; 247  : 			m_pClientWnd->GetClientRect(clientRect);

  0112d	8d 8d d8 fe ff
	ff		 lea	 ecx, DWORD PTR _clientRect$187263[ebp]
  01133	e8 00 00 00 00	 call	 ??BCRect@@QAEPAUtagRECT@@XZ ; CRect::operator tagRECT *
  01138	50		 push	 eax
  01139	8b 4d ec	 mov	 ecx, DWORD PTR _this$[ebp]
  0113c	8b 49 60	 mov	 ecx, DWORD PTR [ecx+96]
  0113f	e8 00 00 00 00	 call	 ?GetClientRect@CWnd@@QBEXPAUtagRECT@@@Z ; CWnd::GetClientRect

; 248  : 			m_pClientWnd->ClientToScreen(clientRect);			

  01144	8d 8d d8 fe ff
	ff		 lea	 ecx, DWORD PTR _clientRect$187263[ebp]
  0114a	e8 00 00 00 00	 call	 ??BCRect@@QAEPAUtagRECT@@XZ ; CRect::operator tagRECT *
  0114f	50		 push	 eax
  01150	8b 55 ec	 mov	 edx, DWORD PTR _this$[ebp]
  01153	8b 4a 60	 mov	 ecx, DWORD PTR [edx+96]
  01156	e8 00 00 00 00	 call	 ?ClientToScreen@CWnd@@QBEXPAUtagRECT@@@Z ; CWnd::ClientToScreen

; 249  : 
; 250  : 			//½«tooltipµ½ף±ךז¾
; 251  : 			if(point.y > clientRect.bottom && pt.y-maxysize+LINE_HIGHT > 0)

  0115b	8b 85 0c ff ff
	ff		 mov	 eax, DWORD PTR _point$187261[ebp+4]
  01161	3b 85 e4 fe ff
	ff		 cmp	 eax, DWORD PTR _clientRect$187263[ebp+12]
  01167	7e 2b		 jle	 SHORT $L187265
  01169	8b 4d e0	 mov	 ecx, DWORD PTR _pt$187226[ebp+4]
  0116c	2b 8d 5c ff ff
	ff		 sub	 ecx, DWORD PTR _maxysize$187242[ebp]
  01172	83 c1 0f	 add	 ecx, 15			; 0000000fH
  01175	85 c9		 test	 ecx, ecx
  01177	7e 1b		 jle	 SHORT $L187265

; 252  : 			{
; 253  : 				opoint.y = pt.y-maxysize+LINE_HIGHT;

  01179	8b 55 e0	 mov	 edx, DWORD PTR _pt$187226[ebp+4]
  0117c	2b 95 5c ff ff
	ff		 sub	 edx, DWORD PTR _maxysize$187242[ebp]
  01182	83 c2 0f	 add	 edx, 15			; 0000000fH
  01185	89 95 1c ff ff
	ff		 mov	 DWORD PTR _opoint$187260[ebp+4], edx

; 254  : 				point.y  = pt.y;

  0118b	8b 45 e0	 mov	 eax, DWORD PTR _pt$187226[ebp+4]
  0118e	89 85 0c ff ff
	ff		 mov	 DWORD PTR _point$187261[ebp+4], eax
$L187265:

; 255  : 			}
; 256  : 
; 257  : 			//½«tooltipµ½ף±ךז¾
; 258  : 			if(point.x > clientRect.right && pt.x - maxxsize > 0)

  01194	8b 8d 08 ff ff
	ff		 mov	 ecx, DWORD PTR _point$187261[ebp]
  0119a	3b 8d e0 fe ff
	ff		 cmp	 ecx, DWORD PTR _clientRect$187263[ebp+8]
  011a0	7e 28		 jle	 SHORT $L187266
  011a2	8b 55 dc	 mov	 edx, DWORD PTR _pt$187226[ebp]
  011a5	2b 95 60 ff ff
	ff		 sub	 edx, DWORD PTR _maxxsize$187241[ebp]
  011ab	85 d2		 test	 edx, edx
  011ad	7e 1b		 jle	 SHORT $L187266

; 259  : 			{
; 260  : 				point.x = pt.x;

  011af	8b 45 dc	 mov	 eax, DWORD PTR _pt$187226[ebp]
  011b2	89 85 08 ff ff
	ff		 mov	 DWORD PTR _point$187261[ebp], eax

; 261  : 				opoint.x = pt.x - maxxsize + 10;

  011b8	8b 4d dc	 mov	 ecx, DWORD PTR _pt$187226[ebp]
  011bb	2b 8d 60 ff ff
	ff		 sub	 ecx, DWORD PTR _maxxsize$187241[ebp]
  011c1	83 c1 0a	 add	 ecx, 10			; 0000000aH
  011c4	89 8d 18 ff ff
	ff		 mov	 DWORD PTR _opoint$187260[ebp], ecx
$L187266:

; 262  : 			}
; 263  : 			rectNew = CRect(opoint, point);

  011ca	8b 95 08 ff ff
	ff		 mov	 edx, DWORD PTR _point$187261[ebp]
  011d0	89 95 80 fe ff
	ff		 mov	 DWORD PTR $T187942[ebp], edx
  011d6	8b 85 0c ff ff
	ff		 mov	 eax, DWORD PTR _point$187261[ebp+4]
  011dc	89 85 84 fe ff
	ff		 mov	 DWORD PTR $T187942[ebp+4], eax
  011e2	8b 8d 18 ff ff
	ff		 mov	 ecx, DWORD PTR _opoint$187260[ebp]
  011e8	89 8d 78 fe ff
	ff		 mov	 DWORD PTR $T187943[ebp], ecx
  011ee	8b 95 1c ff ff
	ff		 mov	 edx, DWORD PTR _opoint$187260[ebp+4]
  011f4	89 95 7c fe ff
	ff		 mov	 DWORD PTR $T187943[ebp+4], edx
  011fa	8b 85 84 fe ff
	ff		 mov	 eax, DWORD PTR $T187942[ebp+4]
  01200	50		 push	 eax
  01201	8b 8d 80 fe ff
	ff		 mov	 ecx, DWORD PTR $T187942[ebp]
  01207	51		 push	 ecx
  01208	8b 95 7c fe ff
	ff		 mov	 edx, DWORD PTR $T187943[ebp+4]
  0120e	52		 push	 edx
  0120f	8b 85 78 fe ff
	ff		 mov	 eax, DWORD PTR $T187943[ebp]
  01215	50		 push	 eax
  01216	8d 8d 88 fe ff
	ff		 lea	 ecx, DWORD PTR $T187941[ebp]
  0121c	e8 00 00 00 00	 call	 ??0CRect@@QAE@UtagPOINT@@0@Z ; CRect::CRect
  01221	8b 08		 mov	 ecx, DWORD PTR [eax]
  01223	89 8d f0 fe ff
	ff		 mov	 DWORD PTR _rectNew$187262[ebp], ecx
  01229	8b 50 04	 mov	 edx, DWORD PTR [eax+4]
  0122c	89 95 f4 fe ff
	ff		 mov	 DWORD PTR _rectNew$187262[ebp+4], edx
  01232	8b 48 08	 mov	 ecx, DWORD PTR [eax+8]
  01235	89 8d f8 fe ff
	ff		 mov	 DWORD PTR _rectNew$187262[ebp+8], ecx
  0123b	8b 50 0c	 mov	 edx, DWORD PTR [eax+12]
  0123e	89 95 fc fe ff
	ff		 mov	 DWORD PTR _rectNew$187262[ebp+12], edx

; 264  : 
; 265  : 			if(GetParent() != NULL)

  01244	8b 4d ec	 mov	 ecx, DWORD PTR _this$[ebp]
  01247	e8 00 00 00 00	 call	 ?GetParent@CWnd@@QBEPAV1@XZ ; CWnd::GetParent
  0124c	85 c0		 test	 eax, eax
  0124e	74 17		 je	 SHORT $L187270

; 266  : 			{
; 267  : 				m_pClientWnd->ScreenToClient(rectNew);

  01250	8d 8d f0 fe ff
	ff		 lea	 ecx, DWORD PTR _rectNew$187262[ebp]
  01256	e8 00 00 00 00	 call	 ??BCRect@@QAEPAUtagRECT@@XZ ; CRect::operator tagRECT *
  0125b	50		 push	 eax
  0125c	8b 45 ec	 mov	 eax, DWORD PTR _this$[ebp]
  0125f	8b 48 60	 mov	 ecx, DWORD PTR [eax+96]
  01262	e8 00 00 00 00	 call	 ?ScreenToClient@CWnd@@QBEXPAUtagRECT@@@Z ; CWnd::ScreenToClient
$L187270:

; 268  : 			}
; 269  : 			SetWindowPos(&wndTopMost,rectNew.left,rectNew.top,rectNew.Width(),rectNew.Height(), SWP_NOACTIVATE);

  01267	6a 10		 push	 16			; 00000010H
  01269	8d 8d f0 fe ff
	ff		 lea	 ecx, DWORD PTR _rectNew$187262[ebp]
  0126f	e8 00 00 00 00	 call	 ?Height@CRect@@QBEHXZ	; CRect::Height
  01274	50		 push	 eax
  01275	8d 8d f0 fe ff
	ff		 lea	 ecx, DWORD PTR _rectNew$187262[ebp]
  0127b	e8 00 00 00 00	 call	 ?Width@CRect@@QBEHXZ	; CRect::Width
  01280	50		 push	 eax
  01281	8b 8d f4 fe ff
	ff		 mov	 ecx, DWORD PTR _rectNew$187262[ebp+4]
  01287	51		 push	 ecx
  01288	8b 95 f0 fe ff
	ff		 mov	 edx, DWORD PTR _rectNew$187262[ebp]
  0128e	52		 push	 edx
  0128f	a1 00 00 00 00	 mov	 eax, DWORD PTR __imp_?wndTopMost@CWnd@@2V1@B
  01294	50		 push	 eax
  01295	8b 4d ec	 mov	 ecx, DWORD PTR _this$[ebp]
  01298	e8 00 00 00 00	 call	 ?SetWindowPos@CWnd@@QAEHPBV1@HHHHI@Z ; CWnd::SetWindowPos

; 270  : 		    ShowWindow(SW_SHOWNOACTIVATE);

  0129d	6a 04		 push	 4
  0129f	8b 4d ec	 mov	 ecx, DWORD PTR _this$[ebp]
  012a2	e8 00 00 00 00	 call	 ?ShowWindow@CWnd@@QAEHH@Z ; CWnd::ShowWindow

; 271  : 		}

  012a7	c6 45 fc 01	 mov	 BYTE PTR __$EHRec$[ebp+8], 1
  012ab	8b f4		 mov	 esi, esp
  012ad	8d 8d 54 ff ff
	ff		 lea	 ecx, DWORD PTR _tempStrInfo$187243[ebp]
  012b3	ff 15 00 00 00
	00		 call	 DWORD PTR __imp_??1?$CStringT@DV?$StrTraitMFC_DLL@DV?$ChTraitsCRT@D@ATL@@@@@ATL@@QAE@XZ
  012b9	3b f4		 cmp	 esi, esp
  012bb	e8 00 00 00 00	 call	 __RTC_CheckEsp
  012c0	c6 45 fc 00	 mov	 BYTE PTR __$EHRec$[ebp+8], 0
  012c4	8d 8d 70 ff ff
	ff		 lea	 ecx, DWORD PTR _font$187237[ebp]
  012ca	e8 00 00 00 00	 call	 ??1CFont@@UAE@XZ	; CFont::~CFont
  012cf	c7 45 fc ff ff
	ff ff		 mov	 DWORD PTR __$EHRec$[ebp+8], -1
  012d6	8d 4d 80	 lea	 ecx, DWORD PTR _dc$187236[ebp]
  012d9	e8 00 00 00 00	 call	 ??1CPaintDC@@UAE@XZ	; CPaintDC::~CPaintDC
$L187235:

; 272  : 		this->Invalidate(TRUE);

  012de	6a 01		 push	 1
  012e0	8b 4d ec	 mov	 ecx, DWORD PTR _this$[ebp]
  012e3	e8 00 00 00 00	 call	 ?Invalidate@CWnd@@QAEXH@Z ; CWnd::Invalidate

; 273  : 		KillTimer(ID_TEMER_TOOLTIPS);

  012e8	68 e6 00 00 00	 push	 230			; 000000e6H
  012ed	8b 4d ec	 mov	 ecx, DWORD PTR _this$[ebp]
  012f0	e8 00 00 00 00	 call	 ?KillTimer@CWnd@@QAEHI@Z ; CWnd::KillTimer
$L187224:

; 274  : 	}
; 275  : 
; 276  : 	CWnd::OnTimer(nIDEvent);

  012f5	8b 4d 08	 mov	 ecx, DWORD PTR _nIDEvent$[ebp]
  012f8	51		 push	 ecx
  012f9	8b 4d ec	 mov	 ecx, DWORD PTR _this$[ebp]
  012fc	e8 00 00 00 00	 call	 ?OnTimer@CWnd@@IAEXI@Z	; CWnd::OnTimer
$L187221:

; 277  : }

  01301	52		 push	 edx
  01302	8b cd		 mov	 ecx, ebp
  01304	50		 push	 eax
  01305	8d 15 00 00 00
	00		 lea	 edx, DWORD PTR $L187966
  0130b	e8 00 00 00 00	 call	 @_RTC_CheckStackVars@8
  01310	58		 pop	 eax
  01311	5a		 pop	 edx
  01312	8b 4d f4	 mov	 ecx, DWORD PTR __$EHRec$[ebp]
  01315	64 89 0d 00 00
	00 00		 mov	 DWORD PTR fs:__except_list, ecx
  0131c	8b 4d f0	 mov	 ecx, DWORD PTR __$ArrayPad$[ebp]
  0131f	e8 00 00 00 00	 call	 @__security_check_cookie@4
  01324	5f		 pop	 edi
  01325	5e		 pop	 esi
  01326	81 c4 90 01 00
	00		 add	 esp, 400		; 00000190H
  0132c	3b ec		 cmp	 ebp, esp
  0132e	e8 00 00 00 00	 call	 __RTC_CheckEsp
  01333	8b e5		 mov	 esp, ebp
  01335	5d		 pop	 ebp
  01336	c2 04 00	 ret	 4
$L187966:
  01339	0c 00 00 00	 DD	 12			; 0000000cH
  0133d	00 00 00 00	 DD	 $L187965
$L187965:
  01341	dc ff ff ff	 DD	 -36			; ffffffdcH
  01345	08 00 00 00	 DD	 8
  01349	00 00 00 00	 DD	 $L187951
  0134d	80 ff ff ff	 DD	 -128			; ffffff80H
  01351	54 00 00 00	 DD	 84			; 00000054H
  01355	00 00 00 00	 DD	 $L187952
  01359	70 ff ff ff	 DD	 -144			; ffffff70H
  0135d	08 00 00 00	 DD	 8
  01361	00 00 00 00	 DD	 $L187953
  01365	54 ff ff ff	 DD	 -172			; ffffff54H
  01369	04 00 00 00	 DD	 4
  0136d	00 00 00 00	 DD	 $L187954
  01371	48 ff ff ff	 DD	 -184			; ffffff48H
  01375	04 00 00 00	 DD	 4
  01379	00 00 00 00	 DD	 $L187955
  0137d	38 ff ff ff	 DD	 -200			; ffffff38H
  01381	08 00 00 00	 DD	 8
  01385	00 00 00 00	 DD	 $L187956
  01389	28 ff ff ff	 DD	 -216			; ffffff28H
  0138d	08 00 00 00	 DD	 8
  01391	00 00 00 00	 DD	 $L187957
  01395	18 ff ff ff	 DD	 -232			; ffffff18H
  01399	08 00 00 00	 DD	 8
  0139d	00 00 00 00	 DD	 $L187958
  013a1	08 ff ff ff	 DD	 -248			; ffffff08H
  013a5	08 00 00 00	 DD	 8
  013a9	00 00 00 00	 DD	 $L187959
  013ad	f0 fe ff ff	 DD	 -272			; fffffef0H
  013b1	10 00 00 00	 DD	 16			; 00000010H
  013b5	00 00 00 00	 DD	 $L187960
  013b9	d8 fe ff ff	 DD	 -296			; fffffed8H
  013bd	10 00 00 00	 DD	 16			; 00000010H
  013c1	00 00 00 00	 DD	 $L187961
  013c5	c0 fe ff ff	 DD	 -320			; fffffec0H
  013c9	10 00 00 00	 DD	 16			; 00000010H
  013cd	00 00 00 00	 DD	 $L187962
$L187962:
  013d1	6d		 DB	 109			; 0000006dH
  013d2	61		 DB	 97			; 00000061H
  013d3	69		 DB	 105			; 00000069H
  013d4	6e		 DB	 110			; 0000006eH
  013d5	52		 DB	 82			; 00000052H
  013d6	65		 DB	 101			; 00000065H
  013d7	63		 DB	 99			; 00000063H
  013d8	74		 DB	 116			; 00000074H
  013d9	00		 DB	 0
$L187961:
  013da	63		 DB	 99			; 00000063H
  013db	6c		 DB	 108			; 0000006cH
  013dc	69		 DB	 105			; 00000069H
  013dd	65		 DB	 101			; 00000065H
  013de	6e		 DB	 110			; 0000006eH
  013df	74		 DB	 116			; 00000074H
  013e0	52		 DB	 82			; 00000052H
  013e1	65		 DB	 101			; 00000065H
  013e2	63		 DB	 99			; 00000063H
  013e3	74		 DB	 116			; 00000074H
  013e4	00		 DB	 0
$L187960:
  013e5	72		 DB	 114			; 00000072H
  013e6	65		 DB	 101			; 00000065H
  013e7	63		 DB	 99			; 00000063H
  013e8	74		 DB	 116			; 00000074H
  013e9	4e		 DB	 78			; 0000004eH
  013ea	65		 DB	 101			; 00000065H
  013eb	77		 DB	 119			; 00000077H
  013ec	00		 DB	 0
$L187959:
  013ed	70		 DB	 112			; 00000070H
  013ee	6f		 DB	 111			; 0000006fH
  013ef	69		 DB	 105			; 00000069H
  013f0	6e		 DB	 110			; 0000006eH
  013f1	74		 DB	 116			; 00000074H
  013f2	00		 DB	 0
$L187958:
  013f3	6f		 DB	 111			; 0000006fH
  013f4	70		 DB	 112			; 00000070H
  013f5	6f		 DB	 111			; 0000006fH
  013f6	69		 DB	 105			; 00000069H
  013f7	6e		 DB	 110			; 0000006eH
  013f8	74		 DB	 116			; 00000074H
  013f9	00		 DB	 0
$L187957:
  013fa	73		 DB	 115			; 00000073H
  013fb	69		 DB	 105			; 00000069H
  013fc	7a		 DB	 122			; 0000007aH
  013fd	65		 DB	 101			; 00000065H
  013fe	00		 DB	 0
$L187956:
  013ff	73		 DB	 115			; 00000073H
  01400	69		 DB	 105			; 00000069H
  01401	7a		 DB	 122			; 0000007aH
  01402	65		 DB	 101			; 00000065H
  01403	00		 DB	 0
$L187955:
  01404	74		 DB	 116			; 00000074H
  01405	65		 DB	 101			; 00000065H
  01406	6d		 DB	 109			; 0000006dH
  01407	70		 DB	 112			; 00000070H
  01408	00		 DB	 0
$L187954:
  01409	74		 DB	 116			; 00000074H
  0140a	65		 DB	 101			; 00000065H
  0140b	6d		 DB	 109			; 0000006dH
  0140c	70		 DB	 112			; 00000070H
  0140d	53		 DB	 83			; 00000053H
  0140e	74		 DB	 116			; 00000074H
  0140f	72		 DB	 114			; 00000072H
  01410	49		 DB	 73			; 00000049H
  01411	6e		 DB	 110			; 0000006eH
  01412	66		 DB	 102			; 00000066H
  01413	6f		 DB	 111			; 0000006fH
  01414	00		 DB	 0
$L187953:
  01415	66		 DB	 102			; 00000066H
  01416	6f		 DB	 111			; 0000006fH
  01417	6e		 DB	 110			; 0000006eH
  01418	74		 DB	 116			; 00000074H
  01419	00		 DB	 0
$L187952:
  0141a	64		 DB	 100			; 00000064H
  0141b	63		 DB	 99			; 00000063H
  0141c	00		 DB	 0
$L187951:
  0141d	70		 DB	 112			; 00000070H
  0141e	74		 DB	 116			; 00000074H
  0141f	00		 DB	 0
_TEXT	ENDS
text$x	SEGMENT
$L187944:
  000f8	8d 4d 80	 lea	 ecx, DWORD PTR _dc$187236[ebp]
  000fb	e9 00 00 00 00	 jmp	 ??1CPaintDC@@UAE@XZ	; CPaintDC::~CPaintDC
$L187945:
  00100	8d 8d 70 ff ff
	ff		 lea	 ecx, DWORD PTR _font$187237[ebp]
  00106	e9 00 00 00 00	 jmp	 ??1CFont@@UAE@XZ	; CFont::~CFont
$L187946:
  0010b	8b f4		 mov	 esi, esp
  0010d	8d 8d 54 ff ff
	ff		 lea	 ecx, DWORD PTR _tempStrInfo$187243[ebp]
  00113	ff 15 00 00 00
	00		 call	 DWORD PTR __imp_??1?$CStringT@DV?$StrTraitMFC_DLL@DV?$ChTraitsCRT@D@ATL@@@@@ATL@@QAE@XZ
  00119	3b f4		 cmp	 esi, esp
  0011b	e9 00 00 00 00	 jmp	 __RTC_CheckEsp
$L187947:
  00120	8b f4		 mov	 esi, esp
  00122	8d 8d 48 ff ff
	ff		 lea	 ecx, DWORD PTR _temp$187248[ebp]
  00128	ff 15 00 00 00
	00		 call	 DWORD PTR __imp_??1?$CStringT@DV?$StrTraitMFC_DLL@DV?$ChTraitsCRT@D@ATL@@@@@ATL@@QAE@XZ
  0012e	3b f4		 cmp	 esi, esp
  00130	e9 00 00 00 00	 jmp	 __RTC_CheckEsp
$L187948:
  00135	8b f4		 mov	 esi, esp
  00137	8d 8d 98 fe ff
	ff		 lea	 ecx, DWORD PTR $T187940[ebp]
  0013d	ff 15 00 00 00
	00		 call	 DWORD PTR __imp_??1?$CStringT@DV?$StrTraitMFC_DLL@DV?$ChTraitsCRT@D@ATL@@@@@ATL@@QAE@XZ
  00143	3b f4		 cmp	 esi, esp
  00145	e9 00 00 00 00	 jmp	 __RTC_CheckEsp
__ehhandler$?OnTimer@CCWToolTips@@QAEXI@Z:
  0014a	b8 00 00 00 00	 mov	 eax, OFFSET FLAT:$T187950
  0014f	e9 00 00 00 00	 jmp	 ___CxxFrameHandler
text$x	ENDS
?OnTimer@CCWToolTips@@QAEXI@Z ENDP			; CCWToolTips::OnTimer
EXTRN	__imp__PostMessageA@16:NEAR
EXTRN	?PreTranslateMessage@CWnd@@UAEHPAUtagMSG@@@Z:NEAR ; CWnd::PreTranslateMessage
; Function compile flags: /Odt /RTCsu
_TEXT	SEGMENT
_this$ = -4						; size = 4
_pMsg$ = 8						; size = 4
?PreTranslateMessage@CCWToolTips@@UAEHPAUtagMSG@@@Z PROC NEAR ; CCWToolTips::PreTranslateMessage
; _this$ = ecx

; 280  : {

  01420	55		 push	 ebp
  01421	8b ec		 mov	 ebp, esp
  01423	51		 push	 ecx
  01424	56		 push	 esi
  01425	c7 45 fc cc cc
	cc cc		 mov	 DWORD PTR [ebp-4], -858993460 ; ccccccccH
  0142c	89 4d fc	 mov	 DWORD PTR _this$[ebp], ecx

; 281  : 	if(pMsg->message != WM_PAINT && pMsg->message != WM_SIZE && pMsg->message != WM_SIZING)

  0142f	8b 45 08	 mov	 eax, DWORD PTR _pMsg$[ebp]
  01432	83 78 04 0f	 cmp	 DWORD PTR [eax+4], 15	; 0000000fH
  01436	74 4f		 je	 SHORT $L187275
  01438	8b 4d 08	 mov	 ecx, DWORD PTR _pMsg$[ebp]
  0143b	83 79 04 05	 cmp	 DWORD PTR [ecx+4], 5
  0143f	74 46		 je	 SHORT $L187275
  01441	8b 55 08	 mov	 edx, DWORD PTR _pMsg$[ebp]
  01444	81 7a 04 14 02
	00 00		 cmp	 DWORD PTR [edx+4], 532	; 00000214H
  0144b	74 3a		 je	 SHORT $L187275

; 282  : 	{
; 283  : 		if(m_hParent != NULL)

  0144d	8b 45 fc	 mov	 eax, DWORD PTR _this$[ebp]
  01450	83 b8 88 00 00
	00 00		 cmp	 DWORD PTR [eax+136], 0
  01457	74 2e		 je	 SHORT $L187275

; 284  : 			::PostMessage(m_hParent, pMsg->message, pMsg->wParam, pMsg->lParam);

  01459	8b f4		 mov	 esi, esp
  0145b	8b 4d 08	 mov	 ecx, DWORD PTR _pMsg$[ebp]
  0145e	8b 51 0c	 mov	 edx, DWORD PTR [ecx+12]
  01461	52		 push	 edx
  01462	8b 45 08	 mov	 eax, DWORD PTR _pMsg$[ebp]
  01465	8b 48 08	 mov	 ecx, DWORD PTR [eax+8]
  01468	51		 push	 ecx
  01469	8b 55 08	 mov	 edx, DWORD PTR _pMsg$[ebp]
  0146c	8b 42 04	 mov	 eax, DWORD PTR [edx+4]
  0146f	50		 push	 eax
  01470	8b 4d fc	 mov	 ecx, DWORD PTR _this$[ebp]
  01473	8b 91 88 00 00
	00		 mov	 edx, DWORD PTR [ecx+136]
  01479	52		 push	 edx
  0147a	ff 15 00 00 00
	00		 call	 DWORD PTR __imp__PostMessageA@16
  01480	3b f4		 cmp	 esi, esp
  01482	e8 00 00 00 00	 call	 __RTC_CheckEsp
$L187275:

; 285  : 	}
; 286  : 	return CWnd::PreTranslateMessage(pMsg);

  01487	8b 45 08	 mov	 eax, DWORD PTR _pMsg$[ebp]
  0148a	50		 push	 eax
  0148b	8b 4d fc	 mov	 ecx, DWORD PTR _this$[ebp]
  0148e	e8 00 00 00 00	 call	 ?PreTranslateMessage@CWnd@@UAEHPAUtagMSG@@@Z ; CWnd::PreTranslateMessage

; 287  : }

  01493	5e		 pop	 esi
  01494	83 c4 04	 add	 esp, 4
  01497	3b ec		 cmp	 ebp, esp
  01499	e8 00 00 00 00	 call	 __RTC_CheckEsp
  0149e	8b e5		 mov	 esp, ebp
  014a0	5d		 pop	 ebp
  014a1	c2 04 00	 ret	 4
?PreTranslateMessage@CCWToolTips@@UAEHPAUtagMSG@@@Z ENDP ; CCWToolTips::PreTranslateMessage
_TEXT	ENDS
EXTRN	?DeleteObject@CGdiObject@@QAEHXZ:NEAR		; CGdiObject::DeleteObject
EXTRN	??0CPen@@QAE@HHK@Z:NEAR				; CPen::CPen
EXTRN	??1CPen@@UAE@XZ:NEAR				; CPen::~CPen
EXTRN	?TopLeft@CRect@@QAEAAVCPoint@@XZ:NEAR		; CRect::TopLeft
EXTRN	?BottomRight@CRect@@QAEAAVCPoint@@XZ:NEAR	; CRect::BottomRight
EXTRN	?OffsetRect@CRect@@QAEXHH@Z:NEAR		; CRect::OffsetRect
EXTRN	?GetWindowRect@CWnd@@QBEXPAUtagRECT@@@Z:NEAR	; CWnd::GetWindowRect
EXTRN	?GetWindowDC@CWnd@@QAEPAVCDC@@XZ:NEAR		; CWnd::GetWindowDC
EXTRN	?ReleaseDC@CWnd@@QAEHPAVCDC@@@Z:NEAR		; CWnd::ReleaseDC
EXTRN	?SelectObject@CDC@@QAEPAVCPen@@PAV2@@Z:NEAR	; CDC::SelectObject
EXTRN	?MoveTo@CDC@@QAE?AVCPoint@@HH@Z:NEAR		; CDC::MoveTo
EXTRN	?LineTo@CDC@@QAEHHH@Z:NEAR			; CDC::LineTo
xdata$x	SEGMENT
$T187979 DD	0ffffffffH
	DD	FLAT:$L187971
$T187973 DD	019930520H
	DD	01H
	DD	FLAT:$T187979
	DD	2 DUP(00H)
	DD	2 DUP(00H)
; Function compile flags: /Odt /RTCsu
xdata$x	ENDS
_TEXT	SEGMENT
tv77 = -80						; size = 4
tv72 = -76						; size = 4
$T187970 = -72						; size = 8
_pOldPen$ = -64						; size = 4
_pen$ = -56						; size = 8
_pWinDC$ = -44						; size = 4
_rect$ = -36						; size = 16
_this$ = -16						; size = 4
__$EHRec$ = -12						; size = 12
?OnNcPaint@CCWToolTips@@QAEXXZ PROC NEAR		; CCWToolTips::OnNcPaint
; _this$ = ecx

; 290  : {

  014b0	55		 push	 ebp
  014b1	8b ec		 mov	 ebp, esp
  014b3	6a ff		 push	 -1
  014b5	68 00 00 00 00	 push	 __ehhandler$?OnNcPaint@CCWToolTips@@QAEXXZ
  014ba	64 a1 00 00 00
	00		 mov	 eax, DWORD PTR fs:__except_list
  014c0	50		 push	 eax
  014c1	64 89 25 00 00
	00 00		 mov	 DWORD PTR fs:__except_list, esp
  014c8	83 ec 44	 sub	 esp, 68			; 00000044H
  014cb	56		 push	 esi
  014cc	57		 push	 edi
  014cd	51		 push	 ecx
  014ce	8d 7d b0	 lea	 edi, DWORD PTR [ebp-80]
  014d1	b9 11 00 00 00	 mov	 ecx, 17			; 00000011H
  014d6	b8 cc cc cc cc	 mov	 eax, -858993460		; ccccccccH
  014db	f3 ab		 rep stosd
  014dd	59		 pop	 ecx
  014de	89 4d f0	 mov	 DWORD PTR _this$[ebp], ecx

; 291  : 	CRect rect;

  014e1	8d 4d dc	 lea	 ecx, DWORD PTR _rect$[ebp]
  014e4	e8 00 00 00 00	 call	 ??0CRect@@QAE@XZ	; CRect::CRect

; 292  : 	GetWindowRect(rect);

  014e9	8d 4d dc	 lea	 ecx, DWORD PTR _rect$[ebp]
  014ec	e8 00 00 00 00	 call	 ??BCRect@@QAEPAUtagRECT@@XZ ; CRect::operator tagRECT *
  014f1	50		 push	 eax
  014f2	8b 4d f0	 mov	 ecx, DWORD PTR _this$[ebp]
  014f5	e8 00 00 00 00	 call	 ?GetWindowRect@CWnd@@QBEXPAUtagRECT@@@Z ; CWnd::GetWindowRect

; 293  : 
; 294  : 	m_clrBorder = ::AfxGetUIManager()->UIGetSkinMgr()->GetColor("TooltipBorderColor");

  014fa	e8 00 00 00 00	 call	 ?AfxGetUIManager@@YAPAVIUIManager@@XZ ; AfxGetUIManager
  014ff	89 45 b4	 mov	 DWORD PTR tv72[ebp], eax
  01502	8b f4		 mov	 esi, esp
  01504	8b 45 b4	 mov	 eax, DWORD PTR tv72[ebp]
  01507	8b 10		 mov	 edx, DWORD PTR [eax]
  01509	8b 4d b4	 mov	 ecx, DWORD PTR tv72[ebp]
  0150c	ff 52 28	 call	 DWORD PTR [edx+40]
  0150f	3b f4		 cmp	 esi, esp
  01511	e8 00 00 00 00	 call	 __RTC_CheckEsp
  01516	89 45 b0	 mov	 DWORD PTR tv77[ebp], eax
  01519	8b f4		 mov	 esi, esp
  0151b	68 00 00 00 00	 push	 OFFSET FLAT:$SG187281
  01520	8b 45 b0	 mov	 eax, DWORD PTR tv77[ebp]
  01523	8b 10		 mov	 edx, DWORD PTR [eax]
  01525	8b 4d b0	 mov	 ecx, DWORD PTR tv77[ebp]
  01528	ff 52 08	 call	 DWORD PTR [edx+8]
  0152b	3b f4		 cmp	 esi, esp
  0152d	e8 00 00 00 00	 call	 __RTC_CheckEsp
  01532	8b 4d f0	 mov	 ecx, DWORD PTR _this$[ebp]
  01535	89 41 58	 mov	 DWORD PTR [ecx+88], eax

; 295  : 	rect.OffsetRect(-rect.left, -rect.top);

  01538	8b 55 e0	 mov	 edx, DWORD PTR _rect$[ebp+4]
  0153b	f7 da		 neg	 edx
  0153d	52		 push	 edx
  0153e	8b 45 dc	 mov	 eax, DWORD PTR _rect$[ebp]
  01541	f7 d8		 neg	 eax
  01543	50		 push	 eax
  01544	8d 4d dc	 lea	 ecx, DWORD PTR _rect$[ebp]
  01547	e8 00 00 00 00	 call	 ?OffsetRect@CRect@@QAEXHH@Z ; CRect::OffsetRect

; 296  : 
; 297  : 	CDC *pWinDC = GetWindowDC();	

  0154c	8b 4d f0	 mov	 ecx, DWORD PTR _this$[ebp]
  0154f	e8 00 00 00 00	 call	 ?GetWindowDC@CWnd@@QAEPAVCDC@@XZ ; CWnd::GetWindowDC
  01554	89 45 d4	 mov	 DWORD PTR _pWinDC$[ebp], eax

; 298  : 
; 299  : 	CPen pen(PS_SOLID,1,m_clrBorder);

  01557	8b 4d f0	 mov	 ecx, DWORD PTR _this$[ebp]
  0155a	8b 51 58	 mov	 edx, DWORD PTR [ecx+88]
  0155d	52		 push	 edx
  0155e	6a 01		 push	 1
  01560	6a 00		 push	 0
  01562	8d 4d c8	 lea	 ecx, DWORD PTR _pen$[ebp]
  01565	e8 00 00 00 00	 call	 ??0CPen@@QAE@HHK@Z	; CPen::CPen
  0156a	c7 45 fc 00 00
	00 00		 mov	 DWORD PTR __$EHRec$[ebp+8], 0

; 300  : 
; 301  : 	CPen* pOldPen = pWinDC->SelectObject(&pen);

  01571	8d 45 c8	 lea	 eax, DWORD PTR _pen$[ebp]
  01574	50		 push	 eax
  01575	8b 4d d4	 mov	 ecx, DWORD PTR _pWinDC$[ebp]
  01578	e8 00 00 00 00	 call	 ?SelectObject@CDC@@QAEPAVCPen@@PAV2@@Z ; CDC::SelectObject
  0157d	89 45 c0	 mov	 DWORD PTR _pOldPen$[ebp], eax

; 302  : 	pWinDC->MoveTo(rect.TopLeft().x,rect.TopLeft().y);

  01580	8d 4d dc	 lea	 ecx, DWORD PTR _rect$[ebp]
  01583	e8 00 00 00 00	 call	 ?TopLeft@CRect@@QAEAAVCPoint@@XZ ; CRect::TopLeft
  01588	8b 48 04	 mov	 ecx, DWORD PTR [eax+4]
  0158b	51		 push	 ecx
  0158c	8d 4d dc	 lea	 ecx, DWORD PTR _rect$[ebp]
  0158f	e8 00 00 00 00	 call	 ?TopLeft@CRect@@QAEAAVCPoint@@XZ ; CRect::TopLeft
  01594	8b 10		 mov	 edx, DWORD PTR [eax]
  01596	52		 push	 edx
  01597	8d 45 b8	 lea	 eax, DWORD PTR $T187970[ebp]
  0159a	50		 push	 eax
  0159b	8b 4d d4	 mov	 ecx, DWORD PTR _pWinDC$[ebp]
  0159e	e8 00 00 00 00	 call	 ?MoveTo@CDC@@QAE?AVCPoint@@HH@Z ; CDC::MoveTo

; 303  : 	pWinDC->LineTo(rect.BottomRight().x-1,rect.TopLeft().y);

  015a3	8d 4d dc	 lea	 ecx, DWORD PTR _rect$[ebp]
  015a6	e8 00 00 00 00	 call	 ?TopLeft@CRect@@QAEAAVCPoint@@XZ ; CRect::TopLeft
  015ab	8b 48 04	 mov	 ecx, DWORD PTR [eax+4]
  015ae	51		 push	 ecx
  015af	8d 4d dc	 lea	 ecx, DWORD PTR _rect$[ebp]
  015b2	e8 00 00 00 00	 call	 ?BottomRight@CRect@@QAEAAVCPoint@@XZ ; CRect::BottomRight
  015b7	8b 10		 mov	 edx, DWORD PTR [eax]
  015b9	83 ea 01	 sub	 edx, 1
  015bc	52		 push	 edx
  015bd	8b 4d d4	 mov	 ecx, DWORD PTR _pWinDC$[ebp]
  015c0	e8 00 00 00 00	 call	 ?LineTo@CDC@@QAEHHH@Z	; CDC::LineTo

; 304  : 	pWinDC->LineTo(rect.BottomRight().x-1,rect.BottomRight().y-1);

  015c5	8d 4d dc	 lea	 ecx, DWORD PTR _rect$[ebp]
  015c8	e8 00 00 00 00	 call	 ?BottomRight@CRect@@QAEAAVCPoint@@XZ ; CRect::BottomRight
  015cd	8b 40 04	 mov	 eax, DWORD PTR [eax+4]
  015d0	83 e8 01	 sub	 eax, 1
  015d3	50		 push	 eax
  015d4	8d 4d dc	 lea	 ecx, DWORD PTR _rect$[ebp]
  015d7	e8 00 00 00 00	 call	 ?BottomRight@CRect@@QAEAAVCPoint@@XZ ; CRect::BottomRight
  015dc	8b 08		 mov	 ecx, DWORD PTR [eax]
  015de	83 e9 01	 sub	 ecx, 1
  015e1	51		 push	 ecx
  015e2	8b 4d d4	 mov	 ecx, DWORD PTR _pWinDC$[ebp]
  015e5	e8 00 00 00 00	 call	 ?LineTo@CDC@@QAEHHH@Z	; CDC::LineTo

; 305  : 	pWinDC->LineTo(rect.TopLeft().x,rect.BottomRight().y-1);

  015ea	8d 4d dc	 lea	 ecx, DWORD PTR _rect$[ebp]
  015ed	e8 00 00 00 00	 call	 ?BottomRight@CRect@@QAEAAVCPoint@@XZ ; CRect::BottomRight
  015f2	8b 50 04	 mov	 edx, DWORD PTR [eax+4]
  015f5	83 ea 01	 sub	 edx, 1
  015f8	52		 push	 edx
  015f9	8d 4d dc	 lea	 ecx, DWORD PTR _rect$[ebp]
  015fc	e8 00 00 00 00	 call	 ?TopLeft@CRect@@QAEAAVCPoint@@XZ ; CRect::TopLeft
  01601	8b 00		 mov	 eax, DWORD PTR [eax]
  01603	50		 push	 eax
  01604	8b 4d d4	 mov	 ecx, DWORD PTR _pWinDC$[ebp]
  01607	e8 00 00 00 00	 call	 ?LineTo@CDC@@QAEHHH@Z	; CDC::LineTo

; 306  : 	pWinDC->LineTo(rect.TopLeft().x,rect.TopLeft().y);

  0160c	8d 4d dc	 lea	 ecx, DWORD PTR _rect$[ebp]
  0160f	e8 00 00 00 00	 call	 ?TopLeft@CRect@@QAEAAVCPoint@@XZ ; CRect::TopLeft
  01614	8b 48 04	 mov	 ecx, DWORD PTR [eax+4]
  01617	51		 push	 ecx
  01618	8d 4d dc	 lea	 ecx, DWORD PTR _rect$[ebp]
  0161b	e8 00 00 00 00	 call	 ?TopLeft@CRect@@QAEAAVCPoint@@XZ ; CRect::TopLeft
  01620	8b 10		 mov	 edx, DWORD PTR [eax]
  01622	52		 push	 edx
  01623	8b 4d d4	 mov	 ecx, DWORD PTR _pWinDC$[ebp]
  01626	e8 00 00 00 00	 call	 ?LineTo@CDC@@QAEHHH@Z	; CDC::LineTo

; 307  : 	pWinDC->SelectObject(pOldPen);

  0162b	8b 45 c0	 mov	 eax, DWORD PTR _pOldPen$[ebp]
  0162e	50		 push	 eax
  0162f	8b 4d d4	 mov	 ecx, DWORD PTR _pWinDC$[ebp]
  01632	e8 00 00 00 00	 call	 ?SelectObject@CDC@@QAEPAVCPen@@PAV2@@Z ; CDC::SelectObject

; 308  : 	pen.DeleteObject();

  01637	8d 4d c8	 lea	 ecx, DWORD PTR _pen$[ebp]
  0163a	e8 00 00 00 00	 call	 ?DeleteObject@CGdiObject@@QAEHXZ ; CGdiObject::DeleteObject

; 309  : 
; 310  : 	ReleaseDC(pWinDC);

  0163f	8b 4d d4	 mov	 ecx, DWORD PTR _pWinDC$[ebp]
  01642	51		 push	 ecx
  01643	8b 4d f0	 mov	 ecx, DWORD PTR _this$[ebp]
  01646	e8 00 00 00 00	 call	 ?ReleaseDC@CWnd@@QAEHPAVCDC@@@Z ; CWnd::ReleaseDC

; 311  : }

  0164b	c7 45 fc ff ff
	ff ff		 mov	 DWORD PTR __$EHRec$[ebp+8], -1
  01652	8d 4d c8	 lea	 ecx, DWORD PTR _pen$[ebp]
  01655	e8 00 00 00 00	 call	 ??1CPen@@UAE@XZ		; CPen::~CPen
  0165a	52		 push	 edx
  0165b	8b cd		 mov	 ecx, ebp
  0165d	50		 push	 eax
  0165e	8d 15 00 00 00
	00		 lea	 edx, DWORD PTR $L187978
  01664	e8 00 00 00 00	 call	 @_RTC_CheckStackVars@8
  01669	58		 pop	 eax
  0166a	5a		 pop	 edx
  0166b	8b 4d f4	 mov	 ecx, DWORD PTR __$EHRec$[ebp]
  0166e	64 89 0d 00 00
	00 00		 mov	 DWORD PTR fs:__except_list, ecx
  01675	5f		 pop	 edi
  01676	5e		 pop	 esi
  01677	83 c4 50	 add	 esp, 80			; 00000050H
  0167a	3b ec		 cmp	 ebp, esp
  0167c	e8 00 00 00 00	 call	 __RTC_CheckEsp
  01681	8b e5		 mov	 esp, ebp
  01683	5d		 pop	 ebp
  01684	c3		 ret	 0
$L187978:
  01685	02 00 00 00	 DD	 2
  01689	00 00 00 00	 DD	 $L187977
$L187977:
  0168d	dc ff ff ff	 DD	 -36			; ffffffdcH
  01691	10 00 00 00	 DD	 16			; 00000010H
  01695	00 00 00 00	 DD	 $L187974
  01699	c8 ff ff ff	 DD	 -56			; ffffffc8H
  0169d	08 00 00 00	 DD	 8
  016a1	00 00 00 00	 DD	 $L187975
$L187975:
  016a5	70		 DB	 112			; 00000070H
  016a6	65		 DB	 101			; 00000065H
  016a7	6e		 DB	 110			; 0000006eH
  016a8	00		 DB	 0
$L187974:
  016a9	72		 DB	 114			; 00000072H
  016aa	65		 DB	 101			; 00000065H
  016ab	63		 DB	 99			; 00000063H
  016ac	74		 DB	 116			; 00000074H
  016ad	00		 DB	 0
_TEXT	ENDS
text$x	SEGMENT
$L187971:
  00154	8d 4d c8	 lea	 ecx, DWORD PTR _pen$[ebp]
  00157	e9 00 00 00 00	 jmp	 ??1CPen@@UAE@XZ		; CPen::~CPen
__ehhandler$?OnNcPaint@CCWToolTips@@QAEXXZ:
  0015c	b8 00 00 00 00	 mov	 eax, OFFSET FLAT:$T187973
  00161	e9 00 00 00 00	 jmp	 ___CxxFrameHandler
text$x	ENDS
?OnNcPaint@CCWToolTips@@QAEXXZ ENDP			; CCWToolTips::OnNcPaint
PUBLIC	?InterlockedExchangePointer@@YGPAXPAPAXPAX@Z	; InterlockedExchangePointer
PUBLIC	?_AtlGetThreadACPFake@ATL@@YGIXZ		; ATL::_AtlGetThreadACPFake
PUBLIC	?_AtlGetThreadACPReal@ATL@@YGIXZ		; ATL::_AtlGetThreadACPReal
EXTRN	__imp__GetVersionExA@4:NEAR
; Function compile flags: /Odt /RTCsu
; File d:\program files (x86)\microsoft visual studio .net 2003\vc7\atlmfc\include\atlconv.h
;	COMDAT ?_AtlGetThreadACPThunk@ATL@@YGIXZ
_TEXT	SEGMENT
_pfnGetThreadACP$ = -164				; size = 4
_ver$ = -156						; size = 148
__$ArrayPad$ = -4					; size = 4
__$ReturnAddr$ = 4					; size = 4
?_AtlGetThreadACPThunk@ATL@@YGIXZ PROC NEAR		; ATL::_AtlGetThreadACPThunk, COMDAT

; 134  : {

  00000	55		 push	 ebp
  00001	8b ec		 mov	 ebp, esp
  00003	81 ec a4 00 00
	00		 sub	 esp, 164		; 000000a4H
  00009	56		 push	 esi
  0000a	57		 push	 edi
  0000b	8d bd 5c ff ff
	ff		 lea	 edi, DWORD PTR [ebp-164]
  00011	b9 29 00 00 00	 mov	 ecx, 41			; 00000029H
  00016	b8 cc cc cc cc	 mov	 eax, -858993460		; ccccccccH
  0001b	f3 ab		 rep stosd
  0001d	a1 00 00 00 00	 mov	 eax, DWORD PTR ___security_cookie
  00022	89 45 fc	 mov	 DWORD PTR __$ArrayPad$[ebp], eax

; 135  : 	OSVERSIONINFO ver;
; 136  : 	ATLGETTHREADACP pfnGetThreadACP;
; 137  : 
; 138  : 	ver.dwOSVersionInfoSize = sizeof( ver );

  00025	c7 85 64 ff ff
	ff 94 00 00 00	 mov	 DWORD PTR _ver$[ebp], 148 ; 00000094H

; 139  : 	::GetVersionEx( &ver );

  0002f	8b f4		 mov	 esi, esp
  00031	8d 85 64 ff ff
	ff		 lea	 eax, DWORD PTR _ver$[ebp]
  00037	50		 push	 eax
  00038	ff 15 00 00 00
	00		 call	 DWORD PTR __imp__GetVersionExA@4
  0003e	3b f4		 cmp	 esi, esp
  00040	e8 00 00 00 00	 call	 __RTC_CheckEsp

; 140  : 	if( (ver.dwPlatformId == VER_PLATFORM_WIN32_NT) && (ver.dwMajorVersion >= 5) )

  00045	83 bd 74 ff ff
	ff 02		 cmp	 DWORD PTR _ver$[ebp+16], 2
  0004c	75 15		 jne	 SHORT $L24163
  0004e	83 bd 68 ff ff
	ff 05		 cmp	 DWORD PTR _ver$[ebp+4], 5
  00055	72 0c		 jb	 SHORT $L24163

; 141  : 	{
; 142  : 		// On Win2K, CP_THREAD_ACP is supported
; 143  : 		pfnGetThreadACP = _AtlGetThreadACPReal;

  00057	c7 85 5c ff ff
	ff 00 00 00 00	 mov	 DWORD PTR _pfnGetThreadACP$[ebp], OFFSET FLAT:?_AtlGetThreadACPReal@ATL@@YGIXZ ; ATL::_AtlGetThreadACPReal

; 144  : 	}
; 145  : 	else

  00061	eb 0a		 jmp	 SHORT $L24164
$L24163:

; 146  : 	{
; 147  : 		pfnGetThreadACP = _AtlGetThreadACPFake;

  00063	c7 85 5c ff ff
	ff 00 00 00 00	 mov	 DWORD PTR _pfnGetThreadACP$[ebp], OFFSET FLAT:?_AtlGetThreadACPFake@ATL@@YGIXZ ; ATL::_AtlGetThreadACPFake
$L24164:

; 148  : 	}
; 149  : 	InterlockedExchangePointer( reinterpret_cast< void** >(&g_pfnGetThreadACP), pfnGetThreadACP );

  0006d	8b 8d 5c ff ff
	ff		 mov	 ecx, DWORD PTR _pfnGetThreadACP$[ebp]
  00073	51		 push	 ecx
  00074	68 00 00 00 00	 push	 OFFSET FLAT:?g_pfnGetThreadACP@ATL@@3P6GIXZA ; ATL::g_pfnGetThreadACP
  00079	e8 00 00 00 00	 call	 ?InterlockedExchangePointer@@YGPAXPAPAXPAX@Z ; InterlockedExchangePointer

; 150  : 
; 151  : 	return( g_pfnGetThreadACP() );

  0007e	8b f4		 mov	 esi, esp
  00080	ff 15 00 00 00
	00		 call	 DWORD PTR ?g_pfnGetThreadACP@ATL@@3P6GIXZA ; ATL::g_pfnGetThreadACP
  00086	3b f4		 cmp	 esi, esp
  00088	e8 00 00 00 00	 call	 __RTC_CheckEsp

; 152  : }

  0008d	52		 push	 edx
  0008e	8b cd		 mov	 ecx, ebp
  00090	50		 push	 eax
  00091	8d 15 00 00 00
	00		 lea	 edx, DWORD PTR $L187985
  00097	e8 00 00 00 00	 call	 @_RTC_CheckStackVars@8
  0009c	58		 pop	 eax
  0009d	5a		 pop	 edx
  0009e	8b 4d fc	 mov	 ecx, DWORD PTR __$ArrayPad$[ebp]
  000a1	e8 00 00 00 00	 call	 @__security_check_cookie@4
  000a6	5f		 pop	 edi
  000a7	5e		 pop	 esi
  000a8	81 c4 a4 00 00
	00		 add	 esp, 164		; 000000a4H
  000ae	3b ec		 cmp	 ebp, esp
  000b0	e8 00 00 00 00	 call	 __RTC_CheckEsp
  000b5	8b e5		 mov	 esp, ebp
  000b7	5d		 pop	 ebp
  000b8	c3		 ret	 0
$L187985:
  000b9	01 00 00 00	 DD	 1
  000bd	00 00 00 00	 DD	 $L187984
$L187984:
  000c1	64 ff ff ff	 DD	 -156			; ffffff64H
  000c5	94 00 00 00	 DD	 148			; 00000094H
  000c9	00 00 00 00	 DD	 $L187982
$L187982:
  000cd	76		 DB	 118			; 00000076H
  000ce	65		 DB	 101			; 00000065H
  000cf	72		 DB	 114			; 00000072H
  000d0	00		 DB	 0
?_AtlGetThreadACPThunk@ATL@@YGIXZ ENDP			; ATL::_AtlGetThreadACPThunk
_TEXT	ENDS
EXTRN	__imp__InterlockedExchange@8:NEAR
; Function compile flags: /Odt /RTCsu
;	COMDAT ?InterlockedExchangePointer@@YGPAXPAPAXPAX@Z
_TEXT	SEGMENT
_pp$ = 8						; size = 4
_pNew$ = 12						; size = 4
?InterlockedExchangePointer@@YGPAXPAPAXPAX@Z PROC NEAR	; InterlockedExchangePointer, COMDAT

; 91   : {

  00000	55		 push	 ebp
  00001	8b ec		 mov	 ebp, esp
  00003	56		 push	 esi

; 92   : 	return( reinterpret_cast<void*>(static_cast<LONG_PTR>(::InterlockedExchange(reinterpret_cast<LONG*>(pp), static_cast<LONG>(reinterpret_cast<LONG_PTR>(pNew))))) );

  00004	8b f4		 mov	 esi, esp
  00006	8b 45 0c	 mov	 eax, DWORD PTR _pNew$[ebp]
  00009	50		 push	 eax
  0000a	8b 4d 08	 mov	 ecx, DWORD PTR _pp$[ebp]
  0000d	51		 push	 ecx
  0000e	ff 15 00 00 00
	00		 call	 DWORD PTR __imp__InterlockedExchange@8
  00014	3b f4		 cmp	 esi, esp
  00016	e8 00 00 00 00	 call	 __RTC_CheckEsp

; 93   : }

  0001b	5e		 pop	 esi
  0001c	3b ec		 cmp	 ebp, esp
  0001e	e8 00 00 00 00	 call	 __RTC_CheckEsp
  00023	5d		 pop	 ebp
  00024	c2 08 00	 ret	 8
?InterlockedExchangePointer@@YGPAXPAPAXPAX@Z ENDP	; InterlockedExchangePointer
_TEXT	ENDS
EXTRN	__imp__GetACP@0:NEAR
EXTRN	__imp__GetLocaleInfoA@16:NEAR
EXTRN	__imp__GetThreadLocale@0:NEAR
; Function compile flags: /Odt /RTCsu
;	COMDAT ?_AtlGetThreadACPFake@ATL@@YGIXZ
_TEXT	SEGMENT
_pch$24151 = -32					; size = 4
_szACP$ = -24						; size = 7
_lcidThread$ = -12					; size = 4
_nACP$ = -8						; size = 4
__$ArrayPad$ = -4					; size = 4
__$ReturnAddr$ = 4					; size = 4
?_AtlGetThreadACPFake@ATL@@YGIXZ PROC NEAR		; ATL::_AtlGetThreadACPFake, COMDAT

; 101  : {

  00000	55		 push	 ebp
  00001	8b ec		 mov	 ebp, esp
  00003	83 ec 20	 sub	 esp, 32			; 00000020H
  00006	56		 push	 esi
  00007	b8 cc cc cc cc	 mov	 eax, -858993460		; ccccccccH
  0000c	89 45 e0	 mov	 DWORD PTR [ebp-32], eax
  0000f	89 45 e4	 mov	 DWORD PTR [ebp-28], eax
  00012	89 45 e8	 mov	 DWORD PTR [ebp-24], eax
  00015	89 45 ec	 mov	 DWORD PTR [ebp-20], eax
  00018	89 45 f0	 mov	 DWORD PTR [ebp-16], eax
  0001b	89 45 f4	 mov	 DWORD PTR [ebp-12], eax
  0001e	89 45 f8	 mov	 DWORD PTR [ebp-8], eax
  00021	89 45 fc	 mov	 DWORD PTR [ebp-4], eax
  00024	a1 00 00 00 00	 mov	 eax, DWORD PTR ___security_cookie
  00029	89 45 fc	 mov	 DWORD PTR __$ArrayPad$[ebp], eax

; 102  : 	UINT nACP = 0;

  0002c	c7 45 f8 00 00
	00 00		 mov	 DWORD PTR _nACP$[ebp], 0

; 103  : 
; 104  : 	LCID lcidThread = ::GetThreadLocale();

  00033	8b f4		 mov	 esi, esp
  00035	ff 15 00 00 00
	00		 call	 DWORD PTR __imp__GetThreadLocale@0
  0003b	3b f4		 cmp	 esi, esp
  0003d	e8 00 00 00 00	 call	 __RTC_CheckEsp
  00042	89 45 f4	 mov	 DWORD PTR _lcidThread$[ebp], eax

; 105  : 
; 106  : 	char szACP[7];
; 107  : 	// GetLocaleInfoA will fail for a Unicode-only LCID, but those are only supported on 
; 108  : 	// Windows 2000.  Since Windows 2000 supports CP_THREAD_ACP, this code path is never
; 109  : 	// executed on Windows 2000.
; 110  : 	if (::GetLocaleInfoA(lcidThread, LOCALE_IDEFAULTANSICODEPAGE, szACP, 7) != 0)

  00045	8b f4		 mov	 esi, esp
  00047	6a 07		 push	 7
  00049	8d 45 e8	 lea	 eax, DWORD PTR _szACP$[ebp]
  0004c	50		 push	 eax
  0004d	68 04 10 00 00	 push	 4100			; 00001004H
  00052	8b 4d f4	 mov	 ecx, DWORD PTR _lcidThread$[ebp]
  00055	51		 push	 ecx
  00056	ff 15 00 00 00
	00		 call	 DWORD PTR __imp__GetLocaleInfoA@16
  0005c	3b f4		 cmp	 esi, esp
  0005e	e8 00 00 00 00	 call	 __RTC_CheckEsp
  00063	85 c0		 test	 eax, eax
  00065	74 34		 je	 SHORT $L24150

; 111  : 	{
; 112  : 		char* pch = szACP;

  00067	8d 55 e8	 lea	 edx, DWORD PTR _szACP$[ebp]
  0006a	89 55 e0	 mov	 DWORD PTR _pch$24151[ebp], edx
$L24153:

; 113  : 		while (*pch != '\0')

  0006d	8b 45 e0	 mov	 eax, DWORD PTR _pch$24151[ebp]
  00070	0f be 08	 movsx	 ecx, BYTE PTR [eax]
  00073	85 c9		 test	 ecx, ecx
  00075	74 24		 je	 SHORT $L24150

; 114  : 		{
; 115  : 			nACP *= 10;

  00077	8b 55 f8	 mov	 edx, DWORD PTR _nACP$[ebp]
  0007a	6b d2 0a	 imul	 edx, 10			; 0000000aH
  0007d	89 55 f8	 mov	 DWORD PTR _nACP$[ebp], edx

; 116  : 			nACP += *pch++ - '0';

  00080	8b 45 e0	 mov	 eax, DWORD PTR _pch$24151[ebp]
  00083	0f be 08	 movsx	 ecx, BYTE PTR [eax]
  00086	8b 55 f8	 mov	 edx, DWORD PTR _nACP$[ebp]
  00089	8d 44 0a d0	 lea	 eax, DWORD PTR [edx+ecx-48]
  0008d	89 45 f8	 mov	 DWORD PTR _nACP$[ebp], eax
  00090	8b 4d e0	 mov	 ecx, DWORD PTR _pch$24151[ebp]
  00093	83 c1 01	 add	 ecx, 1
  00096	89 4d e0	 mov	 DWORD PTR _pch$24151[ebp], ecx

; 117  : 		}

  00099	eb d2		 jmp	 SHORT $L24153
$L24150:

; 118  : 	}
; 119  : 	// Use the Default ANSI Code Page if we were unable to get the thread ACP or if one does not exist.
; 120  : 	if (nACP == 0)

  0009b	83 7d f8 00	 cmp	 DWORD PTR _nACP$[ebp], 0
  0009f	75 12		 jne	 SHORT $L24155

; 121  : 		nACP = ::GetACP();

  000a1	8b f4		 mov	 esi, esp
  000a3	ff 15 00 00 00
	00		 call	 DWORD PTR __imp__GetACP@0
  000a9	3b f4		 cmp	 esi, esp
  000ab	e8 00 00 00 00	 call	 __RTC_CheckEsp
  000b0	89 45 f8	 mov	 DWORD PTR _nACP$[ebp], eax
$L24155:

; 122  : 
; 123  : 	return nACP;

  000b3	8b 45 f8	 mov	 eax, DWORD PTR _nACP$[ebp]

; 124  : }

  000b6	52		 push	 edx
  000b7	8b cd		 mov	 ecx, ebp
  000b9	50		 push	 eax
  000ba	8d 15 00 00 00
	00		 lea	 edx, DWORD PTR $L187992
  000c0	e8 00 00 00 00	 call	 @_RTC_CheckStackVars@8
  000c5	58		 pop	 eax
  000c6	5a		 pop	 edx
  000c7	8b 4d fc	 mov	 ecx, DWORD PTR __$ArrayPad$[ebp]
  000ca	e8 00 00 00 00	 call	 @__security_check_cookie@4
  000cf	5e		 pop	 esi
  000d0	83 c4 20	 add	 esp, 32			; 00000020H
  000d3	3b ec		 cmp	 ebp, esp
  000d5	e8 00 00 00 00	 call	 __RTC_CheckEsp
  000da	8b e5		 mov	 esp, ebp
  000dc	5d		 pop	 ebp
  000dd	c3		 ret	 0
$L187992:
  000de	01 00 00 00	 DD	 1
  000e2	00 00 00 00	 DD	 $L187991
$L187991:
  000e6	e8 ff ff ff	 DD	 -24			; ffffffe8H
  000ea	07 00 00 00	 DD	 7
  000ee	00 00 00 00	 DD	 $L187989
$L187989:
  000f2	73		 DB	 115			; 00000073H
  000f3	7a		 DB	 122			; 0000007aH
  000f4	41		 DB	 65			; 00000041H
  000f5	43		 DB	 67			; 00000043H
  000f6	50		 DB	 80			; 00000050H
  000f7	00		 DB	 0
?_AtlGetThreadACPFake@ATL@@YGIXZ ENDP			; ATL::_AtlGetThreadACPFake
; Function compile flags: /Odt /RTCsu
_TEXT	ENDS
;	COMDAT ?_AtlGetThreadACPReal@ATL@@YGIXZ
_TEXT	SEGMENT
?_AtlGetThreadACPReal@ATL@@YGIXZ PROC NEAR		; ATL::_AtlGetThreadACPReal, COMDAT

; 127  : {

  00000	55		 push	 ebp
  00001	8b ec		 mov	 ebp, esp

; 128  : 	return( CP_THREAD_ACP );

  00003	b8 03 00 00 00	 mov	 eax, 3

; 129  : }

  00008	5d		 pop	 ebp
  00009	c3		 ret	 0
?_AtlGetThreadACPReal@ATL@@YGIXZ ENDP			; ATL::_AtlGetThreadACPReal
_TEXT	ENDS
END
