; Listing generated by Microsoft (R) Optimizing Compiler Version 13.10.3077 

	TITLE	.\src\Gui\CommonControl\xSkinComboBox.cpp
	.386P
include listing.inc
if @Version gt 510
.model FLAT
else
_TEXT	SEGMENT PARA USE32 PUBLIC 'CODE'
_TEXT	ENDS
_DATA	SEGMENT DWORD USE32 PUBLIC 'DATA'
_DATA	ENDS
CONST	SEGMENT DWORD USE32 PUBLIC 'CONST'
CONST	ENDS
_BSS	SEGMENT DWORD USE32 PUBLIC 'BSS'
_BSS	ENDS
$$SYMBOLS	SEGMENT BYTE USE32 'DEBSYM'
$$SYMBOLS	ENDS
_TLS	SEGMENT DWORD USE32 PUBLIC 'TLS'
_TLS	ENDS
;	COMDAT ??_C@_0EN@IBFBLEEG@D?3?2Program?5Files?5?$CIx86?$CJ?2Microsoft@
CONST	SEGMENT DWORD USE32 PUBLIC 'CONST'
CONST	ENDS
;	COMDAT ??_C@_0BM@NMJKDPPO@invalid?5vector?$DMT?$DO?5subscript?$AA@
CONST	SEGMENT DWORD USE32 PUBLIC 'CONST'
CONST	ENDS
;	COMDAT ??_C@_0BK@JOOHECM@nNewLength?5?$DM?$DN?5GetLength?$CI?$CJ?$AA@
CONST	SEGMENT DWORD USE32 PUBLIC 'CONST'
CONST	ENDS
;	COMDAT ??_C@_0BD@OLBABOEK@vector?$DMT?$DO?5too?5long?$AA@
CONST	SEGMENT DWORD USE32 PUBLIC 'CONST'
CONST	ENDS
rdata$r	SEGMENT DWORD USE32 PUBLIC 'CONST'
rdata$r	ENDS
xdata$x	SEGMENT DWORD USE32 PUBLIC 'CONST'
xdata$x	ENDS
text$AFX_COL1	SEGMENT PARA USE32 PUBLIC ''
text$AFX_COL1	ENDS
text$yc	SEGMENT PARA USE32 PUBLIC 'CODE'
text$yc	ENDS
CRT$XCA	SEGMENT DWORD USE32 PUBLIC 'DATA'
CRT$XCA	ENDS
CRT$XCU	SEGMENT DWORD USE32 PUBLIC 'DATA'
CRT$XCU	ENDS
CRT$XCL	SEGMENT DWORD USE32 PUBLIC 'DATA'
CRT$XCL	ENDS
CRT$XCC	SEGMENT DWORD USE32 PUBLIC 'DATA'
CRT$XCC	ENDS
CRT$XCZ	SEGMENT DWORD USE32 PUBLIC 'DATA'
CRT$XCZ	ENDS
text$yd	SEGMENT PARA USE32 PUBLIC 'CODE'
text$yd	ENDS
ATL$__m	SEGMENT DWORD USE32 PUBLIC ''
ATL$__m	ENDS
ATL$__z	SEGMENT DWORD USE32 PUBLIC ''
ATL$__z	ENDS
ATL$__a	SEGMENT DWORD USE32 PUBLIC ''
ATL$__a	ENDS
;	COMDAT ??1IData@@MAE@XZ
_TEXT	SEGMENT PARA USE32 PUBLIC 'CODE'
_TEXT	ENDS
;	COMDAT ?DataAppStart@IData@@UAEXXZ
_TEXT	SEGMENT PARA USE32 PUBLIC 'CODE'
_TEXT	ENDS
;	COMDAT ?DataAppExit@IData@@UAEXXZ
_TEXT	SEGMENT PARA USE32 PUBLIC 'CODE'
_TEXT	ENDS
;	COMDAT ??_GIData@@MAEPAXI@Z
_TEXT	SEGMENT PARA USE32 PUBLIC 'CODE'
_TEXT	ENDS
;	COMDAT ??_GCComboBoxEdit@@UAEPAXI@Z
_TEXT	SEGMENT PARA USE32 PUBLIC 'CODE'
_TEXT	ENDS
;	COMDAT ??1CComboBoxEdit@@UAE@XZ
_TEXT	SEGMENT PARA USE32 PUBLIC 'CODE'
_TEXT	ENDS
;	COMDAT ??_GCComboBoxHistoryList@@UAEPAXI@Z
_TEXT	SEGMENT PARA USE32 PUBLIC 'CODE'
_TEXT	ENDS
;	COMDAT ??_GCComboBoxHistory@@UAEPAXI@Z
_TEXT	SEGMENT PARA USE32 PUBLIC 'CODE'
_TEXT	ENDS
;	COMDAT ??1CComboBoxHistory@@UAE@XZ
_TEXT	SEGMENT PARA USE32 PUBLIC 'CODE'
_TEXT	ENDS
;	COMDAT ??_GCxSkinComboBox@@UAEPAXI@Z
_TEXT	SEGMENT PARA USE32 PUBLIC 'CODE'
_TEXT	ENDS
;	COMDAT ??B?$CComPtrBase@UITypeInfo2@@@ATL@@QBEPAUITypeInfo2@@XZ
_TEXT	SEGMENT PARA USE32 PUBLIC 'CODE'
_TEXT	ENDS
;	COMDAT ?equal@?$istreambuf_iterator@DU?$char_traits@D@std@@@std@@QBE_NABV12@@Z
_TEXT	SEGMENT PARA USE32 PUBLIC 'CODE'
_TEXT	ENDS
;	COMDAT ?equal@?$istreambuf_iterator@_WU?$char_traits@_W@std@@@std@@QBE_NABV12@@Z
_TEXT	SEGMENT PARA USE32 PUBLIC 'CODE'
_TEXT	ENDS
;	COMDAT ??0?$vector@V?$basic_string@DU?$char_traits@D@std@@V?$allocator@D@2@@std@@V?$allocator@V?$basic_string@DU?$char_traits@D@std@@V?$allocator@D@2@@std@@@2@@std@@QAE@XZ
_TEXT	SEGMENT PARA USE32 PUBLIC 'CODE'
_TEXT	ENDS
;	COMDAT ??1?$vector@V?$basic_string@DU?$char_traits@D@std@@V?$allocator@D@2@@std@@V?$allocator@V?$basic_string@DU?$char_traits@D@std@@V?$allocator@D@2@@std@@@2@@std@@QAE@XZ
_TEXT	SEGMENT PARA USE32 PUBLIC 'CODE'
_TEXT	ENDS
;	COMDAT ?size@?$vector@V?$basic_string@DU?$char_traits@D@std@@V?$allocator@D@2@@std@@V?$allocator@V?$basic_string@DU?$char_traits@D@std@@V?$allocator@D@2@@std@@@2@@std@@QBEIXZ
_TEXT	SEGMENT PARA USE32 PUBLIC 'CODE'
_TEXT	ENDS
;	COMDAT ?at@?$vector@V?$basic_string@DU?$char_traits@D@std@@V?$allocator@D@2@@std@@V?$allocator@V?$basic_string@DU?$char_traits@D@std@@V?$allocator@D@2@@std@@@2@@std@@QAEAAV?$basic_string@DU?$char_traits@D@std@@V?$allocator@D@2@@2@I@Z
_TEXT	SEGMENT PARA USE32 PUBLIC 'CODE'
_TEXT	ENDS
;	COMDAT ?push_back@?$vector@V?$basic_string@DU?$char_traits@D@std@@V?$allocator@D@2@@std@@V?$allocator@V?$basic_string@DU?$char_traits@D@std@@V?$allocator@D@2@@std@@@2@@std@@QAEXABV?$basic_string@DU?$char_traits@D@std@@V?$allocator@D@2@@2@@Z
_TEXT	SEGMENT PARA USE32 PUBLIC 'CODE'
_TEXT	ENDS
;	COMDAT ?clear@?$vector@V?$basic_string@DU?$char_traits@D@std@@V?$allocator@D@2@@std@@V?$allocator@V?$basic_string@DU?$char_traits@D@std@@V?$allocator@D@2@@std@@@2@@std@@QAEXXZ
_TEXT	SEGMENT PARA USE32 PUBLIC 'CODE'
_TEXT	ENDS
;	COMDAT ??0?$allocator@V?$basic_string@DU?$char_traits@D@std@@V?$allocator@D@2@@std@@@std@@QAE@XZ
_TEXT	SEGMENT PARA USE32 PUBLIC 'CODE'
_TEXT	ENDS
;	COMDAT ?capacity@?$vector@V?$basic_string@DU?$char_traits@D@std@@V?$allocator@D@2@@std@@V?$allocator@V?$basic_string@DU?$char_traits@D@std@@V?$allocator@D@2@@std@@@2@@std@@QBEIXZ
_TEXT	SEGMENT PARA USE32 PUBLIC 'CODE'
_TEXT	ENDS
;	COMDAT ?begin@?$vector@V?$basic_string@DU?$char_traits@D@std@@V?$allocator@D@2@@std@@V?$allocator@V?$basic_string@DU?$char_traits@D@std@@V?$allocator@D@2@@std@@@2@@std@@QAE?AViterator@12@XZ
_TEXT	SEGMENT PARA USE32 PUBLIC 'CODE'
_TEXT	ENDS
;	COMDAT ?end@?$vector@V?$basic_string@DU?$char_traits@D@std@@V?$allocator@D@2@@std@@V?$allocator@V?$basic_string@DU?$char_traits@D@std@@V?$allocator@D@2@@std@@@2@@std@@QAE?AViterator@12@XZ
_TEXT	SEGMENT PARA USE32 PUBLIC 'CODE'
_TEXT	ENDS
;	COMDAT ?insert@?$vector@V?$basic_string@DU?$char_traits@D@std@@V?$allocator@D@2@@std@@V?$allocator@V?$basic_string@DU?$char_traits@D@std@@V?$allocator@D@2@@std@@@2@@std@@QAE?AViterator@12@V312@ABV?$basic_string@DU?$char_traits@D@std@@V?$allocator@D@2@@2@@Z
_TEXT	SEGMENT PARA USE32 PUBLIC 'CODE'
_TEXT	ENDS
;	COMDAT ?_Buy@?$vector@V?$basic_string@DU?$char_traits@D@std@@V?$allocator@D@2@@std@@V?$allocator@V?$basic_string@DU?$char_traits@D@std@@V?$allocator@D@2@@std@@@2@@std@@IAE_NI@Z
_TEXT	SEGMENT PARA USE32 PUBLIC 'CODE'
_TEXT	ENDS
;	COMDAT ?_Tidy@?$vector@V?$basic_string@DU?$char_traits@D@std@@V?$allocator@D@2@@std@@V?$allocator@V?$basic_string@DU?$char_traits@D@std@@V?$allocator@D@2@@std@@@2@@std@@IAEXXZ
_TEXT	SEGMENT PARA USE32 PUBLIC 'CODE'
_TEXT	ENDS
;	COMDAT ?_Ufill@?$vector@V?$basic_string@DU?$char_traits@D@std@@V?$allocator@D@2@@std@@V?$allocator@V?$basic_string@DU?$char_traits@D@std@@V?$allocator@D@2@@std@@@2@@std@@IAEPAV?$basic_string@DU?$char_traits@D@std@@V?$allocator@D@2@@2@PAV32@IABV32@@Z
_TEXT	SEGMENT PARA USE32 PUBLIC 'CODE'
_TEXT	ENDS
;	COMDAT ?_Xran@?$vector@V?$basic_string@DU?$char_traits@D@std@@V?$allocator@D@2@@std@@V?$allocator@V?$basic_string@DU?$char_traits@D@std@@V?$allocator@D@2@@std@@@2@@std@@IBEXXZ
_TEXT	SEGMENT PARA USE32 PUBLIC 'CODE'
_TEXT	ENDS
;	COMDAT ??0?$_Vector_val@V?$basic_string@DU?$char_traits@D@std@@V?$allocator@D@2@@std@@V?$allocator@V?$basic_string@DU?$char_traits@D@std@@V?$allocator@D@2@@std@@@2@@std@@IAE@V?$allocator@V?$basic_string@DU?$char_traits@D@std@@V?$allocator@D@2@@std@@@1@@Z
_TEXT	SEGMENT PARA USE32 PUBLIC 'CODE'
_TEXT	ENDS
;	COMDAT ??Diterator@?$vector@V?$basic_string@DU?$char_traits@D@std@@V?$allocator@D@2@@std@@V?$allocator@V?$basic_string@DU?$char_traits@D@std@@V?$allocator@D@2@@std@@@2@@std@@QBEAAV?$basic_string@DU?$char_traits@D@std@@V?$allocator@D@2@@2@XZ
_TEXT	SEGMENT PARA USE32 PUBLIC 'CODE'
_TEXT	ENDS
;	COMDAT ??Hiterator@?$vector@V?$basic_string@DU?$char_traits@D@std@@V?$allocator@D@2@@std@@V?$allocator@V?$basic_string@DU?$char_traits@D@std@@V?$allocator@D@2@@std@@@2@@std@@QBE?AV012@H@Z
_TEXT	SEGMENT PARA USE32 PUBLIC 'CODE'
_TEXT	ENDS
;	COMDAT ?CharNextA@?$ChTraitsCRT@D@ATL@@SAPADPBD@Z
_TEXT	SEGMENT PARA USE32 PUBLIC 'CODE'
_TEXT	ENDS
;	COMDAT ?IsSpace@?$ChTraitsCRT@D@ATL@@SAHD@Z
_TEXT	SEGMENT PARA USE32 PUBLIC 'CODE'
_TEXT	ENDS
;	COMDAT ??0?$allocator@V?$basic_string@DU?$char_traits@D@std@@V?$allocator@D@2@@std@@@std@@QAE@ABV01@@Z
_TEXT	SEGMENT PARA USE32 PUBLIC 'CODE'
_TEXT	ENDS
;	COMDAT ?deallocate@?$allocator@V?$basic_string@DU?$char_traits@D@std@@V?$allocator@D@2@@std@@@std@@QAEXPAV?$basic_string@DU?$char_traits@D@std@@V?$allocator@D@2@@2@I@Z
_TEXT	SEGMENT PARA USE32 PUBLIC 'CODE'
_TEXT	ENDS
;	COMDAT ?allocate@?$allocator@V?$basic_string@DU?$char_traits@D@std@@V?$allocator@D@2@@std@@@std@@QAEPAV?$basic_string@DU?$char_traits@D@std@@V?$allocator@D@2@@2@I@Z
_TEXT	SEGMENT PARA USE32 PUBLIC 'CODE'
_TEXT	ENDS
;	COMDAT ?max_size@?$vector@V?$basic_string@DU?$char_traits@D@std@@V?$allocator@D@2@@std@@V?$allocator@V?$basic_string@DU?$char_traits@D@std@@V?$allocator@D@2@@std@@@2@@std@@QBEIXZ
_TEXT	SEGMENT PARA USE32 PUBLIC 'CODE'
_TEXT	ENDS
;	COMDAT ?_Destroy@?$vector@V?$basic_string@DU?$char_traits@D@std@@V?$allocator@D@2@@std@@V?$allocator@V?$basic_string@DU?$char_traits@D@std@@V?$allocator@D@2@@std@@@2@@std@@IAEXPAV?$basic_string@DU?$char_traits@D@std@@V?$allocator@D@2@@2@0@Z
_TEXT	SEGMENT PARA USE32 PUBLIC 'CODE'
_TEXT	ENDS
;	COMDAT ?_Insert_n@?$vector@V?$basic_string@DU?$char_traits@D@std@@V?$allocator@D@2@@std@@V?$allocator@V?$basic_string@DU?$char_traits@D@std@@V?$allocator@D@2@@std@@@2@@std@@IAEXViterator@12@IABV?$basic_string@DU?$char_traits@D@std@@V?$allocator@D@2@@2@@Z
_TEXT	SEGMENT PARA USE32 PUBLIC 'CODE'
_TEXT	ENDS
;	COMDAT ?_Xlen@?$vector@V?$basic_string@DU?$char_traits@D@std@@V?$allocator@D@2@@std@@V?$allocator@V?$basic_string@DU?$char_traits@D@std@@V?$allocator@D@2@@std@@@2@@std@@IBEXXZ
_TEXT	SEGMENT PARA USE32 PUBLIC 'CODE'
_TEXT	ENDS
;	COMDAT ??0iterator@?$vector@V?$basic_string@DU?$char_traits@D@std@@V?$allocator@D@2@@std@@V?$allocator@V?$basic_string@DU?$char_traits@D@std@@V?$allocator@D@2@@std@@@2@@std@@QAE@PAV?$basic_string@DU?$char_traits@D@std@@V?$allocator@D@2@@2@@Z
_TEXT	SEGMENT PARA USE32 PUBLIC 'CODE'
_TEXT	ENDS
;	COMDAT ??Yiterator@?$vector@V?$basic_string@DU?$char_traits@D@std@@V?$allocator@D@2@@std@@V?$allocator@V?$basic_string@DU?$char_traits@D@std@@V?$allocator@D@2@@std@@@2@@std@@QAEAAV012@H@Z
_TEXT	SEGMENT PARA USE32 PUBLIC 'CODE'
_TEXT	ENDS
;	COMDAT ??Giterator@?$vector@V?$basic_string@DU?$char_traits@D@std@@V?$allocator@D@2@@std@@V?$allocator@V?$basic_string@DU?$char_traits@D@std@@V?$allocator@D@2@@std@@@2@@std@@QBEHABVconst_iterator@12@@Z
_TEXT	SEGMENT PARA USE32 PUBLIC 'CODE'
_TEXT	ENDS
;	COMDAT ??Dconst_iterator@?$vector@V?$basic_string@DU?$char_traits@D@std@@V?$allocator@D@2@@std@@V?$allocator@V?$basic_string@DU?$char_traits@D@std@@V?$allocator@D@2@@std@@@2@@std@@QBEABV?$basic_string@DU?$char_traits@D@std@@V?$allocator@D@2@@2@XZ
_TEXT	SEGMENT PARA USE32 PUBLIC 'CODE'
_TEXT	ENDS
;	COMDAT ??0length_error@std@@QAE@ABV01@@Z
_TEXT	SEGMENT PARA USE32 PUBLIC 'CODE'
_TEXT	ENDS
;	COMDAT ?max_size@?$allocator@V?$basic_string@DU?$char_traits@D@std@@V?$allocator@D@2@@std@@@std@@QBEIXZ
_TEXT	SEGMENT PARA USE32 PUBLIC 'CODE'
_TEXT	ENDS
;	COMDAT ??0const_iterator@?$vector@V?$basic_string@DU?$char_traits@D@std@@V?$allocator@D@2@@std@@V?$allocator@V?$basic_string@DU?$char_traits@D@std@@V?$allocator@D@2@@std@@@2@@std@@QAE@PAV?$basic_string@DU?$char_traits@D@std@@V?$allocator@D@2@@2@@Z
_TEXT	SEGMENT PARA USE32 PUBLIC 'CODE'
_TEXT	ENDS
;	COMDAT ??Gconst_iterator@?$vector@V?$basic_string@DU?$char_traits@D@std@@V?$allocator@D@2@@std@@V?$allocator@V?$basic_string@DU?$char_traits@D@std@@V?$allocator@D@2@@std@@@2@@std@@QBEHABV012@@Z
_TEXT	SEGMENT PARA USE32 PUBLIC 'CODE'
_TEXT	ENDS
;	COMDAT ?Unlock@?$CComCritSecLock@VCComCriticalSection@ATL@@@ATL@@QAEXXZ
_TEXT	SEGMENT PARA USE32 PUBLIC 'CODE'
_TEXT	ENDS
;	COMDAT ??$_Uninitialized_fill_n@PAV?$basic_string@DU?$char_traits@D@std@@V?$allocator@D@2@@std@@IV12@V?$allocator@V?$basic_string@DU?$char_traits@D@std@@V?$allocator@D@2@@std@@@2@@std@@YAXPAV?$basic_string@DU?$char_traits@D@std@@V?$allocator@D@2@@0@IABV10@AAV?$allocator@V?$basic_string@DU?$char_traits@D@std@@V?$allocator@D@2@@std@@@0@@Z
_TEXT	SEGMENT PARA USE32 PUBLIC 'CODE'
_TEXT	ENDS
;	COMDAT ??$_Maklocstr@D@std@@YAPADPBDPADABU_Cvtvec@@@Z
_TEXT	SEGMENT PARA USE32 PUBLIC 'CODE'
_TEXT	ENDS
;	COMDAT ??$_Allocate@V?$basic_string@DU?$char_traits@D@std@@V?$allocator@D@2@@std@@@std@@YAPAV?$basic_string@DU?$char_traits@D@std@@V?$allocator@D@2@@0@IPAV10@@Z
_TEXT	SEGMENT PARA USE32 PUBLIC 'CODE'
_TEXT	ENDS
;	COMDAT ??$_Destroy_range@V?$basic_string@DU?$char_traits@D@std@@V?$allocator@D@2@@std@@V?$allocator@V?$basic_string@DU?$char_traits@D@std@@V?$allocator@D@2@@std@@@2@@std@@YAXPAV?$basic_string@DU?$char_traits@D@std@@V?$allocator@D@2@@0@0AAV?$allocator@V?$basic_string@DU?$char_traits@D@std@@V?$allocator@D@2@@std@@@0@@Z
_TEXT	SEGMENT PARA USE32 PUBLIC 'CODE'
_TEXT	ENDS
;	COMDAT ??$_Ucopy@PAV?$basic_string@DU?$char_traits@D@std@@V?$allocator@D@2@@std@@@?$vector@V?$basic_string@DU?$char_traits@D@std@@V?$allocator@D@2@@std@@V?$allocator@V?$basic_string@DU?$char_traits@D@std@@V?$allocator@D@2@@std@@@2@@std@@IAEPAV?$basic_string@DU?$char_traits@D@std@@V?$allocator@D@2@@1@PAV21@00@Z
_TEXT	SEGMENT PARA USE32 PUBLIC 'CODE'
_TEXT	ENDS
;	COMDAT ??$fill@PAV?$basic_string@DU?$char_traits@D@std@@V?$allocator@D@2@@std@@V12@@std@@YAXPAV?$basic_string@DU?$char_traits@D@std@@V?$allocator@D@2@@0@0ABV10@@Z
_TEXT	SEGMENT PARA USE32 PUBLIC 'CODE'
_TEXT	ENDS
;	COMDAT ??$copy_backward@PAV?$basic_string@DU?$char_traits@D@std@@V?$allocator@D@2@@std@@PAV12@@std@@YAPAV?$basic_string@DU?$char_traits@D@std@@V?$allocator@D@2@@0@PAV10@00@Z
_TEXT	SEGMENT PARA USE32 PUBLIC 'CODE'
_TEXT	ENDS
;	COMDAT ??$_Ptr_cat@PAV?$basic_string@DU?$char_traits@D@std@@V?$allocator@D@2@@std@@PAV12@@std@@YA?AU_Nonscalar_ptr_iterator_tag@0@AAPAV?$basic_string@DU?$char_traits@D@std@@V?$allocator@D@2@@0@0@Z
_TEXT	SEGMENT PARA USE32 PUBLIC 'CODE'
_TEXT	ENDS
;	COMDAT ??$_Uninit_fill_n@PAV?$basic_string@DU?$char_traits@D@std@@V?$allocator@D@2@@std@@IV12@V?$allocator@V?$basic_string@DU?$char_traits@D@std@@V?$allocator@D@2@@std@@@2@@std@@YAXPAV?$basic_string@DU?$char_traits@D@std@@V?$allocator@D@2@@0@IABV10@AAV?$allocator@V?$basic_string@DU?$char_traits@D@std@@V?$allocator@D@2@@std@@@0@U_Nonscalar_ptr_iterator_tag@0@@Z
_TEXT	SEGMENT PARA USE32 PUBLIC 'CODE'
_TEXT	ENDS
;	COMDAT ??$_Destroy_range@V?$basic_string@DU?$char_traits@D@std@@V?$allocator@D@2@@std@@V?$allocator@V?$basic_string@DU?$char_traits@D@std@@V?$allocator@D@2@@std@@@2@@std@@YAXPAV?$basic_string@DU?$char_traits@D@std@@V?$allocator@D@2@@0@0AAV?$allocator@V?$basic_string@DU?$char_traits@D@std@@V?$allocator@D@2@@std@@@0@U_Nonscalar_ptr_iterator_tag@0@@Z
_TEXT	SEGMENT PARA USE32 PUBLIC 'CODE'
_TEXT	ENDS
;	COMDAT ??$_Uninitialized_copy@PAV?$basic_string@DU?$char_traits@D@std@@V?$allocator@D@2@@std@@PAV12@V?$allocator@V?$basic_string@DU?$char_traits@D@std@@V?$allocator@D@2@@std@@@2@@std@@YAPAV?$basic_string@DU?$char_traits@D@std@@V?$allocator@D@2@@0@PAV10@00AAV?$allocator@V?$basic_string@DU?$char_traits@D@std@@V?$allocator@D@2@@std@@@0@@Z
_TEXT	SEGMENT PARA USE32 PUBLIC 'CODE'
_TEXT	ENDS
;	COMDAT ??$_Copy_backward_opt@PAV?$basic_string@DU?$char_traits@D@std@@V?$allocator@D@2@@std@@PAV12@@std@@YAPAV?$basic_string@DU?$char_traits@D@std@@V?$allocator@D@2@@0@PAV10@00U_Nonscalar_ptr_iterator_tag@0@@Z
_TEXT	SEGMENT PARA USE32 PUBLIC 'CODE'
_TEXT	ENDS
;	COMDAT ?construct@?$allocator@V?$basic_string@DU?$char_traits@D@std@@V?$allocator@D@2@@std@@@std@@QAEXPAV?$basic_string@DU?$char_traits@D@std@@V?$allocator@D@2@@2@ABV32@@Z
_TEXT	SEGMENT PARA USE32 PUBLIC 'CODE'
_TEXT	ENDS
;	COMDAT ?destroy@?$allocator@V?$basic_string@DU?$char_traits@D@std@@V?$allocator@D@2@@std@@@std@@QAEXPAV?$basic_string@DU?$char_traits@D@std@@V?$allocator@D@2@@2@@Z
_TEXT	SEGMENT PARA USE32 PUBLIC 'CODE'
_TEXT	ENDS
;	COMDAT ??$_Uninit_copy@PAV?$basic_string@DU?$char_traits@D@std@@V?$allocator@D@2@@std@@PAV12@V?$allocator@V?$basic_string@DU?$char_traits@D@std@@V?$allocator@D@2@@std@@@2@@std@@YAPAV?$basic_string@DU?$char_traits@D@std@@V?$allocator@D@2@@0@PAV10@00AAV?$allocator@V?$basic_string@DU?$char_traits@D@std@@V?$allocator@D@2@@std@@@0@U_Nonscalar_ptr_iterator_tag@0@@Z
_TEXT	SEGMENT PARA USE32 PUBLIC 'CODE'
_TEXT	ENDS
;	COMDAT ??$_Construct@V?$basic_string@DU?$char_traits@D@std@@V?$allocator@D@2@@std@@V12@@std@@YAXPAV?$basic_string@DU?$char_traits@D@std@@V?$allocator@D@2@@0@ABV10@@Z
_TEXT	SEGMENT PARA USE32 PUBLIC 'CODE'
_TEXT	ENDS
;	COMDAT ??$_Destroy@V?$basic_string@DU?$char_traits@D@std@@V?$allocator@D@2@@std@@@std@@YAXPAV?$basic_string@DU?$char_traits@D@std@@V?$allocator@D@2@@0@@Z
_TEXT	SEGMENT PARA USE32 PUBLIC 'CODE'
_TEXT	ENDS
;	COMDAT ??_G?$basic_string@DU?$char_traits@D@std@@V?$allocator@D@2@@std@@QAEPAXI@Z
_TEXT	SEGMENT PARA USE32 PUBLIC 'CODE'
_TEXT	ENDS
;	COMDAT ??_R3CxSkinComboBox@@8
rdata$r	SEGMENT DWORD USE32 PUBLIC 'CONST'
rdata$r	ENDS
;	COMDAT ??_R3CComboBoxHistory@@8
rdata$r	SEGMENT DWORD USE32 PUBLIC 'CONST'
rdata$r	ENDS
;	COMDAT ??_R3?$numpunct@_W@std@@8
rdata$r	SEGMENT DWORD USE32 PUBLIC 'CONST'
rdata$r	ENDS
;	COMDAT ??_R3?$numpunct@D@std@@8
rdata$r	SEGMENT DWORD USE32 PUBLIC 'CONST'
rdata$r	ENDS
;	COMDAT ??_R3CComboBoxHistoryList@@8
rdata$r	SEGMENT DWORD USE32 PUBLIC 'CONST'
rdata$r	ENDS
;	COMDAT ??_R3IData@@8
rdata$r	SEGMENT DWORD USE32 PUBLIC 'CONST'
rdata$r	ENDS
;	COMDAT ??_R3CComboBoxEdit@@8
rdata$r	SEGMENT DWORD USE32 PUBLIC 'CONST'
rdata$r	ENDS
;	COMDAT ??_R2CxSkinComboBox@@8
rdata$r	SEGMENT DWORD USE32 PUBLIC 'CONST'
rdata$r	ENDS
;	COMDAT ??_R2CComboBoxHistory@@8
rdata$r	SEGMENT DWORD USE32 PUBLIC 'CONST'
rdata$r	ENDS
;	COMDAT ??_R2?$numpunct@_W@std@@8
rdata$r	SEGMENT DWORD USE32 PUBLIC 'CONST'
rdata$r	ENDS
;	COMDAT ??_R2?$numpunct@D@std@@8
rdata$r	SEGMENT DWORD USE32 PUBLIC 'CONST'
rdata$r	ENDS
;	COMDAT ??_R2CComboBoxHistoryList@@8
rdata$r	SEGMENT DWORD USE32 PUBLIC 'CONST'
rdata$r	ENDS
;	COMDAT ??_R2IData@@8
rdata$r	SEGMENT DWORD USE32 PUBLIC 'CONST'
rdata$r	ENDS
;	COMDAT ??_R2CComboBoxEdit@@8
rdata$r	SEGMENT DWORD USE32 PUBLIC 'CONST'
rdata$r	ENDS
;	COMDAT ??_R1A@?0A@A@CxSkinComboBox@@8
rdata$r	SEGMENT DWORD USE32 PUBLIC 'CONST'
rdata$r	ENDS
;	COMDAT ??_R1A@?0A@A@CComboBoxHistory@@8
rdata$r	SEGMENT DWORD USE32 PUBLIC 'CONST'
rdata$r	ENDS
;	COMDAT ??_R1A@?0A@A@?$numpunct@_W@std@@8
rdata$r	SEGMENT DWORD USE32 PUBLIC 'CONST'
rdata$r	ENDS
;	COMDAT ??_R1A@?0A@A@facet@locale@std@@8
rdata$r	SEGMENT DWORD USE32 PUBLIC 'CONST'
rdata$r	ENDS
;	COMDAT ??_R0?AVfacet@locale@std@@@8
_DATA	SEGMENT DWORD USE32 PUBLIC 'DATA'
_DATA	ENDS
;	COMDAT ??_R1A@?0A@A@?$numpunct@D@std@@8
rdata$r	SEGMENT DWORD USE32 PUBLIC 'CONST'
rdata$r	ENDS
;	COMDAT ??_R1A@?0A@A@CListCtrl@@8
rdata$r	SEGMENT DWORD USE32 PUBLIC 'CONST'
rdata$r	ENDS
;	COMDAT ??_R1A@?0A@A@CComboBoxHistoryList@@8
rdata$r	SEGMENT DWORD USE32 PUBLIC 'CONST'
rdata$r	ENDS
;	COMDAT ??_R1A@?0A@A@IData@@8
rdata$r	SEGMENT DWORD USE32 PUBLIC 'CONST'
rdata$r	ENDS
;	COMDAT ??_R1A@?0A@A@CObject@@8
rdata$r	SEGMENT DWORD USE32 PUBLIC 'CONST'
rdata$r	ENDS
;	COMDAT ??_R0?AVCObject@@@8
_DATA	SEGMENT DWORD USE32 PUBLIC 'DATA'
_DATA	ENDS
;	COMDAT ??_R1A@?0A@A@CCmdTarget@@8
rdata$r	SEGMENT DWORD USE32 PUBLIC 'CONST'
rdata$r	ENDS
;	COMDAT ??_R0?AVCCmdTarget@@@8
_DATA	SEGMENT DWORD USE32 PUBLIC 'DATA'
_DATA	ENDS
;	COMDAT ??_R1A@?0A@A@CWnd@@8
rdata$r	SEGMENT DWORD USE32 PUBLIC 'CONST'
rdata$r	ENDS
;	COMDAT ??_R0?AVCWnd@@@8
_DATA	SEGMENT DWORD USE32 PUBLIC 'DATA'
_DATA	ENDS
;	COMDAT ??_R1A@?0A@A@CEdit@@8
rdata$r	SEGMENT DWORD USE32 PUBLIC 'CONST'
rdata$r	ENDS
;	COMDAT ??_R1A@?0A@A@CComboBoxEdit@@8
rdata$r	SEGMENT DWORD USE32 PUBLIC 'CONST'
rdata$r	ENDS
;	COMDAT ??_R0?AVCxSkinComboBox@@@8
_DATA	SEGMENT DWORD USE32 PUBLIC 'DATA'
_DATA	ENDS
;	COMDAT ??_R0?AVCComboBoxHistory@@@8
_DATA	SEGMENT DWORD USE32 PUBLIC 'DATA'
_DATA	ENDS
;	COMDAT ??_R0?AV?$numpunct@_W@std@@@8
_DATA	SEGMENT DWORD USE32 PUBLIC 'DATA'
_DATA	ENDS
;	COMDAT ??_R0?AV?$numpunct@D@std@@@8
_DATA	SEGMENT DWORD USE32 PUBLIC 'DATA'
_DATA	ENDS
;	COMDAT ??_R0?AVCListCtrl@@@8
_DATA	SEGMENT DWORD USE32 PUBLIC 'DATA'
_DATA	ENDS
;	COMDAT ??_R0?AVCComboBoxHistoryList@@@8
_DATA	SEGMENT DWORD USE32 PUBLIC 'DATA'
_DATA	ENDS
;	COMDAT ??_R0?AVIData@@@8
_DATA	SEGMENT DWORD USE32 PUBLIC 'DATA'
_DATA	ENDS
;	COMDAT ??_R0?AVCEdit@@@8
_DATA	SEGMENT DWORD USE32 PUBLIC 'DATA'
_DATA	ENDS
;	COMDAT ??_R0?AVCComboBoxEdit@@@8
_DATA	SEGMENT DWORD USE32 PUBLIC 'DATA'
_DATA	ENDS
;	COMDAT ??_R4CxSkinComboBox@@6B@
rdata$r	SEGMENT DWORD USE32 PUBLIC 'CONST'
rdata$r	ENDS
;	COMDAT ??_R4CComboBoxHistory@@6B@
rdata$r	SEGMENT DWORD USE32 PUBLIC 'CONST'
rdata$r	ENDS
;	COMDAT ??0?$allocator@_W@std@@QAE@XZ
_TEXT	SEGMENT PARA USE32 PUBLIC 'CODE'
_TEXT	ENDS
;	COMDAT ??_G?$numpunct@_W@std@@MAEPAXI@Z
_TEXT	SEGMENT PARA USE32 PUBLIC 'CODE'
_TEXT	ENDS
;	COMDAT ??_R4?$numpunct@_W@std@@6B@
rdata$r	SEGMENT DWORD USE32 PUBLIC 'CONST'
rdata$r	ENDS
;	COMDAT ??_G?$numpunct@D@std@@MAEPAXI@Z
_TEXT	SEGMENT PARA USE32 PUBLIC 'CODE'
_TEXT	ENDS
;	COMDAT ??_R4?$numpunct@D@std@@6B@
rdata$r	SEGMENT DWORD USE32 PUBLIC 'CONST'
rdata$r	ENDS
;	COMDAT ??_R4CComboBoxHistoryList@@6B@
rdata$r	SEGMENT DWORD USE32 PUBLIC 'CONST'
rdata$r	ENDS
;	COMDAT ??_R4IData@@6B@
rdata$r	SEGMENT DWORD USE32 PUBLIC 'CONST'
rdata$r	ENDS
;	COMDAT ??_R4CComboBoxEdit@@6B@
rdata$r	SEGMENT DWORD USE32 PUBLIC 'CONST'
rdata$r	ENDS
;	COMDAT ??3@YAXPAX0@Z
_TEXT	SEGMENT PARA USE32 PUBLIC 'CODE'
_TEXT	ENDS
;	COMDAT ??2@YAPAXIPAX@Z
_TEXT	SEGMENT PARA USE32 PUBLIC 'CODE'
_TEXT	ENDS
;	COMDAT ?max_size@?$allocator@D@std@@QBEIXZ
_TEXT	SEGMENT PARA USE32 PUBLIC 'CODE'
_TEXT	ENDS
;	COMDAT ?allocate@?$allocator@D@std@@QAEPADI@Z
_TEXT	SEGMENT PARA USE32 PUBLIC 'CODE'
_TEXT	ENDS
;	COMDAT ??$_Allocate@D@std@@YAPADIPAD@Z
_TEXT	SEGMENT PARA USE32 PUBLIC 'CODE'
_TEXT	ENDS
;	COMDAT ?deallocate@?$allocator@D@std@@QAEXPADI@Z
_TEXT	SEGMENT PARA USE32 PUBLIC 'CODE'
_TEXT	ENDS
;	COMDAT ??_C@_0EN@CBMLGOH@D?3?2Program?5Files?5?$CIx86?$CJ?2Microsoft@
CONST	SEGMENT DWORD USE32 PUBLIC 'CONST'
CONST	ENDS
;	COMDAT ?_Psave@?$_Facetptr@V?$numpunct@_W@std@@@std@@2PBVfacet@locale@2@B
_DATA	SEGMENT DWORD USE32 PUBLIC 'DATA'
_DATA	ENDS
;	COMDAT ?_Psave@?$_Facetptr@V?$numpunct@D@std@@@std@@2PBVfacet@locale@2@B
_DATA	SEGMENT DWORD USE32 PUBLIC 'DATA'
_DATA	ENDS
;	COMDAT ?Unlock@CComCriticalSection@ATL@@QAEJXZ
_TEXT	SEGMENT PARA USE32 PUBLIC 'CODE'
_TEXT	ENDS
;	COMDAT ??_C@_0FG@LDNDNCJM@D?3?2Program?5Files?5?$CIx86?$CJ?2Microsoft@
CONST	SEGMENT DWORD USE32 PUBLIC 'CONST'
CONST	ENDS
;	COMDAT ??_C@_09HIEJFN@m_bLocked?$AA@
CONST	SEGMENT DWORD USE32 PUBLIC 'CONST'
CONST	ENDS
;	COMDAT ?_Psave@?$_Facetptr@V?$ctype@_W@std@@@std@@2PBVfacet@locale@2@B
_DATA	SEGMENT DWORD USE32 PUBLIC 'DATA'
_DATA	ENDS
;	COMDAT ?_Psave@?$_Facetptr@V?$ctype@D@std@@@std@@2PBVfacet@locale@2@B
_DATA	SEGMENT DWORD USE32 PUBLIC 'DATA'
_DATA	ENDS
;	COMDAT ??_7length_error@std@@6B@
CONST	SEGMENT DWORD USE32 PUBLIC 'CONST'
CONST	ENDS
;	COMDAT ??_R4length_error@std@@6B@
rdata$r	SEGMENT DWORD USE32 PUBLIC 'CONST'
rdata$r	ENDS
;	COMDAT ??_R3length_error@std@@8
rdata$r	SEGMENT DWORD USE32 PUBLIC 'CONST'
rdata$r	ENDS
;	COMDAT ??_R2length_error@std@@8
rdata$r	SEGMENT DWORD USE32 PUBLIC 'CONST'
rdata$r	ENDS
;	COMDAT ??_R1A@?0A@A@length_error@std@@8
rdata$r	SEGMENT DWORD USE32 PUBLIC 'CONST'
rdata$r	ENDS
;	COMDAT ??_R1A@?0A@A@logic_error@std@@8
rdata$r	SEGMENT DWORD USE32 PUBLIC 'CONST'
rdata$r	ENDS
;	COMDAT ??_R0?AVlogic_error@std@@@8
_DATA	SEGMENT DWORD USE32 PUBLIC 'DATA'
_DATA	ENDS
;	COMDAT ??_R1A@?0A@A@exception@@8
rdata$r	SEGMENT DWORD USE32 PUBLIC 'CONST'
rdata$r	ENDS
;	COMDAT ??_R0?AVexception@@@8
_DATA	SEGMENT DWORD USE32 PUBLIC 'DATA'
_DATA	ENDS
;	COMDAT ??_Glength_error@std@@UAEPAXI@Z
_TEXT	SEGMENT PARA USE32 PUBLIC 'CODE'
_TEXT	ENDS
;	COMDAT ?what@logic_error@std@@UBEPBDXZ
_TEXT	SEGMENT PARA USE32 PUBLIC 'CODE'
_TEXT	ENDS
;	COMDAT ??1logic_error@std@@UAE@XZ
_TEXT	SEGMENT PARA USE32 PUBLIC 'CODE'
_TEXT	ENDS
;	COMDAT ??_7logic_error@std@@6B@
CONST	SEGMENT DWORD USE32 PUBLIC 'CONST'
CONST	ENDS
;	COMDAT ??_R4logic_error@std@@6B@
rdata$r	SEGMENT DWORD USE32 PUBLIC 'CONST'
rdata$r	ENDS
;	COMDAT ??_R3logic_error@std@@8
rdata$r	SEGMENT DWORD USE32 PUBLIC 'CONST'
rdata$r	ENDS
;	COMDAT ??_R2logic_error@std@@8
rdata$r	SEGMENT DWORD USE32 PUBLIC 'CONST'
rdata$r	ENDS
;	COMDAT ??_Glogic_error@std@@UAEPAXI@Z
_TEXT	SEGMENT PARA USE32 PUBLIC 'CODE'
_TEXT	ENDS
;	COMDAT ??0logic_error@std@@QAE@ABV01@@Z
_TEXT	SEGMENT PARA USE32 PUBLIC 'CODE'
_TEXT	ENDS
;	COMDAT __CTA3?AVlength_error@std@@
xdata$x	SEGMENT DWORD USE32 PUBLIC 'CONST'
xdata$x	ENDS
;	COMDAT ??1length_error@std@@UAE@XZ
_TEXT	SEGMENT PARA USE32 PUBLIC 'CODE'
_TEXT	ENDS
;	COMDAT __CT??_R0?AVexception@@@8??0exception@@QAE@ABV0@@Z12
xdata$x	SEGMENT DWORD USE32 PUBLIC 'CONST'
xdata$x	ENDS
;	COMDAT __CT??_R0?AVlogic_error@std@@@8??0logic_error@std@@QAE@ABV01@@Z40
xdata$x	SEGMENT DWORD USE32 PUBLIC 'CONST'
xdata$x	ENDS
;	COMDAT __CT??_R0?AVlength_error@std@@@8??0length_error@std@@QAE@ABV01@@Z40
xdata$x	SEGMENT DWORD USE32 PUBLIC 'CONST'
xdata$x	ENDS
;	COMDAT ??_R0?AVlength_error@std@@@8
_DATA	SEGMENT DWORD USE32 PUBLIC 'DATA'
_DATA	ENDS
;	COMDAT __TI3?AVlength_error@std@@
xdata$x	SEGMENT DWORD USE32 PUBLIC 'CONST'
xdata$x	ENDS
;	COMDAT ??0length_error@std@@QAE@ABV?$basic_string@DU?$char_traits@D@std@@V?$allocator@D@2@@1@@Z
_TEXT	SEGMENT PARA USE32 PUBLIC 'CODE'
_TEXT	ENDS
;	COMDAT ??0logic_error@std@@QAE@ABV?$basic_string@DU?$char_traits@D@std@@V?$allocator@D@2@@1@@Z
_TEXT	SEGMENT PARA USE32 PUBLIC 'CODE'
_TEXT	ENDS
;	COMDAT ??0?$allocator@D@std@@QAE@ABV01@@Z
_TEXT	SEGMENT PARA USE32 PUBLIC 'CODE'
_TEXT	ENDS
;	COMDAT ??$_Maklocchr@_W@std@@YA_WDPA_WABU_Cvtvec@@@Z
_TEXT	SEGMENT PARA USE32 PUBLIC 'CODE'
_TEXT	ENDS
;	COMDAT ??$_DebugHeapDelete@X@std@@YAXPAX@Z
_TEXT	SEGMENT PARA USE32 PUBLIC 'CODE'
_TEXT	ENDS
;	COMDAT ??$_Maklocstr@_W@std@@YAPA_WPBDPA_WABU_Cvtvec@@@Z
_TEXT	SEGMENT PARA USE32 PUBLIC 'CODE'
_TEXT	ENDS
;	COMDAT ??$_Maklocchr@D@std@@YADDPADABU_Cvtvec@@@Z
_TEXT	SEGMENT PARA USE32 PUBLIC 'CODE'
_TEXT	ENDS
;	COMDAT ??_C@_04LOAJBDKD@true?$AA@
CONST	SEGMENT DWORD USE32 PUBLIC 'CONST'
CONST	ENDS
;	COMDAT ??_C@_05LAPONLG@false?$AA@
CONST	SEGMENT DWORD USE32 PUBLIC 'CONST'
CONST	ENDS
;	COMDAT _wmemcpy
_TEXT	SEGMENT PARA USE32 PUBLIC 'CODE'
_TEXT	ENDS
;	COMDAT ?max_size@?$allocator@_W@std@@QBEIXZ
_TEXT	SEGMENT PARA USE32 PUBLIC 'CODE'
_TEXT	ENDS
;	COMDAT ?allocate@?$allocator@_W@std@@QAEPA_WI@Z
_TEXT	SEGMENT PARA USE32 PUBLIC 'CODE'
_TEXT	ENDS
;	COMDAT ??$_Allocate@_W@std@@YAPA_WIPA_W@Z
_TEXT	SEGMENT PARA USE32 PUBLIC 'CODE'
_TEXT	ENDS
;	COMDAT ??_C@_0FJ@DMHPDOJC@D?3?2Program?5Files?5?$CIx86?$CJ?2Microsoft@
CONST	SEGMENT DWORD USE32 PUBLIC 'CONST'
CONST	ENDS
;	COMDAT __TI3?AVout_of_range@std@@
xdata$x	SEGMENT DWORD USE32 PUBLIC 'CONST'
xdata$x	ENDS
;	COMDAT ??1out_of_range@std@@UAE@XZ
_TEXT	SEGMENT PARA USE32 PUBLIC 'CODE'
_TEXT	ENDS
;	COMDAT ??_7out_of_range@std@@6B@
CONST	SEGMENT DWORD USE32 PUBLIC 'CONST'
CONST	ENDS
;	COMDAT ??_R4out_of_range@std@@6B@
rdata$r	SEGMENT DWORD USE32 PUBLIC 'CONST'
rdata$r	ENDS
;	COMDAT ??_R0?AVout_of_range@std@@@8
_DATA	SEGMENT DWORD USE32 PUBLIC 'DATA'
_DATA	ENDS
;	COMDAT ??_R3out_of_range@std@@8
rdata$r	SEGMENT DWORD USE32 PUBLIC 'CONST'
rdata$r	ENDS
;	COMDAT ??_R2out_of_range@std@@8
rdata$r	SEGMENT DWORD USE32 PUBLIC 'CONST'
rdata$r	ENDS
;	COMDAT ??_R1A@?0A@A@out_of_range@std@@8
rdata$r	SEGMENT DWORD USE32 PUBLIC 'CONST'
rdata$r	ENDS
;	COMDAT ??_Gout_of_range@std@@UAEPAXI@Z
_TEXT	SEGMENT PARA USE32 PUBLIC 'CODE'
_TEXT	ENDS
;	COMDAT __CTA3?AVout_of_range@std@@
xdata$x	SEGMENT DWORD USE32 PUBLIC 'CONST'
xdata$x	ENDS
;	COMDAT __CT??_R0?AVout_of_range@std@@@8??0out_of_range@std@@QAE@ABV01@@Z40
xdata$x	SEGMENT DWORD USE32 PUBLIC 'CONST'
xdata$x	ENDS
;	COMDAT ??0out_of_range@std@@QAE@ABV01@@Z
_TEXT	SEGMENT PARA USE32 PUBLIC 'CODE'
_TEXT	ENDS
;	COMDAT ??0out_of_range@std@@QAE@ABV?$basic_string@DU?$char_traits@D@std@@V?$allocator@D@2@@1@@Z
_TEXT	SEGMENT PARA USE32 PUBLIC 'CODE'
_TEXT	ENDS
;	COMDAT ??_C@_01GFHCPBMG@C?$AA@
CONST	SEGMENT DWORD USE32 PUBLIC 'CONST'
CONST	ENDS
;	COMDAT ??_C@_0BA@GNIEOBOF@nNewLength?5?$DO?$DN?50?$AA@
CONST	SEGMENT DWORD USE32 PUBLIC 'CONST'
CONST	ENDS
;	COMDAT ??_C@_0N@ILOMLJGA@nLength?5?$DO?$DN?50?$AA@
CONST	SEGMENT DWORD USE32 PUBLIC 'CONST'
CONST	ENDS
;	COMDAT ??_C@_0CD@EEFFJEGJ@nLength?5?$DM?$DN?5GetData?$CI?$CJ?9?$DOnAllocLeng@
CONST	SEGMENT DWORD USE32 PUBLIC 'CONST'
CONST	ENDS
;	COMDAT ?AtlThrow@ATL@@YGXJ@Z
_TEXT	SEGMENT PARA USE32 PUBLIC 'CODE'
_TEXT	ENDS
;	COMDAT ??RCTraceFileAndLineInfo@ATL@@QBAXKIPBDZZ
_TEXT	SEGMENT PARA USE32 PUBLIC 'CODE'
_TEXT	ENDS
;	COMDAT ?TraceV@CTrace@ATL@@QBAXPBDHKI0PAD@Z
_TEXT	SEGMENT PARA USE32 PUBLIC 'CODE'
_TEXT	ENDS
;	COMDAT ??0CTraceFileAndLineInfo@ATL@@QAE@PBDH@Z
_TEXT	SEGMENT PARA USE32 PUBLIC 'CODE'
_TEXT	ENDS
;	COMDAT ??_C@_0FI@NHHJANPC@D?3?2Program?5Files?5?$CIx86?$CJ?2Microsoft@
CONST	SEGMENT DWORD USE32 PUBLIC 'CONST'
CONST	ENDS
;	COMDAT ??_C@_0BF@IAAKIJDJ@AtlThrow?3?5hr?5?$DN?50x?$CFx?6?$AA@
CONST	SEGMENT DWORD USE32 PUBLIC 'CONST'
CONST	ENDS
;	COMDAT ??BCTraceCategory@ATL@@QBEKXZ
_TEXT	SEGMENT PARA USE32 PUBLIC 'CODE'
_TEXT	ENDS
;	COMDAT ?IsShared@CStringData@ATL@@QBE_NXZ
_TEXT	SEGMENT PARA USE32 PUBLIC 'CODE'
_TEXT	ENDS
;	COMDAT ?data@CStringData@ATL@@QAEPAXXZ
_TEXT	SEGMENT PARA USE32 PUBLIC 'CODE'
_TEXT	ENDS
;	COMDAT ?Release@CStringData@ATL@@QAEXXZ
_TEXT	SEGMENT PARA USE32 PUBLIC 'CODE'
_TEXT	ENDS
;	COMDAT ??_C@_0L@OIIMFBNE@nRefs?5?$CB?$DN?50?$AA@
CONST	SEGMENT DWORD USE32 PUBLIC 'CONST'
CONST	ENDS
;	COMDAT ??_C@_0CB@GFHAPKDK@pOldData?9?$DOnAllocLength?5?$DM?5nLength@
CONST	SEGMENT DWORD USE32 PUBLIC 'CONST'
CONST	ENDS
;	COMDAT ?_Peek@?$istreambuf_iterator@_WU?$char_traits@_W@std@@@std@@AAE_WXZ
_TEXT	SEGMENT PARA USE32 PUBLIC 'CODE'
_TEXT	ENDS
;	COMDAT ?_Peek@?$istreambuf_iterator@DU?$char_traits@D@std@@@std@@AAEDXZ
_TEXT	SEGMENT PARA USE32 PUBLIC 'CODE'
_TEXT	ENDS
;	COMDAT ??$use_facet@V?$ctype@_W@std@@@std@@YAABV?$ctype@_W@0@ABVlocale@0@@Z
_TEXT	SEGMENT PARA USE32 PUBLIC 'CODE'
_TEXT	ENDS
;	COMDAT ??_S?$ctype@_W@std@@6B@
CONST	SEGMENT DWORD USE32 PUBLIC 'CONST'
CONST	ENDS
;	COMDAT ??_R4?$ctype@_W@std@@6B@
rdata$r	SEGMENT DWORD USE32 PUBLIC 'CONST'
rdata$r	ENDS
;	COMDAT ??_R0?AV?$ctype@_W@std@@@8
_DATA	SEGMENT DWORD USE32 PUBLIC 'DATA'
_DATA	ENDS
;	COMDAT ??_R3?$ctype@_W@std@@8
rdata$r	SEGMENT DWORD USE32 PUBLIC 'CONST'
rdata$r	ENDS
;	COMDAT ??_R2?$ctype@_W@std@@8
rdata$r	SEGMENT DWORD USE32 PUBLIC 'CONST'
rdata$r	ENDS
;	COMDAT ??_R1A@?0A@A@?$ctype@_W@std@@8
rdata$r	SEGMENT DWORD USE32 PUBLIC 'CONST'
rdata$r	ENDS
;	COMDAT ??_R1A@?0A@A@ctype_base@std@@8
rdata$r	SEGMENT DWORD USE32 PUBLIC 'CONST'
rdata$r	ENDS
;	COMDAT ??_R0?AUctype_base@std@@@8
_DATA	SEGMENT DWORD USE32 PUBLIC 'DATA'
_DATA	ENDS
;	COMDAT ??_G?$ctype@_W@std@@MAEPAXI@Z
_TEXT	SEGMENT PARA USE32 PUBLIC 'CODE'
_TEXT	ENDS
;	COMDAT ??_C@_08EPJLHIJG@bad?5cast?$AA@
CONST	SEGMENT DWORD USE32 PUBLIC 'CONST'
CONST	ENDS
;	COMDAT __TI2?AVbad_cast@@
xdata$x	SEGMENT DWORD USE32 PUBLIC 'CONST'
xdata$x	ENDS
;	COMDAT __CTA2?AVbad_cast@@
xdata$x	SEGMENT DWORD USE32 PUBLIC 'CONST'
xdata$x	ENDS
;	COMDAT __CT??_R0?AVbad_cast@@@8??0bad_cast@@QAE@ABV0@@Z12
xdata$x	SEGMENT DWORD USE32 PUBLIC 'CONST'
xdata$x	ENDS
;	COMDAT ??_R0?AVbad_cast@@@8
_DATA	SEGMENT DWORD USE32 PUBLIC 'DATA'
_DATA	ENDS
;	COMDAT ??$_DebugHeapDelete@Vfacet@locale@std@@@std@@YAXPAVfacet@locale@0@@Z
_TEXT	SEGMENT PARA USE32 PUBLIC 'CODE'
_TEXT	ENDS
;	COMDAT ??$use_facet@V?$ctype@D@std@@@std@@YAABV?$ctype@D@0@ABVlocale@0@@Z
_TEXT	SEGMENT PARA USE32 PUBLIC 'CODE'
_TEXT	ENDS
;	COMDAT ??_S?$ctype@D@std@@6B@
CONST	SEGMENT DWORD USE32 PUBLIC 'CONST'
CONST	ENDS
;	COMDAT ??_R4?$ctype@D@std@@6B@
rdata$r	SEGMENT DWORD USE32 PUBLIC 'CONST'
rdata$r	ENDS
;	COMDAT ??_R0?AV?$ctype@D@std@@@8
_DATA	SEGMENT DWORD USE32 PUBLIC 'DATA'
_DATA	ENDS
;	COMDAT ??_R3?$ctype@D@std@@8
rdata$r	SEGMENT DWORD USE32 PUBLIC 'CONST'
rdata$r	ENDS
;	COMDAT ??_R2?$ctype@D@std@@8
rdata$r	SEGMENT DWORD USE32 PUBLIC 'CONST'
rdata$r	ENDS
;	COMDAT ??_R1A@?0A@A@?$ctype@D@std@@8
rdata$r	SEGMENT DWORD USE32 PUBLIC 'CONST'
rdata$r	ENDS
;	COMDAT ??_G?$ctype@D@std@@MAEPAXI@Z
_TEXT	SEGMENT PARA USE32 PUBLIC 'CODE'
_TEXT	ENDS
;	COMDAT ??_S?$numpunct@_W@std@@6B@
CONST	SEGMENT DWORD USE32 PUBLIC 'CONST'
CONST	ENDS
;	COMDAT ??_S?$numpunct@D@std@@6B@
CONST	SEGMENT DWORD USE32 PUBLIC 'CONST'
CONST	ENDS
;	COMDAT _wmemmove
_TEXT	SEGMENT PARA USE32 PUBLIC 'CODE'
_TEXT	ENDS
;	COMDAT ?deallocate@?$allocator@_W@std@@QAEXPA_WI@Z
_TEXT	SEGMENT PARA USE32 PUBLIC 'CODE'
_TEXT	ENDS
;	COMDAT ??0?$allocator@_W@std@@QAE@ABV01@@Z
_TEXT	SEGMENT PARA USE32 PUBLIC 'CODE'
_TEXT	ENDS
;	COMDAT ?IsLocked@CStringData@ATL@@QBE_NXZ
_TEXT	SEGMENT PARA USE32 PUBLIC 'CODE'
_TEXT	ENDS
;	COMDAT ??0?$allocator@D@std@@QAE@XZ
_TEXT	SEGMENT PARA USE32 PUBLIC 'CODE'
_TEXT	ENDS
;	COMDAT ?_messageEntries@CxSkinComboBox@@0QBUAFX_MSGMAP_ENTRY@@B
CONST	SEGMENT DWORD USE32 PUBLIC 'CONST'
CONST	ENDS
;	COMDAT ?messageMap@CxSkinComboBox@@1UAFX_MSGMAP@@B
CONST	SEGMENT DWORD USE32 PUBLIC 'CONST'
CONST	ENDS
;	COMDAT ??_7CxSkinComboBox@@6B@
CONST	SEGMENT DWORD USE32 PUBLIC 'CONST'
CONST	ENDS
;	COMDAT ??_C@_0BA@GOIMFHNK@pStringMgr?5?$CB?$DN?50?$AA@
CONST	SEGMENT DWORD USE32 PUBLIC 'CONST'
CONST	ENDS
;	COMDAT ?GetDefaultManager@?$StrTraitMFC_DLL@DV?$ChTraitsCRT@D@ATL@@@@SAPAUIAtlStringMgr@ATL@@XZ
_TEXT	SEGMENT PARA USE32 PUBLIC 'CODE'
_TEXT	ENDS
;	COMDAT ?FindStringResourceInstance@?$StrTraitMFC_DLL@DV?$ChTraitsCRT@D@ATL@@@@SAPAUHINSTANCE__@@I@Z
_TEXT	SEGMENT PARA USE32 PUBLIC 'CODE'
_TEXT	ENDS
;	COMDAT ?AtlGetStringResourceImage@ATL@@YAPBUATLSTRINGRESOURCEIMAGE@1@PAUHINSTANCE__@@I@Z
_TEXT	SEGMENT PARA USE32 PUBLIC 'CODE'
_TEXT	ENDS
;	COMDAT ?_AtlGetStringResourceImage@ATL@@YAPBUATLSTRINGRESOURCEIMAGE@1@PAUHINSTANCE__@@PAUHRSRC__@@I@Z
_TEXT	SEGMENT PARA USE32 PUBLIC 'CODE'
_TEXT	ENDS
;	COMDAT ?GetBaseTypeLength@?$ChTraitsCRT@D@ATL@@SAHPB_WH@Z
_TEXT	SEGMENT PARA USE32 PUBLIC 'CODE'
_TEXT	ENDS
;	COMDAT ?_AtlGetConversionACP@ATL@@YGIXZ
_TEXT	SEGMENT PARA USE32 PUBLIC 'CODE'
_TEXT	ENDS
;	COMDAT ?g_pfnGetThreadACP@ATL@@3P6GIXZA
_DATA	SEGMENT DWORD USE32 PUBLIC 'DATA'
_DATA	ENDS
;	COMDAT ?_AtlGetThreadACPThunk@ATL@@YGIXZ
_TEXT	SEGMENT PARA USE32 PUBLIC 'CODE'
_TEXT	ENDS
;	COMDAT ?_AtlGetThreadACPReal@ATL@@YGIXZ
_TEXT	SEGMENT PARA USE32 PUBLIC 'CODE'
_TEXT	ENDS
;	COMDAT ?_AtlGetThreadACPFake@ATL@@YGIXZ
_TEXT	SEGMENT PARA USE32 PUBLIC 'CODE'
_TEXT	ENDS
;	COMDAT ?InterlockedExchangePointer@@YGPAXPAPAXPAX@Z
_TEXT	SEGMENT PARA USE32 PUBLIC 'CODE'
_TEXT	ENDS
;	COMDAT ?ConvertToBaseType@?$ChTraitsCRT@D@ATL@@SAXPADHPB_WH@Z
_TEXT	SEGMENT PARA USE32 PUBLIC 'CODE'
_TEXT	ENDS
;	COMDAT ??_C@_0FH@KDPNIMBO@D?3?2Program?5Files?5?$CIx86?$CJ?2Microsoft@
CONST	SEGMENT DWORD USE32 PUBLIC 'CONST'
CONST	ENDS
;	COMDAT ??_C@_0CJ@FJEKGMMD@Warning?3?5implicit?5LoadString?$CI?$CFu?$CJ@
CONST	SEGMENT DWORD USE32 PUBLIC 'CONST'
CONST	ENDS
;	COMDAT ?_messageEntries@CComboBoxHistory@@0QBUAFX_MSGMAP_ENTRY@@B
CONST	SEGMENT DWORD USE32 PUBLIC 'CONST'
CONST	ENDS
;	COMDAT ?messageMap@CComboBoxHistory@@1UAFX_MSGMAP@@B
CONST	SEGMENT DWORD USE32 PUBLIC 'CONST'
CONST	ENDS
;	COMDAT ??_7CComboBoxHistory@@6B@
CONST	SEGMENT DWORD USE32 PUBLIC 'CONST'
CONST	ENDS
;	COMDAT ?AddRef@CStringData@ATL@@QAEXXZ
_TEXT	SEGMENT PARA USE32 PUBLIC 'CODE'
_TEXT	ENDS
;	COMDAT ??_C@_09EEBKLCFA@nRefs?5?$DO?50?$AA@
CONST	SEGMENT DWORD USE32 PUBLIC 'CONST'
CONST	ENDS
;	COMDAT ?_messageEntries@CComboBoxHistoryList@@0QBUAFX_MSGMAP_ENTRY@@B
CONST	SEGMENT DWORD USE32 PUBLIC 'CONST'
CONST	ENDS
;	COMDAT ?messageMap@CComboBoxHistoryList@@1UAFX_MSGMAP@@B
CONST	SEGMENT DWORD USE32 PUBLIC 'CONST'
CONST	ENDS
;	COMDAT ??_7CComboBoxHistoryList@@6B@
CONST	SEGMENT DWORD USE32 PUBLIC 'CONST'
CONST	ENDS
;	COMDAT ?classCComboBoxHistoryList@CComboBoxHistoryList@@2UCRuntimeClass@@B
CONST	SEGMENT DWORD USE32 PUBLIC 'CONST'
CONST	ENDS
;	COMDAT ??_7CComboBoxEdit@@6B@
CONST	SEGMENT DWORD USE32 PUBLIC 'CONST'
CONST	ENDS
;	COMDAT ?_messageEntries@CComboBoxEdit@@0QBUAFX_MSGMAP_ENTRY@@B
CONST	SEGMENT DWORD USE32 PUBLIC 'CONST'
CONST	ENDS
;	COMDAT ?messageMap@CComboBoxEdit@@1UAFX_MSGMAP@@B
CONST	SEGMENT DWORD USE32 PUBLIC 'CONST'
CONST	ENDS
;	COMDAT ??_7IData@@6B@
CONST	SEGMENT DWORD USE32 PUBLIC 'CONST'
CONST	ENDS
sxdata	SEGMENT DWORD USE32 'SXDATA'
sxdata	ENDS
FLAT	GROUP _DATA, CONST, _BSS
	ASSUME	CS: FLAT, DS: FLAT, SS: FLAT
endif

INCLUDELIB MSVCRTD
INCLUDELIB OLDNAMES

PUBLIC	?_messageEntries@CComboBoxHistory@@0QBUAFX_MSGMAP_ENTRY@@B ; CComboBoxHistory::_messageEntries
PUBLIC	?messageMap@CComboBoxHistory@@1UAFX_MSGMAP@@B	; CComboBoxHistory::messageMap
PUBLIC	?OnCreate@CComboBoxHistory@@IAEHPAUtagCREATESTRUCTA@@@Z ; CComboBoxHistory::OnCreate
PUBLIC	?OnShowWindow@CComboBoxHistory@@IAEXHI@Z	; CComboBoxHistory::OnShowWindow
PUBLIC	?OnEraseBkgnd@CComboBoxHistory@@IAEHPAVCDC@@@Z	; CComboBoxHistory::OnEraseBkgnd
PUBLIC	?_messageEntries@CxSkinComboBox@@0QBUAFX_MSGMAP_ENTRY@@B ; CxSkinComboBox::_messageEntries
PUBLIC	?messageMap@CxSkinComboBox@@1UAFX_MSGMAP@@B	; CxSkinComboBox::messageMap
PUBLIC	?OnCreate@CxSkinComboBox@@IAEHPAUtagCREATESTRUCTA@@@Z ; CxSkinComboBox::OnCreate
PUBLIC	?OnSize@CxSkinComboBox@@IAEXIHH@Z		; CxSkinComboBox::OnSize
PUBLIC	?OnShowWindow@CxSkinComboBox@@IAEXHI@Z		; CxSkinComboBox::OnShowWindow
PUBLIC	?OnEraseBkgnd@CxSkinComboBox@@IAEHPAVCDC@@@Z	; CxSkinComboBox::OnEraseBkgnd
PUBLIC	?OnListClicked@CxSkinComboBox@@IAEJIJ@Z		; CxSkinComboBox::OnListClicked
PUBLIC	?OnEditClicked@CxSkinComboBox@@IAEJIJ@Z		; CxSkinComboBox::OnEditClicked
PUBLIC	?g_pfnGetThreadACP@ATL@@3P6GIXZA		; ATL::g_pfnGetThreadACP
PUBLIC	?_AtlGetThreadACPThunk@ATL@@YGIXZ		; ATL::_AtlGetThreadACPThunk
PUBLIC	?_messageEntries@CComboBoxEdit@@0QBUAFX_MSGMAP_ENTRY@@B ; CComboBoxEdit::_messageEntries
PUBLIC	?messageMap@CComboBoxEdit@@1UAFX_MSGMAP@@B	; CComboBoxEdit::messageMap
PUBLIC	?OnLButtonDown@CComboBoxEdit@@IAEXIVCPoint@@@Z	; CComboBoxEdit::OnLButtonDown
PUBLIC	?OnLButtonDblClk@CComboBoxEdit@@IAEXIVCPoint@@@Z ; CComboBoxEdit::OnLButtonDblClk
PUBLIC	?OnPaint@CComboBoxEdit@@IAEXXZ			; CComboBoxEdit::OnPaint
PUBLIC	?classCComboBoxHistoryList@CComboBoxHistoryList@@2UCRuntimeClass@@B ; CComboBoxHistoryList::classCComboBoxHistoryList
PUBLIC	?_messageEntries@CComboBoxHistoryList@@0QBUAFX_MSGMAP_ENTRY@@B ; CComboBoxHistoryList::_messageEntries
PUBLIC	?messageMap@CComboBoxHistoryList@@1UAFX_MSGMAP@@B ; CComboBoxHistoryList::messageMap
PUBLIC	?OnNMCustomdraw@CComboBoxHistoryList@@IAEXPAUtagNMHDR@@PAJ@Z ; CComboBoxHistoryList::OnNMCustomdraw
PUBLIC	?OnMouseMove@CComboBoxHistoryList@@IAEXIVCPoint@@@Z ; CComboBoxHistoryList::OnMouseMove
PUBLIC	?OnDestroy@CComboBoxHistoryList@@IAEXXZ		; CComboBoxHistoryList::OnDestroy
PUBLIC	?OnCoolSBCustomdraw@CComboBoxHistoryList@@IAEXPAUtagNMHDR@@PAJ@Z ; CComboBoxHistoryList::OnCoolSBCustomdraw
PUBLIC	?OnCreate@CComboBoxHistoryList@@IAEHPAUtagCREATESTRUCTA@@@Z ; CComboBoxHistoryList::OnCreate
PUBLIC	?OnSize@CComboBoxHistoryList@@IAEXIHH@Z		; CComboBoxHistoryList::OnSize
PUBLIC	?OnLButtonDown@CComboBoxHistoryList@@IAEXIVCPoint@@@Z ; CComboBoxHistoryList::OnLButtonDown
PUBLIC	?OnEraseBkgnd@CComboBoxHistoryList@@IAEHPAVCDC@@@Z ; CComboBoxHistoryList::OnEraseBkgnd
EXTRN	?GetThisMessageMap@CListCtrl@@KGPBUAFX_MSGMAP@@XZ:NEAR ; CListCtrl::GetThisMessageMap
EXTRN	?GetThisMessageMap@CWnd@@KGPBUAFX_MSGMAP@@XZ:NEAR ; CWnd::GetThisMessageMap
EXTRN	?GetThisClass@CListCtrl@@SGPAUCRuntimeClass@@XZ:NEAR ; CListCtrl::GetThisClass
;	COMDAT ?_messageEntries@CComboBoxEdit@@0QBUAFX_MSGMAP_ENTRY@@B
CONST	SEGMENT
?_messageEntries@CComboBoxEdit@@0QBUAFX_MSGMAP_ENTRY@@B DD 0201H ; CComboBoxEdit::_messageEntries
	DD	00H
	DD	00H
	DD	00H
	DD	032H
	DD	FLAT:?OnLButtonDown@CComboBoxEdit@@IAEXIVCPoint@@@Z
	DD	0203H
	DD	00H
	DD	00H
	DD	00H
	DD	032H
	DD	FLAT:?OnLButtonDblClk@CComboBoxEdit@@IAEXIVCPoint@@@Z
	DD	0fH
	DD	00H
	DD	00H
	DD	00H
	DD	010H
	DD	FLAT:?OnPaint@CComboBoxEdit@@IAEXXZ
	DD	00H
	DD	00H
	DD	00H
	DD	00H
	DD	00H
	DD	00H
CONST	ENDS
;	COMDAT ?messageMap@CComboBoxEdit@@1UAFX_MSGMAP@@B
CONST	SEGMENT
?messageMap@CComboBoxEdit@@1UAFX_MSGMAP@@B DD FLAT:?GetThisMessageMap@CWnd@@KGPBUAFX_MSGMAP@@XZ ; CComboBoxEdit::messageMap
	DD	FLAT:?_messageEntries@CComboBoxEdit@@0QBUAFX_MSGMAP_ENTRY@@B
CONST	ENDS
CONST	SEGMENT
$SG187945 DB	'CComboBoxHistoryList', 00H
CONST	ENDS
;	COMDAT ?classCComboBoxHistoryList@CComboBoxHistoryList@@2UCRuntimeClass@@B
CONST	SEGMENT
?classCComboBoxHistoryList@CComboBoxHistoryList@@2UCRuntimeClass@@B DD FLAT:$SG187945 ; CComboBoxHistoryList::classCComboBoxHistoryList
	DD	070H
	DD	0ffffH
	DD	00H
	DD	FLAT:?GetThisClass@CListCtrl@@SGPAUCRuntimeClass@@XZ
	DD	00H
	DD	00H
CONST	ENDS
;	COMDAT ?_messageEntries@CComboBoxHistoryList@@0QBUAFX_MSGMAP_ENTRY@@B
CONST	SEGMENT
?_messageEntries@CComboBoxHistoryList@@0QBUAFX_MSGMAP_ENTRY@@B DD 0bc4eH ; CComboBoxHistoryList::_messageEntries
	DD	0fff4H
	DD	00H
	DD	00H
	DD	039H
	DD	FLAT:?OnNMCustomdraw@CComboBoxHistoryList@@IAEXPAUtagNMHDR@@PAJ@Z
	DD	0200H
	DD	00H
	DD	00H
	DD	00H
	DD	032H
	DD	FLAT:?OnMouseMove@CComboBoxHistoryList@@IAEXIVCPoint@@@Z
	DD	0bc4eH
	DD	0f001H
	DD	00H
	DD	00H
	DD	039H
	DD	FLAT:?OnCoolSBCustomdraw@CComboBoxHistoryList@@IAEXPAUtagNMHDR@@PAJ@Z
	DD	01H
	DD	00H
	DD	00H
	DD	00H
	DD	0dH
	DD	FLAT:?OnCreate@CComboBoxHistoryList@@IAEHPAUtagCREATESTRUCTA@@@Z
	DD	02H
	DD	00H
	DD	00H
	DD	00H
	DD	010H
	DD	FLAT:?OnDestroy@CComboBoxHistoryList@@IAEXXZ
	DD	05H
	DD	00H
	DD	00H
	DD	00H
	DD	016H
	DD	FLAT:?OnSize@CComboBoxHistoryList@@IAEXIHH@Z
	DD	0201H
	DD	00H
	DD	00H
	DD	00H
	DD	032H
	DD	FLAT:?OnLButtonDown@CComboBoxHistoryList@@IAEXIVCPoint@@@Z
	DD	014H
	DD	00H
	DD	00H
	DD	00H
	DD	01H
	DD	FLAT:?OnEraseBkgnd@CComboBoxHistoryList@@IAEHPAVCDC@@@Z
	DD	00H
	DD	00H
	DD	00H
	DD	00H
	DD	00H
	DD	00H
CONST	ENDS
;	COMDAT ?messageMap@CComboBoxHistoryList@@1UAFX_MSGMAP@@B
CONST	SEGMENT
?messageMap@CComboBoxHistoryList@@1UAFX_MSGMAP@@B DD FLAT:?GetThisMessageMap@CListCtrl@@KGPBUAFX_MSGMAP@@XZ ; CComboBoxHistoryList::messageMap
	DD	FLAT:?_messageEntries@CComboBoxHistoryList@@0QBUAFX_MSGMAP_ENTRY@@B
CONST	ENDS
;	COMDAT ?_messageEntries@CComboBoxHistory@@0QBUAFX_MSGMAP_ENTRY@@B
CONST	SEGMENT
?_messageEntries@CComboBoxHistory@@0QBUAFX_MSGMAP_ENTRY@@B DD 01H ; CComboBoxHistory::_messageEntries
	DD	00H
	DD	00H
	DD	00H
	DD	0dH
	DD	FLAT:?OnCreate@CComboBoxHistory@@IAEHPAUtagCREATESTRUCTA@@@Z
	DD	018H
	DD	00H
	DD	00H
	DD	00H
	DD	012H
	DD	FLAT:?OnShowWindow@CComboBoxHistory@@IAEXHI@Z
	DD	014H
	DD	00H
	DD	00H
	DD	00H
	DD	01H
	DD	FLAT:?OnEraseBkgnd@CComboBoxHistory@@IAEHPAVCDC@@@Z
	DD	00H
	DD	00H
	DD	00H
	DD	00H
	DD	00H
	DD	00H
CONST	ENDS
;	COMDAT ?messageMap@CComboBoxHistory@@1UAFX_MSGMAP@@B
CONST	SEGMENT
?messageMap@CComboBoxHistory@@1UAFX_MSGMAP@@B DD FLAT:?GetThisMessageMap@CWnd@@KGPBUAFX_MSGMAP@@XZ ; CComboBoxHistory::messageMap
	DD	FLAT:?_messageEntries@CComboBoxHistory@@0QBUAFX_MSGMAP_ENTRY@@B
CONST	ENDS
CONST	SEGMENT
	ORG $+3
$SG188193 DB	0cbH, 0ceH, 0ccH, 0e5H, 00H
$SG188194 DB	00H
	ORG $+2
$SG188212 DB	0cbH, 0ceH, 0ccH, 0e5H, 00H
	ORG $+3
$SG188259 DB	'MFCxSkinComboBoxCtrl', 00H
	ORG $+3
$SG188264 DB	'MFCxSkinComboBoxCtrl', 00H
$SG188277 DB	00H
	ORG $+2
$SG188278 DB	'MFCxSkinComboBoxCtrl', 00H
CONST	ENDS
;	COMDAT ?_messageEntries@CxSkinComboBox@@0QBUAFX_MSGMAP_ENTRY@@B
CONST	SEGMENT
?_messageEntries@CxSkinComboBox@@0QBUAFX_MSGMAP_ENTRY@@B DD 01H ; CxSkinComboBox::_messageEntries
	DD	00H
	DD	00H
	DD	00H
	DD	0dH
	DD	FLAT:?OnCreate@CxSkinComboBox@@IAEHPAUtagCREATESTRUCTA@@@Z
	DD	05H
	DD	00H
	DD	00H
	DD	00H
	DD	016H
	DD	FLAT:?OnSize@CxSkinComboBox@@IAEXIHH@Z
	DD	018H
	DD	00H
	DD	00H
	DD	00H
	DD	012H
	DD	FLAT:?OnShowWindow@CxSkinComboBox@@IAEXHI@Z
	DD	014H
	DD	00H
	DD	00H
	DD	00H
	DD	01H
	DD	FLAT:?OnEraseBkgnd@CxSkinComboBox@@IAEHPAVCDC@@@Z
	DD	0465H
	DD	00H
	DD	00H
	DD	00H
	DD	0eH
	DD	FLAT:?OnListClicked@CxSkinComboBox@@IAEJIJ@Z
	DD	0466H
	DD	00H
	DD	00H
	DD	00H
	DD	0eH
	DD	FLAT:?OnEditClicked@CxSkinComboBox@@IAEJIJ@Z
	DD	00H
	DD	00H
	DD	00H
	DD	00H
	DD	00H
	DD	00H
CONST	ENDS
;	COMDAT ?messageMap@CxSkinComboBox@@1UAFX_MSGMAP@@B
CONST	SEGMENT
?messageMap@CxSkinComboBox@@1UAFX_MSGMAP@@B DD FLAT:?GetThisMessageMap@CWnd@@KGPBUAFX_MSGMAP@@XZ ; CxSkinComboBox::messageMap
	DD	FLAT:?_messageEntries@CxSkinComboBox@@0QBUAFX_MSGMAP_ENTRY@@B
CONST	ENDS
CONST	SEGMENT
	ORG $+3
$SG188320 DB	0cbH, 0ceH, 0ccH, 0e5H, 00H
CONST	ENDS
;	COMDAT ?g_pfnGetThreadACP@ATL@@3P6GIXZA
_DATA	SEGMENT
?g_pfnGetThreadACP@ATL@@3P6GIXZA DD FLAT:?_AtlGetThreadACPThunk@ATL@@YGIXZ ; ATL::g_pfnGetThreadACP
_DATA	ENDS
PUBLIC	??0COMBOBOXSKIN@@QAE@XZ				; COMBOBOXSKIN::COMBOBOXSKIN
EXTRN	__RTC_InitBase:NEAR
EXTRN	__RTC_Shutdown:NEAR
;	COMDAT rtc$IMZ
; File d:\boxgit\playbox\playbox\dev\prj\playbox\src\gui\commoncontrol\xskincombobox.cpp
rtc$IMZ	SEGMENT
__RTC_InitBase.rtc$IMZ DD FLAT:__RTC_InitBase
rtc$IMZ	ENDS
;	COMDAT rtc$TMZ
rtc$TMZ	SEGMENT
__RTC_Shutdown.rtc$TMZ DD FLAT:__RTC_Shutdown
; Function compile flags: /Odt /RTCsu
rtc$TMZ	ENDS
_TEXT	SEGMENT
_this$ = -4						; size = 4
??0COMBOBOXSKIN@@QAE@XZ PROC NEAR			; COMBOBOXSKIN::COMBOBOXSKIN
; _this$ = ecx

; 18   : {

  00000	55		 push	 ebp
  00001	8b ec		 mov	 ebp, esp
  00003	51		 push	 ecx
  00004	c7 45 fc cc cc
	cc cc		 mov	 DWORD PTR [ebp-4], -858993460 ; ccccccccH
  0000b	89 4d fc	 mov	 DWORD PTR _this$[ebp], ecx
  0000e	8b 45 fc	 mov	 eax, DWORD PTR _this$[ebp]
  00011	c7 00 00 00 00
	00		 mov	 DWORD PTR [eax], 0
  00017	8b 4d fc	 mov	 ecx, DWORD PTR _this$[ebp]
  0001a	c7 41 04 00 00
	00 00		 mov	 DWORD PTR [ecx+4], 0
  00021	8b 55 fc	 mov	 edx, DWORD PTR _this$[ebp]
  00024	c7 42 08 00 00
	00 00		 mov	 DWORD PTR [edx+8], 0
  0002b	8b 45 fc	 mov	 eax, DWORD PTR _this$[ebp]
  0002e	c7 40 0c 00 00
	00 00		 mov	 DWORD PTR [eax+12], 0
  00035	8b 4d fc	 mov	 ecx, DWORD PTR _this$[ebp]
  00038	c7 41 10 00 00
	00 00		 mov	 DWORD PTR [ecx+16], 0
  0003f	8b 55 fc	 mov	 edx, DWORD PTR _this$[ebp]
  00042	c7 42 14 ff ff
	ff 00		 mov	 DWORD PTR [edx+20], 16777215 ; 00ffffffH
  00049	8b 45 fc	 mov	 eax, DWORD PTR _this$[ebp]
  0004c	c7 40 18 ff ff
	ff 00		 mov	 DWORD PTR [eax+24], 16777215 ; 00ffffffH
  00053	8b 4d fc	 mov	 ecx, DWORD PTR _this$[ebp]
  00056	c7 41 24 31 6a
	c5 00		 mov	 DWORD PTR [ecx+36], 12937777 ; 00c56a31H
  0005d	8b 55 fc	 mov	 edx, DWORD PTR _this$[ebp]
  00060	c7 42 28 0c 00
	00 00		 mov	 DWORD PTR [edx+40], 12	; 0000000cH

; 19   : }

  00067	8b 45 fc	 mov	 eax, DWORD PTR _this$[ebp]
  0006a	8b e5		 mov	 esp, ebp
  0006c	5d		 pop	 ebp
  0006d	c3		 ret	 0
??0COMBOBOXSKIN@@QAE@XZ ENDP				; COMBOBOXSKIN::COMBOBOXSKIN
_TEXT	ENDS
PUBLIC	?GetThisMessageMap@CComboBoxEdit@@KGPBUAFX_MSGMAP@@XZ ; CComboBoxEdit::GetThisMessageMap
; Function compile flags: /Odt /RTCsu
_TEXT	SEGMENT
?GetThisMessageMap@CComboBoxEdit@@KGPBUAFX_MSGMAP@@XZ PROC NEAR ; CComboBoxEdit::GetThisMessageMap

; 23   : BEGIN_MESSAGE_MAP(CComboBoxEdit, CEdit)

  00070	55		 push	 ebp
  00071	8b ec		 mov	 ebp, esp
  00073	b8 00 00 00 00	 mov	 eax, OFFSET FLAT:?messageMap@CComboBoxEdit@@1UAFX_MSGMAP@@B ; CComboBoxEdit::messageMap
  00078	5d		 pop	 ebp
  00079	c3		 ret	 0
?GetThisMessageMap@CComboBoxEdit@@KGPBUAFX_MSGMAP@@XZ ENDP ; CComboBoxEdit::GetThisMessageMap
_TEXT	ENDS
PUBLIC	?GetMessageMap@CComboBoxEdit@@MBEPBUAFX_MSGMAP@@XZ ; CComboBoxEdit::GetMessageMap
; Function compile flags: /Odt /RTCsu
_TEXT	SEGMENT
_this$ = -4						; size = 4
?GetMessageMap@CComboBoxEdit@@MBEPBUAFX_MSGMAP@@XZ PROC NEAR ; CComboBoxEdit::GetMessageMap
; _this$ = ecx

; 23   : BEGIN_MESSAGE_MAP(CComboBoxEdit, CEdit)

  00080	55		 push	 ebp
  00081	8b ec		 mov	 ebp, esp
  00083	51		 push	 ecx
  00084	c7 45 fc cc cc
	cc cc		 mov	 DWORD PTR [ebp-4], -858993460 ; ccccccccH
  0008b	89 4d fc	 mov	 DWORD PTR _this$[ebp], ecx
  0008e	b8 00 00 00 00	 mov	 eax, OFFSET FLAT:?messageMap@CComboBoxEdit@@1UAFX_MSGMAP@@B ; CComboBoxEdit::messageMap
  00093	8b e5		 mov	 esp, ebp
  00095	5d		 pop	 ebp
  00096	c3		 ret	 0
?GetMessageMap@CComboBoxEdit@@MBEPBUAFX_MSGMAP@@XZ ENDP	; CComboBoxEdit::GetMessageMap
_TEXT	ENDS
PUBLIC	??_R1A@?0A@A@CWnd@@8				; CWnd::`RTTI Base Class Descriptor at (0,-1,0,0)'
PUBLIC	??_R0?AVCWnd@@@8				; CWnd `RTTI Type Descriptor'
PUBLIC	??_R1A@?0A@A@CCmdTarget@@8			; CCmdTarget::`RTTI Base Class Descriptor at (0,-1,0,0)'
PUBLIC	??_R0?AVCCmdTarget@@@8				; CCmdTarget `RTTI Type Descriptor'
PUBLIC	??_R1A@?0A@A@CObject@@8				; CObject::`RTTI Base Class Descriptor at (0,-1,0,0)'
PUBLIC	??_R0?AVCObject@@@8				; CObject `RTTI Type Descriptor'
PUBLIC	??_R4CComboBoxEdit@@6B@				; CComboBoxEdit::`RTTI Complete Object Locator'
PUBLIC	??_R0?AVCComboBoxEdit@@@8			; CComboBoxEdit `RTTI Type Descriptor'
PUBLIC	??_R3CComboBoxEdit@@8				; CComboBoxEdit::`RTTI Class Hierarchy Descriptor'
PUBLIC	??_R2CComboBoxEdit@@8				; CComboBoxEdit::`RTTI Base Class Array'
PUBLIC	??_R1A@?0A@A@CComboBoxEdit@@8			; CComboBoxEdit::`RTTI Base Class Descriptor at (0,-1,0,0)'
PUBLIC	??_R1A@?0A@A@CEdit@@8				; CEdit::`RTTI Base Class Descriptor at (0,-1,0,0)'
PUBLIC	??_R0?AVCEdit@@@8				; CEdit `RTTI Type Descriptor'
PUBLIC	??0CComboBoxEdit@@QAE@XZ			; CComboBoxEdit::CComboBoxEdit
PUBLIC	?OnChildNotify@CComboBoxEdit@@MAEHIIJPAJ@Z	; CComboBoxEdit::OnChildNotify
PUBLIC	??_7CComboBoxEdit@@6B@				; CComboBoxEdit::`vftable'
PUBLIC	??_GCComboBoxEdit@@UAEPAXI@Z			; CComboBoxEdit::`scalar deleting destructor'
EXTRN	?GetInterfaceMap@CWnd@@MBEPBUAFX_INTERFACEMAP@@XZ:NEAR ; CWnd::GetInterfaceMap
EXTRN	?EnsureStdObj@CWnd@@UAEJXZ:NEAR			; CWnd::EnsureStdObj
EXTRN	?get_accParent@CWnd@@UAEJPAPAUIDispatch@@@Z:NEAR ; CWnd::get_accParent
EXTRN	?OnCmdMsg@CCmdTarget@@UAEHIHPAXPAUAFX_CMDHANDLERINFO@@@Z:NEAR ; CCmdTarget::OnCmdMsg
EXTRN	?get_accChildCount@CWnd@@UAEJPAJ@Z:NEAR		; CWnd::get_accChildCount
EXTRN	?IsInvokeAllowed@CCmdTarget@@UAEHJ@Z:NEAR	; CCmdTarget::IsInvokeAllowed
EXTRN	?get_accChild@CWnd@@UAEJUtagVARIANT@@PAPAUIDispatch@@@Z:NEAR ; CWnd::get_accChild
EXTRN	?get_accName@CWnd@@UAEJUtagVARIANT@@PAPA_W@Z:NEAR ; CWnd::get_accName
EXTRN	?get_accValue@CWnd@@UAEJUtagVARIANT@@PAPA_W@Z:NEAR ; CWnd::get_accValue
EXTRN	?GetDispatchIID@CCmdTarget@@UAEHPAU_GUID@@@Z:NEAR ; CCmdTarget::GetDispatchIID
EXTRN	?GetTypeInfoCount@CCmdTarget@@UAEIXZ:NEAR	; CCmdTarget::GetTypeInfoCount
EXTRN	?GetTypeLibCache@CCmdTarget@@UAEPAVCTypeLibCache@@XZ:NEAR ; CCmdTarget::GetTypeLibCache
EXTRN	?get_accDescription@CWnd@@UAEJUtagVARIANT@@PAPA_W@Z:NEAR ; CWnd::get_accDescription
EXTRN	?GetTypeLib@CCmdTarget@@UAEJKPAPAUITypeLib@@@Z:NEAR ; CCmdTarget::GetTypeLib
EXTRN	?get_accRole@CWnd@@UAEJUtagVARIANT@@PAU2@@Z:NEAR ; CWnd::get_accRole
EXTRN	?get_accState@CWnd@@UAEJUtagVARIANT@@PAU2@@Z:NEAR ; CWnd::get_accState
EXTRN	?get_accHelp@CWnd@@UAEJUtagVARIANT@@PAPA_W@Z:NEAR ; CWnd::get_accHelp
EXTRN	?get_accHelpTopic@CWnd@@UAEJPAPA_WUtagVARIANT@@PAJ@Z:NEAR ; CWnd::get_accHelpTopic
EXTRN	?get_accKeyboardShortcut@CWnd@@UAEJUtagVARIANT@@PAPA_W@Z:NEAR ; CWnd::get_accKeyboardShortcut
EXTRN	?get_accFocus@CWnd@@UAEJPAUtagVARIANT@@@Z:NEAR	; CWnd::get_accFocus
EXTRN	?get_accSelection@CWnd@@UAEJPAUtagVARIANT@@@Z:NEAR ; CWnd::get_accSelection
EXTRN	?get_accDefaultAction@CWnd@@UAEJUtagVARIANT@@PAPA_W@Z:NEAR ; CWnd::get_accDefaultAction
EXTRN	?GetCommandMap@CCmdTarget@@MBEPBUAFX_OLECMDMAP@@XZ:NEAR ; CCmdTarget::GetCommandMap
EXTRN	?accSelect@CWnd@@UAEJJUtagVARIANT@@@Z:NEAR	; CWnd::accSelect
EXTRN	?accLocation@CWnd@@UAEJPAJ000UtagVARIANT@@@Z:NEAR ; CWnd::accLocation
EXTRN	?GetDispatchMap@CCmdTarget@@MBEPBUAFX_DISPMAP@@XZ:NEAR ; CCmdTarget::GetDispatchMap
EXTRN	?accNavigate@CWnd@@UAEJJUtagVARIANT@@PAU2@@Z:NEAR ; CWnd::accNavigate
EXTRN	?accHitTest@CWnd@@UAEJJJPAUtagVARIANT@@@Z:NEAR	; CWnd::accHitTest
EXTRN	?GetConnectionMap@CCmdTarget@@MBEPBUAFX_CONNECTIONMAP@@XZ:NEAR ; CCmdTarget::GetConnectionMap
EXTRN	?accDoDefaultAction@CWnd@@UAEJUtagVARIANT@@@Z:NEAR ; CWnd::accDoDefaultAction
EXTRN	?put_accName@CWnd@@UAEJUtagVARIANT@@PA_W@Z:NEAR	; CWnd::put_accName
EXTRN	?put_accValue@CWnd@@UAEJUtagVARIANT@@PA_W@Z:NEAR ; CWnd::put_accValue
EXTRN	?SetProxy@CWnd@@UAEJPAUIAccessibleProxy@@@Z:NEAR ; CWnd::SetProxy
EXTRN	?CreateAccessibleProxy@CWnd@@UAEJIJPAJ@Z:NEAR	; CWnd::CreateAccessibleProxy
EXTRN	?GetEventSinkMap@CCmdTarget@@MBEPBUAFX_EVENTSINKMAP@@XZ:NEAR ; CCmdTarget::GetEventSinkMap
EXTRN	__RTC_CheckEsp:NEAR
EXTRN	?OnCommand@CWnd@@MAEHIJ@Z:NEAR			; CWnd::OnCommand
EXTRN	?OnCreateAggregates@CCmdTarget@@UAEHXZ:NEAR	; CCmdTarget::OnCreateAggregates
EXTRN	?GetInterfaceHook@CCmdTarget@@UAEPAUIUnknown@@PBX@Z:NEAR ; CCmdTarget::GetInterfaceHook
EXTRN	?OnNotify@CWnd@@MAEHIJPAJ@Z:NEAR		; CWnd::OnNotify
EXTRN	?GetRuntimeClass@CEdit@@UBEPAUCRuntimeClass@@XZ:NEAR ; CEdit::GetRuntimeClass
EXTRN	??0CEdit@@QAE@XZ:NEAR				; CEdit::CEdit
EXTRN	?GetExtraConnectionPoints@CCmdTarget@@MAEHPAVCPtrArray@@@Z:NEAR ; CCmdTarget::GetExtraConnectionPoints
EXTRN	?GetConnectionHook@CCmdTarget@@MAEPAUIConnectionPoint@@ABU_GUID@@@Z:NEAR ; CCmdTarget::GetConnectionHook
EXTRN	?Create@CEdit@@UAEHKABUtagRECT@@PAVCWnd@@I@Z:NEAR ; CEdit::Create
EXTRN	?PreSubclassWindow@CWnd@@UAEXXZ:NEAR		; CWnd::PreSubclassWindow
EXTRN	?Create@CWnd@@UAEHPBD0KABUtagRECT@@PAV1@IPAUCCreateContext@@@Z:NEAR ; CWnd::Create
EXTRN	?CreateEx@CWnd@@UAEHKPBD0KHHHHPAUHWND__@@PAUHMENU__@@PAX@Z:NEAR ; CWnd::CreateEx
EXTRN	?CreateEx@CWnd@@UAEHKPBD0KABUtagRECT@@PAV1@IPAX@Z:NEAR ; CWnd::CreateEx
EXTRN	?Serialize@CObject@@UAEXAAVCArchive@@@Z:NEAR	; CObject::Serialize
EXTRN	?DestroyWindow@CWnd@@UAEHXZ:NEAR		; CWnd::DestroyWindow
EXTRN	?PreCreateWindow@CWnd@@UAEHAAUtagCREATESTRUCTA@@@Z:NEAR ; CWnd::PreCreateWindow
EXTRN	?CalcWindowRect@CWnd@@UAEXPAUtagRECT@@I@Z:NEAR	; CWnd::CalcWindowRect
EXTRN	?GetSuperWndProcAddr@CWnd@@MAEPAP6GJPAUHWND__@@IIJ@ZXZ:NEAR ; CWnd::GetSuperWndProcAddr
EXTRN	?DoDataExchange@CWnd@@MAEXPAVCDataExchange@@@Z:NEAR ; CWnd::DoDataExchange
EXTRN	?BeginModalState@CWnd@@UAEXXZ:NEAR		; CWnd::BeginModalState
EXTRN	?EndModalState@CWnd@@UAEXXZ:NEAR		; CWnd::EndModalState
EXTRN	?PreTranslateMessage@CWnd@@UAEHPAUtagMSG@@@Z:NEAR ; CWnd::PreTranslateMessage
EXTRN	?OnAmbientProperty@CWnd@@UAEHPAVCOleControlSite@@JPAUtagVARIANT@@@Z:NEAR ; CWnd::OnAmbientProperty
EXTRN	?WindowProc@CWnd@@MAEJIIJ@Z:NEAR		; CWnd::WindowProc
EXTRN	?OnWndMsg@CWnd@@MAEHIIJPAJ@Z:NEAR		; CWnd::OnWndMsg
EXTRN	?DefWindowProcA@CWnd@@MAEJIIJ@Z:NEAR		; CWnd::DefWindowProcA
EXTRN	?PostNcDestroy@CWnd@@MAEXXZ:NEAR		; CWnd::PostNcDestroy
EXTRN	?CheckAutoCenter@CWnd@@UAEHXZ:NEAR		; CWnd::CheckAutoCenter
EXTRN	?AssertValid@CWnd@@UBEXXZ:NEAR			; CWnd::AssertValid
EXTRN	?Dump@CWnd@@UBEXAAVCDumpContext@@@Z:NEAR	; CWnd::Dump
EXTRN	?IsFrameWnd@CWnd@@UBEHXZ:NEAR			; CWnd::IsFrameWnd
EXTRN	?OnFinalRelease@CWnd@@UAEXXZ:NEAR		; CWnd::OnFinalRelease
EXTRN	?CreateControlContainer@CWnd@@MAEHPAPAVCOleControlContainer@@@Z:NEAR ; CWnd::CreateControlContainer
EXTRN	?CreateControlSite@CWnd@@MAEHPAVCOleControlContainer@@PAPAVCOleControlSite@@IABU_GUID@@@Z:NEAR ; CWnd::CreateControlSite
EXTRN	?SetOccDialogInfo@CWnd@@MAEHPAU_AFX_OCC_DIALOG_INFO@@@Z:NEAR ; CWnd::SetOccDialogInfo
EXTRN	?OnToolHitTest@CWnd@@UBEHVCPoint@@PAUtagTOOLINFOA@@@Z:NEAR ; CWnd::OnToolHitTest
EXTRN	?GetScrollBarCtrl@CWnd@@UBEPAVCScrollBar@@H@Z:NEAR ; CWnd::GetScrollBarCtrl
EXTRN	??_ECComboBoxEdit@@UAEPAXI@Z:NEAR		; CComboBoxEdit::`vector deleting destructor'
EXTRN	?WinHelpA@CWnd@@UAEXKI@Z:NEAR			; CWnd::WinHelpA
EXTRN	?HtmlHelpA@CWnd@@UAEXKI@Z:NEAR			; CWnd::HtmlHelpA
EXTRN	??_7type_info@@6B@:QWORD			; type_info::`vftable'
EXTRN	?WinHelpInternal@CWnd@@UAEXKI@Z:NEAR		; CWnd::WinHelpInternal
EXTRN	?ContinueModal@CWnd@@UAEHXZ:NEAR		; CWnd::ContinueModal
EXTRN	?EndModalLoop@CWnd@@UAEXH@Z:NEAR		; CWnd::EndModalLoop
;	COMDAT ??_7CComboBoxEdit@@6B@
CONST	SEGMENT
??_7CComboBoxEdit@@6B@ DD FLAT:??_R4CComboBoxEdit@@6B@	; CComboBoxEdit::`vftable'
	DD	FLAT:?GetRuntimeClass@CEdit@@UBEPAUCRuntimeClass@@XZ
	DD	FLAT:??_ECComboBoxEdit@@UAEPAXI@Z
	DD	FLAT:?Serialize@CObject@@UAEXAAVCArchive@@@Z
	DD	FLAT:?AssertValid@CWnd@@UBEXXZ
	DD	FLAT:?Dump@CWnd@@UBEXAAVCDumpContext@@@Z
	DD	FLAT:?OnCmdMsg@CCmdTarget@@UAEHIHPAXPAUAFX_CMDHANDLERINFO@@@Z
	DD	FLAT:?OnFinalRelease@CWnd@@UAEXXZ
	DD	FLAT:?IsInvokeAllowed@CCmdTarget@@UAEHJ@Z
	DD	FLAT:?GetDispatchIID@CCmdTarget@@UAEHPAU_GUID@@@Z
	DD	FLAT:?GetTypeInfoCount@CCmdTarget@@UAEIXZ
	DD	FLAT:?GetTypeLibCache@CCmdTarget@@UAEPAVCTypeLibCache@@XZ
	DD	FLAT:?GetTypeLib@CCmdTarget@@UAEJKPAPAUITypeLib@@@Z
	DD	FLAT:?GetMessageMap@CComboBoxEdit@@MBEPBUAFX_MSGMAP@@XZ
	DD	FLAT:?GetCommandMap@CCmdTarget@@MBEPBUAFX_OLECMDMAP@@XZ
	DD	FLAT:?GetDispatchMap@CCmdTarget@@MBEPBUAFX_DISPMAP@@XZ
	DD	FLAT:?GetConnectionMap@CCmdTarget@@MBEPBUAFX_CONNECTIONMAP@@XZ
	DD	FLAT:?GetInterfaceMap@CWnd@@MBEPBUAFX_INTERFACEMAP@@XZ
	DD	FLAT:?GetEventSinkMap@CCmdTarget@@MBEPBUAFX_EVENTSINKMAP@@XZ
	DD	FLAT:?OnCreateAggregates@CCmdTarget@@UAEHXZ
	DD	FLAT:?GetInterfaceHook@CCmdTarget@@UAEPAUIUnknown@@PBX@Z
	DD	FLAT:?GetExtraConnectionPoints@CCmdTarget@@MAEHPAVCPtrArray@@@Z
	DD	FLAT:?GetConnectionHook@CCmdTarget@@MAEPAUIConnectionPoint@@ABU_GUID@@@Z
	DD	FLAT:?PreSubclassWindow@CWnd@@UAEXXZ
	DD	FLAT:?Create@CWnd@@UAEHPBD0KABUtagRECT@@PAV1@IPAUCCreateContext@@@Z
	DD	FLAT:?CreateEx@CWnd@@UAEHKPBD0KABUtagRECT@@PAV1@IPAX@Z
	DD	FLAT:?CreateEx@CWnd@@UAEHKPBD0KHHHHPAUHWND__@@PAUHMENU__@@PAX@Z
	DD	FLAT:?DestroyWindow@CWnd@@UAEHXZ
	DD	FLAT:?PreCreateWindow@CWnd@@UAEHAAUtagCREATESTRUCTA@@@Z
	DD	FLAT:?CalcWindowRect@CWnd@@UAEXPAUtagRECT@@I@Z
	DD	FLAT:?OnToolHitTest@CWnd@@UBEHVCPoint@@PAUtagTOOLINFOA@@@Z
	DD	FLAT:?GetScrollBarCtrl@CWnd@@UBEPAVCScrollBar@@H@Z
	DD	FLAT:?WinHelpA@CWnd@@UAEXKI@Z
	DD	FLAT:?HtmlHelpA@CWnd@@UAEXKI@Z
	DD	FLAT:?WinHelpInternal@CWnd@@UAEXKI@Z
	DD	FLAT:?ContinueModal@CWnd@@UAEHXZ
	DD	FLAT:?EndModalLoop@CWnd@@UAEXH@Z
	DD	FLAT:?EnsureStdObj@CWnd@@UAEJXZ
	DD	FLAT:?get_accParent@CWnd@@UAEJPAPAUIDispatch@@@Z
	DD	FLAT:?get_accChildCount@CWnd@@UAEJPAJ@Z
	DD	FLAT:?get_accChild@CWnd@@UAEJUtagVARIANT@@PAPAUIDispatch@@@Z
	DD	FLAT:?get_accName@CWnd@@UAEJUtagVARIANT@@PAPA_W@Z
	DD	FLAT:?get_accValue@CWnd@@UAEJUtagVARIANT@@PAPA_W@Z
	DD	FLAT:?get_accDescription@CWnd@@UAEJUtagVARIANT@@PAPA_W@Z
	DD	FLAT:?get_accRole@CWnd@@UAEJUtagVARIANT@@PAU2@@Z
	DD	FLAT:?get_accState@CWnd@@UAEJUtagVARIANT@@PAU2@@Z
	DD	FLAT:?get_accHelp@CWnd@@UAEJUtagVARIANT@@PAPA_W@Z
	DD	FLAT:?get_accHelpTopic@CWnd@@UAEJPAPA_WUtagVARIANT@@PAJ@Z
	DD	FLAT:?get_accKeyboardShortcut@CWnd@@UAEJUtagVARIANT@@PAPA_W@Z
	DD	FLAT:?get_accFocus@CWnd@@UAEJPAUtagVARIANT@@@Z
	DD	FLAT:?get_accSelection@CWnd@@UAEJPAUtagVARIANT@@@Z
	DD	FLAT:?get_accDefaultAction@CWnd@@UAEJUtagVARIANT@@PAPA_W@Z
	DD	FLAT:?accSelect@CWnd@@UAEJJUtagVARIANT@@@Z
	DD	FLAT:?accLocation@CWnd@@UAEJPAJ000UtagVARIANT@@@Z
	DD	FLAT:?accNavigate@CWnd@@UAEJJUtagVARIANT@@PAU2@@Z
	DD	FLAT:?accHitTest@CWnd@@UAEJJJPAUtagVARIANT@@@Z
	DD	FLAT:?accDoDefaultAction@CWnd@@UAEJUtagVARIANT@@@Z
	DD	FLAT:?put_accName@CWnd@@UAEJUtagVARIANT@@PA_W@Z
	DD	FLAT:?put_accValue@CWnd@@UAEJUtagVARIANT@@PA_W@Z
	DD	FLAT:?SetProxy@CWnd@@UAEJPAUIAccessibleProxy@@@Z
	DD	FLAT:?CreateAccessibleProxy@CWnd@@UAEJIJPAJ@Z
	DD	FLAT:?OnCommand@CWnd@@MAEHIJ@Z
	DD	FLAT:?OnNotify@CWnd@@MAEHIJPAJ@Z
	DD	FLAT:?GetSuperWndProcAddr@CWnd@@MAEPAP6GJPAUHWND__@@IIJ@ZXZ
	DD	FLAT:?DoDataExchange@CWnd@@MAEXPAVCDataExchange@@@Z
	DD	FLAT:?BeginModalState@CWnd@@UAEXXZ
	DD	FLAT:?EndModalState@CWnd@@UAEXXZ
	DD	FLAT:?PreTranslateMessage@CWnd@@UAEHPAUtagMSG@@@Z
	DD	FLAT:?OnAmbientProperty@CWnd@@UAEHPAVCOleControlSite@@JPAUtagVARIANT@@@Z
	DD	FLAT:?WindowProc@CWnd@@MAEJIIJ@Z
	DD	FLAT:?OnWndMsg@CWnd@@MAEHIIJPAJ@Z
	DD	FLAT:?DefWindowProcA@CWnd@@MAEJIIJ@Z
	DD	FLAT:?PostNcDestroy@CWnd@@MAEXXZ
	DD	FLAT:?OnChildNotify@CComboBoxEdit@@MAEHIIJPAJ@Z
	DD	FLAT:?CheckAutoCenter@CWnd@@UAEHXZ
	DD	FLAT:?IsFrameWnd@CWnd@@UBEHXZ
	DD	FLAT:?CreateControlContainer@CWnd@@MAEHPAPAVCOleControlContainer@@@Z
	DD	FLAT:?CreateControlSite@CWnd@@MAEHPAVCOleControlContainer@@PAPAVCOleControlSite@@IABU_GUID@@@Z
	DD	FLAT:?SetOccDialogInfo@CWnd@@MAEHPAU_AFX_OCC_DIALOG_INFO@@@Z
	DD	FLAT:?Create@CEdit@@UAEHKABUtagRECT@@PAVCWnd@@I@Z
CONST	ENDS
;	COMDAT ??_R4CComboBoxEdit@@6B@
rdata$r	SEGMENT
??_R4CComboBoxEdit@@6B@ DD 00H				; CComboBoxEdit::`RTTI Complete Object Locator'
	DD	00H
	DD	00H
	DD	FLAT:??_R0?AVCComboBoxEdit@@@8
	DD	FLAT:??_R3CComboBoxEdit@@8
rdata$r	ENDS
;	COMDAT ??_R0?AVCComboBoxEdit@@@8
_DATA	SEGMENT
??_R0?AVCComboBoxEdit@@@8 DD FLAT:??_7type_info@@6B@	; CComboBoxEdit `RTTI Type Descriptor'
	DD	00H
	DB	'.?AVCComboBoxEdit@@', 00H
_DATA	ENDS
;	COMDAT ??_R3CComboBoxEdit@@8
rdata$r	SEGMENT
??_R3CComboBoxEdit@@8 DD 00H				; CComboBoxEdit::`RTTI Class Hierarchy Descriptor'
	DD	00H
	DD	05H
	DD	FLAT:??_R2CComboBoxEdit@@8
rdata$r	ENDS
;	COMDAT ??_R2CComboBoxEdit@@8
rdata$r	SEGMENT
??_R2CComboBoxEdit@@8 DD FLAT:??_R1A@?0A@A@CComboBoxEdit@@8 ; CComboBoxEdit::`RTTI Base Class Array'
	DD	FLAT:??_R1A@?0A@A@CEdit@@8
	DD	FLAT:??_R1A@?0A@A@CWnd@@8
	DD	FLAT:??_R1A@?0A@A@CCmdTarget@@8
	DD	FLAT:??_R1A@?0A@A@CObject@@8
rdata$r	ENDS
;	COMDAT ??_R1A@?0A@A@CComboBoxEdit@@8
rdata$r	SEGMENT
??_R1A@?0A@A@CComboBoxEdit@@8 DD FLAT:??_R0?AVCComboBoxEdit@@@8 ; CComboBoxEdit::`RTTI Base Class Descriptor at (0,-1,0,0)'
	DD	04H
	DD	00H
	DD	0ffffffffH
	DD	00H
	DD	00H
rdata$r	ENDS
;	COMDAT ??_R1A@?0A@A@CEdit@@8
rdata$r	SEGMENT
??_R1A@?0A@A@CEdit@@8 DD FLAT:??_R0?AVCEdit@@@8		; CEdit::`RTTI Base Class Descriptor at (0,-1,0,0)'
	DD	03H
	DD	00H
	DD	0ffffffffH
	DD	00H
	DD	00H
rdata$r	ENDS
;	COMDAT ??_R0?AVCEdit@@@8
_DATA	SEGMENT
??_R0?AVCEdit@@@8 DD FLAT:??_7type_info@@6B@		; CEdit `RTTI Type Descriptor'
	DD	00H
	DB	'.?AVCEdit@@', 00H
_DATA	ENDS
;	COMDAT ??_R1A@?0A@A@CWnd@@8
rdata$r	SEGMENT
??_R1A@?0A@A@CWnd@@8 DD FLAT:??_R0?AVCWnd@@@8		; CWnd::`RTTI Base Class Descriptor at (0,-1,0,0)'
	DD	02H
	DD	00H
	DD	0ffffffffH
	DD	00H
	DD	00H
rdata$r	ENDS
;	COMDAT ??_R0?AVCWnd@@@8
_DATA	SEGMENT
??_R0?AVCWnd@@@8 DD FLAT:??_7type_info@@6B@		; CWnd `RTTI Type Descriptor'
	DD	00H
	DB	'.?AVCWnd@@', 00H
_DATA	ENDS
;	COMDAT ??_R1A@?0A@A@CCmdTarget@@8
rdata$r	SEGMENT
??_R1A@?0A@A@CCmdTarget@@8 DD FLAT:??_R0?AVCCmdTarget@@@8 ; CCmdTarget::`RTTI Base Class Descriptor at (0,-1,0,0)'
	DD	01H
	DD	00H
	DD	0ffffffffH
	DD	00H
	DD	00H
rdata$r	ENDS
;	COMDAT ??_R0?AVCCmdTarget@@@8
_DATA	SEGMENT
??_R0?AVCCmdTarget@@@8 DD FLAT:??_7type_info@@6B@	; CCmdTarget `RTTI Type Descriptor'
	DD	00H
	DB	'.?AVCCmdTarget@@', 00H
_DATA	ENDS
;	COMDAT ??_R1A@?0A@A@CObject@@8
rdata$r	SEGMENT
??_R1A@?0A@A@CObject@@8 DD FLAT:??_R0?AVCObject@@@8	; CObject::`RTTI Base Class Descriptor at (0,-1,0,0)'
	DD	00H
	DD	00H
	DD	0ffffffffH
	DD	00H
	DD	00H
rdata$r	ENDS
;	COMDAT ??_R0?AVCObject@@@8
_DATA	SEGMENT
??_R0?AVCObject@@@8 DD FLAT:??_7type_info@@6B@		; CObject `RTTI Type Descriptor'
	DD	00H
	DB	'.?AVCObject@@', 00H
; Function compile flags: /Odt /RTCsu
_DATA	ENDS
_TEXT	SEGMENT
_this$ = -4						; size = 4
??0CComboBoxEdit@@QAE@XZ PROC NEAR			; CComboBoxEdit::CComboBoxEdit
; _this$ = ecx

; 33   : {

  000a0	55		 push	 ebp
  000a1	8b ec		 mov	 ebp, esp
  000a3	51		 push	 ecx
  000a4	c7 45 fc cc cc
	cc cc		 mov	 DWORD PTR [ebp-4], -858993460 ; ccccccccH
  000ab	89 4d fc	 mov	 DWORD PTR _this$[ebp], ecx
  000ae	8b 4d fc	 mov	 ecx, DWORD PTR _this$[ebp]
  000b1	e8 00 00 00 00	 call	 ??0CEdit@@QAE@XZ	; CEdit::CEdit
  000b6	8b 45 fc	 mov	 eax, DWORD PTR _this$[ebp]
  000b9	c7 00 00 00 00
	00		 mov	 DWORD PTR [eax], OFFSET FLAT:??_7CComboBoxEdit@@6B@
  000bf	8b 4d fc	 mov	 ecx, DWORD PTR _this$[ebp]
  000c2	c7 41 54 00 00
	00 00		 mov	 DWORD PTR [ecx+84], 0
  000c9	8b 55 fc	 mov	 edx, DWORD PTR _this$[ebp]
  000cc	c7 42 58 ff ff
	ff 00		 mov	 DWORD PTR [edx+88], 16777215 ; 00ffffffH
  000d3	8b 45 fc	 mov	 eax, DWORD PTR _this$[ebp]
  000d6	c7 40 5c 00 00
	00 00		 mov	 DWORD PTR [eax+92], 0

; 34   : }

  000dd	8b 45 fc	 mov	 eax, DWORD PTR _this$[ebp]
  000e0	83 c4 04	 add	 esp, 4
  000e3	3b ec		 cmp	 ebp, esp
  000e5	e8 00 00 00 00	 call	 __RTC_CheckEsp
  000ea	8b e5		 mov	 esp, ebp
  000ec	5d		 pop	 ebp
  000ed	c3		 ret	 0
??0CComboBoxEdit@@QAE@XZ ENDP				; CComboBoxEdit::CComboBoxEdit
_TEXT	ENDS
PUBLIC	??1CComboBoxEdit@@UAE@XZ			; CComboBoxEdit::~CComboBoxEdit
EXTRN	??3CObject@@SGXPAX@Z:NEAR			; CObject::operator delete
; Function compile flags: /Odt /RTCsu
;	COMDAT ??_GCComboBoxEdit@@UAEPAXI@Z
_TEXT	SEGMENT
_this$ = -4						; size = 4
___flags$ = 8						; size = 4
??_GCComboBoxEdit@@UAEPAXI@Z PROC NEAR			; CComboBoxEdit::`scalar deleting destructor', COMDAT
; _this$ = ecx
  00000	55		 push	 ebp
  00001	8b ec		 mov	 ebp, esp
  00003	51		 push	 ecx
  00004	c7 45 fc cc cc
	cc cc		 mov	 DWORD PTR [ebp-4], -858993460 ; ccccccccH
  0000b	89 4d fc	 mov	 DWORD PTR _this$[ebp], ecx
  0000e	8b 4d fc	 mov	 ecx, DWORD PTR _this$[ebp]
  00011	e8 00 00 00 00	 call	 ??1CComboBoxEdit@@UAE@XZ
  00016	8b 45 08	 mov	 eax, DWORD PTR ___flags$[ebp]
  00019	83 e0 01	 and	 eax, 1
  0001c	74 09		 je	 SHORT $L187902
  0001e	8b 4d fc	 mov	 ecx, DWORD PTR _this$[ebp]
  00021	51		 push	 ecx
  00022	e8 00 00 00 00	 call	 ??3CObject@@SGXPAX@Z	; CObject::operator delete
$L187902:
  00027	8b 45 fc	 mov	 eax, DWORD PTR _this$[ebp]
  0002a	83 c4 04	 add	 esp, 4
  0002d	3b ec		 cmp	 ebp, esp
  0002f	e8 00 00 00 00	 call	 __RTC_CheckEsp
  00034	8b e5		 mov	 esp, ebp
  00036	5d		 pop	 ebp
  00037	c2 04 00	 ret	 4
??_GCComboBoxEdit@@UAEPAXI@Z ENDP			; CComboBoxEdit::`scalar deleting destructor'
_TEXT	ENDS
EXTRN	??1CEdit@@UAE@XZ:NEAR				; CEdit::~CEdit
; Function compile flags: /Odt /RTCsu
;	COMDAT ??1CComboBoxEdit@@UAE@XZ
_TEXT	SEGMENT
_this$ = -4						; size = 4
??1CComboBoxEdit@@UAE@XZ PROC NEAR			; CComboBoxEdit::~CComboBoxEdit, COMDAT
; _this$ = ecx
  00000	55		 push	 ebp
  00001	8b ec		 mov	 ebp, esp
  00003	51		 push	 ecx
  00004	c7 45 fc cc cc
	cc cc		 mov	 DWORD PTR [ebp-4], -858993460 ; ccccccccH
  0000b	89 4d fc	 mov	 DWORD PTR _this$[ebp], ecx
  0000e	8b 4d fc	 mov	 ecx, DWORD PTR _this$[ebp]
  00011	e8 00 00 00 00	 call	 ??1CEdit@@UAE@XZ	; CEdit::~CEdit
  00016	83 c4 04	 add	 esp, 4
  00019	3b ec		 cmp	 ebp, esp
  0001b	e8 00 00 00 00	 call	 __RTC_CheckEsp
  00020	8b e5		 mov	 esp, ebp
  00022	5d		 pop	 ebp
  00023	c3		 ret	 0
??1CComboBoxEdit@@UAE@XZ ENDP				; CComboBoxEdit::~CComboBoxEdit
_TEXT	ENDS
PUBLIC	?SetSkin@CComboBoxEdit@@QAEXAAK0@Z		; CComboBoxEdit::SetSkin
; Function compile flags: /Odt /RTCsu
_TEXT	SEGMENT
_this$ = -4						; size = 4
_colorBkg$ = 8						; size = 4
_colorText$ = 12					; size = 4
?SetSkin@CComboBoxEdit@@QAEXAAK0@Z PROC NEAR		; CComboBoxEdit::SetSkin
; _this$ = ecx

; 38   : {

  000f0	55		 push	 ebp
  000f1	8b ec		 mov	 ebp, esp
  000f3	51		 push	 ecx
  000f4	c7 45 fc cc cc
	cc cc		 mov	 DWORD PTR [ebp-4], -858993460 ; ccccccccH
  000fb	89 4d fc	 mov	 DWORD PTR _this$[ebp], ecx

; 39   : 	m_colorBkg=colorBkg;

  000fe	8b 45 fc	 mov	 eax, DWORD PTR _this$[ebp]
  00101	8b 4d 08	 mov	 ecx, DWORD PTR _colorBkg$[ebp]
  00104	8b 11		 mov	 edx, DWORD PTR [ecx]
  00106	89 50 58	 mov	 DWORD PTR [eax+88], edx

; 40   : 
; 41   : 	m_colorText=colorText;

  00109	8b 45 fc	 mov	 eax, DWORD PTR _this$[ebp]
  0010c	8b 4d 0c	 mov	 ecx, DWORD PTR _colorText$[ebp]
  0010f	8b 11		 mov	 edx, DWORD PTR [ecx]
  00111	89 50 5c	 mov	 DWORD PTR [eax+92], edx

; 42   : 
; 43   : }

  00114	8b e5		 mov	 esp, ebp
  00116	5d		 pop	 ebp
  00117	c2 08 00	 ret	 8
?SetSkin@CComboBoxEdit@@QAEXAAK0@Z ENDP			; CComboBoxEdit::SetSkin
_TEXT	ENDS
PUBLIC	?SetMsgWnd@CComboBoxEdit@@QAEXPAVCWnd@@@Z	; CComboBoxEdit::SetMsgWnd
; Function compile flags: /Odt /RTCsu
_TEXT	SEGMENT
_this$ = -4						; size = 4
_pMsgWnd$ = 8						; size = 4
?SetMsgWnd@CComboBoxEdit@@QAEXPAVCWnd@@@Z PROC NEAR	; CComboBoxEdit::SetMsgWnd
; _this$ = ecx

; 46   : {

  00120	55		 push	 ebp
  00121	8b ec		 mov	 ebp, esp
  00123	51		 push	 ecx
  00124	c7 45 fc cc cc
	cc cc		 mov	 DWORD PTR [ebp-4], -858993460 ; ccccccccH
  0012b	89 4d fc	 mov	 DWORD PTR _this$[ebp], ecx

; 47   : 	m_pMsgWnd=pMsgWnd;

  0012e	8b 45 fc	 mov	 eax, DWORD PTR _this$[ebp]
  00131	8b 4d 08	 mov	 ecx, DWORD PTR _pMsgWnd$[ebp]
  00134	89 48 54	 mov	 DWORD PTR [eax+84], ecx

; 48   : }

  00137	8b e5		 mov	 esp, ebp
  00139	5d		 pop	 ebp
  0013a	c2 04 00	 ret	 4
?SetMsgWnd@CComboBoxEdit@@QAEXPAVCWnd@@@Z ENDP		; CComboBoxEdit::SetMsgWnd
_TEXT	ENDS
EXTRN	?OnLButtonDown@CWnd@@IAEXIVCPoint@@@Z:NEAR	; CWnd::OnLButtonDown
EXTRN	?SendMessageA@CWnd@@QAEJIIJ@Z:NEAR		; CWnd::SendMessageA
; Function compile flags: /Odt /RTCsu
_TEXT	SEGMENT
_this$ = -4						; size = 4
_nFlags$ = 8						; size = 4
_point$ = 12						; size = 8
?OnLButtonDown@CComboBoxEdit@@IAEXIVCPoint@@@Z PROC NEAR ; CComboBoxEdit::OnLButtonDown
; _this$ = ecx

; 52   : {

  00140	55		 push	 ebp
  00141	8b ec		 mov	 ebp, esp
  00143	51		 push	 ecx
  00144	c7 45 fc cc cc
	cc cc		 mov	 DWORD PTR [ebp-4], -858993460 ; ccccccccH
  0014b	89 4d fc	 mov	 DWORD PTR _this$[ebp], ecx

; 53   : 	m_pMsgWnd->SendMessage(MSG_EDIT_CLICKED);

  0014e	6a 00		 push	 0
  00150	6a 00		 push	 0
  00152	68 66 04 00 00	 push	 1126			; 00000466H
  00157	8b 45 fc	 mov	 eax, DWORD PTR _this$[ebp]
  0015a	8b 48 54	 mov	 ecx, DWORD PTR [eax+84]
  0015d	e8 00 00 00 00	 call	 ?SendMessageA@CWnd@@QAEJIIJ@Z ; CWnd::SendMessageA

; 54   : 	
; 55   : 	CEdit::OnLButtonDown(nFlags, point);

  00162	8b 4d 10	 mov	 ecx, DWORD PTR _point$[ebp+4]
  00165	51		 push	 ecx
  00166	8b 55 0c	 mov	 edx, DWORD PTR _point$[ebp]
  00169	52		 push	 edx
  0016a	8b 45 08	 mov	 eax, DWORD PTR _nFlags$[ebp]
  0016d	50		 push	 eax
  0016e	8b 4d fc	 mov	 ecx, DWORD PTR _this$[ebp]
  00171	e8 00 00 00 00	 call	 ?OnLButtonDown@CWnd@@IAEXIVCPoint@@@Z ; CWnd::OnLButtonDown

; 56   : }

  00176	83 c4 04	 add	 esp, 4
  00179	3b ec		 cmp	 ebp, esp
  0017b	e8 00 00 00 00	 call	 __RTC_CheckEsp
  00180	8b e5		 mov	 esp, ebp
  00182	5d		 pop	 ebp
  00183	c2 0c 00	 ret	 12			; 0000000cH
?OnLButtonDown@CComboBoxEdit@@IAEXIVCPoint@@@Z ENDP	; CComboBoxEdit::OnLButtonDown
_TEXT	ENDS
EXTRN	?SetSel@CEdit@@QAEXHHH@Z:NEAR			; CEdit::SetSel
EXTRN	?OnLButtonDblClk@CWnd@@IAEXIVCPoint@@@Z:NEAR	; CWnd::OnLButtonDblClk
; Function compile flags: /Odt /RTCsu
_TEXT	SEGMENT
_this$ = -4						; size = 4
_nFlags$ = 8						; size = 4
_point$ = 12						; size = 8
?OnLButtonDblClk@CComboBoxEdit@@IAEXIVCPoint@@@Z PROC NEAR ; CComboBoxEdit::OnLButtonDblClk
; _this$ = ecx

; 59   : {

  00190	55		 push	 ebp
  00191	8b ec		 mov	 ebp, esp
  00193	51		 push	 ecx
  00194	c7 45 fc cc cc
	cc cc		 mov	 DWORD PTR [ebp-4], -858993460 ; ccccccccH
  0019b	89 4d fc	 mov	 DWORD PTR _this$[ebp], ecx

; 60   : 	SetSel(0,-1);

  0019e	6a 00		 push	 0
  001a0	6a ff		 push	 -1
  001a2	6a 00		 push	 0
  001a4	8b 4d fc	 mov	 ecx, DWORD PTR _this$[ebp]
  001a7	e8 00 00 00 00	 call	 ?SetSel@CEdit@@QAEXHHH@Z ; CEdit::SetSel

; 61   : 
; 62   : 	CEdit::OnLButtonDblClk(nFlags, point);

  001ac	8b 45 10	 mov	 eax, DWORD PTR _point$[ebp+4]
  001af	50		 push	 eax
  001b0	8b 4d 0c	 mov	 ecx, DWORD PTR _point$[ebp]
  001b3	51		 push	 ecx
  001b4	8b 55 08	 mov	 edx, DWORD PTR _nFlags$[ebp]
  001b7	52		 push	 edx
  001b8	8b 4d fc	 mov	 ecx, DWORD PTR _this$[ebp]
  001bb	e8 00 00 00 00	 call	 ?OnLButtonDblClk@CWnd@@IAEXIVCPoint@@@Z ; CWnd::OnLButtonDblClk

; 63   : }

  001c0	83 c4 04	 add	 esp, 4
  001c3	3b ec		 cmp	 ebp, esp
  001c5	e8 00 00 00 00	 call	 __RTC_CheckEsp
  001ca	8b e5		 mov	 esp, ebp
  001cc	5d		 pop	 ebp
  001cd	c2 0c 00	 ret	 12			; 0000000cH
?OnLButtonDblClk@CComboBoxEdit@@IAEXIVCPoint@@@Z ENDP	; CComboBoxEdit::OnLButtonDblClk
_TEXT	ENDS
EXTRN	?DrawTextA@CDC@@UAEHPBDHPAUtagRECT@@I@Z:NEAR	; CDC::DrawTextA
EXTRN	__except_list:DWORD
EXTRN	___security_cookie:DWORD
EXTRN	@_RTC_CheckStackVars@8:NEAR
EXTRN	@__security_check_cookie@4:NEAR
EXTRN	___CxxFrameHandler:NEAR
EXTRN	?FillSolidRect@CDC@@QAEXPBUtagRECT@@K@Z:NEAR	; CDC::FillSolidRect
EXTRN	??0CPaintDC@@QAE@PAVCWnd@@@Z:NEAR		; CPaintDC::CPaintDC
EXTRN	??1CPaintDC@@UAE@XZ:NEAR			; CPaintDC::~CPaintDC
EXTRN	??0CRect@@QAE@XZ:NEAR				; CRect::CRect
EXTRN	??BCRect@@QAEPAUtagRECT@@XZ:NEAR		; CRect::operator tagRECT *
EXTRN	?OffsetRect@CRect@@QAEXHH@Z:NEAR		; CRect::OffsetRect
EXTRN	?GetWindowTextA@CWnd@@QBEXAAV?$CStringT@DV?$StrTraitMFC_DLL@DV?$ChTraitsCRT@D@ATL@@@@@ATL@@@Z:NEAR ; CWnd::GetWindowTextA
EXTRN	?GetFont@CWnd@@QBEPAVCFont@@XZ:NEAR		; CWnd::GetFont
EXTRN	__imp_??B?$CSimpleStringT@D$00@ATL@@QBEPBDXZ:NEAR
EXTRN	?GetClientRect@CWnd@@QBEXPAUtagRECT@@@Z:NEAR	; CWnd::GetClientRect
EXTRN	__imp_?GetLength@?$CSimpleStringT@D$00@ATL@@QBEHXZ:NEAR
EXTRN	?SelectObject@CDC@@UAEPAVCFont@@PAV2@@Z:NEAR	; CDC::SelectObject
EXTRN	?SetTextColor@CDC@@UAEKK@Z:NEAR			; CDC::SetTextColor
EXTRN	__imp_??0?$CStringT@DV?$StrTraitMFC_DLL@DV?$ChTraitsCRT@D@ATL@@@@@ATL@@QAE@XZ:NEAR
EXTRN	__imp_??1?$CStringT@DV?$StrTraitMFC_DLL@DV?$ChTraitsCRT@D@ATL@@@@@ATL@@QAE@XZ:NEAR
xdata$x	SEGMENT
$T189718 DD	0ffffffffH
	DD	FLAT:$L189701
	DD	00H
	DD	FLAT:$L189702
$T189706 DD	019930520H
	DD	02H
	DD	FLAT:$T189718
	DD	2 DUP(00H)
	DD	2 DUP(00H)
; Function compile flags: /Odt /RTCsu
xdata$x	ENDS
_TEXT	SEGMENT
_strText$ = -144					; size = 4
_rectEdit$ = -132					; size = 16
_dc$ = -108						; size = 84
_this$ = -20						; size = 4
__$ArrayPad$ = -16					; size = 4
__$EHRec$ = -12						; size = 12
__$ReturnAddr$ = 4					; size = 4
?OnPaint@CComboBoxEdit@@IAEXXZ PROC NEAR		; CComboBoxEdit::OnPaint
; _this$ = ecx

; 66   : {

  001d0	55		 push	 ebp
  001d1	8b ec		 mov	 ebp, esp
  001d3	6a ff		 push	 -1
  001d5	68 00 00 00 00	 push	 __ehhandler$?OnPaint@CComboBoxEdit@@IAEXXZ
  001da	64 a1 00 00 00
	00		 mov	 eax, DWORD PTR fs:__except_list
  001e0	50		 push	 eax
  001e1	64 89 25 00 00
	00 00		 mov	 DWORD PTR fs:__except_list, esp
  001e8	81 ec 88 00 00
	00		 sub	 esp, 136		; 00000088H
  001ee	56		 push	 esi
  001ef	57		 push	 edi
  001f0	51		 push	 ecx
  001f1	8d bd 6c ff ff
	ff		 lea	 edi, DWORD PTR [ebp-148]
  001f7	b9 22 00 00 00	 mov	 ecx, 34			; 00000022H
  001fc	b8 cc cc cc cc	 mov	 eax, -858993460		; ccccccccH
  00201	f3 ab		 rep stosd
  00203	59		 pop	 ecx
  00204	a1 00 00 00 00	 mov	 eax, DWORD PTR ___security_cookie
  00209	89 45 f0	 mov	 DWORD PTR __$ArrayPad$[ebp], eax
  0020c	89 4d ec	 mov	 DWORD PTR _this$[ebp], ecx

; 67   : 	CPaintDC dc(this); 

  0020f	8b 45 ec	 mov	 eax, DWORD PTR _this$[ebp]
  00212	50		 push	 eax
  00213	8d 4d 94	 lea	 ecx, DWORD PTR _dc$[ebp]
  00216	e8 00 00 00 00	 call	 ??0CPaintDC@@QAE@PAVCWnd@@@Z ; CPaintDC::CPaintDC
  0021b	c7 45 fc 00 00
	00 00		 mov	 DWORD PTR __$EHRec$[ebp+8], 0

; 68   : 
; 69   : 	CRect rectEdit;

  00222	8d 8d 7c ff ff
	ff		 lea	 ecx, DWORD PTR _rectEdit$[ebp]
  00228	e8 00 00 00 00	 call	 ??0CRect@@QAE@XZ	; CRect::CRect

; 70   : 	GetClientRect(&rectEdit);

  0022d	8d 8d 7c ff ff
	ff		 lea	 ecx, DWORD PTR _rectEdit$[ebp]
  00233	51		 push	 ecx
  00234	8b 4d ec	 mov	 ecx, DWORD PTR _this$[ebp]
  00237	e8 00 00 00 00	 call	 ?GetClientRect@CWnd@@QBEXPAUtagRECT@@@Z ; CWnd::GetClientRect

; 71   : 	dc.FillSolidRect(&rectEdit,m_colorBkg);

  0023c	8b 55 ec	 mov	 edx, DWORD PTR _this$[ebp]
  0023f	8b 42 58	 mov	 eax, DWORD PTR [edx+88]
  00242	50		 push	 eax
  00243	8d 8d 7c ff ff
	ff		 lea	 ecx, DWORD PTR _rectEdit$[ebp]
  00249	51		 push	 ecx
  0024a	8d 4d 94	 lea	 ecx, DWORD PTR _dc$[ebp]
  0024d	e8 00 00 00 00	 call	 ?FillSolidRect@CDC@@QAEXPBUtagRECT@@K@Z ; CDC::FillSolidRect

; 72   : 
; 73   : 	rectEdit.OffsetRect(3,0);

  00252	6a 00		 push	 0
  00254	6a 03		 push	 3
  00256	8d 8d 7c ff ff
	ff		 lea	 ecx, DWORD PTR _rectEdit$[ebp]
  0025c	e8 00 00 00 00	 call	 ?OffsetRect@CRect@@QAEXHH@Z ; CRect::OffsetRect

; 74   : 	rectEdit.right -= 6;

  00261	8b 55 84	 mov	 edx, DWORD PTR _rectEdit$[ebp+8]
  00264	83 ea 06	 sub	 edx, 6
  00267	89 55 84	 mov	 DWORD PTR _rectEdit$[ebp+8], edx

; 75   : 	dc.SelectObject( GetFont() );

  0026a	8b 4d ec	 mov	 ecx, DWORD PTR _this$[ebp]
  0026d	e8 00 00 00 00	 call	 ?GetFont@CWnd@@QBEPAVCFont@@XZ ; CWnd::GetFont
  00272	50		 push	 eax
  00273	8d 4d 94	 lea	 ecx, DWORD PTR _dc$[ebp]
  00276	e8 00 00 00 00	 call	 ?SelectObject@CDC@@UAEPAVCFont@@PAV2@@Z ; CDC::SelectObject

; 76   : 	dc.SetTextColor(m_colorText);

  0027b	8b 45 ec	 mov	 eax, DWORD PTR _this$[ebp]
  0027e	8b 48 5c	 mov	 ecx, DWORD PTR [eax+92]
  00281	51		 push	 ecx
  00282	8d 4d 94	 lea	 ecx, DWORD PTR _dc$[ebp]
  00285	e8 00 00 00 00	 call	 ?SetTextColor@CDC@@UAEKK@Z ; CDC::SetTextColor

; 77   : 	CString strText;

  0028a	8b f4		 mov	 esi, esp
  0028c	8d 8d 70 ff ff
	ff		 lea	 ecx, DWORD PTR _strText$[ebp]
  00292	ff 15 00 00 00
	00		 call	 DWORD PTR __imp_??0?$CStringT@DV?$StrTraitMFC_DLL@DV?$ChTraitsCRT@D@ATL@@@@@ATL@@QAE@XZ
  00298	3b f4		 cmp	 esi, esp
  0029a	e8 00 00 00 00	 call	 __RTC_CheckEsp
  0029f	c6 45 fc 01	 mov	 BYTE PTR __$EHRec$[ebp+8], 1

; 78   : 	GetWindowText(strText);

  002a3	8d 95 70 ff ff
	ff		 lea	 edx, DWORD PTR _strText$[ebp]
  002a9	52		 push	 edx
  002aa	8b 4d ec	 mov	 ecx, DWORD PTR _this$[ebp]
  002ad	e8 00 00 00 00	 call	 ?GetWindowTextA@CWnd@@QBEXAAV?$CStringT@DV?$StrTraitMFC_DLL@DV?$ChTraitsCRT@D@ATL@@@@@ATL@@@Z ; CWnd::GetWindowTextA

; 79   : 	dc.DrawText(strText, strText.GetLength(), rectEdit, DT_NOPREFIX|DT_VCENTER);

  002b2	68 04 08 00 00	 push	 2052			; 00000804H
  002b7	8d 8d 7c ff ff
	ff		 lea	 ecx, DWORD PTR _rectEdit$[ebp]
  002bd	e8 00 00 00 00	 call	 ??BCRect@@QAEPAUtagRECT@@XZ ; CRect::operator tagRECT *
  002c2	50		 push	 eax
  002c3	8b f4		 mov	 esi, esp
  002c5	8d 8d 70 ff ff
	ff		 lea	 ecx, DWORD PTR _strText$[ebp]
  002cb	ff 15 00 00 00
	00		 call	 DWORD PTR __imp_?GetLength@?$CSimpleStringT@D$00@ATL@@QBEHXZ
  002d1	3b f4		 cmp	 esi, esp
  002d3	e8 00 00 00 00	 call	 __RTC_CheckEsp
  002d8	50		 push	 eax
  002d9	8b f4		 mov	 esi, esp
  002db	8d 8d 70 ff ff
	ff		 lea	 ecx, DWORD PTR _strText$[ebp]
  002e1	ff 15 00 00 00
	00		 call	 DWORD PTR __imp_??B?$CSimpleStringT@D$00@ATL@@QBEPBDXZ
  002e7	3b f4		 cmp	 esi, esp
  002e9	e8 00 00 00 00	 call	 __RTC_CheckEsp
  002ee	50		 push	 eax
  002ef	8d 4d 94	 lea	 ecx, DWORD PTR _dc$[ebp]
  002f2	e8 00 00 00 00	 call	 ?DrawTextA@CDC@@UAEHPBDHPAUtagRECT@@I@Z ; CDC::DrawTextA

; 80   : 
; 81   : }

  002f7	c6 45 fc 00	 mov	 BYTE PTR __$EHRec$[ebp+8], 0
  002fb	8b f4		 mov	 esi, esp
  002fd	8d 8d 70 ff ff
	ff		 lea	 ecx, DWORD PTR _strText$[ebp]
  00303	ff 15 00 00 00
	00		 call	 DWORD PTR __imp_??1?$CStringT@DV?$StrTraitMFC_DLL@DV?$ChTraitsCRT@D@ATL@@@@@ATL@@QAE@XZ
  00309	3b f4		 cmp	 esi, esp
  0030b	e8 00 00 00 00	 call	 __RTC_CheckEsp
  00310	c7 45 fc ff ff
	ff ff		 mov	 DWORD PTR __$EHRec$[ebp+8], -1
  00317	8d 4d 94	 lea	 ecx, DWORD PTR _dc$[ebp]
  0031a	e8 00 00 00 00	 call	 ??1CPaintDC@@UAE@XZ	; CPaintDC::~CPaintDC
  0031f	52		 push	 edx
  00320	8b cd		 mov	 ecx, ebp
  00322	50		 push	 eax
  00323	8d 15 00 00 00
	00		 lea	 edx, DWORD PTR $L189715
  00329	e8 00 00 00 00	 call	 @_RTC_CheckStackVars@8
  0032e	58		 pop	 eax
  0032f	5a		 pop	 edx
  00330	8b 4d f4	 mov	 ecx, DWORD PTR __$EHRec$[ebp]
  00333	64 89 0d 00 00
	00 00		 mov	 DWORD PTR fs:__except_list, ecx
  0033a	8b 4d f0	 mov	 ecx, DWORD PTR __$ArrayPad$[ebp]
  0033d	e8 00 00 00 00	 call	 @__security_check_cookie@4
  00342	5f		 pop	 edi
  00343	5e		 pop	 esi
  00344	81 c4 94 00 00
	00		 add	 esp, 148		; 00000094H
  0034a	3b ec		 cmp	 ebp, esp
  0034c	e8 00 00 00 00	 call	 __RTC_CheckEsp
  00351	8b e5		 mov	 esp, ebp
  00353	5d		 pop	 ebp
  00354	c3		 ret	 0
$L189715:
  00355	03 00 00 00	 DD	 3
  00359	00 00 00 00	 DD	 $L189714
$L189714:
  0035d	94 ff ff ff	 DD	 -108			; ffffff94H
  00361	54 00 00 00	 DD	 84			; 00000054H
  00365	00 00 00 00	 DD	 $L189707
  00369	7c ff ff ff	 DD	 -132			; ffffff7cH
  0036d	10 00 00 00	 DD	 16			; 00000010H
  00371	00 00 00 00	 DD	 $L189708
  00375	70 ff ff ff	 DD	 -144			; ffffff70H
  00379	04 00 00 00	 DD	 4
  0037d	00 00 00 00	 DD	 $L189709
$L189709:
  00381	73		 DB	 115			; 00000073H
  00382	74		 DB	 116			; 00000074H
  00383	72		 DB	 114			; 00000072H
  00384	54		 DB	 84			; 00000054H
  00385	65		 DB	 101			; 00000065H
  00386	78		 DB	 120			; 00000078H
  00387	74		 DB	 116			; 00000074H
  00388	00		 DB	 0
$L189708:
  00389	72		 DB	 114			; 00000072H
  0038a	65		 DB	 101			; 00000065H
  0038b	63		 DB	 99			; 00000063H
  0038c	74		 DB	 116			; 00000074H
  0038d	45		 DB	 69			; 00000045H
  0038e	64		 DB	 100			; 00000064H
  0038f	69		 DB	 105			; 00000069H
  00390	74		 DB	 116			; 00000074H
  00391	00		 DB	 0
$L189707:
  00392	64		 DB	 100			; 00000064H
  00393	63		 DB	 99			; 00000063H
  00394	00		 DB	 0
_TEXT	ENDS
text$x	SEGMENT
$L189701:
  00000	8d 4d 94	 lea	 ecx, DWORD PTR _dc$[ebp]
  00003	e9 00 00 00 00	 jmp	 ??1CPaintDC@@UAE@XZ	; CPaintDC::~CPaintDC
$L189702:
  00008	8b f4		 mov	 esi, esp
  0000a	8d 8d 70 ff ff
	ff		 lea	 ecx, DWORD PTR _strText$[ebp]
  00010	ff 15 00 00 00
	00		 call	 DWORD PTR __imp_??1?$CStringT@DV?$StrTraitMFC_DLL@DV?$ChTraitsCRT@D@ATL@@@@@ATL@@QAE@XZ
  00016	3b f4		 cmp	 esi, esp
  00018	e9 00 00 00 00	 jmp	 __RTC_CheckEsp
__ehhandler$?OnPaint@CComboBoxEdit@@IAEXXZ:
  0001d	b8 00 00 00 00	 mov	 eax, OFFSET FLAT:$T189706
  00022	e9 00 00 00 00	 jmp	 ___CxxFrameHandler
text$x	ENDS
?OnPaint@CComboBoxEdit@@IAEXXZ ENDP			; CComboBoxEdit::OnPaint
EXTRN	__imp__SetBkColor@8:NEAR
EXTRN	__imp__SetTextColor@8:NEAR
EXTRN	?OnChildNotify@CWnd@@MAEHIIJPAJ@Z:NEAR		; CWnd::OnChildNotify
; Function compile flags: /Odt /RTCsu
_TEXT	SEGMENT
_hdcChild$ = -8						; size = 4
_this$ = -4						; size = 4
_message$ = 8						; size = 4
_wParam$ = 12						; size = 4
_lParam$ = 16						; size = 4
_pLResult$ = 20						; size = 4
?OnChildNotify@CComboBoxEdit@@MAEHIIJPAJ@Z PROC NEAR	; CComboBoxEdit::OnChildNotify
; _this$ = ecx

; 84   : {

  003a0	55		 push	 ebp
  003a1	8b ec		 mov	 ebp, esp
  003a3	83 ec 08	 sub	 esp, 8
  003a6	56		 push	 esi
  003a7	c7 45 f8 cc cc
	cc cc		 mov	 DWORD PTR [ebp-8], -858993460 ; ccccccccH
  003ae	c7 45 fc cc cc
	cc cc		 mov	 DWORD PTR [ebp-4], -858993460 ; ccccccccH
  003b5	89 4d fc	 mov	 DWORD PTR _this$[ebp], ecx

; 85   : 	if (message != WM_CTLCOLOREDIT) 

  003b8	81 7d 08 33 01
	00 00		 cmp	 DWORD PTR _message$[ebp], 307 ; 00000133H
  003bf	74 1a		 je	 SHORT $L187937

; 86   : 	{
; 87   : 		return CEdit::OnChildNotify(message, wParam, lParam, pLResult);

  003c1	8b 45 14	 mov	 eax, DWORD PTR _pLResult$[ebp]
  003c4	50		 push	 eax
  003c5	8b 4d 10	 mov	 ecx, DWORD PTR _lParam$[ebp]
  003c8	51		 push	 ecx
  003c9	8b 55 0c	 mov	 edx, DWORD PTR _wParam$[ebp]
  003cc	52		 push	 edx
  003cd	8b 45 08	 mov	 eax, DWORD PTR _message$[ebp]
  003d0	50		 push	 eax
  003d1	8b 4d fc	 mov	 ecx, DWORD PTR _this$[ebp]
  003d4	e8 00 00 00 00	 call	 ?OnChildNotify@CWnd@@MAEHIIJPAJ@Z ; CWnd::OnChildNotify
  003d9	eb 3f		 jmp	 SHORT $L187936
$L187937:

; 88   : 	}
; 89   : 
; 90   : 	HDC hdcChild = (HDC)wParam;

  003db	8b 4d 0c	 mov	 ecx, DWORD PTR _wParam$[ebp]
  003de	89 4d f8	 mov	 DWORD PTR _hdcChild$[ebp], ecx

; 91   : 
; 92   : 	SetTextColor(hdcChild, m_colorText);

  003e1	8b f4		 mov	 esi, esp
  003e3	8b 55 fc	 mov	 edx, DWORD PTR _this$[ebp]
  003e6	8b 42 5c	 mov	 eax, DWORD PTR [edx+92]
  003e9	50		 push	 eax
  003ea	8b 4d f8	 mov	 ecx, DWORD PTR _hdcChild$[ebp]
  003ed	51		 push	 ecx
  003ee	ff 15 00 00 00
	00		 call	 DWORD PTR __imp__SetTextColor@8
  003f4	3b f4		 cmp	 esi, esp
  003f6	e8 00 00 00 00	 call	 __RTC_CheckEsp

; 93   : 	SetBkColor(hdcChild, m_colorBkg);

  003fb	8b f4		 mov	 esi, esp
  003fd	8b 55 fc	 mov	 edx, DWORD PTR _this$[ebp]
  00400	8b 42 58	 mov	 eax, DWORD PTR [edx+88]
  00403	50		 push	 eax
  00404	8b 4d f8	 mov	 ecx, DWORD PTR _hdcChild$[ebp]
  00407	51		 push	 ecx
  00408	ff 15 00 00 00
	00		 call	 DWORD PTR __imp__SetBkColor@8
  0040e	3b f4		 cmp	 esi, esp
  00410	e8 00 00 00 00	 call	 __RTC_CheckEsp

; 94   : 	return TRUE;

  00415	b8 01 00 00 00	 mov	 eax, 1
$L187936:

; 95   : }

  0041a	5e		 pop	 esi
  0041b	83 c4 08	 add	 esp, 8
  0041e	3b ec		 cmp	 ebp, esp
  00420	e8 00 00 00 00	 call	 __RTC_CheckEsp
  00425	8b e5		 mov	 esp, ebp
  00427	5d		 pop	 ebp
  00428	c2 10 00	 ret	 16			; 00000010H
?OnChildNotify@CComboBoxEdit@@MAEHIIJPAJ@Z ENDP		; CComboBoxEdit::OnChildNotify
_TEXT	ENDS
PUBLIC	?GetThisClass@CComboBoxHistoryList@@SGPAUCRuntimeClass@@XZ ; CComboBoxHistoryList::GetThisClass
; Function compile flags: /Odt /RTCsu
_TEXT	SEGMENT
?GetThisClass@CComboBoxHistoryList@@SGPAUCRuntimeClass@@XZ PROC NEAR ; CComboBoxHistoryList::GetThisClass

; 101  : IMPLEMENT_DYNAMIC(CComboBoxHistoryList, CListCtrl)

  00430	55		 push	 ebp
  00431	8b ec		 mov	 ebp, esp
  00433	b8 00 00 00 00	 mov	 eax, OFFSET FLAT:?classCComboBoxHistoryList@CComboBoxHistoryList@@2UCRuntimeClass@@B ; CComboBoxHistoryList::classCComboBoxHistoryList
  00438	5d		 pop	 ebp
  00439	c3		 ret	 0
?GetThisClass@CComboBoxHistoryList@@SGPAUCRuntimeClass@@XZ ENDP ; CComboBoxHistoryList::GetThisClass
_TEXT	ENDS
PUBLIC	?GetRuntimeClass@CComboBoxHistoryList@@UBEPAUCRuntimeClass@@XZ ; CComboBoxHistoryList::GetRuntimeClass
; Function compile flags: /Odt /RTCsu
_TEXT	SEGMENT
_this$ = -4						; size = 4
?GetRuntimeClass@CComboBoxHistoryList@@UBEPAUCRuntimeClass@@XZ PROC NEAR ; CComboBoxHistoryList::GetRuntimeClass
; _this$ = ecx

; 101  : IMPLEMENT_DYNAMIC(CComboBoxHistoryList, CListCtrl)

  00440	55		 push	 ebp
  00441	8b ec		 mov	 ebp, esp
  00443	51		 push	 ecx
  00444	c7 45 fc cc cc
	cc cc		 mov	 DWORD PTR [ebp-4], -858993460 ; ccccccccH
  0044b	89 4d fc	 mov	 DWORD PTR _this$[ebp], ecx
  0044e	b8 00 00 00 00	 mov	 eax, OFFSET FLAT:?classCComboBoxHistoryList@CComboBoxHistoryList@@2UCRuntimeClass@@B ; CComboBoxHistoryList::classCComboBoxHistoryList
  00453	8b e5		 mov	 esp, ebp
  00455	5d		 pop	 ebp
  00456	c3		 ret	 0
?GetRuntimeClass@CComboBoxHistoryList@@UBEPAUCRuntimeClass@@XZ ENDP ; CComboBoxHistoryList::GetRuntimeClass
_TEXT	ENDS
PUBLIC	??_R4CComboBoxHistoryList@@6B@			; CComboBoxHistoryList::`RTTI Complete Object Locator'
PUBLIC	??_R0?AVCComboBoxHistoryList@@@8		; CComboBoxHistoryList `RTTI Type Descriptor'
PUBLIC	??_R3CComboBoxHistoryList@@8			; CComboBoxHistoryList::`RTTI Class Hierarchy Descriptor'
PUBLIC	??_R2CComboBoxHistoryList@@8			; CComboBoxHistoryList::`RTTI Base Class Array'
PUBLIC	??_R1A@?0A@A@CComboBoxHistoryList@@8		; CComboBoxHistoryList::`RTTI Base Class Descriptor at (0,-1,0,0)'
PUBLIC	??_R1A@?0A@A@CListCtrl@@8			; CListCtrl::`RTTI Base Class Descriptor at (0,-1,0,0)'
PUBLIC	??_R0?AVCListCtrl@@@8				; CListCtrl `RTTI Type Descriptor'
PUBLIC	??0CComboBoxHistoryList@@QAE@XZ			; CComboBoxHistoryList::CComboBoxHistoryList
PUBLIC	?GetMessageMap@CComboBoxHistoryList@@MBEPBUAFX_MSGMAP@@XZ ; CComboBoxHistoryList::GetMessageMap
PUBLIC	??_7CComboBoxHistoryList@@6B@			; CComboBoxHistoryList::`vftable'
PUBLIC	??_GCComboBoxHistoryList@@UAEPAXI@Z		; CComboBoxHistoryList::`scalar deleting destructor'
EXTRN	?DrawItem@CListCtrl@@UAEXPAUtagDRAWITEMSTRUCT@@@Z:NEAR ; CListCtrl::DrawItem
EXTRN	?OnChildNotify@CListCtrl@@MAEHIIJPAJ@Z:NEAR	; CListCtrl::OnChildNotify
EXTRN	??0CListCtrl@@QAE@XZ:NEAR			; CListCtrl::CListCtrl
EXTRN	?Create@CListCtrl@@UAEHKABUtagRECT@@PAVCWnd@@I@Z:NEAR ; CListCtrl::Create
EXTRN	?CreateEx@CListCtrl@@UAEHKKABUtagRECT@@PAVCWnd@@I@Z:NEAR ; CListCtrl::CreateEx
EXTRN	??_ECComboBoxHistoryList@@UAEPAXI@Z:NEAR	; CComboBoxHistoryList::`vector deleting destructor'
;	COMDAT ??_7CComboBoxHistoryList@@6B@
CONST	SEGMENT
??_7CComboBoxHistoryList@@6B@ DD FLAT:??_R4CComboBoxHistoryList@@6B@ ; CComboBoxHistoryList::`vftable'
	DD	FLAT:?GetRuntimeClass@CComboBoxHistoryList@@UBEPAUCRuntimeClass@@XZ
	DD	FLAT:??_ECComboBoxHistoryList@@UAEPAXI@Z
	DD	FLAT:?Serialize@CObject@@UAEXAAVCArchive@@@Z
	DD	FLAT:?AssertValid@CWnd@@UBEXXZ
	DD	FLAT:?Dump@CWnd@@UBEXAAVCDumpContext@@@Z
	DD	FLAT:?OnCmdMsg@CCmdTarget@@UAEHIHPAXPAUAFX_CMDHANDLERINFO@@@Z
	DD	FLAT:?OnFinalRelease@CWnd@@UAEXXZ
	DD	FLAT:?IsInvokeAllowed@CCmdTarget@@UAEHJ@Z
	DD	FLAT:?GetDispatchIID@CCmdTarget@@UAEHPAU_GUID@@@Z
	DD	FLAT:?GetTypeInfoCount@CCmdTarget@@UAEIXZ
	DD	FLAT:?GetTypeLibCache@CCmdTarget@@UAEPAVCTypeLibCache@@XZ
	DD	FLAT:?GetTypeLib@CCmdTarget@@UAEJKPAPAUITypeLib@@@Z
	DD	FLAT:?GetMessageMap@CComboBoxHistoryList@@MBEPBUAFX_MSGMAP@@XZ
	DD	FLAT:?GetCommandMap@CCmdTarget@@MBEPBUAFX_OLECMDMAP@@XZ
	DD	FLAT:?GetDispatchMap@CCmdTarget@@MBEPBUAFX_DISPMAP@@XZ
	DD	FLAT:?GetConnectionMap@CCmdTarget@@MBEPBUAFX_CONNECTIONMAP@@XZ
	DD	FLAT:?GetInterfaceMap@CWnd@@MBEPBUAFX_INTERFACEMAP@@XZ
	DD	FLAT:?GetEventSinkMap@CCmdTarget@@MBEPBUAFX_EVENTSINKMAP@@XZ
	DD	FLAT:?OnCreateAggregates@CCmdTarget@@UAEHXZ
	DD	FLAT:?GetInterfaceHook@CCmdTarget@@UAEPAUIUnknown@@PBX@Z
	DD	FLAT:?GetExtraConnectionPoints@CCmdTarget@@MAEHPAVCPtrArray@@@Z
	DD	FLAT:?GetConnectionHook@CCmdTarget@@MAEPAUIConnectionPoint@@ABU_GUID@@@Z
	DD	FLAT:?PreSubclassWindow@CWnd@@UAEXXZ
	DD	FLAT:?Create@CWnd@@UAEHPBD0KABUtagRECT@@PAV1@IPAUCCreateContext@@@Z
	DD	FLAT:?CreateEx@CWnd@@UAEHKPBD0KABUtagRECT@@PAV1@IPAX@Z
	DD	FLAT:?CreateEx@CWnd@@UAEHKPBD0KHHHHPAUHWND__@@PAUHMENU__@@PAX@Z
	DD	FLAT:?DestroyWindow@CWnd@@UAEHXZ
	DD	FLAT:?PreCreateWindow@CWnd@@UAEHAAUtagCREATESTRUCTA@@@Z
	DD	FLAT:?CalcWindowRect@CWnd@@UAEXPAUtagRECT@@I@Z
	DD	FLAT:?OnToolHitTest@CWnd@@UBEHVCPoint@@PAUtagTOOLINFOA@@@Z
	DD	FLAT:?GetScrollBarCtrl@CWnd@@UBEPAVCScrollBar@@H@Z
	DD	FLAT:?WinHelpA@CWnd@@UAEXKI@Z
	DD	FLAT:?HtmlHelpA@CWnd@@UAEXKI@Z
	DD	FLAT:?WinHelpInternal@CWnd@@UAEXKI@Z
	DD	FLAT:?ContinueModal@CWnd@@UAEHXZ
	DD	FLAT:?EndModalLoop@CWnd@@UAEXH@Z
	DD	FLAT:?EnsureStdObj@CWnd@@UAEJXZ
	DD	FLAT:?get_accParent@CWnd@@UAEJPAPAUIDispatch@@@Z
	DD	FLAT:?get_accChildCount@CWnd@@UAEJPAJ@Z
	DD	FLAT:?get_accChild@CWnd@@UAEJUtagVARIANT@@PAPAUIDispatch@@@Z
	DD	FLAT:?get_accName@CWnd@@UAEJUtagVARIANT@@PAPA_W@Z
	DD	FLAT:?get_accValue@CWnd@@UAEJUtagVARIANT@@PAPA_W@Z
	DD	FLAT:?get_accDescription@CWnd@@UAEJUtagVARIANT@@PAPA_W@Z
	DD	FLAT:?get_accRole@CWnd@@UAEJUtagVARIANT@@PAU2@@Z
	DD	FLAT:?get_accState@CWnd@@UAEJUtagVARIANT@@PAU2@@Z
	DD	FLAT:?get_accHelp@CWnd@@UAEJUtagVARIANT@@PAPA_W@Z
	DD	FLAT:?get_accHelpTopic@CWnd@@UAEJPAPA_WUtagVARIANT@@PAJ@Z
	DD	FLAT:?get_accKeyboardShortcut@CWnd@@UAEJUtagVARIANT@@PAPA_W@Z
	DD	FLAT:?get_accFocus@CWnd@@UAEJPAUtagVARIANT@@@Z
	DD	FLAT:?get_accSelection@CWnd@@UAEJPAUtagVARIANT@@@Z
	DD	FLAT:?get_accDefaultAction@CWnd@@UAEJUtagVARIANT@@PAPA_W@Z
	DD	FLAT:?accSelect@CWnd@@UAEJJUtagVARIANT@@@Z
	DD	FLAT:?accLocation@CWnd@@UAEJPAJ000UtagVARIANT@@@Z
	DD	FLAT:?accNavigate@CWnd@@UAEJJUtagVARIANT@@PAU2@@Z
	DD	FLAT:?accHitTest@CWnd@@UAEJJJPAUtagVARIANT@@@Z
	DD	FLAT:?accDoDefaultAction@CWnd@@UAEJUtagVARIANT@@@Z
	DD	FLAT:?put_accName@CWnd@@UAEJUtagVARIANT@@PA_W@Z
	DD	FLAT:?put_accValue@CWnd@@UAEJUtagVARIANT@@PA_W@Z
	DD	FLAT:?SetProxy@CWnd@@UAEJPAUIAccessibleProxy@@@Z
	DD	FLAT:?CreateAccessibleProxy@CWnd@@UAEJIJPAJ@Z
	DD	FLAT:?OnCommand@CWnd@@MAEHIJ@Z
	DD	FLAT:?OnNotify@CWnd@@MAEHIJPAJ@Z
	DD	FLAT:?GetSuperWndProcAddr@CWnd@@MAEPAP6GJPAUHWND__@@IIJ@ZXZ
	DD	FLAT:?DoDataExchange@CWnd@@MAEXPAVCDataExchange@@@Z
	DD	FLAT:?BeginModalState@CWnd@@UAEXXZ
	DD	FLAT:?EndModalState@CWnd@@UAEXXZ
	DD	FLAT:?PreTranslateMessage@CWnd@@UAEHPAUtagMSG@@@Z
	DD	FLAT:?OnAmbientProperty@CWnd@@UAEHPAVCOleControlSite@@JPAUtagVARIANT@@@Z
	DD	FLAT:?WindowProc@CWnd@@MAEJIIJ@Z
	DD	FLAT:?OnWndMsg@CWnd@@MAEHIIJPAJ@Z
	DD	FLAT:?DefWindowProcA@CWnd@@MAEJIIJ@Z
	DD	FLAT:?PostNcDestroy@CWnd@@MAEXXZ
	DD	FLAT:?OnChildNotify@CListCtrl@@MAEHIIJPAJ@Z
	DD	FLAT:?CheckAutoCenter@CWnd@@UAEHXZ
	DD	FLAT:?IsFrameWnd@CWnd@@UBEHXZ
	DD	FLAT:?CreateControlContainer@CWnd@@MAEHPAPAVCOleControlContainer@@@Z
	DD	FLAT:?CreateControlSite@CWnd@@MAEHPAVCOleControlContainer@@PAPAVCOleControlSite@@IABU_GUID@@@Z
	DD	FLAT:?SetOccDialogInfo@CWnd@@MAEHPAU_AFX_OCC_DIALOG_INFO@@@Z
	DD	FLAT:?Create@CListCtrl@@UAEHKABUtagRECT@@PAVCWnd@@I@Z
	DD	FLAT:?CreateEx@CListCtrl@@UAEHKKABUtagRECT@@PAVCWnd@@I@Z
	DD	FLAT:?DrawItem@CListCtrl@@UAEXPAUtagDRAWITEMSTRUCT@@@Z
CONST	ENDS
;	COMDAT ??_R4CComboBoxHistoryList@@6B@
rdata$r	SEGMENT
??_R4CComboBoxHistoryList@@6B@ DD 00H			; CComboBoxHistoryList::`RTTI Complete Object Locator'
	DD	00H
	DD	00H
	DD	FLAT:??_R0?AVCComboBoxHistoryList@@@8
	DD	FLAT:??_R3CComboBoxHistoryList@@8
rdata$r	ENDS
;	COMDAT ??_R0?AVCComboBoxHistoryList@@@8
_DATA	SEGMENT
??_R0?AVCComboBoxHistoryList@@@8 DD FLAT:??_7type_info@@6B@ ; CComboBoxHistoryList `RTTI Type Descriptor'
	DD	00H
	DB	'.?AVCComboBoxHistoryList@@', 00H
_DATA	ENDS
;	COMDAT ??_R3CComboBoxHistoryList@@8
rdata$r	SEGMENT
??_R3CComboBoxHistoryList@@8 DD 00H			; CComboBoxHistoryList::`RTTI Class Hierarchy Descriptor'
	DD	00H
	DD	05H
	DD	FLAT:??_R2CComboBoxHistoryList@@8
rdata$r	ENDS
;	COMDAT ??_R2CComboBoxHistoryList@@8
rdata$r	SEGMENT
??_R2CComboBoxHistoryList@@8 DD FLAT:??_R1A@?0A@A@CComboBoxHistoryList@@8 ; CComboBoxHistoryList::`RTTI Base Class Array'
	DD	FLAT:??_R1A@?0A@A@CListCtrl@@8
	DD	FLAT:??_R1A@?0A@A@CWnd@@8
	DD	FLAT:??_R1A@?0A@A@CCmdTarget@@8
	DD	FLAT:??_R1A@?0A@A@CObject@@8
rdata$r	ENDS
;	COMDAT ??_R1A@?0A@A@CComboBoxHistoryList@@8
rdata$r	SEGMENT
??_R1A@?0A@A@CComboBoxHistoryList@@8 DD FLAT:??_R0?AVCComboBoxHistoryList@@@8 ; CComboBoxHistoryList::`RTTI Base Class Descriptor at (0,-1,0,0)'
	DD	04H
	DD	00H
	DD	0ffffffffH
	DD	00H
	DD	00H
rdata$r	ENDS
;	COMDAT ??_R1A@?0A@A@CListCtrl@@8
rdata$r	SEGMENT
??_R1A@?0A@A@CListCtrl@@8 DD FLAT:??_R0?AVCListCtrl@@@8	; CListCtrl::`RTTI Base Class Descriptor at (0,-1,0,0)'
	DD	03H
	DD	00H
	DD	0ffffffffH
	DD	00H
	DD	00H
rdata$r	ENDS
;	COMDAT ??_R0?AVCListCtrl@@@8
_DATA	SEGMENT
??_R0?AVCListCtrl@@@8 DD FLAT:??_7type_info@@6B@	; CListCtrl `RTTI Type Descriptor'
	DD	00H
	DB	'.?AVCListCtrl@@', 00H
; Function compile flags: /Odt /RTCsu
_DATA	ENDS
_TEXT	SEGMENT
_this$ = -4						; size = 4
??0CComboBoxHistoryList@@QAE@XZ PROC NEAR		; CComboBoxHistoryList::CComboBoxHistoryList
; _this$ = ecx

; 110  : {

  00460	55		 push	 ebp
  00461	8b ec		 mov	 ebp, esp
  00463	51		 push	 ecx
  00464	c7 45 fc cc cc
	cc cc		 mov	 DWORD PTR [ebp-4], -858993460 ; ccccccccH
  0046b	89 4d fc	 mov	 DWORD PTR _this$[ebp], ecx
  0046e	8b 4d fc	 mov	 ecx, DWORD PTR _this$[ebp]
  00471	e8 00 00 00 00	 call	 ??0CListCtrl@@QAE@XZ	; CListCtrl::CListCtrl
  00476	8b 45 fc	 mov	 eax, DWORD PTR _this$[ebp]
  00479	c7 00 00 00 00
	00		 mov	 DWORD PTR [eax], OFFSET FLAT:??_7CComboBoxHistoryList@@6B@
  0047f	8b 4d fc	 mov	 ecx, DWORD PTR _this$[ebp]
  00482	c7 41 58 ff ff
	ff 00		 mov	 DWORD PTR [ecx+88], 16777215 ; 00ffffffH
  00489	8b 55 fc	 mov	 edx, DWORD PTR _this$[ebp]
  0048c	c7 42 5c 00 00
	00 00		 mov	 DWORD PTR [edx+92], 0
  00493	8b 45 fc	 mov	 eax, DWORD PTR _this$[ebp]
  00496	c7 40 60 31 6a
	c5 00		 mov	 DWORD PTR [eax+96], 12937777 ; 00c56a31H
  0049d	8b 4d fc	 mov	 ecx, DWORD PTR _this$[ebp]
  004a0	c7 41 64 00 00
	00 00		 mov	 DWORD PTR [ecx+100], 0
  004a7	8b 55 fc	 mov	 edx, DWORD PTR _this$[ebp]
  004aa	c7 42 68 00 00
	00 00		 mov	 DWORD PTR [edx+104], 0
  004b1	8b 45 fc	 mov	 eax, DWORD PTR _this$[ebp]
  004b4	c7 40 6c 00 00
	00 00		 mov	 DWORD PTR [eax+108], 0

; 111  : }

  004bb	8b 45 fc	 mov	 eax, DWORD PTR _this$[ebp]
  004be	83 c4 04	 add	 esp, 4
  004c1	3b ec		 cmp	 ebp, esp
  004c3	e8 00 00 00 00	 call	 __RTC_CheckEsp
  004c8	8b e5		 mov	 esp, ebp
  004ca	5d		 pop	 ebp
  004cb	c3		 ret	 0
??0CComboBoxHistoryList@@QAE@XZ ENDP			; CComboBoxHistoryList::CComboBoxHistoryList
_TEXT	ENDS
PUBLIC	??1CComboBoxHistoryList@@UAE@XZ			; CComboBoxHistoryList::~CComboBoxHistoryList
; Function compile flags: /Odt /RTCsu
;	COMDAT ??_GCComboBoxHistoryList@@UAEPAXI@Z
_TEXT	SEGMENT
_this$ = -4						; size = 4
___flags$ = 8						; size = 4
??_GCComboBoxHistoryList@@UAEPAXI@Z PROC NEAR		; CComboBoxHistoryList::`scalar deleting destructor', COMDAT
; _this$ = ecx
  00000	55		 push	 ebp
  00001	8b ec		 mov	 ebp, esp
  00003	51		 push	 ecx
  00004	c7 45 fc cc cc
	cc cc		 mov	 DWORD PTR [ebp-4], -858993460 ; ccccccccH
  0000b	89 4d fc	 mov	 DWORD PTR _this$[ebp], ecx
  0000e	8b 4d fc	 mov	 ecx, DWORD PTR _this$[ebp]
  00011	e8 00 00 00 00	 call	 ??1CComboBoxHistoryList@@UAE@XZ ; CComboBoxHistoryList::~CComboBoxHistoryList
  00016	8b 45 08	 mov	 eax, DWORD PTR ___flags$[ebp]
  00019	83 e0 01	 and	 eax, 1
  0001c	74 09		 je	 SHORT $L187978
  0001e	8b 4d fc	 mov	 ecx, DWORD PTR _this$[ebp]
  00021	51		 push	 ecx
  00022	e8 00 00 00 00	 call	 ??3CObject@@SGXPAX@Z	; CObject::operator delete
$L187978:
  00027	8b 45 fc	 mov	 eax, DWORD PTR _this$[ebp]
  0002a	83 c4 04	 add	 esp, 4
  0002d	3b ec		 cmp	 ebp, esp
  0002f	e8 00 00 00 00	 call	 __RTC_CheckEsp
  00034	8b e5		 mov	 esp, ebp
  00036	5d		 pop	 ebp
  00037	c2 04 00	 ret	 4
??_GCComboBoxHistoryList@@UAEPAXI@Z ENDP		; CComboBoxHistoryList::`scalar deleting destructor'
_TEXT	ENDS
EXTRN	??1CListCtrl@@UAE@XZ:NEAR			; CListCtrl::~CListCtrl
; Function compile flags: /Odt /RTCsu
_TEXT	SEGMENT
_this$ = -4						; size = 4
??1CComboBoxHistoryList@@UAE@XZ PROC NEAR		; CComboBoxHistoryList::~CComboBoxHistoryList
; _this$ = ecx

; 114  : {

  004d0	55		 push	 ebp
  004d1	8b ec		 mov	 ebp, esp
  004d3	51		 push	 ecx
  004d4	c7 45 fc cc cc
	cc cc		 mov	 DWORD PTR [ebp-4], -858993460 ; ccccccccH
  004db	89 4d fc	 mov	 DWORD PTR _this$[ebp], ecx
  004de	8b 45 fc	 mov	 eax, DWORD PTR _this$[ebp]
  004e1	c7 00 00 00 00
	00		 mov	 DWORD PTR [eax], OFFSET FLAT:??_7CComboBoxHistoryList@@6B@

; 115  : 
; 116  : }

  004e7	8b 4d fc	 mov	 ecx, DWORD PTR _this$[ebp]
  004ea	e8 00 00 00 00	 call	 ??1CListCtrl@@UAE@XZ	; CListCtrl::~CListCtrl
  004ef	83 c4 04	 add	 esp, 4
  004f2	3b ec		 cmp	 ebp, esp
  004f4	e8 00 00 00 00	 call	 __RTC_CheckEsp
  004f9	8b e5		 mov	 esp, ebp
  004fb	5d		 pop	 ebp
  004fc	c3		 ret	 0
??1CComboBoxHistoryList@@UAE@XZ ENDP			; CComboBoxHistoryList::~CComboBoxHistoryList
_TEXT	ENDS
PUBLIC	?GetThisMessageMap@CComboBoxHistoryList@@KGPBUAFX_MSGMAP@@XZ ; CComboBoxHistoryList::GetThisMessageMap
; Function compile flags: /Odt /RTCsu
_TEXT	SEGMENT
?GetThisMessageMap@CComboBoxHistoryList@@KGPBUAFX_MSGMAP@@XZ PROC NEAR ; CComboBoxHistoryList::GetThisMessageMap

; 118  : BEGIN_MESSAGE_MAP(CComboBoxHistoryList, CListCtrl)

  00500	55		 push	 ebp
  00501	8b ec		 mov	 ebp, esp
  00503	b8 00 00 00 00	 mov	 eax, OFFSET FLAT:?messageMap@CComboBoxHistoryList@@1UAFX_MSGMAP@@B ; CComboBoxHistoryList::messageMap
  00508	5d		 pop	 ebp
  00509	c3		 ret	 0
?GetThisMessageMap@CComboBoxHistoryList@@KGPBUAFX_MSGMAP@@XZ ENDP ; CComboBoxHistoryList::GetThisMessageMap
; Function compile flags: /Odt /RTCsu
_this$ = -4						; size = 4
?GetMessageMap@CComboBoxHistoryList@@MBEPBUAFX_MSGMAP@@XZ PROC NEAR ; CComboBoxHistoryList::GetMessageMap
; _this$ = ecx

; 118  : BEGIN_MESSAGE_MAP(CComboBoxHistoryList, CListCtrl)

  00510	55		 push	 ebp
  00511	8b ec		 mov	 ebp, esp
  00513	51		 push	 ecx
  00514	c7 45 fc cc cc
	cc cc		 mov	 DWORD PTR [ebp-4], -858993460 ; ccccccccH
  0051b	89 4d fc	 mov	 DWORD PTR _this$[ebp], ecx
  0051e	b8 00 00 00 00	 mov	 eax, OFFSET FLAT:?messageMap@CComboBoxHistoryList@@1UAFX_MSGMAP@@B ; CComboBoxHistoryList::messageMap
  00523	8b e5		 mov	 esp, ebp
  00525	5d		 pop	 ebp
  00526	c3		 ret	 0
?GetMessageMap@CComboBoxHistoryList@@MBEPBUAFX_MSGMAP@@XZ ENDP ; CComboBoxHistoryList::GetMessageMap
_TEXT	ENDS
PUBLIC	?SetSkin@CComboBoxHistoryList@@QAEXAAK00PAVCDibBitmap@@1@Z ; CComboBoxHistoryList::SetSkin
; Function compile flags: /Odt /RTCsu
_TEXT	SEGMENT
_this$ = -4						; size = 4
_colorBkg$ = 8						; size = 4
_colorText$ = 12					; size = 4
_colorSelect$ = 16					; size = 4
_pBitmapVert$ = 20					; size = 4
_pBitmapHorz$ = 24					; size = 4
?SetSkin@CComboBoxHistoryList@@QAEXAAK00PAVCDibBitmap@@1@Z PROC NEAR ; CComboBoxHistoryList::SetSkin
; _this$ = ecx

; 130  : {

  00530	55		 push	 ebp
  00531	8b ec		 mov	 ebp, esp
  00533	51		 push	 ecx
  00534	c7 45 fc cc cc
	cc cc		 mov	 DWORD PTR [ebp-4], -858993460 ; ccccccccH
  0053b	89 4d fc	 mov	 DWORD PTR _this$[ebp], ecx

; 131  : 	m_colorBkg=colorBkg;

  0053e	8b 45 fc	 mov	 eax, DWORD PTR _this$[ebp]
  00541	8b 4d 08	 mov	 ecx, DWORD PTR _colorBkg$[ebp]
  00544	8b 11		 mov	 edx, DWORD PTR [ecx]
  00546	89 50 58	 mov	 DWORD PTR [eax+88], edx

; 132  : 	m_colorText=colorText;

  00549	8b 45 fc	 mov	 eax, DWORD PTR _this$[ebp]
  0054c	8b 4d 0c	 mov	 ecx, DWORD PTR _colorText$[ebp]
  0054f	8b 11		 mov	 edx, DWORD PTR [ecx]
  00551	89 50 5c	 mov	 DWORD PTR [eax+92], edx

; 133  : 	m_colorSelect=colorSelect;

  00554	8b 45 fc	 mov	 eax, DWORD PTR _this$[ebp]
  00557	8b 4d 10	 mov	 ecx, DWORD PTR _colorSelect$[ebp]
  0055a	8b 11		 mov	 edx, DWORD PTR [ecx]
  0055c	89 50 60	 mov	 DWORD PTR [eax+96], edx

; 134  : 	m_pBitmapScrollHorz = pBitmapHorz;

  0055f	8b 45 fc	 mov	 eax, DWORD PTR _this$[ebp]
  00562	8b 4d 18	 mov	 ecx, DWORD PTR _pBitmapHorz$[ebp]
  00565	89 48 6c	 mov	 DWORD PTR [eax+108], ecx

; 135  : 	m_pBitmapScrollVert = pBitmapVert;

  00568	8b 55 fc	 mov	 edx, DWORD PTR _this$[ebp]
  0056b	8b 45 14	 mov	 eax, DWORD PTR _pBitmapVert$[ebp]
  0056e	89 42 68	 mov	 DWORD PTR [edx+104], eax

; 136  : }

  00571	8b e5		 mov	 esp, ebp
  00573	5d		 pop	 ebp
  00574	c2 14 00	 ret	 20			; 00000014H
?SetSkin@CComboBoxHistoryList@@QAEXAAK00PAVCDibBitmap@@1@Z ENDP ; CComboBoxHistoryList::SetSkin
_TEXT	ENDS
EXTRN	?DrawTextA@CDC@@QAEHABV?$CStringT@DV?$StrTraitMFC_DLL@DV?$ChTraitsCRT@D@ATL@@@@@ATL@@PAUtagRECT@@I@Z:NEAR ; CDC::DrawTextA
EXTRN	?GetTextExtent@CDC@@QBE?AVCSize@@ABV?$CStringT@DV?$StrTraitMFC_DLL@DV?$ChTraitsCRT@D@ATL@@@@@ATL@@@Z:NEAR ; CDC::GetTextExtent
EXTRN	??0CSize@@QAE@XZ:NEAR				; CSize::CSize
EXTRN	?FromHandle@CDC@@SGPAV1@PAUHDC__@@@Z:NEAR	; CDC::FromHandle
EXTRN	__imp_??4?$CStringT@DV?$StrTraitMFC_DLL@DV?$ChTraitsCRT@D@ATL@@@@@ATL@@QAEAAV01@ABV01@@Z:NEAR
EXTRN	?GetFirstSelectedItemPosition@CListCtrl@@QBEPAU__POSITION@@XZ:NEAR ; CListCtrl::GetFirstSelectedItemPosition
EXTRN	?GetNextSelectedItem@CListCtrl@@QBEHAAPAU__POSITION@@@Z:NEAR ; CListCtrl::GetNextSelectedItem
EXTRN	?GetItemText@CListCtrl@@QBE?AV?$CStringT@DV?$StrTraitMFC_DLL@DV?$ChTraitsCRT@D@ATL@@@@@ATL@@HH@Z:NEAR ; CListCtrl::GetItemText
EXTRN	?GetSubItemRect@CListCtrl@@QAEHHHHAAVCRect@@@Z:NEAR ; CListCtrl::GetSubItemRect
xdata$x	SEGMENT
$T189745 DD	0ffffffffH
	DD	FLAT:$L189734
	DD	00H
	DD	FLAT:$L189735
$T189737 DD	019930520H
	DD	02H
	DD	FLAT:$T189745
	DD	2 DUP(00H)
	DD	2 DUP(00H)
; Function compile flags: /Odt /RTCsu
xdata$x	ENDS
_TEXT	SEGMENT
tv163 = -124						; size = 4
tv165 = -120						; size = 4
tv65 = -116						; size = 4
$T189733 = -112						; size = 8
$T189732 = -104						; size = 4
_msize$188060 = -96					; size = 8
_nFormat$188058 = -84					; size = 4
_rect$188057 = -76					; size = 16
_str$188056 = -52					; size = 4
_pDC$188055 = -44					; size = 4
_pos$188053 = -36					; size = 4
_nsubitem$188052 = -28					; size = 4
_nitem$188050 = -24					; size = 4
_lplvcd$ = -20						; size = 4
_this$ = -16						; size = 4
__$EHRec$ = -12						; size = 12
_pNMHDR$ = 8						; size = 4
_pResult$ = 12						; size = 4
?OnNMCustomdraw@CComboBoxHistoryList@@IAEXPAUtagNMHDR@@PAJ@Z PROC NEAR ; CComboBoxHistoryList::OnNMCustomdraw
; _this$ = ecx

; 139  : {

  00580	55		 push	 ebp
  00581	8b ec		 mov	 ebp, esp
  00583	6a ff		 push	 -1
  00585	68 00 00 00 00	 push	 __ehhandler$?OnNMCustomdraw@CComboBoxHistoryList@@IAEXPAUtagNMHDR@@PAJ@Z
  0058a	64 a1 00 00 00
	00		 mov	 eax, DWORD PTR fs:__except_list
  00590	50		 push	 eax
  00591	64 89 25 00 00
	00 00		 mov	 DWORD PTR fs:__except_list, esp
  00598	83 ec 70	 sub	 esp, 112		; 00000070H
  0059b	56		 push	 esi
  0059c	57		 push	 edi
  0059d	51		 push	 ecx
  0059e	8d 7d 84	 lea	 edi, DWORD PTR [ebp-124]
  005a1	b9 1c 00 00 00	 mov	 ecx, 28			; 0000001cH
  005a6	b8 cc cc cc cc	 mov	 eax, -858993460		; ccccccccH
  005ab	f3 ab		 rep stosd
  005ad	59		 pop	 ecx
  005ae	89 4d f0	 mov	 DWORD PTR _this$[ebp], ecx

; 140  : 	LPNMLVCUSTOMDRAW   lplvcd   =   (LPNMLVCUSTOMDRAW)pNMHDR;   

  005b1	8b 45 08	 mov	 eax, DWORD PTR _pNMHDR$[ebp]
  005b4	89 45 ec	 mov	 DWORD PTR _lplvcd$[ebp], eax

; 141  : 
; 142  : 	switch(lplvcd->nmcd.dwDrawStage)   

  005b7	8b 4d ec	 mov	 ecx, DWORD PTR _lplvcd$[ebp]
  005ba	8b 51 0c	 mov	 edx, DWORD PTR [ecx+12]
  005bd	89 55 8c	 mov	 DWORD PTR tv65[ebp], edx
  005c0	83 7d 8c 01	 cmp	 DWORD PTR tv65[ebp], 1
  005c4	74 17		 je	 SHORT $L188047
  005c6	81 7d 8c 01 00
	01 00		 cmp	 DWORD PTR tv65[ebp], 65537 ; 00010001H
  005cd	74 1c		 je	 SHORT $L188048
  005cf	81 7d 8c 01 00
	03 00		 cmp	 DWORD PTR tv65[ebp], 196609 ; 00030001H
  005d6	74 21		 je	 SHORT $L188049
  005d8	e9 c8 01 00 00	 jmp	 $L188040
$L188047:

; 143  : 	{   
; 144  : 	case CDDS_PREPAINT:   
; 145  : 		*pResult=CDRF_NOTIFYITEMDRAW;   

  005dd	8b 45 0c	 mov	 eax, DWORD PTR _pResult$[ebp]
  005e0	c7 00 20 00 00
	00		 mov	 DWORD PTR [eax], 32	; 00000020H

; 146  : 		break;   

  005e6	e9 ba 01 00 00	 jmp	 $L188040
$L188048:

; 147  : 
; 148  : 	case CDDS_ITEMPREPAINT:   
; 149  : 		*pResult=CDRF_NOTIFYSUBITEMDRAW;   

  005eb	8b 4d 0c	 mov	 ecx, DWORD PTR _pResult$[ebp]
  005ee	c7 01 20 00 00
	00		 mov	 DWORD PTR [ecx], 32	; 00000020H

; 150  : 		break;   

  005f4	e9 ac 01 00 00	 jmp	 $L188040
$L188049:

; 151  : 
; 152  : 	case CDDS_ITEMPREPAINT|CDDS_SUBITEM:   
; 153  : 		{   
; 154  : 			int nitem=static_cast<int>(lplvcd->nmcd.dwItemSpec);   

  005f9	8b 55 ec	 mov	 edx, DWORD PTR _lplvcd$[ebp]
  005fc	8b 42 24	 mov	 eax, DWORD PTR [edx+36]
  005ff	89 45 e8	 mov	 DWORD PTR _nitem$188050[ebp], eax

; 155  : 			int nsubitem=lplvcd->iSubItem;   

  00602	8b 4d ec	 mov	 ecx, DWORD PTR _lplvcd$[ebp]
  00605	8b 51 38	 mov	 edx, DWORD PTR [ecx+56]
  00608	89 55 e4	 mov	 DWORD PTR _nsubitem$188052[ebp], edx

; 156  : 			POSITION pos=GetFirstSelectedItemPosition();   

  0060b	8b 4d f0	 mov	 ecx, DWORD PTR _this$[ebp]
  0060e	e8 00 00 00 00	 call	 ?GetFirstSelectedItemPosition@CListCtrl@@QBEPAU__POSITION@@XZ ; CListCtrl::GetFirstSelectedItemPosition
  00613	89 45 dc	 mov	 DWORD PTR _pos$188053[ebp], eax

; 157  : 			if(nitem==GetNextSelectedItem(pos))

  00616	8d 45 dc	 lea	 eax, DWORD PTR _pos$188053[ebp]
  00619	50		 push	 eax
  0061a	8b 4d f0	 mov	 ecx, DWORD PTR _this$[ebp]
  0061d	e8 00 00 00 00	 call	 ?GetNextSelectedItem@CListCtrl@@QBEHAAPAU__POSITION@@@Z ; CListCtrl::GetNextSelectedItem
  00622	39 45 e8	 cmp	 DWORD PTR _nitem$188050[ebp], eax
  00625	0f 85 59 01 00
	00		 jne	 $L188054

; 158  : 			{ 
; 159  : 				CDC* pDC=CDC::FromHandle(lplvcd->nmcd.hdc);   

  0062b	8b 4d ec	 mov	 ecx, DWORD PTR _lplvcd$[ebp]
  0062e	8b 51 10	 mov	 edx, DWORD PTR [ecx+16]
  00631	52		 push	 edx
  00632	e8 00 00 00 00	 call	 ?FromHandle@CDC@@SGPAV1@PAUHDC__@@@Z ; CDC::FromHandle
  00637	89 45 d4	 mov	 DWORD PTR _pDC$188055[ebp], eax

; 160  : 				CString str;   

  0063a	8b f4		 mov	 esi, esp
  0063c	8d 4d cc	 lea	 ecx, DWORD PTR _str$188056[ebp]
  0063f	ff 15 00 00 00
	00		 call	 DWORD PTR __imp_??0?$CStringT@DV?$StrTraitMFC_DLL@DV?$ChTraitsCRT@D@ATL@@@@@ATL@@QAE@XZ
  00645	3b f4		 cmp	 esi, esp
  00647	e8 00 00 00 00	 call	 __RTC_CheckEsp
  0064c	c7 45 fc 00 00
	00 00		 mov	 DWORD PTR __$EHRec$[ebp+8], 0

; 161  : 				CRect rect;   

  00653	8d 4d b4	 lea	 ecx, DWORD PTR _rect$188057[ebp]
  00656	e8 00 00 00 00	 call	 ??0CRect@@QAE@XZ	; CRect::CRect

; 162  : 				UINT nFormat=DT_VCENTER|DT_SINGLELINE;   

  0065b	c7 45 ac 24 00
	00 00		 mov	 DWORD PTR _nFormat$188058[ebp], 36 ; 00000024H

; 163  : 				GetSubItemRect(nitem,nsubitem,LVIR_BOUNDS,rect);   

  00662	8d 45 b4	 lea	 eax, DWORD PTR _rect$188057[ebp]
  00665	50		 push	 eax
  00666	6a 00		 push	 0
  00668	8b 4d e4	 mov	 ecx, DWORD PTR _nsubitem$188052[ebp]
  0066b	51		 push	 ecx
  0066c	8b 55 e8	 mov	 edx, DWORD PTR _nitem$188050[ebp]
  0066f	52		 push	 edx
  00670	8b 4d f0	 mov	 ecx, DWORD PTR _this$[ebp]
  00673	e8 00 00 00 00	 call	 ?GetSubItemRect@CListCtrl@@QAEHHHHAAVCRect@@@Z ; CListCtrl::GetSubItemRect

; 164  : 				str=GetItemText(nitem,nsubitem);   

  00678	8b 45 e4	 mov	 eax, DWORD PTR _nsubitem$188052[ebp]
  0067b	50		 push	 eax
  0067c	8b 4d e8	 mov	 ecx, DWORD PTR _nitem$188050[ebp]
  0067f	51		 push	 ecx
  00680	8d 55 98	 lea	 edx, DWORD PTR $T189732[ebp]
  00683	52		 push	 edx
  00684	8b 4d f0	 mov	 ecx, DWORD PTR _this$[ebp]
  00687	e8 00 00 00 00	 call	 ?GetItemText@CListCtrl@@QBE?AV?$CStringT@DV?$StrTraitMFC_DLL@DV?$ChTraitsCRT@D@ATL@@@@@ATL@@HH@Z ; CListCtrl::GetItemText
  0068c	89 45 88	 mov	 DWORD PTR tv165[ebp], eax
  0068f	8b 45 88	 mov	 eax, DWORD PTR tv165[ebp]
  00692	89 45 84	 mov	 DWORD PTR tv163[ebp], eax
  00695	c6 45 fc 01	 mov	 BYTE PTR __$EHRec$[ebp+8], 1
  00699	8b f4		 mov	 esi, esp
  0069b	8b 4d 84	 mov	 ecx, DWORD PTR tv163[ebp]
  0069e	51		 push	 ecx
  0069f	8d 4d cc	 lea	 ecx, DWORD PTR _str$188056[ebp]
  006a2	ff 15 00 00 00
	00		 call	 DWORD PTR __imp_??4?$CStringT@DV?$StrTraitMFC_DLL@DV?$ChTraitsCRT@D@ATL@@@@@ATL@@QAEAAV01@ABV01@@Z
  006a8	3b f4		 cmp	 esi, esp
  006aa	e8 00 00 00 00	 call	 __RTC_CheckEsp
  006af	c6 45 fc 00	 mov	 BYTE PTR __$EHRec$[ebp+8], 0
  006b3	8b f4		 mov	 esi, esp
  006b5	8d 4d 98	 lea	 ecx, DWORD PTR $T189732[ebp]
  006b8	ff 15 00 00 00
	00		 call	 DWORD PTR __imp_??1?$CStringT@DV?$StrTraitMFC_DLL@DV?$ChTraitsCRT@D@ATL@@@@@ATL@@QAE@XZ
  006be	3b f4		 cmp	 esi, esp
  006c0	e8 00 00 00 00	 call	 __RTC_CheckEsp

; 165  : 				pDC->SetTextColor(m_colorBkg);

  006c5	8b f4		 mov	 esi, esp
  006c7	8b 55 f0	 mov	 edx, DWORD PTR _this$[ebp]
  006ca	8b 42 58	 mov	 eax, DWORD PTR [edx+88]
  006cd	50		 push	 eax
  006ce	8b 4d d4	 mov	 ecx, DWORD PTR _pDC$188055[ebp]
  006d1	8b 11		 mov	 edx, DWORD PTR [ecx]
  006d3	8b 4d d4	 mov	 ecx, DWORD PTR _pDC$188055[ebp]
  006d6	ff 52 38	 call	 DWORD PTR [edx+56]
  006d9	3b f4		 cmp	 esi, esp
  006db	e8 00 00 00 00	 call	 __RTC_CheckEsp

; 166  : 				rect.left+=2;

  006e0	8b 45 b4	 mov	 eax, DWORD PTR _rect$188057[ebp]
  006e3	83 c0 02	 add	 eax, 2
  006e6	89 45 b4	 mov	 DWORD PTR _rect$188057[ebp], eax

; 167  : 				rect.right-=1;

  006e9	8b 4d bc	 mov	 ecx, DWORD PTR _rect$188057[ebp+8]
  006ec	83 e9 01	 sub	 ecx, 1
  006ef	89 4d bc	 mov	 DWORD PTR _rect$188057[ebp+8], ecx

; 168  : 				pDC->FillSolidRect(&rect,m_colorSelect);

  006f2	8b 55 f0	 mov	 edx, DWORD PTR _this$[ebp]
  006f5	8b 42 60	 mov	 eax, DWORD PTR [edx+96]
  006f8	50		 push	 eax
  006f9	8d 4d b4	 lea	 ecx, DWORD PTR _rect$188057[ebp]
  006fc	51		 push	 ecx
  006fd	8b 4d d4	 mov	 ecx, DWORD PTR _pDC$188055[ebp]
  00700	e8 00 00 00 00	 call	 ?FillSolidRect@CDC@@QAEXPBUtagRECT@@K@Z ; CDC::FillSolidRect

; 169  : 				pDC->SetBkColor(m_colorBkg);

  00705	8b f4		 mov	 esi, esp
  00707	8b 55 f0	 mov	 edx, DWORD PTR _this$[ebp]
  0070a	8b 42 58	 mov	 eax, DWORD PTR [edx+88]
  0070d	50		 push	 eax
  0070e	8b 4d d4	 mov	 ecx, DWORD PTR _pDC$188055[ebp]
  00711	8b 11		 mov	 edx, DWORD PTR [ecx]
  00713	8b 4d d4	 mov	 ecx, DWORD PTR _pDC$188055[ebp]
  00716	ff 52 34	 call	 DWORD PTR [edx+52]
  00719	3b f4		 cmp	 esi, esp
  0071b	e8 00 00 00 00	 call	 __RTC_CheckEsp

; 170  : 				rect.left+=2;

  00720	8b 45 b4	 mov	 eax, DWORD PTR _rect$188057[ebp]
  00723	83 c0 02	 add	 eax, 2
  00726	89 45 b4	 mov	 DWORD PTR _rect$188057[ebp], eax

; 171  : 				CSize msize;   

  00729	8d 4d a0	 lea	 ecx, DWORD PTR _msize$188060[ebp]
  0072c	e8 00 00 00 00	 call	 ??0CSize@@QAE@XZ	; CSize::CSize

; 172  : 				msize=pDC->GetTextExtent(str);	   

  00731	8d 4d cc	 lea	 ecx, DWORD PTR _str$188056[ebp]
  00734	51		 push	 ecx
  00735	8d 55 90	 lea	 edx, DWORD PTR $T189733[ebp]
  00738	52		 push	 edx
  00739	8b 4d d4	 mov	 ecx, DWORD PTR _pDC$188055[ebp]
  0073c	e8 00 00 00 00	 call	 ?GetTextExtent@CDC@@QBE?AVCSize@@ABV?$CStringT@DV?$StrTraitMFC_DLL@DV?$ChTraitsCRT@D@ATL@@@@@ATL@@@Z ; CDC::GetTextExtent
  00741	8b 08		 mov	 ecx, DWORD PTR [eax]
  00743	8b 50 04	 mov	 edx, DWORD PTR [eax+4]
  00746	89 4d a0	 mov	 DWORD PTR _msize$188060[ebp], ecx
  00749	89 55 a4	 mov	 DWORD PTR _msize$188060[ebp+4], edx

; 173  : 				pDC->DrawText(str,&rect,nFormat);

  0074c	8b 45 ac	 mov	 eax, DWORD PTR _nFormat$188058[ebp]
  0074f	50		 push	 eax
  00750	8d 4d b4	 lea	 ecx, DWORD PTR _rect$188057[ebp]
  00753	51		 push	 ecx
  00754	8d 55 cc	 lea	 edx, DWORD PTR _str$188056[ebp]
  00757	52		 push	 edx
  00758	8b 4d d4	 mov	 ecx, DWORD PTR _pDC$188055[ebp]
  0075b	e8 00 00 00 00	 call	 ?DrawTextA@CDC@@QAEHABV?$CStringT@DV?$StrTraitMFC_DLL@DV?$ChTraitsCRT@D@ATL@@@@@ATL@@PAUtagRECT@@I@Z ; CDC::DrawTextA

; 174  : 
; 175  : 				*pResult=CDRF_SKIPDEFAULT;

  00760	8b 45 0c	 mov	 eax, DWORD PTR _pResult$[ebp]
  00763	c7 00 04 00 00
	00		 mov	 DWORD PTR [eax], 4

; 176  : 
; 177  : 			}  

  00769	c7 45 fc ff ff
	ff ff		 mov	 DWORD PTR __$EHRec$[ebp+8], -1
  00770	8b f4		 mov	 esi, esp
  00772	8d 4d cc	 lea	 ecx, DWORD PTR _str$188056[ebp]
  00775	ff 15 00 00 00
	00		 call	 DWORD PTR __imp_??1?$CStringT@DV?$StrTraitMFC_DLL@DV?$ChTraitsCRT@D@ATL@@@@@ATL@@QAE@XZ
  0077b	3b f4		 cmp	 esi, esp
  0077d	e8 00 00 00 00	 call	 __RTC_CheckEsp

; 178  : 			else

  00782	eb 21		 jmp	 SHORT $L188040
$L188054:

; 179  : 			{
; 180  : 				lplvcd->clrTextBk=m_colorBkg;

  00784	8b 4d ec	 mov	 ecx, DWORD PTR _lplvcd$[ebp]
  00787	8b 55 f0	 mov	 edx, DWORD PTR _this$[ebp]
  0078a	8b 42 58	 mov	 eax, DWORD PTR [edx+88]
  0078d	89 41 34	 mov	 DWORD PTR [ecx+52], eax

; 181  : 				lplvcd->clrText=m_colorText;

  00790	8b 4d ec	 mov	 ecx, DWORD PTR _lplvcd$[ebp]
  00793	8b 55 f0	 mov	 edx, DWORD PTR _this$[ebp]
  00796	8b 42 5c	 mov	 eax, DWORD PTR [edx+92]
  00799	89 41 30	 mov	 DWORD PTR [ecx+48], eax

; 182  : 				*pResult=CDRF_DODEFAULT;   

  0079c	8b 4d 0c	 mov	 ecx, DWORD PTR _pResult$[ebp]
  0079f	c7 01 00 00 00
	00		 mov	 DWORD PTR [ecx], 0
$L188040:

; 183  : 			}
; 184  : 			break;   
; 185  : 		}
; 186  : 	}
; 187  : }

  007a5	52		 push	 edx
  007a6	8b cd		 mov	 ecx, ebp
  007a8	50		 push	 eax
  007a9	8d 15 00 00 00
	00		 lea	 edx, DWORD PTR $L189744
  007af	e8 00 00 00 00	 call	 @_RTC_CheckStackVars@8
  007b4	58		 pop	 eax
  007b5	5a		 pop	 edx
  007b6	8b 4d f4	 mov	 ecx, DWORD PTR __$EHRec$[ebp]
  007b9	64 89 0d 00 00
	00 00		 mov	 DWORD PTR fs:__except_list, ecx
  007c0	5f		 pop	 edi
  007c1	5e		 pop	 esi
  007c2	83 c4 7c	 add	 esp, 124		; 0000007cH
  007c5	3b ec		 cmp	 ebp, esp
  007c7	e8 00 00 00 00	 call	 __RTC_CheckEsp
  007cc	8b e5		 mov	 esp, ebp
  007ce	5d		 pop	 ebp
  007cf	c2 08 00	 ret	 8
$L189744:
  007d2	04 00 00 00	 DD	 4
  007d6	00 00 00 00	 DD	 $L189743
$L189743:
  007da	dc ff ff ff	 DD	 -36			; ffffffdcH
  007de	04 00 00 00	 DD	 4
  007e2	00 00 00 00	 DD	 $L189738
  007e6	cc ff ff ff	 DD	 -52			; ffffffccH
  007ea	04 00 00 00	 DD	 4
  007ee	00 00 00 00	 DD	 $L189739
  007f2	b4 ff ff ff	 DD	 -76			; ffffffb4H
  007f6	10 00 00 00	 DD	 16			; 00000010H
  007fa	00 00 00 00	 DD	 $L189740
  007fe	a0 ff ff ff	 DD	 -96			; ffffffa0H
  00802	08 00 00 00	 DD	 8
  00806	00 00 00 00	 DD	 $L189741
$L189741:
  0080a	6d		 DB	 109			; 0000006dH
  0080b	73		 DB	 115			; 00000073H
  0080c	69		 DB	 105			; 00000069H
  0080d	7a		 DB	 122			; 0000007aH
  0080e	65		 DB	 101			; 00000065H
  0080f	00		 DB	 0
$L189740:
  00810	72		 DB	 114			; 00000072H
  00811	65		 DB	 101			; 00000065H
  00812	63		 DB	 99			; 00000063H
  00813	74		 DB	 116			; 00000074H
  00814	00		 DB	 0
$L189739:
  00815	73		 DB	 115			; 00000073H
  00816	74		 DB	 116			; 00000074H
  00817	72		 DB	 114			; 00000072H
  00818	00		 DB	 0
$L189738:
  00819	70		 DB	 112			; 00000070H
  0081a	6f		 DB	 111			; 0000006fH
  0081b	73		 DB	 115			; 00000073H
  0081c	00		 DB	 0
_TEXT	ENDS
text$x	SEGMENT
$L189734:
  00027	8b f4		 mov	 esi, esp
  00029	8d 4d cc	 lea	 ecx, DWORD PTR _str$188056[ebp]
  0002c	ff 15 00 00 00
	00		 call	 DWORD PTR __imp_??1?$CStringT@DV?$StrTraitMFC_DLL@DV?$ChTraitsCRT@D@ATL@@@@@ATL@@QAE@XZ
  00032	3b f4		 cmp	 esi, esp
  00034	e9 00 00 00 00	 jmp	 __RTC_CheckEsp
$L189735:
  00039	8b f4		 mov	 esi, esp
  0003b	8d 4d 98	 lea	 ecx, DWORD PTR $T189732[ebp]
  0003e	ff 15 00 00 00
	00		 call	 DWORD PTR __imp_??1?$CStringT@DV?$StrTraitMFC_DLL@DV?$ChTraitsCRT@D@ATL@@@@@ATL@@QAE@XZ
  00044	3b f4		 cmp	 esi, esp
  00046	e9 00 00 00 00	 jmp	 __RTC_CheckEsp
__ehhandler$?OnNMCustomdraw@CComboBoxHistoryList@@IAEXPAUtagNMHDR@@PAJ@Z:
  0004b	b8 00 00 00 00	 mov	 eax, OFFSET FLAT:$T189737
  00050	e9 00 00 00 00	 jmp	 ___CxxFrameHandler
text$x	ENDS
?OnNMCustomdraw@CComboBoxHistoryList@@IAEXPAUtagNMHDR@@PAJ@Z ENDP ; CComboBoxHistoryList::OnNMCustomdraw
; Function compile flags: /Odt /RTCsu
_TEXT	SEGMENT
_rectList$ = -24					; size = 16
_this$ = -4						; size = 4
_pDC$ = 8						; size = 4
?OnEraseBkgnd@CComboBoxHistoryList@@IAEHPAVCDC@@@Z PROC NEAR ; CComboBoxHistoryList::OnEraseBkgnd
; _this$ = ecx

; 191  : {

  00820	55		 push	 ebp
  00821	8b ec		 mov	 ebp, esp
  00823	83 ec 1c	 sub	 esp, 28			; 0000001cH
  00826	b8 cc cc cc cc	 mov	 eax, -858993460		; ccccccccH
  0082b	89 45 e4	 mov	 DWORD PTR [ebp-28], eax
  0082e	89 45 e8	 mov	 DWORD PTR [ebp-24], eax
  00831	89 45 ec	 mov	 DWORD PTR [ebp-20], eax
  00834	89 45 f0	 mov	 DWORD PTR [ebp-16], eax
  00837	89 45 f4	 mov	 DWORD PTR [ebp-12], eax
  0083a	89 45 f8	 mov	 DWORD PTR [ebp-8], eax
  0083d	89 45 fc	 mov	 DWORD PTR [ebp-4], eax
  00840	89 4d fc	 mov	 DWORD PTR _this$[ebp], ecx

; 192  : 	CRect rectList;

  00843	8d 4d e8	 lea	 ecx, DWORD PTR _rectList$[ebp]
  00846	e8 00 00 00 00	 call	 ??0CRect@@QAE@XZ	; CRect::CRect

; 193  : 	GetClientRect(&rectList);

  0084b	8d 45 e8	 lea	 eax, DWORD PTR _rectList$[ebp]
  0084e	50		 push	 eax
  0084f	8b 4d fc	 mov	 ecx, DWORD PTR _this$[ebp]
  00852	e8 00 00 00 00	 call	 ?GetClientRect@CWnd@@QBEXPAUtagRECT@@@Z ; CWnd::GetClientRect

; 194  : 	pDC->FillSolidRect(&rectList,m_colorBkg);

  00857	8b 4d fc	 mov	 ecx, DWORD PTR _this$[ebp]
  0085a	8b 51 58	 mov	 edx, DWORD PTR [ecx+88]
  0085d	52		 push	 edx
  0085e	8d 45 e8	 lea	 eax, DWORD PTR _rectList$[ebp]
  00861	50		 push	 eax
  00862	8b 4d 08	 mov	 ecx, DWORD PTR _pDC$[ebp]
  00865	e8 00 00 00 00	 call	 ?FillSolidRect@CDC@@QAEXPBUtagRECT@@K@Z ; CDC::FillSolidRect

; 195  : 	return FALSE;

  0086a	33 c0		 xor	 eax, eax

; 196  : }

  0086c	52		 push	 edx
  0086d	8b cd		 mov	 ecx, ebp
  0086f	50		 push	 eax
  00870	8d 15 00 00 00
	00		 lea	 edx, DWORD PTR $L189749
  00876	e8 00 00 00 00	 call	 @_RTC_CheckStackVars@8
  0087b	58		 pop	 eax
  0087c	5a		 pop	 edx
  0087d	83 c4 1c	 add	 esp, 28			; 0000001cH
  00880	3b ec		 cmp	 ebp, esp
  00882	e8 00 00 00 00	 call	 __RTC_CheckEsp
  00887	8b e5		 mov	 esp, ebp
  00889	5d		 pop	 ebp
  0088a	c2 04 00	 ret	 4
$L189749:
  0088d	01 00 00 00	 DD	 1
  00891	00 00 00 00	 DD	 $L189748
$L189748:
  00895	e8 ff ff ff	 DD	 -24			; ffffffe8H
  00899	10 00 00 00	 DD	 16			; 00000010H
  0089d	00 00 00 00	 DD	 $L189747
$L189747:
  008a1	72		 DB	 114			; 00000072H
  008a2	65		 DB	 101			; 00000065H
  008a3	63		 DB	 99			; 00000063H
  008a4	74		 DB	 116			; 00000074H
  008a5	4c		 DB	 76			; 0000004cH
  008a6	69		 DB	 105			; 00000069H
  008a7	73		 DB	 115			; 00000073H
  008a8	74		 DB	 116			; 00000074H
  008a9	00		 DB	 0
?OnEraseBkgnd@CComboBoxHistoryList@@IAEHPAVCDC@@@Z ENDP	; CComboBoxHistoryList::OnEraseBkgnd
_TEXT	ENDS
EXTRN	??0CPoint@@QAE@XZ:NEAR				; CPoint::CPoint
EXTRN	__imp__GetCursorPos@4:NEAR
EXTRN	?GetWindowRect@CWnd@@QBEXPAUtagRECT@@@Z:NEAR	; CWnd::GetWindowRect
EXTRN	__imp__PtInRect@12:NEAR
xdata$x	SEGMENT
$T189762 DD	0ffffffffH
	DD	FLAT:$L189752
$T189754 DD	019930520H
	DD	01H
	DD	FLAT:$T189762
	DD	2 DUP(00H)
	DD	2 DUP(00H)
; Function compile flags: /Odt /RTCsu
xdata$x	ENDS
_TEXT	SEGMENT
$T189751 = -92						; size = 8
_strItemText$188080 = -80				; size = 4
_iItem$188079 = -72					; size = 4
_pos$ = -64						; size = 4
_pt$ = -52						; size = 8
_rect$ = -36						; size = 16
_this$ = -16						; size = 4
__$EHRec$ = -12						; size = 12
_nFlags$ = 8						; size = 4
_point$ = 12						; size = 8
?OnLButtonDown@CComboBoxHistoryList@@IAEXIVCPoint@@@Z PROC NEAR ; CComboBoxHistoryList::OnLButtonDown
; _this$ = ecx

; 199  : {

  008b0	55		 push	 ebp
  008b1	8b ec		 mov	 ebp, esp
  008b3	6a ff		 push	 -1
  008b5	68 00 00 00 00	 push	 __ehhandler$?OnLButtonDown@CComboBoxHistoryList@@IAEXIVCPoint@@@Z
  008ba	64 a1 00 00 00
	00		 mov	 eax, DWORD PTR fs:__except_list
  008c0	50		 push	 eax
  008c1	64 89 25 00 00
	00 00		 mov	 DWORD PTR fs:__except_list, esp
  008c8	83 ec 50	 sub	 esp, 80			; 00000050H
  008cb	56		 push	 esi
  008cc	57		 push	 edi
  008cd	51		 push	 ecx
  008ce	8d 7d a4	 lea	 edi, DWORD PTR [ebp-92]
  008d1	b9 14 00 00 00	 mov	 ecx, 20			; 00000014H
  008d6	b8 cc cc cc cc	 mov	 eax, -858993460		; ccccccccH
  008db	f3 ab		 rep stosd
  008dd	59		 pop	 ecx
  008de	89 4d f0	 mov	 DWORD PTR _this$[ebp], ecx

; 200  : 	CRect rect;

  008e1	8d 4d dc	 lea	 ecx, DWORD PTR _rect$[ebp]
  008e4	e8 00 00 00 00	 call	 ??0CRect@@QAE@XZ	; CRect::CRect

; 201  : 	GetWindowRect(&rect);

  008e9	8d 45 dc	 lea	 eax, DWORD PTR _rect$[ebp]
  008ec	50		 push	 eax
  008ed	8b 4d f0	 mov	 ecx, DWORD PTR _this$[ebp]
  008f0	e8 00 00 00 00	 call	 ?GetWindowRect@CWnd@@QBEXPAUtagRECT@@@Z ; CWnd::GetWindowRect

; 202  : 
; 203  : 	CPoint pt;

  008f5	8d 4d cc	 lea	 ecx, DWORD PTR _pt$[ebp]
  008f8	e8 00 00 00 00	 call	 ??0CPoint@@QAE@XZ	; CPoint::CPoint

; 204  : 	GetCursorPos(&pt);

  008fd	8b f4		 mov	 esi, esp
  008ff	8d 4d cc	 lea	 ecx, DWORD PTR _pt$[ebp]
  00902	51		 push	 ecx
  00903	ff 15 00 00 00
	00		 call	 DWORD PTR __imp__GetCursorPos@4
  00909	3b f4		 cmp	 esi, esp
  0090b	e8 00 00 00 00	 call	 __RTC_CheckEsp

; 205  : 	if (!PtInRect(&rect,pt))

  00910	8b 55 cc	 mov	 edx, DWORD PTR _pt$[ebp]
  00913	89 55 a4	 mov	 DWORD PTR $T189751[ebp], edx
  00916	8b 45 d0	 mov	 eax, DWORD PTR _pt$[ebp+4]
  00919	89 45 a8	 mov	 DWORD PTR $T189751[ebp+4], eax
  0091c	8b f4		 mov	 esi, esp
  0091e	8b 4d a8	 mov	 ecx, DWORD PTR $T189751[ebp+4]
  00921	51		 push	 ecx
  00922	8b 55 a4	 mov	 edx, DWORD PTR $T189751[ebp]
  00925	52		 push	 edx
  00926	8d 45 dc	 lea	 eax, DWORD PTR _rect$[ebp]
  00929	50		 push	 eax
  0092a	ff 15 00 00 00
	00		 call	 DWORD PTR __imp__PtInRect@12
  00930	3b f4		 cmp	 esi, esp
  00932	e8 00 00 00 00	 call	 __RTC_CheckEsp
  00937	85 c0		 test	 eax, eax
  00939	75 16		 jne	 SHORT $L188076

; 206  : 	{
; 207  : 		m_pMsgWnd->SendMessage(MSG_EDIT_CLICKED);

  0093b	6a 00		 push	 0
  0093d	6a 00		 push	 0
  0093f	68 66 04 00 00	 push	 1126			; 00000466H
  00944	8b 4d f0	 mov	 ecx, DWORD PTR _this$[ebp]
  00947	8b 49 54	 mov	 ecx, DWORD PTR [ecx+84]
  0094a	e8 00 00 00 00	 call	 ?SendMessageA@CWnd@@QAEJIIJ@Z ; CWnd::SendMessageA

; 208  : 		return;

  0094f	eb 7e		 jmp	 SHORT $L188072
$L188076:

; 209  : 	}
; 210  : 
; 211  : 	POSITION pos=GetFirstSelectedItemPosition();

  00951	8b 4d f0	 mov	 ecx, DWORD PTR _this$[ebp]
  00954	e8 00 00 00 00	 call	 ?GetFirstSelectedItemPosition@CListCtrl@@QBEPAU__POSITION@@XZ ; CListCtrl::GetFirstSelectedItemPosition
  00959	89 45 c0	 mov	 DWORD PTR _pos$[ebp], eax

; 212  : 	if (pos)

  0095c	83 7d c0 00	 cmp	 DWORD PTR _pos$[ebp], 0
  00960	74 59		 je	 SHORT $L188078

; 213  : 	{
; 214  : 		int iItem=GetNextSelectedItem(pos);

  00962	8d 55 c0	 lea	 edx, DWORD PTR _pos$[ebp]
  00965	52		 push	 edx
  00966	8b 4d f0	 mov	 ecx, DWORD PTR _this$[ebp]
  00969	e8 00 00 00 00	 call	 ?GetNextSelectedItem@CListCtrl@@QBEHAAPAU__POSITION@@@Z ; CListCtrl::GetNextSelectedItem
  0096e	89 45 b8	 mov	 DWORD PTR _iItem$188079[ebp], eax

; 215  : 		CString strItemText=GetItemText(iItem,0);

  00971	6a 00		 push	 0
  00973	8b 45 b8	 mov	 eax, DWORD PTR _iItem$188079[ebp]
  00976	50		 push	 eax
  00977	8d 4d b0	 lea	 ecx, DWORD PTR _strItemText$188080[ebp]
  0097a	51		 push	 ecx
  0097b	8b 4d f0	 mov	 ecx, DWORD PTR _this$[ebp]
  0097e	e8 00 00 00 00	 call	 ?GetItemText@CListCtrl@@QBE?AV?$CStringT@DV?$StrTraitMFC_DLL@DV?$ChTraitsCRT@D@ATL@@@@@ATL@@HH@Z ; CListCtrl::GetItemText
  00983	c7 45 fc 00 00
	00 00		 mov	 DWORD PTR __$EHRec$[ebp+8], 0

; 216  : 		m_pMsgWnd->SendMessage(MSG_LIST_CLICKED,(WPARAM)&strItemText,(LPARAM)iItem);

  0098a	8b 55 b8	 mov	 edx, DWORD PTR _iItem$188079[ebp]
  0098d	52		 push	 edx
  0098e	8d 45 b0	 lea	 eax, DWORD PTR _strItemText$188080[ebp]
  00991	50		 push	 eax
  00992	68 65 04 00 00	 push	 1125			; 00000465H
  00997	8b 4d f0	 mov	 ecx, DWORD PTR _this$[ebp]
  0099a	8b 49 54	 mov	 ecx, DWORD PTR [ecx+84]
  0099d	e8 00 00 00 00	 call	 ?SendMessageA@CWnd@@QAEJIIJ@Z ; CWnd::SendMessageA

; 217  : 	}

  009a2	c7 45 fc ff ff
	ff ff		 mov	 DWORD PTR __$EHRec$[ebp+8], -1
  009a9	8b f4		 mov	 esi, esp
  009ab	8d 4d b0	 lea	 ecx, DWORD PTR _strItemText$188080[ebp]
  009ae	ff 15 00 00 00
	00		 call	 DWORD PTR __imp_??1?$CStringT@DV?$StrTraitMFC_DLL@DV?$ChTraitsCRT@D@ATL@@@@@ATL@@QAE@XZ
  009b4	3b f4		 cmp	 esi, esp
  009b6	e8 00 00 00 00	 call	 __RTC_CheckEsp
$L188078:

; 218  : 	CListCtrl::OnLButtonDown(nFlags, point);

  009bb	8b 55 10	 mov	 edx, DWORD PTR _point$[ebp+4]
  009be	52		 push	 edx
  009bf	8b 45 0c	 mov	 eax, DWORD PTR _point$[ebp]
  009c2	50		 push	 eax
  009c3	8b 4d 08	 mov	 ecx, DWORD PTR _nFlags$[ebp]
  009c6	51		 push	 ecx
  009c7	8b 4d f0	 mov	 ecx, DWORD PTR _this$[ebp]
  009ca	e8 00 00 00 00	 call	 ?OnLButtonDown@CWnd@@IAEXIVCPoint@@@Z ; CWnd::OnLButtonDown
$L188072:

; 219  : }

  009cf	52		 push	 edx
  009d0	8b cd		 mov	 ecx, ebp
  009d2	50		 push	 eax
  009d3	8d 15 00 00 00
	00		 lea	 edx, DWORD PTR $L189761
  009d9	e8 00 00 00 00	 call	 @_RTC_CheckStackVars@8
  009de	58		 pop	 eax
  009df	5a		 pop	 edx
  009e0	8b 4d f4	 mov	 ecx, DWORD PTR __$EHRec$[ebp]
  009e3	64 89 0d 00 00
	00 00		 mov	 DWORD PTR fs:__except_list, ecx
  009ea	5f		 pop	 edi
  009eb	5e		 pop	 esi
  009ec	83 c4 5c	 add	 esp, 92			; 0000005cH
  009ef	3b ec		 cmp	 ebp, esp
  009f1	e8 00 00 00 00	 call	 __RTC_CheckEsp
  009f6	8b e5		 mov	 esp, ebp
  009f8	5d		 pop	 ebp
  009f9	c2 0c 00	 ret	 12			; 0000000cH
$L189761:
  009fc	04 00 00 00	 DD	 4
  00a00	00 00 00 00	 DD	 $L189760
$L189760:
  00a04	dc ff ff ff	 DD	 -36			; ffffffdcH
  00a08	10 00 00 00	 DD	 16			; 00000010H
  00a0c	00 00 00 00	 DD	 $L189755
  00a10	cc ff ff ff	 DD	 -52			; ffffffccH
  00a14	08 00 00 00	 DD	 8
  00a18	00 00 00 00	 DD	 $L189756
  00a1c	c0 ff ff ff	 DD	 -64			; ffffffc0H
  00a20	04 00 00 00	 DD	 4
  00a24	00 00 00 00	 DD	 $L189757
  00a28	b0 ff ff ff	 DD	 -80			; ffffffb0H
  00a2c	04 00 00 00	 DD	 4
  00a30	00 00 00 00	 DD	 $L189758
$L189758:
  00a34	73		 DB	 115			; 00000073H
  00a35	74		 DB	 116			; 00000074H
  00a36	72		 DB	 114			; 00000072H
  00a37	49		 DB	 73			; 00000049H
  00a38	74		 DB	 116			; 00000074H
  00a39	65		 DB	 101			; 00000065H
  00a3a	6d		 DB	 109			; 0000006dH
  00a3b	54		 DB	 84			; 00000054H
  00a3c	65		 DB	 101			; 00000065H
  00a3d	78		 DB	 120			; 00000078H
  00a3e	74		 DB	 116			; 00000074H
  00a3f	00		 DB	 0
$L189757:
  00a40	70		 DB	 112			; 00000070H
  00a41	6f		 DB	 111			; 0000006fH
  00a42	73		 DB	 115			; 00000073H
  00a43	00		 DB	 0
$L189756:
  00a44	70		 DB	 112			; 00000070H
  00a45	74		 DB	 116			; 00000074H
  00a46	00		 DB	 0
$L189755:
  00a47	72		 DB	 114			; 00000072H
  00a48	65		 DB	 101			; 00000065H
  00a49	63		 DB	 99			; 00000063H
  00a4a	74		 DB	 116			; 00000074H
  00a4b	00		 DB	 0
_TEXT	ENDS
text$x	SEGMENT
$L189752:
  00055	8b f4		 mov	 esi, esp
  00057	8d 4d b0	 lea	 ecx, DWORD PTR _strItemText$188080[ebp]
  0005a	ff 15 00 00 00
	00		 call	 DWORD PTR __imp_??1?$CStringT@DV?$StrTraitMFC_DLL@DV?$ChTraitsCRT@D@ATL@@@@@ATL@@QAE@XZ
  00060	3b f4		 cmp	 esi, esp
  00062	e9 00 00 00 00	 jmp	 __RTC_CheckEsp
__ehhandler$?OnLButtonDown@CComboBoxHistoryList@@IAEXIVCPoint@@@Z:
  00067	b8 00 00 00 00	 mov	 eax, OFFSET FLAT:$T189754
  0006c	e9 00 00 00 00	 jmp	 ___CxxFrameHandler
text$x	ENDS
?OnLButtonDown@CComboBoxHistoryList@@IAEXIVCPoint@@@Z ENDP ; CComboBoxHistoryList::OnLButtonDown
EXTRN	?OnMouseMove@CWnd@@IAEXIVCPoint@@@Z:NEAR	; CWnd::OnMouseMove
EXTRN	__imp__GetCapture@0:NEAR
EXTRN	__imp__SetCapture@4:NEAR
EXTRN	?SetItemState@CListCtrl@@QAEHHII@Z:NEAR		; CListCtrl::SetItemState
EXTRN	?SubItemHitTest@CListCtrl@@QAEHPAUtagLVHITTESTINFO@@@Z:NEAR ; CListCtrl::SubItemHitTest
; Function compile flags: /Odt /RTCsu
_TEXT	SEGMENT
_hWnd$ = -60						; size = 4
_iCurrentCursorItem$188097 = -56			; size = 4
_iItem$188096 = -52					; size = 4
_pos$188092 = -44					; size = 4
_ret$ = -36						; size = 4
_lvhti$ = -28						; size = 20
_this$ = -4						; size = 4
_nFlags$ = 8						; size = 4
_point$ = 12						; size = 8
?OnMouseMove@CComboBoxHistoryList@@IAEXIVCPoint@@@Z PROC NEAR ; CComboBoxHistoryList::OnMouseMove
; _this$ = ecx

; 223  : {

  00a50	55		 push	 ebp
  00a51	8b ec		 mov	 ebp, esp
  00a53	83 ec 3c	 sub	 esp, 60			; 0000003cH
  00a56	56		 push	 esi
  00a57	57		 push	 edi
  00a58	51		 push	 ecx
  00a59	8d 7d c4	 lea	 edi, DWORD PTR [ebp-60]
  00a5c	b9 0f 00 00 00	 mov	 ecx, 15			; 0000000fH
  00a61	b8 cc cc cc cc	 mov	 eax, -858993460		; ccccccccH
  00a66	f3 ab		 rep stosd
  00a68	59		 pop	 ecx
  00a69	89 4d fc	 mov	 DWORD PTR _this$[ebp], ecx

; 224  : 
; 225  : 	LVHITTESTINFO lvhti;
; 226  : 	lvhti.pt = point;

  00a6c	8b 45 0c	 mov	 eax, DWORD PTR _point$[ebp]
  00a6f	89 45 e4	 mov	 DWORD PTR _lvhti$[ebp], eax
  00a72	8b 4d 10	 mov	 ecx, DWORD PTR _point$[ebp+4]
  00a75	89 4d e8	 mov	 DWORD PTR _lvhti$[ebp+4], ecx

; 227  : 	int ret = SubItemHitTest(&lvhti);

  00a78	8d 55 e4	 lea	 edx, DWORD PTR _lvhti$[ebp]
  00a7b	52		 push	 edx
  00a7c	8b 4d fc	 mov	 ecx, DWORD PTR _this$[ebp]
  00a7f	e8 00 00 00 00	 call	 ?SubItemHitTest@CListCtrl@@QAEHPAUtagLVHITTESTINFO@@@Z ; CListCtrl::SubItemHitTest
  00a84	89 45 dc	 mov	 DWORD PTR _ret$[ebp], eax

; 228  : 	if( ret != -1 )

  00a87	83 7d dc ff	 cmp	 DWORD PTR _ret$[ebp], -1
  00a8b	74 48		 je	 SHORT $L188091

; 229  : 	{
; 230  : 		POSITION pos=GetFirstSelectedItemPosition();

  00a8d	8b 4d fc	 mov	 ecx, DWORD PTR _this$[ebp]
  00a90	e8 00 00 00 00	 call	 ?GetFirstSelectedItemPosition@CListCtrl@@QBEPAU__POSITION@@XZ ; CListCtrl::GetFirstSelectedItemPosition
  00a95	89 45 d4	 mov	 DWORD PTR _pos$188092[ebp], eax
$L188094:

; 231  : 		while(pos)

  00a98	83 7d d4 00	 cmp	 DWORD PTR _pos$188092[ebp], 0
  00a9c	74 21		 je	 SHORT $L188095

; 232  : 		{
; 233  : 			int iItem=GetNextSelectedItem(pos);

  00a9e	8d 45 d4	 lea	 eax, DWORD PTR _pos$188092[ebp]
  00aa1	50		 push	 eax
  00aa2	8b 4d fc	 mov	 ecx, DWORD PTR _this$[ebp]
  00aa5	e8 00 00 00 00	 call	 ?GetNextSelectedItem@CListCtrl@@QBEHAAPAU__POSITION@@@Z ; CListCtrl::GetNextSelectedItem
  00aaa	89 45 cc	 mov	 DWORD PTR _iItem$188096[ebp], eax

; 234  : 			SetItemState(iItem,~LVIS_SELECTED,LVIS_SELECTED);

  00aad	6a 02		 push	 2
  00aaf	6a fd		 push	 -3			; fffffffdH
  00ab1	8b 4d cc	 mov	 ecx, DWORD PTR _iItem$188096[ebp]
  00ab4	51		 push	 ecx
  00ab5	8b 4d fc	 mov	 ecx, DWORD PTR _this$[ebp]
  00ab8	e8 00 00 00 00	 call	 ?SetItemState@CListCtrl@@QAEHHII@Z ; CListCtrl::SetItemState

; 235  : 		}

  00abd	eb d9		 jmp	 SHORT $L188094
$L188095:

; 236  : 		int iCurrentCursorItem	= lvhti.iItem;

  00abf	8b 55 f0	 mov	 edx, DWORD PTR _lvhti$[ebp+12]
  00ac2	89 55 c8	 mov	 DWORD PTR _iCurrentCursorItem$188097[ebp], edx

; 237  : 		SetItemState(iCurrentCursorItem,LVIS_SELECTED,LVIS_SELECTED);

  00ac5	6a 02		 push	 2
  00ac7	6a 02		 push	 2
  00ac9	8b 45 c8	 mov	 eax, DWORD PTR _iCurrentCursorItem$188097[ebp]
  00acc	50		 push	 eax
  00acd	8b 4d fc	 mov	 ecx, DWORD PTR _this$[ebp]
  00ad0	e8 00 00 00 00	 call	 ?SetItemState@CListCtrl@@QAEHHII@Z ; CListCtrl::SetItemState
$L188091:

; 238  : 	}
; 239  : 
; 240  : 	CListCtrl::OnMouseMove(nFlags, point);

  00ad5	8b 4d 10	 mov	 ecx, DWORD PTR _point$[ebp+4]
  00ad8	51		 push	 ecx
  00ad9	8b 55 0c	 mov	 edx, DWORD PTR _point$[ebp]
  00adc	52		 push	 edx
  00add	8b 45 08	 mov	 eax, DWORD PTR _nFlags$[ebp]
  00ae0	50		 push	 eax
  00ae1	8b 4d fc	 mov	 ecx, DWORD PTR _this$[ebp]
  00ae4	e8 00 00 00 00	 call	 ?OnMouseMove@CWnd@@IAEXIVCPoint@@@Z ; CWnd::OnMouseMove

; 241  : 
; 242  : 	HWND hWnd=::GetCapture();

  00ae9	8b f4		 mov	 esi, esp
  00aeb	ff 15 00 00 00
	00		 call	 DWORD PTR __imp__GetCapture@0
  00af1	3b f4		 cmp	 esi, esp
  00af3	e8 00 00 00 00	 call	 __RTC_CheckEsp
  00af8	89 45 c4	 mov	 DWORD PTR _hWnd$[ebp], eax

; 243  : 	if (hWnd!=m_hWnd)

  00afb	8b 4d fc	 mov	 ecx, DWORD PTR _this$[ebp]
  00afe	8b 55 c4	 mov	 edx, DWORD PTR _hWnd$[ebp]
  00b01	3b 51 20	 cmp	 edx, DWORD PTR [ecx+32]
  00b04	74 16		 je	 SHORT $L188088

; 244  : 	{
; 245  : 		::SetCapture(m_hWnd);

  00b06	8b f4		 mov	 esi, esp
  00b08	8b 45 fc	 mov	 eax, DWORD PTR _this$[ebp]
  00b0b	8b 48 20	 mov	 ecx, DWORD PTR [eax+32]
  00b0e	51		 push	 ecx
  00b0f	ff 15 00 00 00
	00		 call	 DWORD PTR __imp__SetCapture@4
  00b15	3b f4		 cmp	 esi, esp
  00b17	e8 00 00 00 00	 call	 __RTC_CheckEsp
$L188088:

; 246  : 	}
; 247  : }

  00b1c	52		 push	 edx
  00b1d	8b cd		 mov	 ecx, ebp
  00b1f	50		 push	 eax
  00b20	8d 15 00 00 00
	00		 lea	 edx, DWORD PTR $L189767
  00b26	e8 00 00 00 00	 call	 @_RTC_CheckStackVars@8
  00b2b	58		 pop	 eax
  00b2c	5a		 pop	 edx
  00b2d	5f		 pop	 edi
  00b2e	5e		 pop	 esi
  00b2f	83 c4 3c	 add	 esp, 60			; 0000003cH
  00b32	3b ec		 cmp	 ebp, esp
  00b34	e8 00 00 00 00	 call	 __RTC_CheckEsp
  00b39	8b e5		 mov	 esp, ebp
  00b3b	5d		 pop	 ebp
  00b3c	c2 0c 00	 ret	 12			; 0000000cH
$L189767:
  00b3f	02 00 00 00	 DD	 2
  00b43	00 00 00 00	 DD	 $L189766
$L189766:
  00b47	e4 ff ff ff	 DD	 -28			; ffffffe4H
  00b4b	14 00 00 00	 DD	 20			; 00000014H
  00b4f	00 00 00 00	 DD	 $L189764
  00b53	d4 ff ff ff	 DD	 -44			; ffffffd4H
  00b57	04 00 00 00	 DD	 4
  00b5b	00 00 00 00	 DD	 $L189765
$L189765:
  00b5f	70		 DB	 112			; 00000070H
  00b60	6f		 DB	 111			; 0000006fH
  00b61	73		 DB	 115			; 00000073H
  00b62	00		 DB	 0
$L189764:
  00b63	6c		 DB	 108			; 0000006cH
  00b64	76		 DB	 118			; 00000076H
  00b65	68		 DB	 104			; 00000068H
  00b66	74		 DB	 116			; 00000074H
  00b67	69		 DB	 105			; 00000069H
  00b68	00		 DB	 0
?OnMouseMove@CComboBoxHistoryList@@IAEXIVCPoint@@@Z ENDP ; CComboBoxHistoryList::OnMouseMove
_TEXT	ENDS
PUBLIC	?SetMsgWnd@CComboBoxHistoryList@@QAEXPAVCWnd@@@Z ; CComboBoxHistoryList::SetMsgWnd
; Function compile flags: /Odt /RTCsu
_TEXT	SEGMENT
_this$ = -4						; size = 4
_pMsgWnd$ = 8						; size = 4
?SetMsgWnd@CComboBoxHistoryList@@QAEXPAVCWnd@@@Z PROC NEAR ; CComboBoxHistoryList::SetMsgWnd
; _this$ = ecx

; 251  : {

  00b70	55		 push	 ebp
  00b71	8b ec		 mov	 ebp, esp
  00b73	51		 push	 ecx
  00b74	c7 45 fc cc cc
	cc cc		 mov	 DWORD PTR [ebp-4], -858993460 ; ccccccccH
  00b7b	89 4d fc	 mov	 DWORD PTR _this$[ebp], ecx

; 252  : 	m_pMsgWnd=pMsgWnd;

  00b7e	8b 45 fc	 mov	 eax, DWORD PTR _this$[ebp]
  00b81	8b 4d 08	 mov	 ecx, DWORD PTR _pMsgWnd$[ebp]
  00b84	89 48 54	 mov	 DWORD PTR [eax+84], ecx

; 253  : }

  00b87	8b e5		 mov	 esp, ebp
  00b89	5d		 pop	 ebp
  00b8a	c2 04 00	 ret	 4
?SetMsgWnd@CComboBoxHistoryList@@QAEXPAVCWnd@@@Z ENDP	; CComboBoxHistoryList::SetMsgWnd
_TEXT	ENDS
PUBLIC	?OnInit@CComboBoxHistoryList@@AAEXXZ		; CComboBoxHistoryList::OnInit
EXTRN	?OnCreate@CWnd@@IAEHPAUtagCREATESTRUCTA@@@Z:NEAR ; CWnd::OnCreate
EXTRN	?ShowScrollBar@CWnd@@QAEXIH@Z:NEAR		; CWnd::ShowScrollBar
; Function compile flags: /Odt /RTCsu
_TEXT	SEGMENT
_this$ = -4						; size = 4
_lpCreateStruct$ = 8					; size = 4
?OnCreate@CComboBoxHistoryList@@IAEHPAUtagCREATESTRUCTA@@@Z PROC NEAR ; CComboBoxHistoryList::OnCreate
; _this$ = ecx

; 257  : {

  00b90	55		 push	 ebp
  00b91	8b ec		 mov	 ebp, esp
  00b93	51		 push	 ecx
  00b94	c7 45 fc cc cc
	cc cc		 mov	 DWORD PTR [ebp-4], -858993460 ; ccccccccH
  00b9b	89 4d fc	 mov	 DWORD PTR _this$[ebp], ecx

; 258  : 	if (CListCtrl::OnCreate(lpCreateStruct) == -1)

  00b9e	8b 45 08	 mov	 eax, DWORD PTR _lpCreateStruct$[ebp]
  00ba1	50		 push	 eax
  00ba2	8b 4d fc	 mov	 ecx, DWORD PTR _this$[ebp]
  00ba5	e8 00 00 00 00	 call	 ?OnCreate@CWnd@@IAEHPAUtagCREATESTRUCTA@@@Z ; CWnd::OnCreate
  00baa	83 f8 ff	 cmp	 eax, -1
  00bad	75 05		 jne	 SHORT $L188108

; 259  : 		return -1;

  00baf	83 c8 ff	 or	 eax, -1
  00bb2	eb 22		 jmp	 SHORT $L188107
$L188108:

; 260  : 	OnInit();

  00bb4	8b 4d fc	 mov	 ecx, DWORD PTR _this$[ebp]
  00bb7	e8 00 00 00 00	 call	 ?OnInit@CComboBoxHistoryList@@AAEXXZ ; CComboBoxHistoryList::OnInit

; 261  : 
; 262  : 	ShowScrollBar(SB_HORZ,FALSE);

  00bbc	6a 00		 push	 0
  00bbe	6a 00		 push	 0
  00bc0	8b 4d fc	 mov	 ecx, DWORD PTR _this$[ebp]
  00bc3	e8 00 00 00 00	 call	 ?ShowScrollBar@CWnd@@QAEXIH@Z ; CWnd::ShowScrollBar

; 263  : 	ShowScrollBar(SB_VERT,FALSE);

  00bc8	6a 00		 push	 0
  00bca	6a 01		 push	 1
  00bcc	8b 4d fc	 mov	 ecx, DWORD PTR _this$[ebp]
  00bcf	e8 00 00 00 00	 call	 ?ShowScrollBar@CWnd@@QAEXIH@Z ; CWnd::ShowScrollBar

; 264  : 
; 265  : 	return 0;

  00bd4	33 c0		 xor	 eax, eax
$L188107:

; 266  : }

  00bd6	83 c4 04	 add	 esp, 4
  00bd9	3b ec		 cmp	 ebp, esp
  00bdb	e8 00 00 00 00	 call	 __RTC_CheckEsp
  00be0	8b e5		 mov	 esp, ebp
  00be2	5d		 pop	 ebp
  00be3	c2 04 00	 ret	 4
?OnCreate@CComboBoxHistoryList@@IAEHPAUtagCREATESTRUCTA@@@Z ENDP ; CComboBoxHistoryList::OnCreate
_TEXT	ENDS
EXTRN	_InitializeCoolSB@4:NEAR
EXTRN	_CoolSB_SetMinThumbSize@12:NEAR
EXTRN	__RTC_UninitUse:NEAR
EXTRN	_CoolSB_SetSize@16:NEAR
EXTRN	_CoolSB_SetStyle@12:NEAR
EXTRN	?GetWidth@CDibBitmap@@QAEHXZ:NEAR		; CDibBitmap::GetWidth
EXTRN	?GetHeight@CDibBitmap@@QAEHXZ:NEAR		; CDibBitmap::GetHeight
; Function compile flags: /Odt /RTCsu
_TEXT	SEGMENT
$T189772 = -14						; size = 1
$T189771 = -13						; size = 1
_h$ = -12						; size = 4
_w$ = -8						; size = 4
_this$ = -4						; size = 4
?OnInit@CComboBoxHistoryList@@AAEXXZ PROC NEAR		; CComboBoxHistoryList::OnInit
; _this$ = ecx

; 270  : {

  00bf0	55		 push	 ebp
  00bf1	8b ec		 mov	 ebp, esp
  00bf3	83 ec 10	 sub	 esp, 16			; 00000010H
  00bf6	b8 cc cc cc cc	 mov	 eax, -858993460		; ccccccccH
  00bfb	89 45 f0	 mov	 DWORD PTR [ebp-16], eax
  00bfe	89 45 f4	 mov	 DWORD PTR [ebp-12], eax
  00c01	89 45 f8	 mov	 DWORD PTR [ebp-8], eax
  00c04	89 45 fc	 mov	 DWORD PTR [ebp-4], eax
  00c07	89 4d fc	 mov	 DWORD PTR _this$[ebp], ecx
  00c0a	c6 45 f2 00	 mov	 BYTE PTR $T189772[ebp], 0
  00c0e	c6 45 f3 00	 mov	 BYTE PTR $T189771[ebp], 0

; 271  : 	if(!m_pBitmapScrollVert)

  00c12	8b 45 fc	 mov	 eax, DWORD PTR _this$[ebp]
  00c15	83 78 68 00	 cmp	 DWORD PTR [eax+104], 0
  00c19	75 05		 jne	 SHORT $L188112

; 272  : 	{
; 273  : 		return;

  00c1b	e9 bc 00 00 00	 jmp	 $L188111
$L188112:

; 274  : 	}
; 275  : 	int w,h;
; 276  : 	if(!m_bInit )

  00c20	8b 4d fc	 mov	 ecx, DWORD PTR _this$[ebp]
  00c23	83 79 64 00	 cmp	 DWORD PTR [ecx+100], 0
  00c27	0f 85 af 00 00
	00		 jne	 $L188111

; 277  : 	{
; 278  : 		if( m_pBitmapScrollVert  != NULL )

  00c2d	8b 55 fc	 mov	 edx, DWORD PTR _this$[ebp]
  00c30	83 7a 68 00	 cmp	 DWORD PTR [edx+104], 0
  00c34	74 34		 je	 SHORT $L188116

; 279  : 		{
; 280  : 			h = m_pBitmapScrollVert->GetHeight()/3;

  00c36	8b 45 fc	 mov	 eax, DWORD PTR _this$[ebp]
  00c39	8b 48 68	 mov	 ecx, DWORD PTR [eax+104]
  00c3c	e8 00 00 00 00	 call	 ?GetHeight@CDibBitmap@@QAEHXZ ; CDibBitmap::GetHeight
  00c41	99		 cdq
  00c42	b9 03 00 00 00	 mov	 ecx, 3
  00c47	f7 f9		 idiv	 ecx
  00c49	c6 45 f3 01	 mov	 BYTE PTR $T189771[ebp], 1
  00c4d	89 45 f4	 mov	 DWORD PTR _h$[ebp], eax

; 281  : 			w = m_pBitmapScrollVert->GetWidth()/6;

  00c50	8b 55 fc	 mov	 edx, DWORD PTR _this$[ebp]
  00c53	8b 4a 68	 mov	 ecx, DWORD PTR [edx+104]
  00c56	e8 00 00 00 00	 call	 ?GetWidth@CDibBitmap@@QAEHXZ ; CDibBitmap::GetWidth
  00c5b	99		 cdq
  00c5c	b9 06 00 00 00	 mov	 ecx, 6
  00c61	f7 f9		 idiv	 ecx
  00c63	c6 45 f2 01	 mov	 BYTE PTR $T189772[ebp], 1
  00c67	89 45 f8	 mov	 DWORD PTR _w$[ebp], eax
$L188116:

; 282  : 		}
; 283  : 		InitializeCoolSB(m_hWnd);

  00c6a	8b 55 fc	 mov	 edx, DWORD PTR _this$[ebp]
  00c6d	8b 42 20	 mov	 eax, DWORD PTR [edx+32]
  00c70	50		 push	 eax
  00c71	e8 00 00 00 00	 call	 _InitializeCoolSB@4

; 284  : 		CoolSB_SetStyle(m_hWnd, SB_VERT, CSBS_HOTTRACKED);

  00c76	6a 02		 push	 2
  00c78	6a 01		 push	 1
  00c7a	8b 4d fc	 mov	 ecx, DWORD PTR _this$[ebp]
  00c7d	8b 51 20	 mov	 edx, DWORD PTR [ecx+32]
  00c80	52		 push	 edx
  00c81	e8 00 00 00 00	 call	 _CoolSB_SetStyle@12

; 285  : 		CoolSB_SetSize(m_hWnd, SB_VERT,  h,w);

  00c86	80 7d f2 00	 cmp	 BYTE PTR $T189772[ebp], 0
  00c8a	75 0d		 jne	 SHORT $L189773
  00c8c	68 00 00 00 00	 push	 OFFSET FLAT:$L189774
  00c91	e8 00 00 00 00	 call	 __RTC_UninitUse
  00c96	83 c4 04	 add	 esp, 4
$L189773:
  00c99	80 7d f3 00	 cmp	 BYTE PTR $T189771[ebp], 0
  00c9d	75 0d		 jne	 SHORT $L189776
  00c9f	68 00 00 00 00	 push	 OFFSET FLAT:$L189777
  00ca4	e8 00 00 00 00	 call	 __RTC_UninitUse
  00ca9	83 c4 04	 add	 esp, 4
$L189776:
  00cac	8b 45 f8	 mov	 eax, DWORD PTR _w$[ebp]
  00caf	50		 push	 eax
  00cb0	8b 4d f4	 mov	 ecx, DWORD PTR _h$[ebp]
  00cb3	51		 push	 ecx
  00cb4	6a 01		 push	 1
  00cb6	8b 55 fc	 mov	 edx, DWORD PTR _this$[ebp]
  00cb9	8b 42 20	 mov	 eax, DWORD PTR [edx+32]
  00cbc	50		 push	 eax
  00cbd	e8 00 00 00 00	 call	 _CoolSB_SetSize@16

; 286  : 		::CoolSB_SetMinThumbSize(m_hWnd, SB_VERT, 8);

  00cc2	6a 08		 push	 8
  00cc4	6a 01		 push	 1
  00cc6	8b 4d fc	 mov	 ecx, DWORD PTR _this$[ebp]
  00cc9	8b 51 20	 mov	 edx, DWORD PTR [ecx+32]
  00ccc	52		 push	 edx
  00ccd	e8 00 00 00 00	 call	 _CoolSB_SetMinThumbSize@12

; 287  : 		m_bInit = true;

  00cd2	8b 45 fc	 mov	 eax, DWORD PTR _this$[ebp]
  00cd5	c7 40 64 01 00
	00 00		 mov	 DWORD PTR [eax+100], 1
$L188111:

; 288  : 	}
; 289  : }

  00cdc	83 c4 10	 add	 esp, 16			; 00000010H
  00cdf	3b ec		 cmp	 ebp, esp
  00ce1	e8 00 00 00 00	 call	 __RTC_CheckEsp
  00ce6	8b e5		 mov	 esp, ebp
  00ce8	5d		 pop	 ebp
  00ce9	c3		 ret	 0
$L189778:
$L189777:
  00cea	68		 DB	 104			; 00000068H
  00ceb	00		 DB	 0
$L189774:
  00cec	77		 DB	 119			; 00000077H
  00ced	00		 DB	 0
?OnInit@CComboBoxHistoryList@@AAEXXZ ENDP		; CComboBoxHistoryList::OnInit
_TEXT	ENDS
EXTRN	?OnDestroy@CWnd@@IAEXXZ:NEAR			; CWnd::OnDestroy
EXTRN	_UninitializeCoolSB@4:NEAR
; Function compile flags: /Odt /RTCsu
_TEXT	SEGMENT
_this$ = -4						; size = 4
?OnDestroy@CComboBoxHistoryList@@IAEXXZ PROC NEAR	; CComboBoxHistoryList::OnDestroy
; _this$ = ecx

; 293  : {

  00cf0	55		 push	 ebp
  00cf1	8b ec		 mov	 ebp, esp
  00cf3	51		 push	 ecx
  00cf4	c7 45 fc cc cc
	cc cc		 mov	 DWORD PTR [ebp-4], -858993460 ; ccccccccH
  00cfb	89 4d fc	 mov	 DWORD PTR _this$[ebp], ecx

; 294  : 	if( m_bInit )

  00cfe	8b 45 fc	 mov	 eax, DWORD PTR _this$[ebp]
  00d01	83 78 64 00	 cmp	 DWORD PTR [eax+100], 0
  00d05	74 0c		 je	 SHORT $L188120

; 295  : 	{
; 296  : 		UninitializeCoolSB( m_hWnd );

  00d07	8b 4d fc	 mov	 ecx, DWORD PTR _this$[ebp]
  00d0a	8b 51 20	 mov	 edx, DWORD PTR [ecx+32]
  00d0d	52		 push	 edx
  00d0e	e8 00 00 00 00	 call	 _UninitializeCoolSB@4
$L188120:

; 297  : 	}
; 298  : 	__super::OnDestroy();

  00d13	8b 4d fc	 mov	 ecx, DWORD PTR _this$[ebp]
  00d16	e8 00 00 00 00	 call	 ?OnDestroy@CWnd@@IAEXXZ	; CWnd::OnDestroy

; 299  : }

  00d1b	83 c4 04	 add	 esp, 4
  00d1e	3b ec		 cmp	 ebp, esp
  00d20	e8 00 00 00 00	 call	 __RTC_CheckEsp
  00d25	8b e5		 mov	 esp, ebp
  00d27	5d		 pop	 ebp
  00d28	c3		 ret	 0
?OnDestroy@CComboBoxHistoryList@@IAEXXZ ENDP		; CComboBoxHistoryList::OnDestroy
_TEXT	ENDS
EXTRN	?HandleCustomDraw@@YAJIPAUNMCSBCUSTOMDRAW@@PAVCDibBitmap@@1@Z:NEAR ; HandleCustomDraw
; Function compile flags: /Odt /RTCsu
_TEXT	SEGMENT
_pNMCD$ = -8						; size = 4
_this$ = -4						; size = 4
_pNMHDR$ = 8						; size = 4
_pResult$ = 12						; size = 4
?OnCoolSBCustomdraw@CComboBoxHistoryList@@IAEXPAUtagNMHDR@@PAJ@Z PROC NEAR ; CComboBoxHistoryList::OnCoolSBCustomdraw
; _this$ = ecx

; 302  : {

  00d30	55		 push	 ebp
  00d31	8b ec		 mov	 ebp, esp
  00d33	83 ec 08	 sub	 esp, 8
  00d36	c7 45 f8 cc cc
	cc cc		 mov	 DWORD PTR [ebp-8], -858993460 ; ccccccccH
  00d3d	c7 45 fc cc cc
	cc cc		 mov	 DWORD PTR [ebp-4], -858993460 ; ccccccccH
  00d44	89 4d fc	 mov	 DWORD PTR _this$[ebp], ecx

; 303  : 	NMCSBCUSTOMDRAW* pNMCD = reinterpret_cast<NMCSBCUSTOMDRAW*>(pNMHDR);

  00d47	8b 45 08	 mov	 eax, DWORD PTR _pNMHDR$[ebp]
  00d4a	89 45 f8	 mov	 DWORD PTR _pNMCD$[ebp], eax

; 304  : 	if(m_pBitmapScrollVert && m_pBitmapScrollHorz)

  00d4d	8b 4d fc	 mov	 ecx, DWORD PTR _this$[ebp]
  00d50	83 79 68 00	 cmp	 DWORD PTR [ecx+104], 0
  00d54	74 2a		 je	 SHORT $L188125
  00d56	8b 55 fc	 mov	 edx, DWORD PTR _this$[ebp]
  00d59	83 7a 6c 00	 cmp	 DWORD PTR [edx+108], 0
  00d5d	74 21		 je	 SHORT $L188125

; 305  : 	{
; 306  : 		*pResult = HandleCustomDraw(0,(NMCSBCUSTOMDRAW*)pNMHDR,m_pBitmapScrollVert,m_pBitmapScrollHorz );

  00d5f	8b 45 fc	 mov	 eax, DWORD PTR _this$[ebp]
  00d62	8b 48 6c	 mov	 ecx, DWORD PTR [eax+108]
  00d65	51		 push	 ecx
  00d66	8b 55 fc	 mov	 edx, DWORD PTR _this$[ebp]
  00d69	8b 42 68	 mov	 eax, DWORD PTR [edx+104]
  00d6c	50		 push	 eax
  00d6d	8b 4d 08	 mov	 ecx, DWORD PTR _pNMHDR$[ebp]
  00d70	51		 push	 ecx
  00d71	6a 00		 push	 0
  00d73	e8 00 00 00 00	 call	 ?HandleCustomDraw@@YAJIPAUNMCSBCUSTOMDRAW@@PAVCDibBitmap@@1@Z ; HandleCustomDraw
  00d78	83 c4 10	 add	 esp, 16			; 00000010H
  00d7b	8b 55 0c	 mov	 edx, DWORD PTR _pResult$[ebp]
  00d7e	89 02		 mov	 DWORD PTR [edx], eax
$L188125:

; 307  : 	}
; 308  : }

  00d80	83 c4 08	 add	 esp, 8
  00d83	3b ec		 cmp	 ebp, esp
  00d85	e8 00 00 00 00	 call	 __RTC_CheckEsp
  00d8a	8b e5		 mov	 esp, ebp
  00d8c	5d		 pop	 ebp
  00d8d	c2 08 00	 ret	 8
?OnCoolSBCustomdraw@CComboBoxHistoryList@@IAEXPAUtagNMHDR@@PAJ@Z ENDP ; CComboBoxHistoryList::OnCoolSBCustomdraw
_TEXT	ENDS
EXTRN	?OnSize@CWnd@@IAEXIHH@Z:NEAR			; CWnd::OnSize
; Function compile flags: /Odt /RTCsu
_TEXT	SEGMENT
_this$ = -4						; size = 4
_nType$ = 8						; size = 4
_cx$ = 12						; size = 4
_cy$ = 16						; size = 4
?OnSize@CComboBoxHistoryList@@IAEXIHH@Z PROC NEAR	; CComboBoxHistoryList::OnSize
; _this$ = ecx

; 312  : {

  00d90	55		 push	 ebp
  00d91	8b ec		 mov	 ebp, esp
  00d93	51		 push	 ecx
  00d94	c7 45 fc cc cc
	cc cc		 mov	 DWORD PTR [ebp-4], -858993460 ; ccccccccH
  00d9b	89 4d fc	 mov	 DWORD PTR _this$[ebp], ecx

; 313  : 	CListCtrl::OnSize(nType, cx, cy);

  00d9e	8b 45 10	 mov	 eax, DWORD PTR _cy$[ebp]
  00da1	50		 push	 eax
  00da2	8b 4d 0c	 mov	 ecx, DWORD PTR _cx$[ebp]
  00da5	51		 push	 ecx
  00da6	8b 55 08	 mov	 edx, DWORD PTR _nType$[ebp]
  00da9	52		 push	 edx
  00daa	8b 4d fc	 mov	 ecx, DWORD PTR _this$[ebp]
  00dad	e8 00 00 00 00	 call	 ?OnSize@CWnd@@IAEXIHH@Z	; CWnd::OnSize

; 314  : 
; 315  : 	ShowScrollBar(SB_HORZ,FALSE);

  00db2	6a 00		 push	 0
  00db4	6a 00		 push	 0
  00db6	8b 4d fc	 mov	 ecx, DWORD PTR _this$[ebp]
  00db9	e8 00 00 00 00	 call	 ?ShowScrollBar@CWnd@@QAEXIH@Z ; CWnd::ShowScrollBar

; 316  : 	ShowScrollBar(SB_VERT,FALSE);

  00dbe	6a 00		 push	 0
  00dc0	6a 01		 push	 1
  00dc2	8b 4d fc	 mov	 ecx, DWORD PTR _this$[ebp]
  00dc5	e8 00 00 00 00	 call	 ?ShowScrollBar@CWnd@@QAEXIH@Z ; CWnd::ShowScrollBar

; 317  : }

  00dca	83 c4 04	 add	 esp, 4
  00dcd	3b ec		 cmp	 ebp, esp
  00dcf	e8 00 00 00 00	 call	 __RTC_CheckEsp
  00dd4	8b e5		 mov	 esp, ebp
  00dd6	5d		 pop	 ebp
  00dd7	c2 0c 00	 ret	 12			; 0000000cH
?OnSize@CComboBoxHistoryList@@IAEXIHH@Z ENDP		; CComboBoxHistoryList::OnSize
_TEXT	ENDS
PUBLIC	?GetMessageMap@CComboBoxHistory@@MBEPBUAFX_MSGMAP@@XZ ; CComboBoxHistory::GetMessageMap
PUBLIC	??_7CComboBoxHistory@@6B@			; CComboBoxHistory::`vftable'
PUBLIC	??_GCComboBoxHistory@@UAEPAXI@Z			; CComboBoxHistory::`scalar deleting destructor'
PUBLIC	??_R4CComboBoxHistory@@6B@			; CComboBoxHistory::`RTTI Complete Object Locator'
PUBLIC	??_R0?AVCComboBoxHistory@@@8			; CComboBoxHistory `RTTI Type Descriptor'
PUBLIC	??_R3CComboBoxHistory@@8			; CComboBoxHistory::`RTTI Class Hierarchy Descriptor'
PUBLIC	??_R2CComboBoxHistory@@8			; CComboBoxHistory::`RTTI Base Class Array'
PUBLIC	??_R1A@?0A@A@CComboBoxHistory@@8		; CComboBoxHistory::`RTTI Base Class Descriptor at (0,-1,0,0)'
PUBLIC	??0CComboBoxHistory@@QAE@XZ			; CComboBoxHistory::CComboBoxHistory
EXTRN	??_ECComboBoxHistory@@UAEPAXI@Z:NEAR		; CComboBoxHistory::`vector deleting destructor'
EXTRN	??0CFont@@QAE@XZ:NEAR				; CFont::CFont
EXTRN	?GetRuntimeClass@CWnd@@UBEPAUCRuntimeClass@@XZ:NEAR ; CWnd::GetRuntimeClass
EXTRN	??0CWnd@@QAE@XZ:NEAR				; CWnd::CWnd
EXTRN	??1CWnd@@UAE@XZ:NEAR				; CWnd::~CWnd
xdata$x	SEGMENT
$T189789 DD	0ffffffffH
	DD	FLAT:$L189783
	DD	00H
	DD	FLAT:$L189784
$T189787 DD	019930520H
	DD	02H
	DD	FLAT:$T189789
	DD	2 DUP(00H)
	DD	2 DUP(00H)
xdata$x	ENDS
;	COMDAT ??_7CComboBoxHistory@@6B@
CONST	SEGMENT
??_7CComboBoxHistory@@6B@ DD FLAT:??_R4CComboBoxHistory@@6B@ ; CComboBoxHistory::`vftable'
	DD	FLAT:?GetRuntimeClass@CWnd@@UBEPAUCRuntimeClass@@XZ
	DD	FLAT:??_ECComboBoxHistory@@UAEPAXI@Z
	DD	FLAT:?Serialize@CObject@@UAEXAAVCArchive@@@Z
	DD	FLAT:?AssertValid@CWnd@@UBEXXZ
	DD	FLAT:?Dump@CWnd@@UBEXAAVCDumpContext@@@Z
	DD	FLAT:?OnCmdMsg@CCmdTarget@@UAEHIHPAXPAUAFX_CMDHANDLERINFO@@@Z
	DD	FLAT:?OnFinalRelease@CWnd@@UAEXXZ
	DD	FLAT:?IsInvokeAllowed@CCmdTarget@@UAEHJ@Z
	DD	FLAT:?GetDispatchIID@CCmdTarget@@UAEHPAU_GUID@@@Z
	DD	FLAT:?GetTypeInfoCount@CCmdTarget@@UAEIXZ
	DD	FLAT:?GetTypeLibCache@CCmdTarget@@UAEPAVCTypeLibCache@@XZ
	DD	FLAT:?GetTypeLib@CCmdTarget@@UAEJKPAPAUITypeLib@@@Z
	DD	FLAT:?GetMessageMap@CComboBoxHistory@@MBEPBUAFX_MSGMAP@@XZ
	DD	FLAT:?GetCommandMap@CCmdTarget@@MBEPBUAFX_OLECMDMAP@@XZ
	DD	FLAT:?GetDispatchMap@CCmdTarget@@MBEPBUAFX_DISPMAP@@XZ
	DD	FLAT:?GetConnectionMap@CCmdTarget@@MBEPBUAFX_CONNECTIONMAP@@XZ
	DD	FLAT:?GetInterfaceMap@CWnd@@MBEPBUAFX_INTERFACEMAP@@XZ
	DD	FLAT:?GetEventSinkMap@CCmdTarget@@MBEPBUAFX_EVENTSINKMAP@@XZ
	DD	FLAT:?OnCreateAggregates@CCmdTarget@@UAEHXZ
	DD	FLAT:?GetInterfaceHook@CCmdTarget@@UAEPAUIUnknown@@PBX@Z
	DD	FLAT:?GetExtraConnectionPoints@CCmdTarget@@MAEHPAVCPtrArray@@@Z
	DD	FLAT:?GetConnectionHook@CCmdTarget@@MAEPAUIConnectionPoint@@ABU_GUID@@@Z
	DD	FLAT:?PreSubclassWindow@CWnd@@UAEXXZ
	DD	FLAT:?Create@CWnd@@UAEHPBD0KABUtagRECT@@PAV1@IPAUCCreateContext@@@Z
	DD	FLAT:?CreateEx@CWnd@@UAEHKPBD0KABUtagRECT@@PAV1@IPAX@Z
	DD	FLAT:?CreateEx@CWnd@@UAEHKPBD0KHHHHPAUHWND__@@PAUHMENU__@@PAX@Z
	DD	FLAT:?DestroyWindow@CWnd@@UAEHXZ
	DD	FLAT:?PreCreateWindow@CWnd@@UAEHAAUtagCREATESTRUCTA@@@Z
	DD	FLAT:?CalcWindowRect@CWnd@@UAEXPAUtagRECT@@I@Z
	DD	FLAT:?OnToolHitTest@CWnd@@UBEHVCPoint@@PAUtagTOOLINFOA@@@Z
	DD	FLAT:?GetScrollBarCtrl@CWnd@@UBEPAVCScrollBar@@H@Z
	DD	FLAT:?WinHelpA@CWnd@@UAEXKI@Z
	DD	FLAT:?HtmlHelpA@CWnd@@UAEXKI@Z
	DD	FLAT:?WinHelpInternal@CWnd@@UAEXKI@Z
	DD	FLAT:?ContinueModal@CWnd@@UAEHXZ
	DD	FLAT:?EndModalLoop@CWnd@@UAEXH@Z
	DD	FLAT:?EnsureStdObj@CWnd@@UAEJXZ
	DD	FLAT:?get_accParent@CWnd@@UAEJPAPAUIDispatch@@@Z
	DD	FLAT:?get_accChildCount@CWnd@@UAEJPAJ@Z
	DD	FLAT:?get_accChild@CWnd@@UAEJUtagVARIANT@@PAPAUIDispatch@@@Z
	DD	FLAT:?get_accName@CWnd@@UAEJUtagVARIANT@@PAPA_W@Z
	DD	FLAT:?get_accValue@CWnd@@UAEJUtagVARIANT@@PAPA_W@Z
	DD	FLAT:?get_accDescription@CWnd@@UAEJUtagVARIANT@@PAPA_W@Z
	DD	FLAT:?get_accRole@CWnd@@UAEJUtagVARIANT@@PAU2@@Z
	DD	FLAT:?get_accState@CWnd@@UAEJUtagVARIANT@@PAU2@@Z
	DD	FLAT:?get_accHelp@CWnd@@UAEJUtagVARIANT@@PAPA_W@Z
	DD	FLAT:?get_accHelpTopic@CWnd@@UAEJPAPA_WUtagVARIANT@@PAJ@Z
	DD	FLAT:?get_accKeyboardShortcut@CWnd@@UAEJUtagVARIANT@@PAPA_W@Z
	DD	FLAT:?get_accFocus@CWnd@@UAEJPAUtagVARIANT@@@Z
	DD	FLAT:?get_accSelection@CWnd@@UAEJPAUtagVARIANT@@@Z
	DD	FLAT:?get_accDefaultAction@CWnd@@UAEJUtagVARIANT@@PAPA_W@Z
	DD	FLAT:?accSelect@CWnd@@UAEJJUtagVARIANT@@@Z
	DD	FLAT:?accLocation@CWnd@@UAEJPAJ000UtagVARIANT@@@Z
	DD	FLAT:?accNavigate@CWnd@@UAEJJUtagVARIANT@@PAU2@@Z
	DD	FLAT:?accHitTest@CWnd@@UAEJJJPAUtagVARIANT@@@Z
	DD	FLAT:?accDoDefaultAction@CWnd@@UAEJUtagVARIANT@@@Z
	DD	FLAT:?put_accName@CWnd@@UAEJUtagVARIANT@@PA_W@Z
	DD	FLAT:?put_accValue@CWnd@@UAEJUtagVARIANT@@PA_W@Z
	DD	FLAT:?SetProxy@CWnd@@UAEJPAUIAccessibleProxy@@@Z
	DD	FLAT:?CreateAccessibleProxy@CWnd@@UAEJIJPAJ@Z
	DD	FLAT:?OnCommand@CWnd@@MAEHIJ@Z
	DD	FLAT:?OnNotify@CWnd@@MAEHIJPAJ@Z
	DD	FLAT:?GetSuperWndProcAddr@CWnd@@MAEPAP6GJPAUHWND__@@IIJ@ZXZ
	DD	FLAT:?DoDataExchange@CWnd@@MAEXPAVCDataExchange@@@Z
	DD	FLAT:?BeginModalState@CWnd@@UAEXXZ
	DD	FLAT:?EndModalState@CWnd@@UAEXXZ
	DD	FLAT:?PreTranslateMessage@CWnd@@UAEHPAUtagMSG@@@Z
	DD	FLAT:?OnAmbientProperty@CWnd@@UAEHPAVCOleControlSite@@JPAUtagVARIANT@@@Z
	DD	FLAT:?WindowProc@CWnd@@MAEJIIJ@Z
	DD	FLAT:?OnWndMsg@CWnd@@MAEHIIJPAJ@Z
	DD	FLAT:?DefWindowProcA@CWnd@@MAEJIIJ@Z
	DD	FLAT:?PostNcDestroy@CWnd@@MAEXXZ
	DD	FLAT:?OnChildNotify@CWnd@@MAEHIIJPAJ@Z
	DD	FLAT:?CheckAutoCenter@CWnd@@UAEHXZ
	DD	FLAT:?IsFrameWnd@CWnd@@UBEHXZ
	DD	FLAT:?CreateControlContainer@CWnd@@MAEHPAPAVCOleControlContainer@@@Z
	DD	FLAT:?CreateControlSite@CWnd@@MAEHPAVCOleControlContainer@@PAPAVCOleControlSite@@IABU_GUID@@@Z
	DD	FLAT:?SetOccDialogInfo@CWnd@@MAEHPAU_AFX_OCC_DIALOG_INFO@@@Z
CONST	ENDS
;	COMDAT ??_R4CComboBoxHistory@@6B@
rdata$r	SEGMENT
??_R4CComboBoxHistory@@6B@ DD 00H			; CComboBoxHistory::`RTTI Complete Object Locator'
	DD	00H
	DD	00H
	DD	FLAT:??_R0?AVCComboBoxHistory@@@8
	DD	FLAT:??_R3CComboBoxHistory@@8
rdata$r	ENDS
;	COMDAT ??_R0?AVCComboBoxHistory@@@8
_DATA	SEGMENT
??_R0?AVCComboBoxHistory@@@8 DD FLAT:??_7type_info@@6B@	; CComboBoxHistory `RTTI Type Descriptor'
	DD	00H
	DB	'.?AVCComboBoxHistory@@', 00H
_DATA	ENDS
;	COMDAT ??_R3CComboBoxHistory@@8
rdata$r	SEGMENT
??_R3CComboBoxHistory@@8 DD 00H				; CComboBoxHistory::`RTTI Class Hierarchy Descriptor'
	DD	00H
	DD	04H
	DD	FLAT:??_R2CComboBoxHistory@@8
rdata$r	ENDS
;	COMDAT ??_R2CComboBoxHistory@@8
rdata$r	SEGMENT
??_R2CComboBoxHistory@@8 DD FLAT:??_R1A@?0A@A@CComboBoxHistory@@8 ; CComboBoxHistory::`RTTI Base Class Array'
	DD	FLAT:??_R1A@?0A@A@CWnd@@8
	DD	FLAT:??_R1A@?0A@A@CCmdTarget@@8
	DD	FLAT:??_R1A@?0A@A@CObject@@8
rdata$r	ENDS
;	COMDAT ??_R1A@?0A@A@CComboBoxHistory@@8
rdata$r	SEGMENT
??_R1A@?0A@A@CComboBoxHistory@@8 DD FLAT:??_R0?AVCComboBoxHistory@@@8 ; CComboBoxHistory::`RTTI Base Class Descriptor at (0,-1,0,0)'
	DD	03H
	DD	00H
	DD	0ffffffffH
	DD	00H
	DD	00H
; Function compile flags: /Odt /RTCsu
rdata$r	ENDS
_TEXT	SEGMENT
_this$ = -16						; size = 4
__$EHRec$ = -12						; size = 12
??0CComboBoxHistory@@QAE@XZ PROC NEAR			; CComboBoxHistory::CComboBoxHistory
; _this$ = ecx

; 325  : {

  00de0	55		 push	 ebp
  00de1	8b ec		 mov	 ebp, esp
  00de3	6a ff		 push	 -1
  00de5	68 00 00 00 00	 push	 __ehhandler$??0CComboBoxHistory@@QAE@XZ
  00dea	64 a1 00 00 00
	00		 mov	 eax, DWORD PTR fs:__except_list
  00df0	50		 push	 eax
  00df1	64 89 25 00 00
	00 00		 mov	 DWORD PTR fs:__except_list, esp
  00df8	51		 push	 ecx
  00df9	c7 45 f0 cc cc
	cc cc		 mov	 DWORD PTR [ebp-16], -858993460 ; ccccccccH
  00e00	89 4d f0	 mov	 DWORD PTR _this$[ebp], ecx
  00e03	8b 4d f0	 mov	 ecx, DWORD PTR _this$[ebp]
  00e06	e8 00 00 00 00	 call	 ??0CWnd@@QAE@XZ		; CWnd::CWnd
  00e0b	c7 45 fc 00 00
	00 00		 mov	 DWORD PTR __$EHRec$[ebp+8], 0
  00e12	8b 45 f0	 mov	 eax, DWORD PTR _this$[ebp]
  00e15	c7 00 00 00 00
	00		 mov	 DWORD PTR [eax], OFFSET FLAT:??_7CComboBoxHistory@@6B@
  00e1b	8b 4d f0	 mov	 ecx, DWORD PTR _this$[ebp]
  00e1e	83 c1 58	 add	 ecx, 88			; 00000058H
  00e21	e8 00 00 00 00	 call	 ??0CComboBoxHistoryList@@QAE@XZ ; CComboBoxHistoryList::CComboBoxHistoryList
  00e26	c6 45 fc 01	 mov	 BYTE PTR __$EHRec$[ebp+8], 1
  00e2a	8b 4d f0	 mov	 ecx, DWORD PTR _this$[ebp]
  00e2d	c7 81 c8 00 00
	00 00 00 00 00	 mov	 DWORD PTR [ecx+200], 0
  00e37	8b 55 f0	 mov	 edx, DWORD PTR _this$[ebp]
  00e3a	c7 82 cc 00 00
	00 ff ff ff 00	 mov	 DWORD PTR [edx+204], 16777215 ; 00ffffffH
  00e44	8b 4d f0	 mov	 ecx, DWORD PTR _this$[ebp]
  00e47	81 c1 d0 00 00
	00		 add	 ecx, 208		; 000000d0H
  00e4d	e8 00 00 00 00	 call	 ??0CFont@@QAE@XZ	; CFont::CFont
  00e52	8b 45 f0	 mov	 eax, DWORD PTR _this$[ebp]
  00e55	c7 80 d8 00 00
	00 00 00 00 00	 mov	 DWORD PTR [eax+216], 0

; 326  : }

  00e5f	c7 45 fc ff ff
	ff ff		 mov	 DWORD PTR __$EHRec$[ebp+8], -1
  00e66	8b 45 f0	 mov	 eax, DWORD PTR _this$[ebp]
  00e69	8b 4d f4	 mov	 ecx, DWORD PTR __$EHRec$[ebp]
  00e6c	64 89 0d 00 00
	00 00		 mov	 DWORD PTR fs:__except_list, ecx
  00e73	83 c4 10	 add	 esp, 16			; 00000010H
  00e76	3b ec		 cmp	 ebp, esp
  00e78	e8 00 00 00 00	 call	 __RTC_CheckEsp
  00e7d	8b e5		 mov	 esp, ebp
  00e7f	5d		 pop	 ebp
  00e80	c3		 ret	 0
_TEXT	ENDS
text$x	SEGMENT
$L189783:
  00071	8b 4d f0	 mov	 ecx, DWORD PTR _this$[ebp]
  00074	e9 00 00 00 00	 jmp	 ??1CWnd@@UAE@XZ		; CWnd::~CWnd
$L189784:
  00079	8b 4d f0	 mov	 ecx, DWORD PTR _this$[ebp]
  0007c	83 c1 58	 add	 ecx, 88			; 00000058H
  0007f	e9 00 00 00 00	 jmp	 ??1CComboBoxHistoryList@@UAE@XZ ; CComboBoxHistoryList::~CComboBoxHistoryList
__ehhandler$??0CComboBoxHistory@@QAE@XZ:
  00084	b8 00 00 00 00	 mov	 eax, OFFSET FLAT:$T189787
  00089	e9 00 00 00 00	 jmp	 ___CxxFrameHandler
text$x	ENDS
??0CComboBoxHistory@@QAE@XZ ENDP			; CComboBoxHistory::CComboBoxHistory
PUBLIC	??1CComboBoxHistory@@UAE@XZ			; CComboBoxHistory::~CComboBoxHistory
; Function compile flags: /Odt /RTCsu
;	COMDAT ??_GCComboBoxHistory@@UAEPAXI@Z
_TEXT	SEGMENT
_this$ = -4						; size = 4
___flags$ = 8						; size = 4
??_GCComboBoxHistory@@UAEPAXI@Z PROC NEAR		; CComboBoxHistory::`scalar deleting destructor', COMDAT
; _this$ = ecx
  00000	55		 push	 ebp
  00001	8b ec		 mov	 ebp, esp
  00003	51		 push	 ecx
  00004	c7 45 fc cc cc
	cc cc		 mov	 DWORD PTR [ebp-4], -858993460 ; ccccccccH
  0000b	89 4d fc	 mov	 DWORD PTR _this$[ebp], ecx
  0000e	8b 4d fc	 mov	 ecx, DWORD PTR _this$[ebp]
  00011	e8 00 00 00 00	 call	 ??1CComboBoxHistory@@UAE@XZ
  00016	8b 45 08	 mov	 eax, DWORD PTR ___flags$[ebp]
  00019	83 e0 01	 and	 eax, 1
  0001c	74 09		 je	 SHORT $L188154
  0001e	8b 4d fc	 mov	 ecx, DWORD PTR _this$[ebp]
  00021	51		 push	 ecx
  00022	e8 00 00 00 00	 call	 ??3CObject@@SGXPAX@Z	; CObject::operator delete
$L188154:
  00027	8b 45 fc	 mov	 eax, DWORD PTR _this$[ebp]
  0002a	83 c4 04	 add	 esp, 4
  0002d	3b ec		 cmp	 ebp, esp
  0002f	e8 00 00 00 00	 call	 __RTC_CheckEsp
  00034	8b e5		 mov	 esp, ebp
  00036	5d		 pop	 ebp
  00037	c2 04 00	 ret	 4
??_GCComboBoxHistory@@UAEPAXI@Z ENDP			; CComboBoxHistory::`scalar deleting destructor'
_TEXT	ENDS
EXTRN	??1CFont@@UAE@XZ:NEAR				; CFont::~CFont
;	COMDAT xdata$x
xdata$x	SEGMENT
$T189798 DD	0ffffffffH
	DD	FLAT:$L189792
	DD	00H
	DD	FLAT:$L189793
$T189796 DD	019930520H
	DD	02H
	DD	FLAT:$T189798
	DD	2 DUP(00H)
	DD	2 DUP(00H)
; Function compile flags: /Odt /RTCsu
xdata$x	ENDS
;	COMDAT ??1CComboBoxHistory@@UAE@XZ
_TEXT	SEGMENT
_this$ = -16						; size = 4
__$EHRec$ = -12						; size = 12
??1CComboBoxHistory@@UAE@XZ PROC NEAR			; CComboBoxHistory::~CComboBoxHistory, COMDAT
; _this$ = ecx
  00000	55		 push	 ebp
  00001	8b ec		 mov	 ebp, esp
  00003	6a ff		 push	 -1
  00005	68 00 00 00 00	 push	 __ehhandler$??1CComboBoxHistory@@UAE@XZ
  0000a	64 a1 00 00 00
	00		 mov	 eax, DWORD PTR fs:__except_list
  00010	50		 push	 eax
  00011	64 89 25 00 00
	00 00		 mov	 DWORD PTR fs:__except_list, esp
  00018	51		 push	 ecx
  00019	c7 45 f0 cc cc
	cc cc		 mov	 DWORD PTR [ebp-16], -858993460 ; ccccccccH
  00020	89 4d f0	 mov	 DWORD PTR _this$[ebp], ecx
  00023	c7 45 fc 01 00
	00 00		 mov	 DWORD PTR __$EHRec$[ebp+8], 1
  0002a	8b 4d f0	 mov	 ecx, DWORD PTR _this$[ebp]
  0002d	81 c1 d0 00 00
	00		 add	 ecx, 208		; 000000d0H
  00033	e8 00 00 00 00	 call	 ??1CFont@@UAE@XZ	; CFont::~CFont
  00038	c6 45 fc 00	 mov	 BYTE PTR __$EHRec$[ebp+8], 0
  0003c	8b 4d f0	 mov	 ecx, DWORD PTR _this$[ebp]
  0003f	83 c1 58	 add	 ecx, 88			; 00000058H
  00042	e8 00 00 00 00	 call	 ??1CComboBoxHistoryList@@UAE@XZ ; CComboBoxHistoryList::~CComboBoxHistoryList
  00047	c7 45 fc ff ff
	ff ff		 mov	 DWORD PTR __$EHRec$[ebp+8], -1
  0004e	8b 4d f0	 mov	 ecx, DWORD PTR _this$[ebp]
  00051	e8 00 00 00 00	 call	 ??1CWnd@@UAE@XZ		; CWnd::~CWnd
  00056	8b 4d f4	 mov	 ecx, DWORD PTR __$EHRec$[ebp]
  00059	64 89 0d 00 00
	00 00		 mov	 DWORD PTR fs:__except_list, ecx
  00060	83 c4 10	 add	 esp, 16			; 00000010H
  00063	3b ec		 cmp	 ebp, esp
  00065	e8 00 00 00 00	 call	 __RTC_CheckEsp
  0006a	8b e5		 mov	 esp, ebp
  0006c	5d		 pop	 ebp
  0006d	c3		 ret	 0
_TEXT	ENDS
;	COMDAT text$x
text$x	SEGMENT
$L189792:
  00000	8b 4d f0	 mov	 ecx, DWORD PTR _this$[ebp]
  00003	e9 00 00 00 00	 jmp	 ??1CWnd@@UAE@XZ		; CWnd::~CWnd
$L189793:
  00008	8b 4d f0	 mov	 ecx, DWORD PTR _this$[ebp]
  0000b	83 c1 58	 add	 ecx, 88			; 00000058H
  0000e	e9 00 00 00 00	 jmp	 ??1CComboBoxHistoryList@@UAE@XZ ; CComboBoxHistoryList::~CComboBoxHistoryList
__ehhandler$??1CComboBoxHistory@@UAE@XZ:
  00013	b8 00 00 00 00	 mov	 eax, OFFSET FLAT:$T189796
  00018	e9 00 00 00 00	 jmp	 ___CxxFrameHandler
text$x	ENDS
??1CComboBoxHistory@@UAE@XZ ENDP			; CComboBoxHistory::~CComboBoxHistory
PUBLIC	?GetThisMessageMap@CComboBoxHistory@@KGPBUAFX_MSGMAP@@XZ ; CComboBoxHistory::GetThisMessageMap
; Function compile flags: /Odt /RTCsu
_TEXT	SEGMENT
?GetThisMessageMap@CComboBoxHistory@@KGPBUAFX_MSGMAP@@XZ PROC NEAR ; CComboBoxHistory::GetThisMessageMap

; 328  : BEGIN_MESSAGE_MAP(CComboBoxHistory, CWnd)

  00e90	55		 push	 ebp
  00e91	8b ec		 mov	 ebp, esp
  00e93	b8 00 00 00 00	 mov	 eax, OFFSET FLAT:?messageMap@CComboBoxHistory@@1UAFX_MSGMAP@@B ; CComboBoxHistory::messageMap
  00e98	5d		 pop	 ebp
  00e99	c3		 ret	 0
?GetThisMessageMap@CComboBoxHistory@@KGPBUAFX_MSGMAP@@XZ ENDP ; CComboBoxHistory::GetThisMessageMap
; Function compile flags: /Odt /RTCsu
_this$ = -4						; size = 4
?GetMessageMap@CComboBoxHistory@@MBEPBUAFX_MSGMAP@@XZ PROC NEAR ; CComboBoxHistory::GetMessageMap
; _this$ = ecx

; 328  : BEGIN_MESSAGE_MAP(CComboBoxHistory, CWnd)

  00ea0	55		 push	 ebp
  00ea1	8b ec		 mov	 ebp, esp
  00ea3	51		 push	 ecx
  00ea4	c7 45 fc cc cc
	cc cc		 mov	 DWORD PTR [ebp-4], -858993460 ; ccccccccH
  00eab	89 4d fc	 mov	 DWORD PTR _this$[ebp], ecx
  00eae	b8 00 00 00 00	 mov	 eax, OFFSET FLAT:?messageMap@CComboBoxHistory@@1UAFX_MSGMAP@@B ; CComboBoxHistory::messageMap
  00eb3	8b e5		 mov	 esp, ebp
  00eb5	5d		 pop	 ebp
  00eb6	c3		 ret	 0
?GetMessageMap@CComboBoxHistory@@MBEPBUAFX_MSGMAP@@XZ ENDP ; CComboBoxHistory::GetMessageMap
_TEXT	ENDS
PUBLIC	?SetSkin@CComboBoxHistory@@QAEXAAK000PAVCDibBitmap@@1@Z ; CComboBoxHistory::SetSkin
; Function compile flags: /Odt /RTCsu
_TEXT	SEGMENT
_this$ = -4						; size = 4
_colorEdge$ = 8						; size = 4
_colorListBkg$ = 12					; size = 4
_colorListText$ = 16					; size = 4
_colorListSelect$ = 20					; size = 4
_pBitmapVert$ = 24					; size = 4
_pBitmapHorz$ = 28					; size = 4
?SetSkin@CComboBoxHistory@@QAEXAAK000PAVCDibBitmap@@1@Z PROC NEAR ; CComboBoxHistory::SetSkin
; _this$ = ecx

; 335  : {

  00ec0	55		 push	 ebp
  00ec1	8b ec		 mov	 ebp, esp
  00ec3	51		 push	 ecx
  00ec4	c7 45 fc cc cc
	cc cc		 mov	 DWORD PTR [ebp-4], -858993460 ; ccccccccH
  00ecb	89 4d fc	 mov	 DWORD PTR _this$[ebp], ecx

; 336  : 	m_colorEdge=colorEdge;

  00ece	8b 45 fc	 mov	 eax, DWORD PTR _this$[ebp]
  00ed1	8b 4d 08	 mov	 ecx, DWORD PTR _colorEdge$[ebp]
  00ed4	8b 11		 mov	 edx, DWORD PTR [ecx]
  00ed6	89 90 c8 00 00
	00		 mov	 DWORD PTR [eax+200], edx

; 337  : 	m_colorBkg=colorListBkg;

  00edc	8b 45 fc	 mov	 eax, DWORD PTR _this$[ebp]
  00edf	8b 4d 0c	 mov	 ecx, DWORD PTR _colorListBkg$[ebp]
  00ee2	8b 11		 mov	 edx, DWORD PTR [ecx]
  00ee4	89 90 cc 00 00
	00		 mov	 DWORD PTR [eax+204], edx

; 338  : 	m_pList.SetSkin(colorListBkg,colorListText,colorListSelect,pBitmapVert,pBitmapHorz);

  00eea	8b 45 1c	 mov	 eax, DWORD PTR _pBitmapHorz$[ebp]
  00eed	50		 push	 eax
  00eee	8b 4d 18	 mov	 ecx, DWORD PTR _pBitmapVert$[ebp]
  00ef1	51		 push	 ecx
  00ef2	8b 55 14	 mov	 edx, DWORD PTR _colorListSelect$[ebp]
  00ef5	52		 push	 edx
  00ef6	8b 45 10	 mov	 eax, DWORD PTR _colorListText$[ebp]
  00ef9	50		 push	 eax
  00efa	8b 4d 0c	 mov	 ecx, DWORD PTR _colorListBkg$[ebp]
  00efd	51		 push	 ecx
  00efe	8b 4d fc	 mov	 ecx, DWORD PTR _this$[ebp]
  00f01	83 c1 58	 add	 ecx, 88			; 00000058H
  00f04	e8 00 00 00 00	 call	 ?SetSkin@CComboBoxHistoryList@@QAEXAAK00PAVCDibBitmap@@1@Z ; CComboBoxHistoryList::SetSkin

; 339  : }

  00f09	83 c4 04	 add	 esp, 4
  00f0c	3b ec		 cmp	 ebp, esp
  00f0e	e8 00 00 00 00	 call	 __RTC_CheckEsp
  00f13	8b e5		 mov	 esp, ebp
  00f15	5d		 pop	 ebp
  00f16	c2 18 00	 ret	 24			; 00000018H
?SetSkin@CComboBoxHistory@@QAEXAAK000PAVCDibBitmap@@1@Z ENDP ; CComboBoxHistory::SetSkin
_TEXT	ENDS
EXTRN	?InsertColumn@CListCtrl@@QAEHHPBDHHH@Z:NEAR	; CListCtrl::InsertColumn
EXTRN	__imp__SendMessageA@16:NEAR
EXTRN	?CreateFontIndirectA@CFont@@QAEHPBUtagLOGFONTA@@@Z:NEAR ; CFont::CreateFontIndirectA
EXTRN	?GetSafeHwnd@CWnd@@QBEPAUHWND__@@XZ:NEAR	; CWnd::GetSafeHwnd
EXTRN	??0CRect@@QAE@HHHH@Z:NEAR			; CRect::CRect
EXTRN	?SetFont@CWnd@@QAEXPAVCFont@@H@Z:NEAR		; CWnd::SetFont
EXTRN	_memset:NEAR
EXTRN	_strcpy:NEAR
EXTRN	?GetExtendedStyle@CListCtrl@@QAEKXZ:NEAR	; CListCtrl::GetExtendedStyle
EXTRN	?SetExtendedStyle@CListCtrl@@QAEKK@Z:NEAR	; CListCtrl::SetExtendedStyle
; Function compile flags: /Odt /RTCsu
_TEXT	SEGMENT
$T189806 = -92						; size = 16
_lf$ = -72						; size = 60
_this$ = -8						; size = 4
__$ArrayPad$ = -4					; size = 4
__$ReturnAddr$ = 4					; size = 4
_lpCreateStruct$ = 8					; size = 4
?OnCreate@CComboBoxHistory@@IAEHPAUtagCREATESTRUCTA@@@Z PROC NEAR ; CComboBoxHistory::OnCreate
; _this$ = ecx

; 342  : {

  00f20	55		 push	 ebp
  00f21	8b ec		 mov	 ebp, esp
  00f23	83 ec 5c	 sub	 esp, 92			; 0000005cH
  00f26	56		 push	 esi
  00f27	57		 push	 edi
  00f28	51		 push	 ecx
  00f29	8d 7d a4	 lea	 edi, DWORD PTR [ebp-92]
  00f2c	b9 17 00 00 00	 mov	 ecx, 23			; 00000017H
  00f31	b8 cc cc cc cc	 mov	 eax, -858993460		; ccccccccH
  00f36	f3 ab		 rep stosd
  00f38	59		 pop	 ecx
  00f39	a1 00 00 00 00	 mov	 eax, DWORD PTR ___security_cookie
  00f3e	89 45 fc	 mov	 DWORD PTR __$ArrayPad$[ebp], eax
  00f41	89 4d f8	 mov	 DWORD PTR _this$[ebp], ecx

; 343  : 	if (CWnd::OnCreate(lpCreateStruct) == -1)

  00f44	8b 45 08	 mov	 eax, DWORD PTR _lpCreateStruct$[ebp]
  00f47	50		 push	 eax
  00f48	8b 4d f8	 mov	 ecx, DWORD PTR _this$[ebp]
  00f4b	e8 00 00 00 00	 call	 ?OnCreate@CWnd@@IAEHPAUtagCREATESTRUCTA@@@Z ; CWnd::OnCreate
  00f50	83 f8 ff	 cmp	 eax, -1
  00f53	75 08		 jne	 SHORT $L188189

; 344  : 		return -1;

  00f55	83 c8 ff	 or	 eax, -1
  00f58	e9 f8 00 00 00	 jmp	 $L188188
$L188189:

; 345  : 
; 346  : 	m_pList.SetMsgWnd(m_pMsgWnd);

  00f5d	8b 4d f8	 mov	 ecx, DWORD PTR _this$[ebp]
  00f60	8b 51 54	 mov	 edx, DWORD PTR [ecx+84]
  00f63	52		 push	 edx
  00f64	8b 4d f8	 mov	 ecx, DWORD PTR _this$[ebp]
  00f67	83 c1 58	 add	 ecx, 88			; 00000058H
  00f6a	e8 00 00 00 00	 call	 ?SetMsgWnd@CComboBoxHistoryList@@QAEXPAVCWnd@@@Z ; CComboBoxHistoryList::SetMsgWnd

; 347  : 	m_pList.Create(WS_VISIBLE|LVS_REPORT|LVS_NOCOLUMNHEADER|LVS_SHOWSELALWAYS,CRect(0,0,0,0),this,XSKINCOMBOBOX_HISTORY_LIST);

  00f6f	8b f4		 mov	 esi, esp
  00f71	68 14 27 00 00	 push	 10004			; 00002714H
  00f76	8b 45 f8	 mov	 eax, DWORD PTR _this$[ebp]
  00f79	50		 push	 eax
  00f7a	6a 00		 push	 0
  00f7c	6a 00		 push	 0
  00f7e	6a 00		 push	 0
  00f80	6a 00		 push	 0
  00f82	8d 4d a4	 lea	 ecx, DWORD PTR $T189806[ebp]
  00f85	e8 00 00 00 00	 call	 ??0CRect@@QAE@HHHH@Z	; CRect::CRect
  00f8a	50		 push	 eax
  00f8b	68 09 40 00 10	 push	 268451849		; 10004009H
  00f90	8b 4d f8	 mov	 ecx, DWORD PTR _this$[ebp]
  00f93	83 c1 58	 add	 ecx, 88			; 00000058H
  00f96	8b 55 f8	 mov	 edx, DWORD PTR _this$[ebp]
  00f99	8b 42 58	 mov	 eax, DWORD PTR [edx+88]
  00f9c	ff 90 38 01 00
	00		 call	 DWORD PTR [eax+312]
  00fa2	3b f4		 cmp	 esi, esp
  00fa4	e8 00 00 00 00	 call	 __RTC_CheckEsp

; 348  : 
; 349  : 	LOGFONT   lf;   
; 350  : 	memset(&lf,0,sizeof(LOGFONT));   

  00fa9	6a 3c		 push	 60			; 0000003cH
  00fab	6a 00		 push	 0
  00fad	8d 4d b8	 lea	 ecx, DWORD PTR _lf$[ebp]
  00fb0	51		 push	 ecx
  00fb1	e8 00 00 00 00	 call	 _memset
  00fb6	83 c4 0c	 add	 esp, 12			; 0000000cH

; 351  : 	strcpy(lf.lfFaceName,   "");   

  00fb9	68 00 00 00 00	 push	 OFFSET FLAT:$SG188193
  00fbe	8d 55 d4	 lea	 edx, DWORD PTR _lf$[ebp+28]
  00fc1	52		 push	 edx
  00fc2	e8 00 00 00 00	 call	 _strcpy
  00fc7	83 c4 08	 add	 esp, 8

; 352  : 	lf.lfHeight   =   12;   

  00fca	c7 45 b8 0c 00
	00 00		 mov	 DWORD PTR _lf$[ebp], 12	; 0000000cH

; 353  : 
; 354  : 	m_fontList.CreateFontIndirect(&lf);

  00fd1	8d 45 b8	 lea	 eax, DWORD PTR _lf$[ebp]
  00fd4	50		 push	 eax
  00fd5	8b 4d f8	 mov	 ecx, DWORD PTR _this$[ebp]
  00fd8	81 c1 d0 00 00
	00		 add	 ecx, 208		; 000000d0H
  00fde	e8 00 00 00 00	 call	 ?CreateFontIndirectA@CFont@@QAEHPBUtagLOGFONTA@@@Z ; CFont::CreateFontIndirectA

; 355  : 
; 356  : 	m_pList.SetFont(&m_fontList);

  00fe3	6a 01		 push	 1
  00fe5	8b 4d f8	 mov	 ecx, DWORD PTR _this$[ebp]
  00fe8	81 c1 d0 00 00
	00		 add	 ecx, 208		; 000000d0H
  00fee	51		 push	 ecx
  00fef	8b 4d f8	 mov	 ecx, DWORD PTR _this$[ebp]
  00ff2	83 c1 58	 add	 ecx, 88			; 00000058H
  00ff5	e8 00 00 00 00	 call	 ?SetFont@CWnd@@QAEXPAVCFont@@H@Z ; CWnd::SetFont

; 357  : 
; 358  : 	m_pList.SetExtendedStyle( m_pList.GetExtendedStyle()| LVS_EX_FULLROWSELECT | LVS_EX_TRACKSELECT );

  00ffa	8b 4d f8	 mov	 ecx, DWORD PTR _this$[ebp]
  00ffd	83 c1 58	 add	 ecx, 88			; 00000058H
  01000	e8 00 00 00 00	 call	 ?GetExtendedStyle@CListCtrl@@QAEKXZ ; CListCtrl::GetExtendedStyle
  01005	83 c8 20	 or	 eax, 32			; 00000020H
  01008	83 c8 08	 or	 eax, 8
  0100b	50		 push	 eax
  0100c	8b 4d f8	 mov	 ecx, DWORD PTR _this$[ebp]
  0100f	83 c1 58	 add	 ecx, 88			; 00000058H
  01012	e8 00 00 00 00	 call	 ?SetExtendedStyle@CListCtrl@@QAEKK@Z ; CListCtrl::SetExtendedStyle

; 359  : 
; 360  : 	::SendMessage(m_pList.GetSafeHwnd(), LVM_SETHOVERTIME, 0, 10);

  01017	8b f4		 mov	 esi, esp
  01019	6a 0a		 push	 10			; 0000000aH
  0101b	6a 00		 push	 0
  0101d	68 47 10 00 00	 push	 4167			; 00001047H
  01022	8b 4d f8	 mov	 ecx, DWORD PTR _this$[ebp]
  01025	83 c1 58	 add	 ecx, 88			; 00000058H
  01028	e8 00 00 00 00	 call	 ?GetSafeHwnd@CWnd@@QBEPAUHWND__@@XZ ; CWnd::GetSafeHwnd
  0102d	50		 push	 eax
  0102e	ff 15 00 00 00
	00		 call	 DWORD PTR __imp__SendMessageA@16
  01034	3b f4		 cmp	 esi, esp
  01036	e8 00 00 00 00	 call	 __RTC_CheckEsp

; 361  : 
; 362  : 	m_pList.InsertColumn(0, "");

  0103b	6a ff		 push	 -1
  0103d	6a ff		 push	 -1
  0103f	6a 00		 push	 0
  01041	68 00 00 00 00	 push	 OFFSET FLAT:$SG188194
  01046	6a 00		 push	 0
  01048	8b 4d f8	 mov	 ecx, DWORD PTR _this$[ebp]
  0104b	83 c1 58	 add	 ecx, 88			; 00000058H
  0104e	e8 00 00 00 00	 call	 ?InsertColumn@CListCtrl@@QAEHHPBDHHH@Z ; CListCtrl::InsertColumn

; 363  : 
; 364  : 	return 0;

  01053	33 c0		 xor	 eax, eax
$L188188:

; 365  : }

  01055	52		 push	 edx
  01056	8b cd		 mov	 ecx, ebp
  01058	50		 push	 eax
  01059	8d 15 00 00 00
	00		 lea	 edx, DWORD PTR $L189810
  0105f	e8 00 00 00 00	 call	 @_RTC_CheckStackVars@8
  01064	58		 pop	 eax
  01065	5a		 pop	 edx
  01066	8b 4d fc	 mov	 ecx, DWORD PTR __$ArrayPad$[ebp]
  01069	e8 00 00 00 00	 call	 @__security_check_cookie@4
  0106e	5f		 pop	 edi
  0106f	5e		 pop	 esi
  01070	83 c4 5c	 add	 esp, 92			; 0000005cH
  01073	3b ec		 cmp	 ebp, esp
  01075	e8 00 00 00 00	 call	 __RTC_CheckEsp
  0107a	8b e5		 mov	 esp, ebp
  0107c	5d		 pop	 ebp
  0107d	c2 04 00	 ret	 4
$L189810:
  01080	01 00 00 00	 DD	 1
  01084	00 00 00 00	 DD	 $L189809
$L189809:
  01088	b8 ff ff ff	 DD	 -72			; ffffffb8H
  0108c	3c 00 00 00	 DD	 60			; 0000003cH
  01090	00 00 00 00	 DD	 $L189807
$L189807:
  01094	6c		 DB	 108			; 0000006cH
  01095	66		 DB	 102			; 00000066H
  01096	00		 DB	 0
?OnCreate@CComboBoxHistory@@IAEHPAUtagCREATESTRUCTA@@@Z ENDP ; CComboBoxHistory::OnCreate
_TEXT	ENDS
EXTRN	??0CPen@@QAE@HHK@Z:NEAR				; CPen::CPen
EXTRN	??1CPen@@UAE@XZ:NEAR				; CPen::~CPen
EXTRN	?SelectObject@CDC@@QAEPAVCPen@@PAV2@@Z:NEAR	; CDC::SelectObject
EXTRN	?MoveTo@CDC@@QAE?AVCPoint@@HH@Z:NEAR		; CDC::MoveTo
EXTRN	?LineTo@CDC@@QAEHHH@Z:NEAR			; CDC::LineTo
xdata$x	SEGMENT
$T189822 DD	0ffffffffH
	DD	FLAT:$L189814
$T189816 DD	019930520H
	DD	01H
	DD	FLAT:$T189822
	DD	2 DUP(00H)
	DD	2 DUP(00H)
; Function compile flags: /Odt /RTCsu
xdata$x	ENDS
_TEXT	SEGMENT
$T189813 = -72						; size = 4
$T189812 = -68						; size = 8
_pOldPen$ = -60						; size = 4
_newPen$ = -52						; size = 8
_rectWnd$ = -36						; size = 16
_this$ = -16						; size = 4
__$EHRec$ = -12						; size = 12
_pDC$ = 8						; size = 4
?OnEraseBkgnd@CComboBoxHistory@@IAEHPAVCDC@@@Z PROC NEAR ; CComboBoxHistory::OnEraseBkgnd
; _this$ = ecx

; 369  : {

  010a0	55		 push	 ebp
  010a1	8b ec		 mov	 ebp, esp
  010a3	6a ff		 push	 -1
  010a5	68 00 00 00 00	 push	 __ehhandler$?OnEraseBkgnd@CComboBoxHistory@@IAEHPAVCDC@@@Z
  010aa	64 a1 00 00 00
	00		 mov	 eax, DWORD PTR fs:__except_list
  010b0	50		 push	 eax
  010b1	64 89 25 00 00
	00 00		 mov	 DWORD PTR fs:__except_list, esp
  010b8	83 ec 3c	 sub	 esp, 60			; 0000003cH
  010bb	57		 push	 edi
  010bc	51		 push	 ecx
  010bd	8d 7d b8	 lea	 edi, DWORD PTR [ebp-72]
  010c0	b9 0f 00 00 00	 mov	 ecx, 15			; 0000000fH
  010c5	b8 cc cc cc cc	 mov	 eax, -858993460		; ccccccccH
  010ca	f3 ab		 rep stosd
  010cc	59		 pop	 ecx
  010cd	89 4d f0	 mov	 DWORD PTR _this$[ebp], ecx

; 370  : 	CRect rectWnd;

  010d0	8d 4d dc	 lea	 ecx, DWORD PTR _rectWnd$[ebp]
  010d3	e8 00 00 00 00	 call	 ??0CRect@@QAE@XZ	; CRect::CRect

; 371  : 	GetClientRect(&rectWnd);

  010d8	8d 45 dc	 lea	 eax, DWORD PTR _rectWnd$[ebp]
  010db	50		 push	 eax
  010dc	8b 4d f0	 mov	 ecx, DWORD PTR _this$[ebp]
  010df	e8 00 00 00 00	 call	 ?GetClientRect@CWnd@@QBEXPAUtagRECT@@@Z ; CWnd::GetClientRect

; 372  : 	CPen newPen(PS_DASHDOTDOT,10,m_colorEdge);   

  010e4	8b 4d f0	 mov	 ecx, DWORD PTR _this$[ebp]
  010e7	8b 91 c8 00 00
	00		 mov	 edx, DWORD PTR [ecx+200]
  010ed	52		 push	 edx
  010ee	6a 0a		 push	 10			; 0000000aH
  010f0	6a 04		 push	 4
  010f2	8d 4d cc	 lea	 ecx, DWORD PTR _newPen$[ebp]
  010f5	e8 00 00 00 00	 call	 ??0CPen@@QAE@HHK@Z	; CPen::CPen
  010fa	c7 45 fc 00 00
	00 00		 mov	 DWORD PTR __$EHRec$[ebp+8], 0

; 373  : 	CPen *pOldPen=pDC->SelectObject(&newPen);

  01101	8d 45 cc	 lea	 eax, DWORD PTR _newPen$[ebp]
  01104	50		 push	 eax
  01105	8b 4d 08	 mov	 ecx, DWORD PTR _pDC$[ebp]
  01108	e8 00 00 00 00	 call	 ?SelectObject@CDC@@QAEPAVCPen@@PAV2@@Z ; CDC::SelectObject
  0110d	89 45 c4	 mov	 DWORD PTR _pOldPen$[ebp], eax

; 374  : 	pDC->MoveTo(rectWnd.left,rectWnd.top);

  01110	8b 4d e0	 mov	 ecx, DWORD PTR _rectWnd$[ebp+4]
  01113	51		 push	 ecx
  01114	8b 55 dc	 mov	 edx, DWORD PTR _rectWnd$[ebp]
  01117	52		 push	 edx
  01118	8d 45 bc	 lea	 eax, DWORD PTR $T189812[ebp]
  0111b	50		 push	 eax
  0111c	8b 4d 08	 mov	 ecx, DWORD PTR _pDC$[ebp]
  0111f	e8 00 00 00 00	 call	 ?MoveTo@CDC@@QAE?AVCPoint@@HH@Z ; CDC::MoveTo

; 375  : 	pDC->LineTo(rectWnd.right-1,rectWnd.top);

  01124	8b 4d e0	 mov	 ecx, DWORD PTR _rectWnd$[ebp+4]
  01127	51		 push	 ecx
  01128	8b 55 e4	 mov	 edx, DWORD PTR _rectWnd$[ebp+8]
  0112b	83 ea 01	 sub	 edx, 1
  0112e	52		 push	 edx
  0112f	8b 4d 08	 mov	 ecx, DWORD PTR _pDC$[ebp]
  01132	e8 00 00 00 00	 call	 ?LineTo@CDC@@QAEHHH@Z	; CDC::LineTo

; 376  : 	pDC->LineTo(rectWnd.right-1,rectWnd.bottom-1);

  01137	8b 45 e8	 mov	 eax, DWORD PTR _rectWnd$[ebp+12]
  0113a	83 e8 01	 sub	 eax, 1
  0113d	50		 push	 eax
  0113e	8b 4d e4	 mov	 ecx, DWORD PTR _rectWnd$[ebp+8]
  01141	83 e9 01	 sub	 ecx, 1
  01144	51		 push	 ecx
  01145	8b 4d 08	 mov	 ecx, DWORD PTR _pDC$[ebp]
  01148	e8 00 00 00 00	 call	 ?LineTo@CDC@@QAEHHH@Z	; CDC::LineTo

; 377  : 	pDC->LineTo(rectWnd.left,rectWnd.bottom-1);

  0114d	8b 55 e8	 mov	 edx, DWORD PTR _rectWnd$[ebp+12]
  01150	83 ea 01	 sub	 edx, 1
  01153	52		 push	 edx
  01154	8b 45 dc	 mov	 eax, DWORD PTR _rectWnd$[ebp]
  01157	50		 push	 eax
  01158	8b 4d 08	 mov	 ecx, DWORD PTR _pDC$[ebp]
  0115b	e8 00 00 00 00	 call	 ?LineTo@CDC@@QAEHHH@Z	; CDC::LineTo

; 378  : 	pDC->LineTo(rectWnd.left,rectWnd.top);

  01160	8b 4d e0	 mov	 ecx, DWORD PTR _rectWnd$[ebp+4]
  01163	51		 push	 ecx
  01164	8b 55 dc	 mov	 edx, DWORD PTR _rectWnd$[ebp]
  01167	52		 push	 edx
  01168	8b 4d 08	 mov	 ecx, DWORD PTR _pDC$[ebp]
  0116b	e8 00 00 00 00	 call	 ?LineTo@CDC@@QAEHHH@Z	; CDC::LineTo

; 379  : 	pDC->SelectObject(pOldPen);

  01170	8b 45 c4	 mov	 eax, DWORD PTR _pOldPen$[ebp]
  01173	50		 push	 eax
  01174	8b 4d 08	 mov	 ecx, DWORD PTR _pDC$[ebp]
  01177	e8 00 00 00 00	 call	 ?SelectObject@CDC@@QAEPAVCPen@@PAV2@@Z ; CDC::SelectObject

; 380  : 	rectWnd.top+=1;

  0117c	8b 4d e0	 mov	 ecx, DWORD PTR _rectWnd$[ebp+4]
  0117f	83 c1 01	 add	 ecx, 1
  01182	89 4d e0	 mov	 DWORD PTR _rectWnd$[ebp+4], ecx

; 381  : 	rectWnd.left+=1;

  01185	8b 55 dc	 mov	 edx, DWORD PTR _rectWnd$[ebp]
  01188	83 c2 01	 add	 edx, 1
  0118b	89 55 dc	 mov	 DWORD PTR _rectWnd$[ebp], edx

; 382  : 	rectWnd.bottom-=1;

  0118e	8b 45 e8	 mov	 eax, DWORD PTR _rectWnd$[ebp+12]
  01191	83 e8 01	 sub	 eax, 1
  01194	89 45 e8	 mov	 DWORD PTR _rectWnd$[ebp+12], eax

; 383  : 	rectWnd.right-=1;

  01197	8b 4d e4	 mov	 ecx, DWORD PTR _rectWnd$[ebp+8]
  0119a	83 e9 01	 sub	 ecx, 1
  0119d	89 4d e4	 mov	 DWORD PTR _rectWnd$[ebp+8], ecx

; 384  : 
; 385  : 	pDC->FillSolidRect(&rectWnd,m_colorBkg);

  011a0	8b 55 f0	 mov	 edx, DWORD PTR _this$[ebp]
  011a3	8b 82 cc 00 00
	00		 mov	 eax, DWORD PTR [edx+204]
  011a9	50		 push	 eax
  011aa	8d 4d dc	 lea	 ecx, DWORD PTR _rectWnd$[ebp]
  011ad	51		 push	 ecx
  011ae	8b 4d 08	 mov	 ecx, DWORD PTR _pDC$[ebp]
  011b1	e8 00 00 00 00	 call	 ?FillSolidRect@CDC@@QAEXPBUtagRECT@@K@Z ; CDC::FillSolidRect

; 386  : 	return FALSE;

  011b6	c7 45 b8 00 00
	00 00		 mov	 DWORD PTR $T189813[ebp], 0
  011bd	c7 45 fc ff ff
	ff ff		 mov	 DWORD PTR __$EHRec$[ebp+8], -1
  011c4	8d 4d cc	 lea	 ecx, DWORD PTR _newPen$[ebp]
  011c7	e8 00 00 00 00	 call	 ??1CPen@@UAE@XZ		; CPen::~CPen
  011cc	8b 45 b8	 mov	 eax, DWORD PTR $T189813[ebp]

; 387  : }

  011cf	52		 push	 edx
  011d0	8b cd		 mov	 ecx, ebp
  011d2	50		 push	 eax
  011d3	8d 15 00 00 00
	00		 lea	 edx, DWORD PTR $L189821
  011d9	e8 00 00 00 00	 call	 @_RTC_CheckStackVars@8
  011de	58		 pop	 eax
  011df	5a		 pop	 edx
  011e0	8b 4d f4	 mov	 ecx, DWORD PTR __$EHRec$[ebp]
  011e3	64 89 0d 00 00
	00 00		 mov	 DWORD PTR fs:__except_list, ecx
  011ea	5f		 pop	 edi
  011eb	83 c4 48	 add	 esp, 72			; 00000048H
  011ee	3b ec		 cmp	 ebp, esp
  011f0	e8 00 00 00 00	 call	 __RTC_CheckEsp
  011f5	8b e5		 mov	 esp, ebp
  011f7	5d		 pop	 ebp
  011f8	c2 04 00	 ret	 4
$L189821:
  011fb	02 00 00 00	 DD	 2
  011ff	00 00 00 00	 DD	 $L189820
$L189820:
  01203	dc ff ff ff	 DD	 -36			; ffffffdcH
  01207	10 00 00 00	 DD	 16			; 00000010H
  0120b	00 00 00 00	 DD	 $L189817
  0120f	cc ff ff ff	 DD	 -52			; ffffffccH
  01213	08 00 00 00	 DD	 8
  01217	00 00 00 00	 DD	 $L189818
$L189818:
  0121b	6e		 DB	 110			; 0000006eH
  0121c	65		 DB	 101			; 00000065H
  0121d	77		 DB	 119			; 00000077H
  0121e	50		 DB	 80			; 00000050H
  0121f	65		 DB	 101			; 00000065H
  01220	6e		 DB	 110			; 0000006eH
  01221	00		 DB	 0
$L189817:
  01222	72		 DB	 114			; 00000072H
  01223	65		 DB	 101			; 00000065H
  01224	63		 DB	 99			; 00000063H
  01225	74		 DB	 116			; 00000074H
  01226	57		 DB	 87			; 00000057H
  01227	6e		 DB	 110			; 0000006eH
  01228	64		 DB	 100			; 00000064H
  01229	00		 DB	 0
_TEXT	ENDS
text$x	SEGMENT
$L189814:
  0008e	8d 4d cc	 lea	 ecx, DWORD PTR _newPen$[ebp]
  00091	e9 00 00 00 00	 jmp	 ??1CPen@@UAE@XZ		; CPen::~CPen
__ehhandler$?OnEraseBkgnd@CComboBoxHistory@@IAEHPAVCDC@@@Z:
  00096	b8 00 00 00 00	 mov	 eax, OFFSET FLAT:$T189816
  0009b	e9 00 00 00 00	 jmp	 ___CxxFrameHandler
text$x	ENDS
?OnEraseBkgnd@CComboBoxHistory@@IAEHPAVCDC@@@Z ENDP	; CComboBoxHistory::OnEraseBkgnd
PUBLIC	?RefreshData@CComboBoxHistory@@QAEXAAV?$vector@V?$basic_string@DU?$char_traits@D@std@@V?$allocator@D@2@@std@@V?$allocator@V?$basic_string@DU?$char_traits@D@std@@V?$allocator@D@2@@std@@@2@@std@@@Z ; CComboBoxHistory::RefreshData
PUBLIC	?size@?$vector@V?$basic_string@DU?$char_traits@D@std@@V?$allocator@D@2@@std@@V?$allocator@V?$basic_string@DU?$char_traits@D@std@@V?$allocator@D@2@@std@@@2@@std@@QBEIXZ ; std::vector<std::basic_string<char,std::char_traits<char>,std::allocator<char> >,std::allocator<std::basic_string<char,std::char_traits<char>,std::allocator<char> > > >::size
PUBLIC	?at@?$vector@V?$basic_string@DU?$char_traits@D@std@@V?$allocator@D@2@@std@@V?$allocator@V?$basic_string@DU?$char_traits@D@std@@V?$allocator@D@2@@std@@@2@@std@@QAEAAV?$basic_string@DU?$char_traits@D@std@@V?$allocator@D@2@@2@I@Z ; std::vector<std::basic_string<char,std::char_traits<char>,std::allocator<char> >,std::allocator<std::basic_string<char,std::char_traits<char>,std::allocator<char> > > >::at
EXTRN	__imp__CreateFontIndirectA@4:NEAR
EXTRN	__imp__DeleteObject@4:NEAR
EXTRN	?SelectObject@CDC@@QAEPAXPAX@Z:NEAR		; CDC::SelectObject
EXTRN	__imp_?GetString@?$CSimpleStringT@D$00@ATL@@QBEPBDXZ:NEAR
EXTRN	?GetDC@CWnd@@QAEPAVCDC@@XZ:NEAR			; CWnd::GetDC
EXTRN	__imp_?c_str@?$basic_string@DU?$char_traits@D@std@@V?$allocator@D@2@@std@@QBEPBDXZ:NEAR
EXTRN	__imp_??0?$CStringT@DV?$StrTraitMFC_DLL@DV?$ChTraitsCRT@D@ATL@@@@@ATL@@QAE@PBD@Z:NEAR
EXTRN	__imp_?Trim@?$CStringT@DV?$StrTraitMFC_DLL@DV?$ChTraitsCRT@D@ATL@@@@@ATL@@QAEAAV12@XZ:NEAR
EXTRN	?InsertItem@CListCtrl@@QAEHHPBD@Z:NEAR		; CListCtrl::InsertItem
EXTRN	?DeleteAllItems@CListCtrl@@QAEHXZ:NEAR		; CListCtrl::DeleteAllItems
xdata$x	SEGMENT
$T189835 DD	0ffffffffH
	DD	FLAT:$L189825
$T189827 DD	019930520H
	DD	01H
	DD	FLAT:$T189835
	DD	2 DUP(00H)
	DD	2 DUP(00H)
; Function compile flags: /Odt /RTCsu
xdata$x	ENDS
_TEXT	SEGMENT
_size$188221 = -128					; size = 8
_str$188220 = -112					; size = 4
_i$188216 = -104					; size = 4
_hOldFont$ = -100					; size = 4
_hfont$ = -96						; size = 4
_lf$ = -88						; size = 60
_pDc$ = -24						; size = 4
_this$ = -20						; size = 4
__$ArrayPad$ = -16					; size = 4
__$EHRec$ = -12						; size = 12
__$ReturnAddr$ = 4					; size = 4
_vecString$ = 8						; size = 4
?RefreshData@CComboBoxHistory@@QAEXAAV?$vector@V?$basic_string@DU?$char_traits@D@std@@V?$allocator@D@2@@std@@V?$allocator@V?$basic_string@DU?$char_traits@D@std@@V?$allocator@D@2@@std@@@2@@std@@@Z PROC NEAR ; CComboBoxHistory::RefreshData
; _this$ = ecx

; 390  : {

  01230	55		 push	 ebp
  01231	8b ec		 mov	 ebp, esp
  01233	6a ff		 push	 -1
  01235	68 00 00 00 00	 push	 __ehhandler$?RefreshData@CComboBoxHistory@@QAEXAAV?$vector@V?$basic_string@DU?$char_traits@D@std@@V?$allocator@D@2@@std@@V?$allocator@V?$basic_string@DU?$char_traits@D@std@@V?$allocator@D@2@@std@@@2@@std@@@Z
  0123a	64 a1 00 00 00
	00		 mov	 eax, DWORD PTR fs:__except_list
  01240	50		 push	 eax
  01241	64 89 25 00 00
	00 00		 mov	 DWORD PTR fs:__except_list, esp
  01248	83 ec 78	 sub	 esp, 120		; 00000078H
  0124b	56		 push	 esi
  0124c	57		 push	 edi
  0124d	51		 push	 ecx
  0124e	8d bd 7c ff ff
	ff		 lea	 edi, DWORD PTR [ebp-132]
  01254	b9 1e 00 00 00	 mov	 ecx, 30			; 0000001eH
  01259	b8 cc cc cc cc	 mov	 eax, -858993460		; ccccccccH
  0125e	f3 ab		 rep stosd
  01260	59		 pop	 ecx
  01261	a1 00 00 00 00	 mov	 eax, DWORD PTR ___security_cookie
  01266	89 45 f0	 mov	 DWORD PTR __$ArrayPad$[ebp], eax
  01269	89 4d ec	 mov	 DWORD PTR _this$[ebp], ecx

; 391  : 	m_pList.DeleteAllItems();

  0126c	8b 4d ec	 mov	 ecx, DWORD PTR _this$[ebp]
  0126f	83 c1 58	 add	 ecx, 88			; 00000058H
  01272	e8 00 00 00 00	 call	 ?DeleteAllItems@CListCtrl@@QAEHXZ ; CListCtrl::DeleteAllItems

; 392  : 
; 393  : 	m_iMaxWidth=0;

  01277	8b 45 ec	 mov	 eax, DWORD PTR _this$[ebp]
  0127a	c7 80 d8 00 00
	00 00 00 00 00	 mov	 DWORD PTR [eax+216], 0

; 394  : 	CDC *pDc=m_pList.GetDC();

  01284	8b 4d ec	 mov	 ecx, DWORD PTR _this$[ebp]
  01287	83 c1 58	 add	 ecx, 88			; 00000058H
  0128a	e8 00 00 00 00	 call	 ?GetDC@CWnd@@QAEPAVCDC@@XZ ; CWnd::GetDC
  0128f	89 45 e8	 mov	 DWORD PTR _pDc$[ebp], eax

; 395  : 	LOGFONT   lf;   
; 396  : 	memset(&lf,0,sizeof(LOGFONT));   

  01292	6a 3c		 push	 60			; 0000003cH
  01294	6a 00		 push	 0
  01296	8d 4d a8	 lea	 ecx, DWORD PTR _lf$[ebp]
  01299	51		 push	 ecx
  0129a	e8 00 00 00 00	 call	 _memset
  0129f	83 c4 0c	 add	 esp, 12			; 0000000cH

; 397  : 	strcpy(lf.lfFaceName,   "");   

  012a2	68 00 00 00 00	 push	 OFFSET FLAT:$SG188212
  012a7	8d 55 c4	 lea	 edx, DWORD PTR _lf$[ebp+28]
  012aa	52		 push	 edx
  012ab	e8 00 00 00 00	 call	 _strcpy
  012b0	83 c4 08	 add	 esp, 8

; 398  : 	lf.lfHeight   =   12;   

  012b3	c7 45 a8 0c 00
	00 00		 mov	 DWORD PTR _lf$[ebp], 12	; 0000000cH

; 399  : 	HFONT hfont=CreateFontIndirect(&lf);   

  012ba	8b f4		 mov	 esi, esp
  012bc	8d 45 a8	 lea	 eax, DWORD PTR _lf$[ebp]
  012bf	50		 push	 eax
  012c0	ff 15 00 00 00
	00		 call	 DWORD PTR __imp__CreateFontIndirectA@4
  012c6	3b f4		 cmp	 esi, esp
  012c8	e8 00 00 00 00	 call	 __RTC_CheckEsp
  012cd	89 45 a0	 mov	 DWORD PTR _hfont$[ebp], eax

; 400  : 	HFONT hOldFont=(HFONT)pDc->SelectObject(hfont);

  012d0	8b 4d a0	 mov	 ecx, DWORD PTR _hfont$[ebp]
  012d3	51		 push	 ecx
  012d4	8b 4d e8	 mov	 ecx, DWORD PTR _pDc$[ebp]
  012d7	e8 00 00 00 00	 call	 ?SelectObject@CDC@@QAEPAXPAX@Z ; CDC::SelectObject
  012dc	89 45 9c	 mov	 DWORD PTR _hOldFont$[ebp], eax

; 401  : 	for (int i=0;i<vecString.size();++i)

  012df	c7 45 98 00 00
	00 00		 mov	 DWORD PTR _i$188216[ebp], 0
  012e6	eb 09		 jmp	 SHORT $L188217
$L188218:
  012e8	8b 55 98	 mov	 edx, DWORD PTR _i$188216[ebp]
  012eb	83 c2 01	 add	 edx, 1
  012ee	89 55 98	 mov	 DWORD PTR _i$188216[ebp], edx
$L188217:
  012f1	8b 4d 08	 mov	 ecx, DWORD PTR _vecString$[ebp]
  012f4	e8 00 00 00 00	 call	 ?size@?$vector@V?$basic_string@DU?$char_traits@D@std@@V?$allocator@D@2@@std@@V?$allocator@V?$basic_string@DU?$char_traits@D@std@@V?$allocator@D@2@@std@@@2@@std@@QBEIXZ ; std::vector<std::basic_string<char,std::char_traits<char>,std::allocator<char> >,std::allocator<std::basic_string<char,std::char_traits<char>,std::allocator<char> > > >::size
  012f9	39 45 98	 cmp	 DWORD PTR _i$188216[ebp], eax
  012fc	0f 83 b0 00 00
	00		 jae	 $L188219

; 402  : 	{
; 403  : 		CString str=vecString.at(i).c_str();

  01302	8b 45 98	 mov	 eax, DWORD PTR _i$188216[ebp]
  01305	50		 push	 eax
  01306	8b 4d 08	 mov	 ecx, DWORD PTR _vecString$[ebp]
  01309	e8 00 00 00 00	 call	 ?at@?$vector@V?$basic_string@DU?$char_traits@D@std@@V?$allocator@D@2@@std@@V?$allocator@V?$basic_string@DU?$char_traits@D@std@@V?$allocator@D@2@@std@@@2@@std@@QAEAAV?$basic_string@DU?$char_traits@D@std@@V?$allocator@D@2@@2@I@Z ; std::vector<std::basic_string<char,std::char_traits<char>,std::allocator<char> >,std::allocator<std::basic_string<char,std::char_traits<char>,std::allocator<char> > > >::at
  0130e	8b f4		 mov	 esi, esp
  01310	8b c8		 mov	 ecx, eax
  01312	ff 15 00 00 00
	00		 call	 DWORD PTR __imp_?c_str@?$basic_string@DU?$char_traits@D@std@@V?$allocator@D@2@@std@@QBEPBDXZ
  01318	3b f4		 cmp	 esi, esp
  0131a	e8 00 00 00 00	 call	 __RTC_CheckEsp
  0131f	8b f4		 mov	 esi, esp
  01321	50		 push	 eax
  01322	8d 4d 90	 lea	 ecx, DWORD PTR _str$188220[ebp]
  01325	ff 15 00 00 00
	00		 call	 DWORD PTR __imp_??0?$CStringT@DV?$StrTraitMFC_DLL@DV?$ChTraitsCRT@D@ATL@@@@@ATL@@QAE@PBD@Z
  0132b	3b f4		 cmp	 esi, esp
  0132d	e8 00 00 00 00	 call	 __RTC_CheckEsp
  01332	c7 45 fc 00 00
	00 00		 mov	 DWORD PTR __$EHRec$[ebp+8], 0

; 404  : 		m_pList.InsertItem(i,str.GetString());

  01339	8b f4		 mov	 esi, esp
  0133b	8d 4d 90	 lea	 ecx, DWORD PTR _str$188220[ebp]
  0133e	ff 15 00 00 00
	00		 call	 DWORD PTR __imp_?GetString@?$CSimpleStringT@D$00@ATL@@QBEPBDXZ
  01344	3b f4		 cmp	 esi, esp
  01346	e8 00 00 00 00	 call	 __RTC_CheckEsp
  0134b	50		 push	 eax
  0134c	8b 4d 98	 mov	 ecx, DWORD PTR _i$188216[ebp]
  0134f	51		 push	 ecx
  01350	8b 4d ec	 mov	 ecx, DWORD PTR _this$[ebp]
  01353	83 c1 58	 add	 ecx, 88			; 00000058H
  01356	e8 00 00 00 00	 call	 ?InsertItem@CListCtrl@@QAEHHPBD@Z ; CListCtrl::InsertItem

; 405  : 
; 406  : 		CSize size=pDc->GetTextExtent(str.Trim());

  0135b	8b f4		 mov	 esi, esp
  0135d	8d 4d 90	 lea	 ecx, DWORD PTR _str$188220[ebp]
  01360	ff 15 00 00 00
	00		 call	 DWORD PTR __imp_?Trim@?$CStringT@DV?$StrTraitMFC_DLL@DV?$ChTraitsCRT@D@ATL@@@@@ATL@@QAEAAV12@XZ
  01366	3b f4		 cmp	 esi, esp
  01368	e8 00 00 00 00	 call	 __RTC_CheckEsp
  0136d	50		 push	 eax
  0136e	8d 55 80	 lea	 edx, DWORD PTR _size$188221[ebp]
  01371	52		 push	 edx
  01372	8b 4d e8	 mov	 ecx, DWORD PTR _pDc$[ebp]
  01375	e8 00 00 00 00	 call	 ?GetTextExtent@CDC@@QBE?AVCSize@@ABV?$CStringT@DV?$StrTraitMFC_DLL@DV?$ChTraitsCRT@D@ATL@@@@@ATL@@@Z ; CDC::GetTextExtent

; 407  : 
; 408  : 		if (size.cx>m_iMaxWidth)

  0137a	8b 45 ec	 mov	 eax, DWORD PTR _this$[ebp]
  0137d	8b 4d 80	 mov	 ecx, DWORD PTR _size$188221[ebp]
  01380	3b 88 d8 00 00
	00		 cmp	 ecx, DWORD PTR [eax+216]
  01386	7e 0c		 jle	 SHORT $L188223

; 409  : 		{
; 410  : 			m_iMaxWidth=size.cx;

  01388	8b 55 ec	 mov	 edx, DWORD PTR _this$[ebp]
  0138b	8b 45 80	 mov	 eax, DWORD PTR _size$188221[ebp]
  0138e	89 82 d8 00 00
	00		 mov	 DWORD PTR [edx+216], eax
$L188223:

; 411  : 		}
; 412  : 	}

  01394	c7 45 fc ff ff
	ff ff		 mov	 DWORD PTR __$EHRec$[ebp+8], -1
  0139b	8b f4		 mov	 esi, esp
  0139d	8d 4d 90	 lea	 ecx, DWORD PTR _str$188220[ebp]
  013a0	ff 15 00 00 00
	00		 call	 DWORD PTR __imp_??1?$CStringT@DV?$StrTraitMFC_DLL@DV?$ChTraitsCRT@D@ATL@@@@@ATL@@QAE@XZ
  013a6	3b f4		 cmp	 esi, esp
  013a8	e8 00 00 00 00	 call	 __RTC_CheckEsp
  013ad	e9 36 ff ff ff	 jmp	 $L188218
$L188219:

; 413  : 	pDc->SelectObject(hOldFont);

  013b2	8b 4d 9c	 mov	 ecx, DWORD PTR _hOldFont$[ebp]
  013b5	51		 push	 ecx
  013b6	8b 4d e8	 mov	 ecx, DWORD PTR _pDc$[ebp]
  013b9	e8 00 00 00 00	 call	 ?SelectObject@CDC@@QAEPAXPAX@Z ; CDC::SelectObject

; 414  : 	DeleteObject(hfont);

  013be	8b f4		 mov	 esi, esp
  013c0	8b 55 a0	 mov	 edx, DWORD PTR _hfont$[ebp]
  013c3	52		 push	 edx
  013c4	ff 15 00 00 00
	00		 call	 DWORD PTR __imp__DeleteObject@4
  013ca	3b f4		 cmp	 esi, esp
  013cc	e8 00 00 00 00	 call	 __RTC_CheckEsp

; 415  : }

  013d1	52		 push	 edx
  013d2	8b cd		 mov	 ecx, ebp
  013d4	50		 push	 eax
  013d5	8d 15 00 00 00
	00		 lea	 edx, DWORD PTR $L189834
  013db	e8 00 00 00 00	 call	 @_RTC_CheckStackVars@8
  013e0	58		 pop	 eax
  013e1	5a		 pop	 edx
  013e2	8b 4d f4	 mov	 ecx, DWORD PTR __$EHRec$[ebp]
  013e5	64 89 0d 00 00
	00 00		 mov	 DWORD PTR fs:__except_list, ecx
  013ec	8b 4d f0	 mov	 ecx, DWORD PTR __$ArrayPad$[ebp]
  013ef	e8 00 00 00 00	 call	 @__security_check_cookie@4
  013f4	5f		 pop	 edi
  013f5	5e		 pop	 esi
  013f6	81 c4 84 00 00
	00		 add	 esp, 132		; 00000084H
  013fc	3b ec		 cmp	 ebp, esp
  013fe	e8 00 00 00 00	 call	 __RTC_CheckEsp
  01403	8b e5		 mov	 esp, ebp
  01405	5d		 pop	 ebp
  01406	c2 04 00	 ret	 4
$L189834:
  01409	03 00 00 00	 DD	 3
  0140d	00 00 00 00	 DD	 $L189833
$L189833:
  01411	a8 ff ff ff	 DD	 -88			; ffffffa8H
  01415	3c 00 00 00	 DD	 60			; 0000003cH
  01419	00 00 00 00	 DD	 $L189828
  0141d	90 ff ff ff	 DD	 -112			; ffffff90H
  01421	04 00 00 00	 DD	 4
  01425	00 00 00 00	 DD	 $L189829
  01429	80 ff ff ff	 DD	 -128			; ffffff80H
  0142d	08 00 00 00	 DD	 8
  01431	00 00 00 00	 DD	 $L189830
$L189830:
  01435	73		 DB	 115			; 00000073H
  01436	69		 DB	 105			; 00000069H
  01437	7a		 DB	 122			; 0000007aH
  01438	65		 DB	 101			; 00000065H
  01439	00		 DB	 0
$L189829:
  0143a	73		 DB	 115			; 00000073H
  0143b	74		 DB	 116			; 00000074H
  0143c	72		 DB	 114			; 00000072H
  0143d	00		 DB	 0
$L189828:
  0143e	6c		 DB	 108			; 0000006cH
  0143f	66		 DB	 102			; 00000066H
  01440	00		 DB	 0
_TEXT	ENDS
text$x	SEGMENT
$L189825:
  000a0	8b f4		 mov	 esi, esp
  000a2	8d 4d 90	 lea	 ecx, DWORD PTR _str$188220[ebp]
  000a5	ff 15 00 00 00
	00		 call	 DWORD PTR __imp_??1?$CStringT@DV?$StrTraitMFC_DLL@DV?$ChTraitsCRT@D@ATL@@@@@ATL@@QAE@XZ
  000ab	3b f4		 cmp	 esi, esp
  000ad	e9 00 00 00 00	 jmp	 __RTC_CheckEsp
__ehhandler$?RefreshData@CComboBoxHistory@@QAEXAAV?$vector@V?$basic_string@DU?$char_traits@D@std@@V?$allocator@D@2@@std@@V?$allocator@V?$basic_string@DU?$char_traits@D@std@@V?$allocator@D@2@@std@@@2@@std@@@Z:
  000b2	b8 00 00 00 00	 mov	 eax, OFFSET FLAT:$T189827
  000b7	e9 00 00 00 00	 jmp	 ___CxxFrameHandler
text$x	ENDS
?RefreshData@CComboBoxHistory@@QAEXAAV?$vector@V?$basic_string@DU?$char_traits@D@std@@V?$allocator@D@2@@std@@V?$allocator@V?$basic_string@DU?$char_traits@D@std@@V?$allocator@D@2@@std@@@2@@std@@@Z ENDP ; CComboBoxHistory::RefreshData
PUBLIC	?InterlockedExchangePointer@@YGPAXPAPAXPAX@Z	; InterlockedExchangePointer
PUBLIC	?_AtlGetThreadACPFake@ATL@@YGIXZ		; ATL::_AtlGetThreadACPFake
PUBLIC	?_AtlGetThreadACPReal@ATL@@YGIXZ		; ATL::_AtlGetThreadACPReal
EXTRN	__imp__GetVersionExA@4:NEAR
; Function compile flags: /Odt /RTCsu
; File d:\program files (x86)\microsoft visual studio .net 2003\vc7\atlmfc\include\atlconv.h
;	COMDAT ?_AtlGetThreadACPThunk@ATL@@YGIXZ
_TEXT	SEGMENT
_pfnGetThreadACP$ = -164				; size = 4
_ver$ = -156						; size = 148
__$ArrayPad$ = -4					; size = 4
__$ReturnAddr$ = 4					; size = 4
?_AtlGetThreadACPThunk@ATL@@YGIXZ PROC NEAR		; ATL::_AtlGetThreadACPThunk, COMDAT

; 134  : {

  00000	55		 push	 ebp
  00001	8b ec		 mov	 ebp, esp
  00003	81 ec a4 00 00
	00		 sub	 esp, 164		; 000000a4H
  00009	56		 push	 esi
  0000a	57		 push	 edi
  0000b	8d bd 5c ff ff
	ff		 lea	 edi, DWORD PTR [ebp-164]
  00011	b9 29 00 00 00	 mov	 ecx, 41			; 00000029H
  00016	b8 cc cc cc cc	 mov	 eax, -858993460		; ccccccccH
  0001b	f3 ab		 rep stosd
  0001d	a1 00 00 00 00	 mov	 eax, DWORD PTR ___security_cookie
  00022	89 45 fc	 mov	 DWORD PTR __$ArrayPad$[ebp], eax

; 135  : 	OSVERSIONINFO ver;
; 136  : 	ATLGETTHREADACP pfnGetThreadACP;
; 137  : 
; 138  : 	ver.dwOSVersionInfoSize = sizeof( ver );

  00025	c7 85 64 ff ff
	ff 94 00 00 00	 mov	 DWORD PTR _ver$[ebp], 148 ; 00000094H

; 139  : 	::GetVersionEx( &ver );

  0002f	8b f4		 mov	 esi, esp
  00031	8d 85 64 ff ff
	ff		 lea	 eax, DWORD PTR _ver$[ebp]
  00037	50		 push	 eax
  00038	ff 15 00 00 00
	00		 call	 DWORD PTR __imp__GetVersionExA@4
  0003e	3b f4		 cmp	 esi, esp
  00040	e8 00 00 00 00	 call	 __RTC_CheckEsp

; 140  : 	if( (ver.dwPlatformId == VER_PLATFORM_WIN32_NT) && (ver.dwMajorVersion >= 5) )

  00045	83 bd 74 ff ff
	ff 02		 cmp	 DWORD PTR _ver$[ebp+16], 2
  0004c	75 15		 jne	 SHORT $L24163
  0004e	83 bd 68 ff ff
	ff 05		 cmp	 DWORD PTR _ver$[ebp+4], 5
  00055	72 0c		 jb	 SHORT $L24163

; 141  : 	{
; 142  : 		// On Win2K, CP_THREAD_ACP is supported
; 143  : 		pfnGetThreadACP = _AtlGetThreadACPReal;

  00057	c7 85 5c ff ff
	ff 00 00 00 00	 mov	 DWORD PTR _pfnGetThreadACP$[ebp], OFFSET FLAT:?_AtlGetThreadACPReal@ATL@@YGIXZ ; ATL::_AtlGetThreadACPReal

; 144  : 	}
; 145  : 	else

  00061	eb 0a		 jmp	 SHORT $L24164
$L24163:

; 146  : 	{
; 147  : 		pfnGetThreadACP = _AtlGetThreadACPFake;

  00063	c7 85 5c ff ff
	ff 00 00 00 00	 mov	 DWORD PTR _pfnGetThreadACP$[ebp], OFFSET FLAT:?_AtlGetThreadACPFake@ATL@@YGIXZ ; ATL::_AtlGetThreadACPFake
$L24164:

; 148  : 	}
; 149  : 	InterlockedExchangePointer( reinterpret_cast< void** >(&g_pfnGetThreadACP), pfnGetThreadACP );

  0006d	8b 8d 5c ff ff
	ff		 mov	 ecx, DWORD PTR _pfnGetThreadACP$[ebp]
  00073	51		 push	 ecx
  00074	68 00 00 00 00	 push	 OFFSET FLAT:?g_pfnGetThreadACP@ATL@@3P6GIXZA ; ATL::g_pfnGetThreadACP
  00079	e8 00 00 00 00	 call	 ?InterlockedExchangePointer@@YGPAXPAPAXPAX@Z ; InterlockedExchangePointer

; 150  : 
; 151  : 	return( g_pfnGetThreadACP() );

  0007e	8b f4		 mov	 esi, esp
  00080	ff 15 00 00 00
	00		 call	 DWORD PTR ?g_pfnGetThreadACP@ATL@@3P6GIXZA ; ATL::g_pfnGetThreadACP
  00086	3b f4		 cmp	 esi, esp
  00088	e8 00 00 00 00	 call	 __RTC_CheckEsp

; 152  : }

  0008d	52		 push	 edx
  0008e	8b cd		 mov	 ecx, ebp
  00090	50		 push	 eax
  00091	8d 15 00 00 00
	00		 lea	 edx, DWORD PTR $L189841
  00097	e8 00 00 00 00	 call	 @_RTC_CheckStackVars@8
  0009c	58		 pop	 eax
  0009d	5a		 pop	 edx
  0009e	8b 4d fc	 mov	 ecx, DWORD PTR __$ArrayPad$[ebp]
  000a1	e8 00 00 00 00	 call	 @__security_check_cookie@4
  000a6	5f		 pop	 edi
  000a7	5e		 pop	 esi
  000a8	81 c4 a4 00 00
	00		 add	 esp, 164		; 000000a4H
  000ae	3b ec		 cmp	 ebp, esp
  000b0	e8 00 00 00 00	 call	 __RTC_CheckEsp
  000b5	8b e5		 mov	 esp, ebp
  000b7	5d		 pop	 ebp
  000b8	c3		 ret	 0
$L189841:
  000b9	01 00 00 00	 DD	 1
  000bd	00 00 00 00	 DD	 $L189840
$L189840:
  000c1	64 ff ff ff	 DD	 -156			; ffffff64H
  000c5	94 00 00 00	 DD	 148			; 00000094H
  000c9	00 00 00 00	 DD	 $L189838
$L189838:
  000cd	76		 DB	 118			; 00000076H
  000ce	65		 DB	 101			; 00000065H
  000cf	72		 DB	 114			; 00000072H
  000d0	00		 DB	 0
?_AtlGetThreadACPThunk@ATL@@YGIXZ ENDP			; ATL::_AtlGetThreadACPThunk
_TEXT	ENDS
EXTRN	__imp__InterlockedExchange@8:NEAR
; Function compile flags: /Odt /RTCsu
;	COMDAT ?InterlockedExchangePointer@@YGPAXPAPAXPAX@Z
_TEXT	SEGMENT
_pp$ = 8						; size = 4
_pNew$ = 12						; size = 4
?InterlockedExchangePointer@@YGPAXPAPAXPAX@Z PROC NEAR	; InterlockedExchangePointer, COMDAT

; 91   : {

  00000	55		 push	 ebp
  00001	8b ec		 mov	 ebp, esp
  00003	56		 push	 esi

; 92   : 	return( reinterpret_cast<void*>(static_cast<LONG_PTR>(::InterlockedExchange(reinterpret_cast<LONG*>(pp), static_cast<LONG>(reinterpret_cast<LONG_PTR>(pNew))))) );

  00004	8b f4		 mov	 esi, esp
  00006	8b 45 0c	 mov	 eax, DWORD PTR _pNew$[ebp]
  00009	50		 push	 eax
  0000a	8b 4d 08	 mov	 ecx, DWORD PTR _pp$[ebp]
  0000d	51		 push	 ecx
  0000e	ff 15 00 00 00
	00		 call	 DWORD PTR __imp__InterlockedExchange@8
  00014	3b f4		 cmp	 esi, esp
  00016	e8 00 00 00 00	 call	 __RTC_CheckEsp

; 93   : }

  0001b	5e		 pop	 esi
  0001c	3b ec		 cmp	 ebp, esp
  0001e	e8 00 00 00 00	 call	 __RTC_CheckEsp
  00023	5d		 pop	 ebp
  00024	c2 08 00	 ret	 8
?InterlockedExchangePointer@@YGPAXPAPAXPAX@Z ENDP	; InterlockedExchangePointer
_TEXT	ENDS
EXTRN	__imp__GetACP@0:NEAR
EXTRN	__imp__GetLocaleInfoA@16:NEAR
EXTRN	__imp__GetThreadLocale@0:NEAR
; Function compile flags: /Odt /RTCsu
;	COMDAT ?_AtlGetThreadACPFake@ATL@@YGIXZ
_TEXT	SEGMENT
_pch$24151 = -32					; size = 4
_szACP$ = -24						; size = 7
_lcidThread$ = -12					; size = 4
_nACP$ = -8						; size = 4
__$ArrayPad$ = -4					; size = 4
__$ReturnAddr$ = 4					; size = 4
?_AtlGetThreadACPFake@ATL@@YGIXZ PROC NEAR		; ATL::_AtlGetThreadACPFake, COMDAT

; 101  : {

  00000	55		 push	 ebp
  00001	8b ec		 mov	 ebp, esp
  00003	83 ec 20	 sub	 esp, 32			; 00000020H
  00006	56		 push	 esi
  00007	b8 cc cc cc cc	 mov	 eax, -858993460		; ccccccccH
  0000c	89 45 e0	 mov	 DWORD PTR [ebp-32], eax
  0000f	89 45 e4	 mov	 DWORD PTR [ebp-28], eax
  00012	89 45 e8	 mov	 DWORD PTR [ebp-24], eax
  00015	89 45 ec	 mov	 DWORD PTR [ebp-20], eax
  00018	89 45 f0	 mov	 DWORD PTR [ebp-16], eax
  0001b	89 45 f4	 mov	 DWORD PTR [ebp-12], eax
  0001e	89 45 f8	 mov	 DWORD PTR [ebp-8], eax
  00021	89 45 fc	 mov	 DWORD PTR [ebp-4], eax
  00024	a1 00 00 00 00	 mov	 eax, DWORD PTR ___security_cookie
  00029	89 45 fc	 mov	 DWORD PTR __$ArrayPad$[ebp], eax

; 102  : 	UINT nACP = 0;

  0002c	c7 45 f8 00 00
	00 00		 mov	 DWORD PTR _nACP$[ebp], 0

; 103  : 
; 104  : 	LCID lcidThread = ::GetThreadLocale();

  00033	8b f4		 mov	 esi, esp
  00035	ff 15 00 00 00
	00		 call	 DWORD PTR __imp__GetThreadLocale@0
  0003b	3b f4		 cmp	 esi, esp
  0003d	e8 00 00 00 00	 call	 __RTC_CheckEsp
  00042	89 45 f4	 mov	 DWORD PTR _lcidThread$[ebp], eax

; 105  : 
; 106  : 	char szACP[7];
; 107  : 	// GetLocaleInfoA will fail for a Unicode-only LCID, but those are only supported on 
; 108  : 	// Windows 2000.  Since Windows 2000 supports CP_THREAD_ACP, this code path is never
; 109  : 	// executed on Windows 2000.
; 110  : 	if (::GetLocaleInfoA(lcidThread, LOCALE_IDEFAULTANSICODEPAGE, szACP, 7) != 0)

  00045	8b f4		 mov	 esi, esp
  00047	6a 07		 push	 7
  00049	8d 45 e8	 lea	 eax, DWORD PTR _szACP$[ebp]
  0004c	50		 push	 eax
  0004d	68 04 10 00 00	 push	 4100			; 00001004H
  00052	8b 4d f4	 mov	 ecx, DWORD PTR _lcidThread$[ebp]
  00055	51		 push	 ecx
  00056	ff 15 00 00 00
	00		 call	 DWORD PTR __imp__GetLocaleInfoA@16
  0005c	3b f4		 cmp	 esi, esp
  0005e	e8 00 00 00 00	 call	 __RTC_CheckEsp
  00063	85 c0		 test	 eax, eax
  00065	74 34		 je	 SHORT $L24150

; 111  : 	{
; 112  : 		char* pch = szACP;

  00067	8d 55 e8	 lea	 edx, DWORD PTR _szACP$[ebp]
  0006a	89 55 e0	 mov	 DWORD PTR _pch$24151[ebp], edx
$L24153:

; 113  : 		while (*pch != '\0')

  0006d	8b 45 e0	 mov	 eax, DWORD PTR _pch$24151[ebp]
  00070	0f be 08	 movsx	 ecx, BYTE PTR [eax]
  00073	85 c9		 test	 ecx, ecx
  00075	74 24		 je	 SHORT $L24150

; 114  : 		{
; 115  : 			nACP *= 10;

  00077	8b 55 f8	 mov	 edx, DWORD PTR _nACP$[ebp]
  0007a	6b d2 0a	 imul	 edx, 10			; 0000000aH
  0007d	89 55 f8	 mov	 DWORD PTR _nACP$[ebp], edx

; 116  : 			nACP += *pch++ - '0';

  00080	8b 45 e0	 mov	 eax, DWORD PTR _pch$24151[ebp]
  00083	0f be 08	 movsx	 ecx, BYTE PTR [eax]
  00086	8b 55 f8	 mov	 edx, DWORD PTR _nACP$[ebp]
  00089	8d 44 0a d0	 lea	 eax, DWORD PTR [edx+ecx-48]
  0008d	89 45 f8	 mov	 DWORD PTR _nACP$[ebp], eax
  00090	8b 4d e0	 mov	 ecx, DWORD PTR _pch$24151[ebp]
  00093	83 c1 01	 add	 ecx, 1
  00096	89 4d e0	 mov	 DWORD PTR _pch$24151[ebp], ecx

; 117  : 		}

  00099	eb d2		 jmp	 SHORT $L24153
$L24150:

; 118  : 	}
; 119  : 	// Use the Default ANSI Code Page if we were unable to get the thread ACP or if one does not exist.
; 120  : 	if (nACP == 0)

  0009b	83 7d f8 00	 cmp	 DWORD PTR _nACP$[ebp], 0
  0009f	75 12		 jne	 SHORT $L24155

; 121  : 		nACP = ::GetACP();

  000a1	8b f4		 mov	 esi, esp
  000a3	ff 15 00 00 00
	00		 call	 DWORD PTR __imp__GetACP@0
  000a9	3b f4		 cmp	 esi, esp
  000ab	e8 00 00 00 00	 call	 __RTC_CheckEsp
  000b0	89 45 f8	 mov	 DWORD PTR _nACP$[ebp], eax
$L24155:

; 122  : 
; 123  : 	return nACP;

  000b3	8b 45 f8	 mov	 eax, DWORD PTR _nACP$[ebp]

; 124  : }

  000b6	52		 push	 edx
  000b7	8b cd		 mov	 ecx, ebp
  000b9	50		 push	 eax
  000ba	8d 15 00 00 00
	00		 lea	 edx, DWORD PTR $L189848
  000c0	e8 00 00 00 00	 call	 @_RTC_CheckStackVars@8
  000c5	58		 pop	 eax
  000c6	5a		 pop	 edx
  000c7	8b 4d fc	 mov	 ecx, DWORD PTR __$ArrayPad$[ebp]
  000ca	e8 00 00 00 00	 call	 @__security_check_cookie@4
  000cf	5e		 pop	 esi
  000d0	83 c4 20	 add	 esp, 32			; 00000020H
  000d3	3b ec		 cmp	 ebp, esp
  000d5	e8 00 00 00 00	 call	 __RTC_CheckEsp
  000da	8b e5		 mov	 esp, ebp
  000dc	5d		 pop	 ebp
  000dd	c3		 ret	 0
$L189848:
  000de	01 00 00 00	 DD	 1
  000e2	00 00 00 00	 DD	 $L189847
$L189847:
  000e6	e8 ff ff ff	 DD	 -24			; ffffffe8H
  000ea	07 00 00 00	 DD	 7
  000ee	00 00 00 00	 DD	 $L189845
$L189845:
  000f2	73		 DB	 115			; 00000073H
  000f3	7a		 DB	 122			; 0000007aH
  000f4	41		 DB	 65			; 00000041H
  000f5	43		 DB	 67			; 00000043H
  000f6	50		 DB	 80			; 00000050H
  000f7	00		 DB	 0
?_AtlGetThreadACPFake@ATL@@YGIXZ ENDP			; ATL::_AtlGetThreadACPFake
; Function compile flags: /Odt /RTCsu
_TEXT	ENDS
;	COMDAT ?_AtlGetThreadACPReal@ATL@@YGIXZ
_TEXT	SEGMENT
?_AtlGetThreadACPReal@ATL@@YGIXZ PROC NEAR		; ATL::_AtlGetThreadACPReal, COMDAT

; 127  : {

  00000	55		 push	 ebp
  00001	8b ec		 mov	 ebp, esp

; 128  : 	return( CP_THREAD_ACP );

  00003	b8 03 00 00 00	 mov	 eax, 3

; 129  : }

  00008	5d		 pop	 ebp
  00009	c3		 ret	 0
?_AtlGetThreadACPReal@ATL@@YGIXZ ENDP			; ATL::_AtlGetThreadACPReal
_TEXT	ENDS
EXTRN	?OnShowWindow@CWnd@@IAEXHI@Z:NEAR		; CWnd::OnShowWindow
EXTRN	?Width@CRect@@QBEHXZ:NEAR			; CRect::Width
EXTRN	?MoveWindow@CWnd@@QAEXPBUtagRECT@@H@Z:NEAR	; CWnd::MoveWindow
EXTRN	__imp__ReleaseCapture@0:NEAR
EXTRN	?SetColumnWidth@CListCtrl@@QAEHHH@Z:NEAR	; CListCtrl::SetColumnWidth
; Function compile flags: /Odt /RTCsu
; File d:\boxgit\playbox\playbox\dev\prj\playbox\src\gui\commoncontrol\xskincombobox.cpp
_TEXT	SEGMENT
_rect$188230 = -24					; size = 16
_this$ = -4						; size = 4
_bShow$ = 8						; size = 4
_nStatus$ = 12						; size = 4
?OnShowWindow@CComboBoxHistory@@IAEXHI@Z PROC NEAR	; CComboBoxHistory::OnShowWindow
; _this$ = ecx

; 417  : {

  01450	55		 push	 ebp
  01451	8b ec		 mov	 ebp, esp
  01453	83 ec 1c	 sub	 esp, 28			; 0000001cH
  01456	56		 push	 esi
  01457	b8 cc cc cc cc	 mov	 eax, -858993460		; ccccccccH
  0145c	89 45 e4	 mov	 DWORD PTR [ebp-28], eax
  0145f	89 45 e8	 mov	 DWORD PTR [ebp-24], eax
  01462	89 45 ec	 mov	 DWORD PTR [ebp-20], eax
  01465	89 45 f0	 mov	 DWORD PTR [ebp-16], eax
  01468	89 45 f4	 mov	 DWORD PTR [ebp-12], eax
  0146b	89 45 f8	 mov	 DWORD PTR [ebp-8], eax
  0146e	89 45 fc	 mov	 DWORD PTR [ebp-4], eax
  01471	89 4d fc	 mov	 DWORD PTR _this$[ebp], ecx

; 418  : 	CWnd::OnShowWindow(bShow, nStatus);

  01474	8b 45 0c	 mov	 eax, DWORD PTR _nStatus$[ebp]
  01477	50		 push	 eax
  01478	8b 4d 08	 mov	 ecx, DWORD PTR _bShow$[ebp]
  0147b	51		 push	 ecx
  0147c	8b 4d fc	 mov	 ecx, DWORD PTR _this$[ebp]
  0147f	e8 00 00 00 00	 call	 ?OnShowWindow@CWnd@@IAEXHI@Z ; CWnd::OnShowWindow

; 419  : 	if (bShow)

  01484	83 7d 08 00	 cmp	 DWORD PTR _bShow$[ebp], 0
  01488	0f 84 84 00 00
	00		 je	 $L188229

; 420  : 	{
; 421  : 		CRect rect;

  0148e	8d 4d e8	 lea	 ecx, DWORD PTR _rect$188230[ebp]
  01491	e8 00 00 00 00	 call	 ??0CRect@@QAE@XZ	; CRect::CRect

; 422  : 		GetClientRect(&rect);

  01496	8d 55 e8	 lea	 edx, DWORD PTR _rect$188230[ebp]
  01499	52		 push	 edx
  0149a	8b 4d fc	 mov	 ecx, DWORD PTR _this$[ebp]
  0149d	e8 00 00 00 00	 call	 ?GetClientRect@CWnd@@QBEXPAUtagRECT@@@Z ; CWnd::GetClientRect

; 423  : 		m_pList.SetColumnWidth(0,rect.Width()-2);

  014a2	8d 4d e8	 lea	 ecx, DWORD PTR _rect$188230[ebp]
  014a5	e8 00 00 00 00	 call	 ?Width@CRect@@QBEHXZ	; CRect::Width
  014aa	83 e8 02	 sub	 eax, 2
  014ad	50		 push	 eax
  014ae	6a 00		 push	 0
  014b0	8b 4d fc	 mov	 ecx, DWORD PTR _this$[ebp]
  014b3	83 c1 58	 add	 ecx, 88			; 00000058H
  014b6	e8 00 00 00 00	 call	 ?SetColumnWidth@CListCtrl@@QAEHHH@Z ; CListCtrl::SetColumnWidth

; 424  : 
; 425  : 		rect.top+=1;

  014bb	8b 45 ec	 mov	 eax, DWORD PTR _rect$188230[ebp+4]
  014be	83 c0 01	 add	 eax, 1
  014c1	89 45 ec	 mov	 DWORD PTR _rect$188230[ebp+4], eax

; 426  : 		rect.bottom-=1;

  014c4	8b 4d f4	 mov	 ecx, DWORD PTR _rect$188230[ebp+12]
  014c7	83 e9 01	 sub	 ecx, 1
  014ca	89 4d f4	 mov	 DWORD PTR _rect$188230[ebp+12], ecx

; 427  : 		rect.left+=1;

  014cd	8b 55 e8	 mov	 edx, DWORD PTR _rect$188230[ebp]
  014d0	83 c2 01	 add	 edx, 1
  014d3	89 55 e8	 mov	 DWORD PTR _rect$188230[ebp], edx

; 428  : 		rect.right-=1;

  014d6	8b 45 f0	 mov	 eax, DWORD PTR _rect$188230[ebp+8]
  014d9	83 e8 01	 sub	 eax, 1
  014dc	89 45 f0	 mov	 DWORD PTR _rect$188230[ebp+8], eax

; 429  : 		m_pList.MoveWindow(rect);

  014df	6a 01		 push	 1
  014e1	8d 4d e8	 lea	 ecx, DWORD PTR _rect$188230[ebp]
  014e4	e8 00 00 00 00	 call	 ??BCRect@@QAEPAUtagRECT@@XZ ; CRect::operator tagRECT *
  014e9	50		 push	 eax
  014ea	8b 4d fc	 mov	 ecx, DWORD PTR _this$[ebp]
  014ed	83 c1 58	 add	 ecx, 88			; 00000058H
  014f0	e8 00 00 00 00	 call	 ?MoveWindow@CWnd@@QAEXPBUtagRECT@@H@Z ; CWnd::MoveWindow

; 430  : 		::SetCapture(m_pList.GetSafeHwnd());

  014f5	8b 4d fc	 mov	 ecx, DWORD PTR _this$[ebp]
  014f8	83 c1 58	 add	 ecx, 88			; 00000058H
  014fb	e8 00 00 00 00	 call	 ?GetSafeHwnd@CWnd@@QBEPAUHWND__@@XZ ; CWnd::GetSafeHwnd
  01500	8b f4		 mov	 esi, esp
  01502	50		 push	 eax
  01503	ff 15 00 00 00
	00		 call	 DWORD PTR __imp__SetCapture@4
  01509	3b f4		 cmp	 esi, esp
  0150b	e8 00 00 00 00	 call	 __RTC_CheckEsp

; 431  : 	}
; 432  : 	else

  01510	eb 0f		 jmp	 SHORT $L188228
$L188229:

; 433  : 	{
; 434  : 		::ReleaseCapture();

  01512	8b f4		 mov	 esi, esp
  01514	ff 15 00 00 00
	00		 call	 DWORD PTR __imp__ReleaseCapture@0
  0151a	3b f4		 cmp	 esi, esp
  0151c	e8 00 00 00 00	 call	 __RTC_CheckEsp
$L188228:

; 435  : 	}
; 436  : }

  01521	52		 push	 edx
  01522	8b cd		 mov	 ecx, ebp
  01524	50		 push	 eax
  01525	8d 15 00 00 00
	00		 lea	 edx, DWORD PTR $L189853
  0152b	e8 00 00 00 00	 call	 @_RTC_CheckStackVars@8
  01530	58		 pop	 eax
  01531	5a		 pop	 edx
  01532	5e		 pop	 esi
  01533	83 c4 1c	 add	 esp, 28			; 0000001cH
  01536	3b ec		 cmp	 ebp, esp
  01538	e8 00 00 00 00	 call	 __RTC_CheckEsp
  0153d	8b e5		 mov	 esp, ebp
  0153f	5d		 pop	 ebp
  01540	c2 08 00	 ret	 8
$L189853:
  01543	01 00 00 00	 DD	 1
  01547	00 00 00 00	 DD	 $L189852
$L189852:
  0154b	e8 ff ff ff	 DD	 -24			; ffffffe8H
  0154f	10 00 00 00	 DD	 16			; 00000010H
  01553	00 00 00 00	 DD	 $L189851
$L189851:
  01557	72		 DB	 114			; 00000072H
  01558	65		 DB	 101			; 00000065H
  01559	63		 DB	 99			; 00000063H
  0155a	74		 DB	 116			; 00000074H
  0155b	00		 DB	 0
?OnShowWindow@CComboBoxHistory@@IAEXHI@Z ENDP		; CComboBoxHistory::OnShowWindow
_TEXT	ENDS
PUBLIC	?SetMsgWnd@CComboBoxHistory@@QAEXPAVCWnd@@@Z	; CComboBoxHistory::SetMsgWnd
; Function compile flags: /Odt /RTCsu
_TEXT	SEGMENT
_this$ = -4						; size = 4
_pMsgWnd$ = 8						; size = 4
?SetMsgWnd@CComboBoxHistory@@QAEXPAVCWnd@@@Z PROC NEAR	; CComboBoxHistory::SetMsgWnd
; _this$ = ecx

; 438  : {

  01560	55		 push	 ebp
  01561	8b ec		 mov	 ebp, esp
  01563	51		 push	 ecx
  01564	c7 45 fc cc cc
	cc cc		 mov	 DWORD PTR [ebp-4], -858993460 ; ccccccccH
  0156b	89 4d fc	 mov	 DWORD PTR _this$[ebp], ecx

; 439  : 	m_pMsgWnd=pMsgWnd;

  0156e	8b 45 fc	 mov	 eax, DWORD PTR _this$[ebp]
  01571	8b 4d 08	 mov	 ecx, DWORD PTR _pMsgWnd$[ebp]
  01574	89 48 54	 mov	 DWORD PTR [eax+84], ecx

; 440  : }

  01577	8b e5		 mov	 esp, ebp
  01579	5d		 pop	 ebp
  0157a	c2 04 00	 ret	 4
?SetMsgWnd@CComboBoxHistory@@QAEXPAVCWnd@@@Z ENDP	; CComboBoxHistory::SetMsgWnd
_TEXT	ENDS
PUBLIC	?GetMaxItemTextWidth@CComboBoxHistory@@QAEHXZ	; CComboBoxHistory::GetMaxItemTextWidth
; Function compile flags: /Odt /RTCsu
_TEXT	SEGMENT
_this$ = -4						; size = 4
?GetMaxItemTextWidth@CComboBoxHistory@@QAEHXZ PROC NEAR	; CComboBoxHistory::GetMaxItemTextWidth
; _this$ = ecx

; 443  : {

  01580	55		 push	 ebp
  01581	8b ec		 mov	 ebp, esp
  01583	51		 push	 ecx
  01584	c7 45 fc cc cc
	cc cc		 mov	 DWORD PTR [ebp-4], -858993460 ; ccccccccH
  0158b	89 4d fc	 mov	 DWORD PTR _this$[ebp], ecx

; 444  : 	return m_iMaxWidth;

  0158e	8b 45 fc	 mov	 eax, DWORD PTR _this$[ebp]
  01591	8b 80 d8 00 00
	00		 mov	 eax, DWORD PTR [eax+216]

; 445  : }

  01597	8b e5		 mov	 esp, ebp
  01599	5d		 pop	 ebp
  0159a	c3		 ret	 0
?GetMaxItemTextWidth@CComboBoxHistory@@QAEHXZ ENDP	; CComboBoxHistory::GetMaxItemTextWidth
_TEXT	ENDS
PUBLIC	?GetItemHeight@CComboBoxHistory@@QAEHXZ		; CComboBoxHistory::GetItemHeight
EXTRN	?Height@CRect@@QBEHXZ:NEAR			; CRect::Height
EXTRN	?GetItemRect@CListCtrl@@QBEHHPAUtagRECT@@I@Z:NEAR ; CListCtrl::GetItemRect
; Function compile flags: /Odt /RTCsu
_TEXT	SEGMENT
_rect$ = -24						; size = 16
_this$ = -4						; size = 4
?GetItemHeight@CComboBoxHistory@@QAEHXZ PROC NEAR	; CComboBoxHistory::GetItemHeight
; _this$ = ecx

; 449  : {

  015a0	55		 push	 ebp
  015a1	8b ec		 mov	 ebp, esp
  015a3	83 ec 1c	 sub	 esp, 28			; 0000001cH
  015a6	b8 cc cc cc cc	 mov	 eax, -858993460		; ccccccccH
  015ab	89 45 e4	 mov	 DWORD PTR [ebp-28], eax
  015ae	89 45 e8	 mov	 DWORD PTR [ebp-24], eax
  015b1	89 45 ec	 mov	 DWORD PTR [ebp-20], eax
  015b4	89 45 f0	 mov	 DWORD PTR [ebp-16], eax
  015b7	89 45 f4	 mov	 DWORD PTR [ebp-12], eax
  015ba	89 45 f8	 mov	 DWORD PTR [ebp-8], eax
  015bd	89 45 fc	 mov	 DWORD PTR [ebp-4], eax
  015c0	89 4d fc	 mov	 DWORD PTR _this$[ebp], ecx

; 450  : 	CRect rect;

  015c3	8d 4d e8	 lea	 ecx, DWORD PTR _rect$[ebp]
  015c6	e8 00 00 00 00	 call	 ??0CRect@@QAE@XZ	; CRect::CRect

; 451  : 	m_pList.GetItemRect(0,&rect,LVIR_BOUNDS);

  015cb	6a 00		 push	 0
  015cd	8d 45 e8	 lea	 eax, DWORD PTR _rect$[ebp]
  015d0	50		 push	 eax
  015d1	6a 00		 push	 0
  015d3	8b 4d fc	 mov	 ecx, DWORD PTR _this$[ebp]
  015d6	83 c1 58	 add	 ecx, 88			; 00000058H
  015d9	e8 00 00 00 00	 call	 ?GetItemRect@CListCtrl@@QBEHHPAUtagRECT@@I@Z ; CListCtrl::GetItemRect

; 452  : 
; 453  : 	return rect.Height();

  015de	8d 4d e8	 lea	 ecx, DWORD PTR _rect$[ebp]
  015e1	e8 00 00 00 00	 call	 ?Height@CRect@@QBEHXZ	; CRect::Height

; 454  : }

  015e6	52		 push	 edx
  015e7	8b cd		 mov	 ecx, ebp
  015e9	50		 push	 eax
  015ea	8d 15 00 00 00
	00		 lea	 edx, DWORD PTR $L189859
  015f0	e8 00 00 00 00	 call	 @_RTC_CheckStackVars@8
  015f5	58		 pop	 eax
  015f6	5a		 pop	 edx
  015f7	83 c4 1c	 add	 esp, 28			; 0000001cH
  015fa	3b ec		 cmp	 ebp, esp
  015fc	e8 00 00 00 00	 call	 __RTC_CheckEsp
  01601	8b e5		 mov	 esp, ebp
  01603	5d		 pop	 ebp
  01604	c3		 ret	 0
$L189859:
  01605	01 00 00 00	 DD	 1
  01609	00 00 00 00	 DD	 $L189858
$L189858:
  0160d	e8 ff ff ff	 DD	 -24			; ffffffe8H
  01611	10 00 00 00	 DD	 16			; 00000010H
  01615	00 00 00 00	 DD	 $L189857
$L189857:
  01619	72		 DB	 114			; 00000072H
  0161a	65		 DB	 101			; 00000065H
  0161b	63		 DB	 99			; 00000063H
  0161c	74		 DB	 116			; 00000074H
  0161d	00		 DB	 0
?GetItemHeight@CComboBoxHistory@@QAEHXZ ENDP		; CComboBoxHistory::GetItemHeight
_TEXT	ENDS
PUBLIC	??0CxSkinComboBox@@QAE@XZ			; CxSkinComboBox::CxSkinComboBox
PUBLIC	?RegisterWindowClass@CxSkinComboBox@@AAEHXZ	; CxSkinComboBox::RegisterWindowClass
PUBLIC	??0?$vector@V?$basic_string@DU?$char_traits@D@std@@V?$allocator@D@2@@std@@V?$allocator@V?$basic_string@DU?$char_traits@D@std@@V?$allocator@D@2@@std@@@2@@std@@QAE@XZ ; std::vector<std::basic_string<char,std::char_traits<char>,std::allocator<char> >,std::allocator<std::basic_string<char,std::char_traits<char>,std::allocator<char> > > >::vector<std::basic_string<char,std::char_traits<char>,std::allocator<char> >,std::allocator<std::basic_string<char,std::char_traits<char>,std::allocator<char> > > >
PUBLIC	??1?$vector@V?$basic_string@DU?$char_traits@D@std@@V?$allocator@D@2@@std@@V?$allocator@V?$basic_string@DU?$char_traits@D@std@@V?$allocator@D@2@@std@@@2@@std@@QAE@XZ ; std::vector<std::basic_string<char,std::char_traits<char>,std::allocator<char> >,std::allocator<std::basic_string<char,std::char_traits<char>,std::allocator<char> > > >::~vector<std::basic_string<char,std::char_traits<char>,std::allocator<char> >,std::allocator<std::basic_string<char,std::char_traits<char>,std::allocator<char> > > >
PUBLIC	?GetMessageMap@CxSkinComboBox@@MBEPBUAFX_MSGMAP@@XZ ; CxSkinComboBox::GetMessageMap
PUBLIC	?OnCommand@CxSkinComboBox@@MAEHIJ@Z		; CxSkinComboBox::OnCommand
PUBLIC	??_7CxSkinComboBox@@6B@				; CxSkinComboBox::`vftable'
PUBLIC	??_GCxSkinComboBox@@UAEPAXI@Z			; CxSkinComboBox::`scalar deleting destructor'
PUBLIC	??_R4CxSkinComboBox@@6B@			; CxSkinComboBox::`RTTI Complete Object Locator'
PUBLIC	??_R0?AVCxSkinComboBox@@@8			; CxSkinComboBox `RTTI Type Descriptor'
PUBLIC	??_R3CxSkinComboBox@@8				; CxSkinComboBox::`RTTI Class Hierarchy Descriptor'
PUBLIC	??_R2CxSkinComboBox@@8				; CxSkinComboBox::`RTTI Base Class Array'
PUBLIC	??_R1A@?0A@A@CxSkinComboBox@@8			; CxSkinComboBox::`RTTI Base Class Descriptor at (0,-1,0,0)'
EXTRN	??_ECxSkinComboBox@@UAEPAXI@Z:NEAR		; CxSkinComboBox::`vector deleting destructor'
EXTRN	??0CBrush@@QAE@XZ:NEAR				; CBrush::CBrush
EXTRN	??1CBrush@@UAE@XZ:NEAR				; CBrush::~CBrush
EXTRN	??0CxSkinButton@@QAE@XZ:NEAR			; CxSkinButton::CxSkinButton
EXTRN	??1CxSkinButton@@UAE@XZ:NEAR			; CxSkinButton::~CxSkinButton
xdata$x	SEGMENT
$T189872 DD	0ffffffffH
	DD	FLAT:$L189861
	DD	00H
	DD	FLAT:$L189862
	DD	01H
	DD	FLAT:$L189863
	DD	02H
	DD	FLAT:$L189864
	DD	03H
	DD	FLAT:$L189865
	DD	04H
	DD	FLAT:$L189866
	DD	05H
	DD	FLAT:$L189867
	DD	06H
	DD	FLAT:$L189868
$T189870 DD	019930520H
	DD	08H
	DD	FLAT:$T189872
	DD	2 DUP(00H)
	DD	2 DUP(00H)
xdata$x	ENDS
;	COMDAT ??_7CxSkinComboBox@@6B@
CONST	SEGMENT
??_7CxSkinComboBox@@6B@ DD FLAT:??_R4CxSkinComboBox@@6B@ ; CxSkinComboBox::`vftable'
	DD	FLAT:?GetRuntimeClass@CWnd@@UBEPAUCRuntimeClass@@XZ
	DD	FLAT:??_ECxSkinComboBox@@UAEPAXI@Z
	DD	FLAT:?Serialize@CObject@@UAEXAAVCArchive@@@Z
	DD	FLAT:?AssertValid@CWnd@@UBEXXZ
	DD	FLAT:?Dump@CWnd@@UBEXAAVCDumpContext@@@Z
	DD	FLAT:?OnCmdMsg@CCmdTarget@@UAEHIHPAXPAUAFX_CMDHANDLERINFO@@@Z
	DD	FLAT:?OnFinalRelease@CWnd@@UAEXXZ
	DD	FLAT:?IsInvokeAllowed@CCmdTarget@@UAEHJ@Z
	DD	FLAT:?GetDispatchIID@CCmdTarget@@UAEHPAU_GUID@@@Z
	DD	FLAT:?GetTypeInfoCount@CCmdTarget@@UAEIXZ
	DD	FLAT:?GetTypeLibCache@CCmdTarget@@UAEPAVCTypeLibCache@@XZ
	DD	FLAT:?GetTypeLib@CCmdTarget@@UAEJKPAPAUITypeLib@@@Z
	DD	FLAT:?GetMessageMap@CxSkinComboBox@@MBEPBUAFX_MSGMAP@@XZ
	DD	FLAT:?GetCommandMap@CCmdTarget@@MBEPBUAFX_OLECMDMAP@@XZ
	DD	FLAT:?GetDispatchMap@CCmdTarget@@MBEPBUAFX_DISPMAP@@XZ
	DD	FLAT:?GetConnectionMap@CCmdTarget@@MBEPBUAFX_CONNECTIONMAP@@XZ
	DD	FLAT:?GetInterfaceMap@CWnd@@MBEPBUAFX_INTERFACEMAP@@XZ
	DD	FLAT:?GetEventSinkMap@CCmdTarget@@MBEPBUAFX_EVENTSINKMAP@@XZ
	DD	FLAT:?OnCreateAggregates@CCmdTarget@@UAEHXZ
	DD	FLAT:?GetInterfaceHook@CCmdTarget@@UAEPAUIUnknown@@PBX@Z
	DD	FLAT:?GetExtraConnectionPoints@CCmdTarget@@MAEHPAVCPtrArray@@@Z
	DD	FLAT:?GetConnectionHook@CCmdTarget@@MAEPAUIConnectionPoint@@ABU_GUID@@@Z
	DD	FLAT:?PreSubclassWindow@CWnd@@UAEXXZ
	DD	FLAT:?Create@CWnd@@UAEHPBD0KABUtagRECT@@PAV1@IPAUCCreateContext@@@Z
	DD	FLAT:?CreateEx@CWnd@@UAEHKPBD0KABUtagRECT@@PAV1@IPAX@Z
	DD	FLAT:?CreateEx@CWnd@@UAEHKPBD0KHHHHPAUHWND__@@PAUHMENU__@@PAX@Z
	DD	FLAT:?DestroyWindow@CWnd@@UAEHXZ
	DD	FLAT:?PreCreateWindow@CWnd@@UAEHAAUtagCREATESTRUCTA@@@Z
	DD	FLAT:?CalcWindowRect@CWnd@@UAEXPAUtagRECT@@I@Z
	DD	FLAT:?OnToolHitTest@CWnd@@UBEHVCPoint@@PAUtagTOOLINFOA@@@Z
	DD	FLAT:?GetScrollBarCtrl@CWnd@@UBEPAVCScrollBar@@H@Z
	DD	FLAT:?WinHelpA@CWnd@@UAEXKI@Z
	DD	FLAT:?HtmlHelpA@CWnd@@UAEXKI@Z
	DD	FLAT:?WinHelpInternal@CWnd@@UAEXKI@Z
	DD	FLAT:?ContinueModal@CWnd@@UAEHXZ
	DD	FLAT:?EndModalLoop@CWnd@@UAEXH@Z
	DD	FLAT:?EnsureStdObj@CWnd@@UAEJXZ
	DD	FLAT:?get_accParent@CWnd@@UAEJPAPAUIDispatch@@@Z
	DD	FLAT:?get_accChildCount@CWnd@@UAEJPAJ@Z
	DD	FLAT:?get_accChild@CWnd@@UAEJUtagVARIANT@@PAPAUIDispatch@@@Z
	DD	FLAT:?get_accName@CWnd@@UAEJUtagVARIANT@@PAPA_W@Z
	DD	FLAT:?get_accValue@CWnd@@UAEJUtagVARIANT@@PAPA_W@Z
	DD	FLAT:?get_accDescription@CWnd@@UAEJUtagVARIANT@@PAPA_W@Z
	DD	FLAT:?get_accRole@CWnd@@UAEJUtagVARIANT@@PAU2@@Z
	DD	FLAT:?get_accState@CWnd@@UAEJUtagVARIANT@@PAU2@@Z
	DD	FLAT:?get_accHelp@CWnd@@UAEJUtagVARIANT@@PAPA_W@Z
	DD	FLAT:?get_accHelpTopic@CWnd@@UAEJPAPA_WUtagVARIANT@@PAJ@Z
	DD	FLAT:?get_accKeyboardShortcut@CWnd@@UAEJUtagVARIANT@@PAPA_W@Z
	DD	FLAT:?get_accFocus@CWnd@@UAEJPAUtagVARIANT@@@Z
	DD	FLAT:?get_accSelection@CWnd@@UAEJPAUtagVARIANT@@@Z
	DD	FLAT:?get_accDefaultAction@CWnd@@UAEJUtagVARIANT@@PAPA_W@Z
	DD	FLAT:?accSelect@CWnd@@UAEJJUtagVARIANT@@@Z
	DD	FLAT:?accLocation@CWnd@@UAEJPAJ000UtagVARIANT@@@Z
	DD	FLAT:?accNavigate@CWnd@@UAEJJUtagVARIANT@@PAU2@@Z
	DD	FLAT:?accHitTest@CWnd@@UAEJJJPAUtagVARIANT@@@Z
	DD	FLAT:?accDoDefaultAction@CWnd@@UAEJUtagVARIANT@@@Z
	DD	FLAT:?put_accName@CWnd@@UAEJUtagVARIANT@@PA_W@Z
	DD	FLAT:?put_accValue@CWnd@@UAEJUtagVARIANT@@PA_W@Z
	DD	FLAT:?SetProxy@CWnd@@UAEJPAUIAccessibleProxy@@@Z
	DD	FLAT:?CreateAccessibleProxy@CWnd@@UAEJIJPAJ@Z
	DD	FLAT:?OnCommand@CxSkinComboBox@@MAEHIJ@Z
	DD	FLAT:?OnNotify@CWnd@@MAEHIJPAJ@Z
	DD	FLAT:?GetSuperWndProcAddr@CWnd@@MAEPAP6GJPAUHWND__@@IIJ@ZXZ
	DD	FLAT:?DoDataExchange@CWnd@@MAEXPAVCDataExchange@@@Z
	DD	FLAT:?BeginModalState@CWnd@@UAEXXZ
	DD	FLAT:?EndModalState@CWnd@@UAEXXZ
	DD	FLAT:?PreTranslateMessage@CWnd@@UAEHPAUtagMSG@@@Z
	DD	FLAT:?OnAmbientProperty@CWnd@@UAEHPAVCOleControlSite@@JPAUtagVARIANT@@@Z
	DD	FLAT:?WindowProc@CWnd@@MAEJIIJ@Z
	DD	FLAT:?OnWndMsg@CWnd@@MAEHIIJPAJ@Z
	DD	FLAT:?DefWindowProcA@CWnd@@MAEJIIJ@Z
	DD	FLAT:?PostNcDestroy@CWnd@@MAEXXZ
	DD	FLAT:?OnChildNotify@CWnd@@MAEHIIJPAJ@Z
	DD	FLAT:?CheckAutoCenter@CWnd@@UAEHXZ
	DD	FLAT:?IsFrameWnd@CWnd@@UBEHXZ
	DD	FLAT:?CreateControlContainer@CWnd@@MAEHPAPAVCOleControlContainer@@@Z
	DD	FLAT:?CreateControlSite@CWnd@@MAEHPAVCOleControlContainer@@PAPAVCOleControlSite@@IABU_GUID@@@Z
	DD	FLAT:?SetOccDialogInfo@CWnd@@MAEHPAU_AFX_OCC_DIALOG_INFO@@@Z
CONST	ENDS
;	COMDAT ??_R4CxSkinComboBox@@6B@
rdata$r	SEGMENT
??_R4CxSkinComboBox@@6B@ DD 00H				; CxSkinComboBox::`RTTI Complete Object Locator'
	DD	00H
	DD	00H
	DD	FLAT:??_R0?AVCxSkinComboBox@@@8
	DD	FLAT:??_R3CxSkinComboBox@@8
rdata$r	ENDS
;	COMDAT ??_R0?AVCxSkinComboBox@@@8
_DATA	SEGMENT
??_R0?AVCxSkinComboBox@@@8 DD FLAT:??_7type_info@@6B@	; CxSkinComboBox `RTTI Type Descriptor'
	DD	00H
	DB	'.?AVCxSkinComboBox@@', 00H
_DATA	ENDS
;	COMDAT ??_R3CxSkinComboBox@@8
rdata$r	SEGMENT
??_R3CxSkinComboBox@@8 DD 00H				; CxSkinComboBox::`RTTI Class Hierarchy Descriptor'
	DD	00H
	DD	04H
	DD	FLAT:??_R2CxSkinComboBox@@8
rdata$r	ENDS
;	COMDAT ??_R2CxSkinComboBox@@8
rdata$r	SEGMENT
??_R2CxSkinComboBox@@8 DD FLAT:??_R1A@?0A@A@CxSkinComboBox@@8 ; CxSkinComboBox::`RTTI Base Class Array'
	DD	FLAT:??_R1A@?0A@A@CWnd@@8
	DD	FLAT:??_R1A@?0A@A@CCmdTarget@@8
	DD	FLAT:??_R1A@?0A@A@CObject@@8
rdata$r	ENDS
;	COMDAT ??_R1A@?0A@A@CxSkinComboBox@@8
rdata$r	SEGMENT
??_R1A@?0A@A@CxSkinComboBox@@8 DD FLAT:??_R0?AVCxSkinComboBox@@@8 ; CxSkinComboBox::`RTTI Base Class Descriptor at (0,-1,0,0)'
	DD	03H
	DD	00H
	DD	0ffffffffH
	DD	00H
	DD	00H
; Function compile flags: /Odt /RTCsu
rdata$r	ENDS
_TEXT	SEGMENT
_this$ = -16						; size = 4
__$EHRec$ = -12						; size = 12
??0CxSkinComboBox@@QAE@XZ PROC NEAR			; CxSkinComboBox::CxSkinComboBox
; _this$ = ecx

; 464  : {

  01620	55		 push	 ebp
  01621	8b ec		 mov	 ebp, esp
  01623	6a ff		 push	 -1
  01625	68 00 00 00 00	 push	 __ehhandler$??0CxSkinComboBox@@QAE@XZ
  0162a	64 a1 00 00 00
	00		 mov	 eax, DWORD PTR fs:__except_list
  01630	50		 push	 eax
  01631	64 89 25 00 00
	00 00		 mov	 DWORD PTR fs:__except_list, esp
  01638	51		 push	 ecx
  01639	c7 45 f0 cc cc
	cc cc		 mov	 DWORD PTR [ebp-16], -858993460 ; ccccccccH
  01640	89 4d f0	 mov	 DWORD PTR _this$[ebp], ecx
  01643	8b 4d f0	 mov	 ecx, DWORD PTR _this$[ebp]
  01646	e8 00 00 00 00	 call	 ??0CWnd@@QAE@XZ		; CWnd::CWnd
  0164b	c7 45 fc 00 00
	00 00		 mov	 DWORD PTR __$EHRec$[ebp+8], 0
  01652	8b 45 f0	 mov	 eax, DWORD PTR _this$[ebp]
  01655	c7 00 00 00 00
	00		 mov	 DWORD PTR [eax], OFFSET FLAT:??_7CxSkinComboBox@@6B@
  0165b	8b 4d f0	 mov	 ecx, DWORD PTR _this$[ebp]
  0165e	83 c1 54	 add	 ecx, 84			; 00000054H
  01661	e8 00 00 00 00	 call	 ??0COMBOBOXSKIN@@QAE@XZ	; COMBOBOXSKIN::COMBOBOXSKIN
  01666	8b 4d f0	 mov	 ecx, DWORD PTR _this$[ebp]
  01669	81 c1 88 00 00
	00		 add	 ecx, 136		; 00000088H
  0166f	e8 00 00 00 00	 call	 ??0CComboBoxEdit@@QAE@XZ ; CComboBoxEdit::CComboBoxEdit
  01674	c6 45 fc 01	 mov	 BYTE PTR __$EHRec$[ebp+8], 1
  01678	8b 4d f0	 mov	 ecx, DWORD PTR _this$[ebp]
  0167b	81 c1 e8 00 00
	00		 add	 ecx, 232		; 000000e8H
  01681	e8 00 00 00 00	 call	 ??0CComboBoxHistory@@QAE@XZ ; CComboBoxHistory::CComboBoxHistory
  01686	c6 45 fc 02	 mov	 BYTE PTR __$EHRec$[ebp+8], 2
  0168a	8b 4d f0	 mov	 ecx, DWORD PTR _this$[ebp]
  0168d	81 c1 c4 01 00
	00		 add	 ecx, 452		; 000001c4H
  01693	e8 00 00 00 00	 call	 ??0CxSkinButton@@QAE@XZ	; CxSkinButton::CxSkinButton
  01698	c6 45 fc 03	 mov	 BYTE PTR __$EHRec$[ebp+8], 3
  0169c	8b 4d f0	 mov	 ecx, DWORD PTR _this$[ebp]
  0169f	81 c1 e8 02 00
	00		 add	 ecx, 744		; 000002e8H
  016a5	e8 00 00 00 00	 call	 ??0CFont@@QAE@XZ	; CFont::CFont
  016aa	c6 45 fc 04	 mov	 BYTE PTR __$EHRec$[ebp+8], 4
  016ae	8b 4d f0	 mov	 ecx, DWORD PTR _this$[ebp]
  016b1	c7 81 f0 02 00
	00 14 00 00 00	 mov	 DWORD PTR [ecx+752], 20	; 00000014H
  016bb	8b 55 f0	 mov	 edx, DWORD PTR _this$[ebp]
  016be	c7 82 f4 02 00
	00 14 00 00 00	 mov	 DWORD PTR [edx+756], 20	; 00000014H
  016c8	8b 4d f0	 mov	 ecx, DWORD PTR _this$[ebp]
  016cb	81 c1 f8 02 00
	00		 add	 ecx, 760		; 000002f8H
  016d1	e8 00 00 00 00	 call	 ??0CBrush@@QAE@XZ	; CBrush::CBrush
  016d6	c6 45 fc 05	 mov	 BYTE PTR __$EHRec$[ebp+8], 5
  016da	8b 4d f0	 mov	 ecx, DWORD PTR _this$[ebp]
  016dd	81 c1 00 03 00
	00		 add	 ecx, 768		; 00000300H
  016e3	e8 00 00 00 00	 call	 ??0CBrush@@QAE@XZ	; CBrush::CBrush
  016e8	c6 45 fc 06	 mov	 BYTE PTR __$EHRec$[ebp+8], 6
  016ec	8b 4d f0	 mov	 ecx, DWORD PTR _this$[ebp]
  016ef	81 c1 08 03 00
	00		 add	 ecx, 776		; 00000308H
  016f5	e8 00 00 00 00	 call	 ??0?$vector@V?$basic_string@DU?$char_traits@D@std@@V?$allocator@D@2@@std@@V?$allocator@V?$basic_string@DU?$char_traits@D@std@@V?$allocator@D@2@@std@@@2@@std@@QAE@XZ ; std::vector<std::basic_string<char,std::char_traits<char>,std::allocator<char> >,std::allocator<std::basic_string<char,std::char_traits<char>,std::allocator<char> > > >::vector<std::basic_string<char,std::char_traits<char>,std::allocator<char> >,std::allocator<std::basic_string<char,std::char_traits<char>,std::allocator<char> > > >
  016fa	c6 45 fc 07	 mov	 BYTE PTR __$EHRec$[ebp+8], 7
  016fe	8b 45 f0	 mov	 eax, DWORD PTR _this$[ebp]
  01701	c7 80 18 03 00
	00 ff ff ff ff	 mov	 DWORD PTR [eax+792], -1
  0170b	8b 4d f0	 mov	 ecx, DWORD PTR _this$[ebp]
  0170e	c7 81 1c 03 00
	00 05 00 00 00	 mov	 DWORD PTR [ecx+796], 5

; 465  : 	RegisterWindowClass();

  01718	8b 4d f0	 mov	 ecx, DWORD PTR _this$[ebp]
  0171b	e8 00 00 00 00	 call	 ?RegisterWindowClass@CxSkinComboBox@@AAEHXZ ; CxSkinComboBox::RegisterWindowClass

; 466  : }

  01720	c7 45 fc ff ff
	ff ff		 mov	 DWORD PTR __$EHRec$[ebp+8], -1
  01727	8b 45 f0	 mov	 eax, DWORD PTR _this$[ebp]
  0172a	8b 4d f4	 mov	 ecx, DWORD PTR __$EHRec$[ebp]
  0172d	64 89 0d 00 00
	00 00		 mov	 DWORD PTR fs:__except_list, ecx
  01734	83 c4 10	 add	 esp, 16			; 00000010H
  01737	3b ec		 cmp	 ebp, esp
  01739	e8 00 00 00 00	 call	 __RTC_CheckEsp
  0173e	8b e5		 mov	 esp, ebp
  01740	5d		 pop	 ebp
  01741	c3		 ret	 0
_TEXT	ENDS
text$x	SEGMENT
$L189861:
  000bc	8b 4d f0	 mov	 ecx, DWORD PTR _this$[ebp]
  000bf	e9 00 00 00 00	 jmp	 ??1CWnd@@UAE@XZ		; CWnd::~CWnd
$L189862:
  000c4	8b 4d f0	 mov	 ecx, DWORD PTR _this$[ebp]
  000c7	81 c1 88 00 00
	00		 add	 ecx, 136		; 00000088H
  000cd	e9 00 00 00 00	 jmp	 ??1CComboBoxEdit@@UAE@XZ
$L189863:
  000d2	8b 4d f0	 mov	 ecx, DWORD PTR _this$[ebp]
  000d5	81 c1 e8 00 00
	00		 add	 ecx, 232		; 000000e8H
  000db	e9 00 00 00 00	 jmp	 ??1CComboBoxHistory@@UAE@XZ
$L189864:
  000e0	8b 4d f0	 mov	 ecx, DWORD PTR _this$[ebp]
  000e3	81 c1 c4 01 00
	00		 add	 ecx, 452		; 000001c4H
  000e9	e9 00 00 00 00	 jmp	 ??1CxSkinButton@@UAE@XZ	; CxSkinButton::~CxSkinButton
$L189865:
  000ee	8b 4d f0	 mov	 ecx, DWORD PTR _this$[ebp]
  000f1	81 c1 e8 02 00
	00		 add	 ecx, 744		; 000002e8H
  000f7	e9 00 00 00 00	 jmp	 ??1CFont@@UAE@XZ	; CFont::~CFont
$L189866:
  000fc	8b 4d f0	 mov	 ecx, DWORD PTR _this$[ebp]
  000ff	81 c1 f8 02 00
	00		 add	 ecx, 760		; 000002f8H
  00105	e9 00 00 00 00	 jmp	 ??1CBrush@@UAE@XZ	; CBrush::~CBrush
$L189867:
  0010a	8b 4d f0	 mov	 ecx, DWORD PTR _this$[ebp]
  0010d	81 c1 00 03 00
	00		 add	 ecx, 768		; 00000300H
  00113	e9 00 00 00 00	 jmp	 ??1CBrush@@UAE@XZ	; CBrush::~CBrush
$L189868:
  00118	8b 4d f0	 mov	 ecx, DWORD PTR _this$[ebp]
  0011b	81 c1 08 03 00
	00		 add	 ecx, 776		; 00000308H
  00121	e9 00 00 00 00	 jmp	 ??1?$vector@V?$basic_string@DU?$char_traits@D@std@@V?$allocator@D@2@@std@@V?$allocator@V?$basic_string@DU?$char_traits@D@std@@V?$allocator@D@2@@std@@@2@@std@@QAE@XZ ; std::vector<std::basic_string<char,std::char_traits<char>,std::allocator<char> >,std::allocator<std::basic_string<char,std::char_traits<char>,std::allocator<char> > > >::~vector<std::basic_string<char,std::char_traits<char>,std::allocator<char> >,std::allocator<std::basic_string<char,std::char_traits<char>,std::allocator<char> > > >
__ehhandler$??0CxSkinComboBox@@QAE@XZ:
  00126	b8 00 00 00 00	 mov	 eax, OFFSET FLAT:$T189870
  0012b	e9 00 00 00 00	 jmp	 ___CxxFrameHandler
text$x	ENDS
??0CxSkinComboBox@@QAE@XZ ENDP				; CxSkinComboBox::CxSkinComboBox
PUBLIC	??1CxSkinComboBox@@UAE@XZ			; CxSkinComboBox::~CxSkinComboBox
; Function compile flags: /Odt /RTCsu
;	COMDAT ??_GCxSkinComboBox@@UAEPAXI@Z
_TEXT	SEGMENT
_this$ = -4						; size = 4
___flags$ = 8						; size = 4
??_GCxSkinComboBox@@UAEPAXI@Z PROC NEAR			; CxSkinComboBox::`scalar deleting destructor', COMDAT
; _this$ = ecx
  00000	55		 push	 ebp
  00001	8b ec		 mov	 ebp, esp
  00003	51		 push	 ecx
  00004	c7 45 fc cc cc
	cc cc		 mov	 DWORD PTR [ebp-4], -858993460 ; ccccccccH
  0000b	89 4d fc	 mov	 DWORD PTR _this$[ebp], ecx
  0000e	8b 4d fc	 mov	 ecx, DWORD PTR _this$[ebp]
  00011	e8 00 00 00 00	 call	 ??1CxSkinComboBox@@UAE@XZ ; CxSkinComboBox::~CxSkinComboBox
  00016	8b 45 08	 mov	 eax, DWORD PTR ___flags$[ebp]
  00019	83 e0 01	 and	 eax, 1
  0001c	74 09		 je	 SHORT $L188249
  0001e	8b 4d fc	 mov	 ecx, DWORD PTR _this$[ebp]
  00021	51		 push	 ecx
  00022	e8 00 00 00 00	 call	 ??3CObject@@SGXPAX@Z	; CObject::operator delete
$L188249:
  00027	8b 45 fc	 mov	 eax, DWORD PTR _this$[ebp]
  0002a	83 c4 04	 add	 esp, 4
  0002d	3b ec		 cmp	 ebp, esp
  0002f	e8 00 00 00 00	 call	 __RTC_CheckEsp
  00034	8b e5		 mov	 esp, ebp
  00036	5d		 pop	 ebp
  00037	c2 04 00	 ret	 4
??_GCxSkinComboBox@@UAEPAXI@Z ENDP			; CxSkinComboBox::`scalar deleting destructor'
_TEXT	ENDS
xdata$x	SEGMENT
$T189886 DD	0ffffffffH
	DD	FLAT:$L189875
	DD	00H
	DD	FLAT:$L189876
	DD	01H
	DD	FLAT:$L189877
	DD	02H
	DD	FLAT:$L189878
	DD	03H
	DD	FLAT:$L189879
	DD	04H
	DD	FLAT:$L189880
	DD	05H
	DD	FLAT:$L189881
$T189884 DD	019930520H
	DD	07H
	DD	FLAT:$T189886
	DD	2 DUP(00H)
	DD	2 DUP(00H)
; Function compile flags: /Odt /RTCsu
xdata$x	ENDS
_TEXT	SEGMENT
_this$ = -16						; size = 4
__$EHRec$ = -12						; size = 12
??1CxSkinComboBox@@UAE@XZ PROC NEAR			; CxSkinComboBox::~CxSkinComboBox
; _this$ = ecx

; 469  : {

  01750	55		 push	 ebp
  01751	8b ec		 mov	 ebp, esp
  01753	6a ff		 push	 -1
  01755	68 00 00 00 00	 push	 __ehhandler$??1CxSkinComboBox@@UAE@XZ
  0175a	64 a1 00 00 00
	00		 mov	 eax, DWORD PTR fs:__except_list
  01760	50		 push	 eax
  01761	64 89 25 00 00
	00 00		 mov	 DWORD PTR fs:__except_list, esp
  01768	51		 push	 ecx
  01769	c7 45 f0 cc cc
	cc cc		 mov	 DWORD PTR [ebp-16], -858993460 ; ccccccccH
  01770	89 4d f0	 mov	 DWORD PTR _this$[ebp], ecx
  01773	8b 45 f0	 mov	 eax, DWORD PTR _this$[ebp]
  01776	c7 00 00 00 00
	00		 mov	 DWORD PTR [eax], OFFSET FLAT:??_7CxSkinComboBox@@6B@
  0177c	c7 45 fc 06 00
	00 00		 mov	 DWORD PTR __$EHRec$[ebp+8], 6

; 470  : 
; 471  : }

  01783	8b 4d f0	 mov	 ecx, DWORD PTR _this$[ebp]
  01786	81 c1 08 03 00
	00		 add	 ecx, 776		; 00000308H
  0178c	e8 00 00 00 00	 call	 ??1?$vector@V?$basic_string@DU?$char_traits@D@std@@V?$allocator@D@2@@std@@V?$allocator@V?$basic_string@DU?$char_traits@D@std@@V?$allocator@D@2@@std@@@2@@std@@QAE@XZ ; std::vector<std::basic_string<char,std::char_traits<char>,std::allocator<char> >,std::allocator<std::basic_string<char,std::char_traits<char>,std::allocator<char> > > >::~vector<std::basic_string<char,std::char_traits<char>,std::allocator<char> >,std::allocator<std::basic_string<char,std::char_traits<char>,std::allocator<char> > > >
  01791	c6 45 fc 05	 mov	 BYTE PTR __$EHRec$[ebp+8], 5
  01795	8b 4d f0	 mov	 ecx, DWORD PTR _this$[ebp]
  01798	81 c1 00 03 00
	00		 add	 ecx, 768		; 00000300H
  0179e	e8 00 00 00 00	 call	 ??1CBrush@@UAE@XZ	; CBrush::~CBrush
  017a3	c6 45 fc 04	 mov	 BYTE PTR __$EHRec$[ebp+8], 4
  017a7	8b 4d f0	 mov	 ecx, DWORD PTR _this$[ebp]
  017aa	81 c1 f8 02 00
	00		 add	 ecx, 760		; 000002f8H
  017b0	e8 00 00 00 00	 call	 ??1CBrush@@UAE@XZ	; CBrush::~CBrush
  017b5	c6 45 fc 03	 mov	 BYTE PTR __$EHRec$[ebp+8], 3
  017b9	8b 4d f0	 mov	 ecx, DWORD PTR _this$[ebp]
  017bc	81 c1 e8 02 00
	00		 add	 ecx, 744		; 000002e8H
  017c2	e8 00 00 00 00	 call	 ??1CFont@@UAE@XZ	; CFont::~CFont
  017c7	c6 45 fc 02	 mov	 BYTE PTR __$EHRec$[ebp+8], 2
  017cb	8b 4d f0	 mov	 ecx, DWORD PTR _this$[ebp]
  017ce	81 c1 c4 01 00
	00		 add	 ecx, 452		; 000001c4H
  017d4	e8 00 00 00 00	 call	 ??1CxSkinButton@@UAE@XZ	; CxSkinButton::~CxSkinButton
  017d9	c6 45 fc 01	 mov	 BYTE PTR __$EHRec$[ebp+8], 1
  017dd	8b 4d f0	 mov	 ecx, DWORD PTR _this$[ebp]
  017e0	81 c1 e8 00 00
	00		 add	 ecx, 232		; 000000e8H
  017e6	e8 00 00 00 00	 call	 ??1CComboBoxHistory@@UAE@XZ
  017eb	c6 45 fc 00	 mov	 BYTE PTR __$EHRec$[ebp+8], 0
  017ef	8b 4d f0	 mov	 ecx, DWORD PTR _this$[ebp]
  017f2	81 c1 88 00 00
	00		 add	 ecx, 136		; 00000088H
  017f8	e8 00 00 00 00	 call	 ??1CComboBoxEdit@@UAE@XZ
  017fd	c7 45 fc ff ff
	ff ff		 mov	 DWORD PTR __$EHRec$[ebp+8], -1
  01804	8b 4d f0	 mov	 ecx, DWORD PTR _this$[ebp]
  01807	e8 00 00 00 00	 call	 ??1CWnd@@UAE@XZ		; CWnd::~CWnd
  0180c	8b 4d f4	 mov	 ecx, DWORD PTR __$EHRec$[ebp]
  0180f	64 89 0d 00 00
	00 00		 mov	 DWORD PTR fs:__except_list, ecx
  01816	83 c4 10	 add	 esp, 16			; 00000010H
  01819	3b ec		 cmp	 ebp, esp
  0181b	e8 00 00 00 00	 call	 __RTC_CheckEsp
  01820	8b e5		 mov	 esp, ebp
  01822	5d		 pop	 ebp
  01823	c3		 ret	 0
_TEXT	ENDS
text$x	SEGMENT
$L189875:
  00130	8b 4d f0	 mov	 ecx, DWORD PTR _this$[ebp]
  00133	e9 00 00 00 00	 jmp	 ??1CWnd@@UAE@XZ		; CWnd::~CWnd
$L189876:
  00138	8b 4d f0	 mov	 ecx, DWORD PTR _this$[ebp]
  0013b	81 c1 88 00 00
	00		 add	 ecx, 136		; 00000088H
  00141	e9 00 00 00 00	 jmp	 ??1CComboBoxEdit@@UAE@XZ
$L189877:
  00146	8b 4d f0	 mov	 ecx, DWORD PTR _this$[ebp]
  00149	81 c1 e8 00 00
	00		 add	 ecx, 232		; 000000e8H
  0014f	e9 00 00 00 00	 jmp	 ??1CComboBoxHistory@@UAE@XZ
$L189878:
  00154	8b 4d f0	 mov	 ecx, DWORD PTR _this$[ebp]
  00157	81 c1 c4 01 00
	00		 add	 ecx, 452		; 000001c4H
  0015d	e9 00 00 00 00	 jmp	 ??1CxSkinButton@@UAE@XZ	; CxSkinButton::~CxSkinButton
$L189879:
  00162	8b 4d f0	 mov	 ecx, DWORD PTR _this$[ebp]
  00165	81 c1 e8 02 00
	00		 add	 ecx, 744		; 000002e8H
  0016b	e9 00 00 00 00	 jmp	 ??1CFont@@UAE@XZ	; CFont::~CFont
$L189880:
  00170	8b 4d f0	 mov	 ecx, DWORD PTR _this$[ebp]
  00173	81 c1 f8 02 00
	00		 add	 ecx, 760		; 000002f8H
  00179	e9 00 00 00 00	 jmp	 ??1CBrush@@UAE@XZ	; CBrush::~CBrush
$L189881:
  0017e	8b 4d f0	 mov	 ecx, DWORD PTR _this$[ebp]
  00181	81 c1 00 03 00
	00		 add	 ecx, 768		; 00000300H
  00187	e9 00 00 00 00	 jmp	 ??1CBrush@@UAE@XZ	; CBrush::~CBrush
__ehhandler$??1CxSkinComboBox@@UAE@XZ:
  0018c	b8 00 00 00 00	 mov	 eax, OFFSET FLAT:$T189884
  00191	e9 00 00 00 00	 jmp	 ___CxxFrameHandler
text$x	ENDS
??1CxSkinComboBox@@UAE@XZ ENDP				; CxSkinComboBox::~CxSkinComboBox
EXTRN	__imp__DefWindowProcA@16:NEAR
EXTRN	__imp__GetClassInfoA@12:NEAR
EXTRN	?AfxThrowResourceException@@YGXXZ:NEAR		; AfxThrowResourceException
EXTRN	?AfxGetApp@@YGPAVCWinApp@@XZ:NEAR		; AfxGetApp
EXTRN	?AfxGetInstanceHandle@@YGPAUHINSTANCE__@@XZ:NEAR ; AfxGetInstanceHandle
EXTRN	?LoadStandardCursor@CWinApp@@QBEPAUHICON__@@PBD@Z:NEAR ; CWinApp::LoadStandardCursor
EXTRN	?AfxRegisterClass@@YGHPAUtagWNDCLASSA@@@Z:NEAR	; AfxRegisterClass
; Function compile flags: /Odt /RTCsu
_TEXT	SEGMENT
_hInst$ = -56						; size = 4
_wndcls$ = -48						; size = 40
_this$ = -4						; size = 4
?RegisterWindowClass@CxSkinComboBox@@AAEHXZ PROC NEAR	; CxSkinComboBox::RegisterWindowClass
; _this$ = ecx

; 474  : {

  01830	55		 push	 ebp
  01831	8b ec		 mov	 ebp, esp
  01833	83 ec 38	 sub	 esp, 56			; 00000038H
  01836	56		 push	 esi
  01837	57		 push	 edi
  01838	51		 push	 ecx
  01839	8d 7d c8	 lea	 edi, DWORD PTR [ebp-56]
  0183c	b9 0e 00 00 00	 mov	 ecx, 14			; 0000000eH
  01841	b8 cc cc cc cc	 mov	 eax, -858993460		; ccccccccH
  01846	f3 ab		 rep stosd
  01848	59		 pop	 ecx
  01849	89 4d fc	 mov	 DWORD PTR _this$[ebp], ecx

; 475  : 	WNDCLASS wndcls;
; 476  : 	HINSTANCE hInst = AfxGetInstanceHandle();

  0184c	e8 00 00 00 00	 call	 ?AfxGetInstanceHandle@@YGPAUHINSTANCE__@@XZ ; AfxGetInstanceHandle
  01851	89 45 c8	 mov	 DWORD PTR _hInst$[ebp], eax

; 477  : 
; 478  : 	if (!(::GetClassInfo(hInst, XSKINCOMBOBOX_CLASSNAME, &wndcls)))

  01854	8b f4		 mov	 esi, esp
  01856	8d 45 d0	 lea	 eax, DWORD PTR _wndcls$[ebp]
  01859	50		 push	 eax
  0185a	68 00 00 00 00	 push	 OFFSET FLAT:$SG188259
  0185f	8b 4d c8	 mov	 ecx, DWORD PTR _hInst$[ebp]
  01862	51		 push	 ecx
  01863	ff 15 00 00 00
	00		 call	 DWORD PTR __imp__GetClassInfoA@12
  01869	3b f4		 cmp	 esi, esp
  0186b	e8 00 00 00 00	 call	 __RTC_CheckEsp
  01870	85 c0		 test	 eax, eax
  01872	75 69		 jne	 SHORT $L188258

; 479  : 	{
; 480  : 		wndcls.style            = CS_DBLCLKS | CS_HREDRAW | CS_VREDRAW;

  01874	c7 45 d0 0b 00
	00 00		 mov	 DWORD PTR _wndcls$[ebp], 11 ; 0000000bH

; 481  : 		wndcls.lpfnWndProc      = ::DefWindowProc;

  0187b	8b 15 00 00 00
	00		 mov	 edx, DWORD PTR __imp__DefWindowProcA@16
  01881	89 55 d4	 mov	 DWORD PTR _wndcls$[ebp+4], edx

; 482  : 		wndcls.cbClsExtra       = wndcls.cbWndExtra = 0;

  01884	c7 45 dc 00 00
	00 00		 mov	 DWORD PTR _wndcls$[ebp+12], 0
  0188b	8b 45 dc	 mov	 eax, DWORD PTR _wndcls$[ebp+12]
  0188e	89 45 d8	 mov	 DWORD PTR _wndcls$[ebp+8], eax

; 483  : 		wndcls.hInstance        = hInst;

  01891	8b 4d c8	 mov	 ecx, DWORD PTR _hInst$[ebp]
  01894	89 4d e0	 mov	 DWORD PTR _wndcls$[ebp+16], ecx

; 484  : 		wndcls.hIcon            = NULL;

  01897	c7 45 e4 00 00
	00 00		 mov	 DWORD PTR _wndcls$[ebp+20], 0

; 485  : 		wndcls.hCursor          = AfxGetApp()->LoadStandardCursor(IDC_ARROW);

  0189e	68 00 7f 00 00	 push	 32512			; 00007f00H
  018a3	e8 00 00 00 00	 call	 ?AfxGetApp@@YGPAVCWinApp@@XZ ; AfxGetApp
  018a8	8b c8		 mov	 ecx, eax
  018aa	e8 00 00 00 00	 call	 ?LoadStandardCursor@CWinApp@@QBEPAUHICON__@@PBD@Z ; CWinApp::LoadStandardCursor
  018af	89 45 e8	 mov	 DWORD PTR _wndcls$[ebp+24], eax

; 486  : 		wndcls.hbrBackground    = (HBRUSH) (COLOR_3DFACE + 1);

  018b2	c7 45 ec 10 00
	00 00		 mov	 DWORD PTR _wndcls$[ebp+28], 16 ; 00000010H

; 487  : 		wndcls.lpszMenuName     = NULL;

  018b9	c7 45 f0 00 00
	00 00		 mov	 DWORD PTR _wndcls$[ebp+32], 0

; 488  : 		wndcls.lpszClassName    = XSKINCOMBOBOX_CLASSNAME;

  018c0	c7 45 f4 00 00
	00 00		 mov	 DWORD PTR _wndcls$[ebp+36], OFFSET FLAT:$SG188264

; 489  : 
; 490  : 		if (!AfxRegisterClass(&wndcls))

  018c7	8d 55 d0	 lea	 edx, DWORD PTR _wndcls$[ebp]
  018ca	52		 push	 edx
  018cb	e8 00 00 00 00	 call	 ?AfxRegisterClass@@YGHPAUtagWNDCLASSA@@@Z ; AfxRegisterClass
  018d0	85 c0		 test	 eax, eax
  018d2	75 09		 jne	 SHORT $L188258

; 491  : 		{
; 492  : 			AfxThrowResourceException();

  018d4	e8 00 00 00 00	 call	 ?AfxThrowResourceException@@YGXXZ ; AfxThrowResourceException

; 493  : 			return FALSE;

  018d9	33 c0		 xor	 eax, eax
  018db	eb 05		 jmp	 SHORT $L188255
$L188258:

; 494  : 		}
; 495  : 	}
; 496  : 	return TRUE;

  018dd	b8 01 00 00 00	 mov	 eax, 1
$L188255:

; 497  : }

  018e2	52		 push	 edx
  018e3	8b cd		 mov	 ecx, ebp
  018e5	50		 push	 eax
  018e6	8d 15 00 00 00
	00		 lea	 edx, DWORD PTR $L189890
  018ec	e8 00 00 00 00	 call	 @_RTC_CheckStackVars@8
  018f1	58		 pop	 eax
  018f2	5a		 pop	 edx
  018f3	5f		 pop	 edi
  018f4	5e		 pop	 esi
  018f5	83 c4 38	 add	 esp, 56			; 00000038H
  018f8	3b ec		 cmp	 ebp, esp
  018fa	e8 00 00 00 00	 call	 __RTC_CheckEsp
  018ff	8b e5		 mov	 esp, ebp
  01901	5d		 pop	 ebp
  01902	c3		 ret	 0
$L189890:
  01903	01 00 00 00	 DD	 1
  01907	00 00 00 00	 DD	 $L189889
$L189889:
  0190b	d0 ff ff ff	 DD	 -48			; ffffffd0H
  0190f	28 00 00 00	 DD	 40			; 00000028H
  01913	00 00 00 00	 DD	 $L189888
$L189888:
  01917	77		 DB	 119			; 00000077H
  01918	6e		 DB	 110			; 0000006eH
  01919	64		 DB	 100			; 00000064H
  0191a	63		 DB	 99			; 00000063H
  0191b	6c		 DB	 108			; 0000006cH
  0191c	73		 DB	 115			; 00000073H
  0191d	00		 DB	 0
?RegisterWindowClass@CxSkinComboBox@@AAEHXZ ENDP	; CxSkinComboBox::RegisterWindowClass
_TEXT	ENDS
PUBLIC	?SetSkin@CxSkinComboBox@@QAEXAAVCOMBOBOXSKIN@@@Z ; CxSkinComboBox::SetSkin
EXTRN	?SetSkin@CxSkinButton@@QAEXPAVCDibBitmap@@00000FFF_N@Z:NEAR ; CxSkinButton::SetSkin
; Function compile flags: /Odt /RTCsu
_TEXT	SEGMENT
_this$ = -4						; size = 4
_skin$ = 8						; size = 4
?SetSkin@CxSkinComboBox@@QAEXAAVCOMBOBOXSKIN@@@Z PROC NEAR ; CxSkinComboBox::SetSkin
; _this$ = ecx

; 500  : {

  01920	55		 push	 ebp
  01921	8b ec		 mov	 ebp, esp
  01923	51		 push	 ecx
  01924	56		 push	 esi
  01925	57		 push	 edi
  01926	c7 45 fc cc cc
	cc cc		 mov	 DWORD PTR [ebp-4], -858993460 ; ccccccccH
  0192d	89 4d fc	 mov	 DWORD PTR _this$[ebp], ecx

; 501  : 	m_pSkin=skin;

  01930	8b 75 08	 mov	 esi, DWORD PTR _skin$[ebp]
  01933	8b 7d fc	 mov	 edi, DWORD PTR _this$[ebp]
  01936	83 c7 54	 add	 edi, 84			; 00000054H
  01939	b9 0d 00 00 00	 mov	 ecx, 13			; 0000000dH
  0193e	f3 a5		 rep movsd

; 502  : 
; 503  : 	m_pEdit.SetSkin(skin.colorEditBkg,skin.colorEditText);

  01940	8b 45 08	 mov	 eax, DWORD PTR _skin$[ebp]
  01943	83 c0 1c	 add	 eax, 28			; 0000001cH
  01946	50		 push	 eax
  01947	8b 4d 08	 mov	 ecx, DWORD PTR _skin$[ebp]
  0194a	83 c1 14	 add	 ecx, 20			; 00000014H
  0194d	51		 push	 ecx
  0194e	8b 4d fc	 mov	 ecx, DWORD PTR _this$[ebp]
  01951	81 c1 88 00 00
	00		 add	 ecx, 136		; 00000088H
  01957	e8 00 00 00 00	 call	 ?SetSkin@CComboBoxEdit@@QAEXAAK0@Z ; CComboBoxEdit::SetSkin

; 504  : 	m_pHistoryWnd.SetSkin(skin.colorEdge,skin.colorListBkg,skin.colorListText,skin.colorListSelect,skin.pBmpScrollVert,skin.pBmpScrollHorz);

  0195c	8b 55 08	 mov	 edx, DWORD PTR _skin$[ebp]
  0195f	8b 42 30	 mov	 eax, DWORD PTR [edx+48]
  01962	50		 push	 eax
  01963	8b 4d 08	 mov	 ecx, DWORD PTR _skin$[ebp]
  01966	8b 51 2c	 mov	 edx, DWORD PTR [ecx+44]
  01969	52		 push	 edx
  0196a	8b 45 08	 mov	 eax, DWORD PTR _skin$[ebp]
  0196d	83 c0 24	 add	 eax, 36			; 00000024H
  01970	50		 push	 eax
  01971	8b 4d 08	 mov	 ecx, DWORD PTR _skin$[ebp]
  01974	83 c1 20	 add	 ecx, 32			; 00000020H
  01977	51		 push	 ecx
  01978	8b 55 08	 mov	 edx, DWORD PTR _skin$[ebp]
  0197b	83 c2 18	 add	 edx, 24			; 00000018H
  0197e	52		 push	 edx
  0197f	8b 45 08	 mov	 eax, DWORD PTR _skin$[ebp]
  01982	83 c0 10	 add	 eax, 16			; 00000010H
  01985	50		 push	 eax
  01986	8b 4d fc	 mov	 ecx, DWORD PTR _this$[ebp]
  01989	81 c1 e8 00 00
	00		 add	 ecx, 232		; 000000e8H
  0198f	e8 00 00 00 00	 call	 ?SetSkin@CComboBoxHistory@@QAEXAAK000PAVCDibBitmap@@1@Z ; CComboBoxHistory::SetSkin

; 505  : 	m_pHistoryBtn.SetSkin(skin.pBmpButtonNormal,skin.pBmpButtonDown,skin.pBmpButtonOver,skin.pBmpButtonDisable,0,0,0,0,0);

  01994	6a 00		 push	 0
  01996	6a 00		 push	 0
  01998	6a 00		 push	 0
  0199a	6a 00		 push	 0
  0199c	6a 00		 push	 0
  0199e	6a 00		 push	 0
  019a0	8b 4d 08	 mov	 ecx, DWORD PTR _skin$[ebp]
  019a3	8b 51 0c	 mov	 edx, DWORD PTR [ecx+12]
  019a6	52		 push	 edx
  019a7	8b 45 08	 mov	 eax, DWORD PTR _skin$[ebp]
  019aa	8b 48 04	 mov	 ecx, DWORD PTR [eax+4]
  019ad	51		 push	 ecx
  019ae	8b 55 08	 mov	 edx, DWORD PTR _skin$[ebp]
  019b1	8b 42 08	 mov	 eax, DWORD PTR [edx+8]
  019b4	50		 push	 eax
  019b5	8b 4d 08	 mov	 ecx, DWORD PTR _skin$[ebp]
  019b8	8b 11		 mov	 edx, DWORD PTR [ecx]
  019ba	52		 push	 edx
  019bb	8b 4d fc	 mov	 ecx, DWORD PTR _this$[ebp]
  019be	81 c1 c4 01 00
	00		 add	 ecx, 452		; 000001c4H
  019c4	e8 00 00 00 00	 call	 ?SetSkin@CxSkinButton@@QAEXPAVCDibBitmap@@00000FFF_N@Z ; CxSkinButton::SetSkin

; 506  : }

  019c9	5f		 pop	 edi
  019ca	5e		 pop	 esi
  019cb	83 c4 04	 add	 esp, 4
  019ce	3b ec		 cmp	 ebp, esp
  019d0	e8 00 00 00 00	 call	 __RTC_CheckEsp
  019d5	8b e5		 mov	 esp, ebp
  019d7	5d		 pop	 ebp
  019d8	c2 04 00	 ret	 4
?SetSkin@CxSkinComboBox@@QAEXAAVCOMBOBOXSKIN@@@Z ENDP	; CxSkinComboBox::SetSkin
_TEXT	ENDS
PUBLIC	?Create@CxSkinComboBox@@QAEHKABUtagRECT@@PAVCWnd@@I@Z ; CxSkinComboBox::Create
; Function compile flags: /Odt /RTCsu
_TEXT	SEGMENT
_this$ = -4						; size = 4
_dwStyle$ = 8						; size = 4
_rect$ = 12						; size = 4
_pParentWnd$ = 16					; size = 4
_nID$ = 20						; size = 4
?Create@CxSkinComboBox@@QAEHKABUtagRECT@@PAVCWnd@@I@Z PROC NEAR ; CxSkinComboBox::Create
; _this$ = ecx

; 509  : {

  019e0	55		 push	 ebp
  019e1	8b ec		 mov	 ebp, esp
  019e3	51		 push	 ecx
  019e4	c7 45 fc cc cc
	cc cc		 mov	 DWORD PTR [ebp-4], -858993460 ; ccccccccH
  019eb	89 4d fc	 mov	 DWORD PTR _this$[ebp], ecx

; 510  : 	return CWnd::Create(XSKINCOMBOBOX_CLASSNAME, _T(""), dwStyle, rect, pParentWnd, nID);

  019ee	6a 00		 push	 0
  019f0	8b 45 14	 mov	 eax, DWORD PTR _nID$[ebp]
  019f3	50		 push	 eax
  019f4	8b 4d 10	 mov	 ecx, DWORD PTR _pParentWnd$[ebp]
  019f7	51		 push	 ecx
  019f8	8b 55 0c	 mov	 edx, DWORD PTR _rect$[ebp]
  019fb	52		 push	 edx
  019fc	8b 45 08	 mov	 eax, DWORD PTR _dwStyle$[ebp]
  019ff	50		 push	 eax
  01a00	68 00 00 00 00	 push	 OFFSET FLAT:$SG188277
  01a05	68 00 00 00 00	 push	 OFFSET FLAT:$SG188278
  01a0a	8b 4d fc	 mov	 ecx, DWORD PTR _this$[ebp]
  01a0d	e8 00 00 00 00	 call	 ?Create@CWnd@@UAEHPBD0KABUtagRECT@@PAV1@IPAUCCreateContext@@@Z ; CWnd::Create

; 511  : }

  01a12	83 c4 04	 add	 esp, 4
  01a15	3b ec		 cmp	 ebp, esp
  01a17	e8 00 00 00 00	 call	 __RTC_CheckEsp
  01a1c	8b e5		 mov	 esp, ebp
  01a1e	5d		 pop	 ebp
  01a1f	c2 10 00	 ret	 16			; 00000010H
?Create@CxSkinComboBox@@QAEHKABUtagRECT@@PAVCWnd@@I@Z ENDP ; CxSkinComboBox::Create
_TEXT	ENDS
PUBLIC	?GetThisMessageMap@CxSkinComboBox@@KGPBUAFX_MSGMAP@@XZ ; CxSkinComboBox::GetThisMessageMap
; Function compile flags: /Odt /RTCsu
_TEXT	SEGMENT
?GetThisMessageMap@CxSkinComboBox@@KGPBUAFX_MSGMAP@@XZ PROC NEAR ; CxSkinComboBox::GetThisMessageMap

; 512  : BEGIN_MESSAGE_MAP(CxSkinComboBox, CWnd)

  01a30	55		 push	 ebp
  01a31	8b ec		 mov	 ebp, esp
  01a33	b8 00 00 00 00	 mov	 eax, OFFSET FLAT:?messageMap@CxSkinComboBox@@1UAFX_MSGMAP@@B ; CxSkinComboBox::messageMap
  01a38	5d		 pop	 ebp
  01a39	c3		 ret	 0
?GetThisMessageMap@CxSkinComboBox@@KGPBUAFX_MSGMAP@@XZ ENDP ; CxSkinComboBox::GetThisMessageMap
; Function compile flags: /Odt /RTCsu
_this$ = -4						; size = 4
?GetMessageMap@CxSkinComboBox@@MBEPBUAFX_MSGMAP@@XZ PROC NEAR ; CxSkinComboBox::GetMessageMap
; _this$ = ecx

; 512  : BEGIN_MESSAGE_MAP(CxSkinComboBox, CWnd)

  01a40	55		 push	 ebp
  01a41	8b ec		 mov	 ebp, esp
  01a43	51		 push	 ecx
  01a44	c7 45 fc cc cc
	cc cc		 mov	 DWORD PTR [ebp-4], -858993460 ; ccccccccH
  01a4b	89 4d fc	 mov	 DWORD PTR _this$[ebp], ecx
  01a4e	b8 00 00 00 00	 mov	 eax, OFFSET FLAT:?messageMap@CxSkinComboBox@@1UAFX_MSGMAP@@B ; CxSkinComboBox::messageMap
  01a53	8b e5		 mov	 esp, ebp
  01a55	5d		 pop	 ebp
  01a56	c3		 ret	 0
?GetMessageMap@CxSkinComboBox@@MBEPBUAFX_MSGMAP@@XZ ENDP ; CxSkinComboBox::GetMessageMap
_TEXT	ENDS
EXTRN	?SetMargins@CEdit@@QAEXII@Z:NEAR		; CEdit::SetMargins
EXTRN	?CreateSolidBrush@CBrush@@QAEHK@Z:NEAR		; CBrush::CreateSolidBrush
EXTRN	?CreateFontA@CFont@@QAEHHHHHHEEEEEEEEPBD@Z:NEAR	; CFont::CreateFontA
EXTRN	?ModifyStyleEx@CWnd@@QAEHKKI@Z:NEAR		; CWnd::ModifyStyleEx
EXTRN	?ShowWindow@CWnd@@QAEHH@Z:NEAR			; CWnd::ShowWindow
; Function compile flags: /Odt /RTCsu
_TEXT	SEGMENT
$T189899 = -68						; size = 16
$T189898 = -52						; size = 16
$T189897 = -36						; size = 16
$T189896 = -20						; size = 16
_this$ = -4						; size = 4
_lpCreateStruct$ = 8					; size = 4
?OnCreate@CxSkinComboBox@@IAEHPAUtagCREATESTRUCTA@@@Z PROC NEAR ; CxSkinComboBox::OnCreate
; _this$ = ecx

; 522  : {

  01a60	55		 push	 ebp
  01a61	8b ec		 mov	 ebp, esp
  01a63	83 ec 44	 sub	 esp, 68			; 00000044H
  01a66	56		 push	 esi
  01a67	57		 push	 edi
  01a68	51		 push	 ecx
  01a69	8d 7d bc	 lea	 edi, DWORD PTR [ebp-68]
  01a6c	b9 11 00 00 00	 mov	 ecx, 17			; 00000011H
  01a71	b8 cc cc cc cc	 mov	 eax, -858993460		; ccccccccH
  01a76	f3 ab		 rep stosd
  01a78	59		 pop	 ecx
  01a79	89 4d fc	 mov	 DWORD PTR _this$[ebp], ecx

; 523  : 	if (CWnd::OnCreate(lpCreateStruct) == -1)

  01a7c	8b 45 08	 mov	 eax, DWORD PTR _lpCreateStruct$[ebp]
  01a7f	50		 push	 eax
  01a80	8b 4d fc	 mov	 ecx, DWORD PTR _this$[ebp]
  01a83	e8 00 00 00 00	 call	 ?OnCreate@CWnd@@IAEHPAUtagCREATESTRUCTA@@@Z ; CWnd::OnCreate
  01a88	83 f8 ff	 cmp	 eax, -1
  01a8b	75 08		 jne	 SHORT $L188318

; 524  : 		return -1;

  01a8d	83 c8 ff	 or	 eax, -1
  01a90	e9 f3 01 00 00	 jmp	 $L188317
$L188318:

; 525  : 
; 526  : 	m_pEdit.SetMsgWnd(this);

  01a95	8b 4d fc	 mov	 ecx, DWORD PTR _this$[ebp]
  01a98	51		 push	 ecx
  01a99	8b 4d fc	 mov	 ecx, DWORD PTR _this$[ebp]
  01a9c	81 c1 88 00 00
	00		 add	 ecx, 136		; 00000088H
  01aa2	e8 00 00 00 00	 call	 ?SetMsgWnd@CComboBoxEdit@@QAEXPAVCWnd@@@Z ; CComboBoxEdit::SetMsgWnd

; 527  : 	m_pEdit.Create(WS_CHILD | WS_VISIBLE | WS_TABSTOP|ES_AUTOHSCROLL, CRect(1, 1, DEFAULT_COMBOBOX_SIZE_WIDTH-11, DEFAULT_COMBOBOX_SIZE_HEIGHT-1), this, XSKINCOMBOBOX_EDIT);

  01aa7	8b f4		 mov	 esi, esp
  01aa9	68 11 27 00 00	 push	 10001			; 00002711H
  01aae	8b 55 fc	 mov	 edx, DWORD PTR _this$[ebp]
  01ab1	52		 push	 edx
  01ab2	6a 13		 push	 19			; 00000013H
  01ab4	6a 59		 push	 89			; 00000059H
  01ab6	6a 01		 push	 1
  01ab8	6a 01		 push	 1
  01aba	8d 4d ec	 lea	 ecx, DWORD PTR $T189896[ebp]
  01abd	e8 00 00 00 00	 call	 ??0CRect@@QAE@HHHH@Z	; CRect::CRect
  01ac2	50		 push	 eax
  01ac3	68 80 00 01 50	 push	 1342242944		; 50010080H
  01ac8	8b 4d fc	 mov	 ecx, DWORD PTR _this$[ebp]
  01acb	81 c1 88 00 00
	00		 add	 ecx, 136		; 00000088H
  01ad1	8b 45 fc	 mov	 eax, DWORD PTR _this$[ebp]
  01ad4	8b 90 88 00 00
	00		 mov	 edx, DWORD PTR [eax+136]
  01ada	ff 92 38 01 00
	00		 call	 DWORD PTR [edx+312]
  01ae0	3b f4		 cmp	 esi, esp
  01ae2	e8 00 00 00 00	 call	 __RTC_CheckEsp

; 528  : 
; 529  : 	m_pEditFont.CreateFont(
; 530  : 		m_pSkin.iFontSize,         // nHeight
; 531  : 		0,                         // nWidth
; 532  : 		0,                         // nEscapement
; 533  : 		0,                         // nOrientation
; 534  : 		FW_NORMAL,                 // nWeight
; 535  : 		FALSE,                     // bItalic
; 536  : 		FALSE,                     // bUnderline
; 537  : 		0,                         // cStrikeOut
; 538  : 		ANSI_CHARSET,              // nCharSet 
; 539  : 		OUT_DEFAULT_PRECIS,        // nOutPrecision
; 540  : 		CLIP_DEFAULT_PRECIS,       // nClipPrecision
; 541  : 		DEFAULT_QUALITY,           // nQuality
; 542  : 		DEFAULT_PITCH | FF_SWISS,  // nPitchAndFamily
; 543  : 		"");  

  01ae7	68 00 00 00 00	 push	 OFFSET FLAT:$SG188320
  01aec	6a 20		 push	 32			; 00000020H
  01aee	6a 00		 push	 0
  01af0	6a 00		 push	 0
  01af2	6a 00		 push	 0
  01af4	6a 00		 push	 0
  01af6	6a 00		 push	 0
  01af8	6a 00		 push	 0
  01afa	6a 00		 push	 0
  01afc	68 90 01 00 00	 push	 400			; 00000190H
  01b01	6a 00		 push	 0
  01b03	6a 00		 push	 0
  01b05	6a 00		 push	 0
  01b07	8b 45 fc	 mov	 eax, DWORD PTR _this$[ebp]
  01b0a	8b 48 7c	 mov	 ecx, DWORD PTR [eax+124]
  01b0d	51		 push	 ecx
  01b0e	8b 4d fc	 mov	 ecx, DWORD PTR _this$[ebp]
  01b11	81 c1 e8 02 00
	00		 add	 ecx, 744		; 000002e8H
  01b17	e8 00 00 00 00	 call	 ?CreateFontA@CFont@@QAEHHHHHHEEEEEEEEPBD@Z ; CFont::CreateFontA

; 544  : 
; 545  : 	m_pEdit.SetFont(&m_pEditFont);

  01b1c	6a 01		 push	 1
  01b1e	8b 55 fc	 mov	 edx, DWORD PTR _this$[ebp]
  01b21	81 c2 e8 02 00
	00		 add	 edx, 744		; 000002e8H
  01b27	52		 push	 edx
  01b28	8b 4d fc	 mov	 ecx, DWORD PTR _this$[ebp]
  01b2b	81 c1 88 00 00
	00		 add	 ecx, 136		; 00000088H
  01b31	e8 00 00 00 00	 call	 ?SetFont@CWnd@@QAEXPAVCFont@@H@Z ; CWnd::SetFont

; 546  : 	m_pEdit.SetMargins(3,2);

  01b36	6a 02		 push	 2
  01b38	6a 03		 push	 3
  01b3a	8b 4d fc	 mov	 ecx, DWORD PTR _this$[ebp]
  01b3d	81 c1 88 00 00
	00		 add	 ecx, 136		; 00000088H
  01b43	e8 00 00 00 00	 call	 ?SetMargins@CEdit@@QAEXII@Z ; CEdit::SetMargins

; 547  : 
; 548  : 	m_pHistoryWnd.SetMsgWnd(this);

  01b48	8b 45 fc	 mov	 eax, DWORD PTR _this$[ebp]
  01b4b	50		 push	 eax
  01b4c	8b 4d fc	 mov	 ecx, DWORD PTR _this$[ebp]
  01b4f	81 c1 e8 00 00
	00		 add	 ecx, 232		; 000000e8H
  01b55	e8 00 00 00 00	 call	 ?SetMsgWnd@CComboBoxHistory@@QAEXPAVCWnd@@@Z ; CComboBoxHistory::SetMsgWnd

; 549  : 	m_pHistoryWnd.Create(NULL,NULL,WS_CHILD,CRect(0,0,0,0),this,XSKINCOMBOBOX_HISTORYWND );

  01b5a	8b f4		 mov	 esi, esp
  01b5c	6a 00		 push	 0
  01b5e	68 13 27 00 00	 push	 10003			; 00002713H
  01b63	8b 4d fc	 mov	 ecx, DWORD PTR _this$[ebp]
  01b66	51		 push	 ecx
  01b67	6a 00		 push	 0
  01b69	6a 00		 push	 0
  01b6b	6a 00		 push	 0
  01b6d	6a 00		 push	 0
  01b6f	8d 4d dc	 lea	 ecx, DWORD PTR $T189897[ebp]
  01b72	e8 00 00 00 00	 call	 ??0CRect@@QAE@HHHH@Z	; CRect::CRect
  01b77	50		 push	 eax
  01b78	68 00 00 00 40	 push	 1073741824		; 40000000H
  01b7d	6a 00		 push	 0
  01b7f	6a 00		 push	 0
  01b81	8b 4d fc	 mov	 ecx, DWORD PTR _this$[ebp]
  01b84	81 c1 e8 00 00
	00		 add	 ecx, 232		; 000000e8H
  01b8a	8b 55 fc	 mov	 edx, DWORD PTR _this$[ebp]
  01b8d	8b 82 e8 00 00
	00		 mov	 eax, DWORD PTR [edx+232]
  01b93	ff 50 5c	 call	 DWORD PTR [eax+92]
  01b96	3b f4		 cmp	 esi, esp
  01b98	e8 00 00 00 00	 call	 __RTC_CheckEsp

; 550  : 	m_pHistoryWnd.ModifyStyleEx(WS_EX_APPWINDOW,WS_EX_TOOLWINDOW);

  01b9d	6a 00		 push	 0
  01b9f	68 80 00 00 00	 push	 128			; 00000080H
  01ba4	68 00 00 04 00	 push	 262144			; 00040000H
  01ba9	8b 4d fc	 mov	 ecx, DWORD PTR _this$[ebp]
  01bac	81 c1 e8 00 00
	00		 add	 ecx, 232		; 000000e8H
  01bb2	e8 00 00 00 00	 call	 ?ModifyStyleEx@CWnd@@QAEHKKI@Z ; CWnd::ModifyStyleEx

; 551  : 
; 552  : 	m_pHistoryBtn.Create(NULL,WS_VISIBLE,CRect(DEFAULT_COMBOBOX_SIZE_WIDTH-10,1,DEFAULT_COMBOBOX_SIZE_WIDTH-1,DEFAULT_COMBOBOX_SIZE_HEIGHT-1),this,XSKINCOMBOBOX_BUTTON );

  01bb7	8b f4		 mov	 esi, esp
  01bb9	68 12 27 00 00	 push	 10002			; 00002712H
  01bbe	8b 4d fc	 mov	 ecx, DWORD PTR _this$[ebp]
  01bc1	51		 push	 ecx
  01bc2	6a 13		 push	 19			; 00000013H
  01bc4	6a 63		 push	 99			; 00000063H
  01bc6	6a 01		 push	 1
  01bc8	6a 5a		 push	 90			; 0000005aH
  01bca	8d 4d cc	 lea	 ecx, DWORD PTR $T189898[ebp]
