; Listing generated by Microsoft (R) Optimizing Compiler Version 13.10.3077 

	TITLE	.\src\Gui\CommonControl\xSkinButton.cpp
	.386P
include listing.inc
if @Version gt 510
.model FLAT
else
_TEXT	SEGMENT PARA USE32 PUBLIC 'CODE'
_TEXT	ENDS
_DATA	SEGMENT DWORD USE32 PUBLIC 'DATA'
_DATA	ENDS
CONST	SEGMENT DWORD USE32 PUBLIC 'CONST'
CONST	ENDS
_BSS	SEGMENT DWORD USE32 PUBLIC 'BSS'
_BSS	ENDS
$$SYMBOLS	SEGMENT BYTE USE32 'DEBSYM'
$$SYMBOLS	ENDS
_TLS	SEGMENT DWORD USE32 PUBLIC 'TLS'
_TLS	ENDS
;	COMDAT ??_C@_0EN@IBFBLEEG@D?3?2Program?5Files?5?$CIx86?$CJ?2Microsoft@
CONST	SEGMENT DWORD USE32 PUBLIC 'CONST'
CONST	ENDS
;	COMDAT ??_C@_0BI@GIMJKKKN@AtlIsValidString?$CI?5psz?5?$CJ?$AA@
CONST	SEGMENT DWORD USE32 PUBLIC 'CONST'
CONST	ENDS
rdata$r	SEGMENT DWORD USE32 PUBLIC 'CONST'
rdata$r	ENDS
xdata$x	SEGMENT DWORD USE32 PUBLIC 'CONST'
xdata$x	ENDS
text$AFX_COL1	SEGMENT PARA USE32 PUBLIC ''
text$AFX_COL1	ENDS
text$yc	SEGMENT PARA USE32 PUBLIC 'CODE'
text$yc	ENDS
CRT$XCA	SEGMENT DWORD USE32 PUBLIC 'DATA'
CRT$XCA	ENDS
CRT$XCU	SEGMENT DWORD USE32 PUBLIC 'DATA'
CRT$XCU	ENDS
CRT$XCL	SEGMENT DWORD USE32 PUBLIC 'DATA'
CRT$XCL	ENDS
CRT$XCC	SEGMENT DWORD USE32 PUBLIC 'DATA'
CRT$XCC	ENDS
CRT$XCZ	SEGMENT DWORD USE32 PUBLIC 'DATA'
CRT$XCZ	ENDS
text$yd	SEGMENT PARA USE32 PUBLIC 'CODE'
text$yd	ENDS
ATL$__m	SEGMENT DWORD USE32 PUBLIC ''
ATL$__m	ENDS
ATL$__z	SEGMENT DWORD USE32 PUBLIC ''
ATL$__z	ENDS
ATL$__a	SEGMENT DWORD USE32 PUBLIC ''
ATL$__a	ENDS
;	COMDAT ??1IData@@MAE@XZ
_TEXT	SEGMENT PARA USE32 PUBLIC 'CODE'
_TEXT	ENDS
;	COMDAT ?DataAppStart@IData@@UAEXXZ
_TEXT	SEGMENT PARA USE32 PUBLIC 'CODE'
_TEXT	ENDS
;	COMDAT ?DataAppExit@IData@@UAEXXZ
_TEXT	SEGMENT PARA USE32 PUBLIC 'CODE'
_TEXT	ENDS
;	COMDAT ??_GIData@@MAEPAXI@Z
_TEXT	SEGMENT PARA USE32 PUBLIC 'CODE'
_TEXT	ENDS
;	COMDAT ??_GCxSkinButton@@UAEPAXI@Z
_TEXT	SEGMENT PARA USE32 PUBLIC 'CODE'
_TEXT	ENDS
;	COMDAT ??8ATL@@YA_NABV?$CStringT@DV?$StrTraitMFC_DLL@DV?$ChTraitsCRT@D@ATL@@@@@0@PBD@Z
_TEXT	SEGMENT PARA USE32 PUBLIC 'CODE'
_TEXT	ENDS
;	COMDAT ??9ATL@@YA_NABV?$CStringT@DV?$StrTraitMFC_DLL@DV?$ChTraitsCRT@D@ATL@@@@@0@PBD@Z
_TEXT	SEGMENT PARA USE32 PUBLIC 'CODE'
_TEXT	ENDS
;	COMDAT ??B?$CComPtrBase@UITypeInfo2@@@ATL@@QBEPAUITypeInfo2@@XZ
_TEXT	SEGMENT PARA USE32 PUBLIC 'CODE'
_TEXT	ENDS
;	COMDAT ?equal@?$istreambuf_iterator@DU?$char_traits@D@std@@@std@@QBE_NABV12@@Z
_TEXT	SEGMENT PARA USE32 PUBLIC 'CODE'
_TEXT	ENDS
;	COMDAT ?equal@?$istreambuf_iterator@_WU?$char_traits@_W@std@@@std@@QBE_NABV12@@Z
_TEXT	SEGMENT PARA USE32 PUBLIC 'CODE'
_TEXT	ENDS
;	COMDAT ?StringCompare@?$ChTraitsCRT@D@ATL@@SAHPBD0@Z
_TEXT	SEGMENT PARA USE32 PUBLIC 'CODE'
_TEXT	ENDS
;	COMDAT ?Unlock@?$CComCritSecLock@VCComCriticalSection@ATL@@@ATL@@QAEXXZ
_TEXT	SEGMENT PARA USE32 PUBLIC 'CODE'
_TEXT	ENDS
;	COMDAT ??$_Maklocstr@D@std@@YAPADPBDPADABU_Cvtvec@@@Z
_TEXT	SEGMENT PARA USE32 PUBLIC 'CODE'
_TEXT	ENDS
;	COMDAT ??_R3?$numpunct@_W@std@@8
rdata$r	SEGMENT DWORD USE32 PUBLIC 'CONST'
rdata$r	ENDS
;	COMDAT ??_R3?$numpunct@D@std@@8
rdata$r	SEGMENT DWORD USE32 PUBLIC 'CONST'
rdata$r	ENDS
;	COMDAT ??_R3IData@@8
rdata$r	SEGMENT DWORD USE32 PUBLIC 'CONST'
rdata$r	ENDS
;	COMDAT ??_R3CxSkinButton@@8
rdata$r	SEGMENT DWORD USE32 PUBLIC 'CONST'
rdata$r	ENDS
;	COMDAT ??_R2?$numpunct@_W@std@@8
rdata$r	SEGMENT DWORD USE32 PUBLIC 'CONST'
rdata$r	ENDS
;	COMDAT ??_R2?$numpunct@D@std@@8
rdata$r	SEGMENT DWORD USE32 PUBLIC 'CONST'
rdata$r	ENDS
;	COMDAT ??_R2IData@@8
rdata$r	SEGMENT DWORD USE32 PUBLIC 'CONST'
rdata$r	ENDS
;	COMDAT ??_R2CxSkinButton@@8
rdata$r	SEGMENT DWORD USE32 PUBLIC 'CONST'
rdata$r	ENDS
;	COMDAT ??_R1A@?0A@A@?$numpunct@_W@std@@8
rdata$r	SEGMENT DWORD USE32 PUBLIC 'CONST'
rdata$r	ENDS
;	COMDAT ??_R1A@?0A@A@facet@locale@std@@8
rdata$r	SEGMENT DWORD USE32 PUBLIC 'CONST'
rdata$r	ENDS
;	COMDAT ??_R0?AVfacet@locale@std@@@8
_DATA	SEGMENT DWORD USE32 PUBLIC 'DATA'
_DATA	ENDS
;	COMDAT ??_R1A@?0A@A@?$numpunct@D@std@@8
rdata$r	SEGMENT DWORD USE32 PUBLIC 'CONST'
rdata$r	ENDS
;	COMDAT ??_R1A@?0A@A@IData@@8
rdata$r	SEGMENT DWORD USE32 PUBLIC 'CONST'
rdata$r	ENDS
;	COMDAT ??_R1A@?0A@A@CObject@@8
rdata$r	SEGMENT DWORD USE32 PUBLIC 'CONST'
rdata$r	ENDS
;	COMDAT ??_R0?AVCObject@@@8
_DATA	SEGMENT DWORD USE32 PUBLIC 'DATA'
_DATA	ENDS
;	COMDAT ??_R1A@?0A@A@CCmdTarget@@8
rdata$r	SEGMENT DWORD USE32 PUBLIC 'CONST'
rdata$r	ENDS
;	COMDAT ??_R0?AVCCmdTarget@@@8
_DATA	SEGMENT DWORD USE32 PUBLIC 'DATA'
_DATA	ENDS
;	COMDAT ??_R1A@?0A@A@CWnd@@8
rdata$r	SEGMENT DWORD USE32 PUBLIC 'CONST'
rdata$r	ENDS
;	COMDAT ??_R0?AVCWnd@@@8
_DATA	SEGMENT DWORD USE32 PUBLIC 'DATA'
_DATA	ENDS
;	COMDAT ??_R1A@?0A@A@CButton@@8
rdata$r	SEGMENT DWORD USE32 PUBLIC 'CONST'
rdata$r	ENDS
;	COMDAT ??_R1A@?0A@A@CxSkinButton@@8
rdata$r	SEGMENT DWORD USE32 PUBLIC 'CONST'
rdata$r	ENDS
;	COMDAT ??_R0?AV?$numpunct@_W@std@@@8
_DATA	SEGMENT DWORD USE32 PUBLIC 'DATA'
_DATA	ENDS
;	COMDAT ??_R0?AV?$numpunct@D@std@@@8
_DATA	SEGMENT DWORD USE32 PUBLIC 'DATA'
_DATA	ENDS
;	COMDAT ??_R0?AVIData@@@8
_DATA	SEGMENT DWORD USE32 PUBLIC 'DATA'
_DATA	ENDS
;	COMDAT ??_R0?AVCButton@@@8
_DATA	SEGMENT DWORD USE32 PUBLIC 'DATA'
_DATA	ENDS
;	COMDAT ??_R0?AVCxSkinButton@@@8
_DATA	SEGMENT DWORD USE32 PUBLIC 'DATA'
_DATA	ENDS
;	COMDAT ??0?$allocator@_W@std@@QAE@XZ
_TEXT	SEGMENT PARA USE32 PUBLIC 'CODE'
_TEXT	ENDS
;	COMDAT ??0?$allocator@D@std@@QAE@ABV01@@Z
_TEXT	SEGMENT PARA USE32 PUBLIC 'CODE'
_TEXT	ENDS
;	COMDAT ??0?$allocator@D@std@@QAE@XZ
_TEXT	SEGMENT PARA USE32 PUBLIC 'CODE'
_TEXT	ENDS
;	COMDAT ?deallocate@?$allocator@D@std@@QAEXPADI@Z
_TEXT	SEGMENT PARA USE32 PUBLIC 'CODE'
_TEXT	ENDS
;	COMDAT ?max_size@?$allocator@D@std@@QBEIXZ
_TEXT	SEGMENT PARA USE32 PUBLIC 'CODE'
_TEXT	ENDS
;	COMDAT ?allocate@?$allocator@D@std@@QAEPADI@Z
_TEXT	SEGMENT PARA USE32 PUBLIC 'CODE'
_TEXT	ENDS
;	COMDAT ??$_Allocate@D@std@@YAPADIPAD@Z
_TEXT	SEGMENT PARA USE32 PUBLIC 'CODE'
_TEXT	ENDS
;	COMDAT ??_G?$numpunct@_W@std@@MAEPAXI@Z
_TEXT	SEGMENT PARA USE32 PUBLIC 'CODE'
_TEXT	ENDS
;	COMDAT ??_R4?$numpunct@_W@std@@6B@
rdata$r	SEGMENT DWORD USE32 PUBLIC 'CONST'
rdata$r	ENDS
;	COMDAT ??_G?$numpunct@D@std@@MAEPAXI@Z
_TEXT	SEGMENT PARA USE32 PUBLIC 'CODE'
_TEXT	ENDS
;	COMDAT ??_R4?$numpunct@D@std@@6B@
rdata$r	SEGMENT DWORD USE32 PUBLIC 'CONST'
rdata$r	ENDS
;	COMDAT ??_R4IData@@6B@
rdata$r	SEGMENT DWORD USE32 PUBLIC 'CONST'
rdata$r	ENDS
;	COMDAT ??_R4CxSkinButton@@6B@
rdata$r	SEGMENT DWORD USE32 PUBLIC 'CONST'
rdata$r	ENDS
;	COMDAT ??_C@_0EN@CBMLGOH@D?3?2Program?5Files?5?$CIx86?$CJ?2Microsoft@
CONST	SEGMENT DWORD USE32 PUBLIC 'CONST'
CONST	ENDS
;	COMDAT ?_Psave@?$_Facetptr@V?$numpunct@_W@std@@@std@@2PBVfacet@locale@2@B
_DATA	SEGMENT DWORD USE32 PUBLIC 'DATA'
_DATA	ENDS
;	COMDAT ?_Psave@?$_Facetptr@V?$numpunct@D@std@@@std@@2PBVfacet@locale@2@B
_DATA	SEGMENT DWORD USE32 PUBLIC 'DATA'
_DATA	ENDS
;	COMDAT ?Unlock@CComCriticalSection@ATL@@QAEJXZ
_TEXT	SEGMENT PARA USE32 PUBLIC 'CODE'
_TEXT	ENDS
;	COMDAT ??_C@_0FG@LDNDNCJM@D?3?2Program?5Files?5?$CIx86?$CJ?2Microsoft@
CONST	SEGMENT DWORD USE32 PUBLIC 'CONST'
CONST	ENDS
;	COMDAT ??_C@_09HIEJFN@m_bLocked?$AA@
CONST	SEGMENT DWORD USE32 PUBLIC 'CONST'
CONST	ENDS
;	COMDAT ?_Psave@?$_Facetptr@V?$ctype@_W@std@@@std@@2PBVfacet@locale@2@B
_DATA	SEGMENT DWORD USE32 PUBLIC 'DATA'
_DATA	ENDS
;	COMDAT ?_Psave@?$_Facetptr@V?$ctype@D@std@@@std@@2PBVfacet@locale@2@B
_DATA	SEGMENT DWORD USE32 PUBLIC 'DATA'
_DATA	ENDS
;	COMDAT ??$_Maklocchr@_W@std@@YA_WDPA_WABU_Cvtvec@@@Z
_TEXT	SEGMENT PARA USE32 PUBLIC 'CODE'
_TEXT	ENDS
;	COMDAT ??$_DebugHeapDelete@X@std@@YAXPAX@Z
_TEXT	SEGMENT PARA USE32 PUBLIC 'CODE'
_TEXT	ENDS
;	COMDAT ??$_Maklocstr@_W@std@@YAPA_WPBDPA_WABU_Cvtvec@@@Z
_TEXT	SEGMENT PARA USE32 PUBLIC 'CODE'
_TEXT	ENDS
;	COMDAT ??$_Maklocchr@D@std@@YADDPADABU_Cvtvec@@@Z
_TEXT	SEGMENT PARA USE32 PUBLIC 'CODE'
_TEXT	ENDS
;	COMDAT ??_C@_04LOAJBDKD@true?$AA@
CONST	SEGMENT DWORD USE32 PUBLIC 'CONST'
CONST	ENDS
;	COMDAT ??_C@_05LAPONLG@false?$AA@
CONST	SEGMENT DWORD USE32 PUBLIC 'CONST'
CONST	ENDS
;	COMDAT _wmemcpy
_TEXT	SEGMENT PARA USE32 PUBLIC 'CODE'
_TEXT	ENDS
;	COMDAT ?max_size@?$allocator@_W@std@@QBEIXZ
_TEXT	SEGMENT PARA USE32 PUBLIC 'CODE'
_TEXT	ENDS
;	COMDAT ?allocate@?$allocator@_W@std@@QAEPA_WI@Z
_TEXT	SEGMENT PARA USE32 PUBLIC 'CODE'
_TEXT	ENDS
;	COMDAT ??$_Allocate@_W@std@@YAPA_WIPA_W@Z
_TEXT	SEGMENT PARA USE32 PUBLIC 'CODE'
_TEXT	ENDS
;	COMDAT ??_C@_01GFHCPBMG@C?$AA@
CONST	SEGMENT DWORD USE32 PUBLIC 'CONST'
CONST	ENDS
;	COMDAT ??_C@_0FH@KDPNIMBO@D?3?2Program?5Files?5?$CIx86?$CJ?2Microsoft@
CONST	SEGMENT DWORD USE32 PUBLIC 'CONST'
CONST	ENDS
;	COMDAT ?AtlIsValidString@ATL@@YAHPBDI@Z
_TEXT	SEGMENT PARA USE32 PUBLIC 'CODE'
_TEXT	ENDS
;	COMDAT ?_Peek@?$istreambuf_iterator@_WU?$char_traits@_W@std@@@std@@AAE_WXZ
_TEXT	SEGMENT PARA USE32 PUBLIC 'CODE'
_TEXT	ENDS
;	COMDAT ?_Peek@?$istreambuf_iterator@DU?$char_traits@D@std@@@std@@AAEDXZ
_TEXT	SEGMENT PARA USE32 PUBLIC 'CODE'
_TEXT	ENDS
;	COMDAT ??$use_facet@V?$ctype@_W@std@@@std@@YAABV?$ctype@_W@0@ABVlocale@0@@Z
_TEXT	SEGMENT PARA USE32 PUBLIC 'CODE'
_TEXT	ENDS
;	COMDAT ??_S?$ctype@_W@std@@6B@
CONST	SEGMENT DWORD USE32 PUBLIC 'CONST'
CONST	ENDS
;	COMDAT ??_R4?$ctype@_W@std@@6B@
rdata$r	SEGMENT DWORD USE32 PUBLIC 'CONST'
rdata$r	ENDS
;	COMDAT ??_R0?AV?$ctype@_W@std@@@8
_DATA	SEGMENT DWORD USE32 PUBLIC 'DATA'
_DATA	ENDS
;	COMDAT ??_R3?$ctype@_W@std@@8
rdata$r	SEGMENT DWORD USE32 PUBLIC 'CONST'
rdata$r	ENDS
;	COMDAT ??_R2?$ctype@_W@std@@8
rdata$r	SEGMENT DWORD USE32 PUBLIC 'CONST'
rdata$r	ENDS
;	COMDAT ??_R1A@?0A@A@?$ctype@_W@std@@8
rdata$r	SEGMENT DWORD USE32 PUBLIC 'CONST'
rdata$r	ENDS
;	COMDAT ??_R1A@?0A@A@ctype_base@std@@8
rdata$r	SEGMENT DWORD USE32 PUBLIC 'CONST'
rdata$r	ENDS
;	COMDAT ??_R0?AUctype_base@std@@@8
_DATA	SEGMENT DWORD USE32 PUBLIC 'DATA'
_DATA	ENDS
;	COMDAT ??_G?$ctype@_W@std@@MAEPAXI@Z
_TEXT	SEGMENT PARA USE32 PUBLIC 'CODE'
_TEXT	ENDS
;	COMDAT ??_C@_08EPJLHIJG@bad?5cast?$AA@
CONST	SEGMENT DWORD USE32 PUBLIC 'CONST'
CONST	ENDS
;	COMDAT __TI2?AVbad_cast@@
xdata$x	SEGMENT DWORD USE32 PUBLIC 'CONST'
xdata$x	ENDS
;	COMDAT __CTA2?AVbad_cast@@
xdata$x	SEGMENT DWORD USE32 PUBLIC 'CONST'
xdata$x	ENDS
;	COMDAT __CT??_R0?AVbad_cast@@@8??0bad_cast@@QAE@ABV0@@Z12
xdata$x	SEGMENT DWORD USE32 PUBLIC 'CONST'
xdata$x	ENDS
;	COMDAT ??_R0?AVbad_cast@@@8
_DATA	SEGMENT DWORD USE32 PUBLIC 'DATA'
_DATA	ENDS
;	COMDAT __CT??_R0?AVexception@@@8??0exception@@QAE@ABV0@@Z12
xdata$x	SEGMENT DWORD USE32 PUBLIC 'CONST'
xdata$x	ENDS
;	COMDAT ??_R0?AVexception@@@8
_DATA	SEGMENT DWORD USE32 PUBLIC 'DATA'
_DATA	ENDS
;	COMDAT ??$_DebugHeapDelete@Vfacet@locale@std@@@std@@YAXPAVfacet@locale@0@@Z
_TEXT	SEGMENT PARA USE32 PUBLIC 'CODE'
_TEXT	ENDS
;	COMDAT ??$use_facet@V?$ctype@D@std@@@std@@YAABV?$ctype@D@0@ABVlocale@0@@Z
_TEXT	SEGMENT PARA USE32 PUBLIC 'CODE'
_TEXT	ENDS
;	COMDAT ??_S?$ctype@D@std@@6B@
CONST	SEGMENT DWORD USE32 PUBLIC 'CONST'
CONST	ENDS
;	COMDAT ??_R4?$ctype@D@std@@6B@
rdata$r	SEGMENT DWORD USE32 PUBLIC 'CONST'
rdata$r	ENDS
;	COMDAT ??_R0?AV?$ctype@D@std@@@8
_DATA	SEGMENT DWORD USE32 PUBLIC 'DATA'
_DATA	ENDS
;	COMDAT ??_R3?$ctype@D@std@@8
rdata$r	SEGMENT DWORD USE32 PUBLIC 'CONST'
rdata$r	ENDS
;	COMDAT ??_R2?$ctype@D@std@@8
rdata$r	SEGMENT DWORD USE32 PUBLIC 'CONST'
rdata$r	ENDS
;	COMDAT ??_R1A@?0A@A@?$ctype@D@std@@8
rdata$r	SEGMENT DWORD USE32 PUBLIC 'CONST'
rdata$r	ENDS
;	COMDAT ??_G?$ctype@D@std@@MAEPAXI@Z
_TEXT	SEGMENT PARA USE32 PUBLIC 'CODE'
_TEXT	ENDS
;	COMDAT ??_S?$numpunct@_W@std@@6B@
CONST	SEGMENT DWORD USE32 PUBLIC 'CONST'
CONST	ENDS
;	COMDAT ??_S?$numpunct@D@std@@6B@
CONST	SEGMENT DWORD USE32 PUBLIC 'CONST'
CONST	ENDS
;	COMDAT _wmemmove
_TEXT	SEGMENT PARA USE32 PUBLIC 'CODE'
_TEXT	ENDS
;	COMDAT ?deallocate@?$allocator@_W@std@@QAEXPA_WI@Z
_TEXT	SEGMENT PARA USE32 PUBLIC 'CODE'
_TEXT	ENDS
;	COMDAT ??0?$allocator@_W@std@@QAE@ABV01@@Z
_TEXT	SEGMENT PARA USE32 PUBLIC 'CODE'
_TEXT	ENDS
;	COMDAT ?IsLocked@CStringData@ATL@@QBE_NXZ
_TEXT	SEGMENT PARA USE32 PUBLIC 'CODE'
_TEXT	ENDS
;	COMDAT ?AddRef@CStringData@ATL@@QAEXXZ
_TEXT	SEGMENT PARA USE32 PUBLIC 'CODE'
_TEXT	ENDS
;	COMDAT ??_C@_09EEBKLCFA@nRefs?5?$DO?50?$AA@
CONST	SEGMENT DWORD USE32 PUBLIC 'CONST'
CONST	ENDS
;	COMDAT ??_C@_0FJ@DMHPDOJC@D?3?2Program?5Files?5?$CIx86?$CJ?2Microsoft@
CONST	SEGMENT DWORD USE32 PUBLIC 'CONST'
CONST	ENDS
;	COMDAT ?AtlThrow@ATL@@YGXJ@Z
_TEXT	SEGMENT PARA USE32 PUBLIC 'CODE'
_TEXT	ENDS
;	COMDAT ??RCTraceFileAndLineInfo@ATL@@QBAXKIPBDZZ
_TEXT	SEGMENT PARA USE32 PUBLIC 'CODE'
_TEXT	ENDS
;	COMDAT ?TraceV@CTrace@ATL@@QBAXPBDHKI0PAD@Z
_TEXT	SEGMENT PARA USE32 PUBLIC 'CODE'
_TEXT	ENDS
;	COMDAT ??0CTraceFileAndLineInfo@ATL@@QAE@PBDH@Z
_TEXT	SEGMENT PARA USE32 PUBLIC 'CODE'
_TEXT	ENDS
;	COMDAT ??_C@_0FI@NHHJANPC@D?3?2Program?5Files?5?$CIx86?$CJ?2Microsoft@
CONST	SEGMENT DWORD USE32 PUBLIC 'CONST'
CONST	ENDS
;	COMDAT ??_C@_0BF@IAAKIJDJ@AtlThrow?3?5hr?5?$DN?50x?$CFx?6?$AA@
CONST	SEGMENT DWORD USE32 PUBLIC 'CONST'
CONST	ENDS
;	COMDAT ??BCTraceCategory@ATL@@QBEKXZ
_TEXT	SEGMENT PARA USE32 PUBLIC 'CODE'
_TEXT	ENDS
;	COMDAT ?data@CStringData@ATL@@QAEPAXXZ
_TEXT	SEGMENT PARA USE32 PUBLIC 'CODE'
_TEXT	ENDS
;	COMDAT ?Release@CStringData@ATL@@QAEXXZ
_TEXT	SEGMENT PARA USE32 PUBLIC 'CODE'
_TEXT	ENDS
;	COMDAT ??_C@_0L@OIIMFBNE@nRefs?5?$CB?$DN?50?$AA@
CONST	SEGMENT DWORD USE32 PUBLIC 'CONST'
CONST	ENDS
;	COMDAT ??_C@_0N@ILOMLJGA@nLength?5?$DO?$DN?50?$AA@
CONST	SEGMENT DWORD USE32 PUBLIC 'CONST'
CONST	ENDS
;	COMDAT ??_C@_0CD@EEFFJEGJ@nLength?5?$DM?$DN?5GetData?$CI?$CJ?9?$DOnAllocLeng@
CONST	SEGMENT DWORD USE32 PUBLIC 'CONST'
CONST	ENDS
;	COMDAT ?IsShared@CStringData@ATL@@QBE_NXZ
_TEXT	SEGMENT PARA USE32 PUBLIC 'CODE'
_TEXT	ENDS
;	COMDAT ??_C@_0CB@GFHAPKDK@pOldData?9?$DOnAllocLength?5?$DM?5nLength@
CONST	SEGMENT DWORD USE32 PUBLIC 'CONST'
CONST	ENDS
;	COMDAT ??_C@_0BA@GNIEOBOF@nNewLength?5?$DO?$DN?50?$AA@
CONST	SEGMENT DWORD USE32 PUBLIC 'CONST'
CONST	ENDS
;	COMDAT ?_messageEntries@CxSkinButton@@0QBUAFX_MSGMAP_ENTRY@@B
CONST	SEGMENT DWORD USE32 PUBLIC 'CONST'
CONST	ENDS
;	COMDAT ?messageMap@CxSkinButton@@1UAFX_MSGMAP@@B
CONST	SEGMENT DWORD USE32 PUBLIC 'CONST'
CONST	ENDS
;	COMDAT ??_C@_0BA@GOIMFHNK@pStringMgr?5?$CB?$DN?50?$AA@
CONST	SEGMENT DWORD USE32 PUBLIC 'CONST'
CONST	ENDS
;	COMDAT ?GetDefaultManager@?$StrTraitMFC_DLL@DV?$ChTraitsCRT@D@ATL@@@@SAPAUIAtlStringMgr@ATL@@XZ
_TEXT	SEGMENT PARA USE32 PUBLIC 'CODE'
_TEXT	ENDS
;	COMDAT ??_7CxSkinButton@@6B@
CONST	SEGMENT DWORD USE32 PUBLIC 'CONST'
CONST	ENDS
;	COMDAT ??_7IData@@6B@
CONST	SEGMENT DWORD USE32 PUBLIC 'CONST'
CONST	ENDS
sxdata	SEGMENT DWORD USE32 'SXDATA'
sxdata	ENDS
FLAT	GROUP _DATA, CONST, _BSS
	ASSUME	CS: FLAT, DS: FLAT, SS: FLAT
endif

INCLUDELIB MSVCRTD
INCLUDELIB OLDNAMES

PUBLIC	?OnEraseBkgnd@CxSkinButton@@QAEHPAVCDC@@@Z	; CxSkinButton::OnEraseBkgnd
PUBLIC	?OnLButtonDown@CxSkinButton@@QAEXIVCPoint@@@Z	; CxSkinButton::OnLButtonDown
PUBLIC	?OnRButtonDown@CxSkinButton@@QAEXIVCPoint@@@Z	; CxSkinButton::OnRButtonDown
PUBLIC	?OnLButtonUp@CxSkinButton@@QAEXIVCPoint@@@Z	; CxSkinButton::OnLButtonUp
PUBLIC	?OnRButtonUp@CxSkinButton@@QAEXIVCPoint@@@Z	; CxSkinButton::OnRButtonUp
PUBLIC	?OnMouseMove@CxSkinButton@@QAEXIVCPoint@@@Z	; CxSkinButton::OnMouseMove
PUBLIC	?OnLButtonDblClk@CxSkinButton@@QAEXIVCPoint@@@Z	; CxSkinButton::OnLButtonDblClk
PUBLIC	?OnKillFocus@CxSkinButton@@QAEXPAVCWnd@@@Z	; CxSkinButton::OnKillFocus
PUBLIC	?OnKeyDown@CxSkinButton@@QAEXIII@Z		; CxSkinButton::OnKeyDown
PUBLIC	?OnMouseLeave@CxSkinButton@@QAEJIJ@Z		; CxSkinButton::OnMouseLeave
PUBLIC	?OnMouseHover@CxSkinButton@@QAEJIJ@Z		; CxSkinButton::OnMouseHover
PUBLIC	?OnRadioInfo@CxSkinButton@@QAEJIJ@Z		; CxSkinButton::OnRadioInfo
PUBLIC	?OnBMSetCheck@CxSkinButton@@QAEJIJ@Z		; CxSkinButton::OnBMSetCheck
PUBLIC	?OnBMGetCheck@CxSkinButton@@QAEJIJ@Z		; CxSkinButton::OnBMGetCheck
PUBLIC	?_messageEntries@CxSkinButton@@0QBUAFX_MSGMAP_ENTRY@@B ; CxSkinButton::_messageEntries
PUBLIC	?messageMap@CxSkinButton@@1UAFX_MSGMAP@@B	; CxSkinButton::messageMap
EXTRN	?GetThisMessageMap@CWnd@@KGPBUAFX_MSGMAP@@XZ:NEAR ; CWnd::GetThisMessageMap
_DATA	SEGMENT
_THIS_FILE DB	'.\src\Gui\CommonControl\xSkinButton.cpp', 00H
_DATA	ENDS
CONST	SEGMENT
$SG187284 DB	'DISPLAY', 00H
$SG187394 DB	00H
CONST	ENDS
;	COMDAT ?_messageEntries@CxSkinButton@@0QBUAFX_MSGMAP_ENTRY@@B
CONST	SEGMENT
?_messageEntries@CxSkinButton@@0QBUAFX_MSGMAP_ENTRY@@B DD 014H ; CxSkinButton::_messageEntries
	DD	00H
	DD	00H
	DD	00H
	DD	01H
	DD	FLAT:?OnEraseBkgnd@CxSkinButton@@QAEHPAVCDC@@@Z
	DD	0201H
	DD	00H
	DD	00H
	DD	00H
	DD	032H
	DD	FLAT:?OnLButtonDown@CxSkinButton@@QAEXIVCPoint@@@Z
	DD	0204H
	DD	00H
	DD	00H
	DD	00H
	DD	032H
	DD	FLAT:?OnRButtonDown@CxSkinButton@@QAEXIVCPoint@@@Z
	DD	0202H
	DD	00H
	DD	00H
	DD	00H
	DD	032H
	DD	FLAT:?OnLButtonUp@CxSkinButton@@QAEXIVCPoint@@@Z
	DD	0205H
	DD	00H
	DD	00H
	DD	00H
	DD	032H
	DD	FLAT:?OnRButtonUp@CxSkinButton@@QAEXIVCPoint@@@Z
	DD	0200H
	DD	00H
	DD	00H
	DD	00H
	DD	032H
	DD	FLAT:?OnMouseMove@CxSkinButton@@QAEXIVCPoint@@@Z
	DD	0203H
	DD	00H
	DD	00H
	DD	00H
	DD	032H
	DD	FLAT:?OnLButtonDblClk@CxSkinButton@@QAEXIVCPoint@@@Z
	DD	08H
	DD	00H
	DD	00H
	DD	00H
	DD	020H
	DD	FLAT:?OnKillFocus@CxSkinButton@@QAEXPAVCWnd@@@Z
	DD	0100H
	DD	00H
	DD	00H
	DD	00H
	DD	015H
	DD	FLAT:?OnKeyDown@CxSkinButton@@QAEXIII@Z
	DD	02a3H
	DD	00H
	DD	00H
	DD	00H
	DD	0eH
	DD	FLAT:?OnMouseLeave@CxSkinButton@@QAEJIJ@Z
	DD	02a1H
	DD	00H
	DD	00H
	DD	00H
	DD	0eH
	DD	FLAT:?OnMouseHover@CxSkinButton@@QAEJIJ@Z
	DD	0500H
	DD	00H
	DD	00H
	DD	00H
	DD	0eH
	DD	FLAT:?OnRadioInfo@CxSkinButton@@QAEJIJ@Z
	DD	0f1H
	DD	00H
	DD	00H
	DD	00H
	DD	0eH
	DD	FLAT:?OnBMSetCheck@CxSkinButton@@QAEJIJ@Z
	DD	0f0H
	DD	00H
	DD	00H
	DD	00H
	DD	0eH
	DD	FLAT:?OnBMGetCheck@CxSkinButton@@QAEJIJ@Z
	DD	00H
	DD	00H
	DD	00H
	DD	00H
	DD	00H
	DD	00H
CONST	ENDS
;	COMDAT ?messageMap@CxSkinButton@@1UAFX_MSGMAP@@B
CONST	SEGMENT
?messageMap@CxSkinButton@@1UAFX_MSGMAP@@B DD FLAT:?GetThisMessageMap@CWnd@@KGPBUAFX_MSGMAP@@XZ ; CxSkinButton::messageMap
	DD	FLAT:?_messageEntries@CxSkinButton@@0QBUAFX_MSGMAP_ENTRY@@B
CONST	ENDS
CONST	SEGMENT
	ORG $+3
$SG187502 DB	0b9H, 0dbH, 0bfH, 0b4H, 0cfH, 0e0H, 0b9H, 0d8H, 'MV', 00H
	ORG $+1
$SG187516 DB	0cbH, 0ceH, 0ccH, 0e5H, 00H
$SG187748 DB	00H
$SG187767 DB	00H
$SG187982 DB	00H
$SG187983 DB	'tooltips_class32', 00H
CONST	ENDS
PUBLIC	?CreateRegionFromDib@CxSkinButton@@QAEPAUHRGN__@@PAVCDibBitmap@@K@Z ; CxSkinButton::CreateRegionFromDib
EXTRN	??3@YAXPAX@Z:NEAR				; operator delete
EXTRN	__RTC_InitBase:NEAR
EXTRN	__RTC_Shutdown:NEAR
EXTRN	__RTC_UninitUse:NEAR
EXTRN	__RTC_CheckEsp:NEAR
EXTRN	@_RTC_CheckStackVars@8:NEAR
EXTRN	__imp__ReleaseDC@8:NEAR
EXTRN	__imp__CreateICA@16:NEAR
EXTRN	__imp__DeleteDC@4:NEAR
EXTRN	??_V@YAXPAX@Z:NEAR				; operator delete[]
EXTRN	??0CRect@@QAE@HHHH@Z:NEAR			; CRect::CRect
EXTRN	?CreateBitmap@CDibBitmap@@QAEPAUHBITMAP__@@PAVCDC@@@Z:NEAR ; CDibBitmap::CreateBitmap
EXTRN	__imp__ExtCreateRegion@12:NEAR
EXTRN	__imp__GetDIBits@28:NEAR
EXTRN	__imp__GetObjectA@12:NEAR
EXTRN	?GetDC@CWnd@@QAEPAVCDC@@XZ:NEAR			; CWnd::GetDC
EXTRN	??_U@YAPAXIPBDH@Z:NEAR				; operator new[]
EXTRN	_memcpy:NEAR
EXTRN	_memset:NEAR
;	COMDAT rtc$IMZ
; File d:\boxgit\playbox\playbox\dev\prj\playbox\src\gui\commoncontrol\xskinbutton.cpp
rtc$IMZ	SEGMENT
__RTC_InitBase.rtc$IMZ DD FLAT:__RTC_InitBase
rtc$IMZ	ENDS
;	COMDAT rtc$TMZ
rtc$TMZ	SEGMENT
__RTC_Shutdown.rtc$TMZ DD FLAT:__RTC_Shutdown
; Function compile flags: /Odt /RTCsu
rtc$TMZ	ENDS
_TEXT	SEGMENT
tv221 = -272						; size = 4
$T188544 = -265						; size = 1
$T188537 = -264						; size = 4
$T188536 = -260						; size = 4
$T188535 = -256						; size = 4
$T188534 = -252						; size = 4
$T188533 = -248						; size = 4
$T188532 = -244						; size = 16
$T188531 = -228						; size = 4
$T188530 = -224						; size = 4
$T188529 = -220						; size = 16
$T188528 = -204						; size = 4
$T188527 = -200						; size = 4
$T188526 = -196						; size = 4
$T188525 = -192						; size = 4
$T188524 = -188						; size = 4
_hRgn$ = -184						; size = 4
_i$187380 = -180					; size = 4
_pRgnDataNew$187370 = -176				; size = 4
_pRgnDataNew$187356 = -172				; size = 4
_k$187336 = -168					; size = 4
_pRects$ = -164						; size = 4
_pRgnData$ = -160					; size = 4
_ismask$ = -154						; size = 1
_wasfirst$ = -153					; size = 1
_first$ = -152						; size = 4
_j$ = -148						; size = 4
_i$ = -144						; size = 4
_dwRectsCount$ = -140					; size = 4
_dwLineBackLen$ = -136					; size = 4
_pColor$ = -132						; size = 4
_m_dwAlignedWidthBytes$ = -128				; size = 4
_Bpp$ = -121						; size = 1
_ADD_RECTS_COUNT$ = -120				; size = 4
_RGNDATAHEADER_SIZE$ = -116				; size = 4
_tmp$ = -109						; size = 1
_pClr$ = -108						; size = 4
_bm$ = -100						; size = 24
_clr_tbl$ = -72						; size = 4
_bih$ = -68						; size = 4
_old_bi$187290 = -64					; size = 4
_pBits$ = -60						; size = 4
_res$ = -56						; size = 4
_dc$ = -52						; size = 4
_bi$ = -48						; size = 4
_bmp$ = -40						; size = 24
_hBmp$ = -12						; size = 4
_pDC$ = -8						; size = 4
_this$ = -4						; size = 4
_dib$ = 8						; size = 4
_color$ = 12						; size = 4
?CreateRegionFromDib@CxSkinButton@@QAEPAUHRGN__@@PAVCDibBitmap@@K@Z PROC NEAR ; CxSkinButton::CreateRegionFromDib
; _this$ = ecx

; 36   : {

  00000	55		 push	 ebp
  00001	8b ec		 mov	 ebp, esp
  00003	81 ec 10 01 00
	00		 sub	 esp, 272		; 00000110H
  00009	56		 push	 esi
  0000a	57		 push	 edi
  0000b	51		 push	 ecx
  0000c	8d bd f0 fe ff
	ff		 lea	 edi, DWORD PTR [ebp-272]
  00012	b9 44 00 00 00	 mov	 ecx, 68			; 00000044H
  00017	b8 cc cc cc cc	 mov	 eax, -858993460		; ccccccccH
  0001c	f3 ab		 rep stosd
  0001e	59		 pop	 ecx
  0001f	89 4d fc	 mov	 DWORD PTR _this$[ebp], ecx
  00022	c6 85 f7 fe ff
	ff 00		 mov	 BYTE PTR $T188544[ebp], 0

; 37   : 	CDC *pDC = GetDC();

  00029	8b 4d fc	 mov	 ecx, DWORD PTR _this$[ebp]
  0002c	e8 00 00 00 00	 call	 ?GetDC@CWnd@@QAEPAVCDC@@XZ ; CWnd::GetDC
  00031	89 45 f8	 mov	 DWORD PTR _pDC$[ebp], eax

; 38   : 	HBITMAP hBmp = dib->CreateBitmap(pDC);

  00034	8b 45 f8	 mov	 eax, DWORD PTR _pDC$[ebp]
  00037	50		 push	 eax
  00038	8b 4d 08	 mov	 ecx, DWORD PTR _dib$[ebp]
  0003b	e8 00 00 00 00	 call	 ?CreateBitmap@CDibBitmap@@QAEPAUHBITMAP__@@PAVCDC@@@Z ; CDibBitmap::CreateBitmap
  00040	89 45 f4	 mov	 DWORD PTR _hBmp$[ebp], eax

; 39   : 	::ReleaseDC(m_hWnd, pDC->m_hDC);

  00043	8b f4		 mov	 esi, esp
  00045	8b 4d f8	 mov	 ecx, DWORD PTR _pDC$[ebp]
  00048	8b 51 04	 mov	 edx, DWORD PTR [ecx+4]
  0004b	52		 push	 edx
  0004c	8b 45 fc	 mov	 eax, DWORD PTR _this$[ebp]
  0004f	8b 48 20	 mov	 ecx, DWORD PTR [eax+32]
  00052	51		 push	 ecx
  00053	ff 15 00 00 00
	00		 call	 DWORD PTR __imp__ReleaseDC@8
  00059	3b f4		 cmp	 esi, esp
  0005b	e8 00 00 00 00	 call	 __RTC_CheckEsp

; 40   : 	// get image properties
; 41   : 	BITMAP bmp = { 0 };

  00060	c7 45 d8 00 00
	00 00		 mov	 DWORD PTR _bmp$[ebp], 0
  00067	33 d2		 xor	 edx, edx
  00069	89 55 dc	 mov	 DWORD PTR _bmp$[ebp+4], edx
  0006c	89 55 e0	 mov	 DWORD PTR _bmp$[ebp+8], edx
  0006f	89 55 e4	 mov	 DWORD PTR _bmp$[ebp+12], edx
  00072	89 55 e8	 mov	 DWORD PTR _bmp$[ebp+16], edx
  00075	89 55 ec	 mov	 DWORD PTR _bmp$[ebp+20], edx

; 42   : 	GetObject( hBmp, sizeof(BITMAP), &bmp );

  00078	8b f4		 mov	 esi, esp
  0007a	8d 45 d8	 lea	 eax, DWORD PTR _bmp$[ebp]
  0007d	50		 push	 eax
  0007e	6a 18		 push	 24			; 00000018H
  00080	8b 4d f4	 mov	 ecx, DWORD PTR _hBmp$[ebp]
  00083	51		 push	 ecx
  00084	ff 15 00 00 00
	00		 call	 DWORD PTR __imp__GetObjectA@12
  0008a	3b f4		 cmp	 esi, esp
  0008c	e8 00 00 00 00	 call	 __RTC_CheckEsp

; 43   : 	// allocate memory for extended image information
; 44   : 	LPBITMAPINFO bi = (LPBITMAPINFO) new BYTE[ sizeof(BITMAPINFO) + 8 ];

  00091	6a 2c		 push	 44			; 0000002cH
  00093	68 00 00 00 00	 push	 OFFSET FLAT:_THIS_FILE
  00098	6a 34		 push	 52			; 00000034H
  0009a	e8 00 00 00 00	 call	 ??_U@YAPAXIPBDH@Z	; operator new[]
  0009f	83 c4 0c	 add	 esp, 12			; 0000000cH
  000a2	89 85 44 ff ff
	ff		 mov	 DWORD PTR $T188524[ebp], eax
  000a8	8b 95 44 ff ff
	ff		 mov	 edx, DWORD PTR $T188524[ebp]
  000ae	89 55 d0	 mov	 DWORD PTR _bi$[ebp], edx

; 45   : 	memset( bi, 0, sizeof(BITMAPINFO) + 8 );

  000b1	6a 34		 push	 52			; 00000034H
  000b3	6a 00		 push	 0
  000b5	8b 45 d0	 mov	 eax, DWORD PTR _bi$[ebp]
  000b8	50		 push	 eax
  000b9	e8 00 00 00 00	 call	 _memset
  000be	83 c4 0c	 add	 esp, 12			; 0000000cH

; 46   : 	bi->bmiHeader.biSize = sizeof(BITMAPINFOHEADER);

  000c1	8b 4d d0	 mov	 ecx, DWORD PTR _bi$[ebp]
  000c4	c7 01 28 00 00
	00		 mov	 DWORD PTR [ecx], 40	; 00000028H

; 47   : 	// set window size
; 48   : 	//m_dwWidth	= bmp.bmWidth;		// bitmap width
; 49   : 	//m_dwHeight	= bmp.bmHeight;		// bitmap height
; 50   : 	// create temporary dc
; 51   : 	HDC dc = CreateIC( "DISPLAY",NULL,NULL,NULL );

  000ca	8b f4		 mov	 esi, esp
  000cc	6a 00		 push	 0
  000ce	6a 00		 push	 0
  000d0	6a 00		 push	 0
  000d2	68 00 00 00 00	 push	 OFFSET FLAT:$SG187284
  000d7	ff 15 00 00 00
	00		 call	 DWORD PTR __imp__CreateICA@16
  000dd	3b f4		 cmp	 esi, esp
  000df	e8 00 00 00 00	 call	 __RTC_CheckEsp
  000e4	89 45 cc	 mov	 DWORD PTR _dc$[ebp], eax

; 52   : 	// get extended information about image (length, compression, length of color table if exist, ...)
; 53   : 	DWORD res = GetDIBits( dc, hBmp, 0, bmp.bmHeight, 0, bi, DIB_RGB_COLORS );

  000e7	8b f4		 mov	 esi, esp
  000e9	6a 00		 push	 0
  000eb	8b 55 d0	 mov	 edx, DWORD PTR _bi$[ebp]
  000ee	52		 push	 edx
  000ef	6a 00		 push	 0
  000f1	8b 45 e0	 mov	 eax, DWORD PTR _bmp$[ebp+8]
  000f4	50		 push	 eax
  000f5	6a 00		 push	 0
  000f7	8b 4d f4	 mov	 ecx, DWORD PTR _hBmp$[ebp]
  000fa	51		 push	 ecx
  000fb	8b 55 cc	 mov	 edx, DWORD PTR _dc$[ebp]
  000fe	52		 push	 edx
  000ff	ff 15 00 00 00
	00		 call	 DWORD PTR __imp__GetDIBits@28
  00105	3b f4		 cmp	 esi, esp
  00107	e8 00 00 00 00	 call	 __RTC_CheckEsp
  0010c	89 45 c8	 mov	 DWORD PTR _res$[ebp], eax

; 54   : 	// allocate memory for image data (colors)
; 55   : 	LPBYTE pBits = new BYTE[ bi->bmiHeader.biSizeImage + 4 ];

  0010f	6a 37		 push	 55			; 00000037H
  00111	68 00 00 00 00	 push	 OFFSET FLAT:_THIS_FILE
  00116	8b 45 d0	 mov	 eax, DWORD PTR _bi$[ebp]
  00119	8b 48 14	 mov	 ecx, DWORD PTR [eax+20]
  0011c	83 c1 04	 add	 ecx, 4
  0011f	51		 push	 ecx
  00120	e8 00 00 00 00	 call	 ??_U@YAPAXIPBDH@Z	; operator new[]
  00125	83 c4 0c	 add	 esp, 12			; 0000000cH
  00128	89 85 40 ff ff
	ff		 mov	 DWORD PTR $T188525[ebp], eax
  0012e	8b 95 40 ff ff
	ff		 mov	 edx, DWORD PTR $T188525[ebp]
  00134	89 55 c4	 mov	 DWORD PTR _pBits$[ebp], edx

; 56   : 	// allocate memory for color table
; 57   : 	if ( bi->bmiHeader.biBitCount == 8 )

  00137	8b 45 d0	 mov	 eax, DWORD PTR _bi$[ebp]
  0013a	0f b7 48 0e	 movzx	 ecx, WORD PTR [eax+14]
  0013e	83 f9 08	 cmp	 ecx, 8
  00141	75 53		 jne	 SHORT $L187289

; 58   : 	{
; 59   : 		// actually color table should be appended to this header(BITMAPINFO),
; 60   : 		// so we have to reallocate and copy it
; 61   : 		LPBITMAPINFO old_bi = bi;

  00143	8b 55 d0	 mov	 edx, DWORD PTR _bi$[ebp]
  00146	89 55 c0	 mov	 DWORD PTR _old_bi$187290[ebp], edx

; 62   : 		// 255 - because there is one in BITMAPINFOHEADER
; 63   : 		bi = (LPBITMAPINFO)new char[ sizeof(BITMAPINFO) + 255 * sizeof(RGBQUAD) ];

  00149	6a 3f		 push	 63			; 0000003fH
  0014b	68 00 00 00 00	 push	 OFFSET FLAT:_THIS_FILE
  00150	68 28 04 00 00	 push	 1064			; 00000428H
  00155	e8 00 00 00 00	 call	 ??_U@YAPAXIPBDH@Z	; operator new[]
  0015a	83 c4 0c	 add	 esp, 12			; 0000000cH
  0015d	89 85 3c ff ff
	ff		 mov	 DWORD PTR $T188526[ebp], eax
  00163	8b 85 3c ff ff
	ff		 mov	 eax, DWORD PTR $T188526[ebp]
  00169	89 45 d0	 mov	 DWORD PTR _bi$[ebp], eax

; 64   : 		memcpy( bi, old_bi, sizeof(BITMAPINFO) );

  0016c	6a 2c		 push	 44			; 0000002cH
  0016e	8b 4d c0	 mov	 ecx, DWORD PTR _old_bi$187290[ebp]
  00171	51		 push	 ecx
  00172	8b 55 d0	 mov	 edx, DWORD PTR _bi$[ebp]
  00175	52		 push	 edx
  00176	e8 00 00 00 00	 call	 _memcpy
  0017b	83 c4 0c	 add	 esp, 12			; 0000000cH

; 65   : 		// release old header
; 66   : 		delete old_bi;

  0017e	8b 45 c0	 mov	 eax, DWORD PTR _old_bi$187290[ebp]
  00181	89 85 38 ff ff
	ff		 mov	 DWORD PTR $T188527[ebp], eax
  00187	8b 8d 38 ff ff
	ff		 mov	 ecx, DWORD PTR $T188527[ebp]
  0018d	51		 push	 ecx
  0018e	e8 00 00 00 00	 call	 ??3@YAXPAX@Z		; operator delete
  00193	83 c4 04	 add	 esp, 4
$L187289:

; 67   : 	}
; 68   : 	// get bitmap info header
; 69   : 	BITMAPINFOHEADER& bih = bi->bmiHeader;

  00196	8b 55 d0	 mov	 edx, DWORD PTR _bi$[ebp]
  00199	89 55 bc	 mov	 DWORD PTR _bih$[ebp], edx

; 70   : 	// get color table (for 256 color mode contains 256 entries of RGBQUAD(=DWORD))
; 71   : 	LPDWORD clr_tbl = (LPDWORD)&bi->bmiColors;

  0019c	8b 45 d0	 mov	 eax, DWORD PTR _bi$[ebp]
  0019f	83 c0 28	 add	 eax, 40			; 00000028H
  001a2	89 45 b8	 mov	 DWORD PTR _clr_tbl$[ebp], eax

; 72   : 	// fill bits buffer
; 73   : 	res = GetDIBits( dc, hBmp, 0, bih.biHeight, pBits, bi, DIB_RGB_COLORS );

  001a5	8b f4		 mov	 esi, esp
  001a7	6a 00		 push	 0
  001a9	8b 4d d0	 mov	 ecx, DWORD PTR _bi$[ebp]
  001ac	51		 push	 ecx
  001ad	8b 55 c4	 mov	 edx, DWORD PTR _pBits$[ebp]
  001b0	52		 push	 edx
  001b1	8b 45 bc	 mov	 eax, DWORD PTR _bih$[ebp]
  001b4	8b 48 08	 mov	 ecx, DWORD PTR [eax+8]
  001b7	51		 push	 ecx
  001b8	6a 00		 push	 0
  001ba	8b 55 f4	 mov	 edx, DWORD PTR _hBmp$[ebp]
  001bd	52		 push	 edx
  001be	8b 45 cc	 mov	 eax, DWORD PTR _dc$[ebp]
  001c1	50		 push	 eax
  001c2	ff 15 00 00 00
	00		 call	 DWORD PTR __imp__GetDIBits@28
  001c8	3b f4		 cmp	 esi, esp
  001ca	e8 00 00 00 00	 call	 __RTC_CheckEsp
  001cf	89 45 c8	 mov	 DWORD PTR _res$[ebp], eax

; 74   : 	DeleteDC( dc );

  001d2	8b f4		 mov	 esi, esp
  001d4	8b 4d cc	 mov	 ecx, DWORD PTR _dc$[ebp]
  001d7	51		 push	 ecx
  001d8	ff 15 00 00 00
	00		 call	 DWORD PTR __imp__DeleteDC@4
  001de	3b f4		 cmp	 esi, esp
  001e0	e8 00 00 00 00	 call	 __RTC_CheckEsp

; 75   : 
; 76   : 	BITMAP bm;
; 77   : 	GetObject( hBmp, sizeof(BITMAP), &bm );

  001e5	8b f4		 mov	 esi, esp
  001e7	8d 55 9c	 lea	 edx, DWORD PTR _bm$[ebp]
  001ea	52		 push	 edx
  001eb	6a 18		 push	 24			; 00000018H
  001ed	8b 45 f4	 mov	 eax, DWORD PTR _hBmp$[ebp]
  001f0	50		 push	 eax
  001f1	ff 15 00 00 00
	00		 call	 DWORD PTR __imp__GetObjectA@12
  001f7	3b f4		 cmp	 esi, esp
  001f9	e8 00 00 00 00	 call	 __RTC_CheckEsp

; 78   : 	// shift bits and byte per pixel (for comparing colors)
; 79   : 	LPBYTE pClr = (LPBYTE)&color;

  001fe	8d 4d 0c	 lea	 ecx, DWORD PTR _color$[ebp]
  00201	89 4d 94	 mov	 DWORD PTR _pClr$[ebp], ecx

; 80   : 	// swap red and blue components
; 81   : 	BYTE tmp = pClr[0]; pClr[0] = pClr[2]; pClr[2] = tmp;

  00204	8b 55 94	 mov	 edx, DWORD PTR _pClr$[ebp]
  00207	8a 02		 mov	 al, BYTE PTR [edx]
  00209	88 45 93	 mov	 BYTE PTR _tmp$[ebp], al
  0020c	8b 4d 94	 mov	 ecx, DWORD PTR _pClr$[ebp]
  0020f	8b 55 94	 mov	 edx, DWORD PTR _pClr$[ebp]
  00212	8a 42 02	 mov	 al, BYTE PTR [edx+2]
  00215	88 01		 mov	 BYTE PTR [ecx], al
  00217	8b 4d 94	 mov	 ecx, DWORD PTR _pClr$[ebp]
  0021a	8a 55 93	 mov	 dl, BYTE PTR _tmp$[ebp]
  0021d	88 51 02	 mov	 BYTE PTR [ecx+2], dl

; 82   : 	// convert color if curent DC is 16-bit (5:6:5) or 15-bit (5:5:5)
; 83   : 	if ( bih.biBitCount == 16 )

  00220	8b 45 bc	 mov	 eax, DWORD PTR _bih$[ebp]
  00223	0f b7 48 0e	 movzx	 ecx, WORD PTR [eax+14]
  00227	83 f9 10	 cmp	 ecx, 16			; 00000010H
  0022a	75 35		 jne	 SHORT $L187306

; 84   : 	{
; 85   : 		// for 16 bit
; 86   : 		color = ((DWORD)(pClr[0] & 0xf8) >> 3) |
; 87   : 				((DWORD)(pClr[1] & 0xfc) << 3) |
; 88   : 				((DWORD)(pClr[2] & 0xf8) << 8);

  0022c	8b 55 94	 mov	 edx, DWORD PTR _pClr$[ebp]
  0022f	0f b6 02	 movzx	 eax, BYTE PTR [edx]
  00232	25 f8 00 00 00	 and	 eax, 248		; 000000f8H
  00237	c1 e8 03	 shr	 eax, 3
  0023a	8b 4d 94	 mov	 ecx, DWORD PTR _pClr$[ebp]
  0023d	0f b6 51 01	 movzx	 edx, BYTE PTR [ecx+1]
  00241	81 e2 fc 00 00
	00		 and	 edx, 252		; 000000fcH
  00247	c1 e2 03	 shl	 edx, 3
  0024a	0b c2		 or	 eax, edx
  0024c	8b 4d 94	 mov	 ecx, DWORD PTR _pClr$[ebp]
  0024f	0f b6 51 02	 movzx	 edx, BYTE PTR [ecx+2]
  00253	81 e2 f8 00 00
	00		 and	 edx, 248		; 000000f8H
  00259	c1 e2 08	 shl	 edx, 8
  0025c	0b c2		 or	 eax, edx
  0025e	89 45 0c	 mov	 DWORD PTR _color$[ebp], eax
$L187306:

; 89   : 		// for 15 bit
; 90   : //		color = ((DWORD)(pClr[0] & 0xf8) >> 3) |
; 91   : //				((DWORD)(pClr[1] & 0xf8) << 2) |
; 92   : //				((DWORD)(pClr[2] & 0xf8) << 7);
; 93   : 	}
; 94   : 
; 95   : 	const DWORD RGNDATAHEADER_SIZE	= sizeof(RGNDATAHEADER);

  00261	c7 45 8c 20 00
	00 00		 mov	 DWORD PTR _RGNDATAHEADER_SIZE$[ebp], 32 ; 00000020H

; 96   : 	const DWORD ADD_RECTS_COUNT		= 40;			// number of rects to be appended

  00268	c7 45 88 28 00
	00 00		 mov	 DWORD PTR _ADD_RECTS_COUNT$[ebp], 40 ; 00000028H

; 97   : 													// to region data buffer
; 98   : 
; 99   : 	// BitPerPixel
; 100  : 	BYTE	Bpp = bih.biBitCount >> 3;				// bytes per pixel

  0026f	8b 45 bc	 mov	 eax, DWORD PTR _bih$[ebp]
  00272	0f b7 48 0e	 movzx	 ecx, WORD PTR [eax+14]
  00276	c1 f9 03	 sar	 ecx, 3
  00279	88 4d 87	 mov	 BYTE PTR _Bpp$[ebp], cl

; 101  : 	// bytes per line in pBits is DWORD aligned and bmp.bmWidthBytes is WORD aligned
; 102  : 	// so, both of them not
; 103  : 	DWORD m_dwAlignedWidthBytes = (bmp.bmWidthBytes & ~0x3) + (!!(bmp.bmWidthBytes & 0x3) << 2);

  0027c	8b 55 e4	 mov	 edx, DWORD PTR _bmp$[ebp+12]
  0027f	83 e2 fc	 and	 edx, -4			; fffffffcH
  00282	8b 45 e4	 mov	 eax, DWORD PTR _bmp$[ebp+12]
  00285	83 e0 03	 and	 eax, 3
  00288	f7 d8		 neg	 eax
  0028a	1b c0		 sbb	 eax, eax
  0028c	f7 d8		 neg	 eax
  0028e	8d 0c 82	 lea	 ecx, DWORD PTR [edx+eax*4]
  00291	89 4d 80	 mov	 DWORD PTR _m_dwAlignedWidthBytes$[ebp], ecx

; 104  : 	// DIB image is flipped that's why we scan it from the last line
; 105  : 	LPBYTE	pColor = pBits + (bih.biHeight - 1) * m_dwAlignedWidthBytes;

  00294	8b 55 bc	 mov	 edx, DWORD PTR _bih$[ebp]
  00297	8b 42 08	 mov	 eax, DWORD PTR [edx+8]
  0029a	83 e8 01	 sub	 eax, 1
  0029d	0f af 45 80	 imul	 eax, DWORD PTR _m_dwAlignedWidthBytes$[ebp]
  002a1	03 45 c4	 add	 eax, DWORD PTR _pBits$[ebp]
  002a4	89 85 7c ff ff
	ff		 mov	 DWORD PTR _pColor$[ebp], eax

; 106  : 	DWORD	dwLineBackLen = m_dwAlignedWidthBytes + bih.biWidth * Bpp;	// offset of previous scan line

  002aa	0f b6 4d 87	 movzx	 ecx, BYTE PTR _Bpp$[ebp]
  002ae	8b 55 bc	 mov	 edx, DWORD PTR _bih$[ebp]
  002b1	0f af 4a 04	 imul	 ecx, DWORD PTR [edx+4]
  002b5	03 4d 80	 add	 ecx, DWORD PTR _m_dwAlignedWidthBytes$[ebp]
  002b8	89 8d 78 ff ff
	ff		 mov	 DWORD PTR _dwLineBackLen$[ebp], ecx

; 107  : 													// (after processing of current)
; 108  : 	DWORD	dwRectsCount = bih.biHeight;			// number of rects in allocated buffer

  002be	8b 45 bc	 mov	 eax, DWORD PTR _bih$[ebp]
  002c1	8b 48 08	 mov	 ecx, DWORD PTR [eax+8]
  002c4	89 8d 74 ff ff
	ff		 mov	 DWORD PTR _dwRectsCount$[ebp], ecx

; 109  : 	INT		i, j;									// current position in mask image
; 110  : 	INT		first = 0;								// left position of current scan line

  002ca	c7 85 68 ff ff
	ff 00 00 00 00	 mov	 DWORD PTR _first$[ebp], 0

; 111  : 													// where mask was found
; 112  : 	bool	wasfirst = false;						// set when mask has been found in current scan line

  002d4	c6 85 67 ff ff
	ff 00		 mov	 BYTE PTR _wasfirst$[ebp], 0

; 113  : 	bool	ismask;									// set when current color is mask color
; 114  : 
; 115  : 	// allocate memory for region data
; 116  : 	// region data here is set of regions that are rectangles with height 1 pixel (scan line)
; 117  : 	// that's why first allocation is <bm.biHeight> RECTs - number of scan lines in image
; 118  : 	RGNDATAHEADER* pRgnData = 
; 119  : 		(RGNDATAHEADER*)new BYTE[ RGNDATAHEADER_SIZE + dwRectsCount * sizeof(RECT) ];

  002db	6a 77		 push	 119			; 00000077H
  002dd	68 00 00 00 00	 push	 OFFSET FLAT:_THIS_FILE
  002e2	8b 95 74 ff ff
	ff		 mov	 edx, DWORD PTR _dwRectsCount$[ebp]
  002e8	c1 e2 04	 shl	 edx, 4
  002eb	83 c2 20	 add	 edx, 32			; 00000020H
  002ee	52		 push	 edx
  002ef	e8 00 00 00 00	 call	 ??_U@YAPAXIPBDH@Z	; operator new[]
  002f4	83 c4 0c	 add	 esp, 12			; 0000000cH
  002f7	89 85 34 ff ff
	ff		 mov	 DWORD PTR $T188528[ebp], eax
  002fd	8b 85 34 ff ff
	ff		 mov	 eax, DWORD PTR $T188528[ebp]
  00303	89 85 60 ff ff
	ff		 mov	 DWORD PTR _pRgnData$[ebp], eax

; 120  : 	// get pointer to RECT table
; 121  : 	LPRECT pRects = (LPRECT)((LPBYTE)pRgnData + RGNDATAHEADER_SIZE);

  00309	8b 8d 60 ff ff
	ff		 mov	 ecx, DWORD PTR _pRgnData$[ebp]
  0030f	83 c1 20	 add	 ecx, 32			; 00000020H
  00312	89 8d 5c ff ff
	ff		 mov	 DWORD PTR _pRects$[ebp], ecx

; 122  : 	// zero region data header memory (header  part only)
; 123  : 	memset( pRgnData, 0, RGNDATAHEADER_SIZE + dwRectsCount * sizeof(RECT) );

  00318	8b 95 74 ff ff
	ff		 mov	 edx, DWORD PTR _dwRectsCount$[ebp]
  0031e	c1 e2 04	 shl	 edx, 4
  00321	83 c2 20	 add	 edx, 32			; 00000020H
  00324	52		 push	 edx
  00325	6a 00		 push	 0
  00327	8b 85 60 ff ff
	ff		 mov	 eax, DWORD PTR _pRgnData$[ebp]
  0032d	50		 push	 eax
  0032e	e8 00 00 00 00	 call	 _memset
  00333	83 c4 0c	 add	 esp, 12			; 0000000cH

; 124  : 	// fill it by default
; 125  : 	pRgnData->dwSize	= RGNDATAHEADER_SIZE;

  00336	8b 8d 60 ff ff
	ff		 mov	 ecx, DWORD PTR _pRgnData$[ebp]
  0033c	c7 01 20 00 00
	00		 mov	 DWORD PTR [ecx], 32	; 00000020H

; 126  : 	pRgnData->iType		= RDH_RECTANGLES;

  00342	8b 95 60 ff ff
	ff		 mov	 edx, DWORD PTR _pRgnData$[ebp]
  00348	c7 42 04 01 00
	00 00		 mov	 DWORD PTR [edx+4], 1

; 127  : 
; 128  : 	for ( i = 0; i < bih.biHeight; i++ )

  0034f	c7 85 70 ff ff
	ff 00 00 00 00	 mov	 DWORD PTR _i$[ebp], 0
  00359	eb 0f		 jmp	 SHORT $L187332
$L187333:
  0035b	8b 85 70 ff ff
	ff		 mov	 eax, DWORD PTR _i$[ebp]
  00361	83 c0 01	 add	 eax, 1
  00364	89 85 70 ff ff
	ff		 mov	 DWORD PTR _i$[ebp], eax
$L187332:
  0036a	8b 4d bc	 mov	 ecx, DWORD PTR _bih$[ebp]
  0036d	8b 95 70 ff ff
	ff		 mov	 edx, DWORD PTR _i$[ebp]
  00373	3b 51 08	 cmp	 edx, DWORD PTR [ecx+8]
  00376	0f 8d 20 04 00
	00		 jge	 $L187334

; 129  : 	{
; 130  : 		if(i == 35)

  0037c	83 bd 70 ff ff
	ff 23		 cmp	 DWORD PTR _i$[ebp], 35	; 00000023H
  00383	75 0a		 jne	 SHORT $L187335

; 131  : 			int k = 0;

  00385	c7 85 58 ff ff
	ff 00 00 00 00	 mov	 DWORD PTR _k$187336[ebp], 0
$L187335:

; 132  : 		for ( j = 0; j < bih.biWidth; j++ )

  0038f	c7 85 6c ff ff
	ff 00 00 00 00	 mov	 DWORD PTR _j$[ebp], 0
  00399	eb 0f		 jmp	 SHORT $L187337
$L187338:
  0039b	8b 85 6c ff ff
	ff		 mov	 eax, DWORD PTR _j$[ebp]
  003a1	83 c0 01	 add	 eax, 1
  003a4	89 85 6c ff ff
	ff		 mov	 DWORD PTR _j$[ebp], eax
$L187337:
  003aa	8b 4d bc	 mov	 ecx, DWORD PTR _bih$[ebp]
  003ad	8b 95 6c ff ff
	ff		 mov	 edx, DWORD PTR _j$[ebp]
  003b3	3b 51 04	 cmp	 edx, DWORD PTR [ecx+4]
  003b6	0f 8d 65 02 00
	00		 jge	 $L187339

; 133  : 		{
; 134  : 			// get color
; 135  : 			switch ( bih.biBitCount )

  003bc	8b 45 bc	 mov	 eax, DWORD PTR _bih$[ebp]
  003bf	0f b7 48 0e	 movzx	 ecx, WORD PTR [eax+14]
  003c3	89 8d f0 fe ff
	ff		 mov	 DWORD PTR tv221[ebp], ecx
  003c9	8b 95 f0 fe ff
	ff		 mov	 edx, DWORD PTR tv221[ebp]
  003cf	83 ea 08	 sub	 edx, 8
  003d2	89 95 f0 fe ff
	ff		 mov	 DWORD PTR tv221[ebp], edx
  003d8	83 bd f0 fe ff
	ff 18		 cmp	 DWORD PTR tv221[ebp], 24 ; 00000018H
  003df	0f 87 9e 00 00
	00		 ja	 $L187341
  003e5	8b 85 f0 fe ff
	ff		 mov	 eax, DWORD PTR tv221[ebp]
  003eb	0f b6 88 00 00
	00 00		 movzx	 ecx, BYTE PTR $L188551[eax]
  003f2	ff 24 8d 00 00
	00 00		 jmp	 DWORD PTR $L188557[ecx*4]
$L187344:

; 136  : 			{
; 137  : 			case 8:
; 138  : 				ismask = (clr_tbl[ *pColor ] != color);

  003f9	8b 95 7c ff ff
	ff		 mov	 edx, DWORD PTR _pColor$[ebp]
  003ff	0f b6 02	 movzx	 eax, BYTE PTR [edx]
  00402	8b 4d b8	 mov	 ecx, DWORD PTR _clr_tbl$[ebp]
  00405	8b 14 81	 mov	 edx, DWORD PTR [ecx+eax*4]
  00408	33 c0		 xor	 eax, eax
  0040a	3b 55 0c	 cmp	 edx, DWORD PTR _color$[ebp]
  0040d	0f 95 c0	 setne	 al
  00410	c6 85 f7 fe ff
	ff 01		 mov	 BYTE PTR $T188544[ebp], 1
  00417	88 85 66 ff ff
	ff		 mov	 BYTE PTR _ismask$[ebp], al

; 139  : 				break;

  0041d	eb 64		 jmp	 SHORT $L187341
$L187345:

; 140  : 			case 16:
; 141  : 				ismask = (*(LPWORD)pColor != (WORD)color);

  0041f	8b 8d 7c ff ff
	ff		 mov	 ecx, DWORD PTR _pColor$[ebp]
  00425	0f b7 11	 movzx	 edx, WORD PTR [ecx]
  00428	0f b7 45 0c	 movzx	 eax, WORD PTR _color$[ebp]
  0042c	33 c9		 xor	 ecx, ecx
  0042e	3b d0		 cmp	 edx, eax
  00430	0f 95 c1	 setne	 cl
  00433	c6 85 f7 fe ff
	ff 01		 mov	 BYTE PTR $T188544[ebp], 1
  0043a	88 8d 66 ff ff
	ff		 mov	 BYTE PTR _ismask$[ebp], cl

; 142  : 				break;

  00440	eb 41		 jmp	 SHORT $L187341
$L187348:

; 143  : 			case 24:
; 144  : 				ismask = ((*(LPDWORD)pColor & 0x00ffffff) != color);

  00442	8b 95 7c ff ff
	ff		 mov	 edx, DWORD PTR _pColor$[ebp]
  00448	8b 02		 mov	 eax, DWORD PTR [edx]
  0044a	25 ff ff ff 00	 and	 eax, 16777215		; 00ffffffH
  0044f	33 c9		 xor	 ecx, ecx
  00451	3b 45 0c	 cmp	 eax, DWORD PTR _color$[ebp]
  00454	0f 95 c1	 setne	 cl
  00457	c6 85 f7 fe ff
	ff 01		 mov	 BYTE PTR $T188544[ebp], 1
  0045e	88 8d 66 ff ff
	ff		 mov	 BYTE PTR _ismask$[ebp], cl

; 145  : 				break;

  00464	eb 1d		 jmp	 SHORT $L187341
$L187350:

; 146  : 			case 32:
; 147  : 				ismask = (*(LPDWORD)pColor != color);

  00466	8b 95 7c ff ff
	ff		 mov	 edx, DWORD PTR _pColor$[ebp]
  0046c	8b 02		 mov	 eax, DWORD PTR [edx]
  0046e	33 c9		 xor	 ecx, ecx
  00470	3b 45 0c	 cmp	 eax, DWORD PTR _color$[ebp]
  00473	0f 95 c1	 setne	 cl
  00476	c6 85 f7 fe ff
	ff 01		 mov	 BYTE PTR $T188544[ebp], 1
  0047d	88 8d 66 ff ff
	ff		 mov	 BYTE PTR _ismask$[ebp], cl
$L187341:

; 148  : 			}
; 149  : 			// shift pointer to next color
; 150  : 			pColor += Bpp;

  00483	0f b6 55 87	 movzx	 edx, BYTE PTR _Bpp$[ebp]
  00487	03 95 7c ff ff
	ff		 add	 edx, DWORD PTR _pColor$[ebp]
  0048d	89 95 7c ff ff
	ff		 mov	 DWORD PTR _pColor$[ebp], edx

; 151  : 			// place part of scan line as RECT region if transparent color found after mask color or
; 152  : 			// mask color found at the end of mask image
; 153  : 			if ( wasfirst )

  00493	0f b6 85 67 ff
	ff ff		 movzx	 eax, BYTE PTR _wasfirst$[ebp]
  0049a	85 c0		 test	 eax, eax
  0049c	0f 84 46 01 00
	00		 je	 $L187352

; 154  : 			{
; 155  : 				if ( !ismask )

  004a2	80 bd f7 fe ff
	ff 00		 cmp	 BYTE PTR $T188544[ebp], 0
  004a9	75 0d		 jne	 SHORT $L188545
  004ab	68 00 00 00 00	 push	 OFFSET FLAT:$L188546
  004b0	e8 00 00 00 00	 call	 __RTC_UninitUse
  004b5	83 c4 04	 add	 esp, 4
$L188545:
  004b8	0f b6 8d 66 ff
	ff ff		 movzx	 ecx, BYTE PTR _ismask$[ebp]
  004bf	85 c9		 test	 ecx, ecx
  004c1	0f 85 1f 01 00
	00		 jne	 $L187353

; 156  : 				{
; 157  : 					// save current RECT
; 158  : 					pRects[ pRgnData->nCount++ ] = CRect( first, i, j, i + 1 );

  004c7	8b 95 70 ff ff
	ff		 mov	 edx, DWORD PTR _i$[ebp]
  004cd	83 c2 01	 add	 edx, 1
  004d0	52		 push	 edx
  004d1	8b 85 6c ff ff
	ff		 mov	 eax, DWORD PTR _j$[ebp]
  004d7	50		 push	 eax
  004d8	8b 8d 70 ff ff
	ff		 mov	 ecx, DWORD PTR _i$[ebp]
  004de	51		 push	 ecx
  004df	8b 95 68 ff ff
	ff		 mov	 edx, DWORD PTR _first$[ebp]
  004e5	52		 push	 edx
  004e6	8d 8d 24 ff ff
	ff		 lea	 ecx, DWORD PTR $T188529[ebp]
  004ec	e8 00 00 00 00	 call	 ??0CRect@@QAE@HHHH@Z	; CRect::CRect
  004f1	8b 8d 60 ff ff
	ff		 mov	 ecx, DWORD PTR _pRgnData$[ebp]
  004f7	8b 51 08	 mov	 edx, DWORD PTR [ecx+8]
  004fa	c1 e2 04	 shl	 edx, 4
  004fd	03 95 5c ff ff
	ff		 add	 edx, DWORD PTR _pRects$[ebp]
  00503	8b 08		 mov	 ecx, DWORD PTR [eax]
  00505	89 0a		 mov	 DWORD PTR [edx], ecx
  00507	8b 48 04	 mov	 ecx, DWORD PTR [eax+4]
  0050a	89 4a 04	 mov	 DWORD PTR [edx+4], ecx
  0050d	8b 48 08	 mov	 ecx, DWORD PTR [eax+8]
  00510	89 4a 08	 mov	 DWORD PTR [edx+8], ecx
  00513	8b 40 0c	 mov	 eax, DWORD PTR [eax+12]
  00516	89 42 0c	 mov	 DWORD PTR [edx+12], eax
  00519	8b 8d 60 ff ff
	ff		 mov	 ecx, DWORD PTR _pRgnData$[ebp]
  0051f	8b 51 08	 mov	 edx, DWORD PTR [ecx+8]
  00522	83 c2 01	 add	 edx, 1
  00525	8b 85 60 ff ff
	ff		 mov	 eax, DWORD PTR _pRgnData$[ebp]
  0052b	89 50 08	 mov	 DWORD PTR [eax+8], edx

; 159  : 					// if buffer full reallocate it with more room
; 160  : 					if ( pRgnData->nCount >= dwRectsCount )

  0052e	8b 8d 60 ff ff
	ff		 mov	 ecx, DWORD PTR _pRgnData$[ebp]
  00534	8b 51 08	 mov	 edx, DWORD PTR [ecx+8]
  00537	3b 95 74 ff ff
	ff		 cmp	 edx, DWORD PTR _dwRectsCount$[ebp]
  0053d	0f 82 9c 00 00
	00		 jb	 $L187355

; 161  : 					{
; 162  : 						dwRectsCount += ADD_RECTS_COUNT;

  00543	8b 85 74 ff ff
	ff		 mov	 eax, DWORD PTR _dwRectsCount$[ebp]
  00549	83 c0 28	 add	 eax, 40			; 00000028H
  0054c	89 85 74 ff ff
	ff		 mov	 DWORD PTR _dwRectsCount$[ebp], eax

; 163  : 						// allocate new buffer
; 164  : 						LPBYTE pRgnDataNew = new BYTE[ RGNDATAHEADER_SIZE + dwRectsCount * sizeof(RECT) ];

  00552	68 a4 00 00 00	 push	 164			; 000000a4H
  00557	68 00 00 00 00	 push	 OFFSET FLAT:_THIS_FILE
  0055c	8b 8d 74 ff ff
	ff		 mov	 ecx, DWORD PTR _dwRectsCount$[ebp]
  00562	c1 e1 04	 shl	 ecx, 4
  00565	83 c1 20	 add	 ecx, 32			; 00000020H
  00568	51		 push	 ecx
  00569	e8 00 00 00 00	 call	 ??_U@YAPAXIPBDH@Z	; operator new[]
  0056e	83 c4 0c	 add	 esp, 12			; 0000000cH
  00571	89 85 20 ff ff
	ff		 mov	 DWORD PTR $T188530[ebp], eax
  00577	8b 95 20 ff ff
	ff		 mov	 edx, DWORD PTR $T188530[ebp]
  0057d	89 95 54 ff ff
	ff		 mov	 DWORD PTR _pRgnDataNew$187356[ebp], edx

; 165  : 						// copy current region data to it
; 166  : 						memcpy( pRgnDataNew, pRgnData, RGNDATAHEADER_SIZE + pRgnData->nCount * sizeof(RECT) );

  00583	8b 85 60 ff ff
	ff		 mov	 eax, DWORD PTR _pRgnData$[ebp]
  00589	8b 48 08	 mov	 ecx, DWORD PTR [eax+8]
  0058c	c1 e1 04	 shl	 ecx, 4
  0058f	83 c1 20	 add	 ecx, 32			; 00000020H
  00592	51		 push	 ecx
  00593	8b 95 60 ff ff
	ff		 mov	 edx, DWORD PTR _pRgnData$[ebp]
  00599	52		 push	 edx
  0059a	8b 85 54 ff ff
	ff		 mov	 eax, DWORD PTR _pRgnDataNew$187356[ebp]
  005a0	50		 push	 eax
  005a1	e8 00 00 00 00	 call	 _memcpy
  005a6	83 c4 0c	 add	 esp, 12			; 0000000cH

; 167  : 						// delte old region data buffer
; 168  : 						delete []pRgnData;

  005a9	8b 8d 60 ff ff
	ff		 mov	 ecx, DWORD PTR _pRgnData$[ebp]
  005af	89 8d 1c ff ff
	ff		 mov	 DWORD PTR $T188531[ebp], ecx
  005b5	8b 95 1c ff ff
	ff		 mov	 edx, DWORD PTR $T188531[ebp]
  005bb	52		 push	 edx
  005bc	e8 00 00 00 00	 call	 ??_V@YAXPAX@Z		; operator delete[]
  005c1	83 c4 04	 add	 esp, 4

; 169  : 						// set pointer to new regiondata buffer to current
; 170  : 						pRgnData = (RGNDATAHEADER*)pRgnDataNew;

  005c4	8b 85 54 ff ff
	ff		 mov	 eax, DWORD PTR _pRgnDataNew$187356[ebp]
  005ca	89 85 60 ff ff
	ff		 mov	 DWORD PTR _pRgnData$[ebp], eax

; 171  : 						// correct pointer to RECT table
; 172  : 						pRects = (LPRECT)((LPBYTE)pRgnData + RGNDATAHEADER_SIZE);

  005d0	8b 8d 60 ff ff
	ff		 mov	 ecx, DWORD PTR _pRgnData$[ebp]
  005d6	83 c1 20	 add	 ecx, 32			; 00000020H
  005d9	89 8d 5c ff ff
	ff		 mov	 DWORD PTR _pRects$[ebp], ecx
$L187355:

; 173  : 					}
; 174  : 					wasfirst = false;

  005df	c6 85 67 ff ff
	ff 00		 mov	 BYTE PTR _wasfirst$[ebp], 0
$L187353:

; 175  : 				}
; 176  : 			}
; 177  : 			else if ( ismask )		// set wasfirst when mask is found

  005e6	eb 34		 jmp	 SHORT $L187365
$L187352:
  005e8	80 bd f7 fe ff
	ff 00		 cmp	 BYTE PTR $T188544[ebp], 0
  005ef	75 0d		 jne	 SHORT $L188548
  005f1	68 00 00 00 00	 push	 OFFSET FLAT:$L188546
  005f6	e8 00 00 00 00	 call	 __RTC_UninitUse
  005fb	83 c4 04	 add	 esp, 4
$L188548:
  005fe	0f b6 95 66 ff
	ff ff		 movzx	 edx, BYTE PTR _ismask$[ebp]
  00605	85 d2		 test	 edx, edx
  00607	74 13		 je	 SHORT $L187365

; 178  : 			{
; 179  : 				first = j;

  00609	8b 85 6c ff ff
	ff		 mov	 eax, DWORD PTR _j$[ebp]
  0060f	89 85 68 ff ff
	ff		 mov	 DWORD PTR _first$[ebp], eax

; 180  : 				wasfirst = true;

  00615	c6 85 67 ff ff
	ff 01		 mov	 BYTE PTR _wasfirst$[ebp], 1
$L187365:

; 181  : 			}
; 182  : 		}

  0061c	e9 7a fd ff ff	 jmp	 $L187338
$L187339:

; 183  : 
; 184  : 		if ( wasfirst && ismask )

  00621	0f b6 8d 67 ff
	ff ff		 movzx	 ecx, BYTE PTR _wasfirst$[ebp]
  00628	85 c9		 test	 ecx, ecx
  0062a	0f 84 44 01 00
	00		 je	 $L187367
  00630	80 bd f7 fe ff
	ff 00		 cmp	 BYTE PTR $T188544[ebp], 0
  00637	75 0d		 jne	 SHORT $L188549
  00639	68 00 00 00 00	 push	 OFFSET FLAT:$L188546
  0063e	e8 00 00 00 00	 call	 __RTC_UninitUse
  00643	83 c4 04	 add	 esp, 4
$L188549:
  00646	0f b6 95 66 ff
	ff ff		 movzx	 edx, BYTE PTR _ismask$[ebp]
  0064d	85 d2		 test	 edx, edx
  0064f	0f 84 1f 01 00
	00		 je	 $L187367

; 185  : 		{
; 186  : 			// save current RECT
; 187  : 			pRects[ pRgnData->nCount++ ] = CRect( first, i, j, i + 1 );

  00655	8b 85 70 ff ff
	ff		 mov	 eax, DWORD PTR _i$[ebp]
  0065b	83 c0 01	 add	 eax, 1
  0065e	50		 push	 eax
  0065f	8b 8d 6c ff ff
	ff		 mov	 ecx, DWORD PTR _j$[ebp]
  00665	51		 push	 ecx
  00666	8b 95 70 ff ff
	ff		 mov	 edx, DWORD PTR _i$[ebp]
  0066c	52		 push	 edx
  0066d	8b 85 68 ff ff
	ff		 mov	 eax, DWORD PTR _first$[ebp]
  00673	50		 push	 eax
  00674	8d 8d 0c ff ff
	ff		 lea	 ecx, DWORD PTR $T188532[ebp]
  0067a	e8 00 00 00 00	 call	 ??0CRect@@QAE@HHHH@Z	; CRect::CRect
  0067f	8b 8d 60 ff ff
	ff		 mov	 ecx, DWORD PTR _pRgnData$[ebp]
  00685	8b 51 08	 mov	 edx, DWORD PTR [ecx+8]
  00688	c1 e2 04	 shl	 edx, 4
  0068b	03 95 5c ff ff
	ff		 add	 edx, DWORD PTR _pRects$[ebp]
  00691	8b 08		 mov	 ecx, DWORD PTR [eax]
  00693	89 0a		 mov	 DWORD PTR [edx], ecx
  00695	8b 48 04	 mov	 ecx, DWORD PTR [eax+4]
  00698	89 4a 04	 mov	 DWORD PTR [edx+4], ecx
  0069b	8b 48 08	 mov	 ecx, DWORD PTR [eax+8]
  0069e	89 4a 08	 mov	 DWORD PTR [edx+8], ecx
  006a1	8b 40 0c	 mov	 eax, DWORD PTR [eax+12]
  006a4	89 42 0c	 mov	 DWORD PTR [edx+12], eax
  006a7	8b 8d 60 ff ff
	ff		 mov	 ecx, DWORD PTR _pRgnData$[ebp]
  006ad	8b 51 08	 mov	 edx, DWORD PTR [ecx+8]
  006b0	83 c2 01	 add	 edx, 1
  006b3	8b 85 60 ff ff
	ff		 mov	 eax, DWORD PTR _pRgnData$[ebp]
  006b9	89 50 08	 mov	 DWORD PTR [eax+8], edx

; 188  : 			// if buffer full reallocate it with more room
; 189  : 			if ( pRgnData->nCount >= dwRectsCount )

  006bc	8b 8d 60 ff ff
	ff		 mov	 ecx, DWORD PTR _pRgnData$[ebp]
  006c2	8b 51 08	 mov	 edx, DWORD PTR [ecx+8]
  006c5	3b 95 74 ff ff
	ff		 cmp	 edx, DWORD PTR _dwRectsCount$[ebp]
  006cb	0f 82 9c 00 00
	00		 jb	 $L187369

; 190  : 			{
; 191  : 				dwRectsCount += ADD_RECTS_COUNT;

  006d1	8b 85 74 ff ff
	ff		 mov	 eax, DWORD PTR _dwRectsCount$[ebp]
  006d7	83 c0 28	 add	 eax, 40			; 00000028H
  006da	89 85 74 ff ff
	ff		 mov	 DWORD PTR _dwRectsCount$[ebp], eax

; 192  : 				// allocate new buffer
; 193  : 				LPBYTE pRgnDataNew = new BYTE[ RGNDATAHEADER_SIZE + dwRectsCount * sizeof(RECT) ];

  006e0	68 c1 00 00 00	 push	 193			; 000000c1H
  006e5	68 00 00 00 00	 push	 OFFSET FLAT:_THIS_FILE
  006ea	8b 8d 74 ff ff
	ff		 mov	 ecx, DWORD PTR _dwRectsCount$[ebp]
  006f0	c1 e1 04	 shl	 ecx, 4
  006f3	83 c1 20	 add	 ecx, 32			; 00000020H
  006f6	51		 push	 ecx
  006f7	e8 00 00 00 00	 call	 ??_U@YAPAXIPBDH@Z	; operator new[]
  006fc	83 c4 0c	 add	 esp, 12			; 0000000cH
  006ff	89 85 08 ff ff
	ff		 mov	 DWORD PTR $T188533[ebp], eax
  00705	8b 95 08 ff ff
	ff		 mov	 edx, DWORD PTR $T188533[ebp]
  0070b	89 95 50 ff ff
	ff		 mov	 DWORD PTR _pRgnDataNew$187370[ebp], edx

; 194  : 				// copy current region data to it
; 195  : 				memcpy( pRgnDataNew, pRgnData, RGNDATAHEADER_SIZE + pRgnData->nCount * sizeof(RECT) );

  00711	8b 85 60 ff ff
	ff		 mov	 eax, DWORD PTR _pRgnData$[ebp]
  00717	8b 48 08	 mov	 ecx, DWORD PTR [eax+8]
  0071a	c1 e1 04	 shl	 ecx, 4
  0071d	83 c1 20	 add	 ecx, 32			; 00000020H
  00720	51		 push	 ecx
  00721	8b 95 60 ff ff
	ff		 mov	 edx, DWORD PTR _pRgnData$[ebp]
  00727	52		 push	 edx
  00728	8b 85 50 ff ff
	ff		 mov	 eax, DWORD PTR _pRgnDataNew$187370[ebp]
  0072e	50		 push	 eax
  0072f	e8 00 00 00 00	 call	 _memcpy
  00734	83 c4 0c	 add	 esp, 12			; 0000000cH

; 196  : 				// delte old region data buffer
; 197  : 				delete []pRgnData;

  00737	8b 8d 60 ff ff
	ff		 mov	 ecx, DWORD PTR _pRgnData$[ebp]
  0073d	89 8d 04 ff ff
	ff		 mov	 DWORD PTR $T188534[ebp], ecx
  00743	8b 95 04 ff ff
	ff		 mov	 edx, DWORD PTR $T188534[ebp]
  00749	52		 push	 edx
  0074a	e8 00 00 00 00	 call	 ??_V@YAXPAX@Z		; operator delete[]
  0074f	83 c4 04	 add	 esp, 4

; 198  : 				// set pointer to new regiondata buffer to current
; 199  : 				pRgnData = (RGNDATAHEADER*)pRgnDataNew;

  00752	8b 85 50 ff ff
	ff		 mov	 eax, DWORD PTR _pRgnDataNew$187370[ebp]
  00758	89 85 60 ff ff
	ff		 mov	 DWORD PTR _pRgnData$[ebp], eax

; 200  : 				// correct pointer to RECT table
; 201  : 				pRects = (LPRECT)((LPBYTE)pRgnData + RGNDATAHEADER_SIZE);

  0075e	8b 8d 60 ff ff
	ff		 mov	 ecx, DWORD PTR _pRgnData$[ebp]
  00764	83 c1 20	 add	 ecx, 32			; 00000020H
  00767	89 8d 5c ff ff
	ff		 mov	 DWORD PTR _pRects$[ebp], ecx
$L187369:

; 202  : 			}
; 203  : 			wasfirst = false;

  0076d	c6 85 67 ff ff
	ff 00		 mov	 BYTE PTR _wasfirst$[ebp], 0
$L187367:

; 204  : 		}
; 205  : 
; 206  : 
; 207  : 		if(pColor - dwLineBackLen >= pBits)

  00774	8b 95 7c ff ff
	ff		 mov	 edx, DWORD PTR _pColor$[ebp]
  0077a	2b 95 78 ff ff
	ff		 sub	 edx, DWORD PTR _dwLineBackLen$[ebp]
  00780	3b 55 c4	 cmp	 edx, DWORD PTR _pBits$[ebp]
  00783	72 12		 jb	 SHORT $L187379

; 208  : 			pColor -= dwLineBackLen;

  00785	8b 85 7c ff ff
	ff		 mov	 eax, DWORD PTR _pColor$[ebp]
  0078b	2b 85 78 ff ff
	ff		 sub	 eax, DWORD PTR _dwLineBackLen$[ebp]
  00791	89 85 7c ff ff
	ff		 mov	 DWORD PTR _pColor$[ebp], eax
$L187379:

; 209  : 	}

  00797	e9 bf fb ff ff	 jmp	 $L187333
$L187334:

; 210  : 
; 211  : 	for(int i = 0 ; i< (int)pRgnData->nCount; i++)

  0079c	c7 85 4c ff ff
	ff 00 00 00 00	 mov	 DWORD PTR _i$187380[ebp], 0
  007a6	eb 0f		 jmp	 SHORT $L187382
$L187383:
  007a8	8b 8d 4c ff ff
	ff		 mov	 ecx, DWORD PTR _i$187380[ebp]
  007ae	83 c1 01	 add	 ecx, 1
  007b1	89 8d 4c ff ff
	ff		 mov	 DWORD PTR _i$187380[ebp], ecx
$L187382:
  007b7	8b 95 60 ff ff
	ff		 mov	 edx, DWORD PTR _pRgnData$[ebp]
  007bd	8b 85 4c ff ff
	ff		 mov	 eax, DWORD PTR _i$187380[ebp]
  007c3	3b 42 08	 cmp	 eax, DWORD PTR [edx+8]
  007c6	7d 02		 jge	 SHORT $L187384

; 212  : 	{
; 213  : 	//	TRACE("\n count:%2d, [%2d, %2d, %2d,%2d]", i, pRects[i].left,  pRects[i].right,  pRects[i].top,  pRects[i].bottom);
; 214  : 	}

  007c8	eb de		 jmp	 SHORT $L187383
$L187384:

; 215  : 	// release image data
; 216  : 	delete []pBits;

  007ca	8b 4d c4	 mov	 ecx, DWORD PTR _pBits$[ebp]
  007cd	89 8d 00 ff ff
	ff		 mov	 DWORD PTR $T188535[ebp], ecx
  007d3	8b 95 00 ff ff
	ff		 mov	 edx, DWORD PTR $T188535[ebp]
  007d9	52		 push	 edx
  007da	e8 00 00 00 00	 call	 ??_V@YAXPAX@Z		; operator delete[]
  007df	83 c4 04	 add	 esp, 4

; 217  : 	delete []bi;

  007e2	8b 45 d0	 mov	 eax, DWORD PTR _bi$[ebp]
  007e5	89 85 fc fe ff
	ff		 mov	 DWORD PTR $T188536[ebp], eax
  007eb	8b 8d fc fe ff
	ff		 mov	 ecx, DWORD PTR $T188536[ebp]
  007f1	51		 push	 ecx
  007f2	e8 00 00 00 00	 call	 ??_V@YAXPAX@Z		; operator delete[]
  007f7	83 c4 04	 add	 esp, 4

; 218  : 
; 219  : 	// create region
; 220  : 	HRGN hRgn = ExtCreateRegion( NULL, RGNDATAHEADER_SIZE + pRgnData->nCount * sizeof(RECT), (LPRGNDATA)pRgnData );

  007fa	8b f4		 mov	 esi, esp
  007fc	8b 95 60 ff ff
	ff		 mov	 edx, DWORD PTR _pRgnData$[ebp]
  00802	52		 push	 edx
  00803	8b 85 60 ff ff
	ff		 mov	 eax, DWORD PTR _pRgnData$[ebp]
  00809	8b 48 08	 mov	 ecx, DWORD PTR [eax+8]
  0080c	c1 e1 04	 shl	 ecx, 4
  0080f	83 c1 20	 add	 ecx, 32			; 00000020H
  00812	51		 push	 ecx
  00813	6a 00		 push	 0
  00815	ff 15 00 00 00
	00		 call	 DWORD PTR __imp__ExtCreateRegion@12
  0081b	3b f4		 cmp	 esi, esp
  0081d	e8 00 00 00 00	 call	 __RTC_CheckEsp
  00822	89 85 48 ff ff
	ff		 mov	 DWORD PTR _hRgn$[ebp], eax

; 221  : 	// release region data
; 222  : 	delete []pRgnData;

  00828	8b 95 60 ff ff
	ff		 mov	 edx, DWORD PTR _pRgnData$[ebp]
  0082e	89 95 f8 fe ff
	ff		 mov	 DWORD PTR $T188537[ebp], edx
  00834	8b 85 f8 fe ff
	ff		 mov	 eax, DWORD PTR $T188537[ebp]
  0083a	50		 push	 eax
  0083b	e8 00 00 00 00	 call	 ??_V@YAXPAX@Z		; operator delete[]
  00840	83 c4 04	 add	 esp, 4

; 223  : 	return hRgn;

  00843	8b 85 48 ff ff
	ff		 mov	 eax, DWORD PTR _hRgn$[ebp]

; 224  : }

  00849	52		 push	 edx
  0084a	8b cd		 mov	 ecx, ebp
  0084c	50		 push	 eax
  0084d	8d 15 00 00 00
	00		 lea	 edx, DWORD PTR $L188555
  00853	e8 00 00 00 00	 call	 @_RTC_CheckStackVars@8
  00858	58		 pop	 eax
  00859	5a		 pop	 edx
  0085a	5f		 pop	 edi
  0085b	5e		 pop	 esi
  0085c	81 c4 10 01 00
	00		 add	 esp, 272		; 00000110H
  00862	3b ec		 cmp	 ebp, esp
  00864	e8 00 00 00 00	 call	 __RTC_CheckEsp
  00869	8b e5		 mov	 esp, ebp
  0086b	5d		 pop	 ebp
  0086c	c2 08 00	 ret	 8
$L188555:
  0086f	02 00 00 00	 DD	 2
  00873	00 00 00 00	 DD	 $L188554
$L188554:
  00877	d8 ff ff ff	 DD	 -40			; ffffffd8H
  0087b	18 00 00 00	 DD	 24			; 00000018H
  0087f	00 00 00 00	 DD	 $L188552
  00883	9c ff ff ff	 DD	 -100			; ffffff9cH
  00887	18 00 00 00	 DD	 24			; 00000018H
  0088b	00 00 00 00	 DD	 $L188553
$L188553:
  0088f	62		 DB	 98			; 00000062H
  00890	6d		 DB	 109			; 0000006dH
  00891	00		 DB	 0
$L188552:
  00892	62		 DB	 98			; 00000062H
  00893	6d		 DB	 109			; 0000006dH
  00894	70		 DB	 112			; 00000070H
  00895	00		 DB	 0
$L188546:
  00896	69		 DB	 105			; 00000069H
  00897	73		 DB	 115			; 00000073H
  00898	6d		 DB	 109			; 0000006dH
  00899	61		 DB	 97			; 00000061H
  0089a	73		 DB	 115			; 00000073H
  0089b	6b		 DB	 107			; 0000006bH
  0089c	00		 DB	 0
$L188557:
  0089d	00 00 00 00	 DD	 $L187344
  008a1	00 00 00 00	 DD	 $L187345
  008a5	00 00 00 00	 DD	 $L187348
  008a9	00 00 00 00	 DD	 $L187350
  008ad	00 00 00 00	 DD	 $L187341
$L188551:
  008b1	00		 DB	 0
  008b2	04		 DB	 4
  008b3	04		 DB	 4
  008b4	04		 DB	 4
  008b5	04		 DB	 4
  008b6	04		 DB	 4
  008b7	04		 DB	 4
  008b8	04		 DB	 4
  008b9	01		 DB	 1
  008ba	04		 DB	 4
  008bb	04		 DB	 4
  008bc	04		 DB	 4
  008bd	04		 DB	 4
  008be	04		 DB	 4
  008bf	04		 DB	 4
  008c0	04		 DB	 4
  008c1	02		 DB	 2
  008c2	04		 DB	 4
  008c3	04		 DB	 4
  008c4	04		 DB	 4
  008c5	04		 DB	 4
  008c6	04		 DB	 4
  008c7	04		 DB	 4
  008c8	04		 DB	 4
  008c9	03		 DB	 3
?CreateRegionFromDib@CxSkinButton@@QAEPAUHRGN__@@PAVCDibBitmap@@K@Z ENDP ; CxSkinButton::CreateRegionFromDib
_TEXT	ENDS
PUBLIC	??_R1A@?0A@A@CWnd@@8				; CWnd::`RTTI Base Class Descriptor at (0,-1,0,0)'
PUBLIC	??_R0?AVCWnd@@@8				; CWnd `RTTI Type Descriptor'
PUBLIC	??_R1A@?0A@A@CCmdTarget@@8			; CCmdTarget::`RTTI Base Class Descriptor at (0,-1,0,0)'
PUBLIC	??_R0?AVCCmdTarget@@@8				; CCmdTarget `RTTI Type Descriptor'
PUBLIC	??_R1A@?0A@A@CObject@@8				; CObject::`RTTI Base Class Descriptor at (0,-1,0,0)'
PUBLIC	??_R0?AVCObject@@@8				; CObject `RTTI Type Descriptor'
PUBLIC	??_R4CxSkinButton@@6B@				; CxSkinButton::`RTTI Complete Object Locator'
PUBLIC	??_R0?AVCxSkinButton@@@8			; CxSkinButton `RTTI Type Descriptor'
PUBLIC	??_R3CxSkinButton@@8				; CxSkinButton::`RTTI Class Hierarchy Descriptor'
PUBLIC	??_R2CxSkinButton@@8				; CxSkinButton::`RTTI Base Class Array'
PUBLIC	??_R1A@?0A@A@CxSkinButton@@8			; CxSkinButton::`RTTI Base Class Descriptor at (0,-1,0,0)'
PUBLIC	??_R1A@?0A@A@CButton@@8				; CButton::`RTTI Base Class Descriptor at (0,-1,0,0)'
PUBLIC	??_R0?AVCButton@@@8				; CButton `RTTI Type Descriptor'
PUBLIC	??0CxSkinButton@@QAE@XZ				; CxSkinButton::CxSkinButton
PUBLIC	?DrawItem@CxSkinButton@@UAEXPAUtagDRAWITEMSTRUCT@@@Z ; CxSkinButton::DrawItem
PUBLIC	?PreSubclassWindow@CxSkinButton@@MAEXXZ		; CxSkinButton::PreSubclassWindow
PUBLIC	?DestroyWindow@CxSkinButton@@UAEHXZ		; CxSkinButton::DestroyWindow
PUBLIC	?Create@CxSkinButton@@UAEHPBDKABUtagRECT@@PAVCWnd@@I@Z ; CxSkinButton::Create
PUBLIC	?GetMessageMap@CxSkinButton@@MBEPBUAFX_MSGMAP@@XZ ; CxSkinButton::GetMessageMap
PUBLIC	??_7CxSkinButton@@6B@				; CxSkinButton::`vftable'
PUBLIC	??_GCxSkinButton@@UAEPAXI@Z			; CxSkinButton::`scalar deleting destructor'
EXTRN	?GetInterfaceMap@CWnd@@MBEPBUAFX_INTERFACEMAP@@XZ:NEAR ; CWnd::GetInterfaceMap
EXTRN	__except_list:DWORD
EXTRN	___CxxFrameHandler:NEAR
EXTRN	?EnsureStdObj@CWnd@@UAEJXZ:NEAR			; CWnd::EnsureStdObj
EXTRN	?get_accParent@CWnd@@UAEJPAPAUIDispatch@@@Z:NEAR ; CWnd::get_accParent
EXTRN	?OnCmdMsg@CCmdTarget@@UAEHIHPAXPAUAFX_CMDHANDLERINFO@@@Z:NEAR ; CCmdTarget::OnCmdMsg
EXTRN	?get_accChildCount@CWnd@@UAEJPAJ@Z:NEAR		; CWnd::get_accChildCount
EXTRN	?IsInvokeAllowed@CCmdTarget@@UAEHJ@Z:NEAR	; CCmdTarget::IsInvokeAllowed
EXTRN	?get_accChild@CWnd@@UAEJUtagVARIANT@@PAPAUIDispatch@@@Z:NEAR ; CWnd::get_accChild
EXTRN	?get_accName@CWnd@@UAEJUtagVARIANT@@PAPA_W@Z:NEAR ; CWnd::get_accName
EXTRN	?get_accValue@CWnd@@UAEJUtagVARIANT@@PAPA_W@Z:NEAR ; CWnd::get_accValue
EXTRN	?GetDispatchIID@CCmdTarget@@UAEHPAU_GUID@@@Z:NEAR ; CCmdTarget::GetDispatchIID
EXTRN	?GetTypeInfoCount@CCmdTarget@@UAEIXZ:NEAR	; CCmdTarget::GetTypeInfoCount
EXTRN	?GetTypeLibCache@CCmdTarget@@UAEPAVCTypeLibCache@@XZ:NEAR ; CCmdTarget::GetTypeLibCache
EXTRN	?get_accDescription@CWnd@@UAEJUtagVARIANT@@PAPA_W@Z:NEAR ; CWnd::get_accDescription
EXTRN	?GetTypeLib@CCmdTarget@@UAEJKPAPAUITypeLib@@@Z:NEAR ; CCmdTarget::GetTypeLib
EXTRN	?get_accRole@CWnd@@UAEJUtagVARIANT@@PAU2@@Z:NEAR ; CWnd::get_accRole
EXTRN	?get_accState@CWnd@@UAEJUtagVARIANT@@PAU2@@Z:NEAR ; CWnd::get_accState
EXTRN	?get_accHelp@CWnd@@UAEJUtagVARIANT@@PAPA_W@Z:NEAR ; CWnd::get_accHelp
EXTRN	?get_accHelpTopic@CWnd@@UAEJPAPA_WUtagVARIANT@@PAJ@Z:NEAR ; CWnd::get_accHelpTopic
EXTRN	?get_accKeyboardShortcut@CWnd@@UAEJUtagVARIANT@@PAPA_W@Z:NEAR ; CWnd::get_accKeyboardShortcut
EXTRN	?get_accFocus@CWnd@@UAEJPAUtagVARIANT@@@Z:NEAR	; CWnd::get_accFocus
EXTRN	?get_accSelection@CWnd@@UAEJPAUtagVARIANT@@@Z:NEAR ; CWnd::get_accSelection
EXTRN	?get_accDefaultAction@CWnd@@UAEJUtagVARIANT@@PAPA_W@Z:NEAR ; CWnd::get_accDefaultAction
EXTRN	?GetCommandMap@CCmdTarget@@MBEPBUAFX_OLECMDMAP@@XZ:NEAR ; CCmdTarget::GetCommandMap
EXTRN	?accSelect@CWnd@@UAEJJUtagVARIANT@@@Z:NEAR	; CWnd::accSelect
EXTRN	?accLocation@CWnd@@UAEJPAJ000UtagVARIANT@@@Z:NEAR ; CWnd::accLocation
EXTRN	?GetDispatchMap@CCmdTarget@@MBEPBUAFX_DISPMAP@@XZ:NEAR ; CCmdTarget::GetDispatchMap
EXTRN	?accNavigate@CWnd@@UAEJJUtagVARIANT@@PAU2@@Z:NEAR ; CWnd::accNavigate
EXTRN	?accHitTest@CWnd@@UAEJJJPAUtagVARIANT@@@Z:NEAR	; CWnd::accHitTest
EXTRN	?GetConnectionMap@CCmdTarget@@MBEPBUAFX_CONNECTIONMAP@@XZ:NEAR ; CCmdTarget::GetConnectionMap
EXTRN	?accDoDefaultAction@CWnd@@UAEJUtagVARIANT@@@Z:NEAR ; CWnd::accDoDefaultAction
EXTRN	?put_accName@CWnd@@UAEJUtagVARIANT@@PA_W@Z:NEAR	; CWnd::put_accName
EXTRN	?put_accValue@CWnd@@UAEJUtagVARIANT@@PA_W@Z:NEAR ; CWnd::put_accValue
EXTRN	?SetProxy@CWnd@@UAEJPAUIAccessibleProxy@@@Z:NEAR ; CWnd::SetProxy
EXTRN	?CreateAccessibleProxy@CWnd@@UAEJIJPAJ@Z:NEAR	; CWnd::CreateAccessibleProxy
EXTRN	?GetEventSinkMap@CCmdTarget@@MBEPBUAFX_EVENTSINKMAP@@XZ:NEAR ; CCmdTarget::GetEventSinkMap
EXTRN	?OnCreateAggregates@CCmdTarget@@UAEHXZ:NEAR	; CCmdTarget::OnCreateAggregates
EXTRN	?OnCommand@CWnd@@MAEHIJ@Z:NEAR			; CWnd::OnCommand
EXTRN	?GetInterfaceHook@CCmdTarget@@UAEPAUIUnknown@@PBX@Z:NEAR ; CCmdTarget::GetInterfaceHook
EXTRN	?OnNotify@CWnd@@MAEHIJPAJ@Z:NEAR		; CWnd::OnNotify
EXTRN	?GetExtraConnectionPoints@CCmdTarget@@MAEHPAVCPtrArray@@@Z:NEAR ; CCmdTarget::GetExtraConnectionPoints
EXTRN	?GetConnectionHook@CCmdTarget@@MAEPAUIConnectionPoint@@ABU_GUID@@@Z:NEAR ; CCmdTarget::GetConnectionHook
EXTRN	??0CPoint@@QAE@XZ:NEAR				; CPoint::CPoint
EXTRN	?Create@CWnd@@UAEHPBD0KABUtagRECT@@PAV1@IPAUCCreateContext@@@Z:NEAR ; CWnd::Create
EXTRN	?CreateEx@CWnd@@UAEHKPBD0KHHHHPAUHWND__@@PAUHMENU__@@PAX@Z:NEAR ; CWnd::CreateEx
EXTRN	?CreateEx@CWnd@@UAEHKPBD0KABUtagRECT@@PAV1@IPAX@Z:NEAR ; CWnd::CreateEx
EXTRN	??2CObject@@SGPAXIPBDH@Z:NEAR			; CObject::operator new
EXTRN	??3CObject@@SGXPAXPBDH@Z:NEAR			; CObject::operator delete
EXTRN	?Serialize@CObject@@UAEXAAVCArchive@@@Z:NEAR	; CObject::Serialize
EXTRN	?PreCreateWindow@CWnd@@UAEHAAUtagCREATESTRUCTA@@@Z:NEAR ; CWnd::PreCreateWindow
EXTRN	?CalcWindowRect@CWnd@@UAEXPAUtagRECT@@I@Z:NEAR	; CWnd::CalcWindowRect
EXTRN	?GetSuperWndProcAddr@CWnd@@MAEPAP6GJPAUHWND__@@IIJ@ZXZ:NEAR ; CWnd::GetSuperWndProcAddr
EXTRN	?DoDataExchange@CWnd@@MAEXPAVCDataExchange@@@Z:NEAR ; CWnd::DoDataExchange
EXTRN	?BeginModalState@CWnd@@UAEXXZ:NEAR		; CWnd::BeginModalState
EXTRN	?EndModalState@CWnd@@UAEXXZ:NEAR		; CWnd::EndModalState
EXTRN	?PreTranslateMessage@CWnd@@UAEHPAUtagMSG@@@Z:NEAR ; CWnd::PreTranslateMessage
EXTRN	?OnAmbientProperty@CWnd@@UAEHPAVCOleControlSite@@JPAUtagVARIANT@@@Z:NEAR ; CWnd::OnAmbientProperty
EXTRN	?WindowProc@CWnd@@MAEJIIJ@Z:NEAR		; CWnd::WindowProc
EXTRN	?OnWndMsg@CWnd@@MAEHIIJPAJ@Z:NEAR		; CWnd::OnWndMsg
EXTRN	?DefWindowProcA@CWnd@@MAEJIIJ@Z:NEAR		; CWnd::DefWindowProcA
EXTRN	?PostNcDestroy@CWnd@@MAEXXZ:NEAR		; CWnd::PostNcDestroy
EXTRN	?CheckAutoCenter@CWnd@@UAEHXZ:NEAR		; CWnd::CheckAutoCenter
EXTRN	?AssertValid@CWnd@@UBEXXZ:NEAR			; CWnd::AssertValid
EXTRN	?Dump@CWnd@@UBEXAAVCDumpContext@@@Z:NEAR	; CWnd::Dump
EXTRN	?IsFrameWnd@CWnd@@UBEHXZ:NEAR			; CWnd::IsFrameWnd
EXTRN	?OnFinalRelease@CWnd@@UAEXXZ:NEAR		; CWnd::OnFinalRelease
EXTRN	__imp__GetSysColor@4:NEAR
EXTRN	??0CToolTipCtrl@@QAE@XZ:NEAR			; CToolTipCtrl::CToolTipCtrl
EXTRN	?CreateControlContainer@CWnd@@MAEHPAPAVCOleControlContainer@@@Z:NEAR ; CWnd::CreateControlContainer
EXTRN	?CreateControlSite@CWnd@@MAEHPAVCOleControlContainer@@PAPAVCOleControlSite@@IABU_GUID@@@Z:NEAR ; CWnd::CreateControlSite
EXTRN	??0CCWToolTips@@QAE@XZ:NEAR			; CCWToolTips::CCWToolTips
EXTRN	?SetOccDialogInfo@CWnd@@MAEHPAU_AFX_OCC_DIALOG_INFO@@@Z:NEAR ; CWnd::SetOccDialogInfo
EXTRN	??1CToolTipCtrl@@UAE@XZ:NEAR			; CToolTipCtrl::~CToolTipCtrl
EXTRN	__imp_??0?$CStringT@DV?$StrTraitMFC_DLL@DV?$ChTraitsCRT@D@ATL@@@@@ATL@@QAE@XZ:NEAR
EXTRN	?OnToolHitTest@CWnd@@UBEHVCPoint@@PAUtagTOOLINFOA@@@Z:NEAR ; CWnd::OnToolHitTest
EXTRN	__imp_??1?$CStringT@DV?$StrTraitMFC_DLL@DV?$ChTraitsCRT@D@ATL@@@@@ATL@@QAE@XZ:NEAR
EXTRN	__imp_??4?$CStringT@DV?$StrTraitMFC_DLL@DV?$ChTraitsCRT@D@ATL@@@@@ATL@@QAEAAV01@PBD@Z:NEAR
EXTRN	?GetScrollBarCtrl@CWnd@@UBEPAVCScrollBar@@H@Z:NEAR ; CWnd::GetScrollBarCtrl
EXTRN	??_ECxSkinButton@@UAEPAXI@Z:NEAR		; CxSkinButton::`vector deleting destructor'
EXTRN	?GetRuntimeClass@CButton@@UBEPAUCRuntimeClass@@XZ:NEAR ; CButton::GetRuntimeClass
EXTRN	??0CButton@@QAE@XZ:NEAR				; CButton::CButton
EXTRN	??1CButton@@UAE@XZ:NEAR				; CButton::~CButton
EXTRN	?OnChildNotify@CButton@@MAEHIIJPAJ@Z:NEAR	; CButton::OnChildNotify
EXTRN	?WinHelpA@CWnd@@UAEXKI@Z:NEAR			; CWnd::WinHelpA
EXTRN	?HtmlHelpA@CWnd@@UAEXKI@Z:NEAR			; CWnd::HtmlHelpA
EXTRN	??_7type_info@@6B@:QWORD			; type_info::`vftable'
EXTRN	?WinHelpInternal@CWnd@@UAEXKI@Z:NEAR		; CWnd::WinHelpInternal
EXTRN	?ContinueModal@CWnd@@UAEHXZ:NEAR		; CWnd::ContinueModal
EXTRN	?EndModalLoop@CWnd@@UAEXH@Z:NEAR		; CWnd::EndModalLoop
xdata$x	SEGMENT
$T188573 DD	0ffffffffH
	DD	FLAT:$L188563
	DD	00H
	DD	FLAT:$L188564
	DD	01H
	DD	FLAT:$L188565
	DD	02H
	DD	FLAT:$L188566
$T188570 DD	019930520H
	DD	04H
	DD	FLAT:$T188573
	DD	2 DUP(00H)
	DD	2 DUP(00H)
xdata$x	ENDS
;	COMDAT ??_7CxSkinButton@@6B@
CONST	SEGMENT
??_7CxSkinButton@@6B@ DD FLAT:??_R4CxSkinButton@@6B@	; CxSkinButton::`vftable'
	DD	FLAT:?GetRuntimeClass@CButton@@UBEPAUCRuntimeClass@@XZ
	DD	FLAT:??_ECxSkinButton@@UAEPAXI@Z
	DD	FLAT:?Serialize@CObject@@UAEXAAVCArchive@@@Z
	DD	FLAT:?AssertValid@CWnd@@UBEXXZ
	DD	FLAT:?Dump@CWnd@@UBEXAAVCDumpContext@@@Z
	DD	FLAT:?OnCmdMsg@CCmdTarget@@UAEHIHPAXPAUAFX_CMDHANDLERINFO@@@Z
	DD	FLAT:?OnFinalRelease@CWnd@@UAEXXZ
	DD	FLAT:?IsInvokeAllowed@CCmdTarget@@UAEHJ@Z
	DD	FLAT:?GetDispatchIID@CCmdTarget@@UAEHPAU_GUID@@@Z
	DD	FLAT:?GetTypeInfoCount@CCmdTarget@@UAEIXZ
	DD	FLAT:?GetTypeLibCache@CCmdTarget@@UAEPAVCTypeLibCache@@XZ
	DD	FLAT:?GetTypeLib@CCmdTarget@@UAEJKPAPAUITypeLib@@@Z
	DD	FLAT:?GetMessageMap@CxSkinButton@@MBEPBUAFX_MSGMAP@@XZ
	DD	FLAT:?GetCommandMap@CCmdTarget@@MBEPBUAFX_OLECMDMAP@@XZ
	DD	FLAT:?GetDispatchMap@CCmdTarget@@MBEPBUAFX_DISPMAP@@XZ
	DD	FLAT:?GetConnectionMap@CCmdTarget@@MBEPBUAFX_CONNECTIONMAP@@XZ
	DD	FLAT:?GetInterfaceMap@CWnd@@MBEPBUAFX_INTERFACEMAP@@XZ
	DD	FLAT:?GetEventSinkMap@CCmdTarget@@MBEPBUAFX_EVENTSINKMAP@@XZ
	DD	FLAT:?OnCreateAggregates@CCmdTarget@@UAEHXZ
	DD	FLAT:?GetInterfaceHook@CCmdTarget@@UAEPAUIUnknown@@PBX@Z
	DD	FLAT:?GetExtraConnectionPoints@CCmdTarget@@MAEHPAVCPtrArray@@@Z
	DD	FLAT:?GetConnectionHook@CCmdTarget@@MAEPAUIConnectionPoint@@ABU_GUID@@@Z
	DD	FLAT:?PreSubclassWindow@CxSkinButton@@MAEXXZ
	DD	FLAT:?Create@CWnd@@UAEHPBD0KABUtagRECT@@PAV1@IPAUCCreateContext@@@Z
	DD	FLAT:?CreateEx@CWnd@@UAEHKPBD0KABUtagRECT@@PAV1@IPAX@Z
	DD	FLAT:?CreateEx@CWnd@@UAEHKPBD0KHHHHPAUHWND__@@PAUHMENU__@@PAX@Z
	DD	FLAT:?DestroyWindow@CxSkinButton@@UAEHXZ
	DD	FLAT:?PreCreateWindow@CWnd@@UAEHAAUtagCREATESTRUCTA@@@Z
	DD	FLAT:?CalcWindowRect@CWnd@@UAEXPAUtagRECT@@I@Z
	DD	FLAT:?OnToolHitTest@CWnd@@UBEHVCPoint@@PAUtagTOOLINFOA@@@Z
	DD	FLAT:?GetScrollBarCtrl@CWnd@@UBEPAVCScrollBar@@H@Z
	DD	FLAT:?WinHelpA@CWnd@@UAEXKI@Z
	DD	FLAT:?HtmlHelpA@CWnd@@UAEXKI@Z
	DD	FLAT:?WinHelpInternal@CWnd@@UAEXKI@Z
	DD	FLAT:?ContinueModal@CWnd@@UAEHXZ
	DD	FLAT:?EndModalLoop@CWnd@@UAEXH@Z
	DD	FLAT:?EnsureStdObj@CWnd@@UAEJXZ
	DD	FLAT:?get_accParent@CWnd@@UAEJPAPAUIDispatch@@@Z
	DD	FLAT:?get_accChildCount@CWnd@@UAEJPAJ@Z
	DD	FLAT:?get_accChild@CWnd@@UAEJUtagVARIANT@@PAPAUIDispatch@@@Z
	DD	FLAT:?get_accName@CWnd@@UAEJUtagVARIANT@@PAPA_W@Z
	DD	FLAT:?get_accValue@CWnd@@UAEJUtagVARIANT@@PAPA_W@Z
	DD	FLAT:?get_accDescription@CWnd@@UAEJUtagVARIANT@@PAPA_W@Z
	DD	FLAT:?get_accRole@CWnd@@UAEJUtagVARIANT@@PAU2@@Z
	DD	FLAT:?get_accState@CWnd@@UAEJUtagVARIANT@@PAU2@@Z
	DD	FLAT:?get_accHelp@CWnd@@UAEJUtagVARIANT@@PAPA_W@Z
	DD	FLAT:?get_accHelpTopic@CWnd@@UAEJPAPA_WUtagVARIANT@@PAJ@Z
	DD	FLAT:?get_accKeyboardShortcut@CWnd@@UAEJUtagVARIANT@@PAPA_W@Z
	DD	FLAT:?get_accFocus@CWnd@@UAEJPAUtagVARIANT@@@Z
	DD	FLAT:?get_accSelection@CWnd@@UAEJPAUtagVARIANT@@@Z
	DD	FLAT:?get_accDefaultAction@CWnd@@UAEJUtagVARIANT@@PAPA_W@Z
	DD	FLAT:?accSelect@CWnd@@UAEJJUtagVARIANT@@@Z
	DD	FLAT:?accLocation@CWnd@@UAEJPAJ000UtagVARIANT@@@Z
	DD	FLAT:?accNavigate@CWnd@@UAEJJUtagVARIANT@@PAU2@@Z
	DD	FLAT:?accHitTest@CWnd@@UAEJJJPAUtagVARIANT@@@Z
	DD	FLAT:?accDoDefaultAction@CWnd@@UAEJUtagVARIANT@@@Z
	DD	FLAT:?put_accName@CWnd@@UAEJUtagVARIANT@@PA_W@Z
	DD	FLAT:?put_accValue@CWnd@@UAEJUtagVARIANT@@PA_W@Z
	DD	FLAT:?SetProxy@CWnd@@UAEJPAUIAccessibleProxy@@@Z
	DD	FLAT:?CreateAccessibleProxy@CWnd@@UAEJIJPAJ@Z
	DD	FLAT:?OnCommand@CWnd@@MAEHIJ@Z
	DD	FLAT:?OnNotify@CWnd@@MAEHIJPAJ@Z
	DD	FLAT:?GetSuperWndProcAddr@CWnd@@MAEPAP6GJPAUHWND__@@IIJ@ZXZ
	DD	FLAT:?DoDataExchange@CWnd@@MAEXPAVCDataExchange@@@Z
	DD	FLAT:?BeginModalState@CWnd@@UAEXXZ
	DD	FLAT:?EndModalState@CWnd@@UAEXXZ
	DD	FLAT:?PreTranslateMessage@CWnd@@UAEHPAUtagMSG@@@Z
	DD	FLAT:?OnAmbientProperty@CWnd@@UAEHPAVCOleControlSite@@JPAUtagVARIANT@@@Z
	DD	FLAT:?WindowProc@CWnd@@MAEJIIJ@Z
	DD	FLAT:?OnWndMsg@CWnd@@MAEHIIJPAJ@Z
	DD	FLAT:?DefWindowProcA@CWnd@@MAEJIIJ@Z
	DD	FLAT:?PostNcDestroy@CWnd@@MAEXXZ
	DD	FLAT:?OnChildNotify@CButton@@MAEHIIJPAJ@Z
	DD	FLAT:?CheckAutoCenter@CWnd@@UAEHXZ
	DD	FLAT:?IsFrameWnd@CWnd@@UBEHXZ
	DD	FLAT:?CreateControlContainer@CWnd@@MAEHPAPAVCOleControlContainer@@@Z
	DD	FLAT:?CreateControlSite@CWnd@@MAEHPAVCOleControlContainer@@PAPAVCOleControlSite@@IABU_GUID@@@Z
	DD	FLAT:?SetOccDialogInfo@CWnd@@MAEHPAU_AFX_OCC_DIALOG_INFO@@@Z
	DD	FLAT:?Create@CxSkinButton@@UAEHPBDKABUtagRECT@@PAVCWnd@@I@Z
	DD	FLAT:?DrawItem@CxSkinButton@@UAEXPAUtagDRAWITEMSTRUCT@@@Z
CONST	ENDS
;	COMDAT ??_R4CxSkinButton@@6B@
rdata$r	SEGMENT
??_R4CxSkinButton@@6B@ DD 00H				; CxSkinButton::`RTTI Complete Object Locator'
	DD	00H
	DD	00H
	DD	FLAT:??_R0?AVCxSkinButton@@@8
	DD	FLAT:??_R3CxSkinButton@@8
rdata$r	ENDS
;	COMDAT ??_R0?AVCxSkinButton@@@8
_DATA	SEGMENT
??_R0?AVCxSkinButton@@@8 DD FLAT:??_7type_info@@6B@	; CxSkinButton `RTTI Type Descriptor'
	DD	00H
	DB	'.?AVCxSkinButton@@', 00H
_DATA	ENDS
;	COMDAT ??_R3CxSkinButton@@8
rdata$r	SEGMENT
??_R3CxSkinButton@@8 DD 00H				; CxSkinButton::`RTTI Class Hierarchy Descriptor'
	DD	00H
	DD	05H
	DD	FLAT:??_R2CxSkinButton@@8
rdata$r	ENDS
;	COMDAT ??_R2CxSkinButton@@8
rdata$r	SEGMENT
??_R2CxSkinButton@@8 DD FLAT:??_R1A@?0A@A@CxSkinButton@@8 ; CxSkinButton::`RTTI Base Class Array'
	DD	FLAT:??_R1A@?0A@A@CButton@@8
	DD	FLAT:??_R1A@?0A@A@CWnd@@8
	DD	FLAT:??_R1A@?0A@A@CCmdTarget@@8
	DD	FLAT:??_R1A@?0A@A@CObject@@8
rdata$r	ENDS
;	COMDAT ??_R1A@?0A@A@CxSkinButton@@8
rdata$r	SEGMENT
??_R1A@?0A@A@CxSkinButton@@8 DD FLAT:??_R0?AVCxSkinButton@@@8 ; CxSkinButton::`RTTI Base Class Descriptor at (0,-1,0,0)'
	DD	04H
	DD	00H
	DD	0ffffffffH
	DD	00H
	DD	00H
rdata$r	ENDS
;	COMDAT ??_R1A@?0A@A@CButton@@8
rdata$r	SEGMENT
??_R1A@?0A@A@CButton@@8 DD FLAT:??_R0?AVCButton@@@8	; CButton::`RTTI Base Class Descriptor at (0,-1,0,0)'
	DD	03H
	DD	00H
	DD	0ffffffffH
	DD	00H
	DD	00H
rdata$r	ENDS
;	COMDAT ??_R0?AVCButton@@@8
_DATA	SEGMENT
??_R0?AVCButton@@@8 DD FLAT:??_7type_info@@6B@		; CButton `RTTI Type Descriptor'
	DD	00H
	DB	'.?AVCButton@@', 00H
_DATA	ENDS
;	COMDAT ??_R1A@?0A@A@CWnd@@8
rdata$r	SEGMENT
??_R1A@?0A@A@CWnd@@8 DD FLAT:??_R0?AVCWnd@@@8		; CWnd::`RTTI Base Class Descriptor at (0,-1,0,0)'
	DD	02H
	DD	00H
	DD	0ffffffffH
	DD	00H
	DD	00H
rdata$r	ENDS
;	COMDAT ??_R0?AVCWnd@@@8
_DATA	SEGMENT
??_R0?AVCWnd@@@8 DD FLAT:??_7type_info@@6B@		; CWnd `RTTI Type Descriptor'
	DD	00H
	DB	'.?AVCWnd@@', 00H
_DATA	ENDS
;	COMDAT ??_R1A@?0A@A@CCmdTarget@@8
rdata$r	SEGMENT
??_R1A@?0A@A@CCmdTarget@@8 DD FLAT:??_R0?AVCCmdTarget@@@8 ; CCmdTarget::`RTTI Base Class Descriptor at (0,-1,0,0)'
	DD	01H
	DD	00H
	DD	0ffffffffH
	DD	00H
	DD	00H
rdata$r	ENDS
;	COMDAT ??_R0?AVCCmdTarget@@@8
_DATA	SEGMENT
??_R0?AVCCmdTarget@@@8 DD FLAT:??_7type_info@@6B@	; CCmdTarget `RTTI Type Descriptor'
	DD	00H
	DB	'.?AVCCmdTarget@@', 00H
_DATA	ENDS
;	COMDAT ??_R1A@?0A@A@CObject@@8
rdata$r	SEGMENT
??_R1A@?0A@A@CObject@@8 DD FLAT:??_R0?AVCObject@@@8	; CObject::`RTTI Base Class Descriptor at (0,-1,0,0)'
	DD	00H
	DD	00H
	DD	0ffffffffH
	DD	00H
	DD	00H
rdata$r	ENDS
;	COMDAT ??_R0?AVCObject@@@8
_DATA	SEGMENT
??_R0?AVCObject@@@8 DD FLAT:??_7type_info@@6B@		; CObject `RTTI Type Descriptor'
	DD	00H
	DB	'.?AVCObject@@', 00H
; Function compile flags: /Odt /RTCsu
_DATA	ENDS
_TEXT	SEGMENT
tv155 = -28						; size = 4
$T188560 = -24						; size = 4
$T188559 = -20						; size = 4
_this$ = -16						; size = 4
__$EHRec$ = -12						; size = 12
??0CxSkinButton@@QAE@XZ PROC NEAR			; CxSkinButton::CxSkinButton
; _this$ = ecx

; 228  : {

  008d0	55		 push	 ebp
  008d1	8b ec		 mov	 ebp, esp
  008d3	6a ff		 push	 -1
  008d5	68 00 00 00 00	 push	 __ehhandler$??0CxSkinButton@@QAE@XZ
  008da	64 a1 00 00 00
	00		 mov	 eax, DWORD PTR fs:__except_list
  008e0	50		 push	 eax
  008e1	64 89 25 00 00
	00 00		 mov	 DWORD PTR fs:__except_list, esp
  008e8	83 ec 10	 sub	 esp, 16			; 00000010H
  008eb	56		 push	 esi
  008ec	b8 cc cc cc cc	 mov	 eax, -858993460		; ccccccccH
  008f1	89 45 e4	 mov	 DWORD PTR [ebp-28], eax
  008f4	89 45 e8	 mov	 DWORD PTR [ebp-24], eax
  008f7	89 45 ec	 mov	 DWORD PTR [ebp-20], eax
  008fa	89 45 f0	 mov	 DWORD PTR [ebp-16], eax
  008fd	89 4d f0	 mov	 DWORD PTR _this$[ebp], ecx
  00900	8b 4d f0	 mov	 ecx, DWORD PTR _this$[ebp]
  00903	e8 00 00 00 00	 call	 ??0CButton@@QAE@XZ	; CButton::CButton
  00908	c7 45 fc 00 00
	00 00		 mov	 DWORD PTR __$EHRec$[ebp+8], 0
  0090f	8b 45 f0	 mov	 eax, DWORD PTR _this$[ebp]
  00912	c7 00 00 00 00
	00		 mov	 DWORD PTR [eax], OFFSET FLAT:??_7CxSkinButton@@6B@
  00918	8b 4d f0	 mov	 ecx, DWORD PTR _this$[ebp]
  0091b	83 c1 58	 add	 ecx, 88			; 00000058H
  0091e	8b f4		 mov	 esi, esp
  00920	ff 15 00 00 00
	00		 call	 DWORD PTR __imp_??0?$CStringT@DV?$StrTraitMFC_DLL@DV?$ChTraitsCRT@D@ATL@@@@@ATL@@QAE@XZ
  00926	3b f4		 cmp	 esi, esp
  00928	e8 00 00 00 00	 call	 __RTC_CheckEsp
  0092d	c6 45 fc 01	 mov	 BYTE PTR __$EHRec$[ebp+8], 1
  00931	8b 4d f0	 mov	 ecx, DWORD PTR _this$[ebp]
  00934	83 c1 60	 add	 ecx, 96			; 00000060H
  00937	e8 00 00 00 00	 call	 ??0CPoint@@QAE@XZ	; CPoint::CPoint
  0093c	8b 4d f0	 mov	 ecx, DWORD PTR _this$[ebp]
  0093f	83 c1 7c	 add	 ecx, 124		; 0000007cH
  00942	e8 00 00 00 00	 call	 ??0CToolTipCtrl@@QAE@XZ	; CToolTipCtrl::CToolTipCtrl
  00947	c6 45 fc 02	 mov	 BYTE PTR __$EHRec$[ebp+8], 2

; 229  : 	m_DrawMode=1;			// normal drawing mode

  0094b	8b 4d f0	 mov	 ecx, DWORD PTR _this$[ebp]
  0094e	66 c7 81 20 01
	00 00 01 00	 mov	 WORD PTR [ecx+288], 1

; 230  : 	m_FocusRectMargin=0;	// disable focus dotted rect

  00957	8b 55 f0	 mov	 edx, DWORD PTR _this$[ebp]
  0095a	66 c7 82 04 01
	00 00 00 00	 mov	 WORD PTR [edx+260], 0

; 231  : 	hClipRgn=NULL;			// no clipping region

  00963	8b 45 f0	 mov	 eax, DWORD PTR _this$[ebp]
  00966	c7 80 18 01 00
	00 00 00 00 00	 mov	 DWORD PTR [eax+280], 0

; 232  : 	m_normalTextColor=GetSysColor(COLOR_BTNTEXT); // default button text color

  00970	8b f4		 mov	 esi, esp
  00972	6a 12		 push	 18			; 00000012H
  00974	ff 15 00 00 00
	00		 call	 DWORD PTR __imp__GetSysColor@4
  0097a	3b f4		 cmp	 esi, esp
  0097c	e8 00 00 00 00	 call	 __RTC_CheckEsp
  00981	8b 4d f0	 mov	 ecx, DWORD PTR _this$[ebp]
  00984	89 81 08 01 00
	00		 mov	 DWORD PTR [ecx+264], eax

; 233  : 	m_downTextColor	= m_normalTextColor;

  0098a	8b 55 f0	 mov	 edx, DWORD PTR _this$[ebp]
  0098d	8b 45 f0	 mov	 eax, DWORD PTR _this$[ebp]
  00990	8b 88 08 01 00
	00		 mov	 ecx, DWORD PTR [eax+264]
  00996	89 8a 0c 01 00
	00		 mov	 DWORD PTR [edx+268], ecx

; 234  : 	m_OverTextColor	= m_normalTextColor;

  0099c	8b 55 f0	 mov	 edx, DWORD PTR _this$[ebp]
  0099f	8b 45 f0	 mov	 eax, DWORD PTR _this$[ebp]
  009a2	8b 88 08 01 00
	00		 mov	 ecx, DWORD PTR [eax+264]
  009a8	89 8a 10 01 00
	00		 mov	 DWORD PTR [edx+272], ecx

; 235  : 	m_disableTextColor = m_normalTextColor;

  009ae	8b 55 f0	 mov	 edx, DWORD PTR _this$[ebp]
  009b1	8b 45 f0	 mov	 eax, DWORD PTR _this$[ebp]
  009b4	8b 88 08 01 00
	00		 mov	 ecx, DWORD PTR [eax+264]
  009ba	89 8a 14 01 00
	00		 mov	 DWORD PTR [edx+276], ecx

; 236  : 	m_button_down = m_tracking = m_Checked = false;

  009c0	8b 55 f0	 mov	 edx, DWORD PTR _this$[ebp]
  009c3	c6 42 71 00	 mov	 BYTE PTR [edx+113], 0
  009c7	8b 45 f0	 mov	 eax, DWORD PTR _this$[ebp]
  009ca	c6 40 78 00	 mov	 BYTE PTR [eax+120], 0
  009ce	8b 4d f0	 mov	 ecx, DWORD PTR _this$[ebp]
  009d1	c6 41 79 00	 mov	 BYTE PTR [ecx+121], 0

; 237  : 
; 238  : 	m_bNormal = NULL;

  009d5	8b 55 f0	 mov	 edx, DWORD PTR _this$[ebp]
  009d8	c7 82 ec 00 00
	00 00 00 00 00	 mov	 DWORD PTR [edx+236], 0

; 239  : 	m_bDown = NULL;

  009e2	8b 45 f0	 mov	 eax, DWORD PTR _this$[ebp]
  009e5	c7 80 f0 00 00
	00 00 00 00 00	 mov	 DWORD PTR [eax+240], 0

; 240  : 	m_bOver = NULL;

  009ef	8b 4d f0	 mov	 ecx, DWORD PTR _this$[ebp]
  009f2	c7 81 fc 00 00
	00 00 00 00 00	 mov	 DWORD PTR [ecx+252], 0

; 241  : 	m_bDisabled = NULL;

  009fc	8b 55 f0	 mov	 edx, DWORD PTR _this$[ebp]
  009ff	c7 82 f4 00 00
	00 00 00 00 00	 mov	 DWORD PTR [edx+244], 0

; 242  : 	m_bMask = NULL;

  00a09	8b 45 f0	 mov	 eax, DWORD PTR _this$[ebp]
  00a0c	c7 80 f8 00 00
	00 00 00 00 00	 mov	 DWORD PTR [eax+248], 0

; 243  : 	m_bFocus = NULL;

  00a16	8b 4d f0	 mov	 ecx, DWORD PTR _this$[ebp]
  00a19	c7 81 00 01 00
	00 00 00 00 00	 mov	 DWORD PTR [ecx+256], 0

; 244  : 
; 245  : 	m_bRClick = false;

  00a23	8b 55 f0	 mov	 edx, DWORD PTR _this$[ebp]
  00a26	c7 42 54 00 00
	00 00		 mov	 DWORD PTR [edx+84], 0

; 246  : 	m_bSetMask = false;

  00a2d	8b 45 f0	 mov	 eax, DWORD PTR _this$[ebp]
  00a30	c6 40 70 00	 mov	 BYTE PTR [eax+112], 0

; 247  : 	
; 248  : 	m_nTextOffsetX = 0;

  00a34	8b 4d f0	 mov	 ecx, DWORD PTR _this$[ebp]
  00a37	c7 41 68 00 00
	00 00		 mov	 DWORD PTR [ecx+104], 0

; 249  : 	m_nTextOffsetY = 0;

  00a3e	8b 55 f0	 mov	 edx, DWORD PTR _this$[ebp]
  00a41	c7 42 6c 00 00
	00 00		 mov	 DWORD PTR [edx+108], 0

; 250  : 	m_strToolTip = "";

  00a48	8b f4		 mov	 esi, esp
  00a4a	68 00 00 00 00	 push	 OFFSET FLAT:$SG187394
  00a4f	8b 4d f0	 mov	 ecx, DWORD PTR _this$[ebp]
  00a52	83 c1 58	 add	 ecx, 88			; 00000058H
  00a55	ff 15 00 00 00
	00		 call	 DWORD PTR __imp_??4?$CStringT@DV?$StrTraitMFC_DLL@DV?$ChTraitsCRT@D@ATL@@@@@ATL@@QAEAAV01@PBD@Z
  00a5b	3b f4		 cmp	 esi, esp
  00a5d	e8 00 00 00 00	 call	 __RTC_CheckEsp

; 251  : 	m_pToolTip = new CCWToolTips();

  00a62	68 fb 00 00 00	 push	 251			; 000000fbH
  00a67	68 00 00 00 00	 push	 OFFSET FLAT:_THIS_FILE
  00a6c	68 90 00 00 00	 push	 144			; 00000090H
  00a71	e8 00 00 00 00	 call	 ??2CObject@@SGPAXIPBDH@Z ; CObject::operator new
  00a76	89 45 e8	 mov	 DWORD PTR $T188560[ebp], eax
  00a79	c6 45 fc 03	 mov	 BYTE PTR __$EHRec$[ebp+8], 3
  00a7d	83 7d e8 00	 cmp	 DWORD PTR $T188560[ebp], 0
  00a81	74 0d		 je	 SHORT $L188561
  00a83	8b 4d e8	 mov	 ecx, DWORD PTR $T188560[ebp]
  00a86	e8 00 00 00 00	 call	 ??0CCWToolTips@@QAE@XZ	; CCWToolTips::CCWToolTips
  00a8b	89 45 e4	 mov	 DWORD PTR tv155[ebp], eax
  00a8e	eb 07		 jmp	 SHORT $L188562
$L188561:
  00a90	c7 45 e4 00 00
	00 00		 mov	 DWORD PTR tv155[ebp], 0
$L188562:
  00a97	8b 45 e4	 mov	 eax, DWORD PTR tv155[ebp]
  00a9a	89 45 ec	 mov	 DWORD PTR $T188559[ebp], eax
  00a9d	c6 45 fc 02	 mov	 BYTE PTR __$EHRec$[ebp+8], 2
  00aa1	8b 4d f0	 mov	 ecx, DWORD PTR _this$[ebp]
  00aa4	8b 55 ec	 mov	 edx, DWORD PTR $T188559[ebp]
  00aa7	89 51 5c	 mov	 DWORD PTR [ecx+92], edx

; 252  : 
; 253  : 
; 254  : }

  00aaa	c7 45 fc ff ff
	ff ff		 mov	 DWORD PTR __$EHRec$[ebp+8], -1
  00ab1	8b 45 f0	 mov	 eax, DWORD PTR _this$[ebp]
  00ab4	8b 4d f4	 mov	 ecx, DWORD PTR __$EHRec$[ebp]
  00ab7	64 89 0d 00 00
	00 00		 mov	 DWORD PTR fs:__except_list, ecx
  00abe	5e		 pop	 esi
  00abf	83 c4 1c	 add	 esp, 28			; 0000001cH
  00ac2	3b ec		 cmp	 ebp, esp
  00ac4	e8 00 00 00 00	 call	 __RTC_CheckEsp
  00ac9	8b e5		 mov	 esp, ebp
  00acb	5d		 pop	 ebp
  00acc	c3		 ret	 0
_TEXT	ENDS
text$x	SEGMENT
$L188563:
  00000	8b 4d f0	 mov	 ecx, DWORD PTR _this$[ebp]
  00003	e9 00 00 00 00	 jmp	 ??1CButton@@UAE@XZ	; CButton::~CButton
$L188564:
  00008	8b 4d f0	 mov	 ecx, DWORD PTR _this$[ebp]
  0000b	83 c1 58	 add	 ecx, 88			; 00000058H
  0000e	8b f4		 mov	 esi, esp
  00010	ff 15 00 00 00
	00		 call	 DWORD PTR __imp_??1?$CStringT@DV?$StrTraitMFC_DLL@DV?$ChTraitsCRT@D@ATL@@@@@ATL@@QAE@XZ
  00016	3b f4		 cmp	 esi, esp
  00018	e9 00 00 00 00	 jmp	 __RTC_CheckEsp
$L188565:
  0001d	8b 4d f0	 mov	 ecx, DWORD PTR _this$[ebp]
  00020	83 c1 7c	 add	 ecx, 124		; 0000007cH
  00023	e9 00 00 00 00	 jmp	 ??1CToolTipCtrl@@UAE@XZ	; CToolTipCtrl::~CToolTipCtrl
$L188566:
  00028	68 fb 00 00 00	 push	 251			; 000000fbH
  0002d	68 00 00 00 00	 push	 OFFSET FLAT:_THIS_FILE
  00032	8b 45 e8	 mov	 eax, DWORD PTR $T188560[ebp]
  00035	50		 push	 eax
  00036	e8 00 00 00 00	 call	 ??3CObject@@SGXPAXPBDH@Z ; CObject::operator delete
  0003b	c3		 ret	 0
__ehhandler$??0CxSkinButton@@QAE@XZ:
  0003c	b8 00 00 00 00	 mov	 eax, OFFSET FLAT:$T188570
  00041	e9 00 00 00 00	 jmp	 ___CxxFrameHandler
text$x	ENDS
??0CxSkinButton@@QAE@XZ ENDP				; CxSkinButton::CxSkinButton
PUBLIC	??1CxSkinButton@@UAE@XZ				; CxSkinButton::~CxSkinButton
EXTRN	??3CObject@@SGXPAX@Z:NEAR			; CObject::operator delete
; Function compile flags: /Odt /RTCsu
;	COMDAT ??_GCxSkinButton@@UAEPAXI@Z
_TEXT	SEGMENT
_this$ = -4						; size = 4
___flags$ = 8						; size = 4
??_GCxSkinButton@@UAEPAXI@Z PROC NEAR			; CxSkinButton::`scalar deleting destructor', COMDAT
; _this$ = ecx
  00000	55		 push	 ebp
  00001	8b ec		 mov	 ebp, esp
  00003	51		 push	 ecx
  00004	c7 45 fc cc cc
	cc cc		 mov	 DWORD PTR [ebp-4], -858993460 ; ccccccccH
  0000b	89 4d fc	 mov	 DWORD PTR _this$[ebp], ecx
  0000e	8b 4d fc	 mov	 ecx, DWORD PTR _this$[ebp]
  00011	e8 00 00 00 00	 call	 ??1CxSkinButton@@UAE@XZ	; CxSkinButton::~CxSkinButton
  00016	8b 45 08	 mov	 eax, DWORD PTR ___flags$[ebp]
  00019	83 e0 01	 and	 eax, 1
  0001c	74 09		 je	 SHORT $L187404
  0001e	8b 4d fc	 mov	 ecx, DWORD PTR _this$[ebp]
  00021	51		 push	 ecx
  00022	e8 00 00 00 00	 call	 ??3CObject@@SGXPAX@Z	; CObject::operator delete
$L187404:
  00027	8b 45 fc	 mov	 eax, DWORD PTR _this$[ebp]
  0002a	83 c4 04	 add	 esp, 4
  0002d	3b ec		 cmp	 ebp, esp
  0002f	e8 00 00 00 00	 call	 __RTC_CheckEsp
  00034	8b e5		 mov	 esp, ebp
  00036	5d		 pop	 ebp
  00037	c2 04 00	 ret	 4
??_GCxSkinButton@@UAEPAXI@Z ENDP			; CxSkinButton::`scalar deleting destructor'
_TEXT	ENDS
EXTRN	__imp__DeleteObject@4:NEAR
xdata$x	SEGMENT
$T188587 DD	0ffffffffH
	DD	FLAT:$L188581
	DD	00H
	DD	FLAT:$L188582
	DD	01H
	DD	FLAT:$L188583
$T188585 DD	019930520H
	DD	03H
	DD	FLAT:$T188587
	DD	2 DUP(00H)
	DD	2 DUP(00H)
; Function compile flags: /Odt /RTCsu
xdata$x	ENDS
_TEXT	SEGMENT
tv84 = -28						; size = 4
$T188578 = -24						; size = 4
$T188577 = -20						; size = 4
_this$ = -16						; size = 4
__$EHRec$ = -12						; size = 12
??1CxSkinButton@@UAE@XZ PROC NEAR			; CxSkinButton::~CxSkinButton
; _this$ = ecx

; 257  : {

  00ad0	55		 push	 ebp
  00ad1	8b ec		 mov	 ebp, esp
  00ad3	6a ff		 push	 -1
  00ad5	68 00 00 00 00	 push	 __ehhandler$??1CxSkinButton@@UAE@XZ
  00ada	64 a1 00 00 00
	00		 mov	 eax, DWORD PTR fs:__except_list
  00ae0	50		 push	 eax
  00ae1	64 89 25 00 00
	00 00		 mov	 DWORD PTR fs:__except_list, esp
  00ae8	83 ec 10	 sub	 esp, 16			; 00000010H
  00aeb	56		 push	 esi
  00aec	b8 cc cc cc cc	 mov	 eax, -858993460		; ccccccccH
  00af1	89 45 e4	 mov	 DWORD PTR [ebp-28], eax
  00af4	89 45 e8	 mov	 DWORD PTR [ebp-24], eax
  00af7	89 45 ec	 mov	 DWORD PTR [ebp-20], eax
  00afa	89 45 f0	 mov	 DWORD PTR [ebp-16], eax
  00afd	89 4d f0	 mov	 DWORD PTR _this$[ebp], ecx
  00b00	8b 45 f0	 mov	 eax, DWORD PTR _this$[ebp]
  00b03	c7 00 00 00 00
	00		 mov	 DWORD PTR [eax], OFFSET FLAT:??_7CxSkinButton@@6B@
  00b09	c7 45 fc 02 00
	00 00		 mov	 DWORD PTR __$EHRec$[ebp+8], 2

; 258  : 	if (hClipRgn) DeleteObject(hClipRgn);	// free clip region

  00b10	8b 4d f0	 mov	 ecx, DWORD PTR _this$[ebp]
  00b13	83 b9 18 01 00
	00 00		 cmp	 DWORD PTR [ecx+280], 0
  00b1a	74 19		 je	 SHORT $L187408
  00b1c	8b f4		 mov	 esi, esp
  00b1e	8b 55 f0	 mov	 edx, DWORD PTR _this$[ebp]
  00b21	8b 82 18 01 00
	00		 mov	 eax, DWORD PTR [edx+280]
  00b27	50		 push	 eax
  00b28	ff 15 00 00 00
	00		 call	 DWORD PTR __imp__DeleteObject@4
  00b2e	3b f4		 cmp	 esi, esp
  00b30	e8 00 00 00 00	 call	 __RTC_CheckEsp
$L187408:

; 259  : 
; 260  : 	delete m_pToolTip;

  00b35	8b 4d f0	 mov	 ecx, DWORD PTR _this$[ebp]
  00b38	8b 51 5c	 mov	 edx, DWORD PTR [ecx+92]
  00b3b	89 55 e8	 mov	 DWORD PTR $T188578[ebp], edx
  00b3e	8b 45 e8	 mov	 eax, DWORD PTR $T188578[ebp]
  00b41	89 45 ec	 mov	 DWORD PTR $T188577[ebp], eax
  00b44	83 7d ec 00	 cmp	 DWORD PTR $T188577[ebp], 0
  00b48	74 1b		 je	 SHORT $L188579
  00b4a	8b f4		 mov	 esi, esp
  00b4c	6a 01		 push	 1
  00b4e	8b 4d ec	 mov	 ecx, DWORD PTR $T188577[ebp]
  00b51	8b 11		 mov	 edx, DWORD PTR [ecx]
  00b53	8b 4d ec	 mov	 ecx, DWORD PTR $T188577[ebp]
  00b56	ff 52 04	 call	 DWORD PTR [edx+4]
  00b59	3b f4		 cmp	 esi, esp
  00b5b	e8 00 00 00 00	 call	 __RTC_CheckEsp
  00b60	89 45 e4	 mov	 DWORD PTR tv84[ebp], eax
  00b63	eb 07		 jmp	 SHORT $L187407
$L188579:
  00b65	c7 45 e4 00 00
	00 00		 mov	 DWORD PTR tv84[ebp], 0
$L187407:

; 261  : 
; 262  : }

  00b6c	c6 45 fc 01	 mov	 BYTE PTR __$EHRec$[ebp+8], 1
  00b70	8b 4d f0	 mov	 ecx, DWORD PTR _this$[ebp]
  00b73	83 c1 7c	 add	 ecx, 124		; 0000007cH
  00b76	e8 00 00 00 00	 call	 ??1CToolTipCtrl@@UAE@XZ	; CToolTipCtrl::~CToolTipCtrl
  00b7b	c6 45 fc 00	 mov	 BYTE PTR __$EHRec$[ebp+8], 0
  00b7f	8b 4d f0	 mov	 ecx, DWORD PTR _this$[ebp]
  00b82	83 c1 58	 add	 ecx, 88			; 00000058H
  00b85	8b f4		 mov	 esi, esp
  00b87	ff 15 00 00 00
	00		 call	 DWORD PTR __imp_??1?$CStringT@DV?$StrTraitMFC_DLL@DV?$ChTraitsCRT@D@ATL@@@@@ATL@@QAE@XZ
  00b8d	3b f4		 cmp	 esi, esp
  00b8f	e8 00 00 00 00	 call	 __RTC_CheckEsp
  00b94	c7 45 fc ff ff
	ff ff		 mov	 DWORD PTR __$EHRec$[ebp+8], -1
  00b9b	8b 4d f0	 mov	 ecx, DWORD PTR _this$[ebp]
  00b9e	e8 00 00 00 00	 call	 ??1CButton@@UAE@XZ	; CButton::~CButton
  00ba3	8b 4d f4	 mov	 ecx, DWORD PTR __$EHRec$[ebp]
  00ba6	64 89 0d 00 00
	00 00		 mov	 DWORD PTR fs:__except_list, ecx
  00bad	5e		 pop	 esi
  00bae	83 c4 1c	 add	 esp, 28			; 0000001cH
  00bb1	3b ec		 cmp	 ebp, esp
  00bb3	e8 00 00 00 00	 call	 __RTC_CheckEsp
  00bb8	8b e5		 mov	 esp, ebp
  00bba	5d		 pop	 ebp
  00bbb	c3		 ret	 0
_TEXT	ENDS
text$x	SEGMENT
$L188581:
  00046	8b 4d f0	 mov	 ecx, DWORD PTR _this$[ebp]
  00049	e9 00 00 00 00	 jmp	 ??1CButton@@UAE@XZ	; CButton::~CButton
$L188582:
  0004e	8b 4d f0	 mov	 ecx, DWORD PTR _this$[ebp]
  00051	83 c1 58	 add	 ecx, 88			; 00000058H
  00054	8b f4		 mov	 esi, esp
  00056	ff 15 00 00 00
	00		 call	 DWORD PTR __imp_??1?$CStringT@DV?$StrTraitMFC_DLL@DV?$ChTraitsCRT@D@ATL@@@@@ATL@@QAE@XZ
  0005c	3b f4		 cmp	 esi, esp
  0005e	e9 00 00 00 00	 jmp	 __RTC_CheckEsp
$L188583:
  00063	8b 4d f0	 mov	 ecx, DWORD PTR _this$[ebp]
  00066	83 c1 7c	 add	 ecx, 124		; 0000007cH
  00069	e9 00 00 00 00	 jmp	 ??1CToolTipCtrl@@UAE@XZ	; CToolTipCtrl::~CToolTipCtrl
__ehhandler$??1CxSkinButton@@UAE@XZ:
  0006e	b8 00 00 00 00	 mov	 eax, OFFSET FLAT:$T188585
  00073	e9 00 00 00 00	 jmp	 ___CxxFrameHandler
text$x	ENDS
??1CxSkinButton@@UAE@XZ ENDP				; CxSkinButton::~CxSkinButton
PUBLIC	?GetThisMessageMap@CxSkinButton@@KGPBUAFX_MSGMAP@@XZ ; CxSkinButton::GetThisMessageMap
; Function compile flags: /Odt /RTCsu
_TEXT	SEGMENT
?GetThisMessageMap@CxSkinButton@@KGPBUAFX_MSGMAP@@XZ PROC NEAR ; CxSkinButton::GetThisMessageMap

; 264  : BEGIN_MESSAGE_MAP(CxSkinButton, CButton)

  00bc0	55		 push	 ebp
  00bc1	8b ec		 mov	 ebp, esp
  00bc3	b8 00 00 00 00	 mov	 eax, OFFSET FLAT:?messageMap@CxSkinButton@@1UAFX_MSGMAP@@B ; CxSkinButton::messageMap
  00bc8	5d		 pop	 ebp
  00bc9	c3		 ret	 0
?GetThisMessageMap@CxSkinButton@@KGPBUAFX_MSGMAP@@XZ ENDP ; CxSkinButton::GetThisMessageMap
; Function compile flags: /Odt /RTCsu
_this$ = -4						; size = 4
?GetMessageMap@CxSkinButton@@MBEPBUAFX_MSGMAP@@XZ PROC NEAR ; CxSkinButton::GetMessageMap
; _this$ = ecx

; 264  : BEGIN_MESSAGE_MAP(CxSkinButton, CButton)

  00bd0	55		 push	 ebp
  00bd1	8b ec		 mov	 ebp, esp
  00bd3	51		 push	 ecx
  00bd4	c7 45 fc cc cc
	cc cc		 mov	 DWORD PTR [ebp-4], -858993460 ; ccccccccH
  00bdb	89 4d fc	 mov	 DWORD PTR _this$[ebp], ecx
  00bde	b8 00 00 00 00	 mov	 eax, OFFSET FLAT:?messageMap@CxSkinButton@@1UAFX_MSGMAP@@B ; CxSkinButton::messageMap
  00be3	8b e5		 mov	 esp, ebp
  00be5	5d		 pop	 ebp
  00be6	c3		 ret	 0
?GetMessageMap@CxSkinButton@@MBEPBUAFX_MSGMAP@@XZ ENDP	; CxSkinButton::GetMessageMap
_TEXT	ENDS
EXTRN	?ModifyStyle@CWnd@@QAEHKKI@Z:NEAR		; CWnd::ModifyStyle
EXTRN	?PreSubclassWindow@CWnd@@UAEXXZ:NEAR		; CWnd::PreSubclassWindow
EXTRN	?GetButtonStyle@CButton@@QBEIXZ:NEAR		; CButton::GetButtonStyle
; Function compile flags: /Odt /RTCsu
_TEXT	SEGMENT
_this$ = -4						; size = 4
?PreSubclassWindow@CxSkinButton@@MAEXXZ PROC NEAR	; CxSkinButton::PreSubclassWindow
; _this$ = ecx

; 287  : {

  00bf0	55		 push	 ebp
  00bf1	8b ec		 mov	 ebp, esp
  00bf3	51		 push	 ecx
  00bf4	c7 45 fc cc cc
	cc cc		 mov	 DWORD PTR [ebp-4], -858993460 ; ccccccccH
  00bfb	89 4d fc	 mov	 DWORD PTR _this$[ebp], ecx

; 288  : 	m_Style=GetButtonStyle();	///get specific BS_ styles

  00bfe	8b 4d fc	 mov	 ecx, DWORD PTR _this$[ebp]
  00c01	e8 00 00 00 00	 call	 ?GetButtonStyle@CButton@@QBEIXZ ; CButton::GetButtonStyle
  00c06	8b 4d fc	 mov	 ecx, DWORD PTR _this$[ebp]
  00c09	89 41 74	 mov	 DWORD PTR [ecx+116], eax

; 289  : 	if ((m_Style & BS_AUTOCHECKBOX)==BS_AUTOCHECKBOX)

  00c0c	8b 55 fc	 mov	 edx, DWORD PTR _this$[ebp]
  00c0f	8b 42 74	 mov	 eax, DWORD PTR [edx+116]
  00c12	83 e0 03	 and	 eax, 3
  00c15	83 f8 03	 cmp	 eax, 3
  00c18	75 0c		 jne	 SHORT $L187489

; 290  : //		||((m_Style & BS_CHECKBOX)==BS_CHECKBOX))
; 291  : 		m_Style=BS_CHECKBOX;

  00c1a	8b 4d fc	 mov	 ecx, DWORD PTR _this$[ebp]
  00c1d	c7 41 74 02 00
	00 00		 mov	 DWORD PTR [ecx+116], 2

; 292  : 	else if ((m_Style & BS_AUTORADIOBUTTON)==BS_AUTORADIOBUTTON)

  00c24	eb 24		 jmp	 SHORT $L187490
$L187489:
  00c26	8b 55 fc	 mov	 edx, DWORD PTR _this$[ebp]
  00c29	8b 42 74	 mov	 eax, DWORD PTR [edx+116]
  00c2c	83 e0 09	 and	 eax, 9
  00c2f	83 f8 09	 cmp	 eax, 9
  00c32	75 0c		 jne	 SHORT $L187491

; 293  : //			||((m_Style & BS_RADIOBUTTON)==BS_RADIOBUTTON))
; 294  : 		m_Style=BS_RADIOBUTTON;

  00c34	8b 4d fc	 mov	 ecx, DWORD PTR _this$[ebp]
  00c37	c7 41 74 04 00
	00 00		 mov	 DWORD PTR [ecx+116], 4

; 295  : 	else { m_Style=BS_PUSHBUTTON; }

  00c3e	eb 0a		 jmp	 SHORT $L187490
$L187491:
  00c40	8b 55 fc	 mov	 edx, DWORD PTR _this$[ebp]
  00c43	c7 42 74 00 00
	00 00		 mov	 DWORD PTR [edx+116], 0
$L187490:

; 296  : 
; 297  : 	CButton::PreSubclassWindow();

  00c4a	8b 4d fc	 mov	 ecx, DWORD PTR _this$[ebp]
  00c4d	e8 00 00 00 00	 call	 ?PreSubclassWindow@CWnd@@UAEXXZ ; CWnd::PreSubclassWindow

; 298  : 	ModifyStyle(0, BS_OWNERDRAW);

  00c52	6a 00		 push	 0
  00c54	6a 0b		 push	 11			; 0000000bH
  00c56	6a 00		 push	 0
  00c58	8b 4d fc	 mov	 ecx, DWORD PTR _this$[ebp]
  00c5b	e8 00 00 00 00	 call	 ?ModifyStyle@CWnd@@QAEHKKI@Z ; CWnd::ModifyStyle

; 299  : }

  00c60	83 c4 04	 add	 esp, 4
  00c63	3b ec		 cmp	 ebp, esp
  00c65	e8 00 00 00 00	 call	 __RTC_CheckEsp
  00c6a	8b e5		 mov	 esp, ebp
  00c6c	5d		 pop	 ebp
  00c6d	c3		 ret	 0
?PreSubclassWindow@CxSkinButton@@MAEXXZ ENDP		; CxSkinButton::PreSubclassWindow
; Function compile flags: /Odt /RTCsu
_this$ = -4						; size = 4
_pDC$ = 8						; size = 4
?OnEraseBkgnd@CxSkinButton@@QAEHPAVCDC@@@Z PROC NEAR	; CxSkinButton::OnEraseBkgnd
; _this$ = ecx

; 302  : {	return 1; }	// doesn't erase the button background

  00c70	55		 push	 ebp
  00c71	8b ec		 mov	 ebp, esp
  00c73	51		 push	 ecx
  00c74	c7 45 fc cc cc
	cc cc		 mov	 DWORD PTR [ebp-4], -858993460 ; ccccccccH
  00c7b	89 4d fc	 mov	 DWORD PTR _this$[ebp], ecx
  00c7e	b8 01 00 00 00	 mov	 eax, 1
  00c83	8b e5		 mov	 esp, ebp
  00c85	5d		 pop	 ebp
  00c86	c2 04 00	 ret	 4
?OnEraseBkgnd@CxSkinButton@@QAEHPAVCDC@@@Z ENDP		; CxSkinButton::OnEraseBkgnd
_TEXT	ENDS
PUBLIC	??8ATL@@YA_NABV?$CStringT@DV?$StrTraitMFC_DLL@DV?$ChTraitsCRT@D@ATL@@@@@0@PBD@Z ; ATL::operator==
PUBLIC	?DrawBitmap@CxSkinButton@@QAEXPAVCDC@@PAVCDibBitmap@@UtagRECT@@H@Z ; CxSkinButton::DrawBitmap
EXTRN	?DrawTextA@CDC@@QAEHABV?$CStringT@DV?$StrTraitMFC_DLL@DV?$ChTraitsCRT@D@ATL@@@@@ATL@@PAUtagRECT@@I@Z:NEAR ; CDC::DrawTextA
EXTRN	?DrawEdge@CDC@@QAEHPAUtagRECT@@II@Z:NEAR	; CDC::DrawEdge
EXTRN	?FillSolidRect@CDC@@QAEXPBUtagRECT@@K@Z:NEAR	; CDC::FillSolidRect
EXTRN	??0CFont@@QAE@XZ:NEAR				; CFont::CFont
EXTRN	?AfxAssertFailedLine@@YGHPBDH@Z:NEAR		; AfxAssertFailedLine
EXTRN	?CreateFontA@CFont@@QAEHHHHHHEEEEEEEEPBD@Z:NEAR	; CFont::CreateFontA
EXTRN	??1CFont@@UAE@XZ:NEAR				; CFont::~CFont
EXTRN	?GetWindowTextA@CWnd@@QBEXAAV?$CStringT@DV?$StrTraitMFC_DLL@DV?$ChTraitsCRT@D@ATL@@@@@ATL@@@Z:NEAR ; CWnd::GetWindowTextA
EXTRN	__imp__GetCursorPos@4:NEAR
EXTRN	?FromHandle@CDC@@SGPAV1@PAUHDC__@@@Z:NEAR	; CDC::FromHandle
EXTRN	__imp__WindowFromPoint@8:NEAR
EXTRN	__imp__DrawFocusRect@8:NEAR
EXTRN	__imp__OffsetRect@12:NEAR
EXTRN	?SetBkMode@CDC@@QAEHH@Z:NEAR			; CDC::SetBkMode
EXTRN	__imp__GetCapture@0:NEAR
EXTRN	?GetState@CButton@@QBEIXZ:NEAR			; CButton::GetState
EXTRN	?SetState@CButton@@QAEXH@Z:NEAR			; CButton::SetState
xdata$x	SEGMENT
$T188607 DD	0ffffffffH
	DD	FLAT:$L188595
	DD	00H
	DD	FLAT:$L188596
$T188598 DD	019930520H
	DD	02H
	DD	FLAT:$T188607
	DD	2 DUP(00H)
	DD	2 DUP(00H)
; Function compile flags: /Odt /RTCsu
xdata$x	ENDS
_TEXT	SEGMENT
$T188594 = -152						; size = 16
_colorText$ = -136					; size = 4
_tr$ = -128						; size = 16
_cy$ = -108						; size = 4
_cx$ = -104						; size = 4
_r$ = -96						; size = 16
_pOldFont$ = -76					; size = 4
_font$ = -68						; size = 8
_pDC$ = -56						; size = 4
_sCaption$ = -48					; size = 4
_mouse_position$ = -36					; size = 8
_i$187505 = -24						; size = 4
_i$187503 = -20						; size = 4
_this$ = -16						; size = 4
__$EHRec$ = -12						; size = 12
_lpDrawItemStruct$ = 8					; size = 4
?DrawItem@CxSkinButton@@UAEXPAUtagDRAWITEMSTRUCT@@@Z PROC NEAR ; CxSkinButton::DrawItem
; _this$ = ecx

; 305  : {

  00c90	55		 push	 ebp
  00c91	8b ec		 mov	 ebp, esp
  00c93	6a ff		 push	 -1
  00c95	68 00 00 00 00	 push	 __ehhandler$?DrawItem@CxSkinButton@@UAEXPAUtagDRAWITEMSTRUCT@@@Z
  00c9a	64 a1 00 00 00
	00		 mov	 eax, DWORD PTR fs:__except_list
  00ca0	50		 push	 eax
  00ca1	64 89 25 00 00
	00 00		 mov	 DWORD PTR fs:__except_list, esp
  00ca8	81 ec 8c 00 00
	00		 sub	 esp, 140		; 0000008cH
  00cae	56		 push	 esi
  00caf	57		 push	 edi
  00cb0	51		 push	 ecx
  00cb1	8d bd 68 ff ff
	ff		 lea	 edi, DWORD PTR [ebp-152]
  00cb7	b9 23 00 00 00	 mov	 ecx, 35			; 00000023H
  00cbc	b8 cc cc cc cc	 mov	 eax, -858993460		; ccccccccH
  00cc1	f3 ab		 rep stosd
  00cc3	59		 pop	 ecx
  00cc4	89 4d f0	 mov	 DWORD PTR _this$[ebp], ecx

; 306  : 	if( m_strToolTip == "MV" )

  00cc7	68 00 00 00 00	 push	 OFFSET FLAT:$SG187502
  00ccc	8b 45 f0	 mov	 eax, DWORD PTR _this$[ebp]
  00ccf	83 c0 58	 add	 eax, 88			; 00000058H
  00cd2	50		 push	 eax
  00cd3	e8 00 00 00 00	 call	 ??8ATL@@YA_NABV?$CStringT@DV?$StrTraitMFC_DLL@DV?$ChTraitsCRT@D@ATL@@@@@0@PBD@Z ; ATL::operator==
  00cd8	83 c4 08	 add	 esp, 8
  00cdb	0f b6 c8	 movzx	 ecx, al
  00cde	85 c9		 test	 ecx, ecx
  00ce0	74 07		 je	 SHORT $L187501

; 307  : 	{
; 308  : 		int i = 0;

  00ce2	c7 45 ec 00 00
	00 00		 mov	 DWORD PTR _i$187503[ebp], 0
$L187501:

; 309  : 	}
; 310  : 	if(m_bMask != NULL)

  00ce9	8b 55 f0	 mov	 edx, DWORD PTR _this$[ebp]
  00cec	83 ba f8 00 00
	00 00		 cmp	 DWORD PTR [edx+248], 0
  00cf3	74 07		 je	 SHORT $L187504

; 311  : 		int i = 0;

  00cf5	c7 45 e8 00 00
	00 00		 mov	 DWORD PTR _i$187505[ebp], 0
$L187504:

; 312  :     ASSERT (lpDrawItemStruct);

  00cfc	83 7d 08 00	 cmp	 DWORD PTR _lpDrawItemStruct$[ebp], 0
  00d00	75 14		 jne	 SHORT $L188593
  00d02	68 38 01 00 00	 push	 312			; 00000138H
  00d07	68 00 00 00 00	 push	 OFFSET FLAT:_THIS_FILE
  00d0c	e8 00 00 00 00	 call	 ?AfxAssertFailedLine@@YGHPBDH@Z ; AfxAssertFailedLine
  00d11	85 c0		 test	 eax, eax
  00d13	74 01		 je	 SHORT $L188593
  00d15	cc		 int	 3
$L188593:

; 313  :     //TRACE("* Captured: %08X\n", ::GetCapture());
; 314  : 
; 315  :     //Check if the button state in not in inconsistent mode...
; 316  :     POINT mouse_position;
; 317  :     if ((m_button_down) && (::GetCapture() == m_hWnd) && (::GetCursorPos(&mouse_position))){

  00d16	8b 4d f0	 mov	 ecx, DWORD PTR _this$[ebp]
  00d19	0f b6 51 79	 movzx	 edx, BYTE PTR [ecx+121]
  00d1d	85 d2		 test	 edx, edx
  00d1f	0f 84 87 00 00
	00		 je	 $L187508
  00d25	8b f4		 mov	 esi, esp
  00d27	ff 15 00 00 00
	00		 call	 DWORD PTR __imp__GetCapture@0
  00d2d	3b f4		 cmp	 esi, esp
  00d2f	e8 00 00 00 00	 call	 __RTC_CheckEsp
  00d34	8b 4d f0	 mov	 ecx, DWORD PTR _this$[ebp]
  00d37	3b 41 20	 cmp	 eax, DWORD PTR [ecx+32]
  00d3a	75 70		 jne	 SHORT $L187508
  00d3c	8b f4		 mov	 esi, esp
  00d3e	8d 55 dc	 lea	 edx, DWORD PTR _mouse_position$[ebp]
  00d41	52		 push	 edx
  00d42	ff 15 00 00 00
	00		 call	 DWORD PTR __imp__GetCursorPos@4
  00d48	3b f4		 cmp	 esi, esp
  00d4a	e8 00 00 00 00	 call	 __RTC_CheckEsp
  00d4f	85 c0		 test	 eax, eax
  00d51	74 59		 je	 SHORT $L187508

; 318  : 		if (::WindowFromPoint(mouse_position) == m_hWnd){

  00d53	8b f4		 mov	 esi, esp
  00d55	8b 45 e0	 mov	 eax, DWORD PTR _mouse_position$[ebp+4]
  00d58	50		 push	 eax
  00d59	8b 4d dc	 mov	 ecx, DWORD PTR _mouse_position$[ebp]
  00d5c	51		 push	 ecx
  00d5d	ff 15 00 00 00
	00		 call	 DWORD PTR __imp__WindowFromPoint@8
  00d63	3b f4		 cmp	 esi, esp
  00d65	e8 00 00 00 00	 call	 __RTC_CheckEsp
  00d6a	8b 55 f0	 mov	 edx, DWORD PTR _this$[ebp]
  00d6d	3b 42 20	 cmp	 eax, DWORD PTR [edx+32]
  00d70	75 1e		 jne	 SHORT $L187509

; 319  : 			if ((GetState() & BST_PUSHED) != BST_PUSHED) {

  00d72	8b 4d f0	 mov	 ecx, DWORD PTR _this$[ebp]
  00d75	e8 00 00 00 00	 call	 ?GetState@CButton@@QBEIXZ ; CButton::GetState
  00d7a	83 e0 04	 and	 eax, 4
  00d7d	75 0f		 jne	 SHORT $L187510

; 320  : 				//TRACE("* Inconsistency up detected! Fixing.\n");
; 321  : 				SetState(TRUE);

  00d7f	6a 01		 push	 1
  00d81	8b 4d f0	 mov	 ecx, DWORD PTR _this$[ebp]
  00d84	e8 00 00 00 00	 call	 ?SetState@CButton@@QAEXH@Z ; CButton::SetState

; 322  : 				return;

  00d89	e9 85 05 00 00	 jmp	 $L187500
$L187510:

; 323  : 			}
; 324  : 		} else {

  00d8e	eb 1c		 jmp	 SHORT $L187508
$L187509:

; 325  : 			if ((GetState() & BST_PUSHED) == BST_PUSHED) {

  00d90	8b 4d f0	 mov	 ecx, DWORD PTR _this$[ebp]
  00d93	e8 00 00 00 00	 call	 ?GetState@CButton@@QBEIXZ ; CButton::GetState
  00d98	83 e0 04	 and	 eax, 4
  00d9b	74 0f		 je	 SHORT $L187508

; 326  : 				//TRACE("* Inconsistency up detected! Fixing.\n");
; 327  : 				SetState(FALSE);

  00d9d	6a 00		 push	 0
  00d9f	8b 4d f0	 mov	 ecx, DWORD PTR _this$[ebp]
  00da2	e8 00 00 00 00	 call	 ?SetState@CButton@@QAEXH@Z ; CButton::SetState

; 328  : 				return;

  00da7	e9 67 05 00 00	 jmp	 $L187500
$L187508:

; 329  : 			}
; 330  : 		}
; 331  : 	}
; 332  : 	
; 333  :     //TRACE("* Drawing: %08x\n", lpDrawItemStruct->itemState);
; 334  : 	CString sCaption;

  00dac	8b f4		 mov	 esi, esp
  00dae	8d 4d d0	 lea	 ecx, DWORD PTR _sCaption$[ebp]
  00db1	ff 15 00 00 00
	00		 call	 DWORD PTR __imp_??0?$CStringT@DV?$StrTraitMFC_DLL@DV?$ChTraitsCRT@D@ATL@@@@@ATL@@QAE@XZ
  00db7	3b f4		 cmp	 esi, esp
  00db9	e8 00 00 00 00	 call	 __RTC_CheckEsp
  00dbe	c7 45 fc 00 00
	00 00		 mov	 DWORD PTR __$EHRec$[ebp+8], 0

; 335  : 	CDC *pDC = CDC::FromHandle(lpDrawItemStruct->hDC);	// get device context

  00dc5	8b 45 08	 mov	 eax, DWORD PTR _lpDrawItemStruct$[ebp]
  00dc8	8b 48 18	 mov	 ecx, DWORD PTR [eax+24]
  00dcb	51		 push	 ecx
  00dcc	e8 00 00 00 00	 call	 ?FromHandle@CDC@@SGPAV1@PAUHDC__@@@Z ; CDC::FromHandle
  00dd1	89 45 c8	 mov	 DWORD PTR _pDC$[ebp], eax

; 336  : 	CFont font;

  00dd4	8d 4d bc	 lea	 ecx, DWORD PTR _font$[ebp]
  00dd7	e8 00 00 00 00	 call	 ??0CFont@@QAE@XZ	; CFont::CFont
  00ddc	c6 45 fc 01	 mov	 BYTE PTR __$EHRec$[ebp+8], 1

; 337  : 	font.CreateFont(
; 338  : 			12,                        // nHeight
; 339  : 			0,                         // nWidth
; 340  : 			0,                         // nEscapement
; 341  : 			0,                         // nOrientation
; 342  : 			FW_NORMAL,                 // nWeight
; 343  : 			FALSE,                     // bItalic
; 344  : 			FALSE,                     // bUnderline
; 345  : 			0,                         // cStrikeOut
; 346  : 			ANSI_CHARSET,              // nCharSet
; 347  : 			OUT_DEFAULT_PRECIS,        // nOutPrecision
; 348  : 			CLIP_DEFAULT_PRECIS,       // nClipPrecision
; 349  : 			DEFAULT_QUALITY,           // nQuality
; 350  : 			DEFAULT_PITCH | FF_SWISS,  // nPitchAndFamily
; 351  : 			"");                 // lpszFacename

  00de0	68 00 00 00 00	 push	 OFFSET FLAT:$SG187516
  00de5	6a 20		 push	 32			; 00000020H
  00de7	6a 00		 push	 0
  00de9	6a 00		 push	 0
  00deb	6a 00		 push	 0
  00ded	6a 00		 push	 0
  00def	6a 00		 push	 0
  00df1	6a 00		 push	 0
  00df3	6a 00		 push	 0
  00df5	68 90 01 00 00	 push	 400			; 00000190H
  00dfa	6a 00		 push	 0
  00dfc	6a 00		 push	 0
  00dfe	6a 00		 push	 0
  00e00	6a 0c		 push	 12			; 0000000cH
  00e02	8d 4d bc	 lea	 ecx, DWORD PTR _font$[ebp]
  00e05	e8 00 00 00 00	 call	 ?CreateFontA@CFont@@QAEHHHHHHEEEEEEEEPBD@Z ; CFont::CreateFontA

; 352  : 	CFont *pOldFont = pDC->SelectObject(&font);

  00e0a	8b f4		 mov	 esi, esp
  00e0c	8d 55 bc	 lea	 edx, DWORD PTR _font$[ebp]
  00e0f	52		 push	 edx
  00e10	8b 45 c8	 mov	 eax, DWORD PTR _pDC$[ebp]
  00e13	8b 10		 mov	 edx, DWORD PTR [eax]
  00e15	8b 4d c8	 mov	 ecx, DWORD PTR _pDC$[ebp]
  00e18	ff 52 30	 call	 DWORD PTR [edx+48]
  00e1b	3b f4		 cmp	 esi, esp
  00e1d	e8 00 00 00 00	 call	 __RTC_CheckEsp
  00e22	89 45 b4	 mov	 DWORD PTR _pOldFont$[ebp], eax

; 353  : 
; 354  : 	RECT r=lpDrawItemStruct->rcItem;					// context rectangle

  00e25	8b 45 08	 mov	 eax, DWORD PTR _lpDrawItemStruct$[ebp]
  00e28	83 c0 1c	 add	 eax, 28			; 0000001cH
  00e2b	8b 08		 mov	 ecx, DWORD PTR [eax]
  00e2d	89 4d a0	 mov	 DWORD PTR _r$[ebp], ecx
  00e30	8b 50 04	 mov	 edx, DWORD PTR [eax+4]
  00e33	89 55 a4	 mov	 DWORD PTR _r$[ebp+4], edx
  00e36	8b 48 08	 mov	 ecx, DWORD PTR [eax+8]
  00e39	89 4d a8	 mov	 DWORD PTR _r$[ebp+8], ecx
  00e3c	8b 50 0c	 mov	 edx, DWORD PTR [eax+12]
  00e3f	89 55 ac	 mov	 DWORD PTR _r$[ebp+12], edx

; 355  : 	int cx = r.right  - r.left ;						// get width

  00e42	8b 45 a8	 mov	 eax, DWORD PTR _r$[ebp+8]
  00e45	2b 45 a0	 sub	 eax, DWORD PTR _r$[ebp]
  00e48	89 45 98	 mov	 DWORD PTR _cx$[ebp], eax

; 356  : 	int cy = r.bottom - r.top  ;						// get height

  00e4b	8b 4d ac	 mov	 ecx, DWORD PTR _r$[ebp+12]
  00e4e	2b 4d a4	 sub	 ecx, DWORD PTR _r$[ebp+4]
  00e51	89 4d 94	 mov	 DWORD PTR _cy$[ebp], ecx

; 357  : 	// get text box position
; 358  : 	RECT tr={r.left+m_FocusRectMargin+2,r.top,r.right-m_FocusRectMargin-2,r.bottom};

  00e54	8b 55 f0	 mov	 edx, DWORD PTR _this$[ebp]
  00e57	0f bf 82 04 01
	00 00		 movsx	 eax, WORD PTR [edx+260]
  00e5e	8b 4d a0	 mov	 ecx, DWORD PTR _r$[ebp]
  00e61	8d 54 01 02	 lea	 edx, DWORD PTR [ecx+eax+2]
  00e65	89 55 80	 mov	 DWORD PTR _tr$[ebp], edx
  00e68	8b 45 a4	 mov	 eax, DWORD PTR _r$[ebp+4]
  00e6b	89 45 84	 mov	 DWORD PTR _tr$[ebp+4], eax
  00e6e	8b 4d f0	 mov	 ecx, DWORD PTR _this$[ebp]
  00e71	0f bf 91 04 01
	00 00		 movsx	 edx, WORD PTR [ecx+260]
  00e78	8b 45 a8	 mov	 eax, DWORD PTR _r$[ebp+8]
  00e7b	2b c2		 sub	 eax, edx
  00e7d	83 e8 02	 sub	 eax, 2
  00e80	89 45 88	 mov	 DWORD PTR _tr$[ebp+8], eax
  00e83	8b 4d ac	 mov	 ecx, DWORD PTR _r$[ebp+12]
  00e86	89 4d 8c	 mov	 DWORD PTR _tr$[ebp+12], ecx

; 359  : 
; 360  : 	if(m_nTextOffsetX != 0 || m_nTextOffsetY != 0)

  00e89	8b 55 f0	 mov	 edx, DWORD PTR _this$[ebp]
  00e8c	83 7a 68 00	 cmp	 DWORD PTR [edx+104], 0
  00e90	75 09		 jne	 SHORT $L187523
  00e92	8b 45 f0	 mov	 eax, DWORD PTR _this$[ebp]
  00e95	83 78 6c 00	 cmp	 DWORD PTR [eax+108], 0
  00e99	74 3e		 je	 SHORT $L187522
$L187523:

; 361  : 		tr = CRect(r.left + m_nTextOffsetX, r.top + m_nTextOffsetY, r.right, r.bottom);

  00e9b	8b 4d ac	 mov	 ecx, DWORD PTR _r$[ebp+12]
  00e9e	51		 push	 ecx
  00e9f	8b 55 a8	 mov	 edx, DWORD PTR _r$[ebp+8]
  00ea2	52		 push	 edx
  00ea3	8b 45 f0	 mov	 eax, DWORD PTR _this$[ebp]
  00ea6	8b 4d a4	 mov	 ecx, DWORD PTR _r$[ebp+4]
  00ea9	03 48 6c	 add	 ecx, DWORD PTR [eax+108]
  00eac	51		 push	 ecx
  00ead	8b 55 f0	 mov	 edx, DWORD PTR _this$[ebp]
  00eb0	8b 45 a0	 mov	 eax, DWORD PTR _r$[ebp]
  00eb3	03 42 68	 add	 eax, DWORD PTR [edx+104]
  00eb6	50		 push	 eax
  00eb7	8d 8d 68 ff ff
	ff		 lea	 ecx, DWORD PTR $T188594[ebp]
  00ebd	e8 00 00 00 00	 call	 ??0CRect@@QAE@HHHH@Z	; CRect::CRect
  00ec2	8b 08		 mov	 ecx, DWORD PTR [eax]
  00ec4	89 4d 80	 mov	 DWORD PTR _tr$[ebp], ecx
  00ec7	8b 50 04	 mov	 edx, DWORD PTR [eax+4]
  00eca	89 55 84	 mov	 DWORD PTR _tr$[ebp+4], edx
  00ecd	8b 48 08	 mov	 ecx, DWORD PTR [eax+8]
  00ed0	89 4d 88	 mov	 DWORD PTR _tr$[ebp+8], ecx
  00ed3	8b 50 0c	 mov	 edx, DWORD PTR [eax+12]
  00ed6	89 55 8c	 mov	 DWORD PTR _tr$[ebp+12], edx
$L187522:

; 362  : 
; 363  : 	GetWindowText(sCaption);							// get button text

  00ed9	8d 45 d0	 lea	 eax, DWORD PTR _sCaption$[ebp]
  00edc	50		 push	 eax
  00edd	8b 4d f0	 mov	 ecx, DWORD PTR _this$[ebp]
  00ee0	e8 00 00 00 00	 call	 ?GetWindowTextA@CWnd@@QBEXAAV?$CStringT@DV?$StrTraitMFC_DLL@DV?$ChTraitsCRT@D@ATL@@@@@ATL@@@Z ; CWnd::GetWindowTextA

; 364  : 	pDC->SetBkMode(TRANSPARENT);

  00ee5	6a 01		 push	 1
  00ee7	8b 4d c8	 mov	 ecx, DWORD PTR _pDC$[ebp]
  00eea	e8 00 00 00 00	 call	 ?SetBkMode@CDC@@QAEHH@Z	; CDC::SetBkMode

; 365  : 
; 366  : 	COLORREF colorText = m_normalTextColor;

  00eef	8b 4d f0	 mov	 ecx, DWORD PTR _this$[ebp]
  00ef2	8b 91 08 01 00
	00		 mov	 edx, DWORD PTR [ecx+264]
  00ef8	89 95 78 ff ff
	ff		 mov	 DWORD PTR _colorText$[ebp], edx

; 367  : 	// Select the correct skin 
; 368  : 	if (lpDrawItemStruct->itemState & ODS_DISABLED)

  00efe	8b 45 08	 mov	 eax, DWORD PTR _lpDrawItemStruct$[ebp]
  00f01	8b 48 10	 mov	 ecx, DWORD PTR [eax+16]
  00f04	83 e1 04	 and	 ecx, 4
  00f07	0f 84 e0 00 00
	00		 je	 $L187526

; 369  : 	{	// DISABLED BUTTON
; 370  : 		if(m_bDisabled==NULL)

  00f0d	8b 55 f0	 mov	 edx, DWORD PTR _this$[ebp]
  00f10	83 ba f4 00 00
	00 00		 cmp	 DWORD PTR [edx+244], 0
  00f17	75 20		 jne	 SHORT $L187527

; 371  : 			 // no skin selected for disabled state -> standard button
; 372  : 			pDC->FillSolidRect(&r,GetSysColor(COLOR_BTNFACE));

  00f19	8b f4		 mov	 esi, esp
  00f1b	6a 0f		 push	 15			; 0000000fH
  00f1d	ff 15 00 00 00
	00		 call	 DWORD PTR __imp__GetSysColor@4
  00f23	3b f4		 cmp	 esi, esp
  00f25	e8 00 00 00 00	 call	 __RTC_CheckEsp
  00f2a	50		 push	 eax
  00f2b	8d 45 a0	 lea	 eax, DWORD PTR _r$[ebp]
  00f2e	50		 push	 eax
  00f2f	8b 4d c8	 mov	 ecx, DWORD PTR _pDC$[ebp]
  00f32	e8 00 00 00 00	 call	 ?FillSolidRect@CDC@@QAEXPBUtagRECT@@K@Z ; CDC::FillSolidRect

; 373  : 		else // paint the skin

  00f37	eb 3d		 jmp	 SHORT $L187528
$L187527:

; 374  : 			DrawBitmap(pDC,m_bDisabled,r,m_DrawMode);

  00f39	8b 4d f0	 mov	 ecx, DWORD PTR _this$[ebp]
  00f3c	0f bf 91 20 01
	00 00		 movsx	 edx, WORD PTR [ecx+288]
  00f43	52		 push	 edx
  00f44	83 ec 10	 sub	 esp, 16			; 00000010H
  00f47	8b c4		 mov	 eax, esp
  00f49	8b 4d a0	 mov	 ecx, DWORD PTR _r$[ebp]
  00f4c	89 08		 mov	 DWORD PTR [eax], ecx
  00f4e	8b 55 a4	 mov	 edx, DWORD PTR _r$[ebp+4]
  00f51	89 50 04	 mov	 DWORD PTR [eax+4], edx
  00f54	8b 4d a8	 mov	 ecx, DWORD PTR _r$[ebp+8]
  00f57	89 48 08	 mov	 DWORD PTR [eax+8], ecx
  00f5a	8b 55 ac	 mov	 edx, DWORD PTR _r$[ebp+12]
  00f5d	89 50 0c	 mov	 DWORD PTR [eax+12], edx
  00f60	8b 45 f0	 mov	 eax, DWORD PTR _this$[ebp]
  00f63	8b 88 f4 00 00
	00		 mov	 ecx, DWORD PTR [eax+244]
  00f69	51		 push	 ecx
  00f6a	8b 55 c8	 mov	 edx, DWORD PTR _pDC$[ebp]
  00f6d	52		 push	 edx
  00f6e	8b 4d f0	 mov	 ecx, DWORD PTR _this$[ebp]
  00f71	e8 00 00 00 00	 call	 ?DrawBitmap@CxSkinButton@@QAEXPAVCDC@@PAVCDibBitmap@@UtagRECT@@H@Z ; CxSkinButton::DrawBitmap
$L187528:

; 375  : 		// if needed, draw the standard 3D rectangular border
; 376  : 		if (m_Border) pDC->DrawEdge(&r,EDGE_RAISED,BF_RECT);

  00f76	8b 45 f0	 mov	 eax, DWORD PTR _this$[ebp]
  00f79	83 b8 1c 01 00
	00 00		 cmp	 DWORD PTR [eax+284], 0
  00f80	74 10		 je	 SHORT $L187529
  00f82	6a 0f		 push	 15			; 0000000fH
  00f84	6a 05		 push	 5
  00f86	8d 4d a0	 lea	 ecx, DWORD PTR _r$[ebp]
  00f89	51		 push	 ecx
  00f8a	8b 4d c8	 mov	 ecx, DWORD PTR _pDC$[ebp]
  00f8d	e8 00 00 00 00	 call	 ?DrawEdge@CDC@@QAEHPAUtagRECT@@II@Z ; CDC::DrawEdge
$L187529:

; 377  : 		// paint the etched button text
; 378  : //		pDC->SetTextColor(GetSysColor(COLOR_3DHILIGHT));
; 379  : //		pDC->DrawText(sCaption,&tr,DT_SINGLELINE|DT_VCENTER|DT_CENTER);
; 380  : 		pDC->SetTextColor( m_disableTextColor );

  00f92	8b f4		 mov	 esi, esp
  00f94	8b 55 f0	 mov	 edx, DWORD PTR _this$[ebp]
  00f97	8b 82 14 01 00
	00		 mov	 eax, DWORD PTR [edx+276]
  00f9d	50		 push	 eax
  00f9e	8b 4d c8	 mov	 ecx, DWORD PTR _pDC$[ebp]
  00fa1	8b 11		 mov	 edx, DWORD PTR [ecx]
  00fa3	8b 4d c8	 mov	 ecx, DWORD PTR _pDC$[ebp]
  00fa6	ff 52 38	 call	 DWORD PTR [edx+56]
  00fa9	3b f4		 cmp	 esi, esp
  00fab	e8 00 00 00 00	 call	 __RTC_CheckEsp

; 381  : 		//OffsetRect(&tr,-1,-1);
; 382  : 		
; 383  : 		if(m_nTextOffsetX != 0 || m_nTextOffsetY != 0)

  00fb0	8b 45 f0	 mov	 eax, DWORD PTR _this$[ebp]
  00fb3	83 78 68 00	 cmp	 DWORD PTR [eax+104], 0
  00fb7	75 09		 jne	 SHORT $L187531
  00fb9	8b 4d f0	 mov	 ecx, DWORD PTR _this$[ebp]
  00fbc	83 79 6c 00	 cmp	 DWORD PTR [ecx+108], 0
  00fc0	74 14		 je	 SHORT $L187530
$L187531:

; 384  : 			pDC->DrawText(sCaption,&tr,DT_SINGLELINE|DT_TOP|DT_LEFT);

  00fc2	6a 20		 push	 32			; 00000020H
  00fc4	8d 55 80	 lea	 edx, DWORD PTR _tr$[ebp]
  00fc7	52		 push	 edx
  00fc8	8d 45 d0	 lea	 eax, DWORD PTR _sCaption$[ebp]
  00fcb	50		 push	 eax
  00fcc	8b 4d c8	 mov	 ecx, DWORD PTR _pDC$[ebp]
  00fcf	e8 00 00 00 00	 call	 ?DrawTextA@CDC@@QAEHABV?$CStringT@DV?$StrTraitMFC_DLL@DV?$ChTraitsCRT@D@ATL@@@@@ATL@@PAUtagRECT@@I@Z ; CDC::DrawTextA

; 385  : 		else

  00fd4	eb 12		 jmp	 SHORT $L187532
$L187530:

; 386  : 			pDC->DrawText(sCaption,&tr,DT_SINGLELINE|DT_VCENTER|DT_CENTER);

  00fd6	6a 25		 push	 37			; 00000025H
  00fd8	8d 4d 80	 lea	 ecx, DWORD PTR _tr$[ebp]
  00fdb	51		 push	 ecx
  00fdc	8d 55 d0	 lea	 edx, DWORD PTR _sCaption$[ebp]
  00fdf	52		 push	 edx
  00fe0	8b 4d c8	 mov	 ecx, DWORD PTR _pDC$[ebp]
  00fe3	e8 00 00 00 00	 call	 ?DrawTextA@CDC@@QAEHABV?$CStringT@DV?$StrTraitMFC_DLL@DV?$ChTraitsCRT@D@ATL@@@@@ATL@@PAUtagRECT@@I@Z ; CDC::DrawTextA
$L187532:

; 387  : 
; 388  : 	}
; 389  : 	else

  00fe8	e9 e9 02 00 00	 jmp	 $L187533
$L187526:

; 390  : 	{										// SELECTED (DOWN) BUTTON
; 391  : 		if ((lpDrawItemStruct->itemState & ODS_SELECTED)||m_Checked)

  00fed	8b 45 08	 mov	 eax, DWORD PTR _lpDrawItemStruct$[ebp]
  00ff0	8b 48 10	 mov	 ecx, DWORD PTR [eax+16]
  00ff3	83 e1 01	 and	 ecx, 1
  00ff6	75 0f		 jne	 SHORT $L187535
  00ff8	8b 55 f0	 mov	 edx, DWORD PTR _this$[ebp]
  00ffb	0f b6 42 71	 movzx	 eax, BYTE PTR [edx+113]
  00fff	85 c0		 test	 eax, eax
  01001	0f 84 b0 00 00
	00		 je	 $L187534
$L187535:

; 392  : 		{
; 393  : 			if(m_bDown==NULL)

  01007	8b 4d f0	 mov	 ecx, DWORD PTR _this$[ebp]
  0100a	83 b9 f0 00 00
	00 00		 cmp	 DWORD PTR [ecx+240], 0
  01011	75 20		 jne	 SHORT $L187536

; 394  : 				 // no skin selected for selected state -> standard button
; 395  : 				pDC->FillSolidRect(&r,GetSysColor(COLOR_BTNFACE));

  01013	8b f4		 mov	 esi, esp
  01015	6a 0f		 push	 15			; 0000000fH
  01017	ff 15 00 00 00
	00		 call	 DWORD PTR __imp__GetSysColor@4
  0101d	3b f4		 cmp	 esi, esp
  0101f	e8 00 00 00 00	 call	 __RTC_CheckEsp
  01024	50		 push	 eax
  01025	8d 55 a0	 lea	 edx, DWORD PTR _r$[ebp]
  01028	52		 push	 edx
  01029	8b 4d c8	 mov	 ecx, DWORD PTR _pDC$[ebp]
  0102c	e8 00 00 00 00	 call	 ?FillSolidRect@CDC@@QAEXPBUtagRECT@@K@Z ; CDC::FillSolidRect

; 396  :             else 

  01031	eb 3d		 jmp	 SHORT $L187537
$L187536:

; 397  : 			{ // paint the skin
; 398  : 				DrawBitmap(pDC,m_bDown,r,m_DrawMode);

  01033	8b 45 f0	 mov	 eax, DWORD PTR _this$[ebp]
  01036	0f bf 88 20 01
	00 00		 movsx	 ecx, WORD PTR [eax+288]
  0103d	51		 push	 ecx
  0103e	83 ec 10	 sub	 esp, 16			; 00000010H
  01041	8b d4		 mov	 edx, esp
  01043	8b 45 a0	 mov	 eax, DWORD PTR _r$[ebp]
  01046	89 02		 mov	 DWORD PTR [edx], eax
  01048	8b 4d a4	 mov	 ecx, DWORD PTR _r$[ebp+4]
  0104b	89 4a 04	 mov	 DWORD PTR [edx+4], ecx
  0104e	8b 45 a8	 mov	 eax, DWORD PTR _r$[ebp+8]
  01051	89 42 08	 mov	 DWORD PTR [edx+8], eax
  01054	8b 4d ac	 mov	 ecx, DWORD PTR _r$[ebp+12]
  01057	89 4a 0c	 mov	 DWORD PTR [edx+12], ecx
  0105a	8b 55 f0	 mov	 edx, DWORD PTR _this$[ebp]
  0105d	8b 82 f0 00 00
	00		 mov	 eax, DWORD PTR [edx+240]
  01063	50		 push	 eax
  01064	8b 4d c8	 mov	 ecx, DWORD PTR _pDC$[ebp]
  01067	51		 push	 ecx
  01068	8b 4d f0	 mov	 ecx, DWORD PTR _this$[ebp]
  0106b	e8 00 00 00 00	 call	 ?DrawBitmap@CxSkinButton@@QAEXPAVCDC@@PAVCDibBitmap@@UtagRECT@@H@Z ; CxSkinButton::DrawBitmap
$L187537:

; 399  :             }
; 400  : 			OffsetRect(&tr,1,1);  //shift text

  01070	8b f4		 mov	 esi, esp
  01072	6a 01		 push	 1
  01074	6a 01		 push	 1
  01076	8d 55 80	 lea	 edx, DWORD PTR _tr$[ebp]
  01079	52		 push	 edx
  0107a	ff 15 00 00 00
	00		 call	 DWORD PTR __imp__OffsetRect@12
  01080	3b f4		 cmp	 esi, esp
  01082	e8 00 00 00 00	 call	 __RTC_CheckEsp

; 401  : 			// if needed, draw the standard 3D rectangular border
; 402  : 			if (m_Border) pDC->DrawEdge(&r,EDGE_SUNKEN,BF_RECT);

  01087	8b 45 f0	 mov	 eax, DWORD PTR _this$[ebp]
  0108a	83 b8 1c 01 00
	00 00		 cmp	 DWORD PTR [eax+284], 0
  01091	74 10		 je	 SHORT $L187538
  01093	6a 0f		 push	 15			; 0000000fH
  01095	6a 0a		 push	 10			; 0000000aH
  01097	8d 4d a0	 lea	 ecx, DWORD PTR _r$[ebp]
  0109a	51		 push	 ecx
  0109b	8b 4d c8	 mov	 ecx, DWORD PTR _pDC$[ebp]
  0109e	e8 00 00 00 00	 call	 ?DrawEdge@CDC@@QAEHPAUtagRECT@@II@Z ; CDC::DrawEdge
$L187538:

; 403  : 			colorText = m_downTextColor;

  010a3	8b 55 f0	 mov	 edx, DWORD PTR _this$[ebp]
  010a6	8b 82 0c 01 00
	00		 mov	 eax, DWORD PTR [edx+268]
  010ac	89 85 78 ff ff
	ff		 mov	 DWORD PTR _colorText$[ebp], eax

; 404  : 		} 
; 405  : 		else

  010b2	e9 55 01 00 00	 jmp	 $L187539
$L187534:

; 406  : 		{											// DEFAULT BUTTON
; 407  : 			if(m_bNormal==NULL)

  010b7	8b 4d f0	 mov	 ecx, DWORD PTR _this$[ebp]
  010ba	83 b9 ec 00 00
	00 00		 cmp	 DWORD PTR [ecx+236], 0
  010c1	75 23		 jne	 SHORT $L187540

; 408  : 				 // no skin selected for normal state -> standard button
; 409  : 				pDC->FillSolidRect(&r,GetSysColor(COLOR_BTNFACE));

  010c3	8b f4		 mov	 esi, esp
  010c5	6a 0f		 push	 15			; 0000000fH
  010c7	ff 15 00 00 00
	00		 call	 DWORD PTR __imp__GetSysColor@4
  010cd	3b f4		 cmp	 esi, esp
  010cf	e8 00 00 00 00	 call	 __RTC_CheckEsp
  010d4	50		 push	 eax
  010d5	8d 55 a0	 lea	 edx, DWORD PTR _r$[ebp]
  010d8	52		 push	 edx
  010d9	8b 4d c8	 mov	 ecx, DWORD PTR _pDC$[ebp]
  010dc	e8 00 00 00 00	 call	 ?FillSolidRect@CDC@@QAEXPBUtagRECT@@K@Z ; CDC::FillSolidRect

; 410  : 			else // paint the skin

  010e1	e9 0a 01 00 00	 jmp	 $L187541
$L187540:

; 411  :                 if ((m_tracking)&&(m_bOver!=NULL))

  010e6	8b 45 f0	 mov	 eax, DWORD PTR _this$[ebp]
  010e9	0f b6 48 78	 movzx	 ecx, BYTE PTR [eax+120]
  010ed	85 c9		 test	 ecx, ecx
  010ef	74 5d		 je	 SHORT $L187542
  010f1	8b 55 f0	 mov	 edx, DWORD PTR _this$[ebp]
  010f4	83 ba fc 00 00
	00 00		 cmp	 DWORD PTR [edx+252], 0
  010fb	74 51		 je	 SHORT $L187542

; 412  : 				{
; 413  : 					DrawBitmap(pDC,m_bOver,r,m_DrawMode);

  010fd	8b 45 f0	 mov	 eax, DWORD PTR _this$[ebp]
  01100	0f bf 88 20 01
	00 00		 movsx	 ecx, WORD PTR [eax+288]
  01107	51		 push	 ecx
  01108	83 ec 10	 sub	 esp, 16			; 00000010H
  0110b	8b d4		 mov	 edx, esp
  0110d	8b 45 a0	 mov	 eax, DWORD PTR _r$[ebp]
  01110	89 02		 mov	 DWORD PTR [edx], eax
  01112	8b 4d a4	 mov	 ecx, DWORD PTR _r$[ebp+4]
  01115	89 4a 04	 mov	 DWORD PTR [edx+4], ecx
  01118	8b 45 a8	 mov	 eax, DWORD PTR _r$[ebp+8]
  0111b	89 42 08	 mov	 DWORD PTR [edx+8], eax
  0111e	8b 4d ac	 mov	 ecx, DWORD PTR _r$[ebp+12]
  01121	89 4a 0c	 mov	 DWORD PTR [edx+12], ecx
  01124	8b 55 f0	 mov	 edx, DWORD PTR _this$[ebp]
  01127	8b 82 fc 00 00
	00		 mov	 eax, DWORD PTR [edx+252]
  0112d	50		 push	 eax
  0112e	8b 4d c8	 mov	 ecx, DWORD PTR _pDC$[ebp]
  01131	51		 push	 ecx
  01132	8b 4d f0	 mov	 ecx, DWORD PTR _this$[ebp]
  01135	e8 00 00 00 00	 call	 ?DrawBitmap@CxSkinButton@@QAEXPAVCDC@@PAVCDibBitmap@@UtagRECT@@H@Z ; CxSkinButton::DrawBitmap

; 414  : 					colorText = m_OverTextColor;

  0113a	8b 55 f0	 mov	 edx, DWORD PTR _this$[ebp]
  0113d	8b 82 10 01 00
	00		 mov	 eax, DWORD PTR [edx+272]
  01143	89 85 78 ff ff
	ff		 mov	 DWORD PTR _colorText$[ebp], eax

; 415  : 				} 
; 416  : 				else

  01149	e9 a2 00 00 00	 jmp	 $L187541
$L187542:

; 417  : 				{
; 418  : 					if ((lpDrawItemStruct->itemState & ODS_FOCUS)&&(m_bFocus!=NULL)){

  0114e	8b 4d 08	 mov	 ecx, DWORD PTR _lpDrawItemStruct$[ebp]
  01151	8b 51 10	 mov	 edx, DWORD PTR [ecx+16]
  01154	83 e2 10	 and	 edx, 16			; 00000010H
  01157	74 4b		 je	 SHORT $L187544
  01159	8b 45 f0	 mov	 eax, DWORD PTR _this$[ebp]
  0115c	83 b8 00 01 00
	00 00		 cmp	 DWORD PTR [eax+256], 0
  01163	74 3f		 je	 SHORT $L187544

; 419  : 						DrawBitmap(pDC,m_bFocus,r,m_DrawMode);

  01165	8b 4d f0	 mov	 ecx, DWORD PTR _this$[ebp]
  01168	0f bf 91 20 01
	00 00		 movsx	 edx, WORD PTR [ecx+288]
  0116f	52		 push	 edx
  01170	83 ec 10	 sub	 esp, 16			; 00000010H
  01173	8b c4		 mov	 eax, esp
  01175	8b 4d a0	 mov	 ecx, DWORD PTR _r$[ebp]
  01178	89 08		 mov	 DWORD PTR [eax], ecx
  0117a	8b 55 a4	 mov	 edx, DWORD PTR _r$[ebp+4]
  0117d	89 50 04	 mov	 DWORD PTR [eax+4], edx
  01180	8b 4d a8	 mov	 ecx, DWORD PTR _r$[ebp+8]
  01183	89 48 08	 mov	 DWORD PTR [eax+8], ecx
  01186	8b 55 ac	 mov	 edx, DWORD PTR _r$[ebp+12]
  01189	89 50 0c	 mov	 DWORD PTR [eax+12], edx
  0118c	8b 45 f0	 mov	 eax, DWORD PTR _this$[ebp]
  0118f	8b 88 00 01 00
	00		 mov	 ecx, DWORD PTR [eax+256]
  01195	51		 push	 ecx
  01196	8b 55 c8	 mov	 edx, DWORD PTR _pDC$[ebp]
  01199	52		 push	 edx
  0119a	8b 4d f0	 mov	 ecx, DWORD PTR _this$[ebp]
  0119d	e8 00 00 00 00	 call	 ?DrawBitmap@CxSkinButton@@QAEXPAVCDC@@PAVCDibBitmap@@UtagRECT@@H@Z ; CxSkinButton::DrawBitmap

; 420  : 					} 
; 421  : 					else 

  011a2	eb 3d		 jmp	 SHORT $L187545
$L187544:

; 422  : 					{
; 423  : 						DrawBitmap(pDC,m_bNormal,r,m_DrawMode);

  011a4	8b 45 f0	 mov	 eax, DWORD PTR _this$[ebp]
  011a7	0f bf 88 20 01
	00 00		 movsx	 ecx, WORD PTR [eax+288]
  011ae	51		 push	 ecx
  011af	83 ec 10	 sub	 esp, 16			; 00000010H
  011b2	8b d4		 mov	 edx, esp
  011b4	8b 45 a0	 mov	 eax, DWORD PTR _r$[ebp]
  011b7	89 02		 mov	 DWORD PTR [edx], eax
  011b9	8b 4d a4	 mov	 ecx, DWORD PTR _r$[ebp+4]
  011bc	89 4a 04	 mov	 DWORD PTR [edx+4], ecx
  011bf	8b 45 a8	 mov	 eax, DWORD PTR _r$[ebp+8]
  011c2	89 42 08	 mov	 DWORD PTR [edx+8], eax
  011c5	8b 4d ac	 mov	 ecx, DWORD PTR _r$[ebp+12]
  011c8	89 4a 0c	 mov	 DWORD PTR [edx+12], ecx
  011cb	8b 55 f0	 mov	 edx, DWORD PTR _this$[ebp]
  011ce	8b 82 ec 00 00
	00		 mov	 eax, DWORD PTR [edx+236]
  011d4	50		 push	 eax
  011d5	8b 4d c8	 mov	 ecx, DWORD PTR _pDC$[ebp]
  011d8	51		 push	 ecx
  011d9	8b 4d f0	 mov	 ecx, DWORD PTR _this$[ebp]
  011dc	e8 00 00 00 00	 call	 ?DrawBitmap@CxSkinButton@@QAEXPAVCDC@@PAVCDibBitmap@@UtagRECT@@H@Z ; CxSkinButton::DrawBitmap
$L187545:

; 424  : 					}
; 425  : 					colorText = m_normalTextColor;

  011e1	8b 55 f0	 mov	 edx, DWORD PTR _this$[ebp]
  011e4	8b 82 08 01 00
	00		 mov	 eax, DWORD PTR [edx+264]
  011ea	89 85 78 ff ff
	ff		 mov	 DWORD PTR _colorText$[ebp], eax
$L187541:

; 426  : 				}
; 427  : 			// if needed, draw the standard 3D rectangular border
; 428  : 			if (m_Border) pDC->DrawEdge(&r,EDGE_RAISED,BF_RECT);

  011f0	8b 4d f0	 mov	 ecx, DWORD PTR _this$[ebp]
  011f3	83 b9 1c 01 00
	00 00		 cmp	 DWORD PTR [ecx+284], 0
  011fa	74 10		 je	 SHORT $L187539
  011fc	6a 0f		 push	 15			; 0000000fH
  011fe	6a 05		 push	 5
  01200	8d 55 a0	 lea	 edx, DWORD PTR _r$[ebp]
  01203	52		 push	 edx
  01204	8b 4d c8	 mov	 ecx, DWORD PTR _pDC$[ebp]
  01207	e8 00 00 00 00	 call	 ?DrawEdge@CDC@@QAEHPAUtagRECT@@II@Z ; CDC::DrawEdge
$L187539:

; 429  : 		}
; 430  : 		// paint the focus rect
; 431  : 		if ((lpDrawItemStruct->itemState & ODS_FOCUS)&&(m_FocusRectMargin>0)){

  0120c	8b 45 08	 mov	 eax, DWORD PTR _lpDrawItemStruct$[ebp]
  0120f	8b 48 10	 mov	 ecx, DWORD PTR [eax+16]
  01212	83 e1 10	 and	 ecx, 16			; 00000010H
  01215	74 6c		 je	 SHORT $L187547
  01217	8b 55 f0	 mov	 edx, DWORD PTR _this$[ebp]
  0121a	0f bf 82 04 01
	00 00		 movsx	 eax, WORD PTR [edx+260]
  01221	85 c0		 test	 eax, eax
  01223	7e 5e		 jle	 SHORT $L187547

; 432  : 			r.left   += m_FocusRectMargin ;

  01225	8b 4d f0	 mov	 ecx, DWORD PTR _this$[ebp]
  01228	0f bf 91 04 01
	00 00		 movsx	 edx, WORD PTR [ecx+260]
  0122f	03 55 a0	 add	 edx, DWORD PTR _r$[ebp]
  01232	89 55 a0	 mov	 DWORD PTR _r$[ebp], edx

; 433  : 			r.top    += m_FocusRectMargin ;

  01235	8b 45 f0	 mov	 eax, DWORD PTR _this$[ebp]
  01238	0f bf 88 04 01
	00 00		 movsx	 ecx, WORD PTR [eax+260]
  0123f	03 4d a4	 add	 ecx, DWORD PTR _r$[ebp+4]
  01242	89 4d a4	 mov	 DWORD PTR _r$[ebp+4], ecx

; 434  : 			r.right  -= m_FocusRectMargin ;

  01245	8b 55 f0	 mov	 edx, DWORD PTR _this$[ebp]
  01248	0f bf 82 04 01
	00 00		 movsx	 eax, WORD PTR [edx+260]
  0124f	8b 4d a8	 mov	 ecx, DWORD PTR _r$[ebp+8]
  01252	2b c8		 sub	 ecx, eax
  01254	89 4d a8	 mov	 DWORD PTR _r$[ebp+8], ecx

; 435  : 			r.bottom -= m_FocusRectMargin ;

  01257	8b 55 f0	 mov	 edx, DWORD PTR _this$[ebp]
  0125a	0f bf 82 04 01
	00 00		 movsx	 eax, WORD PTR [edx+260]
  01261	8b 4d ac	 mov	 ecx, DWORD PTR _r$[ebp+12]
  01264	2b c8		 sub	 ecx, eax
  01266	89 4d ac	 mov	 DWORD PTR _r$[ebp+12], ecx

; 436  : 			DrawFocusRect (lpDrawItemStruct->hDC, &r) ;

  01269	8b f4		 mov	 esi, esp
  0126b	8d 55 a0	 lea	 edx, DWORD PTR _r$[ebp]
  0126e	52		 push	 edx
  0126f	8b 45 08	 mov	 eax, DWORD PTR _lpDrawItemStruct$[ebp]
  01272	8b 48 18	 mov	 ecx, DWORD PTR [eax+24]
  01275	51		 push	 ecx
  01276	ff 15 00 00 00
	00		 call	 DWORD PTR __imp__DrawFocusRect@8
  0127c	3b f4		 cmp	 esi, esp
  0127e	e8 00 00 00 00	 call	 __RTC_CheckEsp
$L187547:

; 437  : 		}
; 438  : 		// paint the enabled button text		
; 439  : 		pDC->SetTextColor(colorText);

  01283	8b f4		 mov	 esi, esp
  01285	8b 95 78 ff ff
	ff		 mov	 edx, DWORD PTR _colorText$[ebp]
  0128b	52		 push	 edx
  0128c	8b 45 c8	 mov	 eax, DWORD PTR _pDC$[ebp]
  0128f	8b 10		 mov	 edx, DWORD PTR [eax]
  01291	8b 4d c8	 mov	 ecx, DWORD PTR _pDC$[ebp]
  01294	ff 52 38	 call	 DWORD PTR [edx+56]
  01297	3b f4		 cmp	 esi, esp
  01299	e8 00 00 00 00	 call	 __RTC_CheckEsp

; 440  : 
; 441  : 		if(m_nTextOffsetX != 0 || m_nTextOffsetY != 0)

  0129e	8b 45 f0	 mov	 eax, DWORD PTR _this$[ebp]
  012a1	83 78 68 00	 cmp	 DWORD PTR [eax+104], 0
  012a5	75 09		 jne	 SHORT $L187549
  012a7	8b 4d f0	 mov	 ecx, DWORD PTR _this$[ebp]
  012aa	83 79 6c 00	 cmp	 DWORD PTR [ecx+108], 0
  012ae	74 14		 je	 SHORT $L187548
$L187549:

; 442  : 			pDC->DrawText(sCaption,&tr,DT_SINGLELINE|DT_TOP|DT_LEFT);

  012b0	6a 20		 push	 32			; 00000020H
  012b2	8d 55 80	 lea	 edx, DWORD PTR _tr$[ebp]
  012b5	52		 push	 edx
  012b6	8d 45 d0	 lea	 eax, DWORD PTR _sCaption$[ebp]
  012b9	50		 push	 eax
  012ba	8b 4d c8	 mov	 ecx, DWORD PTR _pDC$[ebp]
  012bd	e8 00 00 00 00	 call	 ?DrawTextA@CDC@@QAEHABV?$CStringT@DV?$StrTraitMFC_DLL@DV?$ChTraitsCRT@D@ATL@@@@@ATL@@PAUtagRECT@@I@Z ; CDC::DrawTextA

; 443  : 		else

  012c2	eb 12		 jmp	 SHORT $L187533
$L187548:

; 444  : 			pDC->DrawText(sCaption,&tr,DT_SINGLELINE|DT_VCENTER|DT_CENTER);

  012c4	6a 25		 push	 37			; 00000025H
  012c6	8d 4d 80	 lea	 ecx, DWORD PTR _tr$[ebp]
  012c9	51		 push	 ecx
  012ca	8d 55 d0	 lea	 edx, DWORD PTR _sCaption$[ebp]
  012cd	52		 push	 edx
  012ce	8b 4d c8	 mov	 ecx, DWORD PTR _pDC$[ebp]
  012d1	e8 00 00 00 00	 call	 ?DrawTextA@CDC@@QAEHABV?$CStringT@DV?$StrTraitMFC_DLL@DV?$ChTraitsCRT@D@ATL@@@@@ATL@@PAUtagRECT@@I@Z ; CDC::DrawTextA
$L187533:

; 445  : 	}
; 446  : 
; 447  : 	pDC->SelectObject(pOldFont);

  012d6	8b f4		 mov	 esi, esp
  012d8	8b 45 b4	 mov	 eax, DWORD PTR _pOldFont$[ebp]
  012db	50		 push	 eax
  012dc	8b 4d c8	 mov	 ecx, DWORD PTR _pDC$[ebp]
  012df	8b 11		 mov	 edx, DWORD PTR [ecx]
  012e1	8b 4d c8	 mov	 ecx, DWORD PTR _pDC$[ebp]
  012e4	ff 52 30	 call	 DWORD PTR [edx+48]
  012e7	3b f4		 cmp	 esi, esp
  012e9	e8 00 00 00 00	 call	 __RTC_CheckEsp

; 448  : }

  012ee	c6 45 fc 00	 mov	 BYTE PTR __$EHRec$[ebp+8], 0
  012f2	8d 4d bc	 lea	 ecx, DWORD PTR _font$[ebp]
  012f5	e8 00 00 00 00	 call	 ??1CFont@@UAE@XZ	; CFont::~CFont
  012fa	c7 45 fc ff ff
	ff ff		 mov	 DWORD PTR __$EHRec$[ebp+8], -1
  01301	8b f4		 mov	 esi, esp
  01303	8d 4d d0	 lea	 ecx, DWORD PTR _sCaption$[ebp]
  01306	ff 15 00 00 00
	00		 call	 DWORD PTR __imp_??1?$CStringT@DV?$StrTraitMFC_DLL@DV?$ChTraitsCRT@D@ATL@@@@@ATL@@QAE@XZ
  0130c	3b f4		 cmp	 esi, esp
  0130e	e8 00 00 00 00	 call	 __RTC_CheckEsp
$L187500:
  01313	52		 push	 edx
  01314	8b cd		 mov	 ecx, ebp
  01316	50		 push	 eax
  01317	8d 15 00 00 00
	00		 lea	 edx, DWORD PTR $L188606
  0131d	e8 00 00 00 00	 call	 @_RTC_CheckStackVars@8
  01322	58		 pop	 eax
  01323	5a		 pop	 edx
  01324	8b 4d f4	 mov	 ecx, DWORD PTR __$EHRec$[ebp]
  01327	64 89 0d 00 00
	00 00		 mov	 DWORD PTR fs:__except_list, ecx
  0132e	5f		 pop	 edi
  0132f	5e		 pop	 esi
  01330	81 c4 98 00 00
	00		 add	 esp, 152		; 00000098H
  01336	3b ec		 cmp	 ebp, esp
  01338	e8 00 00 00 00	 call	 __RTC_CheckEsp
  0133d	8b e5		 mov	 esp, ebp
  0133f	5d		 pop	 ebp
  01340	c2 04 00	 ret	 4
$L188606:
  01343	05 00 00 00	 DD	 5
  01347	00 00 00 00	 DD	 $L188605
$L188605:
  0134b	dc ff ff ff	 DD	 -36			; ffffffdcH
  0134f	08 00 00 00	 DD	 8
  01353	00 00 00 00	 DD	 $L188599
  01357	d0 ff ff ff	 DD	 -48			; ffffffd0H
  0135b	04 00 00 00	 DD	 4
  0135f	00 00 00 00	 DD	 $L188600
  01363	bc ff ff ff	 DD	 -68			; ffffffbcH
  01367	08 00 00 00	 DD	 8
  0136b	00 00 00 00	 DD	 $L188601
  0136f	a0 ff ff ff	 DD	 -96			; ffffffa0H
  01373	10 00 00 00	 DD	 16			; 00000010H
  01377	00 00 00 00	 DD	 $L188602
  0137b	80 ff ff ff	 DD	 -128			; ffffff80H
  0137f	10 00 00 00	 DD	 16			; 00000010H
  01383	00 00 00 00	 DD	 $L188603
$L188603:
  01387	74		 DB	 116			; 00000074H
  01388	72		 DB	 114			; 00000072H
  01389	00		 DB	 0
$L188602:
  0138a	72		 DB	 114			; 00000072H
  0138b	00		 DB	 0
$L188601:
  0138c	66		 DB	 102			; 00000066H
  0138d	6f		 DB	 111			; 0000006fH
  0138e	6e		 DB	 110			; 0000006eH
  0138f	74		 DB	 116			; 00000074H
  01390	00		 DB	 0
$L188600:
  01391	73		 DB	 115			; 00000073H
  01392	43		 DB	 67			; 00000043H
  01393	61		 DB	 97			; 00000061H
  01394	70		 DB	 112			; 00000070H
  01395	74		 DB	 116			; 00000074H
  01396	69		 DB	 105			; 00000069H
  01397	6f		 DB	 111			; 0000006fH
  01398	6e		 DB	 110			; 0000006eH
  01399	00		 DB	 0
$L188599:
  0139a	6d		 DB	 109			; 0000006dH
  0139b	6f		 DB	 111			; 0000006fH
  0139c	75		 DB	 117			; 00000075H
  0139d	73		 DB	 115			; 00000073H
  0139e	65		 DB	 101			; 00000065H
  0139f	5f		 DB	 95			; 0000005fH
  013a0	70		 DB	 112			; 00000070H
  013a1	6f		 DB	 111			; 0000006fH
  013a2	73		 DB	 115			; 00000073H
  013a3	69		 DB	 105			; 00000069H
  013a4	74		 DB	 116			; 00000074H
  013a5	69		 DB	 105			; 00000069H
  013a6	6f		 DB	 111			; 0000006fH
  013a7	6e		 DB	 110			; 0000006eH
  013a8	00		 DB	 0
_TEXT	ENDS
text$x	SEGMENT
$L188595:
  00078	8b f4		 mov	 esi, esp
  0007a	8d 4d d0	 lea	 ecx, DWORD PTR _sCaption$[ebp]
  0007d	ff 15 00 00 00
	00		 call	 DWORD PTR __imp_??1?$CStringT@DV?$StrTraitMFC_DLL@DV?$ChTraitsCRT@D@ATL@@@@@ATL@@QAE@XZ
  00083	3b f4		 cmp	 esi, esp
  00085	e9 00 00 00 00	 jmp	 __RTC_CheckEsp
$L188596:
  0008a	8d 4d bc	 lea	 ecx, DWORD PTR _font$[ebp]
  0008d	e9 00 00 00 00	 jmp	 ??1CFont@@UAE@XZ	; CFont::~CFont
__ehhandler$?DrawItem@CxSkinButton@@UAEXPAUtagDRAWITEMSTRUCT@@@Z:
  00092	b8 00 00 00 00	 mov	 eax, OFFSET FLAT:$T188598
  00097	e9 00 00 00 00	 jmp	 ___CxxFrameHandler
text$x	ENDS
?DrawItem@CxSkinButton@@UAEXPAUtagDRAWITEMSTRUCT@@@Z ENDP ; CxSkinButton::DrawItem
PUBLIC	?GetBitmapWidth@CxSkinButton@@QAEHPAVCDibBitmap@@@Z ; CxSkinButton::GetBitmapWidth
EXTRN	?GetWidth@CDibBitmap@@QAEHXZ:NEAR		; CDibBitmap::GetWidth
; Function compile flags: /Odt /RTCsu
_TEXT	SEGMENT
_this$ = -4						; size = 4
_hBitmap$ = 8						; size = 4
?GetBitmapWidth@CxSkinButton@@QAEHPAVCDibBitmap@@@Z PROC NEAR ; CxSkinButton::GetBitmapWidth
; _this$ = ecx

; 451  : {

  013b0	55		 push	 ebp
  013b1	8b ec		 mov	 ebp, esp
  013b3	51		 push	 ecx
  013b4	c7 45 fc cc cc
	cc cc		 mov	 DWORD PTR [ebp-4], -858993460 ; ccccccccH
  013bb	89 4d fc	 mov	 DWORD PTR _this$[ebp], ecx

; 452  : 	return hBitmap->GetWidth();

  013be	8b 4d 08	 mov	 ecx, DWORD PTR _hBitmap$[ebp]
  013c1	e8 00 00 00 00	 call	 ?GetWidth@CDibBitmap@@QAEHXZ ; CDibBitmap::GetWidth

; 453  : 	//return hBitmap->m_lpBMIH->biWidth;
; 454  : }

  013c6	83 c4 04	 add	 esp, 4
  013c9	3b ec		 cmp	 ebp, esp
  013cb	e8 00 00 00 00	 call	 __RTC_CheckEsp
  013d0	8b e5		 mov	 esp, ebp
  013d2	5d		 pop	 ebp
  013d3	c2 04 00	 ret	 4
?GetBitmapWidth@CxSkinButton@@QAEHPAVCDibBitmap@@@Z ENDP ; CxSkinButton::GetBitmapWidth
_TEXT	ENDS
PUBLIC	?GetBitmapHeight@CxSkinButton@@QAEHPAVCDibBitmap@@@Z ; CxSkinButton::GetBitmapHeight
EXTRN	?GetHeight@CDibBitmap@@QAEHXZ:NEAR		; CDibBitmap::GetHeight
; Function compile flags: /Odt /RTCsu
_TEXT	SEGMENT
_this$ = -4						; size = 4
_hBitmap$ = 8						; size = 4
?GetBitmapHeight@CxSkinButton@@QAEHPAVCDibBitmap@@@Z PROC NEAR ; CxSkinButton::GetBitmapHeight
; _this$ = ecx

; 457  : {

  013e0	55		 push	 ebp
  013e1	8b ec		 mov	 ebp, esp
  013e3	51		 push	 ecx
  013e4	c7 45 fc cc cc
	cc cc		 mov	 DWORD PTR [ebp-4], -858993460 ; ccccccccH
  013eb	89 4d fc	 mov	 DWORD PTR _this$[ebp], ecx

; 458  : 	return hBitmap->GetHeight();

  013ee	8b 4d 08	 mov	 ecx, DWORD PTR _hBitmap$[ebp]
  013f1	e8 00 00 00 00	 call	 ?GetHeight@CDibBitmap@@QAEHXZ ; CDibBitmap::GetHeight

; 459  : 	//return hBitmap->m_lpBMIH->biHeight;
; 460  : }

  013f6	83 c4 04	 add	 esp, 4
  013f9	3b ec		 cmp	 ebp, esp
  013fb	e8 00 00 00 00	 call	 __RTC_CheckEsp
  01400	8b e5		 mov	 esp, ebp
  01402	5d		 pop	 ebp
  01403	c2 04 00	 ret	 4
?GetBitmapHeight@CxSkinButton@@QAEHPAVCDibBitmap@@@Z ENDP ; CxSkinButton::GetBitmapHeight
_TEXT	ENDS
PUBLIC	?FillWithBitmap@CxSkinButton@@QAEXPAVCDC@@PAVCDibBitmap@@UtagRECT@@@Z ; CxSkinButton::FillWithBitmap
EXTRN	?BitBlt@CDC@@QAEHHHHHPAV1@HHK@Z:NEAR		; CDC::BitBlt
EXTRN	?StretchBlt@CDC@@QAEHHHHHPAV1@HHHHK@Z:NEAR	; CDC::StretchBlt
EXTRN	??BCGdiObject@@QBEPAXXZ:NEAR			; CGdiObject::operator void *
EXTRN	?DeleteObject@CGdiObject@@QAEHXZ:NEAR		; CGdiObject::DeleteObject
EXTRN	??1CDC@@UAE@XZ:NEAR				; CDC::~CDC
EXTRN	?SelectObject@CDC@@QAEPAXPAX@Z:NEAR		; CDC::SelectObject
EXTRN	??0CBitmap@@QAE@XZ:NEAR				; CBitmap::CBitmap
EXTRN	?CreateCompatibleBitmap@CBitmap@@QAEHPAVCDC@@HH@Z:NEAR ; CBitmap::CreateCompatibleBitmap
EXTRN	?Draw@CDibBitmap@@QAEHPAVCDC@@HKH@Z:NEAR	; CDibBitmap::Draw
EXTRN	??1CBitmap@@UAE@XZ:NEAR				; CBitmap::~CBitmap
EXTRN	?SetCDibRect@CDibBitmap@@QAEXVCRect@@@Z:NEAR	; CDibBitmap::SetCDibRect
EXTRN	??BCDC@@QBEPAUHDC__@@XZ:NEAR			; CDC::operator HDC__ *
EXTRN	??0CDC@@QAE@XZ:NEAR				; CDC::CDC
EXTRN	?CreateCompatibleDC@CDC@@QAEHPAV1@@Z:NEAR	; CDC::CreateCompatibleDC
EXTRN	?DeleteDC@CDC@@QAEHXZ:NEAR			; CDC::DeleteDC
EXTRN	?SaveDC@CDC@@UAEHXZ:NEAR			; CDC::SaveDC
EXTRN	?RestoreDC@CDC@@UAEHH@Z:NEAR			; CDC::RestoreDC
EXTRN	?SelectObject@CDC@@QAEPAVCBitmap@@PAV2@@Z:NEAR	; CDC::SelectObject
xdata$x	SEGMENT
$T188630 DD	0ffffffffH
	DD	FLAT:$L188613
	DD	00H
	DD	FLAT:$L188614
	DD	01H
	DD	FLAT:$L188615
	DD	02H
	DD	FLAT:$L188616
	DD	03H
	DD	FLAT:$L188617
	DD	04H
	DD	FLAT:$L188618
$T188620 DD	019930520H
	DD	06H
	DD	FLAT:$T188630
	DD	2 DUP(00H)
	DD	2 DUP(00H)
; Function compile flags: /Odt /RTCsu
xdata$x	ENDS
_TEXT	SEGMENT
$T188612 = -212						; size = 16
$T188611 = -196						; size = 16
_by$187602 = -180					; size = 4
_bx$187601 = -176					; size = 4
_by$187592 = -172					; size = 4
_bx$187591 = -168					; size = 4
_hBitmap$187584 = -160					; size = 8
_iSaveDC$187583 = -148					; size = 4
_hdcMem$187582 = -140					; size = 16
_hBitmapMask$187580 = -116				; size = 8
_iSaveMaskDC$187579 = -104				; size = 4
_pOldBitmap$ = -100					; size = 4
_hBitmapBmp$ = -92					; size = 8
_iSaveDC$ = -80						; size = 4
_dcMask$ = -72						; size = 16
_dcBmp$ = -48						; size = 16
_cy$ = -28						; size = 4
_cx$ = -24						; size = 4
_i$187567 = -20						; size = 4
_this$ = -16						; size = 4
__$EHRec$ = -12						; size = 12
_dc$ = 8						; size = 4
_hbmp$ = 12						; size = 4
_r$ = 16						; size = 16
_DrawMode$ = 32						; size = 4
?DrawBitmap@CxSkinButton@@QAEXPAVCDC@@PAVCDibBitmap@@UtagRECT@@H@Z PROC NEAR ; CxSkinButton::DrawBitmap
; _this$ = ecx

; 463  : {

  01410	55		 push	 ebp
  01411	8b ec		 mov	 ebp, esp
  01413	6a ff		 push	 -1
  01415	68 00 00 00 00	 push	 __ehhandler$?DrawBitmap@CxSkinButton@@QAEXPAVCDC@@PAVCDibBitmap@@UtagRECT@@H@Z
  0141a	64 a1 00 00 00
	00		 mov	 eax, DWORD PTR fs:__except_list
  01420	50		 push	 eax
  01421	64 89 25 00 00
	00 00		 mov	 DWORD PTR fs:__except_list, esp
  01428	81 ec c8 00 00
	00		 sub	 esp, 200		; 000000c8H
  0142e	56		 push	 esi
  0142f	57		 push	 edi
  01430	51		 push	 ecx
  01431	8d bd 2c ff ff
	ff		 lea	 edi, DWORD PTR [ebp-212]
  01437	b9 32 00 00 00	 mov	 ecx, 50			; 00000032H
  0143c	b8 cc cc cc cc	 mov	 eax, -858993460		; ccccccccH
  01441	f3 ab		 rep stosd
  01443	59		 pop	 ecx
  01444	89 4d f0	 mov	 DWORD PTR _this$[ebp], ecx

; 464  : //	hbmp->SetCDibRect(r);
; 465  : //	if(m_bSetMask)
; 466  : //		hbmp->Draw(dc, true);
; 467  : //	else
; 468  : //		hbmp->Draw(dc, false);
; 469  : ////	hbmp->DrawTransParent(dc, r,r, RGB(0,0,0));
; 470  : //	return;
; 471  : //	DrawMode: 0=Normal; 1=stretch; 2=tiled fill
; 472  : 
; 473  : 	if (m_bMask!=NULL){

  01447	8b 45 f0	 mov	 eax, DWORD PTR _this$[ebp]
  0144a	83 b8 f8 00 00
	00 00		 cmp	 DWORD PTR [eax+248], 0
  01451	74 07		 je	 SHORT $L187566

; 474  : 		int i = 0;

  01453	c7 45 ec 00 00
	00 00		 mov	 DWORD PTR _i$187567[ebp], 0
$L187566:

; 475  : 	}
; 476  : 	if(DrawMode==2){

  0145a	83 7d 20 02	 cmp	 DWORD PTR _DrawMode$[ebp], 2
  0145e	75 31		 jne	 SHORT $L187568

; 477  : 		FillWithBitmap(dc,hbmp,r);

  01460	83 ec 10	 sub	 esp, 16			; 00000010H
  01463	8b cc		 mov	 ecx, esp
  01465	8b 55 10	 mov	 edx, DWORD PTR _r$[ebp]
  01468	89 11		 mov	 DWORD PTR [ecx], edx
  0146a	8b 45 14	 mov	 eax, DWORD PTR _r$[ebp+4]
  0146d	89 41 04	 mov	 DWORD PTR [ecx+4], eax
  01470	8b 55 18	 mov	 edx, DWORD PTR _r$[ebp+8]
  01473	89 51 08	 mov	 DWORD PTR [ecx+8], edx
  01476	8b 45 1c	 mov	 eax, DWORD PTR _r$[ebp+12]
  01479	89 41 0c	 mov	 DWORD PTR [ecx+12], eax
  0147c	8b 4d 0c	 mov	 ecx, DWORD PTR _hbmp$[ebp]
  0147f	51		 push	 ecx
  01480	8b 55 08	 mov	 edx, DWORD PTR _dc$[ebp]
  01483	52		 push	 edx
  01484	8b 4d f0	 mov	 ecx, DWORD PTR _this$[ebp]
  01487	e8 00 00 00 00	 call	 ?FillWithBitmap@CxSkinButton@@QAEXPAVCDC@@PAVCDibBitmap@@UtagRECT@@@Z ; CxSkinButton::FillWithBitmap

; 478  : 		return;

  0148c	e9 3d 05 00 00	 jmp	 $L187565
$L187568:

; 479  : 	}
; 480  : 	if(!hbmp) return;	//safe check

  01491	83 7d 0c 00	 cmp	 DWORD PTR _hbmp$[ebp], 0
  01495	75 05		 jne	 SHORT $L187569
  01497	e9 32 05 00 00	 jmp	 $L187565
$L187569:

; 481  : 
; 482  : 	int cx=r.right  - r.left;

  0149c	8b 45 18	 mov	 eax, DWORD PTR _r$[ebp+8]
  0149f	2b 45 10	 sub	 eax, DWORD PTR _r$[ebp]
  014a2	89 45 e8	 mov	 DWORD PTR _cx$[ebp], eax

; 483  : 	int cy=r.bottom - r.top;

  014a5	8b 4d 1c	 mov	 ecx, DWORD PTR _r$[ebp+12]
  014a8	2b 4d 14	 sub	 ecx, DWORD PTR _r$[ebp+4]
  014ab	89 4d e4	 mov	 DWORD PTR _cy$[ebp], ecx

; 484  : 
; 485  : 	CDC dcBmp,dcMask;

  014ae	8d 4d d0	 lea	 ecx, DWORD PTR _dcBmp$[ebp]
  014b1	e8 00 00 00 00	 call	 ??0CDC@@QAE@XZ		; CDC::CDC
  014b6	c7 45 fc 00 00
	00 00		 mov	 DWORD PTR __$EHRec$[ebp+8], 0
  014bd	8d 4d b8	 lea	 ecx, DWORD PTR _dcMask$[ebp]
  014c0	e8 00 00 00 00	 call	 ??0CDC@@QAE@XZ		; CDC::CDC
  014c5	c6 45 fc 01	 mov	 BYTE PTR __$EHRec$[ebp+8], 1

; 486  : 	dcBmp.CreateCompatibleDC(dc);

  014c9	8b 55 08	 mov	 edx, DWORD PTR _dc$[ebp]
  014cc	52		 push	 edx
  014cd	8d 4d d0	 lea	 ecx, DWORD PTR _dcBmp$[ebp]
  014d0	e8 00 00 00 00	 call	 ?CreateCompatibleDC@CDC@@QAEHPAV1@@Z ; CDC::CreateCompatibleDC

; 487  : 	int iSaveDC = dcBmp.SaveDC();

  014d5	8d 4d d0	 lea	 ecx, DWORD PTR _dcBmp$[ebp]
  014d8	e8 00 00 00 00	 call	 ?SaveDC@CDC@@UAEHXZ	; CDC::SaveDC
  014dd	89 45 b0	 mov	 DWORD PTR _iSaveDC$[ebp], eax

; 488  : 
; 489  : 	CBitmap hBitmapBmp;                     //

  014e0	8d 4d a4	 lea	 ecx, DWORD PTR _hBitmapBmp$[ebp]
  014e3	e8 00 00 00 00	 call	 ??0CBitmap@@QAE@XZ	; CBitmap::CBitmap
  014e8	c6 45 fc 02	 mov	 BYTE PTR __$EHRec$[ebp+8], 2

; 490  : 	hBitmapBmp.CreateCompatibleBitmap(dc,hbmp->m_lpBMIH->biWidth,hbmp->m_lpBMIH->biHeight);

  014ec	8b 45 0c	 mov	 eax, DWORD PTR _hbmp$[ebp]
  014ef	8b 48 04	 mov	 ecx, DWORD PTR [eax+4]
  014f2	8b 51 08	 mov	 edx, DWORD PTR [ecx+8]
  014f5	52		 push	 edx
  014f6	8b 45 0c	 mov	 eax, DWORD PTR _hbmp$[ebp]
  014f9	8b 48 04	 mov	 ecx, DWORD PTR [eax+4]
  014fc	8b 51 04	 mov	 edx, DWORD PTR [ecx+4]
  014ff	52		 push	 edx
  01500	8b 45 08	 mov	 eax, DWORD PTR _dc$[ebp]
  01503	50		 push	 eax
  01504	8d 4d a4	 lea	 ecx, DWORD PTR _hBitmapBmp$[ebp]
  01507	e8 00 00 00 00	 call	 ?CreateCompatibleBitmap@CBitmap@@QAEHPAVCDC@@HH@Z ; CBitmap::CreateCompatibleBitmap

; 491  : 	CBitmap *pOldBitmap = dcBmp.SelectObject(&hBitmapBmp);

  0150c	8d 4d a4	 lea	 ecx, DWORD PTR _hBitmapBmp$[ebp]
  0150f	51		 push	 ecx
  01510	8d 4d d0	 lea	 ecx, DWORD PTR _dcBmp$[ebp]
  01513	e8 00 00 00 00	 call	 ?SelectObject@CDC@@QAEPAVCBitmap@@PAV2@@Z ; CDC::SelectObject
  01518	89 45 9c	 mov	 DWORD PTR _pOldBitmap$[ebp], eax

; 492  : 	hbmp->SetCDibRect(CRect(0,0,hbmp->m_lpBMIH->biWidth,hbmp->m_lpBMIH->biHeight));

  0151b	8b 55 0c	 mov	 edx, DWORD PTR _hbmp$[ebp]
  0151e	8b 42 04	 mov	 eax, DWORD PTR [edx+4]
  01521	8b 48 08	 mov	 ecx, DWORD PTR [eax+8]
  01524	51		 push	 ecx
  01525	8b 55 0c	 mov	 edx, DWORD PTR _hbmp$[ebp]
  01528	8b 42 04	 mov	 eax, DWORD PTR [edx+4]
  0152b	8b 48 04	 mov	 ecx, DWORD PTR [eax+4]
  0152e	51		 push	 ecx
  0152f	6a 00		 push	 0
  01531	6a 00		 push	 0
  01533	8d 8d 3c ff ff
	ff		 lea	 ecx, DWORD PTR $T188611[ebp]
  01539	e8 00 00 00 00	 call	 ??0CRect@@QAE@HHHH@Z	; CRect::CRect
  0153e	83 ec 10	 sub	 esp, 16			; 00000010H
  01541	8b d4		 mov	 edx, esp
  01543	8b 08		 mov	 ecx, DWORD PTR [eax]
  01545	89 0a		 mov	 DWORD PTR [edx], ecx
  01547	8b 48 04	 mov	 ecx, DWORD PTR [eax+4]
  0154a	89 4a 04	 mov	 DWORD PTR [edx+4], ecx
  0154d	8b 48 08	 mov	 ecx, DWORD PTR [eax+8]
  01550	89 4a 08	 mov	 DWORD PTR [edx+8], ecx
  01553	8b 40 0c	 mov	 eax, DWORD PTR [eax+12]
  01556	89 42 0c	 mov	 DWORD PTR [edx+12], eax
  01559	8b 4d 0c	 mov	 ecx, DWORD PTR _hbmp$[ebp]
  0155c	e8 00 00 00 00	 call	 ?SetCDibRect@CDibBitmap@@QAEXVCRect@@@Z ; CDibBitmap::SetCDibRect

; 493  : 	hbmp->Draw(&dcBmp,FALSE);

  01561	6a 01		 push	 1
  01563	6a 00		 push	 0
  01565	6a 00		 push	 0
  01567	8d 4d d0	 lea	 ecx, DWORD PTR _dcBmp$[ebp]
  0156a	51		 push	 ecx
  0156b	8b 4d 0c	 mov	 ecx, DWORD PTR _hbmp$[ebp]
  0156e	e8 00 00 00 00	 call	 ?Draw@CDibBitmap@@QAEHPAVCDC@@HKH@Z ; CDibBitmap::Draw

; 494  : 	
; 495  : 	if (m_bMask!=NULL && m_bMask->is_Loaded){

  01573	8b 55 f0	 mov	 edx, DWORD PTR _this$[ebp]
  01576	83 ba f8 00 00
	00 00		 cmp	 DWORD PTR [edx+248], 0
  0157d	0f 84 68 03 00
	00		 je	 $L187578
  01583	8b 45 f0	 mov	 eax, DWORD PTR _this$[ebp]
  01586	8b 88 f8 00 00
	00		 mov	 ecx, DWORD PTR [eax+248]
  0158c	0f b6 51 5c	 movzx	 edx, BYTE PTR [ecx+92]
  01590	85 d2		 test	 edx, edx
  01592	0f 84 53 03 00
	00		 je	 $L187578

; 496  : 		dcMask.CreateCompatibleDC(dc);

  01598	8b 45 08	 mov	 eax, DWORD PTR _dc$[ebp]
  0159b	50		 push	 eax
  0159c	8d 4d b8	 lea	 ecx, DWORD PTR _dcMask$[ebp]
  0159f	e8 00 00 00 00	 call	 ?CreateCompatibleDC@CDC@@QAEHPAV1@@Z ; CDC::CreateCompatibleDC

; 497  : 
; 498  : 		int iSaveMaskDC = dcMask.SaveDC();

  015a4	8d 4d b8	 lea	 ecx, DWORD PTR _dcMask$[ebp]
  015a7	e8 00 00 00 00	 call	 ?SaveDC@CDC@@UAEHXZ	; CDC::SaveDC
  015ac	89 45 98	 mov	 DWORD PTR _iSaveMaskDC$187579[ebp], eax

; 499  : 
; 500  : 		CBitmap hBitmapMask;//		 

  015af	8d 4d 8c	 lea	 ecx, DWORD PTR _hBitmapMask$187580[ebp]
  015b2	e8 00 00 00 00	 call	 ??0CBitmap@@QAE@XZ	; CBitmap::CBitmap
  015b7	c6 45 fc 03	 mov	 BYTE PTR __$EHRec$[ebp+8], 3

; 501  : 		hBitmapMask.CreateCompatibleBitmap(dc,  m_bMask->m_lpBMIH->biWidth,m_bMask->m_lpBMIH->biHeight);

  015bb	8b 4d f0	 mov	 ecx, DWORD PTR _this$[ebp]
  015be	8b 91 f8 00 00
	00		 mov	 edx, DWORD PTR [ecx+248]
  015c4	8b 42 04	 mov	 eax, DWORD PTR [edx+4]
  015c7	8b 48 08	 mov	 ecx, DWORD PTR [eax+8]
  015ca	51		 push	 ecx
  015cb	8b 55 f0	 mov	 edx, DWORD PTR _this$[ebp]
  015ce	8b 82 f8 00 00
	00		 mov	 eax, DWORD PTR [edx+248]
  015d4	8b 48 04	 mov	 ecx, DWORD PTR [eax+4]
  015d7	8b 51 04	 mov	 edx, DWORD PTR [ecx+4]
  015da	52		 push	 edx
  015db	8b 45 08	 mov	 eax, DWORD PTR _dc$[ebp]
  015de	50		 push	 eax
  015df	8d 4d 8c	 lea	 ecx, DWORD PTR _hBitmapMask$187580[ebp]
  015e2	e8 00 00 00 00	 call	 ?CreateCompatibleBitmap@CBitmap@@QAEHPAVCDC@@HH@Z ; CBitmap::CreateCompatibleBitmap

; 502  : 		dcMask.SelectObject(&hBitmapMask);

  015e7	8d 4d 8c	 lea	 ecx, DWORD PTR _hBitmapMask$187580[ebp]
  015ea	51		 push	 ecx
  015eb	8d 4d b8	 lea	 ecx, DWORD PTR _dcMask$[ebp]
  015ee	e8 00 00 00 00	 call	 ?SelectObject@CDC@@QAEPAVCBitmap@@PAV2@@Z ; CDC::SelectObject

; 503  : 		m_bMask->SetCDibRect(CRect(0,0,m_bMask->m_lpBMIH->biWidth,m_bMask->m_lpBMIH->biHeight));

  015f3	8b 55 f0	 mov	 edx, DWORD PTR _this$[ebp]
  015f6	8b 82 f8 00 00
	00		 mov	 eax, DWORD PTR [edx+248]
  015fc	8b 48 04	 mov	 ecx, DWORD PTR [eax+4]
  015ff	8b 51 08	 mov	 edx, DWORD PTR [ecx+8]
  01602	52		 push	 edx
  01603	8b 45 f0	 mov	 eax, DWORD PTR _this$[ebp]
  01606	8b 88 f8 00 00
	00		 mov	 ecx, DWORD PTR [eax+248]
  0160c	8b 51 04	 mov	 edx, DWORD PTR [ecx+4]
  0160f	8b 42 04	 mov	 eax, DWORD PTR [edx+4]
  01612	50		 push	 eax
  01613	6a 00		 push	 0
  01615	6a 00		 push	 0
  01617	8d 8d 2c ff ff
	ff		 lea	 ecx, DWORD PTR $T188612[ebp]
  0161d	e8 00 00 00 00	 call	 ??0CRect@@QAE@HHHH@Z	; CRect::CRect
  01622	83 ec 10	 sub	 esp, 16			; 00000010H
  01625	8b cc		 mov	 ecx, esp
  01627	8b 10		 mov	 edx, DWORD PTR [eax]
  01629	89 11		 mov	 DWORD PTR [ecx], edx
  0162b	8b 50 04	 mov	 edx, DWORD PTR [eax+4]
  0162e	89 51 04	 mov	 DWORD PTR [ecx+4], edx
  01631	8b 50 08	 mov	 edx, DWORD PTR [eax+8]
  01634	89 51 08	 mov	 DWORD PTR [ecx+8], edx
  01637	8b 40 0c	 mov	 eax, DWORD PTR [eax+12]
  0163a	89 41 0c	 mov	 DWORD PTR [ecx+12], eax
  0163d	8b 4d f0	 mov	 ecx, DWORD PTR _this$[ebp]
  01640	8b 89 f8 00 00
	00		 mov	 ecx, DWORD PTR [ecx+248]
  01646	e8 00 00 00 00	 call	 ?SetCDibRect@CDibBitmap@@QAEXVCRect@@@Z ; CDibBitmap::SetCDibRect

; 504  : 		m_bMask->Draw(&dcMask,FALSE);

  0164b	6a 01		 push	 1
  0164d	6a 00		 push	 0
  0164f	6a 00		 push	 0
  01651	8d 55 b8	 lea	 edx, DWORD PTR _dcMask$[ebp]
  01654	52		 push	 edx
  01655	8b 45 f0	 mov	 eax, DWORD PTR _this$[ebp]
  01658	8b 88 f8 00 00
	00		 mov	 ecx, DWORD PTR [eax+248]
  0165e	e8 00 00 00 00	 call	 ?Draw@CDibBitmap@@QAEHPAVCDC@@HKH@Z ; CDibBitmap::Draw

; 505  : 
; 506  : 		CDC hdcMem;

  01663	8d 8d 74 ff ff
	ff		 lea	 ecx, DWORD PTR _hdcMem$187582[ebp]
  01669	e8 00 00 00 00	 call	 ??0CDC@@QAE@XZ		; CDC::CDC
  0166e	c6 45 fc 04	 mov	 BYTE PTR __$EHRec$[ebp+8], 4

; 507  : 		hdcMem.CreateCompatibleDC(dc);

  01672	8b 4d 08	 mov	 ecx, DWORD PTR _dc$[ebp]
  01675	51		 push	 ecx
  01676	8d 8d 74 ff ff
	ff		 lea	 ecx, DWORD PTR _hdcMem$187582[ebp]
  0167c	e8 00 00 00 00	 call	 ?CreateCompatibleDC@CDC@@QAEHPAV1@@Z ; CDC::CreateCompatibleDC

; 508  : 
; 509  : 		int iSaveDC = hdcMem.SaveDC();

  01681	8d 8d 74 ff ff
	ff		 lea	 ecx, DWORD PTR _hdcMem$187582[ebp]
  01687	e8 00 00 00 00	 call	 ?SaveDC@CDC@@UAEHXZ	; CDC::SaveDC
  0168c	89 85 6c ff ff
	ff		 mov	 DWORD PTR _iSaveDC$187583[ebp], eax

; 510  : 
; 511  : 	    CBitmap hBitmap;

  01692	8d 8d 60 ff ff
	ff		 lea	 ecx, DWORD PTR _hBitmap$187584[ebp]
  01698	e8 00 00 00 00	 call	 ??0CBitmap@@QAE@XZ	; CBitmap::CBitmap
  0169d	c6 45 fc 05	 mov	 BYTE PTR __$EHRec$[ebp+8], 5

; 512  : 		hBitmap.CreateCompatibleBitmap(dc,cx,cy);

  016a1	8b 55 e4	 mov	 edx, DWORD PTR _cy$[ebp]
  016a4	52		 push	 edx
  016a5	8b 45 e8	 mov	 eax, DWORD PTR _cx$[ebp]
  016a8	50		 push	 eax
  016a9	8b 4d 08	 mov	 ecx, DWORD PTR _dc$[ebp]
  016ac	51		 push	 ecx
  016ad	8d 8d 60 ff ff
	ff		 lea	 ecx, DWORD PTR _hBitmap$187584[ebp]
  016b3	e8 00 00 00 00	 call	 ?CreateCompatibleBitmap@CBitmap@@QAEHPAVCDC@@HH@Z ; CBitmap::CreateCompatibleBitmap

; 513  : 	    hdcMem.SelectObject(hBitmap);		

  016b8	8d 8d 60 ff ff
	ff		 lea	 ecx, DWORD PTR _hBitmap$187584[ebp]
  016be	e8 00 00 00 00	 call	 ??BCGdiObject@@QBEPAXXZ	; CGdiObject::operator void *
  016c3	50		 push	 eax
  016c4	8d 8d 74 ff ff
	ff		 lea	 ecx, DWORD PTR _hdcMem$187582[ebp]
  016ca	e8 00 00 00 00	 call	 ?SelectObject@CDC@@QAEPAXPAX@Z ; CDC::SelectObject

; 514  :         hdcMem.BitBlt(r.left,r.top,cx,cy,dc,0,0,SRCCOPY);

  016cf	68 20 00 cc 00	 push	 13369376		; 00cc0020H
  016d4	6a 00		 push	 0
  016d6	6a 00		 push	 0
  016d8	8b 55 08	 mov	 edx, DWORD PTR _dc$[ebp]
  016db	52		 push	 edx
  016dc	8b 45 e4	 mov	 eax, DWORD PTR _cy$[ebp]
  016df	50		 push	 eax
  016e0	8b 4d e8	 mov	 ecx, DWORD PTR _cx$[ebp]
  016e3	51		 push	 ecx
  016e4	8b 55 14	 mov	 edx, DWORD PTR _r$[ebp+4]
  016e7	52		 push	 edx
  016e8	8b 45 10	 mov	 eax, DWORD PTR _r$[ebp]
  016eb	50		 push	 eax
  016ec	8d 8d 74 ff ff
	ff		 lea	 ecx, DWORD PTR _hdcMem$187582[ebp]
  016f2	e8 00 00 00 00	 call	 ?BitBlt@CDC@@QAEHHHHHPAV1@HHK@Z ; CDC::BitBlt

; 515  : 		if(!DrawMode){

  016f7	83 7d 20 00	 cmp	 DWORD PTR _DrawMode$[ebp], 0
  016fb	75 7d		 jne	 SHORT $L187586

; 516  : 			hdcMem.BitBlt(r.left,r.top,cx,cy,&dcBmp,0,0,SRCINVERT);

  016fd	68 46 00 66 00	 push	 6684742			; 00660046H
  01702	6a 00		 push	 0
  01704	6a 00		 push	 0
  01706	8d 4d d0	 lea	 ecx, DWORD PTR _dcBmp$[ebp]
  01709	51		 push	 ecx
  0170a	8b 55 e4	 mov	 edx, DWORD PTR _cy$[ebp]
  0170d	52		 push	 edx
  0170e	8b 45 e8	 mov	 eax, DWORD PTR _cx$[ebp]
  01711	50		 push	 eax
  01712	8b 4d 14	 mov	 ecx, DWORD PTR _r$[ebp+4]
  01715	51		 push	 ecx
  01716	8b 55 10	 mov	 edx, DWORD PTR _r$[ebp]
  01719	52		 push	 edx
  0171a	8d 8d 74 ff ff
	ff		 lea	 ecx, DWORD PTR _hdcMem$187582[ebp]
  01720	e8 00 00 00 00	 call	 ?BitBlt@CDC@@QAEHHHHHPAV1@HHK@Z ; CDC::BitBlt

; 517  : 			hdcMem.BitBlt(r.left,r.top,cx,cy,&dcMask,0,0,SRCAND);

  01725	68 c6 00 88 00	 push	 8913094			; 008800c6H
  0172a	6a 00		 push	 0
  0172c	6a 00		 push	 0
  0172e	8d 45 b8	 lea	 eax, DWORD PTR _dcMask$[ebp]
  01731	50		 push	 eax
  01732	8b 4d e4	 mov	 ecx, DWORD PTR _cy$[ebp]
  01735	51		 push	 ecx
  01736	8b 55 e8	 mov	 edx, DWORD PTR _cx$[ebp]
  01739	52		 push	 edx
  0173a	8b 45 14	 mov	 eax, DWORD PTR _r$[ebp+4]
  0173d	50		 push	 eax
  0173e	8b 4d 10	 mov	 ecx, DWORD PTR _r$[ebp]
  01741	51		 push	 ecx
  01742	8d 8d 74 ff ff
	ff		 lea	 ecx, DWORD PTR _hdcMem$187582[ebp]
  01748	e8 00 00 00 00	 call	 ?BitBlt@CDC@@QAEHHHHHPAV1@HHK@Z ; CDC::BitBlt

; 518  : 			hdcMem.BitBlt(r.left,r.top,cx,cy,&dcBmp,0,0,SRCINVERT);

  0174d	68 46 00 66 00	 push	 6684742			; 00660046H
  01752	6a 00		 push	 0
  01754	6a 00		 push	 0
  01756	8d 55 d0	 lea	 edx, DWORD PTR _dcBmp$[ebp]
  01759	52		 push	 edx
  0175a	8b 45 e4	 mov	 eax, DWORD PTR _cy$[ebp]
  0175d	50		 push	 eax
  0175e	8b 4d e8	 mov	 ecx, DWORD PTR _cx$[ebp]
  01761	51		 push	 ecx
  01762	8b 55 14	 mov	 edx, DWORD PTR _r$[ebp+4]
  01765	52		 push	 edx
  01766	8b 45 10	 mov	 eax, DWORD PTR _r$[ebp]
  01769	50		 push	 eax
  0176a	8d 8d 74 ff ff
	ff		 lea	 ecx, DWORD PTR _hdcMem$187582[ebp]
  01770	e8 00 00 00 00	 call	 ?BitBlt@CDC@@QAEHHHHHPAV1@HHK@Z ; CDC::BitBlt

; 519  : 		} else {

  01775	e9 c6 00 00 00	 jmp	 $L187590
$L187586:

; 520  : 			int bx=GetBitmapWidth(hbmp);

  0177a	8b 4d 0c	 mov	 ecx, DWORD PTR _hbmp$[ebp]
  0177d	51		 push	 ecx
  0177e	8b 4d f0	 mov	 ecx, DWORD PTR _this$[ebp]
  01781	e8 00 00 00 00	 call	 ?GetBitmapWidth@CxSkinButton@@QAEHPAVCDibBitmap@@@Z ; CxSkinButton::GetBitmapWidth
  01786	89 85 58 ff ff
	ff		 mov	 DWORD PTR _bx$187591[ebp], eax

; 521  : 			int by=GetBitmapHeight(hbmp);

  0178c	8b 55 0c	 mov	 edx, DWORD PTR _hbmp$[ebp]
  0178f	52		 push	 edx
  01790	8b 4d f0	 mov	 ecx, DWORD PTR _this$[ebp]
  01793	e8 00 00 00 00	 call	 ?GetBitmapHeight@CxSkinButton@@QAEHPAVCDibBitmap@@@Z ; CxSkinButton::GetBitmapHeight
  01798	89 85 54 ff ff
	ff		 mov	 DWORD PTR _by$187592[ebp], eax

; 522  : 			hdcMem.StretchBlt(r.left,r.top,cx,cy,&dcBmp,0,0,bx,by,SRCINVERT);

  0179e	68 46 00 66 00	 push	 6684742			; 00660046H
  017a3	8b 85 54 ff ff
	ff		 mov	 eax, DWORD PTR _by$187592[ebp]
  017a9	50		 push	 eax
  017aa	8b 8d 58 ff ff
	ff		 mov	 ecx, DWORD PTR _bx$187591[ebp]
  017b0	51		 push	 ecx
  017b1	6a 00		 push	 0
  017b3	6a 00		 push	 0
  017b5	8d 55 d0	 lea	 edx, DWORD PTR _dcBmp$[ebp]
  017b8	52		 push	 edx
  017b9	8b 45 e4	 mov	 eax, DWORD PTR _cy$[ebp]
  017bc	50		 push	 eax
  017bd	8b 4d e8	 mov	 ecx, DWORD PTR _cx$[ebp]
  017c0	51		 push	 ecx
  017c1	8b 55 14	 mov	 edx, DWORD PTR _r$[ebp+4]
  017c4	52		 push	 edx
  017c5	8b 45 10	 mov	 eax, DWORD PTR _r$[ebp]
  017c8	50		 push	 eax
  017c9	8d 8d 74 ff ff
	ff		 lea	 ecx, DWORD PTR _hdcMem$187582[ebp]
  017cf	e8 00 00 00 00	 call	 ?StretchBlt@CDC@@QAEHHHHHPAV1@HHHHK@Z ; CDC::StretchBlt

; 523  : 			hdcMem.StretchBlt(r.left,r.top,cx,cy,&dcMask,0,0,bx,by,SRCAND);

  017d4	68 c6 00 88 00	 push	 8913094			; 008800c6H
  017d9	8b 8d 54 ff ff
	ff		 mov	 ecx, DWORD PTR _by$187592[ebp]
  017df	51		 push	 ecx
  017e0	8b 95 58 ff ff
	ff		 mov	 edx, DWORD PTR _bx$187591[ebp]
  017e6	52		 push	 edx
  017e7	6a 00		 push	 0
  017e9	6a 00		 push	 0
  017eb	8d 45 b8	 lea	 eax, DWORD PTR _dcMask$[ebp]
  017ee	50		 push	 eax
  017ef	8b 4d e4	 mov	 ecx, DWORD PTR _cy$[ebp]
  017f2	51		 push	 ecx
  017f3	8b 55 e8	 mov	 edx, DWORD PTR _cx$[ebp]
  017f6	52		 push	 edx
  017f7	8b 45 14	 mov	 eax, DWORD PTR _r$[ebp+4]
  017fa	50		 push	 eax
  017fb	8b 4d 10	 mov	 ecx, DWORD PTR _r$[ebp]
  017fe	51		 push	 ecx
  017ff	8d 8d 74 ff ff
	ff		 lea	 ecx, DWORD PTR _hdcMem$187582[ebp]
  01805	e8 00 00 00 00	 call	 ?StretchBlt@CDC@@QAEHHHHHPAV1@HHHHK@Z ; CDC::StretchBlt

; 524  : 			hdcMem.StretchBlt(r.left,r.top,cx,cy,&dcBmp,0,0,bx,by,SRCINVERT);

  0180a	68 46 00 66 00	 push	 6684742			; 00660046H
  0180f	8b 95 54 ff ff
	ff		 mov	 edx, DWORD PTR _by$187592[ebp]
  01815	52		 push	 edx
  01816	8b 85 58 ff ff
	ff		 mov	 eax, DWORD PTR _bx$187591[ebp]
  0181c	50		 push	 eax
  0181d	6a 00		 push	 0
  0181f	6a 00		 push	 0
  01821	8d 4d d0	 lea	 ecx, DWORD PTR _dcBmp$[ebp]
  01824	51		 push	 ecx
  01825	8b 55 e4	 mov	 edx, DWORD PTR _cy$[ebp]
  01828	52		 push	 edx
  01829	8b 45 e8	 mov	 eax, DWORD PTR _cx$[ebp]
  0182c	50		 push	 eax
  0182d	8b 4d 14	 mov	 ecx, DWORD PTR _r$[ebp+4]
  01830	51		 push	 ecx
  01831	8b 55 10	 mov	 edx, DWORD PTR _r$[ebp]
  01834	52		 push	 edx
  01835	8d 8d 74 ff ff
	ff		 lea	 ecx, DWORD PTR _hdcMem$187582[ebp]
  0183b	e8 00 00 00 00	 call	 ?StretchBlt@CDC@@QAEHHHHHPAV1@HHHHK@Z ; CDC::StretchBlt
$L187590:

; 525  : 		}
; 526  :         dc->BitBlt(r.left,r.top,cx,cy,&hdcMem,0,0,SRCCOPY);

  01840	68 20 00 cc 00	 push	 13369376		; 00cc0020H
  01845	6a 00		 push	 0
  01847	6a 00		 push	 0
  01849	8d 85 74 ff ff
	ff		 lea	 eax, DWORD PTR _hdcMem$187582[ebp]
  0184f	50		 push	 eax
  01850	8b 4d e4	 mov	 ecx, DWORD PTR _cy$[ebp]
  01853	51		 push	 ecx
  01854	8b 55 e8	 mov	 edx, DWORD PTR _cx$[ebp]
  01857	52		 push	 edx
  01858	8b 45 14	 mov	 eax, DWORD PTR _r$[ebp+4]
  0185b	50		 push	 eax
  0185c	8b 4d 10	 mov	 ecx, DWORD PTR _r$[ebp]
  0185f	51		 push	 ecx
  01860	8b 4d 08	 mov	 ecx, DWORD PTR _dc$[ebp]
  01863	e8 00 00 00 00	 call	 ?BitBlt@CDC@@QAEHHHHHPAV1@HHK@Z ; CDC::BitBlt

; 527  : 
; 528  : 		hdcMem.RestoreDC( iSaveDC );

  01868	8b 95 6c ff ff
	ff		 mov	 edx, DWORD PTR _iSaveDC$187583[ebp]
  0186e	52		 push	 edx
  0186f	8d 8d 74 ff ff
	ff		 lea	 ecx, DWORD PTR _hdcMem$187582[ebp]
  01875	e8 00 00 00 00	 call	 ?RestoreDC@CDC@@UAEHH@Z	; CDC::RestoreDC

; 529  : 
; 530  : 		hdcMem.DeleteDC();

  0187a	8d 8d 74 ff ff
	ff		 lea	 ecx, DWORD PTR _hdcMem$187582[ebp]
  01880	e8 00 00 00 00	 call	 ?DeleteDC@CDC@@QAEHXZ	; CDC::DeleteDC

; 531  : 		dcMask.RestoreDC( iSaveMaskDC );

  01885	8b 45 98	 mov	 eax, DWORD PTR _iSaveMaskDC$187579[ebp]
  01888	50		 push	 eax
  01889	8d 4d b8	 lea	 ecx, DWORD PTR _dcMask$[ebp]
  0188c	e8 00 00 00 00	 call	 ?RestoreDC@CDC@@UAEHH@Z	; CDC::RestoreDC

; 532  : 
; 533  : 		DeleteDC(dcMask);

  01891	8d 4d b8	 lea	 ecx, DWORD PTR _dcMask$[ebp]
  01894	e8 00 00 00 00	 call	 ??BCDC@@QBEPAUHDC__@@XZ	; CDC::operator HDC__ *
  01899	8b f4		 mov	 esi, esp
  0189b	50		 push	 eax
  0189c	ff 15 00 00 00
	00		 call	 DWORD PTR __imp__DeleteDC@4
  018a2	3b f4		 cmp	 esi, esp
  018a4	e8 00 00 00 00	 call	 __RTC_CheckEsp

; 534  : 
; 535  : 		hBitmap.DeleteObject();

  018a9	8d 8d 60 ff ff
	ff		 lea	 ecx, DWORD PTR _hBitmap$187584[ebp]
  018af	e8 00 00 00 00	 call	 ?DeleteObject@CGdiObject@@QAEHXZ ; CGdiObject::DeleteObject

; 536  : 		hBitmapMask.DeleteObject();

  018b4	8d 4d 8c	 lea	 ecx, DWORD PTR _hBitmapMask$187580[ebp]
  018b7	e8 00 00 00 00	 call	 ?DeleteObject@CGdiObject@@QAEHXZ ; CGdiObject::DeleteObject

; 537  : 
; 538  : 	} else {

  018bc	c6 45 fc 04	 mov	 BYTE PTR __$EHRec$[ebp+8], 4
  018c0	8d 8d 60 ff ff
	ff		 lea	 ecx, DWORD PTR _hBitmap$187584[ebp]
  018c6	e8 00 00 00 00	 call	 ??1CBitmap@@UAE@XZ	; CBitmap::~CBitmap
  018cb	c6 45 fc 03	 mov	 BYTE PTR __$EHRec$[ebp+8], 3
  018cf	8d 8d 74 ff ff
	ff		 lea	 ecx, DWORD PTR _hdcMem$187582[ebp]
  018d5	e8 00 00 00 00	 call	 ??1CDC@@UAE@XZ		; CDC::~CDC
  018da	c6 45 fc 02	 mov	 BYTE PTR __$EHRec$[ebp+8], 2
  018de	8d 4d 8c	 lea	 ecx, DWORD PTR _hBitmapMask$187580[ebp]
  018e1	e8 00 00 00 00	 call	 ??1CBitmap@@UAE@XZ	; CBitmap::~CBitmap
  018e6	e9 84 00 00 00	 jmp	 $L187597
$L187578:

; 539  : 		if(!DrawMode){

  018eb	83 7d 20 00	 cmp	 DWORD PTR _DrawMode$[ebp], 0
  018ef	75 27		 jne	 SHORT $L187598

; 540  : 			dc->BitBlt(r.left,r.top,cx,cy,&dcBmp,0,0,SRCCOPY);

  018f1	68 20 00 cc 00	 push	 13369376		; 00cc0020H
  018f6	6a 00		 push	 0
  018f8	6a 00		 push	 0
  018fa	8d 4d d0	 lea	 ecx, DWORD PTR _dcBmp$[ebp]
  018fd	51		 push	 ecx
  018fe	8b 55 e4	 mov	 edx, DWORD PTR _cy$[ebp]
  01901	52		 push	 edx
  01902	8b 45 e8	 mov	 eax, DWORD PTR _cx$[ebp]
  01905	50		 push	 eax
  01906	8b 4d 14	 mov	 ecx, DWORD PTR _r$[ebp+4]
  01909	51		 push	 ecx
  0190a	8b 55 10	 mov	 edx, DWORD PTR _r$[ebp]
  0190d	52		 push	 edx
  0190e	8b 4d 08	 mov	 ecx, DWORD PTR _dc$[ebp]
  01911	e8 00 00 00 00	 call	 ?BitBlt@CDC@@QAEHHHHHPAV1@HHK@Z ; CDC::BitBlt

; 541  : 		} else {

  01916	eb 57		 jmp	 SHORT $L187597
$L187598:

; 542  : 			int bx=GetBitmapWidth(hbmp);

  01918	8b 45 0c	 mov	 eax, DWORD PTR _hbmp$[ebp]
  0191b	50		 push	 eax
  0191c	8b 4d f0	 mov	 ecx, DWORD PTR _this$[ebp]
  0191f	e8 00 00 00 00	 call	 ?GetBitmapWidth@CxSkinButton@@QAEHPAVCDibBitmap@@@Z ; CxSkinButton::GetBitmapWidth
  01924	89 85 50 ff ff
	ff		 mov	 DWORD PTR _bx$187601[ebp], eax

; 543  : 			int by=GetBitmapHeight(hbmp);

  0192a	8b 4d 0c	 mov	 ecx, DWORD PTR _hbmp$[ebp]
  0192d	51		 push	 ecx
  0192e	8b 4d f0	 mov	 ecx, DWORD PTR _this$[ebp]
  01931	e8 00 00 00 00	 call	 ?GetBitmapHeight@CxSkinButton@@QAEHPAVCDibBitmap@@@Z ; CxSkinButton::GetBitmapHeight
  01936	89 85 4c ff ff
	ff		 mov	 DWORD PTR _by$187602[ebp], eax

; 544  : 			dc->StretchBlt(r.left,r.top,cx,cy,&dcBmp,0,0,bx,by,SRCCOPY);

  0193c	68 20 00 cc 00	 push	 13369376		; 00cc0020H
  01941	8b 95 4c ff ff
	ff		 mov	 edx, DWORD PTR _by$187602[ebp]
  01947	52		 push	 edx
  01948	8b 85 50 ff ff
	ff		 mov	 eax, DWORD PTR _bx$187601[ebp]
  0194e	50		 push	 eax
  0194f	6a 00		 push	 0
  01951	6a 00		 push	 0
  01953	8d 4d d0	 lea	 ecx, DWORD PTR _dcBmp$[ebp]
  01956	51		 push	 ecx
  01957	8b 55 e4	 mov	 edx, DWORD PTR _cy$[ebp]
  0195a	52		 push	 edx
  0195b	8b 45 e8	 mov	 eax, DWORD PTR _cx$[ebp]
  0195e	50		 push	 eax
  0195f	8b 4d 14	 mov	 ecx, DWORD PTR _r$[ebp+4]
  01962	51		 push	 ecx
  01963	8b 55 10	 mov	 edx, DWORD PTR _r$[ebp]
  01966	52		 push	 edx
  01967	8b 4d 08	 mov	 ecx, DWORD PTR _dc$[ebp]
  0196a	e8 00 00 00 00	 call	 ?StretchBlt@CDC@@QAEHHHHHPAV1@HHHHK@Z ; CDC::StretchBlt
$L187597:

; 545  : 		}
; 546  : 	}	
; 547  : 
; 548  : 	dcBmp.SelectObject(pOldBitmap);

  0196f	8b 45 9c	 mov	 eax, DWORD PTR _pOldBitmap$[ebp]
  01972	50		 push	 eax
  01973	8d 4d d0	 lea	 ecx, DWORD PTR _dcBmp$[ebp]
  01976	e8 00 00 00 00	 call	 ?SelectObject@CDC@@QAEPAVCBitmap@@PAV2@@Z ; CDC::SelectObject

; 549  : 	dcBmp.RestoreDC( iSaveDC );

  0197b	8b 4d b0	 mov	 ecx, DWORD PTR _iSaveDC$[ebp]
  0197e	51		 push	 ecx
  0197f	8d 4d d0	 lea	 ecx, DWORD PTR _dcBmp$[ebp]
  01982	e8 00 00 00 00	 call	 ?RestoreDC@CDC@@UAEHH@Z	; CDC::RestoreDC

; 550  : 
; 551  : 	DeleteDC(dcBmp);

  01987	8d 4d d0	 lea	 ecx, DWORD PTR _dcBmp$[ebp]
  0198a	e8 00 00 00 00	 call	 ??BCDC@@QBEPAUHDC__@@XZ	; CDC::operator HDC__ *
  0198f	8b f4		 mov	 esi, esp
  01991	50		 push	 eax
  01992	ff 15 00 00 00
	00		 call	 DWORD PTR __imp__DeleteDC@4
  01998	3b f4		 cmp	 esi, esp
  0199a	e8 00 00 00 00	 call	 __RTC_CheckEsp

; 552  : 	hBitmapBmp.DeleteObject();

  0199f	8d 4d a4	 lea	 ecx, DWORD PTR _hBitmapBmp$[ebp]
  019a2	e8 00 00 00 00	 call	 ?DeleteObject@CGdiObject@@QAEHXZ ; CGdiObject::DeleteObject

; 553  : }

  019a7	c6 45 fc 01	 mov	 BYTE PTR __$EHRec$[ebp+8], 1
  019ab	8d 4d a4	 lea	 ecx, DWORD PTR _hBitmapBmp$[ebp]
  019ae	e8 00 00 00 00	 call	 ??1CBitmap@@UAE@XZ	; CBitmap::~CBitmap
  019b3	c6 45 fc 00	 mov	 BYTE PTR __$EHRec$[ebp+8], 0
  019b7	8d 4d b8	 lea	 ecx, DWORD PTR _dcMask$[ebp]
  019ba	e8 00 00 00 00	 call	 ??1CDC@@UAE@XZ		; CDC::~CDC
  019bf	c7 45 fc ff ff
	ff ff		 mov	 DWORD PTR __$EHRec$[ebp+8], -1
  019c6	8d 4d d0	 lea	 ecx, DWORD PTR _dcBmp$[ebp]
  019c9	e8 00 00 00 00	 call	 ??1CDC@@UAE@XZ		; CDC::~CDC
$L187565:
  019ce	52		 push	 edx
  019cf	8b cd		 mov	 ecx, ebp
  019d1	50		 push	 eax
  019d2	8d 15 00 00 00
	00		 lea	 edx, DWORD PTR $L188629
  019d8	e8 00 00 00 00	 call	 @_RTC_CheckStackVars@8
  019dd	58		 pop	 eax
  019de	5a		 pop	 edx
  019df	8b 4d f4	 mov	 ecx, DWORD PTR __$EHRec$[ebp]
  019e2	64 89 0d 00 00
	00 00		 mov	 DWORD PTR fs:__except_list, ecx
  019e9	5f		 pop	 edi
  019ea	5e		 pop	 esi
  019eb	81 c4 d4 00 00
	00		 add	 esp, 212		; 000000d4H
  019f1	3b ec		 cmp	 ebp, esp
  019f3	e8 00 00 00 00	 call	 __RTC_CheckEsp
  019f8	8b e5		 mov	 esp, ebp
  019fa	5d		 pop	 ebp
  019fb	c2 1c 00	 ret	 28			; 0000001cH
$L188629:
  019fe	06 00 00 00	 DD	 6
  01a02	00 00 00 00	 DD	 $L188628
$L188628:
  01a06	d0 ff ff ff	 DD	 -48			; ffffffd0H
  01a0a	10 00 00 00	 DD	 16			; 00000010H
  01a0e	00 00 00 00	 DD	 $L188621
  01a12	b8 ff ff ff	 DD	 -72			; ffffffb8H
  01a16	10 00 00 00	 DD	 16			; 00000010H
  01a1a	00 00 00 00	 DD	 $L188622
  01a1e	a4 ff ff ff	 DD	 -92			; ffffffa4H
  01a22	08 00 00 00	 DD	 8
  01a26	00 00 00 00	 DD	 $L188623
  01a2a	8c ff ff ff	 DD	 -116			; ffffff8cH
  01a2e	08 00 00 00	 DD	 8
  01a32	00 00 00 00	 DD	 $L188624
  01a36	74 ff ff ff	 DD	 -140			; ffffff74H
  01a3a	10 00 00 00	 DD	 16			; 00000010H
  01a3e	00 00 00 00	 DD	 $L188625
  01a42	60 ff ff ff	 DD	 -160			; ffffff60H
  01a46	08 00 00 00	 DD	 8
  01a4a	00 00 00 00	 DD	 $L188626
$L188626:
  01a4e	68		 DB	 104			; 00000068H
  01a4f	42		 DB	 66			; 00000042H
  01a50	69		 DB	 105			; 00000069H
  01a51	74		 DB	 116			; 00000074H
  01a52	6d		 DB	 109			; 0000006dH
  01a53	61		 DB	 97			; 00000061H
  01a54	70		 DB	 112			; 00000070H
  01a55	00		 DB	 0
$L188625:
  01a56	68		 DB	 104			; 00000068H
  01a57	64		 DB	 100			; 00000064H
  01a58	63		 DB	 99			; 00000063H
  01a59	4d		 DB	 77			; 0000004dH
  01a5a	65		 DB	 101			; 00000065H
  01a5b	6d		 DB	 109			; 0000006dH
  01a5c	00		 DB	 0
$L188624:
  01a5d	68		 DB	 104			; 00000068H
  01a5e	42		 DB	 66			; 00000042H
  01a5f	69		 DB	 105			; 00000069H
  01a60	74		 DB	 116			; 00000074H
  01a61	6d		 DB	 109			; 0000006dH
  01a62	61		 DB	 97			; 00000061H
  01a63	70		 DB	 112			; 00000070H
  01a64	4d		 DB	 77			; 0000004dH
  01a65	61		 DB	 97			; 00000061H
  01a66	73		 DB	 115			; 00000073H
  01a67	6b		 DB	 107			; 0000006bH
  01a68	00		 DB	 0
$L188623:
  01a69	68		 DB	 104			; 00000068H
  01a6a	42		 DB	 66			; 00000042H
  01a6b	69		 DB	 105			; 00000069H
  01a6c	74		 DB	 116			; 00000074H
  01a6d	6d		 DB	 109			; 0000006dH
  01a6e	61		 DB	 97			; 00000061H
  01a6f	70		 DB	 112			; 00000070H
  01a70	42		 DB	 66			; 00000042H
  01a71	6d		 DB	 109			; 0000006dH
  01a72	70		 DB	 112			; 00000070H
  01a73	00		 DB	 0
$L188622:
  01a74	64		 DB	 100			; 00000064H
  01a75	63		 DB	 99			; 00000063H
  01a76	4d		 DB	 77			; 0000004dH
  01a77	61		 DB	 97			; 00000061H
  01a78	73		 DB	 115			; 00000073H
  01a79	6b		 DB	 107			; 0000006bH
  01a7a	00		 DB	 0
$L188621:
  01a7b	64		 DB	 100			; 00000064H
  01a7c	63		 DB	 99			; 00000063H
  01a7d	42		 DB	 66			; 00000042H
  01a7e	6d		 DB	 109			; 0000006dH
  01a7f	70		 DB	 112			; 00000070H
  01a80	00		 DB	 0
_TEXT	ENDS
text$x	SEGMENT
$L188613:
  0009c	8d 4d d0	 lea	 ecx, DWORD PTR _dcBmp$[ebp]
  0009f	e9 00 00 00 00	 jmp	 ??1CDC@@UAE@XZ		; CDC::~CDC
$L188614:
  000a4	8d 4d b8	 lea	 ecx, DWORD PTR _dcMask$[ebp]
  000a7	e9 00 00 00 00	 jmp	 ??1CDC@@UAE@XZ		; CDC::~CDC
$L188615:
  000ac	8d 4d a4	 lea	 ecx, DWORD PTR _hBitmapBmp$[ebp]
  000af	e9 00 00 00 00	 jmp	 ??1CBitmap@@UAE@XZ	; CBitmap::~CBitmap
$L188616:
  000b4	8d 4d 8c	 lea	 ecx, DWORD PTR _hBitmapMask$187580[ebp]
  000b7	e9 00 00 00 00	 jmp	 ??1CBitmap@@UAE@XZ	; CBitmap::~CBitmap
$L188617:
  000bc	8d 8d 74 ff ff
	ff		 lea	 ecx, DWORD PTR _hdcMem$187582[ebp]
  000c2	e9 00 00 00 00	 jmp	 ??1CDC@@UAE@XZ		; CDC::~CDC
$L188618:
  000c7	8d 8d 60 ff ff
	ff		 lea	 ecx, DWORD PTR _hBitmap$187584[ebp]
  000cd	e9 00 00 00 00	 jmp	 ??1CBitmap@@UAE@XZ	; CBitmap::~CBitmap
__ehhandler$?DrawBitmap@CxSkinButton@@QAEXPAVCDC@@PAVCDibBitmap@@UtagRECT@@H@Z:
  000d2	b8 00 00 00 00	 mov	 eax, OFFSET FLAT:$T188620
  000d7	e9 00 00 00 00	 jmp	 ___CxxFrameHandler
text$x	ENDS
?DrawBitmap@CxSkinButton@@QAEXPAVCDC@@PAVCDibBitmap@@UtagRECT@@H@Z ENDP ; CxSkinButton::DrawBitmap
xdata$x	SEGMENT
$T188642 DD	0ffffffffH
	DD	FLAT:$L188633
	DD	00H
	DD	FLAT:$L188634
$T188636 DD	019930520H
	DD	02H
	DD	FLAT:$T188642
	DD	2 DUP(00H)
	DD	2 DUP(00H)
; Function compile flags: /Odt /RTCsu
xdata$x	ENDS
_TEXT	SEGMENT
$T188632 = -100						; size = 16
_by$ = -84						; size = 4
_bx$ = -80						; size = 4
_z$ = -76						; size = 4
_y$ = -72						; size = 4
_x$ = -68						; size = 4
_h$ = -64						; size = 4
_w$ = -60						; size = 4
_hBitmapBmp$ = -52					; size = 8
_memdc$ = -36						; size = 16
_this$ = -16						; size = 4
__$EHRec$ = -12						; size = 12
_dc$ = 8						; size = 4
_hbmp$ = 12						; size = 4
_r$ = 16						; size = 16
?FillWithBitmap@CxSkinButton@@QAEXPAVCDC@@PAVCDibBitmap@@UtagRECT@@@Z PROC NEAR ; CxSkinButton::FillWithBitmap
; _this$ = ecx

; 556  : {

  01a90	55		 push	 ebp
  01a91	8b ec		 mov	 ebp, esp
  01a93	6a ff		 push	 -1
  01a95	68 00 00 00 00	 push	 __ehhandler$?FillWithBitmap@CxSkinButton@@QAEXPAVCDC@@PAVCDibBitmap@@UtagRECT@@@Z
  01a9a	64 a1 00 00 00
	00		 mov	 eax, DWORD PTR fs:__except_list
  01aa0	50		 push	 eax
  01aa1	64 89 25 00 00
	00 00		 mov	 DWORD PTR fs:__except_list, esp
  01aa8	83 ec 58	 sub	 esp, 88			; 00000058H
  01aab	56		 push	 esi
  01aac	57		 push	 edi
  01aad	51		 push	 ecx
  01aae	8d 7d 9c	 lea	 edi, DWORD PTR [ebp-100]
  01ab1	b9 16 00 00 00	 mov	 ecx, 22			; 00000016H
  01ab6	b8 cc cc cc cc	 mov	 eax, -858993460		; ccccccccH
  01abb	f3 ab		 rep stosd
  01abd	59		 pop	 ecx
  01abe	89 4d f0	 mov	 DWORD PTR _this$[ebp], ecx

; 557  : 	if(!hbmp) return;

  01ac1	83 7d 0c 00	 cmp	 DWORD PTR _hbmp$[ebp], 0
  01ac5	75 05		 jne	 SHORT $L187610
  01ac7	e9 9f 01 00 00	 jmp	 $L187609
$L187610:

; 558  : 	CDC memdc;

  01acc	8d 4d dc	 lea	 ecx, DWORD PTR _memdc$[ebp]
  01acf	e8 00 00 00 00	 call	 ??0CDC@@QAE@XZ		; CDC::CDC
  01ad4	c7 45 fc 00 00
	00 00		 mov	 DWORD PTR __$EHRec$[ebp+8], 0

; 559  : 	memdc.CreateCompatibleDC(dc);

  01adb	8b 45 08	 mov	 eax, DWORD PTR _dc$[ebp]
  01ade	50		 push	 eax
  01adf	8d 4d dc	 lea	 ecx, DWORD PTR _memdc$[ebp]
  01ae2	e8 00 00 00 00	 call	 ?CreateCompatibleDC@CDC@@QAEHPAV1@@Z ; CDC::CreateCompatibleDC

; 560  : 	CBitmap hBitmapBmp;                     //

  01ae7	8d 4d cc	 lea	 ecx, DWORD PTR _hBitmapBmp$[ebp]
  01aea	e8 00 00 00 00	 call	 ??0CBitmap@@QAE@XZ	; CBitmap::CBitmap
  01aef	c6 45 fc 01	 mov	 BYTE PTR __$EHRec$[ebp+8], 1

; 561  : 	hBitmapBmp.CreateCompatibleBitmap(dc,hbmp->m_lpBMIH->biWidth,hbmp->m_lpBMIH->biHeight);

  01af3	8b 4d 0c	 mov	 ecx, DWORD PTR _hbmp$[ebp]
  01af6	8b 51 04	 mov	 edx, DWORD PTR [ecx+4]
  01af9	8b 42 08	 mov	 eax, DWORD PTR [edx+8]
  01afc	50		 push	 eax
  01afd	8b 4d 0c	 mov	 ecx, DWORD PTR _hbmp$[ebp]
  01b00	8b 51 04	 mov	 edx, DWORD PTR [ecx+4]
  01b03	8b 42 04	 mov	 eax, DWORD PTR [edx+4]
  01b06	50		 push	 eax
  01b07	8b 4d 08	 mov	 ecx, DWORD PTR _dc$[ebp]
  01b0a	51		 push	 ecx
  01b0b	8d 4d cc	 lea	 ecx, DWORD PTR _hBitmapBmp$[ebp]
  01b0e	e8 00 00 00 00	 call	 ?CreateCompatibleBitmap@CBitmap@@QAEHPAVCDC@@HH@Z ; CBitmap::CreateCompatibleBitmap

; 562  : 	memdc.SelectObject(&hBitmapBmp);

  01b13	8d 55 cc	 lea	 edx, DWORD PTR _hBitmapBmp$[ebp]
  01b16	52		 push	 edx
  01b17	8d 4d dc	 lea	 ecx, DWORD PTR _memdc$[ebp]
  01b1a	e8 00 00 00 00	 call	 ?SelectObject@CDC@@QAEPAVCBitmap@@PAV2@@Z ; CDC::SelectObject

; 563  : 	hbmp->SetCDibRect(CRect(0,0,hbmp->m_lpBMIH->biWidth,hbmp->m_lpBMIH->biHeight));

  01b1f	8b 45 0c	 mov	 eax, DWORD PTR _hbmp$[ebp]
  01b22	8b 48 04	 mov	 ecx, DWORD PTR [eax+4]
  01b25	8b 51 08	 mov	 edx, DWORD PTR [ecx+8]
  01b28	52		 push	 edx
  01b29	8b 45 0c	 mov	 eax, DWORD PTR _hbmp$[ebp]
  01b2c	8b 48 04	 mov	 ecx, DWORD PTR [eax+4]
  01b2f	8b 51 04	 mov	 edx, DWORD PTR [ecx+4]
  01b32	52		 push	 edx
  01b33	6a 00		 push	 0
  01b35	6a 00		 push	 0
  01b37	8d 4d 9c	 lea	 ecx, DWORD PTR $T188632[ebp]
  01b3a	e8 00 00 00 00	 call	 ??0CRect@@QAE@HHHH@Z	; CRect::CRect
  01b3f	83 ec 10	 sub	 esp, 16			; 00000010H
  01b42	8b cc		 mov	 ecx, esp
  01b44	8b 10		 mov	 edx, DWORD PTR [eax]
  01b46	89 11		 mov	 DWORD PTR [ecx], edx
  01b48	8b 50 04	 mov	 edx, DWORD PTR [eax+4]
  01b4b	89 51 04	 mov	 DWORD PTR [ecx+4], edx
  01b4e	8b 50 08	 mov	 edx, DWORD PTR [eax+8]
  01b51	89 51 08	 mov	 DWORD PTR [ecx+8], edx
  01b54	8b 40 0c	 mov	 eax, DWORD PTR [eax+12]
  01b57	89 41 0c	 mov	 DWORD PTR [ecx+12], eax
  01b5a	8b 4d 0c	 mov	 ecx, DWORD PTR _hbmp$[ebp]
  01b5d	e8 00 00 00 00	 call	 ?SetCDibRect@CDibBitmap@@QAEXVCRect@@@Z ; CDibBitmap::SetCDibRect

; 564  : 	hbmp->Draw(&memdc,FALSE);

  01b62	6a 01		 push	 1
  01b64	6a 00		 push	 0
  01b66	6a 00		 push	 0
  01b68	8d 4d dc	 lea	 ecx, DWORD PTR _memdc$[ebp]
  01b6b	51		 push	 ecx
  01b6c	8b 4d 0c	 mov	 ecx, DWORD PTR _hbmp$[ebp]
  01b6f	e8 00 00 00 00	 call	 ?Draw@CDibBitmap@@QAEHPAVCDC@@HKH@Z ; CDibBitmap::Draw

; 565  : 
; 566  : 	int w = r.right - r.left;

  01b74	8b 55 18	 mov	 edx, DWORD PTR _r$[ebp+8]
  01b77	2b 55 10	 sub	 edx, DWORD PTR _r$[ebp]
  01b7a	89 55 c4	 mov	 DWORD PTR _w$[ebp], edx

; 567  : 	int	h = r.bottom - r.top;

  01b7d	8b 45 1c	 mov	 eax, DWORD PTR _r$[ebp+12]
  01b80	2b 45 14	 sub	 eax, DWORD PTR _r$[ebp+4]
  01b83	89 45 c0	 mov	 DWORD PTR _h$[ebp], eax

; 568  : 	int x,y,z;
; 569  : 	int	bx=GetBitmapWidth(hbmp);

  01b86	8b 4d 0c	 mov	 ecx, DWORD PTR _hbmp$[ebp]
  01b89	51		 push	 ecx
  01b8a	8b 4d f0	 mov	 ecx, DWORD PTR _this$[ebp]
  01b8d	e8 00 00 00 00	 call	 ?GetBitmapWidth@CxSkinButton@@QAEHPAVCDibBitmap@@@Z ; CxSkinButton::GetBitmapWidth
  01b92	89 45 b0	 mov	 DWORD PTR _bx$[ebp], eax

; 570  : 	int	by=GetBitmapHeight(hbmp);

  01b95	8b 55 0c	 mov	 edx, DWORD PTR _hbmp$[ebp]
  01b98	52		 push	 edx
  01b99	8b 4d f0	 mov	 ecx, DWORD PTR _this$[ebp]
  01b9c	e8 00 00 00 00	 call	 ?GetBitmapHeight@CxSkinButton@@QAEHPAVCDibBitmap@@@Z ; CxSkinButton::GetBitmapHeight
  01ba1	89 45 ac	 mov	 DWORD PTR _by$[ebp], eax

; 571  : 	for (y = r.top ; y < h ; y += by){

  01ba4	8b 45 14	 mov	 eax, DWORD PTR _r$[ebp+4]
  01ba7	89 45 b8	 mov	 DWORD PTR _y$[ebp], eax
  01baa	eb 09		 jmp	 SHORT $L187621
$L187622:
  01bac	8b 4d b8	 mov	 ecx, DWORD PTR _y$[ebp]
  01baf	03 4d ac	 add	 ecx, DWORD PTR _by$[ebp]
  01bb2	89 4d b8	 mov	 DWORD PTR _y$[ebp], ecx
$L187621:
  01bb5	8b 55 b8	 mov	 edx, DWORD PTR _y$[ebp]
  01bb8	3b 55 c0	 cmp	 edx, DWORD PTR _h$[ebp]
  01bbb	7d 73		 jge	 SHORT $L187623

; 572  : 		if ((y+by)>h) by=h-y;

  01bbd	8b 45 b8	 mov	 eax, DWORD PTR _y$[ebp]
  01bc0	03 45 ac	 add	 eax, DWORD PTR _by$[ebp]
  01bc3	3b 45 c0	 cmp	 eax, DWORD PTR _h$[ebp]
  01bc6	7e 09		 jle	 SHORT $L187624
  01bc8	8b 4d c0	 mov	 ecx, DWORD PTR _h$[ebp]
  01bcb	2b 4d b8	 sub	 ecx, DWORD PTR _y$[ebp]
  01bce	89 4d ac	 mov	 DWORD PTR _by$[ebp], ecx
$L187624:

; 573  : 		z=bx;

  01bd1	8b 55 b0	 mov	 edx, DWORD PTR _bx$[ebp]
  01bd4	89 55 b4	 mov	 DWORD PTR _z$[ebp], edx

; 574  : 		for (x = r.left ; x < w ; x += z){

  01bd7	8b 45 10	 mov	 eax, DWORD PTR _r$[ebp]
  01bda	89 45 bc	 mov	 DWORD PTR _x$[ebp], eax
  01bdd	eb 09		 jmp	 SHORT $L187625
$L187626:
  01bdf	8b 4d bc	 mov	 ecx, DWORD PTR _x$[ebp]
  01be2	03 4d b4	 add	 ecx, DWORD PTR _z$[ebp]
  01be5	89 4d bc	 mov	 DWORD PTR _x$[ebp], ecx
$L187625:
  01be8	8b 55 bc	 mov	 edx, DWORD PTR _x$[ebp]
  01beb	3b 55 c4	 cmp	 edx, DWORD PTR _w$[ebp]
  01bee	7d 3b		 jge	 SHORT $L187627

; 575  : 			if ((x+z)>w) z=w-x;

  01bf0	8b 45 bc	 mov	 eax, DWORD PTR _x$[ebp]
  01bf3	03 45 b4	 add	 eax, DWORD PTR _z$[ebp]
  01bf6	3b 45 c4	 cmp	 eax, DWORD PTR _w$[ebp]
  01bf9	7e 09		 jle	 SHORT $L187628
  01bfb	8b 4d c4	 mov	 ecx, DWORD PTR _w$[ebp]
  01bfe	2b 4d bc	 sub	 ecx, DWORD PTR _x$[ebp]
  01c01	89 4d b4	 mov	 DWORD PTR _z$[ebp], ecx
$L187628:

; 576  : 			dc->BitBlt(x, y, z, by, &memdc, 0, 0, SRCCOPY);

  01c04	68 20 00 cc 00	 push	 13369376		; 00cc0020H
  01c09	6a 00		 push	 0
  01c0b	6a 00		 push	 0
  01c0d	8d 55 dc	 lea	 edx, DWORD PTR _memdc$[ebp]
  01c10	52		 push	 edx
  01c11	8b 45 ac	 mov	 eax, DWORD PTR _by$[ebp]
  01c14	50		 push	 eax
  01c15	8b 4d b4	 mov	 ecx, DWORD PTR _z$[ebp]
  01c18	51		 push	 ecx
  01c19	8b 55 b8	 mov	 edx, DWORD PTR _y$[ebp]
  01c1c	52		 push	 edx
  01c1d	8b 45 bc	 mov	 eax, DWORD PTR _x$[ebp]
  01c20	50		 push	 eax
  01c21	8b 4d 08	 mov	 ecx, DWORD PTR _dc$[ebp]
  01c24	e8 00 00 00 00	 call	 ?BitBlt@CDC@@QAEHHHHHPAV1@HHK@Z ; CDC::BitBlt

; 577  : 		}

  01c29	eb b4		 jmp	 SHORT $L187626
$L187627:

; 578  : 	}

  01c2b	e9 7c ff ff ff	 jmp	 $L187622
$L187623:

; 579  : 	hBitmapBmp.DeleteObject();

  01c30	8d 4d cc	 lea	 ecx, DWORD PTR _hBitmapBmp$[ebp]
  01c33	e8 00 00 00 00	 call	 ?DeleteObject@CGdiObject@@QAEHXZ ; CGdiObject::DeleteObject

; 580  : 	DeleteDC(memdc);

  01c38	8d 4d dc	 lea	 ecx, DWORD PTR _memdc$[ebp]
  01c3b	e8 00 00 00 00	 call	 ??BCDC@@QBEPAUHDC__@@XZ	; CDC::operator HDC__ *
  01c40	8b f4		 mov	 esi, esp
  01c42	50		 push	 eax
  01c43	ff 15 00 00 00
	00		 call	 DWORD PTR __imp__DeleteDC@4
  01c49	3b f4		 cmp	 esi, esp
  01c4b	e8 00 00 00 00	 call	 __RTC_CheckEsp

; 581  : }

  01c50	c6 45 fc 00	 mov	 BYTE PTR __$EHRec$[ebp+8], 0
  01c54	8d 4d cc	 lea	 ecx, DWORD PTR _hBitmapBmp$[ebp]
  01c57	e8 00 00 00 00	 call	 ??1CBitmap@@UAE@XZ	; CBitmap::~CBitmap
  01c5c	c7 45 fc ff ff
	ff ff		 mov	 DWORD PTR __$EHRec$[ebp+8], -1
  01c63	8d 4d dc	 lea	 ecx, DWORD PTR _memdc$[ebp]
  01c66	e8 00 00 00 00	 call	 ??1CDC@@UAE@XZ		; CDC::~CDC
$L187609:
  01c6b	52		 push	 edx
  01c6c	8b cd		 mov	 ecx, ebp
  01c6e	50		 push	 eax
  01c6f	8d 15 00 00 00
	00		 lea	 edx, DWORD PTR $L188641
  01c75	e8 00 00 00 00	 call	 @_RTC_CheckStackVars@8
  01c7a	58		 pop	 eax
  01c7b	5a		 pop	 edx
  01c7c	8b 4d f4	 mov	 ecx, DWORD PTR __$EHRec$[ebp]
  01c7f	64 89 0d 00 00
	00 00		 mov	 DWORD PTR fs:__except_list, ecx
  01c86	5f		 pop	 edi
  01c87	5e		 pop	 esi
  01c88	83 c4 64	 add	 esp, 100		; 00000064H
  01c8b	3b ec		 cmp	 ebp, esp
  01c8d	e8 00 00 00 00	 call	 __RTC_CheckEsp
  01c92	8b e5		 mov	 esp, ebp
  01c94	5d		 pop	 ebp
  01c95	c2 18 00	 ret	 24			; 00000018H
$L188641:
  01c98	02 00 00 00	 DD	 2
  01c9c	00 00 00 00	 DD	 $L188640
$L188640:
  01ca0	dc ff ff ff	 DD	 -36			; ffffffdcH
  01ca4	10 00 00 00	 DD	 16			; 00000010H
  01ca8	00 00 00 00	 DD	 $L188637
  01cac	cc ff ff ff	 DD	 -52			; ffffffccH
  01cb0	08 00 00 00	 DD	 8
  01cb4	00 00 00 00	 DD	 $L188638
$L188638:
  01cb8	68		 DB	 104			; 00000068H
  01cb9	42		 DB	 66			; 00000042H
  01cba	69		 DB	 105			; 00000069H
  01cbb	74		 DB	 116			; 00000074H
  01cbc	6d		 DB	 109			; 0000006dH
  01cbd	61		 DB	 97			; 00000061H
  01cbe	70		 DB	 112			; 00000070H
  01cbf	42		 DB	 66			; 00000042H
  01cc0	6d		 DB	 109			; 0000006dH
  01cc1	70		 DB	 112			; 00000070H
  01cc2	00		 DB	 0
$L188637:
  01cc3	6d		 DB	 109			; 0000006dH
  01cc4	65		 DB	 101			; 00000065H
  01cc5	6d		 DB	 109			; 0000006dH
  01cc6	64		 DB	 100			; 00000064H
  01cc7	63		 DB	 99			; 00000063H
  01cc8	00		 DB	 0
_TEXT	ENDS
text$x	SEGMENT
$L188633:
  000dc	8d 4d dc	 lea	 ecx, DWORD PTR _memdc$[ebp]
  000df	e9 00 00 00 00	 jmp	 ??1CDC@@UAE@XZ		; CDC::~CDC
$L188634:
  000e4	8d 4d cc	 lea	 ecx, DWORD PTR _hBitmapBmp$[ebp]
  000e7	e9 00 00 00 00	 jmp	 ??1CBitmap@@UAE@XZ	; CBitmap::~CBitmap
__ehhandler$?FillWithBitmap@CxSkinButton@@QAEXPAVCDC@@PAVCDibBitmap@@UtagRECT@@@Z:
  000ec	b8 00 00 00 00	 mov	 eax, OFFSET FLAT:$T188636
  000f1	e9 00 00 00 00	 jmp	 ___CxxFrameHandler
text$x	ENDS
?FillWithBitmap@CxSkinButton@@QAEXPAVCDC@@PAVCDibBitmap@@UtagRECT@@@Z ENDP ; CxSkinButton::FillWithBitmap
PUBLIC	?SetSkin@CxSkinButton@@QAEXPAVCDibBitmap@@00000FFF_N@Z ; CxSkinButton::SetSkin
EXTRN	__imp__SelectClipRgn@8:NEAR
EXTRN	?SetWindowRgn@CWnd@@QAEHPAUHRGN__@@H@Z:NEAR	; CWnd::SetWindowRgn
EXTRN	?SetWindowPos@CWnd@@QAEHPBV1@HHHHI@Z:NEAR	; CWnd::SetWindowPos
EXTRN	?ReleaseDC@CWnd@@QAEHPAVCDC@@@Z:NEAR		; CWnd::ReleaseDC
EXTRN	?Invalidate@CWnd@@QAEXH@Z:NEAR			; CWnd::Invalidate
; Function compile flags: /Odt /RTCsu
_TEXT	SEGMENT
tv90 = -24						; size = 4
tv81 = -20						; size = 4
tv82 = -16						; size = 4
tv76 = -12						; size = 4
_dc$187655 = -8						; size = 4
_this$ = -4						; size = 4
_normal$ = 8						; size = 4
_down$ = 12						; size = 4
_over$ = 16						; size = 4
_disabled$ = 20						; size = 4
_focus$ = 24						; size = 4
_mask$ = 28						; size = 4
_drawmode$ = 32						; size = 2
_border$ = 36						; size = 2
_margin$ = 40						; size = 2
_bSetSizeBySkin$ = 44					; size = 1
?SetSkin@CxSkinButton@@QAEXPAVCDibBitmap@@00000FFF_N@Z PROC NEAR ; CxSkinButton::SetSkin
; _this$ = ecx

; 585  : {

  01cd0	55		 push	 ebp
  01cd1	8b ec		 mov	 ebp, esp
  01cd3	83 ec 18	 sub	 esp, 24			; 00000018H
  01cd6	56		 push	 esi
  01cd7	b8 cc cc cc cc	 mov	 eax, -858993460		; ccccccccH
  01cdc	89 45 e8	 mov	 DWORD PTR [ebp-24], eax
  01cdf	89 45 ec	 mov	 DWORD PTR [ebp-20], eax
  01ce2	89 45 f0	 mov	 DWORD PTR [ebp-16], eax
  01ce5	89 45 f4	 mov	 DWORD PTR [ebp-12], eax
  01ce8	89 45 f8	 mov	 DWORD PTR [ebp-8], eax
  01ceb	89 45 fc	 mov	 DWORD PTR [ebp-4], eax
  01cee	89 4d fc	 mov	 DWORD PTR _this$[ebp], ecx

; 586  : 	m_bNormal = normal;

  01cf1	8b 45 fc	 mov	 eax, DWORD PTR _this$[ebp]
  01cf4	8b 4d 08	 mov	 ecx, DWORD PTR _normal$[ebp]
  01cf7	89 88 ec 00 00
	00		 mov	 DWORD PTR [eax+236], ecx

; 587  : 	m_bDown = down;

  01cfd	8b 55 fc	 mov	 edx, DWORD PTR _this$[ebp]
  01d00	8b 45 0c	 mov	 eax, DWORD PTR _down$[ebp]
  01d03	89 82 f0 00 00
	00		 mov	 DWORD PTR [edx+240], eax

; 588  : 	m_bOver = over;

  01d09	8b 4d fc	 mov	 ecx, DWORD PTR _this$[ebp]
  01d0c	8b 55 10	 mov	 edx, DWORD PTR _over$[ebp]
  01d0f	89 91 fc 00 00
	00		 mov	 DWORD PTR [ecx+252], edx

; 589  : 	m_bFocus = focus;

  01d15	8b 45 fc	 mov	 eax, DWORD PTR _this$[ebp]
  01d18	8b 4d 18	 mov	 ecx, DWORD PTR _focus$[ebp]
  01d1b	89 88 00 01 00
	00		 mov	 DWORD PTR [eax+256], ecx

; 590  : 	if( disabled == 0 )

  01d21	83 7d 14 00	 cmp	 DWORD PTR _disabled$[ebp], 0
  01d25	75 0e		 jne	 SHORT $L187643

; 591  : 		m_bDisabled = normal;

  01d27	8b 55 fc	 mov	 edx, DWORD PTR _this$[ebp]
  01d2a	8b 45 08	 mov	 eax, DWORD PTR _normal$[ebp]
  01d2d	89 82 f4 00 00
	00		 mov	 DWORD PTR [edx+244], eax

; 592  : 	else

  01d33	eb 0c		 jmp	 SHORT $L187644
$L187643:

; 593  : 		m_bDisabled = disabled;

  01d35	8b 4d fc	 mov	 ecx, DWORD PTR _this$[ebp]
  01d38	8b 55 14	 mov	 edx, DWORD PTR _disabled$[ebp]
  01d3b	89 91 f4 00 00
	00		 mov	 DWORD PTR [ecx+244], edx
$L187644:

; 594  : 
; 595  : 	m_bMask = mask;

  01d41	8b 45 fc	 mov	 eax, DWORD PTR _this$[ebp]
  01d44	8b 4d 1c	 mov	 ecx, DWORD PTR _mask$[ebp]
  01d47	89 88 f8 00 00
	00		 mov	 DWORD PTR [eax+248], ecx

; 596  : 
; 597  : 	m_DrawMode=max(0,min(drawmode,2));

  01d4d	0f bf 55 20	 movsx	 edx, WORD PTR _drawmode$[ebp]
  01d51	83 fa 02	 cmp	 edx, 2
  01d54	7d 09		 jge	 SHORT $L188644
  01d56	0f bf 45 20	 movsx	 eax, WORD PTR _drawmode$[ebp]
  01d5a	89 45 f4	 mov	 DWORD PTR tv76[ebp], eax
  01d5d	eb 07		 jmp	 SHORT $L188645
$L188644:
  01d5f	c7 45 f4 02 00
	00 00		 mov	 DWORD PTR tv76[ebp], 2
$L188645:
  01d66	83 7d f4 00	 cmp	 DWORD PTR tv76[ebp], 0
  01d6a	7d 09		 jge	 SHORT $L188648
  01d6c	c7 45 f0 00 00
	00 00		 mov	 DWORD PTR tv82[ebp], 0
  01d73	eb 1f		 jmp	 SHORT $L188649
$L188648:
  01d75	0f bf 4d 20	 movsx	 ecx, WORD PTR _drawmode$[ebp]
  01d79	83 f9 02	 cmp	 ecx, 2
  01d7c	7d 09		 jge	 SHORT $L188646
  01d7e	0f bf 55 20	 movsx	 edx, WORD PTR _drawmode$[ebp]
  01d82	89 55 ec	 mov	 DWORD PTR tv81[ebp], edx
  01d85	eb 07		 jmp	 SHORT $L188647
$L188646:
  01d87	c7 45 ec 02 00
	00 00		 mov	 DWORD PTR tv81[ebp], 2
$L188647:
  01d8e	8b 45 ec	 mov	 eax, DWORD PTR tv81[ebp]
  01d91	89 45 f0	 mov	 DWORD PTR tv82[ebp], eax
$L188649:
  01d94	8b 4d fc	 mov	 ecx, DWORD PTR _this$[ebp]
  01d97	66 8b 55 f0	 mov	 dx, WORD PTR tv82[ebp]
  01d9b	66 89 91 20 01
	00 00		 mov	 WORD PTR [ecx+288], dx

; 598  : 	m_Border=border;

  01da2	0f bf 45 24	 movsx	 eax, WORD PTR _border$[ebp]
  01da6	8b 4d fc	 mov	 ecx, DWORD PTR _this$[ebp]
  01da9	89 81 1c 01 00
	00		 mov	 DWORD PTR [ecx+284], eax

; 599  : 	m_FocusRectMargin=max(0,margin);

  01daf	0f bf 55 28	 movsx	 edx, WORD PTR _margin$[ebp]
  01db3	85 d2		 test	 edx, edx
  01db5	7d 09		 jge	 SHORT $L188650
  01db7	c7 45 e8 00 00
	00 00		 mov	 DWORD PTR tv90[ebp], 0
  01dbe	eb 07		 jmp	 SHORT $L188651
$L188650:
  01dc0	0f bf 45 28	 movsx	 eax, WORD PTR _margin$[ebp]
  01dc4	89 45 e8	 mov	 DWORD PTR tv90[ebp], eax
$L188651:
  01dc7	8b 4d fc	 mov	 ecx, DWORD PTR _this$[ebp]
  01dca	66 8b 55 e8	 mov	 dx, WORD PTR tv90[ebp]
  01dce	66 89 91 04 01
	00 00		 mov	 WORD PTR [ecx+260], dx

; 600  : 	
; 601  : 	if(this->m_hWnd == NULL)

  01dd5	8b 45 fc	 mov	 eax, DWORD PTR _this$[ebp]
  01dd8	83 78 20 00	 cmp	 DWORD PTR [eax+32], 0
  01ddc	75 05		 jne	 SHORT $L187645

; 602  : 		return;

  01dde	e9 5d 01 00 00	 jmp	 $L187642
$L187645:

; 603  : 
; 604  : 	//if (m_bMask==0 && m_bSetMask){	
; 605  : 	//	m_bMask = normal;//hClipRgn = CreateRegionFromDib(normal,0);
; 606  : 	//}
; 607  : 
; 608  : 	if (m_bMask!=0 && m_bMask->is_Loaded){		

  01de3	8b 4d fc	 mov	 ecx, DWORD PTR _this$[ebp]
  01de6	83 b9 f8 00 00
	00 00		 cmp	 DWORD PTR [ecx+248], 0
  01ded	0f 84 f7 00 00
	00		 je	 $L187646
  01df3	8b 55 fc	 mov	 edx, DWORD PTR _this$[ebp]
  01df6	8b 82 f8 00 00
	00		 mov	 eax, DWORD PTR [edx+248]
  01dfc	0f b6 48 5c	 movzx	 ecx, BYTE PTR [eax+92]
  01e00	85 c9		 test	 ecx, ecx
  01e02	0f 84 e2 00 00
	00		 je	 $L187646

; 609  : 		if (hClipRgn) DeleteObject(hClipRgn);

  01e08	8b 55 fc	 mov	 edx, DWORD PTR _this$[ebp]
  01e0b	83 ba 18 01 00
	00 00		 cmp	 DWORD PTR [edx+280], 0
  01e12	74 19		 je	 SHORT $L187647
  01e14	8b f4		 mov	 esi, esp
  01e16	8b 45 fc	 mov	 eax, DWORD PTR _this$[ebp]
  01e19	8b 88 18 01 00
	00		 mov	 ecx, DWORD PTR [eax+280]
  01e1f	51		 push	 ecx
  01e20	ff 15 00 00 00
	00		 call	 DWORD PTR __imp__DeleteObject@4
  01e26	3b f4		 cmp	 esi, esp
  01e28	e8 00 00 00 00	 call	 __RTC_CheckEsp
$L187647:

; 610  : 
; 611  : 		hClipRgn = CreateRegionFromDib(m_bMask, RGB(255,255,255));//m_bMask->CreateRgnFromBitmap(RGB(255,255,255), this->GetDC());//CreateRgnFromBitmap(m_bMask,RGB(255,255,255));

  01e2d	68 ff ff ff 00	 push	 16777215		; 00ffffffH
  01e32	8b 55 fc	 mov	 edx, DWORD PTR _this$[ebp]
  01e35	8b 82 f8 00 00
	00		 mov	 eax, DWORD PTR [edx+248]
  01e3b	50		 push	 eax
  01e3c	8b 4d fc	 mov	 ecx, DWORD PTR _this$[ebp]
  01e3f	e8 00 00 00 00	 call	 ?CreateRegionFromDib@CxSkinButton@@QAEPAUHRGN__@@PAVCDibBitmap@@K@Z ; CxSkinButton::CreateRegionFromDib
  01e44	8b 4d fc	 mov	 ecx, DWORD PTR _this$[ebp]
  01e47	89 81 18 01 00
	00		 mov	 DWORD PTR [ecx+280], eax

; 612  : 
; 613  : 		if (hClipRgn){

  01e4d	8b 55 fc	 mov	 edx, DWORD PTR _this$[ebp]
  01e50	83 ba 18 01 00
	00 00		 cmp	 DWORD PTR [edx+280], 0
  01e57	74 4b		 je	 SHORT $L187654

; 614  : 			SetWindowRgn(hClipRgn, TRUE);

  01e59	6a 01		 push	 1
  01e5b	8b 45 fc	 mov	 eax, DWORD PTR _this$[ebp]
  01e5e	8b 88 18 01 00
	00		 mov	 ecx, DWORD PTR [eax+280]
  01e64	51		 push	 ecx
  01e65	8b 4d fc	 mov	 ecx, DWORD PTR _this$[ebp]
  01e68	e8 00 00 00 00	 call	 ?SetWindowRgn@CWnd@@QAEHPAUHRGN__@@H@Z ; CWnd::SetWindowRgn

; 615  : 			CDC* dc = GetDC();

  01e6d	8b 4d fc	 mov	 ecx, DWORD PTR _this$[ebp]
  01e70	e8 00 00 00 00	 call	 ?GetDC@CWnd@@QAEPAVCDC@@XZ ; CWnd::GetDC
  01e75	89 45 f8	 mov	 DWORD PTR _dc$187655[ebp], eax

; 616  : 			SelectClipRgn( dc->m_hDC ,hClipRgn);

  01e78	8b f4		 mov	 esi, esp
  01e7a	8b 55 fc	 mov	 edx, DWORD PTR _this$[ebp]
  01e7d	8b 82 18 01 00
	00		 mov	 eax, DWORD PTR [edx+280]
  01e83	50		 push	 eax
  01e84	8b 4d f8	 mov	 ecx, DWORD PTR _dc$187655[ebp]
  01e87	8b 51 04	 mov	 edx, DWORD PTR [ecx+4]
  01e8a	52		 push	 edx
  01e8b	ff 15 00 00 00
	00		 call	 DWORD PTR __imp__SelectClipRgn@8
  01e91	3b f4		 cmp	 esi, esp
  01e93	e8 00 00 00 00	 call	 __RTC_CheckEsp

; 617  : 			ReleaseDC( dc );

  01e98	8b 45 f8	 mov	 eax, DWORD PTR _dc$187655[ebp]
  01e9b	50		 push	 eax
  01e9c	8b 4d fc	 mov	 ecx, DWORD PTR _this$[ebp]
  01e9f	e8 00 00 00 00	 call	 ?ReleaseDC@CWnd@@QAEHPAVCDC@@@Z ; CWnd::ReleaseDC
$L187654:

; 618  : 		}
; 619  : 		if (m_DrawMode==0){

  01ea4	8b 4d fc	 mov	 ecx, DWORD PTR _this$[ebp]
  01ea7	0f bf 91 20 01
	00 00		 movsx	 edx, WORD PTR [ecx+288]
  01eae	85 d2		 test	 edx, edx
  01eb0	75 36		 jne	 SHORT $L187656

; 620  : 		SetWindowPos(NULL,0,0,GetBitmapWidth(m_bMask),
; 621  : 					GetBitmapHeight(m_bMask),SWP_NOZORDER|SWP_NOMOVE);

  01eb2	6a 06		 push	 6
  01eb4	8b 45 fc	 mov	 eax, DWORD PTR _this$[ebp]
  01eb7	8b 88 f8 00 00
	00		 mov	 ecx, DWORD PTR [eax+248]
  01ebd	51		 push	 ecx
  01ebe	8b 4d fc	 mov	 ecx, DWORD PTR _this$[ebp]
  01ec1	e8 00 00 00 00	 call	 ?GetBitmapHeight@CxSkinButton@@QAEHPAVCDibBitmap@@@Z ; CxSkinButton::GetBitmapHeight
  01ec6	50		 push	 eax
  01ec7	8b 55 fc	 mov	 edx, DWORD PTR _this$[ebp]
  01eca	8b 82 f8 00 00
	00		 mov	 eax, DWORD PTR [edx+248]
  01ed0	50		 push	 eax
  01ed1	8b 4d fc	 mov	 ecx, DWORD PTR _this$[ebp]
  01ed4	e8 00 00 00 00	 call	 ?GetBitmapWidth@CxSkinButton@@QAEHPAVCDibBitmap@@@Z ; CxSkinButton::GetBitmapWidth
  01ed9	50		 push	 eax
  01eda	6a 00		 push	 0
  01edc	6a 00		 push	 0
  01ede	6a 00		 push	 0
  01ee0	8b 4d fc	 mov	 ecx, DWORD PTR _this$[ebp]
  01ee3	e8 00 00 00 00	 call	 ?SetWindowPos@CWnd@@QAEHPBV1@HHHHI@Z ; CWnd::SetWindowPos
$L187656:

; 622  : 		}
; 623  : 	}
; 624  : 	else

  01ee8	eb 4c		 jmp	 SHORT $L187657
$L187646:

; 625  : 	{
; 626  : 		if (m_DrawMode==0 && bSetSizeBySkin){

  01eea	8b 4d fc	 mov	 ecx, DWORD PTR _this$[ebp]
  01eed	0f bf 91 20 01
	00 00		 movsx	 edx, WORD PTR [ecx+288]
  01ef4	85 d2		 test	 edx, edx
  01ef6	75 3e		 jne	 SHORT $L187657
  01ef8	0f b6 45 2c	 movzx	 eax, BYTE PTR _bSetSizeBySkin$[ebp]
  01efc	85 c0		 test	 eax, eax
  01efe	74 36		 je	 SHORT $L187657

; 627  : 			SetWindowPos(NULL,0,0,GetBitmapWidth(m_bNormal), GetBitmapHeight(m_bNormal),SWP_NOZORDER|SWP_NOMOVE);

  01f00	6a 06		 push	 6
  01f02	8b 4d fc	 mov	 ecx, DWORD PTR _this$[ebp]
  01f05	8b 91 ec 00 00
	00		 mov	 edx, DWORD PTR [ecx+236]
  01f0b	52		 push	 edx
  01f0c	8b 4d fc	 mov	 ecx, DWORD PTR _this$[ebp]
  01f0f	e8 00 00 00 00	 call	 ?GetBitmapHeight@CxSkinButton@@QAEHPAVCDibBitmap@@@Z ; CxSkinButton::GetBitmapHeight
  01f14	50		 push	 eax
  01f15	8b 45 fc	 mov	 eax, DWORD PTR _this$[ebp]
  01f18	8b 88 ec 00 00
	00		 mov	 ecx, DWORD PTR [eax+236]
  01f1e	51		 push	 ecx
  01f1f	8b 4d fc	 mov	 ecx, DWORD PTR _this$[ebp]
  01f22	e8 00 00 00 00	 call	 ?GetBitmapWidth@CxSkinButton@@QAEHPAVCDibBitmap@@@Z ; CxSkinButton::GetBitmapWidth
  01f27	50		 push	 eax
  01f28	6a 00		 push	 0
  01f2a	6a 00		 push	 0
  01f2c	6a 00		 push	 0
  01f2e	8b 4d fc	 mov	 ecx, DWORD PTR _this$[ebp]
  01f31	e8 00 00 00 00	 call	 ?SetWindowPos@CWnd@@QAEHPBV1@HHHHI@Z ; CWnd::SetWindowPos
$L187657:

; 628  : 		}
; 629  : 	}
; 630  : 	Invalidate(true);

  01f36	6a 01		 push	 1
  01f38	8b 4d fc	 mov	 ecx, DWORD PTR _this$[ebp]
  01f3b	e8 00 00 00 00	 call	 ?Invalidate@CWnd@@QAEXH@Z ; CWnd::Invalidate
$L187642:

; 631  : 
; 632  : }

  01f40	5e		 pop	 esi
  01f41	83 c4 18	 add	 esp, 24			; 00000018H
  01f44	3b ec		 cmp	 ebp, esp
  01f46	e8 00 00 00 00	 call	 __RTC_CheckEsp
  01f4b	8b e5		 mov	 esp, ebp
  01f4d	5d		 pop	 ebp
  01f4e	c2 28 00	 ret	 40			; 00000028H
?SetSkin@CxSkinButton@@QAEXPAVCDibBitmap@@00000FFF_N@Z ENDP ; CxSkinButton::SetSkin
_TEXT	ENDS
PUBLIC	?CreateRgnFromBitmap@CxSkinButton@@QAEPAUHRGN__@@PAVCDibBitmap@@K@Z ; CxSkinButton::CreateRgnFromBitmap
EXTRN	?GetPixel@CDC@@QBEKHH@Z:NEAR			; CDC::GetPixel
EXTRN	__imp__CombineRgn@16:NEAR
EXTRN	__imp__CreateRectRgn@16:NEAR
xdata$x	SEGMENT
$T188670 DD	0ffffffffH
	DD	FLAT:$L188662
$T188664 DD	019930520H
	DD	01H
	DD	FLAT:$T188670
	DD	2 DUP(00H)
	DD	2 DUP(00H)
; Function compile flags: /Odt /RTCsu
xdata$x	ENDS
_TEXT	SEGMENT
$T188661 = -164						; size = 4
$T188660 = -160						; size = 4
$T188656 = -156						; size = 4
$T188655 = -152						; size = 4
$T188654 = -148						; size = 16
$T188653 = -132						; size = 4
_hr$187715 = -128					; size = 4
_hRgn$ = -124						; size = 4
_pRgnDataNew$187698 = -120				; size = 4
_pixcolor$187690 = -116					; size = 4
_pRgnData$ = -112					; size = 4
_ismask$ = -106						; size = 1
_wasfirst$ = -105					; size = 1
_first$ = -104						; size = 4
_j$ = -100						; size = 4
_i$ = -96						; size = 4
_cBlocks$ = -92						; size = 4
_pRects$ = -88						; size = 4
_MAXBUF$ = -84						; size = 4
_RDHDR$ = -80						; size = 4
_dcBmp$ = -72						; size = 16
_bm$ = -48						; size = 24
_hBmp$ = -20						; size = 4
_this$ = -16						; size = 4
__$EHRec$ = -12						; size = 12
_hDib$ = 8						; size = 4
_color$ = 12						; size = 4
?CreateRgnFromBitmap@CxSkinButton@@QAEPAUHRGN__@@PAVCDibBitmap@@K@Z PROC NEAR ; CxSkinButton::CreateRgnFromBitmap
; _this$ = ecx

; 636  : {

  01f60	55		 push	 ebp
  01f61	8b ec		 mov	 ebp, esp
  01f63	6a ff		 push	 -1
  01f65	68 00 00 00 00	 push	 __ehhandler$?CreateRgnFromBitmap@CxSkinButton@@QAEPAUHRGN__@@PAVCDibBitmap@@K@Z
  01f6a	64 a1 00 00 00
	00		 mov	 eax, DWORD PTR fs:__except_list
  01f70	50		 push	 eax
  01f71	64 89 25 00 00
	00 00		 mov	 DWORD PTR fs:__except_list, esp
  01f78	81 ec 98 00 00
	00		 sub	 esp, 152		; 00000098H
  01f7e	56		 push	 esi
  01f7f	57		 push	 edi
  01f80	51		 push	 ecx
  01f81	8d bd 5c ff ff
	ff		 lea	 edi, DWORD PTR [ebp-164]
  01f87	b9 26 00 00 00	 mov	 ecx, 38			; 00000026H
  01f8c	b8 cc cc cc cc	 mov	 eax, -858993460		; ccccccccH
  01f91	f3 ab		 rep stosd
  01f93	59		 pop	 ecx
  01f94	89 4d f0	 mov	 DWORD PTR _this$[ebp], ecx

; 637  : 
; 638  : 	HBITMAP hBmp = hDib->CreateBitmap(this->GetDC());

  01f97	8b 4d f0	 mov	 ecx, DWORD PTR _this$[ebp]
  01f9a	e8 00 00 00 00	 call	 ?GetDC@CWnd@@QAEPAVCDC@@XZ ; CWnd::GetDC
  01f9f	50		 push	 eax
  01fa0	8b 4d 08	 mov	 ecx, DWORD PTR _hDib$[ebp]
  01fa3	e8 00 00 00 00	 call	 ?CreateBitmap@CDibBitmap@@QAEPAUHBITMAP__@@PAVCDC@@@Z ; CDibBitmap::CreateBitmap
  01fa8	89 45 ec	 mov	 DWORD PTR _hBmp$[ebp], eax

; 639  : 	BITMAP bm;
; 640  : 	GetObject( hBmp, sizeof(BITMAP), &bm );	// get bitmap attributes

  01fab	8b f4		 mov	 esi, esp
  01fad	8d 45 d0	 lea	 eax, DWORD PTR _bm$[ebp]
  01fb0	50		 push	 eax
  01fb1	6a 18		 push	 24			; 00000018H
  01fb3	8b 4d ec	 mov	 ecx, DWORD PTR _hBmp$[ebp]
  01fb6	51		 push	 ecx
  01fb7	ff 15 00 00 00
	00		 call	 DWORD PTR __imp__GetObjectA@12
  01fbd	3b f4		 cmp	 esi, esp
  01fbf	e8 00 00 00 00	 call	 __RTC_CheckEsp

; 641  : 
; 642  : 	CDC dcBmp;

  01fc4	8d 4d b8	 lea	 ecx, DWORD PTR _dcBmp$[ebp]
  01fc7	e8 00 00 00 00	 call	 ??0CDC@@QAE@XZ		; CDC::CDC
  01fcc	c7 45 fc 00 00
	00 00		 mov	 DWORD PTR __$EHRec$[ebp+8], 0

; 643  : 	dcBmp.CreateCompatibleDC(GetDC());	//Creates a memory device context for the bitmap

  01fd3	8b 4d f0	 mov	 ecx, DWORD PTR _this$[ebp]
  01fd6	e8 00 00 00 00	 call	 ?GetDC@CWnd@@QAEPAVCDC@@XZ ; CWnd::GetDC
  01fdb	50		 push	 eax
  01fdc	8d 4d b8	 lea	 ecx, DWORD PTR _dcBmp$[ebp]
  01fdf	e8 00 00 00 00	 call	 ?CreateCompatibleDC@CDC@@QAEHPAV1@@Z ; CDC::CreateCompatibleDC

; 644  : 	dcBmp.SelectObject(hBmp);			//selects the bitmap in the device context

  01fe4	8b 55 ec	 mov	 edx, DWORD PTR _hBmp$[ebp]
  01fe7	52		 push	 edx
  01fe8	8d 4d b8	 lea	 ecx, DWORD PTR _dcBmp$[ebp]
  01feb	e8 00 00 00 00	 call	 ?SelectObject@CDC@@QAEPAXPAX@Z ; CDC::SelectObject

; 645  : 
; 646  : 	const DWORD RDHDR = sizeof(RGNDATAHEADER);

  01ff0	c7 45 b0 20 00
	00 00		 mov	 DWORD PTR _RDHDR$[ebp], 32 ; 00000020H

; 647  : 	const DWORD MAXBUF = 40;		// size of one block in RECTs

  01ff7	c7 45 ac 28 00
	00 00		 mov	 DWORD PTR _MAXBUF$[ebp], 40 ; 00000028H

; 648  : 									// (i.e. MAXBUF*sizeof(RECT) in bytes)
; 649  : 	LPRECT	pRects;								
; 650  : 	DWORD	cBlocks = 0;			// number of allocated blocks

  01ffe	c7 45 a4 00 00
	00 00		 mov	 DWORD PTR _cBlocks$[ebp], 0

; 651  : 
; 652  : 	INT		i, j;					// current position in mask image
; 653  : 	INT		first = 0;				// left position of current scan line

  02005	c7 45 98 00 00
	00 00		 mov	 DWORD PTR _first$[ebp], 0

; 654  : 									// where mask was found
; 655  : 	bool	wasfirst = false;		// set when if mask was found in current scan line

  0200c	c6 45 97 00	 mov	 BYTE PTR _wasfirst$[ebp], 0

; 656  : 	bool	ismask;					// set when current color is mask color
; 657  : 
; 658  : 	// allocate memory for region data
; 659  : 	RGNDATAHEADER* pRgnData = (RGNDATAHEADER*)new BYTE[ RDHDR + ++cBlocks * MAXBUF * sizeof(RECT) ];

  02010	8b 45 a4	 mov	 eax, DWORD PTR _cBlocks$[ebp]
  02013	83 c0 01	 add	 eax, 1
  02016	89 45 a4	 mov	 DWORD PTR _cBlocks$[ebp], eax
  02019	68 93 02 00 00	 push	 659			; 00000293H
  0201e	68 00 00 00 00	 push	 OFFSET FLAT:_THIS_FILE
  02023	8b 4d a4	 mov	 ecx, DWORD PTR _cBlocks$[ebp]
  02026	6b c9 28	 imul	 ecx, 40			; 00000028H
  02029	c1 e1 04	 shl	 ecx, 4
  0202c	83 c1 20	 add	 ecx, 32			; 00000020H
  0202f	51		 push	 ecx
  02030	e8 00 00 00 00	 call	 ??_U@YAPAXIPBDH@Z	; operator new[]
  02035	83 c4 0c	 add	 esp, 12			; 0000000cH
  02038	89 85 7c ff ff
	ff		 mov	 DWORD PTR $T188653[ebp], eax
  0203e	8b 95 7c ff ff
	ff		 mov	 edx, DWORD PTR $T188653[ebp]
  02044	89 55 90	 mov	 DWORD PTR _pRgnData$[ebp], edx

; 660  : 	memset( pRgnData, 0, RDHDR + cBlocks * MAXBUF * sizeof(RECT) );

  02047	8b 45 a4	 mov	 eax, DWORD PTR _cBlocks$[ebp]
  0204a	6b c0 28	 imul	 eax, 40			; 00000028H
  0204d	c1 e0 04	 shl	 eax, 4
  02050	83 c0 20	 add	 eax, 32			; 00000020H
  02053	50		 push	 eax
  02054	6a 00		 push	 0
  02056	8b 4d 90	 mov	 ecx, DWORD PTR _pRgnData$[ebp]
  02059	51		 push	 ecx
  0205a	e8 00 00 00 00	 call	 _memset
  0205f	83 c4 0c	 add	 esp, 12			; 0000000cH

; 661  : 	// fill it by default
; 662  : 	pRgnData->dwSize	= RDHDR;

  02062	8b 55 90	 mov	 edx, DWORD PTR _pRgnData$[ebp]
  02065	c7 02 20 00 00
	00		 mov	 DWORD PTR [edx], 32	; 00000020H

; 663  : 	pRgnData->iType		= RDH_RECTANGLES;

  0206b	8b 45 90	 mov	 eax, DWORD PTR _pRgnData$[ebp]
  0206e	c7 40 04 01 00
	00 00		 mov	 DWORD PTR [eax+4], 1

; 664  : 	pRgnData->nCount	= 0;

  02075	8b 4d 90	 mov	 ecx, DWORD PTR _pRgnData$[ebp]
  02078	c7 41 08 00 00
	00 00		 mov	 DWORD PTR [ecx+8], 0

; 665  : 	for ( i = 0; i < bm.bmHeight; i++ )

  0207f	c7 45 a0 00 00
	00 00		 mov	 DWORD PTR _i$[ebp], 0
  02086	eb 09		 jmp	 SHORT $L187684
$L187685:
  02088	8b 55 a0	 mov	 edx, DWORD PTR _i$[ebp]
  0208b	83 c2 01	 add	 edx, 1
  0208e	89 55 a0	 mov	 DWORD PTR _i$[ebp], edx
$L187684:
  02091	8b 45 a0	 mov	 eax, DWORD PTR _i$[ebp]
  02094	3b 45 d8	 cmp	 eax, DWORD PTR _bm$[ebp+8]
  02097	0f 8d 94 01 00
	00		 jge	 $L187686

; 666  : 	for ( j = 0; j < bm.bmWidth; j++ ){

  0209d	c7 45 9c 00 00
	00 00		 mov	 DWORD PTR _j$[ebp], 0
  020a4	eb 09		 jmp	 SHORT $L187687
$L187688:
  020a6	8b 4d 9c	 mov	 ecx, DWORD PTR _j$[ebp]
  020a9	83 c1 01	 add	 ecx, 1
  020ac	89 4d 9c	 mov	 DWORD PTR _j$[ebp], ecx
$L187687:
  020af	8b 55 9c	 mov	 edx, DWORD PTR _j$[ebp]
  020b2	3b 55 d4	 cmp	 edx, DWORD PTR _bm$[ebp+4]
  020b5	0f 8d 71 01 00
	00		 jge	 $L187689

; 667  : 		// get color
; 668  : 		COLORREF pixcolor = dcBmp.GetPixel(j,bm.bmHeight-i-1);

  020bb	8b 45 d8	 mov	 eax, DWORD PTR _bm$[ebp+8]
  020be	2b 45 a0	 sub	 eax, DWORD PTR _i$[ebp]
  020c1	83 e8 01	 sub	 eax, 1
  020c4	50		 push	 eax
  020c5	8b 4d 9c	 mov	 ecx, DWORD PTR _j$[ebp]
  020c8	51		 push	 ecx
  020c9	8d 4d b8	 lea	 ecx, DWORD PTR _dcBmp$[ebp]
  020cc	e8 00 00 00 00	 call	 ?GetPixel@CDC@@QBEKHH@Z	; CDC::GetPixel
  020d1	89 45 8c	 mov	 DWORD PTR _pixcolor$187690[ebp], eax

; 669  : 		ismask=(pixcolor!=color);

  020d4	8b 55 8c	 mov	 edx, DWORD PTR _pixcolor$187690[ebp]
  020d7	33 c0		 xor	 eax, eax
  020d9	3b 55 0c	 cmp	 edx, DWORD PTR _color$[ebp]
  020dc	0f 95 c0	 setne	 al
  020df	88 45 96	 mov	 BYTE PTR _ismask$[ebp], al

; 670  : 		// place part of scan line as RECT region if transparent color found after mask color or
; 671  : 		// mask color found at the end of mask image
; 672  : 		if (wasfirst && ((ismask && (j==(bm.bmWidth-1)))||(ismask ^ (j<bm.bmWidth)))){

  020e2	0f b6 4d 97	 movzx	 ecx, BYTE PTR _wasfirst$[ebp]
  020e6	85 c9		 test	 ecx, ecx
  020e8	0f 84 1f 01 00
	00		 je	 $L187691
  020ee	0f b6 55 96	 movzx	 edx, BYTE PTR _ismask$[ebp]
  020f2	85 d2		 test	 edx, edx
  020f4	74 0b		 je	 SHORT $L187693
  020f6	8b 45 d4	 mov	 eax, DWORD PTR _bm$[ebp+4]
  020f9	83 e8 01	 sub	 eax, 1
  020fc	39 45 9c	 cmp	 DWORD PTR _j$[ebp], eax
  020ff	74 17		 je	 SHORT $L187692
$L187693:
  02101	0f b6 4d 96	 movzx	 ecx, BYTE PTR _ismask$[ebp]
  02105	8b 55 9c	 mov	 edx, DWORD PTR _j$[ebp]
  02108	33 c0		 xor	 eax, eax
  0210a	3b 55 d4	 cmp	 edx, DWORD PTR _bm$[ebp+4]
  0210d	0f 9c c0	 setl	 al
  02110	33 c8		 xor	 ecx, eax
  02112	0f 84 f5 00 00
	00		 je	 $L187691
$L187692:

; 673  : 			// get offset to RECT array if RGNDATA buffer
; 674  : 			pRects = (LPRECT)((LPBYTE)pRgnData + RDHDR);

  02118	8b 4d 90	 mov	 ecx, DWORD PTR _pRgnData$[ebp]
  0211b	83 c1 20	 add	 ecx, 32			; 00000020H
  0211e	89 4d a8	 mov	 DWORD PTR _pRects$[ebp], ecx

; 675  : 			// save current RECT
; 676  : 			pRects[ pRgnData->nCount++ ] = CRect( first, bm.bmHeight - i - 1, j+(j==(bm.bmWidth-1)), bm.bmHeight - i );

  02121	8b 55 d8	 mov	 edx, DWORD PTR _bm$[ebp+8]
  02124	2b 55 a0	 sub	 edx, DWORD PTR _i$[ebp]
  02127	52		 push	 edx
  02128	8b 45 d4	 mov	 eax, DWORD PTR _bm$[ebp+4]
  0212b	83 e8 01	 sub	 eax, 1
  0212e	33 c9		 xor	 ecx, ecx
  02130	39 45 9c	 cmp	 DWORD PTR _j$[ebp], eax
  02133	0f 94 c1	 sete	 cl
  02136	03 4d 9c	 add	 ecx, DWORD PTR _j$[ebp]
  02139	51		 push	 ecx
  0213a	8b 55 d8	 mov	 edx, DWORD PTR _bm$[ebp+8]
  0213d	2b 55 a0	 sub	 edx, DWORD PTR _i$[ebp]
  02140	83 ea 01	 sub	 edx, 1
  02143	52		 push	 edx
  02144	8b 45 98	 mov	 eax, DWORD PTR _first$[ebp]
  02147	50		 push	 eax
  02148	8d 8d 6c ff ff
	ff		 lea	 ecx, DWORD PTR $T188654[ebp]
  0214e	e8 00 00 00 00	 call	 ??0CRect@@QAE@HHHH@Z	; CRect::CRect
  02153	8b 4d 90	 mov	 ecx, DWORD PTR _pRgnData$[ebp]
  02156	8b 51 08	 mov	 edx, DWORD PTR [ecx+8]
  02159	c1 e2 04	 shl	 edx, 4
  0215c	03 55 a8	 add	 edx, DWORD PTR _pRects$[ebp]
  0215f	8b 08		 mov	 ecx, DWORD PTR [eax]
  02161	89 0a		 mov	 DWORD PTR [edx], ecx
  02163	8b 48 04	 mov	 ecx, DWORD PTR [eax+4]
  02166	89 4a 04	 mov	 DWORD PTR [edx+4], ecx
  02169	8b 48 08	 mov	 ecx, DWORD PTR [eax+8]
  0216c	89 4a 08	 mov	 DWORD PTR [edx+8], ecx
  0216f	8b 40 0c	 mov	 eax, DWORD PTR [eax+12]
  02172	89 42 0c	 mov	 DWORD PTR [edx+12], eax
  02175	8b 4d 90	 mov	 ecx, DWORD PTR _pRgnData$[ebp]
  02178	8b 51 08	 mov	 edx, DWORD PTR [ecx+8]
  0217b	83 c2 01	 add	 edx, 1
  0217e	8b 45 90	 mov	 eax, DWORD PTR _pRgnData$[ebp]
  02181	89 50 08	 mov	 DWORD PTR [eax+8], edx

; 677  : 			// if buffer full reallocate it
; 678  : 			if ( pRgnData->nCount >= cBlocks * MAXBUF ){

  02184	8b 4d a4	 mov	 ecx, DWORD PTR _cBlocks$[ebp]
  02187	6b c9 28	 imul	 ecx, 40			; 00000028H
  0218a	8b 55 90	 mov	 edx, DWORD PTR _pRgnData$[ebp]
  0218d	39 4a 08	 cmp	 DWORD PTR [edx+8], ecx
  02190	72 75		 jb	 SHORT $L187697

; 679  : 				LPBYTE pRgnDataNew = new BYTE[ RDHDR + ++cBlocks * MAXBUF * sizeof(RECT) ];

  02192	8b 45 a4	 mov	 eax, DWORD PTR _cBlocks$[ebp]
  02195	83 c0 01	 add	 eax, 1
  02198	89 45 a4	 mov	 DWORD PTR _cBlocks$[ebp], eax
  0219b	68 a7 02 00 00	 push	 679			; 000002a7H
  021a0	68 00 00 00 00	 push	 OFFSET FLAT:_THIS_FILE
  021a5	8b 4d a4	 mov	 ecx, DWORD PTR _cBlocks$[ebp]
  021a8	6b c9 28	 imul	 ecx, 40			; 00000028H
  021ab	c1 e1 04	 shl	 ecx, 4
  021ae	83 c1 20	 add	 ecx, 32			; 00000020H
  021b1	51		 push	 ecx
  021b2	e8 00 00 00 00	 call	 ??_U@YAPAXIPBDH@Z	; operator new[]
  021b7	83 c4 0c	 add	 esp, 12			; 0000000cH
  021ba	89 85 68 ff ff
	ff		 mov	 DWORD PTR $T188655[ebp], eax
  021c0	8b 95 68 ff ff
	ff		 mov	 edx, DWORD PTR $T188655[ebp]
  021c6	89 55 88	 mov	 DWORD PTR _pRgnDataNew$187698[ebp], edx

; 680  : 				memcpy( pRgnDataNew, pRgnData, RDHDR + (cBlocks - 1) * MAXBUF * sizeof(RECT) );

  021c9	8b 45 a4	 mov	 eax, DWORD PTR _cBlocks$[ebp]
  021cc	83 e8 01	 sub	 eax, 1
  021cf	6b c0 28	 imul	 eax, 40			; 00000028H
  021d2	c1 e0 04	 shl	 eax, 4
  021d5	83 c0 20	 add	 eax, 32			; 00000020H
  021d8	50		 push	 eax
  021d9	8b 4d 90	 mov	 ecx, DWORD PTR _pRgnData$[ebp]
  021dc	51		 push	 ecx
  021dd	8b 55 88	 mov	 edx, DWORD PTR _pRgnDataNew$187698[ebp]
  021e0	52		 push	 edx
  021e1	e8 00 00 00 00	 call	 _memcpy
  021e6	83 c4 0c	 add	 esp, 12			; 0000000cH

; 681  : 				delete pRgnData;

  021e9	8b 45 90	 mov	 eax, DWORD PTR _pRgnData$[ebp]
  021ec	89 85 64 ff ff
	ff		 mov	 DWORD PTR $T188656[ebp], eax
  021f2	8b 8d 64 ff ff
	ff		 mov	 ecx, DWORD PTR $T188656[ebp]
  021f8	51		 push	 ecx
  021f9	e8 00 00 00 00	 call	 ??3@YAXPAX@Z		; operator delete
  021fe	83 c4 04	 add	 esp, 4

; 682  : 				pRgnData = (RGNDATAHEADER*)pRgnDataNew;

  02201	8b 55 88	 mov	 edx, DWORD PTR _pRgnDataNew$187698[ebp]
  02204	89 55 90	 mov	 DWORD PTR _pRgnData$[ebp], edx
$L187697:

; 683  : 			}
; 684  : 			wasfirst = false;

  02207	c6 45 97 00	 mov	 BYTE PTR _wasfirst$[ebp], 0

; 685  : 		} else if ( !wasfirst && ismask ){		// set wasfirst when mask is found

  0220b	eb 1a		 jmp	 SHORT $L187705
$L187691:
  0220d	0f b6 45 97	 movzx	 eax, BYTE PTR _wasfirst$[ebp]
  02211	85 c0		 test	 eax, eax
  02213	75 12		 jne	 SHORT $L187705
  02215	0f b6 4d 96	 movzx	 ecx, BYTE PTR _ismask$[ebp]
  02219	85 c9		 test	 ecx, ecx
  0221b	74 0a		 je	 SHORT $L187705

; 686  : 			first = j;

  0221d	8b 55 9c	 mov	 edx, DWORD PTR _j$[ebp]
  02220	89 55 98	 mov	 DWORD PTR _first$[ebp], edx

; 687  : 			wasfirst = true;

  02223	c6 45 97 01	 mov	 BYTE PTR _wasfirst$[ebp], 1
$L187705:

; 688  : 		}
; 689  : 	}

  02227	e9 7a fe ff ff	 jmp	 $L187688
$L187689:
  0222c	e9 57 fe ff ff	 jmp	 $L187685
$L187686:

; 690  : 	dcBmp.DeleteDC();	//release the bitmap

  02231	8d 4d b8	 lea	 ecx, DWORD PTR _dcBmp$[ebp]
  02234	e8 00 00 00 00	 call	 ?DeleteDC@CDC@@QAEHXZ	; CDC::DeleteDC

; 691  : 	// create region
; 692  : /*  Under WinNT the ExtCreateRegion returns NULL (by Fable@aramszu.net) */
; 693  : //	HRGN hRgn = ExtCreateRegion( NULL, RDHDR + pRgnData->nCount * sizeof(RECT), (LPRGNDATA)pRgnData );
; 694  : /* ExtCreateRegion replacement { */
; 695  : 	HRGN hRgn=CreateRectRgn(0, 0, 0, 0);

  02239	8b f4		 mov	 esi, esp
  0223b	6a 00		 push	 0
  0223d	6a 00		 push	 0
  0223f	6a 00		 push	 0
  02241	6a 00		 push	 0
  02243	ff 15 00 00 00
	00		 call	 DWORD PTR __imp__CreateRectRgn@16
  02249	3b f4		 cmp	 esi, esp
  0224b	e8 00 00 00 00	 call	 __RTC_CheckEsp
  02250	89 45 84	 mov	 DWORD PTR _hRgn$[ebp], eax

; 696  : 	ASSERT( hRgn!=NULL );

  02253	83 7d 84 00	 cmp	 DWORD PTR _hRgn$[ebp], 0
  02257	75 14		 jne	 SHORT $L188657
  02259	68 b8 02 00 00	 push	 696			; 000002b8H
  0225e	68 00 00 00 00	 push	 OFFSET FLAT:_THIS_FILE
  02263	e8 00 00 00 00	 call	 ?AfxAssertFailedLine@@YGHPBDH@Z ; AfxAssertFailedLine
  02268	85 c0		 test	 eax, eax
  0226a	74 01		 je	 SHORT $L188657
  0226c	cc		 int	 3
$L188657:

; 697  : 	pRects = (LPRECT)((LPBYTE)pRgnData + RDHDR);

  0226d	8b 4d 90	 mov	 ecx, DWORD PTR _pRgnData$[ebp]
  02270	83 c1 20	 add	 ecx, 32			; 00000020H
  02273	89 4d a8	 mov	 DWORD PTR _pRects$[ebp], ecx

; 698  : 	for(i=0;i<(int)pRgnData->nCount;i++)

  02276	c7 45 a0 00 00
	00 00		 mov	 DWORD PTR _i$[ebp], 0
  0227d	eb 09		 jmp	 SHORT $L187712
$L187713:
  0227f	8b 55 a0	 mov	 edx, DWORD PTR _i$[ebp]
  02282	83 c2 01	 add	 edx, 1
  02285	89 55 a0	 mov	 DWORD PTR _i$[ebp], edx
$L187712:
  02288	8b 45 90	 mov	 eax, DWORD PTR _pRgnData$[ebp]
  0228b	8b 4d a0	 mov	 ecx, DWORD PTR _i$[ebp]
  0228e	3b 48 08	 cmp	 ecx, DWORD PTR [eax+8]
  02291	0f 8d 9c 00 00
	00		 jge	 $L187714

; 699  : 	{
; 700  : 		HRGN hr=CreateRectRgn(pRects[i].left, pRects[i].top, pRects[i].right, pRects[i].bottom);

  02297	8b 55 a0	 mov	 edx, DWORD PTR _i$[ebp]
  0229a	c1 e2 04	 shl	 edx, 4
  0229d	8b f4		 mov	 esi, esp
  0229f	8b 45 a8	 mov	 eax, DWORD PTR _pRects$[ebp]
  022a2	8b 4c 10 0c	 mov	 ecx, DWORD PTR [eax+edx+12]
  022a6	51		 push	 ecx
  022a7	8b 55 a0	 mov	 edx, DWORD PTR _i$[ebp]
  022aa	c1 e2 04	 shl	 edx, 4
  022ad	8b 45 a8	 mov	 eax, DWORD PTR _pRects$[ebp]
  022b0	8b 4c 10 08	 mov	 ecx, DWORD PTR [eax+edx+8]
  022b4	51		 push	 ecx
  022b5	8b 55 a0	 mov	 edx, DWORD PTR _i$[ebp]
  022b8	c1 e2 04	 shl	 edx, 4
  022bb	8b 45 a8	 mov	 eax, DWORD PTR _pRects$[ebp]
  022be	8b 4c 10 04	 mov	 ecx, DWORD PTR [eax+edx+4]
  022c2	51		 push	 ecx
  022c3	8b 55 a0	 mov	 edx, DWORD PTR _i$[ebp]
  022c6	c1 e2 04	 shl	 edx, 4
  022c9	8b 45 a8	 mov	 eax, DWORD PTR _pRects$[ebp]
  022cc	8b 0c 10	 mov	 ecx, DWORD PTR [eax+edx]
  022cf	51		 push	 ecx
  022d0	ff 15 00 00 00
	00		 call	 DWORD PTR __imp__CreateRectRgn@16
  022d6	3b f4		 cmp	 esi, esp
  022d8	e8 00 00 00 00	 call	 __RTC_CheckEsp
  022dd	89 45 80	 mov	 DWORD PTR _hr$187715[ebp], eax

; 701  : 		VERIFY(CombineRgn(hRgn, hRgn, hr, RGN_OR)!=ERROR);

  022e0	8b f4		 mov	 esi, esp
  022e2	6a 02		 push	 2
  022e4	8b 55 80	 mov	 edx, DWORD PTR _hr$187715[ebp]
  022e7	52		 push	 edx
  022e8	8b 45 84	 mov	 eax, DWORD PTR _hRgn$[ebp]
  022eb	50		 push	 eax
  022ec	8b 4d 84	 mov	 ecx, DWORD PTR _hRgn$[ebp]
  022ef	51		 push	 ecx
  022f0	ff 15 00 00 00
	00		 call	 DWORD PTR __imp__CombineRgn@16
  022f6	3b f4		 cmp	 esi, esp
  022f8	e8 00 00 00 00	 call	 __RTC_CheckEsp
  022fd	85 c0		 test	 eax, eax
  022ff	75 14		 jne	 SHORT $L188658
  02301	68 bd 02 00 00	 push	 701			; 000002bdH
  02306	68 00 00 00 00	 push	 OFFSET FLAT:_THIS_FILE
  0230b	e8 00 00 00 00	 call	 ?AfxAssertFailedLine@@YGHPBDH@Z ; AfxAssertFailedLine
  02310	85 c0		 test	 eax, eax
  02312	74 01		 je	 SHORT $L188658
  02314	cc		 int	 3
$L188658:

; 702  : 		if (hr) DeleteObject(hr);

  02315	83 7d 80 00	 cmp	 DWORD PTR _hr$187715[ebp], 0
  02319	74 13		 je	 SHORT $L187717
  0231b	8b f4		 mov	 esi, esp
  0231d	8b 45 80	 mov	 eax, DWORD PTR _hr$187715[ebp]
  02320	50		 push	 eax
  02321	ff 15 00 00 00
	00		 call	 DWORD PTR __imp__DeleteObject@4
  02327	3b f4		 cmp	 esi, esp
  02329	e8 00 00 00 00	 call	 __RTC_CheckEsp
$L187717:

; 703  : 	}

  0232e	e9 4c ff ff ff	 jmp	 $L187713
$L187714:

; 704  : 	ASSERT( hRgn!=NULL );

  02333	83 7d 84 00	 cmp	 DWORD PTR _hRgn$[ebp], 0
  02337	75 14		 jne	 SHORT $L188659
  02339	68 c0 02 00 00	 push	 704			; 000002c0H
  0233e	68 00 00 00 00	 push	 OFFSET FLAT:_THIS_FILE
  02343	e8 00 00 00 00	 call	 ?AfxAssertFailedLine@@YGHPBDH@Z ; AfxAssertFailedLine
  02348	85 c0		 test	 eax, eax
  0234a	74 01		 je	 SHORT $L188659
  0234c	cc		 int	 3
$L188659:

; 705  : /* } ExtCreateRegion replacement */
; 706  : 
; 707  : 	delete pRgnData;

  0234d	8b 55 90	 mov	 edx, DWORD PTR _pRgnData$[ebp]
  02350	89 95 60 ff ff
	ff		 mov	 DWORD PTR $T188660[ebp], edx
  02356	8b 85 60 ff ff
	ff		 mov	 eax, DWORD PTR $T188660[ebp]
  0235c	50		 push	 eax
  0235d	e8 00 00 00 00	 call	 ??3@YAXPAX@Z		; operator delete
  02362	83 c4 04	 add	 esp, 4

; 708  : 	return hRgn;

  02365	8b 4d 84	 mov	 ecx, DWORD PTR _hRgn$[ebp]
  02368	89 8d 5c ff ff
	ff		 mov	 DWORD PTR $T188661[ebp], ecx
  0236e	c7 45 fc ff ff
	ff ff		 mov	 DWORD PTR __$EHRec$[ebp+8], -1
  02375	8d 4d b8	 lea	 ecx, DWORD PTR _dcBmp$[ebp]
  02378	e8 00 00 00 00	 call	 ??1CDC@@UAE@XZ		; CDC::~CDC
  0237d	8b 85 5c ff ff
	ff		 mov	 eax, DWORD PTR $T188661[ebp]

; 709  : }

  02383	52		 push	 edx
  02384	8b cd		 mov	 ecx, ebp
  02386	50		 push	 eax
  02387	8d 15 00 00 00
	00		 lea	 edx, DWORD PTR $L188669
  0238d	e8 00 00 00 00	 call	 @_RTC_CheckStackVars@8
  02392	58		 pop	 eax
  02393	5a		 pop	 edx
  02394	8b 4d f4	 mov	 ecx, DWORD PTR __$EHRec$[ebp]
  02397	64 89 0d 00 00
	00 00		 mov	 DWORD PTR fs:__except_list, ecx
  0239e	5f		 pop	 edi
  0239f	5e		 pop	 esi
  023a0	81 c4 a4 00 00
	00		 add	 esp, 164		; 000000a4H
  023a6	3b ec		 cmp	 ebp, esp
  023a8	e8 00 00 00 00	 call	 __RTC_CheckEsp
  023ad	8b e5		 mov	 esp, ebp
  023af	5d		 pop	 ebp
  023b0	c2 08 00	 ret	 8
$L188669:
  023b3	02 00 00 00	 DD	 2
  023b7	00 00 00 00	 DD	 $L188668
$L188668:
  023bb	d0 ff ff ff	 DD	 -48			; ffffffd0H
  023bf	18 00 00 00	 DD	 24			; 00000018H
  023c3	00 00 00 00	 DD	 $L188665
  023c7	b8 ff ff ff	 DD	 -72			; ffffffb8H
  023cb	10 00 00 00	 DD	 16			; 00000010H
  023cf	00 00 00 00	 DD	 $L188666
$L188666:
  023d3	64		 DB	 100			; 00000064H
  023d4	63		 DB	 99			; 00000063H
  023d5	42		 DB	 66			; 00000042H
  023d6	6d		 DB	 109			; 0000006dH
  023d7	70		 DB	 112			; 00000070H
  023d8	00		 DB	 0
$L188665:
  023d9	62		 DB	 98			; 00000062H
  023da	6d		 DB	 109			; 0000006dH
  023db	00		 DB	 0
_TEXT	ENDS
text$x	SEGMENT
$L188662:
  000f6	8d 4d b8	 lea	 ecx, DWORD PTR _dcBmp$[ebp]
  000f9	e9 00 00 00 00	 jmp	 ??1CDC@@UAE@XZ		; CDC::~CDC
__ehhandler$?CreateRgnFromBitmap@CxSkinButton@@QAEPAUHRGN__@@PAVCDibBitmap@@K@Z:
  000fe	b8 00 00 00 00	 mov	 eax, OFFSET FLAT:$T188664
  00103	e9 00 00 00 00	 jmp	 ___CxxFrameHandler
text$x	ENDS
?CreateRgnFromBitmap@CxSkinButton@@QAEPAUHRGN__@@PAVCDibBitmap@@K@Z ENDP ; CxSkinButton::CreateRgnFromBitmap
PUBLIC	?SetNormalTextColor@CxSkinButton@@QAEKK@Z	; CxSkinButton::SetNormalTextColor
; Function compile flags: /Odt /RTCsu
_TEXT	SEGMENT
_tmp_color$ = -8					; size = 4
_this$ = -4						; size = 4
_normalcolor$ = 8					; size = 4
?SetNormalTextColor@CxSkinButton@@QAEKK@Z PROC NEAR	; CxSkinButton::SetNormalTextColor
; _this$ = ecx

; 712  : {

  023e0	55		 push	 ebp
  023e1	8b ec		 mov	 ebp, esp
  023e3	83 ec 08	 sub	 esp, 8
  023e6	c7 45 f8 cc cc
	cc cc		 mov	 DWORD PTR [ebp-8], -858993460 ; ccccccccH
  023ed	c7 45 fc cc cc
	cc cc		 mov	 DWORD PTR [ebp-4], -858993460 ; ccccccccH
  023f4	89 4d fc	 mov	 DWORD PTR _this$[ebp], ecx

; 713  : 	COLORREF tmp_color=m_normalTextColor;

  023f7	8b 45 fc	 mov	 eax, DWORD PTR _this$[ebp]
  023fa	8b 88 08 01 00
	00		 mov	 ecx, DWORD PTR [eax+264]
  02400	89 4d f8	 mov	 DWORD PTR _tmp_color$[ebp], ecx

; 714  : 	m_normalTextColor=normalcolor;

  02403	8b 55 fc	 mov	 edx, DWORD PTR _this$[ebp]
  02406	8b 45 08	 mov	 eax, DWORD PTR _normalcolor$[ebp]
  02409	89 82 08 01 00
	00		 mov	 DWORD PTR [edx+264], eax

; 715  : 	return tmp_color;			//r

  0240f	8b 45 f8	 mov	 eax, DWORD PTR _tmp_color$[ebp]

; 716  : }

  02412	8b e5		 mov	 esp, ebp
  02414	5d		 pop	 ebp
  02415	c2 04 00	 ret	 4
?SetNormalTextColor@CxSkinButton@@QAEKK@Z ENDP		; CxSkinButton::SetNormalTextColor
_TEXT	ENDS
PUBLIC	?SetDownTextColor@CxSkinButton@@QAEKK@Z		; CxSkinButton::SetDownTextColor
; Function compile flags: /Odt /RTCsu
_TEXT	SEGMENT
_tmp_color$ = -8					; size = 4
_this$ = -4						; size = 4
_downColor$ = 8						; size = 4
?SetDownTextColor@CxSkinButton@@QAEKK@Z PROC NEAR	; CxSkinButton::SetDownTextColor
; _this$ = ecx

; 718  : {

  02420	55		 push	 ebp
  02421	8b ec		 mov	 ebp, esp
  02423	83 ec 08	 sub	 esp, 8
  02426	c7 45 f8 cc cc
	cc cc		 mov	 DWORD PTR [ebp-8], -858993460 ; ccccccccH
  0242d	c7 45 fc cc cc
	cc cc		 mov	 DWORD PTR [ebp-4], -858993460 ; ccccccccH
  02434	89 4d fc	 mov	 DWORD PTR _this$[ebp], ecx

; 719  : 	COLORREF tmp_color=m_downTextColor;

  02437	8b 45 fc	 mov	 eax, DWORD PTR _this$[ebp]
  0243a	8b 88 0c 01 00
	00		 mov	 ecx, DWORD PTR [eax+268]
  02440	89 4d f8	 mov	 DWORD PTR _tmp_color$[ebp], ecx

; 720  : 	m_downTextColor=downColor;

  02443	8b 55 fc	 mov	 edx, DWORD PTR _this$[ebp]
  02446	8b 45 08	 mov	 eax, DWORD PTR _downColor$[ebp]
  02449	89 82 0c 01 00
	00		 mov	 DWORD PTR [edx+268], eax

; 721  : 	return tmp_color;

  0244f	8b 45 f8	 mov	 eax, DWORD PTR _tmp_color$[ebp]

; 722  : }

  02452	8b e5		 mov	 esp, ebp
  02454	5d		 pop	 ebp
  02455	c2 04 00	 ret	 4
?SetDownTextColor@CxSkinButton@@QAEKK@Z ENDP		; CxSkinButton::SetDownTextColor
_TEXT	ENDS
PUBLIC	?SetOverTextColor@CxSkinButton@@QAEKK@Z		; CxSkinButton::SetOverTextColor
; Function compile flags: /Odt /RTCsu
_TEXT	SEGMENT
_tmp_color$ = -8					; size = 4
_this$ = -4						; size = 4
_overColor$ = 8						; size = 4
?SetOverTextColor@CxSkinButton@@QAEKK@Z PROC NEAR	; CxSkinButton::SetOverTextColor
; _this$ = ecx

; 725  : {

  02460	55		 push	 ebp
  02461	8b ec		 mov	 ebp, esp
  02463	83 ec 08	 sub	 esp, 8
  02466	c7 45 f8 cc cc
	cc cc		 mov	 DWORD PTR [ebp-8], -858993460 ; ccccccccH
  0246d	c7 45 fc cc cc
	cc cc		 mov	 DWORD PTR [ebp-4], -858993460 ; ccccccccH
  02474	89 4d fc	 mov	 DWORD PTR _this$[ebp], ecx

; 726  : 	COLORREF tmp_color=m_OverTextColor;

  02477	8b 45 fc	 mov	 eax, DWORD PTR _this$[ebp]
  0247a	8b 88 10 01 00
	00		 mov	 ecx, DWORD PTR [eax+272]
  02480	89 4d f8	 mov	 DWORD PTR _tmp_color$[ebp], ecx

; 727  : 	m_OverTextColor=overColor;

  02483	8b 55 fc	 mov	 edx, DWORD PTR _this$[ebp]
  02486	8b 45 08	 mov	 eax, DWORD PTR _overColor$[ebp]
  02489	89 82 10 01 00
	00		 mov	 DWORD PTR [edx+272], eax

; 728  : 	return tmp_color;

  0248f	8b 45 f8	 mov	 eax, DWORD PTR _tmp_color$[ebp]

; 729  : }

  02492	8b e5		 mov	 esp, ebp
  02494	5d		 pop	 ebp
  02495	c2 04 00	 ret	 4
?SetOverTextColor@CxSkinButton@@QAEKK@Z ENDP		; CxSkinButton::SetOverTextColor
_TEXT	ENDS
PUBLIC	?SetDisableTextColor@CxSkinButton@@QAEKK@Z	; CxSkinButton::SetDisableTextColor
; Function compile flags: /Odt /RTCsu
_TEXT	SEGMENT
_tmp_color$ = -8					; size = 4
_this$ = -4						; size = 4
_disableColor$ = 8					; size = 4
?SetDisableTextColor@CxSkinButton@@QAEKK@Z PROC NEAR	; CxSkinButton::SetDisableTextColor
; _this$ = ecx

; 731  : {

  024a0	55		 push	 ebp
  024a1	8b ec		 mov	 ebp, esp
  024a3	83 ec 08	 sub	 esp, 8
  024a6	c7 45 f8 cc cc
	cc cc		 mov	 DWORD PTR [ebp-8], -858993460 ; ccccccccH
  024ad	c7 45 fc cc cc
	cc cc		 mov	 DWORD PTR [ebp-4], -858993460 ; ccccccccH
  024b4	89 4d fc	 mov	 DWORD PTR _this$[ebp], ecx

; 732  : 	COLORREF tmp_color=m_disableTextColor;

  024b7	8b 45 fc	 mov	 eax, DWORD PTR _this$[ebp]
  024ba	8b 88 14 01 00
	00		 mov	 ecx, DWORD PTR [eax+276]
  024c0	89 4d f8	 mov	 DWORD PTR _tmp_color$[ebp], ecx

; 733  : 	m_disableTextColor=disableColor;

  024c3	8b 55 fc	 mov	 edx, DWORD PTR _this$[ebp]
  024c6	8b 45 08	 mov	 eax, DWORD PTR _disableColor$[ebp]
  024c9	89 82 14 01 00
	00		 mov	 DWORD PTR [edx+276], eax

; 734  : 	return tmp_color;

  024cf	8b 45 f8	 mov	 eax, DWORD PTR _tmp_color$[ebp]

; 735  : }

  024d2	8b e5		 mov	 esp, ebp
  024d4	5d		 pop	 ebp
  024d5	c2 04 00	 ret	 4
?SetDisableTextColor@CxSkinButton@@QAEKK@Z ENDP		; CxSkinButton::SetDisableTextColor
_TEXT	ENDS
PUBLIC	?SetToolTipText@CxSkinButton@@QAEXV?$CStringT@DV?$StrTraitMFC_DLL@DV?$ChTraitsCRT@D@ATL@@@@@ATL@@@Z ; CxSkinButton::SetToolTipText
EXTRN	__imp__IsWindow@4:NEAR
EXTRN	__imp_??B?$CSimpleStringT@D$00@ATL@@QBEPBDXZ:NEAR
EXTRN	?Activate@CToolTipCtrl@@QAEXH@Z:NEAR		; CToolTipCtrl::Activate
EXTRN	?AddTool@CToolTipCtrl@@QAEHPAVCWnd@@PBDPBUtagRECT@@I@Z:NEAR ; CToolTipCtrl::AddTool
EXTRN	?UpdateTipText@CToolTipCtrl@@QAEXPBDPAVCWnd@@I@Z:NEAR ; CToolTipCtrl::UpdateTipText
EXTRN	__imp_??4?$CStringT@DV?$StrTraitMFC_DLL@DV?$ChTraitsCRT@D@ATL@@@@@ATL@@QAEAAV01@ABV01@@Z:NEAR
xdata$x	SEGMENT
$T188680 DD	0ffffffffH
	DD	FLAT:$L188676
$T188678 DD	019930520H
	DD	01H
	DD	FLAT:$T188680
	DD	2 DUP(00H)
	DD	2 DUP(00H)
; Function compile flags: /Odt /RTCsu
xdata$x	ENDS
_TEXT	SEGMENT
_this$ = -16						; size = 4
__$EHRec$ = -12						; size = 12
_s$ = 8							; size = 4
?SetToolTipText@CxSkinButton@@QAEXV?$CStringT@DV?$StrTraitMFC_DLL@DV?$ChTraitsCRT@D@ATL@@@@@ATL@@@Z PROC NEAR ; CxSkinButton::SetToolTipText
; _this$ = ecx

; 739  : {

  024e0	55		 push	 ebp
  024e1	8b ec		 mov	 ebp, esp
  024e3	6a ff		 push	 -1
  024e5	68 00 00 00 00	 push	 __ehhandler$?SetToolTipText@CxSkinButton@@QAEXV?$CStringT@DV?$StrTraitMFC_DLL@DV?$ChTraitsCRT@D@ATL@@@@@ATL@@@Z
  024ea	64 a1 00 00 00
	00		 mov	 eax, DWORD PTR fs:__except_list
  024f0	50		 push	 eax
  024f1	64 89 25 00 00
	00 00		 mov	 DWORD PTR fs:__except_list, esp
  024f8	83 ec 0c	 sub	 esp, 12			; 0000000cH
  024fb	56		 push	 esi
  024fc	c7 45 e8 cc cc
	cc cc		 mov	 DWORD PTR [ebp-24], -858993460 ; ccccccccH
  02503	c7 45 ec cc cc
	cc cc		 mov	 DWORD PTR [ebp-20], -858993460 ; ccccccccH
  0250a	c7 45 f0 cc cc
	cc cc		 mov	 DWORD PTR [ebp-16], -858993460 ; ccccccccH
  02511	89 4d f0	 mov	 DWORD PTR _this$[ebp], ecx
  02514	c7 45 fc 00 00
	00 00		 mov	 DWORD PTR __$EHRec$[ebp+8], 0

; 740  : 	CWnd *pParent;
; 741  : 	CWnd *pWnd;
; 742  : 
; 743  : 	if(m_strToolTip == "")

  0251b	68 00 00 00 00	 push	 OFFSET FLAT:$SG187748
  02520	8b 45 f0	 mov	 eax, DWORD PTR _this$[ebp]
  02523	83 c0 58	 add	 eax, 88			; 00000058H
  02526	50		 push	 eax
  02527	e8 00 00 00 00	 call	 ??8ATL@@YA_NABV?$CStringT@DV?$StrTraitMFC_DLL@DV?$ChTraitsCRT@D@ATL@@@@@0@PBD@Z ; ATL::operator==
  0252c	83 c4 08	 add	 esp, 8
  0252f	0f b6 c8	 movzx	 ecx, al
  02532	85 c9		 test	 ecx, ecx
  02534	74 37		 je	 SHORT $L187747

; 744  : 	{
; 745  : 		m_strToolTip = s;

  02536	8b f4		 mov	 esi, esp
  02538	8d 55 08	 lea	 edx, DWORD PTR _s$[ebp]
  0253b	52		 push	 edx
  0253c	8b 4d f0	 mov	 ecx, DWORD PTR _this$[ebp]
  0253f	83 c1 58	 add	 ecx, 88			; 00000058H
  02542	ff 15 00 00 00
	00		 call	 DWORD PTR __imp_??4?$CStringT@DV?$StrTraitMFC_DLL@DV?$ChTraitsCRT@D@ATL@@@@@ATL@@QAEAAV01@ABV01@@Z
  02548	3b f4		 cmp	 esi, esp
  0254a	e8 00 00 00 00	 call	 __RTC_CheckEsp

; 746  : 		return;

  0254f	c7 45 fc ff ff
	ff ff		 mov	 DWORD PTR __$EHRec$[ebp+8], -1
  02556	8b f4		 mov	 esi, esp
  02558	8d 4d 08	 lea	 ecx, DWORD PTR _s$[ebp]
  0255b	ff 15 00 00 00
	00		 call	 DWORD PTR __imp_??1?$CStringT@DV?$StrTraitMFC_DLL@DV?$ChTraitsCRT@D@ATL@@@@@ATL@@QAE@XZ
  02561	3b f4		 cmp	 esi, esp
  02563	e8 00 00 00 00	 call	 __RTC_CheckEsp
  02568	e9 e5 00 00 00	 jmp	 $L187744
$L187747:

; 747  : 	}
; 748  : 	m_strToolTip = s;

  0256d	8b f4		 mov	 esi, esp
  0256f	8d 45 08	 lea	 eax, DWORD PTR _s$[ebp]
  02572	50		 push	 eax
  02573	8b 4d f0	 mov	 ecx, DWORD PTR _this$[ebp]
  02576	83 c1 58	 add	 ecx, 88			; 00000058H
  02579	ff 15 00 00 00
	00		 call	 DWORD PTR __imp_??4?$CStringT@DV?$StrTraitMFC_DLL@DV?$ChTraitsCRT@D@ATL@@@@@ATL@@QAEAAV01@ABV01@@Z
  0257f	3b f4		 cmp	 esi, esp
  02581	e8 00 00 00 00	 call	 __RTC_CheckEsp

; 749  : 	if(m_tooltip.m_hWnd != NULL && ::IsWindow(m_tooltip.m_hWnd))

  02586	8b 4d f0	 mov	 ecx, DWORD PTR _this$[ebp]
  02589	83 b9 9c 00 00
	00 00		 cmp	 DWORD PTR [ecx+156], 0
  02590	74 19		 je	 SHORT $L187749
  02592	8b f4		 mov	 esi, esp
  02594	8b 55 f0	 mov	 edx, DWORD PTR _this$[ebp]
  02597	8b 82 9c 00 00
	00		 mov	 eax, DWORD PTR [edx+156]
  0259d	50		 push	 eax
  0259e	ff 15 00 00 00
	00		 call	 DWORD PTR __imp__IsWindow@4
  025a4	3b f4		 cmp	 esi, esp
  025a6	e8 00 00 00 00	 call	 __RTC_CheckEsp
$L187749:

; 750  : 	{
; 751  : 		//m_tooltip.DestroyToolTipCtrl();
; 752  : 		//m_tooltip.m_hWnd = NULL;
; 753  : 	}
; 754  : 	if(m_tooltip.m_hWnd==NULL){

  025ab	8b 4d f0	 mov	 ecx, DWORD PTR _this$[ebp]
  025ae	83 b9 9c 00 00
	00 00		 cmp	 DWORD PTR [ecx+156], 0
  025b5	75 5e		 jne	 SHORT $L187750

; 755  : 		if(m_tooltip.Create(this,TTS_ALWAYSTIP))	//first assignment

  025b7	8b f4		 mov	 esi, esp
  025b9	6a 01		 push	 1
  025bb	8b 55 f0	 mov	 edx, DWORD PTR _this$[ebp]
  025be	52		 push	 edx
  025bf	8b 4d f0	 mov	 ecx, DWORD PTR _this$[ebp]
  025c2	83 c1 7c	 add	 ecx, 124		; 0000007cH
  025c5	8b 45 f0	 mov	 eax, DWORD PTR _this$[ebp]
  025c8	8b 50 7c	 mov	 edx, DWORD PTR [eax+124]
  025cb	ff 92 38 01 00
	00		 call	 DWORD PTR [edx+312]
  025d1	3b f4		 cmp	 esi, esp
  025d3	e8 00 00 00 00	 call	 __RTC_CheckEsp
  025d8	85 c0		 test	 eax, eax
  025da	74 37		 je	 SHORT $L187751

; 756  : 			if(m_tooltip.AddTool(this, (LPCTSTR)s))

  025dc	6a 00		 push	 0
  025de	6a 00		 push	 0
  025e0	8b f4		 mov	 esi, esp
  025e2	8d 4d 08	 lea	 ecx, DWORD PTR _s$[ebp]
  025e5	ff 15 00 00 00
	00		 call	 DWORD PTR __imp_??B?$CSimpleStringT@D$00@ATL@@QBEPBDXZ
  025eb	3b f4		 cmp	 esi, esp
  025ed	e8 00 00 00 00	 call	 __RTC_CheckEsp
  025f2	50		 push	 eax
  025f3	8b 45 f0	 mov	 eax, DWORD PTR _this$[ebp]
  025f6	50		 push	 eax
  025f7	8b 4d f0	 mov	 ecx, DWORD PTR _this$[ebp]
  025fa	83 c1 7c	 add	 ecx, 124		; 0000007cH
  025fd	e8 00 00 00 00	 call	 ?AddTool@CToolTipCtrl@@QAEHPAVCWnd@@PBDPBUtagRECT@@I@Z ; CToolTipCtrl::AddTool
  02602	85 c0		 test	 eax, eax
  02604	74 0d		 je	 SHORT $L187751

; 757  : 				m_tooltip.Activate(1);

  02606	6a 01		 push	 1
  02608	8b 4d f0	 mov	 ecx, DWORD PTR _this$[ebp]
  0260b	83 c1 7c	 add	 ecx, 124		; 0000007cH
  0260e	e8 00 00 00 00	 call	 ?Activate@CToolTipCtrl@@QAEXH@Z ; CToolTipCtrl::Activate
$L187751:

; 758  : 	} else {

  02613	eb 24		 jmp	 SHORT $L187754
$L187750:

; 759  : 		m_tooltip.UpdateTipText((LPCTSTR)s,this);

  02615	6a 00		 push	 0
  02617	8b 4d f0	 mov	 ecx, DWORD PTR _this$[ebp]
  0261a	51		 push	 ecx
  0261b	8b f4		 mov	 esi, esp
  0261d	8d 4d 08	 lea	 ecx, DWORD PTR _s$[ebp]
  02620	ff 15 00 00 00
	00		 call	 DWORD PTR __imp_??B?$CSimpleStringT@D$00@ATL@@QBEPBDXZ
  02626	3b f4		 cmp	 esi, esp
  02628	e8 00 00 00 00	 call	 __RTC_CheckEsp
  0262d	50		 push	 eax
  0262e	8b 4d f0	 mov	 ecx, DWORD PTR _this$[ebp]
  02631	83 c1 7c	 add	 ecx, 124		; 0000007cH
  02634	e8 00 00 00 00	 call	 ?UpdateTipText@CToolTipCtrl@@QAEXPBDPAVCWnd@@I@Z ; CToolTipCtrl::UpdateTipText
$L187754:

; 760  : 	}
; 761  : }

  02639	c7 45 fc ff ff
	ff ff		 mov	 DWORD PTR __$EHRec$[ebp+8], -1
  02640	8b f4		 mov	 esi, esp
  02642	8d 4d 08	 lea	 ecx, DWORD PTR _s$[ebp]
  02645	ff 15 00 00 00
	00		 call	 DWORD PTR __imp_??1?$CStringT@DV?$StrTraitMFC_DLL@DV?$ChTraitsCRT@D@ATL@@@@@ATL@@QAE@XZ
  0264b	3b f4		 cmp	 esi, esp
  0264d	e8 00 00 00 00	 call	 __RTC_CheckEsp
$L187744:
  02652	8b 4d f4	 mov	 ecx, DWORD PTR __$EHRec$[ebp]
  02655	64 89 0d 00 00
	00 00		 mov	 DWORD PTR fs:__except_list, ecx
  0265c	5e		 pop	 esi
  0265d	83 c4 18	 add	 esp, 24			; 00000018H
  02660	3b ec		 cmp	 ebp, esp
  02662	e8 00 00 00 00	 call	 __RTC_CheckEsp
  02667	8b e5		 mov	 esp, ebp
  02669	5d		 pop	 ebp
  0266a	c2 04 00	 ret	 4
_TEXT	ENDS
text$x	SEGMENT
$L188676:
  00108	8b f4		 mov	 esi, esp
  0010a	8d 4d 08	 lea	 ecx, DWORD PTR _s$[ebp]
  0010d	ff 15 00 00 00
	00		 call	 DWORD PTR __imp_??1?$CStringT@DV?$StrTraitMFC_DLL@DV?$ChTraitsCRT@D@ATL@@@@@ATL@@QAE@XZ
  00113	3b f4		 cmp	 esi, esp
  00115	e9 00 00 00 00	 jmp	 __RTC_CheckEsp
__ehhandler$?SetToolTipText@CxSkinButton@@QAEXV?$CStringT@DV?$StrTraitMFC_DLL@DV?$ChTraitsCRT@D@ATL@@@@@ATL@@@Z:
  0011a	b8 00 00 00 00	 mov	 eax, OFFSET FLAT:$T188678
  0011f	e9 00 00 00 00	 jmp	 ___CxxFrameHandler
text$x	ENDS
?SetToolTipText@CxSkinButton@@QAEXV?$CStringT@DV?$StrTraitMFC_DLL@DV?$ChTraitsCRT@D@ATL@@@@@ATL@@@Z ENDP ; CxSkinButton::SetToolTipText
PUBLIC	?GetToolTipText@CxSkinButton@@QAE?AV?$CStringT@DV?$StrTraitMFC_DLL@DV?$ChTraitsCRT@D@ATL@@@@@ATL@@XZ ; CxSkinButton::GetToolTipText
EXTRN	__imp_??0?$CStringT@DV?$StrTraitMFC_DLL@DV?$ChTraitsCRT@D@ATL@@@@@ATL@@QAE@ABV01@@Z:NEAR
; Function compile flags: /Odt /RTCsu
_TEXT	SEGMENT
$T188683 = -8						; size = 4
_this$ = -4						; size = 4
___$ReturnUdt$ = 8					; size = 4
?GetToolTipText@CxSkinButton@@QAE?AV?$CStringT@DV?$StrTraitMFC_DLL@DV?$ChTraitsCRT@D@ATL@@@@@ATL@@XZ PROC NEAR ; CxSkinButton::GetToolTipText
; _this$ = ecx

; 763  : {

  02670	55		 push	 ebp
  02671	8b ec		 mov	 ebp, esp
  02673	83 ec 08	 sub	 esp, 8
  02676	56		 push	 esi
  02677	c7 45 f8 cc cc
	cc cc		 mov	 DWORD PTR [ebp-8], -858993460 ; ccccccccH
  0267e	c7 45 fc cc cc
	cc cc		 mov	 DWORD PTR [ebp-4], -858993460 ; ccccccccH
  02685	89 4d fc	 mov	 DWORD PTR _this$[ebp], ecx
  02688	c7 45 f8 00 00
	00 00		 mov	 DWORD PTR $T188683[ebp], 0

; 764  : 	return m_strToolTip;

  0268f	8b 45 fc	 mov	 eax, DWORD PTR _this$[ebp]
  02692	83 c0 58	 add	 eax, 88			; 00000058H
  02695	8b f4		 mov	 esi, esp
  02697	50		 push	 eax
  02698	8b 4d 08	 mov	 ecx, DWORD PTR ___$ReturnUdt$[ebp]
  0269b	ff 15 00 00 00
	00		 call	 DWORD PTR __imp_??0?$CStringT@DV?$StrTraitMFC_DLL@DV?$ChTraitsCRT@D@ATL@@@@@ATL@@QAE@ABV01@@Z
  026a1	3b f4		 cmp	 esi, esp
  026a3	e8 00 00 00 00	 call	 __RTC_CheckEsp
  026a8	8b 4d f8	 mov	 ecx, DWORD PTR $T188683[ebp]
  026ab	83 c9 01	 or	 ecx, 1
  026ae	89 4d f8	 mov	 DWORD PTR $T188683[ebp], ecx
  026b1	8b 45 08	 mov	 eax, DWORD PTR ___$ReturnUdt$[ebp]

; 765  : }

  026b4	5e		 pop	 esi
  026b5	83 c4 08	 add	 esp, 8
  026b8	3b ec		 cmp	 ebp, esp
  026ba	e8 00 00 00 00	 call	 __RTC_CheckEsp
  026bf	8b e5		 mov	 esp, ebp
  026c1	5d		 pop	 ebp
  026c2	c2 04 00	 ret	 4
?GetToolTipText@CxSkinButton@@QAE?AV?$CStringT@DV?$StrTraitMFC_DLL@DV?$ChTraitsCRT@D@ATL@@@@@ATL@@XZ ENDP ; CxSkinButton::GetToolTipText
_TEXT	ENDS
PUBLIC	??9ATL@@YA_NABV?$CStringT@DV?$StrTraitMFC_DLL@DV?$ChTraitsCRT@D@ATL@@@@@0@PBD@Z ; ATL::operator!=
PUBLIC	?RelayEvent@CxSkinButton@@QAEXIIJ@Z		; CxSkinButton::RelayEvent
EXTRN	__imp__PostMessageA@16:NEAR
EXTRN	?RelayEvent@CToolTipCtrl@@QAEXPAUtagMSG@@@Z:NEAR ; CToolTipCtrl::RelayEvent
; Function compile flags: /Odt /RTCsu
_TEXT	SEGMENT
tv141 = -48						; size = 4
$T188686 = -44						; size = 4
_msg$187770 = -36					; size = 28
_this$ = -4						; size = 4
_message$ = 8						; size = 4
_wParam$ = 12						; size = 4
_lParam$ = 16						; size = 4
?RelayEvent@CxSkinButton@@QAEXIIJ@Z PROC NEAR		; CxSkinButton::RelayEvent
; _this$ = ecx

; 768  : {

  026d0	55		 push	 ebp
  026d1	8b ec		 mov	 ebp, esp
  026d3	83 ec 30	 sub	 esp, 48			; 00000030H
  026d6	56		 push	 esi
  026d7	57		 push	 edi
  026d8	51		 push	 ecx
  026d9	8d 7d d0	 lea	 edi, DWORD PTR [ebp-48]
  026dc	b9 0c 00 00 00	 mov	 ecx, 12			; 0000000cH
  026e1	b8 cc cc cc cc	 mov	 eax, -858993460		; ccccccccH
  026e6	f3 ab		 rep stosd
  026e8	59		 pop	 ecx
  026e9	89 4d fc	 mov	 DWORD PTR _this$[ebp], ecx

; 769  : // This function will create a MSG structure, fill it in a pass it to
; 770  : // the ToolTip control, m_ttip.  Note that we ensure the point is in window
; 771  : // coordinates (relative to the control's window).
; 772  : 	if(m_tooltip.m_hWnd == NULL && m_strToolTip != "")

  026ec	8b 45 fc	 mov	 eax, DWORD PTR _this$[ebp]
  026ef	83 b8 9c 00 00
	00 00		 cmp	 DWORD PTR [eax+156], 0
  026f6	75 42		 jne	 SHORT $L187766
  026f8	68 00 00 00 00	 push	 OFFSET FLAT:$SG187767
  026fd	8b 4d fc	 mov	 ecx, DWORD PTR _this$[ebp]
  02700	83 c1 58	 add	 ecx, 88			; 00000058H
  02703	51		 push	 ecx
  02704	e8 00 00 00 00	 call	 ??9ATL@@YA_NABV?$CStringT@DV?$StrTraitMFC_DLL@DV?$ChTraitsCRT@D@ATL@@@@@0@PBD@Z ; ATL::operator!=
  02709	83 c4 08	 add	 esp, 8
  0270c	0f b6 d0	 movzx	 edx, al
  0270f	85 d2		 test	 edx, edx
  02711	74 27		 je	 SHORT $L187766

; 773  : 		SetToolTipText(m_strToolTip);

  02713	8b 45 fc	 mov	 eax, DWORD PTR _this$[ebp]
  02716	83 c0 58	 add	 eax, 88			; 00000058H
  02719	51		 push	 ecx
  0271a	8b cc		 mov	 ecx, esp
  0271c	89 65 d4	 mov	 DWORD PTR $T188686[ebp], esp
  0271f	8b f4		 mov	 esi, esp
  02721	50		 push	 eax
  02722	ff 15 00 00 00
	00		 call	 DWORD PTR __imp_??0?$CStringT@DV?$StrTraitMFC_DLL@DV?$ChTraitsCRT@D@ATL@@@@@ATL@@QAE@ABV01@@Z
  02728	3b f4		 cmp	 esi, esp
  0272a	e8 00 00 00 00	 call	 __RTC_CheckEsp
  0272f	89 45 d0	 mov	 DWORD PTR tv141[ebp], eax
  02732	8b 4d fc	 mov	 ecx, DWORD PTR _this$[ebp]
  02735	e8 00 00 00 00	 call	 ?SetToolTipText@CxSkinButton@@QAEXV?$CStringT@DV?$StrTraitMFC_DLL@DV?$ChTraitsCRT@D@ATL@@@@@ATL@@@Z ; CxSkinButton::SetToolTipText
$L187766:

; 774  : 	if(NULL != m_tooltip.m_hWnd){

  0273a	8b 4d fc	 mov	 ecx, DWORD PTR _this$[ebp]
  0273d	83 b9 9c 00 00
	00 00		 cmp	 DWORD PTR [ecx+156], 0
  02744	74 70		 je	 SHORT $L187765

; 775  : 		MSG msg;
; 776  : 		msg.hwnd = m_hWnd;

  02746	8b 55 fc	 mov	 edx, DWORD PTR _this$[ebp]
  02749	8b 42 20	 mov	 eax, DWORD PTR [edx+32]
  0274c	89 45 dc	 mov	 DWORD PTR _msg$187770[ebp], eax

; 777  : 		msg.message = message;

  0274f	8b 4d 08	 mov	 ecx, DWORD PTR _message$[ebp]
  02752	89 4d e0	 mov	 DWORD PTR _msg$187770[ebp+4], ecx

; 778  : 		msg.wParam = wParam;

  02755	8b 55 0c	 mov	 edx, DWORD PTR _wParam$[ebp]
  02758	89 55 e4	 mov	 DWORD PTR _msg$187770[ebp+8], edx

; 779  : 		msg.lParam = lParam;

  0275b	8b 45 10	 mov	 eax, DWORD PTR _lParam$[ebp]
  0275e	89 45 e8	 mov	 DWORD PTR _msg$187770[ebp+12], eax

; 780  : 		msg.time = 0;

  02761	c7 45 ec 00 00
	00 00		 mov	 DWORD PTR _msg$187770[ebp+16], 0

; 781  : 		msg.pt.x = LOWORD(lParam);

  02768	8b 4d 10	 mov	 ecx, DWORD PTR _lParam$[ebp]
  0276b	81 e1 ff ff 00
	00		 and	 ecx, 65535		; 0000ffffH
  02771	0f b7 d1	 movzx	 edx, cx
  02774	89 55 f0	 mov	 DWORD PTR _msg$187770[ebp+20], edx

; 782  : 		msg.pt.y = HIWORD(lParam);

  02777	8b 45 10	 mov	 eax, DWORD PTR _lParam$[ebp]
  0277a	c1 e8 10	 shr	 eax, 16			; 00000010H
  0277d	0f b7 c8	 movzx	 ecx, ax
  02780	89 4d f4	 mov	 DWORD PTR _msg$187770[ebp+24], ecx

; 783  : 
; 784  : 		m_tooltip.RelayEvent(&msg);

  02783	8d 55 dc	 lea	 edx, DWORD PTR _msg$187770[ebp]
  02786	52		 push	 edx
  02787	8b 4d fc	 mov	 ecx, DWORD PTR _this$[ebp]
  0278a	83 c1 7c	 add	 ecx, 124		; 0000007cH
  0278d	e8 00 00 00 00	 call	 ?RelayEvent@CToolTipCtrl@@QAEXPAUtagMSG@@@Z ; CToolTipCtrl::RelayEvent

; 785  : 		 ::PostMessage(m_tooltip.m_hWnd, TTM_RELAYEVENT, 0, (LPARAM)&msg);

  02792	8b f4		 mov	 esi, esp
  02794	8d 45 dc	 lea	 eax, DWORD PTR _msg$187770[ebp]
  02797	50		 push	 eax
  02798	6a 00		 push	 0
  0279a	68 07 04 00 00	 push	 1031			; 00000407H
  0279f	8b 4d fc	 mov	 ecx, DWORD PTR _this$[ebp]
  027a2	8b 91 9c 00 00
	00		 mov	 edx, DWORD PTR [ecx+156]
  027a8	52		 push	 edx
  027a9	ff 15 00 00 00
	00		 call	 DWORD PTR __imp__PostMessageA@16
  027af	3b f4		 cmp	 esi, esp
  027b1	e8 00 00 00 00	 call	 __RTC_CheckEsp
$L187765:

; 786  : 	}
; 787  : }

  027b6	52		 push	 edx
  027b7	8b cd		 mov	 ecx, ebp
  027b9	50		 push	 eax
  027ba	8d 15 00 00 00
	00		 lea	 edx, DWORD PTR $L188690
  027c0	e8 00 00 00 00	 call	 @_RTC_CheckStackVars@8
  027c5	58		 pop	 eax
  027c6	5a		 pop	 edx
  027c7	5f		 pop	 edi
  027c8	5e		 pop	 esi
  027c9	83 c4 30	 add	 esp, 48			; 00000030H
  027cc	3b ec		 cmp	 ebp, esp
  027ce	e8 00 00 00 00	 call	 __RTC_CheckEsp
  027d3	8b e5		 mov	 esp, ebp
  027d5	5d		 pop	 ebp
  027d6	c2 0c 00	 ret	 12			; 0000000cH
$L188690:
  027d9	01 00 00 00	 DD	 1
  027dd	00 00 00 00	 DD	 $L188689
$L188689:
  027e1	dc ff ff ff	 DD	 -36			; ffffffdcH
  027e5	1c 00 00 00	 DD	 28			; 0000001cH
  027e9	00 00 00 00	 DD	 $L188688
$L188688:
  027ed	6d		 DB	 109			; 0000006dH
  027ee	73		 DB	 115			; 00000073H
  027ef	67		 DB	 103			; 00000067H
  027f0	00		 DB	 0
?RelayEvent@CxSkinButton@@QAEXIIJ@Z ENDP		; CxSkinButton::RelayEvent
_TEXT	ENDS
EXTRN	?SendMessageA@CWnd@@QAEJIIJ@Z:NEAR		; CWnd::SendMessageA
; Function compile flags: /Odt /RTCsu
_TEXT	SEGMENT
_this$ = -4						; size = 4
_flags$ = 8						; size = 4
_point$ = 12						; size = 8
?OnLButtonDblClk@CxSkinButton@@QAEXIVCPoint@@@Z PROC NEAR ; CxSkinButton::OnLButtonDblClk
; _this$ = ecx

; 809  : {

  02800	55		 push	 ebp
  02801	8b ec		 mov	 ebp, esp
  02803	51		 push	 ecx
  02804	c7 45 fc cc cc
	cc cc		 mov	 DWORD PTR [ebp-4], -858993460 ; ccccccccH
  0280b	89 4d fc	 mov	 DWORD PTR _this$[ebp], ecx

; 810  :     SendMessage(WM_LBUTTONDOWN, flags, MAKELPARAM(point.x, point.y));

  0280e	8b 45 0c	 mov	 eax, DWORD PTR _point$[ebp]
  02811	25 ff ff 00 00	 and	 eax, 65535		; 0000ffffH
  02816	0f b7 c8	 movzx	 ecx, ax
  02819	8b 55 10	 mov	 edx, DWORD PTR _point$[ebp+4]
  0281c	81 e2 ff ff 00
	00		 and	 edx, 65535		; 0000ffffH
  02822	0f b7 c2	 movzx	 eax, dx
  02825	c1 e0 10	 shl	 eax, 16			; 00000010H
  02828	0b c8		 or	 ecx, eax
  0282a	51		 push	 ecx
  0282b	8b 4d 08	 mov	 ecx, DWORD PTR _flags$[ebp]
  0282e	51		 push	 ecx
  0282f	68 01 02 00 00	 push	 513			; 00000201H
  02834	8b 4d fc	 mov	 ecx, DWORD PTR _this$[ebp]
  02837	e8 00 00 00 00	 call	 ?SendMessageA@CWnd@@QAEJIIJ@Z ; CWnd::SendMessageA

; 811  : }

  0283c	83 c4 04	 add	 esp, 4
  0283f	3b ec		 cmp	 ebp, esp
  02841	e8 00 00 00 00	 call	 __RTC_CheckEsp
  02846	8b e5		 mov	 esp, ebp
  02848	5d		 pop	 ebp
  02849	c2 0c 00	 ret	 12			; 0000000cH
?OnLButtonDblClk@CxSkinButton@@QAEXIVCPoint@@@Z ENDP	; CxSkinButton::OnLButtonDblClk
_TEXT	ENDS
EXTRN	?OnLButtonDown@CWnd@@IAEXIVCPoint@@@Z:NEAR	; CWnd::OnLButtonDown
EXTRN	__imp___TrackMouseEvent@4:NEAR
; Function compile flags: /Odt /RTCsu
_TEXT	SEGMENT
_t$187808 = -24						; size = 16
_this$ = -4						; size = 4
_nFlags$ = 8						; size = 4
_point$ = 12						; size = 8
?OnLButtonDown@CxSkinButton@@QAEXIVCPoint@@@Z PROC NEAR	; CxSkinButton::OnLButtonDown
; _this$ = ecx

; 834  : {

  02850	55		 push	 ebp
  02851	8b ec		 mov	 ebp, esp
  02853	83 ec 1c	 sub	 esp, 28			; 0000001cH
  02856	56		 push	 esi
  02857	b8 cc cc cc cc	 mov	 eax, -858993460		; ccccccccH
  0285c	89 45 e4	 mov	 DWORD PTR [ebp-28], eax
  0285f	89 45 e8	 mov	 DWORD PTR [ebp-24], eax
  02862	89 45 ec	 mov	 DWORD PTR [ebp-20], eax
  02865	89 45 f0	 mov	 DWORD PTR [ebp-16], eax
  02868	89 45 f4	 mov	 DWORD PTR [ebp-12], eax
  0286b	89 45 f8	 mov	 DWORD PTR [ebp-8], eax
  0286e	89 45 fc	 mov	 DWORD PTR [ebp-4], eax
  02871	89 4d fc	 mov	 DWORD PTR _this$[ebp], ecx

; 835  :     //TRACE("* %08X: down\n", ::GetTickCount());
; 836  : 
; 837  : 	//Pass this message to the ToolTip control
; 838  : 
; 839  : 	RelayEvent(WM_LBUTTONDOWN,(WPARAM)nFlags,MAKELPARAM(LOWORD(point.x),LOWORD(point.y)));

  02874	8b 45 0c	 mov	 eax, DWORD PTR _point$[ebp]
  02877	25 ff ff 00 00	 and	 eax, 65535		; 0000ffffH
  0287c	0f b7 c8	 movzx	 ecx, ax
  0287f	81 e1 ff ff 00
	00		 and	 ecx, 65535		; 0000ffffH
  02885	0f b7 d1	 movzx	 edx, cx
  02888	8b 45 10	 mov	 eax, DWORD PTR _point$[ebp+4]
  0288b	25 ff ff 00 00	 and	 eax, 65535		; 0000ffffH
  02890	0f b7 c8	 movzx	 ecx, ax
  02893	81 e1 ff ff 00
	00		 and	 ecx, 65535		; 0000ffffH
  02899	0f b7 c1	 movzx	 eax, cx
  0289c	c1 e0 10	 shl	 eax, 16			; 00000010H
  0289f	0b d0		 or	 edx, eax
  028a1	52		 push	 edx
  028a2	8b 4d 08	 mov	 ecx, DWORD PTR _nFlags$[ebp]
  028a5	51		 push	 ecx
  028a6	68 01 02 00 00	 push	 513			; 00000201H
  028ab	8b 4d fc	 mov	 ecx, DWORD PTR _this$[ebp]
  028ae	e8 00 00 00 00	 call	 ?RelayEvent@CxSkinButton@@QAEXIIJ@Z ; CxSkinButton::RelayEvent

; 840  : 
; 841  :     //If we are tracking this button, cancel it
; 842  :     if (m_tracking) {

  028b3	8b 55 fc	 mov	 edx, DWORD PTR _this$[ebp]
  028b6	0f b6 42 78	 movzx	 eax, BYTE PTR [edx+120]
  028ba	85 c0		 test	 eax, eax
  028bc	74 3c		 je	 SHORT $L187807

; 843  :         TRACKMOUSEEVENT t = {
; 844  :             sizeof(TRACKMOUSEEVENT),

  028be	c7 45 e8 10 00
	00 00		 mov	 DWORD PTR _t$187808[ebp], 16 ; 00000010H

; 845  :             TME_CANCEL | TME_LEAVE,

  028c5	c7 45 ec 02 00
	00 80		 mov	 DWORD PTR _t$187808[ebp+4], -2147483646 ; 80000002H

; 846  :             m_hWnd,

  028cc	8b 4d fc	 mov	 ecx, DWORD PTR _this$[ebp]
  028cf	8b 51 20	 mov	 edx, DWORD PTR [ecx+32]
  028d2	89 55 f0	 mov	 DWORD PTR _t$187808[ebp+8], edx

; 847  :             0
; 848  :         };

  028d5	c7 45 f4 00 00
	00 00		 mov	 DWORD PTR _t$187808[ebp+12], 0

; 849  :         if (::_TrackMouseEvent(&t)) {

  028dc	8b f4		 mov	 esi, esp
  028de	8d 45 e8	 lea	 eax, DWORD PTR _t$187808[ebp]
  028e1	50		 push	 eax
  028e2	ff 15 00 00 00
	00		 call	 DWORD PTR __imp___TrackMouseEvent@4
  028e8	3b f4		 cmp	 esi, esp
  028ea	e8 00 00 00 00	 call	 __RTC_CheckEsp
  028ef	85 c0		 test	 eax, eax
  028f1	74 07		 je	 SHORT $L187807

; 850  :             m_tracking = false;

  028f3	8b 4d fc	 mov	 ecx, DWORD PTR _this$[ebp]
  028f6	c6 41 78 00	 mov	 BYTE PTR [ecx+120], 0
$L187807:

; 851  :         }
; 852  :     }
; 853  : 
; 854  :     //Default-process the message
; 855  : 	CButton::OnLButtonDown(nFlags, point);

  028fa	8b 55 10	 mov	 edx, DWORD PTR _point$[ebp+4]
  028fd	52		 push	 edx
  028fe	8b 45 0c	 mov	 eax, DWORD PTR _point$[ebp]
  02901	50		 push	 eax
  02902	8b 4d 08	 mov	 ecx, DWORD PTR _nFlags$[ebp]
  02905	51		 push	 ecx
  02906	8b 4d fc	 mov	 ecx, DWORD PTR _this$[ebp]
  02909	e8 00 00 00 00	 call	 ?OnLButtonDown@CWnd@@IAEXIVCPoint@@@Z ; CWnd::OnLButtonDown

; 856  :     m_button_down = true;

  0290e	8b 55 fc	 mov	 edx, DWORD PTR _this$[ebp]
  02911	c6 42 79 01	 mov	 BYTE PTR [edx+121], 1

; 857  : }

  02915	52		 push	 edx
  02916	8b cd		 mov	 ecx, ebp
  02918	50		 push	 eax
  02919	8d 15 00 00 00
	00		 lea	 edx, DWORD PTR $L188695
  0291f	e8 00 00 00 00	 call	 @_RTC_CheckStackVars@8
  02924	58		 pop	 eax
  02925	5a		 pop	 edx
  02926	5e		 pop	 esi
  02927	83 c4 1c	 add	 esp, 28			; 0000001cH
  0292a	3b ec		 cmp	 ebp, esp
  0292c	e8 00 00 00 00	 call	 __RTC_CheckEsp
  02931	8b e5		 mov	 esp, ebp
  02933	5d		 pop	 ebp
  02934	c2 0c 00	 ret	 12			; 0000000cH
$L188695:
  02937	01 00 00 00	 DD	 1
  0293b	00 00 00 00	 DD	 $L188694
$L188694:
  0293f	e8 ff ff ff	 DD	 -24			; ffffffe8H
  02943	10 00 00 00	 DD	 16			; 00000010H
  02947	00 00 00 00	 DD	 $L188693
$L188693:
  0294b	74		 DB	 116			; 00000074H
  0294c	00		 DB	 0
?OnLButtonDown@CxSkinButton@@QAEXIVCPoint@@@Z ENDP	; CxSkinButton::OnLButtonDown
_TEXT	ENDS
EXTRN	?OnRButtonDown@CWnd@@IAEXIVCPoint@@@Z:NEAR	; CWnd::OnRButtonDown
EXTRN	?PostMessageA@CWnd@@QAEHIIJ@Z:NEAR		; CWnd::PostMessageA
; Function compile flags: /Odt /RTCsu
_TEXT	SEGMENT
_this$ = -4						; size = 4
_nFlags$ = 8						; size = 4
_point$ = 12						; size = 8
?OnRButtonDown@CxSkinButton@@QAEXIVCPoint@@@Z PROC NEAR	; CxSkinButton::OnRButtonDown
; _this$ = ecx

; 860  : {

  02950	55		 push	 ebp
  02951	8b ec		 mov	 ebp, esp
  02953	51		 push	 ecx
  02954	c7 45 fc cc cc
	cc cc		 mov	 DWORD PTR [ebp-4], -858993460 ; ccccccccH
  0295b	89 4d fc	 mov	 DWORD PTR _this$[ebp], ecx

; 861  : 	CButton::OnRButtonDown(nFlags, point);

  0295e	8b 45 10	 mov	 eax, DWORD PTR _point$[ebp+4]
  02961	50		 push	 eax
  02962	8b 4d 0c	 mov	 ecx, DWORD PTR _point$[ebp]
  02965	51		 push	 ecx
  02966	8b 55 08	 mov	 edx, DWORD PTR _nFlags$[ebp]
  02969	52		 push	 edx
  0296a	8b 4d fc	 mov	 ecx, DWORD PTR _this$[ebp]
  0296d	e8 00 00 00 00	 call	 ?OnRButtonDown@CWnd@@IAEXIVCPoint@@@Z ; CWnd::OnRButtonDown

; 862  : 
; 863  : 	if(m_bRClick)

  02972	8b 45 fc	 mov	 eax, DWORD PTR _this$[ebp]
  02975	83 78 54 00	 cmp	 DWORD PTR [eax+84], 0
  02979	74 41		 je	 SHORT $L187815

; 864  : 		PostMessage(WM_LBUTTONDOWN, (WPARAM)nFlags,MAKELPARAM(LOWORD(point.x),LOWORD(point.y)));

  0297b	8b 4d 0c	 mov	 ecx, DWORD PTR _point$[ebp]
  0297e	81 e1 ff ff 00
	00		 and	 ecx, 65535		; 0000ffffH
  02984	0f b7 d1	 movzx	 edx, cx
  02987	81 e2 ff ff 00
	00		 and	 edx, 65535		; 0000ffffH
  0298d	0f b7 c2	 movzx	 eax, dx
  02990	8b 4d 10	 mov	 ecx, DWORD PTR _point$[ebp+4]
  02993	81 e1 ff ff 00
	00		 and	 ecx, 65535		; 0000ffffH
  02999	0f b7 d1	 movzx	 edx, cx
  0299c	81 e2 ff ff 00
	00		 and	 edx, 65535		; 0000ffffH
  029a2	0f b7 ca	 movzx	 ecx, dx
  029a5	c1 e1 10	 shl	 ecx, 16			; 00000010H
  029a8	0b c1		 or	 eax, ecx
  029aa	50		 push	 eax
  029ab	8b 55 08	 mov	 edx, DWORD PTR _nFlags$[ebp]
  029ae	52		 push	 edx
  029af	68 01 02 00 00	 push	 513			; 00000201H
  029b4	8b 4d fc	 mov	 ecx, DWORD PTR _this$[ebp]
  029b7	e8 00 00 00 00	 call	 ?PostMessageA@CWnd@@QAEHIIJ@Z ; CWnd::PostMessageA
$L187815:

; 865  : }

  029bc	83 c4 04	 add	 esp, 4
  029bf	3b ec		 cmp	 ebp, esp
  029c1	e8 00 00 00 00	 call	 __RTC_CheckEsp
  029c6	8b e5		 mov	 esp, ebp
  029c8	5d		 pop	 ebp
  029c9	c2 0c 00	 ret	 12			; 0000000cH
?OnRButtonDown@CxSkinButton@@QAEXIVCPoint@@@Z ENDP	; CxSkinButton::OnRButtonDown
_TEXT	ENDS
EXTRN	?OnLButtonUp@CWnd@@IAEXIVCPoint@@@Z:NEAR	; CWnd::OnLButtonUp
EXTRN	__imp__ClientToScreen@8:NEAR
EXTRN	?SetCheck@CButton@@QAEXH@Z:NEAR			; CButton::SetCheck
; Function compile flags: /Odt /RTCsu
_TEXT	SEGMENT
_mouse_wnd$187837 = -24					; size = 4
_p2$187836 = -16					; size = 8
_this$ = -4						; size = 4
_nFlags$ = 8						; size = 4
_point$ = 12						; size = 8
?OnLButtonUp@CxSkinButton@@QAEXIVCPoint@@@Z PROC NEAR	; CxSkinButton::OnLButtonUp
; _this$ = ecx

; 886  : {

  029d0	55		 push	 ebp
  029d1	8b ec		 mov	 ebp, esp
  029d3	83 ec 18	 sub	 esp, 24			; 00000018H
  029d6	56		 push	 esi
  029d7	b8 cc cc cc cc	 mov	 eax, -858993460		; ccccccccH
  029dc	89 45 e8	 mov	 DWORD PTR [ebp-24], eax
  029df	89 45 ec	 mov	 DWORD PTR [ebp-20], eax
  029e2	89 45 f0	 mov	 DWORD PTR [ebp-16], eax
  029e5	89 45 f4	 mov	 DWORD PTR [ebp-12], eax
  029e8	89 45 f8	 mov	 DWORD PTR [ebp-8], eax
  029eb	89 45 fc	 mov	 DWORD PTR [ebp-4], eax
  029ee	89 4d fc	 mov	 DWORD PTR _this$[ebp], ecx

; 887  :     //TRACE("* %08X: up\n", ::GetTickCount());
; 888  : 
; 889  : 	if (m_Style){ //track mouse for radio & check buttons

  029f1	8b 45 fc	 mov	 eax, DWORD PTR _this$[ebp]
  029f4	83 78 74 00	 cmp	 DWORD PTR [eax+116], 0
  029f8	74 7c		 je	 SHORT $L187835

; 890  : 		POINT p2 = point;

  029fa	8b 4d 0c	 mov	 ecx, DWORD PTR _point$[ebp]
  029fd	89 4d f0	 mov	 DWORD PTR _p2$187836[ebp], ecx
  02a00	8b 55 10	 mov	 edx, DWORD PTR _point$[ebp+4]
  02a03	89 55 f4	 mov	 DWORD PTR _p2$187836[ebp+4], edx

; 891  : 		::ClientToScreen(m_hWnd, &p2);

  02a06	8b f4		 mov	 esi, esp
  02a08	8d 45 f0	 lea	 eax, DWORD PTR _p2$187836[ebp]
  02a0b	50		 push	 eax
  02a0c	8b 4d fc	 mov	 ecx, DWORD PTR _this$[ebp]
  02a0f	8b 51 20	 mov	 edx, DWORD PTR [ecx+32]
  02a12	52		 push	 edx
  02a13	ff 15 00 00 00
	00		 call	 DWORD PTR __imp__ClientToScreen@8
  02a19	3b f4		 cmp	 esi, esp
  02a1b	e8 00 00 00 00	 call	 __RTC_CheckEsp

; 892  : 		HWND mouse_wnd = ::WindowFromPoint(p2);

  02a20	8b f4		 mov	 esi, esp
  02a22	8b 45 f4	 mov	 eax, DWORD PTR _p2$187836[ebp+4]
  02a25	50		 push	 eax
  02a26	8b 4d f0	 mov	 ecx, DWORD PTR _p2$187836[ebp]
  02a29	51		 push	 ecx
  02a2a	ff 15 00 00 00
	00		 call	 DWORD PTR __imp__WindowFromPoint@8
  02a30	3b f4		 cmp	 esi, esp
  02a32	e8 00 00 00 00	 call	 __RTC_CheckEsp
  02a37	89 45 e8	 mov	 DWORD PTR _mouse_wnd$187837[ebp], eax

; 893  : 		if (mouse_wnd == m_hWnd){ // mouse is in button

  02a3a	8b 55 fc	 mov	 edx, DWORD PTR _this$[ebp]
  02a3d	8b 45 e8	 mov	 eax, DWORD PTR _mouse_wnd$187837[ebp]
  02a40	3b 42 20	 cmp	 eax, DWORD PTR [edx+32]
  02a43	75 31		 jne	 SHORT $L187835

; 894  : 			if (m_Style==BS_CHECKBOX) SetCheck(m_Checked ? 0 : 1);

  02a45	8b 4d fc	 mov	 ecx, DWORD PTR _this$[ebp]
  02a48	83 79 74 02	 cmp	 DWORD PTR [ecx+116], 2
  02a4c	75 15		 jne	 SHORT $L187839
  02a4e	8b 55 fc	 mov	 edx, DWORD PTR _this$[ebp]
  02a51	0f b6 42 71	 movzx	 eax, BYTE PTR [edx+113]
  02a55	f7 d8		 neg	 eax
  02a57	1b c0		 sbb	 eax, eax
  02a59	40		 inc	 eax
  02a5a	50		 push	 eax
  02a5b	8b 4d fc	 mov	 ecx, DWORD PTR _this$[ebp]
  02a5e	e8 00 00 00 00	 call	 ?SetCheck@CButton@@QAEXH@Z ; CButton::SetCheck
$L187839:

; 895  : 			if (m_Style==BS_RADIOBUTTON) SetCheck(1);

  02a63	8b 4d fc	 mov	 ecx, DWORD PTR _this$[ebp]
  02a66	83 79 74 04	 cmp	 DWORD PTR [ecx+116], 4
  02a6a	75 0a		 jne	 SHORT $L187835
  02a6c	6a 01		 push	 1
  02a6e	8b 4d fc	 mov	 ecx, DWORD PTR _this$[ebp]
  02a71	e8 00 00 00 00	 call	 ?SetCheck@CButton@@QAEXH@Z ; CButton::SetCheck
$L187835:

; 896  : 		}
; 897  : 	}
; 898  : 	//Pass this message to the ToolTip control
; 899  : 	RelayEvent(WM_LBUTTONUP,(WPARAM)nFlags,MAKELPARAM(LOWORD(point.x),LOWORD(point.y)));

  02a76	8b 55 0c	 mov	 edx, DWORD PTR _point$[ebp]
  02a79	81 e2 ff ff 00
	00		 and	 edx, 65535		; 0000ffffH
  02a7f	0f b7 c2	 movzx	 eax, dx
  02a82	25 ff ff 00 00	 and	 eax, 65535		; 0000ffffH
  02a87	0f b7 c8	 movzx	 ecx, ax
  02a8a	8b 55 10	 mov	 edx, DWORD PTR _point$[ebp+4]
  02a8d	81 e2 ff ff 00
	00		 and	 edx, 65535		; 0000ffffH
  02a93	0f b7 c2	 movzx	 eax, dx
  02a96	25 ff ff 00 00	 and	 eax, 65535		; 0000ffffH
  02a9b	0f b7 d0	 movzx	 edx, ax
  02a9e	c1 e2 10	 shl	 edx, 16			; 00000010H
  02aa1	0b ca		 or	 ecx, edx
  02aa3	51		 push	 ecx
  02aa4	8b 45 08	 mov	 eax, DWORD PTR _nFlags$[ebp]
  02aa7	50		 push	 eax
  02aa8	68 02 02 00 00	 push	 514			; 00000202H
  02aad	8b 4d fc	 mov	 ecx, DWORD PTR _this$[ebp]
  02ab0	e8 00 00 00 00	 call	 ?RelayEvent@CxSkinButton@@QAEXIIJ@Z ; CxSkinButton::RelayEvent

; 900  : 
; 901  :     //Default-process the message
; 902  :     m_button_down = false;

  02ab5	8b 4d fc	 mov	 ecx, DWORD PTR _this$[ebp]
  02ab8	c6 41 79 00	 mov	 BYTE PTR [ecx+121], 0

; 903  : 	CButton::OnLButtonUp(nFlags, point);

  02abc	8b 55 10	 mov	 edx, DWORD PTR _point$[ebp+4]
  02abf	52		 push	 edx
  02ac0	8b 45 0c	 mov	 eax, DWORD PTR _point$[ebp]
  02ac3	50		 push	 eax
  02ac4	8b 4d 08	 mov	 ecx, DWORD PTR _nFlags$[ebp]
  02ac7	51		 push	 ecx
  02ac8	8b 4d fc	 mov	 ecx, DWORD PTR _this$[ebp]
  02acb	e8 00 00 00 00	 call	 ?OnLButtonUp@CWnd@@IAEXIVCPoint@@@Z ; CWnd::OnLButtonUp

; 904  : }

  02ad0	52		 push	 edx
  02ad1	8b cd		 mov	 ecx, ebp
  02ad3	50		 push	 eax
  02ad4	8d 15 00 00 00
	00		 lea	 edx, DWORD PTR $L188700
  02ada	e8 00 00 00 00	 call	 @_RTC_CheckStackVars@8
  02adf	58		 pop	 eax
  02ae0	5a		 pop	 edx
  02ae1	5e		 pop	 esi
  02ae2	83 c4 18	 add	 esp, 24			; 00000018H
  02ae5	3b ec		 cmp	 ebp, esp
  02ae7	e8 00 00 00 00	 call	 __RTC_CheckEsp
  02aec	8b e5		 mov	 esp, ebp
  02aee	5d		 pop	 ebp
  02aef	c2 0c 00	 ret	 12			; 0000000cH
$L188700:
  02af2	01 00 00 00	 DD	 1
  02af6	00 00 00 00	 DD	 $L188699
$L188699:
  02afa	f0 ff ff ff	 DD	 -16			; fffffff0H
  02afe	08 00 00 00	 DD	 8
  02b02	00 00 00 00	 DD	 $L188698
$L188698:
  02b06	70		 DB	 112			; 00000070H
  02b07	32		 DB	 50			; 00000032H
  02b08	00		 DB	 0
?OnLButtonUp@CxSkinButton@@QAEXIVCPoint@@@Z ENDP	; CxSkinButton::OnLButtonUp
_TEXT	ENDS
PUBLIC	?SetRightClick@CxSkinButton@@QAEXH@Z		; CxSkinButton::SetRightClick
; Function compile flags: /Odt /RTCsu
_TEXT	SEGMENT
_this$ = -4						; size = 4
_bRightClick$ = 8					; size = 4
?SetRightClick@CxSkinButton@@QAEXH@Z PROC NEAR		; CxSkinButton::SetRightClick
; _this$ = ecx

; 906  : {

  02b10	55		 push	 ebp
  02b11	8b ec		 mov	 ebp, esp
  02b13	51		 push	 ecx
  02b14	c7 45 fc cc cc
	cc cc		 mov	 DWORD PTR [ebp-4], -858993460 ; ccccccccH
  02b1b	89 4d fc	 mov	 DWORD PTR _this$[ebp], ecx

; 907  : 	this->m_bRClick = bRightClick;

  02b1e	8b 45 fc	 mov	 eax, DWORD PTR _this$[ebp]
  02b21	8b 4d 08	 mov	 ecx, DWORD PTR _bRightClick$[ebp]
  02b24	89 48 54	 mov	 DWORD PTR [eax+84], ecx

; 908  : }

  02b27	8b e5		 mov	 esp, ebp
  02b29	5d		 pop	 ebp
  02b2a	c2 04 00	 ret	 4
?SetRightClick@CxSkinButton@@QAEXH@Z ENDP		; CxSkinButton::SetRightClick
_TEXT	ENDS
EXTRN	?OnRButtonUp@CWnd@@IAEXIVCPoint@@@Z:NEAR	; CWnd::OnRButtonUp
; Function compile flags: /Odt /RTCsu
_TEXT	SEGMENT
_this$ = -4						; size = 4
_nFlags$ = 8						; size = 4
_point$ = 12						; size = 8
?OnRButtonUp@CxSkinButton@@QAEXIVCPoint@@@Z PROC NEAR	; CxSkinButton::OnRButtonUp
; _this$ = ecx

; 911  : {

  02b30	55		 push	 ebp
  02b31	8b ec		 mov	 ebp, esp
  02b33	51		 push	 ecx
  02b34	c7 45 fc cc cc
	cc cc		 mov	 DWORD PTR [ebp-4], -858993460 ; ccccccccH
  02b3b	89 4d fc	 mov	 DWORD PTR _this$[ebp], ecx

; 912  : 	CButton::OnRButtonUp(nFlags, point);

  02b3e	8b 45 10	 mov	 eax, DWORD PTR _point$[ebp+4]
  02b41	50		 push	 eax
  02b42	8b 4d 0c	 mov	 ecx, DWORD PTR _point$[ebp]
  02b45	51		 push	 ecx
  02b46	8b 55 08	 mov	 edx, DWORD PTR _nFlags$[ebp]
  02b49	52		 push	 edx
  02b4a	8b 4d fc	 mov	 ecx, DWORD PTR _this$[ebp]
  02b4d	e8 00 00 00 00	 call	 ?OnRButtonUp@CWnd@@IAEXIVCPoint@@@Z ; CWnd::OnRButtonUp

; 913  : 	if(m_bRClick)

  02b52	8b 45 fc	 mov	 eax, DWORD PTR _this$[ebp]
  02b55	83 78 54 00	 cmp	 DWORD PTR [eax+84], 0
  02b59	74 41		 je	 SHORT $L187862

; 914  : 		PostMessage(WM_LBUTTONUP, (WPARAM)nFlags,MAKELPARAM(LOWORD(point.x),LOWORD(point.y)));

  02b5b	8b 4d 0c	 mov	 ecx, DWORD PTR _point$[ebp]
  02b5e	81 e1 ff ff 00
	00		 and	 ecx, 65535		; 0000ffffH
  02b64	0f b7 d1	 movzx	 edx, cx
  02b67	81 e2 ff ff 00
	00		 and	 edx, 65535		; 0000ffffH
  02b6d	0f b7 c2	 movzx	 eax, dx
  02b70	8b 4d 10	 mov	 ecx, DWORD PTR _point$[ebp+4]
  02b73	81 e1 ff ff 00
	00		 and	 ecx, 65535		; 0000ffffH
  02b79	0f b7 d1	 movzx	 edx, cx
  02b7c	81 e2 ff ff 00
	00		 and	 edx, 65535		; 0000ffffH
  02b82	0f b7 ca	 movzx	 ecx, dx
  02b85	c1 e1 10	 shl	 ecx, 16			; 00000010H
  02b88	0b c1		 or	 eax, ecx
  02b8a	50		 push	 eax
  02b8b	8b 55 08	 mov	 edx, DWORD PTR _nFlags$[ebp]
  02b8e	52		 push	 edx
  02b8f	68 02 02 00 00	 push	 514			; 00000202H
  02b94	8b 4d fc	 mov	 ecx, DWORD PTR _this$[ebp]
  02b97	e8 00 00 00 00	 call	 ?PostMessageA@CWnd@@QAEHIIJ@Z ; CWnd::PostMessageA
$L187862:

; 915  : }

  02b9c	83 c4 04	 add	 esp, 4
  02b9f	3b ec		 cmp	 ebp, esp
  02ba1	e8 00 00 00 00	 call	 __RTC_CheckEsp
  02ba6	8b e5		 mov	 esp, ebp
  02ba8	5d		 pop	 ebp
  02ba9	c2 0c 00	 ret	 12			; 0000000cH
?OnRButtonUp@CxSkinButton@@QAEXIVCPoint@@@Z ENDP	; CxSkinButton::OnRButtonUp
_TEXT	ENDS
EXTRN	?OnMouseMove@CWnd@@IAEXIVCPoint@@@Z:NEAR	; CWnd::OnMouseMove
; Function compile flags: /Odt /RTCsu
_TEXT	SEGMENT
_t$187903 = -48						; size = 16
_need_pressed$187899 = -26				; size = 1
_pressed$187898 = -25					; size = 1
_mouse_wnd$187897 = -24					; size = 4
_p2$187896 = -16					; size = 8
_this$ = -4						; size = 4
_nFlags$ = 8						; size = 4
_point$ = 12						; size = 8
?OnMouseMove@CxSkinButton@@QAEXIVCPoint@@@Z PROC NEAR	; CxSkinButton::OnMouseMove
; _this$ = ecx

; 938  : {

  02bb0	55		 push	 ebp
  02bb1	8b ec		 mov	 ebp, esp
  02bb3	83 ec 34	 sub	 esp, 52			; 00000034H
  02bb6	56		 push	 esi
  02bb7	57		 push	 edi
  02bb8	51		 push	 ecx
  02bb9	8d 7d cc	 lea	 edi, DWORD PTR [ebp-52]
  02bbc	b9 0d 00 00 00	 mov	 ecx, 13			; 0000000dH
  02bc1	b8 cc cc cc cc	 mov	 eax, -858993460		; ccccccccH
  02bc6	f3 ab		 rep stosd
  02bc8	59		 pop	 ecx
  02bc9	89 4d fc	 mov	 DWORD PTR _this$[ebp], ecx

; 939  :     //TRACE("* %08X: Mouse\n", ::GetTickCount());
; 940  : 
; 941  : 	//Pass this message to the ToolTip control
; 942  : 	RelayEvent(WM_MOUSEMOVE,(WPARAM)nFlags,MAKELPARAM(LOWORD(point.x),LOWORD(point.y)));

  02bcc	8b 45 0c	 mov	 eax, DWORD PTR _point$[ebp]
  02bcf	25 ff ff 00 00	 and	 eax, 65535		; 0000ffffH
  02bd4	0f b7 c8	 movzx	 ecx, ax
  02bd7	81 e1 ff ff 00
	00		 and	 ecx, 65535		; 0000ffffH
  02bdd	0f b7 d1	 movzx	 edx, cx
  02be0	8b 45 10	 mov	 eax, DWORD PTR _point$[ebp+4]
  02be3	25 ff ff 00 00	 and	 eax, 65535		; 0000ffffH
  02be8	0f b7 c8	 movzx	 ecx, ax
  02beb	81 e1 ff ff 00
	00		 and	 ecx, 65535		; 0000ffffH
  02bf1	0f b7 c1	 movzx	 eax, cx
  02bf4	c1 e0 10	 shl	 eax, 16			; 00000010H
  02bf7	0b d0		 or	 edx, eax
  02bf9	52		 push	 edx
  02bfa	8b 4d 08	 mov	 ecx, DWORD PTR _nFlags$[ebp]
  02bfd	51		 push	 ecx
  02bfe	68 00 02 00 00	 push	 512			; 00000200H
  02c03	8b 4d fc	 mov	 ecx, DWORD PTR _this$[ebp]
  02c06	e8 00 00 00 00	 call	 ?RelayEvent@CxSkinButton@@QAEXIIJ@Z ; CxSkinButton::RelayEvent

; 943  : 
; 944  : 
; 945  :     //If we are in capture mode, button has been pressed down
; 946  :     //recently and not yet released - therefore check is we are
; 947  :     //actually over the button or somewhere else. If the mouse
; 948  :     //position changed considerably (e.g. we moved mouse pointer
; 949  :     //from the button to some other place outside button area)
; 950  :     //force the control to redraw
; 951  :     //
; 952  :     if ((m_button_down) && (::GetCapture() == m_hWnd)) {

  02c0b	8b 55 fc	 mov	 edx, DWORD PTR _this$[ebp]
  02c0e	0f b6 42 79	 movzx	 eax, BYTE PTR [edx+121]
