; Listing generated by Microsoft (R) Optimizing Compiler Version 13.10.3077 

	TITLE	.\src\Gui\CommonControl\xStaticText.cpp
	.386P
include listing.inc
if @Version gt 510
.model FLAT
else
_TEXT	SEGMENT PARA USE32 PUBLIC 'CODE'
_TEXT	ENDS
_DATA	SEGMENT DWORD USE32 PUBLIC 'DATA'
_DATA	ENDS
CONST	SEGMENT DWORD USE32 PUBLIC 'CONST'
CONST	ENDS
_BSS	SEGMENT DWORD USE32 PUBLIC 'BSS'
_BSS	ENDS
$$SYMBOLS	SEGMENT BYTE USE32 'DEBSYM'
$$SYMBOLS	ENDS
_TLS	SEGMENT DWORD USE32 PUBLIC 'TLS'
_TLS	ENDS
;	COMDAT ??_C@_0EN@IBFBLEEG@D?3?2Program?5Files?5?$CIx86?$CJ?2Microsoft@
CONST	SEGMENT DWORD USE32 PUBLIC 'CONST'
CONST	ENDS
;	COMDAT ??_C@_0EP@JJIBAMED@D?3?2Program?5Files?5?$CIx86?$CJ?2Microsoft@
CONST	SEGMENT DWORD USE32 PUBLIC 'CONST'
CONST	ENDS
rdata$r	SEGMENT DWORD USE32 PUBLIC 'CONST'
rdata$r	ENDS
xdata$x	SEGMENT DWORD USE32 PUBLIC 'CONST'
xdata$x	ENDS
text$AFX_COL1	SEGMENT PARA USE32 PUBLIC ''
text$AFX_COL1	ENDS
text$yc	SEGMENT PARA USE32 PUBLIC 'CODE'
text$yc	ENDS
CRT$XCA	SEGMENT DWORD USE32 PUBLIC 'DATA'
CRT$XCA	ENDS
CRT$XCU	SEGMENT DWORD USE32 PUBLIC 'DATA'
CRT$XCU	ENDS
CRT$XCL	SEGMENT DWORD USE32 PUBLIC 'DATA'
CRT$XCL	ENDS
CRT$XCC	SEGMENT DWORD USE32 PUBLIC 'DATA'
CRT$XCC	ENDS
CRT$XCZ	SEGMENT DWORD USE32 PUBLIC 'DATA'
CRT$XCZ	ENDS
text$yd	SEGMENT PARA USE32 PUBLIC 'CODE'
text$yd	ENDS
ATL$__m	SEGMENT DWORD USE32 PUBLIC ''
ATL$__m	ENDS
ATL$__z	SEGMENT DWORD USE32 PUBLIC ''
ATL$__z	ENDS
ATL$__a	SEGMENT DWORD USE32 PUBLIC ''
ATL$__a	ENDS
;	COMDAT ??_GCxStaticText@@UAEPAXI@Z
_TEXT	SEGMENT PARA USE32 PUBLIC 'CODE'
_TEXT	ENDS
;	COMDAT ??HATL@@YA?AV?$CStringT@DV?$StrTraitMFC_DLL@DV?$ChTraitsCRT@D@ATL@@@@@0@ABV10@PBD@Z
_TEXT	SEGMENT PARA USE32 PUBLIC 'CODE'
_TEXT	ENDS
;	COMDAT ??B?$CComPtrBase@UITypeInfo2@@@ATL@@QBEPAUITypeInfo2@@XZ
_TEXT	SEGMENT PARA USE32 PUBLIC 'CODE'
_TEXT	ENDS
;	COMDAT ?equal@?$istreambuf_iterator@DU?$char_traits@D@std@@@std@@QBE_NABV12@@Z
_TEXT	SEGMENT PARA USE32 PUBLIC 'CODE'
_TEXT	ENDS
;	COMDAT ?equal@?$istreambuf_iterator@_WU?$char_traits@_W@std@@@std@@QBE_NABV12@@Z
_TEXT	SEGMENT PARA USE32 PUBLIC 'CODE'
_TEXT	ENDS
;	COMDAT ??Diterator@?$basic_string@_WU?$char_traits@_W@std@@V?$allocator@_W@2@@std@@QBEAA_WXZ
_TEXT	SEGMENT PARA USE32 PUBLIC 'CODE'
_TEXT	ENDS
;	COMDAT ??Fiterator@?$basic_string@_WU?$char_traits@_W@std@@V?$allocator@_W@2@@std@@QAEAAV012@XZ
_TEXT	SEGMENT PARA USE32 PUBLIC 'CODE'
_TEXT	ENDS
;	COMDAT ??Giterator@?$basic_string@_WU?$char_traits@_W@std@@V?$allocator@_W@2@@std@@QBE?AV012@H@Z
_TEXT	SEGMENT PARA USE32 PUBLIC 'CODE'
_TEXT	ENDS
;	COMDAT ??B?$fpos@H@std@@QBEJXZ
_TEXT	SEGMENT PARA USE32 PUBLIC 'CODE'
_TEXT	ENDS
;	COMDAT ??Dconst_iterator@?$basic_string@_WU?$char_traits@_W@std@@V?$allocator@_W@2@@std@@QBEAB_WXZ
_TEXT	SEGMENT PARA USE32 PUBLIC 'CODE'
_TEXT	ENDS
;	COMDAT ??0iterator@?$basic_string@_WU?$char_traits@_W@std@@V?$allocator@_W@2@@std@@QAE@PA_W@Z
_TEXT	SEGMENT PARA USE32 PUBLIC 'CODE'
_TEXT	ENDS
;	COMDAT ??Ziterator@?$basic_string@_WU?$char_traits@_W@std@@V?$allocator@_W@2@@std@@QAEAAV012@H@Z
_TEXT	SEGMENT PARA USE32 PUBLIC 'CODE'
_TEXT	ENDS
;	COMDAT ??0const_iterator@?$basic_string@_WU?$char_traits@_W@std@@V?$allocator@_W@2@@std@@QAE@PB_W@Z
_TEXT	SEGMENT PARA USE32 PUBLIC 'CODE'
_TEXT	ENDS
;	COMDAT ??Gconst_iterator@?$basic_string@_WU?$char_traits@_W@std@@V?$allocator@_W@2@@std@@QBEHABV012@@Z
_TEXT	SEGMENT PARA USE32 PUBLIC 'CODE'
_TEXT	ENDS
;	COMDAT ??Yiterator@?$basic_string@_WU?$char_traits@_W@std@@V?$allocator@_W@2@@std@@QAEAAV012@H@Z
_TEXT	SEGMENT PARA USE32 PUBLIC 'CODE'
_TEXT	ENDS
;	COMDAT ?Unlock@?$CComCritSecLock@VCComCriticalSection@ATL@@@ATL@@QAEXXZ
_TEXT	SEGMENT PARA USE32 PUBLIC 'CODE'
_TEXT	ENDS
;	COMDAT ??$_Maklocstr@D@std@@YAPADPBDPADABU_Cvtvec@@@Z
_TEXT	SEGMENT PARA USE32 PUBLIC 'CODE'
_TEXT	ENDS
;	COMDAT ??_R3CxStaticText@@8
rdata$r	SEGMENT DWORD USE32 PUBLIC 'CONST'
rdata$r	ENDS
;	COMDAT ??_R3?$numpunct@_W@std@@8
rdata$r	SEGMENT DWORD USE32 PUBLIC 'CONST'
rdata$r	ENDS
;	COMDAT ??_R3?$numpunct@D@std@@8
rdata$r	SEGMENT DWORD USE32 PUBLIC 'CONST'
rdata$r	ENDS
;	COMDAT ??_R2CxStaticText@@8
rdata$r	SEGMENT DWORD USE32 PUBLIC 'CONST'
rdata$r	ENDS
;	COMDAT ??_R2?$numpunct@_W@std@@8
rdata$r	SEGMENT DWORD USE32 PUBLIC 'CONST'
rdata$r	ENDS
;	COMDAT ??_R2?$numpunct@D@std@@8
rdata$r	SEGMENT DWORD USE32 PUBLIC 'CONST'
rdata$r	ENDS
;	COMDAT ??_R1A@?0A@A@CObject@@8
rdata$r	SEGMENT DWORD USE32 PUBLIC 'CONST'
rdata$r	ENDS
;	COMDAT ??_R0?AVCObject@@@8
_DATA	SEGMENT DWORD USE32 PUBLIC 'DATA'
_DATA	ENDS
;	COMDAT ??_R1A@?0A@A@CCmdTarget@@8
rdata$r	SEGMENT DWORD USE32 PUBLIC 'CONST'
rdata$r	ENDS
;	COMDAT ??_R0?AVCCmdTarget@@@8
_DATA	SEGMENT DWORD USE32 PUBLIC 'DATA'
_DATA	ENDS
;	COMDAT ??_R1A@?0A@A@CWnd@@8
rdata$r	SEGMENT DWORD USE32 PUBLIC 'CONST'
rdata$r	ENDS
;	COMDAT ??_R0?AVCWnd@@@8
_DATA	SEGMENT DWORD USE32 PUBLIC 'DATA'
_DATA	ENDS
;	COMDAT ??_R1A@?0A@A@CStatic@@8
rdata$r	SEGMENT DWORD USE32 PUBLIC 'CONST'
rdata$r	ENDS
;	COMDAT ??_R1A@?0A@A@CxStaticText@@8
rdata$r	SEGMENT DWORD USE32 PUBLIC 'CONST'
rdata$r	ENDS
;	COMDAT ??_R1A@?0A@A@?$numpunct@_W@std@@8
rdata$r	SEGMENT DWORD USE32 PUBLIC 'CONST'
rdata$r	ENDS
;	COMDAT ??_R1A@?0A@A@facet@locale@std@@8
rdata$r	SEGMENT DWORD USE32 PUBLIC 'CONST'
rdata$r	ENDS
;	COMDAT ??_R0?AVfacet@locale@std@@@8
_DATA	SEGMENT DWORD USE32 PUBLIC 'DATA'
_DATA	ENDS
;	COMDAT ??_R1A@?0A@A@?$numpunct@D@std@@8
rdata$r	SEGMENT DWORD USE32 PUBLIC 'CONST'
rdata$r	ENDS
;	COMDAT ??_R0?AVCStatic@@@8
_DATA	SEGMENT DWORD USE32 PUBLIC 'DATA'
_DATA	ENDS
;	COMDAT ??_R0?AVCxStaticText@@@8
_DATA	SEGMENT DWORD USE32 PUBLIC 'DATA'
_DATA	ENDS
;	COMDAT ??_R0?AV?$numpunct@_W@std@@@8
_DATA	SEGMENT DWORD USE32 PUBLIC 'DATA'
_DATA	ENDS
;	COMDAT ??_R0?AV?$numpunct@D@std@@@8
_DATA	SEGMENT DWORD USE32 PUBLIC 'DATA'
_DATA	ENDS
;	COMDAT ??_R4CxStaticText@@6B@
rdata$r	SEGMENT DWORD USE32 PUBLIC 'CONST'
rdata$r	ENDS
;	COMDAT ??0?$allocator@D@std@@QAE@ABV01@@Z
_TEXT	SEGMENT PARA USE32 PUBLIC 'CODE'
_TEXT	ENDS
;	COMDAT ??0?$allocator@D@std@@QAE@XZ
_TEXT	SEGMENT PARA USE32 PUBLIC 'CODE'
_TEXT	ENDS
;	COMDAT ?max_size@?$allocator@D@std@@QBEIXZ
_TEXT	SEGMENT PARA USE32 PUBLIC 'CODE'
_TEXT	ENDS
;	COMDAT ??_G?$numpunct@_W@std@@MAEPAXI@Z
_TEXT	SEGMENT PARA USE32 PUBLIC 'CODE'
_TEXT	ENDS
;	COMDAT ??_R4?$numpunct@_W@std@@6B@
rdata$r	SEGMENT DWORD USE32 PUBLIC 'CONST'
rdata$r	ENDS
;	COMDAT ??_G?$numpunct@D@std@@MAEPAXI@Z
_TEXT	SEGMENT PARA USE32 PUBLIC 'CODE'
_TEXT	ENDS
;	COMDAT ??_R4?$numpunct@D@std@@6B@
rdata$r	SEGMENT DWORD USE32 PUBLIC 'CONST'
rdata$r	ENDS
;	COMDAT ??_C@_0EN@CBMLGOH@D?3?2Program?5Files?5?$CIx86?$CJ?2Microsoft@
CONST	SEGMENT DWORD USE32 PUBLIC 'CONST'
CONST	ENDS
;	COMDAT ?_Psave@?$_Facetptr@V?$numpunct@_W@std@@@std@@2PBVfacet@locale@2@B
_DATA	SEGMENT DWORD USE32 PUBLIC 'DATA'
_DATA	ENDS
;	COMDAT ?_Psave@?$_Facetptr@V?$numpunct@D@std@@@std@@2PBVfacet@locale@2@B
_DATA	SEGMENT DWORD USE32 PUBLIC 'DATA'
_DATA	ENDS
;	COMDAT ?Unlock@CComCriticalSection@ATL@@QAEJXZ
_TEXT	SEGMENT PARA USE32 PUBLIC 'CODE'
_TEXT	ENDS
;	COMDAT ??_C@_0FG@LDNDNCJM@D?3?2Program?5Files?5?$CIx86?$CJ?2Microsoft@
CONST	SEGMENT DWORD USE32 PUBLIC 'CONST'
CONST	ENDS
;	COMDAT ??_C@_09HIEJFN@m_bLocked?$AA@
CONST	SEGMENT DWORD USE32 PUBLIC 'CONST'
CONST	ENDS
;	COMDAT ?_Psave@?$_Facetptr@V?$ctype@_W@std@@@std@@2PBVfacet@locale@2@B
_DATA	SEGMENT DWORD USE32 PUBLIC 'DATA'
_DATA	ENDS
;	COMDAT ?_Psave@?$_Facetptr@V?$ctype@D@std@@@std@@2PBVfacet@locale@2@B
_DATA	SEGMENT DWORD USE32 PUBLIC 'DATA'
_DATA	ENDS
;	COMDAT ??$_Maklocchr@_W@std@@YA_WDPA_WABU_Cvtvec@@@Z
_TEXT	SEGMENT PARA USE32 PUBLIC 'CODE'
_TEXT	ENDS
;	COMDAT ??$_DebugHeapDelete@X@std@@YAXPAX@Z
_TEXT	SEGMENT PARA USE32 PUBLIC 'CODE'
_TEXT	ENDS
;	COMDAT ??$_Maklocstr@_W@std@@YAPA_WPBDPA_WABU_Cvtvec@@@Z
_TEXT	SEGMENT PARA USE32 PUBLIC 'CODE'
_TEXT	ENDS
;	COMDAT ??$_Maklocchr@D@std@@YADDPADABU_Cvtvec@@@Z
_TEXT	SEGMENT PARA USE32 PUBLIC 'CODE'
_TEXT	ENDS
;	COMDAT ??_C@_04LOAJBDKD@true?$AA@
CONST	SEGMENT DWORD USE32 PUBLIC 'CONST'
CONST	ENDS
;	COMDAT ??_C@_05LAPONLG@false?$AA@
CONST	SEGMENT DWORD USE32 PUBLIC 'CONST'
CONST	ENDS
;	COMDAT _wmemmove
_TEXT	SEGMENT PARA USE32 PUBLIC 'CODE'
_TEXT	ENDS
;	COMDAT ?max_size@?$allocator@_W@std@@QBEIXZ
_TEXT	SEGMENT PARA USE32 PUBLIC 'CODE'
_TEXT	ENDS
;	COMDAT ??_C@_01GFHCPBMG@C?$AA@
CONST	SEGMENT DWORD USE32 PUBLIC 'CONST'
CONST	ENDS
;	COMDAT _wmemcmp
_TEXT	SEGMENT PARA USE32 PUBLIC 'CODE'
_TEXT	ENDS
;	COMDAT _wmemchr
_TEXT	SEGMENT PARA USE32 PUBLIC 'CODE'
_TEXT	ENDS
;	COMDAT ??0?$allocator@_W@std@@QAE@XZ
_TEXT	SEGMENT PARA USE32 PUBLIC 'CODE'
_TEXT	ENDS
;	COMDAT ?Release@CStringData@ATL@@QAEXXZ
_TEXT	SEGMENT PARA USE32 PUBLIC 'CODE'
_TEXT	ENDS
;	COMDAT ??_C@_0L@OIIMFBNE@nRefs?5?$CB?$DN?50?$AA@
CONST	SEGMENT DWORD USE32 PUBLIC 'CONST'
CONST	ENDS
;	COMDAT ??_C@_0FJ@DMHPDOJC@D?3?2Program?5Files?5?$CIx86?$CJ?2Microsoft@
CONST	SEGMENT DWORD USE32 PUBLIC 'CONST'
CONST	ENDS
;	COMDAT ??_C@_0BA@GOIMFHNK@pStringMgr?5?$CB?$DN?50?$AA@
CONST	SEGMENT DWORD USE32 PUBLIC 'CONST'
CONST	ENDS
;	COMDAT ?data@CStringData@ATL@@QAEPAXXZ
_TEXT	SEGMENT PARA USE32 PUBLIC 'CODE'
_TEXT	ENDS
;	COMDAT ??_C@_0BA@GNIEOBOF@nNewLength?5?$DO?$DN?50?$AA@
CONST	SEGMENT DWORD USE32 PUBLIC 'CONST'
CONST	ENDS
;	COMDAT ??_C@_0N@ILOMLJGA@nLength?5?$DO?$DN?50?$AA@
CONST	SEGMENT DWORD USE32 PUBLIC 'CONST'
CONST	ENDS
;	COMDAT ??_C@_0CD@EEFFJEGJ@nLength?5?$DM?$DN?5GetData?$CI?$CJ?9?$DOnAllocLeng@
CONST	SEGMENT DWORD USE32 PUBLIC 'CONST'
CONST	ENDS
;	COMDAT ?AtlThrow@ATL@@YGXJ@Z
_TEXT	SEGMENT PARA USE32 PUBLIC 'CODE'
_TEXT	ENDS
;	COMDAT ??RCTraceFileAndLineInfo@ATL@@QBAXKIPBDZZ
_TEXT	SEGMENT PARA USE32 PUBLIC 'CODE'
_TEXT	ENDS
;	COMDAT ?TraceV@CTrace@ATL@@QBAXPBDHKI0PAD@Z
_TEXT	SEGMENT PARA USE32 PUBLIC 'CODE'
_TEXT	ENDS
;	COMDAT ??0CTraceFileAndLineInfo@ATL@@QAE@PBDH@Z
_TEXT	SEGMENT PARA USE32 PUBLIC 'CODE'
_TEXT	ENDS
;	COMDAT ??_C@_0FI@NHHJANPC@D?3?2Program?5Files?5?$CIx86?$CJ?2Microsoft@
CONST	SEGMENT DWORD USE32 PUBLIC 'CONST'
CONST	ENDS
;	COMDAT ??_C@_0BF@IAAKIJDJ@AtlThrow?3?5hr?5?$DN?50x?$CFx?6?$AA@
CONST	SEGMENT DWORD USE32 PUBLIC 'CONST'
CONST	ENDS
;	COMDAT ??BCTraceCategory@ATL@@QBEKXZ
_TEXT	SEGMENT PARA USE32 PUBLIC 'CODE'
_TEXT	ENDS
;	COMDAT ?IsShared@CStringData@ATL@@QBE_NXZ
_TEXT	SEGMENT PARA USE32 PUBLIC 'CODE'
_TEXT	ENDS
;	COMDAT ??_C@_0CB@GFHAPKDK@pOldData?9?$DOnAllocLength?5?$DM?5nLength@
CONST	SEGMENT DWORD USE32 PUBLIC 'CONST'
CONST	ENDS
;	COMDAT ?deallocate@?$allocator@_W@std@@QAEXPA_WI@Z
_TEXT	SEGMENT PARA USE32 PUBLIC 'CODE'
_TEXT	ENDS
;	COMDAT _wmemcpy
_TEXT	SEGMENT PARA USE32 PUBLIC 'CODE'
_TEXT	ENDS
;	COMDAT ?allocate@?$allocator@_W@std@@QAEPA_WI@Z
_TEXT	SEGMENT PARA USE32 PUBLIC 'CODE'
_TEXT	ENDS
;	COMDAT ??$_Allocate@_W@std@@YAPA_WIPA_W@Z
_TEXT	SEGMENT PARA USE32 PUBLIC 'CODE'
_TEXT	ENDS
;	COMDAT ??$_DebugHeapDelete@Vlocale@std@@@std@@YAXPAVlocale@0@@Z
_TEXT	SEGMENT PARA USE32 PUBLIC 'CODE'
_TEXT	ENDS
;	COMDAT ??_Glocale@std@@QAEPAXI@Z
_TEXT	SEGMENT PARA USE32 PUBLIC 'CODE'
_TEXT	ENDS
;	COMDAT ??0?$fpos@H@std@@QAE@J@Z
_TEXT	SEGMENT PARA USE32 PUBLIC 'CODE'
_TEXT	ENDS
;	COMDAT ?_Stz@?$fpos@H@std@@0HA
_BSS	SEGMENT DWORD USE32 PUBLIC 'BSS'
_BSS	ENDS
;	COMDAT ?deallocate@?$allocator@D@std@@QAEXPADI@Z
_TEXT	SEGMENT PARA USE32 PUBLIC 'CODE'
_TEXT	ENDS
;	COMDAT ?allocate@?$allocator@D@std@@QAEPADI@Z
_TEXT	SEGMENT PARA USE32 PUBLIC 'CODE'
_TEXT	ENDS
;	COMDAT ??$_Allocate@D@std@@YAPADIPAD@Z
_TEXT	SEGMENT PARA USE32 PUBLIC 'CODE'
_TEXT	ENDS
;	COMDAT ?_Peek@?$istreambuf_iterator@_WU?$char_traits@_W@std@@@std@@AAE_WXZ
_TEXT	SEGMENT PARA USE32 PUBLIC 'CODE'
_TEXT	ENDS
;	COMDAT ?_Peek@?$istreambuf_iterator@DU?$char_traits@D@std@@@std@@AAEDXZ
_TEXT	SEGMENT PARA USE32 PUBLIC 'CODE'
_TEXT	ENDS
;	COMDAT ??$use_facet@V?$ctype@_W@std@@@std@@YAABV?$ctype@_W@0@ABVlocale@0@@Z
_TEXT	SEGMENT PARA USE32 PUBLIC 'CODE'
_TEXT	ENDS
;	COMDAT ??_S?$ctype@_W@std@@6B@
CONST	SEGMENT DWORD USE32 PUBLIC 'CONST'
CONST	ENDS
;	COMDAT ??_R4?$ctype@_W@std@@6B@
rdata$r	SEGMENT DWORD USE32 PUBLIC 'CONST'
rdata$r	ENDS
;	COMDAT ??_R0?AV?$ctype@_W@std@@@8
_DATA	SEGMENT DWORD USE32 PUBLIC 'DATA'
_DATA	ENDS
;	COMDAT ??_R3?$ctype@_W@std@@8
rdata$r	SEGMENT DWORD USE32 PUBLIC 'CONST'
rdata$r	ENDS
;	COMDAT ??_R2?$ctype@_W@std@@8
rdata$r	SEGMENT DWORD USE32 PUBLIC 'CONST'
rdata$r	ENDS
;	COMDAT ??_R1A@?0A@A@?$ctype@_W@std@@8
rdata$r	SEGMENT DWORD USE32 PUBLIC 'CONST'
rdata$r	ENDS
;	COMDAT ??_R1A@?0A@A@ctype_base@std@@8
rdata$r	SEGMENT DWORD USE32 PUBLIC 'CONST'
rdata$r	ENDS
;	COMDAT ??_R0?AUctype_base@std@@@8
_DATA	SEGMENT DWORD USE32 PUBLIC 'DATA'
_DATA	ENDS
;	COMDAT ??_G?$ctype@_W@std@@MAEPAXI@Z
_TEXT	SEGMENT PARA USE32 PUBLIC 'CODE'
_TEXT	ENDS
;	COMDAT ??_C@_08EPJLHIJG@bad?5cast?$AA@
CONST	SEGMENT DWORD USE32 PUBLIC 'CONST'
CONST	ENDS
;	COMDAT __TI2?AVbad_cast@@
xdata$x	SEGMENT DWORD USE32 PUBLIC 'CONST'
xdata$x	ENDS
;	COMDAT __CTA2?AVbad_cast@@
xdata$x	SEGMENT DWORD USE32 PUBLIC 'CONST'
xdata$x	ENDS
;	COMDAT __CT??_R0?AVbad_cast@@@8??0bad_cast@@QAE@ABV0@@Z12
xdata$x	SEGMENT DWORD USE32 PUBLIC 'CONST'
xdata$x	ENDS
;	COMDAT ??_R0?AVbad_cast@@@8
_DATA	SEGMENT DWORD USE32 PUBLIC 'DATA'
_DATA	ENDS
;	COMDAT __CT??_R0?AVexception@@@8??0exception@@QAE@ABV0@@Z12
xdata$x	SEGMENT DWORD USE32 PUBLIC 'CONST'
xdata$x	ENDS
;	COMDAT ??_R0?AVexception@@@8
_DATA	SEGMENT DWORD USE32 PUBLIC 'DATA'
_DATA	ENDS
;	COMDAT ??$_DebugHeapDelete@Vfacet@locale@std@@@std@@YAXPAVfacet@locale@0@@Z
_TEXT	SEGMENT PARA USE32 PUBLIC 'CODE'
_TEXT	ENDS
;	COMDAT ??$use_facet@V?$ctype@D@std@@@std@@YAABV?$ctype@D@0@ABVlocale@0@@Z
_TEXT	SEGMENT PARA USE32 PUBLIC 'CODE'
_TEXT	ENDS
;	COMDAT ??_S?$ctype@D@std@@6B@
CONST	SEGMENT DWORD USE32 PUBLIC 'CONST'
CONST	ENDS
;	COMDAT ??_R4?$ctype@D@std@@6B@
rdata$r	SEGMENT DWORD USE32 PUBLIC 'CONST'
rdata$r	ENDS
;	COMDAT ??_R0?AV?$ctype@D@std@@@8
_DATA	SEGMENT DWORD USE32 PUBLIC 'DATA'
_DATA	ENDS
;	COMDAT ??_R3?$ctype@D@std@@8
rdata$r	SEGMENT DWORD USE32 PUBLIC 'CONST'
rdata$r	ENDS
;	COMDAT ??_R2?$ctype@D@std@@8
rdata$r	SEGMENT DWORD USE32 PUBLIC 'CONST'
rdata$r	ENDS
;	COMDAT ??_R1A@?0A@A@?$ctype@D@std@@8
rdata$r	SEGMENT DWORD USE32 PUBLIC 'CONST'
rdata$r	ENDS
;	COMDAT ??_G?$ctype@D@std@@MAEPAXI@Z
_TEXT	SEGMENT PARA USE32 PUBLIC 'CODE'
_TEXT	ENDS
;	COMDAT ??_S?$numpunct@_W@std@@6B@
CONST	SEGMENT DWORD USE32 PUBLIC 'CONST'
CONST	ENDS
;	COMDAT ??_S?$numpunct@D@std@@6B@
CONST	SEGMENT DWORD USE32 PUBLIC 'CONST'
CONST	ENDS
;	COMDAT ??0?$allocator@_W@std@@QAE@ABV01@@Z
_TEXT	SEGMENT PARA USE32 PUBLIC 'CODE'
_TEXT	ENDS
;	COMDAT ?IsLocked@CStringData@ATL@@QBE_NXZ
_TEXT	SEGMENT PARA USE32 PUBLIC 'CODE'
_TEXT	ENDS
;	COMDAT ?AddRef@CStringData@ATL@@QAEXXZ
_TEXT	SEGMENT PARA USE32 PUBLIC 'CODE'
_TEXT	ENDS
;	COMDAT ??_C@_09EEBKLCFA@nRefs?5?$DO?50?$AA@
CONST	SEGMENT DWORD USE32 PUBLIC 'CONST'
CONST	ENDS
;	COMDAT ??$getline@_WU?$char_traits@_W@std@@V?$allocator@_W@2@@std@@YAAAV?$basic_istream@_WU?$char_traits@_W@std@@@0@AAV10@AAV?$basic_string@_WU?$char_traits@_W@std@@V?$allocator@_W@2@@0@_W@Z
_TEXT	SEGMENT PARA USE32 PUBLIC 'CODE'
_TEXT	ENDS
;	COMDAT ??0sentry@?$basic_istream@_WU?$char_traits@_W@std@@@std@@QAE@AAV12@_N@Z
_TEXT	SEGMENT PARA USE32 PUBLIC 'CODE'
_TEXT	ENDS
;	COMDAT ??0_Sentry_base@?$basic_istream@_WU?$char_traits@_W@std@@@std@@QAE@AAV12@@Z
_TEXT	SEGMENT PARA USE32 PUBLIC 'CODE'
_TEXT	ENDS
;	COMDAT ??1_Sentry_base@?$basic_istream@_WU?$char_traits@_W@std@@@std@@QAE@XZ
_TEXT	SEGMENT PARA USE32 PUBLIC 'CODE'
_TEXT	ENDS
;	COMDAT ??1sentry@?$basic_istream@_WU?$char_traits@_W@std@@@std@@QAE@XZ
_TEXT	SEGMENT PARA USE32 PUBLIC 'CODE'
_TEXT	ENDS
;	COMDAT ??Bsentry@?$basic_istream@_WU?$char_traits@_W@std@@@std@@QBE_NXZ
_TEXT	SEGMENT PARA USE32 PUBLIC 'CODE'
_TEXT	ENDS
;	COMDAT _wmemset
_TEXT	SEGMENT PARA USE32 PUBLIC 'CODE'
_TEXT	ENDS
;	COMDAT ?_messageEntries@CxStaticText@@0QBUAFX_MSGMAP_ENTRY@@B
CONST	SEGMENT DWORD USE32 PUBLIC 'CONST'
CONST	ENDS
;	COMDAT ?messageMap@CxStaticText@@1UAFX_MSGMAP@@B
CONST	SEGMENT DWORD USE32 PUBLIC 'CONST'
CONST	ENDS
;	COMDAT ?GetDefaultManager@?$StrTraitMFC_DLL@DV?$ChTraitsCRT@D@ATL@@@@SAPAUIAtlStringMgr@ATL@@XZ
_TEXT	SEGMENT PARA USE32 PUBLIC 'CODE'
_TEXT	ENDS
;	COMDAT ?FindStringResourceInstance@?$StrTraitMFC_DLL@DV?$ChTraitsCRT@D@ATL@@@@SAPAUHINSTANCE__@@I@Z
_TEXT	SEGMENT PARA USE32 PUBLIC 'CODE'
_TEXT	ENDS
;	COMDAT ?AtlGetStringResourceImage@ATL@@YAPBUATLSTRINGRESOURCEIMAGE@1@PAUHINSTANCE__@@I@Z
_TEXT	SEGMENT PARA USE32 PUBLIC 'CODE'
_TEXT	ENDS
;	COMDAT ?_AtlGetStringResourceImage@ATL@@YAPBUATLSTRINGRESOURCEIMAGE@1@PAUHINSTANCE__@@PAUHRSRC__@@I@Z
_TEXT	SEGMENT PARA USE32 PUBLIC 'CODE'
_TEXT	ENDS
;	COMDAT ?GetBaseTypeLength@?$ChTraitsCRT@D@ATL@@SAHPB_WH@Z
_TEXT	SEGMENT PARA USE32 PUBLIC 'CODE'
_TEXT	ENDS
;	COMDAT ?_AtlGetConversionACP@ATL@@YGIXZ
_TEXT	SEGMENT PARA USE32 PUBLIC 'CODE'
_TEXT	ENDS
;	COMDAT ?g_pfnGetThreadACP@ATL@@3P6GIXZA
_DATA	SEGMENT DWORD USE32 PUBLIC 'DATA'
_DATA	ENDS
;	COMDAT ?_AtlGetThreadACPThunk@ATL@@YGIXZ
_TEXT	SEGMENT PARA USE32 PUBLIC 'CODE'
_TEXT	ENDS
;	COMDAT ?_AtlGetThreadACPReal@ATL@@YGIXZ
_TEXT	SEGMENT PARA USE32 PUBLIC 'CODE'
_TEXT	ENDS
;	COMDAT ?_AtlGetThreadACPFake@ATL@@YGIXZ
_TEXT	SEGMENT PARA USE32 PUBLIC 'CODE'
_TEXT	ENDS
;	COMDAT ?InterlockedExchangePointer@@YGPAXPAPAXPAX@Z
_TEXT	SEGMENT PARA USE32 PUBLIC 'CODE'
_TEXT	ENDS
;	COMDAT ?ConvertToBaseType@?$ChTraitsCRT@D@ATL@@SAXPADHPB_WH@Z
_TEXT	SEGMENT PARA USE32 PUBLIC 'CODE'
_TEXT	ENDS
;	COMDAT ??_C@_0FH@KDPNIMBO@D?3?2Program?5Files?5?$CIx86?$CJ?2Microsoft@
CONST	SEGMENT DWORD USE32 PUBLIC 'CONST'
CONST	ENDS
;	COMDAT ??_C@_0CJ@FJEKGMMD@Warning?3?5implicit?5LoadString?$CI?$CFu?$CJ@
CONST	SEGMENT DWORD USE32 PUBLIC 'CONST'
CONST	ENDS
;	COMDAT ??_7CxStaticText@@6B@
CONST	SEGMENT DWORD USE32 PUBLIC 'CONST'
CONST	ENDS
sxdata	SEGMENT DWORD USE32 'SXDATA'
sxdata	ENDS
FLAT	GROUP _DATA, CONST, _BSS
	ASSUME	CS: FLAT, DS: FLAT, SS: FLAT
endif

INCLUDELIB MSVCRTD
INCLUDELIB OLDNAMES

PUBLIC	?g_pfnGetThreadACP@ATL@@3P6GIXZA		; ATL::g_pfnGetThreadACP
PUBLIC	?_AtlGetThreadACPThunk@ATL@@YGIXZ		; ATL::_AtlGetThreadACPThunk
PUBLIC	?OnPaint@CxStaticText@@IAEXXZ			; CxStaticText::OnPaint
PUBLIC	?OnEnable@CxStaticText@@IAEXH@Z			; CxStaticText::OnEnable
PUBLIC	?OnTimer@CxStaticText@@IAEXI@Z			; CxStaticText::OnTimer
PUBLIC	?OnMouseMove@CxStaticText@@IAEXIVCPoint@@@Z	; CxStaticText::OnMouseMove
PUBLIC	?_messageEntries@CxStaticText@@0QBUAFX_MSGMAP_ENTRY@@B ; CxStaticText::_messageEntries
PUBLIC	?messageMap@CxStaticText@@1UAFX_MSGMAP@@B	; CxStaticText::messageMap
PUBLIC	?OnStnClicked@CxStaticText@@QAEXXZ		; CxStaticText::OnStnClicked
EXTRN	?GetThisMessageMap@CWnd@@KGPBUAFX_MSGMAP@@XZ:NEAR ; CWnd::GetThisMessageMap
_DATA	SEGMENT
_THIS_FILE DB	'.\src\Gui\CommonControl\xStaticText.cpp', 00H
_DATA	ENDS
CONST	SEGMENT
$SG187523 DB	00H
	ORG $+3
$SG187524 DB	'Arial', 00H
CONST	ENDS
;	COMDAT ?_messageEntries@CxStaticText@@0QBUAFX_MSGMAP_ENTRY@@B
CONST	SEGMENT
?_messageEntries@CxStaticText@@0QBUAFX_MSGMAP_ENTRY@@B DD 0fH ; CxStaticText::_messageEntries
	DD	00H
	DD	00H
	DD	00H
	DD	010H
	DD	FLAT:?OnPaint@CxStaticText@@IAEXXZ
	DD	0aH
	DD	00H
	DD	00H
	DD	00H
	DD	011H
	DD	FLAT:?OnEnable@CxStaticText@@IAEXH@Z
	DD	0113H
	DD	00H
	DD	00H
	DD	00H
	DD	011H
	DD	FLAT:?OnTimer@CxStaticText@@IAEXI@Z
	DD	0200H
	DD	00H
	DD	00H
	DD	00H
	DD	032H
	DD	FLAT:?OnMouseMove@CxStaticText@@IAEXIVCPoint@@@Z
	DD	0bd11H
	DD	00H
	DD	00H
	DD	00H
	DD	035H
	DD	FLAT:?OnStnClicked@CxStaticText@@QAEXXZ
	DD	00H
	DD	00H
	DD	00H
	DD	00H
	DD	00H
	DD	00H
CONST	ENDS
;	COMDAT ?messageMap@CxStaticText@@1UAFX_MSGMAP@@B
CONST	SEGMENT
?messageMap@CxStaticText@@1UAFX_MSGMAP@@B DD FLAT:?GetThisMessageMap@CWnd@@KGPBUAFX_MSGMAP@@XZ ; CxStaticText::messageMap
	DD	FLAT:?_messageEntries@CxStaticText@@0QBUAFX_MSGMAP_ENTRY@@B
CONST	ENDS
CONST	SEGMENT
	ORG $+2
$SG187579 DB	',', 00H, '.', 00H, '''', 00H, '"', 00H, '?', 00H, '!', 00H
	DB	'.', 00H, 0cH, 0ffH, 02H, '0', 01cH, ' ', 01dH, ' ', 01fH, 0ffH
	DB	01H, 0ffH, ')', 00H, 09H, 0ffH, 011H, '0]', 00H, ';', 00H, 01bH
	DB	0ffH, 01H, '0', 01aH, 0ffH, ':', 00H, 00H, 00H
	ORG $+2
$SG187640 DB	'.', 00H, '.', 00H, '.', 00H, 00H, 00H
$SG187910 DB	' ', 00H
CONST	ENDS
;	COMDAT ?g_pfnGetThreadACP@ATL@@3P6GIXZA
_DATA	SEGMENT
?g_pfnGetThreadACP@ATL@@3P6GIXZA DD FLAT:?_AtlGetThreadACPThunk@ATL@@YGIXZ ; ATL::g_pfnGetThreadACP
_DATA	ENDS
PUBLIC	??_R4CxStaticText@@6B@				; CxStaticText::`RTTI Complete Object Locator'
PUBLIC	??_R0?AVCxStaticText@@@8			; CxStaticText `RTTI Type Descriptor'
PUBLIC	??_R3CxStaticText@@8				; CxStaticText::`RTTI Class Hierarchy Descriptor'
PUBLIC	??_R2CxStaticText@@8				; CxStaticText::`RTTI Base Class Array'
PUBLIC	??_R1A@?0A@A@CxStaticText@@8			; CxStaticText::`RTTI Base Class Descriptor at (0,-1,0,0)'
PUBLIC	??_R1A@?0A@A@CStatic@@8				; CStatic::`RTTI Base Class Descriptor at (0,-1,0,0)'
PUBLIC	??_R0?AVCStatic@@@8				; CStatic `RTTI Type Descriptor'
PUBLIC	??_R1A@?0A@A@CWnd@@8				; CWnd::`RTTI Base Class Descriptor at (0,-1,0,0)'
PUBLIC	??_R0?AVCWnd@@@8				; CWnd `RTTI Type Descriptor'
PUBLIC	??_R1A@?0A@A@CCmdTarget@@8			; CCmdTarget::`RTTI Base Class Descriptor at (0,-1,0,0)'
PUBLIC	??_R0?AVCCmdTarget@@@8				; CCmdTarget `RTTI Type Descriptor'
PUBLIC	??_R1A@?0A@A@CObject@@8				; CObject::`RTTI Base Class Descriptor at (0,-1,0,0)'
PUBLIC	??_R0?AVCObject@@@8				; CObject `RTTI Type Descriptor'
PUBLIC	??0CxStaticText@@QAE@XZ				; CxStaticText::CxStaticText
PUBLIC	?PreSubclassWindow@CxStaticText@@MAEXXZ		; CxStaticText::PreSubclassWindow
PUBLIC	?GetMessageMap@CxStaticText@@MBEPBUAFX_MSGMAP@@XZ ; CxStaticText::GetMessageMap
PUBLIC	??_7CxStaticText@@6B@				; CxStaticText::`vftable'
PUBLIC	??_GCxStaticText@@UAEPAXI@Z			; CxStaticText::`scalar deleting destructor'
EXTRN	?GetInterfaceMap@CWnd@@MBEPBUAFX_INTERFACEMAP@@XZ:NEAR ; CWnd::GetInterfaceMap
EXTRN	?EnsureStdObj@CWnd@@UAEJXZ:NEAR			; CWnd::EnsureStdObj
EXTRN	?get_accParent@CWnd@@UAEJPAPAUIDispatch@@@Z:NEAR ; CWnd::get_accParent
EXTRN	?OnCmdMsg@CCmdTarget@@UAEHIHPAXPAUAFX_CMDHANDLERINFO@@@Z:NEAR ; CCmdTarget::OnCmdMsg
EXTRN	?get_accChildCount@CWnd@@UAEJPAJ@Z:NEAR		; CWnd::get_accChildCount
EXTRN	?IsInvokeAllowed@CCmdTarget@@UAEHJ@Z:NEAR	; CCmdTarget::IsInvokeAllowed
EXTRN	?get_accChild@CWnd@@UAEJUtagVARIANT@@PAPAUIDispatch@@@Z:NEAR ; CWnd::get_accChild
EXTRN	?get_accName@CWnd@@UAEJUtagVARIANT@@PAPA_W@Z:NEAR ; CWnd::get_accName
EXTRN	?get_accValue@CWnd@@UAEJUtagVARIANT@@PAPA_W@Z:NEAR ; CWnd::get_accValue
EXTRN	?GetDispatchIID@CCmdTarget@@UAEHPAU_GUID@@@Z:NEAR ; CCmdTarget::GetDispatchIID
EXTRN	?GetTypeInfoCount@CCmdTarget@@UAEIXZ:NEAR	; CCmdTarget::GetTypeInfoCount
EXTRN	?GetTypeLibCache@CCmdTarget@@UAEPAVCTypeLibCache@@XZ:NEAR ; CCmdTarget::GetTypeLibCache
EXTRN	?get_accDescription@CWnd@@UAEJUtagVARIANT@@PAPA_W@Z:NEAR ; CWnd::get_accDescription
EXTRN	?GetTypeLib@CCmdTarget@@UAEJKPAPAUITypeLib@@@Z:NEAR ; CCmdTarget::GetTypeLib
EXTRN	?get_accRole@CWnd@@UAEJUtagVARIANT@@PAU2@@Z:NEAR ; CWnd::get_accRole
EXTRN	?get_accState@CWnd@@UAEJUtagVARIANT@@PAU2@@Z:NEAR ; CWnd::get_accState
EXTRN	?get_accHelp@CWnd@@UAEJUtagVARIANT@@PAPA_W@Z:NEAR ; CWnd::get_accHelp
EXTRN	?get_accHelpTopic@CWnd@@UAEJPAPA_WUtagVARIANT@@PAJ@Z:NEAR ; CWnd::get_accHelpTopic
EXTRN	?get_accKeyboardShortcut@CWnd@@UAEJUtagVARIANT@@PAPA_W@Z:NEAR ; CWnd::get_accKeyboardShortcut
EXTRN	?get_accFocus@CWnd@@UAEJPAUtagVARIANT@@@Z:NEAR	; CWnd::get_accFocus
EXTRN	?get_accSelection@CWnd@@UAEJPAUtagVARIANT@@@Z:NEAR ; CWnd::get_accSelection
EXTRN	?get_accDefaultAction@CWnd@@UAEJUtagVARIANT@@PAPA_W@Z:NEAR ; CWnd::get_accDefaultAction
EXTRN	?GetCommandMap@CCmdTarget@@MBEPBUAFX_OLECMDMAP@@XZ:NEAR ; CCmdTarget::GetCommandMap
EXTRN	?accSelect@CWnd@@UAEJJUtagVARIANT@@@Z:NEAR	; CWnd::accSelect
EXTRN	?accLocation@CWnd@@UAEJPAJ000UtagVARIANT@@@Z:NEAR ; CWnd::accLocation
EXTRN	?GetDispatchMap@CCmdTarget@@MBEPBUAFX_DISPMAP@@XZ:NEAR ; CCmdTarget::GetDispatchMap
EXTRN	?accNavigate@CWnd@@UAEJJUtagVARIANT@@PAU2@@Z:NEAR ; CWnd::accNavigate
EXTRN	?accHitTest@CWnd@@UAEJJJPAUtagVARIANT@@@Z:NEAR	; CWnd::accHitTest
EXTRN	?GetConnectionMap@CCmdTarget@@MBEPBUAFX_CONNECTIONMAP@@XZ:NEAR ; CCmdTarget::GetConnectionMap
EXTRN	?accDoDefaultAction@CWnd@@UAEJUtagVARIANT@@@Z:NEAR ; CWnd::accDoDefaultAction
EXTRN	?put_accName@CWnd@@UAEJUtagVARIANT@@PA_W@Z:NEAR	; CWnd::put_accName
EXTRN	?put_accValue@CWnd@@UAEJUtagVARIANT@@PA_W@Z:NEAR ; CWnd::put_accValue
EXTRN	?SetProxy@CWnd@@UAEJPAUIAccessibleProxy@@@Z:NEAR ; CWnd::SetProxy
EXTRN	?CreateAccessibleProxy@CWnd@@UAEJIJPAJ@Z:NEAR	; CWnd::CreateAccessibleProxy
EXTRN	?GetEventSinkMap@CCmdTarget@@MBEPBUAFX_EVENTSINKMAP@@XZ:NEAR ; CCmdTarget::GetEventSinkMap
EXTRN	?OnCreateAggregates@CCmdTarget@@UAEHXZ:NEAR	; CCmdTarget::OnCreateAggregates
EXTRN	?OnCommand@CWnd@@MAEHIJ@Z:NEAR			; CWnd::OnCommand
EXTRN	?GetInterfaceHook@CCmdTarget@@UAEPAUIUnknown@@PBX@Z:NEAR ; CCmdTarget::GetInterfaceHook
EXTRN	?OnNotify@CWnd@@MAEHIJPAJ@Z:NEAR		; CWnd::OnNotify
EXTRN	?GetExtraConnectionPoints@CCmdTarget@@MAEHPAVCPtrArray@@@Z:NEAR ; CCmdTarget::GetExtraConnectionPoints
EXTRN	?GetConnectionHook@CCmdTarget@@MAEPAUIConnectionPoint@@ABU_GUID@@@Z:NEAR ; CCmdTarget::GetConnectionHook
EXTRN	?Create@CWnd@@UAEHPBD0KABUtagRECT@@PAV1@IPAUCCreateContext@@@Z:NEAR ; CWnd::Create
EXTRN	?CreateEx@CWnd@@UAEHKPBD0KHHHHPAUHWND__@@PAUHMENU__@@PAX@Z:NEAR ; CWnd::CreateEx
EXTRN	?CreateEx@CWnd@@UAEHKPBD0KABUtagRECT@@PAV1@IPAX@Z:NEAR ; CWnd::CreateEx
EXTRN	?Serialize@CObject@@UAEXAAVCArchive@@@Z:NEAR	; CObject::Serialize
EXTRN	?DestroyWindow@CWnd@@UAEHXZ:NEAR		; CWnd::DestroyWindow
EXTRN	?PreCreateWindow@CWnd@@UAEHAAUtagCREATESTRUCTA@@@Z:NEAR ; CWnd::PreCreateWindow
EXTRN	?CalcWindowRect@CWnd@@UAEXPAUtagRECT@@I@Z:NEAR	; CWnd::CalcWindowRect
EXTRN	?GetSuperWndProcAddr@CWnd@@MAEPAP6GJPAUHWND__@@IIJ@ZXZ:NEAR ; CWnd::GetSuperWndProcAddr
EXTRN	?DoDataExchange@CWnd@@MAEXPAVCDataExchange@@@Z:NEAR ; CWnd::DoDataExchange
EXTRN	?BeginModalState@CWnd@@UAEXXZ:NEAR		; CWnd::BeginModalState
EXTRN	?EndModalState@CWnd@@UAEXXZ:NEAR		; CWnd::EndModalState
EXTRN	?PreTranslateMessage@CWnd@@UAEHPAUtagMSG@@@Z:NEAR ; CWnd::PreTranslateMessage
EXTRN	?OnAmbientProperty@CWnd@@UAEHPAVCOleControlSite@@JPAUtagVARIANT@@@Z:NEAR ; CWnd::OnAmbientProperty
EXTRN	?WindowProc@CWnd@@MAEJIIJ@Z:NEAR		; CWnd::WindowProc
EXTRN	?OnWndMsg@CWnd@@MAEHIIJPAJ@Z:NEAR		; CWnd::OnWndMsg
EXTRN	?DefWindowProcA@CWnd@@MAEJIIJ@Z:NEAR		; CWnd::DefWindowProcA
EXTRN	?PostNcDestroy@CWnd@@MAEXXZ:NEAR		; CWnd::PostNcDestroy
EXTRN	?CheckAutoCenter@CWnd@@UAEHXZ:NEAR		; CWnd::CheckAutoCenter
EXTRN	?AssertValid@CWnd@@UBEXXZ:NEAR			; CWnd::AssertValid
EXTRN	?Dump@CWnd@@UBEXAAVCDumpContext@@@Z:NEAR	; CWnd::Dump
EXTRN	__RTC_InitBase:NEAR
EXTRN	__RTC_Shutdown:NEAR
EXTRN	?IsFrameWnd@CWnd@@UBEHXZ:NEAR			; CWnd::IsFrameWnd
EXTRN	?OnFinalRelease@CWnd@@UAEXXZ:NEAR		; CWnd::OnFinalRelease
EXTRN	__RTC_CheckEsp:NEAR
EXTRN	__except_list:DWORD
EXTRN	___CxxFrameHandler:NEAR
EXTRN	__imp__GetSysColor@4:NEAR
EXTRN	??0CToolTipCtrl@@QAE@XZ:NEAR			; CToolTipCtrl::CToolTipCtrl
EXTRN	?CreateControlContainer@CWnd@@MAEHPAPAVCOleControlContainer@@@Z:NEAR ; CWnd::CreateControlContainer
EXTRN	?CreateControlSite@CWnd@@MAEHPAVCOleControlContainer@@PAPAVCOleControlSite@@IABU_GUID@@@Z:NEAR ; CWnd::CreateControlSite
EXTRN	?SetOccDialogInfo@CWnd@@MAEHPAU_AFX_OCC_DIALOG_INFO@@@Z:NEAR ; CWnd::SetOccDialogInfo
EXTRN	??_ECxStaticText@@UAEPAXI@Z:NEAR		; CxStaticText::`vector deleting destructor'
EXTRN	??1CToolTipCtrl@@UAE@XZ:NEAR			; CToolTipCtrl::~CToolTipCtrl
EXTRN	__imp_??0?$CStringT@DV?$StrTraitMFC_DLL@DV?$ChTraitsCRT@D@ATL@@@@@ATL@@QAE@XZ:NEAR
EXTRN	?OnToolHitTest@CWnd@@UBEHVCPoint@@PAUtagTOOLINFOA@@@Z:NEAR ; CWnd::OnToolHitTest
EXTRN	__imp_??0?$CStringT@DV?$StrTraitMFC_DLL@DV?$ChTraitsCRT@D@ATL@@@@@ATL@@QAE@PBD@Z:NEAR
EXTRN	__imp_??1?$CStringT@DV?$StrTraitMFC_DLL@DV?$ChTraitsCRT@D@ATL@@@@@ATL@@QAE@XZ:NEAR
EXTRN	__imp_??4?$CStringT@DV?$StrTraitMFC_DLL@DV?$ChTraitsCRT@D@ATL@@@@@ATL@@QAEAAV01@PBD@Z:NEAR
EXTRN	?GetRuntimeClass@CStatic@@UBEPAUCRuntimeClass@@XZ:NEAR ; CStatic::GetRuntimeClass
EXTRN	??0CStatic@@QAE@XZ:NEAR				; CStatic::CStatic
EXTRN	?Create@CStatic@@UAEHPBDKABUtagRECT@@PAVCWnd@@I@Z:NEAR ; CStatic::Create
EXTRN	?GetScrollBarCtrl@CWnd@@UBEPAVCScrollBar@@H@Z:NEAR ; CWnd::GetScrollBarCtrl
EXTRN	__imp__LoadCursorA@8:NEAR
EXTRN	?DrawItem@CStatic@@UAEXPAUtagDRAWITEMSTRUCT@@@Z:NEAR ; CStatic::DrawItem
EXTRN	??1CStatic@@UAE@XZ:NEAR				; CStatic::~CStatic
EXTRN	?OnChildNotify@CStatic@@MAEHIIJPAJ@Z:NEAR	; CStatic::OnChildNotify
EXTRN	?WinHelpA@CWnd@@UAEXKI@Z:NEAR			; CWnd::WinHelpA
EXTRN	?HtmlHelpA@CWnd@@UAEXKI@Z:NEAR			; CWnd::HtmlHelpA
EXTRN	??_7type_info@@6B@:QWORD			; type_info::`vftable'
EXTRN	?WinHelpInternal@CWnd@@UAEXKI@Z:NEAR		; CWnd::WinHelpInternal
EXTRN	?ContinueModal@CWnd@@UAEHXZ:NEAR		; CWnd::ContinueModal
EXTRN	?EndModalLoop@CWnd@@UAEXH@Z:NEAR		; CWnd::EndModalLoop
;	COMDAT rtc$IMZ
; File d:\boxgit\playbox\playbox\dev\prj\playbox\src\gui\commoncontrol\xstatictext.cpp
rtc$IMZ	SEGMENT
__RTC_InitBase.rtc$IMZ DD FLAT:__RTC_InitBase
rtc$IMZ	ENDS
;	COMDAT rtc$TMZ
rtc$TMZ	SEGMENT
__RTC_Shutdown.rtc$TMZ DD FLAT:__RTC_Shutdown
rtc$TMZ	ENDS
xdata$x	SEGMENT
$T189081 DD	0ffffffffH
	DD	FLAT:$L189069
	DD	00H
	DD	FLAT:$L189070
	DD	01H
	DD	FLAT:$L189071
	DD	02H
	DD	FLAT:$L189072
	DD	03H
	DD	FLAT:$L189073
$T189077 DD	019930520H
	DD	05H
	DD	FLAT:$T189081
	DD	2 DUP(00H)
	DD	2 DUP(00H)
xdata$x	ENDS
;	COMDAT ??_7CxStaticText@@6B@
CONST	SEGMENT
??_7CxStaticText@@6B@ DD FLAT:??_R4CxStaticText@@6B@	; CxStaticText::`vftable'
	DD	FLAT:?GetRuntimeClass@CStatic@@UBEPAUCRuntimeClass@@XZ
	DD	FLAT:??_ECxStaticText@@UAEPAXI@Z
	DD	FLAT:?Serialize@CObject@@UAEXAAVCArchive@@@Z
	DD	FLAT:?AssertValid@CWnd@@UBEXXZ
	DD	FLAT:?Dump@CWnd@@UBEXAAVCDumpContext@@@Z
	DD	FLAT:?OnCmdMsg@CCmdTarget@@UAEHIHPAXPAUAFX_CMDHANDLERINFO@@@Z
	DD	FLAT:?OnFinalRelease@CWnd@@UAEXXZ
	DD	FLAT:?IsInvokeAllowed@CCmdTarget@@UAEHJ@Z
	DD	FLAT:?GetDispatchIID@CCmdTarget@@UAEHPAU_GUID@@@Z
	DD	FLAT:?GetTypeInfoCount@CCmdTarget@@UAEIXZ
	DD	FLAT:?GetTypeLibCache@CCmdTarget@@UAEPAVCTypeLibCache@@XZ
	DD	FLAT:?GetTypeLib@CCmdTarget@@UAEJKPAPAUITypeLib@@@Z
	DD	FLAT:?GetMessageMap@CxStaticText@@MBEPBUAFX_MSGMAP@@XZ
	DD	FLAT:?GetCommandMap@CCmdTarget@@MBEPBUAFX_OLECMDMAP@@XZ
	DD	FLAT:?GetDispatchMap@CCmdTarget@@MBEPBUAFX_DISPMAP@@XZ
	DD	FLAT:?GetConnectionMap@CCmdTarget@@MBEPBUAFX_CONNECTIONMAP@@XZ
	DD	FLAT:?GetInterfaceMap@CWnd@@MBEPBUAFX_INTERFACEMAP@@XZ
	DD	FLAT:?GetEventSinkMap@CCmdTarget@@MBEPBUAFX_EVENTSINKMAP@@XZ
	DD	FLAT:?OnCreateAggregates@CCmdTarget@@UAEHXZ
	DD	FLAT:?GetInterfaceHook@CCmdTarget@@UAEPAUIUnknown@@PBX@Z
	DD	FLAT:?GetExtraConnectionPoints@CCmdTarget@@MAEHPAVCPtrArray@@@Z
	DD	FLAT:?GetConnectionHook@CCmdTarget@@MAEPAUIConnectionPoint@@ABU_GUID@@@Z
	DD	FLAT:?PreSubclassWindow@CxStaticText@@MAEXXZ
	DD	FLAT:?Create@CWnd@@UAEHPBD0KABUtagRECT@@PAV1@IPAUCCreateContext@@@Z
	DD	FLAT:?CreateEx@CWnd@@UAEHKPBD0KABUtagRECT@@PAV1@IPAX@Z
	DD	FLAT:?CreateEx@CWnd@@UAEHKPBD0KHHHHPAUHWND__@@PAUHMENU__@@PAX@Z
	DD	FLAT:?DestroyWindow@CWnd@@UAEHXZ
	DD	FLAT:?PreCreateWindow@CWnd@@UAEHAAUtagCREATESTRUCTA@@@Z
	DD	FLAT:?CalcWindowRect@CWnd@@UAEXPAUtagRECT@@I@Z
	DD	FLAT:?OnToolHitTest@CWnd@@UBEHVCPoint@@PAUtagTOOLINFOA@@@Z
	DD	FLAT:?GetScrollBarCtrl@CWnd@@UBEPAVCScrollBar@@H@Z
	DD	FLAT:?WinHelpA@CWnd@@UAEXKI@Z
	DD	FLAT:?HtmlHelpA@CWnd@@UAEXKI@Z
	DD	FLAT:?WinHelpInternal@CWnd@@UAEXKI@Z
	DD	FLAT:?ContinueModal@CWnd@@UAEHXZ
	DD	FLAT:?EndModalLoop@CWnd@@UAEXH@Z
	DD	FLAT:?EnsureStdObj@CWnd@@UAEJXZ
	DD	FLAT:?get_accParent@CWnd@@UAEJPAPAUIDispatch@@@Z
	DD	FLAT:?get_accChildCount@CWnd@@UAEJPAJ@Z
	DD	FLAT:?get_accChild@CWnd@@UAEJUtagVARIANT@@PAPAUIDispatch@@@Z
	DD	FLAT:?get_accName@CWnd@@UAEJUtagVARIANT@@PAPA_W@Z
	DD	FLAT:?get_accValue@CWnd@@UAEJUtagVARIANT@@PAPA_W@Z
	DD	FLAT:?get_accDescription@CWnd@@UAEJUtagVARIANT@@PAPA_W@Z
	DD	FLAT:?get_accRole@CWnd@@UAEJUtagVARIANT@@PAU2@@Z
	DD	FLAT:?get_accState@CWnd@@UAEJUtagVARIANT@@PAU2@@Z
	DD	FLAT:?get_accHelp@CWnd@@UAEJUtagVARIANT@@PAPA_W@Z
	DD	FLAT:?get_accHelpTopic@CWnd@@UAEJPAPA_WUtagVARIANT@@PAJ@Z
	DD	FLAT:?get_accKeyboardShortcut@CWnd@@UAEJUtagVARIANT@@PAPA_W@Z
	DD	FLAT:?get_accFocus@CWnd@@UAEJPAUtagVARIANT@@@Z
	DD	FLAT:?get_accSelection@CWnd@@UAEJPAUtagVARIANT@@@Z
	DD	FLAT:?get_accDefaultAction@CWnd@@UAEJUtagVARIANT@@PAPA_W@Z
	DD	FLAT:?accSelect@CWnd@@UAEJJUtagVARIANT@@@Z
	DD	FLAT:?accLocation@CWnd@@UAEJPAJ000UtagVARIANT@@@Z
	DD	FLAT:?accNavigate@CWnd@@UAEJJUtagVARIANT@@PAU2@@Z
	DD	FLAT:?accHitTest@CWnd@@UAEJJJPAUtagVARIANT@@@Z
	DD	FLAT:?accDoDefaultAction@CWnd@@UAEJUtagVARIANT@@@Z
	DD	FLAT:?put_accName@CWnd@@UAEJUtagVARIANT@@PA_W@Z
	DD	FLAT:?put_accValue@CWnd@@UAEJUtagVARIANT@@PA_W@Z
	DD	FLAT:?SetProxy@CWnd@@UAEJPAUIAccessibleProxy@@@Z
	DD	FLAT:?CreateAccessibleProxy@CWnd@@UAEJIJPAJ@Z
	DD	FLAT:?OnCommand@CWnd@@MAEHIJ@Z
	DD	FLAT:?OnNotify@CWnd@@MAEHIJPAJ@Z
	DD	FLAT:?GetSuperWndProcAddr@CWnd@@MAEPAP6GJPAUHWND__@@IIJ@ZXZ
	DD	FLAT:?DoDataExchange@CWnd@@MAEXPAVCDataExchange@@@Z
	DD	FLAT:?BeginModalState@CWnd@@UAEXXZ
	DD	FLAT:?EndModalState@CWnd@@UAEXXZ
	DD	FLAT:?PreTranslateMessage@CWnd@@UAEHPAUtagMSG@@@Z
	DD	FLAT:?OnAmbientProperty@CWnd@@UAEHPAVCOleControlSite@@JPAUtagVARIANT@@@Z
	DD	FLAT:?WindowProc@CWnd@@MAEJIIJ@Z
	DD	FLAT:?OnWndMsg@CWnd@@MAEHIIJPAJ@Z
	DD	FLAT:?DefWindowProcA@CWnd@@MAEJIIJ@Z
	DD	FLAT:?PostNcDestroy@CWnd@@MAEXXZ
	DD	FLAT:?OnChildNotify@CStatic@@MAEHIIJPAJ@Z
	DD	FLAT:?CheckAutoCenter@CWnd@@UAEHXZ
	DD	FLAT:?IsFrameWnd@CWnd@@UBEHXZ
	DD	FLAT:?CreateControlContainer@CWnd@@MAEHPAPAVCOleControlContainer@@@Z
	DD	FLAT:?CreateControlSite@CWnd@@MAEHPAVCOleControlContainer@@PAPAVCOleControlSite@@IABU_GUID@@@Z
	DD	FLAT:?SetOccDialogInfo@CWnd@@MAEHPAU_AFX_OCC_DIALOG_INFO@@@Z
	DD	FLAT:?Create@CStatic@@UAEHPBDKABUtagRECT@@PAVCWnd@@I@Z
	DD	FLAT:?DrawItem@CStatic@@UAEXPAUtagDRAWITEMSTRUCT@@@Z
CONST	ENDS
;	COMDAT ??_R4CxStaticText@@6B@
rdata$r	SEGMENT
??_R4CxStaticText@@6B@ DD 00H				; CxStaticText::`RTTI Complete Object Locator'
	DD	00H
	DD	00H
	DD	FLAT:??_R0?AVCxStaticText@@@8
	DD	FLAT:??_R3CxStaticText@@8
rdata$r	ENDS
;	COMDAT ??_R0?AVCxStaticText@@@8
_DATA	SEGMENT
??_R0?AVCxStaticText@@@8 DD FLAT:??_7type_info@@6B@	; CxStaticText `RTTI Type Descriptor'
	DD	00H
	DB	'.?AVCxStaticText@@', 00H
_DATA	ENDS
;	COMDAT ??_R3CxStaticText@@8
rdata$r	SEGMENT
??_R3CxStaticText@@8 DD 00H				; CxStaticText::`RTTI Class Hierarchy Descriptor'
	DD	00H
	DD	05H
	DD	FLAT:??_R2CxStaticText@@8
rdata$r	ENDS
;	COMDAT ??_R2CxStaticText@@8
rdata$r	SEGMENT
??_R2CxStaticText@@8 DD FLAT:??_R1A@?0A@A@CxStaticText@@8 ; CxStaticText::`RTTI Base Class Array'
	DD	FLAT:??_R1A@?0A@A@CStatic@@8
	DD	FLAT:??_R1A@?0A@A@CWnd@@8
	DD	FLAT:??_R1A@?0A@A@CCmdTarget@@8
	DD	FLAT:??_R1A@?0A@A@CObject@@8
rdata$r	ENDS
;	COMDAT ??_R1A@?0A@A@CxStaticText@@8
rdata$r	SEGMENT
??_R1A@?0A@A@CxStaticText@@8 DD FLAT:??_R0?AVCxStaticText@@@8 ; CxStaticText::`RTTI Base Class Descriptor at (0,-1,0,0)'
	DD	04H
	DD	00H
	DD	0ffffffffH
	DD	00H
	DD	00H
rdata$r	ENDS
;	COMDAT ??_R1A@?0A@A@CStatic@@8
rdata$r	SEGMENT
??_R1A@?0A@A@CStatic@@8 DD FLAT:??_R0?AVCStatic@@@8	; CStatic::`RTTI Base Class Descriptor at (0,-1,0,0)'
	DD	03H
	DD	00H
	DD	0ffffffffH
	DD	00H
	DD	00H
rdata$r	ENDS
;	COMDAT ??_R0?AVCStatic@@@8
_DATA	SEGMENT
??_R0?AVCStatic@@@8 DD FLAT:??_7type_info@@6B@		; CStatic `RTTI Type Descriptor'
	DD	00H
	DB	'.?AVCStatic@@', 00H
_DATA	ENDS
;	COMDAT ??_R1A@?0A@A@CWnd@@8
rdata$r	SEGMENT
??_R1A@?0A@A@CWnd@@8 DD FLAT:??_R0?AVCWnd@@@8		; CWnd::`RTTI Base Class Descriptor at (0,-1,0,0)'
	DD	02H
	DD	00H
	DD	0ffffffffH
	DD	00H
	DD	00H
rdata$r	ENDS
;	COMDAT ??_R0?AVCWnd@@@8
_DATA	SEGMENT
??_R0?AVCWnd@@@8 DD FLAT:??_7type_info@@6B@		; CWnd `RTTI Type Descriptor'
	DD	00H
	DB	'.?AVCWnd@@', 00H
_DATA	ENDS
;	COMDAT ??_R1A@?0A@A@CCmdTarget@@8
rdata$r	SEGMENT
??_R1A@?0A@A@CCmdTarget@@8 DD FLAT:??_R0?AVCCmdTarget@@@8 ; CCmdTarget::`RTTI Base Class Descriptor at (0,-1,0,0)'
	DD	01H
	DD	00H
	DD	0ffffffffH
	DD	00H
	DD	00H
rdata$r	ENDS
;	COMDAT ??_R0?AVCCmdTarget@@@8
_DATA	SEGMENT
??_R0?AVCCmdTarget@@@8 DD FLAT:??_7type_info@@6B@	; CCmdTarget `RTTI Type Descriptor'
	DD	00H
	DB	'.?AVCCmdTarget@@', 00H
_DATA	ENDS
;	COMDAT ??_R1A@?0A@A@CObject@@8
rdata$r	SEGMENT
??_R1A@?0A@A@CObject@@8 DD FLAT:??_R0?AVCObject@@@8	; CObject::`RTTI Base Class Descriptor at (0,-1,0,0)'
	DD	00H
	DD	00H
	DD	0ffffffffH
	DD	00H
	DD	00H
rdata$r	ENDS
;	COMDAT ??_R0?AVCObject@@@8
_DATA	SEGMENT
??_R0?AVCObject@@@8 DD FLAT:??_7type_info@@6B@		; CObject `RTTI Type Descriptor'
	DD	00H
	DB	'.?AVCObject@@', 00H
; Function compile flags: /Odt /RTCsu
_DATA	ENDS
_TEXT	SEGMENT
_this$ = -16						; size = 4
__$EHRec$ = -12						; size = 12
??0CxStaticText@@QAE@XZ PROC NEAR			; CxStaticText::CxStaticText
; _this$ = ecx

; 18   : {

  00000	55		 push	 ebp
  00001	8b ec		 mov	 ebp, esp
  00003	6a ff		 push	 -1
  00005	68 00 00 00 00	 push	 __ehhandler$??0CxStaticText@@QAE@XZ
  0000a	64 a1 00 00 00
	00		 mov	 eax, DWORD PTR fs:__except_list
  00010	50		 push	 eax
  00011	64 89 25 00 00
	00 00		 mov	 DWORD PTR fs:__except_list, esp
  00018	51		 push	 ecx
  00019	56		 push	 esi
  0001a	c7 45 f0 cc cc
	cc cc		 mov	 DWORD PTR [ebp-16], -858993460 ; ccccccccH
  00021	89 4d f0	 mov	 DWORD PTR _this$[ebp], ecx
  00024	8b 4d f0	 mov	 ecx, DWORD PTR _this$[ebp]
  00027	e8 00 00 00 00	 call	 ??0CStatic@@QAE@XZ	; CStatic::CStatic
  0002c	c7 45 fc 00 00
	00 00		 mov	 DWORD PTR __$EHRec$[ebp+8], 0
  00033	8b 45 f0	 mov	 eax, DWORD PTR _this$[ebp]
  00036	c7 00 00 00 00
	00		 mov	 DWORD PTR [eax], OFFSET FLAT:??_7CxStaticText@@6B@
  0003c	8b 4d f0	 mov	 ecx, DWORD PTR _this$[ebp]
  0003f	83 c1 70	 add	 ecx, 112		; 00000070H
  00042	8b f4		 mov	 esi, esp
  00044	ff 15 00 00 00
	00		 call	 DWORD PTR __imp_??0?$CStringT@DV?$StrTraitMFC_DLL@DV?$ChTraitsCRT@D@ATL@@@@@ATL@@QAE@XZ
  0004a	3b f4		 cmp	 esi, esp
  0004c	e8 00 00 00 00	 call	 __RTC_CheckEsp
  00051	c6 45 fc 01	 mov	 BYTE PTR __$EHRec$[ebp+8], 1
  00055	8b f4		 mov	 esi, esp
  00057	68 00 00 00 00	 push	 OFFSET FLAT:$SG187523
  0005c	8b 4d f0	 mov	 ecx, DWORD PTR _this$[ebp]
  0005f	83 c1 78	 add	 ecx, 120		; 00000078H
  00062	ff 15 00 00 00
	00		 call	 DWORD PTR __imp_??0?$CStringT@DV?$StrTraitMFC_DLL@DV?$ChTraitsCRT@D@ATL@@@@@ATL@@QAE@PBD@Z
  00068	3b f4		 cmp	 esi, esp
  0006a	e8 00 00 00 00	 call	 __RTC_CheckEsp
  0006f	c6 45 fc 02	 mov	 BYTE PTR __$EHRec$[ebp+8], 2
  00073	8b 4d f0	 mov	 ecx, DWORD PTR _this$[ebp]
  00076	c6 41 7c 00	 mov	 BYTE PTR [ecx+124], 0
  0007a	8b 4d f0	 mov	 ecx, DWORD PTR _this$[ebp]
  0007d	81 c1 90 00 00
	00		 add	 ecx, 144		; 00000090H
  00083	e8 00 00 00 00	 call	 ??0CToolTipCtrl@@QAE@XZ	; CToolTipCtrl::CToolTipCtrl
  00088	c6 45 fc 03	 mov	 BYTE PTR __$EHRec$[ebp+8], 3
  0008c	8b 4d f0	 mov	 ecx, DWORD PTR _this$[ebp]
  0008f	81 c1 00 01 00
	00		 add	 ecx, 256		; 00000100H
  00095	8b f4		 mov	 esi, esp
  00097	ff 15 00 00 00
	00		 call	 DWORD PTR __imp_??0?$CStringT@DV?$StrTraitMFC_DLL@DV?$ChTraitsCRT@D@ATL@@@@@ATL@@QAE@XZ
  0009d	3b f4		 cmp	 esi, esp
  0009f	e8 00 00 00 00	 call	 __RTC_CheckEsp
  000a4	c6 45 fc 04	 mov	 BYTE PTR __$EHRec$[ebp+8], 4

; 19   : 	m_ActualColor=m_TextColor=m_BackgroundColor=GetSysColor(COLOR_BTNTEXT); // default text color

  000a8	8b f4		 mov	 esi, esp
  000aa	6a 12		 push	 18			; 00000012H
  000ac	ff 15 00 00 00
	00		 call	 DWORD PTR __imp__GetSysColor@4
  000b2	3b f4		 cmp	 esi, esp
  000b4	e8 00 00 00 00	 call	 __RTC_CheckEsp
  000b9	8b 55 f0	 mov	 edx, DWORD PTR _this$[ebp]
  000bc	89 42 58	 mov	 DWORD PTR [edx+88], eax
  000bf	8b 45 f0	 mov	 eax, DWORD PTR _this$[ebp]
  000c2	8b 4d f0	 mov	 ecx, DWORD PTR _this$[ebp]
  000c5	8b 51 58	 mov	 edx, DWORD PTR [ecx+88]
  000c8	89 50 60	 mov	 DWORD PTR [eax+96], edx
  000cb	8b 45 f0	 mov	 eax, DWORD PTR _this$[ebp]
  000ce	8b 4d f0	 mov	 ecx, DWORD PTR _this$[ebp]
  000d1	8b 51 60	 mov	 edx, DWORD PTR [ecx+96]
  000d4	89 50 64	 mov	 DWORD PTR [eax+100], edx

; 20   : 	m_BlinkColor=GetSysColor(COLOR_3DLIGHT);		// default blink text color

  000d7	8b f4		 mov	 esi, esp
  000d9	6a 16		 push	 22			; 00000016H
  000db	ff 15 00 00 00
	00		 call	 DWORD PTR __imp__GetSysColor@4
  000e1	3b f4		 cmp	 esi, esp
  000e3	e8 00 00 00 00	 call	 __RTC_CheckEsp
  000e8	8b 4d f0	 mov	 ecx, DWORD PTR _this$[ebp]
  000eb	89 41 5c	 mov	 DWORD PTR [ecx+92], eax

; 21   : 	m_TimerID=0;

  000ee	8b 55 f0	 mov	 edx, DWORD PTR _this$[ebp]
  000f1	c7 82 80 00 00
	00 00 00 00 00	 mov	 DWORD PTR [edx+128], 0

; 22   : 	m_BlinkCounter=-1;

  000fb	8b 45 f0	 mov	 eax, DWORD PTR _this$[ebp]
  000fe	c7 40 54 ff ff
	ff ff		 mov	 DWORD PTR [eax+84], -1

; 23   : 	//m_Style=SST_NORMAL;
; 24   : 	mpBmpNormal = NULL;

  00105	8b 4d f0	 mov	 ecx, DWORD PTR _this$[ebp]
  00108	c7 81 88 00 00
	00 00 00 00 00	 mov	 DWORD PTR [ecx+136], 0

; 25   : 	m_SingleLine = true;

  00112	8b 55 f0	 mov	 edx, DWORD PTR _this$[ebp]
  00115	c6 42 68 01	 mov	 BYTE PTR [edx+104], 1

; 26   : 	m_UnderLine = false;

  00119	8b 45 f0	 mov	 eax, DWORD PTR _this$[ebp]
  0011c	c6 40 69 00	 mov	 BYTE PTR [eax+105], 0

; 27   : 	m_EnableClick = false;

  00120	8b 4d f0	 mov	 ecx, DWORD PTR _this$[ebp]
  00123	c6 41 6a 00	 mov	 BYTE PTR [ecx+106], 0

; 28   : 
; 29   : 	m_FontFace = "Arial";

  00127	8b f4		 mov	 esi, esp
  00129	68 00 00 00 00	 push	 OFFSET FLAT:$SG187524
  0012e	8b 4d f0	 mov	 ecx, DWORD PTR _this$[ebp]
  00131	83 c1 70	 add	 ecx, 112		; 00000070H
  00134	ff 15 00 00 00
	00		 call	 DWORD PTR __imp_??4?$CStringT@DV?$StrTraitMFC_DLL@DV?$ChTraitsCRT@D@ATL@@@@@ATL@@QAEAAV01@PBD@Z
  0013a	3b f4		 cmp	 esi, esp
  0013c	e8 00 00 00 00	 call	 __RTC_CheckEsp

; 30   : 	m_FontSize = 12;

  00141	8b 55 f0	 mov	 edx, DWORD PTR _this$[ebp]
  00144	c7 42 74 0c 00
	00 00		 mov	 DWORD PTR [edx+116], 12	; 0000000cH

; 31   : 	m_hCurFinger = ::LoadCursor(NULL, IDC_HAND);

  0014b	8b f4		 mov	 esi, esp
  0014d	68 89 7f 00 00	 push	 32649			; 00007f89H
  00152	6a 00		 push	 0
  00154	ff 15 00 00 00
	00		 call	 DWORD PTR __imp__LoadCursorA@8
  0015a	3b f4		 cmp	 esi, esp
  0015c	e8 00 00 00 00	 call	 __RTC_CheckEsp
  00161	8b 4d f0	 mov	 ecx, DWORD PTR _this$[ebp]
  00164	89 41 6c	 mov	 DWORD PTR [ecx+108], eax

; 32   : }

  00167	c7 45 fc ff ff
	ff ff		 mov	 DWORD PTR __$EHRec$[ebp+8], -1
  0016e	8b 45 f0	 mov	 eax, DWORD PTR _this$[ebp]
  00171	8b 4d f4	 mov	 ecx, DWORD PTR __$EHRec$[ebp]
  00174	64 89 0d 00 00
	00 00		 mov	 DWORD PTR fs:__except_list, ecx
  0017b	5e		 pop	 esi
  0017c	83 c4 10	 add	 esp, 16			; 00000010H
  0017f	3b ec		 cmp	 ebp, esp
  00181	e8 00 00 00 00	 call	 __RTC_CheckEsp
  00186	8b e5		 mov	 esp, ebp
  00188	5d		 pop	 ebp
  00189	c3		 ret	 0
_TEXT	ENDS
text$x	SEGMENT
$L189069:
  00000	8b 4d f0	 mov	 ecx, DWORD PTR _this$[ebp]
  00003	e9 00 00 00 00	 jmp	 ??1CStatic@@UAE@XZ	; CStatic::~CStatic
$L189070:
  00008	8b 4d f0	 mov	 ecx, DWORD PTR _this$[ebp]
  0000b	83 c1 70	 add	 ecx, 112		; 00000070H
  0000e	8b f4		 mov	 esi, esp
  00010	ff 15 00 00 00
	00		 call	 DWORD PTR __imp_??1?$CStringT@DV?$StrTraitMFC_DLL@DV?$ChTraitsCRT@D@ATL@@@@@ATL@@QAE@XZ
  00016	3b f4		 cmp	 esi, esp
  00018	e9 00 00 00 00	 jmp	 __RTC_CheckEsp
$L189071:
  0001d	8b 4d f0	 mov	 ecx, DWORD PTR _this$[ebp]
  00020	83 c1 78	 add	 ecx, 120		; 00000078H
  00023	8b f4		 mov	 esi, esp
  00025	ff 15 00 00 00
	00		 call	 DWORD PTR __imp_??1?$CStringT@DV?$StrTraitMFC_DLL@DV?$ChTraitsCRT@D@ATL@@@@@ATL@@QAE@XZ
  0002b	3b f4		 cmp	 esi, esp
  0002d	e9 00 00 00 00	 jmp	 __RTC_CheckEsp
$L189072:
  00032	8b 4d f0	 mov	 ecx, DWORD PTR _this$[ebp]
  00035	81 c1 90 00 00
	00		 add	 ecx, 144		; 00000090H
  0003b	e9 00 00 00 00	 jmp	 ??1CToolTipCtrl@@UAE@XZ	; CToolTipCtrl::~CToolTipCtrl
$L189073:
  00040	8b 4d f0	 mov	 ecx, DWORD PTR _this$[ebp]
  00043	81 c1 00 01 00
	00		 add	 ecx, 256		; 00000100H
  00049	8b f4		 mov	 esi, esp
  0004b	ff 15 00 00 00
	00		 call	 DWORD PTR __imp_??1?$CStringT@DV?$StrTraitMFC_DLL@DV?$ChTraitsCRT@D@ATL@@@@@ATL@@QAE@XZ
  00051	3b f4		 cmp	 esi, esp
  00053	e9 00 00 00 00	 jmp	 __RTC_CheckEsp
__ehhandler$??0CxStaticText@@QAE@XZ:
  00058	b8 00 00 00 00	 mov	 eax, OFFSET FLAT:$T189077
  0005d	e9 00 00 00 00	 jmp	 ___CxxFrameHandler
text$x	ENDS
??0CxStaticText@@QAE@XZ ENDP				; CxStaticText::CxStaticText
PUBLIC	??1CxStaticText@@UAE@XZ				; CxStaticText::~CxStaticText
EXTRN	??3CObject@@SGXPAX@Z:NEAR			; CObject::operator delete
; Function compile flags: /Odt /RTCsu
;	COMDAT ??_GCxStaticText@@UAEPAXI@Z
_TEXT	SEGMENT
_this$ = -4						; size = 4
___flags$ = 8						; size = 4
??_GCxStaticText@@UAEPAXI@Z PROC NEAR			; CxStaticText::`scalar deleting destructor', COMDAT
; _this$ = ecx
  00000	55		 push	 ebp
  00001	8b ec		 mov	 ebp, esp
  00003	51		 push	 ecx
  00004	c7 45 fc cc cc
	cc cc		 mov	 DWORD PTR [ebp-4], -858993460 ; ccccccccH
  0000b	89 4d fc	 mov	 DWORD PTR _this$[ebp], ecx
  0000e	8b 4d fc	 mov	 ecx, DWORD PTR _this$[ebp]
  00011	e8 00 00 00 00	 call	 ??1CxStaticText@@UAE@XZ	; CxStaticText::~CxStaticText
  00016	8b 45 08	 mov	 eax, DWORD PTR ___flags$[ebp]
  00019	83 e0 01	 and	 eax, 1
  0001c	74 09		 je	 SHORT $L187531
  0001e	8b 4d fc	 mov	 ecx, DWORD PTR _this$[ebp]
  00021	51		 push	 ecx
  00022	e8 00 00 00 00	 call	 ??3CObject@@SGXPAX@Z	; CObject::operator delete
$L187531:
  00027	8b 45 fc	 mov	 eax, DWORD PTR _this$[ebp]
  0002a	83 c4 04	 add	 esp, 4
  0002d	3b ec		 cmp	 ebp, esp
  0002f	e8 00 00 00 00	 call	 __RTC_CheckEsp
  00034	8b e5		 mov	 esp, ebp
  00036	5d		 pop	 ebp
  00037	c2 04 00	 ret	 4
??_GCxStaticText@@UAEPAXI@Z ENDP			; CxStaticText::`scalar deleting destructor'
_TEXT	ENDS
xdata$x	SEGMENT
$T189093 DD	0ffffffffH
	DD	FLAT:$L189085
	DD	00H
	DD	FLAT:$L189086
	DD	01H
	DD	FLAT:$L189087
$T189091 DD	019930520H
	DD	03H
	DD	FLAT:$T189093
	DD	2 DUP(00H)
	DD	2 DUP(00H)
; Function compile flags: /Odt /RTCsu
xdata$x	ENDS
_TEXT	SEGMENT
_this$ = -16						; size = 4
__$EHRec$ = -12						; size = 12
??1CxStaticText@@UAE@XZ PROC NEAR			; CxStaticText::~CxStaticText
; _this$ = ecx

; 35   : {

  00190	55		 push	 ebp
  00191	8b ec		 mov	 ebp, esp
  00193	6a ff		 push	 -1
  00195	68 00 00 00 00	 push	 __ehhandler$??1CxStaticText@@UAE@XZ
  0019a	64 a1 00 00 00
	00		 mov	 eax, DWORD PTR fs:__except_list
  001a0	50		 push	 eax
  001a1	64 89 25 00 00
	00 00		 mov	 DWORD PTR fs:__except_list, esp
  001a8	51		 push	 ecx
  001a9	56		 push	 esi
  001aa	c7 45 f0 cc cc
	cc cc		 mov	 DWORD PTR [ebp-16], -858993460 ; ccccccccH
  001b1	89 4d f0	 mov	 DWORD PTR _this$[ebp], ecx
  001b4	8b 45 f0	 mov	 eax, DWORD PTR _this$[ebp]
  001b7	c7 00 00 00 00
	00		 mov	 DWORD PTR [eax], OFFSET FLAT:??_7CxStaticText@@6B@
  001bd	c7 45 fc 02 00
	00 00		 mov	 DWORD PTR __$EHRec$[ebp+8], 2

; 36   : }

  001c4	8b 4d f0	 mov	 ecx, DWORD PTR _this$[ebp]
  001c7	81 c1 00 01 00
	00		 add	 ecx, 256		; 00000100H
  001cd	8b f4		 mov	 esi, esp
  001cf	ff 15 00 00 00
	00		 call	 DWORD PTR __imp_??1?$CStringT@DV?$StrTraitMFC_DLL@DV?$ChTraitsCRT@D@ATL@@@@@ATL@@QAE@XZ
  001d5	3b f4		 cmp	 esi, esp
  001d7	e8 00 00 00 00	 call	 __RTC_CheckEsp
  001dc	8b 4d f0	 mov	 ecx, DWORD PTR _this$[ebp]
  001df	81 c1 90 00 00
	00		 add	 ecx, 144		; 00000090H
  001e5	e8 00 00 00 00	 call	 ??1CToolTipCtrl@@UAE@XZ	; CToolTipCtrl::~CToolTipCtrl
  001ea	c6 45 fc 01	 mov	 BYTE PTR __$EHRec$[ebp+8], 1
  001ee	8b 4d f0	 mov	 ecx, DWORD PTR _this$[ebp]
  001f1	83 c1 78	 add	 ecx, 120		; 00000078H
  001f4	8b f4		 mov	 esi, esp
  001f6	ff 15 00 00 00
	00		 call	 DWORD PTR __imp_??1?$CStringT@DV?$StrTraitMFC_DLL@DV?$ChTraitsCRT@D@ATL@@@@@ATL@@QAE@XZ
  001fc	3b f4		 cmp	 esi, esp
  001fe	e8 00 00 00 00	 call	 __RTC_CheckEsp
  00203	c6 45 fc 00	 mov	 BYTE PTR __$EHRec$[ebp+8], 0
  00207	8b 4d f0	 mov	 ecx, DWORD PTR _this$[ebp]
  0020a	83 c1 70	 add	 ecx, 112		; 00000070H
  0020d	8b f4		 mov	 esi, esp
  0020f	ff 15 00 00 00
	00		 call	 DWORD PTR __imp_??1?$CStringT@DV?$StrTraitMFC_DLL@DV?$ChTraitsCRT@D@ATL@@@@@ATL@@QAE@XZ
  00215	3b f4		 cmp	 esi, esp
  00217	e8 00 00 00 00	 call	 __RTC_CheckEsp
  0021c	c7 45 fc ff ff
	ff ff		 mov	 DWORD PTR __$EHRec$[ebp+8], -1
  00223	8b 4d f0	 mov	 ecx, DWORD PTR _this$[ebp]
  00226	e8 00 00 00 00	 call	 ??1CStatic@@UAE@XZ	; CStatic::~CStatic
  0022b	8b 4d f4	 mov	 ecx, DWORD PTR __$EHRec$[ebp]
  0022e	64 89 0d 00 00
	00 00		 mov	 DWORD PTR fs:__except_list, ecx
  00235	5e		 pop	 esi
  00236	83 c4 10	 add	 esp, 16			; 00000010H
  00239	3b ec		 cmp	 ebp, esp
  0023b	e8 00 00 00 00	 call	 __RTC_CheckEsp
  00240	8b e5		 mov	 esp, ebp
  00242	5d		 pop	 ebp
  00243	c3		 ret	 0
_TEXT	ENDS
text$x	SEGMENT
$L189085:
  00062	8b 4d f0	 mov	 ecx, DWORD PTR _this$[ebp]
  00065	e9 00 00 00 00	 jmp	 ??1CStatic@@UAE@XZ	; CStatic::~CStatic
$L189086:
  0006a	8b 4d f0	 mov	 ecx, DWORD PTR _this$[ebp]
  0006d	83 c1 70	 add	 ecx, 112		; 00000070H
  00070	8b f4		 mov	 esi, esp
  00072	ff 15 00 00 00
	00		 call	 DWORD PTR __imp_??1?$CStringT@DV?$StrTraitMFC_DLL@DV?$ChTraitsCRT@D@ATL@@@@@ATL@@QAE@XZ
  00078	3b f4		 cmp	 esi, esp
  0007a	e9 00 00 00 00	 jmp	 __RTC_CheckEsp
$L189087:
  0007f	8b 4d f0	 mov	 ecx, DWORD PTR _this$[ebp]
  00082	83 c1 78	 add	 ecx, 120		; 00000078H
  00085	8b f4		 mov	 esi, esp
  00087	ff 15 00 00 00
	00		 call	 DWORD PTR __imp_??1?$CStringT@DV?$StrTraitMFC_DLL@DV?$ChTraitsCRT@D@ATL@@@@@ATL@@QAE@XZ
  0008d	3b f4		 cmp	 esi, esp
  0008f	e9 00 00 00 00	 jmp	 __RTC_CheckEsp
__ehhandler$??1CxStaticText@@UAE@XZ:
  00094	b8 00 00 00 00	 mov	 eax, OFFSET FLAT:$T189091
  00099	e9 00 00 00 00	 jmp	 ___CxxFrameHandler
text$x	ENDS
??1CxStaticText@@UAE@XZ ENDP				; CxStaticText::~CxStaticText
PUBLIC	?GetThisMessageMap@CxStaticText@@KGPBUAFX_MSGMAP@@XZ ; CxStaticText::GetThisMessageMap
; Function compile flags: /Odt /RTCsu
_TEXT	SEGMENT
?GetThisMessageMap@CxStaticText@@KGPBUAFX_MSGMAP@@XZ PROC NEAR ; CxStaticText::GetThisMessageMap

; 38   : BEGIN_MESSAGE_MAP(CxStaticText, CStatic)

  00250	55		 push	 ebp
  00251	8b ec		 mov	 ebp, esp
  00253	b8 00 00 00 00	 mov	 eax, OFFSET FLAT:?messageMap@CxStaticText@@1UAFX_MSGMAP@@B ; CxStaticText::messageMap
  00258	5d		 pop	 ebp
  00259	c3		 ret	 0
?GetThisMessageMap@CxStaticText@@KGPBUAFX_MSGMAP@@XZ ENDP ; CxStaticText::GetThisMessageMap
; Function compile flags: /Odt /RTCsu
_this$ = -4						; size = 4
?GetMessageMap@CxStaticText@@MBEPBUAFX_MSGMAP@@XZ PROC NEAR ; CxStaticText::GetMessageMap
; _this$ = ecx

; 38   : BEGIN_MESSAGE_MAP(CxStaticText, CStatic)

  00260	55		 push	 ebp
  00261	8b ec		 mov	 ebp, esp
  00263	51		 push	 ecx
  00264	c7 45 fc cc cc
	cc cc		 mov	 DWORD PTR [ebp-4], -858993460 ; ccccccccH
  0026b	89 4d fc	 mov	 DWORD PTR _this$[ebp], ecx
  0026e	b8 00 00 00 00	 mov	 eax, OFFSET FLAT:?messageMap@CxStaticText@@1UAFX_MSGMAP@@B ; CxStaticText::messageMap
  00273	8b e5		 mov	 esp, ebp
  00275	5d		 pop	 ebp
  00276	c3		 ret	 0
?GetMessageMap@CxStaticText@@MBEPBUAFX_MSGMAP@@XZ ENDP	; CxStaticText::GetMessageMap
_TEXT	ENDS
PUBLIC	??$getline@_WU?$char_traits@_W@std@@V?$allocator@_W@2@@std@@YAAAV?$basic_istream@_WU?$char_traits@_W@std@@@0@AAV10@AAV?$basic_string@_WU?$char_traits@_W@std@@V?$allocator@_W@2@@0@_W@Z ; std::getline<wchar_t,std::char_traits<wchar_t>,std::allocator<wchar_t> >
PUBLIC	??Diterator@?$basic_string@_WU?$char_traits@_W@std@@V?$allocator@_W@2@@std@@QBEAA_WXZ ; std::basic_string<wchar_t,std::char_traits<wchar_t>,std::allocator<wchar_t> >::iterator::operator*
PUBLIC	??Fiterator@?$basic_string@_WU?$char_traits@_W@std@@V?$allocator@_W@2@@std@@QAEAAV012@XZ ; std::basic_string<wchar_t,std::char_traits<wchar_t>,std::allocator<wchar_t> >::iterator::operator--
PUBLIC	??Giterator@?$basic_string@_WU?$char_traits@_W@std@@V?$allocator@_W@2@@std@@QBE?AV012@H@Z ; std::basic_string<wchar_t,std::char_traits<wchar_t>,std::allocator<wchar_t> >::iterator::operator-
PUBLIC	?DrawBitmap@CxStaticText@@IAEXPAVCDC@@PAVCDibBitmap@@UtagRECT@@H@Z ; CxStaticText::DrawBitmap
EXTRN	__imp_??0?$basic_string@_WU?$char_traits@_W@std@@V?$allocator@_W@2@@std@@QAE@XZ:NEAR
EXTRN	__imp_??0?$basic_string@_WU?$char_traits@_W@std@@V?$allocator@_W@2@@std@@QAE@PB_W@Z:NEAR
EXTRN	__imp_??1?$basic_string@_WU?$char_traits@_W@std@@V?$allocator@_W@2@@std@@QAE@XZ:NEAR
EXTRN	__imp_?npos@?$basic_string@_WU?$char_traits@_W@std@@V?$allocator@_W@2@@std@@2IB:DWORD
EXTRN	__imp_??4?$basic_string@_WU?$char_traits@_W@std@@V?$allocator@_W@2@@std@@QAEAAV01@ABV01@@Z:NEAR
EXTRN	__imp_??Bios_base@std@@QBEPAXXZ:NEAR
EXTRN	__imp_?erase@?$basic_string@_WU?$char_traits@_W@std@@V?$allocator@_W@2@@std@@QAE?AViterator@12@V312@@Z:NEAR
EXTRN	__imp__DrawTextW@20:NEAR
EXTRN	__imp_?replace@?$basic_string@_WU?$char_traits@_W@std@@V?$allocator@_W@2@@std@@QAEAAV12@Viterator@12@0PB_W@Z:NEAR
EXTRN	__imp_?end@?$basic_string@_WU?$char_traits@_W@std@@V?$allocator@_W@2@@std@@QAE?AViterator@12@XZ:NEAR
EXTRN	__imp_??A?$basic_string@_WU?$char_traits@_W@std@@V?$allocator@_W@2@@std@@QAEAA_WI@Z:NEAR
EXTRN	__imp_?c_str@?$basic_string@_WU?$char_traits@_W@std@@V?$allocator@_W@2@@std@@QBEPB_WXZ:NEAR
EXTRN	?DeleteObject@CGdiObject@@QAEHXZ:NEAR		; CGdiObject::DeleteObject
EXTRN	__imp_?size@?$basic_string@_WU?$char_traits@_W@std@@V?$allocator@_W@2@@std@@QBEIXZ:NEAR
EXTRN	__imp_?empty@?$basic_string@_WU?$char_traits@_W@std@@V?$allocator@_W@2@@std@@QBE_NXZ:NEAR
EXTRN	__imp_?find@?$basic_string@_WU?$char_traits@_W@std@@V?$allocator@_W@2@@std@@QBEI_WI@Z:NEAR
EXTRN	??_V@YAXPAX@Z:NEAR				; operator delete[]
EXTRN	__imp_?substr@?$basic_string@_WU?$char_traits@_W@std@@V?$allocator@_W@2@@std@@QBE?AV12@II@Z:NEAR
EXTRN	__imp__MultiByteToWideChar@24:NEAR
EXTRN	?FillSolidRect@CDC@@QAEXPBUtagRECT@@K@Z:NEAR	; CDC::FillSolidRect
EXTRN	??0CFont@@QAE@XZ:NEAR				; CFont::CFont
EXTRN	?CreateFontIndirectA@CFont@@QAEHPBUtagLOGFONTA@@@Z:NEAR ; CFont::CreateFontIndirectA
EXTRN	??1CFont@@UAE@XZ:NEAR				; CFont::~CFont
EXTRN	??0CPaintDC@@QAE@PAVCWnd@@@Z:NEAR		; CPaintDC::CPaintDC
EXTRN	??1CPaintDC@@UAE@XZ:NEAR			; CPaintDC::~CPaintDC
EXTRN	__imp_??B?$CSimpleStringT@D$00@ATL@@QBEPBDXZ:NEAR
EXTRN	?GetClientRect@CWnd@@QBEXPAUtagRECT@@@Z:NEAR	; CWnd::GetClientRect
EXTRN	__imp_?GetLength@?$CSimpleStringT@D$00@ATL@@QBEHXZ:NEAR
EXTRN	?SelectObject@CDC@@UAEPAVCFont@@PAV2@@Z:NEAR	; CDC::SelectObject
EXTRN	__ftol2:NEAR
EXTRN	??_U@YAPAXIPBDH@Z:NEAR				; operator new[]
EXTRN	___security_cookie:DWORD
EXTRN	@_RTC_CheckStackVars@8:NEAR
EXTRN	@__security_check_cookie@4:NEAR
EXTRN	__fltused:NEAR
EXTRN	?SetBkMode@CDC@@QAEHH@Z:NEAR			; CDC::SetBkMode
EXTRN	__imp__GetTextExtentPointW@16:NEAR
EXTRN	?SetTextColor@CDC@@UAEKK@Z:NEAR			; CDC::SetTextColor
EXTRN	_memset:NEAR
EXTRN	_strcpy:NEAR
EXTRN	__imp__wcslen:NEAR
EXTRN	__imp_??0?$basic_istringstream@_WU?$char_traits@_W@std@@V?$allocator@_W@2@@std@@QAE@ABV?$basic_string@_WU?$char_traits@_W@std@@V?$allocator@_W@2@@1@H@Z:NEAR
EXTRN	__imp_??_D?$basic_istringstream@_WU?$char_traits@_W@std@@V?$allocator@_W@2@@std@@QAEXXZ:NEAR
xdata$x	SEGMENT
$T189150 DD	0ffffffffH
	DD	FLAT:$L189115
	DD	00H
	DD	FLAT:$L189116
	DD	01H
	DD	FLAT:$L189117
	DD	02H
	DD	FLAT:$L189118
	DD	03H
	DD	FLAT:$L189119
	DD	02H
	DD	FLAT:$L189119
	DD	05H
	DD	FLAT:$L189120
	DD	06H
	DD	FLAT:$L189121
	DD	07H
	DD	FLAT:$L189122
	DD	07H
	DD	FLAT:$L189123
	DD	07H
	DD	FLAT:$L189124
	DD	07H
	DD	FLAT:$L189125
	DD	07H
	DD	FLAT:$L189126
$T189128 DD	019930520H
	DD	0dH
	DD	FLAT:$T189150
	DD	2 DUP(00H)
	DD	2 DUP(00H)
; Function compile flags: /Odt /RTCsu
xdata$x	ENDS
_TEXT	SEGMENT
tv495 = -812						; size = 4
tv512 = -808						; size = 4
tv493 = -804						; size = 4
tv509 = -800						; size = 4
tv491 = -796						; size = 4
tv506 = -792						; size = 4
tv489 = -788						; size = 4
tv503 = -784						; size = 4
tv487 = -780						; size = 4
tv500 = -776						; size = 4
tv650 = -772						; size = 8
tv249 = -764						; size = 4
$T189114 = -760						; size = 4
$T189113 = -756						; size = 4
$T189112 = -752						; size = 4
$T189111 = -748						; size = 4
$T189110 = -744						; size = 28
$T189109 = -716						; size = 28
$T189108 = -688						; size = 28
$T189107 = -660						; size = 28
$T189106 = -632						; size = 28
$T189105 = -604						; size = 4
$T189104 = -600						; size = 4
$T189103 = -596						; size = 4
$T189100 = -592						; size = 4
$T189099 = -588						; size = 28
$T189098 = -560						; size = 4
_output_rect$187641 = -552				; size = 16
_temp$187629 = -532					; size = 4
_i$187610 = -528					; size = 4
_strOutput$187609 = -520				; size = 28
_line_len$187605 = -488					; size = 4
_line_num$187591 = -484					; size = 4
_text_width$187590 = -480				; size = 4
_size$187589 = -472					; size = 8
_wnd_height$187588 = -460				; size = 4
_wnd_width$187587 = -456				; size = 4
_line_spacing$187586 = -452				; size = 4
_out_line$187585 = -448					; size = 4
_strline$187584 = -440					; size = 28
_iss$187582 = -404					; size = 132
_wszPunctuation$ = -264					; size = 28
_oldFont$ = -232					; size = 4
_font$ = -224						; size = 8
_lf$ = -208						; size = 60
_wszWndText$ = -144					; size = 4
_nBufLen$ = -140					; size = 4
_rect$ = -132						; size = 16
_dc$ = -108						; size = 84
_this$ = -20						; size = 4
__$ArrayPad$ = -16					; size = 4
__$EHRec$ = -12						; size = 12
__$ReturnAddr$ = 4					; size = 4
?OnPaint@CxStaticText@@IAEXXZ PROC NEAR			; CxStaticText::OnPaint
; _this$ = ecx

; 49   : {

  00280	55		 push	 ebp
  00281	8b ec		 mov	 ebp, esp
  00283	6a ff		 push	 -1
  00285	68 00 00 00 00	 push	 __ehhandler$?OnPaint@CxStaticText@@IAEXXZ
  0028a	64 a1 00 00 00
	00		 mov	 eax, DWORD PTR fs:__except_list
  00290	50		 push	 eax
  00291	64 89 25 00 00
	00 00		 mov	 DWORD PTR fs:__except_list, esp
  00298	81 ec 20 03 00
	00		 sub	 esp, 800		; 00000320H
  0029e	56		 push	 esi
  0029f	57		 push	 edi
  002a0	51		 push	 ecx
  002a1	8d bd d4 fc ff
	ff		 lea	 edi, DWORD PTR [ebp-812]
  002a7	b9 c8 00 00 00	 mov	 ecx, 200		; 000000c8H
  002ac	b8 cc cc cc cc	 mov	 eax, -858993460		; ccccccccH
  002b1	f3 ab		 rep stosd
  002b3	59		 pop	 ecx
  002b4	a1 00 00 00 00	 mov	 eax, DWORD PTR ___security_cookie
  002b9	89 45 f0	 mov	 DWORD PTR __$ArrayPad$[ebp], eax
  002bc	89 4d ec	 mov	 DWORD PTR _this$[ebp], ecx

; 50   : 	CPaintDC dc(this);				// device context for painting

  002bf	8b 45 ec	 mov	 eax, DWORD PTR _this$[ebp]
  002c2	50		 push	 eax
  002c3	8d 4d 94	 lea	 ecx, DWORD PTR _dc$[ebp]
  002c6	e8 00 00 00 00	 call	 ??0CPaintDC@@QAE@PAVCWnd@@@Z ; CPaintDC::CPaintDC
  002cb	c7 45 fc 00 00
	00 00		 mov	 DWORD PTR __$EHRec$[ebp+8], 0

; 51   : 
; 52   : 	RECT rect;
; 53   : 	GetClientRect(&rect);			// get clip region

  002d2	8d 8d 7c ff ff
	ff		 lea	 ecx, DWORD PTR _rect$[ebp]
  002d8	51		 push	 ecx
  002d9	8b 4d ec	 mov	 ecx, DWORD PTR _this$[ebp]
  002dc	e8 00 00 00 00	 call	 ?GetClientRect@CWnd@@QBEXPAUtagRECT@@@Z ; CWnd::GetClientRect

; 54   : 	dc.SetBkMode(TRANSPARENT);		// preserve background

  002e1	6a 01		 push	 1
  002e3	8d 4d 94	 lea	 ecx, DWORD PTR _dc$[ebp]
  002e6	e8 00 00 00 00	 call	 ?SetBkMode@CDC@@QAEHH@Z	; CDC::SetBkMode

; 55   : 
; 56   : 	dc.FillSolidRect(&rect,m_BackgroundColor);	// update background color

  002eb	8b 55 ec	 mov	 edx, DWORD PTR _this$[ebp]
  002ee	8b 42 58	 mov	 eax, DWORD PTR [edx+88]
  002f1	50		 push	 eax
  002f2	8d 8d 7c ff ff
	ff		 lea	 ecx, DWORD PTR _rect$[ebp]
  002f8	51		 push	 ecx
  002f9	8d 4d 94	 lea	 ecx, DWORD PTR _dc$[ebp]
  002fc	e8 00 00 00 00	 call	 ?FillSolidRect@CDC@@QAEXPBUtagRECT@@K@Z ; CDC::FillSolidRect

; 57   : 
; 58   : 	if (mpBmpNormal)				// draw background

  00301	8b 55 ec	 mov	 edx, DWORD PTR _this$[ebp]
  00304	83 ba 88 00 00
	00 00		 cmp	 DWORD PTR [edx+136], 0
  0030b	74 40		 je	 SHORT $L187565

; 59   : 	{
; 60   : 		DrawBitmap(&dc,mpBmpNormal,rect,m_DrawMode);

  0030d	8b 45 ec	 mov	 eax, DWORD PTR _this$[ebp]
  00310	0f bf 88 84 00
	00 00		 movsx	 ecx, WORD PTR [eax+132]
  00317	51		 push	 ecx
  00318	83 ec 10	 sub	 esp, 16			; 00000010H
  0031b	8b d4		 mov	 edx, esp
  0031d	8b 85 7c ff ff
	ff		 mov	 eax, DWORD PTR _rect$[ebp]
  00323	89 02		 mov	 DWORD PTR [edx], eax
  00325	8b 4d 80	 mov	 ecx, DWORD PTR _rect$[ebp+4]
  00328	89 4a 04	 mov	 DWORD PTR [edx+4], ecx
  0032b	8b 45 84	 mov	 eax, DWORD PTR _rect$[ebp+8]
  0032e	89 42 08	 mov	 DWORD PTR [edx+8], eax
  00331	8b 4d 88	 mov	 ecx, DWORD PTR _rect$[ebp+12]
  00334	89 4a 0c	 mov	 DWORD PTR [edx+12], ecx
  00337	8b 55 ec	 mov	 edx, DWORD PTR _this$[ebp]
  0033a	8b 82 88 00 00
	00		 mov	 eax, DWORD PTR [edx+136]
  00340	50		 push	 eax
  00341	8d 4d 94	 lea	 ecx, DWORD PTR _dc$[ebp]
  00344	51		 push	 ecx
  00345	8b 4d ec	 mov	 ecx, DWORD PTR _this$[ebp]
  00348	e8 00 00 00 00	 call	 ?DrawBitmap@CxStaticText@@IAEXPAVCDC@@PAVCDibBitmap@@UtagRECT@@H@Z ; CxStaticText::DrawBitmap
$L187565:

; 61   : 	}
; 62   : 
; 63   : 	int nBufLen = MultiByteToWideChar(CP_ACP, 0, m_strWindowText, -1, NULL, 0);

  0034d	8b f4		 mov	 esi, esp
  0034f	6a 00		 push	 0
  00351	6a 00		 push	 0
  00353	6a ff		 push	 -1
  00355	8b 4d ec	 mov	 ecx, DWORD PTR _this$[ebp]
  00358	83 c1 78	 add	 ecx, 120		; 00000078H
  0035b	8b fc		 mov	 edi, esp
  0035d	ff 15 00 00 00
	00		 call	 DWORD PTR __imp_??B?$CSimpleStringT@D$00@ATL@@QBEPBDXZ
  00363	3b fc		 cmp	 edi, esp
  00365	e8 00 00 00 00	 call	 __RTC_CheckEsp
  0036a	50		 push	 eax
  0036b	6a 00		 push	 0
  0036d	6a 00		 push	 0
  0036f	ff 15 00 00 00
	00		 call	 DWORD PTR __imp__MultiByteToWideChar@24
  00375	3b f4		 cmp	 esi, esp
  00377	e8 00 00 00 00	 call	 __RTC_CheckEsp
  0037c	89 85 74 ff ff
	ff		 mov	 DWORD PTR _nBufLen$[ebp], eax

; 64   : 	if(nBufLen <= 0)

  00382	83 bd 74 ff ff
	ff 00		 cmp	 DWORD PTR _nBufLen$[ebp], 0
  00389	7f 14		 jg	 SHORT $L187567

; 65   : 		return;

  0038b	c7 45 fc ff ff
	ff ff		 mov	 DWORD PTR __$EHRec$[ebp+8], -1
  00392	8d 4d 94	 lea	 ecx, DWORD PTR _dc$[ebp]
  00395	e8 00 00 00 00	 call	 ??1CPaintDC@@UAE@XZ	; CPaintDC::~CPaintDC
  0039a	e9 e5 0b 00 00	 jmp	 $L187562
$L187567:

; 66   : 	wchar_t * wszWndText = new wchar_t[nBufLen];

  0039f	6a 42		 push	 66			; 00000042H
  003a1	68 00 00 00 00	 push	 OFFSET FLAT:_THIS_FILE
  003a6	8b 95 74 ff ff
	ff		 mov	 edx, DWORD PTR _nBufLen$[ebp]
  003ac	d1 e2		 shl	 edx, 1
  003ae	52		 push	 edx
  003af	e8 00 00 00 00	 call	 ??_U@YAPAXIPBDH@Z	; operator new[]
  003b4	83 c4 0c	 add	 esp, 12			; 0000000cH
  003b7	89 85 d0 fd ff
	ff		 mov	 DWORD PTR $T189098[ebp], eax
  003bd	8b 85 d0 fd ff
	ff		 mov	 eax, DWORD PTR $T189098[ebp]
  003c3	89 85 70 ff ff
	ff		 mov	 DWORD PTR _wszWndText$[ebp], eax

; 67   : 	if(wszWndText == NULL)

  003c9	83 bd 70 ff ff
	ff 00		 cmp	 DWORD PTR _wszWndText$[ebp], 0
  003d0	75 14		 jne	 SHORT $L187571

; 68   : 		return;

  003d2	c7 45 fc ff ff
	ff ff		 mov	 DWORD PTR __$EHRec$[ebp+8], -1
  003d9	8d 4d 94	 lea	 ecx, DWORD PTR _dc$[ebp]
  003dc	e8 00 00 00 00	 call	 ??1CPaintDC@@UAE@XZ	; CPaintDC::~CPaintDC
  003e1	e9 9e 0b 00 00	 jmp	 $L187562
$L187571:

; 69   : 	if(MultiByteToWideChar(CP_ACP, 0, m_strWindowText, -1, wszWndText, nBufLen) == 0)

  003e6	8b f4		 mov	 esi, esp
  003e8	8b 8d 74 ff ff
	ff		 mov	 ecx, DWORD PTR _nBufLen$[ebp]
  003ee	51		 push	 ecx
  003ef	8b 95 70 ff ff
	ff		 mov	 edx, DWORD PTR _wszWndText$[ebp]
  003f5	52		 push	 edx
  003f6	6a ff		 push	 -1
  003f8	8b 4d ec	 mov	 ecx, DWORD PTR _this$[ebp]
  003fb	83 c1 78	 add	 ecx, 120		; 00000078H
  003fe	8b fc		 mov	 edi, esp
  00400	ff 15 00 00 00
	00		 call	 DWORD PTR __imp_??B?$CSimpleStringT@D$00@ATL@@QBEPBDXZ
  00406	3b fc		 cmp	 edi, esp
  00408	e8 00 00 00 00	 call	 __RTC_CheckEsp
  0040d	50		 push	 eax
  0040e	6a 00		 push	 0
  00410	6a 00		 push	 0
  00412	ff 15 00 00 00
	00		 call	 DWORD PTR __imp__MultiByteToWideChar@24
  00418	3b f4		 cmp	 esi, esp
  0041a	e8 00 00 00 00	 call	 __RTC_CheckEsp
  0041f	85 c0		 test	 eax, eax
  00421	75 14		 jne	 SHORT $L187572

; 70   : 		return;

  00423	c7 45 fc ff ff
	ff ff		 mov	 DWORD PTR __$EHRec$[ebp+8], -1
  0042a	8d 4d 94	 lea	 ecx, DWORD PTR _dc$[ebp]
  0042d	e8 00 00 00 00	 call	 ??1CPaintDC@@UAE@XZ	; CPaintDC::~CPaintDC
  00432	e9 4d 0b 00 00	 jmp	 $L187562
$L187572:

; 71   : 
; 72   : 	dc.SetTextColor(m_TextColor);

  00437	8b 45 ec	 mov	 eax, DWORD PTR _this$[ebp]
  0043a	8b 48 60	 mov	 ecx, DWORD PTR [eax+96]
  0043d	51		 push	 ecx
  0043e	8d 4d 94	 lea	 ecx, DWORD PTR _dc$[ebp]
  00441	e8 00 00 00 00	 call	 ?SetTextColor@CDC@@UAEKK@Z ; CDC::SetTextColor

; 73   : 
; 74   : 	//COLORREF ltempColor = dc.GetTextColor();
; 75   : 
; 76   : 	LOGFONT  lf;
; 77   : 	ZeroMemory(&lf,sizeof(lf));

  00446	6a 3c		 push	 60			; 0000003cH
  00448	6a 00		 push	 0
  0044a	8d 95 30 ff ff
	ff		 lea	 edx, DWORD PTR _lf$[ebp]
  00450	52		 push	 edx
  00451	e8 00 00 00 00	 call	 _memset
  00456	83 c4 0c	 add	 esp, 12			; 0000000cH

; 78   : 
; 79   : 	lf.lfHeight = m_FontSize; /*-MulDiv(m_FontSize,GetDeviceCaps(dc.m_hDC,LOGPIXELSY),72);*/

  00459	8b 45 ec	 mov	 eax, DWORD PTR _this$[ebp]
  0045c	8b 48 74	 mov	 ecx, DWORD PTR [eax+116]
  0045f	89 8d 30 ff ff
	ff		 mov	 DWORD PTR _lf$[ebp], ecx

; 80   : 	lf.lfWeight = FW_NORMAL;

  00465	c7 85 40 ff ff
	ff 90 01 00 00	 mov	 DWORD PTR _lf$[ebp+16], 400 ; 00000190H

; 81   : 	lf.lfWidth = 0;

  0046f	c7 85 34 ff ff
	ff 00 00 00 00	 mov	 DWORD PTR _lf$[ebp+4], 0

; 82   : 	lf.lfCharSet = GB2312_CHARSET;

  00479	c6 85 47 ff ff
	ff 86		 mov	 BYTE PTR _lf$[ebp+23], 134 ; 00000086H

; 83   : 	lf.lfStrikeOut = FALSE;

  00480	c6 85 46 ff ff
	ff 00		 mov	 BYTE PTR _lf$[ebp+22], 0

; 84   : 	//	lf.lfCharSet= 0;
; 85   : 	lf.lfOutPrecision = OUT_DEFAULT_PRECIS;

  00487	c6 85 48 ff ff
	ff 00		 mov	 BYTE PTR _lf$[ebp+24], 0

; 86   : 	lf.lfClipPrecision = CLIP_DEFAULT_PRECIS;

  0048e	c6 85 49 ff ff
	ff 00		 mov	 BYTE PTR _lf$[ebp+25], 0

; 87   : 	lf.lfQuality = DEFAULT_QUALITY;

  00495	c6 85 4a ff ff
	ff 00		 mov	 BYTE PTR _lf$[ebp+26], 0

; 88   : 	lf.lfPitchAndFamily = FF_DONTCARE | DEFAULT_PITCH;

  0049c	c6 85 4b ff ff
	ff 00		 mov	 BYTE PTR _lf$[ebp+27], 0

; 89   : 	lf.lfUnderline = m_UnderLine;

  004a3	8b 55 ec	 mov	 edx, DWORD PTR _this$[ebp]
  004a6	8a 42 69	 mov	 al, BYTE PTR [edx+105]
  004a9	88 85 45 ff ff
	ff		 mov	 BYTE PTR _lf$[ebp+21], al

; 90   : 
; 91   : 	//TEXTMETRIC metric;
; 92   : 
; 93   : 	//GetTextMetrics(dc,&metric);
; 94   : 	//
; 95   : 	//SetTextMetrics(dc,&metric);
; 96   : 
; 97   : 
; 98   : 	if( m_FontFace.GetLength() != 0)

  004af	8b 4d ec	 mov	 ecx, DWORD PTR _this$[ebp]
  004b2	83 c1 70	 add	 ecx, 112		; 00000070H
  004b5	8b f4		 mov	 esi, esp
  004b7	ff 15 00 00 00
	00		 call	 DWORD PTR __imp_?GetLength@?$CSimpleStringT@D$00@ATL@@QBEHXZ
  004bd	3b f4		 cmp	 esi, esp
  004bf	e8 00 00 00 00	 call	 __RTC_CheckEsp
  004c4	85 c0		 test	 eax, eax
  004c6	74 25		 je	 SHORT $L187574

; 99   : 	{
; 100  : 		strcpy(lf.lfFaceName, m_FontFace);

  004c8	8b 4d ec	 mov	 ecx, DWORD PTR _this$[ebp]
  004cb	83 c1 70	 add	 ecx, 112		; 00000070H
  004ce	8b f4		 mov	 esi, esp
  004d0	ff 15 00 00 00
	00		 call	 DWORD PTR __imp_??B?$CSimpleStringT@D$00@ATL@@QBEPBDXZ
  004d6	3b f4		 cmp	 esi, esp
  004d8	e8 00 00 00 00	 call	 __RTC_CheckEsp
  004dd	50		 push	 eax
  004de	8d 8d 4c ff ff
	ff		 lea	 ecx, DWORD PTR _lf$[ebp+28]
  004e4	51		 push	 ecx
  004e5	e8 00 00 00 00	 call	 _strcpy
  004ea	83 c4 08	 add	 esp, 8
$L187574:

; 101  : 	}
; 102  : 
; 103  : 	CFont font;

  004ed	8d 8d 20 ff ff
	ff		 lea	 ecx, DWORD PTR _font$[ebp]
  004f3	e8 00 00 00 00	 call	 ??0CFont@@QAE@XZ	; CFont::CFont
  004f8	c6 45 fc 01	 mov	 BYTE PTR __$EHRec$[ebp+8], 1

; 104  : 	font.CreateFontIndirect(&lf);

  004fc	8d 95 30 ff ff
	ff		 lea	 edx, DWORD PTR _lf$[ebp]
  00502	52		 push	 edx
  00503	8d 8d 20 ff ff
	ff		 lea	 ecx, DWORD PTR _font$[ebp]
  00509	e8 00 00 00 00	 call	 ?CreateFontIndirectA@CFont@@QAEHPBUtagLOGFONTA@@@Z ; CFont::CreateFontIndirectA

; 105  : 	CFont* oldFont = (CFont*)dc.SelectObject(&font);

  0050e	8d 85 20 ff ff
	ff		 lea	 eax, DWORD PTR _font$[ebp]
  00514	50		 push	 eax
  00515	8d 4d 94	 lea	 ecx, DWORD PTR _dc$[ebp]
  00518	e8 00 00 00 00	 call	 ?SelectObject@CDC@@UAEPAVCFont@@PAV2@@Z ; CDC::SelectObject
  0051d	89 85 18 ff ff
	ff		 mov	 DWORD PTR _oldFont$[ebp], eax

; 106  : 
; 107  : 	//CString sCaption;
; 108  : 	//GetWindowText(sCaption);		// get label text
; 109  : 	wstring wszPunctuation = L",.\'\"?!.)];:";

  00523	8b f4		 mov	 esi, esp
  00525	68 00 00 00 00	 push	 OFFSET FLAT:$SG187579
  0052a	8d 8d f8 fe ff
	ff		 lea	 ecx, DWORD PTR _wszPunctuation$[ebp]
  00530	ff 15 00 00 00
	00		 call	 DWORD PTR __imp_??0?$basic_string@_WU?$char_traits@_W@std@@V?$allocator@_W@2@@std@@QAE@PB_W@Z
  00536	3b f4		 cmp	 esi, esp
  00538	e8 00 00 00 00	 call	 __RTC_CheckEsp
  0053d	c6 45 fc 02	 mov	 BYTE PTR __$EHRec$[ebp+8], 2

; 110  : 	if ( m_SingleLine )

  00541	8b 4d ec	 mov	 ecx, DWORD PTR _this$[ebp]
  00544	0f b6 51 68	 movzx	 edx, BYTE PTR [ecx+104]
  00548	85 d2		 test	 edx, edx
  0054a	74 45		 je	 SHORT $L187580

; 111  : 	{
; 112  : 		::DrawTextW(
; 113  : 			dc.m_hDC,
; 114  : 			wszWndText,
; 115  : 			wcslen(wszWndText),
; 116  : 			&rect,
; 117  : 			DT_SINGLELINE|DT_END_ELLIPSIS|DT_NOPREFIX/*|DT_EXTERNALLEADING|DT_WORDBREAK|DT_END_ELLIPSIS|DT_EDITCONTROL*/
; 118  : 			);

  0054c	8b f4		 mov	 esi, esp
  0054e	68 20 88 00 00	 push	 34848			; 00008820H
  00553	8d 85 7c ff ff
	ff		 lea	 eax, DWORD PTR _rect$[ebp]
  00559	50		 push	 eax
  0055a	8b fc		 mov	 edi, esp
  0055c	8b 8d 70 ff ff
	ff		 mov	 ecx, DWORD PTR _wszWndText$[ebp]
  00562	51		 push	 ecx
  00563	ff 15 00 00 00
	00		 call	 DWORD PTR __imp__wcslen
  00569	83 c4 04	 add	 esp, 4
  0056c	3b fc		 cmp	 edi, esp
  0056e	e8 00 00 00 00	 call	 __RTC_CheckEsp
  00573	50		 push	 eax
  00574	8b 95 70 ff ff
	ff		 mov	 edx, DWORD PTR _wszWndText$[ebp]
  0057a	52		 push	 edx
  0057b	8b 45 98	 mov	 eax, DWORD PTR _dc$[ebp+4]
  0057e	50		 push	 eax
  0057f	ff 15 00 00 00
	00		 call	 DWORD PTR __imp__DrawTextW@20
  00585	3b f4		 cmp	 esi, esp
  00587	e8 00 00 00 00	 call	 __RTC_CheckEsp

; 119  : 	}
; 120  : 	else

  0058c	e9 87 09 00 00	 jmp	 $L187581
$L187580:

; 121  : 	{
; 122  : 		wistringstream iss(wszWndText);

  00591	8b f4		 mov	 esi, esp
  00593	8b 8d 70 ff ff
	ff		 mov	 ecx, DWORD PTR _wszWndText$[ebp]
  00599	51		 push	 ecx
  0059a	8d 8d b4 fd ff
	ff		 lea	 ecx, DWORD PTR $T189099[ebp]
  005a0	ff 15 00 00 00
	00		 call	 DWORD PTR __imp_??0?$basic_string@_WU?$char_traits@_W@std@@V?$allocator@_W@2@@std@@QAE@PB_W@Z
  005a6	3b f4		 cmp	 esi, esp
  005a8	e8 00 00 00 00	 call	 __RTC_CheckEsp
  005ad	c6 45 fc 03	 mov	 BYTE PTR __$EHRec$[ebp+8], 3
  005b1	8b f4		 mov	 esi, esp
  005b3	6a 01		 push	 1
  005b5	6a 01		 push	 1
  005b7	8d 95 b4 fd ff
	ff		 lea	 edx, DWORD PTR $T189099[ebp]
  005bd	52		 push	 edx
  005be	8d 8d 6c fe ff
	ff		 lea	 ecx, DWORD PTR _iss$187582[ebp]
  005c4	ff 15 00 00 00
	00		 call	 DWORD PTR __imp_??0?$basic_istringstream@_WU?$char_traits@_W@std@@V?$allocator@_W@2@@std@@QAE@ABV?$basic_string@_WU?$char_traits@_W@std@@V?$allocator@_W@2@@1@H@Z
  005ca	3b f4		 cmp	 esi, esp
  005cc	e8 00 00 00 00	 call	 __RTC_CheckEsp
  005d1	c6 45 fc 05	 mov	 BYTE PTR __$EHRec$[ebp+8], 5
  005d5	8b f4		 mov	 esi, esp
  005d7	8d 8d b4 fd ff
	ff		 lea	 ecx, DWORD PTR $T189099[ebp]
  005dd	ff 15 00 00 00
	00		 call	 DWORD PTR __imp_??1?$basic_string@_WU?$char_traits@_W@std@@V?$allocator@_W@2@@std@@QAE@XZ
  005e3	3b f4		 cmp	 esi, esp
  005e5	e8 00 00 00 00	 call	 __RTC_CheckEsp

; 123  : 		wstring strline;

  005ea	8b f4		 mov	 esi, esp
  005ec	8d 8d 48 fe ff
	ff		 lea	 ecx, DWORD PTR _strline$187584[ebp]
  005f2	ff 15 00 00 00
	00		 call	 DWORD PTR __imp_??0?$basic_string@_WU?$char_traits@_W@std@@V?$allocator@_W@2@@std@@QAE@XZ
  005f8	3b f4		 cmp	 esi, esp
  005fa	e8 00 00 00 00	 call	 __RTC_CheckEsp
  005ff	c6 45 fc 06	 mov	 BYTE PTR __$EHRec$[ebp+8], 6

; 124  : 		int out_line = 0;

  00603	c7 85 40 fe ff
	ff 00 00 00 00	 mov	 DWORD PTR _out_line$187585[ebp], 0

; 125  : 		int line_spacing = 5;

  0060d	c7 85 3c fe ff
	ff 05 00 00 00	 mov	 DWORD PTR _line_spacing$187586[ebp], 5

; 126  : 		int wnd_width = rect.right - rect.left;

  00617	8b 45 84	 mov	 eax, DWORD PTR _rect$[ebp+8]
  0061a	2b 85 7c ff ff
	ff		 sub	 eax, DWORD PTR _rect$[ebp]
  00620	89 85 38 fe ff
	ff		 mov	 DWORD PTR _wnd_width$187587[ebp], eax

; 127  : 		int wnd_height = rect.bottom - rect.top;

  00626	8b 4d 88	 mov	 ecx, DWORD PTR _rect$[ebp+12]
  00629	2b 4d 80	 sub	 ecx, DWORD PTR _rect$[ebp+4]
  0062c	89 8d 34 fe ff
	ff		 mov	 DWORD PTR _wnd_height$187588[ebp], ecx

; 128  : 		SIZE size;
; 129  : 		::GetTextExtentPointW(dc.m_hDC, wszWndText, wcslen(wszWndText), &size);

  00632	8b f4		 mov	 esi, esp
  00634	8d 95 28 fe ff
	ff		 lea	 edx, DWORD PTR _size$187589[ebp]
  0063a	52		 push	 edx
  0063b	8b fc		 mov	 edi, esp
  0063d	8b 85 70 ff ff
	ff		 mov	 eax, DWORD PTR _wszWndText$[ebp]
  00643	50		 push	 eax
  00644	ff 15 00 00 00
	00		 call	 DWORD PTR __imp__wcslen
  0064a	83 c4 04	 add	 esp, 4
  0064d	3b fc		 cmp	 edi, esp
  0064f	e8 00 00 00 00	 call	 __RTC_CheckEsp
  00654	50		 push	 eax
  00655	8b 8d 70 ff ff
	ff		 mov	 ecx, DWORD PTR _wszWndText$[ebp]
  0065b	51		 push	 ecx
  0065c	8b 55 98	 mov	 edx, DWORD PTR _dc$[ebp+4]
  0065f	52		 push	 edx
  00660	ff 15 00 00 00
	00		 call	 DWORD PTR __imp__GetTextExtentPointW@16
  00666	3b f4		 cmp	 esi, esp
  00668	e8 00 00 00 00	 call	 __RTC_CheckEsp

; 130  : 		int text_width = size.cx;

  0066d	8b 85 28 fe ff
	ff		 mov	 eax, DWORD PTR _size$187589[ebp]
  00673	89 85 20 fe ff
	ff		 mov	 DWORD PTR _text_width$187590[ebp], eax

; 131  : 		int line_num = wnd_height / (size.cy + line_spacing);

  00679	8b 8d 2c fe ff
	ff		 mov	 ecx, DWORD PTR _size$187589[ebp+4]
  0067f	03 8d 3c fe ff
	ff		 add	 ecx, DWORD PTR _line_spacing$187586[ebp]
  00685	8b 85 34 fe ff
	ff		 mov	 eax, DWORD PTR _wnd_height$187588[ebp]
  0068b	99		 cdq
  0068c	f7 f9		 idiv	 ecx
  0068e	89 85 1c fe ff
	ff		 mov	 DWORD PTR _line_num$187591[ebp], eax

; 132  : 		if(text_width > wnd_width)

  00694	8b 95 20 fe ff
	ff		 mov	 edx, DWORD PTR _text_width$187590[ebp]
  0069a	3b 95 38 fe ff
	ff		 cmp	 edx, DWORD PTR _wnd_width$187587[ebp]
  006a0	0f 8e 00 08 00
	00		 jle	 $L187592
$L187594:

; 133  : 		{
; 134  : 			while(getline(iss, strline, L'\n') && out_line <= line_num)

  006a6	6a 0a		 push	 10			; 0000000aH
  006a8	8d 85 48 fe ff
	ff		 lea	 eax, DWORD PTR _strline$187584[ebp]
  006ae	50		 push	 eax
  006af	8d 8d 6c fe ff
	ff		 lea	 ecx, DWORD PTR _iss$187582[ebp]
  006b5	51		 push	 ecx
  006b6	e8 00 00 00 00	 call	 ??$getline@_WU?$char_traits@_W@std@@V?$allocator@_W@2@@std@@YAAAV?$basic_istream@_WU?$char_traits@_W@std@@@0@AAV10@AAV?$basic_string@_WU?$char_traits@_W@std@@V?$allocator@_W@2@@0@_W@Z ; std::getline<wchar_t,std::char_traits<wchar_t>,std::allocator<wchar_t> >
  006bb	83 c4 0c	 add	 esp, 12			; 0000000cH
  006be	89 85 b0 fd ff
	ff		 mov	 DWORD PTR $T189100[ebp], eax
  006c4	83 bd b0 fd ff
	ff 00		 cmp	 DWORD PTR $T189100[ebp], 0
  006cb	75 0c		 jne	 SHORT $L189101
  006cd	c7 85 04 fd ff
	ff 00 00 00 00	 mov	 DWORD PTR tv249[ebp], 0
  006d7	eb 17		 jmp	 SHORT $L189102
$L189101:
  006d9	8b 95 b0 fd ff
	ff		 mov	 edx, DWORD PTR $T189100[ebp]
  006df	8b 02		 mov	 eax, DWORD PTR [edx]
  006e1	8b 8d b0 fd ff
	ff		 mov	 ecx, DWORD PTR $T189100[ebp]
  006e7	03 48 04	 add	 ecx, DWORD PTR [eax+4]
  006ea	89 8d 04 fd ff
	ff		 mov	 DWORD PTR tv249[ebp], ecx
$L189102:
  006f0	8b f4		 mov	 esi, esp
  006f2	8b 8d 04 fd ff
	ff		 mov	 ecx, DWORD PTR tv249[ebp]
  006f8	ff 15 00 00 00
	00		 call	 DWORD PTR __imp_??Bios_base@std@@QBEPAXXZ
  006fe	3b f4		 cmp	 esi, esp
  00700	e8 00 00 00 00	 call	 __RTC_CheckEsp
  00705	85 c0		 test	 eax, eax
  00707	0f 84 97 07 00
	00		 je	 $L187595
  0070d	8b 95 40 fe ff
	ff		 mov	 edx, DWORD PTR _out_line$187585[ebp]
  00713	3b 95 1c fe ff
	ff		 cmp	 edx, DWORD PTR _line_num$187591[ebp]
  00719	0f 9e c0	 setle	 al
  0071c	0f b6 c8	 movzx	 ecx, al
  0071f	85 c9		 test	 ecx, ecx
  00721	0f 84 7d 07 00
	00		 je	 $L187595

; 135  : 			{
; 136  : 				if(strline.size() == 0)

  00727	8b f4		 mov	 esi, esp
  00729	8d 8d 48 fe ff
	ff		 lea	 ecx, DWORD PTR _strline$187584[ebp]
  0072f	ff 15 00 00 00
	00		 call	 DWORD PTR __imp_?size@?$basic_string@_WU?$char_traits@_W@std@@V?$allocator@_W@2@@std@@QBEIXZ
  00735	3b f4		 cmp	 esi, esp
  00737	e8 00 00 00 00	 call	 __RTC_CheckEsp
  0073c	85 c0		 test	 eax, eax
  0073e	75 05		 jne	 SHORT $L187597

; 137  : 					continue;

  00740	e9 61 ff ff ff	 jmp	 $L187594
$L187597:

; 138  : 				if(*(--strline.end()) == L'\r')

  00745	8b f4		 mov	 esi, esp
  00747	8d 95 ac fd ff
	ff		 lea	 edx, DWORD PTR $T189103[ebp]
  0074d	52		 push	 edx
  0074e	8d 8d 48 fe ff
	ff		 lea	 ecx, DWORD PTR _strline$187584[ebp]
  00754	ff 15 00 00 00
	00		 call	 DWORD PTR __imp_?end@?$basic_string@_WU?$char_traits@_W@std@@V?$allocator@_W@2@@std@@QAE?AViterator@12@XZ
  0075a	3b f4		 cmp	 esi, esp
  0075c	e8 00 00 00 00	 call	 __RTC_CheckEsp
  00761	8b c8		 mov	 ecx, eax
  00763	e8 00 00 00 00	 call	 ??Fiterator@?$basic_string@_WU?$char_traits@_W@std@@V?$allocator@_W@2@@std@@QAEAAV012@XZ ; std::basic_string<wchar_t,std::char_traits<wchar_t>,std::allocator<wchar_t> >::iterator::operator--
  00768	8b c8		 mov	 ecx, eax
  0076a	e8 00 00 00 00	 call	 ??Diterator@?$basic_string@_WU?$char_traits@_W@std@@V?$allocator@_W@2@@std@@QBEAA_WXZ ; std::basic_string<wchar_t,std::char_traits<wchar_t>,std::allocator<wchar_t> >::iterator::operator*
  0076f	0f b7 00	 movzx	 eax, WORD PTR [eax]
  00772	83 f8 0d	 cmp	 eax, 13			; 0000000dH
  00775	75 42		 jne	 SHORT $L187603

; 139  : 					strline.erase(--strline.end());

  00777	8b f4		 mov	 esi, esp
  00779	8d 8d a8 fd ff
	ff		 lea	 ecx, DWORD PTR $T189104[ebp]
  0077f	51		 push	 ecx
  00780	8d 8d 48 fe ff
	ff		 lea	 ecx, DWORD PTR _strline$187584[ebp]
  00786	ff 15 00 00 00
	00		 call	 DWORD PTR __imp_?end@?$basic_string@_WU?$char_traits@_W@std@@V?$allocator@_W@2@@std@@QAE?AViterator@12@XZ
  0078c	3b f4		 cmp	 esi, esp
  0078e	e8 00 00 00 00	 call	 __RTC_CheckEsp
  00793	8b c8		 mov	 ecx, eax
  00795	e8 00 00 00 00	 call	 ??Fiterator@?$basic_string@_WU?$char_traits@_W@std@@V?$allocator@_W@2@@std@@QAEAAV012@XZ ; std::basic_string<wchar_t,std::char_traits<wchar_t>,std::allocator<wchar_t> >::iterator::operator--
  0079a	8b f4		 mov	 esi, esp
  0079c	8b 10		 mov	 edx, DWORD PTR [eax]
  0079e	52		 push	 edx
  0079f	8d 85 a4 fd ff
	ff		 lea	 eax, DWORD PTR $T189105[ebp]
  007a5	50		 push	 eax
  007a6	8d 8d 48 fe ff
	ff		 lea	 ecx, DWORD PTR _strline$187584[ebp]
  007ac	ff 15 00 00 00
	00		 call	 DWORD PTR __imp_?erase@?$basic_string@_WU?$char_traits@_W@std@@V?$allocator@_W@2@@std@@QAE?AViterator@12@V312@@Z
  007b2	3b f4		 cmp	 esi, esp
  007b4	e8 00 00 00 00	 call	 __RTC_CheckEsp
$L187603:

; 140  : 				while(strline.size())

  007b9	8b f4		 mov	 esi, esp
  007bb	8d 8d 48 fe ff
	ff		 lea	 ecx, DWORD PTR _strline$187584[ebp]
  007c1	ff 15 00 00 00
	00		 call	 DWORD PTR __imp_?size@?$basic_string@_WU?$char_traits@_W@std@@V?$allocator@_W@2@@std@@QBEIXZ
  007c7	3b f4		 cmp	 esi, esp
  007c9	e8 00 00 00 00	 call	 __RTC_CheckEsp
  007ce	85 c0		 test	 eax, eax
  007d0	0f 84 c9 06 00
	00		 je	 $L187604

; 141  : 				{
; 142  : 					int line_len = (int)(wcslen(wszWndText) * wnd_width / (float)text_width);//

  007d6	8b f4		 mov	 esi, esp
  007d8	8b 8d 70 ff ff
	ff		 mov	 ecx, DWORD PTR _wszWndText$[ebp]
  007de	51		 push	 ecx
  007df	ff 15 00 00 00
	00		 call	 DWORD PTR __imp__wcslen
  007e5	83 c4 04	 add	 esp, 4
  007e8	3b f4		 cmp	 esi, esp
  007ea	e8 00 00 00 00	 call	 __RTC_CheckEsp
  007ef	0f af 85 38 fe
	ff ff		 imul	 eax, DWORD PTR _wnd_width$187587[ebp]
  007f6	89 85 fc fc ff
	ff		 mov	 DWORD PTR tv650[ebp], eax
  007fc	c7 85 00 fd ff
	ff 00 00 00 00	 mov	 DWORD PTR tv650[ebp+4], 0
  00806	df ad fc fc ff
	ff		 fild	 QWORD PTR tv650[ebp]
  0080c	da b5 20 fe ff
	ff		 fidiv	 DWORD PTR _text_width$187590[ebp]
  00812	e8 00 00 00 00	 call	 __ftol2
  00817	89 85 18 fe ff
	ff		 mov	 DWORD PTR _line_len$187605[ebp], eax

; 143  : 					if(line_len == 0)

  0081d	83 bd 18 fe ff
	ff 00		 cmp	 DWORD PTR _line_len$187605[ebp], 0
  00824	75 02		 jne	 SHORT $L187608

; 144  : 						continue;

  00826	eb 91		 jmp	 SHORT $L187603
$L187608:

; 145  : 					wstring strOutput;

  00828	8b f4		 mov	 esi, esp
  0082a	8d 8d f8 fd ff
	ff		 lea	 ecx, DWORD PTR _strOutput$187609[ebp]
  00830	ff 15 00 00 00
	00		 call	 DWORD PTR __imp_??0?$basic_string@_WU?$char_traits@_W@std@@V?$allocator@_W@2@@std@@QAE@XZ
  00836	3b f4		 cmp	 esi, esp
  00838	e8 00 00 00 00	 call	 __RTC_CheckEsp
  0083d	c6 45 fc 07	 mov	 BYTE PTR __$EHRec$[ebp+8], 7

; 146  : 					int i = 0;

  00841	c7 85 f0 fd ff
	ff 00 00 00 00	 mov	 DWORD PTR _i$187610[ebp], 0

; 147  : 					if(line_len < strline.size())

  0084b	8b f4		 mov	 esi, esp
  0084d	8d 8d 48 fe ff
	ff		 lea	 ecx, DWORD PTR _strline$187584[ebp]
  00853	ff 15 00 00 00
	00		 call	 DWORD PTR __imp_?size@?$basic_string@_WU?$char_traits@_W@std@@V?$allocator@_W@2@@std@@QBEIXZ
  00859	3b f4		 cmp	 esi, esp
  0085b	e8 00 00 00 00	 call	 __RTC_CheckEsp
  00860	39 85 18 fe ff
	ff		 cmp	 DWORD PTR _line_len$187605[ebp], eax
  00866	73 72		 jae	 SHORT $L187611

; 148  : 					{
; 149  : 						strOutput = strline.substr(0, line_len);

  00868	8b f4		 mov	 esi, esp
  0086a	8b 95 18 fe ff
	ff		 mov	 edx, DWORD PTR _line_len$187605[ebp]
  00870	52		 push	 edx
  00871	6a 00		 push	 0
  00873	8d 85 88 fd ff
	ff		 lea	 eax, DWORD PTR $T189106[ebp]
  00879	50		 push	 eax
  0087a	8d 8d 48 fe ff
	ff		 lea	 ecx, DWORD PTR _strline$187584[ebp]
  00880	ff 15 00 00 00
	00		 call	 DWORD PTR __imp_?substr@?$basic_string@_WU?$char_traits@_W@std@@V?$allocator@_W@2@@std@@QBE?AV12@II@Z
  00886	3b f4		 cmp	 esi, esp
  00888	e8 00 00 00 00	 call	 __RTC_CheckEsp
  0088d	89 85 f8 fc ff
	ff		 mov	 DWORD PTR tv500[ebp], eax
  00893	8b 8d f8 fc ff
	ff		 mov	 ecx, DWORD PTR tv500[ebp]
  00899	89 8d f4 fc ff
	ff		 mov	 DWORD PTR tv487[ebp], ecx
  0089f	c6 45 fc 08	 mov	 BYTE PTR __$EHRec$[ebp+8], 8
  008a3	8b f4		 mov	 esi, esp
  008a5	8b 95 f4 fc ff
	ff		 mov	 edx, DWORD PTR tv487[ebp]
  008ab	52		 push	 edx
  008ac	8d 8d f8 fd ff
	ff		 lea	 ecx, DWORD PTR _strOutput$187609[ebp]
  008b2	ff 15 00 00 00
	00		 call	 DWORD PTR __imp_??4?$basic_string@_WU?$char_traits@_W@std@@V?$allocator@_W@2@@std@@QAEAAV01@ABV01@@Z
  008b8	3b f4		 cmp	 esi, esp
  008ba	e8 00 00 00 00	 call	 __RTC_CheckEsp
  008bf	c6 45 fc 07	 mov	 BYTE PTR __$EHRec$[ebp+8], 7
  008c3	8b f4		 mov	 esi, esp
  008c5	8d 8d 88 fd ff
	ff		 lea	 ecx, DWORD PTR $T189106[ebp]
  008cb	ff 15 00 00 00
	00		 call	 DWORD PTR __imp_??1?$basic_string@_WU?$char_traits@_W@std@@V?$allocator@_W@2@@std@@QAE@XZ
  008d1	3b f4		 cmp	 esi, esp
  008d3	e8 00 00 00 00	 call	 __RTC_CheckEsp

; 150  : 					}
; 151  : 					else

  008d8	eb 37		 jmp	 SHORT $L187613
$L187611:

; 152  : 					{
; 153  : 						strOutput = strline;

  008da	8b f4		 mov	 esi, esp
  008dc	8d 85 48 fe ff
	ff		 lea	 eax, DWORD PTR _strline$187584[ebp]
  008e2	50		 push	 eax
  008e3	8d 8d f8 fd ff
	ff		 lea	 ecx, DWORD PTR _strOutput$187609[ebp]
  008e9	ff 15 00 00 00
	00		 call	 DWORD PTR __imp_??4?$basic_string@_WU?$char_traits@_W@std@@V?$allocator@_W@2@@std@@QAEAAV01@ABV01@@Z
  008ef	3b f4		 cmp	 esi, esp
  008f1	e8 00 00 00 00	 call	 __RTC_CheckEsp

; 154  : 						line_len = strline.size();

  008f6	8b f4		 mov	 esi, esp
  008f8	8d 8d 48 fe ff
	ff		 lea	 ecx, DWORD PTR _strline$187584[ebp]
  008fe	ff 15 00 00 00
	00		 call	 DWORD PTR __imp_?size@?$basic_string@_WU?$char_traits@_W@std@@V?$allocator@_W@2@@std@@QBEIXZ
  00904	3b f4		 cmp	 esi, esp
  00906	e8 00 00 00 00	 call	 __RTC_CheckEsp
  0090b	89 85 18 fe ff
	ff		 mov	 DWORD PTR _line_len$187605[ebp], eax
$L187613:

; 155  : 					}
; 156  : 						::GetTextExtentPointW(dc.m_hDC, strOutput.c_str(), strOutput.size(), &size);

  00911	8b f4		 mov	 esi, esp
  00913	8d 8d 28 fe ff
	ff		 lea	 ecx, DWORD PTR _size$187589[ebp]
  00919	51		 push	 ecx
  0091a	8b fc		 mov	 edi, esp
  0091c	8d 8d f8 fd ff
	ff		 lea	 ecx, DWORD PTR _strOutput$187609[ebp]
  00922	ff 15 00 00 00
	00		 call	 DWORD PTR __imp_?size@?$basic_string@_WU?$char_traits@_W@std@@V?$allocator@_W@2@@std@@QBEIXZ
  00928	3b fc		 cmp	 edi, esp
  0092a	e8 00 00 00 00	 call	 __RTC_CheckEsp
  0092f	50		 push	 eax
  00930	8b fc		 mov	 edi, esp
  00932	8d 8d f8 fd ff
	ff		 lea	 ecx, DWORD PTR _strOutput$187609[ebp]
  00938	ff 15 00 00 00
	00		 call	 DWORD PTR __imp_?c_str@?$basic_string@_WU?$char_traits@_W@std@@V?$allocator@_W@2@@std@@QBEPB_WXZ
  0093e	3b fc		 cmp	 edi, esp
  00940	e8 00 00 00 00	 call	 __RTC_CheckEsp
  00945	50		 push	 eax
  00946	8b 55 98	 mov	 edx, DWORD PTR _dc$[ebp+4]
  00949	52		 push	 edx
  0094a	ff 15 00 00 00
	00		 call	 DWORD PTR __imp__GetTextExtentPointW@16
  00950	3b f4		 cmp	 esi, esp
  00952	e8 00 00 00 00	 call	 __RTC_CheckEsp

; 157  : 						if(size.cx > wnd_width)

  00957	8b 85 28 fe ff
	ff		 mov	 eax, DWORD PTR _size$187589[ebp]
  0095d	3b 85 38 fe ff
	ff		 cmp	 eax, DWORD PTR _wnd_width$187587[ebp]
  00963	0f 8e fd 00 00
	00		 jle	 $L187614

; 158  : 						{
; 159  : 							line_len --;

  00969	8b 8d 18 fe ff
	ff		 mov	 ecx, DWORD PTR _line_len$187605[ebp]
  0096f	83 e9 01	 sub	 ecx, 1
  00972	89 8d 18 fe ff
	ff		 mov	 DWORD PTR _line_len$187605[ebp], ecx
$L187616:

; 160  : 							while(line_len > 0)

  00978	83 bd 18 fe ff
	ff 00		 cmp	 DWORD PTR _line_len$187605[ebp], 0
  0097f	0f 8e dc 00 00
	00		 jle	 $L187617

; 161  : 							{
; 162  : 								strOutput = strline.substr(0, line_len);

  00985	8b f4		 mov	 esi, esp
  00987	8b 95 18 fe ff
	ff		 mov	 edx, DWORD PTR _line_len$187605[ebp]
  0098d	52		 push	 edx
  0098e	6a 00		 push	 0
  00990	8d 85 6c fd ff
	ff		 lea	 eax, DWORD PTR $T189107[ebp]
  00996	50		 push	 eax
  00997	8d 8d 48 fe ff
	ff		 lea	 ecx, DWORD PTR _strline$187584[ebp]
  0099d	ff 15 00 00 00
	00		 call	 DWORD PTR __imp_?substr@?$basic_string@_WU?$char_traits@_W@std@@V?$allocator@_W@2@@std@@QBE?AV12@II@Z
  009a3	3b f4		 cmp	 esi, esp
  009a5	e8 00 00 00 00	 call	 __RTC_CheckEsp
  009aa	89 85 f0 fc ff
	ff		 mov	 DWORD PTR tv503[ebp], eax
  009b0	8b 8d f0 fc ff
	ff		 mov	 ecx, DWORD PTR tv503[ebp]
  009b6	89 8d ec fc ff
	ff		 mov	 DWORD PTR tv489[ebp], ecx
  009bc	c6 45 fc 09	 mov	 BYTE PTR __$EHRec$[ebp+8], 9
  009c0	8b f4		 mov	 esi, esp
  009c2	8b 95 ec fc ff
	ff		 mov	 edx, DWORD PTR tv489[ebp]
  009c8	52		 push	 edx
  009c9	8d 8d f8 fd ff
	ff		 lea	 ecx, DWORD PTR _strOutput$187609[ebp]
  009cf	ff 15 00 00 00
	00		 call	 DWORD PTR __imp_??4?$basic_string@_WU?$char_traits@_W@std@@V?$allocator@_W@2@@std@@QAEAAV01@ABV01@@Z
  009d5	3b f4		 cmp	 esi, esp
  009d7	e8 00 00 00 00	 call	 __RTC_CheckEsp
  009dc	c6 45 fc 07	 mov	 BYTE PTR __$EHRec$[ebp+8], 7
  009e0	8b f4		 mov	 esi, esp
  009e2	8d 8d 6c fd ff
	ff		 lea	 ecx, DWORD PTR $T189107[ebp]
  009e8	ff 15 00 00 00
	00		 call	 DWORD PTR __imp_??1?$basic_string@_WU?$char_traits@_W@std@@V?$allocator@_W@2@@std@@QAE@XZ
  009ee	3b f4		 cmp	 esi, esp
  009f0	e8 00 00 00 00	 call	 __RTC_CheckEsp

; 163  : 								::GetTextExtentPointW(dc.m_hDC, strOutput.c_str(), strOutput.size(), &size);

  009f5	8b f4		 mov	 esi, esp
  009f7	8d 85 28 fe ff
	ff		 lea	 eax, DWORD PTR _size$187589[ebp]
  009fd	50		 push	 eax
  009fe	8b fc		 mov	 edi, esp
  00a00	8d 8d f8 fd ff
	ff		 lea	 ecx, DWORD PTR _strOutput$187609[ebp]
  00a06	ff 15 00 00 00
	00		 call	 DWORD PTR __imp_?size@?$basic_string@_WU?$char_traits@_W@std@@V?$allocator@_W@2@@std@@QBEIXZ
  00a0c	3b fc		 cmp	 edi, esp
  00a0e	e8 00 00 00 00	 call	 __RTC_CheckEsp
  00a13	50		 push	 eax
  00a14	8b fc		 mov	 edi, esp
  00a16	8d 8d f8 fd ff
	ff		 lea	 ecx, DWORD PTR _strOutput$187609[ebp]
  00a1c	ff 15 00 00 00
	00		 call	 DWORD PTR __imp_?c_str@?$basic_string@_WU?$char_traits@_W@std@@V?$allocator@_W@2@@std@@QBEPB_WXZ
  00a22	3b fc		 cmp	 edi, esp
  00a24	e8 00 00 00 00	 call	 __RTC_CheckEsp
  00a29	50		 push	 eax
  00a2a	8b 4d 98	 mov	 ecx, DWORD PTR _dc$[ebp+4]
  00a2d	51		 push	 ecx
  00a2e	ff 15 00 00 00
	00		 call	 DWORD PTR __imp__GetTextExtentPointW@16
  00a34	3b f4		 cmp	 esi, esp
  00a36	e8 00 00 00 00	 call	 __RTC_CheckEsp

; 164  : 								if(size.cx > wnd_width)

  00a3b	8b 95 28 fe ff
	ff		 mov	 edx, DWORD PTR _size$187589[ebp]
  00a41	3b 95 38 fe ff
	ff		 cmp	 edx, DWORD PTR _wnd_width$187587[ebp]
  00a47	7e 11		 jle	 SHORT $L187619

; 165  : 									line_len --;

  00a49	8b 85 18 fe ff
	ff		 mov	 eax, DWORD PTR _line_len$187605[ebp]
  00a4f	83 e8 01	 sub	 eax, 1
  00a52	89 85 18 fe ff
	ff		 mov	 DWORD PTR _line_len$187605[ebp], eax

; 166  : 								else

  00a58	eb 02		 jmp	 SHORT $L187620
$L187619:

; 167  : 									break;

  00a5a	eb 05		 jmp	 SHORT $L187617
$L187620:

; 168  : 							}

  00a5c	e9 17 ff ff ff	 jmp	 $L187616
$L187617:

; 169  : 						}
; 170  : 						else if(size.cx < wnd_width)

  00a61	e9 2d 01 00 00	 jmp	 $L187621
$L187614:
  00a66	8b 8d 28 fe ff
	ff		 mov	 ecx, DWORD PTR _size$187589[ebp]
  00a6c	3b 8d 38 fe ff
	ff		 cmp	 ecx, DWORD PTR _wnd_width$187587[ebp]
  00a72	0f 8d 1b 01 00
	00		 jge	 $L187621

; 171  : 						{
; 172  : 							line_len ++;

  00a78	8b 95 18 fe ff
	ff		 mov	 edx, DWORD PTR _line_len$187605[ebp]
  00a7e	83 c2 01	 add	 edx, 1
  00a81	89 95 18 fe ff
	ff		 mov	 DWORD PTR _line_len$187605[ebp], edx
$L187624:

; 173  : 							while(line_len <= strline.size()) 

  00a87	8b f4		 mov	 esi, esp
  00a89	8d 8d 48 fe ff
	ff		 lea	 ecx, DWORD PTR _strline$187584[ebp]
  00a8f	ff 15 00 00 00
	00		 call	 DWORD PTR __imp_?size@?$basic_string@_WU?$char_traits@_W@std@@V?$allocator@_W@2@@std@@QBEIXZ
  00a95	3b f4		 cmp	 esi, esp
  00a97	e8 00 00 00 00	 call	 __RTC_CheckEsp
  00a9c	39 85 18 fe ff
	ff		 cmp	 DWORD PTR _line_len$187605[ebp], eax
  00aa2	0f 87 dc 00 00
	00		 ja	 $L187625

; 174  : 							{
; 175  : 								strOutput = strline.substr(0, line_len);

  00aa8	8b f4		 mov	 esi, esp
  00aaa	8b 85 18 fe ff
	ff		 mov	 eax, DWORD PTR _line_len$187605[ebp]
  00ab0	50		 push	 eax
  00ab1	6a 00		 push	 0
  00ab3	8d 8d 50 fd ff
	ff		 lea	 ecx, DWORD PTR $T189108[ebp]
  00ab9	51		 push	 ecx
  00aba	8d 8d 48 fe ff
	ff		 lea	 ecx, DWORD PTR _strline$187584[ebp]
  00ac0	ff 15 00 00 00
	00		 call	 DWORD PTR __imp_?substr@?$basic_string@_WU?$char_traits@_W@std@@V?$allocator@_W@2@@std@@QBE?AV12@II@Z
  00ac6	3b f4		 cmp	 esi, esp
  00ac8	e8 00 00 00 00	 call	 __RTC_CheckEsp
  00acd	89 85 e8 fc ff
	ff		 mov	 DWORD PTR tv506[ebp], eax
  00ad3	8b 95 e8 fc ff
	ff		 mov	 edx, DWORD PTR tv506[ebp]
  00ad9	89 95 e4 fc ff
	ff		 mov	 DWORD PTR tv491[ebp], edx
  00adf	c6 45 fc 0a	 mov	 BYTE PTR __$EHRec$[ebp+8], 10 ; 0000000aH
  00ae3	8b f4		 mov	 esi, esp
  00ae5	8b 85 e4 fc ff
	ff		 mov	 eax, DWORD PTR tv491[ebp]
  00aeb	50		 push	 eax
  00aec	8d 8d f8 fd ff
	ff		 lea	 ecx, DWORD PTR _strOutput$187609[ebp]
  00af2	ff 15 00 00 00
	00		 call	 DWORD PTR __imp_??4?$basic_string@_WU?$char_traits@_W@std@@V?$allocator@_W@2@@std@@QAEAAV01@ABV01@@Z
  00af8	3b f4		 cmp	 esi, esp
  00afa	e8 00 00 00 00	 call	 __RTC_CheckEsp
  00aff	c6 45 fc 07	 mov	 BYTE PTR __$EHRec$[ebp+8], 7
  00b03	8b f4		 mov	 esi, esp
  00b05	8d 8d 50 fd ff
	ff		 lea	 ecx, DWORD PTR $T189108[ebp]
  00b0b	ff 15 00 00 00
	00		 call	 DWORD PTR __imp_??1?$basic_string@_WU?$char_traits@_W@std@@V?$allocator@_W@2@@std@@QAE@XZ
  00b11	3b f4		 cmp	 esi, esp
  00b13	e8 00 00 00 00	 call	 __RTC_CheckEsp

; 176  : 								::GetTextExtentPointW(dc.m_hDC, strOutput.c_str(), strOutput.size(), &size);								

  00b18	8b f4		 mov	 esi, esp
  00b1a	8d 8d 28 fe ff
	ff		 lea	 ecx, DWORD PTR _size$187589[ebp]
  00b20	51		 push	 ecx
  00b21	8b fc		 mov	 edi, esp
  00b23	8d 8d f8 fd ff
	ff		 lea	 ecx, DWORD PTR _strOutput$187609[ebp]
  00b29	ff 15 00 00 00
	00		 call	 DWORD PTR __imp_?size@?$basic_string@_WU?$char_traits@_W@std@@V?$allocator@_W@2@@std@@QBEIXZ
  00b2f	3b fc		 cmp	 edi, esp
  00b31	e8 00 00 00 00	 call	 __RTC_CheckEsp
  00b36	50		 push	 eax
  00b37	8b fc		 mov	 edi, esp
  00b39	8d 8d f8 fd ff
	ff		 lea	 ecx, DWORD PTR _strOutput$187609[ebp]
  00b3f	ff 15 00 00 00
	00		 call	 DWORD PTR __imp_?c_str@?$basic_string@_WU?$char_traits@_W@std@@V?$allocator@_W@2@@std@@QBEPB_WXZ
  00b45	3b fc		 cmp	 edi, esp
  00b47	e8 00 00 00 00	 call	 __RTC_CheckEsp
  00b4c	50		 push	 eax
  00b4d	8b 55 98	 mov	 edx, DWORD PTR _dc$[ebp+4]
  00b50	52		 push	 edx
  00b51	ff 15 00 00 00
	00		 call	 DWORD PTR __imp__GetTextExtentPointW@16
  00b57	3b f4		 cmp	 esi, esp
  00b59	e8 00 00 00 00	 call	 __RTC_CheckEsp

; 177  : 								if(size.cx < wnd_width)

  00b5e	8b 85 28 fe ff
	ff		 mov	 eax, DWORD PTR _size$187589[ebp]
  00b64	3b 85 38 fe ff
	ff		 cmp	 eax, DWORD PTR _wnd_width$187587[ebp]
  00b6a	7d 11		 jge	 SHORT $L187627

; 178  : 									line_len ++;

  00b6c	8b 8d 18 fe ff
	ff		 mov	 ecx, DWORD PTR _line_len$187605[ebp]
  00b72	83 c1 01	 add	 ecx, 1
  00b75	89 8d 18 fe ff
	ff		 mov	 DWORD PTR _line_len$187605[ebp], ecx

; 179  : 								else

  00b7b	eb 02		 jmp	 SHORT $L187628
$L187627:

; 180  : 									break;

  00b7d	eb 05		 jmp	 SHORT $L187625
$L187628:

; 181  : 							}

  00b7f	e9 03 ff ff ff	 jmp	 $L187624
$L187625:

; 182  : 							line_len --;

  00b84	8b 95 18 fe ff
	ff		 mov	 edx, DWORD PTR _line_len$187605[ebp]
  00b8a	83 ea 01	 sub	 edx, 1
  00b8d	89 95 18 fe ff
	ff		 mov	 DWORD PTR _line_len$187605[ebp], edx
$L187621:

; 183  : 						}
; 184  : 						//
; 185  : 						int temp = line_len;

  00b93	8b 85 18 fe ff
	ff		 mov	 eax, DWORD PTR _line_len$187605[ebp]
  00b99	89 85 ec fd ff
	ff		 mov	 DWORD PTR _temp$187629[ebp], eax
$L187631:

; 186  : 						while(line_len < strline.size() && line_len >= 0 && wszPunctuation.find(strline[line_len]) != wstring::npos)

  00b9f	8b f4		 mov	 esi, esp
  00ba1	8d 8d 48 fe ff
	ff		 lea	 ecx, DWORD PTR _strline$187584[ebp]
  00ba7	ff 15 00 00 00
	00		 call	 DWORD PTR __imp_?size@?$basic_string@_WU?$char_traits@_W@std@@V?$allocator@_W@2@@std@@QBEIXZ
  00bad	3b f4		 cmp	 esi, esp
  00baf	e8 00 00 00 00	 call	 __RTC_CheckEsp
  00bb4	39 85 18 fe ff
	ff		 cmp	 DWORD PTR _line_len$187605[ebp], eax
  00bba	73 5b		 jae	 SHORT $L187632
  00bbc	83 bd 18 fe ff
	ff 00		 cmp	 DWORD PTR _line_len$187605[ebp], 0
  00bc3	7c 52		 jl	 SHORT $L187632
  00bc5	8b f4		 mov	 esi, esp
  00bc7	6a 00		 push	 0
  00bc9	8b fc		 mov	 edi, esp
  00bcb	8b 8d 18 fe ff
	ff		 mov	 ecx, DWORD PTR _line_len$187605[ebp]
  00bd1	51		 push	 ecx
  00bd2	8d 8d 48 fe ff
	ff		 lea	 ecx, DWORD PTR _strline$187584[ebp]
  00bd8	ff 15 00 00 00
	00		 call	 DWORD PTR __imp_??A?$basic_string@_WU?$char_traits@_W@std@@V?$allocator@_W@2@@std@@QAEAA_WI@Z
  00bde	3b fc		 cmp	 edi, esp
  00be0	e8 00 00 00 00	 call	 __RTC_CheckEsp
  00be5	66 8b 10	 mov	 dx, WORD PTR [eax]
  00be8	52		 push	 edx
  00be9	8d 8d f8 fe ff
	ff		 lea	 ecx, DWORD PTR _wszPunctuation$[ebp]
  00bef	ff 15 00 00 00
	00		 call	 DWORD PTR __imp_?find@?$basic_string@_WU?$char_traits@_W@std@@V?$allocator@_W@2@@std@@QBEI_WI@Z
  00bf5	3b f4		 cmp	 esi, esp
  00bf7	e8 00 00 00 00	 call	 __RTC_CheckEsp
  00bfc	8b 0d 00 00 00
	00		 mov	 ecx, DWORD PTR __imp_?npos@?$basic_string@_WU?$char_traits@_W@std@@V?$allocator@_W@2@@std@@2IB
  00c02	3b 01		 cmp	 eax, DWORD PTR [ecx]
  00c04	74 11		 je	 SHORT $L187632

; 187  : 							line_len --;

  00c06	8b 95 18 fe ff
	ff		 mov	 edx, DWORD PTR _line_len$187605[ebp]
  00c0c	83 ea 01	 sub	 edx, 1
  00c0f	89 95 18 fe ff
	ff		 mov	 DWORD PTR _line_len$187605[ebp], edx
  00c15	eb 88		 jmp	 SHORT $L187631
$L187632:

; 188  : 						if(line_len == 0)

  00c17	83 bd 18 fe ff
	ff 00		 cmp	 DWORD PTR _line_len$187605[ebp], 0
  00c1e	75 0c		 jne	 SHORT $L187633

; 189  : 							line_len = temp;

  00c20	8b 85 ec fd ff
	ff		 mov	 eax, DWORD PTR _temp$187629[ebp]
  00c26	89 85 18 fe ff
	ff		 mov	 DWORD PTR _line_len$187605[ebp], eax
$L187633:

; 190  : 						strOutput = strline.substr(0, line_len);

  00c2c	8b f4		 mov	 esi, esp
  00c2e	8b 8d 18 fe ff
	ff		 mov	 ecx, DWORD PTR _line_len$187605[ebp]
  00c34	51		 push	 ecx
  00c35	6a 00		 push	 0
  00c37	8d 95 34 fd ff
	ff		 lea	 edx, DWORD PTR $T189109[ebp]
  00c3d	52		 push	 edx
  00c3e	8d 8d 48 fe ff
	ff		 lea	 ecx, DWORD PTR _strline$187584[ebp]
  00c44	ff 15 00 00 00
	00		 call	 DWORD PTR __imp_?substr@?$basic_string@_WU?$char_traits@_W@std@@V?$allocator@_W@2@@std@@QBE?AV12@II@Z
  00c4a	3b f4		 cmp	 esi, esp
  00c4c	e8 00 00 00 00	 call	 __RTC_CheckEsp
  00c51	89 85 e0 fc ff
	ff		 mov	 DWORD PTR tv509[ebp], eax
  00c57	8b 85 e0 fc ff
	ff		 mov	 eax, DWORD PTR tv509[ebp]
  00c5d	89 85 dc fc ff
	ff		 mov	 DWORD PTR tv493[ebp], eax
  00c63	c6 45 fc 0b	 mov	 BYTE PTR __$EHRec$[ebp+8], 11 ; 0000000bH
  00c67	8b f4		 mov	 esi, esp
  00c69	8b 8d dc fc ff
	ff		 mov	 ecx, DWORD PTR tv493[ebp]
  00c6f	51		 push	 ecx
  00c70	8d 8d f8 fd ff
	ff		 lea	 ecx, DWORD PTR _strOutput$187609[ebp]
  00c76	ff 15 00 00 00
	00		 call	 DWORD PTR __imp_??4?$basic_string@_WU?$char_traits@_W@std@@V?$allocator@_W@2@@std@@QAEAAV01@ABV01@@Z
  00c7c	3b f4		 cmp	 esi, esp
  00c7e	e8 00 00 00 00	 call	 __RTC_CheckEsp
  00c83	c6 45 fc 07	 mov	 BYTE PTR __$EHRec$[ebp+8], 7
  00c87	8b f4		 mov	 esi, esp
  00c89	8d 8d 34 fd ff
	ff		 lea	 ecx, DWORD PTR $T189109[ebp]
  00c8f	ff 15 00 00 00
	00		 call	 DWORD PTR __imp_??1?$basic_string@_WU?$char_traits@_W@std@@V?$allocator@_W@2@@std@@QAE@XZ
  00c95	3b f4		 cmp	 esi, esp
  00c97	e8 00 00 00 00	 call	 __RTC_CheckEsp

; 191  : 						strline = strline.substr(line_len);

  00c9c	8b f4		 mov	 esi, esp
  00c9e	8b 15 00 00 00
	00		 mov	 edx, DWORD PTR __imp_?npos@?$basic_string@_WU?$char_traits@_W@std@@V?$allocator@_W@2@@std@@2IB
  00ca4	8b 02		 mov	 eax, DWORD PTR [edx]
  00ca6	50		 push	 eax
  00ca7	8b 8d 18 fe ff
	ff		 mov	 ecx, DWORD PTR _line_len$187605[ebp]
  00cad	51		 push	 ecx
  00cae	8d 95 18 fd ff
	ff		 lea	 edx, DWORD PTR $T189110[ebp]
  00cb4	52		 push	 edx
  00cb5	8d 8d 48 fe ff
	ff		 lea	 ecx, DWORD PTR _strline$187584[ebp]
  00cbb	ff 15 00 00 00
	00		 call	 DWORD PTR __imp_?substr@?$basic_string@_WU?$char_traits@_W@std@@V?$allocator@_W@2@@std@@QBE?AV12@II@Z
  00cc1	3b f4		 cmp	 esi, esp
  00cc3	e8 00 00 00 00	 call	 __RTC_CheckEsp
  00cc8	89 85 d8 fc ff
	ff		 mov	 DWORD PTR tv512[ebp], eax
  00cce	8b 85 d8 fc ff
	ff		 mov	 eax, DWORD PTR tv512[ebp]
  00cd4	89 85 d4 fc ff
	ff		 mov	 DWORD PTR tv495[ebp], eax
  00cda	c6 45 fc 0c	 mov	 BYTE PTR __$EHRec$[ebp+8], 12 ; 0000000cH
  00cde	8b f4		 mov	 esi, esp
  00ce0	8b 8d d4 fc ff
	ff		 mov	 ecx, DWORD PTR tv495[ebp]
  00ce6	51		 push	 ecx
  00ce7	8d 8d 48 fe ff
	ff		 lea	 ecx, DWORD PTR _strline$187584[ebp]
  00ced	ff 15 00 00 00
	00		 call	 DWORD PTR __imp_??4?$basic_string@_WU?$char_traits@_W@std@@V?$allocator@_W@2@@std@@QAEAAV01@ABV01@@Z
  00cf3	3b f4		 cmp	 esi, esp
  00cf5	e8 00 00 00 00	 call	 __RTC_CheckEsp
  00cfa	c6 45 fc 07	 mov	 BYTE PTR __$EHRec$[ebp+8], 7
  00cfe	8b f4		 mov	 esi, esp
  00d00	8d 8d 18 fd ff
	ff		 lea	 ecx, DWORD PTR $T189110[ebp]
  00d06	ff 15 00 00 00
	00		 call	 DWORD PTR __imp_??1?$basic_string@_WU?$char_traits@_W@std@@V?$allocator@_W@2@@std@@QAE@XZ
  00d0c	3b f4		 cmp	 esi, esp
  00d0e	e8 00 00 00 00	 call	 __RTC_CheckEsp

; 192  : 						//...
; 193  : 						if(out_line == line_num - 1 && !strline.empty())

  00d13	8b 95 1c fe ff
	ff		 mov	 edx, DWORD PTR _line_num$187591[ebp]
  00d19	83 ea 01	 sub	 edx, 1
  00d1c	39 95 40 fe ff
	ff		 cmp	 DWORD PTR _out_line$187585[ebp], edx
  00d22	0f 85 84 00 00
	00		 jne	 $L187636
  00d28	8b f4		 mov	 esi, esp
  00d2a	8d 8d 48 fe ff
	ff		 lea	 ecx, DWORD PTR _strline$187584[ebp]
  00d30	ff 15 00 00 00
	00		 call	 DWORD PTR __imp_?empty@?$basic_string@_WU?$char_traits@_W@std@@V?$allocator@_W@2@@std@@QBE_NXZ
  00d36	3b f4		 cmp	 esi, esp
  00d38	e8 00 00 00 00	 call	 __RTC_CheckEsp
  00d3d	0f b6 c0	 movzx	 eax, al
  00d40	85 c0		 test	 eax, eax
  00d42	75 68		 jne	 SHORT $L187636

; 194  : 						{
; 195  : 							strOutput.replace(strOutput.end() - 2, strOutput.end(), L"...");

  00d44	8b f4		 mov	 esi, esp
  00d46	68 00 00 00 00	 push	 OFFSET FLAT:$SG187640
  00d4b	8b fc		 mov	 edi, esp
  00d4d	8d 8d 14 fd ff
	ff		 lea	 ecx, DWORD PTR $T189111[ebp]
  00d53	51		 push	 ecx
  00d54	8d 8d f8 fd ff
	ff		 lea	 ecx, DWORD PTR _strOutput$187609[ebp]
  00d5a	ff 15 00 00 00
	00		 call	 DWORD PTR __imp_?end@?$basic_string@_WU?$char_traits@_W@std@@V?$allocator@_W@2@@std@@QAE?AViterator@12@XZ
  00d60	3b fc		 cmp	 edi, esp
  00d62	e8 00 00 00 00	 call	 __RTC_CheckEsp
  00d67	8b 10		 mov	 edx, DWORD PTR [eax]
  00d69	52		 push	 edx
  00d6a	6a 02		 push	 2
  00d6c	8d 85 0c fd ff
	ff		 lea	 eax, DWORD PTR $T189113[ebp]
  00d72	50		 push	 eax
  00d73	8b fc		 mov	 edi, esp
  00d75	8d 8d 10 fd ff
	ff		 lea	 ecx, DWORD PTR $T189112[ebp]
  00d7b	51		 push	 ecx
  00d7c	8d 8d f8 fd ff
	ff		 lea	 ecx, DWORD PTR _strOutput$187609[ebp]
  00d82	ff 15 00 00 00
	00		 call	 DWORD PTR __imp_?end@?$basic_string@_WU?$char_traits@_W@std@@V?$allocator@_W@2@@std@@QAE?AViterator@12@XZ
  00d88	3b fc		 cmp	 edi, esp
  00d8a	e8 00 00 00 00	 call	 __RTC_CheckEsp
  00d8f	8b c8		 mov	 ecx, eax
  00d91	e8 00 00 00 00	 call	 ??Giterator@?$basic_string@_WU?$char_traits@_W@std@@V?$allocator@_W@2@@std@@QBE?AV012@H@Z ; std::basic_string<wchar_t,std::char_traits<wchar_t>,std::allocator<wchar_t> >::iterator::operator-
  00d96	8b 10		 mov	 edx, DWORD PTR [eax]
  00d98	52		 push	 edx
  00d99	8d 8d f8 fd ff
	ff		 lea	 ecx, DWORD PTR _strOutput$187609[ebp]
  00d9f	ff 15 00 00 00
	00		 call	 DWORD PTR __imp_?replace@?$basic_string@_WU?$char_traits@_W@std@@V?$allocator@_W@2@@std@@QAEAAV12@Viterator@12@0PB_W@Z
  00da5	3b f4		 cmp	 esi, esp
  00da7	e8 00 00 00 00	 call	 __RTC_CheckEsp
$L187636:

; 196  : 						}
; 197  : //					}
; 198  : 					//else
; 199  : 					//{
; 200  : 					//	strOutput = strline;
; 201  : 					//	strline = L"";
; 202  : 					//}
; 203  : 					RECT output_rect = {rect.left, rect.top + (size.cy + line_spacing) * out_line, rect.right,

  00dac	8b 85 7c ff ff
	ff		 mov	 eax, DWORD PTR _rect$[ebp]
  00db2	89 85 d8 fd ff
	ff		 mov	 DWORD PTR _output_rect$187641[ebp], eax
  00db8	8b 8d 2c fe ff
	ff		 mov	 ecx, DWORD PTR _size$187589[ebp+4]
  00dbe	03 8d 3c fe ff
	ff		 add	 ecx, DWORD PTR _line_spacing$187586[ebp]
  00dc4	0f af 8d 40 fe
	ff ff		 imul	 ecx, DWORD PTR _out_line$187585[ebp]
  00dcb	03 4d 80	 add	 ecx, DWORD PTR _rect$[ebp+4]
  00dce	89 8d dc fd ff
	ff		 mov	 DWORD PTR _output_rect$187641[ebp+4], ecx
  00dd4	8b 55 84	 mov	 edx, DWORD PTR _rect$[ebp+8]
  00dd7	89 95 e0 fd ff
	ff		 mov	 DWORD PTR _output_rect$187641[ebp+8], edx

; 204  : 						rect.top + (size.cy + line_spacing) * (out_line + 1)};

  00ddd	8b 85 2c fe ff
	ff		 mov	 eax, DWORD PTR _size$187589[ebp+4]
  00de3	03 85 3c fe ff
	ff		 add	 eax, DWORD PTR _line_spacing$187586[ebp]
  00de9	8b 8d 40 fe ff
	ff		 mov	 ecx, DWORD PTR _out_line$187585[ebp]
  00def	83 c1 01	 add	 ecx, 1
  00df2	0f af c1	 imul	 eax, ecx
  00df5	03 45 80	 add	 eax, DWORD PTR _rect$[ebp+4]
  00df8	89 85 e4 fd ff
	ff		 mov	 DWORD PTR _output_rect$187641[ebp+12], eax

; 205  : 					::DrawTextW(
; 206  : 						dc.m_hDC,
; 207  : 						strOutput.c_str(),
; 208  : 						strOutput.size(),
; 209  : 						&output_rect,
; 210  : 						DT_WORDBREAK|DT_END_ELLIPSIS|DT_EDITCONTROL|DT_EXTERNALLEADING|DT_NOPREFIX
; 211  : 						);

  00dfe	8b f4		 mov	 esi, esp
  00e00	68 10 aa 00 00	 push	 43536			; 0000aa10H
  00e05	8d 95 d8 fd ff
	ff		 lea	 edx, DWORD PTR _output_rect$187641[ebp]
  00e0b	52		 push	 edx
  00e0c	8b fc		 mov	 edi, esp
  00e0e	8d 8d f8 fd ff
	ff		 lea	 ecx, DWORD PTR _strOutput$187609[ebp]
  00e14	ff 15 00 00 00
	00		 call	 DWORD PTR __imp_?size@?$basic_string@_WU?$char_traits@_W@std@@V?$allocator@_W@2@@std@@QBEIXZ
  00e1a	3b fc		 cmp	 edi, esp
  00e1c	e8 00 00 00 00	 call	 __RTC_CheckEsp
  00e21	50		 push	 eax
  00e22	8b fc		 mov	 edi, esp
  00e24	8d 8d f8 fd ff
	ff		 lea	 ecx, DWORD PTR _strOutput$187609[ebp]
  00e2a	ff 15 00 00 00
	00		 call	 DWORD PTR __imp_?c_str@?$basic_string@_WU?$char_traits@_W@std@@V?$allocator@_W@2@@std@@QBEPB_WXZ
  00e30	3b fc		 cmp	 edi, esp
  00e32	e8 00 00 00 00	 call	 __RTC_CheckEsp
  00e37	50		 push	 eax
  00e38	8b 45 98	 mov	 eax, DWORD PTR _dc$[ebp+4]
  00e3b	50		 push	 eax
  00e3c	ff 15 00 00 00
	00		 call	 DWORD PTR __imp__DrawTextW@20
  00e42	3b f4		 cmp	 esi, esp
  00e44	e8 00 00 00 00	 call	 __RTC_CheckEsp

; 212  : 					if(++out_line >= line_num)

  00e49	8b 8d 40 fe ff
	ff		 mov	 ecx, DWORD PTR _out_line$187585[ebp]
  00e4f	83 c1 01	 add	 ecx, 1
  00e52	89 8d 40 fe ff
	ff		 mov	 DWORD PTR _out_line$187585[ebp], ecx
  00e58	8b 95 40 fe ff
	ff		 mov	 edx, DWORD PTR _out_line$187585[ebp]
  00e5e	3b 95 1c fe ff
	ff		 cmp	 edx, DWORD PTR _line_num$187591[ebp]
  00e64	7c 1b		 jl	 SHORT $L187642

; 213  : 						break;

  00e66	c6 45 fc 06	 mov	 BYTE PTR __$EHRec$[ebp+8], 6
  00e6a	8b f4		 mov	 esi, esp
  00e6c	8d 8d f8 fd ff
	ff		 lea	 ecx, DWORD PTR _strOutput$187609[ebp]
  00e72	ff 15 00 00 00
	00		 call	 DWORD PTR __imp_??1?$basic_string@_WU?$char_traits@_W@std@@V?$allocator@_W@2@@std@@QAE@XZ
  00e78	3b f4		 cmp	 esi, esp
  00e7a	e8 00 00 00 00	 call	 __RTC_CheckEsp
  00e7f	eb 1e		 jmp	 SHORT $L187604
$L187642:

; 214  : 				}

  00e81	c6 45 fc 06	 mov	 BYTE PTR __$EHRec$[ebp+8], 6
  00e85	8b f4		 mov	 esi, esp
  00e87	8d 8d f8 fd ff
	ff		 lea	 ecx, DWORD PTR _strOutput$187609[ebp]
  00e8d	ff 15 00 00 00
	00		 call	 DWORD PTR __imp_??1?$basic_string@_WU?$char_traits@_W@std@@V?$allocator@_W@2@@std@@QAE@XZ
  00e93	3b f4		 cmp	 esi, esp
  00e95	e8 00 00 00 00	 call	 __RTC_CheckEsp
  00e9a	e9 1a f9 ff ff	 jmp	 $L187603
$L187604:

; 215  : 			}

  00e9f	e9 02 f8 ff ff	 jmp	 $L187594
$L187595:

; 216  : 		}
; 217  : 		else

  00ea4	eb 40		 jmp	 SHORT $L187643
$L187592:

; 218  : 		{
; 219  : 			::DrawTextW(
; 220  : 				dc.m_hDC,
; 221  : 				wszWndText,
; 222  : 				wcslen(wszWndText),
; 223  : 				&rect,
; 224  : 				DT_WORDBREAK|DT_END_ELLIPSIS|DT_EDITCONTROL|DT_EXTERNALLEADING|DT_NOPREFIX
; 225  : 				);

  00ea6	8b f4		 mov	 esi, esp
  00ea8	68 10 aa 00 00	 push	 43536			; 0000aa10H
  00ead	8d 85 7c ff ff
	ff		 lea	 eax, DWORD PTR _rect$[ebp]
  00eb3	50		 push	 eax
  00eb4	8b fc		 mov	 edi, esp
  00eb6	8b 8d 70 ff ff
	ff		 mov	 ecx, DWORD PTR _wszWndText$[ebp]
  00ebc	51		 push	 ecx
  00ebd	ff 15 00 00 00
	00		 call	 DWORD PTR __imp__wcslen
  00ec3	83 c4 04	 add	 esp, 4
  00ec6	3b fc		 cmp	 edi, esp
  00ec8	e8 00 00 00 00	 call	 __RTC_CheckEsp
  00ecd	50		 push	 eax
  00ece	8b 95 70 ff ff
	ff		 mov	 edx, DWORD PTR _wszWndText$[ebp]
  00ed4	52		 push	 edx
  00ed5	8b 45 98	 mov	 eax, DWORD PTR _dc$[ebp+4]
  00ed8	50		 push	 eax
  00ed9	ff 15 00 00 00
	00		 call	 DWORD PTR __imp__DrawTextW@20
  00edf	3b f4		 cmp	 esi, esp
  00ee1	e8 00 00 00 00	 call	 __RTC_CheckEsp
$L187643:

; 226  : 		}
; 227  : 	}

  00ee6	c6 45 fc 05	 mov	 BYTE PTR __$EHRec$[ebp+8], 5
  00eea	8b f4		 mov	 esi, esp
  00eec	8d 8d 48 fe ff
	ff		 lea	 ecx, DWORD PTR _strline$187584[ebp]
  00ef2	ff 15 00 00 00
	00		 call	 DWORD PTR __imp_??1?$basic_string@_WU?$char_traits@_W@std@@V?$allocator@_W@2@@std@@QAE@XZ
  00ef8	3b f4		 cmp	 esi, esp
  00efa	e8 00 00 00 00	 call	 __RTC_CheckEsp
  00eff	c6 45 fc 02	 mov	 BYTE PTR __$EHRec$[ebp+8], 2
  00f03	8b f4		 mov	 esi, esp
  00f05	8d 8d 6c fe ff
	ff		 lea	 ecx, DWORD PTR _iss$187582[ebp]
  00f0b	ff 15 00 00 00
	00		 call	 DWORD PTR __imp_??_D?$basic_istringstream@_WU?$char_traits@_W@std@@V?$allocator@_W@2@@std@@QAEXXZ
  00f11	3b f4		 cmp	 esi, esp
  00f13	e8 00 00 00 00	 call	 __RTC_CheckEsp
$L187581:

; 228  : 
; 229  : 	//dc.SetTextColor(ltempColor);
; 230  : 	delete[] wszWndText;

  00f18	8b 8d 70 ff ff
	ff		 mov	 ecx, DWORD PTR _wszWndText$[ebp]
  00f1e	89 8d 08 fd ff
	ff		 mov	 DWORD PTR $T189114[ebp], ecx
  00f24	8b 95 08 fd ff
	ff		 mov	 edx, DWORD PTR $T189114[ebp]
  00f2a	52		 push	 edx
  00f2b	e8 00 00 00 00	 call	 ??_V@YAXPAX@Z		; operator delete[]
  00f30	83 c4 04	 add	 esp, 4

; 231  : 	dc.SelectObject(oldFont);

  00f33	8b 85 18 ff ff
	ff		 mov	 eax, DWORD PTR _oldFont$[ebp]
  00f39	50		 push	 eax
  00f3a	8d 4d 94	 lea	 ecx, DWORD PTR _dc$[ebp]
  00f3d	e8 00 00 00 00	 call	 ?SelectObject@CDC@@UAEPAVCFont@@PAV2@@Z ; CDC::SelectObject

; 232  : 	font.DeleteObject();

  00f42	8d 8d 20 ff ff
	ff		 lea	 ecx, DWORD PTR _font$[ebp]
  00f48	e8 00 00 00 00	 call	 ?DeleteObject@CGdiObject@@QAEHXZ ; CGdiObject::DeleteObject

; 233  : }

  00f4d	c6 45 fc 01	 mov	 BYTE PTR __$EHRec$[ebp+8], 1
  00f51	8b f4		 mov	 esi, esp
  00f53	8d 8d f8 fe ff
	ff		 lea	 ecx, DWORD PTR _wszPunctuation$[ebp]
  00f59	ff 15 00 00 00
	00		 call	 DWORD PTR __imp_??1?$basic_string@_WU?$char_traits@_W@std@@V?$allocator@_W@2@@std@@QAE@XZ
  00f5f	3b f4		 cmp	 esi, esp
  00f61	e8 00 00 00 00	 call	 __RTC_CheckEsp
  00f66	c6 45 fc 00	 mov	 BYTE PTR __$EHRec$[ebp+8], 0
  00f6a	8d 8d 20 ff ff
	ff		 lea	 ecx, DWORD PTR _font$[ebp]
  00f70	e8 00 00 00 00	 call	 ??1CFont@@UAE@XZ	; CFont::~CFont
  00f75	c7 45 fc ff ff
	ff ff		 mov	 DWORD PTR __$EHRec$[ebp+8], -1
  00f7c	8d 4d 94	 lea	 ecx, DWORD PTR _dc$[ebp]
  00f7f	e8 00 00 00 00	 call	 ??1CPaintDC@@UAE@XZ	; CPaintDC::~CPaintDC
$L187562:
  00f84	52		 push	 edx
  00f85	8b cd		 mov	 ecx, ebp
  00f87	50		 push	 eax
  00f88	8d 15 00 00 00
	00		 lea	 edx, DWORD PTR $L189146
  00f8e	e8 00 00 00 00	 call	 @_RTC_CheckStackVars@8
  00f93	58		 pop	 eax
  00f94	5a		 pop	 edx
  00f95	8b 4d f4	 mov	 ecx, DWORD PTR __$EHRec$[ebp]
  00f98	64 89 0d 00 00
	00 00		 mov	 DWORD PTR fs:__except_list, ecx
  00f9f	8b 4d f0	 mov	 ecx, DWORD PTR __$ArrayPad$[ebp]
  00fa2	e8 00 00 00 00	 call	 @__security_check_cookie@4
  00fa7	5f		 pop	 edi
  00fa8	5e		 pop	 esi
  00fa9	81 c4 2c 03 00
	00		 add	 esp, 812		; 0000032cH
  00faf	3b ec		 cmp	 ebp, esp
  00fb1	e8 00 00 00 00	 call	 __RTC_CheckEsp
  00fb6	8b e5		 mov	 esp, ebp
  00fb8	5d		 pop	 ebp
  00fb9	c3		 ret	 0
$L189146:
  00fba	0a 00 00 00	 DD	 10			; 0000000aH
  00fbe	00 00 00 00	 DD	 $L189145
$L189145:
  00fc2	94 ff ff ff	 DD	 -108			; ffffff94H
  00fc6	54 00 00 00	 DD	 84			; 00000054H
  00fca	00 00 00 00	 DD	 $L189132
  00fce	7c ff ff ff	 DD	 -132			; ffffff7cH
  00fd2	10 00 00 00	 DD	 16			; 00000010H
  00fd6	00 00 00 00	 DD	 $L189133
  00fda	30 ff ff ff	 DD	 -208			; ffffff30H
  00fde	3c 00 00 00	 DD	 60			; 0000003cH
  00fe2	00 00 00 00	 DD	 $L189134
  00fe6	20 ff ff ff	 DD	 -224			; ffffff20H
  00fea	08 00 00 00	 DD	 8
  00fee	00 00 00 00	 DD	 $L189135
  00ff2	f8 fe ff ff	 DD	 -264			; fffffef8H
  00ff6	1c 00 00 00	 DD	 28			; 0000001cH
  00ffa	00 00 00 00	 DD	 $L189136
  00ffe	6c fe ff ff	 DD	 -404			; fffffe6cH
  01002	84 00 00 00	 DD	 132			; 00000084H
  01006	00 00 00 00	 DD	 $L189137
  0100a	48 fe ff ff	 DD	 -440			; fffffe48H
  0100e	1c 00 00 00	 DD	 28			; 0000001cH
  01012	00 00 00 00	 DD	 $L189138
  01016	28 fe ff ff	 DD	 -472			; fffffe28H
  0101a	08 00 00 00	 DD	 8
  0101e	00 00 00 00	 DD	 $L189139
  01022	f8 fd ff ff	 DD	 -520			; fffffdf8H
  01026	1c 00 00 00	 DD	 28			; 0000001cH
  0102a	00 00 00 00	 DD	 $L189140
  0102e	d8 fd ff ff	 DD	 -552			; fffffdd8H
  01032	10 00 00 00	 DD	 16			; 00000010H
  01036	00 00 00 00	 DD	 $L189141
$L189141:
  0103a	6f		 DB	 111			; 0000006fH
  0103b	75		 DB	 117			; 00000075H
  0103c	74		 DB	 116			; 00000074H
  0103d	70		 DB	 112			; 00000070H
  0103e	75		 DB	 117			; 00000075H
  0103f	74		 DB	 116			; 00000074H
  01040	5f		 DB	 95			; 0000005fH
  01041	72		 DB	 114			; 00000072H
  01042	65		 DB	 101			; 00000065H
  01043	63		 DB	 99			; 00000063H
  01044	74		 DB	 116			; 00000074H
  01045	00		 DB	 0
$L189140:
  01046	73		 DB	 115			; 00000073H
  01047	74		 DB	 116			; 00000074H
  01048	72		 DB	 114			; 00000072H
  01049	4f		 DB	 79			; 0000004fH
  0104a	75		 DB	 117			; 00000075H
  0104b	74		 DB	 116			; 00000074H
  0104c	70		 DB	 112			; 00000070H
  0104d	75		 DB	 117			; 00000075H
  0104e	74		 DB	 116			; 00000074H
  0104f	00		 DB	 0
$L189139:
  01050	73		 DB	 115			; 00000073H
  01051	69		 DB	 105			; 00000069H
  01052	7a		 DB	 122			; 0000007aH
  01053	65		 DB	 101			; 00000065H
  01054	00		 DB	 0
$L189138:
  01055	73		 DB	 115			; 00000073H
  01056	74		 DB	 116			; 00000074H
  01057	72		 DB	 114			; 00000072H
  01058	6c		 DB	 108			; 0000006cH
  01059	69		 DB	 105			; 00000069H
  0105a	6e		 DB	 110			; 0000006eH
  0105b	65		 DB	 101			; 00000065H
  0105c	00		 DB	 0
$L189137:
  0105d	69		 DB	 105			; 00000069H
  0105e	73		 DB	 115			; 00000073H
  0105f	73		 DB	 115			; 00000073H
  01060	00		 DB	 0
$L189136:
  01061	77		 DB	 119			; 00000077H
  01062	73		 DB	 115			; 00000073H
  01063	7a		 DB	 122			; 0000007aH
  01064	50		 DB	 80			; 00000050H
  01065	75		 DB	 117			; 00000075H
  01066	6e		 DB	 110			; 0000006eH
  01067	63		 DB	 99			; 00000063H
  01068	74		 DB	 116			; 00000074H
  01069	75		 DB	 117			; 00000075H
  0106a	61		 DB	 97			; 00000061H
  0106b	74		 DB	 116			; 00000074H
  0106c	69		 DB	 105			; 00000069H
  0106d	6f		 DB	 111			; 0000006fH
  0106e	6e		 DB	 110			; 0000006eH
  0106f	00		 DB	 0
$L189135:
  01070	66		 DB	 102			; 00000066H
  01071	6f		 DB	 111			; 0000006fH
  01072	6e		 DB	 110			; 0000006eH
  01073	74		 DB	 116			; 00000074H
  01074	00		 DB	 0
$L189134:
  01075	6c		 DB	 108			; 0000006cH
  01076	66		 DB	 102			; 00000066H
  01077	00		 DB	 0
$L189133:
  01078	72		 DB	 114			; 00000072H
  01079	65		 DB	 101			; 00000065H
  0107a	63		 DB	 99			; 00000063H
  0107b	74		 DB	 116			; 00000074H
  0107c	00		 DB	 0
$L189132:
  0107d	64		 DB	 100			; 00000064H
  0107e	63		 DB	 99			; 00000063H
  0107f	00		 DB	 0
_TEXT	ENDS
text$x	SEGMENT
$L189115:
  0009e	8d 4d 94	 lea	 ecx, DWORD PTR _dc$[ebp]
  000a1	e9 00 00 00 00	 jmp	 ??1CPaintDC@@UAE@XZ	; CPaintDC::~CPaintDC
$L189116:
  000a6	8d 8d 20 ff ff
	ff		 lea	 ecx, DWORD PTR _font$[ebp]
  000ac	e9 00 00 00 00	 jmp	 ??1CFont@@UAE@XZ	; CFont::~CFont
$L189117:
  000b1	8b f4		 mov	 esi, esp
  000b3	8d 8d f8 fe ff
	ff		 lea	 ecx, DWORD PTR _wszPunctuation$[ebp]
  000b9	ff 15 00 00 00
	00		 call	 DWORD PTR __imp_??1?$basic_string@_WU?$char_traits@_W@std@@V?$allocator@_W@2@@std@@QAE@XZ
  000bf	3b f4		 cmp	 esi, esp
  000c1	e9 00 00 00 00	 jmp	 __RTC_CheckEsp
$L189118:
  000c6	8b f4		 mov	 esi, esp
  000c8	8d 8d b4 fd ff
	ff		 lea	 ecx, DWORD PTR $T189099[ebp]
  000ce	ff 15 00 00 00
	00		 call	 DWORD PTR __imp_??1?$basic_string@_WU?$char_traits@_W@std@@V?$allocator@_W@2@@std@@QAE@XZ
  000d4	3b f4		 cmp	 esi, esp
  000d6	e9 00 00 00 00	 jmp	 __RTC_CheckEsp
$L189119:
  000db	8b f4		 mov	 esi, esp
  000dd	8d 8d 6c fe ff
	ff		 lea	 ecx, DWORD PTR _iss$187582[ebp]
  000e3	ff 15 00 00 00
	00		 call	 DWORD PTR __imp_??_D?$basic_istringstream@_WU?$char_traits@_W@std@@V?$allocator@_W@2@@std@@QAEXXZ
  000e9	3b f4		 cmp	 esi, esp
  000eb	e9 00 00 00 00	 jmp	 __RTC_CheckEsp
$L189120:
  000f0	8b f4		 mov	 esi, esp
  000f2	8d 8d 48 fe ff
	ff		 lea	 ecx, DWORD PTR _strline$187584[ebp]
  000f8	ff 15 00 00 00
	00		 call	 DWORD PTR __imp_??1?$basic_string@_WU?$char_traits@_W@std@@V?$allocator@_W@2@@std@@QAE@XZ
  000fe	3b f4		 cmp	 esi, esp
  00100	e9 00 00 00 00	 jmp	 __RTC_CheckEsp
$L189121:
  00105	8b f4		 mov	 esi, esp
  00107	8d 8d f8 fd ff
	ff		 lea	 ecx, DWORD PTR _strOutput$187609[ebp]
  0010d	ff 15 00 00 00
	00		 call	 DWORD PTR __imp_??1?$basic_string@_WU?$char_traits@_W@std@@V?$allocator@_W@2@@std@@QAE@XZ
  00113	3b f4		 cmp	 esi, esp
  00115	e9 00 00 00 00	 jmp	 __RTC_CheckEsp
$L189122:
  0011a	8b f4		 mov	 esi, esp
  0011c	8d 8d 88 fd ff
	ff		 lea	 ecx, DWORD PTR $T189106[ebp]
  00122	ff 15 00 00 00
	00		 call	 DWORD PTR __imp_??1?$basic_string@_WU?$char_traits@_W@std@@V?$allocator@_W@2@@std@@QAE@XZ
  00128	3b f4		 cmp	 esi, esp
  0012a	e9 00 00 00 00	 jmp	 __RTC_CheckEsp
$L189123:
  0012f	8b f4		 mov	 esi, esp
  00131	8d 8d 6c fd ff
	ff		 lea	 ecx, DWORD PTR $T189107[ebp]
  00137	ff 15 00 00 00
	00		 call	 DWORD PTR __imp_??1?$basic_string@_WU?$char_traits@_W@std@@V?$allocator@_W@2@@std@@QAE@XZ
  0013d	3b f4		 cmp	 esi, esp
  0013f	e9 00 00 00 00	 jmp	 __RTC_CheckEsp
$L189124:
  00144	8b f4		 mov	 esi, esp
  00146	8d 8d 50 fd ff
	ff		 lea	 ecx, DWORD PTR $T189108[ebp]
  0014c	ff 15 00 00 00
	00		 call	 DWORD PTR __imp_??1?$basic_string@_WU?$char_traits@_W@std@@V?$allocator@_W@2@@std@@QAE@XZ
  00152	3b f4		 cmp	 esi, esp
  00154	e9 00 00 00 00	 jmp	 __RTC_CheckEsp
$L189125:
  00159	8b f4		 mov	 esi, esp
  0015b	8d 8d 34 fd ff
	ff		 lea	 ecx, DWORD PTR $T189109[ebp]
  00161	ff 15 00 00 00
	00		 call	 DWORD PTR __imp_??1?$basic_string@_WU?$char_traits@_W@std@@V?$allocator@_W@2@@std@@QAE@XZ
  00167	3b f4		 cmp	 esi, esp
  00169	e9 00 00 00 00	 jmp	 __RTC_CheckEsp
$L189126:
  0016e	8b f4		 mov	 esi, esp
  00170	8d 8d 18 fd ff
	ff		 lea	 ecx, DWORD PTR $T189110[ebp]
  00176	ff 15 00 00 00
	00		 call	 DWORD PTR __imp_??1?$basic_string@_WU?$char_traits@_W@std@@V?$allocator@_W@2@@std@@QAE@XZ
  0017c	3b f4		 cmp	 esi, esp
  0017e	e9 00 00 00 00	 jmp	 __RTC_CheckEsp
__ehhandler$?OnPaint@CxStaticText@@IAEXXZ:
  00183	b8 00 00 00 00	 mov	 eax, OFFSET FLAT:$T189128
  00188	e9 00 00 00 00	 jmp	 ___CxxFrameHandler
text$x	ENDS
?OnPaint@CxStaticText@@IAEXXZ ENDP			; CxStaticText::OnPaint
PUBLIC	?InvalidateParent@CxStaticText@@IAEXXZ		; CxStaticText::InvalidateParent
EXTRN	?Invalidate@CWnd@@QAEXH@Z:NEAR			; CWnd::Invalidate
; Function compile flags: /Odt /RTCsu
_TEXT	SEGMENT
_this$ = -4						; size = 4
_bEnable$ = 8						; size = 4
?OnEnable@CxStaticText@@IAEXH@Z PROC NEAR		; CxStaticText::OnEnable
; _this$ = ecx

; 238  : {

  01080	55		 push	 ebp
  01081	8b ec		 mov	 ebp, esp
  01083	51		 push	 ecx
  01084	c7 45 fc cc cc
	cc cc		 mov	 DWORD PTR [ebp-4], -858993460 ; ccccccccH
  0108b	89 4d fc	 mov	 DWORD PTR _this$[ebp], ecx

; 239  : 	// the background must be drawn by the object owner
; 240  : 	InvalidateParent();

  0108e	8b 4d fc	 mov	 ecx, DWORD PTR _this$[ebp]
  01091	e8 00 00 00 00	 call	 ?InvalidateParent@CxStaticText@@IAEXXZ ; CxStaticText::InvalidateParent

; 241  : 	Invalidate(0);	//update screen

  01096	6a 00		 push	 0
  01098	8b 4d fc	 mov	 ecx, DWORD PTR _this$[ebp]
  0109b	e8 00 00 00 00	 call	 ?Invalidate@CWnd@@QAEXH@Z ; CWnd::Invalidate

; 242  : }

  010a0	83 c4 04	 add	 esp, 4
  010a3	3b ec		 cmp	 ebp, esp
  010a5	e8 00 00 00 00	 call	 __RTC_CheckEsp
  010aa	8b e5		 mov	 esp, ebp
  010ac	5d		 pop	 ebp
  010ad	c2 04 00	 ret	 4
?OnEnable@CxStaticText@@IAEXH@Z ENDP			; CxStaticText::OnEnable
_TEXT	ENDS
PUBLIC	?SetTextColor@CxStaticText@@QAEKK@Z		; CxStaticText::SetTextColor
; Function compile flags: /Odt /RTCsu
_TEXT	SEGMENT
_tmp_color$ = -8					; size = 4
_this$ = -4						; size = 4
_new_color$ = 8						; size = 4
?SetTextColor@CxStaticText@@QAEKK@Z PROC NEAR		; CxStaticText::SetTextColor
; _this$ = ecx

; 246  : {

  010b0	55		 push	 ebp
  010b1	8b ec		 mov	 ebp, esp
  010b3	83 ec 08	 sub	 esp, 8
  010b6	c7 45 f8 cc cc
	cc cc		 mov	 DWORD PTR [ebp-8], -858993460 ; ccccccccH
  010bd	c7 45 fc cc cc
	cc cc		 mov	 DWORD PTR [ebp-4], -858993460 ; ccccccccH
  010c4	89 4d fc	 mov	 DWORD PTR _this$[ebp], ecx

; 247  : 	COLORREF tmp_color=m_TextColor;

  010c7	8b 45 fc	 mov	 eax, DWORD PTR _this$[ebp]
  010ca	8b 48 60	 mov	 ecx, DWORD PTR [eax+96]
  010cd	89 4d f8	 mov	 DWORD PTR _tmp_color$[ebp], ecx

; 248  : 	m_ActualColor=m_TextColor=new_color;

  010d0	8b 55 fc	 mov	 edx, DWORD PTR _this$[ebp]
  010d3	8b 45 08	 mov	 eax, DWORD PTR _new_color$[ebp]
  010d6	89 42 60	 mov	 DWORD PTR [edx+96], eax
  010d9	8b 4d fc	 mov	 ecx, DWORD PTR _this$[ebp]
  010dc	8b 55 08	 mov	 edx, DWORD PTR _new_color$[ebp]
  010df	89 51 64	 mov	 DWORD PTR [ecx+100], edx

; 249  : 	Invalidate(0);				//update screen

  010e2	6a 00		 push	 0
  010e4	8b 4d fc	 mov	 ecx, DWORD PTR _this$[ebp]
  010e7	e8 00 00 00 00	 call	 ?Invalidate@CWnd@@QAEXH@Z ; CWnd::Invalidate

; 250  : 	return tmp_color;			//returns the previous color

  010ec	8b 45 f8	 mov	 eax, DWORD PTR _tmp_color$[ebp]

; 251  : }

  010ef	83 c4 08	 add	 esp, 8
  010f2	3b ec		 cmp	 ebp, esp
  010f4	e8 00 00 00 00	 call	 __RTC_CheckEsp
  010f9	8b e5		 mov	 esp, ebp
  010fb	5d		 pop	 ebp
  010fc	c2 04 00	 ret	 4
?SetTextColor@CxStaticText@@QAEKK@Z ENDP		; CxStaticText::SetTextColor
_TEXT	ENDS
PUBLIC	?SetBlinkColor@CxStaticText@@QAEKK@Z		; CxStaticText::SetBlinkColor
; Function compile flags: /Odt /RTCsu
_TEXT	SEGMENT
_tmp_color$ = -8					; size = 4
_this$ = -4						; size = 4
_new_color$ = 8						; size = 4
?SetBlinkColor@CxStaticText@@QAEKK@Z PROC NEAR		; CxStaticText::SetBlinkColor
; _this$ = ecx

; 255  : {

  01100	55		 push	 ebp
  01101	8b ec		 mov	 ebp, esp
  01103	83 ec 08	 sub	 esp, 8
  01106	c7 45 f8 cc cc
	cc cc		 mov	 DWORD PTR [ebp-8], -858993460 ; ccccccccH
  0110d	c7 45 fc cc cc
	cc cc		 mov	 DWORD PTR [ebp-4], -858993460 ; ccccccccH
  01114	89 4d fc	 mov	 DWORD PTR _this$[ebp], ecx

; 256  : 	COLORREF tmp_color=m_BlinkColor;

  01117	8b 45 fc	 mov	 eax, DWORD PTR _this$[ebp]
  0111a	8b 48 5c	 mov	 ecx, DWORD PTR [eax+92]
  0111d	89 4d f8	 mov	 DWORD PTR _tmp_color$[ebp], ecx

; 257  : 	m_BlinkColor=new_color;

  01120	8b 55 fc	 mov	 edx, DWORD PTR _this$[ebp]
  01123	8b 45 08	 mov	 eax, DWORD PTR _new_color$[ebp]
  01126	89 42 5c	 mov	 DWORD PTR [edx+92], eax

; 258  : 	return tmp_color;			//returns the previous color

  01129	8b 45 f8	 mov	 eax, DWORD PTR _tmp_color$[ebp]

; 259  : }

  0112c	8b e5		 mov	 esp, ebp
  0112e	5d		 pop	 ebp
  0112f	c2 04 00	 ret	 4
?SetBlinkColor@CxStaticText@@QAEKK@Z ENDP		; CxStaticText::SetBlinkColor
_TEXT	ENDS
PUBLIC	?SetBackgroundColor@CxStaticText@@QAEKK@Z	; CxStaticText::SetBackgroundColor
; Function compile flags: /Odt /RTCsu
_TEXT	SEGMENT
_tmp_color$ = -8					; size = 4
_this$ = -4						; size = 4
_new_color$ = 8						; size = 4
?SetBackgroundColor@CxStaticText@@QAEKK@Z PROC NEAR	; CxStaticText::SetBackgroundColor
; _this$ = ecx

; 262  : {

  01140	55		 push	 ebp
  01141	8b ec		 mov	 ebp, esp
  01143	83 ec 08	 sub	 esp, 8
  01146	c7 45 f8 cc cc
	cc cc		 mov	 DWORD PTR [ebp-8], -858993460 ; ccccccccH
  0114d	c7 45 fc cc cc
	cc cc		 mov	 DWORD PTR [ebp-4], -858993460 ; ccccccccH
  01154	89 4d fc	 mov	 DWORD PTR _this$[ebp], ecx

; 263  : 	COLORREF tmp_color=m_BackgroundColor;

  01157	8b 45 fc	 mov	 eax, DWORD PTR _this$[ebp]
  0115a	8b 48 58	 mov	 ecx, DWORD PTR [eax+88]
  0115d	89 4d f8	 mov	 DWORD PTR _tmp_color$[ebp], ecx

; 264  : 	m_BackgroundColor=new_color;

  01160	8b 55 fc	 mov	 edx, DWORD PTR _this$[ebp]
  01163	8b 45 08	 mov	 eax, DWORD PTR _new_color$[ebp]
  01166	89 42 58	 mov	 DWORD PTR [edx+88], eax

; 265  : 	return tmp_color;			//returns the previous color

  01169	8b 45 f8	 mov	 eax, DWORD PTR _tmp_color$[ebp]

; 266  : }

  0116c	8b e5		 mov	 esp, ebp
  0116e	5d		 pop	 ebp
  0116f	c2 04 00	 ret	 4
?SetBackgroundColor@CxStaticText@@QAEKK@Z ENDP		; CxStaticText::SetBackgroundColor
_TEXT	ENDS
PUBLIC	?SetBlink@CxStaticText@@QAEXHHH@Z		; CxStaticText::SetBlink
EXTRN	?SetTimer@CWnd@@QAEIIIP6GXPAUHWND__@@IIK@Z@Z:NEAR ; CWnd::SetTimer
EXTRN	?KillTimer@CWnd@@QAEHI@Z:NEAR			; CWnd::KillTimer
; Function compile flags: /Odt /RTCsu
_TEXT	SEGMENT
_this$ = -4						; size = 4
_bBlink$ = 8						; size = 4
_blink_time$ = 12					; size = 4
_blink_count$ = 16					; size = 4
?SetBlink@CxStaticText@@QAEXHHH@Z PROC NEAR		; CxStaticText::SetBlink
; _this$ = ecx

; 270  : {

  01180	55		 push	 ebp
  01181	8b ec		 mov	 ebp, esp
  01183	51		 push	 ecx
  01184	c7 45 fc cc cc
	cc cc		 mov	 DWORD PTR [ebp-4], -858993460 ; ccccccccH
  0118b	89 4d fc	 mov	 DWORD PTR _this$[ebp], ecx

; 271  : 	if (blink_count<0){

  0118e	83 7d 10 00	 cmp	 DWORD PTR _blink_count$[ebp], 0
  01192	7d 0c		 jge	 SHORT $L187672

; 272  : 		m_BlinkCounter=0;

  01194	8b 45 fc	 mov	 eax, DWORD PTR _this$[ebp]
  01197	c7 40 54 00 00
	00 00		 mov	 DWORD PTR [eax+84], 0

; 273  : 	} else {

  0119e	eb 0b		 jmp	 SHORT $L187673
$L187672:

; 274  : 		m_BlinkCounter=2*blink_count;

  011a0	8b 4d 10	 mov	 ecx, DWORD PTR _blink_count$[ebp]
  011a3	d1 e1		 shl	 ecx, 1
  011a5	8b 55 fc	 mov	 edx, DWORD PTR _this$[ebp]
  011a8	89 4a 54	 mov	 DWORD PTR [edx+84], ecx
$L187673:

; 275  : 	}
; 276  : 
; 277  : 	if(bBlink){

  011ab	83 7d 08 00	 cmp	 DWORD PTR _bBlink$[ebp], 0
  011af	74 27		 je	 SHORT $L187674

; 278  : 		if (m_TimerID==0) m_TimerID=(UINT)(SetTimer(1, (UINT)blink_time,NULL));

  011b1	8b 45 fc	 mov	 eax, DWORD PTR _this$[ebp]
  011b4	83 b8 80 00 00
	00 00		 cmp	 DWORD PTR [eax+128], 0
  011bb	75 19		 jne	 SHORT $L187675
  011bd	6a 00		 push	 0
  011bf	8b 4d 0c	 mov	 ecx, DWORD PTR _blink_time$[ebp]
  011c2	51		 push	 ecx
  011c3	6a 01		 push	 1
  011c5	8b 4d fc	 mov	 ecx, DWORD PTR _this$[ebp]
  011c8	e8 00 00 00 00	 call	 ?SetTimer@CWnd@@QAEIIIP6GXPAUHWND__@@IIK@Z@Z ; CWnd::SetTimer
  011cd	8b 55 fc	 mov	 edx, DWORD PTR _this$[ebp]
  011d0	89 82 80 00 00
	00		 mov	 DWORD PTR [edx+128], eax
$L187675:

; 279  : 	} else {

  011d6	eb 2b		 jmp	 SHORT $L187671
$L187674:

; 280  : 		if (m_TimerID!=0){

  011d8	8b 45 fc	 mov	 eax, DWORD PTR _this$[ebp]
  011db	83 b8 80 00 00
	00 00		 cmp	 DWORD PTR [eax+128], 0
  011e2	74 1f		 je	 SHORT $L187671

; 281  : 			KillTimer(m_TimerID);

  011e4	8b 4d fc	 mov	 ecx, DWORD PTR _this$[ebp]
  011e7	8b 91 80 00 00
	00		 mov	 edx, DWORD PTR [ecx+128]
  011ed	52		 push	 edx
  011ee	8b 4d fc	 mov	 ecx, DWORD PTR _this$[ebp]
  011f1	e8 00 00 00 00	 call	 ?KillTimer@CWnd@@QAEHI@Z ; CWnd::KillTimer

; 282  : 			m_TimerID=0;

  011f6	8b 45 fc	 mov	 eax, DWORD PTR _this$[ebp]
  011f9	c7 80 80 00 00
	00 00 00 00 00	 mov	 DWORD PTR [eax+128], 0
$L187671:

; 283  : 		}
; 284  : 	}
; 285  : }

  01203	83 c4 04	 add	 esp, 4
  01206	3b ec		 cmp	 ebp, esp
  01208	e8 00 00 00 00	 call	 __RTC_CheckEsp
  0120d	8b e5		 mov	 esp, ebp
  0120f	5d		 pop	 ebp
  01210	c2 0c 00	 ret	 12			; 0000000cH
?SetBlink@CxStaticText@@QAEXHHH@Z ENDP			; CxStaticText::SetBlink
_TEXT	ENDS
EXTRN	?OnTimer@CWnd@@IAEXI@Z:NEAR			; CWnd::OnTimer
; Function compile flags: /Odt /RTCsu
_TEXT	SEGMENT
_this$ = -4						; size = 4
_nIDEvent$ = 8						; size = 4
?OnTimer@CxStaticText@@IAEXI@Z PROC NEAR		; CxStaticText::OnTimer
; _this$ = ecx

; 288  : {

  01220	55		 push	 ebp
  01221	8b ec		 mov	 ebp, esp
  01223	51		 push	 ecx
  01224	c7 45 fc cc cc
	cc cc		 mov	 DWORD PTR [ebp-4], -858993460 ; ccccccccH
  0122b	89 4d fc	 mov	 DWORD PTR _this$[ebp], ecx

; 289  : 	if (nIDEvent==m_TimerID){

  0122e	8b 45 fc	 mov	 eax, DWORD PTR _this$[ebp]
  01231	8b 4d 08	 mov	 ecx, DWORD PTR _nIDEvent$[ebp]
  01234	3b 88 80 00 00
	00		 cmp	 ecx, DWORD PTR [eax+128]
  0123a	75 7e		 jne	 SHORT $L187684

; 290  : 		if (m_BlinkCounter>0){

  0123c	8b 55 fc	 mov	 edx, DWORD PTR _this$[ebp]
  0123f	83 7a 54 00	 cmp	 DWORD PTR [edx+84], 0
  01243	7e 43		 jle	 SHORT $L187685

; 291  : 			m_BlinkCounter--;

  01245	8b 45 fc	 mov	 eax, DWORD PTR _this$[ebp]
  01248	8b 48 54	 mov	 ecx, DWORD PTR [eax+84]
  0124b	83 e9 01	 sub	 ecx, 1
  0124e	8b 55 fc	 mov	 edx, DWORD PTR _this$[ebp]
  01251	89 4a 54	 mov	 DWORD PTR [edx+84], ecx

; 292  : 			if (m_BlinkCounter==0){

  01254	8b 45 fc	 mov	 eax, DWORD PTR _this$[ebp]
  01257	83 78 54 00	 cmp	 DWORD PTR [eax+84], 0
  0125b	75 2b		 jne	 SHORT $L187685

; 293  : 				if (m_TimerID!=0){

  0125d	8b 4d fc	 mov	 ecx, DWORD PTR _this$[ebp]
  01260	83 b9 80 00 00
	00 00		 cmp	 DWORD PTR [ecx+128], 0
  01267	74 1f		 je	 SHORT $L187685

; 294  : 					KillTimer(m_TimerID);

  01269	8b 55 fc	 mov	 edx, DWORD PTR _this$[ebp]
  0126c	8b 82 80 00 00
	00		 mov	 eax, DWORD PTR [edx+128]
  01272	50		 push	 eax
  01273	8b 4d fc	 mov	 ecx, DWORD PTR _this$[ebp]
  01276	e8 00 00 00 00	 call	 ?KillTimer@CWnd@@QAEHI@Z ; CWnd::KillTimer

; 295  : 					m_TimerID=0;

  0127b	8b 4d fc	 mov	 ecx, DWORD PTR _this$[ebp]
  0127e	c7 81 80 00 00
	00 00 00 00 00	 mov	 DWORD PTR [ecx+128], 0
$L187685:

; 296  : 				}
; 297  : 			}
; 298  : 		}
; 299  : 		if (m_ActualColor==m_TextColor)	m_ActualColor=m_BlinkColor;

  01288	8b 55 fc	 mov	 edx, DWORD PTR _this$[ebp]
  0128b	8b 45 fc	 mov	 eax, DWORD PTR _this$[ebp]
  0128e	8b 4a 64	 mov	 ecx, DWORD PTR [edx+100]
  01291	3b 48 60	 cmp	 ecx, DWORD PTR [eax+96]
  01294	75 0e		 jne	 SHORT $L187688
  01296	8b 55 fc	 mov	 edx, DWORD PTR _this$[ebp]
  01299	8b 45 fc	 mov	 eax, DWORD PTR _this$[ebp]
  0129c	8b 48 5c	 mov	 ecx, DWORD PTR [eax+92]
  0129f	89 4a 64	 mov	 DWORD PTR [edx+100], ecx

; 300  : 		else	m_ActualColor=m_TextColor;

  012a2	eb 0c		 jmp	 SHORT $L187689
$L187688:
  012a4	8b 55 fc	 mov	 edx, DWORD PTR _this$[ebp]
  012a7	8b 45 fc	 mov	 eax, DWORD PTR _this$[ebp]
  012aa	8b 48 60	 mov	 ecx, DWORD PTR [eax+96]
  012ad	89 4a 64	 mov	 DWORD PTR [edx+100], ecx
$L187689:

; 301  : 		Invalidate(0);

  012b0	6a 00		 push	 0
  012b2	8b 4d fc	 mov	 ecx, DWORD PTR _this$[ebp]
  012b5	e8 00 00 00 00	 call	 ?Invalidate@CWnd@@QAEXH@Z ; CWnd::Invalidate
$L187684:

; 302  : 	}
; 303  : 	CStatic::OnTimer(nIDEvent);

  012ba	8b 55 08	 mov	 edx, DWORD PTR _nIDEvent$[ebp]
  012bd	52		 push	 edx
  012be	8b 4d fc	 mov	 ecx, DWORD PTR _this$[ebp]
  012c1	e8 00 00 00 00	 call	 ?OnTimer@CWnd@@IAEXI@Z	; CWnd::OnTimer

; 304  : }

  012c6	83 c4 04	 add	 esp, 4
  012c9	3b ec		 cmp	 ebp, esp
  012cb	e8 00 00 00 00	 call	 __RTC_CheckEsp
  012d0	8b e5		 mov	 esp, ebp
  012d2	5d		 pop	 ebp
  012d3	c2 04 00	 ret	 4
?OnTimer@CxStaticText@@IAEXI@Z ENDP			; CxStaticText::OnTimer
_TEXT	ENDS
PUBLIC	?SetSingleLine@CxStaticText@@QAEX_N@Z		; CxStaticText::SetSingleLine
; Function compile flags: /Odt /RTCsu
_TEXT	SEGMENT
_this$ = -4						; size = 4
_single$ = 8						; size = 1
?SetSingleLine@CxStaticText@@QAEX_N@Z PROC NEAR		; CxStaticText::SetSingleLine
; _this$ = ecx

; 308  : {

  012e0	55		 push	 ebp
  012e1	8b ec		 mov	 ebp, esp
  012e3	51		 push	 ecx
  012e4	c7 45 fc cc cc
	cc cc		 mov	 DWORD PTR [ebp-4], -858993460 ; ccccccccH
  012eb	89 4d fc	 mov	 DWORD PTR _this$[ebp], ecx

; 309  : 	m_SingleLine = single;

  012ee	8b 45 fc	 mov	 eax, DWORD PTR _this$[ebp]
  012f1	8a 4d 08	 mov	 cl, BYTE PTR _single$[ebp]
  012f4	88 48 68	 mov	 BYTE PTR [eax+104], cl

; 310  : }

  012f7	8b e5		 mov	 esp, ebp
  012f9	5d		 pop	 ebp
  012fa	c2 04 00	 ret	 4
?SetSingleLine@CxStaticText@@QAEX_N@Z ENDP		; CxStaticText::SetSingleLine
_TEXT	ENDS
PUBLIC	?SetUnderLine@CxStaticText@@QAEX_N@Z		; CxStaticText::SetUnderLine
; Function compile flags: /Odt /RTCsu
_TEXT	SEGMENT
_this$ = -4						; size = 4
_under$ = 8						; size = 1
?SetUnderLine@CxStaticText@@QAEX_N@Z PROC NEAR		; CxStaticText::SetUnderLine
; _this$ = ecx

; 315  : {

  01300	55		 push	 ebp
  01301	8b ec		 mov	 ebp, esp
  01303	51		 push	 ecx
  01304	c7 45 fc cc cc
	cc cc		 mov	 DWORD PTR [ebp-4], -858993460 ; ccccccccH
  0130b	89 4d fc	 mov	 DWORD PTR _this$[ebp], ecx

; 316  : 	m_UnderLine = under;

  0130e	8b 45 fc	 mov	 eax, DWORD PTR _this$[ebp]
  01311	8a 4d 08	 mov	 cl, BYTE PTR _under$[ebp]
  01314	88 48 69	 mov	 BYTE PTR [eax+105], cl

; 317  : }

  01317	8b e5		 mov	 esp, ebp
  01319	5d		 pop	 ebp
  0131a	c2 04 00	 ret	 4
?SetUnderLine@CxStaticText@@QAEX_N@Z ENDP		; CxStaticText::SetUnderLine
_TEXT	ENDS
PUBLIC	?SetFontFace@CxStaticText@@QAEXABV?$CStringT@DV?$StrTraitMFC_DLL@DV?$ChTraitsCRT@D@ATL@@@@@ATL@@@Z ; CxStaticText::SetFontFace
EXTRN	__imp_??4?$CStringT@DV?$StrTraitMFC_DLL@DV?$ChTraitsCRT@D@ATL@@@@@ATL@@QAEAAV01@ABV01@@Z:NEAR
; Function compile flags: /Odt /RTCsu
_TEXT	SEGMENT
_this$ = -4						; size = 4
_face$ = 8						; size = 4
?SetFontFace@CxStaticText@@QAEXABV?$CStringT@DV?$StrTraitMFC_DLL@DV?$ChTraitsCRT@D@ATL@@@@@ATL@@@Z PROC NEAR ; CxStaticText::SetFontFace
; _this$ = ecx

; 321  : {

  01320	55		 push	 ebp
  01321	8b ec		 mov	 ebp, esp
  01323	51		 push	 ecx
  01324	56		 push	 esi
  01325	c7 45 fc cc cc
	cc cc		 mov	 DWORD PTR [ebp-4], -858993460 ; ccccccccH
  0132c	89 4d fc	 mov	 DWORD PTR _this$[ebp], ecx

; 322  : 	m_FontFace = face;

  0132f	8b f4		 mov	 esi, esp
  01331	8b 45 08	 mov	 eax, DWORD PTR _face$[ebp]
  01334	50		 push	 eax
  01335	8b 4d fc	 mov	 ecx, DWORD PTR _this$[ebp]
  01338	83 c1 70	 add	 ecx, 112		; 00000070H
  0133b	ff 15 00 00 00
	00		 call	 DWORD PTR __imp_??4?$CStringT@DV?$StrTraitMFC_DLL@DV?$ChTraitsCRT@D@ATL@@@@@ATL@@QAEAAV01@ABV01@@Z
  01341	3b f4		 cmp	 esi, esp
  01343	e8 00 00 00 00	 call	 __RTC_CheckEsp

; 323  : }

  01348	5e		 pop	 esi
  01349	83 c4 04	 add	 esp, 4
  0134c	3b ec		 cmp	 ebp, esp
  0134e	e8 00 00 00 00	 call	 __RTC_CheckEsp
  01353	8b e5		 mov	 esp, ebp
  01355	5d		 pop	 ebp
  01356	c2 04 00	 ret	 4
?SetFontFace@CxStaticText@@QAEXABV?$CStringT@DV?$StrTraitMFC_DLL@DV?$ChTraitsCRT@D@ATL@@@@@ATL@@@Z ENDP ; CxStaticText::SetFontFace
_TEXT	ENDS
PUBLIC	?SetFontSize@CxStaticText@@QAEXI@Z		; CxStaticText::SetFontSize
; Function compile flags: /Odt /RTCsu
_TEXT	SEGMENT
_this$ = -4						; size = 4
_size$ = 8						; size = 4
?SetFontSize@CxStaticText@@QAEXI@Z PROC NEAR		; CxStaticText::SetFontSize
; _this$ = ecx

; 327  : {

  01360	55		 push	 ebp
  01361	8b ec		 mov	 ebp, esp
  01363	51		 push	 ecx
  01364	c7 45 fc cc cc
	cc cc		 mov	 DWORD PTR [ebp-4], -858993460 ; ccccccccH
  0136b	89 4d fc	 mov	 DWORD PTR _this$[ebp], ecx

; 328  : 	m_FontSize = size;

  0136e	8b 45 fc	 mov	 eax, DWORD PTR _this$[ebp]
  01371	8b 4d 08	 mov	 ecx, DWORD PTR _size$[ebp]
  01374	89 48 74	 mov	 DWORD PTR [eax+116], ecx

; 329  : }

  01377	8b e5		 mov	 esp, ebp
  01379	5d		 pop	 ebp
  0137a	c2 04 00	 ret	 4
?SetFontSize@CxStaticText@@QAEXI@Z ENDP			; CxStaticText::SetFontSize
_TEXT	ENDS
PUBLIC	?EnableClick@CxStaticText@@QAEX_N@Z		; CxStaticText::EnableClick
; Function compile flags: /Odt /RTCsu
_TEXT	SEGMENT
_this$ = -4						; size = 4
_enable$ = 8						; size = 1
?EnableClick@CxStaticText@@QAEX_N@Z PROC NEAR		; CxStaticText::EnableClick
; _this$ = ecx

; 332  : {

  01380	55		 push	 ebp
  01381	8b ec		 mov	 ebp, esp
  01383	51		 push	 ecx
  01384	c7 45 fc cc cc
	cc cc		 mov	 DWORD PTR [ebp-4], -858993460 ; ccccccccH
  0138b	89 4d fc	 mov	 DWORD PTR _this$[ebp], ecx

; 333  : 	m_EnableClick = enable;

  0138e	8b 45 fc	 mov	 eax, DWORD PTR _this$[ebp]
  01391	8a 4d 08	 mov	 cl, BYTE PTR _enable$[ebp]
  01394	88 48 6a	 mov	 BYTE PTR [eax+106], cl

; 334  : }

  01397	8b e5		 mov	 esp, ebp
  01399	5d		 pop	 ebp
  0139a	c2 04 00	 ret	 4
?EnableClick@CxStaticText@@QAEX_N@Z ENDP		; CxStaticText::EnableClick
_TEXT	ENDS
EXTRN	?GetWindowRect@CWnd@@QBEXPAUtagRECT@@@Z:NEAR	; CWnd::GetWindowRect
EXTRN	?ScreenToClient@CWnd@@QBEXPAUtagRECT@@@Z:NEAR	; CWnd::ScreenToClient
EXTRN	?InvalidateRect@CWnd@@QAEXPBUtagRECT@@H@Z:NEAR	; CWnd::InvalidateRect
EXTRN	?GetParent@CWnd@@QBEPAV1@XZ:NEAR		; CWnd::GetParent
; Function compile flags: /Odt /RTCsu
_TEXT	SEGMENT
_rect$187715 = -28					; size = 16
_pParent$ = -8						; size = 4
_this$ = -4						; size = 4
?InvalidateParent@CxStaticText@@IAEXXZ PROC NEAR	; CxStaticText::InvalidateParent
; _this$ = ecx

; 338  : {

  013a0	55		 push	 ebp
  013a1	8b ec		 mov	 ebp, esp
  013a3	83 ec 20	 sub	 esp, 32			; 00000020H
  013a6	b8 cc cc cc cc	 mov	 eax, -858993460		; ccccccccH
  013ab	89 45 e0	 mov	 DWORD PTR [ebp-32], eax
  013ae	89 45 e4	 mov	 DWORD PTR [ebp-28], eax
  013b1	89 45 e8	 mov	 DWORD PTR [ebp-24], eax
  013b4	89 45 ec	 mov	 DWORD PTR [ebp-20], eax
  013b7	89 45 f0	 mov	 DWORD PTR [ebp-16], eax
  013ba	89 45 f4	 mov	 DWORD PTR [ebp-12], eax
  013bd	89 45 f8	 mov	 DWORD PTR [ebp-8], eax
  013c0	89 45 fc	 mov	 DWORD PTR [ebp-4], eax
  013c3	89 4d fc	 mov	 DWORD PTR _this$[ebp], ecx

; 339  : 	CWnd* pParent=GetParent();

  013c6	8b 4d fc	 mov	 ecx, DWORD PTR _this$[ebp]
  013c9	e8 00 00 00 00	 call	 ?GetParent@CWnd@@QBEPAV1@XZ ; CWnd::GetParent
  013ce	89 45 f8	 mov	 DWORD PTR _pParent$[ebp], eax

; 340  : 	if (pParent){

  013d1	83 7d f8 00	 cmp	 DWORD PTR _pParent$[ebp], 0
  013d5	74 26		 je	 SHORT $L187712

; 341  : 		RECT rect;
; 342  : 		GetWindowRect(&rect);

  013d7	8d 45 e4	 lea	 eax, DWORD PTR _rect$187715[ebp]
  013da	50		 push	 eax
  013db	8b 4d fc	 mov	 ecx, DWORD PTR _this$[ebp]
  013de	e8 00 00 00 00	 call	 ?GetWindowRect@CWnd@@QBEXPAUtagRECT@@@Z ; CWnd::GetWindowRect

; 343  : 		pParent->ScreenToClient(&rect);

  013e3	8d 4d e4	 lea	 ecx, DWORD PTR _rect$187715[ebp]
  013e6	51		 push	 ecx
  013e7	8b 4d f8	 mov	 ecx, DWORD PTR _pParent$[ebp]
  013ea	e8 00 00 00 00	 call	 ?ScreenToClient@CWnd@@QBEXPAUtagRECT@@@Z ; CWnd::ScreenToClient

; 344  : 		pParent->InvalidateRect(&rect,0);

  013ef	6a 00		 push	 0
  013f1	8d 55 e4	 lea	 edx, DWORD PTR _rect$187715[ebp]
  013f4	52		 push	 edx
  013f5	8b 4d f8	 mov	 ecx, DWORD PTR _pParent$[ebp]
  013f8	e8 00 00 00 00	 call	 ?InvalidateRect@CWnd@@QAEXPBUtagRECT@@H@Z ; CWnd::InvalidateRect
$L187712:

; 345  : 	}
; 346  : }

  013fd	52		 push	 edx
  013fe	8b cd		 mov	 ecx, ebp
  01400	50		 push	 eax
  01401	8d 15 00 00 00
	00		 lea	 edx, DWORD PTR $L189165
  01407	e8 00 00 00 00	 call	 @_RTC_CheckStackVars@8
  0140c	58		 pop	 eax
  0140d	5a		 pop	 edx
  0140e	83 c4 20	 add	 esp, 32			; 00000020H
  01411	3b ec		 cmp	 ebp, esp
  01413	e8 00 00 00 00	 call	 __RTC_CheckEsp
  01418	8b e5		 mov	 esp, ebp
  0141a	5d		 pop	 ebp
  0141b	c3		 ret	 0
$L189165:
  0141c	01 00 00 00	 DD	 1
  01420	00 00 00 00	 DD	 $L189164
$L189164:
  01424	e4 ff ff ff	 DD	 -28			; ffffffe4H
  01428	10 00 00 00	 DD	 16			; 00000010H
  0142c	00 00 00 00	 DD	 $L189163
$L189163:
  01430	72		 DB	 114			; 00000072H
  01431	65		 DB	 101			; 00000065H
  01432	63		 DB	 99			; 00000063H
  01433	74		 DB	 116			; 00000074H
  01434	00		 DB	 0
?InvalidateParent@CxStaticText@@IAEXXZ ENDP		; CxStaticText::InvalidateParent
_TEXT	ENDS
PUBLIC	?SetWindowTextA@CxStaticText@@QAEXPBD@Z		; CxStaticText::SetWindowTextA
PUBLIC	?SetToolTipText@CxStaticText@@IAEXV?$CStringT@DV?$StrTraitMFC_DLL@DV?$ChTraitsCRT@D@ATL@@@@@ATL@@@Z ; CxStaticText::SetToolTipText
; Function compile flags: /Odt /RTCsu
_TEXT	SEGMENT
tv88 = -12						; size = 4
$T189167 = -8						; size = 4
_this$ = -4						; size = 4
_lpszString$ = 8					; size = 4
?SetWindowTextA@CxStaticText@@QAEXPBD@Z PROC NEAR	; CxStaticText::SetWindowTextA
; _this$ = ecx

; 349  : {

  01440	55		 push	 ebp
  01441	8b ec		 mov	 ebp, esp
  01443	83 ec 0c	 sub	 esp, 12			; 0000000cH
  01446	56		 push	 esi
  01447	c7 45 f4 cc cc
	cc cc		 mov	 DWORD PTR [ebp-12], -858993460 ; ccccccccH
  0144e	c7 45 f8 cc cc
	cc cc		 mov	 DWORD PTR [ebp-8], -858993460 ; ccccccccH
  01455	c7 45 fc cc cc
	cc cc		 mov	 DWORD PTR [ebp-4], -858993460 ; ccccccccH
  0145c	89 4d fc	 mov	 DWORD PTR _this$[ebp], ecx

; 350  : 	//CStatic::SetWindowText(lpszString);
; 351  : 	m_strWindowText = lpszString;

  0145f	8b f4		 mov	 esi, esp
  01461	8b 45 08	 mov	 eax, DWORD PTR _lpszString$[ebp]
  01464	50		 push	 eax
  01465	8b 4d fc	 mov	 ecx, DWORD PTR _this$[ebp]
  01468	83 c1 78	 add	 ecx, 120		; 00000078H
  0146b	ff 15 00 00 00
	00		 call	 DWORD PTR __imp_??4?$CStringT@DV?$StrTraitMFC_DLL@DV?$ChTraitsCRT@D@ATL@@@@@ATL@@QAEAAV01@PBD@Z
  01471	3b f4		 cmp	 esi, esp
  01473	e8 00 00 00 00	 call	 __RTC_CheckEsp

; 352  : 	Invalidate(0);

  01478	6a 00		 push	 0
  0147a	8b 4d fc	 mov	 ecx, DWORD PTR _this$[ebp]
  0147d	e8 00 00 00 00	 call	 ?Invalidate@CWnd@@QAEXH@Z ; CWnd::Invalidate

; 353  : 
; 354  : 	if (m_EnableToolTip)

  01482	8b 4d fc	 mov	 ecx, DWORD PTR _this$[ebp]
  01485	0f b6 51 7c	 movzx	 edx, BYTE PTR [ecx+124]
  01489	85 d2		 test	 edx, edx
  0148b	74 24		 je	 SHORT $L187719

; 355  : 	{
; 356  : 		SetToolTipText(lpszString);

  0148d	51		 push	 ecx
  0148e	8b cc		 mov	 ecx, esp
  01490	89 65 f8	 mov	 DWORD PTR $T189167[ebp], esp
  01493	8b f4		 mov	 esi, esp
  01495	8b 45 08	 mov	 eax, DWORD PTR _lpszString$[ebp]
  01498	50		 push	 eax
  01499	ff 15 00 00 00
	00		 call	 DWORD PTR __imp_??0?$CStringT@DV?$StrTraitMFC_DLL@DV?$ChTraitsCRT@D@ATL@@@@@ATL@@QAE@PBD@Z
  0149f	3b f4		 cmp	 esi, esp
  014a1	e8 00 00 00 00	 call	 __RTC_CheckEsp
  014a6	89 45 f4	 mov	 DWORD PTR tv88[ebp], eax
  014a9	8b 4d fc	 mov	 ecx, DWORD PTR _this$[ebp]
  014ac	e8 00 00 00 00	 call	 ?SetToolTipText@CxStaticText@@IAEXV?$CStringT@DV?$StrTraitMFC_DLL@DV?$ChTraitsCRT@D@ATL@@@@@ATL@@@Z ; CxStaticText::SetToolTipText
$L187719:

; 357  : 	}
; 358  : 
; 359  : }

  014b1	5e		 pop	 esi
  014b2	83 c4 0c	 add	 esp, 12			; 0000000cH
  014b5	3b ec		 cmp	 ebp, esp
  014b7	e8 00 00 00 00	 call	 __RTC_CheckEsp
  014bc	8b e5		 mov	 esp, ebp
  014be	5d		 pop	 ebp
  014bf	c2 04 00	 ret	 4
?SetWindowTextA@CxStaticText@@QAEXPBD@Z ENDP		; CxStaticText::SetWindowTextA
_TEXT	ENDS
PUBLIC	?SetSkin@CxStaticText@@QAEXPAVCDibBitmap@@0F@Z	; CxStaticText::SetSkin
PUBLIC	?CreateRgnFromBitmap@CxStaticText@@IAEPAUHRGN__@@PAVCDibBitmap@@K@Z ; CxStaticText::CreateRgnFromBitmap
PUBLIC	?GetBitmapWidth@CxStaticText@@IAEHPAVCDibBitmap@@@Z ; CxStaticText::GetBitmapWidth
PUBLIC	?GetBitmapHeight@CxStaticText@@IAEHPAVCDibBitmap@@@Z ; CxStaticText::GetBitmapHeight
EXTRN	__imp__SelectClipRgn@8:NEAR
EXTRN	__imp__DeleteObject@4:NEAR
EXTRN	?SetWindowRgn@CWnd@@QAEHPAUHRGN__@@H@Z:NEAR	; CWnd::SetWindowRgn
EXTRN	?SetWindowPos@CWnd@@QAEHPBV1@HHHHI@Z:NEAR	; CWnd::SetWindowPos
EXTRN	?GetDC@CWnd@@QAEPAVCDC@@XZ:NEAR			; CWnd::GetDC
; Function compile flags: /Odt /RTCsu
_TEXT	SEGMENT
tv75 = -16						; size = 4
tv76 = -12						; size = 4
tv70 = -8						; size = 4
_this$ = -4						; size = 4
_abmpNormal$ = 8					; size = 4
_abmpMask$ = 12						; size = 4
_aiDrawmode$ = 16					; size = 2
?SetSkin@CxStaticText@@QAEXPAVCDibBitmap@@0F@Z PROC NEAR ; CxStaticText::SetSkin
; _this$ = ecx

; 362  : {

  014d0	55		 push	 ebp
  014d1	8b ec		 mov	 ebp, esp
  014d3	83 ec 10	 sub	 esp, 16			; 00000010H
  014d6	56		 push	 esi
  014d7	b8 cc cc cc cc	 mov	 eax, -858993460		; ccccccccH
  014dc	89 45 f0	 mov	 DWORD PTR [ebp-16], eax
  014df	89 45 f4	 mov	 DWORD PTR [ebp-12], eax
  014e2	89 45 f8	 mov	 DWORD PTR [ebp-8], eax
  014e5	89 45 fc	 mov	 DWORD PTR [ebp-4], eax
  014e8	89 4d fc	 mov	 DWORD PTR _this$[ebp], ecx

; 363  : 	mpBmpNormal = abmpNormal;

  014eb	8b 45 fc	 mov	 eax, DWORD PTR _this$[ebp]
  014ee	8b 4d 08	 mov	 ecx, DWORD PTR _abmpNormal$[ebp]
  014f1	89 88 88 00 00
	00		 mov	 DWORD PTR [eax+136], ecx

; 364  : 	mpBmpMask = abmpMask;

  014f7	8b 55 fc	 mov	 edx, DWORD PTR _this$[ebp]
  014fa	8b 45 0c	 mov	 eax, DWORD PTR _abmpMask$[ebp]
  014fd	89 82 8c 00 00
	00		 mov	 DWORD PTR [edx+140], eax

; 365  : 	m_DrawMode=max(0,min(aiDrawmode,2)); 

  01503	0f bf 4d 10	 movsx	 ecx, WORD PTR _aiDrawmode$[ebp]
  01507	83 f9 02	 cmp	 ecx, 2
  0150a	7d 09		 jge	 SHORT $L189170
  0150c	0f bf 55 10	 movsx	 edx, WORD PTR _aiDrawmode$[ebp]
  01510	89 55 f8	 mov	 DWORD PTR tv70[ebp], edx
  01513	eb 07		 jmp	 SHORT $L189171
$L189170:
  01515	c7 45 f8 02 00
	00 00		 mov	 DWORD PTR tv70[ebp], 2
$L189171:
  0151c	83 7d f8 00	 cmp	 DWORD PTR tv70[ebp], 0
  01520	7d 09		 jge	 SHORT $L189174
  01522	c7 45 f4 00 00
	00 00		 mov	 DWORD PTR tv76[ebp], 0
  01529	eb 1f		 jmp	 SHORT $L189175
$L189174:
  0152b	0f bf 45 10	 movsx	 eax, WORD PTR _aiDrawmode$[ebp]
  0152f	83 f8 02	 cmp	 eax, 2
  01532	7d 09		 jge	 SHORT $L189172
  01534	0f bf 4d 10	 movsx	 ecx, WORD PTR _aiDrawmode$[ebp]
  01538	89 4d f0	 mov	 DWORD PTR tv75[ebp], ecx
  0153b	eb 07		 jmp	 SHORT $L189173
$L189172:
  0153d	c7 45 f0 02 00
	00 00		 mov	 DWORD PTR tv75[ebp], 2
$L189173:
  01544	8b 55 f0	 mov	 edx, DWORD PTR tv75[ebp]
  01547	89 55 f4	 mov	 DWORD PTR tv76[ebp], edx
$L189175:
  0154a	8b 45 fc	 mov	 eax, DWORD PTR _this$[ebp]
  0154d	66 8b 4d f4	 mov	 cx, WORD PTR tv76[ebp]
  01551	66 89 88 84 00
	00 00		 mov	 WORD PTR [eax+132], cx

; 366  : 	if (abmpMask!=0){		

  01558	83 7d 0c 00	 cmp	 DWORD PTR _abmpMask$[ebp], 0
  0155c	0f 84 b9 00 00
	00		 je	 $L187727

; 367  : 		if (hClipRgn) DeleteObject(hClipRgn);

  01562	8b 55 fc	 mov	 edx, DWORD PTR _this$[ebp]
  01565	83 ba 04 01 00
	00 00		 cmp	 DWORD PTR [edx+260], 0
  0156c	74 19		 je	 SHORT $L187729
  0156e	8b f4		 mov	 esi, esp
  01570	8b 45 fc	 mov	 eax, DWORD PTR _this$[ebp]
  01573	8b 88 04 01 00
	00		 mov	 ecx, DWORD PTR [eax+260]
  01579	51		 push	 ecx
  0157a	ff 15 00 00 00
	00		 call	 DWORD PTR __imp__DeleteObject@4
  01580	3b f4		 cmp	 esi, esp
  01582	e8 00 00 00 00	 call	 __RTC_CheckEsp
$L187729:

; 368  : 		hClipRgn = CreateRgnFromBitmap(abmpMask,RGB(255,255,255));

  01587	68 ff ff ff 00	 push	 16777215		; 00ffffffH
  0158c	8b 55 0c	 mov	 edx, DWORD PTR _abmpMask$[ebp]
  0158f	52		 push	 edx
  01590	8b 4d fc	 mov	 ecx, DWORD PTR _this$[ebp]
  01593	e8 00 00 00 00	 call	 ?CreateRgnFromBitmap@CxStaticText@@IAEPAUHRGN__@@PAVCDibBitmap@@K@Z ; CxStaticText::CreateRgnFromBitmap
  01598	8b 4d fc	 mov	 ecx, DWORD PTR _this$[ebp]
  0159b	89 81 04 01 00
	00		 mov	 DWORD PTR [ecx+260], eax

; 369  : 		if (hClipRgn){

  015a1	8b 55 fc	 mov	 edx, DWORD PTR _this$[ebp]
  015a4	83 ba 04 01 00
	00 00		 cmp	 DWORD PTR [edx+260], 0
  015ab	74 36		 je	 SHORT $L187736

; 370  : 			SetWindowRgn(hClipRgn, TRUE);

  015ad	6a 01		 push	 1
  015af	8b 45 fc	 mov	 eax, DWORD PTR _this$[ebp]
  015b2	8b 88 04 01 00
	00		 mov	 ecx, DWORD PTR [eax+260]
  015b8	51		 push	 ecx
  015b9	8b 4d fc	 mov	 ecx, DWORD PTR _this$[ebp]
  015bc	e8 00 00 00 00	 call	 ?SetWindowRgn@CWnd@@QAEHPAUHRGN__@@H@Z ; CWnd::SetWindowRgn

; 371  : 			SelectClipRgn((HDC)GetDC(),hClipRgn);

  015c1	8b f4		 mov	 esi, esp
  015c3	8b 55 fc	 mov	 edx, DWORD PTR _this$[ebp]
  015c6	8b 82 04 01 00
	00		 mov	 eax, DWORD PTR [edx+260]
  015cc	50		 push	 eax
  015cd	8b 4d fc	 mov	 ecx, DWORD PTR _this$[ebp]
  015d0	e8 00 00 00 00	 call	 ?GetDC@CWnd@@QAEPAVCDC@@XZ ; CWnd::GetDC
  015d5	50		 push	 eax
  015d6	ff 15 00 00 00
	00		 call	 DWORD PTR __imp__SelectClipRgn@8
  015dc	3b f4		 cmp	 esi, esp
  015de	e8 00 00 00 00	 call	 __RTC_CheckEsp
$L187736:

; 372  : 		}
; 373  : 		if (m_DrawMode==0){

  015e3	8b 4d fc	 mov	 ecx, DWORD PTR _this$[ebp]
  015e6	0f bf 91 84 00
	00 00		 movsx	 edx, WORD PTR [ecx+132]
  015ed	85 d2		 test	 edx, edx
  015ef	75 2a		 jne	 SHORT $L187727

; 374  : 			SetWindowPos(NULL,0,0,GetBitmapWidth(abmpMask),
; 375  : 						GetBitmapHeight(abmpMask),SWP_NOZORDER|SWP_NOMOVE);

  015f1	6a 06		 push	 6
  015f3	8b 45 0c	 mov	 eax, DWORD PTR _abmpMask$[ebp]
  015f6	50		 push	 eax
  015f7	8b 4d fc	 mov	 ecx, DWORD PTR _this$[ebp]
  015fa	e8 00 00 00 00	 call	 ?GetBitmapHeight@CxStaticText@@IAEHPAVCDibBitmap@@@Z ; CxStaticText::GetBitmapHeight
  015ff	50		 push	 eax
  01600	8b 4d 0c	 mov	 ecx, DWORD PTR _abmpMask$[ebp]
  01603	51		 push	 ecx
  01604	8b 4d fc	 mov	 ecx, DWORD PTR _this$[ebp]
  01607	e8 00 00 00 00	 call	 ?GetBitmapWidth@CxStaticText@@IAEHPAVCDibBitmap@@@Z ; CxStaticText::GetBitmapWidth
  0160c	50		 push	 eax
  0160d	6a 00		 push	 0
  0160f	6a 00		 push	 0
  01611	6a 00		 push	 0
  01613	8b 4d fc	 mov	 ecx, DWORD PTR _this$[ebp]
  01616	e8 00 00 00 00	 call	 ?SetWindowPos@CWnd@@QAEHPBV1@HHHHI@Z ; CWnd::SetWindowPos
$L187727:

; 376  : 		}
; 377  : 	}
; 378  : }

  0161b	5e		 pop	 esi
  0161c	83 c4 10	 add	 esp, 16			; 00000010H
  0161f	3b ec		 cmp	 ebp, esp
  01621	e8 00 00 00 00	 call	 __RTC_CheckEsp
  01626	8b e5		 mov	 esp, ebp
  01628	5d		 pop	 ebp
  01629	c2 0c 00	 ret	 12			; 0000000cH
?SetSkin@CxStaticText@@QAEXPAVCDibBitmap@@0F@Z ENDP	; CxStaticText::SetSkin
_TEXT	ENDS
EXTRN	?GetPixel@CDC@@QBEKHH@Z:NEAR			; CDC::GetPixel
EXTRN	??3@YAXPAX@Z:NEAR				; operator delete
EXTRN	__imp__CombineRgn@16:NEAR
EXTRN	__imp__CreateRectRgn@16:NEAR
EXTRN	??1CDC@@UAE@XZ:NEAR				; CDC::~CDC
EXTRN	?AfxAssertFailedLine@@YGHPBDH@Z:NEAR		; AfxAssertFailedLine
EXTRN	??0CBitmap@@QAE@XZ:NEAR				; CBitmap::CBitmap
EXTRN	??0CRect@@QAE@HHHH@Z:NEAR			; CRect::CRect
EXTRN	?CreateCompatibleBitmap@CBitmap@@QAEHPAVCDC@@HH@Z:NEAR ; CBitmap::CreateCompatibleBitmap
EXTRN	?Draw@CDibBitmap@@QAEHPAVCDC@@HKH@Z:NEAR	; CDibBitmap::Draw
EXTRN	??1CBitmap@@UAE@XZ:NEAR				; CBitmap::~CBitmap
EXTRN	??0CDC@@QAE@XZ:NEAR				; CDC::CDC
EXTRN	?CreateCompatibleDC@CDC@@QAEHPAV1@@Z:NEAR	; CDC::CreateCompatibleDC
EXTRN	?DeleteDC@CDC@@QAEHXZ:NEAR			; CDC::DeleteDC
EXTRN	?SelectObject@CDC@@QAEPAVCBitmap@@PAV2@@Z:NEAR	; CDC::SelectObject
EXTRN	_memcpy:NEAR
xdata$x	SEGMENT
$T189196 DD	0ffffffffH
	DD	FLAT:$L189186
	DD	00H
	DD	FLAT:$L189187
$T189189 DD	019930520H
	DD	02H
	DD	FLAT:$T189196
	DD	2 DUP(00H)
	DD	2 DUP(00H)
; Function compile flags: /Odt /RTCsu
xdata$x	ENDS
_TEXT	SEGMENT
$T189185 = -176						; size = 4
$T189184 = -172						; size = 4
$T189180 = -168						; size = 4
$T189179 = -164						; size = 4
$T189178 = -160						; size = 16
$T189177 = -144						; size = 4
_hr$187796 = -140					; size = 4
_hRgn$ = -136						; size = 4
_pRgnDataNew$187779 = -132				; size = 4
_c$187771 = -128					; size = 4
_pRgnData$ = -124					; size = 4
_ismask$ = -118						; size = 1
_wasfirst$ = -117					; size = 1
_first$ = -116						; size = 4
_j$ = -112						; size = 4
_i$ = -108						; size = 4
_cBlocks$ = -104					; size = 4
_pRects$ = -100						; size = 4
_MAXBUF$ = -96						; size = 4
_RDHDR$ = -92						; size = 4
_rect$ = -84						; size = 16
_hBitmap$ = -60						; size = 8
_hdcMem$ = -44						; size = 16
_cy$ = -24						; size = 4
_cx$ = -20						; size = 4
_this$ = -16						; size = 4
__$EHRec$ = -12						; size = 12
_hBmp$ = 8						; size = 4
_color$ = 12						; size = 4
?CreateRgnFromBitmap@CxStaticText@@IAEPAUHRGN__@@PAVCDibBitmap@@K@Z PROC NEAR ; CxStaticText::CreateRgnFromBitmap
; _this$ = ecx

; 380  : {

  01630	55		 push	 ebp
  01631	8b ec		 mov	 ebp, esp
  01633	6a ff		 push	 -1
  01635	68 00 00 00 00	 push	 __ehhandler$?CreateRgnFromBitmap@CxStaticText@@IAEPAUHRGN__@@PAVCDibBitmap@@K@Z
  0163a	64 a1 00 00 00
	00		 mov	 eax, DWORD PTR fs:__except_list
  01640	50		 push	 eax
  01641	64 89 25 00 00
	00 00		 mov	 DWORD PTR fs:__except_list, esp
  01648	81 ec a4 00 00
	00		 sub	 esp, 164		; 000000a4H
  0164e	56		 push	 esi
  0164f	57		 push	 edi
  01650	51		 push	 ecx
  01651	8d bd 50 ff ff
	ff		 lea	 edi, DWORD PTR [ebp-176]
  01657	b9 29 00 00 00	 mov	 ecx, 41			; 00000029H
  0165c	b8 cc cc cc cc	 mov	 eax, -858993460		; ccccccccH
  01661	f3 ab		 rep stosd
  01663	59		 pop	 ecx
  01664	89 4d f0	 mov	 DWORD PTR _this$[ebp], ecx

; 381  : 	int cx = hBmp->m_lpBMIH->biWidth;

  01667	8b 45 08	 mov	 eax, DWORD PTR _hBmp$[ebp]
  0166a	8b 48 04	 mov	 ecx, DWORD PTR [eax+4]
  0166d	8b 51 04	 mov	 edx, DWORD PTR [ecx+4]
  01670	89 55 ec	 mov	 DWORD PTR _cx$[ebp], edx

; 382  : 	int cy = hBmp->m_lpBMIH->biHeight;

  01673	8b 45 08	 mov	 eax, DWORD PTR _hBmp$[ebp]
  01676	8b 48 04	 mov	 ecx, DWORD PTR [eax+4]
  01679	8b 51 08	 mov	 edx, DWORD PTR [ecx+8]
  0167c	89 55 e8	 mov	 DWORD PTR _cy$[ebp], edx

; 383  : 	CDC hdcMem;

  0167f	8d 4d d4	 lea	 ecx, DWORD PTR _hdcMem$[ebp]
  01682	e8 00 00 00 00	 call	 ??0CDC@@QAE@XZ		; CDC::CDC
  01687	c7 45 fc 00 00
	00 00		 mov	 DWORD PTR __$EHRec$[ebp+8], 0

; 384  : 	hdcMem.CreateCompatibleDC(NULL);

  0168e	6a 00		 push	 0
  01690	8d 4d d4	 lea	 ecx, DWORD PTR _hdcMem$[ebp]
  01693	e8 00 00 00 00	 call	 ?CreateCompatibleDC@CDC@@QAEHPAV1@@Z ; CDC::CreateCompatibleDC

; 385  : 	CBitmap hBitmap;

  01698	8d 4d c4	 lea	 ecx, DWORD PTR _hBitmap$[ebp]
  0169b	e8 00 00 00 00	 call	 ??0CBitmap@@QAE@XZ	; CBitmap::CBitmap
  016a0	c6 45 fc 01	 mov	 BYTE PTR __$EHRec$[ebp+8], 1

; 386  : 	hBitmap.CreateCompatibleBitmap(&hdcMem,cx,cy);//dc

  016a4	8b 45 e8	 mov	 eax, DWORD PTR _cy$[ebp]
  016a7	50		 push	 eax
  016a8	8b 4d ec	 mov	 ecx, DWORD PTR _cx$[ebp]
  016ab	51		 push	 ecx
  016ac	8d 55 d4	 lea	 edx, DWORD PTR _hdcMem$[ebp]
  016af	52		 push	 edx
  016b0	8d 4d c4	 lea	 ecx, DWORD PTR _hBitmap$[ebp]
  016b3	e8 00 00 00 00	 call	 ?CreateCompatibleBitmap@CBitmap@@QAEHPAVCDC@@HH@Z ; CBitmap::CreateCompatibleBitmap

; 387  : 	hdcMem.SelectObject(&hBitmap);

  016b8	8d 45 c4	 lea	 eax, DWORD PTR _hBitmap$[ebp]
  016bb	50		 push	 eax
  016bc	8d 4d d4	 lea	 ecx, DWORD PTR _hdcMem$[ebp]
  016bf	e8 00 00 00 00	 call	 ?SelectObject@CDC@@QAEPAVCBitmap@@PAV2@@Z ; CDC::SelectObject

; 388  : 	CRect rect(0,0,cx,cy);	

  016c4	8b 4d e8	 mov	 ecx, DWORD PTR _cy$[ebp]
  016c7	51		 push	 ecx
  016c8	8b 55 ec	 mov	 edx, DWORD PTR _cx$[ebp]
  016cb	52		 push	 edx
  016cc	6a 00		 push	 0
  016ce	6a 00		 push	 0
  016d0	8d 4d ac	 lea	 ecx, DWORD PTR _rect$[ebp]
  016d3	e8 00 00 00 00	 call	 ??0CRect@@QAE@HHHH@Z	; CRect::CRect

; 389  : 	//this->Draw(&hdcMem,FALSE);
; 390  : 	//CDib::Draw(&hdcMem, CPoint(0,0), CSize(cx,cy),FALSE);	
; 391  : 	hBmp->Draw(&hdcMem,FALSE);

  016d8	6a 01		 push	 1
  016da	6a 00		 push	 0
  016dc	6a 00		 push	 0
  016de	8d 45 d4	 lea	 eax, DWORD PTR _hdcMem$[ebp]
  016e1	50		 push	 eax
  016e2	8b 4d 08	 mov	 ecx, DWORD PTR _hBmp$[ebp]
  016e5	e8 00 00 00 00	 call	 ?Draw@CDibBitmap@@QAEHPAVCDC@@HKH@Z ; CDibBitmap::Draw

; 392  : 
; 393  : 	const DWORD RDHDR = sizeof(RGNDATAHEADER);

  016ea	c7 45 a4 20 00
	00 00		 mov	 DWORD PTR _RDHDR$[ebp], 32 ; 00000020H

; 394  : 	const DWORD MAXBUF = 40;		// size of one block in RECTs

  016f1	c7 45 a0 28 00
	00 00		 mov	 DWORD PTR _MAXBUF$[ebp], 40 ; 00000028H

; 395  : 									// (i.e. MAXBUF*sizeof(RECT) in bytes)
; 396  : 	LPRECT	pRects;								
; 397  : 	DWORD	cBlocks = 0;			// number of allocated blocks

  016f8	c7 45 98 00 00
	00 00		 mov	 DWORD PTR _cBlocks$[ebp], 0

; 398  : 
; 399  : 	INT		i, j;					// current position in mask image
; 400  : 	INT		first = 0;				// left position of current scan line

  016ff	c7 45 8c 00 00
	00 00		 mov	 DWORD PTR _first$[ebp], 0

; 401  : 									// where mask was found
; 402  : 	bool	wasfirst = false;		// set when if mask was found in current scan line

  01706	c6 45 8b 00	 mov	 BYTE PTR _wasfirst$[ebp], 0

; 403  : 	bool	ismask;					// set when current color is mask color
; 404  : 
; 405  : 	// allocate memory for region data
; 406  : 	RGNDATAHEADER* pRgnData = (RGNDATAHEADER*)new BYTE[ RDHDR + ++cBlocks * MAXBUF * sizeof(RECT) ];

  0170a	8b 4d 98	 mov	 ecx, DWORD PTR _cBlocks$[ebp]
  0170d	83 c1 01	 add	 ecx, 1
  01710	89 4d 98	 mov	 DWORD PTR _cBlocks$[ebp], ecx
  01713	68 96 01 00 00	 push	 406			; 00000196H
  01718	68 00 00 00 00	 push	 OFFSET FLAT:_THIS_FILE
  0171d	8b 55 98	 mov	 edx, DWORD PTR _cBlocks$[ebp]
  01720	6b d2 28	 imul	 edx, 40			; 00000028H
  01723	c1 e2 04	 shl	 edx, 4
  01726	83 c2 20	 add	 edx, 32			; 00000020H
  01729	52		 push	 edx
  0172a	e8 00 00 00 00	 call	 ??_U@YAPAXIPBDH@Z	; operator new[]
  0172f	83 c4 0c	 add	 esp, 12			; 0000000cH
  01732	89 85 70 ff ff
	ff		 mov	 DWORD PTR $T189177[ebp], eax
  01738	8b 85 70 ff ff
	ff		 mov	 eax, DWORD PTR $T189177[ebp]
  0173e	89 45 84	 mov	 DWORD PTR _pRgnData$[ebp], eax

; 407  : 	memset( pRgnData, 0, RDHDR + cBlocks * MAXBUF * sizeof(RECT) );

  01741	8b 4d 98	 mov	 ecx, DWORD PTR _cBlocks$[ebp]
  01744	6b c9 28	 imul	 ecx, 40			; 00000028H
  01747	c1 e1 04	 shl	 ecx, 4
  0174a	83 c1 20	 add	 ecx, 32			; 00000020H
  0174d	51		 push	 ecx
  0174e	6a 00		 push	 0
  01750	8b 55 84	 mov	 edx, DWORD PTR _pRgnData$[ebp]
  01753	52		 push	 edx
  01754	e8 00 00 00 00	 call	 _memset
  01759	83 c4 0c	 add	 esp, 12			; 0000000cH

; 408  : 	// fill it by default
; 409  : 	pRgnData->dwSize	= RDHDR;

  0175c	8b 45 84	 mov	 eax, DWORD PTR _pRgnData$[ebp]
  0175f	c7 00 20 00 00
	00		 mov	 DWORD PTR [eax], 32	; 00000020H

; 410  : 	pRgnData->iType		= RDH_RECTANGLES;

  01765	8b 4d 84	 mov	 ecx, DWORD PTR _pRgnData$[ebp]
  01768	c7 41 04 01 00
	00 00		 mov	 DWORD PTR [ecx+4], 1

; 411  : 	pRgnData->nCount	= 0;

  0176f	8b 55 84	 mov	 edx, DWORD PTR _pRgnData$[ebp]
  01772	c7 42 08 00 00
	00 00		 mov	 DWORD PTR [edx+8], 0

; 412  : 	for ( i = 0; i < cy; i++ )

  01779	c7 45 94 00 00
	00 00		 mov	 DWORD PTR _i$[ebp], 0
  01780	eb 09		 jmp	 SHORT $L187765
$L187766:
  01782	8b 45 94	 mov	 eax, DWORD PTR _i$[ebp]
  01785	83 c0 01	 add	 eax, 1
  01788	89 45 94	 mov	 DWORD PTR _i$[ebp], eax
$L187765:
  0178b	8b 4d 94	 mov	 ecx, DWORD PTR _i$[ebp]
  0178e	3b 4d e8	 cmp	 ecx, DWORD PTR _cy$[ebp]
  01791	0f 8d b0 01 00
	00		 jge	 $L187767

; 413  : 	for ( j = 0; j < cx; j++ ){

  01797	c7 45 90 00 00
	00 00		 mov	 DWORD PTR _j$[ebp], 0
  0179e	eb 09		 jmp	 SHORT $L187768
$L187769:
  017a0	8b 55 90	 mov	 edx, DWORD PTR _j$[ebp]
  017a3	83 c2 01	 add	 edx, 1
  017a6	89 55 90	 mov	 DWORD PTR _j$[ebp], edx
$L187768:
  017a9	8b 45 90	 mov	 eax, DWORD PTR _j$[ebp]
  017ac	3b 45 ec	 cmp	 eax, DWORD PTR _cx$[ebp]
  017af	0f 8d 8d 01 00
	00		 jge	 $L187770

; 414  : 		// get color
; 415  : 		COLORREF c =  hdcMem.GetPixel(j,cy-i-1);

  017b5	8b 4d e8	 mov	 ecx, DWORD PTR _cy$[ebp]
  017b8	2b 4d 94	 sub	 ecx, DWORD PTR _i$[ebp]
  017bb	83 e9 01	 sub	 ecx, 1
  017be	51		 push	 ecx
  017bf	8b 55 90	 mov	 edx, DWORD PTR _j$[ebp]
  017c2	52		 push	 edx
  017c3	8d 4d d4	 lea	 ecx, DWORD PTR _hdcMem$[ebp]
  017c6	e8 00 00 00 00	 call	 ?GetPixel@CDC@@QBEKHH@Z	; CDC::GetPixel
  017cb	89 45 80	 mov	 DWORD PTR _c$187771[ebp], eax

; 416  : 		ismask=(hdcMem.GetPixel(j,cy-i-1)!=color);

  017ce	8b 45 e8	 mov	 eax, DWORD PTR _cy$[ebp]
  017d1	2b 45 94	 sub	 eax, DWORD PTR _i$[ebp]
  017d4	83 e8 01	 sub	 eax, 1
  017d7	50		 push	 eax
  017d8	8b 4d 90	 mov	 ecx, DWORD PTR _j$[ebp]
  017db	51		 push	 ecx
  017dc	8d 4d d4	 lea	 ecx, DWORD PTR _hdcMem$[ebp]
  017df	e8 00 00 00 00	 call	 ?GetPixel@CDC@@QBEKHH@Z	; CDC::GetPixel
  017e4	33 d2		 xor	 edx, edx
  017e6	3b 45 0c	 cmp	 eax, DWORD PTR _color$[ebp]
  017e9	0f 95 c2	 setne	 dl
  017ec	88 55 8a	 mov	 BYTE PTR _ismask$[ebp], dl

; 417  : 		/*if(c)
; 418  : 		{
; 419  : 			c=0;
; 420  : 		}*/
; 421  : 		// place part of scan line as RECT region if transparent color found after mask color or
; 422  : 		// mask color found at the end of mask image
; 423  : 		if (wasfirst && ((ismask && (j==(cx-1)))||(ismask ^ (j<cx)))){

  017ef	0f b6 45 8b	 movzx	 eax, BYTE PTR _wasfirst$[ebp]
  017f3	85 c0		 test	 eax, eax
  017f5	0f 84 28 01 00
	00		 je	 $L187772
  017fb	0f b6 4d 8a	 movzx	 ecx, BYTE PTR _ismask$[ebp]
  017ff	85 c9		 test	 ecx, ecx
  01801	74 0b		 je	 SHORT $L187774
  01803	8b 55 ec	 mov	 edx, DWORD PTR _cx$[ebp]
  01806	83 ea 01	 sub	 edx, 1
  01809	39 55 90	 cmp	 DWORD PTR _j$[ebp], edx
  0180c	74 17		 je	 SHORT $L187773
$L187774:
  0180e	0f b6 45 8a	 movzx	 eax, BYTE PTR _ismask$[ebp]
  01812	8b 4d 90	 mov	 ecx, DWORD PTR _j$[ebp]
  01815	33 d2		 xor	 edx, edx
  01817	3b 4d ec	 cmp	 ecx, DWORD PTR _cx$[ebp]
  0181a	0f 9c c2	 setl	 dl
  0181d	33 c2		 xor	 eax, edx
  0181f	0f 84 fe 00 00
	00		 je	 $L187772
$L187773:

; 424  : 			// get offset to RECT array if RGNDATA buffer
; 425  : 			pRects = (LPRECT)((LPBYTE)pRgnData + RDHDR);

  01825	8b 45 84	 mov	 eax, DWORD PTR _pRgnData$[ebp]
  01828	83 c0 20	 add	 eax, 32			; 00000020H
  0182b	89 45 9c	 mov	 DWORD PTR _pRects$[ebp], eax

; 426  : 			// save current RECT
; 427  : 			pRects[ pRgnData->nCount++ ] = CRect( first, cy - i - 1, j+(j==(cx-1)), cy - i );

  0182e	8b 4d e8	 mov	 ecx, DWORD PTR _cy$[ebp]
  01831	2b 4d 94	 sub	 ecx, DWORD PTR _i$[ebp]
  01834	51		 push	 ecx
  01835	8b 55 ec	 mov	 edx, DWORD PTR _cx$[ebp]
  01838	83 ea 01	 sub	 edx, 1
  0183b	33 c0		 xor	 eax, eax
  0183d	39 55 90	 cmp	 DWORD PTR _j$[ebp], edx
  01840	0f 94 c0	 sete	 al
  01843	03 45 90	 add	 eax, DWORD PTR _j$[ebp]
  01846	50		 push	 eax
  01847	8b 4d e8	 mov	 ecx, DWORD PTR _cy$[ebp]
  0184a	2b 4d 94	 sub	 ecx, DWORD PTR _i$[ebp]
  0184d	83 e9 01	 sub	 ecx, 1
  01850	51		 push	 ecx
  01851	8b 55 8c	 mov	 edx, DWORD PTR _first$[ebp]
  01854	52		 push	 edx
  01855	8d 8d 60 ff ff
	ff		 lea	 ecx, DWORD PTR $T189178[ebp]
  0185b	e8 00 00 00 00	 call	 ??0CRect@@QAE@HHHH@Z	; CRect::CRect
  01860	8b 4d 84	 mov	 ecx, DWORD PTR _pRgnData$[ebp]
  01863	8b 51 08	 mov	 edx, DWORD PTR [ecx+8]
  01866	c1 e2 04	 shl	 edx, 4
  01869	03 55 9c	 add	 edx, DWORD PTR _pRects$[ebp]
  0186c	8b 08		 mov	 ecx, DWORD PTR [eax]
  0186e	89 0a		 mov	 DWORD PTR [edx], ecx
  01870	8b 48 04	 mov	 ecx, DWORD PTR [eax+4]
  01873	89 4a 04	 mov	 DWORD PTR [edx+4], ecx
  01876	8b 48 08	 mov	 ecx, DWORD PTR [eax+8]
  01879	89 4a 08	 mov	 DWORD PTR [edx+8], ecx
  0187c	8b 40 0c	 mov	 eax, DWORD PTR [eax+12]
  0187f	89 42 0c	 mov	 DWORD PTR [edx+12], eax
  01882	8b 4d 84	 mov	 ecx, DWORD PTR _pRgnData$[ebp]
  01885	8b 51 08	 mov	 edx, DWORD PTR [ecx+8]
  01888	83 c2 01	 add	 edx, 1
  0188b	8b 45 84	 mov	 eax, DWORD PTR _pRgnData$[ebp]
  0188e	89 50 08	 mov	 DWORD PTR [eax+8], edx

; 428  : 			// if buffer full reallocate it
; 429  : 			if ( pRgnData->nCount >= cBlocks * MAXBUF ){

  01891	8b 4d 98	 mov	 ecx, DWORD PTR _cBlocks$[ebp]
  01894	6b c9 28	 imul	 ecx, 40			; 00000028H
  01897	8b 55 84	 mov	 edx, DWORD PTR _pRgnData$[ebp]
  0189a	39 4a 08	 cmp	 DWORD PTR [edx+8], ecx
  0189d	72 7e		 jb	 SHORT $L187778

; 430  : 				LPBYTE pRgnDataNew = new BYTE[ RDHDR + ++cBlocks * MAXBUF * sizeof(RECT) ];

  0189f	8b 45 98	 mov	 eax, DWORD PTR _cBlocks$[ebp]
  018a2	83 c0 01	 add	 eax, 1
  018a5	89 45 98	 mov	 DWORD PTR _cBlocks$[ebp], eax
  018a8	68 ae 01 00 00	 push	 430			; 000001aeH
  018ad	68 00 00 00 00	 push	 OFFSET FLAT:_THIS_FILE
  018b2	8b 4d 98	 mov	 ecx, DWORD PTR _cBlocks$[ebp]
  018b5	6b c9 28	 imul	 ecx, 40			; 00000028H
  018b8	c1 e1 04	 shl	 ecx, 4
  018bb	83 c1 20	 add	 ecx, 32			; 00000020H
  018be	51		 push	 ecx
  018bf	e8 00 00 00 00	 call	 ??_U@YAPAXIPBDH@Z	; operator new[]
  018c4	83 c4 0c	 add	 esp, 12			; 0000000cH
  018c7	89 85 5c ff ff
	ff		 mov	 DWORD PTR $T189179[ebp], eax
  018cd	8b 95 5c ff ff
	ff		 mov	 edx, DWORD PTR $T189179[ebp]
  018d3	89 95 7c ff ff
	ff		 mov	 DWORD PTR _pRgnDataNew$187779[ebp], edx

; 431  : 				memcpy( pRgnDataNew, pRgnData, RDHDR + (cBlocks - 1) * MAXBUF * sizeof(RECT) );

  018d9	8b 45 98	 mov	 eax, DWORD PTR _cBlocks$[ebp]
  018dc	83 e8 01	 sub	 eax, 1
  018df	6b c0 28	 imul	 eax, 40			; 00000028H
  018e2	c1 e0 04	 shl	 eax, 4
  018e5	83 c0 20	 add	 eax, 32			; 00000020H
  018e8	50		 push	 eax
  018e9	8b 4d 84	 mov	 ecx, DWORD PTR _pRgnData$[ebp]
  018ec	51		 push	 ecx
  018ed	8b 95 7c ff ff
	ff		 mov	 edx, DWORD PTR _pRgnDataNew$187779[ebp]
  018f3	52		 push	 edx
  018f4	e8 00 00 00 00	 call	 _memcpy
  018f9	83 c4 0c	 add	 esp, 12			; 0000000cH

; 432  : 				delete pRgnData;

  018fc	8b 45 84	 mov	 eax, DWORD PTR _pRgnData$[ebp]
  018ff	89 85 58 ff ff
	ff		 mov	 DWORD PTR $T189180[ebp], eax
  01905	8b 8d 58 ff ff
	ff		 mov	 ecx, DWORD PTR $T189180[ebp]
  0190b	51		 push	 ecx
  0190c	e8 00 00 00 00	 call	 ??3@YAXPAX@Z		; operator delete
  01911	83 c4 04	 add	 esp, 4

; 433  : 				pRgnData = (RGNDATAHEADER*)pRgnDataNew;

  01914	8b 95 7c ff ff
	ff		 mov	 edx, DWORD PTR _pRgnDataNew$187779[ebp]
  0191a	89 55 84	 mov	 DWORD PTR _pRgnData$[ebp], edx
$L187778:

; 434  : 			}
; 435  : 			wasfirst = false;

  0191d	c6 45 8b 00	 mov	 BYTE PTR _wasfirst$[ebp], 0

; 436  : 		} else if ( !wasfirst && ismask ){		// set wasfirst when mask is found

  01921	eb 1a		 jmp	 SHORT $L187786
$L187772:
  01923	0f b6 45 8b	 movzx	 eax, BYTE PTR _wasfirst$[ebp]
  01927	85 c0		 test	 eax, eax
  01929	75 12		 jne	 SHORT $L187786
  0192b	0f b6 4d 8a	 movzx	 ecx, BYTE PTR _ismask$[ebp]
  0192f	85 c9		 test	 ecx, ecx
  01931	74 0a		 je	 SHORT $L187786

; 437  : 			first = j;

  01933	8b 55 90	 mov	 edx, DWORD PTR _j$[ebp]
  01936	89 55 8c	 mov	 DWORD PTR _first$[ebp], edx

; 438  : 			wasfirst = true;

  01939	c6 45 8b 01	 mov	 BYTE PTR _wasfirst$[ebp], 1
$L187786:

; 439  : 		}
; 440  : 	}

  0193d	e9 5e fe ff ff	 jmp	 $L187769
$L187770:
  01942	e9 3b fe ff ff	 jmp	 $L187766
$L187767:

; 441  : 
; 442  : 	hBitmap.DeleteObject();

  01947	8d 4d c4	 lea	 ecx, DWORD PTR _hBitmap$[ebp]
  0194a	e8 00 00 00 00	 call	 ?DeleteObject@CGdiObject@@QAEHXZ ; CGdiObject::DeleteObject

; 443  : 	hdcMem.DeleteDC();	//release the bitmap

  0194f	8d 4d d4	 lea	 ecx, DWORD PTR _hdcMem$[ebp]
  01952	e8 00 00 00 00	 call	 ?DeleteDC@CDC@@QAEHXZ	; CDC::DeleteDC

; 444  : 	// create region
; 445  : /*  Under WinNT the ExtCreateRegion returns NULL (by Fable@aramszu.net) */
; 446  : //	HRGN hRgn = ExtCreateRegion( NULL, RDHDR + pRgnData->nCount * sizeof(RECT), (LPRGNDATA)pRgnData );
; 447  : /* ExtCreateRegion replacement { */
; 448  : 	HRGN hRgn=CreateRectRgn(0, 0, 0, 0);

  01957	8b f4		 mov	 esi, esp
  01959	6a 00		 push	 0
  0195b	6a 00		 push	 0
  0195d	6a 00		 push	 0
  0195f	6a 00		 push	 0
  01961	ff 15 00 00 00
	00		 call	 DWORD PTR __imp__CreateRectRgn@16
  01967	3b f4		 cmp	 esi, esp
  01969	e8 00 00 00 00	 call	 __RTC_CheckEsp
  0196e	89 85 78 ff ff
	ff		 mov	 DWORD PTR _hRgn$[ebp], eax

; 449  : 	ASSERT( hRgn!=NULL );

  01974	83 bd 78 ff ff
	ff 00		 cmp	 DWORD PTR _hRgn$[ebp], 0
  0197b	75 14		 jne	 SHORT $L189181
  0197d	68 c1 01 00 00	 push	 449			; 000001c1H
  01982	68 00 00 00 00	 push	 OFFSET FLAT:_THIS_FILE
  01987	e8 00 00 00 00	 call	 ?AfxAssertFailedLine@@YGHPBDH@Z ; AfxAssertFailedLine
  0198c	85 c0		 test	 eax, eax
  0198e	74 01		 je	 SHORT $L189181
  01990	cc		 int	 3
$L189181:

; 450  : 	pRects = (LPRECT)((LPBYTE)pRgnData + RDHDR);

  01991	8b 4d 84	 mov	 ecx, DWORD PTR _pRgnData$[ebp]
  01994	83 c1 20	 add	 ecx, 32			; 00000020H
  01997	89 4d 9c	 mov	 DWORD PTR _pRects$[ebp], ecx

; 451  : 	for(i=0;i<(int)pRgnData->nCount;i++)

  0199a	c7 45 94 00 00
	00 00		 mov	 DWORD PTR _i$[ebp], 0
  019a1	eb 09		 jmp	 SHORT $L187793
$L187794:
  019a3	8b 55 94	 mov	 edx, DWORD PTR _i$[ebp]
  019a6	83 c2 01	 add	 edx, 1
  019a9	89 55 94	 mov	 DWORD PTR _i$[ebp], edx
$L187793:
  019ac	8b 45 84	 mov	 eax, DWORD PTR _pRgnData$[ebp]
  019af	8b 4d 94	 mov	 ecx, DWORD PTR _i$[ebp]
  019b2	3b 48 08	 cmp	 ecx, DWORD PTR [eax+8]
  019b5	0f 8d ae 00 00
	00		 jge	 $L187795

; 452  : 	{
; 453  : 		HRGN hr=CreateRectRgn(pRects[i].left, pRects[i].top, pRects[i].right, pRects[i].bottom);

  019bb	8b 55 94	 mov	 edx, DWORD PTR _i$[ebp]
  019be	c1 e2 04	 shl	 edx, 4
  019c1	8b f4		 mov	 esi, esp
  019c3	8b 45 9c	 mov	 eax, DWORD PTR _pRects$[ebp]
  019c6	8b 4c 10 0c	 mov	 ecx, DWORD PTR [eax+edx+12]
  019ca	51		 push	 ecx
  019cb	8b 55 94	 mov	 edx, DWORD PTR _i$[ebp]
  019ce	c1 e2 04	 shl	 edx, 4
  019d1	8b 45 9c	 mov	 eax, DWORD PTR _pRects$[ebp]
  019d4	8b 4c 10 08	 mov	 ecx, DWORD PTR [eax+edx+8]
  019d8	51		 push	 ecx
  019d9	8b 55 94	 mov	 edx, DWORD PTR _i$[ebp]
  019dc	c1 e2 04	 shl	 edx, 4
  019df	8b 45 9c	 mov	 eax, DWORD PTR _pRects$[ebp]
  019e2	8b 4c 10 04	 mov	 ecx, DWORD PTR [eax+edx+4]
  019e6	51		 push	 ecx
  019e7	8b 55 94	 mov	 edx, DWORD PTR _i$[ebp]
  019ea	c1 e2 04	 shl	 edx, 4
  019ed	8b 45 9c	 mov	 eax, DWORD PTR _pRects$[ebp]
  019f0	8b 0c 10	 mov	 ecx, DWORD PTR [eax+edx]
  019f3	51		 push	 ecx
  019f4	ff 15 00 00 00
	00		 call	 DWORD PTR __imp__CreateRectRgn@16
  019fa	3b f4		 cmp	 esi, esp
  019fc	e8 00 00 00 00	 call	 __RTC_CheckEsp
  01a01	89 85 74 ff ff
	ff		 mov	 DWORD PTR _hr$187796[ebp], eax

; 454  : 		VERIFY(CombineRgn(hRgn, hRgn, hr, RGN_OR)!=ERROR);

  01a07	8b f4		 mov	 esi, esp
  01a09	6a 02		 push	 2
  01a0b	8b 95 74 ff ff
	ff		 mov	 edx, DWORD PTR _hr$187796[ebp]
  01a11	52		 push	 edx
  01a12	8b 85 78 ff ff
	ff		 mov	 eax, DWORD PTR _hRgn$[ebp]
  01a18	50		 push	 eax
  01a19	8b 8d 78 ff ff
	ff		 mov	 ecx, DWORD PTR _hRgn$[ebp]
  01a1f	51		 push	 ecx
  01a20	ff 15 00 00 00
	00		 call	 DWORD PTR __imp__CombineRgn@16
  01a26	3b f4		 cmp	 esi, esp
  01a28	e8 00 00 00 00	 call	 __RTC_CheckEsp
  01a2d	85 c0		 test	 eax, eax
  01a2f	75 14		 jne	 SHORT $L189182
  01a31	68 c6 01 00 00	 push	 454			; 000001c6H
  01a36	68 00 00 00 00	 push	 OFFSET FLAT:_THIS_FILE
  01a3b	e8 00 00 00 00	 call	 ?AfxAssertFailedLine@@YGHPBDH@Z ; AfxAssertFailedLine
  01a40	85 c0		 test	 eax, eax
  01a42	74 01		 je	 SHORT $L189182
  01a44	cc		 int	 3
$L189182:

; 455  : 		if (hr) DeleteObject(hr);

  01a45	83 bd 74 ff ff
	ff 00		 cmp	 DWORD PTR _hr$187796[ebp], 0
  01a4c	74 16		 je	 SHORT $L187798
  01a4e	8b f4		 mov	 esi, esp
  01a50	8b 85 74 ff ff
	ff		 mov	 eax, DWORD PTR _hr$187796[ebp]
  01a56	50		 push	 eax
  01a57	ff 15 00 00 00
	00		 call	 DWORD PTR __imp__DeleteObject@4
  01a5d	3b f4		 cmp	 esi, esp
  01a5f	e8 00 00 00 00	 call	 __RTC_CheckEsp
$L187798:

; 456  : 	}

  01a64	e9 3a ff ff ff	 jmp	 $L187794
$L187795:

; 457  : 	ASSERT( hRgn!=NULL );

  01a69	83 bd 78 ff ff
	ff 00		 cmp	 DWORD PTR _hRgn$[ebp], 0
  01a70	75 14		 jne	 SHORT $L189183
  01a72	68 c9 01 00 00	 push	 457			; 000001c9H
  01a77	68 00 00 00 00	 push	 OFFSET FLAT:_THIS_FILE
  01a7c	e8 00 00 00 00	 call	 ?AfxAssertFailedLine@@YGHPBDH@Z ; AfxAssertFailedLine
  01a81	85 c0		 test	 eax, eax
  01a83	74 01		 je	 SHORT $L189183
  01a85	cc		 int	 3
$L189183:

; 458  : /* } ExtCreateRegion replacement */
; 459  : 
; 460  : 	delete pRgnData;

  01a86	8b 55 84	 mov	 edx, DWORD PTR _pRgnData$[ebp]
  01a89	89 95 54 ff ff
	ff		 mov	 DWORD PTR $T189184[ebp], edx
  01a8f	8b 85 54 ff ff
	ff		 mov	 eax, DWORD PTR $T189184[ebp]
  01a95	50		 push	 eax
  01a96	e8 00 00 00 00	 call	 ??3@YAXPAX@Z		; operator delete
  01a9b	83 c4 04	 add	 esp, 4

; 461  : 	return hRgn;

  01a9e	8b 8d 78 ff ff
	ff		 mov	 ecx, DWORD PTR _hRgn$[ebp]
  01aa4	89 8d 50 ff ff
	ff		 mov	 DWORD PTR $T189185[ebp], ecx
  01aaa	c6 45 fc 00	 mov	 BYTE PTR __$EHRec$[ebp+8], 0
  01aae	8d 4d c4	 lea	 ecx, DWORD PTR _hBitmap$[ebp]
  01ab1	e8 00 00 00 00	 call	 ??1CBitmap@@UAE@XZ	; CBitmap::~CBitmap
  01ab6	c7 45 fc ff ff
	ff ff		 mov	 DWORD PTR __$EHRec$[ebp+8], -1
  01abd	8d 4d d4	 lea	 ecx, DWORD PTR _hdcMem$[ebp]
  01ac0	e8 00 00 00 00	 call	 ??1CDC@@UAE@XZ		; CDC::~CDC
  01ac5	8b 85 50 ff ff
	ff		 mov	 eax, DWORD PTR $T189185[ebp]

; 462  : }

  01acb	52		 push	 edx
  01acc	8b cd		 mov	 ecx, ebp
  01ace	50		 push	 eax
  01acf	8d 15 00 00 00
	00		 lea	 edx, DWORD PTR $L189195
  01ad5	e8 00 00 00 00	 call	 @_RTC_CheckStackVars@8
  01ada	58		 pop	 eax
  01adb	5a		 pop	 edx
  01adc	8b 4d f4	 mov	 ecx, DWORD PTR __$EHRec$[ebp]
  01adf	64 89 0d 00 00
	00 00		 mov	 DWORD PTR fs:__except_list, ecx
  01ae6	5f		 pop	 edi
  01ae7	5e		 pop	 esi
  01ae8	81 c4 b0 00 00
	00		 add	 esp, 176		; 000000b0H
  01aee	3b ec		 cmp	 ebp, esp
  01af0	e8 00 00 00 00	 call	 __RTC_CheckEsp
  01af5	8b e5		 mov	 esp, ebp
  01af7	5d		 pop	 ebp
  01af8	c2 08 00	 ret	 8
$L189195:
  01afb	03 00 00 00	 DD	 3
  01aff	00 00 00 00	 DD	 $L189194
$L189194:
  01b03	d4 ff ff ff	 DD	 -44			; ffffffd4H
  01b07	10 00 00 00	 DD	 16			; 00000010H
  01b0b	00 00 00 00	 DD	 $L189190
  01b0f	c4 ff ff ff	 DD	 -60			; ffffffc4H
  01b13	08 00 00 00	 DD	 8
  01b17	00 00 00 00	 DD	 $L189191
  01b1b	ac ff ff ff	 DD	 -84			; ffffffacH
  01b1f	10 00 00 00	 DD	 16			; 00000010H
  01b23	00 00 00 00	 DD	 $L189192
$L189192:
  01b27	72		 DB	 114			; 00000072H
  01b28	65		 DB	 101			; 00000065H
  01b29	63		 DB	 99			; 00000063H
  01b2a	74		 DB	 116			; 00000074H
  01b2b	00		 DB	 0
$L189191:
  01b2c	68		 DB	 104			; 00000068H
  01b2d	42		 DB	 66			; 00000042H
  01b2e	69		 DB	 105			; 00000069H
  01b2f	74		 DB	 116			; 00000074H
  01b30	6d		 DB	 109			; 0000006dH
  01b31	61		 DB	 97			; 00000061H
  01b32	70		 DB	 112			; 00000070H
  01b33	00		 DB	 0
$L189190:
  01b34	68		 DB	 104			; 00000068H
  01b35	64		 DB	 100			; 00000064H
  01b36	63		 DB	 99			; 00000063H
  01b37	4d		 DB	 77			; 0000004dH
  01b38	65		 DB	 101			; 00000065H
  01b39	6d		 DB	 109			; 0000006dH
  01b3a	00		 DB	 0
_TEXT	ENDS
text$x	SEGMENT
$L189186:
  0018d	8d 4d d4	 lea	 ecx, DWORD PTR _hdcMem$[ebp]
  00190	e9 00 00 00 00	 jmp	 ??1CDC@@UAE@XZ		; CDC::~CDC
$L189187:
  00195	8d 4d c4	 lea	 ecx, DWORD PTR _hBitmap$[ebp]
  00198	e9 00 00 00 00	 jmp	 ??1CBitmap@@UAE@XZ	; CBitmap::~CBitmap
__ehhandler$?CreateRgnFromBitmap@CxStaticText@@IAEPAUHRGN__@@PAVCDibBitmap@@K@Z:
  0019d	b8 00 00 00 00	 mov	 eax, OFFSET FLAT:$T189189
  001a2	e9 00 00 00 00	 jmp	 ___CxxFrameHandler
text$x	ENDS
?CreateRgnFromBitmap@CxStaticText@@IAEPAUHRGN__@@PAVCDibBitmap@@K@Z ENDP ; CxStaticText::CreateRgnFromBitmap
PUBLIC	?InterlockedExchangePointer@@YGPAXPAPAXPAX@Z	; InterlockedExchangePointer
PUBLIC	?_AtlGetThreadACPFake@ATL@@YGIXZ		; ATL::_AtlGetThreadACPFake
PUBLIC	?_AtlGetThreadACPReal@ATL@@YGIXZ		; ATL::_AtlGetThreadACPReal
EXTRN	__imp__GetVersionExA@4:NEAR
; Function compile flags: /Odt /RTCsu
; File d:\program files (x86)\microsoft visual studio .net 2003\vc7\atlmfc\include\atlconv.h
;	COMDAT ?_AtlGetThreadACPThunk@ATL@@YGIXZ
_TEXT	SEGMENT
_pfnGetThreadACP$ = -164				; size = 4
_ver$ = -156						; size = 148
__$ArrayPad$ = -4					; size = 4
__$ReturnAddr$ = 4					; size = 4
?_AtlGetThreadACPThunk@ATL@@YGIXZ PROC NEAR		; ATL::_AtlGetThreadACPThunk, COMDAT

; 134  : {

  00000	55		 push	 ebp
  00001	8b ec		 mov	 ebp, esp
  00003	81 ec a4 00 00
	00		 sub	 esp, 164		; 000000a4H
  00009	56		 push	 esi
  0000a	57		 push	 edi
  0000b	8d bd 5c ff ff
	ff		 lea	 edi, DWORD PTR [ebp-164]
  00011	b9 29 00 00 00	 mov	 ecx, 41			; 00000029H
  00016	b8 cc cc cc cc	 mov	 eax, -858993460		; ccccccccH
  0001b	f3 ab		 rep stosd
  0001d	a1 00 00 00 00	 mov	 eax, DWORD PTR ___security_cookie
  00022	89 45 fc	 mov	 DWORD PTR __$ArrayPad$[ebp], eax

; 135  : 	OSVERSIONINFO ver;
; 136  : 	ATLGETTHREADACP pfnGetThreadACP;
; 137  : 
; 138  : 	ver.dwOSVersionInfoSize = sizeof( ver );

  00025	c7 85 64 ff ff
	ff 94 00 00 00	 mov	 DWORD PTR _ver$[ebp], 148 ; 00000094H

; 139  : 	::GetVersionEx( &ver );

  0002f	8b f4		 mov	 esi, esp
  00031	8d 85 64 ff ff
	ff		 lea	 eax, DWORD PTR _ver$[ebp]
  00037	50		 push	 eax
  00038	ff 15 00 00 00
	00		 call	 DWORD PTR __imp__GetVersionExA@4
  0003e	3b f4		 cmp	 esi, esp
  00040	e8 00 00 00 00	 call	 __RTC_CheckEsp

; 140  : 	if( (ver.dwPlatformId == VER_PLATFORM_WIN32_NT) && (ver.dwMajorVersion >= 5) )

  00045	83 bd 74 ff ff
	ff 02		 cmp	 DWORD PTR _ver$[ebp+16], 2
  0004c	75 15		 jne	 SHORT $L24163
  0004e	83 bd 68 ff ff
	ff 05		 cmp	 DWORD PTR _ver$[ebp+4], 5
  00055	72 0c		 jb	 SHORT $L24163

; 141  : 	{
; 142  : 		// On Win2K, CP_THREAD_ACP is supported
; 143  : 		pfnGetThreadACP = _AtlGetThreadACPReal;

  00057	c7 85 5c ff ff
	ff 00 00 00 00	 mov	 DWORD PTR _pfnGetThreadACP$[ebp], OFFSET FLAT:?_AtlGetThreadACPReal@ATL@@YGIXZ ; ATL::_AtlGetThreadACPReal

; 144  : 	}
; 145  : 	else

  00061	eb 0a		 jmp	 SHORT $L24164
$L24163:

; 146  : 	{
; 147  : 		pfnGetThreadACP = _AtlGetThreadACPFake;

  00063	c7 85 5c ff ff
	ff 00 00 00 00	 mov	 DWORD PTR _pfnGetThreadACP$[ebp], OFFSET FLAT:?_AtlGetThreadACPFake@ATL@@YGIXZ ; ATL::_AtlGetThreadACPFake
$L24164:

; 148  : 	}
; 149  : 	InterlockedExchangePointer( reinterpret_cast< void** >(&g_pfnGetThreadACP), pfnGetThreadACP );

  0006d	8b 8d 5c ff ff
	ff		 mov	 ecx, DWORD PTR _pfnGetThreadACP$[ebp]
  00073	51		 push	 ecx
  00074	68 00 00 00 00	 push	 OFFSET FLAT:?g_pfnGetThreadACP@ATL@@3P6GIXZA ; ATL::g_pfnGetThreadACP
  00079	e8 00 00 00 00	 call	 ?InterlockedExchangePointer@@YGPAXPAPAXPAX@Z ; InterlockedExchangePointer

; 150  : 
; 151  : 	return( g_pfnGetThreadACP() );

  0007e	8b f4		 mov	 esi, esp
  00080	ff 15 00 00 00
	00		 call	 DWORD PTR ?g_pfnGetThreadACP@ATL@@3P6GIXZA ; ATL::g_pfnGetThreadACP
  00086	3b f4		 cmp	 esi, esp
  00088	e8 00 00 00 00	 call	 __RTC_CheckEsp

; 152  : }

  0008d	52		 push	 edx
  0008e	8b cd		 mov	 ecx, ebp
  00090	50		 push	 eax
  00091	8d 15 00 00 00
	00		 lea	 edx, DWORD PTR $L189202
  00097	e8 00 00 00 00	 call	 @_RTC_CheckStackVars@8
  0009c	58		 pop	 eax
  0009d	5a		 pop	 edx
  0009e	8b 4d fc	 mov	 ecx, DWORD PTR __$ArrayPad$[ebp]
  000a1	e8 00 00 00 00	 call	 @__security_check_cookie@4
  000a6	5f		 pop	 edi
  000a7	5e		 pop	 esi
  000a8	81 c4 a4 00 00
	00		 add	 esp, 164		; 000000a4H
  000ae	3b ec		 cmp	 ebp, esp
  000b0	e8 00 00 00 00	 call	 __RTC_CheckEsp
  000b5	8b e5		 mov	 esp, ebp
  000b7	5d		 pop	 ebp
  000b8	c3		 ret	 0
$L189202:
  000b9	01 00 00 00	 DD	 1
  000bd	00 00 00 00	 DD	 $L189201
$L189201:
  000c1	64 ff ff ff	 DD	 -156			; ffffff64H
  000c5	94 00 00 00	 DD	 148			; 00000094H
  000c9	00 00 00 00	 DD	 $L189199
$L189199:
  000cd	76		 DB	 118			; 00000076H
  000ce	65		 DB	 101			; 00000065H
  000cf	72		 DB	 114			; 00000072H
  000d0	00		 DB	 0
?_AtlGetThreadACPThunk@ATL@@YGIXZ ENDP			; ATL::_AtlGetThreadACPThunk
_TEXT	ENDS
EXTRN	__imp__InterlockedExchange@8:NEAR
; Function compile flags: /Odt /RTCsu
;	COMDAT ?InterlockedExchangePointer@@YGPAXPAPAXPAX@Z
_TEXT	SEGMENT
_pp$ = 8						; size = 4
_pNew$ = 12						; size = 4
?InterlockedExchangePointer@@YGPAXPAPAXPAX@Z PROC NEAR	; InterlockedExchangePointer, COMDAT

; 91   : {

  00000	55		 push	 ebp
  00001	8b ec		 mov	 ebp, esp
  00003	56		 push	 esi

; 92   : 	return( reinterpret_cast<void*>(static_cast<LONG_PTR>(::InterlockedExchange(reinterpret_cast<LONG*>(pp), static_cast<LONG>(reinterpret_cast<LONG_PTR>(pNew))))) );

  00004	8b f4		 mov	 esi, esp
  00006	8b 45 0c	 mov	 eax, DWORD PTR _pNew$[ebp]
  00009	50		 push	 eax
  0000a	8b 4d 08	 mov	 ecx, DWORD PTR _pp$[ebp]
  0000d	51		 push	 ecx
  0000e	ff 15 00 00 00
	00		 call	 DWORD PTR __imp__InterlockedExchange@8
  00014	3b f4		 cmp	 esi, esp
  00016	e8 00 00 00 00	 call	 __RTC_CheckEsp

; 93   : }

  0001b	5e		 pop	 esi
  0001c	3b ec		 cmp	 ebp, esp
  0001e	e8 00 00 00 00	 call	 __RTC_CheckEsp
  00023	5d		 pop	 ebp
  00024	c2 08 00	 ret	 8
?InterlockedExchangePointer@@YGPAXPAPAXPAX@Z ENDP	; InterlockedExchangePointer
_TEXT	ENDS
EXTRN	__imp__GetACP@0:NEAR
EXTRN	__imp__GetLocaleInfoA@16:NEAR
EXTRN	__imp__GetThreadLocale@0:NEAR
; Function compile flags: /Odt /RTCsu
;	COMDAT ?_AtlGetThreadACPFake@ATL@@YGIXZ
_TEXT	SEGMENT
_pch$24151 = -32					; size = 4
_szACP$ = -24						; size = 7
_lcidThread$ = -12					; size = 4
_nACP$ = -8						; size = 4
__$ArrayPad$ = -4					; size = 4
__$ReturnAddr$ = 4					; size = 4
?_AtlGetThreadACPFake@ATL@@YGIXZ PROC NEAR		; ATL::_AtlGetThreadACPFake, COMDAT

; 101  : {

  00000	55		 push	 ebp
  00001	8b ec		 mov	 ebp, esp
  00003	83 ec 20	 sub	 esp, 32			; 00000020H
  00006	56		 push	 esi
  00007	b8 cc cc cc cc	 mov	 eax, -858993460		; ccccccccH
  0000c	89 45 e0	 mov	 DWORD PTR [ebp-32], eax
  0000f	89 45 e4	 mov	 DWORD PTR [ebp-28], eax
  00012	89 45 e8	 mov	 DWORD PTR [ebp-24], eax
  00015	89 45 ec	 mov	 DWORD PTR [ebp-20], eax
  00018	89 45 f0	 mov	 DWORD PTR [ebp-16], eax
  0001b	89 45 f4	 mov	 DWORD PTR [ebp-12], eax
  0001e	89 45 f8	 mov	 DWORD PTR [ebp-8], eax
  00021	89 45 fc	 mov	 DWORD PTR [ebp-4], eax
  00024	a1 00 00 00 00	 mov	 eax, DWORD PTR ___security_cookie
  00029	89 45 fc	 mov	 DWORD PTR __$ArrayPad$[ebp], eax

; 102  : 	UINT nACP = 0;

  0002c	c7 45 f8 00 00
	00 00		 mov	 DWORD PTR _nACP$[ebp], 0

; 103  : 
; 104  : 	LCID lcidThread = ::GetThreadLocale();

  00033	8b f4		 mov	 esi, esp
  00035	ff 15 00 00 00
	00		 call	 DWORD PTR __imp__GetThreadLocale@0
  0003b	3b f4		 cmp	 esi, esp
  0003d	e8 00 00 00 00	 call	 __RTC_CheckEsp
  00042	89 45 f4	 mov	 DWORD PTR _lcidThread$[ebp], eax

; 105  : 
; 106  : 	char szACP[7];
; 107  : 	// GetLocaleInfoA will fail for a Unicode-only LCID, but those are only supported on 
; 108  : 	// Windows 2000.  Since Windows 2000 supports CP_THREAD_ACP, this code path is never
; 109  : 	// executed on Windows 2000.
; 110  : 	if (::GetLocaleInfoA(lcidThread, LOCALE_IDEFAULTANSICODEPAGE, szACP, 7) != 0)

  00045	8b f4		 mov	 esi, esp
  00047	6a 07		 push	 7
  00049	8d 45 e8	 lea	 eax, DWORD PTR _szACP$[ebp]
  0004c	50		 push	 eax
  0004d	68 04 10 00 00	 push	 4100			; 00001004H
  00052	8b 4d f4	 mov	 ecx, DWORD PTR _lcidThread$[ebp]
  00055	51		 push	 ecx
  00056	ff 15 00 00 00
	00		 call	 DWORD PTR __imp__GetLocaleInfoA@16
  0005c	3b f4		 cmp	 esi, esp
  0005e	e8 00 00 00 00	 call	 __RTC_CheckEsp
  00063	85 c0		 test	 eax, eax
  00065	74 34		 je	 SHORT $L24150

; 111  : 	{
; 112  : 		char* pch = szACP;

  00067	8d 55 e8	 lea	 edx, DWORD PTR _szACP$[ebp]
  0006a	89 55 e0	 mov	 DWORD PTR _pch$24151[ebp], edx
$L24153:

; 113  : 		while (*pch != '\0')

  0006d	8b 45 e0	 mov	 eax, DWORD PTR _pch$24151[ebp]
  00070	0f be 08	 movsx	 ecx, BYTE PTR [eax]
  00073	85 c9		 test	 ecx, ecx
  00075	74 24		 je	 SHORT $L24150

; 114  : 		{
; 115  : 			nACP *= 10;

  00077	8b 55 f8	 mov	 edx, DWORD PTR _nACP$[ebp]
  0007a	6b d2 0a	 imul	 edx, 10			; 0000000aH
  0007d	89 55 f8	 mov	 DWORD PTR _nACP$[ebp], edx

; 116  : 			nACP += *pch++ - '0';

  00080	8b 45 e0	 mov	 eax, DWORD PTR _pch$24151[ebp]
  00083	0f be 08	 movsx	 ecx, BYTE PTR [eax]
  00086	8b 55 f8	 mov	 edx, DWORD PTR _nACP$[ebp]
  00089	8d 44 0a d0	 lea	 eax, DWORD PTR [edx+ecx-48]
  0008d	89 45 f8	 mov	 DWORD PTR _nACP$[ebp], eax
  00090	8b 4d e0	 mov	 ecx, DWORD PTR _pch$24151[ebp]
  00093	83 c1 01	 add	 ecx, 1
  00096	89 4d e0	 mov	 DWORD PTR _pch$24151[ebp], ecx

; 117  : 		}

  00099	eb d2		 jmp	 SHORT $L24153
$L24150:

; 118  : 	}
; 119  : 	// Use the Default ANSI Code Page if we were unable to get the thread ACP or if one does not exist.
; 120  : 	if (nACP == 0)

  0009b	83 7d f8 00	 cmp	 DWORD PTR _nACP$[ebp], 0
  0009f	75 12		 jne	 SHORT $L24155

; 121  : 		nACP = ::GetACP();

  000a1	8b f4		 mov	 esi, esp
  000a3	ff 15 00 00 00
	00		 call	 DWORD PTR __imp__GetACP@0
  000a9	3b f4		 cmp	 esi, esp
  000ab	e8 00 00 00 00	 call	 __RTC_CheckEsp
  000b0	89 45 f8	 mov	 DWORD PTR _nACP$[ebp], eax
$L24155:

; 122  : 
; 123  : 	return nACP;

  000b3	8b 45 f8	 mov	 eax, DWORD PTR _nACP$[ebp]

; 124  : }

  000b6	52		 push	 edx
  000b7	8b cd		 mov	 ecx, ebp
  000b9	50		 push	 eax
  000ba	8d 15 00 00 00
	00		 lea	 edx, DWORD PTR $L189209
  000c0	e8 00 00 00 00	 call	 @_RTC_CheckStackVars@8
  000c5	58		 pop	 eax
  000c6	5a		 pop	 edx
  000c7	8b 4d fc	 mov	 ecx, DWORD PTR __$ArrayPad$[ebp]
  000ca	e8 00 00 00 00	 call	 @__security_check_cookie@4
  000cf	5e		 pop	 esi
  000d0	83 c4 20	 add	 esp, 32			; 00000020H
  000d3	3b ec		 cmp	 ebp, esp
  000d5	e8 00 00 00 00	 call	 __RTC_CheckEsp
  000da	8b e5		 mov	 esp, ebp
  000dc	5d		 pop	 ebp
  000dd	c3		 ret	 0
$L189209:
  000de	01 00 00 00	 DD	 1
  000e2	00 00 00 00	 DD	 $L189208
$L189208:
  000e6	e8 ff ff ff	 DD	 -24			; ffffffe8H
  000ea	07 00 00 00	 DD	 7
  000ee	00 00 00 00	 DD	 $L189206
$L189206:
  000f2	73		 DB	 115			; 00000073H
  000f3	7a		 DB	 122			; 0000007aH
  000f4	41		 DB	 65			; 00000041H
  000f5	43		 DB	 67			; 00000043H
  000f6	50		 DB	 80			; 00000050H
  000f7	00		 DB	 0
?_AtlGetThreadACPFake@ATL@@YGIXZ ENDP			; ATL::_AtlGetThreadACPFake
; Function compile flags: /Odt /RTCsu
_TEXT	ENDS
;	COMDAT ?_AtlGetThreadACPReal@ATL@@YGIXZ
_TEXT	SEGMENT
?_AtlGetThreadACPReal@ATL@@YGIXZ PROC NEAR		; ATL::_AtlGetThreadACPReal, COMDAT

; 127  : {

  00000	55		 push	 ebp
  00001	8b ec		 mov	 ebp, esp

; 128  : 	return( CP_THREAD_ACP );

  00003	b8 03 00 00 00	 mov	 eax, 3

; 129  : }

  00008	5d		 pop	 ebp
  00009	c3		 ret	 0
?_AtlGetThreadACPReal@ATL@@YGIXZ ENDP			; ATL::_AtlGetThreadACPReal
_TEXT	ENDS
PUBLIC	?FillWithBitmap@CxStaticText@@IAEXPAVCDC@@PAVCDibBitmap@@UtagRECT@@@Z ; CxStaticText::FillWithBitmap
EXTRN	?BitBlt@CDC@@QAEHHHHHPAV1@HHK@Z:NEAR		; CDC::BitBlt
EXTRN	?StretchBlt@CDC@@QAEHHHHHPAV1@HHHHK@Z:NEAR	; CDC::StretchBlt
EXTRN	??BCGdiObject@@QBEPAXXZ:NEAR			; CGdiObject::operator void *
EXTRN	__imp__DeleteDC@4:NEAR
EXTRN	?SelectObject@CDC@@QAEPAXPAX@Z:NEAR		; CDC::SelectObject
EXTRN	?SetCDibRect@CDibBitmap@@QAEXVCRect@@@Z:NEAR	; CDibBitmap::SetCDibRect
EXTRN	??BCDC@@QBEPAUHDC__@@XZ:NEAR			; CDC::operator HDC__ *
xdata$x	SEGMENT
$T189231 DD	0ffffffffH
	DD	FLAT:$L189214
	DD	00H
	DD	FLAT:$L189215
	DD	01H
	DD	FLAT:$L189216
	DD	02H
	DD	FLAT:$L189217
	DD	03H
	DD	FLAT:$L189218
	DD	04H
	DD	FLAT:$L189219
$T189221 DD	019930520H
	DD	06H
	DD	FLAT:$T189231
	DD	2 DUP(00H)
	DD	2 DUP(00H)
; Function compile flags: /Odt /RTCsu
; File d:\boxgit\playbox\playbox\dev\prj\playbox\src\gui\commoncontrol\xstatictext.cpp
xdata$x	ENDS
_TEXT	SEGMENT
$T189213 = -192						; size = 16
$T189212 = -176						; size = 16
_by$187839 = -160					; size = 4
_bx$187838 = -156					; size = 4
_by$187829 = -152					; size = 4
_bx$187828 = -148					; size = 4
_hBitmap$187821 = -140					; size = 8
_hdcMem$187820 = -124					; size = 16
_hBitmapMask$187818 = -100				; size = 8
_hBitmapBmp$ = -84					; size = 8
_dcMask$ = -68						; size = 16
_dcBmp$ = -44						; size = 16
_cy$ = -24						; size = 4
_cx$ = -20						; size = 4
_this$ = -16						; size = 4
__$EHRec$ = -12						; size = 12
_dc$ = 8						; size = 4
_hbmp$ = 12						; size = 4
_r$ = 16						; size = 16
_DrawMode$ = 32						; size = 4
?DrawBitmap@CxStaticText@@IAEXPAVCDC@@PAVCDibBitmap@@UtagRECT@@H@Z PROC NEAR ; CxStaticText::DrawBitmap
; _this$ = ecx

; 464  : {

  01b40	55		 push	 ebp
  01b41	8b ec		 mov	 ebp, esp
  01b43	6a ff		 push	 -1
  01b45	68 00 00 00 00	 push	 __ehhandler$?DrawBitmap@CxStaticText@@IAEXPAVCDC@@PAVCDibBitmap@@UtagRECT@@H@Z
  01b4a	64 a1 00 00 00
	00		 mov	 eax, DWORD PTR fs:__except_list
  01b50	50		 push	 eax
  01b51	64 89 25 00 00
	00 00		 mov	 DWORD PTR fs:__except_list, esp
  01b58	81 ec b4 00 00
	00		 sub	 esp, 180		; 000000b4H
  01b5e	56		 push	 esi
  01b5f	57		 push	 edi
  01b60	51		 push	 ecx
  01b61	8d bd 40 ff ff
	ff		 lea	 edi, DWORD PTR [ebp-192]
  01b67	b9 2d 00 00 00	 mov	 ecx, 45			; 0000002dH
  01b6c	b8 cc cc cc cc	 mov	 eax, -858993460		; ccccccccH
  01b71	f3 ab		 rep stosd
  01b73	59		 pop	 ecx
  01b74	89 4d f0	 mov	 DWORD PTR _this$[ebp], ecx

; 465  : //	DrawMode: 0=Normal; 1=stretch; 2=tiled fill
; 466  : 	if(DrawMode==2){

  01b77	83 7d 20 02	 cmp	 DWORD PTR _DrawMode$[ebp], 2
  01b7b	75 31		 jne	 SHORT $L187809

; 467  : 		FillWithBitmap(dc,hbmp,r);

  01b7d	83 ec 10	 sub	 esp, 16			; 00000010H
  01b80	8b c4		 mov	 eax, esp
  01b82	8b 4d 10	 mov	 ecx, DWORD PTR _r$[ebp]
  01b85	89 08		 mov	 DWORD PTR [eax], ecx
  01b87	8b 55 14	 mov	 edx, DWORD PTR _r$[ebp+4]
  01b8a	89 50 04	 mov	 DWORD PTR [eax+4], edx
  01b8d	8b 4d 18	 mov	 ecx, DWORD PTR _r$[ebp+8]
  01b90	89 48 08	 mov	 DWORD PTR [eax+8], ecx
  01b93	8b 55 1c	 mov	 edx, DWORD PTR _r$[ebp+12]
  01b96	89 50 0c	 mov	 DWORD PTR [eax+12], edx
  01b99	8b 45 0c	 mov	 eax, DWORD PTR _hbmp$[ebp]
  01b9c	50		 push	 eax
  01b9d	8b 4d 08	 mov	 ecx, DWORD PTR _dc$[ebp]
  01ba0	51		 push	 ecx
  01ba1	8b 4d f0	 mov	 ecx, DWORD PTR _this$[ebp]
  01ba4	e8 00 00 00 00	 call	 ?FillWithBitmap@CxStaticText@@IAEXPAVCDC@@PAVCDibBitmap@@UtagRECT@@@Z ; CxStaticText::FillWithBitmap

; 468  : 		return;

  01ba9	e9 a1 04 00 00	 jmp	 $L187808
$L187809:

; 469  : 	}
; 470  : 	if(!hbmp) return;	//safe check

  01bae	83 7d 0c 00	 cmp	 DWORD PTR _hbmp$[ebp], 0
  01bb2	75 05		 jne	 SHORT $L187810
  01bb4	e9 96 04 00 00	 jmp	 $L187808
$L187810:

; 471  : 
; 472  : 	int cx=r.right  - r.left;

  01bb9	8b 55 18	 mov	 edx, DWORD PTR _r$[ebp+8]
  01bbc	2b 55 10	 sub	 edx, DWORD PTR _r$[ebp]
  01bbf	89 55 ec	 mov	 DWORD PTR _cx$[ebp], edx

; 473  : 	int cy=r.bottom - r.top;

  01bc2	8b 45 1c	 mov	 eax, DWORD PTR _r$[ebp+12]
  01bc5	2b 45 14	 sub	 eax, DWORD PTR _r$[ebp+4]
  01bc8	89 45 e8	 mov	 DWORD PTR _cy$[ebp], eax

; 474  : 	CDC dcBmp,dcMask;

  01bcb	8d 4d d4	 lea	 ecx, DWORD PTR _dcBmp$[ebp]
  01bce	e8 00 00 00 00	 call	 ??0CDC@@QAE@XZ		; CDC::CDC
  01bd3	c7 45 fc 00 00
	00 00		 mov	 DWORD PTR __$EHRec$[ebp+8], 0
  01bda	8d 4d bc	 lea	 ecx, DWORD PTR _dcMask$[ebp]
  01bdd	e8 00 00 00 00	 call	 ??0CDC@@QAE@XZ		; CDC::CDC
  01be2	c6 45 fc 01	 mov	 BYTE PTR __$EHRec$[ebp+8], 1

; 475  : 	dcBmp.CreateCompatibleDC(dc);

  01be6	8b 4d 08	 mov	 ecx, DWORD PTR _dc$[ebp]
  01be9	51		 push	 ecx
  01bea	8d 4d d4	 lea	 ecx, DWORD PTR _dcBmp$[ebp]
  01bed	e8 00 00 00 00	 call	 ?CreateCompatibleDC@CDC@@QAEHPAV1@@Z ; CDC::CreateCompatibleDC

; 476  : 	CBitmap hBitmapBmp;                     //

  01bf2	8d 4d ac	 lea	 ecx, DWORD PTR _hBitmapBmp$[ebp]
  01bf5	e8 00 00 00 00	 call	 ??0CBitmap@@QAE@XZ	; CBitmap::CBitmap
  01bfa	c6 45 fc 02	 mov	 BYTE PTR __$EHRec$[ebp+8], 2

; 477  : 	hBitmapBmp.CreateCompatibleBitmap(dc,hbmp->m_lpBMIH->biWidth,hbmp->m_lpBMIH->biHeight);

  01bfe	8b 55 0c	 mov	 edx, DWORD PTR _hbmp$[ebp]
  01c01	8b 42 04	 mov	 eax, DWORD PTR [edx+4]
  01c04	8b 48 08	 mov	 ecx, DWORD PTR [eax+8]
  01c07	51		 push	 ecx
  01c08	8b 55 0c	 mov	 edx, DWORD PTR _hbmp$[ebp]
  01c0b	8b 42 04	 mov	 eax, DWORD PTR [edx+4]
  01c0e	8b 48 04	 mov	 ecx, DWORD PTR [eax+4]
  01c11	51		 push	 ecx
  01c12	8b 55 08	 mov	 edx, DWORD PTR _dc$[ebp]
  01c15	52		 push	 edx
  01c16	8d 4d ac	 lea	 ecx, DWORD PTR _hBitmapBmp$[ebp]
  01c19	e8 00 00 00 00	 call	 ?CreateCompatibleBitmap@CBitmap@@QAEHPAVCDC@@HH@Z ; CBitmap::CreateCompatibleBitmap

; 478  : 	dcBmp.SelectObject(&hBitmapBmp);

  01c1e	8d 45 ac	 lea	 eax, DWORD PTR _hBitmapBmp$[ebp]
  01c21	50		 push	 eax
  01c22	8d 4d d4	 lea	 ecx, DWORD PTR _dcBmp$[ebp]
  01c25	e8 00 00 00 00	 call	 ?SelectObject@CDC@@QAEPAVCBitmap@@PAV2@@Z ; CDC::SelectObject

; 479  : 	hbmp->SetCDibRect(CRect(0,0,hbmp->m_lpBMIH->biWidth,hbmp->m_lpBMIH->biHeight));

  01c2a	8b 4d 0c	 mov	 ecx, DWORD PTR _hbmp$[ebp]
  01c2d	8b 51 04	 mov	 edx, DWORD PTR [ecx+4]
  01c30	8b 42 08	 mov	 eax, DWORD PTR [edx+8]
  01c33	50		 push	 eax
  01c34	8b 4d 0c	 mov	 ecx, DWORD PTR _hbmp$[ebp]
  01c37	8b 51 04	 mov	 edx, DWORD PTR [ecx+4]
  01c3a	8b 42 04	 mov	 eax, DWORD PTR [edx+4]
  01c3d	50		 push	 eax
  01c3e	6a 00		 push	 0
  01c40	6a 00		 push	 0
  01c42	8d 8d 50 ff ff
	ff		 lea	 ecx, DWORD PTR $T189212[ebp]
  01c48	e8 00 00 00 00	 call	 ??0CRect@@QAE@HHHH@Z	; CRect::CRect
  01c4d	83 ec 10	 sub	 esp, 16			; 00000010H
  01c50	8b cc		 mov	 ecx, esp
  01c52	8b 10		 mov	 edx, DWORD PTR [eax]
  01c54	89 11		 mov	 DWORD PTR [ecx], edx
  01c56	8b 50 04	 mov	 edx, DWORD PTR [eax+4]
  01c59	89 51 04	 mov	 DWORD PTR [ecx+4], edx
  01c5c	8b 50 08	 mov	 edx, DWORD PTR [eax+8]
  01c5f	89 51 08	 mov	 DWORD PTR [ecx+8], edx
  01c62	8b 40 0c	 mov	 eax, DWORD PTR [eax+12]
  01c65	89 41 0c	 mov	 DWORD PTR [ecx+12], eax
  01c68	8b 4d 0c	 mov	 ecx, DWORD PTR _hbmp$[ebp]
  01c6b	e8 00 00 00 00	 call	 ?SetCDibRect@CDibBitmap@@QAEXVCRect@@@Z ; CDibBitmap::SetCDibRect

; 480  : 	hbmp->Draw(&dcBmp,FALSE);

  01c70	6a 01		 push	 1
  01c72	6a 00		 push	 0
  01c74	6a 00		 push	 0
  01c76	8d 4d d4	 lea	 ecx, DWORD PTR _dcBmp$[ebp]
  01c79	51		 push	 ecx
  01c7a	8b 4d 0c	 mov	 ecx, DWORD PTR _hbmp$[ebp]
  01c7d	e8 00 00 00 00	 call	 ?Draw@CDibBitmap@@QAEHPAVCDC@@HKH@Z ; CDibBitmap::Draw

; 481  : 	
; 482  : 	if (mpBmpMask!=NULL){

  01c82	8b 55 f0	 mov	 edx, DWORD PTR _this$[ebp]
  01c85	83 ba 8c 00 00
	00 00		 cmp	 DWORD PTR [edx+140], 0
  01c8c	0f 84 f2 02 00
	00		 je	 $L187817

; 483  : 
; 484  : 		dcMask.CreateCompatibleDC(dc);

  01c92	8b 45 08	 mov	 eax, DWORD PTR _dc$[ebp]
  01c95	50		 push	 eax
  01c96	8d 4d bc	 lea	 ecx, DWORD PTR _dcMask$[ebp]
  01c99	e8 00 00 00 00	 call	 ?CreateCompatibleDC@CDC@@QAEHPAV1@@Z ; CDC::CreateCompatibleDC

; 485  : 		CBitmap hBitmapMask;//		 

  01c9e	8d 4d 9c	 lea	 ecx, DWORD PTR _hBitmapMask$187818[ebp]
  01ca1	e8 00 00 00 00	 call	 ??0CBitmap@@QAE@XZ	; CBitmap::CBitmap
  01ca6	c6 45 fc 03	 mov	 BYTE PTR __$EHRec$[ebp+8], 3

; 486  : 		hBitmapMask.CreateCompatibleBitmap(dc,mpBmpMask->m_lpBMIH->biWidth,mpBmpMask->m_lpBMIH->biHeight);

  01caa	8b 4d f0	 mov	 ecx, DWORD PTR _this$[ebp]
  01cad	8b 91 8c 00 00
	00		 mov	 edx, DWORD PTR [ecx+140]
  01cb3	8b 42 04	 mov	 eax, DWORD PTR [edx+4]
  01cb6	8b 48 08	 mov	 ecx, DWORD PTR [eax+8]
  01cb9	51		 push	 ecx
  01cba	8b 55 f0	 mov	 edx, DWORD PTR _this$[ebp]
  01cbd	8b 82 8c 00 00
	00		 mov	 eax, DWORD PTR [edx+140]
  01cc3	8b 48 04	 mov	 ecx, DWORD PTR [eax+4]
  01cc6	8b 51 04	 mov	 edx, DWORD PTR [ecx+4]
  01cc9	52		 push	 edx
  01cca	8b 45 08	 mov	 eax, DWORD PTR _dc$[ebp]
  01ccd	50		 push	 eax
  01cce	8d 4d 9c	 lea	 ecx, DWORD PTR _hBitmapMask$187818[ebp]
  01cd1	e8 00 00 00 00	 call	 ?CreateCompatibleBitmap@CBitmap@@QAEHPAVCDC@@HH@Z ; CBitmap::CreateCompatibleBitmap

; 487  : 		dcMask.SelectObject(&hBitmapMask);

  01cd6	8d 4d 9c	 lea	 ecx, DWORD PTR _hBitmapMask$187818[ebp]
  01cd9	51		 push	 ecx
  01cda	8d 4d bc	 lea	 ecx, DWORD PTR _dcMask$[ebp]
  01cdd	e8 00 00 00 00	 call	 ?SelectObject@CDC@@QAEPAVCBitmap@@PAV2@@Z ; CDC::SelectObject

; 488  : 		mpBmpMask->SetCDibRect(CRect(0,0,mpBmpMask->m_lpBMIH->biWidth,mpBmpMask->m_lpBMIH->biHeight));

  01ce2	8b 55 f0	 mov	 edx, DWORD PTR _this$[ebp]
  01ce5	8b 82 8c 00 00
	00		 mov	 eax, DWORD PTR [edx+140]
  01ceb	8b 48 04	 mov	 ecx, DWORD PTR [eax+4]
  01cee	8b 51 08	 mov	 edx, DWORD PTR [ecx+8]
  01cf1	52		 push	 edx
  01cf2	8b 45 f0	 mov	 eax, DWORD PTR _this$[ebp]
  01cf5	8b 88 8c 00 00
	00		 mov	 ecx, DWORD PTR [eax+140]
  01cfb	8b 51 04	 mov	 edx, DWORD PTR [ecx+4]
  01cfe	8b 42 04	 mov	 eax, DWORD PTR [edx+4]
  01d01	50		 push	 eax
  01d02	6a 00		 push	 0
  01d04	6a 00		 push	 0
  01d06	8d 8d 40 ff ff
	ff		 lea	 ecx, DWORD PTR $T189213[ebp]
  01d0c	e8 00 00 00 00	 call	 ??0CRect@@QAE@HHHH@Z	; CRect::CRect
  01d11	83 ec 10	 sub	 esp, 16			; 00000010H
  01d14	8b cc		 mov	 ecx, esp
  01d16	8b 10		 mov	 edx, DWORD PTR [eax]
  01d18	89 11		 mov	 DWORD PTR [ecx], edx
  01d1a	8b 50 04	 mov	 edx, DWORD PTR [eax+4]
  01d1d	89 51 04	 mov	 DWORD PTR [ecx+4], edx
  01d20	8b 50 08	 mov	 edx, DWORD PTR [eax+8]
  01d23	89 51 08	 mov	 DWORD PTR [ecx+8], edx
  01d26	8b 40 0c	 mov	 eax, DWORD PTR [eax+12]
  01d29	89 41 0c	 mov	 DWORD PTR [ecx+12], eax
  01d2c	8b 4d f0	 mov	 ecx, DWORD PTR _this$[ebp]
  01d2f	8b 89 8c 00 00
	00		 mov	 ecx, DWORD PTR [ecx+140]
  01d35	e8 00 00 00 00	 call	 ?SetCDibRect@CDibBitmap@@QAEXVCRect@@@Z ; CDibBitmap::SetCDibRect

; 489  : 		mpBmpMask->Draw(&dcMask,FALSE);

  01d3a	6a 01		 push	 1
  01d3c	6a 00		 push	 0
  01d3e	6a 00		 push	 0
  01d40	8d 55 bc	 lea	 edx, DWORD PTR _dcMask$[ebp]
  01d43	52		 push	 edx
  01d44	8b 45 f0	 mov	 eax, DWORD PTR _this$[ebp]
  01d47	8b 88 8c 00 00
	00		 mov	 ecx, DWORD PTR [eax+140]
  01d4d	e8 00 00 00 00	 call	 ?Draw@CDibBitmap@@QAEHPAVCDC@@HKH@Z ; CDibBitmap::Draw

; 490  : 
; 491  : 		CDC hdcMem;

  01d52	8d 4d 84	 lea	 ecx, DWORD PTR _hdcMem$187820[ebp]
  01d55	e8 00 00 00 00	 call	 ??0CDC@@QAE@XZ		; CDC::CDC
  01d5a	c6 45 fc 04	 mov	 BYTE PTR __$EHRec$[ebp+8], 4

; 492  : 		hdcMem.CreateCompatibleDC(dc);

  01d5e	8b 4d 08	 mov	 ecx, DWORD PTR _dc$[ebp]
  01d61	51		 push	 ecx
  01d62	8d 4d 84	 lea	 ecx, DWORD PTR _hdcMem$187820[ebp]
  01d65	e8 00 00 00 00	 call	 ?CreateCompatibleDC@CDC@@QAEHPAV1@@Z ; CDC::CreateCompatibleDC

; 493  : 	    CBitmap hBitmap;

  01d6a	8d 8d 74 ff ff
	ff		 lea	 ecx, DWORD PTR _hBitmap$187821[ebp]
  01d70	e8 00 00 00 00	 call	 ??0CBitmap@@QAE@XZ	; CBitmap::CBitmap
  01d75	c6 45 fc 05	 mov	 BYTE PTR __$EHRec$[ebp+8], 5

; 494  : 		hBitmap.CreateCompatibleBitmap(dc,cx,cy);

  01d79	8b 55 e8	 mov	 edx, DWORD PTR _cy$[ebp]
  01d7c	52		 push	 edx
  01d7d	8b 45 ec	 mov	 eax, DWORD PTR _cx$[ebp]
  01d80	50		 push	 eax
  01d81	8b 4d 08	 mov	 ecx, DWORD PTR _dc$[ebp]
  01d84	51		 push	 ecx
  01d85	8d 8d 74 ff ff
	ff		 lea	 ecx, DWORD PTR _hBitmap$187821[ebp]
  01d8b	e8 00 00 00 00	 call	 ?CreateCompatibleBitmap@CBitmap@@QAEHPAVCDC@@HH@Z ; CBitmap::CreateCompatibleBitmap

; 495  : 	    hdcMem.SelectObject(hBitmap);		

  01d90	8d 8d 74 ff ff
	ff		 lea	 ecx, DWORD PTR _hBitmap$187821[ebp]
  01d96	e8 00 00 00 00	 call	 ??BCGdiObject@@QBEPAXXZ	; CGdiObject::operator void *
  01d9b	50		 push	 eax
  01d9c	8d 4d 84	 lea	 ecx, DWORD PTR _hdcMem$187820[ebp]
  01d9f	e8 00 00 00 00	 call	 ?SelectObject@CDC@@QAEPAXPAX@Z ; CDC::SelectObject

; 496  :         hdcMem.BitBlt(r.left,r.top,cx,cy,dc,0,0,SRCCOPY);

  01da4	68 20 00 cc 00	 push	 13369376		; 00cc0020H
  01da9	6a 00		 push	 0
  01dab	6a 00		 push	 0
  01dad	8b 55 08	 mov	 edx, DWORD PTR _dc$[ebp]
  01db0	52		 push	 edx
  01db1	8b 45 e8	 mov	 eax, DWORD PTR _cy$[ebp]
  01db4	50		 push	 eax
  01db5	8b 4d ec	 mov	 ecx, DWORD PTR _cx$[ebp]
  01db8	51		 push	 ecx
  01db9	8b 55 14	 mov	 edx, DWORD PTR _r$[ebp+4]
  01dbc	52		 push	 edx
  01dbd	8b 45 10	 mov	 eax, DWORD PTR _r$[ebp]
  01dc0	50		 push	 eax
  01dc1	8d 4d 84	 lea	 ecx, DWORD PTR _hdcMem$187820[ebp]
  01dc4	e8 00 00 00 00	 call	 ?BitBlt@CDC@@QAEHHHHHPAV1@HHK@Z ; CDC::BitBlt

; 497  : 		if(!DrawMode){

  01dc9	83 7d 20 00	 cmp	 DWORD PTR _DrawMode$[ebp], 0
  01dcd	75 74		 jne	 SHORT $L187823

; 498  : 			hdcMem.BitBlt(r.left,r.top,cx,cy,&dcBmp,0,0,SRCINVERT);

  01dcf	68 46 00 66 00	 push	 6684742			; 00660046H
  01dd4	6a 00		 push	 0
  01dd6	6a 00		 push	 0
  01dd8	8d 4d d4	 lea	 ecx, DWORD PTR _dcBmp$[ebp]
  01ddb	51		 push	 ecx
  01ddc	8b 55 e8	 mov	 edx, DWORD PTR _cy$[ebp]
  01ddf	52		 push	 edx
  01de0	8b 45 ec	 mov	 eax, DWORD PTR _cx$[ebp]
  01de3	50		 push	 eax
  01de4	8b 4d 14	 mov	 ecx, DWORD PTR _r$[ebp+4]
  01de7	51		 push	 ecx
  01de8	8b 55 10	 mov	 edx, DWORD PTR _r$[ebp]
  01deb	52		 push	 edx
  01dec	8d 4d 84	 lea	 ecx, DWORD PTR _hdcMem$187820[ebp]
  01def	e8 00 00 00 00	 call	 ?BitBlt@CDC@@QAEHHHHHPAV1@HHK@Z ; CDC::BitBlt

; 499  : 			hdcMem.BitBlt(r.left,r.top,cx,cy,&dcMask,0,0,SRCAND);

  01df4	68 c6 00 88 00	 push	 8913094			; 008800c6H
  01df9	6a 00		 push	 0
  01dfb	6a 00		 push	 0
  01dfd	8d 45 bc	 lea	 eax, DWORD PTR _dcMask$[ebp]
  01e00	50		 push	 eax
  01e01	8b 4d e8	 mov	 ecx, DWORD PTR _cy$[ebp]
  01e04	51		 push	 ecx
  01e05	8b 55 ec	 mov	 edx, DWORD PTR _cx$[ebp]
  01e08	52		 push	 edx
  01e09	8b 45 14	 mov	 eax, DWORD PTR _r$[ebp+4]
  01e0c	50		 push	 eax
  01e0d	8b 4d 10	 mov	 ecx, DWORD PTR _r$[ebp]
  01e10	51		 push	 ecx
  01e11	8d 4d 84	 lea	 ecx, DWORD PTR _hdcMem$187820[ebp]
  01e14	e8 00 00 00 00	 call	 ?BitBlt@CDC@@QAEHHHHHPAV1@HHK@Z ; CDC::BitBlt

; 500  : 			hdcMem.BitBlt(r.left,r.top,cx,cy,&dcBmp,0,0,SRCINVERT);

  01e19	68 46 00 66 00	 push	 6684742			; 00660046H
  01e1e	6a 00		 push	 0
  01e20	6a 00		 push	 0
  01e22	8d 55 d4	 lea	 edx, DWORD PTR _dcBmp$[ebp]
  01e25	52		 push	 edx
  01e26	8b 45 e8	 mov	 eax, DWORD PTR _cy$[ebp]
  01e29	50		 push	 eax
  01e2a	8b 4d ec	 mov	 ecx, DWORD PTR _cx$[ebp]
  01e2d	51		 push	 ecx
  01e2e	8b 55 14	 mov	 edx, DWORD PTR _r$[ebp+4]
  01e31	52		 push	 edx
  01e32	8b 45 10	 mov	 eax, DWORD PTR _r$[ebp]
  01e35	50		 push	 eax
  01e36	8d 4d 84	 lea	 ecx, DWORD PTR _hdcMem$187820[ebp]
  01e39	e8 00 00 00 00	 call	 ?BitBlt@CDC@@QAEHHHHHPAV1@HHK@Z ; CDC::BitBlt

; 501  : 		} else {

  01e3e	e9 bd 00 00 00	 jmp	 $L187827
$L187823:

; 502  : 			int bx=GetBitmapWidth(hbmp);

  01e43	8b 4d 0c	 mov	 ecx, DWORD PTR _hbmp$[ebp]
  01e46	51		 push	 ecx
  01e47	8b 4d f0	 mov	 ecx, DWORD PTR _this$[ebp]
  01e4a	e8 00 00 00 00	 call	 ?GetBitmapWidth@CxStaticText@@IAEHPAVCDibBitmap@@@Z ; CxStaticText::GetBitmapWidth
  01e4f	89 85 6c ff ff
	ff		 mov	 DWORD PTR _bx$187828[ebp], eax

; 503  : 			int by=GetBitmapHeight(hbmp);

  01e55	8b 55 0c	 mov	 edx, DWORD PTR _hbmp$[ebp]
  01e58	52		 push	 edx
  01e59	8b 4d f0	 mov	 ecx, DWORD PTR _this$[ebp]
  01e5c	e8 00 00 00 00	 call	 ?GetBitmapHeight@CxStaticText@@IAEHPAVCDibBitmap@@@Z ; CxStaticText::GetBitmapHeight
  01e61	89 85 68 ff ff
	ff		 mov	 DWORD PTR _by$187829[ebp], eax

; 504  : 			hdcMem.StretchBlt(r.left,r.top,cx,cy,&dcBmp,0,0,bx,by,SRCINVERT);

  01e67	68 46 00 66 00	 push	 6684742			; 00660046H
  01e6c	8b 85 68 ff ff
	ff		 mov	 eax, DWORD PTR _by$187829[ebp]
  01e72	50		 push	 eax
  01e73	8b 8d 6c ff ff
	ff		 mov	 ecx, DWORD PTR _bx$187828[ebp]
  01e79	51		 push	 ecx
  01e7a	6a 00		 push	 0
  01e7c	6a 00		 push	 0
  01e7e	8d 55 d4	 lea	 edx, DWORD PTR _dcBmp$[ebp]
  01e81	52		 push	 edx
  01e82	8b 45 e8	 mov	 eax, DWORD PTR _cy$[ebp]
  01e85	50		 push	 eax
  01e86	8b 4d ec	 mov	 ecx, DWORD PTR _cx$[ebp]
  01e89	51		 push	 ecx
  01e8a	8b 55 14	 mov	 edx, DWORD PTR _r$[ebp+4]
  01e8d	52		 push	 edx
  01e8e	8b 45 10	 mov	 eax, DWORD PTR _r$[ebp]
  01e91	50		 push	 eax
  01e92	8d 4d 84	 lea	 ecx, DWORD PTR _hdcMem$187820[ebp]
  01e95	e8 00 00 00 00	 call	 ?StretchBlt@CDC@@QAEHHHHHPAV1@HHHHK@Z ; CDC::StretchBlt

; 505  : 			hdcMem.StretchBlt(r.left,r.top,cx,cy,&dcMask,0,0,bx,by,SRCAND);

  01e9a	68 c6 00 88 00	 push	 8913094			; 008800c6H
  01e9f	8b 8d 68 ff ff
	ff		 mov	 ecx, DWORD PTR _by$187829[ebp]
  01ea5	51		 push	 ecx
  01ea6	8b 95 6c ff ff
	ff		 mov	 edx, DWORD PTR _bx$187828[ebp]
  01eac	52		 push	 edx
  01ead	6a 00		 push	 0
  01eaf	6a 00		 push	 0
  01eb1	8d 45 bc	 lea	 eax, DWORD PTR _dcMask$[ebp]
  01eb4	50		 push	 eax
  01eb5	8b 4d e8	 mov	 ecx, DWORD PTR _cy$[ebp]
  01eb8	51		 push	 ecx
  01eb9	8b 55 ec	 mov	 edx, DWORD PTR _cx$[ebp]
  01ebc	52		 push	 edx
  01ebd	8b 45 14	 mov	 eax, DWORD PTR _r$[ebp+4]
  01ec0	50		 push	 eax
  01ec1	8b 4d 10	 mov	 ecx, DWORD PTR _r$[ebp]
  01ec4	51		 push	 ecx
  01ec5	8d 4d 84	 lea	 ecx, DWORD PTR _hdcMem$187820[ebp]
  01ec8	e8 00 00 00 00	 call	 ?StretchBlt@CDC@@QAEHHHHHPAV1@HHHHK@Z ; CDC::StretchBlt

; 506  : 			hdcMem.StretchBlt(r.left,r.top,cx,cy,&dcBmp,0,0,bx,by,SRCINVERT);

  01ecd	68 46 00 66 00	 push	 6684742			; 00660046H
  01ed2	8b 95 68 ff ff
	ff		 mov	 edx, DWORD PTR _by$187829[ebp]
  01ed8	52		 push	 edx
  01ed9	8b 85 6c ff ff
	ff		 mov	 eax, DWORD PTR _bx$187828[ebp]
  01edf	50		 push	 eax
  01ee0	6a 00		 push	 0
  01ee2	6a 00		 push	 0
  01ee4	8d 4d d4	 lea	 ecx, DWORD PTR _dcBmp$[ebp]
  01ee7	51		 push	 ecx
  01ee8	8b 55 e8	 mov	 edx, DWORD PTR _cy$[ebp]
  01eeb	52		 push	 edx
  01eec	8b 45 ec	 mov	 eax, DWORD PTR _cx$[ebp]
  01eef	50		 push	 eax
  01ef0	8b 4d 14	 mov	 ecx, DWORD PTR _r$[ebp+4]
  01ef3	51		 push	 ecx
  01ef4	8b 55 10	 mov	 edx, DWORD PTR _r$[ebp]
  01ef7	52		 push	 edx
  01ef8	8d 4d 84	 lea	 ecx, DWORD PTR _hdcMem$187820[ebp]
  01efb	e8 00 00 00 00	 call	 ?StretchBlt@CDC@@QAEHHHHHPAV1@HHHHK@Z ; CDC::StretchBlt
$L187827:

; 507  : 		}
; 508  :         dc->BitBlt(r.left,r.top,cx,cy,&hdcMem,0,0,SRCCOPY);

  01f00	68 20 00 cc 00	 push	 13369376		; 00cc0020H
  01f05	6a 00		 push	 0
  01f07	6a 00		 push	 0
  01f09	8d 45 84	 lea	 eax, DWORD PTR _hdcMem$187820[ebp]
  01f0c	50		 push	 eax
  01f0d	8b 4d e8	 mov	 ecx, DWORD PTR _cy$[ebp]
  01f10	51		 push	 ecx
  01f11	8b 55 ec	 mov	 edx, DWORD PTR _cx$[ebp]
  01f14	52		 push	 edx
  01f15	8b 45 14	 mov	 eax, DWORD PTR _r$[ebp+4]
  01f18	50		 push	 eax
  01f19	8b 4d 10	 mov	 ecx, DWORD PTR _r$[ebp]
  01f1c	51		 push	 ecx
  01f1d	8b 4d 08	 mov	 ecx, DWORD PTR _dc$[ebp]
  01f20	e8 00 00 00 00	 call	 ?BitBlt@CDC@@QAEHHHHHPAV1@HHK@Z ; CDC::BitBlt

; 509  : 
; 510  : 
; 511  : 		hBitmap.DeleteObject();

  01f25	8d 8d 74 ff ff
	ff		 lea	 ecx, DWORD PTR _hBitmap$187821[ebp]
  01f2b	e8 00 00 00 00	 call	 ?DeleteObject@CGdiObject@@QAEHXZ ; CGdiObject::DeleteObject

; 512  : 		hBitmapMask.DeleteObject();

  01f30	8d 4d 9c	 lea	 ecx, DWORD PTR _hBitmapMask$187818[ebp]
  01f33	e8 00 00 00 00	 call	 ?DeleteObject@CGdiObject@@QAEHXZ ; CGdiObject::DeleteObject

; 513  : 		hdcMem.DeleteDC();

  01f38	8d 4d 84	 lea	 ecx, DWORD PTR _hdcMem$187820[ebp]
  01f3b	e8 00 00 00 00	 call	 ?DeleteDC@CDC@@QAEHXZ	; CDC::DeleteDC

; 514  : 		DeleteDC(dcMask);

  01f40	8d 4d bc	 lea	 ecx, DWORD PTR _dcMask$[ebp]
  01f43	e8 00 00 00 00	 call	 ??BCDC@@QBEPAUHDC__@@XZ	; CDC::operator HDC__ *
  01f48	8b f4		 mov	 esi, esp
  01f4a	50		 push	 eax
  01f4b	ff 15 00 00 00
	00		 call	 DWORD PTR __imp__DeleteDC@4
  01f51	3b f4		 cmp	 esi, esp
  01f53	e8 00 00 00 00	 call	 __RTC_CheckEsp

; 515  : 	} else {

  01f58	c6 45 fc 04	 mov	 BYTE PTR __$EHRec$[ebp+8], 4
  01f5c	8d 8d 74 ff ff
	ff		 lea	 ecx, DWORD PTR _hBitmap$187821[ebp]
  01f62	e8 00 00 00 00	 call	 ??1CBitmap@@UAE@XZ	; CBitmap::~CBitmap
  01f67	c6 45 fc 03	 mov	 BYTE PTR __$EHRec$[ebp+8], 3
  01f6b	8d 4d 84	 lea	 ecx, DWORD PTR _hdcMem$187820[ebp]
  01f6e	e8 00 00 00 00	 call	 ??1CDC@@UAE@XZ		; CDC::~CDC
  01f73	c6 45 fc 02	 mov	 BYTE PTR __$EHRec$[ebp+8], 2
  01f77	8d 4d 9c	 lea	 ecx, DWORD PTR _hBitmapMask$187818[ebp]
  01f7a	e8 00 00 00 00	 call	 ??1CBitmap@@UAE@XZ	; CBitmap::~CBitmap
  01f7f	e9 84 00 00 00	 jmp	 $L187834
$L187817:

; 516  : 		if(!DrawMode){

  01f84	83 7d 20 00	 cmp	 DWORD PTR _DrawMode$[ebp], 0
  01f88	75 27		 jne	 SHORT $L187835

; 517  : 			dc->BitBlt(r.left,r.top,cx,cy,&dcBmp,0,0,SRCCOPY);

  01f8a	68 20 00 cc 00	 push	 13369376		; 00cc0020H
  01f8f	6a 00		 push	 0
  01f91	6a 00		 push	 0
  01f93	8d 55 d4	 lea	 edx, DWORD PTR _dcBmp$[ebp]
  01f96	52		 push	 edx
  01f97	8b 45 e8	 mov	 eax, DWORD PTR _cy$[ebp]
  01f9a	50		 push	 eax
  01f9b	8b 4d ec	 mov	 ecx, DWORD PTR _cx$[ebp]
  01f9e	51		 push	 ecx
  01f9f	8b 55 14	 mov	 edx, DWORD PTR _r$[ebp+4]
  01fa2	52		 push	 edx
  01fa3	8b 45 10	 mov	 eax, DWORD PTR _r$[ebp]
  01fa6	50		 push	 eax
  01fa7	8b 4d 08	 mov	 ecx, DWORD PTR _dc$[ebp]
  01faa	e8 00 00 00 00	 call	 ?BitBlt@CDC@@QAEHHHHHPAV1@HHK@Z ; CDC::BitBlt

; 518  : 		} else {

  01faf	eb 57		 jmp	 SHORT $L187834
$L187835:

; 519  : 			int bx=GetBitmapWidth(hbmp);

  01fb1	8b 4d 0c	 mov	 ecx, DWORD PTR _hbmp$[ebp]
  01fb4	51		 push	 ecx
  01fb5	8b 4d f0	 mov	 ecx, DWORD PTR _this$[ebp]
  01fb8	e8 00 00 00 00	 call	 ?GetBitmapWidth@CxStaticText@@IAEHPAVCDibBitmap@@@Z ; CxStaticText::GetBitmapWidth
  01fbd	89 85 64 ff ff
	ff		 mov	 DWORD PTR _bx$187838[ebp], eax

; 520  : 			int by=GetBitmapHeight(hbmp);

  01fc3	8b 55 0c	 mov	 edx, DWORD PTR _hbmp$[ebp]
  01fc6	52		 push	 edx
  01fc7	8b 4d f0	 mov	 ecx, DWORD PTR _this$[ebp]
  01fca	e8 00 00 00 00	 call	 ?GetBitmapHeight@CxStaticText@@IAEHPAVCDibBitmap@@@Z ; CxStaticText::GetBitmapHeight
  01fcf	89 85 60 ff ff
	ff		 mov	 DWORD PTR _by$187839[ebp], eax

; 521  : 			dc->StretchBlt(r.left,r.top,cx,cy,&dcBmp,0,0,bx,by,SRCCOPY);

  01fd5	68 20 00 cc 00	 push	 13369376		; 00cc0020H
  01fda	8b 85 60 ff ff
	ff		 mov	 eax, DWORD PTR _by$187839[ebp]
  01fe0	50		 push	 eax
  01fe1	8b 8d 64 ff ff
	ff		 mov	 ecx, DWORD PTR _bx$187838[ebp]
  01fe7	51		 push	 ecx
  01fe8	6a 00		 push	 0
  01fea	6a 00		 push	 0
  01fec	8d 55 d4	 lea	 edx, DWORD PTR _dcBmp$[ebp]
  01fef	52		 push	 edx
  01ff0	8b 45 e8	 mov	 eax, DWORD PTR _cy$[ebp]
  01ff3	50		 push	 eax
  01ff4	8b 4d ec	 mov	 ecx, DWORD PTR _cx$[ebp]
  01ff7	51		 push	 ecx
  01ff8	8b 55 14	 mov	 edx, DWORD PTR _r$[ebp+4]
  01ffb	52		 push	 edx
  01ffc	8b 45 10	 mov	 eax, DWORD PTR _r$[ebp]
  01fff	50		 push	 eax
  02000	8b 4d 08	 mov	 ecx, DWORD PTR _dc$[ebp]
  02003	e8 00 00 00 00	 call	 ?StretchBlt@CDC@@QAEHHHHHPAV1@HHHHK@Z ; CDC::StretchBlt
$L187834:

; 522  : 		}
; 523  : 	}
; 524  : 	hBitmapBmp.DeleteObject();

  02008	8d 4d ac	 lea	 ecx, DWORD PTR _hBitmapBmp$[ebp]
  0200b	e8 00 00 00 00	 call	 ?DeleteObject@CGdiObject@@QAEHXZ ; CGdiObject::DeleteObject

; 525  : 	DeleteDC(dcBmp);

  02010	8d 4d d4	 lea	 ecx, DWORD PTR _dcBmp$[ebp]
  02013	e8 00 00 00 00	 call	 ??BCDC@@QBEPAUHDC__@@XZ	; CDC::operator HDC__ *
  02018	8b f4		 mov	 esi, esp
  0201a	50		 push	 eax
  0201b	ff 15 00 00 00
	00		 call	 DWORD PTR __imp__DeleteDC@4
  02021	3b f4		 cmp	 esi, esp
  02023	e8 00 00 00 00	 call	 __RTC_CheckEsp

; 526  : }

  02028	c6 45 fc 01	 mov	 BYTE PTR __$EHRec$[ebp+8], 1
  0202c	8d 4d ac	 lea	 ecx, DWORD PTR _hBitmapBmp$[ebp]
  0202f	e8 00 00 00 00	 call	 ??1CBitmap@@UAE@XZ	; CBitmap::~CBitmap
  02034	c6 45 fc 00	 mov	 BYTE PTR __$EHRec$[ebp+8], 0
  02038	8d 4d bc	 lea	 ecx, DWORD PTR _dcMask$[ebp]
  0203b	e8 00 00 00 00	 call	 ??1CDC@@UAE@XZ		; CDC::~CDC
  02040	c7 45 fc ff ff
	ff ff		 mov	 DWORD PTR __$EHRec$[ebp+8], -1
  02047	8d 4d d4	 lea	 ecx, DWORD PTR _dcBmp$[ebp]
  0204a	e8 00 00 00 00	 call	 ??1CDC@@UAE@XZ		; CDC::~CDC
$L187808:
  0204f	52		 push	 edx
  02050	8b cd		 mov	 ecx, ebp
  02052	50		 push	 eax
  02053	8d 15 00 00 00
	00		 lea	 edx, DWORD PTR $L189230
  02059	e8 00 00 00 00	 call	 @_RTC_CheckStackVars@8
  0205e	58		 pop	 eax
  0205f	5a		 pop	 edx
  02060	8b 4d f4	 mov	 ecx, DWORD PTR __$EHRec$[ebp]
  02063	64 89 0d 00 00
	00 00		 mov	 DWORD PTR fs:__except_list, ecx
  0206a	5f		 pop	 edi
  0206b	5e		 pop	 esi
  0206c	81 c4 c0 00 00
	00		 add	 esp, 192		; 000000c0H
  02072	3b ec		 cmp	 ebp, esp
  02074	e8 00 00 00 00	 call	 __RTC_CheckEsp
  02079	8b e5		 mov	 esp, ebp
  0207b	5d		 pop	 ebp
  0207c	c2 1c 00	 ret	 28			; 0000001cH
$L189230:
  0207f	06 00 00 00	 DD	 6
  02083	00 00 00 00	 DD	 $L189229
$L189229:
  02087	d4 ff ff ff	 DD	 -44			; ffffffd4H
  0208b	10 00 00 00	 DD	 16			; 00000010H
  0208f	00 00 00 00	 DD	 $L189222
  02093	bc ff ff ff	 DD	 -68			; ffffffbcH
  02097	10 00 00 00	 DD	 16			; 00000010H
  0209b	00 00 00 00	 DD	 $L189223
  0209f	ac ff ff ff	 DD	 -84			; ffffffacH
  020a3	08 00 00 00	 DD	 8
  020a7	00 00 00 00	 DD	 $L189224
  020ab	9c ff ff ff	 DD	 -100			; ffffff9cH
  020af	08 00 00 00	 DD	 8
  020b3	00 00 00 00	 DD	 $L189225
  020b7	84 ff ff ff	 DD	 -124			; ffffff84H
  020bb	10 00 00 00	 DD	 16			; 00000010H
  020bf	00 00 00 00	 DD	 $L189226
  020c3	74 ff ff ff	 DD	 -140			; ffffff74H
  020c7	08 00 00 00	 DD	 8
  020cb	00 00 00 00	 DD	 $L189227
$L189227:
  020cf	68		 DB	 104			; 00000068H
  020d0	42		 DB	 66			; 00000042H
  020d1	69		 DB	 105			; 00000069H
  020d2	74		 DB	 116			; 00000074H
  020d3	6d		 DB	 109			; 0000006dH
  020d4	61		 DB	 97			; 00000061H
  020d5	70		 DB	 112			; 00000070H
  020d6	00		 DB	 0
$L189226:
  020d7	68		 DB	 104			; 00000068H
  020d8	64		 DB	 100			; 00000064H
  020d9	63		 DB	 99			; 00000063H
  020da	4d		 DB	 77			; 0000004dH
  020db	65		 DB	 101			; 00000065H
  020dc	6d		 DB	 109			; 0000006dH
  020dd	00		 DB	 0
$L189225:
  020de	68		 DB	 104			; 00000068H
  020df	42		 DB	 66			; 00000042H
  020e0	69		 DB	 105			; 00000069H
  020e1	74		 DB	 116			; 00000074H
  020e2	6d		 DB	 109			; 0000006dH
  020e3	61		 DB	 97			; 00000061H
  020e4	70		 DB	 112			; 00000070H
  020e5	4d		 DB	 77			; 0000004dH
  020e6	61		 DB	 97			; 00000061H
  020e7	73		 DB	 115			; 00000073H
  020e8	6b		 DB	 107			; 0000006bH
  020e9	00		 DB	 0
$L189224:
  020ea	68		 DB	 104			; 00000068H
  020eb	42		 DB	 66			; 00000042H
  020ec	69		 DB	 105			; 00000069H
  020ed	74		 DB	 116			; 00000074H
  020ee	6d		 DB	 109			; 0000006dH
  020ef	61		 DB	 97			; 00000061H
  020f0	70		 DB	 112			; 00000070H
  020f1	42		 DB	 66			; 00000042H
  020f2	6d		 DB	 109			; 0000006dH
  020f3	70		 DB	 112			; 00000070H
  020f4	00		 DB	 0
$L189223:
  020f5	64		 DB	 100			; 00000064H
  020f6	63		 DB	 99			; 00000063H
  020f7	4d		 DB	 77			; 0000004dH
  020f8	61		 DB	 97			; 00000061H
  020f9	73		 DB	 115			; 00000073H
  020fa	6b		 DB	 107			; 0000006bH
  020fb	00		 DB	 0
$L189222:
  020fc	64		 DB	 100			; 00000064H
  020fd	63		 DB	 99			; 00000063H
  020fe	42		 DB	 66			; 00000042H
  020ff	6d		 DB	 109			; 0000006dH
  02100	70		 DB	 112			; 00000070H
  02101	00		 DB	 0
_TEXT	ENDS
text$x	SEGMENT
$L189214:
  001a7	8d 4d d4	 lea	 ecx, DWORD PTR _dcBmp$[ebp]
  001aa	e9 00 00 00 00	 jmp	 ??1CDC@@UAE@XZ		; CDC::~CDC
$L189215:
  001af	8d 4d bc	 lea	 ecx, DWORD PTR _dcMask$[ebp]
  001b2	e9 00 00 00 00	 jmp	 ??1CDC@@UAE@XZ		; CDC::~CDC
$L189216:
  001b7	8d 4d ac	 lea	 ecx, DWORD PTR _hBitmapBmp$[ebp]
  001ba	e9 00 00 00 00	 jmp	 ??1CBitmap@@UAE@XZ	; CBitmap::~CBitmap
$L189217:
  001bf	8d 4d 9c	 lea	 ecx, DWORD PTR _hBitmapMask$187818[ebp]
  001c2	e9 00 00 00 00	 jmp	 ??1CBitmap@@UAE@XZ	; CBitmap::~CBitmap
$L189218:
  001c7	8d 4d 84	 lea	 ecx, DWORD PTR _hdcMem$187820[ebp]
  001ca	e9 00 00 00 00	 jmp	 ??1CDC@@UAE@XZ		; CDC::~CDC
$L189219:
  001cf	8d 8d 74 ff ff
	ff		 lea	 ecx, DWORD PTR _hBitmap$187821[ebp]
  001d5	e9 00 00 00 00	 jmp	 ??1CBitmap@@UAE@XZ	; CBitmap::~CBitmap
__ehhandler$?DrawBitmap@CxStaticText@@IAEXPAVCDC@@PAVCDibBitmap@@UtagRECT@@H@Z:
  001da	b8 00 00 00 00	 mov	 eax, OFFSET FLAT:$T189221
  001df	e9 00 00 00 00	 jmp	 ___CxxFrameHandler
text$x	ENDS
?DrawBitmap@CxStaticText@@IAEXPAVCDC@@PAVCDibBitmap@@UtagRECT@@H@Z ENDP ; CxStaticText::DrawBitmap
; Function compile flags: /Odt /RTCsu
_TEXT	SEGMENT
_this$ = -4						; size = 4
_hBitmap$ = 8						; size = 4
?GetBitmapWidth@CxStaticText@@IAEHPAVCDibBitmap@@@Z PROC NEAR ; CxStaticText::GetBitmapWidth
; _this$ = ecx

; 528  : {

  02110	55		 push	 ebp
  02111	8b ec		 mov	 ebp, esp
  02113	51		 push	 ecx
  02114	c7 45 fc cc cc
	cc cc		 mov	 DWORD PTR [ebp-4], -858993460 ; ccccccccH
  0211b	89 4d fc	 mov	 DWORD PTR _this$[ebp], ecx

; 529  : 	return hBitmap->m_lpBMIH->biWidth;

  0211e	8b 45 08	 mov	 eax, DWORD PTR _hBitmap$[ebp]
  02121	8b 48 04	 mov	 ecx, DWORD PTR [eax+4]
  02124	8b 41 04	 mov	 eax, DWORD PTR [ecx+4]

; 530  : }

  02127	8b e5		 mov	 esp, ebp
  02129	5d		 pop	 ebp
  0212a	c2 04 00	 ret	 4
?GetBitmapWidth@CxStaticText@@IAEHPAVCDibBitmap@@@Z ENDP ; CxStaticText::GetBitmapWidth
; Function compile flags: /Odt /RTCsu
_this$ = -4						; size = 4
_hBitmap$ = 8						; size = 4
?GetBitmapHeight@CxStaticText@@IAEHPAVCDibBitmap@@@Z PROC NEAR ; CxStaticText::GetBitmapHeight
; _this$ = ecx

; 533  : {

  02130	55		 push	 ebp
  02131	8b ec		 mov	 ebp, esp
  02133	51		 push	 ecx
  02134	c7 45 fc cc cc
	cc cc		 mov	 DWORD PTR [ebp-4], -858993460 ; ccccccccH
  0213b	89 4d fc	 mov	 DWORD PTR _this$[ebp], ecx

; 534  : 	return hBitmap->m_lpBMIH->biHeight;

  0213e	8b 45 08	 mov	 eax, DWORD PTR _hBitmap$[ebp]
  02141	8b 48 04	 mov	 ecx, DWORD PTR [eax+4]
  02144	8b 41 08	 mov	 eax, DWORD PTR [ecx+8]

; 535  : }

  02147	8b e5		 mov	 esp, ebp
  02149	5d		 pop	 ebp
  0214a	c2 04 00	 ret	 4
?GetBitmapHeight@CxStaticText@@IAEHPAVCDibBitmap@@@Z ENDP ; CxStaticText::GetBitmapHeight
_TEXT	ENDS
xdata$x	SEGMENT
$T189245 DD	0ffffffffH
	DD	FLAT:$L189236
	DD	00H
	DD	FLAT:$L189237
$T189239 DD	019930520H
	DD	02H
	DD	FLAT:$T189245
	DD	2 DUP(00H)
	DD	2 DUP(00H)
; Function compile flags: /Odt /RTCsu
xdata$x	ENDS
_TEXT	SEGMENT
$T189235 = -100						; size = 16
_by$ = -84						; size = 4
_bx$ = -80						; size = 4
_z$ = -76						; size = 4
_y$ = -72						; size = 4
_x$ = -68						; size = 4
_h$ = -64						; size = 4
_w$ = -60						; size = 4
_hBitmapBmp$ = -52					; size = 8
_memdc$ = -36						; size = 16
_this$ = -16						; size = 4
__$EHRec$ = -12						; size = 12
_dc$ = 8						; size = 4
_hbmp$ = 12						; size = 4
_r$ = 16						; size = 16
?FillWithBitmap@CxStaticText@@IAEXPAVCDC@@PAVCDibBitmap@@UtagRECT@@@Z PROC NEAR ; CxStaticText::FillWithBitmap
; _this$ = ecx

; 537  : {

  02150	55		 push	 ebp
  02151	8b ec		 mov	 ebp, esp
  02153	6a ff		 push	 -1
  02155	68 00 00 00 00	 push	 __ehhandler$?FillWithBitmap@CxStaticText@@IAEXPAVCDC@@PAVCDibBitmap@@UtagRECT@@@Z
  0215a	64 a1 00 00 00
	00		 mov	 eax, DWORD PTR fs:__except_list
  02160	50		 push	 eax
  02161	64 89 25 00 00
	00 00		 mov	 DWORD PTR fs:__except_list, esp
  02168	83 ec 58	 sub	 esp, 88			; 00000058H
  0216b	56		 push	 esi
  0216c	57		 push	 edi
  0216d	51		 push	 ecx
  0216e	8d 7d 9c	 lea	 edi, DWORD PTR [ebp-100]
  02171	b9 16 00 00 00	 mov	 ecx, 22			; 00000016H
  02176	b8 cc cc cc cc	 mov	 eax, -858993460		; ccccccccH
  0217b	f3 ab		 rep stosd
  0217d	59		 pop	 ecx
  0217e	89 4d f0	 mov	 DWORD PTR _this$[ebp], ecx

; 538  : 	if(!hbmp) return;

  02181	83 7d 0c 00	 cmp	 DWORD PTR _hbmp$[ebp], 0
  02185	75 05		 jne	 SHORT $L187855
  02187	e9 9f 01 00 00	 jmp	 $L187854
$L187855:

; 539  : 	CDC memdc;

  0218c	8d 4d dc	 lea	 ecx, DWORD PTR _memdc$[ebp]
  0218f	e8 00 00 00 00	 call	 ??0CDC@@QAE@XZ		; CDC::CDC
  02194	c7 45 fc 00 00
	00 00		 mov	 DWORD PTR __$EHRec$[ebp+8], 0

; 540  : 	memdc.CreateCompatibleDC(dc);

  0219b	8b 45 08	 mov	 eax, DWORD PTR _dc$[ebp]
  0219e	50		 push	 eax
  0219f	8d 4d dc	 lea	 ecx, DWORD PTR _memdc$[ebp]
  021a2	e8 00 00 00 00	 call	 ?CreateCompatibleDC@CDC@@QAEHPAV1@@Z ; CDC::CreateCompatibleDC

; 541  : 	CBitmap hBitmapBmp;                     //

  021a7	8d 4d cc	 lea	 ecx, DWORD PTR _hBitmapBmp$[ebp]
  021aa	e8 00 00 00 00	 call	 ??0CBitmap@@QAE@XZ	; CBitmap::CBitmap
  021af	c6 45 fc 01	 mov	 BYTE PTR __$EHRec$[ebp+8], 1

; 542  : 	hBitmapBmp.CreateCompatibleBitmap(dc,hbmp->m_lpBMIH->biWidth,hbmp->m_lpBMIH->biHeight);

  021b3	8b 4d 0c	 mov	 ecx, DWORD PTR _hbmp$[ebp]
  021b6	8b 51 04	 mov	 edx, DWORD PTR [ecx+4]
  021b9	8b 42 08	 mov	 eax, DWORD PTR [edx+8]
  021bc	50		 push	 eax
  021bd	8b 4d 0c	 mov	 ecx, DWORD PTR _hbmp$[ebp]
  021c0	8b 51 04	 mov	 edx, DWORD PTR [ecx+4]
  021c3	8b 42 04	 mov	 eax, DWORD PTR [edx+4]
  021c6	50		 push	 eax
  021c7	8b 4d 08	 mov	 ecx, DWORD PTR _dc$[ebp]
  021ca	51		 push	 ecx
  021cb	8d 4d cc	 lea	 ecx, DWORD PTR _hBitmapBmp$[ebp]
  021ce	e8 00 00 00 00	 call	 ?CreateCompatibleBitmap@CBitmap@@QAEHPAVCDC@@HH@Z ; CBitmap::CreateCompatibleBitmap

; 543  : 	memdc.SelectObject(&hBitmapBmp);

  021d3	8d 55 cc	 lea	 edx, DWORD PTR _hBitmapBmp$[ebp]
  021d6	52		 push	 edx
  021d7	8d 4d dc	 lea	 ecx, DWORD PTR _memdc$[ebp]
  021da	e8 00 00 00 00	 call	 ?SelectObject@CDC@@QAEPAVCBitmap@@PAV2@@Z ; CDC::SelectObject

; 544  : 	hbmp->SetCDibRect(CRect(0,0,hbmp->m_lpBMIH->biWidth,hbmp->m_lpBMIH->biHeight));

  021df	8b 45 0c	 mov	 eax, DWORD PTR _hbmp$[ebp]
  021e2	8b 48 04	 mov	 ecx, DWORD PTR [eax+4]
  021e5	8b 51 08	 mov	 edx, DWORD PTR [ecx+8]
  021e8	52		 push	 edx
  021e9	8b 45 0c	 mov	 eax, DWORD PTR _hbmp$[ebp]
  021ec	8b 48 04	 mov	 ecx, DWORD PTR [eax+4]
  021ef	8b 51 04	 mov	 edx, DWORD PTR [ecx+4]
  021f2	52		 push	 edx
  021f3	6a 00		 push	 0
  021f5	6a 00		 push	 0
  021f7	8d 4d 9c	 lea	 ecx, DWORD PTR $T189235[ebp]
  021fa	e8 00 00 00 00	 call	 ??0CRect@@QAE@HHHH@Z	; CRect::CRect
  021ff	83 ec 10	 sub	 esp, 16			; 00000010H
  02202	8b cc		 mov	 ecx, esp
  02204	8b 10		 mov	 edx, DWORD PTR [eax]
  02206	89 11		 mov	 DWORD PTR [ecx], edx
  02208	8b 50 04	 mov	 edx, DWORD PTR [eax+4]
  0220b	89 51 04	 mov	 DWORD PTR [ecx+4], edx
  0220e	8b 50 08	 mov	 edx, DWORD PTR [eax+8]
  02211	89 51 08	 mov	 DWORD PTR [ecx+8], edx
  02214	8b 40 0c	 mov	 eax, DWORD PTR [eax+12]
  02217	89 41 0c	 mov	 DWORD PTR [ecx+12], eax
  0221a	8b 4d 0c	 mov	 ecx, DWORD PTR _hbmp$[ebp]
  0221d	e8 00 00 00 00	 call	 ?SetCDibRect@CDibBitmap@@QAEXVCRect@@@Z ; CDibBitmap::SetCDibRect

; 545  : 	hbmp->Draw(&memdc,FALSE);

  02222	6a 01		 push	 1
  02224	6a 00		 push	 0
  02226	6a 00		 push	 0
  02228	8d 4d dc	 lea	 ecx, DWORD PTR _memdc$[ebp]
  0222b	51		 push	 ecx
  0222c	8b 4d 0c	 mov	 ecx, DWORD PTR _hbmp$[ebp]
  0222f	e8 00 00 00 00	 call	 ?Draw@CDibBitmap@@QAEHPAVCDC@@HKH@Z ; CDibBitmap::Draw

; 546  : 
; 547  : 	int w = r.right - r.left;

  02234	8b 55 18	 mov	 edx, DWORD PTR _r$[ebp+8]
  02237	2b 55 10	 sub	 edx, DWORD PTR _r$[ebp]
  0223a	89 55 c4	 mov	 DWORD PTR _w$[ebp], edx

; 548  : 	int	h = r.bottom - r.top;

  0223d	8b 45 1c	 mov	 eax, DWORD PTR _r$[ebp+12]
  02240	2b 45 14	 sub	 eax, DWORD PTR _r$[ebp+4]
  02243	89 45 c0	 mov	 DWORD PTR _h$[ebp], eax

; 549  : 	int x,y,z;
; 550  : 	int	bx=GetBitmapWidth(hbmp);

  02246	8b 4d 0c	 mov	 ecx, DWORD PTR _hbmp$[ebp]
  02249	51		 push	 ecx
  0224a	8b 4d f0	 mov	 ecx, DWORD PTR _this$[ebp]
  0224d	e8 00 00 00 00	 call	 ?GetBitmapWidth@CxStaticText@@IAEHPAVCDibBitmap@@@Z ; CxStaticText::GetBitmapWidth
  02252	89 45 b0	 mov	 DWORD PTR _bx$[ebp], eax

; 551  : 	int	by=GetBitmapHeight(hbmp);

  02255	8b 55 0c	 mov	 edx, DWORD PTR _hbmp$[ebp]
  02258	52		 push	 edx
  02259	8b 4d f0	 mov	 ecx, DWORD PTR _this$[ebp]
  0225c	e8 00 00 00 00	 call	 ?GetBitmapHeight@CxStaticText@@IAEHPAVCDibBitmap@@@Z ; CxStaticText::GetBitmapHeight
  02261	89 45 ac	 mov	 DWORD PTR _by$[ebp], eax

; 552  : 	for (y = r.top ; y < h ; y += by){

  02264	8b 45 14	 mov	 eax, DWORD PTR _r$[ebp+4]
  02267	89 45 b8	 mov	 DWORD PTR _y$[ebp], eax
  0226a	eb 09		 jmp	 SHORT $L187866
$L187867:
  0226c	8b 4d b8	 mov	 ecx, DWORD PTR _y$[ebp]
  0226f	03 4d ac	 add	 ecx, DWORD PTR _by$[ebp]
  02272	89 4d b8	 mov	 DWORD PTR _y$[ebp], ecx
$L187866:
  02275	8b 55 b8	 mov	 edx, DWORD PTR _y$[ebp]
  02278	3b 55 c0	 cmp	 edx, DWORD PTR _h$[ebp]
  0227b	7d 73		 jge	 SHORT $L187868

; 553  : 		if ((y+by)>h) by=h-y;

  0227d	8b 45 b8	 mov	 eax, DWORD PTR _y$[ebp]
  02280	03 45 ac	 add	 eax, DWORD PTR _by$[ebp]
  02283	3b 45 c0	 cmp	 eax, DWORD PTR _h$[ebp]
  02286	7e 09		 jle	 SHORT $L187869
  02288	8b 4d c0	 mov	 ecx, DWORD PTR _h$[ebp]
  0228b	2b 4d b8	 sub	 ecx, DWORD PTR _y$[ebp]
  0228e	89 4d ac	 mov	 DWORD PTR _by$[ebp], ecx
$L187869:

; 554  : 		z=bx;

  02291	8b 55 b0	 mov	 edx, DWORD PTR _bx$[ebp]
  02294	89 55 b4	 mov	 DWORD PTR _z$[ebp], edx

; 555  : 		for (x = r.left ; x < w ; x += z){

  02297	8b 45 10	 mov	 eax, DWORD PTR _r$[ebp]
  0229a	89 45 bc	 mov	 DWORD PTR _x$[ebp], eax
  0229d	eb 09		 jmp	 SHORT $L187870
$L187871:
  0229f	8b 4d bc	 mov	 ecx, DWORD PTR _x$[ebp]
  022a2	03 4d b4	 add	 ecx, DWORD PTR _z$[ebp]
  022a5	89 4d bc	 mov	 DWORD PTR _x$[ebp], ecx
$L187870:
  022a8	8b 55 bc	 mov	 edx, DWORD PTR _x$[ebp]
  022ab	3b 55 c4	 cmp	 edx, DWORD PTR _w$[ebp]
  022ae	7d 3b		 jge	 SHORT $L187872

; 556  : 			if ((x+z)>w) z=w-x;

  022b0	8b 45 bc	 mov	 eax, DWORD PTR _x$[ebp]
  022b3	03 45 b4	 add	 eax, DWORD PTR _z$[ebp]
  022b6	3b 45 c4	 cmp	 eax, DWORD PTR _w$[ebp]
  022b9	7e 09		 jle	 SHORT $L187873
  022bb	8b 4d c4	 mov	 ecx, DWORD PTR _w$[ebp]
  022be	2b 4d bc	 sub	 ecx, DWORD PTR _x$[ebp]
  022c1	89 4d b4	 mov	 DWORD PTR _z$[ebp], ecx
$L187873:

; 557  : 			dc->BitBlt(x, y, z, by, &memdc, 0, 0, SRCCOPY);

  022c4	68 20 00 cc 00	 push	 13369376		; 00cc0020H
  022c9	6a 00		 push	 0
  022cb	6a 00		 push	 0
  022cd	8d 55 dc	 lea	 edx, DWORD PTR _memdc$[ebp]
  022d0	52		 push	 edx
  022d1	8b 45 ac	 mov	 eax, DWORD PTR _by$[ebp]
  022d4	50		 push	 eax
  022d5	8b 4d b4	 mov	 ecx, DWORD PTR _z$[ebp]
  022d8	51		 push	 ecx
  022d9	8b 55 b8	 mov	 edx, DWORD PTR _y$[ebp]
  022dc	52		 push	 edx
  022dd	8b 45 bc	 mov	 eax, DWORD PTR _x$[ebp]
  022e0	50		 push	 eax
  022e1	8b 4d 08	 mov	 ecx, DWORD PTR _dc$[ebp]
  022e4	e8 00 00 00 00	 call	 ?BitBlt@CDC@@QAEHHHHHPAV1@HHK@Z ; CDC::BitBlt

; 558  : 		}

  022e9	eb b4		 jmp	 SHORT $L187871
$L187872:

; 559  : 	}

  022eb	e9 7c ff ff ff	 jmp	 $L187867
$L187868:

; 560  : 	hBitmapBmp.DeleteObject();

  022f0	8d 4d cc	 lea	 ecx, DWORD PTR _hBitmapBmp$[ebp]
  022f3	e8 00 00 00 00	 call	 ?DeleteObject@CGdiObject@@QAEHXZ ; CGdiObject::DeleteObject

; 561  : 	DeleteDC(memdc);

  022f8	8d 4d dc	 lea	 ecx, DWORD PTR _memdc$[ebp]
  022fb	e8 00 00 00 00	 call	 ??BCDC@@QBEPAUHDC__@@XZ	; CDC::operator HDC__ *
  02300	8b f4		 mov	 esi, esp
  02302	50		 push	 eax
  02303	ff 15 00 00 00
	00		 call	 DWORD PTR __imp__DeleteDC@4
  02309	3b f4		 cmp	 esi, esp
  0230b	e8 00 00 00 00	 call	 __RTC_CheckEsp

; 562  : }

  02310	c6 45 fc 00	 mov	 BYTE PTR __$EHRec$[ebp+8], 0
  02314	8d 4d cc	 lea	 ecx, DWORD PTR _hBitmapBmp$[ebp]
  02317	e8 00 00 00 00	 call	 ??1CBitmap@@UAE@XZ	; CBitmap::~CBitmap
  0231c	c7 45 fc ff ff
	ff ff		 mov	 DWORD PTR __$EHRec$[ebp+8], -1
  02323	8d 4d dc	 lea	 ecx, DWORD PTR _memdc$[ebp]
  02326	e8 00 00 00 00	 call	 ??1CDC@@UAE@XZ		; CDC::~CDC
$L187854:
  0232b	52		 push	 edx
  0232c	8b cd		 mov	 ecx, ebp
  0232e	50		 push	 eax
  0232f	8d 15 00 00 00
	00		 lea	 edx, DWORD PTR $L189244
  02335	e8 00 00 00 00	 call	 @_RTC_CheckStackVars@8
  0233a	58		 pop	 eax
  0233b	5a		 pop	 edx
  0233c	8b 4d f4	 mov	 ecx, DWORD PTR __$EHRec$[ebp]
  0233f	64 89 0d 00 00
	00 00		 mov	 DWORD PTR fs:__except_list, ecx
  02346	5f		 pop	 edi
  02347	5e		 pop	 esi
  02348	83 c4 64	 add	 esp, 100		; 00000064H
  0234b	3b ec		 cmp	 ebp, esp
  0234d	e8 00 00 00 00	 call	 __RTC_CheckEsp
  02352	8b e5		 mov	 esp, ebp
  02354	5d		 pop	 ebp
  02355	c2 18 00	 ret	 24			; 00000018H
$L189244:
  02358	02 00 00 00	 DD	 2
  0235c	00 00 00 00	 DD	 $L189243
$L189243:
  02360	dc ff ff ff	 DD	 -36			; ffffffdcH
  02364	10 00 00 00	 DD	 16			; 00000010H
  02368	00 00 00 00	 DD	 $L189240
  0236c	cc ff ff ff	 DD	 -52			; ffffffccH
  02370	08 00 00 00	 DD	 8
  02374	00 00 00 00	 DD	 $L189241
$L189241:
  02378	68		 DB	 104			; 00000068H
  02379	42		 DB	 66			; 00000042H
  0237a	69		 DB	 105			; 00000069H
  0237b	74		 DB	 116			; 00000074H
  0237c	6d		 DB	 109			; 0000006dH
  0237d	61		 DB	 97			; 00000061H
  0237e	70		 DB	 112			; 00000070H
  0237f	42		 DB	 66			; 00000042H
  02380	6d		 DB	 109			; 0000006dH
  02381	70		 DB	 112			; 00000070H
  02382	00		 DB	 0
$L189240:
  02383	6d		 DB	 109			; 0000006dH
  02384	65		 DB	 101			; 00000065H
  02385	6d		 DB	 109			; 0000006dH
  02386	64		 DB	 100			; 00000064H
  02387	63		 DB	 99			; 00000063H
  02388	00		 DB	 0
_TEXT	ENDS
text$x	SEGMENT
$L189236:
  001e4	8d 4d dc	 lea	 ecx, DWORD PTR _memdc$[ebp]
  001e7	e9 00 00 00 00	 jmp	 ??1CDC@@UAE@XZ		; CDC::~CDC
$L189237:
  001ec	8d 4d cc	 lea	 ecx, DWORD PTR _hBitmapBmp$[ebp]
  001ef	e9 00 00 00 00	 jmp	 ??1CBitmap@@UAE@XZ	; CBitmap::~CBitmap
__ehhandler$?FillWithBitmap@CxStaticText@@IAEXPAVCDC@@PAVCDibBitmap@@UtagRECT@@@Z:
  001f4	b8 00 00 00 00	 mov	 eax, OFFSET FLAT:$T189239
  001f9	e9 00 00 00 00	 jmp	 ___CxxFrameHandler
text$x	ENDS
?FillWithBitmap@CxStaticText@@IAEXPAVCDC@@PAVCDibBitmap@@UtagRECT@@@Z ENDP ; CxStaticText::FillWithBitmap
PUBLIC	?RelayEvent@CxStaticText@@IAEXIIJ@Z		; CxStaticText::RelayEvent
EXTRN	?OnLButtonDown@CWnd@@IAEXIVCPoint@@@Z:NEAR	; CWnd::OnLButtonDown
EXTRN	__imp__SetCursor@4:NEAR
; Function compile flags: /Odt /RTCsu
_TEXT	SEGMENT
_this$ = -4						; size = 4
_nFlags$ = 8						; size = 4
_point$ = 12						; size = 8
?OnMouseMove@CxStaticText@@IAEXIVCPoint@@@Z PROC NEAR	; CxStaticText::OnMouseMove
; _this$ = ecx

; 565  : {

  02390	55		 push	 ebp
  02391	8b ec		 mov	 ebp, esp
  02393	51		 push	 ecx
  02394	56		 push	 esi
  02395	c7 45 fc cc cc
	cc cc		 mov	 DWORD PTR [ebp-4], -858993460 ; ccccccccH
  0239c	89 4d fc	 mov	 DWORD PTR _this$[ebp], ecx

; 566  : 	// TODO: /
; 567  : 
; 568  : 	if(m_EnableClick)

  0239f	8b 45 fc	 mov	 eax, DWORD PTR _this$[ebp]
  023a2	0f b6 48 6a	 movzx	 ecx, BYTE PTR [eax+106]
  023a6	85 c9		 test	 ecx, ecx
  023a8	74 16		 je	 SHORT $L187880

; 569  : 	{	
; 570  : 		::SetCursor(m_hCurFinger);

  023aa	8b f4		 mov	 esi, esp
  023ac	8b 55 fc	 mov	 edx, DWORD PTR _this$[ebp]
  023af	8b 42 6c	 mov	 eax, DWORD PTR [edx+108]
  023b2	50		 push	 eax
  023b3	ff 15 00 00 00
	00		 call	 DWORD PTR __imp__SetCursor@4
  023b9	3b f4		 cmp	 esi, esp
  023bb	e8 00 00 00 00	 call	 __RTC_CheckEsp
$L187880:

; 571  : 	}
; 572  : 
; 573  : 	if(m_EnableToolTip)

  023c0	8b 4d fc	 mov	 ecx, DWORD PTR _this$[ebp]
  023c3	0f b6 51 7c	 movzx	 edx, BYTE PTR [ecx+124]
  023c7	85 d2		 test	 edx, edx
  023c9	74 3f		 je	 SHORT $L187881

; 574  : 	{
; 575  : 		RelayEvent(WM_MOUSEMOVE,(WPARAM)nFlags,MAKELPARAM(LOWORD(point.x),LOWORD(point.y)));

  023cb	8b 45 0c	 mov	 eax, DWORD PTR _point$[ebp]
  023ce	25 ff ff 00 00	 and	 eax, 65535		; 0000ffffH
  023d3	0f b7 c8	 movzx	 ecx, ax
  023d6	81 e1 ff ff 00
	00		 and	 ecx, 65535		; 0000ffffH
  023dc	0f b7 d1	 movzx	 edx, cx
  023df	8b 45 10	 mov	 eax, DWORD PTR _point$[ebp+4]
  023e2	25 ff ff 00 00	 and	 eax, 65535		; 0000ffffH
  023e7	0f b7 c8	 movzx	 ecx, ax
  023ea	81 e1 ff ff 00
	00		 and	 ecx, 65535		; 0000ffffH
  023f0	0f b7 c1	 movzx	 eax, cx
  023f3	c1 e0 10	 shl	 eax, 16			; 00000010H
  023f6	0b d0		 or	 edx, eax
  023f8	52		 push	 edx
  023f9	8b 4d 08	 mov	 ecx, DWORD PTR _nFlags$[ebp]
  023fc	51		 push	 ecx
  023fd	68 00 02 00 00	 push	 512			; 00000200H
  02402	8b 4d fc	 mov	 ecx, DWORD PTR _this$[ebp]
  02405	e8 00 00 00 00	 call	 ?RelayEvent@CxStaticText@@IAEXIIJ@Z ; CxStaticText::RelayEvent
$L187881:

; 576  : 	}
; 577  : 
; 578  : 	CStatic::OnLButtonDown(nFlags, point);

  0240a	8b 55 10	 mov	 edx, DWORD PTR _point$[ebp+4]
  0240d	52		 push	 edx
  0240e	8b 45 0c	 mov	 eax, DWORD PTR _point$[ebp]
  02411	50		 push	 eax
  02412	8b 4d 08	 mov	 ecx, DWORD PTR _nFlags$[ebp]
  02415	51		 push	 ecx
  02416	8b 4d fc	 mov	 ecx, DWORD PTR _this$[ebp]
  02419	e8 00 00 00 00	 call	 ?OnLButtonDown@CWnd@@IAEXIVCPoint@@@Z ; CWnd::OnLButtonDown

; 579  : }

  0241e	5e		 pop	 esi
  0241f	83 c4 04	 add	 esp, 4
  02422	3b ec		 cmp	 ebp, esp
  02424	e8 00 00 00 00	 call	 __RTC_CheckEsp
  02429	8b e5		 mov	 esp, ebp
  0242b	5d		 pop	 ebp
  0242c	c2 0c 00	 ret	 12			; 0000000cH
?OnMouseMove@CxStaticText@@IAEXIVCPoint@@@Z ENDP	; CxStaticText::OnMouseMove
_TEXT	ENDS
EXTRN	?ModifyStyle@CWnd@@QAEHKKI@Z:NEAR		; CWnd::ModifyStyle
EXTRN	?PreSubclassWindow@CWnd@@UAEXXZ:NEAR		; CWnd::PreSubclassWindow
; Function compile flags: /Odt /RTCsu
_TEXT	SEGMENT
_this$ = -4						; size = 4
?PreSubclassWindow@CxStaticText@@MAEXXZ PROC NEAR	; CxStaticText::PreSubclassWindow
; _this$ = ecx

; 582  : {

  02430	55		 push	 ebp
  02431	8b ec		 mov	 ebp, esp
  02433	51		 push	 ecx
  02434	c7 45 fc cc cc
	cc cc		 mov	 DWORD PTR [ebp-4], -858993460 ; ccccccccH
  0243b	89 4d fc	 mov	 DWORD PTR _this$[ebp], ecx

; 583  : 	// TODO: /
; 584  : 
; 585  : 	ModifyStyle(0,SS_NOTIFY);

  0243e	6a 00		 push	 0
  02440	68 00 01 00 00	 push	 256			; 00000100H
  02445	6a 00		 push	 0
  02447	8b 4d fc	 mov	 ecx, DWORD PTR _this$[ebp]
  0244a	e8 00 00 00 00	 call	 ?ModifyStyle@CWnd@@QAEHKKI@Z ; CWnd::ModifyStyle

; 586  : 
; 587  : 	CStatic::PreSubclassWindow();

  0244f	8b 4d fc	 mov	 ecx, DWORD PTR _this$[ebp]
  02452	e8 00 00 00 00	 call	 ?PreSubclassWindow@CWnd@@UAEXXZ ; CWnd::PreSubclassWindow

; 588  : }

  02457	83 c4 04	 add	 esp, 4
  0245a	3b ec		 cmp	 ebp, esp
  0245c	e8 00 00 00 00	 call	 __RTC_CheckEsp
  02461	8b e5		 mov	 esp, ebp
  02463	5d		 pop	 ebp
  02464	c3		 ret	 0
?PreSubclassWindow@CxStaticText@@MAEXXZ ENDP		; CxStaticText::PreSubclassWindow
_TEXT	ENDS
PUBLIC	??HATL@@YA?AV?$CStringT@DV?$StrTraitMFC_DLL@DV?$ChTraitsCRT@D@ATL@@@@@0@ABV10@PBD@Z ; ATL::operator+
PUBLIC	?GetSingleLineTextRect@CxStaticText@@QAE?AVCRect@@XZ ; CxStaticText::GetSingleLineTextRect
EXTRN	?DrawTextA@CDC@@QAEHABV?$CStringT@DV?$StrTraitMFC_DLL@DV?$ChTraitsCRT@D@ATL@@@@@ATL@@PAUtagRECT@@I@Z:NEAR ; CDC::DrawTextA
xdata$x	SEGMENT
$T189264 DD	0ffffffffH
	DD	FLAT:$L189251
	DD	00H
	DD	FLAT:$L189252
	DD	01H
	DD	FLAT:$L189253
$T189255 DD	019930520H
	DD	03H
	DD	FLAT:$T189264
	DD	2 DUP(00H)
	DD	2 DUP(00H)
; Function compile flags: /Odt /RTCsu
xdata$x	ENDS
_TEXT	SEGMENT
tv147 = -236						; size = 4
tv91 = -232						; size = 4
$T189250 = -228						; size = 4
_oldFont$ = -224					; size = 4
_font$ = -216						; size = 8
_lf$ = -200						; size = 60
_rc$ = -132						; size = 16
_dc$ = -108						; size = 84
_this$ = -20						; size = 4
__$ArrayPad$ = -16					; size = 4
__$EHRec$ = -12						; size = 12
__$ReturnAddr$ = 4					; size = 4
___$ReturnUdt$ = 8					; size = 4
?GetSingleLineTextRect@CxStaticText@@QAE?AVCRect@@XZ PROC NEAR ; CxStaticText::GetSingleLineTextRect
; _this$ = ecx

; 592  : {

  02470	55		 push	 ebp
  02471	8b ec		 mov	 ebp, esp
  02473	6a ff		 push	 -1
  02475	68 00 00 00 00	 push	 __ehhandler$?GetSingleLineTextRect@CxStaticText@@QAE?AVCRect@@XZ
  0247a	64 a1 00 00 00
	00		 mov	 eax, DWORD PTR fs:__except_list
  02480	50		 push	 eax
  02481	64 89 25 00 00
	00 00		 mov	 DWORD PTR fs:__except_list, esp
  02488	81 ec e0 00 00
	00		 sub	 esp, 224		; 000000e0H
  0248e	56		 push	 esi
  0248f	57		 push	 edi
  02490	51		 push	 ecx
  02491	8d bd 14 ff ff
	ff		 lea	 edi, DWORD PTR [ebp-236]
  02497	b9 38 00 00 00	 mov	 ecx, 56			; 00000038H
  0249c	b8 cc cc cc cc	 mov	 eax, -858993460		; ccccccccH
  024a1	f3 ab		 rep stosd
  024a3	59		 pop	 ecx
  024a4	a1 00 00 00 00	 mov	 eax, DWORD PTR ___security_cookie
  024a9	89 45 f0	 mov	 DWORD PTR __$ArrayPad$[ebp], eax
  024ac	89 4d ec	 mov	 DWORD PTR _this$[ebp], ecx

; 593  : 	CPaintDC dc(this);

  024af	8b 45 ec	 mov	 eax, DWORD PTR _this$[ebp]
  024b2	50		 push	 eax
  024b3	8d 4d 94	 lea	 ecx, DWORD PTR _dc$[ebp]
  024b6	e8 00 00 00 00	 call	 ??0CPaintDC@@QAE@PAVCWnd@@@Z ; CPaintDC::CPaintDC
  024bb	c7 45 fc 00 00
	00 00		 mov	 DWORD PTR __$EHRec$[ebp+8], 0

; 594  : 
; 595  : 	CRect rc(0,0,0,0);

  024c2	6a 00		 push	 0
  024c4	6a 00		 push	 0
  024c6	6a 00		 push	 0
  024c8	6a 00		 push	 0
  024ca	8d 8d 7c ff ff
	ff		 lea	 ecx, DWORD PTR _rc$[ebp]
  024d0	e8 00 00 00 00	 call	 ??0CRect@@QAE@HHHH@Z	; CRect::CRect

; 596  : 
; 597  : 	this->GetWindowRect(&rc);

  024d5	8d 8d 7c ff ff
	ff		 lea	 ecx, DWORD PTR _rc$[ebp]
  024db	51		 push	 ecx
  024dc	8b 4d ec	 mov	 ecx, DWORD PTR _this$[ebp]
  024df	e8 00 00 00 00	 call	 ?GetWindowRect@CWnd@@QBEXPAUtagRECT@@@Z ; CWnd::GetWindowRect

; 598  : 	LOGFONT  lf;
; 599  : 	ZeroMemory(&lf,sizeof(lf));

  024e4	6a 3c		 push	 60			; 0000003cH
  024e6	6a 00		 push	 0
  024e8	8d 95 38 ff ff
	ff		 lea	 edx, DWORD PTR _lf$[ebp]
  024ee	52		 push	 edx
  024ef	e8 00 00 00 00	 call	 _memset
  024f4	83 c4 0c	 add	 esp, 12			; 0000000cH

; 600  : 	lf.lfHeight = m_FontSize; /*-MulDiv(m_FontSize,GetDeviceCaps(dc.m_hDC,LOGPIXELSY),72);*/

  024f7	8b 45 ec	 mov	 eax, DWORD PTR _this$[ebp]
  024fa	8b 48 74	 mov	 ecx, DWORD PTR [eax+116]
  024fd	89 8d 38 ff ff
	ff		 mov	 DWORD PTR _lf$[ebp], ecx

; 601  : 	lf.lfWeight = FW_NORMAL;

  02503	c7 85 48 ff ff
	ff 90 01 00 00	 mov	 DWORD PTR _lf$[ebp+16], 400 ; 00000190H

; 602  : 	lf.lfWidth = 0;

  0250d	c7 85 3c ff ff
	ff 00 00 00 00	 mov	 DWORD PTR _lf$[ebp+4], 0

; 603  : 	lf.lfCharSet = GB2312_CHARSET;

  02517	c6 85 4f ff ff
	ff 86		 mov	 BYTE PTR _lf$[ebp+23], 134 ; 00000086H

; 604  : 	lf.lfStrikeOut = FALSE;

  0251e	c6 85 4e ff ff
	ff 00		 mov	 BYTE PTR _lf$[ebp+22], 0

; 605  : 	lf.lfOutPrecision = OUT_DEFAULT_PRECIS;

  02525	c6 85 50 ff ff
	ff 00		 mov	 BYTE PTR _lf$[ebp+24], 0

; 606  : 	lf.lfClipPrecision = CLIP_DEFAULT_PRECIS;

  0252c	c6 85 51 ff ff
	ff 00		 mov	 BYTE PTR _lf$[ebp+25], 0

; 607  : 	lf.lfQuality = DEFAULT_QUALITY;

  02533	c6 85 52 ff ff
	ff 00		 mov	 BYTE PTR _lf$[ebp+26], 0

; 608  : 	lf.lfPitchAndFamily = FF_DONTCARE | DEFAULT_PITCH;

  0253a	c6 85 53 ff ff
	ff 00		 mov	 BYTE PTR _lf$[ebp+27], 0

; 609  : 	lf.lfUnderline = m_UnderLine;

  02541	8b 55 ec	 mov	 edx, DWORD PTR _this$[ebp]
  02544	8a 42 69	 mov	 al, BYTE PTR [edx+105]
  02547	88 85 4d ff ff
	ff		 mov	 BYTE PTR _lf$[ebp+21], al

; 610  : 	if( m_FontFace.GetLength() != 0)

  0254d	8b 4d ec	 mov	 ecx, DWORD PTR _this$[ebp]
  02550	83 c1 70	 add	 ecx, 112		; 00000070H
  02553	8b f4		 mov	 esi, esp
  02555	ff 15 00 00 00
	00		 call	 DWORD PTR __imp_?GetLength@?$CSimpleStringT@D$00@ATL@@QBEHXZ
  0255b	3b f4		 cmp	 esi, esp
  0255d	e8 00 00 00 00	 call	 __RTC_CheckEsp
  02562	85 c0		 test	 eax, eax
  02564	74 25		 je	 SHORT $L187905

; 611  : 	{
; 612  : 		strcpy(lf.lfFaceName, m_FontFace);

  02566	8b 4d ec	 mov	 ecx, DWORD PTR _this$[ebp]
  02569	83 c1 70	 add	 ecx, 112		; 00000070H
  0256c	8b f4		 mov	 esi, esp
  0256e	ff 15 00 00 00
	00		 call	 DWORD PTR __imp_??B?$CSimpleStringT@D$00@ATL@@QBEPBDXZ
  02574	3b f4		 cmp	 esi, esp
  02576	e8 00 00 00 00	 call	 __RTC_CheckEsp
  0257b	50		 push	 eax
  0257c	8d 8d 54 ff ff
	ff		 lea	 ecx, DWORD PTR _lf$[ebp+28]
  02582	51		 push	 ecx
  02583	e8 00 00 00 00	 call	 _strcpy
  02588	83 c4 08	 add	 esp, 8
$L187905:

; 613  : 	}
; 614  : 
; 615  : 	CFont font;

  0258b	8d 8d 28 ff ff
	ff		 lea	 ecx, DWORD PTR _font$[ebp]
  02591	e8 00 00 00 00	 call	 ??0CFont@@QAE@XZ	; CFont::CFont
  02596	c6 45 fc 01	 mov	 BYTE PTR __$EHRec$[ebp+8], 1

; 616  : 	font.CreateFontIndirect(&lf);

  0259a	8d 95 38 ff ff
	ff		 lea	 edx, DWORD PTR _lf$[ebp]
  025a0	52		 push	 edx
  025a1	8d 8d 28 ff ff
	ff		 lea	 ecx, DWORD PTR _font$[ebp]
  025a7	e8 00 00 00 00	 call	 ?CreateFontIndirectA@CFont@@QAEHPBUtagLOGFONTA@@@Z ; CFont::CreateFontIndirectA

; 617  : 	CFont* oldFont = (CFont*)dc.SelectObject(&font);

  025ac	8d 85 28 ff ff
	ff		 lea	 eax, DWORD PTR _font$[ebp]
  025b2	50		 push	 eax
  025b3	8d 4d 94	 lea	 ecx, DWORD PTR _dc$[ebp]
  025b6	e8 00 00 00 00	 call	 ?SelectObject@CDC@@UAEPAVCFont@@PAV2@@Z ; CDC::SelectObject
  025bb	89 85 20 ff ff
	ff		 mov	 DWORD PTR _oldFont$[ebp], eax

; 618  : 	dc.DrawText(m_strWindowText + " ", &rc, DT_CALCRECT);

  025c1	68 00 00 00 00	 push	 OFFSET FLAT:$SG187910
  025c6	8b 4d ec	 mov	 ecx, DWORD PTR _this$[ebp]
  025c9	83 c1 78	 add	 ecx, 120		; 00000078H
  025cc	51		 push	 ecx
  025cd	8d 95 1c ff ff
	ff		 lea	 edx, DWORD PTR $T189250[ebp]
  025d3	52		 push	 edx
  025d4	e8 00 00 00 00	 call	 ??HATL@@YA?AV?$CStringT@DV?$StrTraitMFC_DLL@DV?$ChTraitsCRT@D@ATL@@@@@0@ABV10@PBD@Z ; ATL::operator+
  025d9	83 c4 0c	 add	 esp, 12			; 0000000cH
  025dc	89 85 18 ff ff
	ff		 mov	 DWORD PTR tv91[ebp], eax
  025e2	8b 85 18 ff ff
	ff		 mov	 eax, DWORD PTR tv91[ebp]
  025e8	89 85 14 ff ff
	ff		 mov	 DWORD PTR tv147[ebp], eax
  025ee	c6 45 fc 02	 mov	 BYTE PTR __$EHRec$[ebp+8], 2
  025f2	68 00 04 00 00	 push	 1024			; 00000400H
  025f7	8d 8d 7c ff ff
	ff		 lea	 ecx, DWORD PTR _rc$[ebp]
  025fd	51		 push	 ecx
  025fe	8b 95 14 ff ff
	ff		 mov	 edx, DWORD PTR tv147[ebp]
  02604	52		 push	 edx
  02605	8d 4d 94	 lea	 ecx, DWORD PTR _dc$[ebp]
  02608	e8 00 00 00 00	 call	 ?DrawTextA@CDC@@QAEHABV?$CStringT@DV?$StrTraitMFC_DLL@DV?$ChTraitsCRT@D@ATL@@@@@ATL@@PAUtagRECT@@I@Z ; CDC::DrawTextA
  0260d	c6 45 fc 01	 mov	 BYTE PTR __$EHRec$[ebp+8], 1
  02611	8b f4		 mov	 esi, esp
  02613	8d 8d 1c ff ff
	ff		 lea	 ecx, DWORD PTR $T189250[ebp]
  02619	ff 15 00 00 00
	00		 call	 DWORD PTR __imp_??1?$CStringT@DV?$StrTraitMFC_DLL@DV?$ChTraitsCRT@D@ATL@@@@@ATL@@QAE@XZ
  0261f	3b f4		 cmp	 esi, esp
  02621	e8 00 00 00 00	 call	 __RTC_CheckEsp

; 619  : 	dc.SelectObject(oldFont);

  02626	8b 85 20 ff ff
	ff		 mov	 eax, DWORD PTR _oldFont$[ebp]
  0262c	50		 push	 eax
  0262d	8d 4d 94	 lea	 ecx, DWORD PTR _dc$[ebp]
  02630	e8 00 00 00 00	 call	 ?SelectObject@CDC@@UAEPAVCFont@@PAV2@@Z ; CDC::SelectObject

; 620  : 	font.DeleteObject();

  02635	8d 8d 28 ff ff
	ff		 lea	 ecx, DWORD PTR _font$[ebp]
  0263b	e8 00 00 00 00	 call	 ?DeleteObject@CGdiObject@@QAEHXZ ; CGdiObject::DeleteObject

; 621  : 	return rc;

  02640	8b 4d 08	 mov	 ecx, DWORD PTR ___$ReturnUdt$[ebp]
  02643	8b 95 7c ff ff
	ff		 mov	 edx, DWORD PTR _rc$[ebp]
  02649	89 11		 mov	 DWORD PTR [ecx], edx
  0264b	8b 45 80	 mov	 eax, DWORD PTR _rc$[ebp+4]
  0264e	89 41 04	 mov	 DWORD PTR [ecx+4], eax
  02651	8b 55 84	 mov	 edx, DWORD PTR _rc$[ebp+8]
  02654	89 51 08	 mov	 DWORD PTR [ecx+8], edx
  02657	8b 45 88	 mov	 eax, DWORD PTR _rc$[ebp+12]
  0265a	89 41 0c	 mov	 DWORD PTR [ecx+12], eax
  0265d	c6 45 fc 00	 mov	 BYTE PTR __$EHRec$[ebp+8], 0
  02661	8d 8d 28 ff ff
	ff		 lea	 ecx, DWORD PTR _font$[ebp]
  02667	e8 00 00 00 00	 call	 ??1CFont@@UAE@XZ	; CFont::~CFont
  0266c	c7 45 fc ff ff
	ff ff		 mov	 DWORD PTR __$EHRec$[ebp+8], -1
  02673	8d 4d 94	 lea	 ecx, DWORD PTR _dc$[ebp]
  02676	e8 00 00 00 00	 call	 ??1CPaintDC@@UAE@XZ	; CPaintDC::~CPaintDC
  0267b	8b 45 08	 mov	 eax, DWORD PTR ___$ReturnUdt$[ebp]

; 622  : }

  0267e	52		 push	 edx
  0267f	8b cd		 mov	 ecx, ebp
  02681	50		 push	 eax
  02682	8d 15 00 00 00
	00		 lea	 edx, DWORD PTR $L189263
  02688	e8 00 00 00 00	 call	 @_RTC_CheckStackVars@8
  0268d	58		 pop	 eax
  0268e	5a		 pop	 edx
  0268f	8b 4d f4	 mov	 ecx, DWORD PTR __$EHRec$[ebp]
  02692	64 89 0d 00 00
	00 00		 mov	 DWORD PTR fs:__except_list, ecx
  02699	8b 4d f0	 mov	 ecx, DWORD PTR __$ArrayPad$[ebp]
  0269c	e8 00 00 00 00	 call	 @__security_check_cookie@4
  026a1	5f		 pop	 edi
  026a2	5e		 pop	 esi
  026a3	81 c4 ec 00 00
	00		 add	 esp, 236		; 000000ecH
  026a9	3b ec		 cmp	 ebp, esp
  026ab	e8 00 00 00 00	 call	 __RTC_CheckEsp
  026b0	8b e5		 mov	 esp, ebp
  026b2	5d		 pop	 ebp
  026b3	c2 04 00	 ret	 4
$L189263:
  026b6	04 00 00 00	 DD	 4
  026ba	00 00 00 00	 DD	 $L189262
$L189262:
  026be	94 ff ff ff	 DD	 -108			; ffffff94H
  026c2	54 00 00 00	 DD	 84			; 00000054H
  026c6	00 00 00 00	 DD	 $L189256
  026ca	7c ff ff ff	 DD	 -132			; ffffff7cH
  026ce	10 00 00 00	 DD	 16			; 00000010H
  026d2	00 00 00 00	 DD	 $L189257
  026d6	38 ff ff ff	 DD	 -200			; ffffff38H
  026da	3c 00 00 00	 DD	 60			; 0000003cH
  026de	00 00 00 00	 DD	 $L189258
  026e2	28 ff ff ff	 DD	 -216			; ffffff28H
  026e6	08 00 00 00	 DD	 8
  026ea	00 00 00 00	 DD	 $L189259
$L189259:
  026ee	66		 DB	 102			; 00000066H
  026ef	6f		 DB	 111			; 0000006fH
  026f0	6e		 DB	 110			; 0000006eH
  026f1	74		 DB	 116			; 00000074H
  026f2	00		 DB	 0
$L189258:
  026f3	6c		 DB	 108			; 0000006cH
  026f4	66		 DB	 102			; 00000066H
  026f5	00		 DB	 0
$L189257:
  026f6	72		 DB	 114			; 00000072H
  026f7	63		 DB	 99			; 00000063H
  026f8	00		 DB	 0
$L189256:
  026f9	64		 DB	 100			; 00000064H
  026fa	63		 DB	 99			; 00000063H
  026fb	00		 DB	 0
_TEXT	ENDS
text$x	SEGMENT
$L189251:
  001fe	8d 4d 94	 lea	 ecx, DWORD PTR _dc$[ebp]
  00201	e9 00 00 00 00	 jmp	 ??1CPaintDC@@UAE@XZ	; CPaintDC::~CPaintDC
$L189252:
  00206	8d 8d 28 ff ff
	ff		 lea	 ecx, DWORD PTR _font$[ebp]
  0020c	e9 00 00 00 00	 jmp	 ??1CFont@@UAE@XZ	; CFont::~CFont
$L189253:
  00211	8b f4		 mov	 esi, esp
  00213	8d 8d 1c ff ff
	ff		 lea	 ecx, DWORD PTR $T189250[ebp]
  00219	ff 15 00 00 00
	00		 call	 DWORD PTR __imp_??1?$CStringT@DV?$StrTraitMFC_DLL@DV?$ChTraitsCRT@D@ATL@@@@@ATL@@QAE@XZ
  0021f	3b f4		 cmp	 esi, esp
  00221	e9 00 00 00 00	 jmp	 __RTC_CheckEsp
__ehhandler$?GetSingleLineTextRect@CxStaticText@@QAE?AVCRect@@XZ:
  00226	b8 00 00 00 00	 mov	 eax, OFFSET FLAT:$T189255
  0022b	e9 00 00 00 00	 jmp	 ___CxxFrameHandler
text$x	ENDS
?GetSingleLineTextRect@CxStaticText@@QAE?AVCRect@@XZ ENDP ; CxStaticText::GetSingleLineTextRect
PUBLIC	?SizeToTextRect@CxStaticText@@QAEXXZ		; CxStaticText::SizeToTextRect
EXTRN	?MoveWindow@CWnd@@QAEXPBUtagRECT@@H@Z:NEAR	; CWnd::MoveWindow
; Function compile flags: /Odt /RTCsu
_TEXT	SEGMENT
_rect$ = -24						; size = 16
_this$ = -4						; size = 4
?SizeToTextRect@CxStaticText@@QAEXXZ PROC NEAR		; CxStaticText::SizeToTextRect
; _this$ = ecx

; 625  : {

  02700	55		 push	 ebp
  02701	8b ec		 mov	 ebp, esp
  02703	83 ec 1c	 sub	 esp, 28			; 0000001cH
  02706	b8 cc cc cc cc	 mov	 eax, -858993460		; ccccccccH
  0270b	89 45 e4	 mov	 DWORD PTR [ebp-28], eax
  0270e	89 45 e8	 mov	 DWORD PTR [ebp-24], eax
  02711	89 45 ec	 mov	 DWORD PTR [ebp-20], eax
  02714	89 45 f0	 mov	 DWORD PTR [ebp-16], eax
  02717	89 45 f4	 mov	 DWORD PTR [ebp-12], eax
  0271a	89 45 f8	 mov	 DWORD PTR [ebp-8], eax
  0271d	89 45 fc	 mov	 DWORD PTR [ebp-4], eax
  02720	89 4d fc	 mov	 DWORD PTR _this$[ebp], ecx

; 626  : 	CRect rect = GetSingleLineTextRect();

  02723	8d 45 e8	 lea	 eax, DWORD PTR _rect$[ebp]
  02726	50		 push	 eax
  02727	8b 4d fc	 mov	 ecx, DWORD PTR _this$[ebp]
  0272a	e8 00 00 00 00	 call	 ?GetSingleLineTextRect@CxStaticText@@QAE?AVCRect@@XZ ; CxStaticText::GetSingleLineTextRect

; 627  : 	GetParent()->ScreenToClient(&rect);

  0272f	8d 4d e8	 lea	 ecx, DWORD PTR _rect$[ebp]
  02732	51		 push	 ecx
  02733	8b 4d fc	 mov	 ecx, DWORD PTR _this$[ebp]
  02736	e8 00 00 00 00	 call	 ?GetParent@CWnd@@QBEPAV1@XZ ; CWnd::GetParent
  0273b	8b c8		 mov	 ecx, eax
  0273d	e8 00 00 00 00	 call	 ?ScreenToClient@CWnd@@QBEXPAUtagRECT@@@Z ; CWnd::ScreenToClient

; 628  : 	MoveWindow(&rect);

  02742	6a 01		 push	 1
  02744	8d 55 e8	 lea	 edx, DWORD PTR _rect$[ebp]
  02747	52		 push	 edx
  02748	8b 4d fc	 mov	 ecx, DWORD PTR _this$[ebp]
  0274b	e8 00 00 00 00	 call	 ?MoveWindow@CWnd@@QAEXPBUtagRECT@@H@Z ; CWnd::MoveWindow

; 629  : 
; 630  : 	Invalidate(TRUE);

  02750	6a 01		 push	 1
  02752	8b 4d fc	 mov	 ecx, DWORD PTR _this$[ebp]
  02755	e8 00 00 00 00	 call	 ?Invalidate@CWnd@@QAEXH@Z ; CWnd::Invalidate

; 631  : }

  0275a	52		 push	 edx
  0275b	8b cd		 mov	 ecx, ebp
  0275d	50		 push	 eax
  0275e	8d 15 00 00 00
	00		 lea	 edx, DWORD PTR $L189268
  02764	e8 00 00 00 00	 call	 @_RTC_CheckStackVars@8
  02769	58		 pop	 eax
  0276a	5a		 pop	 edx
  0276b	83 c4 1c	 add	 esp, 28			; 0000001cH
  0276e	3b ec		 cmp	 ebp, esp
  02770	e8 00 00 00 00	 call	 __RTC_CheckEsp
  02775	8b e5		 mov	 esp, ebp
  02777	5d		 pop	 ebp
  02778	c3		 ret	 0
$L189268:
  02779	01 00 00 00	 DD	 1
  0277d	00 00 00 00	 DD	 $L189267
$L189267:
  02781	e8 ff ff ff	 DD	 -24			; ffffffe8H
  02785	10 00 00 00	 DD	 16			; 00000010H
  02789	00 00 00 00	 DD	 $L189266
$L189266:
  0278d	72		 DB	 114			; 00000072H
  0278e	65		 DB	 101			; 00000065H
  0278f	63		 DB	 99			; 00000063H
  02790	74		 DB	 116			; 00000074H
  02791	00		 DB	 0
?SizeToTextRect@CxStaticText@@QAEXXZ ENDP		; CxStaticText::SizeToTextRect
_TEXT	ENDS
EXTRN	?SendMessageA@CWnd@@QAEJIIJ@Z:NEAR		; CWnd::SendMessageA
EXTRN	__imp__GetWindowLongA@8:NEAR
; Function compile flags: /Odt /RTCsu
_TEXT	SEGMENT
_pWnd$187921 = -12					; size = 4
_id$187920 = -8						; size = 4
_this$ = -4						; size = 4
?OnStnClicked@CxStaticText@@QAEXXZ PROC NEAR		; CxStaticText::OnStnClicked
; _this$ = ecx

; 634  : {

  027a0	55		 push	 ebp
  027a1	8b ec		 mov	 ebp, esp
  027a3	83 ec 0c	 sub	 esp, 12			; 0000000cH
  027a6	56		 push	 esi
  027a7	c7 45 f4 cc cc
	cc cc		 mov	 DWORD PTR [ebp-12], -858993460 ; ccccccccH
  027ae	c7 45 f8 cc cc
	cc cc		 mov	 DWORD PTR [ebp-8], -858993460 ; ccccccccH
  027b5	c7 45 fc cc cc
	cc cc		 mov	 DWORD PTR [ebp-4], -858993460 ; ccccccccH
  027bc	89 4d fc	 mov	 DWORD PTR _this$[ebp], ecx

; 635  : 	if (m_EnableClick)

  027bf	8b 45 fc	 mov	 eax, DWORD PTR _this$[ebp]
  027c2	0f b6 48 6a	 movzx	 ecx, BYTE PTR [eax+106]
  027c6	85 c9		 test	 ecx, ecx
  027c8	74 39		 je	 SHORT $L187918

; 636  : 	{		
; 637  : 		long id = GetWindowLong(m_hWnd, GWL_ID);

  027ca	8b f4		 mov	 esi, esp
  027cc	6a f4		 push	 -12			; fffffff4H
  027ce	8b 55 fc	 mov	 edx, DWORD PTR _this$[ebp]
  027d1	8b 42 20	 mov	 eax, DWORD PTR [edx+32]
  027d4	50		 push	 eax
  027d5	ff 15 00 00 00
	00		 call	 DWORD PTR __imp__GetWindowLongA@8
  027db	3b f4		 cmp	 esi, esp
  027dd	e8 00 00 00 00	 call	 __RTC_CheckEsp
  027e2	89 45 f8	 mov	 DWORD PTR _id$187920[ebp], eax

; 638  : 
; 639  : 		CWnd* pWnd = GetParent();

  027e5	8b 4d fc	 mov	 ecx, DWORD PTR _this$[ebp]
  027e8	e8 00 00 00 00	 call	 ?GetParent@CWnd@@QBEPAV1@XZ ; CWnd::GetParent
  027ed	89 45 f4	 mov	 DWORD PTR _pWnd$187921[ebp], eax

; 640  : 
; 641  : 		pWnd->SendMessage(WM_STATICCLICKED, (WPARAM)id, NULL);

  027f0	6a 00		 push	 0
  027f2	8b 4d f8	 mov	 ecx, DWORD PTR _id$187920[ebp]
  027f5	51		 push	 ecx
  027f6	68 64 04 00 00	 push	 1124			; 00000464H
  027fb	8b 4d f4	 mov	 ecx, DWORD PTR _pWnd$187921[ebp]
  027fe	e8 00 00 00 00	 call	 ?SendMessageA@CWnd@@QAEJIIJ@Z ; CWnd::SendMessageA
$L187918:

; 642  : 	}
; 643  : }

  02803	5e		 pop	 esi
  02804	83 c4 0c	 add	 esp, 12			; 0000000cH
  02807	3b ec		 cmp	 ebp, esp
  02809	e8 00 00 00 00	 call	 __RTC_CheckEsp
  0280e	8b e5		 mov	 esp, ebp
  02810	5d		 pop	 ebp
  02811	c3		 ret	 0
?OnStnClicked@CxStaticText@@QAEXXZ ENDP			; CxStaticText::OnStnClicked
_TEXT	ENDS
EXTRN	?Activate@CToolTipCtrl@@QAEXH@Z:NEAR		; CToolTipCtrl::Activate
EXTRN	?AddTool@CToolTipCtrl@@QAEHPAVCWnd@@PBDPBUtagRECT@@I@Z:NEAR ; CToolTipCtrl::AddTool
EXTRN	?UpdateTipText@CToolTipCtrl@@QAEXPBDPAVCWnd@@I@Z:NEAR ; CToolTipCtrl::UpdateTipText
xdata$x	SEGMENT
$T189275 DD	0ffffffffH
	DD	FLAT:$L189271
$T189273 DD	019930520H
	DD	01H
	DD	FLAT:$T189275
	DD	2 DUP(00H)
	DD	2 DUP(00H)
; Function compile flags: /Odt /RTCsu
xdata$x	ENDS
_TEXT	SEGMENT
_this$ = -16						; size = 4
__$EHRec$ = -12						; size = 12
_s$ = 8							; size = 4
?SetToolTipText@CxStaticText@@IAEXV?$CStringT@DV?$StrTraitMFC_DLL@DV?$ChTraitsCRT@D@ATL@@@@@ATL@@@Z PROC NEAR ; CxStaticText::SetToolTipText
; _this$ = ecx

; 648  : {

  02820	55		 push	 ebp
  02821	8b ec		 mov	 ebp, esp
  02823	6a ff		 push	 -1
  02825	68 00 00 00 00	 push	 __ehhandler$?SetToolTipText@CxStaticText@@IAEXV?$CStringT@DV?$StrTraitMFC_DLL@DV?$ChTraitsCRT@D@ATL@@@@@ATL@@@Z
  0282a	64 a1 00 00 00
	00		 mov	 eax, DWORD PTR fs:__except_list
  02830	50		 push	 eax
  02831	64 89 25 00 00
	00 00		 mov	 DWORD PTR fs:__except_list, esp
  02838	51		 push	 ecx
  02839	56		 push	 esi
  0283a	c7 45 f0 cc cc
	cc cc		 mov	 DWORD PTR [ebp-16], -858993460 ; ccccccccH
  02841	89 4d f0	 mov	 DWORD PTR _this$[ebp], ecx
  02844	c7 45 fc 00 00
	00 00		 mov	 DWORD PTR __$EHRec$[ebp+8], 0

; 649  : 	m_strToolTip = s;

  0284b	8b f4		 mov	 esi, esp
  0284d	8d 45 08	 lea	 eax, DWORD PTR _s$[ebp]
  02850	50		 push	 eax
  02851	8b 4d f0	 mov	 ecx, DWORD PTR _this$[ebp]
  02854	81 c1 00 01 00
	00		 add	 ecx, 256		; 00000100H
  0285a	ff 15 00 00 00
	00		 call	 DWORD PTR __imp_??4?$CStringT@DV?$StrTraitMFC_DLL@DV?$ChTraitsCRT@D@ATL@@@@@ATL@@QAEAAV01@ABV01@@Z
  02860	3b f4		 cmp	 esi, esp
  02862	e8 00 00 00 00	 call	 __RTC_CheckEsp

; 650  : 	if(m_tooltip.m_hWnd==NULL){

  02867	8b 4d f0	 mov	 ecx, DWORD PTR _this$[ebp]
  0286a	83 b9 b0 00 00
	00 00		 cmp	 DWORD PTR [ecx+176], 0
  02871	75 6a		 jne	 SHORT $L187927

; 651  : 		if(m_tooltip.Create(this))	//first assignment

  02873	8b f4		 mov	 esi, esp
  02875	6a 00		 push	 0
  02877	8b 55 f0	 mov	 edx, DWORD PTR _this$[ebp]
  0287a	52		 push	 edx
  0287b	8b 4d f0	 mov	 ecx, DWORD PTR _this$[ebp]
  0287e	81 c1 90 00 00
	00		 add	 ecx, 144		; 00000090H
  02884	8b 45 f0	 mov	 eax, DWORD PTR _this$[ebp]
  02887	8b 90 90 00 00
	00		 mov	 edx, DWORD PTR [eax+144]
  0288d	ff 92 38 01 00
	00		 call	 DWORD PTR [edx+312]
  02893	3b f4		 cmp	 esi, esp
  02895	e8 00 00 00 00	 call	 __RTC_CheckEsp
  0289a	85 c0		 test	 eax, eax
  0289c	74 3d		 je	 SHORT $L187928

; 652  : 			if(m_tooltip.AddTool(this, (LPCTSTR)s))

  0289e	6a 00		 push	 0
  028a0	6a 00		 push	 0
  028a2	8b f4		 mov	 esi, esp
  028a4	8d 4d 08	 lea	 ecx, DWORD PTR _s$[ebp]
  028a7	ff 15 00 00 00
	00		 call	 DWORD PTR __imp_??B?$CSimpleStringT@D$00@ATL@@QBEPBDXZ
  028ad	3b f4		 cmp	 esi, esp
  028af	e8 00 00 00 00	 call	 __RTC_CheckEsp
  028b4	50		 push	 eax
  028b5	8b 45 f0	 mov	 eax, DWORD PTR _this$[ebp]
  028b8	50		 push	 eax
  028b9	8b 4d f0	 mov	 ecx, DWORD PTR _this$[ebp]
  028bc	81 c1 90 00 00
	00		 add	 ecx, 144		; 00000090H
  028c2	e8 00 00 00 00	 call	 ?AddTool@CToolTipCtrl@@QAEHPAVCWnd@@PBDPBUtagRECT@@I@Z ; CToolTipCtrl::AddTool
  028c7	85 c0		 test	 eax, eax
  028c9	74 10		 je	 SHORT $L187928

; 653  : 				m_tooltip.Activate(1);

  028cb	6a 01		 push	 1
  028cd	8b 4d f0	 mov	 ecx, DWORD PTR _this$[ebp]
  028d0	81 c1 90 00 00
	00		 add	 ecx, 144		; 00000090H
  028d6	e8 00 00 00 00	 call	 ?Activate@CToolTipCtrl@@QAEXH@Z ; CToolTipCtrl::Activate
$L187928:

; 654  : 	} else {

  028db	eb 27		 jmp	 SHORT $L187931
$L187927:

; 655  : 		m_tooltip.UpdateTipText((LPCTSTR)s,this);

  028dd	6a 00		 push	 0
  028df	8b 4d f0	 mov	 ecx, DWORD PTR _this$[ebp]
  028e2	51		 push	 ecx
  028e3	8b f4		 mov	 esi, esp
  028e5	8d 4d 08	 lea	 ecx, DWORD PTR _s$[ebp]
  028e8	ff 15 00 00 00
	00		 call	 DWORD PTR __imp_??B?$CSimpleStringT@D$00@ATL@@QBEPBDXZ
  028ee	3b f4		 cmp	 esi, esp
  028f0	e8 00 00 00 00	 call	 __RTC_CheckEsp
  028f5	50		 push	 eax
  028f6	8b 4d f0	 mov	 ecx, DWORD PTR _this$[ebp]
  028f9	81 c1 90 00 00
	00		 add	 ecx, 144		; 00000090H
  028ff	e8 00 00 00 00	 call	 ?UpdateTipText@CToolTipCtrl@@QAEXPBDPAVCWnd@@I@Z ; CToolTipCtrl::UpdateTipText
$L187931:

; 656  : 	}
; 657  : }

  02904	c7 45 fc ff ff
	ff ff		 mov	 DWORD PTR __$EHRec$[ebp+8], -1
  0290b	8b f4		 mov	 esi, esp
  0290d	8d 4d 08	 lea	 ecx, DWORD PTR _s$[ebp]
  02910	ff 15 00 00 00
	00		 call	 DWORD PTR __imp_??1?$CStringT@DV?$StrTraitMFC_DLL@DV?$ChTraitsCRT@D@ATL@@@@@ATL@@QAE@XZ
  02916	3b f4		 cmp	 esi, esp
  02918	e8 00 00 00 00	 call	 __RTC_CheckEsp
  0291d	8b 4d f4	 mov	 ecx, DWORD PTR __$EHRec$[ebp]
  02920	64 89 0d 00 00
	00 00		 mov	 DWORD PTR fs:__except_list, ecx
  02927	5e		 pop	 esi
  02928	83 c4 10	 add	 esp, 16			; 00000010H
  0292b	3b ec		 cmp	 ebp, esp
  0292d	e8 00 00 00 00	 call	 __RTC_CheckEsp
  02932	8b e5		 mov	 esp, ebp
  02934	5d		 pop	 ebp
  02935	c2 04 00	 ret	 4
_TEXT	ENDS
text$x	SEGMENT
$L189271:
  00230	8b f4		 mov	 esi, esp
  00232	8d 4d 08	 lea	 ecx, DWORD PTR _s$[ebp]
  00235	ff 15 00 00 00
	00		 call	 DWORD PTR __imp_??1?$CStringT@DV?$StrTraitMFC_DLL@DV?$ChTraitsCRT@D@ATL@@@@@ATL@@QAE@XZ
  0023b	3b f4		 cmp	 esi, esp
  0023d	e9 00 00 00 00	 jmp	 __RTC_CheckEsp
__ehhandler$?SetToolTipText@CxStaticText@@IAEXV?$CStringT@DV?$StrTraitMFC_DLL@DV?$ChTraitsCRT@D@ATL@@@@@ATL@@@Z:
  00242	b8 00 00 00 00	 mov	 eax, OFFSET FLAT:$T189273
  00247	e9 00 00 00 00	 jmp	 ___CxxFrameHandler
text$x	ENDS
?SetToolTipText@CxStaticText@@IAEXV?$CStringT@DV?$StrTraitMFC_DLL@DV?$ChTraitsCRT@D@ATL@@@@@ATL@@@Z ENDP ; CxStaticText::SetToolTipText
EXTRN	?RelayEvent@CToolTipCtrl@@QAEXPAUtagMSG@@@Z:NEAR ; CToolTipCtrl::RelayEvent
; Function compile flags: /Odt /RTCsu
_TEXT	SEGMENT
_msg$187940 = -36					; size = 28
_this$ = -4						; size = 4
_message$ = 8						; size = 4
_wParam$ = 12						; size = 4
_lParam$ = 16						; size = 4
?RelayEvent@CxStaticText@@IAEXIIJ@Z PROC NEAR		; CxStaticText::RelayEvent
; _this$ = ecx

; 660  : {

  02940	55		 push	 ebp
  02941	8b ec		 mov	 ebp, esp
  02943	83 ec 28	 sub	 esp, 40			; 00000028H
  02946	57		 push	 edi
  02947	51		 push	 ecx
  02948	8d 7d d8	 lea	 edi, DWORD PTR [ebp-40]
  0294b	b9 0a 00 00 00	 mov	 ecx, 10			; 0000000aH
  02950	b8 cc cc cc cc	 mov	 eax, -858993460		; ccccccccH
  02955	f3 ab		 rep stosd
  02957	59		 pop	 ecx
  02958	89 4d fc	 mov	 DWORD PTR _this$[ebp], ecx

; 661  : 	// This function will create a MSG structure, fill it in a pass it to
; 662  : 	// the ToolTip control, m_ttip.  Note that we ensure the point is in window
; 663  : 	// coordinates (relative to the control's window).
; 664  : 	if(NULL != m_tooltip.m_hWnd){

  0295b	8b 45 fc	 mov	 eax, DWORD PTR _this$[ebp]
  0295e	83 b8 b0 00 00
	00 00		 cmp	 DWORD PTR [eax+176], 0
  02965	74 4e		 je	 SHORT $L187938

; 665  : 		MSG msg;
; 666  : 		msg.hwnd = m_hWnd;

  02967	8b 4d fc	 mov	 ecx, DWORD PTR _this$[ebp]
  0296a	8b 51 20	 mov	 edx, DWORD PTR [ecx+32]
  0296d	89 55 dc	 mov	 DWORD PTR _msg$187940[ebp], edx

; 667  : 		msg.message = message;

  02970	8b 45 08	 mov	 eax, DWORD PTR _message$[ebp]
  02973	89 45 e0	 mov	 DWORD PTR _msg$187940[ebp+4], eax

; 668  : 		msg.wParam = wParam;

  02976	8b 4d 0c	 mov	 ecx, DWORD PTR _wParam$[ebp]
  02979	89 4d e4	 mov	 DWORD PTR _msg$187940[ebp+8], ecx

; 669  : 		msg.lParam = lParam;

  0297c	8b 55 10	 mov	 edx, DWORD PTR _lParam$[ebp]
  0297f	89 55 e8	 mov	 DWORD PTR _msg$187940[ebp+12], edx

; 670  : 		msg.time = 0;

  02982	c7 45 ec 00 00
	00 00		 mov	 DWORD PTR _msg$187940[ebp+16], 0

; 671  : 		msg.pt.x = LOWORD(lParam);

  02989	8b 45 10	 mov	 eax, DWORD PTR _lParam$[ebp]
  0298c	25 ff ff 00 00	 and	 eax, 65535		; 0000ffffH
  02991	0f b7 c8	 movzx	 ecx, ax
  02994	89 4d f0	 mov	 DWORD PTR _msg$187940[ebp+20], ecx

; 672  : 		msg.pt.y = HIWORD(lParam);

  02997	8b 55 10	 mov	 edx, DWORD PTR _lParam$[ebp]
  0299a	c1 ea 10	 shr	 edx, 16			; 00000010H
  0299d	0f b7 c2	 movzx	 eax, dx
  029a0	89 45 f4	 mov	 DWORD PTR _msg$187940[ebp+24], eax

; 673  : 
; 674  : 		m_tooltip.RelayEvent(&msg);

  029a3	8d 4d dc	 lea	 ecx, DWORD PTR _msg$187940[ebp]
  029a6	51		 push	 ecx
  029a7	8b 4d fc	 mov	 ecx, DWORD PTR _this$[ebp]
  029aa	81 c1 90 00 00
	00		 add	 ecx, 144		; 00000090H
  029b0	e8 00 00 00 00	 call	 ?RelayEvent@CToolTipCtrl@@QAEXPAUtagMSG@@@Z ; CToolTipCtrl::RelayEvent
$L187938:

; 675  : 	}
; 676  : }

  029b5	52		 push	 edx
  029b6	8b cd		 mov	 ecx, ebp
  029b8	50		 push	 eax
  029b9	8d 15 00 00 00
	00		 lea	 edx, DWORD PTR $L189279
  029bf	e8 00 00 00 00	 call	 @_RTC_CheckStackVars@8
  029c4	58		 pop	 eax
  029c5	5a		 pop	 edx
  029c6	5f		 pop	 edi
  029c7	83 c4 28	 add	 esp, 40			; 00000028H
  029ca	3b ec		 cmp	 ebp, esp
  029cc	e8 00 00 00 00	 call	 __RTC_CheckEsp
  029d1	8b e5		 mov	 esp, ebp
  029d3	5d		 pop	 ebp
  029d4	c2 0c 00	 ret	 12			; 0000000cH
$L189279:
  029d7	01 00 00 00	 DD	 1
  029db	00 00 00 00	 DD	 $L189278
$L189278:
  029df	dc ff ff ff	 DD	 -36			; ffffffdcH
  029e3	1c 00 00 00	 DD	 28			; 0000001cH
  029e7	00 00 00 00	 DD	 $L189277
$L189277:
  029eb	6d		 DB	 109			; 0000006dH
  029ec	73		 DB	 115			; 00000073H
  029ed	67		 DB	 103			; 00000067H
  029ee	00		 DB	 0
?RelayEvent@CxStaticText@@IAEXIIJ@Z ENDP		; CxStaticText::RelayEvent
_TEXT	ENDS
PUBLIC	?EnableToolTip@CxStaticText@@QAEX_N@Z		; CxStaticText::EnableToolTip
; Function compile flags: /Odt /RTCsu
_TEXT	SEGMENT
_this$ = -4						; size = 4
_enable$ = 8						; size = 1
?EnableToolTip@CxStaticText@@QAEX_N@Z PROC NEAR		; CxStaticText::EnableToolTip
; _this$ = ecx

; 679  : {

  029f0	55		 push	 ebp
  029f1	8b ec		 mov	 ebp, esp
  029f3	51		 push	 ecx
  029f4	c7 45 fc cc cc
	cc cc		 mov	 DWORD PTR [ebp-4], -858993460 ; ccccccccH
  029fb	89 4d fc	 mov	 DWORD PTR _this$[ebp], ecx

; 680  : 	m_EnableToolTip = enable;

  029fe	8b 45 fc	 mov	 eax, DWORD PTR _this$[ebp]
  02a01	8a 4d 08	 mov	 cl, BYTE PTR _enable$[ebp]
  02a04	88 48 7c	 mov	 BYTE PTR [eax+124], cl

; 681  : }

  02a07	8b e5		 mov	 esp, ebp
  02a09	5d		 pop	 ebp
  02a0a	c2 04 00	 ret	 4
?EnableToolTip@CxStaticText@@QAEX_N@Z ENDP		; CxStaticText::EnableToolTip
_TEXT	ENDS
EXTRN	__imp_?GetManager@?$CSimpleStringT@D$00@ATL@@QBEPAUIAtlStringMgr@2@XZ:NEAR
EXTRN	__imp_?StringLength@?$CSimpleStringT@D$00@ATL@@SAHPBD@Z:NEAR
EXTRN	__imp_?Concatenate@?$CSimpleStringT@D$00@ATL@@KAXAAV12@PBDH1H@Z:NEAR
EXTRN	__imp_??0?$CStringT@DV?$StrTraitMFC_DLL@DV?$ChTraitsCRT@D@ATL@@@@@ATL@@QAE@PAUIAtlStringMgr@1@@Z:NEAR
EXTRN	__imp_??0?$CStringT@DV?$StrTraitMFC_DLL@DV?$ChTraitsCRT@D@ATL@@@@@ATL@@QAE@ABV01@@Z:NEAR
;	COMDAT xdata$x
; File d:\program files (x86)\microsoft visual studio .net 2003\vc7\atlmfc\include\cstringt.h
xdata$x	SEGMENT
$T189292 DD	0ffffffffH
	DD	FLAT:$L189282
$T189287 DD	019930520H
	DD	01H
	DD	FLAT:$T189292
	DD	2 DUP(00H)
	DD	2 DUP(00H)
; Function compile flags: /Odt /RTCsu
xdata$x	ENDS
;	COMDAT ??HATL@@YA?AV?$CStringT@DV?$StrTraitMFC_DLL@DV?$ChTraitsCRT@D@ATL@@@@@0@ABV10@PBD@Z
_TEXT	SEGMENT
$T189284 = -28						; size = 4
_strResult$ = -20					; size = 4
__$EHRec$ = -12						; size = 12
___$ReturnUdt$ = 8					; size = 4
_str1$ = 12						; size = 4
_psz2$ = 16						; size = 4
??HATL@@YA?AV?$CStringT@DV?$StrTraitMFC_DLL@DV?$ChTraitsCRT@D@ATL@@@@@0@ABV10@PBD@Z PROC NEAR ; ATL::operator+, COMDAT

; 2023 : 	{

  00000	55		 push	 ebp
  00001	8b ec		 mov	 ebp, esp
  00003	6a ff		 push	 -1
  00005	68 00 00 00 00	 push	 __ehhandler$??HATL@@YA?AV?$CStringT@DV?$StrTraitMFC_DLL@DV?$ChTraitsCRT@D@ATL@@@@@0@ABV10@PBD@Z
  0000a	64 a1 00 00 00
	00		 mov	 eax, DWORD PTR fs:__except_list
  00010	50		 push	 eax
  00011	64 89 25 00 00
	00 00		 mov	 DWORD PTR fs:__except_list, esp
  00018	83 ec 10	 sub	 esp, 16			; 00000010H
  0001b	56		 push	 esi
  0001c	57		 push	 edi
  0001d	b8 cc cc cc cc	 mov	 eax, -858993460		; ccccccccH
  00022	89 45 e4	 mov	 DWORD PTR [ebp-28], eax
  00025	89 45 e8	 mov	 DWORD PTR [ebp-24], eax
  00028	89 45 ec	 mov	 DWORD PTR [ebp-20], eax
  0002b	89 45 f0	 mov	 DWORD PTR [ebp-16], eax
  0002e	c7 45 e4 00 00
	00 00		 mov	 DWORD PTR $T189284[ebp], 0

; 2024 : 		CStringT strResult( str1.GetManager() );

  00035	8b f4		 mov	 esi, esp
  00037	8b 4d 0c	 mov	 ecx, DWORD PTR _str1$[ebp]
  0003a	ff 15 00 00 00
	00		 call	 DWORD PTR __imp_?GetManager@?$CSimpleStringT@D$00@ATL@@QBEPAUIAtlStringMgr@2@XZ
  00040	3b f4		 cmp	 esi, esp
  00042	e8 00 00 00 00	 call	 __RTC_CheckEsp
  00047	8b f4		 mov	 esi, esp
  00049	50		 push	 eax
  0004a	8d 4d ec	 lea	 ecx, DWORD PTR _strResult$[ebp]
  0004d	ff 15 00 00 00
	00		 call	 DWORD PTR __imp_??0?$CStringT@DV?$StrTraitMFC_DLL@DV?$ChTraitsCRT@D@ATL@@@@@ATL@@QAE@PAUIAtlStringMgr@1@@Z
  00053	3b f4		 cmp	 esi, esp
  00055	e8 00 00 00 00	 call	 __RTC_CheckEsp
  0005a	c7 45 fc 00 00
	00 00		 mov	 DWORD PTR __$EHRec$[ebp+8], 0

; 2025 : 
; 2026 : 		Concatenate( strResult, str1, str1.GetLength(), psz2, StringLength( psz2 ) );

  00061	8b f4		 mov	 esi, esp
  00063	8b 45 10	 mov	 eax, DWORD PTR _psz2$[ebp]
  00066	50		 push	 eax
  00067	ff 15 00 00 00
	00		 call	 DWORD PTR __imp_?StringLength@?$CSimpleStringT@D$00@ATL@@SAHPBD@Z
  0006d	83 c4 04	 add	 esp, 4
  00070	3b f4		 cmp	 esi, esp
  00072	e8 00 00 00 00	 call	 __RTC_CheckEsp
  00077	8b f4		 mov	 esi, esp
  00079	50		 push	 eax
  0007a	8b 4d 10	 mov	 ecx, DWORD PTR _psz2$[ebp]
  0007d	51		 push	 ecx
  0007e	8b fc		 mov	 edi, esp
  00080	8b 4d 0c	 mov	 ecx, DWORD PTR _str1$[ebp]
  00083	ff 15 00 00 00
	00		 call	 DWORD PTR __imp_?GetLength@?$CSimpleStringT@D$00@ATL@@QBEHXZ
  00089	3b fc		 cmp	 edi, esp
  0008b	e8 00 00 00 00	 call	 __RTC_CheckEsp
  00090	50		 push	 eax
  00091	8b fc		 mov	 edi, esp
  00093	8b 4d 0c	 mov	 ecx, DWORD PTR _str1$[ebp]
  00096	ff 15 00 00 00
	00		 call	 DWORD PTR __imp_??B?$CSimpleStringT@D$00@ATL@@QBEPBDXZ
  0009c	3b fc		 cmp	 edi, esp
  0009e	e8 00 00 00 00	 call	 __RTC_CheckEsp
  000a3	50		 push	 eax
  000a4	8d 55 ec	 lea	 edx, DWORD PTR _strResult$[ebp]
  000a7	52		 push	 edx
  000a8	ff 15 00 00 00
	00		 call	 DWORD PTR __imp_?Concatenate@?$CSimpleStringT@D$00@ATL@@KAXAAV12@PBDH1H@Z
  000ae	83 c4 14	 add	 esp, 20			; 00000014H
  000b1	3b f4		 cmp	 esi, esp
  000b3	e8 00 00 00 00	 call	 __RTC_CheckEsp

; 2027 : 
; 2028 : 		return( strResult );

  000b8	8b f4		 mov	 esi, esp
  000ba	8d 45 ec	 lea	 eax, DWORD PTR _strResult$[ebp]
  000bd	50		 push	 eax
  000be	8b 4d 08	 mov	 ecx, DWORD PTR ___$ReturnUdt$[ebp]
  000c1	ff 15 00 00 00
	00		 call	 DWORD PTR __imp_??0?$CStringT@DV?$StrTraitMFC_DLL@DV?$ChTraitsCRT@D@ATL@@@@@ATL@@QAE@ABV01@@Z
  000c7	3b f4		 cmp	 esi, esp
  000c9	e8 00 00 00 00	 call	 __RTC_CheckEsp
  000ce	8b 4d e4	 mov	 ecx, DWORD PTR $T189284[ebp]
  000d1	83 c9 01	 or	 ecx, 1
  000d4	89 4d e4	 mov	 DWORD PTR $T189284[ebp], ecx
  000d7	c7 45 fc ff ff
	ff ff		 mov	 DWORD PTR __$EHRec$[ebp+8], -1
  000de	8b f4		 mov	 esi, esp
  000e0	8d 4d ec	 lea	 ecx, DWORD PTR _strResult$[ebp]
  000e3	ff 15 00 00 00
	00		 call	 DWORD PTR __imp_??1?$CStringT@DV?$StrTraitMFC_DLL@DV?$ChTraitsCRT@D@ATL@@@@@ATL@@QAE@XZ
  000e9	3b f4		 cmp	 esi, esp
  000eb	e8 00 00 00 00	 call	 __RTC_CheckEsp
  000f0	8b 45 08	 mov	 eax, DWORD PTR ___$ReturnUdt$[ebp]

; 2029 : 	}

  000f3	52		 push	 edx
  000f4	8b cd		 mov	 ecx, ebp
  000f6	50		 push	 eax
  000f7	8d 15 00 00 00
	00		 lea	 edx, DWORD PTR $L189291
  000fd	e8 00 00 00 00	 call	 @_RTC_CheckStackVars@8
  00102	58		 pop	 eax
  00103	5a		 pop	 edx
  00104	8b 4d f4	 mov	 ecx, DWORD PTR __$EHRec$[ebp]
  00107	64 89 0d 00 00
	00 00		 mov	 DWORD PTR fs:__except_list, ecx
  0010e	5f		 pop	 edi
  0010f	5e		 pop	 esi
  00110	83 c4 1c	 add	 esp, 28			; 0000001cH
  00113	3b ec		 cmp	 ebp, esp
  00115	e8 00 00 00 00	 call	 __RTC_CheckEsp
  0011a	8b e5		 mov	 esp, ebp
  0011c	5d		 pop	 ebp
  0011d	c3		 ret	 0
$L189291:
  0011e	01 00 00 00	 DD	 1
  00122	00 00 00 00	 DD	 $L189290
$L189290:
  00126	ec ff ff ff	 DD	 -20			; ffffffecH
  0012a	04 00 00 00	 DD	 4
  0012e	00 00 00 00	 DD	 $L189288
$L189288:
  00132	73		 DB	 115			; 00000073H
  00133	74		 DB	 116			; 00000074H
  00134	72		 DB	 114			; 00000072H
  00135	52		 DB	 82			; 00000052H
  00136	65		 DB	 101			; 00000065H
  00137	73		 DB	 115			; 00000073H
  00138	75		 DB	 117			; 00000075H
  00139	6c		 DB	 108			; 0000006cH
  0013a	74		 DB	 116			; 00000074H
  0013b	00		 DB	 0
_TEXT	ENDS
;	COMDAT text$x
text$x	SEGMENT
$L189282:
  00000	8b f4		 mov	 esi, esp
  00002	8d 4d ec	 lea	 ecx, DWORD PTR _strResult$[ebp]
  00005	ff 15 00 00 00
	00		 call	 DWORD PTR __imp_??1?$CStringT@DV?$StrTraitMFC_DLL@DV?$ChTraitsCRT@D@ATL@@@@@ATL@@QAE@XZ
  0000b	3b f4		 cmp	 esi, esp
  0000d	e9 00 00 00 00	 jmp	 __RTC_CheckEsp
__ehhandler$??HATL@@YA?AV?$CStringT@DV?$StrTraitMFC_DLL@DV?$ChTraitsCRT@D@ATL@@@@@0@ABV10@PBD@Z:
  00012	b8 00 00 00 00	 mov	 eax, OFFSET FLAT:$T189287
  00017	e9 00 00 00 00	 jmp	 ___CxxFrameHandler
text$x	ENDS
??HATL@@YA?AV?$CStringT@DV?$StrTraitMFC_DLL@DV?$ChTraitsCRT@D@ATL@@@@@0@ABV10@PBD@Z ENDP ; ATL::operator+
PUBLIC	??Dconst_iterator@?$basic_string@_WU?$char_traits@_W@std@@V?$allocator@_W@2@@std@@QBEAB_WXZ ; std::basic_string<wchar_t,std::char_traits<wchar_t>,std::allocator<wchar_t> >::const_iterator::operator*
; Function compile flags: /Odt /RTCsu
; File d:\program files (x86)\microsoft visual studio .net 2003\vc7\include\xstring
;	COMDAT ??Diterator@?$basic_string@_WU?$char_traits@_W@std@@V?$allocator@_W@2@@std@@QBEAA_WXZ
_TEXT	SEGMENT
_this$ = -4						; size = 4
??Diterator@?$basic_string@_WU?$char_traits@_W@std@@V?$allocator@_W@2@@std@@QBEAA_WXZ PROC NEAR ; std::basic_string<wchar_t,std::char_traits<wchar_t>,std::allocator<wchar_t> >::iterator::operator*, COMDAT
; _this$ = ecx

; 231  : 			{	// return designated object

  00000	55		 push	 ebp
  00001	8b ec		 mov	 ebp, esp
  00003	51		 push	 ecx
  00004	c7 45 fc cc cc
	cc cc		 mov	 DWORD PTR [ebp-4], -858993460 ; ccccccccH
  0000b	89 4d fc	 mov	 DWORD PTR _this$[ebp], ecx

; 232  : 			return ((reference)**(const_iterator *)this);

  0000e	8b 4d fc	 mov	 ecx, DWORD PTR _this$[ebp]
  00011	e8 00 00 00 00	 call	 ??Dconst_iterator@?$basic_string@_WU?$char_traits@_W@std@@V?$allocator@_W@2@@std@@QBEAB_WXZ ; std::basic_string<wchar_t,std::char_traits<wchar_t>,std::allocator<wchar_t> >::const_iterator::operator*

; 233  : 			}

  00016	83 c4 04	 add	 esp, 4
  00019	3b ec		 cmp	 ebp, esp
  0001b	e8 00 00 00 00	 call	 __RTC_CheckEsp
  00020	8b e5		 mov	 esp, ebp
  00022	5d		 pop	 ebp
  00023	c3		 ret	 0
??Diterator@?$basic_string@_WU?$char_traits@_W@std@@V?$allocator@_W@2@@std@@QBEAA_WXZ ENDP ; std::basic_string<wchar_t,std::char_traits<wchar_t>,std::allocator<wchar_t> >::iterator::operator*
; Function compile flags: /Odt /RTCsu
_TEXT	ENDS
;	COMDAT ??Fiterator@?$basic_string@_WU?$char_traits@_W@std@@V?$allocator@_W@2@@std@@QAEAAV012@XZ
_TEXT	SEGMENT
_this$ = -4						; size = 4
??Fiterator@?$basic_string@_WU?$char_traits@_W@std@@V?$allocator@_W@2@@std@@QAEAAV012@XZ PROC NEAR ; std::basic_string<wchar_t,std::char_traits<wchar_t>,std::allocator<wchar_t> >::iterator::operator--, COMDAT
; _this$ = ecx

; 254  : 			{	// predecrement

  00000	55		 push	 ebp
  00001	8b ec		 mov	 ebp, esp
  00003	51		 push	 ecx
  00004	c7 45 fc cc cc
	cc cc		 mov	 DWORD PTR [ebp-4], -858993460 ; ccccccccH
  0000b	89 4d fc	 mov	 DWORD PTR _this$[ebp], ecx

; 255  : 			--this->_Myptr;

  0000e	8b 45 fc	 mov	 eax, DWORD PTR _this$[ebp]
  00011	8b 08		 mov	 ecx, DWORD PTR [eax]
  00013	83 e9 02	 sub	 ecx, 2
  00016	8b 55 fc	 mov	 edx, DWORD PTR _this$[ebp]
  00019	89 0a		 mov	 DWORD PTR [edx], ecx

; 256  : 			return (*this);

  0001b	8b 45 fc	 mov	 eax, DWORD PTR _this$[ebp]

; 257  : 			}

  0001e	8b e5		 mov	 esp, ebp
  00020	5d		 pop	 ebp
  00021	c3		 ret	 0
??Fiterator@?$basic_string@_WU?$char_traits@_W@std@@V?$allocator@_W@2@@std@@QAEAAV012@XZ ENDP ; std::basic_string<wchar_t,std::char_traits<wchar_t>,std::allocator<wchar_t> >::iterator::operator--
_TEXT	ENDS
PUBLIC	??Ziterator@?$basic_string@_WU?$char_traits@_W@std@@V?$allocator@_W@2@@std@@QAEAAV012@H@Z ; std::basic_string<wchar_t,std::char_traits<wchar_t>,std::allocator<wchar_t> >::iterator::operator-=
; Function compile flags: /Odt /RTCsu
;	COMDAT ??Giterator@?$basic_string@_WU?$char_traits@_W@std@@V?$allocator@_W@2@@std@@QBE?AV012@H@Z
_TEXT	SEGMENT
__Tmp$ = -12						; size = 4
_this$ = -4						; size = 4
___$ReturnUdt$ = 8					; size = 4
__Off$ = 12						; size = 4
??Giterator@?$basic_string@_WU?$char_traits@_W@std@@V?$allocator@_W@2@@std@@QBE?AV012@H@Z PROC NEAR ; std::basic_string<wchar_t,std::char_traits<wchar_t>,std::allocator<wchar_t> >::iterator::operator-, COMDAT
; _this$ = ecx

; 284  : 			{	// return this - integer

  00000	55		 push	 ebp
  00001	8b ec		 mov	 ebp, esp
  00003	83 ec 10	 sub	 esp, 16			; 00000010H
  00006	b8 cc cc cc cc	 mov	 eax, -858993460		; ccccccccH
  0000b	89 45 f0	 mov	 DWORD PTR [ebp-16], eax
  0000e	89 45 f4	 mov	 DWORD PTR [ebp-12], eax
  00011	89 45 f8	 mov	 DWORD PTR [ebp-8], eax
  00014	89 45 fc	 mov	 DWORD PTR [ebp-4], eax
  00017	89 4d fc	 mov	 DWORD PTR _this$[ebp], ecx

; 285  : 			iterator _Tmp = *this;

  0001a	8b 45 fc	 mov	 eax, DWORD PTR _this$[ebp]
  0001d	8b 08		 mov	 ecx, DWORD PTR [eax]
  0001f	89 4d f4	 mov	 DWORD PTR __Tmp$[ebp], ecx

; 286  : 			return (_Tmp -= _Off);

  00022	8b 55 0c	 mov	 edx, DWORD PTR __Off$[ebp]
  00025	52		 push	 edx
  00026	8d 4d f4	 lea	 ecx, DWORD PTR __Tmp$[ebp]
  00029	e8 00 00 00 00	 call	 ??Ziterator@?$basic_string@_WU?$char_traits@_W@std@@V?$allocator@_W@2@@std@@QAEAAV012@H@Z ; std::basic_string<wchar_t,std::char_traits<wchar_t>,std::allocator<wchar_t> >::iterator::operator-=
  0002e	8b 00		 mov	 eax, DWORD PTR [eax]
  00030	8b 4d 08	 mov	 ecx, DWORD PTR ___$ReturnUdt$[ebp]
  00033	89 01		 mov	 DWORD PTR [ecx], eax
  00035	8b 45 08	 mov	 eax, DWORD PTR ___$ReturnUdt$[ebp]

; 287  : 			}

  00038	52		 push	 edx
  00039	8b cd		 mov	 ecx, ebp
  0003b	50		 push	 eax
  0003c	8d 15 00 00 00
	00		 lea	 edx, DWORD PTR $L189300
  00042	e8 00 00 00 00	 call	 @_RTC_CheckStackVars@8
  00047	58		 pop	 eax
  00048	5a		 pop	 edx
  00049	83 c4 10	 add	 esp, 16			; 00000010H
  0004c	3b ec		 cmp	 ebp, esp
  0004e	e8 00 00 00 00	 call	 __RTC_CheckEsp
  00053	8b e5		 mov	 esp, ebp
  00055	5d		 pop	 ebp
  00056	c2 08 00	 ret	 8
$L189300:
  00059	01 00 00 00	 DD	 1
  0005d	00 00 00 00	 DD	 $L189299
$L189299:
  00061	f4 ff ff ff	 DD	 -12			; fffffff4H
  00065	04 00 00 00	 DD	 4
  00069	00 00 00 00	 DD	 $L189298
$L189298:
  0006d	5f		 DB	 95			; 0000005fH
  0006e	54		 DB	 84			; 00000054H
  0006f	6d		 DB	 109			; 0000006dH
  00070	70		 DB	 112			; 00000070H
  00071	00		 DB	 0
??Giterator@?$basic_string@_WU?$char_traits@_W@std@@V?$allocator@_W@2@@std@@QBE?AV012@H@Z ENDP ; std::basic_string<wchar_t,std::char_traits<wchar_t>,std::allocator<wchar_t> >::iterator::operator-
; Function compile flags: /Odt /RTCsu
_TEXT	ENDS
;	COMDAT ??Dconst_iterator@?$basic_string@_WU?$char_traits@_W@std@@V?$allocator@_W@2@@std@@QBEAB_WXZ
_TEXT	SEGMENT
_this$ = -4						; size = 4
??Dconst_iterator@?$basic_string@_WU?$char_traits@_W@std@@V?$allocator@_W@2@@std@@QBEAB_WXZ PROC NEAR ; std::basic_string<wchar_t,std::char_traits<wchar_t>,std::allocator<wchar_t> >::const_iterator::operator*, COMDAT
; _this$ = ecx

; 90   : 			{	// return designated object

  00000	55		 push	 ebp
  00001	8b ec		 mov	 ebp, esp
  00003	51		 push	 ecx
  00004	c7 45 fc cc cc
	cc cc		 mov	 DWORD PTR [ebp-4], -858993460 ; ccccccccH
  0000b	89 4d fc	 mov	 DWORD PTR _this$[ebp], ecx

; 91   : 
; 92   : 
; 93   : 			return (*_Myptr);

  0000e	8b 45 fc	 mov	 eax, DWORD PTR _this$[ebp]
  00011	8b 00		 mov	 eax, DWORD PTR [eax]

; 94   : 			}

  00013	8b e5		 mov	 esp, ebp
  00015	5d		 pop	 ebp
  00016	c3		 ret	 0
??Dconst_iterator@?$basic_string@_WU?$char_traits@_W@std@@V?$allocator@_W@2@@std@@QBEAB_WXZ ENDP ; std::basic_string<wchar_t,std::char_traits<wchar_t>,std::allocator<wchar_t> >::const_iterator::operator*
_TEXT	ENDS
PUBLIC	??Yiterator@?$basic_string@_WU?$char_traits@_W@std@@V?$allocator@_W@2@@std@@QAEAAV012@H@Z ; std::basic_string<wchar_t,std::char_traits<wchar_t>,std::allocator<wchar_t> >::iterator::operator+=
; Function compile flags: /Odt /RTCsu
;	COMDAT ??Ziterator@?$basic_string@_WU?$char_traits@_W@std@@V?$allocator@_W@2@@std@@QAEAAV012@H@Z
_TEXT	SEGMENT
_this$ = -4						; size = 4
__Off$ = 8						; size = 4
??Ziterator@?$basic_string@_WU?$char_traits@_W@std@@V?$allocator@_W@2@@std@@QAEAAV012@H@Z PROC NEAR ; std::basic_string<wchar_t,std::char_traits<wchar_t>,std::allocator<wchar_t> >::iterator::operator-=, COMDAT
; _this$ = ecx

; 279  : 			{	// decrement by integer

  00000	55		 push	 ebp
  00001	8b ec		 mov	 ebp, esp
  00003	51		 push	 ecx
  00004	c7 45 fc cc cc
	cc cc		 mov	 DWORD PTR [ebp-4], -858993460 ; ccccccccH
  0000b	89 4d fc	 mov	 DWORD PTR _this$[ebp], ecx

; 280  : 			return (*this += -_Off);

  0000e	8b 45 08	 mov	 eax, DWORD PTR __Off$[ebp]
  00011	f7 d8		 neg	 eax
  00013	50		 push	 eax
  00014	8b 4d fc	 mov	 ecx, DWORD PTR _this$[ebp]
  00017	e8 00 00 00 00	 call	 ??Yiterator@?$basic_string@_WU?$char_traits@_W@std@@V?$allocator@_W@2@@std@@QAEAAV012@H@Z ; std::basic_string<wchar_t,std::char_traits<wchar_t>,std::allocator<wchar_t> >::iterator::operator+=

; 281  : 			}

  0001c	83 c4 04	 add	 esp, 4
  0001f	3b ec		 cmp	 ebp, esp
  00021	e8 00 00 00 00	 call	 __RTC_CheckEsp
  00026	8b e5		 mov	 esp, ebp
  00028	5d		 pop	 ebp
  00029	c2 04 00	 ret	 4
??Ziterator@?$basic_string@_WU?$char_traits@_W@std@@V?$allocator@_W@2@@std@@QAEAAV012@H@Z ENDP ; std::basic_string<wchar_t,std::char_traits<wchar_t>,std::allocator<wchar_t> >::iterator::operator-=
; Function compile flags: /Odt /RTCsu
_TEXT	ENDS
;	COMDAT ??Yiterator@?$basic_string@_WU?$char_traits@_W@std@@V?$allocator@_W@2@@std@@QAEAAV012@H@Z
_TEXT	SEGMENT
_this$ = -4						; size = 4
__Off$ = 8						; size = 4
??Yiterator@?$basic_string@_WU?$char_traits@_W@std@@V?$allocator@_W@2@@std@@QAEAAV012@H@Z PROC NEAR ; std::basic_string<wchar_t,std::char_traits<wchar_t>,std::allocator<wchar_t> >::iterator::operator+=, COMDAT
; _this$ = ecx

; 267  : 			{	// increment by integer

  00000	55		 push	 ebp
  00001	8b ec		 mov	 ebp, esp
  00003	51		 push	 ecx
  00004	c7 45 fc cc cc
	cc cc		 mov	 DWORD PTR [ebp-4], -858993460 ; ccccccccH
  0000b	89 4d fc	 mov	 DWORD PTR _this$[ebp], ecx

; 268  : 			this->_Myptr += _Off;

  0000e	8b 45 fc	 mov	 eax, DWORD PTR _this$[ebp]
  00011	8b 08		 mov	 ecx, DWORD PTR [eax]
  00013	8b 55 08	 mov	 edx, DWORD PTR __Off$[ebp]
  00016	8d 04 51	 lea	 eax, DWORD PTR [ecx+edx*2]
  00019	8b 4d fc	 mov	 ecx, DWORD PTR _this$[ebp]
  0001c	89 01		 mov	 DWORD PTR [ecx], eax

; 269  : 			return (*this);

  0001e	8b 45 fc	 mov	 eax, DWORD PTR _this$[ebp]

; 270  : 			}

  00021	8b e5		 mov	 esp, ebp
  00023	5d		 pop	 ebp
  00024	c2 04 00	 ret	 4
??Yiterator@?$basic_string@_WU?$char_traits@_W@std@@V?$allocator@_W@2@@std@@QAEAAV012@H@Z ENDP ; std::basic_string<wchar_t,std::char_traits<wchar_t>,std::allocator<wchar_t> >::iterator::operator+=
_TEXT	ENDS
PUBLIC	??0sentry@?$basic_istream@_WU?$char_traits@_W@std@@@std@@QAE@AAV12@_N@Z ; std::basic_istream<wchar_t,std::char_traits<wchar_t> >::sentry::sentry
PUBLIC	??Bsentry@?$basic_istream@_WU?$char_traits@_W@std@@@std@@QBE_NXZ ; std::basic_istream<wchar_t,std::char_traits<wchar_t> >::sentry::operator bool
PUBLIC	??1sentry@?$basic_istream@_WU?$char_traits@_W@std@@@std@@QAE@XZ ; std::basic_istream<wchar_t,std::char_traits<wchar_t> >::sentry::~sentry
EXTRN	__imp_??Y?$basic_string@_WU?$char_traits@_W@std@@V?$allocator@_W@2@@std@@QAEAAV01@_W@Z:NEAR
EXTRN	__imp_?erase@?$basic_string@_WU?$char_traits@_W@std@@V?$allocator@_W@2@@std@@QAEAAV12@II@Z:NEAR
EXTRN	__imp_?max_size@?$basic_string@_WU?$char_traits@_W@std@@V?$allocator@_W@2@@std@@QBEIXZ:NEAR
EXTRN	__imp_?sbumpc@?$basic_streambuf@_WU?$char_traits@_W@std@@@std@@QAEGXZ:NEAR
EXTRN	__imp_?sgetc@?$basic_streambuf@_WU?$char_traits@_W@std@@@std@@QAEGXZ:NEAR
EXTRN	__imp_?snextc@?$basic_streambuf@_WU?$char_traits@_W@std@@@std@@QAEGXZ:NEAR
EXTRN	__imp_?to_char_type@?$char_traits@_W@std@@SA_WABG@Z:NEAR
EXTRN	__imp_?to_int_type@?$char_traits@_W@std@@SAGAB_W@Z:NEAR
EXTRN	__imp_?eq_int_type@?$char_traits@_W@std@@SA_NABG0@Z:NEAR
EXTRN	__imp_?eof@?$char_traits@_W@std@@SAGXZ:NEAR
EXTRN	__imp_?setstate@?$basic_ios@_WU?$char_traits@_W@std@@@std@@QAEXH_N@Z:NEAR
EXTRN	__imp_?rdbuf@?$basic_ios@_WU?$char_traits@_W@std@@@std@@QBEPAV?$basic_streambuf@_WU?$char_traits@_W@std@@@2@XZ:NEAR
;	COMDAT xdata$x
; File d:\program files (x86)\microsoft visual studio .net 2003\vc7\include\string
xdata$x	SEGMENT
$T189318 DD	0ffffffffH
	DD	FLAT:$L189309
	DD	00H
	DD	00H
	DD	00H
	DD	00H
$T189320 DD	00H
	DD	00H
	DD	00H
	DD	FLAT:$L189308
$T189319 DD	01H
	DD	01H
	DD	02H
	DD	01H
	DD	FLAT:$T189320
$T189311 DD	019930520H
	DD	03H
	DD	FLAT:$T189318
	DD	01H
	DD	FLAT:$T189319
	DD	2 DUP(00H)
; Function compile flags: /Odt /RTCsu
xdata$x	ENDS
;	COMDAT ??$getline@_WU?$char_traits@_W@std@@V?$allocator@_W@2@@std@@YAAAV?$basic_istream@_WU?$char_traits@_W@std@@@0@AAV10@AAV?$basic_string@_WU?$char_traits@_W@std@@V?$allocator@_W@2@@0@_W@Z
_TEXT	SEGMENT
tv175 = -110						; size = 2
tv174 = -108						; size = 4
tv173 = -104						; size = 4
tv172 = -100						; size = 4
tv171 = -94						; size = 1
tv170 = -93						; size = 1
tv169 = -92						; size = 2
tv168 = -90						; size = 2
tv167 = -88						; size = 4
tv166 = -82						; size = 2
tv165 = -80						; size = 4
tv65 = -74						; size = 2
$T189306 = -72						; size = 4
$T189305 = -66						; size = 2
__Meta$186367 = -60					; size = 2
__Metadelim$186366 = -48				; size = 2
__Ok$ = -36						; size = 8
__Changed$ = -21					; size = 1
__State$ = -20						; size = 4
__$EHRec$ = -16						; size = 16
__Istr$ = 8						; size = 4
__Str$ = 12						; size = 4
__Delim$ = 16						; size = 2
??$getline@_WU?$char_traits@_W@std@@V?$allocator@_W@2@@std@@YAAAV?$basic_istream@_WU?$char_traits@_W@std@@@0@AAV10@AAV?$basic_string@_WU?$char_traits@_W@std@@V?$allocator@_W@2@@0@_W@Z PROC NEAR ; std::getline<wchar_t,std::char_traits<wchar_t>,std::allocator<wchar_t> >, COMDAT

; 477  : 	{	// get characters into string, discard delimiter

  00000	55		 push	 ebp
  00001	8b ec		 mov	 ebp, esp
  00003	6a ff		 push	 -1
  00005	68 00 00 00 00	 push	 __ehhandler$??$getline@_WU?$char_traits@_W@std@@V?$allocator@_W@2@@std@@YAAAV?$basic_istream@_WU?$char_traits@_W@std@@@0@AAV10@AAV?$basic_string@_WU?$char_traits@_W@std@@V?$allocator@_W@2@@0@_W@Z
  0000a	64 a1 00 00 00
	00		 mov	 eax, DWORD PTR fs:__except_list
  00010	50		 push	 eax
  00011	64 89 25 00 00
	00 00		 mov	 DWORD PTR fs:__except_list, esp
  00018	51		 push	 ecx
  00019	83 ec 60	 sub	 esp, 96			; 00000060H
  0001c	53		 push	 ebx
  0001d	56		 push	 esi
  0001e	57		 push	 edi
  0001f	8d 7d 90	 lea	 edi, DWORD PTR [ebp-112]
  00022	b9 18 00 00 00	 mov	 ecx, 24			; 00000018H
  00027	b8 cc cc cc cc	 mov	 eax, -858993460		; ccccccccH
  0002c	f3 ab		 rep stosd
  0002e	89 65 f0	 mov	 DWORD PTR __$EHRec$[ebp], esp

; 478  : 	typedef basic_istream<_Elem, _Traits> _Myis;
; 479  : 	ios_base::iostate _State = ios_base::goodbit;

  00031	c7 45 ec 00 00
	00 00		 mov	 DWORD PTR __State$[ebp], 0

; 480  : 	bool _Changed = false;

  00038	c6 45 eb 00	 mov	 BYTE PTR __Changed$[ebp], 0

; 481  : 	const typename _Myis::sentry _Ok(_Istr, true);

  0003c	6a 01		 push	 1
  0003e	8b 45 08	 mov	 eax, DWORD PTR __Istr$[ebp]
  00041	50		 push	 eax
  00042	8d 4d dc	 lea	 ecx, DWORD PTR __Ok$[ebp]
  00045	e8 00 00 00 00	 call	 ??0sentry@?$basic_istream@_WU?$char_traits@_W@std@@@std@@QAE@AAV12@_N@Z ; std::basic_istream<wchar_t,std::char_traits<wchar_t> >::sentry::sentry
  0004a	c7 45 fc 00 00
	00 00		 mov	 DWORD PTR __$EHRec$[ebp+12], 0

; 482  : 
; 483  : 	if (_Ok)

  00051	8d 4d dc	 lea	 ecx, DWORD PTR __Ok$[ebp]
  00054	e8 00 00 00 00	 call	 ??Bsentry@?$basic_istream@_WU?$char_traits@_W@std@@@std@@QBE_NXZ ; std::basic_istream<wchar_t,std::char_traits<wchar_t> >::sentry::operator bool
  00059	0f b6 c8	 movzx	 ecx, al
  0005c	85 c9		 test	 ecx, ecx
  0005e	0f 84 04 02 00
	00		 je	 $L189307

; 484  : 		{	// state okay, extract characters
; 485  : 		_TRY_IO_BEGIN

  00064	c6 45 fc 01	 mov	 BYTE PTR __$EHRec$[ebp+12], 1

; 486  : 		_Str.erase();

  00068	8b f4		 mov	 esi, esp
  0006a	8b 15 00 00 00
	00		 mov	 edx, DWORD PTR __imp_?npos@?$basic_string@_WU?$char_traits@_W@std@@V?$allocator@_W@2@@std@@2IB
  00070	8b 02		 mov	 eax, DWORD PTR [edx]
  00072	50		 push	 eax
  00073	6a 00		 push	 0
  00075	8b 4d 0c	 mov	 ecx, DWORD PTR __Str$[ebp]
  00078	ff 15 00 00 00
	00		 call	 DWORD PTR __imp_?erase@?$basic_string@_WU?$char_traits@_W@std@@V?$allocator@_W@2@@std@@QAEAAV12@II@Z
  0007e	3b f4		 cmp	 esi, esp
  00080	e8 00 00 00 00	 call	 __RTC_CheckEsp

; 487  : 		const typename _Traits::int_type _Metadelim =
; 488  : 			_Traits::to_int_type(_Delim);

  00085	8b f4		 mov	 esi, esp
  00087	8d 4d 10	 lea	 ecx, DWORD PTR __Delim$[ebp]
  0008a	51		 push	 ecx
  0008b	ff 15 00 00 00
	00		 call	 DWORD PTR __imp_?to_int_type@?$char_traits@_W@std@@SAGAB_W@Z
  00091	83 c4 04	 add	 esp, 4
  00094	3b f4		 cmp	 esi, esp
  00096	e8 00 00 00 00	 call	 __RTC_CheckEsp
  0009b	66 89 45 b6	 mov	 WORD PTR tv65[ebp], ax
  0009f	66 8b 55 b6	 mov	 dx, WORD PTR tv65[ebp]
  000a3	66 89 55 d0	 mov	 WORD PTR __Metadelim$186366[ebp], dx

; 489  : 		typename _Traits::int_type _Meta = _Istr.rdbuf()->sgetc();

  000a7	8b 45 08	 mov	 eax, DWORD PTR __Istr$[ebp]
  000aa	8b 08		 mov	 ecx, DWORD PTR [eax]
  000ac	8b 55 08	 mov	 edx, DWORD PTR __Istr$[ebp]
  000af	03 51 04	 add	 edx, DWORD PTR [ecx+4]
  000b2	8b f4		 mov	 esi, esp
  000b4	8b ca		 mov	 ecx, edx
  000b6	ff 15 00 00 00
	00		 call	 DWORD PTR __imp_?rdbuf@?$basic_ios@_WU?$char_traits@_W@std@@@std@@QBEPAV?$basic_streambuf@_WU?$char_traits@_W@std@@@2@XZ
  000bc	3b f4		 cmp	 esi, esp
  000be	e8 00 00 00 00	 call	 __RTC_CheckEsp
  000c3	89 45 b0	 mov	 DWORD PTR tv165[ebp], eax
  000c6	8b f4		 mov	 esi, esp
  000c8	8b 4d b0	 mov	 ecx, DWORD PTR tv165[ebp]
  000cb	ff 15 00 00 00
	00		 call	 DWORD PTR __imp_?sgetc@?$basic_streambuf@_WU?$char_traits@_W@std@@@std@@QAEGXZ
  000d1	3b f4		 cmp	 esi, esp
  000d3	e8 00 00 00 00	 call	 __RTC_CheckEsp
  000d8	66 89 45 ae	 mov	 WORD PTR tv166[ebp], ax
  000dc	66 8b 45 ae	 mov	 ax, WORD PTR tv166[ebp]
  000e0	66 89 45 c4	 mov	 WORD PTR __Meta$186367[ebp], ax

; 490  : 
; 491  : 		for (; ; _Meta = _Istr.rdbuf()->snextc())

  000e4	eb 3b		 jmp	 SHORT $L186368
$L186369:
  000e6	8b 4d 08	 mov	 ecx, DWORD PTR __Istr$[ebp]
  000e9	8b 11		 mov	 edx, DWORD PTR [ecx]
  000eb	8b 4d 08	 mov	 ecx, DWORD PTR __Istr$[ebp]
  000ee	03 4a 04	 add	 ecx, DWORD PTR [edx+4]
  000f1	8b f4		 mov	 esi, esp
  000f3	ff 15 00 00 00
	00		 call	 DWORD PTR __imp_?rdbuf@?$basic_ios@_WU?$char_traits@_W@std@@@std@@QBEPAV?$basic_streambuf@_WU?$char_traits@_W@std@@@2@XZ
  000f9	3b f4		 cmp	 esi, esp
  000fb	e8 00 00 00 00	 call	 __RTC_CheckEsp
  00100	89 45 a8	 mov	 DWORD PTR tv167[ebp], eax
  00103	8b f4		 mov	 esi, esp
  00105	8b 4d a8	 mov	 ecx, DWORD PTR tv167[ebp]
  00108	ff 15 00 00 00
	00		 call	 DWORD PTR __imp_?snextc@?$basic_streambuf@_WU?$char_traits@_W@std@@@std@@QAEGXZ
  0010e	3b f4		 cmp	 esi, esp
  00110	e8 00 00 00 00	 call	 __RTC_CheckEsp
  00115	66 89 45 a6	 mov	 WORD PTR tv168[ebp], ax
  00119	66 8b 45 a6	 mov	 ax, WORD PTR tv168[ebp]
  0011d	66 89 45 c4	 mov	 WORD PTR __Meta$186367[ebp], ax
$L186368:

; 492  : 			if (_Traits::eq_int_type(_Traits::eof(), _Meta))

  00121	8b f4		 mov	 esi, esp
  00123	ff 15 00 00 00
	00		 call	 DWORD PTR __imp_?eof@?$char_traits@_W@std@@SAGXZ
  00129	3b f4		 cmp	 esi, esp
  0012b	e8 00 00 00 00	 call	 __RTC_CheckEsp
  00130	66 89 45 a4	 mov	 WORD PTR tv169[ebp], ax
  00134	66 8b 4d a4	 mov	 cx, WORD PTR tv169[ebp]
  00138	66 89 4d be	 mov	 WORD PTR $T189305[ebp], cx
  0013c	8b f4		 mov	 esi, esp
  0013e	8d 55 c4	 lea	 edx, DWORD PTR __Meta$186367[ebp]
  00141	52		 push	 edx
  00142	8d 45 be	 lea	 eax, DWORD PTR $T189305[ebp]
  00145	50		 push	 eax
  00146	ff 15 00 00 00
	00		 call	 DWORD PTR __imp_?eq_int_type@?$char_traits@_W@std@@SA_NABG0@Z
  0014c	83 c4 08	 add	 esp, 8
  0014f	3b f4		 cmp	 esi, esp
  00151	e8 00 00 00 00	 call	 __RTC_CheckEsp
  00156	88 45 a3	 mov	 BYTE PTR tv170[ebp], al
  00159	0f b6 4d a3	 movzx	 ecx, BYTE PTR tv170[ebp]
  0015d	85 c9		 test	 ecx, ecx
  0015f	74 0e		 je	 SHORT $L186372

; 493  : 				{	// end of file, quit
; 494  : 				_State |= ios_base::eofbit;

  00161	8b 55 ec	 mov	 edx, DWORD PTR __State$[ebp]
  00164	83 ca 01	 or	 edx, 1
  00167	89 55 ec	 mov	 DWORD PTR __State$[ebp], edx

; 495  : 				break;

  0016a	e9 d3 00 00 00	 jmp	 $L186370
$L186372:

; 496  : 				}
; 497  : 			else if (_Traits::eq_int_type(_Meta, _Metadelim))

  0016f	8b f4		 mov	 esi, esp
  00171	8d 45 d0	 lea	 eax, DWORD PTR __Metadelim$186366[ebp]
  00174	50		 push	 eax
  00175	8d 4d c4	 lea	 ecx, DWORD PTR __Meta$186367[ebp]
  00178	51		 push	 ecx
  00179	ff 15 00 00 00
	00		 call	 DWORD PTR __imp_?eq_int_type@?$char_traits@_W@std@@SA_NABG0@Z
  0017f	83 c4 08	 add	 esp, 8
  00182	3b f4		 cmp	 esi, esp
  00184	e8 00 00 00 00	 call	 __RTC_CheckEsp
  00189	88 45 a2	 mov	 BYTE PTR tv171[ebp], al
  0018c	0f b6 55 a2	 movzx	 edx, BYTE PTR tv171[ebp]
  00190	85 d2		 test	 edx, edx
  00192	74 37		 je	 SHORT $L186374

; 498  : 				{	// got a delimiter, discard it and quit
; 499  : 				_Changed = true;

  00194	c6 45 eb 01	 mov	 BYTE PTR __Changed$[ebp], 1

; 500  : 				_Istr.rdbuf()->sbumpc();

  00198	8b 45 08	 mov	 eax, DWORD PTR __Istr$[ebp]
  0019b	8b 08		 mov	 ecx, DWORD PTR [eax]
  0019d	8b 55 08	 mov	 edx, DWORD PTR __Istr$[ebp]
  001a0	03 51 04	 add	 edx, DWORD PTR [ecx+4]
  001a3	8b f4		 mov	 esi, esp
  001a5	8b ca		 mov	 ecx, edx
  001a7	ff 15 00 00 00
	00		 call	 DWORD PTR __imp_?rdbuf@?$basic_ios@_WU?$char_traits@_W@std@@@std@@QBEPAV?$basic_streambuf@_WU?$char_traits@_W@std@@@2@XZ
  001ad	3b f4		 cmp	 esi, esp
  001af	e8 00 00 00 00	 call	 __RTC_CheckEsp
  001b4	89 45 9c	 mov	 DWORD PTR tv172[ebp], eax
  001b7	8b f4		 mov	 esi, esp
  001b9	8b 4d 9c	 mov	 ecx, DWORD PTR tv172[ebp]
  001bc	ff 15 00 00 00
	00		 call	 DWORD PTR __imp_?sbumpc@?$basic_streambuf@_WU?$char_traits@_W@std@@@std@@QAEGXZ
  001c2	3b f4		 cmp	 esi, esp
  001c4	e8 00 00 00 00	 call	 __RTC_CheckEsp

; 501  : 				break;

  001c9	eb 77		 jmp	 SHORT $L186370
$L186374:

; 502  : 				}
; 503  : 			else if (_Str.max_size() <= _Str.size())

  001cb	8b f4		 mov	 esi, esp
  001cd	8b 4d 0c	 mov	 ecx, DWORD PTR __Str$[ebp]
  001d0	ff 15 00 00 00
	00		 call	 DWORD PTR __imp_?max_size@?$basic_string@_WU?$char_traits@_W@std@@V?$allocator@_W@2@@std@@QBEIXZ
  001d6	3b f4		 cmp	 esi, esp
  001d8	e8 00 00 00 00	 call	 __RTC_CheckEsp
  001dd	89 45 98	 mov	 DWORD PTR tv173[ebp], eax
  001e0	8b f4		 mov	 esi, esp
  001e2	8b 4d 0c	 mov	 ecx, DWORD PTR __Str$[ebp]
  001e5	ff 15 00 00 00
	00		 call	 DWORD PTR __imp_?size@?$basic_string@_WU?$char_traits@_W@std@@V?$allocator@_W@2@@std@@QBEIXZ
  001eb	3b f4		 cmp	 esi, esp
  001ed	e8 00 00 00 00	 call	 __RTC_CheckEsp
  001f2	89 45 94	 mov	 DWORD PTR tv174[ebp], eax
  001f5	8b 45 98	 mov	 eax, DWORD PTR tv173[ebp]
  001f8	3b 45 94	 cmp	 eax, DWORD PTR tv174[ebp]
  001fb	77 0b		 ja	 SHORT $L186376

; 504  : 				{	// string too large, quit
; 505  : 				_State |= ios_base::failbit;

  001fd	8b 4d ec	 mov	 ecx, DWORD PTR __State$[ebp]
  00200	83 c9 02	 or	 ecx, 2
  00203	89 4d ec	 mov	 DWORD PTR __State$[ebp], ecx

; 506  : 				break;

  00206	eb 3a		 jmp	 SHORT $L186370
$L186376:

; 507  : 				}
; 508  : 			else
; 509  : 				{	// got a character, add it to string
; 510  : 				_Str += _Traits::to_char_type(_Meta);

  00208	8b f4		 mov	 esi, esp
  0020a	8d 55 c4	 lea	 edx, DWORD PTR __Meta$186367[ebp]
  0020d	52		 push	 edx
  0020e	ff 15 00 00 00
	00		 call	 DWORD PTR __imp_?to_char_type@?$char_traits@_W@std@@SA_WABG@Z
  00214	83 c4 04	 add	 esp, 4
  00217	3b f4		 cmp	 esi, esp
  00219	e8 00 00 00 00	 call	 __RTC_CheckEsp
  0021e	66 89 45 92	 mov	 WORD PTR tv175[ebp], ax
  00222	8b f4		 mov	 esi, esp
  00224	66 8b 45 92	 mov	 ax, WORD PTR tv175[ebp]
  00228	50		 push	 eax
  00229	8b 4d 0c	 mov	 ecx, DWORD PTR __Str$[ebp]
  0022c	ff 15 00 00 00
	00		 call	 DWORD PTR __imp_??Y?$basic_string@_WU?$char_traits@_W@std@@V?$allocator@_W@2@@std@@QAEAAV01@_W@Z
  00232	3b f4		 cmp	 esi, esp
  00234	e8 00 00 00 00	 call	 __RTC_CheckEsp

; 511  : 				_Changed = true;

  00239	c6 45 eb 01	 mov	 BYTE PTR __Changed$[ebp], 1

; 512  : 				}

  0023d	e9 a4 fe ff ff	 jmp	 $L186369
$L186370:
  00242	eb 24		 jmp	 SHORT $L189307
$L189308:

; 513  : 		_CATCH_IO_(_Istr)

  00244	8b f4		 mov	 esi, esp
  00246	6a 01		 push	 1
  00248	6a 04		 push	 4
  0024a	8b 4d 08	 mov	 ecx, DWORD PTR __Istr$[ebp]
  0024d	8b 11		 mov	 edx, DWORD PTR [ecx]
  0024f	8b 4d 08	 mov	 ecx, DWORD PTR __Istr$[ebp]
  00252	03 4a 04	 add	 ecx, DWORD PTR [edx+4]
  00255	ff 15 00 00 00
	00		 call	 DWORD PTR __imp_?setstate@?$basic_ios@_WU?$char_traits@_W@std@@@std@@QAEXH_N@Z
  0025b	3b f4		 cmp	 esi, esp
  0025d	e8 00 00 00 00	 call	 __RTC_CheckEsp
  00262	b8 00 00 00 00	 mov	 eax, $L189307
  00267	c3		 ret	 0
$L189307:
  00268	c7 45 fc 00 00
	00 00		 mov	 DWORD PTR __$EHRec$[ebp+12], 0

; 514  : 		}
; 515  : 
; 516  : 	if (!_Changed)

  0026f	0f b6 45 eb	 movzx	 eax, BYTE PTR __Changed$[ebp]
  00273	85 c0		 test	 eax, eax
  00275	75 09		 jne	 SHORT $L186378

; 517  : 		_State |= ios_base::failbit;

  00277	8b 4d ec	 mov	 ecx, DWORD PTR __State$[ebp]
  0027a	83 c9 02	 or	 ecx, 2
  0027d	89 4d ec	 mov	 DWORD PTR __State$[ebp], ecx
$L186378:

; 518  : 	_Istr.setstate(_State);

  00280	8b f4		 mov	 esi, esp
  00282	6a 00		 push	 0
  00284	8b 55 ec	 mov	 edx, DWORD PTR __State$[ebp]
  00287	52		 push	 edx
  00288	8b 45 08	 mov	 eax, DWORD PTR __Istr$[ebp]
  0028b	8b 08		 mov	 ecx, DWORD PTR [eax]
  0028d	8b 55 08	 mov	 edx, DWORD PTR __Istr$[ebp]
  00290	03 51 04	 add	 edx, DWORD PTR [ecx+4]
  00293	8b ca		 mov	 ecx, edx
  00295	ff 15 00 00 00
	00		 call	 DWORD PTR __imp_?setstate@?$basic_ios@_WU?$char_traits@_W@std@@@std@@QAEXH_N@Z
  0029b	3b f4		 cmp	 esi, esp
  0029d	e8 00 00 00 00	 call	 __RTC_CheckEsp

; 519  : 	return (_Istr);

  002a2	8b 45 08	 mov	 eax, DWORD PTR __Istr$[ebp]
  002a5	89 45 b8	 mov	 DWORD PTR $T189306[ebp], eax
  002a8	c7 45 fc ff ff
	ff ff		 mov	 DWORD PTR __$EHRec$[ebp+12], -1
  002af	8d 4d dc	 lea	 ecx, DWORD PTR __Ok$[ebp]
  002b2	e8 00 00 00 00	 call	 ??1sentry@?$basic_istream@_WU?$char_traits@_W@std@@@std@@QAE@XZ
  002b7	8b 45 b8	 mov	 eax, DWORD PTR $T189306[ebp]

; 520  : 	}

  002ba	52		 push	 edx
  002bb	8b cd		 mov	 ecx, ebp
  002bd	50		 push	 eax
  002be	8d 15 00 00 00
	00		 lea	 edx, DWORD PTR $L189317
  002c4	e8 00 00 00 00	 call	 @_RTC_CheckStackVars@8
  002c9	58		 pop	 eax
  002ca	5a		 pop	 edx
  002cb	8b 4d f4	 mov	 ecx, DWORD PTR __$EHRec$[ebp+4]
  002ce	64 89 0d 00 00
	00 00		 mov	 DWORD PTR fs:__except_list, ecx
  002d5	5f		 pop	 edi
  002d6	5e		 pop	 esi
  002d7	5b		 pop	 ebx
  002d8	83 c4 70	 add	 esp, 112		; 00000070H
  002db	3b ec		 cmp	 ebp, esp
  002dd	e8 00 00 00 00	 call	 __RTC_CheckEsp
  002e2	8b e5		 mov	 esp, ebp
  002e4	5d		 pop	 ebp
  002e5	c3		 ret	 0
$L189317:
  002e6	03 00 00 00	 DD	 3
  002ea	00 00 00 00	 DD	 $L189316
$L189316:
  002ee	dc ff ff ff	 DD	 -36			; ffffffdcH
  002f2	08 00 00 00	 DD	 8
  002f6	00 00 00 00	 DD	 $L189312
  002fa	d0 ff ff ff	 DD	 -48			; ffffffd0H
  002fe	02 00 00 00	 DD	 2
  00302	00 00 00 00	 DD	 $L189313
  00306	c4 ff ff ff	 DD	 -60			; ffffffc4H
  0030a	02 00 00 00	 DD	 2
  0030e	00 00 00 00	 DD	 $L189314
$L189314:
  00312	5f		 DB	 95			; 0000005fH
  00313	4d		 DB	 77			; 0000004dH
  00314	65		 DB	 101			; 00000065H
  00315	74		 DB	 116			; 00000074H
  00316	61		 DB	 97			; 00000061H
  00317	00		 DB	 0
$L189313:
  00318	5f		 DB	 95			; 0000005fH
  00319	4d		 DB	 77			; 0000004dH
  0031a	65		 DB	 101			; 00000065H
  0031b	74		 DB	 116			; 00000074H
  0031c	61		 DB	 97			; 00000061H
  0031d	64		 DB	 100			; 00000064H
  0031e	65		 DB	 101			; 00000065H
  0031f	6c		 DB	 108			; 0000006cH
  00320	69		 DB	 105			; 00000069H
  00321	6d		 DB	 109			; 0000006dH
  00322	00		 DB	 0
$L189312:
  00323	5f		 DB	 95			; 0000005fH
  00324	4f		 DB	 79			; 0000004fH
  00325	6b		 DB	 107			; 0000006bH
  00326	00		 DB	 0
_TEXT	ENDS
;	COMDAT text$x
text$x	SEGMENT
$L189309:
  00000	8d 4d dc	 lea	 ecx, DWORD PTR __Ok$[ebp]
  00003	e9 00 00 00 00	 jmp	 ??1sentry@?$basic_istream@_WU?$char_traits@_W@std@@@std@@QAE@XZ
__ehhandler$??$getline@_WU?$char_traits@_W@std@@V?$allocator@_W@2@@std@@YAAAV?$basic_istream@_WU?$char_traits@_W@std@@@0@AAV10@AAV?$basic_string@_WU?$char_traits@_W@std@@V?$allocator@_W@2@@0@_W@Z:
  00008	b8 00 00 00 00	 mov	 eax, OFFSET FLAT:$T189311
  0000d	e9 00 00 00 00	 jmp	 ___CxxFrameHandler
text$x	ENDS
??$getline@_WU?$char_traits@_W@std@@V?$allocator@_W@2@@std@@YAAAV?$basic_istream@_WU?$char_traits@_W@std@@@0@AAV10@AAV?$basic_string@_WU?$char_traits@_W@std@@V?$allocator@_W@2@@0@_W@Z ENDP ; std::getline<wchar_t,std::char_traits<wchar_t>,std::allocator<wchar_t> >
PUBLIC	??1_Sentry_base@?$basic_istream@_WU?$char_traits@_W@std@@@std@@QAE@XZ ; std::basic_istream<wchar_t,std::char_traits<wchar_t> >::_Sentry_base::~_Sentry_base
; Function compile flags: /Odt /RTCsu
;	COMDAT ??1sentry@?$basic_istream@_WU?$char_traits@_W@std@@@std@@QAE@XZ
_TEXT	SEGMENT
_this$ = -4						; size = 4
??1sentry@?$basic_istream@_WU?$char_traits@_W@std@@@std@@QAE@XZ PROC NEAR ; std::basic_istream<wchar_t,std::char_traits<wchar_t> >::sentry::~sentry, COMDAT
; _this$ = ecx
  00000	55		 push	 ebp
  00001	8b ec		 mov	 ebp, esp
  00003	51		 push	 ecx
  00004	c7 45 fc cc cc
	cc cc		 mov	 DWORD PTR [ebp-4], -858993460 ; ccccccccH
  0000b	89 4d fc	 mov	 DWORD PTR _this$[ebp], ecx
  0000e	8b 4d fc	 mov	 ecx, DWORD PTR _this$[ebp]
  00011	e8 00 00 00 00	 call	 ??1_Sentry_base@?$basic_istream@_WU?$char_traits@_W@std@@@std@@QAE@XZ ; std::basic_istream<wchar_t,std::char_traits<wchar_t> >::_Sentry_base::~_Sentry_base
  00016	83 c4 04	 add	 esp, 4
  00019	3b ec		 cmp	 ebp, esp
  0001b	e8 00 00 00 00	 call	 __RTC_CheckEsp
  00020	8b e5		 mov	 esp, ebp
  00022	5d		 pop	 ebp
  00023	c3		 ret	 0
??1sentry@?$basic_istream@_WU?$char_traits@_W@std@@@std@@QAE@XZ ENDP ; std::basic_istream<wchar_t,std::char_traits<wchar_t> >::sentry::~sentry
_TEXT	ENDS
PUBLIC	??0_Sentry_base@?$basic_istream@_WU?$char_traits@_W@std@@@std@@QAE@AAV12@@Z ; std::basic_istream<wchar_t,std::char_traits<wchar_t> >::_Sentry_base::_Sentry_base
EXTRN	__imp_?_Ipfx@?$basic_istream@_WU?$char_traits@_W@std@@@std@@QAE_N_N@Z:NEAR
;	COMDAT xdata$x
; File d:\program files (x86)\microsoft visual studio .net 2003\vc7\include\istream
xdata$x	SEGMENT
$T189330 DD	0ffffffffH
	DD	FLAT:$L189326
$T189328 DD	019930520H
	DD	01H
	DD	FLAT:$T189330
	DD	2 DUP(00H)
	DD	2 DUP(00H)
; Function compile flags: /Odt /RTCsu
xdata$x	ENDS
;	COMDAT ??0sentry@?$basic_istream@_WU?$char_traits@_W@std@@@std@@QAE@AAV12@_N@Z
_TEXT	SEGMENT
_this$ = -16						; size = 4
__$EHRec$ = -12						; size = 12
__Istr$ = 8						; size = 4
__Noskip$ = 12						; size = 1
??0sentry@?$basic_istream@_WU?$char_traits@_W@std@@@std@@QAE@AAV12@_N@Z PROC NEAR ; std::basic_istream<wchar_t,std::char_traits<wchar_t> >::sentry::sentry, COMDAT
; _this$ = ecx

; 72   : 			{	// construct locking and calling _Ipfx

  00000	55		 push	 ebp
  00001	8b ec		 mov	 ebp, esp
  00003	6a ff		 push	 -1
  00005	68 00 00 00 00	 push	 __ehhandler$??0sentry@?$basic_istream@_WU?$char_traits@_W@std@@@std@@QAE@AAV12@_N@Z
  0000a	64 a1 00 00 00
	00		 mov	 eax, DWORD PTR fs:__except_list
  00010	50		 push	 eax
  00011	64 89 25 00 00
	00 00		 mov	 DWORD PTR fs:__except_list, esp
  00018	51		 push	 ecx
  00019	56		 push	 esi
  0001a	c7 45 f0 cc cc
	cc cc		 mov	 DWORD PTR [ebp-16], -858993460 ; ccccccccH
  00021	89 4d f0	 mov	 DWORD PTR _this$[ebp], ecx
  00024	8b 45 08	 mov	 eax, DWORD PTR __Istr$[ebp]
  00027	50		 push	 eax
  00028	8b 4d f0	 mov	 ecx, DWORD PTR _this$[ebp]
  0002b	e8 00 00 00 00	 call	 ??0_Sentry_base@?$basic_istream@_WU?$char_traits@_W@std@@@std@@QAE@AAV12@@Z ; std::basic_istream<wchar_t,std::char_traits<wchar_t> >::_Sentry_base::_Sentry_base
  00030	c7 45 fc 00 00
	00 00		 mov	 DWORD PTR __$EHRec$[ebp+8], 0

; 73   : 			_Ok = this->_Myistr._Ipfx(_Noskip);

  00037	8b f4		 mov	 esi, esp
  00039	8a 4d 0c	 mov	 cl, BYTE PTR __Noskip$[ebp]
  0003c	51		 push	 ecx
  0003d	8b 55 f0	 mov	 edx, DWORD PTR _this$[ebp]
  00040	8b 0a		 mov	 ecx, DWORD PTR [edx]
  00042	ff 15 00 00 00
	00		 call	 DWORD PTR __imp_?_Ipfx@?$basic_istream@_WU?$char_traits@_W@std@@@std@@QAE_N_N@Z
  00048	3b f4		 cmp	 esi, esp
  0004a	e8 00 00 00 00	 call	 __RTC_CheckEsp
  0004f	8b 4d f0	 mov	 ecx, DWORD PTR _this$[ebp]
  00052	88 41 04	 mov	 BYTE PTR [ecx+4], al

; 74   : 			}

  00055	c7 45 fc ff ff
	ff ff		 mov	 DWORD PTR __$EHRec$[ebp+8], -1
  0005c	8b 45 f0	 mov	 eax, DWORD PTR _this$[ebp]
  0005f	8b 4d f4	 mov	 ecx, DWORD PTR __$EHRec$[ebp]
  00062	64 89 0d 00 00
	00 00		 mov	 DWORD PTR fs:__except_list, ecx
  00069	5e		 pop	 esi
  0006a	83 c4 10	 add	 esp, 16			; 00000010H
  0006d	3b ec		 cmp	 ebp, esp
  0006f	e8 00 00 00 00	 call	 __RTC_CheckEsp
  00074	8b e5		 mov	 esp, ebp
  00076	5d		 pop	 ebp
  00077	c2 08 00	 ret	 8
_TEXT	ENDS
;	COMDAT text$x
text$x	SEGMENT
$L189326:
  00000	8b 4d f0	 mov	 ecx, DWORD PTR _this$[ebp]
  00003	e9 00 00 00 00	 jmp	 ??1_Sentry_base@?$basic_istream@_WU?$char_traits@_W@std@@@std@@QAE@XZ ; std::basic_istream<wchar_t,std::char_traits<wchar_t> >::_Sentry_base::~_Sentry_base
__ehhandler$??0sentry@?$basic_istream@_WU?$char_traits@_W@std@@@std@@QAE@AAV12@_N@Z:
  00008	b8 00 00 00 00	 mov	 eax, OFFSET FLAT:$T189328
  0000d	e9 00 00 00 00	 jmp	 ___CxxFrameHandler
text$x	ENDS
??0sentry@?$basic_istream@_WU?$char_traits@_W@std@@@std@@QAE@AAV12@_N@Z ENDP ; std::basic_istream<wchar_t,std::char_traits<wchar_t> >::sentry::sentry
; Function compile flags: /Odt /RTCsu
;	COMDAT ??Bsentry@?$basic_istream@_WU?$char_traits@_W@std@@@std@@QBE_NXZ
_TEXT	SEGMENT
_this$ = -4						; size = 4
??Bsentry@?$basic_istream@_WU?$char_traits@_W@std@@@std@@QBE_NXZ PROC NEAR ; std::basic_istream<wchar_t,std::char_traits<wchar_t> >::sentry::operator bool, COMDAT
; _this$ = ecx

; 77   : 			{	// test if _Ipfx succeeded

  00000	55		 push	 ebp
  00001	8b ec		 mov	 ebp, esp
  00003	51		 push	 ecx
  00004	c7 45 fc cc cc
	cc cc		 mov	 DWORD PTR [ebp-4], -858993460 ; ccccccccH
  0000b	89 4d fc	 mov	 DWORD PTR _this$[ebp], ecx

; 78   : 			return (_Ok);

  0000e	8b 45 fc	 mov	 eax, DWORD PTR _this$[ebp]
  00011	8a 40 04	 mov	 al, BYTE PTR [eax+4]

; 79   : 			}

  00014	8b e5		 mov	 esp, ebp
  00016	5d		 pop	 ebp
  00017	c3		 ret	 0
??Bsentry@?$basic_istream@_WU?$char_traits@_W@std@@@std@@QBE_NXZ ENDP ; std::basic_istream<wchar_t,std::char_traits<wchar_t> >::sentry::operator bool
_TEXT	ENDS
EXTRN	__imp_?_Unlock@?$basic_streambuf@_WU?$char_traits@_W@std@@@std@@QAEXXZ:NEAR
; Function compile flags: /Odt /RTCsu
;	COMDAT ??1_Sentry_base@?$basic_istream@_WU?$char_traits@_W@std@@@std@@QAE@XZ
_TEXT	SEGMENT
_this$ = -4						; size = 4
??1_Sentry_base@?$basic_istream@_WU?$char_traits@_W@std@@@std@@QAE@XZ PROC NEAR ; std::basic_istream<wchar_t,std::char_traits<wchar_t> >::_Sentry_base::~_Sentry_base, COMDAT
; _this$ = ecx

; 58   : 			{	// destroy after unlocking

  00000	55		 push	 ebp
  00001	8b ec		 mov	 ebp, esp
  00003	51		 push	 ecx
  00004	56		 push	 esi
  00005	c7 45 fc cc cc
	cc cc		 mov	 DWORD PTR [ebp-4], -858993460 ; ccccccccH
  0000c	89 4d fc	 mov	 DWORD PTR _this$[ebp], ecx

; 59   : 			if (_Myistr.rdbuf() != 0)

  0000f	8b 45 fc	 mov	 eax, DWORD PTR _this$[ebp]
  00012	8b 08		 mov	 ecx, DWORD PTR [eax]
  00014	8b 11		 mov	 edx, DWORD PTR [ecx]
  00016	8b 45 fc	 mov	 eax, DWORD PTR _this$[ebp]
  00019	8b 08		 mov	 ecx, DWORD PTR [eax]
  0001b	03 4a 04	 add	 ecx, DWORD PTR [edx+4]
  0001e	8b f4		 mov	 esi, esp
  00020	ff 15 00 00 00
	00		 call	 DWORD PTR __imp_?rdbuf@?$basic_ios@_WU?$char_traits@_W@std@@@std@@QBEPAV?$basic_streambuf@_WU?$char_traits@_W@std@@@2@XZ
  00026	3b f4		 cmp	 esi, esp
  00028	e8 00 00 00 00	 call	 __RTC_CheckEsp
  0002d	85 c0		 test	 eax, eax
  0002f	74 2f		 je	 SHORT $L182952

; 60   : 				_Myistr.rdbuf()->_Unlock();

  00031	8b 4d fc	 mov	 ecx, DWORD PTR _this$[ebp]
  00034	8b 11		 mov	 edx, DWORD PTR [ecx]
  00036	8b 02		 mov	 eax, DWORD PTR [edx]
  00038	8b 4d fc	 mov	 ecx, DWORD PTR _this$[ebp]
  0003b	8b 09		 mov	 ecx, DWORD PTR [ecx]
  0003d	03 48 04	 add	 ecx, DWORD PTR [eax+4]
  00040	8b f4		 mov	 esi, esp
  00042	ff 15 00 00 00
	00		 call	 DWORD PTR __imp_?rdbuf@?$basic_ios@_WU?$char_traits@_W@std@@@std@@QBEPAV?$basic_streambuf@_WU?$char_traits@_W@std@@@2@XZ
  00048	3b f4		 cmp	 esi, esp
  0004a	e8 00 00 00 00	 call	 __RTC_CheckEsp
  0004f	8b f4		 mov	 esi, esp
  00051	8b c8		 mov	 ecx, eax
  00053	ff 15 00 00 00
	00		 call	 DWORD PTR __imp_?_Unlock@?$basic_streambuf@_WU?$char_traits@_W@std@@@std@@QAEXXZ
  00059	3b f4		 cmp	 esi, esp
  0005b	e8 00 00 00 00	 call	 __RTC_CheckEsp
$L182952:

; 61   : 			}

  00060	5e		 pop	 esi
  00061	83 c4 04	 add	 esp, 4
  00064	3b ec		 cmp	 ebp, esp
  00066	e8 00 00 00 00	 call	 __RTC_CheckEsp
  0006b	8b e5		 mov	 esp, ebp
  0006d	5d		 pop	 ebp
  0006e	c3		 ret	 0
??1_Sentry_base@?$basic_istream@_WU?$char_traits@_W@std@@@std@@QAE@XZ ENDP ; std::basic_istream<wchar_t,std::char_traits<wchar_t> >::_Sentry_base::~_Sentry_base
_TEXT	ENDS
EXTRN	__imp_?_Lock@?$basic_streambuf@_WU?$char_traits@_W@std@@@std@@QAEXXZ:NEAR
; Function compile flags: /Odt /RTCsu
;	COMDAT ??0_Sentry_base@?$basic_istream@_WU?$char_traits@_W@std@@@std@@QAE@AAV12@@Z
_TEXT	SEGMENT
_this$ = -4						; size = 4
__Istr$ = 8						; size = 4
??0_Sentry_base@?$basic_istream@_WU?$char_traits@_W@std@@@std@@QAE@AAV12@@Z PROC NEAR ; std::basic_istream<wchar_t,std::char_traits<wchar_t> >::_Sentry_base::_Sentry_base, COMDAT
; _this$ = ecx

; 52   : 			{	// lock the stream buffer, if there

  00000	55		 push	 ebp
  00001	8b ec		 mov	 ebp, esp
  00003	51		 push	 ecx
  00004	56		 push	 esi
  00005	c7 45 fc cc cc
	cc cc		 mov	 DWORD PTR [ebp-4], -858993460 ; ccccccccH
  0000c	89 4d fc	 mov	 DWORD PTR _this$[ebp], ecx
  0000f	8b 45 fc	 mov	 eax, DWORD PTR _this$[ebp]
  00012	8b 4d 08	 mov	 ecx, DWORD PTR __Istr$[ebp]
  00015	89 08		 mov	 DWORD PTR [eax], ecx

; 53   : 			if (_Myistr.rdbuf() != 0)

  00017	8b 55 fc	 mov	 edx, DWORD PTR _this$[ebp]
  0001a	8b 02		 mov	 eax, DWORD PTR [edx]
  0001c	8b 08		 mov	 ecx, DWORD PTR [eax]
  0001e	8b 55 fc	 mov	 edx, DWORD PTR _this$[ebp]
  00021	8b 02		 mov	 eax, DWORD PTR [edx]
  00023	03 41 04	 add	 eax, DWORD PTR [ecx+4]
  00026	8b f4		 mov	 esi, esp
  00028	8b c8		 mov	 ecx, eax
  0002a	ff 15 00 00 00
	00		 call	 DWORD PTR __imp_?rdbuf@?$basic_ios@_WU?$char_traits@_W@std@@@std@@QBEPAV?$basic_streambuf@_WU?$char_traits@_W@std@@@2@XZ
  00030	3b f4		 cmp	 esi, esp
  00032	e8 00 00 00 00	 call	 __RTC_CheckEsp
  00037	85 c0		 test	 eax, eax
  00039	74 2f		 je	 SHORT $L184382

; 54   : 				_Myistr.rdbuf()->_Lock();

  0003b	8b 4d fc	 mov	 ecx, DWORD PTR _this$[ebp]
  0003e	8b 11		 mov	 edx, DWORD PTR [ecx]
  00040	8b 02		 mov	 eax, DWORD PTR [edx]
  00042	8b 4d fc	 mov	 ecx, DWORD PTR _this$[ebp]
  00045	8b 09		 mov	 ecx, DWORD PTR [ecx]
  00047	03 48 04	 add	 ecx, DWORD PTR [eax+4]
  0004a	8b f4		 mov	 esi, esp
  0004c	ff 15 00 00 00
	00		 call	 DWORD PTR __imp_?rdbuf@?$basic_ios@_WU?$char_traits@_W@std@@@std@@QBEPAV?$basic_streambuf@_WU?$char_traits@_W@std@@@2@XZ
  00052	3b f4		 cmp	 esi, esp
  00054	e8 00 00 00 00	 call	 __RTC_CheckEsp
  00059	8b f4		 mov	 esi, esp
  0005b	8b c8		 mov	 ecx, eax
  0005d	ff 15 00 00 00
	00		 call	 DWORD PTR __imp_?_Lock@?$basic_streambuf@_WU?$char_traits@_W@std@@@std@@QAEXXZ
  00063	3b f4		 cmp	 esi, esp
  00065	e8 00 00 00 00	 call	 __RTC_CheckEsp
$L184382:

; 55   : 			}

  0006a	8b 45 fc	 mov	 eax, DWORD PTR _this$[ebp]
  0006d	5e		 pop	 esi
  0006e	83 c4 04	 add	 esp, 4
  00071	3b ec		 cmp	 ebp, esp
  00073	e8 00 00 00 00	 call	 __RTC_CheckEsp
  00078	8b e5		 mov	 esp, ebp
  0007a	5d		 pop	 ebp
  0007b	c2 04 00	 ret	 4
??0_Sentry_base@?$basic_istream@_WU?$char_traits@_W@std@@@std@@QAE@AAV12@@Z ENDP ; std::basic_istream<wchar_t,std::char_traits<wchar_t> >::_Sentry_base::_Sentry_base
_TEXT	ENDS
END
