; Listing generated by Microsoft (R) Optimizing Compiler Version 13.10.3077 

	TITLE	\boxgit\PlayBox\CommonLib\common\YL_DirInfo.cpp
	.386P
include listing.inc
if @Version gt 510
.model FLAT
else
_TEXT	SEGMENT PARA USE32 PUBLIC 'CODE'
_TEXT	ENDS
_DATA	SEGMENT DWORD USE32 PUBLIC 'DATA'
_DATA	ENDS
CONST	SEGMENT DWORD USE32 PUBLIC 'CONST'
CONST	ENDS
_BSS	SEGMENT DWORD USE32 PUBLIC 'BSS'
_BSS	ENDS
$$SYMBOLS	SEGMENT BYTE USE32 'DEBSYM'
$$SYMBOLS	ENDS
_TLS	SEGMENT DWORD USE32 PUBLIC 'TLS'
_TLS	ENDS
;	COMDAT ??_C@_0FG@EOHGAEB@?3Sun?3Sunday?3Mon?3Monday?3Tue?3Tuesd@
CONST	SEGMENT DWORD USE32 PUBLIC 'CONST'
CONST	ENDS
;	COMDAT ??_C@_0IH@HPGJLCCK@?3Jan?3January?3Feb?3February?3Mar?3Ma@
CONST	SEGMENT DWORD USE32 PUBLIC 'CONST'
CONST	ENDS
;	COMDAT ??_C@_05LAPONLG@false?$AA@
CONST	SEGMENT DWORD USE32 PUBLIC 'CONST'
CONST	ENDS
;	COMDAT ??_C@_04LOAJBDKD@true?$AA@
CONST	SEGMENT DWORD USE32 PUBLIC 'CONST'
CONST	ENDS
;	COMDAT ??_C@_0EN@CBMLGOH@D?3?2Program?5Files?5?$CIx86?$CJ?2Microsoft@
CONST	SEGMENT DWORD USE32 PUBLIC 'CONST'
CONST	ENDS
;	COMDAT ??_C@_01GFHCPBMG@C?$AA@
CONST	SEGMENT DWORD USE32 PUBLIC 'CONST'
CONST	ENDS
;	COMDAT ??_C@_02EAOCLKAK@ld?$AA@
CONST	SEGMENT DWORD USE32 PUBLIC 'CONST'
CONST	ENDS
;	COMDAT ??_C@_02BDDLJJBK@lu?$AA@
CONST	SEGMENT DWORD USE32 PUBLIC 'CONST'
CONST	ENDS
;	COMDAT ??_C@_02HIKPPMOK@Ld?$AA@
CONST	SEGMENT DWORD USE32 PUBLIC 'CONST'
CONST	ENDS
;	COMDAT ??_C@_02CLHGNPPK@Lu?$AA@
CONST	SEGMENT DWORD USE32 PUBLIC 'CONST'
CONST	ENDS
;	COMDAT ??_C@_02BBAHNLBA@?$CFp?$AA@
CONST	SEGMENT DWORD USE32 PUBLIC 'CONST'
CONST	ENDS
;	COMDAT ??_C@_0BH@HHDGIIFB@0123456789abcdefABCDEF?$AA@
CONST	SEGMENT DWORD USE32 PUBLIC 'CONST'
CONST	ENDS
;	COMDAT ??_C@_01DDCIFGEA@E?$AA@
CONST	SEGMENT DWORD USE32 PUBLIC 'CONST'
CONST	ENDS
;	COMDAT ??_C@_01KGKMHCOC@e?$AA@
CONST	SEGMENT DWORD USE32 PUBLIC 'CONST'
CONST	ENDS
;	COMDAT ??_C@_0BD@OLBABOEK@vector?$DMT?$DO?5too?5long?$AA@
CONST	SEGMENT DWORD USE32 PUBLIC 'CONST'
CONST	ENDS
;	COMDAT ??_C@_0EM@KKHJFHNK@D?3?2Program?5Files?5?$CIx86?$CJ?2Microsoft@
CONST	SEGMENT DWORD USE32 PUBLIC 'CONST'
CONST	ENDS
;	COMDAT ??_C@_08EPJLHIJG@bad?5cast?$AA@
CONST	SEGMENT DWORD USE32 PUBLIC 'CONST'
CONST	ENDS
;	COMDAT ??_C@_0EN@IBFBLEEG@D?3?2Program?5Files?5?$CIx86?$CJ?2Microsoft@
CONST	SEGMENT DWORD USE32 PUBLIC 'CONST'
CONST	ENDS
rdata$r	SEGMENT DWORD USE32 PUBLIC 'CONST'
rdata$r	ENDS
xdata$x	SEGMENT DWORD USE32 PUBLIC 'CONST'
xdata$x	ENDS
;	COMDAT _IsEqualGUID
_TEXT	SEGMENT PARA USE32 PUBLIC 'CODE'
_TEXT	ENDS
;	COMDAT _==
_TEXT	SEGMENT PARA USE32 PUBLIC 'CODE'
_TEXT	ENDS
;	COMDAT ??1bad_exception@std@@UAE@XZ
_TEXT	SEGMENT PARA USE32 PUBLIC 'CODE'
_TEXT	ENDS
;	COMDAT ??_Gbad_exception@std@@UAEPAXI@Z
_TEXT	SEGMENT PARA USE32 PUBLIC 'CODE'
_TEXT	ENDS
;	COMDAT ??1bad_alloc@std@@UAE@XZ
_TEXT	SEGMENT PARA USE32 PUBLIC 'CODE'
_TEXT	ENDS
;	COMDAT ??_Gbad_alloc@std@@UAEPAXI@Z
_TEXT	SEGMENT PARA USE32 PUBLIC 'CODE'
_TEXT	ENDS
;	COMDAT ??2@YAPAXIPAX@Z
_TEXT	SEGMENT PARA USE32 PUBLIC 'CODE'
_TEXT	ENDS
;	COMDAT ??3@YAXPAX0@Z
_TEXT	SEGMENT PARA USE32 PUBLIC 'CODE'
_TEXT	ENDS
;	COMDAT _wmemchr
_TEXT	SEGMENT PARA USE32 PUBLIC 'CODE'
_TEXT	ENDS
;	COMDAT _wmemcmp
_TEXT	SEGMENT PARA USE32 PUBLIC 'CODE'
_TEXT	ENDS
;	COMDAT _wmemcpy
_TEXT	SEGMENT PARA USE32 PUBLIC 'CODE'
_TEXT	ENDS
;	COMDAT _wmemmove
_TEXT	SEGMENT PARA USE32 PUBLIC 'CODE'
_TEXT	ENDS
;	COMDAT _wmemset
_TEXT	SEGMENT PARA USE32 PUBLIC 'CODE'
_TEXT	ENDS
;	COMDAT ??0logic_error@std@@QAE@ABV?$basic_string@DU?$char_traits@D@std@@V?$allocator@D@2@@1@@Z
_TEXT	SEGMENT PARA USE32 PUBLIC 'CODE'
_TEXT	ENDS
;	COMDAT ??1logic_error@std@@UAE@XZ
_TEXT	SEGMENT PARA USE32 PUBLIC 'CODE'
_TEXT	ENDS
;	COMDAT ?what@logic_error@std@@UBEPBDXZ
_TEXT	SEGMENT PARA USE32 PUBLIC 'CODE'
_TEXT	ENDS
;	COMDAT ??_Glogic_error@std@@UAEPAXI@Z
_TEXT	SEGMENT PARA USE32 PUBLIC 'CODE'
_TEXT	ENDS
;	COMDAT ??1domain_error@std@@UAE@XZ
_TEXT	SEGMENT PARA USE32 PUBLIC 'CODE'
_TEXT	ENDS
;	COMDAT ??_Gdomain_error@std@@UAEPAXI@Z
_TEXT	SEGMENT PARA USE32 PUBLIC 'CODE'
_TEXT	ENDS
;	COMDAT ??1invalid_argument@std@@UAE@XZ
_TEXT	SEGMENT PARA USE32 PUBLIC 'CODE'
_TEXT	ENDS
;	COMDAT ??_Ginvalid_argument@std@@UAEPAXI@Z
_TEXT	SEGMENT PARA USE32 PUBLIC 'CODE'
_TEXT	ENDS
;	COMDAT ??0length_error@std@@QAE@ABV?$basic_string@DU?$char_traits@D@std@@V?$allocator@D@2@@1@@Z
_TEXT	SEGMENT PARA USE32 PUBLIC 'CODE'
_TEXT	ENDS
;	COMDAT ??1length_error@std@@UAE@XZ
_TEXT	SEGMENT PARA USE32 PUBLIC 'CODE'
_TEXT	ENDS
;	COMDAT ??_Glength_error@std@@UAEPAXI@Z
_TEXT	SEGMENT PARA USE32 PUBLIC 'CODE'
_TEXT	ENDS
;	COMDAT ??1out_of_range@std@@UAE@XZ
_TEXT	SEGMENT PARA USE32 PUBLIC 'CODE'
_TEXT	ENDS
;	COMDAT ??_Gout_of_range@std@@UAEPAXI@Z
_TEXT	SEGMENT PARA USE32 PUBLIC 'CODE'
_TEXT	ENDS
;	COMDAT ??0runtime_error@std@@QAE@ABV?$basic_string@DU?$char_traits@D@std@@V?$allocator@D@2@@1@@Z
_TEXT	SEGMENT PARA USE32 PUBLIC 'CODE'
_TEXT	ENDS
;	COMDAT ??1runtime_error@std@@UAE@XZ
_TEXT	SEGMENT PARA USE32 PUBLIC 'CODE'
_TEXT	ENDS
;	COMDAT ?what@runtime_error@std@@UBEPBDXZ
_TEXT	SEGMENT PARA USE32 PUBLIC 'CODE'
_TEXT	ENDS
;	COMDAT ??_Gruntime_error@std@@UAEPAXI@Z
_TEXT	SEGMENT PARA USE32 PUBLIC 'CODE'
_TEXT	ENDS
;	COMDAT ??1overflow_error@std@@UAE@XZ
_TEXT	SEGMENT PARA USE32 PUBLIC 'CODE'
_TEXT	ENDS
;	COMDAT ??_Goverflow_error@std@@UAEPAXI@Z
_TEXT	SEGMENT PARA USE32 PUBLIC 'CODE'
_TEXT	ENDS
;	COMDAT ??1underflow_error@std@@UAE@XZ
_TEXT	SEGMENT PARA USE32 PUBLIC 'CODE'
_TEXT	ENDS
;	COMDAT ??_Gunderflow_error@std@@UAEPAXI@Z
_TEXT	SEGMENT PARA USE32 PUBLIC 'CODE'
_TEXT	ENDS
;	COMDAT ??1range_error@std@@UAE@XZ
_TEXT	SEGMENT PARA USE32 PUBLIC 'CODE'
_TEXT	ENDS
;	COMDAT ??_Grange_error@std@@UAEPAXI@Z
_TEXT	SEGMENT PARA USE32 PUBLIC 'CODE'
_TEXT	ENDS
;	COMDAT ??B_DebugHeapString@std@@QBE?AV?$basic_string@DU?$char_traits@D@std@@V?$allocator@D@2@@1@XZ
_TEXT	SEGMENT PARA USE32 PUBLIC 'CODE'
_TEXT	ENDS
;	COMDAT ??$_Maklocbyte@_W@std@@YAD_WABU_Cvtvec@@@Z
_TEXT	SEGMENT PARA USE32 PUBLIC 'CODE'
_TEXT	ENDS
;	COMDAT ??$_Maklocchr@_W@std@@YA_WDPA_WABU_Cvtvec@@@Z
_TEXT	SEGMENT PARA USE32 PUBLIC 'CODE'
_TEXT	ENDS
;	COMDAT ??$_Maklocstr@_W@std@@YAPA_WPBDPA_WABU_Cvtvec@@@Z
_TEXT	SEGMENT PARA USE32 PUBLIC 'CODE'
_TEXT	ENDS
;	COMDAT ??_G?$codecvt@_WDH@std@@MAEPAXI@Z
_TEXT	SEGMENT PARA USE32 PUBLIC 'CODE'
_TEXT	ENDS
;	COMDAT ??_G?$ctype@D@std@@MAEPAXI@Z
_TEXT	SEGMENT PARA USE32 PUBLIC 'CODE'
_TEXT	ENDS
;	COMDAT ??_G?$ctype@_W@std@@MAEPAXI@Z
_TEXT	SEGMENT PARA USE32 PUBLIC 'CODE'
_TEXT	ENDS
;	COMDAT ??1failure@ios_base@std@@UAE@XZ
_TEXT	SEGMENT PARA USE32 PUBLIC 'CODE'
_TEXT	ENDS
;	COMDAT ??_Gfailure@ios_base@std@@UAEPAXI@Z
_TEXT	SEGMENT PARA USE32 PUBLIC 'CODE'
_TEXT	ENDS
;	COMDAT ??1sentry@?$basic_istream@DU?$char_traits@D@std@@@std@@QAE@XZ
_TEXT	SEGMENT PARA USE32 PUBLIC 'CODE'
_TEXT	ENDS
;	COMDAT ??1sentry@?$basic_istream@_WU?$char_traits@_W@std@@@std@@QAE@XZ
_TEXT	SEGMENT PARA USE32 PUBLIC 'CODE'
_TEXT	ENDS
;	COMDAT ??0?$allocator@D@std@@QAE@XZ
_TEXT	SEGMENT PARA USE32 PUBLIC 'CODE'
_TEXT	ENDS
;	COMDAT ??0?$allocator@D@std@@QAE@ABV01@@Z
_TEXT	SEGMENT PARA USE32 PUBLIC 'CODE'
_TEXT	ENDS
;	COMDAT ??0?$allocator@_W@std@@QAE@XZ
_TEXT	SEGMENT PARA USE32 PUBLIC 'CODE'
_TEXT	ENDS
;	COMDAT ??0?$allocator@_W@std@@QAE@ABV01@@Z
_TEXT	SEGMENT PARA USE32 PUBLIC 'CODE'
_TEXT	ENDS
;	COMDAT ??0?$basic_string@DU?$char_traits@D@std@@V?$_DebugHeapAllocator@D@2@@std@@QAE@XZ
_TEXT	SEGMENT PARA USE32 PUBLIC 'CODE'
_TEXT	ENDS
;	COMDAT ??0?$basic_string@DU?$char_traits@D@std@@V?$_DebugHeapAllocator@D@2@@std@@QAE@ABV01@@Z
_TEXT	SEGMENT PARA USE32 PUBLIC 'CODE'
_TEXT	ENDS
;	COMDAT ??0?$basic_string@DU?$char_traits@D@std@@V?$_DebugHeapAllocator@D@2@@std@@QAE@PBD@Z
_TEXT	SEGMENT PARA USE32 PUBLIC 'CODE'
_TEXT	ENDS
;	COMDAT ??1?$basic_string@DU?$char_traits@D@std@@V?$_DebugHeapAllocator@D@2@@std@@QAE@XZ
_TEXT	SEGMENT PARA USE32 PUBLIC 'CODE'
_TEXT	ENDS
;	COMDAT ?c_str@?$basic_string@DU?$char_traits@D@std@@V?$_DebugHeapAllocator@D@2@@std@@QBEPBDXZ
_TEXT	SEGMENT PARA USE32 PUBLIC 'CODE'
_TEXT	ENDS
;	COMDAT ??0sentry@?$basic_istream@DU?$char_traits@D@std@@@std@@QAE@AAV12@_N@Z
_TEXT	SEGMENT PARA USE32 PUBLIC 'CODE'
_TEXT	ENDS
;	COMDAT ??Bsentry@?$basic_istream@DU?$char_traits@D@std@@@std@@QBE_NXZ
_TEXT	SEGMENT PARA USE32 PUBLIC 'CODE'
_TEXT	ENDS
;	COMDAT ??1_Sentry_base@?$basic_istream@DU?$char_traits@D@std@@@std@@QAE@XZ
_TEXT	SEGMENT PARA USE32 PUBLIC 'CODE'
_TEXT	ENDS
;	COMDAT ??0sentry@?$basic_istream@_WU?$char_traits@_W@std@@@std@@QAE@AAV12@_N@Z
_TEXT	SEGMENT PARA USE32 PUBLIC 'CODE'
_TEXT	ENDS
;	COMDAT ??Bsentry@?$basic_istream@_WU?$char_traits@_W@std@@@std@@QBE_NXZ
_TEXT	SEGMENT PARA USE32 PUBLIC 'CODE'
_TEXT	ENDS
;	COMDAT ??1_Sentry_base@?$basic_istream@_WU?$char_traits@_W@std@@@std@@QAE@XZ
_TEXT	SEGMENT PARA USE32 PUBLIC 'CODE'
_TEXT	ENDS
;	COMDAT ??0?$vector@V?$basic_string@DU?$char_traits@D@std@@V?$allocator@D@2@@std@@V?$allocator@V?$basic_string@DU?$char_traits@D@std@@V?$allocator@D@2@@std@@@2@@std@@QAE@XZ
_TEXT	SEGMENT PARA USE32 PUBLIC 'CODE'
_TEXT	ENDS
;	COMDAT ??1?$vector@V?$basic_string@DU?$char_traits@D@std@@V?$allocator@D@2@@std@@V?$allocator@V?$basic_string@DU?$char_traits@D@std@@V?$allocator@D@2@@std@@@2@@std@@QAE@XZ
_TEXT	SEGMENT PARA USE32 PUBLIC 'CODE'
_TEXT	ENDS
;	COMDAT ?begin@?$vector@V?$basic_string@DU?$char_traits@D@std@@V?$allocator@D@2@@std@@V?$allocator@V?$basic_string@DU?$char_traits@D@std@@V?$allocator@D@2@@std@@@2@@std@@QAE?AViterator@12@XZ
_TEXT	SEGMENT PARA USE32 PUBLIC 'CODE'
_TEXT	ENDS
;	COMDAT ?end@?$vector@V?$basic_string@DU?$char_traits@D@std@@V?$allocator@D@2@@std@@V?$allocator@V?$basic_string@DU?$char_traits@D@std@@V?$allocator@D@2@@std@@@2@@std@@QAE?AViterator@12@XZ
_TEXT	SEGMENT PARA USE32 PUBLIC 'CODE'
_TEXT	ENDS
;	COMDAT ?size@?$vector@V?$basic_string@DU?$char_traits@D@std@@V?$allocator@D@2@@std@@V?$allocator@V?$basic_string@DU?$char_traits@D@std@@V?$allocator@D@2@@std@@@2@@std@@QBEIXZ
_TEXT	SEGMENT PARA USE32 PUBLIC 'CODE'
_TEXT	ENDS
;	COMDAT ??A?$vector@V?$basic_string@DU?$char_traits@D@std@@V?$allocator@D@2@@std@@V?$allocator@V?$basic_string@DU?$char_traits@D@std@@V?$allocator@D@2@@std@@@2@@std@@QBEABV?$basic_string@DU?$char_traits@D@std@@V?$allocator@D@2@@1@I@Z
_TEXT	SEGMENT PARA USE32 PUBLIC 'CODE'
_TEXT	ENDS
;	COMDAT ??A?$vector@V?$basic_string@DU?$char_traits@D@std@@V?$allocator@D@2@@std@@V?$allocator@V?$basic_string@DU?$char_traits@D@std@@V?$allocator@D@2@@std@@@2@@std@@QAEAAV?$basic_string@DU?$char_traits@D@std@@V?$allocator@D@2@@1@I@Z
_TEXT	SEGMENT PARA USE32 PUBLIC 'CODE'
_TEXT	ENDS
;	COMDAT ?push_back@?$vector@V?$basic_string@DU?$char_traits@D@std@@V?$allocator@D@2@@std@@V?$allocator@V?$basic_string@DU?$char_traits@D@std@@V?$allocator@D@2@@std@@@2@@std@@QAEXABV?$basic_string@DU?$char_traits@D@std@@V?$allocator@D@2@@2@@Z
_TEXT	SEGMENT PARA USE32 PUBLIC 'CODE'
_TEXT	ENDS
;	COMDAT ??Diterator@?$vector@V?$basic_string@DU?$char_traits@D@std@@V?$allocator@D@2@@std@@V?$allocator@V?$basic_string@DU?$char_traits@D@std@@V?$allocator@D@2@@std@@@2@@std@@QBEAAV?$basic_string@DU?$char_traits@D@std@@V?$allocator@D@2@@2@XZ
_TEXT	SEGMENT PARA USE32 PUBLIC 'CODE'
_TEXT	ENDS
;	COMDAT ??Citerator@?$vector@V?$basic_string@DU?$char_traits@D@std@@V?$allocator@D@2@@std@@V?$allocator@V?$basic_string@DU?$char_traits@D@std@@V?$allocator@D@2@@std@@@2@@std@@QBEPAV?$basic_string@DU?$char_traits@D@std@@V?$allocator@D@2@@2@XZ
_TEXT	SEGMENT PARA USE32 PUBLIC 'CODE'
_TEXT	ENDS
;	COMDAT ??Eiterator@?$vector@V?$basic_string@DU?$char_traits@D@std@@V?$allocator@D@2@@std@@V?$allocator@V?$basic_string@DU?$char_traits@D@std@@V?$allocator@D@2@@std@@@2@@std@@QAE?AV012@H@Z
_TEXT	SEGMENT PARA USE32 PUBLIC 'CODE'
_TEXT	ENDS
;	COMDAT ??9const_iterator@?$vector@V?$basic_string@DU?$char_traits@D@std@@V?$allocator@D@2@@std@@V?$allocator@V?$basic_string@DU?$char_traits@D@std@@V?$allocator@D@2@@std@@@2@@std@@QBE_NABV012@@Z
_TEXT	SEGMENT PARA USE32 PUBLIC 'CODE'
_TEXT	ENDS
;	COMDAT ??0?$_DebugHeapAllocator@D@std@@QAE@XZ
_TEXT	SEGMENT PARA USE32 PUBLIC 'CODE'
_TEXT	ENDS
;	COMDAT ??0?$_DebugHeapAllocator@D@std@@QAE@ABV01@@Z
_TEXT	SEGMENT PARA USE32 PUBLIC 'CODE'
_TEXT	ENDS
;	COMDAT ??_G?$numpunct@D@std@@MAEPAXI@Z
_TEXT	SEGMENT PARA USE32 PUBLIC 'CODE'
_TEXT	ENDS
;	COMDAT ??_G?$numpunct@_W@std@@MAEPAXI@Z
_TEXT	SEGMENT PARA USE32 PUBLIC 'CODE'
_TEXT	ENDS
;	COMDAT ?assign@?$basic_string@DU?$char_traits@D@std@@V?$_DebugHeapAllocator@D@2@@std@@QAEAAV12@ABV12@II@Z
_TEXT	SEGMENT PARA USE32 PUBLIC 'CODE'
_TEXT	ENDS
;	COMDAT ?assign@?$basic_string@DU?$char_traits@D@std@@V?$_DebugHeapAllocator@D@2@@std@@QAEAAV12@PBD@Z
_TEXT	SEGMENT PARA USE32 PUBLIC 'CODE'
_TEXT	ENDS
;	COMDAT ?_Tidy@?$basic_string@DU?$char_traits@D@std@@V?$_DebugHeapAllocator@D@2@@std@@IAEX_NI@Z
_TEXT	SEGMENT PARA USE32 PUBLIC 'CODE'
_TEXT	ENDS
;	COMDAT ?_Myptr@?$basic_string@DU?$char_traits@D@std@@V?$_DebugHeapAllocator@D@2@@std@@QBEPBDXZ
_TEXT	SEGMENT PARA USE32 PUBLIC 'CODE'
_TEXT	ENDS
;	COMDAT ??0?$_String_val@DV?$_DebugHeapAllocator@D@std@@@std@@IAE@V?$_DebugHeapAllocator@D@1@@Z
_TEXT	SEGMENT PARA USE32 PUBLIC 'CODE'
_TEXT	ENDS
;	COMDAT ??0_Sentry_base@?$basic_istream@DU?$char_traits@D@std@@@std@@QAE@AAV12@@Z
_TEXT	SEGMENT PARA USE32 PUBLIC 'CODE'
_TEXT	ENDS
;	COMDAT ??0_Sentry_base@?$basic_istream@_WU?$char_traits@_W@std@@@std@@QAE@AAV12@@Z
_TEXT	SEGMENT PARA USE32 PUBLIC 'CODE'
_TEXT	ENDS
;	COMDAT ?capacity@?$vector@V?$basic_string@DU?$char_traits@D@std@@V?$allocator@D@2@@std@@V?$allocator@V?$basic_string@DU?$char_traits@D@std@@V?$allocator@D@2@@std@@@2@@std@@QBEIXZ
_TEXT	SEGMENT PARA USE32 PUBLIC 'CODE'
_TEXT	ENDS
;	COMDAT ?begin@?$vector@V?$basic_string@DU?$char_traits@D@std@@V?$allocator@D@2@@std@@V?$allocator@V?$basic_string@DU?$char_traits@D@std@@V?$allocator@D@2@@std@@@2@@std@@QBE?AVconst_iterator@12@XZ
_TEXT	SEGMENT PARA USE32 PUBLIC 'CODE'
_TEXT	ENDS
;	COMDAT ?insert@?$vector@V?$basic_string@DU?$char_traits@D@std@@V?$allocator@D@2@@std@@V?$allocator@V?$basic_string@DU?$char_traits@D@std@@V?$allocator@D@2@@std@@@2@@std@@QAE?AViterator@12@V312@ABV?$basic_string@DU?$char_traits@D@std@@V?$allocator@D@2@@2@@Z
_TEXT	SEGMENT PARA USE32 PUBLIC 'CODE'
_TEXT	ENDS
;	COMDAT ?_Buy@?$vector@V?$basic_string@DU?$char_traits@D@std@@V?$allocator@D@2@@std@@V?$allocator@V?$basic_string@DU?$char_traits@D@std@@V?$allocator@D@2@@std@@@2@@std@@IAE_NI@Z
_TEXT	SEGMENT PARA USE32 PUBLIC 'CODE'
_TEXT	ENDS
;	COMDAT ?_Tidy@?$vector@V?$basic_string@DU?$char_traits@D@std@@V?$allocator@D@2@@std@@V?$allocator@V?$basic_string@DU?$char_traits@D@std@@V?$allocator@D@2@@std@@@2@@std@@IAEXXZ
_TEXT	SEGMENT PARA USE32 PUBLIC 'CODE'
_TEXT	ENDS
;	COMDAT ?_Ufill@?$vector@V?$basic_string@DU?$char_traits@D@std@@V?$allocator@D@2@@std@@V?$allocator@V?$basic_string@DU?$char_traits@D@std@@V?$allocator@D@2@@std@@@2@@std@@IAEPAV?$basic_string@DU?$char_traits@D@std@@V?$allocator@D@2@@2@PAV32@IABV32@@Z
_TEXT	SEGMENT PARA USE32 PUBLIC 'CODE'
_TEXT	ENDS
;	COMDAT ??0?$_Vector_val@V?$basic_string@DU?$char_traits@D@std@@V?$allocator@D@2@@std@@V?$allocator@V?$basic_string@DU?$char_traits@D@std@@V?$allocator@D@2@@std@@@2@@std@@IAE@V?$allocator@V?$basic_string@DU?$char_traits@D@std@@V?$allocator@D@2@@std@@@1@@Z
_TEXT	SEGMENT PARA USE32 PUBLIC 'CODE'
_TEXT	ENDS
;	COMDAT ??0?$allocator@V?$basic_string@DU?$char_traits@D@std@@V?$allocator@D@2@@std@@@std@@QAE@XZ
_TEXT	SEGMENT PARA USE32 PUBLIC 'CODE'
_TEXT	ENDS
;	COMDAT ??0iterator@?$vector@V?$basic_string@DU?$char_traits@D@std@@V?$allocator@D@2@@std@@V?$allocator@V?$basic_string@DU?$char_traits@D@std@@V?$allocator@D@2@@std@@@2@@std@@QAE@PAV?$basic_string@DU?$char_traits@D@std@@V?$allocator@D@2@@2@@Z
_TEXT	SEGMENT PARA USE32 PUBLIC 'CODE'
_TEXT	ENDS
;	COMDAT ??Eiterator@?$vector@V?$basic_string@DU?$char_traits@D@std@@V?$allocator@D@2@@std@@V?$allocator@V?$basic_string@DU?$char_traits@D@std@@V?$allocator@D@2@@std@@@2@@std@@QAEAAV012@XZ
_TEXT	SEGMENT PARA USE32 PUBLIC 'CODE'
_TEXT	ENDS
;	COMDAT ??Hiterator@?$vector@V?$basic_string@DU?$char_traits@D@std@@V?$allocator@D@2@@std@@V?$allocator@V?$basic_string@DU?$char_traits@D@std@@V?$allocator@D@2@@std@@@2@@std@@QBE?AV012@H@Z
_TEXT	SEGMENT PARA USE32 PUBLIC 'CODE'
_TEXT	ENDS
;	COMDAT ??Dconst_iterator@?$vector@V?$basic_string@DU?$char_traits@D@std@@V?$allocator@D@2@@std@@V?$allocator@V?$basic_string@DU?$char_traits@D@std@@V?$allocator@D@2@@std@@@2@@std@@QBEABV?$basic_string@DU?$char_traits@D@std@@V?$allocator@D@2@@2@XZ
_TEXT	SEGMENT PARA USE32 PUBLIC 'CODE'
_TEXT	ENDS
;	COMDAT ??Hconst_iterator@?$vector@V?$basic_string@DU?$char_traits@D@std@@V?$allocator@D@2@@std@@V?$allocator@V?$basic_string@DU?$char_traits@D@std@@V?$allocator@D@2@@std@@@2@@std@@QBE?AV012@H@Z
_TEXT	SEGMENT PARA USE32 PUBLIC 'CODE'
_TEXT	ENDS
;	COMDAT ??8const_iterator@?$vector@V?$basic_string@DU?$char_traits@D@std@@V?$allocator@D@2@@std@@V?$allocator@V?$basic_string@DU?$char_traits@D@std@@V?$allocator@D@2@@std@@@2@@std@@QBE_NABV012@@Z
_TEXT	SEGMENT PARA USE32 PUBLIC 'CODE'
_TEXT	ENDS
;	COMDAT ??0?$fpos@H@std@@QAE@J@Z
_TEXT	SEGMENT PARA USE32 PUBLIC 'CODE'
_TEXT	ENDS
;	COMDAT ??0sentry@?$basic_ostream@DU?$char_traits@D@std@@@std@@QAE@AAV12@@Z
_TEXT	SEGMENT PARA USE32 PUBLIC 'CODE'
_TEXT	ENDS
;	COMDAT ??1sentry@?$basic_ostream@DU?$char_traits@D@std@@@std@@QAE@XZ
_TEXT	SEGMENT PARA USE32 PUBLIC 'CODE'
_TEXT	ENDS
;	COMDAT ??Bsentry@?$basic_ostream@DU?$char_traits@D@std@@@std@@QBE_NXZ
_TEXT	SEGMENT PARA USE32 PUBLIC 'CODE'
_TEXT	ENDS
;	COMDAT ??0sentry@?$basic_ostream@_WU?$char_traits@_W@std@@@std@@QAE@AAV12@@Z
_TEXT	SEGMENT PARA USE32 PUBLIC 'CODE'
_TEXT	ENDS
;	COMDAT ??1sentry@?$basic_ostream@_WU?$char_traits@_W@std@@@std@@QAE@XZ
_TEXT	SEGMENT PARA USE32 PUBLIC 'CODE'
_TEXT	ENDS
;	COMDAT ??Bsentry@?$basic_ostream@_WU?$char_traits@_W@std@@@std@@QBE_NXZ
_TEXT	SEGMENT PARA USE32 PUBLIC 'CODE'
_TEXT	ENDS
;	COMDAT ?deallocate@?$allocator@D@std@@QAEXPADI@Z
_TEXT	SEGMENT PARA USE32 PUBLIC 'CODE'
_TEXT	ENDS
;	COMDAT ?assign@?$basic_string@DU?$char_traits@D@std@@V?$_DebugHeapAllocator@D@2@@std@@QAEAAV12@PBDI@Z
_TEXT	SEGMENT PARA USE32 PUBLIC 'CODE'
_TEXT	ENDS
;	COMDAT ?erase@?$basic_string@DU?$char_traits@D@std@@V?$_DebugHeapAllocator@D@2@@std@@QAEAAV12@II@Z
_TEXT	SEGMENT PARA USE32 PUBLIC 'CODE'
_TEXT	ENDS
;	COMDAT ?size@?$basic_string@DU?$char_traits@D@std@@V?$_DebugHeapAllocator@D@2@@std@@QBEIXZ
_TEXT	SEGMENT PARA USE32 PUBLIC 'CODE'
_TEXT	ENDS
;	COMDAT ?_Eos@?$basic_string@DU?$char_traits@D@std@@V?$_DebugHeapAllocator@D@2@@std@@IAEXI@Z
_TEXT	SEGMENT PARA USE32 PUBLIC 'CODE'
_TEXT	ENDS
;	COMDAT ?_Grow@?$basic_string@DU?$char_traits@D@std@@V?$_DebugHeapAllocator@D@2@@std@@IAE_NI_N@Z
_TEXT	SEGMENT PARA USE32 PUBLIC 'CODE'
_TEXT	ENDS
;	COMDAT ?_Myptr@?$basic_string@DU?$char_traits@D@std@@V?$_DebugHeapAllocator@D@2@@std@@QAEPADXZ
_TEXT	SEGMENT PARA USE32 PUBLIC 'CODE'
_TEXT	ENDS
;	COMDAT ?deallocate@?$_DebugHeapAllocator@D@std@@QAEXPADI@Z
_TEXT	SEGMENT PARA USE32 PUBLIC 'CODE'
_TEXT	ENDS
;	COMDAT ?max_size@?$vector@V?$basic_string@DU?$char_traits@D@std@@V?$allocator@D@2@@std@@V?$allocator@V?$basic_string@DU?$char_traits@D@std@@V?$allocator@D@2@@std@@@2@@std@@QBEIXZ
_TEXT	SEGMENT PARA USE32 PUBLIC 'CODE'
_TEXT	ENDS
;	COMDAT ?_Destroy@?$vector@V?$basic_string@DU?$char_traits@D@std@@V?$allocator@D@2@@std@@V?$allocator@V?$basic_string@DU?$char_traits@D@std@@V?$allocator@D@2@@std@@@2@@std@@IAEXPAV?$basic_string@DU?$char_traits@D@std@@V?$allocator@D@2@@2@0@Z
_TEXT	SEGMENT PARA USE32 PUBLIC 'CODE'
_TEXT	ENDS
;	COMDAT ?_Insert_n@?$vector@V?$basic_string@DU?$char_traits@D@std@@V?$allocator@D@2@@std@@V?$allocator@V?$basic_string@DU?$char_traits@D@std@@V?$allocator@D@2@@std@@@2@@std@@IAEXViterator@12@IABV?$basic_string@DU?$char_traits@D@std@@V?$allocator@D@2@@2@@Z
_TEXT	SEGMENT PARA USE32 PUBLIC 'CODE'
_TEXT	ENDS
;	COMDAT ?_Xlen@?$vector@V?$basic_string@DU?$char_traits@D@std@@V?$allocator@D@2@@std@@V?$allocator@V?$basic_string@DU?$char_traits@D@std@@V?$allocator@D@2@@std@@@2@@std@@IBEXXZ
_TEXT	SEGMENT PARA USE32 PUBLIC 'CODE'
_TEXT	ENDS
;	COMDAT ??0?$allocator@V?$basic_string@DU?$char_traits@D@std@@V?$allocator@D@2@@std@@@std@@QAE@ABV01@@Z
_TEXT	SEGMENT PARA USE32 PUBLIC 'CODE'
_TEXT	ENDS
;	COMDAT ?deallocate@?$allocator@V?$basic_string@DU?$char_traits@D@std@@V?$allocator@D@2@@std@@@std@@QAEXPAV?$basic_string@DU?$char_traits@D@std@@V?$allocator@D@2@@2@I@Z
_TEXT	SEGMENT PARA USE32 PUBLIC 'CODE'
_TEXT	ENDS
;	COMDAT ?allocate@?$allocator@V?$basic_string@DU?$char_traits@D@std@@V?$allocator@D@2@@std@@@std@@QAEPAV?$basic_string@DU?$char_traits@D@std@@V?$allocator@D@2@@2@I@Z
_TEXT	SEGMENT PARA USE32 PUBLIC 'CODE'
_TEXT	ENDS
;	COMDAT ??Yiterator@?$vector@V?$basic_string@DU?$char_traits@D@std@@V?$allocator@D@2@@std@@V?$allocator@V?$basic_string@DU?$char_traits@D@std@@V?$allocator@D@2@@std@@@2@@std@@QAEAAV012@H@Z
_TEXT	SEGMENT PARA USE32 PUBLIC 'CODE'
_TEXT	ENDS
;	COMDAT ??Giterator@?$vector@V?$basic_string@DU?$char_traits@D@std@@V?$allocator@D@2@@std@@V?$allocator@V?$basic_string@DU?$char_traits@D@std@@V?$allocator@D@2@@std@@@2@@std@@QBEHABVconst_iterator@12@@Z
_TEXT	SEGMENT PARA USE32 PUBLIC 'CODE'
_TEXT	ENDS
;	COMDAT ??0const_iterator@?$vector@V?$basic_string@DU?$char_traits@D@std@@V?$allocator@D@2@@std@@V?$allocator@V?$basic_string@DU?$char_traits@D@std@@V?$allocator@D@2@@std@@@2@@std@@QAE@PAV?$basic_string@DU?$char_traits@D@std@@V?$allocator@D@2@@2@@Z
_TEXT	SEGMENT PARA USE32 PUBLIC 'CODE'
_TEXT	ENDS
;	COMDAT ??Yconst_iterator@?$vector@V?$basic_string@DU?$char_traits@D@std@@V?$allocator@D@2@@std@@V?$allocator@V?$basic_string@DU?$char_traits@D@std@@V?$allocator@D@2@@std@@@2@@std@@QAEAAV012@H@Z
_TEXT	SEGMENT PARA USE32 PUBLIC 'CODE'
_TEXT	ENDS
;	COMDAT ??D?$istreambuf_iterator@DU?$char_traits@D@std@@@std@@QBEDXZ
_TEXT	SEGMENT PARA USE32 PUBLIC 'CODE'
_TEXT	ENDS
;	COMDAT ??E?$istreambuf_iterator@DU?$char_traits@D@std@@@std@@QAEAAV01@XZ
_TEXT	SEGMENT PARA USE32 PUBLIC 'CODE'
_TEXT	ENDS
;	COMDAT ??4?$ostreambuf_iterator@DU?$char_traits@D@std@@@std@@QAEAAV01@D@Z
_TEXT	SEGMENT PARA USE32 PUBLIC 'CODE'
_TEXT	ENDS
;	COMDAT ??D?$ostreambuf_iterator@DU?$char_traits@D@std@@@std@@QAEAAV01@XZ
_TEXT	SEGMENT PARA USE32 PUBLIC 'CODE'
_TEXT	ENDS
;	COMDAT ??E?$ostreambuf_iterator@DU?$char_traits@D@std@@@std@@QAEAAV01@XZ
_TEXT	SEGMENT PARA USE32 PUBLIC 'CODE'
_TEXT	ENDS
;	COMDAT ??D?$istreambuf_iterator@_WU?$char_traits@_W@std@@@std@@QBE_WXZ
_TEXT	SEGMENT PARA USE32 PUBLIC 'CODE'
_TEXT	ENDS
;	COMDAT ??E?$istreambuf_iterator@_WU?$char_traits@_W@std@@@std@@QAEAAV01@XZ
_TEXT	SEGMENT PARA USE32 PUBLIC 'CODE'
_TEXT	ENDS
;	COMDAT ??4?$ostreambuf_iterator@_WU?$char_traits@_W@std@@@std@@QAEAAV01@_W@Z
_TEXT	SEGMENT PARA USE32 PUBLIC 'CODE'
_TEXT	ENDS
;	COMDAT ??D?$ostreambuf_iterator@_WU?$char_traits@_W@std@@@std@@QAEAAV01@XZ
_TEXT	SEGMENT PARA USE32 PUBLIC 'CODE'
_TEXT	ENDS
;	COMDAT ??E?$ostreambuf_iterator@_WU?$char_traits@_W@std@@@std@@QAEAAV01@XZ
_TEXT	SEGMENT PARA USE32 PUBLIC 'CODE'
_TEXT	ENDS
;	COMDAT ??0_Sentry_base@?$basic_ostream@DU?$char_traits@D@std@@@std@@QAE@AAV12@@Z
_TEXT	SEGMENT PARA USE32 PUBLIC 'CODE'
_TEXT	ENDS
;	COMDAT ??1_Sentry_base@?$basic_ostream@DU?$char_traits@D@std@@@std@@QAE@XZ
_TEXT	SEGMENT PARA USE32 PUBLIC 'CODE'
_TEXT	ENDS
;	COMDAT ??0_Sentry_base@?$basic_ostream@_WU?$char_traits@_W@std@@@std@@QAE@AAV12@@Z
_TEXT	SEGMENT PARA USE32 PUBLIC 'CODE'
_TEXT	ENDS
;	COMDAT ??1_Sentry_base@?$basic_ostream@_WU?$char_traits@_W@std@@@std@@QAE@XZ
_TEXT	SEGMENT PARA USE32 PUBLIC 'CODE'
_TEXT	ENDS
;	COMDAT ??0length_error@std@@QAE@ABV01@@Z
_TEXT	SEGMENT PARA USE32 PUBLIC 'CODE'
_TEXT	ENDS
;	COMDAT ??0logic_error@std@@QAE@ABV01@@Z
_TEXT	SEGMENT PARA USE32 PUBLIC 'CODE'
_TEXT	ENDS
;	COMDAT ?deallocate@?$allocator@_W@std@@QAEXPA_WI@Z
_TEXT	SEGMENT PARA USE32 PUBLIC 'CODE'
_TEXT	ENDS
;	COMDAT ?max_size@?$basic_string@DU?$char_traits@D@std@@V?$_DebugHeapAllocator@D@2@@std@@QBEIXZ
_TEXT	SEGMENT PARA USE32 PUBLIC 'CODE'
_TEXT	ENDS
;	COMDAT ?_Copy@?$basic_string@DU?$char_traits@D@std@@V?$_DebugHeapAllocator@D@2@@std@@IAEXII@Z
_TEXT	SEGMENT PARA USE32 PUBLIC 'CODE'
_TEXT	ENDS
;	COMDAT ?_Inside@?$basic_string@DU?$char_traits@D@std@@V?$_DebugHeapAllocator@D@2@@std@@IAE_NPBD@Z
_TEXT	SEGMENT PARA USE32 PUBLIC 'CODE'
_TEXT	ENDS
;	COMDAT ?max_size@?$allocator@V?$basic_string@DU?$char_traits@D@std@@V?$allocator@D@2@@std@@@std@@QBEIXZ
_TEXT	SEGMENT PARA USE32 PUBLIC 'CODE'
_TEXT	ENDS
;	COMDAT ??Gconst_iterator@?$vector@V?$basic_string@DU?$char_traits@D@std@@V?$allocator@D@2@@std@@V?$allocator@V?$basic_string@DU?$char_traits@D@std@@V?$allocator@D@2@@std@@@2@@std@@QBEHABV012@@Z
_TEXT	SEGMENT PARA USE32 PUBLIC 'CODE'
_TEXT	ENDS
;	COMDAT ?_Inc@?$istreambuf_iterator@DU?$char_traits@D@std@@@std@@AAEXXZ
_TEXT	SEGMENT PARA USE32 PUBLIC 'CODE'
_TEXT	ENDS
;	COMDAT ?_Peek@?$istreambuf_iterator@DU?$char_traits@D@std@@@std@@AAEDXZ
_TEXT	SEGMENT PARA USE32 PUBLIC 'CODE'
_TEXT	ENDS
;	COMDAT ?_Inc@?$istreambuf_iterator@_WU?$char_traits@_W@std@@@std@@AAEXXZ
_TEXT	SEGMENT PARA USE32 PUBLIC 'CODE'
_TEXT	ENDS
;	COMDAT ?_Peek@?$istreambuf_iterator@_WU?$char_traits@_W@std@@@std@@AAE_WXZ
_TEXT	SEGMENT PARA USE32 PUBLIC 'CODE'
_TEXT	ENDS
;	COMDAT ?allocate@?$allocator@D@std@@QAEPADI@Z
_TEXT	SEGMENT PARA USE32 PUBLIC 'CODE'
_TEXT	ENDS
;	COMDAT ?max_size@?$allocator@D@std@@QBEIXZ
_TEXT	SEGMENT PARA USE32 PUBLIC 'CODE'
_TEXT	ENDS
;	COMDAT ?allocate@?$_DebugHeapAllocator@D@std@@QAEPADI@Z
_TEXT	SEGMENT PARA USE32 PUBLIC 'CODE'
_TEXT	ENDS
;	COMDAT ?allocate@?$allocator@_W@std@@QAEPA_WI@Z
_TEXT	SEGMENT PARA USE32 PUBLIC 'CODE'
_TEXT	ENDS
;	COMDAT ?max_size@?$allocator@_W@std@@QBEIXZ
_TEXT	SEGMENT PARA USE32 PUBLIC 'CODE'
_TEXT	ENDS
;	COMDAT ??$_DebugHeapDelete@Vfacet@locale@std@@@std@@YAXPAVfacet@locale@0@@Z
_TEXT	SEGMENT PARA USE32 PUBLIC 'CODE'
_TEXT	ENDS
;	COMDAT ??$use_facet@V?$ctype@D@std@@@std@@YAABV?$ctype@D@0@ABVlocale@0@@Z
_TEXT	SEGMENT PARA USE32 PUBLIC 'CODE'
_TEXT	ENDS
;	COMDAT ??$use_facet@V?$ctype@_W@std@@@std@@YAABV?$ctype@_W@0@ABVlocale@0@@Z
_TEXT	SEGMENT PARA USE32 PUBLIC 'CODE'
_TEXT	ENDS
;	COMDAT ??$?HDU?$char_traits@D@std@@V?$allocator@D@1@@std@@YA?AV?$basic_string@DU?$char_traits@D@std@@V?$allocator@D@2@@0@ABV10@0@Z
_TEXT	SEGMENT PARA USE32 PUBLIC 'CODE'
_TEXT	ENDS
;	COMDAT ??$?HDU?$char_traits@D@std@@V?$allocator@D@1@@std@@YA?AV?$basic_string@DU?$char_traits@D@std@@V?$allocator@D@2@@0@PBDABV10@@Z
_TEXT	SEGMENT PARA USE32 PUBLIC 'CODE'
_TEXT	ENDS
;	COMDAT ??$?HDU?$char_traits@D@std@@V?$allocator@D@1@@std@@YA?AV?$basic_string@DU?$char_traits@D@std@@V?$allocator@D@2@@0@DABV10@@Z
_TEXT	SEGMENT PARA USE32 PUBLIC 'CODE'
_TEXT	ENDS
;	COMDAT ??$?HDU?$char_traits@D@std@@V?$allocator@D@1@@std@@YA?AV?$basic_string@DU?$char_traits@D@std@@V?$allocator@D@2@@0@ABV10@PBD@Z
_TEXT	SEGMENT PARA USE32 PUBLIC 'CODE'
_TEXT	ENDS
;	COMDAT ??$?HDU?$char_traits@D@std@@V?$allocator@D@1@@std@@YA?AV?$basic_string@DU?$char_traits@D@std@@V?$allocator@D@2@@0@ABV10@D@Z
_TEXT	SEGMENT PARA USE32 PUBLIC 'CODE'
_TEXT	ENDS
;	COMDAT ??$?H_WU?$char_traits@_W@std@@V?$allocator@_W@1@@std@@YA?AV?$basic_string@_WU?$char_traits@_W@std@@V?$allocator@_W@2@@0@ABV10@0@Z
_TEXT	SEGMENT PARA USE32 PUBLIC 'CODE'
_TEXT	ENDS
;	COMDAT ??$?H_WU?$char_traits@_W@std@@V?$allocator@_W@1@@std@@YA?AV?$basic_string@_WU?$char_traits@_W@std@@V?$allocator@_W@2@@0@PB_WABV10@@Z
_TEXT	SEGMENT PARA USE32 PUBLIC 'CODE'
_TEXT	ENDS
;	COMDAT ??$?H_WU?$char_traits@_W@std@@V?$allocator@_W@1@@std@@YA?AV?$basic_string@_WU?$char_traits@_W@std@@V?$allocator@_W@2@@0@_WABV10@@Z
_TEXT	SEGMENT PARA USE32 PUBLIC 'CODE'
_TEXT	ENDS
;	COMDAT ??$?H_WU?$char_traits@_W@std@@V?$allocator@_W@1@@std@@YA?AV?$basic_string@_WU?$char_traits@_W@std@@V?$allocator@_W@2@@0@ABV10@PB_W@Z
_TEXT	SEGMENT PARA USE32 PUBLIC 'CODE'
_TEXT	ENDS
;	COMDAT ??$?H_WU?$char_traits@_W@std@@V?$allocator@_W@1@@std@@YA?AV?$basic_string@_WU?$char_traits@_W@std@@V?$allocator@_W@2@@0@ABV10@_W@Z
_TEXT	SEGMENT PARA USE32 PUBLIC 'CODE'
_TEXT	ENDS
;	COMDAT ??$?5DU?$char_traits@D@std@@V?$allocator@D@1@@std@@YAAAV?$basic_istream@DU?$char_traits@D@std@@@0@AAV10@AAV?$basic_string@DU?$char_traits@D@std@@V?$allocator@D@2@@0@@Z
_TEXT	SEGMENT PARA USE32 PUBLIC 'CODE'
_TEXT	ENDS
;	COMDAT ??$getline@DU?$char_traits@D@std@@V?$allocator@D@2@@std@@YAAAV?$basic_istream@DU?$char_traits@D@std@@@0@AAV10@AAV?$basic_string@DU?$char_traits@D@std@@V?$allocator@D@2@@0@@Z
_TEXT	SEGMENT PARA USE32 PUBLIC 'CODE'
_TEXT	ENDS
;	COMDAT ??$getline@DU?$char_traits@D@std@@V?$allocator@D@2@@std@@YAAAV?$basic_istream@DU?$char_traits@D@std@@@0@AAV10@AAV?$basic_string@DU?$char_traits@D@std@@V?$allocator@D@2@@0@D@Z
_TEXT	SEGMENT PARA USE32 PUBLIC 'CODE'
_TEXT	ENDS
;	COMDAT ??$?6DU?$char_traits@D@std@@V?$allocator@D@1@@std@@YAAAV?$basic_ostream@DU?$char_traits@D@std@@@0@AAV10@ABV?$basic_string@DU?$char_traits@D@std@@V?$allocator@D@2@@0@@Z
_TEXT	SEGMENT PARA USE32 PUBLIC 'CODE'
_TEXT	ENDS
;	COMDAT ??$?5_WU?$char_traits@_W@std@@V?$allocator@_W@1@@std@@YAAAV?$basic_istream@_WU?$char_traits@_W@std@@@0@AAV10@AAV?$basic_string@_WU?$char_traits@_W@std@@V?$allocator@_W@2@@0@@Z
_TEXT	SEGMENT PARA USE32 PUBLIC 'CODE'
_TEXT	ENDS
;	COMDAT ??$getline@_WU?$char_traits@_W@std@@V?$allocator@_W@2@@std@@YAAAV?$basic_istream@_WU?$char_traits@_W@std@@@0@AAV10@AAV?$basic_string@_WU?$char_traits@_W@std@@V?$allocator@_W@2@@0@@Z
_TEXT	SEGMENT PARA USE32 PUBLIC 'CODE'
_TEXT	ENDS
;	COMDAT ??$getline@_WU?$char_traits@_W@std@@V?$allocator@_W@2@@std@@YAAAV?$basic_istream@_WU?$char_traits@_W@std@@@0@AAV10@AAV?$basic_string@_WU?$char_traits@_W@std@@V?$allocator@_W@2@@0@_W@Z
_TEXT	SEGMENT PARA USE32 PUBLIC 'CODE'
_TEXT	ENDS
;	COMDAT ??$?6_WU?$char_traits@_W@std@@V?$allocator@_W@1@@std@@YAAAV?$basic_ostream@_WU?$char_traits@_W@std@@@0@AAV10@ABV?$basic_string@_WU?$char_traits@_W@std@@V?$allocator@_W@2@@0@@Z
_TEXT	SEGMENT PARA USE32 PUBLIC 'CODE'
_TEXT	ENDS
;	COMDAT ??$_DebugHeapDelete@Vlocale@std@@@std@@YAXPAVlocale@0@@Z
_TEXT	SEGMENT PARA USE32 PUBLIC 'CODE'
_TEXT	ENDS
;	COMDAT ??$use_facet@V?$numpunct@D@std@@@std@@YAABV?$numpunct@D@0@ABVlocale@0@@Z
_TEXT	SEGMENT PARA USE32 PUBLIC 'CODE'
_TEXT	ENDS
;	COMDAT ??$_Getloctxt@DV?$istreambuf_iterator@DU?$char_traits@D@std@@@std@@@std@@YAHAAV?$istreambuf_iterator@DU?$char_traits@D@std@@@0@0IPBD@Z
_TEXT	SEGMENT PARA USE32 PUBLIC 'CODE'
_TEXT	ENDS
;	COMDAT ??$?8DU?$char_traits@D@std@@@std@@YA_NABV?$istreambuf_iterator@DU?$char_traits@D@std@@@0@0@Z
_TEXT	SEGMENT PARA USE32 PUBLIC 'CODE'
_TEXT	ENDS
;	COMDAT ??$use_facet@V?$numpunct@_W@std@@@std@@YAABV?$numpunct@_W@0@ABVlocale@0@@Z
_TEXT	SEGMENT PARA USE32 PUBLIC 'CODE'
_TEXT	ENDS
;	COMDAT ??$_Getloctxt@_WV?$istreambuf_iterator@_WU?$char_traits@_W@std@@@std@@@std@@YAHAAV?$istreambuf_iterator@_WU?$char_traits@_W@std@@@0@0IPB_W@Z
_TEXT	SEGMENT PARA USE32 PUBLIC 'CODE'
_TEXT	ENDS
;	COMDAT ??$?8_WU?$char_traits@_W@std@@@std@@YA_NABV?$istreambuf_iterator@_WU?$char_traits@_W@std@@@0@0@Z
_TEXT	SEGMENT PARA USE32 PUBLIC 'CODE'
_TEXT	ENDS
;	COMDAT ??$_DebugHeapDelete@X@std@@YAXPAX@Z
_TEXT	SEGMENT PARA USE32 PUBLIC 'CODE'
_TEXT	ENDS
;	COMDAT ??$_Maklocchr@D@std@@YADDPADABU_Cvtvec@@@Z
_TEXT	SEGMENT PARA USE32 PUBLIC 'CODE'
_TEXT	ENDS
;	COMDAT ??$?9DU?$char_traits@D@std@@@std@@YA_NABV?$istreambuf_iterator@DU?$char_traits@D@std@@@0@0@Z
_TEXT	SEGMENT PARA USE32 PUBLIC 'CODE'
_TEXT	ENDS
;	COMDAT ??$_Maklocbyte@D@std@@YADDABU_Cvtvec@@@Z
_TEXT	SEGMENT PARA USE32 PUBLIC 'CODE'
_TEXT	ENDS
;	COMDAT ??$?9_WU?$char_traits@_W@std@@@std@@YA_NABV?$istreambuf_iterator@_WU?$char_traits@_W@std@@@0@0@Z
_TEXT	SEGMENT PARA USE32 PUBLIC 'CODE'
_TEXT	ENDS
;	COMDAT ??$_Uninitialized_fill_n@PAV?$basic_string@DU?$char_traits@D@std@@V?$allocator@D@2@@std@@IV12@V?$allocator@V?$basic_string@DU?$char_traits@D@std@@V?$allocator@D@2@@std@@@2@@std@@YAXPAV?$basic_string@DU?$char_traits@D@std@@V?$allocator@D@2@@0@IABV10@AAV?$allocator@V?$basic_string@DU?$char_traits@D@std@@V?$allocator@D@2@@std@@@0@@Z
_TEXT	SEGMENT PARA USE32 PUBLIC 'CODE'
_TEXT	ENDS
;	COMDAT ??$_Destroy_range@V?$basic_string@DU?$char_traits@D@std@@V?$allocator@D@2@@std@@V?$allocator@V?$basic_string@DU?$char_traits@D@std@@V?$allocator@D@2@@std@@@2@@std@@YAXPAV?$basic_string@DU?$char_traits@D@std@@V?$allocator@D@2@@0@0AAV?$allocator@V?$basic_string@DU?$char_traits@D@std@@V?$allocator@D@2@@std@@@0@@Z
_TEXT	SEGMENT PARA USE32 PUBLIC 'CODE'
_TEXT	ENDS
;	COMDAT ??$_Ucopy@PAV?$basic_string@DU?$char_traits@D@std@@V?$allocator@D@2@@std@@@?$vector@V?$basic_string@DU?$char_traits@D@std@@V?$allocator@D@2@@std@@V?$allocator@V?$basic_string@DU?$char_traits@D@std@@V?$allocator@D@2@@std@@@2@@std@@IAEPAV?$basic_string@DU?$char_traits@D@std@@V?$allocator@D@2@@1@PAV21@00@Z
_TEXT	SEGMENT PARA USE32 PUBLIC 'CODE'
_TEXT	ENDS
;	COMDAT ??$fill@PAV?$basic_string@DU?$char_traits@D@std@@V?$allocator@D@2@@std@@V12@@std@@YAXPAV?$basic_string@DU?$char_traits@D@std@@V?$allocator@D@2@@0@0ABV10@@Z
_TEXT	SEGMENT PARA USE32 PUBLIC 'CODE'
_TEXT	ENDS
;	COMDAT ??$copy_backward@PAV?$basic_string@DU?$char_traits@D@std@@V?$allocator@D@2@@std@@PAV12@@std@@YAPAV?$basic_string@DU?$char_traits@D@std@@V?$allocator@D@2@@0@PAV10@00@Z
_TEXT	SEGMENT PARA USE32 PUBLIC 'CODE'
_TEXT	ENDS
;	COMDAT ??$_Allocate@V?$basic_string@DU?$char_traits@D@std@@V?$allocator@D@2@@std@@@std@@YAPAV?$basic_string@DU?$char_traits@D@std@@V?$allocator@D@2@@0@IPAV10@@Z
_TEXT	SEGMENT PARA USE32 PUBLIC 'CODE'
_TEXT	ENDS
;	COMDAT ??$_Allocate@D@std@@YAPADIPAD@Z
_TEXT	SEGMENT PARA USE32 PUBLIC 'CODE'
_TEXT	ENDS
;	COMDAT ??$_Allocate@_W@std@@YAPA_WIPA_W@Z
_TEXT	SEGMENT PARA USE32 PUBLIC 'CODE'
_TEXT	ENDS
;	COMDAT ??_Glocale@std@@QAEPAXI@Z
_TEXT	SEGMENT PARA USE32 PUBLIC 'CODE'
_TEXT	ENDS
;	COMDAT ?equal@?$istreambuf_iterator@DU?$char_traits@D@std@@@std@@QBE_NABV12@@Z
_TEXT	SEGMENT PARA USE32 PUBLIC 'CODE'
_TEXT	ENDS
;	COMDAT ?equal@?$istreambuf_iterator@_WU?$char_traits@_W@std@@@std@@QBE_NABV12@@Z
_TEXT	SEGMENT PARA USE32 PUBLIC 'CODE'
_TEXT	ENDS
;	COMDAT ??$_Ptr_cat@PAV?$basic_string@DU?$char_traits@D@std@@V?$allocator@D@2@@std@@PAV12@@std@@YA?AU_Nonscalar_ptr_iterator_tag@0@AAPAV?$basic_string@DU?$char_traits@D@std@@V?$allocator@D@2@@0@0@Z
_TEXT	SEGMENT PARA USE32 PUBLIC 'CODE'
_TEXT	ENDS
;	COMDAT ??$_Uninit_fill_n@PAV?$basic_string@DU?$char_traits@D@std@@V?$allocator@D@2@@std@@IV12@V?$allocator@V?$basic_string@DU?$char_traits@D@std@@V?$allocator@D@2@@std@@@2@@std@@YAXPAV?$basic_string@DU?$char_traits@D@std@@V?$allocator@D@2@@0@IABV10@AAV?$allocator@V?$basic_string@DU?$char_traits@D@std@@V?$allocator@D@2@@std@@@0@U_Nonscalar_ptr_iterator_tag@0@@Z
_TEXT	SEGMENT PARA USE32 PUBLIC 'CODE'
_TEXT	ENDS
;	COMDAT ??$_Destroy_range@V?$basic_string@DU?$char_traits@D@std@@V?$allocator@D@2@@std@@V?$allocator@V?$basic_string@DU?$char_traits@D@std@@V?$allocator@D@2@@std@@@2@@std@@YAXPAV?$basic_string@DU?$char_traits@D@std@@V?$allocator@D@2@@0@0AAV?$allocator@V?$basic_string@DU?$char_traits@D@std@@V?$allocator@D@2@@std@@@0@U_Nonscalar_ptr_iterator_tag@0@@Z
_TEXT	SEGMENT PARA USE32 PUBLIC 'CODE'
_TEXT	ENDS
;	COMDAT ??$_Uninitialized_copy@PAV?$basic_string@DU?$char_traits@D@std@@V?$allocator@D@2@@std@@PAV12@V?$allocator@V?$basic_string@DU?$char_traits@D@std@@V?$allocator@D@2@@std@@@2@@std@@YAPAV?$basic_string@DU?$char_traits@D@std@@V?$allocator@D@2@@0@PAV10@00AAV?$allocator@V?$basic_string@DU?$char_traits@D@std@@V?$allocator@D@2@@std@@@0@@Z
_TEXT	SEGMENT PARA USE32 PUBLIC 'CODE'
_TEXT	ENDS
;	COMDAT ??$_Copy_backward_opt@PAV?$basic_string@DU?$char_traits@D@std@@V?$allocator@D@2@@std@@PAV12@@std@@YAPAV?$basic_string@DU?$char_traits@D@std@@V?$allocator@D@2@@0@PAV10@00U_Nonscalar_ptr_iterator_tag@0@@Z
_TEXT	SEGMENT PARA USE32 PUBLIC 'CODE'
_TEXT	ENDS
;	COMDAT ??$_Maklocstr@D@std@@YAPADPBDPADABU_Cvtvec@@@Z
_TEXT	SEGMENT PARA USE32 PUBLIC 'CODE'
_TEXT	ENDS
;	COMDAT ?construct@?$allocator@V?$basic_string@DU?$char_traits@D@std@@V?$allocator@D@2@@std@@@std@@QAEXPAV?$basic_string@DU?$char_traits@D@std@@V?$allocator@D@2@@2@ABV32@@Z
_TEXT	SEGMENT PARA USE32 PUBLIC 'CODE'
_TEXT	ENDS
;	COMDAT ?destroy@?$allocator@V?$basic_string@DU?$char_traits@D@std@@V?$allocator@D@2@@std@@@std@@QAEXPAV?$basic_string@DU?$char_traits@D@std@@V?$allocator@D@2@@2@@Z
_TEXT	SEGMENT PARA USE32 PUBLIC 'CODE'
_TEXT	ENDS
;	COMDAT ??$_Uninit_copy@PAV?$basic_string@DU?$char_traits@D@std@@V?$allocator@D@2@@std@@PAV12@V?$allocator@V?$basic_string@DU?$char_traits@D@std@@V?$allocator@D@2@@std@@@2@@std@@YAPAV?$basic_string@DU?$char_traits@D@std@@V?$allocator@D@2@@0@PAV10@00AAV?$allocator@V?$basic_string@DU?$char_traits@D@std@@V?$allocator@D@2@@std@@@0@U_Nonscalar_ptr_iterator_tag@0@@Z
_TEXT	SEGMENT PARA USE32 PUBLIC 'CODE'
_TEXT	ENDS
;	COMDAT ??$_Construct@V?$basic_string@DU?$char_traits@D@std@@V?$allocator@D@2@@std@@V12@@std@@YAXPAV?$basic_string@DU?$char_traits@D@std@@V?$allocator@D@2@@0@ABV10@@Z
_TEXT	SEGMENT PARA USE32 PUBLIC 'CODE'
_TEXT	ENDS
;	COMDAT ??$_Destroy@V?$basic_string@DU?$char_traits@D@std@@V?$allocator@D@2@@std@@@std@@YAXPAV?$basic_string@DU?$char_traits@D@std@@V?$allocator@D@2@@0@@Z
_TEXT	SEGMENT PARA USE32 PUBLIC 'CODE'
_TEXT	ENDS
;	COMDAT ??_G?$basic_string@DU?$char_traits@D@std@@V?$allocator@D@2@@std@@QAEPAXI@Z
_TEXT	SEGMENT PARA USE32 PUBLIC 'CODE'
_TEXT	ENDS
;	COMDAT ??_R4out_of_range@std@@6B@
rdata$r	SEGMENT DWORD USE32 PUBLIC 'CONST'
rdata$r	ENDS
;	COMDAT ??_R0?AVout_of_range@std@@@8
_DATA	SEGMENT DWORD USE32 PUBLIC 'DATA'
_DATA	ENDS
;	COMDAT ??_R3?$ctype@D@std@@8
rdata$r	SEGMENT DWORD USE32 PUBLIC 'CONST'
rdata$r	ENDS
;	COMDAT __TI3?AVlength_error@std@@
xdata$x	SEGMENT DWORD USE32 PUBLIC 'CONST'
xdata$x	ENDS
;	COMDAT ??_R1A@?0A@A@overflow_error@std@@8
rdata$r	SEGMENT DWORD USE32 PUBLIC 'CONST'
rdata$r	ENDS
;	COMDAT ??_R1A@?0A@A@out_of_range@std@@8
rdata$r	SEGMENT DWORD USE32 PUBLIC 'CONST'
rdata$r	ENDS
;	COMDAT ??_R1A@?0A@A@?$numpunct@D@std@@8
rdata$r	SEGMENT DWORD USE32 PUBLIC 'CONST'
rdata$r	ENDS
;	COMDAT ??_R2domain_error@std@@8
rdata$r	SEGMENT DWORD USE32 PUBLIC 'CONST'
rdata$r	ENDS
;	COMDAT ??_R1A@?0A@A@facet@locale@std@@8
rdata$r	SEGMENT DWORD USE32 PUBLIC 'CONST'
rdata$r	ENDS
;	COMDAT ??_R0?AVdomain_error@std@@@8
_DATA	SEGMENT DWORD USE32 PUBLIC 'DATA'
_DATA	ENDS
;	COMDAT ??_R3underflow_error@std@@8
rdata$r	SEGMENT DWORD USE32 PUBLIC 'CONST'
rdata$r	ENDS
;	COMDAT ??_R0?AV?$numpunct@_W@std@@@8
_DATA	SEGMENT DWORD USE32 PUBLIC 'DATA'
_DATA	ENDS
;	COMDAT ??_R0?AVrange_error@std@@@8
_DATA	SEGMENT DWORD USE32 PUBLIC 'DATA'
_DATA	ENDS
;	COMDAT ??_R2?$numpunct@D@std@@8
rdata$r	SEGMENT DWORD USE32 PUBLIC 'CONST'
rdata$r	ENDS
;	COMDAT __CT??_R0?AVlogic_error@std@@@8??0logic_error@std@@QAE@ABV01@@Z40
xdata$x	SEGMENT DWORD USE32 PUBLIC 'CONST'
xdata$x	ENDS
;	COMDAT ??_R1A@?0A@A@codecvt_base@std@@8
rdata$r	SEGMENT DWORD USE32 PUBLIC 'CONST'
rdata$r	ENDS
;	COMDAT ??_R2length_error@std@@8
rdata$r	SEGMENT DWORD USE32 PUBLIC 'CONST'
rdata$r	ENDS
;	COMDAT ??_R2runtime_error@std@@8
rdata$r	SEGMENT DWORD USE32 PUBLIC 'CONST'
rdata$r	ENDS
;	COMDAT ??_R2failure@ios_base@std@@8
rdata$r	SEGMENT DWORD USE32 PUBLIC 'CONST'
rdata$r	ENDS
;	COMDAT ??_R1A@?0A@A@bad_alloc@std@@8
rdata$r	SEGMENT DWORD USE32 PUBLIC 'CONST'
rdata$r	ENDS
;	COMDAT ??_R4?$numpunct@D@std@@6B@
rdata$r	SEGMENT DWORD USE32 PUBLIC 'CONST'
rdata$r	ENDS
;	COMDAT ??_R0?AVcodecvt_base@std@@@8
_DATA	SEGMENT DWORD USE32 PUBLIC 'DATA'
_DATA	ENDS
;	COMDAT ??_R2bad_alloc@std@@8
rdata$r	SEGMENT DWORD USE32 PUBLIC 'CONST'
rdata$r	ENDS
;	COMDAT ??_R2?$ctype@_W@std@@8
rdata$r	SEGMENT DWORD USE32 PUBLIC 'CONST'
rdata$r	ENDS
;	COMDAT ??_R0?AV?$codecvt@_WDH@std@@@8
_DATA	SEGMENT DWORD USE32 PUBLIC 'DATA'
_DATA	ENDS
;	COMDAT ??_R1A@?0A@A@exception@@8
rdata$r	SEGMENT DWORD USE32 PUBLIC 'CONST'
rdata$r	ENDS
;	COMDAT __CT??_R0?AVexception@@@8??0exception@@QAE@ABV0@@Z12
xdata$x	SEGMENT DWORD USE32 PUBLIC 'CONST'
xdata$x	ENDS
;	COMDAT ??_R1A@?0A@A@?$codecvt@_WDH@std@@8
rdata$r	SEGMENT DWORD USE32 PUBLIC 'CONST'
rdata$r	ENDS
;	COMDAT ??_R4underflow_error@std@@6B@
rdata$r	SEGMENT DWORD USE32 PUBLIC 'CONST'
rdata$r	ENDS
;	COMDAT ??_R2overflow_error@std@@8
rdata$r	SEGMENT DWORD USE32 PUBLIC 'CONST'
rdata$r	ENDS
;	COMDAT ??_R1A@?0A@A@range_error@std@@8
rdata$r	SEGMENT DWORD USE32 PUBLIC 'CONST'
rdata$r	ENDS
;	COMDAT ??_R4length_error@std@@6B@
rdata$r	SEGMENT DWORD USE32 PUBLIC 'CONST'
rdata$r	ENDS
;	COMDAT ??_R4?$ctype@D@std@@6B@
rdata$r	SEGMENT DWORD USE32 PUBLIC 'CONST'
rdata$r	ENDS
;	COMDAT ??_R0?AV?$ctype@_W@std@@@8
_DATA	SEGMENT DWORD USE32 PUBLIC 'DATA'
_DATA	ENDS
;	COMDAT ??_R3invalid_argument@std@@8
rdata$r	SEGMENT DWORD USE32 PUBLIC 'CONST'
rdata$r	ENDS
;	COMDAT ??_R0?AVfailure@ios_base@std@@@8
_DATA	SEGMENT DWORD USE32 PUBLIC 'DATA'
_DATA	ENDS
;	COMDAT ??_R3overflow_error@std@@8
rdata$r	SEGMENT DWORD USE32 PUBLIC 'CONST'
rdata$r	ENDS
;	COMDAT ??_R2out_of_range@std@@8
rdata$r	SEGMENT DWORD USE32 PUBLIC 'CONST'
rdata$r	ENDS
;	COMDAT ??_R0?AVruntime_error@std@@@8
_DATA	SEGMENT DWORD USE32 PUBLIC 'DATA'
_DATA	ENDS
;	COMDAT ??_R4overflow_error@std@@6B@
rdata$r	SEGMENT DWORD USE32 PUBLIC 'CONST'
rdata$r	ENDS
;	COMDAT __TI2?AVbad_cast@@
xdata$x	SEGMENT DWORD USE32 PUBLIC 'CONST'
xdata$x	ENDS
;	COMDAT ??_R0?AVunderflow_error@std@@@8
_DATA	SEGMENT DWORD USE32 PUBLIC 'DATA'
_DATA	ENDS
;	COMDAT ??_R3runtime_error@std@@8
rdata$r	SEGMENT DWORD USE32 PUBLIC 'CONST'
rdata$r	ENDS
;	COMDAT ??_R0?AV?$ctype@D@std@@@8
_DATA	SEGMENT DWORD USE32 PUBLIC 'DATA'
_DATA	ENDS
;	COMDAT ??_R4domain_error@std@@6B@
rdata$r	SEGMENT DWORD USE32 PUBLIC 'CONST'
rdata$r	ENDS
;	COMDAT ??_R3bad_exception@std@@8
rdata$r	SEGMENT DWORD USE32 PUBLIC 'CONST'
rdata$r	ENDS
;	COMDAT ??_R1A@?0A@A@?$numpunct@_W@std@@8
rdata$r	SEGMENT DWORD USE32 PUBLIC 'CONST'
rdata$r	ENDS
;	COMDAT ??_R2range_error@std@@8
rdata$r	SEGMENT DWORD USE32 PUBLIC 'CONST'
rdata$r	ENDS
;	COMDAT ??_R0?AVexception@@@8
_DATA	SEGMENT DWORD USE32 PUBLIC 'DATA'
_DATA	ENDS
;	COMDAT __CT??_R0?AVlength_error@std@@@8??0length_error@std@@QAE@ABV01@@Z40
xdata$x	SEGMENT DWORD USE32 PUBLIC 'CONST'
xdata$x	ENDS
;	COMDAT ??_R1A@?0A@A@?$ctype@D@std@@8
rdata$r	SEGMENT DWORD USE32 PUBLIC 'CONST'
rdata$r	ENDS
;	COMDAT __CT??_R0?AVbad_cast@@@8??0bad_cast@@QAE@ABV0@@Z12
xdata$x	SEGMENT DWORD USE32 PUBLIC 'CONST'
xdata$x	ENDS
;	COMDAT ??_R3?$ctype@_W@std@@8
rdata$r	SEGMENT DWORD USE32 PUBLIC 'CONST'
rdata$r	ENDS
;	COMDAT ??_R3bad_alloc@std@@8
rdata$r	SEGMENT DWORD USE32 PUBLIC 'CONST'
rdata$r	ENDS
;	COMDAT ??_R3domain_error@std@@8
rdata$r	SEGMENT DWORD USE32 PUBLIC 'CONST'
rdata$r	ENDS
;	COMDAT ??_R0?AVbad_exception@std@@@8
_DATA	SEGMENT DWORD USE32 PUBLIC 'DATA'
_DATA	ENDS
;	COMDAT ??_R2bad_exception@std@@8
rdata$r	SEGMENT DWORD USE32 PUBLIC 'CONST'
rdata$r	ENDS
;	COMDAT ??_R0?AV?$numpunct@D@std@@@8
_DATA	SEGMENT DWORD USE32 PUBLIC 'DATA'
_DATA	ENDS
;	COMDAT ??_R0?AVbad_alloc@std@@@8
_DATA	SEGMENT DWORD USE32 PUBLIC 'DATA'
_DATA	ENDS
;	COMDAT ??_R4invalid_argument@std@@6B@
rdata$r	SEGMENT DWORD USE32 PUBLIC 'CONST'
rdata$r	ENDS
;	COMDAT ??_R4?$codecvt@_WDH@std@@6B@
rdata$r	SEGMENT DWORD USE32 PUBLIC 'CONST'
rdata$r	ENDS
;	COMDAT ??_R4range_error@std@@6B@
rdata$r	SEGMENT DWORD USE32 PUBLIC 'CONST'
rdata$r	ENDS
;	COMDAT ??_R3?$codecvt@_WDH@std@@8
rdata$r	SEGMENT DWORD USE32 PUBLIC 'CONST'
rdata$r	ENDS
;	COMDAT ??_R1A@?0A@A@logic_error@std@@8
rdata$r	SEGMENT DWORD USE32 PUBLIC 'CONST'
rdata$r	ENDS
;	COMDAT __CTA2?AVbad_cast@@
xdata$x	SEGMENT DWORD USE32 PUBLIC 'CONST'
xdata$x	ENDS
;	COMDAT ??_R4logic_error@std@@6B@
rdata$r	SEGMENT DWORD USE32 PUBLIC 'CONST'
rdata$r	ENDS
;	COMDAT ??_R0?AVlength_error@std@@@8
_DATA	SEGMENT DWORD USE32 PUBLIC 'DATA'
_DATA	ENDS
;	COMDAT ??_R3out_of_range@std@@8
rdata$r	SEGMENT DWORD USE32 PUBLIC 'CONST'
rdata$r	ENDS
;	COMDAT ??_R2?$numpunct@_W@std@@8
rdata$r	SEGMENT DWORD USE32 PUBLIC 'CONST'
rdata$r	ENDS
;	COMDAT ??_R0?AVbad_cast@@@8
_DATA	SEGMENT DWORD USE32 PUBLIC 'DATA'
_DATA	ENDS
;	COMDAT ??_R1A@?0A@A@runtime_error@std@@8
rdata$r	SEGMENT DWORD USE32 PUBLIC 'CONST'
rdata$r	ENDS
;	COMDAT ??_R1A@?0A@A@invalid_argument@std@@8
rdata$r	SEGMENT DWORD USE32 PUBLIC 'CONST'
rdata$r	ENDS
;	COMDAT ??_R1A@?0A@A@ctype_base@std@@8
rdata$r	SEGMENT DWORD USE32 PUBLIC 'CONST'
rdata$r	ENDS
;	COMDAT ??_R2logic_error@std@@8
rdata$r	SEGMENT DWORD USE32 PUBLIC 'CONST'
rdata$r	ENDS
;	COMDAT ??_R1A@?0A@A@failure@ios_base@std@@8
rdata$r	SEGMENT DWORD USE32 PUBLIC 'CONST'
rdata$r	ENDS
;	COMDAT ??_R3logic_error@std@@8
rdata$r	SEGMENT DWORD USE32 PUBLIC 'CONST'
rdata$r	ENDS
;	COMDAT __CTA3?AVlength_error@std@@
xdata$x	SEGMENT DWORD USE32 PUBLIC 'CONST'
xdata$x	ENDS
;	COMDAT ??_R0?AVlogic_error@std@@@8
_DATA	SEGMENT DWORD USE32 PUBLIC 'DATA'
_DATA	ENDS
;	COMDAT ??_R4?$ctype@_W@std@@6B@
rdata$r	SEGMENT DWORD USE32 PUBLIC 'CONST'
rdata$r	ENDS
;	COMDAT ??_R3length_error@std@@8
rdata$r	SEGMENT DWORD USE32 PUBLIC 'CONST'
rdata$r	ENDS
;	COMDAT ??_R4bad_exception@std@@6B@
rdata$r	SEGMENT DWORD USE32 PUBLIC 'CONST'
rdata$r	ENDS
;	COMDAT ??_R1A@?0A@A@underflow_error@std@@8
rdata$r	SEGMENT DWORD USE32 PUBLIC 'CONST'
rdata$r	ENDS
;	COMDAT ??_R3failure@ios_base@std@@8
rdata$r	SEGMENT DWORD USE32 PUBLIC 'CONST'
rdata$r	ENDS
;	COMDAT ??_R1A@?0A@A@?$ctype@_W@std@@8
rdata$r	SEGMENT DWORD USE32 PUBLIC 'CONST'
rdata$r	ENDS
;	COMDAT ??_R4bad_alloc@std@@6B@
rdata$r	SEGMENT DWORD USE32 PUBLIC 'CONST'
rdata$r	ENDS
;	COMDAT ??_R1A@?0A@A@bad_exception@std@@8
rdata$r	SEGMENT DWORD USE32 PUBLIC 'CONST'
rdata$r	ENDS
;	COMDAT ??_R2underflow_error@std@@8
rdata$r	SEGMENT DWORD USE32 PUBLIC 'CONST'
rdata$r	ENDS
;	COMDAT ??_R0?AUctype_base@std@@@8
_DATA	SEGMENT DWORD USE32 PUBLIC 'DATA'
_DATA	ENDS
;	COMDAT ??_R4failure@ios_base@std@@6B@
rdata$r	SEGMENT DWORD USE32 PUBLIC 'CONST'
rdata$r	ENDS
;	COMDAT ??_R2?$ctype@D@std@@8
rdata$r	SEGMENT DWORD USE32 PUBLIC 'CONST'
rdata$r	ENDS
;	COMDAT ??_R4?$numpunct@_W@std@@6B@
rdata$r	SEGMENT DWORD USE32 PUBLIC 'CONST'
rdata$r	ENDS
;	COMDAT ??_R3range_error@std@@8
rdata$r	SEGMENT DWORD USE32 PUBLIC 'CONST'
rdata$r	ENDS
;	COMDAT ??_R3?$numpunct@D@std@@8
rdata$r	SEGMENT DWORD USE32 PUBLIC 'CONST'
rdata$r	ENDS
;	COMDAT ??_R0?AVfacet@locale@std@@@8
_DATA	SEGMENT DWORD USE32 PUBLIC 'DATA'
_DATA	ENDS
;	COMDAT ?binary@?$_Iosb@H@std@@2W4_Openmode@12@B
CONST	SEGMENT DWORD USE32 PUBLIC 'CONST'
CONST	ENDS
;	COMDAT ?_Hardfail@?$_Iosb@H@std@@2W4_Iostate@12@B
CONST	SEGMENT DWORD USE32 PUBLIC 'CONST'
CONST	ENDS
;	COMDAT ?eofbit@?$_Iosb@H@std@@2W4_Iostate@12@B
CONST	SEGMENT DWORD USE32 PUBLIC 'CONST'
CONST	ENDS
;	COMDAT ??_7invalid_argument@std@@6B@
CONST	SEGMENT DWORD USE32 PUBLIC 'CONST'
CONST	ENDS
;	COMDAT ?app@?$_Iosb@H@std@@2W4_Openmode@12@B
CONST	SEGMENT DWORD USE32 PUBLIC 'CONST'
CONST	ENDS
;	COMDAT ?uppercase@?$_Iosb@H@std@@2W4_Fmtflags@12@B
CONST	SEGMENT DWORD USE32 PUBLIC 'CONST'
CONST	ENDS
;	COMDAT ??_S?$numpunct@_W@std@@6B@
CONST	SEGMENT DWORD USE32 PUBLIC 'CONST'
CONST	ENDS
;	COMDAT ??_7out_of_range@std@@6B@
CONST	SEGMENT DWORD USE32 PUBLIC 'CONST'
CONST	ENDS
;	COMDAT ?trunc@?$_Iosb@H@std@@2W4_Openmode@12@B
CONST	SEGMENT DWORD USE32 PUBLIC 'CONST'
CONST	ENDS
;	COMDAT ??_S?$ctype@_W@std@@6B@
CONST	SEGMENT DWORD USE32 PUBLIC 'CONST'
CONST	ENDS
;	COMDAT ??_S?$numpunct@D@std@@6B@
CONST	SEGMENT DWORD USE32 PUBLIC 'CONST'
CONST	ENDS
;	COMDAT ?skipws@?$_Iosb@H@std@@2W4_Fmtflags@12@B
CONST	SEGMENT DWORD USE32 PUBLIC 'CONST'
CONST	ENDS
;	COMDAT ?basefield@?$_Iosb@H@std@@2W4_Fmtflags@12@B
CONST	SEGMENT DWORD USE32 PUBLIC 'CONST'
CONST	ENDS
;	COMDAT ??_7bad_alloc@std@@6B@
CONST	SEGMENT DWORD USE32 PUBLIC 'CONST'
CONST	ENDS
;	COMDAT ?_Stdio@?$_Iosb@H@std@@2W4_Fmtflags@12@B
CONST	SEGMENT DWORD USE32 PUBLIC 'CONST'
CONST	ENDS
;	COMDAT ?left@?$_Iosb@H@std@@2W4_Fmtflags@12@B
CONST	SEGMENT DWORD USE32 PUBLIC 'CONST'
CONST	ENDS
;	COMDAT ??_7runtime_error@std@@6B@
CONST	SEGMENT DWORD USE32 PUBLIC 'CONST'
CONST	ENDS
;	COMDAT ?showpos@?$_Iosb@H@std@@2W4_Fmtflags@12@B
CONST	SEGMENT DWORD USE32 PUBLIC 'CONST'
CONST	ENDS
;	COMDAT ?_Psave@?$_Facetptr@V?$ctype@D@std@@@std@@2PBVfacet@locale@2@B
_DATA	SEGMENT DWORD USE32 PUBLIC 'DATA'
_DATA	ENDS
;	COMDAT ?adjustfield@?$_Iosb@H@std@@2W4_Fmtflags@12@B
CONST	SEGMENT DWORD USE32 PUBLIC 'CONST'
CONST	ENDS
;	COMDAT ??_S?$ctype@D@std@@6B@
CONST	SEGMENT DWORD USE32 PUBLIC 'CONST'
CONST	ENDS
;	COMDAT ?badbit@?$_Iosb@H@std@@2W4_Iostate@12@B
CONST	SEGMENT DWORD USE32 PUBLIC 'CONST'
CONST	ENDS
;	COMDAT ?in@?$_Iosb@H@std@@2W4_Openmode@12@B
CONST	SEGMENT DWORD USE32 PUBLIC 'CONST'
CONST	ENDS
;	COMDAT ??_7underflow_error@std@@6B@
CONST	SEGMENT DWORD USE32 PUBLIC 'CONST'
CONST	ENDS
;	COMDAT ??_7overflow_error@std@@6B@
CONST	SEGMENT DWORD USE32 PUBLIC 'CONST'
CONST	ENDS
;	COMDAT ?_Psave@?$_Facetptr@V?$ctype@_W@std@@@std@@2PBVfacet@locale@2@B
_DATA	SEGMENT DWORD USE32 PUBLIC 'DATA'
_DATA	ENDS
;	COMDAT ?oct@?$_Iosb@H@std@@2W4_Fmtflags@12@B
CONST	SEGMENT DWORD USE32 PUBLIC 'CONST'
CONST	ENDS
;	COMDAT ?hex@?$_Iosb@H@std@@2W4_Fmtflags@12@B
CONST	SEGMENT DWORD USE32 PUBLIC 'CONST'
CONST	ENDS
;	COMDAT ?showbase@?$_Iosb@H@std@@2W4_Fmtflags@12@B
CONST	SEGMENT DWORD USE32 PUBLIC 'CONST'
CONST	ENDS
;	COMDAT ?showpoint@?$_Iosb@H@std@@2W4_Fmtflags@12@B
CONST	SEGMENT DWORD USE32 PUBLIC 'CONST'
CONST	ENDS
;	COMDAT ?collate@?$_Locbase@H@std@@2HB
CONST	SEGMENT DWORD USE32 PUBLIC 'CONST'
CONST	ENDS
;	COMDAT ??_7length_error@std@@6B@
CONST	SEGMENT DWORD USE32 PUBLIC 'CONST'
CONST	ENDS
;	COMDAT ?beg@?$_Iosb@H@std@@2W4_Seekdir@12@B
CONST	SEGMENT DWORD USE32 PUBLIC 'CONST'
CONST	ENDS
;	COMDAT ?failbit@?$_Iosb@H@std@@2W4_Iostate@12@B
CONST	SEGMENT DWORD USE32 PUBLIC 'CONST'
CONST	ENDS
;	COMDAT ?unitbuf@?$_Iosb@H@std@@2W4_Fmtflags@12@B
CONST	SEGMENT DWORD USE32 PUBLIC 'CONST'
CONST	ENDS
;	COMDAT ?right@?$_Iosb@H@std@@2W4_Fmtflags@12@B
CONST	SEGMENT DWORD USE32 PUBLIC 'CONST'
CONST	ENDS
;	COMDAT ?_Stz@?$fpos@H@std@@0HA
_BSS	SEGMENT DWORD USE32 PUBLIC 'BSS'
_BSS	ENDS
;	COMDAT ?ctype@?$_Locbase@H@std@@2HB
CONST	SEGMENT DWORD USE32 PUBLIC 'CONST'
CONST	ENDS
;	COMDAT ?out@?$_Iosb@H@std@@2W4_Openmode@12@B
CONST	SEGMENT DWORD USE32 PUBLIC 'CONST'
CONST	ENDS
;	COMDAT ?_Psave@?$_Facetptr@V?$numpunct@D@std@@@std@@2PBVfacet@locale@2@B
_DATA	SEGMENT DWORD USE32 PUBLIC 'DATA'
_DATA	ENDS
;	COMDAT ?internal@?$_Iosb@H@std@@2W4_Fmtflags@12@B
CONST	SEGMENT DWORD USE32 PUBLIC 'CONST'
CONST	ENDS
;	COMDAT ??_S?$codecvt@_WDH@std@@6B@
CONST	SEGMENT DWORD USE32 PUBLIC 'CONST'
CONST	ENDS
;	COMDAT ?goodbit@?$_Iosb@H@std@@2W4_Iostate@12@B
CONST	SEGMENT DWORD USE32 PUBLIC 'CONST'
CONST	ENDS
;	COMDAT ?npos@?$basic_string@DU?$char_traits@D@std@@V?$_DebugHeapAllocator@D@2@@std@@2IB
CONST	SEGMENT DWORD USE32 PUBLIC 'CONST'
CONST	ENDS
;	COMDAT ??_7bad_exception@std@@6B@
CONST	SEGMENT DWORD USE32 PUBLIC 'CONST'
CONST	ENDS
;	COMDAT ?boolalpha@?$_Iosb@H@std@@2W4_Fmtflags@12@B
CONST	SEGMENT DWORD USE32 PUBLIC 'CONST'
CONST	ENDS
;	COMDAT ?ate@?$_Iosb@H@std@@2W4_Openmode@12@B
CONST	SEGMENT DWORD USE32 PUBLIC 'CONST'
CONST	ENDS
;	COMDAT ?all@?$_Locbase@H@std@@2HB
CONST	SEGMENT DWORD USE32 PUBLIC 'CONST'
CONST	ENDS
;	COMDAT ?numeric@?$_Locbase@H@std@@2HB
CONST	SEGMENT DWORD USE32 PUBLIC 'CONST'
CONST	ENDS
;	COMDAT ?end@?$_Iosb@H@std@@2W4_Seekdir@12@B
CONST	SEGMENT DWORD USE32 PUBLIC 'CONST'
CONST	ENDS
;	COMDAT ?_Noreplace@?$_Iosb@H@std@@2W4_Openmode@12@B
CONST	SEGMENT DWORD USE32 PUBLIC 'CONST'
CONST	ENDS
;	COMDAT ??_7failure@ios_base@std@@6B@
CONST	SEGMENT DWORD USE32 PUBLIC 'CONST'
CONST	ENDS
;	COMDAT ?cur@?$_Iosb@H@std@@2W4_Seekdir@12@B
CONST	SEGMENT DWORD USE32 PUBLIC 'CONST'
CONST	ENDS
;	COMDAT ??_7range_error@std@@6B@
CONST	SEGMENT DWORD USE32 PUBLIC 'CONST'
CONST	ENDS
;	COMDAT ??_7logic_error@std@@6B@
CONST	SEGMENT DWORD USE32 PUBLIC 'CONST'
CONST	ENDS
;	COMDAT ?time@?$_Locbase@H@std@@2HB
CONST	SEGMENT DWORD USE32 PUBLIC 'CONST'
CONST	ENDS
;	COMDAT ?messages@?$_Locbase@H@std@@2HB
CONST	SEGMENT DWORD USE32 PUBLIC 'CONST'
CONST	ENDS
;	COMDAT ??_7domain_error@std@@6B@
CONST	SEGMENT DWORD USE32 PUBLIC 'CONST'
CONST	ENDS
;	COMDAT ?fixed@?$_Iosb@H@std@@2W4_Fmtflags@12@B
CONST	SEGMENT DWORD USE32 PUBLIC 'CONST'
CONST	ENDS
;	COMDAT ?none@?$_Locbase@H@std@@2HB
CONST	SEGMENT DWORD USE32 PUBLIC 'CONST'
CONST	ENDS
;	COMDAT ?floatfield@?$_Iosb@H@std@@2W4_Fmtflags@12@B
CONST	SEGMENT DWORD USE32 PUBLIC 'CONST'
CONST	ENDS
;	COMDAT ?_Nocreate@?$_Iosb@H@std@@2W4_Openmode@12@B
CONST	SEGMENT DWORD USE32 PUBLIC 'CONST'
CONST	ENDS
;	COMDAT ?scientific@?$_Iosb@H@std@@2W4_Fmtflags@12@B
CONST	SEGMENT DWORD USE32 PUBLIC 'CONST'
CONST	ENDS
;	COMDAT ?monetary@?$_Locbase@H@std@@2HB
CONST	SEGMENT DWORD USE32 PUBLIC 'CONST'
CONST	ENDS
;	COMDAT ?_Psave@?$_Facetptr@V?$numpunct@_W@std@@@std@@2PBVfacet@locale@2@B
_DATA	SEGMENT DWORD USE32 PUBLIC 'DATA'
_DATA	ENDS
;	COMDAT ?dec@?$_Iosb@H@std@@2W4_Fmtflags@12@B
CONST	SEGMENT DWORD USE32 PUBLIC 'CONST'
CONST	ENDS
;	COMDAT ??_R2invalid_argument@std@@8
rdata$r	SEGMENT DWORD USE32 PUBLIC 'CONST'
rdata$r	ENDS
;	COMDAT ??_R2?$codecvt@_WDH@std@@8
rdata$r	SEGMENT DWORD USE32 PUBLIC 'CONST'
rdata$r	ENDS
;	COMDAT ??_R1A@?0A@A@length_error@std@@8
rdata$r	SEGMENT DWORD USE32 PUBLIC 'CONST'
rdata$r	ENDS
;	COMDAT ??_R3?$numpunct@_W@std@@8
rdata$r	SEGMENT DWORD USE32 PUBLIC 'CONST'
rdata$r	ENDS
;	COMDAT ??_R4runtime_error@std@@6B@
rdata$r	SEGMENT DWORD USE32 PUBLIC 'CONST'
rdata$r	ENDS
;	COMDAT ??_R0?AVinvalid_argument@std@@@8
_DATA	SEGMENT DWORD USE32 PUBLIC 'DATA'
_DATA	ENDS
;	COMDAT ??_R1A@?0A@A@domain_error@std@@8
rdata$r	SEGMENT DWORD USE32 PUBLIC 'CONST'
rdata$r	ENDS
;	COMDAT ??_R0?AVoverflow_error@std@@@8
_DATA	SEGMENT DWORD USE32 PUBLIC 'DATA'
_DATA	ENDS
sxdata	SEGMENT DWORD USE32 'SXDATA'
sxdata	ENDS
FLAT	GROUP _DATA, CONST, _BSS
	ASSUME	CS: FLAT, DS: FLAT, SS: FLAT
endif

INCLUDELIB MSVCRTD
INCLUDELIB OLDNAMES

PUBLIC	?collate@?$_Locbase@H@std@@2HB			; std::_Locbase<int>::collate
PUBLIC	?ctype@?$_Locbase@H@std@@2HB			; std::_Locbase<int>::ctype
PUBLIC	?monetary@?$_Locbase@H@std@@2HB			; std::_Locbase<int>::monetary
PUBLIC	?numeric@?$_Locbase@H@std@@2HB			; std::_Locbase<int>::numeric
PUBLIC	?time@?$_Locbase@H@std@@2HB			; std::_Locbase<int>::time
PUBLIC	?messages@?$_Locbase@H@std@@2HB			; std::_Locbase<int>::messages
PUBLIC	?all@?$_Locbase@H@std@@2HB			; std::_Locbase<int>::all
PUBLIC	?none@?$_Locbase@H@std@@2HB			; std::_Locbase<int>::none
PUBLIC	?skipws@?$_Iosb@H@std@@2W4_Fmtflags@12@B	; std::_Iosb<int>::skipws
PUBLIC	?unitbuf@?$_Iosb@H@std@@2W4_Fmtflags@12@B	; std::_Iosb<int>::unitbuf
PUBLIC	?uppercase@?$_Iosb@H@std@@2W4_Fmtflags@12@B	; std::_Iosb<int>::uppercase
PUBLIC	?showbase@?$_Iosb@H@std@@2W4_Fmtflags@12@B	; std::_Iosb<int>::showbase
PUBLIC	?showpoint@?$_Iosb@H@std@@2W4_Fmtflags@12@B	; std::_Iosb<int>::showpoint
PUBLIC	?showpos@?$_Iosb@H@std@@2W4_Fmtflags@12@B	; std::_Iosb<int>::showpos
PUBLIC	?left@?$_Iosb@H@std@@2W4_Fmtflags@12@B		; std::_Iosb<int>::left
PUBLIC	?right@?$_Iosb@H@std@@2W4_Fmtflags@12@B		; std::_Iosb<int>::right
PUBLIC	?internal@?$_Iosb@H@std@@2W4_Fmtflags@12@B	; std::_Iosb<int>::internal
PUBLIC	?dec@?$_Iosb@H@std@@2W4_Fmtflags@12@B		; std::_Iosb<int>::dec
PUBLIC	?oct@?$_Iosb@H@std@@2W4_Fmtflags@12@B		; std::_Iosb<int>::oct
PUBLIC	?hex@?$_Iosb@H@std@@2W4_Fmtflags@12@B		; std::_Iosb<int>::hex
PUBLIC	?scientific@?$_Iosb@H@std@@2W4_Fmtflags@12@B	; std::_Iosb<int>::scientific
PUBLIC	?fixed@?$_Iosb@H@std@@2W4_Fmtflags@12@B		; std::_Iosb<int>::fixed
PUBLIC	?boolalpha@?$_Iosb@H@std@@2W4_Fmtflags@12@B	; std::_Iosb<int>::boolalpha
PUBLIC	?_Stdio@?$_Iosb@H@std@@2W4_Fmtflags@12@B	; std::_Iosb<int>::_Stdio
PUBLIC	?adjustfield@?$_Iosb@H@std@@2W4_Fmtflags@12@B	; std::_Iosb<int>::adjustfield
PUBLIC	?basefield@?$_Iosb@H@std@@2W4_Fmtflags@12@B	; std::_Iosb<int>::basefield
PUBLIC	?floatfield@?$_Iosb@H@std@@2W4_Fmtflags@12@B	; std::_Iosb<int>::floatfield
PUBLIC	?goodbit@?$_Iosb@H@std@@2W4_Iostate@12@B	; std::_Iosb<int>::goodbit
PUBLIC	?eofbit@?$_Iosb@H@std@@2W4_Iostate@12@B		; std::_Iosb<int>::eofbit
PUBLIC	?failbit@?$_Iosb@H@std@@2W4_Iostate@12@B	; std::_Iosb<int>::failbit
PUBLIC	?badbit@?$_Iosb@H@std@@2W4_Iostate@12@B		; std::_Iosb<int>::badbit
PUBLIC	?_Hardfail@?$_Iosb@H@std@@2W4_Iostate@12@B	; std::_Iosb<int>::_Hardfail
PUBLIC	?in@?$_Iosb@H@std@@2W4_Openmode@12@B		; std::_Iosb<int>::in
PUBLIC	?out@?$_Iosb@H@std@@2W4_Openmode@12@B		; std::_Iosb<int>::out
PUBLIC	?ate@?$_Iosb@H@std@@2W4_Openmode@12@B		; std::_Iosb<int>::ate
PUBLIC	?app@?$_Iosb@H@std@@2W4_Openmode@12@B		; std::_Iosb<int>::app
PUBLIC	?trunc@?$_Iosb@H@std@@2W4_Openmode@12@B		; std::_Iosb<int>::trunc
PUBLIC	?_Nocreate@?$_Iosb@H@std@@2W4_Openmode@12@B	; std::_Iosb<int>::_Nocreate
PUBLIC	?_Noreplace@?$_Iosb@H@std@@2W4_Openmode@12@B	; std::_Iosb<int>::_Noreplace
PUBLIC	?binary@?$_Iosb@H@std@@2W4_Openmode@12@B	; std::_Iosb<int>::binary
PUBLIC	?beg@?$_Iosb@H@std@@2W4_Seekdir@12@B		; std::_Iosb<int>::beg
PUBLIC	?cur@?$_Iosb@H@std@@2W4_Seekdir@12@B		; std::_Iosb<int>::cur
PUBLIC	?end@?$_Iosb@H@std@@2W4_Seekdir@12@B		; std::_Iosb<int>::end
;	COMDAT ?collate@?$_Locbase@H@std@@2HB
CONST	SEGMENT
?collate@?$_Locbase@H@std@@2HB DD 01H			; std::_Locbase<int>::collate
CONST	ENDS
;	COMDAT ?ctype@?$_Locbase@H@std@@2HB
CONST	SEGMENT
?ctype@?$_Locbase@H@std@@2HB DD 02H			; std::_Locbase<int>::ctype
CONST	ENDS
;	COMDAT ?monetary@?$_Locbase@H@std@@2HB
CONST	SEGMENT
?monetary@?$_Locbase@H@std@@2HB DD 04H			; std::_Locbase<int>::monetary
CONST	ENDS
;	COMDAT ?numeric@?$_Locbase@H@std@@2HB
CONST	SEGMENT
?numeric@?$_Locbase@H@std@@2HB DD 08H			; std::_Locbase<int>::numeric
CONST	ENDS
;	COMDAT ?time@?$_Locbase@H@std@@2HB
CONST	SEGMENT
?time@?$_Locbase@H@std@@2HB DD 010H			; std::_Locbase<int>::time
CONST	ENDS
;	COMDAT ?messages@?$_Locbase@H@std@@2HB
CONST	SEGMENT
?messages@?$_Locbase@H@std@@2HB DD 020H			; std::_Locbase<int>::messages
CONST	ENDS
;	COMDAT ?all@?$_Locbase@H@std@@2HB
CONST	SEGMENT
?all@?$_Locbase@H@std@@2HB DD 03fH			; std::_Locbase<int>::all
CONST	ENDS
;	COMDAT ?none@?$_Locbase@H@std@@2HB
CONST	SEGMENT
?none@?$_Locbase@H@std@@2HB DD 00H			; std::_Locbase<int>::none
CONST	ENDS
;	COMDAT ?skipws@?$_Iosb@H@std@@2W4_Fmtflags@12@B
CONST	SEGMENT
?skipws@?$_Iosb@H@std@@2W4_Fmtflags@12@B DD 01H		; std::_Iosb<int>::skipws
CONST	ENDS
;	COMDAT ?unitbuf@?$_Iosb@H@std@@2W4_Fmtflags@12@B
CONST	SEGMENT
?unitbuf@?$_Iosb@H@std@@2W4_Fmtflags@12@B DD 02H	; std::_Iosb<int>::unitbuf
CONST	ENDS
;	COMDAT ?uppercase@?$_Iosb@H@std@@2W4_Fmtflags@12@B
CONST	SEGMENT
?uppercase@?$_Iosb@H@std@@2W4_Fmtflags@12@B DD 04H	; std::_Iosb<int>::uppercase
CONST	ENDS
;	COMDAT ?showbase@?$_Iosb@H@std@@2W4_Fmtflags@12@B
CONST	SEGMENT
?showbase@?$_Iosb@H@std@@2W4_Fmtflags@12@B DD 08H	; std::_Iosb<int>::showbase
CONST	ENDS
;	COMDAT ?showpoint@?$_Iosb@H@std@@2W4_Fmtflags@12@B
CONST	SEGMENT
?showpoint@?$_Iosb@H@std@@2W4_Fmtflags@12@B DD 010H	; std::_Iosb<int>::showpoint
CONST	ENDS
;	COMDAT ?showpos@?$_Iosb@H@std@@2W4_Fmtflags@12@B
CONST	SEGMENT
?showpos@?$_Iosb@H@std@@2W4_Fmtflags@12@B DD 020H	; std::_Iosb<int>::showpos
CONST	ENDS
;	COMDAT ?left@?$_Iosb@H@std@@2W4_Fmtflags@12@B
CONST	SEGMENT
?left@?$_Iosb@H@std@@2W4_Fmtflags@12@B DD 040H		; std::_Iosb<int>::left
CONST	ENDS
;	COMDAT ?right@?$_Iosb@H@std@@2W4_Fmtflags@12@B
CONST	SEGMENT
?right@?$_Iosb@H@std@@2W4_Fmtflags@12@B DD 080H		; std::_Iosb<int>::right
CONST	ENDS
;	COMDAT ?internal@?$_Iosb@H@std@@2W4_Fmtflags@12@B
CONST	SEGMENT
?internal@?$_Iosb@H@std@@2W4_Fmtflags@12@B DD 0100H	; std::_Iosb<int>::internal
CONST	ENDS
;	COMDAT ?dec@?$_Iosb@H@std@@2W4_Fmtflags@12@B
CONST	SEGMENT
?dec@?$_Iosb@H@std@@2W4_Fmtflags@12@B DD 0200H		; std::_Iosb<int>::dec
CONST	ENDS
;	COMDAT ?oct@?$_Iosb@H@std@@2W4_Fmtflags@12@B
CONST	SEGMENT
?oct@?$_Iosb@H@std@@2W4_Fmtflags@12@B DD 0400H		; std::_Iosb<int>::oct
CONST	ENDS
;	COMDAT ?hex@?$_Iosb@H@std@@2W4_Fmtflags@12@B
CONST	SEGMENT
?hex@?$_Iosb@H@std@@2W4_Fmtflags@12@B DD 0800H		; std::_Iosb<int>::hex
CONST	ENDS
;	COMDAT ?scientific@?$_Iosb@H@std@@2W4_Fmtflags@12@B
CONST	SEGMENT
?scientific@?$_Iosb@H@std@@2W4_Fmtflags@12@B DD 01000H	; std::_Iosb<int>::scientific
CONST	ENDS
;	COMDAT ?fixed@?$_Iosb@H@std@@2W4_Fmtflags@12@B
CONST	SEGMENT
?fixed@?$_Iosb@H@std@@2W4_Fmtflags@12@B DD 02000H	; std::_Iosb<int>::fixed
CONST	ENDS
;	COMDAT ?boolalpha@?$_Iosb@H@std@@2W4_Fmtflags@12@B
CONST	SEGMENT
?boolalpha@?$_Iosb@H@std@@2W4_Fmtflags@12@B DD 04000H	; std::_Iosb<int>::boolalpha
CONST	ENDS
;	COMDAT ?_Stdio@?$_Iosb@H@std@@2W4_Fmtflags@12@B
CONST	SEGMENT
?_Stdio@?$_Iosb@H@std@@2W4_Fmtflags@12@B DD 08000H	; std::_Iosb<int>::_Stdio
CONST	ENDS
;	COMDAT ?adjustfield@?$_Iosb@H@std@@2W4_Fmtflags@12@B
CONST	SEGMENT
?adjustfield@?$_Iosb@H@std@@2W4_Fmtflags@12@B DD 01c0H	; std::_Iosb<int>::adjustfield
CONST	ENDS
;	COMDAT ?basefield@?$_Iosb@H@std@@2W4_Fmtflags@12@B
CONST	SEGMENT
?basefield@?$_Iosb@H@std@@2W4_Fmtflags@12@B DD 0e00H	; std::_Iosb<int>::basefield
CONST	ENDS
;	COMDAT ?floatfield@?$_Iosb@H@std@@2W4_Fmtflags@12@B
CONST	SEGMENT
?floatfield@?$_Iosb@H@std@@2W4_Fmtflags@12@B DD 03000H	; std::_Iosb<int>::floatfield
CONST	ENDS
;	COMDAT ?goodbit@?$_Iosb@H@std@@2W4_Iostate@12@B
CONST	SEGMENT
?goodbit@?$_Iosb@H@std@@2W4_Iostate@12@B DD 00H		; std::_Iosb<int>::goodbit
CONST	ENDS
;	COMDAT ?eofbit@?$_Iosb@H@std@@2W4_Iostate@12@B
CONST	SEGMENT
?eofbit@?$_Iosb@H@std@@2W4_Iostate@12@B DD 01H		; std::_Iosb<int>::eofbit
CONST	ENDS
;	COMDAT ?failbit@?$_Iosb@H@std@@2W4_Iostate@12@B
CONST	SEGMENT
?failbit@?$_Iosb@H@std@@2W4_Iostate@12@B DD 02H		; std::_Iosb<int>::failbit
CONST	ENDS
;	COMDAT ?badbit@?$_Iosb@H@std@@2W4_Iostate@12@B
CONST	SEGMENT
?badbit@?$_Iosb@H@std@@2W4_Iostate@12@B DD 04H		; std::_Iosb<int>::badbit
CONST	ENDS
;	COMDAT ?_Hardfail@?$_Iosb@H@std@@2W4_Iostate@12@B
CONST	SEGMENT
?_Hardfail@?$_Iosb@H@std@@2W4_Iostate@12@B DD 010H	; std::_Iosb<int>::_Hardfail
CONST	ENDS
;	COMDAT ?in@?$_Iosb@H@std@@2W4_Openmode@12@B
CONST	SEGMENT
?in@?$_Iosb@H@std@@2W4_Openmode@12@B DD 01H		; std::_Iosb<int>::in
CONST	ENDS
;	COMDAT ?out@?$_Iosb@H@std@@2W4_Openmode@12@B
CONST	SEGMENT
?out@?$_Iosb@H@std@@2W4_Openmode@12@B DD 02H		; std::_Iosb<int>::out
CONST	ENDS
;	COMDAT ?ate@?$_Iosb@H@std@@2W4_Openmode@12@B
CONST	SEGMENT
?ate@?$_Iosb@H@std@@2W4_Openmode@12@B DD 04H		; std::_Iosb<int>::ate
CONST	ENDS
;	COMDAT ?app@?$_Iosb@H@std@@2W4_Openmode@12@B
CONST	SEGMENT
?app@?$_Iosb@H@std@@2W4_Openmode@12@B DD 08H		; std::_Iosb<int>::app
CONST	ENDS
;	COMDAT ?trunc@?$_Iosb@H@std@@2W4_Openmode@12@B
CONST	SEGMENT
?trunc@?$_Iosb@H@std@@2W4_Openmode@12@B DD 010H		; std::_Iosb<int>::trunc
CONST	ENDS
;	COMDAT ?_Nocreate@?$_Iosb@H@std@@2W4_Openmode@12@B
CONST	SEGMENT
?_Nocreate@?$_Iosb@H@std@@2W4_Openmode@12@B DD 040H	; std::_Iosb<int>::_Nocreate
CONST	ENDS
;	COMDAT ?_Noreplace@?$_Iosb@H@std@@2W4_Openmode@12@B
CONST	SEGMENT
?_Noreplace@?$_Iosb@H@std@@2W4_Openmode@12@B DD 080H	; std::_Iosb<int>::_Noreplace
CONST	ENDS
;	COMDAT ?binary@?$_Iosb@H@std@@2W4_Openmode@12@B
CONST	SEGMENT
?binary@?$_Iosb@H@std@@2W4_Openmode@12@B DD 020H	; std::_Iosb<int>::binary
CONST	ENDS
;	COMDAT ?beg@?$_Iosb@H@std@@2W4_Seekdir@12@B
CONST	SEGMENT
?beg@?$_Iosb@H@std@@2W4_Seekdir@12@B DD 00H		; std::_Iosb<int>::beg
CONST	ENDS
;	COMDAT ?cur@?$_Iosb@H@std@@2W4_Seekdir@12@B
CONST	SEGMENT
?cur@?$_Iosb@H@std@@2W4_Seekdir@12@B DD 01H		; std::_Iosb<int>::cur
CONST	ENDS
;	COMDAT ?end@?$_Iosb@H@std@@2W4_Seekdir@12@B
CONST	SEGMENT
?end@?$_Iosb@H@std@@2W4_Seekdir@12@B DD 02H		; std::_Iosb<int>::end
CONST	ENDS
CONST	SEGMENT
$SG83649 DB	'\', 00H
	ORG $+2
$SG83657 DB	'\temp', 00H
$SG83928 DB	00H
	ORG $+1
$SG83943 DB	'\', 00H
$SG83979 DB	00H
$SG83991 DB	00H
$SG84006 DB	'\*', 00H
	ORG $+1
$SG84015 DB	'.', 00H
	ORG $+2
$SG84016 DB	'..', 00H
	ORG $+1
$SG84021 DB	'\', 00H
$SG84024 DB	00H
	ORG $+1
$SG84051 DB	'\', 00H
	ORG $+2
$SG84054 DB	'\*', 00H
	ORG $+1
$SG84066 DB	'\', 00H
	ORG $+2
$SG84079 DB	'\', 00H
	ORG $+2
$SG84082 DB	'.', 00H
	ORG $+2
$SG84083 DB	'..', 00H
	ORG $+1
$SG84087 DB	'\', 00H
	ORG $+2
$SG84093 DB	'\', 00H
	ORG $+2
$SG84105 DB	'\*', 00H
	ORG $+1
$SG84114 DB	'.', 00H
	ORG $+2
$SG84115 DB	'..', 00H
CONST	ENDS
PUBLIC	?GetWindowsDir@YL_DirInfo@@SA_NQADI@Z		; YL_DirInfo::GetWindowsDir
PUBLIC	?GetWindowsDir@YL_DirInfo@@SA_NAAV?$basic_string@DU?$char_traits@D@std@@V?$allocator@D@2@@std@@@Z ; YL_DirInfo::GetWindowsDir
EXTRN	__imp_??1?$basic_string@DU?$char_traits@D@std@@V?$allocator@D@2@@std@@QAE@XZ:NEAR
EXTRN	__imp_?c_str@?$basic_string@DU?$char_traits@D@std@@V?$allocator@D@2@@std@@QBEPBDXZ:NEAR
EXTRN	__imp_?length@?$basic_string@DU?$char_traits@D@std@@V?$allocator@D@2@@std@@QBEIXZ:NEAR
EXTRN	_strcpy:NEAR
EXTRN	__RTC_InitBase:NEAR
EXTRN	__RTC_Shutdown:NEAR
EXTRN	__RTC_CheckEsp:NEAR
EXTRN	__except_list:DWORD
EXTRN	___security_cookie:DWORD
EXTRN	@_RTC_CheckStackVars@8:NEAR
EXTRN	@__security_check_cookie@4:NEAR
EXTRN	___CxxFrameHandler:NEAR
EXTRN	__imp_??0?$basic_string@DU?$char_traits@D@std@@V?$allocator@D@2@@std@@QAE@XZ:NEAR
;	COMDAT rtc$IMZ
; File d:\boxgit\playbox\commonlib\common\yl_dirinfo.cpp
rtc$IMZ	SEGMENT
__RTC_InitBase.rtc$IMZ DD FLAT:__RTC_InitBase
rtc$IMZ	ENDS
;	COMDAT rtc$TMZ
rtc$TMZ	SEGMENT
__RTC_Shutdown.rtc$TMZ DD FLAT:__RTC_Shutdown
rtc$TMZ	ENDS
xdata$x	SEGMENT
$T88971	DD	0ffffffffH
	DD	FLAT:$L88956
$T88960	DD	019930520H
	DD	01H
	DD	FLAT:$T88971
	DD	2 DUP(00H)
	DD	2 DUP(00H)
; Function compile flags: /Odt /RTCsu
xdata$x	ENDS
_TEXT	SEGMENT
$T88949 = -54						; size = 1
$T88948 = -53						; size = 1
_strDir$ = -48						; size = 28
__$ArrayPad$ = -16					; size = 4
__$EHRec$ = -12						; size = 12
__$ReturnAddr$ = 4					; size = 4
_szDirBuffer$ = 8					; size = 4
_unBuffLen$ = 12					; size = 4
?GetWindowsDir@YL_DirInfo@@SA_NQADI@Z PROC NEAR		; YL_DirInfo::GetWindowsDir

; 9    : {

  00000	55		 push	 ebp
  00001	8b ec		 mov	 ebp, esp
  00003	6a ff		 push	 -1
  00005	68 00 00 00 00	 push	 __ehhandler$?GetWindowsDir@YL_DirInfo@@SA_NQADI@Z
  0000a	64 a1 00 00 00
	00		 mov	 eax, DWORD PTR fs:__except_list
  00010	50		 push	 eax
  00011	64 89 25 00 00
	00 00		 mov	 DWORD PTR fs:__except_list, esp
  00018	83 ec 2c	 sub	 esp, 44			; 0000002cH
  0001b	56		 push	 esi
  0001c	57		 push	 edi
  0001d	8d 7d c8	 lea	 edi, DWORD PTR [ebp-56]
  00020	b9 0b 00 00 00	 mov	 ecx, 11			; 0000000bH
  00025	b8 cc cc cc cc	 mov	 eax, -858993460		; ccccccccH
  0002a	f3 ab		 rep stosd
  0002c	a1 00 00 00 00	 mov	 eax, DWORD PTR ___security_cookie
  00031	89 45 f0	 mov	 DWORD PTR __$ArrayPad$[ebp], eax

; 10   : 	string strDir;

  00034	8b f4		 mov	 esi, esp
  00036	8d 4d d0	 lea	 ecx, DWORD PTR _strDir$[ebp]
  00039	ff 15 00 00 00
	00		 call	 DWORD PTR __imp_??0?$basic_string@DU?$char_traits@D@std@@V?$allocator@D@2@@std@@QAE@XZ
  0003f	3b f4		 cmp	 esi, esp
  00041	e8 00 00 00 00	 call	 __RTC_CheckEsp
  00046	c7 45 fc 00 00
	00 00		 mov	 DWORD PTR __$EHRec$[ebp+8], 0

; 11   : 	if( GetWindowsDir(strDir) && strDir.length() <= unBuffLen-1)

  0004d	8d 45 d0	 lea	 eax, DWORD PTR _strDir$[ebp]
  00050	50		 push	 eax
  00051	e8 00 00 00 00	 call	 ?GetWindowsDir@YL_DirInfo@@SA_NAAV?$basic_string@DU?$char_traits@D@std@@V?$allocator@D@2@@std@@@Z ; YL_DirInfo::GetWindowsDir
  00056	83 c4 04	 add	 esp, 4
  00059	0f b6 c8	 movzx	 ecx, al
  0005c	85 c9		 test	 ecx, ecx
  0005e	74 5d		 je	 SHORT $L83612
  00060	8b f4		 mov	 esi, esp
  00062	8d 4d d0	 lea	 ecx, DWORD PTR _strDir$[ebp]
  00065	ff 15 00 00 00
	00		 call	 DWORD PTR __imp_?length@?$basic_string@DU?$char_traits@D@std@@V?$allocator@D@2@@std@@QBEIXZ
  0006b	3b f4		 cmp	 esi, esp
  0006d	e8 00 00 00 00	 call	 __RTC_CheckEsp
  00072	8b 55 0c	 mov	 edx, DWORD PTR _unBuffLen$[ebp]
  00075	83 ea 01	 sub	 edx, 1
  00078	3b c2		 cmp	 eax, edx
  0007a	77 41		 ja	 SHORT $L83612

; 12   : 	{
; 13   : 		strcpy(szDirBuffer,strDir.c_str());

  0007c	8b f4		 mov	 esi, esp
  0007e	8d 4d d0	 lea	 ecx, DWORD PTR _strDir$[ebp]
  00081	ff 15 00 00 00
	00		 call	 DWORD PTR __imp_?c_str@?$basic_string@DU?$char_traits@D@std@@V?$allocator@D@2@@std@@QBEPBDXZ
  00087	3b f4		 cmp	 esi, esp
  00089	e8 00 00 00 00	 call	 __RTC_CheckEsp
  0008e	50		 push	 eax
  0008f	8b 45 08	 mov	 eax, DWORD PTR _szDirBuffer$[ebp]
  00092	50		 push	 eax
  00093	e8 00 00 00 00	 call	 _strcpy
  00098	83 c4 08	 add	 esp, 8

; 14   : 		return true;

  0009b	c6 45 cb 01	 mov	 BYTE PTR $T88948[ebp], 1
  0009f	c7 45 fc ff ff
	ff ff		 mov	 DWORD PTR __$EHRec$[ebp+8], -1
  000a6	8b f4		 mov	 esi, esp
  000a8	8d 4d d0	 lea	 ecx, DWORD PTR _strDir$[ebp]
  000ab	ff 15 00 00 00
	00		 call	 DWORD PTR __imp_??1?$basic_string@DU?$char_traits@D@std@@V?$allocator@D@2@@std@@QAE@XZ
  000b1	3b f4		 cmp	 esi, esp
  000b3	e8 00 00 00 00	 call	 __RTC_CheckEsp
  000b8	8a 45 cb	 mov	 al, BYTE PTR $T88948[ebp]
  000bb	eb 20		 jmp	 SHORT $L83610
$L83612:

; 15   : 	}
; 16   : 	return false;

  000bd	c6 45 ca 00	 mov	 BYTE PTR $T88949[ebp], 0
  000c1	c7 45 fc ff ff
	ff ff		 mov	 DWORD PTR __$EHRec$[ebp+8], -1
  000c8	8b f4		 mov	 esi, esp
  000ca	8d 4d d0	 lea	 ecx, DWORD PTR _strDir$[ebp]
  000cd	ff 15 00 00 00
	00		 call	 DWORD PTR __imp_??1?$basic_string@DU?$char_traits@D@std@@V?$allocator@D@2@@std@@QAE@XZ
  000d3	3b f4		 cmp	 esi, esp
  000d5	e8 00 00 00 00	 call	 __RTC_CheckEsp
  000da	8a 45 ca	 mov	 al, BYTE PTR $T88949[ebp]
$L83610:

; 17   : }

  000dd	52		 push	 edx
  000de	8b cd		 mov	 ecx, ebp
  000e0	50		 push	 eax
  000e1	8d 15 00 00 00
	00		 lea	 edx, DWORD PTR $L88968
  000e7	e8 00 00 00 00	 call	 @_RTC_CheckStackVars@8
  000ec	58		 pop	 eax
  000ed	5a		 pop	 edx
  000ee	8b 4d f4	 mov	 ecx, DWORD PTR __$EHRec$[ebp]
  000f1	64 89 0d 00 00
	00 00		 mov	 DWORD PTR fs:__except_list, ecx
  000f8	8b 4d f0	 mov	 ecx, DWORD PTR __$ArrayPad$[ebp]
  000fb	e8 00 00 00 00	 call	 @__security_check_cookie@4
  00100	5f		 pop	 edi
  00101	5e		 pop	 esi
  00102	83 c4 38	 add	 esp, 56			; 00000038H
  00105	3b ec		 cmp	 ebp, esp
  00107	e8 00 00 00 00	 call	 __RTC_CheckEsp
  0010c	8b e5		 mov	 esp, ebp
  0010e	5d		 pop	 ebp
  0010f	c3		 ret	 0
$L88968:
  00110	01 00 00 00	 DD	 1
  00114	00 00 00 00	 DD	 $L88967
$L88967:
  00118	d0 ff ff ff	 DD	 -48			; ffffffd0H
  0011c	1c 00 00 00	 DD	 28			; 0000001cH
  00120	00 00 00 00	 DD	 $L88962
$L88962:
  00124	73		 DB	 115			; 00000073H
  00125	74		 DB	 116			; 00000074H
  00126	72		 DB	 114			; 00000072H
  00127	44		 DB	 68			; 00000044H
  00128	69		 DB	 105			; 00000069H
  00129	72		 DB	 114			; 00000072H
  0012a	00		 DB	 0
_TEXT	ENDS
text$x	SEGMENT
$L88956:
  00000	8b f4		 mov	 esi, esp
  00002	8d 4d d0	 lea	 ecx, DWORD PTR _strDir$[ebp]
  00005	ff 15 00 00 00
	00		 call	 DWORD PTR __imp_??1?$basic_string@DU?$char_traits@D@std@@V?$allocator@D@2@@std@@QAE@XZ
  0000b	3b f4		 cmp	 esi, esp
  0000d	e9 00 00 00 00	 jmp	 __RTC_CheckEsp
__ehhandler$?GetWindowsDir@YL_DirInfo@@SA_NQADI@Z:
  00012	b8 00 00 00 00	 mov	 eax, OFFSET FLAT:$T88960
  00017	e9 00 00 00 00	 jmp	 ___CxxFrameHandler
text$x	ENDS
?GetWindowsDir@YL_DirInfo@@SA_NQADI@Z ENDP		; YL_DirInfo::GetWindowsDir
EXTRN	__imp_??4?$basic_string@DU?$char_traits@D@std@@V?$allocator@D@2@@std@@QAEAAV01@PBD@Z:NEAR
EXTRN	__imp__SHGetFolderPathA@20:NEAR
; Function compile flags: /Odt /RTCsu
_TEXT	SEGMENT
_szPath$ = -520						; size = 512
__$ArrayPad$ = -4					; size = 4
__$ReturnAddr$ = 4					; size = 4
_strDir$ = 8						; size = 4
?GetWindowsDir@YL_DirInfo@@SA_NAAV?$basic_string@DU?$char_traits@D@std@@V?$allocator@D@2@@std@@@Z PROC NEAR ; YL_DirInfo::GetWindowsDir

; 20   : {

  00130	55		 push	 ebp
  00131	8b ec		 mov	 ebp, esp
  00133	81 ec 0c 02 00
	00		 sub	 esp, 524		; 0000020cH
  00139	56		 push	 esi
  0013a	57		 push	 edi
  0013b	8d bd f4 fd ff
	ff		 lea	 edi, DWORD PTR [ebp-524]
  00141	b9 83 00 00 00	 mov	 ecx, 131		; 00000083H
  00146	b8 cc cc cc cc	 mov	 eax, -858993460		; ccccccccH
  0014b	f3 ab		 rep stosd
  0014d	a1 00 00 00 00	 mov	 eax, DWORD PTR ___security_cookie
  00152	89 45 fc	 mov	 DWORD PTR __$ArrayPad$[ebp], eax

; 21   : 	char szPath[512];	
; 22   : 	if( SUCCEEDED(SHGetFolderPath(NULL, CSIDL_WINDOWS, NULL, 0, szPath)) ) 

  00155	8b f4		 mov	 esi, esp
  00157	8d 85 f8 fd ff
	ff		 lea	 eax, DWORD PTR _szPath$[ebp]
  0015d	50		 push	 eax
  0015e	6a 00		 push	 0
  00160	6a 00		 push	 0
  00162	6a 24		 push	 36			; 00000024H
  00164	6a 00		 push	 0
  00166	ff 15 00 00 00
	00		 call	 DWORD PTR __imp__SHGetFolderPathA@20
  0016c	3b f4		 cmp	 esi, esp
  0016e	e8 00 00 00 00	 call	 __RTC_CheckEsp
  00173	85 c0		 test	 eax, eax
  00175	7c 1d		 jl	 SHORT $L83620

; 23   : 	{
; 24   : 		strDir = szPath;

  00177	8b f4		 mov	 esi, esp
  00179	8d 8d f8 fd ff
	ff		 lea	 ecx, DWORD PTR _szPath$[ebp]
  0017f	51		 push	 ecx
  00180	8b 4d 08	 mov	 ecx, DWORD PTR _strDir$[ebp]
  00183	ff 15 00 00 00
	00		 call	 DWORD PTR __imp_??4?$basic_string@DU?$char_traits@D@std@@V?$allocator@D@2@@std@@QAEAAV01@PBD@Z
  00189	3b f4		 cmp	 esi, esp
  0018b	e8 00 00 00 00	 call	 __RTC_CheckEsp

; 25   : 		return true;

  00190	b0 01		 mov	 al, 1
  00192	eb 02		 jmp	 SHORT $L83617
$L83620:

; 26   : 	}
; 27   : 	return false;

  00194	32 c0		 xor	 al, al
$L83617:

; 28   : }

  00196	52		 push	 edx
  00197	8b cd		 mov	 ecx, ebp
  00199	50		 push	 eax
  0019a	8d 15 00 00 00
	00		 lea	 edx, DWORD PTR $L88978
  001a0	e8 00 00 00 00	 call	 @_RTC_CheckStackVars@8
  001a5	58		 pop	 eax
  001a6	5a		 pop	 edx
  001a7	8b 4d fc	 mov	 ecx, DWORD PTR __$ArrayPad$[ebp]
  001aa	e8 00 00 00 00	 call	 @__security_check_cookie@4
  001af	5f		 pop	 edi
  001b0	5e		 pop	 esi
  001b1	81 c4 0c 02 00
	00		 add	 esp, 524		; 0000020cH
  001b7	3b ec		 cmp	 ebp, esp
  001b9	e8 00 00 00 00	 call	 __RTC_CheckEsp
  001be	8b e5		 mov	 esp, ebp
  001c0	5d		 pop	 ebp
  001c1	c3		 ret	 0
$L88978:
  001c2	01 00 00 00	 DD	 1
  001c6	00 00 00 00	 DD	 $L88977
$L88977:
  001ca	f8 fd ff ff	 DD	 -520			; fffffdf8H
  001ce	00 02 00 00	 DD	 512			; 00000200H
  001d2	00 00 00 00	 DD	 $L88975
$L88975:
  001d6	73		 DB	 115			; 00000073H
  001d7	7a		 DB	 122			; 0000007aH
  001d8	50		 DB	 80			; 00000050H
  001d9	61		 DB	 97			; 00000061H
  001da	74		 DB	 116			; 00000074H
  001db	68		 DB	 104			; 00000068H
  001dc	00		 DB	 0
?GetWindowsDir@YL_DirInfo@@SA_NAAV?$basic_string@DU?$char_traits@D@std@@V?$allocator@D@2@@std@@@Z ENDP ; YL_DirInfo::GetWindowsDir
_TEXT	ENDS
PUBLIC	?GetSystemDir@YL_DirInfo@@SA_NQADI@Z		; YL_DirInfo::GetSystemDir
PUBLIC	?GetSystemDir@YL_DirInfo@@SA_NAAV?$basic_string@DU?$char_traits@D@std@@V?$allocator@D@2@@std@@@Z ; YL_DirInfo::GetSystemDir
xdata$x	SEGMENT
$T88991	DD	0ffffffffH
	DD	FLAT:$L88983
$T88985	DD	019930520H
	DD	01H
	DD	FLAT:$T88991
	DD	2 DUP(00H)
	DD	2 DUP(00H)
; Function compile flags: /Odt /RTCsu
xdata$x	ENDS
_TEXT	SEGMENT
$T88982 = -54						; size = 1
$T88981 = -53						; size = 1
_strDir$ = -48						; size = 28
__$ArrayPad$ = -16					; size = 4
__$EHRec$ = -12						; size = 12
__$ReturnAddr$ = 4					; size = 4
_szDirBuffer$ = 8					; size = 4
_unBuffLen$ = 12					; size = 4
?GetSystemDir@YL_DirInfo@@SA_NQADI@Z PROC NEAR		; YL_DirInfo::GetSystemDir

; 32   : {

  001e0	55		 push	 ebp
  001e1	8b ec		 mov	 ebp, esp
  001e3	6a ff		 push	 -1
  001e5	68 00 00 00 00	 push	 __ehhandler$?GetSystemDir@YL_DirInfo@@SA_NQADI@Z
  001ea	64 a1 00 00 00
	00		 mov	 eax, DWORD PTR fs:__except_list
  001f0	50		 push	 eax
  001f1	64 89 25 00 00
	00 00		 mov	 DWORD PTR fs:__except_list, esp
  001f8	83 ec 2c	 sub	 esp, 44			; 0000002cH
  001fb	56		 push	 esi
  001fc	57		 push	 edi
  001fd	8d 7d c8	 lea	 edi, DWORD PTR [ebp-56]
  00200	b9 0b 00 00 00	 mov	 ecx, 11			; 0000000bH
  00205	b8 cc cc cc cc	 mov	 eax, -858993460		; ccccccccH
  0020a	f3 ab		 rep stosd
  0020c	a1 00 00 00 00	 mov	 eax, DWORD PTR ___security_cookie
  00211	89 45 f0	 mov	 DWORD PTR __$ArrayPad$[ebp], eax

; 33   : 	string strDir;

  00214	8b f4		 mov	 esi, esp
  00216	8d 4d d0	 lea	 ecx, DWORD PTR _strDir$[ebp]
  00219	ff 15 00 00 00
	00		 call	 DWORD PTR __imp_??0?$basic_string@DU?$char_traits@D@std@@V?$allocator@D@2@@std@@QAE@XZ
  0021f	3b f4		 cmp	 esi, esp
  00221	e8 00 00 00 00	 call	 __RTC_CheckEsp
  00226	c7 45 fc 00 00
	00 00		 mov	 DWORD PTR __$EHRec$[ebp+8], 0

; 34   : 	if( GetSystemDir(strDir) && strDir.length() <= unBuffLen-1)

  0022d	8d 45 d0	 lea	 eax, DWORD PTR _strDir$[ebp]
  00230	50		 push	 eax
  00231	e8 00 00 00 00	 call	 ?GetSystemDir@YL_DirInfo@@SA_NAAV?$basic_string@DU?$char_traits@D@std@@V?$allocator@D@2@@std@@@Z ; YL_DirInfo::GetSystemDir
  00236	83 c4 04	 add	 esp, 4
  00239	0f b6 c8	 movzx	 ecx, al
  0023c	85 c9		 test	 ecx, ecx
  0023e	74 5d		 je	 SHORT $L83626
  00240	8b f4		 mov	 esi, esp
  00242	8d 4d d0	 lea	 ecx, DWORD PTR _strDir$[ebp]
  00245	ff 15 00 00 00
	00		 call	 DWORD PTR __imp_?length@?$basic_string@DU?$char_traits@D@std@@V?$allocator@D@2@@std@@QBEIXZ
  0024b	3b f4		 cmp	 esi, esp
  0024d	e8 00 00 00 00	 call	 __RTC_CheckEsp
  00252	8b 55 0c	 mov	 edx, DWORD PTR _unBuffLen$[ebp]
  00255	83 ea 01	 sub	 edx, 1
  00258	3b c2		 cmp	 eax, edx
  0025a	77 41		 ja	 SHORT $L83626

; 35   : 	{
; 36   : 		strcpy(szDirBuffer,strDir.c_str());

  0025c	8b f4		 mov	 esi, esp
  0025e	8d 4d d0	 lea	 ecx, DWORD PTR _strDir$[ebp]
  00261	ff 15 00 00 00
	00		 call	 DWORD PTR __imp_?c_str@?$basic_string@DU?$char_traits@D@std@@V?$allocator@D@2@@std@@QBEPBDXZ
  00267	3b f4		 cmp	 esi, esp
  00269	e8 00 00 00 00	 call	 __RTC_CheckEsp
  0026e	50		 push	 eax
  0026f	8b 45 08	 mov	 eax, DWORD PTR _szDirBuffer$[ebp]
  00272	50		 push	 eax
  00273	e8 00 00 00 00	 call	 _strcpy
  00278	83 c4 08	 add	 esp, 8

; 37   : 		return true;

  0027b	c6 45 cb 01	 mov	 BYTE PTR $T88981[ebp], 1
  0027f	c7 45 fc ff ff
	ff ff		 mov	 DWORD PTR __$EHRec$[ebp+8], -1
  00286	8b f4		 mov	 esi, esp
  00288	8d 4d d0	 lea	 ecx, DWORD PTR _strDir$[ebp]
  0028b	ff 15 00 00 00
	00		 call	 DWORD PTR __imp_??1?$basic_string@DU?$char_traits@D@std@@V?$allocator@D@2@@std@@QAE@XZ
  00291	3b f4		 cmp	 esi, esp
  00293	e8 00 00 00 00	 call	 __RTC_CheckEsp
  00298	8a 45 cb	 mov	 al, BYTE PTR $T88981[ebp]
  0029b	eb 20		 jmp	 SHORT $L83624
$L83626:

; 38   : 	}
; 39   : 	return false;

  0029d	c6 45 ca 00	 mov	 BYTE PTR $T88982[ebp], 0
  002a1	c7 45 fc ff ff
	ff ff		 mov	 DWORD PTR __$EHRec$[ebp+8], -1
  002a8	8b f4		 mov	 esi, esp
  002aa	8d 4d d0	 lea	 ecx, DWORD PTR _strDir$[ebp]
  002ad	ff 15 00 00 00
	00		 call	 DWORD PTR __imp_??1?$basic_string@DU?$char_traits@D@std@@V?$allocator@D@2@@std@@QAE@XZ
  002b3	3b f4		 cmp	 esi, esp
  002b5	e8 00 00 00 00	 call	 __RTC_CheckEsp
  002ba	8a 45 ca	 mov	 al, BYTE PTR $T88982[ebp]
$L83624:

; 40   : }

  002bd	52		 push	 edx
  002be	8b cd		 mov	 ecx, ebp
  002c0	50		 push	 eax
  002c1	8d 15 00 00 00
	00		 lea	 edx, DWORD PTR $L88990
  002c7	e8 00 00 00 00	 call	 @_RTC_CheckStackVars@8
  002cc	58		 pop	 eax
  002cd	5a		 pop	 edx
  002ce	8b 4d f4	 mov	 ecx, DWORD PTR __$EHRec$[ebp]
  002d1	64 89 0d 00 00
	00 00		 mov	 DWORD PTR fs:__except_list, ecx
  002d8	8b 4d f0	 mov	 ecx, DWORD PTR __$ArrayPad$[ebp]
  002db	e8 00 00 00 00	 call	 @__security_check_cookie@4
  002e0	5f		 pop	 edi
  002e1	5e		 pop	 esi
  002e2	83 c4 38	 add	 esp, 56			; 00000038H
  002e5	3b ec		 cmp	 ebp, esp
  002e7	e8 00 00 00 00	 call	 __RTC_CheckEsp
  002ec	8b e5		 mov	 esp, ebp
  002ee	5d		 pop	 ebp
  002ef	c3		 ret	 0
$L88990:
  002f0	01 00 00 00	 DD	 1
  002f4	00 00 00 00	 DD	 $L88989
$L88989:
  002f8	d0 ff ff ff	 DD	 -48			; ffffffd0H
  002fc	1c 00 00 00	 DD	 28			; 0000001cH
  00300	00 00 00 00	 DD	 $L88986
$L88986:
  00304	73		 DB	 115			; 00000073H
  00305	74		 DB	 116			; 00000074H
  00306	72		 DB	 114			; 00000072H
  00307	44		 DB	 68			; 00000044H
  00308	69		 DB	 105			; 00000069H
  00309	72		 DB	 114			; 00000072H
  0030a	00		 DB	 0
_TEXT	ENDS
text$x	SEGMENT
$L88983:
  0001c	8b f4		 mov	 esi, esp
  0001e	8d 4d d0	 lea	 ecx, DWORD PTR _strDir$[ebp]
  00021	ff 15 00 00 00
	00		 call	 DWORD PTR __imp_??1?$basic_string@DU?$char_traits@D@std@@V?$allocator@D@2@@std@@QAE@XZ
  00027	3b f4		 cmp	 esi, esp
  00029	e9 00 00 00 00	 jmp	 __RTC_CheckEsp
__ehhandler$?GetSystemDir@YL_DirInfo@@SA_NQADI@Z:
  0002e	b8 00 00 00 00	 mov	 eax, OFFSET FLAT:$T88985
  00033	e9 00 00 00 00	 jmp	 ___CxxFrameHandler
text$x	ENDS
?GetSystemDir@YL_DirInfo@@SA_NQADI@Z ENDP		; YL_DirInfo::GetSystemDir
; Function compile flags: /Odt /RTCsu
_TEXT	SEGMENT
_szPath$ = -520						; size = 512
__$ArrayPad$ = -4					; size = 4
__$ReturnAddr$ = 4					; size = 4
_strDir$ = 8						; size = 4
?GetSystemDir@YL_DirInfo@@SA_NAAV?$basic_string@DU?$char_traits@D@std@@V?$allocator@D@2@@std@@@Z PROC NEAR ; YL_DirInfo::GetSystemDir

; 43   : {

  00310	55		 push	 ebp
  00311	8b ec		 mov	 ebp, esp
  00313	81 ec 0c 02 00
	00		 sub	 esp, 524		; 0000020cH
  00319	56		 push	 esi
  0031a	57		 push	 edi
  0031b	8d bd f4 fd ff
	ff		 lea	 edi, DWORD PTR [ebp-524]
  00321	b9 83 00 00 00	 mov	 ecx, 131		; 00000083H
  00326	b8 cc cc cc cc	 mov	 eax, -858993460		; ccccccccH
  0032b	f3 ab		 rep stosd
  0032d	a1 00 00 00 00	 mov	 eax, DWORD PTR ___security_cookie
  00332	89 45 fc	 mov	 DWORD PTR __$ArrayPad$[ebp], eax

; 44   : 	char szPath[512];	
; 45   : 	if(SUCCEEDED(SHGetFolderPath(NULL, CSIDL_SYSTEM, NULL, 0, szPath))) 

  00335	8b f4		 mov	 esi, esp
  00337	8d 85 f8 fd ff
	ff		 lea	 eax, DWORD PTR _szPath$[ebp]
  0033d	50		 push	 eax
  0033e	6a 00		 push	 0
  00340	6a 00		 push	 0
  00342	6a 25		 push	 37			; 00000025H
  00344	6a 00		 push	 0
  00346	ff 15 00 00 00
	00		 call	 DWORD PTR __imp__SHGetFolderPathA@20
  0034c	3b f4		 cmp	 esi, esp
  0034e	e8 00 00 00 00	 call	 __RTC_CheckEsp
  00353	85 c0		 test	 eax, eax
  00355	7c 1d		 jl	 SHORT $L83634

; 46   : 	{
; 47   : 		strDir = szPath;

  00357	8b f4		 mov	 esi, esp
  00359	8d 8d f8 fd ff
	ff		 lea	 ecx, DWORD PTR _szPath$[ebp]
  0035f	51		 push	 ecx
  00360	8b 4d 08	 mov	 ecx, DWORD PTR _strDir$[ebp]
  00363	ff 15 00 00 00
	00		 call	 DWORD PTR __imp_??4?$basic_string@DU?$char_traits@D@std@@V?$allocator@D@2@@std@@QAEAAV01@PBD@Z
  00369	3b f4		 cmp	 esi, esp
  0036b	e8 00 00 00 00	 call	 __RTC_CheckEsp

; 48   : 		return true;

  00370	b0 01		 mov	 al, 1
  00372	eb 02		 jmp	 SHORT $L83631
$L83634:

; 49   : 	}
; 50   : 	return false;

  00374	32 c0		 xor	 al, al
$L83631:

; 51   : }

  00376	52		 push	 edx
  00377	8b cd		 mov	 ecx, ebp
  00379	50		 push	 eax
  0037a	8d 15 00 00 00
	00		 lea	 edx, DWORD PTR $L88997
  00380	e8 00 00 00 00	 call	 @_RTC_CheckStackVars@8
  00385	58		 pop	 eax
  00386	5a		 pop	 edx
  00387	8b 4d fc	 mov	 ecx, DWORD PTR __$ArrayPad$[ebp]
  0038a	e8 00 00 00 00	 call	 @__security_check_cookie@4
  0038f	5f		 pop	 edi
  00390	5e		 pop	 esi
  00391	81 c4 0c 02 00
	00		 add	 esp, 524		; 0000020cH
  00397	3b ec		 cmp	 ebp, esp
  00399	e8 00 00 00 00	 call	 __RTC_CheckEsp
  0039e	8b e5		 mov	 esp, ebp
  003a0	5d		 pop	 ebp
  003a1	c3		 ret	 0
$L88997:
  003a2	01 00 00 00	 DD	 1
  003a6	00 00 00 00	 DD	 $L88996
$L88996:
  003aa	f8 fd ff ff	 DD	 -520			; fffffdf8H
  003ae	00 02 00 00	 DD	 512			; 00000200H
  003b2	00 00 00 00	 DD	 $L88994
$L88994:
  003b6	73		 DB	 115			; 00000073H
  003b7	7a		 DB	 122			; 0000007aH
  003b8	50		 DB	 80			; 00000050H
  003b9	61		 DB	 97			; 00000061H
  003ba	74		 DB	 116			; 00000074H
  003bb	68		 DB	 104			; 00000068H
  003bc	00		 DB	 0
?GetSystemDir@YL_DirInfo@@SA_NAAV?$basic_string@DU?$char_traits@D@std@@V?$allocator@D@2@@std@@@Z ENDP ; YL_DirInfo::GetSystemDir
_TEXT	ENDS
PUBLIC	?GetTempDir@YL_DirInfo@@SA_NQADI@Z		; YL_DirInfo::GetTempDir
PUBLIC	?GetTempDir@YL_DirInfo@@SA_NAAV?$basic_string@DU?$char_traits@D@std@@V?$allocator@D@2@@std@@@Z ; YL_DirInfo::GetTempDir
xdata$x	SEGMENT
$T89010	DD	0ffffffffH
	DD	FLAT:$L89002
$T89004	DD	019930520H
	DD	01H
	DD	FLAT:$T89010
	DD	2 DUP(00H)
	DD	2 DUP(00H)
; Function compile flags: /Odt /RTCsu
xdata$x	ENDS
_TEXT	SEGMENT
$T89001 = -54						; size = 1
$T89000 = -53						; size = 1
_strDir$ = -48						; size = 28
__$ArrayPad$ = -16					; size = 4
__$EHRec$ = -12						; size = 12
__$ReturnAddr$ = 4					; size = 4
_szDirBuffer$ = 8					; size = 4
_unBuffLen$ = 12					; size = 4
?GetTempDir@YL_DirInfo@@SA_NQADI@Z PROC NEAR		; YL_DirInfo::GetTempDir

; 54   : {

  003c0	55		 push	 ebp
  003c1	8b ec		 mov	 ebp, esp
  003c3	6a ff		 push	 -1
  003c5	68 00 00 00 00	 push	 __ehhandler$?GetTempDir@YL_DirInfo@@SA_NQADI@Z
  003ca	64 a1 00 00 00
	00		 mov	 eax, DWORD PTR fs:__except_list
  003d0	50		 push	 eax
  003d1	64 89 25 00 00
	00 00		 mov	 DWORD PTR fs:__except_list, esp
  003d8	83 ec 2c	 sub	 esp, 44			; 0000002cH
  003db	56		 push	 esi
  003dc	57		 push	 edi
  003dd	8d 7d c8	 lea	 edi, DWORD PTR [ebp-56]
  003e0	b9 0b 00 00 00	 mov	 ecx, 11			; 0000000bH
  003e5	b8 cc cc cc cc	 mov	 eax, -858993460		; ccccccccH
  003ea	f3 ab		 rep stosd
  003ec	a1 00 00 00 00	 mov	 eax, DWORD PTR ___security_cookie
  003f1	89 45 f0	 mov	 DWORD PTR __$ArrayPad$[ebp], eax

; 55   : 	string strDir;

  003f4	8b f4		 mov	 esi, esp
  003f6	8d 4d d0	 lea	 ecx, DWORD PTR _strDir$[ebp]
  003f9	ff 15 00 00 00
	00		 call	 DWORD PTR __imp_??0?$basic_string@DU?$char_traits@D@std@@V?$allocator@D@2@@std@@QAE@XZ
  003ff	3b f4		 cmp	 esi, esp
  00401	e8 00 00 00 00	 call	 __RTC_CheckEsp
  00406	c7 45 fc 00 00
	00 00		 mov	 DWORD PTR __$EHRec$[ebp+8], 0

; 56   : 	if( GetTempDir(strDir) && strDir.length() <= unBuffLen-1)

  0040d	8d 45 d0	 lea	 eax, DWORD PTR _strDir$[ebp]
  00410	50		 push	 eax
  00411	e8 00 00 00 00	 call	 ?GetTempDir@YL_DirInfo@@SA_NAAV?$basic_string@DU?$char_traits@D@std@@V?$allocator@D@2@@std@@@Z ; YL_DirInfo::GetTempDir
  00416	83 c4 04	 add	 esp, 4
  00419	0f b6 c8	 movzx	 ecx, al
  0041c	85 c9		 test	 ecx, ecx
  0041e	74 5d		 je	 SHORT $L83640
  00420	8b f4		 mov	 esi, esp
  00422	8d 4d d0	 lea	 ecx, DWORD PTR _strDir$[ebp]
  00425	ff 15 00 00 00
	00		 call	 DWORD PTR __imp_?length@?$basic_string@DU?$char_traits@D@std@@V?$allocator@D@2@@std@@QBEIXZ
  0042b	3b f4		 cmp	 esi, esp
  0042d	e8 00 00 00 00	 call	 __RTC_CheckEsp
  00432	8b 55 0c	 mov	 edx, DWORD PTR _unBuffLen$[ebp]
  00435	83 ea 01	 sub	 edx, 1
  00438	3b c2		 cmp	 eax, edx
  0043a	77 41		 ja	 SHORT $L83640

; 57   : 	{
; 58   : 		strcpy(szDirBuffer,strDir.c_str());

  0043c	8b f4		 mov	 esi, esp
  0043e	8d 4d d0	 lea	 ecx, DWORD PTR _strDir$[ebp]
  00441	ff 15 00 00 00
	00		 call	 DWORD PTR __imp_?c_str@?$basic_string@DU?$char_traits@D@std@@V?$allocator@D@2@@std@@QBEPBDXZ
  00447	3b f4		 cmp	 esi, esp
  00449	e8 00 00 00 00	 call	 __RTC_CheckEsp
  0044e	50		 push	 eax
  0044f	8b 45 08	 mov	 eax, DWORD PTR _szDirBuffer$[ebp]
  00452	50		 push	 eax
  00453	e8 00 00 00 00	 call	 _strcpy
  00458	83 c4 08	 add	 esp, 8

; 59   : 		return true;

  0045b	c6 45 cb 01	 mov	 BYTE PTR $T89000[ebp], 1
  0045f	c7 45 fc ff ff
	ff ff		 mov	 DWORD PTR __$EHRec$[ebp+8], -1
  00466	8b f4		 mov	 esi, esp
  00468	8d 4d d0	 lea	 ecx, DWORD PTR _strDir$[ebp]
  0046b	ff 15 00 00 00
	00		 call	 DWORD PTR __imp_??1?$basic_string@DU?$char_traits@D@std@@V?$allocator@D@2@@std@@QAE@XZ
  00471	3b f4		 cmp	 esi, esp
  00473	e8 00 00 00 00	 call	 __RTC_CheckEsp
  00478	8a 45 cb	 mov	 al, BYTE PTR $T89000[ebp]
  0047b	eb 20		 jmp	 SHORT $L83638
$L83640:

; 60   : 	}
; 61   : 	return false;

  0047d	c6 45 ca 00	 mov	 BYTE PTR $T89001[ebp], 0
  00481	c7 45 fc ff ff
	ff ff		 mov	 DWORD PTR __$EHRec$[ebp+8], -1
  00488	8b f4		 mov	 esi, esp
  0048a	8d 4d d0	 lea	 ecx, DWORD PTR _strDir$[ebp]
  0048d	ff 15 00 00 00
	00		 call	 DWORD PTR __imp_??1?$basic_string@DU?$char_traits@D@std@@V?$allocator@D@2@@std@@QAE@XZ
  00493	3b f4		 cmp	 esi, esp
  00495	e8 00 00 00 00	 call	 __RTC_CheckEsp
  0049a	8a 45 ca	 mov	 al, BYTE PTR $T89001[ebp]
$L83638:

; 62   : }

  0049d	52		 push	 edx
  0049e	8b cd		 mov	 ecx, ebp
  004a0	50		 push	 eax
  004a1	8d 15 00 00 00
	00		 lea	 edx, DWORD PTR $L89009
  004a7	e8 00 00 00 00	 call	 @_RTC_CheckStackVars@8
  004ac	58		 pop	 eax
  004ad	5a		 pop	 edx
  004ae	8b 4d f4	 mov	 ecx, DWORD PTR __$EHRec$[ebp]
  004b1	64 89 0d 00 00
	00 00		 mov	 DWORD PTR fs:__except_list, ecx
  004b8	8b 4d f0	 mov	 ecx, DWORD PTR __$ArrayPad$[ebp]
  004bb	e8 00 00 00 00	 call	 @__security_check_cookie@4
  004c0	5f		 pop	 edi
  004c1	5e		 pop	 esi
  004c2	83 c4 38	 add	 esp, 56			; 00000038H
  004c5	3b ec		 cmp	 ebp, esp
  004c7	e8 00 00 00 00	 call	 __RTC_CheckEsp
  004cc	8b e5		 mov	 esp, ebp
  004ce	5d		 pop	 ebp
  004cf	c3		 ret	 0
$L89009:
  004d0	01 00 00 00	 DD	 1
  004d4	00 00 00 00	 DD	 $L89008
$L89008:
  004d8	d0 ff ff ff	 DD	 -48			; ffffffd0H
  004dc	1c 00 00 00	 DD	 28			; 0000001cH
  004e0	00 00 00 00	 DD	 $L89005
$L89005:
  004e4	73		 DB	 115			; 00000073H
  004e5	74		 DB	 116			; 00000074H
  004e6	72		 DB	 114			; 00000072H
  004e7	44		 DB	 68			; 00000044H
  004e8	69		 DB	 105			; 00000069H
  004e9	72		 DB	 114			; 00000072H
  004ea	00		 DB	 0
_TEXT	ENDS
text$x	SEGMENT
$L89002:
  00038	8b f4		 mov	 esi, esp
  0003a	8d 4d d0	 lea	 ecx, DWORD PTR _strDir$[ebp]
  0003d	ff 15 00 00 00
	00		 call	 DWORD PTR __imp_??1?$basic_string@DU?$char_traits@D@std@@V?$allocator@D@2@@std@@QAE@XZ
  00043	3b f4		 cmp	 esi, esp
  00045	e9 00 00 00 00	 jmp	 __RTC_CheckEsp
__ehhandler$?GetTempDir@YL_DirInfo@@SA_NQADI@Z:
  0004a	b8 00 00 00 00	 mov	 eax, OFFSET FLAT:$T89004
  0004f	e9 00 00 00 00	 jmp	 ___CxxFrameHandler
text$x	ENDS
?GetTempDir@YL_DirInfo@@SA_NQADI@Z ENDP			; YL_DirInfo::GetTempDir
EXTRN	__imp_??0?$basic_string@DU?$char_traits@D@std@@V?$allocator@D@2@@std@@QAE@PBD@Z:NEAR
EXTRN	__imp_?npos@?$basic_string@DU?$char_traits@D@std@@V?$allocator@D@2@@std@@2IB:DWORD
EXTRN	__imp_??4?$basic_string@DU?$char_traits@D@std@@V?$allocator@D@2@@std@@QAEAAV01@ABV01@@Z:NEAR
EXTRN	__imp_??Y?$basic_string@DU?$char_traits@D@std@@V?$allocator@D@2@@std@@QAEAAV01@PBD@Z:NEAR
EXTRN	__imp_??A?$basic_string@DU?$char_traits@D@std@@V?$allocator@D@2@@std@@QAEAADI@Z:NEAR
EXTRN	__imp_?find_last_of@?$basic_string@DU?$char_traits@D@std@@V?$allocator@D@2@@std@@QBEIPBDI@Z:NEAR
EXTRN	__imp_?substr@?$basic_string@DU?$char_traits@D@std@@V?$allocator@D@2@@std@@QBE?AV12@II@Z:NEAR
EXTRN	__imp__GetModuleFileNameA@12:NEAR
xdata$x	SEGMENT
$T89029	DD	0ffffffffH
	DD	FLAT:$L89017
	DD	00H
	DD	FLAT:$L89018
	DD	01H
	DD	FLAT:$L89019
$T89021	DD	019930520H
	DD	03H
	DD	FLAT:$T89029
	DD	2 DUP(00H)
	DD	2 DUP(00H)
; Function compile flags: /Odt /RTCsu
xdata$x	ENDS
_TEXT	SEGMENT
tv148 = -404						; size = 4
tv155 = -400						; size = 4
$T89016 = -394						; size = 1
$T89015 = -393						; size = 1
$T89014 = -392						; size = 28
$T89013 = -361						; size = 1
_str$ = -356						; size = 28
_n$ = -324						; size = 4
_strExePath$ = -316					; size = 28
_sz$ = -280						; size = 260
__$ArrayPad$ = -16					; size = 4
__$EHRec$ = -12						; size = 12
__$ReturnAddr$ = 4					; size = 4
_strDir$ = 8						; size = 4
?GetTempDir@YL_DirInfo@@SA_NAAV?$basic_string@DU?$char_traits@D@std@@V?$allocator@D@2@@std@@@Z PROC NEAR ; YL_DirInfo::GetTempDir

; 65   : {

  004f0	55		 push	 ebp
  004f1	8b ec		 mov	 ebp, esp
  004f3	6a ff		 push	 -1
  004f5	68 00 00 00 00	 push	 __ehhandler$?GetTempDir@YL_DirInfo@@SA_NAAV?$basic_string@DU?$char_traits@D@std@@V?$allocator@D@2@@std@@@Z
  004fa	64 a1 00 00 00
	00		 mov	 eax, DWORD PTR fs:__except_list
  00500	50		 push	 eax
  00501	64 89 25 00 00
	00 00		 mov	 DWORD PTR fs:__except_list, esp
  00508	81 ec 88 01 00
	00		 sub	 esp, 392		; 00000188H
  0050e	56		 push	 esi
  0050f	57		 push	 edi
  00510	8d bd 6c fe ff
	ff		 lea	 edi, DWORD PTR [ebp-404]
  00516	b9 62 00 00 00	 mov	 ecx, 98			; 00000062H
  0051b	b8 cc cc cc cc	 mov	 eax, -858993460		; ccccccccH
  00520	f3 ab		 rep stosd
  00522	a1 00 00 00 00	 mov	 eax, DWORD PTR ___security_cookie
  00527	89 45 f0	 mov	 DWORD PTR __$ArrayPad$[ebp], eax

; 66   : 	char sz[MAX_PATH]={0};

  0052a	c6 85 e8 fe ff
	ff 00		 mov	 BYTE PTR _sz$[ebp], 0
  00531	b9 40 00 00 00	 mov	 ecx, 64			; 00000040H
  00536	33 c0		 xor	 eax, eax
  00538	8d bd e9 fe ff
	ff		 lea	 edi, DWORD PTR _sz$[ebp+1]
  0053e	f3 ab		 rep stosd
  00540	66 ab		 stosw
  00542	aa		 stosb

; 67   : 	::GetModuleFileName(NULL, sz, MAX_PATH);

  00543	8b f4		 mov	 esi, esp
  00545	68 04 01 00 00	 push	 260			; 00000104H
  0054a	8d 85 e8 fe ff
	ff		 lea	 eax, DWORD PTR _sz$[ebp]
  00550	50		 push	 eax
  00551	6a 00		 push	 0
  00553	ff 15 00 00 00
	00		 call	 DWORD PTR __imp__GetModuleFileNameA@12
  00559	3b f4		 cmp	 esi, esp
  0055b	e8 00 00 00 00	 call	 __RTC_CheckEsp

; 68   : 	string strExePath = sz;

  00560	8b f4		 mov	 esi, esp
  00562	8d 8d e8 fe ff
	ff		 lea	 ecx, DWORD PTR _sz$[ebp]
  00568	51		 push	 ecx
  00569	8d 8d c4 fe ff
	ff		 lea	 ecx, DWORD PTR _strExePath$[ebp]
  0056f	ff 15 00 00 00
	00		 call	 DWORD PTR __imp_??0?$basic_string@DU?$char_traits@D@std@@V?$allocator@D@2@@std@@QAE@PBD@Z
  00575	3b f4		 cmp	 esi, esp
  00577	e8 00 00 00 00	 call	 __RTC_CheckEsp
  0057c	c7 45 fc 00 00
	00 00		 mov	 DWORD PTR __$EHRec$[ebp+8], 0

; 69   : 
; 70   : 	size_t n = strExePath.find_last_of("\\");

  00583	8b f4		 mov	 esi, esp
  00585	8b 15 00 00 00
	00		 mov	 edx, DWORD PTR __imp_?npos@?$basic_string@DU?$char_traits@D@std@@V?$allocator@D@2@@std@@2IB
  0058b	8b 02		 mov	 eax, DWORD PTR [edx]
  0058d	50		 push	 eax
  0058e	68 00 00 00 00	 push	 OFFSET FLAT:$SG83649
  00593	8d 8d c4 fe ff
	ff		 lea	 ecx, DWORD PTR _strExePath$[ebp]
  00599	ff 15 00 00 00
	00		 call	 DWORD PTR __imp_?find_last_of@?$basic_string@DU?$char_traits@D@std@@V?$allocator@D@2@@std@@QBEIPBDI@Z
  0059f	3b f4		 cmp	 esi, esp
  005a1	e8 00 00 00 00	 call	 __RTC_CheckEsp
  005a6	89 85 bc fe ff
	ff		 mov	 DWORD PTR _n$[ebp], eax

; 71   : 	if( n == string::npos )

  005ac	8b 0d 00 00 00
	00		 mov	 ecx, DWORD PTR __imp_?npos@?$basic_string@DU?$char_traits@D@std@@V?$allocator@D@2@@std@@2IB
  005b2	8b 95 bc fe ff
	ff		 mov	 edx, DWORD PTR _n$[ebp]
  005b8	3b 11		 cmp	 edx, DWORD PTR [ecx]
  005ba	75 2e		 jne	 SHORT $L83650

; 72   : 	{
; 73   : 		return false;

  005bc	c6 85 97 fe ff
	ff 00		 mov	 BYTE PTR $T89013[ebp], 0
  005c3	c7 45 fc ff ff
	ff ff		 mov	 DWORD PTR __$EHRec$[ebp+8], -1
  005ca	8b f4		 mov	 esi, esp
  005cc	8d 8d c4 fe ff
	ff		 lea	 ecx, DWORD PTR _strExePath$[ebp]
  005d2	ff 15 00 00 00
	00		 call	 DWORD PTR __imp_??1?$basic_string@DU?$char_traits@D@std@@V?$allocator@D@2@@std@@QAE@XZ
  005d8	3b f4		 cmp	 esi, esp
  005da	e8 00 00 00 00	 call	 __RTC_CheckEsp
  005df	8a 85 97 fe ff
	ff		 mov	 al, BYTE PTR $T89013[ebp]
  005e5	e9 bb 01 00 00	 jmp	 $L83645
$L83650:

; 74   : 	}
; 75   : 	string str = strExePath.substr(0,n);

  005ea	8b f4		 mov	 esi, esp
  005ec	8b 85 bc fe ff
	ff		 mov	 eax, DWORD PTR _n$[ebp]
  005f2	50		 push	 eax
  005f3	6a 00		 push	 0
  005f5	8d 8d 9c fe ff
	ff		 lea	 ecx, DWORD PTR _str$[ebp]
  005fb	51		 push	 ecx
  005fc	8d 8d c4 fe ff
	ff		 lea	 ecx, DWORD PTR _strExePath$[ebp]
  00602	ff 15 00 00 00
	00		 call	 DWORD PTR __imp_?substr@?$basic_string@DU?$char_traits@D@std@@V?$allocator@D@2@@std@@QBE?AV12@II@Z
  00608	3b f4		 cmp	 esi, esp
  0060a	e8 00 00 00 00	 call	 __RTC_CheckEsp
  0060f	c6 45 fc 01	 mov	 BYTE PTR __$EHRec$[ebp+8], 1

; 76   : 
; 77   : 	if(str.length() > 0 )		

  00613	8b f4		 mov	 esi, esp
  00615	8d 8d 9c fe ff
	ff		 lea	 ecx, DWORD PTR _str$[ebp]
  0061b	ff 15 00 00 00
	00		 call	 DWORD PTR __imp_?length@?$basic_string@DU?$char_traits@D@std@@V?$allocator@D@2@@std@@QBEIXZ
  00621	3b f4		 cmp	 esi, esp
  00623	e8 00 00 00 00	 call	 __RTC_CheckEsp
  00628	85 c0		 test	 eax, eax
  0062a	0f 86 33 01 00
	00		 jbe	 $L83654

; 78   : 	{
; 79   : 		if(str[str.length()-1] == '\\')

  00630	8b f4		 mov	 esi, esp
  00632	8d 8d 9c fe ff
	ff		 lea	 ecx, DWORD PTR _str$[ebp]
  00638	ff 15 00 00 00
	00		 call	 DWORD PTR __imp_?length@?$basic_string@DU?$char_traits@D@std@@V?$allocator@D@2@@std@@QBEIXZ
  0063e	3b f4		 cmp	 esi, esp
  00640	e8 00 00 00 00	 call	 __RTC_CheckEsp
  00645	83 e8 01	 sub	 eax, 1
  00648	8b f4		 mov	 esi, esp
  0064a	50		 push	 eax
  0064b	8d 8d 9c fe ff
	ff		 lea	 ecx, DWORD PTR _str$[ebp]
  00651	ff 15 00 00 00
	00		 call	 DWORD PTR __imp_??A?$basic_string@DU?$char_traits@D@std@@V?$allocator@D@2@@std@@QAEAADI@Z
  00657	3b f4		 cmp	 esi, esp
  00659	e8 00 00 00 00	 call	 __RTC_CheckEsp
  0065e	0f be 10	 movsx	 edx, BYTE PTR [eax]
  00661	83 fa 5c	 cmp	 edx, 92			; 0000005cH
  00664	0f 85 82 00 00
	00		 jne	 $L83655

; 80   : 		{
; 81   : 			str = str.substr(0, str.length()-1);

  0066a	8b f4		 mov	 esi, esp
  0066c	8d 8d 9c fe ff
	ff		 lea	 ecx, DWORD PTR _str$[ebp]
  00672	ff 15 00 00 00
	00		 call	 DWORD PTR __imp_?length@?$basic_string@DU?$char_traits@D@std@@V?$allocator@D@2@@std@@QBEIXZ
  00678	3b f4		 cmp	 esi, esp
  0067a	e8 00 00 00 00	 call	 __RTC_CheckEsp
  0067f	83 e8 01	 sub	 eax, 1
  00682	8b f4		 mov	 esi, esp
  00684	50		 push	 eax
  00685	6a 00		 push	 0
  00687	8d 85 78 fe ff
	ff		 lea	 eax, DWORD PTR $T89014[ebp]
  0068d	50		 push	 eax
  0068e	8d 8d 9c fe ff
	ff		 lea	 ecx, DWORD PTR _str$[ebp]
  00694	ff 15 00 00 00
	00		 call	 DWORD PTR __imp_?substr@?$basic_string@DU?$char_traits@D@std@@V?$allocator@D@2@@std@@QBE?AV12@II@Z
  0069a	3b f4		 cmp	 esi, esp
  0069c	e8 00 00 00 00	 call	 __RTC_CheckEsp
  006a1	89 85 70 fe ff
	ff		 mov	 DWORD PTR tv155[ebp], eax
  006a7	8b 8d 70 fe ff
	ff		 mov	 ecx, DWORD PTR tv155[ebp]
  006ad	89 8d 6c fe ff
	ff		 mov	 DWORD PTR tv148[ebp], ecx
  006b3	c6 45 fc 02	 mov	 BYTE PTR __$EHRec$[ebp+8], 2
  006b7	8b f4		 mov	 esi, esp
  006b9	8b 95 6c fe ff
	ff		 mov	 edx, DWORD PTR tv148[ebp]
  006bf	52		 push	 edx
  006c0	8d 8d 9c fe ff
	ff		 lea	 ecx, DWORD PTR _str$[ebp]
  006c6	ff 15 00 00 00
	00		 call	 DWORD PTR __imp_??4?$basic_string@DU?$char_traits@D@std@@V?$allocator@D@2@@std@@QAEAAV01@ABV01@@Z
  006cc	3b f4		 cmp	 esi, esp
  006ce	e8 00 00 00 00	 call	 __RTC_CheckEsp
  006d3	c6 45 fc 01	 mov	 BYTE PTR __$EHRec$[ebp+8], 1
  006d7	8b f4		 mov	 esi, esp
  006d9	8d 8d 78 fe ff
	ff		 lea	 ecx, DWORD PTR $T89014[ebp]
  006df	ff 15 00 00 00
	00		 call	 DWORD PTR __imp_??1?$basic_string@DU?$char_traits@D@std@@V?$allocator@D@2@@std@@QAE@XZ
  006e5	3b f4		 cmp	 esi, esp
  006e7	e8 00 00 00 00	 call	 __RTC_CheckEsp
$L83655:

; 82   : 		}
; 83   : 		str += "\\temp";

  006ec	8b f4		 mov	 esi, esp
  006ee	68 00 00 00 00	 push	 OFFSET FLAT:$SG83657
  006f3	8d 8d 9c fe ff
	ff		 lea	 ecx, DWORD PTR _str$[ebp]
  006f9	ff 15 00 00 00
	00		 call	 DWORD PTR __imp_??Y?$basic_string@DU?$char_traits@D@std@@V?$allocator@D@2@@std@@QAEAAV01@PBD@Z
  006ff	3b f4		 cmp	 esi, esp
  00701	e8 00 00 00 00	 call	 __RTC_CheckEsp

; 84   : 		
; 85   : 		strDir = str;

  00706	8b f4		 mov	 esi, esp
  00708	8d 85 9c fe ff
	ff		 lea	 eax, DWORD PTR _str$[ebp]
  0070e	50		 push	 eax
  0070f	8b 4d 08	 mov	 ecx, DWORD PTR _strDir$[ebp]
  00712	ff 15 00 00 00
	00		 call	 DWORD PTR __imp_??4?$basic_string@DU?$char_traits@D@std@@V?$allocator@D@2@@std@@QAEAAV01@ABV01@@Z
  00718	3b f4		 cmp	 esi, esp
  0071a	e8 00 00 00 00	 call	 __RTC_CheckEsp

; 86   : 		return true;

  0071f	c6 85 77 fe ff
	ff 01		 mov	 BYTE PTR $T89015[ebp], 1
  00726	c6 45 fc 00	 mov	 BYTE PTR __$EHRec$[ebp+8], 0
  0072a	8b f4		 mov	 esi, esp
  0072c	8d 8d 9c fe ff
	ff		 lea	 ecx, DWORD PTR _str$[ebp]
  00732	ff 15 00 00 00
	00		 call	 DWORD PTR __imp_??1?$basic_string@DU?$char_traits@D@std@@V?$allocator@D@2@@std@@QAE@XZ
  00738	3b f4		 cmp	 esi, esp
  0073a	e8 00 00 00 00	 call	 __RTC_CheckEsp
  0073f	c7 45 fc ff ff
	ff ff		 mov	 DWORD PTR __$EHRec$[ebp+8], -1
  00746	8b f4		 mov	 esi, esp
  00748	8d 8d c4 fe ff
	ff		 lea	 ecx, DWORD PTR _strExePath$[ebp]
  0074e	ff 15 00 00 00
	00		 call	 DWORD PTR __imp_??1?$basic_string@DU?$char_traits@D@std@@V?$allocator@D@2@@std@@QAE@XZ
  00754	3b f4		 cmp	 esi, esp
  00756	e8 00 00 00 00	 call	 __RTC_CheckEsp
  0075b	8a 85 77 fe ff
	ff		 mov	 al, BYTE PTR $T89015[ebp]
  00761	eb 42		 jmp	 SHORT $L83645
$L83654:

; 87   : 	}
; 88   : 
; 89   : 	return false;

  00763	c6 85 76 fe ff
	ff 00		 mov	 BYTE PTR $T89016[ebp], 0
  0076a	c6 45 fc 00	 mov	 BYTE PTR __$EHRec$[ebp+8], 0
  0076e	8b f4		 mov	 esi, esp
  00770	8d 8d 9c fe ff
	ff		 lea	 ecx, DWORD PTR _str$[ebp]
  00776	ff 15 00 00 00
	00		 call	 DWORD PTR __imp_??1?$basic_string@DU?$char_traits@D@std@@V?$allocator@D@2@@std@@QAE@XZ
  0077c	3b f4		 cmp	 esi, esp
  0077e	e8 00 00 00 00	 call	 __RTC_CheckEsp
  00783	c7 45 fc ff ff
	ff ff		 mov	 DWORD PTR __$EHRec$[ebp+8], -1
  0078a	8b f4		 mov	 esi, esp
  0078c	8d 8d c4 fe ff
	ff		 lea	 ecx, DWORD PTR _strExePath$[ebp]
  00792	ff 15 00 00 00
	00		 call	 DWORD PTR __imp_??1?$basic_string@DU?$char_traits@D@std@@V?$allocator@D@2@@std@@QAE@XZ
  00798	3b f4		 cmp	 esi, esp
  0079a	e8 00 00 00 00	 call	 __RTC_CheckEsp
  0079f	8a 85 76 fe ff
	ff		 mov	 al, BYTE PTR $T89016[ebp]
$L83645:

; 90   : }

  007a5	52		 push	 edx
  007a6	8b cd		 mov	 ecx, ebp
  007a8	50		 push	 eax
  007a9	8d 15 00 00 00
	00		 lea	 edx, DWORD PTR $L89028
  007af	e8 00 00 00 00	 call	 @_RTC_CheckStackVars@8
  007b4	58		 pop	 eax
  007b5	5a		 pop	 edx
  007b6	8b 4d f4	 mov	 ecx, DWORD PTR __$EHRec$[ebp]
  007b9	64 89 0d 00 00
	00 00		 mov	 DWORD PTR fs:__except_list, ecx
  007c0	8b 4d f0	 mov	 ecx, DWORD PTR __$ArrayPad$[ebp]
  007c3	e8 00 00 00 00	 call	 @__security_check_cookie@4
  007c8	5f		 pop	 edi
  007c9	5e		 pop	 esi
  007ca	81 c4 94 01 00
	00		 add	 esp, 404		; 00000194H
  007d0	3b ec		 cmp	 ebp, esp
  007d2	e8 00 00 00 00	 call	 __RTC_CheckEsp
  007d7	8b e5		 mov	 esp, ebp
  007d9	5d		 pop	 ebp
  007da	c3		 ret	 0
$L89028:
  007db	03 00 00 00	 DD	 3
  007df	00 00 00 00	 DD	 $L89027
$L89027:
  007e3	e8 fe ff ff	 DD	 -280			; fffffee8H
  007e7	04 01 00 00	 DD	 260			; 00000104H
  007eb	00 00 00 00	 DD	 $L89022
  007ef	c4 fe ff ff	 DD	 -316			; fffffec4H
  007f3	1c 00 00 00	 DD	 28			; 0000001cH
  007f7	00 00 00 00	 DD	 $L89023
  007fb	9c fe ff ff	 DD	 -356			; fffffe9cH
  007ff	1c 00 00 00	 DD	 28			; 0000001cH
  00803	00 00 00 00	 DD	 $L89024
$L89024:
  00807	73		 DB	 115			; 00000073H
  00808	74		 DB	 116			; 00000074H
  00809	72		 DB	 114			; 00000072H
  0080a	00		 DB	 0
$L89023:
  0080b	73		 DB	 115			; 00000073H
  0080c	74		 DB	 116			; 00000074H
  0080d	72		 DB	 114			; 00000072H
  0080e	45		 DB	 69			; 00000045H
  0080f	78		 DB	 120			; 00000078H
  00810	65		 DB	 101			; 00000065H
  00811	50		 DB	 80			; 00000050H
  00812	61		 DB	 97			; 00000061H
  00813	74		 DB	 116			; 00000074H
  00814	68		 DB	 104			; 00000068H
  00815	00		 DB	 0
$L89022:
  00816	73		 DB	 115			; 00000073H
  00817	7a		 DB	 122			; 0000007aH
  00818	00		 DB	 0
_TEXT	ENDS
text$x	SEGMENT
$L89017:
  00054	8b f4		 mov	 esi, esp
  00056	8d 8d c4 fe ff
	ff		 lea	 ecx, DWORD PTR _strExePath$[ebp]
  0005c	ff 15 00 00 00
	00		 call	 DWORD PTR __imp_??1?$basic_string@DU?$char_traits@D@std@@V?$allocator@D@2@@std@@QAE@XZ
  00062	3b f4		 cmp	 esi, esp
  00064	e9 00 00 00 00	 jmp	 __RTC_CheckEsp
$L89018:
  00069	8b f4		 mov	 esi, esp
  0006b	8d 8d 9c fe ff
	ff		 lea	 ecx, DWORD PTR _str$[ebp]
  00071	ff 15 00 00 00
	00		 call	 DWORD PTR __imp_??1?$basic_string@DU?$char_traits@D@std@@V?$allocator@D@2@@std@@QAE@XZ
  00077	3b f4		 cmp	 esi, esp
  00079	e9 00 00 00 00	 jmp	 __RTC_CheckEsp
$L89019:
  0007e	8b f4		 mov	 esi, esp
  00080	8d 8d 78 fe ff
	ff		 lea	 ecx, DWORD PTR $T89014[ebp]
  00086	ff 15 00 00 00
	00		 call	 DWORD PTR __imp_??1?$basic_string@DU?$char_traits@D@std@@V?$allocator@D@2@@std@@QAE@XZ
  0008c	3b f4		 cmp	 esi, esp
  0008e	e9 00 00 00 00	 jmp	 __RTC_CheckEsp
__ehhandler$?GetTempDir@YL_DirInfo@@SA_NAAV?$basic_string@DU?$char_traits@D@std@@V?$allocator@D@2@@std@@@Z:
  00093	b8 00 00 00 00	 mov	 eax, OFFSET FLAT:$T89021
  00098	e9 00 00 00 00	 jmp	 ___CxxFrameHandler
text$x	ENDS
?GetTempDir@YL_DirInfo@@SA_NAAV?$basic_string@DU?$char_traits@D@std@@V?$allocator@D@2@@std@@@Z ENDP ; YL_DirInfo::GetTempDir
PUBLIC	?GetProgramFilesDir@YL_DirInfo@@SA_NQADI@Z	; YL_DirInfo::GetProgramFilesDir
PUBLIC	?GetProgramFilesDir@YL_DirInfo@@SA_NAAV?$basic_string@DU?$char_traits@D@std@@V?$allocator@D@2@@std@@@Z ; YL_DirInfo::GetProgramFilesDir
xdata$x	SEGMENT
$T89042	DD	0ffffffffH
	DD	FLAT:$L89034
$T89036	DD	019930520H
	DD	01H
	DD	FLAT:$T89042
	DD	2 DUP(00H)
	DD	2 DUP(00H)
; Function compile flags: /Odt /RTCsu
xdata$x	ENDS
_TEXT	SEGMENT
$T89033 = -54						; size = 1
$T89032 = -53						; size = 1
_strDir$ = -48						; size = 28
__$ArrayPad$ = -16					; size = 4
__$EHRec$ = -12						; size = 12
__$ReturnAddr$ = 4					; size = 4
_szDirBuffer$ = 8					; size = 4
_unBuffLen$ = 12					; size = 4
?GetProgramFilesDir@YL_DirInfo@@SA_NQADI@Z PROC NEAR	; YL_DirInfo::GetProgramFilesDir

; 93   : {

  00820	55		 push	 ebp
  00821	8b ec		 mov	 ebp, esp
  00823	6a ff		 push	 -1
  00825	68 00 00 00 00	 push	 __ehhandler$?GetProgramFilesDir@YL_DirInfo@@SA_NQADI@Z
  0082a	64 a1 00 00 00
	00		 mov	 eax, DWORD PTR fs:__except_list
  00830	50		 push	 eax
  00831	64 89 25 00 00
	00 00		 mov	 DWORD PTR fs:__except_list, esp
  00838	83 ec 2c	 sub	 esp, 44			; 0000002cH
  0083b	56		 push	 esi
  0083c	57		 push	 edi
  0083d	8d 7d c8	 lea	 edi, DWORD PTR [ebp-56]
  00840	b9 0b 00 00 00	 mov	 ecx, 11			; 0000000bH
  00845	b8 cc cc cc cc	 mov	 eax, -858993460		; ccccccccH
  0084a	f3 ab		 rep stosd
  0084c	a1 00 00 00 00	 mov	 eax, DWORD PTR ___security_cookie
  00851	89 45 f0	 mov	 DWORD PTR __$ArrayPad$[ebp], eax

; 94   : 	string strDir;

  00854	8b f4		 mov	 esi, esp
  00856	8d 4d d0	 lea	 ecx, DWORD PTR _strDir$[ebp]
  00859	ff 15 00 00 00
	00		 call	 DWORD PTR __imp_??0?$basic_string@DU?$char_traits@D@std@@V?$allocator@D@2@@std@@QAE@XZ
  0085f	3b f4		 cmp	 esi, esp
  00861	e8 00 00 00 00	 call	 __RTC_CheckEsp
  00866	c7 45 fc 00 00
	00 00		 mov	 DWORD PTR __$EHRec$[ebp+8], 0

; 95   : 	if( GetProgramFilesDir(strDir) && strDir.length() <= unBuffLen-1)

  0086d	8d 45 d0	 lea	 eax, DWORD PTR _strDir$[ebp]
  00870	50		 push	 eax
  00871	e8 00 00 00 00	 call	 ?GetProgramFilesDir@YL_DirInfo@@SA_NAAV?$basic_string@DU?$char_traits@D@std@@V?$allocator@D@2@@std@@@Z ; YL_DirInfo::GetProgramFilesDir
  00876	83 c4 04	 add	 esp, 4
  00879	0f b6 c8	 movzx	 ecx, al
  0087c	85 c9		 test	 ecx, ecx
  0087e	74 5d		 je	 SHORT $L83665
  00880	8b f4		 mov	 esi, esp
  00882	8d 4d d0	 lea	 ecx, DWORD PTR _strDir$[ebp]
  00885	ff 15 00 00 00
	00		 call	 DWORD PTR __imp_?length@?$basic_string@DU?$char_traits@D@std@@V?$allocator@D@2@@std@@QBEIXZ
  0088b	3b f4		 cmp	 esi, esp
  0088d	e8 00 00 00 00	 call	 __RTC_CheckEsp
  00892	8b 55 0c	 mov	 edx, DWORD PTR _unBuffLen$[ebp]
  00895	83 ea 01	 sub	 edx, 1
  00898	3b c2		 cmp	 eax, edx
  0089a	77 41		 ja	 SHORT $L83665

; 96   : 	{
; 97   : 		strcpy(szDirBuffer,strDir.c_str());

  0089c	8b f4		 mov	 esi, esp
  0089e	8d 4d d0	 lea	 ecx, DWORD PTR _strDir$[ebp]
  008a1	ff 15 00 00 00
	00		 call	 DWORD PTR __imp_?c_str@?$basic_string@DU?$char_traits@D@std@@V?$allocator@D@2@@std@@QBEPBDXZ
  008a7	3b f4		 cmp	 esi, esp
  008a9	e8 00 00 00 00	 call	 __RTC_CheckEsp
  008ae	50		 push	 eax
  008af	8b 45 08	 mov	 eax, DWORD PTR _szDirBuffer$[ebp]
  008b2	50		 push	 eax
  008b3	e8 00 00 00 00	 call	 _strcpy
  008b8	83 c4 08	 add	 esp, 8

; 98   : 		return true;

  008bb	c6 45 cb 01	 mov	 BYTE PTR $T89032[ebp], 1
  008bf	c7 45 fc ff ff
	ff ff		 mov	 DWORD PTR __$EHRec$[ebp+8], -1
  008c6	8b f4		 mov	 esi, esp
  008c8	8d 4d d0	 lea	 ecx, DWORD PTR _strDir$[ebp]
  008cb	ff 15 00 00 00
	00		 call	 DWORD PTR __imp_??1?$basic_string@DU?$char_traits@D@std@@V?$allocator@D@2@@std@@QAE@XZ
  008d1	3b f4		 cmp	 esi, esp
  008d3	e8 00 00 00 00	 call	 __RTC_CheckEsp
  008d8	8a 45 cb	 mov	 al, BYTE PTR $T89032[ebp]
  008db	eb 20		 jmp	 SHORT $L83663
$L83665:

; 99   : 	}
; 100  : 	return false;

  008dd	c6 45 ca 00	 mov	 BYTE PTR $T89033[ebp], 0
  008e1	c7 45 fc ff ff
	ff ff		 mov	 DWORD PTR __$EHRec$[ebp+8], -1
  008e8	8b f4		 mov	 esi, esp
  008ea	8d 4d d0	 lea	 ecx, DWORD PTR _strDir$[ebp]
  008ed	ff 15 00 00 00
	00		 call	 DWORD PTR __imp_??1?$basic_string@DU?$char_traits@D@std@@V?$allocator@D@2@@std@@QAE@XZ
  008f3	3b f4		 cmp	 esi, esp
  008f5	e8 00 00 00 00	 call	 __RTC_CheckEsp
  008fa	8a 45 ca	 mov	 al, BYTE PTR $T89033[ebp]
$L83663:

; 101  : }

  008fd	52		 push	 edx
  008fe	8b cd		 mov	 ecx, ebp
  00900	50		 push	 eax
  00901	8d 15 00 00 00
	00		 lea	 edx, DWORD PTR $L89041
  00907	e8 00 00 00 00	 call	 @_RTC_CheckStackVars@8
  0090c	58		 pop	 eax
  0090d	5a		 pop	 edx
  0090e	8b 4d f4	 mov	 ecx, DWORD PTR __$EHRec$[ebp]
  00911	64 89 0d 00 00
	00 00		 mov	 DWORD PTR fs:__except_list, ecx
  00918	8b 4d f0	 mov	 ecx, DWORD PTR __$ArrayPad$[ebp]
  0091b	e8 00 00 00 00	 call	 @__security_check_cookie@4
  00920	5f		 pop	 edi
  00921	5e		 pop	 esi
  00922	83 c4 38	 add	 esp, 56			; 00000038H
  00925	3b ec		 cmp	 ebp, esp
  00927	e8 00 00 00 00	 call	 __RTC_CheckEsp
  0092c	8b e5		 mov	 esp, ebp
  0092e	5d		 pop	 ebp
  0092f	c3		 ret	 0
$L89041:
  00930	01 00 00 00	 DD	 1
  00934	00 00 00 00	 DD	 $L89040
$L89040:
  00938	d0 ff ff ff	 DD	 -48			; ffffffd0H
  0093c	1c 00 00 00	 DD	 28			; 0000001cH
  00940	00 00 00 00	 DD	 $L89037
$L89037:
  00944	73		 DB	 115			; 00000073H
  00945	74		 DB	 116			; 00000074H
  00946	72		 DB	 114			; 00000072H
  00947	44		 DB	 68			; 00000044H
  00948	69		 DB	 105			; 00000069H
  00949	72		 DB	 114			; 00000072H
  0094a	00		 DB	 0
_TEXT	ENDS
text$x	SEGMENT
$L89034:
  0009d	8b f4		 mov	 esi, esp
  0009f	8d 4d d0	 lea	 ecx, DWORD PTR _strDir$[ebp]
  000a2	ff 15 00 00 00
	00		 call	 DWORD PTR __imp_??1?$basic_string@DU?$char_traits@D@std@@V?$allocator@D@2@@std@@QAE@XZ
  000a8	3b f4		 cmp	 esi, esp
  000aa	e9 00 00 00 00	 jmp	 __RTC_CheckEsp
__ehhandler$?GetProgramFilesDir@YL_DirInfo@@SA_NQADI@Z:
  000af	b8 00 00 00 00	 mov	 eax, OFFSET FLAT:$T89036
  000b4	e9 00 00 00 00	 jmp	 ___CxxFrameHandler
text$x	ENDS
?GetProgramFilesDir@YL_DirInfo@@SA_NQADI@Z ENDP		; YL_DirInfo::GetProgramFilesDir
; Function compile flags: /Odt /RTCsu
_TEXT	SEGMENT
_szPath$ = -520						; size = 512
__$ArrayPad$ = -4					; size = 4
__$ReturnAddr$ = 4					; size = 4
_strDir$ = 8						; size = 4
?GetProgramFilesDir@YL_DirInfo@@SA_NAAV?$basic_string@DU?$char_traits@D@std@@V?$allocator@D@2@@std@@@Z PROC NEAR ; YL_DirInfo::GetProgramFilesDir

; 104  : {

  00950	55		 push	 ebp
  00951	8b ec		 mov	 ebp, esp
  00953	81 ec 0c 02 00
	00		 sub	 esp, 524		; 0000020cH
  00959	56		 push	 esi
  0095a	57		 push	 edi
  0095b	8d bd f4 fd ff
	ff		 lea	 edi, DWORD PTR [ebp-524]
  00961	b9 83 00 00 00	 mov	 ecx, 131		; 00000083H
  00966	b8 cc cc cc cc	 mov	 eax, -858993460		; ccccccccH
  0096b	f3 ab		 rep stosd
  0096d	a1 00 00 00 00	 mov	 eax, DWORD PTR ___security_cookie
  00972	89 45 fc	 mov	 DWORD PTR __$ArrayPad$[ebp], eax

; 105  : 	char szPath[512];	
; 106  : 	if(SUCCEEDED(SHGetFolderPath(NULL, CSIDL_PROGRAM_FILES, NULL, 0, szPath))) 

  00975	8b f4		 mov	 esi, esp
  00977	8d 85 f8 fd ff
	ff		 lea	 eax, DWORD PTR _szPath$[ebp]
  0097d	50		 push	 eax
  0097e	6a 00		 push	 0
  00980	6a 00		 push	 0
  00982	6a 26		 push	 38			; 00000026H
  00984	6a 00		 push	 0
  00986	ff 15 00 00 00
	00		 call	 DWORD PTR __imp__SHGetFolderPathA@20
  0098c	3b f4		 cmp	 esi, esp
  0098e	e8 00 00 00 00	 call	 __RTC_CheckEsp
  00993	85 c0		 test	 eax, eax
  00995	7c 1d		 jl	 SHORT $L83673

; 107  : 	{
; 108  : 		strDir = szPath;

  00997	8b f4		 mov	 esi, esp
  00999	8d 8d f8 fd ff
	ff		 lea	 ecx, DWORD PTR _szPath$[ebp]
  0099f	51		 push	 ecx
  009a0	8b 4d 08	 mov	 ecx, DWORD PTR _strDir$[ebp]
  009a3	ff 15 00 00 00
	00		 call	 DWORD PTR __imp_??4?$basic_string@DU?$char_traits@D@std@@V?$allocator@D@2@@std@@QAEAAV01@PBD@Z
  009a9	3b f4		 cmp	 esi, esp
  009ab	e8 00 00 00 00	 call	 __RTC_CheckEsp

; 109  : 		return true;

  009b0	b0 01		 mov	 al, 1
  009b2	eb 02		 jmp	 SHORT $L83670
$L83673:

; 110  : 	}
; 111  : 	return false;

  009b4	32 c0		 xor	 al, al
$L83670:

; 112  : }

  009b6	52		 push	 edx
  009b7	8b cd		 mov	 ecx, ebp
  009b9	50		 push	 eax
  009ba	8d 15 00 00 00
	00		 lea	 edx, DWORD PTR $L89048
  009c0	e8 00 00 00 00	 call	 @_RTC_CheckStackVars@8
  009c5	58		 pop	 eax
  009c6	5a		 pop	 edx
  009c7	8b 4d fc	 mov	 ecx, DWORD PTR __$ArrayPad$[ebp]
  009ca	e8 00 00 00 00	 call	 @__security_check_cookie@4
  009cf	5f		 pop	 edi
  009d0	5e		 pop	 esi
  009d1	81 c4 0c 02 00
	00		 add	 esp, 524		; 0000020cH
  009d7	3b ec		 cmp	 ebp, esp
  009d9	e8 00 00 00 00	 call	 __RTC_CheckEsp
  009de	8b e5		 mov	 esp, ebp
  009e0	5d		 pop	 ebp
  009e1	c3		 ret	 0
$L89048:
  009e2	01 00 00 00	 DD	 1
  009e6	00 00 00 00	 DD	 $L89047
$L89047:
  009ea	f8 fd ff ff	 DD	 -520			; fffffdf8H
  009ee	00 02 00 00	 DD	 512			; 00000200H
  009f2	00 00 00 00	 DD	 $L89045
$L89045:
  009f6	73		 DB	 115			; 00000073H
  009f7	7a		 DB	 122			; 0000007aH
  009f8	50		 DB	 80			; 00000050H
  009f9	61		 DB	 97			; 00000061H
  009fa	74		 DB	 116			; 00000074H
  009fb	68		 DB	 104			; 00000068H
  009fc	00		 DB	 0
?GetProgramFilesDir@YL_DirInfo@@SA_NAAV?$basic_string@DU?$char_traits@D@std@@V?$allocator@D@2@@std@@@Z ENDP ; YL_DirInfo::GetProgramFilesDir
_TEXT	ENDS
PUBLIC	?MakeDir@YL_DirInfo@@SA_NPBD@Z			; YL_DirInfo::MakeDir
PUBLIC	?MakeDir@YL_DirInfo@@SA_NABV?$basic_string@DU?$char_traits@D@std@@V?$allocator@D@2@@std@@@Z ; YL_DirInfo::MakeDir
xdata$x	SEGMENT
$T89056	DD	0ffffffffH
	DD	FLAT:$L89052
$T89054	DD	019930520H
	DD	01H
	DD	FLAT:$T89056
	DD	2 DUP(00H)
	DD	2 DUP(00H)
; Function compile flags: /Odt /RTCsu
xdata$x	ENDS
_TEXT	SEGMENT
tv73 = -52						; size = 4
tv74 = -48						; size = 4
$T89051 = -44						; size = 28
$T89050 = -13						; size = 1
__$EHRec$ = -12						; size = 12
_pszDirName$ = 8					; size = 4
?MakeDir@YL_DirInfo@@SA_NPBD@Z PROC NEAR		; YL_DirInfo::MakeDir

; 116  : {

  00a00	55		 push	 ebp
  00a01	8b ec		 mov	 ebp, esp
  00a03	6a ff		 push	 -1
  00a05	68 00 00 00 00	 push	 __ehhandler$?MakeDir@YL_DirInfo@@SA_NPBD@Z
  00a0a	64 a1 00 00 00
	00		 mov	 eax, DWORD PTR fs:__except_list
  00a10	50		 push	 eax
  00a11	64 89 25 00 00
	00 00		 mov	 DWORD PTR fs:__except_list, esp
  00a18	83 ec 28	 sub	 esp, 40			; 00000028H
  00a1b	56		 push	 esi
  00a1c	57		 push	 edi
  00a1d	8d 7d cc	 lea	 edi, DWORD PTR [ebp-52]
  00a20	b9 0a 00 00 00	 mov	 ecx, 10			; 0000000aH
  00a25	b8 cc cc cc cc	 mov	 eax, -858993460		; ccccccccH
  00a2a	f3 ab		 rep stosd

; 117  : 	if( pszDirName == NULL )

  00a2c	83 7d 08 00	 cmp	 DWORD PTR _pszDirName$[ebp], 0
  00a30	75 04		 jne	 SHORT $L83677

; 118  : 	{
; 119  : 		return false;

  00a32	32 c0		 xor	 al, al
  00a34	eb 51		 jmp	 SHORT $L83676
$L83677:

; 120  : 	}
; 121  : 	return MakeDir(string(pszDirName));

  00a36	8b f4		 mov	 esi, esp
  00a38	8b 45 08	 mov	 eax, DWORD PTR _pszDirName$[ebp]
  00a3b	50		 push	 eax
  00a3c	8d 4d d4	 lea	 ecx, DWORD PTR $T89051[ebp]
  00a3f	ff 15 00 00 00
	00		 call	 DWORD PTR __imp_??0?$basic_string@DU?$char_traits@D@std@@V?$allocator@D@2@@std@@QAE@PBD@Z
  00a45	3b f4		 cmp	 esi, esp
  00a47	e8 00 00 00 00	 call	 __RTC_CheckEsp
  00a4c	89 45 d0	 mov	 DWORD PTR tv74[ebp], eax
  00a4f	8b 4d d0	 mov	 ecx, DWORD PTR tv74[ebp]
  00a52	89 4d cc	 mov	 DWORD PTR tv73[ebp], ecx
  00a55	c7 45 fc 00 00
	00 00		 mov	 DWORD PTR __$EHRec$[ebp+8], 0
  00a5c	8b 55 cc	 mov	 edx, DWORD PTR tv73[ebp]
  00a5f	52		 push	 edx
  00a60	e8 00 00 00 00	 call	 ?MakeDir@YL_DirInfo@@SA_NABV?$basic_string@DU?$char_traits@D@std@@V?$allocator@D@2@@std@@@Z ; YL_DirInfo::MakeDir
  00a65	83 c4 04	 add	 esp, 4
  00a68	88 45 f3	 mov	 BYTE PTR $T89050[ebp], al
  00a6b	c7 45 fc ff ff
	ff ff		 mov	 DWORD PTR __$EHRec$[ebp+8], -1
  00a72	8b f4		 mov	 esi, esp
  00a74	8d 4d d4	 lea	 ecx, DWORD PTR $T89051[ebp]
  00a77	ff 15 00 00 00
	00		 call	 DWORD PTR __imp_??1?$basic_string@DU?$char_traits@D@std@@V?$allocator@D@2@@std@@QAE@XZ
  00a7d	3b f4		 cmp	 esi, esp
  00a7f	e8 00 00 00 00	 call	 __RTC_CheckEsp
  00a84	8a 45 f3	 mov	 al, BYTE PTR $T89050[ebp]
$L83676:

; 122  : }

  00a87	8b 4d f4	 mov	 ecx, DWORD PTR __$EHRec$[ebp]
  00a8a	64 89 0d 00 00
	00 00		 mov	 DWORD PTR fs:__except_list, ecx
  00a91	5f		 pop	 edi
  00a92	5e		 pop	 esi
  00a93	83 c4 34	 add	 esp, 52			; 00000034H
  00a96	3b ec		 cmp	 ebp, esp
  00a98	e8 00 00 00 00	 call	 __RTC_CheckEsp
  00a9d	8b e5		 mov	 esp, ebp
  00a9f	5d		 pop	 ebp
  00aa0	c3		 ret	 0
_TEXT	ENDS
text$x	SEGMENT
$L89052:
  000b9	8b f4		 mov	 esi, esp
  000bb	8d 4d d4	 lea	 ecx, DWORD PTR $T89051[ebp]
  000be	ff 15 00 00 00
	00		 call	 DWORD PTR __imp_??1?$basic_string@DU?$char_traits@D@std@@V?$allocator@D@2@@std@@QAE@XZ
  000c4	3b f4		 cmp	 esi, esp
  000c6	e9 00 00 00 00	 jmp	 __RTC_CheckEsp
__ehhandler$?MakeDir@YL_DirInfo@@SA_NPBD@Z:
  000cb	b8 00 00 00 00	 mov	 eax, OFFSET FLAT:$T89054
  000d0	e9 00 00 00 00	 jmp	 ___CxxFrameHandler
text$x	ENDS
?MakeDir@YL_DirInfo@@SA_NPBD@Z ENDP			; YL_DirInfo::MakeDir
PUBLIC	??0?$vector@V?$basic_string@DU?$char_traits@D@std@@V?$allocator@D@2@@std@@V?$allocator@V?$basic_string@DU?$char_traits@D@std@@V?$allocator@D@2@@std@@@2@@std@@QAE@XZ ; std::vector<std::basic_string<char,std::char_traits<char>,std::allocator<char> >,std::allocator<std::basic_string<char,std::char_traits<char>,std::allocator<char> > > >::vector<std::basic_string<char,std::char_traits<char>,std::allocator<char> >,std::allocator<std::basic_string<char,std::char_traits<char>,std::allocator<char> > > >
PUBLIC	??1?$vector@V?$basic_string@DU?$char_traits@D@std@@V?$allocator@D@2@@std@@V?$allocator@V?$basic_string@DU?$char_traits@D@std@@V?$allocator@D@2@@std@@@2@@std@@QAE@XZ ; std::vector<std::basic_string<char,std::char_traits<char>,std::allocator<char> >,std::allocator<std::basic_string<char,std::char_traits<char>,std::allocator<char> > > >::~vector<std::basic_string<char,std::char_traits<char>,std::allocator<char> >,std::allocator<std::basic_string<char,std::char_traits<char>,std::allocator<char> > > >
PUBLIC	?size@?$vector@V?$basic_string@DU?$char_traits@D@std@@V?$allocator@D@2@@std@@V?$allocator@V?$basic_string@DU?$char_traits@D@std@@V?$allocator@D@2@@std@@@2@@std@@QBEIXZ ; std::vector<std::basic_string<char,std::char_traits<char>,std::allocator<char> >,std::allocator<std::basic_string<char,std::char_traits<char>,std::allocator<char> > > >::size
PUBLIC	??A?$vector@V?$basic_string@DU?$char_traits@D@std@@V?$allocator@D@2@@std@@V?$allocator@V?$basic_string@DU?$char_traits@D@std@@V?$allocator@D@2@@std@@@2@@std@@QAEAAV?$basic_string@DU?$char_traits@D@std@@V?$allocator@D@2@@1@I@Z ; std::vector<std::basic_string<char,std::char_traits<char>,std::allocator<char> >,std::allocator<std::basic_string<char,std::char_traits<char>,std::allocator<char> > > >::operator[]
PUBLIC	?push_back@?$vector@V?$basic_string@DU?$char_traits@D@std@@V?$allocator@D@2@@std@@V?$allocator@V?$basic_string@DU?$char_traits@D@std@@V?$allocator@D@2@@std@@@2@@std@@QAEXABV?$basic_string@DU?$char_traits@D@std@@V?$allocator@D@2@@2@@Z ; std::vector<std::basic_string<char,std::char_traits<char>,std::allocator<char> >,std::allocator<std::basic_string<char,std::char_traits<char>,std::allocator<char> > > >::push_back
EXTRN	__imp_??Y?$basic_string@DU?$char_traits@D@std@@V?$allocator@D@2@@std@@QAEAAV01@D@Z:NEAR
EXTRN	__imp_??A?$basic_string@DU?$char_traits@D@std@@V?$allocator@D@2@@std@@QBEABDI@Z:NEAR
EXTRN	__imp__GetLastError@0:NEAR
EXTRN	__imp_??$?8DU?$char_traits@D@std@@V?$allocator@D@1@@std@@YA_NABV?$basic_string@DU?$char_traits@D@std@@V?$allocator@D@2@@0@PBD@Z:NEAR
EXTRN	__imp__FindClose@4:NEAR
EXTRN	__imp__CreateDirectoryA@8:NEAR
EXTRN	__imp__SetFileAttributesA@8:NEAR
EXTRN	__imp__DeleteFileA@4:NEAR
EXTRN	__imp__FindFirstFileA@8:NEAR
xdata$x	SEGMENT
$T89073	DD	0ffffffffH
	DD	FLAT:$L89062
	DD	00H
	DD	FLAT:$L89063
$T89065	DD	019930520H
	DD	02H
	DD	FLAT:$T89073
	DD	2 DUP(00H)
	DD	2 DUP(00H)
; Function compile flags: /Odt /RTCsu
xdata$x	ENDS
_TEXT	SEGMENT
$T89061 = -427						; size = 1
$T89060 = -426						; size = 1
$T89059 = -425						; size = 1
_dwError$83953 = -424					; size = 4
_i$83946 = -420						; size = 4
_ret$ = -413						; size = 1
_i$83937 = -412						; size = 4
_strTemp$ = -404					; size = 28
_hHandle$ = -372					; size = 4
_vecDirs$ = -364					; size = 16
_fileInfo$ = -340					; size = 320
__$ArrayPad$ = -16					; size = 4
__$EHRec$ = -12						; size = 12
__$ReturnAddr$ = 4					; size = 4
_strDirName$ = 8					; size = 4
?MakeDir@YL_DirInfo@@SA_NABV?$basic_string@DU?$char_traits@D@std@@V?$allocator@D@2@@std@@@Z PROC NEAR ; YL_DirInfo::MakeDir

; 125  : {

  00ab0	55		 push	 ebp
  00ab1	8b ec		 mov	 ebp, esp
  00ab3	6a ff		 push	 -1
  00ab5	68 00 00 00 00	 push	 __ehhandler$?MakeDir@YL_DirInfo@@SA_NABV?$basic_string@DU?$char_traits@D@std@@V?$allocator@D@2@@std@@@Z
  00aba	64 a1 00 00 00
	00		 mov	 eax, DWORD PTR fs:__except_list
  00ac0	50		 push	 eax
  00ac1	64 89 25 00 00
	00 00		 mov	 DWORD PTR fs:__except_list, esp
  00ac8	81 ec a0 01 00
	00		 sub	 esp, 416		; 000001a0H
  00ace	56		 push	 esi
  00acf	57		 push	 edi
  00ad0	8d bd 54 fe ff
	ff		 lea	 edi, DWORD PTR [ebp-428]
  00ad6	b9 68 00 00 00	 mov	 ecx, 104		; 00000068H
  00adb	b8 cc cc cc cc	 mov	 eax, -858993460		; ccccccccH
  00ae0	f3 ab		 rep stosd
  00ae2	a1 00 00 00 00	 mov	 eax, DWORD PTR ___security_cookie
  00ae7	89 45 f0	 mov	 DWORD PTR __$ArrayPad$[ebp], eax

; 126  : 	WIN32_FIND_DATA fileInfo;
; 127  : 	vector<string> vecDirs;

  00aea	8d 8d 94 fe ff
	ff		 lea	 ecx, DWORD PTR _vecDirs$[ebp]
  00af0	e8 00 00 00 00	 call	 ??0?$vector@V?$basic_string@DU?$char_traits@D@std@@V?$allocator@D@2@@std@@V?$allocator@V?$basic_string@DU?$char_traits@D@std@@V?$allocator@D@2@@std@@@2@@std@@QAE@XZ ; std::vector<std::basic_string<char,std::char_traits<char>,std::allocator<char> >,std::allocator<std::basic_string<char,std::char_traits<char>,std::allocator<char> > > >::vector<std::basic_string<char,std::char_traits<char>,std::allocator<char> >,std::allocator<std::basic_string<char,std::char_traits<char>,std::allocator<char> > > >
  00af5	c7 45 fc 00 00
	00 00		 mov	 DWORD PTR __$EHRec$[ebp+8], 0

; 128  : 
; 129  : 	if( strDirName == "" )

  00afc	8b f4		 mov	 esi, esp
  00afe	68 00 00 00 00	 push	 OFFSET FLAT:$SG83928
  00b03	8b 45 08	 mov	 eax, DWORD PTR _strDirName$[ebp]
  00b06	50		 push	 eax
  00b07	ff 15 00 00 00
	00		 call	 DWORD PTR __imp_??$?8DU?$char_traits@D@std@@V?$allocator@D@1@@std@@YA_NABV?$basic_string@DU?$char_traits@D@std@@V?$allocator@D@2@@0@PBD@Z
  00b0d	83 c4 08	 add	 esp, 8
  00b10	3b f4		 cmp	 esi, esp
  00b12	e8 00 00 00 00	 call	 __RTC_CheckEsp
  00b17	0f b6 c8	 movzx	 ecx, al
  00b1a	85 c9		 test	 ecx, ecx
  00b1c	74 24		 je	 SHORT $L83927

; 130  : 	{
; 131  : 		return false;

  00b1e	c6 85 57 fe ff
	ff 00		 mov	 BYTE PTR $T89059[ebp], 0
  00b25	c7 45 fc ff ff
	ff ff		 mov	 DWORD PTR __$EHRec$[ebp+8], -1
  00b2c	8d 8d 94 fe ff
	ff		 lea	 ecx, DWORD PTR _vecDirs$[ebp]
  00b32	e8 00 00 00 00	 call	 ??1?$vector@V?$basic_string@DU?$char_traits@D@std@@V?$allocator@D@2@@std@@V?$allocator@V?$basic_string@DU?$char_traits@D@std@@V?$allocator@D@2@@std@@@2@@std@@QAE@XZ ; std::vector<std::basic_string<char,std::char_traits<char>,std::allocator<char> >,std::allocator<std::basic_string<char,std::char_traits<char>,std::allocator<char> > > >::~vector<std::basic_string<char,std::char_traits<char>,std::allocator<char> >,std::allocator<std::basic_string<char,std::char_traits<char>,std::allocator<char> > > >
  00b37	8a 85 57 fe ff
	ff		 mov	 al, BYTE PTR $T89059[ebp]
  00b3d	e9 37 03 00 00	 jmp	 $L83682
$L83927:

; 132  : 	}
; 133  : 
; 134  : 	HANDLE hHandle = FindFirstFile(strDirName.c_str(), &fileInfo);

  00b42	8b f4		 mov	 esi, esp
  00b44	8d 95 ac fe ff
	ff		 lea	 edx, DWORD PTR _fileInfo$[ebp]
  00b4a	52		 push	 edx
  00b4b	8b fc		 mov	 edi, esp
  00b4d	8b 4d 08	 mov	 ecx, DWORD PTR _strDirName$[ebp]
  00b50	ff 15 00 00 00
	00		 call	 DWORD PTR __imp_?c_str@?$basic_string@DU?$char_traits@D@std@@V?$allocator@D@2@@std@@QBEPBDXZ
  00b56	3b fc		 cmp	 edi, esp
  00b58	e8 00 00 00 00	 call	 __RTC_CheckEsp
  00b5d	50		 push	 eax
  00b5e	ff 15 00 00 00
	00		 call	 DWORD PTR __imp__FindFirstFileA@8
  00b64	3b f4		 cmp	 esi, esp
  00b66	e8 00 00 00 00	 call	 __RTC_CheckEsp
  00b6b	89 85 8c fe ff
	ff		 mov	 DWORD PTR _hHandle$[ebp], eax

; 135  : 	if( hHandle != INVALID_HANDLE_VALUE) 

  00b71	83 bd 8c fe ff
	ff ff		 cmp	 DWORD PTR _hHandle$[ebp], -1
  00b78	74 7d		 je	 SHORT $L83933

; 136  : 	{
; 137  : 		if( fileInfo.dwFileAttributes & FILE_ATTRIBUTE_DIRECTORY )

  00b7a	8b 85 ac fe ff
	ff		 mov	 eax, DWORD PTR _fileInfo$[ebp]
  00b80	83 e0 10	 and	 eax, 16			; 00000010H
  00b83	74 3a		 je	 SHORT $L83934

; 138  : 		{
; 139  : 			FindClose(hHandle);

  00b85	8b f4		 mov	 esi, esp
  00b87	8b 8d 8c fe ff
	ff		 mov	 ecx, DWORD PTR _hHandle$[ebp]
  00b8d	51		 push	 ecx
  00b8e	ff 15 00 00 00
	00		 call	 DWORD PTR __imp__FindClose@4
  00b94	3b f4		 cmp	 esi, esp
  00b96	e8 00 00 00 00	 call	 __RTC_CheckEsp

; 140  : 			return true;

  00b9b	c6 85 56 fe ff
	ff 01		 mov	 BYTE PTR $T89060[ebp], 1
  00ba2	c7 45 fc ff ff
	ff ff		 mov	 DWORD PTR __$EHRec$[ebp+8], -1
  00ba9	8d 8d 94 fe ff
	ff		 lea	 ecx, DWORD PTR _vecDirs$[ebp]
  00baf	e8 00 00 00 00	 call	 ??1?$vector@V?$basic_string@DU?$char_traits@D@std@@V?$allocator@D@2@@std@@V?$allocator@V?$basic_string@DU?$char_traits@D@std@@V?$allocator@D@2@@std@@@2@@std@@QAE@XZ ; std::vector<std::basic_string<char,std::char_traits<char>,std::allocator<char> >,std::allocator<std::basic_string<char,std::char_traits<char>,std::allocator<char> > > >::~vector<std::basic_string<char,std::char_traits<char>,std::allocator<char> >,std::allocator<std::basic_string<char,std::char_traits<char>,std::allocator<char> > > >
  00bb4	8a 85 56 fe ff
	ff		 mov	 al, BYTE PTR $T89060[ebp]
  00bba	e9 ba 02 00 00	 jmp	 $L83682
$L83934:

; 141  : 		}
; 142  : 		FindClose( hHandle );

  00bbf	8b f4		 mov	 esi, esp
  00bc1	8b 95 8c fe ff
	ff		 mov	 edx, DWORD PTR _hHandle$[ebp]
  00bc7	52		 push	 edx
  00bc8	ff 15 00 00 00
	00		 call	 DWORD PTR __imp__FindClose@4
  00bce	3b f4		 cmp	 esi, esp
  00bd0	e8 00 00 00 00	 call	 __RTC_CheckEsp

; 143  : 
; 144  : 		DeleteFile( strDirName.c_str() );

  00bd5	8b f4		 mov	 esi, esp
  00bd7	8b 4d 08	 mov	 ecx, DWORD PTR _strDirName$[ebp]
  00bda	ff 15 00 00 00
	00		 call	 DWORD PTR __imp_?c_str@?$basic_string@DU?$char_traits@D@std@@V?$allocator@D@2@@std@@QBEPBDXZ
  00be0	3b f4		 cmp	 esi, esp
  00be2	e8 00 00 00 00	 call	 __RTC_CheckEsp
  00be7	8b f4		 mov	 esi, esp
  00be9	50		 push	 eax
  00bea	ff 15 00 00 00
	00		 call	 DWORD PTR __imp__DeleteFileA@4
  00bf0	3b f4		 cmp	 esi, esp
  00bf2	e8 00 00 00 00	 call	 __RTC_CheckEsp
$L83933:

; 145  : 	}	
; 146  : 
; 147  : 	string strTemp;

  00bf7	8b f4		 mov	 esi, esp
  00bf9	8d 8d 6c fe ff
	ff		 lea	 ecx, DWORD PTR _strTemp$[ebp]
  00bff	ff 15 00 00 00
	00		 call	 DWORD PTR __imp_??0?$basic_string@DU?$char_traits@D@std@@V?$allocator@D@2@@std@@QAE@XZ
  00c05	3b f4		 cmp	 esi, esp
  00c07	e8 00 00 00 00	 call	 __RTC_CheckEsp
  00c0c	c6 45 fc 01	 mov	 BYTE PTR __$EHRec$[ebp+8], 1

; 148  : 	//scan the path string, get all sub dir path string in the path
; 149  : 	for(unsigned int i= 0; i < strDirName.length(); i++)

  00c10	c7 85 64 fe ff
	ff 00 00 00 00	 mov	 DWORD PTR _i$83937[ebp], 0
  00c1a	eb 0f		 jmp	 SHORT $L83938
$L83939:
  00c1c	8b 85 64 fe ff
	ff		 mov	 eax, DWORD PTR _i$83937[ebp]
  00c22	83 c0 01	 add	 eax, 1
  00c25	89 85 64 fe ff
	ff		 mov	 DWORD PTR _i$83937[ebp], eax
$L83938:
  00c2b	8b f4		 mov	 esi, esp
  00c2d	8b 4d 08	 mov	 ecx, DWORD PTR _strDirName$[ebp]
  00c30	ff 15 00 00 00
	00		 call	 DWORD PTR __imp_?length@?$basic_string@DU?$char_traits@D@std@@V?$allocator@D@2@@std@@QBEIXZ
  00c36	3b f4		 cmp	 esi, esp
  00c38	e8 00 00 00 00	 call	 __RTC_CheckEsp
  00c3d	39 85 64 fe ff
	ff		 cmp	 DWORD PTR _i$83937[ebp], eax
  00c43	0f 83 17 01 00
	00		 jae	 $L83940

; 150  : 	{
; 151  : 		if(strDirName[i] != '\\' && strDirName[i] != '/')

  00c49	8b f4		 mov	 esi, esp
  00c4b	8b 8d 64 fe ff
	ff		 mov	 ecx, DWORD PTR _i$83937[ebp]
  00c51	51		 push	 ecx
  00c52	8b 4d 08	 mov	 ecx, DWORD PTR _strDirName$[ebp]
  00c55	ff 15 00 00 00
	00		 call	 DWORD PTR __imp_??A?$basic_string@DU?$char_traits@D@std@@V?$allocator@D@2@@std@@QBEABDI@Z
  00c5b	3b f4		 cmp	 esi, esp
  00c5d	e8 00 00 00 00	 call	 __RTC_CheckEsp
  00c62	0f be 10	 movsx	 edx, BYTE PTR [eax]
  00c65	83 fa 5c	 cmp	 edx, 92			; 0000005cH
  00c68	74 54		 je	 SHORT $L83941
  00c6a	8b f4		 mov	 esi, esp
  00c6c	8b 85 64 fe ff
	ff		 mov	 eax, DWORD PTR _i$83937[ebp]
  00c72	50		 push	 eax
  00c73	8b 4d 08	 mov	 ecx, DWORD PTR _strDirName$[ebp]
  00c76	ff 15 00 00 00
	00		 call	 DWORD PTR __imp_??A?$basic_string@DU?$char_traits@D@std@@V?$allocator@D@2@@std@@QBEABDI@Z
  00c7c	3b f4		 cmp	 esi, esp
  00c7e	e8 00 00 00 00	 call	 __RTC_CheckEsp
  00c83	0f be 08	 movsx	 ecx, BYTE PTR [eax]
  00c86	83 f9 2f	 cmp	 ecx, 47			; 0000002fH
  00c89	74 33		 je	 SHORT $L83941

; 152  : 		{
; 153  : 			strTemp += strDirName[i];

  00c8b	8b f4		 mov	 esi, esp
  00c8d	8b 95 64 fe ff
	ff		 mov	 edx, DWORD PTR _i$83937[ebp]
  00c93	52		 push	 edx
  00c94	8b 4d 08	 mov	 ecx, DWORD PTR _strDirName$[ebp]
  00c97	ff 15 00 00 00
	00		 call	 DWORD PTR __imp_??A?$basic_string@DU?$char_traits@D@std@@V?$allocator@D@2@@std@@QBEABDI@Z
  00c9d	3b f4		 cmp	 esi, esp
  00c9f	e8 00 00 00 00	 call	 __RTC_CheckEsp
  00ca4	8b f4		 mov	 esi, esp
  00ca6	8a 00		 mov	 al, BYTE PTR [eax]
  00ca8	50		 push	 eax
  00ca9	8d 8d 6c fe ff
	ff		 lea	 ecx, DWORD PTR _strTemp$[ebp]
  00caf	ff 15 00 00 00
	00		 call	 DWORD PTR __imp_??Y?$basic_string@DU?$char_traits@D@std@@V?$allocator@D@2@@std@@QAEAAV01@D@Z
  00cb5	3b f4		 cmp	 esi, esp
  00cb7	e8 00 00 00 00	 call	 __RTC_CheckEsp

; 154  : 		}
; 155  : 		else

  00cbc	eb 2c		 jmp	 SHORT $L83942
$L83941:

; 156  : 		{
; 157  : 			vecDirs.push_back(strTemp);

  00cbe	8d 8d 6c fe ff
	ff		 lea	 ecx, DWORD PTR _strTemp$[ebp]
  00cc4	51		 push	 ecx
  00cc5	8d 8d 94 fe ff
	ff		 lea	 ecx, DWORD PTR _vecDirs$[ebp]
  00ccb	e8 00 00 00 00	 call	 ?push_back@?$vector@V?$basic_string@DU?$char_traits@D@std@@V?$allocator@D@2@@std@@V?$allocator@V?$basic_string@DU?$char_traits@D@std@@V?$allocator@D@2@@std@@@2@@std@@QAEXABV?$basic_string@DU?$char_traits@D@std@@V?$allocator@D@2@@2@@Z ; std::vector<std::basic_string<char,std::char_traits<char>,std::allocator<char> >,std::allocator<std::basic_string<char,std::char_traits<char>,std::allocator<char> > > >::push_back

; 158  : 			strTemp += "\\";

  00cd0	8b f4		 mov	 esi, esp
  00cd2	68 00 00 00 00	 push	 OFFSET FLAT:$SG83943
  00cd7	8d 8d 6c fe ff
	ff		 lea	 ecx, DWORD PTR _strTemp$[ebp]
  00cdd	ff 15 00 00 00
	00		 call	 DWORD PTR __imp_??Y?$basic_string@DU?$char_traits@D@std@@V?$allocator@D@2@@std@@QAEAAV01@PBD@Z
  00ce3	3b f4		 cmp	 esi, esp
  00ce5	e8 00 00 00 00	 call	 __RTC_CheckEsp
$L83942:

; 159  : 		}
; 160  : 
; 161  : 		//end of strPath
; 162  : 		if( strDirName[i] != '\\' && strDirName[i] != '/' && i == strDirName.length() - 1)

  00cea	8b f4		 mov	 esi, esp
  00cec	8b 95 64 fe ff
	ff		 mov	 edx, DWORD PTR _i$83937[ebp]
  00cf2	52		 push	 edx
  00cf3	8b 4d 08	 mov	 ecx, DWORD PTR _strDirName$[ebp]
  00cf6	ff 15 00 00 00
	00		 call	 DWORD PTR __imp_??A?$basic_string@DU?$char_traits@D@std@@V?$allocator@D@2@@std@@QBEABDI@Z
  00cfc	3b f4		 cmp	 esi, esp
  00cfe	e8 00 00 00 00	 call	 __RTC_CheckEsp
  00d03	0f be 00	 movsx	 eax, BYTE PTR [eax]
  00d06	83 f8 5c	 cmp	 eax, 92			; 0000005cH
  00d09	74 50		 je	 SHORT $L83944
  00d0b	8b f4		 mov	 esi, esp
  00d0d	8b 8d 64 fe ff
	ff		 mov	 ecx, DWORD PTR _i$83937[ebp]
  00d13	51		 push	 ecx
  00d14	8b 4d 08	 mov	 ecx, DWORD PTR _strDirName$[ebp]
  00d17	ff 15 00 00 00
	00		 call	 DWORD PTR __imp_??A?$basic_string@DU?$char_traits@D@std@@V?$allocator@D@2@@std@@QBEABDI@Z
  00d1d	3b f4		 cmp	 esi, esp
  00d1f	e8 00 00 00 00	 call	 __RTC_CheckEsp
  00d24	0f be 10	 movsx	 edx, BYTE PTR [eax]
  00d27	83 fa 2f	 cmp	 edx, 47			; 0000002fH
  00d2a	74 2f		 je	 SHORT $L83944
  00d2c	8b f4		 mov	 esi, esp
  00d2e	8b 4d 08	 mov	 ecx, DWORD PTR _strDirName$[ebp]
  00d31	ff 15 00 00 00
	00		 call	 DWORD PTR __imp_?length@?$basic_string@DU?$char_traits@D@std@@V?$allocator@D@2@@std@@QBEIXZ
  00d37	3b f4		 cmp	 esi, esp
  00d39	e8 00 00 00 00	 call	 __RTC_CheckEsp
  00d3e	83 e8 01	 sub	 eax, 1
  00d41	39 85 64 fe ff
	ff		 cmp	 DWORD PTR _i$83937[ebp], eax
  00d47	75 12		 jne	 SHORT $L83944

; 163  : 		{
; 164  : 			vecDirs.push_back(strTemp);

  00d49	8d 85 6c fe ff
	ff		 lea	 eax, DWORD PTR _strTemp$[ebp]
  00d4f	50		 push	 eax
  00d50	8d 8d 94 fe ff
	ff		 lea	 ecx, DWORD PTR _vecDirs$[ebp]
  00d56	e8 00 00 00 00	 call	 ?push_back@?$vector@V?$basic_string@DU?$char_traits@D@std@@V?$allocator@D@2@@std@@V?$allocator@V?$basic_string@DU?$char_traits@D@std@@V?$allocator@D@2@@std@@@2@@std@@QAEXABV?$basic_string@DU?$char_traits@D@std@@V?$allocator@D@2@@2@@Z ; std::vector<std::basic_string<char,std::char_traits<char>,std::allocator<char> >,std::allocator<std::basic_string<char,std::char_traits<char>,std::allocator<char> > > >::push_back
$L83944:

; 165  : 		}
; 166  : 	}

  00d5b	e9 bc fe ff ff	 jmp	 $L83939
$L83940:

; 167  : 
; 168  : 	bool ret = true;

  00d60	c6 85 63 fe ff
	ff 01		 mov	 BYTE PTR _ret$[ebp], 1

; 169  : 	//create dirs in the vecDirs 
; 170  : 	for(int i = 1; i < (int)vecDirs.size(); i++)

  00d67	c7 85 5c fe ff
	ff 01 00 00 00	 mov	 DWORD PTR _i$83946[ebp], 1
  00d71	eb 0f		 jmp	 SHORT $L83948
$L83949:
  00d73	8b 8d 5c fe ff
	ff		 mov	 ecx, DWORD PTR _i$83946[ebp]
  00d79	83 c1 01	 add	 ecx, 1
  00d7c	89 8d 5c fe ff
	ff		 mov	 DWORD PTR _i$83946[ebp], ecx
$L83948:
  00d82	8d 8d 94 fe ff
	ff		 lea	 ecx, DWORD PTR _vecDirs$[ebp]
  00d88	e8 00 00 00 00	 call	 ?size@?$vector@V?$basic_string@DU?$char_traits@D@std@@V?$allocator@D@2@@std@@V?$allocator@V?$basic_string@DU?$char_traits@D@std@@V?$allocator@D@2@@std@@@2@@std@@QBEIXZ ; std::vector<std::basic_string<char,std::char_traits<char>,std::allocator<char> >,std::allocator<std::basic_string<char,std::char_traits<char>,std::allocator<char> > > >::size
  00d8d	39 85 5c fe ff
	ff		 cmp	 DWORD PTR _i$83946[ebp], eax
  00d93	0f 8d a3 00 00
	00		 jge	 $L83950

; 171  : 	{
; 172  : 		if(::CreateDirectory(vecDirs[i].c_str(), NULL) == TRUE )

  00d99	8b f4		 mov	 esi, esp
  00d9b	6a 00		 push	 0
  00d9d	8b 95 5c fe ff
	ff		 mov	 edx, DWORD PTR _i$83946[ebp]
  00da3	52		 push	 edx
  00da4	8d 8d 94 fe ff
	ff		 lea	 ecx, DWORD PTR _vecDirs$[ebp]
  00daa	e8 00 00 00 00	 call	 ??A?$vector@V?$basic_string@DU?$char_traits@D@std@@V?$allocator@D@2@@std@@V?$allocator@V?$basic_string@DU?$char_traits@D@std@@V?$allocator@D@2@@std@@@2@@std@@QAEAAV?$basic_string@DU?$char_traits@D@std@@V?$allocator@D@2@@1@I@Z ; std::vector<std::basic_string<char,std::char_traits<char>,std::allocator<char> >,std::allocator<std::basic_string<char,std::char_traits<char>,std::allocator<char> > > >::operator[]
  00daf	8b fc		 mov	 edi, esp
  00db1	8b c8		 mov	 ecx, eax
  00db3	ff 15 00 00 00
	00		 call	 DWORD PTR __imp_?c_str@?$basic_string@DU?$char_traits@D@std@@V?$allocator@D@2@@std@@QBEPBDXZ
  00db9	3b fc		 cmp	 edi, esp
  00dbb	e8 00 00 00 00	 call	 __RTC_CheckEsp
  00dc0	50		 push	 eax
  00dc1	ff 15 00 00 00
	00		 call	 DWORD PTR __imp__CreateDirectoryA@8
  00dc7	3b f4		 cmp	 esi, esp
  00dc9	e8 00 00 00 00	 call	 __RTC_CheckEsp
  00dce	83 f8 01	 cmp	 eax, 1
  00dd1	75 3a		 jne	 SHORT $L83951

; 173  : 		{
; 174  : 			SetFileAttributes(vecDirs[i].c_str(), FILE_ATTRIBUTE_NORMAL);

  00dd3	8b f4		 mov	 esi, esp
  00dd5	68 80 00 00 00	 push	 128			; 00000080H
  00dda	8b 85 5c fe ff
	ff		 mov	 eax, DWORD PTR _i$83946[ebp]
  00de0	50		 push	 eax
  00de1	8d 8d 94 fe ff
	ff		 lea	 ecx, DWORD PTR _vecDirs$[ebp]
  00de7	e8 00 00 00 00	 call	 ??A?$vector@V?$basic_string@DU?$char_traits@D@std@@V?$allocator@D@2@@std@@V?$allocator@V?$basic_string@DU?$char_traits@D@std@@V?$allocator@D@2@@std@@@2@@std@@QAEAAV?$basic_string@DU?$char_traits@D@std@@V?$allocator@D@2@@1@I@Z ; std::vector<std::basic_string<char,std::char_traits<char>,std::allocator<char> >,std::allocator<std::basic_string<char,std::char_traits<char>,std::allocator<char> > > >::operator[]
  00dec	8b fc		 mov	 edi, esp
  00dee	8b c8		 mov	 ecx, eax
  00df0	ff 15 00 00 00
	00		 call	 DWORD PTR __imp_?c_str@?$basic_string@DU?$char_traits@D@std@@V?$allocator@D@2@@std@@QBEPBDXZ
  00df6	3b fc		 cmp	 edi, esp
  00df8	e8 00 00 00 00	 call	 __RTC_CheckEsp
  00dfd	50		 push	 eax
  00dfe	ff 15 00 00 00
	00		 call	 DWORD PTR __imp__SetFileAttributesA@8
  00e04	3b f4		 cmp	 esi, esp
  00e06	e8 00 00 00 00	 call	 __RTC_CheckEsp

; 175  : 		}
; 176  : 		else

  00e0b	eb 2a		 jmp	 SHORT $L83952
$L83951:

; 177  : 		{
; 178  : 			DWORD dwError = ::GetLastError();

  00e0d	8b f4		 mov	 esi, esp
  00e0f	ff 15 00 00 00
	00		 call	 DWORD PTR __imp__GetLastError@0
  00e15	3b f4		 cmp	 esi, esp
  00e17	e8 00 00 00 00	 call	 __RTC_CheckEsp
  00e1c	89 85 58 fe ff
	ff		 mov	 DWORD PTR _dwError$83953[ebp], eax

; 179  : 			if(dwError != ERROR_ALREADY_EXISTS)

  00e22	81 bd 58 fe ff
	ff b7 00 00 00	 cmp	 DWORD PTR _dwError$83953[ebp], 183 ; 000000b7H
  00e2c	74 09		 je	 SHORT $L83952

; 180  : 			{
; 181  : 				ret = false;

  00e2e	c6 85 63 fe ff
	ff 00		 mov	 BYTE PTR _ret$[ebp], 0

; 182  : 				break;

  00e35	eb 05		 jmp	 SHORT $L83950
$L83952:

; 183  : 			}
; 184  : 		}
; 185  : 	}

  00e37	e9 37 ff ff ff	 jmp	 $L83949
$L83950:

; 186  : 
; 187  : 	return ret;

  00e3c	8a 8d 63 fe ff
	ff		 mov	 cl, BYTE PTR _ret$[ebp]
  00e42	88 8d 55 fe ff
	ff		 mov	 BYTE PTR $T89061[ebp], cl
  00e48	c6 45 fc 00	 mov	 BYTE PTR __$EHRec$[ebp+8], 0
  00e4c	8b f4		 mov	 esi, esp
  00e4e	8d 8d 6c fe ff
	ff		 lea	 ecx, DWORD PTR _strTemp$[ebp]
  00e54	ff 15 00 00 00
	00		 call	 DWORD PTR __imp_??1?$basic_string@DU?$char_traits@D@std@@V?$allocator@D@2@@std@@QAE@XZ
  00e5a	3b f4		 cmp	 esi, esp
  00e5c	e8 00 00 00 00	 call	 __RTC_CheckEsp
  00e61	c7 45 fc ff ff
	ff ff		 mov	 DWORD PTR __$EHRec$[ebp+8], -1
  00e68	8d 8d 94 fe ff
	ff		 lea	 ecx, DWORD PTR _vecDirs$[ebp]
  00e6e	e8 00 00 00 00	 call	 ??1?$vector@V?$basic_string@DU?$char_traits@D@std@@V?$allocator@D@2@@std@@V?$allocator@V?$basic_string@DU?$char_traits@D@std@@V?$allocator@D@2@@std@@@2@@std@@QAE@XZ ; std::vector<std::basic_string<char,std::char_traits<char>,std::allocator<char> >,std::allocator<std::basic_string<char,std::char_traits<char>,std::allocator<char> > > >::~vector<std::basic_string<char,std::char_traits<char>,std::allocator<char> >,std::allocator<std::basic_string<char,std::char_traits<char>,std::allocator<char> > > >
  00e73	8a 85 55 fe ff
	ff		 mov	 al, BYTE PTR $T89061[ebp]
$L83682:

; 188  : }

  00e79	52		 push	 edx
  00e7a	8b cd		 mov	 ecx, ebp
  00e7c	50		 push	 eax
  00e7d	8d 15 00 00 00
	00		 lea	 edx, DWORD PTR $L89072
  00e83	e8 00 00 00 00	 call	 @_RTC_CheckStackVars@8
  00e88	58		 pop	 eax
  00e89	5a		 pop	 edx
  00e8a	8b 4d f4	 mov	 ecx, DWORD PTR __$EHRec$[ebp]
  00e8d	64 89 0d 00 00
	00 00		 mov	 DWORD PTR fs:__except_list, ecx
  00e94	8b 4d f0	 mov	 ecx, DWORD PTR __$ArrayPad$[ebp]
  00e97	e8 00 00 00 00	 call	 @__security_check_cookie@4
  00e9c	5f		 pop	 edi
  00e9d	5e		 pop	 esi
  00e9e	81 c4 ac 01 00
	00		 add	 esp, 428		; 000001acH
  00ea4	3b ec		 cmp	 ebp, esp
  00ea6	e8 00 00 00 00	 call	 __RTC_CheckEsp
  00eab	8b e5		 mov	 esp, ebp
  00ead	5d		 pop	 ebp
  00eae	c3		 ret	 0
$L89072:
  00eaf	03 00 00 00	 DD	 3
  00eb3	00 00 00 00	 DD	 $L89071
$L89071:
  00eb7	ac fe ff ff	 DD	 -340			; fffffeacH
  00ebb	40 01 00 00	 DD	 320			; 00000140H
  00ebf	00 00 00 00	 DD	 $L89066
  00ec3	94 fe ff ff	 DD	 -364			; fffffe94H
  00ec7	10 00 00 00	 DD	 16			; 00000010H
  00ecb	00 00 00 00	 DD	 $L89067
  00ecf	6c fe ff ff	 DD	 -404			; fffffe6cH
  00ed3	1c 00 00 00	 DD	 28			; 0000001cH
  00ed7	00 00 00 00	 DD	 $L89068
$L89068:
  00edb	73		 DB	 115			; 00000073H
  00edc	74		 DB	 116			; 00000074H
  00edd	72		 DB	 114			; 00000072H
  00ede	54		 DB	 84			; 00000054H
  00edf	65		 DB	 101			; 00000065H
  00ee0	6d		 DB	 109			; 0000006dH
  00ee1	70		 DB	 112			; 00000070H
  00ee2	00		 DB	 0
$L89067:
  00ee3	76		 DB	 118			; 00000076H
  00ee4	65		 DB	 101			; 00000065H
  00ee5	63		 DB	 99			; 00000063H
  00ee6	44		 DB	 68			; 00000044H
  00ee7	69		 DB	 105			; 00000069H
  00ee8	72		 DB	 114			; 00000072H
  00ee9	73		 DB	 115			; 00000073H
  00eea	00		 DB	 0
$L89066:
  00eeb	66		 DB	 102			; 00000066H
  00eec	69		 DB	 105			; 00000069H
  00eed	6c		 DB	 108			; 0000006cH
  00eee	65		 DB	 101			; 00000065H
  00eef	49		 DB	 73			; 00000049H
  00ef0	6e		 DB	 110			; 0000006eH
  00ef1	66		 DB	 102			; 00000066H
  00ef2	6f		 DB	 111			; 0000006fH
  00ef3	00		 DB	 0
_TEXT	ENDS
text$x	SEGMENT
$L89062:
  000d5	8d 8d 94 fe ff
	ff		 lea	 ecx, DWORD PTR _vecDirs$[ebp]
  000db	e9 00 00 00 00	 jmp	 ??1?$vector@V?$basic_string@DU?$char_traits@D@std@@V?$allocator@D@2@@std@@V?$allocator@V?$basic_string@DU?$char_traits@D@std@@V?$allocator@D@2@@std@@@2@@std@@QAE@XZ ; std::vector<std::basic_string<char,std::char_traits<char>,std::allocator<char> >,std::allocator<std::basic_string<char,std::char_traits<char>,std::allocator<char> > > >::~vector<std::basic_string<char,std::char_traits<char>,std::allocator<char> >,std::allocator<std::basic_string<char,std::char_traits<char>,std::allocator<char> > > >
$L89063:
  000e0	8b f4		 mov	 esi, esp
  000e2	8d 8d 6c fe ff
	ff		 lea	 ecx, DWORD PTR _strTemp$[ebp]
  000e8	ff 15 00 00 00
	00		 call	 DWORD PTR __imp_??1?$basic_string@DU?$char_traits@D@std@@V?$allocator@D@2@@std@@QAE@XZ
  000ee	3b f4		 cmp	 esi, esp
  000f0	e9 00 00 00 00	 jmp	 __RTC_CheckEsp
__ehhandler$?MakeDir@YL_DirInfo@@SA_NABV?$basic_string@DU?$char_traits@D@std@@V?$allocator@D@2@@std@@@Z:
  000f5	b8 00 00 00 00	 mov	 eax, OFFSET FLAT:$T89065
  000fa	e9 00 00 00 00	 jmp	 ___CxxFrameHandler
text$x	ENDS
?MakeDir@YL_DirInfo@@SA_NABV?$basic_string@DU?$char_traits@D@std@@V?$allocator@D@2@@std@@@Z ENDP ; YL_DirInfo::MakeDir
PUBLIC	?DeleteDir@YL_DirInfo@@SA_NPBD@Z		; YL_DirInfo::DeleteDir
PUBLIC	?DeleteDir@YL_DirInfo@@SA_NABV?$basic_string@DU?$char_traits@D@std@@V?$allocator@D@2@@std@@@Z ; YL_DirInfo::DeleteDir
xdata$x	SEGMENT
$T89081	DD	0ffffffffH
	DD	FLAT:$L89077
$T89079	DD	019930520H
	DD	01H
	DD	FLAT:$T89081
	DD	2 DUP(00H)
	DD	2 DUP(00H)
; Function compile flags: /Odt /RTCsu
xdata$x	ENDS
_TEXT	SEGMENT
tv73 = -52						; size = 4
tv74 = -48						; size = 4
$T89076 = -44						; size = 28
$T89075 = -13						; size = 1
__$EHRec$ = -12						; size = 12
_pszDirName$ = 8					; size = 4
?DeleteDir@YL_DirInfo@@SA_NPBD@Z PROC NEAR		; YL_DirInfo::DeleteDir

; 192  : {

  00f00	55		 push	 ebp
  00f01	8b ec		 mov	 ebp, esp
  00f03	6a ff		 push	 -1
  00f05	68 00 00 00 00	 push	 __ehhandler$?DeleteDir@YL_DirInfo@@SA_NPBD@Z
  00f0a	64 a1 00 00 00
	00		 mov	 eax, DWORD PTR fs:__except_list
  00f10	50		 push	 eax
  00f11	64 89 25 00 00
	00 00		 mov	 DWORD PTR fs:__except_list, esp
  00f18	83 ec 28	 sub	 esp, 40			; 00000028H
  00f1b	56		 push	 esi
  00f1c	57		 push	 edi
  00f1d	8d 7d cc	 lea	 edi, DWORD PTR [ebp-52]
  00f20	b9 0a 00 00 00	 mov	 ecx, 10			; 0000000aH
  00f25	b8 cc cc cc cc	 mov	 eax, -858993460		; ccccccccH
  00f2a	f3 ab		 rep stosd

; 193  : 	if( pszDirName == NULL )

  00f2c	83 7d 08 00	 cmp	 DWORD PTR _pszDirName$[ebp], 0
  00f30	75 04		 jne	 SHORT $L83959

; 194  : 	{
; 195  : 		return false;

  00f32	32 c0		 xor	 al, al
  00f34	eb 51		 jmp	 SHORT $L83958
$L83959:

; 196  : 	}
; 197  : 	return DeleteDir(string(pszDirName));

  00f36	8b f4		 mov	 esi, esp
  00f38	8b 45 08	 mov	 eax, DWORD PTR _pszDirName$[ebp]
  00f3b	50		 push	 eax
  00f3c	8d 4d d4	 lea	 ecx, DWORD PTR $T89076[ebp]
  00f3f	ff 15 00 00 00
	00		 call	 DWORD PTR __imp_??0?$basic_string@DU?$char_traits@D@std@@V?$allocator@D@2@@std@@QAE@PBD@Z
  00f45	3b f4		 cmp	 esi, esp
  00f47	e8 00 00 00 00	 call	 __RTC_CheckEsp
  00f4c	89 45 d0	 mov	 DWORD PTR tv74[ebp], eax
  00f4f	8b 4d d0	 mov	 ecx, DWORD PTR tv74[ebp]
  00f52	89 4d cc	 mov	 DWORD PTR tv73[ebp], ecx
  00f55	c7 45 fc 00 00
	00 00		 mov	 DWORD PTR __$EHRec$[ebp+8], 0
  00f5c	8b 55 cc	 mov	 edx, DWORD PTR tv73[ebp]
  00f5f	52		 push	 edx
  00f60	e8 00 00 00 00	 call	 ?DeleteDir@YL_DirInfo@@SA_NABV?$basic_string@DU?$char_traits@D@std@@V?$allocator@D@2@@std@@@Z ; YL_DirInfo::DeleteDir
  00f65	83 c4 04	 add	 esp, 4
  00f68	88 45 f3	 mov	 BYTE PTR $T89075[ebp], al
  00f6b	c7 45 fc ff ff
	ff ff		 mov	 DWORD PTR __$EHRec$[ebp+8], -1
  00f72	8b f4		 mov	 esi, esp
  00f74	8d 4d d4	 lea	 ecx, DWORD PTR $T89076[ebp]
  00f77	ff 15 00 00 00
	00		 call	 DWORD PTR __imp_??1?$basic_string@DU?$char_traits@D@std@@V?$allocator@D@2@@std@@QAE@XZ
  00f7d	3b f4		 cmp	 esi, esp
  00f7f	e8 00 00 00 00	 call	 __RTC_CheckEsp
  00f84	8a 45 f3	 mov	 al, BYTE PTR $T89075[ebp]
$L83958:

; 198  : }

  00f87	8b 4d f4	 mov	 ecx, DWORD PTR __$EHRec$[ebp]
  00f8a	64 89 0d 00 00
	00 00		 mov	 DWORD PTR fs:__except_list, ecx
  00f91	5f		 pop	 edi
  00f92	5e		 pop	 esi
  00f93	83 c4 34	 add	 esp, 52			; 00000034H
  00f96	3b ec		 cmp	 ebp, esp
  00f98	e8 00 00 00 00	 call	 __RTC_CheckEsp
  00f9d	8b e5		 mov	 esp, ebp
  00f9f	5d		 pop	 ebp
  00fa0	c3		 ret	 0
_TEXT	ENDS
text$x	SEGMENT
$L89077:
  000ff	8b f4		 mov	 esi, esp
  00101	8d 4d d4	 lea	 ecx, DWORD PTR $T89076[ebp]
  00104	ff 15 00 00 00
	00		 call	 DWORD PTR __imp_??1?$basic_string@DU?$char_traits@D@std@@V?$allocator@D@2@@std@@QAE@XZ
  0010a	3b f4		 cmp	 esi, esp
  0010c	e9 00 00 00 00	 jmp	 __RTC_CheckEsp
__ehhandler$?DeleteDir@YL_DirInfo@@SA_NPBD@Z:
  00111	b8 00 00 00 00	 mov	 eax, OFFSET FLAT:$T89079
  00116	e9 00 00 00 00	 jmp	 ___CxxFrameHandler
text$x	ENDS
?DeleteDir@YL_DirInfo@@SA_NPBD@Z ENDP			; YL_DirInfo::DeleteDir
PUBLIC	?ClearDir@YL_DirInfo@@SA_NABV?$basic_string@DU?$char_traits@D@std@@V?$allocator@D@2@@std@@0@Z ; YL_DirInfo::ClearDir
PUBLIC	?FindFileAndDir@YL_DirInfo@@SA_NABV?$basic_string@DU?$char_traits@D@std@@V?$allocator@D@2@@std@@PAV?$vector@V?$basic_string@DU?$char_traits@D@std@@V?$allocator@D@2@@std@@V?$allocator@V?$basic_string@DU?$char_traits@D@std@@V?$allocator@D@2@@std@@@2@@3@1_NPBV43@@Z ; YL_DirInfo::FindFileAndDir
xdata$x	SEGMENT
$T89098	DD	0ffffffffH
	DD	FLAT:$L89088
	DD	00H
	DD	FLAT:$L89089
	DD	01H
	DD	FLAT:$L89090
$T89092	DD	019930520H
	DD	03H
	DD	FLAT:$T89098
	DD	2 DUP(00H)
	DD	2 DUP(00H)
; Function compile flags: /Odt /RTCsu
xdata$x	ENDS
_TEXT	SEGMENT
$T89087 = -98						; size = 1
$T89086 = -97						; size = 1
$T89085 = -96						; size = 28
$T89084 = -66						; size = 1
$T89083 = -65						; size = 1
_idx$83970 = -64					; size = 4
_vecFile$ = -56						; size = 16
_vecDir$ = -32						; size = 16
__$EHRec$ = -12						; size = 12
_strDirName$ = 8					; size = 4
?DeleteDir@YL_DirInfo@@SA_NABV?$basic_string@DU?$char_traits@D@std@@V?$allocator@D@2@@std@@@Z PROC NEAR ; YL_DirInfo::DeleteDir

; 201  : {	

  00fb0	55		 push	 ebp
  00fb1	8b ec		 mov	 ebp, esp
  00fb3	6a ff		 push	 -1
  00fb5	68 00 00 00 00	 push	 __ehhandler$?DeleteDir@YL_DirInfo@@SA_NABV?$basic_string@DU?$char_traits@D@std@@V?$allocator@D@2@@std@@@Z
  00fba	64 a1 00 00 00
	00		 mov	 eax, DWORD PTR fs:__except_list
  00fc0	50		 push	 eax
  00fc1	64 89 25 00 00
	00 00		 mov	 DWORD PTR fs:__except_list, esp
  00fc8	83 ec 58	 sub	 esp, 88			; 00000058H
  00fcb	56		 push	 esi
  00fcc	57		 push	 edi
  00fcd	8d 7d 9c	 lea	 edi, DWORD PTR [ebp-100]
  00fd0	b9 16 00 00 00	 mov	 ecx, 22			; 00000016H
  00fd5	b8 cc cc cc cc	 mov	 eax, -858993460		; ccccccccH
  00fda	f3 ab		 rep stosd

; 202  : 	vector<string> vecDir;

  00fdc	8d 4d e0	 lea	 ecx, DWORD PTR _vecDir$[ebp]
  00fdf	e8 00 00 00 00	 call	 ??0?$vector@V?$basic_string@DU?$char_traits@D@std@@V?$allocator@D@2@@std@@V?$allocator@V?$basic_string@DU?$char_traits@D@std@@V?$allocator@D@2@@std@@@2@@std@@QAE@XZ ; std::vector<std::basic_string<char,std::char_traits<char>,std::allocator<char> >,std::allocator<std::basic_string<char,std::char_traits<char>,std::allocator<char> > > >::vector<std::basic_string<char,std::char_traits<char>,std::allocator<char> >,std::allocator<std::basic_string<char,std::char_traits<char>,std::allocator<char> > > >
  00fe4	c7 45 fc 00 00
	00 00		 mov	 DWORD PTR __$EHRec$[ebp+8], 0

; 203  : 	vector<string> vecFile;

  00feb	8d 4d c8	 lea	 ecx, DWORD PTR _vecFile$[ebp]
  00fee	e8 00 00 00 00	 call	 ??0?$vector@V?$basic_string@DU?$char_traits@D@std@@V?$allocator@D@2@@std@@V?$allocator@V?$basic_string@DU?$char_traits@D@std@@V?$allocator@D@2@@std@@@2@@std@@QAE@XZ ; std::vector<std::basic_string<char,std::char_traits<char>,std::allocator<char> >,std::allocator<std::basic_string<char,std::char_traits<char>,std::allocator<char> > > >::vector<std::basic_string<char,std::char_traits<char>,std::allocator<char> >,std::allocator<std::basic_string<char,std::char_traits<char>,std::allocator<char> > > >
  00ff3	c6 45 fc 01	 mov	 BYTE PTR __$EHRec$[ebp+8], 1

; 204  : 
; 205  : 	if( YL_DirInfo::FindFileAndDir(strDirName,&vecDir,&vecFile,false) )

  00ff7	6a 00		 push	 0
  00ff9	6a 00		 push	 0
  00ffb	8d 45 c8	 lea	 eax, DWORD PTR _vecFile$[ebp]
  00ffe	50		 push	 eax
  00fff	8d 4d e0	 lea	 ecx, DWORD PTR _vecDir$[ebp]
  01002	51		 push	 ecx
  01003	8b 55 08	 mov	 edx, DWORD PTR _strDirName$[ebp]
  01006	52		 push	 edx
  01007	e8 00 00 00 00	 call	 ?FindFileAndDir@YL_DirInfo@@SA_NABV?$basic_string@DU?$char_traits@D@std@@V?$allocator@D@2@@std@@PAV?$vector@V?$basic_string@DU?$char_traits@D@std@@V?$allocator@D@2@@std@@V?$allocator@V?$basic_string@DU?$char_traits@D@std@@V?$allocator@D@2@@std@@@2@@3@1_NPBV43@@Z ; YL_DirInfo::FindFileAndDir
  0100c	83 c4 14	 add	 esp, 20			; 00000014H
  0100f	0f b6 c0	 movzx	 eax, al
  01012	85 c0		 test	 eax, eax
  01014	0f 84 d4 00 00
	00		 je	 $L83969

; 206  : 	{
; 207  : 		for(size_t idx = 0;idx <vecDir.size();idx++ )

  0101a	c7 45 c0 00 00
	00 00		 mov	 DWORD PTR _idx$83970[ebp], 0
  01021	eb 09		 jmp	 SHORT $L83971
$L83972:
  01023	8b 4d c0	 mov	 ecx, DWORD PTR _idx$83970[ebp]
  01026	83 c1 01	 add	 ecx, 1
  01029	89 4d c0	 mov	 DWORD PTR _idx$83970[ebp], ecx
$L83971:
  0102c	8d 4d e0	 lea	 ecx, DWORD PTR _vecDir$[ebp]
  0102f	e8 00 00 00 00	 call	 ?size@?$vector@V?$basic_string@DU?$char_traits@D@std@@V?$allocator@D@2@@std@@V?$allocator@V?$basic_string@DU?$char_traits@D@std@@V?$allocator@D@2@@std@@@2@@std@@QBEIXZ ; std::vector<std::basic_string<char,std::char_traits<char>,std::allocator<char> >,std::allocator<std::basic_string<char,std::char_traits<char>,std::allocator<char> > > >::size
  01034	39 45 c0	 cmp	 DWORD PTR _idx$83970[ebp], eax
  01037	73 45		 jae	 SHORT $L83973

; 208  : 		{
; 209  : 			if( !DeleteDir(vecDir[idx]) )

  01039	8b 55 c0	 mov	 edx, DWORD PTR _idx$83970[ebp]
  0103c	52		 push	 edx
  0103d	8d 4d e0	 lea	 ecx, DWORD PTR _vecDir$[ebp]
  01040	e8 00 00 00 00	 call	 ??A?$vector@V?$basic_string@DU?$char_traits@D@std@@V?$allocator@D@2@@std@@V?$allocator@V?$basic_string@DU?$char_traits@D@std@@V?$allocator@D@2@@std@@@2@@std@@QAEAAV?$basic_string@DU?$char_traits@D@std@@V?$allocator@D@2@@1@I@Z ; std::vector<std::basic_string<char,std::char_traits<char>,std::allocator<char> >,std::allocator<std::basic_string<char,std::char_traits<char>,std::allocator<char> > > >::operator[]
  01045	50		 push	 eax
  01046	e8 00 00 00 00	 call	 ?DeleteDir@YL_DirInfo@@SA_NABV?$basic_string@DU?$char_traits@D@std@@V?$allocator@D@2@@std@@@Z ; YL_DirInfo::DeleteDir
  0104b	83 c4 04	 add	 esp, 4
  0104e	0f b6 c0	 movzx	 eax, al
  01051	85 c0		 test	 eax, eax
  01053	75 27		 jne	 SHORT $L83974

; 210  : 			{
; 211  : 				return false;

  01055	c6 45 bf 00	 mov	 BYTE PTR $T89083[ebp], 0
  01059	c6 45 fc 00	 mov	 BYTE PTR __$EHRec$[ebp+8], 0
  0105d	8d 4d c8	 lea	 ecx, DWORD PTR _vecFile$[ebp]
  01060	e8 00 00 00 00	 call	 ??1?$vector@V?$basic_string@DU?$char_traits@D@std@@V?$allocator@D@2@@std@@V?$allocator@V?$basic_string@DU?$char_traits@D@std@@V?$allocator@D@2@@std@@@2@@std@@QAE@XZ ; std::vector<std::basic_string<char,std::char_traits<char>,std::allocator<char> >,std::allocator<std::basic_string<char,std::char_traits<char>,std::allocator<char> > > >::~vector<std::basic_string<char,std::char_traits<char>,std::allocator<char> >,std::allocator<std::basic_string<char,std::char_traits<char>,std::allocator<char> > > >
  01065	c7 45 fc ff ff
	ff ff		 mov	 DWORD PTR __$EHRec$[ebp+8], -1
  0106c	8d 4d e0	 lea	 ecx, DWORD PTR _vecDir$[ebp]
  0106f	e8 00 00 00 00	 call	 ??1?$vector@V?$basic_string@DU?$char_traits@D@std@@V?$allocator@D@2@@std@@V?$allocator@V?$basic_string@DU?$char_traits@D@std@@V?$allocator@D@2@@std@@@2@@std@@QAE@XZ ; std::vector<std::basic_string<char,std::char_traits<char>,std::allocator<char> >,std::allocator<std::basic_string<char,std::char_traits<char>,std::allocator<char> > > >::~vector<std::basic_string<char,std::char_traits<char>,std::allocator<char> >,std::allocator<std::basic_string<char,std::char_traits<char>,std::allocator<char> > > >
  01074	8a 45 bf	 mov	 al, BYTE PTR $T89083[ebp]
  01077	e9 94 00 00 00	 jmp	 $L83964
$L83974:

; 212  : 			}
; 213  : 		}

  0107c	eb a5		 jmp	 SHORT $L83972
$L83973:

; 214  : 
; 215  : 		if( ClearDir(strDirName) )

  0107e	8b f4		 mov	 esi, esp
  01080	68 00 00 00 00	 push	 OFFSET FLAT:$SG83979
  01085	8d 4d a0	 lea	 ecx, DWORD PTR $T89085[ebp]
  01088	ff 15 00 00 00
	00		 call	 DWORD PTR __imp_??0?$basic_string@DU?$char_traits@D@std@@V?$allocator@D@2@@std@@QAE@PBD@Z
  0108e	3b f4		 cmp	 esi, esp
  01090	e8 00 00 00 00	 call	 __RTC_CheckEsp
  01095	c6 45 fc 02	 mov	 BYTE PTR __$EHRec$[ebp+8], 2
  01099	8d 4d a0	 lea	 ecx, DWORD PTR $T89085[ebp]
  0109c	51		 push	 ecx
  0109d	8b 55 08	 mov	 edx, DWORD PTR _strDirName$[ebp]
  010a0	52		 push	 edx
  010a1	e8 00 00 00 00	 call	 ?ClearDir@YL_DirInfo@@SA_NABV?$basic_string@DU?$char_traits@D@std@@V?$allocator@D@2@@std@@0@Z ; YL_DirInfo::ClearDir
  010a6	83 c4 08	 add	 esp, 8
  010a9	88 45 be	 mov	 BYTE PTR $T89084[ebp], al
  010ac	c6 45 fc 01	 mov	 BYTE PTR __$EHRec$[ebp+8], 1
  010b0	8b f4		 mov	 esi, esp
  010b2	8d 4d a0	 lea	 ecx, DWORD PTR $T89085[ebp]
  010b5	ff 15 00 00 00
	00		 call	 DWORD PTR __imp_??1?$basic_string@DU?$char_traits@D@std@@V?$allocator@D@2@@std@@QAE@XZ
  010bb	3b f4		 cmp	 esi, esp
  010bd	e8 00 00 00 00	 call	 __RTC_CheckEsp
  010c2	0f b6 45 be	 movzx	 eax, BYTE PTR $T89084[ebp]
  010c6	85 c0		 test	 eax, eax
  010c8	74 24		 je	 SHORT $L83969

; 216  : 		{
; 217  : 			return true;

  010ca	c6 45 9f 01	 mov	 BYTE PTR $T89086[ebp], 1
  010ce	c6 45 fc 00	 mov	 BYTE PTR __$EHRec$[ebp+8], 0
  010d2	8d 4d c8	 lea	 ecx, DWORD PTR _vecFile$[ebp]
  010d5	e8 00 00 00 00	 call	 ??1?$vector@V?$basic_string@DU?$char_traits@D@std@@V?$allocator@D@2@@std@@V?$allocator@V?$basic_string@DU?$char_traits@D@std@@V?$allocator@D@2@@std@@@2@@std@@QAE@XZ ; std::vector<std::basic_string<char,std::char_traits<char>,std::allocator<char> >,std::allocator<std::basic_string<char,std::char_traits<char>,std::allocator<char> > > >::~vector<std::basic_string<char,std::char_traits<char>,std::allocator<char> >,std::allocator<std::basic_string<char,std::char_traits<char>,std::allocator<char> > > >
  010da	c7 45 fc ff ff
	ff ff		 mov	 DWORD PTR __$EHRec$[ebp+8], -1
  010e1	8d 4d e0	 lea	 ecx, DWORD PTR _vecDir$[ebp]
  010e4	e8 00 00 00 00	 call	 ??1?$vector@V?$basic_string@DU?$char_traits@D@std@@V?$allocator@D@2@@std@@V?$allocator@V?$basic_string@DU?$char_traits@D@std@@V?$allocator@D@2@@std@@@2@@std@@QAE@XZ ; std::vector<std::basic_string<char,std::char_traits<char>,std::allocator<char> >,std::allocator<std::basic_string<char,std::char_traits<char>,std::allocator<char> > > >::~vector<std::basic_string<char,std::char_traits<char>,std::allocator<char> >,std::allocator<std::basic_string<char,std::char_traits<char>,std::allocator<char> > > >
  010e9	8a 45 9f	 mov	 al, BYTE PTR $T89086[ebp]
  010ec	eb 22		 jmp	 SHORT $L83964
$L83969:

; 218  : 		}		
; 219  : 	}
; 220  : 
; 221  : 	return false;

  010ee	c6 45 9e 00	 mov	 BYTE PTR $T89087[ebp], 0
  010f2	c6 45 fc 00	 mov	 BYTE PTR __$EHRec$[ebp+8], 0
  010f6	8d 4d c8	 lea	 ecx, DWORD PTR _vecFile$[ebp]
  010f9	e8 00 00 00 00	 call	 ??1?$vector@V?$basic_string@DU?$char_traits@D@std@@V?$allocator@D@2@@std@@V?$allocator@V?$basic_string@DU?$char_traits@D@std@@V?$allocator@D@2@@std@@@2@@std@@QAE@XZ ; std::vector<std::basic_string<char,std::char_traits<char>,std::allocator<char> >,std::allocator<std::basic_string<char,std::char_traits<char>,std::allocator<char> > > >::~vector<std::basic_string<char,std::char_traits<char>,std::allocator<char> >,std::allocator<std::basic_string<char,std::char_traits<char>,std::allocator<char> > > >
  010fe	c7 45 fc ff ff
	ff ff		 mov	 DWORD PTR __$EHRec$[ebp+8], -1
  01105	8d 4d e0	 lea	 ecx, DWORD PTR _vecDir$[ebp]
  01108	e8 00 00 00 00	 call	 ??1?$vector@V?$basic_string@DU?$char_traits@D@std@@V?$allocator@D@2@@std@@V?$allocator@V?$basic_string@DU?$char_traits@D@std@@V?$allocator@D@2@@std@@@2@@std@@QAE@XZ ; std::vector<std::basic_string<char,std::char_traits<char>,std::allocator<char> >,std::allocator<std::basic_string<char,std::char_traits<char>,std::allocator<char> > > >::~vector<std::basic_string<char,std::char_traits<char>,std::allocator<char> >,std::allocator<std::basic_string<char,std::char_traits<char>,std::allocator<char> > > >
  0110d	8a 45 9e	 mov	 al, BYTE PTR $T89087[ebp]
$L83964:

; 222  : }

  01110	52		 push	 edx
  01111	8b cd		 mov	 ecx, ebp
  01113	50		 push	 eax
  01114	8d 15 00 00 00
	00		 lea	 edx, DWORD PTR $L89097
  0111a	e8 00 00 00 00	 call	 @_RTC_CheckStackVars@8
  0111f	58		 pop	 eax
  01120	5a		 pop	 edx
  01121	8b 4d f4	 mov	 ecx, DWORD PTR __$EHRec$[ebp]
  01124	64 89 0d 00 00
	00 00		 mov	 DWORD PTR fs:__except_list, ecx
  0112b	5f		 pop	 edi
  0112c	5e		 pop	 esi
  0112d	83 c4 64	 add	 esp, 100		; 00000064H
  01130	3b ec		 cmp	 ebp, esp
  01132	e8 00 00 00 00	 call	 __RTC_CheckEsp
  01137	8b e5		 mov	 esp, ebp
  01139	5d		 pop	 ebp
  0113a	c3		 ret	 0
$L89097:
  0113b	02 00 00 00	 DD	 2
  0113f	00 00 00 00	 DD	 $L89096
$L89096:
  01143	e0 ff ff ff	 DD	 -32			; ffffffe0H
  01147	10 00 00 00	 DD	 16			; 00000010H
  0114b	00 00 00 00	 DD	 $L89093
  0114f	c8 ff ff ff	 DD	 -56			; ffffffc8H
  01153	10 00 00 00	 DD	 16			; 00000010H
  01157	00 00 00 00	 DD	 $L89094
$L89094:
  0115b	76		 DB	 118			; 00000076H
  0115c	65		 DB	 101			; 00000065H
  0115d	63		 DB	 99			; 00000063H
  0115e	46		 DB	 70			; 00000046H
  0115f	69		 DB	 105			; 00000069H
  01160	6c		 DB	 108			; 0000006cH
  01161	65		 DB	 101			; 00000065H
  01162	00		 DB	 0
$L89093:
  01163	76		 DB	 118			; 00000076H
  01164	65		 DB	 101			; 00000065H
  01165	63		 DB	 99			; 00000063H
  01166	44		 DB	 68			; 00000044H
  01167	69		 DB	 105			; 00000069H
  01168	72		 DB	 114			; 00000072H
  01169	00		 DB	 0
_TEXT	ENDS
text$x	SEGMENT
$L89088:
  0011b	8d 4d e0	 lea	 ecx, DWORD PTR _vecDir$[ebp]
  0011e	e9 00 00 00 00	 jmp	 ??1?$vector@V?$basic_string@DU?$char_traits@D@std@@V?$allocator@D@2@@std@@V?$allocator@V?$basic_string@DU?$char_traits@D@std@@V?$allocator@D@2@@std@@@2@@std@@QAE@XZ ; std::vector<std::basic_string<char,std::char_traits<char>,std::allocator<char> >,std::allocator<std::basic_string<char,std::char_traits<char>,std::allocator<char> > > >::~vector<std::basic_string<char,std::char_traits<char>,std::allocator<char> >,std::allocator<std::basic_string<char,std::char_traits<char>,std::allocator<char> > > >
$L89089:
  00123	8d 4d c8	 lea	 ecx, DWORD PTR _vecFile$[ebp]
  00126	e9 00 00 00 00	 jmp	 ??1?$vector@V?$basic_string@DU?$char_traits@D@std@@V?$allocator@D@2@@std@@V?$allocator@V?$basic_string@DU?$char_traits@D@std@@V?$allocator@D@2@@std@@@2@@std@@QAE@XZ ; std::vector<std::basic_string<char,std::char_traits<char>,std::allocator<char> >,std::allocator<std::basic_string<char,std::char_traits<char>,std::allocator<char> > > >::~vector<std::basic_string<char,std::char_traits<char>,std::allocator<char> >,std::allocator<std::basic_string<char,std::char_traits<char>,std::allocator<char> > > >
$L89090:
  0012b	8b f4		 mov	 esi, esp
  0012d	8d 4d a0	 lea	 ecx, DWORD PTR $T89085[ebp]
  00130	ff 15 00 00 00
	00		 call	 DWORD PTR __imp_??1?$basic_string@DU?$char_traits@D@std@@V?$allocator@D@2@@std@@QAE@XZ
  00136	3b f4		 cmp	 esi, esp
  00138	e9 00 00 00 00	 jmp	 __RTC_CheckEsp
__ehhandler$?DeleteDir@YL_DirInfo@@SA_NABV?$basic_string@DU?$char_traits@D@std@@V?$allocator@D@2@@std@@@Z:
  0013d	b8 00 00 00 00	 mov	 eax, OFFSET FLAT:$T89092
  00142	e9 00 00 00 00	 jmp	 ___CxxFrameHandler
text$x	ENDS
?DeleteDir@YL_DirInfo@@SA_NABV?$basic_string@DU?$char_traits@D@std@@V?$allocator@D@2@@std@@@Z ENDP ; YL_DirInfo::DeleteDir
PUBLIC	?ClearDir@YL_DirInfo@@SA_NPBD0@Z		; YL_DirInfo::ClearDir
xdata$x	SEGMENT
$T89113	DD	0ffffffffH
	DD	FLAT:$L89106
	DD	00H
	DD	FLAT:$L89107
	DD	0ffffffffH
	DD	FLAT:$L89108
	DD	02H
	DD	FLAT:$L89109
$T89111	DD	019930520H
	DD	04H
	DD	FLAT:$T89113
	DD	2 DUP(00H)
	DD	2 DUP(00H)
; Function compile flags: /Odt /RTCsu
xdata$x	ENDS
_TEXT	SEGMENT
tv129 = -156						; size = 4
tv137 = -152						; size = 4
tv95 = -148						; size = 4
tv134 = -144						; size = 4
tv93 = -140						; size = 4
tv131 = -136						; size = 4
$T89105 = -132						; size = 28
$T89104 = -104						; size = 28
$T89103 = -73						; size = 1
$T89102 = -72						; size = 28
$T89101 = -44						; size = 28
$T89100 = -13						; size = 1
__$EHRec$ = -12						; size = 12
_pszDirName$ = 8					; size = 4
_pszFileExe$ = 12					; size = 4
?ClearDir@YL_DirInfo@@SA_NPBD0@Z PROC NEAR		; YL_DirInfo::ClearDir

; 225  : {

  01170	55		 push	 ebp
  01171	8b ec		 mov	 ebp, esp
  01173	6a ff		 push	 -1
  01175	68 00 00 00 00	 push	 __ehhandler$?ClearDir@YL_DirInfo@@SA_NPBD0@Z
  0117a	64 a1 00 00 00
	00		 mov	 eax, DWORD PTR fs:__except_list
  01180	50		 push	 eax
  01181	64 89 25 00 00
	00 00		 mov	 DWORD PTR fs:__except_list, esp
  01188	81 ec 90 00 00
	00		 sub	 esp, 144		; 00000090H
  0118e	56		 push	 esi
  0118f	57		 push	 edi
  01190	8d bd 64 ff ff
	ff		 lea	 edi, DWORD PTR [ebp-156]
  01196	b9 24 00 00 00	 mov	 ecx, 36			; 00000024H
  0119b	b8 cc cc cc cc	 mov	 eax, -858993460		; ccccccccH
  011a0	f3 ab		 rep stosd

; 226  : 	if( pszDirName == NULL )

  011a2	83 7d 08 00	 cmp	 DWORD PTR _pszDirName$[ebp], 0
  011a6	75 07		 jne	 SHORT $L83986

; 227  : 	{
; 228  : 		return false;

  011a8	32 c0		 xor	 al, al
  011aa	e9 4d 01 00 00	 jmp	 $L83985
$L83986:

; 229  : 	}
; 230  : 	if( pszFileExe == NULL )

  011af	83 7d 0c 00	 cmp	 DWORD PTR _pszFileExe$[ebp], 0
  011b3	0f 85 97 00 00
	00		 jne	 $L83987

; 231  : 	{
; 232  : 		return ClearDir(string(pszDirName));

  011b9	8b f4		 mov	 esi, esp
  011bb	68 00 00 00 00	 push	 OFFSET FLAT:$SG83991
  011c0	8d 4d d4	 lea	 ecx, DWORD PTR $T89101[ebp]
  011c3	ff 15 00 00 00
	00		 call	 DWORD PTR __imp_??0?$basic_string@DU?$char_traits@D@std@@V?$allocator@D@2@@std@@QAE@PBD@Z
  011c9	3b f4		 cmp	 esi, esp
  011cb	e8 00 00 00 00	 call	 __RTC_CheckEsp
  011d0	c7 45 fc 00 00
	00 00		 mov	 DWORD PTR __$EHRec$[ebp+8], 0
  011d7	8b f4		 mov	 esi, esp
  011d9	8b 45 08	 mov	 eax, DWORD PTR _pszDirName$[ebp]
  011dc	50		 push	 eax
  011dd	8d 4d b8	 lea	 ecx, DWORD PTR $T89102[ebp]
  011e0	ff 15 00 00 00
	00		 call	 DWORD PTR __imp_??0?$basic_string@DU?$char_traits@D@std@@V?$allocator@D@2@@std@@QAE@PBD@Z
  011e6	3b f4		 cmp	 esi, esp
  011e8	e8 00 00 00 00	 call	 __RTC_CheckEsp
  011ed	89 85 78 ff ff
	ff		 mov	 DWORD PTR tv131[ebp], eax
  011f3	8b 8d 78 ff ff
	ff		 mov	 ecx, DWORD PTR tv131[ebp]
  011f9	89 8d 74 ff ff
	ff		 mov	 DWORD PTR tv93[ebp], ecx
  011ff	c6 45 fc 01	 mov	 BYTE PTR __$EHRec$[ebp+8], 1
  01203	8d 55 d4	 lea	 edx, DWORD PTR $T89101[ebp]
  01206	52		 push	 edx
  01207	8b 85 74 ff ff
	ff		 mov	 eax, DWORD PTR tv93[ebp]
  0120d	50		 push	 eax
  0120e	e8 00 00 00 00	 call	 ?ClearDir@YL_DirInfo@@SA_NABV?$basic_string@DU?$char_traits@D@std@@V?$allocator@D@2@@std@@0@Z ; YL_DirInfo::ClearDir
  01213	83 c4 08	 add	 esp, 8
  01216	88 45 f3	 mov	 BYTE PTR $T89100[ebp], al
  01219	c6 45 fc 00	 mov	 BYTE PTR __$EHRec$[ebp+8], 0
  0121d	8b f4		 mov	 esi, esp
  0121f	8d 4d b8	 lea	 ecx, DWORD PTR $T89102[ebp]
  01222	ff 15 00 00 00
	00		 call	 DWORD PTR __imp_??1?$basic_string@DU?$char_traits@D@std@@V?$allocator@D@2@@std@@QAE@XZ
  01228	3b f4		 cmp	 esi, esp
  0122a	e8 00 00 00 00	 call	 __RTC_CheckEsp
  0122f	c7 45 fc ff ff
	ff ff		 mov	 DWORD PTR __$EHRec$[ebp+8], -1
  01236	8b f4		 mov	 esi, esp
  01238	8d 4d d4	 lea	 ecx, DWORD PTR $T89101[ebp]
  0123b	ff 15 00 00 00
	00		 call	 DWORD PTR __imp_??1?$basic_string@DU?$char_traits@D@std@@V?$allocator@D@2@@std@@QAE@XZ
  01241	3b f4		 cmp	 esi, esp
  01243	e8 00 00 00 00	 call	 __RTC_CheckEsp
  01248	8a 45 f3	 mov	 al, BYTE PTR $T89100[ebp]
  0124b	e9 ac 00 00 00	 jmp	 $L83985
$L83987:

; 233  : 	}
; 234  : 	else
; 235  : 	{
; 236  : 		return ClearDir(string(pszDirName),string(pszFileExe));

  01250	8b f4		 mov	 esi, esp
  01252	8b 4d 0c	 mov	 ecx, DWORD PTR _pszFileExe$[ebp]
  01255	51		 push	 ecx
  01256	8d 4d 98	 lea	 ecx, DWORD PTR $T89104[ebp]
  01259	ff 15 00 00 00
	00		 call	 DWORD PTR __imp_??0?$basic_string@DU?$char_traits@D@std@@V?$allocator@D@2@@std@@QAE@PBD@Z
  0125f	3b f4		 cmp	 esi, esp
  01261	e8 00 00 00 00	 call	 __RTC_CheckEsp
  01266	89 85 70 ff ff
	ff		 mov	 DWORD PTR tv134[ebp], eax
  0126c	8b 95 70 ff ff
	ff		 mov	 edx, DWORD PTR tv134[ebp]
  01272	89 95 6c ff ff
	ff		 mov	 DWORD PTR tv95[ebp], edx
  01278	c7 45 fc 02 00
	00 00		 mov	 DWORD PTR __$EHRec$[ebp+8], 2
  0127f	8b f4		 mov	 esi, esp
  01281	8b 45 08	 mov	 eax, DWORD PTR _pszDirName$[ebp]
  01284	50		 push	 eax
  01285	8d 8d 7c ff ff
	ff		 lea	 ecx, DWORD PTR $T89105[ebp]
  0128b	ff 15 00 00 00
	00		 call	 DWORD PTR __imp_??0?$basic_string@DU?$char_traits@D@std@@V?$allocator@D@2@@std@@QAE@PBD@Z
  01291	3b f4		 cmp	 esi, esp
  01293	e8 00 00 00 00	 call	 __RTC_CheckEsp
  01298	89 85 68 ff ff
	ff		 mov	 DWORD PTR tv137[ebp], eax
  0129e	8b 8d 68 ff ff
	ff		 mov	 ecx, DWORD PTR tv137[ebp]
  012a4	89 8d 64 ff ff
	ff		 mov	 DWORD PTR tv129[ebp], ecx
  012aa	c6 45 fc 03	 mov	 BYTE PTR __$EHRec$[ebp+8], 3
  012ae	8b 95 6c ff ff
	ff		 mov	 edx, DWORD PTR tv95[ebp]
  012b4	52		 push	 edx
  012b5	8b 85 64 ff ff
	ff		 mov	 eax, DWORD PTR tv129[ebp]
  012bb	50		 push	 eax
  012bc	e8 00 00 00 00	 call	 ?ClearDir@YL_DirInfo@@SA_NABV?$basic_string@DU?$char_traits@D@std@@V?$allocator@D@2@@std@@0@Z ; YL_DirInfo::ClearDir
  012c1	83 c4 08	 add	 esp, 8
  012c4	88 45 b7	 mov	 BYTE PTR $T89103[ebp], al
  012c7	c6 45 fc 02	 mov	 BYTE PTR __$EHRec$[ebp+8], 2
  012cb	8b f4		 mov	 esi, esp
  012cd	8d 8d 7c ff ff
	ff		 lea	 ecx, DWORD PTR $T89105[ebp]
  012d3	ff 15 00 00 00
	00		 call	 DWORD PTR __imp_??1?$basic_string@DU?$char_traits@D@std@@V?$allocator@D@2@@std@@QAE@XZ
  012d9	3b f4		 cmp	 esi, esp
  012db	e8 00 00 00 00	 call	 __RTC_CheckEsp
  012e0	c7 45 fc ff ff
	ff ff		 mov	 DWORD PTR __$EHRec$[ebp+8], -1
  012e7	8b f4		 mov	 esi, esp
  012e9	8d 4d 98	 lea	 ecx, DWORD PTR $T89104[ebp]
  012ec	ff 15 00 00 00
	00		 call	 DWORD PTR __imp_??1?$basic_string@DU?$char_traits@D@std@@V?$allocator@D@2@@std@@QAE@XZ
  012f2	3b f4		 cmp	 esi, esp
  012f4	e8 00 00 00 00	 call	 __RTC_CheckEsp
  012f9	8a 45 b7	 mov	 al, BYTE PTR $T89103[ebp]
$L83985:

; 237  : 	}
; 238  : }

  012fc	8b 4d f4	 mov	 ecx, DWORD PTR __$EHRec$[ebp]
  012ff	64 89 0d 00 00
	00 00		 mov	 DWORD PTR fs:__except_list, ecx
  01306	5f		 pop	 edi
  01307	5e		 pop	 esi
  01308	81 c4 9c 00 00
	00		 add	 esp, 156		; 0000009cH
  0130e	3b ec		 cmp	 ebp, esp
  01310	e8 00 00 00 00	 call	 __RTC_CheckEsp
  01315	8b e5		 mov	 esp, ebp
  01317	5d		 pop	 ebp
  01318	c3		 ret	 0
_TEXT	ENDS
text$x	SEGMENT
$L89106:
  00147	8b f4		 mov	 esi, esp
  00149	8d 4d d4	 lea	 ecx, DWORD PTR $T89101[ebp]
  0014c	ff 15 00 00 00
	00		 call	 DWORD PTR __imp_??1?$basic_string@DU?$char_traits@D@std@@V?$allocator@D@2@@std@@QAE@XZ
  00152	3b f4		 cmp	 esi, esp
  00154	e9 00 00 00 00	 jmp	 __RTC_CheckEsp
$L89107:
  00159	8b f4		 mov	 esi, esp
  0015b	8d 4d b8	 lea	 ecx, DWORD PTR $T89102[ebp]
  0015e	ff 15 00 00 00
	00		 call	 DWORD PTR __imp_??1?$basic_string@DU?$char_traits@D@std@@V?$allocator@D@2@@std@@QAE@XZ
  00164	3b f4		 cmp	 esi, esp
  00166	e9 00 00 00 00	 jmp	 __RTC_CheckEsp
$L89108:
  0016b	8b f4		 mov	 esi, esp
  0016d	8d 4d 98	 lea	 ecx, DWORD PTR $T89104[ebp]
  00170	ff 15 00 00 00
	00		 call	 DWORD PTR __imp_??1?$basic_string@DU?$char_traits@D@std@@V?$allocator@D@2@@std@@QAE@XZ
  00176	3b f4		 cmp	 esi, esp
  00178	e9 00 00 00 00	 jmp	 __RTC_CheckEsp
$L89109:
  0017d	8b f4		 mov	 esi, esp
  0017f	8d 8d 7c ff ff
	ff		 lea	 ecx, DWORD PTR $T89105[ebp]
  00185	ff 15 00 00 00
	00		 call	 DWORD PTR __imp_??1?$basic_string@DU?$char_traits@D@std@@V?$allocator@D@2@@std@@QAE@XZ
  0018b	3b f4		 cmp	 esi, esp
  0018d	e9 00 00 00 00	 jmp	 __RTC_CheckEsp
__ehhandler$?ClearDir@YL_DirInfo@@SA_NPBD0@Z:
  00192	b8 00 00 00 00	 mov	 eax, OFFSET FLAT:$T89111
  00197	e9 00 00 00 00	 jmp	 ___CxxFrameHandler
text$x	ENDS
?ClearDir@YL_DirInfo@@SA_NPBD0@Z ENDP			; YL_DirInfo::ClearDir
PUBLIC	??$?HDU?$char_traits@D@std@@V?$allocator@D@1@@std@@YA?AV?$basic_string@DU?$char_traits@D@std@@V?$allocator@D@2@@0@ABV10@PBD@Z ; std::operator+<char,std::char_traits<char>,std::allocator<char> >
EXTRN	_strcmp:NEAR
EXTRN	_strlen:NEAR
EXTRN	__imp__strstr:NEAR
EXTRN	__imp__RemoveDirectoryA@4:NEAR
EXTRN	__imp__GetFileAttributesA@4:NEAR
EXTRN	__imp__FindNextFileA@8:NEAR
xdata$x	SEGMENT
$T89136	DD	0ffffffffH
	DD	FLAT:$L89123
	DD	00H
	DD	FLAT:$L89124
	DD	00H
	DD	FLAT:$L89125
	DD	02H
	DD	FLAT:$L89126
	DD	00H
	DD	FLAT:$L89126
$T89128	DD	019930520H
	DD	05H
	DD	FLAT:$T89136
	DD	2 DUP(00H)
	DD	2 DUP(00H)
; Function compile flags: /Odt /RTCsu
xdata$x	ENDS
_TEXT	SEGMENT
tv188 = -508						; size = 4
tv200 = -504						; size = 4
tv185 = -500						; size = 4
tv197 = -496						; size = 4
$T89122 = -492						; size = 1
$T89121 = -491						; size = 1
$T89120 = -490						; size = 1
$T89119 = -489						; size = 1
$T89118 = -488						; size = 28
$T89117 = -457						; size = 1
$T89116 = -456						; size = 28
_pTmp$84028 = -428					; size = 4
_dwFlags$84022 = -424					; size = 4
_strFileName$84018 = -416				; size = 28
_dir$ = -380						; size = 28
_hFind$ = -348						; size = 4
_FindFileData$ = -340					; size = 320
__$ArrayPad$ = -16					; size = 4
__$EHRec$ = -12						; size = 12
__$ReturnAddr$ = 4					; size = 4
_strDirName$ = 8					; size = 4
_strExe$ = 12						; size = 4
?ClearDir@YL_DirInfo@@SA_NABV?$basic_string@DU?$char_traits@D@std@@V?$allocator@D@2@@std@@0@Z PROC NEAR ; YL_DirInfo::ClearDir

; 241  : {

  01320	55		 push	 ebp
  01321	8b ec		 mov	 ebp, esp
  01323	6a ff		 push	 -1
  01325	68 00 00 00 00	 push	 __ehhandler$?ClearDir@YL_DirInfo@@SA_NABV?$basic_string@DU?$char_traits@D@std@@V?$allocator@D@2@@std@@0@Z
  0132a	64 a1 00 00 00
	00		 mov	 eax, DWORD PTR fs:__except_list
  01330	50		 push	 eax
  01331	64 89 25 00 00
	00 00		 mov	 DWORD PTR fs:__except_list, esp
  01338	81 ec f0 01 00
	00		 sub	 esp, 496		; 000001f0H
  0133e	56		 push	 esi
  0133f	57		 push	 edi
  01340	8d bd 04 fe ff
	ff		 lea	 edi, DWORD PTR [ebp-508]
  01346	b9 7c 00 00 00	 mov	 ecx, 124		; 0000007cH
  0134b	b8 cc cc cc cc	 mov	 eax, -858993460		; ccccccccH
  01350	f3 ab		 rep stosd
  01352	a1 00 00 00 00	 mov	 eax, DWORD PTR ___security_cookie
  01357	89 45 f0	 mov	 DWORD PTR __$ArrayPad$[ebp], eax

; 242  : 	WIN32_FIND_DATA FindFileData;
; 243  : 	HANDLE hFind = INVALID_HANDLE_VALUE;

  0135a	c7 85 a4 fe ff
	ff ff ff ff ff	 mov	 DWORD PTR _hFind$[ebp], -1

; 244  : 	string dir;

  01364	8b f4		 mov	 esi, esp
  01366	8d 8d 84 fe ff
	ff		 lea	 ecx, DWORD PTR _dir$[ebp]
  0136c	ff 15 00 00 00
	00		 call	 DWORD PTR __imp_??0?$basic_string@DU?$char_traits@D@std@@V?$allocator@D@2@@std@@QAE@XZ
  01372	3b f4		 cmp	 esi, esp
  01374	e8 00 00 00 00	 call	 __RTC_CheckEsp
  01379	c7 45 fc 00 00
	00 00		 mov	 DWORD PTR __$EHRec$[ebp+8], 0

; 245  : 	
; 246  : 	dir = strDirName + "\\*";	

  01380	68 00 00 00 00	 push	 OFFSET FLAT:$SG84006
  01385	8b 45 08	 mov	 eax, DWORD PTR _strDirName$[ebp]
  01388	50		 push	 eax
  01389	8d 8d 38 fe ff
	ff		 lea	 ecx, DWORD PTR $T89116[ebp]
  0138f	51		 push	 ecx
  01390	e8 00 00 00 00	 call	 ??$?HDU?$char_traits@D@std@@V?$allocator@D@1@@std@@YA?AV?$basic_string@DU?$char_traits@D@std@@V?$allocator@D@2@@0@ABV10@PBD@Z ; std::operator+<char,std::char_traits<char>,std::allocator<char> >
  01395	83 c4 0c	 add	 esp, 12			; 0000000cH
  01398	89 85 10 fe ff
	ff		 mov	 DWORD PTR tv197[ebp], eax
  0139e	8b 95 10 fe ff
	ff		 mov	 edx, DWORD PTR tv197[ebp]
  013a4	89 95 0c fe ff
	ff		 mov	 DWORD PTR tv185[ebp], edx
  013aa	c6 45 fc 01	 mov	 BYTE PTR __$EHRec$[ebp+8], 1
  013ae	8b f4		 mov	 esi, esp
  013b0	8b 85 0c fe ff
	ff		 mov	 eax, DWORD PTR tv185[ebp]
  013b6	50		 push	 eax
  013b7	8d 8d 84 fe ff
	ff		 lea	 ecx, DWORD PTR _dir$[ebp]
  013bd	ff 15 00 00 00
	00		 call	 DWORD PTR __imp_??4?$basic_string@DU?$char_traits@D@std@@V?$allocator@D@2@@std@@QAEAAV01@ABV01@@Z
  013c3	3b f4		 cmp	 esi, esp
  013c5	e8 00 00 00 00	 call	 __RTC_CheckEsp
  013ca	c6 45 fc 00	 mov	 BYTE PTR __$EHRec$[ebp+8], 0
  013ce	8b f4		 mov	 esi, esp
  013d0	8d 8d 38 fe ff
	ff		 lea	 ecx, DWORD PTR $T89116[ebp]
  013d6	ff 15 00 00 00
	00		 call	 DWORD PTR __imp_??1?$basic_string@DU?$char_traits@D@std@@V?$allocator@D@2@@std@@QAE@XZ
  013dc	3b f4		 cmp	 esi, esp
  013de	e8 00 00 00 00	 call	 __RTC_CheckEsp

; 247  : 
; 248  : 	hFind = FindFirstFile(dir.c_str(), &FindFileData);

  013e3	8b f4		 mov	 esi, esp
  013e5	8d 8d ac fe ff
	ff		 lea	 ecx, DWORD PTR _FindFileData$[ebp]
  013eb	51		 push	 ecx
  013ec	8b fc		 mov	 edi, esp
  013ee	8d 8d 84 fe ff
	ff		 lea	 ecx, DWORD PTR _dir$[ebp]
  013f4	ff 15 00 00 00
	00		 call	 DWORD PTR __imp_?c_str@?$basic_string@DU?$char_traits@D@std@@V?$allocator@D@2@@std@@QBEPBDXZ
  013fa	3b fc		 cmp	 edi, esp
  013fc	e8 00 00 00 00	 call	 __RTC_CheckEsp
  01401	50		 push	 eax
  01402	ff 15 00 00 00
	00		 call	 DWORD PTR __imp__FindFirstFileA@8
  01408	3b f4		 cmp	 esi, esp
  0140a	e8 00 00 00 00	 call	 __RTC_CheckEsp
  0140f	89 85 a4 fe ff
	ff		 mov	 DWORD PTR _hFind$[ebp], eax

; 249  : 
; 250  : 	if(hFind == INVALID_HANDLE_VALUE)

  01415	83 bd a4 fe ff
	ff ff		 cmp	 DWORD PTR _hFind$[ebp], -1
  0141c	75 2e		 jne	 SHORT $L84011

; 251  : 	{
; 252  : 		return false;

  0141e	c6 85 37 fe ff
	ff 00		 mov	 BYTE PTR $T89117[ebp], 0
  01425	c7 45 fc ff ff
	ff ff		 mov	 DWORD PTR __$EHRec$[ebp+8], -1
  0142c	8b f4		 mov	 esi, esp
  0142e	8d 8d 84 fe ff
	ff		 lea	 ecx, DWORD PTR _dir$[ebp]
  01434	ff 15 00 00 00
	00		 call	 DWORD PTR __imp_??1?$basic_string@DU?$char_traits@D@std@@V?$allocator@D@2@@std@@QAE@XZ
  0143a	3b f4		 cmp	 esi, esp
  0143c	e8 00 00 00 00	 call	 __RTC_CheckEsp
  01441	8a 85 37 fe ff
	ff		 mov	 al, BYTE PTR $T89117[ebp]
  01447	e9 91 03 00 00	 jmp	 $L83999
$L84011:

; 253  : 	}
; 254  : 
; 255  : 	do{
; 256  : 		if(strcmp(FindFileData.cFileName, ".") != 0 &&	strcmp(FindFileData.cFileName, "..") != 0 )

  0144c	68 00 00 00 00	 push	 OFFSET FLAT:$SG84015
  01451	8d 95 d8 fe ff
	ff		 lea	 edx, DWORD PTR _FindFileData$[ebp+44]
  01457	52		 push	 edx
  01458	e8 00 00 00 00	 call	 _strcmp
  0145d	83 c4 08	 add	 esp, 8
  01460	85 c0		 test	 eax, eax
  01462	0f 84 c0 02 00
	00		 je	 $L84012
  01468	68 00 00 00 00	 push	 OFFSET FLAT:$SG84016
  0146d	8d 85 d8 fe ff
	ff		 lea	 eax, DWORD PTR _FindFileData$[ebp+44]
  01473	50		 push	 eax
  01474	e8 00 00 00 00	 call	 _strcmp
  01479	83 c4 08	 add	 esp, 8
  0147c	85 c0		 test	 eax, eax
  0147e	0f 84 a4 02 00
	00		 je	 $L84012

; 257  : 		{
; 258  : 			if(FindFileData.dwFileAttributes & FILE_ATTRIBUTE_DIRECTORY)

  01484	8b 8d ac fe ff
	ff		 mov	 ecx, DWORD PTR _FindFileData$[ebp]
  0148a	83 e1 10	 and	 ecx, 16			; 00000010H
  0148d	74 05		 je	 SHORT $L84017

; 259  : 			{
; 260  : 				continue;

  0148f	e9 94 02 00 00	 jmp	 $L84012
$L84017:

; 261  : 			}
; 262  : 
; 263  : 			string strFileName = strDirName + "\\" + FindFileData.cFileName;

  01494	68 00 00 00 00	 push	 OFFSET FLAT:$SG84021
  01499	8b 55 08	 mov	 edx, DWORD PTR _strDirName$[ebp]
  0149c	52		 push	 edx
  0149d	8d 85 18 fe ff
	ff		 lea	 eax, DWORD PTR $T89118[ebp]
  014a3	50		 push	 eax
  014a4	e8 00 00 00 00	 call	 ??$?HDU?$char_traits@D@std@@V?$allocator@D@1@@std@@YA?AV?$basic_string@DU?$char_traits@D@std@@V?$allocator@D@2@@0@ABV10@PBD@Z ; std::operator+<char,std::char_traits<char>,std::allocator<char> >
  014a9	83 c4 0c	 add	 esp, 12			; 0000000cH
  014ac	89 85 08 fe ff
	ff		 mov	 DWORD PTR tv200[ebp], eax
  014b2	8b 8d 08 fe ff
	ff		 mov	 ecx, DWORD PTR tv200[ebp]
  014b8	89 8d 04 fe ff
	ff		 mov	 DWORD PTR tv188[ebp], ecx
  014be	c6 45 fc 02	 mov	 BYTE PTR __$EHRec$[ebp+8], 2
  014c2	8d 95 d8 fe ff
	ff		 lea	 edx, DWORD PTR _FindFileData$[ebp+44]
  014c8	52		 push	 edx
  014c9	8b 85 04 fe ff
	ff		 mov	 eax, DWORD PTR tv188[ebp]
  014cf	50		 push	 eax
  014d0	8d 8d 60 fe ff
	ff		 lea	 ecx, DWORD PTR _strFileName$84018[ebp]
  014d6	51		 push	 ecx
  014d7	e8 00 00 00 00	 call	 ??$?HDU?$char_traits@D@std@@V?$allocator@D@1@@std@@YA?AV?$basic_string@DU?$char_traits@D@std@@V?$allocator@D@2@@0@ABV10@PBD@Z ; std::operator+<char,std::char_traits<char>,std::allocator<char> >
  014dc	83 c4 0c	 add	 esp, 12			; 0000000cH
  014df	c6 45 fc 04	 mov	 BYTE PTR __$EHRec$[ebp+8], 4
  014e3	8b f4		 mov	 esi, esp
  014e5	8d 8d 18 fe ff
	ff		 lea	 ecx, DWORD PTR $T89118[ebp]
  014eb	ff 15 00 00 00
	00		 call	 DWORD PTR __imp_??1?$basic_string@DU?$char_traits@D@std@@V?$allocator@D@2@@std@@QAE@XZ
  014f1	3b f4		 cmp	 esi, esp
  014f3	e8 00 00 00 00	 call	 __RTC_CheckEsp

; 264  : 
; 265  : 			DWORD dwFlags = GetFileAttributes (strFileName.c_str ());

  014f8	8b f4		 mov	 esi, esp
  014fa	8d 8d 60 fe ff
	ff		 lea	 ecx, DWORD PTR _strFileName$84018[ebp]
  01500	ff 15 00 00 00
	00		 call	 DWORD PTR __imp_?c_str@?$basic_string@DU?$char_traits@D@std@@V?$allocator@D@2@@std@@QBEPBDXZ
  01506	3b f4		 cmp	 esi, esp
  01508	e8 00 00 00 00	 call	 __RTC_CheckEsp
  0150d	8b f4		 mov	 esi, esp
  0150f	50		 push	 eax
  01510	ff 15 00 00 00
	00		 call	 DWORD PTR __imp__GetFileAttributesA@4
  01516	3b f4		 cmp	 esi, esp
  01518	e8 00 00 00 00	 call	 __RTC_CheckEsp
  0151d	89 85 58 fe ff
	ff		 mov	 DWORD PTR _dwFlags$84022[ebp], eax

; 266  : 			dwFlags &= ~FILE_ATTRIBUTE_READONLY;

  01523	8b 95 58 fe ff
	ff		 mov	 edx, DWORD PTR _dwFlags$84022[ebp]
  01529	83 e2 fe	 and	 edx, -2			; fffffffeH
  0152c	89 95 58 fe ff
	ff		 mov	 DWORD PTR _dwFlags$84022[ebp], edx

; 267  : 			SetFileAttributes (strFileName.c_str (), dwFlags);

  01532	8b f4		 mov	 esi, esp
  01534	8b 85 58 fe ff
	ff		 mov	 eax, DWORD PTR _dwFlags$84022[ebp]
  0153a	50		 push	 eax
  0153b	8b fc		 mov	 edi, esp
  0153d	8d 8d 60 fe ff
	ff		 lea	 ecx, DWORD PTR _strFileName$84018[ebp]
  01543	ff 15 00 00 00
	00		 call	 DWORD PTR __imp_?c_str@?$basic_string@DU?$char_traits@D@std@@V?$allocator@D@2@@std@@QBEPBDXZ
  01549	3b fc		 cmp	 edi, esp
  0154b	e8 00 00 00 00	 call	 __RTC_CheckEsp
  01550	50		 push	 eax
  01551	ff 15 00 00 00
	00		 call	 DWORD PTR __imp__SetFileAttributesA@8
  01557	3b f4		 cmp	 esi, esp
  01559	e8 00 00 00 00	 call	 __RTC_CheckEsp

; 268  : 
; 269  : 			if( strExe == "")

  0155e	8b f4		 mov	 esi, esp
  01560	68 00 00 00 00	 push	 OFFSET FLAT:$SG84024
  01565	8b 4d 0c	 mov	 ecx, DWORD PTR _strExe$[ebp]
  01568	51		 push	 ecx
  01569	ff 15 00 00 00
	00		 call	 DWORD PTR __imp_??$?8DU?$char_traits@D@std@@V?$allocator@D@1@@std@@YA_NABV?$basic_string@DU?$char_traits@D@std@@V?$allocator@D@2@@0@PBD@Z
  0156f	83 c4 08	 add	 esp, 8
  01572	3b f4		 cmp	 esi, esp
  01574	e8 00 00 00 00	 call	 __RTC_CheckEsp
  01579	0f b6 d0	 movzx	 edx, al
  0157c	85 d2		 test	 edx, edx
  0157e	0f 84 8b 00 00
	00		 je	 $L84023

; 270  : 			{
; 271  : 				if( ::DeleteFile(strFileName.c_str()) == 0 )

  01584	8b f4		 mov	 esi, esp
  01586	8d 8d 60 fe ff
	ff		 lea	 ecx, DWORD PTR _strFileName$84018[ebp]
  0158c	ff 15 00 00 00
	00		 call	 DWORD PTR __imp_?c_str@?$basic_string@DU?$char_traits@D@std@@V?$allocator@D@2@@std@@QBEPBDXZ
  01592	3b f4		 cmp	 esi, esp
  01594	e8 00 00 00 00	 call	 __RTC_CheckEsp
  01599	8b f4		 mov	 esi, esp
  0159b	50		 push	 eax
  0159c	ff 15 00 00 00
	00		 call	 DWORD PTR __imp__DeleteFileA@4
  015a2	3b f4		 cmp	 esi, esp
  015a4	e8 00 00 00 00	 call	 __RTC_CheckEsp
  015a9	85 c0		 test	 eax, eax
  015ab	75 5d		 jne	 SHORT $L84025

; 272  : 				{
; 273  : 					FindClose( hFind );

  015ad	8b f4		 mov	 esi, esp
  015af	8b 85 a4 fe ff
	ff		 mov	 eax, DWORD PTR _hFind$[ebp]
  015b5	50		 push	 eax
  015b6	ff 15 00 00 00
	00		 call	 DWORD PTR __imp__FindClose@4
  015bc	3b f4		 cmp	 esi, esp
  015be	e8 00 00 00 00	 call	 __RTC_CheckEsp

; 274  : 					return false;

  015c3	c6 85 17 fe ff
	ff 00		 mov	 BYTE PTR $T89119[ebp], 0
  015ca	c6 45 fc 00	 mov	 BYTE PTR __$EHRec$[ebp+8], 0
  015ce	8b f4		 mov	 esi, esp
  015d0	8d 8d 60 fe ff
	ff		 lea	 ecx, DWORD PTR _strFileName$84018[ebp]
  015d6	ff 15 00 00 00
	00		 call	 DWORD PTR __imp_??1?$basic_string@DU?$char_traits@D@std@@V?$allocator@D@2@@std@@QAE@XZ
  015dc	3b f4		 cmp	 esi, esp
  015de	e8 00 00 00 00	 call	 __RTC_CheckEsp
  015e3	c7 45 fc ff ff
	ff ff		 mov	 DWORD PTR __$EHRec$[ebp+8], -1
  015ea	8b f4		 mov	 esi, esp
  015ec	8d 8d 84 fe ff
	ff		 lea	 ecx, DWORD PTR _dir$[ebp]
  015f2	ff 15 00 00 00
	00		 call	 DWORD PTR __imp_??1?$basic_string@DU?$char_traits@D@std@@V?$allocator@D@2@@std@@QAE@XZ
  015f8	3b f4		 cmp	 esi, esp
  015fa	e8 00 00 00 00	 call	 __RTC_CheckEsp
  015ff	8a 85 17 fe ff
	ff		 mov	 al, BYTE PTR $T89119[ebp]
  01605	e9 d3 01 00 00	 jmp	 $L83999
$L84025:

; 275  : 				}
; 276  : 			}
; 277  : 			else 

  0160a	e9 00 01 00 00	 jmp	 $L84027
$L84023:

; 278  : 			{
; 279  : 				char* pTmp = strstr(FindFileData.cFileName,strExe.c_str());

  0160f	8b f4		 mov	 esi, esp
  01611	8b 4d 0c	 mov	 ecx, DWORD PTR _strExe$[ebp]
  01614	ff 15 00 00 00
	00		 call	 DWORD PTR __imp_?c_str@?$basic_string@DU?$char_traits@D@std@@V?$allocator@D@2@@std@@QBEPBDXZ
  0161a	3b f4		 cmp	 esi, esp
  0161c	e8 00 00 00 00	 call	 __RTC_CheckEsp
  01621	8b f4		 mov	 esi, esp
  01623	50		 push	 eax
  01624	8d 8d d8 fe ff
	ff		 lea	 ecx, DWORD PTR _FindFileData$[ebp+44]
  0162a	51		 push	 ecx
  0162b	ff 15 00 00 00
	00		 call	 DWORD PTR __imp__strstr
  01631	83 c4 08	 add	 esp, 8
  01634	3b f4		 cmp	 esi, esp
  01636	e8 00 00 00 00	 call	 __RTC_CheckEsp
  0163b	89 85 54 fe ff
	ff		 mov	 DWORD PTR _pTmp$84028[ebp], eax

; 280  : 				if( pTmp != NULL && 
; 281  : 					( strlen( FindFileData.cFileName) - (pTmp - FindFileData.cFileName) ) == strExe.length() )

  01641	83 bd 54 fe ff
	ff 00		 cmp	 DWORD PTR _pTmp$84028[ebp], 0
  01648	0f 84 c1 00 00
	00		 je	 $L84027
  0164e	8d 95 d8 fe ff
	ff		 lea	 edx, DWORD PTR _FindFileData$[ebp+44]
  01654	52		 push	 edx
  01655	e8 00 00 00 00	 call	 _strlen
  0165a	83 c4 04	 add	 esp, 4
  0165d	8b f0		 mov	 esi, eax
  0165f	8b 85 54 fe ff
	ff		 mov	 eax, DWORD PTR _pTmp$84028[ebp]
  01665	8d 8d d8 fe ff
	ff		 lea	 ecx, DWORD PTR _FindFileData$[ebp+44]
  0166b	2b c1		 sub	 eax, ecx
  0166d	2b f0		 sub	 esi, eax
  0166f	8b fc		 mov	 edi, esp
  01671	8b 4d 0c	 mov	 ecx, DWORD PTR _strExe$[ebp]
  01674	ff 15 00 00 00
	00		 call	 DWORD PTR __imp_?length@?$basic_string@DU?$char_traits@D@std@@V?$allocator@D@2@@std@@QBEIXZ
  0167a	3b fc		 cmp	 edi, esp
  0167c	e8 00 00 00 00	 call	 __RTC_CheckEsp
  01681	3b f0		 cmp	 esi, eax
  01683	0f 85 86 00 00
	00		 jne	 $L84027

; 282  : 				{
; 283  : 					if( ::DeleteFile(strFileName.c_str()) == 0 )

  01689	8b f4		 mov	 esi, esp
  0168b	8d 8d 60 fe ff
	ff		 lea	 ecx, DWORD PTR _strFileName$84018[ebp]
  01691	ff 15 00 00 00
	00		 call	 DWORD PTR __imp_?c_str@?$basic_string@DU?$char_traits@D@std@@V?$allocator@D@2@@std@@QBEPBDXZ
  01697	3b f4		 cmp	 esi, esp
  01699	e8 00 00 00 00	 call	 __RTC_CheckEsp
  0169e	8b f4		 mov	 esi, esp
  016a0	50		 push	 eax
  016a1	ff 15 00 00 00
	00		 call	 DWORD PTR __imp__DeleteFileA@4
  016a7	3b f4		 cmp	 esi, esp
  016a9	e8 00 00 00 00	 call	 __RTC_CheckEsp
  016ae	85 c0		 test	 eax, eax
  016b0	75 5d		 jne	 SHORT $L84027

; 284  : 					{
; 285  : 						FindClose( hFind );

  016b2	8b f4		 mov	 esi, esp
  016b4	8b 95 a4 fe ff
	ff		 mov	 edx, DWORD PTR _hFind$[ebp]
  016ba	52		 push	 edx
  016bb	ff 15 00 00 00
	00		 call	 DWORD PTR __imp__FindClose@4
  016c1	3b f4		 cmp	 esi, esp
  016c3	e8 00 00 00 00	 call	 __RTC_CheckEsp

; 286  : 						return false;

  016c8	c6 85 16 fe ff
	ff 00		 mov	 BYTE PTR $T89120[ebp], 0
  016cf	c6 45 fc 00	 mov	 BYTE PTR __$EHRec$[ebp+8], 0
  016d3	8b f4		 mov	 esi, esp
  016d5	8d 8d 60 fe ff
	ff		 lea	 ecx, DWORD PTR _strFileName$84018[ebp]
  016db	ff 15 00 00 00
	00		 call	 DWORD PTR __imp_??1?$basic_string@DU?$char_traits@D@std@@V?$allocator@D@2@@std@@QAE@XZ
  016e1	3b f4		 cmp	 esi, esp
  016e3	e8 00 00 00 00	 call	 __RTC_CheckEsp
  016e8	c7 45 fc ff ff
	ff ff		 mov	 DWORD PTR __$EHRec$[ebp+8], -1
  016ef	8b f4		 mov	 esi, esp
  016f1	8d 8d 84 fe ff
	ff		 lea	 ecx, DWORD PTR _dir$[ebp]
  016f7	ff 15 00 00 00
	00		 call	 DWORD PTR __imp_??1?$basic_string@DU?$char_traits@D@std@@V?$allocator@D@2@@std@@QAE@XZ
  016fd	3b f4		 cmp	 esi, esp
  016ff	e8 00 00 00 00	 call	 __RTC_CheckEsp
  01704	8a 85 16 fe ff
	ff		 mov	 al, BYTE PTR $T89120[ebp]
  0170a	e9 ce 00 00 00	 jmp	 $L83999
$L84027:

; 287  : 					}
; 288  : 				}
; 289  : 			}
; 290  : 			
; 291  : 		}

  0170f	c6 45 fc 00	 mov	 BYTE PTR __$EHRec$[ebp+8], 0
  01713	8b f4		 mov	 esi, esp
  01715	8d 8d 60 fe ff
	ff		 lea	 ecx, DWORD PTR _strFileName$84018[ebp]
  0171b	ff 15 00 00 00
	00		 call	 DWORD PTR __imp_??1?$basic_string@DU?$char_traits@D@std@@V?$allocator@D@2@@std@@QAE@XZ
  01721	3b f4		 cmp	 esi, esp
  01723	e8 00 00 00 00	 call	 __RTC_CheckEsp
$L84012:

; 292  : 	}while(FindNextFile(hFind, &FindFileData));

  01728	8b f4		 mov	 esi, esp
  0172a	8d 85 ac fe ff
	ff		 lea	 eax, DWORD PTR _FindFileData$[ebp]
  01730	50		 push	 eax
  01731	8b 8d a4 fe ff
	ff		 mov	 ecx, DWORD PTR _hFind$[ebp]
  01737	51		 push	 ecx
  01738	ff 15 00 00 00
	00		 call	 DWORD PTR __imp__FindNextFileA@8
  0173e	3b f4		 cmp	 esi, esp
  01740	e8 00 00 00 00	 call	 __RTC_CheckEsp
  01745	85 c0		 test	 eax, eax
  01747	0f 85 ff fc ff
	ff		 jne	 $L84011

; 293  : 	
; 294  : 	FindClose( hFind );	

  0174d	8b f4		 mov	 esi, esp
  0174f	8b 95 a4 fe ff
	ff		 mov	 edx, DWORD PTR _hFind$[ebp]
  01755	52		 push	 edx
  01756	ff 15 00 00 00
	00		 call	 DWORD PTR __imp__FindClose@4
  0175c	3b f4		 cmp	 esi, esp
  0175e	e8 00 00 00 00	 call	 __RTC_CheckEsp

; 295  : 
; 296  : 	if(::RemoveDirectory(strDirName.c_str()) == FALSE)

  01763	8b f4		 mov	 esi, esp
  01765	8b 4d 08	 mov	 ecx, DWORD PTR _strDirName$[ebp]
  01768	ff 15 00 00 00
	00		 call	 DWORD PTR __imp_?c_str@?$basic_string@DU?$char_traits@D@std@@V?$allocator@D@2@@std@@QBEPBDXZ
  0176e	3b f4		 cmp	 esi, esp
  01770	e8 00 00 00 00	 call	 __RTC_CheckEsp
  01775	8b f4		 mov	 esi, esp
  01777	50		 push	 eax
  01778	ff 15 00 00 00
	00		 call	 DWORD PTR __imp__RemoveDirectoryA@4
  0177e	3b f4		 cmp	 esi, esp
  01780	e8 00 00 00 00	 call	 __RTC_CheckEsp
  01785	85 c0		 test	 eax, eax
  01787	75 2b		 jne	 SHORT $L84032

; 297  : 	{
; 298  : 		return false;

  01789	c6 85 15 fe ff
	ff 00		 mov	 BYTE PTR $T89121[ebp], 0
  01790	c7 45 fc ff ff
	ff ff		 mov	 DWORD PTR __$EHRec$[ebp+8], -1
  01797	8b f4		 mov	 esi, esp
  01799	8d 8d 84 fe ff
	ff		 lea	 ecx, DWORD PTR _dir$[ebp]
  0179f	ff 15 00 00 00
	00		 call	 DWORD PTR __imp_??1?$basic_string@DU?$char_traits@D@std@@V?$allocator@D@2@@std@@QAE@XZ
  017a5	3b f4		 cmp	 esi, esp
  017a7	e8 00 00 00 00	 call	 __RTC_CheckEsp
  017ac	8a 85 15 fe ff
	ff		 mov	 al, BYTE PTR $T89121[ebp]
  017b2	eb 29		 jmp	 SHORT $L83999
$L84032:

; 299  : 	}
; 300  : 	return true;

  017b4	c6 85 14 fe ff
	ff 01		 mov	 BYTE PTR $T89122[ebp], 1
  017bb	c7 45 fc ff ff
	ff ff		 mov	 DWORD PTR __$EHRec$[ebp+8], -1
  017c2	8b f4		 mov	 esi, esp
  017c4	8d 8d 84 fe ff
	ff		 lea	 ecx, DWORD PTR _dir$[ebp]
  017ca	ff 15 00 00 00
	00		 call	 DWORD PTR __imp_??1?$basic_string@DU?$char_traits@D@std@@V?$allocator@D@2@@std@@QAE@XZ
  017d0	3b f4		 cmp	 esi, esp
  017d2	e8 00 00 00 00	 call	 __RTC_CheckEsp
  017d7	8a 85 14 fe ff
	ff		 mov	 al, BYTE PTR $T89122[ebp]
$L83999:

; 301  : }

  017dd	52		 push	 edx
  017de	8b cd		 mov	 ecx, ebp
  017e0	50		 push	 eax
  017e1	8d 15 00 00 00
	00		 lea	 edx, DWORD PTR $L89135
  017e7	e8 00 00 00 00	 call	 @_RTC_CheckStackVars@8
  017ec	58		 pop	 eax
  017ed	5a		 pop	 edx
  017ee	8b 4d f4	 mov	 ecx, DWORD PTR __$EHRec$[ebp]
  017f1	64 89 0d 00 00
	00 00		 mov	 DWORD PTR fs:__except_list, ecx
  017f8	8b 4d f0	 mov	 ecx, DWORD PTR __$ArrayPad$[ebp]
  017fb	e8 00 00 00 00	 call	 @__security_check_cookie@4
  01800	5f		 pop	 edi
  01801	5e		 pop	 esi
  01802	81 c4 fc 01 00
	00		 add	 esp, 508		; 000001fcH
  01808	3b ec		 cmp	 ebp, esp
  0180a	e8 00 00 00 00	 call	 __RTC_CheckEsp
  0180f	8b e5		 mov	 esp, ebp
  01811	5d		 pop	 ebp
  01812	c3		 ret	 0
$L89135:
  01813	03 00 00 00	 DD	 3
  01817	00 00 00 00	 DD	 $L89134
$L89134:
  0181b	ac fe ff ff	 DD	 -340			; fffffeacH
  0181f	40 01 00 00	 DD	 320			; 00000140H
  01823	00 00 00 00	 DD	 $L89129
  01827	84 fe ff ff	 DD	 -380			; fffffe84H
  0182b	1c 00 00 00	 DD	 28			; 0000001cH
  0182f	00 00 00 00	 DD	 $L89130
  01833	60 fe ff ff	 DD	 -416			; fffffe60H
  01837	1c 00 00 00	 DD	 28			; 0000001cH
  0183b	00 00 00 00	 DD	 $L89131
$L89131:
  0183f	73		 DB	 115			; 00000073H
  01840	74		 DB	 116			; 00000074H
  01841	72		 DB	 114			; 00000072H
  01842	46		 DB	 70			; 00000046H
  01843	69		 DB	 105			; 00000069H
  01844	6c		 DB	 108			; 0000006cH
  01845	65		 DB	 101			; 00000065H
  01846	4e		 DB	 78			; 0000004eH
  01847	61		 DB	 97			; 00000061H
  01848	6d		 DB	 109			; 0000006dH
  01849	65		 DB	 101			; 00000065H
  0184a	00		 DB	 0
$L89130:
  0184b	64		 DB	 100			; 00000064H
  0184c	69		 DB	 105			; 00000069H
  0184d	72		 DB	 114			; 00000072H
  0184e	00		 DB	 0
$L89129:
  0184f	46		 DB	 70			; 00000046H
  01850	69		 DB	 105			; 00000069H
  01851	6e		 DB	 110			; 0000006eH
  01852	64		 DB	 100			; 00000064H
  01853	46		 DB	 70			; 00000046H
  01854	69		 DB	 105			; 00000069H
  01855	6c		 DB	 108			; 0000006cH
  01856	65		 DB	 101			; 00000065H
  01857	44		 DB	 68			; 00000044H
  01858	61		 DB	 97			; 00000061H
  01859	74		 DB	 116			; 00000074H
  0185a	61		 DB	 97			; 00000061H
  0185b	00		 DB	 0
_TEXT	ENDS
text$x	SEGMENT
$L89123:
  0019c	8b f4		 mov	 esi, esp
  0019e	8d 8d 84 fe ff
	ff		 lea	 ecx, DWORD PTR _dir$[ebp]
  001a4	ff 15 00 00 00
	00		 call	 DWORD PTR __imp_??1?$basic_string@DU?$char_traits@D@std@@V?$allocator@D@2@@std@@QAE@XZ
  001aa	3b f4		 cmp	 esi, esp
  001ac	e9 00 00 00 00	 jmp	 __RTC_CheckEsp
$L89124:
  001b1	8b f4		 mov	 esi, esp
  001b3	8d 8d 38 fe ff
	ff		 lea	 ecx, DWORD PTR $T89116[ebp]
  001b9	ff 15 00 00 00
	00		 call	 DWORD PTR __imp_??1?$basic_string@DU?$char_traits@D@std@@V?$allocator@D@2@@std@@QAE@XZ
  001bf	3b f4		 cmp	 esi, esp
  001c1	e9 00 00 00 00	 jmp	 __RTC_CheckEsp
$L89125:
  001c6	8b f4		 mov	 esi, esp
  001c8	8d 8d 18 fe ff
	ff		 lea	 ecx, DWORD PTR $T89118[ebp]
  001ce	ff 15 00 00 00
	00		 call	 DWORD PTR __imp_??1?$basic_string@DU?$char_traits@D@std@@V?$allocator@D@2@@std@@QAE@XZ
  001d4	3b f4		 cmp	 esi, esp
  001d6	e9 00 00 00 00	 jmp	 __RTC_CheckEsp
$L89126:
  001db	8b f4		 mov	 esi, esp
  001dd	8d 8d 60 fe ff
	ff		 lea	 ecx, DWORD PTR _strFileName$84018[ebp]
  001e3	ff 15 00 00 00
	00		 call	 DWORD PTR __imp_??1?$basic_string@DU?$char_traits@D@std@@V?$allocator@D@2@@std@@QAE@XZ
  001e9	3b f4		 cmp	 esi, esp
  001eb	e9 00 00 00 00	 jmp	 __RTC_CheckEsp
__ehhandler$?ClearDir@YL_DirInfo@@SA_NABV?$basic_string@DU?$char_traits@D@std@@V?$allocator@D@2@@std@@0@Z:
  001f0	b8 00 00 00 00	 mov	 eax, OFFSET FLAT:$T89128
  001f5	e9 00 00 00 00	 jmp	 ___CxxFrameHandler
text$x	ENDS
?ClearDir@YL_DirInfo@@SA_NABV?$basic_string@DU?$char_traits@D@std@@V?$allocator@D@2@@std@@0@Z ENDP ; YL_DirInfo::ClearDir
PUBLIC	??A?$vector@V?$basic_string@DU?$char_traits@D@std@@V?$allocator@D@2@@std@@V?$allocator@V?$basic_string@DU?$char_traits@D@std@@V?$allocator@D@2@@std@@@2@@std@@QBEABV?$basic_string@DU?$char_traits@D@std@@V?$allocator@D@2@@1@I@Z ; std::vector<std::basic_string<char,std::char_traits<char>,std::allocator<char> >,std::allocator<std::basic_string<char,std::char_traits<char>,std::allocator<char> > > >::operator[]
EXTRN	?Str2Lower@YL_StringUtil@@SAXAAV?$basic_string@DU?$char_traits@D@std@@V?$allocator@D@2@@std@@@Z:NEAR ; YL_StringUtil::Str2Lower
EXTRN	__imp_??0?$basic_string@DU?$char_traits@D@std@@V?$allocator@D@2@@std@@QAE@ABV01@@Z:NEAR
xdata$x	SEGMENT
$T89175	DD	0ffffffffH
	DD	FLAT:$L89152
	DD	00H
	DD	FLAT:$L89153
	DD	00H
	DD	FLAT:$L89154
	DD	00H
	DD	FLAT:$L89155
	DD	03H
	DD	FLAT:$L89156
	DD	00H
	DD	FLAT:$L89157
	DD	05H
	DD	FLAT:$L89158
	DD	06H
	DD	FLAT:$L89159
	DD	07H
	DD	FLAT:$L89160
	DD	00H
	DD	FLAT:$L89161
	DD	09H
	DD	FLAT:$L89162
	DD	00H
	DD	FLAT:$L89163
	DD	0bH
	DD	FLAT:$L89164
$T89166	DD	019930520H
	DD	0dH
	DD	FLAT:$T89175
	DD	2 DUP(00H)
	DD	2 DUP(00H)
; Function compile flags: /Odt /RTCsu
xdata$x	ENDS
_TEXT	SEGMENT
tv277 = -836						; size = 4
tv341 = -832						; size = 4
tv275 = -828						; size = 4
tv338 = -824						; size = 4
tv273 = -820						; size = 4
tv335 = -816						; size = 4
tv271 = -812						; size = 4
tv332 = -808						; size = 4
tv269 = -804						; size = 4
tv329 = -800						; size = 4
tv267 = -796						; size = 4
tv326 = -792						; size = 4
tv263 = -788						; size = 4
tv321 = -784						; size = 4
tv261 = -780						; size = 4
tv286 = -776						; size = 4
tv258 = -772						; size = 4
tv283 = -768						; size = 4
tv256 = -764						; size = 4
tv280 = -760						; size = 4
$T89151 = -753						; size = 1
$T89150 = -752						; size = 28
$T89149 = -724						; size = 28
$T89148 = -693						; size = 1
$T89147 = -692						; size = 28
$T89146 = -664						; size = 28
$T89145 = -636						; size = 28
$T89144 = -608						; size = 28
$T89143 = -580						; size = 28
$T89142 = -552						; size = 28
$T89141 = -521						; size = 1
$T89140 = -520						; size = 28
$T89139 = -492						; size = 28
_pTmp$84074 = -464					; size = 4
_idx$84070 = -460					; size = 4
_strExe$84069 = -452					; size = 28
_strName$84068 = -416					; size = 28
_strDirName$ = -380					; size = 28
_hFind$ = -348						; size = 4
_FindFileData$ = -340					; size = 320
__$ArrayPad$ = -16					; size = 4
__$EHRec$ = -12						; size = 12
__$ReturnAddr$ = 4					; size = 4
_strDirNameSrc$ = 8					; size = 4
_pvecDir$ = 12						; size = 4
_pvecFile$ = 16						; size = 4
_bRecursion$ = 20					; size = 1
_vFileExe$ = 24						; size = 4
?FindFileAndDir@YL_DirInfo@@SA_NABV?$basic_string@DU?$char_traits@D@std@@V?$allocator@D@2@@std@@PAV?$vector@V?$basic_string@DU?$char_traits@D@std@@V?$allocator@D@2@@std@@V?$allocator@V?$basic_string@DU?$char_traits@D@std@@V?$allocator@D@2@@std@@@2@@3@1_NPBV43@@Z PROC NEAR ; YL_DirInfo::FindFileAndDir

; 304  : {

  01860	55		 push	 ebp
  01861	8b ec		 mov	 ebp, esp
  01863	6a ff		 push	 -1
  01865	68 00 00 00 00	 push	 __ehhandler$?FindFileAndDir@YL_DirInfo@@SA_NABV?$basic_string@DU?$char_traits@D@std@@V?$allocator@D@2@@std@@PAV?$vector@V?$basic_string@DU?$char_traits@D@std@@V?$allocator@D@2@@std@@V?$allocator@V?$basic_string@DU?$char_traits@D@std@@V?$allocator@D@2@@std@@@2@@3@1_NPBV43@@Z
  0186a	64 a1 00 00 00
	00		 mov	 eax, DWORD PTR fs:__except_list
  01870	50		 push	 eax
  01871	64 89 25 00 00
	00 00		 mov	 DWORD PTR fs:__except_list, esp
  01878	81 ec 38 03 00
	00		 sub	 esp, 824		; 00000338H
  0187e	56		 push	 esi
  0187f	57		 push	 edi
  01880	8d bd bc fc ff
	ff		 lea	 edi, DWORD PTR [ebp-836]
  01886	b9 ce 00 00 00	 mov	 ecx, 206		; 000000ceH
  0188b	b8 cc cc cc cc	 mov	 eax, -858993460		; ccccccccH
  01890	f3 ab		 rep stosd
  01892	a1 00 00 00 00	 mov	 eax, DWORD PTR ___security_cookie
  01897	89 45 f0	 mov	 DWORD PTR __$ArrayPad$[ebp], eax

; 305  : 	WIN32_FIND_DATA FindFileData;
; 306  : 	HANDLE hFind = INVALID_HANDLE_VALUE;

  0189a	c7 85 a4 fe ff
	ff ff ff ff ff	 mov	 DWORD PTR _hFind$[ebp], -1

; 307  : 	string strDirName = strDirNameSrc;

  018a4	8b f4		 mov	 esi, esp
  018a6	8b 45 08	 mov	 eax, DWORD PTR _strDirNameSrc$[ebp]
  018a9	50		 push	 eax
  018aa	8d 8d 84 fe ff
	ff		 lea	 ecx, DWORD PTR _strDirName$[ebp]
  018b0	ff 15 00 00 00
	00		 call	 DWORD PTR __imp_??0?$basic_string@DU?$char_traits@D@std@@V?$allocator@D@2@@std@@QAE@ABV01@@Z
  018b6	3b f4		 cmp	 esi, esp
  018b8	e8 00 00 00 00	 call	 __RTC_CheckEsp
  018bd	c7 45 fc 00 00
	00 00		 mov	 DWORD PTR __$EHRec$[ebp+8], 0

; 308  : 	if( strDirName.find_last_of("\\") == strDirName.length()-1)

  018c4	8b f4		 mov	 esi, esp
  018c6	8b 0d 00 00 00
	00		 mov	 ecx, DWORD PTR __imp_?npos@?$basic_string@DU?$char_traits@D@std@@V?$allocator@D@2@@std@@2IB
  018cc	8b 11		 mov	 edx, DWORD PTR [ecx]
  018ce	52		 push	 edx
  018cf	68 00 00 00 00	 push	 OFFSET FLAT:$SG84051
  018d4	8d 8d 84 fe ff
	ff		 lea	 ecx, DWORD PTR _strDirName$[ebp]
  018da	ff 15 00 00 00
	00		 call	 DWORD PTR __imp_?find_last_of@?$basic_string@DU?$char_traits@D@std@@V?$allocator@D@2@@std@@QBEIPBDI@Z
  018e0	3b f4		 cmp	 esi, esp
  018e2	e8 00 00 00 00	 call	 __RTC_CheckEsp
  018e7	8b f0		 mov	 esi, eax
  018e9	8b fc		 mov	 edi, esp
  018eb	8d 8d 84 fe ff
	ff		 lea	 ecx, DWORD PTR _strDirName$[ebp]
  018f1	ff 15 00 00 00
	00		 call	 DWORD PTR __imp_?length@?$basic_string@DU?$char_traits@D@std@@V?$allocator@D@2@@std@@QBEIXZ
  018f7	3b fc		 cmp	 edi, esp
  018f9	e8 00 00 00 00	 call	 __RTC_CheckEsp
  018fe	83 e8 01	 sub	 eax, 1
  01901	3b f0		 cmp	 esi, eax
  01903	0f 85 82 00 00
	00		 jne	 $L84050

; 309  : 	{
; 310  : 		strDirName = strDirName.substr(0,strDirName.length()-1);

  01909	8b f4		 mov	 esi, esp
  0190b	8d 8d 84 fe ff
	ff		 lea	 ecx, DWORD PTR _strDirName$[ebp]
  01911	ff 15 00 00 00
	00		 call	 DWORD PTR __imp_?length@?$basic_string@DU?$char_traits@D@std@@V?$allocator@D@2@@std@@QBEIXZ
  01917	3b f4		 cmp	 esi, esp
  01919	e8 00 00 00 00	 call	 __RTC_CheckEsp
  0191e	83 e8 01	 sub	 eax, 1
  01921	8b f4		 mov	 esi, esp
  01923	50		 push	 eax
  01924	6a 00		 push	 0
  01926	8d 85 14 fe ff
	ff		 lea	 eax, DWORD PTR $T89139[ebp]
  0192c	50		 push	 eax
  0192d	8d 8d 84 fe ff
	ff		 lea	 ecx, DWORD PTR _strDirName$[ebp]
  01933	ff 15 00 00 00
	00		 call	 DWORD PTR __imp_?substr@?$basic_string@DU?$char_traits@D@std@@V?$allocator@D@2@@std@@QBE?AV12@II@Z
  01939	3b f4		 cmp	 esi, esp
  0193b	e8 00 00 00 00	 call	 __RTC_CheckEsp
  01940	89 85 08 fd ff
	ff		 mov	 DWORD PTR tv280[ebp], eax
  01946	8b 8d 08 fd ff
	ff		 mov	 ecx, DWORD PTR tv280[ebp]
  0194c	89 8d 04 fd ff
	ff		 mov	 DWORD PTR tv256[ebp], ecx
  01952	c6 45 fc 01	 mov	 BYTE PTR __$EHRec$[ebp+8], 1
  01956	8b f4		 mov	 esi, esp
  01958	8b 95 04 fd ff
	ff		 mov	 edx, DWORD PTR tv256[ebp]
  0195e	52		 push	 edx
  0195f	8d 8d 84 fe ff
	ff		 lea	 ecx, DWORD PTR _strDirName$[ebp]
  01965	ff 15 00 00 00
	00		 call	 DWORD PTR __imp_??4?$basic_string@DU?$char_traits@D@std@@V?$allocator@D@2@@std@@QAEAAV01@ABV01@@Z
  0196b	3b f4		 cmp	 esi, esp
  0196d	e8 00 00 00 00	 call	 __RTC_CheckEsp
  01972	c6 45 fc 00	 mov	 BYTE PTR __$EHRec$[ebp+8], 0
  01976	8b f4		 mov	 esi, esp
  01978	8d 8d 14 fe ff
	ff		 lea	 ecx, DWORD PTR $T89139[ebp]
  0197e	ff 15 00 00 00
	00		 call	 DWORD PTR __imp_??1?$basic_string@DU?$char_traits@D@std@@V?$allocator@D@2@@std@@QAE@XZ
  01984	3b f4		 cmp	 esi, esp
  01986	e8 00 00 00 00	 call	 __RTC_CheckEsp
$L84050:

; 311  : 	}
; 312  : 
; 313  : 	//find a file	
; 314  : 	hFind = FindFirstFile((strDirName + "\\*").c_str(), &FindFileData);	

  0198b	68 00 00 00 00	 push	 OFFSET FLAT:$SG84054
  01990	8d 85 84 fe ff
	ff		 lea	 eax, DWORD PTR _strDirName$[ebp]
  01996	50		 push	 eax
  01997	8d 8d f8 fd ff
	ff		 lea	 ecx, DWORD PTR $T89140[ebp]
  0199d	51		 push	 ecx
  0199e	e8 00 00 00 00	 call	 ??$?HDU?$char_traits@D@std@@V?$allocator@D@1@@std@@YA?AV?$basic_string@DU?$char_traits@D@std@@V?$allocator@D@2@@0@ABV10@PBD@Z ; std::operator+<char,std::char_traits<char>,std::allocator<char> >
  019a3	83 c4 0c	 add	 esp, 12			; 0000000cH
  019a6	89 85 00 fd ff
	ff		 mov	 DWORD PTR tv283[ebp], eax
  019ac	8b 95 00 fd ff
	ff		 mov	 edx, DWORD PTR tv283[ebp]
  019b2	89 95 fc fc ff
	ff		 mov	 DWORD PTR tv258[ebp], edx
  019b8	c6 45 fc 02	 mov	 BYTE PTR __$EHRec$[ebp+8], 2
  019bc	8b f4		 mov	 esi, esp
  019be	8d 85 ac fe ff
	ff		 lea	 eax, DWORD PTR _FindFileData$[ebp]
  019c4	50		 push	 eax
  019c5	8b fc		 mov	 edi, esp
  019c7	8b 8d fc fc ff
	ff		 mov	 ecx, DWORD PTR tv258[ebp]
  019cd	ff 15 00 00 00
	00		 call	 DWORD PTR __imp_?c_str@?$basic_string@DU?$char_traits@D@std@@V?$allocator@D@2@@std@@QBEPBDXZ
  019d3	3b fc		 cmp	 edi, esp
  019d5	e8 00 00 00 00	 call	 __RTC_CheckEsp
  019da	50		 push	 eax
  019db	ff 15 00 00 00
	00		 call	 DWORD PTR __imp__FindFirstFileA@8
  019e1	3b f4		 cmp	 esi, esp
  019e3	e8 00 00 00 00	 call	 __RTC_CheckEsp
  019e8	89 85 a4 fe ff
	ff		 mov	 DWORD PTR _hFind$[ebp], eax
  019ee	c6 45 fc 00	 mov	 BYTE PTR __$EHRec$[ebp+8], 0
  019f2	8b f4		 mov	 esi, esp
  019f4	8d 8d f8 fd ff
	ff		 lea	 ecx, DWORD PTR $T89140[ebp]
  019fa	ff 15 00 00 00
	00		 call	 DWORD PTR __imp_??1?$basic_string@DU?$char_traits@D@std@@V?$allocator@D@2@@std@@QAE@XZ
  01a00	3b f4		 cmp	 esi, esp
  01a02	e8 00 00 00 00	 call	 __RTC_CheckEsp

; 315  : 
; 316  : 	if(hFind == INVALID_HANDLE_VALUE)

  01a07	83 bd a4 fe ff
	ff ff		 cmp	 DWORD PTR _hFind$[ebp], -1
  01a0e	75 2e		 jne	 SHORT $L84059

; 317  : 	{
; 318  : 		return false;

  01a10	c6 85 f7 fd ff
	ff 00		 mov	 BYTE PTR $T89141[ebp], 0
  01a17	c7 45 fc ff ff
	ff ff		 mov	 DWORD PTR __$EHRec$[ebp+8], -1
  01a1e	8b f4		 mov	 esi, esp
  01a20	8d 8d 84 fe ff
	ff		 lea	 ecx, DWORD PTR _strDirName$[ebp]
  01a26	ff 15 00 00 00
	00		 call	 DWORD PTR __imp_??1?$basic_string@DU?$char_traits@D@std@@V?$allocator@D@2@@std@@QAE@XZ
  01a2c	3b f4		 cmp	 esi, esp
  01a2e	e8 00 00 00 00	 call	 __RTC_CheckEsp
  01a33	8a 85 f7 fd ff
	ff		 mov	 al, BYTE PTR $T89141[ebp]
  01a39	e9 12 05 00 00	 jmp	 $L84044
$L84059:

; 319  : 	}
; 320  : 	//find all files and dirs
; 321  : 	do{
; 322  : 		if (!(FindFileData.dwFileAttributes & FILE_ATTRIBUTE_DIRECTORY) && pvecFile  )

  01a3e	8b 8d ac fe ff
	ff		 mov	 ecx, DWORD PTR _FindFileData$[ebp]
  01a44	83 e1 10	 and	 ecx, 16			; 00000010H
  01a47	0f 85 d9 02 00
	00		 jne	 $L84062
  01a4d	83 7d 10 00	 cmp	 DWORD PTR _pvecFile$[ebp], 0
  01a51	0f 84 cf 02 00
	00		 je	 $L84062

; 323  : 		{
; 324  : 			if( vFileExe == NULL )

  01a57	83 7d 18 00	 cmp	 DWORD PTR _vFileExe$[ebp], 0
  01a5b	0f 85 aa 00 00
	00		 jne	 $L84063

; 325  : 			{
; 326  : 				(*pvecFile).push_back(strDirName + "\\" + FindFileData.cFileName);

  01a61	68 00 00 00 00	 push	 OFFSET FLAT:$SG84066
  01a66	8d 95 84 fe ff
	ff		 lea	 edx, DWORD PTR _strDirName$[ebp]
  01a6c	52		 push	 edx
  01a6d	8d 85 d8 fd ff
	ff		 lea	 eax, DWORD PTR $T89142[ebp]
  01a73	50		 push	 eax
  01a74	e8 00 00 00 00	 call	 ??$?HDU?$char_traits@D@std@@V?$allocator@D@1@@std@@YA?AV?$basic_string@DU?$char_traits@D@std@@V?$allocator@D@2@@0@ABV10@PBD@Z ; std::operator+<char,std::char_traits<char>,std::allocator<char> >
  01a79	83 c4 0c	 add	 esp, 12			; 0000000cH
  01a7c	89 85 f8 fc ff
	ff		 mov	 DWORD PTR tv286[ebp], eax
  01a82	8b 8d f8 fc ff
	ff		 mov	 ecx, DWORD PTR tv286[ebp]
  01a88	89 8d f4 fc ff
	ff		 mov	 DWORD PTR tv261[ebp], ecx
  01a8e	c6 45 fc 03	 mov	 BYTE PTR __$EHRec$[ebp+8], 3
  01a92	8d 95 d8 fe ff
	ff		 lea	 edx, DWORD PTR _FindFileData$[ebp+44]
  01a98	52		 push	 edx
  01a99	8b 85 f4 fc ff
	ff		 mov	 eax, DWORD PTR tv261[ebp]
  01a9f	50		 push	 eax
  01aa0	8d 8d bc fd ff
	ff		 lea	 ecx, DWORD PTR $T89143[ebp]
  01aa6	51		 push	 ecx
  01aa7	e8 00 00 00 00	 call	 ??$?HDU?$char_traits@D@std@@V?$allocator@D@1@@std@@YA?AV?$basic_string@DU?$char_traits@D@std@@V?$allocator@D@2@@0@ABV10@PBD@Z ; std::operator+<char,std::char_traits<char>,std::allocator<char> >
  01aac	83 c4 0c	 add	 esp, 12			; 0000000cH
  01aaf	89 85 f0 fc ff
	ff		 mov	 DWORD PTR tv321[ebp], eax
  01ab5	8b 95 f0 fc ff
	ff		 mov	 edx, DWORD PTR tv321[ebp]
  01abb	89 95 ec fc ff
	ff		 mov	 DWORD PTR tv263[ebp], edx
  01ac1	c6 45 fc 04	 mov	 BYTE PTR __$EHRec$[ebp+8], 4
  01ac5	8b 85 ec fc ff
	ff		 mov	 eax, DWORD PTR tv263[ebp]
  01acb	50		 push	 eax
  01acc	8b 4d 10	 mov	 ecx, DWORD PTR _pvecFile$[ebp]
  01acf	e8 00 00 00 00	 call	 ?push_back@?$vector@V?$basic_string@DU?$char_traits@D@std@@V?$allocator@D@2@@std@@V?$allocator@V?$basic_string@DU?$char_traits@D@std@@V?$allocator@D@2@@std@@@2@@std@@QAEXABV?$basic_string@DU?$char_traits@D@std@@V?$allocator@D@2@@2@@Z ; std::vector<std::basic_string<char,std::char_traits<char>,std::allocator<char> >,std::allocator<std::basic_string<char,std::char_traits<char>,std::allocator<char> > > >::push_back
  01ad4	c6 45 fc 03	 mov	 BYTE PTR __$EHRec$[ebp+8], 3
  01ad8	8b f4		 mov	 esi, esp
  01ada	8d 8d bc fd ff
	ff		 lea	 ecx, DWORD PTR $T89143[ebp]
  01ae0	ff 15 00 00 00
	00		 call	 DWORD PTR __imp_??1?$basic_string@DU?$char_traits@D@std@@V?$allocator@D@2@@std@@QAE@XZ
  01ae6	3b f4		 cmp	 esi, esp
  01ae8	e8 00 00 00 00	 call	 __RTC_CheckEsp
  01aed	c6 45 fc 00	 mov	 BYTE PTR __$EHRec$[ebp+8], 0
  01af1	8b f4		 mov	 esi, esp
  01af3	8d 8d d8 fd ff
	ff		 lea	 ecx, DWORD PTR $T89142[ebp]
  01af9	ff 15 00 00 00
	00		 call	 DWORD PTR __imp_??1?$basic_string@DU?$char_traits@D@std@@V?$allocator@D@2@@std@@QAE@XZ
  01aff	3b f4		 cmp	 esi, esp
  01b01	e8 00 00 00 00	 call	 __RTC_CheckEsp

; 327  : 			}
; 328  : 			else 

  01b06	e9 16 02 00 00	 jmp	 $L84067
$L84063:

; 329  : 			{
; 330  : 				string strName = FindFileData.cFileName;

  01b0b	8b f4		 mov	 esi, esp
  01b0d	8d 8d d8 fe ff
	ff		 lea	 ecx, DWORD PTR _FindFileData$[ebp+44]
  01b13	51		 push	 ecx
  01b14	8d 8d 60 fe ff
	ff		 lea	 ecx, DWORD PTR _strName$84068[ebp]
  01b1a	ff 15 00 00 00
	00		 call	 DWORD PTR __imp_??0?$basic_string@DU?$char_traits@D@std@@V?$allocator@D@2@@std@@QAE@PBD@Z
  01b20	3b f4		 cmp	 esi, esp
  01b22	e8 00 00 00 00	 call	 __RTC_CheckEsp
  01b27	c6 45 fc 05	 mov	 BYTE PTR __$EHRec$[ebp+8], 5

; 331  : 				YL_StringUtil::Str2Lower( strName );

  01b2b	8d 95 60 fe ff
	ff		 lea	 edx, DWORD PTR _strName$84068[ebp]
  01b31	52		 push	 edx
  01b32	e8 00 00 00 00	 call	 ?Str2Lower@YL_StringUtil@@SAXAAV?$basic_string@DU?$char_traits@D@std@@V?$allocator@D@2@@std@@@Z ; YL_StringUtil::Str2Lower
  01b37	83 c4 04	 add	 esp, 4

; 332  : 				string strExe;

  01b3a	8b f4		 mov	 esi, esp
  01b3c	8d 8d 3c fe ff
	ff		 lea	 ecx, DWORD PTR _strExe$84069[ebp]
  01b42	ff 15 00 00 00
	00		 call	 DWORD PTR __imp_??0?$basic_string@DU?$char_traits@D@std@@V?$allocator@D@2@@std@@QAE@XZ
  01b48	3b f4		 cmp	 esi, esp
  01b4a	e8 00 00 00 00	 call	 __RTC_CheckEsp
  01b4f	c6 45 fc 06	 mov	 BYTE PTR __$EHRec$[ebp+8], 6

; 333  : 
; 334  : 				for(size_t idx = 0;idx < vFileExe->size();idx++ )

  01b53	c7 85 34 fe ff
	ff 00 00 00 00	 mov	 DWORD PTR _idx$84070[ebp], 0
  01b5d	eb 0f		 jmp	 SHORT $L84071
$L84072:
  01b5f	8b 85 34 fe ff
	ff		 mov	 eax, DWORD PTR _idx$84070[ebp]
  01b65	83 c0 01	 add	 eax, 1
  01b68	89 85 34 fe ff
	ff		 mov	 DWORD PTR _idx$84070[ebp], eax
$L84071:
  01b6e	8b 4d 18	 mov	 ecx, DWORD PTR _vFileExe$[ebp]
  01b71	e8 00 00 00 00	 call	 ?size@?$vector@V?$basic_string@DU?$char_traits@D@std@@V?$allocator@D@2@@std@@V?$allocator@V?$basic_string@DU?$char_traits@D@std@@V?$allocator@D@2@@std@@@2@@std@@QBEIXZ ; std::vector<std::basic_string<char,std::char_traits<char>,std::allocator<char> >,std::allocator<std::basic_string<char,std::char_traits<char>,std::allocator<char> > > >::size
  01b76	39 85 34 fe ff
	ff		 cmp	 DWORD PTR _idx$84070[ebp], eax
  01b7c	0f 83 6d 01 00
	00		 jae	 $L84073

; 335  : 				{
; 336  : 					strExe = (*vFileExe)[idx];

  01b82	8b 8d 34 fe ff
	ff		 mov	 ecx, DWORD PTR _idx$84070[ebp]
  01b88	51		 push	 ecx
  01b89	8b 4d 18	 mov	 ecx, DWORD PTR _vFileExe$[ebp]
  01b8c	e8 00 00 00 00	 call	 ??A?$vector@V?$basic_string@DU?$char_traits@D@std@@V?$allocator@D@2@@std@@V?$allocator@V?$basic_string@DU?$char_traits@D@std@@V?$allocator@D@2@@std@@@2@@std@@QBEABV?$basic_string@DU?$char_traits@D@std@@V?$allocator@D@2@@1@I@Z ; std::vector<std::basic_string<char,std::char_traits<char>,std::allocator<char> >,std::allocator<std::basic_string<char,std::char_traits<char>,std::allocator<char> > > >::operator[]
  01b91	8b f4		 mov	 esi, esp
  01b93	50		 push	 eax
  01b94	8d 8d 3c fe ff
	ff		 lea	 ecx, DWORD PTR _strExe$84069[ebp]
  01b9a	ff 15 00 00 00
	00		 call	 DWORD PTR __imp_??4?$basic_string@DU?$char_traits@D@std@@V?$allocator@D@2@@std@@QAEAAV01@ABV01@@Z
  01ba0	3b f4		 cmp	 esi, esp
  01ba2	e8 00 00 00 00	 call	 __RTC_CheckEsp

; 337  : 					char* pTmp = (char*)strstr( strName.c_str(),strExe.c_str());

  01ba7	8b f4		 mov	 esi, esp
  01ba9	8d 8d 3c fe ff
	ff		 lea	 ecx, DWORD PTR _strExe$84069[ebp]
  01baf	ff 15 00 00 00
	00		 call	 DWORD PTR __imp_?c_str@?$basic_string@DU?$char_traits@D@std@@V?$allocator@D@2@@std@@QBEPBDXZ
  01bb5	3b f4		 cmp	 esi, esp
  01bb7	e8 00 00 00 00	 call	 __RTC_CheckEsp
  01bbc	8b f4		 mov	 esi, esp
  01bbe	50		 push	 eax
  01bbf	8b fc		 mov	 edi, esp
  01bc1	8d 8d 60 fe ff
	ff		 lea	 ecx, DWORD PTR _strName$84068[ebp]
  01bc7	ff 15 00 00 00
	00		 call	 DWORD PTR __imp_?c_str@?$basic_string@DU?$char_traits@D@std@@V?$allocator@D@2@@std@@QBEPBDXZ
  01bcd	3b fc		 cmp	 edi, esp
  01bcf	e8 00 00 00 00	 call	 __RTC_CheckEsp
  01bd4	50		 push	 eax
  01bd5	ff 15 00 00 00
	00		 call	 DWORD PTR __imp__strstr
  01bdb	83 c4 08	 add	 esp, 8
  01bde	3b f4		 cmp	 esi, esp
  01be0	e8 00 00 00 00	 call	 __RTC_CheckEsp
  01be5	89 85 30 fe ff
	ff		 mov	 DWORD PTR _pTmp$84074[ebp], eax

; 338  : 					if( pTmp != NULL && 
; 339  : 						( strlen( FindFileData.cFileName) - (pTmp - strName.c_str()) ) == strExe.length() )

  01beb	83 bd 30 fe ff
	ff 00		 cmp	 DWORD PTR _pTmp$84074[ebp], 0
  01bf2	0f 84 f2 00 00
	00		 je	 $L84076
  01bf8	8d 95 d8 fe ff
	ff		 lea	 edx, DWORD PTR _FindFileData$[ebp+44]
  01bfe	52		 push	 edx
  01bff	e8 00 00 00 00	 call	 _strlen
  01c04	83 c4 04	 add	 esp, 4
  01c07	8b f0		 mov	 esi, eax
  01c09	8b fc		 mov	 edi, esp
  01c0b	8d 8d 60 fe ff
	ff		 lea	 ecx, DWORD PTR _strName$84068[ebp]
  01c11	ff 15 00 00 00
	00		 call	 DWORD PTR __imp_?c_str@?$basic_string@DU?$char_traits@D@std@@V?$allocator@D@2@@std@@QBEPBDXZ
  01c17	3b fc		 cmp	 edi, esp
  01c19	e8 00 00 00 00	 call	 __RTC_CheckEsp
  01c1e	8b 8d 30 fe ff
	ff		 mov	 ecx, DWORD PTR _pTmp$84074[ebp]
  01c24	2b c8		 sub	 ecx, eax
  01c26	2b f1		 sub	 esi, ecx
  01c28	8b fc		 mov	 edi, esp
  01c2a	8d 8d 3c fe ff
	ff		 lea	 ecx, DWORD PTR _strExe$84069[ebp]
  01c30	ff 15 00 00 00
	00		 call	 DWORD PTR __imp_?length@?$basic_string@DU?$char_traits@D@std@@V?$allocator@D@2@@std@@QBEIXZ
  01c36	3b fc		 cmp	 edi, esp
  01c38	e8 00 00 00 00	 call	 __RTC_CheckEsp
  01c3d	3b f0		 cmp	 esi, eax
  01c3f	0f 85 a5 00 00
	00		 jne	 $L84076

; 340  : 					{
; 341  : 						(*pvecFile).push_back(strDirName + "\\" + FindFileData.cFileName);

  01c45	68 00 00 00 00	 push	 OFFSET FLAT:$SG84079
  01c4a	8d 95 84 fe ff
	ff		 lea	 edx, DWORD PTR _strDirName$[ebp]
  01c50	52		 push	 edx
  01c51	8d 85 a0 fd ff
	ff		 lea	 eax, DWORD PTR $T89144[ebp]
  01c57	50		 push	 eax
  01c58	e8 00 00 00 00	 call	 ??$?HDU?$char_traits@D@std@@V?$allocator@D@1@@std@@YA?AV?$basic_string@DU?$char_traits@D@std@@V?$allocator@D@2@@0@ABV10@PBD@Z ; std::operator+<char,std::char_traits<char>,std::allocator<char> >
  01c5d	83 c4 0c	 add	 esp, 12			; 0000000cH
  01c60	89 85 e8 fc ff
	ff		 mov	 DWORD PTR tv326[ebp], eax
  01c66	8b 8d e8 fc ff
	ff		 mov	 ecx, DWORD PTR tv326[ebp]
  01c6c	89 8d e4 fc ff
	ff		 mov	 DWORD PTR tv267[ebp], ecx
  01c72	c6 45 fc 07	 mov	 BYTE PTR __$EHRec$[ebp+8], 7
  01c76	8d 95 d8 fe ff
	ff		 lea	 edx, DWORD PTR _FindFileData$[ebp+44]
  01c7c	52		 push	 edx
  01c7d	8b 85 e4 fc ff
	ff		 mov	 eax, DWORD PTR tv267[ebp]
  01c83	50		 push	 eax
  01c84	8d 8d 84 fd ff
	ff		 lea	 ecx, DWORD PTR $T89145[ebp]
  01c8a	51		 push	 ecx
  01c8b	e8 00 00 00 00	 call	 ??$?HDU?$char_traits@D@std@@V?$allocator@D@1@@std@@YA?AV?$basic_string@DU?$char_traits@D@std@@V?$allocator@D@2@@0@ABV10@PBD@Z ; std::operator+<char,std::char_traits<char>,std::allocator<char> >
  01c90	83 c4 0c	 add	 esp, 12			; 0000000cH
  01c93	89 85 e0 fc ff
	ff		 mov	 DWORD PTR tv329[ebp], eax
  01c99	8b 95 e0 fc ff
	ff		 mov	 edx, DWORD PTR tv329[ebp]
  01c9f	89 95 dc fc ff
	ff		 mov	 DWORD PTR tv269[ebp], edx
  01ca5	c6 45 fc 08	 mov	 BYTE PTR __$EHRec$[ebp+8], 8
  01ca9	8b 85 dc fc ff
	ff		 mov	 eax, DWORD PTR tv269[ebp]
  01caf	50		 push	 eax
  01cb0	8b 4d 10	 mov	 ecx, DWORD PTR _pvecFile$[ebp]
  01cb3	e8 00 00 00 00	 call	 ?push_back@?$vector@V?$basic_string@DU?$char_traits@D@std@@V?$allocator@D@2@@std@@V?$allocator@V?$basic_string@DU?$char_traits@D@std@@V?$allocator@D@2@@std@@@2@@std@@QAEXABV?$basic_string@DU?$char_traits@D@std@@V?$allocator@D@2@@2@@Z ; std::vector<std::basic_string<char,std::char_traits<char>,std::allocator<char> >,std::allocator<std::basic_string<char,std::char_traits<char>,std::allocator<char> > > >::push_back
  01cb8	c6 45 fc 07	 mov	 BYTE PTR __$EHRec$[ebp+8], 7
  01cbc	8b f4		 mov	 esi, esp
  01cbe	8d 8d 84 fd ff
	ff		 lea	 ecx, DWORD PTR $T89145[ebp]
  01cc4	ff 15 00 00 00
	00		 call	 DWORD PTR __imp_??1?$basic_string@DU?$char_traits@D@std@@V?$allocator@D@2@@std@@QAE@XZ
  01cca	3b f4		 cmp	 esi, esp
  01ccc	e8 00 00 00 00	 call	 __RTC_CheckEsp
  01cd1	c6 45 fc 06	 mov	 BYTE PTR __$EHRec$[ebp+8], 6
  01cd5	8b f4		 mov	 esi, esp
  01cd7	8d 8d a0 fd ff
	ff		 lea	 ecx, DWORD PTR $T89144[ebp]
  01cdd	ff 15 00 00 00
	00		 call	 DWORD PTR __imp_??1?$basic_string@DU?$char_traits@D@std@@V?$allocator@D@2@@std@@QAE@XZ
  01ce3	3b f4		 cmp	 esi, esp
  01ce5	e8 00 00 00 00	 call	 __RTC_CheckEsp
$L84076:

; 342  : 					}
; 343  : 				}

  01cea	e9 70 fe ff ff	 jmp	 $L84072
$L84073:

; 344  : 			}

  01cef	c6 45 fc 05	 mov	 BYTE PTR __$EHRec$[ebp+8], 5
  01cf3	8b f4		 mov	 esi, esp
  01cf5	8d 8d 3c fe ff
	ff		 lea	 ecx, DWORD PTR _strExe$84069[ebp]
  01cfb	ff 15 00 00 00
	00		 call	 DWORD PTR __imp_??1?$basic_string@DU?$char_traits@D@std@@V?$allocator@D@2@@std@@QAE@XZ
  01d01	3b f4		 cmp	 esi, esp
  01d03	e8 00 00 00 00	 call	 __RTC_CheckEsp
  01d08	c6 45 fc 00	 mov	 BYTE PTR __$EHRec$[ebp+8], 0
  01d0c	8b f4		 mov	 esi, esp
  01d0e	8d 8d 60 fe ff
	ff		 lea	 ecx, DWORD PTR _strName$84068[ebp]
  01d14	ff 15 00 00 00
	00		 call	 DWORD PTR __imp_??1?$basic_string@DU?$char_traits@D@std@@V?$allocator@D@2@@std@@QAE@XZ
  01d1a	3b f4		 cmp	 esi, esp
  01d1c	e8 00 00 00 00	 call	 __RTC_CheckEsp
$L84067:

; 345  : 		}
; 346  : 		else

  01d21	e9 c5 01 00 00	 jmp	 $L84060
$L84062:

; 347  : 		{
; 348  : 			if (strcmp(FindFileData.cFileName,".") != 0 && strcmp(FindFileData.cFileName,"..") != 0 && FindFileData.dwFileAttributes & FILE_ATTRIBUTE_DIRECTORY )			

  01d26	68 00 00 00 00	 push	 OFFSET FLAT:$SG84082
  01d2b	8d 8d d8 fe ff
	ff		 lea	 ecx, DWORD PTR _FindFileData$[ebp+44]
  01d31	51		 push	 ecx
  01d32	e8 00 00 00 00	 call	 _strcmp
  01d37	83 c4 08	 add	 esp, 8
  01d3a	85 c0		 test	 eax, eax
  01d3c	0f 84 a9 01 00
	00		 je	 $L84060
  01d42	68 00 00 00 00	 push	 OFFSET FLAT:$SG84083
  01d47	8d 95 d8 fe ff
	ff		 lea	 edx, DWORD PTR _FindFileData$[ebp+44]
  01d4d	52		 push	 edx
  01d4e	e8 00 00 00 00	 call	 _strcmp
  01d53	83 c4 08	 add	 esp, 8
  01d56	85 c0		 test	 eax, eax
  01d58	0f 84 8d 01 00
	00		 je	 $L84060
  01d5e	8b 85 ac fe ff
	ff		 mov	 eax, DWORD PTR _FindFileData$[ebp]
  01d64	83 e0 10	 and	 eax, 16			; 00000010H
  01d67	0f 84 7e 01 00
	00		 je	 $L84060

; 349  : 			{
; 350  : 				if( pvecDir )

  01d6d	83 7d 0c 00	 cmp	 DWORD PTR _pvecDir$[ebp], 0
  01d71	0f 84 a5 00 00
	00		 je	 $L84084

; 351  : 				{
; 352  : 					(*pvecDir).push_back(strDirName + "\\" + FindFileData.cFileName);				

  01d77	68 00 00 00 00	 push	 OFFSET FLAT:$SG84087
  01d7c	8d 8d 84 fe ff
	ff		 lea	 ecx, DWORD PTR _strDirName$[ebp]
  01d82	51		 push	 ecx
  01d83	8d 95 68 fd ff
	ff		 lea	 edx, DWORD PTR $T89146[ebp]
  01d89	52		 push	 edx
  01d8a	e8 00 00 00 00	 call	 ??$?HDU?$char_traits@D@std@@V?$allocator@D@1@@std@@YA?AV?$basic_string@DU?$char_traits@D@std@@V?$allocator@D@2@@0@ABV10@PBD@Z ; std::operator+<char,std::char_traits<char>,std::allocator<char> >
  01d8f	83 c4 0c	 add	 esp, 12			; 0000000cH
  01d92	89 85 d8 fc ff
	ff		 mov	 DWORD PTR tv332[ebp], eax
  01d98	8b 85 d8 fc ff
	ff		 mov	 eax, DWORD PTR tv332[ebp]
  01d9e	89 85 d4 fc ff
	ff		 mov	 DWORD PTR tv271[ebp], eax
  01da4	c6 45 fc 09	 mov	 BYTE PTR __$EHRec$[ebp+8], 9
  01da8	8d 8d d8 fe ff
	ff		 lea	 ecx, DWORD PTR _FindFileData$[ebp+44]
  01dae	51		 push	 ecx
  01daf	8b 95 d4 fc ff
	ff		 mov	 edx, DWORD PTR tv271[ebp]
  01db5	52		 push	 edx
  01db6	8d 85 4c fd ff
	ff		 lea	 eax, DWORD PTR $T89147[ebp]
  01dbc	50		 push	 eax
  01dbd	e8 00 00 00 00	 call	 ??$?HDU?$char_traits@D@std@@V?$allocator@D@1@@std@@YA?AV?$basic_string@DU?$char_traits@D@std@@V?$allocator@D@2@@0@ABV10@PBD@Z ; std::operator+<char,std::char_traits<char>,std::allocator<char> >
  01dc2	83 c4 0c	 add	 esp, 12			; 0000000cH
  01dc5	89 85 d0 fc ff
	ff		 mov	 DWORD PTR tv335[ebp], eax
  01dcb	8b 8d d0 fc ff
	ff		 mov	 ecx, DWORD PTR tv335[ebp]
  01dd1	89 8d cc fc ff
	ff		 mov	 DWORD PTR tv273[ebp], ecx
  01dd7	c6 45 fc 0a	 mov	 BYTE PTR __$EHRec$[ebp+8], 10 ; 0000000aH
  01ddb	8b 95 cc fc ff
	ff		 mov	 edx, DWORD PTR tv273[ebp]
  01de1	52		 push	 edx
  01de2	8b 4d 0c	 mov	 ecx, DWORD PTR _pvecDir$[ebp]
  01de5	e8 00 00 00 00	 call	 ?push_back@?$vector@V?$basic_string@DU?$char_traits@D@std@@V?$allocator@D@2@@std@@V?$allocator@V?$basic_string@DU?$char_traits@D@std@@V?$allocator@D@2@@std@@@2@@std@@QAEXABV?$basic_string@DU?$char_traits@D@std@@V?$allocator@D@2@@2@@Z ; std::vector<std::basic_string<char,std::char_traits<char>,std::allocator<char> >,std::allocator<std::basic_string<char,std::char_traits<char>,std::allocator<char> > > >::push_back
  01dea	c6 45 fc 09	 mov	 BYTE PTR __$EHRec$[ebp+8], 9
  01dee	8b f4		 mov	 esi, esp
  01df0	8d 8d 4c fd ff
	ff		 lea	 ecx, DWORD PTR $T89147[ebp]
  01df6	ff 15 00 00 00
	00		 call	 DWORD PTR __imp_??1?$basic_string@DU?$char_traits@D@std@@V?$allocator@D@2@@std@@QAE@XZ
  01dfc	3b f4		 cmp	 esi, esp
  01dfe	e8 00 00 00 00	 call	 __RTC_CheckEsp
  01e03	c6 45 fc 00	 mov	 BYTE PTR __$EHRec$[ebp+8], 0
  01e07	8b f4		 mov	 esi, esp
  01e09	8d 8d 68 fd ff
	ff		 lea	 ecx, DWORD PTR $T89146[ebp]
  01e0f	ff 15 00 00 00
	00		 call	 DWORD PTR __imp_??1?$basic_string@DU?$char_traits@D@std@@V?$allocator@D@2@@std@@QAE@XZ
  01e15	3b f4		 cmp	 esi, esp
  01e17	e8 00 00 00 00	 call	 __RTC_CheckEsp
$L84084:

; 353  : 				}
; 354  : 
; 355  : 				if(bRecursion)

  01e1c	0f b6 45 14	 movzx	 eax, BYTE PTR _bRecursion$[ebp]
  01e20	85 c0		 test	 eax, eax
  01e22	0f 84 c3 00 00
	00		 je	 $L84060

; 356  : 				{
; 357  : 					if( !FindFileAndDir(strDirName + "\\" + FindFileData.cFileName, pvecDir,pvecFile, bRecursion, vFileExe) )

  01e28	68 00 00 00 00	 push	 OFFSET FLAT:$SG84093
  01e2d	8d 8d 84 fe ff
	ff		 lea	 ecx, DWORD PTR _strDirName$[ebp]
  01e33	51		 push	 ecx
  01e34	8d 95 2c fd ff
	ff		 lea	 edx, DWORD PTR $T89149[ebp]
  01e3a	52		 push	 edx
  01e3b	e8 00 00 00 00	 call	 ??$?HDU?$char_traits@D@std@@V?$allocator@D@1@@std@@YA?AV?$basic_string@DU?$char_traits@D@std@@V?$allocator@D@2@@0@ABV10@PBD@Z ; std::operator+<char,std::char_traits<char>,std::allocator<char> >
  01e40	83 c4 0c	 add	 esp, 12			; 0000000cH
  01e43	89 85 c8 fc ff
	ff		 mov	 DWORD PTR tv338[ebp], eax
  01e49	8b 85 c8 fc ff
	ff		 mov	 eax, DWORD PTR tv338[ebp]
  01e4f	89 85 c4 fc ff
	ff		 mov	 DWORD PTR tv275[ebp], eax
  01e55	c6 45 fc 0b	 mov	 BYTE PTR __$EHRec$[ebp+8], 11 ; 0000000bH
  01e59	8d 8d d8 fe ff
	ff		 lea	 ecx, DWORD PTR _FindFileData$[ebp+44]
  01e5f	51		 push	 ecx
  01e60	8b 95 c4 fc ff
	ff		 mov	 edx, DWORD PTR tv275[ebp]
  01e66	52		 push	 edx
  01e67	8d 85 10 fd ff
	ff		 lea	 eax, DWORD PTR $T89150[ebp]
  01e6d	50		 push	 eax
  01e6e	e8 00 00 00 00	 call	 ??$?HDU?$char_traits@D@std@@V?$allocator@D@1@@std@@YA?AV?$basic_string@DU?$char_traits@D@std@@V?$allocator@D@2@@0@ABV10@PBD@Z ; std::operator+<char,std::char_traits<char>,std::allocator<char> >
  01e73	83 c4 0c	 add	 esp, 12			; 0000000cH
  01e76	89 85 c0 fc ff
	ff		 mov	 DWORD PTR tv341[ebp], eax
  01e7c	8b 8d c0 fc ff
	ff		 mov	 ecx, DWORD PTR tv341[ebp]
  01e82	89 8d bc fc ff
	ff		 mov	 DWORD PTR tv277[ebp], ecx
  01e88	c6 45 fc 0c	 mov	 BYTE PTR __$EHRec$[ebp+8], 12 ; 0000000cH
  01e8c	8b 55 18	 mov	 edx, DWORD PTR _vFileExe$[ebp]
  01e8f	52		 push	 edx
  01e90	8a 45 14	 mov	 al, BYTE PTR _bRecursion$[ebp]
  01e93	50		 push	 eax
  01e94	8b 4d 10	 mov	 ecx, DWORD PTR _pvecFile$[ebp]
  01e97	51		 push	 ecx
  01e98	8b 55 0c	 mov	 edx, DWORD PTR _pvecDir$[ebp]
  01e9b	52		 push	 edx
  01e9c	8b 85 bc fc ff
	ff		 mov	 eax, DWORD PTR tv277[ebp]
  01ea2	50		 push	 eax
  01ea3	e8 00 00 00 00	 call	 ?FindFileAndDir@YL_DirInfo@@SA_NABV?$basic_string@DU?$char_traits@D@std@@V?$allocator@D@2@@std@@PAV?$vector@V?$basic_string@DU?$char_traits@D@std@@V?$allocator@D@2@@std@@V?$allocator@V?$basic_string@DU?$char_traits@D@std@@V?$allocator@D@2@@std@@@2@@3@1_NPBV43@@Z ; YL_DirInfo::FindFileAndDir
  01ea8	83 c4 14	 add	 esp, 20			; 00000014H
  01eab	0f b6 c8	 movzx	 ecx, al
  01eae	f7 d9		 neg	 ecx
  01eb0	1b c9		 sbb	 ecx, ecx
  01eb2	41		 inc	 ecx
  01eb3	88 8d 4b fd ff
	ff		 mov	 BYTE PTR $T89148[ebp], cl
  01eb9	c6 45 fc 0b	 mov	 BYTE PTR __$EHRec$[ebp+8], 11 ; 0000000bH
  01ebd	8b f4		 mov	 esi, esp
  01ebf	8d 8d 10 fd ff
	ff		 lea	 ecx, DWORD PTR $T89150[ebp]
  01ec5	ff 15 00 00 00
	00		 call	 DWORD PTR __imp_??1?$basic_string@DU?$char_traits@D@std@@V?$allocator@D@2@@std@@QAE@XZ
  01ecb	3b f4		 cmp	 esi, esp
  01ecd	e8 00 00 00 00	 call	 __RTC_CheckEsp
  01ed2	c6 45 fc 00	 mov	 BYTE PTR __$EHRec$[ebp+8], 0
  01ed6	8b f4		 mov	 esi, esp
  01ed8	8d 8d 2c fd ff
	ff		 lea	 ecx, DWORD PTR $T89149[ebp]
  01ede	ff 15 00 00 00
	00		 call	 DWORD PTR __imp_??1?$basic_string@DU?$char_traits@D@std@@V?$allocator@D@2@@std@@QAE@XZ
  01ee4	3b f4		 cmp	 esi, esp
  01ee6	e8 00 00 00 00	 call	 __RTC_CheckEsp
$L84060:

; 358  : 					{
; 359  : //						FindClose( hFind );
; 360  : //						return false;
; 361  : 					}
; 362  : 				}
; 363  : 			}
; 364  : 		}
; 365  : 	}while( FindNextFile(hFind, &FindFileData) == TRUE);

  01eeb	8b f4		 mov	 esi, esp
  01eed	8d 85 ac fe ff
	ff		 lea	 eax, DWORD PTR _FindFileData$[ebp]
  01ef3	50		 push	 eax
  01ef4	8b 8d a4 fe ff
	ff		 mov	 ecx, DWORD PTR _hFind$[ebp]
  01efa	51		 push	 ecx
  01efb	ff 15 00 00 00
	00		 call	 DWORD PTR __imp__FindNextFileA@8
  01f01	3b f4		 cmp	 esi, esp
  01f03	e8 00 00 00 00	 call	 __RTC_CheckEsp
  01f08	83 f8 01	 cmp	 eax, 1
  01f0b	0f 84 2d fb ff
	ff		 je	 $L84059

; 366  : 
; 367  : 	FindClose( hFind );

  01f11	8b f4		 mov	 esi, esp
  01f13	8b 95 a4 fe ff
	ff		 mov	 edx, DWORD PTR _hFind$[ebp]
  01f19	52		 push	 edx
  01f1a	ff 15 00 00 00
	00		 call	 DWORD PTR __imp__FindClose@4
  01f20	3b f4		 cmp	 esi, esp
  01f22	e8 00 00 00 00	 call	 __RTC_CheckEsp

; 368  : 	return true;

  01f27	c6 85 0f fd ff
	ff 01		 mov	 BYTE PTR $T89151[ebp], 1
  01f2e	c7 45 fc ff ff
	ff ff		 mov	 DWORD PTR __$EHRec$[ebp+8], -1
  01f35	8b f4		 mov	 esi, esp
  01f37	8d 8d 84 fe ff
	ff		 lea	 ecx, DWORD PTR _strDirName$[ebp]
  01f3d	ff 15 00 00 00
	00		 call	 DWORD PTR __imp_??1?$basic_string@DU?$char_traits@D@std@@V?$allocator@D@2@@std@@QAE@XZ
  01f43	3b f4		 cmp	 esi, esp
  01f45	e8 00 00 00 00	 call	 __RTC_CheckEsp
  01f4a	8a 85 0f fd ff
	ff		 mov	 al, BYTE PTR $T89151[ebp]
$L84044:

; 369  : }

  01f50	52		 push	 edx
  01f51	8b cd		 mov	 ecx, ebp
  01f53	50		 push	 eax
  01f54	8d 15 00 00 00
	00		 lea	 edx, DWORD PTR $L89174
  01f5a	e8 00 00 00 00	 call	 @_RTC_CheckStackVars@8
  01f5f	58		 pop	 eax
  01f60	5a		 pop	 edx
  01f61	8b 4d f4	 mov	 ecx, DWORD PTR __$EHRec$[ebp]
  01f64	64 89 0d 00 00
	00 00		 mov	 DWORD PTR fs:__except_list, ecx
  01f6b	8b 4d f0	 mov	 ecx, DWORD PTR __$ArrayPad$[ebp]
  01f6e	e8 00 00 00 00	 call	 @__security_check_cookie@4
  01f73	5f		 pop	 edi
  01f74	5e		 pop	 esi
  01f75	81 c4 44 03 00
	00		 add	 esp, 836		; 00000344H
  01f7b	3b ec		 cmp	 ebp, esp
  01f7d	e8 00 00 00 00	 call	 __RTC_CheckEsp
  01f82	8b e5		 mov	 esp, ebp
  01f84	5d		 pop	 ebp
  01f85	c3		 ret	 0
$L89174:
  01f86	04 00 00 00	 DD	 4
  01f8a	00 00 00 00	 DD	 $L89173
$L89173:
  01f8e	ac fe ff ff	 DD	 -340			; fffffeacH
  01f92	40 01 00 00	 DD	 320			; 00000140H
  01f96	00 00 00 00	 DD	 $L89167
  01f9a	84 fe ff ff	 DD	 -380			; fffffe84H
  01f9e	1c 00 00 00	 DD	 28			; 0000001cH
  01fa2	00 00 00 00	 DD	 $L89168
  01fa6	60 fe ff ff	 DD	 -416			; fffffe60H
  01faa	1c 00 00 00	 DD	 28			; 0000001cH
  01fae	00 00 00 00	 DD	 $L89169
  01fb2	3c fe ff ff	 DD	 -452			; fffffe3cH
  01fb6	1c 00 00 00	 DD	 28			; 0000001cH
  01fba	00 00 00 00	 DD	 $L89170
$L89170:
  01fbe	73		 DB	 115			; 00000073H
  01fbf	74		 DB	 116			; 00000074H
  01fc0	72		 DB	 114			; 00000072H
  01fc1	45		 DB	 69			; 00000045H
  01fc2	78		 DB	 120			; 00000078H
  01fc3	65		 DB	 101			; 00000065H
  01fc4	00		 DB	 0
$L89169:
  01fc5	73		 DB	 115			; 00000073H
  01fc6	74		 DB	 116			; 00000074H
  01fc7	72		 DB	 114			; 00000072H
  01fc8	4e		 DB	 78			; 0000004eH
  01fc9	61		 DB	 97			; 00000061H
  01fca	6d		 DB	 109			; 0000006dH
  01fcb	65		 DB	 101			; 00000065H
  01fcc	00		 DB	 0
$L89168:
  01fcd	73		 DB	 115			; 00000073H
  01fce	74		 DB	 116			; 00000074H
  01fcf	72		 DB	 114			; 00000072H
  01fd0	44		 DB	 68			; 00000044H
  01fd1	69		 DB	 105			; 00000069H
  01fd2	72		 DB	 114			; 00000072H
  01fd3	4e		 DB	 78			; 0000004eH
  01fd4	61		 DB	 97			; 00000061H
  01fd5	6d		 DB	 109			; 0000006dH
  01fd6	65		 DB	 101			; 00000065H
  01fd7	00		 DB	 0
$L89167:
  01fd8	46		 DB	 70			; 00000046H
  01fd9	69		 DB	 105			; 00000069H
  01fda	6e		 DB	 110			; 0000006eH
  01fdb	64		 DB	 100			; 00000064H
  01fdc	46		 DB	 70			; 00000046H
  01fdd	69		 DB	 105			; 00000069H
  01fde	6c		 DB	 108			; 0000006cH
  01fdf	65		 DB	 101			; 00000065H
  01fe0	44		 DB	 68			; 00000044H
  01fe1	61		 DB	 97			; 00000061H
  01fe2	74		 DB	 116			; 00000074H
  01fe3	61		 DB	 97			; 00000061H
  01fe4	00		 DB	 0
_TEXT	ENDS
text$x	SEGMENT
$L89152:
  001fa	8b f4		 mov	 esi, esp
  001fc	8d 8d 84 fe ff
	ff		 lea	 ecx, DWORD PTR _strDirName$[ebp]
  00202	ff 15 00 00 00
	00		 call	 DWORD PTR __imp_??1?$basic_string@DU?$char_traits@D@std@@V?$allocator@D@2@@std@@QAE@XZ
  00208	3b f4		 cmp	 esi, esp
  0020a	e9 00 00 00 00	 jmp	 __RTC_CheckEsp
$L89153:
  0020f	8b f4		 mov	 esi, esp
  00211	8d 8d 14 fe ff
	ff		 lea	 ecx, DWORD PTR $T89139[ebp]
  00217	ff 15 00 00 00
	00		 call	 DWORD PTR __imp_??1?$basic_string@DU?$char_traits@D@std@@V?$allocator@D@2@@std@@QAE@XZ
  0021d	3b f4		 cmp	 esi, esp
  0021f	e9 00 00 00 00	 jmp	 __RTC_CheckEsp
$L89154:
  00224	8b f4		 mov	 esi, esp
  00226	8d 8d f8 fd ff
	ff		 lea	 ecx, DWORD PTR $T89140[ebp]
  0022c	ff 15 00 00 00
	00		 call	 DWORD PTR __imp_??1?$basic_string@DU?$char_traits@D@std@@V?$allocator@D@2@@std@@QAE@XZ
  00232	3b f4		 cmp	 esi, esp
  00234	e9 00 00 00 00	 jmp	 __RTC_CheckEsp
$L89155:
  00239	8b f4		 mov	 esi, esp
  0023b	8d 8d d8 fd ff
	ff		 lea	 ecx, DWORD PTR $T89142[ebp]
  00241	ff 15 00 00 00
	00		 call	 DWORD PTR __imp_??1?$basic_string@DU?$char_traits@D@std@@V?$allocator@D@2@@std@@QAE@XZ
  00247	3b f4		 cmp	 esi, esp
  00249	e9 00 00 00 00	 jmp	 __RTC_CheckEsp
$L89156:
  0024e	8b f4		 mov	 esi, esp
  00250	8d 8d bc fd ff
	ff		 lea	 ecx, DWORD PTR $T89143[ebp]
  00256	ff 15 00 00 00
	00		 call	 DWORD PTR __imp_??1?$basic_string@DU?$char_traits@D@std@@V?$allocator@D@2@@std@@QAE@XZ
  0025c	3b f4		 cmp	 esi, esp
  0025e	e9 00 00 00 00	 jmp	 __RTC_CheckEsp
$L89157:
  00263	8b f4		 mov	 esi, esp
  00265	8d 8d 60 fe ff
	ff		 lea	 ecx, DWORD PTR _strName$84068[ebp]
  0026b	ff 15 00 00 00
	00		 call	 DWORD PTR __imp_??1?$basic_string@DU?$char_traits@D@std@@V?$allocator@D@2@@std@@QAE@XZ
  00271	3b f4		 cmp	 esi, esp
  00273	e9 00 00 00 00	 jmp	 __RTC_CheckEsp
$L89158:
  00278	8b f4		 mov	 esi, esp
  0027a	8d 8d 3c fe ff
	ff		 lea	 ecx, DWORD PTR _strExe$84069[ebp]
  00280	ff 15 00 00 00
	00		 call	 DWORD PTR __imp_??1?$basic_string@DU?$char_traits@D@std@@V?$allocator@D@2@@std@@QAE@XZ
  00286	3b f4		 cmp	 esi, esp
  00288	e9 00 00 00 00	 jmp	 __RTC_CheckEsp
$L89159:
  0028d	8b f4		 mov	 esi, esp
  0028f	8d 8d a0 fd ff
	ff		 lea	 ecx, DWORD PTR $T89144[ebp]
  00295	ff 15 00 00 00
	00		 call	 DWORD PTR __imp_??1?$basic_string@DU?$char_traits@D@std@@V?$allocator@D@2@@std@@QAE@XZ
  0029b	3b f4		 cmp	 esi, esp
  0029d	e9 00 00 00 00	 jmp	 __RTC_CheckEsp
$L89160:
  002a2	8b f4		 mov	 esi, esp
  002a4	8d 8d 84 fd ff
	ff		 lea	 ecx, DWORD PTR $T89145[ebp]
  002aa	ff 15 00 00 00
	00		 call	 DWORD PTR __imp_??1?$basic_string@DU?$char_traits@D@std@@V?$allocator@D@2@@std@@QAE@XZ
  002b0	3b f4		 cmp	 esi, esp
  002b2	e9 00 00 00 00	 jmp	 __RTC_CheckEsp
$L89161:
  002b7	8b f4		 mov	 esi, esp
  002b9	8d 8d 68 fd ff
	ff		 lea	 ecx, DWORD PTR $T89146[ebp]
  002bf	ff 15 00 00 00
	00		 call	 DWORD PTR __imp_??1?$basic_string@DU?$char_traits@D@std@@V?$allocator@D@2@@std@@QAE@XZ
  002c5	3b f4		 cmp	 esi, esp
  002c7	e9 00 00 00 00	 jmp	 __RTC_CheckEsp
$L89162:
  002cc	8b f4		 mov	 esi, esp
  002ce	8d 8d 4c fd ff
	ff		 lea	 ecx, DWORD PTR $T89147[ebp]
  002d4	ff 15 00 00 00
	00		 call	 DWORD PTR __imp_??1?$basic_string@DU?$char_traits@D@std@@V?$allocator@D@2@@std@@QAE@XZ
  002da	3b f4		 cmp	 esi, esp
  002dc	e9 00 00 00 00	 jmp	 __RTC_CheckEsp
$L89163:
  002e1	8b f4		 mov	 esi, esp
  002e3	8d 8d 2c fd ff
	ff		 lea	 ecx, DWORD PTR $T89149[ebp]
  002e9	ff 15 00 00 00
	00		 call	 DWORD PTR __imp_??1?$basic_string@DU?$char_traits@D@std@@V?$allocator@D@2@@std@@QAE@XZ
  002ef	3b f4		 cmp	 esi, esp
  002f1	e9 00 00 00 00	 jmp	 __RTC_CheckEsp
$L89164:
  002f6	8b f4		 mov	 esi, esp
  002f8	8d 8d 10 fd ff
	ff		 lea	 ecx, DWORD PTR $T89150[ebp]
  002fe	ff 15 00 00 00
	00		 call	 DWORD PTR __imp_??1?$basic_string@DU?$char_traits@D@std@@V?$allocator@D@2@@std@@QAE@XZ
  00304	3b f4		 cmp	 esi, esp
  00306	e9 00 00 00 00	 jmp	 __RTC_CheckEsp
__ehhandler$?FindFileAndDir@YL_DirInfo@@SA_NABV?$basic_string@DU?$char_traits@D@std@@V?$allocator@D@2@@std@@PAV?$vector@V?$basic_string@DU?$char_traits@D@std@@V?$allocator@D@2@@std@@V?$allocator@V?$basic_string@DU?$char_traits@D@std@@V?$allocator@D@2@@std@@@2@@3@1_NPBV43@@Z:
  0030b	b8 00 00 00 00	 mov	 eax, OFFSET FLAT:$T89166
  00310	e9 00 00 00 00	 jmp	 ___CxxFrameHandler
text$x	ENDS
?FindFileAndDir@YL_DirInfo@@SA_NABV?$basic_string@DU?$char_traits@D@std@@V?$allocator@D@2@@std@@PAV?$vector@V?$basic_string@DU?$char_traits@D@std@@V?$allocator@D@2@@std@@V?$allocator@V?$basic_string@DU?$char_traits@D@std@@V?$allocator@D@2@@std@@@2@@3@1_NPBV43@@Z ENDP ; YL_DirInfo::FindFileAndDir
PUBLIC	?GetSubDirNames@YL_DirInfo@@SAXABV?$basic_string@DU?$char_traits@D@std@@V?$allocator@D@2@@std@@AAV?$vector@V?$basic_string@DU?$char_traits@D@std@@V?$allocator@D@2@@std@@V?$allocator@V?$basic_string@DU?$char_traits@D@std@@V?$allocator@D@2@@std@@@2@@3@@Z ; YL_DirInfo::GetSubDirNames
xdata$x	SEGMENT
$T89189	DD	0ffffffffH
	DD	FLAT:$L89180
	DD	0ffffffffH
	DD	FLAT:$L89181
$T89183	DD	019930520H
	DD	02H
	DD	FLAT:$T89189
	DD	2 DUP(00H)
	DD	2 DUP(00H)
; Function compile flags: /Odt /RTCsu
xdata$x	ENDS
_TEXT	SEGMENT
tv130 = -412						; size = 4
tv132 = -408						; size = 4
$T89179 = -404						; size = 28
$T89178 = -376						; size = 28
_hFind$ = -348						; size = 4
_FindFileData$ = -340					; size = 320
__$ArrayPad$ = -16					; size = 4
__$EHRec$ = -12						; size = 12
__$ReturnAddr$ = 4					; size = 4
_dir$ = 8						; size = 4
_f$ = 12						; size = 4
?GetSubDirNames@YL_DirInfo@@SAXABV?$basic_string@DU?$char_traits@D@std@@V?$allocator@D@2@@std@@AAV?$vector@V?$basic_string@DU?$char_traits@D@std@@V?$allocator@D@2@@std@@V?$allocator@V?$basic_string@DU?$char_traits@D@std@@V?$allocator@D@2@@std@@@2@@3@@Z PROC NEAR ; YL_DirInfo::GetSubDirNames

; 372  : {

  01ff0	55		 push	 ebp
  01ff1	8b ec		 mov	 ebp, esp
  01ff3	6a ff		 push	 -1
  01ff5	68 00 00 00 00	 push	 __ehhandler$?GetSubDirNames@YL_DirInfo@@SAXABV?$basic_string@DU?$char_traits@D@std@@V?$allocator@D@2@@std@@AAV?$vector@V?$basic_string@DU?$char_traits@D@std@@V?$allocator@D@2@@std@@V?$allocator@V?$basic_string@DU?$char_traits@D@std@@V?$allocator@D@2@@std@@@2@@3@@Z
  01ffa	64 a1 00 00 00
	00		 mov	 eax, DWORD PTR fs:__except_list
  02000	50		 push	 eax
  02001	64 89 25 00 00
	00 00		 mov	 DWORD PTR fs:__except_list, esp
  02008	81 ec 90 01 00
	00		 sub	 esp, 400		; 00000190H
  0200e	56		 push	 esi
  0200f	57		 push	 edi
  02010	8d bd 64 fe ff
	ff		 lea	 edi, DWORD PTR [ebp-412]
  02016	b9 64 00 00 00	 mov	 ecx, 100		; 00000064H
  0201b	b8 cc cc cc cc	 mov	 eax, -858993460		; ccccccccH
  02020	f3 ab		 rep stosd
  02022	a1 00 00 00 00	 mov	 eax, DWORD PTR ___security_cookie
  02027	89 45 f0	 mov	 DWORD PTR __$ArrayPad$[ebp], eax

; 373  : 	WIN32_FIND_DATA FindFileData;
; 374  : 	HANDLE hFind = INVALID_HANDLE_VALUE;

  0202a	c7 85 a4 fe ff
	ff ff ff ff ff	 mov	 DWORD PTR _hFind$[ebp], -1

; 375  : 
; 376  : 	//find a file
; 377  : 	hFind = FindFirstFile((dir + "\\*").c_str(), &FindFileData);

  02034	68 00 00 00 00	 push	 OFFSET FLAT:$SG84105
  02039	8b 45 08	 mov	 eax, DWORD PTR _dir$[ebp]
  0203c	50		 push	 eax
  0203d	8d 8d 88 fe ff
	ff		 lea	 ecx, DWORD PTR $T89178[ebp]
  02043	51		 push	 ecx
  02044	e8 00 00 00 00	 call	 ??$?HDU?$char_traits@D@std@@V?$allocator@D@1@@std@@YA?AV?$basic_string@DU?$char_traits@D@std@@V?$allocator@D@2@@0@ABV10@PBD@Z ; std::operator+<char,std::char_traits<char>,std::allocator<char> >
  02049	83 c4 0c	 add	 esp, 12			; 0000000cH
  0204c	89 85 68 fe ff
	ff		 mov	 DWORD PTR tv132[ebp], eax
  02052	8b 95 68 fe ff
	ff		 mov	 edx, DWORD PTR tv132[ebp]
  02058	89 95 64 fe ff
	ff		 mov	 DWORD PTR tv130[ebp], edx
  0205e	c7 45 fc 00 00
	00 00		 mov	 DWORD PTR __$EHRec$[ebp+8], 0
  02065	8b f4		 mov	 esi, esp
  02067	8d 85 ac fe ff
	ff		 lea	 eax, DWORD PTR _FindFileData$[ebp]
  0206d	50		 push	 eax
  0206e	8b fc		 mov	 edi, esp
  02070	8b 8d 64 fe ff
	ff		 mov	 ecx, DWORD PTR tv130[ebp]
  02076	ff 15 00 00 00
	00		 call	 DWORD PTR __imp_?c_str@?$basic_string@DU?$char_traits@D@std@@V?$allocator@D@2@@std@@QBEPBDXZ
  0207c	3b fc		 cmp	 edi, esp
  0207e	e8 00 00 00 00	 call	 __RTC_CheckEsp
  02083	50		 push	 eax
  02084	ff 15 00 00 00
	00		 call	 DWORD PTR __imp__FindFirstFileA@8
  0208a	3b f4		 cmp	 esi, esp
  0208c	e8 00 00 00 00	 call	 __RTC_CheckEsp
  02091	89 85 a4 fe ff
	ff		 mov	 DWORD PTR _hFind$[ebp], eax
  02097	c7 45 fc ff ff
	ff ff		 mov	 DWORD PTR __$EHRec$[ebp+8], -1
  0209e	8b f4		 mov	 esi, esp
  020a0	8d 8d 88 fe ff
	ff		 lea	 ecx, DWORD PTR $T89178[ebp]
  020a6	ff 15 00 00 00
	00		 call	 DWORD PTR __imp_??1?$basic_string@DU?$char_traits@D@std@@V?$allocator@D@2@@std@@QAE@XZ
  020ac	3b f4		 cmp	 esi, esp
  020ae	e8 00 00 00 00	 call	 __RTC_CheckEsp

; 378  : 	if(hFind == INVALID_HANDLE_VALUE)

  020b3	83 bd a4 fe ff
	ff ff		 cmp	 DWORD PTR _hFind$[ebp], -1
  020ba	75 05		 jne	 SHORT $L84109

; 379  : 	{
; 380  : 		return;

  020bc	e9 c5 00 00 00	 jmp	 $L84099
$L84109:

; 381  : 	}
; 382  : 	//find all files and dirs
; 383  : 	do{
; 384  : 		if (FindFileData.dwFileAttributes & FILE_ATTRIBUTE_DIRECTORY)

  020c1	8b 8d ac fe ff
	ff		 mov	 ecx, DWORD PTR _FindFileData$[ebp]
  020c7	83 e1 10	 and	 ecx, 16			; 00000010H
  020ca	74 7e		 je	 SHORT $L84110

; 385  : 		{
; 386  : 			if (strcmp(FindFileData.cFileName,".") != 0 && strcmp(FindFileData.cFileName,"..") != 0)			

  020cc	68 00 00 00 00	 push	 OFFSET FLAT:$SG84114
  020d1	8d 95 d8 fe ff
	ff		 lea	 edx, DWORD PTR _FindFileData$[ebp+44]
  020d7	52		 push	 edx
  020d8	e8 00 00 00 00	 call	 _strcmp
  020dd	83 c4 08	 add	 esp, 8
  020e0	85 c0		 test	 eax, eax
  020e2	74 66		 je	 SHORT $L84110
  020e4	68 00 00 00 00	 push	 OFFSET FLAT:$SG84115
  020e9	8d 85 d8 fe ff
	ff		 lea	 eax, DWORD PTR _FindFileData$[ebp+44]
  020ef	50		 push	 eax
  020f0	e8 00 00 00 00	 call	 _strcmp
  020f5	83 c4 08	 add	 esp, 8
  020f8	85 c0		 test	 eax, eax
  020fa	74 4e		 je	 SHORT $L84110

; 387  : 			{
; 388  : 				f.push_back(FindFileData.cFileName);

  020fc	8b f4		 mov	 esi, esp
  020fe	8d 8d d8 fe ff
	ff		 lea	 ecx, DWORD PTR _FindFileData$[ebp+44]
  02104	51		 push	 ecx
  02105	8d 8d 6c fe ff
	ff		 lea	 ecx, DWORD PTR $T89179[ebp]
  0210b	ff 15 00 00 00
	00		 call	 DWORD PTR __imp_??0?$basic_string@DU?$char_traits@D@std@@V?$allocator@D@2@@std@@QAE@PBD@Z
  02111	3b f4		 cmp	 esi, esp
  02113	e8 00 00 00 00	 call	 __RTC_CheckEsp
  02118	c7 45 fc 01 00
	00 00		 mov	 DWORD PTR __$EHRec$[ebp+8], 1
  0211f	8d 95 6c fe ff
	ff		 lea	 edx, DWORD PTR $T89179[ebp]
  02125	52		 push	 edx
  02126	8b 4d 0c	 mov	 ecx, DWORD PTR _f$[ebp]
  02129	e8 00 00 00 00	 call	 ?push_back@?$vector@V?$basic_string@DU?$char_traits@D@std@@V?$allocator@D@2@@std@@V?$allocator@V?$basic_string@DU?$char_traits@D@std@@V?$allocator@D@2@@std@@@2@@std@@QAEXABV?$basic_string@DU?$char_traits@D@std@@V?$allocator@D@2@@2@@Z ; std::vector<std::basic_string<char,std::char_traits<char>,std::allocator<char> >,std::allocator<std::basic_string<char,std::char_traits<char>,std::allocator<char> > > >::push_back
  0212e	c7 45 fc ff ff
	ff ff		 mov	 DWORD PTR __$EHRec$[ebp+8], -1
  02135	8b f4		 mov	 esi, esp
  02137	8d 8d 6c fe ff
	ff		 lea	 ecx, DWORD PTR $T89179[ebp]
  0213d	ff 15 00 00 00
	00		 call	 DWORD PTR __imp_??1?$basic_string@DU?$char_traits@D@std@@V?$allocator@D@2@@std@@QAE@XZ
  02143	3b f4		 cmp	 esi, esp
  02145	e8 00 00 00 00	 call	 __RTC_CheckEsp
$L84110:

; 389  : 			}
; 390  : 		}
; 391  : 	}while(FindNextFile(hFind, &FindFileData) == TRUE);

  0214a	8b f4		 mov	 esi, esp
  0214c	8d 85 ac fe ff
	ff		 lea	 eax, DWORD PTR _FindFileData$[ebp]
  02152	50		 push	 eax
  02153	8b 8d a4 fe ff
	ff		 mov	 ecx, DWORD PTR _hFind$[ebp]
  02159	51		 push	 ecx
  0215a	ff 15 00 00 00
	00		 call	 DWORD PTR __imp__FindNextFileA@8
  02160	3b f4		 cmp	 esi, esp
  02162	e8 00 00 00 00	 call	 __RTC_CheckEsp
  02167	83 f8 01	 cmp	 eax, 1
  0216a	0f 84 51 ff ff
	ff		 je	 $L84109

; 392  : 
; 393  : 	FindClose(hFind);

  02170	8b f4		 mov	 esi, esp
  02172	8b 95 a4 fe ff
	ff		 mov	 edx, DWORD PTR _hFind$[ebp]
  02178	52		 push	 edx
  02179	ff 15 00 00 00
	00		 call	 DWORD PTR __imp__FindClose@4
  0217f	3b f4		 cmp	 esi, esp
  02181	e8 00 00 00 00	 call	 __RTC_CheckEsp
$L84099:

; 394  : }

  02186	52		 push	 edx
  02187	8b cd		 mov	 ecx, ebp
  02189	50		 push	 eax
  0218a	8d 15 00 00 00
	00		 lea	 edx, DWORD PTR $L89188
  02190	e8 00 00 00 00	 call	 @_RTC_CheckStackVars@8
  02195	58		 pop	 eax
  02196	5a		 pop	 edx
  02197	8b 4d f4	 mov	 ecx, DWORD PTR __$EHRec$[ebp]
  0219a	64 89 0d 00 00
	00 00		 mov	 DWORD PTR fs:__except_list, ecx
  021a1	8b 4d f0	 mov	 ecx, DWORD PTR __$ArrayPad$[ebp]
  021a4	e8 00 00 00 00	 call	 @__security_check_cookie@4
  021a9	5f		 pop	 edi
  021aa	5e		 pop	 esi
  021ab	81 c4 9c 01 00
	00		 add	 esp, 412		; 0000019cH
  021b1	3b ec		 cmp	 ebp, esp
  021b3	e8 00 00 00 00	 call	 __RTC_CheckEsp
  021b8	8b e5		 mov	 esp, ebp
  021ba	5d		 pop	 ebp
  021bb	c3		 ret	 0
$L89188:
  021bc	01 00 00 00	 DD	 1
  021c0	00 00 00 00	 DD	 $L89187
$L89187:
  021c4	ac fe ff ff	 DD	 -340			; fffffeacH
  021c8	40 01 00 00	 DD	 320			; 00000140H
  021cc	00 00 00 00	 DD	 $L89184
$L89184:
  021d0	46		 DB	 70			; 00000046H
  021d1	69		 DB	 105			; 00000069H
  021d2	6e		 DB	 110			; 0000006eH
  021d3	64		 DB	 100			; 00000064H
  021d4	46		 DB	 70			; 00000046H
  021d5	69		 DB	 105			; 00000069H
  021d6	6c		 DB	 108			; 0000006cH
  021d7	65		 DB	 101			; 00000065H
  021d8	44		 DB	 68			; 00000044H
  021d9	61		 DB	 97			; 00000061H
  021da	74		 DB	 116			; 00000074H
  021db	61		 DB	 97			; 00000061H
  021dc	00		 DB	 0
_TEXT	ENDS
text$x	SEGMENT
$L89180:
  00315	8b f4		 mov	 esi, esp
  00317	8d 8d 88 fe ff
	ff		 lea	 ecx, DWORD PTR $T89178[ebp]
  0031d	ff 15 00 00 00
	00		 call	 DWORD PTR __imp_??1?$basic_string@DU?$char_traits@D@std@@V?$allocator@D@2@@std@@QAE@XZ
  00323	3b f4		 cmp	 esi, esp
  00325	e9 00 00 00 00	 jmp	 __RTC_CheckEsp
$L89181:
  0032a	8b f4		 mov	 esi, esp
  0032c	8d 8d 6c fe ff
	ff		 lea	 ecx, DWORD PTR $T89179[ebp]
  00332	ff 15 00 00 00
	00		 call	 DWORD PTR __imp_??1?$basic_string@DU?$char_traits@D@std@@V?$allocator@D@2@@std@@QAE@XZ
  00338	3b f4		 cmp	 esi, esp
  0033a	e9 00 00 00 00	 jmp	 __RTC_CheckEsp
__ehhandler$?GetSubDirNames@YL_DirInfo@@SAXABV?$basic_string@DU?$char_traits@D@std@@V?$allocator@D@2@@std@@AAV?$vector@V?$basic_string@DU?$char_traits@D@std@@V?$allocator@D@2@@std@@V?$allocator@V?$basic_string@DU?$char_traits@D@std@@V?$allocator@D@2@@std@@@2@@3@@Z:
  0033f	b8 00 00 00 00	 mov	 eax, OFFSET FLAT:$T89183
  00344	e9 00 00 00 00	 jmp	 ___CxxFrameHandler
text$x	ENDS
?GetSubDirNames@YL_DirInfo@@SAXABV?$basic_string@DU?$char_traits@D@std@@V?$allocator@D@2@@std@@AAV?$vector@V?$basic_string@DU?$char_traits@D@std@@V?$allocator@D@2@@std@@V?$allocator@V?$basic_string@DU?$char_traits@D@std@@V?$allocator@D@2@@std@@@2@@3@@Z ENDP ; YL_DirInfo::GetSubDirNames
PUBLIC	?GetDiskNames@YL_DirInfo@@SA_NAAV?$vector@V?$basic_string@DU?$char_traits@D@std@@V?$allocator@D@2@@std@@V?$allocator@V?$basic_string@DU?$char_traits@D@std@@V?$allocator@D@2@@std@@@2@@std@@@Z ; YL_DirInfo::GetDiskNames
EXTRN	??3@YAXPAX@Z:NEAR				; operator delete
EXTRN	__imp__GetLogicalDriveStringsA@8:NEAR
EXTRN	??_U@YAPAXI@Z:NEAR				; operator new[]
EXTRN	__imp__GetDriveTypeA@4:NEAR
xdata$x	SEGMENT
$T89201	DD	0ffffffffH
	DD	FLAT:$L89194
$T89196	DD	019930520H
	DD	01H
	DD	FLAT:$T89201
	DD	2 DUP(00H)
	DD	2 DUP(00H)
; Function compile flags: /Odt /RTCsu
xdata$x	ENDS
_TEXT	SEGMENT
$T89193 = -80						; size = 4
$T89192 = -76						; size = 28
$T89191 = -48						; size = 4
_DType$84132 = -44					; size = 4
_dir$84131 = -36					; size = 4
_i$84127 = -28						; size = 4
_si$ = -24						; size = 4
_DStr$ = -20						; size = 4
_DSLength$ = -16					; size = 4
__$EHRec$ = -12						; size = 12
_vDisk$ = 8						; size = 4
?GetDiskNames@YL_DirInfo@@SA_NAAV?$vector@V?$basic_string@DU?$char_traits@D@std@@V?$allocator@D@2@@std@@V?$allocator@V?$basic_string@DU?$char_traits@D@std@@V?$allocator@D@2@@std@@@2@@std@@@Z PROC NEAR ; YL_DirInfo::GetDiskNames

; 397  : {

  021e0	55		 push	 ebp
  021e1	8b ec		 mov	 ebp, esp
  021e3	6a ff		 push	 -1
  021e5	68 00 00 00 00	 push	 __ehhandler$?GetDiskNames@YL_DirInfo@@SA_NAAV?$vector@V?$basic_string@DU?$char_traits@D@std@@V?$allocator@D@2@@std@@V?$allocator@V?$basic_string@DU?$char_traits@D@std@@V?$allocator@D@2@@std@@@2@@std@@@Z
  021ea	64 a1 00 00 00
	00		 mov	 eax, DWORD PTR fs:__except_list
  021f0	50		 push	 eax
  021f1	64 89 25 00 00
	00 00		 mov	 DWORD PTR fs:__except_list, esp
  021f8	83 ec 44	 sub	 esp, 68			; 00000044H
  021fb	56		 push	 esi
  021fc	57		 push	 edi
  021fd	8d 7d b0	 lea	 edi, DWORD PTR [ebp-80]
  02200	b9 11 00 00 00	 mov	 ecx, 17			; 00000011H
  02205	b8 cc cc cc cc	 mov	 eax, -858993460		; ccccccccH
  0220a	f3 ab		 rep stosd

; 398  :     int DSLength = GetLogicalDriveStrings(0, NULL);

  0220c	8b f4		 mov	 esi, esp
  0220e	6a 00		 push	 0
  02210	6a 00		 push	 0
  02212	ff 15 00 00 00
	00		 call	 DWORD PTR __imp__GetLogicalDriveStringsA@8
  02218	3b f4		 cmp	 esi, esp
  0221a	e8 00 00 00 00	 call	 __RTC_CheckEsp
  0221f	89 45 f0	 mov	 DWORD PTR _DSLength$[ebp], eax

; 399  :     //GetLogicalDriveStrings()
; 400  : 
; 401  :     char* DStr = new char[DSLength];//c

  02222	8b 45 f0	 mov	 eax, DWORD PTR _DSLength$[ebp]
  02225	50		 push	 eax
  02226	e8 00 00 00 00	 call	 ??_U@YAPAXI@Z		; operator new[]
  0222b	83 c4 04	 add	 esp, 4
  0222e	89 45 d0	 mov	 DWORD PTR $T89191[ebp], eax
  02231	8b 4d d0	 mov	 ecx, DWORD PTR $T89191[ebp]
  02234	89 4d ec	 mov	 DWORD PTR _DStr$[ebp], ecx

; 402  :     GetLogicalDriveStrings(DSLength, (LPTSTR)DStr);

  02237	8b f4		 mov	 esi, esp
  02239	8b 55 ec	 mov	 edx, DWORD PTR _DStr$[ebp]
  0223c	52		 push	 edx
  0223d	8b 45 f0	 mov	 eax, DWORD PTR _DSLength$[ebp]
  02240	50		 push	 eax
  02241	ff 15 00 00 00
	00		 call	 DWORD PTR __imp__GetLogicalDriveStringsA@8
  02247	3b f4		 cmp	 esi, esp
  02249	e8 00 00 00 00	 call	 __RTC_CheckEsp

; 403  :     //GetLogicalDriveStrings,
; 404  :     int si=0;

  0224e	c7 45 e8 00 00
	00 00		 mov	 DWORD PTR _si$[ebp], 0

; 405  :     for (int i = 0; i < DSLength/4; ++i)

  02255	c7 45 e4 00 00
	00 00		 mov	 DWORD PTR _i$84127[ebp], 0
  0225c	eb 09		 jmp	 SHORT $L84128
$L84129:
  0225e	8b 4d e4	 mov	 ecx, DWORD PTR _i$84127[ebp]
  02261	83 c1 01	 add	 ecx, 1
  02264	89 4d e4	 mov	 DWORD PTR _i$84127[ebp], ecx
$L84128:
  02267	8b 45 f0	 mov	 eax, DWORD PTR _DSLength$[ebp]
  0226a	99		 cdq
  0226b	83 e2 03	 and	 edx, 3
  0226e	03 c2		 add	 eax, edx
  02270	c1 f8 02	 sar	 eax, 2
  02273	39 45 e4	 cmp	 DWORD PTR _i$84127[ebp], eax
  02276	0f 8d 89 00 00
	00		 jge	 $L84130

; 406  :     //DStrA:\NULLB:\NULLC:\NULLDSLength/4
; 407  :     {
; 408  :         char dir[4]={DStr[si],':','\\','\0'};

  0227c	8b 55 ec	 mov	 edx, DWORD PTR _DStr$[ebp]
  0227f	03 55 e8	 add	 edx, DWORD PTR _si$[ebp]
  02282	8a 02		 mov	 al, BYTE PTR [edx]
  02284	88 45 dc	 mov	 BYTE PTR _dir$84131[ebp], al
  02287	c6 45 dd 3a	 mov	 BYTE PTR _dir$84131[ebp+1], 58 ; 0000003aH
  0228b	c6 45 de 5c	 mov	 BYTE PTR _dir$84131[ebp+2], 92 ; 0000005cH
  0228f	c6 45 df 00	 mov	 BYTE PTR _dir$84131[ebp+3], 0

; 409  :         int DType = GetDriveType(DStr+i*4);

  02293	8b 4d e4	 mov	 ecx, DWORD PTR _i$84127[ebp]
  02296	8b 55 ec	 mov	 edx, DWORD PTR _DStr$[ebp]
  02299	8d 04 8a	 lea	 eax, DWORD PTR [edx+ecx*4]
  0229c	8b f4		 mov	 esi, esp
  0229e	50		 push	 eax
  0229f	ff 15 00 00 00
	00		 call	 DWORD PTR __imp__GetDriveTypeA@4
  022a5	3b f4		 cmp	 esi, esp
  022a7	e8 00 00 00 00	 call	 __RTC_CheckEsp
  022ac	89 45 d4	 mov	 DWORD PTR _DType$84132[ebp], eax

; 410  :         //GetDriveType
; 411  :         if (DType == DRIVE_FIXED)//

  022af	83 7d d4 03	 cmp	 DWORD PTR _DType$84132[ebp], 3
  022b3	75 42		 jne	 SHORT $L84135

; 412  :         {
; 413  : 			vDisk.push_back(dir);

  022b5	8b f4		 mov	 esi, esp
  022b7	8d 4d dc	 lea	 ecx, DWORD PTR _dir$84131[ebp]
  022ba	51		 push	 ecx
  022bb	8d 4d b4	 lea	 ecx, DWORD PTR $T89192[ebp]
  022be	ff 15 00 00 00
	00		 call	 DWORD PTR __imp_??0?$basic_string@DU?$char_traits@D@std@@V?$allocator@D@2@@std@@QAE@PBD@Z
  022c4	3b f4		 cmp	 esi, esp
  022c6	e8 00 00 00 00	 call	 __RTC_CheckEsp
  022cb	c7 45 fc 00 00
	00 00		 mov	 DWORD PTR __$EHRec$[ebp+8], 0
  022d2	8d 55 b4	 lea	 edx, DWORD PTR $T89192[ebp]
  022d5	52		 push	 edx
  022d6	8b 4d 08	 mov	 ecx, DWORD PTR _vDisk$[ebp]
  022d9	e8 00 00 00 00	 call	 ?push_back@?$vector@V?$basic_string@DU?$char_traits@D@std@@V?$allocator@D@2@@std@@V?$allocator@V?$basic_string@DU?$char_traits@D@std@@V?$allocator@D@2@@std@@@2@@std@@QAEXABV?$basic_string@DU?$char_traits@D@std@@V?$allocator@D@2@@2@@Z ; std::vector<std::basic_string<char,std::char_traits<char>,std::allocator<char> >,std::allocator<std::basic_string<char,std::char_traits<char>,std::allocator<char> > > >::push_back
  022de	c7 45 fc ff ff
	ff ff		 mov	 DWORD PTR __$EHRec$[ebp+8], -1
  022e5	8b f4		 mov	 esi, esp
  022e7	8d 4d b4	 lea	 ecx, DWORD PTR $T89192[ebp]
  022ea	ff 15 00 00 00
	00		 call	 DWORD PTR __imp_??1?$basic_string@DU?$char_traits@D@std@@V?$allocator@D@2@@std@@QAE@XZ
  022f0	3b f4		 cmp	 esi, esp
  022f2	e8 00 00 00 00	 call	 __RTC_CheckEsp
$L84135:

; 414  :         }
; 415  :         else if (DType == DRIVE_CDROM)//
; 416  :         {
; 417  :         }
; 418  :         else if (DType == DRIVE_REMOVABLE)//
; 419  :         {
; 420  :         }
; 421  :         else if (DType == DRIVE_REMOTE)//
; 422  :         {
; 423  :         }
; 424  :         else if (DType == DRIVE_RAMDISK)//RAM
; 425  :         {
; 426  :         }
; 427  :         else if (DType == DRIVE_UNKNOWN)//
; 428  :         {
; 429  :         }
; 430  :         si += 4;

  022f7	8b 45 e8	 mov	 eax, DWORD PTR _si$[ebp]
  022fa	83 c0 04	 add	 eax, 4
  022fd	89 45 e8	 mov	 DWORD PTR _si$[ebp], eax

; 431  :     }

  02300	e9 59 ff ff ff	 jmp	 $L84129
$L84130:

; 432  : 	delete DStr;

  02305	8b 4d ec	 mov	 ecx, DWORD PTR _DStr$[ebp]
  02308	89 4d b0	 mov	 DWORD PTR $T89193[ebp], ecx
  0230b	8b 55 b0	 mov	 edx, DWORD PTR $T89193[ebp]
  0230e	52		 push	 edx
  0230f	e8 00 00 00 00	 call	 ??3@YAXPAX@Z		; operator delete
  02314	83 c4 04	 add	 esp, 4

; 433  : 	return true;

  02317	b0 01		 mov	 al, 1

; 434  : }

  02319	52		 push	 edx
  0231a	8b cd		 mov	 ecx, ebp
  0231c	50		 push	 eax
  0231d	8d 15 00 00 00
	00		 lea	 edx, DWORD PTR $L89200
  02323	e8 00 00 00 00	 call	 @_RTC_CheckStackVars@8
  02328	58		 pop	 eax
  02329	5a		 pop	 edx
  0232a	8b 4d f4	 mov	 ecx, DWORD PTR __$EHRec$[ebp]
  0232d	64 89 0d 00 00
	00 00		 mov	 DWORD PTR fs:__except_list, ecx
  02334	5f		 pop	 edi
  02335	5e		 pop	 esi
  02336	83 c4 50	 add	 esp, 80			; 00000050H
  02339	3b ec		 cmp	 ebp, esp
  0233b	e8 00 00 00 00	 call	 __RTC_CheckEsp
  02340	8b e5		 mov	 esp, ebp
  02342	5d		 pop	 ebp
  02343	c3		 ret	 0
$L89200:
  02344	01 00 00 00	 DD	 1
  02348	00 00 00 00	 DD	 $L89199
$L89199:
  0234c	dc ff ff ff	 DD	 -36			; ffffffdcH
  02350	04 00 00 00	 DD	 4
  02354	00 00 00 00	 DD	 $L89197
$L89197:
  02358	64		 DB	 100			; 00000064H
  02359	69		 DB	 105			; 00000069H
  0235a	72		 DB	 114			; 00000072H
  0235b	00		 DB	 0
_TEXT	ENDS
text$x	SEGMENT
$L89194:
  00349	8b f4		 mov	 esi, esp
  0034b	8d 4d b4	 lea	 ecx, DWORD PTR $T89192[ebp]
  0034e	ff 15 00 00 00
	00		 call	 DWORD PTR __imp_??1?$basic_string@DU?$char_traits@D@std@@V?$allocator@D@2@@std@@QAE@XZ
  00354	3b f4		 cmp	 esi, esp
  00356	e9 00 00 00 00	 jmp	 __RTC_CheckEsp
__ehhandler$?GetDiskNames@YL_DirInfo@@SA_NAAV?$vector@V?$basic_string@DU?$char_traits@D@std@@V?$allocator@D@2@@std@@V?$allocator@V?$basic_string@DU?$char_traits@D@std@@V?$allocator@D@2@@std@@@2@@std@@@Z:
  0035b	b8 00 00 00 00	 mov	 eax, OFFSET FLAT:$T89196
  00360	e9 00 00 00 00	 jmp	 ___CxxFrameHandler
text$x	ENDS
?GetDiskNames@YL_DirInfo@@SA_NAAV?$vector@V?$basic_string@DU?$char_traits@D@std@@V?$allocator@D@2@@std@@V?$allocator@V?$basic_string@DU?$char_traits@D@std@@V?$allocator@D@2@@std@@@2@@std@@@Z ENDP ; YL_DirInfo::GetDiskNames
PUBLIC	??9const_iterator@?$vector@V?$basic_string@DU?$char_traits@D@std@@V?$allocator@D@2@@std@@V?$allocator@V?$basic_string@DU?$char_traits@D@std@@V?$allocator@D@2@@std@@@2@@std@@QBE_NABV012@@Z ; std::vector<std::basic_string<char,std::char_traits<char>,std::allocator<char> >,std::allocator<std::basic_string<char,std::char_traits<char>,std::allocator<char> > > >::const_iterator::operator!=
PUBLIC	??Diterator@?$vector@V?$basic_string@DU?$char_traits@D@std@@V?$allocator@D@2@@std@@V?$allocator@V?$basic_string@DU?$char_traits@D@std@@V?$allocator@D@2@@std@@@2@@std@@QBEAAV?$basic_string@DU?$char_traits@D@std@@V?$allocator@D@2@@2@XZ ; std::vector<std::basic_string<char,std::char_traits<char>,std::allocator<char> >,std::allocator<std::basic_string<char,std::char_traits<char>,std::allocator<char> > > >::iterator::operator*
PUBLIC	??Citerator@?$vector@V?$basic_string@DU?$char_traits@D@std@@V?$allocator@D@2@@std@@V?$allocator@V?$basic_string@DU?$char_traits@D@std@@V?$allocator@D@2@@std@@@2@@std@@QBEPAV?$basic_string@DU?$char_traits@D@std@@V?$allocator@D@2@@2@XZ ; std::vector<std::basic_string<char,std::char_traits<char>,std::allocator<char> >,std::allocator<std::basic_string<char,std::char_traits<char>,std::allocator<char> > > >::iterator::operator->
PUBLIC	??Eiterator@?$vector@V?$basic_string@DU?$char_traits@D@std@@V?$allocator@D@2@@std@@V?$allocator@V?$basic_string@DU?$char_traits@D@std@@V?$allocator@D@2@@std@@@2@@std@@QAE?AV012@H@Z ; std::vector<std::basic_string<char,std::char_traits<char>,std::allocator<char> >,std::allocator<std::basic_string<char,std::char_traits<char>,std::allocator<char> > > >::iterator::operator++
PUBLIC	?GetLargestFreeBytesDisk@YL_DirInfo@@SA_NAAV?$basic_string@DU?$char_traits@D@std@@V?$allocator@D@2@@std@@@Z ; YL_DirInfo::GetLargestFreeBytesDisk
PUBLIC	?begin@?$vector@V?$basic_string@DU?$char_traits@D@std@@V?$allocator@D@2@@std@@V?$allocator@V?$basic_string@DU?$char_traits@D@std@@V?$allocator@D@2@@std@@@2@@std@@QAE?AViterator@12@XZ ; std::vector<std::basic_string<char,std::char_traits<char>,std::allocator<char> >,std::allocator<std::basic_string<char,std::char_traits<char>,std::allocator<char> > > >::begin
PUBLIC	?end@?$vector@V?$basic_string@DU?$char_traits@D@std@@V?$allocator@D@2@@std@@V?$allocator@V?$basic_string@DU?$char_traits@D@std@@V?$allocator@D@2@@std@@@2@@std@@QAE?AViterator@12@XZ ; std::vector<std::basic_string<char,std::char_traits<char>,std::allocator<char> >,std::allocator<std::basic_string<char,std::char_traits<char>,std::allocator<char> > > >::end
EXTRN	__imp__GetDiskFreeSpaceExA@16:NEAR
xdata$x	SEGMENT
$T89220	DD	0ffffffffH
	DD	FLAT:$L89208
$T89210	DD	019930520H
	DD	01H
	DD	FLAT:$T89220
	DD	2 DUP(00H)
	DD	2 DUP(00H)
; Function compile flags: /Odt /RTCsu
xdata$x	ENDS
_TEXT	SEGMENT
$T89207 = -122						; size = 1
$T89206 = -121						; size = 1
$T89205 = -120						; size = 4
$T89204 = -116						; size = 4
$T89203 = -109						; size = 1
_fResult$84281 = -108					; size = 4
_i64FreeBytes$84280 = -100				; size = 8
_i64TotalBytes$84279 = -84				; size = 8
_i64FreeBytesToCaller$84278 = -68			; size = 8
_it1$84271 = -52					; size = 4
_i64LargestFreeBytes$ = -44				; size = 8
_vDisk$ = -32						; size = 16
__$EHRec$ = -12						; size = 12
_strDisk$ = 8						; size = 4
?GetLargestFreeBytesDisk@YL_DirInfo@@SA_NAAV?$basic_string@DU?$char_traits@D@std@@V?$allocator@D@2@@std@@@Z PROC NEAR ; YL_DirInfo::GetLargestFreeBytesDisk

; 437  : {

  02360	55		 push	 ebp
  02361	8b ec		 mov	 ebp, esp
  02363	6a ff		 push	 -1
  02365	68 00 00 00 00	 push	 __ehhandler$?GetLargestFreeBytesDisk@YL_DirInfo@@SA_NAAV?$basic_string@DU?$char_traits@D@std@@V?$allocator@D@2@@std@@@Z
  0236a	64 a1 00 00 00
	00		 mov	 eax, DWORD PTR fs:__except_list
  02370	50		 push	 eax
  02371	64 89 25 00 00
	00 00		 mov	 DWORD PTR fs:__except_list, esp
  02378	83 ec 70	 sub	 esp, 112		; 00000070H
  0237b	56		 push	 esi
  0237c	57		 push	 edi
  0237d	8d 7d 84	 lea	 edi, DWORD PTR [ebp-124]
  02380	b9 1c 00 00 00	 mov	 ecx, 28			; 0000001cH
  02385	b8 cc cc cc cc	 mov	 eax, -858993460		; ccccccccH
  0238a	f3 ab		 rep stosd

; 438  : 	vector<string> vDisk;

  0238c	8d 4d e0	 lea	 ecx, DWORD PTR _vDisk$[ebp]
  0238f	e8 00 00 00 00	 call	 ??0?$vector@V?$basic_string@DU?$char_traits@D@std@@V?$allocator@D@2@@std@@V?$allocator@V?$basic_string@DU?$char_traits@D@std@@V?$allocator@D@2@@std@@@2@@std@@QAE@XZ ; std::vector<std::basic_string<char,std::char_traits<char>,std::allocator<char> >,std::allocator<std::basic_string<char,std::char_traits<char>,std::allocator<char> > > >::vector<std::basic_string<char,std::char_traits<char>,std::allocator<char> >,std::allocator<std::basic_string<char,std::char_traits<char>,std::allocator<char> > > >
  02394	c7 45 fc 00 00
	00 00		 mov	 DWORD PTR __$EHRec$[ebp+8], 0

; 439  : 	if( !GetDiskNames(vDisk) )

  0239b	8d 45 e0	 lea	 eax, DWORD PTR _vDisk$[ebp]
  0239e	50		 push	 eax
  0239f	e8 00 00 00 00	 call	 ?GetDiskNames@YL_DirInfo@@SA_NAAV?$vector@V?$basic_string@DU?$char_traits@D@std@@V?$allocator@D@2@@std@@V?$allocator@V?$basic_string@DU?$char_traits@D@std@@V?$allocator@D@2@@std@@@2@@std@@@Z ; YL_DirInfo::GetDiskNames
  023a4	83 c4 04	 add	 esp, 4
  023a7	0f b6 c8	 movzx	 ecx, al
  023aa	85 c9		 test	 ecx, ecx
  023ac	75 1b		 jne	 SHORT $L84151

; 440  : 		return false;

  023ae	c6 45 93 00	 mov	 BYTE PTR $T89203[ebp], 0
  023b2	c7 45 fc ff ff
	ff ff		 mov	 DWORD PTR __$EHRec$[ebp+8], -1
  023b9	8d 4d e0	 lea	 ecx, DWORD PTR _vDisk$[ebp]
  023bc	e8 00 00 00 00	 call	 ??1?$vector@V?$basic_string@DU?$char_traits@D@std@@V?$allocator@D@2@@std@@V?$allocator@V?$basic_string@DU?$char_traits@D@std@@V?$allocator@D@2@@std@@@2@@std@@QAE@XZ ; std::vector<std::basic_string<char,std::char_traits<char>,std::allocator<char> >,std::allocator<std::basic_string<char,std::char_traits<char>,std::allocator<char> > > >::~vector<std::basic_string<char,std::char_traits<char>,std::allocator<char> >,std::allocator<std::basic_string<char,std::char_traits<char>,std::allocator<char> > > >
  023c1	8a 45 93	 mov	 al, BYTE PTR $T89203[ebp]
  023c4	e9 f8 00 00 00	 jmp	 $L84148
$L84151:

; 441  : 
; 442  : 	ULONGLONG i64LargestFreeBytes = 0;

  023c9	c7 45 d4 00 00
	00 00		 mov	 DWORD PTR _i64LargestFreeBytes$[ebp], 0
  023d0	c7 45 d8 00 00
	00 00		 mov	 DWORD PTR _i64LargestFreeBytes$[ebp+4], 0

; 443  : 	for( vector<string>::iterator it1 = vDisk.begin(); it1 != vDisk.end(); it1++ )

  023d7	8d 55 cc	 lea	 edx, DWORD PTR _it1$84271[ebp]
  023da	52		 push	 edx
  023db	8d 4d e0	 lea	 ecx, DWORD PTR _vDisk$[ebp]
  023de	e8 00 00 00 00	 call	 ?begin@?$vector@V?$basic_string@DU?$char_traits@D@std@@V?$allocator@D@2@@std@@V?$allocator@V?$basic_string@DU?$char_traits@D@std@@V?$allocator@D@2@@std@@@2@@std@@QAE?AViterator@12@XZ ; std::vector<std::basic_string<char,std::char_traits<char>,std::allocator<char> >,std::allocator<std::basic_string<char,std::char_traits<char>,std::allocator<char> > > >::begin
  023e3	eb 0e		 jmp	 SHORT $L84275
$L84276:
  023e5	6a 00		 push	 0
  023e7	8d 45 8c	 lea	 eax, DWORD PTR $T89204[ebp]
  023ea	50		 push	 eax
  023eb	8d 4d cc	 lea	 ecx, DWORD PTR _it1$84271[ebp]
  023ee	e8 00 00 00 00	 call	 ??Eiterator@?$vector@V?$basic_string@DU?$char_traits@D@std@@V?$allocator@D@2@@std@@V?$allocator@V?$basic_string@DU?$char_traits@D@std@@V?$allocator@D@2@@std@@@2@@std@@QAE?AV012@H@Z ; std::vector<std::basic_string<char,std::char_traits<char>,std::allocator<char> >,std::allocator<std::basic_string<char,std::char_traits<char>,std::allocator<char> > > >::iterator::operator++
$L84275:
  023f3	8d 4d 88	 lea	 ecx, DWORD PTR $T89205[ebp]
  023f6	51		 push	 ecx
  023f7	8d 4d e0	 lea	 ecx, DWORD PTR _vDisk$[ebp]
  023fa	e8 00 00 00 00	 call	 ?end@?$vector@V?$basic_string@DU?$char_traits@D@std@@V?$allocator@D@2@@std@@V?$allocator@V?$basic_string@DU?$char_traits@D@std@@V?$allocator@D@2@@std@@@2@@std@@QAE?AViterator@12@XZ ; std::vector<std::basic_string<char,std::char_traits<char>,std::allocator<char> >,std::allocator<std::basic_string<char,std::char_traits<char>,std::allocator<char> > > >::end
  023ff	50		 push	 eax
  02400	8d 4d cc	 lea	 ecx, DWORD PTR _it1$84271[ebp]
  02403	e8 00 00 00 00	 call	 ??9const_iterator@?$vector@V?$basic_string@DU?$char_traits@D@std@@V?$allocator@D@2@@std@@V?$allocator@V?$basic_string@DU?$char_traits@D@std@@V?$allocator@D@2@@std@@@2@@std@@QBE_NABV012@@Z ; std::vector<std::basic_string<char,std::char_traits<char>,std::allocator<char> >,std::allocator<std::basic_string<char,std::char_traits<char>,std::allocator<char> > > >::const_iterator::operator!=
  02408	0f b6 d0	 movzx	 edx, al
  0240b	85 d2		 test	 edx, edx
  0240d	74 7c		 je	 SHORT $L84277

; 444  : 	{
; 445  : 		ULONGLONG i64FreeBytesToCaller, i64TotalBytes, i64FreeBytes;
; 446  : 		BOOL fResult = GetDiskFreeSpaceEx (
; 447  : 						it1->c_str(),
; 448  : 						(PULARGE_INTEGER)&i64FreeBytesToCaller,
; 449  : 						(PULARGE_INTEGER)&i64TotalBytes,
; 450  : 						(PULARGE_INTEGER)&i64FreeBytes);

  0240f	8b f4		 mov	 esi, esp
  02411	8d 45 9c	 lea	 eax, DWORD PTR _i64FreeBytes$84280[ebp]
  02414	50		 push	 eax
  02415	8d 4d ac	 lea	 ecx, DWORD PTR _i64TotalBytes$84279[ebp]
  02418	51		 push	 ecx
  02419	8d 55 bc	 lea	 edx, DWORD PTR _i64FreeBytesToCaller$84278[ebp]
  0241c	52		 push	 edx
  0241d	8d 4d cc	 lea	 ecx, DWORD PTR _it1$84271[ebp]
  02420	e8 00 00 00 00	 call	 ??Citerator@?$vector@V?$basic_string@DU?$char_traits@D@std@@V?$allocator@D@2@@std@@V?$allocator@V?$basic_string@DU?$char_traits@D@std@@V?$allocator@D@2@@std@@@2@@std@@QBEPAV?$basic_string@DU?$char_traits@D@std@@V?$allocator@D@2@@2@XZ ; std::vector<std::basic_string<char,std::char_traits<char>,std::allocator<char> >,std::allocator<std::basic_string<char,std::char_traits<char>,std::allocator<char> > > >::iterator::operator->
  02425	8b fc		 mov	 edi, esp
  02427	8b c8		 mov	 ecx, eax
  02429	ff 15 00 00 00
	00		 call	 DWORD PTR __imp_?c_str@?$basic_string@DU?$char_traits@D@std@@V?$allocator@D@2@@std@@QBEPBDXZ
  0242f	3b fc		 cmp	 edi, esp
  02431	e8 00 00 00 00	 call	 __RTC_CheckEsp
  02436	50		 push	 eax
  02437	ff 15 00 00 00
	00		 call	 DWORD PTR __imp__GetDiskFreeSpaceExA@16
  0243d	3b f4		 cmp	 esi, esp
  0243f	e8 00 00 00 00	 call	 __RTC_CheckEsp
  02444	89 45 94	 mov	 DWORD PTR _fResult$84281[ebp], eax

; 451  : 		//GetDiskFreeSpaceEx,BOOL
; 452  : 		if (fResult)//BOOL

  02447	83 7d 94 00	 cmp	 DWORD PTR _fResult$84281[ebp], 0
  0244b	74 39		 je	 SHORT $L84287

; 453  : 		{
; 454  : 			if( i64LargestFreeBytes < i64FreeBytes )

  0244d	8b 45 d8	 mov	 eax, DWORD PTR _i64LargestFreeBytes$[ebp+4]
  02450	3b 45 a0	 cmp	 eax, DWORD PTR _i64FreeBytes$84280[ebp+4]
  02453	77 31		 ja	 SHORT $L84287
  02455	72 08		 jb	 SHORT $L89211
  02457	8b 4d d4	 mov	 ecx, DWORD PTR _i64LargestFreeBytes$[ebp]
  0245a	3b 4d 9c	 cmp	 ecx, DWORD PTR _i64FreeBytes$84280[ebp]
  0245d	73 27		 jae	 SHORT $L84287
$L89211:

; 455  : 			{
; 456  : 				i64LargestFreeBytes = i64FreeBytes;

  0245f	8b 55 9c	 mov	 edx, DWORD PTR _i64FreeBytes$84280[ebp]
  02462	89 55 d4	 mov	 DWORD PTR _i64LargestFreeBytes$[ebp], edx
  02465	8b 45 a0	 mov	 eax, DWORD PTR _i64FreeBytes$84280[ebp+4]
  02468	89 45 d8	 mov	 DWORD PTR _i64LargestFreeBytes$[ebp+4], eax

; 457  : 				strDisk = *it1;

  0246b	8d 4d cc	 lea	 ecx, DWORD PTR _it1$84271[ebp]
  0246e	e8 00 00 00 00	 call	 ??Diterator@?$vector@V?$basic_string@DU?$char_traits@D@std@@V?$allocator@D@2@@std@@V?$allocator@V?$basic_string@DU?$char_traits@D@std@@V?$allocator@D@2@@std@@@2@@std@@QBEAAV?$basic_string@DU?$char_traits@D@std@@V?$allocator@D@2@@2@XZ ; std::vector<std::basic_string<char,std::char_traits<char>,std::allocator<char> >,std::allocator<std::basic_string<char,std::char_traits<char>,std::allocator<char> > > >::iterator::operator*
  02473	8b f4		 mov	 esi, esp
  02475	50		 push	 eax
  02476	8b 4d 08	 mov	 ecx, DWORD PTR _strDisk$[ebp]
  02479	ff 15 00 00 00
	00		 call	 DWORD PTR __imp_??4?$basic_string@DU?$char_traits@D@std@@V?$allocator@D@2@@std@@QAEAAV01@ABV01@@Z
  0247f	3b f4		 cmp	 esi, esp
  02481	e8 00 00 00 00	 call	 __RTC_CheckEsp
$L84287:

; 458  : 			}
; 459  : 		}
; 460  : 		else
; 461  : 		{
; 462  : 			//
; 463  : 		}
; 464  : 	}

  02486	e9 5a ff ff ff	 jmp	 $L84276
$L84277:

; 465  : 	if( i64LargestFreeBytes == 0 )

  0248b	8b 4d d4	 mov	 ecx, DWORD PTR _i64LargestFreeBytes$[ebp]
  0248e	0b 4d d8	 or	 ecx, DWORD PTR _i64LargestFreeBytes$[ebp+4]
  02491	75 18		 jne	 SHORT $L84288

; 466  : 	{
; 467  : 		return false;

  02493	c6 45 87 00	 mov	 BYTE PTR $T89206[ebp], 0
  02497	c7 45 fc ff ff
	ff ff		 mov	 DWORD PTR __$EHRec$[ebp+8], -1
  0249e	8d 4d e0	 lea	 ecx, DWORD PTR _vDisk$[ebp]
  024a1	e8 00 00 00 00	 call	 ??1?$vector@V?$basic_string@DU?$char_traits@D@std@@V?$allocator@D@2@@std@@V?$allocator@V?$basic_string@DU?$char_traits@D@std@@V?$allocator@D@2@@std@@@2@@std@@QAE@XZ ; std::vector<std::basic_string<char,std::char_traits<char>,std::allocator<char> >,std::allocator<std::basic_string<char,std::char_traits<char>,std::allocator<char> > > >::~vector<std::basic_string<char,std::char_traits<char>,std::allocator<char> >,std::allocator<std::basic_string<char,std::char_traits<char>,std::allocator<char> > > >
  024a6	8a 45 87	 mov	 al, BYTE PTR $T89206[ebp]
  024a9	eb 16		 jmp	 SHORT $L84148
$L84288:

; 468  : 	}else
; 469  : 	{
; 470  : 		return true;

  024ab	c6 45 86 01	 mov	 BYTE PTR $T89207[ebp], 1
  024af	c7 45 fc ff ff
	ff ff		 mov	 DWORD PTR __$EHRec$[ebp+8], -1
  024b6	8d 4d e0	 lea	 ecx, DWORD PTR _vDisk$[ebp]
  024b9	e8 00 00 00 00	 call	 ??1?$vector@V?$basic_string@DU?$char_traits@D@std@@V?$allocator@D@2@@std@@V?$allocator@V?$basic_string@DU?$char_traits@D@std@@V?$allocator@D@2@@std@@@2@@std@@QAE@XZ ; std::vector<std::basic_string<char,std::char_traits<char>,std::allocator<char> >,std::allocator<std::basic_string<char,std::char_traits<char>,std::allocator<char> > > >::~vector<std::basic_string<char,std::char_traits<char>,std::allocator<char> >,std::allocator<std::basic_string<char,std::char_traits<char>,std::allocator<char> > > >
  024be	8a 45 86	 mov	 al, BYTE PTR $T89207[ebp]
$L84148:

; 471  : 	}
; 472  : }

  024c1	52		 push	 edx
  024c2	8b cd		 mov	 ecx, ebp
  024c4	50		 push	 eax
  024c5	8d 15 00 00 00
	00		 lea	 edx, DWORD PTR $L89219
  024cb	e8 00 00 00 00	 call	 @_RTC_CheckStackVars@8
  024d0	58		 pop	 eax
  024d1	5a		 pop	 edx
  024d2	8b 4d f4	 mov	 ecx, DWORD PTR __$EHRec$[ebp]
  024d5	64 89 0d 00 00
	00 00		 mov	 DWORD PTR fs:__except_list, ecx
  024dc	5f		 pop	 edi
  024dd	5e		 pop	 esi
  024de	83 c4 7c	 add	 esp, 124		; 0000007cH
  024e1	3b ec		 cmp	 ebp, esp
  024e3	e8 00 00 00 00	 call	 __RTC_CheckEsp
  024e8	8b e5		 mov	 esp, ebp
  024ea	5d		 pop	 ebp
  024eb	c3		 ret	 0
$L89219:
  024ec	05 00 00 00	 DD	 5
  024f0	00 00 00 00	 DD	 $L89218
$L89218:
  024f4	e0 ff ff ff	 DD	 -32			; ffffffe0H
  024f8	10 00 00 00	 DD	 16			; 00000010H
  024fc	00 00 00 00	 DD	 $L89212
  02500	cc ff ff ff	 DD	 -52			; ffffffccH
  02504	04 00 00 00	 DD	 4
  02508	00 00 00 00	 DD	 $L89213
  0250c	bc ff ff ff	 DD	 -68			; ffffffbcH
  02510	08 00 00 00	 DD	 8
  02514	00 00 00 00	 DD	 $L89214
  02518	ac ff ff ff	 DD	 -84			; ffffffacH
  0251c	08 00 00 00	 DD	 8
  02520	00 00 00 00	 DD	 $L89215
  02524	9c ff ff ff	 DD	 -100			; ffffff9cH
  02528	08 00 00 00	 DD	 8
  0252c	00 00 00 00	 DD	 $L89216
$L89216:
  02530	69		 DB	 105			; 00000069H
  02531	36		 DB	 54			; 00000036H
  02532	34		 DB	 52			; 00000034H
  02533	46		 DB	 70			; 00000046H
  02534	72		 DB	 114			; 00000072H
  02535	65		 DB	 101			; 00000065H
  02536	65		 DB	 101			; 00000065H
  02537	42		 DB	 66			; 00000042H
  02538	79		 DB	 121			; 00000079H
  02539	74		 DB	 116			; 00000074H
  0253a	65		 DB	 101			; 00000065H
  0253b	73		 DB	 115			; 00000073H
  0253c	00		 DB	 0
$L89215:
  0253d	69		 DB	 105			; 00000069H
  0253e	36		 DB	 54			; 00000036H
  0253f	34		 DB	 52			; 00000034H
  02540	54		 DB	 84			; 00000054H
  02541	6f		 DB	 111			; 0000006fH
  02542	74		 DB	 116			; 00000074H
  02543	61		 DB	 97			; 00000061H
  02544	6c		 DB	 108			; 0000006cH
  02545	42		 DB	 66			; 00000042H
  02546	79		 DB	 121			; 00000079H
  02547	74		 DB	 116			; 00000074H
  02548	65		 DB	 101			; 00000065H
  02549	73		 DB	 115			; 00000073H
  0254a	00		 DB	 0
$L89214:
  0254b	69		 DB	 105			; 00000069H
  0254c	36		 DB	 54			; 00000036H
  0254d	34		 DB	 52			; 00000034H
  0254e	46		 DB	 70			; 00000046H
  0254f	72		 DB	 114			; 00000072H
  02550	65		 DB	 101			; 00000065H
  02551	65		 DB	 101			; 00000065H
  02552	42		 DB	 66			; 00000042H
  02553	79		 DB	 121			; 00000079H
  02554	74		 DB	 116			; 00000074H
  02555	65		 DB	 101			; 00000065H
  02556	73		 DB	 115			; 00000073H
  02557	54		 DB	 84			; 00000054H
  02558	6f		 DB	 111			; 0000006fH
  02559	43		 DB	 67			; 00000043H
  0255a	61		 DB	 97			; 00000061H
  0255b	6c		 DB	 108			; 0000006cH
  0255c	6c		 DB	 108			; 0000006cH
  0255d	65		 DB	 101			; 00000065H
  0255e	72		 DB	 114			; 00000072H
  0255f	00		 DB	 0
$L89213:
  02560	69		 DB	 105			; 00000069H
  02561	74		 DB	 116			; 00000074H
  02562	31		 DB	 49			; 00000031H
  02563	00		 DB	 0
$L89212:
  02564	76		 DB	 118			; 00000076H
  02565	44		 DB	 68			; 00000044H
  02566	69		 DB	 105			; 00000069H
  02567	73		 DB	 115			; 00000073H
  02568	6b		 DB	 107			; 0000006bH
  02569	00		 DB	 0
_TEXT	ENDS
text$x	SEGMENT
$L89208:
  00365	8d 4d e0	 lea	 ecx, DWORD PTR _vDisk$[ebp]
  00368	e9 00 00 00 00	 jmp	 ??1?$vector@V?$basic_string@DU?$char_traits@D@std@@V?$allocator@D@2@@std@@V?$allocator@V?$basic_string@DU?$char_traits@D@std@@V?$allocator@D@2@@std@@@2@@std@@QAE@XZ ; std::vector<std::basic_string<char,std::char_traits<char>,std::allocator<char> >,std::allocator<std::basic_string<char,std::char_traits<char>,std::allocator<char> > > >::~vector<std::basic_string<char,std::char_traits<char>,std::allocator<char> >,std::allocator<std::basic_string<char,std::char_traits<char>,std::allocator<char> > > >
__ehhandler$?GetLargestFreeBytesDisk@YL_DirInfo@@SA_NAAV?$basic_string@DU?$char_traits@D@std@@V?$allocator@D@2@@std@@@Z:
  0036d	b8 00 00 00 00	 mov	 eax, OFFSET FLAT:$T89210
  00372	e9 00 00 00 00	 jmp	 ___CxxFrameHandler
text$x	ENDS
?GetLargestFreeBytesDisk@YL_DirInfo@@SA_NAAV?$basic_string@DU?$char_traits@D@std@@V?$allocator@D@2@@std@@@Z ENDP ; YL_DirInfo::GetLargestFreeBytesDisk
PUBLIC	??0?$_Vector_val@V?$basic_string@DU?$char_traits@D@std@@V?$allocator@D@2@@std@@V?$allocator@V?$basic_string@DU?$char_traits@D@std@@V?$allocator@D@2@@std@@@2@@std@@IAE@V?$allocator@V?$basic_string@DU?$char_traits@D@std@@V?$allocator@D@2@@std@@@1@@Z ; std::_Vector_val<std::basic_string<char,std::char_traits<char>,std::allocator<char> >,std::allocator<std::basic_string<char,std::char_traits<char>,std::allocator<char> > > >::_Vector_val<std::basic_string<char,std::char_traits<char>,std::allocator<char> >,std::allocator<std::basic_string<char,std::char_traits<char>,std::allocator<char> > > >
PUBLIC	??0?$allocator@V?$basic_string@DU?$char_traits@D@std@@V?$allocator@D@2@@std@@@std@@QAE@XZ ; std::allocator<std::basic_string<char,std::char_traits<char>,std::allocator<char> > >::allocator<std::basic_string<char,std::char_traits<char>,std::allocator<char> > >
PUBLIC	?_Buy@?$vector@V?$basic_string@DU?$char_traits@D@std@@V?$allocator@D@2@@std@@V?$allocator@V?$basic_string@DU?$char_traits@D@std@@V?$allocator@D@2@@std@@@2@@std@@IAE_NI@Z ; std::vector<std::basic_string<char,std::char_traits<char>,std::allocator<char> >,std::allocator<std::basic_string<char,std::char_traits<char>,std::allocator<char> > > >::_Buy
; Function compile flags: /Odt /RTCsu
; File d:\program files (x86)\microsoft visual studio .net 2003\vc7\include\vector
;	COMDAT ??0?$vector@V?$basic_string@DU?$char_traits@D@std@@V?$allocator@D@2@@std@@V?$allocator@V?$basic_string@DU?$char_traits@D@std@@V?$allocator@D@2@@std@@@2@@std@@QAE@XZ
_TEXT	SEGMENT
_this$ = -4						; size = 4
??0?$vector@V?$basic_string@DU?$char_traits@D@std@@V?$allocator@D@2@@std@@V?$allocator@V?$basic_string@DU?$char_traits@D@std@@V?$allocator@D@2@@std@@@2@@std@@QAE@XZ PROC NEAR ; std::vector<std::basic_string<char,std::char_traits<char>,std::allocator<char> >,std::allocator<std::basic_string<char,std::char_traits<char>,std::allocator<char> > > >::vector<std::basic_string<char,std::char_traits<char>,std::allocator<char> >,std::allocator<std::basic_string<char,std::char_traits<char>,std::allocator<char> > > >, COMDAT
; _this$ = ecx

; 299  : 		{	// construct empty vector

  00000	55		 push	 ebp
  00001	8b ec		 mov	 ebp, esp
  00003	83 ec 08	 sub	 esp, 8
  00006	c7 45 f8 cc cc
	cc cc		 mov	 DWORD PTR [ebp-8], -858993460 ; ccccccccH
  0000d	c7 45 fc cc cc
	cc cc		 mov	 DWORD PTR [ebp-4], -858993460 ; ccccccccH
  00014	89 4d fc	 mov	 DWORD PTR _this$[ebp], ecx
  00017	51		 push	 ecx
  00018	8b cc		 mov	 ecx, esp
  0001a	e8 00 00 00 00	 call	 ??0?$allocator@V?$basic_string@DU?$char_traits@D@std@@V?$allocator@D@2@@std@@@std@@QAE@XZ ; std::allocator<std::basic_string<char,std::char_traits<char>,std::allocator<char> > >::allocator<std::basic_string<char,std::char_traits<char>,std::allocator<char> > >
  0001f	8b 4d fc	 mov	 ecx, DWORD PTR _this$[ebp]
  00022	e8 00 00 00 00	 call	 ??0?$_Vector_val@V?$basic_string@DU?$char_traits@D@std@@V?$allocator@D@2@@std@@V?$allocator@V?$basic_string@DU?$char_traits@D@std@@V?$allocator@D@2@@std@@@2@@std@@IAE@V?$allocator@V?$basic_string@DU?$char_traits@D@std@@V?$allocator@D@2@@std@@@1@@Z ; std::_Vector_val<std::basic_string<char,std::char_traits<char>,std::allocator<char> >,std::allocator<std::basic_string<char,std::char_traits<char>,std::allocator<char> > > >::_Vector_val<std::basic_string<char,std::char_traits<char>,std::allocator<char> >,std::allocator<std::basic_string<char,std::char_traits<char>,std::allocator<char> > > >

; 300  : 		_Buy(0);

  00027	6a 00		 push	 0
  00029	8b 4d fc	 mov	 ecx, DWORD PTR _this$[ebp]
  0002c	e8 00 00 00 00	 call	 ?_Buy@?$vector@V?$basic_string@DU?$char_traits@D@std@@V?$allocator@D@2@@std@@V?$allocator@V?$basic_string@DU?$char_traits@D@std@@V?$allocator@D@2@@std@@@2@@std@@IAE_NI@Z ; std::vector<std::basic_string<char,std::char_traits<char>,std::allocator<char> >,std::allocator<std::basic_string<char,std::char_traits<char>,std::allocator<char> > > >::_Buy

; 301  : 		}

  00031	8b 45 fc	 mov	 eax, DWORD PTR _this$[ebp]
  00034	83 c4 08	 add	 esp, 8
  00037	3b ec		 cmp	 ebp, esp
  00039	e8 00 00 00 00	 call	 __RTC_CheckEsp
  0003e	8b e5		 mov	 esp, ebp
  00040	5d		 pop	 ebp
  00041	c3		 ret	 0
??0?$vector@V?$basic_string@DU?$char_traits@D@std@@V?$allocator@D@2@@std@@V?$allocator@V?$basic_string@DU?$char_traits@D@std@@V?$allocator@D@2@@std@@@2@@std@@QAE@XZ ENDP ; std::vector<std::basic_string<char,std::char_traits<char>,std::allocator<char> >,std::allocator<std::basic_string<char,std::char_traits<char>,std::allocator<char> > > >::vector<std::basic_string<char,std::char_traits<char>,std::allocator<char> >,std::allocator<std::basic_string<char,std::char_traits<char>,std::allocator<char> > > >
_TEXT	ENDS
PUBLIC	?_Tidy@?$vector@V?$basic_string@DU?$char_traits@D@std@@V?$allocator@D@2@@std@@V?$allocator@V?$basic_string@DU?$char_traits@D@std@@V?$allocator@D@2@@std@@@2@@std@@IAEXXZ ; std::vector<std::basic_string<char,std::char_traits<char>,std::allocator<char> >,std::allocator<std::basic_string<char,std::char_traits<char>,std::allocator<char> > > >::_Tidy
; Function compile flags: /Odt /RTCsu
;	COMDAT ??1?$vector@V?$basic_string@DU?$char_traits@D@std@@V?$allocator@D@2@@std@@V?$allocator@V?$basic_string@DU?$char_traits@D@std@@V?$allocator@D@2@@std@@@2@@std@@QAE@XZ
_TEXT	SEGMENT
_this$ = -4						; size = 4
??1?$vector@V?$basic_string@DU?$char_traits@D@std@@V?$allocator@D@2@@std@@V?$allocator@V?$basic_string@DU?$char_traits@D@std@@V?$allocator@D@2@@std@@@2@@std@@QAE@XZ PROC NEAR ; std::vector<std::basic_string<char,std::char_traits<char>,std::allocator<char> >,std::allocator<std::basic_string<char,std::char_traits<char>,std::allocator<char> > > >::~vector<std::basic_string<char,std::char_traits<char>,std::allocator<char> >,std::allocator<std::basic_string<char,std::char_traits<char>,std::allocator<char> > > >, COMDAT
; _this$ = ecx

; 387  : 		{	// destroy the object

  00000	55		 push	 ebp
  00001	8b ec		 mov	 ebp, esp
  00003	51		 push	 ecx
  00004	c7 45 fc cc cc
	cc cc		 mov	 DWORD PTR [ebp-4], -858993460 ; ccccccccH
  0000b	89 4d fc	 mov	 DWORD PTR _this$[ebp], ecx

; 388  : 		_Tidy();

  0000e	8b 4d fc	 mov	 ecx, DWORD PTR _this$[ebp]
  00011	e8 00 00 00 00	 call	 ?_Tidy@?$vector@V?$basic_string@DU?$char_traits@D@std@@V?$allocator@D@2@@std@@V?$allocator@V?$basic_string@DU?$char_traits@D@std@@V?$allocator@D@2@@std@@@2@@std@@IAEXXZ ; std::vector<std::basic_string<char,std::char_traits<char>,std::allocator<char> >,std::allocator<std::basic_string<char,std::char_traits<char>,std::allocator<char> > > >::_Tidy

; 389  : 		}

  00016	83 c4 04	 add	 esp, 4
  00019	3b ec		 cmp	 ebp, esp
  0001b	e8 00 00 00 00	 call	 __RTC_CheckEsp
  00020	8b e5		 mov	 esp, ebp
  00022	5d		 pop	 ebp
  00023	c3		 ret	 0
??1?$vector@V?$basic_string@DU?$char_traits@D@std@@V?$allocator@D@2@@std@@V?$allocator@V?$basic_string@DU?$char_traits@D@std@@V?$allocator@D@2@@std@@@2@@std@@QAE@XZ ENDP ; std::vector<std::basic_string<char,std::char_traits<char>,std::allocator<char> >,std::allocator<std::basic_string<char,std::char_traits<char>,std::allocator<char> > > >::~vector<std::basic_string<char,std::char_traits<char>,std::allocator<char> >,std::allocator<std::basic_string<char,std::char_traits<char>,std::allocator<char> > > >
_TEXT	ENDS
PUBLIC	??0iterator@?$vector@V?$basic_string@DU?$char_traits@D@std@@V?$allocator@D@2@@std@@V?$allocator@V?$basic_string@DU?$char_traits@D@std@@V?$allocator@D@2@@std@@@2@@std@@QAE@PAV?$basic_string@DU?$char_traits@D@std@@V?$allocator@D@2@@2@@Z ; std::vector<std::basic_string<char,std::char_traits<char>,std::allocator<char> >,std::allocator<std::basic_string<char,std::char_traits<char>,std::allocator<char> > > >::iterator::iterator
; Function compile flags: /Odt /RTCsu
;	COMDAT ?begin@?$vector@V?$basic_string@DU?$char_traits@D@std@@V?$allocator@D@2@@std@@V?$allocator@V?$basic_string@DU?$char_traits@D@std@@V?$allocator@D@2@@std@@@2@@std@@QAE?AViterator@12@XZ
_TEXT	SEGMENT
_this$ = -4						; size = 4
___$ReturnUdt$ = 8					; size = 4
?begin@?$vector@V?$basic_string@DU?$char_traits@D@std@@V?$allocator@D@2@@std@@V?$allocator@V?$basic_string@DU?$char_traits@D@std@@V?$allocator@D@2@@std@@@2@@std@@QAE?AViterator@12@XZ PROC NEAR ; std::vector<std::basic_string<char,std::char_traits<char>,std::allocator<char> >,std::allocator<std::basic_string<char,std::char_traits<char>,std::allocator<char> > > >::begin, COMDAT
; _this$ = ecx

; 462  : 		{	// return iterator for beginning of mutable sequence

  00000	55		 push	 ebp
  00001	8b ec		 mov	 ebp, esp
  00003	51		 push	 ecx
  00004	c7 45 fc cc cc
	cc cc		 mov	 DWORD PTR [ebp-4], -858993460 ; ccccccccH
  0000b	89 4d fc	 mov	 DWORD PTR _this$[ebp], ecx

; 463  : 		return (iterator(_Myfirst));

  0000e	8b 45 fc	 mov	 eax, DWORD PTR _this$[ebp]
  00011	8b 48 04	 mov	 ecx, DWORD PTR [eax+4]
  00014	51		 push	 ecx
  00015	8b 4d 08	 mov	 ecx, DWORD PTR ___$ReturnUdt$[ebp]
  00018	e8 00 00 00 00	 call	 ??0iterator@?$vector@V?$basic_string@DU?$char_traits@D@std@@V?$allocator@D@2@@std@@V?$allocator@V?$basic_string@DU?$char_traits@D@std@@V?$allocator@D@2@@std@@@2@@std@@QAE@PAV?$basic_string@DU?$char_traits@D@std@@V?$allocator@D@2@@2@@Z ; std::vector<std::basic_string<char,std::char_traits<char>,std::allocator<char> >,std::allocator<std::basic_string<char,std::char_traits<char>,std::allocator<char> > > >::iterator::iterator
  0001d	8b 45 08	 mov	 eax, DWORD PTR ___$ReturnUdt$[ebp]

; 464  : 		}

  00020	83 c4 04	 add	 esp, 4
  00023	3b ec		 cmp	 ebp, esp
  00025	e8 00 00 00 00	 call	 __RTC_CheckEsp
  0002a	8b e5		 mov	 esp, ebp
  0002c	5d		 pop	 ebp
  0002d	c2 04 00	 ret	 4
?begin@?$vector@V?$basic_string@DU?$char_traits@D@std@@V?$allocator@D@2@@std@@V?$allocator@V?$basic_string@DU?$char_traits@D@std@@V?$allocator@D@2@@std@@@2@@std@@QAE?AViterator@12@XZ ENDP ; std::vector<std::basic_string<char,std::char_traits<char>,std::allocator<char> >,std::allocator<std::basic_string<char,std::char_traits<char>,std::allocator<char> > > >::begin
; Function compile flags: /Odt /RTCsu
_TEXT	ENDS
;	COMDAT ?end@?$vector@V?$basic_string@DU?$char_traits@D@std@@V?$allocator@D@2@@std@@V?$allocator@V?$basic_string@DU?$char_traits@D@std@@V?$allocator@D@2@@std@@@2@@std@@QAE?AViterator@12@XZ
_TEXT	SEGMENT
_this$ = -4						; size = 4
___$ReturnUdt$ = 8					; size = 4
?end@?$vector@V?$basic_string@DU?$char_traits@D@std@@V?$allocator@D@2@@std@@V?$allocator@V?$basic_string@DU?$char_traits@D@std@@V?$allocator@D@2@@std@@@2@@std@@QAE?AViterator@12@XZ PROC NEAR ; std::vector<std::basic_string<char,std::char_traits<char>,std::allocator<char> >,std::allocator<std::basic_string<char,std::char_traits<char>,std::allocator<char> > > >::end, COMDAT
; _this$ = ecx

; 472  : 		{	// return iterator for end of mutable sequence

  00000	55		 push	 ebp
  00001	8b ec		 mov	 ebp, esp
  00003	51		 push	 ecx
  00004	c7 45 fc cc cc
	cc cc		 mov	 DWORD PTR [ebp-4], -858993460 ; ccccccccH
  0000b	89 4d fc	 mov	 DWORD PTR _this$[ebp], ecx

; 473  : 		return (iterator(_Mylast));

  0000e	8b 45 fc	 mov	 eax, DWORD PTR _this$[ebp]
  00011	8b 48 08	 mov	 ecx, DWORD PTR [eax+8]
  00014	51		 push	 ecx
  00015	8b 4d 08	 mov	 ecx, DWORD PTR ___$ReturnUdt$[ebp]
  00018	e8 00 00 00 00	 call	 ??0iterator@?$vector@V?$basic_string@DU?$char_traits@D@std@@V?$allocator@D@2@@std@@V?$allocator@V?$basic_string@DU?$char_traits@D@std@@V?$allocator@D@2@@std@@@2@@std@@QAE@PAV?$basic_string@DU?$char_traits@D@std@@V?$allocator@D@2@@2@@Z ; std::vector<std::basic_string<char,std::char_traits<char>,std::allocator<char> >,std::allocator<std::basic_string<char,std::char_traits<char>,std::allocator<char> > > >::iterator::iterator
  0001d	8b 45 08	 mov	 eax, DWORD PTR ___$ReturnUdt$[ebp]

; 474  : 		}

  00020	83 c4 04	 add	 esp, 4
  00023	3b ec		 cmp	 ebp, esp
  00025	e8 00 00 00 00	 call	 __RTC_CheckEsp
  0002a	8b e5		 mov	 esp, ebp
  0002c	5d		 pop	 ebp
  0002d	c2 04 00	 ret	 4
?end@?$vector@V?$basic_string@DU?$char_traits@D@std@@V?$allocator@D@2@@std@@V?$allocator@V?$basic_string@DU?$char_traits@D@std@@V?$allocator@D@2@@std@@@2@@std@@QAE?AViterator@12@XZ ENDP ; std::vector<std::basic_string<char,std::char_traits<char>,std::allocator<char> >,std::allocator<std::basic_string<char,std::char_traits<char>,std::allocator<char> > > >::end
; Function compile flags: /Odt /RTCsu
_TEXT	ENDS
;	COMDAT ?size@?$vector@V?$basic_string@DU?$char_traits@D@std@@V?$allocator@D@2@@std@@V?$allocator@V?$basic_string@DU?$char_traits@D@std@@V?$allocator@D@2@@std@@@2@@std@@QBEIXZ
_TEXT	SEGMENT
tv70 = -8						; size = 4
_this$ = -4						; size = 4
?size@?$vector@V?$basic_string@DU?$char_traits@D@std@@V?$allocator@D@2@@std@@V?$allocator@V?$basic_string@DU?$char_traits@D@std@@V?$allocator@D@2@@std@@@2@@std@@QBEIXZ PROC NEAR ; std::vector<std::basic_string<char,std::char_traits<char>,std::allocator<char> >,std::allocator<std::basic_string<char,std::char_traits<char>,std::allocator<char> > > >::size, COMDAT
; _this$ = ecx

; 515  : 		{	// return length of sequence

  00000	55		 push	 ebp
  00001	8b ec		 mov	 ebp, esp
  00003	83 ec 08	 sub	 esp, 8
  00006	c7 45 f8 cc cc
	cc cc		 mov	 DWORD PTR [ebp-8], -858993460 ; ccccccccH
  0000d	c7 45 fc cc cc
	cc cc		 mov	 DWORD PTR [ebp-4], -858993460 ; ccccccccH
  00014	89 4d fc	 mov	 DWORD PTR _this$[ebp], ecx

; 516  : 		return (_Myfirst == 0 ? 0 : _Mylast - _Myfirst);

  00017	8b 45 fc	 mov	 eax, DWORD PTR _this$[ebp]
  0001a	83 78 04 00	 cmp	 DWORD PTR [eax+4], 0
  0001e	75 09		 jne	 SHORT $L89227
  00020	c7 45 f8 00 00
	00 00		 mov	 DWORD PTR tv70[ebp], 0
  00027	eb 17		 jmp	 SHORT $L89228
$L89227:
  00029	8b 4d fc	 mov	 ecx, DWORD PTR _this$[ebp]
  0002c	8b 55 fc	 mov	 edx, DWORD PTR _this$[ebp]
  0002f	8b 41 08	 mov	 eax, DWORD PTR [ecx+8]
  00032	2b 42 04	 sub	 eax, DWORD PTR [edx+4]
  00035	99		 cdq
  00036	b9 1c 00 00 00	 mov	 ecx, 28			; 0000001cH
  0003b	f7 f9		 idiv	 ecx
  0003d	89 45 f8	 mov	 DWORD PTR tv70[ebp], eax
$L89228:
  00040	8b 45 f8	 mov	 eax, DWORD PTR tv70[ebp]

; 517  : 		}

  00043	8b e5		 mov	 esp, ebp
  00045	5d		 pop	 ebp
  00046	c3		 ret	 0
?size@?$vector@V?$basic_string@DU?$char_traits@D@std@@V?$allocator@D@2@@std@@V?$allocator@V?$basic_string@DU?$char_traits@D@std@@V?$allocator@D@2@@std@@@2@@std@@QBEIXZ ENDP ; std::vector<std::basic_string<char,std::char_traits<char>,std::allocator<char> >,std::allocator<std::basic_string<char,std::char_traits<char>,std::allocator<char> > > >::size
_TEXT	ENDS
PUBLIC	??Dconst_iterator@?$vector@V?$basic_string@DU?$char_traits@D@std@@V?$allocator@D@2@@std@@V?$allocator@V?$basic_string@DU?$char_traits@D@std@@V?$allocator@D@2@@std@@@2@@std@@QBEABV?$basic_string@DU?$char_traits@D@std@@V?$allocator@D@2@@2@XZ ; std::vector<std::basic_string<char,std::char_traits<char>,std::allocator<char> >,std::allocator<std::basic_string<char,std::char_traits<char>,std::allocator<char> > > >::const_iterator::operator*
PUBLIC	??Hconst_iterator@?$vector@V?$basic_string@DU?$char_traits@D@std@@V?$allocator@D@2@@std@@V?$allocator@V?$basic_string@DU?$char_traits@D@std@@V?$allocator@D@2@@std@@@2@@std@@QBE?AV012@H@Z ; std::vector<std::basic_string<char,std::char_traits<char>,std::allocator<char> >,std::allocator<std::basic_string<char,std::char_traits<char>,std::allocator<char> > > >::const_iterator::operator+
PUBLIC	?begin@?$vector@V?$basic_string@DU?$char_traits@D@std@@V?$allocator@D@2@@std@@V?$allocator@V?$basic_string@DU?$char_traits@D@std@@V?$allocator@D@2@@std@@@2@@std@@QBE?AVconst_iterator@12@XZ ; std::vector<std::basic_string<char,std::char_traits<char>,std::allocator<char> >,std::allocator<std::basic_string<char,std::char_traits<char>,std::allocator<char> > > >::begin
; Function compile flags: /Odt /RTCsu
;	COMDAT ??A?$vector@V?$basic_string@DU?$char_traits@D@std@@V?$allocator@D@2@@std@@V?$allocator@V?$basic_string@DU?$char_traits@D@std@@V?$allocator@D@2@@std@@@2@@std@@QBEABV?$basic_string@DU?$char_traits@D@std@@V?$allocator@D@2@@1@I@Z
_TEXT	SEGMENT
$T89231 = -12						; size = 4
$T89230 = -8						; size = 4
_this$ = -4						; size = 4
__Pos$ = 8						; size = 4
??A?$vector@V?$basic_string@DU?$char_traits@D@std@@V?$allocator@D@2@@std@@V?$allocator@V?$basic_string@DU?$char_traits@D@std@@V?$allocator@D@2@@std@@@2@@std@@QBEABV?$basic_string@DU?$char_traits@D@std@@V?$allocator@D@2@@1@I@Z PROC NEAR ; std::vector<std::basic_string<char,std::char_traits<char>,std::allocator<char> >,std::allocator<std::basic_string<char,std::char_traits<char>,std::allocator<char> > > >::operator[], COMDAT
; _this$ = ecx

; 549  : 		{	// subscript nonmutable sequence

  00000	55		 push	 ebp
  00001	8b ec		 mov	 ebp, esp
  00003	83 ec 0c	 sub	 esp, 12			; 0000000cH
  00006	c7 45 f4 cc cc
	cc cc		 mov	 DWORD PTR [ebp-12], -858993460 ; ccccccccH
  0000d	c7 45 f8 cc cc
	cc cc		 mov	 DWORD PTR [ebp-8], -858993460 ; ccccccccH
  00014	c7 45 fc cc cc
	cc cc		 mov	 DWORD PTR [ebp-4], -858993460 ; ccccccccH
  0001b	89 4d fc	 mov	 DWORD PTR _this$[ebp], ecx

; 550  : 		return (*(begin() + _Pos));

  0001e	8b 45 08	 mov	 eax, DWORD PTR __Pos$[ebp]
  00021	50		 push	 eax
  00022	8d 4d f4	 lea	 ecx, DWORD PTR $T89231[ebp]
  00025	51		 push	 ecx
  00026	8d 55 f8	 lea	 edx, DWORD PTR $T89230[ebp]
  00029	52		 push	 edx
  0002a	8b 4d fc	 mov	 ecx, DWORD PTR _this$[ebp]
  0002d	e8 00 00 00 00	 call	 ?begin@?$vector@V?$basic_string@DU?$char_traits@D@std@@V?$allocator@D@2@@std@@V?$allocator@V?$basic_string@DU?$char_traits@D@std@@V?$allocator@D@2@@std@@@2@@std@@QBE?AVconst_iterator@12@XZ ; std::vector<std::basic_string<char,std::char_traits<char>,std::allocator<char> >,std::allocator<std::basic_string<char,std::char_traits<char>,std::allocator<char> > > >::begin
  00032	8b c8		 mov	 ecx, eax
  00034	e8 00 00 00 00	 call	 ??Hconst_iterator@?$vector@V?$basic_string@DU?$char_traits@D@std@@V?$allocator@D@2@@std@@V?$allocator@V?$basic_string@DU?$char_traits@D@std@@V?$allocator@D@2@@std@@@2@@std@@QBE?AV012@H@Z ; std::vector<std::basic_string<char,std::char_traits<char>,std::allocator<char> >,std::allocator<std::basic_string<char,std::char_traits<char>,std::allocator<char> > > >::const_iterator::operator+
  00039	8b c8		 mov	 ecx, eax
  0003b	e8 00 00 00 00	 call	 ??Dconst_iterator@?$vector@V?$basic_string@DU?$char_traits@D@std@@V?$allocator@D@2@@std@@V?$allocator@V?$basic_string@DU?$char_traits@D@std@@V?$allocator@D@2@@std@@@2@@std@@QBEABV?$basic_string@DU?$char_traits@D@std@@V?$allocator@D@2@@2@XZ ; std::vector<std::basic_string<char,std::char_traits<char>,std::allocator<char> >,std::allocator<std::basic_string<char,std::char_traits<char>,std::allocator<char> > > >::const_iterator::operator*

; 551  : 		}

  00040	83 c4 0c	 add	 esp, 12			; 0000000cH
  00043	3b ec		 cmp	 ebp, esp
  00045	e8 00 00 00 00	 call	 __RTC_CheckEsp
  0004a	8b e5		 mov	 esp, ebp
  0004c	5d		 pop	 ebp
  0004d	c2 04 00	 ret	 4
??A?$vector@V?$basic_string@DU?$char_traits@D@std@@V?$allocator@D@2@@std@@V?$allocator@V?$basic_string@DU?$char_traits@D@std@@V?$allocator@D@2@@std@@@2@@std@@QBEABV?$basic_string@DU?$char_traits@D@std@@V?$allocator@D@2@@1@I@Z ENDP ; std::vector<std::basic_string<char,std::char_traits<char>,std::allocator<char> >,std::allocator<std::basic_string<char,std::char_traits<char>,std::allocator<char> > > >::operator[]
_TEXT	ENDS
PUBLIC	??Hiterator@?$vector@V?$basic_string@DU?$char_traits@D@std@@V?$allocator@D@2@@std@@V?$allocator@V?$basic_string@DU?$char_traits@D@std@@V?$allocator@D@2@@std@@@2@@std@@QBE?AV012@H@Z ; std::vector<std::basic_string<char,std::char_traits<char>,std::allocator<char> >,std::allocator<std::basic_string<char,std::char_traits<char>,std::allocator<char> > > >::iterator::operator+
; Function compile flags: /Odt /RTCsu
;	COMDAT ??A?$vector@V?$basic_string@DU?$char_traits@D@std@@V?$allocator@D@2@@std@@V?$allocator@V?$basic_string@DU?$char_traits@D@std@@V?$allocator@D@2@@std@@@2@@std@@QAEAAV?$basic_string@DU?$char_traits@D@std@@V?$allocator@D@2@@1@I@Z
_TEXT	SEGMENT
$T89234 = -12						; size = 4
$T89233 = -8						; size = 4
_this$ = -4						; size = 4
__Pos$ = 8						; size = 4
??A?$vector@V?$basic_string@DU?$char_traits@D@std@@V?$allocator@D@2@@std@@V?$allocator@V?$basic_string@DU?$char_traits@D@std@@V?$allocator@D@2@@std@@@2@@std@@QAEAAV?$basic_string@DU?$char_traits@D@std@@V?$allocator@D@2@@1@I@Z PROC NEAR ; std::vector<std::basic_string<char,std::char_traits<char>,std::allocator<char> >,std::allocator<std::basic_string<char,std::char_traits<char>,std::allocator<char> > > >::operator[], COMDAT
; _this$ = ecx

; 554  : 		{	// subscript mutable sequence

  00000	55		 push	 ebp
  00001	8b ec		 mov	 ebp, esp
  00003	83 ec 0c	 sub	 esp, 12			; 0000000cH
  00006	c7 45 f4 cc cc
	cc cc		 mov	 DWORD PTR [ebp-12], -858993460 ; ccccccccH
  0000d	c7 45 f8 cc cc
	cc cc		 mov	 DWORD PTR [ebp-8], -858993460 ; ccccccccH
  00014	c7 45 fc cc cc
	cc cc		 mov	 DWORD PTR [ebp-4], -858993460 ; ccccccccH
  0001b	89 4d fc	 mov	 DWORD PTR _this$[ebp], ecx

; 555  : 		return (*(begin() + _Pos));

  0001e	8b 45 08	 mov	 eax, DWORD PTR __Pos$[ebp]
  00021	50		 push	 eax
  00022	8d 4d f4	 lea	 ecx, DWORD PTR $T89234[ebp]
  00025	51		 push	 ecx
  00026	8d 55 f8	 lea	 edx, DWORD PTR $T89233[ebp]
  00029	52		 push	 edx
  0002a	8b 4d fc	 mov	 ecx, DWORD PTR _this$[ebp]
  0002d	e8 00 00 00 00	 call	 ?begin@?$vector@V?$basic_string@DU?$char_traits@D@std@@V?$allocator@D@2@@std@@V?$allocator@V?$basic_string@DU?$char_traits@D@std@@V?$allocator@D@2@@std@@@2@@std@@QAE?AViterator@12@XZ ; std::vector<std::basic_string<char,std::char_traits<char>,std::allocator<char> >,std::allocator<std::basic_string<char,std::char_traits<char>,std::allocator<char> > > >::begin
  00032	8b c8		 mov	 ecx, eax
  00034	e8 00 00 00 00	 call	 ??Hiterator@?$vector@V?$basic_string@DU?$char_traits@D@std@@V?$allocator@D@2@@std@@V?$allocator@V?$basic_string@DU?$char_traits@D@std@@V?$allocator@D@2@@std@@@2@@std@@QBE?AV012@H@Z ; std::vector<std::basic_string<char,std::char_traits<char>,std::allocator<char> >,std::allocator<std::basic_string<char,std::char_traits<char>,std::allocator<char> > > >::iterator::operator+
  00039	8b c8		 mov	 ecx, eax
  0003b	e8 00 00 00 00	 call	 ??Diterator@?$vector@V?$basic_string@DU?$char_traits@D@std@@V?$allocator@D@2@@std@@V?$allocator@V?$basic_string@DU?$char_traits@D@std@@V?$allocator@D@2@@std@@@2@@std@@QBEAAV?$basic_string@DU?$char_traits@D@std@@V?$allocator@D@2@@2@XZ ; std::vector<std::basic_string<char,std::char_traits<char>,std::allocator<char> >,std::allocator<std::basic_string<char,std::char_traits<char>,std::allocator<char> > > >::iterator::operator*

; 556  : 		}

  00040	83 c4 0c	 add	 esp, 12			; 0000000cH
  00043	3b ec		 cmp	 ebp, esp
  00045	e8 00 00 00 00	 call	 __RTC_CheckEsp
  0004a	8b e5		 mov	 esp, ebp
  0004c	5d		 pop	 ebp
  0004d	c2 04 00	 ret	 4
??A?$vector@V?$basic_string@DU?$char_traits@D@std@@V?$allocator@D@2@@std@@V?$allocator@V?$basic_string@DU?$char_traits@D@std@@V?$allocator@D@2@@std@@@2@@std@@QAEAAV?$basic_string@DU?$char_traits@D@std@@V?$allocator@D@2@@1@I@Z ENDP ; std::vector<std::basic_string<char,std::char_traits<char>,std::allocator<char> >,std::allocator<std::basic_string<char,std::char_traits<char>,std::allocator<char> > > >::operator[]
_TEXT	ENDS
PUBLIC	?capacity@?$vector@V?$basic_string@DU?$char_traits@D@std@@V?$allocator@D@2@@std@@V?$allocator@V?$basic_string@DU?$char_traits@D@std@@V?$allocator@D@2@@std@@@2@@std@@QBEIXZ ; std::vector<std::basic_string<char,std::char_traits<char>,std::allocator<char> >,std::allocator<std::basic_string<char,std::char_traits<char>,std::allocator<char> > > >::capacity
PUBLIC	?insert@?$vector@V?$basic_string@DU?$char_traits@D@std@@V?$allocator@D@2@@std@@V?$allocator@V?$basic_string@DU?$char_traits@D@std@@V?$allocator@D@2@@std@@@2@@std@@QAE?AViterator@12@V312@ABV?$basic_string@DU?$char_traits@D@std@@V?$allocator@D@2@@2@@Z ; std::vector<std::basic_string<char,std::char_traits<char>,std::allocator<char> >,std::allocator<std::basic_string<char,std::char_traits<char>,std::allocator<char> > > >::insert
PUBLIC	?_Ufill@?$vector@V?$basic_string@DU?$char_traits@D@std@@V?$allocator@D@2@@std@@V?$allocator@V?$basic_string@DU?$char_traits@D@std@@V?$allocator@D@2@@std@@@2@@std@@IAEPAV?$basic_string@DU?$char_traits@D@std@@V?$allocator@D@2@@2@PAV32@IABV32@@Z ; std::vector<std::basic_string<char,std::char_traits<char>,std::allocator<char> >,std::allocator<std::basic_string<char,std::char_traits<char>,std::allocator<char> > > >::_Ufill
; Function compile flags: /Odt /RTCsu
;	COMDAT ?push_back@?$vector@V?$basic_string@DU?$char_traits@D@std@@V?$allocator@D@2@@std@@V?$allocator@V?$basic_string@DU?$char_traits@D@std@@V?$allocator@D@2@@std@@@2@@std@@QAEXABV?$basic_string@DU?$char_traits@D@std@@V?$allocator@D@2@@2@@Z
_TEXT	SEGMENT
$T89237 = -12						; size = 4
$T89236 = -8						; size = 4
_this$ = -4						; size = 4
__Val$ = 8						; size = 4
?push_back@?$vector@V?$basic_string@DU?$char_traits@D@std@@V?$allocator@D@2@@std@@V?$allocator@V?$basic_string@DU?$char_traits@D@std@@V?$allocator@D@2@@std@@@2@@std@@QAEXABV?$basic_string@DU?$char_traits@D@std@@V?$allocator@D@2@@2@@Z PROC NEAR ; std::vector<std::basic_string<char,std::char_traits<char>,std::allocator<char> >,std::allocator<std::basic_string<char,std::char_traits<char>,std::allocator<char> > > >::push_back, COMDAT
; _this$ = ecx

; 579  : 		{	// insert element at end

  00000	55		 push	 ebp
  00001	8b ec		 mov	 ebp, esp
  00003	83 ec 0c	 sub	 esp, 12			; 0000000cH
  00006	56		 push	 esi
  00007	c7 45 f4 cc cc
	cc cc		 mov	 DWORD PTR [ebp-12], -858993460 ; ccccccccH
  0000e	c7 45 f8 cc cc
	cc cc		 mov	 DWORD PTR [ebp-8], -858993460 ; ccccccccH
  00015	c7 45 fc cc cc
	cc cc		 mov	 DWORD PTR [ebp-4], -858993460 ; ccccccccH
  0001c	89 4d fc	 mov	 DWORD PTR _this$[ebp], ecx

; 580  : 		if (size() < capacity())

  0001f	8b 4d fc	 mov	 ecx, DWORD PTR _this$[ebp]
  00022	e8 00 00 00 00	 call	 ?size@?$vector@V?$basic_string@DU?$char_traits@D@std@@V?$allocator@D@2@@std@@V?$allocator@V?$basic_string@DU?$char_traits@D@std@@V?$allocator@D@2@@std@@@2@@std@@QBEIXZ ; std::vector<std::basic_string<char,std::char_traits<char>,std::allocator<char> >,std::allocator<std::basic_string<char,std::char_traits<char>,std::allocator<char> > > >::size
  00027	8b f0		 mov	 esi, eax
  00029	8b 4d fc	 mov	 ecx, DWORD PTR _this$[ebp]
  0002c	e8 00 00 00 00	 call	 ?capacity@?$vector@V?$basic_string@DU?$char_traits@D@std@@V?$allocator@D@2@@std@@V?$allocator@V?$basic_string@DU?$char_traits@D@std@@V?$allocator@D@2@@std@@@2@@std@@QBEIXZ ; std::vector<std::basic_string<char,std::char_traits<char>,std::allocator<char> >,std::allocator<std::basic_string<char,std::char_traits<char>,std::allocator<char> > > >::capacity
  00031	3b f0		 cmp	 esi, eax
  00033	73 1d		 jae	 SHORT $L85557

; 581  : 			_Mylast = _Ufill(_Mylast, 1, _Val);

  00035	8b 45 08	 mov	 eax, DWORD PTR __Val$[ebp]
  00038	50		 push	 eax
  00039	6a 01		 push	 1
  0003b	8b 4d fc	 mov	 ecx, DWORD PTR _this$[ebp]
  0003e	8b 51 08	 mov	 edx, DWORD PTR [ecx+8]
  00041	52		 push	 edx
  00042	8b 4d fc	 mov	 ecx, DWORD PTR _this$[ebp]
  00045	e8 00 00 00 00	 call	 ?_Ufill@?$vector@V?$basic_string@DU?$char_traits@D@std@@V?$allocator@D@2@@std@@V?$allocator@V?$basic_string@DU?$char_traits@D@std@@V?$allocator@D@2@@std@@@2@@std@@IAEPAV?$basic_string@DU?$char_traits@D@std@@V?$allocator@D@2@@2@PAV32@IABV32@@Z ; std::vector<std::basic_string<char,std::char_traits<char>,std::allocator<char> >,std::allocator<std::basic_string<char,std::char_traits<char>,std::allocator<char> > > >::_Ufill
  0004a	8b 4d fc	 mov	 ecx, DWORD PTR _this$[ebp]
  0004d	89 41 08	 mov	 DWORD PTR [ecx+8], eax

; 582  : 		else

  00050	eb 1f		 jmp	 SHORT $L85556
$L85557:

; 583  : 			insert(end(), _Val);

  00052	8b 55 08	 mov	 edx, DWORD PTR __Val$[ebp]
  00055	52		 push	 edx
  00056	8d 45 f8	 lea	 eax, DWORD PTR $T89236[ebp]
  00059	50		 push	 eax
  0005a	8b 4d fc	 mov	 ecx, DWORD PTR _this$[ebp]
  0005d	e8 00 00 00 00	 call	 ?end@?$vector@V?$basic_string@DU?$char_traits@D@std@@V?$allocator@D@2@@std@@V?$allocator@V?$basic_string@DU?$char_traits@D@std@@V?$allocator@D@2@@std@@@2@@std@@QAE?AViterator@12@XZ ; std::vector<std::basic_string<char,std::char_traits<char>,std::allocator<char> >,std::allocator<std::basic_string<char,std::char_traits<char>,std::allocator<char> > > >::end
  00062	8b 08		 mov	 ecx, DWORD PTR [eax]
  00064	51		 push	 ecx
  00065	8d 55 f4	 lea	 edx, DWORD PTR $T89237[ebp]
  00068	52		 push	 edx
  00069	8b 4d fc	 mov	 ecx, DWORD PTR _this$[ebp]
  0006c	e8 00 00 00 00	 call	 ?insert@?$vector@V?$basic_string@DU?$char_traits@D@std@@V?$allocator@D@2@@std@@V?$allocator@V?$basic_string@DU?$char_traits@D@std@@V?$allocator@D@2@@std@@@2@@std@@QAE?AViterator@12@V312@ABV?$basic_string@DU?$char_traits@D@std@@V?$allocator@D@2@@2@@Z ; std::vector<std::basic_string<char,std::char_traits<char>,std::allocator<char> >,std::allocator<std::basic_string<char,std::char_traits<char>,std::allocator<char> > > >::insert
$L85556:

; 584  : 		}

  00071	5e		 pop	 esi
  00072	83 c4 0c	 add	 esp, 12			; 0000000cH
  00075	3b ec		 cmp	 ebp, esp
  00077	e8 00 00 00 00	 call	 __RTC_CheckEsp
  0007c	8b e5		 mov	 esp, ebp
  0007e	5d		 pop	 ebp
  0007f	c2 04 00	 ret	 4
?push_back@?$vector@V?$basic_string@DU?$char_traits@D@std@@V?$allocator@D@2@@std@@V?$allocator@V?$basic_string@DU?$char_traits@D@std@@V?$allocator@D@2@@std@@@2@@std@@QAEXABV?$basic_string@DU?$char_traits@D@std@@V?$allocator@D@2@@2@@Z ENDP ; std::vector<std::basic_string<char,std::char_traits<char>,std::allocator<char> >,std::allocator<std::basic_string<char,std::char_traits<char>,std::allocator<char> > > >::push_back
; Function compile flags: /Odt /RTCsu
_TEXT	ENDS
;	COMDAT ??Diterator@?$vector@V?$basic_string@DU?$char_traits@D@std@@V?$allocator@D@2@@std@@V?$allocator@V?$basic_string@DU?$char_traits@D@std@@V?$allocator@D@2@@std@@@2@@std@@QBEAAV?$basic_string@DU?$char_traits@D@std@@V?$allocator@D@2@@2@XZ
_TEXT	SEGMENT
_this$ = -4						; size = 4
??Diterator@?$vector@V?$basic_string@DU?$char_traits@D@std@@V?$allocator@D@2@@std@@V?$allocator@V?$basic_string@DU?$char_traits@D@std@@V?$allocator@D@2@@std@@@2@@std@@QBEAAV?$basic_string@DU?$char_traits@D@std@@V?$allocator@D@2@@2@XZ PROC NEAR ; std::vector<std::basic_string<char,std::char_traits<char>,std::allocator<char> >,std::allocator<std::basic_string<char,std::char_traits<char>,std::allocator<char> > > >::iterator::operator*, COMDAT
; _this$ = ecx

; 219  : 			{	// return designated object

  00000	55		 push	 ebp
  00001	8b ec		 mov	 ebp, esp
  00003	51		 push	 ecx
  00004	c7 45 fc cc cc
	cc cc		 mov	 DWORD PTR [ebp-4], -858993460 ; ccccccccH
  0000b	89 4d fc	 mov	 DWORD PTR _this$[ebp], ecx

; 220  : 			return ((reference)**(const_iterator *)this);

  0000e	8b 4d fc	 mov	 ecx, DWORD PTR _this$[ebp]
  00011	e8 00 00 00 00	 call	 ??Dconst_iterator@?$vector@V?$basic_string@DU?$char_traits@D@std@@V?$allocator@D@2@@std@@V?$allocator@V?$basic_string@DU?$char_traits@D@std@@V?$allocator@D@2@@std@@@2@@std@@QBEABV?$basic_string@DU?$char_traits@D@std@@V?$allocator@D@2@@2@XZ ; std::vector<std::basic_string<char,std::char_traits<char>,std::allocator<char> >,std::allocator<std::basic_string<char,std::char_traits<char>,std::allocator<char> > > >::const_iterator::operator*

; 221  : 			}

  00016	83 c4 04	 add	 esp, 4
  00019	3b ec		 cmp	 ebp, esp
  0001b	e8 00 00 00 00	 call	 __RTC_CheckEsp
  00020	8b e5		 mov	 esp, ebp
  00022	5d		 pop	 ebp
  00023	c3		 ret	 0
??Diterator@?$vector@V?$basic_string@DU?$char_traits@D@std@@V?$allocator@D@2@@std@@V?$allocator@V?$basic_string@DU?$char_traits@D@std@@V?$allocator@D@2@@std@@@2@@std@@QBEAAV?$basic_string@DU?$char_traits@D@std@@V?$allocator@D@2@@2@XZ ENDP ; std::vector<std::basic_string<char,std::char_traits<char>,std::allocator<char> >,std::allocator<std::basic_string<char,std::char_traits<char>,std::allocator<char> > > >::iterator::operator*
; Function compile flags: /Odt /RTCsu
_TEXT	ENDS
;	COMDAT ??Citerator@?$vector@V?$basic_string@DU?$char_traits@D@std@@V?$allocator@D@2@@std@@V?$allocator@V?$basic_string@DU?$char_traits@D@std@@V?$allocator@D@2@@std@@@2@@std@@QBEPAV?$basic_string@DU?$char_traits@D@std@@V?$allocator@D@2@@2@XZ
_TEXT	SEGMENT
_this$ = -4						; size = 4
??Citerator@?$vector@V?$basic_string@DU?$char_traits@D@std@@V?$allocator@D@2@@std@@V?$allocator@V?$basic_string@DU?$char_traits@D@std@@V?$allocator@D@2@@std@@@2@@std@@QBEPAV?$basic_string@DU?$char_traits@D@std@@V?$allocator@D@2@@2@XZ PROC NEAR ; std::vector<std::basic_string<char,std::char_traits<char>,std::allocator<char> >,std::allocator<std::basic_string<char,std::char_traits<char>,std::allocator<char> > > >::iterator::operator->, COMDAT
; _this$ = ecx

; 224  : 			{	// return pointer to class object

  00000	55		 push	 ebp
  00001	8b ec		 mov	 ebp, esp
  00003	51		 push	 ecx
  00004	c7 45 fc cc cc
	cc cc		 mov	 DWORD PTR [ebp-4], -858993460 ; ccccccccH
  0000b	89 4d fc	 mov	 DWORD PTR _this$[ebp], ecx

; 225  : 			return (&**this);

  0000e	8b 4d fc	 mov	 ecx, DWORD PTR _this$[ebp]
  00011	e8 00 00 00 00	 call	 ??Diterator@?$vector@V?$basic_string@DU?$char_traits@D@std@@V?$allocator@D@2@@std@@V?$allocator@V?$basic_string@DU?$char_traits@D@std@@V?$allocator@D@2@@std@@@2@@std@@QBEAAV?$basic_string@DU?$char_traits@D@std@@V?$allocator@D@2@@2@XZ ; std::vector<std::basic_string<char,std::char_traits<char>,std::allocator<char> >,std::allocator<std::basic_string<char,std::char_traits<char>,std::allocator<char> > > >::iterator::operator*

; 226  : 			}

  00016	83 c4 04	 add	 esp, 4
  00019	3b ec		 cmp	 ebp, esp
  0001b	e8 00 00 00 00	 call	 __RTC_CheckEsp
  00020	8b e5		 mov	 esp, ebp
  00022	5d		 pop	 ebp
  00023	c3		 ret	 0
??Citerator@?$vector@V?$basic_string@DU?$char_traits@D@std@@V?$allocator@D@2@@std@@V?$allocator@V?$basic_string@DU?$char_traits@D@std@@V?$allocator@D@2@@std@@@2@@std@@QBEPAV?$basic_string@DU?$char_traits@D@std@@V?$allocator@D@2@@2@XZ ENDP ; std::vector<std::basic_string<char,std::char_traits<char>,std::allocator<char> >,std::allocator<std::basic_string<char,std::char_traits<char>,std::allocator<char> > > >::iterator::operator->
_TEXT	ENDS
PUBLIC	??Eiterator@?$vector@V?$basic_string@DU?$char_traits@D@std@@V?$allocator@D@2@@std@@V?$allocator@V?$basic_string@DU?$char_traits@D@std@@V?$allocator@D@2@@std@@@2@@std@@QAEAAV012@XZ ; std::vector<std::basic_string<char,std::char_traits<char>,std::allocator<char> >,std::allocator<std::basic_string<char,std::char_traits<char>,std::allocator<char> > > >::iterator::operator++
; Function compile flags: /Odt /RTCsu
;	COMDAT ??Eiterator@?$vector@V?$basic_string@DU?$char_traits@D@std@@V?$allocator@D@2@@std@@V?$allocator@V?$basic_string@DU?$char_traits@D@std@@V?$allocator@D@2@@std@@@2@@std@@QAE?AV012@H@Z
_TEXT	SEGMENT
__Tmp$ = -12						; size = 4
_this$ = -4						; size = 4
___$ReturnUdt$ = 8					; size = 4
___formal$ = 12						; size = 4
??Eiterator@?$vector@V?$basic_string@DU?$char_traits@D@std@@V?$allocator@D@2@@std@@V?$allocator@V?$basic_string@DU?$char_traits@D@std@@V?$allocator@D@2@@std@@@2@@std@@QAE?AV012@H@Z PROC NEAR ; std::vector<std::basic_string<char,std::char_traits<char>,std::allocator<char> >,std::allocator<std::basic_string<char,std::char_traits<char>,std::allocator<char> > > >::iterator::operator++, COMDAT
; _this$ = ecx

; 235  : 			{	// postincrement

  00000	55		 push	 ebp
  00001	8b ec		 mov	 ebp, esp
  00003	83 ec 10	 sub	 esp, 16			; 00000010H
  00006	b8 cc cc cc cc	 mov	 eax, -858993460		; ccccccccH
  0000b	89 45 f0	 mov	 DWORD PTR [ebp-16], eax
  0000e	89 45 f4	 mov	 DWORD PTR [ebp-12], eax
  00011	89 45 f8	 mov	 DWORD PTR [ebp-8], eax
  00014	89 45 fc	 mov	 DWORD PTR [ebp-4], eax
  00017	89 4d fc	 mov	 DWORD PTR _this$[ebp], ecx

; 236  : 			iterator _Tmp = *this;

  0001a	8b 45 fc	 mov	 eax, DWORD PTR _this$[ebp]
  0001d	8b 08		 mov	 ecx, DWORD PTR [eax]
  0001f	89 4d f4	 mov	 DWORD PTR __Tmp$[ebp], ecx

; 237  : 			++*this;

  00022	8b 4d fc	 mov	 ecx, DWORD PTR _this$[ebp]
  00025	e8 00 00 00 00	 call	 ??Eiterator@?$vector@V?$basic_string@DU?$char_traits@D@std@@V?$allocator@D@2@@std@@V?$allocator@V?$basic_string@DU?$char_traits@D@std@@V?$allocator@D@2@@std@@@2@@std@@QAEAAV012@XZ ; std::vector<std::basic_string<char,std::char_traits<char>,std::allocator<char> >,std::allocator<std::basic_string<char,std::char_traits<char>,std::allocator<char> > > >::iterator::operator++

; 238  : 			return (_Tmp);

  0002a	8b 55 08	 mov	 edx, DWORD PTR ___$ReturnUdt$[ebp]
  0002d	8b 45 f4	 mov	 eax, DWORD PTR __Tmp$[ebp]
  00030	89 02		 mov	 DWORD PTR [edx], eax
  00032	8b 45 08	 mov	 eax, DWORD PTR ___$ReturnUdt$[ebp]

; 239  : 			}

  00035	52		 push	 edx
  00036	8b cd		 mov	 ecx, ebp
  00038	50		 push	 eax
  00039	8d 15 00 00 00
	00		 lea	 edx, DWORD PTR $L89243
  0003f	e8 00 00 00 00	 call	 @_RTC_CheckStackVars@8
  00044	58		 pop	 eax
  00045	5a		 pop	 edx
  00046	83 c4 10	 add	 esp, 16			; 00000010H
  00049	3b ec		 cmp	 ebp, esp
  0004b	e8 00 00 00 00	 call	 __RTC_CheckEsp
  00050	8b e5		 mov	 esp, ebp
  00052	5d		 pop	 ebp
  00053	c2 08 00	 ret	 8
$L89243:
  00056	01 00 00 00	 DD	 1
  0005a	00 00 00 00	 DD	 $L89242
$L89242:
  0005e	f4 ff ff ff	 DD	 -12			; fffffff4H
  00062	04 00 00 00	 DD	 4
  00066	00 00 00 00	 DD	 $L89241
$L89241:
  0006a	5f		 DB	 95			; 0000005fH
  0006b	54		 DB	 84			; 00000054H
  0006c	6d		 DB	 109			; 0000006dH
  0006d	70		 DB	 112			; 00000070H
  0006e	00		 DB	 0
??Eiterator@?$vector@V?$basic_string@DU?$char_traits@D@std@@V?$allocator@D@2@@std@@V?$allocator@V?$basic_string@DU?$char_traits@D@std@@V?$allocator@D@2@@std@@@2@@std@@QAE?AV012@H@Z ENDP ; std::vector<std::basic_string<char,std::char_traits<char>,std::allocator<char> >,std::allocator<std::basic_string<char,std::char_traits<char>,std::allocator<char> > > >::iterator::operator++
_TEXT	ENDS
PUBLIC	??8const_iterator@?$vector@V?$basic_string@DU?$char_traits@D@std@@V?$allocator@D@2@@std@@V?$allocator@V?$basic_string@DU?$char_traits@D@std@@V?$allocator@D@2@@std@@@2@@std@@QBE_NABV012@@Z ; std::vector<std::basic_string<char,std::char_traits<char>,std::allocator<char> >,std::allocator<std::basic_string<char,std::char_traits<char>,std::allocator<char> > > >::const_iterator::operator==
; Function compile flags: /Odt /RTCsu
;	COMDAT ??9const_iterator@?$vector@V?$basic_string@DU?$char_traits@D@std@@V?$allocator@D@2@@std@@V?$allocator@V?$basic_string@DU?$char_traits@D@std@@V?$allocator@D@2@@std@@@2@@std@@QBE_NABV012@@Z
_TEXT	SEGMENT
_this$ = -4						; size = 4
__Right$ = 8						; size = 4
??9const_iterator@?$vector@V?$basic_string@DU?$char_traits@D@std@@V?$allocator@D@2@@std@@V?$allocator@V?$basic_string@DU?$char_traits@D@std@@V?$allocator@D@2@@std@@@2@@std@@QBE_NABV012@@Z PROC NEAR ; std::vector<std::basic_string<char,std::char_traits<char>,std::allocator<char> >,std::allocator<std::basic_string<char,std::char_traits<char>,std::allocator<char> > > >::const_iterator::operator!=, COMDAT
; _this$ = ecx

; 159  : 			{	// test for iterator inequality

  00000	55		 push	 ebp
  00001	8b ec		 mov	 ebp, esp
  00003	51		 push	 ecx
  00004	c7 45 fc cc cc
	cc cc		 mov	 DWORD PTR [ebp-4], -858993460 ; ccccccccH
  0000b	89 4d fc	 mov	 DWORD PTR _this$[ebp], ecx

; 160  : 			return (!(*this == _Right));

  0000e	8b 45 08	 mov	 eax, DWORD PTR __Right$[ebp]
  00011	50		 push	 eax
  00012	8b 4d fc	 mov	 ecx, DWORD PTR _this$[ebp]
  00015	e8 00 00 00 00	 call	 ??8const_iterator@?$vector@V?$basic_string@DU?$char_traits@D@std@@V?$allocator@D@2@@std@@V?$allocator@V?$basic_string@DU?$char_traits@D@std@@V?$allocator@D@2@@std@@@2@@std@@QBE_NABV012@@Z ; std::vector<std::basic_string<char,std::char_traits<char>,std::allocator<char> >,std::allocator<std::basic_string<char,std::char_traits<char>,std::allocator<char> > > >::const_iterator::operator==
  0001a	0f b6 c0	 movzx	 eax, al
  0001d	f7 d8		 neg	 eax
  0001f	1b c0		 sbb	 eax, eax
  00021	40		 inc	 eax

; 161  : 			}

  00022	83 c4 04	 add	 esp, 4
  00025	3b ec		 cmp	 ebp, esp
  00027	e8 00 00 00 00	 call	 __RTC_CheckEsp
  0002c	8b e5		 mov	 esp, ebp
  0002e	5d		 pop	 ebp
  0002f	c2 04 00	 ret	 4
??9const_iterator@?$vector@V?$basic_string@DU?$char_traits@D@std@@V?$allocator@D@2@@std@@V?$allocator@V?$basic_string@DU?$char_traits@D@std@@V?$allocator@D@2@@std@@@2@@std@@QBE_NABV012@@Z ENDP ; std::vector<std::basic_string<char,std::char_traits<char>,std::allocator<char> >,std::allocator<std::basic_string<char,std::char_traits<char>,std::allocator<char> > > >::const_iterator::operator!=
; Function compile flags: /Odt /RTCsu
_TEXT	ENDS
;	COMDAT ?capacity@?$vector@V?$basic_string@DU?$char_traits@D@std@@V?$allocator@D@2@@std@@V?$allocator@V?$basic_string@DU?$char_traits@D@std@@V?$allocator@D@2@@std@@@2@@std@@QBEIXZ
_TEXT	SEGMENT
tv70 = -8						; size = 4
_this$ = -4						; size = 4
?capacity@?$vector@V?$basic_string@DU?$char_traits@D@std@@V?$allocator@D@2@@std@@V?$allocator@V?$basic_string@DU?$char_traits@D@std@@V?$allocator@D@2@@std@@@2@@std@@QBEIXZ PROC NEAR ; std::vector<std::basic_string<char,std::char_traits<char>,std::allocator<char> >,std::allocator<std::basic_string<char,std::char_traits<char>,std::allocator<char> > > >::capacity, COMDAT
; _this$ = ecx

; 457  : 		{	// return current length of allocated storage

  00000	55		 push	 ebp
  00001	8b ec		 mov	 ebp, esp
  00003	83 ec 08	 sub	 esp, 8
  00006	c7 45 f8 cc cc
	cc cc		 mov	 DWORD PTR [ebp-8], -858993460 ; ccccccccH
  0000d	c7 45 fc cc cc
	cc cc		 mov	 DWORD PTR [ebp-4], -858993460 ; ccccccccH
  00014	89 4d fc	 mov	 DWORD PTR _this$[ebp], ecx

; 458  : 		return (_Myfirst == 0 ? 0 : _Myend - _Myfirst);

  00017	8b 45 fc	 mov	 eax, DWORD PTR _this$[ebp]
  0001a	83 78 04 00	 cmp	 DWORD PTR [eax+4], 0
  0001e	75 09		 jne	 SHORT $L89246
  00020	c7 45 f8 00 00
	00 00		 mov	 DWORD PTR tv70[ebp], 0
  00027	eb 17		 jmp	 SHORT $L89247
$L89246:
  00029	8b 4d fc	 mov	 ecx, DWORD PTR _this$[ebp]
  0002c	8b 55 fc	 mov	 edx, DWORD PTR _this$[ebp]
  0002f	8b 41 0c	 mov	 eax, DWORD PTR [ecx+12]
  00032	2b 42 04	 sub	 eax, DWORD PTR [edx+4]
  00035	99		 cdq
  00036	b9 1c 00 00 00	 mov	 ecx, 28			; 0000001cH
  0003b	f7 f9		 idiv	 ecx
  0003d	89 45 f8	 mov	 DWORD PTR tv70[ebp], eax
$L89247:
  00040	8b 45 f8	 mov	 eax, DWORD PTR tv70[ebp]

; 459  : 		}

  00043	8b e5		 mov	 esp, ebp
  00045	5d		 pop	 ebp
  00046	c3		 ret	 0
?capacity@?$vector@V?$basic_string@DU?$char_traits@D@std@@V?$allocator@D@2@@std@@V?$allocator@V?$basic_string@DU?$char_traits@D@std@@V?$allocator@D@2@@std@@@2@@std@@QBEIXZ ENDP ; std::vector<std::basic_string<char,std::char_traits<char>,std::allocator<char> >,std::allocator<std::basic_string<char,std::char_traits<char>,std::allocator<char> > > >::capacity
_TEXT	ENDS
PUBLIC	??0const_iterator@?$vector@V?$basic_string@DU?$char_traits@D@std@@V?$allocator@D@2@@std@@V?$allocator@V?$basic_string@DU?$char_traits@D@std@@V?$allocator@D@2@@std@@@2@@std@@QAE@PAV?$basic_string@DU?$char_traits@D@std@@V?$allocator@D@2@@2@@Z ; std::vector<std::basic_string<char,std::char_traits<char>,std::allocator<char> >,std::allocator<std::basic_string<char,std::char_traits<char>,std::allocator<char> > > >::const_iterator::const_iterator
; Function compile flags: /Odt /RTCsu
;	COMDAT ?begin@?$vector@V?$basic_string@DU?$char_traits@D@std@@V?$allocator@D@2@@std@@V?$allocator@V?$basic_string@DU?$char_traits@D@std@@V?$allocator@D@2@@std@@@2@@std@@QBE?AVconst_iterator@12@XZ
_TEXT	SEGMENT
_this$ = -4						; size = 4
___$ReturnUdt$ = 8					; size = 4
?begin@?$vector@V?$basic_string@DU?$char_traits@D@std@@V?$allocator@D@2@@std@@V?$allocator@V?$basic_string@DU?$char_traits@D@std@@V?$allocator@D@2@@std@@@2@@std@@QBE?AVconst_iterator@12@XZ PROC NEAR ; std::vector<std::basic_string<char,std::char_traits<char>,std::allocator<char> >,std::allocator<std::basic_string<char,std::char_traits<char>,std::allocator<char> > > >::begin, COMDAT
; _this$ = ecx

; 467  : 		{	// return iterator for beginning of nonmutable sequence

  00000	55		 push	 ebp
  00001	8b ec		 mov	 ebp, esp
  00003	51		 push	 ecx
  00004	c7 45 fc cc cc
	cc cc		 mov	 DWORD PTR [ebp-4], -858993460 ; ccccccccH
  0000b	89 4d fc	 mov	 DWORD PTR _this$[ebp], ecx

; 468  : 		return (const_iterator(_Myfirst));

  0000e	8b 45 fc	 mov	 eax, DWORD PTR _this$[ebp]
  00011	8b 48 04	 mov	 ecx, DWORD PTR [eax+4]
  00014	51		 push	 ecx
  00015	8b 4d 08	 mov	 ecx, DWORD PTR ___$ReturnUdt$[ebp]
  00018	e8 00 00 00 00	 call	 ??0const_iterator@?$vector@V?$basic_string@DU?$char_traits@D@std@@V?$allocator@D@2@@std@@V?$allocator@V?$basic_string@DU?$char_traits@D@std@@V?$allocator@D@2@@std@@@2@@std@@QAE@PAV?$basic_string@DU?$char_traits@D@std@@V?$allocator@D@2@@2@@Z ; std::vector<std::basic_string<char,std::char_traits<char>,std::allocator<char> >,std::allocator<std::basic_string<char,std::char_traits<char>,std::allocator<char> > > >::const_iterator::const_iterator
  0001d	8b 45 08	 mov	 eax, DWORD PTR ___$ReturnUdt$[ebp]

; 469  : 		}

  00020	83 c4 04	 add	 esp, 4
  00023	3b ec		 cmp	 ebp, esp
  00025	e8 00 00 00 00	 call	 __RTC_CheckEsp
  0002a	8b e5		 mov	 esp, ebp
  0002c	5d		 pop	 ebp
  0002d	c2 04 00	 ret	 4
?begin@?$vector@V?$basic_string@DU?$char_traits@D@std@@V?$allocator@D@2@@std@@V?$allocator@V?$basic_string@DU?$char_traits@D@std@@V?$allocator@D@2@@std@@@2@@std@@QBE?AVconst_iterator@12@XZ ENDP ; std::vector<std::basic_string<char,std::char_traits<char>,std::allocator<char> >,std::allocator<std::basic_string<char,std::char_traits<char>,std::allocator<char> > > >::begin
_TEXT	ENDS
PUBLIC	??Giterator@?$vector@V?$basic_string@DU?$char_traits@D@std@@V?$allocator@D@2@@std@@V?$allocator@V?$basic_string@DU?$char_traits@D@std@@V?$allocator@D@2@@std@@@2@@std@@QBEHABVconst_iterator@12@@Z ; std::vector<std::basic_string<char,std::char_traits<char>,std::allocator<char> >,std::allocator<std::basic_string<char,std::char_traits<char>,std::allocator<char> > > >::iterator::operator-
PUBLIC	?_Insert_n@?$vector@V?$basic_string@DU?$char_traits@D@std@@V?$allocator@D@2@@std@@V?$allocator@V?$basic_string@DU?$char_traits@D@std@@V?$allocator@D@2@@std@@@2@@std@@IAEXViterator@12@IABV?$basic_string@DU?$char_traits@D@std@@V?$allocator@D@2@@2@@Z ; std::vector<std::basic_string<char,std::char_traits<char>,std::allocator<char> >,std::allocator<std::basic_string<char,std::char_traits<char>,std::allocator<char> > > >::_Insert_n
; Function compile flags: /Odt /RTCsu
;	COMDAT ?insert@?$vector@V?$basic_string@DU?$char_traits@D@std@@V?$allocator@D@2@@std@@V?$allocator@V?$basic_string@DU?$char_traits@D@std@@V?$allocator@D@2@@std@@@2@@std@@QAE?AViterator@12@V312@ABV?$basic_string@DU?$char_traits@D@std@@V?$allocator@D@2@@2@@Z
_TEXT	SEGMENT
tv73 = -20						; size = 4
$T89253 = -16						; size = 4
$T89250 = -12						; size = 4
__Off$ = -8						; size = 4
_this$ = -4						; size = 4
___$ReturnUdt$ = 8					; size = 4
__Where$ = 12						; size = 4
__Val$ = 16						; size = 4
?insert@?$vector@V?$basic_string@DU?$char_traits@D@std@@V?$allocator@D@2@@std@@V?$allocator@V?$basic_string@DU?$char_traits@D@std@@V?$allocator@D@2@@std@@@2@@std@@QAE?AViterator@12@V312@ABV?$basic_string@DU?$char_traits@D@std@@V?$allocator@D@2@@2@@Z PROC NEAR ; std::vector<std::basic_string<char,std::char_traits<char>,std::allocator<char> >,std::allocator<std::basic_string<char,std::char_traits<char>,std::allocator<char> > > >::insert, COMDAT
; _this$ = ecx

; 620  : 		{	// insert _Val at _Where

  00000	55		 push	 ebp
  00001	8b ec		 mov	 ebp, esp
  00003	83 ec 14	 sub	 esp, 20			; 00000014H
  00006	b8 cc cc cc cc	 mov	 eax, -858993460		; ccccccccH
  0000b	89 45 ec	 mov	 DWORD PTR [ebp-20], eax
  0000e	89 45 f0	 mov	 DWORD PTR [ebp-16], eax
  00011	89 45 f4	 mov	 DWORD PTR [ebp-12], eax
  00014	89 45 f8	 mov	 DWORD PTR [ebp-8], eax
  00017	89 45 fc	 mov	 DWORD PTR [ebp-4], eax
  0001a	89 4d fc	 mov	 DWORD PTR _this$[ebp], ecx

; 621  : 		size_type _Off = size() == 0 ? 0 : _Where - begin();

  0001d	8b 4d fc	 mov	 ecx, DWORD PTR _this$[ebp]
  00020	e8 00 00 00 00	 call	 ?size@?$vector@V?$basic_string@DU?$char_traits@D@std@@V?$allocator@D@2@@std@@V?$allocator@V?$basic_string@DU?$char_traits@D@std@@V?$allocator@D@2@@std@@@2@@std@@QBEIXZ ; std::vector<std::basic_string<char,std::char_traits<char>,std::allocator<char> >,std::allocator<std::basic_string<char,std::char_traits<char>,std::allocator<char> > > >::size
  00025	85 c0		 test	 eax, eax
  00027	75 09		 jne	 SHORT $L89251
  00029	c7 45 ec 00 00
	00 00		 mov	 DWORD PTR tv73[ebp], 0
  00030	eb 18		 jmp	 SHORT $L89252
$L89251:
  00032	8d 45 f4	 lea	 eax, DWORD PTR $T89250[ebp]
  00035	50		 push	 eax
  00036	8b 4d fc	 mov	 ecx, DWORD PTR _this$[ebp]
  00039	e8 00 00 00 00	 call	 ?begin@?$vector@V?$basic_string@DU?$char_traits@D@std@@V?$allocator@D@2@@std@@V?$allocator@V?$basic_string@DU?$char_traits@D@std@@V?$allocator@D@2@@std@@@2@@std@@QAE?AViterator@12@XZ ; std::vector<std::basic_string<char,std::char_traits<char>,std::allocator<char> >,std::allocator<std::basic_string<char,std::char_traits<char>,std::allocator<char> > > >::begin
  0003e	50		 push	 eax
  0003f	8d 4d 0c	 lea	 ecx, DWORD PTR __Where$[ebp]
  00042	e8 00 00 00 00	 call	 ??Giterator@?$vector@V?$basic_string@DU?$char_traits@D@std@@V?$allocator@D@2@@std@@V?$allocator@V?$basic_string@DU?$char_traits@D@std@@V?$allocator@D@2@@std@@@2@@std@@QBEHABVconst_iterator@12@@Z ; std::vector<std::basic_string<char,std::char_traits<char>,std::allocator<char> >,std::allocator<std::basic_string<char,std::char_traits<char>,std::allocator<char> > > >::iterator::operator-
  00047	89 45 ec	 mov	 DWORD PTR tv73[ebp], eax
$L89252:
  0004a	8b 4d ec	 mov	 ecx, DWORD PTR tv73[ebp]
  0004d	89 4d f8	 mov	 DWORD PTR __Off$[ebp], ecx

; 622  : 		_Insert_n(_Where, (size_type)1, _Val);

  00050	8b 55 10	 mov	 edx, DWORD PTR __Val$[ebp]
  00053	52		 push	 edx
  00054	6a 01		 push	 1
  00056	8b 45 0c	 mov	 eax, DWORD PTR __Where$[ebp]
  00059	50		 push	 eax
  0005a	8b 4d fc	 mov	 ecx, DWORD PTR _this$[ebp]
  0005d	e8 00 00 00 00	 call	 ?_Insert_n@?$vector@V?$basic_string@DU?$char_traits@D@std@@V?$allocator@D@2@@std@@V?$allocator@V?$basic_string@DU?$char_traits@D@std@@V?$allocator@D@2@@std@@@2@@std@@IAEXViterator@12@IABV?$basic_string@DU?$char_traits@D@std@@V?$allocator@D@2@@2@@Z ; std::vector<std::basic_string<char,std::char_traits<char>,std::allocator<char> >,std::allocator<std::basic_string<char,std::char_traits<char>,std::allocator<char> > > >::_Insert_n

; 623  : 		return (begin() + _Off);

  00062	8b 4d f8	 mov	 ecx, DWORD PTR __Off$[ebp]
  00065	51		 push	 ecx
  00066	8b 55 08	 mov	 edx, DWORD PTR ___$ReturnUdt$[ebp]
  00069	52		 push	 edx
  0006a	8d 45 f0	 lea	 eax, DWORD PTR $T89253[ebp]
  0006d	50		 push	 eax
  0006e	8b 4d fc	 mov	 ecx, DWORD PTR _this$[ebp]
  00071	e8 00 00 00 00	 call	 ?begin@?$vector@V?$basic_string@DU?$char_traits@D@std@@V?$allocator@D@2@@std@@V?$allocator@V?$basic_string@DU?$char_traits@D@std@@V?$allocator@D@2@@std@@@2@@std@@QAE?AViterator@12@XZ ; std::vector<std::basic_string<char,std::char_traits<char>,std::allocator<char> >,std::allocator<std::basic_string<char,std::char_traits<char>,std::allocator<char> > > >::begin
  00076	8b c8		 mov	 ecx, eax
  00078	e8 00 00 00 00	 call	 ??Hiterator@?$vector@V?$basic_string@DU?$char_traits@D@std@@V?$allocator@D@2@@std@@V?$allocator@V?$basic_string@DU?$char_traits@D@std@@V?$allocator@D@2@@std@@@2@@std@@QBE?AV012@H@Z ; std::vector<std::basic_string<char,std::char_traits<char>,std::allocator<char> >,std::allocator<std::basic_string<char,std::char_traits<char>,std::allocator<char> > > >::iterator::operator+
  0007d	8b 45 08	 mov	 eax, DWORD PTR ___$ReturnUdt$[ebp]

; 624  : 		}

  00080	83 c4 14	 add	 esp, 20			; 00000014H
  00083	3b ec		 cmp	 ebp, esp
  00085	e8 00 00 00 00	 call	 __RTC_CheckEsp
  0008a	8b e5		 mov	 esp, ebp
  0008c	5d		 pop	 ebp
  0008d	c2 0c 00	 ret	 12			; 0000000cH
?insert@?$vector@V?$basic_string@DU?$char_traits@D@std@@V?$allocator@D@2@@std@@V?$allocator@V?$basic_string@DU?$char_traits@D@std@@V?$allocator@D@2@@std@@@2@@std@@QAE?AViterator@12@V312@ABV?$basic_string@DU?$char_traits@D@std@@V?$allocator@D@2@@2@@Z ENDP ; std::vector<std::basic_string<char,std::char_traits<char>,std::allocator<char> >,std::allocator<std::basic_string<char,std::char_traits<char>,std::allocator<char> > > >::insert
_TEXT	ENDS
PUBLIC	?allocate@?$allocator@V?$basic_string@DU?$char_traits@D@std@@V?$allocator@D@2@@std@@@std@@QAEPAV?$basic_string@DU?$char_traits@D@std@@V?$allocator@D@2@@2@I@Z ; std::allocator<std::basic_string<char,std::char_traits<char>,std::allocator<char> > >::allocate
PUBLIC	?max_size@?$vector@V?$basic_string@DU?$char_traits@D@std@@V?$allocator@D@2@@std@@V?$allocator@V?$basic_string@DU?$char_traits@D@std@@V?$allocator@D@2@@std@@@2@@std@@QBEIXZ ; std::vector<std::basic_string<char,std::char_traits<char>,std::allocator<char> >,std::allocator<std::basic_string<char,std::char_traits<char>,std::allocator<char> > > >::max_size
PUBLIC	?_Xlen@?$vector@V?$basic_string@DU?$char_traits@D@std@@V?$allocator@D@2@@std@@V?$allocator@V?$basic_string@DU?$char_traits@D@std@@V?$allocator@D@2@@std@@@2@@std@@IBEXXZ ; std::vector<std::basic_string<char,std::char_traits<char>,std::allocator<char> >,std::allocator<std::basic_string<char,std::char_traits<char>,std::allocator<char> > > >::_Xlen
; Function compile flags: /Odt /RTCsu
;	COMDAT ?_Buy@?$vector@V?$basic_string@DU?$char_traits@D@std@@V?$allocator@D@2@@std@@V?$allocator@V?$basic_string@DU?$char_traits@D@std@@V?$allocator@D@2@@std@@@2@@std@@IAE_NI@Z
_TEXT	SEGMENT
_this$ = -4						; size = 4
__Capacity$ = 8						; size = 4
?_Buy@?$vector@V?$basic_string@DU?$char_traits@D@std@@V?$allocator@D@2@@std@@V?$allocator@V?$basic_string@DU?$char_traits@D@std@@V?$allocator@D@2@@std@@@2@@std@@IAE_NI@Z PROC NEAR ; std::vector<std::basic_string<char,std::char_traits<char>,std::allocator<char> >,std::allocator<std::basic_string<char,std::char_traits<char>,std::allocator<char> > > >::_Buy, COMDAT
; _this$ = ecx

; 770  : 		{	// allocate array with _Capacity elements

  00000	55		 push	 ebp
  00001	8b ec		 mov	 ebp, esp
  00003	51		 push	 ecx
  00004	c7 45 fc cc cc
	cc cc		 mov	 DWORD PTR [ebp-4], -858993460 ; ccccccccH
  0000b	89 4d fc	 mov	 DWORD PTR _this$[ebp], ecx

; 771  : 		_Myfirst = 0, _Mylast = 0, _Myend = 0;

  0000e	8b 45 fc	 mov	 eax, DWORD PTR _this$[ebp]
  00011	c7 40 04 00 00
	00 00		 mov	 DWORD PTR [eax+4], 0
  00018	8b 4d fc	 mov	 ecx, DWORD PTR _this$[ebp]
  0001b	c7 41 08 00 00
	00 00		 mov	 DWORD PTR [ecx+8], 0
  00022	8b 55 fc	 mov	 edx, DWORD PTR _this$[ebp]
  00025	c7 42 0c 00 00
	00 00		 mov	 DWORD PTR [edx+12], 0

; 772  : 		if (_Capacity == 0)

  0002c	83 7d 08 00	 cmp	 DWORD PTR __Capacity$[ebp], 0
  00030	75 04		 jne	 SHORT $L86601

; 773  : 			return (false);

  00032	32 c0		 xor	 al, al
  00034	eb 49		 jmp	 SHORT $L86600
$L86601:

; 774  : 		else if (max_size() < _Capacity)

  00036	8b 4d fc	 mov	 ecx, DWORD PTR _this$[ebp]
  00039	e8 00 00 00 00	 call	 ?max_size@?$vector@V?$basic_string@DU?$char_traits@D@std@@V?$allocator@D@2@@std@@V?$allocator@V?$basic_string@DU?$char_traits@D@std@@V?$allocator@D@2@@std@@@2@@std@@QBEIXZ ; std::vector<std::basic_string<char,std::char_traits<char>,std::allocator<char> >,std::allocator<std::basic_string<char,std::char_traits<char>,std::allocator<char> > > >::max_size
  0003e	3b 45 08	 cmp	 eax, DWORD PTR __Capacity$[ebp]
  00041	73 0a		 jae	 SHORT $L86603

; 775  : 			_Xlen();	// result too long

  00043	8b 4d fc	 mov	 ecx, DWORD PTR _this$[ebp]
  00046	e8 00 00 00 00	 call	 ?_Xlen@?$vector@V?$basic_string@DU?$char_traits@D@std@@V?$allocator@D@2@@std@@V?$allocator@V?$basic_string@DU?$char_traits@D@std@@V?$allocator@D@2@@std@@@2@@std@@IBEXXZ ; std::vector<std::basic_string<char,std::char_traits<char>,std::allocator<char> >,std::allocator<std::basic_string<char,std::char_traits<char>,std::allocator<char> > > >::_Xlen

; 776  : 		else

  0004b	eb 30		 jmp	 SHORT $L86602
$L86603:

; 777  : 			{	// nonempty array, allocate storage
; 778  : 			_Myfirst = this->_Alval.allocate(_Capacity);

  0004d	8b 45 08	 mov	 eax, DWORD PTR __Capacity$[ebp]
  00050	50		 push	 eax
  00051	8b 4d fc	 mov	 ecx, DWORD PTR _this$[ebp]
  00054	e8 00 00 00 00	 call	 ?allocate@?$allocator@V?$basic_string@DU?$char_traits@D@std@@V?$allocator@D@2@@std@@@std@@QAEPAV?$basic_string@DU?$char_traits@D@std@@V?$allocator@D@2@@2@I@Z ; std::allocator<std::basic_string<char,std::char_traits<char>,std::allocator<char> > >::allocate
  00059	8b 4d fc	 mov	 ecx, DWORD PTR _this$[ebp]
  0005c	89 41 04	 mov	 DWORD PTR [ecx+4], eax

; 779  : 			_Mylast = _Myfirst;

  0005f	8b 55 fc	 mov	 edx, DWORD PTR _this$[ebp]
  00062	8b 45 fc	 mov	 eax, DWORD PTR _this$[ebp]
  00065	8b 48 04	 mov	 ecx, DWORD PTR [eax+4]
  00068	89 4a 08	 mov	 DWORD PTR [edx+8], ecx

; 780  : 			_Myend = _Myfirst + _Capacity;

  0006b	8b 55 08	 mov	 edx, DWORD PTR __Capacity$[ebp]
  0006e	6b d2 1c	 imul	 edx, 28			; 0000001cH
  00071	8b 45 fc	 mov	 eax, DWORD PTR _this$[ebp]
  00074	03 50 04	 add	 edx, DWORD PTR [eax+4]
  00077	8b 4d fc	 mov	 ecx, DWORD PTR _this$[ebp]
  0007a	89 51 0c	 mov	 DWORD PTR [ecx+12], edx
$L86602:

; 781  : 			}
; 782  : 		return (true);

  0007d	b0 01		 mov	 al, 1
$L86600:

; 783  : 		}

  0007f	83 c4 04	 add	 esp, 4
  00082	3b ec		 cmp	 ebp, esp
  00084	e8 00 00 00 00	 call	 __RTC_CheckEsp
  00089	8b e5		 mov	 esp, ebp
  0008b	5d		 pop	 ebp
  0008c	c2 04 00	 ret	 4
?_Buy@?$vector@V?$basic_string@DU?$char_traits@D@std@@V?$allocator@D@2@@std@@V?$allocator@V?$basic_string@DU?$char_traits@D@std@@V?$allocator@D@2@@std@@@2@@std@@IAE_NI@Z ENDP ; std::vector<std::basic_string<char,std::char_traits<char>,std::allocator<char> >,std::allocator<std::basic_string<char,std::char_traits<char>,std::allocator<char> > > >::_Buy
_TEXT	ENDS
PUBLIC	?deallocate@?$allocator@V?$basic_string@DU?$char_traits@D@std@@V?$allocator@D@2@@std@@@std@@QAEXPAV?$basic_string@DU?$char_traits@D@std@@V?$allocator@D@2@@2@I@Z ; std::allocator<std::basic_string<char,std::char_traits<char>,std::allocator<char> > >::deallocate
PUBLIC	?_Destroy@?$vector@V?$basic_string@DU?$char_traits@D@std@@V?$allocator@D@2@@std@@V?$allocator@V?$basic_string@DU?$char_traits@D@std@@V?$allocator@D@2@@std@@@2@@std@@IAEXPAV?$basic_string@DU?$char_traits@D@std@@V?$allocator@D@2@@2@0@Z ; std::vector<std::basic_string<char,std::char_traits<char>,std::allocator<char> >,std::allocator<std::basic_string<char,std::char_traits<char>,std::allocator<char> > > >::_Destroy
; Function compile flags: /Odt /RTCsu
;	COMDAT ?_Tidy@?$vector@V?$basic_string@DU?$char_traits@D@std@@V?$allocator@D@2@@std@@V?$allocator@V?$basic_string@DU?$char_traits@D@std@@V?$allocator@D@2@@std@@@2@@std@@IAEXXZ
_TEXT	SEGMENT
_this$ = -4						; size = 4
?_Tidy@?$vector@V?$basic_string@DU?$char_traits@D@std@@V?$allocator@D@2@@std@@V?$allocator@V?$basic_string@DU?$char_traits@D@std@@V?$allocator@D@2@@std@@@2@@std@@IAEXXZ PROC NEAR ; std::vector<std::basic_string<char,std::char_traits<char>,std::allocator<char> >,std::allocator<std::basic_string<char,std::char_traits<char>,std::allocator<char> > > >::_Tidy, COMDAT
; _this$ = ecx

; 791  : 		{	// free all storage

  00000	55		 push	 ebp
  00001	8b ec		 mov	 ebp, esp
  00003	51		 push	 ecx
  00004	c7 45 fc cc cc
	cc cc		 mov	 DWORD PTR [ebp-4], -858993460 ; ccccccccH
  0000b	89 4d fc	 mov	 DWORD PTR _this$[ebp], ecx

; 792  : 		if (_Myfirst != 0)

  0000e	8b 45 fc	 mov	 eax, DWORD PTR _this$[ebp]
  00011	83 78 04 00	 cmp	 DWORD PTR [eax+4], 0
  00015	74 3c		 je	 SHORT $L86607

; 793  : 			{	// something to free, destroy and deallocate it
; 794  : 			_Destroy(_Myfirst, _Mylast);

  00017	8b 4d fc	 mov	 ecx, DWORD PTR _this$[ebp]
  0001a	8b 51 08	 mov	 edx, DWORD PTR [ecx+8]
  0001d	52		 push	 edx
  0001e	8b 45 fc	 mov	 eax, DWORD PTR _this$[ebp]
  00021	8b 48 04	 mov	 ecx, DWORD PTR [eax+4]
  00024	51		 push	 ecx
  00025	8b 4d fc	 mov	 ecx, DWORD PTR _this$[ebp]
  00028	e8 00 00 00 00	 call	 ?_Destroy@?$vector@V?$basic_string@DU?$char_traits@D@std@@V?$allocator@D@2@@std@@V?$allocator@V?$basic_string@DU?$char_traits@D@std@@V?$allocator@D@2@@std@@@2@@std@@IAEXPAV?$basic_string@DU?$char_traits@D@std@@V?$allocator@D@2@@2@0@Z ; std::vector<std::basic_string<char,std::char_traits<char>,std::allocator<char> >,std::allocator<std::basic_string<char,std::char_traits<char>,std::allocator<char> > > >::_Destroy

; 795  : 			this->_Alval.deallocate(_Myfirst, _Myend - _Myfirst);

  0002d	8b 55 fc	 mov	 edx, DWORD PTR _this$[ebp]
  00030	8b 45 fc	 mov	 eax, DWORD PTR _this$[ebp]
  00033	8b 4a 0c	 mov	 ecx, DWORD PTR [edx+12]
  00036	2b 48 04	 sub	 ecx, DWORD PTR [eax+4]
  00039	8b c1		 mov	 eax, ecx
  0003b	99		 cdq
  0003c	b9 1c 00 00 00	 mov	 ecx, 28			; 0000001cH
  00041	f7 f9		 idiv	 ecx
  00043	50		 push	 eax
  00044	8b 55 fc	 mov	 edx, DWORD PTR _this$[ebp]
  00047	8b 42 04	 mov	 eax, DWORD PTR [edx+4]
  0004a	50		 push	 eax
  0004b	8b 4d fc	 mov	 ecx, DWORD PTR _this$[ebp]
  0004e	e8 00 00 00 00	 call	 ?deallocate@?$allocator@V?$basic_string@DU?$char_traits@D@std@@V?$allocator@D@2@@std@@@std@@QAEXPAV?$basic_string@DU?$char_traits@D@std@@V?$allocator@D@2@@2@I@Z ; std::allocator<std::basic_string<char,std::char_traits<char>,std::allocator<char> > >::deallocate
$L86607:

; 796  : 			}
; 797  : 		_Myfirst = 0, _Mylast = 0, _Myend = 0;

  00053	8b 4d fc	 mov	 ecx, DWORD PTR _this$[ebp]
  00056	c7 41 04 00 00
	00 00		 mov	 DWORD PTR [ecx+4], 0
  0005d	8b 55 fc	 mov	 edx, DWORD PTR _this$[ebp]
  00060	c7 42 08 00 00
	00 00		 mov	 DWORD PTR [edx+8], 0
  00067	8b 45 fc	 mov	 eax, DWORD PTR _this$[ebp]
  0006a	c7 40 0c 00 00
	00 00		 mov	 DWORD PTR [eax+12], 0

; 798  : 		}

  00071	83 c4 04	 add	 esp, 4
  00074	3b ec		 cmp	 ebp, esp
  00076	e8 00 00 00 00	 call	 __RTC_CheckEsp
  0007b	8b e5		 mov	 esp, ebp
  0007d	5d		 pop	 ebp
  0007e	c3		 ret	 0
?_Tidy@?$vector@V?$basic_string@DU?$char_traits@D@std@@V?$allocator@D@2@@std@@V?$allocator@V?$basic_string@DU?$char_traits@D@std@@V?$allocator@D@2@@std@@@2@@std@@IAEXXZ ENDP ; std::vector<std::basic_string<char,std::char_traits<char>,std::allocator<char> >,std::allocator<std::basic_string<char,std::char_traits<char>,std::allocator<char> > > >::_Tidy
_TEXT	ENDS
PUBLIC	??$_Uninitialized_fill_n@PAV?$basic_string@DU?$char_traits@D@std@@V?$allocator@D@2@@std@@IV12@V?$allocator@V?$basic_string@DU?$char_traits@D@std@@V?$allocator@D@2@@std@@@2@@std@@YAXPAV?$basic_string@DU?$char_traits@D@std@@V?$allocator@D@2@@0@IABV10@AAV?$allocator@V?$basic_string@DU?$char_traits@D@std@@V?$allocator@D@2@@std@@@0@@Z ; std::_Uninitialized_fill_n<std::basic_string<char,std::char_traits<char>,std::allocator<char> > *,unsigned int,std::basic_string<char,std::char_traits<char>,std::allocator<char> >,std::allocator<std::basic_string<char,std::char_traits<char>,std::allocator<char> > > >
; Function compile flags: /Odt /RTCsu
;	COMDAT ?_Ufill@?$vector@V?$basic_string@DU?$char_traits@D@std@@V?$allocator@D@2@@std@@V?$allocator@V?$basic_string@DU?$char_traits@D@std@@V?$allocator@D@2@@std@@@2@@std@@IAEPAV?$basic_string@DU?$char_traits@D@std@@V?$allocator@D@2@@2@PAV32@IABV32@@Z
_TEXT	SEGMENT
_this$ = -4						; size = 4
__Ptr$ = 8						; size = 4
__Count$ = 12						; size = 4
__Val$ = 16						; size = 4
?_Ufill@?$vector@V?$basic_string@DU?$char_traits@D@std@@V?$allocator@D@2@@std@@V?$allocator@V?$basic_string@DU?$char_traits@D@std@@V?$allocator@D@2@@std@@@2@@std@@IAEPAV?$basic_string@DU?$char_traits@D@std@@V?$allocator@D@2@@2@PAV32@IABV32@@Z PROC NEAR ; std::vector<std::basic_string<char,std::char_traits<char>,std::allocator<char> >,std::allocator<std::basic_string<char,std::char_traits<char>,std::allocator<char> > > >::_Ufill, COMDAT
; _this$ = ecx

; 877  : 		{	// copy initializing _Count * _Val, using allocator

  00000	55		 push	 ebp
  00001	8b ec		 mov	 ebp, esp
  00003	51		 push	 ecx
  00004	c7 45 fc cc cc
	cc cc		 mov	 DWORD PTR [ebp-4], -858993460 ; ccccccccH
  0000b	89 4d fc	 mov	 DWORD PTR _this$[ebp], ecx

; 878  : 		_Uninitialized_fill_n(_Ptr, _Count, _Val, this->_Alval);

  0000e	8b 45 fc	 mov	 eax, DWORD PTR _this$[ebp]
  00011	50		 push	 eax
  00012	8b 4d 10	 mov	 ecx, DWORD PTR __Val$[ebp]
  00015	51		 push	 ecx
  00016	8b 55 0c	 mov	 edx, DWORD PTR __Count$[ebp]
  00019	52		 push	 edx
  0001a	8b 45 08	 mov	 eax, DWORD PTR __Ptr$[ebp]
  0001d	50		 push	 eax
  0001e	e8 00 00 00 00	 call	 ??$_Uninitialized_fill_n@PAV?$basic_string@DU?$char_traits@D@std@@V?$allocator@D@2@@std@@IV12@V?$allocator@V?$basic_string@DU?$char_traits@D@std@@V?$allocator@D@2@@std@@@2@@std@@YAXPAV?$basic_string@DU?$char_traits@D@std@@V?$allocator@D@2@@0@IABV10@AAV?$allocator@V?$basic_string@DU?$char_traits@D@std@@V?$allocator@D@2@@std@@@0@@Z ; std::_Uninitialized_fill_n<std::basic_string<char,std::char_traits<char>,std::allocator<char> > *,unsigned int,std::basic_string<char,std::char_traits<char>,std::allocator<char> >,std::allocator<std::basic_string<char,std::char_traits<char>,std::allocator<char> > > >
  00023	83 c4 10	 add	 esp, 16			; 00000010H

; 879  : 		return (_Ptr + _Count);

  00026	8b 45 0c	 mov	 eax, DWORD PTR __Count$[ebp]
  00029	6b c0 1c	 imul	 eax, 28			; 0000001cH
  0002c	03 45 08	 add	 eax, DWORD PTR __Ptr$[ebp]

; 880  : 		}

  0002f	83 c4 04	 add	 esp, 4
  00032	3b ec		 cmp	 ebp, esp
  00034	e8 00 00 00 00	 call	 __RTC_CheckEsp
  00039	8b e5		 mov	 esp, ebp
  0003b	5d		 pop	 ebp
  0003c	c2 0c 00	 ret	 12			; 0000000cH
?_Ufill@?$vector@V?$basic_string@DU?$char_traits@D@std@@V?$allocator@D@2@@std@@V?$allocator@V?$basic_string@DU?$char_traits@D@std@@V?$allocator@D@2@@std@@@2@@std@@IAEPAV?$basic_string@DU?$char_traits@D@std@@V?$allocator@D@2@@2@PAV32@IABV32@@Z ENDP ; std::vector<std::basic_string<char,std::char_traits<char>,std::allocator<char> >,std::allocator<std::basic_string<char,std::char_traits<char>,std::allocator<char> > > >::_Ufill
_TEXT	ENDS
PUBLIC	??0?$allocator@V?$basic_string@DU?$char_traits@D@std@@V?$allocator@D@2@@std@@@std@@QAE@ABV01@@Z ; std::allocator<std::basic_string<char,std::char_traits<char>,std::allocator<char> > >::allocator<std::basic_string<char,std::char_traits<char>,std::allocator<char> > >
; Function compile flags: /Odt /RTCsu
;	COMDAT ??0?$_Vector_val@V?$basic_string@DU?$char_traits@D@std@@V?$allocator@D@2@@std@@V?$allocator@V?$basic_string@DU?$char_traits@D@std@@V?$allocator@D@2@@std@@@2@@std@@IAE@V?$allocator@V?$basic_string@DU?$char_traits@D@std@@V?$allocator@D@2@@std@@@1@@Z
_TEXT	SEGMENT
_this$ = -4						; size = 4
__Al$ = 8						; size = 1
??0?$_Vector_val@V?$basic_string@DU?$char_traits@D@std@@V?$allocator@D@2@@std@@V?$allocator@V?$basic_string@DU?$char_traits@D@std@@V?$allocator@D@2@@std@@@2@@std@@IAE@V?$allocator@V?$basic_string@DU?$char_traits@D@std@@V?$allocator@D@2@@std@@@1@@Z PROC NEAR ; std::_Vector_val<std::basic_string<char,std::char_traits<char>,std::allocator<char> >,std::allocator<std::basic_string<char,std::char_traits<char>,std::allocator<char> > > >::_Vector_val<std::basic_string<char,std::char_traits<char>,std::allocator<char> >,std::allocator<std::basic_string<char,std::char_traits<char>,std::allocator<char> > > >, COMDAT
; _this$ = ecx

; 21   : 		{	// construct allocator from _Al

  00000	55		 push	 ebp
  00001	8b ec		 mov	 ebp, esp
  00003	51		 push	 ecx
  00004	c7 45 fc cc cc
	cc cc		 mov	 DWORD PTR [ebp-4], -858993460 ; ccccccccH
  0000b	89 4d fc	 mov	 DWORD PTR _this$[ebp], ecx
  0000e	8d 45 08	 lea	 eax, DWORD PTR __Al$[ebp]
  00011	50		 push	 eax
  00012	8b 4d fc	 mov	 ecx, DWORD PTR _this$[ebp]
  00015	e8 00 00 00 00	 call	 ??0?$allocator@V?$basic_string@DU?$char_traits@D@std@@V?$allocator@D@2@@std@@@std@@QAE@ABV01@@Z ; std::allocator<std::basic_string<char,std::char_traits<char>,std::allocator<char> > >::allocator<std::basic_string<char,std::char_traits<char>,std::allocator<char> > >

; 22   : 		}

  0001a	8b 45 fc	 mov	 eax, DWORD PTR _this$[ebp]
  0001d	83 c4 04	 add	 esp, 4
  00020	3b ec		 cmp	 ebp, esp
  00022	e8 00 00 00 00	 call	 __RTC_CheckEsp
  00027	8b e5		 mov	 esp, ebp
  00029	5d		 pop	 ebp
  0002a	c2 04 00	 ret	 4
??0?$_Vector_val@V?$basic_string@DU?$char_traits@D@std@@V?$allocator@D@2@@std@@V?$allocator@V?$basic_string@DU?$char_traits@D@std@@V?$allocator@D@2@@std@@@2@@std@@IAE@V?$allocator@V?$basic_string@DU?$char_traits@D@std@@V?$allocator@D@2@@std@@@1@@Z ENDP ; std::_Vector_val<std::basic_string<char,std::char_traits<char>,std::allocator<char> >,std::allocator<std::basic_string<char,std::char_traits<char>,std::allocator<char> > > >::_Vector_val<std::basic_string<char,std::char_traits<char>,std::allocator<char> >,std::allocator<std::basic_string<char,std::char_traits<char>,std::allocator<char> > > >
; Function compile flags: /Odt /RTCsu
; File d:\program files (x86)\microsoft visual studio .net 2003\vc7\include\xmemory
_TEXT	ENDS
;	COMDAT ??0?$allocator@V?$basic_string@DU?$char_traits@D@std@@V?$allocator@D@2@@std@@@std@@QAE@XZ
_TEXT	SEGMENT
_this$ = -4						; size = 4
??0?$allocator@V?$basic_string@DU?$char_traits@D@std@@V?$allocator@D@2@@std@@@std@@QAE@XZ PROC NEAR ; std::allocator<std::basic_string<char,std::char_traits<char>,std::allocator<char> > >::allocator<std::basic_string<char,std::char_traits<char>,std::allocator<char> > >, COMDAT
; _this$ = ecx

; 111  : 	allocator()

  00000	55		 push	 ebp
  00001	8b ec		 mov	 ebp, esp
  00003	51		 push	 ecx
  00004	c7 45 fc cc cc
	cc cc		 mov	 DWORD PTR [ebp-4], -858993460 ; ccccccccH
  0000b	89 4d fc	 mov	 DWORD PTR _this$[ebp], ecx

; 112  : 		{	// construct default allocator (do nothing)
; 113  : 		}

  0000e	8b 45 fc	 mov	 eax, DWORD PTR _this$[ebp]
  00011	8b e5		 mov	 esp, ebp
  00013	5d		 pop	 ebp
  00014	c3		 ret	 0
??0?$allocator@V?$basic_string@DU?$char_traits@D@std@@V?$allocator@D@2@@std@@@std@@QAE@XZ ENDP ; std::allocator<std::basic_string<char,std::char_traits<char>,std::allocator<char> > >::allocator<std::basic_string<char,std::char_traits<char>,std::allocator<char> > >
; Function compile flags: /Odt /RTCsu
; File d:\program files (x86)\microsoft visual studio .net 2003\vc7\include\vector
_TEXT	ENDS
;	COMDAT ??0iterator@?$vector@V?$basic_string@DU?$char_traits@D@std@@V?$allocator@D@2@@std@@V?$allocator@V?$basic_string@DU?$char_traits@D@std@@V?$allocator@D@2@@std@@@2@@std@@QAE@PAV?$basic_string@DU?$char_traits@D@std@@V?$allocator@D@2@@2@@Z
_TEXT	SEGMENT
_this$ = -4						; size = 4
__Ptr$ = 8						; size = 4
??0iterator@?$vector@V?$basic_string@DU?$char_traits@D@std@@V?$allocator@D@2@@std@@V?$allocator@V?$basic_string@DU?$char_traits@D@std@@V?$allocator@D@2@@std@@@2@@std@@QAE@PAV?$basic_string@DU?$char_traits@D@std@@V?$allocator@D@2@@2@@Z PROC NEAR ; std::vector<std::basic_string<char,std::char_traits<char>,std::allocator<char> >,std::allocator<std::basic_string<char,std::char_traits<char>,std::allocator<char> > > >::iterator::iterator, COMDAT
; _this$ = ecx

; 215  : 			{	// construct with pointer _Ptr

  00000	55		 push	 ebp
  00001	8b ec		 mov	 ebp, esp
  00003	51		 push	 ecx
  00004	c7 45 fc cc cc
	cc cc		 mov	 DWORD PTR [ebp-4], -858993460 ; ccccccccH
  0000b	89 4d fc	 mov	 DWORD PTR _this$[ebp], ecx
  0000e	8b 45 08	 mov	 eax, DWORD PTR __Ptr$[ebp]
  00011	50		 push	 eax
  00012	8b 4d fc	 mov	 ecx, DWORD PTR _this$[ebp]
  00015	e8 00 00 00 00	 call	 ??0const_iterator@?$vector@V?$basic_string@DU?$char_traits@D@std@@V?$allocator@D@2@@std@@V?$allocator@V?$basic_string@DU?$char_traits@D@std@@V?$allocator@D@2@@std@@@2@@std@@QAE@PAV?$basic_string@DU?$char_traits@D@std@@V?$allocator@D@2@@2@@Z ; std::vector<std::basic_string<char,std::char_traits<char>,std::allocator<char> >,std::allocator<std::basic_string<char,std::char_traits<char>,std::allocator<char> > > >::const_iterator::const_iterator

; 216  : 			}

  0001a	8b 45 fc	 mov	 eax, DWORD PTR _this$[ebp]
  0001d	83 c4 04	 add	 esp, 4
  00020	3b ec		 cmp	 ebp, esp
  00022	e8 00 00 00 00	 call	 __RTC_CheckEsp
  00027	8b e5		 mov	 esp, ebp
  00029	5d		 pop	 ebp
  0002a	c2 04 00	 ret	 4
??0iterator@?$vector@V?$basic_string@DU?$char_traits@D@std@@V?$allocator@D@2@@std@@V?$allocator@V?$basic_string@DU?$char_traits@D@std@@V?$allocator@D@2@@std@@@2@@std@@QAE@PAV?$basic_string@DU?$char_traits@D@std@@V?$allocator@D@2@@2@@Z ENDP ; std::vector<std::basic_string<char,std::char_traits<char>,std::allocator<char> >,std::allocator<std::basic_string<char,std::char_traits<char>,std::allocator<char> > > >::iterator::iterator
; Function compile flags: /Odt /RTCsu
_TEXT	ENDS
;	COMDAT ??Eiterator@?$vector@V?$basic_string@DU?$char_traits@D@std@@V?$allocator@D@2@@std@@V?$allocator@V?$basic_string@DU?$char_traits@D@std@@V?$allocator@D@2@@std@@@2@@std@@QAEAAV012@XZ
_TEXT	SEGMENT
_this$ = -4						; size = 4
??Eiterator@?$vector@V?$basic_string@DU?$char_traits@D@std@@V?$allocator@D@2@@std@@V?$allocator@V?$basic_string@DU?$char_traits@D@std@@V?$allocator@D@2@@std@@@2@@std@@QAEAAV012@XZ PROC NEAR ; std::vector<std::basic_string<char,std::char_traits<char>,std::allocator<char> >,std::allocator<std::basic_string<char,std::char_traits<char>,std::allocator<char> > > >::iterator::operator++, COMDAT
; _this$ = ecx

; 229  : 			{	// preincrement

  00000	55		 push	 ebp
  00001	8b ec		 mov	 ebp, esp
  00003	51		 push	 ecx
  00004	c7 45 fc cc cc
	cc cc		 mov	 DWORD PTR [ebp-4], -858993460 ; ccccccccH
  0000b	89 4d fc	 mov	 DWORD PTR _this$[ebp], ecx

; 230  : 			++this->_Myptr;

  0000e	8b 45 fc	 mov	 eax, DWORD PTR _this$[ebp]
  00011	8b 08		 mov	 ecx, DWORD PTR [eax]
  00013	83 c1 1c	 add	 ecx, 28			; 0000001cH
  00016	8b 55 fc	 mov	 edx, DWORD PTR _this$[ebp]
  00019	89 0a		 mov	 DWORD PTR [edx], ecx

; 231  : 			return (*this);

  0001b	8b 45 fc	 mov	 eax, DWORD PTR _this$[ebp]

; 232  : 			}

  0001e	8b e5		 mov	 esp, ebp
  00020	5d		 pop	 ebp
  00021	c3		 ret	 0
??Eiterator@?$vector@V?$basic_string@DU?$char_traits@D@std@@V?$allocator@D@2@@std@@V?$allocator@V?$basic_string@DU?$char_traits@D@std@@V?$allocator@D@2@@std@@@2@@std@@QAEAAV012@XZ ENDP ; std::vector<std::basic_string<char,std::char_traits<char>,std::allocator<char> >,std::allocator<std::basic_string<char,std::char_traits<char>,std::allocator<char> > > >::iterator::operator++
_TEXT	ENDS
PUBLIC	??Yiterator@?$vector@V?$basic_string@DU?$char_traits@D@std@@V?$allocator@D@2@@std@@V?$allocator@V?$basic_string@DU?$char_traits@D@std@@V?$allocator@D@2@@std@@@2@@std@@QAEAAV012@H@Z ; std::vector<std::basic_string<char,std::char_traits<char>,std::allocator<char> >,std::allocator<std::basic_string<char,std::char_traits<char>,std::allocator<char> > > >::iterator::operator+=
; Function compile flags: /Odt /RTCsu
;	COMDAT ??Hiterator@?$vector@V?$basic_string@DU?$char_traits@D@std@@V?$allocator@D@2@@std@@V?$allocator@V?$basic_string@DU?$char_traits@D@std@@V?$allocator@D@2@@std@@@2@@std@@QBE?AV012@H@Z
_TEXT	SEGMENT
__Tmp$ = -12						; size = 4
_this$ = -4						; size = 4
___$ReturnUdt$ = 8					; size = 4
__Off$ = 12						; size = 4
??Hiterator@?$vector@V?$basic_string@DU?$char_traits@D@std@@V?$allocator@D@2@@std@@V?$allocator@V?$basic_string@DU?$char_traits@D@std@@V?$allocator@D@2@@std@@@2@@std@@QBE?AV012@H@Z PROC NEAR ; std::vector<std::basic_string<char,std::char_traits<char>,std::allocator<char> >,std::allocator<std::basic_string<char,std::char_traits<char>,std::allocator<char> > > >::iterator::operator+, COMDAT
; _this$ = ecx

; 261  : 			{	// return this + integer

  00000	55		 push	 ebp
  00001	8b ec		 mov	 ebp, esp
  00003	83 ec 10	 sub	 esp, 16			; 00000010H
  00006	b8 cc cc cc cc	 mov	 eax, -858993460		; ccccccccH
  0000b	89 45 f0	 mov	 DWORD PTR [ebp-16], eax
  0000e	89 45 f4	 mov	 DWORD PTR [ebp-12], eax
  00011	89 45 f8	 mov	 DWORD PTR [ebp-8], eax
  00014	89 45 fc	 mov	 DWORD PTR [ebp-4], eax
  00017	89 4d fc	 mov	 DWORD PTR _this$[ebp], ecx

; 262  : 			iterator _Tmp = *this;

  0001a	8b 45 fc	 mov	 eax, DWORD PTR _this$[ebp]
  0001d	8b 08		 mov	 ecx, DWORD PTR [eax]
  0001f	89 4d f4	 mov	 DWORD PTR __Tmp$[ebp], ecx

; 263  : 			return (_Tmp += _Off);

  00022	8b 55 0c	 mov	 edx, DWORD PTR __Off$[ebp]
  00025	52		 push	 edx
  00026	8d 4d f4	 lea	 ecx, DWORD PTR __Tmp$[ebp]
  00029	e8 00 00 00 00	 call	 ??Yiterator@?$vector@V?$basic_string@DU?$char_traits@D@std@@V?$allocator@D@2@@std@@V?$allocator@V?$basic_string@DU?$char_traits@D@std@@V?$allocator@D@2@@std@@@2@@std@@QAEAAV012@H@Z ; std::vector<std::basic_string<char,std::char_traits<char>,std::allocator<char> >,std::allocator<std::basic_string<char,std::char_traits<char>,std::allocator<char> > > >::iterator::operator+=
  0002e	8b 00		 mov	 eax, DWORD PTR [eax]
  00030	8b 4d 08	 mov	 ecx, DWORD PTR ___$ReturnUdt$[ebp]
  00033	89 01		 mov	 DWORD PTR [ecx], eax
  00035	8b 45 08	 mov	 eax, DWORD PTR ___$ReturnUdt$[ebp]

; 264  : 			}

  00038	52		 push	 edx
  00039	8b cd		 mov	 ecx, ebp
  0003b	50		 push	 eax
  0003c	8d 15 00 00 00
	00		 lea	 edx, DWORD PTR $L89264
  00042	e8 00 00 00 00	 call	 @_RTC_CheckStackVars@8
  00047	58		 pop	 eax
  00048	5a		 pop	 edx
  00049	83 c4 10	 add	 esp, 16			; 00000010H
  0004c	3b ec		 cmp	 ebp, esp
  0004e	e8 00 00 00 00	 call	 __RTC_CheckEsp
  00053	8b e5		 mov	 esp, ebp
  00055	5d		 pop	 ebp
  00056	c2 08 00	 ret	 8
$L89264:
  00059	01 00 00 00	 DD	 1
  0005d	00 00 00 00	 DD	 $L89263
$L89263:
  00061	f4 ff ff ff	 DD	 -12			; fffffff4H
  00065	04 00 00 00	 DD	 4
  00069	00 00 00 00	 DD	 $L89262
$L89262:
  0006d	5f		 DB	 95			; 0000005fH
  0006e	54		 DB	 84			; 00000054H
  0006f	6d		 DB	 109			; 0000006dH
  00070	70		 DB	 112			; 00000070H
  00071	00		 DB	 0
??Hiterator@?$vector@V?$basic_string@DU?$char_traits@D@std@@V?$allocator@D@2@@std@@V?$allocator@V?$basic_string@DU?$char_traits@D@std@@V?$allocator@D@2@@std@@@2@@std@@QBE?AV012@H@Z ENDP ; std::vector<std::basic_string<char,std::char_traits<char>,std::allocator<char> >,std::allocator<std::basic_string<char,std::char_traits<char>,std::allocator<char> > > >::iterator::operator+
; Function compile flags: /Odt /RTCsu
_TEXT	ENDS
;	COMDAT ??Dconst_iterator@?$vector@V?$basic_string@DU?$char_traits@D@std@@V?$allocator@D@2@@std@@V?$allocator@V?$basic_string@DU?$char_traits@D@std@@V?$allocator@D@2@@std@@@2@@std@@QBEABV?$basic_string@DU?$char_traits@D@std@@V?$allocator@D@2@@2@XZ
_TEXT	SEGMENT
_this$ = -4						; size = 4
??Dconst_iterator@?$vector@V?$basic_string@DU?$char_traits@D@std@@V?$allocator@D@2@@std@@V?$allocator@V?$basic_string@DU?$char_traits@D@std@@V?$allocator@D@2@@std@@@2@@std@@QBEABV?$basic_string@DU?$char_traits@D@std@@V?$allocator@D@2@@2@XZ PROC NEAR ; std::vector<std::basic_string<char,std::char_traits<char>,std::allocator<char> >,std::allocator<std::basic_string<char,std::char_traits<char>,std::allocator<char> > > >::const_iterator::operator*, COMDAT
; _this$ = ecx

; 79   : 			{	// return designated object

  00000	55		 push	 ebp
  00001	8b ec		 mov	 ebp, esp
  00003	51		 push	 ecx
  00004	c7 45 fc cc cc
	cc cc		 mov	 DWORD PTR [ebp-4], -858993460 ; ccccccccH
  0000b	89 4d fc	 mov	 DWORD PTR _this$[ebp], ecx

; 80   : 
; 81   : 
; 82   : 			return (*_Myptr);

  0000e	8b 45 fc	 mov	 eax, DWORD PTR _this$[ebp]
  00011	8b 00		 mov	 eax, DWORD PTR [eax]

; 83   : 			}

  00013	8b e5		 mov	 esp, ebp
  00015	5d		 pop	 ebp
  00016	c3		 ret	 0
??Dconst_iterator@?$vector@V?$basic_string@DU?$char_traits@D@std@@V?$allocator@D@2@@std@@V?$allocator@V?$basic_string@DU?$char_traits@D@std@@V?$allocator@D@2@@std@@@2@@std@@QBEABV?$basic_string@DU?$char_traits@D@std@@V?$allocator@D@2@@2@XZ ENDP ; std::vector<std::basic_string<char,std::char_traits<char>,std::allocator<char> >,std::allocator<std::basic_string<char,std::char_traits<char>,std::allocator<char> > > >::const_iterator::operator*
_TEXT	ENDS
PUBLIC	??Yconst_iterator@?$vector@V?$basic_string@DU?$char_traits@D@std@@V?$allocator@D@2@@std@@V?$allocator@V?$basic_string@DU?$char_traits@D@std@@V?$allocator@D@2@@std@@@2@@std@@QAEAAV012@H@Z ; std::vector<std::basic_string<char,std::char_traits<char>,std::allocator<char> >,std::allocator<std::basic_string<char,std::char_traits<char>,std::allocator<char> > > >::const_iterator::operator+=
; Function compile flags: /Odt /RTCsu
;	COMDAT ??Hconst_iterator@?$vector@V?$basic_string@DU?$char_traits@D@std@@V?$allocator@D@2@@std@@V?$allocator@V?$basic_string@DU?$char_traits@D@std@@V?$allocator@D@2@@std@@@2@@std@@QBE?AV012@H@Z
_TEXT	SEGMENT
__Tmp$ = -12						; size = 4
_this$ = -4						; size = 4
___$ReturnUdt$ = 8					; size = 4
__Off$ = 12						; size = 4
??Hconst_iterator@?$vector@V?$basic_string@DU?$char_traits@D@std@@V?$allocator@D@2@@std@@V?$allocator@V?$basic_string@DU?$char_traits@D@std@@V?$allocator@D@2@@std@@@2@@std@@QBE?AV012@H@Z PROC NEAR ; std::vector<std::basic_string<char,std::char_traits<char>,std::allocator<char> >,std::allocator<std::basic_string<char,std::char_traits<char>,std::allocator<char> > > >::const_iterator::operator+, COMDAT
; _this$ = ecx

; 123  : 			{	// return this + integer

  00000	55		 push	 ebp
  00001	8b ec		 mov	 ebp, esp
  00003	83 ec 10	 sub	 esp, 16			; 00000010H
  00006	b8 cc cc cc cc	 mov	 eax, -858993460		; ccccccccH
  0000b	89 45 f0	 mov	 DWORD PTR [ebp-16], eax
  0000e	89 45 f4	 mov	 DWORD PTR [ebp-12], eax
  00011	89 45 f8	 mov	 DWORD PTR [ebp-8], eax
  00014	89 45 fc	 mov	 DWORD PTR [ebp-4], eax
  00017	89 4d fc	 mov	 DWORD PTR _this$[ebp], ecx

; 124  : 			const_iterator _Tmp = *this;

  0001a	8b 45 fc	 mov	 eax, DWORD PTR _this$[ebp]
  0001d	8b 08		 mov	 ecx, DWORD PTR [eax]
  0001f	89 4d f4	 mov	 DWORD PTR __Tmp$[ebp], ecx

; 125  : 			return (_Tmp += _Off);

  00022	8b 55 0c	 mov	 edx, DWORD PTR __Off$[ebp]
  00025	52		 push	 edx
  00026	8d 4d f4	 lea	 ecx, DWORD PTR __Tmp$[ebp]
  00029	e8 00 00 00 00	 call	 ??Yconst_iterator@?$vector@V?$basic_string@DU?$char_traits@D@std@@V?$allocator@D@2@@std@@V?$allocator@V?$basic_string@DU?$char_traits@D@std@@V?$allocator@D@2@@std@@@2@@std@@QAEAAV012@H@Z ; std::vector<std::basic_string<char,std::char_traits<char>,std::allocator<char> >,std::allocator<std::basic_string<char,std::char_traits<char>,std::allocator<char> > > >::const_iterator::operator+=
  0002e	8b 00		 mov	 eax, DWORD PTR [eax]
  00030	8b 4d 08	 mov	 ecx, DWORD PTR ___$ReturnUdt$[ebp]
  00033	89 01		 mov	 DWORD PTR [ecx], eax
  00035	8b 45 08	 mov	 eax, DWORD PTR ___$ReturnUdt$[ebp]

; 126  : 			}

  00038	52		 push	 edx
  00039	8b cd		 mov	 ecx, ebp
  0003b	50		 push	 eax
  0003c	8d 15 00 00 00
	00		 lea	 edx, DWORD PTR $L89269
  00042	e8 00 00 00 00	 call	 @_RTC_CheckStackVars@8
  00047	58		 pop	 eax
  00048	5a		 pop	 edx
  00049	83 c4 10	 add	 esp, 16			; 00000010H
  0004c	3b ec		 cmp	 ebp, esp
  0004e	e8 00 00 00 00	 call	 __RTC_CheckEsp
  00053	8b e5		 mov	 esp, ebp
  00055	5d		 pop	 ebp
  00056	c2 08 00	 ret	 8
$L89269:
  00059	01 00 00 00	 DD	 1
  0005d	00 00 00 00	 DD	 $L89268
$L89268:
  00061	f4 ff ff ff	 DD	 -12			; fffffff4H
  00065	04 00 00 00	 DD	 4
  00069	00 00 00 00	 DD	 $L89267
$L89267:
  0006d	5f		 DB	 95			; 0000005fH
  0006e	54		 DB	 84			; 00000054H
  0006f	6d		 DB	 109			; 0000006dH
  00070	70		 DB	 112			; 00000070H
  00071	00		 DB	 0
??Hconst_iterator@?$vector@V?$basic_string@DU?$char_traits@D@std@@V?$allocator@D@2@@std@@V?$allocator@V?$basic_string@DU?$char_traits@D@std@@V?$allocator@D@2@@std@@@2@@std@@QBE?AV012@H@Z ENDP ; std::vector<std::basic_string<char,std::char_traits<char>,std::allocator<char> >,std::allocator<std::basic_string<char,std::char_traits<char>,std::allocator<char> > > >::const_iterator::operator+
; Function compile flags: /Odt /RTCsu
_TEXT	ENDS
;	COMDAT ??8const_iterator@?$vector@V?$basic_string@DU?$char_traits@D@std@@V?$allocator@D@2@@std@@V?$allocator@V?$basic_string@DU?$char_traits@D@std@@V?$allocator@D@2@@std@@@2@@std@@QBE_NABV012@@Z
_TEXT	SEGMENT
_this$ = -4						; size = 4
__Right$ = 8						; size = 4
??8const_iterator@?$vector@V?$basic_string@DU?$char_traits@D@std@@V?$allocator@D@2@@std@@V?$allocator@V?$basic_string@DU?$char_traits@D@std@@V?$allocator@D@2@@std@@@2@@std@@QBE_NABV012@@Z PROC NEAR ; std::vector<std::basic_string<char,std::char_traits<char>,std::allocator<char> >,std::allocator<std::basic_string<char,std::char_traits<char>,std::allocator<char> > > >::const_iterator::operator==, COMDAT
; _this$ = ecx

; 152  : 			{	// test for iterator equality

  00000	55		 push	 ebp
  00001	8b ec		 mov	 ebp, esp
  00003	51		 push	 ecx
  00004	c7 45 fc cc cc
	cc cc		 mov	 DWORD PTR [ebp-4], -858993460 ; ccccccccH
  0000b	89 4d fc	 mov	 DWORD PTR _this$[ebp], ecx

; 153  : 
; 154  : 
; 155  : 			return (_Myptr == _Right._Myptr);

  0000e	8b 45 fc	 mov	 eax, DWORD PTR _this$[ebp]
  00011	8b 4d 08	 mov	 ecx, DWORD PTR __Right$[ebp]
  00014	8b 00		 mov	 eax, DWORD PTR [eax]
  00016	2b 01		 sub	 eax, DWORD PTR [ecx]
  00018	f7 d8		 neg	 eax
  0001a	1b c0		 sbb	 eax, eax
  0001c	40		 inc	 eax

; 156  : 			}

  0001d	8b e5		 mov	 esp, ebp
  0001f	5d		 pop	 ebp
  00020	c2 04 00	 ret	 4
??8const_iterator@?$vector@V?$basic_string@DU?$char_traits@D@std@@V?$allocator@D@2@@std@@V?$allocator@V?$basic_string@DU?$char_traits@D@std@@V?$allocator@D@2@@std@@@2@@std@@QBE_NABV012@@Z ENDP ; std::vector<std::basic_string<char,std::char_traits<char>,std::allocator<char> >,std::allocator<std::basic_string<char,std::char_traits<char>,std::allocator<char> > > >::const_iterator::operator==
_TEXT	ENDS
PUBLIC	?max_size@?$allocator@V?$basic_string@DU?$char_traits@D@std@@V?$allocator@D@2@@std@@@std@@QBEIXZ ; std::allocator<std::basic_string<char,std::char_traits<char>,std::allocator<char> > >::max_size
; Function compile flags: /Odt /RTCsu
;	COMDAT ?max_size@?$vector@V?$basic_string@DU?$char_traits@D@std@@V?$allocator@D@2@@std@@V?$allocator@V?$basic_string@DU?$char_traits@D@std@@V?$allocator@D@2@@std@@@2@@std@@QBEIXZ
_TEXT	SEGMENT
_this$ = -4						; size = 4
?max_size@?$vector@V?$basic_string@DU?$char_traits@D@std@@V?$allocator@D@2@@std@@V?$allocator@V?$basic_string@DU?$char_traits@D@std@@V?$allocator@D@2@@std@@@2@@std@@QBEIXZ PROC NEAR ; std::vector<std::basic_string<char,std::char_traits<char>,std::allocator<char> >,std::allocator<std::basic_string<char,std::char_traits<char>,std::allocator<char> > > >::max_size, COMDAT
; _this$ = ecx

; 520  : 		{	// return maximum possible length of sequence

  00000	55		 push	 ebp
  00001	8b ec		 mov	 ebp, esp
  00003	51		 push	 ecx
  00004	c7 45 fc cc cc
	cc cc		 mov	 DWORD PTR [ebp-4], -858993460 ; ccccccccH
  0000b	89 4d fc	 mov	 DWORD PTR _this$[ebp], ecx

; 521  : 		return (this->_Alval.max_size());

  0000e	8b 4d fc	 mov	 ecx, DWORD PTR _this$[ebp]
  00011	e8 00 00 00 00	 call	 ?max_size@?$allocator@V?$basic_string@DU?$char_traits@D@std@@V?$allocator@D@2@@std@@@std@@QBEIXZ ; std::allocator<std::basic_string<char,std::char_traits<char>,std::allocator<char> > >::max_size

; 522  : 		}

  00016	83 c4 04	 add	 esp, 4
  00019	3b ec		 cmp	 ebp, esp
  0001b	e8 00 00 00 00	 call	 __RTC_CheckEsp
  00020	8b e5		 mov	 esp, ebp
  00022	5d		 pop	 ebp
  00023	c3		 ret	 0
?max_size@?$vector@V?$basic_string@DU?$char_traits@D@std@@V?$allocator@D@2@@std@@V?$allocator@V?$basic_string@DU?$char_traits@D@std@@V?$allocator@D@2@@std@@@2@@std@@QBEIXZ ENDP ; std::vector<std::basic_string<char,std::char_traits<char>,std::allocator<char> >,std::allocator<std::basic_string<char,std::char_traits<char>,std::allocator<char> > > >::max_size
_TEXT	ENDS
PUBLIC	??$_Destroy_range@V?$basic_string@DU?$char_traits@D@std@@V?$allocator@D@2@@std@@V?$allocator@V?$basic_string@DU?$char_traits@D@std@@V?$allocator@D@2@@std@@@2@@std@@YAXPAV?$basic_string@DU?$char_traits@D@std@@V?$allocator@D@2@@0@0AAV?$allocator@V?$basic_string@DU?$char_traits@D@std@@V?$allocator@D@2@@std@@@0@@Z ; std::_Destroy_range<std::basic_string<char,std::char_traits<char>,std::allocator<char> >,std::allocator<std::basic_string<char,std::char_traits<char>,std::allocator<char> > > >
; Function compile flags: /Odt /RTCsu
;	COMDAT ?_Destroy@?$vector@V?$basic_string@DU?$char_traits@D@std@@V?$allocator@D@2@@std@@V?$allocator@V?$basic_string@DU?$char_traits@D@std@@V?$allocator@D@2@@std@@@2@@std@@IAEXPAV?$basic_string@DU?$char_traits@D@std@@V?$allocator@D@2@@2@0@Z
_TEXT	SEGMENT
_this$ = -4						; size = 4
__First$ = 8						; size = 4
__Last$ = 12						; size = 4
?_Destroy@?$vector@V?$basic_string@DU?$char_traits@D@std@@V?$allocator@D@2@@std@@V?$allocator@V?$basic_string@DU?$char_traits@D@std@@V?$allocator@D@2@@std@@@2@@std@@IAEXPAV?$basic_string@DU?$char_traits@D@std@@V?$allocator@D@2@@2@0@Z PROC NEAR ; std::vector<std::basic_string<char,std::char_traits<char>,std::allocator<char> >,std::allocator<std::basic_string<char,std::char_traits<char>,std::allocator<char> > > >::_Destroy, COMDAT
; _this$ = ecx

; 786  : 		{	// destroy [_First, _Last) using allocator

  00000	55		 push	 ebp
  00001	8b ec		 mov	 ebp, esp
  00003	51		 push	 ecx
  00004	c7 45 fc cc cc
	cc cc		 mov	 DWORD PTR [ebp-4], -858993460 ; ccccccccH
  0000b	89 4d fc	 mov	 DWORD PTR _this$[ebp], ecx

; 787  : 		_Destroy_range(_First, _Last, this->_Alval);

  0000e	8b 45 fc	 mov	 eax, DWORD PTR _this$[ebp]
  00011	50		 push	 eax
  00012	8b 4d 0c	 mov	 ecx, DWORD PTR __Last$[ebp]
  00015	51		 push	 ecx
  00016	8b 55 08	 mov	 edx, DWORD PTR __First$[ebp]
  00019	52		 push	 edx
  0001a	e8 00 00 00 00	 call	 ??$_Destroy_range@V?$basic_string@DU?$char_traits@D@std@@V?$allocator@D@2@@std@@V?$allocator@V?$basic_string@DU?$char_traits@D@std@@V?$allocator@D@2@@std@@@2@@std@@YAXPAV?$basic_string@DU?$char_traits@D@std@@V?$allocator@D@2@@0@0AAV?$allocator@V?$basic_string@DU?$char_traits@D@std@@V?$allocator@D@2@@std@@@0@@Z ; std::_Destroy_range<std::basic_string<char,std::char_traits<char>,std::allocator<char> >,std::allocator<std::basic_string<char,std::char_traits<char>,std::allocator<char> > > >
  0001f	83 c4 0c	 add	 esp, 12			; 0000000cH

; 788  : 		}

  00022	83 c4 04	 add	 esp, 4
  00025	3b ec		 cmp	 ebp, esp
  00027	e8 00 00 00 00	 call	 __RTC_CheckEsp
  0002c	8b e5		 mov	 esp, ebp
  0002e	5d		 pop	 ebp
  0002f	c2 08 00	 ret	 8
?_Destroy@?$vector@V?$basic_string@DU?$char_traits@D@std@@V?$allocator@D@2@@std@@V?$allocator@V?$basic_string@DU?$char_traits@D@std@@V?$allocator@D@2@@std@@@2@@std@@IAEXPAV?$basic_string@DU?$char_traits@D@std@@V?$allocator@D@2@@2@0@Z ENDP ; std::vector<std::basic_string<char,std::char_traits<char>,std::allocator<char> >,std::allocator<std::basic_string<char,std::char_traits<char>,std::allocator<char> > > >::_Destroy
_TEXT	ENDS
PUBLIC	??$_Ucopy@PAV?$basic_string@DU?$char_traits@D@std@@V?$allocator@D@2@@std@@@?$vector@V?$basic_string@DU?$char_traits@D@std@@V?$allocator@D@2@@std@@V?$allocator@V?$basic_string@DU?$char_traits@D@std@@V?$allocator@D@2@@std@@@2@@std@@IAEPAV?$basic_string@DU?$char_traits@D@std@@V?$allocator@D@2@@1@PAV21@00@Z ; std::vector<std::basic_string<char,std::char_traits<char>,std::allocator<char> >,std::allocator<std::basic_string<char,std::char_traits<char>,std::allocator<char> > > >::_Ucopy<std::basic_string<char,std::char_traits<char>,std::allocator<char> > *>
PUBLIC	??$fill@PAV?$basic_string@DU?$char_traits@D@std@@V?$allocator@D@2@@std@@V12@@std@@YAXPAV?$basic_string@DU?$char_traits@D@std@@V?$allocator@D@2@@0@0ABV10@@Z ; std::fill<std::basic_string<char,std::char_traits<char>,std::allocator<char> > *,std::basic_string<char,std::char_traits<char>,std::allocator<char> > >
PUBLIC	??$copy_backward@PAV?$basic_string@DU?$char_traits@D@std@@V?$allocator@D@2@@std@@PAV12@@std@@YAPAV?$basic_string@DU?$char_traits@D@std@@V?$allocator@D@2@@0@PAV10@00@Z ; std::copy_backward<std::basic_string<char,std::char_traits<char>,std::allocator<char> > *,std::basic_string<char,std::char_traits<char>,std::allocator<char> > *>
EXTRN	__CxxThrowException@8:NEAR
;	COMDAT xdata$x
xdata$x	SEGMENT
$T89290	DD	0ffffffffH
	DD	FLAT:$L89282
	DD	00H
	DD	00H
	DD	00H
	DD	00H
	DD	00H
	DD	00H
	DD	00H
	DD	00H
$T89292	DD	00H
	DD	00H
	DD	00H
	DD	FLAT:$L89279
$T89293	DD	00H
	DD	00H
	DD	00H
	DD	FLAT:$L89281
$T89291	DD	01H
	DD	01H
	DD	02H
	DD	01H
	DD	FLAT:$T89292
	DD	03H
	DD	03H
	DD	04H
	DD	01H
	DD	FLAT:$T89293
$T89284	DD	019930520H
	DD	05H
	DD	FLAT:$T89290
	DD	02H
	DD	FLAT:$T89291
	DD	2 DUP(00H)
; Function compile flags: /Odt /RTCsu
xdata$x	ENDS
;	COMDAT ?_Insert_n@?$vector@V?$basic_string@DU?$char_traits@D@std@@V?$allocator@D@2@@std@@V?$allocator@V?$basic_string@DU?$char_traits@D@std@@V?$allocator@D@2@@std@@@2@@std@@IAEXViterator@12@IABV?$basic_string@DU?$char_traits@D@std@@V?$allocator@D@2@@2@@Z
_TEXT	SEGMENT
tv246 = -88						; size = 4
tv245 = -84						; size = 4
tv89 = -80						; size = 4
__Oldend$86913 = -76					; size = 4
__Ptr$86893 = -72					; size = 4
__Newvec$86892 = -68					; size = 4
__Capacity$ = -64					; size = 4
__Tmp$ = -56						; size = 28
_this$ = -24						; size = 4
__$ArrayPad$ = -20					; size = 4
__$EHRec$ = -16						; size = 16
__$ReturnAddr$ = 4					; size = 4
__Where$ = 8						; size = 4
__Count$ = 12						; size = 4
__Val$ = 16						; size = 4
?_Insert_n@?$vector@V?$basic_string@DU?$char_traits@D@std@@V?$allocator@D@2@@std@@V?$allocator@V?$basic_string@DU?$char_traits@D@std@@V?$allocator@D@2@@std@@@2@@std@@IAEXViterator@12@IABV?$basic_string@DU?$char_traits@D@std@@V?$allocator@D@2@@2@@Z PROC NEAR ; std::vector<std::basic_string<char,std::char_traits<char>,std::allocator<char> >,std::allocator<std::basic_string<char,std::char_traits<char>,std::allocator<char> > > >::_Insert_n, COMDAT
; _this$ = ecx

; 809  : 		{	// insert _Count * _Val at _Where

  00000	55		 push	 ebp
  00001	8b ec		 mov	 ebp, esp
  00003	6a ff		 push	 -1
  00005	68 00 00 00 00	 push	 __ehhandler$?_Insert_n@?$vector@V?$basic_string@DU?$char_traits@D@std@@V?$allocator@D@2@@std@@V?$allocator@V?$basic_string@DU?$char_traits@D@std@@V?$allocator@D@2@@std@@@2@@std@@IAEXViterator@12@IABV?$basic_string@DU?$char_traits@D@std@@V?$allocator@D@2@@2@@Z
  0000a	64 a1 00 00 00
	00		 mov	 eax, DWORD PTR fs:__except_list
  00010	50		 push	 eax
  00011	64 89 25 00 00
	00 00		 mov	 DWORD PTR fs:__except_list, esp
  00018	51		 push	 ecx
  00019	83 ec 48	 sub	 esp, 72			; 00000048H
  0001c	53		 push	 ebx
  0001d	56		 push	 esi
  0001e	57		 push	 edi
  0001f	51		 push	 ecx
  00020	8d 7d a8	 lea	 edi, DWORD PTR [ebp-88]
  00023	b9 12 00 00 00	 mov	 ecx, 18			; 00000012H
  00028	b8 cc cc cc cc	 mov	 eax, -858993460		; ccccccccH
  0002d	f3 ab		 rep stosd
  0002f	59		 pop	 ecx
  00030	a1 00 00 00 00	 mov	 eax, DWORD PTR ___security_cookie
  00035	89 45 ec	 mov	 DWORD PTR __$ArrayPad$[ebp], eax
  00038	89 65 f0	 mov	 DWORD PTR __$EHRec$[ebp], esp
  0003b	89 4d e8	 mov	 DWORD PTR _this$[ebp], ecx

; 810  : 		_Ty _Tmp = _Val;	// in case _Val is in sequence

  0003e	8b f4		 mov	 esi, esp
  00040	8b 45 10	 mov	 eax, DWORD PTR __Val$[ebp]
  00043	50		 push	 eax
  00044	8d 4d c8	 lea	 ecx, DWORD PTR __Tmp$[ebp]
  00047	ff 15 00 00 00
	00		 call	 DWORD PTR __imp_??0?$basic_string@DU?$char_traits@D@std@@V?$allocator@D@2@@std@@QAE@ABV01@@Z
  0004d	3b f4		 cmp	 esi, esp
  0004f	e8 00 00 00 00	 call	 __RTC_CheckEsp
  00054	c7 45 fc 00 00
	00 00		 mov	 DWORD PTR __$EHRec$[ebp+12], 0

; 811  : 		size_type _Capacity = capacity();

  0005b	8b 4d e8	 mov	 ecx, DWORD PTR _this$[ebp]
  0005e	e8 00 00 00 00	 call	 ?capacity@?$vector@V?$basic_string@DU?$char_traits@D@std@@V?$allocator@D@2@@std@@V?$allocator@V?$basic_string@DU?$char_traits@D@std@@V?$allocator@D@2@@std@@@2@@std@@QBEIXZ ; std::vector<std::basic_string<char,std::char_traits<char>,std::allocator<char> >,std::allocator<std::basic_string<char,std::char_traits<char>,std::allocator<char> > > >::capacity
  00063	89 45 c0	 mov	 DWORD PTR __Capacity$[ebp], eax

; 812  : 
; 813  : 		if (_Count == 0)

  00066	83 7d 0c 00	 cmp	 DWORD PTR __Count$[ebp], 0
  0006a	75 05		 jne	 SHORT $L86886

; 814  : 			;
; 815  : 		else if (max_size() - size() < _Count)

  0006c	e9 cf 02 00 00	 jmp	 $L86887
$L86886:
  00071	8b 4d e8	 mov	 ecx, DWORD PTR _this$[ebp]
  00074	e8 00 00 00 00	 call	 ?size@?$vector@V?$basic_string@DU?$char_traits@D@std@@V?$allocator@D@2@@std@@V?$allocator@V?$basic_string@DU?$char_traits@D@std@@V?$allocator@D@2@@std@@@2@@std@@QBEIXZ ; std::vector<std::basic_string<char,std::char_traits<char>,std::allocator<char> >,std::allocator<std::basic_string<char,std::char_traits<char>,std::allocator<char> > > >::size
  00079	8b f0		 mov	 esi, eax
  0007b	8b 4d e8	 mov	 ecx, DWORD PTR _this$[ebp]
  0007e	e8 00 00 00 00	 call	 ?max_size@?$vector@V?$basic_string@DU?$char_traits@D@std@@V?$allocator@D@2@@std@@V?$allocator@V?$basic_string@DU?$char_traits@D@std@@V?$allocator@D@2@@std@@@2@@std@@QBEIXZ ; std::vector<std::basic_string<char,std::char_traits<char>,std::allocator<char> >,std::allocator<std::basic_string<char,std::char_traits<char>,std::allocator<char> > > >::max_size
  00083	2b c6		 sub	 eax, esi
  00085	3b 45 0c	 cmp	 eax, DWORD PTR __Count$[ebp]
  00088	73 0d		 jae	 SHORT $L86888

; 816  : 			_Xlen();	// result too long

  0008a	8b 4d e8	 mov	 ecx, DWORD PTR _this$[ebp]
  0008d	e8 00 00 00 00	 call	 ?_Xlen@?$vector@V?$basic_string@DU?$char_traits@D@std@@V?$allocator@D@2@@std@@V?$allocator@V?$basic_string@DU?$char_traits@D@std@@V?$allocator@D@2@@std@@@2@@std@@IBEXXZ ; std::vector<std::basic_string<char,std::char_traits<char>,std::allocator<char> >,std::allocator<std::basic_string<char,std::char_traits<char>,std::allocator<char> > > >::_Xlen

; 817  : 		else if (_Capacity < size() + _Count)

  00092	e9 a9 02 00 00	 jmp	 $L86887
$L86888:
  00097	8b 4d e8	 mov	 ecx, DWORD PTR _this$[ebp]
  0009a	e8 00 00 00 00	 call	 ?size@?$vector@V?$basic_string@DU?$char_traits@D@std@@V?$allocator@D@2@@std@@V?$allocator@V?$basic_string@DU?$char_traits@D@std@@V?$allocator@D@2@@std@@@2@@std@@QBEIXZ ; std::vector<std::basic_string<char,std::char_traits<char>,std::allocator<char> >,std::allocator<std::basic_string<char,std::char_traits<char>,std::allocator<char> > > >::size
  0009f	03 45 0c	 add	 eax, DWORD PTR __Count$[ebp]
  000a2	39 45 c0	 cmp	 DWORD PTR __Capacity$[ebp], eax
  000a5	0f 83 68 01 00
	00		 jae	 $L86890

; 818  : 			{	// not enough room, reallocate
; 819  : 			_Capacity = max_size() - _Capacity / 2 < _Capacity
; 820  : 				? 0 : _Capacity + _Capacity / 2;	// try to grow by 50%

  000ab	8b 75 c0	 mov	 esi, DWORD PTR __Capacity$[ebp]
  000ae	d1 ee		 shr	 esi, 1
  000b0	8b 4d e8	 mov	 ecx, DWORD PTR _this$[ebp]
  000b3	e8 00 00 00 00	 call	 ?max_size@?$vector@V?$basic_string@DU?$char_traits@D@std@@V?$allocator@D@2@@std@@V?$allocator@V?$basic_string@DU?$char_traits@D@std@@V?$allocator@D@2@@std@@@2@@std@@QBEIXZ ; std::vector<std::basic_string<char,std::char_traits<char>,std::allocator<char> >,std::allocator<std::basic_string<char,std::char_traits<char>,std::allocator<char> > > >::max_size
  000b8	2b c6		 sub	 eax, esi
  000ba	3b 45 c0	 cmp	 eax, DWORD PTR __Capacity$[ebp]
  000bd	73 09		 jae	 SHORT $L89275
  000bf	c7 45 b0 00 00
	00 00		 mov	 DWORD PTR tv89[ebp], 0
  000c6	eb 0b		 jmp	 SHORT $L89276
$L89275:
  000c8	8b 4d c0	 mov	 ecx, DWORD PTR __Capacity$[ebp]
  000cb	d1 e9		 shr	 ecx, 1
  000cd	03 4d c0	 add	 ecx, DWORD PTR __Capacity$[ebp]
  000d0	89 4d b0	 mov	 DWORD PTR tv89[ebp], ecx
$L89276:
  000d3	8b 55 b0	 mov	 edx, DWORD PTR tv89[ebp]
  000d6	89 55 c0	 mov	 DWORD PTR __Capacity$[ebp], edx

; 821  : 			if (_Capacity < size() + _Count)

  000d9	8b 4d e8	 mov	 ecx, DWORD PTR _this$[ebp]
  000dc	e8 00 00 00 00	 call	 ?size@?$vector@V?$basic_string@DU?$char_traits@D@std@@V?$allocator@D@2@@std@@V?$allocator@V?$basic_string@DU?$char_traits@D@std@@V?$allocator@D@2@@std@@@2@@std@@QBEIXZ ; std::vector<std::basic_string<char,std::char_traits<char>,std::allocator<char> >,std::allocator<std::basic_string<char,std::char_traits<char>,std::allocator<char> > > >::size
  000e1	03 45 0c	 add	 eax, DWORD PTR __Count$[ebp]
  000e4	39 45 c0	 cmp	 DWORD PTR __Capacity$[ebp], eax
  000e7	73 0e		 jae	 SHORT $L86891

; 822  : 				_Capacity = size() + _Count;

  000e9	8b 4d e8	 mov	 ecx, DWORD PTR _this$[ebp]
  000ec	e8 00 00 00 00	 call	 ?size@?$vector@V?$basic_string@DU?$char_traits@D@std@@V?$allocator@D@2@@std@@V?$allocator@V?$basic_string@DU?$char_traits@D@std@@V?$allocator@D@2@@std@@@2@@std@@QBEIXZ ; std::vector<std::basic_string<char,std::char_traits<char>,std::allocator<char> >,std::allocator<std::basic_string<char,std::char_traits<char>,std::allocator<char> > > >::size
  000f1	03 45 0c	 add	 eax, DWORD PTR __Count$[ebp]
  000f4	89 45 c0	 mov	 DWORD PTR __Capacity$[ebp], eax
$L86891:

; 823  : 			pointer _Newvec = this->_Alval.allocate(_Capacity);

  000f7	8b 45 c0	 mov	 eax, DWORD PTR __Capacity$[ebp]
  000fa	50		 push	 eax
  000fb	8b 4d e8	 mov	 ecx, DWORD PTR _this$[ebp]
  000fe	e8 00 00 00 00	 call	 ?allocate@?$allocator@V?$basic_string@DU?$char_traits@D@std@@V?$allocator@D@2@@std@@@std@@QAEPAV?$basic_string@DU?$char_traits@D@std@@V?$allocator@D@2@@2@I@Z ; std::allocator<std::basic_string<char,std::char_traits<char>,std::allocator<char> > >::allocate
  00103	89 45 bc	 mov	 DWORD PTR __Newvec$86892[ebp], eax

; 824  : 			pointer _Ptr = _Newvec;

  00106	8b 4d bc	 mov	 ecx, DWORD PTR __Newvec$86892[ebp]
  00109	89 4d b8	 mov	 DWORD PTR __Ptr$86893[ebp], ecx

; 825  : 
; 826  : 			_TRY_BEGIN

  0010c	c6 45 fc 01	 mov	 BYTE PTR __$EHRec$[ebp+12], 1

; 827  : 			_Ptr = _Ucopy(_Myfirst, _ITER_BASE(_Where),
; 828  : 				_Newvec);	// copy prefix

  00110	8b 55 bc	 mov	 edx, DWORD PTR __Newvec$86892[ebp]
  00113	52		 push	 edx
  00114	8b 45 08	 mov	 eax, DWORD PTR __Where$[ebp]
  00117	50		 push	 eax
  00118	8b 4d e8	 mov	 ecx, DWORD PTR _this$[ebp]
  0011b	8b 51 04	 mov	 edx, DWORD PTR [ecx+4]
  0011e	52		 push	 edx
  0011f	8b 4d e8	 mov	 ecx, DWORD PTR _this$[ebp]
  00122	e8 00 00 00 00	 call	 ??$_Ucopy@PAV?$basic_string@DU?$char_traits@D@std@@V?$allocator@D@2@@std@@@?$vector@V?$basic_string@DU?$char_traits@D@std@@V?$allocator@D@2@@std@@V?$allocator@V?$basic_string@DU?$char_traits@D@std@@V?$allocator@D@2@@std@@@2@@std@@IAEPAV?$basic_string@DU?$char_traits@D@std@@V?$allocator@D@2@@1@PAV21@00@Z ; std::vector<std::basic_string<char,std::char_traits<char>,std::allocator<char> >,std::allocator<std::basic_string<char,std::char_traits<char>,std::allocator<char> > > >::_Ucopy<std::basic_string<char,std::char_traits<char>,std::allocator<char> > *>
  00127	89 45 ac	 mov	 DWORD PTR tv245[ebp], eax
  0012a	8b 45 ac	 mov	 eax, DWORD PTR tv245[ebp]
  0012d	89 45 b8	 mov	 DWORD PTR __Ptr$86893[ebp], eax

; 829  : 			_Ptr = _Ufill(_Ptr, _Count, _Tmp);	// add new stuff

  00130	8d 4d c8	 lea	 ecx, DWORD PTR __Tmp$[ebp]
  00133	51		 push	 ecx
  00134	8b 55 0c	 mov	 edx, DWORD PTR __Count$[ebp]
  00137	52		 push	 edx
  00138	8b 45 b8	 mov	 eax, DWORD PTR __Ptr$86893[ebp]
  0013b	50		 push	 eax
  0013c	8b 4d e8	 mov	 ecx, DWORD PTR _this$[ebp]
  0013f	e8 00 00 00 00	 call	 ?_Ufill@?$vector@V?$basic_string@DU?$char_traits@D@std@@V?$allocator@D@2@@std@@V?$allocator@V?$basic_string@DU?$char_traits@D@std@@V?$allocator@D@2@@std@@@2@@std@@IAEPAV?$basic_string@DU?$char_traits@D@std@@V?$allocator@D@2@@2@PAV32@IABV32@@Z ; std::vector<std::basic_string<char,std::char_traits<char>,std::allocator<char> >,std::allocator<std::basic_string<char,std::char_traits<char>,std::allocator<char> > > >::_Ufill
  00144	89 45 a8	 mov	 DWORD PTR tv246[ebp], eax
  00147	8b 4d a8	 mov	 ecx, DWORD PTR tv246[ebp]
  0014a	89 4d b8	 mov	 DWORD PTR __Ptr$86893[ebp], ecx

; 830  : 			_Ucopy(_ITER_BASE(_Where), _Mylast, _Ptr);	// copy suffix

  0014d	8b 55 b8	 mov	 edx, DWORD PTR __Ptr$86893[ebp]
  00150	52		 push	 edx
  00151	8b 45 e8	 mov	 eax, DWORD PTR _this$[ebp]
  00154	8b 48 08	 mov	 ecx, DWORD PTR [eax+8]
  00157	51		 push	 ecx
  00158	8b 55 08	 mov	 edx, DWORD PTR __Where$[ebp]
  0015b	52		 push	 edx
  0015c	8b 4d e8	 mov	 ecx, DWORD PTR _this$[ebp]
  0015f	e8 00 00 00 00	 call	 ??$_Ucopy@PAV?$basic_string@DU?$char_traits@D@std@@V?$allocator@D@2@@std@@@?$vector@V?$basic_string@DU?$char_traits@D@std@@V?$allocator@D@2@@std@@V?$allocator@V?$basic_string@DU?$char_traits@D@std@@V?$allocator@D@2@@std@@@2@@std@@IAEPAV?$basic_string@DU?$char_traits@D@std@@V?$allocator@D@2@@1@PAV21@00@Z ; std::vector<std::basic_string<char,std::char_traits<char>,std::allocator<char> >,std::allocator<std::basic_string<char,std::char_traits<char>,std::allocator<char> > > >::_Ucopy<std::basic_string<char,std::char_traits<char>,std::allocator<char> > *>
  00164	eb 29		 jmp	 SHORT $L89278
$L89279:

; 831  : 			_CATCH_ALL
; 832  : 			_Destroy(_Newvec, _Ptr);

  00166	8b 45 b8	 mov	 eax, DWORD PTR __Ptr$86893[ebp]
  00169	50		 push	 eax
  0016a	8b 4d bc	 mov	 ecx, DWORD PTR __Newvec$86892[ebp]
  0016d	51		 push	 ecx
  0016e	8b 4d e8	 mov	 ecx, DWORD PTR _this$[ebp]
  00171	e8 00 00 00 00	 call	 ?_Destroy@?$vector@V?$basic_string@DU?$char_traits@D@std@@V?$allocator@D@2@@std@@V?$allocator@V?$basic_string@DU?$char_traits@D@std@@V?$allocator@D@2@@std@@@2@@std@@IAEXPAV?$basic_string@DU?$char_traits@D@std@@V?$allocator@D@2@@2@0@Z ; std::vector<std::basic_string<char,std::char_traits<char>,std::allocator<char> >,std::allocator<std::basic_string<char,std::char_traits<char>,std::allocator<char> > > >::_Destroy

; 833  : 			this->_Alval.deallocate(_Newvec, _Capacity);

  00176	8b 55 c0	 mov	 edx, DWORD PTR __Capacity$[ebp]
  00179	52		 push	 edx
  0017a	8b 45 bc	 mov	 eax, DWORD PTR __Newvec$86892[ebp]
  0017d	50		 push	 eax
  0017e	8b 4d e8	 mov	 ecx, DWORD PTR _this$[ebp]
  00181	e8 00 00 00 00	 call	 ?deallocate@?$allocator@V?$basic_string@DU?$char_traits@D@std@@V?$allocator@D@2@@std@@@std@@QAEXPAV?$basic_string@DU?$char_traits@D@std@@V?$allocator@D@2@@2@I@Z ; std::allocator<std::basic_string<char,std::char_traits<char>,std::allocator<char> > >::deallocate

; 834  : 			_RERAISE;

  00186	6a 00		 push	 0
  00188	6a 00		 push	 0
  0018a	e8 00 00 00 00	 call	 __CxxThrowException@8
$L89278:

; 835  : 			_CATCH_END

  0018f	c7 45 fc 00 00
	00 00		 mov	 DWORD PTR __$EHRec$[ebp+12], 0

; 836  : 
; 837  : 			_Count += size();

  00196	8b 4d e8	 mov	 ecx, DWORD PTR _this$[ebp]
  00199	e8 00 00 00 00	 call	 ?size@?$vector@V?$basic_string@DU?$char_traits@D@std@@V?$allocator@D@2@@std@@V?$allocator@V?$basic_string@DU?$char_traits@D@std@@V?$allocator@D@2@@std@@@2@@std@@QBEIXZ ; std::vector<std::basic_string<char,std::char_traits<char>,std::allocator<char> >,std::allocator<std::basic_string<char,std::char_traits<char>,std::allocator<char> > > >::size
  0019e	03 45 0c	 add	 eax, DWORD PTR __Count$[ebp]
  001a1	89 45 0c	 mov	 DWORD PTR __Count$[ebp], eax

; 838  : 			if (_Myfirst != 0)

  001a4	8b 4d e8	 mov	 ecx, DWORD PTR _this$[ebp]
  001a7	83 79 04 00	 cmp	 DWORD PTR [ecx+4], 0
  001ab	74 3a		 je	 SHORT $L86900

; 839  : 				{	// destroy and deallocate old array
; 840  : 				_Destroy(_Myfirst, _Mylast);

  001ad	8b 55 e8	 mov	 edx, DWORD PTR _this$[ebp]
  001b0	8b 42 08	 mov	 eax, DWORD PTR [edx+8]
  001b3	50		 push	 eax
  001b4	8b 4d e8	 mov	 ecx, DWORD PTR _this$[ebp]
  001b7	8b 51 04	 mov	 edx, DWORD PTR [ecx+4]
  001ba	52		 push	 edx
  001bb	8b 4d e8	 mov	 ecx, DWORD PTR _this$[ebp]
  001be	e8 00 00 00 00	 call	 ?_Destroy@?$vector@V?$basic_string@DU?$char_traits@D@std@@V?$allocator@D@2@@std@@V?$allocator@V?$basic_string@DU?$char_traits@D@std@@V?$allocator@D@2@@std@@@2@@std@@IAEXPAV?$basic_string@DU?$char_traits@D@std@@V?$allocator@D@2@@2@0@Z ; std::vector<std::basic_string<char,std::char_traits<char>,std::allocator<char> >,std::allocator<std::basic_string<char,std::char_traits<char>,std::allocator<char> > > >::_Destroy

; 841  : 				this->_Alval.deallocate(_Myfirst, _Myend - _Myfirst);

  001c3	8b 45 e8	 mov	 eax, DWORD PTR _this$[ebp]
  001c6	8b 4d e8	 mov	 ecx, DWORD PTR _this$[ebp]
  001c9	8b 40 0c	 mov	 eax, DWORD PTR [eax+12]
  001cc	2b 41 04	 sub	 eax, DWORD PTR [ecx+4]
  001cf	99		 cdq
  001d0	b9 1c 00 00 00	 mov	 ecx, 28			; 0000001cH
  001d5	f7 f9		 idiv	 ecx
  001d7	50		 push	 eax
  001d8	8b 55 e8	 mov	 edx, DWORD PTR _this$[ebp]
  001db	8b 42 04	 mov	 eax, DWORD PTR [edx+4]
  001de	50		 push	 eax
  001df	8b 4d e8	 mov	 ecx, DWORD PTR _this$[ebp]
  001e2	e8 00 00 00 00	 call	 ?deallocate@?$allocator@V?$basic_string@DU?$char_traits@D@std@@V?$allocator@D@2@@std@@@std@@QAEXPAV?$basic_string@DU?$char_traits@D@std@@V?$allocator@D@2@@2@I@Z ; std::allocator<std::basic_string<char,std::char_traits<char>,std::allocator<char> > >::deallocate
$L86900:

; 842  : 				}
; 843  : 			_Myend = _Newvec + _Capacity;

  001e7	8b 4d c0	 mov	 ecx, DWORD PTR __Capacity$[ebp]
  001ea	6b c9 1c	 imul	 ecx, 28			; 0000001cH
  001ed	03 4d bc	 add	 ecx, DWORD PTR __Newvec$86892[ebp]
  001f0	8b 55 e8	 mov	 edx, DWORD PTR _this$[ebp]
  001f3	89 4a 0c	 mov	 DWORD PTR [edx+12], ecx

; 844  : 			_Mylast = _Newvec + _Count;

  001f6	8b 45 0c	 mov	 eax, DWORD PTR __Count$[ebp]
  001f9	6b c0 1c	 imul	 eax, 28			; 0000001cH
  001fc	03 45 bc	 add	 eax, DWORD PTR __Newvec$86892[ebp]
  001ff	8b 4d e8	 mov	 ecx, DWORD PTR _this$[ebp]
  00202	89 41 08	 mov	 DWORD PTR [ecx+8], eax

; 845  : 			_Myfirst = _Newvec;

  00205	8b 55 e8	 mov	 edx, DWORD PTR _this$[ebp]
  00208	8b 45 bc	 mov	 eax, DWORD PTR __Newvec$86892[ebp]
  0020b	89 42 04	 mov	 DWORD PTR [edx+4], eax

; 846  : 			}
; 847  : 		else if ((size_type)(_Mylast - _ITER_BASE(_Where)) < _Count)

  0020e	e9 2d 01 00 00	 jmp	 $L86887
$L86890:
  00213	8b 4d e8	 mov	 ecx, DWORD PTR _this$[ebp]
  00216	8b 41 08	 mov	 eax, DWORD PTR [ecx+8]
  00219	2b 45 08	 sub	 eax, DWORD PTR __Where$[ebp]
  0021c	99		 cdq
  0021d	b9 1c 00 00 00	 mov	 ecx, 28			; 0000001cH
  00222	f7 f9		 idiv	 ecx
  00224	3b 45 0c	 cmp	 eax, DWORD PTR __Count$[ebp]
  00227	0f 83 af 00 00
	00		 jae	 $L86903

; 848  : 			{	// new stuff spills off end
; 849  : 			_Ucopy(_ITER_BASE(_Where), _Mylast,
; 850  : 				_ITER_BASE(_Where) + _Count);	// copy suffix

  0022d	8b 55 0c	 mov	 edx, DWORD PTR __Count$[ebp]
  00230	6b d2 1c	 imul	 edx, 28			; 0000001cH
  00233	03 55 08	 add	 edx, DWORD PTR __Where$[ebp]
  00236	52		 push	 edx
  00237	8b 45 e8	 mov	 eax, DWORD PTR _this$[ebp]
  0023a	8b 48 08	 mov	 ecx, DWORD PTR [eax+8]
  0023d	51		 push	 ecx
  0023e	8b 55 08	 mov	 edx, DWORD PTR __Where$[ebp]
  00241	52		 push	 edx
  00242	8b 4d e8	 mov	 ecx, DWORD PTR _this$[ebp]
  00245	e8 00 00 00 00	 call	 ??$_Ucopy@PAV?$basic_string@DU?$char_traits@D@std@@V?$allocator@D@2@@std@@@?$vector@V?$basic_string@DU?$char_traits@D@std@@V?$allocator@D@2@@std@@V?$allocator@V?$basic_string@DU?$char_traits@D@std@@V?$allocator@D@2@@std@@@2@@std@@IAEPAV?$basic_string@DU?$char_traits@D@std@@V?$allocator@D@2@@1@PAV21@00@Z ; std::vector<std::basic_string<char,std::char_traits<char>,std::allocator<char> >,std::allocator<std::basic_string<char,std::char_traits<char>,std::allocator<char> > > >::_Ucopy<std::basic_string<char,std::char_traits<char>,std::allocator<char> > *>

; 851  : 
; 852  : 			_TRY_BEGIN

  0024a	c6 45 fc 03	 mov	 BYTE PTR __$EHRec$[ebp+12], 3

; 853  : 			_Ufill(_Mylast, _Count - (_Mylast - _ITER_BASE(_Where)),
; 854  : 				_Tmp);	// insert new stuff off end

  0024e	8d 45 c8	 lea	 eax, DWORD PTR __Tmp$[ebp]
  00251	50		 push	 eax
  00252	8b 4d e8	 mov	 ecx, DWORD PTR _this$[ebp]
  00255	8b 41 08	 mov	 eax, DWORD PTR [ecx+8]
  00258	2b 45 08	 sub	 eax, DWORD PTR __Where$[ebp]
  0025b	99		 cdq
  0025c	b9 1c 00 00 00	 mov	 ecx, 28			; 0000001cH
  00261	f7 f9		 idiv	 ecx
  00263	8b 55 0c	 mov	 edx, DWORD PTR __Count$[ebp]
  00266	2b d0		 sub	 edx, eax
  00268	52		 push	 edx
  00269	8b 45 e8	 mov	 eax, DWORD PTR _this$[ebp]
  0026c	8b 48 08	 mov	 ecx, DWORD PTR [eax+8]
  0026f	51		 push	 ecx
  00270	8b 4d e8	 mov	 ecx, DWORD PTR _this$[ebp]
  00273	e8 00 00 00 00	 call	 ?_Ufill@?$vector@V?$basic_string@DU?$char_traits@D@std@@V?$allocator@D@2@@std@@V?$allocator@V?$basic_string@DU?$char_traits@D@std@@V?$allocator@D@2@@std@@@2@@std@@IAEPAV?$basic_string@DU?$char_traits@D@std@@V?$allocator@D@2@@2@PAV32@IABV32@@Z ; std::vector<std::basic_string<char,std::char_traits<char>,std::allocator<char> >,std::allocator<std::basic_string<char,std::char_traits<char>,std::allocator<char> > > >::_Ufill
  00278	eb 28		 jmp	 SHORT $L89280
$L89281:

; 855  : 			_CATCH_ALL
; 856  : 			_Destroy(_ITER_BASE(_Where) + _Count, _Mylast + _Count);

  0027a	8b 55 0c	 mov	 edx, DWORD PTR __Count$[ebp]
  0027d	6b d2 1c	 imul	 edx, 28			; 0000001cH
  00280	8b 45 e8	 mov	 eax, DWORD PTR _this$[ebp]
  00283	03 50 08	 add	 edx, DWORD PTR [eax+8]
  00286	52		 push	 edx
  00287	8b 4d 0c	 mov	 ecx, DWORD PTR __Count$[ebp]
  0028a	6b c9 1c	 imul	 ecx, 28			; 0000001cH
  0028d	03 4d 08	 add	 ecx, DWORD PTR __Where$[ebp]
  00290	51		 push	 ecx
  00291	8b 4d e8	 mov	 ecx, DWORD PTR _this$[ebp]
  00294	e8 00 00 00 00	 call	 ?_Destroy@?$vector@V?$basic_string@DU?$char_traits@D@std@@V?$allocator@D@2@@std@@V?$allocator@V?$basic_string@DU?$char_traits@D@std@@V?$allocator@D@2@@std@@@2@@std@@IAEXPAV?$basic_string@DU?$char_traits@D@std@@V?$allocator@D@2@@2@0@Z ; std::vector<std::basic_string<char,std::char_traits<char>,std::allocator<char> >,std::allocator<std::basic_string<char,std::char_traits<char>,std::allocator<char> > > >::_Destroy

; 857  : 			_RERAISE;

  00299	6a 00		 push	 0
  0029b	6a 00		 push	 0
  0029d	e8 00 00 00 00	 call	 __CxxThrowException@8
$L89280:

; 858  : 			_CATCH_END

  002a2	c7 45 fc 00 00
	00 00		 mov	 DWORD PTR __$EHRec$[ebp+12], 0

; 859  : 
; 860  : 			_Mylast += _Count;

  002a9	8b 55 0c	 mov	 edx, DWORD PTR __Count$[ebp]
  002ac	6b d2 1c	 imul	 edx, 28			; 0000001cH
  002af	8b 45 e8	 mov	 eax, DWORD PTR _this$[ebp]
  002b2	03 50 08	 add	 edx, DWORD PTR [eax+8]
  002b5	8b 4d e8	 mov	 ecx, DWORD PTR _this$[ebp]
  002b8	89 51 08	 mov	 DWORD PTR [ecx+8], edx

; 861  : 			fill(_ITER_BASE(_Where), _Mylast - _Count,
; 862  : 				_Tmp);	// insert up to old end

  002bb	8d 55 c8	 lea	 edx, DWORD PTR __Tmp$[ebp]
  002be	52		 push	 edx
  002bf	8b 45 0c	 mov	 eax, DWORD PTR __Count$[ebp]
  002c2	6b c0 1c	 imul	 eax, 28			; 0000001cH
  002c5	8b 4d e8	 mov	 ecx, DWORD PTR _this$[ebp]
  002c8	8b 51 08	 mov	 edx, DWORD PTR [ecx+8]
  002cb	2b d0		 sub	 edx, eax
  002cd	52		 push	 edx
  002ce	8b 45 08	 mov	 eax, DWORD PTR __Where$[ebp]
  002d1	50		 push	 eax
  002d2	e8 00 00 00 00	 call	 ??$fill@PAV?$basic_string@DU?$char_traits@D@std@@V?$allocator@D@2@@std@@V12@@std@@YAXPAV?$basic_string@DU?$char_traits@D@std@@V?$allocator@D@2@@0@0ABV10@@Z ; std::fill<std::basic_string<char,std::char_traits<char>,std::allocator<char> > *,std::basic_string<char,std::char_traits<char>,std::allocator<char> > >
  002d7	83 c4 0c	 add	 esp, 12			; 0000000cH

; 863  : 			}
; 864  : 		else

  002da	eb 64		 jmp	 SHORT $L86887
$L86903:

; 865  : 			{	// new stuff can all be assigned
; 866  : 			pointer _Oldend = _Mylast;

  002dc	8b 4d e8	 mov	 ecx, DWORD PTR _this$[ebp]
  002df	8b 51 08	 mov	 edx, DWORD PTR [ecx+8]
  002e2	89 55 b4	 mov	 DWORD PTR __Oldend$86913[ebp], edx

; 867  : 			_Mylast = _Ucopy(_Oldend - _Count, _Oldend,
; 868  : 				_Mylast);	// copy suffix

  002e5	8b 45 e8	 mov	 eax, DWORD PTR _this$[ebp]
  002e8	8b 48 08	 mov	 ecx, DWORD PTR [eax+8]
  002eb	51		 push	 ecx
  002ec	8b 55 b4	 mov	 edx, DWORD PTR __Oldend$86913[ebp]
  002ef	52		 push	 edx
  002f0	8b 45 0c	 mov	 eax, DWORD PTR __Count$[ebp]
  002f3	6b c0 1c	 imul	 eax, 28			; 0000001cH
  002f6	8b 4d b4	 mov	 ecx, DWORD PTR __Oldend$86913[ebp]
  002f9	2b c8		 sub	 ecx, eax
  002fb	51		 push	 ecx
  002fc	8b 4d e8	 mov	 ecx, DWORD PTR _this$[ebp]
  002ff	e8 00 00 00 00	 call	 ??$_Ucopy@PAV?$basic_string@DU?$char_traits@D@std@@V?$allocator@D@2@@std@@@?$vector@V?$basic_string@DU?$char_traits@D@std@@V?$allocator@D@2@@std@@V?$allocator@V?$basic_string@DU?$char_traits@D@std@@V?$allocator@D@2@@std@@@2@@std@@IAEPAV?$basic_string@DU?$char_traits@D@std@@V?$allocator@D@2@@1@PAV21@00@Z ; std::vector<std::basic_string<char,std::char_traits<char>,std::allocator<char> >,std::allocator<std::basic_string<char,std::char_traits<char>,std::allocator<char> > > >::_Ucopy<std::basic_string<char,std::char_traits<char>,std::allocator<char> > *>
  00304	8b 55 e8	 mov	 edx, DWORD PTR _this$[ebp]
  00307	89 42 08	 mov	 DWORD PTR [edx+8], eax

; 869  : 			copy_backward(_ITER_BASE(_Where), _Oldend - _Count,
; 870  : 				_Oldend);	// copy hole

  0030a	8b 45 b4	 mov	 eax, DWORD PTR __Oldend$86913[ebp]
  0030d	50		 push	 eax
  0030e	8b 4d 0c	 mov	 ecx, DWORD PTR __Count$[ebp]
  00311	6b c9 1c	 imul	 ecx, 28			; 0000001cH
  00314	8b 55 b4	 mov	 edx, DWORD PTR __Oldend$86913[ebp]
  00317	2b d1		 sub	 edx, ecx
  00319	52		 push	 edx
  0031a	8b 45 08	 mov	 eax, DWORD PTR __Where$[ebp]
  0031d	50		 push	 eax
  0031e	e8 00 00 00 00	 call	 ??$copy_backward@PAV?$basic_string@DU?$char_traits@D@std@@V?$allocator@D@2@@std@@PAV12@@std@@YAPAV?$basic_string@DU?$char_traits@D@std@@V?$allocator@D@2@@0@PAV10@00@Z ; std::copy_backward<std::basic_string<char,std::char_traits<char>,std::allocator<char> > *,std::basic_string<char,std::char_traits<char>,std::allocator<char> > *>
  00323	83 c4 0c	 add	 esp, 12			; 0000000cH

; 871  : 			fill(_ITER_BASE(_Where), _ITER_BASE(_Where) + _Count,
; 872  : 				_Tmp);	// insert into hole

  00326	8d 4d c8	 lea	 ecx, DWORD PTR __Tmp$[ebp]
  00329	51		 push	 ecx
  0032a	8b 55 0c	 mov	 edx, DWORD PTR __Count$[ebp]
  0032d	6b d2 1c	 imul	 edx, 28			; 0000001cH
  00330	03 55 08	 add	 edx, DWORD PTR __Where$[ebp]
  00333	52		 push	 edx
  00334	8b 45 08	 mov	 eax, DWORD PTR __Where$[ebp]
  00337	50		 push	 eax
  00338	e8 00 00 00 00	 call	 ??$fill@PAV?$basic_string@DU?$char_traits@D@std@@V?$allocator@D@2@@std@@V12@@std@@YAXPAV?$basic_string@DU?$char_traits@D@std@@V?$allocator@D@2@@0@0ABV10@@Z ; std::fill<std::basic_string<char,std::char_traits<char>,std::allocator<char> > *,std::basic_string<char,std::char_traits<char>,std::allocator<char> > >
  0033d	83 c4 0c	 add	 esp, 12			; 0000000cH
$L86887:

; 873  : 			}
; 874  : 		}

  00340	c7 45 fc ff ff
	ff ff		 mov	 DWORD PTR __$EHRec$[ebp+12], -1
  00347	8b f4		 mov	 esi, esp
  00349	8d 4d c8	 lea	 ecx, DWORD PTR __Tmp$[ebp]
  0034c	ff 15 00 00 00
	00		 call	 DWORD PTR __imp_??1?$basic_string@DU?$char_traits@D@std@@V?$allocator@D@2@@std@@QAE@XZ
  00352	3b f4		 cmp	 esi, esp
  00354	e8 00 00 00 00	 call	 __RTC_CheckEsp
$L89274:
  00359	52		 push	 edx
  0035a	8b cd		 mov	 ecx, ebp
  0035c	50		 push	 eax
  0035d	8d 15 00 00 00
	00		 lea	 edx, DWORD PTR $L89289
  00363	e8 00 00 00 00	 call	 @_RTC_CheckStackVars@8
  00368	58		 pop	 eax
  00369	5a		 pop	 edx
  0036a	8b 4d f4	 mov	 ecx, DWORD PTR __$EHRec$[ebp+4]
  0036d	64 89 0d 00 00
	00 00		 mov	 DWORD PTR fs:__except_list, ecx
  00374	8b 4d ec	 mov	 ecx, DWORD PTR __$ArrayPad$[ebp]
  00377	e8 00 00 00 00	 call	 @__security_check_cookie@4
  0037c	5f		 pop	 edi
  0037d	5e		 pop	 esi
  0037e	5b		 pop	 ebx
  0037f	83 c4 58	 add	 esp, 88			; 00000058H
  00382	3b ec		 cmp	 ebp, esp
  00384	e8 00 00 00 00	 call	 __RTC_CheckEsp
  00389	8b e5		 mov	 esp, ebp
  0038b	5d		 pop	 ebp
  0038c	c2 0c 00	 ret	 12			; 0000000cH
$L89289:
  0038f	01 00 00 00	 DD	 1
  00393	00 00 00 00	 DD	 $L89288
$L89288:
  00397	c8 ff ff ff	 DD	 -56			; ffffffc8H
  0039b	1c 00 00 00	 DD	 28			; 0000001cH
  0039f	00 00 00 00	 DD	 $L89285
$L89285:
  003a3	5f		 DB	 95			; 0000005fH
  003a4	54		 DB	 84			; 00000054H
  003a5	6d		 DB	 109			; 0000006dH
  003a6	70		 DB	 112			; 00000070H
  003a7	00		 DB	 0
_TEXT	ENDS
;	COMDAT text$x
text$x	SEGMENT
$L89282:
  00000	8b f4		 mov	 esi, esp
  00002	8d 4d c8	 lea	 ecx, DWORD PTR __Tmp$[ebp]
  00005	ff 15 00 00 00
	00		 call	 DWORD PTR __imp_??1?$basic_string@DU?$char_traits@D@std@@V?$allocator@D@2@@std@@QAE@XZ
  0000b	3b f4		 cmp	 esi, esp
  0000d	e9 00 00 00 00	 jmp	 __RTC_CheckEsp
__ehhandler$?_Insert_n@?$vector@V?$basic_string@DU?$char_traits@D@std@@V?$allocator@D@2@@std@@V?$allocator@V?$basic_string@DU?$char_traits@D@std@@V?$allocator@D@2@@std@@@2@@std@@IAEXViterator@12@IABV?$basic_string@DU?$char_traits@D@std@@V?$allocator@D@2@@2@@Z:
  00012	b8 00 00 00 00	 mov	 eax, OFFSET FLAT:$T89284
  00017	e9 00 00 00 00	 jmp	 ___CxxFrameHandler
text$x	ENDS
?_Insert_n@?$vector@V?$basic_string@DU?$char_traits@D@std@@V?$allocator@D@2@@std@@V?$allocator@V?$basic_string@DU?$char_traits@D@std@@V?$allocator@D@2@@std@@@2@@std@@IAEXViterator@12@IABV?$basic_string@DU?$char_traits@D@std@@V?$allocator@D@2@@2@@Z ENDP ; std::vector<std::basic_string<char,std::char_traits<char>,std::allocator<char> >,std::allocator<std::basic_string<char,std::char_traits<char>,std::allocator<char> > > >::_Insert_n
PUBLIC	??0length_error@std@@QAE@ABV?$basic_string@DU?$char_traits@D@std@@V?$allocator@D@2@@1@@Z ; std::length_error::length_error
PUBLIC	??1length_error@std@@UAE@XZ			; std::length_error::~length_error
PUBLIC	??0length_error@std@@QAE@ABV01@@Z		; std::length_error::length_error
PUBLIC	__TI3?AVlength_error@std@@
PUBLIC	__CTA3?AVlength_error@std@@
PUBLIC	??_R0?AVlength_error@std@@@8			; std::length_error `RTTI Type Descriptor'
PUBLIC	__CT??_R0?AVlength_error@std@@@8??0length_error@std@@QAE@ABV01@@Z40
PUBLIC	??_R0?AVlogic_error@std@@@8			; std::logic_error `RTTI Type Descriptor'
PUBLIC	__CT??_R0?AVlogic_error@std@@@8??0logic_error@std@@QAE@ABV01@@Z40
PUBLIC	??_R0?AVexception@@@8				; exception `RTTI Type Descriptor'
PUBLIC	__CT??_R0?AVexception@@@8??0exception@@QAE@ABV0@@Z12
PUBLIC	??_C@_0BD@OLBABOEK@vector?$DMT?$DO?5too?5long?$AA@ ; `string'
PUBLIC	??0logic_error@std@@QAE@ABV01@@Z		; std::logic_error::logic_error
EXTRN	??_7type_info@@6B@:QWORD			; type_info::`vftable'
EXTRN	??0exception@@QAE@ABV0@@Z:NEAR			; exception::exception
;	COMDAT xdata$x
xdata$x	SEGMENT
$T89303	DD	0ffffffffH
	DD	FLAT:$L89299
$T89301	DD	019930520H
	DD	01H
	DD	FLAT:$T89303
	DD	2 DUP(00H)
	DD	2 DUP(00H)
xdata$x	ENDS
;	COMDAT ??_C@_0BD@OLBABOEK@vector?$DMT?$DO?5too?5long?$AA@
CONST	SEGMENT
??_C@_0BD@OLBABOEK@vector?$DMT?$DO?5too?5long?$AA@ DB 'vector<T> too long'
	DB	00H						; `string'
CONST	ENDS
;	COMDAT __TI3?AVlength_error@std@@
xdata$x	SEGMENT
__TI3?AVlength_error@std@@ DD 00H
	DD	FLAT:??1length_error@std@@UAE@XZ
	DD	00H
	DD	FLAT:__CTA3?AVlength_error@std@@
xdata$x	ENDS
;	COMDAT __CTA3?AVlength_error@std@@
xdata$x	SEGMENT
__CTA3?AVlength_error@std@@ DD 03H
	DD	FLAT:__CT??_R0?AVlength_error@std@@@8??0length_error@std@@QAE@ABV01@@Z40
	DD	FLAT:__CT??_R0?AVlogic_error@std@@@8??0logic_error@std@@QAE@ABV01@@Z40
	DD	FLAT:__CT??_R0?AVexception@@@8??0exception@@QAE@ABV0@@Z12
xdata$x	ENDS
;	COMDAT __CT??_R0?AVlength_error@std@@@8??0length_error@std@@QAE@ABV01@@Z40
xdata$x	SEGMENT
__CT??_R0?AVlength_error@std@@@8??0length_error@std@@QAE@ABV01@@Z40 DD 00H
	DD	FLAT:??_R0?AVlength_error@std@@@8
	DD	00H
	DD	0ffffffffH
	ORG $+4
	DD	028H
	DD	FLAT:??0length_error@std@@QAE@ABV01@@Z
xdata$x	ENDS
;	COMDAT ??_R0?AVlength_error@std@@@8
_DATA	SEGMENT
??_R0?AVlength_error@std@@@8 DD FLAT:??_7type_info@@6B@	; std::length_error `RTTI Type Descriptor'
	DD	00H
	DB	'.?AVlength_error@std@@', 00H
_DATA	ENDS
;	COMDAT __CT??_R0?AVlogic_error@std@@@8??0logic_error@std@@QAE@ABV01@@Z40
xdata$x	SEGMENT
__CT??_R0?AVlogic_error@std@@@8??0logic_error@std@@QAE@ABV01@@Z40 DD 00H
	DD	FLAT:??_R0?AVlogic_error@std@@@8
	DD	00H
	DD	0ffffffffH
	ORG $+4
	DD	028H
	DD	FLAT:??0logic_error@std@@QAE@ABV01@@Z
xdata$x	ENDS
;	COMDAT ??_R0?AVlogic_error@std@@@8
_DATA	SEGMENT
??_R0?AVlogic_error@std@@@8 DD FLAT:??_7type_info@@6B@	; std::logic_error `RTTI Type Descriptor'
	DD	00H
	DB	'.?AVlogic_error@std@@', 00H
_DATA	ENDS
;	COMDAT __CT??_R0?AVexception@@@8??0exception@@QAE@ABV0@@Z12
xdata$x	SEGMENT
__CT??_R0?AVexception@@@8??0exception@@QAE@ABV0@@Z12 DD 00H
	DD	FLAT:??_R0?AVexception@@@8
	DD	00H
	DD	0ffffffffH
	ORG $+4
	DD	0cH
	DD	FLAT:??0exception@@QAE@ABV0@@Z
xdata$x	ENDS
;	COMDAT ??_R0?AVexception@@@8
_DATA	SEGMENT
??_R0?AVexception@@@8 DD FLAT:??_7type_info@@6B@	; exception `RTTI Type Descriptor'
	DD	00H
	DB	'.?AVexception@@', 00H
; Function compile flags: /Odt /RTCsu
_DATA	ENDS
;	COMDAT ?_Xlen@?$vector@V?$basic_string@DU?$char_traits@D@std@@V?$allocator@D@2@@std@@V?$allocator@V?$basic_string@DU?$char_traits@D@std@@V?$allocator@D@2@@std@@@2@@std@@IBEXXZ
_TEXT	SEGMENT
$T89298 = -84						; size = 28
$T89297 = -56						; size = 40
_this$ = -16						; size = 4
__$EHRec$ = -12						; size = 12
?_Xlen@?$vector@V?$basic_string@DU?$char_traits@D@std@@V?$allocator@D@2@@std@@V?$allocator@V?$basic_string@DU?$char_traits@D@std@@V?$allocator@D@2@@std@@@2@@std@@IBEXXZ PROC NEAR ; std::vector<std::basic_string<char,std::char_traits<char>,std::allocator<char> >,std::allocator<std::basic_string<char,std::char_traits<char>,std::allocator<char> > > >::_Xlen, COMDAT
; _this$ = ecx

; 883  : 		{	// report a length_error

  00000	55		 push	 ebp
  00001	8b ec		 mov	 ebp, esp
  00003	6a ff		 push	 -1
  00005	68 00 00 00 00	 push	 __ehhandler$?_Xlen@?$vector@V?$basic_string@DU?$char_traits@D@std@@V?$allocator@D@2@@std@@V?$allocator@V?$basic_string@DU?$char_traits@D@std@@V?$allocator@D@2@@std@@@2@@std@@IBEXXZ
  0000a	64 a1 00 00 00
	00		 mov	 eax, DWORD PTR fs:__except_list
  00010	50		 push	 eax
  00011	64 89 25 00 00
	00 00		 mov	 DWORD PTR fs:__except_list, esp
  00018	83 ec 48	 sub	 esp, 72			; 00000048H
  0001b	56		 push	 esi
  0001c	57		 push	 edi
  0001d	51		 push	 ecx
  0001e	8d 7d ac	 lea	 edi, DWORD PTR [ebp-84]
  00021	b9 12 00 00 00	 mov	 ecx, 18			; 00000012H
  00026	b8 cc cc cc cc	 mov	 eax, -858993460		; ccccccccH
  0002b	f3 ab		 rep stosd
  0002d	59		 pop	 ecx
  0002e	89 4d f0	 mov	 DWORD PTR _this$[ebp], ecx

; 884  : 		_THROW(length_error, "vector<T> too long");

  00031	8b f4		 mov	 esi, esp
  00033	68 00 00 00 00	 push	 OFFSET FLAT:??_C@_0BD@OLBABOEK@vector?$DMT?$DO?5too?5long?$AA@
  00038	8d 4d ac	 lea	 ecx, DWORD PTR $T89298[ebp]
  0003b	ff 15 00 00 00
	00		 call	 DWORD PTR __imp_??0?$basic_string@DU?$char_traits@D@std@@V?$allocator@D@2@@std@@QAE@PBD@Z
  00041	3b f4		 cmp	 esi, esp
  00043	e8 00 00 00 00	 call	 __RTC_CheckEsp
  00048	c7 45 fc 00 00
	00 00		 mov	 DWORD PTR __$EHRec$[ebp+8], 0
  0004f	8d 45 ac	 lea	 eax, DWORD PTR $T89298[ebp]
  00052	50		 push	 eax
  00053	8d 4d c8	 lea	 ecx, DWORD PTR $T89297[ebp]
  00056	e8 00 00 00 00	 call	 ??0length_error@std@@QAE@ABV?$basic_string@DU?$char_traits@D@std@@V?$allocator@D@2@@1@@Z ; std::length_error::length_error
  0005b	68 00 00 00 00	 push	 OFFSET FLAT:__TI3?AVlength_error@std@@
  00060	8d 4d c8	 lea	 ecx, DWORD PTR $T89297[ebp]
  00063	51		 push	 ecx
  00064	e8 00 00 00 00	 call	 __CxxThrowException@8
$L89296:

; 885  : 		}

  00069	8b 4d f4	 mov	 ecx, DWORD PTR __$EHRec$[ebp]
  0006c	64 89 0d 00 00
	00 00		 mov	 DWORD PTR fs:__except_list, ecx
  00073	5f		 pop	 edi
  00074	5e		 pop	 esi
  00075	83 c4 54	 add	 esp, 84			; 00000054H
  00078	3b ec		 cmp	 ebp, esp
  0007a	e8 00 00 00 00	 call	 __RTC_CheckEsp
  0007f	8b e5		 mov	 esp, ebp
  00081	5d		 pop	 ebp
  00082	c3		 ret	 0
_TEXT	ENDS
;	COMDAT text$x
text$x	SEGMENT
$L89299:
  00000	8b f4		 mov	 esi, esp
  00002	8d 4d ac	 lea	 ecx, DWORD PTR $T89298[ebp]
  00005	ff 15 00 00 00
	00		 call	 DWORD PTR __imp_??1?$basic_string@DU?$char_traits@D@std@@V?$allocator@D@2@@std@@QAE@XZ
  0000b	3b f4		 cmp	 esi, esp
  0000d	e9 00 00 00 00	 jmp	 __RTC_CheckEsp
__ehhandler$?_Xlen@?$vector@V?$basic_string@DU?$char_traits@D@std@@V?$allocator@D@2@@std@@V?$allocator@V?$basic_string@DU?$char_traits@D@std@@V?$allocator@D@2@@std@@@2@@std@@IBEXXZ:
  00012	b8 00 00 00 00	 mov	 eax, OFFSET FLAT:$T89301
  00017	e9 00 00 00 00	 jmp	 ___CxxFrameHandler
text$x	ENDS
?_Xlen@?$vector@V?$basic_string@DU?$char_traits@D@std@@V?$allocator@D@2@@std@@V?$allocator@V?$basic_string@DU?$char_traits@D@std@@V?$allocator@D@2@@std@@@2@@std@@IBEXXZ ENDP ; std::vector<std::basic_string<char,std::char_traits<char>,std::allocator<char> >,std::allocator<std::basic_string<char,std::char_traits<char>,std::allocator<char> > > >::_Xlen
PUBLIC	??_R4length_error@std@@6B@			; std::length_error::`RTTI Complete Object Locator'
PUBLIC	??_R3length_error@std@@8			; std::length_error::`RTTI Class Hierarchy Descriptor'
PUBLIC	??_R2length_error@std@@8			; std::length_error::`RTTI Base Class Array'
PUBLIC	??_R1A@?0A@A@length_error@std@@8		; std::length_error::`RTTI Base Class Descriptor at (0,-1,0,0)'
PUBLIC	??_7length_error@std@@6B@			; std::length_error::`vftable'
PUBLIC	??_Glength_error@std@@UAEPAXI@Z			; std::length_error::`scalar deleting destructor'
PUBLIC	??_R1A@?0A@A@logic_error@std@@8			; std::logic_error::`RTTI Base Class Descriptor at (0,-1,0,0)'
PUBLIC	??_R1A@?0A@A@exception@@8			; exception::`RTTI Base Class Descriptor at (0,-1,0,0)'
PUBLIC	??0logic_error@std@@QAE@ABV?$basic_string@DU?$char_traits@D@std@@V?$allocator@D@2@@1@@Z ; std::logic_error::logic_error
PUBLIC	?what@logic_error@std@@UBEPBDXZ			; std::logic_error::what
EXTRN	??_Elength_error@std@@UAEPAXI@Z:NEAR		; std::length_error::`vector deleting destructor'
;	COMDAT ??_7length_error@std@@6B@
; File d:\program files (x86)\microsoft visual studio .net 2003\vc7\include\stdexcept
CONST	SEGMENT
??_7length_error@std@@6B@ DD FLAT:??_R4length_error@std@@6B@ ; std::length_error::`vftable'
	DD	FLAT:??_Elength_error@std@@UAEPAXI@Z
	DD	FLAT:?what@logic_error@std@@UBEPBDXZ
CONST	ENDS
;	COMDAT ??_R4length_error@std@@6B@
rdata$r	SEGMENT
??_R4length_error@std@@6B@ DD 00H			; std::length_error::`RTTI Complete Object Locator'
	DD	00H
	DD	00H
	DD	FLAT:??_R0?AVlength_error@std@@@8
	DD	FLAT:??_R3length_error@std@@8
rdata$r	ENDS
;	COMDAT ??_R3length_error@std@@8
rdata$r	SEGMENT
??_R3length_error@std@@8 DD 00H				; std::length_error::`RTTI Class Hierarchy Descriptor'
	DD	00H
	DD	03H
	DD	FLAT:??_R2length_error@std@@8
rdata$r	ENDS
;	COMDAT ??_R2length_error@std@@8
rdata$r	SEGMENT
??_R2length_error@std@@8 DD FLAT:??_R1A@?0A@A@length_error@std@@8 ; std::length_error::`RTTI Base Class Array'
	DD	FLAT:??_R1A@?0A@A@logic_error@std@@8
	DD	FLAT:??_R1A@?0A@A@exception@@8
rdata$r	ENDS
;	COMDAT ??_R1A@?0A@A@length_error@std@@8
rdata$r	SEGMENT
??_R1A@?0A@A@length_error@std@@8 DD FLAT:??_R0?AVlength_error@std@@@8 ; std::length_error::`RTTI Base Class Descriptor at (0,-1,0,0)'
	DD	02H
	DD	00H
	DD	0ffffffffH
	DD	00H
	DD	00H
rdata$r	ENDS
;	COMDAT ??_R1A@?0A@A@logic_error@std@@8
rdata$r	SEGMENT
??_R1A@?0A@A@logic_error@std@@8 DD FLAT:??_R0?AVlogic_error@std@@@8 ; std::logic_error::`RTTI Base Class Descriptor at (0,-1,0,0)'
	DD	01H
	DD	00H
	DD	0ffffffffH
	DD	00H
	DD	00H
rdata$r	ENDS
;	COMDAT ??_R1A@?0A@A@exception@@8
rdata$r	SEGMENT
??_R1A@?0A@A@exception@@8 DD FLAT:??_R0?AVexception@@@8	; exception::`RTTI Base Class Descriptor at (0,-1,0,0)'
	DD	00H
	DD	00H
	DD	0ffffffffH
	DD	00H
	DD	00H
; Function compile flags: /Odt /RTCsu
rdata$r	ENDS
;	COMDAT ??0length_error@std@@QAE@ABV?$basic_string@DU?$char_traits@D@std@@V?$allocator@D@2@@1@@Z
_TEXT	SEGMENT
_this$ = -4						; size = 4
__Message$ = 8						; size = 4
??0length_error@std@@QAE@ABV?$basic_string@DU?$char_traits@D@std@@V?$allocator@D@2@@1@@Z PROC NEAR ; std::length_error::length_error, COMDAT
; _this$ = ecx

; 95   : 		{	// construct from message string

  00000	55		 push	 ebp
  00001	8b ec		 mov	 ebp, esp
  00003	51		 push	 ecx
  00004	c7 45 fc cc cc
	cc cc		 mov	 DWORD PTR [ebp-4], -858993460 ; ccccccccH
  0000b	89 4d fc	 mov	 DWORD PTR _this$[ebp], ecx
  0000e	8b 45 08	 mov	 eax, DWORD PTR __Message$[ebp]
  00011	50		 push	 eax
  00012	8b 4d fc	 mov	 ecx, DWORD PTR _this$[ebp]
  00015	e8 00 00 00 00	 call	 ??0logic_error@std@@QAE@ABV?$basic_string@DU?$char_traits@D@std@@V?$allocator@D@2@@1@@Z ; std::logic_error::logic_error
  0001a	8b 4d fc	 mov	 ecx, DWORD PTR _this$[ebp]
  0001d	c7 01 00 00 00
	00		 mov	 DWORD PTR [ecx], OFFSET FLAT:??_7length_error@std@@6B@

; 96   : 		}

  00023	8b 45 fc	 mov	 eax, DWORD PTR _this$[ebp]
  00026	83 c4 04	 add	 esp, 4
  00029	3b ec		 cmp	 ebp, esp
  0002b	e8 00 00 00 00	 call	 __RTC_CheckEsp
  00030	8b e5		 mov	 esp, ebp
  00032	5d		 pop	 ebp
  00033	c2 04 00	 ret	 4
??0length_error@std@@QAE@ABV?$basic_string@DU?$char_traits@D@std@@V?$allocator@D@2@@1@@Z ENDP ; std::length_error::length_error
_TEXT	ENDS
PUBLIC	??_7logic_error@std@@6B@			; std::logic_error::`vftable'
PUBLIC	??_Glogic_error@std@@UAEPAXI@Z			; std::logic_error::`scalar deleting destructor'
PUBLIC	??_R4logic_error@std@@6B@			; std::logic_error::`RTTI Complete Object Locator'
PUBLIC	??_R3logic_error@std@@8				; std::logic_error::`RTTI Class Hierarchy Descriptor'
PUBLIC	??_R2logic_error@std@@8				; std::logic_error::`RTTI Base Class Array'
EXTRN	??_Elogic_error@std@@UAEPAXI@Z:NEAR		; std::logic_error::`vector deleting destructor'
EXTRN	__imp_??0exception@@QAE@XZ:NEAR
EXTRN	__imp_??1exception@@UAE@XZ:NEAR
;	COMDAT xdata$x
xdata$x	SEGMENT
$T89314	DD	0ffffffffH
	DD	FLAT:$L89309
$T89312	DD	019930520H
	DD	01H
	DD	FLAT:$T89314
	DD	2 DUP(00H)
	DD	2 DUP(00H)
xdata$x	ENDS
;	COMDAT ??_7logic_error@std@@6B@
CONST	SEGMENT
??_7logic_error@std@@6B@ DD FLAT:??_R4logic_error@std@@6B@ ; std::logic_error::`vftable'
	DD	FLAT:??_Elogic_error@std@@UAEPAXI@Z
	DD	FLAT:?what@logic_error@std@@UBEPBDXZ
CONST	ENDS
;	COMDAT ??_R4logic_error@std@@6B@
rdata$r	SEGMENT
??_R4logic_error@std@@6B@ DD 00H			; std::logic_error::`RTTI Complete Object Locator'
	DD	00H
	DD	00H
	DD	FLAT:??_R0?AVlogic_error@std@@@8
	DD	FLAT:??_R3logic_error@std@@8
rdata$r	ENDS
;	COMDAT ??_R3logic_error@std@@8
rdata$r	SEGMENT
??_R3logic_error@std@@8 DD 00H				; std::logic_error::`RTTI Class Hierarchy Descriptor'
	DD	00H
	DD	02H
	DD	FLAT:??_R2logic_error@std@@8
rdata$r	ENDS
;	COMDAT ??_R2logic_error@std@@8
rdata$r	SEGMENT
??_R2logic_error@std@@8 DD FLAT:??_R1A@?0A@A@logic_error@std@@8 ; std::logic_error::`RTTI Base Class Array'
	DD	FLAT:??_R1A@?0A@A@exception@@8
; Function compile flags: /Odt /RTCsu
rdata$r	ENDS
;	COMDAT ??0logic_error@std@@QAE@ABV?$basic_string@DU?$char_traits@D@std@@V?$allocator@D@2@@1@@Z
_TEXT	SEGMENT
_this$ = -16						; size = 4
__$EHRec$ = -12						; size = 12
__Message$ = 8						; size = 4
??0logic_error@std@@QAE@ABV?$basic_string@DU?$char_traits@D@std@@V?$allocator@D@2@@1@@Z PROC NEAR ; std::logic_error::logic_error, COMDAT
; _this$ = ecx

; 19   : 		{	// construct from message string

  00000	55		 push	 ebp
  00001	8b ec		 mov	 ebp, esp
  00003	6a ff		 push	 -1
  00005	68 00 00 00 00	 push	 __ehhandler$??0logic_error@std@@QAE@ABV?$basic_string@DU?$char_traits@D@std@@V?$allocator@D@2@@1@@Z
  0000a	64 a1 00 00 00
	00		 mov	 eax, DWORD PTR fs:__except_list
  00010	50		 push	 eax
  00011	64 89 25 00 00
	00 00		 mov	 DWORD PTR fs:__except_list, esp
  00018	51		 push	 ecx
  00019	56		 push	 esi
  0001a	c7 45 f0 cc cc
	cc cc		 mov	 DWORD PTR [ebp-16], -858993460 ; ccccccccH
  00021	89 4d f0	 mov	 DWORD PTR _this$[ebp], ecx
  00024	8b f4		 mov	 esi, esp
  00026	8b 4d f0	 mov	 ecx, DWORD PTR _this$[ebp]
  00029	ff 15 00 00 00
	00		 call	 DWORD PTR __imp_??0exception@@QAE@XZ
  0002f	3b f4		 cmp	 esi, esp
  00031	e8 00 00 00 00	 call	 __RTC_CheckEsp
  00036	c7 45 fc 00 00
	00 00		 mov	 DWORD PTR __$EHRec$[ebp+8], 0
  0003d	8b 45 f0	 mov	 eax, DWORD PTR _this$[ebp]
  00040	c7 00 00 00 00
	00		 mov	 DWORD PTR [eax], OFFSET FLAT:??_7logic_error@std@@6B@
  00046	8b f4		 mov	 esi, esp
  00048	8b 4d 08	 mov	 ecx, DWORD PTR __Message$[ebp]
  0004b	51		 push	 ecx
  0004c	8b 4d f0	 mov	 ecx, DWORD PTR _this$[ebp]
  0004f	83 c1 0c	 add	 ecx, 12			; 0000000cH
  00052	ff 15 00 00 00
	00		 call	 DWORD PTR __imp_??0?$basic_string@DU?$char_traits@D@std@@V?$allocator@D@2@@std@@QAE@ABV01@@Z
  00058	3b f4		 cmp	 esi, esp
  0005a	e8 00 00 00 00	 call	 __RTC_CheckEsp

; 20   : 		}

  0005f	c7 45 fc ff ff
	ff ff		 mov	 DWORD PTR __$EHRec$[ebp+8], -1
  00066	8b 45 f0	 mov	 eax, DWORD PTR _this$[ebp]
  00069	8b 4d f4	 mov	 ecx, DWORD PTR __$EHRec$[ebp]
  0006c	64 89 0d 00 00
	00 00		 mov	 DWORD PTR fs:__except_list, ecx
  00073	5e		 pop	 esi
  00074	83 c4 10	 add	 esp, 16			; 00000010H
  00077	3b ec		 cmp	 ebp, esp
  00079	e8 00 00 00 00	 call	 __RTC_CheckEsp
  0007e	8b e5		 mov	 esp, ebp
  00080	5d		 pop	 ebp
  00081	c2 04 00	 ret	 4
_TEXT	ENDS
;	COMDAT text$x
text$x	SEGMENT
$L89309:
  00000	8b f4		 mov	 esi, esp
  00002	8b 4d f0	 mov	 ecx, DWORD PTR _this$[ebp]
  00005	ff 15 00 00 00
	00		 call	 DWORD PTR __imp_??1exception@@UAE@XZ
  0000b	3b f4		 cmp	 esi, esp
  0000d	e9 00 00 00 00	 jmp	 __RTC_CheckEsp
__ehhandler$??0logic_error@std@@QAE@ABV?$basic_string@DU?$char_traits@D@std@@V?$allocator@D@2@@1@@Z:
  00012	b8 00 00 00 00	 mov	 eax, OFFSET FLAT:$T89312
  00017	e9 00 00 00 00	 jmp	 ___CxxFrameHandler
text$x	ENDS
??0logic_error@std@@QAE@ABV?$basic_string@DU?$char_traits@D@std@@V?$allocator@D@2@@1@@Z ENDP ; std::logic_error::logic_error
; Function compile flags: /Odt /RTCsu
;	COMDAT ?what@logic_error@std@@UBEPBDXZ
_TEXT	SEGMENT
_this$ = -4						; size = 4
?what@logic_error@std@@UBEPBDXZ PROC NEAR		; std::logic_error::what, COMDAT
; _this$ = ecx

; 26   : 		{	// return pointer to message string

  00000	55		 push	 ebp
  00001	8b ec		 mov	 ebp, esp
  00003	51		 push	 ecx
  00004	56		 push	 esi
  00005	c7 45 fc cc cc
	cc cc		 mov	 DWORD PTR [ebp-4], -858993460 ; ccccccccH
  0000c	89 4d fc	 mov	 DWORD PTR _this$[ebp], ecx

; 27   : 		return (_Str.c_str());

  0000f	8b 4d fc	 mov	 ecx, DWORD PTR _this$[ebp]
  00012	83 c1 0c	 add	 ecx, 12			; 0000000cH
  00015	8b f4		 mov	 esi, esp
  00017	ff 15 00 00 00
	00		 call	 DWORD PTR __imp_?c_str@?$basic_string@DU?$char_traits@D@std@@V?$allocator@D@2@@std@@QBEPBDXZ
  0001d	3b f4		 cmp	 esi, esp
  0001f	e8 00 00 00 00	 call	 __RTC_CheckEsp

; 28   : 		}

  00024	5e		 pop	 esi
  00025	83 c4 04	 add	 esp, 4
  00028	3b ec		 cmp	 ebp, esp
  0002a	e8 00 00 00 00	 call	 __RTC_CheckEsp
  0002f	8b e5		 mov	 esp, ebp
  00031	5d		 pop	 ebp
  00032	c3		 ret	 0
?what@logic_error@std@@UBEPBDXZ ENDP			; std::logic_error::what
_TEXT	ENDS
PUBLIC	??1logic_error@std@@UAE@XZ			; std::logic_error::~logic_error
; Function compile flags: /Odt /RTCsu
;	COMDAT ??_Glogic_error@std@@UAEPAXI@Z
_TEXT	SEGMENT
_this$ = -4						; size = 4
___flags$ = 8						; size = 4
??_Glogic_error@std@@UAEPAXI@Z PROC NEAR		; std::logic_error::`scalar deleting destructor', COMDAT
; _this$ = ecx
  00000	55		 push	 ebp
  00001	8b ec		 mov	 ebp, esp
  00003	51		 push	 ecx
  00004	c7 45 fc cc cc
	cc cc		 mov	 DWORD PTR [ebp-4], -858993460 ; ccccccccH
  0000b	89 4d fc	 mov	 DWORD PTR _this$[ebp], ecx
  0000e	8b 4d fc	 mov	 ecx, DWORD PTR _this$[ebp]
  00011	e8 00 00 00 00	 call	 ??1logic_error@std@@UAE@XZ ; std::logic_error::~logic_error
  00016	8b 45 08	 mov	 eax, DWORD PTR ___flags$[ebp]
  00019	83 e0 01	 and	 eax, 1
  0001c	74 0c		 je	 SHORT $L76815
  0001e	8b 4d fc	 mov	 ecx, DWORD PTR _this$[ebp]
  00021	51		 push	 ecx
  00022	e8 00 00 00 00	 call	 ??3@YAXPAX@Z		; operator delete
  00027	83 c4 04	 add	 esp, 4
$L76815:
  0002a	8b 45 fc	 mov	 eax, DWORD PTR _this$[ebp]
  0002d	83 c4 04	 add	 esp, 4
  00030	3b ec		 cmp	 ebp, esp
  00032	e8 00 00 00 00	 call	 __RTC_CheckEsp
  00037	8b e5		 mov	 esp, ebp
  00039	5d		 pop	 ebp
  0003a	c2 04 00	 ret	 4
??_Glogic_error@std@@UAEPAXI@Z ENDP			; std::logic_error::`scalar deleting destructor'
_TEXT	ENDS
;	COMDAT xdata$x
xdata$x	SEGMENT
$T89325	DD	0ffffffffH
	DD	FLAT:$L89320
$T89323	DD	019930520H
	DD	01H
	DD	FLAT:$T89325
	DD	2 DUP(00H)
	DD	2 DUP(00H)
; Function compile flags: /Odt /RTCsu
xdata$x	ENDS
;	COMDAT ??1logic_error@std@@UAE@XZ
_TEXT	SEGMENT
_this$ = -16						; size = 4
__$EHRec$ = -12						; size = 12
??1logic_error@std@@UAE@XZ PROC NEAR			; std::logic_error::~logic_error, COMDAT
; _this$ = ecx

; 23   : 		{}	// destroy the object

  00000	55		 push	 ebp
  00001	8b ec		 mov	 ebp, esp
  00003	6a ff		 push	 -1
  00005	68 00 00 00 00	 push	 __ehhandler$??1logic_error@std@@UAE@XZ
  0000a	64 a1 00 00 00
	00		 mov	 eax, DWORD PTR fs:__except_list
  00010	50		 push	 eax
  00011	64 89 25 00 00
	00 00		 mov	 DWORD PTR fs:__except_list, esp
  00018	51		 push	 ecx
  00019	56		 push	 esi
  0001a	c7 45 f0 cc cc
	cc cc		 mov	 DWORD PTR [ebp-16], -858993460 ; ccccccccH
  00021	89 4d f0	 mov	 DWORD PTR _this$[ebp], ecx
  00024	8b 45 f0	 mov	 eax, DWORD PTR _this$[ebp]
  00027	c7 00 00 00 00
	00		 mov	 DWORD PTR [eax], OFFSET FLAT:??_7logic_error@std@@6B@
  0002d	c7 45 fc 00 00
	00 00		 mov	 DWORD PTR __$EHRec$[ebp+8], 0
  00034	8b 4d f0	 mov	 ecx, DWORD PTR _this$[ebp]
  00037	83 c1 0c	 add	 ecx, 12			; 0000000cH
  0003a	8b f4		 mov	 esi, esp
  0003c	ff 15 00 00 00
	00		 call	 DWORD PTR __imp_??1?$basic_string@DU?$char_traits@D@std@@V?$allocator@D@2@@std@@QAE@XZ
  00042	3b f4		 cmp	 esi, esp
  00044	e8 00 00 00 00	 call	 __RTC_CheckEsp
  00049	c7 45 fc ff ff
	ff ff		 mov	 DWORD PTR __$EHRec$[ebp+8], -1
  00050	8b f4		 mov	 esi, esp
  00052	8b 4d f0	 mov	 ecx, DWORD PTR _this$[ebp]
  00055	ff 15 00 00 00
	00		 call	 DWORD PTR __imp_??1exception@@UAE@XZ
  0005b	3b f4		 cmp	 esi, esp
  0005d	e8 00 00 00 00	 call	 __RTC_CheckEsp
  00062	8b 4d f4	 mov	 ecx, DWORD PTR __$EHRec$[ebp]
  00065	64 89 0d 00 00
	00 00		 mov	 DWORD PTR fs:__except_list, ecx
  0006c	5e		 pop	 esi
  0006d	83 c4 10	 add	 esp, 16			; 00000010H
  00070	3b ec		 cmp	 ebp, esp
  00072	e8 00 00 00 00	 call	 __RTC_CheckEsp
  00077	8b e5		 mov	 esp, ebp
  00079	5d		 pop	 ebp
  0007a	c3		 ret	 0
_TEXT	ENDS
;	COMDAT text$x
text$x	SEGMENT
$L89320:
  00000	8b f4		 mov	 esi, esp
  00002	8b 4d f0	 mov	 ecx, DWORD PTR _this$[ebp]
  00005	ff 15 00 00 00
	00		 call	 DWORD PTR __imp_??1exception@@UAE@XZ
  0000b	3b f4		 cmp	 esi, esp
  0000d	e9 00 00 00 00	 jmp	 __RTC_CheckEsp
__ehhandler$??1logic_error@std@@UAE@XZ:
  00012	b8 00 00 00 00	 mov	 eax, OFFSET FLAT:$T89323
  00017	e9 00 00 00 00	 jmp	 ___CxxFrameHandler
text$x	ENDS
??1logic_error@std@@UAE@XZ ENDP				; std::logic_error::~logic_error
; Function compile flags: /Odt /RTCsu
;	COMDAT ??1length_error@std@@UAE@XZ
_TEXT	SEGMENT
_this$ = -4						; size = 4
??1length_error@std@@UAE@XZ PROC NEAR			; std::length_error::~length_error, COMDAT
; _this$ = ecx

; 99   : 		{}	// destroy the object

  00000	55		 push	 ebp
  00001	8b ec		 mov	 ebp, esp
  00003	51		 push	 ecx
  00004	c7 45 fc cc cc
	cc cc		 mov	 DWORD PTR [ebp-4], -858993460 ; ccccccccH
  0000b	89 4d fc	 mov	 DWORD PTR _this$[ebp], ecx
  0000e	8b 45 fc	 mov	 eax, DWORD PTR _this$[ebp]
  00011	c7 00 00 00 00
	00		 mov	 DWORD PTR [eax], OFFSET FLAT:??_7length_error@std@@6B@
  00017	8b 4d fc	 mov	 ecx, DWORD PTR _this$[ebp]
  0001a	e8 00 00 00 00	 call	 ??1logic_error@std@@UAE@XZ ; std::logic_error::~logic_error
  0001f	83 c4 04	 add	 esp, 4
  00022	3b ec		 cmp	 ebp, esp
  00024	e8 00 00 00 00	 call	 __RTC_CheckEsp
  00029	8b e5		 mov	 esp, ebp
  0002b	5d		 pop	 ebp
  0002c	c3		 ret	 0
??1length_error@std@@UAE@XZ ENDP			; std::length_error::~length_error
; Function compile flags: /Odt /RTCsu
_TEXT	ENDS
;	COMDAT ??_Glength_error@std@@UAEPAXI@Z
_TEXT	SEGMENT
_this$ = -4						; size = 4
___flags$ = 8						; size = 4
??_Glength_error@std@@UAEPAXI@Z PROC NEAR		; std::length_error::`scalar deleting destructor', COMDAT
; _this$ = ecx
  00000	55		 push	 ebp
  00001	8b ec		 mov	 ebp, esp
  00003	51		 push	 ecx
  00004	c7 45 fc cc cc
	cc cc		 mov	 DWORD PTR [ebp-4], -858993460 ; ccccccccH
  0000b	89 4d fc	 mov	 DWORD PTR _this$[ebp], ecx
  0000e	8b 4d fc	 mov	 ecx, DWORD PTR _this$[ebp]
  00011	e8 00 00 00 00	 call	 ??1length_error@std@@UAE@XZ ; std::length_error::~length_error
  00016	8b 45 08	 mov	 eax, DWORD PTR ___flags$[ebp]
  00019	83 e0 01	 and	 eax, 1
  0001c	74 0c		 je	 SHORT $L76881
  0001e	8b 4d fc	 mov	 ecx, DWORD PTR _this$[ebp]
  00021	51		 push	 ecx
  00022	e8 00 00 00 00	 call	 ??3@YAXPAX@Z		; operator delete
  00027	83 c4 04	 add	 esp, 4
$L76881:
  0002a	8b 45 fc	 mov	 eax, DWORD PTR _this$[ebp]
  0002d	83 c4 04	 add	 esp, 4
  00030	3b ec		 cmp	 ebp, esp
  00032	e8 00 00 00 00	 call	 __RTC_CheckEsp
  00037	8b e5		 mov	 esp, ebp
  00039	5d		 pop	 ebp
  0003a	c2 04 00	 ret	 4
??_Glength_error@std@@UAEPAXI@Z ENDP			; std::length_error::`scalar deleting destructor'
; Function compile flags: /Odt /RTCsu
; File d:\program files (x86)\microsoft visual studio .net 2003\vc7\include\xmemory
_TEXT	ENDS
;	COMDAT ??0?$allocator@V?$basic_string@DU?$char_traits@D@std@@V?$allocator@D@2@@std@@@std@@QAE@ABV01@@Z
_TEXT	SEGMENT
_this$ = -4						; size = 4
___formal$ = 8						; size = 4
??0?$allocator@V?$basic_string@DU?$char_traits@D@std@@V?$allocator@D@2@@std@@@std@@QAE@ABV01@@Z PROC NEAR ; std::allocator<std::basic_string<char,std::char_traits<char>,std::allocator<char> > >::allocator<std::basic_string<char,std::char_traits<char>,std::allocator<char> > >, COMDAT
; _this$ = ecx

; 115  : 	allocator(const allocator<_Ty>&)

  00000	55		 push	 ebp
  00001	8b ec		 mov	 ebp, esp
  00003	51		 push	 ecx
  00004	c7 45 fc cc cc
	cc cc		 mov	 DWORD PTR [ebp-4], -858993460 ; ccccccccH
  0000b	89 4d fc	 mov	 DWORD PTR _this$[ebp], ecx

; 116  : 		{	// construct by copying (do nothing)
; 117  : 		}

  0000e	8b 45 fc	 mov	 eax, DWORD PTR _this$[ebp]
  00011	8b e5		 mov	 esp, ebp
  00013	5d		 pop	 ebp
  00014	c2 04 00	 ret	 4
??0?$allocator@V?$basic_string@DU?$char_traits@D@std@@V?$allocator@D@2@@std@@@std@@QAE@ABV01@@Z ENDP ; std::allocator<std::basic_string<char,std::char_traits<char>,std::allocator<char> > >::allocator<std::basic_string<char,std::char_traits<char>,std::allocator<char> > >
; Function compile flags: /Odt /RTCsu
_TEXT	ENDS
;	COMDAT ?deallocate@?$allocator@V?$basic_string@DU?$char_traits@D@std@@V?$allocator@D@2@@std@@@std@@QAEXPAV?$basic_string@DU?$char_traits@D@std@@V?$allocator@D@2@@2@I@Z
_TEXT	SEGMENT
_this$ = -4						; size = 4
__Ptr$ = 8						; size = 4
___formal$ = 12						; size = 4
?deallocate@?$allocator@V?$basic_string@DU?$char_traits@D@std@@V?$allocator@D@2@@std@@@std@@QAEXPAV?$basic_string@DU?$char_traits@D@std@@V?$allocator@D@2@@2@I@Z PROC NEAR ; std::allocator<std::basic_string<char,std::char_traits<char>,std::allocator<char> > >::deallocate, COMDAT
; _this$ = ecx

; 131  : 		{	// deallocate object at _Ptr, ignore size

  00000	55		 push	 ebp
  00001	8b ec		 mov	 ebp, esp
  00003	51		 push	 ecx
  00004	c7 45 fc cc cc
	cc cc		 mov	 DWORD PTR [ebp-4], -858993460 ; ccccccccH
  0000b	89 4d fc	 mov	 DWORD PTR _this$[ebp], ecx

; 132  : 		operator delete(_Ptr);

  0000e	8b 45 08	 mov	 eax, DWORD PTR __Ptr$[ebp]
  00011	50		 push	 eax
  00012	e8 00 00 00 00	 call	 ??3@YAXPAX@Z		; operator delete
  00017	83 c4 04	 add	 esp, 4

; 133  : 		}

  0001a	83 c4 04	 add	 esp, 4
  0001d	3b ec		 cmp	 ebp, esp
  0001f	e8 00 00 00 00	 call	 __RTC_CheckEsp
  00024	8b e5		 mov	 esp, ebp
  00026	5d		 pop	 ebp
  00027	c2 08 00	 ret	 8
?deallocate@?$allocator@V?$basic_string@DU?$char_traits@D@std@@V?$allocator@D@2@@std@@@std@@QAEXPAV?$basic_string@DU?$char_traits@D@std@@V?$allocator@D@2@@2@I@Z ENDP ; std::allocator<std::basic_string<char,std::char_traits<char>,std::allocator<char> > >::deallocate
_TEXT	ENDS
PUBLIC	??$_Allocate@V?$basic_string@DU?$char_traits@D@std@@V?$allocator@D@2@@std@@@std@@YAPAV?$basic_string@DU?$char_traits@D@std@@V?$allocator@D@2@@0@IPAV10@@Z ; std::_Allocate<std::basic_string<char,std::char_traits<char>,std::allocator<char> > >
; Function compile flags: /Odt /RTCsu
;	COMDAT ?allocate@?$allocator@V?$basic_string@DU?$char_traits@D@std@@V?$allocator@D@2@@std@@@std@@QAEPAV?$basic_string@DU?$char_traits@D@std@@V?$allocator@D@2@@2@I@Z
_TEXT	SEGMENT
_this$ = -4						; size = 4
__Count$ = 8						; size = 4
?allocate@?$allocator@V?$basic_string@DU?$char_traits@D@std@@V?$allocator@D@2@@std@@@std@@QAEPAV?$basic_string@DU?$char_traits@D@std@@V?$allocator@D@2@@2@I@Z PROC NEAR ; std::allocator<std::basic_string<char,std::char_traits<char>,std::allocator<char> > >::allocate, COMDAT
; _this$ = ecx

; 136  : 		{	// allocate array of _Count elements

  00000	55		 push	 ebp
  00001	8b ec		 mov	 ebp, esp
  00003	51		 push	 ecx
  00004	c7 45 fc cc cc
	cc cc		 mov	 DWORD PTR [ebp-4], -858993460 ; ccccccccH
  0000b	89 4d fc	 mov	 DWORD PTR _this$[ebp], ecx

; 137  : 		return (_Allocate(_Count, (pointer)0));

  0000e	6a 00		 push	 0
  00010	8b 45 08	 mov	 eax, DWORD PTR __Count$[ebp]
  00013	50		 push	 eax
  00014	e8 00 00 00 00	 call	 ??$_Allocate@V?$basic_string@DU?$char_traits@D@std@@V?$allocator@D@2@@std@@@std@@YAPAV?$basic_string@DU?$char_traits@D@std@@V?$allocator@D@2@@0@IPAV10@@Z ; std::_Allocate<std::basic_string<char,std::char_traits<char>,std::allocator<char> > >
  00019	83 c4 08	 add	 esp, 8

; 138  : 		}

  0001c	83 c4 04	 add	 esp, 4
  0001f	3b ec		 cmp	 ebp, esp
  00021	e8 00 00 00 00	 call	 __RTC_CheckEsp
  00026	8b e5		 mov	 esp, ebp
  00028	5d		 pop	 ebp
  00029	c2 04 00	 ret	 4
?allocate@?$allocator@V?$basic_string@DU?$char_traits@D@std@@V?$allocator@D@2@@std@@@std@@QAEPAV?$basic_string@DU?$char_traits@D@std@@V?$allocator@D@2@@2@I@Z ENDP ; std::allocator<std::basic_string<char,std::char_traits<char>,std::allocator<char> > >::allocate
; Function compile flags: /Odt /RTCsu
; File d:\program files (x86)\microsoft visual studio .net 2003\vc7\include\vector
_TEXT	ENDS
;	COMDAT ??Yiterator@?$vector@V?$basic_string@DU?$char_traits@D@std@@V?$allocator@D@2@@std@@V?$allocator@V?$basic_string@DU?$char_traits@D@std@@V?$allocator@D@2@@std@@@2@@std@@QAEAAV012@H@Z
_TEXT	SEGMENT
_this$ = -4						; size = 4
__Off$ = 8						; size = 4
??Yiterator@?$vector@V?$basic_string@DU?$char_traits@D@std@@V?$allocator@D@2@@std@@V?$allocator@V?$basic_string@DU?$char_traits@D@std@@V?$allocator@D@2@@std@@@2@@std@@QAEAAV012@H@Z PROC NEAR ; std::vector<std::basic_string<char,std::char_traits<char>,std::allocator<char> >,std::allocator<std::basic_string<char,std::char_traits<char>,std::allocator<char> > > >::iterator::operator+=, COMDAT
; _this$ = ecx

; 255  : 			{	// increment by integer

  00000	55		 push	 ebp
  00001	8b ec		 mov	 ebp, esp
  00003	51		 push	 ecx
  00004	c7 45 fc cc cc
	cc cc		 mov	 DWORD PTR [ebp-4], -858993460 ; ccccccccH
  0000b	89 4d fc	 mov	 DWORD PTR _this$[ebp], ecx

; 256  : 			this->_Myptr += _Off;

  0000e	8b 45 08	 mov	 eax, DWORD PTR __Off$[ebp]
  00011	6b c0 1c	 imul	 eax, 28			; 0000001cH
  00014	8b 4d fc	 mov	 ecx, DWORD PTR _this$[ebp]
  00017	03 01		 add	 eax, DWORD PTR [ecx]
  00019	8b 55 fc	 mov	 edx, DWORD PTR _this$[ebp]
  0001c	89 02		 mov	 DWORD PTR [edx], eax

; 257  : 			return (*this);

  0001e	8b 45 fc	 mov	 eax, DWORD PTR _this$[ebp]

; 258  : 			}

  00021	8b e5		 mov	 esp, ebp
  00023	5d		 pop	 ebp
  00024	c2 04 00	 ret	 4
??Yiterator@?$vector@V?$basic_string@DU?$char_traits@D@std@@V?$allocator@D@2@@std@@V?$allocator@V?$basic_string@DU?$char_traits@D@std@@V?$allocator@D@2@@std@@@2@@std@@QAEAAV012@H@Z ENDP ; std::vector<std::basic_string<char,std::char_traits<char>,std::allocator<char> >,std::allocator<std::basic_string<char,std::char_traits<char>,std::allocator<char> > > >::iterator::operator+=
_TEXT	ENDS
PUBLIC	??Gconst_iterator@?$vector@V?$basic_string@DU?$char_traits@D@std@@V?$allocator@D@2@@std@@V?$allocator@V?$basic_string@DU?$char_traits@D@std@@V?$allocator@D@2@@std@@@2@@std@@QBEHABV012@@Z ; std::vector<std::basic_string<char,std::char_traits<char>,std::allocator<char> >,std::allocator<std::basic_string<char,std::char_traits<char>,std::allocator<char> > > >::const_iterator::operator-
; Function compile flags: /Odt /RTCsu
;	COMDAT ??Giterator@?$vector@V?$basic_string@DU?$char_traits@D@std@@V?$allocator@D@2@@std@@V?$allocator@V?$basic_string@DU?$char_traits@D@std@@V?$allocator@D@2@@std@@@2@@std@@QBEHABVconst_iterator@12@@Z
_TEXT	SEGMENT
$T89336 = -8						; size = 4
_this$ = -4						; size = 4
__Right$ = 8						; size = 4
??Giterator@?$vector@V?$basic_string@DU?$char_traits@D@std@@V?$allocator@D@2@@std@@V?$allocator@V?$basic_string@DU?$char_traits@D@std@@V?$allocator@D@2@@std@@@2@@std@@QBEHABVconst_iterator@12@@Z PROC NEAR ; std::vector<std::basic_string<char,std::char_traits<char>,std::allocator<char> >,std::allocator<std::basic_string<char,std::char_traits<char>,std::allocator<char> > > >::iterator::operator-, COMDAT
; _this$ = ecx

; 278  : 			{	// return difference of iterators

  00000	55		 push	 ebp
  00001	8b ec		 mov	 ebp, esp
  00003	83 ec 08	 sub	 esp, 8
  00006	c7 45 f8 cc cc
	cc cc		 mov	 DWORD PTR [ebp-8], -858993460 ; ccccccccH
  0000d	c7 45 fc cc cc
	cc cc		 mov	 DWORD PTR [ebp-4], -858993460 ; ccccccccH
  00014	89 4d fc	 mov	 DWORD PTR _this$[ebp], ecx

; 279  : 			return ((const_iterator)*this - _Right);

  00017	8b 45 fc	 mov	 eax, DWORD PTR _this$[ebp]
  0001a	8b 08		 mov	 ecx, DWORD PTR [eax]
  0001c	89 4d f8	 mov	 DWORD PTR $T89336[ebp], ecx
  0001f	8b 55 08	 mov	 edx, DWORD PTR __Right$[ebp]
  00022	52		 push	 edx
  00023	8d 4d f8	 lea	 ecx, DWORD PTR $T89336[ebp]
  00026	e8 00 00 00 00	 call	 ??Gconst_iterator@?$vector@V?$basic_string@DU?$char_traits@D@std@@V?$allocator@D@2@@std@@V?$allocator@V?$basic_string@DU?$char_traits@D@std@@V?$allocator@D@2@@std@@@2@@std@@QBEHABV012@@Z ; std::vector<std::basic_string<char,std::char_traits<char>,std::allocator<char> >,std::allocator<std::basic_string<char,std::char_traits<char>,std::allocator<char> > > >::const_iterator::operator-

; 280  : 			}

  0002b	83 c4 08	 add	 esp, 8
  0002e	3b ec		 cmp	 ebp, esp
  00030	e8 00 00 00 00	 call	 __RTC_CheckEsp
  00035	8b e5		 mov	 esp, ebp
  00037	5d		 pop	 ebp
  00038	c2 04 00	 ret	 4
??Giterator@?$vector@V?$basic_string@DU?$char_traits@D@std@@V?$allocator@D@2@@std@@V?$allocator@V?$basic_string@DU?$char_traits@D@std@@V?$allocator@D@2@@std@@@2@@std@@QBEHABVconst_iterator@12@@Z ENDP ; std::vector<std::basic_string<char,std::char_traits<char>,std::allocator<char> >,std::allocator<std::basic_string<char,std::char_traits<char>,std::allocator<char> > > >::iterator::operator-
; Function compile flags: /Odt /RTCsu
_TEXT	ENDS
;	COMDAT ??0const_iterator@?$vector@V?$basic_string@DU?$char_traits@D@std@@V?$allocator@D@2@@std@@V?$allocator@V?$basic_string@DU?$char_traits@D@std@@V?$allocator@D@2@@std@@@2@@std@@QAE@PAV?$basic_string@DU?$char_traits@D@std@@V?$allocator@D@2@@2@@Z
_TEXT	SEGMENT
_this$ = -4						; size = 4
__Ptr$ = 8						; size = 4
??0const_iterator@?$vector@V?$basic_string@DU?$char_traits@D@std@@V?$allocator@D@2@@std@@V?$allocator@V?$basic_string@DU?$char_traits@D@std@@V?$allocator@D@2@@std@@@2@@std@@QAE@PAV?$basic_string@DU?$char_traits@D@std@@V?$allocator@D@2@@2@@Z PROC NEAR ; std::vector<std::basic_string<char,std::char_traits<char>,std::allocator<char> >,std::allocator<std::basic_string<char,std::char_traits<char>,std::allocator<char> > > >::const_iterator::const_iterator, COMDAT
; _this$ = ecx

; 73   : 		const_iterator(_Tptr _Ptr)

  00000	55		 push	 ebp
  00001	8b ec		 mov	 ebp, esp
  00003	51		 push	 ecx
  00004	c7 45 fc cc cc
	cc cc		 mov	 DWORD PTR [ebp-4], -858993460 ; ccccccccH
  0000b	89 4d fc	 mov	 DWORD PTR _this$[ebp], ecx

; 74   : 			{	// construct with pointer _Ptr
; 75   : 			_Myptr = _Ptr;

  0000e	8b 45 fc	 mov	 eax, DWORD PTR _this$[ebp]
  00011	8b 4d 08	 mov	 ecx, DWORD PTR __Ptr$[ebp]
  00014	89 08		 mov	 DWORD PTR [eax], ecx

; 76   : 			}

  00016	8b 45 fc	 mov	 eax, DWORD PTR _this$[ebp]
  00019	8b e5		 mov	 esp, ebp
  0001b	5d		 pop	 ebp
  0001c	c2 04 00	 ret	 4
??0const_iterator@?$vector@V?$basic_string@DU?$char_traits@D@std@@V?$allocator@D@2@@std@@V?$allocator@V?$basic_string@DU?$char_traits@D@std@@V?$allocator@D@2@@std@@@2@@std@@QAE@PAV?$basic_string@DU?$char_traits@D@std@@V?$allocator@D@2@@2@@Z ENDP ; std::vector<std::basic_string<char,std::char_traits<char>,std::allocator<char> >,std::allocator<std::basic_string<char,std::char_traits<char>,std::allocator<char> > > >::const_iterator::const_iterator
; Function compile flags: /Odt /RTCsu
_TEXT	ENDS
;	COMDAT ??Yconst_iterator@?$vector@V?$basic_string@DU?$char_traits@D@std@@V?$allocator@D@2@@std@@V?$allocator@V?$basic_string@DU?$char_traits@D@std@@V?$allocator@D@2@@std@@@2@@std@@QAEAAV012@H@Z
_TEXT	SEGMENT
_this$ = -4						; size = 4
__Off$ = 8						; size = 4
??Yconst_iterator@?$vector@V?$basic_string@DU?$char_traits@D@std@@V?$allocator@D@2@@std@@V?$allocator@V?$basic_string@DU?$char_traits@D@std@@V?$allocator@D@2@@std@@@2@@std@@QAEAAV012@H@Z PROC NEAR ; std::vector<std::basic_string<char,std::char_traits<char>,std::allocator<char> >,std::allocator<std::basic_string<char,std::char_traits<char>,std::allocator<char> > > >::const_iterator::operator+=, COMDAT
; _this$ = ecx

; 117  : 			{	// increment by integer

  00000	55		 push	 ebp
  00001	8b ec		 mov	 ebp, esp
  00003	51		 push	 ecx
  00004	c7 45 fc cc cc
	cc cc		 mov	 DWORD PTR [ebp-4], -858993460 ; ccccccccH
  0000b	89 4d fc	 mov	 DWORD PTR _this$[ebp], ecx

; 118  : 			_Myptr += _Off;

  0000e	8b 45 08	 mov	 eax, DWORD PTR __Off$[ebp]
  00011	6b c0 1c	 imul	 eax, 28			; 0000001cH
  00014	8b 4d fc	 mov	 ecx, DWORD PTR _this$[ebp]
  00017	03 01		 add	 eax, DWORD PTR [ecx]
  00019	8b 55 fc	 mov	 edx, DWORD PTR _this$[ebp]
  0001c	89 02		 mov	 DWORD PTR [edx], eax

; 119  : 			return (*this);

  0001e	8b 45 fc	 mov	 eax, DWORD PTR _this$[ebp]

; 120  : 			}

  00021	8b e5		 mov	 esp, ebp
  00023	5d		 pop	 ebp
  00024	c2 04 00	 ret	 4
??Yconst_iterator@?$vector@V?$basic_string@DU?$char_traits@D@std@@V?$allocator@D@2@@std@@V?$allocator@V?$basic_string@DU?$char_traits@D@std@@V?$allocator@D@2@@std@@@2@@std@@QAEAAV012@H@Z ENDP ; std::vector<std::basic_string<char,std::char_traits<char>,std::allocator<char> >,std::allocator<std::basic_string<char,std::char_traits<char>,std::allocator<char> > > >::const_iterator::operator+=
; Function compile flags: /Odt /RTCsu
_TEXT	ENDS
;	COMDAT ??0length_error@std@@QAE@ABV01@@Z
_TEXT	SEGMENT
_this$ = -4						; size = 4
___that$ = 8						; size = 4
??0length_error@std@@QAE@ABV01@@Z PROC NEAR		; std::length_error::length_error, COMDAT
; _this$ = ecx
  00000	55		 push	 ebp
  00001	8b ec		 mov	 ebp, esp
  00003	51		 push	 ecx
  00004	c7 45 fc cc cc
	cc cc		 mov	 DWORD PTR [ebp-4], -858993460 ; ccccccccH
  0000b	89 4d fc	 mov	 DWORD PTR _this$[ebp], ecx
  0000e	8b 45 08	 mov	 eax, DWORD PTR ___that$[ebp]
  00011	50		 push	 eax
  00012	8b 4d fc	 mov	 ecx, DWORD PTR _this$[ebp]
  00015	e8 00 00 00 00	 call	 ??0logic_error@std@@QAE@ABV01@@Z
  0001a	8b 4d fc	 mov	 ecx, DWORD PTR _this$[ebp]
  0001d	c7 01 00 00 00
	00		 mov	 DWORD PTR [ecx], OFFSET FLAT:??_7length_error@std@@6B@
  00023	8b 45 fc	 mov	 eax, DWORD PTR _this$[ebp]
  00026	83 c4 04	 add	 esp, 4
  00029	3b ec		 cmp	 ebp, esp
  0002b	e8 00 00 00 00	 call	 __RTC_CheckEsp
  00030	8b e5		 mov	 esp, ebp
  00032	5d		 pop	 ebp
  00033	c2 04 00	 ret	 4
??0length_error@std@@QAE@ABV01@@Z ENDP			; std::length_error::length_error
_TEXT	ENDS
EXTRN	__imp_??0exception@@QAE@ABV0@@Z:NEAR
;	COMDAT xdata$x
xdata$x	SEGMENT
$T89347	DD	0ffffffffH
	DD	FLAT:$L89342
$T89345	DD	019930520H
	DD	01H
	DD	FLAT:$T89347
	DD	2 DUP(00H)
	DD	2 DUP(00H)
; Function compile flags: /Odt /RTCsu
xdata$x	ENDS
;	COMDAT ??0logic_error@std@@QAE@ABV01@@Z
_TEXT	SEGMENT
_this$ = -16						; size = 4
__$EHRec$ = -12						; size = 12
___that$ = 8						; size = 4
??0logic_error@std@@QAE@ABV01@@Z PROC NEAR		; std::logic_error::logic_error, COMDAT
; _this$ = ecx
  00000	55		 push	 ebp
  00001	8b ec		 mov	 ebp, esp
  00003	6a ff		 push	 -1
  00005	68 00 00 00 00	 push	 __ehhandler$??0logic_error@std@@QAE@ABV01@@Z
  0000a	64 a1 00 00 00
	00		 mov	 eax, DWORD PTR fs:__except_list
  00010	50		 push	 eax
  00011	64 89 25 00 00
	00 00		 mov	 DWORD PTR fs:__except_list, esp
  00018	51		 push	 ecx
  00019	56		 push	 esi
  0001a	c7 45 f0 cc cc
	cc cc		 mov	 DWORD PTR [ebp-16], -858993460 ; ccccccccH
  00021	89 4d f0	 mov	 DWORD PTR _this$[ebp], ecx
  00024	8b f4		 mov	 esi, esp
  00026	8b 45 08	 mov	 eax, DWORD PTR ___that$[ebp]
  00029	50		 push	 eax
  0002a	8b 4d f0	 mov	 ecx, DWORD PTR _this$[ebp]
  0002d	ff 15 00 00 00
	00		 call	 DWORD PTR __imp_??0exception@@QAE@ABV0@@Z
  00033	3b f4		 cmp	 esi, esp
  00035	e8 00 00 00 00	 call	 __RTC_CheckEsp
  0003a	c7 45 fc 00 00
	00 00		 mov	 DWORD PTR __$EHRec$[ebp+8], 0
  00041	8b 4d f0	 mov	 ecx, DWORD PTR _this$[ebp]
  00044	c7 01 00 00 00
	00		 mov	 DWORD PTR [ecx], OFFSET FLAT:??_7logic_error@std@@6B@
  0004a	8b 55 08	 mov	 edx, DWORD PTR ___that$[ebp]
  0004d	83 c2 0c	 add	 edx, 12			; 0000000cH
  00050	8b f4		 mov	 esi, esp
  00052	52		 push	 edx
  00053	8b 4d f0	 mov	 ecx, DWORD PTR _this$[ebp]
  00056	83 c1 0c	 add	 ecx, 12			; 0000000cH
  00059	ff 15 00 00 00
	00		 call	 DWORD PTR __imp_??0?$basic_string@DU?$char_traits@D@std@@V?$allocator@D@2@@std@@QAE@ABV01@@Z
  0005f	3b f4		 cmp	 esi, esp
  00061	e8 00 00 00 00	 call	 __RTC_CheckEsp
  00066	c7 45 fc ff ff
	ff ff		 mov	 DWORD PTR __$EHRec$[ebp+8], -1
  0006d	8b 45 f0	 mov	 eax, DWORD PTR _this$[ebp]
  00070	8b 4d f4	 mov	 ecx, DWORD PTR __$EHRec$[ebp]
  00073	64 89 0d 00 00
	00 00		 mov	 DWORD PTR fs:__except_list, ecx
  0007a	5e		 pop	 esi
  0007b	83 c4 10	 add	 esp, 16			; 00000010H
  0007e	3b ec		 cmp	 ebp, esp
  00080	e8 00 00 00 00	 call	 __RTC_CheckEsp
  00085	8b e5		 mov	 esp, ebp
  00087	5d		 pop	 ebp
  00088	c2 04 00	 ret	 4
_TEXT	ENDS
;	COMDAT text$x
text$x	SEGMENT
$L89342:
  00000	8b f4		 mov	 esi, esp
  00002	8b 4d f0	 mov	 ecx, DWORD PTR _this$[ebp]
  00005	ff 15 00 00 00
	00		 call	 DWORD PTR __imp_??1exception@@UAE@XZ
  0000b	3b f4		 cmp	 esi, esp
  0000d	e9 00 00 00 00	 jmp	 __RTC_CheckEsp
__ehhandler$??0logic_error@std@@QAE@ABV01@@Z:
  00012	b8 00 00 00 00	 mov	 eax, OFFSET FLAT:$T89345
  00017	e9 00 00 00 00	 jmp	 ___CxxFrameHandler
text$x	ENDS
??0logic_error@std@@QAE@ABV01@@Z ENDP			; std::logic_error::logic_error
; Function compile flags: /Odt /RTCsu
; File d:\program files (x86)\microsoft visual studio .net 2003\vc7\include\xmemory
;	COMDAT ?max_size@?$allocator@V?$basic_string@DU?$char_traits@D@std@@V?$allocator@D@2@@std@@@std@@QBEIXZ
_TEXT	SEGMENT
tv65 = -12						; size = 4
__Count$ = -8						; size = 4
_this$ = -4						; size = 4
?max_size@?$allocator@V?$basic_string@DU?$char_traits@D@std@@V?$allocator@D@2@@std@@@std@@QBEIXZ PROC NEAR ; std::allocator<std::basic_string<char,std::char_traits<char>,std::allocator<char> > >::max_size, COMDAT
; _this$ = ecx

; 156  : 		{	// estimate maximum array size

  00000	55		 push	 ebp
  00001	8b ec		 mov	 ebp, esp
  00003	83 ec 0c	 sub	 esp, 12			; 0000000cH
  00006	c7 45 f4 cc cc
	cc cc		 mov	 DWORD PTR [ebp-12], -858993460 ; ccccccccH
  0000d	c7 45 f8 cc cc
	cc cc		 mov	 DWORD PTR [ebp-8], -858993460 ; ccccccccH
  00014	c7 45 fc cc cc
	cc cc		 mov	 DWORD PTR [ebp-4], -858993460 ; ccccccccH
  0001b	89 4d fc	 mov	 DWORD PTR _this$[ebp], ecx

; 157  : 		_SIZT _Count = (_SIZT)(-1) / sizeof (_Ty);

  0001e	c7 45 f8 49 92
	24 09		 mov	 DWORD PTR __Count$[ebp], 153391689 ; 09249249H

; 158  : 		return (0 < _Count ? _Count : 1);

  00025	83 7d f8 00	 cmp	 DWORD PTR __Count$[ebp], 0
  00029	76 08		 jbe	 SHORT $L89351
  0002b	8b 45 f8	 mov	 eax, DWORD PTR __Count$[ebp]
  0002e	89 45 f4	 mov	 DWORD PTR tv65[ebp], eax
  00031	eb 07		 jmp	 SHORT $L89352
$L89351:
  00033	c7 45 f4 01 00
	00 00		 mov	 DWORD PTR tv65[ebp], 1
$L89352:
  0003a	8b 45 f4	 mov	 eax, DWORD PTR tv65[ebp]

; 159  : 		}

  0003d	8b e5		 mov	 esp, ebp
  0003f	5d		 pop	 ebp
  00040	c3		 ret	 0
?max_size@?$allocator@V?$basic_string@DU?$char_traits@D@std@@V?$allocator@D@2@@std@@@std@@QBEIXZ ENDP ; std::allocator<std::basic_string<char,std::char_traits<char>,std::allocator<char> > >::max_size
; Function compile flags: /Odt /RTCsu
; File d:\program files (x86)\microsoft visual studio .net 2003\vc7\include\vector
_TEXT	ENDS
;	COMDAT ??Gconst_iterator@?$vector@V?$basic_string@DU?$char_traits@D@std@@V?$allocator@D@2@@std@@V?$allocator@V?$basic_string@DU?$char_traits@D@std@@V?$allocator@D@2@@std@@@2@@std@@QBEHABV012@@Z
_TEXT	SEGMENT
_this$ = -4						; size = 4
__Right$ = 8						; size = 4
??Gconst_iterator@?$vector@V?$basic_string@DU?$char_traits@D@std@@V?$allocator@D@2@@std@@V?$allocator@V?$basic_string@DU?$char_traits@D@std@@V?$allocator@D@2@@std@@@2@@std@@QBEHABV012@@Z PROC NEAR ; std::vector<std::basic_string<char,std::char_traits<char>,std::allocator<char> >,std::allocator<std::basic_string<char,std::char_traits<char>,std::allocator<char> > > >::const_iterator::operator-, COMDAT
; _this$ = ecx

; 140  : 			{	// return difference of iterators

  00000	55		 push	 ebp
  00001	8b ec		 mov	 ebp, esp
  00003	51		 push	 ecx
  00004	c7 45 fc cc cc
	cc cc		 mov	 DWORD PTR [ebp-4], -858993460 ; ccccccccH
  0000b	89 4d fc	 mov	 DWORD PTR _this$[ebp], ecx

; 141  : 
; 142  : 
; 143  : 			return (_Myptr - _Right._Myptr);

  0000e	8b 45 fc	 mov	 eax, DWORD PTR _this$[ebp]
  00011	8b 4d 08	 mov	 ecx, DWORD PTR __Right$[ebp]
  00014	8b 00		 mov	 eax, DWORD PTR [eax]
  00016	2b 01		 sub	 eax, DWORD PTR [ecx]
  00018	99		 cdq
  00019	b9 1c 00 00 00	 mov	 ecx, 28			; 0000001cH
  0001e	f7 f9		 idiv	 ecx

; 144  : 			}

  00020	8b e5		 mov	 esp, ebp
  00022	5d		 pop	 ebp
  00023	c2 04 00	 ret	 4
??Gconst_iterator@?$vector@V?$basic_string@DU?$char_traits@D@std@@V?$allocator@D@2@@std@@V?$allocator@V?$basic_string@DU?$char_traits@D@std@@V?$allocator@D@2@@std@@@2@@std@@QBEHABV012@@Z ENDP ; std::vector<std::basic_string<char,std::char_traits<char>,std::allocator<char> >,std::allocator<std::basic_string<char,std::char_traits<char>,std::allocator<char> > > >::const_iterator::operator-
_TEXT	ENDS
PUBLIC	??$?HDU?$char_traits@D@std@@V?$allocator@D@1@@std@@YA?AV?$basic_string@DU?$char_traits@D@std@@V?$allocator@D@2@@0@ABV10@0@Z ; std::operator+<char,std::char_traits<char>,std::allocator<char> >
EXTRN	__imp_??Y?$basic_string@DU?$char_traits@D@std@@V?$allocator@D@2@@std@@QAEAAV01@ABV01@@Z:NEAR
;	COMDAT xdata$x
; File d:\program files (x86)\microsoft visual studio .net 2003\vc7\include\string
xdata$x	SEGMENT
$T89363	DD	0ffffffffH
	DD	FLAT:$L89357
	DD	00H
	DD	FLAT:$L89356
$T89361	DD	019930520H
	DD	02H
	DD	FLAT:$T89363
	DD	2 DUP(00H)
	DD	2 DUP(00H)
; Function compile flags: /Odt /RTCsu
xdata$x	ENDS
;	COMDAT ??$?HDU?$char_traits@D@std@@V?$allocator@D@1@@std@@YA?AV?$basic_string@DU?$char_traits@D@std@@V?$allocator@D@2@@0@ABV10@0@Z
_TEXT	SEGMENT
tv77 = -52						; size = 4
tv82 = -48						; size = 4
$T89358 = -44						; size = 4
$T89355 = -40						; size = 28
__$EHRec$ = -12						; size = 12
___$ReturnUdt$ = 8					; size = 4
__Left$ = 12						; size = 4
__Right$ = 16						; size = 4
??$?HDU?$char_traits@D@std@@V?$allocator@D@1@@std@@YA?AV?$basic_string@DU?$char_traits@D@std@@V?$allocator@D@2@@0@ABV10@0@Z PROC NEAR ; std::operator+<char,std::char_traits<char>,std::allocator<char> >, COMDAT

; 21   : 	{	// return string + string

  00000	55		 push	 ebp
  00001	8b ec		 mov	 ebp, esp
  00003	6a ff		 push	 -1
  00005	68 00 00 00 00	 push	 __ehhandler$??$?HDU?$char_traits@D@std@@V?$allocator@D@1@@std@@YA?AV?$basic_string@DU?$char_traits@D@std@@V?$allocator@D@2@@0@ABV10@0@Z
  0000a	64 a1 00 00 00
	00		 mov	 eax, DWORD PTR fs:__except_list
  00010	50		 push	 eax
  00011	64 89 25 00 00
	00 00		 mov	 DWORD PTR fs:__except_list, esp
  00018	83 ec 28	 sub	 esp, 40			; 00000028H
  0001b	56		 push	 esi
  0001c	57		 push	 edi
  0001d	8d 7d cc	 lea	 edi, DWORD PTR [ebp-52]
  00020	b9 0a 00 00 00	 mov	 ecx, 10			; 0000000aH
  00025	b8 cc cc cc cc	 mov	 eax, -858993460		; ccccccccH
  0002a	f3 ab		 rep stosd
  0002c	c7 45 d4 00 00
	00 00		 mov	 DWORD PTR $T89358[ebp], 0

; 22   : 	return (basic_string<_Elem, _Traits, _Alloc>(_Left) += _Right);

  00033	8b f4		 mov	 esi, esp
  00035	8b 45 0c	 mov	 eax, DWORD PTR __Left$[ebp]
  00038	50		 push	 eax
  00039	8d 4d d8	 lea	 ecx, DWORD PTR $T89355[ebp]
  0003c	ff 15 00 00 00
	00		 call	 DWORD PTR __imp_??0?$basic_string@DU?$char_traits@D@std@@V?$allocator@D@2@@std@@QAE@ABV01@@Z
  00042	3b f4		 cmp	 esi, esp
  00044	e8 00 00 00 00	 call	 __RTC_CheckEsp
  00049	89 45 d0	 mov	 DWORD PTR tv82[ebp], eax
  0004c	8b 4d d0	 mov	 ecx, DWORD PTR tv82[ebp]
  0004f	89 4d cc	 mov	 DWORD PTR tv77[ebp], ecx
  00052	c7 45 fc 01 00
	00 00		 mov	 DWORD PTR __$EHRec$[ebp+8], 1
  00059	8b f4		 mov	 esi, esp
  0005b	8b 55 10	 mov	 edx, DWORD PTR __Right$[ebp]
  0005e	52		 push	 edx
  0005f	8b 4d cc	 mov	 ecx, DWORD PTR tv77[ebp]
  00062	ff 15 00 00 00
	00		 call	 DWORD PTR __imp_??Y?$basic_string@DU?$char_traits@D@std@@V?$allocator@D@2@@std@@QAEAAV01@ABV01@@Z
  00068	3b f4		 cmp	 esi, esp
  0006a	e8 00 00 00 00	 call	 __RTC_CheckEsp
  0006f	8b f4		 mov	 esi, esp
  00071	50		 push	 eax
  00072	8b 4d 08	 mov	 ecx, DWORD PTR ___$ReturnUdt$[ebp]
  00075	ff 15 00 00 00
	00		 call	 DWORD PTR __imp_??0?$basic_string@DU?$char_traits@D@std@@V?$allocator@D@2@@std@@QAE@ABV01@@Z
  0007b	3b f4		 cmp	 esi, esp
  0007d	e8 00 00 00 00	 call	 __RTC_CheckEsp
  00082	8b 45 d4	 mov	 eax, DWORD PTR $T89358[ebp]
  00085	83 c8 01	 or	 eax, 1
  00088	89 45 d4	 mov	 DWORD PTR $T89358[ebp], eax
  0008b	c6 45 fc 00	 mov	 BYTE PTR __$EHRec$[ebp+8], 0
  0008f	8b f4		 mov	 esi, esp
  00091	8d 4d d8	 lea	 ecx, DWORD PTR $T89355[ebp]
  00094	ff 15 00 00 00
	00		 call	 DWORD PTR __imp_??1?$basic_string@DU?$char_traits@D@std@@V?$allocator@D@2@@std@@QAE@XZ
  0009a	3b f4		 cmp	 esi, esp
  0009c	e8 00 00 00 00	 call	 __RTC_CheckEsp
  000a1	8b 45 08	 mov	 eax, DWORD PTR ___$ReturnUdt$[ebp]

; 23   : 	}

  000a4	8b 4d f4	 mov	 ecx, DWORD PTR __$EHRec$[ebp]
  000a7	64 89 0d 00 00
	00 00		 mov	 DWORD PTR fs:__except_list, ecx
  000ae	5f		 pop	 edi
  000af	5e		 pop	 esi
  000b0	83 c4 34	 add	 esp, 52			; 00000034H
  000b3	3b ec		 cmp	 ebp, esp
  000b5	e8 00 00 00 00	 call	 __RTC_CheckEsp
  000ba	8b e5		 mov	 esp, ebp
  000bc	5d		 pop	 ebp
  000bd	c3		 ret	 0
_TEXT	ENDS
;	COMDAT text$x
text$x	SEGMENT
$L89356:
  00000	8b f4		 mov	 esi, esp
  00002	8d 4d d8	 lea	 ecx, DWORD PTR $T89355[ebp]
  00005	ff 15 00 00 00
	00		 call	 DWORD PTR __imp_??1?$basic_string@DU?$char_traits@D@std@@V?$allocator@D@2@@std@@QAE@XZ
  0000b	3b f4		 cmp	 esi, esp
  0000d	e9 00 00 00 00	 jmp	 __RTC_CheckEsp
$L89357:
  00012	8b 45 d4	 mov	 eax, DWORD PTR $T89358[ebp]
  00015	83 e0 01	 and	 eax, 1
  00018	0f 84 16 00 00
	00		 je	 $L89359
  0001e	83 65 d4 fe	 and	 DWORD PTR $T89358[ebp], -2 ; fffffffeH
  00022	8b f4		 mov	 esi, esp
  00024	8b 4d 08	 mov	 ecx, DWORD PTR ___$ReturnUdt$[ebp]
  00027	ff 15 00 00 00
	00		 call	 DWORD PTR __imp_??1?$basic_string@DU?$char_traits@D@std@@V?$allocator@D@2@@std@@QAE@XZ
  0002d	3b f4		 cmp	 esi, esp
  0002f	e9 00 00 00 00	 jmp	 __RTC_CheckEsp
$L89359:
  00034	c3		 ret	 0
__ehhandler$??$?HDU?$char_traits@D@std@@V?$allocator@D@1@@std@@YA?AV?$basic_string@DU?$char_traits@D@std@@V?$allocator@D@2@@0@ABV10@0@Z:
  00035	b8 00 00 00 00	 mov	 eax, OFFSET FLAT:$T89361
  0003a	e9 00 00 00 00	 jmp	 ___CxxFrameHandler
text$x	ENDS
??$?HDU?$char_traits@D@std@@V?$allocator@D@1@@std@@YA?AV?$basic_string@DU?$char_traits@D@std@@V?$allocator@D@2@@0@ABV10@0@Z ENDP ; std::operator+<char,std::char_traits<char>,std::allocator<char> >
PUBLIC	??$?HDU?$char_traits@D@std@@V?$allocator@D@1@@std@@YA?AV?$basic_string@DU?$char_traits@D@std@@V?$allocator@D@2@@0@PBDABV10@@Z ; std::operator+<char,std::char_traits<char>,std::allocator<char> >
;	COMDAT xdata$x
xdata$x	SEGMENT
$T89375	DD	0ffffffffH
	DD	FLAT:$L89369
	DD	00H
	DD	FLAT:$L89368
$T89373	DD	019930520H
	DD	02H
	DD	FLAT:$T89375
	DD	2 DUP(00H)
	DD	2 DUP(00H)
; Function compile flags: /Odt /RTCsu
xdata$x	ENDS
;	COMDAT ??$?HDU?$char_traits@D@std@@V?$allocator@D@1@@std@@YA?AV?$basic_string@DU?$char_traits@D@std@@V?$allocator@D@2@@0@PBDABV10@@Z
_TEXT	SEGMENT
tv77 = -52						; size = 4
tv82 = -48						; size = 4
$T89370 = -44						; size = 4
$T89367 = -40						; size = 28
__$EHRec$ = -12						; size = 12
___$ReturnUdt$ = 8					; size = 4
__Left$ = 12						; size = 4
__Right$ = 16						; size = 4
??$?HDU?$char_traits@D@std@@V?$allocator@D@1@@std@@YA?AV?$basic_string@DU?$char_traits@D@std@@V?$allocator@D@2@@0@PBDABV10@@Z PROC NEAR ; std::operator+<char,std::char_traits<char>,std::allocator<char> >, COMDAT

; 31   : 	{	// return NTCS + string

  00000	55		 push	 ebp
  00001	8b ec		 mov	 ebp, esp
  00003	6a ff		 push	 -1
  00005	68 00 00 00 00	 push	 __ehhandler$??$?HDU?$char_traits@D@std@@V?$allocator@D@1@@std@@YA?AV?$basic_string@DU?$char_traits@D@std@@V?$allocator@D@2@@0@PBDABV10@@Z
  0000a	64 a1 00 00 00
	00		 mov	 eax, DWORD PTR fs:__except_list
  00010	50		 push	 eax
  00011	64 89 25 00 00
	00 00		 mov	 DWORD PTR fs:__except_list, esp
  00018	83 ec 28	 sub	 esp, 40			; 00000028H
  0001b	56		 push	 esi
  0001c	57		 push	 edi
  0001d	8d 7d cc	 lea	 edi, DWORD PTR [ebp-52]
  00020	b9 0a 00 00 00	 mov	 ecx, 10			; 0000000aH
  00025	b8 cc cc cc cc	 mov	 eax, -858993460		; ccccccccH
  0002a	f3 ab		 rep stosd
  0002c	c7 45 d4 00 00
	00 00		 mov	 DWORD PTR $T89370[ebp], 0

; 32   : 	return (basic_string<_Elem, _Traits, _Alloc>(_Left) += _Right);

  00033	8b f4		 mov	 esi, esp
  00035	8b 45 0c	 mov	 eax, DWORD PTR __Left$[ebp]
  00038	50		 push	 eax
  00039	8d 4d d8	 lea	 ecx, DWORD PTR $T89367[ebp]
  0003c	ff 15 00 00 00
	00		 call	 DWORD PTR __imp_??0?$basic_string@DU?$char_traits@D@std@@V?$allocator@D@2@@std@@QAE@PBD@Z
  00042	3b f4		 cmp	 esi, esp
  00044	e8 00 00 00 00	 call	 __RTC_CheckEsp
  00049	89 45 d0	 mov	 DWORD PTR tv82[ebp], eax
  0004c	8b 4d d0	 mov	 ecx, DWORD PTR tv82[ebp]
  0004f	89 4d cc	 mov	 DWORD PTR tv77[ebp], ecx
  00052	c7 45 fc 01 00
	00 00		 mov	 DWORD PTR __$EHRec$[ebp+8], 1
  00059	8b f4		 mov	 esi, esp
  0005b	8b 55 10	 mov	 edx, DWORD PTR __Right$[ebp]
  0005e	52		 push	 edx
  0005f	8b 4d cc	 mov	 ecx, DWORD PTR tv77[ebp]
  00062	ff 15 00 00 00
	00		 call	 DWORD PTR __imp_??Y?$basic_string@DU?$char_traits@D@std@@V?$allocator@D@2@@std@@QAEAAV01@ABV01@@Z
  00068	3b f4		 cmp	 esi, esp
  0006a	e8 00 00 00 00	 call	 __RTC_CheckEsp
  0006f	8b f4		 mov	 esi, esp
  00071	50		 push	 eax
  00072	8b 4d 08	 mov	 ecx, DWORD PTR ___$ReturnUdt$[ebp]
  00075	ff 15 00 00 00
	00		 call	 DWORD PTR __imp_??0?$basic_string@DU?$char_traits@D@std@@V?$allocator@D@2@@std@@QAE@ABV01@@Z
  0007b	3b f4		 cmp	 esi, esp
  0007d	e8 00 00 00 00	 call	 __RTC_CheckEsp
  00082	8b 45 d4	 mov	 eax, DWORD PTR $T89370[ebp]
  00085	83 c8 01	 or	 eax, 1
  00088	89 45 d4	 mov	 DWORD PTR $T89370[ebp], eax
  0008b	c6 45 fc 00	 mov	 BYTE PTR __$EHRec$[ebp+8], 0
  0008f	8b f4		 mov	 esi, esp
  00091	8d 4d d8	 lea	 ecx, DWORD PTR $T89367[ebp]
  00094	ff 15 00 00 00
	00		 call	 DWORD PTR __imp_??1?$basic_string@DU?$char_traits@D@std@@V?$allocator@D@2@@std@@QAE@XZ
  0009a	3b f4		 cmp	 esi, esp
  0009c	e8 00 00 00 00	 call	 __RTC_CheckEsp
  000a1	8b 45 08	 mov	 eax, DWORD PTR ___$ReturnUdt$[ebp]

; 33   : 	}

  000a4	8b 4d f4	 mov	 ecx, DWORD PTR __$EHRec$[ebp]
  000a7	64 89 0d 00 00
	00 00		 mov	 DWORD PTR fs:__except_list, ecx
  000ae	5f		 pop	 edi
  000af	5e		 pop	 esi
  000b0	83 c4 34	 add	 esp, 52			; 00000034H
  000b3	3b ec		 cmp	 ebp, esp
  000b5	e8 00 00 00 00	 call	 __RTC_CheckEsp
  000ba	8b e5		 mov	 esp, ebp
  000bc	5d		 pop	 ebp
  000bd	c3		 ret	 0
_TEXT	ENDS
;	COMDAT text$x
text$x	SEGMENT
$L89368:
  00000	8b f4		 mov	 esi, esp
  00002	8d 4d d8	 lea	 ecx, DWORD PTR $T89367[ebp]
  00005	ff 15 00 00 00
	00		 call	 DWORD PTR __imp_??1?$basic_string@DU?$char_traits@D@std@@V?$allocator@D@2@@std@@QAE@XZ
  0000b	3b f4		 cmp	 esi, esp
  0000d	e9 00 00 00 00	 jmp	 __RTC_CheckEsp
$L89369:
  00012	8b 45 d4	 mov	 eax, DWORD PTR $T89370[ebp]
  00015	83 e0 01	 and	 eax, 1
  00018	0f 84 16 00 00
	00		 je	 $L89371
  0001e	83 65 d4 fe	 and	 DWORD PTR $T89370[ebp], -2 ; fffffffeH
  00022	8b f4		 mov	 esi, esp
  00024	8b 4d 08	 mov	 ecx, DWORD PTR ___$ReturnUdt$[ebp]
  00027	ff 15 00 00 00
	00		 call	 DWORD PTR __imp_??1?$basic_string@DU?$char_traits@D@std@@V?$allocator@D@2@@std@@QAE@XZ
  0002d	3b f4		 cmp	 esi, esp
  0002f	e9 00 00 00 00	 jmp	 __RTC_CheckEsp
$L89371:
  00034	c3		 ret	 0
__ehhandler$??$?HDU?$char_traits@D@std@@V?$allocator@D@1@@std@@YA?AV?$basic_string@DU?$char_traits@D@std@@V?$allocator@D@2@@0@PBDABV10@@Z:
  00035	b8 00 00 00 00	 mov	 eax, OFFSET FLAT:$T89373
  0003a	e9 00 00 00 00	 jmp	 ___CxxFrameHandler
text$x	ENDS
??$?HDU?$char_traits@D@std@@V?$allocator@D@1@@std@@YA?AV?$basic_string@DU?$char_traits@D@std@@V?$allocator@D@2@@0@PBDABV10@@Z ENDP ; std::operator+<char,std::char_traits<char>,std::allocator<char> >
PUBLIC	??$?HDU?$char_traits@D@std@@V?$allocator@D@1@@std@@YA?AV?$basic_string@DU?$char_traits@D@std@@V?$allocator@D@2@@0@DABV10@@Z ; std::operator+<char,std::char_traits<char>,std::allocator<char> >
EXTRN	__imp_??0?$basic_string@DU?$char_traits@D@std@@V?$allocator@D@2@@std@@QAE@ID@Z:NEAR
;	COMDAT xdata$x
xdata$x	SEGMENT
$T89387	DD	0ffffffffH
	DD	FLAT:$L89381
	DD	00H
	DD	FLAT:$L89380
$T89385	DD	019930520H
	DD	02H
	DD	FLAT:$T89387
	DD	2 DUP(00H)
	DD	2 DUP(00H)
; Function compile flags: /Odt /RTCsu
xdata$x	ENDS
;	COMDAT ??$?HDU?$char_traits@D@std@@V?$allocator@D@1@@std@@YA?AV?$basic_string@DU?$char_traits@D@std@@V?$allocator@D@2@@0@DABV10@@Z
_TEXT	SEGMENT
tv78 = -52						; size = 4
tv83 = -48						; size = 4
$T89382 = -44						; size = 4
$T89379 = -40						; size = 28
__$EHRec$ = -12						; size = 12
___$ReturnUdt$ = 8					; size = 4
__Left$ = 12						; size = 1
__Right$ = 16						; size = 4
??$?HDU?$char_traits@D@std@@V?$allocator@D@1@@std@@YA?AV?$basic_string@DU?$char_traits@D@std@@V?$allocator@D@2@@0@DABV10@@Z PROC NEAR ; std::operator+<char,std::char_traits<char>,std::allocator<char> >, COMDAT

; 41   : 	{	// return character + string

  00000	55		 push	 ebp
  00001	8b ec		 mov	 ebp, esp
  00003	6a ff		 push	 -1
  00005	68 00 00 00 00	 push	 __ehhandler$??$?HDU?$char_traits@D@std@@V?$allocator@D@1@@std@@YA?AV?$basic_string@DU?$char_traits@D@std@@V?$allocator@D@2@@0@DABV10@@Z
  0000a	64 a1 00 00 00
	00		 mov	 eax, DWORD PTR fs:__except_list
  00010	50		 push	 eax
  00011	64 89 25 00 00
	00 00		 mov	 DWORD PTR fs:__except_list, esp
  00018	83 ec 28	 sub	 esp, 40			; 00000028H
  0001b	56		 push	 esi
  0001c	57		 push	 edi
  0001d	8d 7d cc	 lea	 edi, DWORD PTR [ebp-52]
  00020	b9 0a 00 00 00	 mov	 ecx, 10			; 0000000aH
  00025	b8 cc cc cc cc	 mov	 eax, -858993460		; ccccccccH
  0002a	f3 ab		 rep stosd
  0002c	c7 45 d4 00 00
	00 00		 mov	 DWORD PTR $T89382[ebp], 0

; 42   : 	return (basic_string<_Elem, _Traits, _Alloc>(1, _Left) += _Right);

  00033	8b f4		 mov	 esi, esp
  00035	8a 45 0c	 mov	 al, BYTE PTR __Left$[ebp]
  00038	50		 push	 eax
  00039	6a 01		 push	 1
  0003b	8d 4d d8	 lea	 ecx, DWORD PTR $T89379[ebp]
  0003e	ff 15 00 00 00
	00		 call	 DWORD PTR __imp_??0?$basic_string@DU?$char_traits@D@std@@V?$allocator@D@2@@std@@QAE@ID@Z
  00044	3b f4		 cmp	 esi, esp
  00046	e8 00 00 00 00	 call	 __RTC_CheckEsp
  0004b	89 45 d0	 mov	 DWORD PTR tv83[ebp], eax
  0004e	8b 4d d0	 mov	 ecx, DWORD PTR tv83[ebp]
  00051	89 4d cc	 mov	 DWORD PTR tv78[ebp], ecx
  00054	c7 45 fc 01 00
	00 00		 mov	 DWORD PTR __$EHRec$[ebp+8], 1
  0005b	8b f4		 mov	 esi, esp
  0005d	8b 55 10	 mov	 edx, DWORD PTR __Right$[ebp]
  00060	52		 push	 edx
  00061	8b 4d cc	 mov	 ecx, DWORD PTR tv78[ebp]
  00064	ff 15 00 00 00
	00		 call	 DWORD PTR __imp_??Y?$basic_string@DU?$char_traits@D@std@@V?$allocator@D@2@@std@@QAEAAV01@ABV01@@Z
  0006a	3b f4		 cmp	 esi, esp
  0006c	e8 00 00 00 00	 call	 __RTC_CheckEsp
  00071	8b f4		 mov	 esi, esp
  00073	50		 push	 eax
  00074	8b 4d 08	 mov	 ecx, DWORD PTR ___$ReturnUdt$[ebp]
  00077	ff 15 00 00 00
	00		 call	 DWORD PTR __imp_??0?$basic_string@DU?$char_traits@D@std@@V?$allocator@D@2@@std@@QAE@ABV01@@Z
  0007d	3b f4		 cmp	 esi, esp
  0007f	e8 00 00 00 00	 call	 __RTC_CheckEsp
  00084	8b 45 d4	 mov	 eax, DWORD PTR $T89382[ebp]
  00087	83 c8 01	 or	 eax, 1
  0008a	89 45 d4	 mov	 DWORD PTR $T89382[ebp], eax
  0008d	c6 45 fc 00	 mov	 BYTE PTR __$EHRec$[ebp+8], 0
  00091	8b f4		 mov	 esi, esp
  00093	8d 4d d8	 lea	 ecx, DWORD PTR $T89379[ebp]
  00096	ff 15 00 00 00
	00		 call	 DWORD PTR __imp_??1?$basic_string@DU?$char_traits@D@std@@V?$allocator@D@2@@std@@QAE@XZ
  0009c	3b f4		 cmp	 esi, esp
  0009e	e8 00 00 00 00	 call	 __RTC_CheckEsp
  000a3	8b 45 08	 mov	 eax, DWORD PTR ___$ReturnUdt$[ebp]

; 43   : 	}

  000a6	8b 4d f4	 mov	 ecx, DWORD PTR __$EHRec$[ebp]
  000a9	64 89 0d 00 00
	00 00		 mov	 DWORD PTR fs:__except_list, ecx
  000b0	5f		 pop	 edi
  000b1	5e		 pop	 esi
  000b2	83 c4 34	 add	 esp, 52			; 00000034H
  000b5	3b ec		 cmp	 ebp, esp
  000b7	e8 00 00 00 00	 call	 __RTC_CheckEsp
  000bc	8b e5		 mov	 esp, ebp
  000be	5d		 pop	 ebp
  000bf	c3		 ret	 0
_TEXT	ENDS
;	COMDAT text$x
text$x	SEGMENT
$L89380:
  00000	8b f4		 mov	 esi, esp
  00002	8d 4d d8	 lea	 ecx, DWORD PTR $T89379[ebp]
  00005	ff 15 00 00 00
	00		 call	 DWORD PTR __imp_??1?$basic_string@DU?$char_traits@D@std@@V?$allocator@D@2@@std@@QAE@XZ
  0000b	3b f4		 cmp	 esi, esp
  0000d	e9 00 00 00 00	 jmp	 __RTC_CheckEsp
$L89381:
  00012	8b 45 d4	 mov	 eax, DWORD PTR $T89382[ebp]
  00015	83 e0 01	 and	 eax, 1
  00018	0f 84 16 00 00
	00		 je	 $L89383
  0001e	83 65 d4 fe	 and	 DWORD PTR $T89382[ebp], -2 ; fffffffeH
  00022	8b f4		 mov	 esi, esp
  00024	8b 4d 08	 mov	 ecx, DWORD PTR ___$ReturnUdt$[ebp]
  00027	ff 15 00 00 00
	00		 call	 DWORD PTR __imp_??1?$basic_string@DU?$char_traits@D@std@@V?$allocator@D@2@@std@@QAE@XZ
  0002d	3b f4		 cmp	 esi, esp
  0002f	e9 00 00 00 00	 jmp	 __RTC_CheckEsp
$L89383:
  00034	c3		 ret	 0
__ehhandler$??$?HDU?$char_traits@D@std@@V?$allocator@D@1@@std@@YA?AV?$basic_string@DU?$char_traits@D@std@@V?$allocator@D@2@@0@DABV10@@Z:
  00035	b8 00 00 00 00	 mov	 eax, OFFSET FLAT:$T89385
  0003a	e9 00 00 00 00	 jmp	 ___CxxFrameHandler
text$x	ENDS
??$?HDU?$char_traits@D@std@@V?$allocator@D@1@@std@@YA?AV?$basic_string@DU?$char_traits@D@std@@V?$allocator@D@2@@0@DABV10@@Z ENDP ; std::operator+<char,std::char_traits<char>,std::allocator<char> >
;	COMDAT xdata$x
xdata$x	SEGMENT
$T89399	DD	0ffffffffH
	DD	FLAT:$L89393
	DD	00H
	DD	FLAT:$L89392
$T89397	DD	019930520H
	DD	02H
	DD	FLAT:$T89399
	DD	2 DUP(00H)
	DD	2 DUP(00H)
; Function compile flags: /Odt /RTCsu
xdata$x	ENDS
;	COMDAT ??$?HDU?$char_traits@D@std@@V?$allocator@D@1@@std@@YA?AV?$basic_string@DU?$char_traits@D@std@@V?$allocator@D@2@@0@ABV10@PBD@Z
_TEXT	SEGMENT
tv77 = -52						; size = 4
tv82 = -48						; size = 4
$T89394 = -44						; size = 4
$T89391 = -40						; size = 28
__$EHRec$ = -12						; size = 12
___$ReturnUdt$ = 8					; size = 4
__Left$ = 12						; size = 4
__Right$ = 16						; size = 4
??$?HDU?$char_traits@D@std@@V?$allocator@D@1@@std@@YA?AV?$basic_string@DU?$char_traits@D@std@@V?$allocator@D@2@@0@ABV10@PBD@Z PROC NEAR ; std::operator+<char,std::char_traits<char>,std::allocator<char> >, COMDAT

; 51   : 	{	// return string + NTCS

  00000	55		 push	 ebp
  00001	8b ec		 mov	 ebp, esp
  00003	6a ff		 push	 -1
  00005	68 00 00 00 00	 push	 __ehhandler$??$?HDU?$char_traits@D@std@@V?$allocator@D@1@@std@@YA?AV?$basic_string@DU?$char_traits@D@std@@V?$allocator@D@2@@0@ABV10@PBD@Z
  0000a	64 a1 00 00 00
	00		 mov	 eax, DWORD PTR fs:__except_list
  00010	50		 push	 eax
  00011	64 89 25 00 00
	00 00		 mov	 DWORD PTR fs:__except_list, esp
  00018	83 ec 28	 sub	 esp, 40			; 00000028H
  0001b	56		 push	 esi
  0001c	57		 push	 edi
  0001d	8d 7d cc	 lea	 edi, DWORD PTR [ebp-52]
  00020	b9 0a 00 00 00	 mov	 ecx, 10			; 0000000aH
  00025	b8 cc cc cc cc	 mov	 eax, -858993460		; ccccccccH
  0002a	f3 ab		 rep stosd
  0002c	c7 45 d4 00 00
	00 00		 mov	 DWORD PTR $T89394[ebp], 0

; 52   : 	return (basic_string<_Elem, _Traits, _Alloc>(_Left) += _Right);

  00033	8b f4		 mov	 esi, esp
  00035	8b 45 0c	 mov	 eax, DWORD PTR __Left$[ebp]
  00038	50		 push	 eax
  00039	8d 4d d8	 lea	 ecx, DWORD PTR $T89391[ebp]
  0003c	ff 15 00 00 00
	00		 call	 DWORD PTR __imp_??0?$basic_string@DU?$char_traits@D@std@@V?$allocator@D@2@@std@@QAE@ABV01@@Z
  00042	3b f4		 cmp	 esi, esp
  00044	e8 00 00 00 00	 call	 __RTC_CheckEsp
  00049	89 45 d0	 mov	 DWORD PTR tv82[ebp], eax
  0004c	8b 4d d0	 mov	 ecx, DWORD PTR tv82[ebp]
  0004f	89 4d cc	 mov	 DWORD PTR tv77[ebp], ecx
  00052	c7 45 fc 01 00
	00 00		 mov	 DWORD PTR __$EHRec$[ebp+8], 1
  00059	8b f4		 mov	 esi, esp
  0005b	8b 55 10	 mov	 edx, DWORD PTR __Right$[ebp]
  0005e	52		 push	 edx
  0005f	8b 4d cc	 mov	 ecx, DWORD PTR tv77[ebp]
  00062	ff 15 00 00 00
	00		 call	 DWORD PTR __imp_??Y?$basic_string@DU?$char_traits@D@std@@V?$allocator@D@2@@std@@QAEAAV01@PBD@Z
  00068	3b f4		 cmp	 esi, esp
  0006a	e8 00 00 00 00	 call	 __RTC_CheckEsp
  0006f	8b f4		 mov	 esi, esp
  00071	50		 push	 eax
  00072	8b 4d 08	 mov	 ecx, DWORD PTR ___$ReturnUdt$[ebp]
  00075	ff 15 00 00 00
	00		 call	 DWORD PTR __imp_??0?$basic_string@DU?$char_traits@D@std@@V?$allocator@D@2@@std@@QAE@ABV01@@Z
  0007b	3b f4		 cmp	 esi, esp
  0007d	e8 00 00 00 00	 call	 __RTC_CheckEsp
  00082	8b 45 d4	 mov	 eax, DWORD PTR $T89394[ebp]
  00085	83 c8 01	 or	 eax, 1
  00088	89 45 d4	 mov	 DWORD PTR $T89394[ebp], eax
  0008b	c6 45 fc 00	 mov	 BYTE PTR __$EHRec$[ebp+8], 0
  0008f	8b f4		 mov	 esi, esp
  00091	8d 4d d8	 lea	 ecx, DWORD PTR $T89391[ebp]
  00094	ff 15 00 00 00
	00		 call	 DWORD PTR __imp_??1?$basic_string@DU?$char_traits@D@std@@V?$allocator@D@2@@std@@QAE@XZ
  0009a	3b f4		 cmp	 esi, esp
  0009c	e8 00 00 00 00	 call	 __RTC_CheckEsp
  000a1	8b 45 08	 mov	 eax, DWORD PTR ___$ReturnUdt$[ebp]

; 53   : 	}

  000a4	8b 4d f4	 mov	 ecx, DWORD PTR __$EHRec$[ebp]
  000a7	64 89 0d 00 00
	00 00		 mov	 DWORD PTR fs:__except_list, ecx
  000ae	5f		 pop	 edi
  000af	5e		 pop	 esi
  000b0	83 c4 34	 add	 esp, 52			; 00000034H
  000b3	3b ec		 cmp	 ebp, esp
  000b5	e8 00 00 00 00	 call	 __RTC_CheckEsp
  000ba	8b e5		 mov	 esp, ebp
  000bc	5d		 pop	 ebp
  000bd	c3		 ret	 0
_TEXT	ENDS
;	COMDAT text$x
text$x	SEGMENT
$L89392:
  00000	8b f4		 mov	 esi, esp
  00002	8d 4d d8	 lea	 ecx, DWORD PTR $T89391[ebp]
  00005	ff 15 00 00 00
	00		 call	 DWORD PTR __imp_??1?$basic_string@DU?$char_traits@D@std@@V?$allocator@D@2@@std@@QAE@XZ
  0000b	3b f4		 cmp	 esi, esp
  0000d	e9 00 00 00 00	 jmp	 __RTC_CheckEsp
$L89393:
  00012	8b 45 d4	 mov	 eax, DWORD PTR $T89394[ebp]
  00015	83 e0 01	 and	 eax, 1
  00018	0f 84 16 00 00
	00		 je	 $L89395
  0001e	83 65 d4 fe	 and	 DWORD PTR $T89394[ebp], -2 ; fffffffeH
  00022	8b f4		 mov	 esi, esp
  00024	8b 4d 08	 mov	 ecx, DWORD PTR ___$ReturnUdt$[ebp]
  00027	ff 15 00 00 00
	00		 call	 DWORD PTR __imp_??1?$basic_string@DU?$char_traits@D@std@@V?$allocator@D@2@@std@@QAE@XZ
  0002d	3b f4		 cmp	 esi, esp
  0002f	e9 00 00 00 00	 jmp	 __RTC_CheckEsp
$L89395:
  00034	c3		 ret	 0
__ehhandler$??$?HDU?$char_traits@D@std@@V?$allocator@D@1@@std@@YA?AV?$basic_string@DU?$char_traits@D@std@@V?$allocator@D@2@@0@ABV10@PBD@Z:
  00035	b8 00 00 00 00	 mov	 eax, OFFSET FLAT:$T89397
  0003a	e9 00 00 00 00	 jmp	 ___CxxFrameHandler
text$x	ENDS
??$?HDU?$char_traits@D@std@@V?$allocator@D@1@@std@@YA?AV?$basic_string@DU?$char_traits@D@std@@V?$allocator@D@2@@0@ABV10@PBD@Z ENDP ; std::operator+<char,std::char_traits<char>,std::allocator<char> >
PUBLIC	??$?HDU?$char_traits@D@std@@V?$allocator@D@1@@std@@YA?AV?$basic_string@DU?$char_traits@D@std@@V?$allocator@D@2@@0@ABV10@D@Z ; std::operator+<char,std::char_traits<char>,std::allocator<char> >
;	COMDAT xdata$x
xdata$x	SEGMENT
$T89411	DD	0ffffffffH
	DD	FLAT:$L89405
	DD	00H
	DD	FLAT:$L89404
$T89409	DD	019930520H
	DD	02H
	DD	FLAT:$T89411
	DD	2 DUP(00H)
	DD	2 DUP(00H)
; Function compile flags: /Odt /RTCsu
xdata$x	ENDS
;	COMDAT ??$?HDU?$char_traits@D@std@@V?$allocator@D@1@@std@@YA?AV?$basic_string@DU?$char_traits@D@std@@V?$allocator@D@2@@0@ABV10@D@Z
_TEXT	SEGMENT
tv77 = -52						; size = 4
tv82 = -48						; size = 4
$T89406 = -44						; size = 4
$T89403 = -40						; size = 28
__$EHRec$ = -12						; size = 12
___$ReturnUdt$ = 8					; size = 4
__Left$ = 12						; size = 4
__Right$ = 16						; size = 1
??$?HDU?$char_traits@D@std@@V?$allocator@D@1@@std@@YA?AV?$basic_string@DU?$char_traits@D@std@@V?$allocator@D@2@@0@ABV10@D@Z PROC NEAR ; std::operator+<char,std::char_traits<char>,std::allocator<char> >, COMDAT

; 61   : 	{	// return string + character

  00000	55		 push	 ebp
  00001	8b ec		 mov	 ebp, esp
  00003	6a ff		 push	 -1
  00005	68 00 00 00 00	 push	 __ehhandler$??$?HDU?$char_traits@D@std@@V?$allocator@D@1@@std@@YA?AV?$basic_string@DU?$char_traits@D@std@@V?$allocator@D@2@@0@ABV10@D@Z
  0000a	64 a1 00 00 00
	00		 mov	 eax, DWORD PTR fs:__except_list
  00010	50		 push	 eax
  00011	64 89 25 00 00
	00 00		 mov	 DWORD PTR fs:__except_list, esp
  00018	83 ec 28	 sub	 esp, 40			; 00000028H
  0001b	56		 push	 esi
  0001c	57		 push	 edi
  0001d	8d 7d cc	 lea	 edi, DWORD PTR [ebp-52]
  00020	b9 0a 00 00 00	 mov	 ecx, 10			; 0000000aH
  00025	b8 cc cc cc cc	 mov	 eax, -858993460		; ccccccccH
  0002a	f3 ab		 rep stosd
  0002c	c7 45 d4 00 00
	00 00		 mov	 DWORD PTR $T89406[ebp], 0

; 62   : 	return (basic_string<_Elem, _Traits, _Alloc>(_Left) += _Right);

  00033	8b f4		 mov	 esi, esp
  00035	8b 45 0c	 mov	 eax, DWORD PTR __Left$[ebp]
  00038	50		 push	 eax
  00039	8d 4d d8	 lea	 ecx, DWORD PTR $T89403[ebp]
  0003c	ff 15 00 00 00
	00		 call	 DWORD PTR __imp_??0?$basic_string@DU?$char_traits@D@std@@V?$allocator@D@2@@std@@QAE@ABV01@@Z
  00042	3b f4		 cmp	 esi, esp
  00044	e8 00 00 00 00	 call	 __RTC_CheckEsp
  00049	89 45 d0	 mov	 DWORD PTR tv82[ebp], eax
  0004c	8b 4d d0	 mov	 ecx, DWORD PTR tv82[ebp]
  0004f	89 4d cc	 mov	 DWORD PTR tv77[ebp], ecx
  00052	c7 45 fc 01 00
	00 00		 mov	 DWORD PTR __$EHRec$[ebp+8], 1
  00059	8b f4		 mov	 esi, esp
  0005b	8a 55 10	 mov	 dl, BYTE PTR __Right$[ebp]
  0005e	52		 push	 edx
  0005f	8b 4d cc	 mov	 ecx, DWORD PTR tv77[ebp]
  00062	ff 15 00 00 00
	00		 call	 DWORD PTR __imp_??Y?$basic_string@DU?$char_traits@D@std@@V?$allocator@D@2@@std@@QAEAAV01@D@Z
  00068	3b f4		 cmp	 esi, esp
  0006a	e8 00 00 00 00	 call	 __RTC_CheckEsp
  0006f	8b f4		 mov	 esi, esp
  00071	50		 push	 eax
  00072	8b 4d 08	 mov	 ecx, DWORD PTR ___$ReturnUdt$[ebp]
  00075	ff 15 00 00 00
	00		 call	 DWORD PTR __imp_??0?$basic_string@DU?$char_traits@D@std@@V?$allocator@D@2@@std@@QAE@ABV01@@Z
  0007b	3b f4		 cmp	 esi, esp
  0007d	e8 00 00 00 00	 call	 __RTC_CheckEsp
  00082	8b 45 d4	 mov	 eax, DWORD PTR $T89406[ebp]
  00085	83 c8 01	 or	 eax, 1
  00088	89 45 d4	 mov	 DWORD PTR $T89406[ebp], eax
  0008b	c6 45 fc 00	 mov	 BYTE PTR __$EHRec$[ebp+8], 0
  0008f	8b f4		 mov	 esi, esp
  00091	8d 4d d8	 lea	 ecx, DWORD PTR $T89403[ebp]
  00094	ff 15 00 00 00
	00		 call	 DWORD PTR __imp_??1?$basic_string@DU?$char_traits@D@std@@V?$allocator@D@2@@std@@QAE@XZ
  0009a	3b f4		 cmp	 esi, esp
  0009c	e8 00 00 00 00	 call	 __RTC_CheckEsp
  000a1	8b 45 08	 mov	 eax, DWORD PTR ___$ReturnUdt$[ebp]

; 63   : 	}

  000a4	8b 4d f4	 mov	 ecx, DWORD PTR __$EHRec$[ebp]
  000a7	64 89 0d 00 00
	00 00		 mov	 DWORD PTR fs:__except_list, ecx
  000ae	5f		 pop	 edi
  000af	5e		 pop	 esi
  000b0	83 c4 34	 add	 esp, 52			; 00000034H
  000b3	3b ec		 cmp	 ebp, esp
  000b5	e8 00 00 00 00	 call	 __RTC_CheckEsp
  000ba	8b e5		 mov	 esp, ebp
  000bc	5d		 pop	 ebp
  000bd	c3		 ret	 0
_TEXT	ENDS
;	COMDAT text$x
text$x	SEGMENT
$L89404:
  00000	8b f4		 mov	 esi, esp
  00002	8d 4d d8	 lea	 ecx, DWORD PTR $T89403[ebp]
  00005	ff 15 00 00 00
	00		 call	 DWORD PTR __imp_??1?$basic_string@DU?$char_traits@D@std@@V?$allocator@D@2@@std@@QAE@XZ
  0000b	3b f4		 cmp	 esi, esp
  0000d	e9 00 00 00 00	 jmp	 __RTC_CheckEsp
$L89405:
  00012	8b 45 d4	 mov	 eax, DWORD PTR $T89406[ebp]
  00015	83 e0 01	 and	 eax, 1
  00018	0f 84 16 00 00
	00		 je	 $L89407
  0001e	83 65 d4 fe	 and	 DWORD PTR $T89406[ebp], -2 ; fffffffeH
  00022	8b f4		 mov	 esi, esp
  00024	8b 4d 08	 mov	 ecx, DWORD PTR ___$ReturnUdt$[ebp]
  00027	ff 15 00 00 00
	00		 call	 DWORD PTR __imp_??1?$basic_string@DU?$char_traits@D@std@@V?$allocator@D@2@@std@@QAE@XZ
  0002d	3b f4		 cmp	 esi, esp
  0002f	e9 00 00 00 00	 jmp	 __RTC_CheckEsp
$L89407:
  00034	c3		 ret	 0
__ehhandler$??$?HDU?$char_traits@D@std@@V?$allocator@D@1@@std@@YA?AV?$basic_string@DU?$char_traits@D@std@@V?$allocator@D@2@@0@ABV10@D@Z:
  00035	b8 00 00 00 00	 mov	 eax, OFFSET FLAT:$T89409
  0003a	e9 00 00 00 00	 jmp	 ___CxxFrameHandler
text$x	ENDS
??$?HDU?$char_traits@D@std@@V?$allocator@D@1@@std@@YA?AV?$basic_string@DU?$char_traits@D@std@@V?$allocator@D@2@@0@ABV10@D@Z ENDP ; std::operator+<char,std::char_traits<char>,std::allocator<char> >
PUBLIC	??$?H_WU?$char_traits@_W@std@@V?$allocator@_W@1@@std@@YA?AV?$basic_string@_WU?$char_traits@_W@std@@V?$allocator@_W@2@@0@ABV10@0@Z ; std::operator+<wchar_t,std::char_traits<wchar_t>,std::allocator<wchar_t> >
EXTRN	__imp_??0?$basic_string@_WU?$char_traits@_W@std@@V?$allocator@_W@2@@std@@QAE@ABV01@@Z:NEAR
EXTRN	__imp_??1?$basic_string@_WU?$char_traits@_W@std@@V?$allocator@_W@2@@std@@QAE@XZ:NEAR
EXTRN	__imp_??Y?$basic_string@_WU?$char_traits@_W@std@@V?$allocator@_W@2@@std@@QAEAAV01@ABV01@@Z:NEAR
;	COMDAT xdata$x
xdata$x	SEGMENT
$T89423	DD	0ffffffffH
	DD	FLAT:$L89417
	DD	00H
	DD	FLAT:$L89416
$T89421	DD	019930520H
	DD	02H
	DD	FLAT:$T89423
	DD	2 DUP(00H)
	DD	2 DUP(00H)
; Function compile flags: /Odt /RTCsu
xdata$x	ENDS
;	COMDAT ??$?H_WU?$char_traits@_W@std@@V?$allocator@_W@1@@std@@YA?AV?$basic_string@_WU?$char_traits@_W@std@@V?$allocator@_W@2@@0@ABV10@0@Z
_TEXT	SEGMENT
tv77 = -52						; size = 4
tv82 = -48						; size = 4
$T89418 = -44						; size = 4
$T89415 = -40						; size = 28
__$EHRec$ = -12						; size = 12
___$ReturnUdt$ = 8					; size = 4
__Left$ = 12						; size = 4
__Right$ = 16						; size = 4
??$?H_WU?$char_traits@_W@std@@V?$allocator@_W@1@@std@@YA?AV?$basic_string@_WU?$char_traits@_W@std@@V?$allocator@_W@2@@0@ABV10@0@Z PROC NEAR ; std::operator+<wchar_t,std::char_traits<wchar_t>,std::allocator<wchar_t> >, COMDAT

; 21   : 	{	// return string + string

  00000	55		 push	 ebp
  00001	8b ec		 mov	 ebp, esp
  00003	6a ff		 push	 -1
  00005	68 00 00 00 00	 push	 __ehhandler$??$?H_WU?$char_traits@_W@std@@V?$allocator@_W@1@@std@@YA?AV?$basic_string@_WU?$char_traits@_W@std@@V?$allocator@_W@2@@0@ABV10@0@Z
  0000a	64 a1 00 00 00
	00		 mov	 eax, DWORD PTR fs:__except_list
  00010	50		 push	 eax
  00011	64 89 25 00 00
	00 00		 mov	 DWORD PTR fs:__except_list, esp
  00018	83 ec 28	 sub	 esp, 40			; 00000028H
  0001b	56		 push	 esi
  0001c	57		 push	 edi
  0001d	8d 7d cc	 lea	 edi, DWORD PTR [ebp-52]
  00020	b9 0a 00 00 00	 mov	 ecx, 10			; 0000000aH
  00025	b8 cc cc cc cc	 mov	 eax, -858993460		; ccccccccH
  0002a	f3 ab		 rep stosd
  0002c	c7 45 d4 00 00
	00 00		 mov	 DWORD PTR $T89418[ebp], 0

; 22   : 	return (basic_string<_Elem, _Traits, _Alloc>(_Left) += _Right);

  00033	8b f4		 mov	 esi, esp
  00035	8b 45 0c	 mov	 eax, DWORD PTR __Left$[ebp]
  00038	50		 push	 eax
  00039	8d 4d d8	 lea	 ecx, DWORD PTR $T89415[ebp]
  0003c	ff 15 00 00 00
	00		 call	 DWORD PTR __imp_??0?$basic_string@_WU?$char_traits@_W@std@@V?$allocator@_W@2@@std@@QAE@ABV01@@Z
  00042	3b f4		 cmp	 esi, esp
  00044	e8 00 00 00 00	 call	 __RTC_CheckEsp
  00049	89 45 d0	 mov	 DWORD PTR tv82[ebp], eax
  0004c	8b 4d d0	 mov	 ecx, DWORD PTR tv82[ebp]
  0004f	89 4d cc	 mov	 DWORD PTR tv77[ebp], ecx
  00052	c7 45 fc 01 00
	00 00		 mov	 DWORD PTR __$EHRec$[ebp+8], 1
  00059	8b f4		 mov	 esi, esp
  0005b	8b 55 10	 mov	 edx, DWORD PTR __Right$[ebp]
  0005e	52		 push	 edx
  0005f	8b 4d cc	 mov	 ecx, DWORD PTR tv77[ebp]
  00062	ff 15 00 00 00
	00		 call	 DWORD PTR __imp_??Y?$basic_string@_WU?$char_traits@_W@std@@V?$allocator@_W@2@@std@@QAEAAV01@ABV01@@Z
  00068	3b f4		 cmp	 esi, esp
  0006a	e8 00 00 00 00	 call	 __RTC_CheckEsp
  0006f	8b f4		 mov	 esi, esp
  00071	50		 push	 eax
  00072	8b 4d 08	 mov	 ecx, DWORD PTR ___$ReturnUdt$[ebp]
  00075	ff 15 00 00 00
	00		 call	 DWORD PTR __imp_??0?$basic_string@_WU?$char_traits@_W@std@@V?$allocator@_W@2@@std@@QAE@ABV01@@Z
  0007b	3b f4		 cmp	 esi, esp
  0007d	e8 00 00 00 00	 call	 __RTC_CheckEsp
  00082	8b 45 d4	 mov	 eax, DWORD PTR $T89418[ebp]
  00085	83 c8 01	 or	 eax, 1
  00088	89 45 d4	 mov	 DWORD PTR $T89418[ebp], eax
  0008b	c6 45 fc 00	 mov	 BYTE PTR __$EHRec$[ebp+8], 0
  0008f	8b f4		 mov	 esi, esp
  00091	8d 4d d8	 lea	 ecx, DWORD PTR $T89415[ebp]
  00094	ff 15 00 00 00
	00		 call	 DWORD PTR __imp_??1?$basic_string@_WU?$char_traits@_W@std@@V?$allocator@_W@2@@std@@QAE@XZ
  0009a	3b f4		 cmp	 esi, esp
  0009c	e8 00 00 00 00	 call	 __RTC_CheckEsp
  000a1	8b 45 08	 mov	 eax, DWORD PTR ___$ReturnUdt$[ebp]

; 23   : 	}

  000a4	8b 4d f4	 mov	 ecx, DWORD PTR __$EHRec$[ebp]
  000a7	64 89 0d 00 00
	00 00		 mov	 DWORD PTR fs:__except_list, ecx
  000ae	5f		 pop	 edi
  000af	5e		 pop	 esi
  000b0	83 c4 34	 add	 esp, 52			; 00000034H
  000b3	3b ec		 cmp	 ebp, esp
  000b5	e8 00 00 00 00	 call	 __RTC_CheckEsp
  000ba	8b e5		 mov	 esp, ebp
  000bc	5d		 pop	 ebp
  000bd	c3		 ret	 0
_TEXT	ENDS
;	COMDAT text$x
text$x	SEGMENT
$L89416:
  00000	8b f4		 mov	 esi, esp
  00002	8d 4d d8	 lea	 ecx, DWORD PTR $T89415[ebp]
  00005	ff 15 00 00 00
	00		 call	 DWORD PTR __imp_??1?$basic_string@_WU?$char_traits@_W@std@@V?$allocator@_W@2@@std@@QAE@XZ
  0000b	3b f4		 cmp	 esi, esp
  0000d	e9 00 00 00 00	 jmp	 __RTC_CheckEsp
$L89417:
  00012	8b 45 d4	 mov	 eax, DWORD PTR $T89418[ebp]
  00015	83 e0 01	 and	 eax, 1
  00018	0f 84 16 00 00
	00		 je	 $L89419
  0001e	83 65 d4 fe	 and	 DWORD PTR $T89418[ebp], -2 ; fffffffeH
  00022	8b f4		 mov	 esi, esp
  00024	8b 4d 08	 mov	 ecx, DWORD PTR ___$ReturnUdt$[ebp]
  00027	ff 15 00 00 00
	00		 call	 DWORD PTR __imp_??1?$basic_string@_WU?$char_traits@_W@std@@V?$allocator@_W@2@@std@@QAE@XZ
  0002d	3b f4		 cmp	 esi, esp
  0002f	e9 00 00 00 00	 jmp	 __RTC_CheckEsp
$L89419:
  00034	c3		 ret	 0
__ehhandler$??$?H_WU?$char_traits@_W@std@@V?$allocator@_W@1@@std@@YA?AV?$basic_string@_WU?$char_traits@_W@std@@V?$allocator@_W@2@@0@ABV10@0@Z:
  00035	b8 00 00 00 00	 mov	 eax, OFFSET FLAT:$T89421
  0003a	e9 00 00 00 00	 jmp	 ___CxxFrameHandler
text$x	ENDS
??$?H_WU?$char_traits@_W@std@@V?$allocator@_W@1@@std@@YA?AV?$basic_string@_WU?$char_traits@_W@std@@V?$allocator@_W@2@@0@ABV10@0@Z ENDP ; std::operator+<wchar_t,std::char_traits<wchar_t>,std::allocator<wchar_t> >
PUBLIC	??$?H_WU?$char_traits@_W@std@@V?$allocator@_W@1@@std@@YA?AV?$basic_string@_WU?$char_traits@_W@std@@V?$allocator@_W@2@@0@PB_WABV10@@Z ; std::operator+<wchar_t,std::char_traits<wchar_t>,std::allocator<wchar_t> >
EXTRN	__imp_??0?$basic_string@_WU?$char_traits@_W@std@@V?$allocator@_W@2@@std@@QAE@PB_W@Z:NEAR
;	COMDAT xdata$x
xdata$x	SEGMENT
$T89435	DD	0ffffffffH
	DD	FLAT:$L89429
	DD	00H
	DD	FLAT:$L89428
$T89433	DD	019930520H
	DD	02H
	DD	FLAT:$T89435
	DD	2 DUP(00H)
	DD	2 DUP(00H)
; Function compile flags: /Odt /RTCsu
xdata$x	ENDS
;	COMDAT ??$?H_WU?$char_traits@_W@std@@V?$allocator@_W@1@@std@@YA?AV?$basic_string@_WU?$char_traits@_W@std@@V?$allocator@_W@2@@0@PB_WABV10@@Z
_TEXT	SEGMENT
tv77 = -52						; size = 4
tv82 = -48						; size = 4
$T89430 = -44						; size = 4
$T89427 = -40						; size = 28
__$EHRec$ = -12						; size = 12
___$ReturnUdt$ = 8					; size = 4
__Left$ = 12						; size = 4
__Right$ = 16						; size = 4
??$?H_WU?$char_traits@_W@std@@V?$allocator@_W@1@@std@@YA?AV?$basic_string@_WU?$char_traits@_W@std@@V?$allocator@_W@2@@0@PB_WABV10@@Z PROC NEAR ; std::operator+<wchar_t,std::char_traits<wchar_t>,std::allocator<wchar_t> >, COMDAT

; 31   : 	{	// return NTCS + string

  00000	55		 push	 ebp
  00001	8b ec		 mov	 ebp, esp
  00003	6a ff		 push	 -1
  00005	68 00 00 00 00	 push	 __ehhandler$??$?H_WU?$char_traits@_W@std@@V?$allocator@_W@1@@std@@YA?AV?$basic_string@_WU?$char_traits@_W@std@@V?$allocator@_W@2@@0@PB_WABV10@@Z
  0000a	64 a1 00 00 00
	00		 mov	 eax, DWORD PTR fs:__except_list
  00010	50		 push	 eax
  00011	64 89 25 00 00
	00 00		 mov	 DWORD PTR fs:__except_list, esp
  00018	83 ec 28	 sub	 esp, 40			; 00000028H
  0001b	56		 push	 esi
  0001c	57		 push	 edi
  0001d	8d 7d cc	 lea	 edi, DWORD PTR [ebp-52]
  00020	b9 0a 00 00 00	 mov	 ecx, 10			; 0000000aH
  00025	b8 cc cc cc cc	 mov	 eax, -858993460		; ccccccccH
  0002a	f3 ab		 rep stosd
  0002c	c7 45 d4 00 00
	00 00		 mov	 DWORD PTR $T89430[ebp], 0

; 32   : 	return (basic_string<_Elem, _Traits, _Alloc>(_Left) += _Right);

  00033	8b f4		 mov	 esi, esp
  00035	8b 45 0c	 mov	 eax, DWORD PTR __Left$[ebp]
  00038	50		 push	 eax
  00039	8d 4d d8	 lea	 ecx, DWORD PTR $T89427[ebp]
  0003c	ff 15 00 00 00
	00		 call	 DWORD PTR __imp_??0?$basic_string@_WU?$char_traits@_W@std@@V?$allocator@_W@2@@std@@QAE@PB_W@Z
  00042	3b f4		 cmp	 esi, esp
  00044	e8 00 00 00 00	 call	 __RTC_CheckEsp
  00049	89 45 d0	 mov	 DWORD PTR tv82[ebp], eax
  0004c	8b 4d d0	 mov	 ecx, DWORD PTR tv82[ebp]
  0004f	89 4d cc	 mov	 DWORD PTR tv77[ebp], ecx
  00052	c7 45 fc 01 00
	00 00		 mov	 DWORD PTR __$EHRec$[ebp+8], 1
  00059	8b f4		 mov	 esi, esp
  0005b	8b 55 10	 mov	 edx, DWORD PTR __Right$[ebp]
  0005e	52		 push	 edx
  0005f	8b 4d cc	 mov	 ecx, DWORD PTR tv77[ebp]
  00062	ff 15 00 00 00
	00		 call	 DWORD PTR __imp_??Y?$basic_string@_WU?$char_traits@_W@std@@V?$allocator@_W@2@@std@@QAEAAV01@ABV01@@Z
  00068	3b f4		 cmp	 esi, esp
  0006a	e8 00 00 00 00	 call	 __RTC_CheckEsp
  0006f	8b f4		 mov	 esi, esp
  00071	50		 push	 eax
  00072	8b 4d 08	 mov	 ecx, DWORD PTR ___$ReturnUdt$[ebp]
  00075	ff 15 00 00 00
	00		 call	 DWORD PTR __imp_??0?$basic_string@_WU?$char_traits@_W@std@@V?$allocator@_W@2@@std@@QAE@ABV01@@Z
  0007b	3b f4		 cmp	 esi, esp
  0007d	e8 00 00 00 00	 call	 __RTC_CheckEsp
  00082	8b 45 d4	 mov	 eax, DWORD PTR $T89430[ebp]
  00085	83 c8 01	 or	 eax, 1
  00088	89 45 d4	 mov	 DWORD PTR $T89430[ebp], eax
  0008b	c6 45 fc 00	 mov	 BYTE PTR __$EHRec$[ebp+8], 0
  0008f	8b f4		 mov	 esi, esp
  00091	8d 4d d8	 lea	 ecx, DWORD PTR $T89427[ebp]
  00094	ff 15 00 00 00
	00		 call	 DWORD PTR __imp_??1?$basic_string@_WU?$char_traits@_W@std@@V?$allocator@_W@2@@std@@QAE@XZ
  0009a	3b f4		 cmp	 esi, esp
  0009c	e8 00 00 00 00	 call	 __RTC_CheckEsp
  000a1	8b 45 08	 mov	 eax, DWORD PTR ___$ReturnUdt$[ebp]

; 33   : 	}

  000a4	8b 4d f4	 mov	 ecx, DWORD PTR __$EHRec$[ebp]
  000a7	64 89 0d 00 00
	00 00		 mov	 DWORD PTR fs:__except_list, ecx
  000ae	5f		 pop	 edi
  000af	5e		 pop	 esi
  000b0	83 c4 34	 add	 esp, 52			; 00000034H
  000b3	3b ec		 cmp	 ebp, esp
  000b5	e8 00 00 00 00	 call	 __RTC_CheckEsp
  000ba	8b e5		 mov	 esp, ebp
  000bc	5d		 pop	 ebp
  000bd	c3		 ret	 0
_TEXT	ENDS
;	COMDAT text$x
text$x	SEGMENT
$L89428:
  00000	8b f4		 mov	 esi, esp
  00002	8d 4d d8	 lea	 ecx, DWORD PTR $T89427[ebp]
  00005	ff 15 00 00 00
	00		 call	 DWORD PTR __imp_??1?$basic_string@_WU?$char_traits@_W@std@@V?$allocator@_W@2@@std@@QAE@XZ
  0000b	3b f4		 cmp	 esi, esp
  0000d	e9 00 00 00 00	 jmp	 __RTC_CheckEsp
$L89429:
  00012	8b 45 d4	 mov	 eax, DWORD PTR $T89430[ebp]
  00015	83 e0 01	 and	 eax, 1
  00018	0f 84 16 00 00
	00		 je	 $L89431
  0001e	83 65 d4 fe	 and	 DWORD PTR $T89430[ebp], -2 ; fffffffeH
  00022	8b f4		 mov	 esi, esp
  00024	8b 4d 08	 mov	 ecx, DWORD PTR ___$ReturnUdt$[ebp]
  00027	ff 15 00 00 00
	00		 call	 DWORD PTR __imp_??1?$basic_string@_WU?$char_traits@_W@std@@V?$allocator@_W@2@@std@@QAE@XZ
  0002d	3b f4		 cmp	 esi, esp
  0002f	e9 00 00 00 00	 jmp	 __RTC_CheckEsp
$L89431:
  00034	c3		 ret	 0
__ehhandler$??$?H_WU?$char_traits@_W@std@@V?$allocator@_W@1@@std@@YA?AV?$basic_string@_WU?$char_traits@_W@std@@V?$allocator@_W@2@@0@PB_WABV10@@Z:
  00035	b8 00 00 00 00	 mov	 eax, OFFSET FLAT:$T89433
  0003a	e9 00 00 00 00	 jmp	 ___CxxFrameHandler
text$x	ENDS
??$?H_WU?$char_traits@_W@std@@V?$allocator@_W@1@@std@@YA?AV?$basic_string@_WU?$char_traits@_W@std@@V?$allocator@_W@2@@0@PB_WABV10@@Z ENDP ; std::operator+<wchar_t,std::char_traits<wchar_t>,std::allocator<wchar_t> >
PUBLIC	??$?H_WU?$char_traits@_W@std@@V?$allocator@_W@1@@std@@YA?AV?$basic_string@_WU?$char_traits@_W@std@@V?$allocator@_W@2@@0@_WABV10@@Z ; std::operator+<wchar_t,std::char_traits<wchar_t>,std::allocator<wchar_t> >
EXTRN	__imp_??0?$basic_string@_WU?$char_traits@_W@std@@V?$allocator@_W@2@@std@@QAE@I_W@Z:NEAR
;	COMDAT xdata$x
xdata$x	SEGMENT
$T89447	DD	0ffffffffH
	DD	FLAT:$L89441
	DD	00H
	DD	FLAT:$L89440
$T89445	DD	019930520H
	DD	02H
	DD	FLAT:$T89447
	DD	2 DUP(00H)
	DD	2 DUP(00H)
; Function compile flags: /Odt /RTCsu
xdata$x	ENDS
;	COMDAT ??$?H_WU?$char_traits@_W@std@@V?$allocator@_W@1@@std@@YA?AV?$basic_string@_WU?$char_traits@_W@std@@V?$allocator@_W@2@@0@_WABV10@@Z
_TEXT	SEGMENT
tv78 = -52						; size = 4
tv83 = -48						; size = 4
$T89442 = -44						; size = 4
$T89439 = -40						; size = 28
__$EHRec$ = -12						; size = 12
___$ReturnUdt$ = 8					; size = 4
__Left$ = 12						; size = 2
__Right$ = 16						; size = 4
??$?H_WU?$char_traits@_W@std@@V?$allocator@_W@1@@std@@YA?AV?$basic_string@_WU?$char_traits@_W@std@@V?$allocator@_W@2@@0@_WABV10@@Z PROC NEAR ; std::operator+<wchar_t,std::char_traits<wchar_t>,std::allocator<wchar_t> >, COMDAT

; 41   : 	{	// return character + string

  00000	55		 push	 ebp
  00001	8b ec		 mov	 ebp, esp
  00003	6a ff		 push	 -1
  00005	68 00 00 00 00	 push	 __ehhandler$??$?H_WU?$char_traits@_W@std@@V?$allocator@_W@1@@std@@YA?AV?$basic_string@_WU?$char_traits@_W@std@@V?$allocator@_W@2@@0@_WABV10@@Z
  0000a	64 a1 00 00 00
	00		 mov	 eax, DWORD PTR fs:__except_list
  00010	50		 push	 eax
  00011	64 89 25 00 00
	00 00		 mov	 DWORD PTR fs:__except_list, esp
  00018	83 ec 28	 sub	 esp, 40			; 00000028H
  0001b	56		 push	 esi
  0001c	57		 push	 edi
  0001d	8d 7d cc	 lea	 edi, DWORD PTR [ebp-52]
  00020	b9 0a 00 00 00	 mov	 ecx, 10			; 0000000aH
  00025	b8 cc cc cc cc	 mov	 eax, -858993460		; ccccccccH
  0002a	f3 ab		 rep stosd
  0002c	c7 45 d4 00 00
	00 00		 mov	 DWORD PTR $T89442[ebp], 0

; 42   : 	return (basic_string<_Elem, _Traits, _Alloc>(1, _Left) += _Right);

  00033	8b f4		 mov	 esi, esp
  00035	66 8b 45 0c	 mov	 ax, WORD PTR __Left$[ebp]
  00039	50		 push	 eax
  0003a	6a 01		 push	 1
  0003c	8d 4d d8	 lea	 ecx, DWORD PTR $T89439[ebp]
  0003f	ff 15 00 00 00
	00		 call	 DWORD PTR __imp_??0?$basic_string@_WU?$char_traits@_W@std@@V?$allocator@_W@2@@std@@QAE@I_W@Z
  00045	3b f4		 cmp	 esi, esp
  00047	e8 00 00 00 00	 call	 __RTC_CheckEsp
  0004c	89 45 d0	 mov	 DWORD PTR tv83[ebp], eax
  0004f	8b 4d d0	 mov	 ecx, DWORD PTR tv83[ebp]
  00052	89 4d cc	 mov	 DWORD PTR tv78[ebp], ecx
  00055	c7 45 fc 01 00
	00 00		 mov	 DWORD PTR __$EHRec$[ebp+8], 1
  0005c	8b f4		 mov	 esi, esp
  0005e	8b 55 10	 mov	 edx, DWORD PTR __Right$[ebp]
  00061	52		 push	 edx
  00062	8b 4d cc	 mov	 ecx, DWORD PTR tv78[ebp]
  00065	ff 15 00 00 00
	00		 call	 DWORD PTR __imp_??Y?$basic_string@_WU?$char_traits@_W@std@@V?$allocator@_W@2@@std@@QAEAAV01@ABV01@@Z
  0006b	3b f4		 cmp	 esi, esp
  0006d	e8 00 00 00 00	 call	 __RTC_CheckEsp
  00072	8b f4		 mov	 esi, esp
  00074	50		 push	 eax
  00075	8b 4d 08	 mov	 ecx, DWORD PTR ___$ReturnUdt$[ebp]
  00078	ff 15 00 00 00
	00		 call	 DWORD PTR __imp_??0?$basic_string@_WU?$char_traits@_W@std@@V?$allocator@_W@2@@std@@QAE@ABV01@@Z
  0007e	3b f4		 cmp	 esi, esp
  00080	e8 00 00 00 00	 call	 __RTC_CheckEsp
  00085	8b 45 d4	 mov	 eax, DWORD PTR $T89442[ebp]
  00088	83 c8 01	 or	 eax, 1
  0008b	89 45 d4	 mov	 DWORD PTR $T89442[ebp], eax
  0008e	c6 45 fc 00	 mov	 BYTE PTR __$EHRec$[ebp+8], 0
  00092	8b f4		 mov	 esi, esp
  00094	8d 4d d8	 lea	 ecx, DWORD PTR $T89439[ebp]
  00097	ff 15 00 00 00
	00		 call	 DWORD PTR __imp_??1?$basic_string@_WU?$char_traits@_W@std@@V?$allocator@_W@2@@std@@QAE@XZ
  0009d	3b f4		 cmp	 esi, esp
  0009f	e8 00 00 00 00	 call	 __RTC_CheckEsp
  000a4	8b 45 08	 mov	 eax, DWORD PTR ___$ReturnUdt$[ebp]

; 43   : 	}

  000a7	8b 4d f4	 mov	 ecx, DWORD PTR __$EHRec$[ebp]
  000aa	64 89 0d 00 00
	00 00		 mov	 DWORD PTR fs:__except_list, ecx
  000b1	5f		 pop	 edi
  000b2	5e		 pop	 esi
  000b3	83 c4 34	 add	 esp, 52			; 00000034H
  000b6	3b ec		 cmp	 ebp, esp
  000b8	e8 00 00 00 00	 call	 __RTC_CheckEsp
  000bd	8b e5		 mov	 esp, ebp
  000bf	5d		 pop	 ebp
  000c0	c3		 ret	 0
_TEXT	ENDS
;	COMDAT text$x
text$x	SEGMENT
$L89440:
  00000	8b f4		 mov	 esi, esp
  00002	8d 4d d8	 lea	 ecx, DWORD PTR $T89439[ebp]
  00005	ff 15 00 00 00
	00		 call	 DWORD PTR __imp_??1?$basic_string@_WU?$char_traits@_W@std@@V?$allocator@_W@2@@std@@QAE@XZ
  0000b	3b f4		 cmp	 esi, esp
  0000d	e9 00 00 00 00	 jmp	 __RTC_CheckEsp
$L89441:
  00012	8b 45 d4	 mov	 eax, DWORD PTR $T89442[ebp]
  00015	83 e0 01	 and	 eax, 1
  00018	0f 84 16 00 00
	00		 je	 $L89443
  0001e	83 65 d4 fe	 and	 DWORD PTR $T89442[ebp], -2 ; fffffffeH
  00022	8b f4		 mov	 esi, esp
  00024	8b 4d 08	 mov	 ecx, DWORD PTR ___$ReturnUdt$[ebp]
  00027	ff 15 00 00 00
	00		 call	 DWORD PTR __imp_??1?$basic_string@_WU?$char_traits@_W@std@@V?$allocator@_W@2@@std@@QAE@XZ
  0002d	3b f4		 cmp	 esi, esp
  0002f	e9 00 00 00 00	 jmp	 __RTC_CheckEsp
$L89443:
  00034	c3		 ret	 0
__ehhandler$??$?H_WU?$char_traits@_W@std@@V?$allocator@_W@1@@std@@YA?AV?$basic_string@_WU?$char_traits@_W@std@@V?$allocator@_W@2@@0@_WABV10@@Z:
  00035	b8 00 00 00 00	 mov	 eax, OFFSET FLAT:$T89445
  0003a	e9 00 00 00 00	 jmp	 ___CxxFrameHandler
text$x	ENDS
??$?H_WU?$char_traits@_W@std@@V?$allocator@_W@1@@std@@YA?AV?$basic_string@_WU?$char_traits@_W@std@@V?$allocator@_W@2@@0@_WABV10@@Z ENDP ; std::operator+<wchar_t,std::char_traits<wchar_t>,std::allocator<wchar_t> >
PUBLIC	??$?H_WU?$char_traits@_W@std@@V?$allocator@_W@1@@std@@YA?AV?$basic_string@_WU?$char_traits@_W@std@@V?$allocator@_W@2@@0@ABV10@PB_W@Z ; std::operator+<wchar_t,std::char_traits<wchar_t>,std::allocator<wchar_t> >
EXTRN	__imp_??Y?$basic_string@_WU?$char_traits@_W@std@@V?$allocator@_W@2@@std@@QAEAAV01@PB_W@Z:NEAR
;	COMDAT xdata$x
xdata$x	SEGMENT
$T89459	DD	0ffffffffH
	DD	FLAT:$L89453
	DD	00H
	DD	FLAT:$L89452
$T89457	DD	019930520H
	DD	02H
	DD	FLAT:$T89459
	DD	2 DUP(00H)
	DD	2 DUP(00H)
; Function compile flags: /Odt /RTCsu
xdata$x	ENDS
;	COMDAT ??$?H_WU?$char_traits@_W@std@@V?$allocator@_W@1@@std@@YA?AV?$basic_string@_WU?$char_traits@_W@std@@V?$allocator@_W@2@@0@ABV10@PB_W@Z
_TEXT	SEGMENT
tv77 = -52						; size = 4
tv82 = -48						; size = 4
$T89454 = -44						; size = 4
$T89451 = -40						; size = 28
__$EHRec$ = -12						; size = 12
___$ReturnUdt$ = 8					; size = 4
__Left$ = 12						; size = 4
__Right$ = 16						; size = 4
??$?H_WU?$char_traits@_W@std@@V?$allocator@_W@1@@std@@YA?AV?$basic_string@_WU?$char_traits@_W@std@@V?$allocator@_W@2@@0@ABV10@PB_W@Z PROC NEAR ; std::operator+<wchar_t,std::char_traits<wchar_t>,std::allocator<wchar_t> >, COMDAT

; 51   : 	{	// return string + NTCS

  00000	55		 push	 ebp
  00001	8b ec		 mov	 ebp, esp
  00003	6a ff		 push	 -1
  00005	68 00 00 00 00	 push	 __ehhandler$??$?H_WU?$char_traits@_W@std@@V?$allocator@_W@1@@std@@YA?AV?$basic_string@_WU?$char_traits@_W@std@@V?$allocator@_W@2@@0@ABV10@PB_W@Z
  0000a	64 a1 00 00 00
	00		 mov	 eax, DWORD PTR fs:__except_list
  00010	50		 push	 eax
  00011	64 89 25 00 00
	00 00		 mov	 DWORD PTR fs:__except_list, esp
  00018	83 ec 28	 sub	 esp, 40			; 00000028H
  0001b	56		 push	 esi
  0001c	57		 push	 edi
  0001d	8d 7d cc	 lea	 edi, DWORD PTR [ebp-52]
  00020	b9 0a 00 00 00	 mov	 ecx, 10			; 0000000aH
  00025	b8 cc cc cc cc	 mov	 eax, -858993460		; ccccccccH
  0002a	f3 ab		 rep stosd
  0002c	c7 45 d4 00 00
	00 00		 mov	 DWORD PTR $T89454[ebp], 0

; 52   : 	return (basic_string<_Elem, _Traits, _Alloc>(_Left) += _Right);

  00033	8b f4		 mov	 esi, esp
  00035	8b 45 0c	 mov	 eax, DWORD PTR __Left$[ebp]
  00038	50		 push	 eax
  00039	8d 4d d8	 lea	 ecx, DWORD PTR $T89451[ebp]
  0003c	ff 15 00 00 00
	00		 call	 DWORD PTR __imp_??0?$basic_string@_WU?$char_traits@_W@std@@V?$allocator@_W@2@@std@@QAE@ABV01@@Z
  00042	3b f4		 cmp	 esi, esp
  00044	e8 00 00 00 00	 call	 __RTC_CheckEsp
  00049	89 45 d0	 mov	 DWORD PTR tv82[ebp], eax
  0004c	8b 4d d0	 mov	 ecx, DWORD PTR tv82[ebp]
  0004f	89 4d cc	 mov	 DWORD PTR tv77[ebp], ecx
  00052	c7 45 fc 01 00
	00 00		 mov	 DWORD PTR __$EHRec$[ebp+8], 1
  00059	8b f4		 mov	 esi, esp
  0005b	8b 55 10	 mov	 edx, DWORD PTR __Right$[ebp]
  0005e	52		 push	 edx
  0005f	8b 4d cc	 mov	 ecx, DWORD PTR tv77[ebp]
  00062	ff 15 00 00 00
	00		 call	 DWORD PTR __imp_??Y?$basic_string@_WU?$char_traits@_W@std@@V?$allocator@_W@2@@std@@QAEAAV01@PB_W@Z
  00068	3b f4		 cmp	 esi, esp
  0006a	e8 00 00 00 00	 call	 __RTC_CheckEsp
  0006f	8b f4		 mov	 esi, esp
  00071	50		 push	 eax
  00072	8b 4d 08	 mov	 ecx, DWORD PTR ___$ReturnUdt$[ebp]
  00075	ff 15 00 00 00
	00		 call	 DWORD PTR __imp_??0?$basic_string@_WU?$char_traits@_W@std@@V?$allocator@_W@2@@std@@QAE@ABV01@@Z
  0007b	3b f4		 cmp	 esi, esp
  0007d	e8 00 00 00 00	 call	 __RTC_CheckEsp
  00082	8b 45 d4	 mov	 eax, DWORD PTR $T89454[ebp]
  00085	83 c8 01	 or	 eax, 1
  00088	89 45 d4	 mov	 DWORD PTR $T89454[ebp], eax
  0008b	c6 45 fc 00	 mov	 BYTE PTR __$EHRec$[ebp+8], 0
  0008f	8b f4		 mov	 esi, esp
  00091	8d 4d d8	 lea	 ecx, DWORD PTR $T89451[ebp]
  00094	ff 15 00 00 00
	00		 call	 DWORD PTR __imp_??1?$basic_string@_WU?$char_traits@_W@std@@V?$allocator@_W@2@@std@@QAE@XZ
  0009a	3b f4		 cmp	 esi, esp
  0009c	e8 00 00 00 00	 call	 __RTC_CheckEsp
  000a1	8b 45 08	 mov	 eax, DWORD PTR ___$ReturnUdt$[ebp]

; 53   : 	}

  000a4	8b 4d f4	 mov	 ecx, DWORD PTR __$EHRec$[ebp]
  000a7	64 89 0d 00 00
	00 00		 mov	 DWORD PTR fs:__except_list, ecx
  000ae	5f		 pop	 edi
  000af	5e		 pop	 esi
  000b0	83 c4 34	 add	 esp, 52			; 00000034H
  000b3	3b ec		 cmp	 ebp, esp
  000b5	e8 00 00 00 00	 call	 __RTC_CheckEsp
  000ba	8b e5		 mov	 esp, ebp
  000bc	5d		 pop	 ebp
  000bd	c3		 ret	 0
_TEXT	ENDS
;	COMDAT text$x
text$x	SEGMENT
$L89452:
  00000	8b f4		 mov	 esi, esp
  00002	8d 4d d8	 lea	 ecx, DWORD PTR $T89451[ebp]
  00005	ff 15 00 00 00
	00		 call	 DWORD PTR __imp_??1?$basic_string@_WU?$char_traits@_W@std@@V?$allocator@_W@2@@std@@QAE@XZ
  0000b	3b f4		 cmp	 esi, esp
  0000d	e9 00 00 00 00	 jmp	 __RTC_CheckEsp
$L89453:
  00012	8b 45 d4	 mov	 eax, DWORD PTR $T89454[ebp]
  00015	83 e0 01	 and	 eax, 1
  00018	0f 84 16 00 00
	00		 je	 $L89455
  0001e	83 65 d4 fe	 and	 DWORD PTR $T89454[ebp], -2 ; fffffffeH
  00022	8b f4		 mov	 esi, esp
  00024	8b 4d 08	 mov	 ecx, DWORD PTR ___$ReturnUdt$[ebp]
  00027	ff 15 00 00 00
	00		 call	 DWORD PTR __imp_??1?$basic_string@_WU?$char_traits@_W@std@@V?$allocator@_W@2@@std@@QAE@XZ
  0002d	3b f4		 cmp	 esi, esp
  0002f	e9 00 00 00 00	 jmp	 __RTC_CheckEsp
$L89455:
  00034	c3		 ret	 0
__ehhandler$??$?H_WU?$char_traits@_W@std@@V?$allocator@_W@1@@std@@YA?AV?$basic_string@_WU?$char_traits@_W@std@@V?$allocator@_W@2@@0@ABV10@PB_W@Z:
  00035	b8 00 00 00 00	 mov	 eax, OFFSET FLAT:$T89457
  0003a	e9 00 00 00 00	 jmp	 ___CxxFrameHandler
text$x	ENDS
??$?H_WU?$char_traits@_W@std@@V?$allocator@_W@1@@std@@YA?AV?$basic_string@_WU?$char_traits@_W@std@@V?$allocator@_W@2@@0@ABV10@PB_W@Z ENDP ; std::operator+<wchar_t,std::char_traits<wchar_t>,std::allocator<wchar_t> >
PUBLIC	??$?H_WU?$char_traits@_W@std@@V?$allocator@_W@1@@std@@YA?AV?$basic_string@_WU?$char_traits@_W@std@@V?$allocator@_W@2@@0@ABV10@_W@Z ; std::operator+<wchar_t,std::char_traits<wchar_t>,std::allocator<wchar_t> >
EXTRN	__imp_??Y?$basic_string@_WU?$char_traits@_W@std@@V?$allocator@_W@2@@std@@QAEAAV01@_W@Z:NEAR
;	COMDAT xdata$x
xdata$x	SEGMENT
$T89471	DD	0ffffffffH
	DD	FLAT:$L89465
	DD	00H
	DD	FLAT:$L89464
$T89469	DD	019930520H
	DD	02H
	DD	FLAT:$T89471
	DD	2 DUP(00H)
	DD	2 DUP(00H)
; Function compile flags: /Odt /RTCsu
xdata$x	ENDS
;	COMDAT ??$?H_WU?$char_traits@_W@std@@V?$allocator@_W@1@@std@@YA?AV?$basic_string@_WU?$char_traits@_W@std@@V?$allocator@_W@2@@0@ABV10@_W@Z
_TEXT	SEGMENT
tv77 = -52						; size = 4
tv82 = -48						; size = 4
$T89466 = -44						; size = 4
$T89463 = -40						; size = 28
__$EHRec$ = -12						; size = 12
___$ReturnUdt$ = 8					; size = 4
__Left$ = 12						; size = 4
__Right$ = 16						; size = 2
??$?H_WU?$char_traits@_W@std@@V?$allocator@_W@1@@std@@YA?AV?$basic_string@_WU?$char_traits@_W@std@@V?$allocator@_W@2@@0@ABV10@_W@Z PROC NEAR ; std::operator+<wchar_t,std::char_traits<wchar_t>,std::allocator<wchar_t> >, COMDAT

; 61   : 	{	// return string + character

  00000	55		 push	 ebp
  00001	8b ec		 mov	 ebp, esp
  00003	6a ff		 push	 -1
  00005	68 00 00 00 00	 push	 __ehhandler$??$?H_WU?$char_traits@_W@std@@V?$allocator@_W@1@@std@@YA?AV?$basic_string@_WU?$char_traits@_W@std@@V?$allocator@_W@2@@0@ABV10@_W@Z
  0000a	64 a1 00 00 00
	00		 mov	 eax, DWORD PTR fs:__except_list
  00010	50		 push	 eax
  00011	64 89 25 00 00
	00 00		 mov	 DWORD PTR fs:__except_list, esp
  00018	83 ec 28	 sub	 esp, 40			; 00000028H
  0001b	56		 push	 esi
  0001c	57		 push	 edi
  0001d	8d 7d cc	 lea	 edi, DWORD PTR [ebp-52]
  00020	b9 0a 00 00 00	 mov	 ecx, 10			; 0000000aH
  00025	b8 cc cc cc cc	 mov	 eax, -858993460		; ccccccccH
  0002a	f3 ab		 rep stosd
  0002c	c7 45 d4 00 00
	00 00		 mov	 DWORD PTR $T89466[ebp], 0

; 62   : 	return (basic_string<_Elem, _Traits, _Alloc>(_Left) += _Right);

  00033	8b f4		 mov	 esi, esp
  00035	8b 45 0c	 mov	 eax, DWORD PTR __Left$[ebp]
  00038	50		 push	 eax
  00039	8d 4d d8	 lea	 ecx, DWORD PTR $T89463[ebp]
  0003c	ff 15 00 00 00
	00		 call	 DWORD PTR __imp_??0?$basic_string@_WU?$char_traits@_W@std@@V?$allocator@_W@2@@std@@QAE@ABV01@@Z
  00042	3b f4		 cmp	 esi, esp
  00044	e8 00 00 00 00	 call	 __RTC_CheckEsp
  00049	89 45 d0	 mov	 DWORD PTR tv82[ebp], eax
  0004c	8b 4d d0	 mov	 ecx, DWORD PTR tv82[ebp]
  0004f	89 4d cc	 mov	 DWORD PTR tv77[ebp], ecx
  00052	c7 45 fc 01 00
	00 00		 mov	 DWORD PTR __$EHRec$[ebp+8], 1
  00059	8b f4		 mov	 esi, esp
  0005b	66 8b 55 10	 mov	 dx, WORD PTR __Right$[ebp]
  0005f	52		 push	 edx
  00060	8b 4d cc	 mov	 ecx, DWORD PTR tv77[ebp]
  00063	ff 15 00 00 00
	00		 call	 DWORD PTR __imp_??Y?$basic_string@_WU?$char_traits@_W@std@@V?$allocator@_W@2@@std@@QAEAAV01@_W@Z
  00069	3b f4		 cmp	 esi, esp
  0006b	e8 00 00 00 00	 call	 __RTC_CheckEsp
  00070	8b f4		 mov	 esi, esp
  00072	50		 push	 eax
  00073	8b 4d 08	 mov	 ecx, DWORD PTR ___$ReturnUdt$[ebp]
  00076	ff 15 00 00 00
	00		 call	 DWORD PTR __imp_??0?$basic_string@_WU?$char_traits@_W@std@@V?$allocator@_W@2@@std@@QAE@ABV01@@Z
  0007c	3b f4		 cmp	 esi, esp
  0007e	e8 00 00 00 00	 call	 __RTC_CheckEsp
  00083	8b 45 d4	 mov	 eax, DWORD PTR $T89466[ebp]
  00086	83 c8 01	 or	 eax, 1
  00089	89 45 d4	 mov	 DWORD PTR $T89466[ebp], eax
  0008c	c6 45 fc 00	 mov	 BYTE PTR __$EHRec$[ebp+8], 0
  00090	8b f4		 mov	 esi, esp
  00092	8d 4d d8	 lea	 ecx, DWORD PTR $T89463[ebp]
  00095	ff 15 00 00 00
	00		 call	 DWORD PTR __imp_??1?$basic_string@_WU?$char_traits@_W@std@@V?$allocator@_W@2@@std@@QAE@XZ
  0009b	3b f4		 cmp	 esi, esp
  0009d	e8 00 00 00 00	 call	 __RTC_CheckEsp
  000a2	8b 45 08	 mov	 eax, DWORD PTR ___$ReturnUdt$[ebp]

; 63   : 	}

  000a5	8b 4d f4	 mov	 ecx, DWORD PTR __$EHRec$[ebp]
  000a8	64 89 0d 00 00
	00 00		 mov	 DWORD PTR fs:__except_list, ecx
  000af	5f		 pop	 edi
  000b0	5e		 pop	 esi
  000b1	83 c4 34	 add	 esp, 52			; 00000034H
  000b4	3b ec		 cmp	 ebp, esp
  000b6	e8 00 00 00 00	 call	 __RTC_CheckEsp
  000bb	8b e5		 mov	 esp, ebp
  000bd	5d		 pop	 ebp
  000be	c3		 ret	 0
_TEXT	ENDS
;	COMDAT text$x
text$x	SEGMENT
$L89464:
  00000	8b f4		 mov	 esi, esp
  00002	8d 4d d8	 lea	 ecx, DWORD PTR $T89463[ebp]
  00005	ff 15 00 00 00
	00		 call	 DWORD PTR __imp_??1?$basic_string@_WU?$char_traits@_W@std@@V?$allocator@_W@2@@std@@QAE@XZ
  0000b	3b f4		 cmp	 esi, esp
  0000d	e9 00 00 00 00	 jmp	 __RTC_CheckEsp
$L89465:
  00012	8b 45 d4	 mov	 eax, DWORD PTR $T89466[ebp]
  00015	83 e0 01	 and	 eax, 1
  00018	0f 84 16 00 00
	00		 je	 $L89467
  0001e	83 65 d4 fe	 and	 DWORD PTR $T89466[ebp], -2 ; fffffffeH
  00022	8b f4		 mov	 esi, esp
  00024	8b 4d 08	 mov	 ecx, DWORD PTR ___$ReturnUdt$[ebp]
  00027	ff 15 00 00 00
	00		 call	 DWORD PTR __imp_??1?$basic_string@_WU?$char_traits@_W@std@@V?$allocator@_W@2@@std@@QAE@XZ
  0002d	3b f4		 cmp	 esi, esp
  0002f	e9 00 00 00 00	 jmp	 __RTC_CheckEsp
$L89467:
  00034	c3		 ret	 0
__ehhandler$??$?H_WU?$char_traits@_W@std@@V?$allocator@_W@1@@std@@YA?AV?$basic_string@_WU?$char_traits@_W@std@@V?$allocator@_W@2@@0@ABV10@_W@Z:
  00035	b8 00 00 00 00	 mov	 eax, OFFSET FLAT:$T89469
  0003a	e9 00 00 00 00	 jmp	 ___CxxFrameHandler
text$x	ENDS
??$?H_WU?$char_traits@_W@std@@V?$allocator@_W@1@@std@@YA?AV?$basic_string@_WU?$char_traits@_W@std@@V?$allocator@_W@2@@0@ABV10@_W@Z ENDP ; std::operator+<wchar_t,std::char_traits<wchar_t>,std::allocator<wchar_t> >
PUBLIC	??$use_facet@V?$ctype@D@std@@@std@@YAABV?$ctype@D@0@ABVlocale@0@@Z ; std::use_facet<std::ctype<char> >
PUBLIC	??0sentry@?$basic_istream@DU?$char_traits@D@std@@@std@@QAE@AAV12@_N@Z ; std::basic_istream<char,std::char_traits<char> >::sentry::sentry
PUBLIC	??Bsentry@?$basic_istream@DU?$char_traits@D@std@@@std@@QBE_NXZ ; std::basic_istream<char,std::char_traits<char> >::sentry::operator bool
PUBLIC	??1sentry@?$basic_istream@DU?$char_traits@D@std@@@std@@QAE@XZ ; std::basic_istream<char,std::char_traits<char> >::sentry::~sentry
PUBLIC	??$?5DU?$char_traits@D@std@@V?$allocator@D@1@@std@@YAAAV?$basic_istream@DU?$char_traits@D@std@@@0@AAV10@AAV?$basic_string@DU?$char_traits@D@std@@V?$allocator@D@2@@0@@Z ; std::operator>><char,std::char_traits<char>,std::allocator<char> >
EXTRN	__imp_?sgetc@?$basic_streambuf@DU?$char_traits@D@std@@@std@@QAEHXZ:NEAR
EXTRN	__imp_?snextc@?$basic_streambuf@DU?$char_traits@D@std@@@std@@QAEHXZ:NEAR
EXTRN	__imp_?append@?$basic_string@DU?$char_traits@D@std@@V?$allocator@D@2@@std@@QAEAAV12@ID@Z:NEAR
EXTRN	__imp_?erase@?$basic_string@DU?$char_traits@D@std@@V?$allocator@D@2@@std@@QAEAAV12@II@Z:NEAR
EXTRN	__imp_?max_size@?$basic_string@DU?$char_traits@D@std@@V?$allocator@D@2@@std@@QBEIXZ:NEAR
EXTRN	__imp_??1locale@std@@QAE@XZ:NEAR
EXTRN	__imp_?to_char_type@?$char_traits@D@std@@SADABH@Z:NEAR
EXTRN	__imp_?eq_int_type@?$char_traits@D@std@@SA_NABH0@Z:NEAR
EXTRN	__imp_?eof@?$char_traits@D@std@@SAHXZ:NEAR
EXTRN	__imp_?setstate@?$basic_ios@DU?$char_traits@D@std@@@std@@QAEXH_N@Z:NEAR
EXTRN	__imp_?rdbuf@?$basic_ios@DU?$char_traits@D@std@@@std@@QBEPAV?$basic_streambuf@DU?$char_traits@D@std@@@2@XZ:NEAR
EXTRN	__imp_?width@ios_base@std@@QBEHXZ:NEAR
EXTRN	__imp_?width@ios_base@std@@QAEHH@Z:NEAR
EXTRN	__imp_?getloc@ios_base@std@@QBE?AVlocale@2@XZ:NEAR
EXTRN	__imp_?is@?$ctype@D@std@@QBE_NFD@Z:NEAR
;	COMDAT xdata$x
xdata$x	SEGMENT
$T89491	DD	0ffffffffH
	DD	FLAT:$L89482
	DD	00H
	DD	FLAT:$L89483
	DD	00H
	DD	00H
	DD	00H
	DD	00H
$T89493	DD	00H
	DD	00H
	DD	00H
	DD	FLAT:$L89481
$T89492	DD	02H
	DD	02H
	DD	03H
	DD	01H
	DD	FLAT:$T89493
$T89485	DD	019930520H
	DD	04H
	DD	FLAT:$T89491
	DD	01H
	DD	FLAT:$T89492
	DD	2 DUP(00H)
; Function compile flags: /Odt /RTCsu
xdata$x	ENDS
;	COMDAT ??$?5DU?$char_traits@D@std@@V?$allocator@D@1@@std@@YAAAV?$basic_istream@DU?$char_traits@D@std@@@0@AAV10@AAV?$basic_string@DU?$char_traits@D@std@@V?$allocator@D@2@@0@@Z
_TEXT	SEGMENT
tv207 = -128						; size = 1
tv206 = -127						; size = 1
tv205 = -126						; size = 1
tv204 = -125						; size = 1
tv203 = -124						; size = 4
tv202 = -120						; size = 4
tv201 = -116						; size = 4
tv200 = -112						; size = 4
tv199 = -108						; size = 4
tv198 = -104						; size = 4
tv135 = -100						; size = 4
tv197 = -96						; size = 4
tv196 = -92						; size = 4
tv195 = -88						; size = 4
tv194 = -84						; size = 4
tv189 = -80						; size = 4
tv65 = -76						; size = 4
$T89479 = -72						; size = 4
$T89478 = -68						; size = 4
$T89475 = -64						; size = 4
__Meta$87373 = -56					; size = 4
__Size$87370 = -48					; size = 4
__Ctype_fac$87367 = -44					; size = 4
__Ok$ = -36						; size = 8
__Changed$ = -21					; size = 1
__State$ = -20						; size = 4
__$EHRec$ = -16						; size = 16
__Istr$ = 8						; size = 4
__Str$ = 12						; size = 4
??$?5DU?$char_traits@D@std@@V?$allocator@D@1@@std@@YAAAV?$basic_istream@DU?$char_traits@D@std@@@0@AAV10@AAV?$basic_string@DU?$char_traits@D@std@@V?$allocator@D@2@@0@@Z PROC NEAR ; std::operator>><char,std::char_traits<char>,std::allocator<char> >, COMDAT

; 425  : 	{	// extract a string

  00000	55		 push	 ebp
  00001	8b ec		 mov	 ebp, esp
  00003	6a ff		 push	 -1
  00005	68 00 00 00 00	 push	 __ehhandler$??$?5DU?$char_traits@D@std@@V?$allocator@D@1@@std@@YAAAV?$basic_istream@DU?$char_traits@D@std@@@0@AAV10@AAV?$basic_string@DU?$char_traits@D@std@@V?$allocator@D@2@@0@@Z
  0000a	64 a1 00 00 00
	00		 mov	 eax, DWORD PTR fs:__except_list
  00010	50		 push	 eax
  00011	64 89 25 00 00
	00 00		 mov	 DWORD PTR fs:__except_list, esp
  00018	51		 push	 ecx
  00019	83 ec 70	 sub	 esp, 112		; 00000070H
  0001c	53		 push	 ebx
  0001d	56		 push	 esi
  0001e	57		 push	 edi
  0001f	8d 7d 80	 lea	 edi, DWORD PTR [ebp-128]
  00022	b9 1c 00 00 00	 mov	 ecx, 28			; 0000001cH
  00027	b8 cc cc cc cc	 mov	 eax, -858993460		; ccccccccH
  0002c	f3 ab		 rep stosd
  0002e	89 65 f0	 mov	 DWORD PTR __$EHRec$[ebp], esp

; 426  : 	typedef ctype<_Elem> _Ctype;
; 427  : 	typedef basic_istream<_Elem, _Traits> _Myis;
; 428  : 	typedef basic_string<_Elem, _Traits, _Alloc> _Mystr;
; 429  : 	typedef typename _Mystr::size_type _Mysizt;
; 430  : 
; 431  : 	ios_base::iostate _State = ios_base::goodbit;

  00031	c7 45 ec 00 00
	00 00		 mov	 DWORD PTR __State$[ebp], 0

; 432  : 	bool _Changed = false;

  00038	c6 45 eb 00	 mov	 BYTE PTR __Changed$[ebp], 0

; 433  : 	const typename _Myis::sentry _Ok(_Istr);

  0003c	6a 00		 push	 0
  0003e	8b 45 08	 mov	 eax, DWORD PTR __Istr$[ebp]
  00041	50		 push	 eax
  00042	8d 4d dc	 lea	 ecx, DWORD PTR __Ok$[ebp]
  00045	e8 00 00 00 00	 call	 ??0sentry@?$basic_istream@DU?$char_traits@D@std@@@std@@QAE@AAV12@_N@Z ; std::basic_istream<char,std::char_traits<char> >::sentry::sentry
  0004a	c7 45 fc 00 00
	00 00		 mov	 DWORD PTR __$EHRec$[ebp+12], 0

; 434  : 
; 435  : 	if (_Ok)

  00051	8d 4d dc	 lea	 ecx, DWORD PTR __Ok$[ebp]
  00054	e8 00 00 00 00	 call	 ??Bsentry@?$basic_istream@DU?$char_traits@D@std@@@std@@QBE_NXZ ; std::basic_istream<char,std::char_traits<char> >::sentry::operator bool
  00059	0f b6 c8	 movzx	 ecx, al
  0005c	85 c9		 test	 ecx, ecx
  0005e	0f 84 87 02 00
	00		 je	 $L89480

; 436  : 		{	// state okay, extract characters
; 437  : 		const _Ctype& _Ctype_fac = _USE(_Istr.getloc(), _Ctype);

  00064	8b f4		 mov	 esi, esp
  00066	8d 55 c0	 lea	 edx, DWORD PTR $T89475[ebp]
  00069	52		 push	 edx
  0006a	8b 45 08	 mov	 eax, DWORD PTR __Istr$[ebp]
  0006d	8b 08		 mov	 ecx, DWORD PTR [eax]
  0006f	8b 55 08	 mov	 edx, DWORD PTR __Istr$[ebp]
  00072	03 51 04	 add	 edx, DWORD PTR [ecx+4]
  00075	8b ca		 mov	 ecx, edx
  00077	ff 15 00 00 00
	00		 call	 DWORD PTR __imp_?getloc@ios_base@std@@QBE?AVlocale@2@XZ
  0007d	3b f4		 cmp	 esi, esp
  0007f	e8 00 00 00 00	 call	 __RTC_CheckEsp
  00084	89 45 b4	 mov	 DWORD PTR tv65[ebp], eax
  00087	8b 45 b4	 mov	 eax, DWORD PTR tv65[ebp]
  0008a	89 45 b0	 mov	 DWORD PTR tv189[ebp], eax
  0008d	c6 45 fc 01	 mov	 BYTE PTR __$EHRec$[ebp+12], 1
  00091	8b 4d b0	 mov	 ecx, DWORD PTR tv189[ebp]
  00094	51		 push	 ecx
  00095	e8 00 00 00 00	 call	 ??$use_facet@V?$ctype@D@std@@@std@@YAABV?$ctype@D@0@ABVlocale@0@@Z ; std::use_facet<std::ctype<char> >
  0009a	83 c4 04	 add	 esp, 4
  0009d	89 45 d4	 mov	 DWORD PTR __Ctype_fac$87367[ebp], eax
  000a0	c6 45 fc 00	 mov	 BYTE PTR __$EHRec$[ebp+12], 0
  000a4	8b f4		 mov	 esi, esp
  000a6	8d 4d c0	 lea	 ecx, DWORD PTR $T89475[ebp]
  000a9	ff 15 00 00 00
	00		 call	 DWORD PTR __imp_??1locale@std@@QAE@XZ
  000af	3b f4		 cmp	 esi, esp
  000b1	e8 00 00 00 00	 call	 __RTC_CheckEsp

; 438  : 		_Str.erase();

  000b6	8b f4		 mov	 esi, esp
  000b8	8b 15 00 00 00
	00		 mov	 edx, DWORD PTR __imp_?npos@?$basic_string@DU?$char_traits@D@std@@V?$allocator@D@2@@std@@2IB
  000be	8b 02		 mov	 eax, DWORD PTR [edx]
  000c0	50		 push	 eax
  000c1	6a 00		 push	 0
  000c3	8b 4d 0c	 mov	 ecx, DWORD PTR __Str$[ebp]
  000c6	ff 15 00 00 00
	00		 call	 DWORD PTR __imp_?erase@?$basic_string@DU?$char_traits@D@std@@V?$allocator@D@2@@std@@QAEAAV12@II@Z
  000cc	3b f4		 cmp	 esi, esp
  000ce	e8 00 00 00 00	 call	 __RTC_CheckEsp

; 439  : 
; 440  : 		_TRY_IO_BEGIN

  000d3	c6 45 fc 02	 mov	 BYTE PTR __$EHRec$[ebp+12], 2

; 441  : 		_Mysizt _Size = 0 < _Istr.width()
; 442  : 			&& (_Mysizt)_Istr.width() < _Str.max_size()
; 443  : 				? (_Mysizt)_Istr.width() : _Str.max_size();

  000d7	8b 4d 08	 mov	 ecx, DWORD PTR __Istr$[ebp]
  000da	8b 11		 mov	 edx, DWORD PTR [ecx]
  000dc	8b 4d 08	 mov	 ecx, DWORD PTR __Istr$[ebp]
  000df	03 4a 04	 add	 ecx, DWORD PTR [edx+4]
  000e2	8b f4		 mov	 esi, esp
  000e4	ff 15 00 00 00
	00		 call	 DWORD PTR __imp_?width@ios_base@std@@QBEHXZ
  000ea	3b f4		 cmp	 esi, esp
  000ec	e8 00 00 00 00	 call	 __RTC_CheckEsp
  000f1	89 45 ac	 mov	 DWORD PTR tv194[ebp], eax
  000f4	83 7d ac 00	 cmp	 DWORD PTR tv194[ebp], 0
  000f8	7e 61		 jle	 SHORT $L89476
  000fa	8b 45 08	 mov	 eax, DWORD PTR __Istr$[ebp]
  000fd	8b 08		 mov	 ecx, DWORD PTR [eax]
  000ff	8b 55 08	 mov	 edx, DWORD PTR __Istr$[ebp]
  00102	03 51 04	 add	 edx, DWORD PTR [ecx+4]
  00105	8b f4		 mov	 esi, esp
  00107	8b ca		 mov	 ecx, edx
  00109	ff 15 00 00 00
	00		 call	 DWORD PTR __imp_?width@ios_base@std@@QBEHXZ
  0010f	3b f4		 cmp	 esi, esp
  00111	e8 00 00 00 00	 call	 __RTC_CheckEsp
  00116	89 45 a8	 mov	 DWORD PTR tv195[ebp], eax
  00119	8b f4		 mov	 esi, esp
  0011b	8b 4d 0c	 mov	 ecx, DWORD PTR __Str$[ebp]
  0011e	ff 15 00 00 00
	00		 call	 DWORD PTR __imp_?max_size@?$basic_string@DU?$char_traits@D@std@@V?$allocator@D@2@@std@@QBEIXZ
  00124	3b f4		 cmp	 esi, esp
  00126	e8 00 00 00 00	 call	 __RTC_CheckEsp
  0012b	89 45 a4	 mov	 DWORD PTR tv196[ebp], eax
  0012e	8b 45 a8	 mov	 eax, DWORD PTR tv195[ebp]
  00131	3b 45 a4	 cmp	 eax, DWORD PTR tv196[ebp]
  00134	73 25		 jae	 SHORT $L89476
  00136	8b 4d 08	 mov	 ecx, DWORD PTR __Istr$[ebp]
  00139	8b 11		 mov	 edx, DWORD PTR [ecx]
  0013b	8b 4d 08	 mov	 ecx, DWORD PTR __Istr$[ebp]
  0013e	03 4a 04	 add	 ecx, DWORD PTR [edx+4]
  00141	8b f4		 mov	 esi, esp
  00143	ff 15 00 00 00
	00		 call	 DWORD PTR __imp_?width@ios_base@std@@QBEHXZ
  00149	3b f4		 cmp	 esi, esp
  0014b	e8 00 00 00 00	 call	 __RTC_CheckEsp
  00150	89 45 a0	 mov	 DWORD PTR tv197[ebp], eax
  00153	8b 45 a0	 mov	 eax, DWORD PTR tv197[ebp]
  00156	89 45 9c	 mov	 DWORD PTR tv135[ebp], eax
  00159	eb 1b		 jmp	 SHORT $L89477
$L89476:
  0015b	8b f4		 mov	 esi, esp
  0015d	8b 4d 0c	 mov	 ecx, DWORD PTR __Str$[ebp]
  00160	ff 15 00 00 00
	00		 call	 DWORD PTR __imp_?max_size@?$basic_string@DU?$char_traits@D@std@@V?$allocator@D@2@@std@@QBEIXZ
  00166	3b f4		 cmp	 esi, esp
  00168	e8 00 00 00 00	 call	 __RTC_CheckEsp
  0016d	89 45 98	 mov	 DWORD PTR tv198[ebp], eax
  00170	8b 4d 98	 mov	 ecx, DWORD PTR tv198[ebp]
  00173	89 4d 9c	 mov	 DWORD PTR tv135[ebp], ecx
$L89477:
  00176	8b 55 9c	 mov	 edx, DWORD PTR tv135[ebp]
  00179	89 55 d0	 mov	 DWORD PTR __Size$87370[ebp], edx

; 444  : 		typename _Traits::int_type _Meta = _Istr.rdbuf()->sgetc();

  0017c	8b 45 08	 mov	 eax, DWORD PTR __Istr$[ebp]
  0017f	8b 08		 mov	 ecx, DWORD PTR [eax]
  00181	8b 55 08	 mov	 edx, DWORD PTR __Istr$[ebp]
  00184	03 51 04	 add	 edx, DWORD PTR [ecx+4]
  00187	8b f4		 mov	 esi, esp
  00189	8b ca		 mov	 ecx, edx
  0018b	ff 15 00 00 00
	00		 call	 DWORD PTR __imp_?rdbuf@?$basic_ios@DU?$char_traits@D@std@@@std@@QBEPAV?$basic_streambuf@DU?$char_traits@D@std@@@2@XZ
  00191	3b f4		 cmp	 esi, esp
  00193	e8 00 00 00 00	 call	 __RTC_CheckEsp
  00198	89 45 94	 mov	 DWORD PTR tv199[ebp], eax
  0019b	8b f4		 mov	 esi, esp
  0019d	8b 4d 94	 mov	 ecx, DWORD PTR tv199[ebp]
  001a0	ff 15 00 00 00
	00		 call	 DWORD PTR __imp_?sgetc@?$basic_streambuf@DU?$char_traits@D@std@@@std@@QAEHXZ
  001a6	3b f4		 cmp	 esi, esp
  001a8	e8 00 00 00 00	 call	 __RTC_CheckEsp
  001ad	89 45 90	 mov	 DWORD PTR tv200[ebp], eax
  001b0	8b 45 90	 mov	 eax, DWORD PTR tv200[ebp]
  001b3	89 45 c8	 mov	 DWORD PTR __Meta$87373[ebp], eax

; 445  : 
; 446  : 		for (; 0 < _Size; --_Size, _Meta = _Istr.rdbuf()->snextc())

  001b6	eb 41		 jmp	 SHORT $L87374
$L87375:
  001b8	8b 4d d0	 mov	 ecx, DWORD PTR __Size$87370[ebp]
  001bb	83 e9 01	 sub	 ecx, 1
  001be	89 4d d0	 mov	 DWORD PTR __Size$87370[ebp], ecx
  001c1	8b 55 08	 mov	 edx, DWORD PTR __Istr$[ebp]
  001c4	8b 02		 mov	 eax, DWORD PTR [edx]
  001c6	8b 4d 08	 mov	 ecx, DWORD PTR __Istr$[ebp]
  001c9	03 48 04	 add	 ecx, DWORD PTR [eax+4]
  001cc	8b f4		 mov	 esi, esp
  001ce	ff 15 00 00 00
	00		 call	 DWORD PTR __imp_?rdbuf@?$basic_ios@DU?$char_traits@D@std@@@std@@QBEPAV?$basic_streambuf@DU?$char_traits@D@std@@@2@XZ
  001d4	3b f4		 cmp	 esi, esp
  001d6	e8 00 00 00 00	 call	 __RTC_CheckEsp
  001db	89 45 8c	 mov	 DWORD PTR tv201[ebp], eax
  001de	8b f4		 mov	 esi, esp
  001e0	8b 4d 8c	 mov	 ecx, DWORD PTR tv201[ebp]
  001e3	ff 15 00 00 00
	00		 call	 DWORD PTR __imp_?snextc@?$basic_streambuf@DU?$char_traits@D@std@@@std@@QAEHXZ
  001e9	3b f4		 cmp	 esi, esp
  001eb	e8 00 00 00 00	 call	 __RTC_CheckEsp
  001f0	89 45 88	 mov	 DWORD PTR tv202[ebp], eax
  001f3	8b 4d 88	 mov	 ecx, DWORD PTR tv202[ebp]
  001f6	89 4d c8	 mov	 DWORD PTR __Meta$87373[ebp], ecx
$L87374:
  001f9	83 7d d0 00	 cmp	 DWORD PTR __Size$87370[ebp], 0
  001fd	0f 86 c0 00 00
	00		 jbe	 $L87376

; 447  : 			if(_Traits::eq_int_type(_Traits::eof(), _Meta))

  00203	8b f4		 mov	 esi, esp
  00205	ff 15 00 00 00
	00		 call	 DWORD PTR __imp_?eof@?$char_traits@D@std@@SAHXZ
  0020b	3b f4		 cmp	 esi, esp
  0020d	e8 00 00 00 00	 call	 __RTC_CheckEsp
  00212	89 45 84	 mov	 DWORD PTR tv203[ebp], eax
  00215	8b 55 84	 mov	 edx, DWORD PTR tv203[ebp]
  00218	89 55 bc	 mov	 DWORD PTR $T89478[ebp], edx
  0021b	8b f4		 mov	 esi, esp
  0021d	8d 45 c8	 lea	 eax, DWORD PTR __Meta$87373[ebp]
  00220	50		 push	 eax
  00221	8d 4d bc	 lea	 ecx, DWORD PTR $T89478[ebp]
  00224	51		 push	 ecx
  00225	ff 15 00 00 00
	00		 call	 DWORD PTR __imp_?eq_int_type@?$char_traits@D@std@@SA_NABH0@Z
  0022b	83 c4 08	 add	 esp, 8
  0022e	3b f4		 cmp	 esi, esp
  00230	e8 00 00 00 00	 call	 __RTC_CheckEsp
  00235	88 45 83	 mov	 BYTE PTR tv204[ebp], al
  00238	0f b6 55 83	 movzx	 edx, BYTE PTR tv204[ebp]
  0023c	85 d2		 test	 edx, edx
  0023e	74 0b		 je	 SHORT $L87378

; 448  : 				{	// end of file, quit
; 449  : 				_State |= ios_base::eofbit;

  00240	8b 45 ec	 mov	 eax, DWORD PTR __State$[ebp]
  00243	83 c8 01	 or	 eax, 1
  00246	89 45 ec	 mov	 DWORD PTR __State$[ebp], eax

; 450  : 				break;

  00249	eb 78		 jmp	 SHORT $L87376
$L87378:

; 451  : 				}
; 452  : 			else if (_Ctype_fac.is(_Ctype::space,
; 453  : 				_Traits::to_char_type(_Meta)))

  0024b	8b f4		 mov	 esi, esp
  0024d	8d 4d c8	 lea	 ecx, DWORD PTR __Meta$87373[ebp]
  00250	51		 push	 ecx
  00251	ff 15 00 00 00
	00		 call	 DWORD PTR __imp_?to_char_type@?$char_traits@D@std@@SADABH@Z
  00257	83 c4 04	 add	 esp, 4
  0025a	3b f4		 cmp	 esi, esp
  0025c	e8 00 00 00 00	 call	 __RTC_CheckEsp
  00261	88 45 82	 mov	 BYTE PTR tv205[ebp], al
  00264	8b f4		 mov	 esi, esp
  00266	8a 55 82	 mov	 dl, BYTE PTR tv205[ebp]
  00269	52		 push	 edx
  0026a	6a 48		 push	 72			; 00000048H
  0026c	8b 4d d4	 mov	 ecx, DWORD PTR __Ctype_fac$87367[ebp]
  0026f	ff 15 00 00 00
	00		 call	 DWORD PTR __imp_?is@?$ctype@D@std@@QBE_NFD@Z
  00275	3b f4		 cmp	 esi, esp
  00277	e8 00 00 00 00	 call	 __RTC_CheckEsp
  0027c	88 45 81	 mov	 BYTE PTR tv206[ebp], al
  0027f	0f b6 45 81	 movzx	 eax, BYTE PTR tv206[ebp]
  00283	85 c0		 test	 eax, eax
  00285	74 02		 je	 SHORT $L87380

; 454  : 				break;	// whitespace, quit

  00287	eb 3a		 jmp	 SHORT $L87376
$L87380:

; 455  : 			else
; 456  : 				{	// add character to string
; 457  : 				_Str.append(1, _Traits::to_char_type(_Meta));

  00289	8b f4		 mov	 esi, esp
  0028b	8d 4d c8	 lea	 ecx, DWORD PTR __Meta$87373[ebp]
  0028e	51		 push	 ecx
  0028f	ff 15 00 00 00
	00		 call	 DWORD PTR __imp_?to_char_type@?$char_traits@D@std@@SADABH@Z
  00295	83 c4 04	 add	 esp, 4
  00298	3b f4		 cmp	 esi, esp
  0029a	e8 00 00 00 00	 call	 __RTC_CheckEsp
  0029f	88 45 80	 mov	 BYTE PTR tv207[ebp], al
  002a2	8b f4		 mov	 esi, esp
  002a4	8a 55 80	 mov	 dl, BYTE PTR tv207[ebp]
  002a7	52		 push	 edx
  002a8	6a 01		 push	 1
  002aa	8b 4d 0c	 mov	 ecx, DWORD PTR __Str$[ebp]
  002ad	ff 15 00 00 00
	00		 call	 DWORD PTR __imp_?append@?$basic_string@DU?$char_traits@D@std@@V?$allocator@D@2@@std@@QAEAAV12@ID@Z
  002b3	3b f4		 cmp	 esi, esp
  002b5	e8 00 00 00 00	 call	 __RTC_CheckEsp

; 458  : 				_Changed = true;

  002ba	c6 45 eb 01	 mov	 BYTE PTR __Changed$[ebp], 1

; 459  : 				}

  002be	e9 f5 fe ff ff	 jmp	 $L87375
$L87376:
  002c3	eb 26		 jmp	 SHORT $L89480
$L89481:

; 460  : 		_CATCH_IO_(_Istr)

  002c5	8b f4		 mov	 esi, esp
  002c7	6a 01		 push	 1
  002c9	6a 04		 push	 4
  002cb	8b 45 08	 mov	 eax, DWORD PTR __Istr$[ebp]
  002ce	8b 08		 mov	 ecx, DWORD PTR [eax]
  002d0	8b 55 08	 mov	 edx, DWORD PTR __Istr$[ebp]
  002d3	03 51 04	 add	 edx, DWORD PTR [ecx+4]
  002d6	8b ca		 mov	 ecx, edx
  002d8	ff 15 00 00 00
	00		 call	 DWORD PTR __imp_?setstate@?$basic_ios@DU?$char_traits@D@std@@@std@@QAEXH_N@Z
  002de	3b f4		 cmp	 esi, esp
  002e0	e8 00 00 00 00	 call	 __RTC_CheckEsp
  002e5	b8 00 00 00 00	 mov	 eax, $L89480
  002ea	c3		 ret	 0
$L89480:
  002eb	c7 45 fc 00 00
	00 00		 mov	 DWORD PTR __$EHRec$[ebp+12], 0

; 461  : 		}
; 462  : 
; 463  : 	_Istr.width(0);

  002f2	8b f4		 mov	 esi, esp
  002f4	6a 00		 push	 0
  002f6	8b 45 08	 mov	 eax, DWORD PTR __Istr$[ebp]
  002f9	8b 08		 mov	 ecx, DWORD PTR [eax]
  002fb	8b 55 08	 mov	 edx, DWORD PTR __Istr$[ebp]
  002fe	03 51 04	 add	 edx, DWORD PTR [ecx+4]
  00301	8b ca		 mov	 ecx, edx
  00303	ff 15 00 00 00
	00		 call	 DWORD PTR __imp_?width@ios_base@std@@QAEHH@Z
  00309	3b f4		 cmp	 esi, esp
  0030b	e8 00 00 00 00	 call	 __RTC_CheckEsp

; 464  : 	if (!_Changed)

  00310	0f b6 45 eb	 movzx	 eax, BYTE PTR __Changed$[ebp]
  00314	85 c0		 test	 eax, eax
  00316	75 09		 jne	 SHORT $L87382

; 465  : 		_State |= ios_base::failbit;

  00318	8b 4d ec	 mov	 ecx, DWORD PTR __State$[ebp]
  0031b	83 c9 02	 or	 ecx, 2
  0031e	89 4d ec	 mov	 DWORD PTR __State$[ebp], ecx
$L87382:

; 466  : 	_Istr.setstate(_State);

  00321	8b f4		 mov	 esi, esp
  00323	6a 00		 push	 0
  00325	8b 55 ec	 mov	 edx, DWORD PTR __State$[ebp]
  00328	52		 push	 edx
  00329	8b 45 08	 mov	 eax, DWORD PTR __Istr$[ebp]
  0032c	8b 08		 mov	 ecx, DWORD PTR [eax]
  0032e	8b 55 08	 mov	 edx, DWORD PTR __Istr$[ebp]
  00331	03 51 04	 add	 edx, DWORD PTR [ecx+4]
  00334	8b ca		 mov	 ecx, edx
  00336	ff 15 00 00 00
	00		 call	 DWORD PTR __imp_?setstate@?$basic_ios@DU?$char_traits@D@std@@@std@@QAEXH_N@Z
  0033c	3b f4		 cmp	 esi, esp
  0033e	e8 00 00 00 00	 call	 __RTC_CheckEsp

; 467  : 	return (_Istr);

  00343	8b 45 08	 mov	 eax, DWORD PTR __Istr$[ebp]
  00346	89 45 b8	 mov	 DWORD PTR $T89479[ebp], eax
  00349	c7 45 fc ff ff
	ff ff		 mov	 DWORD PTR __$EHRec$[ebp+12], -1
  00350	8d 4d dc	 lea	 ecx, DWORD PTR __Ok$[ebp]
  00353	e8 00 00 00 00	 call	 ??1sentry@?$basic_istream@DU?$char_traits@D@std@@@std@@QAE@XZ
  00358	8b 45 b8	 mov	 eax, DWORD PTR $T89479[ebp]

; 468  : 	}

  0035b	52		 push	 edx
  0035c	8b cd		 mov	 ecx, ebp
  0035e	50		 push	 eax
  0035f	8d 15 00 00 00
	00		 lea	 edx, DWORD PTR $L89490
  00365	e8 00 00 00 00	 call	 @_RTC_CheckStackVars@8
  0036a	58		 pop	 eax
  0036b	5a		 pop	 edx
  0036c	8b 4d f4	 mov	 ecx, DWORD PTR __$EHRec$[ebp+4]
  0036f	64 89 0d 00 00
	00 00		 mov	 DWORD PTR fs:__except_list, ecx
  00376	5f		 pop	 edi
  00377	5e		 pop	 esi
  00378	5b		 pop	 ebx
  00379	81 c4 80 00 00
	00		 add	 esp, 128		; 00000080H
  0037f	3b ec		 cmp	 ebp, esp
  00381	e8 00 00 00 00	 call	 __RTC_CheckEsp
  00386	8b e5		 mov	 esp, ebp
  00388	5d		 pop	 ebp
  00389	c3		 ret	 0
$L89490:
  0038a	02 00 00 00	 DD	 2
  0038e	00 00 00 00	 DD	 $L89489
$L89489:
  00392	dc ff ff ff	 DD	 -36			; ffffffdcH
  00396	08 00 00 00	 DD	 8
  0039a	00 00 00 00	 DD	 $L89486
  0039e	c8 ff ff ff	 DD	 -56			; ffffffc8H
  003a2	04 00 00 00	 DD	 4
  003a6	00 00 00 00	 DD	 $L89487
$L89487:
  003aa	5f		 DB	 95			; 0000005fH
  003ab	4d		 DB	 77			; 0000004dH
  003ac	65		 DB	 101			; 00000065H
  003ad	74		 DB	 116			; 00000074H
  003ae	61		 DB	 97			; 00000061H
  003af	00		 DB	 0
$L89486:
  003b0	5f		 DB	 95			; 0000005fH
  003b1	4f		 DB	 79			; 0000004fH
  003b2	6b		 DB	 107			; 0000006bH
  003b3	00		 DB	 0
_TEXT	ENDS
;	COMDAT text$x
text$x	SEGMENT
$L89482:
  00000	8d 4d dc	 lea	 ecx, DWORD PTR __Ok$[ebp]
  00003	e9 00 00 00 00	 jmp	 ??1sentry@?$basic_istream@DU?$char_traits@D@std@@@std@@QAE@XZ
$L89483:
  00008	8b f4		 mov	 esi, esp
  0000a	8d 4d c0	 lea	 ecx, DWORD PTR $T89475[ebp]
  0000d	ff 15 00 00 00
	00		 call	 DWORD PTR __imp_??1locale@std@@QAE@XZ
  00013	3b f4		 cmp	 esi, esp
  00015	e9 00 00 00 00	 jmp	 __RTC_CheckEsp
__ehhandler$??$?5DU?$char_traits@D@std@@V?$allocator@D@1@@std@@YAAAV?$basic_istream@DU?$char_traits@D@std@@@0@AAV10@AAV?$basic_string@DU?$char_traits@D@std@@V?$allocator@D@2@@0@@Z:
  0001a	b8 00 00 00 00	 mov	 eax, OFFSET FLAT:$T89485
  0001f	e9 00 00 00 00	 jmp	 ___CxxFrameHandler
text$x	ENDS
??$?5DU?$char_traits@D@std@@V?$allocator@D@1@@std@@YAAAV?$basic_istream@DU?$char_traits@D@std@@@0@AAV10@AAV?$basic_string@DU?$char_traits@D@std@@V?$allocator@D@2@@0@@Z ENDP ; std::operator>><char,std::char_traits<char>,std::allocator<char> >
PUBLIC	??1_Sentry_base@?$basic_istream@DU?$char_traits@D@std@@@std@@QAE@XZ ; std::basic_istream<char,std::char_traits<char> >::_Sentry_base::~_Sentry_base
; Function compile flags: /Odt /RTCsu
;	COMDAT ??1sentry@?$basic_istream@DU?$char_traits@D@std@@@std@@QAE@XZ
_TEXT	SEGMENT
_this$ = -4						; size = 4
??1sentry@?$basic_istream@DU?$char_traits@D@std@@@std@@QAE@XZ PROC NEAR ; std::basic_istream<char,std::char_traits<char> >::sentry::~sentry, COMDAT
; _this$ = ecx
  00000	55		 push	 ebp
  00001	8b ec		 mov	 ebp, esp
  00003	51		 push	 ecx
  00004	c7 45 fc cc cc
	cc cc		 mov	 DWORD PTR [ebp-4], -858993460 ; ccccccccH
  0000b	89 4d fc	 mov	 DWORD PTR _this$[ebp], ecx
  0000e	8b 4d fc	 mov	 ecx, DWORD PTR _this$[ebp]
  00011	e8 00 00 00 00	 call	 ??1_Sentry_base@?$basic_istream@DU?$char_traits@D@std@@@std@@QAE@XZ ; std::basic_istream<char,std::char_traits<char> >::_Sentry_base::~_Sentry_base
  00016	83 c4 04	 add	 esp, 4
  00019	3b ec		 cmp	 ebp, esp
  0001b	e8 00 00 00 00	 call	 __RTC_CheckEsp
  00020	8b e5		 mov	 esp, ebp
  00022	5d		 pop	 ebp
  00023	c3		 ret	 0
??1sentry@?$basic_istream@DU?$char_traits@D@std@@@std@@QAE@XZ ENDP ; std::basic_istream<char,std::char_traits<char> >::sentry::~sentry
_TEXT	ENDS
PUBLIC	??0_Sentry_base@?$basic_istream@DU?$char_traits@D@std@@@std@@QAE@AAV12@@Z ; std::basic_istream<char,std::char_traits<char> >::_Sentry_base::_Sentry_base
EXTRN	__imp_?_Ipfx@?$basic_istream@DU?$char_traits@D@std@@@std@@QAE_N_N@Z:NEAR
;	COMDAT xdata$x
; File d:\program files (x86)\microsoft visual studio .net 2003\vc7\include\istream
xdata$x	SEGMENT
$T89503	DD	0ffffffffH
	DD	FLAT:$L89499
$T89501	DD	019930520H
	DD	01H
	DD	FLAT:$T89503
	DD	2 DUP(00H)
	DD	2 DUP(00H)
; Function compile flags: /Odt /RTCsu
xdata$x	ENDS
;	COMDAT ??0sentry@?$basic_istream@DU?$char_traits@D@std@@@std@@QAE@AAV12@_N@Z
_TEXT	SEGMENT
_this$ = -16						; size = 4
__$EHRec$ = -12						; size = 12
__Istr$ = 8						; size = 4
__Noskip$ = 12						; size = 1
??0sentry@?$basic_istream@DU?$char_traits@D@std@@@std@@QAE@AAV12@_N@Z PROC NEAR ; std::basic_istream<char,std::char_traits<char> >::sentry::sentry, COMDAT
; _this$ = ecx

; 72   : 			{	// construct locking and calling _Ipfx

  00000	55		 push	 ebp
  00001	8b ec		 mov	 ebp, esp
  00003	6a ff		 push	 -1
  00005	68 00 00 00 00	 push	 __ehhandler$??0sentry@?$basic_istream@DU?$char_traits@D@std@@@std@@QAE@AAV12@_N@Z
  0000a	64 a1 00 00 00
	00		 mov	 eax, DWORD PTR fs:__except_list
  00010	50		 push	 eax
  00011	64 89 25 00 00
	00 00		 mov	 DWORD PTR fs:__except_list, esp
  00018	51		 push	 ecx
  00019	56		 push	 esi
  0001a	c7 45 f0 cc cc
	cc cc		 mov	 DWORD PTR [ebp-16], -858993460 ; ccccccccH
  00021	89 4d f0	 mov	 DWORD PTR _this$[ebp], ecx
  00024	8b 45 08	 mov	 eax, DWORD PTR __Istr$[ebp]
  00027	50		 push	 eax
  00028	8b 4d f0	 mov	 ecx, DWORD PTR _this$[ebp]
  0002b	e8 00 00 00 00	 call	 ??0_Sentry_base@?$basic_istream@DU?$char_traits@D@std@@@std@@QAE@AAV12@@Z ; std::basic_istream<char,std::char_traits<char> >::_Sentry_base::_Sentry_base
  00030	c7 45 fc 00 00
	00 00		 mov	 DWORD PTR __$EHRec$[ebp+8], 0

; 73   : 			_Ok = this->_Myistr._Ipfx(_Noskip);

  00037	8b f4		 mov	 esi, esp
  00039	8a 4d 0c	 mov	 cl, BYTE PTR __Noskip$[ebp]
  0003c	51		 push	 ecx
  0003d	8b 55 f0	 mov	 edx, DWORD PTR _this$[ebp]
  00040	8b 0a		 mov	 ecx, DWORD PTR [edx]
  00042	ff 15 00 00 00
	00		 call	 DWORD PTR __imp_?_Ipfx@?$basic_istream@DU?$char_traits@D@std@@@std@@QAE_N_N@Z
  00048	3b f4		 cmp	 esi, esp
  0004a	e8 00 00 00 00	 call	 __RTC_CheckEsp
  0004f	8b 4d f0	 mov	 ecx, DWORD PTR _this$[ebp]
  00052	88 41 04	 mov	 BYTE PTR [ecx+4], al

; 74   : 			}

  00055	c7 45 fc ff ff
	ff ff		 mov	 DWORD PTR __$EHRec$[ebp+8], -1
  0005c	8b 45 f0	 mov	 eax, DWORD PTR _this$[ebp]
  0005f	8b 4d f4	 mov	 ecx, DWORD PTR __$EHRec$[ebp]
  00062	64 89 0d 00 00
	00 00		 mov	 DWORD PTR fs:__except_list, ecx
  00069	5e		 pop	 esi
  0006a	83 c4 10	 add	 esp, 16			; 00000010H
  0006d	3b ec		 cmp	 ebp, esp
  0006f	e8 00 00 00 00	 call	 __RTC_CheckEsp
  00074	8b e5		 mov	 esp, ebp
  00076	5d		 pop	 ebp
  00077	c2 08 00	 ret	 8
_TEXT	ENDS
;	COMDAT text$x
text$x	SEGMENT
$L89499:
  00000	8b 4d f0	 mov	 ecx, DWORD PTR _this$[ebp]
  00003	e9 00 00 00 00	 jmp	 ??1_Sentry_base@?$basic_istream@DU?$char_traits@D@std@@@std@@QAE@XZ ; std::basic_istream<char,std::char_traits<char> >::_Sentry_base::~_Sentry_base
__ehhandler$??0sentry@?$basic_istream@DU?$char_traits@D@std@@@std@@QAE@AAV12@_N@Z:
  00008	b8 00 00 00 00	 mov	 eax, OFFSET FLAT:$T89501
  0000d	e9 00 00 00 00	 jmp	 ___CxxFrameHandler
text$x	ENDS
??0sentry@?$basic_istream@DU?$char_traits@D@std@@@std@@QAE@AAV12@_N@Z ENDP ; std::basic_istream<char,std::char_traits<char> >::sentry::sentry
; Function compile flags: /Odt /RTCsu
;	COMDAT ??Bsentry@?$basic_istream@DU?$char_traits@D@std@@@std@@QBE_NXZ
_TEXT	SEGMENT
_this$ = -4						; size = 4
??Bsentry@?$basic_istream@DU?$char_traits@D@std@@@std@@QBE_NXZ PROC NEAR ; std::basic_istream<char,std::char_traits<char> >::sentry::operator bool, COMDAT
; _this$ = ecx

; 77   : 			{	// test if _Ipfx succeeded

  00000	55		 push	 ebp
  00001	8b ec		 mov	 ebp, esp
  00003	51		 push	 ecx
  00004	c7 45 fc cc cc
	cc cc		 mov	 DWORD PTR [ebp-4], -858993460 ; ccccccccH
  0000b	89 4d fc	 mov	 DWORD PTR _this$[ebp], ecx

; 78   : 			return (_Ok);

  0000e	8b 45 fc	 mov	 eax, DWORD PTR _this$[ebp]
  00011	8a 40 04	 mov	 al, BYTE PTR [eax+4]

; 79   : 			}

  00014	8b e5		 mov	 esp, ebp
  00016	5d		 pop	 ebp
  00017	c3		 ret	 0
??Bsentry@?$basic_istream@DU?$char_traits@D@std@@@std@@QBE_NXZ ENDP ; std::basic_istream<char,std::char_traits<char> >::sentry::operator bool
_TEXT	ENDS
EXTRN	__imp_?_Unlock@?$basic_streambuf@DU?$char_traits@D@std@@@std@@QAEXXZ:NEAR
; Function compile flags: /Odt /RTCsu
;	COMDAT ??1_Sentry_base@?$basic_istream@DU?$char_traits@D@std@@@std@@QAE@XZ
_TEXT	SEGMENT
_this$ = -4						; size = 4
??1_Sentry_base@?$basic_istream@DU?$char_traits@D@std@@@std@@QAE@XZ PROC NEAR ; std::basic_istream<char,std::char_traits<char> >::_Sentry_base::~_Sentry_base, COMDAT
; _this$ = ecx

; 58   : 			{	// destroy after unlocking

  00000	55		 push	 ebp
  00001	8b ec		 mov	 ebp, esp
  00003	51		 push	 ecx
  00004	56		 push	 esi
  00005	c7 45 fc cc cc
	cc cc		 mov	 DWORD PTR [ebp-4], -858993460 ; ccccccccH
  0000c	89 4d fc	 mov	 DWORD PTR _this$[ebp], ecx

; 59   : 			if (_Myistr.rdbuf() != 0)

  0000f	8b 45 fc	 mov	 eax, DWORD PTR _this$[ebp]
  00012	8b 08		 mov	 ecx, DWORD PTR [eax]
  00014	8b 11		 mov	 edx, DWORD PTR [ecx]
  00016	8b 45 fc	 mov	 eax, DWORD PTR _this$[ebp]
  00019	8b 08		 mov	 ecx, DWORD PTR [eax]
  0001b	03 4a 04	 add	 ecx, DWORD PTR [edx+4]
  0001e	8b f4		 mov	 esi, esp
  00020	ff 15 00 00 00
	00		 call	 DWORD PTR __imp_?rdbuf@?$basic_ios@DU?$char_traits@D@std@@@std@@QBEPAV?$basic_streambuf@DU?$char_traits@D@std@@@2@XZ
  00026	3b f4		 cmp	 esi, esp
  00028	e8 00 00 00 00	 call	 __RTC_CheckEsp
  0002d	85 c0		 test	 eax, eax
  0002f	74 2f		 je	 SHORT $L85518

; 60   : 				_Myistr.rdbuf()->_Unlock();

  00031	8b 4d fc	 mov	 ecx, DWORD PTR _this$[ebp]
  00034	8b 11		 mov	 edx, DWORD PTR [ecx]
  00036	8b 02		 mov	 eax, DWORD PTR [edx]
  00038	8b 4d fc	 mov	 ecx, DWORD PTR _this$[ebp]
  0003b	8b 09		 mov	 ecx, DWORD PTR [ecx]
  0003d	03 48 04	 add	 ecx, DWORD PTR [eax+4]
  00040	8b f4		 mov	 esi, esp
  00042	ff 15 00 00 00
	00		 call	 DWORD PTR __imp_?rdbuf@?$basic_ios@DU?$char_traits@D@std@@@std@@QBEPAV?$basic_streambuf@DU?$char_traits@D@std@@@2@XZ
  00048	3b f4		 cmp	 esi, esp
  0004a	e8 00 00 00 00	 call	 __RTC_CheckEsp
  0004f	8b f4		 mov	 esi, esp
  00051	8b c8		 mov	 ecx, eax
  00053	ff 15 00 00 00
	00		 call	 DWORD PTR __imp_?_Unlock@?$basic_streambuf@DU?$char_traits@D@std@@@std@@QAEXXZ
  00059	3b f4		 cmp	 esi, esp
  0005b	e8 00 00 00 00	 call	 __RTC_CheckEsp
$L85518:

; 61   : 			}

  00060	5e		 pop	 esi
  00061	83 c4 04	 add	 esp, 4
  00064	3b ec		 cmp	 ebp, esp
  00066	e8 00 00 00 00	 call	 __RTC_CheckEsp
  0006b	8b e5		 mov	 esp, ebp
  0006d	5d		 pop	 ebp
  0006e	c3		 ret	 0
??1_Sentry_base@?$basic_istream@DU?$char_traits@D@std@@@std@@QAE@XZ ENDP ; std::basic_istream<char,std::char_traits<char> >::_Sentry_base::~_Sentry_base
_TEXT	ENDS
EXTRN	__imp_?_Lock@?$basic_streambuf@DU?$char_traits@D@std@@@std@@QAEXXZ:NEAR
; Function compile flags: /Odt /RTCsu
;	COMDAT ??0_Sentry_base@?$basic_istream@DU?$char_traits@D@std@@@std@@QAE@AAV12@@Z
_TEXT	SEGMENT
_this$ = -4						; size = 4
__Istr$ = 8						; size = 4
??0_Sentry_base@?$basic_istream@DU?$char_traits@D@std@@@std@@QAE@AAV12@@Z PROC NEAR ; std::basic_istream<char,std::char_traits<char> >::_Sentry_base::_Sentry_base, COMDAT
; _this$ = ecx

; 52   : 			{	// lock the stream buffer, if there

  00000	55		 push	 ebp
  00001	8b ec		 mov	 ebp, esp
  00003	51		 push	 ecx
  00004	56		 push	 esi
  00005	c7 45 fc cc cc
	cc cc		 mov	 DWORD PTR [ebp-4], -858993460 ; ccccccccH
  0000c	89 4d fc	 mov	 DWORD PTR _this$[ebp], ecx
  0000f	8b 45 fc	 mov	 eax, DWORD PTR _this$[ebp]
  00012	8b 4d 08	 mov	 ecx, DWORD PTR __Istr$[ebp]
  00015	89 08		 mov	 DWORD PTR [eax], ecx

; 53   : 			if (_Myistr.rdbuf() != 0)

  00017	8b 55 fc	 mov	 edx, DWORD PTR _this$[ebp]
  0001a	8b 02		 mov	 eax, DWORD PTR [edx]
  0001c	8b 08		 mov	 ecx, DWORD PTR [eax]
  0001e	8b 55 fc	 mov	 edx, DWORD PTR _this$[ebp]
  00021	8b 02		 mov	 eax, DWORD PTR [edx]
  00023	03 41 04	 add	 eax, DWORD PTR [ecx+4]
  00026	8b f4		 mov	 esi, esp
  00028	8b c8		 mov	 ecx, eax
  0002a	ff 15 00 00 00
	00		 call	 DWORD PTR __imp_?rdbuf@?$basic_ios@DU?$char_traits@D@std@@@std@@QBEPAV?$basic_streambuf@DU?$char_traits@D@std@@@2@XZ
  00030	3b f4		 cmp	 esi, esp
  00032	e8 00 00 00 00	 call	 __RTC_CheckEsp
  00037	85 c0		 test	 eax, eax
  00039	74 2f		 je	 SHORT $L86580

; 54   : 				_Myistr.rdbuf()->_Lock();

  0003b	8b 4d fc	 mov	 ecx, DWORD PTR _this$[ebp]
  0003e	8b 11		 mov	 edx, DWORD PTR [ecx]
  00040	8b 02		 mov	 eax, DWORD PTR [edx]
  00042	8b 4d fc	 mov	 ecx, DWORD PTR _this$[ebp]
  00045	8b 09		 mov	 ecx, DWORD PTR [ecx]
  00047	03 48 04	 add	 ecx, DWORD PTR [eax+4]
  0004a	8b f4		 mov	 esi, esp
  0004c	ff 15 00 00 00
	00		 call	 DWORD PTR __imp_?rdbuf@?$basic_ios@DU?$char_traits@D@std@@@std@@QBEPAV?$basic_streambuf@DU?$char_traits@D@std@@@2@XZ
  00052	3b f4		 cmp	 esi, esp
  00054	e8 00 00 00 00	 call	 __RTC_CheckEsp
  00059	8b f4		 mov	 esi, esp
  0005b	8b c8		 mov	 ecx, eax
  0005d	ff 15 00 00 00
	00		 call	 DWORD PTR __imp_?_Lock@?$basic_streambuf@DU?$char_traits@D@std@@@std@@QAEXXZ
  00063	3b f4		 cmp	 esi, esp
  00065	e8 00 00 00 00	 call	 __RTC_CheckEsp
$L86580:

; 55   : 			}

  0006a	8b 45 fc	 mov	 eax, DWORD PTR _this$[ebp]
  0006d	5e		 pop	 esi
  0006e	83 c4 04	 add	 esp, 4
  00071	3b ec		 cmp	 ebp, esp
  00073	e8 00 00 00 00	 call	 __RTC_CheckEsp
  00078	8b e5		 mov	 esp, ebp
  0007a	5d		 pop	 ebp
  0007b	c2 04 00	 ret	 4
??0_Sentry_base@?$basic_istream@DU?$char_traits@D@std@@@std@@QAE@AAV12@@Z ENDP ; std::basic_istream<char,std::char_traits<char> >::_Sentry_base::_Sentry_base
_TEXT	ENDS
PUBLIC	?_Psave@?$_Facetptr@V?$ctype@D@std@@@std@@2PBVfacet@locale@2@B ; std::_Facetptr<std::ctype<char> >::_Psave
PUBLIC	__TI2?AVbad_cast@@
PUBLIC	__CTA2?AVbad_cast@@
PUBLIC	??_R0?AVbad_cast@@@8				; bad_cast `RTTI Type Descriptor'
PUBLIC	__CT??_R0?AVbad_cast@@@8??0bad_cast@@QAE@ABV0@@Z12
PUBLIC	??_C@_08EPJLHIJG@bad?5cast?$AA@			; `string'
EXTRN	__imp_??Bid@locale@std@@QAEIXZ:NEAR
EXTRN	__imp_??0_Lockit@std@@QAE@H@Z:NEAR
EXTRN	__imp_??1_Lockit@std@@QAE@XZ:NEAR
EXTRN	__imp_?_Incref@facet@locale@std@@QAEXXZ:NEAR
EXTRN	__imp_?_Register@facet@locale@std@@QAEXXZ:NEAR
EXTRN	__imp_??0bad_cast@@QAE@PBD@Z:NEAR
EXTRN	__imp_?_Getfacet@locale@std@@QBEPBVfacet@12@I@Z:NEAR
EXTRN	??0bad_cast@@QAE@ABV0@@Z:NEAR			; bad_cast::bad_cast
EXTRN	??1bad_cast@@UAE@XZ:NEAR			; bad_cast::~bad_cast
EXTRN	__imp_?id@?$ctype@D@std@@2V0locale@2@A:DWORD
EXTRN	__imp_?_Getcat@?$ctype@D@std@@SAIPAPBVfacet@locale@2@@Z:NEAR
;	COMDAT ?_Psave@?$_Facetptr@V?$ctype@D@std@@@std@@2PBVfacet@locale@2@B
; File d:\program files (x86)\microsoft visual studio .net 2003\vc7\include\xlocale
_BSS	SEGMENT
?_Psave@?$_Facetptr@V?$ctype@D@std@@@std@@2PBVfacet@locale@2@B DD 01H DUP (?) ; std::_Facetptr<std::ctype<char> >::_Psave
_BSS	ENDS
;	COMDAT xdata$x
xdata$x	SEGMENT
$T89520	DD	0ffffffffH
	DD	FLAT:$L89512
$T89514	DD	019930520H
	DD	01H
	DD	FLAT:$T89520
	DD	2 DUP(00H)
	DD	2 DUP(00H)
xdata$x	ENDS
;	COMDAT ??_C@_08EPJLHIJG@bad?5cast?$AA@
CONST	SEGMENT
??_C@_08EPJLHIJG@bad?5cast?$AA@ DB 'bad cast', 00H	; `string'
CONST	ENDS
;	COMDAT __TI2?AVbad_cast@@
xdata$x	SEGMENT
__TI2?AVbad_cast@@ DD 00H
	DD	FLAT:??1bad_cast@@UAE@XZ
	DD	00H
	DD	FLAT:__CTA2?AVbad_cast@@
xdata$x	ENDS
;	COMDAT __CTA2?AVbad_cast@@
xdata$x	SEGMENT
__CTA2?AVbad_cast@@ DD 02H
	DD	FLAT:__CT??_R0?AVbad_cast@@@8??0bad_cast@@QAE@ABV0@@Z12
	DD	FLAT:__CT??_R0?AVexception@@@8??0exception@@QAE@ABV0@@Z12
xdata$x	ENDS
;	COMDAT __CT??_R0?AVbad_cast@@@8??0bad_cast@@QAE@ABV0@@Z12
xdata$x	SEGMENT
__CT??_R0?AVbad_cast@@@8??0bad_cast@@QAE@ABV0@@Z12 DD 00H
	DD	FLAT:??_R0?AVbad_cast@@@8
	DD	00H
	DD	0ffffffffH
	ORG $+4
	DD	0cH
	DD	FLAT:??0bad_cast@@QAE@ABV0@@Z
xdata$x	ENDS
;	COMDAT ??_R0?AVbad_cast@@@8
_DATA	SEGMENT
??_R0?AVbad_cast@@@8 DD FLAT:??_7type_info@@6B@		; bad_cast `RTTI Type Descriptor'
	DD	00H
	DB	'.?AVbad_cast@@', 00H
; Function compile flags: /Odt /RTCsu
_DATA	ENDS
;	COMDAT ??$use_facet@V?$ctype@D@std@@@std@@YAABV?$ctype@D@0@ABVlocale@0@@Z
_TEXT	SEGMENT
$T89511 = -64						; size = 4
$T89510 = -60						; size = 12
__Pfmod$87296 = -48					; size = 4
__Pf$ = -44						; size = 4
__Id$ = -40						; size = 4
__Psave$ = -32						; size = 4
__Lock$ = -20						; size = 4
__$EHRec$ = -12						; size = 12
__Loc$ = 8						; size = 4
??$use_facet@V?$ctype@D@std@@@std@@YAABV?$ctype@D@0@ABVlocale@0@@Z PROC NEAR ; std::use_facet<std::ctype<char> >, COMDAT

; 315  : 	{	// get facet reference from locale

  00000	55		 push	 ebp
  00001	8b ec		 mov	 ebp, esp
  00003	6a ff		 push	 -1
  00005	68 00 00 00 00	 push	 __ehhandler$??$use_facet@V?$ctype@D@std@@@std@@YAABV?$ctype@D@0@ABVlocale@0@@Z
  0000a	64 a1 00 00 00
	00		 mov	 eax, DWORD PTR fs:__except_list
  00010	50		 push	 eax
  00011	64 89 25 00 00
	00 00		 mov	 DWORD PTR fs:__except_list, esp
  00018	83 ec 34	 sub	 esp, 52			; 00000034H
  0001b	56		 push	 esi
  0001c	57		 push	 edi
  0001d	8d 7d c0	 lea	 edi, DWORD PTR [ebp-64]
  00020	b9 0d 00 00 00	 mov	 ecx, 13			; 0000000dH
  00025	b8 cc cc cc cc	 mov	 eax, -858993460		; ccccccccH
  0002a	f3 ab		 rep stosd

; 316  : 	_Lockit _Lock(_LOCK_LOCALE);	// the thread lock, make get atomic

  0002c	8b f4		 mov	 esi, esp
  0002e	6a 00		 push	 0
  00030	8d 4d ec	 lea	 ecx, DWORD PTR __Lock$[ebp]
  00033	ff 15 00 00 00
	00		 call	 DWORD PTR __imp_??0_Lockit@std@@QAE@H@Z
  00039	3b f4		 cmp	 esi, esp
  0003b	e8 00 00 00 00	 call	 __RTC_CheckEsp
  00040	c7 45 fc 00 00
	00 00		 mov	 DWORD PTR __$EHRec$[ebp+8], 0

; 317  : 	const locale::facet *_Psave =
; 318  : 		_Facetptr<_Facet>::_Psave;	// static pointer to lazy facet

  00047	a1 00 00 00 00	 mov	 eax, DWORD PTR ?_Psave@?$_Facetptr@V?$ctype@D@std@@@std@@2PBVfacet@locale@2@B ; std::_Facetptr<std::ctype<char> >::_Psave
  0004c	89 45 e0	 mov	 DWORD PTR __Psave$[ebp], eax

; 319  : 
; 320  : 	size_t _Id = _Facet::id;

  0004f	8b f4		 mov	 esi, esp
  00051	8b 0d 00 00 00
	00		 mov	 ecx, DWORD PTR __imp_?id@?$ctype@D@std@@2V0locale@2@A
  00057	ff 15 00 00 00
	00		 call	 DWORD PTR __imp_??Bid@locale@std@@QAEIXZ
  0005d	3b f4		 cmp	 esi, esp
  0005f	e8 00 00 00 00	 call	 __RTC_CheckEsp
  00064	89 45 d8	 mov	 DWORD PTR __Id$[ebp], eax

; 321  : 	const locale::facet *_Pf = _Loc._Getfacet(_Id);

  00067	8b f4		 mov	 esi, esp
  00069	8b 4d d8	 mov	 ecx, DWORD PTR __Id$[ebp]
  0006c	51		 push	 ecx
  0006d	8b 4d 08	 mov	 ecx, DWORD PTR __Loc$[ebp]
  00070	ff 15 00 00 00
	00		 call	 DWORD PTR __imp_?_Getfacet@locale@std@@QBEPBVfacet@12@I@Z
  00076	3b f4		 cmp	 esi, esp
  00078	e8 00 00 00 00	 call	 __RTC_CheckEsp
  0007d	89 45 d4	 mov	 DWORD PTR __Pf$[ebp], eax

; 322  : 
; 323  : 	if (_Pf != 0)

  00080	83 7d d4 00	 cmp	 DWORD PTR __Pf$[ebp], 0
  00084	74 05		 je	 SHORT $L87282

; 324  : 		;	// got facet from locale
; 325  : 	else if (_Psave != 0)

  00086	e9 86 00 00 00	 jmp	 $L87283
$L87282:
  0008b	83 7d e0 00	 cmp	 DWORD PTR __Psave$[ebp], 0
  0008f	74 08		 je	 SHORT $L87284

; 326  : 		_Pf = _Psave;	// lazy facet already allocated

  00091	8b 55 e0	 mov	 edx, DWORD PTR __Psave$[ebp]
  00094	89 55 d4	 mov	 DWORD PTR __Pf$[ebp], edx

; 327  : 	else if (_Facet::_Getcat(&_Psave) == (size_t)(-1))

  00097	eb 78		 jmp	 SHORT $L87283
$L87284:
  00099	8b f4		 mov	 esi, esp
  0009b	8d 45 e0	 lea	 eax, DWORD PTR __Psave$[ebp]
  0009e	50		 push	 eax
  0009f	ff 15 00 00 00
	00		 call	 DWORD PTR __imp_?_Getcat@?$ctype@D@std@@SAIPAPBVfacet@locale@2@@Z
  000a5	83 c4 04	 add	 esp, 4
  000a8	3b f4		 cmp	 esi, esp
  000aa	e8 00 00 00 00	 call	 __RTC_CheckEsp
  000af	83 f8 ff	 cmp	 eax, -1
  000b2	75 25		 jne	 SHORT $L87287

; 328  : 
; 329  :  #if _HAS_EXCEPTIONS
; 330  : 		throw bad_cast();	// lazy disallowed

  000b4	8b f4		 mov	 esi, esp
  000b6	68 00 00 00 00	 push	 OFFSET FLAT:??_C@_08EPJLHIJG@bad?5cast?$AA@
  000bb	8d 4d c4	 lea	 ecx, DWORD PTR $T89510[ebp]
  000be	ff 15 00 00 00
	00		 call	 DWORD PTR __imp_??0bad_cast@@QAE@PBD@Z
  000c4	3b f4		 cmp	 esi, esp
  000c6	e8 00 00 00 00	 call	 __RTC_CheckEsp
  000cb	68 00 00 00 00	 push	 OFFSET FLAT:__TI2?AVbad_cast@@
  000d0	8d 4d c4	 lea	 ecx, DWORD PTR $T89510[ebp]
  000d3	51		 push	 ecx
  000d4	e8 00 00 00 00	 call	 __CxxThrowException@8
$L87287:

; 331  : 
; 332  :  #else /* _HAS_EXCEPTIONS */
; 333  : 		abort();	// lazy disallowed
; 334  :  #endif /* _HAS_EXCEPTIONS */
; 335  : 
; 336  : 	else
; 337  : 		{	// queue up lazy facet for destruction
; 338  : 		_Pf = _Psave;

  000d9	8b 55 e0	 mov	 edx, DWORD PTR __Psave$[ebp]
  000dc	89 55 d4	 mov	 DWORD PTR __Pf$[ebp], edx

; 339  : 		_Facetptr<_Facet>::_Psave = _Psave;

  000df	8b 45 e0	 mov	 eax, DWORD PTR __Psave$[ebp]
  000e2	a3 00 00 00 00	 mov	 DWORD PTR ?_Psave@?$_Facetptr@V?$ctype@D@std@@@std@@2PBVfacet@locale@2@B, eax ; std::_Facetptr<std::ctype<char> >::_Psave

; 340  : 
; 341  : 		locale::facet *_Pfmod = (_Facet *)_Psave;

  000e7	8b 4d e0	 mov	 ecx, DWORD PTR __Psave$[ebp]
  000ea	89 4d d0	 mov	 DWORD PTR __Pfmod$87296[ebp], ecx

; 342  : 		_Pfmod->_Incref();

  000ed	8b f4		 mov	 esi, esp
  000ef	8b 4d d0	 mov	 ecx, DWORD PTR __Pfmod$87296[ebp]
  000f2	ff 15 00 00 00
	00		 call	 DWORD PTR __imp_?_Incref@facet@locale@std@@QAEXXZ
  000f8	3b f4		 cmp	 esi, esp
  000fa	e8 00 00 00 00	 call	 __RTC_CheckEsp

; 343  : 		_Pfmod->_Register();

  000ff	8b f4		 mov	 esi, esp
  00101	8b 4d d0	 mov	 ecx, DWORD PTR __Pfmod$87296[ebp]
  00104	ff 15 00 00 00
	00		 call	 DWORD PTR __imp_?_Register@facet@locale@std@@QAEXXZ
  0010a	3b f4		 cmp	 esi, esp
  0010c	e8 00 00 00 00	 call	 __RTC_CheckEsp
$L87283:

; 344  : 		}
; 345  : 
; 346  : 	return ((const _Facet&)(*_Pf));	// should be dynamic_cast

  00111	8b 55 d4	 mov	 edx, DWORD PTR __Pf$[ebp]
  00114	89 55 c0	 mov	 DWORD PTR $T89511[ebp], edx
  00117	c7 45 fc ff ff
	ff ff		 mov	 DWORD PTR __$EHRec$[ebp+8], -1
  0011e	8b f4		 mov	 esi, esp
  00120	8d 4d ec	 lea	 ecx, DWORD PTR __Lock$[ebp]
  00123	ff 15 00 00 00
	00		 call	 DWORD PTR __imp_??1_Lockit@std@@QAE@XZ
  00129	3b f4		 cmp	 esi, esp
  0012b	e8 00 00 00 00	 call	 __RTC_CheckEsp
  00130	8b 45 c0	 mov	 eax, DWORD PTR $T89511[ebp]
$L89509:

; 347  : 	}

  00133	52		 push	 edx
  00134	8b cd		 mov	 ecx, ebp
  00136	50		 push	 eax
  00137	8d 15 00 00 00
	00		 lea	 edx, DWORD PTR $L89519
  0013d	e8 00 00 00 00	 call	 @_RTC_CheckStackVars@8
  00142	58		 pop	 eax
  00143	5a		 pop	 edx
  00144	8b 4d f4	 mov	 ecx, DWORD PTR __$EHRec$[ebp]
  00147	64 89 0d 00 00
	00 00		 mov	 DWORD PTR fs:__except_list, ecx
  0014e	5f		 pop	 edi
  0014f	5e		 pop	 esi
  00150	83 c4 40	 add	 esp, 64			; 00000040H
  00153	3b ec		 cmp	 ebp, esp
  00155	e8 00 00 00 00	 call	 __RTC_CheckEsp
  0015a	8b e5		 mov	 esp, ebp
  0015c	5d		 pop	 ebp
  0015d	c3		 ret	 0
$L89519:
  0015e	02 00 00 00	 DD	 2
  00162	00 00 00 00	 DD	 $L89518
$L89518:
  00166	ec ff ff ff	 DD	 -20			; ffffffecH
  0016a	04 00 00 00	 DD	 4
  0016e	00 00 00 00	 DD	 $L89515
  00172	e0 ff ff ff	 DD	 -32			; ffffffe0H
  00176	04 00 00 00	 DD	 4
  0017a	00 00 00 00	 DD	 $L89516
$L89516:
  0017e	5f		 DB	 95			; 0000005fH
  0017f	50		 DB	 80			; 00000050H
  00180	73		 DB	 115			; 00000073H
  00181	61		 DB	 97			; 00000061H
  00182	76		 DB	 118			; 00000076H
  00183	65		 DB	 101			; 00000065H
  00184	00		 DB	 0
$L89515:
  00185	5f		 DB	 95			; 0000005fH
  00186	4c		 DB	 76			; 0000004cH
  00187	6f		 DB	 111			; 0000006fH
  00188	63		 DB	 99			; 00000063H
  00189	6b		 DB	 107			; 0000006bH
  0018a	00		 DB	 0
_TEXT	ENDS
;	COMDAT text$x
text$x	SEGMENT
$L89512:
  00000	8b f4		 mov	 esi, esp
  00002	8d 4d ec	 lea	 ecx, DWORD PTR __Lock$[ebp]
  00005	ff 15 00 00 00
	00		 call	 DWORD PTR __imp_??1_Lockit@std@@QAE@XZ
  0000b	3b f4		 cmp	 esi, esp
  0000d	e9 00 00 00 00	 jmp	 __RTC_CheckEsp
__ehhandler$??$use_facet@V?$ctype@D@std@@@std@@YAABV?$ctype@D@0@ABVlocale@0@@Z:
  00012	b8 00 00 00 00	 mov	 eax, OFFSET FLAT:$T89514
  00017	e9 00 00 00 00	 jmp	 ___CxxFrameHandler
text$x	ENDS
??$use_facet@V?$ctype@D@std@@@std@@YAABV?$ctype@D@0@ABVlocale@0@@Z ENDP ; std::use_facet<std::ctype<char> >
PUBLIC	??$getline@DU?$char_traits@D@std@@V?$allocator@D@2@@std@@YAAAV?$basic_istream@DU?$char_traits@D@std@@@0@AAV10@AAV?$basic_string@DU?$char_traits@D@std@@V?$allocator@D@2@@0@@Z ; std::getline<char,std::char_traits<char>,std::allocator<char> >
PUBLIC	??$getline@DU?$char_traits@D@std@@V?$allocator@D@2@@std@@YAAAV?$basic_istream@DU?$char_traits@D@std@@@0@AAV10@AAV?$basic_string@DU?$char_traits@D@std@@V?$allocator@D@2@@0@D@Z ; std::getline<char,std::char_traits<char>,std::allocator<char> >
EXTRN	__imp_?widen@?$basic_ios@DU?$char_traits@D@std@@@std@@QBEDD@Z:NEAR
; Function compile flags: /Odt /RTCsu
; File d:\program files (x86)\microsoft visual studio .net 2003\vc7\include\string
;	COMDAT ??$getline@DU?$char_traits@D@std@@V?$allocator@D@2@@std@@YAAAV?$basic_istream@DU?$char_traits@D@std@@@0@AAV10@AAV?$basic_string@DU?$char_traits@D@std@@V?$allocator@D@2@@0@@Z
_TEXT	SEGMENT
__Istr$ = 8						; size = 4
__Str$ = 12						; size = 4
??$getline@DU?$char_traits@D@std@@V?$allocator@D@2@@std@@YAAAV?$basic_istream@DU?$char_traits@D@std@@@0@AAV10@AAV?$basic_string@DU?$char_traits@D@std@@V?$allocator@D@2@@0@@Z PROC NEAR ; std::getline<char,std::char_traits<char>,std::allocator<char> >, COMDAT

; 528  : 	{	// get characters into string, discard newline

  00000	55		 push	 ebp
  00001	8b ec		 mov	 ebp, esp
  00003	56		 push	 esi

; 529  : 	return (getline(_Istr, _Str, _Istr.widen('\n')));

  00004	8b f4		 mov	 esi, esp
  00006	6a 0a		 push	 10			; 0000000aH
  00008	8b 45 08	 mov	 eax, DWORD PTR __Istr$[ebp]
  0000b	8b 08		 mov	 ecx, DWORD PTR [eax]
  0000d	8b 55 08	 mov	 edx, DWORD PTR __Istr$[ebp]
  00010	03 51 04	 add	 edx, DWORD PTR [ecx+4]
  00013	8b ca		 mov	 ecx, edx
  00015	ff 15 00 00 00
	00		 call	 DWORD PTR __imp_?widen@?$basic_ios@DU?$char_traits@D@std@@@std@@QBEDD@Z
  0001b	3b f4		 cmp	 esi, esp
  0001d	e8 00 00 00 00	 call	 __RTC_CheckEsp
  00022	50		 push	 eax
  00023	8b 45 0c	 mov	 eax, DWORD PTR __Str$[ebp]
  00026	50		 push	 eax
  00027	8b 4d 08	 mov	 ecx, DWORD PTR __Istr$[ebp]
  0002a	51		 push	 ecx
  0002b	e8 00 00 00 00	 call	 ??$getline@DU?$char_traits@D@std@@V?$allocator@D@2@@std@@YAAAV?$basic_istream@DU?$char_traits@D@std@@@0@AAV10@AAV?$basic_string@DU?$char_traits@D@std@@V?$allocator@D@2@@0@D@Z ; std::getline<char,std::char_traits<char>,std::allocator<char> >
  00030	83 c4 0c	 add	 esp, 12			; 0000000cH

; 530  : 	}

  00033	5e		 pop	 esi
  00034	3b ec		 cmp	 ebp, esp
  00036	e8 00 00 00 00	 call	 __RTC_CheckEsp
  0003b	5d		 pop	 ebp
  0003c	c3		 ret	 0
??$getline@DU?$char_traits@D@std@@V?$allocator@D@2@@std@@YAAAV?$basic_istream@DU?$char_traits@D@std@@@0@AAV10@AAV?$basic_string@DU?$char_traits@D@std@@V?$allocator@D@2@@0@@Z ENDP ; std::getline<char,std::char_traits<char>,std::allocator<char> >
_TEXT	ENDS
EXTRN	__imp_?sbumpc@?$basic_streambuf@DU?$char_traits@D@std@@@std@@QAEHXZ:NEAR
EXTRN	__imp_?size@?$basic_string@DU?$char_traits@D@std@@V?$allocator@D@2@@std@@QBEIXZ:NEAR
EXTRN	__imp_?to_int_type@?$char_traits@D@std@@SAHABD@Z:NEAR
;	COMDAT xdata$x
xdata$x	SEGMENT
$T89539	DD	0ffffffffH
	DD	FLAT:$L89530
	DD	00H
	DD	00H
	DD	00H
	DD	00H
$T89541	DD	00H
	DD	00H
	DD	00H
	DD	FLAT:$L89529
$T89540	DD	01H
	DD	01H
	DD	02H
	DD	01H
	DD	FLAT:$T89541
$T89532	DD	019930520H
	DD	03H
	DD	FLAT:$T89539
	DD	01H
	DD	FLAT:$T89540
	DD	2 DUP(00H)
; Function compile flags: /Odt /RTCsu
xdata$x	ENDS
;	COMDAT ??$getline@DU?$char_traits@D@std@@V?$allocator@D@2@@std@@YAAAV?$basic_istream@DU?$char_traits@D@std@@@0@AAV10@AAV?$basic_string@DU?$char_traits@D@std@@V?$allocator@D@2@@0@D@Z
_TEXT	SEGMENT
tv175 = -113						; size = 1
tv174 = -112						; size = 4
tv173 = -108						; size = 4
tv172 = -104						; size = 4
tv171 = -98						; size = 1
tv170 = -97						; size = 1
tv169 = -96						; size = 4
tv168 = -92						; size = 4
tv167 = -88						; size = 4
tv166 = -84						; size = 4
tv165 = -80						; size = 4
tv65 = -76						; size = 4
$T89527 = -72						; size = 4
$T89526 = -68						; size = 4
__Meta$87393 = -60					; size = 4
__Metadelim$87392 = -48					; size = 4
__Ok$ = -36						; size = 8
__Changed$ = -21					; size = 1
__State$ = -20						; size = 4
__$EHRec$ = -16						; size = 16
__Istr$ = 8						; size = 4
__Str$ = 12						; size = 4
__Delim$ = 16						; size = 1
??$getline@DU?$char_traits@D@std@@V?$allocator@D@2@@std@@YAAAV?$basic_istream@DU?$char_traits@D@std@@@0@AAV10@AAV?$basic_string@DU?$char_traits@D@std@@V?$allocator@D@2@@0@D@Z PROC NEAR ; std::getline<char,std::char_traits<char>,std::allocator<char> >, COMDAT

; 477  : 	{	// get characters into string, discard delimiter

  00000	55		 push	 ebp
  00001	8b ec		 mov	 ebp, esp
  00003	6a ff		 push	 -1
  00005	68 00 00 00 00	 push	 __ehhandler$??$getline@DU?$char_traits@D@std@@V?$allocator@D@2@@std@@YAAAV?$basic_istream@DU?$char_traits@D@std@@@0@AAV10@AAV?$basic_string@DU?$char_traits@D@std@@V?$allocator@D@2@@0@D@Z
  0000a	64 a1 00 00 00
	00		 mov	 eax, DWORD PTR fs:__except_list
  00010	50		 push	 eax
  00011	64 89 25 00 00
	00 00		 mov	 DWORD PTR fs:__except_list, esp
  00018	51		 push	 ecx
  00019	83 ec 64	 sub	 esp, 100		; 00000064H
  0001c	53		 push	 ebx
  0001d	56		 push	 esi
  0001e	57		 push	 edi
  0001f	8d 7d 8c	 lea	 edi, DWORD PTR [ebp-116]
  00022	b9 19 00 00 00	 mov	 ecx, 25			; 00000019H
  00027	b8 cc cc cc cc	 mov	 eax, -858993460		; ccccccccH
  0002c	f3 ab		 rep stosd
  0002e	89 65 f0	 mov	 DWORD PTR __$EHRec$[ebp], esp

; 478  : 	typedef basic_istream<_Elem, _Traits> _Myis;
; 479  : 	ios_base::iostate _State = ios_base::goodbit;

  00031	c7 45 ec 00 00
	00 00		 mov	 DWORD PTR __State$[ebp], 0

; 480  : 	bool _Changed = false;

  00038	c6 45 eb 00	 mov	 BYTE PTR __Changed$[ebp], 0

; 481  : 	const typename _Myis::sentry _Ok(_Istr, true);

  0003c	6a 01		 push	 1
  0003e	8b 45 08	 mov	 eax, DWORD PTR __Istr$[ebp]
  00041	50		 push	 eax
  00042	8d 4d dc	 lea	 ecx, DWORD PTR __Ok$[ebp]
  00045	e8 00 00 00 00	 call	 ??0sentry@?$basic_istream@DU?$char_traits@D@std@@@std@@QAE@AAV12@_N@Z ; std::basic_istream<char,std::char_traits<char> >::sentry::sentry
  0004a	c7 45 fc 00 00
	00 00		 mov	 DWORD PTR __$EHRec$[ebp+12], 0

; 482  : 
; 483  : 	if (_Ok)

  00051	8d 4d dc	 lea	 ecx, DWORD PTR __Ok$[ebp]
  00054	e8 00 00 00 00	 call	 ??Bsentry@?$basic_istream@DU?$char_traits@D@std@@@std@@QBE_NXZ ; std::basic_istream<char,std::char_traits<char> >::sentry::operator bool
  00059	0f b6 c8	 movzx	 ecx, al
  0005c	85 c9		 test	 ecx, ecx
  0005e	0f 84 f6 01 00
	00		 je	 $L89528

; 484  : 		{	// state okay, extract characters
; 485  : 		_TRY_IO_BEGIN

  00064	c6 45 fc 01	 mov	 BYTE PTR __$EHRec$[ebp+12], 1

; 486  : 		_Str.erase();

  00068	8b f4		 mov	 esi, esp
  0006a	8b 15 00 00 00
	00		 mov	 edx, DWORD PTR __imp_?npos@?$basic_string@DU?$char_traits@D@std@@V?$allocator@D@2@@std@@2IB
  00070	8b 02		 mov	 eax, DWORD PTR [edx]
  00072	50		 push	 eax
  00073	6a 00		 push	 0
  00075	8b 4d 0c	 mov	 ecx, DWORD PTR __Str$[ebp]
  00078	ff 15 00 00 00
	00		 call	 DWORD PTR __imp_?erase@?$basic_string@DU?$char_traits@D@std@@V?$allocator@D@2@@std@@QAEAAV12@II@Z
  0007e	3b f4		 cmp	 esi, esp
  00080	e8 00 00 00 00	 call	 __RTC_CheckEsp

; 487  : 		const typename _Traits::int_type _Metadelim =
; 488  : 			_Traits::to_int_type(_Delim);

  00085	8b f4		 mov	 esi, esp
  00087	8d 4d 10	 lea	 ecx, DWORD PTR __Delim$[ebp]
  0008a	51		 push	 ecx
  0008b	ff 15 00 00 00
	00		 call	 DWORD PTR __imp_?to_int_type@?$char_traits@D@std@@SAHABD@Z
  00091	83 c4 04	 add	 esp, 4
  00094	3b f4		 cmp	 esi, esp
  00096	e8 00 00 00 00	 call	 __RTC_CheckEsp
  0009b	89 45 b4	 mov	 DWORD PTR tv65[ebp], eax
  0009e	8b 55 b4	 mov	 edx, DWORD PTR tv65[ebp]
  000a1	89 55 d0	 mov	 DWORD PTR __Metadelim$87392[ebp], edx

; 489  : 		typename _Traits::int_type _Meta = _Istr.rdbuf()->sgetc();

  000a4	8b 45 08	 mov	 eax, DWORD PTR __Istr$[ebp]
  000a7	8b 08		 mov	 ecx, DWORD PTR [eax]
  000a9	8b 55 08	 mov	 edx, DWORD PTR __Istr$[ebp]
  000ac	03 51 04	 add	 edx, DWORD PTR [ecx+4]
  000af	8b f4		 mov	 esi, esp
  000b1	8b ca		 mov	 ecx, edx
  000b3	ff 15 00 00 00
	00		 call	 DWORD PTR __imp_?rdbuf@?$basic_ios@DU?$char_traits@D@std@@@std@@QBEPAV?$basic_streambuf@DU?$char_traits@D@std@@@2@XZ
  000b9	3b f4		 cmp	 esi, esp
  000bb	e8 00 00 00 00	 call	 __RTC_CheckEsp
  000c0	89 45 b0	 mov	 DWORD PTR tv165[ebp], eax
  000c3	8b f4		 mov	 esi, esp
  000c5	8b 4d b0	 mov	 ecx, DWORD PTR tv165[ebp]
  000c8	ff 15 00 00 00
	00		 call	 DWORD PTR __imp_?sgetc@?$basic_streambuf@DU?$char_traits@D@std@@@std@@QAEHXZ
  000ce	3b f4		 cmp	 esi, esp
  000d0	e8 00 00 00 00	 call	 __RTC_CheckEsp
  000d5	89 45 ac	 mov	 DWORD PTR tv166[ebp], eax
  000d8	8b 45 ac	 mov	 eax, DWORD PTR tv166[ebp]
  000db	89 45 c4	 mov	 DWORD PTR __Meta$87393[ebp], eax

; 490  : 
; 491  : 		for (; ; _Meta = _Istr.rdbuf()->snextc())

  000de	eb 38		 jmp	 SHORT $L87394
$L87395:
  000e0	8b 4d 08	 mov	 ecx, DWORD PTR __Istr$[ebp]
  000e3	8b 11		 mov	 edx, DWORD PTR [ecx]
  000e5	8b 4d 08	 mov	 ecx, DWORD PTR __Istr$[ebp]
  000e8	03 4a 04	 add	 ecx, DWORD PTR [edx+4]
  000eb	8b f4		 mov	 esi, esp
  000ed	ff 15 00 00 00
	00		 call	 DWORD PTR __imp_?rdbuf@?$basic_ios@DU?$char_traits@D@std@@@std@@QBEPAV?$basic_streambuf@DU?$char_traits@D@std@@@2@XZ
  000f3	3b f4		 cmp	 esi, esp
  000f5	e8 00 00 00 00	 call	 __RTC_CheckEsp
  000fa	89 45 a8	 mov	 DWORD PTR tv167[ebp], eax
  000fd	8b f4		 mov	 esi, esp
  000ff	8b 4d a8	 mov	 ecx, DWORD PTR tv167[ebp]
  00102	ff 15 00 00 00
	00		 call	 DWORD PTR __imp_?snextc@?$basic_streambuf@DU?$char_traits@D@std@@@std@@QAEHXZ
  00108	3b f4		 cmp	 esi, esp
  0010a	e8 00 00 00 00	 call	 __RTC_CheckEsp
  0010f	89 45 a4	 mov	 DWORD PTR tv168[ebp], eax
  00112	8b 45 a4	 mov	 eax, DWORD PTR tv168[ebp]
  00115	89 45 c4	 mov	 DWORD PTR __Meta$87393[ebp], eax
$L87394:

; 492  : 			if (_Traits::eq_int_type(_Traits::eof(), _Meta))

  00118	8b f4		 mov	 esi, esp
  0011a	ff 15 00 00 00
	00		 call	 DWORD PTR __imp_?eof@?$char_traits@D@std@@SAHXZ
  00120	3b f4		 cmp	 esi, esp
  00122	e8 00 00 00 00	 call	 __RTC_CheckEsp
  00127	89 45 a0	 mov	 DWORD PTR tv169[ebp], eax
  0012a	8b 4d a0	 mov	 ecx, DWORD PTR tv169[ebp]
  0012d	89 4d bc	 mov	 DWORD PTR $T89526[ebp], ecx
  00130	8b f4		 mov	 esi, esp
  00132	8d 55 c4	 lea	 edx, DWORD PTR __Meta$87393[ebp]
  00135	52		 push	 edx
  00136	8d 45 bc	 lea	 eax, DWORD PTR $T89526[ebp]
  00139	50		 push	 eax
  0013a	ff 15 00 00 00
	00		 call	 DWORD PTR __imp_?eq_int_type@?$char_traits@D@std@@SA_NABH0@Z
  00140	83 c4 08	 add	 esp, 8
  00143	3b f4		 cmp	 esi, esp
  00145	e8 00 00 00 00	 call	 __RTC_CheckEsp
  0014a	88 45 9f	 mov	 BYTE PTR tv170[ebp], al
  0014d	0f b6 4d 9f	 movzx	 ecx, BYTE PTR tv170[ebp]
  00151	85 c9		 test	 ecx, ecx
  00153	74 0e		 je	 SHORT $L87398

; 493  : 				{	// end of file, quit
; 494  : 				_State |= ios_base::eofbit;

  00155	8b 55 ec	 mov	 edx, DWORD PTR __State$[ebp]
  00158	83 ca 01	 or	 edx, 1
  0015b	89 55 ec	 mov	 DWORD PTR __State$[ebp], edx

; 495  : 				break;

  0015e	e9 d1 00 00 00	 jmp	 $L87396
$L87398:

; 496  : 				}
; 497  : 			else if (_Traits::eq_int_type(_Meta, _Metadelim))

  00163	8b f4		 mov	 esi, esp
  00165	8d 45 d0	 lea	 eax, DWORD PTR __Metadelim$87392[ebp]
  00168	50		 push	 eax
  00169	8d 4d c4	 lea	 ecx, DWORD PTR __Meta$87393[ebp]
  0016c	51		 push	 ecx
  0016d	ff 15 00 00 00
	00		 call	 DWORD PTR __imp_?eq_int_type@?$char_traits@D@std@@SA_NABH0@Z
  00173	83 c4 08	 add	 esp, 8
  00176	3b f4		 cmp	 esi, esp
  00178	e8 00 00 00 00	 call	 __RTC_CheckEsp
  0017d	88 45 9e	 mov	 BYTE PTR tv171[ebp], al
  00180	0f b6 55 9e	 movzx	 edx, BYTE PTR tv171[ebp]
  00184	85 d2		 test	 edx, edx
  00186	74 37		 je	 SHORT $L87400

; 498  : 				{	// got a delimiter, discard it and quit
; 499  : 				_Changed = true;

  00188	c6 45 eb 01	 mov	 BYTE PTR __Changed$[ebp], 1

; 500  : 				_Istr.rdbuf()->sbumpc();

  0018c	8b 45 08	 mov	 eax, DWORD PTR __Istr$[ebp]
  0018f	8b 08		 mov	 ecx, DWORD PTR [eax]
  00191	8b 55 08	 mov	 edx, DWORD PTR __Istr$[ebp]
  00194	03 51 04	 add	 edx, DWORD PTR [ecx+4]
  00197	8b f4		 mov	 esi, esp
  00199	8b ca		 mov	 ecx, edx
  0019b	ff 15 00 00 00
	00		 call	 DWORD PTR __imp_?rdbuf@?$basic_ios@DU?$char_traits@D@std@@@std@@QBEPAV?$basic_streambuf@DU?$char_traits@D@std@@@2@XZ
  001a1	3b f4		 cmp	 esi, esp
  001a3	e8 00 00 00 00	 call	 __RTC_CheckEsp
  001a8	89 45 98	 mov	 DWORD PTR tv172[ebp], eax
  001ab	8b f4		 mov	 esi, esp
  001ad	8b 4d 98	 mov	 ecx, DWORD PTR tv172[ebp]
  001b0	ff 15 00 00 00
	00		 call	 DWORD PTR __imp_?sbumpc@?$basic_streambuf@DU?$char_traits@D@std@@@std@@QAEHXZ
  001b6	3b f4		 cmp	 esi, esp
  001b8	e8 00 00 00 00	 call	 __RTC_CheckEsp

; 501  : 				break;

  001bd	eb 75		 jmp	 SHORT $L87396
$L87400:

; 502  : 				}
; 503  : 			else if (_Str.max_size() <= _Str.size())

  001bf	8b f4		 mov	 esi, esp
  001c1	8b 4d 0c	 mov	 ecx, DWORD PTR __Str$[ebp]
  001c4	ff 15 00 00 00
	00		 call	 DWORD PTR __imp_?max_size@?$basic_string@DU?$char_traits@D@std@@V?$allocator@D@2@@std@@QBEIXZ
  001ca	3b f4		 cmp	 esi, esp
  001cc	e8 00 00 00 00	 call	 __RTC_CheckEsp
  001d1	89 45 94	 mov	 DWORD PTR tv173[ebp], eax
  001d4	8b f4		 mov	 esi, esp
  001d6	8b 4d 0c	 mov	 ecx, DWORD PTR __Str$[ebp]
  001d9	ff 15 00 00 00
	00		 call	 DWORD PTR __imp_?size@?$basic_string@DU?$char_traits@D@std@@V?$allocator@D@2@@std@@QBEIXZ
  001df	3b f4		 cmp	 esi, esp
  001e1	e8 00 00 00 00	 call	 __RTC_CheckEsp
  001e6	89 45 90	 mov	 DWORD PTR tv174[ebp], eax
  001e9	8b 45 94	 mov	 eax, DWORD PTR tv173[ebp]
  001ec	3b 45 90	 cmp	 eax, DWORD PTR tv174[ebp]
  001ef	77 0b		 ja	 SHORT $L87402

; 504  : 				{	// string too large, quit
; 505  : 				_State |= ios_base::failbit;

  001f1	8b 4d ec	 mov	 ecx, DWORD PTR __State$[ebp]
  001f4	83 c9 02	 or	 ecx, 2
  001f7	89 4d ec	 mov	 DWORD PTR __State$[ebp], ecx

; 506  : 				break;

  001fa	eb 38		 jmp	 SHORT $L87396
$L87402:

; 507  : 				}
; 508  : 			else
; 509  : 				{	// got a character, add it to string
; 510  : 				_Str += _Traits::to_char_type(_Meta);

  001fc	8b f4		 mov	 esi, esp
  001fe	8d 55 c4	 lea	 edx, DWORD PTR __Meta$87393[ebp]
  00201	52		 push	 edx
  00202	ff 15 00 00 00
	00		 call	 DWORD PTR __imp_?to_char_type@?$char_traits@D@std@@SADABH@Z
  00208	83 c4 04	 add	 esp, 4
  0020b	3b f4		 cmp	 esi, esp
  0020d	e8 00 00 00 00	 call	 __RTC_CheckEsp
  00212	88 45 8f	 mov	 BYTE PTR tv175[ebp], al
  00215	8b f4		 mov	 esi, esp
  00217	8a 45 8f	 mov	 al, BYTE PTR tv175[ebp]
  0021a	50		 push	 eax
  0021b	8b 4d 0c	 mov	 ecx, DWORD PTR __Str$[ebp]
  0021e	ff 15 00 00 00
	00		 call	 DWORD PTR __imp_??Y?$basic_string@DU?$char_traits@D@std@@V?$allocator@D@2@@std@@QAEAAV01@D@Z
  00224	3b f4		 cmp	 esi, esp
  00226	e8 00 00 00 00	 call	 __RTC_CheckEsp

; 511  : 				_Changed = true;

  0022b	c6 45 eb 01	 mov	 BYTE PTR __Changed$[ebp], 1

; 512  : 				}

  0022f	e9 ac fe ff ff	 jmp	 $L87395
$L87396:
  00234	eb 24		 jmp	 SHORT $L89528
$L89529:

; 513  : 		_CATCH_IO_(_Istr)

  00236	8b f4		 mov	 esi, esp
  00238	6a 01		 push	 1
  0023a	6a 04		 push	 4
  0023c	8b 4d 08	 mov	 ecx, DWORD PTR __Istr$[ebp]
  0023f	8b 11		 mov	 edx, DWORD PTR [ecx]
  00241	8b 4d 08	 mov	 ecx, DWORD PTR __Istr$[ebp]
  00244	03 4a 04	 add	 ecx, DWORD PTR [edx+4]
  00247	ff 15 00 00 00
	00		 call	 DWORD PTR __imp_?setstate@?$basic_ios@DU?$char_traits@D@std@@@std@@QAEXH_N@Z
  0024d	3b f4		 cmp	 esi, esp
  0024f	e8 00 00 00 00	 call	 __RTC_CheckEsp
  00254	b8 00 00 00 00	 mov	 eax, $L89528
  00259	c3		 ret	 0
$L89528:
  0025a	c7 45 fc 00 00
	00 00		 mov	 DWORD PTR __$EHRec$[ebp+12], 0

; 514  : 		}
; 515  : 
; 516  : 	if (!_Changed)

  00261	0f b6 45 eb	 movzx	 eax, BYTE PTR __Changed$[ebp]
  00265	85 c0		 test	 eax, eax
  00267	75 09		 jne	 SHORT $L87404

; 517  : 		_State |= ios_base::failbit;

  00269	8b 4d ec	 mov	 ecx, DWORD PTR __State$[ebp]
  0026c	83 c9 02	 or	 ecx, 2
  0026f	89 4d ec	 mov	 DWORD PTR __State$[ebp], ecx
$L87404:

; 518  : 	_Istr.setstate(_State);

  00272	8b f4		 mov	 esi, esp
  00274	6a 00		 push	 0
  00276	8b 55 ec	 mov	 edx, DWORD PTR __State$[ebp]
  00279	52		 push	 edx
  0027a	8b 45 08	 mov	 eax, DWORD PTR __Istr$[ebp]
  0027d	8b 08		 mov	 ecx, DWORD PTR [eax]
  0027f	8b 55 08	 mov	 edx, DWORD PTR __Istr$[ebp]
  00282	03 51 04	 add	 edx, DWORD PTR [ecx+4]
  00285	8b ca		 mov	 ecx, edx
  00287	ff 15 00 00 00
	00		 call	 DWORD PTR __imp_?setstate@?$basic_ios@DU?$char_traits@D@std@@@std@@QAEXH_N@Z
  0028d	3b f4		 cmp	 esi, esp
  0028f	e8 00 00 00 00	 call	 __RTC_CheckEsp

; 519  : 	return (_Istr);

  00294	8b 45 08	 mov	 eax, DWORD PTR __Istr$[ebp]
  00297	89 45 b8	 mov	 DWORD PTR $T89527[ebp], eax
  0029a	c7 45 fc ff ff
	ff ff		 mov	 DWORD PTR __$EHRec$[ebp+12], -1
  002a1	8d 4d dc	 lea	 ecx, DWORD PTR __Ok$[ebp]
  002a4	e8 00 00 00 00	 call	 ??1sentry@?$basic_istream@DU?$char_traits@D@std@@@std@@QAE@XZ
  002a9	8b 45 b8	 mov	 eax, DWORD PTR $T89527[ebp]

; 520  : 	}

  002ac	52		 push	 edx
  002ad	8b cd		 mov	 ecx, ebp
  002af	50		 push	 eax
  002b0	8d 15 00 00 00
	00		 lea	 edx, DWORD PTR $L89538
  002b6	e8 00 00 00 00	 call	 @_RTC_CheckStackVars@8
  002bb	58		 pop	 eax
  002bc	5a		 pop	 edx
  002bd	8b 4d f4	 mov	 ecx, DWORD PTR __$EHRec$[ebp+4]
  002c0	64 89 0d 00 00
	00 00		 mov	 DWORD PTR fs:__except_list, ecx
  002c7	5f		 pop	 edi
  002c8	5e		 pop	 esi
  002c9	5b		 pop	 ebx
  002ca	83 c4 74	 add	 esp, 116		; 00000074H
  002cd	3b ec		 cmp	 ebp, esp
  002cf	e8 00 00 00 00	 call	 __RTC_CheckEsp
  002d4	8b e5		 mov	 esp, ebp
  002d6	5d		 pop	 ebp
  002d7	c3		 ret	 0
$L89538:
  002d8	03 00 00 00	 DD	 3
  002dc	00 00 00 00	 DD	 $L89537
$L89537:
  002e0	dc ff ff ff	 DD	 -36			; ffffffdcH
  002e4	08 00 00 00	 DD	 8
  002e8	00 00 00 00	 DD	 $L89533
  002ec	d0 ff ff ff	 DD	 -48			; ffffffd0H
  002f0	04 00 00 00	 DD	 4
  002f4	00 00 00 00	 DD	 $L89534
  002f8	c4 ff ff ff	 DD	 -60			; ffffffc4H
  002fc	04 00 00 00	 DD	 4
  00300	00 00 00 00	 DD	 $L89535
$L89535:
  00304	5f		 DB	 95			; 0000005fH
  00305	4d		 DB	 77			; 0000004dH
  00306	65		 DB	 101			; 00000065H
  00307	74		 DB	 116			; 00000074H
  00308	61		 DB	 97			; 00000061H
  00309	00		 DB	 0
$L89534:
  0030a	5f		 DB	 95			; 0000005fH
  0030b	4d		 DB	 77			; 0000004dH
  0030c	65		 DB	 101			; 00000065H
  0030d	74		 DB	 116			; 00000074H
  0030e	61		 DB	 97			; 00000061H
  0030f	64		 DB	 100			; 00000064H
  00310	65		 DB	 101			; 00000065H
  00311	6c		 DB	 108			; 0000006cH
  00312	69		 DB	 105			; 00000069H
  00313	6d		 DB	 109			; 0000006dH
  00314	00		 DB	 0
$L89533:
  00315	5f		 DB	 95			; 0000005fH
  00316	4f		 DB	 79			; 0000004fH
  00317	6b		 DB	 107			; 0000006bH
  00318	00		 DB	 0
_TEXT	ENDS
;	COMDAT text$x
text$x	SEGMENT
$L89530:
  00000	8d 4d dc	 lea	 ecx, DWORD PTR __Ok$[ebp]
  00003	e9 00 00 00 00	 jmp	 ??1sentry@?$basic_istream@DU?$char_traits@D@std@@@std@@QAE@XZ
__ehhandler$??$getline@DU?$char_traits@D@std@@V?$allocator@D@2@@std@@YAAAV?$basic_istream@DU?$char_traits@D@std@@@0@AAV10@AAV?$basic_string@DU?$char_traits@D@std@@V?$allocator@D@2@@0@D@Z:
  00008	b8 00 00 00 00	 mov	 eax, OFFSET FLAT:$T89532
  0000d	e9 00 00 00 00	 jmp	 ___CxxFrameHandler
text$x	ENDS
??$getline@DU?$char_traits@D@std@@V?$allocator@D@2@@std@@YAAAV?$basic_istream@DU?$char_traits@D@std@@@0@AAV10@AAV?$basic_string@DU?$char_traits@D@std@@V?$allocator@D@2@@0@D@Z ENDP ; std::getline<char,std::char_traits<char>,std::allocator<char> >
PUBLIC	??0sentry@?$basic_ostream@DU?$char_traits@D@std@@@std@@QAE@AAV12@@Z ; std::basic_ostream<char,std::char_traits<char> >::sentry::sentry
PUBLIC	??1sentry@?$basic_ostream@DU?$char_traits@D@std@@@std@@QAE@XZ ; std::basic_ostream<char,std::char_traits<char> >::sentry::~sentry
PUBLIC	??Bsentry@?$basic_ostream@DU?$char_traits@D@std@@@std@@QBE_NXZ ; std::basic_ostream<char,std::char_traits<char> >::sentry::operator bool
PUBLIC	??$?6DU?$char_traits@D@std@@V?$allocator@D@1@@std@@YAAAV?$basic_ostream@DU?$char_traits@D@std@@@0@AAV10@ABV?$basic_string@DU?$char_traits@D@std@@V?$allocator@D@2@@0@@Z ; std::operator<<<char,std::char_traits<char>,std::allocator<char> >
EXTRN	__imp_?sputc@?$basic_streambuf@DU?$char_traits@D@std@@@std@@QAEHD@Z:NEAR
EXTRN	__imp_?fill@?$basic_ios@DU?$char_traits@D@std@@@std@@QBEDXZ:NEAR
EXTRN	__imp_?flags@ios_base@std@@QBEHXZ:NEAR
;	COMDAT xdata$x
xdata$x	SEGMENT
$T89563	DD	0ffffffffH
	DD	FLAT:$L89556
	DD	00H
	DD	00H
	DD	00H
	DD	00H
$T89565	DD	00H
	DD	00H
	DD	00H
	DD	FLAT:$L89555
$T89564	DD	01H
	DD	01H
	DD	02H
	DD	01H
	DD	FLAT:$T89565
$T89558	DD	019930520H
	DD	03H
	DD	FLAT:$T89563
	DD	01H
	DD	FLAT:$T89564
	DD	2 DUP(00H)
; Function compile flags: /Odt /RTCsu
xdata$x	ENDS
;	COMDAT ??$?6DU?$char_traits@D@std@@V?$allocator@D@1@@std@@YAAAV?$basic_ostream@DU?$char_traits@D@std@@@0@AAV10@ABV?$basic_string@DU?$char_traits@D@std@@V?$allocator@D@2@@0@@Z
_TEXT	SEGMENT
tv221 = -137						; size = 1
tv220 = -136						; size = 4
tv219 = -132						; size = 4
tv218 = -128						; size = 4
tv217 = -122						; size = 1
tv216 = -121						; size = 1
tv215 = -120						; size = 4
tv214 = -116						; size = 4
tv213 = -112						; size = 4
tv212 = -108						; size = 4
tv211 = -101						; size = 1
tv210 = -100						; size = 4
tv209 = -96						; size = 4
tv208 = -92						; size = 4
tv207 = -85						; size = 1
tv83 = -84						; size = 4
tv81 = -80						; size = 4
$T89553 = -76						; size = 4
$T89552 = -72						; size = 4
$T89551 = -68						; size = 4
$T89550 = -64						; size = 4
$T89549 = -60						; size = 4
$T89548 = -56						; size = 4
$T89547 = -52						; size = 4
__Count$87427 = -48					; size = 4
__Ok$ = -40						; size = 8
__Pad$ = -28						; size = 4
__Size$ = -24						; size = 4
__State$ = -20						; size = 4
__$EHRec$ = -16						; size = 16
__Ostr$ = 8						; size = 4
__Str$ = 12						; size = 4
??$?6DU?$char_traits@D@std@@V?$allocator@D@1@@std@@YAAAV?$basic_ostream@DU?$char_traits@D@std@@@0@AAV10@ABV?$basic_string@DU?$char_traits@D@std@@V?$allocator@D@2@@0@@Z PROC NEAR ; std::operator<<<char,std::char_traits<char>,std::allocator<char> >, COMDAT

; 538  : 	{	// insert a string

  00000	55		 push	 ebp
  00001	8b ec		 mov	 ebp, esp
  00003	6a ff		 push	 -1
  00005	68 00 00 00 00	 push	 __ehhandler$??$?6DU?$char_traits@D@std@@V?$allocator@D@1@@std@@YAAAV?$basic_ostream@DU?$char_traits@D@std@@@0@AAV10@ABV?$basic_string@DU?$char_traits@D@std@@V?$allocator@D@2@@0@@Z
  0000a	64 a1 00 00 00
	00		 mov	 eax, DWORD PTR fs:__except_list
  00010	50		 push	 eax
  00011	64 89 25 00 00
	00 00		 mov	 DWORD PTR fs:__except_list, esp
  00018	51		 push	 ecx
  00019	83 ec 7c	 sub	 esp, 124		; 0000007cH
  0001c	53		 push	 ebx
  0001d	56		 push	 esi
  0001e	57		 push	 edi
  0001f	8d bd 74 ff ff
	ff		 lea	 edi, DWORD PTR [ebp-140]
  00025	b9 1f 00 00 00	 mov	 ecx, 31			; 0000001fH
  0002a	b8 cc cc cc cc	 mov	 eax, -858993460		; ccccccccH
  0002f	f3 ab		 rep stosd
  00031	89 65 f0	 mov	 DWORD PTR __$EHRec$[ebp], esp

; 539  : 	typedef basic_ostream<_Elem, _Traits> _Myos;
; 540  : 	typedef basic_string<_Elem, _Traits, _Alloc> _Mystr;
; 541  : 	typedef typename _Mystr::size_type _Mysizt;
; 542  : 
; 543  : 	ios_base::iostate _State = ios_base::goodbit;

  00034	c7 45 ec 00 00
	00 00		 mov	 DWORD PTR __State$[ebp], 0

; 544  : 	_Mysizt _Size = _Str.size();

  0003b	8b f4		 mov	 esi, esp
  0003d	8b 4d 0c	 mov	 ecx, DWORD PTR __Str$[ebp]
  00040	ff 15 00 00 00
	00		 call	 DWORD PTR __imp_?size@?$basic_string@DU?$char_traits@D@std@@V?$allocator@D@2@@std@@QBEIXZ
  00046	3b f4		 cmp	 esi, esp
  00048	e8 00 00 00 00	 call	 __RTC_CheckEsp
  0004d	89 45 e8	 mov	 DWORD PTR __Size$[ebp], eax

; 545  : 	_Mysizt _Pad = _Ostr.width() <= 0 || (_Mysizt)_Ostr.width() <= _Size
; 546  : 			? 0 : (_Mysizt)_Ostr.width() - _Size;

  00050	8b 45 08	 mov	 eax, DWORD PTR __Ostr$[ebp]
  00053	8b 08		 mov	 ecx, DWORD PTR [eax]
  00055	8b 55 08	 mov	 edx, DWORD PTR __Ostr$[ebp]
  00058	03 51 04	 add	 edx, DWORD PTR [ecx+4]
  0005b	8b f4		 mov	 esi, esp
  0005d	8b ca		 mov	 ecx, edx
  0005f	ff 15 00 00 00
	00		 call	 DWORD PTR __imp_?width@ios_base@std@@QBEHXZ
  00065	3b f4		 cmp	 esi, esp
  00067	e8 00 00 00 00	 call	 __RTC_CheckEsp
  0006c	85 c0		 test	 eax, eax
  0006e	7e 45		 jle	 SHORT $L89545
  00070	8b 45 08	 mov	 eax, DWORD PTR __Ostr$[ebp]
  00073	8b 08		 mov	 ecx, DWORD PTR [eax]
  00075	8b 55 08	 mov	 edx, DWORD PTR __Ostr$[ebp]
  00078	03 51 04	 add	 edx, DWORD PTR [ecx+4]
  0007b	8b f4		 mov	 esi, esp
  0007d	8b ca		 mov	 ecx, edx
  0007f	ff 15 00 00 00
	00		 call	 DWORD PTR __imp_?width@ios_base@std@@QBEHXZ
  00085	3b f4		 cmp	 esi, esp
  00087	e8 00 00 00 00	 call	 __RTC_CheckEsp
  0008c	3b 45 e8	 cmp	 eax, DWORD PTR __Size$[ebp]
  0008f	76 24		 jbe	 SHORT $L89545
  00091	8b 45 08	 mov	 eax, DWORD PTR __Ostr$[ebp]
  00094	8b 08		 mov	 ecx, DWORD PTR [eax]
  00096	8b 55 08	 mov	 edx, DWORD PTR __Ostr$[ebp]
  00099	03 51 04	 add	 edx, DWORD PTR [ecx+4]
  0009c	8b f4		 mov	 esi, esp
  0009e	8b ca		 mov	 ecx, edx
  000a0	ff 15 00 00 00
	00		 call	 DWORD PTR __imp_?width@ios_base@std@@QBEHXZ
  000a6	3b f4		 cmp	 esi, esp
  000a8	e8 00 00 00 00	 call	 __RTC_CheckEsp
  000ad	2b 45 e8	 sub	 eax, DWORD PTR __Size$[ebp]
  000b0	89 45 b0	 mov	 DWORD PTR tv81[ebp], eax
  000b3	eb 07		 jmp	 SHORT $L89546
$L89545:
  000b5	c7 45 b0 00 00
	00 00		 mov	 DWORD PTR tv81[ebp], 0
$L89546:
  000bc	8b 45 b0	 mov	 eax, DWORD PTR tv81[ebp]
  000bf	89 45 e4	 mov	 DWORD PTR __Pad$[ebp], eax

; 547  : 	const typename _Myos::sentry _Ok(_Ostr);

  000c2	8b 4d 08	 mov	 ecx, DWORD PTR __Ostr$[ebp]
  000c5	51		 push	 ecx
  000c6	8d 4d d8	 lea	 ecx, DWORD PTR __Ok$[ebp]
  000c9	e8 00 00 00 00	 call	 ??0sentry@?$basic_ostream@DU?$char_traits@D@std@@@std@@QAE@AAV12@@Z ; std::basic_ostream<char,std::char_traits<char> >::sentry::sentry
  000ce	c7 45 fc 00 00
	00 00		 mov	 DWORD PTR __$EHRec$[ebp+12], 0

; 548  : 
; 549  : 	if (!_Ok)

  000d5	8d 4d d8	 lea	 ecx, DWORD PTR __Ok$[ebp]
  000d8	e8 00 00 00 00	 call	 ??Bsentry@?$basic_ostream@DU?$char_traits@D@std@@@std@@QBE_NXZ ; std::basic_ostream<char,std::char_traits<char> >::sentry::operator bool
  000dd	0f b6 d0	 movzx	 edx, al
  000e0	85 d2		 test	 edx, edx
  000e2	75 0e		 jne	 SHORT $L87416

; 550  : 		_State |= ios_base::badbit;

  000e4	8b 45 ec	 mov	 eax, DWORD PTR __State$[ebp]
  000e7	83 c8 04	 or	 eax, 4
  000ea	89 45 ec	 mov	 DWORD PTR __State$[ebp], eax

; 551  : 	else

  000ed	e9 d8 02 00 00	 jmp	 $L89554
$L87416:

; 552  : 		{	// state okay, insert characters
; 553  : 	_TRY_IO_BEGIN

  000f2	c6 45 fc 01	 mov	 BYTE PTR __$EHRec$[ebp+12], 1

; 554  : 		if ((_Ostr.flags() & ios_base::adjustfield) != ios_base::left)

  000f6	8b 4d 08	 mov	 ecx, DWORD PTR __Ostr$[ebp]
  000f9	8b 11		 mov	 edx, DWORD PTR [ecx]
  000fb	8b 4d 08	 mov	 ecx, DWORD PTR __Ostr$[ebp]
  000fe	03 4a 04	 add	 ecx, DWORD PTR [edx+4]
  00101	8b f4		 mov	 esi, esp
  00103	ff 15 00 00 00
	00		 call	 DWORD PTR __imp_?flags@ios_base@std@@QBEHXZ
  00109	3b f4		 cmp	 esi, esp
  0010b	e8 00 00 00 00	 call	 __RTC_CheckEsp
  00110	89 45 ac	 mov	 DWORD PTR tv83[ebp], eax
  00113	8b 45 ac	 mov	 eax, DWORD PTR tv83[ebp]
  00116	25 c0 01 00 00	 and	 eax, 448		; 000001c0H
  0011b	83 f8 40	 cmp	 eax, 64			; 00000040H
  0011e	0f 84 bb 00 00
	00		 je	 $L87419

; 555  : 			for (; 0 < _Pad; --_Pad)	// pad on left

  00124	eb 09		 jmp	 SHORT $L87420
$L87421:
  00126	8b 4d e4	 mov	 ecx, DWORD PTR __Pad$[ebp]
  00129	83 e9 01	 sub	 ecx, 1
  0012c	89 4d e4	 mov	 DWORD PTR __Pad$[ebp], ecx
$L87420:
  0012f	83 7d e4 00	 cmp	 DWORD PTR __Pad$[ebp], 0
  00133	0f 86 a6 00 00
	00		 jbe	 $L87419

; 556  : 				if (_Traits::eq_int_type(_Traits::eof(),
; 557  : 					_Ostr.rdbuf()->sputc(_Ostr.fill())))

  00139	8b 55 08	 mov	 edx, DWORD PTR __Ostr$[ebp]
  0013c	8b 02		 mov	 eax, DWORD PTR [edx]
  0013e	8b 4d 08	 mov	 ecx, DWORD PTR __Ostr$[ebp]
  00141	03 48 04	 add	 ecx, DWORD PTR [eax+4]
  00144	8b f4		 mov	 esi, esp
  00146	ff 15 00 00 00
	00		 call	 DWORD PTR __imp_?fill@?$basic_ios@DU?$char_traits@D@std@@@std@@QBEDXZ
  0014c	3b f4		 cmp	 esi, esp
  0014e	e8 00 00 00 00	 call	 __RTC_CheckEsp
  00153	88 45 ab	 mov	 BYTE PTR tv207[ebp], al
  00156	8b 4d 08	 mov	 ecx, DWORD PTR __Ostr$[ebp]
  00159	8b 11		 mov	 edx, DWORD PTR [ecx]
  0015b	8b 4d 08	 mov	 ecx, DWORD PTR __Ostr$[ebp]
  0015e	03 4a 04	 add	 ecx, DWORD PTR [edx+4]
  00161	8b f4		 mov	 esi, esp
  00163	ff 15 00 00 00
	00		 call	 DWORD PTR __imp_?rdbuf@?$basic_ios@DU?$char_traits@D@std@@@std@@QBEPAV?$basic_streambuf@DU?$char_traits@D@std@@@2@XZ
  00169	3b f4		 cmp	 esi, esp
  0016b	e8 00 00 00 00	 call	 __RTC_CheckEsp
  00170	89 45 a4	 mov	 DWORD PTR tv208[ebp], eax
  00173	8b f4		 mov	 esi, esp
  00175	8a 45 ab	 mov	 al, BYTE PTR tv207[ebp]
  00178	50		 push	 eax
  00179	8b 4d a4	 mov	 ecx, DWORD PTR tv208[ebp]
  0017c	ff 15 00 00 00
	00		 call	 DWORD PTR __imp_?sputc@?$basic_streambuf@DU?$char_traits@D@std@@@std@@QAEHD@Z
  00182	3b f4		 cmp	 esi, esp
  00184	e8 00 00 00 00	 call	 __RTC_CheckEsp
  00189	89 45 a0	 mov	 DWORD PTR tv209[ebp], eax
  0018c	8b 4d a0	 mov	 ecx, DWORD PTR tv209[ebp]
  0018f	89 4d cc	 mov	 DWORD PTR $T89547[ebp], ecx
  00192	8b f4		 mov	 esi, esp
  00194	ff 15 00 00 00
	00		 call	 DWORD PTR __imp_?eof@?$char_traits@D@std@@SAHXZ
  0019a	3b f4		 cmp	 esi, esp
  0019c	e8 00 00 00 00	 call	 __RTC_CheckEsp
  001a1	89 45 9c	 mov	 DWORD PTR tv210[ebp], eax
  001a4	8b 55 9c	 mov	 edx, DWORD PTR tv210[ebp]
  001a7	89 55 c8	 mov	 DWORD PTR $T89548[ebp], edx
  001aa	8b f4		 mov	 esi, esp
  001ac	8d 45 cc	 lea	 eax, DWORD PTR $T89547[ebp]
  001af	50		 push	 eax
  001b0	8d 4d c8	 lea	 ecx, DWORD PTR $T89548[ebp]
  001b3	51		 push	 ecx
  001b4	ff 15 00 00 00
	00		 call	 DWORD PTR __imp_?eq_int_type@?$char_traits@D@std@@SA_NABH0@Z
  001ba	83 c4 08	 add	 esp, 8
  001bd	3b f4		 cmp	 esi, esp
  001bf	e8 00 00 00 00	 call	 __RTC_CheckEsp
  001c4	88 45 9b	 mov	 BYTE PTR tv211[ebp], al
  001c7	0f b6 55 9b	 movzx	 edx, BYTE PTR tv211[ebp]
  001cb	85 d2		 test	 edx, edx
  001cd	74 0b		 je	 SHORT $L87425

; 558  : 					{	// insertion failed, quit
; 559  : 					_State |= ios_base::badbit;

  001cf	8b 45 ec	 mov	 eax, DWORD PTR __State$[ebp]
  001d2	83 c8 04	 or	 eax, 4
  001d5	89 45 ec	 mov	 DWORD PTR __State$[ebp], eax

; 560  : 					break;

  001d8	eb 05		 jmp	 SHORT $L87419
$L87425:

; 561  : 					}
; 562  : 
; 563  : 		if (_State == ios_base::goodbit)

  001da	e9 47 ff ff ff	 jmp	 $L87421
$L87419:
  001df	83 7d ec 00	 cmp	 DWORD PTR __State$[ebp], 0
  001e3	0f 85 c2 00 00
	00		 jne	 $L87426

; 564  : 			for (_Mysizt _Count = 0; _Count < _Size; ++_Count)

  001e9	c7 45 d0 00 00
	00 00		 mov	 DWORD PTR __Count$87427[ebp], 0
  001f0	eb 09		 jmp	 SHORT $L87428
$L87429:
  001f2	8b 4d d0	 mov	 ecx, DWORD PTR __Count$87427[ebp]
  001f5	83 c1 01	 add	 ecx, 1
  001f8	89 4d d0	 mov	 DWORD PTR __Count$87427[ebp], ecx
$L87428:
  001fb	8b 55 d0	 mov	 edx, DWORD PTR __Count$87427[ebp]
  001fe	3b 55 e8	 cmp	 edx, DWORD PTR __Size$[ebp]
  00201	0f 83 a4 00 00
	00		 jae	 $L87426

; 565  : 				if (_Traits::eq_int_type(_Traits::eof(),
; 566  : 					_Ostr.rdbuf()->sputc(_Str[_Count])))

  00207	8b f4		 mov	 esi, esp
  00209	8b 45 d0	 mov	 eax, DWORD PTR __Count$87427[ebp]
  0020c	50		 push	 eax
  0020d	8b 4d 0c	 mov	 ecx, DWORD PTR __Str$[ebp]
  00210	ff 15 00 00 00
	00		 call	 DWORD PTR __imp_??A?$basic_string@DU?$char_traits@D@std@@V?$allocator@D@2@@std@@QBEABDI@Z
  00216	3b f4		 cmp	 esi, esp
  00218	e8 00 00 00 00	 call	 __RTC_CheckEsp
  0021d	89 45 94	 mov	 DWORD PTR tv212[ebp], eax
  00220	8b 4d 08	 mov	 ecx, DWORD PTR __Ostr$[ebp]
  00223	8b 11		 mov	 edx, DWORD PTR [ecx]
  00225	8b 4d 08	 mov	 ecx, DWORD PTR __Ostr$[ebp]
  00228	03 4a 04	 add	 ecx, DWORD PTR [edx+4]
  0022b	8b f4		 mov	 esi, esp
  0022d	ff 15 00 00 00
	00		 call	 DWORD PTR __imp_?rdbuf@?$basic_ios@DU?$char_traits@D@std@@@std@@QBEPAV?$basic_streambuf@DU?$char_traits@D@std@@@2@XZ
  00233	3b f4		 cmp	 esi, esp
  00235	e8 00 00 00 00	 call	 __RTC_CheckEsp
  0023a	89 45 90	 mov	 DWORD PTR tv213[ebp], eax
  0023d	8b f4		 mov	 esi, esp
  0023f	8b 45 94	 mov	 eax, DWORD PTR tv212[ebp]
  00242	8a 08		 mov	 cl, BYTE PTR [eax]
  00244	51		 push	 ecx
  00245	8b 4d 90	 mov	 ecx, DWORD PTR tv213[ebp]
  00248	ff 15 00 00 00
	00		 call	 DWORD PTR __imp_?sputc@?$basic_streambuf@DU?$char_traits@D@std@@@std@@QAEHD@Z
  0024e	3b f4		 cmp	 esi, esp
  00250	e8 00 00 00 00	 call	 __RTC_CheckEsp
  00255	89 45 8c	 mov	 DWORD PTR tv214[ebp], eax
  00258	8b 55 8c	 mov	 edx, DWORD PTR tv214[ebp]
  0025b	89 55 c4	 mov	 DWORD PTR $T89549[ebp], edx
  0025e	8b f4		 mov	 esi, esp
  00260	ff 15 00 00 00
	00		 call	 DWORD PTR __imp_?eof@?$char_traits@D@std@@SAHXZ
  00266	3b f4		 cmp	 esi, esp
  00268	e8 00 00 00 00	 call	 __RTC_CheckEsp
  0026d	89 45 88	 mov	 DWORD PTR tv215[ebp], eax
  00270	8b 45 88	 mov	 eax, DWORD PTR tv215[ebp]
  00273	89 45 c0	 mov	 DWORD PTR $T89550[ebp], eax
  00276	8b f4		 mov	 esi, esp
  00278	8d 4d c4	 lea	 ecx, DWORD PTR $T89549[ebp]
  0027b	51		 push	 ecx
  0027c	8d 55 c0	 lea	 edx, DWORD PTR $T89550[ebp]
  0027f	52		 push	 edx
  00280	ff 15 00 00 00
	00		 call	 DWORD PTR __imp_?eq_int_type@?$char_traits@D@std@@SA_NABH0@Z
  00286	83 c4 08	 add	 esp, 8
  00289	3b f4		 cmp	 esi, esp
  0028b	e8 00 00 00 00	 call	 __RTC_CheckEsp
  00290	88 45 87	 mov	 BYTE PTR tv216[ebp], al
  00293	0f b6 45 87	 movzx	 eax, BYTE PTR tv216[ebp]
  00297	85 c0		 test	 eax, eax
  00299	74 0b		 je	 SHORT $L87433

; 567  : 					{	// insertion failed, quit
; 568  : 					_State |= ios_base::badbit;

  0029b	8b 4d ec	 mov	 ecx, DWORD PTR __State$[ebp]
  0029e	83 c9 04	 or	 ecx, 4
  002a1	89 4d ec	 mov	 DWORD PTR __State$[ebp], ecx

; 569  : 					break;

  002a4	eb 05		 jmp	 SHORT $L87426
$L87433:

; 570  : 					}
; 571  : 
; 572  : 		if (_State == ios_base::goodbit)

  002a6	e9 47 ff ff ff	 jmp	 $L87429
$L87426:
  002ab	83 7d ec 00	 cmp	 DWORD PTR __State$[ebp], 0
  002af	0f 85 d1 00 00
	00		 jne	 $L87434

; 573  : 			for (; 0 < _Pad; --_Pad)	// pad on right

  002b5	eb 09		 jmp	 SHORT $L87435
$L87436:
  002b7	8b 55 e4	 mov	 edx, DWORD PTR __Pad$[ebp]
  002ba	83 ea 01	 sub	 edx, 1
  002bd	89 55 e4	 mov	 DWORD PTR __Pad$[ebp], edx
$L87435:
  002c0	83 7d e4 00	 cmp	 DWORD PTR __Pad$[ebp], 0
  002c4	0f 86 bc 00 00
	00		 jbe	 $L87434

; 574  : 				if (_Traits::eq_int_type(_Traits::eof(),
; 575  : 					_Ostr.rdbuf()->sputc(_Ostr.fill())))

  002ca	8b 45 08	 mov	 eax, DWORD PTR __Ostr$[ebp]
  002cd	8b 08		 mov	 ecx, DWORD PTR [eax]
  002cf	8b 55 08	 mov	 edx, DWORD PTR __Ostr$[ebp]
  002d2	03 51 04	 add	 edx, DWORD PTR [ecx+4]
  002d5	8b f4		 mov	 esi, esp
  002d7	8b ca		 mov	 ecx, edx
  002d9	ff 15 00 00 00
	00		 call	 DWORD PTR __imp_?fill@?$basic_ios@DU?$char_traits@D@std@@@std@@QBEDXZ
  002df	3b f4		 cmp	 esi, esp
  002e1	e8 00 00 00 00	 call	 __RTC_CheckEsp
  002e6	88 45 86	 mov	 BYTE PTR tv217[ebp], al
  002e9	8b 45 08	 mov	 eax, DWORD PTR __Ostr$[ebp]
  002ec	8b 08		 mov	 ecx, DWORD PTR [eax]
  002ee	8b 55 08	 mov	 edx, DWORD PTR __Ostr$[ebp]
  002f1	03 51 04	 add	 edx, DWORD PTR [ecx+4]
  002f4	8b f4		 mov	 esi, esp
  002f6	8b ca		 mov	 ecx, edx
  002f8	ff 15 00 00 00
	00		 call	 DWORD PTR __imp_?rdbuf@?$basic_ios@DU?$char_traits@D@std@@@std@@QBEPAV?$basic_streambuf@DU?$char_traits@D@std@@@2@XZ
  002fe	3b f4		 cmp	 esi, esp
  00300	e8 00 00 00 00	 call	 __RTC_CheckEsp
  00305	89 45 80	 mov	 DWORD PTR tv218[ebp], eax
  00308	8b f4		 mov	 esi, esp
  0030a	8a 45 86	 mov	 al, BYTE PTR tv217[ebp]
  0030d	50		 push	 eax
  0030e	8b 4d 80	 mov	 ecx, DWORD PTR tv218[ebp]
  00311	ff 15 00 00 00
	00		 call	 DWORD PTR __imp_?sputc@?$basic_streambuf@DU?$char_traits@D@std@@@std@@QAEHD@Z
  00317	3b f4		 cmp	 esi, esp
  00319	e8 00 00 00 00	 call	 __RTC_CheckEsp
  0031e	89 85 7c ff ff
	ff		 mov	 DWORD PTR tv219[ebp], eax
  00324	8b 8d 7c ff ff
	ff		 mov	 ecx, DWORD PTR tv219[ebp]
  0032a	89 4d bc	 mov	 DWORD PTR $T89551[ebp], ecx
  0032d	8b f4		 mov	 esi, esp
  0032f	ff 15 00 00 00
	00		 call	 DWORD PTR __imp_?eof@?$char_traits@D@std@@SAHXZ
  00335	3b f4		 cmp	 esi, esp
  00337	e8 00 00 00 00	 call	 __RTC_CheckEsp
  0033c	89 85 78 ff ff
	ff		 mov	 DWORD PTR tv220[ebp], eax
  00342	8b 95 78 ff ff
	ff		 mov	 edx, DWORD PTR tv220[ebp]
  00348	89 55 b8	 mov	 DWORD PTR $T89552[ebp], edx
  0034b	8b f4		 mov	 esi, esp
  0034d	8d 45 bc	 lea	 eax, DWORD PTR $T89551[ebp]
  00350	50		 push	 eax
  00351	8d 4d b8	 lea	 ecx, DWORD PTR $T89552[ebp]
  00354	51		 push	 ecx
  00355	ff 15 00 00 00
	00		 call	 DWORD PTR __imp_?eq_int_type@?$char_traits@D@std@@SA_NABH0@Z
  0035b	83 c4 08	 add	 esp, 8
  0035e	3b f4		 cmp	 esi, esp
  00360	e8 00 00 00 00	 call	 __RTC_CheckEsp
  00365	88 85 77 ff ff
	ff		 mov	 BYTE PTR tv221[ebp], al
  0036b	0f b6 95 77 ff
	ff ff		 movzx	 edx, BYTE PTR tv221[ebp]
  00372	85 d2		 test	 edx, edx
  00374	74 0b		 je	 SHORT $L87440

; 576  : 					{	// insertion failed, quit
; 577  : 					_State |= ios_base::badbit;

  00376	8b 45 ec	 mov	 eax, DWORD PTR __State$[ebp]
  00379	83 c8 04	 or	 eax, 4
  0037c	89 45 ec	 mov	 DWORD PTR __State$[ebp], eax

; 578  : 					break;

  0037f	eb 05		 jmp	 SHORT $L87434
$L87440:

; 579  : 					}
; 580  : 		_Ostr.width(0);

  00381	e9 31 ff ff ff	 jmp	 $L87436
$L87434:
  00386	8b f4		 mov	 esi, esp
  00388	6a 00		 push	 0
  0038a	8b 4d 08	 mov	 ecx, DWORD PTR __Ostr$[ebp]
  0038d	8b 11		 mov	 edx, DWORD PTR [ecx]
  0038f	8b 4d 08	 mov	 ecx, DWORD PTR __Ostr$[ebp]
  00392	03 4a 04	 add	 ecx, DWORD PTR [edx+4]
  00395	ff 15 00 00 00
	00		 call	 DWORD PTR __imp_?width@ios_base@std@@QAEHH@Z
  0039b	3b f4		 cmp	 esi, esp
  0039d	e8 00 00 00 00	 call	 __RTC_CheckEsp
  003a2	eb 26		 jmp	 SHORT $L89554
$L89555:

; 581  : 		_CATCH_IO_(_Ostr)

  003a4	8b f4		 mov	 esi, esp
  003a6	6a 01		 push	 1
  003a8	6a 04		 push	 4
  003aa	8b 45 08	 mov	 eax, DWORD PTR __Ostr$[ebp]
  003ad	8b 08		 mov	 ecx, DWORD PTR [eax]
  003af	8b 55 08	 mov	 edx, DWORD PTR __Ostr$[ebp]
  003b2	03 51 04	 add	 edx, DWORD PTR [ecx+4]
  003b5	8b ca		 mov	 ecx, edx
  003b7	ff 15 00 00 00
	00		 call	 DWORD PTR __imp_?setstate@?$basic_ios@DU?$char_traits@D@std@@@std@@QAEXH_N@Z
  003bd	3b f4		 cmp	 esi, esp
  003bf	e8 00 00 00 00	 call	 __RTC_CheckEsp
  003c4	b8 00 00 00 00	 mov	 eax, $L89554
  003c9	c3		 ret	 0
$L89554:
  003ca	c7 45 fc 00 00
	00 00		 mov	 DWORD PTR __$EHRec$[ebp+12], 0

; 582  : 		}
; 583  : 
; 584  : 	_Ostr.setstate(_State);

  003d1	8b f4		 mov	 esi, esp
  003d3	6a 00		 push	 0
  003d5	8b 45 ec	 mov	 eax, DWORD PTR __State$[ebp]
  003d8	50		 push	 eax
  003d9	8b 4d 08	 mov	 ecx, DWORD PTR __Ostr$[ebp]
  003dc	8b 11		 mov	 edx, DWORD PTR [ecx]
  003de	8b 4d 08	 mov	 ecx, DWORD PTR __Ostr$[ebp]
  003e1	03 4a 04	 add	 ecx, DWORD PTR [edx+4]
  003e4	ff 15 00 00 00
	00		 call	 DWORD PTR __imp_?setstate@?$basic_ios@DU?$char_traits@D@std@@@std@@QAEXH_N@Z
  003ea	3b f4		 cmp	 esi, esp
  003ec	e8 00 00 00 00	 call	 __RTC_CheckEsp

; 585  : 	return (_Ostr);

  003f1	8b 45 08	 mov	 eax, DWORD PTR __Ostr$[ebp]
  003f4	89 45 b4	 mov	 DWORD PTR $T89553[ebp], eax
  003f7	c7 45 fc ff ff
	ff ff		 mov	 DWORD PTR __$EHRec$[ebp+12], -1
  003fe	8d 4d d8	 lea	 ecx, DWORD PTR __Ok$[ebp]
  00401	e8 00 00 00 00	 call	 ??1sentry@?$basic_ostream@DU?$char_traits@D@std@@@std@@QAE@XZ ; std::basic_ostream<char,std::char_traits<char> >::sentry::~sentry
  00406	8b 45 b4	 mov	 eax, DWORD PTR $T89553[ebp]

; 586  : 	}

  00409	52		 push	 edx
  0040a	8b cd		 mov	 ecx, ebp
  0040c	50		 push	 eax
  0040d	8d 15 00 00 00
	00		 lea	 edx, DWORD PTR $L89562
  00413	e8 00 00 00 00	 call	 @_RTC_CheckStackVars@8
  00418	58		 pop	 eax
  00419	5a		 pop	 edx
  0041a	8b 4d f4	 mov	 ecx, DWORD PTR __$EHRec$[ebp+4]
  0041d	64 89 0d 00 00
	00 00		 mov	 DWORD PTR fs:__except_list, ecx
  00424	5f		 pop	 edi
  00425	5e		 pop	 esi
  00426	5b		 pop	 ebx
  00427	81 c4 8c 00 00
	00		 add	 esp, 140		; 0000008cH
  0042d	3b ec		 cmp	 ebp, esp
  0042f	e8 00 00 00 00	 call	 __RTC_CheckEsp
  00434	8b e5		 mov	 esp, ebp
  00436	5d		 pop	 ebp
  00437	c3		 ret	 0
$L89562:
  00438	01 00 00 00	 DD	 1
  0043c	00 00 00 00	 DD	 $L89561
$L89561:
  00440	d8 ff ff ff	 DD	 -40			; ffffffd8H
  00444	08 00 00 00	 DD	 8
  00448	00 00 00 00	 DD	 $L89559
$L89559:
  0044c	5f		 DB	 95			; 0000005fH
  0044d	4f		 DB	 79			; 0000004fH
  0044e	6b		 DB	 107			; 0000006bH
  0044f	00		 DB	 0
_TEXT	ENDS
;	COMDAT text$x
text$x	SEGMENT
$L89556:
  00000	8d 4d d8	 lea	 ecx, DWORD PTR __Ok$[ebp]
  00003	e9 00 00 00 00	 jmp	 ??1sentry@?$basic_ostream@DU?$char_traits@D@std@@@std@@QAE@XZ ; std::basic_ostream<char,std::char_traits<char> >::sentry::~sentry
__ehhandler$??$?6DU?$char_traits@D@std@@V?$allocator@D@1@@std@@YAAAV?$basic_ostream@DU?$char_traits@D@std@@@0@AAV10@ABV?$basic_string@DU?$char_traits@D@std@@V?$allocator@D@2@@0@@Z:
  00008	b8 00 00 00 00	 mov	 eax, OFFSET FLAT:$T89558
  0000d	e9 00 00 00 00	 jmp	 ___CxxFrameHandler
text$x	ENDS
??$?6DU?$char_traits@D@std@@V?$allocator@D@1@@std@@YAAAV?$basic_ostream@DU?$char_traits@D@std@@@0@AAV10@ABV?$basic_string@DU?$char_traits@D@std@@V?$allocator@D@2@@0@@Z ENDP ; std::operator<<<char,std::char_traits<char>,std::allocator<char> >
PUBLIC	??0_Sentry_base@?$basic_ostream@DU?$char_traits@D@std@@@std@@QAE@AAV12@@Z ; std::basic_ostream<char,std::char_traits<char> >::_Sentry_base::_Sentry_base
PUBLIC	??1_Sentry_base@?$basic_ostream@DU?$char_traits@D@std@@@std@@QAE@XZ ; std::basic_ostream<char,std::char_traits<char> >::_Sentry_base::~_Sentry_base
EXTRN	__imp_?tie@?$basic_ios@DU?$char_traits@D@std@@@std@@QBEPAV?$basic_ostream@DU?$char_traits@D@std@@@2@XZ:NEAR
EXTRN	__imp_?good@ios_base@std@@QBE_NXZ:NEAR
EXTRN	__imp_?flush@?$basic_ostream@DU?$char_traits@D@std@@@std@@QAEAAV12@XZ:NEAR
;	COMDAT xdata$x
; File d:\program files (x86)\microsoft visual studio .net 2003\vc7\include\ostream
xdata$x	SEGMENT
$T89573	DD	0ffffffffH
	DD	FLAT:$L89569
$T89571	DD	019930520H
	DD	01H
	DD	FLAT:$T89573
	DD	2 DUP(00H)
	DD	2 DUP(00H)
; Function compile flags: /Odt /RTCsu
xdata$x	ENDS
;	COMDAT ??0sentry@?$basic_ostream@DU?$char_traits@D@std@@@std@@QAE@AAV12@@Z
_TEXT	SEGMENT
_this$ = -16						; size = 4
__$EHRec$ = -12						; size = 12
__Ostr$ = 8						; size = 4
??0sentry@?$basic_ostream@DU?$char_traits@D@std@@@std@@QAE@AAV12@@Z PROC NEAR ; std::basic_ostream<char,std::char_traits<char> >::sentry::sentry, COMDAT
; _this$ = ecx

; 88   : 			{	// construct locking and testing stream

  00000	55		 push	 ebp
  00001	8b ec		 mov	 ebp, esp
  00003	6a ff		 push	 -1
  00005	68 00 00 00 00	 push	 __ehhandler$??0sentry@?$basic_ostream@DU?$char_traits@D@std@@@std@@QAE@AAV12@@Z
  0000a	64 a1 00 00 00
	00		 mov	 eax, DWORD PTR fs:__except_list
  00010	50		 push	 eax
  00011	64 89 25 00 00
	00 00		 mov	 DWORD PTR fs:__except_list, esp
  00018	51		 push	 ecx
  00019	56		 push	 esi
  0001a	c7 45 f0 cc cc
	cc cc		 mov	 DWORD PTR [ebp-16], -858993460 ; ccccccccH
  00021	89 4d f0	 mov	 DWORD PTR _this$[ebp], ecx
  00024	8b 45 08	 mov	 eax, DWORD PTR __Ostr$[ebp]
  00027	50		 push	 eax
  00028	8b 4d f0	 mov	 ecx, DWORD PTR _this$[ebp]
  0002b	e8 00 00 00 00	 call	 ??0_Sentry_base@?$basic_ostream@DU?$char_traits@D@std@@@std@@QAE@AAV12@@Z ; std::basic_ostream<char,std::char_traits<char> >::_Sentry_base::_Sentry_base
  00030	c7 45 fc 00 00
	00 00		 mov	 DWORD PTR __$EHRec$[ebp+8], 0

; 89   : 			if (_Ostr.good() && _Ostr.tie() != 0)

  00037	8b 4d 08	 mov	 ecx, DWORD PTR __Ostr$[ebp]
  0003a	8b 11		 mov	 edx, DWORD PTR [ecx]
  0003c	8b 4d 08	 mov	 ecx, DWORD PTR __Ostr$[ebp]
  0003f	03 4a 04	 add	 ecx, DWORD PTR [edx+4]
  00042	8b f4		 mov	 esi, esp
  00044	ff 15 00 00 00
	00		 call	 DWORD PTR __imp_?good@ios_base@std@@QBE_NXZ
  0004a	3b f4		 cmp	 esi, esp
  0004c	e8 00 00 00 00	 call	 __RTC_CheckEsp
  00051	0f b6 c0	 movzx	 eax, al
  00054	85 c0		 test	 eax, eax
  00056	74 4b		 je	 SHORT $L86644
  00058	8b 4d 08	 mov	 ecx, DWORD PTR __Ostr$[ebp]
  0005b	8b 11		 mov	 edx, DWORD PTR [ecx]
  0005d	8b 4d 08	 mov	 ecx, DWORD PTR __Ostr$[ebp]
  00060	03 4a 04	 add	 ecx, DWORD PTR [edx+4]
  00063	8b f4		 mov	 esi, esp
  00065	ff 15 00 00 00
	00		 call	 DWORD PTR __imp_?tie@?$basic_ios@DU?$char_traits@D@std@@@std@@QBEPAV?$basic_ostream@DU?$char_traits@D@std@@@2@XZ
  0006b	3b f4		 cmp	 esi, esp
  0006d	e8 00 00 00 00	 call	 __RTC_CheckEsp
  00072	85 c0		 test	 eax, eax
  00074	74 2d		 je	 SHORT $L86644

; 90   : 				_Ostr.tie()->flush();

  00076	8b 45 08	 mov	 eax, DWORD PTR __Ostr$[ebp]
  00079	8b 08		 mov	 ecx, DWORD PTR [eax]
  0007b	8b 55 08	 mov	 edx, DWORD PTR __Ostr$[ebp]
  0007e	03 51 04	 add	 edx, DWORD PTR [ecx+4]
  00081	8b f4		 mov	 esi, esp
  00083	8b ca		 mov	 ecx, edx
  00085	ff 15 00 00 00
	00		 call	 DWORD PTR __imp_?tie@?$basic_ios@DU?$char_traits@D@std@@@std@@QBEPAV?$basic_ostream@DU?$char_traits@D@std@@@2@XZ
  0008b	3b f4		 cmp	 esi, esp
  0008d	e8 00 00 00 00	 call	 __RTC_CheckEsp
  00092	8b f4		 mov	 esi, esp
  00094	8b c8		 mov	 ecx, eax
  00096	ff 15 00 00 00
	00		 call	 DWORD PTR __imp_?flush@?$basic_ostream@DU?$char_traits@D@std@@@std@@QAEAAV12@XZ
  0009c	3b f4		 cmp	 esi, esp
  0009e	e8 00 00 00 00	 call	 __RTC_CheckEsp
$L86644:

; 91   : 			_Ok = _Ostr.good();	// store test only after flushing tie

  000a3	8b 45 08	 mov	 eax, DWORD PTR __Ostr$[ebp]
  000a6	8b 08		 mov	 ecx, DWORD PTR [eax]
  000a8	8b 55 08	 mov	 edx, DWORD PTR __Ostr$[ebp]
  000ab	03 51 04	 add	 edx, DWORD PTR [ecx+4]
  000ae	8b f4		 mov	 esi, esp
  000b0	8b ca		 mov	 ecx, edx
  000b2	ff 15 00 00 00
	00		 call	 DWORD PTR __imp_?good@ios_base@std@@QBE_NXZ
  000b8	3b f4		 cmp	 esi, esp
  000ba	e8 00 00 00 00	 call	 __RTC_CheckEsp
  000bf	8b 4d f0	 mov	 ecx, DWORD PTR _this$[ebp]
  000c2	88 41 04	 mov	 BYTE PTR [ecx+4], al

; 92   : 			}

  000c5	c7 45 fc ff ff
	ff ff		 mov	 DWORD PTR __$EHRec$[ebp+8], -1
  000cc	8b 45 f0	 mov	 eax, DWORD PTR _this$[ebp]
  000cf	8b 4d f4	 mov	 ecx, DWORD PTR __$EHRec$[ebp]
  000d2	64 89 0d 00 00
	00 00		 mov	 DWORD PTR fs:__except_list, ecx
  000d9	5e		 pop	 esi
  000da	83 c4 10	 add	 esp, 16			; 00000010H
  000dd	3b ec		 cmp	 ebp, esp
  000df	e8 00 00 00 00	 call	 __RTC_CheckEsp
  000e4	8b e5		 mov	 esp, ebp
  000e6	5d		 pop	 ebp
  000e7	c2 04 00	 ret	 4
_TEXT	ENDS
;	COMDAT text$x
text$x	SEGMENT
$L89569:
  00000	8b 4d f0	 mov	 ecx, DWORD PTR _this$[ebp]
  00003	e9 00 00 00 00	 jmp	 ??1_Sentry_base@?$basic_ostream@DU?$char_traits@D@std@@@std@@QAE@XZ ; std::basic_ostream<char,std::char_traits<char> >::_Sentry_base::~_Sentry_base
__ehhandler$??0sentry@?$basic_ostream@DU?$char_traits@D@std@@@std@@QAE@AAV12@@Z:
  00008	b8 00 00 00 00	 mov	 eax, OFFSET FLAT:$T89571
  0000d	e9 00 00 00 00	 jmp	 ___CxxFrameHandler
text$x	ENDS
??0sentry@?$basic_ostream@DU?$char_traits@D@std@@@std@@QAE@AAV12@@Z ENDP ; std::basic_ostream<char,std::char_traits<char> >::sentry::sentry
EXTRN	__imp_?_Osfx@?$basic_ostream@DU?$char_traits@D@std@@@std@@QAEXXZ:NEAR
EXTRN	__imp_?uncaught_exception@std@@YA_NXZ:NEAR
;	COMDAT xdata$x
xdata$x	SEGMENT
$T89581	DD	0ffffffffH
	DD	FLAT:$L89577
$T89579	DD	019930520H
	DD	01H
	DD	FLAT:$T89581
	DD	2 DUP(00H)
	DD	2 DUP(00H)
; Function compile flags: /Odt /RTCsu
xdata$x	ENDS
;	COMDAT ??1sentry@?$basic_ostream@DU?$char_traits@D@std@@@std@@QAE@XZ
_TEXT	SEGMENT
_this$ = -16						; size = 4
__$EHRec$ = -12						; size = 12
??1sentry@?$basic_ostream@DU?$char_traits@D@std@@@std@@QAE@XZ PROC NEAR ; std::basic_ostream<char,std::char_traits<char> >::sentry::~sentry, COMDAT
; _this$ = ecx

; 95   : 			{	// destroy the object

  00000	55		 push	 ebp
  00001	8b ec		 mov	 ebp, esp
  00003	6a ff		 push	 -1
  00005	68 00 00 00 00	 push	 __ehhandler$??1sentry@?$basic_ostream@DU?$char_traits@D@std@@@std@@QAE@XZ
  0000a	64 a1 00 00 00
	00		 mov	 eax, DWORD PTR fs:__except_list
  00010	50		 push	 eax
  00011	64 89 25 00 00
	00 00		 mov	 DWORD PTR fs:__except_list, esp
  00018	51		 push	 ecx
  00019	56		 push	 esi
  0001a	c7 45 f0 cc cc
	cc cc		 mov	 DWORD PTR [ebp-16], -858993460 ; ccccccccH
  00021	89 4d f0	 mov	 DWORD PTR _this$[ebp], ecx
  00024	c7 45 fc 00 00
	00 00		 mov	 DWORD PTR __$EHRec$[ebp+8], 0

; 96   : 
; 97   :  #if _HAS_EXCEPTIONS
; 98   : 			if (!uncaught_exception())

  0002b	8b f4		 mov	 esi, esp
  0002d	ff 15 00 00 00
	00		 call	 DWORD PTR __imp_?uncaught_exception@std@@YA_NXZ
  00033	3b f4		 cmp	 esi, esp
  00035	e8 00 00 00 00	 call	 __RTC_CheckEsp
  0003a	0f b6 c0	 movzx	 eax, al
  0003d	85 c0		 test	 eax, eax
  0003f	75 14		 jne	 SHORT $L86646

; 99   : 				this->_Myostr._Osfx();

  00041	8b 4d f0	 mov	 ecx, DWORD PTR _this$[ebp]
  00044	8b 09		 mov	 ecx, DWORD PTR [ecx]
  00046	8b f4		 mov	 esi, esp
  00048	ff 15 00 00 00
	00		 call	 DWORD PTR __imp_?_Osfx@?$basic_ostream@DU?$char_traits@D@std@@@std@@QAEXXZ
  0004e	3b f4		 cmp	 esi, esp
  00050	e8 00 00 00 00	 call	 __RTC_CheckEsp
$L86646:

; 100  : 			}

  00055	c7 45 fc ff ff
	ff ff		 mov	 DWORD PTR __$EHRec$[ebp+8], -1
  0005c	8b 4d f0	 mov	 ecx, DWORD PTR _this$[ebp]
  0005f	e8 00 00 00 00	 call	 ??1_Sentry_base@?$basic_ostream@DU?$char_traits@D@std@@@std@@QAE@XZ ; std::basic_ostream<char,std::char_traits<char> >::_Sentry_base::~_Sentry_base
  00064	8b 4d f4	 mov	 ecx, DWORD PTR __$EHRec$[ebp]
  00067	64 89 0d 00 00
	00 00		 mov	 DWORD PTR fs:__except_list, ecx
  0006e	5e		 pop	 esi
  0006f	83 c4 10	 add	 esp, 16			; 00000010H
  00072	3b ec		 cmp	 ebp, esp
  00074	e8 00 00 00 00	 call	 __RTC_CheckEsp
  00079	8b e5		 mov	 esp, ebp
  0007b	5d		 pop	 ebp
  0007c	c3		 ret	 0
_TEXT	ENDS
;	COMDAT text$x
text$x	SEGMENT
$L89577:
  00000	8b 4d f0	 mov	 ecx, DWORD PTR _this$[ebp]
  00003	e9 00 00 00 00	 jmp	 ??1_Sentry_base@?$basic_ostream@DU?$char_traits@D@std@@@std@@QAE@XZ ; std::basic_ostream<char,std::char_traits<char> >::_Sentry_base::~_Sentry_base
__ehhandler$??1sentry@?$basic_ostream@DU?$char_traits@D@std@@@std@@QAE@XZ:
  00008	b8 00 00 00 00	 mov	 eax, OFFSET FLAT:$T89579
  0000d	e9 00 00 00 00	 jmp	 ___CxxFrameHandler
text$x	ENDS
??1sentry@?$basic_ostream@DU?$char_traits@D@std@@@std@@QAE@XZ ENDP ; std::basic_ostream<char,std::char_traits<char> >::sentry::~sentry
; Function compile flags: /Odt /RTCsu
;	COMDAT ??Bsentry@?$basic_ostream@DU?$char_traits@D@std@@@std@@QBE_NXZ
_TEXT	SEGMENT
_this$ = -4						; size = 4
??Bsentry@?$basic_ostream@DU?$char_traits@D@std@@@std@@QBE_NXZ PROC NEAR ; std::basic_ostream<char,std::char_traits<char> >::sentry::operator bool, COMDAT
; _this$ = ecx

; 108  : 			{	// test if stream state okay

  00000	55		 push	 ebp
  00001	8b ec		 mov	 ebp, esp
  00003	51		 push	 ecx
  00004	c7 45 fc cc cc
	cc cc		 mov	 DWORD PTR [ebp-4], -858993460 ; ccccccccH
  0000b	89 4d fc	 mov	 DWORD PTR _this$[ebp], ecx

; 109  : 			return (_Ok);

  0000e	8b 45 fc	 mov	 eax, DWORD PTR _this$[ebp]
  00011	8a 40 04	 mov	 al, BYTE PTR [eax+4]

; 110  : 			}

  00014	8b e5		 mov	 esp, ebp
  00016	5d		 pop	 ebp
  00017	c3		 ret	 0
??Bsentry@?$basic_ostream@DU?$char_traits@D@std@@@std@@QBE_NXZ ENDP ; std::basic_ostream<char,std::char_traits<char> >::sentry::operator bool
; Function compile flags: /Odt /RTCsu
_TEXT	ENDS
;	COMDAT ??0_Sentry_base@?$basic_ostream@DU?$char_traits@D@std@@@std@@QAE@AAV12@@Z
_TEXT	SEGMENT
_this$ = -4						; size = 4
__Ostr$ = 8						; size = 4
??0_Sentry_base@?$basic_ostream@DU?$char_traits@D@std@@@std@@QAE@AAV12@@Z PROC NEAR ; std::basic_ostream<char,std::char_traits<char> >::_Sentry_base::_Sentry_base, COMDAT
; _this$ = ecx

; 68   : 			{	// lock the stream buffer, if there

  00000	55		 push	 ebp
  00001	8b ec		 mov	 ebp, esp
  00003	51		 push	 ecx
  00004	56		 push	 esi
  00005	c7 45 fc cc cc
	cc cc		 mov	 DWORD PTR [ebp-4], -858993460 ; ccccccccH
  0000c	89 4d fc	 mov	 DWORD PTR _this$[ebp], ecx
  0000f	8b 45 fc	 mov	 eax, DWORD PTR _this$[ebp]
  00012	8b 4d 08	 mov	 ecx, DWORD PTR __Ostr$[ebp]
  00015	89 08		 mov	 DWORD PTR [eax], ecx

; 69   : 			if (_Myostr.rdbuf() != 0)

  00017	8b 55 fc	 mov	 edx, DWORD PTR _this$[ebp]
  0001a	8b 02		 mov	 eax, DWORD PTR [edx]
  0001c	8b 08		 mov	 ecx, DWORD PTR [eax]
  0001e	8b 55 fc	 mov	 edx, DWORD PTR _this$[ebp]
  00021	8b 02		 mov	 eax, DWORD PTR [edx]
  00023	03 41 04	 add	 eax, DWORD PTR [ecx+4]
  00026	8b f4		 mov	 esi, esp
  00028	8b c8		 mov	 ecx, eax
  0002a	ff 15 00 00 00
	00		 call	 DWORD PTR __imp_?rdbuf@?$basic_ios@DU?$char_traits@D@std@@@std@@QBEPAV?$basic_streambuf@DU?$char_traits@D@std@@@2@XZ
  00030	3b f4		 cmp	 esi, esp
  00032	e8 00 00 00 00	 call	 __RTC_CheckEsp
  00037	85 c0		 test	 eax, eax
  00039	74 2f		 je	 SHORT $L86991

; 70   : 				_Myostr.rdbuf()->_Lock();

  0003b	8b 4d fc	 mov	 ecx, DWORD PTR _this$[ebp]
  0003e	8b 11		 mov	 edx, DWORD PTR [ecx]
  00040	8b 02		 mov	 eax, DWORD PTR [edx]
  00042	8b 4d fc	 mov	 ecx, DWORD PTR _this$[ebp]
  00045	8b 09		 mov	 ecx, DWORD PTR [ecx]
  00047	03 48 04	 add	 ecx, DWORD PTR [eax+4]
  0004a	8b f4		 mov	 esi, esp
  0004c	ff 15 00 00 00
	00		 call	 DWORD PTR __imp_?rdbuf@?$basic_ios@DU?$char_traits@D@std@@@std@@QBEPAV?$basic_streambuf@DU?$char_traits@D@std@@@2@XZ
  00052	3b f4		 cmp	 esi, esp
  00054	e8 00 00 00 00	 call	 __RTC_CheckEsp
  00059	8b f4		 mov	 esi, esp
  0005b	8b c8		 mov	 ecx, eax
  0005d	ff 15 00 00 00
	00		 call	 DWORD PTR __imp_?_Lock@?$basic_streambuf@DU?$char_traits@D@std@@@std@@QAEXXZ
  00063	3b f4		 cmp	 esi, esp
  00065	e8 00 00 00 00	 call	 __RTC_CheckEsp
$L86991:

; 71   : 			}

  0006a	8b 45 fc	 mov	 eax, DWORD PTR _this$[ebp]
  0006d	5e		 pop	 esi
  0006e	83 c4 04	 add	 esp, 4
  00071	3b ec		 cmp	 ebp, esp
  00073	e8 00 00 00 00	 call	 __RTC_CheckEsp
  00078	8b e5		 mov	 esp, ebp
  0007a	5d		 pop	 ebp
  0007b	c2 04 00	 ret	 4
??0_Sentry_base@?$basic_ostream@DU?$char_traits@D@std@@@std@@QAE@AAV12@@Z ENDP ; std::basic_ostream<char,std::char_traits<char> >::_Sentry_base::_Sentry_base
; Function compile flags: /Odt /RTCsu
_TEXT	ENDS
;	COMDAT ??1_Sentry_base@?$basic_ostream@DU?$char_traits@D@std@@@std@@QAE@XZ
_TEXT	SEGMENT
_this$ = -4						; size = 4
??1_Sentry_base@?$basic_ostream@DU?$char_traits@D@std@@@std@@QAE@XZ PROC NEAR ; std::basic_ostream<char,std::char_traits<char> >::_Sentry_base::~_Sentry_base, COMDAT
; _this$ = ecx

; 74   : 			{	// destroy after unlocking

  00000	55		 push	 ebp
  00001	8b ec		 mov	 ebp, esp
  00003	51		 push	 ecx
  00004	56		 push	 esi
  00005	c7 45 fc cc cc
	cc cc		 mov	 DWORD PTR [ebp-4], -858993460 ; ccccccccH
  0000c	89 4d fc	 mov	 DWORD PTR _this$[ebp], ecx

; 75   : 			if (_Myostr.rdbuf() != 0)

  0000f	8b 45 fc	 mov	 eax, DWORD PTR _this$[ebp]
  00012	8b 08		 mov	 ecx, DWORD PTR [eax]
  00014	8b 11		 mov	 edx, DWORD PTR [ecx]
  00016	8b 45 fc	 mov	 eax, DWORD PTR _this$[ebp]
  00019	8b 08		 mov	 ecx, DWORD PTR [eax]
  0001b	03 4a 04	 add	 ecx, DWORD PTR [edx+4]
  0001e	8b f4		 mov	 esi, esp
  00020	ff 15 00 00 00
	00		 call	 DWORD PTR __imp_?rdbuf@?$basic_ios@DU?$char_traits@D@std@@@std@@QBEPAV?$basic_streambuf@DU?$char_traits@D@std@@@2@XZ
  00026	3b f4		 cmp	 esi, esp
  00028	e8 00 00 00 00	 call	 __RTC_CheckEsp
  0002d	85 c0		 test	 eax, eax
  0002f	74 2f		 je	 SHORT $L86994

; 76   : 				_Myostr.rdbuf()->_Unlock();

  00031	8b 4d fc	 mov	 ecx, DWORD PTR _this$[ebp]
  00034	8b 11		 mov	 edx, DWORD PTR [ecx]
  00036	8b 02		 mov	 eax, DWORD PTR [edx]
  00038	8b 4d fc	 mov	 ecx, DWORD PTR _this$[ebp]
  0003b	8b 09		 mov	 ecx, DWORD PTR [ecx]
  0003d	03 48 04	 add	 ecx, DWORD PTR [eax+4]
  00040	8b f4		 mov	 esi, esp
  00042	ff 15 00 00 00
	00		 call	 DWORD PTR __imp_?rdbuf@?$basic_ios@DU?$char_traits@D@std@@@std@@QBEPAV?$basic_streambuf@DU?$char_traits@D@std@@@2@XZ
  00048	3b f4		 cmp	 esi, esp
  0004a	e8 00 00 00 00	 call	 __RTC_CheckEsp
  0004f	8b f4		 mov	 esi, esp
  00051	8b c8		 mov	 ecx, eax
  00053	ff 15 00 00 00
	00		 call	 DWORD PTR __imp_?_Unlock@?$basic_streambuf@DU?$char_traits@D@std@@@std@@QAEXXZ
  00059	3b f4		 cmp	 esi, esp
  0005b	e8 00 00 00 00	 call	 __RTC_CheckEsp
$L86994:

; 77   : 			}

  00060	5e		 pop	 esi
  00061	83 c4 04	 add	 esp, 4
  00064	3b ec		 cmp	 ebp, esp
  00066	e8 00 00 00 00	 call	 __RTC_CheckEsp
  0006b	8b e5		 mov	 esp, ebp
  0006d	5d		 pop	 ebp
  0006e	c3		 ret	 0
??1_Sentry_base@?$basic_ostream@DU?$char_traits@D@std@@@std@@QAE@XZ ENDP ; std::basic_ostream<char,std::char_traits<char> >::_Sentry_base::~_Sentry_base
_TEXT	ENDS
PUBLIC	??0sentry@?$basic_istream@_WU?$char_traits@_W@std@@@std@@QAE@AAV12@_N@Z ; std::basic_istream<wchar_t,std::char_traits<wchar_t> >::sentry::sentry
PUBLIC	??Bsentry@?$basic_istream@_WU?$char_traits@_W@std@@@std@@QBE_NXZ ; std::basic_istream<wchar_t,std::char_traits<wchar_t> >::sentry::operator bool
PUBLIC	??1sentry@?$basic_istream@_WU?$char_traits@_W@std@@@std@@QAE@XZ ; std::basic_istream<wchar_t,std::char_traits<wchar_t> >::sentry::~sentry
PUBLIC	??$use_facet@V?$ctype@_W@std@@@std@@YAABV?$ctype@_W@0@ABVlocale@0@@Z ; std::use_facet<std::ctype<wchar_t> >
PUBLIC	??$?5_WU?$char_traits@_W@std@@V?$allocator@_W@1@@std@@YAAAV?$basic_istream@_WU?$char_traits@_W@std@@@0@AAV10@AAV?$basic_string@_WU?$char_traits@_W@std@@V?$allocator@_W@2@@0@@Z ; std::operator>><wchar_t,std::char_traits<wchar_t>,std::allocator<wchar_t> >
EXTRN	__imp_?sgetc@?$basic_streambuf@_WU?$char_traits@_W@std@@@std@@QAEGXZ:NEAR
EXTRN	__imp_?snextc@?$basic_streambuf@_WU?$char_traits@_W@std@@@std@@QAEGXZ:NEAR
EXTRN	__imp_?to_char_type@?$char_traits@_W@std@@SA_WABG@Z:NEAR
EXTRN	__imp_?eq_int_type@?$char_traits@_W@std@@SA_NABG0@Z:NEAR
EXTRN	__imp_?eof@?$char_traits@_W@std@@SAGXZ:NEAR
EXTRN	__imp_?setstate@?$basic_ios@_WU?$char_traits@_W@std@@@std@@QAEXH_N@Z:NEAR
EXTRN	__imp_?rdbuf@?$basic_ios@_WU?$char_traits@_W@std@@@std@@QBEPAV?$basic_streambuf@_WU?$char_traits@_W@std@@@2@XZ:NEAR
EXTRN	__imp_?npos@?$basic_string@_WU?$char_traits@_W@std@@V?$allocator@_W@2@@std@@2IB:DWORD
EXTRN	__imp_?append@?$basic_string@_WU?$char_traits@_W@std@@V?$allocator@_W@2@@std@@QAEAAV12@I_W@Z:NEAR
EXTRN	__imp_?erase@?$basic_string@_WU?$char_traits@_W@std@@V?$allocator@_W@2@@std@@QAEAAV12@II@Z:NEAR
EXTRN	__imp_?max_size@?$basic_string@_WU?$char_traits@_W@std@@V?$allocator@_W@2@@std@@QBEIXZ:NEAR
EXTRN	__imp_?is@?$ctype@_W@std@@QBE_NF_W@Z:NEAR
;	COMDAT xdata$x
; File d:\program files (x86)\microsoft visual studio .net 2003\vc7\include\string
xdata$x	SEGMENT
$T89604	DD	0ffffffffH
	DD	FLAT:$L89595
	DD	00H
	DD	FLAT:$L89596
	DD	00H
	DD	00H
	DD	00H
	DD	00H
$T89606	DD	00H
	DD	00H
	DD	00H
	DD	FLAT:$L89594
$T89605	DD	02H
	DD	02H
	DD	03H
	DD	01H
	DD	FLAT:$T89606
$T89598	DD	019930520H
	DD	04H
	DD	FLAT:$T89604
	DD	01H
	DD	FLAT:$T89605
	DD	2 DUP(00H)
; Function compile flags: /Odt /RTCsu
xdata$x	ENDS
;	COMDAT ??$?5_WU?$char_traits@_W@std@@V?$allocator@_W@1@@std@@YAAAV?$basic_istream@_WU?$char_traits@_W@std@@@0@AAV10@AAV?$basic_string@_WU?$char_traits@_W@std@@V?$allocator@_W@2@@0@@Z
_TEXT	SEGMENT
tv207 = -128						; size = 2
tv206 = -125						; size = 1
tv205 = -124						; size = 2
tv204 = -121						; size = 1
tv203 = -120						; size = 2
tv202 = -118						; size = 2
tv201 = -116						; size = 4
tv200 = -110						; size = 2
tv199 = -108						; size = 4
tv198 = -104						; size = 4
tv135 = -100						; size = 4
tv197 = -96						; size = 4
tv196 = -92						; size = 4
tv195 = -88						; size = 4
tv194 = -84						; size = 4
tv189 = -80						; size = 4
tv65 = -76						; size = 4
$T89592 = -72						; size = 4
$T89591 = -66						; size = 2
$T89588 = -64						; size = 4
__Meta$87457 = -56					; size = 2
__Size$87454 = -48					; size = 4
__Ctype_fac$87451 = -44					; size = 4
__Ok$ = -36						; size = 8
__Changed$ = -21					; size = 1
__State$ = -20						; size = 4
__$EHRec$ = -16						; size = 16
__Istr$ = 8						; size = 4
__Str$ = 12						; size = 4
??$?5_WU?$char_traits@_W@std@@V?$allocator@_W@1@@std@@YAAAV?$basic_istream@_WU?$char_traits@_W@std@@@0@AAV10@AAV?$basic_string@_WU?$char_traits@_W@std@@V?$allocator@_W@2@@0@@Z PROC NEAR ; std::operator>><wchar_t,std::char_traits<wchar_t>,std::allocator<wchar_t> >, COMDAT

; 425  : 	{	// extract a string

  00000	55		 push	 ebp
  00001	8b ec		 mov	 ebp, esp
  00003	6a ff		 push	 -1
  00005	68 00 00 00 00	 push	 __ehhandler$??$?5_WU?$char_traits@_W@std@@V?$allocator@_W@1@@std@@YAAAV?$basic_istream@_WU?$char_traits@_W@std@@@0@AAV10@AAV?$basic_string@_WU?$char_traits@_W@std@@V?$allocator@_W@2@@0@@Z
  0000a	64 a1 00 00 00
	00		 mov	 eax, DWORD PTR fs:__except_list
  00010	50		 push	 eax
  00011	64 89 25 00 00
	00 00		 mov	 DWORD PTR fs:__except_list, esp
  00018	51		 push	 ecx
  00019	83 ec 70	 sub	 esp, 112		; 00000070H
  0001c	53		 push	 ebx
  0001d	56		 push	 esi
  0001e	57		 push	 edi
  0001f	8d 7d 80	 lea	 edi, DWORD PTR [ebp-128]
  00022	b9 1c 00 00 00	 mov	 ecx, 28			; 0000001cH
  00027	b8 cc cc cc cc	 mov	 eax, -858993460		; ccccccccH
  0002c	f3 ab		 rep stosd
  0002e	89 65 f0	 mov	 DWORD PTR __$EHRec$[ebp], esp

; 426  : 	typedef ctype<_Elem> _Ctype;
; 427  : 	typedef basic_istream<_Elem, _Traits> _Myis;
; 428  : 	typedef basic_string<_Elem, _Traits, _Alloc> _Mystr;
; 429  : 	typedef typename _Mystr::size_type _Mysizt;
; 430  : 
; 431  : 	ios_base::iostate _State = ios_base::goodbit;

  00031	c7 45 ec 00 00
	00 00		 mov	 DWORD PTR __State$[ebp], 0

; 432  : 	bool _Changed = false;

  00038	c6 45 eb 00	 mov	 BYTE PTR __Changed$[ebp], 0

; 433  : 	const typename _Myis::sentry _Ok(_Istr);

  0003c	6a 00		 push	 0
  0003e	8b 45 08	 mov	 eax, DWORD PTR __Istr$[ebp]
  00041	50		 push	 eax
  00042	8d 4d dc	 lea	 ecx, DWORD PTR __Ok$[ebp]
  00045	e8 00 00 00 00	 call	 ??0sentry@?$basic_istream@_WU?$char_traits@_W@std@@@std@@QAE@AAV12@_N@Z ; std::basic_istream<wchar_t,std::char_traits<wchar_t> >::sentry::sentry
  0004a	c7 45 fc 00 00
	00 00		 mov	 DWORD PTR __$EHRec$[ebp+12], 0

; 434  : 
; 435  : 	if (_Ok)

  00051	8d 4d dc	 lea	 ecx, DWORD PTR __Ok$[ebp]
  00054	e8 00 00 00 00	 call	 ??Bsentry@?$basic_istream@_WU?$char_traits@_W@std@@@std@@QBE_NXZ ; std::basic_istream<wchar_t,std::char_traits<wchar_t> >::sentry::operator bool
  00059	0f b6 c8	 movzx	 ecx, al
  0005c	85 c9		 test	 ecx, ecx
  0005e	0f 84 94 02 00
	00		 je	 $L89593

; 436  : 		{	// state okay, extract characters
; 437  : 		const _Ctype& _Ctype_fac = _USE(_Istr.getloc(), _Ctype);

  00064	8b f4		 mov	 esi, esp
  00066	8d 55 c0	 lea	 edx, DWORD PTR $T89588[ebp]
  00069	52		 push	 edx
  0006a	8b 45 08	 mov	 eax, DWORD PTR __Istr$[ebp]
  0006d	8b 08		 mov	 ecx, DWORD PTR [eax]
  0006f	8b 55 08	 mov	 edx, DWORD PTR __Istr$[ebp]
  00072	03 51 04	 add	 edx, DWORD PTR [ecx+4]
  00075	8b ca		 mov	 ecx, edx
  00077	ff 15 00 00 00
	00		 call	 DWORD PTR __imp_?getloc@ios_base@std@@QBE?AVlocale@2@XZ
  0007d	3b f4		 cmp	 esi, esp
  0007f	e8 00 00 00 00	 call	 __RTC_CheckEsp
  00084	89 45 b4	 mov	 DWORD PTR tv65[ebp], eax
  00087	8b 45 b4	 mov	 eax, DWORD PTR tv65[ebp]
  0008a	89 45 b0	 mov	 DWORD PTR tv189[ebp], eax
  0008d	c6 45 fc 01	 mov	 BYTE PTR __$EHRec$[ebp+12], 1
  00091	8b 4d b0	 mov	 ecx, DWORD PTR tv189[ebp]
  00094	51		 push	 ecx
  00095	e8 00 00 00 00	 call	 ??$use_facet@V?$ctype@_W@std@@@std@@YAABV?$ctype@_W@0@ABVlocale@0@@Z ; std::use_facet<std::ctype<wchar_t> >
  0009a	83 c4 04	 add	 esp, 4
  0009d	89 45 d4	 mov	 DWORD PTR __Ctype_fac$87451[ebp], eax
  000a0	c6 45 fc 00	 mov	 BYTE PTR __$EHRec$[ebp+12], 0
  000a4	8b f4		 mov	 esi, esp
  000a6	8d 4d c0	 lea	 ecx, DWORD PTR $T89588[ebp]
  000a9	ff 15 00 00 00
	00		 call	 DWORD PTR __imp_??1locale@std@@QAE@XZ
  000af	3b f4		 cmp	 esi, esp
  000b1	e8 00 00 00 00	 call	 __RTC_CheckEsp

; 438  : 		_Str.erase();

  000b6	8b f4		 mov	 esi, esp
  000b8	8b 15 00 00 00
	00		 mov	 edx, DWORD PTR __imp_?npos@?$basic_string@_WU?$char_traits@_W@std@@V?$allocator@_W@2@@std@@2IB
  000be	8b 02		 mov	 eax, DWORD PTR [edx]
  000c0	50		 push	 eax
  000c1	6a 00		 push	 0
  000c3	8b 4d 0c	 mov	 ecx, DWORD PTR __Str$[ebp]
  000c6	ff 15 00 00 00
	00		 call	 DWORD PTR __imp_?erase@?$basic_string@_WU?$char_traits@_W@std@@V?$allocator@_W@2@@std@@QAEAAV12@II@Z
  000cc	3b f4		 cmp	 esi, esp
  000ce	e8 00 00 00 00	 call	 __RTC_CheckEsp

; 439  : 
; 440  : 		_TRY_IO_BEGIN

  000d3	c6 45 fc 02	 mov	 BYTE PTR __$EHRec$[ebp+12], 2

; 441  : 		_Mysizt _Size = 0 < _Istr.width()
; 442  : 			&& (_Mysizt)_Istr.width() < _Str.max_size()
; 443  : 				? (_Mysizt)_Istr.width() : _Str.max_size();

  000d7	8b 4d 08	 mov	 ecx, DWORD PTR __Istr$[ebp]
  000da	8b 11		 mov	 edx, DWORD PTR [ecx]
  000dc	8b 4d 08	 mov	 ecx, DWORD PTR __Istr$[ebp]
  000df	03 4a 04	 add	 ecx, DWORD PTR [edx+4]
  000e2	8b f4		 mov	 esi, esp
  000e4	ff 15 00 00 00
	00		 call	 DWORD PTR __imp_?width@ios_base@std@@QBEHXZ
  000ea	3b f4		 cmp	 esi, esp
  000ec	e8 00 00 00 00	 call	 __RTC_CheckEsp
  000f1	89 45 ac	 mov	 DWORD PTR tv194[ebp], eax
  000f4	83 7d ac 00	 cmp	 DWORD PTR tv194[ebp], 0
  000f8	7e 61		 jle	 SHORT $L89589
  000fa	8b 45 08	 mov	 eax, DWORD PTR __Istr$[ebp]
  000fd	8b 08		 mov	 ecx, DWORD PTR [eax]
  000ff	8b 55 08	 mov	 edx, DWORD PTR __Istr$[ebp]
  00102	03 51 04	 add	 edx, DWORD PTR [ecx+4]
  00105	8b f4		 mov	 esi, esp
  00107	8b ca		 mov	 ecx, edx
  00109	ff 15 00 00 00
	00		 call	 DWORD PTR __imp_?width@ios_base@std@@QBEHXZ
  0010f	3b f4		 cmp	 esi, esp
  00111	e8 00 00 00 00	 call	 __RTC_CheckEsp
  00116	89 45 a8	 mov	 DWORD PTR tv195[ebp], eax
  00119	8b f4		 mov	 esi, esp
  0011b	8b 4d 0c	 mov	 ecx, DWORD PTR __Str$[ebp]
  0011e	ff 15 00 00 00
	00		 call	 DWORD PTR __imp_?max_size@?$basic_string@_WU?$char_traits@_W@std@@V?$allocator@_W@2@@std@@QBEIXZ
  00124	3b f4		 cmp	 esi, esp
  00126	e8 00 00 00 00	 call	 __RTC_CheckEsp
  0012b	89 45 a4	 mov	 DWORD PTR tv196[ebp], eax
  0012e	8b 45 a8	 mov	 eax, DWORD PTR tv195[ebp]
  00131	3b 45 a4	 cmp	 eax, DWORD PTR tv196[ebp]
  00134	73 25		 jae	 SHORT $L89589
  00136	8b 4d 08	 mov	 ecx, DWORD PTR __Istr$[ebp]
  00139	8b 11		 mov	 edx, DWORD PTR [ecx]
  0013b	8b 4d 08	 mov	 ecx, DWORD PTR __Istr$[ebp]
  0013e	03 4a 04	 add	 ecx, DWORD PTR [edx+4]
  00141	8b f4		 mov	 esi, esp
  00143	ff 15 00 00 00
	00		 call	 DWORD PTR __imp_?width@ios_base@std@@QBEHXZ
  00149	3b f4		 cmp	 esi, esp
  0014b	e8 00 00 00 00	 call	 __RTC_CheckEsp
  00150	89 45 a0	 mov	 DWORD PTR tv197[ebp], eax
  00153	8b 45 a0	 mov	 eax, DWORD PTR tv197[ebp]
  00156	89 45 9c	 mov	 DWORD PTR tv135[ebp], eax
  00159	eb 1b		 jmp	 SHORT $L89590
$L89589:
  0015b	8b f4		 mov	 esi, esp
  0015d	8b 4d 0c	 mov	 ecx, DWORD PTR __Str$[ebp]
  00160	ff 15 00 00 00
	00		 call	 DWORD PTR __imp_?max_size@?$basic_string@_WU?$char_traits@_W@std@@V?$allocator@_W@2@@std@@QBEIXZ
  00166	3b f4		 cmp	 esi, esp
  00168	e8 00 00 00 00	 call	 __RTC_CheckEsp
  0016d	89 45 98	 mov	 DWORD PTR tv198[ebp], eax
  00170	8b 4d 98	 mov	 ecx, DWORD PTR tv198[ebp]
  00173	89 4d 9c	 mov	 DWORD PTR tv135[ebp], ecx
$L89590:
  00176	8b 55 9c	 mov	 edx, DWORD PTR tv135[ebp]
  00179	89 55 d0	 mov	 DWORD PTR __Size$87454[ebp], edx

; 444  : 		typename _Traits::int_type _Meta = _Istr.rdbuf()->sgetc();

  0017c	8b 45 08	 mov	 eax, DWORD PTR __Istr$[ebp]
  0017f	8b 08		 mov	 ecx, DWORD PTR [eax]
  00181	8b 55 08	 mov	 edx, DWORD PTR __Istr$[ebp]
  00184	03 51 04	 add	 edx, DWORD PTR [ecx+4]
  00187	8b f4		 mov	 esi, esp
  00189	8b ca		 mov	 ecx, edx
  0018b	ff 15 00 00 00
	00		 call	 DWORD PTR __imp_?rdbuf@?$basic_ios@_WU?$char_traits@_W@std@@@std@@QBEPAV?$basic_streambuf@_WU?$char_traits@_W@std@@@2@XZ
  00191	3b f4		 cmp	 esi, esp
  00193	e8 00 00 00 00	 call	 __RTC_CheckEsp
  00198	89 45 94	 mov	 DWORD PTR tv199[ebp], eax
  0019b	8b f4		 mov	 esi, esp
  0019d	8b 4d 94	 mov	 ecx, DWORD PTR tv199[ebp]
  001a0	ff 15 00 00 00
	00		 call	 DWORD PTR __imp_?sgetc@?$basic_streambuf@_WU?$char_traits@_W@std@@@std@@QAEGXZ
  001a6	3b f4		 cmp	 esi, esp
  001a8	e8 00 00 00 00	 call	 __RTC_CheckEsp
  001ad	66 89 45 92	 mov	 WORD PTR tv200[ebp], ax
  001b1	66 8b 45 92	 mov	 ax, WORD PTR tv200[ebp]
  001b5	66 89 45 c8	 mov	 WORD PTR __Meta$87457[ebp], ax

; 445  : 
; 446  : 		for (; 0 < _Size; --_Size, _Meta = _Istr.rdbuf()->snextc())

  001b9	eb 44		 jmp	 SHORT $L87458
$L87459:
  001bb	8b 4d d0	 mov	 ecx, DWORD PTR __Size$87454[ebp]
  001be	83 e9 01	 sub	 ecx, 1
  001c1	89 4d d0	 mov	 DWORD PTR __Size$87454[ebp], ecx
  001c4	8b 55 08	 mov	 edx, DWORD PTR __Istr$[ebp]
  001c7	8b 02		 mov	 eax, DWORD PTR [edx]
  001c9	8b 4d 08	 mov	 ecx, DWORD PTR __Istr$[ebp]
  001cc	03 48 04	 add	 ecx, DWORD PTR [eax+4]
  001cf	8b f4		 mov	 esi, esp
  001d1	ff 15 00 00 00
	00		 call	 DWORD PTR __imp_?rdbuf@?$basic_ios@_WU?$char_traits@_W@std@@@std@@QBEPAV?$basic_streambuf@_WU?$char_traits@_W@std@@@2@XZ
  001d7	3b f4		 cmp	 esi, esp
  001d9	e8 00 00 00 00	 call	 __RTC_CheckEsp
  001de	89 45 8c	 mov	 DWORD PTR tv201[ebp], eax
  001e1	8b f4		 mov	 esi, esp
  001e3	8b 4d 8c	 mov	 ecx, DWORD PTR tv201[ebp]
  001e6	ff 15 00 00 00
	00		 call	 DWORD PTR __imp_?snextc@?$basic_streambuf@_WU?$char_traits@_W@std@@@std@@QAEGXZ
  001ec	3b f4		 cmp	 esi, esp
  001ee	e8 00 00 00 00	 call	 __RTC_CheckEsp
  001f3	66 89 45 8a	 mov	 WORD PTR tv202[ebp], ax
  001f7	66 8b 4d 8a	 mov	 cx, WORD PTR tv202[ebp]
  001fb	66 89 4d c8	 mov	 WORD PTR __Meta$87457[ebp], cx
$L87458:
  001ff	83 7d d0 00	 cmp	 DWORD PTR __Size$87454[ebp], 0
  00203	0f 86 c7 00 00
	00		 jbe	 $L87460

; 447  : 			if(_Traits::eq_int_type(_Traits::eof(), _Meta))

  00209	8b f4		 mov	 esi, esp
  0020b	ff 15 00 00 00
	00		 call	 DWORD PTR __imp_?eof@?$char_traits@_W@std@@SAGXZ
  00211	3b f4		 cmp	 esi, esp
  00213	e8 00 00 00 00	 call	 __RTC_CheckEsp
  00218	66 89 45 88	 mov	 WORD PTR tv203[ebp], ax
  0021c	66 8b 55 88	 mov	 dx, WORD PTR tv203[ebp]
  00220	66 89 55 be	 mov	 WORD PTR $T89591[ebp], dx
  00224	8b f4		 mov	 esi, esp
  00226	8d 45 c8	 lea	 eax, DWORD PTR __Meta$87457[ebp]
  00229	50		 push	 eax
  0022a	8d 4d be	 lea	 ecx, DWORD PTR $T89591[ebp]
  0022d	51		 push	 ecx
  0022e	ff 15 00 00 00
	00		 call	 DWORD PTR __imp_?eq_int_type@?$char_traits@_W@std@@SA_NABG0@Z
  00234	83 c4 08	 add	 esp, 8
  00237	3b f4		 cmp	 esi, esp
  00239	e8 00 00 00 00	 call	 __RTC_CheckEsp
  0023e	88 45 87	 mov	 BYTE PTR tv204[ebp], al
  00241	0f b6 55 87	 movzx	 edx, BYTE PTR tv204[ebp]
  00245	85 d2		 test	 edx, edx
  00247	74 0b		 je	 SHORT $L87462

; 448  : 				{	// end of file, quit
; 449  : 				_State |= ios_base::eofbit;

  00249	8b 45 ec	 mov	 eax, DWORD PTR __State$[ebp]
  0024c	83 c8 01	 or	 eax, 1
  0024f	89 45 ec	 mov	 DWORD PTR __State$[ebp], eax

; 450  : 				break;

  00252	eb 7c		 jmp	 SHORT $L87460
$L87462:

; 451  : 				}
; 452  : 			else if (_Ctype_fac.is(_Ctype::space,
; 453  : 				_Traits::to_char_type(_Meta)))

  00254	8b f4		 mov	 esi, esp
  00256	8d 4d c8	 lea	 ecx, DWORD PTR __Meta$87457[ebp]
  00259	51		 push	 ecx
  0025a	ff 15 00 00 00
	00		 call	 DWORD PTR __imp_?to_char_type@?$char_traits@_W@std@@SA_WABG@Z
  00260	83 c4 04	 add	 esp, 4
  00263	3b f4		 cmp	 esi, esp
  00265	e8 00 00 00 00	 call	 __RTC_CheckEsp
  0026a	66 89 45 84	 mov	 WORD PTR tv205[ebp], ax
  0026e	8b f4		 mov	 esi, esp
  00270	66 8b 55 84	 mov	 dx, WORD PTR tv205[ebp]
  00274	52		 push	 edx
  00275	6a 48		 push	 72			; 00000048H
  00277	8b 4d d4	 mov	 ecx, DWORD PTR __Ctype_fac$87451[ebp]
  0027a	ff 15 00 00 00
	00		 call	 DWORD PTR __imp_?is@?$ctype@_W@std@@QBE_NF_W@Z
  00280	3b f4		 cmp	 esi, esp
  00282	e8 00 00 00 00	 call	 __RTC_CheckEsp
  00287	88 45 83	 mov	 BYTE PTR tv206[ebp], al
  0028a	0f b6 45 83	 movzx	 eax, BYTE PTR tv206[ebp]
  0028e	85 c0		 test	 eax, eax
  00290	74 02		 je	 SHORT $L87464

; 454  : 				break;	// whitespace, quit

  00292	eb 3c		 jmp	 SHORT $L87460
$L87464:

; 455  : 			else
; 456  : 				{	// add character to string
; 457  : 				_Str.append(1, _Traits::to_char_type(_Meta));

  00294	8b f4		 mov	 esi, esp
  00296	8d 4d c8	 lea	 ecx, DWORD PTR __Meta$87457[ebp]
  00299	51		 push	 ecx
  0029a	ff 15 00 00 00
	00		 call	 DWORD PTR __imp_?to_char_type@?$char_traits@_W@std@@SA_WABG@Z
  002a0	83 c4 04	 add	 esp, 4
  002a3	3b f4		 cmp	 esi, esp
  002a5	e8 00 00 00 00	 call	 __RTC_CheckEsp
  002aa	66 89 45 80	 mov	 WORD PTR tv207[ebp], ax
  002ae	8b f4		 mov	 esi, esp
  002b0	66 8b 55 80	 mov	 dx, WORD PTR tv207[ebp]
  002b4	52		 push	 edx
  002b5	6a 01		 push	 1
  002b7	8b 4d 0c	 mov	 ecx, DWORD PTR __Str$[ebp]
  002ba	ff 15 00 00 00
	00		 call	 DWORD PTR __imp_?append@?$basic_string@_WU?$char_traits@_W@std@@V?$allocator@_W@2@@std@@QAEAAV12@I_W@Z
  002c0	3b f4		 cmp	 esi, esp
  002c2	e8 00 00 00 00	 call	 __RTC_CheckEsp

; 458  : 				_Changed = true;

  002c7	c6 45 eb 01	 mov	 BYTE PTR __Changed$[ebp], 1

; 459  : 				}

  002cb	e9 eb fe ff ff	 jmp	 $L87459
$L87460:
  002d0	eb 26		 jmp	 SHORT $L89593
$L89594:

; 460  : 		_CATCH_IO_(_Istr)

  002d2	8b f4		 mov	 esi, esp
  002d4	6a 01		 push	 1
  002d6	6a 04		 push	 4
  002d8	8b 45 08	 mov	 eax, DWORD PTR __Istr$[ebp]
  002db	8b 08		 mov	 ecx, DWORD PTR [eax]
  002dd	8b 55 08	 mov	 edx, DWORD PTR __Istr$[ebp]
  002e0	03 51 04	 add	 edx, DWORD PTR [ecx+4]
  002e3	8b ca		 mov	 ecx, edx
  002e5	ff 15 00 00 00
	00		 call	 DWORD PTR __imp_?setstate@?$basic_ios@_WU?$char_traits@_W@std@@@std@@QAEXH_N@Z
  002eb	3b f4		 cmp	 esi, esp
  002ed	e8 00 00 00 00	 call	 __RTC_CheckEsp
  002f2	b8 00 00 00 00	 mov	 eax, $L89593
  002f7	c3		 ret	 0
$L89593:
  002f8	c7 45 fc 00 00
	00 00		 mov	 DWORD PTR __$EHRec$[ebp+12], 0

; 461  : 		}
; 462  : 
; 463  : 	_Istr.width(0);

  002ff	8b f4		 mov	 esi, esp
  00301	6a 00		 push	 0
  00303	8b 45 08	 mov	 eax, DWORD PTR __Istr$[ebp]
  00306	8b 08		 mov	 ecx, DWORD PTR [eax]
  00308	8b 55 08	 mov	 edx, DWORD PTR __Istr$[ebp]
  0030b	03 51 04	 add	 edx, DWORD PTR [ecx+4]
  0030e	8b ca		 mov	 ecx, edx
  00310	ff 15 00 00 00
	00		 call	 DWORD PTR __imp_?width@ios_base@std@@QAEHH@Z
  00316	3b f4		 cmp	 esi, esp
  00318	e8 00 00 00 00	 call	 __RTC_CheckEsp

; 464  : 	if (!_Changed)

  0031d	0f b6 45 eb	 movzx	 eax, BYTE PTR __Changed$[ebp]
  00321	85 c0		 test	 eax, eax
  00323	75 09		 jne	 SHORT $L87466

; 465  : 		_State |= ios_base::failbit;

  00325	8b 4d ec	 mov	 ecx, DWORD PTR __State$[ebp]
  00328	83 c9 02	 or	 ecx, 2
  0032b	89 4d ec	 mov	 DWORD PTR __State$[ebp], ecx
$L87466:

; 466  : 	_Istr.setstate(_State);

  0032e	8b f4		 mov	 esi, esp
  00330	6a 00		 push	 0
  00332	8b 55 ec	 mov	 edx, DWORD PTR __State$[ebp]
  00335	52		 push	 edx
  00336	8b 45 08	 mov	 eax, DWORD PTR __Istr$[ebp]
  00339	8b 08		 mov	 ecx, DWORD PTR [eax]
  0033b	8b 55 08	 mov	 edx, DWORD PTR __Istr$[ebp]
  0033e	03 51 04	 add	 edx, DWORD PTR [ecx+4]
  00341	8b ca		 mov	 ecx, edx
  00343	ff 15 00 00 00
	00		 call	 DWORD PTR __imp_?setstate@?$basic_ios@_WU?$char_traits@_W@std@@@std@@QAEXH_N@Z
  00349	3b f4		 cmp	 esi, esp
  0034b	e8 00 00 00 00	 call	 __RTC_CheckEsp

; 467  : 	return (_Istr);

  00350	8b 45 08	 mov	 eax, DWORD PTR __Istr$[ebp]
  00353	89 45 b8	 mov	 DWORD PTR $T89592[ebp], eax
  00356	c7 45 fc ff ff
	ff ff		 mov	 DWORD PTR __$EHRec$[ebp+12], -1
  0035d	8d 4d dc	 lea	 ecx, DWORD PTR __Ok$[ebp]
  00360	e8 00 00 00 00	 call	 ??1sentry@?$basic_istream@_WU?$char_traits@_W@std@@@std@@QAE@XZ
  00365	8b 45 b8	 mov	 eax, DWORD PTR $T89592[ebp]

; 468  : 	}

  00368	52		 push	 edx
  00369	8b cd		 mov	 ecx, ebp
  0036b	50		 push	 eax
  0036c	8d 15 00 00 00
	00		 lea	 edx, DWORD PTR $L89603
  00372	e8 00 00 00 00	 call	 @_RTC_CheckStackVars@8
  00377	58		 pop	 eax
  00378	5a		 pop	 edx
  00379	8b 4d f4	 mov	 ecx, DWORD PTR __$EHRec$[ebp+4]
  0037c	64 89 0d 00 00
	00 00		 mov	 DWORD PTR fs:__except_list, ecx
  00383	5f		 pop	 edi
  00384	5e		 pop	 esi
  00385	5b		 pop	 ebx
  00386	81 c4 80 00 00
	00		 add	 esp, 128		; 00000080H
  0038c	3b ec		 cmp	 ebp, esp
  0038e	e8 00 00 00 00	 call	 __RTC_CheckEsp
  00393	8b e5		 mov	 esp, ebp
  00395	5d		 pop	 ebp
  00396	c3		 ret	 0
$L89603:
  00397	02 00 00 00	 DD	 2
  0039b	00 00 00 00	 DD	 $L89602
$L89602:
  0039f	dc ff ff ff	 DD	 -36			; ffffffdcH
  003a3	08 00 00 00	 DD	 8
  003a7	00 00 00 00	 DD	 $L89599
  003ab	c8 ff ff ff	 DD	 -56			; ffffffc8H
  003af	02 00 00 00	 DD	 2
  003b3	00 00 00 00	 DD	 $L89600
$L89600:
  003b7	5f		 DB	 95			; 0000005fH
  003b8	4d		 DB	 77			; 0000004dH
  003b9	65		 DB	 101			; 00000065H
  003ba	74		 DB	 116			; 00000074H
  003bb	61		 DB	 97			; 00000061H
  003bc	00		 DB	 0
$L89599:
  003bd	5f		 DB	 95			; 0000005fH
  003be	4f		 DB	 79			; 0000004fH
  003bf	6b		 DB	 107			; 0000006bH
  003c0	00		 DB	 0
_TEXT	ENDS
;	COMDAT text$x
text$x	SEGMENT
$L89595:
  00000	8d 4d dc	 lea	 ecx, DWORD PTR __Ok$[ebp]
  00003	e9 00 00 00 00	 jmp	 ??1sentry@?$basic_istream@_WU?$char_traits@_W@std@@@std@@QAE@XZ
$L89596:
  00008	8b f4		 mov	 esi, esp
  0000a	8d 4d c0	 lea	 ecx, DWORD PTR $T89588[ebp]
  0000d	ff 15 00 00 00
	00		 call	 DWORD PTR __imp_??1locale@std@@QAE@XZ
  00013	3b f4		 cmp	 esi, esp
  00015	e9 00 00 00 00	 jmp	 __RTC_CheckEsp
__ehhandler$??$?5_WU?$char_traits@_W@std@@V?$allocator@_W@1@@std@@YAAAV?$basic_istream@_WU?$char_traits@_W@std@@@0@AAV10@AAV?$basic_string@_WU?$char_traits@_W@std@@V?$allocator@_W@2@@0@@Z:
  0001a	b8 00 00 00 00	 mov	 eax, OFFSET FLAT:$T89598
  0001f	e9 00 00 00 00	 jmp	 ___CxxFrameHandler
text$x	ENDS
??$?5_WU?$char_traits@_W@std@@V?$allocator@_W@1@@std@@YAAAV?$basic_istream@_WU?$char_traits@_W@std@@@0@AAV10@AAV?$basic_string@_WU?$char_traits@_W@std@@V?$allocator@_W@2@@0@@Z ENDP ; std::operator>><wchar_t,std::char_traits<wchar_t>,std::allocator<wchar_t> >
PUBLIC	??1_Sentry_base@?$basic_istream@_WU?$char_traits@_W@std@@@std@@QAE@XZ ; std::basic_istream<wchar_t,std::char_traits<wchar_t> >::_Sentry_base::~_Sentry_base
; Function compile flags: /Odt /RTCsu
;	COMDAT ??1sentry@?$basic_istream@_WU?$char_traits@_W@std@@@std@@QAE@XZ
_TEXT	SEGMENT
_this$ = -4						; size = 4
??1sentry@?$basic_istream@_WU?$char_traits@_W@std@@@std@@QAE@XZ PROC NEAR ; std::basic_istream<wchar_t,std::char_traits<wchar_t> >::sentry::~sentry, COMDAT
; _this$ = ecx
  00000	55		 push	 ebp
  00001	8b ec		 mov	 ebp, esp
  00003	51		 push	 ecx
  00004	c7 45 fc cc cc
	cc cc		 mov	 DWORD PTR [ebp-4], -858993460 ; ccccccccH
  0000b	89 4d fc	 mov	 DWORD PTR _this$[ebp], ecx
  0000e	8b 4d fc	 mov	 ecx, DWORD PTR _this$[ebp]
  00011	e8 00 00 00 00	 call	 ??1_Sentry_base@?$basic_istream@_WU?$char_traits@_W@std@@@std@@QAE@XZ ; std::basic_istream<wchar_t,std::char_traits<wchar_t> >::_Sentry_base::~_Sentry_base
  00016	83 c4 04	 add	 esp, 4
  00019	3b ec		 cmp	 ebp, esp
  0001b	e8 00 00 00 00	 call	 __RTC_CheckEsp
  00020	8b e5		 mov	 esp, ebp
  00022	5d		 pop	 ebp
  00023	c3		 ret	 0
??1sentry@?$basic_istream@_WU?$char_traits@_W@std@@@std@@QAE@XZ ENDP ; std::basic_istream<wchar_t,std::char_traits<wchar_t> >::sentry::~sentry
_TEXT	ENDS
PUBLIC	??0_Sentry_base@?$basic_istream@_WU?$char_traits@_W@std@@@std@@QAE@AAV12@@Z ; std::basic_istream<wchar_t,std::char_traits<wchar_t> >::_Sentry_base::_Sentry_base
EXTRN	__imp_?_Ipfx@?$basic_istream@_WU?$char_traits@_W@std@@@std@@QAE_N_N@Z:NEAR
;	COMDAT xdata$x
; File d:\program files (x86)\microsoft visual studio .net 2003\vc7\include\istream
xdata$x	SEGMENT
$T89616	DD	0ffffffffH
	DD	FLAT:$L89612
$T89614	DD	019930520H
	DD	01H
	DD	FLAT:$T89616
	DD	2 DUP(00H)
	DD	2 DUP(00H)
; Function compile flags: /Odt /RTCsu
xdata$x	ENDS
;	COMDAT ??0sentry@?$basic_istream@_WU?$char_traits@_W@std@@@std@@QAE@AAV12@_N@Z
_TEXT	SEGMENT
_this$ = -16						; size = 4
__$EHRec$ = -12						; size = 12
__Istr$ = 8						; size = 4
__Noskip$ = 12						; size = 1
??0sentry@?$basic_istream@_WU?$char_traits@_W@std@@@std@@QAE@AAV12@_N@Z PROC NEAR ; std::basic_istream<wchar_t,std::char_traits<wchar_t> >::sentry::sentry, COMDAT
; _this$ = ecx

; 72   : 			{	// construct locking and calling _Ipfx

  00000	55		 push	 ebp
  00001	8b ec		 mov	 ebp, esp
  00003	6a ff		 push	 -1
  00005	68 00 00 00 00	 push	 __ehhandler$??0sentry@?$basic_istream@_WU?$char_traits@_W@std@@@std@@QAE@AAV12@_N@Z
  0000a	64 a1 00 00 00
	00		 mov	 eax, DWORD PTR fs:__except_list
  00010	50		 push	 eax
  00011	64 89 25 00 00
	00 00		 mov	 DWORD PTR fs:__except_list, esp
  00018	51		 push	 ecx
  00019	56		 push	 esi
  0001a	c7 45 f0 cc cc
	cc cc		 mov	 DWORD PTR [ebp-16], -858993460 ; ccccccccH
  00021	89 4d f0	 mov	 DWORD PTR _this$[ebp], ecx
  00024	8b 45 08	 mov	 eax, DWORD PTR __Istr$[ebp]
  00027	50		 push	 eax
  00028	8b 4d f0	 mov	 ecx, DWORD PTR _this$[ebp]
  0002b	e8 00 00 00 00	 call	 ??0_Sentry_base@?$basic_istream@_WU?$char_traits@_W@std@@@std@@QAE@AAV12@@Z ; std::basic_istream<wchar_t,std::char_traits<wchar_t> >::_Sentry_base::_Sentry_base
  00030	c7 45 fc 00 00
	00 00		 mov	 DWORD PTR __$EHRec$[ebp+8], 0

; 73   : 			_Ok = this->_Myistr._Ipfx(_Noskip);

  00037	8b f4		 mov	 esi, esp
  00039	8a 4d 0c	 mov	 cl, BYTE PTR __Noskip$[ebp]
  0003c	51		 push	 ecx
  0003d	8b 55 f0	 mov	 edx, DWORD PTR _this$[ebp]
  00040	8b 0a		 mov	 ecx, DWORD PTR [edx]
  00042	ff 15 00 00 00
	00		 call	 DWORD PTR __imp_?_Ipfx@?$basic_istream@_WU?$char_traits@_W@std@@@std@@QAE_N_N@Z
  00048	3b f4		 cmp	 esi, esp
  0004a	e8 00 00 00 00	 call	 __RTC_CheckEsp
  0004f	8b 4d f0	 mov	 ecx, DWORD PTR _this$[ebp]
  00052	88 41 04	 mov	 BYTE PTR [ecx+4], al

; 74   : 			}

  00055	c7 45 fc ff ff
	ff ff		 mov	 DWORD PTR __$EHRec$[ebp+8], -1
  0005c	8b 45 f0	 mov	 eax, DWORD PTR _this$[ebp]
  0005f	8b 4d f4	 mov	 ecx, DWORD PTR __$EHRec$[ebp]
  00062	64 89 0d 00 00
	00 00		 mov	 DWORD PTR fs:__except_list, ecx
  00069	5e		 pop	 esi
  0006a	83 c4 10	 add	 esp, 16			; 00000010H
  0006d	3b ec		 cmp	 ebp, esp
  0006f	e8 00 00 00 00	 call	 __RTC_CheckEsp
  00074	8b e5		 mov	 esp, ebp
  00076	5d		 pop	 ebp
  00077	c2 08 00	 ret	 8
_TEXT	ENDS
;	COMDAT text$x
text$x	SEGMENT
$L89612:
  00000	8b 4d f0	 mov	 ecx, DWORD PTR _this$[ebp]
  00003	e9 00 00 00 00	 jmp	 ??1_Sentry_base@?$basic_istream@_WU?$char_traits@_W@std@@@std@@QAE@XZ ; std::basic_istream<wchar_t,std::char_traits<wchar_t> >::_Sentry_base::~_Sentry_base
__ehhandler$??0sentry@?$basic_istream@_WU?$char_traits@_W@std@@@std@@QAE@AAV12@_N@Z:
  00008	b8 00 00 00 00	 mov	 eax, OFFSET FLAT:$T89614
  0000d	e9 00 00 00 00	 jmp	 ___CxxFrameHandler
text$x	ENDS
??0sentry@?$basic_istream@_WU?$char_traits@_W@std@@@std@@QAE@AAV12@_N@Z ENDP ; std::basic_istream<wchar_t,std::char_traits<wchar_t> >::sentry::sentry
; Function compile flags: /Odt /RTCsu
;	COMDAT ??Bsentry@?$basic_istream@_WU?$char_traits@_W@std@@@std@@QBE_NXZ
_TEXT	SEGMENT
_this$ = -4						; size = 4
??Bsentry@?$basic_istream@_WU?$char_traits@_W@std@@@std@@QBE_NXZ PROC NEAR ; std::basic_istream<wchar_t,std::char_traits<wchar_t> >::sentry::operator bool, COMDAT
; _this$ = ecx

; 77   : 			{	// test if _Ipfx succeeded

  00000	55		 push	 ebp
  00001	8b ec		 mov	 ebp, esp
  00003	51		 push	 ecx
  00004	c7 45 fc cc cc
	cc cc		 mov	 DWORD PTR [ebp-4], -858993460 ; ccccccccH
  0000b	89 4d fc	 mov	 DWORD PTR _this$[ebp], ecx

; 78   : 			return (_Ok);

  0000e	8b 45 fc	 mov	 eax, DWORD PTR _this$[ebp]
  00011	8a 40 04	 mov	 al, BYTE PTR [eax+4]

; 79   : 			}

  00014	8b e5		 mov	 esp, ebp
  00016	5d		 pop	 ebp
  00017	c3		 ret	 0
??Bsentry@?$basic_istream@_WU?$char_traits@_W@std@@@std@@QBE_NXZ ENDP ; std::basic_istream<wchar_t,std::char_traits<wchar_t> >::sentry::operator bool
_TEXT	ENDS
EXTRN	__imp_?_Unlock@?$basic_streambuf@_WU?$char_traits@_W@std@@@std@@QAEXXZ:NEAR
; Function compile flags: /Odt /RTCsu
;	COMDAT ??1_Sentry_base@?$basic_istream@_WU?$char_traits@_W@std@@@std@@QAE@XZ
_TEXT	SEGMENT
_this$ = -4						; size = 4
??1_Sentry_base@?$basic_istream@_WU?$char_traits@_W@std@@@std@@QAE@XZ PROC NEAR ; std::basic_istream<wchar_t,std::char_traits<wchar_t> >::_Sentry_base::~_Sentry_base, COMDAT
; _this$ = ecx

; 58   : 			{	// destroy after unlocking

  00000	55		 push	 ebp
  00001	8b ec		 mov	 ebp, esp
  00003	51		 push	 ecx
  00004	56		 push	 esi
  00005	c7 45 fc cc cc
	cc cc		 mov	 DWORD PTR [ebp-4], -858993460 ; ccccccccH
  0000c	89 4d fc	 mov	 DWORD PTR _this$[ebp], ecx

; 59   : 			if (_Myistr.rdbuf() != 0)

  0000f	8b 45 fc	 mov	 eax, DWORD PTR _this$[ebp]
  00012	8b 08		 mov	 ecx, DWORD PTR [eax]
  00014	8b 11		 mov	 edx, DWORD PTR [ecx]
  00016	8b 45 fc	 mov	 eax, DWORD PTR _this$[ebp]
  00019	8b 08		 mov	 ecx, DWORD PTR [eax]
  0001b	03 4a 04	 add	 ecx, DWORD PTR [edx+4]
  0001e	8b f4		 mov	 esi, esp
  00020	ff 15 00 00 00
	00		 call	 DWORD PTR __imp_?rdbuf@?$basic_ios@_WU?$char_traits@_W@std@@@std@@QBEPAV?$basic_streambuf@_WU?$char_traits@_W@std@@@2@XZ
  00026	3b f4		 cmp	 esi, esp
  00028	e8 00 00 00 00	 call	 __RTC_CheckEsp
  0002d	85 c0		 test	 eax, eax
  0002f	74 2f		 je	 SHORT $L85525

; 60   : 				_Myistr.rdbuf()->_Unlock();

  00031	8b 4d fc	 mov	 ecx, DWORD PTR _this$[ebp]
  00034	8b 11		 mov	 edx, DWORD PTR [ecx]
  00036	8b 02		 mov	 eax, DWORD PTR [edx]
  00038	8b 4d fc	 mov	 ecx, DWORD PTR _this$[ebp]
  0003b	8b 09		 mov	 ecx, DWORD PTR [ecx]
  0003d	03 48 04	 add	 ecx, DWORD PTR [eax+4]
  00040	8b f4		 mov	 esi, esp
  00042	ff 15 00 00 00
	00		 call	 DWORD PTR __imp_?rdbuf@?$basic_ios@_WU?$char_traits@_W@std@@@std@@QBEPAV?$basic_streambuf@_WU?$char_traits@_W@std@@@2@XZ
  00048	3b f4		 cmp	 esi, esp
  0004a	e8 00 00 00 00	 call	 __RTC_CheckEsp
  0004f	8b f4		 mov	 esi, esp
  00051	8b c8		 mov	 ecx, eax
  00053	ff 15 00 00 00
	00		 call	 DWORD PTR __imp_?_Unlock@?$basic_streambuf@_WU?$char_traits@_W@std@@@std@@QAEXXZ
  00059	3b f4		 cmp	 esi, esp
  0005b	e8 00 00 00 00	 call	 __RTC_CheckEsp
$L85525:

; 61   : 			}

  00060	5e		 pop	 esi
  00061	83 c4 04	 add	 esp, 4
  00064	3b ec		 cmp	 ebp, esp
  00066	e8 00 00 00 00	 call	 __RTC_CheckEsp
  0006b	8b e5		 mov	 esp, ebp
  0006d	5d		 pop	 ebp
  0006e	c3		 ret	 0
??1_Sentry_base@?$basic_istream@_WU?$char_traits@_W@std@@@std@@QAE@XZ ENDP ; std::basic_istream<wchar_t,std::char_traits<wchar_t> >::_Sentry_base::~_Sentry_base
_TEXT	ENDS
EXTRN	__imp_?_Lock@?$basic_streambuf@_WU?$char_traits@_W@std@@@std@@QAEXXZ:NEAR
; Function compile flags: /Odt /RTCsu
;	COMDAT ??0_Sentry_base@?$basic_istream@_WU?$char_traits@_W@std@@@std@@QAE@AAV12@@Z
_TEXT	SEGMENT
_this$ = -4						; size = 4
__Istr$ = 8						; size = 4
??0_Sentry_base@?$basic_istream@_WU?$char_traits@_W@std@@@std@@QAE@AAV12@@Z PROC NEAR ; std::basic_istream<wchar_t,std::char_traits<wchar_t> >::_Sentry_base::_Sentry_base, COMDAT
; _this$ = ecx

; 52   : 			{	// lock the stream buffer, if there

  00000	55		 push	 ebp
  00001	8b ec		 mov	 ebp, esp
  00003	51		 push	 ecx
  00004	56		 push	 esi
  00005	c7 45 fc cc cc
	cc cc		 mov	 DWORD PTR [ebp-4], -858993460 ; ccccccccH
  0000c	89 4d fc	 mov	 DWORD PTR _this$[ebp], ecx
  0000f	8b 45 fc	 mov	 eax, DWORD PTR _this$[ebp]
  00012	8b 4d 08	 mov	 ecx, DWORD PTR __Istr$[ebp]
  00015	89 08		 mov	 DWORD PTR [eax], ecx

; 53   : 			if (_Myistr.rdbuf() != 0)

  00017	8b 55 fc	 mov	 edx, DWORD PTR _this$[ebp]
  0001a	8b 02		 mov	 eax, DWORD PTR [edx]
  0001c	8b 08		 mov	 ecx, DWORD PTR [eax]
  0001e	8b 55 fc	 mov	 edx, DWORD PTR _this$[ebp]
  00021	8b 02		 mov	 eax, DWORD PTR [edx]
  00023	03 41 04	 add	 eax, DWORD PTR [ecx+4]
  00026	8b f4		 mov	 esi, esp
  00028	8b c8		 mov	 ecx, eax
  0002a	ff 15 00 00 00
	00		 call	 DWORD PTR __imp_?rdbuf@?$basic_ios@_WU?$char_traits@_W@std@@@std@@QBEPAV?$basic_streambuf@_WU?$char_traits@_W@std@@@2@XZ
  00030	3b f4		 cmp	 esi, esp
  00032	e8 00 00 00 00	 call	 __RTC_CheckEsp
  00037	85 c0		 test	 eax, eax
  00039	74 2f		 je	 SHORT $L86583

; 54   : 				_Myistr.rdbuf()->_Lock();

  0003b	8b 4d fc	 mov	 ecx, DWORD PTR _this$[ebp]
  0003e	8b 11		 mov	 edx, DWORD PTR [ecx]
  00040	8b 02		 mov	 eax, DWORD PTR [edx]
  00042	8b 4d fc	 mov	 ecx, DWORD PTR _this$[ebp]
  00045	8b 09		 mov	 ecx, DWORD PTR [ecx]
  00047	03 48 04	 add	 ecx, DWORD PTR [eax+4]
  0004a	8b f4		 mov	 esi, esp
  0004c	ff 15 00 00 00
	00		 call	 DWORD PTR __imp_?rdbuf@?$basic_ios@_WU?$char_traits@_W@std@@@std@@QBEPAV?$basic_streambuf@_WU?$char_traits@_W@std@@@2@XZ
  00052	3b f4		 cmp	 esi, esp
  00054	e8 00 00 00 00	 call	 __RTC_CheckEsp
  00059	8b f4		 mov	 esi, esp
  0005b	8b c8		 mov	 ecx, eax
  0005d	ff 15 00 00 00
	00		 call	 DWORD PTR __imp_?_Lock@?$basic_streambuf@_WU?$char_traits@_W@std@@@std@@QAEXXZ
  00063	3b f4		 cmp	 esi, esp
  00065	e8 00 00 00 00	 call	 __RTC_CheckEsp
$L86583:

; 55   : 			}

  0006a	8b 45 fc	 mov	 eax, DWORD PTR _this$[ebp]
  0006d	5e		 pop	 esi
  0006e	83 c4 04	 add	 esp, 4
  00071	3b ec		 cmp	 ebp, esp
  00073	e8 00 00 00 00	 call	 __RTC_CheckEsp
  00078	8b e5		 mov	 esp, ebp
  0007a	5d		 pop	 ebp
  0007b	c2 04 00	 ret	 4
??0_Sentry_base@?$basic_istream@_WU?$char_traits@_W@std@@@std@@QAE@AAV12@@Z ENDP ; std::basic_istream<wchar_t,std::char_traits<wchar_t> >::_Sentry_base::_Sentry_base
_TEXT	ENDS
PUBLIC	?_Psave@?$_Facetptr@V?$ctype@_W@std@@@std@@2PBVfacet@locale@2@B ; std::_Facetptr<std::ctype<wchar_t> >::_Psave
EXTRN	__imp_?_Getcat@?$ctype@_W@std@@SAIPAPBVfacet@locale@2@@Z:NEAR
EXTRN	__imp_?id@?$ctype@_W@std@@2V0locale@2@A:DWORD
;	COMDAT ?_Psave@?$_Facetptr@V?$ctype@_W@std@@@std@@2PBVfacet@locale@2@B
; File d:\program files (x86)\microsoft visual studio .net 2003\vc7\include\xlocale
_BSS	SEGMENT
?_Psave@?$_Facetptr@V?$ctype@_W@std@@@std@@2PBVfacet@locale@2@B DD 01H DUP (?) ; std::_Facetptr<std::ctype<wchar_t> >::_Psave
_BSS	ENDS
;	COMDAT xdata$x
xdata$x	SEGMENT
$T89633	DD	0ffffffffH
	DD	FLAT:$L89625
$T89627	DD	019930520H
	DD	01H
	DD	FLAT:$T89633
	DD	2 DUP(00H)
	DD	2 DUP(00H)
; Function compile flags: /Odt /RTCsu
xdata$x	ENDS
;	COMDAT ??$use_facet@V?$ctype@_W@std@@@std@@YAABV?$ctype@_W@0@ABVlocale@0@@Z
_TEXT	SEGMENT
$T89624 = -64						; size = 4
$T89623 = -60						; size = 12
__Pfmod$87324 = -48					; size = 4
__Pf$ = -44						; size = 4
__Id$ = -40						; size = 4
__Psave$ = -32						; size = 4
__Lock$ = -20						; size = 4
__$EHRec$ = -12						; size = 12
__Loc$ = 8						; size = 4
??$use_facet@V?$ctype@_W@std@@@std@@YAABV?$ctype@_W@0@ABVlocale@0@@Z PROC NEAR ; std::use_facet<std::ctype<wchar_t> >, COMDAT

; 315  : 	{	// get facet reference from locale

  00000	55		 push	 ebp
  00001	8b ec		 mov	 ebp, esp
  00003	6a ff		 push	 -1
  00005	68 00 00 00 00	 push	 __ehhandler$??$use_facet@V?$ctype@_W@std@@@std@@YAABV?$ctype@_W@0@ABVlocale@0@@Z
  0000a	64 a1 00 00 00
	00		 mov	 eax, DWORD PTR fs:__except_list
  00010	50		 push	 eax
  00011	64 89 25 00 00
	00 00		 mov	 DWORD PTR fs:__except_list, esp
  00018	83 ec 34	 sub	 esp, 52			; 00000034H
  0001b	56		 push	 esi
  0001c	57		 push	 edi
  0001d	8d 7d c0	 lea	 edi, DWORD PTR [ebp-64]
  00020	b9 0d 00 00 00	 mov	 ecx, 13			; 0000000dH
  00025	b8 cc cc cc cc	 mov	 eax, -858993460		; ccccccccH
  0002a	f3 ab		 rep stosd

; 316  : 	_Lockit _Lock(_LOCK_LOCALE);	// the thread lock, make get atomic

  0002c	8b f4		 mov	 esi, esp
  0002e	6a 00		 push	 0
  00030	8d 4d ec	 lea	 ecx, DWORD PTR __Lock$[ebp]
  00033	ff 15 00 00 00
	00		 call	 DWORD PTR __imp_??0_Lockit@std@@QAE@H@Z
  00039	3b f4		 cmp	 esi, esp
  0003b	e8 00 00 00 00	 call	 __RTC_CheckEsp
  00040	c7 45 fc 00 00
	00 00		 mov	 DWORD PTR __$EHRec$[ebp+8], 0

; 317  : 	const locale::facet *_Psave =
; 318  : 		_Facetptr<_Facet>::_Psave;	// static pointer to lazy facet

  00047	a1 00 00 00 00	 mov	 eax, DWORD PTR ?_Psave@?$_Facetptr@V?$ctype@_W@std@@@std@@2PBVfacet@locale@2@B ; std::_Facetptr<std::ctype<wchar_t> >::_Psave
  0004c	89 45 e0	 mov	 DWORD PTR __Psave$[ebp], eax

; 319  : 
; 320  : 	size_t _Id = _Facet::id;

  0004f	8b f4		 mov	 esi, esp
  00051	8b 0d 00 00 00
	00		 mov	 ecx, DWORD PTR __imp_?id@?$ctype@_W@std@@2V0locale@2@A
  00057	ff 15 00 00 00
	00		 call	 DWORD PTR __imp_??Bid@locale@std@@QAEIXZ
  0005d	3b f4		 cmp	 esi, esp
  0005f	e8 00 00 00 00	 call	 __RTC_CheckEsp
  00064	89 45 d8	 mov	 DWORD PTR __Id$[ebp], eax

; 321  : 	const locale::facet *_Pf = _Loc._Getfacet(_Id);

  00067	8b f4		 mov	 esi, esp
  00069	8b 4d d8	 mov	 ecx, DWORD PTR __Id$[ebp]
  0006c	51		 push	 ecx
  0006d	8b 4d 08	 mov	 ecx, DWORD PTR __Loc$[ebp]
  00070	ff 15 00 00 00
	00		 call	 DWORD PTR __imp_?_Getfacet@locale@std@@QBEPBVfacet@12@I@Z
  00076	3b f4		 cmp	 esi, esp
  00078	e8 00 00 00 00	 call	 __RTC_CheckEsp
  0007d	89 45 d4	 mov	 DWORD PTR __Pf$[ebp], eax

; 322  : 
; 323  : 	if (_Pf != 0)

  00080	83 7d d4 00	 cmp	 DWORD PTR __Pf$[ebp], 0
  00084	74 05		 je	 SHORT $L87315

; 324  : 		;	// got facet from locale
; 325  : 	else if (_Psave != 0)

  00086	e9 86 00 00 00	 jmp	 $L87316
$L87315:
  0008b	83 7d e0 00	 cmp	 DWORD PTR __Psave$[ebp], 0
  0008f	74 08		 je	 SHORT $L87317

; 326  : 		_Pf = _Psave;	// lazy facet already allocated

  00091	8b 55 e0	 mov	 edx, DWORD PTR __Psave$[ebp]
  00094	89 55 d4	 mov	 DWORD PTR __Pf$[ebp], edx

; 327  : 	else if (_Facet::_Getcat(&_Psave) == (size_t)(-1))

  00097	eb 78		 jmp	 SHORT $L87316
$L87317:
  00099	8b f4		 mov	 esi, esp
  0009b	8d 45 e0	 lea	 eax, DWORD PTR __Psave$[ebp]
  0009e	50		 push	 eax
  0009f	ff 15 00 00 00
	00		 call	 DWORD PTR __imp_?_Getcat@?$ctype@_W@std@@SAIPAPBVfacet@locale@2@@Z
  000a5	83 c4 04	 add	 esp, 4
  000a8	3b f4		 cmp	 esi, esp
  000aa	e8 00 00 00 00	 call	 __RTC_CheckEsp
  000af	83 f8 ff	 cmp	 eax, -1
  000b2	75 25		 jne	 SHORT $L87320

; 328  : 
; 329  :  #if _HAS_EXCEPTIONS
; 330  : 		throw bad_cast();	// lazy disallowed

  000b4	8b f4		 mov	 esi, esp
  000b6	68 00 00 00 00	 push	 OFFSET FLAT:??_C@_08EPJLHIJG@bad?5cast?$AA@
  000bb	8d 4d c4	 lea	 ecx, DWORD PTR $T89623[ebp]
  000be	ff 15 00 00 00
	00		 call	 DWORD PTR __imp_??0bad_cast@@QAE@PBD@Z
  000c4	3b f4		 cmp	 esi, esp
  000c6	e8 00 00 00 00	 call	 __RTC_CheckEsp
  000cb	68 00 00 00 00	 push	 OFFSET FLAT:__TI2?AVbad_cast@@
  000d0	8d 4d c4	 lea	 ecx, DWORD PTR $T89623[ebp]
  000d3	51		 push	 ecx
  000d4	e8 00 00 00 00	 call	 __CxxThrowException@8
$L87320:

; 331  : 
; 332  :  #else /* _HAS_EXCEPTIONS */
; 333  : 		abort();	// lazy disallowed
; 334  :  #endif /* _HAS_EXCEPTIONS */
; 335  : 
; 336  : 	else
; 337  : 		{	// queue up lazy facet for destruction
; 338  : 		_Pf = _Psave;

  000d9	8b 55 e0	 mov	 edx, DWORD PTR __Psave$[ebp]
  000dc	89 55 d4	 mov	 DWORD PTR __Pf$[ebp], edx

; 339  : 		_Facetptr<_Facet>::_Psave = _Psave;

  000df	8b 45 e0	 mov	 eax, DWORD PTR __Psave$[ebp]
  000e2	a3 00 00 00 00	 mov	 DWORD PTR ?_Psave@?$_Facetptr@V?$ctype@_W@std@@@std@@2PBVfacet@locale@2@B, eax ; std::_Facetptr<std::ctype<wchar_t> >::_Psave

; 340  : 
; 341  : 		locale::facet *_Pfmod = (_Facet *)_Psave;

  000e7	8b 4d e0	 mov	 ecx, DWORD PTR __Psave$[ebp]
  000ea	89 4d d0	 mov	 DWORD PTR __Pfmod$87324[ebp], ecx

; 342  : 		_Pfmod->_Incref();

  000ed	8b f4		 mov	 esi, esp
  000ef	8b 4d d0	 mov	 ecx, DWORD PTR __Pfmod$87324[ebp]
  000f2	ff 15 00 00 00
	00		 call	 DWORD PTR __imp_?_Incref@facet@locale@std@@QAEXXZ
  000f8	3b f4		 cmp	 esi, esp
  000fa	e8 00 00 00 00	 call	 __RTC_CheckEsp

; 343  : 		_Pfmod->_Register();

  000ff	8b f4		 mov	 esi, esp
  00101	8b 4d d0	 mov	 ecx, DWORD PTR __Pfmod$87324[ebp]
  00104	ff 15 00 00 00
	00		 call	 DWORD PTR __imp_?_Register@facet@locale@std@@QAEXXZ
  0010a	3b f4		 cmp	 esi, esp
  0010c	e8 00 00 00 00	 call	 __RTC_CheckEsp
$L87316:

; 344  : 		}
; 345  : 
; 346  : 	return ((const _Facet&)(*_Pf));	// should be dynamic_cast

  00111	8b 55 d4	 mov	 edx, DWORD PTR __Pf$[ebp]
  00114	89 55 c0	 mov	 DWORD PTR $T89624[ebp], edx
  00117	c7 45 fc ff ff
	ff ff		 mov	 DWORD PTR __$EHRec$[ebp+8], -1
  0011e	8b f4		 mov	 esi, esp
  00120	8d 4d ec	 lea	 ecx, DWORD PTR __Lock$[ebp]
  00123	ff 15 00 00 00
	00		 call	 DWORD PTR __imp_??1_Lockit@std@@QAE@XZ
  00129	3b f4		 cmp	 esi, esp
  0012b	e8 00 00 00 00	 call	 __RTC_CheckEsp
  00130	8b 45 c0	 mov	 eax, DWORD PTR $T89624[ebp]
$L89622:

; 347  : 	}

  00133	52		 push	 edx
  00134	8b cd		 mov	 ecx, ebp
  00136	50		 push	 eax
  00137	8d 15 00 00 00
	00		 lea	 edx, DWORD PTR $L89632
  0013d	e8 00 00 00 00	 call	 @_RTC_CheckStackVars@8
  00142	58		 pop	 eax
  00143	5a		 pop	 edx
  00144	8b 4d f4	 mov	 ecx, DWORD PTR __$EHRec$[ebp]
  00147	64 89 0d 00 00
	00 00		 mov	 DWORD PTR fs:__except_list, ecx
  0014e	5f		 pop	 edi
  0014f	5e		 pop	 esi
  00150	83 c4 40	 add	 esp, 64			; 00000040H
  00153	3b ec		 cmp	 ebp, esp
  00155	e8 00 00 00 00	 call	 __RTC_CheckEsp
  0015a	8b e5		 mov	 esp, ebp
  0015c	5d		 pop	 ebp
  0015d	c3		 ret	 0
$L89632:
  0015e	02 00 00 00	 DD	 2
  00162	00 00 00 00	 DD	 $L89631
$L89631:
  00166	ec ff ff ff	 DD	 -20			; ffffffecH
  0016a	04 00 00 00	 DD	 4
  0016e	00 00 00 00	 DD	 $L89628
  00172	e0 ff ff ff	 DD	 -32			; ffffffe0H
  00176	04 00 00 00	 DD	 4
  0017a	00 00 00 00	 DD	 $L89629
$L89629:
  0017e	5f		 DB	 95			; 0000005fH
  0017f	50		 DB	 80			; 00000050H
  00180	73		 DB	 115			; 00000073H
  00181	61		 DB	 97			; 00000061H
  00182	76		 DB	 118			; 00000076H
  00183	65		 DB	 101			; 00000065H
  00184	00		 DB	 0
$L89628:
  00185	5f		 DB	 95			; 0000005fH
  00186	4c		 DB	 76			; 0000004cH
  00187	6f		 DB	 111			; 0000006fH
  00188	63		 DB	 99			; 00000063H
  00189	6b		 DB	 107			; 0000006bH
  0018a	00		 DB	 0
_TEXT	ENDS
;	COMDAT text$x
text$x	SEGMENT
$L89625:
  00000	8b f4		 mov	 esi, esp
  00002	8d 4d ec	 lea	 ecx, DWORD PTR __Lock$[ebp]
  00005	ff 15 00 00 00
	00		 call	 DWORD PTR __imp_??1_Lockit@std@@QAE@XZ
  0000b	3b f4		 cmp	 esi, esp
  0000d	e9 00 00 00 00	 jmp	 __RTC_CheckEsp
__ehhandler$??$use_facet@V?$ctype@_W@std@@@std@@YAABV?$ctype@_W@0@ABVlocale@0@@Z:
  00012	b8 00 00 00 00	 mov	 eax, OFFSET FLAT:$T89627
  00017	e9 00 00 00 00	 jmp	 ___CxxFrameHandler
text$x	ENDS
??$use_facet@V?$ctype@_W@std@@@std@@YAABV?$ctype@_W@0@ABVlocale@0@@Z ENDP ; std::use_facet<std::ctype<wchar_t> >
PUBLIC	??$getline@_WU?$char_traits@_W@std@@V?$allocator@_W@2@@std@@YAAAV?$basic_istream@_WU?$char_traits@_W@std@@@0@AAV10@AAV?$basic_string@_WU?$char_traits@_W@std@@V?$allocator@_W@2@@0@@Z ; std::getline<wchar_t,std::char_traits<wchar_t>,std::allocator<wchar_t> >
PUBLIC	??$getline@_WU?$char_traits@_W@std@@V?$allocator@_W@2@@std@@YAAAV?$basic_istream@_WU?$char_traits@_W@std@@@0@AAV10@AAV?$basic_string@_WU?$char_traits@_W@std@@V?$allocator@_W@2@@0@_W@Z ; std::getline<wchar_t,std::char_traits<wchar_t>,std::allocator<wchar_t> >
EXTRN	__imp_?widen@?$basic_ios@_WU?$char_traits@_W@std@@@std@@QBE_WD@Z:NEAR
; Function compile flags: /Odt /RTCsu
; File d:\program files (x86)\microsoft visual studio .net 2003\vc7\include\string
;	COMDAT ??$getline@_WU?$char_traits@_W@std@@V?$allocator@_W@2@@std@@YAAAV?$basic_istream@_WU?$char_traits@_W@std@@@0@AAV10@AAV?$basic_string@_WU?$char_traits@_W@std@@V?$allocator@_W@2@@0@@Z
_TEXT	SEGMENT
__Istr$ = 8						; size = 4
__Str$ = 12						; size = 4
??$getline@_WU?$char_traits@_W@std@@V?$allocator@_W@2@@std@@YAAAV?$basic_istream@_WU?$char_traits@_W@std@@@0@AAV10@AAV?$basic_string@_WU?$char_traits@_W@std@@V?$allocator@_W@2@@0@@Z PROC NEAR ; std::getline<wchar_t,std::char_traits<wchar_t>,std::allocator<wchar_t> >, COMDAT

; 528  : 	{	// get characters into string, discard newline

  00000	55		 push	 ebp
  00001	8b ec		 mov	 ebp, esp
  00003	56		 push	 esi

; 529  : 	return (getline(_Istr, _Str, _Istr.widen('\n')));

  00004	8b f4		 mov	 esi, esp
  00006	6a 0a		 push	 10			; 0000000aH
  00008	8b 45 08	 mov	 eax, DWORD PTR __Istr$[ebp]
  0000b	8b 08		 mov	 ecx, DWORD PTR [eax]
  0000d	8b 55 08	 mov	 edx, DWORD PTR __Istr$[ebp]
  00010	03 51 04	 add	 edx, DWORD PTR [ecx+4]
  00013	8b ca		 mov	 ecx, edx
  00015	ff 15 00 00 00
	00		 call	 DWORD PTR __imp_?widen@?$basic_ios@_WU?$char_traits@_W@std@@@std@@QBE_WD@Z
  0001b	3b f4		 cmp	 esi, esp
  0001d	e8 00 00 00 00	 call	 __RTC_CheckEsp
  00022	50		 push	 eax
  00023	8b 45 0c	 mov	 eax, DWORD PTR __Str$[ebp]
  00026	50		 push	 eax
  00027	8b 4d 08	 mov	 ecx, DWORD PTR __Istr$[ebp]
  0002a	51		 push	 ecx
  0002b	e8 00 00 00 00	 call	 ??$getline@_WU?$char_traits@_W@std@@V?$allocator@_W@2@@std@@YAAAV?$basic_istream@_WU?$char_traits@_W@std@@@0@AAV10@AAV?$basic_string@_WU?$char_traits@_W@std@@V?$allocator@_W@2@@0@_W@Z ; std::getline<wchar_t,std::char_traits<wchar_t>,std::allocator<wchar_t> >
  00030	83 c4 0c	 add	 esp, 12			; 0000000cH

; 530  : 	}

  00033	5e		 pop	 esi
  00034	3b ec		 cmp	 ebp, esp
  00036	e8 00 00 00 00	 call	 __RTC_CheckEsp
  0003b	5d		 pop	 ebp
  0003c	c3		 ret	 0
??$getline@_WU?$char_traits@_W@std@@V?$allocator@_W@2@@std@@YAAAV?$basic_istream@_WU?$char_traits@_W@std@@@0@AAV10@AAV?$basic_string@_WU?$char_traits@_W@std@@V?$allocator@_W@2@@0@@Z ENDP ; std::getline<wchar_t,std::char_traits<wchar_t>,std::allocator<wchar_t> >
_TEXT	ENDS
EXTRN	__imp_?sbumpc@?$basic_streambuf@_WU?$char_traits@_W@std@@@std@@QAEGXZ:NEAR
EXTRN	__imp_?to_int_type@?$char_traits@_W@std@@SAGAB_W@Z:NEAR
EXTRN	__imp_?size@?$basic_string@_WU?$char_traits@_W@std@@V?$allocator@_W@2@@std@@QBEIXZ:NEAR
;	COMDAT xdata$x
xdata$x	SEGMENT
$T89652	DD	0ffffffffH
	DD	FLAT:$L89643
	DD	00H
	DD	00H
	DD	00H
	DD	00H
$T89654	DD	00H
	DD	00H
	DD	00H
	DD	FLAT:$L89642
$T89653	DD	01H
	DD	01H
	DD	02H
	DD	01H
	DD	FLAT:$T89654
$T89645	DD	019930520H
	DD	03H
	DD	FLAT:$T89652
	DD	01H
	DD	FLAT:$T89653
	DD	2 DUP(00H)
; Function compile flags: /Odt /RTCsu
xdata$x	ENDS
;	COMDAT ??$getline@_WU?$char_traits@_W@std@@V?$allocator@_W@2@@std@@YAAAV?$basic_istream@_WU?$char_traits@_W@std@@@0@AAV10@AAV?$basic_string@_WU?$char_traits@_W@std@@V?$allocator@_W@2@@0@_W@Z
_TEXT	SEGMENT
tv175 = -110						; size = 2
tv174 = -108						; size = 4
tv173 = -104						; size = 4
tv172 = -100						; size = 4
tv171 = -94						; size = 1
tv170 = -93						; size = 1
tv169 = -92						; size = 2
tv168 = -90						; size = 2
tv167 = -88						; size = 4
tv166 = -82						; size = 2
tv165 = -80						; size = 4
tv65 = -74						; size = 2
$T89640 = -72						; size = 4
$T89639 = -66						; size = 2
__Meta$87477 = -60					; size = 2
__Metadelim$87476 = -48					; size = 2
__Ok$ = -36						; size = 8
__Changed$ = -21					; size = 1
__State$ = -20						; size = 4
__$EHRec$ = -16						; size = 16
__Istr$ = 8						; size = 4
__Str$ = 12						; size = 4
__Delim$ = 16						; size = 2
??$getline@_WU?$char_traits@_W@std@@V?$allocator@_W@2@@std@@YAAAV?$basic_istream@_WU?$char_traits@_W@std@@@0@AAV10@AAV?$basic_string@_WU?$char_traits@_W@std@@V?$allocator@_W@2@@0@_W@Z PROC NEAR ; std::getline<wchar_t,std::char_traits<wchar_t>,std::allocator<wchar_t> >, COMDAT

; 477  : 	{	// get characters into string, discard delimiter

  00000	55		 push	 ebp
  00001	8b ec		 mov	 ebp, esp
  00003	6a ff		 push	 -1
  00005	68 00 00 00 00	 push	 __ehhandler$??$getline@_WU?$char_traits@_W@std@@V?$allocator@_W@2@@std@@YAAAV?$basic_istream@_WU?$char_traits@_W@std@@@0@AAV10@AAV?$basic_string@_WU?$char_traits@_W@std@@V?$allocator@_W@2@@0@_W@Z
  0000a	64 a1 00 00 00
	00		 mov	 eax, DWORD PTR fs:__except_list
  00010	50		 push	 eax
  00011	64 89 25 00 00
	00 00		 mov	 DWORD PTR fs:__except_list, esp
  00018	51		 push	 ecx
  00019	83 ec 60	 sub	 esp, 96			; 00000060H
  0001c	53		 push	 ebx
  0001d	56		 push	 esi
  0001e	57		 push	 edi
  0001f	8d 7d 90	 lea	 edi, DWORD PTR [ebp-112]
  00022	b9 18 00 00 00	 mov	 ecx, 24			; 00000018H
  00027	b8 cc cc cc cc	 mov	 eax, -858993460		; ccccccccH
  0002c	f3 ab		 rep stosd
  0002e	89 65 f0	 mov	 DWORD PTR __$EHRec$[ebp], esp

; 478  : 	typedef basic_istream<_Elem, _Traits> _Myis;
; 479  : 	ios_base::iostate _State = ios_base::goodbit;

  00031	c7 45 ec 00 00
	00 00		 mov	 DWORD PTR __State$[ebp], 0

; 480  : 	bool _Changed = false;

  00038	c6 45 eb 00	 mov	 BYTE PTR __Changed$[ebp], 0

; 481  : 	const typename _Myis::sentry _Ok(_Istr, true);

  0003c	6a 01		 push	 1
  0003e	8b 45 08	 mov	 eax, DWORD PTR __Istr$[ebp]
  00041	50		 push	 eax
  00042	8d 4d dc	 lea	 ecx, DWORD PTR __Ok$[ebp]
  00045	e8 00 00 00 00	 call	 ??0sentry@?$basic_istream@_WU?$char_traits@_W@std@@@std@@QAE@AAV12@_N@Z ; std::basic_istream<wchar_t,std::char_traits<wchar_t> >::sentry::sentry
  0004a	c7 45 fc 00 00
	00 00		 mov	 DWORD PTR __$EHRec$[ebp+12], 0

; 482  : 
; 483  : 	if (_Ok)

  00051	8d 4d dc	 lea	 ecx, DWORD PTR __Ok$[ebp]
  00054	e8 00 00 00 00	 call	 ??Bsentry@?$basic_istream@_WU?$char_traits@_W@std@@@std@@QBE_NXZ ; std::basic_istream<wchar_t,std::char_traits<wchar_t> >::sentry::operator bool
  00059	0f b6 c8	 movzx	 ecx, al
  0005c	85 c9		 test	 ecx, ecx
  0005e	0f 84 04 02 00
	00		 je	 $L89641

; 484  : 		{	// state okay, extract characters
; 485  : 		_TRY_IO_BEGIN

  00064	c6 45 fc 01	 mov	 BYTE PTR __$EHRec$[ebp+12], 1

; 486  : 		_Str.erase();

  00068	8b f4		 mov	 esi, esp
  0006a	8b 15 00 00 00
	00		 mov	 edx, DWORD PTR __imp_?npos@?$basic_string@_WU?$char_traits@_W@std@@V?$allocator@_W@2@@std@@2IB
  00070	8b 02		 mov	 eax, DWORD PTR [edx]
  00072	50		 push	 eax
  00073	6a 00		 push	 0
  00075	8b 4d 0c	 mov	 ecx, DWORD PTR __Str$[ebp]
  00078	ff 15 00 00 00
	00		 call	 DWORD PTR __imp_?erase@?$basic_string@_WU?$char_traits@_W@std@@V?$allocator@_W@2@@std@@QAEAAV12@II@Z
  0007e	3b f4		 cmp	 esi, esp
  00080	e8 00 00 00 00	 call	 __RTC_CheckEsp

; 487  : 		const typename _Traits::int_type _Metadelim =
; 488  : 			_Traits::to_int_type(_Delim);

  00085	8b f4		 mov	 esi, esp
  00087	8d 4d 10	 lea	 ecx, DWORD PTR __Delim$[ebp]
  0008a	51		 push	 ecx
  0008b	ff 15 00 00 00
	00		 call	 DWORD PTR __imp_?to_int_type@?$char_traits@_W@std@@SAGAB_W@Z
  00091	83 c4 04	 add	 esp, 4
  00094	3b f4		 cmp	 esi, esp
  00096	e8 00 00 00 00	 call	 __RTC_CheckEsp
  0009b	66 89 45 b6	 mov	 WORD PTR tv65[ebp], ax
  0009f	66 8b 55 b6	 mov	 dx, WORD PTR tv65[ebp]
  000a3	66 89 55 d0	 mov	 WORD PTR __Metadelim$87476[ebp], dx

; 489  : 		typename _Traits::int_type _Meta = _Istr.rdbuf()->sgetc();

  000a7	8b 45 08	 mov	 eax, DWORD PTR __Istr$[ebp]
  000aa	8b 08		 mov	 ecx, DWORD PTR [eax]
  000ac	8b 55 08	 mov	 edx, DWORD PTR __Istr$[ebp]
  000af	03 51 04	 add	 edx, DWORD PTR [ecx+4]
  000b2	8b f4		 mov	 esi, esp
  000b4	8b ca		 mov	 ecx, edx
  000b6	ff 15 00 00 00
	00		 call	 DWORD PTR __imp_?rdbuf@?$basic_ios@_WU?$char_traits@_W@std@@@std@@QBEPAV?$basic_streambuf@_WU?$char_traits@_W@std@@@2@XZ
  000bc	3b f4		 cmp	 esi, esp
  000be	e8 00 00 00 00	 call	 __RTC_CheckEsp
  000c3	89 45 b0	 mov	 DWORD PTR tv165[ebp], eax
  000c6	8b f4		 mov	 esi, esp
  000c8	8b 4d b0	 mov	 ecx, DWORD PTR tv165[ebp]
  000cb	ff 15 00 00 00
	00		 call	 DWORD PTR __imp_?sgetc@?$basic_streambuf@_WU?$char_traits@_W@std@@@std@@QAEGXZ
  000d1	3b f4		 cmp	 esi, esp
  000d3	e8 00 00 00 00	 call	 __RTC_CheckEsp
  000d8	66 89 45 ae	 mov	 WORD PTR tv166[ebp], ax
  000dc	66 8b 45 ae	 mov	 ax, WORD PTR tv166[ebp]
  000e0	66 89 45 c4	 mov	 WORD PTR __Meta$87477[ebp], ax

; 490  : 
; 491  : 		for (; ; _Meta = _Istr.rdbuf()->snextc())

  000e4	eb 3b		 jmp	 SHORT $L87478
$L87479:
  000e6	8b 4d 08	 mov	 ecx, DWORD PTR __Istr$[ebp]
  000e9	8b 11		 mov	 edx, DWORD PTR [ecx]
  000eb	8b 4d 08	 mov	 ecx, DWORD PTR __Istr$[ebp]
  000ee	03 4a 04	 add	 ecx, DWORD PTR [edx+4]
  000f1	8b f4		 mov	 esi, esp
  000f3	ff 15 00 00 00
	00		 call	 DWORD PTR __imp_?rdbuf@?$basic_ios@_WU?$char_traits@_W@std@@@std@@QBEPAV?$basic_streambuf@_WU?$char_traits@_W@std@@@2@XZ
  000f9	3b f4		 cmp	 esi, esp
  000fb	e8 00 00 00 00	 call	 __RTC_CheckEsp
  00100	89 45 a8	 mov	 DWORD PTR tv167[ebp], eax
  00103	8b f4		 mov	 esi, esp
  00105	8b 4d a8	 mov	 ecx, DWORD PTR tv167[ebp]
  00108	ff 15 00 00 00
	00		 call	 DWORD PTR __imp_?snextc@?$basic_streambuf@_WU?$char_traits@_W@std@@@std@@QAEGXZ
  0010e	3b f4		 cmp	 esi, esp
  00110	e8 00 00 00 00	 call	 __RTC_CheckEsp
  00115	66 89 45 a6	 mov	 WORD PTR tv168[ebp], ax
  00119	66 8b 45 a6	 mov	 ax, WORD PTR tv168[ebp]
  0011d	66 89 45 c4	 mov	 WORD PTR __Meta$87477[ebp], ax
$L87478:

; 492  : 			if (_Traits::eq_int_type(_Traits::eof(), _Meta))

  00121	8b f4		 mov	 esi, esp
  00123	ff 15 00 00 00
	00		 call	 DWORD PTR __imp_?eof@?$char_traits@_W@std@@SAGXZ
  00129	3b f4		 cmp	 esi, esp
  0012b	e8 00 00 00 00	 call	 __RTC_CheckEsp
  00130	66 89 45 a4	 mov	 WORD PTR tv169[ebp], ax
  00134	66 8b 4d a4	 mov	 cx, WORD PTR tv169[ebp]
  00138	66 89 4d be	 mov	 WORD PTR $T89639[ebp], cx
  0013c	8b f4		 mov	 esi, esp
  0013e	8d 55 c4	 lea	 edx, DWORD PTR __Meta$87477[ebp]
  00141	52		 push	 edx
  00142	8d 45 be	 lea	 eax, DWORD PTR $T89639[ebp]
  00145	50		 push	 eax
  00146	ff 15 00 00 00
	00		 call	 DWORD PTR __imp_?eq_int_type@?$char_traits@_W@std@@SA_NABG0@Z
  0014c	83 c4 08	 add	 esp, 8
  0014f	3b f4		 cmp	 esi, esp
  00151	e8 00 00 00 00	 call	 __RTC_CheckEsp
  00156	88 45 a3	 mov	 BYTE PTR tv170[ebp], al
  00159	0f b6 4d a3	 movzx	 ecx, BYTE PTR tv170[ebp]
  0015d	85 c9		 test	 ecx, ecx
  0015f	74 0e		 je	 SHORT $L87482

; 493  : 				{	// end of file, quit
; 494  : 				_State |= ios_base::eofbit;

  00161	8b 55 ec	 mov	 edx, DWORD PTR __State$[ebp]
  00164	83 ca 01	 or	 edx, 1
  00167	89 55 ec	 mov	 DWORD PTR __State$[ebp], edx

; 495  : 				break;

  0016a	e9 d3 00 00 00	 jmp	 $L87480
$L87482:

; 496  : 				}
; 497  : 			else if (_Traits::eq_int_type(_Meta, _Metadelim))

  0016f	8b f4		 mov	 esi, esp
  00171	8d 45 d0	 lea	 eax, DWORD PTR __Metadelim$87476[ebp]
  00174	50		 push	 eax
  00175	8d 4d c4	 lea	 ecx, DWORD PTR __Meta$87477[ebp]
  00178	51		 push	 ecx
  00179	ff 15 00 00 00
	00		 call	 DWORD PTR __imp_?eq_int_type@?$char_traits@_W@std@@SA_NABG0@Z
  0017f	83 c4 08	 add	 esp, 8
  00182	3b f4		 cmp	 esi, esp
  00184	e8 00 00 00 00	 call	 __RTC_CheckEsp
  00189	88 45 a2	 mov	 BYTE PTR tv171[ebp], al
  0018c	0f b6 55 a2	 movzx	 edx, BYTE PTR tv171[ebp]
  00190	85 d2		 test	 edx, edx
  00192	74 37		 je	 SHORT $L87484

; 498  : 				{	// got a delimiter, discard it and quit
; 499  : 				_Changed = true;

  00194	c6 45 eb 01	 mov	 BYTE PTR __Changed$[ebp], 1

; 500  : 				_Istr.rdbuf()->sbumpc();

  00198	8b 45 08	 mov	 eax, DWORD PTR __Istr$[ebp]
  0019b	8b 08		 mov	 ecx, DWORD PTR [eax]
  0019d	8b 55 08	 mov	 edx, DWORD PTR __Istr$[ebp]
  001a0	03 51 04	 add	 edx, DWORD PTR [ecx+4]
  001a3	8b f4		 mov	 esi, esp
  001a5	8b ca		 mov	 ecx, edx
  001a7	ff 15 00 00 00
	00		 call	 DWORD PTR __imp_?rdbuf@?$basic_ios@_WU?$char_traits@_W@std@@@std@@QBEPAV?$basic_streambuf@_WU?$char_traits@_W@std@@@2@XZ
  001ad	3b f4		 cmp	 esi, esp
  001af	e8 00 00 00 00	 call	 __RTC_CheckEsp
  001b4	89 45 9c	 mov	 DWORD PTR tv172[ebp], eax
  001b7	8b f4		 mov	 esi, esp
  001b9	8b 4d 9c	 mov	 ecx, DWORD PTR tv172[ebp]
  001bc	ff 15 00 00 00
	00		 call	 DWORD PTR __imp_?sbumpc@?$basic_streambuf@_WU?$char_traits@_W@std@@@std@@QAEGXZ
  001c2	3b f4		 cmp	 esi, esp
  001c4	e8 00 00 00 00	 call	 __RTC_CheckEsp

; 501  : 				break;

  001c9	eb 77		 jmp	 SHORT $L87480
$L87484:

; 502  : 				}
; 503  : 			else if (_Str.max_size() <= _Str.size())

  001cb	8b f4		 mov	 esi, esp
  001cd	8b 4d 0c	 mov	 ecx, DWORD PTR __Str$[ebp]
  001d0	ff 15 00 00 00
	00		 call	 DWORD PTR __imp_?max_size@?$basic_string@_WU?$char_traits@_W@std@@V?$allocator@_W@2@@std@@QBEIXZ
  001d6	3b f4		 cmp	 esi, esp
  001d8	e8 00 00 00 00	 call	 __RTC_CheckEsp
  001dd	89 45 98	 mov	 DWORD PTR tv173[ebp], eax
  001e0	8b f4		 mov	 esi, esp
  001e2	8b 4d 0c	 mov	 ecx, DWORD PTR __Str$[ebp]
  001e5	ff 15 00 00 00
	00		 call	 DWORD PTR __imp_?size@?$basic_string@_WU?$char_traits@_W@std@@V?$allocator@_W@2@@std@@QBEIXZ
  001eb	3b f4		 cmp	 esi, esp
  001ed	e8 00 00 00 00	 call	 __RTC_CheckEsp
  001f2	89 45 94	 mov	 DWORD PTR tv174[ebp], eax
  001f5	8b 45 98	 mov	 eax, DWORD PTR tv173[ebp]
  001f8	3b 45 94	 cmp	 eax, DWORD PTR tv174[ebp]
  001fb	77 0b		 ja	 SHORT $L87486

; 504  : 				{	// string too large, quit
; 505  : 				_State |= ios_base::failbit;

  001fd	8b 4d ec	 mov	 ecx, DWORD PTR __State$[ebp]
  00200	83 c9 02	 or	 ecx, 2
  00203	89 4d ec	 mov	 DWORD PTR __State$[ebp], ecx

; 506  : 				break;

  00206	eb 3a		 jmp	 SHORT $L87480
$L87486:

; 507  : 				}
; 508  : 			else
; 509  : 				{	// got a character, add it to string
; 510  : 				_Str += _Traits::to_char_type(_Meta);

  00208	8b f4		 mov	 esi, esp
  0020a	8d 55 c4	 lea	 edx, DWORD PTR __Meta$87477[ebp]
  0020d	52		 push	 edx
  0020e	ff 15 00 00 00
	00		 call	 DWORD PTR __imp_?to_char_type@?$char_traits@_W@std@@SA_WABG@Z
  00214	83 c4 04	 add	 esp, 4
  00217	3b f4		 cmp	 esi, esp
  00219	e8 00 00 00 00	 call	 __RTC_CheckEsp
  0021e	66 89 45 92	 mov	 WORD PTR tv175[ebp], ax
  00222	8b f4		 mov	 esi, esp
  00224	66 8b 45 92	 mov	 ax, WORD PTR tv175[ebp]
  00228	50		 push	 eax
  00229	8b 4d 0c	 mov	 ecx, DWORD PTR __Str$[ebp]
  0022c	ff 15 00 00 00
	00		 call	 DWORD PTR __imp_??Y?$basic_string@_WU?$char_traits@_W@std@@V?$allocator@_W@2@@std@@QAEAAV01@_W@Z
  00232	3b f4		 cmp	 esi, esp
  00234	e8 00 00 00 00	 call	 __RTC_CheckEsp

; 511  : 				_Changed = true;

  00239	c6 45 eb 01	 mov	 BYTE PTR __Changed$[ebp], 1

; 512  : 				}

  0023d	e9 a4 fe ff ff	 jmp	 $L87479
$L87480:
  00242	eb 24		 jmp	 SHORT $L89641
$L89642:

; 513  : 		_CATCH_IO_(_Istr)

  00244	8b f4		 mov	 esi, esp
  00246	6a 01		 push	 1
  00248	6a 04		 push	 4
  0024a	8b 4d 08	 mov	 ecx, DWORD PTR __Istr$[ebp]
  0024d	8b 11		 mov	 edx, DWORD PTR [ecx]
  0024f	8b 4d 08	 mov	 ecx, DWORD PTR __Istr$[ebp]
  00252	03 4a 04	 add	 ecx, DWORD PTR [edx+4]
  00255	ff 15 00 00 00
	00		 call	 DWORD PTR __imp_?setstate@?$basic_ios@_WU?$char_traits@_W@std@@@std@@QAEXH_N@Z
  0025b	3b f4		 cmp	 esi, esp
  0025d	e8 00 00 00 00	 call	 __RTC_CheckEsp
  00262	b8 00 00 00 00	 mov	 eax, $L89641
  00267	c3		 ret	 0
$L89641:
  00268	c7 45 fc 00 00
	00 00		 mov	 DWORD PTR __$EHRec$[ebp+12], 0

; 514  : 		}
; 515  : 
; 516  : 	if (!_Changed)

  0026f	0f b6 45 eb	 movzx	 eax, BYTE PTR __Changed$[ebp]
  00273	85 c0		 test	 eax, eax
  00275	75 09		 jne	 SHORT $L87488

; 517  : 		_State |= ios_base::failbit;

  00277	8b 4d ec	 mov	 ecx, DWORD PTR __State$[ebp]
  0027a	83 c9 02	 or	 ecx, 2
  0027d	89 4d ec	 mov	 DWORD PTR __State$[ebp], ecx
$L87488:

; 518  : 	_Istr.setstate(_State);

  00280	8b f4		 mov	 esi, esp
  00282	6a 00		 push	 0
  00284	8b 55 ec	 mov	 edx, DWORD PTR __State$[ebp]
  00287	52		 push	 edx
  00288	8b 45 08	 mov	 eax, DWORD PTR __Istr$[ebp]
  0028b	8b 08		 mov	 ecx, DWORD PTR [eax]
  0028d	8b 55 08	 mov	 edx, DWORD PTR __Istr$[ebp]
  00290	03 51 04	 add	 edx, DWORD PTR [ecx+4]
  00293	8b ca		 mov	 ecx, edx
  00295	ff 15 00 00 00
	00		 call	 DWORD PTR __imp_?setstate@?$basic_ios@_WU?$char_traits@_W@std@@@std@@QAEXH_N@Z
  0029b	3b f4		 cmp	 esi, esp
  0029d	e8 00 00 00 00	 call	 __RTC_CheckEsp

; 519  : 	return (_Istr);

  002a2	8b 45 08	 mov	 eax, DWORD PTR __Istr$[ebp]
  002a5	89 45 b8	 mov	 DWORD PTR $T89640[ebp], eax
  002a8	c7 45 fc ff ff
	ff ff		 mov	 DWORD PTR __$EHRec$[ebp+12], -1
  002af	8d 4d dc	 lea	 ecx, DWORD PTR __Ok$[ebp]
  002b2	e8 00 00 00 00	 call	 ??1sentry@?$basic_istream@_WU?$char_traits@_W@std@@@std@@QAE@XZ
  002b7	8b 45 b8	 mov	 eax, DWORD PTR $T89640[ebp]

; 520  : 	}

  002ba	52		 push	 edx
  002bb	8b cd		 mov	 ecx, ebp
  002bd	50		 push	 eax
  002be	8d 15 00 00 00
	00		 lea	 edx, DWORD PTR $L89651
  002c4	e8 00 00 00 00	 call	 @_RTC_CheckStackVars@8
  002c9	58		 pop	 eax
  002ca	5a		 pop	 edx
  002cb	8b 4d f4	 mov	 ecx, DWORD PTR __$EHRec$[ebp+4]
  002ce	64 89 0d 00 00
	00 00		 mov	 DWORD PTR fs:__except_list, ecx
  002d5	5f		 pop	 edi
  002d6	5e		 pop	 esi
  002d7	5b		 pop	 ebx
  002d8	83 c4 70	 add	 esp, 112		; 00000070H
  002db	3b ec		 cmp	 ebp, esp
  002dd	e8 00 00 00 00	 call	 __RTC_CheckEsp
  002e2	8b e5		 mov	 esp, ebp
  002e4	5d		 pop	 ebp
  002e5	c3		 ret	 0
$L89651:
  002e6	03 00 00 00	 DD	 3
  002ea	00 00 00 00	 DD	 $L89650
$L89650:
  002ee	dc ff ff ff	 DD	 -36			; ffffffdcH
  002f2	08 00 00 00	 DD	 8
  002f6	00 00 00 00	 DD	 $L89646
  002fa	d0 ff ff ff	 DD	 -48			; ffffffd0H
  002fe	02 00 00 00	 DD	 2
  00302	00 00 00 00	 DD	 $L89647
  00306	c4 ff ff ff	 DD	 -60			; ffffffc4H
  0030a	02 00 00 00	 DD	 2
  0030e	00 00 00 00	 DD	 $L89648
$L89648:
  00312	5f		 DB	 95			; 0000005fH
  00313	4d		 DB	 77			; 0000004dH
  00314	65		 DB	 101			; 00000065H
  00315	74		 DB	 116			; 00000074H
  00316	61		 DB	 97			; 00000061H
  00317	00		 DB	 0
$L89647:
  00318	5f		 DB	 95			; 0000005fH
  00319	4d		 DB	 77			; 0000004dH
  0031a	65		 DB	 101			; 00000065H
  0031b	74		 DB	 116			; 00000074H
  0031c	61		 DB	 97			; 00000061H
  0031d	64		 DB	 100			; 00000064H
  0031e	65		 DB	 101			; 00000065H
  0031f	6c		 DB	 108			; 0000006cH
  00320	69		 DB	 105			; 00000069H
  00321	6d		 DB	 109			; 0000006dH
  00322	00		 DB	 0
$L89646:
  00323	5f		 DB	 95			; 0000005fH
  00324	4f		 DB	 79			; 0000004fH
  00325	6b		 DB	 107			; 0000006bH
  00326	00		 DB	 0
_TEXT	ENDS
;	COMDAT text$x
text$x	SEGMENT
$L89643:
  00000	8d 4d dc	 lea	 ecx, DWORD PTR __Ok$[ebp]
  00003	e9 00 00 00 00	 jmp	 ??1sentry@?$basic_istream@_WU?$char_traits@_W@std@@@std@@QAE@XZ
__ehhandler$??$getline@_WU?$char_traits@_W@std@@V?$allocator@_W@2@@std@@YAAAV?$basic_istream@_WU?$char_traits@_W@std@@@0@AAV10@AAV?$basic_string@_WU?$char_traits@_W@std@@V?$allocator@_W@2@@0@_W@Z:
  00008	b8 00 00 00 00	 mov	 eax, OFFSET FLAT:$T89645
  0000d	e9 00 00 00 00	 jmp	 ___CxxFrameHandler
text$x	ENDS
??$getline@_WU?$char_traits@_W@std@@V?$allocator@_W@2@@std@@YAAAV?$basic_istream@_WU?$char_traits@_W@std@@@0@AAV10@AAV?$basic_string@_WU?$char_traits@_W@std@@V?$allocator@_W@2@@0@_W@Z ENDP ; std::getline<wchar_t,std::char_traits<wchar_t>,std::allocator<wchar_t> >
PUBLIC	??0sentry@?$basic_ostream@_WU?$char_traits@_W@std@@@std@@QAE@AAV12@@Z ; std::basic_ostream<wchar_t,std::char_traits<wchar_t> >::sentry::sentry
PUBLIC	??1sentry@?$basic_ostream@_WU?$char_traits@_W@std@@@std@@QAE@XZ ; std::basic_ostream<wchar_t,std::char_traits<wchar_t> >::sentry::~sentry
PUBLIC	??Bsentry@?$basic_ostream@_WU?$char_traits@_W@std@@@std@@QBE_NXZ ; std::basic_ostream<wchar_t,std::char_traits<wchar_t> >::sentry::operator bool
PUBLIC	??$?6_WU?$char_traits@_W@std@@V?$allocator@_W@1@@std@@YAAAV?$basic_ostream@_WU?$char_traits@_W@std@@@0@AAV10@ABV?$basic_string@_WU?$char_traits@_W@std@@V?$allocator@_W@2@@0@@Z ; std::operator<<<wchar_t,std::char_traits<wchar_t>,std::allocator<wchar_t> >
EXTRN	__imp_?sputc@?$basic_streambuf@_WU?$char_traits@_W@std@@@std@@QAEG_W@Z:NEAR
EXTRN	__imp_?fill@?$basic_ios@_WU?$char_traits@_W@std@@@std@@QBE_WXZ:NEAR
EXTRN	__imp_??A?$basic_string@_WU?$char_traits@_W@std@@V?$allocator@_W@2@@std@@QBEAB_WI@Z:NEAR
;	COMDAT xdata$x
xdata$x	SEGMENT
$T89676	DD	0ffffffffH
	DD	FLAT:$L89669
	DD	00H
	DD	00H
	DD	00H
	DD	00H
$T89678	DD	00H
	DD	00H
	DD	00H
	DD	FLAT:$L89668
$T89677	DD	01H
	DD	01H
	DD	02H
	DD	01H
	DD	FLAT:$T89678
$T89671	DD	019930520H
	DD	03H
	DD	FLAT:$T89676
	DD	01H
	DD	FLAT:$T89677
	DD	2 DUP(00H)
; Function compile flags: /Odt /RTCsu
xdata$x	ENDS
;	COMDAT ??$?6_WU?$char_traits@_W@std@@V?$allocator@_W@1@@std@@YAAAV?$basic_ostream@_WU?$char_traits@_W@std@@@0@AAV10@ABV?$basic_string@_WU?$char_traits@_W@std@@V?$allocator@_W@2@@0@@Z
_TEXT	SEGMENT
tv221 = -113						; size = 1
tv220 = -112						; size = 2
tv219 = -110						; size = 2
tv218 = -108						; size = 4
tv217 = -104						; size = 2
tv216 = -101						; size = 1
tv215 = -100						; size = 2
tv214 = -98						; size = 2
tv213 = -96						; size = 4
tv212 = -92						; size = 4
tv211 = -85						; size = 1
tv210 = -84						; size = 2
tv209 = -82						; size = 2
tv208 = -80						; size = 4
tv207 = -74						; size = 2
tv83 = -72						; size = 4
tv81 = -68						; size = 4
$T89666 = -64						; size = 4
$T89665 = -60						; size = 2
$T89664 = -58						; size = 2
$T89663 = -56						; size = 2
$T89662 = -54						; size = 2
$T89661 = -52						; size = 2
$T89660 = -50						; size = 2
__Count$87511 = -48					; size = 4
__Ok$ = -40						; size = 8
__Pad$ = -28						; size = 4
__Size$ = -24						; size = 4
__State$ = -20						; size = 4
__$EHRec$ = -16						; size = 16
__Ostr$ = 8						; size = 4
__Str$ = 12						; size = 4
??$?6_WU?$char_traits@_W@std@@V?$allocator@_W@1@@std@@YAAAV?$basic_ostream@_WU?$char_traits@_W@std@@@0@AAV10@ABV?$basic_string@_WU?$char_traits@_W@std@@V?$allocator@_W@2@@0@@Z PROC NEAR ; std::operator<<<wchar_t,std::char_traits<wchar_t>,std::allocator<wchar_t> >, COMDAT

; 538  : 	{	// insert a string

  00000	55		 push	 ebp
  00001	8b ec		 mov	 ebp, esp
  00003	6a ff		 push	 -1
  00005	68 00 00 00 00	 push	 __ehhandler$??$?6_WU?$char_traits@_W@std@@V?$allocator@_W@1@@std@@YAAAV?$basic_ostream@_WU?$char_traits@_W@std@@@0@AAV10@ABV?$basic_string@_WU?$char_traits@_W@std@@V?$allocator@_W@2@@0@@Z
  0000a	64 a1 00 00 00
	00		 mov	 eax, DWORD PTR fs:__except_list
  00010	50		 push	 eax
  00011	64 89 25 00 00
	00 00		 mov	 DWORD PTR fs:__except_list, esp
  00018	51		 push	 ecx
  00019	83 ec 64	 sub	 esp, 100		; 00000064H
  0001c	53		 push	 ebx
  0001d	56		 push	 esi
  0001e	57		 push	 edi
  0001f	8d 7d 8c	 lea	 edi, DWORD PTR [ebp-116]
  00022	b9 19 00 00 00	 mov	 ecx, 25			; 00000019H
  00027	b8 cc cc cc cc	 mov	 eax, -858993460		; ccccccccH
  0002c	f3 ab		 rep stosd
  0002e	89 65 f0	 mov	 DWORD PTR __$EHRec$[ebp], esp

; 539  : 	typedef basic_ostream<_Elem, _Traits> _Myos;
; 540  : 	typedef basic_string<_Elem, _Traits, _Alloc> _Mystr;
; 541  : 	typedef typename _Mystr::size_type _Mysizt;
; 542  : 
; 543  : 	ios_base::iostate _State = ios_base::goodbit;

  00031	c7 45 ec 00 00
	00 00		 mov	 DWORD PTR __State$[ebp], 0

; 544  : 	_Mysizt _Size = _Str.size();

  00038	8b f4		 mov	 esi, esp
  0003a	8b 4d 0c	 mov	 ecx, DWORD PTR __Str$[ebp]
  0003d	ff 15 00 00 00
	00		 call	 DWORD PTR __imp_?size@?$basic_string@_WU?$char_traits@_W@std@@V?$allocator@_W@2@@std@@QBEIXZ
  00043	3b f4		 cmp	 esi, esp
  00045	e8 00 00 00 00	 call	 __RTC_CheckEsp
  0004a	89 45 e8	 mov	 DWORD PTR __Size$[ebp], eax

; 545  : 	_Mysizt _Pad = _Ostr.width() <= 0 || (_Mysizt)_Ostr.width() <= _Size
; 546  : 			? 0 : (_Mysizt)_Ostr.width() - _Size;

  0004d	8b 45 08	 mov	 eax, DWORD PTR __Ostr$[ebp]
  00050	8b 08		 mov	 ecx, DWORD PTR [eax]
  00052	8b 55 08	 mov	 edx, DWORD PTR __Ostr$[ebp]
  00055	03 51 04	 add	 edx, DWORD PTR [ecx+4]
  00058	8b f4		 mov	 esi, esp
  0005a	8b ca		 mov	 ecx, edx
  0005c	ff 15 00 00 00
	00		 call	 DWORD PTR __imp_?width@ios_base@std@@QBEHXZ
  00062	3b f4		 cmp	 esi, esp
  00064	e8 00 00 00 00	 call	 __RTC_CheckEsp
  00069	85 c0		 test	 eax, eax
  0006b	7e 45		 jle	 SHORT $L89658
  0006d	8b 45 08	 mov	 eax, DWORD PTR __Ostr$[ebp]
  00070	8b 08		 mov	 ecx, DWORD PTR [eax]
  00072	8b 55 08	 mov	 edx, DWORD PTR __Ostr$[ebp]
  00075	03 51 04	 add	 edx, DWORD PTR [ecx+4]
  00078	8b f4		 mov	 esi, esp
  0007a	8b ca		 mov	 ecx, edx
  0007c	ff 15 00 00 00
	00		 call	 DWORD PTR __imp_?width@ios_base@std@@QBEHXZ
  00082	3b f4		 cmp	 esi, esp
  00084	e8 00 00 00 00	 call	 __RTC_CheckEsp
  00089	3b 45 e8	 cmp	 eax, DWORD PTR __Size$[ebp]
  0008c	76 24		 jbe	 SHORT $L89658
  0008e	8b 45 08	 mov	 eax, DWORD PTR __Ostr$[ebp]
  00091	8b 08		 mov	 ecx, DWORD PTR [eax]
  00093	8b 55 08	 mov	 edx, DWORD PTR __Ostr$[ebp]
  00096	03 51 04	 add	 edx, DWORD PTR [ecx+4]
  00099	8b f4		 mov	 esi, esp
  0009b	8b ca		 mov	 ecx, edx
  0009d	ff 15 00 00 00
	00		 call	 DWORD PTR __imp_?width@ios_base@std@@QBEHXZ
  000a3	3b f4		 cmp	 esi, esp
  000a5	e8 00 00 00 00	 call	 __RTC_CheckEsp
  000aa	2b 45 e8	 sub	 eax, DWORD PTR __Size$[ebp]
  000ad	89 45 bc	 mov	 DWORD PTR tv81[ebp], eax
  000b0	eb 07		 jmp	 SHORT $L89659
$L89658:
  000b2	c7 45 bc 00 00
	00 00		 mov	 DWORD PTR tv81[ebp], 0
$L89659:
  000b9	8b 45 bc	 mov	 eax, DWORD PTR tv81[ebp]
  000bc	89 45 e4	 mov	 DWORD PTR __Pad$[ebp], eax

; 547  : 	const typename _Myos::sentry _Ok(_Ostr);

  000bf	8b 4d 08	 mov	 ecx, DWORD PTR __Ostr$[ebp]
  000c2	51		 push	 ecx
  000c3	8d 4d d8	 lea	 ecx, DWORD PTR __Ok$[ebp]
  000c6	e8 00 00 00 00	 call	 ??0sentry@?$basic_ostream@_WU?$char_traits@_W@std@@@std@@QAE@AAV12@@Z ; std::basic_ostream<wchar_t,std::char_traits<wchar_t> >::sentry::sentry
  000cb	c7 45 fc 00 00
	00 00		 mov	 DWORD PTR __$EHRec$[ebp+12], 0

; 548  : 
; 549  : 	if (!_Ok)

  000d2	8d 4d d8	 lea	 ecx, DWORD PTR __Ok$[ebp]
  000d5	e8 00 00 00 00	 call	 ??Bsentry@?$basic_ostream@_WU?$char_traits@_W@std@@@std@@QBE_NXZ ; std::basic_ostream<wchar_t,std::char_traits<wchar_t> >::sentry::operator bool
  000da	0f b6 d0	 movzx	 edx, al
  000dd	85 d2		 test	 edx, edx
  000df	75 0e		 jne	 SHORT $L87500

; 550  : 		_State |= ios_base::badbit;

  000e1	8b 45 ec	 mov	 eax, DWORD PTR __State$[ebp]
  000e4	83 c8 04	 or	 eax, 4
  000e7	89 45 ec	 mov	 DWORD PTR __State$[ebp], eax

; 551  : 	else

  000ea	e9 dd 02 00 00	 jmp	 $L89667
$L87500:

; 552  : 		{	// state okay, insert characters
; 553  : 	_TRY_IO_BEGIN

  000ef	c6 45 fc 01	 mov	 BYTE PTR __$EHRec$[ebp+12], 1

; 554  : 		if ((_Ostr.flags() & ios_base::adjustfield) != ios_base::left)

  000f3	8b 4d 08	 mov	 ecx, DWORD PTR __Ostr$[ebp]
  000f6	8b 11		 mov	 edx, DWORD PTR [ecx]
  000f8	8b 4d 08	 mov	 ecx, DWORD PTR __Ostr$[ebp]
  000fb	03 4a 04	 add	 ecx, DWORD PTR [edx+4]
  000fe	8b f4		 mov	 esi, esp
  00100	ff 15 00 00 00
	00		 call	 DWORD PTR __imp_?flags@ios_base@std@@QBEHXZ
  00106	3b f4		 cmp	 esi, esp
  00108	e8 00 00 00 00	 call	 __RTC_CheckEsp
  0010d	89 45 b8	 mov	 DWORD PTR tv83[ebp], eax
  00110	8b 45 b8	 mov	 eax, DWORD PTR tv83[ebp]
  00113	25 c0 01 00 00	 and	 eax, 448		; 000001c0H
  00118	83 f8 40	 cmp	 eax, 64			; 00000040H
  0011b	0f 84 c3 00 00
	00		 je	 $L87503

; 555  : 			for (; 0 < _Pad; --_Pad)	// pad on left

  00121	eb 09		 jmp	 SHORT $L87504
$L87505:
  00123	8b 4d e4	 mov	 ecx, DWORD PTR __Pad$[ebp]
  00126	83 e9 01	 sub	 ecx, 1
  00129	89 4d e4	 mov	 DWORD PTR __Pad$[ebp], ecx
$L87504:
  0012c	83 7d e4 00	 cmp	 DWORD PTR __Pad$[ebp], 0
  00130	0f 86 ae 00 00
	00		 jbe	 $L87503

; 556  : 				if (_Traits::eq_int_type(_Traits::eof(),
; 557  : 					_Ostr.rdbuf()->sputc(_Ostr.fill())))

  00136	8b 55 08	 mov	 edx, DWORD PTR __Ostr$[ebp]
  00139	8b 02		 mov	 eax, DWORD PTR [edx]
  0013b	8b 4d 08	 mov	 ecx, DWORD PTR __Ostr$[ebp]
  0013e	03 48 04	 add	 ecx, DWORD PTR [eax+4]
  00141	8b f4		 mov	 esi, esp
  00143	ff 15 00 00 00
	00		 call	 DWORD PTR __imp_?fill@?$basic_ios@_WU?$char_traits@_W@std@@@std@@QBE_WXZ
  00149	3b f4		 cmp	 esi, esp
  0014b	e8 00 00 00 00	 call	 __RTC_CheckEsp
  00150	66 89 45 b6	 mov	 WORD PTR tv207[ebp], ax
  00154	8b 4d 08	 mov	 ecx, DWORD PTR __Ostr$[ebp]
  00157	8b 11		 mov	 edx, DWORD PTR [ecx]
  00159	8b 4d 08	 mov	 ecx, DWORD PTR __Ostr$[ebp]
  0015c	03 4a 04	 add	 ecx, DWORD PTR [edx+4]
  0015f	8b f4		 mov	 esi, esp
  00161	ff 15 00 00 00
	00		 call	 DWORD PTR __imp_?rdbuf@?$basic_ios@_WU?$char_traits@_W@std@@@std@@QBEPAV?$basic_streambuf@_WU?$char_traits@_W@std@@@2@XZ
  00167	3b f4		 cmp	 esi, esp
  00169	e8 00 00 00 00	 call	 __RTC_CheckEsp
  0016e	89 45 b0	 mov	 DWORD PTR tv208[ebp], eax
  00171	8b f4		 mov	 esi, esp
  00173	66 8b 45 b6	 mov	 ax, WORD PTR tv207[ebp]
  00177	50		 push	 eax
  00178	8b 4d b0	 mov	 ecx, DWORD PTR tv208[ebp]
  0017b	ff 15 00 00 00
	00		 call	 DWORD PTR __imp_?sputc@?$basic_streambuf@_WU?$char_traits@_W@std@@@std@@QAEG_W@Z
  00181	3b f4		 cmp	 esi, esp
  00183	e8 00 00 00 00	 call	 __RTC_CheckEsp
  00188	66 89 45 ae	 mov	 WORD PTR tv209[ebp], ax
  0018c	66 8b 4d ae	 mov	 cx, WORD PTR tv209[ebp]
  00190	66 89 4d ce	 mov	 WORD PTR $T89660[ebp], cx
  00194	8b f4		 mov	 esi, esp
  00196	ff 15 00 00 00
	00		 call	 DWORD PTR __imp_?eof@?$char_traits@_W@std@@SAGXZ
  0019c	3b f4		 cmp	 esi, esp
  0019e	e8 00 00 00 00	 call	 __RTC_CheckEsp
  001a3	66 89 45 ac	 mov	 WORD PTR tv210[ebp], ax
  001a7	66 8b 55 ac	 mov	 dx, WORD PTR tv210[ebp]
  001ab	66 89 55 cc	 mov	 WORD PTR $T89661[ebp], dx
  001af	8b f4		 mov	 esi, esp
  001b1	8d 45 ce	 lea	 eax, DWORD PTR $T89660[ebp]
  001b4	50		 push	 eax
  001b5	8d 4d cc	 lea	 ecx, DWORD PTR $T89661[ebp]
  001b8	51		 push	 ecx
  001b9	ff 15 00 00 00
	00		 call	 DWORD PTR __imp_?eq_int_type@?$char_traits@_W@std@@SA_NABG0@Z
  001bf	83 c4 08	 add	 esp, 8
  001c2	3b f4		 cmp	 esi, esp
  001c4	e8 00 00 00 00	 call	 __RTC_CheckEsp
  001c9	88 45 ab	 mov	 BYTE PTR tv211[ebp], al
  001cc	0f b6 55 ab	 movzx	 edx, BYTE PTR tv211[ebp]
  001d0	85 d2		 test	 edx, edx
  001d2	74 0b		 je	 SHORT $L87509

; 558  : 					{	// insertion failed, quit
; 559  : 					_State |= ios_base::badbit;

  001d4	8b 45 ec	 mov	 eax, DWORD PTR __State$[ebp]
  001d7	83 c8 04	 or	 eax, 4
  001da	89 45 ec	 mov	 DWORD PTR __State$[ebp], eax

; 560  : 					break;

  001dd	eb 05		 jmp	 SHORT $L87503
$L87509:

; 561  : 					}
; 562  : 
; 563  : 		if (_State == ios_base::goodbit)

  001df	e9 3f ff ff ff	 jmp	 $L87505
$L87503:
  001e4	83 7d ec 00	 cmp	 DWORD PTR __State$[ebp], 0
  001e8	0f 85 c9 00 00
	00		 jne	 $L87510

; 564  : 			for (_Mysizt _Count = 0; _Count < _Size; ++_Count)

  001ee	c7 45 d0 00 00
	00 00		 mov	 DWORD PTR __Count$87511[ebp], 0
  001f5	eb 09		 jmp	 SHORT $L87512
$L87513:
  001f7	8b 4d d0	 mov	 ecx, DWORD PTR __Count$87511[ebp]
  001fa	83 c1 01	 add	 ecx, 1
  001fd	89 4d d0	 mov	 DWORD PTR __Count$87511[ebp], ecx
$L87512:
  00200	8b 55 d0	 mov	 edx, DWORD PTR __Count$87511[ebp]
  00203	3b 55 e8	 cmp	 edx, DWORD PTR __Size$[ebp]
  00206	0f 83 ab 00 00
	00		 jae	 $L87510

; 565  : 				if (_Traits::eq_int_type(_Traits::eof(),
; 566  : 					_Ostr.rdbuf()->sputc(_Str[_Count])))

  0020c	8b f4		 mov	 esi, esp
  0020e	8b 45 d0	 mov	 eax, DWORD PTR __Count$87511[ebp]
  00211	50		 push	 eax
  00212	8b 4d 0c	 mov	 ecx, DWORD PTR __Str$[ebp]
  00215	ff 15 00 00 00
	00		 call	 DWORD PTR __imp_??A?$basic_string@_WU?$char_traits@_W@std@@V?$allocator@_W@2@@std@@QBEAB_WI@Z
  0021b	3b f4		 cmp	 esi, esp
  0021d	e8 00 00 00 00	 call	 __RTC_CheckEsp
  00222	89 45 a4	 mov	 DWORD PTR tv212[ebp], eax
  00225	8b 4d 08	 mov	 ecx, DWORD PTR __Ostr$[ebp]
  00228	8b 11		 mov	 edx, DWORD PTR [ecx]
  0022a	8b 4d 08	 mov	 ecx, DWORD PTR __Ostr$[ebp]
  0022d	03 4a 04	 add	 ecx, DWORD PTR [edx+4]
  00230	8b f4		 mov	 esi, esp
  00232	ff 15 00 00 00
	00		 call	 DWORD PTR __imp_?rdbuf@?$basic_ios@_WU?$char_traits@_W@std@@@std@@QBEPAV?$basic_streambuf@_WU?$char_traits@_W@std@@@2@XZ
  00238	3b f4		 cmp	 esi, esp
  0023a	e8 00 00 00 00	 call	 __RTC_CheckEsp
  0023f	89 45 a0	 mov	 DWORD PTR tv213[ebp], eax
  00242	8b f4		 mov	 esi, esp
  00244	8b 45 a4	 mov	 eax, DWORD PTR tv212[ebp]
  00247	66 8b 08	 mov	 cx, WORD PTR [eax]
  0024a	51		 push	 ecx
  0024b	8b 4d a0	 mov	 ecx, DWORD PTR tv213[ebp]
  0024e	ff 15 00 00 00
	00		 call	 DWORD PTR __imp_?sputc@?$basic_streambuf@_WU?$char_traits@_W@std@@@std@@QAEG_W@Z
  00254	3b f4		 cmp	 esi, esp
  00256	e8 00 00 00 00	 call	 __RTC_CheckEsp
  0025b	66 89 45 9e	 mov	 WORD PTR tv214[ebp], ax
  0025f	66 8b 55 9e	 mov	 dx, WORD PTR tv214[ebp]
  00263	66 89 55 ca	 mov	 WORD PTR $T89662[ebp], dx
  00267	8b f4		 mov	 esi, esp
  00269	ff 15 00 00 00
	00		 call	 DWORD PTR __imp_?eof@?$char_traits@_W@std@@SAGXZ
  0026f	3b f4		 cmp	 esi, esp
  00271	e8 00 00 00 00	 call	 __RTC_CheckEsp
  00276	66 89 45 9c	 mov	 WORD PTR tv215[ebp], ax
  0027a	66 8b 45 9c	 mov	 ax, WORD PTR tv215[ebp]
  0027e	66 89 45 c8	 mov	 WORD PTR $T89663[ebp], ax
  00282	8b f4		 mov	 esi, esp
  00284	8d 4d ca	 lea	 ecx, DWORD PTR $T89662[ebp]
  00287	51		 push	 ecx
  00288	8d 55 c8	 lea	 edx, DWORD PTR $T89663[ebp]
  0028b	52		 push	 edx
  0028c	ff 15 00 00 00
	00		 call	 DWORD PTR __imp_?eq_int_type@?$char_traits@_W@std@@SA_NABG0@Z
  00292	83 c4 08	 add	 esp, 8
  00295	3b f4		 cmp	 esi, esp
  00297	e8 00 00 00 00	 call	 __RTC_CheckEsp
  0029c	88 45 9b	 mov	 BYTE PTR tv216[ebp], al
  0029f	0f b6 45 9b	 movzx	 eax, BYTE PTR tv216[ebp]
  002a3	85 c0		 test	 eax, eax
  002a5	74 0b		 je	 SHORT $L87517

; 567  : 					{	// insertion failed, quit
; 568  : 					_State |= ios_base::badbit;

  002a7	8b 4d ec	 mov	 ecx, DWORD PTR __State$[ebp]
  002aa	83 c9 04	 or	 ecx, 4
  002ad	89 4d ec	 mov	 DWORD PTR __State$[ebp], ecx

; 569  : 					break;

  002b0	eb 05		 jmp	 SHORT $L87510
$L87517:

; 570  : 					}
; 571  : 
; 572  : 		if (_State == ios_base::goodbit)

  002b2	e9 40 ff ff ff	 jmp	 $L87513
$L87510:
  002b7	83 7d ec 00	 cmp	 DWORD PTR __State$[ebp], 0
  002bb	0f 85 c7 00 00
	00		 jne	 $L87518

; 573  : 			for (; 0 < _Pad; --_Pad)	// pad on right

  002c1	eb 09		 jmp	 SHORT $L87519
$L87520:
  002c3	8b 55 e4	 mov	 edx, DWORD PTR __Pad$[ebp]
  002c6	83 ea 01	 sub	 edx, 1
  002c9	89 55 e4	 mov	 DWORD PTR __Pad$[ebp], edx
$L87519:
  002cc	83 7d e4 00	 cmp	 DWORD PTR __Pad$[ebp], 0
  002d0	0f 86 b2 00 00
	00		 jbe	 $L87518

; 574  : 				if (_Traits::eq_int_type(_Traits::eof(),
; 575  : 					_Ostr.rdbuf()->sputc(_Ostr.fill())))

  002d6	8b 45 08	 mov	 eax, DWORD PTR __Ostr$[ebp]
  002d9	8b 08		 mov	 ecx, DWORD PTR [eax]
  002db	8b 55 08	 mov	 edx, DWORD PTR __Ostr$[ebp]
  002de	03 51 04	 add	 edx, DWORD PTR [ecx+4]
  002e1	8b f4		 mov	 esi, esp
  002e3	8b ca		 mov	 ecx, edx
  002e5	ff 15 00 00 00
	00		 call	 DWORD PTR __imp_?fill@?$basic_ios@_WU?$char_traits@_W@std@@@std@@QBE_WXZ
  002eb	3b f4		 cmp	 esi, esp
  002ed	e8 00 00 00 00	 call	 __RTC_CheckEsp
  002f2	66 89 45 98	 mov	 WORD PTR tv217[ebp], ax
  002f6	8b 45 08	 mov	 eax, DWORD PTR __Ostr$[ebp]
  002f9	8b 08		 mov	 ecx, DWORD PTR [eax]
  002fb	8b 55 08	 mov	 edx, DWORD PTR __Ostr$[ebp]
  002fe	03 51 04	 add	 edx, DWORD PTR [ecx+4]
  00301	8b f4		 mov	 esi, esp
  00303	8b ca		 mov	 ecx, edx
  00305	ff 15 00 00 00
	00		 call	 DWORD PTR __imp_?rdbuf@?$basic_ios@_WU?$char_traits@_W@std@@@std@@QBEPAV?$basic_streambuf@_WU?$char_traits@_W@std@@@2@XZ
  0030b	3b f4		 cmp	 esi, esp
  0030d	e8 00 00 00 00	 call	 __RTC_CheckEsp
  00312	89 45 94	 mov	 DWORD PTR tv218[ebp], eax
  00315	8b f4		 mov	 esi, esp
  00317	66 8b 45 98	 mov	 ax, WORD PTR tv217[ebp]
  0031b	50		 push	 eax
  0031c	8b 4d 94	 mov	 ecx, DWORD PTR tv218[ebp]
  0031f	ff 15 00 00 00
	00		 call	 DWORD PTR __imp_?sputc@?$basic_streambuf@_WU?$char_traits@_W@std@@@std@@QAEG_W@Z
  00325	3b f4		 cmp	 esi, esp
  00327	e8 00 00 00 00	 call	 __RTC_CheckEsp
  0032c	66 89 45 92	 mov	 WORD PTR tv219[ebp], ax
  00330	66 8b 4d 92	 mov	 cx, WORD PTR tv219[ebp]
  00334	66 89 4d c6	 mov	 WORD PTR $T89664[ebp], cx
  00338	8b f4		 mov	 esi, esp
  0033a	ff 15 00 00 00
	00		 call	 DWORD PTR __imp_?eof@?$char_traits@_W@std@@SAGXZ
  00340	3b f4		 cmp	 esi, esp
  00342	e8 00 00 00 00	 call	 __RTC_CheckEsp
  00347	66 89 45 90	 mov	 WORD PTR tv220[ebp], ax
  0034b	66 8b 55 90	 mov	 dx, WORD PTR tv220[ebp]
  0034f	66 89 55 c4	 mov	 WORD PTR $T89665[ebp], dx
  00353	8b f4		 mov	 esi, esp
  00355	8d 45 c6	 lea	 eax, DWORD PTR $T89664[ebp]
  00358	50		 push	 eax
  00359	8d 4d c4	 lea	 ecx, DWORD PTR $T89665[ebp]
  0035c	51		 push	 ecx
  0035d	ff 15 00 00 00
	00		 call	 DWORD PTR __imp_?eq_int_type@?$char_traits@_W@std@@SA_NABG0@Z
  00363	83 c4 08	 add	 esp, 8
  00366	3b f4		 cmp	 esi, esp
  00368	e8 00 00 00 00	 call	 __RTC_CheckEsp
  0036d	88 45 8f	 mov	 BYTE PTR tv221[ebp], al
  00370	0f b6 55 8f	 movzx	 edx, BYTE PTR tv221[ebp]
  00374	85 d2		 test	 edx, edx
  00376	74 0b		 je	 SHORT $L87524

; 576  : 					{	// insertion failed, quit
; 577  : 					_State |= ios_base::badbit;

  00378	8b 45 ec	 mov	 eax, DWORD PTR __State$[ebp]
  0037b	83 c8 04	 or	 eax, 4
  0037e	89 45 ec	 mov	 DWORD PTR __State$[ebp], eax

; 578  : 					break;

  00381	eb 05		 jmp	 SHORT $L87518
$L87524:

; 579  : 					}
; 580  : 		_Ostr.width(0);

  00383	e9 3b ff ff ff	 jmp	 $L87520
$L87518:
  00388	8b f4		 mov	 esi, esp
  0038a	6a 00		 push	 0
  0038c	8b 4d 08	 mov	 ecx, DWORD PTR __Ostr$[ebp]
  0038f	8b 11		 mov	 edx, DWORD PTR [ecx]
  00391	8b 4d 08	 mov	 ecx, DWORD PTR __Ostr$[ebp]
  00394	03 4a 04	 add	 ecx, DWORD PTR [edx+4]
  00397	ff 15 00 00 00
	00		 call	 DWORD PTR __imp_?width@ios_base@std@@QAEHH@Z
  0039d	3b f4		 cmp	 esi, esp
  0039f	e8 00 00 00 00	 call	 __RTC_CheckEsp
  003a4	eb 26		 jmp	 SHORT $L89667
$L89668:

; 581  : 		_CATCH_IO_(_Ostr)

  003a6	8b f4		 mov	 esi, esp
  003a8	6a 01		 push	 1
  003aa	6a 04		 push	 4
  003ac	8b 45 08	 mov	 eax, DWORD PTR __Ostr$[ebp]
  003af	8b 08		 mov	 ecx, DWORD PTR [eax]
  003b1	8b 55 08	 mov	 edx, DWORD PTR __Ostr$[ebp]
  003b4	03 51 04	 add	 edx, DWORD PTR [ecx+4]
  003b7	8b ca		 mov	 ecx, edx
  003b9	ff 15 00 00 00
	00		 call	 DWORD PTR __imp_?setstate@?$basic_ios@_WU?$char_traits@_W@std@@@std@@QAEXH_N@Z
  003bf	3b f4		 cmp	 esi, esp
  003c1	e8 00 00 00 00	 call	 __RTC_CheckEsp
  003c6	b8 00 00 00 00	 mov	 eax, $L89667
  003cb	c3		 ret	 0
$L89667:
  003cc	c7 45 fc 00 00
	00 00		 mov	 DWORD PTR __$EHRec$[ebp+12], 0

; 582  : 		}
; 583  : 
; 584  : 	_Ostr.setstate(_State);

  003d3	8b f4		 mov	 esi, esp
  003d5	6a 00		 push	 0
  003d7	8b 45 ec	 mov	 eax, DWORD PTR __State$[ebp]
  003da	50		 push	 eax
  003db	8b 4d 08	 mov	 ecx, DWORD PTR __Ostr$[ebp]
  003de	8b 11		 mov	 edx, DWORD PTR [ecx]
  003e0	8b 4d 08	 mov	 ecx, DWORD PTR __Ostr$[ebp]
  003e3	03 4a 04	 add	 ecx, DWORD PTR [edx+4]
  003e6	ff 15 00 00 00
	00		 call	 DWORD PTR __imp_?setstate@?$basic_ios@_WU?$char_traits@_W@std@@@std@@QAEXH_N@Z
  003ec	3b f4		 cmp	 esi, esp
  003ee	e8 00 00 00 00	 call	 __RTC_CheckEsp

; 585  : 	return (_Ostr);

  003f3	8b 45 08	 mov	 eax, DWORD PTR __Ostr$[ebp]
  003f6	89 45 c0	 mov	 DWORD PTR $T89666[ebp], eax
  003f9	c7 45 fc ff ff
	ff ff		 mov	 DWORD PTR __$EHRec$[ebp+12], -1
  00400	8d 4d d8	 lea	 ecx, DWORD PTR __Ok$[ebp]
  00403	e8 00 00 00 00	 call	 ??1sentry@?$basic_ostream@_WU?$char_traits@_W@std@@@std@@QAE@XZ ; std::basic_ostream<wchar_t,std::char_traits<wchar_t> >::sentry::~sentry
  00408	8b 45 c0	 mov	 eax, DWORD PTR $T89666[ebp]

; 586  : 	}

  0040b	52		 push	 edx
  0040c	8b cd		 mov	 ecx, ebp
  0040e	50		 push	 eax
  0040f	8d 15 00 00 00
	00		 lea	 edx, DWORD PTR $L89675
  00415	e8 00 00 00 00	 call	 @_RTC_CheckStackVars@8
  0041a	58		 pop	 eax
  0041b	5a		 pop	 edx
  0041c	8b 4d f4	 mov	 ecx, DWORD PTR __$EHRec$[ebp+4]
  0041f	64 89 0d 00 00
	00 00		 mov	 DWORD PTR fs:__except_list, ecx
  00426	5f		 pop	 edi
  00427	5e		 pop	 esi
  00428	5b		 pop	 ebx
  00429	83 c4 74	 add	 esp, 116		; 00000074H
  0042c	3b ec		 cmp	 ebp, esp
  0042e	e8 00 00 00 00	 call	 __RTC_CheckEsp
  00433	8b e5		 mov	 esp, ebp
  00435	5d		 pop	 ebp
  00436	c3		 ret	 0
$L89675:
  00437	01 00 00 00	 DD	 1
  0043b	00 00 00 00	 DD	 $L89674
$L89674:
  0043f	d8 ff ff ff	 DD	 -40			; ffffffd8H
  00443	08 00 00 00	 DD	 8
  00447	00 00 00 00	 DD	 $L89672
$L89672:
  0044b	5f		 DB	 95			; 0000005fH
  0044c	4f		 DB	 79			; 0000004fH
  0044d	6b		 DB	 107			; 0000006bH
  0044e	00		 DB	 0
_TEXT	ENDS
;	COMDAT text$x
text$x	SEGMENT
$L89669:
  00000	8d 4d d8	 lea	 ecx, DWORD PTR __Ok$[ebp]
  00003	e9 00 00 00 00	 jmp	 ??1sentry@?$basic_ostream@_WU?$char_traits@_W@std@@@std@@QAE@XZ ; std::basic_ostream<wchar_t,std::char_traits<wchar_t> >::sentry::~sentry
__ehhandler$??$?6_WU?$char_traits@_W@std@@V?$allocator@_W@1@@std@@YAAAV?$basic_ostream@_WU?$char_traits@_W@std@@@0@AAV10@ABV?$basic_string@_WU?$char_traits@_W@std@@V?$allocator@_W@2@@0@@Z:
  00008	b8 00 00 00 00	 mov	 eax, OFFSET FLAT:$T89671
  0000d	e9 00 00 00 00	 jmp	 ___CxxFrameHandler
text$x	ENDS
??$?6_WU?$char_traits@_W@std@@V?$allocator@_W@1@@std@@YAAAV?$basic_ostream@_WU?$char_traits@_W@std@@@0@AAV10@ABV?$basic_string@_WU?$char_traits@_W@std@@V?$allocator@_W@2@@0@@Z ENDP ; std::operator<<<wchar_t,std::char_traits<wchar_t>,std::allocator<wchar_t> >
PUBLIC	??0_Sentry_base@?$basic_ostream@_WU?$char_traits@_W@std@@@std@@QAE@AAV12@@Z ; std::basic_ostream<wchar_t,std::char_traits<wchar_t> >::_Sentry_base::_Sentry_base
PUBLIC	??1_Sentry_base@?$basic_ostream@_WU?$char_traits@_W@std@@@std@@QAE@XZ ; std::basic_ostream<wchar_t,std::char_traits<wchar_t> >::_Sentry_base::~_Sentry_base
EXTRN	__imp_?tie@?$basic_ios@_WU?$char_traits@_W@std@@@std@@QBEPAV?$basic_ostream@_WU?$char_traits@_W@std@@@2@XZ:NEAR
EXTRN	__imp_?flush@?$basic_ostream@_WU?$char_traits@_W@std@@@std@@QAEAAV12@XZ:NEAR
;	COMDAT xdata$x
; File d:\program files (x86)\microsoft visual studio .net 2003\vc7\include\ostream
xdata$x	SEGMENT
$T89686	DD	0ffffffffH
	DD	FLAT:$L89682
$T89684	DD	019930520H
	DD	01H
	DD	FLAT:$T89686
	DD	2 DUP(00H)
	DD	2 DUP(00H)
; Function compile flags: /Odt /RTCsu
xdata$x	ENDS
;	COMDAT ??0sentry@?$basic_ostream@_WU?$char_traits@_W@std@@@std@@QAE@AAV12@@Z
_TEXT	SEGMENT
_this$ = -16						; size = 4
__$EHRec$ = -12						; size = 12
__Ostr$ = 8						; size = 4
??0sentry@?$basic_ostream@_WU?$char_traits@_W@std@@@std@@QAE@AAV12@@Z PROC NEAR ; std::basic_ostream<wchar_t,std::char_traits<wchar_t> >::sentry::sentry, COMDAT
; _this$ = ecx

; 88   : 			{	// construct locking and testing stream

  00000	55		 push	 ebp
  00001	8b ec		 mov	 ebp, esp
  00003	6a ff		 push	 -1
  00005	68 00 00 00 00	 push	 __ehhandler$??0sentry@?$basic_ostream@_WU?$char_traits@_W@std@@@std@@QAE@AAV12@@Z
  0000a	64 a1 00 00 00
	00		 mov	 eax, DWORD PTR fs:__except_list
  00010	50		 push	 eax
  00011	64 89 25 00 00
	00 00		 mov	 DWORD PTR fs:__except_list, esp
  00018	51		 push	 ecx
  00019	56		 push	 esi
  0001a	c7 45 f0 cc cc
	cc cc		 mov	 DWORD PTR [ebp-16], -858993460 ; ccccccccH
  00021	89 4d f0	 mov	 DWORD PTR _this$[ebp], ecx
  00024	8b 45 08	 mov	 eax, DWORD PTR __Ostr$[ebp]
  00027	50		 push	 eax
  00028	8b 4d f0	 mov	 ecx, DWORD PTR _this$[ebp]
  0002b	e8 00 00 00 00	 call	 ??0_Sentry_base@?$basic_ostream@_WU?$char_traits@_W@std@@@std@@QAE@AAV12@@Z ; std::basic_ostream<wchar_t,std::char_traits<wchar_t> >::_Sentry_base::_Sentry_base
  00030	c7 45 fc 00 00
	00 00		 mov	 DWORD PTR __$EHRec$[ebp+8], 0

; 89   : 			if (_Ostr.good() && _Ostr.tie() != 0)

  00037	8b 4d 08	 mov	 ecx, DWORD PTR __Ostr$[ebp]
  0003a	8b 11		 mov	 edx, DWORD PTR [ecx]
  0003c	8b 4d 08	 mov	 ecx, DWORD PTR __Ostr$[ebp]
  0003f	03 4a 04	 add	 ecx, DWORD PTR [edx+4]
  00042	8b f4		 mov	 esi, esp
  00044	ff 15 00 00 00
	00		 call	 DWORD PTR __imp_?good@ios_base@std@@QBE_NXZ
  0004a	3b f4		 cmp	 esi, esp
  0004c	e8 00 00 00 00	 call	 __RTC_CheckEsp
  00051	0f b6 c0	 movzx	 eax, al
  00054	85 c0		 test	 eax, eax
  00056	74 4b		 je	 SHORT $L86652
  00058	8b 4d 08	 mov	 ecx, DWORD PTR __Ostr$[ebp]
  0005b	8b 11		 mov	 edx, DWORD PTR [ecx]
  0005d	8b 4d 08	 mov	 ecx, DWORD PTR __Ostr$[ebp]
  00060	03 4a 04	 add	 ecx, DWORD PTR [edx+4]
  00063	8b f4		 mov	 esi, esp
  00065	ff 15 00 00 00
	00		 call	 DWORD PTR __imp_?tie@?$basic_ios@_WU?$char_traits@_W@std@@@std@@QBEPAV?$basic_ostream@_WU?$char_traits@_W@std@@@2@XZ
  0006b	3b f4		 cmp	 esi, esp
  0006d	e8 00 00 00 00	 call	 __RTC_CheckEsp
  00072	85 c0		 test	 eax, eax
  00074	74 2d		 je	 SHORT $L86652

; 90   : 				_Ostr.tie()->flush();

  00076	8b 45 08	 mov	 eax, DWORD PTR __Ostr$[ebp]
  00079	8b 08		 mov	 ecx, DWORD PTR [eax]
  0007b	8b 55 08	 mov	 edx, DWORD PTR __Ostr$[ebp]
  0007e	03 51 04	 add	 edx, DWORD PTR [ecx+4]
  00081	8b f4		 mov	 esi, esp
  00083	8b ca		 mov	 ecx, edx
  00085	ff 15 00 00 00
	00		 call	 DWORD PTR __imp_?tie@?$basic_ios@_WU?$char_traits@_W@std@@@std@@QBEPAV?$basic_ostream@_WU?$char_traits@_W@std@@@2@XZ
  0008b	3b f4		 cmp	 esi, esp
  0008d	e8 00 00 00 00	 call	 __RTC_CheckEsp
  00092	8b f4		 mov	 esi, esp
  00094	8b c8		 mov	 ecx, eax
  00096	ff 15 00 00 00
	00		 call	 DWORD PTR __imp_?flush@?$basic_ostream@_WU?$char_traits@_W@std@@@std@@QAEAAV12@XZ
  0009c	3b f4		 cmp	 esi, esp
  0009e	e8 00 00 00 00	 call	 __RTC_CheckEsp
$L86652:

; 91   : 			_Ok = _Ostr.good();	// store test only after flushing tie

  000a3	8b 45 08	 mov	 eax, DWORD PTR __Ostr$[ebp]
  000a6	8b 08		 mov	 ecx, DWORD PTR [eax]
  000a8	8b 55 08	 mov	 edx, DWORD PTR __Ostr$[ebp]
  000ab	03 51 04	 add	 edx, DWORD PTR [ecx+4]
  000ae	8b f4		 mov	 esi, esp
  000b0	8b ca		 mov	 ecx, edx
  000b2	ff 15 00 00 00
	00		 call	 DWORD PTR __imp_?good@ios_base@std@@QBE_NXZ
  000b8	3b f4		 cmp	 esi, esp
  000ba	e8 00 00 00 00	 call	 __RTC_CheckEsp
  000bf	8b 4d f0	 mov	 ecx, DWORD PTR _this$[ebp]
  000c2	88 41 04	 mov	 BYTE PTR [ecx+4], al

; 92   : 			}

  000c5	c7 45 fc ff ff
	ff ff		 mov	 DWORD PTR __$EHRec$[ebp+8], -1
  000cc	8b 45 f0	 mov	 eax, DWORD PTR _this$[ebp]
  000cf	8b 4d f4	 mov	 ecx, DWORD PTR __$EHRec$[ebp]
  000d2	64 89 0d 00 00
	00 00		 mov	 DWORD PTR fs:__except_list, ecx
  000d9	5e		 pop	 esi
  000da	83 c4 10	 add	 esp, 16			; 00000010H
  000dd	3b ec		 cmp	 ebp, esp
  000df	e8 00 00 00 00	 call	 __RTC_CheckEsp
  000e4	8b e5		 mov	 esp, ebp
  000e6	5d		 pop	 ebp
  000e7	c2 04 00	 ret	 4
_TEXT	ENDS
;	COMDAT text$x
text$x	SEGMENT
$L89682:
  00000	8b 4d f0	 mov	 ecx, DWORD PTR _this$[ebp]
  00003	e9 00 00 00 00	 jmp	 ??1_Sentry_base@?$basic_ostream@_WU?$char_traits@_W@std@@@std@@QAE@XZ ; std::basic_ostream<wchar_t,std::char_traits<wchar_t> >::_Sentry_base::~_Sentry_base
__ehhandler$??0sentry@?$basic_ostream@_WU?$char_traits@_W@std@@@std@@QAE@AAV12@@Z:
  00008	b8 00 00 00 00	 mov	 eax, OFFSET FLAT:$T89684
  0000d	e9 00 00 00 00	 jmp	 ___CxxFrameHandler
text$x	ENDS
??0sentry@?$basic_ostream@_WU?$char_traits@_W@std@@@std@@QAE@AAV12@@Z ENDP ; std::basic_ostream<wchar_t,std::char_traits<wchar_t> >::sentry::sentry
EXTRN	__imp_?_Osfx@?$basic_ostream@_WU?$char_traits@_W@std@@@std@@QAEXXZ:NEAR
;	COMDAT xdata$x
xdata$x	SEGMENT
$T89694	DD	0ffffffffH
	DD	FLAT:$L89690
$T89692	DD	019930520H
	DD	01H
	DD	FLAT:$T89694
	DD	2 DUP(00H)
	DD	2 DUP(00H)
; Function compile flags: /Odt /RTCsu
xdata$x	ENDS
;	COMDAT ??1sentry@?$basic_ostream@_WU?$char_traits@_W@std@@@std@@QAE@XZ
_TEXT	SEGMENT
_this$ = -16						; size = 4
__$EHRec$ = -12						; size = 12
??1sentry@?$basic_ostream@_WU?$char_traits@_W@std@@@std@@QAE@XZ PROC NEAR ; std::basic_ostream<wchar_t,std::char_traits<wchar_t> >::sentry::~sentry, COMDAT
; _this$ = ecx

; 95   : 			{	// destroy the object

  00000	55		 push	 ebp
  00001	8b ec		 mov	 ebp, esp
  00003	6a ff		 push	 -1
  00005	68 00 00 00 00	 push	 __ehhandler$??1sentry@?$basic_ostream@_WU?$char_traits@_W@std@@@std@@QAE@XZ
  0000a	64 a1 00 00 00
	00		 mov	 eax, DWORD PTR fs:__except_list
  00010	50		 push	 eax
  00011	64 89 25 00 00
	00 00		 mov	 DWORD PTR fs:__except_list, esp
  00018	51		 push	 ecx
  00019	56		 push	 esi
  0001a	c7 45 f0 cc cc
	cc cc		 mov	 DWORD PTR [ebp-16], -858993460 ; ccccccccH
  00021	89 4d f0	 mov	 DWORD PTR _this$[ebp], ecx
  00024	c7 45 fc 00 00
	00 00		 mov	 DWORD PTR __$EHRec$[ebp+8], 0

; 96   : 
; 97   :  #if _HAS_EXCEPTIONS
; 98   : 			if (!uncaught_exception())

  0002b	8b f4		 mov	 esi, esp
  0002d	ff 15 00 00 00
	00		 call	 DWORD PTR __imp_?uncaught_exception@std@@YA_NXZ
  00033	3b f4		 cmp	 esi, esp
  00035	e8 00 00 00 00	 call	 __RTC_CheckEsp
  0003a	0f b6 c0	 movzx	 eax, al
  0003d	85 c0		 test	 eax, eax
  0003f	75 14		 jne	 SHORT $L86654

; 99   : 				this->_Myostr._Osfx();

  00041	8b 4d f0	 mov	 ecx, DWORD PTR _this$[ebp]
  00044	8b 09		 mov	 ecx, DWORD PTR [ecx]
  00046	8b f4		 mov	 esi, esp
  00048	ff 15 00 00 00
	00		 call	 DWORD PTR __imp_?_Osfx@?$basic_ostream@_WU?$char_traits@_W@std@@@std@@QAEXXZ
  0004e	3b f4		 cmp	 esi, esp
  00050	e8 00 00 00 00	 call	 __RTC_CheckEsp
$L86654:

; 100  : 			}

  00055	c7 45 fc ff ff
	ff ff		 mov	 DWORD PTR __$EHRec$[ebp+8], -1
  0005c	8b 4d f0	 mov	 ecx, DWORD PTR _this$[ebp]
  0005f	e8 00 00 00 00	 call	 ??1_Sentry_base@?$basic_ostream@_WU?$char_traits@_W@std@@@std@@QAE@XZ ; std::basic_ostream<wchar_t,std::char_traits<wchar_t> >::_Sentry_base::~_Sentry_base
  00064	8b 4d f4	 mov	 ecx, DWORD PTR __$EHRec$[ebp]
  00067	64 89 0d 00 00
	00 00		 mov	 DWORD PTR fs:__except_list, ecx
  0006e	5e		 pop	 esi
  0006f	83 c4 10	 add	 esp, 16			; 00000010H
  00072	3b ec		 cmp	 ebp, esp
  00074	e8 00 00 00 00	 call	 __RTC_CheckEsp
  00079	8b e5		 mov	 esp, ebp
  0007b	5d		 pop	 ebp
  0007c	c3		 ret	 0
_TEXT	ENDS
;	COMDAT text$x
text$x	SEGMENT
$L89690:
  00000	8b 4d f0	 mov	 ecx, DWORD PTR _this$[ebp]
  00003	e9 00 00 00 00	 jmp	 ??1_Sentry_base@?$basic_ostream@_WU?$char_traits@_W@std@@@std@@QAE@XZ ; std::basic_ostream<wchar_t,std::char_traits<wchar_t> >::_Sentry_base::~_Sentry_base
__ehhandler$??1sentry@?$basic_ostream@_WU?$char_traits@_W@std@@@std@@QAE@XZ:
  00008	b8 00 00 00 00	 mov	 eax, OFFSET FLAT:$T89692
  0000d	e9 00 00 00 00	 jmp	 ___CxxFrameHandler
text$x	ENDS
??1sentry@?$basic_ostream@_WU?$char_traits@_W@std@@@std@@QAE@XZ ENDP ; std::basic_ostream<wchar_t,std::char_traits<wchar_t> >::sentry::~sentry
; Function compile flags: /Odt /RTCsu
;	COMDAT ??Bsentry@?$basic_ostream@_WU?$char_traits@_W@std@@@std@@QBE_NXZ
_TEXT	SEGMENT
_this$ = -4						; size = 4
??Bsentry@?$basic_ostream@_WU?$char_traits@_W@std@@@std@@QBE_NXZ PROC NEAR ; std::basic_ostream<wchar_t,std::char_traits<wchar_t> >::sentry::operator bool, COMDAT
; _this$ = ecx

; 108  : 			{	// test if stream state okay

  00000	55		 push	 ebp
  00001	8b ec		 mov	 ebp, esp
  00003	51		 push	 ecx
  00004	c7 45 fc cc cc
	cc cc		 mov	 DWORD PTR [ebp-4], -858993460 ; ccccccccH
  0000b	89 4d fc	 mov	 DWORD PTR _this$[ebp], ecx

; 109  : 			return (_Ok);

  0000e	8b 45 fc	 mov	 eax, DWORD PTR _this$[ebp]
  00011	8a 40 04	 mov	 al, BYTE PTR [eax+4]

; 110  : 			}

  00014	8b e5		 mov	 esp, ebp
  00016	5d		 pop	 ebp
  00017	c3		 ret	 0
??Bsentry@?$basic_ostream@_WU?$char_traits@_W@std@@@std@@QBE_NXZ ENDP ; std::basic_ostream<wchar_t,std::char_traits<wchar_t> >::sentry::operator bool
; Function compile flags: /Odt /RTCsu
_TEXT	ENDS
;	COMDAT ??0_Sentry_base@?$basic_ostream@_WU?$char_traits@_W@std@@@std@@QAE@AAV12@@Z
_TEXT	SEGMENT
_this$ = -4						; size = 4
__Ostr$ = 8						; size = 4
??0_Sentry_base@?$basic_ostream@_WU?$char_traits@_W@std@@@std@@QAE@AAV12@@Z PROC NEAR ; std::basic_ostream<wchar_t,std::char_traits<wchar_t> >::_Sentry_base::_Sentry_base, COMDAT
; _this$ = ecx

; 68   : 			{	// lock the stream buffer, if there

  00000	55		 push	 ebp
  00001	8b ec		 mov	 ebp, esp
  00003	51		 push	 ecx
  00004	56		 push	 esi
  00005	c7 45 fc cc cc
	cc cc		 mov	 DWORD PTR [ebp-4], -858993460 ; ccccccccH
  0000c	89 4d fc	 mov	 DWORD PTR _this$[ebp], ecx
  0000f	8b 45 fc	 mov	 eax, DWORD PTR _this$[ebp]
  00012	8b 4d 08	 mov	 ecx, DWORD PTR __Ostr$[ebp]
  00015	89 08		 mov	 DWORD PTR [eax], ecx

; 69   : 			if (_Myostr.rdbuf() != 0)

  00017	8b 55 fc	 mov	 edx, DWORD PTR _this$[ebp]
  0001a	8b 02		 mov	 eax, DWORD PTR [edx]
  0001c	8b 08		 mov	 ecx, DWORD PTR [eax]
  0001e	8b 55 fc	 mov	 edx, DWORD PTR _this$[ebp]
  00021	8b 02		 mov	 eax, DWORD PTR [edx]
  00023	03 41 04	 add	 eax, DWORD PTR [ecx+4]
  00026	8b f4		 mov	 esi, esp
  00028	8b c8		 mov	 ecx, eax
  0002a	ff 15 00 00 00
	00		 call	 DWORD PTR __imp_?rdbuf@?$basic_ios@_WU?$char_traits@_W@std@@@std@@QBEPAV?$basic_streambuf@_WU?$char_traits@_W@std@@@2@XZ
  00030	3b f4		 cmp	 esi, esp
  00032	e8 00 00 00 00	 call	 __RTC_CheckEsp
  00037	85 c0		 test	 eax, eax
  00039	74 2f		 je	 SHORT $L86997

; 70   : 				_Myostr.rdbuf()->_Lock();

  0003b	8b 4d fc	 mov	 ecx, DWORD PTR _this$[ebp]
  0003e	8b 11		 mov	 edx, DWORD PTR [ecx]
  00040	8b 02		 mov	 eax, DWORD PTR [edx]
  00042	8b 4d fc	 mov	 ecx, DWORD PTR _this$[ebp]
  00045	8b 09		 mov	 ecx, DWORD PTR [ecx]
  00047	03 48 04	 add	 ecx, DWORD PTR [eax+4]
  0004a	8b f4		 mov	 esi, esp
  0004c	ff 15 00 00 00
	00		 call	 DWORD PTR __imp_?rdbuf@?$basic_ios@_WU?$char_traits@_W@std@@@std@@QBEPAV?$basic_streambuf@_WU?$char_traits@_W@std@@@2@XZ
  00052	3b f4		 cmp	 esi, esp
  00054	e8 00 00 00 00	 call	 __RTC_CheckEsp
  00059	8b f4		 mov	 esi, esp
  0005b	8b c8		 mov	 ecx, eax
  0005d	ff 15 00 00 00
	00		 call	 DWORD PTR __imp_?_Lock@?$basic_streambuf@_WU?$char_traits@_W@std@@@std@@QAEXXZ
  00063	3b f4		 cmp	 esi, esp
  00065	e8 00 00 00 00	 call	 __RTC_CheckEsp
$L86997:

; 71   : 			}

  0006a	8b 45 fc	 mov	 eax, DWORD PTR _this$[ebp]
  0006d	5e		 pop	 esi
  0006e	83 c4 04	 add	 esp, 4
  00071	3b ec		 cmp	 ebp, esp
  00073	e8 00 00 00 00	 call	 __RTC_CheckEsp
  00078	8b e5		 mov	 esp, ebp
  0007a	5d		 pop	 ebp
  0007b	c2 04 00	 ret	 4
??0_Sentry_base@?$basic_ostream@_WU?$char_traits@_W@std@@@std@@QAE@AAV12@@Z ENDP ; std::basic_ostream<wchar_t,std::char_traits<wchar_t> >::_Sentry_base::_Sentry_base
; Function compile flags: /Odt /RTCsu
_TEXT	ENDS
;	COMDAT ??1_Sentry_base@?$basic_ostream@_WU?$char_traits@_W@std@@@std@@QAE@XZ
_TEXT	SEGMENT
_this$ = -4						; size = 4
??1_Sentry_base@?$basic_ostream@_WU?$char_traits@_W@std@@@std@@QAE@XZ PROC NEAR ; std::basic_ostream<wchar_t,std::char_traits<wchar_t> >::_Sentry_base::~_Sentry_base, COMDAT
; _this$ = ecx

; 74   : 			{	// destroy after unlocking

  00000	55		 push	 ebp
  00001	8b ec		 mov	 ebp, esp
  00003	51		 push	 ecx
  00004	56		 push	 esi
  00005	c7 45 fc cc cc
	cc cc		 mov	 DWORD PTR [ebp-4], -858993460 ; ccccccccH
  0000c	89 4d fc	 mov	 DWORD PTR _this$[ebp], ecx

; 75   : 			if (_Myostr.rdbuf() != 0)

  0000f	8b 45 fc	 mov	 eax, DWORD PTR _this$[ebp]
  00012	8b 08		 mov	 ecx, DWORD PTR [eax]
  00014	8b 11		 mov	 edx, DWORD PTR [ecx]
  00016	8b 45 fc	 mov	 eax, DWORD PTR _this$[ebp]
  00019	8b 08		 mov	 ecx, DWORD PTR [eax]
  0001b	03 4a 04	 add	 ecx, DWORD PTR [edx+4]
  0001e	8b f4		 mov	 esi, esp
  00020	ff 15 00 00 00
	00		 call	 DWORD PTR __imp_?rdbuf@?$basic_ios@_WU?$char_traits@_W@std@@@std@@QBEPAV?$basic_streambuf@_WU?$char_traits@_W@std@@@2@XZ
  00026	3b f4		 cmp	 esi, esp
  00028	e8 00 00 00 00	 call	 __RTC_CheckEsp
  0002d	85 c0		 test	 eax, eax
  0002f	74 2f		 je	 SHORT $L87000

; 76   : 				_Myostr.rdbuf()->_Unlock();

  00031	8b 4d fc	 mov	 ecx, DWORD PTR _this$[ebp]
  00034	8b 11		 mov	 edx, DWORD PTR [ecx]
  00036	8b 02		 mov	 eax, DWORD PTR [edx]
  00038	8b 4d fc	 mov	 ecx, DWORD PTR _this$[ebp]
  0003b	8b 09		 mov	 ecx, DWORD PTR [ecx]
  0003d	03 48 04	 add	 ecx, DWORD PTR [eax+4]
  00040	8b f4		 mov	 esi, esp
  00042	ff 15 00 00 00
	00		 call	 DWORD PTR __imp_?rdbuf@?$basic_ios@_WU?$char_traits@_W@std@@@std@@QBEPAV?$basic_streambuf@_WU?$char_traits@_W@std@@@2@XZ
  00048	3b f4		 cmp	 esi, esp
  0004a	e8 00 00 00 00	 call	 __RTC_CheckEsp
  0004f	8b f4		 mov	 esi, esp
  00051	8b c8		 mov	 ecx, eax
  00053	ff 15 00 00 00
	00		 call	 DWORD PTR __imp_?_Unlock@?$basic_streambuf@_WU?$char_traits@_W@std@@@std@@QAEXXZ
  00059	3b f4		 cmp	 esi, esp
  0005b	e8 00 00 00 00	 call	 __RTC_CheckEsp
$L87000:

; 77   : 			}

  00060	5e		 pop	 esi
  00061	83 c4 04	 add	 esp, 4
  00064	3b ec		 cmp	 ebp, esp
  00066	e8 00 00 00 00	 call	 __RTC_CheckEsp
  0006b	8b e5		 mov	 esp, ebp
  0006d	5d		 pop	 ebp
  0006e	c3		 ret	 0
??1_Sentry_base@?$basic_ostream@_WU?$char_traits@_W@std@@@std@@QAE@XZ ENDP ; std::basic_ostream<wchar_t,std::char_traits<wchar_t> >::_Sentry_base::~_Sentry_base
_TEXT	ENDS
PUBLIC	??$_Ptr_cat@PAV?$basic_string@DU?$char_traits@D@std@@V?$allocator@D@2@@std@@PAV12@@std@@YA?AU_Nonscalar_ptr_iterator_tag@0@AAPAV?$basic_string@DU?$char_traits@D@std@@V?$allocator@D@2@@0@0@Z ; std::_Ptr_cat<std::basic_string<char,std::char_traits<char>,std::allocator<char> > *,std::basic_string<char,std::char_traits<char>,std::allocator<char> > *>
PUBLIC	??$_Uninit_fill_n@PAV?$basic_string@DU?$char_traits@D@std@@V?$allocator@D@2@@std@@IV12@V?$allocator@V?$basic_string@DU?$char_traits@D@std@@V?$allocator@D@2@@std@@@2@@std@@YAXPAV?$basic_string@DU?$char_traits@D@std@@V?$allocator@D@2@@0@IABV10@AAV?$allocator@V?$basic_string@DU?$char_traits@D@std@@V?$allocator@D@2@@std@@@0@U_Nonscalar_ptr_iterator_tag@0@@Z ; std::_Uninit_fill_n<std::basic_string<char,std::char_traits<char>,std::allocator<char> > *,unsigned int,std::basic_string<char,std::char_traits<char>,std::allocator<char> >,std::allocator<std::basic_string<char,std::char_traits<char>,std::allocator<char> > > >
; Function compile flags: /Odt /RTCsu
; File d:\program files (x86)\microsoft visual studio .net 2003\vc7\include\memory
;	COMDAT ??$_Uninitialized_fill_n@PAV?$basic_string@DU?$char_traits@D@std@@V?$allocator@D@2@@std@@IV12@V?$allocator@V?$basic_string@DU?$char_traits@D@std@@V?$allocator@D@2@@std@@@2@@std@@YAXPAV?$basic_string@DU?$char_traits@D@std@@V?$allocator@D@2@@0@IABV10@AAV?$allocator@V?$basic_string@DU?$char_traits@D@std@@V?$allocator@D@2@@std@@@0@@Z
_TEXT	SEGMENT
$T89701 = -1						; size = 1
__First$ = 8						; size = 4
__Count$ = 12						; size = 4
__Val$ = 16						; size = 4
__Al$ = 20						; size = 4
??$_Uninitialized_fill_n@PAV?$basic_string@DU?$char_traits@D@std@@V?$allocator@D@2@@std@@IV12@V?$allocator@V?$basic_string@DU?$char_traits@D@std@@V?$allocator@D@2@@std@@@2@@std@@YAXPAV?$basic_string@DU?$char_traits@D@std@@V?$allocator@D@2@@0@IABV10@AAV?$allocator@V?$basic_string@DU?$char_traits@D@std@@V?$allocator@D@2@@std@@@0@@Z PROC NEAR ; std::_Uninitialized_fill_n<std::basic_string<char,std::char_traits<char>,std::allocator<char> > *,unsigned int,std::basic_string<char,std::char_traits<char>,std::allocator<char> >,std::allocator<std::basic_string<char,std::char_traits<char>,std::allocator<char> > > >, COMDAT

; 255  : 	{	// copy _Count *_Val to raw _First, using _Al

  00000	55		 push	 ebp
  00001	8b ec		 mov	 ebp, esp
  00003	51		 push	 ecx
  00004	c7 45 fc cc cc
	cc cc		 mov	 DWORD PTR [ebp-4], -858993460 ; ccccccccH

; 256  : 	_Uninit_fill_n(_First, _Count, _Val, _Al,
; 257  : 		_Ptr_cat(_First, _First));

  0000b	8d 45 08	 lea	 eax, DWORD PTR __First$[ebp]
  0000e	50		 push	 eax
  0000f	8d 4d 08	 lea	 ecx, DWORD PTR __First$[ebp]
  00012	51		 push	 ecx
  00013	e8 00 00 00 00	 call	 ??$_Ptr_cat@PAV?$basic_string@DU?$char_traits@D@std@@V?$allocator@D@2@@std@@PAV12@@std@@YA?AU_Nonscalar_ptr_iterator_tag@0@AAPAV?$basic_string@DU?$char_traits@D@std@@V?$allocator@D@2@@0@0@Z ; std::_Ptr_cat<std::basic_string<char,std::char_traits<char>,std::allocator<char> > *,std::basic_string<char,std::char_traits<char>,std::allocator<char> > *>
  00018	83 c4 08	 add	 esp, 8
  0001b	88 45 ff	 mov	 BYTE PTR $T89701[ebp], al
  0001e	8a 55 ff	 mov	 dl, BYTE PTR $T89701[ebp]
  00021	52		 push	 edx
  00022	8b 45 14	 mov	 eax, DWORD PTR __Al$[ebp]
  00025	50		 push	 eax
  00026	8b 4d 10	 mov	 ecx, DWORD PTR __Val$[ebp]
  00029	51		 push	 ecx
  0002a	8b 55 0c	 mov	 edx, DWORD PTR __Count$[ebp]
  0002d	52		 push	 edx
  0002e	8b 45 08	 mov	 eax, DWORD PTR __First$[ebp]
  00031	50		 push	 eax
  00032	e8 00 00 00 00	 call	 ??$_Uninit_fill_n@PAV?$basic_string@DU?$char_traits@D@std@@V?$allocator@D@2@@std@@IV12@V?$allocator@V?$basic_string@DU?$char_traits@D@std@@V?$allocator@D@2@@std@@@2@@std@@YAXPAV?$basic_string@DU?$char_traits@D@std@@V?$allocator@D@2@@0@IABV10@AAV?$allocator@V?$basic_string@DU?$char_traits@D@std@@V?$allocator@D@2@@std@@@0@U_Nonscalar_ptr_iterator_tag@0@@Z ; std::_Uninit_fill_n<std::basic_string<char,std::char_traits<char>,std::allocator<char> > *,unsigned int,std::basic_string<char,std::char_traits<char>,std::allocator<char> >,std::allocator<std::basic_string<char,std::char_traits<char>,std::allocator<char> > > >
  00037	83 c4 14	 add	 esp, 20			; 00000014H

; 258  : 	}

  0003a	83 c4 04	 add	 esp, 4
  0003d	3b ec		 cmp	 ebp, esp
  0003f	e8 00 00 00 00	 call	 __RTC_CheckEsp
  00044	8b e5		 mov	 esp, ebp
  00046	5d		 pop	 ebp
  00047	c3		 ret	 0
??$_Uninitialized_fill_n@PAV?$basic_string@DU?$char_traits@D@std@@V?$allocator@D@2@@std@@IV12@V?$allocator@V?$basic_string@DU?$char_traits@D@std@@V?$allocator@D@2@@std@@@2@@std@@YAXPAV?$basic_string@DU?$char_traits@D@std@@V?$allocator@D@2@@0@IABV10@AAV?$allocator@V?$basic_string@DU?$char_traits@D@std@@V?$allocator@D@2@@std@@@0@@Z ENDP ; std::_Uninitialized_fill_n<std::basic_string<char,std::char_traits<char>,std::allocator<char> > *,unsigned int,std::basic_string<char,std::char_traits<char>,std::allocator<char> >,std::allocator<std::basic_string<char,std::char_traits<char>,std::allocator<char> > > >
_TEXT	ENDS
PUBLIC	??$_Destroy_range@V?$basic_string@DU?$char_traits@D@std@@V?$allocator@D@2@@std@@V?$allocator@V?$basic_string@DU?$char_traits@D@std@@V?$allocator@D@2@@std@@@2@@std@@YAXPAV?$basic_string@DU?$char_traits@D@std@@V?$allocator@D@2@@0@0AAV?$allocator@V?$basic_string@DU?$char_traits@D@std@@V?$allocator@D@2@@std@@@0@U_Nonscalar_ptr_iterator_tag@0@@Z ; std::_Destroy_range<std::basic_string<char,std::char_traits<char>,std::allocator<char> >,std::allocator<std::basic_string<char,std::char_traits<char>,std::allocator<char> > > >
; Function compile flags: /Odt /RTCsu
; File d:\program files (x86)\microsoft visual studio .net 2003\vc7\include\xmemory
;	COMDAT ??$_Destroy_range@V?$basic_string@DU?$char_traits@D@std@@V?$allocator@D@2@@std@@V?$allocator@V?$basic_string@DU?$char_traits@D@std@@V?$allocator@D@2@@std@@@2@@std@@YAXPAV?$basic_string@DU?$char_traits@D@std@@V?$allocator@D@2@@0@0AAV?$allocator@V?$basic_string@DU?$char_traits@D@std@@V?$allocator@D@2@@std@@@0@@Z
_TEXT	SEGMENT
$T89703 = -1						; size = 1
__First$ = 8						; size = 4
__Last$ = 12						; size = 4
__Al$ = 16						; size = 4
??$_Destroy_range@V?$basic_string@DU?$char_traits@D@std@@V?$allocator@D@2@@std@@V?$allocator@V?$basic_string@DU?$char_traits@D@std@@V?$allocator@D@2@@std@@@2@@std@@YAXPAV?$basic_string@DU?$char_traits@D@std@@V?$allocator@D@2@@0@0AAV?$allocator@V?$basic_string@DU?$char_traits@D@std@@V?$allocator@D@2@@std@@@0@@Z PROC NEAR ; std::_Destroy_range<std::basic_string<char,std::char_traits<char>,std::allocator<char> >,std::allocator<std::basic_string<char,std::char_traits<char>,std::allocator<char> > > >, COMDAT

; 216  : 	{	// destroy [_First, _Last)

  00000	55		 push	 ebp
  00001	8b ec		 mov	 ebp, esp
  00003	51		 push	 ecx
  00004	c7 45 fc cc cc
	cc cc		 mov	 DWORD PTR [ebp-4], -858993460 ; ccccccccH

; 217  : 	_Destroy_range(_First, _Last, _Al, _Ptr_cat(_First, _Last));

  0000b	8d 45 0c	 lea	 eax, DWORD PTR __Last$[ebp]
  0000e	50		 push	 eax
  0000f	8d 4d 08	 lea	 ecx, DWORD PTR __First$[ebp]
  00012	51		 push	 ecx
  00013	e8 00 00 00 00	 call	 ??$_Ptr_cat@PAV?$basic_string@DU?$char_traits@D@std@@V?$allocator@D@2@@std@@PAV12@@std@@YA?AU_Nonscalar_ptr_iterator_tag@0@AAPAV?$basic_string@DU?$char_traits@D@std@@V?$allocator@D@2@@0@0@Z ; std::_Ptr_cat<std::basic_string<char,std::char_traits<char>,std::allocator<char> > *,std::basic_string<char,std::char_traits<char>,std::allocator<char> > *>
  00018	83 c4 08	 add	 esp, 8
  0001b	88 45 ff	 mov	 BYTE PTR $T89703[ebp], al
  0001e	8a 55 ff	 mov	 dl, BYTE PTR $T89703[ebp]
  00021	52		 push	 edx
  00022	8b 45 10	 mov	 eax, DWORD PTR __Al$[ebp]
  00025	50		 push	 eax
  00026	8b 4d 0c	 mov	 ecx, DWORD PTR __Last$[ebp]
  00029	51		 push	 ecx
  0002a	8b 55 08	 mov	 edx, DWORD PTR __First$[ebp]
  0002d	52		 push	 edx
  0002e	e8 00 00 00 00	 call	 ??$_Destroy_range@V?$basic_string@DU?$char_traits@D@std@@V?$allocator@D@2@@std@@V?$allocator@V?$basic_string@DU?$char_traits@D@std@@V?$allocator@D@2@@std@@@2@@std@@YAXPAV?$basic_string@DU?$char_traits@D@std@@V?$allocator@D@2@@0@0AAV?$allocator@V?$basic_string@DU?$char_traits@D@std@@V?$allocator@D@2@@std@@@0@U_Nonscalar_ptr_iterator_tag@0@@Z ; std::_Destroy_range<std::basic_string<char,std::char_traits<char>,std::allocator<char> >,std::allocator<std::basic_string<char,std::char_traits<char>,std::allocator<char> > > >
  00033	83 c4 10	 add	 esp, 16			; 00000010H

; 218  : 	}

  00036	83 c4 04	 add	 esp, 4
  00039	3b ec		 cmp	 ebp, esp
  0003b	e8 00 00 00 00	 call	 __RTC_CheckEsp
  00040	8b e5		 mov	 esp, ebp
  00042	5d		 pop	 ebp
  00043	c3		 ret	 0
??$_Destroy_range@V?$basic_string@DU?$char_traits@D@std@@V?$allocator@D@2@@std@@V?$allocator@V?$basic_string@DU?$char_traits@D@std@@V?$allocator@D@2@@std@@@2@@std@@YAXPAV?$basic_string@DU?$char_traits@D@std@@V?$allocator@D@2@@0@0AAV?$allocator@V?$basic_string@DU?$char_traits@D@std@@V?$allocator@D@2@@std@@@0@@Z ENDP ; std::_Destroy_range<std::basic_string<char,std::char_traits<char>,std::allocator<char> >,std::allocator<std::basic_string<char,std::char_traits<char>,std::allocator<char> > > >
_TEXT	ENDS
PUBLIC	??$_Uninitialized_copy@PAV?$basic_string@DU?$char_traits@D@std@@V?$allocator@D@2@@std@@PAV12@V?$allocator@V?$basic_string@DU?$char_traits@D@std@@V?$allocator@D@2@@std@@@2@@std@@YAPAV?$basic_string@DU?$char_traits@D@std@@V?$allocator@D@2@@0@PAV10@00AAV?$allocator@V?$basic_string@DU?$char_traits@D@std@@V?$allocator@D@2@@std@@@0@@Z ; std::_Uninitialized_copy<std::basic_string<char,std::char_traits<char>,std::allocator<char> > *,std::basic_string<char,std::char_traits<char>,std::allocator<char> > *,std::allocator<std::basic_string<char,std::char_traits<char>,std::allocator<char> > > >
; Function compile flags: /Odt /RTCsu
; File d:\program files (x86)\microsoft visual studio .net 2003\vc7\include\vector
;	COMDAT ??$_Ucopy@PAV?$basic_string@DU?$char_traits@D@std@@V?$allocator@D@2@@std@@@?$vector@V?$basic_string@DU?$char_traits@D@std@@V?$allocator@D@2@@std@@V?$allocator@V?$basic_string@DU?$char_traits@D@std@@V?$allocator@D@2@@std@@@2@@std@@IAEPAV?$basic_string@DU?$char_traits@D@std@@V?$allocator@D@2@@1@PAV21@00@Z
_TEXT	SEGMENT
_this$ = -4						; size = 4
__First$ = 8						; size = 4
__Last$ = 12						; size = 4
__Ptr$ = 16						; size = 4
??$_Ucopy@PAV?$basic_string@DU?$char_traits@D@std@@V?$allocator@D@2@@std@@@?$vector@V?$basic_string@DU?$char_traits@D@std@@V?$allocator@D@2@@std@@V?$allocator@V?$basic_string@DU?$char_traits@D@std@@V?$allocator@D@2@@std@@@2@@std@@IAEPAV?$basic_string@DU?$char_traits@D@std@@V?$allocator@D@2@@1@PAV21@00@Z PROC NEAR ; std::vector<std::basic_string<char,std::char_traits<char>,std::allocator<char> >,std::allocator<std::basic_string<char,std::char_traits<char>,std::allocator<char> > > >::_Ucopy<std::basic_string<char,std::char_traits<char>,std::allocator<char> > *>, COMDAT
; _this$ = ecx

; 801  : 		pointer _Ucopy(_Iter _First, _Iter _Last, pointer _Ptr)

  00000	55		 push	 ebp
  00001	8b ec		 mov	 ebp, esp
  00003	51		 push	 ecx
  00004	c7 45 fc cc cc
	cc cc		 mov	 DWORD PTR [ebp-4], -858993460 ; ccccccccH
  0000b	89 4d fc	 mov	 DWORD PTR _this$[ebp], ecx

; 802  : 		{	// copy initializing [_First, _Last), using allocator
; 803  : 		return (_Uninitialized_copy(_First, _Last,
; 804  : 			_Ptr, this->_Alval));

  0000e	8b 45 fc	 mov	 eax, DWORD PTR _this$[ebp]
  00011	50		 push	 eax
  00012	8b 4d 10	 mov	 ecx, DWORD PTR __Ptr$[ebp]
  00015	51		 push	 ecx
  00016	8b 55 0c	 mov	 edx, DWORD PTR __Last$[ebp]
  00019	52		 push	 edx
  0001a	8b 45 08	 mov	 eax, DWORD PTR __First$[ebp]
  0001d	50		 push	 eax
  0001e	e8 00 00 00 00	 call	 ??$_Uninitialized_copy@PAV?$basic_string@DU?$char_traits@D@std@@V?$allocator@D@2@@std@@PAV12@V?$allocator@V?$basic_string@DU?$char_traits@D@std@@V?$allocator@D@2@@std@@@2@@std@@YAPAV?$basic_string@DU?$char_traits@D@std@@V?$allocator@D@2@@0@PAV10@00AAV?$allocator@V?$basic_string@DU?$char_traits@D@std@@V?$allocator@D@2@@std@@@0@@Z ; std::_Uninitialized_copy<std::basic_string<char,std::char_traits<char>,std::allocator<char> > *,std::basic_string<char,std::char_traits<char>,std::allocator<char> > *,std::allocator<std::basic_string<char,std::char_traits<char>,std::allocator<char> > > >
  00023	83 c4 10	 add	 esp, 16			; 00000010H

; 805  : 		}

  00026	83 c4 04	 add	 esp, 4
  00029	3b ec		 cmp	 ebp, esp
  0002b	e8 00 00 00 00	 call	 __RTC_CheckEsp
  00030	8b e5		 mov	 esp, ebp
  00032	5d		 pop	 ebp
  00033	c2 0c 00	 ret	 12			; 0000000cH
??$_Ucopy@PAV?$basic_string@DU?$char_traits@D@std@@V?$allocator@D@2@@std@@@?$vector@V?$basic_string@DU?$char_traits@D@std@@V?$allocator@D@2@@std@@V?$allocator@V?$basic_string@DU?$char_traits@D@std@@V?$allocator@D@2@@std@@@2@@std@@IAEPAV?$basic_string@DU?$char_traits@D@std@@V?$allocator@D@2@@1@PAV21@00@Z ENDP ; std::vector<std::basic_string<char,std::char_traits<char>,std::allocator<char> >,std::allocator<std::basic_string<char,std::char_traits<char>,std::allocator<char> > > >::_Ucopy<std::basic_string<char,std::char_traits<char>,std::allocator<char> > *>
; Function compile flags: /Odt /RTCsu
; File d:\program files (x86)\microsoft visual studio .net 2003\vc7\include\xutility
_TEXT	ENDS
;	COMDAT ??$fill@PAV?$basic_string@DU?$char_traits@D@std@@V?$allocator@D@2@@std@@V12@@std@@YAXPAV?$basic_string@DU?$char_traits@D@std@@V?$allocator@D@2@@0@0ABV10@@Z
_TEXT	SEGMENT
__First$ = 8						; size = 4
__Last$ = 12						; size = 4
__Val$ = 16						; size = 4
??$fill@PAV?$basic_string@DU?$char_traits@D@std@@V?$allocator@D@2@@std@@V12@@std@@YAXPAV?$basic_string@DU?$char_traits@D@std@@V?$allocator@D@2@@0@0ABV10@@Z PROC NEAR ; std::fill<std::basic_string<char,std::char_traits<char>,std::allocator<char> > *,std::basic_string<char,std::char_traits<char>,std::allocator<char> > >, COMDAT

; 1134 : 	{	// copy _Val through [_First, _Last)

  00000	55		 push	 ebp
  00001	8b ec		 mov	 ebp, esp
  00003	56		 push	 esi

; 1135 : 	for (; _First != _Last; ++_First)

  00004	eb 09		 jmp	 SHORT $L87802
$L87803:
  00006	8b 45 08	 mov	 eax, DWORD PTR __First$[ebp]
  00009	83 c0 1c	 add	 eax, 28			; 0000001cH
  0000c	89 45 08	 mov	 DWORD PTR __First$[ebp], eax
$L87802:
  0000f	8b 4d 08	 mov	 ecx, DWORD PTR __First$[ebp]
  00012	3b 4d 0c	 cmp	 ecx, DWORD PTR __Last$[ebp]
  00015	74 18		 je	 SHORT $L87801

; 1136 : 		*_First = _Val;

  00017	8b f4		 mov	 esi, esp
  00019	8b 55 10	 mov	 edx, DWORD PTR __Val$[ebp]
  0001c	52		 push	 edx
  0001d	8b 4d 08	 mov	 ecx, DWORD PTR __First$[ebp]
  00020	ff 15 00 00 00
	00		 call	 DWORD PTR __imp_??4?$basic_string@DU?$char_traits@D@std@@V?$allocator@D@2@@std@@QAEAAV01@ABV01@@Z
  00026	3b f4		 cmp	 esi, esp
  00028	e8 00 00 00 00	 call	 __RTC_CheckEsp
  0002d	eb d7		 jmp	 SHORT $L87803
$L87801:

; 1137 : 	}

  0002f	5e		 pop	 esi
  00030	3b ec		 cmp	 ebp, esp
  00032	e8 00 00 00 00	 call	 __RTC_CheckEsp
  00037	5d		 pop	 ebp
  00038	c3		 ret	 0
??$fill@PAV?$basic_string@DU?$char_traits@D@std@@V?$allocator@D@2@@std@@V12@@std@@YAXPAV?$basic_string@DU?$char_traits@D@std@@V?$allocator@D@2@@0@0ABV10@@Z ENDP ; std::fill<std::basic_string<char,std::char_traits<char>,std::allocator<char> > *,std::basic_string<char,std::char_traits<char>,std::allocator<char> > >
_TEXT	ENDS
PUBLIC	??$_Copy_backward_opt@PAV?$basic_string@DU?$char_traits@D@std@@V?$allocator@D@2@@std@@PAV12@@std@@YAPAV?$basic_string@DU?$char_traits@D@std@@V?$allocator@D@2@@0@PAV10@00U_Nonscalar_ptr_iterator_tag@0@@Z ; std::_Copy_backward_opt<std::basic_string<char,std::char_traits<char>,std::allocator<char> > *,std::basic_string<char,std::char_traits<char>,std::allocator<char> > *>
; Function compile flags: /Odt /RTCsu
;	COMDAT ??$copy_backward@PAV?$basic_string@DU?$char_traits@D@std@@V?$allocator@D@2@@std@@PAV12@@std@@YAPAV?$basic_string@DU?$char_traits@D@std@@V?$allocator@D@2@@0@PAV10@00@Z
_TEXT	SEGMENT
$T89707 = -1						; size = 1
__First$ = 8						; size = 4
__Last$ = 12						; size = 4
__Dest$ = 16						; size = 4
??$copy_backward@PAV?$basic_string@DU?$char_traits@D@std@@V?$allocator@D@2@@std@@PAV12@@std@@YAPAV?$basic_string@DU?$char_traits@D@std@@V?$allocator@D@2@@0@PAV10@00@Z PROC NEAR ; std::copy_backward<std::basic_string<char,std::char_traits<char>,std::allocator<char> > *,std::basic_string<char,std::char_traits<char>,std::allocator<char> > *>, COMDAT

; 1067 : 	{	// copy [_First, _Last) backwards to [..., _Dest)

  00000	55		 push	 ebp
  00001	8b ec		 mov	 ebp, esp
  00003	51		 push	 ecx
  00004	c7 45 fc cc cc
	cc cc		 mov	 DWORD PTR [ebp-4], -858993460 ; ccccccccH

; 1068 : 	return (_Copy_backward_opt(_First, _Last, _Dest,
; 1069 : 		_Ptr_cat(_First, _Dest)));

  0000b	8d 45 10	 lea	 eax, DWORD PTR __Dest$[ebp]
  0000e	50		 push	 eax
  0000f	8d 4d 08	 lea	 ecx, DWORD PTR __First$[ebp]
  00012	51		 push	 ecx
  00013	e8 00 00 00 00	 call	 ??$_Ptr_cat@PAV?$basic_string@DU?$char_traits@D@std@@V?$allocator@D@2@@std@@PAV12@@std@@YA?AU_Nonscalar_ptr_iterator_tag@0@AAPAV?$basic_string@DU?$char_traits@D@std@@V?$allocator@D@2@@0@0@Z ; std::_Ptr_cat<std::basic_string<char,std::char_traits<char>,std::allocator<char> > *,std::basic_string<char,std::char_traits<char>,std::allocator<char> > *>
  00018	83 c4 08	 add	 esp, 8
  0001b	88 45 ff	 mov	 BYTE PTR $T89707[ebp], al
  0001e	8a 55 ff	 mov	 dl, BYTE PTR $T89707[ebp]
  00021	52		 push	 edx
  00022	8b 45 10	 mov	 eax, DWORD PTR __Dest$[ebp]
  00025	50		 push	 eax
  00026	8b 4d 0c	 mov	 ecx, DWORD PTR __Last$[ebp]
  00029	51		 push	 ecx
  0002a	8b 55 08	 mov	 edx, DWORD PTR __First$[ebp]
  0002d	52		 push	 edx
  0002e	e8 00 00 00 00	 call	 ??$_Copy_backward_opt@PAV?$basic_string@DU?$char_traits@D@std@@V?$allocator@D@2@@std@@PAV12@@std@@YAPAV?$basic_string@DU?$char_traits@D@std@@V?$allocator@D@2@@0@PAV10@00U_Nonscalar_ptr_iterator_tag@0@@Z ; std::_Copy_backward_opt<std::basic_string<char,std::char_traits<char>,std::allocator<char> > *,std::basic_string<char,std::char_traits<char>,std::allocator<char> > *>
  00033	83 c4 10	 add	 esp, 16			; 00000010H

; 1070 : 	}

  00036	83 c4 04	 add	 esp, 4
  00039	3b ec		 cmp	 ebp, esp
  0003b	e8 00 00 00 00	 call	 __RTC_CheckEsp
  00040	8b e5		 mov	 esp, ebp
  00042	5d		 pop	 ebp
  00043	c3		 ret	 0
??$copy_backward@PAV?$basic_string@DU?$char_traits@D@std@@V?$allocator@D@2@@std@@PAV12@@std@@YAPAV?$basic_string@DU?$char_traits@D@std@@V?$allocator@D@2@@0@PAV10@00@Z ENDP ; std::copy_backward<std::basic_string<char,std::char_traits<char>,std::allocator<char> > *,std::basic_string<char,std::char_traits<char>,std::allocator<char> > *>
_TEXT	ENDS
EXTRN	??2@YAPAXI@Z:NEAR				; operator new
; Function compile flags: /Odt /RTCsu
; File d:\program files (x86)\microsoft visual studio .net 2003\vc7\include\xmemory
;	COMDAT ??$_Allocate@V?$basic_string@DU?$char_traits@D@std@@V?$allocator@D@2@@std@@@std@@YAPAV?$basic_string@DU?$char_traits@D@std@@V?$allocator@D@2@@0@IPAV10@@Z
_TEXT	SEGMENT
__Count$ = 8						; size = 4
___formal$ = 12						; size = 4
??$_Allocate@V?$basic_string@DU?$char_traits@D@std@@V?$allocator@D@2@@std@@@std@@YAPAV?$basic_string@DU?$char_traits@D@std@@V?$allocator@D@2@@0@IPAV10@@Z PROC NEAR ; std::_Allocate<std::basic_string<char,std::char_traits<char>,std::allocator<char> > >, COMDAT

; 33   : 	{	// allocate storage for _Count elements of type _Ty

  00000	55		 push	 ebp
  00001	8b ec		 mov	 ebp, esp

; 34   : 	return ((_Ty _FARQ *)operator new(_Count * sizeof (_Ty)));

  00003	8b 45 08	 mov	 eax, DWORD PTR __Count$[ebp]
  00006	6b c0 1c	 imul	 eax, 28			; 0000001cH
  00009	50		 push	 eax
  0000a	e8 00 00 00 00	 call	 ??2@YAPAXI@Z		; operator new
  0000f	83 c4 04	 add	 esp, 4

; 35   : 	}

  00012	3b ec		 cmp	 ebp, esp
  00014	e8 00 00 00 00	 call	 __RTC_CheckEsp
  00019	5d		 pop	 ebp
  0001a	c3		 ret	 0
??$_Allocate@V?$basic_string@DU?$char_traits@D@std@@V?$allocator@D@2@@std@@@std@@YAPAV?$basic_string@DU?$char_traits@D@std@@V?$allocator@D@2@@0@IPAV10@@Z ENDP ; std::_Allocate<std::basic_string<char,std::char_traits<char>,std::allocator<char> > >
; Function compile flags: /Odt /RTCsu
; File d:\program files (x86)\microsoft visual studio .net 2003\vc7\include\xutility
_TEXT	ENDS
;	COMDAT ??$_Ptr_cat@PAV?$basic_string@DU?$char_traits@D@std@@V?$allocator@D@2@@std@@PAV12@@std@@YA?AU_Nonscalar_ptr_iterator_tag@0@AAPAV?$basic_string@DU?$char_traits@D@std@@V?$allocator@D@2@@0@0@Z
_TEXT	SEGMENT
__Cat$ = -5						; size = 1
___formal$ = 8						; size = 4
___formal$ = 12						; size = 4
??$_Ptr_cat@PAV?$basic_string@DU?$char_traits@D@std@@V?$allocator@D@2@@std@@PAV12@@std@@YA?AU_Nonscalar_ptr_iterator_tag@0@AAPAV?$basic_string@DU?$char_traits@D@std@@V?$allocator@D@2@@0@0@Z PROC NEAR ; std::_Ptr_cat<std::basic_string<char,std::char_traits<char>,std::allocator<char> > *,std::basic_string<char,std::char_traits<char>,std::allocator<char> > *>, COMDAT

; 211  : 	{	// return pointer category from arbitrary arguments

  00000	55		 push	 ebp
  00001	8b ec		 mov	 ebp, esp
  00003	83 ec 0c	 sub	 esp, 12			; 0000000cH
  00006	c7 45 f4 cc cc
	cc cc		 mov	 DWORD PTR [ebp-12], -858993460 ; ccccccccH
  0000d	c7 45 f8 cc cc
	cc cc		 mov	 DWORD PTR [ebp-8], -858993460 ; ccccccccH
  00014	c7 45 fc cc cc
	cc cc		 mov	 DWORD PTR [ebp-4], -858993460 ; ccccccccH

; 212  : 	_Nonscalar_ptr_iterator_tag _Cat;
; 213  : 	return (_Cat);

  0001b	8a 45 fb	 mov	 al, BYTE PTR __Cat$[ebp]

; 214  : 	}

  0001e	52		 push	 edx
  0001f	8b cd		 mov	 ecx, ebp
  00021	50		 push	 eax
  00022	8d 15 00 00 00
	00		 lea	 edx, DWORD PTR $L89712
  00028	e8 00 00 00 00	 call	 @_RTC_CheckStackVars@8
  0002d	58		 pop	 eax
  0002e	5a		 pop	 edx
  0002f	8b e5		 mov	 esp, ebp
  00031	5d		 pop	 ebp
  00032	c3		 ret	 0
$L89712:
  00033	01 00 00 00	 DD	 1
  00037	00 00 00 00	 DD	 $L89711
$L89711:
  0003b	fb ff ff ff	 DD	 -5			; fffffffbH
  0003f	01 00 00 00	 DD	 1
  00043	00 00 00 00	 DD	 $L89710
$L89710:
  00047	5f		 DB	 95			; 0000005fH
  00048	43		 DB	 67			; 00000043H
  00049	61		 DB	 97			; 00000061H
  0004a	74		 DB	 116			; 00000074H
  0004b	00		 DB	 0
??$_Ptr_cat@PAV?$basic_string@DU?$char_traits@D@std@@V?$allocator@D@2@@std@@PAV12@@std@@YA?AU_Nonscalar_ptr_iterator_tag@0@AAPAV?$basic_string@DU?$char_traits@D@std@@V?$allocator@D@2@@0@0@Z ENDP ; std::_Ptr_cat<std::basic_string<char,std::char_traits<char>,std::allocator<char> > *,std::basic_string<char,std::char_traits<char>,std::allocator<char> > *>
_TEXT	ENDS
PUBLIC	?construct@?$allocator@V?$basic_string@DU?$char_traits@D@std@@V?$allocator@D@2@@std@@@std@@QAEXPAV?$basic_string@DU?$char_traits@D@std@@V?$allocator@D@2@@2@ABV32@@Z ; std::allocator<std::basic_string<char,std::char_traits<char>,std::allocator<char> > >::construct
PUBLIC	?destroy@?$allocator@V?$basic_string@DU?$char_traits@D@std@@V?$allocator@D@2@@std@@@std@@QAEXPAV?$basic_string@DU?$char_traits@D@std@@V?$allocator@D@2@@2@@Z ; std::allocator<std::basic_string<char,std::char_traits<char>,std::allocator<char> > >::destroy
;	COMDAT xdata$x
; File d:\program files (x86)\microsoft visual studio .net 2003\vc7\include\memory
xdata$x	SEGMENT
$T89719	DD	0ffffffffH
	DD	00H
	DD	0ffffffffH
	DD	00H
$T89721	DD	00H
	DD	00H
	DD	00H
	DD	FLAT:$L89715
$T89720	DD	00H
	DD	00H
	DD	01H
	DD	01H
	DD	FLAT:$T89721
$T89717	DD	019930520H
	DD	02H
	DD	FLAT:$T89719
	DD	01H
	DD	FLAT:$T89720
	DD	2 DUP(00H)
; Function compile flags: /Odt /RTCsu
xdata$x	ENDS
;	COMDAT ??$_Uninit_fill_n@PAV?$basic_string@DU?$char_traits@D@std@@V?$allocator@D@2@@std@@IV12@V?$allocator@V?$basic_string@DU?$char_traits@D@std@@V?$allocator@D@2@@std@@@2@@std@@YAXPAV?$basic_string@DU?$char_traits@D@std@@V?$allocator@D@2@@0@IABV10@AAV?$allocator@V?$basic_string@DU?$char_traits@D@std@@V?$allocator@D@2@@std@@@0@U_Nonscalar_ptr_iterator_tag@0@@Z
_TEXT	SEGMENT
__Next$ = -20						; size = 4
__$EHRec$ = -16						; size = 16
__First$ = 8						; size = 4
__Count$ = 12						; size = 4
__Val$ = 16						; size = 4
__Al$ = 20						; size = 4
___formal$ = 24						; size = 1
??$_Uninit_fill_n@PAV?$basic_string@DU?$char_traits@D@std@@V?$allocator@D@2@@std@@IV12@V?$allocator@V?$basic_string@DU?$char_traits@D@std@@V?$allocator@D@2@@std@@@2@@std@@YAXPAV?$basic_string@DU?$char_traits@D@std@@V?$allocator@D@2@@0@IABV10@AAV?$allocator@V?$basic_string@DU?$char_traits@D@std@@V?$allocator@D@2@@std@@@0@U_Nonscalar_ptr_iterator_tag@0@@Z PROC NEAR ; std::_Uninit_fill_n<std::basic_string<char,std::char_traits<char>,std::allocator<char> > *,unsigned int,std::basic_string<char,std::char_traits<char>,std::allocator<char> >,std::allocator<std::basic_string<char,std::char_traits<char>,std::allocator<char> > > >, COMDAT

; 207  : 	{	// copy _Count *_Val to raw _First, using _Al, arbitrary type

  00000	55		 push	 ebp
  00001	8b ec		 mov	 ebp, esp
  00003	6a ff		 push	 -1
  00005	68 00 00 00 00	 push	 __ehhandler$??$_Uninit_fill_n@PAV?$basic_string@DU?$char_traits@D@std@@V?$allocator@D@2@@std@@IV12@V?$allocator@V?$basic_string@DU?$char_traits@D@std@@V?$allocator@D@2@@std@@@2@@std@@YAXPAV?$basic_string@DU?$char_traits@D@std@@V?$allocator@D@2@@0@IABV10@AAV?$allocator@V?$basic_string@DU?$char_traits@D@std@@V?$allocator@D@2@@std@@@0@U_Nonscalar_ptr_iterator_tag@0@@Z
  0000a	64 a1 00 00 00
	00		 mov	 eax, DWORD PTR fs:__except_list
  00010	50		 push	 eax
  00011	64 89 25 00 00
	00 00		 mov	 DWORD PTR fs:__except_list, esp
  00018	51		 push	 ecx
  00019	51		 push	 ecx
  0001a	53		 push	 ebx
  0001b	56		 push	 esi
  0001c	57		 push	 edi
  0001d	c7 45 ec cc cc
	cc cc		 mov	 DWORD PTR [ebp-20], -858993460 ; ccccccccH
  00024	89 65 f0	 mov	 DWORD PTR __$EHRec$[ebp], esp

; 208  : 	_FwdIt _Next = _First;

  00027	8b 45 08	 mov	 eax, DWORD PTR __First$[ebp]
  0002a	89 45 ec	 mov	 DWORD PTR __Next$[ebp], eax

; 209  : 
; 210  : 	_TRY_BEGIN

  0002d	c7 45 fc 00 00
	00 00		 mov	 DWORD PTR __$EHRec$[ebp+12], 0

; 211  : 	for (; 0 < _Count; --_Count, ++_First)

  00034	eb 12		 jmp	 SHORT $L87943
$L87944:
  00036	8b 4d 0c	 mov	 ecx, DWORD PTR __Count$[ebp]
  00039	83 e9 01	 sub	 ecx, 1
  0003c	89 4d 0c	 mov	 DWORD PTR __Count$[ebp], ecx
  0003f	8b 55 08	 mov	 edx, DWORD PTR __First$[ebp]
  00042	83 c2 1c	 add	 edx, 28			; 0000001cH
  00045	89 55 08	 mov	 DWORD PTR __First$[ebp], edx
$L87943:
  00048	83 7d 0c 00	 cmp	 DWORD PTR __Count$[ebp], 0
  0004c	76 12		 jbe	 SHORT $L87945

; 212  : 		_Al.construct(_First, _Val);

  0004e	8b 45 10	 mov	 eax, DWORD PTR __Val$[ebp]
  00051	50		 push	 eax
  00052	8b 4d 08	 mov	 ecx, DWORD PTR __First$[ebp]
  00055	51		 push	 ecx
  00056	8b 4d 14	 mov	 ecx, DWORD PTR __Al$[ebp]
  00059	e8 00 00 00 00	 call	 ?construct@?$allocator@V?$basic_string@DU?$char_traits@D@std@@V?$allocator@D@2@@std@@@std@@QAEXPAV?$basic_string@DU?$char_traits@D@std@@V?$allocator@D@2@@2@ABV32@@Z ; std::allocator<std::basic_string<char,std::char_traits<char>,std::allocator<char> > >::construct
  0005e	eb d6		 jmp	 SHORT $L87944
$L87945:
  00060	eb 2a		 jmp	 SHORT $L89714
$L89715:

; 213  : 	_CATCH_ALL
; 214  : 	for (; _Next != _First; ++_Next)

  00062	eb 09		 jmp	 SHORT $L87946
$L87947:
  00064	8b 55 ec	 mov	 edx, DWORD PTR __Next$[ebp]
  00067	83 c2 1c	 add	 edx, 28			; 0000001cH
  0006a	89 55 ec	 mov	 DWORD PTR __Next$[ebp], edx
$L87946:
  0006d	8b 45 ec	 mov	 eax, DWORD PTR __Next$[ebp]
  00070	3b 45 08	 cmp	 eax, DWORD PTR __First$[ebp]
  00073	74 0e		 je	 SHORT $L87948

; 215  : 		_Al.destroy(_Next);

  00075	8b 4d ec	 mov	 ecx, DWORD PTR __Next$[ebp]
  00078	51		 push	 ecx
  00079	8b 4d 14	 mov	 ecx, DWORD PTR __Al$[ebp]
  0007c	e8 00 00 00 00	 call	 ?destroy@?$allocator@V?$basic_string@DU?$char_traits@D@std@@V?$allocator@D@2@@std@@@std@@QAEXPAV?$basic_string@DU?$char_traits@D@std@@V?$allocator@D@2@@2@@Z ; std::allocator<std::basic_string<char,std::char_traits<char>,std::allocator<char> > >::destroy
  00081	eb e1		 jmp	 SHORT $L87947
$L87948:

; 216  : 	_RERAISE;

  00083	6a 00		 push	 0
  00085	6a 00		 push	 0
  00087	e8 00 00 00 00	 call	 __CxxThrowException@8
$L89714:

; 217  : 	_CATCH_END

  0008c	c7 45 fc ff ff
	ff ff		 mov	 DWORD PTR __$EHRec$[ebp+12], -1
$L89713:

; 218  : 	}

  00093	8b 4d f4	 mov	 ecx, DWORD PTR __$EHRec$[ebp+4]
  00096	64 89 0d 00 00
	00 00		 mov	 DWORD PTR fs:__except_list, ecx
  0009d	5f		 pop	 edi
  0009e	5e		 pop	 esi
  0009f	5b		 pop	 ebx
  000a0	83 c4 14	 add	 esp, 20			; 00000014H
  000a3	3b ec		 cmp	 ebp, esp
  000a5	e8 00 00 00 00	 call	 __RTC_CheckEsp
  000aa	8b e5		 mov	 esp, ebp
  000ac	5d		 pop	 ebp
  000ad	c3		 ret	 0
_TEXT	ENDS
;	COMDAT text$x
text$x	SEGMENT
__ehhandler$??$_Uninit_fill_n@PAV?$basic_string@DU?$char_traits@D@std@@V?$allocator@D@2@@std@@IV12@V?$allocator@V?$basic_string@DU?$char_traits@D@std@@V?$allocator@D@2@@std@@@2@@std@@YAXPAV?$basic_string@DU?$char_traits@D@std@@V?$allocator@D@2@@0@IABV10@AAV?$allocator@V?$basic_string@DU?$char_traits@D@std@@V?$allocator@D@2@@std@@@0@U_Nonscalar_ptr_iterator_tag@0@@Z:
  00000	b8 00 00 00 00	 mov	 eax, OFFSET FLAT:$T89717
  00005	e9 00 00 00 00	 jmp	 ___CxxFrameHandler
text$x	ENDS
??$_Uninit_fill_n@PAV?$basic_string@DU?$char_traits@D@std@@V?$allocator@D@2@@std@@IV12@V?$allocator@V?$basic_string@DU?$char_traits@D@std@@V?$allocator@D@2@@std@@@2@@std@@YAXPAV?$basic_string@DU?$char_traits@D@std@@V?$allocator@D@2@@0@IABV10@AAV?$allocator@V?$basic_string@DU?$char_traits@D@std@@V?$allocator@D@2@@std@@@0@U_Nonscalar_ptr_iterator_tag@0@@Z ENDP ; std::_Uninit_fill_n<std::basic_string<char,std::char_traits<char>,std::allocator<char> > *,unsigned int,std::basic_string<char,std::char_traits<char>,std::allocator<char> >,std::allocator<std::basic_string<char,std::char_traits<char>,std::allocator<char> > > >
; Function compile flags: /Odt /RTCsu
; File d:\program files (x86)\microsoft visual studio .net 2003\vc7\include\xmemory
;	COMDAT ??$_Destroy_range@V?$basic_string@DU?$char_traits@D@std@@V?$allocator@D@2@@std@@V?$allocator@V?$basic_string@DU?$char_traits@D@std@@V?$allocator@D@2@@std@@@2@@std@@YAXPAV?$basic_string@DU?$char_traits@D@std@@V?$allocator@D@2@@0@0AAV?$allocator@V?$basic_string@DU?$char_traits@D@std@@V?$allocator@D@2@@std@@@0@U_Nonscalar_ptr_iterator_tag@0@@Z
_TEXT	SEGMENT
__First$ = 8						; size = 4
__Last$ = 12						; size = 4
__Al$ = 16						; size = 4
___formal$ = 20						; size = 1
??$_Destroy_range@V?$basic_string@DU?$char_traits@D@std@@V?$allocator@D@2@@std@@V?$allocator@V?$basic_string@DU?$char_traits@D@std@@V?$allocator@D@2@@std@@@2@@std@@YAXPAV?$basic_string@DU?$char_traits@D@std@@V?$allocator@D@2@@0@0AAV?$allocator@V?$basic_string@DU?$char_traits@D@std@@V?$allocator@D@2@@std@@@0@U_Nonscalar_ptr_iterator_tag@0@@Z PROC NEAR ; std::_Destroy_range<std::basic_string<char,std::char_traits<char>,std::allocator<char> >,std::allocator<std::basic_string<char,std::char_traits<char>,std::allocator<char> > > >, COMDAT

; 224  : 	{	// destroy [_First, _Last), arbitrary type

  00000	55		 push	 ebp
  00001	8b ec		 mov	 ebp, esp

; 225  : 	for (; _First != _Last; ++_First)

  00003	eb 09		 jmp	 SHORT $L87950
$L87951:
  00005	8b 45 08	 mov	 eax, DWORD PTR __First$[ebp]
  00008	83 c0 1c	 add	 eax, 28			; 0000001cH
  0000b	89 45 08	 mov	 DWORD PTR __First$[ebp], eax
$L87950:
  0000e	8b 4d 08	 mov	 ecx, DWORD PTR __First$[ebp]
  00011	3b 4d 0c	 cmp	 ecx, DWORD PTR __Last$[ebp]
  00014	74 0e		 je	 SHORT $L87949

; 226  : 		_Al.destroy(_First);

  00016	8b 55 08	 mov	 edx, DWORD PTR __First$[ebp]
  00019	52		 push	 edx
  0001a	8b 4d 10	 mov	 ecx, DWORD PTR __Al$[ebp]
  0001d	e8 00 00 00 00	 call	 ?destroy@?$allocator@V?$basic_string@DU?$char_traits@D@std@@V?$allocator@D@2@@std@@@std@@QAEXPAV?$basic_string@DU?$char_traits@D@std@@V?$allocator@D@2@@2@@Z ; std::allocator<std::basic_string<char,std::char_traits<char>,std::allocator<char> > >::destroy
  00022	eb e1		 jmp	 SHORT $L87951
$L87949:

; 227  : 	}

  00024	3b ec		 cmp	 ebp, esp
  00026	e8 00 00 00 00	 call	 __RTC_CheckEsp
  0002b	5d		 pop	 ebp
  0002c	c3		 ret	 0
??$_Destroy_range@V?$basic_string@DU?$char_traits@D@std@@V?$allocator@D@2@@std@@V?$allocator@V?$basic_string@DU?$char_traits@D@std@@V?$allocator@D@2@@std@@@2@@std@@YAXPAV?$basic_string@DU?$char_traits@D@std@@V?$allocator@D@2@@0@0AAV?$allocator@V?$basic_string@DU?$char_traits@D@std@@V?$allocator@D@2@@std@@@0@U_Nonscalar_ptr_iterator_tag@0@@Z ENDP ; std::_Destroy_range<std::basic_string<char,std::char_traits<char>,std::allocator<char> >,std::allocator<std::basic_string<char,std::char_traits<char>,std::allocator<char> > > >
_TEXT	ENDS
PUBLIC	??$_Uninit_copy@PAV?$basic_string@DU?$char_traits@D@std@@V?$allocator@D@2@@std@@PAV12@V?$allocator@V?$basic_string@DU?$char_traits@D@std@@V?$allocator@D@2@@std@@@2@@std@@YAPAV?$basic_string@DU?$char_traits@D@std@@V?$allocator@D@2@@0@PAV10@00AAV?$allocator@V?$basic_string@DU?$char_traits@D@std@@V?$allocator@D@2@@std@@@0@U_Nonscalar_ptr_iterator_tag@0@@Z ; std::_Uninit_copy<std::basic_string<char,std::char_traits<char>,std::allocator<char> > *,std::basic_string<char,std::char_traits<char>,std::allocator<char> > *,std::allocator<std::basic_string<char,std::char_traits<char>,std::allocator<char> > > >
; Function compile flags: /Odt /RTCsu
; File d:\program files (x86)\microsoft visual studio .net 2003\vc7\include\memory
;	COMDAT ??$_Uninitialized_copy@PAV?$basic_string@DU?$char_traits@D@std@@V?$allocator@D@2@@std@@PAV12@V?$allocator@V?$basic_string@DU?$char_traits@D@std@@V?$allocator@D@2@@std@@@2@@std@@YAPAV?$basic_string@DU?$char_traits@D@std@@V?$allocator@D@2@@0@PAV10@00AAV?$allocator@V?$basic_string@DU?$char_traits@D@std@@V?$allocator@D@2@@std@@@0@@Z
_TEXT	SEGMENT
$T89726 = -1						; size = 1
__First$ = 8						; size = 4
__Last$ = 12						; size = 4
__Dest$ = 16						; size = 4
__Al$ = 20						; size = 4
??$_Uninitialized_copy@PAV?$basic_string@DU?$char_traits@D@std@@V?$allocator@D@2@@std@@PAV12@V?$allocator@V?$basic_string@DU?$char_traits@D@std@@V?$allocator@D@2@@std@@@2@@std@@YAPAV?$basic_string@DU?$char_traits@D@std@@V?$allocator@D@2@@0@PAV10@00AAV?$allocator@V?$basic_string@DU?$char_traits@D@std@@V?$allocator@D@2@@std@@@0@@Z PROC NEAR ; std::_Uninitialized_copy<std::basic_string<char,std::char_traits<char>,std::allocator<char> > *,std::basic_string<char,std::char_traits<char>,std::allocator<char> > *,std::allocator<std::basic_string<char,std::char_traits<char>,std::allocator<char> > > >, COMDAT

; 126  : 	{	// copy [_First, _Last) to raw _Dest, using _Al

  00000	55		 push	 ebp
  00001	8b ec		 mov	 ebp, esp
  00003	51		 push	 ecx
  00004	c7 45 fc cc cc
	cc cc		 mov	 DWORD PTR [ebp-4], -858993460 ; ccccccccH

; 127  : 	return (_Uninit_copy(_First, _Last, _Dest, _Al,
; 128  : 		_Ptr_cat(_First, _Dest)));

  0000b	8d 45 10	 lea	 eax, DWORD PTR __Dest$[ebp]
  0000e	50		 push	 eax
  0000f	8d 4d 08	 lea	 ecx, DWORD PTR __First$[ebp]
  00012	51		 push	 ecx
  00013	e8 00 00 00 00	 call	 ??$_Ptr_cat@PAV?$basic_string@DU?$char_traits@D@std@@V?$allocator@D@2@@std@@PAV12@@std@@YA?AU_Nonscalar_ptr_iterator_tag@0@AAPAV?$basic_string@DU?$char_traits@D@std@@V?$allocator@D@2@@0@0@Z ; std::_Ptr_cat<std::basic_string<char,std::char_traits<char>,std::allocator<char> > *,std::basic_string<char,std::char_traits<char>,std::allocator<char> > *>
  00018	83 c4 08	 add	 esp, 8
  0001b	88 45 ff	 mov	 BYTE PTR $T89726[ebp], al
  0001e	8a 55 ff	 mov	 dl, BYTE PTR $T89726[ebp]
  00021	52		 push	 edx
  00022	8b 45 14	 mov	 eax, DWORD PTR __Al$[ebp]
  00025	50		 push	 eax
  00026	8b 4d 10	 mov	 ecx, DWORD PTR __Dest$[ebp]
  00029	51		 push	 ecx
  0002a	8b 55 0c	 mov	 edx, DWORD PTR __Last$[ebp]
  0002d	52		 push	 edx
  0002e	8b 45 08	 mov	 eax, DWORD PTR __First$[ebp]
  00031	50		 push	 eax
  00032	e8 00 00 00 00	 call	 ??$_Uninit_copy@PAV?$basic_string@DU?$char_traits@D@std@@V?$allocator@D@2@@std@@PAV12@V?$allocator@V?$basic_string@DU?$char_traits@D@std@@V?$allocator@D@2@@std@@@2@@std@@YAPAV?$basic_string@DU?$char_traits@D@std@@V?$allocator@D@2@@0@PAV10@00AAV?$allocator@V?$basic_string@DU?$char_traits@D@std@@V?$allocator@D@2@@std@@@0@U_Nonscalar_ptr_iterator_tag@0@@Z ; std::_Uninit_copy<std::basic_string<char,std::char_traits<char>,std::allocator<char> > *,std::basic_string<char,std::char_traits<char>,std::allocator<char> > *,std::allocator<std::basic_string<char,std::char_traits<char>,std::allocator<char> > > >
  00037	83 c4 14	 add	 esp, 20			; 00000014H

; 129  : 	}

  0003a	83 c4 04	 add	 esp, 4
  0003d	3b ec		 cmp	 ebp, esp
  0003f	e8 00 00 00 00	 call	 __RTC_CheckEsp
  00044	8b e5		 mov	 esp, ebp
  00046	5d		 pop	 ebp
  00047	c3		 ret	 0
??$_Uninitialized_copy@PAV?$basic_string@DU?$char_traits@D@std@@V?$allocator@D@2@@std@@PAV12@V?$allocator@V?$basic_string@DU?$char_traits@D@std@@V?$allocator@D@2@@std@@@2@@std@@YAPAV?$basic_string@DU?$char_traits@D@std@@V?$allocator@D@2@@0@PAV10@00AAV?$allocator@V?$basic_string@DU?$char_traits@D@std@@V?$allocator@D@2@@std@@@0@@Z ENDP ; std::_Uninitialized_copy<std::basic_string<char,std::char_traits<char>,std::allocator<char> > *,std::basic_string<char,std::char_traits<char>,std::allocator<char> > *,std::allocator<std::basic_string<char,std::char_traits<char>,std::allocator<char> > > >
; Function compile flags: /Odt /RTCsu
; File d:\program files (x86)\microsoft visual studio .net 2003\vc7\include\xutility
_TEXT	ENDS
;	COMDAT ??$_Copy_backward_opt@PAV?$basic_string@DU?$char_traits@D@std@@V?$allocator@D@2@@std@@PAV12@@std@@YAPAV?$basic_string@DU?$char_traits@D@std@@V?$allocator@D@2@@0@PAV10@00U_Nonscalar_ptr_iterator_tag@0@@Z
_TEXT	SEGMENT
__First$ = 8						; size = 4
__Last$ = 12						; size = 4
__Dest$ = 16						; size = 4
___formal$ = 20						; size = 1
??$_Copy_backward_opt@PAV?$basic_string@DU?$char_traits@D@std@@V?$allocator@D@2@@std@@PAV12@@std@@YAPAV?$basic_string@DU?$char_traits@D@std@@V?$allocator@D@2@@0@PAV10@00U_Nonscalar_ptr_iterator_tag@0@@Z PROC NEAR ; std::_Copy_backward_opt<std::basic_string<char,std::char_traits<char>,std::allocator<char> > *,std::basic_string<char,std::char_traits<char>,std::allocator<char> > *>, COMDAT

; 1048 : 	{	// copy [_First, _Last) backwards to [..., _Dest), arbitrary iterators

  00000	55		 push	 ebp
  00001	8b ec		 mov	 ebp, esp
  00003	56		 push	 esi
$L87995:

; 1049 : 	while (_First != _Last)

  00004	8b 45 08	 mov	 eax, DWORD PTR __First$[ebp]
  00007	3b 45 0c	 cmp	 eax, DWORD PTR __Last$[ebp]
  0000a	74 2a		 je	 SHORT $L87996

; 1050 : 		*--_Dest = *--_Last;

  0000c	8b 4d 0c	 mov	 ecx, DWORD PTR __Last$[ebp]
  0000f	83 e9 1c	 sub	 ecx, 28			; 0000001cH
  00012	89 4d 0c	 mov	 DWORD PTR __Last$[ebp], ecx
  00015	8b 55 10	 mov	 edx, DWORD PTR __Dest$[ebp]
  00018	83 ea 1c	 sub	 edx, 28			; 0000001cH
  0001b	89 55 10	 mov	 DWORD PTR __Dest$[ebp], edx
  0001e	8b f4		 mov	 esi, esp
  00020	8b 45 0c	 mov	 eax, DWORD PTR __Last$[ebp]
  00023	50		 push	 eax
  00024	8b 4d 10	 mov	 ecx, DWORD PTR __Dest$[ebp]
  00027	ff 15 00 00 00
	00		 call	 DWORD PTR __imp_??4?$basic_string@DU?$char_traits@D@std@@V?$allocator@D@2@@std@@QAEAAV01@ABV01@@Z
  0002d	3b f4		 cmp	 esi, esp
  0002f	e8 00 00 00 00	 call	 __RTC_CheckEsp
  00034	eb ce		 jmp	 SHORT $L87995
$L87996:

; 1051 : 	return (_Dest);

  00036	8b 45 10	 mov	 eax, DWORD PTR __Dest$[ebp]

; 1052 : 	}

  00039	5e		 pop	 esi
  0003a	3b ec		 cmp	 ebp, esp
  0003c	e8 00 00 00 00	 call	 __RTC_CheckEsp
  00041	5d		 pop	 ebp
  00042	c3		 ret	 0
??$_Copy_backward_opt@PAV?$basic_string@DU?$char_traits@D@std@@V?$allocator@D@2@@std@@PAV12@@std@@YAPAV?$basic_string@DU?$char_traits@D@std@@V?$allocator@D@2@@0@PAV10@00U_Nonscalar_ptr_iterator_tag@0@@Z ENDP ; std::_Copy_backward_opt<std::basic_string<char,std::char_traits<char>,std::allocator<char> > *,std::basic_string<char,std::char_traits<char>,std::allocator<char> > *>
_TEXT	ENDS
PUBLIC	??$_Construct@V?$basic_string@DU?$char_traits@D@std@@V?$allocator@D@2@@std@@V12@@std@@YAXPAV?$basic_string@DU?$char_traits@D@std@@V?$allocator@D@2@@0@ABV10@@Z ; std::_Construct<std::basic_string<char,std::char_traits<char>,std::allocator<char> >,std::basic_string<char,std::char_traits<char>,std::allocator<char> > >
; Function compile flags: /Odt /RTCsu
; File d:\program files (x86)\microsoft visual studio .net 2003\vc7\include\xmemory
;	COMDAT ?construct@?$allocator@V?$basic_string@DU?$char_traits@D@std@@V?$allocator@D@2@@std@@@std@@QAEXPAV?$basic_string@DU?$char_traits@D@std@@V?$allocator@D@2@@2@ABV32@@Z
_TEXT	SEGMENT
_this$ = -4						; size = 4
__Ptr$ = 8						; size = 4
__Val$ = 12						; size = 4
?construct@?$allocator@V?$basic_string@DU?$char_traits@D@std@@V?$allocator@D@2@@std@@@std@@QAEXPAV?$basic_string@DU?$char_traits@D@std@@V?$allocator@D@2@@2@ABV32@@Z PROC NEAR ; std::allocator<std::basic_string<char,std::char_traits<char>,std::allocator<char> > >::construct, COMDAT
; _this$ = ecx

; 146  : 		{	// construct object at _Ptr with value _Val

  00000	55		 push	 ebp
  00001	8b ec		 mov	 ebp, esp
  00003	51		 push	 ecx
  00004	c7 45 fc cc cc
	cc cc		 mov	 DWORD PTR [ebp-4], -858993460 ; ccccccccH
  0000b	89 4d fc	 mov	 DWORD PTR _this$[ebp], ecx

; 147  : 		_Construct(_Ptr, _Val);

  0000e	8b 45 0c	 mov	 eax, DWORD PTR __Val$[ebp]
  00011	50		 push	 eax
  00012	8b 4d 08	 mov	 ecx, DWORD PTR __Ptr$[ebp]
  00015	51		 push	 ecx
  00016	e8 00 00 00 00	 call	 ??$_Construct@V?$basic_string@DU?$char_traits@D@std@@V?$allocator@D@2@@std@@V12@@std@@YAXPAV?$basic_string@DU?$char_traits@D@std@@V?$allocator@D@2@@0@ABV10@@Z ; std::_Construct<std::basic_string<char,std::char_traits<char>,std::allocator<char> >,std::basic_string<char,std::char_traits<char>,std::allocator<char> > >
  0001b	83 c4 08	 add	 esp, 8

; 148  : 		}

  0001e	83 c4 04	 add	 esp, 4
  00021	3b ec		 cmp	 ebp, esp
  00023	e8 00 00 00 00	 call	 __RTC_CheckEsp
  00028	8b e5		 mov	 esp, ebp
  0002a	5d		 pop	 ebp
  0002b	c2 08 00	 ret	 8
?construct@?$allocator@V?$basic_string@DU?$char_traits@D@std@@V?$allocator@D@2@@std@@@std@@QAEXPAV?$basic_string@DU?$char_traits@D@std@@V?$allocator@D@2@@2@ABV32@@Z ENDP ; std::allocator<std::basic_string<char,std::char_traits<char>,std::allocator<char> > >::construct
_TEXT	ENDS
PUBLIC	??$_Destroy@V?$basic_string@DU?$char_traits@D@std@@V?$allocator@D@2@@std@@@std@@YAXPAV?$basic_string@DU?$char_traits@D@std@@V?$allocator@D@2@@0@@Z ; std::_Destroy<std::basic_string<char,std::char_traits<char>,std::allocator<char> > >
; Function compile flags: /Odt /RTCsu
;	COMDAT ?destroy@?$allocator@V?$basic_string@DU?$char_traits@D@std@@V?$allocator@D@2@@std@@@std@@QAEXPAV?$basic_string@DU?$char_traits@D@std@@V?$allocator@D@2@@2@@Z
_TEXT	SEGMENT
_this$ = -4						; size = 4
__Ptr$ = 8						; size = 4
?destroy@?$allocator@V?$basic_string@DU?$char_traits@D@std@@V?$allocator@D@2@@std@@@std@@QAEXPAV?$basic_string@DU?$char_traits@D@std@@V?$allocator@D@2@@2@@Z PROC NEAR ; std::allocator<std::basic_string<char,std::char_traits<char>,std::allocator<char> > >::destroy, COMDAT
; _this$ = ecx

; 151  : 		{	// destroy object at _Ptr

  00000	55		 push	 ebp
  00001	8b ec		 mov	 ebp, esp
  00003	51		 push	 ecx
  00004	c7 45 fc cc cc
	cc cc		 mov	 DWORD PTR [ebp-4], -858993460 ; ccccccccH
  0000b	89 4d fc	 mov	 DWORD PTR _this$[ebp], ecx

; 152  : 		_Destroy(_Ptr);

  0000e	8b 45 08	 mov	 eax, DWORD PTR __Ptr$[ebp]
  00011	50		 push	 eax
  00012	e8 00 00 00 00	 call	 ??$_Destroy@V?$basic_string@DU?$char_traits@D@std@@V?$allocator@D@2@@std@@@std@@YAXPAV?$basic_string@DU?$char_traits@D@std@@V?$allocator@D@2@@0@@Z ; std::_Destroy<std::basic_string<char,std::char_traits<char>,std::allocator<char> > >
  00017	83 c4 04	 add	 esp, 4

; 153  : 		}

  0001a	83 c4 04	 add	 esp, 4
  0001d	3b ec		 cmp	 ebp, esp
  0001f	e8 00 00 00 00	 call	 __RTC_CheckEsp
  00024	8b e5		 mov	 esp, ebp
  00026	5d		 pop	 ebp
  00027	c2 04 00	 ret	 4
?destroy@?$allocator@V?$basic_string@DU?$char_traits@D@std@@V?$allocator@D@2@@std@@@std@@QAEXPAV?$basic_string@DU?$char_traits@D@std@@V?$allocator@D@2@@2@@Z ENDP ; std::allocator<std::basic_string<char,std::char_traits<char>,std::allocator<char> > >::destroy
_TEXT	ENDS
;	COMDAT xdata$x
; File d:\program files (x86)\microsoft visual studio .net 2003\vc7\include\memory
xdata$x	SEGMENT
$T89736	DD	0ffffffffH
	DD	00H
	DD	0ffffffffH
	DD	00H
$T89738	DD	00H
	DD	00H
	DD	00H
	DD	FLAT:$L89732
$T89737	DD	00H
	DD	00H
	DD	01H
	DD	01H
	DD	FLAT:$T89738
$T89734	DD	019930520H
	DD	02H
	DD	FLAT:$T89736
	DD	01H
	DD	FLAT:$T89737
	DD	2 DUP(00H)
; Function compile flags: /Odt /RTCsu
xdata$x	ENDS
;	COMDAT ??$_Uninit_copy@PAV?$basic_string@DU?$char_traits@D@std@@V?$allocator@D@2@@std@@PAV12@V?$allocator@V?$basic_string@DU?$char_traits@D@std@@V?$allocator@D@2@@std@@@2@@std@@YAPAV?$basic_string@DU?$char_traits@D@std@@V?$allocator@D@2@@0@PAV10@00AAV?$allocator@V?$basic_string@DU?$char_traits@D@std@@V?$allocator@D@2@@std@@@0@U_Nonscalar_ptr_iterator_tag@0@@Z
_TEXT	SEGMENT
__Next$ = -20						; size = 4
__$EHRec$ = -16						; size = 16
__First$ = 8						; size = 4
__Last$ = 12						; size = 4
__Dest$ = 16						; size = 4
__Al$ = 20						; size = 4
___formal$ = 24						; size = 1
??$_Uninit_copy@PAV?$basic_string@DU?$char_traits@D@std@@V?$allocator@D@2@@std@@PAV12@V?$allocator@V?$basic_string@DU?$char_traits@D@std@@V?$allocator@D@2@@std@@@2@@std@@YAPAV?$basic_string@DU?$char_traits@D@std@@V?$allocator@D@2@@0@PAV10@00AAV?$allocator@V?$basic_string@DU?$char_traits@D@std@@V?$allocator@D@2@@std@@@0@U_Nonscalar_ptr_iterator_tag@0@@Z PROC NEAR ; std::_Uninit_copy<std::basic_string<char,std::char_traits<char>,std::allocator<char> > *,std::basic_string<char,std::char_traits<char>,std::allocator<char> > *,std::allocator<std::basic_string<char,std::char_traits<char>,std::allocator<char> > > >, COMDAT

; 77   : 	{	// copy [_First, _Last) to raw _Dest, using _Al, arbitrary type

  00000	55		 push	 ebp
  00001	8b ec		 mov	 ebp, esp
  00003	6a ff		 push	 -1
  00005	68 00 00 00 00	 push	 __ehhandler$??$_Uninit_copy@PAV?$basic_string@DU?$char_traits@D@std@@V?$allocator@D@2@@std@@PAV12@V?$allocator@V?$basic_string@DU?$char_traits@D@std@@V?$allocator@D@2@@std@@@2@@std@@YAPAV?$basic_string@DU?$char_traits@D@std@@V?$allocator@D@2@@0@PAV10@00AAV?$allocator@V?$basic_string@DU?$char_traits@D@std@@V?$allocator@D@2@@std@@@0@U_Nonscalar_ptr_iterator_tag@0@@Z
  0000a	64 a1 00 00 00
	00		 mov	 eax, DWORD PTR fs:__except_list
  00010	50		 push	 eax
  00011	64 89 25 00 00
	00 00		 mov	 DWORD PTR fs:__except_list, esp
  00018	51		 push	 ecx
  00019	51		 push	 ecx
  0001a	53		 push	 ebx
  0001b	56		 push	 esi
  0001c	57		 push	 edi
  0001d	c7 45 ec cc cc
	cc cc		 mov	 DWORD PTR [ebp-20], -858993460 ; ccccccccH
  00024	89 65 f0	 mov	 DWORD PTR __$EHRec$[ebp], esp

; 78   : 	_FwdIt _Next = _Dest;

  00027	8b 45 10	 mov	 eax, DWORD PTR __Dest$[ebp]
  0002a	89 45 ec	 mov	 DWORD PTR __Next$[ebp], eax

; 79   : 
; 80   : 	_TRY_BEGIN

  0002d	c7 45 fc 00 00
	00 00		 mov	 DWORD PTR __$EHRec$[ebp+12], 0

; 81   : 	for (; _First != _Last; ++_Dest, ++_First)

  00034	eb 12		 jmp	 SHORT $L88025
$L88026:
  00036	8b 4d 10	 mov	 ecx, DWORD PTR __Dest$[ebp]
  00039	83 c1 1c	 add	 ecx, 28			; 0000001cH
  0003c	89 4d 10	 mov	 DWORD PTR __Dest$[ebp], ecx
  0003f	8b 55 08	 mov	 edx, DWORD PTR __First$[ebp]
  00042	83 c2 1c	 add	 edx, 28			; 0000001cH
  00045	89 55 08	 mov	 DWORD PTR __First$[ebp], edx
$L88025:
  00048	8b 45 08	 mov	 eax, DWORD PTR __First$[ebp]
  0004b	3b 45 0c	 cmp	 eax, DWORD PTR __Last$[ebp]
  0004e	74 12		 je	 SHORT $L88027

; 82   : 		_Al.construct(_Dest, *_First);

  00050	8b 4d 08	 mov	 ecx, DWORD PTR __First$[ebp]
  00053	51		 push	 ecx
  00054	8b 55 10	 mov	 edx, DWORD PTR __Dest$[ebp]
  00057	52		 push	 edx
  00058	8b 4d 14	 mov	 ecx, DWORD PTR __Al$[ebp]
  0005b	e8 00 00 00 00	 call	 ?construct@?$allocator@V?$basic_string@DU?$char_traits@D@std@@V?$allocator@D@2@@std@@@std@@QAEXPAV?$basic_string@DU?$char_traits@D@std@@V?$allocator@D@2@@2@ABV32@@Z ; std::allocator<std::basic_string<char,std::char_traits<char>,std::allocator<char> > >::construct
  00060	eb d4		 jmp	 SHORT $L88026
$L88027:
  00062	eb 2a		 jmp	 SHORT $L89731
$L89732:

; 83   : 	_CATCH_ALL
; 84   : 	for (; _Next != _Dest; ++_Next)

  00064	eb 09		 jmp	 SHORT $L88028
$L88029:
  00066	8b 45 ec	 mov	 eax, DWORD PTR __Next$[ebp]
  00069	83 c0 1c	 add	 eax, 28			; 0000001cH
  0006c	89 45 ec	 mov	 DWORD PTR __Next$[ebp], eax
$L88028:
  0006f	8b 4d ec	 mov	 ecx, DWORD PTR __Next$[ebp]
  00072	3b 4d 10	 cmp	 ecx, DWORD PTR __Dest$[ebp]
  00075	74 0e		 je	 SHORT $L88030

; 85   : 		_Al.destroy(_Next);

  00077	8b 55 ec	 mov	 edx, DWORD PTR __Next$[ebp]
  0007a	52		 push	 edx
  0007b	8b 4d 14	 mov	 ecx, DWORD PTR __Al$[ebp]
  0007e	e8 00 00 00 00	 call	 ?destroy@?$allocator@V?$basic_string@DU?$char_traits@D@std@@V?$allocator@D@2@@std@@@std@@QAEXPAV?$basic_string@DU?$char_traits@D@std@@V?$allocator@D@2@@2@@Z ; std::allocator<std::basic_string<char,std::char_traits<char>,std::allocator<char> > >::destroy
  00083	eb e1		 jmp	 SHORT $L88029
$L88030:

; 86   : 	_RERAISE;

  00085	6a 00		 push	 0
  00087	6a 00		 push	 0
  00089	e8 00 00 00 00	 call	 __CxxThrowException@8
$L89731:

; 87   : 	_CATCH_END

  0008e	c7 45 fc ff ff
	ff ff		 mov	 DWORD PTR __$EHRec$[ebp+12], -1

; 88   : 	return (_Dest);

  00095	8b 45 10	 mov	 eax, DWORD PTR __Dest$[ebp]
$L89730:

; 89   : 	}

  00098	8b 4d f4	 mov	 ecx, DWORD PTR __$EHRec$[ebp+4]
  0009b	64 89 0d 00 00
	00 00		 mov	 DWORD PTR fs:__except_list, ecx
  000a2	5f		 pop	 edi
  000a3	5e		 pop	 esi
  000a4	5b		 pop	 ebx
  000a5	83 c4 14	 add	 esp, 20			; 00000014H
  000a8	3b ec		 cmp	 ebp, esp
  000aa	e8 00 00 00 00	 call	 __RTC_CheckEsp
  000af	8b e5		 mov	 esp, ebp
  000b1	5d		 pop	 ebp
  000b2	c3		 ret	 0
_TEXT	ENDS
;	COMDAT text$x
text$x	SEGMENT
__ehhandler$??$_Uninit_copy@PAV?$basic_string@DU?$char_traits@D@std@@V?$allocator@D@2@@std@@PAV12@V?$allocator@V?$basic_string@DU?$char_traits@D@std@@V?$allocator@D@2@@std@@@2@@std@@YAPAV?$basic_string@DU?$char_traits@D@std@@V?$allocator@D@2@@0@PAV10@00AAV?$allocator@V?$basic_string@DU?$char_traits@D@std@@V?$allocator@D@2@@std@@@0@U_Nonscalar_ptr_iterator_tag@0@@Z:
  00000	b8 00 00 00 00	 mov	 eax, OFFSET FLAT:$T89734
  00005	e9 00 00 00 00	 jmp	 ___CxxFrameHandler
text$x	ENDS
??$_Uninit_copy@PAV?$basic_string@DU?$char_traits@D@std@@V?$allocator@D@2@@std@@PAV12@V?$allocator@V?$basic_string@DU?$char_traits@D@std@@V?$allocator@D@2@@std@@@2@@std@@YAPAV?$basic_string@DU?$char_traits@D@std@@V?$allocator@D@2@@0@PAV10@00AAV?$allocator@V?$basic_string@DU?$char_traits@D@std@@V?$allocator@D@2@@std@@@0@U_Nonscalar_ptr_iterator_tag@0@@Z ENDP ; std::_Uninit_copy<std::basic_string<char,std::char_traits<char>,std::allocator<char> > *,std::basic_string<char,std::char_traits<char>,std::allocator<char> > *,std::allocator<std::basic_string<char,std::char_traits<char>,std::allocator<char> > > >
PUBLIC	??2@YAPAXIPAX@Z					; operator new
PUBLIC	??3@YAXPAX0@Z					; operator delete
;	COMDAT xdata$x
; File d:\program files (x86)\microsoft visual studio .net 2003\vc7\include\xmemory
xdata$x	SEGMENT
$T89750	DD	0ffffffffH
	DD	FLAT:$L89746
$T89748	DD	019930520H
	DD	01H
	DD	FLAT:$T89750
	DD	2 DUP(00H)
	DD	2 DUP(00H)
; Function compile flags: /Odt /RTCsu
xdata$x	ENDS
;	COMDAT ??$_Construct@V?$basic_string@DU?$char_traits@D@std@@V?$allocator@D@2@@std@@V12@@std@@YAXPAV?$basic_string@DU?$char_traits@D@std@@V?$allocator@D@2@@0@ABV10@@Z
_TEXT	SEGMENT
tv74 = -24						; size = 4
$T89743 = -20						; size = 4
$T89742 = -16						; size = 4
__$EHRec$ = -12						; size = 12
__Ptr$ = 8						; size = 4
__Val$ = 12						; size = 4
??$_Construct@V?$basic_string@DU?$char_traits@D@std@@V?$allocator@D@2@@std@@V12@@std@@YAXPAV?$basic_string@DU?$char_traits@D@std@@V?$allocator@D@2@@0@ABV10@@Z PROC NEAR ; std::_Construct<std::basic_string<char,std::char_traits<char>,std::allocator<char> >,std::basic_string<char,std::char_traits<char>,std::allocator<char> > >, COMDAT

; 41   : 	{	// construct object at _Ptr with value _Val

  00000	55		 push	 ebp
  00001	8b ec		 mov	 ebp, esp
  00003	6a ff		 push	 -1
  00005	68 00 00 00 00	 push	 __ehhandler$??$_Construct@V?$basic_string@DU?$char_traits@D@std@@V?$allocator@D@2@@std@@V12@@std@@YAXPAV?$basic_string@DU?$char_traits@D@std@@V?$allocator@D@2@@0@ABV10@@Z
  0000a	64 a1 00 00 00
	00		 mov	 eax, DWORD PTR fs:__except_list
  00010	50		 push	 eax
  00011	64 89 25 00 00
	00 00		 mov	 DWORD PTR fs:__except_list, esp
  00018	83 ec 0c	 sub	 esp, 12			; 0000000cH
  0001b	56		 push	 esi
  0001c	c7 45 e8 cc cc
	cc cc		 mov	 DWORD PTR [ebp-24], -858993460 ; ccccccccH
  00023	c7 45 ec cc cc
	cc cc		 mov	 DWORD PTR [ebp-20], -858993460 ; ccccccccH
  0002a	c7 45 f0 cc cc
	cc cc		 mov	 DWORD PTR [ebp-16], -858993460 ; ccccccccH

; 42   : 	new ((void _FARQ *)_Ptr) _T1(_Val);

  00031	8b 45 08	 mov	 eax, DWORD PTR __Ptr$[ebp]
  00034	50		 push	 eax
  00035	6a 1c		 push	 28			; 0000001cH
  00037	e8 00 00 00 00	 call	 ??2@YAPAXIPAX@Z		; operator new
  0003c	83 c4 08	 add	 esp, 8
  0003f	89 45 ec	 mov	 DWORD PTR $T89743[ebp], eax
  00042	c7 45 fc 00 00
	00 00		 mov	 DWORD PTR __$EHRec$[ebp+8], 0
  00049	83 7d ec 00	 cmp	 DWORD PTR $T89743[ebp], 0
  0004d	74 1b		 je	 SHORT $L89744
  0004f	8b f4		 mov	 esi, esp
  00051	8b 4d 0c	 mov	 ecx, DWORD PTR __Val$[ebp]
  00054	51		 push	 ecx
  00055	8b 4d ec	 mov	 ecx, DWORD PTR $T89743[ebp]
  00058	ff 15 00 00 00
	00		 call	 DWORD PTR __imp_??0?$basic_string@DU?$char_traits@D@std@@V?$allocator@D@2@@std@@QAE@ABV01@@Z
  0005e	3b f4		 cmp	 esi, esp
  00060	e8 00 00 00 00	 call	 __RTC_CheckEsp
  00065	89 45 e8	 mov	 DWORD PTR tv74[ebp], eax
  00068	eb 07		 jmp	 SHORT $L89745
$L89744:
  0006a	c7 45 e8 00 00
	00 00		 mov	 DWORD PTR tv74[ebp], 0
$L89745:
  00071	8b 55 e8	 mov	 edx, DWORD PTR tv74[ebp]
  00074	89 55 f0	 mov	 DWORD PTR $T89742[ebp], edx
  00077	c7 45 fc ff ff
	ff ff		 mov	 DWORD PTR __$EHRec$[ebp+8], -1

; 43   : 	}

  0007e	8b 4d f4	 mov	 ecx, DWORD PTR __$EHRec$[ebp]
  00081	64 89 0d 00 00
	00 00		 mov	 DWORD PTR fs:__except_list, ecx
  00088	5e		 pop	 esi
  00089	83 c4 18	 add	 esp, 24			; 00000018H
  0008c	3b ec		 cmp	 ebp, esp
  0008e	e8 00 00 00 00	 call	 __RTC_CheckEsp
  00093	8b e5		 mov	 esp, ebp
  00095	5d		 pop	 ebp
  00096	c3		 ret	 0
_TEXT	ENDS
;	COMDAT text$x
text$x	SEGMENT
$L89746:
  00000	8b 45 08	 mov	 eax, DWORD PTR __Ptr$[ebp]
  00003	50		 push	 eax
  00004	8b 4d ec	 mov	 ecx, DWORD PTR $T89743[ebp]
  00007	51		 push	 ecx
  00008	e8 00 00 00 00	 call	 ??3@YAXPAX0@Z		; operator delete
  0000d	83 c4 08	 add	 esp, 8
  00010	c3		 ret	 0
__ehhandler$??$_Construct@V?$basic_string@DU?$char_traits@D@std@@V?$allocator@D@2@@std@@V12@@std@@YAXPAV?$basic_string@DU?$char_traits@D@std@@V?$allocator@D@2@@0@ABV10@@Z:
  00011	b8 00 00 00 00	 mov	 eax, OFFSET FLAT:$T89748
  00016	e9 00 00 00 00	 jmp	 ___CxxFrameHandler
text$x	ENDS
??$_Construct@V?$basic_string@DU?$char_traits@D@std@@V?$allocator@D@2@@std@@V12@@std@@YAXPAV?$basic_string@DU?$char_traits@D@std@@V?$allocator@D@2@@0@ABV10@@Z ENDP ; std::_Construct<std::basic_string<char,std::char_traits<char>,std::allocator<char> >,std::basic_string<char,std::char_traits<char>,std::allocator<char> > >
; Function compile flags: /Odt /RTCsu
; File d:\program files (x86)\microsoft visual studio .net 2003\vc7\include\new
;	COMDAT ??2@YAPAXIPAX@Z
_TEXT	SEGMENT
___formal$ = 8						; size = 4
__Where$ = 12						; size = 4
??2@YAPAXIPAX@Z PROC NEAR				; operator new, COMDAT

; 63   : 	{	// construct array with placement at _Where

  00000	55		 push	 ebp
  00001	8b ec		 mov	 ebp, esp

; 64   : 	return (_Where);

  00003	8b 45 0c	 mov	 eax, DWORD PTR __Where$[ebp]

; 65   : 	}

  00006	5d		 pop	 ebp
  00007	c3		 ret	 0
??2@YAPAXIPAX@Z ENDP					; operator new
; Function compile flags: /Odt /RTCsu
_TEXT	ENDS
;	COMDAT ??3@YAXPAX0@Z
_TEXT	SEGMENT
___formal$ = 8						; size = 4
___formal$ = 12						; size = 4
??3@YAXPAX0@Z PROC NEAR					; operator delete, COMDAT

; 68   : 	{	// delete if placement new fails

  00000	55		 push	 ebp
  00001	8b ec		 mov	 ebp, esp

; 69   : 	}

  00003	5d		 pop	 ebp
  00004	c3		 ret	 0
??3@YAXPAX0@Z ENDP					; operator delete
_TEXT	ENDS
PUBLIC	??_G?$basic_string@DU?$char_traits@D@std@@V?$allocator@D@2@@std@@QAEPAXI@Z ; std::basic_string<char,std::char_traits<char>,std::allocator<char> >::`scalar deleting destructor'
; Function compile flags: /Odt /RTCsu
; File d:\program files (x86)\microsoft visual studio .net 2003\vc7\include\xmemory
;	COMDAT ??$_Destroy@V?$basic_string@DU?$char_traits@D@std@@V?$allocator@D@2@@std@@@std@@YAXPAV?$basic_string@DU?$char_traits@D@std@@V?$allocator@D@2@@0@@Z
_TEXT	SEGMENT
__Ptr$ = 8						; size = 4
??$_Destroy@V?$basic_string@DU?$char_traits@D@std@@V?$allocator@D@2@@std@@@std@@YAXPAV?$basic_string@DU?$char_traits@D@std@@V?$allocator@D@2@@0@@Z PROC NEAR ; std::_Destroy<std::basic_string<char,std::char_traits<char>,std::allocator<char> > >, COMDAT

; 48   : 	{	// destroy object at _Ptr

  00000	55		 push	 ebp
  00001	8b ec		 mov	 ebp, esp

; 49   : 	_DESTRUCTOR(_Ty, _Ptr);

  00003	6a 00		 push	 0
  00005	8b 4d 08	 mov	 ecx, DWORD PTR __Ptr$[ebp]
  00008	e8 00 00 00 00	 call	 ??_G?$basic_string@DU?$char_traits@D@std@@V?$allocator@D@2@@std@@QAEPAXI@Z

; 50   : 	}

  0000d	3b ec		 cmp	 ebp, esp
  0000f	e8 00 00 00 00	 call	 __RTC_CheckEsp
  00014	5d		 pop	 ebp
  00015	c3		 ret	 0
??$_Destroy@V?$basic_string@DU?$char_traits@D@std@@V?$allocator@D@2@@std@@@std@@YAXPAV?$basic_string@DU?$char_traits@D@std@@V?$allocator@D@2@@0@@Z ENDP ; std::_Destroy<std::basic_string<char,std::char_traits<char>,std::allocator<char> > >
; Function compile flags: /Odt /RTCsu
_TEXT	ENDS
;	COMDAT ??_G?$basic_string@DU?$char_traits@D@std@@V?$allocator@D@2@@std@@QAEPAXI@Z
_TEXT	SEGMENT
_this$ = -4						; size = 4
___flags$ = 8						; size = 4
??_G?$basic_string@DU?$char_traits@D@std@@V?$allocator@D@2@@std@@QAEPAXI@Z PROC NEAR ; std::basic_string<char,std::char_traits<char>,std::allocator<char> >::`scalar deleting destructor', COMDAT
; _this$ = ecx
  00000	55		 push	 ebp
  00001	8b ec		 mov	 ebp, esp
  00003	51		 push	 ecx
  00004	56		 push	 esi
  00005	c7 45 fc cc cc
	cc cc		 mov	 DWORD PTR [ebp-4], -858993460 ; ccccccccH
  0000c	89 4d fc	 mov	 DWORD PTR _this$[ebp], ecx
  0000f	8b f4		 mov	 esi, esp
  00011	8b 4d fc	 mov	 ecx, DWORD PTR _this$[ebp]
  00014	ff 15 00 00 00
	00		 call	 DWORD PTR __imp_??1?$basic_string@DU?$char_traits@D@std@@V?$allocator@D@2@@std@@QAE@XZ
  0001a	3b f4		 cmp	 esi, esp
  0001c	e8 00 00 00 00	 call	 __RTC_CheckEsp
  00021	8b 45 08	 mov	 eax, DWORD PTR ___flags$[ebp]
  00024	83 e0 01	 and	 eax, 1
  00027	74 0c		 je	 SHORT $L88042
  00029	8b 4d fc	 mov	 ecx, DWORD PTR _this$[ebp]
  0002c	51		 push	 ecx
  0002d	e8 00 00 00 00	 call	 ??3@YAXPAX@Z		; operator delete
  00032	83 c4 04	 add	 esp, 4
$L88042:
  00035	8b 45 fc	 mov	 eax, DWORD PTR _this$[ebp]
  00038	5e		 pop	 esi
  00039	83 c4 04	 add	 esp, 4
  0003c	3b ec		 cmp	 ebp, esp
  0003e	e8 00 00 00 00	 call	 __RTC_CheckEsp
  00043	8b e5		 mov	 esp, ebp
  00045	5d		 pop	 ebp
  00046	c2 04 00	 ret	 4
??_G?$basic_string@DU?$char_traits@D@std@@V?$allocator@D@2@@std@@QAEPAXI@Z ENDP ; std::basic_string<char,std::char_traits<char>,std::allocator<char> >::`scalar deleting destructor'
_TEXT	ENDS
END
