; Listing generated by Microsoft (R) Optimizing Compiler Version 13.10.3077 

	TITLE	\boxgit\PlayBox\CommonLib\common\YL_UserId.cpp
	.386P
include listing.inc
if @Version gt 510
.model FLAT
else
_TEXT	SEGMENT PARA USE32 PUBLIC 'CODE'
_TEXT	ENDS
_DATA	SEGMENT DWORD USE32 PUBLIC 'DATA'
_DATA	ENDS
CONST	SEGMENT DWORD USE32 PUBLIC 'CONST'
CONST	ENDS
_BSS	SEGMENT DWORD USE32 PUBLIC 'BSS'
_BSS	ENDS
$$SYMBOLS	SEGMENT BYTE USE32 'DEBSYM'
$$SYMBOLS	ENDS
_TLS	SEGMENT DWORD USE32 PUBLIC 'TLS'
_TLS	ENDS
;	COMDAT ??_C@_0FG@EOHGAEB@?3Sun?3Sunday?3Mon?3Monday?3Tue?3Tuesd@
CONST	SEGMENT DWORD USE32 PUBLIC 'CONST'
CONST	ENDS
;	COMDAT ??_C@_0IH@HPGJLCCK@?3Jan?3January?3Feb?3February?3Mar?3Ma@
CONST	SEGMENT DWORD USE32 PUBLIC 'CONST'
CONST	ENDS
;	COMDAT ??_C@_05LAPONLG@false?$AA@
CONST	SEGMENT DWORD USE32 PUBLIC 'CONST'
CONST	ENDS
;	COMDAT ??_C@_04LOAJBDKD@true?$AA@
CONST	SEGMENT DWORD USE32 PUBLIC 'CONST'
CONST	ENDS
;	COMDAT ??_C@_0EN@CBMLGOH@D?3?2Program?5Files?5?$CIx86?$CJ?2Microsoft@
CONST	SEGMENT DWORD USE32 PUBLIC 'CONST'
CONST	ENDS
;	COMDAT ??_C@_01GFHCPBMG@C?$AA@
CONST	SEGMENT DWORD USE32 PUBLIC 'CONST'
CONST	ENDS
;	COMDAT ??_C@_02EAOCLKAK@ld?$AA@
CONST	SEGMENT DWORD USE32 PUBLIC 'CONST'
CONST	ENDS
;	COMDAT ??_C@_02BDDLJJBK@lu?$AA@
CONST	SEGMENT DWORD USE32 PUBLIC 'CONST'
CONST	ENDS
;	COMDAT ??_C@_02HIKPPMOK@Ld?$AA@
CONST	SEGMENT DWORD USE32 PUBLIC 'CONST'
CONST	ENDS
;	COMDAT ??_C@_02CLHGNPPK@Lu?$AA@
CONST	SEGMENT DWORD USE32 PUBLIC 'CONST'
CONST	ENDS
;	COMDAT ??_C@_02BBAHNLBA@?$CFp?$AA@
CONST	SEGMENT DWORD USE32 PUBLIC 'CONST'
CONST	ENDS
;	COMDAT ??_C@_0BH@HHDGIIFB@0123456789abcdefABCDEF?$AA@
CONST	SEGMENT DWORD USE32 PUBLIC 'CONST'
CONST	ENDS
;	COMDAT ??_C@_01DDCIFGEA@E?$AA@
CONST	SEGMENT DWORD USE32 PUBLIC 'CONST'
CONST	ENDS
;	COMDAT ??_C@_01KGKMHCOC@e?$AA@
CONST	SEGMENT DWORD USE32 PUBLIC 'CONST'
CONST	ENDS
;	COMDAT ??_C@_0EM@KKHJFHNK@D?3?2Program?5Files?5?$CIx86?$CJ?2Microsoft@
CONST	SEGMENT DWORD USE32 PUBLIC 'CONST'
CONST	ENDS
;	COMDAT ??_C@_08EPJLHIJG@bad?5cast?$AA@
CONST	SEGMENT DWORD USE32 PUBLIC 'CONST'
CONST	ENDS
;	COMDAT ??_C@_0EN@IBFBLEEG@D?3?2Program?5Files?5?$CIx86?$CJ?2Microsoft@
CONST	SEGMENT DWORD USE32 PUBLIC 'CONST'
CONST	ENDS
rdata$r	SEGMENT DWORD USE32 PUBLIC 'CONST'
rdata$r	ENDS
xdata$x	SEGMENT DWORD USE32 PUBLIC 'CONST'
xdata$x	ENDS
;	COMDAT _IsEqualGUID
_TEXT	SEGMENT PARA USE32 PUBLIC 'CODE'
_TEXT	ENDS
;	COMDAT _==
_TEXT	SEGMENT PARA USE32 PUBLIC 'CODE'
_TEXT	ENDS
;	COMDAT ??1bad_exception@std@@UAE@XZ
_TEXT	SEGMENT PARA USE32 PUBLIC 'CODE'
_TEXT	ENDS
;	COMDAT ??_Gbad_exception@std@@UAEPAXI@Z
_TEXT	SEGMENT PARA USE32 PUBLIC 'CODE'
_TEXT	ENDS
;	COMDAT ??1bad_alloc@std@@UAE@XZ
_TEXT	SEGMENT PARA USE32 PUBLIC 'CODE'
_TEXT	ENDS
;	COMDAT ??_Gbad_alloc@std@@UAEPAXI@Z
_TEXT	SEGMENT PARA USE32 PUBLIC 'CODE'
_TEXT	ENDS
;	COMDAT _wmemchr
_TEXT	SEGMENT PARA USE32 PUBLIC 'CODE'
_TEXT	ENDS
;	COMDAT _wmemcmp
_TEXT	SEGMENT PARA USE32 PUBLIC 'CODE'
_TEXT	ENDS
;	COMDAT _wmemcpy
_TEXT	SEGMENT PARA USE32 PUBLIC 'CODE'
_TEXT	ENDS
;	COMDAT _wmemmove
_TEXT	SEGMENT PARA USE32 PUBLIC 'CODE'
_TEXT	ENDS
;	COMDAT _wmemset
_TEXT	SEGMENT PARA USE32 PUBLIC 'CODE'
_TEXT	ENDS
;	COMDAT ??0logic_error@std@@QAE@ABV?$basic_string@DU?$char_traits@D@std@@V?$allocator@D@2@@1@@Z
_TEXT	SEGMENT PARA USE32 PUBLIC 'CODE'
_TEXT	ENDS
;	COMDAT ??1logic_error@std@@UAE@XZ
_TEXT	SEGMENT PARA USE32 PUBLIC 'CODE'
_TEXT	ENDS
;	COMDAT ?what@logic_error@std@@UBEPBDXZ
_TEXT	SEGMENT PARA USE32 PUBLIC 'CODE'
_TEXT	ENDS
;	COMDAT ??_Glogic_error@std@@UAEPAXI@Z
_TEXT	SEGMENT PARA USE32 PUBLIC 'CODE'
_TEXT	ENDS
;	COMDAT ??1domain_error@std@@UAE@XZ
_TEXT	SEGMENT PARA USE32 PUBLIC 'CODE'
_TEXT	ENDS
;	COMDAT ??_Gdomain_error@std@@UAEPAXI@Z
_TEXT	SEGMENT PARA USE32 PUBLIC 'CODE'
_TEXT	ENDS
;	COMDAT ??1invalid_argument@std@@UAE@XZ
_TEXT	SEGMENT PARA USE32 PUBLIC 'CODE'
_TEXT	ENDS
;	COMDAT ??_Ginvalid_argument@std@@UAEPAXI@Z
_TEXT	SEGMENT PARA USE32 PUBLIC 'CODE'
_TEXT	ENDS
;	COMDAT ??1length_error@std@@UAE@XZ
_TEXT	SEGMENT PARA USE32 PUBLIC 'CODE'
_TEXT	ENDS
;	COMDAT ??_Glength_error@std@@UAEPAXI@Z
_TEXT	SEGMENT PARA USE32 PUBLIC 'CODE'
_TEXT	ENDS
;	COMDAT ??1out_of_range@std@@UAE@XZ
_TEXT	SEGMENT PARA USE32 PUBLIC 'CODE'
_TEXT	ENDS
;	COMDAT ??_Gout_of_range@std@@UAEPAXI@Z
_TEXT	SEGMENT PARA USE32 PUBLIC 'CODE'
_TEXT	ENDS
;	COMDAT ??0runtime_error@std@@QAE@ABV?$basic_string@DU?$char_traits@D@std@@V?$allocator@D@2@@1@@Z
_TEXT	SEGMENT PARA USE32 PUBLIC 'CODE'
_TEXT	ENDS
;	COMDAT ??1runtime_error@std@@UAE@XZ
_TEXT	SEGMENT PARA USE32 PUBLIC 'CODE'
_TEXT	ENDS
;	COMDAT ?what@runtime_error@std@@UBEPBDXZ
_TEXT	SEGMENT PARA USE32 PUBLIC 'CODE'
_TEXT	ENDS
;	COMDAT ??_Gruntime_error@std@@UAEPAXI@Z
_TEXT	SEGMENT PARA USE32 PUBLIC 'CODE'
_TEXT	ENDS
;	COMDAT ??1overflow_error@std@@UAE@XZ
_TEXT	SEGMENT PARA USE32 PUBLIC 'CODE'
_TEXT	ENDS
;	COMDAT ??_Goverflow_error@std@@UAEPAXI@Z
_TEXT	SEGMENT PARA USE32 PUBLIC 'CODE'
_TEXT	ENDS
;	COMDAT ??1underflow_error@std@@UAE@XZ
_TEXT	SEGMENT PARA USE32 PUBLIC 'CODE'
_TEXT	ENDS
;	COMDAT ??_Gunderflow_error@std@@UAEPAXI@Z
_TEXT	SEGMENT PARA USE32 PUBLIC 'CODE'
_TEXT	ENDS
;	COMDAT ??1range_error@std@@UAE@XZ
_TEXT	SEGMENT PARA USE32 PUBLIC 'CODE'
_TEXT	ENDS
;	COMDAT ??_Grange_error@std@@UAEPAXI@Z
_TEXT	SEGMENT PARA USE32 PUBLIC 'CODE'
_TEXT	ENDS
;	COMDAT ??B_DebugHeapString@std@@QBE?AV?$basic_string@DU?$char_traits@D@std@@V?$allocator@D@2@@1@XZ
_TEXT	SEGMENT PARA USE32 PUBLIC 'CODE'
_TEXT	ENDS
;	COMDAT ??$_Maklocbyte@_W@std@@YAD_WABU_Cvtvec@@@Z
_TEXT	SEGMENT PARA USE32 PUBLIC 'CODE'
_TEXT	ENDS
;	COMDAT ??$_Maklocchr@_W@std@@YA_WDPA_WABU_Cvtvec@@@Z
_TEXT	SEGMENT PARA USE32 PUBLIC 'CODE'
_TEXT	ENDS
;	COMDAT ??$_Maklocstr@_W@std@@YAPA_WPBDPA_WABU_Cvtvec@@@Z
_TEXT	SEGMENT PARA USE32 PUBLIC 'CODE'
_TEXT	ENDS
;	COMDAT ??_G?$codecvt@_WDH@std@@MAEPAXI@Z
_TEXT	SEGMENT PARA USE32 PUBLIC 'CODE'
_TEXT	ENDS
;	COMDAT ??_G?$ctype@D@std@@MAEPAXI@Z
_TEXT	SEGMENT PARA USE32 PUBLIC 'CODE'
_TEXT	ENDS
;	COMDAT ??_G?$ctype@_W@std@@MAEPAXI@Z
_TEXT	SEGMENT PARA USE32 PUBLIC 'CODE'
_TEXT	ENDS
;	COMDAT ??1failure@ios_base@std@@UAE@XZ
_TEXT	SEGMENT PARA USE32 PUBLIC 'CODE'
_TEXT	ENDS
;	COMDAT ??_Gfailure@ios_base@std@@UAEPAXI@Z
_TEXT	SEGMENT PARA USE32 PUBLIC 'CODE'
_TEXT	ENDS
;	COMDAT ??1sentry@?$basic_istream@DU?$char_traits@D@std@@@std@@QAE@XZ
_TEXT	SEGMENT PARA USE32 PUBLIC 'CODE'
_TEXT	ENDS
;	COMDAT ??1sentry@?$basic_istream@_WU?$char_traits@_W@std@@@std@@QAE@XZ
_TEXT	SEGMENT PARA USE32 PUBLIC 'CODE'
_TEXT	ENDS
;	COMDAT ??0?$allocator@D@std@@QAE@XZ
_TEXT	SEGMENT PARA USE32 PUBLIC 'CODE'
_TEXT	ENDS
;	COMDAT ??0?$allocator@D@std@@QAE@ABV01@@Z
_TEXT	SEGMENT PARA USE32 PUBLIC 'CODE'
_TEXT	ENDS
;	COMDAT ??0?$allocator@_W@std@@QAE@XZ
_TEXT	SEGMENT PARA USE32 PUBLIC 'CODE'
_TEXT	ENDS
;	COMDAT ??0?$allocator@_W@std@@QAE@ABV01@@Z
_TEXT	SEGMENT PARA USE32 PUBLIC 'CODE'
_TEXT	ENDS
;	COMDAT ??0?$basic_string@DU?$char_traits@D@std@@V?$_DebugHeapAllocator@D@2@@std@@QAE@XZ
_TEXT	SEGMENT PARA USE32 PUBLIC 'CODE'
_TEXT	ENDS
;	COMDAT ??0?$basic_string@DU?$char_traits@D@std@@V?$_DebugHeapAllocator@D@2@@std@@QAE@ABV01@@Z
_TEXT	SEGMENT PARA USE32 PUBLIC 'CODE'
_TEXT	ENDS
;	COMDAT ??0?$basic_string@DU?$char_traits@D@std@@V?$_DebugHeapAllocator@D@2@@std@@QAE@PBD@Z
_TEXT	SEGMENT PARA USE32 PUBLIC 'CODE'
_TEXT	ENDS
;	COMDAT ??1?$basic_string@DU?$char_traits@D@std@@V?$_DebugHeapAllocator@D@2@@std@@QAE@XZ
_TEXT	SEGMENT PARA USE32 PUBLIC 'CODE'
_TEXT	ENDS
;	COMDAT ?c_str@?$basic_string@DU?$char_traits@D@std@@V?$_DebugHeapAllocator@D@2@@std@@QBEPBDXZ
_TEXT	SEGMENT PARA USE32 PUBLIC 'CODE'
_TEXT	ENDS
;	COMDAT ??0sentry@?$basic_istream@DU?$char_traits@D@std@@@std@@QAE@AAV12@_N@Z
_TEXT	SEGMENT PARA USE32 PUBLIC 'CODE'
_TEXT	ENDS
;	COMDAT ??Bsentry@?$basic_istream@DU?$char_traits@D@std@@@std@@QBE_NXZ
_TEXT	SEGMENT PARA USE32 PUBLIC 'CODE'
_TEXT	ENDS
;	COMDAT ??1_Sentry_base@?$basic_istream@DU?$char_traits@D@std@@@std@@QAE@XZ
_TEXT	SEGMENT PARA USE32 PUBLIC 'CODE'
_TEXT	ENDS
;	COMDAT ??0sentry@?$basic_istream@_WU?$char_traits@_W@std@@@std@@QAE@AAV12@_N@Z
_TEXT	SEGMENT PARA USE32 PUBLIC 'CODE'
_TEXT	ENDS
;	COMDAT ??Bsentry@?$basic_istream@_WU?$char_traits@_W@std@@@std@@QBE_NXZ
_TEXT	SEGMENT PARA USE32 PUBLIC 'CODE'
_TEXT	ENDS
;	COMDAT ??1_Sentry_base@?$basic_istream@_WU?$char_traits@_W@std@@@std@@QAE@XZ
_TEXT	SEGMENT PARA USE32 PUBLIC 'CODE'
_TEXT	ENDS
;	COMDAT ??0?$_DebugHeapAllocator@D@std@@QAE@XZ
_TEXT	SEGMENT PARA USE32 PUBLIC 'CODE'
_TEXT	ENDS
;	COMDAT ??0?$_DebugHeapAllocator@D@std@@QAE@ABV01@@Z
_TEXT	SEGMENT PARA USE32 PUBLIC 'CODE'
_TEXT	ENDS
;	COMDAT ??_G?$numpunct@D@std@@MAEPAXI@Z
_TEXT	SEGMENT PARA USE32 PUBLIC 'CODE'
_TEXT	ENDS
;	COMDAT ??_G?$numpunct@_W@std@@MAEPAXI@Z
_TEXT	SEGMENT PARA USE32 PUBLIC 'CODE'
_TEXT	ENDS
;	COMDAT ?assign@?$basic_string@DU?$char_traits@D@std@@V?$_DebugHeapAllocator@D@2@@std@@QAEAAV12@ABV12@II@Z
_TEXT	SEGMENT PARA USE32 PUBLIC 'CODE'
_TEXT	ENDS
;	COMDAT ?assign@?$basic_string@DU?$char_traits@D@std@@V?$_DebugHeapAllocator@D@2@@std@@QAEAAV12@PBD@Z
_TEXT	SEGMENT PARA USE32 PUBLIC 'CODE'
_TEXT	ENDS
;	COMDAT ?_Tidy@?$basic_string@DU?$char_traits@D@std@@V?$_DebugHeapAllocator@D@2@@std@@IAEX_NI@Z
_TEXT	SEGMENT PARA USE32 PUBLIC 'CODE'
_TEXT	ENDS
;	COMDAT ?_Myptr@?$basic_string@DU?$char_traits@D@std@@V?$_DebugHeapAllocator@D@2@@std@@QBEPBDXZ
_TEXT	SEGMENT PARA USE32 PUBLIC 'CODE'
_TEXT	ENDS
;	COMDAT ??0?$_String_val@DV?$_DebugHeapAllocator@D@std@@@std@@IAE@V?$_DebugHeapAllocator@D@1@@Z
_TEXT	SEGMENT PARA USE32 PUBLIC 'CODE'
_TEXT	ENDS
;	COMDAT ??0_Sentry_base@?$basic_istream@DU?$char_traits@D@std@@@std@@QAE@AAV12@@Z
_TEXT	SEGMENT PARA USE32 PUBLIC 'CODE'
_TEXT	ENDS
;	COMDAT ??0_Sentry_base@?$basic_istream@_WU?$char_traits@_W@std@@@std@@QAE@AAV12@@Z
_TEXT	SEGMENT PARA USE32 PUBLIC 'CODE'
_TEXT	ENDS
;	COMDAT ??0?$fpos@H@std@@QAE@J@Z
_TEXT	SEGMENT PARA USE32 PUBLIC 'CODE'
_TEXT	ENDS
;	COMDAT ??0sentry@?$basic_ostream@DU?$char_traits@D@std@@@std@@QAE@AAV12@@Z
_TEXT	SEGMENT PARA USE32 PUBLIC 'CODE'
_TEXT	ENDS
;	COMDAT ??1sentry@?$basic_ostream@DU?$char_traits@D@std@@@std@@QAE@XZ
_TEXT	SEGMENT PARA USE32 PUBLIC 'CODE'
_TEXT	ENDS
;	COMDAT ??Bsentry@?$basic_ostream@DU?$char_traits@D@std@@@std@@QBE_NXZ
_TEXT	SEGMENT PARA USE32 PUBLIC 'CODE'
_TEXT	ENDS
;	COMDAT ??0sentry@?$basic_ostream@_WU?$char_traits@_W@std@@@std@@QAE@AAV12@@Z
_TEXT	SEGMENT PARA USE32 PUBLIC 'CODE'
_TEXT	ENDS
;	COMDAT ??1sentry@?$basic_ostream@_WU?$char_traits@_W@std@@@std@@QAE@XZ
_TEXT	SEGMENT PARA USE32 PUBLIC 'CODE'
_TEXT	ENDS
;	COMDAT ??Bsentry@?$basic_ostream@_WU?$char_traits@_W@std@@@std@@QBE_NXZ
_TEXT	SEGMENT PARA USE32 PUBLIC 'CODE'
_TEXT	ENDS
;	COMDAT ?deallocate@?$allocator@D@std@@QAEXPADI@Z
_TEXT	SEGMENT PARA USE32 PUBLIC 'CODE'
_TEXT	ENDS
;	COMDAT ?assign@?$basic_string@DU?$char_traits@D@std@@V?$_DebugHeapAllocator@D@2@@std@@QAEAAV12@PBDI@Z
_TEXT	SEGMENT PARA USE32 PUBLIC 'CODE'
_TEXT	ENDS
;	COMDAT ?erase@?$basic_string@DU?$char_traits@D@std@@V?$_DebugHeapAllocator@D@2@@std@@QAEAAV12@II@Z
_TEXT	SEGMENT PARA USE32 PUBLIC 'CODE'
_TEXT	ENDS
;	COMDAT ?size@?$basic_string@DU?$char_traits@D@std@@V?$_DebugHeapAllocator@D@2@@std@@QBEIXZ
_TEXT	SEGMENT PARA USE32 PUBLIC 'CODE'
_TEXT	ENDS
;	COMDAT ?_Eos@?$basic_string@DU?$char_traits@D@std@@V?$_DebugHeapAllocator@D@2@@std@@IAEXI@Z
_TEXT	SEGMENT PARA USE32 PUBLIC 'CODE'
_TEXT	ENDS
;	COMDAT ?_Grow@?$basic_string@DU?$char_traits@D@std@@V?$_DebugHeapAllocator@D@2@@std@@IAE_NI_N@Z
_TEXT	SEGMENT PARA USE32 PUBLIC 'CODE'
_TEXT	ENDS
;	COMDAT ?_Myptr@?$basic_string@DU?$char_traits@D@std@@V?$_DebugHeapAllocator@D@2@@std@@QAEPADXZ
_TEXT	SEGMENT PARA USE32 PUBLIC 'CODE'
_TEXT	ENDS
;	COMDAT ?deallocate@?$_DebugHeapAllocator@D@std@@QAEXPADI@Z
_TEXT	SEGMENT PARA USE32 PUBLIC 'CODE'
_TEXT	ENDS
;	COMDAT ??D?$istreambuf_iterator@DU?$char_traits@D@std@@@std@@QBEDXZ
_TEXT	SEGMENT PARA USE32 PUBLIC 'CODE'
_TEXT	ENDS
;	COMDAT ??E?$istreambuf_iterator@DU?$char_traits@D@std@@@std@@QAEAAV01@XZ
_TEXT	SEGMENT PARA USE32 PUBLIC 'CODE'
_TEXT	ENDS
;	COMDAT ??4?$ostreambuf_iterator@DU?$char_traits@D@std@@@std@@QAEAAV01@D@Z
_TEXT	SEGMENT PARA USE32 PUBLIC 'CODE'
_TEXT	ENDS
;	COMDAT ??D?$ostreambuf_iterator@DU?$char_traits@D@std@@@std@@QAEAAV01@XZ
_TEXT	SEGMENT PARA USE32 PUBLIC 'CODE'
_TEXT	ENDS
;	COMDAT ??E?$ostreambuf_iterator@DU?$char_traits@D@std@@@std@@QAEAAV01@XZ
_TEXT	SEGMENT PARA USE32 PUBLIC 'CODE'
_TEXT	ENDS
;	COMDAT ??D?$istreambuf_iterator@_WU?$char_traits@_W@std@@@std@@QBE_WXZ
_TEXT	SEGMENT PARA USE32 PUBLIC 'CODE'
_TEXT	ENDS
;	COMDAT ??E?$istreambuf_iterator@_WU?$char_traits@_W@std@@@std@@QAEAAV01@XZ
_TEXT	SEGMENT PARA USE32 PUBLIC 'CODE'
_TEXT	ENDS
;	COMDAT ??4?$ostreambuf_iterator@_WU?$char_traits@_W@std@@@std@@QAEAAV01@_W@Z
_TEXT	SEGMENT PARA USE32 PUBLIC 'CODE'
_TEXT	ENDS
;	COMDAT ??D?$ostreambuf_iterator@_WU?$char_traits@_W@std@@@std@@QAEAAV01@XZ
_TEXT	SEGMENT PARA USE32 PUBLIC 'CODE'
_TEXT	ENDS
;	COMDAT ??E?$ostreambuf_iterator@_WU?$char_traits@_W@std@@@std@@QAEAAV01@XZ
_TEXT	SEGMENT PARA USE32 PUBLIC 'CODE'
_TEXT	ENDS
;	COMDAT ??0_Sentry_base@?$basic_ostream@DU?$char_traits@D@std@@@std@@QAE@AAV12@@Z
_TEXT	SEGMENT PARA USE32 PUBLIC 'CODE'
_TEXT	ENDS
;	COMDAT ??1_Sentry_base@?$basic_ostream@DU?$char_traits@D@std@@@std@@QAE@XZ
_TEXT	SEGMENT PARA USE32 PUBLIC 'CODE'
_TEXT	ENDS
;	COMDAT ??0_Sentry_base@?$basic_ostream@_WU?$char_traits@_W@std@@@std@@QAE@AAV12@@Z
_TEXT	SEGMENT PARA USE32 PUBLIC 'CODE'
_TEXT	ENDS
;	COMDAT ??1_Sentry_base@?$basic_ostream@_WU?$char_traits@_W@std@@@std@@QAE@XZ
_TEXT	SEGMENT PARA USE32 PUBLIC 'CODE'
_TEXT	ENDS
;	COMDAT ?deallocate@?$allocator@_W@std@@QAEXPA_WI@Z
_TEXT	SEGMENT PARA USE32 PUBLIC 'CODE'
_TEXT	ENDS
;	COMDAT ?max_size@?$basic_string@DU?$char_traits@D@std@@V?$_DebugHeapAllocator@D@2@@std@@QBEIXZ
_TEXT	SEGMENT PARA USE32 PUBLIC 'CODE'
_TEXT	ENDS
;	COMDAT ?_Copy@?$basic_string@DU?$char_traits@D@std@@V?$_DebugHeapAllocator@D@2@@std@@IAEXII@Z
_TEXT	SEGMENT PARA USE32 PUBLIC 'CODE'
_TEXT	ENDS
;	COMDAT ?_Inside@?$basic_string@DU?$char_traits@D@std@@V?$_DebugHeapAllocator@D@2@@std@@IAE_NPBD@Z
_TEXT	SEGMENT PARA USE32 PUBLIC 'CODE'
_TEXT	ENDS
;	COMDAT ?_Inc@?$istreambuf_iterator@DU?$char_traits@D@std@@@std@@AAEXXZ
_TEXT	SEGMENT PARA USE32 PUBLIC 'CODE'
_TEXT	ENDS
;	COMDAT ?_Peek@?$istreambuf_iterator@DU?$char_traits@D@std@@@std@@AAEDXZ
_TEXT	SEGMENT PARA USE32 PUBLIC 'CODE'
_TEXT	ENDS
;	COMDAT ?_Inc@?$istreambuf_iterator@_WU?$char_traits@_W@std@@@std@@AAEXXZ
_TEXT	SEGMENT PARA USE32 PUBLIC 'CODE'
_TEXT	ENDS
;	COMDAT ?_Peek@?$istreambuf_iterator@_WU?$char_traits@_W@std@@@std@@AAE_WXZ
_TEXT	SEGMENT PARA USE32 PUBLIC 'CODE'
_TEXT	ENDS
;	COMDAT ?allocate@?$allocator@D@std@@QAEPADI@Z
_TEXT	SEGMENT PARA USE32 PUBLIC 'CODE'
_TEXT	ENDS
;	COMDAT ?max_size@?$allocator@D@std@@QBEIXZ
_TEXT	SEGMENT PARA USE32 PUBLIC 'CODE'
_TEXT	ENDS
;	COMDAT ?allocate@?$_DebugHeapAllocator@D@std@@QAEPADI@Z
_TEXT	SEGMENT PARA USE32 PUBLIC 'CODE'
_TEXT	ENDS
;	COMDAT ?allocate@?$allocator@_W@std@@QAEPA_WI@Z
_TEXT	SEGMENT PARA USE32 PUBLIC 'CODE'
_TEXT	ENDS
;	COMDAT ?max_size@?$allocator@_W@std@@QBEIXZ
_TEXT	SEGMENT PARA USE32 PUBLIC 'CODE'
_TEXT	ENDS
;	COMDAT ??$_DebugHeapDelete@Vfacet@locale@std@@@std@@YAXPAVfacet@locale@0@@Z
_TEXT	SEGMENT PARA USE32 PUBLIC 'CODE'
_TEXT	ENDS
;	COMDAT ??$use_facet@V?$ctype@D@std@@@std@@YAABV?$ctype@D@0@ABVlocale@0@@Z
_TEXT	SEGMENT PARA USE32 PUBLIC 'CODE'
_TEXT	ENDS
;	COMDAT ??$use_facet@V?$ctype@_W@std@@@std@@YAABV?$ctype@_W@0@ABVlocale@0@@Z
_TEXT	SEGMENT PARA USE32 PUBLIC 'CODE'
_TEXT	ENDS
;	COMDAT ??$?HDU?$char_traits@D@std@@V?$allocator@D@1@@std@@YA?AV?$basic_string@DU?$char_traits@D@std@@V?$allocator@D@2@@0@ABV10@0@Z
_TEXT	SEGMENT PARA USE32 PUBLIC 'CODE'
_TEXT	ENDS
;	COMDAT ??$?HDU?$char_traits@D@std@@V?$allocator@D@1@@std@@YA?AV?$basic_string@DU?$char_traits@D@std@@V?$allocator@D@2@@0@PBDABV10@@Z
_TEXT	SEGMENT PARA USE32 PUBLIC 'CODE'
_TEXT	ENDS
;	COMDAT ??$?HDU?$char_traits@D@std@@V?$allocator@D@1@@std@@YA?AV?$basic_string@DU?$char_traits@D@std@@V?$allocator@D@2@@0@DABV10@@Z
_TEXT	SEGMENT PARA USE32 PUBLIC 'CODE'
_TEXT	ENDS
;	COMDAT ??$?HDU?$char_traits@D@std@@V?$allocator@D@1@@std@@YA?AV?$basic_string@DU?$char_traits@D@std@@V?$allocator@D@2@@0@ABV10@PBD@Z
_TEXT	SEGMENT PARA USE32 PUBLIC 'CODE'
_TEXT	ENDS
;	COMDAT ??$?HDU?$char_traits@D@std@@V?$allocator@D@1@@std@@YA?AV?$basic_string@DU?$char_traits@D@std@@V?$allocator@D@2@@0@ABV10@D@Z
_TEXT	SEGMENT PARA USE32 PUBLIC 'CODE'
_TEXT	ENDS
;	COMDAT ??$?H_WU?$char_traits@_W@std@@V?$allocator@_W@1@@std@@YA?AV?$basic_string@_WU?$char_traits@_W@std@@V?$allocator@_W@2@@0@ABV10@0@Z
_TEXT	SEGMENT PARA USE32 PUBLIC 'CODE'
_TEXT	ENDS
;	COMDAT ??$?H_WU?$char_traits@_W@std@@V?$allocator@_W@1@@std@@YA?AV?$basic_string@_WU?$char_traits@_W@std@@V?$allocator@_W@2@@0@PB_WABV10@@Z
_TEXT	SEGMENT PARA USE32 PUBLIC 'CODE'
_TEXT	ENDS
;	COMDAT ??$?H_WU?$char_traits@_W@std@@V?$allocator@_W@1@@std@@YA?AV?$basic_string@_WU?$char_traits@_W@std@@V?$allocator@_W@2@@0@_WABV10@@Z
_TEXT	SEGMENT PARA USE32 PUBLIC 'CODE'
_TEXT	ENDS
;	COMDAT ??$?H_WU?$char_traits@_W@std@@V?$allocator@_W@1@@std@@YA?AV?$basic_string@_WU?$char_traits@_W@std@@V?$allocator@_W@2@@0@ABV10@PB_W@Z
_TEXT	SEGMENT PARA USE32 PUBLIC 'CODE'
_TEXT	ENDS
;	COMDAT ??$?H_WU?$char_traits@_W@std@@V?$allocator@_W@1@@std@@YA?AV?$basic_string@_WU?$char_traits@_W@std@@V?$allocator@_W@2@@0@ABV10@_W@Z
_TEXT	SEGMENT PARA USE32 PUBLIC 'CODE'
_TEXT	ENDS
;	COMDAT ??$?5DU?$char_traits@D@std@@V?$allocator@D@1@@std@@YAAAV?$basic_istream@DU?$char_traits@D@std@@@0@AAV10@AAV?$basic_string@DU?$char_traits@D@std@@V?$allocator@D@2@@0@@Z
_TEXT	SEGMENT PARA USE32 PUBLIC 'CODE'
_TEXT	ENDS
;	COMDAT ??$getline@DU?$char_traits@D@std@@V?$allocator@D@2@@std@@YAAAV?$basic_istream@DU?$char_traits@D@std@@@0@AAV10@AAV?$basic_string@DU?$char_traits@D@std@@V?$allocator@D@2@@0@@Z
_TEXT	SEGMENT PARA USE32 PUBLIC 'CODE'
_TEXT	ENDS
;	COMDAT ??$getline@DU?$char_traits@D@std@@V?$allocator@D@2@@std@@YAAAV?$basic_istream@DU?$char_traits@D@std@@@0@AAV10@AAV?$basic_string@DU?$char_traits@D@std@@V?$allocator@D@2@@0@D@Z
_TEXT	SEGMENT PARA USE32 PUBLIC 'CODE'
_TEXT	ENDS
;	COMDAT ??$?6DU?$char_traits@D@std@@V?$allocator@D@1@@std@@YAAAV?$basic_ostream@DU?$char_traits@D@std@@@0@AAV10@ABV?$basic_string@DU?$char_traits@D@std@@V?$allocator@D@2@@0@@Z
_TEXT	SEGMENT PARA USE32 PUBLIC 'CODE'
_TEXT	ENDS
;	COMDAT ??$?5_WU?$char_traits@_W@std@@V?$allocator@_W@1@@std@@YAAAV?$basic_istream@_WU?$char_traits@_W@std@@@0@AAV10@AAV?$basic_string@_WU?$char_traits@_W@std@@V?$allocator@_W@2@@0@@Z
_TEXT	SEGMENT PARA USE32 PUBLIC 'CODE'
_TEXT	ENDS
;	COMDAT ??$getline@_WU?$char_traits@_W@std@@V?$allocator@_W@2@@std@@YAAAV?$basic_istream@_WU?$char_traits@_W@std@@@0@AAV10@AAV?$basic_string@_WU?$char_traits@_W@std@@V?$allocator@_W@2@@0@@Z
_TEXT	SEGMENT PARA USE32 PUBLIC 'CODE'
_TEXT	ENDS
;	COMDAT ??$getline@_WU?$char_traits@_W@std@@V?$allocator@_W@2@@std@@YAAAV?$basic_istream@_WU?$char_traits@_W@std@@@0@AAV10@AAV?$basic_string@_WU?$char_traits@_W@std@@V?$allocator@_W@2@@0@_W@Z
_TEXT	SEGMENT PARA USE32 PUBLIC 'CODE'
_TEXT	ENDS
;	COMDAT ??$?6_WU?$char_traits@_W@std@@V?$allocator@_W@1@@std@@YAAAV?$basic_ostream@_WU?$char_traits@_W@std@@@0@AAV10@ABV?$basic_string@_WU?$char_traits@_W@std@@V?$allocator@_W@2@@0@@Z
_TEXT	SEGMENT PARA USE32 PUBLIC 'CODE'
_TEXT	ENDS
;	COMDAT ??$_DebugHeapDelete@Vlocale@std@@@std@@YAXPAVlocale@0@@Z
_TEXT	SEGMENT PARA USE32 PUBLIC 'CODE'
_TEXT	ENDS
;	COMDAT ??$use_facet@V?$numpunct@D@std@@@std@@YAABV?$numpunct@D@0@ABVlocale@0@@Z
_TEXT	SEGMENT PARA USE32 PUBLIC 'CODE'
_TEXT	ENDS
;	COMDAT ??$_Getloctxt@DV?$istreambuf_iterator@DU?$char_traits@D@std@@@std@@@std@@YAHAAV?$istreambuf_iterator@DU?$char_traits@D@std@@@0@0IPBD@Z
_TEXT	SEGMENT PARA USE32 PUBLIC 'CODE'
_TEXT	ENDS
;	COMDAT ??$?8DU?$char_traits@D@std@@@std@@YA_NABV?$istreambuf_iterator@DU?$char_traits@D@std@@@0@0@Z
_TEXT	SEGMENT PARA USE32 PUBLIC 'CODE'
_TEXT	ENDS
;	COMDAT ??$use_facet@V?$numpunct@_W@std@@@std@@YAABV?$numpunct@_W@0@ABVlocale@0@@Z
_TEXT	SEGMENT PARA USE32 PUBLIC 'CODE'
_TEXT	ENDS
;	COMDAT ??$_Getloctxt@_WV?$istreambuf_iterator@_WU?$char_traits@_W@std@@@std@@@std@@YAHAAV?$istreambuf_iterator@_WU?$char_traits@_W@std@@@0@0IPB_W@Z
_TEXT	SEGMENT PARA USE32 PUBLIC 'CODE'
_TEXT	ENDS
;	COMDAT ??$?8_WU?$char_traits@_W@std@@@std@@YA_NABV?$istreambuf_iterator@_WU?$char_traits@_W@std@@@0@0@Z
_TEXT	SEGMENT PARA USE32 PUBLIC 'CODE'
_TEXT	ENDS
;	COMDAT ??$_DebugHeapDelete@X@std@@YAXPAX@Z
_TEXT	SEGMENT PARA USE32 PUBLIC 'CODE'
_TEXT	ENDS
;	COMDAT ??$_Maklocchr@D@std@@YADDPADABU_Cvtvec@@@Z
_TEXT	SEGMENT PARA USE32 PUBLIC 'CODE'
_TEXT	ENDS
;	COMDAT ??$?9DU?$char_traits@D@std@@@std@@YA_NABV?$istreambuf_iterator@DU?$char_traits@D@std@@@0@0@Z
_TEXT	SEGMENT PARA USE32 PUBLIC 'CODE'
_TEXT	ENDS
;	COMDAT ??$_Maklocbyte@D@std@@YADDABU_Cvtvec@@@Z
_TEXT	SEGMENT PARA USE32 PUBLIC 'CODE'
_TEXT	ENDS
;	COMDAT ??$?9_WU?$char_traits@_W@std@@@std@@YA_NABV?$istreambuf_iterator@_WU?$char_traits@_W@std@@@0@0@Z
_TEXT	SEGMENT PARA USE32 PUBLIC 'CODE'
_TEXT	ENDS
;	COMDAT ??$_Allocate@D@std@@YAPADIPAD@Z
_TEXT	SEGMENT PARA USE32 PUBLIC 'CODE'
_TEXT	ENDS
;	COMDAT ??$_Allocate@_W@std@@YAPA_WIPA_W@Z
_TEXT	SEGMENT PARA USE32 PUBLIC 'CODE'
_TEXT	ENDS
;	COMDAT ??_Glocale@std@@QAEPAXI@Z
_TEXT	SEGMENT PARA USE32 PUBLIC 'CODE'
_TEXT	ENDS
;	COMDAT ?equal@?$istreambuf_iterator@DU?$char_traits@D@std@@@std@@QBE_NABV12@@Z
_TEXT	SEGMENT PARA USE32 PUBLIC 'CODE'
_TEXT	ENDS
;	COMDAT ?equal@?$istreambuf_iterator@_WU?$char_traits@_W@std@@@std@@QBE_NABV12@@Z
_TEXT	SEGMENT PARA USE32 PUBLIC 'CODE'
_TEXT	ENDS
;	COMDAT ??$_Maklocstr@D@std@@YAPADPBDPADABU_Cvtvec@@@Z
_TEXT	SEGMENT PARA USE32 PUBLIC 'CODE'
_TEXT	ENDS
;	COMDAT ??_R4out_of_range@std@@6B@
rdata$r	SEGMENT DWORD USE32 PUBLIC 'CONST'
rdata$r	ENDS
;	COMDAT ??_R0?AVout_of_range@std@@@8
_DATA	SEGMENT DWORD USE32 PUBLIC 'DATA'
_DATA	ENDS
;	COMDAT ??_R3?$ctype@D@std@@8
rdata$r	SEGMENT DWORD USE32 PUBLIC 'CONST'
rdata$r	ENDS
;	COMDAT ??_R1A@?0A@A@overflow_error@std@@8
rdata$r	SEGMENT DWORD USE32 PUBLIC 'CONST'
rdata$r	ENDS
;	COMDAT ??_R1A@?0A@A@out_of_range@std@@8
rdata$r	SEGMENT DWORD USE32 PUBLIC 'CONST'
rdata$r	ENDS
;	COMDAT ??_R1A@?0A@A@?$numpunct@D@std@@8
rdata$r	SEGMENT DWORD USE32 PUBLIC 'CONST'
rdata$r	ENDS
;	COMDAT ??_R2domain_error@std@@8
rdata$r	SEGMENT DWORD USE32 PUBLIC 'CONST'
rdata$r	ENDS
;	COMDAT ??_R1A@?0A@A@facet@locale@std@@8
rdata$r	SEGMENT DWORD USE32 PUBLIC 'CONST'
rdata$r	ENDS
;	COMDAT ??_R0?AVdomain_error@std@@@8
_DATA	SEGMENT DWORD USE32 PUBLIC 'DATA'
_DATA	ENDS
;	COMDAT ??_R3underflow_error@std@@8
rdata$r	SEGMENT DWORD USE32 PUBLIC 'CONST'
rdata$r	ENDS
;	COMDAT ??_R0?AV?$numpunct@_W@std@@@8
_DATA	SEGMENT DWORD USE32 PUBLIC 'DATA'
_DATA	ENDS
;	COMDAT ??_R0?AVrange_error@std@@@8
_DATA	SEGMENT DWORD USE32 PUBLIC 'DATA'
_DATA	ENDS
;	COMDAT ??_R2?$numpunct@D@std@@8
rdata$r	SEGMENT DWORD USE32 PUBLIC 'CONST'
rdata$r	ENDS
;	COMDAT ??_R1A@?0A@A@codecvt_base@std@@8
rdata$r	SEGMENT DWORD USE32 PUBLIC 'CONST'
rdata$r	ENDS
;	COMDAT ??_R2length_error@std@@8
rdata$r	SEGMENT DWORD USE32 PUBLIC 'CONST'
rdata$r	ENDS
;	COMDAT ??_R2runtime_error@std@@8
rdata$r	SEGMENT DWORD USE32 PUBLIC 'CONST'
rdata$r	ENDS
;	COMDAT ??_R2failure@ios_base@std@@8
rdata$r	SEGMENT DWORD USE32 PUBLIC 'CONST'
rdata$r	ENDS
;	COMDAT ??_R1A@?0A@A@bad_alloc@std@@8
rdata$r	SEGMENT DWORD USE32 PUBLIC 'CONST'
rdata$r	ENDS
;	COMDAT ??_R4?$numpunct@D@std@@6B@
rdata$r	SEGMENT DWORD USE32 PUBLIC 'CONST'
rdata$r	ENDS
;	COMDAT ??_R0?AVcodecvt_base@std@@@8
_DATA	SEGMENT DWORD USE32 PUBLIC 'DATA'
_DATA	ENDS
;	COMDAT ??_R2bad_alloc@std@@8
rdata$r	SEGMENT DWORD USE32 PUBLIC 'CONST'
rdata$r	ENDS
;	COMDAT ??_R2?$ctype@_W@std@@8
rdata$r	SEGMENT DWORD USE32 PUBLIC 'CONST'
rdata$r	ENDS
;	COMDAT ??_R0?AV?$codecvt@_WDH@std@@@8
_DATA	SEGMENT DWORD USE32 PUBLIC 'DATA'
_DATA	ENDS
;	COMDAT ??_R1A@?0A@A@exception@@8
rdata$r	SEGMENT DWORD USE32 PUBLIC 'CONST'
rdata$r	ENDS
;	COMDAT __CT??_R0?AVexception@@@8??0exception@@QAE@ABV0@@Z12
xdata$x	SEGMENT DWORD USE32 PUBLIC 'CONST'
xdata$x	ENDS
;	COMDAT ??_R1A@?0A@A@?$codecvt@_WDH@std@@8
rdata$r	SEGMENT DWORD USE32 PUBLIC 'CONST'
rdata$r	ENDS
;	COMDAT ??_R4underflow_error@std@@6B@
rdata$r	SEGMENT DWORD USE32 PUBLIC 'CONST'
rdata$r	ENDS
;	COMDAT ??_R2overflow_error@std@@8
rdata$r	SEGMENT DWORD USE32 PUBLIC 'CONST'
rdata$r	ENDS
;	COMDAT ??_R4length_error@std@@6B@
rdata$r	SEGMENT DWORD USE32 PUBLIC 'CONST'
rdata$r	ENDS
;	COMDAT ??_R1A@?0A@A@range_error@std@@8
rdata$r	SEGMENT DWORD USE32 PUBLIC 'CONST'
rdata$r	ENDS
;	COMDAT ??_R4?$ctype@D@std@@6B@
rdata$r	SEGMENT DWORD USE32 PUBLIC 'CONST'
rdata$r	ENDS
;	COMDAT ??_R0?AV?$ctype@_W@std@@@8
_DATA	SEGMENT DWORD USE32 PUBLIC 'DATA'
_DATA	ENDS
;	COMDAT ??_R3invalid_argument@std@@8
rdata$r	SEGMENT DWORD USE32 PUBLIC 'CONST'
rdata$r	ENDS
;	COMDAT ??_R0?AVfailure@ios_base@std@@@8
_DATA	SEGMENT DWORD USE32 PUBLIC 'DATA'
_DATA	ENDS
;	COMDAT ??_R3overflow_error@std@@8
rdata$r	SEGMENT DWORD USE32 PUBLIC 'CONST'
rdata$r	ENDS
;	COMDAT ??_R2out_of_range@std@@8
rdata$r	SEGMENT DWORD USE32 PUBLIC 'CONST'
rdata$r	ENDS
;	COMDAT ??_R0?AVruntime_error@std@@@8
_DATA	SEGMENT DWORD USE32 PUBLIC 'DATA'
_DATA	ENDS
;	COMDAT ??_R4overflow_error@std@@6B@
rdata$r	SEGMENT DWORD USE32 PUBLIC 'CONST'
rdata$r	ENDS
;	COMDAT __TI2?AVbad_cast@@
xdata$x	SEGMENT DWORD USE32 PUBLIC 'CONST'
xdata$x	ENDS
;	COMDAT ??_R0?AVunderflow_error@std@@@8
_DATA	SEGMENT DWORD USE32 PUBLIC 'DATA'
_DATA	ENDS
;	COMDAT ??_R3runtime_error@std@@8
rdata$r	SEGMENT DWORD USE32 PUBLIC 'CONST'
rdata$r	ENDS
;	COMDAT ??_R0?AV?$ctype@D@std@@@8
_DATA	SEGMENT DWORD USE32 PUBLIC 'DATA'
_DATA	ENDS
;	COMDAT ??_R4domain_error@std@@6B@
rdata$r	SEGMENT DWORD USE32 PUBLIC 'CONST'
rdata$r	ENDS
;	COMDAT ??_R3bad_exception@std@@8
rdata$r	SEGMENT DWORD USE32 PUBLIC 'CONST'
rdata$r	ENDS
;	COMDAT ??_R1A@?0A@A@?$numpunct@_W@std@@8
rdata$r	SEGMENT DWORD USE32 PUBLIC 'CONST'
rdata$r	ENDS
;	COMDAT ??_R2range_error@std@@8
rdata$r	SEGMENT DWORD USE32 PUBLIC 'CONST'
rdata$r	ENDS
;	COMDAT ??_R0?AVexception@@@8
_DATA	SEGMENT DWORD USE32 PUBLIC 'DATA'
_DATA	ENDS
;	COMDAT ??_R1A@?0A@A@?$ctype@D@std@@8
rdata$r	SEGMENT DWORD USE32 PUBLIC 'CONST'
rdata$r	ENDS
;	COMDAT __CT??_R0?AVbad_cast@@@8??0bad_cast@@QAE@ABV0@@Z12
xdata$x	SEGMENT DWORD USE32 PUBLIC 'CONST'
xdata$x	ENDS
;	COMDAT ??_R3?$ctype@_W@std@@8
rdata$r	SEGMENT DWORD USE32 PUBLIC 'CONST'
rdata$r	ENDS
;	COMDAT ??_R3bad_alloc@std@@8
rdata$r	SEGMENT DWORD USE32 PUBLIC 'CONST'
rdata$r	ENDS
;	COMDAT ??_R3domain_error@std@@8
rdata$r	SEGMENT DWORD USE32 PUBLIC 'CONST'
rdata$r	ENDS
;	COMDAT ??_R0?AVbad_exception@std@@@8
_DATA	SEGMENT DWORD USE32 PUBLIC 'DATA'
_DATA	ENDS
;	COMDAT ??_R2bad_exception@std@@8
rdata$r	SEGMENT DWORD USE32 PUBLIC 'CONST'
rdata$r	ENDS
;	COMDAT ??_R0?AV?$numpunct@D@std@@@8
_DATA	SEGMENT DWORD USE32 PUBLIC 'DATA'
_DATA	ENDS
;	COMDAT ??_R0?AVbad_alloc@std@@@8
_DATA	SEGMENT DWORD USE32 PUBLIC 'DATA'
_DATA	ENDS
;	COMDAT ??_R4invalid_argument@std@@6B@
rdata$r	SEGMENT DWORD USE32 PUBLIC 'CONST'
rdata$r	ENDS
;	COMDAT ??_R4?$codecvt@_WDH@std@@6B@
rdata$r	SEGMENT DWORD USE32 PUBLIC 'CONST'
rdata$r	ENDS
;	COMDAT ??_R4range_error@std@@6B@
rdata$r	SEGMENT DWORD USE32 PUBLIC 'CONST'
rdata$r	ENDS
;	COMDAT ??_R3?$codecvt@_WDH@std@@8
rdata$r	SEGMENT DWORD USE32 PUBLIC 'CONST'
rdata$r	ENDS
;	COMDAT ??_R1A@?0A@A@logic_error@std@@8
rdata$r	SEGMENT DWORD USE32 PUBLIC 'CONST'
rdata$r	ENDS
;	COMDAT __CTA2?AVbad_cast@@
xdata$x	SEGMENT DWORD USE32 PUBLIC 'CONST'
xdata$x	ENDS
;	COMDAT ??_R4logic_error@std@@6B@
rdata$r	SEGMENT DWORD USE32 PUBLIC 'CONST'
rdata$r	ENDS
;	COMDAT ??_R0?AVlength_error@std@@@8
_DATA	SEGMENT DWORD USE32 PUBLIC 'DATA'
_DATA	ENDS
;	COMDAT ??_R3out_of_range@std@@8
rdata$r	SEGMENT DWORD USE32 PUBLIC 'CONST'
rdata$r	ENDS
;	COMDAT ??_R2?$numpunct@_W@std@@8
rdata$r	SEGMENT DWORD USE32 PUBLIC 'CONST'
rdata$r	ENDS
;	COMDAT ??_R0?AVbad_cast@@@8
_DATA	SEGMENT DWORD USE32 PUBLIC 'DATA'
_DATA	ENDS
;	COMDAT ??_R1A@?0A@A@runtime_error@std@@8
rdata$r	SEGMENT DWORD USE32 PUBLIC 'CONST'
rdata$r	ENDS
;	COMDAT ??_R1A@?0A@A@invalid_argument@std@@8
rdata$r	SEGMENT DWORD USE32 PUBLIC 'CONST'
rdata$r	ENDS
;	COMDAT ??_R1A@?0A@A@ctype_base@std@@8
rdata$r	SEGMENT DWORD USE32 PUBLIC 'CONST'
rdata$r	ENDS
;	COMDAT ??_R2logic_error@std@@8
rdata$r	SEGMENT DWORD USE32 PUBLIC 'CONST'
rdata$r	ENDS
;	COMDAT ??_R1A@?0A@A@failure@ios_base@std@@8
rdata$r	SEGMENT DWORD USE32 PUBLIC 'CONST'
rdata$r	ENDS
;	COMDAT ??_R3logic_error@std@@8
rdata$r	SEGMENT DWORD USE32 PUBLIC 'CONST'
rdata$r	ENDS
;	COMDAT ??_R0?AVlogic_error@std@@@8
_DATA	SEGMENT DWORD USE32 PUBLIC 'DATA'
_DATA	ENDS
;	COMDAT ??_R4?$ctype@_W@std@@6B@
rdata$r	SEGMENT DWORD USE32 PUBLIC 'CONST'
rdata$r	ENDS
;	COMDAT ??_R3length_error@std@@8
rdata$r	SEGMENT DWORD USE32 PUBLIC 'CONST'
rdata$r	ENDS
;	COMDAT ??_R4bad_exception@std@@6B@
rdata$r	SEGMENT DWORD USE32 PUBLIC 'CONST'
rdata$r	ENDS
;	COMDAT ??_R1A@?0A@A@underflow_error@std@@8
rdata$r	SEGMENT DWORD USE32 PUBLIC 'CONST'
rdata$r	ENDS
;	COMDAT ??_R3failure@ios_base@std@@8
rdata$r	SEGMENT DWORD USE32 PUBLIC 'CONST'
rdata$r	ENDS
;	COMDAT ??_R1A@?0A@A@?$ctype@_W@std@@8
rdata$r	SEGMENT DWORD USE32 PUBLIC 'CONST'
rdata$r	ENDS
;	COMDAT ??_R4bad_alloc@std@@6B@
rdata$r	SEGMENT DWORD USE32 PUBLIC 'CONST'
rdata$r	ENDS
;	COMDAT ??_R1A@?0A@A@bad_exception@std@@8
rdata$r	SEGMENT DWORD USE32 PUBLIC 'CONST'
rdata$r	ENDS
;	COMDAT ??_R2underflow_error@std@@8
rdata$r	SEGMENT DWORD USE32 PUBLIC 'CONST'
rdata$r	ENDS
;	COMDAT ??_R0?AUctype_base@std@@@8
_DATA	SEGMENT DWORD USE32 PUBLIC 'DATA'
_DATA	ENDS
;	COMDAT ??_R4failure@ios_base@std@@6B@
rdata$r	SEGMENT DWORD USE32 PUBLIC 'CONST'
rdata$r	ENDS
;	COMDAT ??_R2?$ctype@D@std@@8
rdata$r	SEGMENT DWORD USE32 PUBLIC 'CONST'
rdata$r	ENDS
;	COMDAT ??_R4?$numpunct@_W@std@@6B@
rdata$r	SEGMENT DWORD USE32 PUBLIC 'CONST'
rdata$r	ENDS
;	COMDAT ??_R3range_error@std@@8
rdata$r	SEGMENT DWORD USE32 PUBLIC 'CONST'
rdata$r	ENDS
;	COMDAT ??_R3?$numpunct@D@std@@8
rdata$r	SEGMENT DWORD USE32 PUBLIC 'CONST'
rdata$r	ENDS
;	COMDAT ??_R0?AVfacet@locale@std@@@8
_DATA	SEGMENT DWORD USE32 PUBLIC 'DATA'
_DATA	ENDS
;	COMDAT ?binary@?$_Iosb@H@std@@2W4_Openmode@12@B
CONST	SEGMENT DWORD USE32 PUBLIC 'CONST'
CONST	ENDS
;	COMDAT ?_Hardfail@?$_Iosb@H@std@@2W4_Iostate@12@B
CONST	SEGMENT DWORD USE32 PUBLIC 'CONST'
CONST	ENDS
;	COMDAT ?eofbit@?$_Iosb@H@std@@2W4_Iostate@12@B
CONST	SEGMENT DWORD USE32 PUBLIC 'CONST'
CONST	ENDS
;	COMDAT ??_7invalid_argument@std@@6B@
CONST	SEGMENT DWORD USE32 PUBLIC 'CONST'
CONST	ENDS
;	COMDAT ?app@?$_Iosb@H@std@@2W4_Openmode@12@B
CONST	SEGMENT DWORD USE32 PUBLIC 'CONST'
CONST	ENDS
;	COMDAT ?uppercase@?$_Iosb@H@std@@2W4_Fmtflags@12@B
CONST	SEGMENT DWORD USE32 PUBLIC 'CONST'
CONST	ENDS
;	COMDAT ??_S?$numpunct@_W@std@@6B@
CONST	SEGMENT DWORD USE32 PUBLIC 'CONST'
CONST	ENDS
;	COMDAT ??_7out_of_range@std@@6B@
CONST	SEGMENT DWORD USE32 PUBLIC 'CONST'
CONST	ENDS
;	COMDAT ?trunc@?$_Iosb@H@std@@2W4_Openmode@12@B
CONST	SEGMENT DWORD USE32 PUBLIC 'CONST'
CONST	ENDS
;	COMDAT ??_S?$ctype@_W@std@@6B@
CONST	SEGMENT DWORD USE32 PUBLIC 'CONST'
CONST	ENDS
;	COMDAT ??_S?$numpunct@D@std@@6B@
CONST	SEGMENT DWORD USE32 PUBLIC 'CONST'
CONST	ENDS
;	COMDAT ?skipws@?$_Iosb@H@std@@2W4_Fmtflags@12@B
CONST	SEGMENT DWORD USE32 PUBLIC 'CONST'
CONST	ENDS
;	COMDAT ?basefield@?$_Iosb@H@std@@2W4_Fmtflags@12@B
CONST	SEGMENT DWORD USE32 PUBLIC 'CONST'
CONST	ENDS
;	COMDAT ??_7bad_alloc@std@@6B@
CONST	SEGMENT DWORD USE32 PUBLIC 'CONST'
CONST	ENDS
;	COMDAT ?_Stdio@?$_Iosb@H@std@@2W4_Fmtflags@12@B
CONST	SEGMENT DWORD USE32 PUBLIC 'CONST'
CONST	ENDS
;	COMDAT ?left@?$_Iosb@H@std@@2W4_Fmtflags@12@B
CONST	SEGMENT DWORD USE32 PUBLIC 'CONST'
CONST	ENDS
;	COMDAT ??_7runtime_error@std@@6B@
CONST	SEGMENT DWORD USE32 PUBLIC 'CONST'
CONST	ENDS
;	COMDAT ?showpos@?$_Iosb@H@std@@2W4_Fmtflags@12@B
CONST	SEGMENT DWORD USE32 PUBLIC 'CONST'
CONST	ENDS
;	COMDAT ?_Psave@?$_Facetptr@V?$ctype@D@std@@@std@@2PBVfacet@locale@2@B
_DATA	SEGMENT DWORD USE32 PUBLIC 'DATA'
_DATA	ENDS
;	COMDAT ?adjustfield@?$_Iosb@H@std@@2W4_Fmtflags@12@B
CONST	SEGMENT DWORD USE32 PUBLIC 'CONST'
CONST	ENDS
;	COMDAT ??_S?$ctype@D@std@@6B@
CONST	SEGMENT DWORD USE32 PUBLIC 'CONST'
CONST	ENDS
;	COMDAT ?badbit@?$_Iosb@H@std@@2W4_Iostate@12@B
CONST	SEGMENT DWORD USE32 PUBLIC 'CONST'
CONST	ENDS
;	COMDAT ?in@?$_Iosb@H@std@@2W4_Openmode@12@B
CONST	SEGMENT DWORD USE32 PUBLIC 'CONST'
CONST	ENDS
;	COMDAT ??_7underflow_error@std@@6B@
CONST	SEGMENT DWORD USE32 PUBLIC 'CONST'
CONST	ENDS
;	COMDAT ??_7overflow_error@std@@6B@
CONST	SEGMENT DWORD USE32 PUBLIC 'CONST'
CONST	ENDS
;	COMDAT ?_Psave@?$_Facetptr@V?$ctype@_W@std@@@std@@2PBVfacet@locale@2@B
_DATA	SEGMENT DWORD USE32 PUBLIC 'DATA'
_DATA	ENDS
;	COMDAT ?oct@?$_Iosb@H@std@@2W4_Fmtflags@12@B
CONST	SEGMENT DWORD USE32 PUBLIC 'CONST'
CONST	ENDS
;	COMDAT ?hex@?$_Iosb@H@std@@2W4_Fmtflags@12@B
CONST	SEGMENT DWORD USE32 PUBLIC 'CONST'
CONST	ENDS
;	COMDAT ?showbase@?$_Iosb@H@std@@2W4_Fmtflags@12@B
CONST	SEGMENT DWORD USE32 PUBLIC 'CONST'
CONST	ENDS
;	COMDAT ?showpoint@?$_Iosb@H@std@@2W4_Fmtflags@12@B
CONST	SEGMENT DWORD USE32 PUBLIC 'CONST'
CONST	ENDS
;	COMDAT ?collate@?$_Locbase@H@std@@2HB
CONST	SEGMENT DWORD USE32 PUBLIC 'CONST'
CONST	ENDS
;	COMDAT ??_7length_error@std@@6B@
CONST	SEGMENT DWORD USE32 PUBLIC 'CONST'
CONST	ENDS
;	COMDAT ?beg@?$_Iosb@H@std@@2W4_Seekdir@12@B
CONST	SEGMENT DWORD USE32 PUBLIC 'CONST'
CONST	ENDS
;	COMDAT ?failbit@?$_Iosb@H@std@@2W4_Iostate@12@B
CONST	SEGMENT DWORD USE32 PUBLIC 'CONST'
CONST	ENDS
;	COMDAT ?unitbuf@?$_Iosb@H@std@@2W4_Fmtflags@12@B
CONST	SEGMENT DWORD USE32 PUBLIC 'CONST'
CONST	ENDS
;	COMDAT ?right@?$_Iosb@H@std@@2W4_Fmtflags@12@B
CONST	SEGMENT DWORD USE32 PUBLIC 'CONST'
CONST	ENDS
;	COMDAT ?_Stz@?$fpos@H@std@@0HA
_BSS	SEGMENT DWORD USE32 PUBLIC 'BSS'
_BSS	ENDS
;	COMDAT ?ctype@?$_Locbase@H@std@@2HB
CONST	SEGMENT DWORD USE32 PUBLIC 'CONST'
CONST	ENDS
;	COMDAT ?out@?$_Iosb@H@std@@2W4_Openmode@12@B
CONST	SEGMENT DWORD USE32 PUBLIC 'CONST'
CONST	ENDS
;	COMDAT ?_Psave@?$_Facetptr@V?$numpunct@D@std@@@std@@2PBVfacet@locale@2@B
_DATA	SEGMENT DWORD USE32 PUBLIC 'DATA'
_DATA	ENDS
;	COMDAT ?internal@?$_Iosb@H@std@@2W4_Fmtflags@12@B
CONST	SEGMENT DWORD USE32 PUBLIC 'CONST'
CONST	ENDS
;	COMDAT ??_S?$codecvt@_WDH@std@@6B@
CONST	SEGMENT DWORD USE32 PUBLIC 'CONST'
CONST	ENDS
;	COMDAT ?goodbit@?$_Iosb@H@std@@2W4_Iostate@12@B
CONST	SEGMENT DWORD USE32 PUBLIC 'CONST'
CONST	ENDS
;	COMDAT ?npos@?$basic_string@DU?$char_traits@D@std@@V?$_DebugHeapAllocator@D@2@@std@@2IB
CONST	SEGMENT DWORD USE32 PUBLIC 'CONST'
CONST	ENDS
;	COMDAT ??_7bad_exception@std@@6B@
CONST	SEGMENT DWORD USE32 PUBLIC 'CONST'
CONST	ENDS
;	COMDAT ?boolalpha@?$_Iosb@H@std@@2W4_Fmtflags@12@B
CONST	SEGMENT DWORD USE32 PUBLIC 'CONST'
CONST	ENDS
;	COMDAT ?ate@?$_Iosb@H@std@@2W4_Openmode@12@B
CONST	SEGMENT DWORD USE32 PUBLIC 'CONST'
CONST	ENDS
;	COMDAT ?all@?$_Locbase@H@std@@2HB
CONST	SEGMENT DWORD USE32 PUBLIC 'CONST'
CONST	ENDS
;	COMDAT ?numeric@?$_Locbase@H@std@@2HB
CONST	SEGMENT DWORD USE32 PUBLIC 'CONST'
CONST	ENDS
;	COMDAT ?end@?$_Iosb@H@std@@2W4_Seekdir@12@B
CONST	SEGMENT DWORD USE32 PUBLIC 'CONST'
CONST	ENDS
;	COMDAT ?_Noreplace@?$_Iosb@H@std@@2W4_Openmode@12@B
CONST	SEGMENT DWORD USE32 PUBLIC 'CONST'
CONST	ENDS
;	COMDAT ??_7failure@ios_base@std@@6B@
CONST	SEGMENT DWORD USE32 PUBLIC 'CONST'
CONST	ENDS
;	COMDAT ?cur@?$_Iosb@H@std@@2W4_Seekdir@12@B
CONST	SEGMENT DWORD USE32 PUBLIC 'CONST'
CONST	ENDS
;	COMDAT ??_7range_error@std@@6B@
CONST	SEGMENT DWORD USE32 PUBLIC 'CONST'
CONST	ENDS
;	COMDAT ??_7logic_error@std@@6B@
CONST	SEGMENT DWORD USE32 PUBLIC 'CONST'
CONST	ENDS
;	COMDAT ?time@?$_Locbase@H@std@@2HB
CONST	SEGMENT DWORD USE32 PUBLIC 'CONST'
CONST	ENDS
;	COMDAT ?messages@?$_Locbase@H@std@@2HB
CONST	SEGMENT DWORD USE32 PUBLIC 'CONST'
CONST	ENDS
;	COMDAT ??_7domain_error@std@@6B@
CONST	SEGMENT DWORD USE32 PUBLIC 'CONST'
CONST	ENDS
;	COMDAT ?fixed@?$_Iosb@H@std@@2W4_Fmtflags@12@B
CONST	SEGMENT DWORD USE32 PUBLIC 'CONST'
CONST	ENDS
;	COMDAT ?none@?$_Locbase@H@std@@2HB
CONST	SEGMENT DWORD USE32 PUBLIC 'CONST'
CONST	ENDS
;	COMDAT ?floatfield@?$_Iosb@H@std@@2W4_Fmtflags@12@B
CONST	SEGMENT DWORD USE32 PUBLIC 'CONST'
CONST	ENDS
;	COMDAT ?_Nocreate@?$_Iosb@H@std@@2W4_Openmode@12@B
CONST	SEGMENT DWORD USE32 PUBLIC 'CONST'
CONST	ENDS
;	COMDAT ?scientific@?$_Iosb@H@std@@2W4_Fmtflags@12@B
CONST	SEGMENT DWORD USE32 PUBLIC 'CONST'
CONST	ENDS
;	COMDAT ?monetary@?$_Locbase@H@std@@2HB
CONST	SEGMENT DWORD USE32 PUBLIC 'CONST'
CONST	ENDS
;	COMDAT ?_Psave@?$_Facetptr@V?$numpunct@_W@std@@@std@@2PBVfacet@locale@2@B
_DATA	SEGMENT DWORD USE32 PUBLIC 'DATA'
_DATA	ENDS
;	COMDAT ?dec@?$_Iosb@H@std@@2W4_Fmtflags@12@B
CONST	SEGMENT DWORD USE32 PUBLIC 'CONST'
CONST	ENDS
;	COMDAT ??_R2invalid_argument@std@@8
rdata$r	SEGMENT DWORD USE32 PUBLIC 'CONST'
rdata$r	ENDS
;	COMDAT ??_R2?$codecvt@_WDH@std@@8
rdata$r	SEGMENT DWORD USE32 PUBLIC 'CONST'
rdata$r	ENDS
;	COMDAT ??_R1A@?0A@A@length_error@std@@8
rdata$r	SEGMENT DWORD USE32 PUBLIC 'CONST'
rdata$r	ENDS
;	COMDAT ??_R3?$numpunct@_W@std@@8
rdata$r	SEGMENT DWORD USE32 PUBLIC 'CONST'
rdata$r	ENDS
;	COMDAT ??_R4runtime_error@std@@6B@
rdata$r	SEGMENT DWORD USE32 PUBLIC 'CONST'
rdata$r	ENDS
;	COMDAT ??_R0?AVinvalid_argument@std@@@8
_DATA	SEGMENT DWORD USE32 PUBLIC 'DATA'
_DATA	ENDS
;	COMDAT ??_R1A@?0A@A@domain_error@std@@8
rdata$r	SEGMENT DWORD USE32 PUBLIC 'CONST'
rdata$r	ENDS
;	COMDAT ??_R0?AVoverflow_error@std@@@8
_DATA	SEGMENT DWORD USE32 PUBLIC 'DATA'
_DATA	ENDS
sxdata	SEGMENT DWORD USE32 'SXDATA'
sxdata	ENDS
FLAT	GROUP _DATA, CONST, _BSS
	ASSUME	CS: FLAT, DS: FLAT, SS: FLAT
endif

INCLUDELIB MSVCRTD
INCLUDELIB OLDNAMES

PUBLIC	?skipws@?$_Iosb@H@std@@2W4_Fmtflags@12@B	; std::_Iosb<int>::skipws
PUBLIC	?unitbuf@?$_Iosb@H@std@@2W4_Fmtflags@12@B	; std::_Iosb<int>::unitbuf
PUBLIC	?uppercase@?$_Iosb@H@std@@2W4_Fmtflags@12@B	; std::_Iosb<int>::uppercase
PUBLIC	?showbase@?$_Iosb@H@std@@2W4_Fmtflags@12@B	; std::_Iosb<int>::showbase
PUBLIC	?showpoint@?$_Iosb@H@std@@2W4_Fmtflags@12@B	; std::_Iosb<int>::showpoint
PUBLIC	?showpos@?$_Iosb@H@std@@2W4_Fmtflags@12@B	; std::_Iosb<int>::showpos
PUBLIC	?left@?$_Iosb@H@std@@2W4_Fmtflags@12@B		; std::_Iosb<int>::left
PUBLIC	?right@?$_Iosb@H@std@@2W4_Fmtflags@12@B		; std::_Iosb<int>::right
PUBLIC	?internal@?$_Iosb@H@std@@2W4_Fmtflags@12@B	; std::_Iosb<int>::internal
PUBLIC	?dec@?$_Iosb@H@std@@2W4_Fmtflags@12@B		; std::_Iosb<int>::dec
PUBLIC	?oct@?$_Iosb@H@std@@2W4_Fmtflags@12@B		; std::_Iosb<int>::oct
PUBLIC	?hex@?$_Iosb@H@std@@2W4_Fmtflags@12@B		; std::_Iosb<int>::hex
PUBLIC	?scientific@?$_Iosb@H@std@@2W4_Fmtflags@12@B	; std::_Iosb<int>::scientific
PUBLIC	?fixed@?$_Iosb@H@std@@2W4_Fmtflags@12@B		; std::_Iosb<int>::fixed
PUBLIC	?boolalpha@?$_Iosb@H@std@@2W4_Fmtflags@12@B	; std::_Iosb<int>::boolalpha
PUBLIC	?_Stdio@?$_Iosb@H@std@@2W4_Fmtflags@12@B	; std::_Iosb<int>::_Stdio
PUBLIC	?adjustfield@?$_Iosb@H@std@@2W4_Fmtflags@12@B	; std::_Iosb<int>::adjustfield
PUBLIC	?basefield@?$_Iosb@H@std@@2W4_Fmtflags@12@B	; std::_Iosb<int>::basefield
PUBLIC	?floatfield@?$_Iosb@H@std@@2W4_Fmtflags@12@B	; std::_Iosb<int>::floatfield
PUBLIC	?goodbit@?$_Iosb@H@std@@2W4_Iostate@12@B	; std::_Iosb<int>::goodbit
PUBLIC	?eofbit@?$_Iosb@H@std@@2W4_Iostate@12@B		; std::_Iosb<int>::eofbit
PUBLIC	?failbit@?$_Iosb@H@std@@2W4_Iostate@12@B	; std::_Iosb<int>::failbit
PUBLIC	?badbit@?$_Iosb@H@std@@2W4_Iostate@12@B		; std::_Iosb<int>::badbit
PUBLIC	?_Hardfail@?$_Iosb@H@std@@2W4_Iostate@12@B	; std::_Iosb<int>::_Hardfail
PUBLIC	?in@?$_Iosb@H@std@@2W4_Openmode@12@B		; std::_Iosb<int>::in
PUBLIC	?out@?$_Iosb@H@std@@2W4_Openmode@12@B		; std::_Iosb<int>::out
PUBLIC	?ate@?$_Iosb@H@std@@2W4_Openmode@12@B		; std::_Iosb<int>::ate
PUBLIC	?app@?$_Iosb@H@std@@2W4_Openmode@12@B		; std::_Iosb<int>::app
PUBLIC	?trunc@?$_Iosb@H@std@@2W4_Openmode@12@B		; std::_Iosb<int>::trunc
PUBLIC	?_Nocreate@?$_Iosb@H@std@@2W4_Openmode@12@B	; std::_Iosb<int>::_Nocreate
PUBLIC	?_Noreplace@?$_Iosb@H@std@@2W4_Openmode@12@B	; std::_Iosb<int>::_Noreplace
PUBLIC	?binary@?$_Iosb@H@std@@2W4_Openmode@12@B	; std::_Iosb<int>::binary
PUBLIC	?beg@?$_Iosb@H@std@@2W4_Seekdir@12@B		; std::_Iosb<int>::beg
PUBLIC	?cur@?$_Iosb@H@std@@2W4_Seekdir@12@B		; std::_Iosb<int>::cur
PUBLIC	?end@?$_Iosb@H@std@@2W4_Seekdir@12@B		; std::_Iosb<int>::end
PUBLIC	?collate@?$_Locbase@H@std@@2HB			; std::_Locbase<int>::collate
PUBLIC	?ctype@?$_Locbase@H@std@@2HB			; std::_Locbase<int>::ctype
PUBLIC	?monetary@?$_Locbase@H@std@@2HB			; std::_Locbase<int>::monetary
PUBLIC	?numeric@?$_Locbase@H@std@@2HB			; std::_Locbase<int>::numeric
PUBLIC	?time@?$_Locbase@H@std@@2HB			; std::_Locbase<int>::time
PUBLIC	?messages@?$_Locbase@H@std@@2HB			; std::_Locbase<int>::messages
PUBLIC	?all@?$_Locbase@H@std@@2HB			; std::_Locbase<int>::all
PUBLIC	?none@?$_Locbase@H@std@@2HB			; std::_Locbase<int>::none
CONST	SEGMENT
$SG55238 DB	'YPLAYBOX', 00H
CONST	ENDS
_DATA	SEGMENT
_g_szSoftName DD FLAT:$SG55238
_DATA	ENDS
CONST	SEGMENT
	ORG $+3
$SG55240 DB	'SOFTWARE\YPLAYBOX', 00H
CONST	ENDS
_DATA	SEGMENT
_STR_REG_SOFT DD FLAT:$SG55240
_DATA	ENDS
CONST	SEGMENT
	ORG $+2
$SG55242 DB	'S', 00H, 'O', 00H, 'F', 00H, 'T', 00H, 'W', 00H, 'A', 00H
	DB	'R', 00H, 'E', 00H, '\', 00H, 'Y', 00H, 'P', 00H, 'L', 00H, 'A'
	DB	00H, 'Y', 00H, 'B', 00H, 'O', 00H, 'X', 00H, 00H, 00H
CONST	ENDS
_DATA	SEGMENT
_STR_WCHAR_REG_SOFT DD FLAT:$SG55242
_DATA	ENDS
CONST	SEGMENT
$SG55244 DB	'SOFTWARE\YPLAYBOX\LOGMSG', 00H
CONST	ENDS
_DATA	SEGMENT
_STR_REG_SOFT_MSG DD FLAT:$SG55244
_DATA	ENDS
CONST	SEGMENT
	ORG $+3
$SG55246 DB	'SOFTWARE\YPLAYBOX\UPDATE', 00H
CONST	ENDS
_DATA	SEGMENT
_STR_REG_UPDATE DD FLAT:$SG55246
_DATA	ENDS
CONST	SEGMENT
	ORG $+3
$SG55248 DB	'SOFTWARE\YPLAYBOX\BHO', 00H
CONST	ENDS
_DATA	SEGMENT
_STR_REG_BHO DD	FLAT:$SG55248
_DATA	ENDS
CONST	SEGMENT
	ORG $+2
$SG55250 DB	'path', 00H
CONST	ENDS
_DATA	SEGMENT
_STR_SOFT_HOME_KEY DD FLAT:$SG55250
_DATA	ENDS
;	COMDAT ?collate@?$_Locbase@H@std@@2HB
CONST	SEGMENT
?collate@?$_Locbase@H@std@@2HB DD 01H			; std::_Locbase<int>::collate
CONST	ENDS
;	COMDAT ?ctype@?$_Locbase@H@std@@2HB
CONST	SEGMENT
?ctype@?$_Locbase@H@std@@2HB DD 02H			; std::_Locbase<int>::ctype
CONST	ENDS
;	COMDAT ?monetary@?$_Locbase@H@std@@2HB
CONST	SEGMENT
?monetary@?$_Locbase@H@std@@2HB DD 04H			; std::_Locbase<int>::monetary
CONST	ENDS
;	COMDAT ?numeric@?$_Locbase@H@std@@2HB
CONST	SEGMENT
?numeric@?$_Locbase@H@std@@2HB DD 08H			; std::_Locbase<int>::numeric
CONST	ENDS
;	COMDAT ?time@?$_Locbase@H@std@@2HB
CONST	SEGMENT
?time@?$_Locbase@H@std@@2HB DD 010H			; std::_Locbase<int>::time
CONST	ENDS
;	COMDAT ?messages@?$_Locbase@H@std@@2HB
CONST	SEGMENT
?messages@?$_Locbase@H@std@@2HB DD 020H			; std::_Locbase<int>::messages
CONST	ENDS
;	COMDAT ?all@?$_Locbase@H@std@@2HB
CONST	SEGMENT
?all@?$_Locbase@H@std@@2HB DD 03fH			; std::_Locbase<int>::all
CONST	ENDS
;	COMDAT ?none@?$_Locbase@H@std@@2HB
CONST	SEGMENT
?none@?$_Locbase@H@std@@2HB DD 00H			; std::_Locbase<int>::none
CONST	ENDS
;	COMDAT ?skipws@?$_Iosb@H@std@@2W4_Fmtflags@12@B
CONST	SEGMENT
?skipws@?$_Iosb@H@std@@2W4_Fmtflags@12@B DD 01H		; std::_Iosb<int>::skipws
CONST	ENDS
;	COMDAT ?unitbuf@?$_Iosb@H@std@@2W4_Fmtflags@12@B
CONST	SEGMENT
?unitbuf@?$_Iosb@H@std@@2W4_Fmtflags@12@B DD 02H	; std::_Iosb<int>::unitbuf
CONST	ENDS
;	COMDAT ?uppercase@?$_Iosb@H@std@@2W4_Fmtflags@12@B
CONST	SEGMENT
?uppercase@?$_Iosb@H@std@@2W4_Fmtflags@12@B DD 04H	; std::_Iosb<int>::uppercase
CONST	ENDS
;	COMDAT ?showbase@?$_Iosb@H@std@@2W4_Fmtflags@12@B
CONST	SEGMENT
?showbase@?$_Iosb@H@std@@2W4_Fmtflags@12@B DD 08H	; std::_Iosb<int>::showbase
CONST	ENDS
;	COMDAT ?showpoint@?$_Iosb@H@std@@2W4_Fmtflags@12@B
CONST	SEGMENT
?showpoint@?$_Iosb@H@std@@2W4_Fmtflags@12@B DD 010H	; std::_Iosb<int>::showpoint
CONST	ENDS
;	COMDAT ?showpos@?$_Iosb@H@std@@2W4_Fmtflags@12@B
CONST	SEGMENT
?showpos@?$_Iosb@H@std@@2W4_Fmtflags@12@B DD 020H	; std::_Iosb<int>::showpos
CONST	ENDS
;	COMDAT ?left@?$_Iosb@H@std@@2W4_Fmtflags@12@B
CONST	SEGMENT
?left@?$_Iosb@H@std@@2W4_Fmtflags@12@B DD 040H		; std::_Iosb<int>::left
CONST	ENDS
;	COMDAT ?right@?$_Iosb@H@std@@2W4_Fmtflags@12@B
CONST	SEGMENT
?right@?$_Iosb@H@std@@2W4_Fmtflags@12@B DD 080H		; std::_Iosb<int>::right
CONST	ENDS
;	COMDAT ?internal@?$_Iosb@H@std@@2W4_Fmtflags@12@B
CONST	SEGMENT
?internal@?$_Iosb@H@std@@2W4_Fmtflags@12@B DD 0100H	; std::_Iosb<int>::internal
CONST	ENDS
;	COMDAT ?dec@?$_Iosb@H@std@@2W4_Fmtflags@12@B
CONST	SEGMENT
?dec@?$_Iosb@H@std@@2W4_Fmtflags@12@B DD 0200H		; std::_Iosb<int>::dec
CONST	ENDS
;	COMDAT ?oct@?$_Iosb@H@std@@2W4_Fmtflags@12@B
CONST	SEGMENT
?oct@?$_Iosb@H@std@@2W4_Fmtflags@12@B DD 0400H		; std::_Iosb<int>::oct
CONST	ENDS
;	COMDAT ?hex@?$_Iosb@H@std@@2W4_Fmtflags@12@B
CONST	SEGMENT
?hex@?$_Iosb@H@std@@2W4_Fmtflags@12@B DD 0800H		; std::_Iosb<int>::hex
CONST	ENDS
;	COMDAT ?scientific@?$_Iosb@H@std@@2W4_Fmtflags@12@B
CONST	SEGMENT
?scientific@?$_Iosb@H@std@@2W4_Fmtflags@12@B DD 01000H	; std::_Iosb<int>::scientific
CONST	ENDS
;	COMDAT ?fixed@?$_Iosb@H@std@@2W4_Fmtflags@12@B
CONST	SEGMENT
?fixed@?$_Iosb@H@std@@2W4_Fmtflags@12@B DD 02000H	; std::_Iosb<int>::fixed
CONST	ENDS
;	COMDAT ?boolalpha@?$_Iosb@H@std@@2W4_Fmtflags@12@B
CONST	SEGMENT
?boolalpha@?$_Iosb@H@std@@2W4_Fmtflags@12@B DD 04000H	; std::_Iosb<int>::boolalpha
CONST	ENDS
;	COMDAT ?_Stdio@?$_Iosb@H@std@@2W4_Fmtflags@12@B
CONST	SEGMENT
?_Stdio@?$_Iosb@H@std@@2W4_Fmtflags@12@B DD 08000H	; std::_Iosb<int>::_Stdio
CONST	ENDS
;	COMDAT ?adjustfield@?$_Iosb@H@std@@2W4_Fmtflags@12@B
CONST	SEGMENT
?adjustfield@?$_Iosb@H@std@@2W4_Fmtflags@12@B DD 01c0H	; std::_Iosb<int>::adjustfield
CONST	ENDS
;	COMDAT ?basefield@?$_Iosb@H@std@@2W4_Fmtflags@12@B
CONST	SEGMENT
?basefield@?$_Iosb@H@std@@2W4_Fmtflags@12@B DD 0e00H	; std::_Iosb<int>::basefield
CONST	ENDS
;	COMDAT ?floatfield@?$_Iosb@H@std@@2W4_Fmtflags@12@B
CONST	SEGMENT
?floatfield@?$_Iosb@H@std@@2W4_Fmtflags@12@B DD 03000H	; std::_Iosb<int>::floatfield
CONST	ENDS
;	COMDAT ?goodbit@?$_Iosb@H@std@@2W4_Iostate@12@B
CONST	SEGMENT
?goodbit@?$_Iosb@H@std@@2W4_Iostate@12@B DD 00H		; std::_Iosb<int>::goodbit
CONST	ENDS
;	COMDAT ?eofbit@?$_Iosb@H@std@@2W4_Iostate@12@B
CONST	SEGMENT
?eofbit@?$_Iosb@H@std@@2W4_Iostate@12@B DD 01H		; std::_Iosb<int>::eofbit
CONST	ENDS
;	COMDAT ?failbit@?$_Iosb@H@std@@2W4_Iostate@12@B
CONST	SEGMENT
?failbit@?$_Iosb@H@std@@2W4_Iostate@12@B DD 02H		; std::_Iosb<int>::failbit
CONST	ENDS
;	COMDAT ?badbit@?$_Iosb@H@std@@2W4_Iostate@12@B
CONST	SEGMENT
?badbit@?$_Iosb@H@std@@2W4_Iostate@12@B DD 04H		; std::_Iosb<int>::badbit
CONST	ENDS
;	COMDAT ?_Hardfail@?$_Iosb@H@std@@2W4_Iostate@12@B
CONST	SEGMENT
?_Hardfail@?$_Iosb@H@std@@2W4_Iostate@12@B DD 010H	; std::_Iosb<int>::_Hardfail
CONST	ENDS
;	COMDAT ?in@?$_Iosb@H@std@@2W4_Openmode@12@B
CONST	SEGMENT
?in@?$_Iosb@H@std@@2W4_Openmode@12@B DD 01H		; std::_Iosb<int>::in
CONST	ENDS
;	COMDAT ?out@?$_Iosb@H@std@@2W4_Openmode@12@B
CONST	SEGMENT
?out@?$_Iosb@H@std@@2W4_Openmode@12@B DD 02H		; std::_Iosb<int>::out
CONST	ENDS
;	COMDAT ?ate@?$_Iosb@H@std@@2W4_Openmode@12@B
CONST	SEGMENT
?ate@?$_Iosb@H@std@@2W4_Openmode@12@B DD 04H		; std::_Iosb<int>::ate
CONST	ENDS
;	COMDAT ?app@?$_Iosb@H@std@@2W4_Openmode@12@B
CONST	SEGMENT
?app@?$_Iosb@H@std@@2W4_Openmode@12@B DD 08H		; std::_Iosb<int>::app
CONST	ENDS
;	COMDAT ?trunc@?$_Iosb@H@std@@2W4_Openmode@12@B
CONST	SEGMENT
?trunc@?$_Iosb@H@std@@2W4_Openmode@12@B DD 010H		; std::_Iosb<int>::trunc
CONST	ENDS
;	COMDAT ?_Nocreate@?$_Iosb@H@std@@2W4_Openmode@12@B
CONST	SEGMENT
?_Nocreate@?$_Iosb@H@std@@2W4_Openmode@12@B DD 040H	; std::_Iosb<int>::_Nocreate
CONST	ENDS
;	COMDAT ?_Noreplace@?$_Iosb@H@std@@2W4_Openmode@12@B
CONST	SEGMENT
?_Noreplace@?$_Iosb@H@std@@2W4_Openmode@12@B DD 080H	; std::_Iosb<int>::_Noreplace
CONST	ENDS
;	COMDAT ?binary@?$_Iosb@H@std@@2W4_Openmode@12@B
CONST	SEGMENT
?binary@?$_Iosb@H@std@@2W4_Openmode@12@B DD 020H	; std::_Iosb<int>::binary
CONST	ENDS
;	COMDAT ?beg@?$_Iosb@H@std@@2W4_Seekdir@12@B
CONST	SEGMENT
?beg@?$_Iosb@H@std@@2W4_Seekdir@12@B DD 00H		; std::_Iosb<int>::beg
CONST	ENDS
;	COMDAT ?cur@?$_Iosb@H@std@@2W4_Seekdir@12@B
CONST	SEGMENT
?cur@?$_Iosb@H@std@@2W4_Seekdir@12@B DD 01H		; std::_Iosb<int>::cur
CONST	ENDS
;	COMDAT ?end@?$_Iosb@H@std@@2W4_Seekdir@12@B
CONST	SEGMENT
?end@?$_Iosb@H@std@@2W4_Seekdir@12@B DD 02H		; std::_Iosb<int>::end
CONST	ENDS
CONST	SEGMENT
	ORG $+3
$SG65109 DB	'userfile', 00H
	ORG $+3
$SG65110 DB	'Config', 00H
	ORG $+1
$SG65120 DB	'\', 00H
	ORG $+2
$SG65130 DB	'r', 00H
	ORG $+2
$SG65135 DB	'%s', 00H
	ORG $+1
$SG65147 DB	'w', 00H
	ORG $+2
$SG65148 DB	'%s', 0dH, 00H
$SG65149 DB	'%s', 0dH, 00H
$SG65159 DB	'r', 00H
	ORG $+2
$SG65167 DB	'%s', 00H
	ORG $+1
$SG65180 DB	'w', 00H
	ORG $+2
$SG65181 DB	'%s', 0dH, 00H
$SG65182 DB	'%s', 0dH, 00H
CONST	ENDS
PUBLIC	?GetUserFileName@YL_UserId@@SA_NQADH@Z		; YL_UserId::GetUserFileName
EXTRN	?GetConfigPath@CLhcImg@@SA_NQADH@Z:NEAR		; CLhcImg::GetConfigPath
EXTRN	__imp__GetPrivateProfileStringA@24:NEAR
EXTRN	_memset:NEAR
EXTRN	__RTC_InitBase:NEAR
EXTRN	__RTC_Shutdown:NEAR
EXTRN	_strlen:NEAR
EXTRN	__RTC_CheckEsp:NEAR
EXTRN	___security_cookie:DWORD
EXTRN	@_RTC_CheckStackVars@8:NEAR
EXTRN	@__security_check_cookie@4:NEAR
;	COMDAT rtc$IMZ
; File d:\boxgit\playbox\commonlib\common\yl_userid.cpp
rtc$IMZ	SEGMENT
__RTC_InitBase.rtc$IMZ DD FLAT:__RTC_InitBase
rtc$IMZ	ENDS
;	COMDAT rtc$TMZ
rtc$TMZ	SEGMENT
__RTC_Shutdown.rtc$TMZ DD FLAT:__RTC_Shutdown
; Function compile flags: /Odt /RTCsu
rtc$TMZ	ENDS
_TEXT	SEGMENT
_path$ = -268						; size = 260
__$ArrayPad$ = -4					; size = 4
__$ReturnAddr$ = 4					; size = 4
_szFileName$ = 8					; size = 4
_namelen$ = 12						; size = 4
?GetUserFileName@YL_UserId@@SA_NQADH@Z PROC NEAR	; YL_UserId::GetUserFileName

; 10   : {

  00000	55		 push	 ebp
  00001	8b ec		 mov	 ebp, esp
  00003	81 ec 10 01 00
	00		 sub	 esp, 272		; 00000110H
  00009	56		 push	 esi
  0000a	57		 push	 edi
  0000b	8d bd f0 fe ff
	ff		 lea	 edi, DWORD PTR [ebp-272]
  00011	b9 44 00 00 00	 mov	 ecx, 68			; 00000044H
  00016	b8 cc cc cc cc	 mov	 eax, -858993460		; ccccccccH
  0001b	f3 ab		 rep stosd
  0001d	a1 00 00 00 00	 mov	 eax, DWORD PTR ___security_cookie
  00022	89 45 fc	 mov	 DWORD PTR __$ArrayPad$[ebp], eax

; 11   : 	char path[MAX_PATH];
; 12   : 	memset(szFileName, 0, namelen);

  00025	8b 45 0c	 mov	 eax, DWORD PTR _namelen$[ebp]
  00028	50		 push	 eax
  00029	6a 00		 push	 0
  0002b	8b 4d 08	 mov	 ecx, DWORD PTR _szFileName$[ebp]
  0002e	51		 push	 ecx
  0002f	e8 00 00 00 00	 call	 _memset
  00034	83 c4 0c	 add	 esp, 12			; 0000000cH

; 13   : 	if(!CLhcImg::GetConfigPath(path, MAX_PATH))

  00037	68 04 01 00 00	 push	 260			; 00000104H
  0003c	8d 95 f4 fe ff
	ff		 lea	 edx, DWORD PTR _path$[ebp]
  00042	52		 push	 edx
  00043	e8 00 00 00 00	 call	 ?GetConfigPath@CLhcImg@@SA_NQADH@Z ; CLhcImg::GetConfigPath
  00048	83 c4 08	 add	 esp, 8
  0004b	0f b6 c0	 movzx	 eax, al
  0004e	85 c0		 test	 eax, eax
  00050	75 04		 jne	 SHORT $L65107

; 14   : 		return false;

  00052	32 c0		 xor	 al, al
  00054	eb 52		 jmp	 SHORT $L65105
$L65107:

; 15   : 
; 16   : 	if(GetPrivateProfileString("Config", "userfile", NULL, szFileName, namelen, path) == 0)

  00056	8b f4		 mov	 esi, esp
  00058	8d 8d f4 fe ff
	ff		 lea	 ecx, DWORD PTR _path$[ebp]
  0005e	51		 push	 ecx
  0005f	8b 55 0c	 mov	 edx, DWORD PTR _namelen$[ebp]
  00062	52		 push	 edx
  00063	8b 45 08	 mov	 eax, DWORD PTR _szFileName$[ebp]
  00066	50		 push	 eax
  00067	6a 00		 push	 0
  00069	68 00 00 00 00	 push	 OFFSET FLAT:$SG65109
  0006e	68 00 00 00 00	 push	 OFFSET FLAT:$SG65110
  00073	ff 15 00 00 00
	00		 call	 DWORD PTR __imp__GetPrivateProfileStringA@24
  00079	3b f4		 cmp	 esi, esp
  0007b	e8 00 00 00 00	 call	 __RTC_CheckEsp
  00080	85 c0		 test	 eax, eax
  00082	75 04		 jne	 SHORT $L65108

; 17   : 	{
; 18   : 		//g7kk.dat
; 19   : 		return false;

  00084	32 c0		 xor	 al, al
  00086	eb 20		 jmp	 SHORT $L65105
$L65108:

; 20   : 	}
; 21   : 
; 22   : 	if(strlen(szFileName) <= 0)

  00088	8b 4d 08	 mov	 ecx, DWORD PTR _szFileName$[ebp]
  0008b	51		 push	 ecx
  0008c	e8 00 00 00 00	 call	 _strlen
  00091	83 c4 04	 add	 esp, 4
  00094	85 c0		 test	 eax, eax
  00096	77 04		 ja	 SHORT $L65111

; 23   : 		return false;

  00098	32 c0		 xor	 al, al
  0009a	eb 0c		 jmp	 SHORT $L65105
$L65111:

; 24   : 	szFileName[namelen-1] = '\0';

  0009c	8b 55 08	 mov	 edx, DWORD PTR _szFileName$[ebp]
  0009f	03 55 0c	 add	 edx, DWORD PTR _namelen$[ebp]
  000a2	c6 42 ff 00	 mov	 BYTE PTR [edx-1], 0

; 25   : 	return true;

  000a6	b0 01		 mov	 al, 1
$L65105:

; 26   : }

  000a8	52		 push	 edx
  000a9	8b cd		 mov	 ecx, ebp
  000ab	50		 push	 eax
  000ac	8d 15 00 00 00
	00		 lea	 edx, DWORD PTR $L69333
  000b2	e8 00 00 00 00	 call	 @_RTC_CheckStackVars@8
  000b7	58		 pop	 eax
  000b8	5a		 pop	 edx
  000b9	8b 4d fc	 mov	 ecx, DWORD PTR __$ArrayPad$[ebp]
  000bc	e8 00 00 00 00	 call	 @__security_check_cookie@4
  000c1	5f		 pop	 edi
  000c2	5e		 pop	 esi
  000c3	81 c4 10 01 00
	00		 add	 esp, 272		; 00000110H
  000c9	3b ec		 cmp	 ebp, esp
  000cb	e8 00 00 00 00	 call	 __RTC_CheckEsp
  000d0	8b e5		 mov	 esp, ebp
  000d2	5d		 pop	 ebp
  000d3	c3		 ret	 0
$L69333:
  000d4	01 00 00 00	 DD	 1
  000d8	00 00 00 00	 DD	 $L69332
$L69332:
  000dc	f4 fe ff ff	 DD	 -268			; fffffef4H
  000e0	04 01 00 00	 DD	 260			; 00000104H
  000e4	00 00 00 00	 DD	 $L69329
$L69329:
  000e8	70		 DB	 112			; 00000070H
  000e9	61		 DB	 97			; 00000061H
  000ea	74		 DB	 116			; 00000074H
  000eb	68		 DB	 104			; 00000068H
  000ec	00		 DB	 0
?GetUserFileName@YL_UserId@@SA_NQADH@Z ENDP		; YL_UserId::GetUserFileName
_TEXT	ENDS
PUBLIC	?GetUserFilePath@YL_UserId@@SA_NQADH@Z		; YL_UserId::GetUserFilePath
EXTRN	_strcpy:NEAR
EXTRN	_strcat:NEAR
EXTRN	__imp__GetSystemDirectoryA@8:NEAR
; Function compile flags: /Odt /RTCsu
_TEXT	SEGMENT
_szUserFileName$ = -536					; size = 260
_szSystemPath$ = -268					; size = 260
__$ArrayPad$ = -4					; size = 4
__$ReturnAddr$ = 4					; size = 4
_szFilePath$ = 8					; size = 4
_pathlen$ = 12						; size = 4
?GetUserFilePath@YL_UserId@@SA_NQADH@Z PROC NEAR	; YL_UserId::GetUserFilePath

; 29   : {

  000f0	55		 push	 ebp
  000f1	8b ec		 mov	 ebp, esp
  000f3	81 ec 1c 02 00
	00		 sub	 esp, 540		; 0000021cH
  000f9	56		 push	 esi
  000fa	57		 push	 edi
  000fb	8d bd e4 fd ff
	ff		 lea	 edi, DWORD PTR [ebp-540]
  00101	b9 87 00 00 00	 mov	 ecx, 135		; 00000087H
  00106	b8 cc cc cc cc	 mov	 eax, -858993460		; ccccccccH
  0010b	f3 ab		 rep stosd
  0010d	a1 00 00 00 00	 mov	 eax, DWORD PTR ___security_cookie
  00112	89 45 fc	 mov	 DWORD PTR __$ArrayPad$[ebp], eax

; 30   : 	CHAR szSystemPath[MAX_PATH], szUserFileName[MAX_PATH];
; 31   : 	memset(szFilePath, 0, pathlen);

  00115	8b 45 0c	 mov	 eax, DWORD PTR _pathlen$[ebp]
  00118	50		 push	 eax
  00119	6a 00		 push	 0
  0011b	8b 4d 08	 mov	 ecx, DWORD PTR _szFilePath$[ebp]
  0011e	51		 push	 ecx
  0011f	e8 00 00 00 00	 call	 _memset
  00124	83 c4 0c	 add	 esp, 12			; 0000000cH

; 32   : 	memset(szSystemPath, 0, MAX_PATH);

  00127	68 04 01 00 00	 push	 260			; 00000104H
  0012c	6a 00		 push	 0
  0012e	8d 95 f4 fe ff
	ff		 lea	 edx, DWORD PTR _szSystemPath$[ebp]
  00134	52		 push	 edx
  00135	e8 00 00 00 00	 call	 _memset
  0013a	83 c4 0c	 add	 esp, 12			; 0000000cH

; 33   : 	memset(szUserFileName, 0, MAX_PATH);

  0013d	68 04 01 00 00	 push	 260			; 00000104H
  00142	6a 00		 push	 0
  00144	8d 85 e8 fd ff
	ff		 lea	 eax, DWORD PTR _szUserFileName$[ebp]
  0014a	50		 push	 eax
  0014b	e8 00 00 00 00	 call	 _memset
  00150	83 c4 0c	 add	 esp, 12			; 0000000cH

; 34   : 	if( GetSystemDirectory(szSystemPath, MAX_PATH) == 0 )

  00153	8b f4		 mov	 esi, esp
  00155	68 04 01 00 00	 push	 260			; 00000104H
  0015a	8d 8d f4 fe ff
	ff		 lea	 ecx, DWORD PTR _szSystemPath$[ebp]
  00160	51		 push	 ecx
  00161	ff 15 00 00 00
	00		 call	 DWORD PTR __imp__GetSystemDirectoryA@8
  00167	3b f4		 cmp	 esi, esp
  00169	e8 00 00 00 00	 call	 __RTC_CheckEsp
  0016e	85 c0		 test	 eax, eax
  00170	75 04		 jne	 SHORT $L65118

; 35   : 	{				
; 36   : 		return false;

  00172	32 c0		 xor	 al, al
  00174	eb 58		 jmp	 SHORT $L65115
$L65118:

; 37   : 	}
; 38   : 
; 39   : 	if(!GetUserFileName(szUserFileName, MAX_PATH))

  00176	68 04 01 00 00	 push	 260			; 00000104H
  0017b	8d 95 e8 fd ff
	ff		 lea	 edx, DWORD PTR _szUserFileName$[ebp]
  00181	52		 push	 edx
  00182	e8 00 00 00 00	 call	 ?GetUserFileName@YL_UserId@@SA_NQADH@Z ; YL_UserId::GetUserFileName
  00187	83 c4 08	 add	 esp, 8
  0018a	0f b6 c0	 movzx	 eax, al
  0018d	85 c0		 test	 eax, eax
  0018f	75 04		 jne	 SHORT $L65119

; 40   : 	{
; 41   : 		return false;

  00191	32 c0		 xor	 al, al
  00193	eb 39		 jmp	 SHORT $L65115
$L65119:

; 42   : 	}
; 43   : 
; 44   : 	strcpy(szFilePath, szSystemPath);

  00195	8d 8d f4 fe ff
	ff		 lea	 ecx, DWORD PTR _szSystemPath$[ebp]
  0019b	51		 push	 ecx
  0019c	8b 55 08	 mov	 edx, DWORD PTR _szFilePath$[ebp]
  0019f	52		 push	 edx
  001a0	e8 00 00 00 00	 call	 _strcpy
  001a5	83 c4 08	 add	 esp, 8

; 45   : 	strcat(szFilePath, "\\");

  001a8	68 00 00 00 00	 push	 OFFSET FLAT:$SG65120
  001ad	8b 45 08	 mov	 eax, DWORD PTR _szFilePath$[ebp]
  001b0	50		 push	 eax
  001b1	e8 00 00 00 00	 call	 _strcat
  001b6	83 c4 08	 add	 esp, 8

; 46   : 	strcat(szFilePath, szUserFileName);

  001b9	8d 8d e8 fd ff
	ff		 lea	 ecx, DWORD PTR _szUserFileName$[ebp]
  001bf	51		 push	 ecx
  001c0	8b 55 08	 mov	 edx, DWORD PTR _szFilePath$[ebp]
  001c3	52		 push	 edx
  001c4	e8 00 00 00 00	 call	 _strcat
  001c9	83 c4 08	 add	 esp, 8

; 47   : 	return true;

  001cc	b0 01		 mov	 al, 1
$L65115:

; 48   : }

  001ce	52		 push	 edx
  001cf	8b cd		 mov	 ecx, ebp
  001d1	50		 push	 eax
  001d2	8d 15 00 00 00
	00		 lea	 edx, DWORD PTR $L69342
  001d8	e8 00 00 00 00	 call	 @_RTC_CheckStackVars@8
  001dd	58		 pop	 eax
  001de	5a		 pop	 edx
  001df	8b 4d fc	 mov	 ecx, DWORD PTR __$ArrayPad$[ebp]
  001e2	e8 00 00 00 00	 call	 @__security_check_cookie@4
  001e7	5f		 pop	 edi
  001e8	5e		 pop	 esi
  001e9	81 c4 1c 02 00
	00		 add	 esp, 540		; 0000021cH
  001ef	3b ec		 cmp	 ebp, esp
  001f1	e8 00 00 00 00	 call	 __RTC_CheckEsp
  001f6	8b e5		 mov	 esp, ebp
  001f8	5d		 pop	 ebp
  001f9	c3		 ret	 0
$L69342:
  001fa	02 00 00 00	 DD	 2
  001fe	00 00 00 00	 DD	 $L69341
$L69341:
  00202	f4 fe ff ff	 DD	 -268			; fffffef4H
  00206	04 01 00 00	 DD	 260			; 00000104H
  0020a	00 00 00 00	 DD	 $L69338
  0020e	e8 fd ff ff	 DD	 -536			; fffffde8H
  00212	04 01 00 00	 DD	 260			; 00000104H
  00216	00 00 00 00	 DD	 $L69339
$L69339:
  0021a	73		 DB	 115			; 00000073H
  0021b	7a		 DB	 122			; 0000007aH
  0021c	55		 DB	 85			; 00000055H
  0021d	73		 DB	 115			; 00000073H
  0021e	65		 DB	 101			; 00000065H
  0021f	72		 DB	 114			; 00000072H
  00220	46		 DB	 70			; 00000046H
  00221	69		 DB	 105			; 00000069H
  00222	6c		 DB	 108			; 0000006cH
  00223	65		 DB	 101			; 00000065H
  00224	4e		 DB	 78			; 0000004eH
  00225	61		 DB	 97			; 00000061H
  00226	6d		 DB	 109			; 0000006dH
  00227	65		 DB	 101			; 00000065H
  00228	00		 DB	 0
$L69338:
  00229	73		 DB	 115			; 00000073H
  0022a	7a		 DB	 122			; 0000007aH
  0022b	53		 DB	 83			; 00000053H
  0022c	79		 DB	 121			; 00000079H
  0022d	73		 DB	 115			; 00000073H
  0022e	74		 DB	 116			; 00000074H
  0022f	65		 DB	 101			; 00000065H
  00230	6d		 DB	 109			; 0000006dH
  00231	50		 DB	 80			; 00000050H
  00232	61		 DB	 97			; 00000061H
  00233	74		 DB	 116			; 00000074H
  00234	68		 DB	 104			; 00000068H
  00235	00		 DB	 0
?GetUserFilePath@YL_UserId@@SA_NQADH@Z ENDP		; YL_UserId::GetUserFilePath
_TEXT	ENDS
PUBLIC	?GetUserID@YL_UserId@@SA_NQADH@Z		; YL_UserId::GetUserID
EXTRN	__imp__fclose:NEAR
EXTRN	__imp_?c_str@?$basic_string@DU?$char_traits@D@std@@V?$allocator@D@2@@std@@QBEPBDXZ:NEAR
EXTRN	__imp__fgets:NEAR
EXTRN	__imp__fopen:NEAR
EXTRN	__imp_?find_first_of@?$basic_string@DU?$char_traits@D@std@@V?$allocator@D@2@@std@@QBEIDI@Z:NEAR
EXTRN	__imp_?substr@?$basic_string@DU?$char_traits@D@std@@V?$allocator@D@2@@std@@QBE?AV12@II@Z:NEAR
EXTRN	__imp___snprintf:NEAR
EXTRN	__imp__atoi:NEAR
EXTRN	__except_list:DWORD
EXTRN	___CxxFrameHandler:NEAR
EXTRN	__imp_??0?$basic_string@DU?$char_traits@D@std@@V?$allocator@D@2@@std@@QAE@PBD@Z:NEAR
EXTRN	__imp_??1?$basic_string@DU?$char_traits@D@std@@V?$allocator@D@2@@std@@QAE@XZ:NEAR
xdata$x	SEGMENT
$T69362	DD	0ffffffffH
	DD	FLAT:$L69347
	DD	00H
	DD	FLAT:$L69348
$T69352	DD	019930520H
	DD	02H
	DD	FLAT:$T69362
	DD	2 DUP(00H)
	DD	2 DUP(00H)
; Function compile flags: /Odt /RTCsu
xdata$x	ENDS
_TEXT	SEGMENT
$T69346 = -634						; size = 1
$T69345 = -633						; size = 1
_id$ = -628						; size = 28
_index$ = -596						; size = 4
_temp$ = -588						; size = 28
_file$ = -556						; size = 4
_szDesFilePath$ = -548					; size = 260
_szTemp$ = -280						; size = 260
__$ArrayPad$ = -16					; size = 4
__$EHRec$ = -12						; size = 12
__$ReturnAddr$ = 4					; size = 4
_szID$ = 8						; size = 4
_idlen$ = 12						; size = 4
?GetUserID@YL_UserId@@SA_NQADH@Z PROC NEAR		; YL_UserId::GetUserID

; 51   : {

  00240	55		 push	 ebp
  00241	8b ec		 mov	 ebp, esp
  00243	6a ff		 push	 -1
  00245	68 00 00 00 00	 push	 __ehhandler$?GetUserID@YL_UserId@@SA_NQADH@Z
  0024a	64 a1 00 00 00
	00		 mov	 eax, DWORD PTR fs:__except_list
  00250	50		 push	 eax
  00251	64 89 25 00 00
	00 00		 mov	 DWORD PTR fs:__except_list, esp
  00258	81 ec 70 02 00
	00		 sub	 esp, 624		; 00000270H
  0025e	56		 push	 esi
  0025f	57		 push	 edi
  00260	8d bd 84 fd ff
	ff		 lea	 edi, DWORD PTR [ebp-636]
  00266	b9 9c 00 00 00	 mov	 ecx, 156		; 0000009cH
  0026b	b8 cc cc cc cc	 mov	 eax, -858993460		; ccccccccH
  00270	f3 ab		 rep stosd
  00272	a1 00 00 00 00	 mov	 eax, DWORD PTR ___security_cookie
  00277	89 45 f0	 mov	 DWORD PTR __$ArrayPad$[ebp], eax

; 52   : 	memset(szID, 0, idlen);

  0027a	8b 45 0c	 mov	 eax, DWORD PTR _idlen$[ebp]
  0027d	50		 push	 eax
  0027e	6a 00		 push	 0
  00280	8b 4d 08	 mov	 ecx, DWORD PTR _szID$[ebp]
  00283	51		 push	 ecx
  00284	e8 00 00 00 00	 call	 _memset
  00289	83 c4 0c	 add	 esp, 12			; 0000000cH

; 53   : 	CHAR szTemp[MAX_PATH], szDesFilePath[MAX_PATH];
; 54   : 	if(!GetUserFilePath(szDesFilePath, MAX_PATH)) //g7kk.dat

  0028c	68 04 01 00 00	 push	 260			; 00000104H
  00291	8d 95 dc fd ff
	ff		 lea	 edx, DWORD PTR _szDesFilePath$[ebp]
  00297	52		 push	 edx
  00298	e8 00 00 00 00	 call	 ?GetUserFilePath@YL_UserId@@SA_NQADH@Z ; YL_UserId::GetUserFilePath
  0029d	83 c4 08	 add	 esp, 8
  002a0	0f b6 c0	 movzx	 eax, al
  002a3	85 c0		 test	 eax, eax
  002a5	75 07		 jne	 SHORT $L65127

; 55   : 	{
; 56   : 		return false;

  002a7	32 c0		 xor	 al, al
  002a9	e9 e7 01 00 00	 jmp	 $L65124
$L65127:

; 57   : 	}
; 58   : 
; 59   : 	FILE* file;
; 60   : 	if( (file = fopen( szDesFilePath, "r")) == NULL )

  002ae	8b f4		 mov	 esi, esp
  002b0	68 00 00 00 00	 push	 OFFSET FLAT:$SG65130
  002b5	8d 8d dc fd ff
	ff		 lea	 ecx, DWORD PTR _szDesFilePath$[ebp]
  002bb	51		 push	 ecx
  002bc	ff 15 00 00 00
	00		 call	 DWORD PTR __imp__fopen
  002c2	83 c4 08	 add	 esp, 8
  002c5	3b f4		 cmp	 esi, esp
  002c7	e8 00 00 00 00	 call	 __RTC_CheckEsp
  002cc	89 85 d4 fd ff
	ff		 mov	 DWORD PTR _file$[ebp], eax
  002d2	83 bd d4 fd ff
	ff 00		 cmp	 DWORD PTR _file$[ebp], 0
  002d9	75 07		 jne	 SHORT $L65129

; 61   : 	{		
; 62   : 		return false;

  002db	32 c0		 xor	 al, al
  002dd	e9 b3 01 00 00	 jmp	 $L65124
$L65129:

; 63   : 	}
; 64   : 
; 65   : 	memset(szTemp, 0, MAX_PATH);

  002e2	68 04 01 00 00	 push	 260			; 00000104H
  002e7	6a 00		 push	 0
  002e9	8d 95 e8 fe ff
	ff		 lea	 edx, DWORD PTR _szTemp$[ebp]
  002ef	52		 push	 edx
  002f0	e8 00 00 00 00	 call	 _memset
  002f5	83 c4 0c	 add	 esp, 12			; 0000000cH

; 66   : 	fgets( szTemp, MAX_PATH, file );

  002f8	8b f4		 mov	 esi, esp
  002fa	8b 85 d4 fd ff
	ff		 mov	 eax, DWORD PTR _file$[ebp]
  00300	50		 push	 eax
  00301	68 04 01 00 00	 push	 260			; 00000104H
  00306	8d 8d e8 fe ff
	ff		 lea	 ecx, DWORD PTR _szTemp$[ebp]
  0030c	51		 push	 ecx
  0030d	ff 15 00 00 00
	00		 call	 DWORD PTR __imp__fgets
  00313	83 c4 0c	 add	 esp, 12			; 0000000cH
  00316	3b f4		 cmp	 esi, esp
  00318	e8 00 00 00 00	 call	 __RTC_CheckEsp

; 67   : 	fclose( file );

  0031d	8b f4		 mov	 esi, esp
  0031f	8b 95 d4 fd ff
	ff		 mov	 edx, DWORD PTR _file$[ebp]
  00325	52		 push	 edx
  00326	ff 15 00 00 00
	00		 call	 DWORD PTR __imp__fclose
  0032c	83 c4 04	 add	 esp, 4
  0032f	3b f4		 cmp	 esi, esp
  00331	e8 00 00 00 00	 call	 __RTC_CheckEsp

; 68   : 	string temp(szTemp);

  00336	8b f4		 mov	 esi, esp
  00338	8d 85 e8 fe ff
	ff		 lea	 eax, DWORD PTR _szTemp$[ebp]
  0033e	50		 push	 eax
  0033f	8d 8d b4 fd ff
	ff		 lea	 ecx, DWORD PTR _temp$[ebp]
  00345	ff 15 00 00 00
	00		 call	 DWORD PTR __imp_??0?$basic_string@DU?$char_traits@D@std@@V?$allocator@D@2@@std@@QAE@PBD@Z
  0034b	3b f4		 cmp	 esi, esp
  0034d	e8 00 00 00 00	 call	 __RTC_CheckEsp
  00352	c7 45 fc 00 00
	00 00		 mov	 DWORD PTR __$EHRec$[ebp+8], 0

; 69   : 	string::size_type index = temp.find_first_of('\r');

  00359	8b f4		 mov	 esi, esp
  0035b	6a 00		 push	 0
  0035d	6a 0d		 push	 13			; 0000000dH
  0035f	8d 8d b4 fd ff
	ff		 lea	 ecx, DWORD PTR _temp$[ebp]
  00365	ff 15 00 00 00
	00		 call	 DWORD PTR __imp_?find_first_of@?$basic_string@DU?$char_traits@D@std@@V?$allocator@D@2@@std@@QBEIDI@Z
  0036b	3b f4		 cmp	 esi, esp
  0036d	e8 00 00 00 00	 call	 __RTC_CheckEsp
  00372	89 85 ac fd ff
	ff		 mov	 DWORD PTR _index$[ebp], eax

; 70   : 	string id = temp.substr(0, index);

  00378	8b f4		 mov	 esi, esp
  0037a	8b 8d ac fd ff
	ff		 mov	 ecx, DWORD PTR _index$[ebp]
  00380	51		 push	 ecx
  00381	6a 00		 push	 0
  00383	8d 95 8c fd ff
	ff		 lea	 edx, DWORD PTR _id$[ebp]
  00389	52		 push	 edx
  0038a	8d 8d b4 fd ff
	ff		 lea	 ecx, DWORD PTR _temp$[ebp]
  00390	ff 15 00 00 00
	00		 call	 DWORD PTR __imp_?substr@?$basic_string@DU?$char_traits@D@std@@V?$allocator@D@2@@std@@QBE?AV12@II@Z
  00396	3b f4		 cmp	 esi, esp
  00398	e8 00 00 00 00	 call	 __RTC_CheckEsp
  0039d	c6 45 fc 01	 mov	 BYTE PTR __$EHRec$[ebp+8], 1

; 71   : 	_snprintf(szID, idlen-1, "%s", id.c_str());

  003a1	8b f4		 mov	 esi, esp
  003a3	8d 8d 8c fd ff
	ff		 lea	 ecx, DWORD PTR _id$[ebp]
  003a9	ff 15 00 00 00
	00		 call	 DWORD PTR __imp_?c_str@?$basic_string@DU?$char_traits@D@std@@V?$allocator@D@2@@std@@QBEPBDXZ
  003af	3b f4		 cmp	 esi, esp
  003b1	e8 00 00 00 00	 call	 __RTC_CheckEsp
  003b6	8b f4		 mov	 esi, esp
  003b8	50		 push	 eax
  003b9	68 00 00 00 00	 push	 OFFSET FLAT:$SG65135
  003be	8b 45 0c	 mov	 eax, DWORD PTR _idlen$[ebp]
  003c1	83 e8 01	 sub	 eax, 1
  003c4	50		 push	 eax
  003c5	8b 4d 08	 mov	 ecx, DWORD PTR _szID$[ebp]
  003c8	51		 push	 ecx
  003c9	ff 15 00 00 00
	00		 call	 DWORD PTR __imp___snprintf
  003cf	83 c4 10	 add	 esp, 16			; 00000010H
  003d2	3b f4		 cmp	 esi, esp
  003d4	e8 00 00 00 00	 call	 __RTC_CheckEsp

; 72   : 	szID[idlen-1] = '\0';

  003d9	8b 55 08	 mov	 edx, DWORD PTR _szID$[ebp]
  003dc	03 55 0c	 add	 edx, DWORD PTR _idlen$[ebp]
  003df	c6 42 ff 00	 mov	 BYTE PTR [edx-1], 0

; 73   : 
; 74   : 	if( atoi( szID ) <= 0 )

  003e3	8b f4		 mov	 esi, esp
  003e5	8b 45 08	 mov	 eax, DWORD PTR _szID$[ebp]
  003e8	50		 push	 eax
  003e9	ff 15 00 00 00
	00		 call	 DWORD PTR __imp__atoi
  003ef	83 c4 04	 add	 esp, 4
  003f2	3b f4		 cmp	 esi, esp
  003f4	e8 00 00 00 00	 call	 __RTC_CheckEsp
  003f9	85 c0		 test	 eax, eax
  003fb	7f 56		 jg	 SHORT $L65136

; 75   : 	{
; 76   : 		memset(szID, 0, idlen);

  003fd	8b 4d 0c	 mov	 ecx, DWORD PTR _idlen$[ebp]
  00400	51		 push	 ecx
  00401	6a 00		 push	 0
  00403	8b 55 08	 mov	 edx, DWORD PTR _szID$[ebp]
  00406	52		 push	 edx
  00407	e8 00 00 00 00	 call	 _memset
  0040c	83 c4 0c	 add	 esp, 12			; 0000000cH

; 77   : 		return false;

  0040f	c6 85 87 fd ff
	ff 00		 mov	 BYTE PTR $T69345[ebp], 0
  00416	c6 45 fc 00	 mov	 BYTE PTR __$EHRec$[ebp+8], 0
  0041a	8b f4		 mov	 esi, esp
  0041c	8d 8d 8c fd ff
	ff		 lea	 ecx, DWORD PTR _id$[ebp]
  00422	ff 15 00 00 00
	00		 call	 DWORD PTR __imp_??1?$basic_string@DU?$char_traits@D@std@@V?$allocator@D@2@@std@@QAE@XZ
  00428	3b f4		 cmp	 esi, esp
  0042a	e8 00 00 00 00	 call	 __RTC_CheckEsp
  0042f	c7 45 fc ff ff
	ff ff		 mov	 DWORD PTR __$EHRec$[ebp+8], -1
  00436	8b f4		 mov	 esi, esp
  00438	8d 8d b4 fd ff
	ff		 lea	 ecx, DWORD PTR _temp$[ebp]
  0043e	ff 15 00 00 00
	00		 call	 DWORD PTR __imp_??1?$basic_string@DU?$char_traits@D@std@@V?$allocator@D@2@@std@@QAE@XZ
  00444	3b f4		 cmp	 esi, esp
  00446	e8 00 00 00 00	 call	 __RTC_CheckEsp
  0044b	8a 85 87 fd ff
	ff		 mov	 al, BYTE PTR $T69345[ebp]
  00451	eb 42		 jmp	 SHORT $L65124
$L65136:

; 78   : 	}
; 79   : 
; 80   : 	return true;

  00453	c6 85 86 fd ff
	ff 01		 mov	 BYTE PTR $T69346[ebp], 1
  0045a	c6 45 fc 00	 mov	 BYTE PTR __$EHRec$[ebp+8], 0
  0045e	8b f4		 mov	 esi, esp
  00460	8d 8d 8c fd ff
	ff		 lea	 ecx, DWORD PTR _id$[ebp]
  00466	ff 15 00 00 00
	00		 call	 DWORD PTR __imp_??1?$basic_string@DU?$char_traits@D@std@@V?$allocator@D@2@@std@@QAE@XZ
  0046c	3b f4		 cmp	 esi, esp
  0046e	e8 00 00 00 00	 call	 __RTC_CheckEsp
  00473	c7 45 fc ff ff
	ff ff		 mov	 DWORD PTR __$EHRec$[ebp+8], -1
  0047a	8b f4		 mov	 esi, esp
  0047c	8d 8d b4 fd ff
	ff		 lea	 ecx, DWORD PTR _temp$[ebp]
  00482	ff 15 00 00 00
	00		 call	 DWORD PTR __imp_??1?$basic_string@DU?$char_traits@D@std@@V?$allocator@D@2@@std@@QAE@XZ
  00488	3b f4		 cmp	 esi, esp
  0048a	e8 00 00 00 00	 call	 __RTC_CheckEsp
  0048f	8a 85 86 fd ff
	ff		 mov	 al, BYTE PTR $T69346[ebp]
$L65124:

; 81   : }

  00495	52		 push	 edx
  00496	8b cd		 mov	 ecx, ebp
  00498	50		 push	 eax
  00499	8d 15 00 00 00
	00		 lea	 edx, DWORD PTR $L69361
  0049f	e8 00 00 00 00	 call	 @_RTC_CheckStackVars@8
  004a4	58		 pop	 eax
  004a5	5a		 pop	 edx
  004a6	8b 4d f4	 mov	 ecx, DWORD PTR __$EHRec$[ebp]
  004a9	64 89 0d 00 00
	00 00		 mov	 DWORD PTR fs:__except_list, ecx
  004b0	8b 4d f0	 mov	 ecx, DWORD PTR __$ArrayPad$[ebp]
  004b3	e8 00 00 00 00	 call	 @__security_check_cookie@4
  004b8	5f		 pop	 edi
  004b9	5e		 pop	 esi
  004ba	81 c4 7c 02 00
	00		 add	 esp, 636		; 0000027cH
  004c0	3b ec		 cmp	 ebp, esp
  004c2	e8 00 00 00 00	 call	 __RTC_CheckEsp
  004c7	8b e5		 mov	 esp, ebp
  004c9	5d		 pop	 ebp
  004ca	c3		 ret	 0
$L69361:
  004cb	04 00 00 00	 DD	 4
  004cf	00 00 00 00	 DD	 $L69360
$L69360:
  004d3	e8 fe ff ff	 DD	 -280			; fffffee8H
  004d7	04 01 00 00	 DD	 260			; 00000104H
  004db	00 00 00 00	 DD	 $L69353
  004df	dc fd ff ff	 DD	 -548			; fffffddcH
  004e3	04 01 00 00	 DD	 260			; 00000104H
  004e7	00 00 00 00	 DD	 $L69354
  004eb	b4 fd ff ff	 DD	 -588			; fffffdb4H
  004ef	1c 00 00 00	 DD	 28			; 0000001cH
  004f3	00 00 00 00	 DD	 $L69355
  004f7	8c fd ff ff	 DD	 -628			; fffffd8cH
  004fb	1c 00 00 00	 DD	 28			; 0000001cH
  004ff	00 00 00 00	 DD	 $L69356
$L69356:
  00503	69		 DB	 105			; 00000069H
  00504	64		 DB	 100			; 00000064H
  00505	00		 DB	 0
$L69355:
  00506	74		 DB	 116			; 00000074H
  00507	65		 DB	 101			; 00000065H
  00508	6d		 DB	 109			; 0000006dH
  00509	70		 DB	 112			; 00000070H
  0050a	00		 DB	 0
$L69354:
  0050b	73		 DB	 115			; 00000073H
  0050c	7a		 DB	 122			; 0000007aH
  0050d	44		 DB	 68			; 00000044H
  0050e	65		 DB	 101			; 00000065H
  0050f	73		 DB	 115			; 00000073H
  00510	46		 DB	 70			; 00000046H
  00511	69		 DB	 105			; 00000069H
  00512	6c		 DB	 108			; 0000006cH
  00513	65		 DB	 101			; 00000065H
  00514	50		 DB	 80			; 00000050H
  00515	61		 DB	 97			; 00000061H
  00516	74		 DB	 116			; 00000074H
  00517	68		 DB	 104			; 00000068H
  00518	00		 DB	 0
$L69353:
  00519	73		 DB	 115			; 00000073H
  0051a	7a		 DB	 122			; 0000007aH
  0051b	54		 DB	 84			; 00000054H
  0051c	65		 DB	 101			; 00000065H
  0051d	6d		 DB	 109			; 0000006dH
  0051e	70		 DB	 112			; 00000070H
  0051f	00		 DB	 0
_TEXT	ENDS
text$x	SEGMENT
$L69347:
  00000	8b f4		 mov	 esi, esp
  00002	8d 8d b4 fd ff
	ff		 lea	 ecx, DWORD PTR _temp$[ebp]
  00008	ff 15 00 00 00
	00		 call	 DWORD PTR __imp_??1?$basic_string@DU?$char_traits@D@std@@V?$allocator@D@2@@std@@QAE@XZ
  0000e	3b f4		 cmp	 esi, esp
  00010	e9 00 00 00 00	 jmp	 __RTC_CheckEsp
$L69348:
  00015	8b f4		 mov	 esi, esp
  00017	8d 8d 8c fd ff
	ff		 lea	 ecx, DWORD PTR _id$[ebp]
  0001d	ff 15 00 00 00
	00		 call	 DWORD PTR __imp_??1?$basic_string@DU?$char_traits@D@std@@V?$allocator@D@2@@std@@QAE@XZ
  00023	3b f4		 cmp	 esi, esp
  00025	e9 00 00 00 00	 jmp	 __RTC_CheckEsp
__ehhandler$?GetUserID@YL_UserId@@SA_NQADH@Z:
  0002a	b8 00 00 00 00	 mov	 eax, OFFSET FLAT:$T69352
  0002f	e9 00 00 00 00	 jmp	 ___CxxFrameHandler
text$x	ENDS
?GetUserID@YL_UserId@@SA_NQADH@Z ENDP			; YL_UserId::GetUserID
PUBLIC	?SetUserID@YL_UserId@@SA_NPBD@Z			; YL_UserId::SetUserID
PUBLIC	?GetInstallSRC@YL_UserId@@SA_NQADH@Z		; YL_UserId::GetInstallSRC
EXTRN	__imp__fprintf:NEAR
; Function compile flags: /Odt /RTCsu
_TEXT	SEGMENT
_file$ = -412						; size = 4
_szSRC$ = -404						; size = 128
_szUserFilePath$ = -268					; size = 260
__$ArrayPad$ = -4					; size = 4
__$ReturnAddr$ = 4					; size = 4
_szID$ = 8						; size = 4
?SetUserID@YL_UserId@@SA_NPBD@Z PROC NEAR		; YL_UserId::SetUserID

; 84   : {

  00520	55		 push	 ebp
  00521	8b ec		 mov	 ebp, esp
  00523	81 ec 9c 01 00
	00		 sub	 esp, 412		; 0000019cH
  00529	56		 push	 esi
  0052a	57		 push	 edi
  0052b	8d bd 64 fe ff
	ff		 lea	 edi, DWORD PTR [ebp-412]
  00531	b9 67 00 00 00	 mov	 ecx, 103		; 00000067H
  00536	b8 cc cc cc cc	 mov	 eax, -858993460		; ccccccccH
  0053b	f3 ab		 rep stosd
  0053d	a1 00 00 00 00	 mov	 eax, DWORD PTR ___security_cookie
  00542	89 45 fc	 mov	 DWORD PTR __$ArrayPad$[ebp], eax

; 85   : 	char szUserFilePath[MAX_PATH], szSRC[SRC_LENGTH];
; 86   : 	if(!GetUserFilePath(szUserFilePath, MAX_PATH))

  00545	68 04 01 00 00	 push	 260			; 00000104H
  0054a	8d 85 f4 fe ff
	ff		 lea	 eax, DWORD PTR _szUserFilePath$[ebp]
  00550	50		 push	 eax
  00551	e8 00 00 00 00	 call	 ?GetUserFilePath@YL_UserId@@SA_NQADH@Z ; YL_UserId::GetUserFilePath
  00556	83 c4 08	 add	 esp, 8
  00559	0f b6 c8	 movzx	 ecx, al
  0055c	85 c9		 test	 ecx, ecx
  0055e	75 07		 jne	 SHORT $L65144

; 87   : 	{
; 88   : 		return false;

  00560	32 c0		 xor	 al, al
  00562	e9 a7 00 00 00	 jmp	 $L65141
$L65144:

; 89   : 	}
; 90   : 	GetInstallSRC(szSRC, SRC_LENGTH);

  00567	68 80 00 00 00	 push	 128			; 00000080H
  0056c	8d 95 6c fe ff
	ff		 lea	 edx, DWORD PTR _szSRC$[ebp]
  00572	52		 push	 edx
  00573	e8 00 00 00 00	 call	 ?GetInstallSRC@YL_UserId@@SA_NQADH@Z ; YL_UserId::GetInstallSRC
  00578	83 c4 08	 add	 esp, 8

; 91   : 
; 92   : 	FILE *file;
; 93   : 	if( (file = fopen( szUserFilePath, "w")) == NULL )

  0057b	8b f4		 mov	 esi, esp
  0057d	68 00 00 00 00	 push	 OFFSET FLAT:$SG65147
  00582	8d 85 f4 fe ff
	ff		 lea	 eax, DWORD PTR _szUserFilePath$[ebp]
  00588	50		 push	 eax
  00589	ff 15 00 00 00
	00		 call	 DWORD PTR __imp__fopen
  0058f	83 c4 08	 add	 esp, 8
  00592	3b f4		 cmp	 esi, esp
  00594	e8 00 00 00 00	 call	 __RTC_CheckEsp
  00599	89 85 64 fe ff
	ff		 mov	 DWORD PTR _file$[ebp], eax
  0059f	83 bd 64 fe ff
	ff 00		 cmp	 DWORD PTR _file$[ebp], 0
  005a6	75 04		 jne	 SHORT $L65146

; 94   : 	{
; 95   : 		return false;

  005a8	32 c0		 xor	 al, al
  005aa	eb 62		 jmp	 SHORT $L65141
$L65146:

; 96   : 	}	
; 97   : 	fprintf(file, "%s\r", szID);

  005ac	8b f4		 mov	 esi, esp
  005ae	8b 4d 08	 mov	 ecx, DWORD PTR _szID$[ebp]
  005b1	51		 push	 ecx
  005b2	68 00 00 00 00	 push	 OFFSET FLAT:$SG65148
  005b7	8b 95 64 fe ff
	ff		 mov	 edx, DWORD PTR _file$[ebp]
  005bd	52		 push	 edx
  005be	ff 15 00 00 00
	00		 call	 DWORD PTR __imp__fprintf
  005c4	83 c4 0c	 add	 esp, 12			; 0000000cH
  005c7	3b f4		 cmp	 esi, esp
  005c9	e8 00 00 00 00	 call	 __RTC_CheckEsp

; 98   : 	fprintf(file, "%s\r", szSRC);

  005ce	8b f4		 mov	 esi, esp
  005d0	8d 85 6c fe ff
	ff		 lea	 eax, DWORD PTR _szSRC$[ebp]
  005d6	50		 push	 eax
  005d7	68 00 00 00 00	 push	 OFFSET FLAT:$SG65149
  005dc	8b 8d 64 fe ff
	ff		 mov	 ecx, DWORD PTR _file$[ebp]
  005e2	51		 push	 ecx
  005e3	ff 15 00 00 00
	00		 call	 DWORD PTR __imp__fprintf
  005e9	83 c4 0c	 add	 esp, 12			; 0000000cH
  005ec	3b f4		 cmp	 esi, esp
  005ee	e8 00 00 00 00	 call	 __RTC_CheckEsp

; 99   : 	fclose( file );

  005f3	8b f4		 mov	 esi, esp
  005f5	8b 95 64 fe ff
	ff		 mov	 edx, DWORD PTR _file$[ebp]
  005fb	52		 push	 edx
  005fc	ff 15 00 00 00
	00		 call	 DWORD PTR __imp__fclose
  00602	83 c4 04	 add	 esp, 4
  00605	3b f4		 cmp	 esi, esp
  00607	e8 00 00 00 00	 call	 __RTC_CheckEsp

; 100  : 	return true;

  0060c	b0 01		 mov	 al, 1
$L65141:

; 101  : }

  0060e	52		 push	 edx
  0060f	8b cd		 mov	 ecx, ebp
  00611	50		 push	 eax
  00612	8d 15 00 00 00
	00		 lea	 edx, DWORD PTR $L69370
  00618	e8 00 00 00 00	 call	 @_RTC_CheckStackVars@8
  0061d	58		 pop	 eax
  0061e	5a		 pop	 edx
  0061f	8b 4d fc	 mov	 ecx, DWORD PTR __$ArrayPad$[ebp]
  00622	e8 00 00 00 00	 call	 @__security_check_cookie@4
  00627	5f		 pop	 edi
  00628	5e		 pop	 esi
  00629	81 c4 9c 01 00
	00		 add	 esp, 412		; 0000019cH
  0062f	3b ec		 cmp	 ebp, esp
  00631	e8 00 00 00 00	 call	 __RTC_CheckEsp
  00636	8b e5		 mov	 esp, ebp
  00638	5d		 pop	 ebp
  00639	c3		 ret	 0
$L69370:
  0063a	02 00 00 00	 DD	 2
  0063e	00 00 00 00	 DD	 $L69369
$L69369:
  00642	f4 fe ff ff	 DD	 -268			; fffffef4H
  00646	04 01 00 00	 DD	 260			; 00000104H
  0064a	00 00 00 00	 DD	 $L69366
  0064e	6c fe ff ff	 DD	 -404			; fffffe6cH
  00652	80 00 00 00	 DD	 128			; 00000080H
  00656	00 00 00 00	 DD	 $L69367
$L69367:
  0065a	73		 DB	 115			; 00000073H
  0065b	7a		 DB	 122			; 0000007aH
  0065c	53		 DB	 83			; 00000053H
  0065d	52		 DB	 82			; 00000052H
  0065e	43		 DB	 67			; 00000043H
  0065f	00		 DB	 0
$L69366:
  00660	73		 DB	 115			; 00000073H
  00661	7a		 DB	 122			; 0000007aH
  00662	55		 DB	 85			; 00000055H
  00663	73		 DB	 115			; 00000073H
  00664	65		 DB	 101			; 00000065H
  00665	72		 DB	 114			; 00000072H
  00666	46		 DB	 70			; 00000046H
  00667	69		 DB	 105			; 00000069H
  00668	6c		 DB	 108			; 0000006cH
  00669	65		 DB	 101			; 00000065H
  0066a	50		 DB	 80			; 00000050H
  0066b	61		 DB	 97			; 00000061H
  0066c	74		 DB	 116			; 00000074H
  0066d	68		 DB	 104			; 00000068H
  0066e	00		 DB	 0
?SetUserID@YL_UserId@@SA_NPBD@Z ENDP			; YL_UserId::SetUserID
_TEXT	ENDS
EXTRN	__imp_??A?$basic_string@DU?$char_traits@D@std@@V?$allocator@D@2@@std@@QAEAADI@Z:NEAR
EXTRN	__imp_?length@?$basic_string@DU?$char_traits@D@std@@V?$allocator@D@2@@std@@QBEIXZ:NEAR
xdata$x	SEGMENT
$T69387	DD	0ffffffffH
	DD	FLAT:$L69375
	DD	00H
	DD	FLAT:$L69376
$T69378	DD	019930520H
	DD	02H
	DD	FLAT:$T69387
	DD	2 DUP(00H)
	DD	2 DUP(00H)
; Function compile flags: /Odt /RTCsu
xdata$x	ENDS
_TEXT	SEGMENT
$T69374 = -634						; size = 1
$T69373 = -633						; size = 1
_src$ = -628						; size = 28
_index$ = -596						; size = 4
_temp$ = -588						; size = 28
_file$ = -556						; size = 4
_szDesFilePath$ = -548					; size = 260
_szTemp$ = -280						; size = 260
__$ArrayPad$ = -16					; size = 4
__$EHRec$ = -12						; size = 12
__$ReturnAddr$ = 4					; size = 4
_szSRC$ = 8						; size = 4
_srclen$ = 12						; size = 4
?GetInstallSRC@YL_UserId@@SA_NQADH@Z PROC NEAR		; YL_UserId::GetInstallSRC

; 104  : {

  00670	55		 push	 ebp
  00671	8b ec		 mov	 ebp, esp
  00673	6a ff		 push	 -1
  00675	68 00 00 00 00	 push	 __ehhandler$?GetInstallSRC@YL_UserId@@SA_NQADH@Z
  0067a	64 a1 00 00 00
	00		 mov	 eax, DWORD PTR fs:__except_list
  00680	50		 push	 eax
  00681	64 89 25 00 00
	00 00		 mov	 DWORD PTR fs:__except_list, esp
  00688	81 ec 70 02 00
	00		 sub	 esp, 624		; 00000270H
  0068e	56		 push	 esi
  0068f	57		 push	 edi
  00690	8d bd 84 fd ff
	ff		 lea	 edi, DWORD PTR [ebp-636]
  00696	b9 9c 00 00 00	 mov	 ecx, 156		; 0000009cH
  0069b	b8 cc cc cc cc	 mov	 eax, -858993460		; ccccccccH
  006a0	f3 ab		 rep stosd
  006a2	a1 00 00 00 00	 mov	 eax, DWORD PTR ___security_cookie
  006a7	89 45 f0	 mov	 DWORD PTR __$ArrayPad$[ebp], eax

; 105  : 	memset(szSRC, 0, srclen);

  006aa	8b 45 0c	 mov	 eax, DWORD PTR _srclen$[ebp]
  006ad	50		 push	 eax
  006ae	6a 00		 push	 0
  006b0	8b 4d 08	 mov	 ecx, DWORD PTR _szSRC$[ebp]
  006b3	51		 push	 ecx
  006b4	e8 00 00 00 00	 call	 _memset
  006b9	83 c4 0c	 add	 esp, 12			; 0000000cH

; 106  : 	CHAR szTemp[MAX_PATH], szDesFilePath[MAX_PATH];
; 107  : 	if(!GetUserFilePath(szDesFilePath, MAX_PATH))

  006bc	68 04 01 00 00	 push	 260			; 00000104H
  006c1	8d 95 dc fd ff
	ff		 lea	 edx, DWORD PTR _szDesFilePath$[ebp]
  006c7	52		 push	 edx
  006c8	e8 00 00 00 00	 call	 ?GetUserFilePath@YL_UserId@@SA_NQADH@Z ; YL_UserId::GetUserFilePath
  006cd	83 c4 08	 add	 esp, 8
  006d0	0f b6 c0	 movzx	 eax, al
  006d3	85 c0		 test	 eax, eax
  006d5	75 07		 jne	 SHORT $L65156

; 108  : 	{
; 109  : 		return false;

  006d7	32 c0		 xor	 al, al
  006d9	e9 89 02 00 00	 jmp	 $L65153
$L65156:

; 110  : 	}
; 111  : 
; 112  : 	FILE* file;
; 113  : 	if( (file = fopen( szDesFilePath,"r")) == NULL )

  006de	8b f4		 mov	 esi, esp
  006e0	68 00 00 00 00	 push	 OFFSET FLAT:$SG65159
  006e5	8d 8d dc fd ff
	ff		 lea	 ecx, DWORD PTR _szDesFilePath$[ebp]
  006eb	51		 push	 ecx
  006ec	ff 15 00 00 00
	00		 call	 DWORD PTR __imp__fopen
  006f2	83 c4 08	 add	 esp, 8
  006f5	3b f4		 cmp	 esi, esp
  006f7	e8 00 00 00 00	 call	 __RTC_CheckEsp
  006fc	89 85 d4 fd ff
	ff		 mov	 DWORD PTR _file$[ebp], eax
  00702	83 bd d4 fd ff
	ff 00		 cmp	 DWORD PTR _file$[ebp], 0
  00709	75 07		 jne	 SHORT $L65158

; 114  : 	{		
; 115  : 		return false;

  0070b	32 c0		 xor	 al, al
  0070d	e9 55 02 00 00	 jmp	 $L65153
$L65158:

; 116  : 	}
; 117  : 	// ID, 
; 118  : 	memset(szTemp, 0, MAX_PATH);

  00712	68 04 01 00 00	 push	 260			; 00000104H
  00717	6a 00		 push	 0
  00719	8d 95 e8 fe ff
	ff		 lea	 edx, DWORD PTR _szTemp$[ebp]
  0071f	52		 push	 edx
  00720	e8 00 00 00 00	 call	 _memset
  00725	83 c4 0c	 add	 esp, 12			; 0000000cH

; 119  : 	fgets( szTemp, MAX_PATH, file );

  00728	8b f4		 mov	 esi, esp
  0072a	8b 85 d4 fd ff
	ff		 mov	 eax, DWORD PTR _file$[ebp]
  00730	50		 push	 eax
  00731	68 04 01 00 00	 push	 260			; 00000104H
  00736	8d 8d e8 fe ff
	ff		 lea	 ecx, DWORD PTR _szTemp$[ebp]
  0073c	51		 push	 ecx
  0073d	ff 15 00 00 00
	00		 call	 DWORD PTR __imp__fgets
  00743	83 c4 0c	 add	 esp, 12			; 0000000cH
  00746	3b f4		 cmp	 esi, esp
  00748	e8 00 00 00 00	 call	 __RTC_CheckEsp

; 120  : 	fclose( file );

  0074d	8b f4		 mov	 esi, esp
  0074f	8b 95 d4 fd ff
	ff		 mov	 edx, DWORD PTR _file$[ebp]
  00755	52		 push	 edx
  00756	ff 15 00 00 00
	00		 call	 DWORD PTR __imp__fclose
  0075c	83 c4 04	 add	 esp, 4
  0075f	3b f4		 cmp	 esi, esp
  00761	e8 00 00 00 00	 call	 __RTC_CheckEsp

; 121  : 
; 122  : 	string temp(szTemp);

  00766	8b f4		 mov	 esi, esp
  00768	8d 85 e8 fe ff
	ff		 lea	 eax, DWORD PTR _szTemp$[ebp]
  0076e	50		 push	 eax
  0076f	8d 8d b4 fd ff
	ff		 lea	 ecx, DWORD PTR _temp$[ebp]
  00775	ff 15 00 00 00
	00		 call	 DWORD PTR __imp_??0?$basic_string@DU?$char_traits@D@std@@V?$allocator@D@2@@std@@QAE@PBD@Z
  0077b	3b f4		 cmp	 esi, esp
  0077d	e8 00 00 00 00	 call	 __RTC_CheckEsp
  00782	c7 45 fc 00 00
	00 00		 mov	 DWORD PTR __$EHRec$[ebp+8], 0

; 123  : 	string::size_type index = temp.find_first_of('\r');

  00789	8b f4		 mov	 esi, esp
  0078b	6a 00		 push	 0
  0078d	6a 0d		 push	 13			; 0000000dH
  0078f	8d 8d b4 fd ff
	ff		 lea	 ecx, DWORD PTR _temp$[ebp]
  00795	ff 15 00 00 00
	00		 call	 DWORD PTR __imp_?find_first_of@?$basic_string@DU?$char_traits@D@std@@V?$allocator@D@2@@std@@QBEIDI@Z
  0079b	3b f4		 cmp	 esi, esp
  0079d	e8 00 00 00 00	 call	 __RTC_CheckEsp
  007a2	89 85 ac fd ff
	ff		 mov	 DWORD PTR _index$[ebp], eax

; 124  : 	string src = temp.substr(index+1, temp.length()-index-1);

  007a8	8b f4		 mov	 esi, esp
  007aa	8d 8d b4 fd ff
	ff		 lea	 ecx, DWORD PTR _temp$[ebp]
  007b0	ff 15 00 00 00
	00		 call	 DWORD PTR __imp_?length@?$basic_string@DU?$char_traits@D@std@@V?$allocator@D@2@@std@@QBEIXZ
  007b6	3b f4		 cmp	 esi, esp
  007b8	e8 00 00 00 00	 call	 __RTC_CheckEsp
  007bd	2b 85 ac fd ff
	ff		 sub	 eax, DWORD PTR _index$[ebp]
  007c3	83 e8 01	 sub	 eax, 1
  007c6	8b f4		 mov	 esi, esp
  007c8	50		 push	 eax
  007c9	8b 8d ac fd ff
	ff		 mov	 ecx, DWORD PTR _index$[ebp]
  007cf	83 c1 01	 add	 ecx, 1
  007d2	51		 push	 ecx
  007d3	8d 95 8c fd ff
	ff		 lea	 edx, DWORD PTR _src$[ebp]
  007d9	52		 push	 edx
  007da	8d 8d b4 fd ff
	ff		 lea	 ecx, DWORD PTR _temp$[ebp]
  007e0	ff 15 00 00 00
	00		 call	 DWORD PTR __imp_?substr@?$basic_string@DU?$char_traits@D@std@@V?$allocator@D@2@@std@@QBE?AV12@II@Z
  007e6	3b f4		 cmp	 esi, esp
  007e8	e8 00 00 00 00	 call	 __RTC_CheckEsp
  007ed	c6 45 fc 01	 mov	 BYTE PTR __$EHRec$[ebp+8], 1

; 125  : 	if(src.length() <= 0 || (src.length() == 1 && src[0] == '\r'))

  007f1	8b f4		 mov	 esi, esp
  007f3	8d 8d 8c fd ff
	ff		 lea	 ecx, DWORD PTR _src$[ebp]
  007f9	ff 15 00 00 00
	00		 call	 DWORD PTR __imp_?length@?$basic_string@DU?$char_traits@D@std@@V?$allocator@D@2@@std@@QBEIXZ
  007ff	3b f4		 cmp	 esi, esp
  00801	e8 00 00 00 00	 call	 __RTC_CheckEsp
  00806	85 c0		 test	 eax, eax
  00808	76 39		 jbe	 SHORT $L65165
  0080a	8b f4		 mov	 esi, esp
  0080c	8d 8d 8c fd ff
	ff		 lea	 ecx, DWORD PTR _src$[ebp]
  00812	ff 15 00 00 00
	00		 call	 DWORD PTR __imp_?length@?$basic_string@DU?$char_traits@D@std@@V?$allocator@D@2@@std@@QBEIXZ
  00818	3b f4		 cmp	 esi, esp
  0081a	e8 00 00 00 00	 call	 __RTC_CheckEsp
  0081f	83 f8 01	 cmp	 eax, 1
  00822	75 66		 jne	 SHORT $L65164
  00824	8b f4		 mov	 esi, esp
  00826	6a 00		 push	 0
  00828	8d 8d 8c fd ff
	ff		 lea	 ecx, DWORD PTR _src$[ebp]
  0082e	ff 15 00 00 00
	00		 call	 DWORD PTR __imp_??A?$basic_string@DU?$char_traits@D@std@@V?$allocator@D@2@@std@@QAEAADI@Z
  00834	3b f4		 cmp	 esi, esp
  00836	e8 00 00 00 00	 call	 __RTC_CheckEsp
  0083b	0f be 00	 movsx	 eax, BYTE PTR [eax]
  0083e	83 f8 0d	 cmp	 eax, 13			; 0000000dH
  00841	75 47		 jne	 SHORT $L65164
$L65165:

; 126  : 		return false;

  00843	c6 85 87 fd ff
	ff 00		 mov	 BYTE PTR $T69373[ebp], 0
  0084a	c6 45 fc 00	 mov	 BYTE PTR __$EHRec$[ebp+8], 0
  0084e	8b f4		 mov	 esi, esp
  00850	8d 8d 8c fd ff
	ff		 lea	 ecx, DWORD PTR _src$[ebp]
  00856	ff 15 00 00 00
	00		 call	 DWORD PTR __imp_??1?$basic_string@DU?$char_traits@D@std@@V?$allocator@D@2@@std@@QAE@XZ
  0085c	3b f4		 cmp	 esi, esp
  0085e	e8 00 00 00 00	 call	 __RTC_CheckEsp
  00863	c7 45 fc ff ff
	ff ff		 mov	 DWORD PTR __$EHRec$[ebp+8], -1
  0086a	8b f4		 mov	 esi, esp
  0086c	8d 8d b4 fd ff
	ff		 lea	 ecx, DWORD PTR _temp$[ebp]
  00872	ff 15 00 00 00
	00		 call	 DWORD PTR __imp_??1?$basic_string@DU?$char_traits@D@std@@V?$allocator@D@2@@std@@QAE@XZ
  00878	3b f4		 cmp	 esi, esp
  0087a	e8 00 00 00 00	 call	 __RTC_CheckEsp
  0087f	8a 85 87 fd ff
	ff		 mov	 al, BYTE PTR $T69373[ebp]
  00885	e9 dd 00 00 00	 jmp	 $L65153
$L65164:

; 127  : 	
; 128  : 	_snprintf(szSRC, srclen-1, "%s", src.c_str());

  0088a	8b f4		 mov	 esi, esp
  0088c	8d 8d 8c fd ff
	ff		 lea	 ecx, DWORD PTR _src$[ebp]
  00892	ff 15 00 00 00
	00		 call	 DWORD PTR __imp_?c_str@?$basic_string@DU?$char_traits@D@std@@V?$allocator@D@2@@std@@QBEPBDXZ
  00898	3b f4		 cmp	 esi, esp
  0089a	e8 00 00 00 00	 call	 __RTC_CheckEsp
  0089f	8b f4		 mov	 esi, esp
  008a1	50		 push	 eax
  008a2	68 00 00 00 00	 push	 OFFSET FLAT:$SG65167
  008a7	8b 4d 0c	 mov	 ecx, DWORD PTR _srclen$[ebp]
  008aa	83 e9 01	 sub	 ecx, 1
  008ad	51		 push	 ecx
  008ae	8b 55 08	 mov	 edx, DWORD PTR _szSRC$[ebp]
  008b1	52		 push	 edx
  008b2	ff 15 00 00 00
	00		 call	 DWORD PTR __imp___snprintf
  008b8	83 c4 10	 add	 esp, 16			; 00000010H
  008bb	3b f4		 cmp	 esi, esp
  008bd	e8 00 00 00 00	 call	 __RTC_CheckEsp

; 129  : 	szSRC[srclen-1] = '\0';

  008c2	8b 45 08	 mov	 eax, DWORD PTR _szSRC$[ebp]
  008c5	03 45 0c	 add	 eax, DWORD PTR _srclen$[ebp]
  008c8	c6 40 ff 00	 mov	 BYTE PTR [eax-1], 0

; 130  : 	if(src.length() < (unsigned)srclen)

  008cc	8b f4		 mov	 esi, esp
  008ce	8d 8d 8c fd ff
	ff		 lea	 ecx, DWORD PTR _src$[ebp]
  008d4	ff 15 00 00 00
	00		 call	 DWORD PTR __imp_?length@?$basic_string@DU?$char_traits@D@std@@V?$allocator@D@2@@std@@QBEIXZ
  008da	3b f4		 cmp	 esi, esp
  008dc	e8 00 00 00 00	 call	 __RTC_CheckEsp
  008e1	3b 45 0c	 cmp	 eax, DWORD PTR _srclen$[ebp]
  008e4	73 3f		 jae	 SHORT $L65169

; 131  : 	{
; 132  : 		if(szSRC[src.length()-1] == '\r')

  008e6	8b f4		 mov	 esi, esp
  008e8	8d 8d 8c fd ff
	ff		 lea	 ecx, DWORD PTR _src$[ebp]
  008ee	ff 15 00 00 00
	00		 call	 DWORD PTR __imp_?length@?$basic_string@DU?$char_traits@D@std@@V?$allocator@D@2@@std@@QBEIXZ
  008f4	3b f4		 cmp	 esi, esp
  008f6	e8 00 00 00 00	 call	 __RTC_CheckEsp
  008fb	8b 4d 08	 mov	 ecx, DWORD PTR _szSRC$[ebp]
  008fe	0f be 54 01 ff	 movsx	 edx, BYTE PTR [ecx+eax-1]
  00903	83 fa 0d	 cmp	 edx, 13			; 0000000dH
  00906	75 1d		 jne	 SHORT $L65169

; 133  : 			szSRC[src.length()-1] = '\0';

  00908	8b f4		 mov	 esi, esp
  0090a	8d 8d 8c fd ff
	ff		 lea	 ecx, DWORD PTR _src$[ebp]
  00910	ff 15 00 00 00
	00		 call	 DWORD PTR __imp_?length@?$basic_string@DU?$char_traits@D@std@@V?$allocator@D@2@@std@@QBEIXZ
  00916	3b f4		 cmp	 esi, esp
  00918	e8 00 00 00 00	 call	 __RTC_CheckEsp
  0091d	8b 4d 08	 mov	 ecx, DWORD PTR _szSRC$[ebp]
  00920	c6 44 01 ff 00	 mov	 BYTE PTR [ecx+eax-1], 0
$L65169:

; 134  : 	}
; 135  : 
; 136  : 	return true;

  00925	c6 85 86 fd ff
	ff 01		 mov	 BYTE PTR $T69374[ebp], 1
  0092c	c6 45 fc 00	 mov	 BYTE PTR __$EHRec$[ebp+8], 0
  00930	8b f4		 mov	 esi, esp
  00932	8d 8d 8c fd ff
	ff		 lea	 ecx, DWORD PTR _src$[ebp]
  00938	ff 15 00 00 00
	00		 call	 DWORD PTR __imp_??1?$basic_string@DU?$char_traits@D@std@@V?$allocator@D@2@@std@@QAE@XZ
  0093e	3b f4		 cmp	 esi, esp
  00940	e8 00 00 00 00	 call	 __RTC_CheckEsp
  00945	c7 45 fc ff ff
	ff ff		 mov	 DWORD PTR __$EHRec$[ebp+8], -1
  0094c	8b f4		 mov	 esi, esp
  0094e	8d 8d b4 fd ff
	ff		 lea	 ecx, DWORD PTR _temp$[ebp]
  00954	ff 15 00 00 00
	00		 call	 DWORD PTR __imp_??1?$basic_string@DU?$char_traits@D@std@@V?$allocator@D@2@@std@@QAE@XZ
  0095a	3b f4		 cmp	 esi, esp
  0095c	e8 00 00 00 00	 call	 __RTC_CheckEsp
  00961	8a 85 86 fd ff
	ff		 mov	 al, BYTE PTR $T69374[ebp]
$L65153:

; 137  : }

  00967	52		 push	 edx
  00968	8b cd		 mov	 ecx, ebp
  0096a	50		 push	 eax
  0096b	8d 15 00 00 00
	00		 lea	 edx, DWORD PTR $L69386
  00971	e8 00 00 00 00	 call	 @_RTC_CheckStackVars@8
  00976	58		 pop	 eax
  00977	5a		 pop	 edx
  00978	8b 4d f4	 mov	 ecx, DWORD PTR __$EHRec$[ebp]
  0097b	64 89 0d 00 00
	00 00		 mov	 DWORD PTR fs:__except_list, ecx
  00982	8b 4d f0	 mov	 ecx, DWORD PTR __$ArrayPad$[ebp]
  00985	e8 00 00 00 00	 call	 @__security_check_cookie@4
  0098a	5f		 pop	 edi
  0098b	5e		 pop	 esi
  0098c	81 c4 7c 02 00
	00		 add	 esp, 636		; 0000027cH
  00992	3b ec		 cmp	 ebp, esp
  00994	e8 00 00 00 00	 call	 __RTC_CheckEsp
  00999	8b e5		 mov	 esp, ebp
  0099b	5d		 pop	 ebp
  0099c	c3		 ret	 0
$L69386:
  0099d	04 00 00 00	 DD	 4
  009a1	00 00 00 00	 DD	 $L69385
$L69385:
  009a5	e8 fe ff ff	 DD	 -280			; fffffee8H
  009a9	04 01 00 00	 DD	 260			; 00000104H
  009ad	00 00 00 00	 DD	 $L69379
  009b1	dc fd ff ff	 DD	 -548			; fffffddcH
  009b5	04 01 00 00	 DD	 260			; 00000104H
  009b9	00 00 00 00	 DD	 $L69380
  009bd	b4 fd ff ff	 DD	 -588			; fffffdb4H
  009c1	1c 00 00 00	 DD	 28			; 0000001cH
  009c5	00 00 00 00	 DD	 $L69381
  009c9	8c fd ff ff	 DD	 -628			; fffffd8cH
  009cd	1c 00 00 00	 DD	 28			; 0000001cH
  009d1	00 00 00 00	 DD	 $L69382
$L69382:
  009d5	73		 DB	 115			; 00000073H
  009d6	72		 DB	 114			; 00000072H
  009d7	63		 DB	 99			; 00000063H
  009d8	00		 DB	 0
$L69381:
  009d9	74		 DB	 116			; 00000074H
  009da	65		 DB	 101			; 00000065H
  009db	6d		 DB	 109			; 0000006dH
  009dc	70		 DB	 112			; 00000070H
  009dd	00		 DB	 0
$L69380:
  009de	73		 DB	 115			; 00000073H
  009df	7a		 DB	 122			; 0000007aH
  009e0	44		 DB	 68			; 00000044H
  009e1	65		 DB	 101			; 00000065H
  009e2	73		 DB	 115			; 00000073H
  009e3	46		 DB	 70			; 00000046H
  009e4	69		 DB	 105			; 00000069H
  009e5	6c		 DB	 108			; 0000006cH
  009e6	65		 DB	 101			; 00000065H
  009e7	50		 DB	 80			; 00000050H
  009e8	61		 DB	 97			; 00000061H
  009e9	74		 DB	 116			; 00000074H
  009ea	68		 DB	 104			; 00000068H
  009eb	00		 DB	 0
$L69379:
  009ec	73		 DB	 115			; 00000073H
  009ed	7a		 DB	 122			; 0000007aH
  009ee	54		 DB	 84			; 00000054H
  009ef	65		 DB	 101			; 00000065H
  009f0	6d		 DB	 109			; 0000006dH
  009f1	70		 DB	 112			; 00000070H
  009f2	00		 DB	 0
_TEXT	ENDS
text$x	SEGMENT
$L69375:
  00034	8b f4		 mov	 esi, esp
  00036	8d 8d b4 fd ff
	ff		 lea	 ecx, DWORD PTR _temp$[ebp]
  0003c	ff 15 00 00 00
	00		 call	 DWORD PTR __imp_??1?$basic_string@DU?$char_traits@D@std@@V?$allocator@D@2@@std@@QAE@XZ
  00042	3b f4		 cmp	 esi, esp
  00044	e9 00 00 00 00	 jmp	 __RTC_CheckEsp
$L69376:
  00049	8b f4		 mov	 esi, esp
  0004b	8d 8d 8c fd ff
	ff		 lea	 ecx, DWORD PTR _src$[ebp]
  00051	ff 15 00 00 00
	00		 call	 DWORD PTR __imp_??1?$basic_string@DU?$char_traits@D@std@@V?$allocator@D@2@@std@@QAE@XZ
  00057	3b f4		 cmp	 esi, esp
  00059	e9 00 00 00 00	 jmp	 __RTC_CheckEsp
__ehhandler$?GetInstallSRC@YL_UserId@@SA_NQADH@Z:
  0005e	b8 00 00 00 00	 mov	 eax, OFFSET FLAT:$T69378
  00063	e9 00 00 00 00	 jmp	 ___CxxFrameHandler
text$x	ENDS
?GetInstallSRC@YL_UserId@@SA_NQADH@Z ENDP		; YL_UserId::GetInstallSRC
PUBLIC	?SetInstallSRC@YL_UserId@@SA_NPBD@Z		; YL_UserId::SetInstallSRC
; Function compile flags: /Odt /RTCsu
_TEXT	SEGMENT
_file$ = -348						; size = 4
_szID$ = -340						; size = 64
_szUserFilePath$ = -268					; size = 260
__$ArrayPad$ = -4					; size = 4
__$ReturnAddr$ = 4					; size = 4
_szSRC$ = 8						; size = 4
?SetInstallSRC@YL_UserId@@SA_NPBD@Z PROC NEAR		; YL_UserId::SetInstallSRC

; 140  : {

  00a00	55		 push	 ebp
  00a01	8b ec		 mov	 ebp, esp
  00a03	81 ec 5c 01 00
	00		 sub	 esp, 348		; 0000015cH
  00a09	56		 push	 esi
  00a0a	57		 push	 edi
  00a0b	8d bd a4 fe ff
	ff		 lea	 edi, DWORD PTR [ebp-348]
  00a11	b9 57 00 00 00	 mov	 ecx, 87			; 00000057H
  00a16	b8 cc cc cc cc	 mov	 eax, -858993460		; ccccccccH
  00a1b	f3 ab		 rep stosd
  00a1d	a1 00 00 00 00	 mov	 eax, DWORD PTR ___security_cookie
  00a22	89 45 fc	 mov	 DWORD PTR __$ArrayPad$[ebp], eax

; 141  : 	char szUserFilePath[MAX_PATH], szID[INT_LENGTH];
; 142  : 	if(!GetUserFilePath(szUserFilePath, MAX_PATH))

  00a25	68 04 01 00 00	 push	 260			; 00000104H
  00a2a	8d 85 f4 fe ff
	ff		 lea	 eax, DWORD PTR _szUserFilePath$[ebp]
  00a30	50		 push	 eax
  00a31	e8 00 00 00 00	 call	 ?GetUserFilePath@YL_UserId@@SA_NQADH@Z ; YL_UserId::GetUserFilePath
  00a36	83 c4 08	 add	 esp, 8
  00a39	0f b6 c8	 movzx	 ecx, al
  00a3c	85 c9		 test	 ecx, ecx
  00a3e	75 07		 jne	 SHORT $L65177

; 143  : 	{
; 144  : 		return false;

  00a40	32 c0		 xor	 al, al
  00a42	e9 a4 00 00 00	 jmp	 $L65174
$L65177:

; 145  : 	}
; 146  : 	GetUserID(szID, INT_LENGTH);

  00a47	6a 40		 push	 64			; 00000040H
  00a49	8d 95 ac fe ff
	ff		 lea	 edx, DWORD PTR _szID$[ebp]
  00a4f	52		 push	 edx
  00a50	e8 00 00 00 00	 call	 ?GetUserID@YL_UserId@@SA_NQADH@Z ; YL_UserId::GetUserID
  00a55	83 c4 08	 add	 esp, 8

; 147  : 
; 148  : 	FILE *file;
; 149  : 	if( (file = fopen( szUserFilePath, "w" )) == NULL )

  00a58	8b f4		 mov	 esi, esp
  00a5a	68 00 00 00 00	 push	 OFFSET FLAT:$SG65180
  00a5f	8d 85 f4 fe ff
	ff		 lea	 eax, DWORD PTR _szUserFilePath$[ebp]
  00a65	50		 push	 eax
  00a66	ff 15 00 00 00
	00		 call	 DWORD PTR __imp__fopen
  00a6c	83 c4 08	 add	 esp, 8
  00a6f	3b f4		 cmp	 esi, esp
  00a71	e8 00 00 00 00	 call	 __RTC_CheckEsp
  00a76	89 85 a4 fe ff
	ff		 mov	 DWORD PTR _file$[ebp], eax
  00a7c	83 bd a4 fe ff
	ff 00		 cmp	 DWORD PTR _file$[ebp], 0
  00a83	75 04		 jne	 SHORT $L65179

; 150  : 	{
; 151  : 		return false;

  00a85	32 c0		 xor	 al, al
  00a87	eb 62		 jmp	 SHORT $L65174
$L65179:

; 152  : 	}
; 153  : 	fprintf( file, "%s\r", szID );

  00a89	8b f4		 mov	 esi, esp
  00a8b	8d 8d ac fe ff
	ff		 lea	 ecx, DWORD PTR _szID$[ebp]
  00a91	51		 push	 ecx
  00a92	68 00 00 00 00	 push	 OFFSET FLAT:$SG65181
  00a97	8b 95 a4 fe ff
	ff		 mov	 edx, DWORD PTR _file$[ebp]
  00a9d	52		 push	 edx
  00a9e	ff 15 00 00 00
	00		 call	 DWORD PTR __imp__fprintf
  00aa4	83 c4 0c	 add	 esp, 12			; 0000000cH
  00aa7	3b f4		 cmp	 esi, esp
  00aa9	e8 00 00 00 00	 call	 __RTC_CheckEsp

; 154  : 	fprintf( file, "%s\r", szSRC);

  00aae	8b f4		 mov	 esi, esp
  00ab0	8b 45 08	 mov	 eax, DWORD PTR _szSRC$[ebp]
  00ab3	50		 push	 eax
  00ab4	68 00 00 00 00	 push	 OFFSET FLAT:$SG65182
  00ab9	8b 8d a4 fe ff
	ff		 mov	 ecx, DWORD PTR _file$[ebp]
  00abf	51		 push	 ecx
  00ac0	ff 15 00 00 00
	00		 call	 DWORD PTR __imp__fprintf
  00ac6	83 c4 0c	 add	 esp, 12			; 0000000cH
  00ac9	3b f4		 cmp	 esi, esp
  00acb	e8 00 00 00 00	 call	 __RTC_CheckEsp

; 155  : 	fclose( file );

  00ad0	8b f4		 mov	 esi, esp
  00ad2	8b 95 a4 fe ff
	ff		 mov	 edx, DWORD PTR _file$[ebp]
  00ad8	52		 push	 edx
  00ad9	ff 15 00 00 00
	00		 call	 DWORD PTR __imp__fclose
  00adf	83 c4 04	 add	 esp, 4
  00ae2	3b f4		 cmp	 esi, esp
  00ae4	e8 00 00 00 00	 call	 __RTC_CheckEsp

; 156  : 	return true;

  00ae9	b0 01		 mov	 al, 1
$L65174:

; 157  : }

  00aeb	52		 push	 edx
  00aec	8b cd		 mov	 ecx, ebp
  00aee	50		 push	 eax
  00aef	8d 15 00 00 00
	00		 lea	 edx, DWORD PTR $L69394
  00af5	e8 00 00 00 00	 call	 @_RTC_CheckStackVars@8
  00afa	58		 pop	 eax
  00afb	5a		 pop	 edx
  00afc	8b 4d fc	 mov	 ecx, DWORD PTR __$ArrayPad$[ebp]
  00aff	e8 00 00 00 00	 call	 @__security_check_cookie@4
  00b04	5f		 pop	 edi
  00b05	5e		 pop	 esi
  00b06	81 c4 5c 01 00
	00		 add	 esp, 348		; 0000015cH
  00b0c	3b ec		 cmp	 ebp, esp
  00b0e	e8 00 00 00 00	 call	 __RTC_CheckEsp
  00b13	8b e5		 mov	 esp, ebp
  00b15	5d		 pop	 ebp
  00b16	c3		 ret	 0
$L69394:
  00b17	02 00 00 00	 DD	 2
  00b1b	00 00 00 00	 DD	 $L69393
$L69393:
  00b1f	f4 fe ff ff	 DD	 -268			; fffffef4H
  00b23	04 01 00 00	 DD	 260			; 00000104H
  00b27	00 00 00 00	 DD	 $L69390
  00b2b	ac fe ff ff	 DD	 -340			; fffffeacH
  00b2f	40 00 00 00	 DD	 64			; 00000040H
  00b33	00 00 00 00	 DD	 $L69391
$L69391:
  00b37	73		 DB	 115			; 00000073H
  00b38	7a		 DB	 122			; 0000007aH
  00b39	49		 DB	 73			; 00000049H
  00b3a	44		 DB	 68			; 00000044H
  00b3b	00		 DB	 0
$L69390:
  00b3c	73		 DB	 115			; 00000073H
  00b3d	7a		 DB	 122			; 0000007aH
  00b3e	55		 DB	 85			; 00000055H
  00b3f	73		 DB	 115			; 00000073H
  00b40	65		 DB	 101			; 00000065H
  00b41	72		 DB	 114			; 00000072H
  00b42	46		 DB	 70			; 00000046H
  00b43	69		 DB	 105			; 00000069H
  00b44	6c		 DB	 108			; 0000006cH
  00b45	65		 DB	 101			; 00000065H
  00b46	50		 DB	 80			; 00000050H
  00b47	61		 DB	 97			; 00000061H
  00b48	74		 DB	 116			; 00000074H
  00b49	68		 DB	 104			; 00000068H
  00b4a	00		 DB	 0
?SetInstallSRC@YL_UserId@@SA_NPBD@Z ENDP		; YL_UserId::SetInstallSRC
_TEXT	ENDS
PUBLIC	??$?HDU?$char_traits@D@std@@V?$allocator@D@1@@std@@YA?AV?$basic_string@DU?$char_traits@D@std@@V?$allocator@D@2@@0@ABV10@0@Z ; std::operator+<char,std::char_traits<char>,std::allocator<char> >
EXTRN	__imp_??0?$basic_string@DU?$char_traits@D@std@@V?$allocator@D@2@@std@@QAE@ABV01@@Z:NEAR
EXTRN	__imp_??Y?$basic_string@DU?$char_traits@D@std@@V?$allocator@D@2@@std@@QAEAAV01@ABV01@@Z:NEAR
;	COMDAT xdata$x
; File d:\program files (x86)\microsoft visual studio .net 2003\vc7\include\string
xdata$x	SEGMENT
$T69404	DD	0ffffffffH
	DD	FLAT:$L69398
	DD	00H
	DD	FLAT:$L69397
$T69402	DD	019930520H
	DD	02H
	DD	FLAT:$T69404
	DD	2 DUP(00H)
	DD	2 DUP(00H)
; Function compile flags: /Odt /RTCsu
xdata$x	ENDS
;	COMDAT ??$?HDU?$char_traits@D@std@@V?$allocator@D@1@@std@@YA?AV?$basic_string@DU?$char_traits@D@std@@V?$allocator@D@2@@0@ABV10@0@Z
_TEXT	SEGMENT
tv77 = -52						; size = 4
tv82 = -48						; size = 4
$T69399 = -44						; size = 4
$T69396 = -40						; size = 28
__$EHRec$ = -12						; size = 12
___$ReturnUdt$ = 8					; size = 4
__Left$ = 12						; size = 4
__Right$ = 16						; size = 4
??$?HDU?$char_traits@D@std@@V?$allocator@D@1@@std@@YA?AV?$basic_string@DU?$char_traits@D@std@@V?$allocator@D@2@@0@ABV10@0@Z PROC NEAR ; std::operator+<char,std::char_traits<char>,std::allocator<char> >, COMDAT

; 21   : 	{	// return string + string

  00000	55		 push	 ebp
  00001	8b ec		 mov	 ebp, esp
  00003	6a ff		 push	 -1
  00005	68 00 00 00 00	 push	 __ehhandler$??$?HDU?$char_traits@D@std@@V?$allocator@D@1@@std@@YA?AV?$basic_string@DU?$char_traits@D@std@@V?$allocator@D@2@@0@ABV10@0@Z
  0000a	64 a1 00 00 00
	00		 mov	 eax, DWORD PTR fs:__except_list
  00010	50		 push	 eax
  00011	64 89 25 00 00
	00 00		 mov	 DWORD PTR fs:__except_list, esp
  00018	83 ec 28	 sub	 esp, 40			; 00000028H
  0001b	56		 push	 esi
  0001c	57		 push	 edi
  0001d	8d 7d cc	 lea	 edi, DWORD PTR [ebp-52]
  00020	b9 0a 00 00 00	 mov	 ecx, 10			; 0000000aH
  00025	b8 cc cc cc cc	 mov	 eax, -858993460		; ccccccccH
  0002a	f3 ab		 rep stosd
  0002c	c7 45 d4 00 00
	00 00		 mov	 DWORD PTR $T69399[ebp], 0

; 22   : 	return (basic_string<_Elem, _Traits, _Alloc>(_Left) += _Right);

  00033	8b f4		 mov	 esi, esp
  00035	8b 45 0c	 mov	 eax, DWORD PTR __Left$[ebp]
  00038	50		 push	 eax
  00039	8d 4d d8	 lea	 ecx, DWORD PTR $T69396[ebp]
  0003c	ff 15 00 00 00
	00		 call	 DWORD PTR __imp_??0?$basic_string@DU?$char_traits@D@std@@V?$allocator@D@2@@std@@QAE@ABV01@@Z
  00042	3b f4		 cmp	 esi, esp
  00044	e8 00 00 00 00	 call	 __RTC_CheckEsp
  00049	89 45 d0	 mov	 DWORD PTR tv82[ebp], eax
  0004c	8b 4d d0	 mov	 ecx, DWORD PTR tv82[ebp]
  0004f	89 4d cc	 mov	 DWORD PTR tv77[ebp], ecx
  00052	c7 45 fc 01 00
	00 00		 mov	 DWORD PTR __$EHRec$[ebp+8], 1
  00059	8b f4		 mov	 esi, esp
  0005b	8b 55 10	 mov	 edx, DWORD PTR __Right$[ebp]
  0005e	52		 push	 edx
  0005f	8b 4d cc	 mov	 ecx, DWORD PTR tv77[ebp]
  00062	ff 15 00 00 00
	00		 call	 DWORD PTR __imp_??Y?$basic_string@DU?$char_traits@D@std@@V?$allocator@D@2@@std@@QAEAAV01@ABV01@@Z
  00068	3b f4		 cmp	 esi, esp
  0006a	e8 00 00 00 00	 call	 __RTC_CheckEsp
  0006f	8b f4		 mov	 esi, esp
  00071	50		 push	 eax
  00072	8b 4d 08	 mov	 ecx, DWORD PTR ___$ReturnUdt$[ebp]
  00075	ff 15 00 00 00
	00		 call	 DWORD PTR __imp_??0?$basic_string@DU?$char_traits@D@std@@V?$allocator@D@2@@std@@QAE@ABV01@@Z
  0007b	3b f4		 cmp	 esi, esp
  0007d	e8 00 00 00 00	 call	 __RTC_CheckEsp
  00082	8b 45 d4	 mov	 eax, DWORD PTR $T69399[ebp]
  00085	83 c8 01	 or	 eax, 1
  00088	89 45 d4	 mov	 DWORD PTR $T69399[ebp], eax
  0008b	c6 45 fc 00	 mov	 BYTE PTR __$EHRec$[ebp+8], 0
  0008f	8b f4		 mov	 esi, esp
  00091	8d 4d d8	 lea	 ecx, DWORD PTR $T69396[ebp]
  00094	ff 15 00 00 00
	00		 call	 DWORD PTR __imp_??1?$basic_string@DU?$char_traits@D@std@@V?$allocator@D@2@@std@@QAE@XZ
  0009a	3b f4		 cmp	 esi, esp
  0009c	e8 00 00 00 00	 call	 __RTC_CheckEsp
  000a1	8b 45 08	 mov	 eax, DWORD PTR ___$ReturnUdt$[ebp]

; 23   : 	}

  000a4	8b 4d f4	 mov	 ecx, DWORD PTR __$EHRec$[ebp]
  000a7	64 89 0d 00 00
	00 00		 mov	 DWORD PTR fs:__except_list, ecx
  000ae	5f		 pop	 edi
  000af	5e		 pop	 esi
  000b0	83 c4 34	 add	 esp, 52			; 00000034H
  000b3	3b ec		 cmp	 ebp, esp
  000b5	e8 00 00 00 00	 call	 __RTC_CheckEsp
  000ba	8b e5		 mov	 esp, ebp
  000bc	5d		 pop	 ebp
  000bd	c3		 ret	 0
_TEXT	ENDS
;	COMDAT text$x
text$x	SEGMENT
$L69397:
  00000	8b f4		 mov	 esi, esp
  00002	8d 4d d8	 lea	 ecx, DWORD PTR $T69396[ebp]
  00005	ff 15 00 00 00
	00		 call	 DWORD PTR __imp_??1?$basic_string@DU?$char_traits@D@std@@V?$allocator@D@2@@std@@QAE@XZ
  0000b	3b f4		 cmp	 esi, esp
  0000d	e9 00 00 00 00	 jmp	 __RTC_CheckEsp
$L69398:
  00012	8b 45 d4	 mov	 eax, DWORD PTR $T69399[ebp]
  00015	83 e0 01	 and	 eax, 1
  00018	0f 84 16 00 00
	00		 je	 $L69400
  0001e	83 65 d4 fe	 and	 DWORD PTR $T69399[ebp], -2 ; fffffffeH
  00022	8b f4		 mov	 esi, esp
  00024	8b 4d 08	 mov	 ecx, DWORD PTR ___$ReturnUdt$[ebp]
  00027	ff 15 00 00 00
	00		 call	 DWORD PTR __imp_??1?$basic_string@DU?$char_traits@D@std@@V?$allocator@D@2@@std@@QAE@XZ
  0002d	3b f4		 cmp	 esi, esp
  0002f	e9 00 00 00 00	 jmp	 __RTC_CheckEsp
$L69400:
  00034	c3		 ret	 0
__ehhandler$??$?HDU?$char_traits@D@std@@V?$allocator@D@1@@std@@YA?AV?$basic_string@DU?$char_traits@D@std@@V?$allocator@D@2@@0@ABV10@0@Z:
  00035	b8 00 00 00 00	 mov	 eax, OFFSET FLAT:$T69402
  0003a	e9 00 00 00 00	 jmp	 ___CxxFrameHandler
text$x	ENDS
??$?HDU?$char_traits@D@std@@V?$allocator@D@1@@std@@YA?AV?$basic_string@DU?$char_traits@D@std@@V?$allocator@D@2@@0@ABV10@0@Z ENDP ; std::operator+<char,std::char_traits<char>,std::allocator<char> >
PUBLIC	??$?HDU?$char_traits@D@std@@V?$allocator@D@1@@std@@YA?AV?$basic_string@DU?$char_traits@D@std@@V?$allocator@D@2@@0@PBDABV10@@Z ; std::operator+<char,std::char_traits<char>,std::allocator<char> >
;	COMDAT xdata$x
xdata$x	SEGMENT
$T69416	DD	0ffffffffH
	DD	FLAT:$L69410
	DD	00H
	DD	FLAT:$L69409
$T69414	DD	019930520H
	DD	02H
	DD	FLAT:$T69416
	DD	2 DUP(00H)
	DD	2 DUP(00H)
; Function compile flags: /Odt /RTCsu
xdata$x	ENDS
;	COMDAT ??$?HDU?$char_traits@D@std@@V?$allocator@D@1@@std@@YA?AV?$basic_string@DU?$char_traits@D@std@@V?$allocator@D@2@@0@PBDABV10@@Z
_TEXT	SEGMENT
tv77 = -52						; size = 4
tv82 = -48						; size = 4
$T69411 = -44						; size = 4
$T69408 = -40						; size = 28
__$EHRec$ = -12						; size = 12
___$ReturnUdt$ = 8					; size = 4
__Left$ = 12						; size = 4
__Right$ = 16						; size = 4
??$?HDU?$char_traits@D@std@@V?$allocator@D@1@@std@@YA?AV?$basic_string@DU?$char_traits@D@std@@V?$allocator@D@2@@0@PBDABV10@@Z PROC NEAR ; std::operator+<char,std::char_traits<char>,std::allocator<char> >, COMDAT

; 31   : 	{	// return NTCS + string

  00000	55		 push	 ebp
  00001	8b ec		 mov	 ebp, esp
  00003	6a ff		 push	 -1
  00005	68 00 00 00 00	 push	 __ehhandler$??$?HDU?$char_traits@D@std@@V?$allocator@D@1@@std@@YA?AV?$basic_string@DU?$char_traits@D@std@@V?$allocator@D@2@@0@PBDABV10@@Z
  0000a	64 a1 00 00 00
	00		 mov	 eax, DWORD PTR fs:__except_list
  00010	50		 push	 eax
  00011	64 89 25 00 00
	00 00		 mov	 DWORD PTR fs:__except_list, esp
  00018	83 ec 28	 sub	 esp, 40			; 00000028H
  0001b	56		 push	 esi
  0001c	57		 push	 edi
  0001d	8d 7d cc	 lea	 edi, DWORD PTR [ebp-52]
  00020	b9 0a 00 00 00	 mov	 ecx, 10			; 0000000aH
  00025	b8 cc cc cc cc	 mov	 eax, -858993460		; ccccccccH
  0002a	f3 ab		 rep stosd
  0002c	c7 45 d4 00 00
	00 00		 mov	 DWORD PTR $T69411[ebp], 0

; 32   : 	return (basic_string<_Elem, _Traits, _Alloc>(_Left) += _Right);

  00033	8b f4		 mov	 esi, esp
  00035	8b 45 0c	 mov	 eax, DWORD PTR __Left$[ebp]
  00038	50		 push	 eax
  00039	8d 4d d8	 lea	 ecx, DWORD PTR $T69408[ebp]
  0003c	ff 15 00 00 00
	00		 call	 DWORD PTR __imp_??0?$basic_string@DU?$char_traits@D@std@@V?$allocator@D@2@@std@@QAE@PBD@Z
  00042	3b f4		 cmp	 esi, esp
  00044	e8 00 00 00 00	 call	 __RTC_CheckEsp
  00049	89 45 d0	 mov	 DWORD PTR tv82[ebp], eax
  0004c	8b 4d d0	 mov	 ecx, DWORD PTR tv82[ebp]
  0004f	89 4d cc	 mov	 DWORD PTR tv77[ebp], ecx
  00052	c7 45 fc 01 00
	00 00		 mov	 DWORD PTR __$EHRec$[ebp+8], 1
  00059	8b f4		 mov	 esi, esp
  0005b	8b 55 10	 mov	 edx, DWORD PTR __Right$[ebp]
  0005e	52		 push	 edx
  0005f	8b 4d cc	 mov	 ecx, DWORD PTR tv77[ebp]
  00062	ff 15 00 00 00
	00		 call	 DWORD PTR __imp_??Y?$basic_string@DU?$char_traits@D@std@@V?$allocator@D@2@@std@@QAEAAV01@ABV01@@Z
  00068	3b f4		 cmp	 esi, esp
  0006a	e8 00 00 00 00	 call	 __RTC_CheckEsp
  0006f	8b f4		 mov	 esi, esp
  00071	50		 push	 eax
  00072	8b 4d 08	 mov	 ecx, DWORD PTR ___$ReturnUdt$[ebp]
  00075	ff 15 00 00 00
	00		 call	 DWORD PTR __imp_??0?$basic_string@DU?$char_traits@D@std@@V?$allocator@D@2@@std@@QAE@ABV01@@Z
  0007b	3b f4		 cmp	 esi, esp
  0007d	e8 00 00 00 00	 call	 __RTC_CheckEsp
  00082	8b 45 d4	 mov	 eax, DWORD PTR $T69411[ebp]
  00085	83 c8 01	 or	 eax, 1
  00088	89 45 d4	 mov	 DWORD PTR $T69411[ebp], eax
  0008b	c6 45 fc 00	 mov	 BYTE PTR __$EHRec$[ebp+8], 0
  0008f	8b f4		 mov	 esi, esp
  00091	8d 4d d8	 lea	 ecx, DWORD PTR $T69408[ebp]
  00094	ff 15 00 00 00
	00		 call	 DWORD PTR __imp_??1?$basic_string@DU?$char_traits@D@std@@V?$allocator@D@2@@std@@QAE@XZ
  0009a	3b f4		 cmp	 esi, esp
  0009c	e8 00 00 00 00	 call	 __RTC_CheckEsp
  000a1	8b 45 08	 mov	 eax, DWORD PTR ___$ReturnUdt$[ebp]

; 33   : 	}

  000a4	8b 4d f4	 mov	 ecx, DWORD PTR __$EHRec$[ebp]
  000a7	64 89 0d 00 00
	00 00		 mov	 DWORD PTR fs:__except_list, ecx
  000ae	5f		 pop	 edi
  000af	5e		 pop	 esi
  000b0	83 c4 34	 add	 esp, 52			; 00000034H
  000b3	3b ec		 cmp	 ebp, esp
  000b5	e8 00 00 00 00	 call	 __RTC_CheckEsp
  000ba	8b e5		 mov	 esp, ebp
  000bc	5d		 pop	 ebp
  000bd	c3		 ret	 0
_TEXT	ENDS
;	COMDAT text$x
text$x	SEGMENT
$L69409:
  00000	8b f4		 mov	 esi, esp
  00002	8d 4d d8	 lea	 ecx, DWORD PTR $T69408[ebp]
  00005	ff 15 00 00 00
	00		 call	 DWORD PTR __imp_??1?$basic_string@DU?$char_traits@D@std@@V?$allocator@D@2@@std@@QAE@XZ
  0000b	3b f4		 cmp	 esi, esp
  0000d	e9 00 00 00 00	 jmp	 __RTC_CheckEsp
$L69410:
  00012	8b 45 d4	 mov	 eax, DWORD PTR $T69411[ebp]
  00015	83 e0 01	 and	 eax, 1
  00018	0f 84 16 00 00
	00		 je	 $L69412
  0001e	83 65 d4 fe	 and	 DWORD PTR $T69411[ebp], -2 ; fffffffeH
  00022	8b f4		 mov	 esi, esp
  00024	8b 4d 08	 mov	 ecx, DWORD PTR ___$ReturnUdt$[ebp]
  00027	ff 15 00 00 00
	00		 call	 DWORD PTR __imp_??1?$basic_string@DU?$char_traits@D@std@@V?$allocator@D@2@@std@@QAE@XZ
  0002d	3b f4		 cmp	 esi, esp
  0002f	e9 00 00 00 00	 jmp	 __RTC_CheckEsp
$L69412:
  00034	c3		 ret	 0
__ehhandler$??$?HDU?$char_traits@D@std@@V?$allocator@D@1@@std@@YA?AV?$basic_string@DU?$char_traits@D@std@@V?$allocator@D@2@@0@PBDABV10@@Z:
  00035	b8 00 00 00 00	 mov	 eax, OFFSET FLAT:$T69414
  0003a	e9 00 00 00 00	 jmp	 ___CxxFrameHandler
text$x	ENDS
??$?HDU?$char_traits@D@std@@V?$allocator@D@1@@std@@YA?AV?$basic_string@DU?$char_traits@D@std@@V?$allocator@D@2@@0@PBDABV10@@Z ENDP ; std::operator+<char,std::char_traits<char>,std::allocator<char> >
PUBLIC	??$?HDU?$char_traits@D@std@@V?$allocator@D@1@@std@@YA?AV?$basic_string@DU?$char_traits@D@std@@V?$allocator@D@2@@0@DABV10@@Z ; std::operator+<char,std::char_traits<char>,std::allocator<char> >
EXTRN	__imp_??0?$basic_string@DU?$char_traits@D@std@@V?$allocator@D@2@@std@@QAE@ID@Z:NEAR
;	COMDAT xdata$x
xdata$x	SEGMENT
$T69428	DD	0ffffffffH
	DD	FLAT:$L69422
	DD	00H
	DD	FLAT:$L69421
$T69426	DD	019930520H
	DD	02H
	DD	FLAT:$T69428
	DD	2 DUP(00H)
	DD	2 DUP(00H)
; Function compile flags: /Odt /RTCsu
xdata$x	ENDS
;	COMDAT ??$?HDU?$char_traits@D@std@@V?$allocator@D@1@@std@@YA?AV?$basic_string@DU?$char_traits@D@std@@V?$allocator@D@2@@0@DABV10@@Z
_TEXT	SEGMENT
tv78 = -52						; size = 4
tv83 = -48						; size = 4
$T69423 = -44						; size = 4
$T69420 = -40						; size = 28
__$EHRec$ = -12						; size = 12
___$ReturnUdt$ = 8					; size = 4
__Left$ = 12						; size = 1
__Right$ = 16						; size = 4
??$?HDU?$char_traits@D@std@@V?$allocator@D@1@@std@@YA?AV?$basic_string@DU?$char_traits@D@std@@V?$allocator@D@2@@0@DABV10@@Z PROC NEAR ; std::operator+<char,std::char_traits<char>,std::allocator<char> >, COMDAT

; 41   : 	{	// return character + string

  00000	55		 push	 ebp
  00001	8b ec		 mov	 ebp, esp
  00003	6a ff		 push	 -1
  00005	68 00 00 00 00	 push	 __ehhandler$??$?HDU?$char_traits@D@std@@V?$allocator@D@1@@std@@YA?AV?$basic_string@DU?$char_traits@D@std@@V?$allocator@D@2@@0@DABV10@@Z
  0000a	64 a1 00 00 00
	00		 mov	 eax, DWORD PTR fs:__except_list
  00010	50		 push	 eax
  00011	64 89 25 00 00
	00 00		 mov	 DWORD PTR fs:__except_list, esp
  00018	83 ec 28	 sub	 esp, 40			; 00000028H
  0001b	56		 push	 esi
  0001c	57		 push	 edi
  0001d	8d 7d cc	 lea	 edi, DWORD PTR [ebp-52]
  00020	b9 0a 00 00 00	 mov	 ecx, 10			; 0000000aH
  00025	b8 cc cc cc cc	 mov	 eax, -858993460		; ccccccccH
  0002a	f3 ab		 rep stosd
  0002c	c7 45 d4 00 00
	00 00		 mov	 DWORD PTR $T69423[ebp], 0

; 42   : 	return (basic_string<_Elem, _Traits, _Alloc>(1, _Left) += _Right);

  00033	8b f4		 mov	 esi, esp
  00035	8a 45 0c	 mov	 al, BYTE PTR __Left$[ebp]
  00038	50		 push	 eax
  00039	6a 01		 push	 1
  0003b	8d 4d d8	 lea	 ecx, DWORD PTR $T69420[ebp]
  0003e	ff 15 00 00 00
	00		 call	 DWORD PTR __imp_??0?$basic_string@DU?$char_traits@D@std@@V?$allocator@D@2@@std@@QAE@ID@Z
  00044	3b f4		 cmp	 esi, esp
  00046	e8 00 00 00 00	 call	 __RTC_CheckEsp
  0004b	89 45 d0	 mov	 DWORD PTR tv83[ebp], eax
  0004e	8b 4d d0	 mov	 ecx, DWORD PTR tv83[ebp]
  00051	89 4d cc	 mov	 DWORD PTR tv78[ebp], ecx
  00054	c7 45 fc 01 00
	00 00		 mov	 DWORD PTR __$EHRec$[ebp+8], 1
  0005b	8b f4		 mov	 esi, esp
  0005d	8b 55 10	 mov	 edx, DWORD PTR __Right$[ebp]
  00060	52		 push	 edx
  00061	8b 4d cc	 mov	 ecx, DWORD PTR tv78[ebp]
  00064	ff 15 00 00 00
	00		 call	 DWORD PTR __imp_??Y?$basic_string@DU?$char_traits@D@std@@V?$allocator@D@2@@std@@QAEAAV01@ABV01@@Z
  0006a	3b f4		 cmp	 esi, esp
  0006c	e8 00 00 00 00	 call	 __RTC_CheckEsp
  00071	8b f4		 mov	 esi, esp
  00073	50		 push	 eax
  00074	8b 4d 08	 mov	 ecx, DWORD PTR ___$ReturnUdt$[ebp]
  00077	ff 15 00 00 00
	00		 call	 DWORD PTR __imp_??0?$basic_string@DU?$char_traits@D@std@@V?$allocator@D@2@@std@@QAE@ABV01@@Z
  0007d	3b f4		 cmp	 esi, esp
  0007f	e8 00 00 00 00	 call	 __RTC_CheckEsp
  00084	8b 45 d4	 mov	 eax, DWORD PTR $T69423[ebp]
  00087	83 c8 01	 or	 eax, 1
  0008a	89 45 d4	 mov	 DWORD PTR $T69423[ebp], eax
  0008d	c6 45 fc 00	 mov	 BYTE PTR __$EHRec$[ebp+8], 0
  00091	8b f4		 mov	 esi, esp
  00093	8d 4d d8	 lea	 ecx, DWORD PTR $T69420[ebp]
  00096	ff 15 00 00 00
	00		 call	 DWORD PTR __imp_??1?$basic_string@DU?$char_traits@D@std@@V?$allocator@D@2@@std@@QAE@XZ
  0009c	3b f4		 cmp	 esi, esp
  0009e	e8 00 00 00 00	 call	 __RTC_CheckEsp
  000a3	8b 45 08	 mov	 eax, DWORD PTR ___$ReturnUdt$[ebp]

; 43   : 	}

  000a6	8b 4d f4	 mov	 ecx, DWORD PTR __$EHRec$[ebp]
  000a9	64 89 0d 00 00
	00 00		 mov	 DWORD PTR fs:__except_list, ecx
  000b0	5f		 pop	 edi
  000b1	5e		 pop	 esi
  000b2	83 c4 34	 add	 esp, 52			; 00000034H
  000b5	3b ec		 cmp	 ebp, esp
  000b7	e8 00 00 00 00	 call	 __RTC_CheckEsp
  000bc	8b e5		 mov	 esp, ebp
  000be	5d		 pop	 ebp
  000bf	c3		 ret	 0
_TEXT	ENDS
;	COMDAT text$x
text$x	SEGMENT
$L69421:
  00000	8b f4		 mov	 esi, esp
  00002	8d 4d d8	 lea	 ecx, DWORD PTR $T69420[ebp]
  00005	ff 15 00 00 00
	00		 call	 DWORD PTR __imp_??1?$basic_string@DU?$char_traits@D@std@@V?$allocator@D@2@@std@@QAE@XZ
  0000b	3b f4		 cmp	 esi, esp
  0000d	e9 00 00 00 00	 jmp	 __RTC_CheckEsp
$L69422:
  00012	8b 45 d4	 mov	 eax, DWORD PTR $T69423[ebp]
  00015	83 e0 01	 and	 eax, 1
  00018	0f 84 16 00 00
	00		 je	 $L69424
  0001e	83 65 d4 fe	 and	 DWORD PTR $T69423[ebp], -2 ; fffffffeH
  00022	8b f4		 mov	 esi, esp
  00024	8b 4d 08	 mov	 ecx, DWORD PTR ___$ReturnUdt$[ebp]
  00027	ff 15 00 00 00
	00		 call	 DWORD PTR __imp_??1?$basic_string@DU?$char_traits@D@std@@V?$allocator@D@2@@std@@QAE@XZ
  0002d	3b f4		 cmp	 esi, esp
  0002f	e9 00 00 00 00	 jmp	 __RTC_CheckEsp
$L69424:
  00034	c3		 ret	 0
__ehhandler$??$?HDU?$char_traits@D@std@@V?$allocator@D@1@@std@@YA?AV?$basic_string@DU?$char_traits@D@std@@V?$allocator@D@2@@0@DABV10@@Z:
  00035	b8 00 00 00 00	 mov	 eax, OFFSET FLAT:$T69426
  0003a	e9 00 00 00 00	 jmp	 ___CxxFrameHandler
text$x	ENDS
??$?HDU?$char_traits@D@std@@V?$allocator@D@1@@std@@YA?AV?$basic_string@DU?$char_traits@D@std@@V?$allocator@D@2@@0@DABV10@@Z ENDP ; std::operator+<char,std::char_traits<char>,std::allocator<char> >
PUBLIC	??$?HDU?$char_traits@D@std@@V?$allocator@D@1@@std@@YA?AV?$basic_string@DU?$char_traits@D@std@@V?$allocator@D@2@@0@ABV10@PBD@Z ; std::operator+<char,std::char_traits<char>,std::allocator<char> >
EXTRN	__imp_??Y?$basic_string@DU?$char_traits@D@std@@V?$allocator@D@2@@std@@QAEAAV01@PBD@Z:NEAR
;	COMDAT xdata$x
xdata$x	SEGMENT
$T69440	DD	0ffffffffH
	DD	FLAT:$L69434
	DD	00H
	DD	FLAT:$L69433
$T69438	DD	019930520H
	DD	02H
	DD	FLAT:$T69440
	DD	2 DUP(00H)
	DD	2 DUP(00H)
; Function compile flags: /Odt /RTCsu
xdata$x	ENDS
;	COMDAT ??$?HDU?$char_traits@D@std@@V?$allocator@D@1@@std@@YA?AV?$basic_string@DU?$char_traits@D@std@@V?$allocator@D@2@@0@ABV10@PBD@Z
_TEXT	SEGMENT
tv77 = -52						; size = 4
tv82 = -48						; size = 4
$T69435 = -44						; size = 4
$T69432 = -40						; size = 28
__$EHRec$ = -12						; size = 12
___$ReturnUdt$ = 8					; size = 4
__Left$ = 12						; size = 4
__Right$ = 16						; size = 4
??$?HDU?$char_traits@D@std@@V?$allocator@D@1@@std@@YA?AV?$basic_string@DU?$char_traits@D@std@@V?$allocator@D@2@@0@ABV10@PBD@Z PROC NEAR ; std::operator+<char,std::char_traits<char>,std::allocator<char> >, COMDAT

; 51   : 	{	// return string + NTCS

  00000	55		 push	 ebp
  00001	8b ec		 mov	 ebp, esp
  00003	6a ff		 push	 -1
  00005	68 00 00 00 00	 push	 __ehhandler$??$?HDU?$char_traits@D@std@@V?$allocator@D@1@@std@@YA?AV?$basic_string@DU?$char_traits@D@std@@V?$allocator@D@2@@0@ABV10@PBD@Z
  0000a	64 a1 00 00 00
	00		 mov	 eax, DWORD PTR fs:__except_list
  00010	50		 push	 eax
  00011	64 89 25 00 00
	00 00		 mov	 DWORD PTR fs:__except_list, esp
  00018	83 ec 28	 sub	 esp, 40			; 00000028H
  0001b	56		 push	 esi
  0001c	57		 push	 edi
  0001d	8d 7d cc	 lea	 edi, DWORD PTR [ebp-52]
  00020	b9 0a 00 00 00	 mov	 ecx, 10			; 0000000aH
  00025	b8 cc cc cc cc	 mov	 eax, -858993460		; ccccccccH
  0002a	f3 ab		 rep stosd
  0002c	c7 45 d4 00 00
	00 00		 mov	 DWORD PTR $T69435[ebp], 0

; 52   : 	return (basic_string<_Elem, _Traits, _Alloc>(_Left) += _Right);

  00033	8b f4		 mov	 esi, esp
  00035	8b 45 0c	 mov	 eax, DWORD PTR __Left$[ebp]
  00038	50		 push	 eax
  00039	8d 4d d8	 lea	 ecx, DWORD PTR $T69432[ebp]
  0003c	ff 15 00 00 00
	00		 call	 DWORD PTR __imp_??0?$basic_string@DU?$char_traits@D@std@@V?$allocator@D@2@@std@@QAE@ABV01@@Z
  00042	3b f4		 cmp	 esi, esp
  00044	e8 00 00 00 00	 call	 __RTC_CheckEsp
  00049	89 45 d0	 mov	 DWORD PTR tv82[ebp], eax
  0004c	8b 4d d0	 mov	 ecx, DWORD PTR tv82[ebp]
  0004f	89 4d cc	 mov	 DWORD PTR tv77[ebp], ecx
  00052	c7 45 fc 01 00
	00 00		 mov	 DWORD PTR __$EHRec$[ebp+8], 1
  00059	8b f4		 mov	 esi, esp
  0005b	8b 55 10	 mov	 edx, DWORD PTR __Right$[ebp]
  0005e	52		 push	 edx
  0005f	8b 4d cc	 mov	 ecx, DWORD PTR tv77[ebp]
  00062	ff 15 00 00 00
	00		 call	 DWORD PTR __imp_??Y?$basic_string@DU?$char_traits@D@std@@V?$allocator@D@2@@std@@QAEAAV01@PBD@Z
  00068	3b f4		 cmp	 esi, esp
  0006a	e8 00 00 00 00	 call	 __RTC_CheckEsp
  0006f	8b f4		 mov	 esi, esp
  00071	50		 push	 eax
  00072	8b 4d 08	 mov	 ecx, DWORD PTR ___$ReturnUdt$[ebp]
  00075	ff 15 00 00 00
	00		 call	 DWORD PTR __imp_??0?$basic_string@DU?$char_traits@D@std@@V?$allocator@D@2@@std@@QAE@ABV01@@Z
  0007b	3b f4		 cmp	 esi, esp
  0007d	e8 00 00 00 00	 call	 __RTC_CheckEsp
  00082	8b 45 d4	 mov	 eax, DWORD PTR $T69435[ebp]
  00085	83 c8 01	 or	 eax, 1
  00088	89 45 d4	 mov	 DWORD PTR $T69435[ebp], eax
  0008b	c6 45 fc 00	 mov	 BYTE PTR __$EHRec$[ebp+8], 0
  0008f	8b f4		 mov	 esi, esp
  00091	8d 4d d8	 lea	 ecx, DWORD PTR $T69432[ebp]
  00094	ff 15 00 00 00
	00		 call	 DWORD PTR __imp_??1?$basic_string@DU?$char_traits@D@std@@V?$allocator@D@2@@std@@QAE@XZ
  0009a	3b f4		 cmp	 esi, esp
  0009c	e8 00 00 00 00	 call	 __RTC_CheckEsp
  000a1	8b 45 08	 mov	 eax, DWORD PTR ___$ReturnUdt$[ebp]

; 53   : 	}

  000a4	8b 4d f4	 mov	 ecx, DWORD PTR __$EHRec$[ebp]
  000a7	64 89 0d 00 00
	00 00		 mov	 DWORD PTR fs:__except_list, ecx
  000ae	5f		 pop	 edi
  000af	5e		 pop	 esi
  000b0	83 c4 34	 add	 esp, 52			; 00000034H
  000b3	3b ec		 cmp	 ebp, esp
  000b5	e8 00 00 00 00	 call	 __RTC_CheckEsp
  000ba	8b e5		 mov	 esp, ebp
  000bc	5d		 pop	 ebp
  000bd	c3		 ret	 0
_TEXT	ENDS
;	COMDAT text$x
text$x	SEGMENT
$L69433:
  00000	8b f4		 mov	 esi, esp
  00002	8d 4d d8	 lea	 ecx, DWORD PTR $T69432[ebp]
  00005	ff 15 00 00 00
	00		 call	 DWORD PTR __imp_??1?$basic_string@DU?$char_traits@D@std@@V?$allocator@D@2@@std@@QAE@XZ
  0000b	3b f4		 cmp	 esi, esp
  0000d	e9 00 00 00 00	 jmp	 __RTC_CheckEsp
$L69434:
  00012	8b 45 d4	 mov	 eax, DWORD PTR $T69435[ebp]
  00015	83 e0 01	 and	 eax, 1
  00018	0f 84 16 00 00
	00		 je	 $L69436
  0001e	83 65 d4 fe	 and	 DWORD PTR $T69435[ebp], -2 ; fffffffeH
  00022	8b f4		 mov	 esi, esp
  00024	8b 4d 08	 mov	 ecx, DWORD PTR ___$ReturnUdt$[ebp]
  00027	ff 15 00 00 00
	00		 call	 DWORD PTR __imp_??1?$basic_string@DU?$char_traits@D@std@@V?$allocator@D@2@@std@@QAE@XZ
  0002d	3b f4		 cmp	 esi, esp
  0002f	e9 00 00 00 00	 jmp	 __RTC_CheckEsp
$L69436:
  00034	c3		 ret	 0
__ehhandler$??$?HDU?$char_traits@D@std@@V?$allocator@D@1@@std@@YA?AV?$basic_string@DU?$char_traits@D@std@@V?$allocator@D@2@@0@ABV10@PBD@Z:
  00035	b8 00 00 00 00	 mov	 eax, OFFSET FLAT:$T69438
  0003a	e9 00 00 00 00	 jmp	 ___CxxFrameHandler
text$x	ENDS
??$?HDU?$char_traits@D@std@@V?$allocator@D@1@@std@@YA?AV?$basic_string@DU?$char_traits@D@std@@V?$allocator@D@2@@0@ABV10@PBD@Z ENDP ; std::operator+<char,std::char_traits<char>,std::allocator<char> >
PUBLIC	??$?HDU?$char_traits@D@std@@V?$allocator@D@1@@std@@YA?AV?$basic_string@DU?$char_traits@D@std@@V?$allocator@D@2@@0@ABV10@D@Z ; std::operator+<char,std::char_traits<char>,std::allocator<char> >
EXTRN	__imp_??Y?$basic_string@DU?$char_traits@D@std@@V?$allocator@D@2@@std@@QAEAAV01@D@Z:NEAR
;	COMDAT xdata$x
xdata$x	SEGMENT
$T69452	DD	0ffffffffH
	DD	FLAT:$L69446
	DD	00H
	DD	FLAT:$L69445
$T69450	DD	019930520H
	DD	02H
	DD	FLAT:$T69452
	DD	2 DUP(00H)
	DD	2 DUP(00H)
; Function compile flags: /Odt /RTCsu
xdata$x	ENDS
;	COMDAT ??$?HDU?$char_traits@D@std@@V?$allocator@D@1@@std@@YA?AV?$basic_string@DU?$char_traits@D@std@@V?$allocator@D@2@@0@ABV10@D@Z
_TEXT	SEGMENT
tv77 = -52						; size = 4
tv82 = -48						; size = 4
$T69447 = -44						; size = 4
$T69444 = -40						; size = 28
__$EHRec$ = -12						; size = 12
___$ReturnUdt$ = 8					; size = 4
__Left$ = 12						; size = 4
__Right$ = 16						; size = 1
??$?HDU?$char_traits@D@std@@V?$allocator@D@1@@std@@YA?AV?$basic_string@DU?$char_traits@D@std@@V?$allocator@D@2@@0@ABV10@D@Z PROC NEAR ; std::operator+<char,std::char_traits<char>,std::allocator<char> >, COMDAT

; 61   : 	{	// return string + character

  00000	55		 push	 ebp
  00001	8b ec		 mov	 ebp, esp
  00003	6a ff		 push	 -1
  00005	68 00 00 00 00	 push	 __ehhandler$??$?HDU?$char_traits@D@std@@V?$allocator@D@1@@std@@YA?AV?$basic_string@DU?$char_traits@D@std@@V?$allocator@D@2@@0@ABV10@D@Z
  0000a	64 a1 00 00 00
	00		 mov	 eax, DWORD PTR fs:__except_list
  00010	50		 push	 eax
  00011	64 89 25 00 00
	00 00		 mov	 DWORD PTR fs:__except_list, esp
  00018	83 ec 28	 sub	 esp, 40			; 00000028H
  0001b	56		 push	 esi
  0001c	57		 push	 edi
  0001d	8d 7d cc	 lea	 edi, DWORD PTR [ebp-52]
  00020	b9 0a 00 00 00	 mov	 ecx, 10			; 0000000aH
  00025	b8 cc cc cc cc	 mov	 eax, -858993460		; ccccccccH
  0002a	f3 ab		 rep stosd
  0002c	c7 45 d4 00 00
	00 00		 mov	 DWORD PTR $T69447[ebp], 0

; 62   : 	return (basic_string<_Elem, _Traits, _Alloc>(_Left) += _Right);

  00033	8b f4		 mov	 esi, esp
  00035	8b 45 0c	 mov	 eax, DWORD PTR __Left$[ebp]
  00038	50		 push	 eax
  00039	8d 4d d8	 lea	 ecx, DWORD PTR $T69444[ebp]
  0003c	ff 15 00 00 00
	00		 call	 DWORD PTR __imp_??0?$basic_string@DU?$char_traits@D@std@@V?$allocator@D@2@@std@@QAE@ABV01@@Z
  00042	3b f4		 cmp	 esi, esp
  00044	e8 00 00 00 00	 call	 __RTC_CheckEsp
  00049	89 45 d0	 mov	 DWORD PTR tv82[ebp], eax
  0004c	8b 4d d0	 mov	 ecx, DWORD PTR tv82[ebp]
  0004f	89 4d cc	 mov	 DWORD PTR tv77[ebp], ecx
  00052	c7 45 fc 01 00
	00 00		 mov	 DWORD PTR __$EHRec$[ebp+8], 1
  00059	8b f4		 mov	 esi, esp
  0005b	8a 55 10	 mov	 dl, BYTE PTR __Right$[ebp]
  0005e	52		 push	 edx
  0005f	8b 4d cc	 mov	 ecx, DWORD PTR tv77[ebp]
  00062	ff 15 00 00 00
	00		 call	 DWORD PTR __imp_??Y?$basic_string@DU?$char_traits@D@std@@V?$allocator@D@2@@std@@QAEAAV01@D@Z
  00068	3b f4		 cmp	 esi, esp
  0006a	e8 00 00 00 00	 call	 __RTC_CheckEsp
  0006f	8b f4		 mov	 esi, esp
  00071	50		 push	 eax
  00072	8b 4d 08	 mov	 ecx, DWORD PTR ___$ReturnUdt$[ebp]
  00075	ff 15 00 00 00
	00		 call	 DWORD PTR __imp_??0?$basic_string@DU?$char_traits@D@std@@V?$allocator@D@2@@std@@QAE@ABV01@@Z
  0007b	3b f4		 cmp	 esi, esp
  0007d	e8 00 00 00 00	 call	 __RTC_CheckEsp
  00082	8b 45 d4	 mov	 eax, DWORD PTR $T69447[ebp]
  00085	83 c8 01	 or	 eax, 1
  00088	89 45 d4	 mov	 DWORD PTR $T69447[ebp], eax
  0008b	c6 45 fc 00	 mov	 BYTE PTR __$EHRec$[ebp+8], 0
  0008f	8b f4		 mov	 esi, esp
  00091	8d 4d d8	 lea	 ecx, DWORD PTR $T69444[ebp]
  00094	ff 15 00 00 00
	00		 call	 DWORD PTR __imp_??1?$basic_string@DU?$char_traits@D@std@@V?$allocator@D@2@@std@@QAE@XZ
  0009a	3b f4		 cmp	 esi, esp
  0009c	e8 00 00 00 00	 call	 __RTC_CheckEsp
  000a1	8b 45 08	 mov	 eax, DWORD PTR ___$ReturnUdt$[ebp]

; 63   : 	}

  000a4	8b 4d f4	 mov	 ecx, DWORD PTR __$EHRec$[ebp]
  000a7	64 89 0d 00 00
	00 00		 mov	 DWORD PTR fs:__except_list, ecx
  000ae	5f		 pop	 edi
  000af	5e		 pop	 esi
  000b0	83 c4 34	 add	 esp, 52			; 00000034H
  000b3	3b ec		 cmp	 ebp, esp
  000b5	e8 00 00 00 00	 call	 __RTC_CheckEsp
  000ba	8b e5		 mov	 esp, ebp
  000bc	5d		 pop	 ebp
  000bd	c3		 ret	 0
_TEXT	ENDS
;	COMDAT text$x
text$x	SEGMENT
$L69445:
  00000	8b f4		 mov	 esi, esp
  00002	8d 4d d8	 lea	 ecx, DWORD PTR $T69444[ebp]
  00005	ff 15 00 00 00
	00		 call	 DWORD PTR __imp_??1?$basic_string@DU?$char_traits@D@std@@V?$allocator@D@2@@std@@QAE@XZ
  0000b	3b f4		 cmp	 esi, esp
  0000d	e9 00 00 00 00	 jmp	 __RTC_CheckEsp
$L69446:
  00012	8b 45 d4	 mov	 eax, DWORD PTR $T69447[ebp]
  00015	83 e0 01	 and	 eax, 1
  00018	0f 84 16 00 00
	00		 je	 $L69448
  0001e	83 65 d4 fe	 and	 DWORD PTR $T69447[ebp], -2 ; fffffffeH
  00022	8b f4		 mov	 esi, esp
  00024	8b 4d 08	 mov	 ecx, DWORD PTR ___$ReturnUdt$[ebp]
  00027	ff 15 00 00 00
	00		 call	 DWORD PTR __imp_??1?$basic_string@DU?$char_traits@D@std@@V?$allocator@D@2@@std@@QAE@XZ
  0002d	3b f4		 cmp	 esi, esp
  0002f	e9 00 00 00 00	 jmp	 __RTC_CheckEsp
$L69448:
  00034	c3		 ret	 0
__ehhandler$??$?HDU?$char_traits@D@std@@V?$allocator@D@1@@std@@YA?AV?$basic_string@DU?$char_traits@D@std@@V?$allocator@D@2@@0@ABV10@D@Z:
  00035	b8 00 00 00 00	 mov	 eax, OFFSET FLAT:$T69450
  0003a	e9 00 00 00 00	 jmp	 ___CxxFrameHandler
text$x	ENDS
??$?HDU?$char_traits@D@std@@V?$allocator@D@1@@std@@YA?AV?$basic_string@DU?$char_traits@D@std@@V?$allocator@D@2@@0@ABV10@D@Z ENDP ; std::operator+<char,std::char_traits<char>,std::allocator<char> >
PUBLIC	??$?H_WU?$char_traits@_W@std@@V?$allocator@_W@1@@std@@YA?AV?$basic_string@_WU?$char_traits@_W@std@@V?$allocator@_W@2@@0@ABV10@0@Z ; std::operator+<wchar_t,std::char_traits<wchar_t>,std::allocator<wchar_t> >
EXTRN	__imp_??0?$basic_string@_WU?$char_traits@_W@std@@V?$allocator@_W@2@@std@@QAE@ABV01@@Z:NEAR
EXTRN	__imp_??1?$basic_string@_WU?$char_traits@_W@std@@V?$allocator@_W@2@@std@@QAE@XZ:NEAR
EXTRN	__imp_??Y?$basic_string@_WU?$char_traits@_W@std@@V?$allocator@_W@2@@std@@QAEAAV01@ABV01@@Z:NEAR
;	COMDAT xdata$x
xdata$x	SEGMENT
$T69464	DD	0ffffffffH
	DD	FLAT:$L69458
	DD	00H
	DD	FLAT:$L69457
$T69462	DD	019930520H
	DD	02H
	DD	FLAT:$T69464
	DD	2 DUP(00H)
	DD	2 DUP(00H)
; Function compile flags: /Odt /RTCsu
xdata$x	ENDS
;	COMDAT ??$?H_WU?$char_traits@_W@std@@V?$allocator@_W@1@@std@@YA?AV?$basic_string@_WU?$char_traits@_W@std@@V?$allocator@_W@2@@0@ABV10@0@Z
_TEXT	SEGMENT
tv77 = -52						; size = 4
tv82 = -48						; size = 4
$T69459 = -44						; size = 4
$T69456 = -40						; size = 28
__$EHRec$ = -12						; size = 12
___$ReturnUdt$ = 8					; size = 4
__Left$ = 12						; size = 4
__Right$ = 16						; size = 4
??$?H_WU?$char_traits@_W@std@@V?$allocator@_W@1@@std@@YA?AV?$basic_string@_WU?$char_traits@_W@std@@V?$allocator@_W@2@@0@ABV10@0@Z PROC NEAR ; std::operator+<wchar_t,std::char_traits<wchar_t>,std::allocator<wchar_t> >, COMDAT

; 21   : 	{	// return string + string

  00000	55		 push	 ebp
  00001	8b ec		 mov	 ebp, esp
  00003	6a ff		 push	 -1
  00005	68 00 00 00 00	 push	 __ehhandler$??$?H_WU?$char_traits@_W@std@@V?$allocator@_W@1@@std@@YA?AV?$basic_string@_WU?$char_traits@_W@std@@V?$allocator@_W@2@@0@ABV10@0@Z
  0000a	64 a1 00 00 00
	00		 mov	 eax, DWORD PTR fs:__except_list
  00010	50		 push	 eax
  00011	64 89 25 00 00
	00 00		 mov	 DWORD PTR fs:__except_list, esp
  00018	83 ec 28	 sub	 esp, 40			; 00000028H
  0001b	56		 push	 esi
  0001c	57		 push	 edi
  0001d	8d 7d cc	 lea	 edi, DWORD PTR [ebp-52]
  00020	b9 0a 00 00 00	 mov	 ecx, 10			; 0000000aH
  00025	b8 cc cc cc cc	 mov	 eax, -858993460		; ccccccccH
  0002a	f3 ab		 rep stosd
  0002c	c7 45 d4 00 00
	00 00		 mov	 DWORD PTR $T69459[ebp], 0

; 22   : 	return (basic_string<_Elem, _Traits, _Alloc>(_Left) += _Right);

  00033	8b f4		 mov	 esi, esp
  00035	8b 45 0c	 mov	 eax, DWORD PTR __Left$[ebp]
  00038	50		 push	 eax
  00039	8d 4d d8	 lea	 ecx, DWORD PTR $T69456[ebp]
  0003c	ff 15 00 00 00
	00		 call	 DWORD PTR __imp_??0?$basic_string@_WU?$char_traits@_W@std@@V?$allocator@_W@2@@std@@QAE@ABV01@@Z
  00042	3b f4		 cmp	 esi, esp
  00044	e8 00 00 00 00	 call	 __RTC_CheckEsp
  00049	89 45 d0	 mov	 DWORD PTR tv82[ebp], eax
  0004c	8b 4d d0	 mov	 ecx, DWORD PTR tv82[ebp]
  0004f	89 4d cc	 mov	 DWORD PTR tv77[ebp], ecx
  00052	c7 45 fc 01 00
	00 00		 mov	 DWORD PTR __$EHRec$[ebp+8], 1
  00059	8b f4		 mov	 esi, esp
  0005b	8b 55 10	 mov	 edx, DWORD PTR __Right$[ebp]
  0005e	52		 push	 edx
  0005f	8b 4d cc	 mov	 ecx, DWORD PTR tv77[ebp]
  00062	ff 15 00 00 00
	00		 call	 DWORD PTR __imp_??Y?$basic_string@_WU?$char_traits@_W@std@@V?$allocator@_W@2@@std@@QAEAAV01@ABV01@@Z
  00068	3b f4		 cmp	 esi, esp
  0006a	e8 00 00 00 00	 call	 __RTC_CheckEsp
  0006f	8b f4		 mov	 esi, esp
  00071	50		 push	 eax
  00072	8b 4d 08	 mov	 ecx, DWORD PTR ___$ReturnUdt$[ebp]
  00075	ff 15 00 00 00
	00		 call	 DWORD PTR __imp_??0?$basic_string@_WU?$char_traits@_W@std@@V?$allocator@_W@2@@std@@QAE@ABV01@@Z
  0007b	3b f4		 cmp	 esi, esp
  0007d	e8 00 00 00 00	 call	 __RTC_CheckEsp
  00082	8b 45 d4	 mov	 eax, DWORD PTR $T69459[ebp]
  00085	83 c8 01	 or	 eax, 1
  00088	89 45 d4	 mov	 DWORD PTR $T69459[ebp], eax
  0008b	c6 45 fc 00	 mov	 BYTE PTR __$EHRec$[ebp+8], 0
  0008f	8b f4		 mov	 esi, esp
  00091	8d 4d d8	 lea	 ecx, DWORD PTR $T69456[ebp]
  00094	ff 15 00 00 00
	00		 call	 DWORD PTR __imp_??1?$basic_string@_WU?$char_traits@_W@std@@V?$allocator@_W@2@@std@@QAE@XZ
  0009a	3b f4		 cmp	 esi, esp
  0009c	e8 00 00 00 00	 call	 __RTC_CheckEsp
  000a1	8b 45 08	 mov	 eax, DWORD PTR ___$ReturnUdt$[ebp]

; 23   : 	}

  000a4	8b 4d f4	 mov	 ecx, DWORD PTR __$EHRec$[ebp]
  000a7	64 89 0d 00 00
	00 00		 mov	 DWORD PTR fs:__except_list, ecx
  000ae	5f		 pop	 edi
  000af	5e		 pop	 esi
  000b0	83 c4 34	 add	 esp, 52			; 00000034H
  000b3	3b ec		 cmp	 ebp, esp
  000b5	e8 00 00 00 00	 call	 __RTC_CheckEsp
  000ba	8b e5		 mov	 esp, ebp
  000bc	5d		 pop	 ebp
  000bd	c3		 ret	 0
_TEXT	ENDS
;	COMDAT text$x
text$x	SEGMENT
$L69457:
  00000	8b f4		 mov	 esi, esp
  00002	8d 4d d8	 lea	 ecx, DWORD PTR $T69456[ebp]
  00005	ff 15 00 00 00
	00		 call	 DWORD PTR __imp_??1?$basic_string@_WU?$char_traits@_W@std@@V?$allocator@_W@2@@std@@QAE@XZ
  0000b	3b f4		 cmp	 esi, esp
  0000d	e9 00 00 00 00	 jmp	 __RTC_CheckEsp
$L69458:
  00012	8b 45 d4	 mov	 eax, DWORD PTR $T69459[ebp]
  00015	83 e0 01	 and	 eax, 1
  00018	0f 84 16 00 00
	00		 je	 $L69460
  0001e	83 65 d4 fe	 and	 DWORD PTR $T69459[ebp], -2 ; fffffffeH
  00022	8b f4		 mov	 esi, esp
  00024	8b 4d 08	 mov	 ecx, DWORD PTR ___$ReturnUdt$[ebp]
  00027	ff 15 00 00 00
	00		 call	 DWORD PTR __imp_??1?$basic_string@_WU?$char_traits@_W@std@@V?$allocator@_W@2@@std@@QAE@XZ
  0002d	3b f4		 cmp	 esi, esp
  0002f	e9 00 00 00 00	 jmp	 __RTC_CheckEsp
$L69460:
  00034	c3		 ret	 0
__ehhandler$??$?H_WU?$char_traits@_W@std@@V?$allocator@_W@1@@std@@YA?AV?$basic_string@_WU?$char_traits@_W@std@@V?$allocator@_W@2@@0@ABV10@0@Z:
  00035	b8 00 00 00 00	 mov	 eax, OFFSET FLAT:$T69462
  0003a	e9 00 00 00 00	 jmp	 ___CxxFrameHandler
text$x	ENDS
??$?H_WU?$char_traits@_W@std@@V?$allocator@_W@1@@std@@YA?AV?$basic_string@_WU?$char_traits@_W@std@@V?$allocator@_W@2@@0@ABV10@0@Z ENDP ; std::operator+<wchar_t,std::char_traits<wchar_t>,std::allocator<wchar_t> >
PUBLIC	??$?H_WU?$char_traits@_W@std@@V?$allocator@_W@1@@std@@YA?AV?$basic_string@_WU?$char_traits@_W@std@@V?$allocator@_W@2@@0@PB_WABV10@@Z ; std::operator+<wchar_t,std::char_traits<wchar_t>,std::allocator<wchar_t> >
EXTRN	__imp_??0?$basic_string@_WU?$char_traits@_W@std@@V?$allocator@_W@2@@std@@QAE@PB_W@Z:NEAR
;	COMDAT xdata$x
xdata$x	SEGMENT
$T69476	DD	0ffffffffH
	DD	FLAT:$L69470
	DD	00H
	DD	FLAT:$L69469
$T69474	DD	019930520H
	DD	02H
	DD	FLAT:$T69476
	DD	2 DUP(00H)
	DD	2 DUP(00H)
; Function compile flags: /Odt /RTCsu
xdata$x	ENDS
;	COMDAT ??$?H_WU?$char_traits@_W@std@@V?$allocator@_W@1@@std@@YA?AV?$basic_string@_WU?$char_traits@_W@std@@V?$allocator@_W@2@@0@PB_WABV10@@Z
_TEXT	SEGMENT
tv77 = -52						; size = 4
tv82 = -48						; size = 4
$T69471 = -44						; size = 4
$T69468 = -40						; size = 28
__$EHRec$ = -12						; size = 12
___$ReturnUdt$ = 8					; size = 4
__Left$ = 12						; size = 4
__Right$ = 16						; size = 4
??$?H_WU?$char_traits@_W@std@@V?$allocator@_W@1@@std@@YA?AV?$basic_string@_WU?$char_traits@_W@std@@V?$allocator@_W@2@@0@PB_WABV10@@Z PROC NEAR ; std::operator+<wchar_t,std::char_traits<wchar_t>,std::allocator<wchar_t> >, COMDAT

; 31   : 	{	// return NTCS + string

  00000	55		 push	 ebp
  00001	8b ec		 mov	 ebp, esp
  00003	6a ff		 push	 -1
  00005	68 00 00 00 00	 push	 __ehhandler$??$?H_WU?$char_traits@_W@std@@V?$allocator@_W@1@@std@@YA?AV?$basic_string@_WU?$char_traits@_W@std@@V?$allocator@_W@2@@0@PB_WABV10@@Z
  0000a	64 a1 00 00 00
	00		 mov	 eax, DWORD PTR fs:__except_list
  00010	50		 push	 eax
  00011	64 89 25 00 00
	00 00		 mov	 DWORD PTR fs:__except_list, esp
  00018	83 ec 28	 sub	 esp, 40			; 00000028H
  0001b	56		 push	 esi
  0001c	57		 push	 edi
  0001d	8d 7d cc	 lea	 edi, DWORD PTR [ebp-52]
  00020	b9 0a 00 00 00	 mov	 ecx, 10			; 0000000aH
  00025	b8 cc cc cc cc	 mov	 eax, -858993460		; ccccccccH
  0002a	f3 ab		 rep stosd
  0002c	c7 45 d4 00 00
	00 00		 mov	 DWORD PTR $T69471[ebp], 0

; 32   : 	return (basic_string<_Elem, _Traits, _Alloc>(_Left) += _Right);

  00033	8b f4		 mov	 esi, esp
  00035	8b 45 0c	 mov	 eax, DWORD PTR __Left$[ebp]
  00038	50		 push	 eax
  00039	8d 4d d8	 lea	 ecx, DWORD PTR $T69468[ebp]
  0003c	ff 15 00 00 00
	00		 call	 DWORD PTR __imp_??0?$basic_string@_WU?$char_traits@_W@std@@V?$allocator@_W@2@@std@@QAE@PB_W@Z
  00042	3b f4		 cmp	 esi, esp
  00044	e8 00 00 00 00	 call	 __RTC_CheckEsp
  00049	89 45 d0	 mov	 DWORD PTR tv82[ebp], eax
  0004c	8b 4d d0	 mov	 ecx, DWORD PTR tv82[ebp]
  0004f	89 4d cc	 mov	 DWORD PTR tv77[ebp], ecx
  00052	c7 45 fc 01 00
	00 00		 mov	 DWORD PTR __$EHRec$[ebp+8], 1
  00059	8b f4		 mov	 esi, esp
  0005b	8b 55 10	 mov	 edx, DWORD PTR __Right$[ebp]
  0005e	52		 push	 edx
  0005f	8b 4d cc	 mov	 ecx, DWORD PTR tv77[ebp]
  00062	ff 15 00 00 00
	00		 call	 DWORD PTR __imp_??Y?$basic_string@_WU?$char_traits@_W@std@@V?$allocator@_W@2@@std@@QAEAAV01@ABV01@@Z
  00068	3b f4		 cmp	 esi, esp
  0006a	e8 00 00 00 00	 call	 __RTC_CheckEsp
  0006f	8b f4		 mov	 esi, esp
  00071	50		 push	 eax
  00072	8b 4d 08	 mov	 ecx, DWORD PTR ___$ReturnUdt$[ebp]
  00075	ff 15 00 00 00
	00		 call	 DWORD PTR __imp_??0?$basic_string@_WU?$char_traits@_W@std@@V?$allocator@_W@2@@std@@QAE@ABV01@@Z
  0007b	3b f4		 cmp	 esi, esp
  0007d	e8 00 00 00 00	 call	 __RTC_CheckEsp
  00082	8b 45 d4	 mov	 eax, DWORD PTR $T69471[ebp]
  00085	83 c8 01	 or	 eax, 1
  00088	89 45 d4	 mov	 DWORD PTR $T69471[ebp], eax
  0008b	c6 45 fc 00	 mov	 BYTE PTR __$EHRec$[ebp+8], 0
  0008f	8b f4		 mov	 esi, esp
  00091	8d 4d d8	 lea	 ecx, DWORD PTR $T69468[ebp]
  00094	ff 15 00 00 00
	00		 call	 DWORD PTR __imp_??1?$basic_string@_WU?$char_traits@_W@std@@V?$allocator@_W@2@@std@@QAE@XZ
  0009a	3b f4		 cmp	 esi, esp
  0009c	e8 00 00 00 00	 call	 __RTC_CheckEsp
  000a1	8b 45 08	 mov	 eax, DWORD PTR ___$ReturnUdt$[ebp]

; 33   : 	}

  000a4	8b 4d f4	 mov	 ecx, DWORD PTR __$EHRec$[ebp]
  000a7	64 89 0d 00 00
	00 00		 mov	 DWORD PTR fs:__except_list, ecx
  000ae	5f		 pop	 edi
  000af	5e		 pop	 esi
  000b0	83 c4 34	 add	 esp, 52			; 00000034H
  000b3	3b ec		 cmp	 ebp, esp
  000b5	e8 00 00 00 00	 call	 __RTC_CheckEsp
  000ba	8b e5		 mov	 esp, ebp
  000bc	5d		 pop	 ebp
  000bd	c3		 ret	 0
_TEXT	ENDS
;	COMDAT text$x
text$x	SEGMENT
$L69469:
  00000	8b f4		 mov	 esi, esp
  00002	8d 4d d8	 lea	 ecx, DWORD PTR $T69468[ebp]
  00005	ff 15 00 00 00
	00		 call	 DWORD PTR __imp_??1?$basic_string@_WU?$char_traits@_W@std@@V?$allocator@_W@2@@std@@QAE@XZ
  0000b	3b f4		 cmp	 esi, esp
  0000d	e9 00 00 00 00	 jmp	 __RTC_CheckEsp
$L69470:
  00012	8b 45 d4	 mov	 eax, DWORD PTR $T69471[ebp]
  00015	83 e0 01	 and	 eax, 1
  00018	0f 84 16 00 00
	00		 je	 $L69472
  0001e	83 65 d4 fe	 and	 DWORD PTR $T69471[ebp], -2 ; fffffffeH
  00022	8b f4		 mov	 esi, esp
  00024	8b 4d 08	 mov	 ecx, DWORD PTR ___$ReturnUdt$[ebp]
  00027	ff 15 00 00 00
	00		 call	 DWORD PTR __imp_??1?$basic_string@_WU?$char_traits@_W@std@@V?$allocator@_W@2@@std@@QAE@XZ
  0002d	3b f4		 cmp	 esi, esp
  0002f	e9 00 00 00 00	 jmp	 __RTC_CheckEsp
$L69472:
  00034	c3		 ret	 0
__ehhandler$??$?H_WU?$char_traits@_W@std@@V?$allocator@_W@1@@std@@YA?AV?$basic_string@_WU?$char_traits@_W@std@@V?$allocator@_W@2@@0@PB_WABV10@@Z:
  00035	b8 00 00 00 00	 mov	 eax, OFFSET FLAT:$T69474
  0003a	e9 00 00 00 00	 jmp	 ___CxxFrameHandler
text$x	ENDS
??$?H_WU?$char_traits@_W@std@@V?$allocator@_W@1@@std@@YA?AV?$basic_string@_WU?$char_traits@_W@std@@V?$allocator@_W@2@@0@PB_WABV10@@Z ENDP ; std::operator+<wchar_t,std::char_traits<wchar_t>,std::allocator<wchar_t> >
PUBLIC	??$?H_WU?$char_traits@_W@std@@V?$allocator@_W@1@@std@@YA?AV?$basic_string@_WU?$char_traits@_W@std@@V?$allocator@_W@2@@0@_WABV10@@Z ; std::operator+<wchar_t,std::char_traits<wchar_t>,std::allocator<wchar_t> >
EXTRN	__imp_??0?$basic_string@_WU?$char_traits@_W@std@@V?$allocator@_W@2@@std@@QAE@I_W@Z:NEAR
;	COMDAT xdata$x
xdata$x	SEGMENT
$T69488	DD	0ffffffffH
	DD	FLAT:$L69482
	DD	00H
	DD	FLAT:$L69481
$T69486	DD	019930520H
	DD	02H
	DD	FLAT:$T69488
	DD	2 DUP(00H)
	DD	2 DUP(00H)
; Function compile flags: /Odt /RTCsu
xdata$x	ENDS
;	COMDAT ??$?H_WU?$char_traits@_W@std@@V?$allocator@_W@1@@std@@YA?AV?$basic_string@_WU?$char_traits@_W@std@@V?$allocator@_W@2@@0@_WABV10@@Z
_TEXT	SEGMENT
tv78 = -52						; size = 4
tv83 = -48						; size = 4
$T69483 = -44						; size = 4
$T69480 = -40						; size = 28
__$EHRec$ = -12						; size = 12
___$ReturnUdt$ = 8					; size = 4
__Left$ = 12						; size = 2
__Right$ = 16						; size = 4
??$?H_WU?$char_traits@_W@std@@V?$allocator@_W@1@@std@@YA?AV?$basic_string@_WU?$char_traits@_W@std@@V?$allocator@_W@2@@0@_WABV10@@Z PROC NEAR ; std::operator+<wchar_t,std::char_traits<wchar_t>,std::allocator<wchar_t> >, COMDAT

; 41   : 	{	// return character + string

  00000	55		 push	 ebp
  00001	8b ec		 mov	 ebp, esp
  00003	6a ff		 push	 -1
  00005	68 00 00 00 00	 push	 __ehhandler$??$?H_WU?$char_traits@_W@std@@V?$allocator@_W@1@@std@@YA?AV?$basic_string@_WU?$char_traits@_W@std@@V?$allocator@_W@2@@0@_WABV10@@Z
  0000a	64 a1 00 00 00
	00		 mov	 eax, DWORD PTR fs:__except_list
  00010	50		 push	 eax
  00011	64 89 25 00 00
	00 00		 mov	 DWORD PTR fs:__except_list, esp
  00018	83 ec 28	 sub	 esp, 40			; 00000028H
  0001b	56		 push	 esi
  0001c	57		 push	 edi
  0001d	8d 7d cc	 lea	 edi, DWORD PTR [ebp-52]
  00020	b9 0a 00 00 00	 mov	 ecx, 10			; 0000000aH
  00025	b8 cc cc cc cc	 mov	 eax, -858993460		; ccccccccH
  0002a	f3 ab		 rep stosd
  0002c	c7 45 d4 00 00
	00 00		 mov	 DWORD PTR $T69483[ebp], 0

; 42   : 	return (basic_string<_Elem, _Traits, _Alloc>(1, _Left) += _Right);

  00033	8b f4		 mov	 esi, esp
  00035	66 8b 45 0c	 mov	 ax, WORD PTR __Left$[ebp]
  00039	50		 push	 eax
  0003a	6a 01		 push	 1
  0003c	8d 4d d8	 lea	 ecx, DWORD PTR $T69480[ebp]
  0003f	ff 15 00 00 00
	00		 call	 DWORD PTR __imp_??0?$basic_string@_WU?$char_traits@_W@std@@V?$allocator@_W@2@@std@@QAE@I_W@Z
  00045	3b f4		 cmp	 esi, esp
  00047	e8 00 00 00 00	 call	 __RTC_CheckEsp
  0004c	89 45 d0	 mov	 DWORD PTR tv83[ebp], eax
  0004f	8b 4d d0	 mov	 ecx, DWORD PTR tv83[ebp]
  00052	89 4d cc	 mov	 DWORD PTR tv78[ebp], ecx
  00055	c7 45 fc 01 00
	00 00		 mov	 DWORD PTR __$EHRec$[ebp+8], 1
  0005c	8b f4		 mov	 esi, esp
  0005e	8b 55 10	 mov	 edx, DWORD PTR __Right$[ebp]
  00061	52		 push	 edx
  00062	8b 4d cc	 mov	 ecx, DWORD PTR tv78[ebp]
  00065	ff 15 00 00 00
	00		 call	 DWORD PTR __imp_??Y?$basic_string@_WU?$char_traits@_W@std@@V?$allocator@_W@2@@std@@QAEAAV01@ABV01@@Z
  0006b	3b f4		 cmp	 esi, esp
  0006d	e8 00 00 00 00	 call	 __RTC_CheckEsp
  00072	8b f4		 mov	 esi, esp
  00074	50		 push	 eax
  00075	8b 4d 08	 mov	 ecx, DWORD PTR ___$ReturnUdt$[ebp]
  00078	ff 15 00 00 00
	00		 call	 DWORD PTR __imp_??0?$basic_string@_WU?$char_traits@_W@std@@V?$allocator@_W@2@@std@@QAE@ABV01@@Z
  0007e	3b f4		 cmp	 esi, esp
  00080	e8 00 00 00 00	 call	 __RTC_CheckEsp
  00085	8b 45 d4	 mov	 eax, DWORD PTR $T69483[ebp]
  00088	83 c8 01	 or	 eax, 1
  0008b	89 45 d4	 mov	 DWORD PTR $T69483[ebp], eax
  0008e	c6 45 fc 00	 mov	 BYTE PTR __$EHRec$[ebp+8], 0
  00092	8b f4		 mov	 esi, esp
  00094	8d 4d d8	 lea	 ecx, DWORD PTR $T69480[ebp]
  00097	ff 15 00 00 00
	00		 call	 DWORD PTR __imp_??1?$basic_string@_WU?$char_traits@_W@std@@V?$allocator@_W@2@@std@@QAE@XZ
  0009d	3b f4		 cmp	 esi, esp
  0009f	e8 00 00 00 00	 call	 __RTC_CheckEsp
  000a4	8b 45 08	 mov	 eax, DWORD PTR ___$ReturnUdt$[ebp]

; 43   : 	}

  000a7	8b 4d f4	 mov	 ecx, DWORD PTR __$EHRec$[ebp]
  000aa	64 89 0d 00 00
	00 00		 mov	 DWORD PTR fs:__except_list, ecx
  000b1	5f		 pop	 edi
  000b2	5e		 pop	 esi
  000b3	83 c4 34	 add	 esp, 52			; 00000034H
  000b6	3b ec		 cmp	 ebp, esp
  000b8	e8 00 00 00 00	 call	 __RTC_CheckEsp
  000bd	8b e5		 mov	 esp, ebp
  000bf	5d		 pop	 ebp
  000c0	c3		 ret	 0
_TEXT	ENDS
;	COMDAT text$x
text$x	SEGMENT
$L69481:
  00000	8b f4		 mov	 esi, esp
  00002	8d 4d d8	 lea	 ecx, DWORD PTR $T69480[ebp]
  00005	ff 15 00 00 00
	00		 call	 DWORD PTR __imp_??1?$basic_string@_WU?$char_traits@_W@std@@V?$allocator@_W@2@@std@@QAE@XZ
  0000b	3b f4		 cmp	 esi, esp
  0000d	e9 00 00 00 00	 jmp	 __RTC_CheckEsp
$L69482:
  00012	8b 45 d4	 mov	 eax, DWORD PTR $T69483[ebp]
  00015	83 e0 01	 and	 eax, 1
  00018	0f 84 16 00 00
	00		 je	 $L69484
  0001e	83 65 d4 fe	 and	 DWORD PTR $T69483[ebp], -2 ; fffffffeH
  00022	8b f4		 mov	 esi, esp
  00024	8b 4d 08	 mov	 ecx, DWORD PTR ___$ReturnUdt$[ebp]
  00027	ff 15 00 00 00
	00		 call	 DWORD PTR __imp_??1?$basic_string@_WU?$char_traits@_W@std@@V?$allocator@_W@2@@std@@QAE@XZ
  0002d	3b f4		 cmp	 esi, esp
  0002f	e9 00 00 00 00	 jmp	 __RTC_CheckEsp
$L69484:
  00034	c3		 ret	 0
__ehhandler$??$?H_WU?$char_traits@_W@std@@V?$allocator@_W@1@@std@@YA?AV?$basic_string@_WU?$char_traits@_W@std@@V?$allocator@_W@2@@0@_WABV10@@Z:
  00035	b8 00 00 00 00	 mov	 eax, OFFSET FLAT:$T69486
  0003a	e9 00 00 00 00	 jmp	 ___CxxFrameHandler
text$x	ENDS
??$?H_WU?$char_traits@_W@std@@V?$allocator@_W@1@@std@@YA?AV?$basic_string@_WU?$char_traits@_W@std@@V?$allocator@_W@2@@0@_WABV10@@Z ENDP ; std::operator+<wchar_t,std::char_traits<wchar_t>,std::allocator<wchar_t> >
PUBLIC	??$?H_WU?$char_traits@_W@std@@V?$allocator@_W@1@@std@@YA?AV?$basic_string@_WU?$char_traits@_W@std@@V?$allocator@_W@2@@0@ABV10@PB_W@Z ; std::operator+<wchar_t,std::char_traits<wchar_t>,std::allocator<wchar_t> >
EXTRN	__imp_??Y?$basic_string@_WU?$char_traits@_W@std@@V?$allocator@_W@2@@std@@QAEAAV01@PB_W@Z:NEAR
;	COMDAT xdata$x
xdata$x	SEGMENT
$T69500	DD	0ffffffffH
	DD	FLAT:$L69494
	DD	00H
	DD	FLAT:$L69493
$T69498	DD	019930520H
	DD	02H
	DD	FLAT:$T69500
	DD	2 DUP(00H)
	DD	2 DUP(00H)
; Function compile flags: /Odt /RTCsu
xdata$x	ENDS
;	COMDAT ??$?H_WU?$char_traits@_W@std@@V?$allocator@_W@1@@std@@YA?AV?$basic_string@_WU?$char_traits@_W@std@@V?$allocator@_W@2@@0@ABV10@PB_W@Z
_TEXT	SEGMENT
tv77 = -52						; size = 4
tv82 = -48						; size = 4
$T69495 = -44						; size = 4
$T69492 = -40						; size = 28
__$EHRec$ = -12						; size = 12
___$ReturnUdt$ = 8					; size = 4
__Left$ = 12						; size = 4
__Right$ = 16						; size = 4
??$?H_WU?$char_traits@_W@std@@V?$allocator@_W@1@@std@@YA?AV?$basic_string@_WU?$char_traits@_W@std@@V?$allocator@_W@2@@0@ABV10@PB_W@Z PROC NEAR ; std::operator+<wchar_t,std::char_traits<wchar_t>,std::allocator<wchar_t> >, COMDAT

; 51   : 	{	// return string + NTCS

  00000	55		 push	 ebp
  00001	8b ec		 mov	 ebp, esp
  00003	6a ff		 push	 -1
  00005	68 00 00 00 00	 push	 __ehhandler$??$?H_WU?$char_traits@_W@std@@V?$allocator@_W@1@@std@@YA?AV?$basic_string@_WU?$char_traits@_W@std@@V?$allocator@_W@2@@0@ABV10@PB_W@Z
  0000a	64 a1 00 00 00
	00		 mov	 eax, DWORD PTR fs:__except_list
  00010	50		 push	 eax
  00011	64 89 25 00 00
	00 00		 mov	 DWORD PTR fs:__except_list, esp
  00018	83 ec 28	 sub	 esp, 40			; 00000028H
  0001b	56		 push	 esi
  0001c	57		 push	 edi
  0001d	8d 7d cc	 lea	 edi, DWORD PTR [ebp-52]
  00020	b9 0a 00 00 00	 mov	 ecx, 10			; 0000000aH
  00025	b8 cc cc cc cc	 mov	 eax, -858993460		; ccccccccH
  0002a	f3 ab		 rep stosd
  0002c	c7 45 d4 00 00
	00 00		 mov	 DWORD PTR $T69495[ebp], 0

; 52   : 	return (basic_string<_Elem, _Traits, _Alloc>(_Left) += _Right);

  00033	8b f4		 mov	 esi, esp
  00035	8b 45 0c	 mov	 eax, DWORD PTR __Left$[ebp]
  00038	50		 push	 eax
  00039	8d 4d d8	 lea	 ecx, DWORD PTR $T69492[ebp]
  0003c	ff 15 00 00 00
	00		 call	 DWORD PTR __imp_??0?$basic_string@_WU?$char_traits@_W@std@@V?$allocator@_W@2@@std@@QAE@ABV01@@Z
  00042	3b f4		 cmp	 esi, esp
  00044	e8 00 00 00 00	 call	 __RTC_CheckEsp
  00049	89 45 d0	 mov	 DWORD PTR tv82[ebp], eax
  0004c	8b 4d d0	 mov	 ecx, DWORD PTR tv82[ebp]
  0004f	89 4d cc	 mov	 DWORD PTR tv77[ebp], ecx
  00052	c7 45 fc 01 00
	00 00		 mov	 DWORD PTR __$EHRec$[ebp+8], 1
  00059	8b f4		 mov	 esi, esp
  0005b	8b 55 10	 mov	 edx, DWORD PTR __Right$[ebp]
  0005e	52		 push	 edx
  0005f	8b 4d cc	 mov	 ecx, DWORD PTR tv77[ebp]
  00062	ff 15 00 00 00
	00		 call	 DWORD PTR __imp_??Y?$basic_string@_WU?$char_traits@_W@std@@V?$allocator@_W@2@@std@@QAEAAV01@PB_W@Z
  00068	3b f4		 cmp	 esi, esp
  0006a	e8 00 00 00 00	 call	 __RTC_CheckEsp
  0006f	8b f4		 mov	 esi, esp
  00071	50		 push	 eax
  00072	8b 4d 08	 mov	 ecx, DWORD PTR ___$ReturnUdt$[ebp]
  00075	ff 15 00 00 00
	00		 call	 DWORD PTR __imp_??0?$basic_string@_WU?$char_traits@_W@std@@V?$allocator@_W@2@@std@@QAE@ABV01@@Z
  0007b	3b f4		 cmp	 esi, esp
  0007d	e8 00 00 00 00	 call	 __RTC_CheckEsp
  00082	8b 45 d4	 mov	 eax, DWORD PTR $T69495[ebp]
  00085	83 c8 01	 or	 eax, 1
  00088	89 45 d4	 mov	 DWORD PTR $T69495[ebp], eax
  0008b	c6 45 fc 00	 mov	 BYTE PTR __$EHRec$[ebp+8], 0
  0008f	8b f4		 mov	 esi, esp
  00091	8d 4d d8	 lea	 ecx, DWORD PTR $T69492[ebp]
  00094	ff 15 00 00 00
	00		 call	 DWORD PTR __imp_??1?$basic_string@_WU?$char_traits@_W@std@@V?$allocator@_W@2@@std@@QAE@XZ
  0009a	3b f4		 cmp	 esi, esp
  0009c	e8 00 00 00 00	 call	 __RTC_CheckEsp
  000a1	8b 45 08	 mov	 eax, DWORD PTR ___$ReturnUdt$[ebp]

; 53   : 	}

  000a4	8b 4d f4	 mov	 ecx, DWORD PTR __$EHRec$[ebp]
  000a7	64 89 0d 00 00
	00 00		 mov	 DWORD PTR fs:__except_list, ecx
  000ae	5f		 pop	 edi
  000af	5e		 pop	 esi
  000b0	83 c4 34	 add	 esp, 52			; 00000034H
  000b3	3b ec		 cmp	 ebp, esp
  000b5	e8 00 00 00 00	 call	 __RTC_CheckEsp
  000ba	8b e5		 mov	 esp, ebp
  000bc	5d		 pop	 ebp
  000bd	c3		 ret	 0
_TEXT	ENDS
;	COMDAT text$x
text$x	SEGMENT
$L69493:
  00000	8b f4		 mov	 esi, esp
  00002	8d 4d d8	 lea	 ecx, DWORD PTR $T69492[ebp]
  00005	ff 15 00 00 00
	00		 call	 DWORD PTR __imp_??1?$basic_string@_WU?$char_traits@_W@std@@V?$allocator@_W@2@@std@@QAE@XZ
  0000b	3b f4		 cmp	 esi, esp
  0000d	e9 00 00 00 00	 jmp	 __RTC_CheckEsp
$L69494:
  00012	8b 45 d4	 mov	 eax, DWORD PTR $T69495[ebp]
  00015	83 e0 01	 and	 eax, 1
  00018	0f 84 16 00 00
	00		 je	 $L69496
  0001e	83 65 d4 fe	 and	 DWORD PTR $T69495[ebp], -2 ; fffffffeH
  00022	8b f4		 mov	 esi, esp
  00024	8b 4d 08	 mov	 ecx, DWORD PTR ___$ReturnUdt$[ebp]
  00027	ff 15 00 00 00
	00		 call	 DWORD PTR __imp_??1?$basic_string@_WU?$char_traits@_W@std@@V?$allocator@_W@2@@std@@QAE@XZ
  0002d	3b f4		 cmp	 esi, esp
  0002f	e9 00 00 00 00	 jmp	 __RTC_CheckEsp
$L69496:
  00034	c3		 ret	 0
__ehhandler$??$?H_WU?$char_traits@_W@std@@V?$allocator@_W@1@@std@@YA?AV?$basic_string@_WU?$char_traits@_W@std@@V?$allocator@_W@2@@0@ABV10@PB_W@Z:
  00035	b8 00 00 00 00	 mov	 eax, OFFSET FLAT:$T69498
  0003a	e9 00 00 00 00	 jmp	 ___CxxFrameHandler
text$x	ENDS
??$?H_WU?$char_traits@_W@std@@V?$allocator@_W@1@@std@@YA?AV?$basic_string@_WU?$char_traits@_W@std@@V?$allocator@_W@2@@0@ABV10@PB_W@Z ENDP ; std::operator+<wchar_t,std::char_traits<wchar_t>,std::allocator<wchar_t> >
PUBLIC	??$?H_WU?$char_traits@_W@std@@V?$allocator@_W@1@@std@@YA?AV?$basic_string@_WU?$char_traits@_W@std@@V?$allocator@_W@2@@0@ABV10@_W@Z ; std::operator+<wchar_t,std::char_traits<wchar_t>,std::allocator<wchar_t> >
EXTRN	__imp_??Y?$basic_string@_WU?$char_traits@_W@std@@V?$allocator@_W@2@@std@@QAEAAV01@_W@Z:NEAR
;	COMDAT xdata$x
xdata$x	SEGMENT
$T69512	DD	0ffffffffH
	DD	FLAT:$L69506
	DD	00H
	DD	FLAT:$L69505
$T69510	DD	019930520H
	DD	02H
	DD	FLAT:$T69512
	DD	2 DUP(00H)
	DD	2 DUP(00H)
; Function compile flags: /Odt /RTCsu
xdata$x	ENDS
;	COMDAT ??$?H_WU?$char_traits@_W@std@@V?$allocator@_W@1@@std@@YA?AV?$basic_string@_WU?$char_traits@_W@std@@V?$allocator@_W@2@@0@ABV10@_W@Z
_TEXT	SEGMENT
tv77 = -52						; size = 4
tv82 = -48						; size = 4
$T69507 = -44						; size = 4
$T69504 = -40						; size = 28
__$EHRec$ = -12						; size = 12
___$ReturnUdt$ = 8					; size = 4
__Left$ = 12						; size = 4
__Right$ = 16						; size = 2
??$?H_WU?$char_traits@_W@std@@V?$allocator@_W@1@@std@@YA?AV?$basic_string@_WU?$char_traits@_W@std@@V?$allocator@_W@2@@0@ABV10@_W@Z PROC NEAR ; std::operator+<wchar_t,std::char_traits<wchar_t>,std::allocator<wchar_t> >, COMDAT

; 61   : 	{	// return string + character

  00000	55		 push	 ebp
  00001	8b ec		 mov	 ebp, esp
  00003	6a ff		 push	 -1
  00005	68 00 00 00 00	 push	 __ehhandler$??$?H_WU?$char_traits@_W@std@@V?$allocator@_W@1@@std@@YA?AV?$basic_string@_WU?$char_traits@_W@std@@V?$allocator@_W@2@@0@ABV10@_W@Z
  0000a	64 a1 00 00 00
	00		 mov	 eax, DWORD PTR fs:__except_list
  00010	50		 push	 eax
  00011	64 89 25 00 00
	00 00		 mov	 DWORD PTR fs:__except_list, esp
  00018	83 ec 28	 sub	 esp, 40			; 00000028H
  0001b	56		 push	 esi
  0001c	57		 push	 edi
  0001d	8d 7d cc	 lea	 edi, DWORD PTR [ebp-52]
  00020	b9 0a 00 00 00	 mov	 ecx, 10			; 0000000aH
  00025	b8 cc cc cc cc	 mov	 eax, -858993460		; ccccccccH
  0002a	f3 ab		 rep stosd
  0002c	c7 45 d4 00 00
	00 00		 mov	 DWORD PTR $T69507[ebp], 0

; 62   : 	return (basic_string<_Elem, _Traits, _Alloc>(_Left) += _Right);

  00033	8b f4		 mov	 esi, esp
  00035	8b 45 0c	 mov	 eax, DWORD PTR __Left$[ebp]
  00038	50		 push	 eax
  00039	8d 4d d8	 lea	 ecx, DWORD PTR $T69504[ebp]
  0003c	ff 15 00 00 00
	00		 call	 DWORD PTR __imp_??0?$basic_string@_WU?$char_traits@_W@std@@V?$allocator@_W@2@@std@@QAE@ABV01@@Z
  00042	3b f4		 cmp	 esi, esp
  00044	e8 00 00 00 00	 call	 __RTC_CheckEsp
  00049	89 45 d0	 mov	 DWORD PTR tv82[ebp], eax
  0004c	8b 4d d0	 mov	 ecx, DWORD PTR tv82[ebp]
  0004f	89 4d cc	 mov	 DWORD PTR tv77[ebp], ecx
  00052	c7 45 fc 01 00
	00 00		 mov	 DWORD PTR __$EHRec$[ebp+8], 1
  00059	8b f4		 mov	 esi, esp
  0005b	66 8b 55 10	 mov	 dx, WORD PTR __Right$[ebp]
  0005f	52		 push	 edx
  00060	8b 4d cc	 mov	 ecx, DWORD PTR tv77[ebp]
  00063	ff 15 00 00 00
	00		 call	 DWORD PTR __imp_??Y?$basic_string@_WU?$char_traits@_W@std@@V?$allocator@_W@2@@std@@QAEAAV01@_W@Z
  00069	3b f4		 cmp	 esi, esp
  0006b	e8 00 00 00 00	 call	 __RTC_CheckEsp
  00070	8b f4		 mov	 esi, esp
  00072	50		 push	 eax
  00073	8b 4d 08	 mov	 ecx, DWORD PTR ___$ReturnUdt$[ebp]
  00076	ff 15 00 00 00
	00		 call	 DWORD PTR __imp_??0?$basic_string@_WU?$char_traits@_W@std@@V?$allocator@_W@2@@std@@QAE@ABV01@@Z
  0007c	3b f4		 cmp	 esi, esp
  0007e	e8 00 00 00 00	 call	 __RTC_CheckEsp
  00083	8b 45 d4	 mov	 eax, DWORD PTR $T69507[ebp]
  00086	83 c8 01	 or	 eax, 1
  00089	89 45 d4	 mov	 DWORD PTR $T69507[ebp], eax
  0008c	c6 45 fc 00	 mov	 BYTE PTR __$EHRec$[ebp+8], 0
  00090	8b f4		 mov	 esi, esp
  00092	8d 4d d8	 lea	 ecx, DWORD PTR $T69504[ebp]
  00095	ff 15 00 00 00
	00		 call	 DWORD PTR __imp_??1?$basic_string@_WU?$char_traits@_W@std@@V?$allocator@_W@2@@std@@QAE@XZ
  0009b	3b f4		 cmp	 esi, esp
  0009d	e8 00 00 00 00	 call	 __RTC_CheckEsp
  000a2	8b 45 08	 mov	 eax, DWORD PTR ___$ReturnUdt$[ebp]

; 63   : 	}

  000a5	8b 4d f4	 mov	 ecx, DWORD PTR __$EHRec$[ebp]
  000a8	64 89 0d 00 00
	00 00		 mov	 DWORD PTR fs:__except_list, ecx
  000af	5f		 pop	 edi
  000b0	5e		 pop	 esi
  000b1	83 c4 34	 add	 esp, 52			; 00000034H
  000b4	3b ec		 cmp	 ebp, esp
  000b6	e8 00 00 00 00	 call	 __RTC_CheckEsp
  000bb	8b e5		 mov	 esp, ebp
  000bd	5d		 pop	 ebp
  000be	c3		 ret	 0
_TEXT	ENDS
;	COMDAT text$x
text$x	SEGMENT
$L69505:
  00000	8b f4		 mov	 esi, esp
  00002	8d 4d d8	 lea	 ecx, DWORD PTR $T69504[ebp]
  00005	ff 15 00 00 00
	00		 call	 DWORD PTR __imp_??1?$basic_string@_WU?$char_traits@_W@std@@V?$allocator@_W@2@@std@@QAE@XZ
  0000b	3b f4		 cmp	 esi, esp
  0000d	e9 00 00 00 00	 jmp	 __RTC_CheckEsp
$L69506:
  00012	8b 45 d4	 mov	 eax, DWORD PTR $T69507[ebp]
  00015	83 e0 01	 and	 eax, 1
  00018	0f 84 16 00 00
	00		 je	 $L69508
  0001e	83 65 d4 fe	 and	 DWORD PTR $T69507[ebp], -2 ; fffffffeH
  00022	8b f4		 mov	 esi, esp
  00024	8b 4d 08	 mov	 ecx, DWORD PTR ___$ReturnUdt$[ebp]
  00027	ff 15 00 00 00
	00		 call	 DWORD PTR __imp_??1?$basic_string@_WU?$char_traits@_W@std@@V?$allocator@_W@2@@std@@QAE@XZ
  0002d	3b f4		 cmp	 esi, esp
  0002f	e9 00 00 00 00	 jmp	 __RTC_CheckEsp
$L69508:
  00034	c3		 ret	 0
__ehhandler$??$?H_WU?$char_traits@_W@std@@V?$allocator@_W@1@@std@@YA?AV?$basic_string@_WU?$char_traits@_W@std@@V?$allocator@_W@2@@0@ABV10@_W@Z:
  00035	b8 00 00 00 00	 mov	 eax, OFFSET FLAT:$T69510
  0003a	e9 00 00 00 00	 jmp	 ___CxxFrameHandler
text$x	ENDS
??$?H_WU?$char_traits@_W@std@@V?$allocator@_W@1@@std@@YA?AV?$basic_string@_WU?$char_traits@_W@std@@V?$allocator@_W@2@@0@ABV10@_W@Z ENDP ; std::operator+<wchar_t,std::char_traits<wchar_t>,std::allocator<wchar_t> >
PUBLIC	??0sentry@?$basic_istream@DU?$char_traits@D@std@@@std@@QAE@AAV12@_N@Z ; std::basic_istream<char,std::char_traits<char> >::sentry::sentry
PUBLIC	??Bsentry@?$basic_istream@DU?$char_traits@D@std@@@std@@QBE_NXZ ; std::basic_istream<char,std::char_traits<char> >::sentry::operator bool
PUBLIC	??1sentry@?$basic_istream@DU?$char_traits@D@std@@@std@@QAE@XZ ; std::basic_istream<char,std::char_traits<char> >::sentry::~sentry
PUBLIC	??$?5DU?$char_traits@D@std@@V?$allocator@D@1@@std@@YAAAV?$basic_istream@DU?$char_traits@D@std@@@0@AAV10@AAV?$basic_string@DU?$char_traits@D@std@@V?$allocator@D@2@@0@@Z ; std::operator>><char,std::char_traits<char>,std::allocator<char> >
PUBLIC	??$use_facet@V?$ctype@D@std@@@std@@YAABV?$ctype@D@0@ABVlocale@0@@Z ; std::use_facet<std::ctype<char> >
EXTRN	__imp_?max_size@?$basic_string@DU?$char_traits@D@std@@V?$allocator@D@2@@std@@QBEIXZ:NEAR
EXTRN	__imp_??1locale@std@@QAE@XZ:NEAR
EXTRN	__imp_?to_char_type@?$char_traits@D@std@@SADABH@Z:NEAR
EXTRN	__imp_?eq_int_type@?$char_traits@D@std@@SA_NABH0@Z:NEAR
EXTRN	__imp_?eof@?$char_traits@D@std@@SAHXZ:NEAR
EXTRN	__imp_?setstate@?$basic_ios@DU?$char_traits@D@std@@@std@@QAEXH_N@Z:NEAR
EXTRN	__imp_?rdbuf@?$basic_ios@DU?$char_traits@D@std@@@std@@QBEPAV?$basic_streambuf@DU?$char_traits@D@std@@@2@XZ:NEAR
EXTRN	__imp_?width@ios_base@std@@QBEHXZ:NEAR
EXTRN	__imp_?width@ios_base@std@@QAEHH@Z:NEAR
EXTRN	__imp_?getloc@ios_base@std@@QBE?AVlocale@2@XZ:NEAR
EXTRN	__imp_?is@?$ctype@D@std@@QBE_NFD@Z:NEAR
EXTRN	__imp_?sgetc@?$basic_streambuf@DU?$char_traits@D@std@@@std@@QAEHXZ:NEAR
EXTRN	__imp_?snextc@?$basic_streambuf@DU?$char_traits@D@std@@@std@@QAEHXZ:NEAR
EXTRN	__imp_?npos@?$basic_string@DU?$char_traits@D@std@@V?$allocator@D@2@@std@@2IB:DWORD
EXTRN	__imp_?append@?$basic_string@DU?$char_traits@D@std@@V?$allocator@D@2@@std@@QAEAAV12@ID@Z:NEAR
EXTRN	__imp_?erase@?$basic_string@DU?$char_traits@D@std@@V?$allocator@D@2@@std@@QAEAAV12@II@Z:NEAR
;	COMDAT xdata$x
xdata$x	SEGMENT
$T69532	DD	0ffffffffH
	DD	FLAT:$L69523
	DD	00H
	DD	FLAT:$L69524
	DD	00H
	DD	00H
	DD	00H
	DD	00H
$T69534	DD	00H
	DD	00H
	DD	00H
	DD	FLAT:$L69522
$T69533	DD	02H
	DD	02H
	DD	03H
	DD	01H
	DD	FLAT:$T69534
$T69526	DD	019930520H
	DD	04H
	DD	FLAT:$T69532
	DD	01H
	DD	FLAT:$T69533
	DD	2 DUP(00H)
; Function compile flags: /Odt /RTCsu
xdata$x	ENDS
;	COMDAT ??$?5DU?$char_traits@D@std@@V?$allocator@D@1@@std@@YAAAV?$basic_istream@DU?$char_traits@D@std@@@0@AAV10@AAV?$basic_string@DU?$char_traits@D@std@@V?$allocator@D@2@@0@@Z
_TEXT	SEGMENT
tv207 = -128						; size = 1
tv206 = -127						; size = 1
tv205 = -126						; size = 1
tv204 = -125						; size = 1
tv203 = -124						; size = 4
tv202 = -120						; size = 4
tv201 = -116						; size = 4
tv200 = -112						; size = 4
tv199 = -108						; size = 4
tv198 = -104						; size = 4
tv135 = -100						; size = 4
tv197 = -96						; size = 4
tv196 = -92						; size = 4
tv195 = -88						; size = 4
tv194 = -84						; size = 4
tv189 = -80						; size = 4
tv65 = -76						; size = 4
$T69520 = -72						; size = 4
$T69519 = -68						; size = 4
$T69516 = -64						; size = 4
__Meta$68060 = -56					; size = 4
__Size$68057 = -48					; size = 4
__Ctype_fac$68054 = -44					; size = 4
__Ok$ = -36						; size = 8
__Changed$ = -21					; size = 1
__State$ = -20						; size = 4
__$EHRec$ = -16						; size = 16
__Istr$ = 8						; size = 4
__Str$ = 12						; size = 4
??$?5DU?$char_traits@D@std@@V?$allocator@D@1@@std@@YAAAV?$basic_istream@DU?$char_traits@D@std@@@0@AAV10@AAV?$basic_string@DU?$char_traits@D@std@@V?$allocator@D@2@@0@@Z PROC NEAR ; std::operator>><char,std::char_traits<char>,std::allocator<char> >, COMDAT

; 425  : 	{	// extract a string

  00000	55		 push	 ebp
  00001	8b ec		 mov	 ebp, esp
  00003	6a ff		 push	 -1
  00005	68 00 00 00 00	 push	 __ehhandler$??$?5DU?$char_traits@D@std@@V?$allocator@D@1@@std@@YAAAV?$basic_istream@DU?$char_traits@D@std@@@0@AAV10@AAV?$basic_string@DU?$char_traits@D@std@@V?$allocator@D@2@@0@@Z
  0000a	64 a1 00 00 00
	00		 mov	 eax, DWORD PTR fs:__except_list
  00010	50		 push	 eax
  00011	64 89 25 00 00
	00 00		 mov	 DWORD PTR fs:__except_list, esp
  00018	51		 push	 ecx
  00019	83 ec 70	 sub	 esp, 112		; 00000070H
  0001c	53		 push	 ebx
  0001d	56		 push	 esi
  0001e	57		 push	 edi
  0001f	8d 7d 80	 lea	 edi, DWORD PTR [ebp-128]
  00022	b9 1c 00 00 00	 mov	 ecx, 28			; 0000001cH
  00027	b8 cc cc cc cc	 mov	 eax, -858993460		; ccccccccH
  0002c	f3 ab		 rep stosd
  0002e	89 65 f0	 mov	 DWORD PTR __$EHRec$[ebp], esp

; 426  : 	typedef ctype<_Elem> _Ctype;
; 427  : 	typedef basic_istream<_Elem, _Traits> _Myis;
; 428  : 	typedef basic_string<_Elem, _Traits, _Alloc> _Mystr;
; 429  : 	typedef typename _Mystr::size_type _Mysizt;
; 430  : 
; 431  : 	ios_base::iostate _State = ios_base::goodbit;

  00031	c7 45 ec 00 00
	00 00		 mov	 DWORD PTR __State$[ebp], 0

; 432  : 	bool _Changed = false;

  00038	c6 45 eb 00	 mov	 BYTE PTR __Changed$[ebp], 0

; 433  : 	const typename _Myis::sentry _Ok(_Istr);

  0003c	6a 00		 push	 0
  0003e	8b 45 08	 mov	 eax, DWORD PTR __Istr$[ebp]
  00041	50		 push	 eax
  00042	8d 4d dc	 lea	 ecx, DWORD PTR __Ok$[ebp]
  00045	e8 00 00 00 00	 call	 ??0sentry@?$basic_istream@DU?$char_traits@D@std@@@std@@QAE@AAV12@_N@Z ; std::basic_istream<char,std::char_traits<char> >::sentry::sentry
  0004a	c7 45 fc 00 00
	00 00		 mov	 DWORD PTR __$EHRec$[ebp+12], 0

; 434  : 
; 435  : 	if (_Ok)

  00051	8d 4d dc	 lea	 ecx, DWORD PTR __Ok$[ebp]
  00054	e8 00 00 00 00	 call	 ??Bsentry@?$basic_istream@DU?$char_traits@D@std@@@std@@QBE_NXZ ; std::basic_istream<char,std::char_traits<char> >::sentry::operator bool
  00059	0f b6 c8	 movzx	 ecx, al
  0005c	85 c9		 test	 ecx, ecx
  0005e	0f 84 87 02 00
	00		 je	 $L69521

; 436  : 		{	// state okay, extract characters
; 437  : 		const _Ctype& _Ctype_fac = _USE(_Istr.getloc(), _Ctype);

  00064	8b f4		 mov	 esi, esp
  00066	8d 55 c0	 lea	 edx, DWORD PTR $T69516[ebp]
  00069	52		 push	 edx
  0006a	8b 45 08	 mov	 eax, DWORD PTR __Istr$[ebp]
  0006d	8b 08		 mov	 ecx, DWORD PTR [eax]
  0006f	8b 55 08	 mov	 edx, DWORD PTR __Istr$[ebp]
  00072	03 51 04	 add	 edx, DWORD PTR [ecx+4]
  00075	8b ca		 mov	 ecx, edx
  00077	ff 15 00 00 00
	00		 call	 DWORD PTR __imp_?getloc@ios_base@std@@QBE?AVlocale@2@XZ
  0007d	3b f4		 cmp	 esi, esp
  0007f	e8 00 00 00 00	 call	 __RTC_CheckEsp
  00084	89 45 b4	 mov	 DWORD PTR tv65[ebp], eax
  00087	8b 45 b4	 mov	 eax, DWORD PTR tv65[ebp]
  0008a	89 45 b0	 mov	 DWORD PTR tv189[ebp], eax
  0008d	c6 45 fc 01	 mov	 BYTE PTR __$EHRec$[ebp+12], 1
  00091	8b 4d b0	 mov	 ecx, DWORD PTR tv189[ebp]
  00094	51		 push	 ecx
  00095	e8 00 00 00 00	 call	 ??$use_facet@V?$ctype@D@std@@@std@@YAABV?$ctype@D@0@ABVlocale@0@@Z ; std::use_facet<std::ctype<char> >
  0009a	83 c4 04	 add	 esp, 4
  0009d	89 45 d4	 mov	 DWORD PTR __Ctype_fac$68054[ebp], eax
  000a0	c6 45 fc 00	 mov	 BYTE PTR __$EHRec$[ebp+12], 0
  000a4	8b f4		 mov	 esi, esp
  000a6	8d 4d c0	 lea	 ecx, DWORD PTR $T69516[ebp]
  000a9	ff 15 00 00 00
	00		 call	 DWORD PTR __imp_??1locale@std@@QAE@XZ
  000af	3b f4		 cmp	 esi, esp
  000b1	e8 00 00 00 00	 call	 __RTC_CheckEsp

; 438  : 		_Str.erase();

  000b6	8b f4		 mov	 esi, esp
  000b8	8b 15 00 00 00
	00		 mov	 edx, DWORD PTR __imp_?npos@?$basic_string@DU?$char_traits@D@std@@V?$allocator@D@2@@std@@2IB
  000be	8b 02		 mov	 eax, DWORD PTR [edx]
  000c0	50		 push	 eax
  000c1	6a 00		 push	 0
  000c3	8b 4d 0c	 mov	 ecx, DWORD PTR __Str$[ebp]
  000c6	ff 15 00 00 00
	00		 call	 DWORD PTR __imp_?erase@?$basic_string@DU?$char_traits@D@std@@V?$allocator@D@2@@std@@QAEAAV12@II@Z
  000cc	3b f4		 cmp	 esi, esp
  000ce	e8 00 00 00 00	 call	 __RTC_CheckEsp

; 439  : 
; 440  : 		_TRY_IO_BEGIN

  000d3	c6 45 fc 02	 mov	 BYTE PTR __$EHRec$[ebp+12], 2

; 441  : 		_Mysizt _Size = 0 < _Istr.width()
; 442  : 			&& (_Mysizt)_Istr.width() < _Str.max_size()
; 443  : 				? (_Mysizt)_Istr.width() : _Str.max_size();

  000d7	8b 4d 08	 mov	 ecx, DWORD PTR __Istr$[ebp]
  000da	8b 11		 mov	 edx, DWORD PTR [ecx]
  000dc	8b 4d 08	 mov	 ecx, DWORD PTR __Istr$[ebp]
  000df	03 4a 04	 add	 ecx, DWORD PTR [edx+4]
  000e2	8b f4		 mov	 esi, esp
  000e4	ff 15 00 00 00
	00		 call	 DWORD PTR __imp_?width@ios_base@std@@QBEHXZ
  000ea	3b f4		 cmp	 esi, esp
  000ec	e8 00 00 00 00	 call	 __RTC_CheckEsp
  000f1	89 45 ac	 mov	 DWORD PTR tv194[ebp], eax
  000f4	83 7d ac 00	 cmp	 DWORD PTR tv194[ebp], 0
  000f8	7e 61		 jle	 SHORT $L69517
  000fa	8b 45 08	 mov	 eax, DWORD PTR __Istr$[ebp]
  000fd	8b 08		 mov	 ecx, DWORD PTR [eax]
  000ff	8b 55 08	 mov	 edx, DWORD PTR __Istr$[ebp]
  00102	03 51 04	 add	 edx, DWORD PTR [ecx+4]
  00105	8b f4		 mov	 esi, esp
  00107	8b ca		 mov	 ecx, edx
  00109	ff 15 00 00 00
	00		 call	 DWORD PTR __imp_?width@ios_base@std@@QBEHXZ
  0010f	3b f4		 cmp	 esi, esp
  00111	e8 00 00 00 00	 call	 __RTC_CheckEsp
  00116	89 45 a8	 mov	 DWORD PTR tv195[ebp], eax
  00119	8b f4		 mov	 esi, esp
  0011b	8b 4d 0c	 mov	 ecx, DWORD PTR __Str$[ebp]
  0011e	ff 15 00 00 00
	00		 call	 DWORD PTR __imp_?max_size@?$basic_string@DU?$char_traits@D@std@@V?$allocator@D@2@@std@@QBEIXZ
  00124	3b f4		 cmp	 esi, esp
  00126	e8 00 00 00 00	 call	 __RTC_CheckEsp
  0012b	89 45 a4	 mov	 DWORD PTR tv196[ebp], eax
  0012e	8b 45 a8	 mov	 eax, DWORD PTR tv195[ebp]
  00131	3b 45 a4	 cmp	 eax, DWORD PTR tv196[ebp]
  00134	73 25		 jae	 SHORT $L69517
  00136	8b 4d 08	 mov	 ecx, DWORD PTR __Istr$[ebp]
  00139	8b 11		 mov	 edx, DWORD PTR [ecx]
  0013b	8b 4d 08	 mov	 ecx, DWORD PTR __Istr$[ebp]
  0013e	03 4a 04	 add	 ecx, DWORD PTR [edx+4]
  00141	8b f4		 mov	 esi, esp
  00143	ff 15 00 00 00
	00		 call	 DWORD PTR __imp_?width@ios_base@std@@QBEHXZ
  00149	3b f4		 cmp	 esi, esp
  0014b	e8 00 00 00 00	 call	 __RTC_CheckEsp
  00150	89 45 a0	 mov	 DWORD PTR tv197[ebp], eax
  00153	8b 45 a0	 mov	 eax, DWORD PTR tv197[ebp]
  00156	89 45 9c	 mov	 DWORD PTR tv135[ebp], eax
  00159	eb 1b		 jmp	 SHORT $L69518
$L69517:
  0015b	8b f4		 mov	 esi, esp
  0015d	8b 4d 0c	 mov	 ecx, DWORD PTR __Str$[ebp]
  00160	ff 15 00 00 00
	00		 call	 DWORD PTR __imp_?max_size@?$basic_string@DU?$char_traits@D@std@@V?$allocator@D@2@@std@@QBEIXZ
  00166	3b f4		 cmp	 esi, esp
  00168	e8 00 00 00 00	 call	 __RTC_CheckEsp
  0016d	89 45 98	 mov	 DWORD PTR tv198[ebp], eax
  00170	8b 4d 98	 mov	 ecx, DWORD PTR tv198[ebp]
  00173	89 4d 9c	 mov	 DWORD PTR tv135[ebp], ecx
$L69518:
  00176	8b 55 9c	 mov	 edx, DWORD PTR tv135[ebp]
  00179	89 55 d0	 mov	 DWORD PTR __Size$68057[ebp], edx

; 444  : 		typename _Traits::int_type _Meta = _Istr.rdbuf()->sgetc();

  0017c	8b 45 08	 mov	 eax, DWORD PTR __Istr$[ebp]
  0017f	8b 08		 mov	 ecx, DWORD PTR [eax]
  00181	8b 55 08	 mov	 edx, DWORD PTR __Istr$[ebp]
  00184	03 51 04	 add	 edx, DWORD PTR [ecx+4]
  00187	8b f4		 mov	 esi, esp
  00189	8b ca		 mov	 ecx, edx
  0018b	ff 15 00 00 00
	00		 call	 DWORD PTR __imp_?rdbuf@?$basic_ios@DU?$char_traits@D@std@@@std@@QBEPAV?$basic_streambuf@DU?$char_traits@D@std@@@2@XZ
  00191	3b f4		 cmp	 esi, esp
  00193	e8 00 00 00 00	 call	 __RTC_CheckEsp
  00198	89 45 94	 mov	 DWORD PTR tv199[ebp], eax
  0019b	8b f4		 mov	 esi, esp
  0019d	8b 4d 94	 mov	 ecx, DWORD PTR tv199[ebp]
  001a0	ff 15 00 00 00
	00		 call	 DWORD PTR __imp_?sgetc@?$basic_streambuf@DU?$char_traits@D@std@@@std@@QAEHXZ
  001a6	3b f4		 cmp	 esi, esp
  001a8	e8 00 00 00 00	 call	 __RTC_CheckEsp
  001ad	89 45 90	 mov	 DWORD PTR tv200[ebp], eax
  001b0	8b 45 90	 mov	 eax, DWORD PTR tv200[ebp]
  001b3	89 45 c8	 mov	 DWORD PTR __Meta$68060[ebp], eax

; 445  : 
; 446  : 		for (; 0 < _Size; --_Size, _Meta = _Istr.rdbuf()->snextc())

  001b6	eb 41		 jmp	 SHORT $L68061
$L68062:
  001b8	8b 4d d0	 mov	 ecx, DWORD PTR __Size$68057[ebp]
  001bb	83 e9 01	 sub	 ecx, 1
  001be	89 4d d0	 mov	 DWORD PTR __Size$68057[ebp], ecx
  001c1	8b 55 08	 mov	 edx, DWORD PTR __Istr$[ebp]
  001c4	8b 02		 mov	 eax, DWORD PTR [edx]
  001c6	8b 4d 08	 mov	 ecx, DWORD PTR __Istr$[ebp]
  001c9	03 48 04	 add	 ecx, DWORD PTR [eax+4]
  001cc	8b f4		 mov	 esi, esp
  001ce	ff 15 00 00 00
	00		 call	 DWORD PTR __imp_?rdbuf@?$basic_ios@DU?$char_traits@D@std@@@std@@QBEPAV?$basic_streambuf@DU?$char_traits@D@std@@@2@XZ
  001d4	3b f4		 cmp	 esi, esp
  001d6	e8 00 00 00 00	 call	 __RTC_CheckEsp
  001db	89 45 8c	 mov	 DWORD PTR tv201[ebp], eax
  001de	8b f4		 mov	 esi, esp
  001e0	8b 4d 8c	 mov	 ecx, DWORD PTR tv201[ebp]
  001e3	ff 15 00 00 00
	00		 call	 DWORD PTR __imp_?snextc@?$basic_streambuf@DU?$char_traits@D@std@@@std@@QAEHXZ
  001e9	3b f4		 cmp	 esi, esp
  001eb	e8 00 00 00 00	 call	 __RTC_CheckEsp
  001f0	89 45 88	 mov	 DWORD PTR tv202[ebp], eax
  001f3	8b 4d 88	 mov	 ecx, DWORD PTR tv202[ebp]
  001f6	89 4d c8	 mov	 DWORD PTR __Meta$68060[ebp], ecx
$L68061:
  001f9	83 7d d0 00	 cmp	 DWORD PTR __Size$68057[ebp], 0
  001fd	0f 86 c0 00 00
	00		 jbe	 $L68063

; 447  : 			if(_Traits::eq_int_type(_Traits::eof(), _Meta))

  00203	8b f4		 mov	 esi, esp
  00205	ff 15 00 00 00
	00		 call	 DWORD PTR __imp_?eof@?$char_traits@D@std@@SAHXZ
  0020b	3b f4		 cmp	 esi, esp
  0020d	e8 00 00 00 00	 call	 __RTC_CheckEsp
  00212	89 45 84	 mov	 DWORD PTR tv203[ebp], eax
  00215	8b 55 84	 mov	 edx, DWORD PTR tv203[ebp]
  00218	89 55 bc	 mov	 DWORD PTR $T69519[ebp], edx
  0021b	8b f4		 mov	 esi, esp
  0021d	8d 45 c8	 lea	 eax, DWORD PTR __Meta$68060[ebp]
  00220	50		 push	 eax
  00221	8d 4d bc	 lea	 ecx, DWORD PTR $T69519[ebp]
  00224	51		 push	 ecx
  00225	ff 15 00 00 00
	00		 call	 DWORD PTR __imp_?eq_int_type@?$char_traits@D@std@@SA_NABH0@Z
  0022b	83 c4 08	 add	 esp, 8
  0022e	3b f4		 cmp	 esi, esp
  00230	e8 00 00 00 00	 call	 __RTC_CheckEsp
  00235	88 45 83	 mov	 BYTE PTR tv204[ebp], al
  00238	0f b6 55 83	 movzx	 edx, BYTE PTR tv204[ebp]
  0023c	85 d2		 test	 edx, edx
  0023e	74 0b		 je	 SHORT $L68065

; 448  : 				{	// end of file, quit
; 449  : 				_State |= ios_base::eofbit;

  00240	8b 45 ec	 mov	 eax, DWORD PTR __State$[ebp]
  00243	83 c8 01	 or	 eax, 1
  00246	89 45 ec	 mov	 DWORD PTR __State$[ebp], eax

; 450  : 				break;

  00249	eb 78		 jmp	 SHORT $L68063
$L68065:

; 451  : 				}
; 452  : 			else if (_Ctype_fac.is(_Ctype::space,
; 453  : 				_Traits::to_char_type(_Meta)))

  0024b	8b f4		 mov	 esi, esp
  0024d	8d 4d c8	 lea	 ecx, DWORD PTR __Meta$68060[ebp]
  00250	51		 push	 ecx
  00251	ff 15 00 00 00
	00		 call	 DWORD PTR __imp_?to_char_type@?$char_traits@D@std@@SADABH@Z
  00257	83 c4 04	 add	 esp, 4
  0025a	3b f4		 cmp	 esi, esp
  0025c	e8 00 00 00 00	 call	 __RTC_CheckEsp
  00261	88 45 82	 mov	 BYTE PTR tv205[ebp], al
  00264	8b f4		 mov	 esi, esp
  00266	8a 55 82	 mov	 dl, BYTE PTR tv205[ebp]
  00269	52		 push	 edx
  0026a	6a 48		 push	 72			; 00000048H
  0026c	8b 4d d4	 mov	 ecx, DWORD PTR __Ctype_fac$68054[ebp]
  0026f	ff 15 00 00 00
	00		 call	 DWORD PTR __imp_?is@?$ctype@D@std@@QBE_NFD@Z
  00275	3b f4		 cmp	 esi, esp
  00277	e8 00 00 00 00	 call	 __RTC_CheckEsp
  0027c	88 45 81	 mov	 BYTE PTR tv206[ebp], al
  0027f	0f b6 45 81	 movzx	 eax, BYTE PTR tv206[ebp]
  00283	85 c0		 test	 eax, eax
  00285	74 02		 je	 SHORT $L68067

; 454  : 				break;	// whitespace, quit

  00287	eb 3a		 jmp	 SHORT $L68063
$L68067:

; 455  : 			else
; 456  : 				{	// add character to string
; 457  : 				_Str.append(1, _Traits::to_char_type(_Meta));

  00289	8b f4		 mov	 esi, esp
  0028b	8d 4d c8	 lea	 ecx, DWORD PTR __Meta$68060[ebp]
  0028e	51		 push	 ecx
  0028f	ff 15 00 00 00
	00		 call	 DWORD PTR __imp_?to_char_type@?$char_traits@D@std@@SADABH@Z
  00295	83 c4 04	 add	 esp, 4
  00298	3b f4		 cmp	 esi, esp
  0029a	e8 00 00 00 00	 call	 __RTC_CheckEsp
  0029f	88 45 80	 mov	 BYTE PTR tv207[ebp], al
  002a2	8b f4		 mov	 esi, esp
  002a4	8a 55 80	 mov	 dl, BYTE PTR tv207[ebp]
  002a7	52		 push	 edx
  002a8	6a 01		 push	 1
  002aa	8b 4d 0c	 mov	 ecx, DWORD PTR __Str$[ebp]
  002ad	ff 15 00 00 00
	00		 call	 DWORD PTR __imp_?append@?$basic_string@DU?$char_traits@D@std@@V?$allocator@D@2@@std@@QAEAAV12@ID@Z
  002b3	3b f4		 cmp	 esi, esp
  002b5	e8 00 00 00 00	 call	 __RTC_CheckEsp

; 458  : 				_Changed = true;

  002ba	c6 45 eb 01	 mov	 BYTE PTR __Changed$[ebp], 1

; 459  : 				}

  002be	e9 f5 fe ff ff	 jmp	 $L68062
$L68063:
  002c3	eb 26		 jmp	 SHORT $L69521
$L69522:

; 460  : 		_CATCH_IO_(_Istr)

  002c5	8b f4		 mov	 esi, esp
  002c7	6a 01		 push	 1
  002c9	6a 04		 push	 4
  002cb	8b 45 08	 mov	 eax, DWORD PTR __Istr$[ebp]
  002ce	8b 08		 mov	 ecx, DWORD PTR [eax]
  002d0	8b 55 08	 mov	 edx, DWORD PTR __Istr$[ebp]
  002d3	03 51 04	 add	 edx, DWORD PTR [ecx+4]
  002d6	8b ca		 mov	 ecx, edx
  002d8	ff 15 00 00 00
	00		 call	 DWORD PTR __imp_?setstate@?$basic_ios@DU?$char_traits@D@std@@@std@@QAEXH_N@Z
  002de	3b f4		 cmp	 esi, esp
  002e0	e8 00 00 00 00	 call	 __RTC_CheckEsp
  002e5	b8 00 00 00 00	 mov	 eax, $L69521
  002ea	c3		 ret	 0
$L69521:
  002eb	c7 45 fc 00 00
	00 00		 mov	 DWORD PTR __$EHRec$[ebp+12], 0

; 461  : 		}
; 462  : 
; 463  : 	_Istr.width(0);

  002f2	8b f4		 mov	 esi, esp
  002f4	6a 00		 push	 0
  002f6	8b 45 08	 mov	 eax, DWORD PTR __Istr$[ebp]
  002f9	8b 08		 mov	 ecx, DWORD PTR [eax]
  002fb	8b 55 08	 mov	 edx, DWORD PTR __Istr$[ebp]
  002fe	03 51 04	 add	 edx, DWORD PTR [ecx+4]
  00301	8b ca		 mov	 ecx, edx
  00303	ff 15 00 00 00
	00		 call	 DWORD PTR __imp_?width@ios_base@std@@QAEHH@Z
  00309	3b f4		 cmp	 esi, esp
  0030b	e8 00 00 00 00	 call	 __RTC_CheckEsp

; 464  : 	if (!_Changed)

  00310	0f b6 45 eb	 movzx	 eax, BYTE PTR __Changed$[ebp]
  00314	85 c0		 test	 eax, eax
  00316	75 09		 jne	 SHORT $L68069

; 465  : 		_State |= ios_base::failbit;

  00318	8b 4d ec	 mov	 ecx, DWORD PTR __State$[ebp]
  0031b	83 c9 02	 or	 ecx, 2
  0031e	89 4d ec	 mov	 DWORD PTR __State$[ebp], ecx
$L68069:

; 466  : 	_Istr.setstate(_State);

  00321	8b f4		 mov	 esi, esp
  00323	6a 00		 push	 0
  00325	8b 55 ec	 mov	 edx, DWORD PTR __State$[ebp]
  00328	52		 push	 edx
  00329	8b 45 08	 mov	 eax, DWORD PTR __Istr$[ebp]
  0032c	8b 08		 mov	 ecx, DWORD PTR [eax]
  0032e	8b 55 08	 mov	 edx, DWORD PTR __Istr$[ebp]
  00331	03 51 04	 add	 edx, DWORD PTR [ecx+4]
  00334	8b ca		 mov	 ecx, edx
  00336	ff 15 00 00 00
	00		 call	 DWORD PTR __imp_?setstate@?$basic_ios@DU?$char_traits@D@std@@@std@@QAEXH_N@Z
  0033c	3b f4		 cmp	 esi, esp
  0033e	e8 00 00 00 00	 call	 __RTC_CheckEsp

; 467  : 	return (_Istr);

  00343	8b 45 08	 mov	 eax, DWORD PTR __Istr$[ebp]
  00346	89 45 b8	 mov	 DWORD PTR $T69520[ebp], eax
  00349	c7 45 fc ff ff
	ff ff		 mov	 DWORD PTR __$EHRec$[ebp+12], -1
  00350	8d 4d dc	 lea	 ecx, DWORD PTR __Ok$[ebp]
  00353	e8 00 00 00 00	 call	 ??1sentry@?$basic_istream@DU?$char_traits@D@std@@@std@@QAE@XZ
  00358	8b 45 b8	 mov	 eax, DWORD PTR $T69520[ebp]

; 468  : 	}

  0035b	52		 push	 edx
  0035c	8b cd		 mov	 ecx, ebp
  0035e	50		 push	 eax
  0035f	8d 15 00 00 00
	00		 lea	 edx, DWORD PTR $L69531
  00365	e8 00 00 00 00	 call	 @_RTC_CheckStackVars@8
  0036a	58		 pop	 eax
  0036b	5a		 pop	 edx
  0036c	8b 4d f4	 mov	 ecx, DWORD PTR __$EHRec$[ebp+4]
  0036f	64 89 0d 00 00
	00 00		 mov	 DWORD PTR fs:__except_list, ecx
  00376	5f		 pop	 edi
  00377	5e		 pop	 esi
  00378	5b		 pop	 ebx
  00379	81 c4 80 00 00
	00		 add	 esp, 128		; 00000080H
  0037f	3b ec		 cmp	 ebp, esp
  00381	e8 00 00 00 00	 call	 __RTC_CheckEsp
  00386	8b e5		 mov	 esp, ebp
  00388	5d		 pop	 ebp
  00389	c3		 ret	 0
$L69531:
  0038a	02 00 00 00	 DD	 2
  0038e	00 00 00 00	 DD	 $L69530
$L69530:
  00392	dc ff ff ff	 DD	 -36			; ffffffdcH
  00396	08 00 00 00	 DD	 8
  0039a	00 00 00 00	 DD	 $L69527
  0039e	c8 ff ff ff	 DD	 -56			; ffffffc8H
  003a2	04 00 00 00	 DD	 4
  003a6	00 00 00 00	 DD	 $L69528
$L69528:
  003aa	5f		 DB	 95			; 0000005fH
  003ab	4d		 DB	 77			; 0000004dH
  003ac	65		 DB	 101			; 00000065H
  003ad	74		 DB	 116			; 00000074H
  003ae	61		 DB	 97			; 00000061H
  003af	00		 DB	 0
$L69527:
  003b0	5f		 DB	 95			; 0000005fH
  003b1	4f		 DB	 79			; 0000004fH
  003b2	6b		 DB	 107			; 0000006bH
  003b3	00		 DB	 0
_TEXT	ENDS
;	COMDAT text$x
text$x	SEGMENT
$L69523:
  00000	8d 4d dc	 lea	 ecx, DWORD PTR __Ok$[ebp]
  00003	e9 00 00 00 00	 jmp	 ??1sentry@?$basic_istream@DU?$char_traits@D@std@@@std@@QAE@XZ
$L69524:
  00008	8b f4		 mov	 esi, esp
  0000a	8d 4d c0	 lea	 ecx, DWORD PTR $T69516[ebp]
  0000d	ff 15 00 00 00
	00		 call	 DWORD PTR __imp_??1locale@std@@QAE@XZ
  00013	3b f4		 cmp	 esi, esp
  00015	e9 00 00 00 00	 jmp	 __RTC_CheckEsp
__ehhandler$??$?5DU?$char_traits@D@std@@V?$allocator@D@1@@std@@YAAAV?$basic_istream@DU?$char_traits@D@std@@@0@AAV10@AAV?$basic_string@DU?$char_traits@D@std@@V?$allocator@D@2@@0@@Z:
  0001a	b8 00 00 00 00	 mov	 eax, OFFSET FLAT:$T69526
  0001f	e9 00 00 00 00	 jmp	 ___CxxFrameHandler
text$x	ENDS
??$?5DU?$char_traits@D@std@@V?$allocator@D@1@@std@@YAAAV?$basic_istream@DU?$char_traits@D@std@@@0@AAV10@AAV?$basic_string@DU?$char_traits@D@std@@V?$allocator@D@2@@0@@Z ENDP ; std::operator>><char,std::char_traits<char>,std::allocator<char> >
PUBLIC	??1_Sentry_base@?$basic_istream@DU?$char_traits@D@std@@@std@@QAE@XZ ; std::basic_istream<char,std::char_traits<char> >::_Sentry_base::~_Sentry_base
; Function compile flags: /Odt /RTCsu
;	COMDAT ??1sentry@?$basic_istream@DU?$char_traits@D@std@@@std@@QAE@XZ
_TEXT	SEGMENT
_this$ = -4						; size = 4
??1sentry@?$basic_istream@DU?$char_traits@D@std@@@std@@QAE@XZ PROC NEAR ; std::basic_istream<char,std::char_traits<char> >::sentry::~sentry, COMDAT
; _this$ = ecx
  00000	55		 push	 ebp
  00001	8b ec		 mov	 ebp, esp
  00003	51		 push	 ecx
  00004	c7 45 fc cc cc
	cc cc		 mov	 DWORD PTR [ebp-4], -858993460 ; ccccccccH
  0000b	89 4d fc	 mov	 DWORD PTR _this$[ebp], ecx
  0000e	8b 4d fc	 mov	 ecx, DWORD PTR _this$[ebp]
  00011	e8 00 00 00 00	 call	 ??1_Sentry_base@?$basic_istream@DU?$char_traits@D@std@@@std@@QAE@XZ ; std::basic_istream<char,std::char_traits<char> >::_Sentry_base::~_Sentry_base
  00016	83 c4 04	 add	 esp, 4
  00019	3b ec		 cmp	 ebp, esp
  0001b	e8 00 00 00 00	 call	 __RTC_CheckEsp
  00020	8b e5		 mov	 esp, ebp
  00022	5d		 pop	 ebp
  00023	c3		 ret	 0
??1sentry@?$basic_istream@DU?$char_traits@D@std@@@std@@QAE@XZ ENDP ; std::basic_istream<char,std::char_traits<char> >::sentry::~sentry
_TEXT	ENDS
PUBLIC	??0_Sentry_base@?$basic_istream@DU?$char_traits@D@std@@@std@@QAE@AAV12@@Z ; std::basic_istream<char,std::char_traits<char> >::_Sentry_base::_Sentry_base
EXTRN	__imp_?_Ipfx@?$basic_istream@DU?$char_traits@D@std@@@std@@QAE_N_N@Z:NEAR
;	COMDAT xdata$x
; File d:\program files (x86)\microsoft visual studio .net 2003\vc7\include\istream
xdata$x	SEGMENT
$T69544	DD	0ffffffffH
	DD	FLAT:$L69540
$T69542	DD	019930520H
	DD	01H
	DD	FLAT:$T69544
	DD	2 DUP(00H)
	DD	2 DUP(00H)
; Function compile flags: /Odt /RTCsu
xdata$x	ENDS
;	COMDAT ??0sentry@?$basic_istream@DU?$char_traits@D@std@@@std@@QAE@AAV12@_N@Z
_TEXT	SEGMENT
_this$ = -16						; size = 4
__$EHRec$ = -12						; size = 12
__Istr$ = 8						; size = 4
__Noskip$ = 12						; size = 1
??0sentry@?$basic_istream@DU?$char_traits@D@std@@@std@@QAE@AAV12@_N@Z PROC NEAR ; std::basic_istream<char,std::char_traits<char> >::sentry::sentry, COMDAT
; _this$ = ecx

; 72   : 			{	// construct locking and calling _Ipfx

  00000	55		 push	 ebp
  00001	8b ec		 mov	 ebp, esp
  00003	6a ff		 push	 -1
  00005	68 00 00 00 00	 push	 __ehhandler$??0sentry@?$basic_istream@DU?$char_traits@D@std@@@std@@QAE@AAV12@_N@Z
  0000a	64 a1 00 00 00
	00		 mov	 eax, DWORD PTR fs:__except_list
  00010	50		 push	 eax
  00011	64 89 25 00 00
	00 00		 mov	 DWORD PTR fs:__except_list, esp
  00018	51		 push	 ecx
  00019	56		 push	 esi
  0001a	c7 45 f0 cc cc
	cc cc		 mov	 DWORD PTR [ebp-16], -858993460 ; ccccccccH
  00021	89 4d f0	 mov	 DWORD PTR _this$[ebp], ecx
  00024	8b 45 08	 mov	 eax, DWORD PTR __Istr$[ebp]
  00027	50		 push	 eax
  00028	8b 4d f0	 mov	 ecx, DWORD PTR _this$[ebp]
  0002b	e8 00 00 00 00	 call	 ??0_Sentry_base@?$basic_istream@DU?$char_traits@D@std@@@std@@QAE@AAV12@@Z ; std::basic_istream<char,std::char_traits<char> >::_Sentry_base::_Sentry_base
  00030	c7 45 fc 00 00
	00 00		 mov	 DWORD PTR __$EHRec$[ebp+8], 0

; 73   : 			_Ok = this->_Myistr._Ipfx(_Noskip);

  00037	8b f4		 mov	 esi, esp
  00039	8a 4d 0c	 mov	 cl, BYTE PTR __Noskip$[ebp]
  0003c	51		 push	 ecx
  0003d	8b 55 f0	 mov	 edx, DWORD PTR _this$[ebp]
  00040	8b 0a		 mov	 ecx, DWORD PTR [edx]
  00042	ff 15 00 00 00
	00		 call	 DWORD PTR __imp_?_Ipfx@?$basic_istream@DU?$char_traits@D@std@@@std@@QAE_N_N@Z
  00048	3b f4		 cmp	 esi, esp
  0004a	e8 00 00 00 00	 call	 __RTC_CheckEsp
  0004f	8b 4d f0	 mov	 ecx, DWORD PTR _this$[ebp]
  00052	88 41 04	 mov	 BYTE PTR [ecx+4], al

; 74   : 			}

  00055	c7 45 fc ff ff
	ff ff		 mov	 DWORD PTR __$EHRec$[ebp+8], -1
  0005c	8b 45 f0	 mov	 eax, DWORD PTR _this$[ebp]
  0005f	8b 4d f4	 mov	 ecx, DWORD PTR __$EHRec$[ebp]
  00062	64 89 0d 00 00
	00 00		 mov	 DWORD PTR fs:__except_list, ecx
  00069	5e		 pop	 esi
  0006a	83 c4 10	 add	 esp, 16			; 00000010H
  0006d	3b ec		 cmp	 ebp, esp
  0006f	e8 00 00 00 00	 call	 __RTC_CheckEsp
  00074	8b e5		 mov	 esp, ebp
  00076	5d		 pop	 ebp
  00077	c2 08 00	 ret	 8
_TEXT	ENDS
;	COMDAT text$x
text$x	SEGMENT
$L69540:
  00000	8b 4d f0	 mov	 ecx, DWORD PTR _this$[ebp]
  00003	e9 00 00 00 00	 jmp	 ??1_Sentry_base@?$basic_istream@DU?$char_traits@D@std@@@std@@QAE@XZ ; std::basic_istream<char,std::char_traits<char> >::_Sentry_base::~_Sentry_base
__ehhandler$??0sentry@?$basic_istream@DU?$char_traits@D@std@@@std@@QAE@AAV12@_N@Z:
  00008	b8 00 00 00 00	 mov	 eax, OFFSET FLAT:$T69542
  0000d	e9 00 00 00 00	 jmp	 ___CxxFrameHandler
text$x	ENDS
??0sentry@?$basic_istream@DU?$char_traits@D@std@@@std@@QAE@AAV12@_N@Z ENDP ; std::basic_istream<char,std::char_traits<char> >::sentry::sentry
; Function compile flags: /Odt /RTCsu
;	COMDAT ??Bsentry@?$basic_istream@DU?$char_traits@D@std@@@std@@QBE_NXZ
_TEXT	SEGMENT
_this$ = -4						; size = 4
??Bsentry@?$basic_istream@DU?$char_traits@D@std@@@std@@QBE_NXZ PROC NEAR ; std::basic_istream<char,std::char_traits<char> >::sentry::operator bool, COMDAT
; _this$ = ecx

; 77   : 			{	// test if _Ipfx succeeded

  00000	55		 push	 ebp
  00001	8b ec		 mov	 ebp, esp
  00003	51		 push	 ecx
  00004	c7 45 fc cc cc
	cc cc		 mov	 DWORD PTR [ebp-4], -858993460 ; ccccccccH
  0000b	89 4d fc	 mov	 DWORD PTR _this$[ebp], ecx

; 78   : 			return (_Ok);

  0000e	8b 45 fc	 mov	 eax, DWORD PTR _this$[ebp]
  00011	8a 40 04	 mov	 al, BYTE PTR [eax+4]

; 79   : 			}

  00014	8b e5		 mov	 esp, ebp
  00016	5d		 pop	 ebp
  00017	c3		 ret	 0
??Bsentry@?$basic_istream@DU?$char_traits@D@std@@@std@@QBE_NXZ ENDP ; std::basic_istream<char,std::char_traits<char> >::sentry::operator bool
_TEXT	ENDS
EXTRN	__imp_?_Unlock@?$basic_streambuf@DU?$char_traits@D@std@@@std@@QAEXXZ:NEAR
; Function compile flags: /Odt /RTCsu
;	COMDAT ??1_Sentry_base@?$basic_istream@DU?$char_traits@D@std@@@std@@QAE@XZ
_TEXT	SEGMENT
_this$ = -4						; size = 4
??1_Sentry_base@?$basic_istream@DU?$char_traits@D@std@@@std@@QAE@XZ PROC NEAR ; std::basic_istream<char,std::char_traits<char> >::_Sentry_base::~_Sentry_base, COMDAT
; _this$ = ecx

; 58   : 			{	// destroy after unlocking

  00000	55		 push	 ebp
  00001	8b ec		 mov	 ebp, esp
  00003	51		 push	 ecx
  00004	56		 push	 esi
  00005	c7 45 fc cc cc
	cc cc		 mov	 DWORD PTR [ebp-4], -858993460 ; ccccccccH
  0000c	89 4d fc	 mov	 DWORD PTR _this$[ebp], ecx

; 59   : 			if (_Myistr.rdbuf() != 0)

  0000f	8b 45 fc	 mov	 eax, DWORD PTR _this$[ebp]
  00012	8b 08		 mov	 ecx, DWORD PTR [eax]
  00014	8b 11		 mov	 edx, DWORD PTR [ecx]
  00016	8b 45 fc	 mov	 eax, DWORD PTR _this$[ebp]
  00019	8b 08		 mov	 ecx, DWORD PTR [eax]
  0001b	03 4a 04	 add	 ecx, DWORD PTR [edx+4]
  0001e	8b f4		 mov	 esi, esp
  00020	ff 15 00 00 00
	00		 call	 DWORD PTR __imp_?rdbuf@?$basic_ios@DU?$char_traits@D@std@@@std@@QBEPAV?$basic_streambuf@DU?$char_traits@D@std@@@2@XZ
  00026	3b f4		 cmp	 esi, esp
  00028	e8 00 00 00 00	 call	 __RTC_CheckEsp
  0002d	85 c0		 test	 eax, eax
  0002f	74 2f		 je	 SHORT $L66398

; 60   : 				_Myistr.rdbuf()->_Unlock();

  00031	8b 4d fc	 mov	 ecx, DWORD PTR _this$[ebp]
  00034	8b 11		 mov	 edx, DWORD PTR [ecx]
  00036	8b 02		 mov	 eax, DWORD PTR [edx]
  00038	8b 4d fc	 mov	 ecx, DWORD PTR _this$[ebp]
  0003b	8b 09		 mov	 ecx, DWORD PTR [ecx]
  0003d	03 48 04	 add	 ecx, DWORD PTR [eax+4]
  00040	8b f4		 mov	 esi, esp
  00042	ff 15 00 00 00
	00		 call	 DWORD PTR __imp_?rdbuf@?$basic_ios@DU?$char_traits@D@std@@@std@@QBEPAV?$basic_streambuf@DU?$char_traits@D@std@@@2@XZ
  00048	3b f4		 cmp	 esi, esp
  0004a	e8 00 00 00 00	 call	 __RTC_CheckEsp
  0004f	8b f4		 mov	 esi, esp
  00051	8b c8		 mov	 ecx, eax
  00053	ff 15 00 00 00
	00		 call	 DWORD PTR __imp_?_Unlock@?$basic_streambuf@DU?$char_traits@D@std@@@std@@QAEXXZ
  00059	3b f4		 cmp	 esi, esp
  0005b	e8 00 00 00 00	 call	 __RTC_CheckEsp
$L66398:

; 61   : 			}

  00060	5e		 pop	 esi
  00061	83 c4 04	 add	 esp, 4
  00064	3b ec		 cmp	 ebp, esp
  00066	e8 00 00 00 00	 call	 __RTC_CheckEsp
  0006b	8b e5		 mov	 esp, ebp
  0006d	5d		 pop	 ebp
  0006e	c3		 ret	 0
??1_Sentry_base@?$basic_istream@DU?$char_traits@D@std@@@std@@QAE@XZ ENDP ; std::basic_istream<char,std::char_traits<char> >::_Sentry_base::~_Sentry_base
_TEXT	ENDS
EXTRN	__imp_?_Lock@?$basic_streambuf@DU?$char_traits@D@std@@@std@@QAEXXZ:NEAR
; Function compile flags: /Odt /RTCsu
;	COMDAT ??0_Sentry_base@?$basic_istream@DU?$char_traits@D@std@@@std@@QAE@AAV12@@Z
_TEXT	SEGMENT
_this$ = -4						; size = 4
__Istr$ = 8						; size = 4
??0_Sentry_base@?$basic_istream@DU?$char_traits@D@std@@@std@@QAE@AAV12@@Z PROC NEAR ; std::basic_istream<char,std::char_traits<char> >::_Sentry_base::_Sentry_base, COMDAT
; _this$ = ecx

; 52   : 			{	// lock the stream buffer, if there

  00000	55		 push	 ebp
  00001	8b ec		 mov	 ebp, esp
  00003	51		 push	 ecx
  00004	56		 push	 esi
  00005	c7 45 fc cc cc
	cc cc		 mov	 DWORD PTR [ebp-4], -858993460 ; ccccccccH
  0000c	89 4d fc	 mov	 DWORD PTR _this$[ebp], ecx
  0000f	8b 45 fc	 mov	 eax, DWORD PTR _this$[ebp]
  00012	8b 4d 08	 mov	 ecx, DWORD PTR __Istr$[ebp]
  00015	89 08		 mov	 DWORD PTR [eax], ecx

; 53   : 			if (_Myistr.rdbuf() != 0)

  00017	8b 55 fc	 mov	 edx, DWORD PTR _this$[ebp]
  0001a	8b 02		 mov	 eax, DWORD PTR [edx]
  0001c	8b 08		 mov	 ecx, DWORD PTR [eax]
  0001e	8b 55 fc	 mov	 edx, DWORD PTR _this$[ebp]
  00021	8b 02		 mov	 eax, DWORD PTR [edx]
  00023	03 41 04	 add	 eax, DWORD PTR [ecx+4]
  00026	8b f4		 mov	 esi, esp
  00028	8b c8		 mov	 ecx, eax
  0002a	ff 15 00 00 00
	00		 call	 DWORD PTR __imp_?rdbuf@?$basic_ios@DU?$char_traits@D@std@@@std@@QBEPAV?$basic_streambuf@DU?$char_traits@D@std@@@2@XZ
  00030	3b f4		 cmp	 esi, esp
  00032	e8 00 00 00 00	 call	 __RTC_CheckEsp
  00037	85 c0		 test	 eax, eax
  00039	74 2f		 je	 SHORT $L67414

; 54   : 				_Myistr.rdbuf()->_Lock();

  0003b	8b 4d fc	 mov	 ecx, DWORD PTR _this$[ebp]
  0003e	8b 11		 mov	 edx, DWORD PTR [ecx]
  00040	8b 02		 mov	 eax, DWORD PTR [edx]
  00042	8b 4d fc	 mov	 ecx, DWORD PTR _this$[ebp]
  00045	8b 09		 mov	 ecx, DWORD PTR [ecx]
  00047	03 48 04	 add	 ecx, DWORD PTR [eax+4]
  0004a	8b f4		 mov	 esi, esp
  0004c	ff 15 00 00 00
	00		 call	 DWORD PTR __imp_?rdbuf@?$basic_ios@DU?$char_traits@D@std@@@std@@QBEPAV?$basic_streambuf@DU?$char_traits@D@std@@@2@XZ
  00052	3b f4		 cmp	 esi, esp
  00054	e8 00 00 00 00	 call	 __RTC_CheckEsp
  00059	8b f4		 mov	 esi, esp
  0005b	8b c8		 mov	 ecx, eax
  0005d	ff 15 00 00 00
	00		 call	 DWORD PTR __imp_?_Lock@?$basic_streambuf@DU?$char_traits@D@std@@@std@@QAEXXZ
  00063	3b f4		 cmp	 esi, esp
  00065	e8 00 00 00 00	 call	 __RTC_CheckEsp
$L67414:

; 55   : 			}

  0006a	8b 45 fc	 mov	 eax, DWORD PTR _this$[ebp]
  0006d	5e		 pop	 esi
  0006e	83 c4 04	 add	 esp, 4
  00071	3b ec		 cmp	 ebp, esp
  00073	e8 00 00 00 00	 call	 __RTC_CheckEsp
  00078	8b e5		 mov	 esp, ebp
  0007a	5d		 pop	 ebp
  0007b	c2 04 00	 ret	 4
??0_Sentry_base@?$basic_istream@DU?$char_traits@D@std@@@std@@QAE@AAV12@@Z ENDP ; std::basic_istream<char,std::char_traits<char> >::_Sentry_base::_Sentry_base
_TEXT	ENDS
PUBLIC	?_Psave@?$_Facetptr@V?$ctype@D@std@@@std@@2PBVfacet@locale@2@B ; std::_Facetptr<std::ctype<char> >::_Psave
PUBLIC	__TI2?AVbad_cast@@
PUBLIC	__CTA2?AVbad_cast@@
PUBLIC	??_R0?AVbad_cast@@@8				; bad_cast `RTTI Type Descriptor'
PUBLIC	__CT??_R0?AVbad_cast@@@8??0bad_cast@@QAE@ABV0@@Z12
PUBLIC	??_R0?AVexception@@@8				; exception `RTTI Type Descriptor'
PUBLIC	__CT??_R0?AVexception@@@8??0exception@@QAE@ABV0@@Z12
PUBLIC	??_C@_08EPJLHIJG@bad?5cast?$AA@			; `string'
EXTRN	__imp_?_Getfacet@locale@std@@QBEPBVfacet@12@I@Z:NEAR
EXTRN	??0exception@@QAE@ABV0@@Z:NEAR			; exception::exception
EXTRN	??0bad_cast@@QAE@ABV0@@Z:NEAR			; bad_cast::bad_cast
EXTRN	??1bad_cast@@UAE@XZ:NEAR			; bad_cast::~bad_cast
EXTRN	__imp_?id@?$ctype@D@std@@2V0locale@2@A:DWORD
EXTRN	__imp_?_Getcat@?$ctype@D@std@@SAIPAPBVfacet@locale@2@@Z:NEAR
EXTRN	__CxxThrowException@8:NEAR
EXTRN	__imp_??Bid@locale@std@@QAEIXZ:NEAR
EXTRN	__imp_??0_Lockit@std@@QAE@H@Z:NEAR
EXTRN	__imp_??1_Lockit@std@@QAE@XZ:NEAR
EXTRN	__imp_?_Incref@facet@locale@std@@QAEXXZ:NEAR
EXTRN	__imp_?_Register@facet@locale@std@@QAEXXZ:NEAR
EXTRN	??_7type_info@@6B@:QWORD			; type_info::`vftable'
EXTRN	__imp_??0bad_cast@@QAE@PBD@Z:NEAR
;	COMDAT ?_Psave@?$_Facetptr@V?$ctype@D@std@@@std@@2PBVfacet@locale@2@B
; File d:\program files (x86)\microsoft visual studio .net 2003\vc7\include\xlocale
_BSS	SEGMENT
?_Psave@?$_Facetptr@V?$ctype@D@std@@@std@@2PBVfacet@locale@2@B DD 01H DUP (?) ; std::_Facetptr<std::ctype<char> >::_Psave
_BSS	ENDS
;	COMDAT xdata$x
xdata$x	SEGMENT
$T69562	DD	0ffffffffH
	DD	FLAT:$L69554
$T69556	DD	019930520H
	DD	01H
	DD	FLAT:$T69562
	DD	2 DUP(00H)
	DD	2 DUP(00H)
xdata$x	ENDS
;	COMDAT ??_C@_08EPJLHIJG@bad?5cast?$AA@
CONST	SEGMENT
??_C@_08EPJLHIJG@bad?5cast?$AA@ DB 'bad cast', 00H	; `string'
CONST	ENDS
;	COMDAT __TI2?AVbad_cast@@
xdata$x	SEGMENT
__TI2?AVbad_cast@@ DD 00H
	DD	FLAT:??1bad_cast@@UAE@XZ
	DD	00H
	DD	FLAT:__CTA2?AVbad_cast@@
xdata$x	ENDS
;	COMDAT __CTA2?AVbad_cast@@
xdata$x	SEGMENT
__CTA2?AVbad_cast@@ DD 02H
	DD	FLAT:__CT??_R0?AVbad_cast@@@8??0bad_cast@@QAE@ABV0@@Z12
	DD	FLAT:__CT??_R0?AVexception@@@8??0exception@@QAE@ABV0@@Z12
xdata$x	ENDS
;	COMDAT __CT??_R0?AVbad_cast@@@8??0bad_cast@@QAE@ABV0@@Z12
xdata$x	SEGMENT
__CT??_R0?AVbad_cast@@@8??0bad_cast@@QAE@ABV0@@Z12 DD 00H
	DD	FLAT:??_R0?AVbad_cast@@@8
	DD	00H
	DD	0ffffffffH
	ORG $+4
	DD	0cH
	DD	FLAT:??0bad_cast@@QAE@ABV0@@Z
xdata$x	ENDS
;	COMDAT ??_R0?AVbad_cast@@@8
_DATA	SEGMENT
??_R0?AVbad_cast@@@8 DD FLAT:??_7type_info@@6B@		; bad_cast `RTTI Type Descriptor'
	DD	00H
	DB	'.?AVbad_cast@@', 00H
_DATA	ENDS
;	COMDAT __CT??_R0?AVexception@@@8??0exception@@QAE@ABV0@@Z12
xdata$x	SEGMENT
__CT??_R0?AVexception@@@8??0exception@@QAE@ABV0@@Z12 DD 00H
	DD	FLAT:??_R0?AVexception@@@8
	DD	00H
	DD	0ffffffffH
	ORG $+4
	DD	0cH
	DD	FLAT:??0exception@@QAE@ABV0@@Z
xdata$x	ENDS
;	COMDAT ??_R0?AVexception@@@8
_DATA	SEGMENT
??_R0?AVexception@@@8 DD FLAT:??_7type_info@@6B@	; exception `RTTI Type Descriptor'
	DD	00H
	DB	'.?AVexception@@', 00H
; Function compile flags: /Odt /RTCsu
_DATA	ENDS
;	COMDAT ??$use_facet@V?$ctype@D@std@@@std@@YAABV?$ctype@D@0@ABVlocale@0@@Z
_TEXT	SEGMENT
$T69553 = -64						; size = 4
$T69551 = -60						; size = 12
__Pfmod$67983 = -48					; size = 4
__Pf$ = -44						; size = 4
__Id$ = -40						; size = 4
__Psave$ = -32						; size = 4
__Lock$ = -20						; size = 4
__$EHRec$ = -12						; size = 12
__Loc$ = 8						; size = 4
??$use_facet@V?$ctype@D@std@@@std@@YAABV?$ctype@D@0@ABVlocale@0@@Z PROC NEAR ; std::use_facet<std::ctype<char> >, COMDAT

; 315  : 	{	// get facet reference from locale

  00000	55		 push	 ebp
  00001	8b ec		 mov	 ebp, esp
  00003	6a ff		 push	 -1
  00005	68 00 00 00 00	 push	 __ehhandler$??$use_facet@V?$ctype@D@std@@@std@@YAABV?$ctype@D@0@ABVlocale@0@@Z
  0000a	64 a1 00 00 00
	00		 mov	 eax, DWORD PTR fs:__except_list
  00010	50		 push	 eax
  00011	64 89 25 00 00
	00 00		 mov	 DWORD PTR fs:__except_list, esp
  00018	83 ec 34	 sub	 esp, 52			; 00000034H
  0001b	56		 push	 esi
  0001c	57		 push	 edi
  0001d	8d 7d c0	 lea	 edi, DWORD PTR [ebp-64]
  00020	b9 0d 00 00 00	 mov	 ecx, 13			; 0000000dH
  00025	b8 cc cc cc cc	 mov	 eax, -858993460		; ccccccccH
  0002a	f3 ab		 rep stosd

; 316  : 	_Lockit _Lock(_LOCK_LOCALE);	// the thread lock, make get atomic

  0002c	8b f4		 mov	 esi, esp
  0002e	6a 00		 push	 0
  00030	8d 4d ec	 lea	 ecx, DWORD PTR __Lock$[ebp]
  00033	ff 15 00 00 00
	00		 call	 DWORD PTR __imp_??0_Lockit@std@@QAE@H@Z
  00039	3b f4		 cmp	 esi, esp
  0003b	e8 00 00 00 00	 call	 __RTC_CheckEsp
  00040	c7 45 fc 00 00
	00 00		 mov	 DWORD PTR __$EHRec$[ebp+8], 0

; 317  : 	const locale::facet *_Psave =
; 318  : 		_Facetptr<_Facet>::_Psave;	// static pointer to lazy facet

  00047	a1 00 00 00 00	 mov	 eax, DWORD PTR ?_Psave@?$_Facetptr@V?$ctype@D@std@@@std@@2PBVfacet@locale@2@B ; std::_Facetptr<std::ctype<char> >::_Psave
  0004c	89 45 e0	 mov	 DWORD PTR __Psave$[ebp], eax

; 319  : 
; 320  : 	size_t _Id = _Facet::id;

  0004f	8b f4		 mov	 esi, esp
  00051	8b 0d 00 00 00
	00		 mov	 ecx, DWORD PTR __imp_?id@?$ctype@D@std@@2V0locale@2@A
  00057	ff 15 00 00 00
	00		 call	 DWORD PTR __imp_??Bid@locale@std@@QAEIXZ
  0005d	3b f4		 cmp	 esi, esp
  0005f	e8 00 00 00 00	 call	 __RTC_CheckEsp
  00064	89 45 d8	 mov	 DWORD PTR __Id$[ebp], eax

; 321  : 	const locale::facet *_Pf = _Loc._Getfacet(_Id);

  00067	8b f4		 mov	 esi, esp
  00069	8b 4d d8	 mov	 ecx, DWORD PTR __Id$[ebp]
  0006c	51		 push	 ecx
  0006d	8b 4d 08	 mov	 ecx, DWORD PTR __Loc$[ebp]
  00070	ff 15 00 00 00
	00		 call	 DWORD PTR __imp_?_Getfacet@locale@std@@QBEPBVfacet@12@I@Z
  00076	3b f4		 cmp	 esi, esp
  00078	e8 00 00 00 00	 call	 __RTC_CheckEsp
  0007d	89 45 d4	 mov	 DWORD PTR __Pf$[ebp], eax

; 322  : 
; 323  : 	if (_Pf != 0)

  00080	83 7d d4 00	 cmp	 DWORD PTR __Pf$[ebp], 0
  00084	74 05		 je	 SHORT $L67966

; 324  : 		;	// got facet from locale
; 325  : 	else if (_Psave != 0)

  00086	e9 86 00 00 00	 jmp	 $L67967
$L67966:
  0008b	83 7d e0 00	 cmp	 DWORD PTR __Psave$[ebp], 0
  0008f	74 08		 je	 SHORT $L67968

; 326  : 		_Pf = _Psave;	// lazy facet already allocated

  00091	8b 55 e0	 mov	 edx, DWORD PTR __Psave$[ebp]
  00094	89 55 d4	 mov	 DWORD PTR __Pf$[ebp], edx

; 327  : 	else if (_Facet::_Getcat(&_Psave) == (size_t)(-1))

  00097	eb 78		 jmp	 SHORT $L67967
$L67968:
  00099	8b f4		 mov	 esi, esp
  0009b	8d 45 e0	 lea	 eax, DWORD PTR __Psave$[ebp]
  0009e	50		 push	 eax
  0009f	ff 15 00 00 00
	00		 call	 DWORD PTR __imp_?_Getcat@?$ctype@D@std@@SAIPAPBVfacet@locale@2@@Z
  000a5	83 c4 04	 add	 esp, 4
  000a8	3b f4		 cmp	 esi, esp
  000aa	e8 00 00 00 00	 call	 __RTC_CheckEsp
  000af	83 f8 ff	 cmp	 eax, -1
  000b2	75 25		 jne	 SHORT $L67971

; 328  : 
; 329  :  #if _HAS_EXCEPTIONS
; 330  : 		throw bad_cast();	// lazy disallowed

  000b4	8b f4		 mov	 esi, esp
  000b6	68 00 00 00 00	 push	 OFFSET FLAT:??_C@_08EPJLHIJG@bad?5cast?$AA@
  000bb	8d 4d c4	 lea	 ecx, DWORD PTR $T69551[ebp]
  000be	ff 15 00 00 00
	00		 call	 DWORD PTR __imp_??0bad_cast@@QAE@PBD@Z
  000c4	3b f4		 cmp	 esi, esp
  000c6	e8 00 00 00 00	 call	 __RTC_CheckEsp
  000cb	68 00 00 00 00	 push	 OFFSET FLAT:__TI2?AVbad_cast@@
  000d0	8d 4d c4	 lea	 ecx, DWORD PTR $T69551[ebp]
  000d3	51		 push	 ecx
  000d4	e8 00 00 00 00	 call	 __CxxThrowException@8
$L67971:

; 331  : 
; 332  :  #else /* _HAS_EXCEPTIONS */
; 333  : 		abort();	// lazy disallowed
; 334  :  #endif /* _HAS_EXCEPTIONS */
; 335  : 
; 336  : 	else
; 337  : 		{	// queue up lazy facet for destruction
; 338  : 		_Pf = _Psave;

  000d9	8b 55 e0	 mov	 edx, DWORD PTR __Psave$[ebp]
  000dc	89 55 d4	 mov	 DWORD PTR __Pf$[ebp], edx

; 339  : 		_Facetptr<_Facet>::_Psave = _Psave;

  000df	8b 45 e0	 mov	 eax, DWORD PTR __Psave$[ebp]
  000e2	a3 00 00 00 00	 mov	 DWORD PTR ?_Psave@?$_Facetptr@V?$ctype@D@std@@@std@@2PBVfacet@locale@2@B, eax ; std::_Facetptr<std::ctype<char> >::_Psave

; 340  : 
; 341  : 		locale::facet *_Pfmod = (_Facet *)_Psave;

  000e7	8b 4d e0	 mov	 ecx, DWORD PTR __Psave$[ebp]
  000ea	89 4d d0	 mov	 DWORD PTR __Pfmod$67983[ebp], ecx

; 342  : 		_Pfmod->_Incref();

  000ed	8b f4		 mov	 esi, esp
  000ef	8b 4d d0	 mov	 ecx, DWORD PTR __Pfmod$67983[ebp]
  000f2	ff 15 00 00 00
	00		 call	 DWORD PTR __imp_?_Incref@facet@locale@std@@QAEXXZ
  000f8	3b f4		 cmp	 esi, esp
  000fa	e8 00 00 00 00	 call	 __RTC_CheckEsp

; 343  : 		_Pfmod->_Register();

  000ff	8b f4		 mov	 esi, esp
  00101	8b 4d d0	 mov	 ecx, DWORD PTR __Pfmod$67983[ebp]
  00104	ff 15 00 00 00
	00		 call	 DWORD PTR __imp_?_Register@facet@locale@std@@QAEXXZ
  0010a	3b f4		 cmp	 esi, esp
  0010c	e8 00 00 00 00	 call	 __RTC_CheckEsp
$L67967:

; 344  : 		}
; 345  : 
; 346  : 	return ((const _Facet&)(*_Pf));	// should be dynamic_cast

  00111	8b 55 d4	 mov	 edx, DWORD PTR __Pf$[ebp]
  00114	89 55 c0	 mov	 DWORD PTR $T69553[ebp], edx
  00117	c7 45 fc ff ff
	ff ff		 mov	 DWORD PTR __$EHRec$[ebp+8], -1
  0011e	8b f4		 mov	 esi, esp
  00120	8d 4d ec	 lea	 ecx, DWORD PTR __Lock$[ebp]
  00123	ff 15 00 00 00
	00		 call	 DWORD PTR __imp_??1_Lockit@std@@QAE@XZ
  00129	3b f4		 cmp	 esi, esp
  0012b	e8 00 00 00 00	 call	 __RTC_CheckEsp
  00130	8b 45 c0	 mov	 eax, DWORD PTR $T69553[ebp]
$L69550:

; 347  : 	}

  00133	52		 push	 edx
  00134	8b cd		 mov	 ecx, ebp
  00136	50		 push	 eax
  00137	8d 15 00 00 00
	00		 lea	 edx, DWORD PTR $L69561
  0013d	e8 00 00 00 00	 call	 @_RTC_CheckStackVars@8
  00142	58		 pop	 eax
  00143	5a		 pop	 edx
  00144	8b 4d f4	 mov	 ecx, DWORD PTR __$EHRec$[ebp]
  00147	64 89 0d 00 00
	00 00		 mov	 DWORD PTR fs:__except_list, ecx
  0014e	5f		 pop	 edi
  0014f	5e		 pop	 esi
  00150	83 c4 40	 add	 esp, 64			; 00000040H
  00153	3b ec		 cmp	 ebp, esp
  00155	e8 00 00 00 00	 call	 __RTC_CheckEsp
  0015a	8b e5		 mov	 esp, ebp
  0015c	5d		 pop	 ebp
  0015d	c3		 ret	 0
$L69561:
  0015e	02 00 00 00	 DD	 2
  00162	00 00 00 00	 DD	 $L69560
$L69560:
  00166	ec ff ff ff	 DD	 -20			; ffffffecH
  0016a	04 00 00 00	 DD	 4
  0016e	00 00 00 00	 DD	 $L69557
  00172	e0 ff ff ff	 DD	 -32			; ffffffe0H
  00176	04 00 00 00	 DD	 4
  0017a	00 00 00 00	 DD	 $L69558
$L69558:
  0017e	5f		 DB	 95			; 0000005fH
  0017f	50		 DB	 80			; 00000050H
  00180	73		 DB	 115			; 00000073H
  00181	61		 DB	 97			; 00000061H
  00182	76		 DB	 118			; 00000076H
  00183	65		 DB	 101			; 00000065H
  00184	00		 DB	 0
$L69557:
  00185	5f		 DB	 95			; 0000005fH
  00186	4c		 DB	 76			; 0000004cH
  00187	6f		 DB	 111			; 0000006fH
  00188	63		 DB	 99			; 00000063H
  00189	6b		 DB	 107			; 0000006bH
  0018a	00		 DB	 0
_TEXT	ENDS
;	COMDAT text$x
text$x	SEGMENT
$L69554:
  00000	8b f4		 mov	 esi, esp
  00002	8d 4d ec	 lea	 ecx, DWORD PTR __Lock$[ebp]
  00005	ff 15 00 00 00
	00		 call	 DWORD PTR __imp_??1_Lockit@std@@QAE@XZ
  0000b	3b f4		 cmp	 esi, esp
  0000d	e9 00 00 00 00	 jmp	 __RTC_CheckEsp
__ehhandler$??$use_facet@V?$ctype@D@std@@@std@@YAABV?$ctype@D@0@ABVlocale@0@@Z:
  00012	b8 00 00 00 00	 mov	 eax, OFFSET FLAT:$T69556
  00017	e9 00 00 00 00	 jmp	 ___CxxFrameHandler
text$x	ENDS
??$use_facet@V?$ctype@D@std@@@std@@YAABV?$ctype@D@0@ABVlocale@0@@Z ENDP ; std::use_facet<std::ctype<char> >
PUBLIC	??$getline@DU?$char_traits@D@std@@V?$allocator@D@2@@std@@YAAAV?$basic_istream@DU?$char_traits@D@std@@@0@AAV10@AAV?$basic_string@DU?$char_traits@D@std@@V?$allocator@D@2@@0@@Z ; std::getline<char,std::char_traits<char>,std::allocator<char> >
PUBLIC	??$getline@DU?$char_traits@D@std@@V?$allocator@D@2@@std@@YAAAV?$basic_istream@DU?$char_traits@D@std@@@0@AAV10@AAV?$basic_string@DU?$char_traits@D@std@@V?$allocator@D@2@@0@D@Z ; std::getline<char,std::char_traits<char>,std::allocator<char> >
EXTRN	__imp_?widen@?$basic_ios@DU?$char_traits@D@std@@@std@@QBEDD@Z:NEAR
; Function compile flags: /Odt /RTCsu
; File d:\program files (x86)\microsoft visual studio .net 2003\vc7\include\string
;	COMDAT ??$getline@DU?$char_traits@D@std@@V?$allocator@D@2@@std@@YAAAV?$basic_istream@DU?$char_traits@D@std@@@0@AAV10@AAV?$basic_string@DU?$char_traits@D@std@@V?$allocator@D@2@@0@@Z
_TEXT	SEGMENT
__Istr$ = 8						; size = 4
__Str$ = 12						; size = 4
??$getline@DU?$char_traits@D@std@@V?$allocator@D@2@@std@@YAAAV?$basic_istream@DU?$char_traits@D@std@@@0@AAV10@AAV?$basic_string@DU?$char_traits@D@std@@V?$allocator@D@2@@0@@Z PROC NEAR ; std::getline<char,std::char_traits<char>,std::allocator<char> >, COMDAT

; 528  : 	{	// get characters into string, discard newline

  00000	55		 push	 ebp
  00001	8b ec		 mov	 ebp, esp
  00003	56		 push	 esi

; 529  : 	return (getline(_Istr, _Str, _Istr.widen('\n')));

  00004	8b f4		 mov	 esi, esp
  00006	6a 0a		 push	 10			; 0000000aH
  00008	8b 45 08	 mov	 eax, DWORD PTR __Istr$[ebp]
  0000b	8b 08		 mov	 ecx, DWORD PTR [eax]
  0000d	8b 55 08	 mov	 edx, DWORD PTR __Istr$[ebp]
  00010	03 51 04	 add	 edx, DWORD PTR [ecx+4]
  00013	8b ca		 mov	 ecx, edx
  00015	ff 15 00 00 00
	00		 call	 DWORD PTR __imp_?widen@?$basic_ios@DU?$char_traits@D@std@@@std@@QBEDD@Z
  0001b	3b f4		 cmp	 esi, esp
  0001d	e8 00 00 00 00	 call	 __RTC_CheckEsp
  00022	50		 push	 eax
  00023	8b 45 0c	 mov	 eax, DWORD PTR __Str$[ebp]
  00026	50		 push	 eax
  00027	8b 4d 08	 mov	 ecx, DWORD PTR __Istr$[ebp]
  0002a	51		 push	 ecx
  0002b	e8 00 00 00 00	 call	 ??$getline@DU?$char_traits@D@std@@V?$allocator@D@2@@std@@YAAAV?$basic_istream@DU?$char_traits@D@std@@@0@AAV10@AAV?$basic_string@DU?$char_traits@D@std@@V?$allocator@D@2@@0@D@Z ; std::getline<char,std::char_traits<char>,std::allocator<char> >
  00030	83 c4 0c	 add	 esp, 12			; 0000000cH

; 530  : 	}

  00033	5e		 pop	 esi
  00034	3b ec		 cmp	 ebp, esp
  00036	e8 00 00 00 00	 call	 __RTC_CheckEsp
  0003b	5d		 pop	 ebp
  0003c	c3		 ret	 0
??$getline@DU?$char_traits@D@std@@V?$allocator@D@2@@std@@YAAAV?$basic_istream@DU?$char_traits@D@std@@@0@AAV10@AAV?$basic_string@DU?$char_traits@D@std@@V?$allocator@D@2@@0@@Z ENDP ; std::getline<char,std::char_traits<char>,std::allocator<char> >
_TEXT	ENDS
EXTRN	__imp_?size@?$basic_string@DU?$char_traits@D@std@@V?$allocator@D@2@@std@@QBEIXZ:NEAR
EXTRN	__imp_?to_int_type@?$char_traits@D@std@@SAHABD@Z:NEAR
EXTRN	__imp_?sbumpc@?$basic_streambuf@DU?$char_traits@D@std@@@std@@QAEHXZ:NEAR
;	COMDAT xdata$x
xdata$x	SEGMENT
$T69581	DD	0ffffffffH
	DD	FLAT:$L69572
	DD	00H
	DD	00H
	DD	00H
	DD	00H
$T69583	DD	00H
	DD	00H
	DD	00H
	DD	FLAT:$L69571
$T69582	DD	01H
	DD	01H
	DD	02H
	DD	01H
	DD	FLAT:$T69583
$T69574	DD	019930520H
	DD	03H
	DD	FLAT:$T69581
	DD	01H
	DD	FLAT:$T69582
	DD	2 DUP(00H)
; Function compile flags: /Odt /RTCsu
xdata$x	ENDS
;	COMDAT ??$getline@DU?$char_traits@D@std@@V?$allocator@D@2@@std@@YAAAV?$basic_istream@DU?$char_traits@D@std@@@0@AAV10@AAV?$basic_string@DU?$char_traits@D@std@@V?$allocator@D@2@@0@D@Z
_TEXT	SEGMENT
tv175 = -113						; size = 1
tv174 = -112						; size = 4
tv173 = -108						; size = 4
tv172 = -104						; size = 4
tv171 = -98						; size = 1
tv170 = -97						; size = 1
tv169 = -96						; size = 4
tv168 = -92						; size = 4
tv167 = -88						; size = 4
tv166 = -84						; size = 4
tv165 = -80						; size = 4
tv65 = -76						; size = 4
$T69569 = -72						; size = 4
$T69568 = -68						; size = 4
__Meta$68080 = -60					; size = 4
__Metadelim$68079 = -48					; size = 4
__Ok$ = -36						; size = 8
__Changed$ = -21					; size = 1
__State$ = -20						; size = 4
__$EHRec$ = -16						; size = 16
__Istr$ = 8						; size = 4
__Str$ = 12						; size = 4
__Delim$ = 16						; size = 1
??$getline@DU?$char_traits@D@std@@V?$allocator@D@2@@std@@YAAAV?$basic_istream@DU?$char_traits@D@std@@@0@AAV10@AAV?$basic_string@DU?$char_traits@D@std@@V?$allocator@D@2@@0@D@Z PROC NEAR ; std::getline<char,std::char_traits<char>,std::allocator<char> >, COMDAT

; 477  : 	{	// get characters into string, discard delimiter

  00000	55		 push	 ebp
  00001	8b ec		 mov	 ebp, esp
  00003	6a ff		 push	 -1
  00005	68 00 00 00 00	 push	 __ehhandler$??$getline@DU?$char_traits@D@std@@V?$allocator@D@2@@std@@YAAAV?$basic_istream@DU?$char_traits@D@std@@@0@AAV10@AAV?$basic_string@DU?$char_traits@D@std@@V?$allocator@D@2@@0@D@Z
  0000a	64 a1 00 00 00
	00		 mov	 eax, DWORD PTR fs:__except_list
  00010	50		 push	 eax
  00011	64 89 25 00 00
	00 00		 mov	 DWORD PTR fs:__except_list, esp
  00018	51		 push	 ecx
  00019	83 ec 64	 sub	 esp, 100		; 00000064H
  0001c	53		 push	 ebx
  0001d	56		 push	 esi
  0001e	57		 push	 edi
  0001f	8d 7d 8c	 lea	 edi, DWORD PTR [ebp-116]
  00022	b9 19 00 00 00	 mov	 ecx, 25			; 00000019H
  00027	b8 cc cc cc cc	 mov	 eax, -858993460		; ccccccccH
  0002c	f3 ab		 rep stosd
  0002e	89 65 f0	 mov	 DWORD PTR __$EHRec$[ebp], esp

; 478  : 	typedef basic_istream<_Elem, _Traits> _Myis;
; 479  : 	ios_base::iostate _State = ios_base::goodbit;

  00031	c7 45 ec 00 00
	00 00		 mov	 DWORD PTR __State$[ebp], 0

; 480  : 	bool _Changed = false;

  00038	c6 45 eb 00	 mov	 BYTE PTR __Changed$[ebp], 0

; 481  : 	const typename _Myis::sentry _Ok(_Istr, true);

  0003c	6a 01		 push	 1
  0003e	8b 45 08	 mov	 eax, DWORD PTR __Istr$[ebp]
  00041	50		 push	 eax
  00042	8d 4d dc	 lea	 ecx, DWORD PTR __Ok$[ebp]
  00045	e8 00 00 00 00	 call	 ??0sentry@?$basic_istream@DU?$char_traits@D@std@@@std@@QAE@AAV12@_N@Z ; std::basic_istream<char,std::char_traits<char> >::sentry::sentry
  0004a	c7 45 fc 00 00
	00 00		 mov	 DWORD PTR __$EHRec$[ebp+12], 0

; 482  : 
; 483  : 	if (_Ok)

  00051	8d 4d dc	 lea	 ecx, DWORD PTR __Ok$[ebp]
  00054	e8 00 00 00 00	 call	 ??Bsentry@?$basic_istream@DU?$char_traits@D@std@@@std@@QBE_NXZ ; std::basic_istream<char,std::char_traits<char> >::sentry::operator bool
  00059	0f b6 c8	 movzx	 ecx, al
  0005c	85 c9		 test	 ecx, ecx
  0005e	0f 84 f6 01 00
	00		 je	 $L69570

; 484  : 		{	// state okay, extract characters
; 485  : 		_TRY_IO_BEGIN

  00064	c6 45 fc 01	 mov	 BYTE PTR __$EHRec$[ebp+12], 1

; 486  : 		_Str.erase();

  00068	8b f4		 mov	 esi, esp
  0006a	8b 15 00 00 00
	00		 mov	 edx, DWORD PTR __imp_?npos@?$basic_string@DU?$char_traits@D@std@@V?$allocator@D@2@@std@@2IB
  00070	8b 02		 mov	 eax, DWORD PTR [edx]
  00072	50		 push	 eax
  00073	6a 00		 push	 0
  00075	8b 4d 0c	 mov	 ecx, DWORD PTR __Str$[ebp]
  00078	ff 15 00 00 00
	00		 call	 DWORD PTR __imp_?erase@?$basic_string@DU?$char_traits@D@std@@V?$allocator@D@2@@std@@QAEAAV12@II@Z
  0007e	3b f4		 cmp	 esi, esp
  00080	e8 00 00 00 00	 call	 __RTC_CheckEsp

; 487  : 		const typename _Traits::int_type _Metadelim =
; 488  : 			_Traits::to_int_type(_Delim);

  00085	8b f4		 mov	 esi, esp
  00087	8d 4d 10	 lea	 ecx, DWORD PTR __Delim$[ebp]
  0008a	51		 push	 ecx
  0008b	ff 15 00 00 00
	00		 call	 DWORD PTR __imp_?to_int_type@?$char_traits@D@std@@SAHABD@Z
  00091	83 c4 04	 add	 esp, 4
  00094	3b f4		 cmp	 esi, esp
  00096	e8 00 00 00 00	 call	 __RTC_CheckEsp
  0009b	89 45 b4	 mov	 DWORD PTR tv65[ebp], eax
  0009e	8b 55 b4	 mov	 edx, DWORD PTR tv65[ebp]
  000a1	89 55 d0	 mov	 DWORD PTR __Metadelim$68079[ebp], edx

; 489  : 		typename _Traits::int_type _Meta = _Istr.rdbuf()->sgetc();

  000a4	8b 45 08	 mov	 eax, DWORD PTR __Istr$[ebp]
  000a7	8b 08		 mov	 ecx, DWORD PTR [eax]
  000a9	8b 55 08	 mov	 edx, DWORD PTR __Istr$[ebp]
  000ac	03 51 04	 add	 edx, DWORD PTR [ecx+4]
  000af	8b f4		 mov	 esi, esp
  000b1	8b ca		 mov	 ecx, edx
  000b3	ff 15 00 00 00
	00		 call	 DWORD PTR __imp_?rdbuf@?$basic_ios@DU?$char_traits@D@std@@@std@@QBEPAV?$basic_streambuf@DU?$char_traits@D@std@@@2@XZ
  000b9	3b f4		 cmp	 esi, esp
  000bb	e8 00 00 00 00	 call	 __RTC_CheckEsp
  000c0	89 45 b0	 mov	 DWORD PTR tv165[ebp], eax
  000c3	8b f4		 mov	 esi, esp
  000c5	8b 4d b0	 mov	 ecx, DWORD PTR tv165[ebp]
  000c8	ff 15 00 00 00
	00		 call	 DWORD PTR __imp_?sgetc@?$basic_streambuf@DU?$char_traits@D@std@@@std@@QAEHXZ
  000ce	3b f4		 cmp	 esi, esp
  000d0	e8 00 00 00 00	 call	 __RTC_CheckEsp
  000d5	89 45 ac	 mov	 DWORD PTR tv166[ebp], eax
  000d8	8b 45 ac	 mov	 eax, DWORD PTR tv166[ebp]
  000db	89 45 c4	 mov	 DWORD PTR __Meta$68080[ebp], eax

; 490  : 
; 491  : 		for (; ; _Meta = _Istr.rdbuf()->snextc())

  000de	eb 38		 jmp	 SHORT $L68081
$L68082:
  000e0	8b 4d 08	 mov	 ecx, DWORD PTR __Istr$[ebp]
  000e3	8b 11		 mov	 edx, DWORD PTR [ecx]
  000e5	8b 4d 08	 mov	 ecx, DWORD PTR __Istr$[ebp]
  000e8	03 4a 04	 add	 ecx, DWORD PTR [edx+4]
  000eb	8b f4		 mov	 esi, esp
  000ed	ff 15 00 00 00
	00		 call	 DWORD PTR __imp_?rdbuf@?$basic_ios@DU?$char_traits@D@std@@@std@@QBEPAV?$basic_streambuf@DU?$char_traits@D@std@@@2@XZ
  000f3	3b f4		 cmp	 esi, esp
  000f5	e8 00 00 00 00	 call	 __RTC_CheckEsp
  000fa	89 45 a8	 mov	 DWORD PTR tv167[ebp], eax
  000fd	8b f4		 mov	 esi, esp
  000ff	8b 4d a8	 mov	 ecx, DWORD PTR tv167[ebp]
  00102	ff 15 00 00 00
	00		 call	 DWORD PTR __imp_?snextc@?$basic_streambuf@DU?$char_traits@D@std@@@std@@QAEHXZ
  00108	3b f4		 cmp	 esi, esp
  0010a	e8 00 00 00 00	 call	 __RTC_CheckEsp
  0010f	89 45 a4	 mov	 DWORD PTR tv168[ebp], eax
  00112	8b 45 a4	 mov	 eax, DWORD PTR tv168[ebp]
  00115	89 45 c4	 mov	 DWORD PTR __Meta$68080[ebp], eax
$L68081:

; 492  : 			if (_Traits::eq_int_type(_Traits::eof(), _Meta))

  00118	8b f4		 mov	 esi, esp
  0011a	ff 15 00 00 00
	00		 call	 DWORD PTR __imp_?eof@?$char_traits@D@std@@SAHXZ
  00120	3b f4		 cmp	 esi, esp
  00122	e8 00 00 00 00	 call	 __RTC_CheckEsp
  00127	89 45 a0	 mov	 DWORD PTR tv169[ebp], eax
  0012a	8b 4d a0	 mov	 ecx, DWORD PTR tv169[ebp]
  0012d	89 4d bc	 mov	 DWORD PTR $T69568[ebp], ecx
  00130	8b f4		 mov	 esi, esp
  00132	8d 55 c4	 lea	 edx, DWORD PTR __Meta$68080[ebp]
  00135	52		 push	 edx
  00136	8d 45 bc	 lea	 eax, DWORD PTR $T69568[ebp]
  00139	50		 push	 eax
  0013a	ff 15 00 00 00
	00		 call	 DWORD PTR __imp_?eq_int_type@?$char_traits@D@std@@SA_NABH0@Z
  00140	83 c4 08	 add	 esp, 8
  00143	3b f4		 cmp	 esi, esp
  00145	e8 00 00 00 00	 call	 __RTC_CheckEsp
  0014a	88 45 9f	 mov	 BYTE PTR tv170[ebp], al
  0014d	0f b6 4d 9f	 movzx	 ecx, BYTE PTR tv170[ebp]
  00151	85 c9		 test	 ecx, ecx
  00153	74 0e		 je	 SHORT $L68085

; 493  : 				{	// end of file, quit
; 494  : 				_State |= ios_base::eofbit;

  00155	8b 55 ec	 mov	 edx, DWORD PTR __State$[ebp]
  00158	83 ca 01	 or	 edx, 1
  0015b	89 55 ec	 mov	 DWORD PTR __State$[ebp], edx

; 495  : 				break;

  0015e	e9 d1 00 00 00	 jmp	 $L68083
$L68085:

; 496  : 				}
; 497  : 			else if (_Traits::eq_int_type(_Meta, _Metadelim))

  00163	8b f4		 mov	 esi, esp
  00165	8d 45 d0	 lea	 eax, DWORD PTR __Metadelim$68079[ebp]
  00168	50		 push	 eax
  00169	8d 4d c4	 lea	 ecx, DWORD PTR __Meta$68080[ebp]
  0016c	51		 push	 ecx
  0016d	ff 15 00 00 00
	00		 call	 DWORD PTR __imp_?eq_int_type@?$char_traits@D@std@@SA_NABH0@Z
  00173	83 c4 08	 add	 esp, 8
  00176	3b f4		 cmp	 esi, esp
  00178	e8 00 00 00 00	 call	 __RTC_CheckEsp
  0017d	88 45 9e	 mov	 BYTE PTR tv171[ebp], al
  00180	0f b6 55 9e	 movzx	 edx, BYTE PTR tv171[ebp]
  00184	85 d2		 test	 edx, edx
  00186	74 37		 je	 SHORT $L68087

; 498  : 				{	// got a delimiter, discard it and quit
; 499  : 				_Changed = true;

  00188	c6 45 eb 01	 mov	 BYTE PTR __Changed$[ebp], 1

; 500  : 				_Istr.rdbuf()->sbumpc();

  0018c	8b 45 08	 mov	 eax, DWORD PTR __Istr$[ebp]
  0018f	8b 08		 mov	 ecx, DWORD PTR [eax]
  00191	8b 55 08	 mov	 edx, DWORD PTR __Istr$[ebp]
  00194	03 51 04	 add	 edx, DWORD PTR [ecx+4]
  00197	8b f4		 mov	 esi, esp
  00199	8b ca		 mov	 ecx, edx
  0019b	ff 15 00 00 00
	00		 call	 DWORD PTR __imp_?rdbuf@?$basic_ios@DU?$char_traits@D@std@@@std@@QBEPAV?$basic_streambuf@DU?$char_traits@D@std@@@2@XZ
  001a1	3b f4		 cmp	 esi, esp
  001a3	e8 00 00 00 00	 call	 __RTC_CheckEsp
  001a8	89 45 98	 mov	 DWORD PTR tv172[ebp], eax
  001ab	8b f4		 mov	 esi, esp
  001ad	8b 4d 98	 mov	 ecx, DWORD PTR tv172[ebp]
  001b0	ff 15 00 00 00
	00		 call	 DWORD PTR __imp_?sbumpc@?$basic_streambuf@DU?$char_traits@D@std@@@std@@QAEHXZ
  001b6	3b f4		 cmp	 esi, esp
  001b8	e8 00 00 00 00	 call	 __RTC_CheckEsp

; 501  : 				break;

  001bd	eb 75		 jmp	 SHORT $L68083
$L68087:

; 502  : 				}
; 503  : 			else if (_Str.max_size() <= _Str.size())

  001bf	8b f4		 mov	 esi, esp
  001c1	8b 4d 0c	 mov	 ecx, DWORD PTR __Str$[ebp]
  001c4	ff 15 00 00 00
	00		 call	 DWORD PTR __imp_?max_size@?$basic_string@DU?$char_traits@D@std@@V?$allocator@D@2@@std@@QBEIXZ
  001ca	3b f4		 cmp	 esi, esp
  001cc	e8 00 00 00 00	 call	 __RTC_CheckEsp
  001d1	89 45 94	 mov	 DWORD PTR tv173[ebp], eax
  001d4	8b f4		 mov	 esi, esp
  001d6	8b 4d 0c	 mov	 ecx, DWORD PTR __Str$[ebp]
  001d9	ff 15 00 00 00
	00		 call	 DWORD PTR __imp_?size@?$basic_string@DU?$char_traits@D@std@@V?$allocator@D@2@@std@@QBEIXZ
  001df	3b f4		 cmp	 esi, esp
  001e1	e8 00 00 00 00	 call	 __RTC_CheckEsp
  001e6	89 45 90	 mov	 DWORD PTR tv174[ebp], eax
  001e9	8b 45 94	 mov	 eax, DWORD PTR tv173[ebp]
  001ec	3b 45 90	 cmp	 eax, DWORD PTR tv174[ebp]
  001ef	77 0b		 ja	 SHORT $L68089

; 504  : 				{	// string too large, quit
; 505  : 				_State |= ios_base::failbit;

  001f1	8b 4d ec	 mov	 ecx, DWORD PTR __State$[ebp]
  001f4	83 c9 02	 or	 ecx, 2
  001f7	89 4d ec	 mov	 DWORD PTR __State$[ebp], ecx

; 506  : 				break;

  001fa	eb 38		 jmp	 SHORT $L68083
$L68089:

; 507  : 				}
; 508  : 			else
; 509  : 				{	// got a character, add it to string
; 510  : 				_Str += _Traits::to_char_type(_Meta);

  001fc	8b f4		 mov	 esi, esp
  001fe	8d 55 c4	 lea	 edx, DWORD PTR __Meta$68080[ebp]
  00201	52		 push	 edx
  00202	ff 15 00 00 00
	00		 call	 DWORD PTR __imp_?to_char_type@?$char_traits@D@std@@SADABH@Z
  00208	83 c4 04	 add	 esp, 4
  0020b	3b f4		 cmp	 esi, esp
  0020d	e8 00 00 00 00	 call	 __RTC_CheckEsp
  00212	88 45 8f	 mov	 BYTE PTR tv175[ebp], al
  00215	8b f4		 mov	 esi, esp
  00217	8a 45 8f	 mov	 al, BYTE PTR tv175[ebp]
  0021a	50		 push	 eax
  0021b	8b 4d 0c	 mov	 ecx, DWORD PTR __Str$[ebp]
  0021e	ff 15 00 00 00
	00		 call	 DWORD PTR __imp_??Y?$basic_string@DU?$char_traits@D@std@@V?$allocator@D@2@@std@@QAEAAV01@D@Z
  00224	3b f4		 cmp	 esi, esp
  00226	e8 00 00 00 00	 call	 __RTC_CheckEsp

; 511  : 				_Changed = true;

  0022b	c6 45 eb 01	 mov	 BYTE PTR __Changed$[ebp], 1

; 512  : 				}

  0022f	e9 ac fe ff ff	 jmp	 $L68082
$L68083:
  00234	eb 24		 jmp	 SHORT $L69570
$L69571:

; 513  : 		_CATCH_IO_(_Istr)

  00236	8b f4		 mov	 esi, esp
  00238	6a 01		 push	 1
  0023a	6a 04		 push	 4
  0023c	8b 4d 08	 mov	 ecx, DWORD PTR __Istr$[ebp]
  0023f	8b 11		 mov	 edx, DWORD PTR [ecx]
  00241	8b 4d 08	 mov	 ecx, DWORD PTR __Istr$[ebp]
  00244	03 4a 04	 add	 ecx, DWORD PTR [edx+4]
  00247	ff 15 00 00 00
	00		 call	 DWORD PTR __imp_?setstate@?$basic_ios@DU?$char_traits@D@std@@@std@@QAEXH_N@Z
  0024d	3b f4		 cmp	 esi, esp
  0024f	e8 00 00 00 00	 call	 __RTC_CheckEsp
  00254	b8 00 00 00 00	 mov	 eax, $L69570
  00259	c3		 ret	 0
$L69570:
  0025a	c7 45 fc 00 00
	00 00		 mov	 DWORD PTR __$EHRec$[ebp+12], 0

; 514  : 		}
; 515  : 
; 516  : 	if (!_Changed)

  00261	0f b6 45 eb	 movzx	 eax, BYTE PTR __Changed$[ebp]
  00265	85 c0		 test	 eax, eax
  00267	75 09		 jne	 SHORT $L68091

; 517  : 		_State |= ios_base::failbit;

  00269	8b 4d ec	 mov	 ecx, DWORD PTR __State$[ebp]
  0026c	83 c9 02	 or	 ecx, 2
  0026f	89 4d ec	 mov	 DWORD PTR __State$[ebp], ecx
$L68091:

; 518  : 	_Istr.setstate(_State);

  00272	8b f4		 mov	 esi, esp
  00274	6a 00		 push	 0
  00276	8b 55 ec	 mov	 edx, DWORD PTR __State$[ebp]
  00279	52		 push	 edx
  0027a	8b 45 08	 mov	 eax, DWORD PTR __Istr$[ebp]
  0027d	8b 08		 mov	 ecx, DWORD PTR [eax]
  0027f	8b 55 08	 mov	 edx, DWORD PTR __Istr$[ebp]
  00282	03 51 04	 add	 edx, DWORD PTR [ecx+4]
  00285	8b ca		 mov	 ecx, edx
  00287	ff 15 00 00 00
	00		 call	 DWORD PTR __imp_?setstate@?$basic_ios@DU?$char_traits@D@std@@@std@@QAEXH_N@Z
  0028d	3b f4		 cmp	 esi, esp
  0028f	e8 00 00 00 00	 call	 __RTC_CheckEsp

; 519  : 	return (_Istr);

  00294	8b 45 08	 mov	 eax, DWORD PTR __Istr$[ebp]
  00297	89 45 b8	 mov	 DWORD PTR $T69569[ebp], eax
  0029a	c7 45 fc ff ff
	ff ff		 mov	 DWORD PTR __$EHRec$[ebp+12], -1
  002a1	8d 4d dc	 lea	 ecx, DWORD PTR __Ok$[ebp]
  002a4	e8 00 00 00 00	 call	 ??1sentry@?$basic_istream@DU?$char_traits@D@std@@@std@@QAE@XZ
  002a9	8b 45 b8	 mov	 eax, DWORD PTR $T69569[ebp]

; 520  : 	}

  002ac	52		 push	 edx
  002ad	8b cd		 mov	 ecx, ebp
  002af	50		 push	 eax
  002b0	8d 15 00 00 00
	00		 lea	 edx, DWORD PTR $L69580
  002b6	e8 00 00 00 00	 call	 @_RTC_CheckStackVars@8
  002bb	58		 pop	 eax
  002bc	5a		 pop	 edx
  002bd	8b 4d f4	 mov	 ecx, DWORD PTR __$EHRec$[ebp+4]
  002c0	64 89 0d 00 00
	00 00		 mov	 DWORD PTR fs:__except_list, ecx
  002c7	5f		 pop	 edi
  002c8	5e		 pop	 esi
  002c9	5b		 pop	 ebx
  002ca	83 c4 74	 add	 esp, 116		; 00000074H
  002cd	3b ec		 cmp	 ebp, esp
  002cf	e8 00 00 00 00	 call	 __RTC_CheckEsp
  002d4	8b e5		 mov	 esp, ebp
  002d6	5d		 pop	 ebp
  002d7	c3		 ret	 0
$L69580:
  002d8	03 00 00 00	 DD	 3
  002dc	00 00 00 00	 DD	 $L69579
$L69579:
  002e0	dc ff ff ff	 DD	 -36			; ffffffdcH
  002e4	08 00 00 00	 DD	 8
  002e8	00 00 00 00	 DD	 $L69575
  002ec	d0 ff ff ff	 DD	 -48			; ffffffd0H
  002f0	04 00 00 00	 DD	 4
  002f4	00 00 00 00	 DD	 $L69576
  002f8	c4 ff ff ff	 DD	 -60			; ffffffc4H
  002fc	04 00 00 00	 DD	 4
  00300	00 00 00 00	 DD	 $L69577
$L69577:
  00304	5f		 DB	 95			; 0000005fH
  00305	4d		 DB	 77			; 0000004dH
  00306	65		 DB	 101			; 00000065H
  00307	74		 DB	 116			; 00000074H
  00308	61		 DB	 97			; 00000061H
  00309	00		 DB	 0
$L69576:
  0030a	5f		 DB	 95			; 0000005fH
  0030b	4d		 DB	 77			; 0000004dH
  0030c	65		 DB	 101			; 00000065H
  0030d	74		 DB	 116			; 00000074H
  0030e	61		 DB	 97			; 00000061H
  0030f	64		 DB	 100			; 00000064H
  00310	65		 DB	 101			; 00000065H
  00311	6c		 DB	 108			; 0000006cH
  00312	69		 DB	 105			; 00000069H
  00313	6d		 DB	 109			; 0000006dH
  00314	00		 DB	 0
$L69575:
  00315	5f		 DB	 95			; 0000005fH
  00316	4f		 DB	 79			; 0000004fH
  00317	6b		 DB	 107			; 0000006bH
  00318	00		 DB	 0
_TEXT	ENDS
;	COMDAT text$x
text$x	SEGMENT
$L69572:
  00000	8d 4d dc	 lea	 ecx, DWORD PTR __Ok$[ebp]
  00003	e9 00 00 00 00	 jmp	 ??1sentry@?$basic_istream@DU?$char_traits@D@std@@@std@@QAE@XZ
__ehhandler$??$getline@DU?$char_traits@D@std@@V?$allocator@D@2@@std@@YAAAV?$basic_istream@DU?$char_traits@D@std@@@0@AAV10@AAV?$basic_string@DU?$char_traits@D@std@@V?$allocator@D@2@@0@D@Z:
  00008	b8 00 00 00 00	 mov	 eax, OFFSET FLAT:$T69574
  0000d	e9 00 00 00 00	 jmp	 ___CxxFrameHandler
text$x	ENDS
??$getline@DU?$char_traits@D@std@@V?$allocator@D@2@@std@@YAAAV?$basic_istream@DU?$char_traits@D@std@@@0@AAV10@AAV?$basic_string@DU?$char_traits@D@std@@V?$allocator@D@2@@0@D@Z ENDP ; std::getline<char,std::char_traits<char>,std::allocator<char> >
PUBLIC	??$?6DU?$char_traits@D@std@@V?$allocator@D@1@@std@@YAAAV?$basic_ostream@DU?$char_traits@D@std@@@0@AAV10@ABV?$basic_string@DU?$char_traits@D@std@@V?$allocator@D@2@@0@@Z ; std::operator<<<char,std::char_traits<char>,std::allocator<char> >
PUBLIC	??0sentry@?$basic_ostream@DU?$char_traits@D@std@@@std@@QAE@AAV12@@Z ; std::basic_ostream<char,std::char_traits<char> >::sentry::sentry
PUBLIC	??1sentry@?$basic_ostream@DU?$char_traits@D@std@@@std@@QAE@XZ ; std::basic_ostream<char,std::char_traits<char> >::sentry::~sentry
PUBLIC	??Bsentry@?$basic_ostream@DU?$char_traits@D@std@@@std@@QBE_NXZ ; std::basic_ostream<char,std::char_traits<char> >::sentry::operator bool
EXTRN	__imp_??A?$basic_string@DU?$char_traits@D@std@@V?$allocator@D@2@@std@@QBEABDI@Z:NEAR
EXTRN	__imp_?fill@?$basic_ios@DU?$char_traits@D@std@@@std@@QBEDXZ:NEAR
EXTRN	__imp_?flags@ios_base@std@@QBEHXZ:NEAR
EXTRN	__imp_?sputc@?$basic_streambuf@DU?$char_traits@D@std@@@std@@QAEHD@Z:NEAR
;	COMDAT xdata$x
xdata$x	SEGMENT
$T69605	DD	0ffffffffH
	DD	FLAT:$L69598
	DD	00H
	DD	00H
	DD	00H
	DD	00H
$T69607	DD	00H
	DD	00H
	DD	00H
	DD	FLAT:$L69597
$T69606	DD	01H
	DD	01H
	DD	02H
	DD	01H
	DD	FLAT:$T69607
$T69600	DD	019930520H
	DD	03H
	DD	FLAT:$T69605
	DD	01H
	DD	FLAT:$T69606
	DD	2 DUP(00H)
; Function compile flags: /Odt /RTCsu
xdata$x	ENDS
;	COMDAT ??$?6DU?$char_traits@D@std@@V?$allocator@D@1@@std@@YAAAV?$basic_ostream@DU?$char_traits@D@std@@@0@AAV10@ABV?$basic_string@DU?$char_traits@D@std@@V?$allocator@D@2@@0@@Z
_TEXT	SEGMENT
tv221 = -137						; size = 1
tv220 = -136						; size = 4
tv219 = -132						; size = 4
tv218 = -128						; size = 4
tv217 = -122						; size = 1
tv216 = -121						; size = 1
tv215 = -120						; size = 4
tv214 = -116						; size = 4
tv213 = -112						; size = 4
tv212 = -108						; size = 4
tv211 = -101						; size = 1
tv210 = -100						; size = 4
tv209 = -96						; size = 4
tv208 = -92						; size = 4
tv207 = -85						; size = 1
tv83 = -84						; size = 4
tv81 = -80						; size = 4
$T69595 = -76						; size = 4
$T69594 = -72						; size = 4
$T69593 = -68						; size = 4
$T69592 = -64						; size = 4
$T69591 = -60						; size = 4
$T69590 = -56						; size = 4
$T69589 = -52						; size = 4
__Count$68114 = -48					; size = 4
__Ok$ = -40						; size = 8
__Pad$ = -28						; size = 4
__Size$ = -24						; size = 4
__State$ = -20						; size = 4
__$EHRec$ = -16						; size = 16
__Ostr$ = 8						; size = 4
__Str$ = 12						; size = 4
??$?6DU?$char_traits@D@std@@V?$allocator@D@1@@std@@YAAAV?$basic_ostream@DU?$char_traits@D@std@@@0@AAV10@ABV?$basic_string@DU?$char_traits@D@std@@V?$allocator@D@2@@0@@Z PROC NEAR ; std::operator<<<char,std::char_traits<char>,std::allocator<char> >, COMDAT

; 538  : 	{	// insert a string

  00000	55		 push	 ebp
  00001	8b ec		 mov	 ebp, esp
  00003	6a ff		 push	 -1
  00005	68 00 00 00 00	 push	 __ehhandler$??$?6DU?$char_traits@D@std@@V?$allocator@D@1@@std@@YAAAV?$basic_ostream@DU?$char_traits@D@std@@@0@AAV10@ABV?$basic_string@DU?$char_traits@D@std@@V?$allocator@D@2@@0@@Z
  0000a	64 a1 00 00 00
	00		 mov	 eax, DWORD PTR fs:__except_list
  00010	50		 push	 eax
  00011	64 89 25 00 00
	00 00		 mov	 DWORD PTR fs:__except_list, esp
  00018	51		 push	 ecx
  00019	83 ec 7c	 sub	 esp, 124		; 0000007cH
  0001c	53		 push	 ebx
  0001d	56		 push	 esi
  0001e	57		 push	 edi
  0001f	8d bd 74 ff ff
	ff		 lea	 edi, DWORD PTR [ebp-140]
  00025	b9 1f 00 00 00	 mov	 ecx, 31			; 0000001fH
  0002a	b8 cc cc cc cc	 mov	 eax, -858993460		; ccccccccH
  0002f	f3 ab		 rep stosd
  00031	89 65 f0	 mov	 DWORD PTR __$EHRec$[ebp], esp

; 539  : 	typedef basic_ostream<_Elem, _Traits> _Myos;
; 540  : 	typedef basic_string<_Elem, _Traits, _Alloc> _Mystr;
; 541  : 	typedef typename _Mystr::size_type _Mysizt;
; 542  : 
; 543  : 	ios_base::iostate _State = ios_base::goodbit;

  00034	c7 45 ec 00 00
	00 00		 mov	 DWORD PTR __State$[ebp], 0

; 544  : 	_Mysizt _Size = _Str.size();

  0003b	8b f4		 mov	 esi, esp
  0003d	8b 4d 0c	 mov	 ecx, DWORD PTR __Str$[ebp]
  00040	ff 15 00 00 00
	00		 call	 DWORD PTR __imp_?size@?$basic_string@DU?$char_traits@D@std@@V?$allocator@D@2@@std@@QBEIXZ
  00046	3b f4		 cmp	 esi, esp
  00048	e8 00 00 00 00	 call	 __RTC_CheckEsp
  0004d	89 45 e8	 mov	 DWORD PTR __Size$[ebp], eax

; 545  : 	_Mysizt _Pad = _Ostr.width() <= 0 || (_Mysizt)_Ostr.width() <= _Size
; 546  : 			? 0 : (_Mysizt)_Ostr.width() - _Size;

  00050	8b 45 08	 mov	 eax, DWORD PTR __Ostr$[ebp]
  00053	8b 08		 mov	 ecx, DWORD PTR [eax]
  00055	8b 55 08	 mov	 edx, DWORD PTR __Ostr$[ebp]
  00058	03 51 04	 add	 edx, DWORD PTR [ecx+4]
  0005b	8b f4		 mov	 esi, esp
  0005d	8b ca		 mov	 ecx, edx
  0005f	ff 15 00 00 00
	00		 call	 DWORD PTR __imp_?width@ios_base@std@@QBEHXZ
  00065	3b f4		 cmp	 esi, esp
  00067	e8 00 00 00 00	 call	 __RTC_CheckEsp
  0006c	85 c0		 test	 eax, eax
  0006e	7e 45		 jle	 SHORT $L69587
  00070	8b 45 08	 mov	 eax, DWORD PTR __Ostr$[ebp]
  00073	8b 08		 mov	 ecx, DWORD PTR [eax]
  00075	8b 55 08	 mov	 edx, DWORD PTR __Ostr$[ebp]
  00078	03 51 04	 add	 edx, DWORD PTR [ecx+4]
  0007b	8b f4		 mov	 esi, esp
  0007d	8b ca		 mov	 ecx, edx
  0007f	ff 15 00 00 00
	00		 call	 DWORD PTR __imp_?width@ios_base@std@@QBEHXZ
  00085	3b f4		 cmp	 esi, esp
  00087	e8 00 00 00 00	 call	 __RTC_CheckEsp
  0008c	3b 45 e8	 cmp	 eax, DWORD PTR __Size$[ebp]
  0008f	76 24		 jbe	 SHORT $L69587
  00091	8b 45 08	 mov	 eax, DWORD PTR __Ostr$[ebp]
  00094	8b 08		 mov	 ecx, DWORD PTR [eax]
  00096	8b 55 08	 mov	 edx, DWORD PTR __Ostr$[ebp]
  00099	03 51 04	 add	 edx, DWORD PTR [ecx+4]
  0009c	8b f4		 mov	 esi, esp
  0009e	8b ca		 mov	 ecx, edx
  000a0	ff 15 00 00 00
	00		 call	 DWORD PTR __imp_?width@ios_base@std@@QBEHXZ
  000a6	3b f4		 cmp	 esi, esp
  000a8	e8 00 00 00 00	 call	 __RTC_CheckEsp
  000ad	2b 45 e8	 sub	 eax, DWORD PTR __Size$[ebp]
  000b0	89 45 b0	 mov	 DWORD PTR tv81[ebp], eax
  000b3	eb 07		 jmp	 SHORT $L69588
$L69587:
  000b5	c7 45 b0 00 00
	00 00		 mov	 DWORD PTR tv81[ebp], 0
$L69588:
  000bc	8b 45 b0	 mov	 eax, DWORD PTR tv81[ebp]
  000bf	89 45 e4	 mov	 DWORD PTR __Pad$[ebp], eax

; 547  : 	const typename _Myos::sentry _Ok(_Ostr);

  000c2	8b 4d 08	 mov	 ecx, DWORD PTR __Ostr$[ebp]
  000c5	51		 push	 ecx
  000c6	8d 4d d8	 lea	 ecx, DWORD PTR __Ok$[ebp]
  000c9	e8 00 00 00 00	 call	 ??0sentry@?$basic_ostream@DU?$char_traits@D@std@@@std@@QAE@AAV12@@Z ; std::basic_ostream<char,std::char_traits<char> >::sentry::sentry
  000ce	c7 45 fc 00 00
	00 00		 mov	 DWORD PTR __$EHRec$[ebp+12], 0

; 548  : 
; 549  : 	if (!_Ok)

  000d5	8d 4d d8	 lea	 ecx, DWORD PTR __Ok$[ebp]
  000d8	e8 00 00 00 00	 call	 ??Bsentry@?$basic_ostream@DU?$char_traits@D@std@@@std@@QBE_NXZ ; std::basic_ostream<char,std::char_traits<char> >::sentry::operator bool
  000dd	0f b6 d0	 movzx	 edx, al
  000e0	85 d2		 test	 edx, edx
  000e2	75 0e		 jne	 SHORT $L68103

; 550  : 		_State |= ios_base::badbit;

  000e4	8b 45 ec	 mov	 eax, DWORD PTR __State$[ebp]
  000e7	83 c8 04	 or	 eax, 4
  000ea	89 45 ec	 mov	 DWORD PTR __State$[ebp], eax

; 551  : 	else

  000ed	e9 d8 02 00 00	 jmp	 $L69596
$L68103:

; 552  : 		{	// state okay, insert characters
; 553  : 	_TRY_IO_BEGIN

  000f2	c6 45 fc 01	 mov	 BYTE PTR __$EHRec$[ebp+12], 1

; 554  : 		if ((_Ostr.flags() & ios_base::adjustfield) != ios_base::left)

  000f6	8b 4d 08	 mov	 ecx, DWORD PTR __Ostr$[ebp]
  000f9	8b 11		 mov	 edx, DWORD PTR [ecx]
  000fb	8b 4d 08	 mov	 ecx, DWORD PTR __Ostr$[ebp]
  000fe	03 4a 04	 add	 ecx, DWORD PTR [edx+4]
  00101	8b f4		 mov	 esi, esp
  00103	ff 15 00 00 00
	00		 call	 DWORD PTR __imp_?flags@ios_base@std@@QBEHXZ
  00109	3b f4		 cmp	 esi, esp
  0010b	e8 00 00 00 00	 call	 __RTC_CheckEsp
  00110	89 45 ac	 mov	 DWORD PTR tv83[ebp], eax
  00113	8b 45 ac	 mov	 eax, DWORD PTR tv83[ebp]
  00116	25 c0 01 00 00	 and	 eax, 448		; 000001c0H
  0011b	83 f8 40	 cmp	 eax, 64			; 00000040H
  0011e	0f 84 bb 00 00
	00		 je	 $L68106

; 555  : 			for (; 0 < _Pad; --_Pad)	// pad on left

  00124	eb 09		 jmp	 SHORT $L68107
$L68108:
  00126	8b 4d e4	 mov	 ecx, DWORD PTR __Pad$[ebp]
  00129	83 e9 01	 sub	 ecx, 1
  0012c	89 4d e4	 mov	 DWORD PTR __Pad$[ebp], ecx
$L68107:
  0012f	83 7d e4 00	 cmp	 DWORD PTR __Pad$[ebp], 0
  00133	0f 86 a6 00 00
	00		 jbe	 $L68106

; 556  : 				if (_Traits::eq_int_type(_Traits::eof(),
; 557  : 					_Ostr.rdbuf()->sputc(_Ostr.fill())))

  00139	8b 55 08	 mov	 edx, DWORD PTR __Ostr$[ebp]
  0013c	8b 02		 mov	 eax, DWORD PTR [edx]
  0013e	8b 4d 08	 mov	 ecx, DWORD PTR __Ostr$[ebp]
  00141	03 48 04	 add	 ecx, DWORD PTR [eax+4]
  00144	8b f4		 mov	 esi, esp
  00146	ff 15 00 00 00
	00		 call	 DWORD PTR __imp_?fill@?$basic_ios@DU?$char_traits@D@std@@@std@@QBEDXZ
  0014c	3b f4		 cmp	 esi, esp
  0014e	e8 00 00 00 00	 call	 __RTC_CheckEsp
  00153	88 45 ab	 mov	 BYTE PTR tv207[ebp], al
  00156	8b 4d 08	 mov	 ecx, DWORD PTR __Ostr$[ebp]
  00159	8b 11		 mov	 edx, DWORD PTR [ecx]
  0015b	8b 4d 08	 mov	 ecx, DWORD PTR __Ostr$[ebp]
  0015e	03 4a 04	 add	 ecx, DWORD PTR [edx+4]
  00161	8b f4		 mov	 esi, esp
  00163	ff 15 00 00 00
	00		 call	 DWORD PTR __imp_?rdbuf@?$basic_ios@DU?$char_traits@D@std@@@std@@QBEPAV?$basic_streambuf@DU?$char_traits@D@std@@@2@XZ
  00169	3b f4		 cmp	 esi, esp
  0016b	e8 00 00 00 00	 call	 __RTC_CheckEsp
  00170	89 45 a4	 mov	 DWORD PTR tv208[ebp], eax
  00173	8b f4		 mov	 esi, esp
  00175	8a 45 ab	 mov	 al, BYTE PTR tv207[ebp]
  00178	50		 push	 eax
  00179	8b 4d a4	 mov	 ecx, DWORD PTR tv208[ebp]
  0017c	ff 15 00 00 00
	00		 call	 DWORD PTR __imp_?sputc@?$basic_streambuf@DU?$char_traits@D@std@@@std@@QAEHD@Z
  00182	3b f4		 cmp	 esi, esp
  00184	e8 00 00 00 00	 call	 __RTC_CheckEsp
  00189	89 45 a0	 mov	 DWORD PTR tv209[ebp], eax
  0018c	8b 4d a0	 mov	 ecx, DWORD PTR tv209[ebp]
  0018f	89 4d cc	 mov	 DWORD PTR $T69589[ebp], ecx
  00192	8b f4		 mov	 esi, esp
  00194	ff 15 00 00 00
	00		 call	 DWORD PTR __imp_?eof@?$char_traits@D@std@@SAHXZ
  0019a	3b f4		 cmp	 esi, esp
  0019c	e8 00 00 00 00	 call	 __RTC_CheckEsp
  001a1	89 45 9c	 mov	 DWORD PTR tv210[ebp], eax
  001a4	8b 55 9c	 mov	 edx, DWORD PTR tv210[ebp]
  001a7	89 55 c8	 mov	 DWORD PTR $T69590[ebp], edx
  001aa	8b f4		 mov	 esi, esp
  001ac	8d 45 cc	 lea	 eax, DWORD PTR $T69589[ebp]
  001af	50		 push	 eax
  001b0	8d 4d c8	 lea	 ecx, DWORD PTR $T69590[ebp]
  001b3	51		 push	 ecx
  001b4	ff 15 00 00 00
	00		 call	 DWORD PTR __imp_?eq_int_type@?$char_traits@D@std@@SA_NABH0@Z
  001ba	83 c4 08	 add	 esp, 8
  001bd	3b f4		 cmp	 esi, esp
  001bf	e8 00 00 00 00	 call	 __RTC_CheckEsp
  001c4	88 45 9b	 mov	 BYTE PTR tv211[ebp], al
  001c7	0f b6 55 9b	 movzx	 edx, BYTE PTR tv211[ebp]
  001cb	85 d2		 test	 edx, edx
  001cd	74 0b		 je	 SHORT $L68112

; 558  : 					{	// insertion failed, quit
; 559  : 					_State |= ios_base::badbit;

  001cf	8b 45 ec	 mov	 eax, DWORD PTR __State$[ebp]
  001d2	83 c8 04	 or	 eax, 4
  001d5	89 45 ec	 mov	 DWORD PTR __State$[ebp], eax

; 560  : 					break;

  001d8	eb 05		 jmp	 SHORT $L68106
$L68112:

; 561  : 					}
; 562  : 
; 563  : 		if (_State == ios_base::goodbit)

  001da	e9 47 ff ff ff	 jmp	 $L68108
$L68106:
  001df	83 7d ec 00	 cmp	 DWORD PTR __State$[ebp], 0
  001e3	0f 85 c2 00 00
	00		 jne	 $L68113

; 564  : 			for (_Mysizt _Count = 0; _Count < _Size; ++_Count)

  001e9	c7 45 d0 00 00
	00 00		 mov	 DWORD PTR __Count$68114[ebp], 0
  001f0	eb 09		 jmp	 SHORT $L68115
$L68116:
  001f2	8b 4d d0	 mov	 ecx, DWORD PTR __Count$68114[ebp]
  001f5	83 c1 01	 add	 ecx, 1
  001f8	89 4d d0	 mov	 DWORD PTR __Count$68114[ebp], ecx
$L68115:
  001fb	8b 55 d0	 mov	 edx, DWORD PTR __Count$68114[ebp]
  001fe	3b 55 e8	 cmp	 edx, DWORD PTR __Size$[ebp]
  00201	0f 83 a4 00 00
	00		 jae	 $L68113

; 565  : 				if (_Traits::eq_int_type(_Traits::eof(),
; 566  : 					_Ostr.rdbuf()->sputc(_Str[_Count])))

  00207	8b f4		 mov	 esi, esp
  00209	8b 45 d0	 mov	 eax, DWORD PTR __Count$68114[ebp]
  0020c	50		 push	 eax
  0020d	8b 4d 0c	 mov	 ecx, DWORD PTR __Str$[ebp]
  00210	ff 15 00 00 00
	00		 call	 DWORD PTR __imp_??A?$basic_string@DU?$char_traits@D@std@@V?$allocator@D@2@@std@@QBEABDI@Z
  00216	3b f4		 cmp	 esi, esp
  00218	e8 00 00 00 00	 call	 __RTC_CheckEsp
  0021d	89 45 94	 mov	 DWORD PTR tv212[ebp], eax
  00220	8b 4d 08	 mov	 ecx, DWORD PTR __Ostr$[ebp]
  00223	8b 11		 mov	 edx, DWORD PTR [ecx]
  00225	8b 4d 08	 mov	 ecx, DWORD PTR __Ostr$[ebp]
  00228	03 4a 04	 add	 ecx, DWORD PTR [edx+4]
  0022b	8b f4		 mov	 esi, esp
  0022d	ff 15 00 00 00
	00		 call	 DWORD PTR __imp_?rdbuf@?$basic_ios@DU?$char_traits@D@std@@@std@@QBEPAV?$basic_streambuf@DU?$char_traits@D@std@@@2@XZ
  00233	3b f4		 cmp	 esi, esp
  00235	e8 00 00 00 00	 call	 __RTC_CheckEsp
  0023a	89 45 90	 mov	 DWORD PTR tv213[ebp], eax
  0023d	8b f4		 mov	 esi, esp
  0023f	8b 45 94	 mov	 eax, DWORD PTR tv212[ebp]
  00242	8a 08		 mov	 cl, BYTE PTR [eax]
  00244	51		 push	 ecx
  00245	8b 4d 90	 mov	 ecx, DWORD PTR tv213[ebp]
  00248	ff 15 00 00 00
	00		 call	 DWORD PTR __imp_?sputc@?$basic_streambuf@DU?$char_traits@D@std@@@std@@QAEHD@Z
  0024e	3b f4		 cmp	 esi, esp
  00250	e8 00 00 00 00	 call	 __RTC_CheckEsp
  00255	89 45 8c	 mov	 DWORD PTR tv214[ebp], eax
  00258	8b 55 8c	 mov	 edx, DWORD PTR tv214[ebp]
  0025b	89 55 c4	 mov	 DWORD PTR $T69591[ebp], edx
  0025e	8b f4		 mov	 esi, esp
  00260	ff 15 00 00 00
	00		 call	 DWORD PTR __imp_?eof@?$char_traits@D@std@@SAHXZ
  00266	3b f4		 cmp	 esi, esp
  00268	e8 00 00 00 00	 call	 __RTC_CheckEsp
  0026d	89 45 88	 mov	 DWORD PTR tv215[ebp], eax
  00270	8b 45 88	 mov	 eax, DWORD PTR tv215[ebp]
  00273	89 45 c0	 mov	 DWORD PTR $T69592[ebp], eax
  00276	8b f4		 mov	 esi, esp
  00278	8d 4d c4	 lea	 ecx, DWORD PTR $T69591[ebp]
  0027b	51		 push	 ecx
  0027c	8d 55 c0	 lea	 edx, DWORD PTR $T69592[ebp]
  0027f	52		 push	 edx
  00280	ff 15 00 00 00
	00		 call	 DWORD PTR __imp_?eq_int_type@?$char_traits@D@std@@SA_NABH0@Z
  00286	83 c4 08	 add	 esp, 8
  00289	3b f4		 cmp	 esi, esp
  0028b	e8 00 00 00 00	 call	 __RTC_CheckEsp
  00290	88 45 87	 mov	 BYTE PTR tv216[ebp], al
  00293	0f b6 45 87	 movzx	 eax, BYTE PTR tv216[ebp]
  00297	85 c0		 test	 eax, eax
  00299	74 0b		 je	 SHORT $L68120

; 567  : 					{	// insertion failed, quit
; 568  : 					_State |= ios_base::badbit;

  0029b	8b 4d ec	 mov	 ecx, DWORD PTR __State$[ebp]
  0029e	83 c9 04	 or	 ecx, 4
  002a1	89 4d ec	 mov	 DWORD PTR __State$[ebp], ecx

; 569  : 					break;

  002a4	eb 05		 jmp	 SHORT $L68113
$L68120:

; 570  : 					}
; 571  : 
; 572  : 		if (_State == ios_base::goodbit)

  002a6	e9 47 ff ff ff	 jmp	 $L68116
$L68113:
  002ab	83 7d ec 00	 cmp	 DWORD PTR __State$[ebp], 0
  002af	0f 85 d1 00 00
	00		 jne	 $L68121

; 573  : 			for (; 0 < _Pad; --_Pad)	// pad on right

  002b5	eb 09		 jmp	 SHORT $L68122
$L68123:
  002b7	8b 55 e4	 mov	 edx, DWORD PTR __Pad$[ebp]
  002ba	83 ea 01	 sub	 edx, 1
  002bd	89 55 e4	 mov	 DWORD PTR __Pad$[ebp], edx
$L68122:
  002c0	83 7d e4 00	 cmp	 DWORD PTR __Pad$[ebp], 0
  002c4	0f 86 bc 00 00
	00		 jbe	 $L68121

; 574  : 				if (_Traits::eq_int_type(_Traits::eof(),
; 575  : 					_Ostr.rdbuf()->sputc(_Ostr.fill())))

  002ca	8b 45 08	 mov	 eax, DWORD PTR __Ostr$[ebp]
  002cd	8b 08		 mov	 ecx, DWORD PTR [eax]
  002cf	8b 55 08	 mov	 edx, DWORD PTR __Ostr$[ebp]
  002d2	03 51 04	 add	 edx, DWORD PTR [ecx+4]
  002d5	8b f4		 mov	 esi, esp
  002d7	8b ca		 mov	 ecx, edx
  002d9	ff 15 00 00 00
	00		 call	 DWORD PTR __imp_?fill@?$basic_ios@DU?$char_traits@D@std@@@std@@QBEDXZ
  002df	3b f4		 cmp	 esi, esp
  002e1	e8 00 00 00 00	 call	 __RTC_CheckEsp
  002e6	88 45 86	 mov	 BYTE PTR tv217[ebp], al
  002e9	8b 45 08	 mov	 eax, DWORD PTR __Ostr$[ebp]
  002ec	8b 08		 mov	 ecx, DWORD PTR [eax]
  002ee	8b 55 08	 mov	 edx, DWORD PTR __Ostr$[ebp]
  002f1	03 51 04	 add	 edx, DWORD PTR [ecx+4]
  002f4	8b f4		 mov	 esi, esp
  002f6	8b ca		 mov	 ecx, edx
  002f8	ff 15 00 00 00
	00		 call	 DWORD PTR __imp_?rdbuf@?$basic_ios@DU?$char_traits@D@std@@@std@@QBEPAV?$basic_streambuf@DU?$char_traits@D@std@@@2@XZ
  002fe	3b f4		 cmp	 esi, esp
  00300	e8 00 00 00 00	 call	 __RTC_CheckEsp
  00305	89 45 80	 mov	 DWORD PTR tv218[ebp], eax
  00308	8b f4		 mov	 esi, esp
  0030a	8a 45 86	 mov	 al, BYTE PTR tv217[ebp]
  0030d	50		 push	 eax
  0030e	8b 4d 80	 mov	 ecx, DWORD PTR tv218[ebp]
  00311	ff 15 00 00 00
	00		 call	 DWORD PTR __imp_?sputc@?$basic_streambuf@DU?$char_traits@D@std@@@std@@QAEHD@Z
  00317	3b f4		 cmp	 esi, esp
  00319	e8 00 00 00 00	 call	 __RTC_CheckEsp
  0031e	89 85 7c ff ff
	ff		 mov	 DWORD PTR tv219[ebp], eax
  00324	8b 8d 7c ff ff
	ff		 mov	 ecx, DWORD PTR tv219[ebp]
  0032a	89 4d bc	 mov	 DWORD PTR $T69593[ebp], ecx
  0032d	8b f4		 mov	 esi, esp
  0032f	ff 15 00 00 00
	00		 call	 DWORD PTR __imp_?eof@?$char_traits@D@std@@SAHXZ
  00335	3b f4		 cmp	 esi, esp
  00337	e8 00 00 00 00	 call	 __RTC_CheckEsp
  0033c	89 85 78 ff ff
	ff		 mov	 DWORD PTR tv220[ebp], eax
  00342	8b 95 78 ff ff
	ff		 mov	 edx, DWORD PTR tv220[ebp]
  00348	89 55 b8	 mov	 DWORD PTR $T69594[ebp], edx
  0034b	8b f4		 mov	 esi, esp
  0034d	8d 45 bc	 lea	 eax, DWORD PTR $T69593[ebp]
  00350	50		 push	 eax
  00351	8d 4d b8	 lea	 ecx, DWORD PTR $T69594[ebp]
  00354	51		 push	 ecx
  00355	ff 15 00 00 00
	00		 call	 DWORD PTR __imp_?eq_int_type@?$char_traits@D@std@@SA_NABH0@Z
  0035b	83 c4 08	 add	 esp, 8
  0035e	3b f4		 cmp	 esi, esp
  00360	e8 00 00 00 00	 call	 __RTC_CheckEsp
  00365	88 85 77 ff ff
	ff		 mov	 BYTE PTR tv221[ebp], al
  0036b	0f b6 95 77 ff
	ff ff		 movzx	 edx, BYTE PTR tv221[ebp]
  00372	85 d2		 test	 edx, edx
  00374	74 0b		 je	 SHORT $L68127

; 576  : 					{	// insertion failed, quit
; 577  : 					_State |= ios_base::badbit;

  00376	8b 45 ec	 mov	 eax, DWORD PTR __State$[ebp]
  00379	83 c8 04	 or	 eax, 4
  0037c	89 45 ec	 mov	 DWORD PTR __State$[ebp], eax

; 578  : 					break;

  0037f	eb 05		 jmp	 SHORT $L68121
$L68127:

; 579  : 					}
; 580  : 		_Ostr.width(0);

  00381	e9 31 ff ff ff	 jmp	 $L68123
$L68121:
  00386	8b f4		 mov	 esi, esp
  00388	6a 00		 push	 0
  0038a	8b 4d 08	 mov	 ecx, DWORD PTR __Ostr$[ebp]
  0038d	8b 11		 mov	 edx, DWORD PTR [ecx]
  0038f	8b 4d 08	 mov	 ecx, DWORD PTR __Ostr$[ebp]
  00392	03 4a 04	 add	 ecx, DWORD PTR [edx+4]
  00395	ff 15 00 00 00
	00		 call	 DWORD PTR __imp_?width@ios_base@std@@QAEHH@Z
  0039b	3b f4		 cmp	 esi, esp
  0039d	e8 00 00 00 00	 call	 __RTC_CheckEsp
  003a2	eb 26		 jmp	 SHORT $L69596
$L69597:

; 581  : 		_CATCH_IO_(_Ostr)

  003a4	8b f4		 mov	 esi, esp
  003a6	6a 01		 push	 1
  003a8	6a 04		 push	 4
  003aa	8b 45 08	 mov	 eax, DWORD PTR __Ostr$[ebp]
  003ad	8b 08		 mov	 ecx, DWORD PTR [eax]
  003af	8b 55 08	 mov	 edx, DWORD PTR __Ostr$[ebp]
  003b2	03 51 04	 add	 edx, DWORD PTR [ecx+4]
  003b5	8b ca		 mov	 ecx, edx
  003b7	ff 15 00 00 00
	00		 call	 DWORD PTR __imp_?setstate@?$basic_ios@DU?$char_traits@D@std@@@std@@QAEXH_N@Z
  003bd	3b f4		 cmp	 esi, esp
  003bf	e8 00 00 00 00	 call	 __RTC_CheckEsp
  003c4	b8 00 00 00 00	 mov	 eax, $L69596
  003c9	c3		 ret	 0
$L69596:
  003ca	c7 45 fc 00 00
	00 00		 mov	 DWORD PTR __$EHRec$[ebp+12], 0

; 582  : 		}
; 583  : 
; 584  : 	_Ostr.setstate(_State);

  003d1	8b f4		 mov	 esi, esp
  003d3	6a 00		 push	 0
  003d5	8b 45 ec	 mov	 eax, DWORD PTR __State$[ebp]
  003d8	50		 push	 eax
  003d9	8b 4d 08	 mov	 ecx, DWORD PTR __Ostr$[ebp]
  003dc	8b 11		 mov	 edx, DWORD PTR [ecx]
  003de	8b 4d 08	 mov	 ecx, DWORD PTR __Ostr$[ebp]
  003e1	03 4a 04	 add	 ecx, DWORD PTR [edx+4]
  003e4	ff 15 00 00 00
	00		 call	 DWORD PTR __imp_?setstate@?$basic_ios@DU?$char_traits@D@std@@@std@@QAEXH_N@Z
  003ea	3b f4		 cmp	 esi, esp
  003ec	e8 00 00 00 00	 call	 __RTC_CheckEsp

; 585  : 	return (_Ostr);

  003f1	8b 45 08	 mov	 eax, DWORD PTR __Ostr$[ebp]
  003f4	89 45 b4	 mov	 DWORD PTR $T69595[ebp], eax
  003f7	c7 45 fc ff ff
	ff ff		 mov	 DWORD PTR __$EHRec$[ebp+12], -1
  003fe	8d 4d d8	 lea	 ecx, DWORD PTR __Ok$[ebp]
  00401	e8 00 00 00 00	 call	 ??1sentry@?$basic_ostream@DU?$char_traits@D@std@@@std@@QAE@XZ ; std::basic_ostream<char,std::char_traits<char> >::sentry::~sentry
  00406	8b 45 b4	 mov	 eax, DWORD PTR $T69595[ebp]

; 586  : 	}

  00409	52		 push	 edx
  0040a	8b cd		 mov	 ecx, ebp
  0040c	50		 push	 eax
  0040d	8d 15 00 00 00
	00		 lea	 edx, DWORD PTR $L69604
  00413	e8 00 00 00 00	 call	 @_RTC_CheckStackVars@8
  00418	58		 pop	 eax
  00419	5a		 pop	 edx
  0041a	8b 4d f4	 mov	 ecx, DWORD PTR __$EHRec$[ebp+4]
  0041d	64 89 0d 00 00
	00 00		 mov	 DWORD PTR fs:__except_list, ecx
  00424	5f		 pop	 edi
  00425	5e		 pop	 esi
  00426	5b		 pop	 ebx
  00427	81 c4 8c 00 00
	00		 add	 esp, 140		; 0000008cH
  0042d	3b ec		 cmp	 ebp, esp
  0042f	e8 00 00 00 00	 call	 __RTC_CheckEsp
  00434	8b e5		 mov	 esp, ebp
  00436	5d		 pop	 ebp
  00437	c3		 ret	 0
$L69604:
  00438	01 00 00 00	 DD	 1
  0043c	00 00 00 00	 DD	 $L69603
$L69603:
  00440	d8 ff ff ff	 DD	 -40			; ffffffd8H
  00444	08 00 00 00	 DD	 8
  00448	00 00 00 00	 DD	 $L69601
$L69601:
  0044c	5f		 DB	 95			; 0000005fH
  0044d	4f		 DB	 79			; 0000004fH
  0044e	6b		 DB	 107			; 0000006bH
  0044f	00		 DB	 0
_TEXT	ENDS
;	COMDAT text$x
text$x	SEGMENT
$L69598:
  00000	8d 4d d8	 lea	 ecx, DWORD PTR __Ok$[ebp]
  00003	e9 00 00 00 00	 jmp	 ??1sentry@?$basic_ostream@DU?$char_traits@D@std@@@std@@QAE@XZ ; std::basic_ostream<char,std::char_traits<char> >::sentry::~sentry
__ehhandler$??$?6DU?$char_traits@D@std@@V?$allocator@D@1@@std@@YAAAV?$basic_ostream@DU?$char_traits@D@std@@@0@AAV10@ABV?$basic_string@DU?$char_traits@D@std@@V?$allocator@D@2@@0@@Z:
  00008	b8 00 00 00 00	 mov	 eax, OFFSET FLAT:$T69600
  0000d	e9 00 00 00 00	 jmp	 ___CxxFrameHandler
text$x	ENDS
??$?6DU?$char_traits@D@std@@V?$allocator@D@1@@std@@YAAAV?$basic_ostream@DU?$char_traits@D@std@@@0@AAV10@ABV?$basic_string@DU?$char_traits@D@std@@V?$allocator@D@2@@0@@Z ENDP ; std::operator<<<char,std::char_traits<char>,std::allocator<char> >
PUBLIC	??0_Sentry_base@?$basic_ostream@DU?$char_traits@D@std@@@std@@QAE@AAV12@@Z ; std::basic_ostream<char,std::char_traits<char> >::_Sentry_base::_Sentry_base
PUBLIC	??1_Sentry_base@?$basic_ostream@DU?$char_traits@D@std@@@std@@QAE@XZ ; std::basic_ostream<char,std::char_traits<char> >::_Sentry_base::~_Sentry_base
EXTRN	__imp_?tie@?$basic_ios@DU?$char_traits@D@std@@@std@@QBEPAV?$basic_ostream@DU?$char_traits@D@std@@@2@XZ:NEAR
EXTRN	__imp_?good@ios_base@std@@QBE_NXZ:NEAR
EXTRN	__imp_?flush@?$basic_ostream@DU?$char_traits@D@std@@@std@@QAEAAV12@XZ:NEAR
;	COMDAT xdata$x
; File d:\program files (x86)\microsoft visual studio .net 2003\vc7\include\ostream
xdata$x	SEGMENT
$T69615	DD	0ffffffffH
	DD	FLAT:$L69611
$T69613	DD	019930520H
	DD	01H
	DD	FLAT:$T69615
	DD	2 DUP(00H)
	DD	2 DUP(00H)
; Function compile flags: /Odt /RTCsu
xdata$x	ENDS
;	COMDAT ??0sentry@?$basic_ostream@DU?$char_traits@D@std@@@std@@QAE@AAV12@@Z
_TEXT	SEGMENT
_this$ = -16						; size = 4
__$EHRec$ = -12						; size = 12
__Ostr$ = 8						; size = 4
??0sentry@?$basic_ostream@DU?$char_traits@D@std@@@std@@QAE@AAV12@@Z PROC NEAR ; std::basic_ostream<char,std::char_traits<char> >::sentry::sentry, COMDAT
; _this$ = ecx

; 88   : 			{	// construct locking and testing stream

  00000	55		 push	 ebp
  00001	8b ec		 mov	 ebp, esp
  00003	6a ff		 push	 -1
  00005	68 00 00 00 00	 push	 __ehhandler$??0sentry@?$basic_ostream@DU?$char_traits@D@std@@@std@@QAE@AAV12@@Z
  0000a	64 a1 00 00 00
	00		 mov	 eax, DWORD PTR fs:__except_list
  00010	50		 push	 eax
  00011	64 89 25 00 00
	00 00		 mov	 DWORD PTR fs:__except_list, esp
  00018	51		 push	 ecx
  00019	56		 push	 esi
  0001a	c7 45 f0 cc cc
	cc cc		 mov	 DWORD PTR [ebp-16], -858993460 ; ccccccccH
  00021	89 4d f0	 mov	 DWORD PTR _this$[ebp], ecx
  00024	8b 45 08	 mov	 eax, DWORD PTR __Ostr$[ebp]
  00027	50		 push	 eax
  00028	8b 4d f0	 mov	 ecx, DWORD PTR _this$[ebp]
  0002b	e8 00 00 00 00	 call	 ??0_Sentry_base@?$basic_ostream@DU?$char_traits@D@std@@@std@@QAE@AAV12@@Z ; std::basic_ostream<char,std::char_traits<char> >::_Sentry_base::_Sentry_base
  00030	c7 45 fc 00 00
	00 00		 mov	 DWORD PTR __$EHRec$[ebp+8], 0

; 89   : 			if (_Ostr.good() && _Ostr.tie() != 0)

  00037	8b 4d 08	 mov	 ecx, DWORD PTR __Ostr$[ebp]
  0003a	8b 11		 mov	 edx, DWORD PTR [ecx]
  0003c	8b 4d 08	 mov	 ecx, DWORD PTR __Ostr$[ebp]
  0003f	03 4a 04	 add	 ecx, DWORD PTR [edx+4]
  00042	8b f4		 mov	 esi, esp
  00044	ff 15 00 00 00
	00		 call	 DWORD PTR __imp_?good@ios_base@std@@QBE_NXZ
  0004a	3b f4		 cmp	 esi, esp
  0004c	e8 00 00 00 00	 call	 __RTC_CheckEsp
  00051	0f b6 c0	 movzx	 eax, al
  00054	85 c0		 test	 eax, eax
  00056	74 4b		 je	 SHORT $L67423
  00058	8b 4d 08	 mov	 ecx, DWORD PTR __Ostr$[ebp]
  0005b	8b 11		 mov	 edx, DWORD PTR [ecx]
  0005d	8b 4d 08	 mov	 ecx, DWORD PTR __Ostr$[ebp]
  00060	03 4a 04	 add	 ecx, DWORD PTR [edx+4]
  00063	8b f4		 mov	 esi, esp
  00065	ff 15 00 00 00
	00		 call	 DWORD PTR __imp_?tie@?$basic_ios@DU?$char_traits@D@std@@@std@@QBEPAV?$basic_ostream@DU?$char_traits@D@std@@@2@XZ
  0006b	3b f4		 cmp	 esi, esp
  0006d	e8 00 00 00 00	 call	 __RTC_CheckEsp
  00072	85 c0		 test	 eax, eax
  00074	74 2d		 je	 SHORT $L67423

; 90   : 				_Ostr.tie()->flush();

  00076	8b 45 08	 mov	 eax, DWORD PTR __Ostr$[ebp]
  00079	8b 08		 mov	 ecx, DWORD PTR [eax]
  0007b	8b 55 08	 mov	 edx, DWORD PTR __Ostr$[ebp]
  0007e	03 51 04	 add	 edx, DWORD PTR [ecx+4]
  00081	8b f4		 mov	 esi, esp
  00083	8b ca		 mov	 ecx, edx
  00085	ff 15 00 00 00
	00		 call	 DWORD PTR __imp_?tie@?$basic_ios@DU?$char_traits@D@std@@@std@@QBEPAV?$basic_ostream@DU?$char_traits@D@std@@@2@XZ
  0008b	3b f4		 cmp	 esi, esp
  0008d	e8 00 00 00 00	 call	 __RTC_CheckEsp
  00092	8b f4		 mov	 esi, esp
  00094	8b c8		 mov	 ecx, eax
  00096	ff 15 00 00 00
	00		 call	 DWORD PTR __imp_?flush@?$basic_ostream@DU?$char_traits@D@std@@@std@@QAEAAV12@XZ
  0009c	3b f4		 cmp	 esi, esp
  0009e	e8 00 00 00 00	 call	 __RTC_CheckEsp
$L67423:

; 91   : 			_Ok = _Ostr.good();	// store test only after flushing tie

  000a3	8b 45 08	 mov	 eax, DWORD PTR __Ostr$[ebp]
  000a6	8b 08		 mov	 ecx, DWORD PTR [eax]
  000a8	8b 55 08	 mov	 edx, DWORD PTR __Ostr$[ebp]
  000ab	03 51 04	 add	 edx, DWORD PTR [ecx+4]
  000ae	8b f4		 mov	 esi, esp
  000b0	8b ca		 mov	 ecx, edx
  000b2	ff 15 00 00 00
	00		 call	 DWORD PTR __imp_?good@ios_base@std@@QBE_NXZ
  000b8	3b f4		 cmp	 esi, esp
  000ba	e8 00 00 00 00	 call	 __RTC_CheckEsp
  000bf	8b 4d f0	 mov	 ecx, DWORD PTR _this$[ebp]
  000c2	88 41 04	 mov	 BYTE PTR [ecx+4], al

; 92   : 			}

  000c5	c7 45 fc ff ff
	ff ff		 mov	 DWORD PTR __$EHRec$[ebp+8], -1
  000cc	8b 45 f0	 mov	 eax, DWORD PTR _this$[ebp]
  000cf	8b 4d f4	 mov	 ecx, DWORD PTR __$EHRec$[ebp]
  000d2	64 89 0d 00 00
	00 00		 mov	 DWORD PTR fs:__except_list, ecx
  000d9	5e		 pop	 esi
  000da	83 c4 10	 add	 esp, 16			; 00000010H
  000dd	3b ec		 cmp	 ebp, esp
  000df	e8 00 00 00 00	 call	 __RTC_CheckEsp
  000e4	8b e5		 mov	 esp, ebp
  000e6	5d		 pop	 ebp
  000e7	c2 04 00	 ret	 4
_TEXT	ENDS
;	COMDAT text$x
text$x	SEGMENT
$L69611:
  00000	8b 4d f0	 mov	 ecx, DWORD PTR _this$[ebp]
  00003	e9 00 00 00 00	 jmp	 ??1_Sentry_base@?$basic_ostream@DU?$char_traits@D@std@@@std@@QAE@XZ ; std::basic_ostream<char,std::char_traits<char> >::_Sentry_base::~_Sentry_base
__ehhandler$??0sentry@?$basic_ostream@DU?$char_traits@D@std@@@std@@QAE@AAV12@@Z:
  00008	b8 00 00 00 00	 mov	 eax, OFFSET FLAT:$T69613
  0000d	e9 00 00 00 00	 jmp	 ___CxxFrameHandler
text$x	ENDS
??0sentry@?$basic_ostream@DU?$char_traits@D@std@@@std@@QAE@AAV12@@Z ENDP ; std::basic_ostream<char,std::char_traits<char> >::sentry::sentry
EXTRN	__imp_?_Osfx@?$basic_ostream@DU?$char_traits@D@std@@@std@@QAEXXZ:NEAR
EXTRN	__imp_?uncaught_exception@std@@YA_NXZ:NEAR
;	COMDAT xdata$x
xdata$x	SEGMENT
$T69623	DD	0ffffffffH
	DD	FLAT:$L69619
$T69621	DD	019930520H
	DD	01H
	DD	FLAT:$T69623
	DD	2 DUP(00H)
	DD	2 DUP(00H)
; Function compile flags: /Odt /RTCsu
xdata$x	ENDS
;	COMDAT ??1sentry@?$basic_ostream@DU?$char_traits@D@std@@@std@@QAE@XZ
_TEXT	SEGMENT
_this$ = -16						; size = 4
__$EHRec$ = -12						; size = 12
??1sentry@?$basic_ostream@DU?$char_traits@D@std@@@std@@QAE@XZ PROC NEAR ; std::basic_ostream<char,std::char_traits<char> >::sentry::~sentry, COMDAT
; _this$ = ecx

; 95   : 			{	// destroy the object

  00000	55		 push	 ebp
  00001	8b ec		 mov	 ebp, esp
  00003	6a ff		 push	 -1
  00005	68 00 00 00 00	 push	 __ehhandler$??1sentry@?$basic_ostream@DU?$char_traits@D@std@@@std@@QAE@XZ
  0000a	64 a1 00 00 00
	00		 mov	 eax, DWORD PTR fs:__except_list
  00010	50		 push	 eax
  00011	64 89 25 00 00
	00 00		 mov	 DWORD PTR fs:__except_list, esp
  00018	51		 push	 ecx
  00019	56		 push	 esi
  0001a	c7 45 f0 cc cc
	cc cc		 mov	 DWORD PTR [ebp-16], -858993460 ; ccccccccH
  00021	89 4d f0	 mov	 DWORD PTR _this$[ebp], ecx
  00024	c7 45 fc 00 00
	00 00		 mov	 DWORD PTR __$EHRec$[ebp+8], 0

; 96   : 
; 97   :  #if _HAS_EXCEPTIONS
; 98   : 			if (!uncaught_exception())

  0002b	8b f4		 mov	 esi, esp
  0002d	ff 15 00 00 00
	00		 call	 DWORD PTR __imp_?uncaught_exception@std@@YA_NXZ
  00033	3b f4		 cmp	 esi, esp
  00035	e8 00 00 00 00	 call	 __RTC_CheckEsp
  0003a	0f b6 c0	 movzx	 eax, al
  0003d	85 c0		 test	 eax, eax
  0003f	75 14		 jne	 SHORT $L67425

; 99   : 				this->_Myostr._Osfx();

  00041	8b 4d f0	 mov	 ecx, DWORD PTR _this$[ebp]
  00044	8b 09		 mov	 ecx, DWORD PTR [ecx]
  00046	8b f4		 mov	 esi, esp
  00048	ff 15 00 00 00
	00		 call	 DWORD PTR __imp_?_Osfx@?$basic_ostream@DU?$char_traits@D@std@@@std@@QAEXXZ
  0004e	3b f4		 cmp	 esi, esp
  00050	e8 00 00 00 00	 call	 __RTC_CheckEsp
$L67425:

; 100  : 			}

  00055	c7 45 fc ff ff
	ff ff		 mov	 DWORD PTR __$EHRec$[ebp+8], -1
  0005c	8b 4d f0	 mov	 ecx, DWORD PTR _this$[ebp]
  0005f	e8 00 00 00 00	 call	 ??1_Sentry_base@?$basic_ostream@DU?$char_traits@D@std@@@std@@QAE@XZ ; std::basic_ostream<char,std::char_traits<char> >::_Sentry_base::~_Sentry_base
  00064	8b 4d f4	 mov	 ecx, DWORD PTR __$EHRec$[ebp]
  00067	64 89 0d 00 00
	00 00		 mov	 DWORD PTR fs:__except_list, ecx
  0006e	5e		 pop	 esi
  0006f	83 c4 10	 add	 esp, 16			; 00000010H
  00072	3b ec		 cmp	 ebp, esp
  00074	e8 00 00 00 00	 call	 __RTC_CheckEsp
  00079	8b e5		 mov	 esp, ebp
  0007b	5d		 pop	 ebp
  0007c	c3		 ret	 0
_TEXT	ENDS
;	COMDAT text$x
text$x	SEGMENT
$L69619:
  00000	8b 4d f0	 mov	 ecx, DWORD PTR _this$[ebp]
  00003	e9 00 00 00 00	 jmp	 ??1_Sentry_base@?$basic_ostream@DU?$char_traits@D@std@@@std@@QAE@XZ ; std::basic_ostream<char,std::char_traits<char> >::_Sentry_base::~_Sentry_base
__ehhandler$??1sentry@?$basic_ostream@DU?$char_traits@D@std@@@std@@QAE@XZ:
  00008	b8 00 00 00 00	 mov	 eax, OFFSET FLAT:$T69621
  0000d	e9 00 00 00 00	 jmp	 ___CxxFrameHandler
text$x	ENDS
??1sentry@?$basic_ostream@DU?$char_traits@D@std@@@std@@QAE@XZ ENDP ; std::basic_ostream<char,std::char_traits<char> >::sentry::~sentry
; Function compile flags: /Odt /RTCsu
;	COMDAT ??Bsentry@?$basic_ostream@DU?$char_traits@D@std@@@std@@QBE_NXZ
_TEXT	SEGMENT
_this$ = -4						; size = 4
??Bsentry@?$basic_ostream@DU?$char_traits@D@std@@@std@@QBE_NXZ PROC NEAR ; std::basic_ostream<char,std::char_traits<char> >::sentry::operator bool, COMDAT
; _this$ = ecx

; 108  : 			{	// test if stream state okay

  00000	55		 push	 ebp
  00001	8b ec		 mov	 ebp, esp
  00003	51		 push	 ecx
  00004	c7 45 fc cc cc
	cc cc		 mov	 DWORD PTR [ebp-4], -858993460 ; ccccccccH
  0000b	89 4d fc	 mov	 DWORD PTR _this$[ebp], ecx

; 109  : 			return (_Ok);

  0000e	8b 45 fc	 mov	 eax, DWORD PTR _this$[ebp]
  00011	8a 40 04	 mov	 al, BYTE PTR [eax+4]

; 110  : 			}

  00014	8b e5		 mov	 esp, ebp
  00016	5d		 pop	 ebp
  00017	c3		 ret	 0
??Bsentry@?$basic_ostream@DU?$char_traits@D@std@@@std@@QBE_NXZ ENDP ; std::basic_ostream<char,std::char_traits<char> >::sentry::operator bool
; Function compile flags: /Odt /RTCsu
_TEXT	ENDS
;	COMDAT ??0_Sentry_base@?$basic_ostream@DU?$char_traits@D@std@@@std@@QAE@AAV12@@Z
_TEXT	SEGMENT
_this$ = -4						; size = 4
__Ostr$ = 8						; size = 4
??0_Sentry_base@?$basic_ostream@DU?$char_traits@D@std@@@std@@QAE@AAV12@@Z PROC NEAR ; std::basic_ostream<char,std::char_traits<char> >::_Sentry_base::_Sentry_base, COMDAT
; _this$ = ecx

; 68   : 			{	// lock the stream buffer, if there

  00000	55		 push	 ebp
  00001	8b ec		 mov	 ebp, esp
  00003	51		 push	 ecx
  00004	56		 push	 esi
  00005	c7 45 fc cc cc
	cc cc		 mov	 DWORD PTR [ebp-4], -858993460 ; ccccccccH
  0000c	89 4d fc	 mov	 DWORD PTR _this$[ebp], ecx
  0000f	8b 45 fc	 mov	 eax, DWORD PTR _this$[ebp]
  00012	8b 4d 08	 mov	 ecx, DWORD PTR __Ostr$[ebp]
  00015	89 08		 mov	 DWORD PTR [eax], ecx

; 69   : 			if (_Myostr.rdbuf() != 0)

  00017	8b 55 fc	 mov	 edx, DWORD PTR _this$[ebp]
  0001a	8b 02		 mov	 eax, DWORD PTR [edx]
  0001c	8b 08		 mov	 ecx, DWORD PTR [eax]
  0001e	8b 55 fc	 mov	 edx, DWORD PTR _this$[ebp]
  00021	8b 02		 mov	 eax, DWORD PTR [edx]
  00023	03 41 04	 add	 eax, DWORD PTR [ecx+4]
  00026	8b f4		 mov	 esi, esp
  00028	8b c8		 mov	 ecx, eax
  0002a	ff 15 00 00 00
	00		 call	 DWORD PTR __imp_?rdbuf@?$basic_ios@DU?$char_traits@D@std@@@std@@QBEPAV?$basic_streambuf@DU?$char_traits@D@std@@@2@XZ
  00030	3b f4		 cmp	 esi, esp
  00032	e8 00 00 00 00	 call	 __RTC_CheckEsp
  00037	85 c0		 test	 eax, eax
  00039	74 2f		 je	 SHORT $L67688

; 70   : 				_Myostr.rdbuf()->_Lock();

  0003b	8b 4d fc	 mov	 ecx, DWORD PTR _this$[ebp]
  0003e	8b 11		 mov	 edx, DWORD PTR [ecx]
  00040	8b 02		 mov	 eax, DWORD PTR [edx]
  00042	8b 4d fc	 mov	 ecx, DWORD PTR _this$[ebp]
  00045	8b 09		 mov	 ecx, DWORD PTR [ecx]
  00047	03 48 04	 add	 ecx, DWORD PTR [eax+4]
  0004a	8b f4		 mov	 esi, esp
  0004c	ff 15 00 00 00
	00		 call	 DWORD PTR __imp_?rdbuf@?$basic_ios@DU?$char_traits@D@std@@@std@@QBEPAV?$basic_streambuf@DU?$char_traits@D@std@@@2@XZ
  00052	3b f4		 cmp	 esi, esp
  00054	e8 00 00 00 00	 call	 __RTC_CheckEsp
  00059	8b f4		 mov	 esi, esp
  0005b	8b c8		 mov	 ecx, eax
  0005d	ff 15 00 00 00
	00		 call	 DWORD PTR __imp_?_Lock@?$basic_streambuf@DU?$char_traits@D@std@@@std@@QAEXXZ
  00063	3b f4		 cmp	 esi, esp
  00065	e8 00 00 00 00	 call	 __RTC_CheckEsp
$L67688:

; 71   : 			}

  0006a	8b 45 fc	 mov	 eax, DWORD PTR _this$[ebp]
  0006d	5e		 pop	 esi
  0006e	83 c4 04	 add	 esp, 4
  00071	3b ec		 cmp	 ebp, esp
  00073	e8 00 00 00 00	 call	 __RTC_CheckEsp
  00078	8b e5		 mov	 esp, ebp
  0007a	5d		 pop	 ebp
  0007b	c2 04 00	 ret	 4
??0_Sentry_base@?$basic_ostream@DU?$char_traits@D@std@@@std@@QAE@AAV12@@Z ENDP ; std::basic_ostream<char,std::char_traits<char> >::_Sentry_base::_Sentry_base
; Function compile flags: /Odt /RTCsu
_TEXT	ENDS
;	COMDAT ??1_Sentry_base@?$basic_ostream@DU?$char_traits@D@std@@@std@@QAE@XZ
_TEXT	SEGMENT
_this$ = -4						; size = 4
??1_Sentry_base@?$basic_ostream@DU?$char_traits@D@std@@@std@@QAE@XZ PROC NEAR ; std::basic_ostream<char,std::char_traits<char> >::_Sentry_base::~_Sentry_base, COMDAT
; _this$ = ecx

; 74   : 			{	// destroy after unlocking

  00000	55		 push	 ebp
  00001	8b ec		 mov	 ebp, esp
  00003	51		 push	 ecx
  00004	56		 push	 esi
  00005	c7 45 fc cc cc
	cc cc		 mov	 DWORD PTR [ebp-4], -858993460 ; ccccccccH
  0000c	89 4d fc	 mov	 DWORD PTR _this$[ebp], ecx

; 75   : 			if (_Myostr.rdbuf() != 0)

  0000f	8b 45 fc	 mov	 eax, DWORD PTR _this$[ebp]
  00012	8b 08		 mov	 ecx, DWORD PTR [eax]
  00014	8b 11		 mov	 edx, DWORD PTR [ecx]
  00016	8b 45 fc	 mov	 eax, DWORD PTR _this$[ebp]
  00019	8b 08		 mov	 ecx, DWORD PTR [eax]
  0001b	03 4a 04	 add	 ecx, DWORD PTR [edx+4]
  0001e	8b f4		 mov	 esi, esp
  00020	ff 15 00 00 00
	00		 call	 DWORD PTR __imp_?rdbuf@?$basic_ios@DU?$char_traits@D@std@@@std@@QBEPAV?$basic_streambuf@DU?$char_traits@D@std@@@2@XZ
  00026	3b f4		 cmp	 esi, esp
  00028	e8 00 00 00 00	 call	 __RTC_CheckEsp
  0002d	85 c0		 test	 eax, eax
  0002f	74 2f		 je	 SHORT $L67691

; 76   : 				_Myostr.rdbuf()->_Unlock();

  00031	8b 4d fc	 mov	 ecx, DWORD PTR _this$[ebp]
  00034	8b 11		 mov	 edx, DWORD PTR [ecx]
  00036	8b 02		 mov	 eax, DWORD PTR [edx]
  00038	8b 4d fc	 mov	 ecx, DWORD PTR _this$[ebp]
  0003b	8b 09		 mov	 ecx, DWORD PTR [ecx]
  0003d	03 48 04	 add	 ecx, DWORD PTR [eax+4]
  00040	8b f4		 mov	 esi, esp
  00042	ff 15 00 00 00
	00		 call	 DWORD PTR __imp_?rdbuf@?$basic_ios@DU?$char_traits@D@std@@@std@@QBEPAV?$basic_streambuf@DU?$char_traits@D@std@@@2@XZ
  00048	3b f4		 cmp	 esi, esp
  0004a	e8 00 00 00 00	 call	 __RTC_CheckEsp
  0004f	8b f4		 mov	 esi, esp
  00051	8b c8		 mov	 ecx, eax
  00053	ff 15 00 00 00
	00		 call	 DWORD PTR __imp_?_Unlock@?$basic_streambuf@DU?$char_traits@D@std@@@std@@QAEXXZ
  00059	3b f4		 cmp	 esi, esp
  0005b	e8 00 00 00 00	 call	 __RTC_CheckEsp
$L67691:

; 77   : 			}

  00060	5e		 pop	 esi
  00061	83 c4 04	 add	 esp, 4
  00064	3b ec		 cmp	 ebp, esp
  00066	e8 00 00 00 00	 call	 __RTC_CheckEsp
  0006b	8b e5		 mov	 esp, ebp
  0006d	5d		 pop	 ebp
  0006e	c3		 ret	 0
??1_Sentry_base@?$basic_ostream@DU?$char_traits@D@std@@@std@@QAE@XZ ENDP ; std::basic_ostream<char,std::char_traits<char> >::_Sentry_base::~_Sentry_base
_TEXT	ENDS
PUBLIC	??0sentry@?$basic_istream@_WU?$char_traits@_W@std@@@std@@QAE@AAV12@_N@Z ; std::basic_istream<wchar_t,std::char_traits<wchar_t> >::sentry::sentry
PUBLIC	??Bsentry@?$basic_istream@_WU?$char_traits@_W@std@@@std@@QBE_NXZ ; std::basic_istream<wchar_t,std::char_traits<wchar_t> >::sentry::operator bool
PUBLIC	??1sentry@?$basic_istream@_WU?$char_traits@_W@std@@@std@@QAE@XZ ; std::basic_istream<wchar_t,std::char_traits<wchar_t> >::sentry::~sentry
PUBLIC	??$use_facet@V?$ctype@_W@std@@@std@@YAABV?$ctype@_W@0@ABVlocale@0@@Z ; std::use_facet<std::ctype<wchar_t> >
PUBLIC	??$?5_WU?$char_traits@_W@std@@V?$allocator@_W@1@@std@@YAAAV?$basic_istream@_WU?$char_traits@_W@std@@@0@AAV10@AAV?$basic_string@_WU?$char_traits@_W@std@@V?$allocator@_W@2@@0@@Z ; std::operator>><wchar_t,std::char_traits<wchar_t>,std::allocator<wchar_t> >
EXTRN	__imp_?to_char_type@?$char_traits@_W@std@@SA_WABG@Z:NEAR
EXTRN	__imp_?eq_int_type@?$char_traits@_W@std@@SA_NABG0@Z:NEAR
EXTRN	__imp_?eof@?$char_traits@_W@std@@SAGXZ:NEAR
EXTRN	__imp_?setstate@?$basic_ios@_WU?$char_traits@_W@std@@@std@@QAEXH_N@Z:NEAR
EXTRN	__imp_?rdbuf@?$basic_ios@_WU?$char_traits@_W@std@@@std@@QBEPAV?$basic_streambuf@_WU?$char_traits@_W@std@@@2@XZ:NEAR
EXTRN	__imp_?npos@?$basic_string@_WU?$char_traits@_W@std@@V?$allocator@_W@2@@std@@2IB:DWORD
EXTRN	__imp_?append@?$basic_string@_WU?$char_traits@_W@std@@V?$allocator@_W@2@@std@@QAEAAV12@I_W@Z:NEAR
EXTRN	__imp_?erase@?$basic_string@_WU?$char_traits@_W@std@@V?$allocator@_W@2@@std@@QAEAAV12@II@Z:NEAR
EXTRN	__imp_?max_size@?$basic_string@_WU?$char_traits@_W@std@@V?$allocator@_W@2@@std@@QBEIXZ:NEAR
EXTRN	__imp_?is@?$ctype@_W@std@@QBE_NF_W@Z:NEAR
EXTRN	__imp_?sgetc@?$basic_streambuf@_WU?$char_traits@_W@std@@@std@@QAEGXZ:NEAR
EXTRN	__imp_?snextc@?$basic_streambuf@_WU?$char_traits@_W@std@@@std@@QAEGXZ:NEAR
;	COMDAT xdata$x
; File d:\program files (x86)\microsoft visual studio .net 2003\vc7\include\string
xdata$x	SEGMENT
$T69646	DD	0ffffffffH
	DD	FLAT:$L69637
	DD	00H
	DD	FLAT:$L69638
	DD	00H
	DD	00H
	DD	00H
	DD	00H
$T69648	DD	00H
	DD	00H
	DD	00H
	DD	FLAT:$L69636
$T69647	DD	02H
	DD	02H
	DD	03H
	DD	01H
	DD	FLAT:$T69648
$T69640	DD	019930520H
	DD	04H
	DD	FLAT:$T69646
	DD	01H
	DD	FLAT:$T69647
	DD	2 DUP(00H)
; Function compile flags: /Odt /RTCsu
xdata$x	ENDS
;	COMDAT ??$?5_WU?$char_traits@_W@std@@V?$allocator@_W@1@@std@@YAAAV?$basic_istream@_WU?$char_traits@_W@std@@@0@AAV10@AAV?$basic_string@_WU?$char_traits@_W@std@@V?$allocator@_W@2@@0@@Z
_TEXT	SEGMENT
tv207 = -128						; size = 2
tv206 = -125						; size = 1
tv205 = -124						; size = 2
tv204 = -121						; size = 1
tv203 = -120						; size = 2
tv202 = -118						; size = 2
tv201 = -116						; size = 4
tv200 = -110						; size = 2
tv199 = -108						; size = 4
tv198 = -104						; size = 4
tv135 = -100						; size = 4
tv197 = -96						; size = 4
tv196 = -92						; size = 4
tv195 = -88						; size = 4
tv194 = -84						; size = 4
tv189 = -80						; size = 4
tv65 = -76						; size = 4
$T69634 = -72						; size = 4
$T69633 = -66						; size = 2
$T69630 = -64						; size = 4
__Meta$68144 = -56					; size = 2
__Size$68141 = -48					; size = 4
__Ctype_fac$68138 = -44					; size = 4
__Ok$ = -36						; size = 8
__Changed$ = -21					; size = 1
__State$ = -20						; size = 4
__$EHRec$ = -16						; size = 16
__Istr$ = 8						; size = 4
__Str$ = 12						; size = 4
??$?5_WU?$char_traits@_W@std@@V?$allocator@_W@1@@std@@YAAAV?$basic_istream@_WU?$char_traits@_W@std@@@0@AAV10@AAV?$basic_string@_WU?$char_traits@_W@std@@V?$allocator@_W@2@@0@@Z PROC NEAR ; std::operator>><wchar_t,std::char_traits<wchar_t>,std::allocator<wchar_t> >, COMDAT

; 425  : 	{	// extract a string

  00000	55		 push	 ebp
  00001	8b ec		 mov	 ebp, esp
  00003	6a ff		 push	 -1
  00005	68 00 00 00 00	 push	 __ehhandler$??$?5_WU?$char_traits@_W@std@@V?$allocator@_W@1@@std@@YAAAV?$basic_istream@_WU?$char_traits@_W@std@@@0@AAV10@AAV?$basic_string@_WU?$char_traits@_W@std@@V?$allocator@_W@2@@0@@Z
  0000a	64 a1 00 00 00
	00		 mov	 eax, DWORD PTR fs:__except_list
  00010	50		 push	 eax
  00011	64 89 25 00 00
	00 00		 mov	 DWORD PTR fs:__except_list, esp
  00018	51		 push	 ecx
  00019	83 ec 70	 sub	 esp, 112		; 00000070H
  0001c	53		 push	 ebx
  0001d	56		 push	 esi
  0001e	57		 push	 edi
  0001f	8d 7d 80	 lea	 edi, DWORD PTR [ebp-128]
  00022	b9 1c 00 00 00	 mov	 ecx, 28			; 0000001cH
  00027	b8 cc cc cc cc	 mov	 eax, -858993460		; ccccccccH
  0002c	f3 ab		 rep stosd
  0002e	89 65 f0	 mov	 DWORD PTR __$EHRec$[ebp], esp

; 426  : 	typedef ctype<_Elem> _Ctype;
; 427  : 	typedef basic_istream<_Elem, _Traits> _Myis;
; 428  : 	typedef basic_string<_Elem, _Traits, _Alloc> _Mystr;
; 429  : 	typedef typename _Mystr::size_type _Mysizt;
; 430  : 
; 431  : 	ios_base::iostate _State = ios_base::goodbit;

  00031	c7 45 ec 00 00
	00 00		 mov	 DWORD PTR __State$[ebp], 0

; 432  : 	bool _Changed = false;

  00038	c6 45 eb 00	 mov	 BYTE PTR __Changed$[ebp], 0

; 433  : 	const typename _Myis::sentry _Ok(_Istr);

  0003c	6a 00		 push	 0
  0003e	8b 45 08	 mov	 eax, DWORD PTR __Istr$[ebp]
  00041	50		 push	 eax
  00042	8d 4d dc	 lea	 ecx, DWORD PTR __Ok$[ebp]
  00045	e8 00 00 00 00	 call	 ??0sentry@?$basic_istream@_WU?$char_traits@_W@std@@@std@@QAE@AAV12@_N@Z ; std::basic_istream<wchar_t,std::char_traits<wchar_t> >::sentry::sentry
  0004a	c7 45 fc 00 00
	00 00		 mov	 DWORD PTR __$EHRec$[ebp+12], 0

; 434  : 
; 435  : 	if (_Ok)

  00051	8d 4d dc	 lea	 ecx, DWORD PTR __Ok$[ebp]
  00054	e8 00 00 00 00	 call	 ??Bsentry@?$basic_istream@_WU?$char_traits@_W@std@@@std@@QBE_NXZ ; std::basic_istream<wchar_t,std::char_traits<wchar_t> >::sentry::operator bool
  00059	0f b6 c8	 movzx	 ecx, al
  0005c	85 c9		 test	 ecx, ecx
  0005e	0f 84 94 02 00
	00		 je	 $L69635

; 436  : 		{	// state okay, extract characters
; 437  : 		const _Ctype& _Ctype_fac = _USE(_Istr.getloc(), _Ctype);

  00064	8b f4		 mov	 esi, esp
  00066	8d 55 c0	 lea	 edx, DWORD PTR $T69630[ebp]
  00069	52		 push	 edx
  0006a	8b 45 08	 mov	 eax, DWORD PTR __Istr$[ebp]
  0006d	8b 08		 mov	 ecx, DWORD PTR [eax]
  0006f	8b 55 08	 mov	 edx, DWORD PTR __Istr$[ebp]
  00072	03 51 04	 add	 edx, DWORD PTR [ecx+4]
  00075	8b ca		 mov	 ecx, edx
  00077	ff 15 00 00 00
	00		 call	 DWORD PTR __imp_?getloc@ios_base@std@@QBE?AVlocale@2@XZ
  0007d	3b f4		 cmp	 esi, esp
  0007f	e8 00 00 00 00	 call	 __RTC_CheckEsp
  00084	89 45 b4	 mov	 DWORD PTR tv65[ebp], eax
  00087	8b 45 b4	 mov	 eax, DWORD PTR tv65[ebp]
  0008a	89 45 b0	 mov	 DWORD PTR tv189[ebp], eax
  0008d	c6 45 fc 01	 mov	 BYTE PTR __$EHRec$[ebp+12], 1
  00091	8b 4d b0	 mov	 ecx, DWORD PTR tv189[ebp]
  00094	51		 push	 ecx
  00095	e8 00 00 00 00	 call	 ??$use_facet@V?$ctype@_W@std@@@std@@YAABV?$ctype@_W@0@ABVlocale@0@@Z ; std::use_facet<std::ctype<wchar_t> >
  0009a	83 c4 04	 add	 esp, 4
  0009d	89 45 d4	 mov	 DWORD PTR __Ctype_fac$68138[ebp], eax
  000a0	c6 45 fc 00	 mov	 BYTE PTR __$EHRec$[ebp+12], 0
  000a4	8b f4		 mov	 esi, esp
  000a6	8d 4d c0	 lea	 ecx, DWORD PTR $T69630[ebp]
  000a9	ff 15 00 00 00
	00		 call	 DWORD PTR __imp_??1locale@std@@QAE@XZ
  000af	3b f4		 cmp	 esi, esp
  000b1	e8 00 00 00 00	 call	 __RTC_CheckEsp

; 438  : 		_Str.erase();

  000b6	8b f4		 mov	 esi, esp
  000b8	8b 15 00 00 00
	00		 mov	 edx, DWORD PTR __imp_?npos@?$basic_string@_WU?$char_traits@_W@std@@V?$allocator@_W@2@@std@@2IB
  000be	8b 02		 mov	 eax, DWORD PTR [edx]
  000c0	50		 push	 eax
  000c1	6a 00		 push	 0
  000c3	8b 4d 0c	 mov	 ecx, DWORD PTR __Str$[ebp]
  000c6	ff 15 00 00 00
	00		 call	 DWORD PTR __imp_?erase@?$basic_string@_WU?$char_traits@_W@std@@V?$allocator@_W@2@@std@@QAEAAV12@II@Z
  000cc	3b f4		 cmp	 esi, esp
  000ce	e8 00 00 00 00	 call	 __RTC_CheckEsp

; 439  : 
; 440  : 		_TRY_IO_BEGIN

  000d3	c6 45 fc 02	 mov	 BYTE PTR __$EHRec$[ebp+12], 2

; 441  : 		_Mysizt _Size = 0 < _Istr.width()
; 442  : 			&& (_Mysizt)_Istr.width() < _Str.max_size()
; 443  : 				? (_Mysizt)_Istr.width() : _Str.max_size();

  000d7	8b 4d 08	 mov	 ecx, DWORD PTR __Istr$[ebp]
  000da	8b 11		 mov	 edx, DWORD PTR [ecx]
  000dc	8b 4d 08	 mov	 ecx, DWORD PTR __Istr$[ebp]
  000df	03 4a 04	 add	 ecx, DWORD PTR [edx+4]
  000e2	8b f4		 mov	 esi, esp
  000e4	ff 15 00 00 00
	00		 call	 DWORD PTR __imp_?width@ios_base@std@@QBEHXZ
  000ea	3b f4		 cmp	 esi, esp
  000ec	e8 00 00 00 00	 call	 __RTC_CheckEsp
  000f1	89 45 ac	 mov	 DWORD PTR tv194[ebp], eax
  000f4	83 7d ac 00	 cmp	 DWORD PTR tv194[ebp], 0
  000f8	7e 61		 jle	 SHORT $L69631
  000fa	8b 45 08	 mov	 eax, DWORD PTR __Istr$[ebp]
  000fd	8b 08		 mov	 ecx, DWORD PTR [eax]
  000ff	8b 55 08	 mov	 edx, DWORD PTR __Istr$[ebp]
  00102	03 51 04	 add	 edx, DWORD PTR [ecx+4]
  00105	8b f4		 mov	 esi, esp
  00107	8b ca		 mov	 ecx, edx
  00109	ff 15 00 00 00
	00		 call	 DWORD PTR __imp_?width@ios_base@std@@QBEHXZ
  0010f	3b f4		 cmp	 esi, esp
  00111	e8 00 00 00 00	 call	 __RTC_CheckEsp
  00116	89 45 a8	 mov	 DWORD PTR tv195[ebp], eax
  00119	8b f4		 mov	 esi, esp
  0011b	8b 4d 0c	 mov	 ecx, DWORD PTR __Str$[ebp]
  0011e	ff 15 00 00 00
	00		 call	 DWORD PTR __imp_?max_size@?$basic_string@_WU?$char_traits@_W@std@@V?$allocator@_W@2@@std@@QBEIXZ
  00124	3b f4		 cmp	 esi, esp
  00126	e8 00 00 00 00	 call	 __RTC_CheckEsp
  0012b	89 45 a4	 mov	 DWORD PTR tv196[ebp], eax
  0012e	8b 45 a8	 mov	 eax, DWORD PTR tv195[ebp]
  00131	3b 45 a4	 cmp	 eax, DWORD PTR tv196[ebp]
  00134	73 25		 jae	 SHORT $L69631
  00136	8b 4d 08	 mov	 ecx, DWORD PTR __Istr$[ebp]
  00139	8b 11		 mov	 edx, DWORD PTR [ecx]
  0013b	8b 4d 08	 mov	 ecx, DWORD PTR __Istr$[ebp]
  0013e	03 4a 04	 add	 ecx, DWORD PTR [edx+4]
  00141	8b f4		 mov	 esi, esp
  00143	ff 15 00 00 00
	00		 call	 DWORD PTR __imp_?width@ios_base@std@@QBEHXZ
  00149	3b f4		 cmp	 esi, esp
  0014b	e8 00 00 00 00	 call	 __RTC_CheckEsp
  00150	89 45 a0	 mov	 DWORD PTR tv197[ebp], eax
  00153	8b 45 a0	 mov	 eax, DWORD PTR tv197[ebp]
  00156	89 45 9c	 mov	 DWORD PTR tv135[ebp], eax
  00159	eb 1b		 jmp	 SHORT $L69632
$L69631:
  0015b	8b f4		 mov	 esi, esp
  0015d	8b 4d 0c	 mov	 ecx, DWORD PTR __Str$[ebp]
  00160	ff 15 00 00 00
	00		 call	 DWORD PTR __imp_?max_size@?$basic_string@_WU?$char_traits@_W@std@@V?$allocator@_W@2@@std@@QBEIXZ
  00166	3b f4		 cmp	 esi, esp
  00168	e8 00 00 00 00	 call	 __RTC_CheckEsp
  0016d	89 45 98	 mov	 DWORD PTR tv198[ebp], eax
  00170	8b 4d 98	 mov	 ecx, DWORD PTR tv198[ebp]
  00173	89 4d 9c	 mov	 DWORD PTR tv135[ebp], ecx
$L69632:
  00176	8b 55 9c	 mov	 edx, DWORD PTR tv135[ebp]
  00179	89 55 d0	 mov	 DWORD PTR __Size$68141[ebp], edx

; 444  : 		typename _Traits::int_type _Meta = _Istr.rdbuf()->sgetc();

  0017c	8b 45 08	 mov	 eax, DWORD PTR __Istr$[ebp]
  0017f	8b 08		 mov	 ecx, DWORD PTR [eax]
  00181	8b 55 08	 mov	 edx, DWORD PTR __Istr$[ebp]
  00184	03 51 04	 add	 edx, DWORD PTR [ecx+4]
  00187	8b f4		 mov	 esi, esp
  00189	8b ca		 mov	 ecx, edx
  0018b	ff 15 00 00 00
	00		 call	 DWORD PTR __imp_?rdbuf@?$basic_ios@_WU?$char_traits@_W@std@@@std@@QBEPAV?$basic_streambuf@_WU?$char_traits@_W@std@@@2@XZ
  00191	3b f4		 cmp	 esi, esp
  00193	e8 00 00 00 00	 call	 __RTC_CheckEsp
  00198	89 45 94	 mov	 DWORD PTR tv199[ebp], eax
  0019b	8b f4		 mov	 esi, esp
  0019d	8b 4d 94	 mov	 ecx, DWORD PTR tv199[ebp]
  001a0	ff 15 00 00 00
	00		 call	 DWORD PTR __imp_?sgetc@?$basic_streambuf@_WU?$char_traits@_W@std@@@std@@QAEGXZ
  001a6	3b f4		 cmp	 esi, esp
  001a8	e8 00 00 00 00	 call	 __RTC_CheckEsp
  001ad	66 89 45 92	 mov	 WORD PTR tv200[ebp], ax
  001b1	66 8b 45 92	 mov	 ax, WORD PTR tv200[ebp]
  001b5	66 89 45 c8	 mov	 WORD PTR __Meta$68144[ebp], ax

; 445  : 
; 446  : 		for (; 0 < _Size; --_Size, _Meta = _Istr.rdbuf()->snextc())

  001b9	eb 44		 jmp	 SHORT $L68145
$L68146:
  001bb	8b 4d d0	 mov	 ecx, DWORD PTR __Size$68141[ebp]
  001be	83 e9 01	 sub	 ecx, 1
  001c1	89 4d d0	 mov	 DWORD PTR __Size$68141[ebp], ecx
  001c4	8b 55 08	 mov	 edx, DWORD PTR __Istr$[ebp]
  001c7	8b 02		 mov	 eax, DWORD PTR [edx]
  001c9	8b 4d 08	 mov	 ecx, DWORD PTR __Istr$[ebp]
  001cc	03 48 04	 add	 ecx, DWORD PTR [eax+4]
  001cf	8b f4		 mov	 esi, esp
  001d1	ff 15 00 00 00
	00		 call	 DWORD PTR __imp_?rdbuf@?$basic_ios@_WU?$char_traits@_W@std@@@std@@QBEPAV?$basic_streambuf@_WU?$char_traits@_W@std@@@2@XZ
  001d7	3b f4		 cmp	 esi, esp
  001d9	e8 00 00 00 00	 call	 __RTC_CheckEsp
  001de	89 45 8c	 mov	 DWORD PTR tv201[ebp], eax
  001e1	8b f4		 mov	 esi, esp
  001e3	8b 4d 8c	 mov	 ecx, DWORD PTR tv201[ebp]
  001e6	ff 15 00 00 00
	00		 call	 DWORD PTR __imp_?snextc@?$basic_streambuf@_WU?$char_traits@_W@std@@@std@@QAEGXZ
  001ec	3b f4		 cmp	 esi, esp
  001ee	e8 00 00 00 00	 call	 __RTC_CheckEsp
  001f3	66 89 45 8a	 mov	 WORD PTR tv202[ebp], ax
  001f7	66 8b 4d 8a	 mov	 cx, WORD PTR tv202[ebp]
  001fb	66 89 4d c8	 mov	 WORD PTR __Meta$68144[ebp], cx
$L68145:
  001ff	83 7d d0 00	 cmp	 DWORD PTR __Size$68141[ebp], 0
  00203	0f 86 c7 00 00
	00		 jbe	 $L68147

; 447  : 			if(_Traits::eq_int_type(_Traits::eof(), _Meta))

  00209	8b f4		 mov	 esi, esp
  0020b	ff 15 00 00 00
	00		 call	 DWORD PTR __imp_?eof@?$char_traits@_W@std@@SAGXZ
  00211	3b f4		 cmp	 esi, esp
  00213	e8 00 00 00 00	 call	 __RTC_CheckEsp
  00218	66 89 45 88	 mov	 WORD PTR tv203[ebp], ax
  0021c	66 8b 55 88	 mov	 dx, WORD PTR tv203[ebp]
  00220	66 89 55 be	 mov	 WORD PTR $T69633[ebp], dx
  00224	8b f4		 mov	 esi, esp
  00226	8d 45 c8	 lea	 eax, DWORD PTR __Meta$68144[ebp]
  00229	50		 push	 eax
  0022a	8d 4d be	 lea	 ecx, DWORD PTR $T69633[ebp]
  0022d	51		 push	 ecx
  0022e	ff 15 00 00 00
	00		 call	 DWORD PTR __imp_?eq_int_type@?$char_traits@_W@std@@SA_NABG0@Z
  00234	83 c4 08	 add	 esp, 8
  00237	3b f4		 cmp	 esi, esp
  00239	e8 00 00 00 00	 call	 __RTC_CheckEsp
  0023e	88 45 87	 mov	 BYTE PTR tv204[ebp], al
  00241	0f b6 55 87	 movzx	 edx, BYTE PTR tv204[ebp]
  00245	85 d2		 test	 edx, edx
  00247	74 0b		 je	 SHORT $L68149

; 448  : 				{	// end of file, quit
; 449  : 				_State |= ios_base::eofbit;

  00249	8b 45 ec	 mov	 eax, DWORD PTR __State$[ebp]
  0024c	83 c8 01	 or	 eax, 1
  0024f	89 45 ec	 mov	 DWORD PTR __State$[ebp], eax

; 450  : 				break;

  00252	eb 7c		 jmp	 SHORT $L68147
$L68149:

; 451  : 				}
; 452  : 			else if (_Ctype_fac.is(_Ctype::space,
; 453  : 				_Traits::to_char_type(_Meta)))

  00254	8b f4		 mov	 esi, esp
  00256	8d 4d c8	 lea	 ecx, DWORD PTR __Meta$68144[ebp]
  00259	51		 push	 ecx
  0025a	ff 15 00 00 00
	00		 call	 DWORD PTR __imp_?to_char_type@?$char_traits@_W@std@@SA_WABG@Z
  00260	83 c4 04	 add	 esp, 4
  00263	3b f4		 cmp	 esi, esp
  00265	e8 00 00 00 00	 call	 __RTC_CheckEsp
  0026a	66 89 45 84	 mov	 WORD PTR tv205[ebp], ax
  0026e	8b f4		 mov	 esi, esp
  00270	66 8b 55 84	 mov	 dx, WORD PTR tv205[ebp]
  00274	52		 push	 edx
  00275	6a 48		 push	 72			; 00000048H
  00277	8b 4d d4	 mov	 ecx, DWORD PTR __Ctype_fac$68138[ebp]
  0027a	ff 15 00 00 00
	00		 call	 DWORD PTR __imp_?is@?$ctype@_W@std@@QBE_NF_W@Z
  00280	3b f4		 cmp	 esi, esp
  00282	e8 00 00 00 00	 call	 __RTC_CheckEsp
  00287	88 45 83	 mov	 BYTE PTR tv206[ebp], al
  0028a	0f b6 45 83	 movzx	 eax, BYTE PTR tv206[ebp]
  0028e	85 c0		 test	 eax, eax
  00290	74 02		 je	 SHORT $L68151

; 454  : 				break;	// whitespace, quit

  00292	eb 3c		 jmp	 SHORT $L68147
$L68151:

; 455  : 			else
; 456  : 				{	// add character to string
; 457  : 				_Str.append(1, _Traits::to_char_type(_Meta));

  00294	8b f4		 mov	 esi, esp
  00296	8d 4d c8	 lea	 ecx, DWORD PTR __Meta$68144[ebp]
  00299	51		 push	 ecx
  0029a	ff 15 00 00 00
	00		 call	 DWORD PTR __imp_?to_char_type@?$char_traits@_W@std@@SA_WABG@Z
  002a0	83 c4 04	 add	 esp, 4
  002a3	3b f4		 cmp	 esi, esp
  002a5	e8 00 00 00 00	 call	 __RTC_CheckEsp
  002aa	66 89 45 80	 mov	 WORD PTR tv207[ebp], ax
  002ae	8b f4		 mov	 esi, esp
  002b0	66 8b 55 80	 mov	 dx, WORD PTR tv207[ebp]
  002b4	52		 push	 edx
  002b5	6a 01		 push	 1
  002b7	8b 4d 0c	 mov	 ecx, DWORD PTR __Str$[ebp]
  002ba	ff 15 00 00 00
	00		 call	 DWORD PTR __imp_?append@?$basic_string@_WU?$char_traits@_W@std@@V?$allocator@_W@2@@std@@QAEAAV12@I_W@Z
  002c0	3b f4		 cmp	 esi, esp
  002c2	e8 00 00 00 00	 call	 __RTC_CheckEsp

; 458  : 				_Changed = true;

  002c7	c6 45 eb 01	 mov	 BYTE PTR __Changed$[ebp], 1

; 459  : 				}

  002cb	e9 eb fe ff ff	 jmp	 $L68146
$L68147:
  002d0	eb 26		 jmp	 SHORT $L69635
$L69636:

; 460  : 		_CATCH_IO_(_Istr)

  002d2	8b f4		 mov	 esi, esp
  002d4	6a 01		 push	 1
  002d6	6a 04		 push	 4
  002d8	8b 45 08	 mov	 eax, DWORD PTR __Istr$[ebp]
  002db	8b 08		 mov	 ecx, DWORD PTR [eax]
  002dd	8b 55 08	 mov	 edx, DWORD PTR __Istr$[ebp]
  002e0	03 51 04	 add	 edx, DWORD PTR [ecx+4]
  002e3	8b ca		 mov	 ecx, edx
  002e5	ff 15 00 00 00
	00		 call	 DWORD PTR __imp_?setstate@?$basic_ios@_WU?$char_traits@_W@std@@@std@@QAEXH_N@Z
  002eb	3b f4		 cmp	 esi, esp
  002ed	e8 00 00 00 00	 call	 __RTC_CheckEsp
  002f2	b8 00 00 00 00	 mov	 eax, $L69635
  002f7	c3		 ret	 0
$L69635:
  002f8	c7 45 fc 00 00
	00 00		 mov	 DWORD PTR __$EHRec$[ebp+12], 0

; 461  : 		}
; 462  : 
; 463  : 	_Istr.width(0);

  002ff	8b f4		 mov	 esi, esp
  00301	6a 00		 push	 0
  00303	8b 45 08	 mov	 eax, DWORD PTR __Istr$[ebp]
  00306	8b 08		 mov	 ecx, DWORD PTR [eax]
  00308	8b 55 08	 mov	 edx, DWORD PTR __Istr$[ebp]
  0030b	03 51 04	 add	 edx, DWORD PTR [ecx+4]
  0030e	8b ca		 mov	 ecx, edx
  00310	ff 15 00 00 00
	00		 call	 DWORD PTR __imp_?width@ios_base@std@@QAEHH@Z
  00316	3b f4		 cmp	 esi, esp
  00318	e8 00 00 00 00	 call	 __RTC_CheckEsp

; 464  : 	if (!_Changed)

  0031d	0f b6 45 eb	 movzx	 eax, BYTE PTR __Changed$[ebp]
  00321	85 c0		 test	 eax, eax
  00323	75 09		 jne	 SHORT $L68153

; 465  : 		_State |= ios_base::failbit;

  00325	8b 4d ec	 mov	 ecx, DWORD PTR __State$[ebp]
  00328	83 c9 02	 or	 ecx, 2
  0032b	89 4d ec	 mov	 DWORD PTR __State$[ebp], ecx
$L68153:

; 466  : 	_Istr.setstate(_State);

  0032e	8b f4		 mov	 esi, esp
  00330	6a 00		 push	 0
  00332	8b 55 ec	 mov	 edx, DWORD PTR __State$[ebp]
  00335	52		 push	 edx
  00336	8b 45 08	 mov	 eax, DWORD PTR __Istr$[ebp]
  00339	8b 08		 mov	 ecx, DWORD PTR [eax]
  0033b	8b 55 08	 mov	 edx, DWORD PTR __Istr$[ebp]
  0033e	03 51 04	 add	 edx, DWORD PTR [ecx+4]
  00341	8b ca		 mov	 ecx, edx
  00343	ff 15 00 00 00
	00		 call	 DWORD PTR __imp_?setstate@?$basic_ios@_WU?$char_traits@_W@std@@@std@@QAEXH_N@Z
  00349	3b f4		 cmp	 esi, esp
  0034b	e8 00 00 00 00	 call	 __RTC_CheckEsp

; 467  : 	return (_Istr);

  00350	8b 45 08	 mov	 eax, DWORD PTR __Istr$[ebp]
  00353	89 45 b8	 mov	 DWORD PTR $T69634[ebp], eax
  00356	c7 45 fc ff ff
	ff ff		 mov	 DWORD PTR __$EHRec$[ebp+12], -1
  0035d	8d 4d dc	 lea	 ecx, DWORD PTR __Ok$[ebp]
  00360	e8 00 00 00 00	 call	 ??1sentry@?$basic_istream@_WU?$char_traits@_W@std@@@std@@QAE@XZ
  00365	8b 45 b8	 mov	 eax, DWORD PTR $T69634[ebp]

; 468  : 	}

  00368	52		 push	 edx
  00369	8b cd		 mov	 ecx, ebp
  0036b	50		 push	 eax
  0036c	8d 15 00 00 00
	00		 lea	 edx, DWORD PTR $L69645
  00372	e8 00 00 00 00	 call	 @_RTC_CheckStackVars@8
  00377	58		 pop	 eax
  00378	5a		 pop	 edx
  00379	8b 4d f4	 mov	 ecx, DWORD PTR __$EHRec$[ebp+4]
  0037c	64 89 0d 00 00
	00 00		 mov	 DWORD PTR fs:__except_list, ecx
  00383	5f		 pop	 edi
  00384	5e		 pop	 esi
  00385	5b		 pop	 ebx
  00386	81 c4 80 00 00
	00		 add	 esp, 128		; 00000080H
  0038c	3b ec		 cmp	 ebp, esp
  0038e	e8 00 00 00 00	 call	 __RTC_CheckEsp
  00393	8b e5		 mov	 esp, ebp
  00395	5d		 pop	 ebp
  00396	c3		 ret	 0
$L69645:
  00397	02 00 00 00	 DD	 2
  0039b	00 00 00 00	 DD	 $L69644
$L69644:
  0039f	dc ff ff ff	 DD	 -36			; ffffffdcH
  003a3	08 00 00 00	 DD	 8
  003a7	00 00 00 00	 DD	 $L69641
  003ab	c8 ff ff ff	 DD	 -56			; ffffffc8H
  003af	02 00 00 00	 DD	 2
  003b3	00 00 00 00	 DD	 $L69642
$L69642:
  003b7	5f		 DB	 95			; 0000005fH
  003b8	4d		 DB	 77			; 0000004dH
  003b9	65		 DB	 101			; 00000065H
  003ba	74		 DB	 116			; 00000074H
  003bb	61		 DB	 97			; 00000061H
  003bc	00		 DB	 0
$L69641:
  003bd	5f		 DB	 95			; 0000005fH
  003be	4f		 DB	 79			; 0000004fH
  003bf	6b		 DB	 107			; 0000006bH
  003c0	00		 DB	 0
_TEXT	ENDS
;	COMDAT text$x
text$x	SEGMENT
$L69637:
  00000	8d 4d dc	 lea	 ecx, DWORD PTR __Ok$[ebp]
  00003	e9 00 00 00 00	 jmp	 ??1sentry@?$basic_istream@_WU?$char_traits@_W@std@@@std@@QAE@XZ
$L69638:
  00008	8b f4		 mov	 esi, esp
  0000a	8d 4d c0	 lea	 ecx, DWORD PTR $T69630[ebp]
  0000d	ff 15 00 00 00
	00		 call	 DWORD PTR __imp_??1locale@std@@QAE@XZ
  00013	3b f4		 cmp	 esi, esp
  00015	e9 00 00 00 00	 jmp	 __RTC_CheckEsp
__ehhandler$??$?5_WU?$char_traits@_W@std@@V?$allocator@_W@1@@std@@YAAAV?$basic_istream@_WU?$char_traits@_W@std@@@0@AAV10@AAV?$basic_string@_WU?$char_traits@_W@std@@V?$allocator@_W@2@@0@@Z:
  0001a	b8 00 00 00 00	 mov	 eax, OFFSET FLAT:$T69640
  0001f	e9 00 00 00 00	 jmp	 ___CxxFrameHandler
text$x	ENDS
??$?5_WU?$char_traits@_W@std@@V?$allocator@_W@1@@std@@YAAAV?$basic_istream@_WU?$char_traits@_W@std@@@0@AAV10@AAV?$basic_string@_WU?$char_traits@_W@std@@V?$allocator@_W@2@@0@@Z ENDP ; std::operator>><wchar_t,std::char_traits<wchar_t>,std::allocator<wchar_t> >
PUBLIC	??1_Sentry_base@?$basic_istream@_WU?$char_traits@_W@std@@@std@@QAE@XZ ; std::basic_istream<wchar_t,std::char_traits<wchar_t> >::_Sentry_base::~_Sentry_base
; Function compile flags: /Odt /RTCsu
;	COMDAT ??1sentry@?$basic_istream@_WU?$char_traits@_W@std@@@std@@QAE@XZ
_TEXT	SEGMENT
_this$ = -4						; size = 4
??1sentry@?$basic_istream@_WU?$char_traits@_W@std@@@std@@QAE@XZ PROC NEAR ; std::basic_istream<wchar_t,std::char_traits<wchar_t> >::sentry::~sentry, COMDAT
; _this$ = ecx
  00000	55		 push	 ebp
  00001	8b ec		 mov	 ebp, esp
  00003	51		 push	 ecx
  00004	c7 45 fc cc cc
	cc cc		 mov	 DWORD PTR [ebp-4], -858993460 ; ccccccccH
  0000b	89 4d fc	 mov	 DWORD PTR _this$[ebp], ecx
  0000e	8b 4d fc	 mov	 ecx, DWORD PTR _this$[ebp]
  00011	e8 00 00 00 00	 call	 ??1_Sentry_base@?$basic_istream@_WU?$char_traits@_W@std@@@std@@QAE@XZ ; std::basic_istream<wchar_t,std::char_traits<wchar_t> >::_Sentry_base::~_Sentry_base
  00016	83 c4 04	 add	 esp, 4
  00019	3b ec		 cmp	 ebp, esp
  0001b	e8 00 00 00 00	 call	 __RTC_CheckEsp
  00020	8b e5		 mov	 esp, ebp
  00022	5d		 pop	 ebp
  00023	c3		 ret	 0
??1sentry@?$basic_istream@_WU?$char_traits@_W@std@@@std@@QAE@XZ ENDP ; std::basic_istream<wchar_t,std::char_traits<wchar_t> >::sentry::~sentry
_TEXT	ENDS
PUBLIC	??0_Sentry_base@?$basic_istream@_WU?$char_traits@_W@std@@@std@@QAE@AAV12@@Z ; std::basic_istream<wchar_t,std::char_traits<wchar_t> >::_Sentry_base::_Sentry_base
EXTRN	__imp_?_Ipfx@?$basic_istream@_WU?$char_traits@_W@std@@@std@@QAE_N_N@Z:NEAR
;	COMDAT xdata$x
; File d:\program files (x86)\microsoft visual studio .net 2003\vc7\include\istream
xdata$x	SEGMENT
$T69658	DD	0ffffffffH
	DD	FLAT:$L69654
$T69656	DD	019930520H
	DD	01H
	DD	FLAT:$T69658
	DD	2 DUP(00H)
	DD	2 DUP(00H)
; Function compile flags: /Odt /RTCsu
xdata$x	ENDS
;	COMDAT ??0sentry@?$basic_istream@_WU?$char_traits@_W@std@@@std@@QAE@AAV12@_N@Z
_TEXT	SEGMENT
_this$ = -16						; size = 4
__$EHRec$ = -12						; size = 12
__Istr$ = 8						; size = 4
__Noskip$ = 12						; size = 1
??0sentry@?$basic_istream@_WU?$char_traits@_W@std@@@std@@QAE@AAV12@_N@Z PROC NEAR ; std::basic_istream<wchar_t,std::char_traits<wchar_t> >::sentry::sentry, COMDAT
; _this$ = ecx

; 72   : 			{	// construct locking and calling _Ipfx

  00000	55		 push	 ebp
  00001	8b ec		 mov	 ebp, esp
  00003	6a ff		 push	 -1
  00005	68 00 00 00 00	 push	 __ehhandler$??0sentry@?$basic_istream@_WU?$char_traits@_W@std@@@std@@QAE@AAV12@_N@Z
  0000a	64 a1 00 00 00
	00		 mov	 eax, DWORD PTR fs:__except_list
  00010	50		 push	 eax
  00011	64 89 25 00 00
	00 00		 mov	 DWORD PTR fs:__except_list, esp
  00018	51		 push	 ecx
  00019	56		 push	 esi
  0001a	c7 45 f0 cc cc
	cc cc		 mov	 DWORD PTR [ebp-16], -858993460 ; ccccccccH
  00021	89 4d f0	 mov	 DWORD PTR _this$[ebp], ecx
  00024	8b 45 08	 mov	 eax, DWORD PTR __Istr$[ebp]
  00027	50		 push	 eax
  00028	8b 4d f0	 mov	 ecx, DWORD PTR _this$[ebp]
  0002b	e8 00 00 00 00	 call	 ??0_Sentry_base@?$basic_istream@_WU?$char_traits@_W@std@@@std@@QAE@AAV12@@Z ; std::basic_istream<wchar_t,std::char_traits<wchar_t> >::_Sentry_base::_Sentry_base
  00030	c7 45 fc 00 00
	00 00		 mov	 DWORD PTR __$EHRec$[ebp+8], 0

; 73   : 			_Ok = this->_Myistr._Ipfx(_Noskip);

  00037	8b f4		 mov	 esi, esp
  00039	8a 4d 0c	 mov	 cl, BYTE PTR __Noskip$[ebp]
  0003c	51		 push	 ecx
  0003d	8b 55 f0	 mov	 edx, DWORD PTR _this$[ebp]
  00040	8b 0a		 mov	 ecx, DWORD PTR [edx]
  00042	ff 15 00 00 00
	00		 call	 DWORD PTR __imp_?_Ipfx@?$basic_istream@_WU?$char_traits@_W@std@@@std@@QAE_N_N@Z
  00048	3b f4		 cmp	 esi, esp
  0004a	e8 00 00 00 00	 call	 __RTC_CheckEsp
  0004f	8b 4d f0	 mov	 ecx, DWORD PTR _this$[ebp]
  00052	88 41 04	 mov	 BYTE PTR [ecx+4], al

; 74   : 			}

  00055	c7 45 fc ff ff
	ff ff		 mov	 DWORD PTR __$EHRec$[ebp+8], -1
  0005c	8b 45 f0	 mov	 eax, DWORD PTR _this$[ebp]
  0005f	8b 4d f4	 mov	 ecx, DWORD PTR __$EHRec$[ebp]
  00062	64 89 0d 00 00
	00 00		 mov	 DWORD PTR fs:__except_list, ecx
  00069	5e		 pop	 esi
  0006a	83 c4 10	 add	 esp, 16			; 00000010H
  0006d	3b ec		 cmp	 ebp, esp
  0006f	e8 00 00 00 00	 call	 __RTC_CheckEsp
  00074	8b e5		 mov	 esp, ebp
  00076	5d		 pop	 ebp
  00077	c2 08 00	 ret	 8
_TEXT	ENDS
;	COMDAT text$x
text$x	SEGMENT
$L69654:
  00000	8b 4d f0	 mov	 ecx, DWORD PTR _this$[ebp]
  00003	e9 00 00 00 00	 jmp	 ??1_Sentry_base@?$basic_istream@_WU?$char_traits@_W@std@@@std@@QAE@XZ ; std::basic_istream<wchar_t,std::char_traits<wchar_t> >::_Sentry_base::~_Sentry_base
__ehhandler$??0sentry@?$basic_istream@_WU?$char_traits@_W@std@@@std@@QAE@AAV12@_N@Z:
  00008	b8 00 00 00 00	 mov	 eax, OFFSET FLAT:$T69656
  0000d	e9 00 00 00 00	 jmp	 ___CxxFrameHandler
text$x	ENDS
??0sentry@?$basic_istream@_WU?$char_traits@_W@std@@@std@@QAE@AAV12@_N@Z ENDP ; std::basic_istream<wchar_t,std::char_traits<wchar_t> >::sentry::sentry
; Function compile flags: /Odt /RTCsu
;	COMDAT ??Bsentry@?$basic_istream@_WU?$char_traits@_W@std@@@std@@QBE_NXZ
_TEXT	SEGMENT
_this$ = -4						; size = 4
??Bsentry@?$basic_istream@_WU?$char_traits@_W@std@@@std@@QBE_NXZ PROC NEAR ; std::basic_istream<wchar_t,std::char_traits<wchar_t> >::sentry::operator bool, COMDAT
; _this$ = ecx

; 77   : 			{	// test if _Ipfx succeeded

  00000	55		 push	 ebp
  00001	8b ec		 mov	 ebp, esp
  00003	51		 push	 ecx
  00004	c7 45 fc cc cc
	cc cc		 mov	 DWORD PTR [ebp-4], -858993460 ; ccccccccH
  0000b	89 4d fc	 mov	 DWORD PTR _this$[ebp], ecx

; 78   : 			return (_Ok);

  0000e	8b 45 fc	 mov	 eax, DWORD PTR _this$[ebp]
  00011	8a 40 04	 mov	 al, BYTE PTR [eax+4]

; 79   : 			}

  00014	8b e5		 mov	 esp, ebp
  00016	5d		 pop	 ebp
  00017	c3		 ret	 0
??Bsentry@?$basic_istream@_WU?$char_traits@_W@std@@@std@@QBE_NXZ ENDP ; std::basic_istream<wchar_t,std::char_traits<wchar_t> >::sentry::operator bool
_TEXT	ENDS
EXTRN	__imp_?_Unlock@?$basic_streambuf@_WU?$char_traits@_W@std@@@std@@QAEXXZ:NEAR
; Function compile flags: /Odt /RTCsu
;	COMDAT ??1_Sentry_base@?$basic_istream@_WU?$char_traits@_W@std@@@std@@QAE@XZ
_TEXT	SEGMENT
_this$ = -4						; size = 4
??1_Sentry_base@?$basic_istream@_WU?$char_traits@_W@std@@@std@@QAE@XZ PROC NEAR ; std::basic_istream<wchar_t,std::char_traits<wchar_t> >::_Sentry_base::~_Sentry_base, COMDAT
; _this$ = ecx

; 58   : 			{	// destroy after unlocking

  00000	55		 push	 ebp
  00001	8b ec		 mov	 ebp, esp
  00003	51		 push	 ecx
  00004	56		 push	 esi
  00005	c7 45 fc cc cc
	cc cc		 mov	 DWORD PTR [ebp-4], -858993460 ; ccccccccH
  0000c	89 4d fc	 mov	 DWORD PTR _this$[ebp], ecx

; 59   : 			if (_Myistr.rdbuf() != 0)

  0000f	8b 45 fc	 mov	 eax, DWORD PTR _this$[ebp]
  00012	8b 08		 mov	 ecx, DWORD PTR [eax]
  00014	8b 11		 mov	 edx, DWORD PTR [ecx]
  00016	8b 45 fc	 mov	 eax, DWORD PTR _this$[ebp]
  00019	8b 08		 mov	 ecx, DWORD PTR [eax]
  0001b	03 4a 04	 add	 ecx, DWORD PTR [edx+4]
  0001e	8b f4		 mov	 esi, esp
  00020	ff 15 00 00 00
	00		 call	 DWORD PTR __imp_?rdbuf@?$basic_ios@_WU?$char_traits@_W@std@@@std@@QBEPAV?$basic_streambuf@_WU?$char_traits@_W@std@@@2@XZ
  00026	3b f4		 cmp	 esi, esp
  00028	e8 00 00 00 00	 call	 __RTC_CheckEsp
  0002d	85 c0		 test	 eax, eax
  0002f	74 2f		 je	 SHORT $L66405

; 60   : 				_Myistr.rdbuf()->_Unlock();

  00031	8b 4d fc	 mov	 ecx, DWORD PTR _this$[ebp]
  00034	8b 11		 mov	 edx, DWORD PTR [ecx]
  00036	8b 02		 mov	 eax, DWORD PTR [edx]
  00038	8b 4d fc	 mov	 ecx, DWORD PTR _this$[ebp]
  0003b	8b 09		 mov	 ecx, DWORD PTR [ecx]
  0003d	03 48 04	 add	 ecx, DWORD PTR [eax+4]
  00040	8b f4		 mov	 esi, esp
  00042	ff 15 00 00 00
	00		 call	 DWORD PTR __imp_?rdbuf@?$basic_ios@_WU?$char_traits@_W@std@@@std@@QBEPAV?$basic_streambuf@_WU?$char_traits@_W@std@@@2@XZ
  00048	3b f4		 cmp	 esi, esp
  0004a	e8 00 00 00 00	 call	 __RTC_CheckEsp
  0004f	8b f4		 mov	 esi, esp
  00051	8b c8		 mov	 ecx, eax
  00053	ff 15 00 00 00
	00		 call	 DWORD PTR __imp_?_Unlock@?$basic_streambuf@_WU?$char_traits@_W@std@@@std@@QAEXXZ
  00059	3b f4		 cmp	 esi, esp
  0005b	e8 00 00 00 00	 call	 __RTC_CheckEsp
$L66405:

; 61   : 			}

  00060	5e		 pop	 esi
  00061	83 c4 04	 add	 esp, 4
  00064	3b ec		 cmp	 ebp, esp
  00066	e8 00 00 00 00	 call	 __RTC_CheckEsp
  0006b	8b e5		 mov	 esp, ebp
  0006d	5d		 pop	 ebp
  0006e	c3		 ret	 0
??1_Sentry_base@?$basic_istream@_WU?$char_traits@_W@std@@@std@@QAE@XZ ENDP ; std::basic_istream<wchar_t,std::char_traits<wchar_t> >::_Sentry_base::~_Sentry_base
_TEXT	ENDS
EXTRN	__imp_?_Lock@?$basic_streambuf@_WU?$char_traits@_W@std@@@std@@QAEXXZ:NEAR
; Function compile flags: /Odt /RTCsu
;	COMDAT ??0_Sentry_base@?$basic_istream@_WU?$char_traits@_W@std@@@std@@QAE@AAV12@@Z
_TEXT	SEGMENT
_this$ = -4						; size = 4
__Istr$ = 8						; size = 4
??0_Sentry_base@?$basic_istream@_WU?$char_traits@_W@std@@@std@@QAE@AAV12@@Z PROC NEAR ; std::basic_istream<wchar_t,std::char_traits<wchar_t> >::_Sentry_base::_Sentry_base, COMDAT
; _this$ = ecx

; 52   : 			{	// lock the stream buffer, if there

  00000	55		 push	 ebp
  00001	8b ec		 mov	 ebp, esp
  00003	51		 push	 ecx
  00004	56		 push	 esi
  00005	c7 45 fc cc cc
	cc cc		 mov	 DWORD PTR [ebp-4], -858993460 ; ccccccccH
  0000c	89 4d fc	 mov	 DWORD PTR _this$[ebp], ecx
  0000f	8b 45 fc	 mov	 eax, DWORD PTR _this$[ebp]
  00012	8b 4d 08	 mov	 ecx, DWORD PTR __Istr$[ebp]
  00015	89 08		 mov	 DWORD PTR [eax], ecx

; 53   : 			if (_Myistr.rdbuf() != 0)

  00017	8b 55 fc	 mov	 edx, DWORD PTR _this$[ebp]
  0001a	8b 02		 mov	 eax, DWORD PTR [edx]
  0001c	8b 08		 mov	 ecx, DWORD PTR [eax]
  0001e	8b 55 fc	 mov	 edx, DWORD PTR _this$[ebp]
  00021	8b 02		 mov	 eax, DWORD PTR [edx]
  00023	03 41 04	 add	 eax, DWORD PTR [ecx+4]
  00026	8b f4		 mov	 esi, esp
  00028	8b c8		 mov	 ecx, eax
  0002a	ff 15 00 00 00
	00		 call	 DWORD PTR __imp_?rdbuf@?$basic_ios@_WU?$char_traits@_W@std@@@std@@QBEPAV?$basic_streambuf@_WU?$char_traits@_W@std@@@2@XZ
  00030	3b f4		 cmp	 esi, esp
  00032	e8 00 00 00 00	 call	 __RTC_CheckEsp
  00037	85 c0		 test	 eax, eax
  00039	74 2f		 je	 SHORT $L67417

; 54   : 				_Myistr.rdbuf()->_Lock();

  0003b	8b 4d fc	 mov	 ecx, DWORD PTR _this$[ebp]
  0003e	8b 11		 mov	 edx, DWORD PTR [ecx]
  00040	8b 02		 mov	 eax, DWORD PTR [edx]
  00042	8b 4d fc	 mov	 ecx, DWORD PTR _this$[ebp]
  00045	8b 09		 mov	 ecx, DWORD PTR [ecx]
  00047	03 48 04	 add	 ecx, DWORD PTR [eax+4]
  0004a	8b f4		 mov	 esi, esp
  0004c	ff 15 00 00 00
	00		 call	 DWORD PTR __imp_?rdbuf@?$basic_ios@_WU?$char_traits@_W@std@@@std@@QBEPAV?$basic_streambuf@_WU?$char_traits@_W@std@@@2@XZ
  00052	3b f4		 cmp	 esi, esp
  00054	e8 00 00 00 00	 call	 __RTC_CheckEsp
  00059	8b f4		 mov	 esi, esp
  0005b	8b c8		 mov	 ecx, eax
  0005d	ff 15 00 00 00
	00		 call	 DWORD PTR __imp_?_Lock@?$basic_streambuf@_WU?$char_traits@_W@std@@@std@@QAEXXZ
  00063	3b f4		 cmp	 esi, esp
  00065	e8 00 00 00 00	 call	 __RTC_CheckEsp
$L67417:

; 55   : 			}

  0006a	8b 45 fc	 mov	 eax, DWORD PTR _this$[ebp]
  0006d	5e		 pop	 esi
  0006e	83 c4 04	 add	 esp, 4
  00071	3b ec		 cmp	 ebp, esp
  00073	e8 00 00 00 00	 call	 __RTC_CheckEsp
  00078	8b e5		 mov	 esp, ebp
  0007a	5d		 pop	 ebp
  0007b	c2 04 00	 ret	 4
??0_Sentry_base@?$basic_istream@_WU?$char_traits@_W@std@@@std@@QAE@AAV12@@Z ENDP ; std::basic_istream<wchar_t,std::char_traits<wchar_t> >::_Sentry_base::_Sentry_base
_TEXT	ENDS
PUBLIC	?_Psave@?$_Facetptr@V?$ctype@_W@std@@@std@@2PBVfacet@locale@2@B ; std::_Facetptr<std::ctype<wchar_t> >::_Psave
EXTRN	__imp_?id@?$ctype@_W@std@@2V0locale@2@A:DWORD
EXTRN	__imp_?_Getcat@?$ctype@_W@std@@SAIPAPBVfacet@locale@2@@Z:NEAR
;	COMDAT ?_Psave@?$_Facetptr@V?$ctype@_W@std@@@std@@2PBVfacet@locale@2@B
; File d:\program files (x86)\microsoft visual studio .net 2003\vc7\include\xlocale
_BSS	SEGMENT
?_Psave@?$_Facetptr@V?$ctype@_W@std@@@std@@2PBVfacet@locale@2@B DD 01H DUP (?) ; std::_Facetptr<std::ctype<wchar_t> >::_Psave
_BSS	ENDS
;	COMDAT xdata$x
xdata$x	SEGMENT
$T69675	DD	0ffffffffH
	DD	FLAT:$L69667
$T69669	DD	019930520H
	DD	01H
	DD	FLAT:$T69675
	DD	2 DUP(00H)
	DD	2 DUP(00H)
; Function compile flags: /Odt /RTCsu
xdata$x	ENDS
;	COMDAT ??$use_facet@V?$ctype@_W@std@@@std@@YAABV?$ctype@_W@0@ABVlocale@0@@Z
_TEXT	SEGMENT
$T69666 = -64						; size = 4
$T69665 = -60						; size = 12
__Pfmod$68011 = -48					; size = 4
__Pf$ = -44						; size = 4
__Id$ = -40						; size = 4
__Psave$ = -32						; size = 4
__Lock$ = -20						; size = 4
__$EHRec$ = -12						; size = 12
__Loc$ = 8						; size = 4
??$use_facet@V?$ctype@_W@std@@@std@@YAABV?$ctype@_W@0@ABVlocale@0@@Z PROC NEAR ; std::use_facet<std::ctype<wchar_t> >, COMDAT

; 315  : 	{	// get facet reference from locale

  00000	55		 push	 ebp
  00001	8b ec		 mov	 ebp, esp
  00003	6a ff		 push	 -1
  00005	68 00 00 00 00	 push	 __ehhandler$??$use_facet@V?$ctype@_W@std@@@std@@YAABV?$ctype@_W@0@ABVlocale@0@@Z
  0000a	64 a1 00 00 00
	00		 mov	 eax, DWORD PTR fs:__except_list
  00010	50		 push	 eax
  00011	64 89 25 00 00
	00 00		 mov	 DWORD PTR fs:__except_list, esp
  00018	83 ec 34	 sub	 esp, 52			; 00000034H
  0001b	56		 push	 esi
  0001c	57		 push	 edi
  0001d	8d 7d c0	 lea	 edi, DWORD PTR [ebp-64]
  00020	b9 0d 00 00 00	 mov	 ecx, 13			; 0000000dH
  00025	b8 cc cc cc cc	 mov	 eax, -858993460		; ccccccccH
  0002a	f3 ab		 rep stosd

; 316  : 	_Lockit _Lock(_LOCK_LOCALE);	// the thread lock, make get atomic

  0002c	8b f4		 mov	 esi, esp
  0002e	6a 00		 push	 0
  00030	8d 4d ec	 lea	 ecx, DWORD PTR __Lock$[ebp]
  00033	ff 15 00 00 00
	00		 call	 DWORD PTR __imp_??0_Lockit@std@@QAE@H@Z
  00039	3b f4		 cmp	 esi, esp
  0003b	e8 00 00 00 00	 call	 __RTC_CheckEsp
  00040	c7 45 fc 00 00
	00 00		 mov	 DWORD PTR __$EHRec$[ebp+8], 0

; 317  : 	const locale::facet *_Psave =
; 318  : 		_Facetptr<_Facet>::_Psave;	// static pointer to lazy facet

  00047	a1 00 00 00 00	 mov	 eax, DWORD PTR ?_Psave@?$_Facetptr@V?$ctype@_W@std@@@std@@2PBVfacet@locale@2@B ; std::_Facetptr<std::ctype<wchar_t> >::_Psave
  0004c	89 45 e0	 mov	 DWORD PTR __Psave$[ebp], eax

; 319  : 
; 320  : 	size_t _Id = _Facet::id;

  0004f	8b f4		 mov	 esi, esp
  00051	8b 0d 00 00 00
	00		 mov	 ecx, DWORD PTR __imp_?id@?$ctype@_W@std@@2V0locale@2@A
  00057	ff 15 00 00 00
	00		 call	 DWORD PTR __imp_??Bid@locale@std@@QAEIXZ
  0005d	3b f4		 cmp	 esi, esp
  0005f	e8 00 00 00 00	 call	 __RTC_CheckEsp
  00064	89 45 d8	 mov	 DWORD PTR __Id$[ebp], eax

; 321  : 	const locale::facet *_Pf = _Loc._Getfacet(_Id);

  00067	8b f4		 mov	 esi, esp
  00069	8b 4d d8	 mov	 ecx, DWORD PTR __Id$[ebp]
  0006c	51		 push	 ecx
  0006d	8b 4d 08	 mov	 ecx, DWORD PTR __Loc$[ebp]
  00070	ff 15 00 00 00
	00		 call	 DWORD PTR __imp_?_Getfacet@locale@std@@QBEPBVfacet@12@I@Z
  00076	3b f4		 cmp	 esi, esp
  00078	e8 00 00 00 00	 call	 __RTC_CheckEsp
  0007d	89 45 d4	 mov	 DWORD PTR __Pf$[ebp], eax

; 322  : 
; 323  : 	if (_Pf != 0)

  00080	83 7d d4 00	 cmp	 DWORD PTR __Pf$[ebp], 0
  00084	74 05		 je	 SHORT $L68002

; 324  : 		;	// got facet from locale
; 325  : 	else if (_Psave != 0)

  00086	e9 86 00 00 00	 jmp	 $L68003
$L68002:
  0008b	83 7d e0 00	 cmp	 DWORD PTR __Psave$[ebp], 0
  0008f	74 08		 je	 SHORT $L68004

; 326  : 		_Pf = _Psave;	// lazy facet already allocated

  00091	8b 55 e0	 mov	 edx, DWORD PTR __Psave$[ebp]
  00094	89 55 d4	 mov	 DWORD PTR __Pf$[ebp], edx

; 327  : 	else if (_Facet::_Getcat(&_Psave) == (size_t)(-1))

  00097	eb 78		 jmp	 SHORT $L68003
$L68004:
  00099	8b f4		 mov	 esi, esp
  0009b	8d 45 e0	 lea	 eax, DWORD PTR __Psave$[ebp]
  0009e	50		 push	 eax
  0009f	ff 15 00 00 00
	00		 call	 DWORD PTR __imp_?_Getcat@?$ctype@_W@std@@SAIPAPBVfacet@locale@2@@Z
  000a5	83 c4 04	 add	 esp, 4
  000a8	3b f4		 cmp	 esi, esp
  000aa	e8 00 00 00 00	 call	 __RTC_CheckEsp
  000af	83 f8 ff	 cmp	 eax, -1
  000b2	75 25		 jne	 SHORT $L68007

; 328  : 
; 329  :  #if _HAS_EXCEPTIONS
; 330  : 		throw bad_cast();	// lazy disallowed

  000b4	8b f4		 mov	 esi, esp
  000b6	68 00 00 00 00	 push	 OFFSET FLAT:??_C@_08EPJLHIJG@bad?5cast?$AA@
  000bb	8d 4d c4	 lea	 ecx, DWORD PTR $T69665[ebp]
  000be	ff 15 00 00 00
	00		 call	 DWORD PTR __imp_??0bad_cast@@QAE@PBD@Z
  000c4	3b f4		 cmp	 esi, esp
  000c6	e8 00 00 00 00	 call	 __RTC_CheckEsp
  000cb	68 00 00 00 00	 push	 OFFSET FLAT:__TI2?AVbad_cast@@
  000d0	8d 4d c4	 lea	 ecx, DWORD PTR $T69665[ebp]
  000d3	51		 push	 ecx
  000d4	e8 00 00 00 00	 call	 __CxxThrowException@8
$L68007:

; 331  : 
; 332  :  #else /* _HAS_EXCEPTIONS */
; 333  : 		abort();	// lazy disallowed
; 334  :  #endif /* _HAS_EXCEPTIONS */
; 335  : 
; 336  : 	else
; 337  : 		{	// queue up lazy facet for destruction
; 338  : 		_Pf = _Psave;

  000d9	8b 55 e0	 mov	 edx, DWORD PTR __Psave$[ebp]
  000dc	89 55 d4	 mov	 DWORD PTR __Pf$[ebp], edx

; 339  : 		_Facetptr<_Facet>::_Psave = _Psave;

  000df	8b 45 e0	 mov	 eax, DWORD PTR __Psave$[ebp]
  000e2	a3 00 00 00 00	 mov	 DWORD PTR ?_Psave@?$_Facetptr@V?$ctype@_W@std@@@std@@2PBVfacet@locale@2@B, eax ; std::_Facetptr<std::ctype<wchar_t> >::_Psave

; 340  : 
; 341  : 		locale::facet *_Pfmod = (_Facet *)_Psave;

  000e7	8b 4d e0	 mov	 ecx, DWORD PTR __Psave$[ebp]
  000ea	89 4d d0	 mov	 DWORD PTR __Pfmod$68011[ebp], ecx

; 342  : 		_Pfmod->_Incref();

  000ed	8b f4		 mov	 esi, esp
  000ef	8b 4d d0	 mov	 ecx, DWORD PTR __Pfmod$68011[ebp]
  000f2	ff 15 00 00 00
	00		 call	 DWORD PTR __imp_?_Incref@facet@locale@std@@QAEXXZ
  000f8	3b f4		 cmp	 esi, esp
  000fa	e8 00 00 00 00	 call	 __RTC_CheckEsp

; 343  : 		_Pfmod->_Register();

  000ff	8b f4		 mov	 esi, esp
  00101	8b 4d d0	 mov	 ecx, DWORD PTR __Pfmod$68011[ebp]
  00104	ff 15 00 00 00
	00		 call	 DWORD PTR __imp_?_Register@facet@locale@std@@QAEXXZ
  0010a	3b f4		 cmp	 esi, esp
  0010c	e8 00 00 00 00	 call	 __RTC_CheckEsp
$L68003:

; 344  : 		}
; 345  : 
; 346  : 	return ((const _Facet&)(*_Pf));	// should be dynamic_cast

  00111	8b 55 d4	 mov	 edx, DWORD PTR __Pf$[ebp]
  00114	89 55 c0	 mov	 DWORD PTR $T69666[ebp], edx
  00117	c7 45 fc ff ff
	ff ff		 mov	 DWORD PTR __$EHRec$[ebp+8], -1
  0011e	8b f4		 mov	 esi, esp
  00120	8d 4d ec	 lea	 ecx, DWORD PTR __Lock$[ebp]
  00123	ff 15 00 00 00
	00		 call	 DWORD PTR __imp_??1_Lockit@std@@QAE@XZ
  00129	3b f4		 cmp	 esi, esp
  0012b	e8 00 00 00 00	 call	 __RTC_CheckEsp
  00130	8b 45 c0	 mov	 eax, DWORD PTR $T69666[ebp]
$L69664:

; 347  : 	}

  00133	52		 push	 edx
  00134	8b cd		 mov	 ecx, ebp
  00136	50		 push	 eax
  00137	8d 15 00 00 00
	00		 lea	 edx, DWORD PTR $L69674
  0013d	e8 00 00 00 00	 call	 @_RTC_CheckStackVars@8
  00142	58		 pop	 eax
  00143	5a		 pop	 edx
  00144	8b 4d f4	 mov	 ecx, DWORD PTR __$EHRec$[ebp]
  00147	64 89 0d 00 00
	00 00		 mov	 DWORD PTR fs:__except_list, ecx
  0014e	5f		 pop	 edi
  0014f	5e		 pop	 esi
  00150	83 c4 40	 add	 esp, 64			; 00000040H
  00153	3b ec		 cmp	 ebp, esp
  00155	e8 00 00 00 00	 call	 __RTC_CheckEsp
  0015a	8b e5		 mov	 esp, ebp
  0015c	5d		 pop	 ebp
  0015d	c3		 ret	 0
$L69674:
  0015e	02 00 00 00	 DD	 2
  00162	00 00 00 00	 DD	 $L69673
$L69673:
  00166	ec ff ff ff	 DD	 -20			; ffffffecH
  0016a	04 00 00 00	 DD	 4
  0016e	00 00 00 00	 DD	 $L69670
  00172	e0 ff ff ff	 DD	 -32			; ffffffe0H
  00176	04 00 00 00	 DD	 4
  0017a	00 00 00 00	 DD	 $L69671
$L69671:
  0017e	5f		 DB	 95			; 0000005fH
  0017f	50		 DB	 80			; 00000050H
  00180	73		 DB	 115			; 00000073H
  00181	61		 DB	 97			; 00000061H
  00182	76		 DB	 118			; 00000076H
  00183	65		 DB	 101			; 00000065H
  00184	00		 DB	 0
$L69670:
  00185	5f		 DB	 95			; 0000005fH
  00186	4c		 DB	 76			; 0000004cH
  00187	6f		 DB	 111			; 0000006fH
  00188	63		 DB	 99			; 00000063H
  00189	6b		 DB	 107			; 0000006bH
  0018a	00		 DB	 0
_TEXT	ENDS
;	COMDAT text$x
text$x	SEGMENT
$L69667:
  00000	8b f4		 mov	 esi, esp
  00002	8d 4d ec	 lea	 ecx, DWORD PTR __Lock$[ebp]
  00005	ff 15 00 00 00
	00		 call	 DWORD PTR __imp_??1_Lockit@std@@QAE@XZ
  0000b	3b f4		 cmp	 esi, esp
  0000d	e9 00 00 00 00	 jmp	 __RTC_CheckEsp
__ehhandler$??$use_facet@V?$ctype@_W@std@@@std@@YAABV?$ctype@_W@0@ABVlocale@0@@Z:
  00012	b8 00 00 00 00	 mov	 eax, OFFSET FLAT:$T69669
  00017	e9 00 00 00 00	 jmp	 ___CxxFrameHandler
text$x	ENDS
??$use_facet@V?$ctype@_W@std@@@std@@YAABV?$ctype@_W@0@ABVlocale@0@@Z ENDP ; std::use_facet<std::ctype<wchar_t> >
PUBLIC	??$getline@_WU?$char_traits@_W@std@@V?$allocator@_W@2@@std@@YAAAV?$basic_istream@_WU?$char_traits@_W@std@@@0@AAV10@AAV?$basic_string@_WU?$char_traits@_W@std@@V?$allocator@_W@2@@0@@Z ; std::getline<wchar_t,std::char_traits<wchar_t>,std::allocator<wchar_t> >
PUBLIC	??$getline@_WU?$char_traits@_W@std@@V?$allocator@_W@2@@std@@YAAAV?$basic_istream@_WU?$char_traits@_W@std@@@0@AAV10@AAV?$basic_string@_WU?$char_traits@_W@std@@V?$allocator@_W@2@@0@_W@Z ; std::getline<wchar_t,std::char_traits<wchar_t>,std::allocator<wchar_t> >
EXTRN	__imp_?widen@?$basic_ios@_WU?$char_traits@_W@std@@@std@@QBE_WD@Z:NEAR
; Function compile flags: /Odt /RTCsu
; File d:\program files (x86)\microsoft visual studio .net 2003\vc7\include\string
;	COMDAT ??$getline@_WU?$char_traits@_W@std@@V?$allocator@_W@2@@std@@YAAAV?$basic_istream@_WU?$char_traits@_W@std@@@0@AAV10@AAV?$basic_string@_WU?$char_traits@_W@std@@V?$allocator@_W@2@@0@@Z
_TEXT	SEGMENT
__Istr$ = 8						; size = 4
__Str$ = 12						; size = 4
??$getline@_WU?$char_traits@_W@std@@V?$allocator@_W@2@@std@@YAAAV?$basic_istream@_WU?$char_traits@_W@std@@@0@AAV10@AAV?$basic_string@_WU?$char_traits@_W@std@@V?$allocator@_W@2@@0@@Z PROC NEAR ; std::getline<wchar_t,std::char_traits<wchar_t>,std::allocator<wchar_t> >, COMDAT

; 528  : 	{	// get characters into string, discard newline

  00000	55		 push	 ebp
  00001	8b ec		 mov	 ebp, esp
  00003	56		 push	 esi

; 529  : 	return (getline(_Istr, _Str, _Istr.widen('\n')));

  00004	8b f4		 mov	 esi, esp
  00006	6a 0a		 push	 10			; 0000000aH
  00008	8b 45 08	 mov	 eax, DWORD PTR __Istr$[ebp]
  0000b	8b 08		 mov	 ecx, DWORD PTR [eax]
  0000d	8b 55 08	 mov	 edx, DWORD PTR __Istr$[ebp]
  00010	03 51 04	 add	 edx, DWORD PTR [ecx+4]
  00013	8b ca		 mov	 ecx, edx
  00015	ff 15 00 00 00
	00		 call	 DWORD PTR __imp_?widen@?$basic_ios@_WU?$char_traits@_W@std@@@std@@QBE_WD@Z
  0001b	3b f4		 cmp	 esi, esp
  0001d	e8 00 00 00 00	 call	 __RTC_CheckEsp
  00022	50		 push	 eax
  00023	8b 45 0c	 mov	 eax, DWORD PTR __Str$[ebp]
  00026	50		 push	 eax
  00027	8b 4d 08	 mov	 ecx, DWORD PTR __Istr$[ebp]
  0002a	51		 push	 ecx
  0002b	e8 00 00 00 00	 call	 ??$getline@_WU?$char_traits@_W@std@@V?$allocator@_W@2@@std@@YAAAV?$basic_istream@_WU?$char_traits@_W@std@@@0@AAV10@AAV?$basic_string@_WU?$char_traits@_W@std@@V?$allocator@_W@2@@0@_W@Z ; std::getline<wchar_t,std::char_traits<wchar_t>,std::allocator<wchar_t> >
  00030	83 c4 0c	 add	 esp, 12			; 0000000cH

; 530  : 	}

  00033	5e		 pop	 esi
  00034	3b ec		 cmp	 ebp, esp
  00036	e8 00 00 00 00	 call	 __RTC_CheckEsp
  0003b	5d		 pop	 ebp
  0003c	c3		 ret	 0
??$getline@_WU?$char_traits@_W@std@@V?$allocator@_W@2@@std@@YAAAV?$basic_istream@_WU?$char_traits@_W@std@@@0@AAV10@AAV?$basic_string@_WU?$char_traits@_W@std@@V?$allocator@_W@2@@0@@Z ENDP ; std::getline<wchar_t,std::char_traits<wchar_t>,std::allocator<wchar_t> >
_TEXT	ENDS
EXTRN	__imp_?to_int_type@?$char_traits@_W@std@@SAGAB_W@Z:NEAR
EXTRN	__imp_?size@?$basic_string@_WU?$char_traits@_W@std@@V?$allocator@_W@2@@std@@QBEIXZ:NEAR
EXTRN	__imp_?sbumpc@?$basic_streambuf@_WU?$char_traits@_W@std@@@std@@QAEGXZ:NEAR
;	COMDAT xdata$x
xdata$x	SEGMENT
$T69694	DD	0ffffffffH
	DD	FLAT:$L69685
	DD	00H
	DD	00H
	DD	00H
	DD	00H
$T69696	DD	00H
	DD	00H
	DD	00H
	DD	FLAT:$L69684
$T69695	DD	01H
	DD	01H
	DD	02H
	DD	01H
	DD	FLAT:$T69696
$T69687	DD	019930520H
	DD	03H
	DD	FLAT:$T69694
	DD	01H
	DD	FLAT:$T69695
	DD	2 DUP(00H)
; Function compile flags: /Odt /RTCsu
xdata$x	ENDS
;	COMDAT ??$getline@_WU?$char_traits@_W@std@@V?$allocator@_W@2@@std@@YAAAV?$basic_istream@_WU?$char_traits@_W@std@@@0@AAV10@AAV?$basic_string@_WU?$char_traits@_W@std@@V?$allocator@_W@2@@0@_W@Z
_TEXT	SEGMENT
tv175 = -110						; size = 2
tv174 = -108						; size = 4
tv173 = -104						; size = 4
tv172 = -100						; size = 4
tv171 = -94						; size = 1
tv170 = -93						; size = 1
tv169 = -92						; size = 2
tv168 = -90						; size = 2
tv167 = -88						; size = 4
tv166 = -82						; size = 2
tv165 = -80						; size = 4
tv65 = -74						; size = 2
$T69682 = -72						; size = 4
$T69681 = -66						; size = 2
__Meta$68164 = -60					; size = 2
__Metadelim$68163 = -48					; size = 2
__Ok$ = -36						; size = 8
__Changed$ = -21					; size = 1
__State$ = -20						; size = 4
__$EHRec$ = -16						; size = 16
__Istr$ = 8						; size = 4
__Str$ = 12						; size = 4
__Delim$ = 16						; size = 2
??$getline@_WU?$char_traits@_W@std@@V?$allocator@_W@2@@std@@YAAAV?$basic_istream@_WU?$char_traits@_W@std@@@0@AAV10@AAV?$basic_string@_WU?$char_traits@_W@std@@V?$allocator@_W@2@@0@_W@Z PROC NEAR ; std::getline<wchar_t,std::char_traits<wchar_t>,std::allocator<wchar_t> >, COMDAT

; 477  : 	{	// get characters into string, discard delimiter

  00000	55		 push	 ebp
  00001	8b ec		 mov	 ebp, esp
  00003	6a ff		 push	 -1
  00005	68 00 00 00 00	 push	 __ehhandler$??$getline@_WU?$char_traits@_W@std@@V?$allocator@_W@2@@std@@YAAAV?$basic_istream@_WU?$char_traits@_W@std@@@0@AAV10@AAV?$basic_string@_WU?$char_traits@_W@std@@V?$allocator@_W@2@@0@_W@Z
  0000a	64 a1 00 00 00
	00		 mov	 eax, DWORD PTR fs:__except_list
  00010	50		 push	 eax
  00011	64 89 25 00 00
	00 00		 mov	 DWORD PTR fs:__except_list, esp
  00018	51		 push	 ecx
  00019	83 ec 60	 sub	 esp, 96			; 00000060H
  0001c	53		 push	 ebx
  0001d	56		 push	 esi
  0001e	57		 push	 edi
  0001f	8d 7d 90	 lea	 edi, DWORD PTR [ebp-112]
  00022	b9 18 00 00 00	 mov	 ecx, 24			; 00000018H
  00027	b8 cc cc cc cc	 mov	 eax, -858993460		; ccccccccH
  0002c	f3 ab		 rep stosd
  0002e	89 65 f0	 mov	 DWORD PTR __$EHRec$[ebp], esp

; 478  : 	typedef basic_istream<_Elem, _Traits> _Myis;
; 479  : 	ios_base::iostate _State = ios_base::goodbit;

  00031	c7 45 ec 00 00
	00 00		 mov	 DWORD PTR __State$[ebp], 0

; 480  : 	bool _Changed = false;

  00038	c6 45 eb 00	 mov	 BYTE PTR __Changed$[ebp], 0

; 481  : 	const typename _Myis::sentry _Ok(_Istr, true);

  0003c	6a 01		 push	 1
  0003e	8b 45 08	 mov	 eax, DWORD PTR __Istr$[ebp]
  00041	50		 push	 eax
  00042	8d 4d dc	 lea	 ecx, DWORD PTR __Ok$[ebp]
  00045	e8 00 00 00 00	 call	 ??0sentry@?$basic_istream@_WU?$char_traits@_W@std@@@std@@QAE@AAV12@_N@Z ; std::basic_istream<wchar_t,std::char_traits<wchar_t> >::sentry::sentry
  0004a	c7 45 fc 00 00
	00 00		 mov	 DWORD PTR __$EHRec$[ebp+12], 0

; 482  : 
; 483  : 	if (_Ok)

  00051	8d 4d dc	 lea	 ecx, DWORD PTR __Ok$[ebp]
  00054	e8 00 00 00 00	 call	 ??Bsentry@?$basic_istream@_WU?$char_traits@_W@std@@@std@@QBE_NXZ ; std::basic_istream<wchar_t,std::char_traits<wchar_t> >::sentry::operator bool
  00059	0f b6 c8	 movzx	 ecx, al
  0005c	85 c9		 test	 ecx, ecx
  0005e	0f 84 04 02 00
	00		 je	 $L69683

; 484  : 		{	// state okay, extract characters
; 485  : 		_TRY_IO_BEGIN

  00064	c6 45 fc 01	 mov	 BYTE PTR __$EHRec$[ebp+12], 1

; 486  : 		_Str.erase();

  00068	8b f4		 mov	 esi, esp
  0006a	8b 15 00 00 00
	00		 mov	 edx, DWORD PTR __imp_?npos@?$basic_string@_WU?$char_traits@_W@std@@V?$allocator@_W@2@@std@@2IB
  00070	8b 02		 mov	 eax, DWORD PTR [edx]
  00072	50		 push	 eax
  00073	6a 00		 push	 0
  00075	8b 4d 0c	 mov	 ecx, DWORD PTR __Str$[ebp]
  00078	ff 15 00 00 00
	00		 call	 DWORD PTR __imp_?erase@?$basic_string@_WU?$char_traits@_W@std@@V?$allocator@_W@2@@std@@QAEAAV12@II@Z
  0007e	3b f4		 cmp	 esi, esp
  00080	e8 00 00 00 00	 call	 __RTC_CheckEsp

; 487  : 		const typename _Traits::int_type _Metadelim =
; 488  : 			_Traits::to_int_type(_Delim);

  00085	8b f4		 mov	 esi, esp
  00087	8d 4d 10	 lea	 ecx, DWORD PTR __Delim$[ebp]
  0008a	51		 push	 ecx
  0008b	ff 15 00 00 00
	00		 call	 DWORD PTR __imp_?to_int_type@?$char_traits@_W@std@@SAGAB_W@Z
  00091	83 c4 04	 add	 esp, 4
  00094	3b f4		 cmp	 esi, esp
  00096	e8 00 00 00 00	 call	 __RTC_CheckEsp
  0009b	66 89 45 b6	 mov	 WORD PTR tv65[ebp], ax
  0009f	66 8b 55 b6	 mov	 dx, WORD PTR tv65[ebp]
  000a3	66 89 55 d0	 mov	 WORD PTR __Metadelim$68163[ebp], dx

; 489  : 		typename _Traits::int_type _Meta = _Istr.rdbuf()->sgetc();

  000a7	8b 45 08	 mov	 eax, DWORD PTR __Istr$[ebp]
  000aa	8b 08		 mov	 ecx, DWORD PTR [eax]
  000ac	8b 55 08	 mov	 edx, DWORD PTR __Istr$[ebp]
  000af	03 51 04	 add	 edx, DWORD PTR [ecx+4]
  000b2	8b f4		 mov	 esi, esp
  000b4	8b ca		 mov	 ecx, edx
  000b6	ff 15 00 00 00
	00		 call	 DWORD PTR __imp_?rdbuf@?$basic_ios@_WU?$char_traits@_W@std@@@std@@QBEPAV?$basic_streambuf@_WU?$char_traits@_W@std@@@2@XZ
  000bc	3b f4		 cmp	 esi, esp
  000be	e8 00 00 00 00	 call	 __RTC_CheckEsp
  000c3	89 45 b0	 mov	 DWORD PTR tv165[ebp], eax
  000c6	8b f4		 mov	 esi, esp
  000c8	8b 4d b0	 mov	 ecx, DWORD PTR tv165[ebp]
  000cb	ff 15 00 00 00
	00		 call	 DWORD PTR __imp_?sgetc@?$basic_streambuf@_WU?$char_traits@_W@std@@@std@@QAEGXZ
  000d1	3b f4		 cmp	 esi, esp
  000d3	e8 00 00 00 00	 call	 __RTC_CheckEsp
  000d8	66 89 45 ae	 mov	 WORD PTR tv166[ebp], ax
  000dc	66 8b 45 ae	 mov	 ax, WORD PTR tv166[ebp]
  000e0	66 89 45 c4	 mov	 WORD PTR __Meta$68164[ebp], ax

; 490  : 
; 491  : 		for (; ; _Meta = _Istr.rdbuf()->snextc())

  000e4	eb 3b		 jmp	 SHORT $L68165
$L68166:
  000e6	8b 4d 08	 mov	 ecx, DWORD PTR __Istr$[ebp]
  000e9	8b 11		 mov	 edx, DWORD PTR [ecx]
  000eb	8b 4d 08	 mov	 ecx, DWORD PTR __Istr$[ebp]
  000ee	03 4a 04	 add	 ecx, DWORD PTR [edx+4]
  000f1	8b f4		 mov	 esi, esp
  000f3	ff 15 00 00 00
	00		 call	 DWORD PTR __imp_?rdbuf@?$basic_ios@_WU?$char_traits@_W@std@@@std@@QBEPAV?$basic_streambuf@_WU?$char_traits@_W@std@@@2@XZ
  000f9	3b f4		 cmp	 esi, esp
  000fb	e8 00 00 00 00	 call	 __RTC_CheckEsp
  00100	89 45 a8	 mov	 DWORD PTR tv167[ebp], eax
  00103	8b f4		 mov	 esi, esp
  00105	8b 4d a8	 mov	 ecx, DWORD PTR tv167[ebp]
  00108	ff 15 00 00 00
	00		 call	 DWORD PTR __imp_?snextc@?$basic_streambuf@_WU?$char_traits@_W@std@@@std@@QAEGXZ
  0010e	3b f4		 cmp	 esi, esp
  00110	e8 00 00 00 00	 call	 __RTC_CheckEsp
  00115	66 89 45 a6	 mov	 WORD PTR tv168[ebp], ax
  00119	66 8b 45 a6	 mov	 ax, WORD PTR tv168[ebp]
  0011d	66 89 45 c4	 mov	 WORD PTR __Meta$68164[ebp], ax
$L68165:

; 492  : 			if (_Traits::eq_int_type(_Traits::eof(), _Meta))

  00121	8b f4		 mov	 esi, esp
  00123	ff 15 00 00 00
	00		 call	 DWORD PTR __imp_?eof@?$char_traits@_W@std@@SAGXZ
  00129	3b f4		 cmp	 esi, esp
  0012b	e8 00 00 00 00	 call	 __RTC_CheckEsp
  00130	66 89 45 a4	 mov	 WORD PTR tv169[ebp], ax
  00134	66 8b 4d a4	 mov	 cx, WORD PTR tv169[ebp]
  00138	66 89 4d be	 mov	 WORD PTR $T69681[ebp], cx
  0013c	8b f4		 mov	 esi, esp
  0013e	8d 55 c4	 lea	 edx, DWORD PTR __Meta$68164[ebp]
  00141	52		 push	 edx
  00142	8d 45 be	 lea	 eax, DWORD PTR $T69681[ebp]
  00145	50		 push	 eax
  00146	ff 15 00 00 00
	00		 call	 DWORD PTR __imp_?eq_int_type@?$char_traits@_W@std@@SA_NABG0@Z
  0014c	83 c4 08	 add	 esp, 8
  0014f	3b f4		 cmp	 esi, esp
  00151	e8 00 00 00 00	 call	 __RTC_CheckEsp
  00156	88 45 a3	 mov	 BYTE PTR tv170[ebp], al
  00159	0f b6 4d a3	 movzx	 ecx, BYTE PTR tv170[ebp]
  0015d	85 c9		 test	 ecx, ecx
  0015f	74 0e		 je	 SHORT $L68169

; 493  : 				{	// end of file, quit
; 494  : 				_State |= ios_base::eofbit;

  00161	8b 55 ec	 mov	 edx, DWORD PTR __State$[ebp]
  00164	83 ca 01	 or	 edx, 1
  00167	89 55 ec	 mov	 DWORD PTR __State$[ebp], edx

; 495  : 				break;

  0016a	e9 d3 00 00 00	 jmp	 $L68167
$L68169:

; 496  : 				}
; 497  : 			else if (_Traits::eq_int_type(_Meta, _Metadelim))

  0016f	8b f4		 mov	 esi, esp
  00171	8d 45 d0	 lea	 eax, DWORD PTR __Metadelim$68163[ebp]
  00174	50		 push	 eax
  00175	8d 4d c4	 lea	 ecx, DWORD PTR __Meta$68164[ebp]
  00178	51		 push	 ecx
  00179	ff 15 00 00 00
	00		 call	 DWORD PTR __imp_?eq_int_type@?$char_traits@_W@std@@SA_NABG0@Z
  0017f	83 c4 08	 add	 esp, 8
  00182	3b f4		 cmp	 esi, esp
  00184	e8 00 00 00 00	 call	 __RTC_CheckEsp
  00189	88 45 a2	 mov	 BYTE PTR tv171[ebp], al
  0018c	0f b6 55 a2	 movzx	 edx, BYTE PTR tv171[ebp]
  00190	85 d2		 test	 edx, edx
  00192	74 37		 je	 SHORT $L68171

; 498  : 				{	// got a delimiter, discard it and quit
; 499  : 				_Changed = true;

  00194	c6 45 eb 01	 mov	 BYTE PTR __Changed$[ebp], 1

; 500  : 				_Istr.rdbuf()->sbumpc();

  00198	8b 45 08	 mov	 eax, DWORD PTR __Istr$[ebp]
  0019b	8b 08		 mov	 ecx, DWORD PTR [eax]
  0019d	8b 55 08	 mov	 edx, DWORD PTR __Istr$[ebp]
  001a0	03 51 04	 add	 edx, DWORD PTR [ecx+4]
  001a3	8b f4		 mov	 esi, esp
  001a5	8b ca		 mov	 ecx, edx
  001a7	ff 15 00 00 00
	00		 call	 DWORD PTR __imp_?rdbuf@?$basic_ios@_WU?$char_traits@_W@std@@@std@@QBEPAV?$basic_streambuf@_WU?$char_traits@_W@std@@@2@XZ
  001ad	3b f4		 cmp	 esi, esp
  001af	e8 00 00 00 00	 call	 __RTC_CheckEsp
  001b4	89 45 9c	 mov	 DWORD PTR tv172[ebp], eax
  001b7	8b f4		 mov	 esi, esp
  001b9	8b 4d 9c	 mov	 ecx, DWORD PTR tv172[ebp]
  001bc	ff 15 00 00 00
	00		 call	 DWORD PTR __imp_?sbumpc@?$basic_streambuf@_WU?$char_traits@_W@std@@@std@@QAEGXZ
  001c2	3b f4		 cmp	 esi, esp
  001c4	e8 00 00 00 00	 call	 __RTC_CheckEsp

; 501  : 				break;

  001c9	eb 77		 jmp	 SHORT $L68167
$L68171:

; 502  : 				}
; 503  : 			else if (_Str.max_size() <= _Str.size())

  001cb	8b f4		 mov	 esi, esp
  001cd	8b 4d 0c	 mov	 ecx, DWORD PTR __Str$[ebp]
  001d0	ff 15 00 00 00
	00		 call	 DWORD PTR __imp_?max_size@?$basic_string@_WU?$char_traits@_W@std@@V?$allocator@_W@2@@std@@QBEIXZ
  001d6	3b f4		 cmp	 esi, esp
  001d8	e8 00 00 00 00	 call	 __RTC_CheckEsp
  001dd	89 45 98	 mov	 DWORD PTR tv173[ebp], eax
  001e0	8b f4		 mov	 esi, esp
  001e2	8b 4d 0c	 mov	 ecx, DWORD PTR __Str$[ebp]
  001e5	ff 15 00 00 00
	00		 call	 DWORD PTR __imp_?size@?$basic_string@_WU?$char_traits@_W@std@@V?$allocator@_W@2@@std@@QBEIXZ
  001eb	3b f4		 cmp	 esi, esp
  001ed	e8 00 00 00 00	 call	 __RTC_CheckEsp
  001f2	89 45 94	 mov	 DWORD PTR tv174[ebp], eax
  001f5	8b 45 98	 mov	 eax, DWORD PTR tv173[ebp]
  001f8	3b 45 94	 cmp	 eax, DWORD PTR tv174[ebp]
  001fb	77 0b		 ja	 SHORT $L68173

; 504  : 				{	// string too large, quit
; 505  : 				_State |= ios_base::failbit;

  001fd	8b 4d ec	 mov	 ecx, DWORD PTR __State$[ebp]
  00200	83 c9 02	 or	 ecx, 2
  00203	89 4d ec	 mov	 DWORD PTR __State$[ebp], ecx

; 506  : 				break;

  00206	eb 3a		 jmp	 SHORT $L68167
$L68173:

; 507  : 				}
; 508  : 			else
; 509  : 				{	// got a character, add it to string
; 510  : 				_Str += _Traits::to_char_type(_Meta);

  00208	8b f4		 mov	 esi, esp
  0020a	8d 55 c4	 lea	 edx, DWORD PTR __Meta$68164[ebp]
  0020d	52		 push	 edx
  0020e	ff 15 00 00 00
	00		 call	 DWORD PTR __imp_?to_char_type@?$char_traits@_W@std@@SA_WABG@Z
  00214	83 c4 04	 add	 esp, 4
  00217	3b f4		 cmp	 esi, esp
  00219	e8 00 00 00 00	 call	 __RTC_CheckEsp
  0021e	66 89 45 92	 mov	 WORD PTR tv175[ebp], ax
  00222	8b f4		 mov	 esi, esp
  00224	66 8b 45 92	 mov	 ax, WORD PTR tv175[ebp]
  00228	50		 push	 eax
  00229	8b 4d 0c	 mov	 ecx, DWORD PTR __Str$[ebp]
  0022c	ff 15 00 00 00
	00		 call	 DWORD PTR __imp_??Y?$basic_string@_WU?$char_traits@_W@std@@V?$allocator@_W@2@@std@@QAEAAV01@_W@Z
  00232	3b f4		 cmp	 esi, esp
  00234	e8 00 00 00 00	 call	 __RTC_CheckEsp

; 511  : 				_Changed = true;

  00239	c6 45 eb 01	 mov	 BYTE PTR __Changed$[ebp], 1

; 512  : 				}

  0023d	e9 a4 fe ff ff	 jmp	 $L68166
$L68167:
  00242	eb 24		 jmp	 SHORT $L69683
$L69684:

; 513  : 		_CATCH_IO_(_Istr)

  00244	8b f4		 mov	 esi, esp
  00246	6a 01		 push	 1
  00248	6a 04		 push	 4
  0024a	8b 4d 08	 mov	 ecx, DWORD PTR __Istr$[ebp]
  0024d	8b 11		 mov	 edx, DWORD PTR [ecx]
  0024f	8b 4d 08	 mov	 ecx, DWORD PTR __Istr$[ebp]
  00252	03 4a 04	 add	 ecx, DWORD PTR [edx+4]
  00255	ff 15 00 00 00
	00		 call	 DWORD PTR __imp_?setstate@?$basic_ios@_WU?$char_traits@_W@std@@@std@@QAEXH_N@Z
  0025b	3b f4		 cmp	 esi, esp
  0025d	e8 00 00 00 00	 call	 __RTC_CheckEsp
  00262	b8 00 00 00 00	 mov	 eax, $L69683
  00267	c3		 ret	 0
$L69683:
  00268	c7 45 fc 00 00
	00 00		 mov	 DWORD PTR __$EHRec$[ebp+12], 0

; 514  : 		}
; 515  : 
; 516  : 	if (!_Changed)

  0026f	0f b6 45 eb	 movzx	 eax, BYTE PTR __Changed$[ebp]
  00273	85 c0		 test	 eax, eax
  00275	75 09		 jne	 SHORT $L68175

; 517  : 		_State |= ios_base::failbit;

  00277	8b 4d ec	 mov	 ecx, DWORD PTR __State$[ebp]
  0027a	83 c9 02	 or	 ecx, 2
  0027d	89 4d ec	 mov	 DWORD PTR __State$[ebp], ecx
$L68175:

; 518  : 	_Istr.setstate(_State);

  00280	8b f4		 mov	 esi, esp
  00282	6a 00		 push	 0
  00284	8b 55 ec	 mov	 edx, DWORD PTR __State$[ebp]
  00287	52		 push	 edx
  00288	8b 45 08	 mov	 eax, DWORD PTR __Istr$[ebp]
  0028b	8b 08		 mov	 ecx, DWORD PTR [eax]
  0028d	8b 55 08	 mov	 edx, DWORD PTR __Istr$[ebp]
  00290	03 51 04	 add	 edx, DWORD PTR [ecx+4]
  00293	8b ca		 mov	 ecx, edx
  00295	ff 15 00 00 00
	00		 call	 DWORD PTR __imp_?setstate@?$basic_ios@_WU?$char_traits@_W@std@@@std@@QAEXH_N@Z
  0029b	3b f4		 cmp	 esi, esp
  0029d	e8 00 00 00 00	 call	 __RTC_CheckEsp

; 519  : 	return (_Istr);

  002a2	8b 45 08	 mov	 eax, DWORD PTR __Istr$[ebp]
  002a5	89 45 b8	 mov	 DWORD PTR $T69682[ebp], eax
  002a8	c7 45 fc ff ff
	ff ff		 mov	 DWORD PTR __$EHRec$[ebp+12], -1
  002af	8d 4d dc	 lea	 ecx, DWORD PTR __Ok$[ebp]
  002b2	e8 00 00 00 00	 call	 ??1sentry@?$basic_istream@_WU?$char_traits@_W@std@@@std@@QAE@XZ
  002b7	8b 45 b8	 mov	 eax, DWORD PTR $T69682[ebp]

; 520  : 	}

  002ba	52		 push	 edx
  002bb	8b cd		 mov	 ecx, ebp
  002bd	50		 push	 eax
  002be	8d 15 00 00 00
	00		 lea	 edx, DWORD PTR $L69693
  002c4	e8 00 00 00 00	 call	 @_RTC_CheckStackVars@8
  002c9	58		 pop	 eax
  002ca	5a		 pop	 edx
  002cb	8b 4d f4	 mov	 ecx, DWORD PTR __$EHRec$[ebp+4]
  002ce	64 89 0d 00 00
	00 00		 mov	 DWORD PTR fs:__except_list, ecx
  002d5	5f		 pop	 edi
  002d6	5e		 pop	 esi
  002d7	5b		 pop	 ebx
  002d8	83 c4 70	 add	 esp, 112		; 00000070H
  002db	3b ec		 cmp	 ebp, esp
  002dd	e8 00 00 00 00	 call	 __RTC_CheckEsp
  002e2	8b e5		 mov	 esp, ebp
  002e4	5d		 pop	 ebp
  002e5	c3		 ret	 0
$L69693:
  002e6	03 00 00 00	 DD	 3
  002ea	00 00 00 00	 DD	 $L69692
$L69692:
  002ee	dc ff ff ff	 DD	 -36			; ffffffdcH
  002f2	08 00 00 00	 DD	 8
  002f6	00 00 00 00	 DD	 $L69688
  002fa	d0 ff ff ff	 DD	 -48			; ffffffd0H
  002fe	02 00 00 00	 DD	 2
  00302	00 00 00 00	 DD	 $L69689
  00306	c4 ff ff ff	 DD	 -60			; ffffffc4H
  0030a	02 00 00 00	 DD	 2
  0030e	00 00 00 00	 DD	 $L69690
$L69690:
  00312	5f		 DB	 95			; 0000005fH
  00313	4d		 DB	 77			; 0000004dH
  00314	65		 DB	 101			; 00000065H
  00315	74		 DB	 116			; 00000074H
  00316	61		 DB	 97			; 00000061H
  00317	00		 DB	 0
$L69689:
  00318	5f		 DB	 95			; 0000005fH
  00319	4d		 DB	 77			; 0000004dH
  0031a	65		 DB	 101			; 00000065H
  0031b	74		 DB	 116			; 00000074H
  0031c	61		 DB	 97			; 00000061H
  0031d	64		 DB	 100			; 00000064H
  0031e	65		 DB	 101			; 00000065H
  0031f	6c		 DB	 108			; 0000006cH
  00320	69		 DB	 105			; 00000069H
  00321	6d		 DB	 109			; 0000006dH
  00322	00		 DB	 0
$L69688:
  00323	5f		 DB	 95			; 0000005fH
  00324	4f		 DB	 79			; 0000004fH
  00325	6b		 DB	 107			; 0000006bH
  00326	00		 DB	 0
_TEXT	ENDS
;	COMDAT text$x
text$x	SEGMENT
$L69685:
  00000	8d 4d dc	 lea	 ecx, DWORD PTR __Ok$[ebp]
  00003	e9 00 00 00 00	 jmp	 ??1sentry@?$basic_istream@_WU?$char_traits@_W@std@@@std@@QAE@XZ
__ehhandler$??$getline@_WU?$char_traits@_W@std@@V?$allocator@_W@2@@std@@YAAAV?$basic_istream@_WU?$char_traits@_W@std@@@0@AAV10@AAV?$basic_string@_WU?$char_traits@_W@std@@V?$allocator@_W@2@@0@_W@Z:
  00008	b8 00 00 00 00	 mov	 eax, OFFSET FLAT:$T69687
  0000d	e9 00 00 00 00	 jmp	 ___CxxFrameHandler
text$x	ENDS
??$getline@_WU?$char_traits@_W@std@@V?$allocator@_W@2@@std@@YAAAV?$basic_istream@_WU?$char_traits@_W@std@@@0@AAV10@AAV?$basic_string@_WU?$char_traits@_W@std@@V?$allocator@_W@2@@0@_W@Z ENDP ; std::getline<wchar_t,std::char_traits<wchar_t>,std::allocator<wchar_t> >
PUBLIC	??$?6_WU?$char_traits@_W@std@@V?$allocator@_W@1@@std@@YAAAV?$basic_ostream@_WU?$char_traits@_W@std@@@0@AAV10@ABV?$basic_string@_WU?$char_traits@_W@std@@V?$allocator@_W@2@@0@@Z ; std::operator<<<wchar_t,std::char_traits<wchar_t>,std::allocator<wchar_t> >
PUBLIC	??0sentry@?$basic_ostream@_WU?$char_traits@_W@std@@@std@@QAE@AAV12@@Z ; std::basic_ostream<wchar_t,std::char_traits<wchar_t> >::sentry::sentry
PUBLIC	??1sentry@?$basic_ostream@_WU?$char_traits@_W@std@@@std@@QAE@XZ ; std::basic_ostream<wchar_t,std::char_traits<wchar_t> >::sentry::~sentry
PUBLIC	??Bsentry@?$basic_ostream@_WU?$char_traits@_W@std@@@std@@QBE_NXZ ; std::basic_ostream<wchar_t,std::char_traits<wchar_t> >::sentry::operator bool
EXTRN	__imp_?fill@?$basic_ios@_WU?$char_traits@_W@std@@@std@@QBE_WXZ:NEAR
EXTRN	__imp_??A?$basic_string@_WU?$char_traits@_W@std@@V?$allocator@_W@2@@std@@QBEAB_WI@Z:NEAR
EXTRN	__imp_?sputc@?$basic_streambuf@_WU?$char_traits@_W@std@@@std@@QAEG_W@Z:NEAR
;	COMDAT xdata$x
xdata$x	SEGMENT
$T69718	DD	0ffffffffH
	DD	FLAT:$L69711
	DD	00H
	DD	00H
	DD	00H
	DD	00H
$T69720	DD	00H
	DD	00H
	DD	00H
	DD	FLAT:$L69710
$T69719	DD	01H
	DD	01H
	DD	02H
	DD	01H
	DD	FLAT:$T69720
$T69713	DD	019930520H
	DD	03H
	DD	FLAT:$T69718
	DD	01H
	DD	FLAT:$T69719
	DD	2 DUP(00H)
; Function compile flags: /Odt /RTCsu
xdata$x	ENDS
;	COMDAT ??$?6_WU?$char_traits@_W@std@@V?$allocator@_W@1@@std@@YAAAV?$basic_ostream@_WU?$char_traits@_W@std@@@0@AAV10@ABV?$basic_string@_WU?$char_traits@_W@std@@V?$allocator@_W@2@@0@@Z
_TEXT	SEGMENT
tv221 = -113						; size = 1
tv220 = -112						; size = 2
tv219 = -110						; size = 2
tv218 = -108						; size = 4
tv217 = -104						; size = 2
tv216 = -101						; size = 1
tv215 = -100						; size = 2
tv214 = -98						; size = 2
tv213 = -96						; size = 4
tv212 = -92						; size = 4
tv211 = -85						; size = 1
tv210 = -84						; size = 2
tv209 = -82						; size = 2
tv208 = -80						; size = 4
tv207 = -74						; size = 2
tv83 = -72						; size = 4
tv81 = -68						; size = 4
$T69708 = -64						; size = 4
$T69707 = -60						; size = 2
$T69706 = -58						; size = 2
$T69705 = -56						; size = 2
$T69704 = -54						; size = 2
$T69703 = -52						; size = 2
$T69702 = -50						; size = 2
__Count$68198 = -48					; size = 4
__Ok$ = -40						; size = 8
__Pad$ = -28						; size = 4
__Size$ = -24						; size = 4
__State$ = -20						; size = 4
__$EHRec$ = -16						; size = 16
__Ostr$ = 8						; size = 4
__Str$ = 12						; size = 4
??$?6_WU?$char_traits@_W@std@@V?$allocator@_W@1@@std@@YAAAV?$basic_ostream@_WU?$char_traits@_W@std@@@0@AAV10@ABV?$basic_string@_WU?$char_traits@_W@std@@V?$allocator@_W@2@@0@@Z PROC NEAR ; std::operator<<<wchar_t,std::char_traits<wchar_t>,std::allocator<wchar_t> >, COMDAT

; 538  : 	{	// insert a string

  00000	55		 push	 ebp
  00001	8b ec		 mov	 ebp, esp
  00003	6a ff		 push	 -1
  00005	68 00 00 00 00	 push	 __ehhandler$??$?6_WU?$char_traits@_W@std@@V?$allocator@_W@1@@std@@YAAAV?$basic_ostream@_WU?$char_traits@_W@std@@@0@AAV10@ABV?$basic_string@_WU?$char_traits@_W@std@@V?$allocator@_W@2@@0@@Z
  0000a	64 a1 00 00 00
	00		 mov	 eax, DWORD PTR fs:__except_list
  00010	50		 push	 eax
  00011	64 89 25 00 00
	00 00		 mov	 DWORD PTR fs:__except_list, esp
  00018	51		 push	 ecx
  00019	83 ec 64	 sub	 esp, 100		; 00000064H
  0001c	53		 push	 ebx
  0001d	56		 push	 esi
  0001e	57		 push	 edi
  0001f	8d 7d 8c	 lea	 edi, DWORD PTR [ebp-116]
  00022	b9 19 00 00 00	 mov	 ecx, 25			; 00000019H
  00027	b8 cc cc cc cc	 mov	 eax, -858993460		; ccccccccH
  0002c	f3 ab		 rep stosd
  0002e	89 65 f0	 mov	 DWORD PTR __$EHRec$[ebp], esp

; 539  : 	typedef basic_ostream<_Elem, _Traits> _Myos;
; 540  : 	typedef basic_string<_Elem, _Traits, _Alloc> _Mystr;
; 541  : 	typedef typename _Mystr::size_type _Mysizt;
; 542  : 
; 543  : 	ios_base::iostate _State = ios_base::goodbit;

  00031	c7 45 ec 00 00
	00 00		 mov	 DWORD PTR __State$[ebp], 0

; 544  : 	_Mysizt _Size = _Str.size();

  00038	8b f4		 mov	 esi, esp
  0003a	8b 4d 0c	 mov	 ecx, DWORD PTR __Str$[ebp]
  0003d	ff 15 00 00 00
	00		 call	 DWORD PTR __imp_?size@?$basic_string@_WU?$char_traits@_W@std@@V?$allocator@_W@2@@std@@QBEIXZ
  00043	3b f4		 cmp	 esi, esp
  00045	e8 00 00 00 00	 call	 __RTC_CheckEsp
  0004a	89 45 e8	 mov	 DWORD PTR __Size$[ebp], eax

; 545  : 	_Mysizt _Pad = _Ostr.width() <= 0 || (_Mysizt)_Ostr.width() <= _Size
; 546  : 			? 0 : (_Mysizt)_Ostr.width() - _Size;

  0004d	8b 45 08	 mov	 eax, DWORD PTR __Ostr$[ebp]
  00050	8b 08		 mov	 ecx, DWORD PTR [eax]
  00052	8b 55 08	 mov	 edx, DWORD PTR __Ostr$[ebp]
  00055	03 51 04	 add	 edx, DWORD PTR [ecx+4]
  00058	8b f4		 mov	 esi, esp
  0005a	8b ca		 mov	 ecx, edx
  0005c	ff 15 00 00 00
	00		 call	 DWORD PTR __imp_?width@ios_base@std@@QBEHXZ
  00062	3b f4		 cmp	 esi, esp
  00064	e8 00 00 00 00	 call	 __RTC_CheckEsp
  00069	85 c0		 test	 eax, eax
  0006b	7e 45		 jle	 SHORT $L69700
  0006d	8b 45 08	 mov	 eax, DWORD PTR __Ostr$[ebp]
  00070	8b 08		 mov	 ecx, DWORD PTR [eax]
  00072	8b 55 08	 mov	 edx, DWORD PTR __Ostr$[ebp]
  00075	03 51 04	 add	 edx, DWORD PTR [ecx+4]
  00078	8b f4		 mov	 esi, esp
  0007a	8b ca		 mov	 ecx, edx
  0007c	ff 15 00 00 00
	00		 call	 DWORD PTR __imp_?width@ios_base@std@@QBEHXZ
  00082	3b f4		 cmp	 esi, esp
  00084	e8 00 00 00 00	 call	 __RTC_CheckEsp
  00089	3b 45 e8	 cmp	 eax, DWORD PTR __Size$[ebp]
  0008c	76 24		 jbe	 SHORT $L69700
  0008e	8b 45 08	 mov	 eax, DWORD PTR __Ostr$[ebp]
  00091	8b 08		 mov	 ecx, DWORD PTR [eax]
  00093	8b 55 08	 mov	 edx, DWORD PTR __Ostr$[ebp]
  00096	03 51 04	 add	 edx, DWORD PTR [ecx+4]
  00099	8b f4		 mov	 esi, esp
  0009b	8b ca		 mov	 ecx, edx
  0009d	ff 15 00 00 00
	00		 call	 DWORD PTR __imp_?width@ios_base@std@@QBEHXZ
  000a3	3b f4		 cmp	 esi, esp
  000a5	e8 00 00 00 00	 call	 __RTC_CheckEsp
  000aa	2b 45 e8	 sub	 eax, DWORD PTR __Size$[ebp]
  000ad	89 45 bc	 mov	 DWORD PTR tv81[ebp], eax
  000b0	eb 07		 jmp	 SHORT $L69701
$L69700:
  000b2	c7 45 bc 00 00
	00 00		 mov	 DWORD PTR tv81[ebp], 0
$L69701:
  000b9	8b 45 bc	 mov	 eax, DWORD PTR tv81[ebp]
  000bc	89 45 e4	 mov	 DWORD PTR __Pad$[ebp], eax

; 547  : 	const typename _Myos::sentry _Ok(_Ostr);

  000bf	8b 4d 08	 mov	 ecx, DWORD PTR __Ostr$[ebp]
  000c2	51		 push	 ecx
  000c3	8d 4d d8	 lea	 ecx, DWORD PTR __Ok$[ebp]
  000c6	e8 00 00 00 00	 call	 ??0sentry@?$basic_ostream@_WU?$char_traits@_W@std@@@std@@QAE@AAV12@@Z ; std::basic_ostream<wchar_t,std::char_traits<wchar_t> >::sentry::sentry
  000cb	c7 45 fc 00 00
	00 00		 mov	 DWORD PTR __$EHRec$[ebp+12], 0

; 548  : 
; 549  : 	if (!_Ok)

  000d2	8d 4d d8	 lea	 ecx, DWORD PTR __Ok$[ebp]
  000d5	e8 00 00 00 00	 call	 ??Bsentry@?$basic_ostream@_WU?$char_traits@_W@std@@@std@@QBE_NXZ ; std::basic_ostream<wchar_t,std::char_traits<wchar_t> >::sentry::operator bool
  000da	0f b6 d0	 movzx	 edx, al
  000dd	85 d2		 test	 edx, edx
  000df	75 0e		 jne	 SHORT $L68187

; 550  : 		_State |= ios_base::badbit;

  000e1	8b 45 ec	 mov	 eax, DWORD PTR __State$[ebp]
  000e4	83 c8 04	 or	 eax, 4
  000e7	89 45 ec	 mov	 DWORD PTR __State$[ebp], eax

; 551  : 	else

  000ea	e9 dd 02 00 00	 jmp	 $L69709
$L68187:

; 552  : 		{	// state okay, insert characters
; 553  : 	_TRY_IO_BEGIN

  000ef	c6 45 fc 01	 mov	 BYTE PTR __$EHRec$[ebp+12], 1

; 554  : 		if ((_Ostr.flags() & ios_base::adjustfield) != ios_base::left)

  000f3	8b 4d 08	 mov	 ecx, DWORD PTR __Ostr$[ebp]
  000f6	8b 11		 mov	 edx, DWORD PTR [ecx]
  000f8	8b 4d 08	 mov	 ecx, DWORD PTR __Ostr$[ebp]
  000fb	03 4a 04	 add	 ecx, DWORD PTR [edx+4]
  000fe	8b f4		 mov	 esi, esp
  00100	ff 15 00 00 00
	00		 call	 DWORD PTR __imp_?flags@ios_base@std@@QBEHXZ
  00106	3b f4		 cmp	 esi, esp
  00108	e8 00 00 00 00	 call	 __RTC_CheckEsp
  0010d	89 45 b8	 mov	 DWORD PTR tv83[ebp], eax
  00110	8b 45 b8	 mov	 eax, DWORD PTR tv83[ebp]
  00113	25 c0 01 00 00	 and	 eax, 448		; 000001c0H
  00118	83 f8 40	 cmp	 eax, 64			; 00000040H
  0011b	0f 84 c3 00 00
	00		 je	 $L68190

; 555  : 			for (; 0 < _Pad; --_Pad)	// pad on left

  00121	eb 09		 jmp	 SHORT $L68191
$L68192:
  00123	8b 4d e4	 mov	 ecx, DWORD PTR __Pad$[ebp]
  00126	83 e9 01	 sub	 ecx, 1
  00129	89 4d e4	 mov	 DWORD PTR __Pad$[ebp], ecx
$L68191:
  0012c	83 7d e4 00	 cmp	 DWORD PTR __Pad$[ebp], 0
  00130	0f 86 ae 00 00
	00		 jbe	 $L68190

; 556  : 				if (_Traits::eq_int_type(_Traits::eof(),
; 557  : 					_Ostr.rdbuf()->sputc(_Ostr.fill())))

  00136	8b 55 08	 mov	 edx, DWORD PTR __Ostr$[ebp]
  00139	8b 02		 mov	 eax, DWORD PTR [edx]
  0013b	8b 4d 08	 mov	 ecx, DWORD PTR __Ostr$[ebp]
  0013e	03 48 04	 add	 ecx, DWORD PTR [eax+4]
  00141	8b f4		 mov	 esi, esp
  00143	ff 15 00 00 00
	00		 call	 DWORD PTR __imp_?fill@?$basic_ios@_WU?$char_traits@_W@std@@@std@@QBE_WXZ
  00149	3b f4		 cmp	 esi, esp
  0014b	e8 00 00 00 00	 call	 __RTC_CheckEsp
  00150	66 89 45 b6	 mov	 WORD PTR tv207[ebp], ax
  00154	8b 4d 08	 mov	 ecx, DWORD PTR __Ostr$[ebp]
  00157	8b 11		 mov	 edx, DWORD PTR [ecx]
  00159	8b 4d 08	 mov	 ecx, DWORD PTR __Ostr$[ebp]
  0015c	03 4a 04	 add	 ecx, DWORD PTR [edx+4]
  0015f	8b f4		 mov	 esi, esp
  00161	ff 15 00 00 00
	00		 call	 DWORD PTR __imp_?rdbuf@?$basic_ios@_WU?$char_traits@_W@std@@@std@@QBEPAV?$basic_streambuf@_WU?$char_traits@_W@std@@@2@XZ
  00167	3b f4		 cmp	 esi, esp
  00169	e8 00 00 00 00	 call	 __RTC_CheckEsp
  0016e	89 45 b0	 mov	 DWORD PTR tv208[ebp], eax
  00171	8b f4		 mov	 esi, esp
  00173	66 8b 45 b6	 mov	 ax, WORD PTR tv207[ebp]
  00177	50		 push	 eax
  00178	8b 4d b0	 mov	 ecx, DWORD PTR tv208[ebp]
  0017b	ff 15 00 00 00
	00		 call	 DWORD PTR __imp_?sputc@?$basic_streambuf@_WU?$char_traits@_W@std@@@std@@QAEG_W@Z
  00181	3b f4		 cmp	 esi, esp
  00183	e8 00 00 00 00	 call	 __RTC_CheckEsp
  00188	66 89 45 ae	 mov	 WORD PTR tv209[ebp], ax
  0018c	66 8b 4d ae	 mov	 cx, WORD PTR tv209[ebp]
  00190	66 89 4d ce	 mov	 WORD PTR $T69702[ebp], cx
  00194	8b f4		 mov	 esi, esp
  00196	ff 15 00 00 00
	00		 call	 DWORD PTR __imp_?eof@?$char_traits@_W@std@@SAGXZ
  0019c	3b f4		 cmp	 esi, esp
  0019e	e8 00 00 00 00	 call	 __RTC_CheckEsp
  001a3	66 89 45 ac	 mov	 WORD PTR tv210[ebp], ax
  001a7	66 8b 55 ac	 mov	 dx, WORD PTR tv210[ebp]
  001ab	66 89 55 cc	 mov	 WORD PTR $T69703[ebp], dx
  001af	8b f4		 mov	 esi, esp
  001b1	8d 45 ce	 lea	 eax, DWORD PTR $T69702[ebp]
  001b4	50		 push	 eax
  001b5	8d 4d cc	 lea	 ecx, DWORD PTR $T69703[ebp]
  001b8	51		 push	 ecx
  001b9	ff 15 00 00 00
	00		 call	 DWORD PTR __imp_?eq_int_type@?$char_traits@_W@std@@SA_NABG0@Z
  001bf	83 c4 08	 add	 esp, 8
  001c2	3b f4		 cmp	 esi, esp
  001c4	e8 00 00 00 00	 call	 __RTC_CheckEsp
  001c9	88 45 ab	 mov	 BYTE PTR tv211[ebp], al
  001cc	0f b6 55 ab	 movzx	 edx, BYTE PTR tv211[ebp]
  001d0	85 d2		 test	 edx, edx
  001d2	74 0b		 je	 SHORT $L68196

; 558  : 					{	// insertion failed, quit
; 559  : 					_State |= ios_base::badbit;

  001d4	8b 45 ec	 mov	 eax, DWORD PTR __State$[ebp]
  001d7	83 c8 04	 or	 eax, 4
  001da	89 45 ec	 mov	 DWORD PTR __State$[ebp], eax

; 560  : 					break;

  001dd	eb 05		 jmp	 SHORT $L68190
$L68196:

; 561  : 					}
; 562  : 
; 563  : 		if (_State == ios_base::goodbit)

  001df	e9 3f ff ff ff	 jmp	 $L68192
$L68190:
  001e4	83 7d ec 00	 cmp	 DWORD PTR __State$[ebp], 0
  001e8	0f 85 c9 00 00
	00		 jne	 $L68197

; 564  : 			for (_Mysizt _Count = 0; _Count < _Size; ++_Count)

  001ee	c7 45 d0 00 00
	00 00		 mov	 DWORD PTR __Count$68198[ebp], 0
  001f5	eb 09		 jmp	 SHORT $L68199
$L68200:
  001f7	8b 4d d0	 mov	 ecx, DWORD PTR __Count$68198[ebp]
  001fa	83 c1 01	 add	 ecx, 1
  001fd	89 4d d0	 mov	 DWORD PTR __Count$68198[ebp], ecx
$L68199:
  00200	8b 55 d0	 mov	 edx, DWORD PTR __Count$68198[ebp]
  00203	3b 55 e8	 cmp	 edx, DWORD PTR __Size$[ebp]
  00206	0f 83 ab 00 00
	00		 jae	 $L68197

; 565  : 				if (_Traits::eq_int_type(_Traits::eof(),
; 566  : 					_Ostr.rdbuf()->sputc(_Str[_Count])))

  0020c	8b f4		 mov	 esi, esp
  0020e	8b 45 d0	 mov	 eax, DWORD PTR __Count$68198[ebp]
  00211	50		 push	 eax
  00212	8b 4d 0c	 mov	 ecx, DWORD PTR __Str$[ebp]
  00215	ff 15 00 00 00
	00		 call	 DWORD PTR __imp_??A?$basic_string@_WU?$char_traits@_W@std@@V?$allocator@_W@2@@std@@QBEAB_WI@Z
  0021b	3b f4		 cmp	 esi, esp
  0021d	e8 00 00 00 00	 call	 __RTC_CheckEsp
  00222	89 45 a4	 mov	 DWORD PTR tv212[ebp], eax
  00225	8b 4d 08	 mov	 ecx, DWORD PTR __Ostr$[ebp]
  00228	8b 11		 mov	 edx, DWORD PTR [ecx]
  0022a	8b 4d 08	 mov	 ecx, DWORD PTR __Ostr$[ebp]
  0022d	03 4a 04	 add	 ecx, DWORD PTR [edx+4]
  00230	8b f4		 mov	 esi, esp
  00232	ff 15 00 00 00
	00		 call	 DWORD PTR __imp_?rdbuf@?$basic_ios@_WU?$char_traits@_W@std@@@std@@QBEPAV?$basic_streambuf@_WU?$char_traits@_W@std@@@2@XZ
  00238	3b f4		 cmp	 esi, esp
  0023a	e8 00 00 00 00	 call	 __RTC_CheckEsp
  0023f	89 45 a0	 mov	 DWORD PTR tv213[ebp], eax
  00242	8b f4		 mov	 esi, esp
  00244	8b 45 a4	 mov	 eax, DWORD PTR tv212[ebp]
  00247	66 8b 08	 mov	 cx, WORD PTR [eax]
  0024a	51		 push	 ecx
  0024b	8b 4d a0	 mov	 ecx, DWORD PTR tv213[ebp]
  0024e	ff 15 00 00 00
	00		 call	 DWORD PTR __imp_?sputc@?$basic_streambuf@_WU?$char_traits@_W@std@@@std@@QAEG_W@Z
  00254	3b f4		 cmp	 esi, esp
  00256	e8 00 00 00 00	 call	 __RTC_CheckEsp
  0025b	66 89 45 9e	 mov	 WORD PTR tv214[ebp], ax
  0025f	66 8b 55 9e	 mov	 dx, WORD PTR tv214[ebp]
  00263	66 89 55 ca	 mov	 WORD PTR $T69704[ebp], dx
  00267	8b f4		 mov	 esi, esp
  00269	ff 15 00 00 00
	00		 call	 DWORD PTR __imp_?eof@?$char_traits@_W@std@@SAGXZ
  0026f	3b f4		 cmp	 esi, esp
  00271	e8 00 00 00 00	 call	 __RTC_CheckEsp
  00276	66 89 45 9c	 mov	 WORD PTR tv215[ebp], ax
  0027a	66 8b 45 9c	 mov	 ax, WORD PTR tv215[ebp]
  0027e	66 89 45 c8	 mov	 WORD PTR $T69705[ebp], ax
  00282	8b f4		 mov	 esi, esp
  00284	8d 4d ca	 lea	 ecx, DWORD PTR $T69704[ebp]
  00287	51		 push	 ecx
  00288	8d 55 c8	 lea	 edx, DWORD PTR $T69705[ebp]
  0028b	52		 push	 edx
  0028c	ff 15 00 00 00
	00		 call	 DWORD PTR __imp_?eq_int_type@?$char_traits@_W@std@@SA_NABG0@Z
  00292	83 c4 08	 add	 esp, 8
  00295	3b f4		 cmp	 esi, esp
  00297	e8 00 00 00 00	 call	 __RTC_CheckEsp
  0029c	88 45 9b	 mov	 BYTE PTR tv216[ebp], al
  0029f	0f b6 45 9b	 movzx	 eax, BYTE PTR tv216[ebp]
  002a3	85 c0		 test	 eax, eax
  002a5	74 0b		 je	 SHORT $L68204

; 567  : 					{	// insertion failed, quit
; 568  : 					_State |= ios_base::badbit;

  002a7	8b 4d ec	 mov	 ecx, DWORD PTR __State$[ebp]
  002aa	83 c9 04	 or	 ecx, 4
  002ad	89 4d ec	 mov	 DWORD PTR __State$[ebp], ecx

; 569  : 					break;

  002b0	eb 05		 jmp	 SHORT $L68197
$L68204:

; 570  : 					}
; 571  : 
; 572  : 		if (_State == ios_base::goodbit)

  002b2	e9 40 ff ff ff	 jmp	 $L68200
$L68197:
  002b7	83 7d ec 00	 cmp	 DWORD PTR __State$[ebp], 0
  002bb	0f 85 c7 00 00
	00		 jne	 $L68205

; 573  : 			for (; 0 < _Pad; --_Pad)	// pad on right

  002c1	eb 09		 jmp	 SHORT $L68206
$L68207:
  002c3	8b 55 e4	 mov	 edx, DWORD PTR __Pad$[ebp]
  002c6	83 ea 01	 sub	 edx, 1
  002c9	89 55 e4	 mov	 DWORD PTR __Pad$[ebp], edx
$L68206:
  002cc	83 7d e4 00	 cmp	 DWORD PTR __Pad$[ebp], 0
  002d0	0f 86 b2 00 00
	00		 jbe	 $L68205

; 574  : 				if (_Traits::eq_int_type(_Traits::eof(),
; 575  : 					_Ostr.rdbuf()->sputc(_Ostr.fill())))

  002d6	8b 45 08	 mov	 eax, DWORD PTR __Ostr$[ebp]
  002d9	8b 08		 mov	 ecx, DWORD PTR [eax]
  002db	8b 55 08	 mov	 edx, DWORD PTR __Ostr$[ebp]
  002de	03 51 04	 add	 edx, DWORD PTR [ecx+4]
  002e1	8b f4		 mov	 esi, esp
  002e3	8b ca		 mov	 ecx, edx
  002e5	ff 15 00 00 00
	00		 call	 DWORD PTR __imp_?fill@?$basic_ios@_WU?$char_traits@_W@std@@@std@@QBE_WXZ
  002eb	3b f4		 cmp	 esi, esp
  002ed	e8 00 00 00 00	 call	 __RTC_CheckEsp
  002f2	66 89 45 98	 mov	 WORD PTR tv217[ebp], ax
  002f6	8b 45 08	 mov	 eax, DWORD PTR __Ostr$[ebp]
  002f9	8b 08		 mov	 ecx, DWORD PTR [eax]
  002fb	8b 55 08	 mov	 edx, DWORD PTR __Ostr$[ebp]
  002fe	03 51 04	 add	 edx, DWORD PTR [ecx+4]
  00301	8b f4		 mov	 esi, esp
  00303	8b ca		 mov	 ecx, edx
  00305	ff 15 00 00 00
	00		 call	 DWORD PTR __imp_?rdbuf@?$basic_ios@_WU?$char_traits@_W@std@@@std@@QBEPAV?$basic_streambuf@_WU?$char_traits@_W@std@@@2@XZ
  0030b	3b f4		 cmp	 esi, esp
  0030d	e8 00 00 00 00	 call	 __RTC_CheckEsp
  00312	89 45 94	 mov	 DWORD PTR tv218[ebp], eax
  00315	8b f4		 mov	 esi, esp
  00317	66 8b 45 98	 mov	 ax, WORD PTR tv217[ebp]
  0031b	50		 push	 eax
  0031c	8b 4d 94	 mov	 ecx, DWORD PTR tv218[ebp]
  0031f	ff 15 00 00 00
	00		 call	 DWORD PTR __imp_?sputc@?$basic_streambuf@_WU?$char_traits@_W@std@@@std@@QAEG_W@Z
  00325	3b f4		 cmp	 esi, esp
  00327	e8 00 00 00 00	 call	 __RTC_CheckEsp
  0032c	66 89 45 92	 mov	 WORD PTR tv219[ebp], ax
  00330	66 8b 4d 92	 mov	 cx, WORD PTR tv219[ebp]
  00334	66 89 4d c6	 mov	 WORD PTR $T69706[ebp], cx
  00338	8b f4		 mov	 esi, esp
  0033a	ff 15 00 00 00
	00		 call	 DWORD PTR __imp_?eof@?$char_traits@_W@std@@SAGXZ
  00340	3b f4		 cmp	 esi, esp
  00342	e8 00 00 00 00	 call	 __RTC_CheckEsp
  00347	66 89 45 90	 mov	 WORD PTR tv220[ebp], ax
  0034b	66 8b 55 90	 mov	 dx, WORD PTR tv220[ebp]
  0034f	66 89 55 c4	 mov	 WORD PTR $T69707[ebp], dx
  00353	8b f4		 mov	 esi, esp
  00355	8d 45 c6	 lea	 eax, DWORD PTR $T69706[ebp]
  00358	50		 push	 eax
  00359	8d 4d c4	 lea	 ecx, DWORD PTR $T69707[ebp]
  0035c	51		 push	 ecx
  0035d	ff 15 00 00 00
	00		 call	 DWORD PTR __imp_?eq_int_type@?$char_traits@_W@std@@SA_NABG0@Z
  00363	83 c4 08	 add	 esp, 8
  00366	3b f4		 cmp	 esi, esp
  00368	e8 00 00 00 00	 call	 __RTC_CheckEsp
  0036d	88 45 8f	 mov	 BYTE PTR tv221[ebp], al
  00370	0f b6 55 8f	 movzx	 edx, BYTE PTR tv221[ebp]
  00374	85 d2		 test	 edx, edx
  00376	74 0b		 je	 SHORT $L68211

; 576  : 					{	// insertion failed, quit
; 577  : 					_State |= ios_base::badbit;

  00378	8b 45 ec	 mov	 eax, DWORD PTR __State$[ebp]
  0037b	83 c8 04	 or	 eax, 4
  0037e	89 45 ec	 mov	 DWORD PTR __State$[ebp], eax

; 578  : 					break;

  00381	eb 05		 jmp	 SHORT $L68205
$L68211:

; 579  : 					}
; 580  : 		_Ostr.width(0);

  00383	e9 3b ff ff ff	 jmp	 $L68207
$L68205:
  00388	8b f4		 mov	 esi, esp
  0038a	6a 00		 push	 0
  0038c	8b 4d 08	 mov	 ecx, DWORD PTR __Ostr$[ebp]
  0038f	8b 11		 mov	 edx, DWORD PTR [ecx]
  00391	8b 4d 08	 mov	 ecx, DWORD PTR __Ostr$[ebp]
  00394	03 4a 04	 add	 ecx, DWORD PTR [edx+4]
  00397	ff 15 00 00 00
	00		 call	 DWORD PTR __imp_?width@ios_base@std@@QAEHH@Z
  0039d	3b f4		 cmp	 esi, esp
  0039f	e8 00 00 00 00	 call	 __RTC_CheckEsp
  003a4	eb 26		 jmp	 SHORT $L69709
$L69710:

; 581  : 		_CATCH_IO_(_Ostr)

  003a6	8b f4		 mov	 esi, esp
  003a8	6a 01		 push	 1
  003aa	6a 04		 push	 4
  003ac	8b 45 08	 mov	 eax, DWORD PTR __Ostr$[ebp]
  003af	8b 08		 mov	 ecx, DWORD PTR [eax]
  003b1	8b 55 08	 mov	 edx, DWORD PTR __Ostr$[ebp]
  003b4	03 51 04	 add	 edx, DWORD PTR [ecx+4]
  003b7	8b ca		 mov	 ecx, edx
  003b9	ff 15 00 00 00
	00		 call	 DWORD PTR __imp_?setstate@?$basic_ios@_WU?$char_traits@_W@std@@@std@@QAEXH_N@Z
  003bf	3b f4		 cmp	 esi, esp
  003c1	e8 00 00 00 00	 call	 __RTC_CheckEsp
  003c6	b8 00 00 00 00	 mov	 eax, $L69709
  003cb	c3		 ret	 0
$L69709:
  003cc	c7 45 fc 00 00
	00 00		 mov	 DWORD PTR __$EHRec$[ebp+12], 0

; 582  : 		}
; 583  : 
; 584  : 	_Ostr.setstate(_State);

  003d3	8b f4		 mov	 esi, esp
  003d5	6a 00		 push	 0
  003d7	8b 45 ec	 mov	 eax, DWORD PTR __State$[ebp]
  003da	50		 push	 eax
  003db	8b 4d 08	 mov	 ecx, DWORD PTR __Ostr$[ebp]
  003de	8b 11		 mov	 edx, DWORD PTR [ecx]
  003e0	8b 4d 08	 mov	 ecx, DWORD PTR __Ostr$[ebp]
  003e3	03 4a 04	 add	 ecx, DWORD PTR [edx+4]
  003e6	ff 15 00 00 00
	00		 call	 DWORD PTR __imp_?setstate@?$basic_ios@_WU?$char_traits@_W@std@@@std@@QAEXH_N@Z
  003ec	3b f4		 cmp	 esi, esp
  003ee	e8 00 00 00 00	 call	 __RTC_CheckEsp

; 585  : 	return (_Ostr);

  003f3	8b 45 08	 mov	 eax, DWORD PTR __Ostr$[ebp]
  003f6	89 45 c0	 mov	 DWORD PTR $T69708[ebp], eax
  003f9	c7 45 fc ff ff
	ff ff		 mov	 DWORD PTR __$EHRec$[ebp+12], -1
  00400	8d 4d d8	 lea	 ecx, DWORD PTR __Ok$[ebp]
  00403	e8 00 00 00 00	 call	 ??1sentry@?$basic_ostream@_WU?$char_traits@_W@std@@@std@@QAE@XZ ; std::basic_ostream<wchar_t,std::char_traits<wchar_t> >::sentry::~sentry
  00408	8b 45 c0	 mov	 eax, DWORD PTR $T69708[ebp]

; 586  : 	}

  0040b	52		 push	 edx
  0040c	8b cd		 mov	 ecx, ebp
  0040e	50		 push	 eax
  0040f	8d 15 00 00 00
	00		 lea	 edx, DWORD PTR $L69717
  00415	e8 00 00 00 00	 call	 @_RTC_CheckStackVars@8
  0041a	58		 pop	 eax
  0041b	5a		 pop	 edx
  0041c	8b 4d f4	 mov	 ecx, DWORD PTR __$EHRec$[ebp+4]
  0041f	64 89 0d 00 00
	00 00		 mov	 DWORD PTR fs:__except_list, ecx
  00426	5f		 pop	 edi
  00427	5e		 pop	 esi
  00428	5b		 pop	 ebx
  00429	83 c4 74	 add	 esp, 116		; 00000074H
  0042c	3b ec		 cmp	 ebp, esp
  0042e	e8 00 00 00 00	 call	 __RTC_CheckEsp
  00433	8b e5		 mov	 esp, ebp
  00435	5d		 pop	 ebp
  00436	c3		 ret	 0
$L69717:
  00437	01 00 00 00	 DD	 1
  0043b	00 00 00 00	 DD	 $L69716
$L69716:
  0043f	d8 ff ff ff	 DD	 -40			; ffffffd8H
  00443	08 00 00 00	 DD	 8
  00447	00 00 00 00	 DD	 $L69714
$L69714:
  0044b	5f		 DB	 95			; 0000005fH
  0044c	4f		 DB	 79			; 0000004fH
  0044d	6b		 DB	 107			; 0000006bH
  0044e	00		 DB	 0
_TEXT	ENDS
;	COMDAT text$x
text$x	SEGMENT
$L69711:
  00000	8d 4d d8	 lea	 ecx, DWORD PTR __Ok$[ebp]
  00003	e9 00 00 00 00	 jmp	 ??1sentry@?$basic_ostream@_WU?$char_traits@_W@std@@@std@@QAE@XZ ; std::basic_ostream<wchar_t,std::char_traits<wchar_t> >::sentry::~sentry
__ehhandler$??$?6_WU?$char_traits@_W@std@@V?$allocator@_W@1@@std@@YAAAV?$basic_ostream@_WU?$char_traits@_W@std@@@0@AAV10@ABV?$basic_string@_WU?$char_traits@_W@std@@V?$allocator@_W@2@@0@@Z:
  00008	b8 00 00 00 00	 mov	 eax, OFFSET FLAT:$T69713
  0000d	e9 00 00 00 00	 jmp	 ___CxxFrameHandler
text$x	ENDS
??$?6_WU?$char_traits@_W@std@@V?$allocator@_W@1@@std@@YAAAV?$basic_ostream@_WU?$char_traits@_W@std@@@0@AAV10@ABV?$basic_string@_WU?$char_traits@_W@std@@V?$allocator@_W@2@@0@@Z ENDP ; std::operator<<<wchar_t,std::char_traits<wchar_t>,std::allocator<wchar_t> >
PUBLIC	??0_Sentry_base@?$basic_ostream@_WU?$char_traits@_W@std@@@std@@QAE@AAV12@@Z ; std::basic_ostream<wchar_t,std::char_traits<wchar_t> >::_Sentry_base::_Sentry_base
PUBLIC	??1_Sentry_base@?$basic_ostream@_WU?$char_traits@_W@std@@@std@@QAE@XZ ; std::basic_ostream<wchar_t,std::char_traits<wchar_t> >::_Sentry_base::~_Sentry_base
EXTRN	__imp_?tie@?$basic_ios@_WU?$char_traits@_W@std@@@std@@QBEPAV?$basic_ostream@_WU?$char_traits@_W@std@@@2@XZ:NEAR
EXTRN	__imp_?flush@?$basic_ostream@_WU?$char_traits@_W@std@@@std@@QAEAAV12@XZ:NEAR
;	COMDAT xdata$x
; File d:\program files (x86)\microsoft visual studio .net 2003\vc7\include\ostream
xdata$x	SEGMENT
$T69728	DD	0ffffffffH
	DD	FLAT:$L69724
$T69726	DD	019930520H
	DD	01H
	DD	FLAT:$T69728
	DD	2 DUP(00H)
	DD	2 DUP(00H)
; Function compile flags: /Odt /RTCsu
xdata$x	ENDS
;	COMDAT ??0sentry@?$basic_ostream@_WU?$char_traits@_W@std@@@std@@QAE@AAV12@@Z
_TEXT	SEGMENT
_this$ = -16						; size = 4
__$EHRec$ = -12						; size = 12
__Ostr$ = 8						; size = 4
??0sentry@?$basic_ostream@_WU?$char_traits@_W@std@@@std@@QAE@AAV12@@Z PROC NEAR ; std::basic_ostream<wchar_t,std::char_traits<wchar_t> >::sentry::sentry, COMDAT
; _this$ = ecx

; 88   : 			{	// construct locking and testing stream

  00000	55		 push	 ebp
  00001	8b ec		 mov	 ebp, esp
  00003	6a ff		 push	 -1
  00005	68 00 00 00 00	 push	 __ehhandler$??0sentry@?$basic_ostream@_WU?$char_traits@_W@std@@@std@@QAE@AAV12@@Z
  0000a	64 a1 00 00 00
	00		 mov	 eax, DWORD PTR fs:__except_list
  00010	50		 push	 eax
  00011	64 89 25 00 00
	00 00		 mov	 DWORD PTR fs:__except_list, esp
  00018	51		 push	 ecx
  00019	56		 push	 esi
  0001a	c7 45 f0 cc cc
	cc cc		 mov	 DWORD PTR [ebp-16], -858993460 ; ccccccccH
  00021	89 4d f0	 mov	 DWORD PTR _this$[ebp], ecx
  00024	8b 45 08	 mov	 eax, DWORD PTR __Ostr$[ebp]
  00027	50		 push	 eax
  00028	8b 4d f0	 mov	 ecx, DWORD PTR _this$[ebp]
  0002b	e8 00 00 00 00	 call	 ??0_Sentry_base@?$basic_ostream@_WU?$char_traits@_W@std@@@std@@QAE@AAV12@@Z ; std::basic_ostream<wchar_t,std::char_traits<wchar_t> >::_Sentry_base::_Sentry_base
  00030	c7 45 fc 00 00
	00 00		 mov	 DWORD PTR __$EHRec$[ebp+8], 0

; 89   : 			if (_Ostr.good() && _Ostr.tie() != 0)

  00037	8b 4d 08	 mov	 ecx, DWORD PTR __Ostr$[ebp]
  0003a	8b 11		 mov	 edx, DWORD PTR [ecx]
  0003c	8b 4d 08	 mov	 ecx, DWORD PTR __Ostr$[ebp]
  0003f	03 4a 04	 add	 ecx, DWORD PTR [edx+4]
  00042	8b f4		 mov	 esi, esp
  00044	ff 15 00 00 00
	00		 call	 DWORD PTR __imp_?good@ios_base@std@@QBE_NXZ
  0004a	3b f4		 cmp	 esi, esp
  0004c	e8 00 00 00 00	 call	 __RTC_CheckEsp
  00051	0f b6 c0	 movzx	 eax, al
  00054	85 c0		 test	 eax, eax
  00056	74 4b		 je	 SHORT $L67431
  00058	8b 4d 08	 mov	 ecx, DWORD PTR __Ostr$[ebp]
  0005b	8b 11		 mov	 edx, DWORD PTR [ecx]
  0005d	8b 4d 08	 mov	 ecx, DWORD PTR __Ostr$[ebp]
  00060	03 4a 04	 add	 ecx, DWORD PTR [edx+4]
  00063	8b f4		 mov	 esi, esp
  00065	ff 15 00 00 00
	00		 call	 DWORD PTR __imp_?tie@?$basic_ios@_WU?$char_traits@_W@std@@@std@@QBEPAV?$basic_ostream@_WU?$char_traits@_W@std@@@2@XZ
  0006b	3b f4		 cmp	 esi, esp
  0006d	e8 00 00 00 00	 call	 __RTC_CheckEsp
  00072	85 c0		 test	 eax, eax
  00074	74 2d		 je	 SHORT $L67431

; 90   : 				_Ostr.tie()->flush();

  00076	8b 45 08	 mov	 eax, DWORD PTR __Ostr$[ebp]
  00079	8b 08		 mov	 ecx, DWORD PTR [eax]
  0007b	8b 55 08	 mov	 edx, DWORD PTR __Ostr$[ebp]
  0007e	03 51 04	 add	 edx, DWORD PTR [ecx+4]
  00081	8b f4		 mov	 esi, esp
  00083	8b ca		 mov	 ecx, edx
  00085	ff 15 00 00 00
	00		 call	 DWORD PTR __imp_?tie@?$basic_ios@_WU?$char_traits@_W@std@@@std@@QBEPAV?$basic_ostream@_WU?$char_traits@_W@std@@@2@XZ
  0008b	3b f4		 cmp	 esi, esp
  0008d	e8 00 00 00 00	 call	 __RTC_CheckEsp
  00092	8b f4		 mov	 esi, esp
  00094	8b c8		 mov	 ecx, eax
  00096	ff 15 00 00 00
	00		 call	 DWORD PTR __imp_?flush@?$basic_ostream@_WU?$char_traits@_W@std@@@std@@QAEAAV12@XZ
  0009c	3b f4		 cmp	 esi, esp
  0009e	e8 00 00 00 00	 call	 __RTC_CheckEsp
$L67431:

; 91   : 			_Ok = _Ostr.good();	// store test only after flushing tie

  000a3	8b 45 08	 mov	 eax, DWORD PTR __Ostr$[ebp]
  000a6	8b 08		 mov	 ecx, DWORD PTR [eax]
  000a8	8b 55 08	 mov	 edx, DWORD PTR __Ostr$[ebp]
  000ab	03 51 04	 add	 edx, DWORD PTR [ecx+4]
  000ae	8b f4		 mov	 esi, esp
  000b0	8b ca		 mov	 ecx, edx
  000b2	ff 15 00 00 00
	00		 call	 DWORD PTR __imp_?good@ios_base@std@@QBE_NXZ
  000b8	3b f4		 cmp	 esi, esp
  000ba	e8 00 00 00 00	 call	 __RTC_CheckEsp
  000bf	8b 4d f0	 mov	 ecx, DWORD PTR _this$[ebp]
  000c2	88 41 04	 mov	 BYTE PTR [ecx+4], al

; 92   : 			}

  000c5	c7 45 fc ff ff
	ff ff		 mov	 DWORD PTR __$EHRec$[ebp+8], -1
  000cc	8b 45 f0	 mov	 eax, DWORD PTR _this$[ebp]
  000cf	8b 4d f4	 mov	 ecx, DWORD PTR __$EHRec$[ebp]
  000d2	64 89 0d 00 00
	00 00		 mov	 DWORD PTR fs:__except_list, ecx
  000d9	5e		 pop	 esi
  000da	83 c4 10	 add	 esp, 16			; 00000010H
  000dd	3b ec		 cmp	 ebp, esp
  000df	e8 00 00 00 00	 call	 __RTC_CheckEsp
  000e4	8b e5		 mov	 esp, ebp
  000e6	5d		 pop	 ebp
  000e7	c2 04 00	 ret	 4
_TEXT	ENDS
;	COMDAT text$x
text$x	SEGMENT
$L69724:
  00000	8b 4d f0	 mov	 ecx, DWORD PTR _this$[ebp]
  00003	e9 00 00 00 00	 jmp	 ??1_Sentry_base@?$basic_ostream@_WU?$char_traits@_W@std@@@std@@QAE@XZ ; std::basic_ostream<wchar_t,std::char_traits<wchar_t> >::_Sentry_base::~_Sentry_base
__ehhandler$??0sentry@?$basic_ostream@_WU?$char_traits@_W@std@@@std@@QAE@AAV12@@Z:
  00008	b8 00 00 00 00	 mov	 eax, OFFSET FLAT:$T69726
  0000d	e9 00 00 00 00	 jmp	 ___CxxFrameHandler
text$x	ENDS
??0sentry@?$basic_ostream@_WU?$char_traits@_W@std@@@std@@QAE@AAV12@@Z ENDP ; std::basic_ostream<wchar_t,std::char_traits<wchar_t> >::sentry::sentry
EXTRN	__imp_?_Osfx@?$basic_ostream@_WU?$char_traits@_W@std@@@std@@QAEXXZ:NEAR
;	COMDAT xdata$x
xdata$x	SEGMENT
$T69736	DD	0ffffffffH
	DD	FLAT:$L69732
$T69734	DD	019930520H
	DD	01H
	DD	FLAT:$T69736
	DD	2 DUP(00H)
	DD	2 DUP(00H)
; Function compile flags: /Odt /RTCsu
xdata$x	ENDS
;	COMDAT ??1sentry@?$basic_ostream@_WU?$char_traits@_W@std@@@std@@QAE@XZ
_TEXT	SEGMENT
_this$ = -16						; size = 4
__$EHRec$ = -12						; size = 12
??1sentry@?$basic_ostream@_WU?$char_traits@_W@std@@@std@@QAE@XZ PROC NEAR ; std::basic_ostream<wchar_t,std::char_traits<wchar_t> >::sentry::~sentry, COMDAT
; _this$ = ecx

; 95   : 			{	// destroy the object

  00000	55		 push	 ebp
  00001	8b ec		 mov	 ebp, esp
  00003	6a ff		 push	 -1
  00005	68 00 00 00 00	 push	 __ehhandler$??1sentry@?$basic_ostream@_WU?$char_traits@_W@std@@@std@@QAE@XZ
  0000a	64 a1 00 00 00
	00		 mov	 eax, DWORD PTR fs:__except_list
  00010	50		 push	 eax
  00011	64 89 25 00 00
	00 00		 mov	 DWORD PTR fs:__except_list, esp
  00018	51		 push	 ecx
  00019	56		 push	 esi
  0001a	c7 45 f0 cc cc
	cc cc		 mov	 DWORD PTR [ebp-16], -858993460 ; ccccccccH
  00021	89 4d f0	 mov	 DWORD PTR _this$[ebp], ecx
  00024	c7 45 fc 00 00
	00 00		 mov	 DWORD PTR __$EHRec$[ebp+8], 0

; 96   : 
; 97   :  #if _HAS_EXCEPTIONS
; 98   : 			if (!uncaught_exception())

  0002b	8b f4		 mov	 esi, esp
  0002d	ff 15 00 00 00
	00		 call	 DWORD PTR __imp_?uncaught_exception@std@@YA_NXZ
  00033	3b f4		 cmp	 esi, esp
  00035	e8 00 00 00 00	 call	 __RTC_CheckEsp
  0003a	0f b6 c0	 movzx	 eax, al
  0003d	85 c0		 test	 eax, eax
  0003f	75 14		 jne	 SHORT $L67433

; 99   : 				this->_Myostr._Osfx();

  00041	8b 4d f0	 mov	 ecx, DWORD PTR _this$[ebp]
  00044	8b 09		 mov	 ecx, DWORD PTR [ecx]
  00046	8b f4		 mov	 esi, esp
  00048	ff 15 00 00 00
	00		 call	 DWORD PTR __imp_?_Osfx@?$basic_ostream@_WU?$char_traits@_W@std@@@std@@QAEXXZ
  0004e	3b f4		 cmp	 esi, esp
  00050	e8 00 00 00 00	 call	 __RTC_CheckEsp
$L67433:

; 100  : 			}

  00055	c7 45 fc ff ff
	ff ff		 mov	 DWORD PTR __$EHRec$[ebp+8], -1
  0005c	8b 4d f0	 mov	 ecx, DWORD PTR _this$[ebp]
  0005f	e8 00 00 00 00	 call	 ??1_Sentry_base@?$basic_ostream@_WU?$char_traits@_W@std@@@std@@QAE@XZ ; std::basic_ostream<wchar_t,std::char_traits<wchar_t> >::_Sentry_base::~_Sentry_base
  00064	8b 4d f4	 mov	 ecx, DWORD PTR __$EHRec$[ebp]
  00067	64 89 0d 00 00
	00 00		 mov	 DWORD PTR fs:__except_list, ecx
  0006e	5e		 pop	 esi
  0006f	83 c4 10	 add	 esp, 16			; 00000010H
  00072	3b ec		 cmp	 ebp, esp
  00074	e8 00 00 00 00	 call	 __RTC_CheckEsp
  00079	8b e5		 mov	 esp, ebp
  0007b	5d		 pop	 ebp
  0007c	c3		 ret	 0
_TEXT	ENDS
;	COMDAT text$x
text$x	SEGMENT
$L69732:
  00000	8b 4d f0	 mov	 ecx, DWORD PTR _this$[ebp]
  00003	e9 00 00 00 00	 jmp	 ??1_Sentry_base@?$basic_ostream@_WU?$char_traits@_W@std@@@std@@QAE@XZ ; std::basic_ostream<wchar_t,std::char_traits<wchar_t> >::_Sentry_base::~_Sentry_base
__ehhandler$??1sentry@?$basic_ostream@_WU?$char_traits@_W@std@@@std@@QAE@XZ:
  00008	b8 00 00 00 00	 mov	 eax, OFFSET FLAT:$T69734
  0000d	e9 00 00 00 00	 jmp	 ___CxxFrameHandler
text$x	ENDS
??1sentry@?$basic_ostream@_WU?$char_traits@_W@std@@@std@@QAE@XZ ENDP ; std::basic_ostream<wchar_t,std::char_traits<wchar_t> >::sentry::~sentry
; Function compile flags: /Odt /RTCsu
;	COMDAT ??Bsentry@?$basic_ostream@_WU?$char_traits@_W@std@@@std@@QBE_NXZ
_TEXT	SEGMENT
_this$ = -4						; size = 4
??Bsentry@?$basic_ostream@_WU?$char_traits@_W@std@@@std@@QBE_NXZ PROC NEAR ; std::basic_ostream<wchar_t,std::char_traits<wchar_t> >::sentry::operator bool, COMDAT
; _this$ = ecx

; 108  : 			{	// test if stream state okay

  00000	55		 push	 ebp
  00001	8b ec		 mov	 ebp, esp
  00003	51		 push	 ecx
  00004	c7 45 fc cc cc
	cc cc		 mov	 DWORD PTR [ebp-4], -858993460 ; ccccccccH
  0000b	89 4d fc	 mov	 DWORD PTR _this$[ebp], ecx

; 109  : 			return (_Ok);

  0000e	8b 45 fc	 mov	 eax, DWORD PTR _this$[ebp]
  00011	8a 40 04	 mov	 al, BYTE PTR [eax+4]

; 110  : 			}

  00014	8b e5		 mov	 esp, ebp
  00016	5d		 pop	 ebp
  00017	c3		 ret	 0
??Bsentry@?$basic_ostream@_WU?$char_traits@_W@std@@@std@@QBE_NXZ ENDP ; std::basic_ostream<wchar_t,std::char_traits<wchar_t> >::sentry::operator bool
; Function compile flags: /Odt /RTCsu
_TEXT	ENDS
;	COMDAT ??0_Sentry_base@?$basic_ostream@_WU?$char_traits@_W@std@@@std@@QAE@AAV12@@Z
_TEXT	SEGMENT
_this$ = -4						; size = 4
__Ostr$ = 8						; size = 4
??0_Sentry_base@?$basic_ostream@_WU?$char_traits@_W@std@@@std@@QAE@AAV12@@Z PROC NEAR ; std::basic_ostream<wchar_t,std::char_traits<wchar_t> >::_Sentry_base::_Sentry_base, COMDAT
; _this$ = ecx

; 68   : 			{	// lock the stream buffer, if there

  00000	55		 push	 ebp
  00001	8b ec		 mov	 ebp, esp
  00003	51		 push	 ecx
  00004	56		 push	 esi
  00005	c7 45 fc cc cc
	cc cc		 mov	 DWORD PTR [ebp-4], -858993460 ; ccccccccH
  0000c	89 4d fc	 mov	 DWORD PTR _this$[ebp], ecx
  0000f	8b 45 fc	 mov	 eax, DWORD PTR _this$[ebp]
  00012	8b 4d 08	 mov	 ecx, DWORD PTR __Ostr$[ebp]
  00015	89 08		 mov	 DWORD PTR [eax], ecx

; 69   : 			if (_Myostr.rdbuf() != 0)

  00017	8b 55 fc	 mov	 edx, DWORD PTR _this$[ebp]
  0001a	8b 02		 mov	 eax, DWORD PTR [edx]
  0001c	8b 08		 mov	 ecx, DWORD PTR [eax]
  0001e	8b 55 fc	 mov	 edx, DWORD PTR _this$[ebp]
  00021	8b 02		 mov	 eax, DWORD PTR [edx]
  00023	03 41 04	 add	 eax, DWORD PTR [ecx+4]
  00026	8b f4		 mov	 esi, esp
  00028	8b c8		 mov	 ecx, eax
  0002a	ff 15 00 00 00
	00		 call	 DWORD PTR __imp_?rdbuf@?$basic_ios@_WU?$char_traits@_W@std@@@std@@QBEPAV?$basic_streambuf@_WU?$char_traits@_W@std@@@2@XZ
  00030	3b f4		 cmp	 esi, esp
  00032	e8 00 00 00 00	 call	 __RTC_CheckEsp
  00037	85 c0		 test	 eax, eax
  00039	74 2f		 je	 SHORT $L67694

; 70   : 				_Myostr.rdbuf()->_Lock();

  0003b	8b 4d fc	 mov	 ecx, DWORD PTR _this$[ebp]
  0003e	8b 11		 mov	 edx, DWORD PTR [ecx]
  00040	8b 02		 mov	 eax, DWORD PTR [edx]
  00042	8b 4d fc	 mov	 ecx, DWORD PTR _this$[ebp]
  00045	8b 09		 mov	 ecx, DWORD PTR [ecx]
  00047	03 48 04	 add	 ecx, DWORD PTR [eax+4]
  0004a	8b f4		 mov	 esi, esp
  0004c	ff 15 00 00 00
	00		 call	 DWORD PTR __imp_?rdbuf@?$basic_ios@_WU?$char_traits@_W@std@@@std@@QBEPAV?$basic_streambuf@_WU?$char_traits@_W@std@@@2@XZ
  00052	3b f4		 cmp	 esi, esp
  00054	e8 00 00 00 00	 call	 __RTC_CheckEsp
  00059	8b f4		 mov	 esi, esp
  0005b	8b c8		 mov	 ecx, eax
  0005d	ff 15 00 00 00
	00		 call	 DWORD PTR __imp_?_Lock@?$basic_streambuf@_WU?$char_traits@_W@std@@@std@@QAEXXZ
  00063	3b f4		 cmp	 esi, esp
  00065	e8 00 00 00 00	 call	 __RTC_CheckEsp
$L67694:

; 71   : 			}

  0006a	8b 45 fc	 mov	 eax, DWORD PTR _this$[ebp]
  0006d	5e		 pop	 esi
  0006e	83 c4 04	 add	 esp, 4
  00071	3b ec		 cmp	 ebp, esp
  00073	e8 00 00 00 00	 call	 __RTC_CheckEsp
  00078	8b e5		 mov	 esp, ebp
  0007a	5d		 pop	 ebp
  0007b	c2 04 00	 ret	 4
??0_Sentry_base@?$basic_ostream@_WU?$char_traits@_W@std@@@std@@QAE@AAV12@@Z ENDP ; std::basic_ostream<wchar_t,std::char_traits<wchar_t> >::_Sentry_base::_Sentry_base
; Function compile flags: /Odt /RTCsu
_TEXT	ENDS
;	COMDAT ??1_Sentry_base@?$basic_ostream@_WU?$char_traits@_W@std@@@std@@QAE@XZ
_TEXT	SEGMENT
_this$ = -4						; size = 4
??1_Sentry_base@?$basic_ostream@_WU?$char_traits@_W@std@@@std@@QAE@XZ PROC NEAR ; std::basic_ostream<wchar_t,std::char_traits<wchar_t> >::_Sentry_base::~_Sentry_base, COMDAT
; _this$ = ecx

; 74   : 			{	// destroy after unlocking

  00000	55		 push	 ebp
  00001	8b ec		 mov	 ebp, esp
  00003	51		 push	 ecx
  00004	56		 push	 esi
  00005	c7 45 fc cc cc
	cc cc		 mov	 DWORD PTR [ebp-4], -858993460 ; ccccccccH
  0000c	89 4d fc	 mov	 DWORD PTR _this$[ebp], ecx

; 75   : 			if (_Myostr.rdbuf() != 0)

  0000f	8b 45 fc	 mov	 eax, DWORD PTR _this$[ebp]
  00012	8b 08		 mov	 ecx, DWORD PTR [eax]
  00014	8b 11		 mov	 edx, DWORD PTR [ecx]
  00016	8b 45 fc	 mov	 eax, DWORD PTR _this$[ebp]
  00019	8b 08		 mov	 ecx, DWORD PTR [eax]
  0001b	03 4a 04	 add	 ecx, DWORD PTR [edx+4]
  0001e	8b f4		 mov	 esi, esp
  00020	ff 15 00 00 00
	00		 call	 DWORD PTR __imp_?rdbuf@?$basic_ios@_WU?$char_traits@_W@std@@@std@@QBEPAV?$basic_streambuf@_WU?$char_traits@_W@std@@@2@XZ
  00026	3b f4		 cmp	 esi, esp
  00028	e8 00 00 00 00	 call	 __RTC_CheckEsp
  0002d	85 c0		 test	 eax, eax
  0002f	74 2f		 je	 SHORT $L67697

; 76   : 				_Myostr.rdbuf()->_Unlock();

  00031	8b 4d fc	 mov	 ecx, DWORD PTR _this$[ebp]
  00034	8b 11		 mov	 edx, DWORD PTR [ecx]
  00036	8b 02		 mov	 eax, DWORD PTR [edx]
  00038	8b 4d fc	 mov	 ecx, DWORD PTR _this$[ebp]
  0003b	8b 09		 mov	 ecx, DWORD PTR [ecx]
  0003d	03 48 04	 add	 ecx, DWORD PTR [eax+4]
  00040	8b f4		 mov	 esi, esp
  00042	ff 15 00 00 00
	00		 call	 DWORD PTR __imp_?rdbuf@?$basic_ios@_WU?$char_traits@_W@std@@@std@@QBEPAV?$basic_streambuf@_WU?$char_traits@_W@std@@@2@XZ
  00048	3b f4		 cmp	 esi, esp
  0004a	e8 00 00 00 00	 call	 __RTC_CheckEsp
  0004f	8b f4		 mov	 esi, esp
  00051	8b c8		 mov	 ecx, eax
  00053	ff 15 00 00 00
	00		 call	 DWORD PTR __imp_?_Unlock@?$basic_streambuf@_WU?$char_traits@_W@std@@@std@@QAEXXZ
  00059	3b f4		 cmp	 esi, esp
  0005b	e8 00 00 00 00	 call	 __RTC_CheckEsp
$L67697:

; 77   : 			}

  00060	5e		 pop	 esi
  00061	83 c4 04	 add	 esp, 4
  00064	3b ec		 cmp	 ebp, esp
  00066	e8 00 00 00 00	 call	 __RTC_CheckEsp
  0006b	8b e5		 mov	 esp, ebp
  0006d	5d		 pop	 ebp
  0006e	c3		 ret	 0
??1_Sentry_base@?$basic_ostream@_WU?$char_traits@_W@std@@@std@@QAE@XZ ENDP ; std::basic_ostream<wchar_t,std::char_traits<wchar_t> >::_Sentry_base::~_Sentry_base
_TEXT	ENDS
END
