; Listing generated by Microsoft (R) Optimizing Compiler Version 13.10.3077 

	TITLE	.\src\Gui\CommonControl\AdInfoWnd.cpp
	.386P
include listing.inc
if @Version gt 510
.model FLAT
else
_TEXT	SEGMENT PARA USE32 PUBLIC 'CODE'
_TEXT	ENDS
_DATA	SEGMENT DWORD USE32 PUBLIC 'DATA'
_DATA	ENDS
CONST	SEGMENT DWORD USE32 PUBLIC 'CONST'
CONST	ENDS
_BSS	SEGMENT DWORD USE32 PUBLIC 'BSS'
_BSS	ENDS
$$SYMBOLS	SEGMENT BYTE USE32 'DEBSYM'
$$SYMBOLS	ENDS
$$TYPES	SEGMENT BYTE USE32 'DEBTYP'
$$TYPES	ENDS
_TLS	SEGMENT DWORD USE32 PUBLIC 'TLS'
_TLS	ENDS
rdata$r	SEGMENT DWORD USE32 PUBLIC 'CONST'
rdata$r	ENDS
xdata$x	SEGMENT DWORD USE32 PUBLIC 'CONST'
xdata$x	ENDS
text$AFX_COL1	SEGMENT PARA USE32 PUBLIC ''
text$AFX_COL1	ENDS
text$yc	SEGMENT PARA USE32 PUBLIC 'CODE'
text$yc	ENDS
CRT$XCA	SEGMENT DWORD USE32 PUBLIC 'DATA'
CRT$XCA	ENDS
CRT$XCU	SEGMENT DWORD USE32 PUBLIC 'DATA'
CRT$XCU	ENDS
CRT$XCL	SEGMENT DWORD USE32 PUBLIC 'DATA'
CRT$XCL	ENDS
CRT$XCC	SEGMENT DWORD USE32 PUBLIC 'DATA'
CRT$XCC	ENDS
CRT$XCZ	SEGMENT DWORD USE32 PUBLIC 'DATA'
CRT$XCZ	ENDS
text$yd	SEGMENT PARA USE32 PUBLIC 'CODE'
text$yd	ENDS
ATL$__m	SEGMENT DWORD USE32 PUBLIC ''
ATL$__m	ENDS
ATL$__z	SEGMENT DWORD USE32 PUBLIC ''
ATL$__z	ENDS
ATL$__a	SEGMENT DWORD USE32 PUBLIC ''
ATL$__a	ENDS
;	COMDAT ??1CAdInfoWnd@@UAE@XZ
_TEXT	SEGMENT PARA USE32 PUBLIC 'CODE'
_TEXT	ENDS
;	COMDAT ?GetClsid@CAdInfoWnd@@QAEABU_GUID@@XZ
_TEXT	SEGMENT PARA USE32 PUBLIC 'CODE'
_TEXT	ENDS
;	COMDAT ?Create@CAdInfoWnd@@UAEHPBD0KABUtagRECT@@PAVCWnd@@IPAUCCreateContext@@@Z
_TEXT	SEGMENT PARA USE32 PUBLIC 'CODE'
_TEXT	ENDS
;	COMDAT ??_GCAdInfoWnd@@UAEPAXI@Z
_TEXT	SEGMENT PARA USE32 PUBLIC 'CODE'
_TEXT	ENDS
;	COMDAT ??B?$CComPtrBase@UITypeInfo2@@@ATL@@QBEPAUITypeInfo2@@XZ
_TEXT	SEGMENT PARA USE32 PUBLIC 'CODE'
_TEXT	ENDS
;	COMDAT ?equal@?$istreambuf_iterator@DU?$char_traits@D@std@@@std@@QBE_NABV12@@Z
_TEXT	SEGMENT PARA USE32 PUBLIC 'CODE'
_TEXT	ENDS
;	COMDAT ?equal@?$istreambuf_iterator@_WU?$char_traits@_W@std@@@std@@QBE_NABV12@@Z
_TEXT	SEGMENT PARA USE32 PUBLIC 'CODE'
_TEXT	ENDS
;	COMDAT ?Unlock@?$CComCritSecLock@VCComCriticalSection@ATL@@@ATL@@QAEXXZ
_TEXT	SEGMENT PARA USE32 PUBLIC 'CODE'
_TEXT	ENDS
;	COMDAT ??$_Maklocstr@D@std@@YAPADPBDPADABU_Cvtvec@@@Z
_TEXT	SEGMENT PARA USE32 PUBLIC 'CODE'
_TEXT	ENDS
;	COMDAT ??_R3CAdInfoWnd@@8
rdata$r	SEGMENT DWORD USE32 PUBLIC 'CONST'
rdata$r	ENDS
;	COMDAT ??_R3?$numpunct@_W@std@@8
rdata$r	SEGMENT DWORD USE32 PUBLIC 'CONST'
rdata$r	ENDS
;	COMDAT ??_R3?$numpunct@D@std@@8
rdata$r	SEGMENT DWORD USE32 PUBLIC 'CONST'
rdata$r	ENDS
;	COMDAT ??_R2CAdInfoWnd@@8
rdata$r	SEGMENT DWORD USE32 PUBLIC 'CONST'
rdata$r	ENDS
;	COMDAT ??_R2?$numpunct@_W@std@@8
rdata$r	SEGMENT DWORD USE32 PUBLIC 'CONST'
rdata$r	ENDS
;	COMDAT ??_R2?$numpunct@D@std@@8
rdata$r	SEGMENT DWORD USE32 PUBLIC 'CONST'
rdata$r	ENDS
;	COMDAT ??_R1A@?0A@A@CObject@@8
rdata$r	SEGMENT DWORD USE32 PUBLIC 'CONST'
rdata$r	ENDS
;	COMDAT ??_R0?AVCObject@@@8
_DATA	SEGMENT DWORD USE32 PUBLIC 'DATA'
_DATA	ENDS
;	COMDAT ??_R1A@?0A@A@CCmdTarget@@8
rdata$r	SEGMENT DWORD USE32 PUBLIC 'CONST'
rdata$r	ENDS
;	COMDAT ??_R0?AVCCmdTarget@@@8
_DATA	SEGMENT DWORD USE32 PUBLIC 'DATA'
_DATA	ENDS
;	COMDAT ??_R1A@?0A@A@CWnd@@8
rdata$r	SEGMENT DWORD USE32 PUBLIC 'CONST'
rdata$r	ENDS
;	COMDAT ??_R0?AVCWnd@@@8
_DATA	SEGMENT DWORD USE32 PUBLIC 'DATA'
_DATA	ENDS
;	COMDAT ??_R1A@?0A@A@CAdInfoWnd@@8
rdata$r	SEGMENT DWORD USE32 PUBLIC 'CONST'
rdata$r	ENDS
;	COMDAT ??_R1A@?0A@A@?$numpunct@_W@std@@8
rdata$r	SEGMENT DWORD USE32 PUBLIC 'CONST'
rdata$r	ENDS
;	COMDAT ??_R1A@?0A@A@facet@locale@std@@8
rdata$r	SEGMENT DWORD USE32 PUBLIC 'CONST'
rdata$r	ENDS
;	COMDAT ??_R0?AVfacet@locale@std@@@8
_DATA	SEGMENT DWORD USE32 PUBLIC 'DATA'
_DATA	ENDS
;	COMDAT ??_R1A@?0A@A@?$numpunct@D@std@@8
rdata$r	SEGMENT DWORD USE32 PUBLIC 'CONST'
rdata$r	ENDS
;	COMDAT ??_R0?AVCAdInfoWnd@@@8
_DATA	SEGMENT DWORD USE32 PUBLIC 'DATA'
_DATA	ENDS
;	COMDAT ??_R0?AV?$numpunct@_W@std@@@8
_DATA	SEGMENT DWORD USE32 PUBLIC 'DATA'
_DATA	ENDS
;	COMDAT ??_R0?AV?$numpunct@D@std@@@8
_DATA	SEGMENT DWORD USE32 PUBLIC 'DATA'
_DATA	ENDS
;	COMDAT ?EndModalState@CWnd@@UAEXXZ
_TEXT	SEGMENT PARA USE32 PUBLIC 'CODE'
_TEXT	ENDS
;	COMDAT ?BeginModalState@CWnd@@UAEXXZ
_TEXT	SEGMENT PARA USE32 PUBLIC 'CODE'
_TEXT	ENDS
;	COMDAT ?DoDataExchange@CWnd@@MAEXPAVCDataExchange@@@Z
_TEXT	SEGMENT PARA USE32 PUBLIC 'CODE'
_TEXT	ENDS
;	COMDAT ?Dump@CObject@@UBEXAAVCDumpContext@@@Z
_TEXT	SEGMENT PARA USE32 PUBLIC 'CODE'
_TEXT	ENDS
;	COMDAT ?AssertValid@CObject@@UBEXXZ
_TEXT	SEGMENT PARA USE32 PUBLIC 'CODE'
_TEXT	ENDS
;	COMDAT ?Serialize@CObject@@UAEXAAVCArchive@@@Z
_TEXT	SEGMENT PARA USE32 PUBLIC 'CODE'
_TEXT	ENDS
;	COMDAT ??_R4CAdInfoWnd@@6B@
rdata$r	SEGMENT DWORD USE32 PUBLIC 'CONST'
rdata$r	ENDS
;	COMDAT ??0?$allocator@_W@std@@QAE@XZ
_TEXT	SEGMENT PARA USE32 PUBLIC 'CODE'
_TEXT	ENDS
;	COMDAT ??0?$allocator@D@std@@QAE@ABV01@@Z
_TEXT	SEGMENT PARA USE32 PUBLIC 'CODE'
_TEXT	ENDS
;	COMDAT ??0?$allocator@D@std@@QAE@XZ
_TEXT	SEGMENT PARA USE32 PUBLIC 'CODE'
_TEXT	ENDS
;	COMDAT ?deallocate@?$allocator@D@std@@QAEXPADI@Z
_TEXT	SEGMENT PARA USE32 PUBLIC 'CODE'
_TEXT	ENDS
;	COMDAT ?max_size@?$allocator@D@std@@QBEIXZ
_TEXT	SEGMENT PARA USE32 PUBLIC 'CODE'
_TEXT	ENDS
;	COMDAT ?allocate@?$allocator@D@std@@QAEPADI@Z
_TEXT	SEGMENT PARA USE32 PUBLIC 'CODE'
_TEXT	ENDS
;	COMDAT ??$_Allocate@D@std@@YAPADIPAD@Z
_TEXT	SEGMENT PARA USE32 PUBLIC 'CODE'
_TEXT	ENDS
;	COMDAT ??_G?$numpunct@_W@std@@MAEPAXI@Z
_TEXT	SEGMENT PARA USE32 PUBLIC 'CODE'
_TEXT	ENDS
;	COMDAT ??_R4?$numpunct@_W@std@@6B@
rdata$r	SEGMENT DWORD USE32 PUBLIC 'CONST'
rdata$r	ENDS
;	COMDAT ??_G?$numpunct@D@std@@MAEPAXI@Z
_TEXT	SEGMENT PARA USE32 PUBLIC 'CODE'
_TEXT	ENDS
;	COMDAT ??_R4?$numpunct@D@std@@6B@
rdata$r	SEGMENT DWORD USE32 PUBLIC 'CONST'
rdata$r	ENDS
;	COMDAT ?_Psave@?$_Facetptr@V?$numpunct@_W@std@@@std@@2PBVfacet@locale@2@B
_DATA	SEGMENT DWORD USE32 PUBLIC 'DATA'
_DATA	ENDS
;	COMDAT ?_Psave@?$_Facetptr@V?$numpunct@D@std@@@std@@2PBVfacet@locale@2@B
_DATA	SEGMENT DWORD USE32 PUBLIC 'DATA'
_DATA	ENDS
;	COMDAT ?Unlock@CComCriticalSection@ATL@@QAEJXZ
_TEXT	SEGMENT PARA USE32 PUBLIC 'CODE'
_TEXT	ENDS
;	COMDAT ?_Psave@?$_Facetptr@V?$ctype@_W@std@@@std@@2PBVfacet@locale@2@B
_DATA	SEGMENT DWORD USE32 PUBLIC 'DATA'
_DATA	ENDS
;	COMDAT ?_Psave@?$_Facetptr@V?$ctype@D@std@@@std@@2PBVfacet@locale@2@B
_DATA	SEGMENT DWORD USE32 PUBLIC 'DATA'
_DATA	ENDS
;	COMDAT ??$_Maklocchr@_W@std@@YA_WDPA_WABU_Cvtvec@@@Z
_TEXT	SEGMENT PARA USE32 PUBLIC 'CODE'
_TEXT	ENDS
;	COMDAT ??$_Maklocstr@_W@std@@YAPA_WPBDPA_WABU_Cvtvec@@@Z
_TEXT	SEGMENT PARA USE32 PUBLIC 'CODE'
_TEXT	ENDS
;	COMDAT ??$_Maklocchr@D@std@@YADDPADABU_Cvtvec@@@Z
_TEXT	SEGMENT PARA USE32 PUBLIC 'CODE'
_TEXT	ENDS
;	COMDAT ??_C@_04LOAJBDKD@true?$AA@
CONST	SEGMENT DWORD USE32 PUBLIC 'CONST'
CONST	ENDS
;	COMDAT ??_C@_05LAPONLG@false?$AA@
CONST	SEGMENT DWORD USE32 PUBLIC 'CONST'
CONST	ENDS
;	COMDAT _wmemcpy
_TEXT	SEGMENT PARA USE32 PUBLIC 'CODE'
_TEXT	ENDS
;	COMDAT ?max_size@?$allocator@_W@std@@QBEIXZ
_TEXT	SEGMENT PARA USE32 PUBLIC 'CODE'
_TEXT	ENDS
;	COMDAT ?allocate@?$allocator@_W@std@@QAEPA_WI@Z
_TEXT	SEGMENT PARA USE32 PUBLIC 'CODE'
_TEXT	ENDS
;	COMDAT ??$_Allocate@_W@std@@YAPA_WIPA_W@Z
_TEXT	SEGMENT PARA USE32 PUBLIC 'CODE'
_TEXT	ENDS
;	COMDAT ??_C@_01GFHCPBMG@C?$AA@
CONST	SEGMENT DWORD USE32 PUBLIC 'CONST'
CONST	ENDS
;	COMDAT ?_Peek@?$istreambuf_iterator@_WU?$char_traits@_W@std@@@std@@AAE_WXZ
_TEXT	SEGMENT PARA USE32 PUBLIC 'CODE'
_TEXT	ENDS
;	COMDAT ?_Peek@?$istreambuf_iterator@DU?$char_traits@D@std@@@std@@AAEDXZ
_TEXT	SEGMENT PARA USE32 PUBLIC 'CODE'
_TEXT	ENDS
;	COMDAT ??$use_facet@V?$ctype@_W@std@@@std@@YAABV?$ctype@_W@0@ABVlocale@0@@Z
_TEXT	SEGMENT PARA USE32 PUBLIC 'CODE'
_TEXT	ENDS
;	COMDAT ??_S?$ctype@_W@std@@6B@
CONST	SEGMENT DWORD USE32 PUBLIC 'CONST'
CONST	ENDS
;	COMDAT ??_R4?$ctype@_W@std@@6B@
rdata$r	SEGMENT DWORD USE32 PUBLIC 'CONST'
rdata$r	ENDS
;	COMDAT ??_R0?AV?$ctype@_W@std@@@8
_DATA	SEGMENT DWORD USE32 PUBLIC 'DATA'
_DATA	ENDS
;	COMDAT ??_R3?$ctype@_W@std@@8
rdata$r	SEGMENT DWORD USE32 PUBLIC 'CONST'
rdata$r	ENDS
;	COMDAT ??_R2?$ctype@_W@std@@8
rdata$r	SEGMENT DWORD USE32 PUBLIC 'CONST'
rdata$r	ENDS
;	COMDAT ??_R1A@?0A@A@?$ctype@_W@std@@8
rdata$r	SEGMENT DWORD USE32 PUBLIC 'CONST'
rdata$r	ENDS
;	COMDAT ??_R1A@?0A@A@ctype_base@std@@8
rdata$r	SEGMENT DWORD USE32 PUBLIC 'CONST'
rdata$r	ENDS
;	COMDAT ??_R0?AUctype_base@std@@@8
_DATA	SEGMENT DWORD USE32 PUBLIC 'DATA'
_DATA	ENDS
;	COMDAT ??_G?$ctype@_W@std@@MAEPAXI@Z
_TEXT	SEGMENT PARA USE32 PUBLIC 'CODE'
_TEXT	ENDS
;	COMDAT ??_C@_08EPJLHIJG@bad?5cast?$AA@
CONST	SEGMENT DWORD USE32 PUBLIC 'CONST'
CONST	ENDS
;	COMDAT __TI2?AVbad_cast@@
xdata$x	SEGMENT DWORD USE32 PUBLIC 'CONST'
xdata$x	ENDS
;	COMDAT __CTA2?AVbad_cast@@
xdata$x	SEGMENT DWORD USE32 PUBLIC 'CONST'
xdata$x	ENDS
;	COMDAT __CT??_R0?AVbad_cast@@@8??0bad_cast@@QAE@ABV0@@Z12
xdata$x	SEGMENT DWORD USE32 PUBLIC 'CONST'
xdata$x	ENDS
;	COMDAT ??_R0?AVbad_cast@@@8
_DATA	SEGMENT DWORD USE32 PUBLIC 'DATA'
_DATA	ENDS
;	COMDAT __CT??_R0?AVexception@@@8??0exception@@QAE@ABV0@@Z12
xdata$x	SEGMENT DWORD USE32 PUBLIC 'CONST'
xdata$x	ENDS
;	COMDAT ??_R0?AVexception@@@8
_DATA	SEGMENT DWORD USE32 PUBLIC 'DATA'
_DATA	ENDS
;	COMDAT ??$use_facet@V?$ctype@D@std@@@std@@YAABV?$ctype@D@0@ABVlocale@0@@Z
_TEXT	SEGMENT PARA USE32 PUBLIC 'CODE'
_TEXT	ENDS
;	COMDAT ??_S?$ctype@D@std@@6B@
CONST	SEGMENT DWORD USE32 PUBLIC 'CONST'
CONST	ENDS
;	COMDAT ??_R4?$ctype@D@std@@6B@
rdata$r	SEGMENT DWORD USE32 PUBLIC 'CONST'
rdata$r	ENDS
;	COMDAT ??_R0?AV?$ctype@D@std@@@8
_DATA	SEGMENT DWORD USE32 PUBLIC 'DATA'
_DATA	ENDS
;	COMDAT ??_R3?$ctype@D@std@@8
rdata$r	SEGMENT DWORD USE32 PUBLIC 'CONST'
rdata$r	ENDS
;	COMDAT ??_R2?$ctype@D@std@@8
rdata$r	SEGMENT DWORD USE32 PUBLIC 'CONST'
rdata$r	ENDS
;	COMDAT ??_R1A@?0A@A@?$ctype@D@std@@8
rdata$r	SEGMENT DWORD USE32 PUBLIC 'CONST'
rdata$r	ENDS
;	COMDAT ??_G?$ctype@D@std@@MAEPAXI@Z
_TEXT	SEGMENT PARA USE32 PUBLIC 'CODE'
_TEXT	ENDS
;	COMDAT ??_S?$numpunct@_W@std@@6B@
CONST	SEGMENT DWORD USE32 PUBLIC 'CONST'
CONST	ENDS
;	COMDAT ??_S?$numpunct@D@std@@6B@
CONST	SEGMENT DWORD USE32 PUBLIC 'CONST'
CONST	ENDS
;	COMDAT _wmemmove
_TEXT	SEGMENT PARA USE32 PUBLIC 'CODE'
_TEXT	ENDS
;	COMDAT ?deallocate@?$allocator@_W@std@@QAEXPA_WI@Z
_TEXT	SEGMENT PARA USE32 PUBLIC 'CODE'
_TEXT	ENDS
;	COMDAT ??0?$allocator@_W@std@@QAE@ABV01@@Z
_TEXT	SEGMENT PARA USE32 PUBLIC 'CODE'
_TEXT	ENDS
;	COMDAT ?_messageEntries@CAdInfoWnd@@0QBUAFX_MSGMAP_ENTRY@@B
CONST	SEGMENT DWORD USE32 PUBLIC 'CONST'
CONST	ENDS
;	COMDAT ?messageMap@CAdInfoWnd@@1UAFX_MSGMAP@@B
CONST	SEGMENT DWORD USE32 PUBLIC 'CONST'
CONST	ENDS
;	COMDAT ?classCAdInfoWnd@CAdInfoWnd@@2UCRuntimeClass@@B
CONST	SEGMENT DWORD USE32 PUBLIC 'CONST'
CONST	ENDS
;	COMDAT ??3CObject@@SGXPAX@Z
_TEXT	SEGMENT PARA USE32 PUBLIC 'CODE'
_TEXT	ENDS
;	COMDAT ?parms@?1??put_Resizable@CAdInfoWnd@@QAEXH@Z@4PAEA
_DATA	SEGMENT DWORD USE32 PUBLIC 'DATA'
_DATA	ENDS
;	COMDAT ?parms@?1??put_AddressBar@CAdInfoWnd@@QAEXH@Z@4PAEA
_DATA	SEGMENT DWORD USE32 PUBLIC 'DATA'
_DATA	ENDS
;	COMDAT ?parms@?1??put_TheaterMode@CAdInfoWnd@@QAEXH@Z@4PAEA
_DATA	SEGMENT DWORD USE32 PUBLIC 'DATA'
_DATA	ENDS
;	COMDAT ?parms@?1??put_RegisterAsDropTarget@CAdInfoWnd@@QAEXH@Z@4PAEA
_DATA	SEGMENT DWORD USE32 PUBLIC 'DATA'
_DATA	ENDS
;	COMDAT ?parms@?1??put_RegisterAsBrowser@CAdInfoWnd@@QAEXH@Z@4PAEA
_DATA	SEGMENT DWORD USE32 PUBLIC 'DATA'
_DATA	ENDS
;	COMDAT ?parms@?1??put_Silent@CAdInfoWnd@@QAEXH@Z@4PAEA
_DATA	SEGMENT DWORD USE32 PUBLIC 'DATA'
_DATA	ENDS
;	COMDAT ?parms@?1??put_Offline@CAdInfoWnd@@QAEXH@Z@4PAEA
_DATA	SEGMENT DWORD USE32 PUBLIC 'DATA'
_DATA	ENDS
;	COMDAT ?parms@?1??ShowBrowserBar@CAdInfoWnd@@QAEXPAUtagVARIANT@@00@Z@4PAEA
_DATA	SEGMENT DWORD USE32 PUBLIC 'DATA'
_DATA	ENDS
;	COMDAT ?parms@?1??ExecWB@CAdInfoWnd@@QAEXJJPAUtagVARIANT@@0@Z@4PAEA
_DATA	SEGMENT DWORD USE32 PUBLIC 'DATA'
_DATA	ENDS
;	COMDAT ?parms@?1??QueryStatusWB@CAdInfoWnd@@QAEJJ@Z@4PAEA
_DATA	SEGMENT DWORD USE32 PUBLIC 'DATA'
_DATA	ENDS
;	COMDAT ?parms@?1??Navigate2@CAdInfoWnd@@QAEXPAUtagVARIANT@@0000@Z@4PAEA
_DATA	SEGMENT DWORD USE32 PUBLIC 'DATA'
_DATA	ENDS
;	COMDAT ?parms@?1??put_FullScreen@CAdInfoWnd@@QAEXH@Z@4PAEA
_DATA	SEGMENT DWORD USE32 PUBLIC 'DATA'
_DATA	ENDS
;	COMDAT ?parms@?1??put_MenuBar@CAdInfoWnd@@QAEXH@Z@4PAEA
_DATA	SEGMENT DWORD USE32 PUBLIC 'DATA'
_DATA	ENDS
;	COMDAT ?parms@?1??put_ToolBar@CAdInfoWnd@@QAEXJ@Z@4PAEA
_DATA	SEGMENT DWORD USE32 PUBLIC 'DATA'
_DATA	ENDS
;	COMDAT ?parms@?1??put_StatusText@CAdInfoWnd@@QAEXPBD@Z@4PAEA
_DATA	SEGMENT DWORD USE32 PUBLIC 'DATA'
_DATA	ENDS
;	COMDAT ?parms@?1??put_StatusBar@CAdInfoWnd@@QAEXH@Z@4PAEA
_DATA	SEGMENT DWORD USE32 PUBLIC 'DATA'
_DATA	ENDS
;	COMDAT ?parms@?1??put_Visible@CAdInfoWnd@@QAEXH@Z@4PAEA
_DATA	SEGMENT DWORD USE32 PUBLIC 'DATA'
_DATA	ENDS
;	COMDAT ?parms@?1??GetProperty@CAdInfoWnd@@QAE?AUtagVARIANT@@PBD@Z@4PAEA
_DATA	SEGMENT DWORD USE32 PUBLIC 'DATA'
_DATA	ENDS
;	COMDAT ?parms@?1??PutProperty@CAdInfoWnd@@QAEXPBDUtagVARIANT@@@Z@4PAEA
_DATA	SEGMENT DWORD USE32 PUBLIC 'DATA'
_DATA	ENDS
;	COMDAT ?parms@?1??ClientToWindow@CAdInfoWnd@@QAEXPAJ0@Z@4PAEA
_DATA	SEGMENT DWORD USE32 PUBLIC 'DATA'
_DATA	ENDS
;	COMDAT ?parms@?1??put_Height@CAdInfoWnd@@QAEXJ@Z@4PAEA
_DATA	SEGMENT DWORD USE32 PUBLIC 'DATA'
_DATA	ENDS
;	COMDAT ?parms@?1??put_Width@CAdInfoWnd@@QAEXJ@Z@4PAEA
_DATA	SEGMENT DWORD USE32 PUBLIC 'DATA'
_DATA	ENDS
;	COMDAT ?parms@?1??put_Top@CAdInfoWnd@@QAEXJ@Z@4PAEA
_DATA	SEGMENT DWORD USE32 PUBLIC 'DATA'
_DATA	ENDS
;	COMDAT ?parms@?1??put_Left@CAdInfoWnd@@QAEXJ@Z@4PAEA
_DATA	SEGMENT DWORD USE32 PUBLIC 'DATA'
_DATA	ENDS
;	COMDAT ?IsLocked@CStringData@ATL@@QBE_NXZ
_TEXT	SEGMENT PARA USE32 PUBLIC 'CODE'
_TEXT	ENDS
;	COMDAT ?AddRef@CStringData@ATL@@QAEXXZ
_TEXT	SEGMENT PARA USE32 PUBLIC 'CODE'
_TEXT	ENDS
;	COMDAT ?AtlThrow@ATL@@YGXJ@Z
_TEXT	SEGMENT PARA USE32 PUBLIC 'CODE'
_TEXT	ENDS
;	COMDAT ?data@CStringData@ATL@@QAEPAXXZ
_TEXT	SEGMENT PARA USE32 PUBLIC 'CODE'
_TEXT	ENDS
;	COMDAT ?Release@CStringData@ATL@@QAEXXZ
_TEXT	SEGMENT PARA USE32 PUBLIC 'CODE'
_TEXT	ENDS
;	COMDAT ?GetDefaultManager@?$StrTraitMFC_DLL@DV?$ChTraitsCRT@D@ATL@@@@SAPAUIAtlStringMgr@ATL@@XZ
_TEXT	SEGMENT PARA USE32 PUBLIC 'CODE'
_TEXT	ENDS
;	COMDAT ?parms@?1??Refresh2@CAdInfoWnd@@QAEXPAUtagVARIANT@@@Z@4PAEA
_DATA	SEGMENT DWORD USE32 PUBLIC 'DATA'
_DATA	ENDS
;	COMDAT ?parms@?1??Navigate@CAdInfoWnd@@QAEXPBDPAUtagVARIANT@@111@Z@4PAEA
_DATA	SEGMENT DWORD USE32 PUBLIC 'DATA'
_DATA	ENDS
;	COMDAT ?clsid@?1??GetClsid@CAdInfoWnd@@QAEABU_GUID@@XZ@4U3@B
CONST	SEGMENT DWORD USE32 PUBLIC 'CONST'
CONST	ENDS
;	COMDAT ??_7CAdInfoWnd@@6B@
CONST	SEGMENT DWORD USE32 PUBLIC 'CONST'
CONST	ENDS
sxdata	SEGMENT DWORD USE32 'SXDATA'
sxdata	ENDS
FLAT	GROUP _DATA, CONST, _BSS
	ASSUME	CS: FLAT, DS: FLAT, SS: FLAT
endif

INCLUDELIB MSVCRT
INCLUDELIB OLDNAMES

PUBLIC	?classCAdInfoWnd@CAdInfoWnd@@2UCRuntimeClass@@B	; CAdInfoWnd::classCAdInfoWnd
PUBLIC	?_messageEntries@CAdInfoWnd@@0QBUAFX_MSGMAP_ENTRY@@B ; CAdInfoWnd::_messageEntries
PUBLIC	?messageMap@CAdInfoWnd@@1UAFX_MSGMAP@@B		; CAdInfoWnd::messageMap
EXTRN	?GetThisMessageMap@CWnd@@KGPBUAFX_MSGMAP@@XZ:NEAR ; CWnd::GetThisMessageMap
EXTRN	?GetThisClass@CWnd@@SGPAUCRuntimeClass@@XZ:NEAR	; CWnd::GetThisClass
CONST	SEGMENT
$SG197884 DB	'CAdInfoWnd', 00H
CONST	ENDS
;	COMDAT ?classCAdInfoWnd@CAdInfoWnd@@2UCRuntimeClass@@B
CONST	SEGMENT
?classCAdInfoWnd@CAdInfoWnd@@2UCRuntimeClass@@B DD FLAT:$SG197884 ; CAdInfoWnd::classCAdInfoWnd
	DD	074H
	DD	0ffffH
	DD	00H
	DD	FLAT:?GetThisClass@CWnd@@SGPAUCRuntimeClass@@XZ
	DD	00H
	DD	00H
CONST	ENDS
;	COMDAT ?_messageEntries@CAdInfoWnd@@0QBUAFX_MSGMAP_ENTRY@@B
CONST	SEGMENT
?_messageEntries@CAdInfoWnd@@0QBUAFX_MSGMAP_ENTRY@@B DD 00H ; CAdInfoWnd::_messageEntries
	DD	00H
	DD	00H
	DD	00H
	DD	00H
	DD	00H
CONST	ENDS
;	COMDAT ?messageMap@CAdInfoWnd@@1UAFX_MSGMAP@@B
CONST	SEGMENT
?messageMap@CAdInfoWnd@@1UAFX_MSGMAP@@B DD FLAT:?GetThisMessageMap@CWnd@@KGPBUAFX_MSGMAP@@XZ ; CAdInfoWnd::messageMap
	DD	FLAT:?_messageEntries@CAdInfoWnd@@0QBUAFX_MSGMAP_ENTRY@@B
CONST	ENDS
PUBLIC	?GetThisClass@CAdInfoWnd@@SGPAUCRuntimeClass@@XZ ; CAdInfoWnd::GetThisClass
; Function compile flags: /Odt
; File d:\boxgit\playbox\playbox\dev\prj\playbox\src\gui\commoncontrol\adinfownd.cpp
_TEXT	SEGMENT
?GetThisClass@CAdInfoWnd@@SGPAUCRuntimeClass@@XZ PROC NEAR ; CAdInfoWnd::GetThisClass

; 5    : IMPLEMENT_DYNAMIC(CAdInfoWnd, CWnd)

  00000	55		 push	 ebp
  00001	8b ec		 mov	 ebp, esp
  00003	b8 00 00 00 00	 mov	 eax, OFFSET FLAT:?classCAdInfoWnd@CAdInfoWnd@@2UCRuntimeClass@@B ; CAdInfoWnd::classCAdInfoWnd
  00008	5d		 pop	 ebp
  00009	c3		 ret	 0
?GetThisClass@CAdInfoWnd@@SGPAUCRuntimeClass@@XZ ENDP	; CAdInfoWnd::GetThisClass
_TEXT	ENDS
PUBLIC	?GetRuntimeClass@CAdInfoWnd@@UBEPAUCRuntimeClass@@XZ ; CAdInfoWnd::GetRuntimeClass
; Function compile flags: /Odt
_TEXT	SEGMENT
_this$ = -4						; size = 4
?GetRuntimeClass@CAdInfoWnd@@UBEPAUCRuntimeClass@@XZ PROC NEAR ; CAdInfoWnd::GetRuntimeClass
; _this$ = ecx

; 5    : IMPLEMENT_DYNAMIC(CAdInfoWnd, CWnd)

  00010	55		 push	 ebp
  00011	8b ec		 mov	 ebp, esp
  00013	51		 push	 ecx
  00014	89 4d fc	 mov	 DWORD PTR _this$[ebp], ecx
  00017	b8 00 00 00 00	 mov	 eax, OFFSET FLAT:?classCAdInfoWnd@CAdInfoWnd@@2UCRuntimeClass@@B ; CAdInfoWnd::classCAdInfoWnd
  0001c	8b e5		 mov	 esp, ebp
  0001e	5d		 pop	 ebp
  0001f	c3		 ret	 0
?GetRuntimeClass@CAdInfoWnd@@UBEPAUCRuntimeClass@@XZ ENDP ; CAdInfoWnd::GetRuntimeClass
_TEXT	ENDS
PUBLIC	?GetThisMessageMap@CAdInfoWnd@@KGPBUAFX_MSGMAP@@XZ ; CAdInfoWnd::GetThisMessageMap
; Function compile flags: /Odt
_TEXT	SEGMENT
?GetThisMessageMap@CAdInfoWnd@@KGPBUAFX_MSGMAP@@XZ PROC NEAR ; CAdInfoWnd::GetThisMessageMap

; 8    : BEGIN_MESSAGE_MAP(CAdInfoWnd, CWnd)

  00020	55		 push	 ebp
  00021	8b ec		 mov	 ebp, esp
  00023	b8 00 00 00 00	 mov	 eax, OFFSET FLAT:?messageMap@CAdInfoWnd@@1UAFX_MSGMAP@@B ; CAdInfoWnd::messageMap
  00028	5d		 pop	 ebp
  00029	c3		 ret	 0
?GetThisMessageMap@CAdInfoWnd@@KGPBUAFX_MSGMAP@@XZ ENDP	; CAdInfoWnd::GetThisMessageMap
_TEXT	ENDS
PUBLIC	?GetMessageMap@CAdInfoWnd@@MBEPBUAFX_MSGMAP@@XZ	; CAdInfoWnd::GetMessageMap
; Function compile flags: /Odt
_TEXT	SEGMENT
_this$ = -4						; size = 4
?GetMessageMap@CAdInfoWnd@@MBEPBUAFX_MSGMAP@@XZ PROC NEAR ; CAdInfoWnd::GetMessageMap
; _this$ = ecx

; 8    : BEGIN_MESSAGE_MAP(CAdInfoWnd, CWnd)

  00030	55		 push	 ebp
  00031	8b ec		 mov	 ebp, esp
  00033	51		 push	 ecx
  00034	89 4d fc	 mov	 DWORD PTR _this$[ebp], ecx
  00037	b8 00 00 00 00	 mov	 eax, OFFSET FLAT:?messageMap@CAdInfoWnd@@1UAFX_MSGMAP@@B ; CAdInfoWnd::messageMap
  0003c	8b e5		 mov	 esp, ebp
  0003e	5d		 pop	 ebp
  0003f	c3		 ret	 0
?GetMessageMap@CAdInfoWnd@@MBEPBUAFX_MSGMAP@@XZ ENDP	; CAdInfoWnd::GetMessageMap
_TEXT	ENDS
END
