; Listing generated by Microsoft (R) Optimizing Compiler Version 13.10.3077 

	TITLE	.\src\Gui\util\BCMenu.cpp
	.386P
include listing.inc
if @Version gt 510
.model FLAT
else
_TEXT	SEGMENT PARA USE32 PUBLIC 'CODE'
_TEXT	ENDS
_DATA	SEGMENT DWORD USE32 PUBLIC 'DATA'
_DATA	ENDS
CONST	SEGMENT DWORD USE32 PUBLIC 'CONST'
CONST	ENDS
_BSS	SEGMENT DWORD USE32 PUBLIC 'BSS'
_BSS	ENDS
$$SYMBOLS	SEGMENT BYTE USE32 'DEBSYM'
$$SYMBOLS	ENDS
$$TYPES	SEGMENT BYTE USE32 'DEBTYP'
$$TYPES	ENDS
_TLS	SEGMENT DWORD USE32 PUBLIC 'TLS'
_TLS	ENDS
rdata$r	SEGMENT DWORD USE32 PUBLIC 'CONST'
rdata$r	ENDS
xdata$x	SEGMENT DWORD USE32 PUBLIC 'CONST'
xdata$x	ENDS
text$AFX_COL1	SEGMENT PARA USE32 PUBLIC ''
text$AFX_COL1	ENDS
text$yc	SEGMENT PARA USE32 PUBLIC 'CODE'
text$yc	ENDS
CRT$XCA	SEGMENT DWORD USE32 PUBLIC 'DATA'
CRT$XCA	ENDS
CRT$XCU	SEGMENT DWORD USE32 PUBLIC 'DATA'
CRT$XCU	ENDS
CRT$XCL	SEGMENT DWORD USE32 PUBLIC 'DATA'
CRT$XCL	ENDS
CRT$XCC	SEGMENT DWORD USE32 PUBLIC 'DATA'
CRT$XCC	ENDS
CRT$XCZ	SEGMENT DWORD USE32 PUBLIC 'DATA'
CRT$XCZ	ENDS
text$yd	SEGMENT PARA USE32 PUBLIC 'CODE'
text$yd	ENDS
ATL$__m	SEGMENT DWORD USE32 PUBLIC ''
ATL$__m	ENDS
ATL$__z	SEGMENT DWORD USE32 PUBLIC ''
ATL$__z	ENDS
ATL$__a	SEGMENT DWORD USE32 PUBLIC ''
ATL$__a	ENDS
;	COMDAT ??0BCMenuData@@QAE@XZ
_TEXT	SEGMENT PARA USE32 PUBLIC 'CODE'
_TEXT	ENDS
;	COMDAT ?GetWideString@BCMenuData@@QAEPB_WXZ
_TEXT	SEGMENT PARA USE32 PUBLIC 'CODE'
_TEXT	ENDS
;	COMDAT ??0CMenuItemInfo@@QAE@XZ
_TEXT	SEGMENT PARA USE32 PUBLIC 'CODE'
_TEXT	ENDS
;	COMDAT ??0BCMenuMemDC@@QAE@PAVCDC@@PBUtagRECT@@@Z
_TEXT	SEGMENT PARA USE32 PUBLIC 'CODE'
_TEXT	ENDS
;	COMDAT ??1BCMenuMemDC@@UAE@XZ
_TEXT	SEGMENT PARA USE32 PUBLIC 'CODE'
_TEXT	ENDS
;	COMDAT ??_GBCMenuMemDC@@UAEPAXI@Z
_TEXT	SEGMENT PARA USE32 PUBLIC 'CODE'
_TEXT	ENDS
;	COMDAT _$E5
text$yc	SEGMENT PARA USE32 PUBLIC 'CODE'
text$yc	ENDS
;	COMDAT _$E6
text$yd	SEGMENT PARA USE32 PUBLIC 'CODE'
text$yd	ENDS
;	COMDAT _$E8
text$yc	SEGMENT PARA USE32 PUBLIC 'CODE'
text$yc	ENDS
;	COMDAT _$E9
text$yd	SEGMENT PARA USE32 PUBLIC 'CODE'
text$yd	ENDS
;	COMDAT _$E11
text$yc	SEGMENT PARA USE32 PUBLIC 'CODE'
text$yc	ENDS
;	COMDAT _$E13
text$yc	SEGMENT PARA USE32 PUBLIC 'CODE'
text$yc	ENDS
;	COMDAT _$E14
text$yd	SEGMENT PARA USE32 PUBLIC 'CODE'
text$yd	ENDS
;	COMDAT ??0?$CTypedPtrArray@VCPtrArray@@PAUHMENU__@@@@QAE@XZ
_TEXT	SEGMENT PARA USE32 PUBLIC 'CODE'
_TEXT	ENDS
;	COMDAT ??1?$CTypedPtrArray@VCPtrArray@@PAUHMENU__@@@@UAE@XZ
_TEXT	SEGMENT PARA USE32 PUBLIC 'CODE'
_TEXT	ENDS
;	COMDAT ??_G?$CTypedPtrArray@VCPtrArray@@PAUHMENU__@@@@UAEPAXI@Z
_TEXT	SEGMENT PARA USE32 PUBLIC 'CODE'
_TEXT	ENDS
;	COMDAT ??_GBCMenu@@UAEPAXI@Z
_TEXT	SEGMENT PARA USE32 PUBLIC 'CODE'
_TEXT	ENDS
;	COMDAT ??0?$CTypedPtrArray@VCPtrArray@@PAVBCMenuData@@@@QAE@XZ
_TEXT	SEGMENT PARA USE32 PUBLIC 'CODE'
_TEXT	ENDS
;	COMDAT ??1?$CTypedPtrArray@VCPtrArray@@PAVBCMenuData@@@@UAE@XZ
_TEXT	SEGMENT PARA USE32 PUBLIC 'CODE'
_TEXT	ENDS
;	COMDAT ??_G?$CTypedPtrArray@VCPtrArray@@PAVBCMenuData@@@@UAEPAXI@Z
_TEXT	SEGMENT PARA USE32 PUBLIC 'CODE'
_TEXT	ENDS
;	COMDAT ??_GBCMenuData@@QAEPAXI@Z
_TEXT	SEGMENT PARA USE32 PUBLIC 'CODE'
_TEXT	ENDS
;	COMDAT ??0?$CTypedPtrArray@VCPtrArray@@PAVBCMenu@@@@QAE@XZ
_TEXT	SEGMENT PARA USE32 PUBLIC 'CODE'
_TEXT	ENDS
;	COMDAT ??1?$CTypedPtrArray@VCPtrArray@@PAVBCMenu@@@@UAE@XZ
_TEXT	SEGMENT PARA USE32 PUBLIC 'CODE'
_TEXT	ENDS
;	COMDAT ??_G?$CTypedPtrArray@VCPtrArray@@PAVBCMenu@@@@UAEPAXI@Z
_TEXT	SEGMENT PARA USE32 PUBLIC 'CODE'
_TEXT	ENDS
;	COMDAT ??8ATL@@YA_NABV?$CStringT@DV?$StrTraitMFC_DLL@DV?$ChTraitsCRT@D@ATL@@@@@0@0@Z
_TEXT	SEGMENT PARA USE32 PUBLIC 'CODE'
_TEXT	ENDS
;	COMDAT ??8ATL@@YA_NABV?$CStringT@DV?$StrTraitMFC_DLL@DV?$ChTraitsCRT@D@ATL@@@@@0@PBD@Z
_TEXT	SEGMENT PARA USE32 PUBLIC 'CODE'
_TEXT	ENDS
;	COMDAT ??B?$CComPtrBase@UITypeInfo2@@@ATL@@QBEPAUITypeInfo2@@XZ
_TEXT	SEGMENT PARA USE32 PUBLIC 'CODE'
_TEXT	ENDS
;	COMDAT ?equal@?$istreambuf_iterator@DU?$char_traits@D@std@@@std@@QBE_NABV12@@Z
_TEXT	SEGMENT PARA USE32 PUBLIC 'CODE'
_TEXT	ENDS
;	COMDAT ?equal@?$istreambuf_iterator@_WU?$char_traits@_W@std@@@std@@QBE_NABV12@@Z
_TEXT	SEGMENT PARA USE32 PUBLIC 'CODE'
_TEXT	ENDS
;	COMDAT ?GetAt@?$CTypedPtrArray@VCPtrArray@@PAVBCMenuData@@@@QBEPAVBCMenuData@@H@Z
_TEXT	SEGMENT PARA USE32 PUBLIC 'CODE'
_TEXT	ENDS
;	COMDAT ?Add@?$CTypedPtrArray@VCPtrArray@@PAVBCMenuData@@@@QAEHPAVBCMenuData@@@Z
_TEXT	SEGMENT PARA USE32 PUBLIC 'CODE'
_TEXT	ENDS
;	COMDAT ?Append@?$CTypedPtrArray@VCPtrArray@@PAVBCMenuData@@@@QAEHABV1@@Z
_TEXT	SEGMENT PARA USE32 PUBLIC 'CODE'
_TEXT	ENDS
;	COMDAT ?InsertAt@?$CTypedPtrArray@VCPtrArray@@PAVBCMenuData@@@@QAEXHPAVBCMenuData@@H@Z
_TEXT	SEGMENT PARA USE32 PUBLIC 'CODE'
_TEXT	ENDS
;	COMDAT ??A?$CTypedPtrArray@VCPtrArray@@PAVBCMenuData@@@@QAEAAPAVBCMenuData@@H@Z
_TEXT	SEGMENT PARA USE32 PUBLIC 'CODE'
_TEXT	ENDS
;	COMDAT ?Add@?$CTypedPtrArray@VCPtrArray@@PAUHMENU__@@@@QAEHPAUHMENU__@@@Z
_TEXT	SEGMENT PARA USE32 PUBLIC 'CODE'
_TEXT	ENDS
;	COMDAT ??A?$CTypedPtrArray@VCPtrArray@@PAUHMENU__@@@@QAEAAPAUHMENU__@@H@Z
_TEXT	SEGMENT PARA USE32 PUBLIC 'CODE'
_TEXT	ENDS
;	COMDAT ?Add@?$CTypedPtrArray@VCPtrArray@@PAVBCMenu@@@@QAEHPAVBCMenu@@@Z
_TEXT	SEGMENT PARA USE32 PUBLIC 'CODE'
_TEXT	ENDS
;	COMDAT ??A?$CTypedPtrArray@VCPtrArray@@PAVBCMenu@@@@QAEAAPAVBCMenu@@H@Z
_TEXT	SEGMENT PARA USE32 PUBLIC 'CODE'
_TEXT	ENDS
;	COMDAT ?StringCompare@?$ChTraitsCRT@D@ATL@@SAHPBD0@Z
_TEXT	SEGMENT PARA USE32 PUBLIC 'CODE'
_TEXT	ENDS
;	COMDAT ?StringFindString@?$ChTraitsCRT@D@ATL@@SAPBDPBD0@Z
_TEXT	SEGMENT PARA USE32 PUBLIC 'CODE'
_TEXT	ENDS
;	COMDAT ?StringFindChar@?$ChTraitsCRT@D@ATL@@SAPBDPBDD@Z
_TEXT	SEGMENT PARA USE32 PUBLIC 'CODE'
_TEXT	ENDS
;	COMDAT ?StringFindCharRev@?$ChTraitsCRT@D@ATL@@SAPBDPBDD@Z
_TEXT	SEGMENT PARA USE32 PUBLIC 'CODE'
_TEXT	ENDS
;	COMDAT ?StringLowercase@?$ChTraitsCRT@D@ATL@@SAPADPAD@Z
_TEXT	SEGMENT PARA USE32 PUBLIC 'CODE'
_TEXT	ENDS
;	COMDAT ?FloodCharacters@?$ChTraitsCRT@D@ATL@@SAXDHPAD@Z
_TEXT	SEGMENT PARA USE32 PUBLIC 'CODE'
_TEXT	ENDS
;	COMDAT ?Unlock@?$CComCritSecLock@VCComCriticalSection@ATL@@@ATL@@QAEXXZ
_TEXT	SEGMENT PARA USE32 PUBLIC 'CODE'
_TEXT	ENDS
;	COMDAT ??0?$CArray@HAAH@@QAE@XZ
_TEXT	SEGMENT PARA USE32 PUBLIC 'CODE'
_TEXT	ENDS
;	COMDAT ?GetSize@?$CArray@HAAH@@QBEHXZ
_TEXT	SEGMENT PARA USE32 PUBLIC 'CODE'
_TEXT	ENDS
;	COMDAT ?Add@?$CArray@HAAH@@QAEHAAH@Z
_TEXT	SEGMENT PARA USE32 PUBLIC 'CODE'
_TEXT	ENDS
;	COMDAT ??A?$CArray@HAAH@@QAEAAHH@Z
_TEXT	SEGMENT PARA USE32 PUBLIC 'CODE'
_TEXT	ENDS
;	COMDAT ??1?$CArray@HAAH@@UAE@XZ
_TEXT	SEGMENT PARA USE32 PUBLIC 'CODE'
_TEXT	ENDS
;	COMDAT ?Serialize@?$CArray@HAAH@@UAEXAAVCArchive@@@Z
_TEXT	SEGMENT PARA USE32 PUBLIC 'CODE'
_TEXT	ENDS
;	COMDAT ??0?$CArray@PAVBCMenu@@PAV1@@@QAE@XZ
_TEXT	SEGMENT PARA USE32 PUBLIC 'CODE'
_TEXT	ENDS
;	COMDAT ?GetSize@?$CArray@PAVBCMenu@@PAV1@@@QBEHXZ
_TEXT	SEGMENT PARA USE32 PUBLIC 'CODE'
_TEXT	ENDS
;	COMDAT ?Add@?$CArray@PAVBCMenu@@PAV1@@@QAEHPAVBCMenu@@@Z
_TEXT	SEGMENT PARA USE32 PUBLIC 'CODE'
_TEXT	ENDS
;	COMDAT ??A?$CArray@PAVBCMenu@@PAV1@@@QAEAAPAVBCMenu@@H@Z
_TEXT	SEGMENT PARA USE32 PUBLIC 'CODE'
_TEXT	ENDS
;	COMDAT ??1?$CArray@PAVBCMenu@@PAV1@@@UAE@XZ
_TEXT	SEGMENT PARA USE32 PUBLIC 'CODE'
_TEXT	ENDS
;	COMDAT ?Serialize@?$CArray@PAVBCMenu@@PAV1@@@UAEXAAVCArchive@@@Z
_TEXT	SEGMENT PARA USE32 PUBLIC 'CODE'
_TEXT	ENDS
;	COMDAT ??0?$CArray@HH@@QAE@XZ
_TEXT	SEGMENT PARA USE32 PUBLIC 'CODE'
_TEXT	ENDS
;	COMDAT ?GetAt@?$CArray@HH@@QAEAAHH@Z
_TEXT	SEGMENT PARA USE32 PUBLIC 'CODE'
_TEXT	ENDS
;	COMDAT ?SetAt@?$CArray@HH@@QAEXHH@Z
_TEXT	SEGMENT PARA USE32 PUBLIC 'CODE'
_TEXT	ENDS
;	COMDAT ?Add@?$CArray@HH@@QAEHH@Z
_TEXT	SEGMENT PARA USE32 PUBLIC 'CODE'
_TEXT	ENDS
;	COMDAT ?RemoveAt@?$CArray@HH@@QAEXHH@Z
_TEXT	SEGMENT PARA USE32 PUBLIC 'CODE'
_TEXT	ENDS
;	COMDAT ??1?$CArray@HH@@UAE@XZ
_TEXT	SEGMENT PARA USE32 PUBLIC 'CODE'
_TEXT	ENDS
;	COMDAT ?Serialize@?$CArray@HH@@UAEXAAVCArchive@@@Z
_TEXT	SEGMENT PARA USE32 PUBLIC 'CODE'
_TEXT	ENDS
;	COMDAT ??$_Maklocstr@D@std@@YAPADPBDPADABU_Cvtvec@@@Z
_TEXT	SEGMENT PARA USE32 PUBLIC 'CODE'
_TEXT	ENDS
;	COMDAT ??_G?$CArray@HAAH@@UAEPAXI@Z
_TEXT	SEGMENT PARA USE32 PUBLIC 'CODE'
_TEXT	ENDS
;	COMDAT ??_G?$CArray@PAVBCMenu@@PAV1@@@UAEPAXI@Z
_TEXT	SEGMENT PARA USE32 PUBLIC 'CODE'
_TEXT	ENDS
;	COMDAT ??_G?$CArray@HH@@UAEPAXI@Z
_TEXT	SEGMENT PARA USE32 PUBLIC 'CODE'
_TEXT	ENDS
;	COMDAT ?SetSize@?$CArray@HAAH@@QAEXHH@Z
_TEXT	SEGMENT PARA USE32 PUBLIC 'CODE'
_TEXT	ENDS
;	COMDAT ?ElementAt@?$CArray@HAAH@@QAEAAHH@Z
_TEXT	SEGMENT PARA USE32 PUBLIC 'CODE'
_TEXT	ENDS
;	COMDAT ?SetAtGrow@?$CArray@HAAH@@QAEXHAAH@Z
_TEXT	SEGMENT PARA USE32 PUBLIC 'CODE'
_TEXT	ENDS
;	COMDAT ??$SerializeElements@H@@YGXAAVCArchive@@PAHH@Z
_TEXT	SEGMENT PARA USE32 PUBLIC 'CODE'
_TEXT	ENDS
;	COMDAT ?SetSize@?$CArray@PAVBCMenu@@PAV1@@@QAEXHH@Z
_TEXT	SEGMENT PARA USE32 PUBLIC 'CODE'
_TEXT	ENDS
;	COMDAT ?ElementAt@?$CArray@PAVBCMenu@@PAV1@@@QAEAAPAVBCMenu@@H@Z
_TEXT	SEGMENT PARA USE32 PUBLIC 'CODE'
_TEXT	ENDS
;	COMDAT ?SetAtGrow@?$CArray@PAVBCMenu@@PAV1@@@QAEXHPAVBCMenu@@@Z
_TEXT	SEGMENT PARA USE32 PUBLIC 'CODE'
_TEXT	ENDS
;	COMDAT ??$SerializeElements@PAVBCMenu@@@@YGXAAVCArchive@@PAPAVBCMenu@@H@Z
_TEXT	SEGMENT PARA USE32 PUBLIC 'CODE'
_TEXT	ENDS
;	COMDAT ?SetSize@?$CArray@HH@@QAEXHH@Z
_TEXT	SEGMENT PARA USE32 PUBLIC 'CODE'
_TEXT	ENDS
;	COMDAT ?SetAtGrow@?$CArray@HH@@QAEXHH@Z
_TEXT	SEGMENT PARA USE32 PUBLIC 'CODE'
_TEXT	ENDS
;	COMDAT ??_R3BCMenu@@8
rdata$r	SEGMENT DWORD USE32 PUBLIC 'CONST'
rdata$r	ENDS
;	COMDAT ??_R3?$CTypedPtrArray@VCPtrArray@@PAVBCMenu@@@@8
rdata$r	SEGMENT DWORD USE32 PUBLIC 'CONST'
rdata$r	ENDS
;	COMDAT ??_R3?$CArray@HAAH@@8
rdata$r	SEGMENT DWORD USE32 PUBLIC 'CONST'
rdata$r	ENDS
;	COMDAT ??_R3?$CArray@PAVBCMenu@@PAV1@@@8
rdata$r	SEGMENT DWORD USE32 PUBLIC 'CONST'
rdata$r	ENDS
;	COMDAT ??_R3?$CTypedPtrArray@VCPtrArray@@PAUHMENU__@@@@8
rdata$r	SEGMENT DWORD USE32 PUBLIC 'CONST'
rdata$r	ENDS
;	COMDAT ??_R3?$CArray@HH@@8
rdata$r	SEGMENT DWORD USE32 PUBLIC 'CONST'
rdata$r	ENDS
;	COMDAT ??_R3BCMenuMemDC@@8
rdata$r	SEGMENT DWORD USE32 PUBLIC 'CONST'
rdata$r	ENDS
;	COMDAT ??_R3?$CTypedPtrArray@VCPtrArray@@PAVBCMenuData@@@@8
rdata$r	SEGMENT DWORD USE32 PUBLIC 'CONST'
rdata$r	ENDS
;	COMDAT ??_R3?$numpunct@_W@std@@8
rdata$r	SEGMENT DWORD USE32 PUBLIC 'CONST'
rdata$r	ENDS
;	COMDAT ??_R3?$numpunct@D@std@@8
rdata$r	SEGMENT DWORD USE32 PUBLIC 'CONST'
rdata$r	ENDS
;	COMDAT ??_R2BCMenu@@8
rdata$r	SEGMENT DWORD USE32 PUBLIC 'CONST'
rdata$r	ENDS
;	COMDAT ??_R2?$CTypedPtrArray@VCPtrArray@@PAVBCMenu@@@@8
rdata$r	SEGMENT DWORD USE32 PUBLIC 'CONST'
rdata$r	ENDS
;	COMDAT ??_R2?$CArray@HAAH@@8
rdata$r	SEGMENT DWORD USE32 PUBLIC 'CONST'
rdata$r	ENDS
;	COMDAT ??_R2?$CArray@PAVBCMenu@@PAV1@@@8
rdata$r	SEGMENT DWORD USE32 PUBLIC 'CONST'
rdata$r	ENDS
;	COMDAT ??_R2?$CTypedPtrArray@VCPtrArray@@PAUHMENU__@@@@8
rdata$r	SEGMENT DWORD USE32 PUBLIC 'CONST'
rdata$r	ENDS
;	COMDAT ??_R2?$CArray@HH@@8
rdata$r	SEGMENT DWORD USE32 PUBLIC 'CONST'
rdata$r	ENDS
;	COMDAT ??_R2BCMenuMemDC@@8
rdata$r	SEGMENT DWORD USE32 PUBLIC 'CONST'
rdata$r	ENDS
;	COMDAT ??_R2?$CTypedPtrArray@VCPtrArray@@PAVBCMenuData@@@@8
rdata$r	SEGMENT DWORD USE32 PUBLIC 'CONST'
rdata$r	ENDS
;	COMDAT ??_R2?$numpunct@_W@std@@8
rdata$r	SEGMENT DWORD USE32 PUBLIC 'CONST'
rdata$r	ENDS
;	COMDAT ??_R2?$numpunct@D@std@@8
rdata$r	SEGMENT DWORD USE32 PUBLIC 'CONST'
rdata$r	ENDS
;	COMDAT ??_R1A@?0A@A@CMenu@@8
rdata$r	SEGMENT DWORD USE32 PUBLIC 'CONST'
rdata$r	ENDS
;	COMDAT ??_R1A@?0A@A@BCMenu@@8
rdata$r	SEGMENT DWORD USE32 PUBLIC 'CONST'
rdata$r	ENDS
;	COMDAT ??_R1A@?0A@A@?$CTypedPtrArray@VCPtrArray@@PAVBCMenu@@@@8
rdata$r	SEGMENT DWORD USE32 PUBLIC 'CONST'
rdata$r	ENDS
;	COMDAT ??_R1A@?0A@A@?$CArray@HAAH@@8
rdata$r	SEGMENT DWORD USE32 PUBLIC 'CONST'
rdata$r	ENDS
;	COMDAT ??_R1A@?0A@A@?$CArray@PAVBCMenu@@PAV1@@@8
rdata$r	SEGMENT DWORD USE32 PUBLIC 'CONST'
rdata$r	ENDS
;	COMDAT ??_R1A@?0A@A@?$CTypedPtrArray@VCPtrArray@@PAUHMENU__@@@@8
rdata$r	SEGMENT DWORD USE32 PUBLIC 'CONST'
rdata$r	ENDS
;	COMDAT ??_R1A@?0A@A@?$CArray@HH@@8
rdata$r	SEGMENT DWORD USE32 PUBLIC 'CONST'
rdata$r	ENDS
;	COMDAT ??_R1A@?0A@A@CDC@@8
rdata$r	SEGMENT DWORD USE32 PUBLIC 'CONST'
rdata$r	ENDS
;	COMDAT ??_R0?AVCDC@@@8
_DATA	SEGMENT DWORD USE32 PUBLIC 'DATA'
_DATA	ENDS
;	COMDAT ??_R1A@?0A@A@BCMenuMemDC@@8
rdata$r	SEGMENT DWORD USE32 PUBLIC 'CONST'
rdata$r	ENDS
;	COMDAT ??_R1A@?0A@A@CObject@@8
rdata$r	SEGMENT DWORD USE32 PUBLIC 'CONST'
rdata$r	ENDS
;	COMDAT ??_R0?AVCObject@@@8
_DATA	SEGMENT DWORD USE32 PUBLIC 'DATA'
_DATA	ENDS
;	COMDAT ??_R1A@?0A@A@CPtrArray@@8
rdata$r	SEGMENT DWORD USE32 PUBLIC 'CONST'
rdata$r	ENDS
;	COMDAT ??_R1A@?0A@A@?$CTypedPtrArray@VCPtrArray@@PAVBCMenuData@@@@8
rdata$r	SEGMENT DWORD USE32 PUBLIC 'CONST'
rdata$r	ENDS
;	COMDAT ??_R1A@?0A@A@?$numpunct@_W@std@@8
rdata$r	SEGMENT DWORD USE32 PUBLIC 'CONST'
rdata$r	ENDS
;	COMDAT ??_R1A@?0A@A@facet@locale@std@@8
rdata$r	SEGMENT DWORD USE32 PUBLIC 'CONST'
rdata$r	ENDS
;	COMDAT ??_R0?AVfacet@locale@std@@@8
_DATA	SEGMENT DWORD USE32 PUBLIC 'DATA'
_DATA	ENDS
;	COMDAT ??_R1A@?0A@A@?$numpunct@D@std@@8
rdata$r	SEGMENT DWORD USE32 PUBLIC 'CONST'
rdata$r	ENDS
;	COMDAT ??_R0?AV?$CTypedPtrArray@VCPtrArray@@PAVBCMenu@@@@@8
_DATA	SEGMENT DWORD USE32 PUBLIC 'DATA'
_DATA	ENDS
;	COMDAT ??_R0?AV?$CArray@HAAH@@@8
_DATA	SEGMENT DWORD USE32 PUBLIC 'DATA'
_DATA	ENDS
;	COMDAT ??_R0?AV?$CArray@PAVBCMenu@@PAV1@@@@8
_DATA	SEGMENT DWORD USE32 PUBLIC 'DATA'
_DATA	ENDS
;	COMDAT ??_R0?AV?$CTypedPtrArray@VCPtrArray@@PAUHMENU__@@@@@8
_DATA	SEGMENT DWORD USE32 PUBLIC 'DATA'
_DATA	ENDS
;	COMDAT ??_R0?AV?$CArray@HH@@@8
_DATA	SEGMENT DWORD USE32 PUBLIC 'DATA'
_DATA	ENDS
;	COMDAT ??_R0?AVBCMenuMemDC@@@8
_DATA	SEGMENT DWORD USE32 PUBLIC 'DATA'
_DATA	ENDS
;	COMDAT ??_R0?AVCPtrArray@@@8
_DATA	SEGMENT DWORD USE32 PUBLIC 'DATA'
_DATA	ENDS
;	COMDAT ??_R0?AV?$CTypedPtrArray@VCPtrArray@@PAVBCMenuData@@@@@8
_DATA	SEGMENT DWORD USE32 PUBLIC 'DATA'
_DATA	ENDS
;	COMDAT ??_R0?AV?$numpunct@_W@std@@@8
_DATA	SEGMENT DWORD USE32 PUBLIC 'DATA'
_DATA	ENDS
;	COMDAT ??_R0?AV?$numpunct@D@std@@@8
_DATA	SEGMENT DWORD USE32 PUBLIC 'DATA'
_DATA	ENDS
;	COMDAT ??_R4BCMenu@@6B@
rdata$r	SEGMENT DWORD USE32 PUBLIC 'CONST'
rdata$r	ENDS
;	COMDAT ??_R4?$CTypedPtrArray@VCPtrArray@@PAVBCMenu@@@@6B@
rdata$r	SEGMENT DWORD USE32 PUBLIC 'CONST'
rdata$r	ENDS
;	COMDAT ??_R4?$CArray@HAAH@@6B@
rdata$r	SEGMENT DWORD USE32 PUBLIC 'CONST'
rdata$r	ENDS
;	COMDAT ??_R4?$CArray@PAVBCMenu@@PAV1@@@6B@
rdata$r	SEGMENT DWORD USE32 PUBLIC 'CONST'
rdata$r	ENDS
;	COMDAT ??_R4?$CTypedPtrArray@VCPtrArray@@PAUHMENU__@@@@6B@
rdata$r	SEGMENT DWORD USE32 PUBLIC 'CONST'
rdata$r	ENDS
;	COMDAT ??_R4?$CArray@HH@@6B@
rdata$r	SEGMENT DWORD USE32 PUBLIC 'CONST'
rdata$r	ENDS
;	COMDAT ?Escape@CDC@@UAEHHHPBDPAX@Z
_TEXT	SEGMENT PARA USE32 PUBLIC 'CODE'
_TEXT	ENDS
;	COMDAT ?GrayStringA@CDC@@UAEHPAVCBrush@@P6GHPAUHDC__@@JH@ZJHHHHH@Z
_TEXT	SEGMENT PARA USE32 PUBLIC 'CODE'
_TEXT	ENDS
;	COMDAT ?GetSafeHandle@CGdiObject@@QBEPAXXZ
_TEXT	SEGMENT PARA USE32 PUBLIC 'CODE'
_TEXT	ENDS
;	COMDAT ?DrawTextExA@CDC@@UAEHPADHPAUtagRECT@@IPAUtagDRAWTEXTPARAMS@@@Z
_TEXT	SEGMENT PARA USE32 PUBLIC 'CODE'
_TEXT	ENDS
;	COMDAT ?DrawTextA@CDC@@UAEHPBDHPAUtagRECT@@I@Z
_TEXT	SEGMENT PARA USE32 PUBLIC 'CODE'
_TEXT	ENDS
;	COMDAT ?TabbedTextOutA@CDC@@UAE?AVCSize@@HHPBDHHPAHH@Z
_TEXT	SEGMENT PARA USE32 PUBLIC 'CODE'
_TEXT	ENDS
;	COMDAT ??0CSize@@QAE@K@Z
_TEXT	SEGMENT PARA USE32 PUBLIC 'CODE'
_TEXT	ENDS
;	COMDAT ?ExtTextOutA@CDC@@UAEHHHIPBUtagRECT@@PBDIPAH@Z
_TEXT	SEGMENT PARA USE32 PUBLIC 'CODE'
_TEXT	ENDS
;	COMDAT ?TextOutA@CDC@@UAEHHHPBDH@Z
_TEXT	SEGMENT PARA USE32 PUBLIC 'CODE'
_TEXT	ENDS
;	COMDAT ?RectVisible@CDC@@UBEHPBUtagRECT@@@Z
_TEXT	SEGMENT PARA USE32 PUBLIC 'CODE'
_TEXT	ENDS
;	COMDAT ?PtVisible@CDC@@UBEHHH@Z
_TEXT	SEGMENT PARA USE32 PUBLIC 'CODE'
_TEXT	ENDS
;	COMDAT ??_R4BCMenuMemDC@@6B@
rdata$r	SEGMENT DWORD USE32 PUBLIC 'CONST'
rdata$r	ENDS
;	COMDAT ?Dump@CObject@@UBEXAAVCDumpContext@@@Z
_TEXT	SEGMENT PARA USE32 PUBLIC 'CODE'
_TEXT	ENDS
;	COMDAT ?AssertValid@CObject@@UBEXXZ
_TEXT	SEGMENT PARA USE32 PUBLIC 'CODE'
_TEXT	ENDS
;	COMDAT ??_R4?$CTypedPtrArray@VCPtrArray@@PAVBCMenuData@@@@6B@
rdata$r	SEGMENT DWORD USE32 PUBLIC 'CONST'
rdata$r	ENDS
;	COMDAT ??0?$allocator@_W@std@@QAE@XZ
_TEXT	SEGMENT PARA USE32 PUBLIC 'CODE'
_TEXT	ENDS
;	COMDAT ??0?$allocator@D@std@@QAE@ABV01@@Z
_TEXT	SEGMENT PARA USE32 PUBLIC 'CODE'
_TEXT	ENDS
;	COMDAT ??0?$allocator@D@std@@QAE@XZ
_TEXT	SEGMENT PARA USE32 PUBLIC 'CODE'
_TEXT	ENDS
;	COMDAT ?deallocate@?$allocator@D@std@@QAEXPADI@Z
_TEXT	SEGMENT PARA USE32 PUBLIC 'CODE'
_TEXT	ENDS
;	COMDAT ?max_size@?$allocator@D@std@@QBEIXZ
_TEXT	SEGMENT PARA USE32 PUBLIC 'CODE'
_TEXT	ENDS
;	COMDAT ?allocate@?$allocator@D@std@@QAEPADI@Z
_TEXT	SEGMENT PARA USE32 PUBLIC 'CODE'
_TEXT	ENDS
;	COMDAT ??$_Allocate@D@std@@YAPADIPAD@Z
_TEXT	SEGMENT PARA USE32 PUBLIC 'CODE'
_TEXT	ENDS
;	COMDAT ??_G?$numpunct@_W@std@@MAEPAXI@Z
_TEXT	SEGMENT PARA USE32 PUBLIC 'CODE'
_TEXT	ENDS
;	COMDAT ??_R4?$numpunct@_W@std@@6B@
rdata$r	SEGMENT DWORD USE32 PUBLIC 'CONST'
rdata$r	ENDS
;	COMDAT ??_G?$numpunct@D@std@@MAEPAXI@Z
_TEXT	SEGMENT PARA USE32 PUBLIC 'CODE'
_TEXT	ENDS
;	COMDAT ??_R4?$numpunct@D@std@@6B@
rdata$r	SEGMENT DWORD USE32 PUBLIC 'CONST'
rdata$r	ENDS
;	COMDAT ??2@YAPAXIPAX@Z
_TEXT	SEGMENT PARA USE32 PUBLIC 'CODE'
_TEXT	ENDS
;	COMDAT ??_7?$CArray@HH@@6B@
CONST	SEGMENT DWORD USE32 PUBLIC 'CONST'
CONST	ENDS
;	COMDAT ??_7?$CArray@PAVBCMenu@@PAV1@@@6B@
CONST	SEGMENT DWORD USE32 PUBLIC 'CONST'
CONST	ENDS
;	COMDAT ?IsStoring@CArchive@@QBEHXZ
_TEXT	SEGMENT PARA USE32 PUBLIC 'CODE'
_TEXT	ENDS
;	COMDAT ?Serialize@CObject@@UAEXAAVCArchive@@@Z
_TEXT	SEGMENT PARA USE32 PUBLIC 'CODE'
_TEXT	ENDS
;	COMDAT ??_7?$CArray@HAAH@@6B@
CONST	SEGMENT DWORD USE32 PUBLIC 'CONST'
CONST	ENDS
;	COMDAT ??1CObject@@UAE@XZ
_TEXT	SEGMENT PARA USE32 PUBLIC 'CODE'
_TEXT	ENDS
;	COMDAT ??0CObject@@IAE@XZ
_TEXT	SEGMENT PARA USE32 PUBLIC 'CODE'
_TEXT	ENDS
;	COMDAT ?_Psave@?$_Facetptr@V?$numpunct@_W@std@@@std@@2PBVfacet@locale@2@B
_DATA	SEGMENT DWORD USE32 PUBLIC 'DATA'
_DATA	ENDS
;	COMDAT ?_Psave@?$_Facetptr@V?$numpunct@D@std@@@std@@2PBVfacet@locale@2@B
_DATA	SEGMENT DWORD USE32 PUBLIC 'DATA'
_DATA	ENDS
;	COMDAT ?Unlock@CComCriticalSection@ATL@@QAEJXZ
_TEXT	SEGMENT PARA USE32 PUBLIC 'CODE'
_TEXT	ENDS
;	COMDAT ?_Psave@?$_Facetptr@V?$ctype@_W@std@@@std@@2PBVfacet@locale@2@B
_DATA	SEGMENT DWORD USE32 PUBLIC 'DATA'
_DATA	ENDS
;	COMDAT ?_Psave@?$_Facetptr@V?$ctype@D@std@@@std@@2PBVfacet@locale@2@B
_DATA	SEGMENT DWORD USE32 PUBLIC 'DATA'
_DATA	ENDS
;	COMDAT ??$_Maklocchr@_W@std@@YA_WDPA_WABU_Cvtvec@@@Z
_TEXT	SEGMENT PARA USE32 PUBLIC 'CODE'
_TEXT	ENDS
;	COMDAT ??$_Maklocstr@_W@std@@YAPA_WPBDPA_WABU_Cvtvec@@@Z
_TEXT	SEGMENT PARA USE32 PUBLIC 'CODE'
_TEXT	ENDS
;	COMDAT ??$_Maklocchr@D@std@@YADDPADABU_Cvtvec@@@Z
_TEXT	SEGMENT PARA USE32 PUBLIC 'CODE'
_TEXT	ENDS
;	COMDAT ??_C@_04LOAJBDKD@true?$AA@
CONST	SEGMENT DWORD USE32 PUBLIC 'CONST'
CONST	ENDS
;	COMDAT ??_C@_05LAPONLG@false?$AA@
CONST	SEGMENT DWORD USE32 PUBLIC 'CONST'
CONST	ENDS
;	COMDAT _wmemcpy
_TEXT	SEGMENT PARA USE32 PUBLIC 'CODE'
_TEXT	ENDS
;	COMDAT ?max_size@?$allocator@_W@std@@QBEIXZ
_TEXT	SEGMENT PARA USE32 PUBLIC 'CODE'
_TEXT	ENDS
;	COMDAT ?allocate@?$allocator@_W@std@@QAEPA_WI@Z
_TEXT	SEGMENT PARA USE32 PUBLIC 'CODE'
_TEXT	ENDS
;	COMDAT ??$_Allocate@_W@std@@YAPA_WIPA_W@Z
_TEXT	SEGMENT PARA USE32 PUBLIC 'CODE'
_TEXT	ENDS
;	COMDAT ?data@CStringData@ATL@@QAEPAXXZ
_TEXT	SEGMENT PARA USE32 PUBLIC 'CODE'
_TEXT	ENDS
;	COMDAT ??_C@_01GFHCPBMG@C?$AA@
CONST	SEGMENT DWORD USE32 PUBLIC 'CONST'
CONST	ENDS
;	COMDAT ??ACPtrArray@@QAEAAPAXH@Z
_TEXT	SEGMENT PARA USE32 PUBLIC 'CODE'
_TEXT	ENDS
;	COMDAT ?ElementAt@CPtrArray@@QAEAAPAXH@Z
_TEXT	SEGMENT PARA USE32 PUBLIC 'CODE'
_TEXT	ENDS
;	COMDAT ?Add@CPtrArray@@QAEHPAX@Z
_TEXT	SEGMENT PARA USE32 PUBLIC 'CODE'
_TEXT	ENDS
;	COMDAT ?GetAt@CPtrArray@@QBEPAXH@Z
_TEXT	SEGMENT PARA USE32 PUBLIC 'CODE'
_TEXT	ENDS
;	COMDAT ?_Peek@?$istreambuf_iterator@_WU?$char_traits@_W@std@@@std@@AAE_WXZ
_TEXT	SEGMENT PARA USE32 PUBLIC 'CODE'
_TEXT	ENDS
;	COMDAT ?_Peek@?$istreambuf_iterator@DU?$char_traits@D@std@@@std@@AAEDXZ
_TEXT	SEGMENT PARA USE32 PUBLIC 'CODE'
_TEXT	ENDS
;	COMDAT ??$use_facet@V?$ctype@_W@std@@@std@@YAABV?$ctype@_W@0@ABVlocale@0@@Z
_TEXT	SEGMENT PARA USE32 PUBLIC 'CODE'
_TEXT	ENDS
;	COMDAT ??_S?$ctype@_W@std@@6B@
CONST	SEGMENT DWORD USE32 PUBLIC 'CONST'
CONST	ENDS
;	COMDAT ??_R4?$ctype@_W@std@@6B@
rdata$r	SEGMENT DWORD USE32 PUBLIC 'CONST'
rdata$r	ENDS
;	COMDAT ??_R0?AV?$ctype@_W@std@@@8
_DATA	SEGMENT DWORD USE32 PUBLIC 'DATA'
_DATA	ENDS
;	COMDAT ??_R3?$ctype@_W@std@@8
rdata$r	SEGMENT DWORD USE32 PUBLIC 'CONST'
rdata$r	ENDS
;	COMDAT ??_R2?$ctype@_W@std@@8
rdata$r	SEGMENT DWORD USE32 PUBLIC 'CONST'
rdata$r	ENDS
;	COMDAT ??_R1A@?0A@A@?$ctype@_W@std@@8
rdata$r	SEGMENT DWORD USE32 PUBLIC 'CONST'
rdata$r	ENDS
;	COMDAT ??_R1A@?0A@A@ctype_base@std@@8
rdata$r	SEGMENT DWORD USE32 PUBLIC 'CONST'
rdata$r	ENDS
;	COMDAT ??_R0?AUctype_base@std@@@8
_DATA	SEGMENT DWORD USE32 PUBLIC 'DATA'
_DATA	ENDS
;	COMDAT ??_G?$ctype@_W@std@@MAEPAXI@Z
_TEXT	SEGMENT PARA USE32 PUBLIC 'CODE'
_TEXT	ENDS
;	COMDAT ??_C@_08EPJLHIJG@bad?5cast?$AA@
CONST	SEGMENT DWORD USE32 PUBLIC 'CONST'
CONST	ENDS
;	COMDAT __TI2?AVbad_cast@@
xdata$x	SEGMENT DWORD USE32 PUBLIC 'CONST'
xdata$x	ENDS
;	COMDAT __CTA2?AVbad_cast@@
xdata$x	SEGMENT DWORD USE32 PUBLIC 'CONST'
xdata$x	ENDS
;	COMDAT __CT??_R0?AVbad_cast@@@8??0bad_cast@@QAE@ABV0@@Z12
xdata$x	SEGMENT DWORD USE32 PUBLIC 'CONST'
xdata$x	ENDS
;	COMDAT ??_R0?AVbad_cast@@@8
_DATA	SEGMENT DWORD USE32 PUBLIC 'DATA'
_DATA	ENDS
;	COMDAT __CT??_R0?AVexception@@@8??0exception@@QAE@ABV0@@Z12
xdata$x	SEGMENT DWORD USE32 PUBLIC 'CONST'
xdata$x	ENDS
;	COMDAT ??_R0?AVexception@@@8
_DATA	SEGMENT DWORD USE32 PUBLIC 'DATA'
_DATA	ENDS
;	COMDAT ??$use_facet@V?$ctype@D@std@@@std@@YAABV?$ctype@D@0@ABVlocale@0@@Z
_TEXT	SEGMENT PARA USE32 PUBLIC 'CODE'
_TEXT	ENDS
;	COMDAT ??_S?$ctype@D@std@@6B@
CONST	SEGMENT DWORD USE32 PUBLIC 'CONST'
CONST	ENDS
;	COMDAT ??_R4?$ctype@D@std@@6B@
rdata$r	SEGMENT DWORD USE32 PUBLIC 'CONST'
rdata$r	ENDS
;	COMDAT ??_R0?AV?$ctype@D@std@@@8
_DATA	SEGMENT DWORD USE32 PUBLIC 'DATA'
_DATA	ENDS
;	COMDAT ??_R3?$ctype@D@std@@8
rdata$r	SEGMENT DWORD USE32 PUBLIC 'CONST'
rdata$r	ENDS
;	COMDAT ??_R2?$ctype@D@std@@8
rdata$r	SEGMENT DWORD USE32 PUBLIC 'CONST'
rdata$r	ENDS
;	COMDAT ??_R1A@?0A@A@?$ctype@D@std@@8
rdata$r	SEGMENT DWORD USE32 PUBLIC 'CONST'
rdata$r	ENDS
;	COMDAT ??_G?$ctype@D@std@@MAEPAXI@Z
_TEXT	SEGMENT PARA USE32 PUBLIC 'CODE'
_TEXT	ENDS
;	COMDAT ??_S?$numpunct@_W@std@@6B@
CONST	SEGMENT DWORD USE32 PUBLIC 'CONST'
CONST	ENDS
;	COMDAT ??_S?$numpunct@D@std@@6B@
CONST	SEGMENT DWORD USE32 PUBLIC 'CONST'
CONST	ENDS
;	COMDAT _wmemmove
_TEXT	SEGMENT PARA USE32 PUBLIC 'CODE'
_TEXT	ENDS
;	COMDAT ?deallocate@?$allocator@_W@std@@QAEXPA_WI@Z
_TEXT	SEGMENT PARA USE32 PUBLIC 'CODE'
_TEXT	ENDS
;	COMDAT ??0?$allocator@_W@std@@QAE@ABV01@@Z
_TEXT	SEGMENT PARA USE32 PUBLIC 'CODE'
_TEXT	ENDS
;	COMDAT ?IsShared@CStringData@ATL@@QBE_NXZ
_TEXT	SEGMENT PARA USE32 PUBLIC 'CODE'
_TEXT	ENDS
;	COMDAT ?Release@CStringData@ATL@@QAEXXZ
_TEXT	SEGMENT PARA USE32 PUBLIC 'CODE'
_TEXT	ENDS
;	COMDAT ?GetDefaultManager@?$StrTraitMFC_DLL@DV?$ChTraitsCRT@D@ATL@@@@SAPAUIAtlStringMgr@ATL@@XZ
_TEXT	SEGMENT PARA USE32 PUBLIC 'CODE'
_TEXT	ENDS
;	COMDAT ?AtlThrow@ATL@@YGXJ@Z
_TEXT	SEGMENT PARA USE32 PUBLIC 'CODE'
_TEXT	ENDS
;	COMDAT ?Replace@CImageList@@QAEHHPAUHICON__@@@Z
_TEXT	SEGMENT PARA USE32 PUBLIC 'CODE'
_TEXT	ENDS
;	COMDAT ?XPTheme_returnflag@?1??IsWindowsClassicTheme@BCMenu@@KAHXZ@4HA
_DATA	SEGMENT DWORD USE32 PUBLIC 'DATA'
_DATA	ENDS
;	COMDAT ?XPTheme_checkflag@?1??IsWindowsClassicTheme@BCMenu@@KAHXZ@4HA
_DATA	SEGMENT DWORD USE32 PUBLIC 'DATA'
_DATA	ENDS
;	COMDAT ?Rectangle@CDC@@QAEHHHHH@Z
_TEXT	SEGMENT PARA USE32 PUBLIC 'CODE'
_TEXT	ENDS
;	COMDAT ?CreateHatchBrush@CBrush@@QAEHHK@Z
_TEXT	SEGMENT PARA USE32 PUBLIC 'CODE'
_TEXT	ENDS
;	COMDAT ??9CSize@@QBEHUtagSIZE@@@Z
_TEXT	SEGMENT PARA USE32 PUBLIC 'CODE'
_TEXT	ENDS
;	COMDAT ?GetSubMenu@CMenu@@QBEPAV1@H@Z
_TEXT	SEGMENT PARA USE32 PUBLIC 'CODE'
_TEXT	ENDS
;	COMDAT ?DeleteMenu@CMenu@@QAEHII@Z
_TEXT	SEGMENT PARA USE32 PUBLIC 'CODE'
_TEXT	ENDS
;	COMDAT ?RemoveMenu@CMenu@@QAEHII@Z
_TEXT	SEGMENT PARA USE32 PUBLIC 'CODE'
_TEXT	ENDS
;	COMDAT ?PatBlt@CDC@@QAEHHHHHK@Z
_TEXT	SEGMENT PARA USE32 PUBLIC 'CODE'
_TEXT	ENDS
;	COMDAT ??BCRect@@QBEPBUtagRECT@@XZ
_TEXT	SEGMENT PARA USE32 PUBLIC 'CODE'
_TEXT	ENDS
;	COMDAT ?LoadBitmapA@CBitmap@@QAEHI@Z
_TEXT	SEGMENT PARA USE32 PUBLIC 'CODE'
_TEXT	ENDS
;	COMDAT ?Add@CImageList@@QAEHPAUHICON__@@@Z
_TEXT	SEGMENT PARA USE32 PUBLIC 'CODE'
_TEXT	ENDS
;	COMDAT ?GetPixel@CDC@@QBEKHH@Z
_TEXT	SEGMENT PARA USE32 PUBLIC 'CODE'
_TEXT	ENDS
;	COMDAT ?GetBitmap@CBitmap@@QAEHPAUtagBITMAP@@@Z
_TEXT	SEGMENT PARA USE32 PUBLIC 'CODE'
_TEXT	ENDS
;	COMDAT ?FindStringResourceInstance@?$StrTraitMFC_DLL@DV?$ChTraitsCRT@D@ATL@@@@SAPAUHINSTANCE__@@I@Z
_TEXT	SEGMENT PARA USE32 PUBLIC 'CODE'
_TEXT	ENDS
;	COMDAT ?AtlGetStringResourceImage@ATL@@YAPBUATLSTRINGRESOURCEIMAGE@1@PAUHINSTANCE__@@I@Z
_TEXT	SEGMENT PARA USE32 PUBLIC 'CODE'
_TEXT	ENDS
;	COMDAT ?_AtlGetStringResourceImage@ATL@@YAPBUATLSTRINGRESOURCEIMAGE@1@PAUHINSTANCE__@@PAUHRSRC__@@I@Z
_TEXT	SEGMENT PARA USE32 PUBLIC 'CODE'
_TEXT	ENDS
;	COMDAT ?GetBaseTypeLength@?$ChTraitsCRT@D@ATL@@SAHPB_WH@Z
_TEXT	SEGMENT PARA USE32 PUBLIC 'CODE'
_TEXT	ENDS
;	COMDAT ?ConvertToBaseType@?$ChTraitsCRT@D@ATL@@SAXPADHPB_WH@Z
_TEXT	SEGMENT PARA USE32 PUBLIC 'CODE'
_TEXT	ENDS
;	COMDAT ?SetPixel@CDC@@QAEKHHK@Z
_TEXT	SEGMENT PARA USE32 PUBLIC 'CODE'
_TEXT	ENDS
;	COMDAT ?Ellipse@CDC@@QAEHPBUtagRECT@@@Z
_TEXT	SEGMENT PARA USE32 PUBLIC 'CODE'
_TEXT	ENDS
;	COMDAT ?GetTextExtent@CDC@@QBE?AVCSize@@PBDH@Z
_TEXT	SEGMENT PARA USE32 PUBLIC 'CODE'
_TEXT	ENDS
;	COMDAT ??0CSize@@QAE@XZ
_TEXT	SEGMENT PARA USE32 PUBLIC 'CODE'
_TEXT	ENDS
;	COMDAT ?GetSize@CPtrArray@@QBEHXZ
_TEXT	SEGMENT PARA USE32 PUBLIC 'CODE'
_TEXT	ENDS
;	COMDAT ??_7?$CTypedPtrArray@VCPtrArray@@PAVBCMenu@@@@6B@
CONST	SEGMENT DWORD USE32 PUBLIC 'CONST'
CONST	ENDS
;	COMDAT ?CreatePopupMenu@CMenu@@QAEHXZ
_TEXT	SEGMENT PARA USE32 PUBLIC 'CODE'
_TEXT	ENDS
;	COMDAT ?CreateMenu@CMenu@@QAEHXZ
_TEXT	SEGMENT PARA USE32 PUBLIC 'CODE'
_TEXT	ENDS
;	COMDAT ?GetMenuItemID@CMenu@@QBEIH@Z
_TEXT	SEGMENT PARA USE32 PUBLIC 'CODE'
_TEXT	ENDS
;	COMDAT ??_R0?AVCMenu@@@8
_DATA	SEGMENT DWORD USE32 PUBLIC 'DATA'
_DATA	ENDS
;	COMDAT ??_R0?AVBCMenu@@@8
_DATA	SEGMENT DWORD USE32 PUBLIC 'DATA'
_DATA	ENDS
;	COMDAT ?GetMenuState@CMenu@@QBEIII@Z
_TEXT	SEGMENT PARA USE32 PUBLIC 'CODE'
_TEXT	ENDS
;	COMDAT ?GetCount@CControlBar@@QBEHXZ
_TEXT	SEGMENT PARA USE32 PUBLIC 'CODE'
_TEXT	ENDS
;	COMDAT ?LoadToolBar@CToolBar@@QAEHI@Z
_TEXT	SEGMENT PARA USE32 PUBLIC 'CODE'
_TEXT	ENDS
;	COMDAT ?GetBaseTypeLength@?$ChTraitsCRT@D@ATL@@SAHPB_W@Z
_TEXT	SEGMENT PARA USE32 PUBLIC 'CODE'
_TEXT	ENDS
;	COMDAT ??0CSize@@QAE@HH@Z
_TEXT	SEGMENT PARA USE32 PUBLIC 'CODE'
_TEXT	ENDS
;	COMDAT ?Add@CImageList@@QAEHPAVCBitmap@@K@Z
_TEXT	SEGMENT PARA USE32 PUBLIC 'CODE'
_TEXT	ENDS
;	COMDAT ?ModifyMenuA@CMenu@@QAEHIIIPBD@Z
_TEXT	SEGMENT PARA USE32 PUBLIC 'CODE'
_TEXT	ENDS
;	COMDAT ?InsertMenuA@CMenu@@QAEHIIIPBD@Z
_TEXT	SEGMENT PARA USE32 PUBLIC 'CODE'
_TEXT	ENDS
;	COMDAT ?GetMenuItemCount@CMenu@@QBEIXZ
_TEXT	SEGMENT PARA USE32 PUBLIC 'CODE'
_TEXT	ENDS
;	COMDAT ?AppendMenuA@CMenu@@QAEHIIPBD@Z
_TEXT	SEGMENT PARA USE32 PUBLIC 'CODE'
_TEXT	ENDS
;	COMDAT ?ReleaseDC@CWnd@@QAEHPAVCDC@@@Z
_TEXT	SEGMENT PARA USE32 PUBLIC 'CODE'
_TEXT	ENDS
;	COMDAT ??0CSize@@QAE@UtagSIZE@@@Z
_TEXT	SEGMENT PARA USE32 PUBLIC 'CODE'
_TEXT	ENDS
;	COMDAT ?GetDC@CWnd@@QAEPAVCDC@@XZ
_TEXT	SEGMENT PARA USE32 PUBLIC 'CODE'
_TEXT	ENDS
;	COMDAT ?GetDesktopWindow@CWnd@@SGPAV1@XZ
_TEXT	SEGMENT PARA USE32 PUBLIC 'CODE'
_TEXT	ENDS
;	COMDAT ?AfxGetMainWnd@@YGPAVCWnd@@XZ
_TEXT	SEGMENT PARA USE32 PUBLIC 'CODE'
_TEXT	ENDS
;	COMDAT ?GetSafeHdc@CDC@@QBEPAUHDC__@@XZ
_TEXT	SEGMENT PARA USE32 PUBLIC 'CODE'
_TEXT	ENDS
;	COMDAT ??BCBrush@@QBEPAUHBRUSH__@@XZ
_TEXT	SEGMENT PARA USE32 PUBLIC 'CODE'
_TEXT	ENDS
;	COMDAT ?ExtractIconA@CImageList@@QAEPAUHICON__@@H@Z
_TEXT	SEGMENT PARA USE32 PUBLIC 'CODE'
_TEXT	ENDS
;	COMDAT ?GetImageCount@CImageList@@QBEHXZ
_TEXT	SEGMENT PARA USE32 PUBLIC 'CODE'
_TEXT	ENDS
;	COMDAT ?CreateFontIndirectA@CFont@@QAEHPBUtagLOGFONTA@@@Z
_TEXT	SEGMENT PARA USE32 PUBLIC 'CODE'
_TEXT	ENDS
;	COMDAT ??2CObject@@SGPAXI@Z
_TEXT	SEGMENT PARA USE32 PUBLIC 'CODE'
_TEXT	ENDS
;	COMDAT ??1CFont@@UAE@XZ
_TEXT	SEGMENT PARA USE32 PUBLIC 'CODE'
_TEXT	ENDS
;	COMDAT ??_7CFont@@6B@
CONST	SEGMENT DWORD USE32 PUBLIC 'CONST'
CONST	ENDS
;	COMDAT ??_R4CFont@@6B@
rdata$r	SEGMENT DWORD USE32 PUBLIC 'CONST'
rdata$r	ENDS
;	COMDAT ??_R0?AVCFont@@@8
_DATA	SEGMENT DWORD USE32 PUBLIC 'DATA'
_DATA	ENDS
;	COMDAT ??_R3CFont@@8
rdata$r	SEGMENT DWORD USE32 PUBLIC 'CONST'
rdata$r	ENDS
;	COMDAT ??_R2CFont@@8
rdata$r	SEGMENT DWORD USE32 PUBLIC 'CONST'
rdata$r	ENDS
;	COMDAT ??_R1A@?0A@A@CFont@@8
rdata$r	SEGMENT DWORD USE32 PUBLIC 'CONST'
rdata$r	ENDS
;	COMDAT ??_R1A@?0A@A@CGdiObject@@8
rdata$r	SEGMENT DWORD USE32 PUBLIC 'CONST'
rdata$r	ENDS
;	COMDAT ??_R0?AVCGdiObject@@@8
_DATA	SEGMENT DWORD USE32 PUBLIC 'DATA'
_DATA	ENDS
;	COMDAT ??_GCFont@@UAEPAXI@Z
_TEXT	SEGMENT PARA USE32 PUBLIC 'CODE'
_TEXT	ENDS
;	COMDAT ??1CGdiObject@@UAE@XZ
_TEXT	SEGMENT PARA USE32 PUBLIC 'CODE'
_TEXT	ENDS
;	COMDAT ??_7CGdiObject@@6B@
CONST	SEGMENT DWORD USE32 PUBLIC 'CONST'
CONST	ENDS
;	COMDAT ??_R4CGdiObject@@6B@
rdata$r	SEGMENT DWORD USE32 PUBLIC 'CONST'
rdata$r	ENDS
;	COMDAT ??_R3CGdiObject@@8
rdata$r	SEGMENT DWORD USE32 PUBLIC 'CONST'
rdata$r	ENDS
;	COMDAT ??_R2CGdiObject@@8
rdata$r	SEGMENT DWORD USE32 PUBLIC 'CONST'
rdata$r	ENDS
;	COMDAT ??_GCGdiObject@@UAEPAXI@Z
_TEXT	SEGMENT PARA USE32 PUBLIC 'CODE'
_TEXT	ENDS
;	COMDAT ??0CFont@@QAE@XZ
_TEXT	SEGMENT PARA USE32 PUBLIC 'CODE'
_TEXT	ENDS
;	COMDAT ??0CGdiObject@@QAE@XZ
_TEXT	SEGMENT PARA USE32 PUBLIC 'CODE'
_TEXT	ENDS
;	COMDAT ?DrawTextA@CDC@@QAEHABV?$CStringT@DV?$StrTraitMFC_DLL@DV?$ChTraitsCRT@D@ATL@@@@@ATL@@PAUtagRECT@@I@Z
_TEXT	SEGMENT PARA USE32 PUBLIC 'CODE'
_TEXT	ENDS
;	COMDAT ?GetBkMode@CDC@@QBEHXZ
_TEXT	SEGMENT PARA USE32 PUBLIC 'CODE'
_TEXT	ENDS
;	COMDAT ??0CRect@@QAE@HHHH@Z
_TEXT	SEGMENT PARA USE32 PUBLIC 'CODE'
_TEXT	ENDS
;	COMDAT ??BCBitmap@@QBEPAUHBITMAP__@@XZ
_TEXT	SEGMENT PARA USE32 PUBLIC 'CODE'
_TEXT	ENDS
;	COMDAT ?Draw@CImageList@@QAEHPAVCDC@@HUtagPOINT@@I@Z
_TEXT	SEGMENT PARA USE32 PUBLIC 'CODE'
_TEXT	ENDS
;	COMDAT ??0CPoint@@QAE@HH@Z
_TEXT	SEGMENT PARA USE32 PUBLIC 'CODE'
_TEXT	ENDS
;	COMDAT ?SetRect@CRect@@QAEXHHHH@Z
_TEXT	SEGMENT PARA USE32 PUBLIC 'CODE'
_TEXT	ENDS
;	COMDAT ?IsLocked@CStringData@ATL@@QBE_NXZ
_TEXT	SEGMENT PARA USE32 PUBLIC 'CODE'
_TEXT	ENDS
;	COMDAT ?AddRef@CStringData@ATL@@QAEXXZ
_TEXT	SEGMENT PARA USE32 PUBLIC 'CODE'
_TEXT	ENDS
;	COMDAT ?CreatePen@CPen@@QAEHHHK@Z
_TEXT	SEGMENT PARA USE32 PUBLIC 'CODE'
_TEXT	ENDS
;	COMDAT ??1CPen@@UAE@XZ
_TEXT	SEGMENT PARA USE32 PUBLIC 'CODE'
_TEXT	ENDS
;	COMDAT ??_7CPen@@6B@
CONST	SEGMENT DWORD USE32 PUBLIC 'CONST'
CONST	ENDS
;	COMDAT ??_R4CPen@@6B@
rdata$r	SEGMENT DWORD USE32 PUBLIC 'CONST'
rdata$r	ENDS
;	COMDAT ??_R0?AVCPen@@@8
_DATA	SEGMENT DWORD USE32 PUBLIC 'DATA'
_DATA	ENDS
;	COMDAT ??_R3CPen@@8
rdata$r	SEGMENT DWORD USE32 PUBLIC 'CONST'
rdata$r	ENDS
;	COMDAT ??_R2CPen@@8
rdata$r	SEGMENT DWORD USE32 PUBLIC 'CONST'
rdata$r	ENDS
;	COMDAT ??_R1A@?0A@A@CPen@@8
rdata$r	SEGMENT DWORD USE32 PUBLIC 'CONST'
rdata$r	ENDS
;	COMDAT ??_GCPen@@UAEPAXI@Z
_TEXT	SEGMENT PARA USE32 PUBLIC 'CODE'
_TEXT	ENDS
;	COMDAT ??0CPen@@QAE@XZ
_TEXT	SEGMENT PARA USE32 PUBLIC 'CODE'
_TEXT	ENDS
;	COMDAT ?DrawEdge@CDC@@QAEHPAUtagRECT@@II@Z
_TEXT	SEGMENT PARA USE32 PUBLIC 'CODE'
_TEXT	ENDS
;	COMDAT ??BCRect@@QAEPAUtagRECT@@XZ
_TEXT	SEGMENT PARA USE32 PUBLIC 'CODE'
_TEXT	ENDS
;	COMDAT ?FillRect@CDC@@QAEXPBUtagRECT@@PAVCBrush@@@Z
_TEXT	SEGMENT PARA USE32 PUBLIC 'CODE'
_TEXT	ENDS
;	COMDAT ?CreateSolidBrush@CBrush@@QAEHK@Z
_TEXT	SEGMENT PARA USE32 PUBLIC 'CODE'
_TEXT	ENDS
;	COMDAT ??1CBrush@@UAE@XZ
_TEXT	SEGMENT PARA USE32 PUBLIC 'CODE'
_TEXT	ENDS
;	COMDAT ??_7CBrush@@6B@
CONST	SEGMENT DWORD USE32 PUBLIC 'CONST'
CONST	ENDS
;	COMDAT ??_R4CBrush@@6B@
rdata$r	SEGMENT DWORD USE32 PUBLIC 'CONST'
rdata$r	ENDS
;	COMDAT ??_R0?AVCBrush@@@8
_DATA	SEGMENT DWORD USE32 PUBLIC 'DATA'
_DATA	ENDS
;	COMDAT ??_R3CBrush@@8
rdata$r	SEGMENT DWORD USE32 PUBLIC 'CONST'
rdata$r	ENDS
;	COMDAT ??_R2CBrush@@8
rdata$r	SEGMENT DWORD USE32 PUBLIC 'CONST'
rdata$r	ENDS
;	COMDAT ??_R1A@?0A@A@CBrush@@8
rdata$r	SEGMENT DWORD USE32 PUBLIC 'CONST'
rdata$r	ENDS
;	COMDAT ??_GCBrush@@UAEPAXI@Z
_TEXT	SEGMENT PARA USE32 PUBLIC 'CODE'
_TEXT	ENDS
;	COMDAT ??0CBrush@@QAE@XZ
_TEXT	SEGMENT PARA USE32 PUBLIC 'CODE'
_TEXT	ENDS
;	COMDAT ?GetDeviceCaps@CDC@@QBEHH@Z
_TEXT	SEGMENT PARA USE32 PUBLIC 'CODE'
_TEXT	ENDS
;	COMDAT ?RemoveAll@CPtrArray@@QAEXXZ
_TEXT	SEGMENT PARA USE32 PUBLIC 'CODE'
_TEXT	ENDS
;	COMDAT ?GetUpperBound@CPtrArray@@QBEHXZ
_TEXT	SEGMENT PARA USE32 PUBLIC 'CODE'
_TEXT	ENDS
;	COMDAT ??_7?$CTypedPtrArray@VCPtrArray@@PAVBCMenuData@@@@6B@
CONST	SEGMENT DWORD USE32 PUBLIC 'CONST'
CONST	ENDS
;	COMDAT ??_7BCMenu@@6B@
CONST	SEGMENT DWORD USE32 PUBLIC 'CONST'
CONST	ENDS
;	COMDAT ??1CMenu@@UAE@XZ
_TEXT	SEGMENT PARA USE32 PUBLIC 'CODE'
_TEXT	ENDS
;	COMDAT ??_7CMenu@@6B@
CONST	SEGMENT DWORD USE32 PUBLIC 'CONST'
CONST	ENDS
;	COMDAT ??_R4CMenu@@6B@
rdata$r	SEGMENT DWORD USE32 PUBLIC 'CONST'
rdata$r	ENDS
;	COMDAT ??_R3CMenu@@8
rdata$r	SEGMENT DWORD USE32 PUBLIC 'CONST'
rdata$r	ENDS
;	COMDAT ??_R2CMenu@@8
rdata$r	SEGMENT DWORD USE32 PUBLIC 'CONST'
rdata$r	ENDS
;	COMDAT ??_GCMenu@@UAEPAXI@Z
_TEXT	SEGMENT PARA USE32 PUBLIC 'CODE'
_TEXT	ENDS
;	COMDAT ??0CMenu@@QAE@XZ
_TEXT	SEGMENT PARA USE32 PUBLIC 'CODE'
_TEXT	ENDS
;	COMDAT ?classBCMenu@BCMenu@@2UCRuntimeClass@@B
CONST	SEGMENT DWORD USE32 PUBLIC 'CONST'
CONST	ENDS
;	COMDAT ??_7?$CTypedPtrArray@VCPtrArray@@PAUHMENU__@@@@6B@
CONST	SEGMENT DWORD USE32 PUBLIC 'CONST'
CONST	ENDS
;	COMDAT ?_AtlGetConversionACP@ATL@@YGIXZ
_TEXT	SEGMENT PARA USE32 PUBLIC 'CODE'
_TEXT	ENDS
;	COMDAT ?g_pfnGetThreadACP@ATL@@3P6GIXZA
_DATA	SEGMENT DWORD USE32 PUBLIC 'DATA'
_DATA	ENDS
;	COMDAT ?_AtlGetThreadACPThunk@ATL@@YGIXZ
_TEXT	SEGMENT PARA USE32 PUBLIC 'CODE'
_TEXT	ENDS
;	COMDAT ?_AtlGetThreadACPReal@ATL@@YGIXZ
_TEXT	SEGMENT PARA USE32 PUBLIC 'CODE'
_TEXT	ENDS
;	COMDAT ?_AtlGetThreadACPFake@ATL@@YGIXZ
_TEXT	SEGMENT PARA USE32 PUBLIC 'CODE'
_TEXT	ENDS
;	COMDAT ?InterlockedExchangePointer@@YGPAXPAPAXPAX@Z
_TEXT	SEGMENT PARA USE32 PUBLIC 'CODE'
_TEXT	ENDS
;	COMDAT ??3CObject@@SGXPAX@Z
_TEXT	SEGMENT PARA USE32 PUBLIC 'CODE'
_TEXT	ENDS
;	COMDAT ?BitBlt@CDC@@QAEHHHHHPAV1@HHK@Z
_TEXT	SEGMENT PARA USE32 PUBLIC 'CODE'
_TEXT	ENDS
;	COMDAT ?SelectObject@CDC@@QAEPAVCBitmap@@PAV2@@Z
_TEXT	SEGMENT PARA USE32 PUBLIC 'CODE'
_TEXT	ENDS
;	COMDAT ?Width@CRect@@QBEHXZ
_TEXT	SEGMENT PARA USE32 PUBLIC 'CODE'
_TEXT	ENDS
;	COMDAT ?Height@CRect@@QBEHXZ
_TEXT	SEGMENT PARA USE32 PUBLIC 'CODE'
_TEXT	ENDS
;	COMDAT ?CreateCompatibleBitmap@CBitmap@@QAEHPAVCDC@@HH@Z
_TEXT	SEGMENT PARA USE32 PUBLIC 'CODE'
_TEXT	ENDS
;	COMDAT ?CreateCompatibleDC@CDC@@QAEHPAV1@@Z
_TEXT	SEGMENT PARA USE32 PUBLIC 'CODE'
_TEXT	ENDS
;	COMDAT ?IsPrinting@CDC@@QBEHXZ
_TEXT	SEGMENT PARA USE32 PUBLIC 'CODE'
_TEXT	ENDS
;	COMDAT ?CopyRect@CRect@@QAEXPBUtagRECT@@@Z
_TEXT	SEGMENT PARA USE32 PUBLIC 'CODE'
_TEXT	ENDS
;	COMDAT ??0CRect@@QAE@XZ
_TEXT	SEGMENT PARA USE32 PUBLIC 'CODE'
_TEXT	ENDS
;	COMDAT ??1CBitmap@@UAE@XZ
_TEXT	SEGMENT PARA USE32 PUBLIC 'CODE'
_TEXT	ENDS
;	COMDAT ??_7CBitmap@@6B@
CONST	SEGMENT DWORD USE32 PUBLIC 'CONST'
CONST	ENDS
;	COMDAT ??_R4CBitmap@@6B@
rdata$r	SEGMENT DWORD USE32 PUBLIC 'CONST'
rdata$r	ENDS
;	COMDAT ??_R0?AVCBitmap@@@8
_DATA	SEGMENT DWORD USE32 PUBLIC 'DATA'
_DATA	ENDS
;	COMDAT ??_R3CBitmap@@8
rdata$r	SEGMENT DWORD USE32 PUBLIC 'CONST'
rdata$r	ENDS
;	COMDAT ??_R2CBitmap@@8
rdata$r	SEGMENT DWORD USE32 PUBLIC 'CONST'
rdata$r	ENDS
;	COMDAT ??_R1A@?0A@A@CBitmap@@8
rdata$r	SEGMENT DWORD USE32 PUBLIC 'CONST'
rdata$r	ENDS
;	COMDAT ??_GCBitmap@@UAEPAXI@Z
_TEXT	SEGMENT PARA USE32 PUBLIC 'CODE'
_TEXT	ENDS
;	COMDAT ??0CBitmap@@QAE@XZ
_TEXT	SEGMENT PARA USE32 PUBLIC 'CODE'
_TEXT	ENDS
;	COMDAT ??_7BCMenuMemDC@@6B@
CONST	SEGMENT DWORD USE32 PUBLIC 'CONST'
CONST	ENDS
sxdata	SEGMENT DWORD USE32 'SXDATA'
sxdata	ENDS
FLAT	GROUP _DATA, CONST, _BSS
	ASSUME	CS: FLAT, DS: FLAT, SS: FLAT
endif

INCLUDELIB MSVCRT
INCLUDELIB OLDNAMES

PUBLIC	?m_iconX@BCMenu@@1HA				; BCMenu::m_iconX
PUBLIC	?m_iconY@BCMenu@@1HA				; BCMenu::m_iconY
PUBLIC	?original_drawmode@BCMenu@@1IA			; BCMenu::original_drawmode
PUBLIC	?original_select_disabled@BCMenu@@1HA		; BCMenu::original_select_disabled
PUBLIC	?xp_drawmode@BCMenu@@1IA			; BCMenu::xp_drawmode
PUBLIC	?xp_select_disabled@BCMenu@@1HA			; BCMenu::xp_select_disabled
PUBLIC	?xp_draw_3D_bitmaps@BCMenu@@1HA			; BCMenu::xp_draw_3D_bitmaps
PUBLIC	?hicolor_bitmaps@BCMenu@@1HA			; BCMenu::hicolor_bitmaps
PUBLIC	?xp_space_accelerators@BCMenu@@1HA		; BCMenu::xp_space_accelerators
PUBLIC	?original_space_accelerators@BCMenu@@1HA	; BCMenu::original_space_accelerators
PUBLIC	?g_pfnGetThreadACP@ATL@@3P6GIXZA		; ATL::g_pfnGetThreadACP
PUBLIC	?_AtlGetThreadACPThunk@ATL@@YGIXZ		; ATL::_AtlGetThreadACPThunk
PUBLIC	?classBCMenu@BCMenu@@2UCRuntimeClass@@B		; BCMenu::classBCMenu
EXTRN	?GetThisClass@CMenu@@SGPAUCRuntimeClass@@XZ:NEAR ; CMenu::GetThisClass
_BSS	SEGMENT
?original_drawmode@BCMenu@@1IA DD 01H DUP (?)		; BCMenu::original_drawmode
?xp_select_disabled@BCMenu@@1HA DD 01H DUP (?)		; BCMenu::xp_select_disabled
?hicolor_bitmaps@BCMenu@@1HA DD 01H DUP (?)		; BCMenu::hicolor_bitmaps
_BSS	ENDS
_DATA	SEGMENT
?original_select_disabled@BCMenu@@1HA DD 01H		; BCMenu::original_select_disabled
?xp_drawmode@BCMenu@@1IA DD 01H				; BCMenu::xp_drawmode
?xp_draw_3D_bitmaps@BCMenu@@1HA DD 01H			; BCMenu::xp_draw_3D_bitmaps
?xp_space_accelerators@BCMenu@@1HA DD 01H		; BCMenu::xp_space_accelerators
?original_space_accelerators@BCMenu@@1HA DD 01H		; BCMenu::original_space_accelerators
?m_iconX@BCMenu@@1HA DD 010H				; BCMenu::m_iconX
?m_iconY@BCMenu@@1HA DD 0fH				; BCMenu::m_iconY
_DATA	ENDS
CONST	SEGMENT
$SG198185 DB	'BCMenu', 00H
CONST	ENDS
;	COMDAT ?classBCMenu@BCMenu@@2UCRuntimeClass@@B
CONST	SEGMENT
?classBCMenu@BCMenu@@2UCRuntimeClass@@B DD FLAT:$SG198185 ; BCMenu::classBCMenu
	DD	064H
	DD	0ffffH
	DD	00H
	DD	FLAT:?GetThisClass@CMenu@@SGPAUCRuntimeClass@@XZ
	DD	00H
	DD	00H
CONST	ENDS
CONST	SEGMENT
	ORG $+1
$SG199588 DB	' ', 00H
$SG199761 DB	00H
$SG200250 DB	00H
$SG200669 DB	'Software\Microsoft\Plus!\Themes\Current', 00H
$SG200674 DB	'Windows Classic.theme', 00H
CONST	ENDS
;	COMDAT ?g_pfnGetThreadACP@ATL@@3P6GIXZA
_DATA	SEGMENT
?g_pfnGetThreadACP@ATL@@3P6GIXZA DD FLAT:?_AtlGetThreadACPThunk@ATL@@YGIXZ ; ATL::g_pfnGetThreadACP
_DATA	ENDS
PUBLIC	?IsShellType@@YA?AW4Win32Type@@XZ		; IsShellType
EXTRN	__imp__GetVersion@0:NEAR
EXTRN	__imp__GetVersionExA@4:NEAR
EXTRN	_memset:NEAR
EXTRN	__imp__free:NEAR
EXTRN	__imp__malloc:NEAR
; Function compile flags: /Odt
; File d:\boxgit\playbox\playbox\dev\prj\playbox\src\gui\util\bcmenu.cpp
_TEXT	SEGMENT
_osvi$ = -12						; size = 4
_ShellType$ = -8					; size = 4
_winVer$ = -4						; size = 4
?IsShellType@@YA?AW4Win32Type@@XZ PROC NEAR		; IsShellType

; 85   : {

  00000	55		 push	 ebp
  00001	8b ec		 mov	 ebp, esp
  00003	83 ec 0c	 sub	 esp, 12			; 0000000cH

; 86   : 	Win32Type  ShellType;
; 87   : 	DWORD winVer;
; 88   : 	OSVERSIONINFO *osvi;
; 89   : 	
; 90   : 	winVer=GetVersion();

  00006	ff 15 00 00 00
	00		 call	 DWORD PTR __imp__GetVersion@0
  0000c	89 45 fc	 mov	 DWORD PTR _winVer$[ebp], eax

; 91   : 	if(winVer<0x80000000){/*NT */

  0000f	81 7d fc 00 00
	00 80		 cmp	 DWORD PTR _winVer$[ebp], -2147483648 ; 80000000H
  00016	0f 83 9c 00 00
	00		 jae	 $L198120

; 92   : 		ShellType=WinNT3;

  0001c	c7 45 f8 01 00
	00 00		 mov	 DWORD PTR _ShellType$[ebp], 1

; 93   : 		osvi= (OSVERSIONINFO *)malloc(sizeof(OSVERSIONINFO));

  00023	68 94 00 00 00	 push	 148			; 00000094H
  00028	ff 15 00 00 00
	00		 call	 DWORD PTR __imp__malloc
  0002e	83 c4 04	 add	 esp, 4
  00031	89 45 f4	 mov	 DWORD PTR _osvi$[ebp], eax

; 94   : 		if (osvi!=NULL){

  00034	83 7d f4 00	 cmp	 DWORD PTR _osvi$[ebp], 0
  00038	74 79		 je	 SHORT $L198123

; 95   : 			memset(osvi,0,sizeof(OSVERSIONINFO));

  0003a	68 94 00 00 00	 push	 148			; 00000094H
  0003f	6a 00		 push	 0
  00041	8b 45 f4	 mov	 eax, DWORD PTR _osvi$[ebp]
  00044	50		 push	 eax
  00045	e8 00 00 00 00	 call	 _memset
  0004a	83 c4 0c	 add	 esp, 12			; 0000000cH

; 96   : 			osvi->dwOSVersionInfoSize=sizeof(OSVERSIONINFO);

  0004d	8b 4d f4	 mov	 ecx, DWORD PTR _osvi$[ebp]
  00050	c7 01 94 00 00
	00		 mov	 DWORD PTR [ecx], 148	; 00000094H

; 97   : 			GetVersionEx(osvi);

  00056	8b 55 f4	 mov	 edx, DWORD PTR _osvi$[ebp]
  00059	52		 push	 edx
  0005a	ff 15 00 00 00
	00		 call	 DWORD PTR __imp__GetVersionExA@4

; 98   : 			if(osvi->dwMajorVersion==4L)ShellType=WinNT4;

  00060	8b 45 f4	 mov	 eax, DWORD PTR _osvi$[ebp]
  00063	83 78 04 04	 cmp	 DWORD PTR [eax+4], 4
  00067	75 09		 jne	 SHORT $L198126
  00069	c7 45 f8 05 00
	00 00		 mov	 DWORD PTR _ShellType$[ebp], 5

; 99   : 			else if(osvi->dwMajorVersion==5L&&osvi->dwMinorVersion==0L)ShellType=Win2000;

  00070	eb 34		 jmp	 SHORT $L198127
$L198126:
  00072	8b 4d f4	 mov	 ecx, DWORD PTR _osvi$[ebp]
  00075	83 79 04 05	 cmp	 DWORD PTR [ecx+4], 5
  00079	75 12		 jne	 SHORT $L198128
  0007b	8b 55 f4	 mov	 edx, DWORD PTR _osvi$[ebp]
  0007e	83 7a 08 00	 cmp	 DWORD PTR [edx+8], 0
  00082	75 09		 jne	 SHORT $L198128
  00084	c7 45 f8 06 00
	00 00		 mov	 DWORD PTR _ShellType$[ebp], 6

; 100  : 			else if(osvi->dwMajorVersion==5L&&osvi->dwMinorVersion==1L)ShellType=WinXP;

  0008b	eb 19		 jmp	 SHORT $L198127
$L198128:
  0008d	8b 45 f4	 mov	 eax, DWORD PTR _osvi$[ebp]
  00090	83 78 04 05	 cmp	 DWORD PTR [eax+4], 5
  00094	75 10		 jne	 SHORT $L198127
  00096	8b 4d f4	 mov	 ecx, DWORD PTR _osvi$[ebp]
  00099	83 79 08 01	 cmp	 DWORD PTR [ecx+8], 1
  0009d	75 07		 jne	 SHORT $L198127
  0009f	c7 45 f8 07 00
	00 00		 mov	 DWORD PTR _ShellType$[ebp], 7
$L198127:

; 101  : 			free(osvi);

  000a6	8b 55 f4	 mov	 edx, DWORD PTR _osvi$[ebp]
  000a9	52		 push	 edx
  000aa	ff 15 00 00 00
	00		 call	 DWORD PTR __imp__free
  000b0	83 c4 04	 add	 esp, 4
$L198123:

; 102  : 		}
; 103  : 	}
; 104  : 	else if  (LOBYTE(LOWORD(winVer))<4)

  000b3	e9 aa 00 00 00	 jmp	 $L198131
$L198120:
  000b8	8b 45 fc	 mov	 eax, DWORD PTR _winVer$[ebp]
  000bb	25 ff ff 00 00	 and	 eax, 65535		; 0000ffffH
  000c0	0f b7 c8	 movzx	 ecx, ax
  000c3	81 e1 ff 00 00
	00		 and	 ecx, 255		; 000000ffH
  000c9	0f b6 d1	 movzx	 edx, cl
  000cc	83 fa 04	 cmp	 edx, 4
  000cf	7d 0c		 jge	 SHORT $L198136

; 105  : 		ShellType=Win32s;

  000d1	c7 45 f8 00 00
	00 00		 mov	 DWORD PTR _ShellType$[ebp], 0

; 106  : 	else{

  000d8	e9 85 00 00 00	 jmp	 $L198131
$L198136:

; 107  : 		ShellType=Win95;

  000dd	c7 45 f8 02 00
	00 00		 mov	 DWORD PTR _ShellType$[ebp], 2

; 108  : 		osvi= (OSVERSIONINFO *)malloc(sizeof(OSVERSIONINFO));

  000e4	68 94 00 00 00	 push	 148			; 00000094H
  000e9	ff 15 00 00 00
	00		 call	 DWORD PTR __imp__malloc
  000ef	83 c4 04	 add	 esp, 4
  000f2	89 45 f4	 mov	 DWORD PTR _osvi$[ebp], eax

; 109  : 		if (osvi!=NULL){

  000f5	83 7d f4 00	 cmp	 DWORD PTR _osvi$[ebp], 0
  000f9	74 67		 je	 SHORT $L198131

; 110  : 			memset(osvi,0,sizeof(OSVERSIONINFO));

  000fb	68 94 00 00 00	 push	 148			; 00000094H
  00100	6a 00		 push	 0
  00102	8b 45 f4	 mov	 eax, DWORD PTR _osvi$[ebp]
  00105	50		 push	 eax
  00106	e8 00 00 00 00	 call	 _memset
  0010b	83 c4 0c	 add	 esp, 12			; 0000000cH

; 111  : 			osvi->dwOSVersionInfoSize=sizeof(OSVERSIONINFO);

  0010e	8b 4d f4	 mov	 ecx, DWORD PTR _osvi$[ebp]
  00111	c7 01 94 00 00
	00		 mov	 DWORD PTR [ecx], 148	; 00000094H

; 112  : 			GetVersionEx(osvi);

  00117	8b 55 f4	 mov	 edx, DWORD PTR _osvi$[ebp]
  0011a	52		 push	 edx
  0011b	ff 15 00 00 00
	00		 call	 DWORD PTR __imp__GetVersionExA@4

; 113  : 			if(osvi->dwMajorVersion==4L&&osvi->dwMinorVersion==10L)ShellType=Win98;

  00121	8b 45 f4	 mov	 eax, DWORD PTR _osvi$[ebp]
  00124	83 78 04 04	 cmp	 DWORD PTR [eax+4], 4
  00128	75 12		 jne	 SHORT $L198143
  0012a	8b 4d f4	 mov	 ecx, DWORD PTR _osvi$[ebp]
  0012d	83 79 08 0a	 cmp	 DWORD PTR [ecx+8], 10	; 0000000aH
  00131	75 09		 jne	 SHORT $L198143
  00133	c7 45 f8 03 00
	00 00		 mov	 DWORD PTR _ShellType$[ebp], 3

; 114  : 			else if(osvi->dwMajorVersion==4L&&osvi->dwMinorVersion==90L)ShellType=WinME;

  0013a	eb 19		 jmp	 SHORT $L198144
$L198143:
  0013c	8b 55 f4	 mov	 edx, DWORD PTR _osvi$[ebp]
  0013f	83 7a 04 04	 cmp	 DWORD PTR [edx+4], 4
  00143	75 10		 jne	 SHORT $L198144
  00145	8b 45 f4	 mov	 eax, DWORD PTR _osvi$[ebp]
  00148	83 78 08 5a	 cmp	 DWORD PTR [eax+8], 90	; 0000005aH
  0014c	75 07		 jne	 SHORT $L198144
  0014e	c7 45 f8 04 00
	00 00		 mov	 DWORD PTR _ShellType$[ebp], 4
$L198144:

; 115  : 			free(osvi);

  00155	8b 4d f4	 mov	 ecx, DWORD PTR _osvi$[ebp]
  00158	51		 push	 ecx
  00159	ff 15 00 00 00
	00		 call	 DWORD PTR __imp__free
  0015f	83 c4 04	 add	 esp, 4
$L198131:

; 116  : 		}
; 117  : 	}
; 118  : 	return ShellType;

  00162	8b 45 f8	 mov	 eax, DWORD PTR _ShellType$[ebp]

; 119  : }

  00165	8b e5		 mov	 esp, ebp
  00167	5d		 pop	 ebp
  00168	c3		 ret	 0
?IsShellType@@YA?AW4Win32Type@@XZ ENDP			; IsShellType
_TEXT	ENDS
PUBLIC	?SetAnsiString@BCMenuData@@QAEXPBD@Z		; BCMenuData::SetAnsiString
PUBLIC	?SetWideString@BCMenuData@@QAEXPB_W@Z		; BCMenuData::SetWideString
EXTRN	??_U@YAPAXI@Z:NEAR				; operator new[]
EXTRN	??_V@YAXPAX@Z:NEAR				; operator delete[]
EXTRN	__imp__MultiByteToWideChar@24:NEAR
; Function compile flags: /Odt
_TEXT	SEGMENT
_this$ = -20						; size = 4
$T202305 = -16						; size = 4
$T202304 = -12						; size = 4
_wszUtf8$ = -8						; size = 4
_len$ = -4						; size = 4
_szAnsiString$ = 8					; size = 4
?SetAnsiString@BCMenuData@@QAEXPBD@Z PROC NEAR		; BCMenuData::SetAnsiString
; _this$ = ecx

; 124  : {

  00170	55		 push	 ebp
  00171	8b ec		 mov	 ebp, esp
  00173	83 ec 14	 sub	 esp, 20			; 00000014H
  00176	89 4d ec	 mov	 DWORD PTR _this$[ebp], ecx

; 125  : 	int len=MultiByteToWideChar(CP_ACP, 0,szAnsiString, -1,NULL,0);

  00179	6a 00		 push	 0
  0017b	6a 00		 push	 0
  0017d	6a ff		 push	 -1
  0017f	8b 45 08	 mov	 eax, DWORD PTR _szAnsiString$[ebp]
  00182	50		 push	 eax
  00183	6a 00		 push	 0
  00185	6a 00		 push	 0
  00187	ff 15 00 00 00
	00		 call	 DWORD PTR __imp__MultiByteToWideChar@24
  0018d	89 45 fc	 mov	 DWORD PTR _len$[ebp], eax

; 126  : 	wchar_t* wszUtf8 = new wchar_t[len];

  00190	8b 4d fc	 mov	 ecx, DWORD PTR _len$[ebp]
  00193	d1 e1		 shl	 ecx, 1
  00195	51		 push	 ecx
  00196	e8 00 00 00 00	 call	 ??_U@YAPAXI@Z		; operator new[]
  0019b	83 c4 04	 add	 esp, 4
  0019e	89 45 f4	 mov	 DWORD PTR $T202304[ebp], eax
  001a1	8b 55 f4	 mov	 edx, DWORD PTR $T202304[ebp]
  001a4	89 55 f8	 mov	 DWORD PTR _wszUtf8$[ebp], edx

; 127  : 	memset(wszUtf8, 0, len * 2);

  001a7	8b 45 fc	 mov	 eax, DWORD PTR _len$[ebp]
  001aa	d1 e0		 shl	 eax, 1
  001ac	50		 push	 eax
  001ad	6a 00		 push	 0
  001af	8b 4d f8	 mov	 ecx, DWORD PTR _wszUtf8$[ebp]
  001b2	51		 push	 ecx
  001b3	e8 00 00 00 00	 call	 _memset
  001b8	83 c4 0c	 add	 esp, 12			; 0000000cH

; 128  : 	MultiByteToWideChar(CP_ACP, 0, szAnsiString, -1, (LPWSTR)wszUtf8, len);	

  001bb	8b 55 fc	 mov	 edx, DWORD PTR _len$[ebp]
  001be	52		 push	 edx
  001bf	8b 45 f8	 mov	 eax, DWORD PTR _wszUtf8$[ebp]
  001c2	50		 push	 eax
  001c3	6a ff		 push	 -1
  001c5	8b 4d 08	 mov	 ecx, DWORD PTR _szAnsiString$[ebp]
  001c8	51		 push	 ecx
  001c9	6a 00		 push	 0
  001cb	6a 00		 push	 0
  001cd	ff 15 00 00 00
	00		 call	 DWORD PTR __imp__MultiByteToWideChar@24

; 129  : 
; 130  : 	SetWideString( wszUtf8);  //SK:  see MFC Tech Note 059

  001d3	8b 55 f8	 mov	 edx, DWORD PTR _wszUtf8$[ebp]
  001d6	52		 push	 edx
  001d7	8b 4d ec	 mov	 ecx, DWORD PTR _this$[ebp]
  001da	e8 00 00 00 00	 call	 ?SetWideString@BCMenuData@@QAEXPB_W@Z ; BCMenuData::SetWideString

; 131  : 	delete[] wszUtf8;

  001df	8b 45 f8	 mov	 eax, DWORD PTR _wszUtf8$[ebp]
  001e2	89 45 f0	 mov	 DWORD PTR $T202305[ebp], eax
  001e5	8b 4d f0	 mov	 ecx, DWORD PTR $T202305[ebp]
  001e8	51		 push	 ecx
  001e9	e8 00 00 00 00	 call	 ??_V@YAXPAX@Z		; operator delete[]
  001ee	83 c4 04	 add	 esp, 4

; 132  : }

  001f1	8b e5		 mov	 esp, ebp
  001f3	5d		 pop	 ebp
  001f4	c2 04 00	 ret	 4
?SetAnsiString@BCMenuData@@QAEXPBD@Z ENDP		; BCMenuData::SetAnsiString
_TEXT	ENDS
PUBLIC	?_AtlGetConversionACP@ATL@@YGIXZ		; ATL::_AtlGetConversionACP
PUBLIC	?GetString@BCMenuData@@QAE?AV?$CStringT@DV?$StrTraitMFC_DLL@DV?$ChTraitsCRT@D@ATL@@@@@ATL@@XZ ; BCMenuData::GetString
EXTRN	__imp_??0?$CStringT@DV?$StrTraitMFC_DLL@DV?$ChTraitsCRT@D@ATL@@@@@ATL@@QAE@XZ:NEAR
EXTRN	__imp_??0?$CStringT@DV?$StrTraitMFC_DLL@DV?$ChTraitsCRT@D@ATL@@@@@ATL@@QAE@ABV01@@Z:NEAR
EXTRN	__imp_??1?$CStringT@DV?$StrTraitMFC_DLL@DV?$ChTraitsCRT@D@ATL@@@@@ATL@@QAE@XZ:NEAR
EXTRN	__imp_??4?$CStringT@DV?$StrTraitMFC_DLL@DV?$ChTraitsCRT@D@ATL@@@@@ATL@@QAEAAV01@PBD@Z:NEAR
EXTRN	__imp__WideCharToMultiByte@32:NEAR
EXTRN	__except_list:DWORD
EXTRN	___security_cookie:DWORD
EXTRN	@__security_check_cookie@4:NEAR
EXTRN	___CxxFrameHandler:NEAR
xdata$x	SEGMENT
$T202321 DD	0ffffffffH
	DD	FLAT:$L202308
$T202315 DD	019930520H
	DD	01H
	DD	FLAT:$T202321
	DD	2 DUP(00H)
	DD	2 DUP(00H)
; Function compile flags: /Odt
xdata$x	ENDS
_TEXT	SEGMENT
_this$ = -300						; size = 4
$T202310 = -296						; size = 4
__acp$198168 = -288					; size = 4
_szbuffer$198171 = -284					; size = 256
__$ArrayPad$ = -28					; size = 4
_strText$ = -16						; size = 4
__$EHRec$ = -12						; size = 12
__$ReturnAddr$ = 4					; size = 4
___$ReturnUdt$ = 8					; size = 4
?GetString@BCMenuData@@QAE?AV?$CStringT@DV?$StrTraitMFC_DLL@DV?$ChTraitsCRT@D@ATL@@@@@ATL@@XZ PROC NEAR ; BCMenuData::GetString
; _this$ = ecx

; 136  : {

  00200	55		 push	 ebp
  00201	8b ec		 mov	 ebp, esp
  00203	6a ff		 push	 -1
  00205	68 00 00 00 00	 push	 __ehhandler$?GetString@BCMenuData@@QAE?AV?$CStringT@DV?$StrTraitMFC_DLL@DV?$ChTraitsCRT@D@ATL@@@@@ATL@@XZ
  0020a	64 a1 00 00 00
	00		 mov	 eax, DWORD PTR fs:__except_list
  00210	50		 push	 eax
  00211	64 89 25 00 00
	00 00		 mov	 DWORD PTR fs:__except_list, esp
  00218	81 ec 20 01 00
	00		 sub	 esp, 288		; 00000120H
  0021e	a1 00 00 00 00	 mov	 eax, DWORD PTR ___security_cookie
  00223	89 45 e4	 mov	 DWORD PTR __$ArrayPad$[ebp], eax
  00226	89 8d d4 fe ff
	ff		 mov	 DWORD PTR _this$[ebp], ecx
  0022c	c7 85 d8 fe ff
	ff 00 00 00 00	 mov	 DWORD PTR $T202310[ebp], 0

; 137  : 	CString strText;

  00236	8d 4d f0	 lea	 ecx, DWORD PTR _strText$[ebp]
  00239	ff 15 00 00 00
	00		 call	 DWORD PTR __imp_??0?$CStringT@DV?$StrTraitMFC_DLL@DV?$ChTraitsCRT@D@ATL@@@@@ATL@@QAE@XZ
  0023f	c7 45 fc 00 00
	00 00		 mov	 DWORD PTR __$EHRec$[ebp+8], 0

; 138  : 	if (m_szMenuText)

  00246	8b 85 d4 fe ff
	ff		 mov	 eax, DWORD PTR _this$[ebp]
  0024c	83 38 00	 cmp	 DWORD PTR [eax], 0
  0024f	74 40		 je	 SHORT $L198166

; 139  :     {
; 140  : #ifdef UNICODE
; 141  : 		strText = m_szMenuText;
; 142  : #else
; 143  : 		USES_CONVERSION;

  00251	e8 00 00 00 00	 call	 ?_AtlGetConversionACP@ATL@@YGIXZ ; ATL::_AtlGetConversionACP
  00256	89 85 e0 fe ff
	ff		 mov	 DWORD PTR __acp$198168[ebp], eax

; 144  : 		char szbuffer[256];
; 145  : 
; 146  : 		WideCharToMultiByte( CP_ACP, 0, m_szMenuText, -1,
; 147  : 			szbuffer, 256, NULL, NULL );

  0025c	6a 00		 push	 0
  0025e	6a 00		 push	 0
  00260	68 00 01 00 00	 push	 256			; 00000100H
  00265	8d 8d e4 fe ff
	ff		 lea	 ecx, DWORD PTR _szbuffer$198171[ebp]
  0026b	51		 push	 ecx
  0026c	6a ff		 push	 -1
  0026e	8b 95 d4 fe ff
	ff		 mov	 edx, DWORD PTR _this$[ebp]
  00274	8b 02		 mov	 eax, DWORD PTR [edx]
  00276	50		 push	 eax
  00277	6a 00		 push	 0
  00279	6a 00		 push	 0
  0027b	ff 15 00 00 00
	00		 call	 DWORD PTR __imp__WideCharToMultiByte@32

; 148  : 
; 149  : //		strText=W2A(m_szMenuText);     //SK:  see MFC Tech Note 059
; 150  : //		WildChar
; 151  : 		strText = szbuffer;

  00281	8d 8d e4 fe ff
	ff		 lea	 ecx, DWORD PTR _szbuffer$198171[ebp]
  00287	51		 push	 ecx
  00288	8d 4d f0	 lea	 ecx, DWORD PTR _strText$[ebp]
  0028b	ff 15 00 00 00
	00		 call	 DWORD PTR __imp_??4?$CStringT@DV?$StrTraitMFC_DLL@DV?$ChTraitsCRT@D@ATL@@@@@ATL@@QAEAAV01@PBD@Z
$L198166:

; 152  : #endif    
; 153  :     }
; 154  : 	return strText;

  00291	8d 55 f0	 lea	 edx, DWORD PTR _strText$[ebp]
  00294	52		 push	 edx
  00295	8b 4d 08	 mov	 ecx, DWORD PTR ___$ReturnUdt$[ebp]
  00298	ff 15 00 00 00
	00		 call	 DWORD PTR __imp_??0?$CStringT@DV?$StrTraitMFC_DLL@DV?$ChTraitsCRT@D@ATL@@@@@ATL@@QAE@ABV01@@Z
  0029e	8b 85 d8 fe ff
	ff		 mov	 eax, DWORD PTR $T202310[ebp]
  002a4	83 c8 01	 or	 eax, 1
  002a7	89 85 d8 fe ff
	ff		 mov	 DWORD PTR $T202310[ebp], eax
  002ad	c7 45 fc ff ff
	ff ff		 mov	 DWORD PTR __$EHRec$[ebp+8], -1
  002b4	8d 4d f0	 lea	 ecx, DWORD PTR _strText$[ebp]
  002b7	ff 15 00 00 00
	00		 call	 DWORD PTR __imp_??1?$CStringT@DV?$StrTraitMFC_DLL@DV?$ChTraitsCRT@D@ATL@@@@@ATL@@QAE@XZ
  002bd	8b 45 08	 mov	 eax, DWORD PTR ___$ReturnUdt$[ebp]

; 155  : }

  002c0	8b 4d f4	 mov	 ecx, DWORD PTR __$EHRec$[ebp]
  002c3	64 89 0d 00 00
	00 00		 mov	 DWORD PTR fs:__except_list, ecx
  002ca	8b 4d e4	 mov	 ecx, DWORD PTR __$ArrayPad$[ebp]
  002cd	e8 00 00 00 00	 call	 @__security_check_cookie@4
  002d2	8b e5		 mov	 esp, ebp
  002d4	5d		 pop	 ebp
  002d5	c2 04 00	 ret	 4
_TEXT	ENDS
text$x	SEGMENT
$L202308:
  00000	8d 4d f0	 lea	 ecx, DWORD PTR _strText$[ebp]
  00003	ff 25 00 00 00
	00		 jmp	 DWORD PTR __imp_??1?$CStringT@DV?$StrTraitMFC_DLL@DV?$ChTraitsCRT@D@ATL@@@@@ATL@@QAE@XZ
__ehhandler$?GetString@BCMenuData@@QAE?AV?$CStringT@DV?$StrTraitMFC_DLL@DV?$ChTraitsCRT@D@ATL@@@@@ATL@@XZ:
  00009	b8 00 00 00 00	 mov	 eax, OFFSET FLAT:$T202315
  0000e	e9 00 00 00 00	 jmp	 ___CxxFrameHandler
text$x	ENDS
?GetString@BCMenuData@@QAE?AV?$CStringT@DV?$StrTraitMFC_DLL@DV?$ChTraitsCRT@D@ATL@@@@@ATL@@XZ ENDP ; BCMenuData::GetString
PUBLIC	?GetThisClass@BCMenu@@SGPAUCRuntimeClass@@XZ	; BCMenu::GetThisClass
; Function compile flags: /Odt
_TEXT	SEGMENT
?GetThisClass@BCMenu@@SGPAUCRuntimeClass@@XZ PROC NEAR	; BCMenu::GetThisClass

; 159  : IMPLEMENT_DYNAMIC( BCMenu, CMenu )

  002e0	55		 push	 ebp
  002e1	8b ec		 mov	 ebp, esp
  002e3	b8 00 00 00 00	 mov	 eax, OFFSET FLAT:?classBCMenu@BCMenu@@2UCRuntimeClass@@B ; BCMenu::classBCMenu
  002e8	5d		 pop	 ebp
  002e9	c3		 ret	 0
?GetThisClass@BCMenu@@SGPAUCRuntimeClass@@XZ ENDP	; BCMenu::GetThisClass
_TEXT	ENDS
PUBLIC	?GetRuntimeClass@BCMenu@@UBEPAUCRuntimeClass@@XZ ; BCMenu::GetRuntimeClass
; Function compile flags: /Odt
_TEXT	SEGMENT
_this$ = -4						; size = 4
?GetRuntimeClass@BCMenu@@UBEPAUCRuntimeClass@@XZ PROC NEAR ; BCMenu::GetRuntimeClass
; _this$ = ecx

; 159  : IMPLEMENT_DYNAMIC( BCMenu, CMenu )

  002f0	55		 push	 ebp
  002f1	8b ec		 mov	 ebp, esp
  002f3	51		 push	 ecx
  002f4	89 4d fc	 mov	 DWORD PTR _this$[ebp], ecx
  002f7	b8 00 00 00 00	 mov	 eax, OFFSET FLAT:?classBCMenu@BCMenu@@2UCRuntimeClass@@B ; BCMenu::classBCMenu
  002fc	8b e5		 mov	 esp, ebp
  002fe	5d		 pop	 ebp
  002ff	c3		 ret	 0
?GetRuntimeClass@BCMenu@@UBEPAUCRuntimeClass@@XZ ENDP	; BCMenu::GetRuntimeClass
_TEXT	ENDS
PUBLIC	?DestroyMenu@BCMenu@@UAEHXZ			; BCMenu::DestroyMenu
PUBLIC	?DrawItem@BCMenu@@UAEXPAUtagDRAWITEMSTRUCT@@@Z	; BCMenu::DrawItem
PUBLIC	?MeasureItem@BCMenu@@UAEXPAUtagMEASUREITEMSTRUCT@@@Z ; BCMenu::MeasureItem
PUBLIC	?IsWinXPLuna@BCMenu@@KAHXZ			; BCMenu::IsWinXPLuna
PUBLIC	??_R1A@?0A@A@CObject@@8				; CObject::`RTTI Base Class Descriptor at (0,-1,0,0)'
PUBLIC	??_R0?AVCObject@@@8				; CObject `RTTI Type Descriptor'
PUBLIC	??0?$CTypedPtrArray@VCPtrArray@@PAVBCMenuData@@@@QAE@XZ ; CTypedPtrArray<CPtrArray,BCMenuData *>::CTypedPtrArray<CPtrArray,BCMenuData *>
PUBLIC	??1?$CTypedPtrArray@VCPtrArray@@PAVBCMenuData@@@@UAE@XZ ; CTypedPtrArray<CPtrArray,BCMenuData *>::~CTypedPtrArray<CPtrArray,BCMenuData *>
PUBLIC	??0?$CTypedPtrArray@VCPtrArray@@PAUHMENU__@@@@QAE@XZ ; CTypedPtrArray<CPtrArray,HMENU__ *>::CTypedPtrArray<CPtrArray,HMENU__ *>
PUBLIC	??1?$CTypedPtrArray@VCPtrArray@@PAUHMENU__@@@@UAE@XZ ; CTypedPtrArray<CPtrArray,HMENU__ *>::~CTypedPtrArray<CPtrArray,HMENU__ *>
PUBLIC	?Serialize@CObject@@UAEXAAVCArchive@@@Z		; CObject::Serialize
PUBLIC	?AssertValid@CObject@@UBEXXZ			; CObject::AssertValid
PUBLIC	?Dump@CObject@@UBEXAAVCDumpContext@@@Z		; CObject::Dump
PUBLIC	??_7BCMenu@@6B@					; BCMenu::`vftable'
PUBLIC	??_GBCMenu@@UAEPAXI@Z				; BCMenu::`scalar deleting destructor'
PUBLIC	??_R0?AVCMenu@@@8				; CMenu `RTTI Type Descriptor'
PUBLIC	??_R1A@?0A@A@CMenu@@8				; CMenu::`RTTI Base Class Descriptor at (0,-1,0,0)'
PUBLIC	??_R0?AVBCMenu@@@8				; BCMenu `RTTI Type Descriptor'
PUBLIC	??0BCMenu@@QAE@XZ				; BCMenu::BCMenu
PUBLIC	?LoadMenuA@BCMenu@@UAEHPBD@Z			; BCMenu::LoadMenuA
PUBLIC	?LoadMenuA@BCMenu@@UAEHH@Z			; BCMenu::LoadMenuA
PUBLIC	??0CMenu@@QAE@XZ				; CMenu::CMenu
PUBLIC	??_R4BCMenu@@6B@				; BCMenu::`RTTI Complete Object Locator'
PUBLIC	??_R3BCMenu@@8					; BCMenu::`RTTI Class Hierarchy Descriptor'
PUBLIC	??_R2BCMenu@@8					; BCMenu::`RTTI Base Class Array'
PUBLIC	??_R1A@?0A@A@BCMenu@@8				; BCMenu::`RTTI Base Class Descriptor at (0,-1,0,0)'
PUBLIC	??1CMenu@@UAE@XZ				; CMenu::~CMenu
EXTRN	__imp__GetCPInfo@8:NEAR
EXTRN	??_EBCMenu@@UAEPAXI@Z:NEAR			; BCMenu::`vector deleting destructor'
EXTRN	__imp__GetSysColor@4:NEAR
EXTRN	??_7type_info@@6B@:QWORD			; type_info::`vftable'
_BSS	SEGMENT
_CPInfo	DB	014H DUP (?)
_BSS	ENDS
xdata$x	SEGMENT
$T202332 DD	0ffffffffH
	DD	FLAT:$L202326
	DD	00H
	DD	FLAT:$L202327
	DD	01H
	DD	FLAT:$L202328
$T202330 DD	019930520H
	DD	03H
	DD	FLAT:$T202332
	DD	2 DUP(00H)
	DD	2 DUP(00H)
xdata$x	ENDS
;	COMDAT ??_7BCMenu@@6B@
CONST	SEGMENT
??_7BCMenu@@6B@ DD FLAT:??_R4BCMenu@@6B@		; BCMenu::`vftable'
	DD	FLAT:?GetRuntimeClass@BCMenu@@UBEPAUCRuntimeClass@@XZ
	DD	FLAT:??_EBCMenu@@UAEPAXI@Z
	DD	FLAT:?Serialize@CObject@@UAEXAAVCArchive@@@Z
	DD	FLAT:?AssertValid@CObject@@UBEXXZ
	DD	FLAT:?Dump@CObject@@UBEXAAVCDumpContext@@@Z
	DD	FLAT:?DrawItem@BCMenu@@UAEXPAUtagDRAWITEMSTRUCT@@@Z
	DD	FLAT:?MeasureItem@BCMenu@@UAEXPAUtagMEASUREITEMSTRUCT@@@Z
	DD	FLAT:?LoadMenuA@BCMenu@@UAEHH@Z
	DD	FLAT:?LoadMenuA@BCMenu@@UAEHPBD@Z
	DD	FLAT:?DestroyMenu@BCMenu@@UAEHXZ
CONST	ENDS
;	COMDAT ??_R4BCMenu@@6B@
rdata$r	SEGMENT
??_R4BCMenu@@6B@ DD 00H					; BCMenu::`RTTI Complete Object Locator'
	DD	00H
	DD	00H
	DD	FLAT:??_R0?AVBCMenu@@@8
	DD	FLAT:??_R3BCMenu@@8
rdata$r	ENDS
;	COMDAT ??_R0?AVBCMenu@@@8
_DATA	SEGMENT
??_R0?AVBCMenu@@@8 DD FLAT:??_7type_info@@6B@		; BCMenu `RTTI Type Descriptor'
	DD	00H
	DB	'.?AVBCMenu@@', 00H
_DATA	ENDS
;	COMDAT ??_R3BCMenu@@8
rdata$r	SEGMENT
??_R3BCMenu@@8 DD 00H					; BCMenu::`RTTI Class Hierarchy Descriptor'
	DD	00H
	DD	03H
	DD	FLAT:??_R2BCMenu@@8
rdata$r	ENDS
;	COMDAT ??_R2BCMenu@@8
rdata$r	SEGMENT
??_R2BCMenu@@8 DD FLAT:??_R1A@?0A@A@BCMenu@@8		; BCMenu::`RTTI Base Class Array'
	DD	FLAT:??_R1A@?0A@A@CMenu@@8
	DD	FLAT:??_R1A@?0A@A@CObject@@8
rdata$r	ENDS
;	COMDAT ??_R1A@?0A@A@BCMenu@@8
rdata$r	SEGMENT
??_R1A@?0A@A@BCMenu@@8 DD FLAT:??_R0?AVBCMenu@@@8	; BCMenu::`RTTI Base Class Descriptor at (0,-1,0,0)'
	DD	02H
	DD	00H
	DD	0ffffffffH
	DD	00H
	DD	00H
rdata$r	ENDS
;	COMDAT ??_R1A@?0A@A@CMenu@@8
rdata$r	SEGMENT
??_R1A@?0A@A@CMenu@@8 DD FLAT:??_R0?AVCMenu@@@8		; CMenu::`RTTI Base Class Descriptor at (0,-1,0,0)'
	DD	01H
	DD	00H
	DD	0ffffffffH
	DD	00H
	DD	00H
rdata$r	ENDS
;	COMDAT ??_R0?AVCMenu@@@8
_DATA	SEGMENT
??_R0?AVCMenu@@@8 DD FLAT:??_7type_info@@6B@		; CMenu `RTTI Type Descriptor'
	DD	00H
	DB	'.?AVCMenu@@', 00H
	ORG $-20
	DD	FLAT:??_7type_info@@6B@
	DD	00H
	DB	'.?AVCMenu@@', 00H
_DATA	ENDS
;	COMDAT ??_R1A@?0A@A@CObject@@8
rdata$r	SEGMENT
??_R1A@?0A@A@CObject@@8 DD FLAT:??_R0?AVCObject@@@8	; CObject::`RTTI Base Class Descriptor at (0,-1,0,0)'
	DD	00H
	DD	00H
	DD	0ffffffffH
	DD	00H
	DD	00H
rdata$r	ENDS
;	COMDAT ??_R0?AVCObject@@@8
_DATA	SEGMENT
??_R0?AVCObject@@@8 DD FLAT:??_7type_info@@6B@		; CObject `RTTI Type Descriptor'
	DD	00H
	DB	'.?AVCObject@@', 00H
; Function compile flags: /Odt
_DATA	ENDS
_TEXT	SEGMENT
_this$ = -16						; size = 4
__$EHRec$ = -12						; size = 12
??0BCMenu@@QAE@XZ PROC NEAR				; BCMenu::BCMenu
; _this$ = ecx

; 173  : {

  00300	55		 push	 ebp
  00301	8b ec		 mov	 ebp, esp
  00303	6a ff		 push	 -1
  00305	68 00 00 00 00	 push	 __ehhandler$??0BCMenu@@QAE@XZ
  0030a	64 a1 00 00 00
	00		 mov	 eax, DWORD PTR fs:__except_list
  00310	50		 push	 eax
  00311	64 89 25 00 00
	00 00		 mov	 DWORD PTR fs:__except_list, esp
  00318	51		 push	 ecx
  00319	89 4d f0	 mov	 DWORD PTR _this$[ebp], ecx
  0031c	8b 4d f0	 mov	 ecx, DWORD PTR _this$[ebp]
  0031f	e8 00 00 00 00	 call	 ??0CMenu@@QAE@XZ	; CMenu::CMenu
  00324	c7 45 fc 00 00
	00 00		 mov	 DWORD PTR __$EHRec$[ebp+8], 0
  0032b	8b 45 f0	 mov	 eax, DWORD PTR _this$[ebp]
  0032e	c7 00 00 00 00
	00		 mov	 DWORD PTR [eax], OFFSET FLAT:??_7BCMenu@@6B@
  00334	8b 4d f0	 mov	 ecx, DWORD PTR _this$[ebp]
  00337	83 c1 08	 add	 ecx, 8
  0033a	e8 00 00 00 00	 call	 ??0?$CTypedPtrArray@VCPtrArray@@PAVBCMenuData@@@@QAE@XZ
  0033f	c6 45 fc 01	 mov	 BYTE PTR __$EHRec$[ebp+8], 1
  00343	8b 4d f0	 mov	 ecx, DWORD PTR _this$[ebp]
  00346	83 c1 1c	 add	 ecx, 28			; 0000001cH
  00349	e8 00 00 00 00	 call	 ??0?$CTypedPtrArray@VCPtrArray@@PAUHMENU__@@@@QAE@XZ
  0034e	c6 45 fc 02	 mov	 BYTE PTR __$EHRec$[ebp+8], 2

; 174  : 	m_bDynIcons = FALSE;     // O.S. - no dynamic icons by default

  00352	8b 4d f0	 mov	 ecx, DWORD PTR _this$[ebp]
  00355	c7 41 4c 00 00
	00 00		 mov	 DWORD PTR [ecx+76], 0

; 175  : 	disable_old_style=FALSE;

  0035c	8b 55 f0	 mov	 edx, DWORD PTR _this$[ebp]
  0035f	c7 42 38 00 00
	00 00		 mov	 DWORD PTR [edx+56], 0

; 176  : 	m_selectcheck = -1;

  00366	8b 45 f0	 mov	 eax, DWORD PTR _this$[ebp]
  00369	c7 40 44 ff ff
	ff ff		 mov	 DWORD PTR [eax+68], -1

; 177  : 	m_unselectcheck = -1;

  00370	8b 4d f0	 mov	 ecx, DWORD PTR _this$[ebp]
  00373	c7 41 48 ff ff
	ff ff		 mov	 DWORD PTR [ecx+72], -1

; 178  : 	checkmaps=NULL;

  0037a	8b 55 f0	 mov	 edx, DWORD PTR _this$[ebp]
  0037d	c7 42 3c 00 00
	00 00		 mov	 DWORD PTR [edx+60], 0

; 179  : 	checkmapsshare=FALSE;

  00384	8b 45 f0	 mov	 eax, DWORD PTR _this$[ebp]
  00387	c7 40 40 00 00
	00 00		 mov	 DWORD PTR [eax+64], 0

; 180  : 	// set the color used for the transparent background in all bitmaps
; 181  : 	m_bitmapBackground=RGB(192,192,192); //gray

  0038e	8b 4d f0	 mov	 ecx, DWORD PTR _this$[ebp]
  00391	c7 41 30 c0 c0
	c0 00		 mov	 DWORD PTR [ecx+48], 12632256 ; 00c0c0c0H

; 182  : 	m_bitmapBackgroundFlag=FALSE;

  00398	8b 55 f0	 mov	 edx, DWORD PTR _this$[ebp]
  0039b	c7 42 34 00 00
	00 00		 mov	 DWORD PTR [edx+52], 0

; 183  : 	GetCPInfo(CP_ACP,&CPInfo);

  003a2	68 00 00 00 00	 push	 OFFSET FLAT:_CPInfo
  003a7	6a 00		 push	 0
  003a9	ff 15 00 00 00
	00		 call	 DWORD PTR __imp__GetCPInfo@8

; 184  : 	m_loadmenu=FALSE;

  003af	8b 45 f0	 mov	 eax, DWORD PTR _this$[ebp]
  003b2	c7 40 50 00 00
	00 00		 mov	 DWORD PTR [eax+80], 0

; 185  : 
; 186  : //added by vito--
; 187  : 	if(IsWinXPLuna())m_menuItemBitmapBkColor=GetSysColor(COLOR_3DFACE);

  003b9	e8 00 00 00 00	 call	 ?IsWinXPLuna@BCMenu@@KAHXZ ; BCMenu::IsWinXPLuna
  003be	85 c0		 test	 eax, eax
  003c0	74 10		 je	 SHORT $L198203
  003c2	6a 0f		 push	 15			; 0000000fH
  003c4	ff 15 00 00 00
	00		 call	 DWORD PTR __imp__GetSysColor@4
  003ca	8b 4d f0	 mov	 ecx, DWORD PTR _this$[ebp]
  003cd	89 41 58	 mov	 DWORD PTR [ecx+88], eax

; 188  : 	else m_menuItemBitmapBkColor=GetSysColor(COLOR_MENU);

  003d0	eb 0e		 jmp	 SHORT $L198204
$L198203:
  003d2	6a 04		 push	 4
  003d4	ff 15 00 00 00
	00		 call	 DWORD PTR __imp__GetSysColor@4
  003da	8b 55 f0	 mov	 edx, DWORD PTR _this$[ebp]
  003dd	89 42 58	 mov	 DWORD PTR [edx+88], eax
$L198204:

; 189  : 
; 190  : 	m_menuItemBkColor=GetSysColor(COLOR_WINDOW);

  003e0	6a 05		 push	 5
  003e2	ff 15 00 00 00
	00		 call	 DWORD PTR __imp__GetSysColor@4
  003e8	8b 4d f0	 mov	 ecx, DWORD PTR _this$[ebp]
  003eb	89 41 54	 mov	 DWORD PTR [ecx+84], eax

; 191  : 	m_menuItemTextColor= GetSysColor(COLOR_MENUTEXT);

  003ee	6a 07		 push	 7
  003f0	ff 15 00 00 00
	00		 call	 DWORD PTR __imp__GetSysColor@4
  003f6	8b 55 f0	 mov	 edx, DWORD PTR _this$[ebp]
  003f9	89 42 5c	 mov	 DWORD PTR [edx+92], eax

; 192  : 	m_menuItemSelectBKColor = GetSysColor(COLOR_HIGHLIGHT);

  003fc	6a 0d		 push	 13			; 0000000dH
  003fe	ff 15 00 00 00
	00		 call	 DWORD PTR __imp__GetSysColor@4
  00404	8b 4d f0	 mov	 ecx, DWORD PTR _this$[ebp]
  00407	89 41 60	 mov	 DWORD PTR [ecx+96], eax

; 193  : //==
; 194  : }

  0040a	c7 45 fc ff ff
	ff ff		 mov	 DWORD PTR __$EHRec$[ebp+8], -1
  00411	8b 45 f0	 mov	 eax, DWORD PTR _this$[ebp]
  00414	8b 4d f4	 mov	 ecx, DWORD PTR __$EHRec$[ebp]
  00417	64 89 0d 00 00
	00 00		 mov	 DWORD PTR fs:__except_list, ecx
  0041e	8b e5		 mov	 esp, ebp
  00420	5d		 pop	 ebp
  00421	c3		 ret	 0
_TEXT	ENDS
text$x	SEGMENT
$L202326:
  00013	8b 4d f0	 mov	 ecx, DWORD PTR _this$[ebp]
  00016	e9 00 00 00 00	 jmp	 ??1CMenu@@UAE@XZ	; CMenu::~CMenu
$L202327:
  0001b	8b 4d f0	 mov	 ecx, DWORD PTR _this$[ebp]
  0001e	83 c1 08	 add	 ecx, 8
  00021	e9 00 00 00 00	 jmp	 ??1?$CTypedPtrArray@VCPtrArray@@PAVBCMenuData@@@@UAE@XZ
$L202328:
  00026	8b 4d f0	 mov	 ecx, DWORD PTR _this$[ebp]
  00029	83 c1 1c	 add	 ecx, 28			; 0000001cH
  0002c	e9 00 00 00 00	 jmp	 ??1?$CTypedPtrArray@VCPtrArray@@PAUHMENU__@@@@UAE@XZ
__ehhandler$??0BCMenu@@QAE@XZ:
  00031	b8 00 00 00 00	 mov	 eax, OFFSET FLAT:$T202330
  00036	e9 00 00 00 00	 jmp	 ___CxxFrameHandler
text$x	ENDS
??0BCMenu@@QAE@XZ ENDP					; BCMenu::BCMenu
PUBLIC	??_7?$CTypedPtrArray@VCPtrArray@@PAUHMENU__@@@@6B@ ; CTypedPtrArray<CPtrArray,HMENU__ *>::`vftable'
PUBLIC	??_G?$CTypedPtrArray@VCPtrArray@@PAUHMENU__@@@@UAEPAXI@Z ; CTypedPtrArray<CPtrArray,HMENU__ *>::`scalar deleting destructor'
PUBLIC	??_R1A@?0A@A@CPtrArray@@8			; CPtrArray::`RTTI Base Class Descriptor at (0,-1,0,0)'
PUBLIC	??_R0?AVCPtrArray@@@8				; CPtrArray `RTTI Type Descriptor'
PUBLIC	??_R4?$CTypedPtrArray@VCPtrArray@@PAUHMENU__@@@@6B@ ; CTypedPtrArray<CPtrArray,HMENU__ *>::`RTTI Complete Object Locator'
PUBLIC	??_R0?AV?$CTypedPtrArray@VCPtrArray@@PAUHMENU__@@@@@8 ; CTypedPtrArray<CPtrArray,HMENU__ *> `RTTI Type Descriptor'
PUBLIC	??_R3?$CTypedPtrArray@VCPtrArray@@PAUHMENU__@@@@8 ; CTypedPtrArray<CPtrArray,HMENU__ *>::`RTTI Class Hierarchy Descriptor'
PUBLIC	??_R2?$CTypedPtrArray@VCPtrArray@@PAUHMENU__@@@@8 ; CTypedPtrArray<CPtrArray,HMENU__ *>::`RTTI Base Class Array'
PUBLIC	??_R1A@?0A@A@?$CTypedPtrArray@VCPtrArray@@PAUHMENU__@@@@8 ; CTypedPtrArray<CPtrArray,HMENU__ *>::`RTTI Base Class Descriptor at (0,-1,0,0)'
EXTRN	?GetRuntimeClass@CPtrArray@@UBEPAUCRuntimeClass@@XZ:NEAR ; CPtrArray::GetRuntimeClass
EXTRN	??0CPtrArray@@QAE@XZ:NEAR			; CPtrArray::CPtrArray
EXTRN	??_E?$CTypedPtrArray@VCPtrArray@@PAUHMENU__@@@@UAEPAXI@Z:NEAR ; CTypedPtrArray<CPtrArray,HMENU__ *>::`vector deleting destructor'
;	COMDAT ??_7?$CTypedPtrArray@VCPtrArray@@PAUHMENU__@@@@6B@
CONST	SEGMENT
??_7?$CTypedPtrArray@VCPtrArray@@PAUHMENU__@@@@6B@ DD FLAT:??_R4?$CTypedPtrArray@VCPtrArray@@PAUHMENU__@@@@6B@ ; CTypedPtrArray<CPtrArray,HMENU__ *>::`vftable'
	DD	FLAT:?GetRuntimeClass@CPtrArray@@UBEPAUCRuntimeClass@@XZ
	DD	FLAT:??_E?$CTypedPtrArray@VCPtrArray@@PAUHMENU__@@@@UAEPAXI@Z
	DD	FLAT:?Serialize@CObject@@UAEXAAVCArchive@@@Z
	DD	FLAT:?AssertValid@CObject@@UBEXXZ
	DD	FLAT:?Dump@CObject@@UBEXAAVCDumpContext@@@Z
CONST	ENDS
;	COMDAT ??_R4?$CTypedPtrArray@VCPtrArray@@PAUHMENU__@@@@6B@
rdata$r	SEGMENT
??_R4?$CTypedPtrArray@VCPtrArray@@PAUHMENU__@@@@6B@ DD 00H ; CTypedPtrArray<CPtrArray,HMENU__ *>::`RTTI Complete Object Locator'
	DD	00H
	DD	00H
	DD	FLAT:??_R0?AV?$CTypedPtrArray@VCPtrArray@@PAUHMENU__@@@@@8
	DD	FLAT:??_R3?$CTypedPtrArray@VCPtrArray@@PAUHMENU__@@@@8
rdata$r	ENDS
;	COMDAT ??_R0?AV?$CTypedPtrArray@VCPtrArray@@PAUHMENU__@@@@@8
_DATA	SEGMENT
??_R0?AV?$CTypedPtrArray@VCPtrArray@@PAUHMENU__@@@@@8 DD FLAT:??_7type_info@@6B@ ; CTypedPtrArray<CPtrArray,HMENU__ *> `RTTI Type Descriptor'
	DD	00H
	DB	'.?AV?$CTypedPtrArray@VCPtrArray@@PAUHMENU__@@@@', 00H
_DATA	ENDS
;	COMDAT ??_R3?$CTypedPtrArray@VCPtrArray@@PAUHMENU__@@@@8
rdata$r	SEGMENT
??_R3?$CTypedPtrArray@VCPtrArray@@PAUHMENU__@@@@8 DD 00H ; CTypedPtrArray<CPtrArray,HMENU__ *>::`RTTI Class Hierarchy Descriptor'
	DD	00H
	DD	03H
	DD	FLAT:??_R2?$CTypedPtrArray@VCPtrArray@@PAUHMENU__@@@@8
rdata$r	ENDS
;	COMDAT ??_R2?$CTypedPtrArray@VCPtrArray@@PAUHMENU__@@@@8
rdata$r	SEGMENT
??_R2?$CTypedPtrArray@VCPtrArray@@PAUHMENU__@@@@8 DD FLAT:??_R1A@?0A@A@?$CTypedPtrArray@VCPtrArray@@PAUHMENU__@@@@8 ; CTypedPtrArray<CPtrArray,HMENU__ *>::`RTTI Base Class Array'
	DD	FLAT:??_R1A@?0A@A@CPtrArray@@8
	DD	FLAT:??_R1A@?0A@A@CObject@@8
rdata$r	ENDS
;	COMDAT ??_R1A@?0A@A@?$CTypedPtrArray@VCPtrArray@@PAUHMENU__@@@@8
rdata$r	SEGMENT
??_R1A@?0A@A@?$CTypedPtrArray@VCPtrArray@@PAUHMENU__@@@@8 DD FLAT:??_R0?AV?$CTypedPtrArray@VCPtrArray@@PAUHMENU__@@@@@8 ; CTypedPtrArray<CPtrArray,HMENU__ *>::`RTTI Base Class Descriptor at (0,-1,0,0)'
	DD	02H
	DD	00H
	DD	0ffffffffH
	DD	00H
	DD	00H
rdata$r	ENDS
;	COMDAT ??_R1A@?0A@A@CPtrArray@@8
rdata$r	SEGMENT
??_R1A@?0A@A@CPtrArray@@8 DD FLAT:??_R0?AVCPtrArray@@@8	; CPtrArray::`RTTI Base Class Descriptor at (0,-1,0,0)'
	DD	01H
	DD	00H
	DD	0ffffffffH
	DD	00H
	DD	00H
rdata$r	ENDS
;	COMDAT ??_R0?AVCPtrArray@@@8
_DATA	SEGMENT
??_R0?AVCPtrArray@@@8 DD FLAT:??_7type_info@@6B@	; CPtrArray `RTTI Type Descriptor'
	DD	00H
	DB	'.?AVCPtrArray@@', 00H
; Function compile flags: /Odt
_DATA	ENDS
;	COMDAT ??0?$CTypedPtrArray@VCPtrArray@@PAUHMENU__@@@@QAE@XZ
_TEXT	SEGMENT
_this$ = -4						; size = 4
??0?$CTypedPtrArray@VCPtrArray@@PAUHMENU__@@@@QAE@XZ PROC NEAR ; CTypedPtrArray<CPtrArray,HMENU__ *>::CTypedPtrArray<CPtrArray,HMENU__ *>, COMDAT
; _this$ = ecx
  00000	55		 push	 ebp
  00001	8b ec		 mov	 ebp, esp
  00003	51		 push	 ecx
  00004	89 4d fc	 mov	 DWORD PTR _this$[ebp], ecx
  00007	8b 4d fc	 mov	 ecx, DWORD PTR _this$[ebp]
  0000a	e8 00 00 00 00	 call	 ??0CPtrArray@@QAE@XZ	; CPtrArray::CPtrArray
  0000f	8b 45 fc	 mov	 eax, DWORD PTR _this$[ebp]
  00012	c7 00 00 00 00
	00		 mov	 DWORD PTR [eax], OFFSET FLAT:??_7?$CTypedPtrArray@VCPtrArray@@PAUHMENU__@@@@6B@
  00018	8b 45 fc	 mov	 eax, DWORD PTR _this$[ebp]
  0001b	8b e5		 mov	 esp, ebp
  0001d	5d		 pop	 ebp
  0001e	c3		 ret	 0
??0?$CTypedPtrArray@VCPtrArray@@PAUHMENU__@@@@QAE@XZ ENDP ; CTypedPtrArray<CPtrArray,HMENU__ *>::CTypedPtrArray<CPtrArray,HMENU__ *>
_TEXT	ENDS
EXTRN	??1CPtrArray@@UAE@XZ:NEAR			; CPtrArray::~CPtrArray
; Function compile flags: /Odt
;	COMDAT ??1?$CTypedPtrArray@VCPtrArray@@PAUHMENU__@@@@UAE@XZ
_TEXT	SEGMENT
_this$ = -4						; size = 4
??1?$CTypedPtrArray@VCPtrArray@@PAUHMENU__@@@@UAE@XZ PROC NEAR ; CTypedPtrArray<CPtrArray,HMENU__ *>::~CTypedPtrArray<CPtrArray,HMENU__ *>, COMDAT
; _this$ = ecx
  00000	55		 push	 ebp
  00001	8b ec		 mov	 ebp, esp
  00003	51		 push	 ecx
  00004	89 4d fc	 mov	 DWORD PTR _this$[ebp], ecx
  00007	8b 4d fc	 mov	 ecx, DWORD PTR _this$[ebp]
  0000a	e8 00 00 00 00	 call	 ??1CPtrArray@@UAE@XZ	; CPtrArray::~CPtrArray
  0000f	8b e5		 mov	 esp, ebp
  00011	5d		 pop	 ebp
  00012	c3		 ret	 0
??1?$CTypedPtrArray@VCPtrArray@@PAUHMENU__@@@@UAE@XZ ENDP ; CTypedPtrArray<CPtrArray,HMENU__ *>::~CTypedPtrArray<CPtrArray,HMENU__ *>
_TEXT	ENDS
PUBLIC	??3CObject@@SGXPAX@Z				; CObject::operator delete
; Function compile flags: /Odt
;	COMDAT ??_G?$CTypedPtrArray@VCPtrArray@@PAUHMENU__@@@@UAEPAXI@Z
_TEXT	SEGMENT
_this$ = -4						; size = 4
___flags$ = 8						; size = 4
??_G?$CTypedPtrArray@VCPtrArray@@PAUHMENU__@@@@UAEPAXI@Z PROC NEAR ; CTypedPtrArray<CPtrArray,HMENU__ *>::`scalar deleting destructor', COMDAT
; _this$ = ecx
  00000	55		 push	 ebp
  00001	8b ec		 mov	 ebp, esp
  00003	51		 push	 ecx
  00004	89 4d fc	 mov	 DWORD PTR _this$[ebp], ecx
  00007	8b 4d fc	 mov	 ecx, DWORD PTR _this$[ebp]
  0000a	e8 00 00 00 00	 call	 ??1?$CTypedPtrArray@VCPtrArray@@PAUHMENU__@@@@UAE@XZ
  0000f	8b 45 08	 mov	 eax, DWORD PTR ___flags$[ebp]
  00012	83 e0 01	 and	 eax, 1
  00015	74 09		 je	 SHORT $L198184
  00017	8b 4d fc	 mov	 ecx, DWORD PTR _this$[ebp]
  0001a	51		 push	 ecx
  0001b	e8 00 00 00 00	 call	 ??3CObject@@SGXPAX@Z	; CObject::operator delete
$L198184:
  00020	8b 45 fc	 mov	 eax, DWORD PTR _this$[ebp]
  00023	8b e5		 mov	 esp, ebp
  00025	5d		 pop	 ebp
  00026	c2 04 00	 ret	 4
??_G?$CTypedPtrArray@VCPtrArray@@PAUHMENU__@@@@UAEPAXI@Z ENDP ; CTypedPtrArray<CPtrArray,HMENU__ *>::`scalar deleting destructor'
_TEXT	ENDS
PUBLIC	??1BCMenu@@UAE@XZ				; BCMenu::~BCMenu
; Function compile flags: /Odt
;	COMDAT ??_GBCMenu@@UAEPAXI@Z
_TEXT	SEGMENT
_this$ = -4						; size = 4
___flags$ = 8						; size = 4
??_GBCMenu@@UAEPAXI@Z PROC NEAR				; BCMenu::`scalar deleting destructor', COMDAT
; _this$ = ecx
  00000	55		 push	 ebp
  00001	8b ec		 mov	 ebp, esp
  00003	51		 push	 ecx
  00004	89 4d fc	 mov	 DWORD PTR _this$[ebp], ecx
  00007	8b 4d fc	 mov	 ecx, DWORD PTR _this$[ebp]
  0000a	e8 00 00 00 00	 call	 ??1BCMenu@@UAE@XZ	; BCMenu::~BCMenu
  0000f	8b 45 08	 mov	 eax, DWORD PTR ___flags$[ebp]
  00012	83 e0 01	 and	 eax, 1
  00015	74 09		 je	 SHORT $L198208
  00017	8b 4d fc	 mov	 ecx, DWORD PTR _this$[ebp]
  0001a	51		 push	 ecx
  0001b	e8 00 00 00 00	 call	 ??3CObject@@SGXPAX@Z	; CObject::operator delete
$L198208:
  00020	8b 45 fc	 mov	 eax, DWORD PTR _this$[ebp]
  00023	8b e5		 mov	 esp, ebp
  00025	5d		 pop	 ebp
  00026	c2 04 00	 ret	 4
??_GBCMenu@@UAEPAXI@Z ENDP				; BCMenu::`scalar deleting destructor'
_TEXT	ENDS
PUBLIC	??_7?$CTypedPtrArray@VCPtrArray@@PAVBCMenuData@@@@6B@ ; CTypedPtrArray<CPtrArray,BCMenuData *>::`vftable'
PUBLIC	??_G?$CTypedPtrArray@VCPtrArray@@PAVBCMenuData@@@@UAEPAXI@Z ; CTypedPtrArray<CPtrArray,BCMenuData *>::`scalar deleting destructor'
PUBLIC	??_R4?$CTypedPtrArray@VCPtrArray@@PAVBCMenuData@@@@6B@ ; CTypedPtrArray<CPtrArray,BCMenuData *>::`RTTI Complete Object Locator'
PUBLIC	??_R0?AV?$CTypedPtrArray@VCPtrArray@@PAVBCMenuData@@@@@8 ; CTypedPtrArray<CPtrArray,BCMenuData *> `RTTI Type Descriptor'
PUBLIC	??_R3?$CTypedPtrArray@VCPtrArray@@PAVBCMenuData@@@@8 ; CTypedPtrArray<CPtrArray,BCMenuData *>::`RTTI Class Hierarchy Descriptor'
PUBLIC	??_R2?$CTypedPtrArray@VCPtrArray@@PAVBCMenuData@@@@8 ; CTypedPtrArray<CPtrArray,BCMenuData *>::`RTTI Base Class Array'
PUBLIC	??_R1A@?0A@A@?$CTypedPtrArray@VCPtrArray@@PAVBCMenuData@@@@8 ; CTypedPtrArray<CPtrArray,BCMenuData *>::`RTTI Base Class Descriptor at (0,-1,0,0)'
EXTRN	??_E?$CTypedPtrArray@VCPtrArray@@PAVBCMenuData@@@@UAEPAXI@Z:NEAR ; CTypedPtrArray<CPtrArray,BCMenuData *>::`vector deleting destructor'
;	COMDAT ??_7?$CTypedPtrArray@VCPtrArray@@PAVBCMenuData@@@@6B@
CONST	SEGMENT
??_7?$CTypedPtrArray@VCPtrArray@@PAVBCMenuData@@@@6B@ DD FLAT:??_R4?$CTypedPtrArray@VCPtrArray@@PAVBCMenuData@@@@6B@ ; CTypedPtrArray<CPtrArray,BCMenuData *>::`vftable'
	DD	FLAT:?GetRuntimeClass@CPtrArray@@UBEPAUCRuntimeClass@@XZ
	DD	FLAT:??_E?$CTypedPtrArray@VCPtrArray@@PAVBCMenuData@@@@UAEPAXI@Z
	DD	FLAT:?Serialize@CObject@@UAEXAAVCArchive@@@Z
	DD	FLAT:?AssertValid@CObject@@UBEXXZ
	DD	FLAT:?Dump@CObject@@UBEXAAVCDumpContext@@@Z
CONST	ENDS
;	COMDAT ??_R4?$CTypedPtrArray@VCPtrArray@@PAVBCMenuData@@@@6B@
rdata$r	SEGMENT
??_R4?$CTypedPtrArray@VCPtrArray@@PAVBCMenuData@@@@6B@ DD 00H ; CTypedPtrArray<CPtrArray,BCMenuData *>::`RTTI Complete Object Locator'
	DD	00H
	DD	00H
	DD	FLAT:??_R0?AV?$CTypedPtrArray@VCPtrArray@@PAVBCMenuData@@@@@8
	DD	FLAT:??_R3?$CTypedPtrArray@VCPtrArray@@PAVBCMenuData@@@@8
rdata$r	ENDS
;	COMDAT ??_R0?AV?$CTypedPtrArray@VCPtrArray@@PAVBCMenuData@@@@@8
_DATA	SEGMENT
??_R0?AV?$CTypedPtrArray@VCPtrArray@@PAVBCMenuData@@@@@8 DD FLAT:??_7type_info@@6B@ ; CTypedPtrArray<CPtrArray,BCMenuData *> `RTTI Type Descriptor'
	DD	00H
	DB	'.?AV?$CTypedPtrArray@VCPtrArray@@PAVBCMenuData@@@@', 00H
_DATA	ENDS
;	COMDAT ??_R3?$CTypedPtrArray@VCPtrArray@@PAVBCMenuData@@@@8
rdata$r	SEGMENT
??_R3?$CTypedPtrArray@VCPtrArray@@PAVBCMenuData@@@@8 DD 00H ; CTypedPtrArray<CPtrArray,BCMenuData *>::`RTTI Class Hierarchy Descriptor'
	DD	00H
	DD	03H
	DD	FLAT:??_R2?$CTypedPtrArray@VCPtrArray@@PAVBCMenuData@@@@8
rdata$r	ENDS
;	COMDAT ??_R2?$CTypedPtrArray@VCPtrArray@@PAVBCMenuData@@@@8
rdata$r	SEGMENT
??_R2?$CTypedPtrArray@VCPtrArray@@PAVBCMenuData@@@@8 DD FLAT:??_R1A@?0A@A@?$CTypedPtrArray@VCPtrArray@@PAVBCMenuData@@@@8 ; CTypedPtrArray<CPtrArray,BCMenuData *>::`RTTI Base Class Array'
	DD	FLAT:??_R1A@?0A@A@CPtrArray@@8
	DD	FLAT:??_R1A@?0A@A@CObject@@8
rdata$r	ENDS
;	COMDAT ??_R1A@?0A@A@?$CTypedPtrArray@VCPtrArray@@PAVBCMenuData@@@@8
rdata$r	SEGMENT
??_R1A@?0A@A@?$CTypedPtrArray@VCPtrArray@@PAVBCMenuData@@@@8 DD FLAT:??_R0?AV?$CTypedPtrArray@VCPtrArray@@PAVBCMenuData@@@@@8 ; CTypedPtrArray<CPtrArray,BCMenuData *>::`RTTI Base Class Descriptor at (0,-1,0,0)'
	DD	02H
	DD	00H
	DD	0ffffffffH
	DD	00H
	DD	00H
; Function compile flags: /Odt
rdata$r	ENDS
;	COMDAT ??0?$CTypedPtrArray@VCPtrArray@@PAVBCMenuData@@@@QAE@XZ
_TEXT	SEGMENT
_this$ = -4						; size = 4
??0?$CTypedPtrArray@VCPtrArray@@PAVBCMenuData@@@@QAE@XZ PROC NEAR ; CTypedPtrArray<CPtrArray,BCMenuData *>::CTypedPtrArray<CPtrArray,BCMenuData *>, COMDAT
; _this$ = ecx
  00000	55		 push	 ebp
  00001	8b ec		 mov	 ebp, esp
  00003	51		 push	 ecx
  00004	89 4d fc	 mov	 DWORD PTR _this$[ebp], ecx
  00007	8b 4d fc	 mov	 ecx, DWORD PTR _this$[ebp]
  0000a	e8 00 00 00 00	 call	 ??0CPtrArray@@QAE@XZ	; CPtrArray::CPtrArray
  0000f	8b 45 fc	 mov	 eax, DWORD PTR _this$[ebp]
  00012	c7 00 00 00 00
	00		 mov	 DWORD PTR [eax], OFFSET FLAT:??_7?$CTypedPtrArray@VCPtrArray@@PAVBCMenuData@@@@6B@
  00018	8b 45 fc	 mov	 eax, DWORD PTR _this$[ebp]
  0001b	8b e5		 mov	 esp, ebp
  0001d	5d		 pop	 ebp
  0001e	c3		 ret	 0
??0?$CTypedPtrArray@VCPtrArray@@PAVBCMenuData@@@@QAE@XZ ENDP ; CTypedPtrArray<CPtrArray,BCMenuData *>::CTypedPtrArray<CPtrArray,BCMenuData *>
; Function compile flags: /Odt
_TEXT	ENDS
;	COMDAT ??1?$CTypedPtrArray@VCPtrArray@@PAVBCMenuData@@@@UAE@XZ
_TEXT	SEGMENT
_this$ = -4						; size = 4
??1?$CTypedPtrArray@VCPtrArray@@PAVBCMenuData@@@@UAE@XZ PROC NEAR ; CTypedPtrArray<CPtrArray,BCMenuData *>::~CTypedPtrArray<CPtrArray,BCMenuData *>, COMDAT
; _this$ = ecx
  00000	55		 push	 ebp
  00001	8b ec		 mov	 ebp, esp
  00003	51		 push	 ecx
  00004	89 4d fc	 mov	 DWORD PTR _this$[ebp], ecx
  00007	8b 4d fc	 mov	 ecx, DWORD PTR _this$[ebp]
  0000a	e8 00 00 00 00	 call	 ??1CPtrArray@@UAE@XZ	; CPtrArray::~CPtrArray
  0000f	8b e5		 mov	 esp, ebp
  00011	5d		 pop	 ebp
  00012	c3		 ret	 0
??1?$CTypedPtrArray@VCPtrArray@@PAVBCMenuData@@@@UAE@XZ ENDP ; CTypedPtrArray<CPtrArray,BCMenuData *>::~CTypedPtrArray<CPtrArray,BCMenuData *>
; Function compile flags: /Odt
_TEXT	ENDS
;	COMDAT ??_G?$CTypedPtrArray@VCPtrArray@@PAVBCMenuData@@@@UAEPAXI@Z
_TEXT	SEGMENT
_this$ = -4						; size = 4
___flags$ = 8						; size = 4
??_G?$CTypedPtrArray@VCPtrArray@@PAVBCMenuData@@@@UAEPAXI@Z PROC NEAR ; CTypedPtrArray<CPtrArray,BCMenuData *>::`scalar deleting destructor', COMDAT
; _this$ = ecx
  00000	55		 push	 ebp
  00001	8b ec		 mov	 ebp, esp
  00003	51		 push	 ecx
  00004	89 4d fc	 mov	 DWORD PTR _this$[ebp], ecx
  00007	8b 4d fc	 mov	 ecx, DWORD PTR _this$[ebp]
  0000a	e8 00 00 00 00	 call	 ??1?$CTypedPtrArray@VCPtrArray@@PAVBCMenuData@@@@UAE@XZ
  0000f	8b 45 08	 mov	 eax, DWORD PTR ___flags$[ebp]
  00012	83 e0 01	 and	 eax, 1
  00015	74 09		 je	 SHORT $L198216
  00017	8b 4d fc	 mov	 ecx, DWORD PTR _this$[ebp]
  0001a	51		 push	 ecx
  0001b	e8 00 00 00 00	 call	 ??3CObject@@SGXPAX@Z	; CObject::operator delete
$L198216:
  00020	8b 45 fc	 mov	 eax, DWORD PTR _this$[ebp]
  00023	8b e5		 mov	 esp, ebp
  00025	5d		 pop	 ebp
  00026	c2 04 00	 ret	 4
??_G?$CTypedPtrArray@VCPtrArray@@PAVBCMenuData@@@@UAEPAXI@Z ENDP ; CTypedPtrArray<CPtrArray,BCMenuData *>::`scalar deleting destructor'
_TEXT	ENDS
xdata$x	SEGMENT
$T202358 DD	0ffffffffH
	DD	FLAT:$L202352
	DD	00H
	DD	FLAT:$L202353
	DD	01H
	DD	FLAT:$L202354
$T202356 DD	019930520H
	DD	03H
	DD	FLAT:$T202358
	DD	2 DUP(00H)
	DD	2 DUP(00H)
; Function compile flags: /Odt
xdata$x	ENDS
_TEXT	SEGMENT
_this$ = -16						; size = 4
__$EHRec$ = -12						; size = 12
??1BCMenu@@UAE@XZ PROC NEAR				; BCMenu::~BCMenu
; _this$ = ecx

; 197  : {

  00430	55		 push	 ebp
  00431	8b ec		 mov	 ebp, esp
  00433	6a ff		 push	 -1
  00435	68 00 00 00 00	 push	 __ehhandler$??1BCMenu@@UAE@XZ
  0043a	64 a1 00 00 00
	00		 mov	 eax, DWORD PTR fs:__except_list
  00440	50		 push	 eax
  00441	64 89 25 00 00
	00 00		 mov	 DWORD PTR fs:__except_list, esp
  00448	51		 push	 ecx
  00449	89 4d f0	 mov	 DWORD PTR _this$[ebp], ecx
  0044c	8b 45 f0	 mov	 eax, DWORD PTR _this$[ebp]
  0044f	c7 00 00 00 00
	00		 mov	 DWORD PTR [eax], OFFSET FLAT:??_7BCMenu@@6B@
  00455	c7 45 fc 02 00
	00 00		 mov	 DWORD PTR __$EHRec$[ebp+8], 2

; 198  : 	DestroyMenu();

  0045c	8b 4d f0	 mov	 ecx, DWORD PTR _this$[ebp]
  0045f	e8 00 00 00 00	 call	 ?DestroyMenu@BCMenu@@UAEHXZ ; BCMenu::DestroyMenu

; 199  : }

  00464	c6 45 fc 01	 mov	 BYTE PTR __$EHRec$[ebp+8], 1
  00468	8b 4d f0	 mov	 ecx, DWORD PTR _this$[ebp]
  0046b	83 c1 1c	 add	 ecx, 28			; 0000001cH
  0046e	e8 00 00 00 00	 call	 ??1?$CTypedPtrArray@VCPtrArray@@PAUHMENU__@@@@UAE@XZ
  00473	c6 45 fc 00	 mov	 BYTE PTR __$EHRec$[ebp+8], 0
  00477	8b 4d f0	 mov	 ecx, DWORD PTR _this$[ebp]
  0047a	83 c1 08	 add	 ecx, 8
  0047d	e8 00 00 00 00	 call	 ??1?$CTypedPtrArray@VCPtrArray@@PAVBCMenuData@@@@UAE@XZ
  00482	c7 45 fc ff ff
	ff ff		 mov	 DWORD PTR __$EHRec$[ebp+8], -1
  00489	8b 4d f0	 mov	 ecx, DWORD PTR _this$[ebp]
  0048c	e8 00 00 00 00	 call	 ??1CMenu@@UAE@XZ	; CMenu::~CMenu
  00491	8b 4d f4	 mov	 ecx, DWORD PTR __$EHRec$[ebp]
  00494	64 89 0d 00 00
	00 00		 mov	 DWORD PTR fs:__except_list, ecx
  0049b	8b e5		 mov	 esp, ebp
  0049d	5d		 pop	 ebp
  0049e	c3		 ret	 0
_TEXT	ENDS
text$x	SEGMENT
$L202352:
  0003b	8b 4d f0	 mov	 ecx, DWORD PTR _this$[ebp]
  0003e	e9 00 00 00 00	 jmp	 ??1CMenu@@UAE@XZ	; CMenu::~CMenu
$L202353:
  00043	8b 4d f0	 mov	 ecx, DWORD PTR _this$[ebp]
  00046	83 c1 08	 add	 ecx, 8
  00049	e9 00 00 00 00	 jmp	 ??1?$CTypedPtrArray@VCPtrArray@@PAVBCMenuData@@@@UAE@XZ
$L202354:
  0004e	8b 4d f0	 mov	 ecx, DWORD PTR _this$[ebp]
  00051	83 c1 1c	 add	 ecx, 28			; 0000001cH
  00054	e9 00 00 00 00	 jmp	 ??1?$CTypedPtrArray@VCPtrArray@@PAUHMENU__@@@@UAE@XZ
__ehhandler$??1BCMenu@@UAE@XZ:
  00059	b8 00 00 00 00	 mov	 eax, OFFSET FLAT:$T202356
  0005e	e9 00 00 00 00	 jmp	 ___CxxFrameHandler
text$x	ENDS
??1BCMenu@@UAE@XZ ENDP					; BCMenu::~BCMenu
PUBLIC	?IsNewShell@BCMenu@@KAHXZ			; BCMenu::IsNewShell
; Function compile flags: /Odt
_TEXT	SEGMENT
?IsNewShell@BCMenu@@KAHXZ PROC NEAR			; BCMenu::IsNewShell

; 202  : {

  004a0	55		 push	 ebp
  004a1	8b ec		 mov	 ebp, esp

; 203  : 	return (g_Shell>=Win95);

  004a3	33 c0		 xor	 eax, eax
  004a5	83 3d 00 00 00
	00 02		 cmp	 DWORD PTR _g_Shell, 2
  004ac	0f 9d c0	 setge	 al

; 204  : }

  004af	5d		 pop	 ebp
  004b0	c3		 ret	 0
?IsNewShell@BCMenu@@KAHXZ ENDP				; BCMenu::IsNewShell
_TEXT	ENDS
PUBLIC	?IsWindowsClassicTheme@BCMenu@@KAHXZ		; BCMenu::IsWindowsClassicTheme
; Function compile flags: /Odt
_TEXT	SEGMENT
?IsWinXPLuna@BCMenu@@KAHXZ PROC NEAR			; BCMenu::IsWinXPLuna

; 207  : {

  004c0	55		 push	 ebp
  004c1	8b ec		 mov	 ebp, esp

; 208  : 	if(g_Shell==WinXP){

  004c3	83 3d 00 00 00
	00 07		 cmp	 DWORD PTR _g_Shell, 7
  004ca	75 14		 jne	 SHORT $L198224

; 209  : 		if(IsWindowsClassicTheme())return(FALSE);

  004cc	e8 00 00 00 00	 call	 ?IsWindowsClassicTheme@BCMenu@@KAHXZ ; BCMenu::IsWindowsClassicTheme
  004d1	85 c0		 test	 eax, eax
  004d3	74 04		 je	 SHORT $L198225
  004d5	33 c0		 xor	 eax, eax
  004d7	eb 09		 jmp	 SHORT $L198223
$L198225:

; 210  : 		else return(TRUE);

  004d9	b8 01 00 00 00	 mov	 eax, 1
  004de	eb 02		 jmp	 SHORT $L198223
$L198224:

; 211  : 	}
; 212  : 	return(FALSE);

  004e0	33 c0		 xor	 eax, eax
$L198223:

; 213  : }

  004e2	5d		 pop	 ebp
  004e3	c3		 ret	 0
?IsWinXPLuna@BCMenu@@KAHXZ ENDP				; BCMenu::IsWinXPLuna
_TEXT	ENDS
PUBLIC	?IsLunaMenuStyle@BCMenu@@KAHXZ			; BCMenu::IsLunaMenuStyle
; Function compile flags: /Odt
_TEXT	SEGMENT
?IsLunaMenuStyle@BCMenu@@KAHXZ PROC NEAR		; BCMenu::IsLunaMenuStyle

; 216  : {

  004f0	55		 push	 ebp
  004f1	8b ec		 mov	 ebp, esp

; 217  : 	if(IsWinXPLuna()){

  004f3	e8 00 00 00 00	 call	 ?IsWinXPLuna@BCMenu@@KAHXZ ; BCMenu::IsWinXPLuna
  004f8	85 c0		 test	 eax, eax
  004fa	74 12		 je	 SHORT $L198229

; 218  : 		if(xp_drawmode==BCMENU_DRAWMODE_XP)return(TRUE);

  004fc	83 3d 00 00 00
	00 01		 cmp	 DWORD PTR ?xp_drawmode@BCMenu@@1IA, 1 ; BCMenu::xp_drawmode
  00503	75 07		 jne	 SHORT $L198230
  00505	b8 01 00 00 00	 mov	 eax, 1
  0050a	eb 14		 jmp	 SHORT $L198228
$L198230:

; 219  : 	}
; 220  : 	else{

  0050c	eb 10		 jmp	 SHORT $L198231
$L198229:

; 221  : 		if(original_drawmode==BCMENU_DRAWMODE_XP)return(TRUE);

  0050e	83 3d 00 00 00
	00 01		 cmp	 DWORD PTR ?original_drawmode@BCMenu@@1IA, 1 ; BCMenu::original_drawmode
  00515	75 07		 jne	 SHORT $L198231
  00517	b8 01 00 00 00	 mov	 eax, 1
  0051c	eb 02		 jmp	 SHORT $L198228
$L198231:

; 222  : 	}
; 223  : 	return(FALSE);

  0051e	33 c0		 xor	 eax, eax
$L198228:

; 224  : }

  00520	5d		 pop	 ebp
  00521	c3		 ret	 0
?IsLunaMenuStyle@BCMenu@@KAHXZ ENDP			; BCMenu::IsLunaMenuStyle
_TEXT	ENDS
PUBLIC	??1BCMenuData@@QAE@XZ				; BCMenuData::~BCMenuData
; Function compile flags: /Odt
_TEXT	SEGMENT
tv73 = -20						; size = 4
_this$ = -16						; size = 4
$T202367 = -12						; size = 4
$T202364 = -8						; size = 4
$T202363 = -4						; size = 4
??1BCMenuData@@QAE@XZ PROC NEAR				; BCMenuData::~BCMenuData
; _this$ = ecx

; 227  : {

  00530	55		 push	 ebp
  00531	8b ec		 mov	 ebp, esp
  00533	83 ec 14	 sub	 esp, 20			; 00000014H
  00536	89 4d f0	 mov	 DWORD PTR _this$[ebp], ecx

; 228  : 	if(bitmap)

  00539	8b 45 f0	 mov	 eax, DWORD PTR _this$[ebp]
  0053c	83 78 1c 00	 cmp	 DWORD PTR [eax+28], 0
  00540	74 2e		 je	 SHORT $L198236

; 229  : 		delete(bitmap);

  00542	8b 4d f0	 mov	 ecx, DWORD PTR _this$[ebp]
  00545	8b 51 1c	 mov	 edx, DWORD PTR [ecx+28]
  00548	89 55 f8	 mov	 DWORD PTR $T202364[ebp], edx
  0054b	8b 45 f8	 mov	 eax, DWORD PTR $T202364[ebp]
  0054e	89 45 fc	 mov	 DWORD PTR $T202363[ebp], eax
  00551	83 7d fc 00	 cmp	 DWORD PTR $T202363[ebp], 0
  00555	74 12		 je	 SHORT $L202365
  00557	6a 01		 push	 1
  00559	8b 4d fc	 mov	 ecx, DWORD PTR $T202363[ebp]
  0055c	8b 11		 mov	 edx, DWORD PTR [ecx]
  0055e	8b 4d fc	 mov	 ecx, DWORD PTR $T202363[ebp]
  00561	ff 52 04	 call	 DWORD PTR [edx+4]
  00564	89 45 ec	 mov	 DWORD PTR tv73[ebp], eax
  00567	eb 07		 jmp	 SHORT $L198236
$L202365:
  00569	c7 45 ec 00 00
	00 00		 mov	 DWORD PTR tv73[ebp], 0
$L198236:

; 230  : 	
; 231  : 	delete[] m_szMenuText; //Need not check for NULL because ANSI X3J16 allows "delete NULL"

  00570	8b 45 f0	 mov	 eax, DWORD PTR _this$[ebp]
  00573	8b 08		 mov	 ecx, DWORD PTR [eax]
  00575	89 4d f4	 mov	 DWORD PTR $T202367[ebp], ecx
  00578	8b 55 f4	 mov	 edx, DWORD PTR $T202367[ebp]
  0057b	52		 push	 edx
  0057c	e8 00 00 00 00	 call	 ??_V@YAXPAX@Z		; operator delete[]
  00581	83 c4 04	 add	 esp, 4

; 232  : }

  00584	8b e5		 mov	 esp, ebp
  00586	5d		 pop	 ebp
  00587	c3		 ret	 0
??1BCMenuData@@QAE@XZ ENDP				; BCMenuData::~BCMenuData
_TEXT	ENDS
EXTRN	__imp__wcscpy:NEAR
EXTRN	__imp__wcslen:NEAR
; Function compile flags: /Odt
_TEXT	SEGMENT
_this$ = -12						; size = 4
$T202370 = -8						; size = 4
$T202369 = -4						; size = 4
_szWideString$ = 8					; size = 4
?SetWideString@BCMenuData@@QAEXPB_W@Z PROC NEAR		; BCMenuData::SetWideString
; _this$ = ecx

; 236  : {

  00590	55		 push	 ebp
  00591	8b ec		 mov	 ebp, esp
  00593	83 ec 0c	 sub	 esp, 12			; 0000000cH
  00596	89 4d f4	 mov	 DWORD PTR _this$[ebp], ecx

; 237  : 	delete[] m_szMenuText;//Need not check for NULL because ANSI X3J16 allows "delete NULL"

  00599	8b 45 f4	 mov	 eax, DWORD PTR _this$[ebp]
  0059c	8b 08		 mov	 ecx, DWORD PTR [eax]
  0059e	89 4d fc	 mov	 DWORD PTR $T202369[ebp], ecx
  005a1	8b 55 fc	 mov	 edx, DWORD PTR $T202369[ebp]
  005a4	52		 push	 edx
  005a5	e8 00 00 00 00	 call	 ??_V@YAXPAX@Z		; operator delete[]
  005aa	83 c4 04	 add	 esp, 4

; 238  : 	
; 239  : 	if (szWideString)

  005ad	83 7d 08 00	 cmp	 DWORD PTR _szWideString$[ebp], 0
  005b1	74 44		 je	 SHORT $L198245

; 240  :     {
; 241  : 		m_szMenuText = new wchar_t[sizeof(wchar_t)*(wcslen(szWideString)+1)];

  005b3	8b 45 08	 mov	 eax, DWORD PTR _szWideString$[ebp]
  005b6	50		 push	 eax
  005b7	ff 15 00 00 00
	00		 call	 DWORD PTR __imp__wcslen
  005bd	83 c4 04	 add	 esp, 4
  005c0	8d 4c 00 02	 lea	 ecx, DWORD PTR [eax+eax+2]
  005c4	d1 e1		 shl	 ecx, 1
  005c6	51		 push	 ecx
  005c7	e8 00 00 00 00	 call	 ??_U@YAPAXI@Z		; operator new[]
  005cc	83 c4 04	 add	 esp, 4
  005cf	89 45 f8	 mov	 DWORD PTR $T202370[ebp], eax
  005d2	8b 55 f4	 mov	 edx, DWORD PTR _this$[ebp]
  005d5	8b 45 f8	 mov	 eax, DWORD PTR $T202370[ebp]
  005d8	89 02		 mov	 DWORD PTR [edx], eax

; 242  : 		if (m_szMenuText)

  005da	8b 4d f4	 mov	 ecx, DWORD PTR _this$[ebp]
  005dd	83 39 00	 cmp	 DWORD PTR [ecx], 0
  005e0	74 13		 je	 SHORT $L198249

; 243  : 			wcscpy(m_szMenuText,szWideString);

  005e2	8b 55 08	 mov	 edx, DWORD PTR _szWideString$[ebp]
  005e5	52		 push	 edx
  005e6	8b 45 f4	 mov	 eax, DWORD PTR _this$[ebp]
  005e9	8b 08		 mov	 ecx, DWORD PTR [eax]
  005eb	51		 push	 ecx
  005ec	ff 15 00 00 00
	00		 call	 DWORD PTR __imp__wcscpy
  005f2	83 c4 08	 add	 esp, 8
$L198249:

; 244  :     }
; 245  : 	else

  005f5	eb 09		 jmp	 SHORT $L198243
$L198245:

; 246  : 		m_szMenuText=NULL;//set to NULL so we need not bother about dangling non-NULL Ptrs

  005f7	8b 55 f4	 mov	 edx, DWORD PTR _this$[ebp]
  005fa	c7 02 00 00 00
	00		 mov	 DWORD PTR [edx], 0
$L198243:

; 247  : }

  00600	8b e5		 mov	 esp, ebp
  00602	5d		 pop	 ebp
  00603	c2 04 00	 ret	 4
?SetWideString@BCMenuData@@QAEXPB_W@Z ENDP		; BCMenuData::SetWideString
_TEXT	ENDS
PUBLIC	?GetUpperBound@CPtrArray@@QBEHXZ		; CPtrArray::GetUpperBound
PUBLIC	?IsMenu@BCMenu@@SAHPAVCMenu@@@Z			; BCMenu::IsMenu
PUBLIC	??A?$CTypedPtrArray@VCPtrArray@@PAUHMENU__@@@@QAEAAPAUHMENU__@@H@Z ; CTypedPtrArray<CPtrArray,HMENU__ *>::operator[]
; Function compile flags: /Odt
_TEXT	SEGMENT
_m$ = -8						; size = 4
_numSubMenus$ = -4					; size = 4
_submenu$ = 8						; size = 4
?IsMenu@BCMenu@@SAHPAVCMenu@@@Z PROC NEAR		; BCMenu::IsMenu

; 250  : {

  00610	55		 push	 ebp
  00611	8b ec		 mov	 ebp, esp
  00613	83 ec 08	 sub	 esp, 8

; 251  : 	int m;
; 252  : 	int numSubMenus = (int)m_AllSubMenus.GetUpperBound();

  00616	b9 00 00 00 00	 mov	 ecx, OFFSET FLAT:?m_AllSubMenus@BCMenu@@1V?$CTypedPtrArray@VCPtrArray@@PAUHMENU__@@@@A
  0061b	e8 00 00 00 00	 call	 ?GetUpperBound@CPtrArray@@QBEHXZ ; CPtrArray::GetUpperBound
  00620	89 45 fc	 mov	 DWORD PTR _numSubMenus$[ebp], eax

; 253  : 	for(m=0;m<=numSubMenus;++m){

  00623	c7 45 f8 00 00
	00 00		 mov	 DWORD PTR _m$[ebp], 0
  0062a	eb 09		 jmp	 SHORT $L198257
$L198258:
  0062c	8b 45 f8	 mov	 eax, DWORD PTR _m$[ebp]
  0062f	83 c0 01	 add	 eax, 1
  00632	89 45 f8	 mov	 DWORD PTR _m$[ebp], eax
$L198257:
  00635	8b 4d f8	 mov	 ecx, DWORD PTR _m$[ebp]
  00638	3b 4d fc	 cmp	 ecx, DWORD PTR _numSubMenus$[ebp]
  0063b	7f 21		 jg	 SHORT $L198259

; 254  : 		if(submenu->m_hMenu==m_AllSubMenus[m])return(TRUE);

  0063d	8b 55 f8	 mov	 edx, DWORD PTR _m$[ebp]
  00640	52		 push	 edx
  00641	b9 00 00 00 00	 mov	 ecx, OFFSET FLAT:?m_AllSubMenus@BCMenu@@1V?$CTypedPtrArray@VCPtrArray@@PAUHMENU__@@@@A
  00646	e8 00 00 00 00	 call	 ??A?$CTypedPtrArray@VCPtrArray@@PAUHMENU__@@@@QAEAAPAUHMENU__@@H@Z ; CTypedPtrArray<CPtrArray,HMENU__ *>::operator[]
  0064b	8b 4d 08	 mov	 ecx, DWORD PTR _submenu$[ebp]
  0064e	8b 51 04	 mov	 edx, DWORD PTR [ecx+4]
  00651	3b 10		 cmp	 edx, DWORD PTR [eax]
  00653	75 07		 jne	 SHORT $L198260
  00655	b8 01 00 00 00	 mov	 eax, 1
  0065a	eb 04		 jmp	 SHORT $L198253
$L198260:

; 255  : 	}

  0065c	eb ce		 jmp	 SHORT $L198258
$L198259:

; 256  : 	return(FALSE);

  0065e	33 c0		 xor	 eax, eax
$L198253:

; 257  : }

  00660	8b e5		 mov	 esp, ebp
  00662	5d		 pop	 ebp
  00663	c3		 ret	 0
?IsMenu@BCMenu@@SAHPAVCMenu@@@Z ENDP			; BCMenu::IsMenu
_TEXT	ENDS
PUBLIC	?IsMenu@BCMenu@@SAHPAUHMENU__@@@Z		; BCMenu::IsMenu
; Function compile flags: /Odt
_TEXT	SEGMENT
_m$ = -8						; size = 4
_numSubMenus$ = -4					; size = 4
_submenu$ = 8						; size = 4
?IsMenu@BCMenu@@SAHPAUHMENU__@@@Z PROC NEAR		; BCMenu::IsMenu

; 260  : {

  00670	55		 push	 ebp
  00671	8b ec		 mov	 ebp, esp
  00673	83 ec 08	 sub	 esp, 8

; 261  : 	int m;
; 262  : 	int numSubMenus = (int)m_AllSubMenus.GetUpperBound();

  00676	b9 00 00 00 00	 mov	 ecx, OFFSET FLAT:?m_AllSubMenus@BCMenu@@1V?$CTypedPtrArray@VCPtrArray@@PAUHMENU__@@@@A
  0067b	e8 00 00 00 00	 call	 ?GetUpperBound@CPtrArray@@QBEHXZ ; CPtrArray::GetUpperBound
  00680	89 45 fc	 mov	 DWORD PTR _numSubMenus$[ebp], eax

; 263  : 	for(m=0;m<=numSubMenus;++m){

  00683	c7 45 f8 00 00
	00 00		 mov	 DWORD PTR _m$[ebp], 0
  0068a	eb 09		 jmp	 SHORT $L198267
$L198268:
  0068c	8b 45 f8	 mov	 eax, DWORD PTR _m$[ebp]
  0068f	83 c0 01	 add	 eax, 1
  00692	89 45 f8	 mov	 DWORD PTR _m$[ebp], eax
$L198267:
  00695	8b 4d f8	 mov	 ecx, DWORD PTR _m$[ebp]
  00698	3b 4d fc	 cmp	 ecx, DWORD PTR _numSubMenus$[ebp]
  0069b	7f 1e		 jg	 SHORT $L198269

; 264  : 		if(submenu==m_AllSubMenus[m])return(TRUE);

  0069d	8b 55 f8	 mov	 edx, DWORD PTR _m$[ebp]
  006a0	52		 push	 edx
  006a1	b9 00 00 00 00	 mov	 ecx, OFFSET FLAT:?m_AllSubMenus@BCMenu@@1V?$CTypedPtrArray@VCPtrArray@@PAUHMENU__@@@@A
  006a6	e8 00 00 00 00	 call	 ??A?$CTypedPtrArray@VCPtrArray@@PAUHMENU__@@@@QAEAAPAUHMENU__@@H@Z ; CTypedPtrArray<CPtrArray,HMENU__ *>::operator[]
  006ab	8b 4d 08	 mov	 ecx, DWORD PTR _submenu$[ebp]
  006ae	3b 08		 cmp	 ecx, DWORD PTR [eax]
  006b0	75 07		 jne	 SHORT $L198270
  006b2	b8 01 00 00 00	 mov	 eax, 1
  006b7	eb 04		 jmp	 SHORT $L198263
$L198270:

; 265  : 	}

  006b9	eb d1		 jmp	 SHORT $L198268
$L198269:

; 266  : 	return(FALSE);

  006bb	33 c0		 xor	 eax, eax
$L198263:

; 267  : }

  006bd	8b e5		 mov	 esp, ebp
  006bf	5d		 pop	 ebp
  006c0	c3		 ret	 0
?IsMenu@BCMenu@@SAHPAUHMENU__@@@Z ENDP			; BCMenu::IsMenu
_TEXT	ENDS
PUBLIC	?RemoveAll@CPtrArray@@QAEXXZ			; CPtrArray::RemoveAll
PUBLIC	??A?$CTypedPtrArray@VCPtrArray@@PAVBCMenuData@@@@QAEAAPAVBCMenuData@@H@Z ; CTypedPtrArray<CPtrArray,BCMenuData *>::operator[]
PUBLIC	??_GBCMenuData@@QAEPAXI@Z			; BCMenuData::`scalar deleting destructor'
EXTRN	?RemoveAt@CPtrArray@@QAEXHH@Z:NEAR		; CPtrArray::RemoveAt
EXTRN	?IsKindOf@CObject@@QBEHPBUCRuntimeClass@@@Z:NEAR ; CObject::IsKindOf
EXTRN	?DestroyMenu@CMenu@@QAEHXZ:NEAR			; CMenu::DestroyMenu
EXTRN	?FromHandle@CMenu@@SGPAV1@PAUHMENU__@@@Z:NEAR	; CMenu::FromHandle
; Function compile flags: /Odt
_TEXT	SEGMENT
tv180 = -68						; size = 4
tv165 = -64						; size = 4
tv147 = -60						; size = 4
_this$ = -56						; size = 4
$T202383 = -52						; size = 4
$T202382 = -48						; size = 4
$T202379 = -44						; size = 4
$T202378 = -40						; size = 4
$T202375 = -36						; size = 4
$T202374 = -32						; size = 4
_flag$198294 = -28					; size = 4
_ptr$198292 = -24					; size = 4
_m$ = -20						; size = 4
_numAllSubMenus$ = -16					; size = 4
_n$ = -12						; size = 4
_numSubMenus$ = -8					; size = 4
_numItems$ = -4						; size = 4
?DestroyMenu@BCMenu@@UAEHXZ PROC NEAR			; BCMenu::DestroyMenu
; _this$ = ecx

; 270  : {

  006d0	55		 push	 ebp
  006d1	8b ec		 mov	 ebp, esp
  006d3	83 ec 44	 sub	 esp, 68			; 00000044H
  006d6	56		 push	 esi
  006d7	89 4d c8	 mov	 DWORD PTR _this$[ebp], ecx

; 271  : 	// Destroy Sub menus:
; 272  : 	int m,n;
; 273  : 	int numAllSubMenus = (int)m_AllSubMenus.GetUpperBound();

  006da	b9 00 00 00 00	 mov	 ecx, OFFSET FLAT:?m_AllSubMenus@BCMenu@@1V?$CTypedPtrArray@VCPtrArray@@PAUHMENU__@@@@A
  006df	e8 00 00 00 00	 call	 ?GetUpperBound@CPtrArray@@QBEHXZ ; CPtrArray::GetUpperBound
  006e4	89 45 f0	 mov	 DWORD PTR _numAllSubMenus$[ebp], eax

; 274  : 	for(n = numAllSubMenus; n>= 0; n--){

  006e7	8b 45 f0	 mov	 eax, DWORD PTR _numAllSubMenus$[ebp]
  006ea	89 45 f4	 mov	 DWORD PTR _n$[ebp], eax
  006ed	eb 09		 jmp	 SHORT $L198278
$L198279:
  006ef	8b 4d f4	 mov	 ecx, DWORD PTR _n$[ebp]
  006f2	83 e9 01	 sub	 ecx, 1
  006f5	89 4d f4	 mov	 DWORD PTR _n$[ebp], ecx
$L198278:
  006f8	83 7d f4 00	 cmp	 DWORD PTR _n$[ebp], 0
  006fc	7c 2a		 jl	 SHORT $L198280

; 275  : 		if(m_AllSubMenus[n]==this->m_hMenu)m_AllSubMenus.RemoveAt(n);

  006fe	8b 55 f4	 mov	 edx, DWORD PTR _n$[ebp]
  00701	52		 push	 edx
  00702	b9 00 00 00 00	 mov	 ecx, OFFSET FLAT:?m_AllSubMenus@BCMenu@@1V?$CTypedPtrArray@VCPtrArray@@PAUHMENU__@@@@A
  00707	e8 00 00 00 00	 call	 ??A?$CTypedPtrArray@VCPtrArray@@PAUHMENU__@@@@QAEAAPAUHMENU__@@H@Z ; CTypedPtrArray<CPtrArray,HMENU__ *>::operator[]
  0070c	8b 4d c8	 mov	 ecx, DWORD PTR _this$[ebp]
  0070f	8b 10		 mov	 edx, DWORD PTR [eax]
  00711	3b 51 04	 cmp	 edx, DWORD PTR [ecx+4]
  00714	75 10		 jne	 SHORT $L198281
  00716	6a 01		 push	 1
  00718	8b 45 f4	 mov	 eax, DWORD PTR _n$[ebp]
  0071b	50		 push	 eax
  0071c	b9 00 00 00 00	 mov	 ecx, OFFSET FLAT:?m_AllSubMenus@BCMenu@@1V?$CTypedPtrArray@VCPtrArray@@PAUHMENU__@@@@A
  00721	e8 00 00 00 00	 call	 ?RemoveAt@CPtrArray@@QAEXHH@Z ; CPtrArray::RemoveAt
$L198281:

; 276  : 	}

  00726	eb c7		 jmp	 SHORT $L198279
$L198280:

; 277  : 	int numSubMenus = (int)m_SubMenus.GetUpperBound();

  00728	8b 4d c8	 mov	 ecx, DWORD PTR _this$[ebp]
  0072b	83 c1 1c	 add	 ecx, 28			; 0000001cH
  0072e	e8 00 00 00 00	 call	 ?GetUpperBound@CPtrArray@@QBEHXZ ; CPtrArray::GetUpperBound
  00733	89 45 f8	 mov	 DWORD PTR _numSubMenus$[ebp], eax

; 278  : 	for(m = numSubMenus; m >= 0; m--)

  00736	8b 4d f8	 mov	 ecx, DWORD PTR _numSubMenus$[ebp]
  00739	89 4d ec	 mov	 DWORD PTR _m$[ebp], ecx
  0073c	eb 09		 jmp	 SHORT $L198284
$L198285:
  0073e	8b 55 ec	 mov	 edx, DWORD PTR _m$[ebp]
  00741	83 ea 01	 sub	 edx, 1
  00744	89 55 ec	 mov	 DWORD PTR _m$[ebp], edx
$L198284:
  00747	83 7d ec 00	 cmp	 DWORD PTR _m$[ebp], 0
  0074b	0f 8c c2 00 00
	00		 jl	 $L198286

; 279  : 	{
; 280  : 		numAllSubMenus = (int)m_AllSubMenus.GetUpperBound();

  00751	b9 00 00 00 00	 mov	 ecx, OFFSET FLAT:?m_AllSubMenus@BCMenu@@1V?$CTypedPtrArray@VCPtrArray@@PAUHMENU__@@@@A
  00756	e8 00 00 00 00	 call	 ?GetUpperBound@CPtrArray@@QBEHXZ ; CPtrArray::GetUpperBound
  0075b	89 45 f0	 mov	 DWORD PTR _numAllSubMenus$[ebp], eax

; 281  : 		for(n = numAllSubMenus; n>= 0; n--)

  0075e	8b 45 f0	 mov	 eax, DWORD PTR _numAllSubMenus$[ebp]
  00761	89 45 f4	 mov	 DWORD PTR _n$[ebp], eax
  00764	eb 09		 jmp	 SHORT $L198288
$L198289:
  00766	8b 4d f4	 mov	 ecx, DWORD PTR _n$[ebp]
  00769	83 e9 01	 sub	 ecx, 1
  0076c	89 4d f4	 mov	 DWORD PTR _n$[ebp], ecx
$L198288:
  0076f	83 7d f4 00	 cmp	 DWORD PTR _n$[ebp], 0
  00773	7c 37		 jl	 SHORT $L198290

; 282  : 		{
; 283  : 			if(m_AllSubMenus[n]==m_SubMenus[m])m_AllSubMenus.RemoveAt(n);

  00775	8b 55 f4	 mov	 edx, DWORD PTR _n$[ebp]
  00778	52		 push	 edx
  00779	b9 00 00 00 00	 mov	 ecx, OFFSET FLAT:?m_AllSubMenus@BCMenu@@1V?$CTypedPtrArray@VCPtrArray@@PAUHMENU__@@@@A
  0077e	e8 00 00 00 00	 call	 ??A?$CTypedPtrArray@VCPtrArray@@PAUHMENU__@@@@QAEAAPAUHMENU__@@H@Z ; CTypedPtrArray<CPtrArray,HMENU__ *>::operator[]
  00783	8b f0		 mov	 esi, eax
  00785	8b 45 ec	 mov	 eax, DWORD PTR _m$[ebp]
  00788	50		 push	 eax
  00789	8b 4d c8	 mov	 ecx, DWORD PTR _this$[ebp]
  0078c	83 c1 1c	 add	 ecx, 28			; 0000001cH
  0078f	e8 00 00 00 00	 call	 ??A?$CTypedPtrArray@VCPtrArray@@PAUHMENU__@@@@QAEAAPAUHMENU__@@H@Z ; CTypedPtrArray<CPtrArray,HMENU__ *>::operator[]
  00794	8b 0e		 mov	 ecx, DWORD PTR [esi]
  00796	3b 08		 cmp	 ecx, DWORD PTR [eax]
  00798	75 10		 jne	 SHORT $L198291
  0079a	6a 01		 push	 1
  0079c	8b 55 f4	 mov	 edx, DWORD PTR _n$[ebp]
  0079f	52		 push	 edx
  007a0	b9 00 00 00 00	 mov	 ecx, OFFSET FLAT:?m_AllSubMenus@BCMenu@@1V?$CTypedPtrArray@VCPtrArray@@PAUHMENU__@@@@A
  007a5	e8 00 00 00 00	 call	 ?RemoveAt@CPtrArray@@QAEXHH@Z ; CPtrArray::RemoveAt
$L198291:

; 284  : 		}

  007aa	eb ba		 jmp	 SHORT $L198289
$L198290:

; 285  : 		CMenu *ptr=FromHandle(m_SubMenus[m]);

  007ac	8b 45 ec	 mov	 eax, DWORD PTR _m$[ebp]
  007af	50		 push	 eax
  007b0	8b 4d c8	 mov	 ecx, DWORD PTR _this$[ebp]
  007b3	83 c1 1c	 add	 ecx, 28			; 0000001cH
  007b6	e8 00 00 00 00	 call	 ??A?$CTypedPtrArray@VCPtrArray@@PAUHMENU__@@@@QAEAAPAUHMENU__@@H@Z ; CTypedPtrArray<CPtrArray,HMENU__ *>::operator[]
  007bb	8b 08		 mov	 ecx, DWORD PTR [eax]
  007bd	51		 push	 ecx
  007be	e8 00 00 00 00	 call	 ?FromHandle@CMenu@@SGPAV1@PAUHMENU__@@@Z ; CMenu::FromHandle
  007c3	89 45 e8	 mov	 DWORD PTR _ptr$198292[ebp], eax

; 286  : 		if(ptr)

  007c6	83 7d e8 00	 cmp	 DWORD PTR _ptr$198292[ebp], 0
  007ca	74 42		 je	 SHORT $L198293

; 287  : 		{
; 288  : 			BOOL flag=ptr->IsKindOf(RUNTIME_CLASS( BCMenu ));

  007cc	e8 00 00 00 00	 call	 ?GetThisClass@BCMenu@@SGPAUCRuntimeClass@@XZ ; BCMenu::GetThisClass
  007d1	50		 push	 eax
  007d2	8b 4d e8	 mov	 ecx, DWORD PTR _ptr$198292[ebp]
  007d5	e8 00 00 00 00	 call	 ?IsKindOf@CObject@@QBEHPBUCRuntimeClass@@@Z ; CObject::IsKindOf
  007da	89 45 e4	 mov	 DWORD PTR _flag$198294[ebp], eax

; 289  : 			if(flag)

  007dd	83 7d e4 00	 cmp	 DWORD PTR _flag$198294[ebp], 0
  007e1	74 2b		 je	 SHORT $L198293

; 290  : 				delete((BCMenu *)ptr);

  007e3	8b 55 e8	 mov	 edx, DWORD PTR _ptr$198292[ebp]
  007e6	89 55 dc	 mov	 DWORD PTR $T202375[ebp], edx
  007e9	8b 45 dc	 mov	 eax, DWORD PTR $T202375[ebp]
  007ec	89 45 e0	 mov	 DWORD PTR $T202374[ebp], eax
  007ef	83 7d e0 00	 cmp	 DWORD PTR $T202374[ebp], 0
  007f3	74 12		 je	 SHORT $L202376
  007f5	6a 01		 push	 1
  007f7	8b 4d e0	 mov	 ecx, DWORD PTR $T202374[ebp]
  007fa	8b 11		 mov	 edx, DWORD PTR [ecx]
  007fc	8b 4d e0	 mov	 ecx, DWORD PTR $T202374[ebp]
  007ff	ff 52 04	 call	 DWORD PTR [edx+4]
  00802	89 45 c4	 mov	 DWORD PTR tv147[ebp], eax
  00805	eb 07		 jmp	 SHORT $L198293
$L202376:
  00807	c7 45 c4 00 00
	00 00		 mov	 DWORD PTR tv147[ebp], 0
$L198293:

; 291  : 		}
; 292  : 	}

  0080e	e9 2b ff ff ff	 jmp	 $L198285
$L198286:

; 293  : 	m_SubMenus.RemoveAll();

  00813	8b 4d c8	 mov	 ecx, DWORD PTR _this$[ebp]
  00816	83 c1 1c	 add	 ecx, 28			; 0000001cH
  00819	e8 00 00 00 00	 call	 ?RemoveAll@CPtrArray@@QAEXXZ ; CPtrArray::RemoveAll

; 294  : 	// Destroy menu data
; 295  : 	int numItems = (int)m_MenuList.GetUpperBound();

  0081e	8b 4d c8	 mov	 ecx, DWORD PTR _this$[ebp]
  00821	83 c1 08	 add	 ecx, 8
  00824	e8 00 00 00 00	 call	 ?GetUpperBound@CPtrArray@@QBEHXZ ; CPtrArray::GetUpperBound
  00829	89 45 fc	 mov	 DWORD PTR _numItems$[ebp], eax

; 296  : 	for(m = 0; m <= numItems; m++)delete(m_MenuList[m]);

  0082c	c7 45 ec 00 00
	00 00		 mov	 DWORD PTR _m$[ebp], 0
  00833	eb 09		 jmp	 SHORT $L198301
$L198302:
  00835	8b 45 ec	 mov	 eax, DWORD PTR _m$[ebp]
  00838	83 c0 01	 add	 eax, 1
  0083b	89 45 ec	 mov	 DWORD PTR _m$[ebp], eax
$L198301:
  0083e	8b 4d ec	 mov	 ecx, DWORD PTR _m$[ebp]
  00841	3b 4d fc	 cmp	 ecx, DWORD PTR _numItems$[ebp]
  00844	7f 38		 jg	 SHORT $L198303
  00846	8b 55 ec	 mov	 edx, DWORD PTR _m$[ebp]
  00849	52		 push	 edx
  0084a	8b 4d c8	 mov	 ecx, DWORD PTR _this$[ebp]
  0084d	83 c1 08	 add	 ecx, 8
  00850	e8 00 00 00 00	 call	 ??A?$CTypedPtrArray@VCPtrArray@@PAVBCMenuData@@@@QAEAAPAVBCMenuData@@H@Z ; CTypedPtrArray<CPtrArray,BCMenuData *>::operator[]
  00855	8b 00		 mov	 eax, DWORD PTR [eax]
  00857	89 45 d4	 mov	 DWORD PTR $T202379[ebp], eax
  0085a	8b 4d d4	 mov	 ecx, DWORD PTR $T202379[ebp]
  0085d	89 4d d8	 mov	 DWORD PTR $T202378[ebp], ecx
  00860	83 7d d8 00	 cmp	 DWORD PTR $T202378[ebp], 0
  00864	74 0f		 je	 SHORT $L202380
  00866	6a 01		 push	 1
  00868	8b 4d d8	 mov	 ecx, DWORD PTR $T202378[ebp]
  0086b	e8 00 00 00 00	 call	 ??_GBCMenuData@@QAEPAXI@Z
  00870	89 45 c0	 mov	 DWORD PTR tv165[ebp], eax
  00873	eb 07		 jmp	 SHORT $L202381
$L202380:
  00875	c7 45 c0 00 00
	00 00		 mov	 DWORD PTR tv165[ebp], 0
$L202381:
  0087c	eb b7		 jmp	 SHORT $L198302
$L198303:

; 297  : 	m_MenuList.RemoveAll();

  0087e	8b 4d c8	 mov	 ecx, DWORD PTR _this$[ebp]
  00881	83 c1 08	 add	 ecx, 8
  00884	e8 00 00 00 00	 call	 ?RemoveAll@CPtrArray@@QAEXXZ ; CPtrArray::RemoveAll

; 298  : 	if(checkmaps&&!checkmapsshare){

  00889	8b 55 c8	 mov	 edx, DWORD PTR _this$[ebp]
  0088c	83 7a 3c 00	 cmp	 DWORD PTR [edx+60], 0
  00890	74 41		 je	 SHORT $L198306
  00892	8b 45 c8	 mov	 eax, DWORD PTR _this$[ebp]
  00895	83 78 40 00	 cmp	 DWORD PTR [eax+64], 0
  00899	75 38		 jne	 SHORT $L198306

; 299  : 		delete checkmaps;

  0089b	8b 4d c8	 mov	 ecx, DWORD PTR _this$[ebp]
  0089e	8b 51 3c	 mov	 edx, DWORD PTR [ecx+60]
  008a1	89 55 cc	 mov	 DWORD PTR $T202383[ebp], edx
  008a4	8b 45 cc	 mov	 eax, DWORD PTR $T202383[ebp]
  008a7	89 45 d0	 mov	 DWORD PTR $T202382[ebp], eax
  008aa	83 7d d0 00	 cmp	 DWORD PTR $T202382[ebp], 0
  008ae	74 12		 je	 SHORT $L202384
  008b0	6a 01		 push	 1
  008b2	8b 4d d0	 mov	 ecx, DWORD PTR $T202382[ebp]
  008b5	8b 11		 mov	 edx, DWORD PTR [ecx]
  008b7	8b 4d d0	 mov	 ecx, DWORD PTR $T202382[ebp]
  008ba	ff 52 04	 call	 DWORD PTR [edx+4]
  008bd	89 45 bc	 mov	 DWORD PTR tv180[ebp], eax
  008c0	eb 07		 jmp	 SHORT $L202385
$L202384:
  008c2	c7 45 bc 00 00
	00 00		 mov	 DWORD PTR tv180[ebp], 0
$L202385:

; 300  : 		checkmaps=NULL;

  008c9	8b 45 c8	 mov	 eax, DWORD PTR _this$[ebp]
  008cc	c7 40 3c 00 00
	00 00		 mov	 DWORD PTR [eax+60], 0
$L198306:

; 301  : 	}
; 302  : 	// Call base-class implementation last:
; 303  : 	return(CMenu::DestroyMenu());

  008d3	8b 4d c8	 mov	 ecx, DWORD PTR _this$[ebp]
  008d6	e8 00 00 00 00	 call	 ?DestroyMenu@CMenu@@QAEHXZ ; CMenu::DestroyMenu

; 304  : };

  008db	5e		 pop	 esi
  008dc	8b e5		 mov	 esp, ebp
  008de	5d		 pop	 ebp
  008df	c3		 ret	 0
?DestroyMenu@BCMenu@@UAEHXZ ENDP			; BCMenu::DestroyMenu
_TEXT	ENDS
EXTRN	??3@YAXPAX@Z:NEAR				; operator delete
; Function compile flags: /Odt
;	COMDAT ??_GBCMenuData@@QAEPAXI@Z
_TEXT	SEGMENT
_this$ = -4						; size = 4
___flags$ = 8						; size = 4
??_GBCMenuData@@QAEPAXI@Z PROC NEAR			; BCMenuData::`scalar deleting destructor', COMDAT
; _this$ = ecx
  00000	55		 push	 ebp
  00001	8b ec		 mov	 ebp, esp
  00003	51		 push	 ecx
  00004	89 4d fc	 mov	 DWORD PTR _this$[ebp], ecx
  00007	8b 4d fc	 mov	 ecx, DWORD PTR _this$[ebp]
  0000a	e8 00 00 00 00	 call	 ??1BCMenuData@@QAE@XZ	; BCMenuData::~BCMenuData
  0000f	8b 45 08	 mov	 eax, DWORD PTR ___flags$[ebp]
  00012	83 e0 01	 and	 eax, 1
  00015	74 0c		 je	 SHORT $L198312
  00017	8b 4d fc	 mov	 ecx, DWORD PTR _this$[ebp]
  0001a	51		 push	 ecx
  0001b	e8 00 00 00 00	 call	 ??3@YAXPAX@Z		; operator delete
  00020	83 c4 04	 add	 esp, 4
$L198312:
  00023	8b 45 fc	 mov	 eax, DWORD PTR _this$[ebp]
  00026	8b e5		 mov	 esp, ebp
  00028	5d		 pop	 ebp
  00029	c2 04 00	 ret	 4
??_GBCMenuData@@QAEPAXI@Z ENDP				; BCMenuData::`scalar deleting destructor'
_TEXT	ENDS
PUBLIC	?GetMenuDrawMode@BCMenu@@SAHXZ			; BCMenu::GetMenuDrawMode
; Function compile flags: /Odt
_TEXT	SEGMENT
?GetMenuDrawMode@BCMenu@@SAHXZ PROC NEAR		; BCMenu::GetMenuDrawMode

; 307  : {

  008e0	55		 push	 ebp
  008e1	8b ec		 mov	 ebp, esp

; 308  : 	if(IsWinXPLuna())return(xp_drawmode);

  008e3	e8 00 00 00 00	 call	 ?IsWinXPLuna@BCMenu@@KAHXZ ; BCMenu::IsWinXPLuna
  008e8	85 c0		 test	 eax, eax
  008ea	74 07		 je	 SHORT $L198316
  008ec	a1 00 00 00 00	 mov	 eax, DWORD PTR ?xp_drawmode@BCMenu@@1IA ; BCMenu::xp_drawmode
  008f1	eb 05		 jmp	 SHORT $L198315
$L198316:

; 309  : 	return(original_drawmode);

  008f3	a1 00 00 00 00	 mov	 eax, DWORD PTR ?original_drawmode@BCMenu@@1IA ; BCMenu::original_drawmode
$L198315:

; 310  : }

  008f8	5d		 pop	 ebp
  008f9	c3		 ret	 0
?GetMenuDrawMode@BCMenu@@SAHXZ ENDP			; BCMenu::GetMenuDrawMode
_TEXT	ENDS
PUBLIC	?GetSelectDisableMode@BCMenu@@SAHXZ		; BCMenu::GetSelectDisableMode
; Function compile flags: /Odt
_TEXT	SEGMENT
?GetSelectDisableMode@BCMenu@@SAHXZ PROC NEAR		; BCMenu::GetSelectDisableMode

; 313  : {

  00900	55		 push	 ebp
  00901	8b ec		 mov	 ebp, esp

; 314  : 	if(IsLunaMenuStyle())return(xp_select_disabled);

  00903	e8 00 00 00 00	 call	 ?IsLunaMenuStyle@BCMenu@@KAHXZ ; BCMenu::IsLunaMenuStyle
  00908	85 c0		 test	 eax, eax
  0090a	74 07		 je	 SHORT $L198320
  0090c	a1 00 00 00 00	 mov	 eax, DWORD PTR ?xp_select_disabled@BCMenu@@1HA ; BCMenu::xp_select_disabled
  00911	eb 05		 jmp	 SHORT $L198319
$L198320:

; 315  : 	return(original_select_disabled);

  00913	a1 00 00 00 00	 mov	 eax, DWORD PTR ?original_select_disabled@BCMenu@@1HA ; BCMenu::original_select_disabled
$L198319:

; 316  : }

  00918	5d		 pop	 ebp
  00919	c3		 ret	 0
?GetSelectDisableMode@BCMenu@@SAHXZ ENDP		; BCMenu::GetSelectDisableMode
_TEXT	ENDS
PUBLIC	?GetDeviceCaps@CDC@@QBEHH@Z			; CDC::GetDeviceCaps
PUBLIC	?DrawItem_Win9xNT2000@BCMenu@@IAEXPAUtagDRAWITEMSTRUCT@@@Z ; BCMenu::DrawItem_Win9xNT2000
PUBLIC	?DrawItem_WinXP@BCMenu@@IAEXPAUtagDRAWITEMSTRUCT@@@Z ; BCMenu::DrawItem_WinXP
EXTRN	?FromHandle@CDC@@SGPAV1@PAUHDC__@@@Z:NEAR	; CDC::FromHandle
; Function compile flags: /Odt
_TEXT	SEGMENT
_this$ = -8						; size = 4
_pDC$ = -4						; size = 4
_lpDIS$ = 8						; size = 4
?DrawItem@BCMenu@@UAEXPAUtagDRAWITEMSTRUCT@@@Z PROC NEAR ; BCMenu::DrawItem
; _this$ = ecx

; 331  : {

  00920	55		 push	 ebp
  00921	8b ec		 mov	 ebp, esp
  00923	83 ec 08	 sub	 esp, 8
  00926	89 4d f8	 mov	 DWORD PTR _this$[ebp], ecx

; 332  : 	ASSERT(lpDIS != NULL);	
; 333  : 	CDC* pDC = CDC::FromHandle(lpDIS->hDC);

  00929	8b 45 08	 mov	 eax, DWORD PTR _lpDIS$[ebp]
  0092c	8b 48 18	 mov	 ecx, DWORD PTR [eax+24]
  0092f	51		 push	 ecx
  00930	e8 00 00 00 00	 call	 ?FromHandle@CDC@@SGPAV1@PAUHDC__@@@Z ; CDC::FromHandle
  00935	89 45 fc	 mov	 DWORD PTR _pDC$[ebp], eax

; 334  : 	if(pDC->GetDeviceCaps(RASTERCAPS) & RC_PALETTE)DrawItem_Win9xNT2000(lpDIS);

  00938	6a 26		 push	 38			; 00000026H
  0093a	8b 4d fc	 mov	 ecx, DWORD PTR _pDC$[ebp]
  0093d	e8 00 00 00 00	 call	 ?GetDeviceCaps@CDC@@QBEHH@Z ; CDC::GetDeviceCaps
  00942	25 00 01 00 00	 and	 eax, 256		; 00000100H
  00947	74 0e		 je	 SHORT $L198327
  00949	8b 55 08	 mov	 edx, DWORD PTR _lpDIS$[ebp]
  0094c	52		 push	 edx
  0094d	8b 4d f8	 mov	 ecx, DWORD PTR _this$[ebp]
  00950	e8 00 00 00 00	 call	 ?DrawItem_Win9xNT2000@BCMenu@@IAEXPAUtagDRAWITEMSTRUCT@@@Z ; BCMenu::DrawItem_Win9xNT2000

; 335  : 	else{

  00955	eb 51		 jmp	 SHORT $L198324
$L198327:

; 336  : 		if(IsWinXPLuna()){

  00957	e8 00 00 00 00	 call	 ?IsWinXPLuna@BCMenu@@KAHXZ ; BCMenu::IsWinXPLuna
  0095c	85 c0		 test	 eax, eax
  0095e	74 25		 je	 SHORT $L198329

; 337  : 			if(xp_drawmode==BCMENU_DRAWMODE_XP) DrawItem_WinXP(lpDIS);

  00960	83 3d 00 00 00
	00 01		 cmp	 DWORD PTR ?xp_drawmode@BCMenu@@1IA, 1 ; BCMenu::xp_drawmode
  00967	75 0e		 jne	 SHORT $L198330
  00969	8b 45 08	 mov	 eax, DWORD PTR _lpDIS$[ebp]
  0096c	50		 push	 eax
  0096d	8b 4d f8	 mov	 ecx, DWORD PTR _this$[ebp]
  00970	e8 00 00 00 00	 call	 ?DrawItem_WinXP@BCMenu@@IAEXPAUtagDRAWITEMSTRUCT@@@Z ; BCMenu::DrawItem_WinXP

; 338  : 			else DrawItem_Win9xNT2000(lpDIS);

  00975	eb 0c		 jmp	 SHORT $L198331
$L198330:
  00977	8b 4d 08	 mov	 ecx, DWORD PTR _lpDIS$[ebp]
  0097a	51		 push	 ecx
  0097b	8b 4d f8	 mov	 ecx, DWORD PTR _this$[ebp]
  0097e	e8 00 00 00 00	 call	 ?DrawItem_Win9xNT2000@BCMenu@@IAEXPAUtagDRAWITEMSTRUCT@@@Z ; BCMenu::DrawItem_Win9xNT2000
$L198331:

; 339  : 		}
; 340  : 		else{

  00983	eb 23		 jmp	 SHORT $L198324
$L198329:

; 341  : 			if(original_drawmode==BCMENU_DRAWMODE_XP) DrawItem_WinXP(lpDIS);

  00985	83 3d 00 00 00
	00 01		 cmp	 DWORD PTR ?original_drawmode@BCMenu@@1IA, 1 ; BCMenu::original_drawmode
  0098c	75 0e		 jne	 SHORT $L198333
  0098e	8b 55 08	 mov	 edx, DWORD PTR _lpDIS$[ebp]
  00991	52		 push	 edx
  00992	8b 4d f8	 mov	 ecx, DWORD PTR _this$[ebp]
  00995	e8 00 00 00 00	 call	 ?DrawItem_WinXP@BCMenu@@IAEXPAUtagDRAWITEMSTRUCT@@@Z ; BCMenu::DrawItem_WinXP

; 342  : 			else DrawItem_Win9xNT2000(lpDIS);

  0099a	eb 0c		 jmp	 SHORT $L198324
$L198333:
  0099c	8b 45 08	 mov	 eax, DWORD PTR _lpDIS$[ebp]
  0099f	50		 push	 eax
  009a0	8b 4d f8	 mov	 ecx, DWORD PTR _this$[ebp]
  009a3	e8 00 00 00 00	 call	 ?DrawItem_Win9xNT2000@BCMenu@@IAEXPAUtagDRAWITEMSTRUCT@@@Z ; BCMenu::DrawItem_Win9xNT2000
$L198324:

; 343  : 		}	
; 344  : 	}
; 345  : }

  009a8	8b e5		 mov	 esp, ebp
  009aa	5d		 pop	 ebp
  009ab	c2 04 00	 ret	 4
?DrawItem@BCMenu@@UAEXPAUtagDRAWITEMSTRUCT@@@Z ENDP	; BCMenu::DrawItem
_TEXT	ENDS
PUBLIC	??0CPoint@@QAE@HH@Z				; CPoint::CPoint
PUBLIC	?LightenColor@BCMenu@@SAKKN@Z			; BCMenu::LightenColor
PUBLIC	?GetBkMode@CDC@@QBEHXZ				; CDC::GetBkMode
PUBLIC	??0CRect@@QAE@XZ				; CRect::CRect
PUBLIC	??0CRect@@QAE@HHHH@Z				; CRect::CRect
PUBLIC	?Height@CRect@@QBEHXZ				; CRect::Height
PUBLIC	??BCRect@@QAEPAUtagRECT@@XZ			; CRect::operator tagRECT *
PUBLIC	?Draw3DCheckmark@BCMenu@@IAEHPAVCDC@@ABVCRect@@HPAUHBITMAP__@@@Z ; BCMenu::Draw3DCheckmark
PUBLIC	?SetRect@CRect@@QAEXHHHH@Z			; CRect::SetRect
PUBLIC	?CopyRect@CRect@@QAEXPBUtagRECT@@@Z		; CRect::CopyRect
PUBLIC	?DitherBlt@BCMenu@@IAEXPAUHDC__@@HHHHPAUHBITMAP__@@HHK@Z ; BCMenu::DitherBlt
PUBLIC	?DitherBlt2@BCMenu@@IAEXPAVCDC@@HHHHAAVCBitmap@@HHK@Z ; BCMenu::DitherBlt2
PUBLIC	?DitherBlt3@BCMenu@@IAEXPAVCDC@@HHHHAAVCBitmap@@K@Z ; BCMenu::DitherBlt3
PUBLIC	?Draw@CImageList@@QAEHPAVCDC@@HUtagPOINT@@I@Z	; CImageList::Draw
PUBLIC	?GetBitmapFromImageList@BCMenu@@IAEHPAVCDC@@PAVCImageList@@HAAVCBitmap@@@Z ; BCMenu::GetBitmapFromImageList
PUBLIC	?FillRect@CDC@@QAEXPBUtagRECT@@PAVCBrush@@@Z	; CDC::FillRect
PUBLIC	?DrawTextA@CDC@@QAEHABV?$CStringT@DV?$StrTraitMFC_DLL@DV?$ChTraitsCRT@D@ATL@@@@@ATL@@PAUtagRECT@@I@Z ; CDC::DrawTextA
PUBLIC	?DrawEdge@CDC@@QAEHPAUtagRECT@@II@Z		; CDC::DrawEdge
PUBLIC	__real@3fe3333333333333
PUBLIC	??0CPen@@QAE@XZ					; CPen::CPen
PUBLIC	?CreatePen@CPen@@QAEHHHK@Z			; CPen::CreatePen
PUBLIC	??1CPen@@UAE@XZ					; CPen::~CPen
PUBLIC	??0CBrush@@QAE@XZ				; CBrush::CBrush
PUBLIC	?CreateSolidBrush@CBrush@@QAEHK@Z		; CBrush::CreateSolidBrush
PUBLIC	??0CMenuItemInfo@@QAE@XZ			; CMenuItemInfo::CMenuItemInfo
PUBLIC	??1CBrush@@UAE@XZ				; CBrush::~CBrush
PUBLIC	??0CBitmap@@QAE@XZ				; CBitmap::CBitmap
PUBLIC	??BCBitmap@@QBEPAUHBITMAP__@@XZ			; CBitmap::operator HBITMAP__ *
PUBLIC	??1CBitmap@@UAE@XZ				; CBitmap::~CBitmap
EXTRN	?SelectObject@CDC@@QAEPAVCPen@@PAV2@@Z:NEAR	; CDC::SelectObject
EXTRN	__imp_?Empty@?$CSimpleStringT@D$00@ATL@@QAEXXZ:NEAR
EXTRN	?SetBkMode@CDC@@QAEHH@Z:NEAR			; CDC::SetBkMode
EXTRN	__imp_?IsEmpty@?$CSimpleStringT@D$00@ATL@@QBE_NXZ:NEAR
EXTRN	__imp__GetMenuItemInfoA@16:NEAR
EXTRN	__imp_??4?$CStringT@DV?$StrTraitMFC_DLL@DV?$ChTraitsCRT@D@ATL@@@@@ATL@@QAEAAV01@ABV01@@Z:NEAR
EXTRN	__imp_?Find@?$CStringT@DV?$StrTraitMFC_DLL@DV?$ChTraitsCRT@D@ATL@@@@@ATL@@QBEHDH@Z:NEAR
EXTRN	__imp_?ReverseFind@?$CStringT@DV?$StrTraitMFC_DLL@DV?$ChTraitsCRT@D@ATL@@@@@ATL@@QBEHD@Z:NEAR
EXTRN	__imp_?Mid@?$CStringT@DV?$StrTraitMFC_DLL@DV?$ChTraitsCRT@D@ATL@@@@@ATL@@QBE?AV12@H@Z:NEAR
EXTRN	__imp_?Left@?$CStringT@DV?$StrTraitMFC_DLL@DV?$ChTraitsCRT@D@ATL@@@@@ATL@@QBE?AV12@H@Z:NEAR
EXTRN	__fltused:NEAR
EXTRN	?DeleteObject@CGdiObject@@QAEHXZ:NEAR		; CGdiObject::DeleteObject
EXTRN	?Draw3dRect@CDC@@QAEXPBUtagRECT@@KK@Z:NEAR	; CDC::Draw3dRect
xdata$x	SEGMENT
$T202418 DD	0ffffffffH
	DD	FLAT:$L202401
	DD	00H
	DD	FLAT:$L202402
	DD	01H
	DD	FLAT:$L202403
	DD	02H
	DD	FLAT:$L202404
	DD	03H
	DD	FLAT:$L202405
	DD	03H
	DD	FLAT:$L202406
	DD	03H
	DD	FLAT:$L202407
	DD	03H
	DD	FLAT:$L202408
	DD	07H
	DD	FLAT:$L202409
	DD	08H
	DD	FLAT:$L202410
	DD	08H
	DD	FLAT:$L202411
$T202413 DD	019930520H
	DD	0bH
	DD	FLAT:$T202418
	DD	2 DUP(00H)
	DD	2 DUP(00H)
xdata$x	ENDS
;	COMDAT __real@3fe3333333333333
CONST	SEGMENT
__real@3fe3333333333333 DQ 03fe3333333333333r	; 0.6
; Function compile flags: /Odt
CONST	ENDS
_TEXT	SEGMENT
tv766 = -368						; size = 4
tv597 = -364						; size = 4
tv764 = -360						; size = 4
tv600 = -356						; size = 4
tv579 = -352						; size = 4
tv758 = -348						; size = 4
tv158 = -344						; size = 4
_this$ = -340						; size = 4
$T202400 = -336						; size = 4
$T202399 = -332						; size = 4
$T202396 = -328						; size = 8
$T202395 = -320						; size = 8
$T202394 = -312						; size = 8
$T202393 = -304						; size = 8
$T202392 = -296						; size = 4
_offset$198446 = -292					; size = 16
_leftStr$198432 = -276					; size = 4
_iOldMode$198439 = -272					; size = 4
_rectt$198431 = -268					; size = 16
_rightStr$198433 = -252					; size = 4
_nFormatr$198441 = -248					; size = 4
_nFormat$198440 = -244					; size = 4
_tablocr$198434 = -240					; size = 4
_info$198426 = -236					; size = 48
_brush$198418 = -188					; size = 8
_col$198419 = -180					; size = 4
_ptImage$198422 = -176					; size = 8
_ptImage$198413 = -168					; size = 8
_bitmapstandard$198402 = -160				; size = 8
_ptImage$198394 = -152					; size = 8
_pOldPen$198390 = -144					; size = 4
_pOldPen$198386 = -140					; size = 4
_rect2$198350 = -136					; size = 16
_m_brSelect$198356 = -120				; size = 8
_state$198365 = -112					; size = 4
_crText$198355 = -108					; size = 4
_x0$198358 = -104					; size = 4
_global_offset$198363 = -100				; size = 4
_nIconNormal$198361 = -96				; size = 4
_bitmap$198364 = -92					; size = 4
_selectedflag$198352 = -88				; size = 4
_xoffset$198362 = -84					; size = 4
_strText$198366 = -80					; size = 4
_standardflag$198351 = -76				; size = 4
_m_penBack$198357 = -72					; size = 8
_y0$198359 = -64					; size = 4
_disableflag$198353 = -60				; size = 4
_dy$198360 = -56					; size = 4
_checkflag$198354 = -52					; size = 4
_state$ = -48						; size = 4
_m_brBackground$ = -44					; size = 8
_m_clrBack$ = -36					; size = 4
_pDC$ = -32						; size = 4
_rect$ = -28						; size = 16
__$EHRec$ = -12						; size = 12
_lpDIS$ = 8						; size = 4
?DrawItem_Win9xNT2000@BCMenu@@IAEXPAUtagDRAWITEMSTRUCT@@@Z PROC NEAR ; BCMenu::DrawItem_Win9xNT2000
; _this$ = ecx

; 348  : {

  009b0	55		 push	 ebp
  009b1	8b ec		 mov	 ebp, esp
  009b3	6a ff		 push	 -1
  009b5	68 00 00 00 00	 push	 __ehhandler$?DrawItem_Win9xNT2000@BCMenu@@IAEXPAUtagDRAWITEMSTRUCT@@@Z
  009ba	64 a1 00 00 00
	00		 mov	 eax, DWORD PTR fs:__except_list
  009c0	50		 push	 eax
  009c1	64 89 25 00 00
	00 00		 mov	 DWORD PTR fs:__except_list, esp
  009c8	81 ec 64 01 00
	00		 sub	 esp, 356		; 00000164H
  009ce	89 8d ac fe ff
	ff		 mov	 DWORD PTR _this$[ebp], ecx

; 349  : 	ASSERT(lpDIS != NULL);
; 350  : 	CDC* pDC = CDC::FromHandle(lpDIS->hDC);

  009d4	8b 45 08	 mov	 eax, DWORD PTR _lpDIS$[ebp]
  009d7	8b 48 18	 mov	 ecx, DWORD PTR [eax+24]
  009da	51		 push	 ecx
  009db	e8 00 00 00 00	 call	 ?FromHandle@CDC@@SGPAV1@PAUHDC__@@@Z ; CDC::FromHandle
  009e0	89 45 e0	 mov	 DWORD PTR _pDC$[ebp], eax

; 351  : 	CRect rect;

  009e3	8d 4d e4	 lea	 ecx, DWORD PTR _rect$[ebp]
  009e6	e8 00 00 00 00	 call	 ??0CRect@@QAE@XZ	; CRect::CRect

; 352  : 	UINT state = (((BCMenuData*)(lpDIS->itemData))->nFlags);

  009eb	8b 55 08	 mov	 edx, DWORD PTR _lpDIS$[ebp]
  009ee	8b 42 2c	 mov	 eax, DWORD PTR [edx+44]
  009f1	8b 48 10	 mov	 ecx, DWORD PTR [eax+16]
  009f4	89 4d d0	 mov	 DWORD PTR _state$[ebp], ecx

; 353  : 	CBrush m_brBackground;

  009f7	8d 4d d4	 lea	 ecx, DWORD PTR _m_brBackground$[ebp]
  009fa	e8 00 00 00 00	 call	 ??0CBrush@@QAE@XZ	; CBrush::CBrush
  009ff	c7 45 fc 00 00
	00 00		 mov	 DWORD PTR __$EHRec$[ebp+8], 0

; 354  : 	COLORREF m_clrBack;
; 355  : //modified by vito--
; 356  : /*	if(IsWinXPLuna())m_clrBack=GetSysColor(COLOR_3DFACE);
; 357  : 	else m_clrBack=GetSysColor(COLOR_MENU);
; 358  : */
; 359  : 	m_clrBack = m_menuItemBkColor;

  00a06	8b 95 ac fe ff
	ff		 mov	 edx, DWORD PTR _this$[ebp]
  00a0c	8b 42 54	 mov	 eax, DWORD PTR [edx+84]
  00a0f	89 45 dc	 mov	 DWORD PTR _m_clrBack$[ebp], eax

; 360  : //--
; 361  : 	m_brBackground.CreateSolidBrush(m_clrBack);

  00a12	8b 4d dc	 mov	 ecx, DWORD PTR _m_clrBack$[ebp]
  00a15	51		 push	 ecx
  00a16	8d 4d d4	 lea	 ecx, DWORD PTR _m_brBackground$[ebp]
  00a19	e8 00 00 00 00	 call	 ?CreateSolidBrush@CBrush@@QAEHK@Z ; CBrush::CreateSolidBrush

; 362  : 
; 363  : 	// remove the selected bit if it's grayed out
; 364  : 	if(lpDIS->itemState & ODS_GRAYED&&!original_select_disabled){

  00a1e	8b 55 08	 mov	 edx, DWORD PTR _lpDIS$[ebp]
  00a21	8b 42 10	 mov	 eax, DWORD PTR [edx+16]
  00a24	83 e0 02	 and	 eax, 2
  00a27	74 23		 je	 SHORT $L198346
  00a29	83 3d 00 00 00
	00 00		 cmp	 DWORD PTR ?original_select_disabled@BCMenu@@1HA, 0 ; BCMenu::original_select_disabled
  00a30	75 1a		 jne	 SHORT $L198346

; 365  : 		if(lpDIS->itemState & ODS_SELECTED)lpDIS->itemState=lpDIS->itemState & ~ODS_SELECTED;

  00a32	8b 4d 08	 mov	 ecx, DWORD PTR _lpDIS$[ebp]
  00a35	8b 51 10	 mov	 edx, DWORD PTR [ecx+16]
  00a38	83 e2 01	 and	 edx, 1
  00a3b	74 0f		 je	 SHORT $L198346
  00a3d	8b 45 08	 mov	 eax, DWORD PTR _lpDIS$[ebp]
  00a40	8b 48 10	 mov	 ecx, DWORD PTR [eax+16]
  00a43	83 e1 fe	 and	 ecx, -2			; fffffffeH
  00a46	8b 55 08	 mov	 edx, DWORD PTR _lpDIS$[ebp]
  00a49	89 4a 10	 mov	 DWORD PTR [edx+16], ecx
$L198346:

; 366  : 	}
; 367  : 	
; 368  : 	if(state & MF_SEPARATOR){

  00a4c	8b 45 d0	 mov	 eax, DWORD PTR _state$[ebp]
  00a4f	25 00 08 00 00	 and	 eax, 2048		; 00000800H
  00a54	74 49		 je	 SHORT $L198348

; 369  : 		rect.CopyRect(&lpDIS->rcItem);

  00a56	8b 4d 08	 mov	 ecx, DWORD PTR _lpDIS$[ebp]
  00a59	83 c1 1c	 add	 ecx, 28			; 0000001cH
  00a5c	51		 push	 ecx
  00a5d	8d 4d e4	 lea	 ecx, DWORD PTR _rect$[ebp]
  00a60	e8 00 00 00 00	 call	 ?CopyRect@CRect@@QAEXPBUtagRECT@@@Z ; CRect::CopyRect

; 370  : 		pDC->FillRect (rect,&m_brBackground);

  00a65	8d 55 d4	 lea	 edx, DWORD PTR _m_brBackground$[ebp]
  00a68	52		 push	 edx
  00a69	8d 4d e4	 lea	 ecx, DWORD PTR _rect$[ebp]
  00a6c	e8 00 00 00 00	 call	 ??BCRect@@QAEPAUtagRECT@@XZ ; CRect::operator tagRECT *
  00a71	50		 push	 eax
  00a72	8b 4d e0	 mov	 ecx, DWORD PTR _pDC$[ebp]
  00a75	e8 00 00 00 00	 call	 ?FillRect@CDC@@QAEXPBUtagRECT@@PAVCBrush@@@Z ; CDC::FillRect

; 371  : 		rect.top += (rect.Height()>>1);

  00a7a	8d 4d e4	 lea	 ecx, DWORD PTR _rect$[ebp]
  00a7d	e8 00 00 00 00	 call	 ?Height@CRect@@QBEHXZ	; CRect::Height
  00a82	d1 f8		 sar	 eax, 1
  00a84	03 45 e8	 add	 eax, DWORD PTR _rect$[ebp+4]
  00a87	89 45 e8	 mov	 DWORD PTR _rect$[ebp+4], eax

; 372  : 		pDC->DrawEdge(&rect,EDGE_ETCHED,BF_TOP);

  00a8a	6a 02		 push	 2
  00a8c	6a 06		 push	 6
  00a8e	8d 45 e4	 lea	 eax, DWORD PTR _rect$[ebp]
  00a91	50		 push	 eax
  00a92	8b 4d e0	 mov	 ecx, DWORD PTR _pDC$[ebp]
  00a95	e8 00 00 00 00	 call	 ?DrawEdge@CDC@@QAEHPAUtagRECT@@II@Z ; CDC::DrawEdge

; 373  : 	}
; 374  : 	else{

  00a9a	e9 c5 0d 00 00	 jmp	 $L198349
$L198348:

; 375  : 		CRect rect2;

  00a9f	8d 8d 78 ff ff
	ff		 lea	 ecx, DWORD PTR _rect2$198350[ebp]
  00aa5	e8 00 00 00 00	 call	 ??0CRect@@QAE@XZ	; CRect::CRect

; 376  : 		BOOL standardflag=FALSE,selectedflag=FALSE,disableflag=FALSE;

  00aaa	c7 45 b4 00 00
	00 00		 mov	 DWORD PTR _standardflag$198351[ebp], 0
  00ab1	c7 45 a8 00 00
	00 00		 mov	 DWORD PTR _selectedflag$198352[ebp], 0
  00ab8	c7 45 c4 00 00
	00 00		 mov	 DWORD PTR _disableflag$198353[ebp], 0

; 377  : 		BOOL checkflag=FALSE;

  00abf	c7 45 cc 00 00
	00 00		 mov	 DWORD PTR _checkflag$198354[ebp], 0

; 378  : 		COLORREF crText = GetSysColor(COLOR_MENUTEXT);

  00ac6	6a 07		 push	 7
  00ac8	ff 15 00 00 00
	00		 call	 DWORD PTR __imp__GetSysColor@4
  00ace	89 45 94	 mov	 DWORD PTR _crText$198355[ebp], eax

; 379  : 		CBrush m_brSelect;

  00ad1	8d 4d 88	 lea	 ecx, DWORD PTR _m_brSelect$198356[ebp]
  00ad4	e8 00 00 00 00	 call	 ??0CBrush@@QAE@XZ	; CBrush::CBrush
  00ad9	c6 45 fc 01	 mov	 BYTE PTR __$EHRec$[ebp+8], 1

; 380  : 		CPen m_penBack;

  00add	8d 4d b8	 lea	 ecx, DWORD PTR _m_penBack$198357[ebp]
  00ae0	e8 00 00 00 00	 call	 ??0CPen@@QAE@XZ		; CPen::CPen
  00ae5	c6 45 fc 02	 mov	 BYTE PTR __$EHRec$[ebp+8], 2

; 381  : 		int x0,y0,dy;
; 382  : 		int nIconNormal=-1,xoffset=-1,global_offset=-1;

  00ae9	c7 45 a0 ff ff
	ff ff		 mov	 DWORD PTR _nIconNormal$198361[ebp], -1
  00af0	c7 45 ac ff ff
	ff ff		 mov	 DWORD PTR _xoffset$198362[ebp], -1
  00af7	c7 45 9c ff ff
	ff ff		 mov	 DWORD PTR _global_offset$198363[ebp], -1

; 383  : 		CImageList *bitmap=NULL;

  00afe	c7 45 a4 00 00
	00 00		 mov	 DWORD PTR _bitmap$198364[ebp], 0

; 384  : 		
; 385  : 		// set some colors
; 386  : 		m_penBack.CreatePen (PS_SOLID,0,m_clrBack);

  00b05	8b 4d dc	 mov	 ecx, DWORD PTR _m_clrBack$[ebp]
  00b08	51		 push	 ecx
  00b09	6a 00		 push	 0
  00b0b	6a 00		 push	 0
  00b0d	8d 4d b8	 lea	 ecx, DWORD PTR _m_penBack$198357[ebp]
  00b10	e8 00 00 00 00	 call	 ?CreatePen@CPen@@QAEHHHK@Z ; CPen::CreatePen

; 387  : 		m_brSelect.CreateSolidBrush(GetSysColor(COLOR_HIGHLIGHT));

  00b15	6a 0d		 push	 13			; 0000000dH
  00b17	ff 15 00 00 00
	00		 call	 DWORD PTR __imp__GetSysColor@4
  00b1d	50		 push	 eax
  00b1e	8d 4d 88	 lea	 ecx, DWORD PTR _m_brSelect$198356[ebp]
  00b21	e8 00 00 00 00	 call	 ?CreateSolidBrush@CBrush@@QAEHK@Z ; CBrush::CreateSolidBrush

; 388  : 		
; 389  : 		// draw the colored rectangle portion
; 390  : 		
; 391  : 		rect.CopyRect(&lpDIS->rcItem);

  00b26	8b 55 08	 mov	 edx, DWORD PTR _lpDIS$[ebp]
  00b29	83 c2 1c	 add	 edx, 28			; 0000001cH
  00b2c	52		 push	 edx
  00b2d	8d 4d e4	 lea	 ecx, DWORD PTR _rect$[ebp]
  00b30	e8 00 00 00 00	 call	 ?CopyRect@CRect@@QAEXPBUtagRECT@@@Z ; CRect::CopyRect

; 392  : 		rect2=rect;

  00b35	8b 45 e4	 mov	 eax, DWORD PTR _rect$[ebp]
  00b38	89 85 78 ff ff
	ff		 mov	 DWORD PTR _rect2$198350[ebp], eax
  00b3e	8b 4d e8	 mov	 ecx, DWORD PTR _rect$[ebp+4]
  00b41	89 8d 7c ff ff
	ff		 mov	 DWORD PTR _rect2$198350[ebp+4], ecx
  00b47	8b 55 ec	 mov	 edx, DWORD PTR _rect$[ebp+8]
  00b4a	89 55 80	 mov	 DWORD PTR _rect2$198350[ebp+8], edx
  00b4d	8b 45 f0	 mov	 eax, DWORD PTR _rect$[ebp+12]
  00b50	89 45 84	 mov	 DWORD PTR _rect2$198350[ebp+12], eax

; 393  : 		
; 394  : 		// draw the up/down/focused/disabled state
; 395  : 		
; 396  : 		UINT state = lpDIS->itemState;

  00b53	8b 4d 08	 mov	 ecx, DWORD PTR _lpDIS$[ebp]
  00b56	8b 51 10	 mov	 edx, DWORD PTR [ecx+16]
  00b59	89 55 90	 mov	 DWORD PTR _state$198365[ebp], edx

; 397  : 		CString strText;

  00b5c	8d 4d b0	 lea	 ecx, DWORD PTR _strText$198366[ebp]
  00b5f	ff 15 00 00 00
	00		 call	 DWORD PTR __imp_??0?$CStringT@DV?$StrTraitMFC_DLL@DV?$ChTraitsCRT@D@ATL@@@@@ATL@@QAE@XZ
  00b65	c6 45 fc 03	 mov	 BYTE PTR __$EHRec$[ebp+8], 3

; 398  : 		
; 399  : 		if(lpDIS->itemData != NULL){

  00b69	8b 45 08	 mov	 eax, DWORD PTR _lpDIS$[ebp]
  00b6c	83 78 2c 00	 cmp	 DWORD PTR [eax+44], 0
  00b70	0f 84 0f 01 00
	00		 je	 $L198367

; 400  : 			nIconNormal = (((BCMenuData*)(lpDIS->itemData))->menuIconNormal);

  00b76	8b 4d 08	 mov	 ecx, DWORD PTR _lpDIS$[ebp]
  00b79	8b 51 2c	 mov	 edx, DWORD PTR [ecx+44]
  00b7c	8b 42 0c	 mov	 eax, DWORD PTR [edx+12]
  00b7f	89 45 a0	 mov	 DWORD PTR _nIconNormal$198361[ebp], eax

; 401  : 			xoffset = (((BCMenuData*)(lpDIS->itemData))->xoffset);

  00b82	8b 4d 08	 mov	 ecx, DWORD PTR _lpDIS$[ebp]
  00b85	8b 51 2c	 mov	 edx, DWORD PTR [ecx+44]
  00b88	8b 42 04	 mov	 eax, DWORD PTR [edx+4]
  00b8b	89 45 ac	 mov	 DWORD PTR _xoffset$198362[ebp], eax

; 402  : 			global_offset = (((BCMenuData*)(lpDIS->itemData))->global_offset);

  00b8e	8b 4d 08	 mov	 ecx, DWORD PTR _lpDIS$[ebp]
  00b91	8b 51 2c	 mov	 edx, DWORD PTR [ecx+44]
  00b94	8b 42 08	 mov	 eax, DWORD PTR [edx+8]
  00b97	89 45 9c	 mov	 DWORD PTR _global_offset$198363[ebp], eax

; 403  : 			bitmap = (((BCMenuData*)(lpDIS->itemData))->bitmap);

  00b9a	8b 4d 08	 mov	 ecx, DWORD PTR _lpDIS$[ebp]
  00b9d	8b 51 2c	 mov	 edx, DWORD PTR [ecx+44]
  00ba0	8b 42 1c	 mov	 eax, DWORD PTR [edx+28]
  00ba3	89 45 a4	 mov	 DWORD PTR _bitmap$198364[ebp], eax

; 404  : 			strText = ((BCMenuData*) (lpDIS->itemData))->GetString();

  00ba6	8d 8d d8 fe ff
	ff		 lea	 ecx, DWORD PTR $T202392[ebp]
  00bac	51		 push	 ecx
  00bad	8b 55 08	 mov	 edx, DWORD PTR _lpDIS$[ebp]
  00bb0	8b 4a 2c	 mov	 ecx, DWORD PTR [edx+44]
  00bb3	e8 00 00 00 00	 call	 ?GetString@BCMenuData@@QAE?AV?$CStringT@DV?$StrTraitMFC_DLL@DV?$ChTraitsCRT@D@ATL@@@@@ATL@@XZ ; BCMenuData::GetString
  00bb8	89 85 a8 fe ff
	ff		 mov	 DWORD PTR tv158[ebp], eax
  00bbe	8b 85 a8 fe ff
	ff		 mov	 eax, DWORD PTR tv158[ebp]
  00bc4	89 85 a4 fe ff
	ff		 mov	 DWORD PTR tv758[ebp], eax
  00bca	c6 45 fc 04	 mov	 BYTE PTR __$EHRec$[ebp+8], 4
  00bce	8b 8d a4 fe ff
	ff		 mov	 ecx, DWORD PTR tv758[ebp]
  00bd4	51		 push	 ecx
  00bd5	8d 4d b0	 lea	 ecx, DWORD PTR _strText$198366[ebp]
  00bd8	ff 15 00 00 00
	00		 call	 DWORD PTR __imp_??4?$CStringT@DV?$StrTraitMFC_DLL@DV?$ChTraitsCRT@D@ATL@@@@@ATL@@QAEAAV01@ABV01@@Z
  00bde	c6 45 fc 03	 mov	 BYTE PTR __$EHRec$[ebp+8], 3
  00be2	8d 8d d8 fe ff
	ff		 lea	 ecx, DWORD PTR $T202392[ebp]
  00be8	ff 15 00 00 00
	00		 call	 DWORD PTR __imp_??1?$CStringT@DV?$StrTraitMFC_DLL@DV?$ChTraitsCRT@D@ATL@@@@@ATL@@QAE@XZ

; 405  : 
; 406  : 			if(nIconNormal<0&&global_offset>=0){

  00bee	83 7d a0 00	 cmp	 DWORD PTR _nIconNormal$198361[ebp], 0
  00bf2	7d 1a		 jge	 SHORT $L198374
  00bf4	83 7d 9c 00	 cmp	 DWORD PTR _global_offset$198363[ebp], 0
  00bf8	7c 14		 jl	 SHORT $L198374

; 407  : 				xoffset=global_offset;

  00bfa	8b 55 9c	 mov	 edx, DWORD PTR _global_offset$198363[ebp]
  00bfd	89 55 ac	 mov	 DWORD PTR _xoffset$198362[ebp], edx

; 408  : 				nIconNormal=0;

  00c00	c7 45 a0 00 00
	00 00		 mov	 DWORD PTR _nIconNormal$198361[ebp], 0

; 409  : 				bitmap = &m_AllImages;

  00c07	c7 45 a4 00 00
	00 00		 mov	 DWORD PTR _bitmap$198364[ebp], OFFSET FLAT:?m_AllImages@BCMenu@@1VCImageList@@A ; BCMenu::m_AllImages
$L198374:

; 410  : 			}
; 411  : 			
; 412  : 			if(state&ODS_CHECKED && nIconNormal<0){

  00c0e	8b 45 90	 mov	 eax, DWORD PTR _state$198365[ebp]
  00c11	83 e0 08	 and	 eax, 8
  00c14	74 38		 je	 SHORT $L198375
  00c16	83 7d a0 00	 cmp	 DWORD PTR _nIconNormal$198361[ebp], 0
  00c1a	7d 32		 jge	 SHORT $L198375

; 413  : 				if(state&ODS_SELECTED && m_selectcheck>0)checkflag=TRUE;

  00c1c	8b 4d 90	 mov	 ecx, DWORD PTR _state$198365[ebp]
  00c1f	83 e1 01	 and	 ecx, 1
  00c22	74 15		 je	 SHORT $L198376
  00c24	8b 95 ac fe ff
	ff		 mov	 edx, DWORD PTR _this$[ebp]
  00c2a	83 7a 44 00	 cmp	 DWORD PTR [edx+68], 0
  00c2e	7e 09		 jle	 SHORT $L198376
  00c30	c7 45 cc 01 00
	00 00		 mov	 DWORD PTR _checkflag$198354[ebp], 1

; 414  : 				else if(m_unselectcheck>0) checkflag=TRUE;

  00c37	eb 13		 jmp	 SHORT $L198377
$L198376:
  00c39	8b 85 ac fe ff
	ff		 mov	 eax, DWORD PTR _this$[ebp]
  00c3f	83 78 48 00	 cmp	 DWORD PTR [eax+72], 0
  00c43	7e 07		 jle	 SHORT $L198377
  00c45	c7 45 cc 01 00
	00 00		 mov	 DWORD PTR _checkflag$198354[ebp], 1
$L198377:

; 415  : 			}
; 416  : 			else if(nIconNormal != -1){

  00c4c	eb 35		 jmp	 SHORT $L198379
$L198375:
  00c4e	83 7d a0 ff	 cmp	 DWORD PTR _nIconNormal$198361[ebp], -1
  00c52	74 2f		 je	 SHORT $L198379

; 417  : 				standardflag=TRUE;

  00c54	c7 45 b4 01 00
	00 00		 mov	 DWORD PTR _standardflag$198351[ebp], 1

; 418  : 				if(state&ODS_SELECTED && !(state&ODS_GRAYED))selectedflag=TRUE;

  00c5b	8b 4d 90	 mov	 ecx, DWORD PTR _state$198365[ebp]
  00c5e	83 e1 01	 and	 ecx, 1
  00c61	74 11		 je	 SHORT $L198381
  00c63	8b 55 90	 mov	 edx, DWORD PTR _state$198365[ebp]
  00c66	83 e2 02	 and	 edx, 2
  00c69	75 09		 jne	 SHORT $L198381
  00c6b	c7 45 a8 01 00
	00 00		 mov	 DWORD PTR _selectedflag$198352[ebp], 1

; 419  : 				else if(state&ODS_GRAYED) disableflag=TRUE;

  00c72	eb 0f		 jmp	 SHORT $L198379
$L198381:
  00c74	8b 45 90	 mov	 eax, DWORD PTR _state$198365[ebp]
  00c77	83 e0 02	 and	 eax, 2
  00c7a	74 07		 je	 SHORT $L198379
  00c7c	c7 45 c4 01 00
	00 00		 mov	 DWORD PTR _disableflag$198353[ebp], 1
$L198379:

; 420  : 			}
; 421  : 		}
; 422  : 		else{

  00c83	eb 09		 jmp	 SHORT $L198384
$L198367:

; 423  : 			strText.Empty();

  00c85	8d 4d b0	 lea	 ecx, DWORD PTR _strText$198366[ebp]
  00c88	ff 15 00 00 00
	00		 call	 DWORD PTR __imp_?Empty@?$CSimpleStringT@D$00@ATL@@QAEXXZ
$L198384:

; 424  : 		}
; 425  : 		
; 426  : 		if(state&ODS_SELECTED){ // draw the down edges

  00c8e	8b 4d 90	 mov	 ecx, DWORD PTR _state$198365[ebp]
  00c91	83 e1 01	 and	 ecx, 1
  00c94	0f 84 8b 00 00
	00		 je	 $L198385

; 427  : 			
; 428  : 			CPen *pOldPen = pDC->SelectObject (&m_penBack);

  00c9a	8d 55 b8	 lea	 edx, DWORD PTR _m_penBack$198357[ebp]
  00c9d	52		 push	 edx
  00c9e	8b 4d e0	 mov	 ecx, DWORD PTR _pDC$[ebp]
  00ca1	e8 00 00 00 00	 call	 ?SelectObject@CDC@@QAEPAVCPen@@PAV2@@Z ; CDC::SelectObject
  00ca6	89 85 74 ff ff
	ff		 mov	 DWORD PTR _pOldPen$198386[ebp], eax

; 429  : 			
; 430  : 			// You need only Text highlight and thats what you get
; 431  : 			
; 432  : 			if(checkflag||standardflag||selectedflag||disableflag||state&ODS_CHECKED)

  00cac	83 7d cc 00	 cmp	 DWORD PTR _checkflag$198354[ebp], 0
  00cb0	75 1a		 jne	 SHORT $L198388
  00cb2	83 7d b4 00	 cmp	 DWORD PTR _standardflag$198351[ebp], 0
  00cb6	75 14		 jne	 SHORT $L198388
  00cb8	83 7d a8 00	 cmp	 DWORD PTR _selectedflag$198352[ebp], 0
  00cbc	75 0e		 jne	 SHORT $L198388
  00cbe	83 7d c4 00	 cmp	 DWORD PTR _disableflag$198353[ebp], 0
  00cc2	75 08		 jne	 SHORT $L198388
  00cc4	8b 45 90	 mov	 eax, DWORD PTR _state$198365[ebp]
  00cc7	83 e0 08	 and	 eax, 8
  00cca	74 25		 je	 SHORT $L198387
$L198388:

; 433  : 				rect2.SetRect(rect.left+m_iconX+4+BCMENU_GAP,rect.top,rect.right,rect.bottom);

  00ccc	8b 4d f0	 mov	 ecx, DWORD PTR _rect$[ebp+12]
  00ccf	51		 push	 ecx
  00cd0	8b 55 ec	 mov	 edx, DWORD PTR _rect$[ebp+8]
  00cd3	52		 push	 edx
  00cd4	8b 45 e8	 mov	 eax, DWORD PTR _rect$[ebp+4]
  00cd7	50		 push	 eax
  00cd8	8b 0d 00 00 00
	00		 mov	 ecx, DWORD PTR ?m_iconX@BCMenu@@1HA ; BCMenu::m_iconX
  00cde	8b 55 e4	 mov	 edx, DWORD PTR _rect$[ebp]
  00ce1	8d 44 0a 05	 lea	 eax, DWORD PTR [edx+ecx+5]
  00ce5	50		 push	 eax
  00ce6	8d 8d 78 ff ff
	ff		 lea	 ecx, DWORD PTR _rect2$198350[ebp]
  00cec	e8 00 00 00 00	 call	 ?SetRect@CRect@@QAEXHHHH@Z ; CRect::SetRect
$L198387:

; 434  : 			pDC->FillRect (rect2,&m_brSelect);

  00cf1	8d 4d 88	 lea	 ecx, DWORD PTR _m_brSelect$198356[ebp]
  00cf4	51		 push	 ecx
  00cf5	8d 8d 78 ff ff
	ff		 lea	 ecx, DWORD PTR _rect2$198350[ebp]
  00cfb	e8 00 00 00 00	 call	 ??BCRect@@QAEPAUtagRECT@@XZ ; CRect::operator tagRECT *
  00d00	50		 push	 eax
  00d01	8b 4d e0	 mov	 ecx, DWORD PTR _pDC$[ebp]
  00d04	e8 00 00 00 00	 call	 ?FillRect@CDC@@QAEXPBUtagRECT@@PAVCBrush@@@Z ; CDC::FillRect

; 435  : 			
; 436  : 			pDC->SelectObject (pOldPen);

  00d09	8b 95 74 ff ff
	ff		 mov	 edx, DWORD PTR _pOldPen$198386[ebp]
  00d0f	52		 push	 edx
  00d10	8b 4d e0	 mov	 ecx, DWORD PTR _pDC$[ebp]
  00d13	e8 00 00 00 00	 call	 ?SelectObject@CDC@@QAEPAVCPen@@PAV2@@Z ; CDC::SelectObject

; 437  : 			crText = GetSysColor(COLOR_HIGHLIGHTTEXT);

  00d18	6a 0e		 push	 14			; 0000000eH
  00d1a	ff 15 00 00 00
	00		 call	 DWORD PTR __imp__GetSysColor@4
  00d20	89 45 94	 mov	 DWORD PTR _crText$198355[ebp], eax

; 438  : 		}
; 439  : 		else {

  00d23	eb 4f		 jmp	 SHORT $L198389
$L198385:

; 440  : 			CPen *pOldPen = pDC->SelectObject (&m_penBack);

  00d25	8d 45 b8	 lea	 eax, DWORD PTR _m_penBack$198357[ebp]
  00d28	50		 push	 eax
  00d29	8b 4d e0	 mov	 ecx, DWORD PTR _pDC$[ebp]
  00d2c	e8 00 00 00 00	 call	 ?SelectObject@CDC@@QAEPAVCPen@@PAV2@@Z ; CDC::SelectObject
  00d31	89 85 70 ff ff
	ff		 mov	 DWORD PTR _pOldPen$198390[ebp], eax

; 441  : 			pDC->FillRect (rect,&m_brBackground);

  00d37	8d 4d d4	 lea	 ecx, DWORD PTR _m_brBackground$[ebp]
  00d3a	51		 push	 ecx
  00d3b	8d 4d e4	 lea	 ecx, DWORD PTR _rect$[ebp]
  00d3e	e8 00 00 00 00	 call	 ??BCRect@@QAEPAUtagRECT@@XZ ; CRect::operator tagRECT *
  00d43	50		 push	 eax
  00d44	8b 4d e0	 mov	 ecx, DWORD PTR _pDC$[ebp]
  00d47	e8 00 00 00 00	 call	 ?FillRect@CDC@@QAEXPBUtagRECT@@PAVCBrush@@@Z ; CDC::FillRect

; 442  : 			pDC->SelectObject (pOldPen);

  00d4c	8b 95 70 ff ff
	ff		 mov	 edx, DWORD PTR _pOldPen$198390[ebp]
  00d52	52		 push	 edx
  00d53	8b 4d e0	 mov	 ecx, DWORD PTR _pDC$[ebp]
  00d56	e8 00 00 00 00	 call	 ?SelectObject@CDC@@QAEPAVCPen@@PAV2@@Z ; CDC::SelectObject

; 443  : 			
; 444  : 			// draw the up edges	
; 445  : 			pDC->Draw3dRect (rect,m_clrBack,m_clrBack);

  00d5b	8b 45 dc	 mov	 eax, DWORD PTR _m_clrBack$[ebp]
  00d5e	50		 push	 eax
  00d5f	8b 4d dc	 mov	 ecx, DWORD PTR _m_clrBack$[ebp]
  00d62	51		 push	 ecx
  00d63	8d 4d e4	 lea	 ecx, DWORD PTR _rect$[ebp]
  00d66	e8 00 00 00 00	 call	 ??BCRect@@QAEPAUtagRECT@@XZ ; CRect::operator tagRECT *
  00d6b	50		 push	 eax
  00d6c	8b 4d e0	 mov	 ecx, DWORD PTR _pDC$[ebp]
  00d6f	e8 00 00 00 00	 call	 ?Draw3dRect@CDC@@QAEXPBUtagRECT@@KK@Z ; CDC::Draw3dRect
$L198389:

; 446  : 		}
; 447  : 		
; 448  : 		// draw the text if there is any
; 449  : 		//We have to paint the text only if the image is nonexistant
; 450  : 		
; 451  : 		dy = (rect.Height()-4-m_iconY)/2;

  00d74	8d 4d e4	 lea	 ecx, DWORD PTR _rect$[ebp]
  00d77	e8 00 00 00 00	 call	 ?Height@CRect@@QBEHXZ	; CRect::Height
  00d7c	83 e8 04	 sub	 eax, 4
  00d7f	2b 05 00 00 00
	00		 sub	 eax, DWORD PTR ?m_iconY@BCMenu@@1HA ; BCMenu::m_iconY
  00d85	99		 cdq
  00d86	2b c2		 sub	 eax, edx
  00d88	d1 f8		 sar	 eax, 1
  00d8a	89 45 c8	 mov	 DWORD PTR _dy$198360[ebp], eax

; 452  : 		dy = dy<0 ? 0 : dy;

  00d8d	33 d2		 xor	 edx, edx
  00d8f	83 7d c8 00	 cmp	 DWORD PTR _dy$198360[ebp], 0
  00d93	0f 9c c2	 setl	 dl
  00d96	4a		 dec	 edx
  00d97	23 55 c8	 and	 edx, DWORD PTR _dy$198360[ebp]
  00d9a	89 55 c8	 mov	 DWORD PTR _dy$198360[ebp], edx

; 453  : 		
; 454  : 		if(checkflag||standardflag||selectedflag||disableflag){

  00d9d	83 7d cc 00	 cmp	 DWORD PTR _checkflag$198354[ebp], 0
  00da1	75 16		 jne	 SHORT $L198392
  00da3	83 7d b4 00	 cmp	 DWORD PTR _standardflag$198351[ebp], 0
  00da7	75 10		 jne	 SHORT $L198392
  00da9	83 7d a8 00	 cmp	 DWORD PTR _selectedflag$198352[ebp], 0
  00dad	75 0a		 jne	 SHORT $L198392
  00daf	83 7d c4 00	 cmp	 DWORD PTR _disableflag$198353[ebp], 0
  00db3	0f 84 d0 05 00
	00		 je	 $L198391
$L198392:

; 455  : 			rect2.SetRect(rect.left+1,rect.top+1+dy,rect.left+m_iconX+3,
; 456  : 				rect.top+m_iconY+3+dy);

  00db9	8b 45 e8	 mov	 eax, DWORD PTR _rect$[ebp+4]
  00dbc	03 05 00 00 00
	00		 add	 eax, DWORD PTR ?m_iconY@BCMenu@@1HA ; BCMenu::m_iconY
  00dc2	8b 4d c8	 mov	 ecx, DWORD PTR _dy$198360[ebp]
  00dc5	8d 54 08 03	 lea	 edx, DWORD PTR [eax+ecx+3]
  00dc9	52		 push	 edx
  00dca	a1 00 00 00 00	 mov	 eax, DWORD PTR ?m_iconX@BCMenu@@1HA ; BCMenu::m_iconX
  00dcf	8b 4d e4	 mov	 ecx, DWORD PTR _rect$[ebp]
  00dd2	8d 54 01 03	 lea	 edx, DWORD PTR [ecx+eax+3]
  00dd6	52		 push	 edx
  00dd7	8b 45 c8	 mov	 eax, DWORD PTR _dy$198360[ebp]
  00dda	8b 4d e8	 mov	 ecx, DWORD PTR _rect$[ebp+4]
  00ddd	8d 54 01 01	 lea	 edx, DWORD PTR [ecx+eax+1]
  00de1	52		 push	 edx
  00de2	8b 45 e4	 mov	 eax, DWORD PTR _rect$[ebp]
  00de5	83 c0 01	 add	 eax, 1
  00de8	50		 push	 eax
  00de9	8d 8d 78 ff ff
	ff		 lea	 ecx, DWORD PTR _rect2$198350[ebp]
  00def	e8 00 00 00 00	 call	 ?SetRect@CRect@@QAEXHHHH@Z ; CRect::SetRect

; 457  : 			pDC->Draw3dRect (rect2,m_clrBack,m_clrBack);

  00df4	8b 4d dc	 mov	 ecx, DWORD PTR _m_clrBack$[ebp]
  00df7	51		 push	 ecx
  00df8	8b 55 dc	 mov	 edx, DWORD PTR _m_clrBack$[ebp]
  00dfb	52		 push	 edx
  00dfc	8d 8d 78 ff ff
	ff		 lea	 ecx, DWORD PTR _rect2$198350[ebp]
  00e02	e8 00 00 00 00	 call	 ??BCRect@@QAEPAUtagRECT@@XZ ; CRect::operator tagRECT *
  00e07	50		 push	 eax
  00e08	8b 4d e0	 mov	 ecx, DWORD PTR _pDC$[ebp]
  00e0b	e8 00 00 00 00	 call	 ?Draw3dRect@CDC@@QAEXPBUtagRECT@@KK@Z ; CDC::Draw3dRect

; 458  : 			if(checkflag && checkmaps){

  00e10	83 7d cc 00	 cmp	 DWORD PTR _checkflag$198354[ebp], 0
  00e14	0f 84 1d 01 00
	00		 je	 $L198393
  00e1a	8b 85 ac fe ff
	ff		 mov	 eax, DWORD PTR _this$[ebp]
  00e20	83 78 3c 00	 cmp	 DWORD PTR [eax+60], 0
  00e24	0f 84 0d 01 00
	00		 je	 $L198393

; 459  : 				pDC->FillRect (rect2,&m_brBackground);

  00e2a	8d 4d d4	 lea	 ecx, DWORD PTR _m_brBackground$[ebp]
  00e2d	51		 push	 ecx
  00e2e	8d 8d 78 ff ff
	ff		 lea	 ecx, DWORD PTR _rect2$198350[ebp]
  00e34	e8 00 00 00 00	 call	 ??BCRect@@QAEPAUtagRECT@@XZ ; CRect::operator tagRECT *
  00e39	50		 push	 eax
  00e3a	8b 4d e0	 mov	 ecx, DWORD PTR _pDC$[ebp]
  00e3d	e8 00 00 00 00	 call	 ?FillRect@CDC@@QAEXPBUtagRECT@@PAVCBrush@@@Z ; CDC::FillRect

; 460  : 				rect2.SetRect(rect.left,rect.top+dy,rect.left+m_iconX+4,
; 461  : 					rect.top+m_iconY+4+dy);

  00e42	8b 55 e8	 mov	 edx, DWORD PTR _rect$[ebp+4]
  00e45	03 15 00 00 00
	00		 add	 edx, DWORD PTR ?m_iconY@BCMenu@@1HA ; BCMenu::m_iconY
  00e4b	8b 45 c8	 mov	 eax, DWORD PTR _dy$198360[ebp]
  00e4e	8d 4c 02 04	 lea	 ecx, DWORD PTR [edx+eax+4]
  00e52	51		 push	 ecx
  00e53	8b 15 00 00 00
	00		 mov	 edx, DWORD PTR ?m_iconX@BCMenu@@1HA ; BCMenu::m_iconX
  00e59	8b 45 e4	 mov	 eax, DWORD PTR _rect$[ebp]
  00e5c	8d 4c 10 04	 lea	 ecx, DWORD PTR [eax+edx+4]
  00e60	51		 push	 ecx
  00e61	8b 55 e8	 mov	 edx, DWORD PTR _rect$[ebp+4]
  00e64	03 55 c8	 add	 edx, DWORD PTR _dy$198360[ebp]
  00e67	52		 push	 edx
  00e68	8b 45 e4	 mov	 eax, DWORD PTR _rect$[ebp]
  00e6b	50		 push	 eax
  00e6c	8d 8d 78 ff ff
	ff		 lea	 ecx, DWORD PTR _rect2$198350[ebp]
  00e72	e8 00 00 00 00	 call	 ?SetRect@CRect@@QAEXHHHH@Z ; CRect::SetRect

; 462  : 				
; 463  : 				pDC->Draw3dRect (rect2,m_clrBack,m_clrBack);

  00e77	8b 4d dc	 mov	 ecx, DWORD PTR _m_clrBack$[ebp]
  00e7a	51		 push	 ecx
  00e7b	8b 55 dc	 mov	 edx, DWORD PTR _m_clrBack$[ebp]
  00e7e	52		 push	 edx
  00e7f	8d 8d 78 ff ff
	ff		 lea	 ecx, DWORD PTR _rect2$198350[ebp]
  00e85	e8 00 00 00 00	 call	 ??BCRect@@QAEPAUtagRECT@@XZ ; CRect::operator tagRECT *
  00e8a	50		 push	 eax
  00e8b	8b 4d e0	 mov	 ecx, DWORD PTR _pDC$[ebp]
  00e8e	e8 00 00 00 00	 call	 ?Draw3dRect@CDC@@QAEXPBUtagRECT@@KK@Z ; CDC::Draw3dRect

; 464  : 				CPoint ptImage(rect.left+2,rect.top+2+dy);

  00e93	8b 45 c8	 mov	 eax, DWORD PTR _dy$198360[ebp]
  00e96	8b 4d e8	 mov	 ecx, DWORD PTR _rect$[ebp+4]
  00e99	8d 54 01 02	 lea	 edx, DWORD PTR [ecx+eax+2]
  00e9d	52		 push	 edx
  00e9e	8b 45 e4	 mov	 eax, DWORD PTR _rect$[ebp]
  00ea1	83 c0 02	 add	 eax, 2
  00ea4	50		 push	 eax
  00ea5	8d 8d 68 ff ff
	ff		 lea	 ecx, DWORD PTR _ptImage$198394[ebp]
  00eab	e8 00 00 00 00	 call	 ??0CPoint@@QAE@HH@Z	; CPoint::CPoint

; 465  : 				
; 466  : 				if(state&ODS_SELECTED)checkmaps->Draw(pDC,1,ptImage,ILD_TRANSPARENT);

  00eb0	8b 4d 90	 mov	 ecx, DWORD PTR _state$198365[ebp]
  00eb3	83 e1 01	 and	 ecx, 1
  00eb6	74 3e		 je	 SHORT $L198395
  00eb8	8b 95 68 ff ff
	ff		 mov	 edx, DWORD PTR _ptImage$198394[ebp]
  00ebe	89 95 d0 fe ff
	ff		 mov	 DWORD PTR $T202393[ebp], edx
  00ec4	8b 85 6c ff ff
	ff		 mov	 eax, DWORD PTR _ptImage$198394[ebp+4]
  00eca	89 85 d4 fe ff
	ff		 mov	 DWORD PTR $T202393[ebp+4], eax
  00ed0	6a 01		 push	 1
  00ed2	8b 8d d4 fe ff
	ff		 mov	 ecx, DWORD PTR $T202393[ebp+4]
  00ed8	51		 push	 ecx
  00ed9	8b 95 d0 fe ff
	ff		 mov	 edx, DWORD PTR $T202393[ebp]
  00edf	52		 push	 edx
  00ee0	6a 01		 push	 1
  00ee2	8b 45 e0	 mov	 eax, DWORD PTR _pDC$[ebp]
  00ee5	50		 push	 eax
  00ee6	8b 8d ac fe ff
	ff		 mov	 ecx, DWORD PTR _this$[ebp]
  00eec	8b 49 3c	 mov	 ecx, DWORD PTR [ecx+60]
  00eef	e8 00 00 00 00	 call	 ?Draw@CImageList@@QAEHPAVCDC@@HUtagPOINT@@I@Z ; CImageList::Draw

; 467  : 				else checkmaps->Draw(pDC,0,ptImage,ILD_TRANSPARENT);

  00ef4	eb 3c		 jmp	 SHORT $L198397
$L198395:
  00ef6	8b 95 68 ff ff
	ff		 mov	 edx, DWORD PTR _ptImage$198394[ebp]
  00efc	89 95 c8 fe ff
	ff		 mov	 DWORD PTR $T202394[ebp], edx
  00f02	8b 85 6c ff ff
	ff		 mov	 eax, DWORD PTR _ptImage$198394[ebp+4]
  00f08	89 85 cc fe ff
	ff		 mov	 DWORD PTR $T202394[ebp+4], eax
  00f0e	6a 01		 push	 1
  00f10	8b 8d cc fe ff
	ff		 mov	 ecx, DWORD PTR $T202394[ebp+4]
  00f16	51		 push	 ecx
  00f17	8b 95 c8 fe ff
	ff		 mov	 edx, DWORD PTR $T202394[ebp]
  00f1d	52		 push	 edx
  00f1e	6a 00		 push	 0
  00f20	8b 45 e0	 mov	 eax, DWORD PTR _pDC$[ebp]
  00f23	50		 push	 eax
  00f24	8b 8d ac fe ff
	ff		 mov	 ecx, DWORD PTR _this$[ebp]
  00f2a	8b 49 3c	 mov	 ecx, DWORD PTR [ecx+60]
  00f2d	e8 00 00 00 00	 call	 ?Draw@CImageList@@QAEHPAVCDC@@HUtagPOINT@@I@Z ; CImageList::Draw
$L198397:

; 468  : 			}
; 469  : 			else if(disableflag){

  00f32	e9 52 04 00 00	 jmp	 $L198391
$L198393:
  00f37	83 7d c4 00	 cmp	 DWORD PTR _disableflag$198353[ebp], 0
  00f3b	0f 84 7f 01 00
	00		 je	 $L198400

; 470  : 				if(!selectedflag){

  00f41	83 7d a8 00	 cmp	 DWORD PTR _selectedflag$198352[ebp], 0
  00f45	0f 85 70 01 00
	00		 jne	 $L198401

; 471  : 					CBitmap bitmapstandard;

  00f4b	8d 8d 60 ff ff
	ff		 lea	 ecx, DWORD PTR _bitmapstandard$198402[ebp]
  00f51	e8 00 00 00 00	 call	 ??0CBitmap@@QAE@XZ	; CBitmap::CBitmap
  00f56	c6 45 fc 05	 mov	 BYTE PTR __$EHRec$[ebp+8], 5

; 472  : 					GetBitmapFromImageList(pDC,bitmap,xoffset,bitmapstandard);

  00f5a	8d 95 60 ff ff
	ff		 lea	 edx, DWORD PTR _bitmapstandard$198402[ebp]
  00f60	52		 push	 edx
  00f61	8b 45 ac	 mov	 eax, DWORD PTR _xoffset$198362[ebp]
  00f64	50		 push	 eax
  00f65	8b 4d a4	 mov	 ecx, DWORD PTR _bitmap$198364[ebp]
  00f68	51		 push	 ecx
  00f69	8b 55 e0	 mov	 edx, DWORD PTR _pDC$[ebp]
  00f6c	52		 push	 edx
  00f6d	8b 8d ac fe ff
	ff		 mov	 ecx, DWORD PTR _this$[ebp]
  00f73	e8 00 00 00 00	 call	 ?GetBitmapFromImageList@BCMenu@@IAEHPAVCDC@@PAVCImageList@@HAAVCBitmap@@@Z ; BCMenu::GetBitmapFromImageList

; 473  : 					rect2.SetRect(rect.left,rect.top+dy,rect.left+m_iconX+4,
; 474  :                         rect.top+m_iconY+4+dy);

  00f78	8b 45 e8	 mov	 eax, DWORD PTR _rect$[ebp+4]
  00f7b	03 05 00 00 00
	00		 add	 eax, DWORD PTR ?m_iconY@BCMenu@@1HA ; BCMenu::m_iconY
  00f81	8b 4d c8	 mov	 ecx, DWORD PTR _dy$198360[ebp]
  00f84	8d 54 08 04	 lea	 edx, DWORD PTR [eax+ecx+4]
  00f88	52		 push	 edx
  00f89	a1 00 00 00 00	 mov	 eax, DWORD PTR ?m_iconX@BCMenu@@1HA ; BCMenu::m_iconX
  00f8e	8b 4d e4	 mov	 ecx, DWORD PTR _rect$[ebp]
  00f91	8d 54 01 04	 lea	 edx, DWORD PTR [ecx+eax+4]
  00f95	52		 push	 edx
  00f96	8b 45 e8	 mov	 eax, DWORD PTR _rect$[ebp+4]
  00f99	03 45 c8	 add	 eax, DWORD PTR _dy$198360[ebp]
  00f9c	50		 push	 eax
  00f9d	8b 4d e4	 mov	 ecx, DWORD PTR _rect$[ebp]
  00fa0	51		 push	 ecx
  00fa1	8d 8d 78 ff ff
	ff		 lea	 ecx, DWORD PTR _rect2$198350[ebp]
  00fa7	e8 00 00 00 00	 call	 ?SetRect@CRect@@QAEXHHHH@Z ; CRect::SetRect

; 475  : 					pDC->Draw3dRect (rect2,m_clrBack,m_clrBack);

  00fac	8b 55 dc	 mov	 edx, DWORD PTR _m_clrBack$[ebp]
  00faf	52		 push	 edx
  00fb0	8b 45 dc	 mov	 eax, DWORD PTR _m_clrBack$[ebp]
  00fb3	50		 push	 eax
  00fb4	8d 8d 78 ff ff
	ff		 lea	 ecx, DWORD PTR _rect2$198350[ebp]
  00fba	e8 00 00 00 00	 call	 ??BCRect@@QAEPAUtagRECT@@XZ ; CRect::operator tagRECT *
  00fbf	50		 push	 eax
  00fc0	8b 4d e0	 mov	 ecx, DWORD PTR _pDC$[ebp]
  00fc3	e8 00 00 00 00	 call	 ?Draw3dRect@CDC@@QAEXPBUtagRECT@@KK@Z ; CDC::Draw3dRect

; 476  : 					if(disable_old_style)

  00fc8	8b 8d ac fe ff
	ff		 mov	 ecx, DWORD PTR _this$[ebp]
  00fce	83 79 38 00	 cmp	 DWORD PTR [ecx+56], 0
  00fd2	74 4a		 je	 SHORT $L198403

; 477  : 						DitherBlt(lpDIS->hDC,rect.left+2,rect.top+2+dy,m_iconX,m_iconY,
; 478  : 						(HBITMAP)(bitmapstandard),0,0,m_clrBack);

  00fd4	8b 55 dc	 mov	 edx, DWORD PTR _m_clrBack$[ebp]
  00fd7	52		 push	 edx
  00fd8	6a 00		 push	 0
  00fda	6a 00		 push	 0
  00fdc	8d 8d 60 ff ff
	ff		 lea	 ecx, DWORD PTR _bitmapstandard$198402[ebp]
  00fe2	e8 00 00 00 00	 call	 ??BCBitmap@@QBEPAUHBITMAP__@@XZ ; CBitmap::operator HBITMAP__ *
  00fe7	50		 push	 eax
  00fe8	a1 00 00 00 00	 mov	 eax, DWORD PTR ?m_iconY@BCMenu@@1HA ; BCMenu::m_iconY
  00fed	50		 push	 eax
  00fee	8b 0d 00 00 00
	00		 mov	 ecx, DWORD PTR ?m_iconX@BCMenu@@1HA ; BCMenu::m_iconX
  00ff4	51		 push	 ecx
  00ff5	8b 55 c8	 mov	 edx, DWORD PTR _dy$198360[ebp]
  00ff8	8b 45 e8	 mov	 eax, DWORD PTR _rect$[ebp+4]
  00ffb	8d 4c 10 02	 lea	 ecx, DWORD PTR [eax+edx+2]
  00fff	51		 push	 ecx
  01000	8b 55 e4	 mov	 edx, DWORD PTR _rect$[ebp]
  01003	83 c2 02	 add	 edx, 2
  01006	52		 push	 edx
  01007	8b 45 08	 mov	 eax, DWORD PTR _lpDIS$[ebp]
  0100a	8b 48 18	 mov	 ecx, DWORD PTR [eax+24]
  0100d	51		 push	 ecx
  0100e	8b 8d ac fe ff
	ff		 mov	 ecx, DWORD PTR _this$[ebp]
  01014	e8 00 00 00 00	 call	 ?DitherBlt@BCMenu@@IAEXPAUHDC__@@HHHHPAUHBITMAP__@@HHK@Z ; BCMenu::DitherBlt

; 479  : 					else{

  01019	e9 83 00 00 00	 jmp	 $L198405
$L198403:

; 480  : 						if(hicolor_bitmaps)

  0101e	83 3d 00 00 00
	00 00		 cmp	 DWORD PTR ?hicolor_bitmaps@BCMenu@@1HA, 0 ; BCMenu::hicolor_bitmaps
  01025	74 3c		 je	 SHORT $L198406

; 481  : 							DitherBlt3(pDC,rect.left+2,rect.top+2+dy,m_iconX,m_iconY,
; 482  : 							bitmapstandard,m_clrBack);

  01027	8b 55 dc	 mov	 edx, DWORD PTR _m_clrBack$[ebp]
  0102a	52		 push	 edx
  0102b	8d 85 60 ff ff
	ff		 lea	 eax, DWORD PTR _bitmapstandard$198402[ebp]
  01031	50		 push	 eax
  01032	8b 0d 00 00 00
	00		 mov	 ecx, DWORD PTR ?m_iconY@BCMenu@@1HA ; BCMenu::m_iconY
  01038	51		 push	 ecx
  01039	8b 15 00 00 00
	00		 mov	 edx, DWORD PTR ?m_iconX@BCMenu@@1HA ; BCMenu::m_iconX
  0103f	52		 push	 edx
  01040	8b 45 c8	 mov	 eax, DWORD PTR _dy$198360[ebp]
  01043	8b 4d e8	 mov	 ecx, DWORD PTR _rect$[ebp+4]
  01046	8d 54 01 02	 lea	 edx, DWORD PTR [ecx+eax+2]
  0104a	52		 push	 edx
  0104b	8b 45 e4	 mov	 eax, DWORD PTR _rect$[ebp]
  0104e	83 c0 02	 add	 eax, 2
  01051	50		 push	 eax
  01052	8b 4d e0	 mov	 ecx, DWORD PTR _pDC$[ebp]
  01055	51		 push	 ecx
  01056	8b 8d ac fe ff
	ff		 mov	 ecx, DWORD PTR _this$[ebp]
  0105c	e8 00 00 00 00	 call	 ?DitherBlt3@BCMenu@@IAEXPAVCDC@@HHHHAAVCBitmap@@K@Z ; BCMenu::DitherBlt3

; 483  : 						else

  01061	eb 3e		 jmp	 SHORT $L198405
$L198406:

; 484  : 							DitherBlt2(pDC,rect.left+2,rect.top+2+dy,m_iconX,m_iconY,
; 485  : 							bitmapstandard,0,0,m_clrBack);

  01063	8b 55 dc	 mov	 edx, DWORD PTR _m_clrBack$[ebp]
  01066	52		 push	 edx
  01067	6a 00		 push	 0
  01069	6a 00		 push	 0
  0106b	8d 85 60 ff ff
	ff		 lea	 eax, DWORD PTR _bitmapstandard$198402[ebp]
  01071	50		 push	 eax
  01072	8b 0d 00 00 00
	00		 mov	 ecx, DWORD PTR ?m_iconY@BCMenu@@1HA ; BCMenu::m_iconY
  01078	51		 push	 ecx
  01079	8b 15 00 00 00
	00		 mov	 edx, DWORD PTR ?m_iconX@BCMenu@@1HA ; BCMenu::m_iconX
  0107f	52		 push	 edx
  01080	8b 45 c8	 mov	 eax, DWORD PTR _dy$198360[ebp]
  01083	8b 4d e8	 mov	 ecx, DWORD PTR _rect$[ebp+4]
  01086	8d 54 01 02	 lea	 edx, DWORD PTR [ecx+eax+2]
  0108a	52		 push	 edx
  0108b	8b 45 e4	 mov	 eax, DWORD PTR _rect$[ebp]
  0108e	83 c0 02	 add	 eax, 2
  01091	50		 push	 eax
  01092	8b 4d e0	 mov	 ecx, DWORD PTR _pDC$[ebp]
  01095	51		 push	 ecx
  01096	8b 8d ac fe ff
	ff		 mov	 ecx, DWORD PTR _this$[ebp]
  0109c	e8 00 00 00 00	 call	 ?DitherBlt2@BCMenu@@IAEXPAVCDC@@HHHHAAVCBitmap@@HHK@Z ; BCMenu::DitherBlt2
$L198405:

; 486  : 					}
; 487  : 					bitmapstandard.DeleteObject();

  010a1	8d 8d 60 ff ff
	ff		 lea	 ecx, DWORD PTR _bitmapstandard$198402[ebp]
  010a7	e8 00 00 00 00	 call	 ?DeleteObject@CGdiObject@@QAEHXZ ; CGdiObject::DeleteObject

; 488  : 				}

  010ac	c6 45 fc 03	 mov	 BYTE PTR __$EHRec$[ebp+8], 3
  010b0	8d 8d 60 ff ff
	ff		 lea	 ecx, DWORD PTR _bitmapstandard$198402[ebp]
  010b6	e8 00 00 00 00	 call	 ??1CBitmap@@UAE@XZ	; CBitmap::~CBitmap
$L198401:

; 489  : 			}
; 490  : 			else if(selectedflag){

  010bb	e9 c9 02 00 00	 jmp	 $L198391
$L198400:
  010c0	83 7d a8 00	 cmp	 DWORD PTR _selectedflag$198352[ebp], 0
  010c4	0f 84 0b 01 00
	00		 je	 $L198409

; 491  : 				pDC->FillRect (rect2,&m_brBackground);

  010ca	8d 55 d4	 lea	 edx, DWORD PTR _m_brBackground$[ebp]
  010cd	52		 push	 edx
  010ce	8d 8d 78 ff ff
	ff		 lea	 ecx, DWORD PTR _rect2$198350[ebp]
  010d4	e8 00 00 00 00	 call	 ??BCRect@@QAEPAUtagRECT@@XZ ; CRect::operator tagRECT *
  010d9	50		 push	 eax
  010da	8b 4d e0	 mov	 ecx, DWORD PTR _pDC$[ebp]
  010dd	e8 00 00 00 00	 call	 ?FillRect@CDC@@QAEXPBUtagRECT@@PAVCBrush@@@Z ; CDC::FillRect

; 492  : 				rect2.SetRect(rect.left,rect.top+dy,rect.left+m_iconX+4,
; 493  : 					rect.top+m_iconY+4+dy);

  010e2	8b 45 e8	 mov	 eax, DWORD PTR _rect$[ebp+4]
  010e5	03 05 00 00 00
	00		 add	 eax, DWORD PTR ?m_iconY@BCMenu@@1HA ; BCMenu::m_iconY
  010eb	8b 4d c8	 mov	 ecx, DWORD PTR _dy$198360[ebp]
  010ee	8d 54 08 04	 lea	 edx, DWORD PTR [eax+ecx+4]
  010f2	52		 push	 edx
  010f3	a1 00 00 00 00	 mov	 eax, DWORD PTR ?m_iconX@BCMenu@@1HA ; BCMenu::m_iconX
  010f8	8b 4d e4	 mov	 ecx, DWORD PTR _rect$[ebp]
  010fb	8d 54 01 04	 lea	 edx, DWORD PTR [ecx+eax+4]
  010ff	52		 push	 edx
  01100	8b 45 e8	 mov	 eax, DWORD PTR _rect$[ebp+4]
  01103	03 45 c8	 add	 eax, DWORD PTR _dy$198360[ebp]
  01106	50		 push	 eax
  01107	8b 4d e4	 mov	 ecx, DWORD PTR _rect$[ebp]
  0110a	51		 push	 ecx
  0110b	8d 8d 78 ff ff
	ff		 lea	 ecx, DWORD PTR _rect2$198350[ebp]
  01111	e8 00 00 00 00	 call	 ?SetRect@CRect@@QAEXHHHH@Z ; CRect::SetRect

; 494  : 				if (IsNewShell()){

  01116	e8 00 00 00 00	 call	 ?IsNewShell@BCMenu@@KAHXZ ; BCMenu::IsNewShell
  0111b	85 c0		 test	 eax, eax
  0111d	74 56		 je	 SHORT $L198410

; 495  : 					if(state&ODS_CHECKED)

  0111f	8b 55 90	 mov	 edx, DWORD PTR _state$198365[ebp]
  01122	83 e2 08	 and	 edx, 8
  01125	74 28		 je	 SHORT $L198411

; 496  : 						pDC->Draw3dRect(rect2,GetSysColor(COLOR_3DSHADOW),
; 497  : 						GetSysColor(COLOR_3DHILIGHT));

  01127	6a 14		 push	 20			; 00000014H
  01129	ff 15 00 00 00
	00		 call	 DWORD PTR __imp__GetSysColor@4
  0112f	50		 push	 eax
  01130	6a 10		 push	 16			; 00000010H
  01132	ff 15 00 00 00
	00		 call	 DWORD PTR __imp__GetSysColor@4
  01138	50		 push	 eax
  01139	8d 8d 78 ff ff
	ff		 lea	 ecx, DWORD PTR _rect2$198350[ebp]
  0113f	e8 00 00 00 00	 call	 ??BCRect@@QAEPAUtagRECT@@XZ ; CRect::operator tagRECT *
  01144	50		 push	 eax
  01145	8b 4d e0	 mov	 ecx, DWORD PTR _pDC$[ebp]
  01148	e8 00 00 00 00	 call	 ?Draw3dRect@CDC@@QAEXPBUtagRECT@@KK@Z ; CDC::Draw3dRect

; 498  : 					else

  0114d	eb 26		 jmp	 SHORT $L198410
$L198411:

; 499  : 						pDC->Draw3dRect(rect2,GetSysColor(COLOR_3DHILIGHT),
; 500  : 						GetSysColor(COLOR_3DSHADOW));

  0114f	6a 10		 push	 16			; 00000010H
  01151	ff 15 00 00 00
	00		 call	 DWORD PTR __imp__GetSysColor@4
  01157	50		 push	 eax
  01158	6a 14		 push	 20			; 00000014H
  0115a	ff 15 00 00 00
	00		 call	 DWORD PTR __imp__GetSysColor@4
  01160	50		 push	 eax
  01161	8d 8d 78 ff ff
	ff		 lea	 ecx, DWORD PTR _rect2$198350[ebp]
  01167	e8 00 00 00 00	 call	 ??BCRect@@QAEPAUtagRECT@@XZ ; CRect::operator tagRECT *
  0116c	50		 push	 eax
  0116d	8b 4d e0	 mov	 ecx, DWORD PTR _pDC$[ebp]
  01170	e8 00 00 00 00	 call	 ?Draw3dRect@CDC@@QAEXPBUtagRECT@@KK@Z ; CDC::Draw3dRect
$L198410:

; 501  : 				}
; 502  : 				CPoint ptImage(rect.left+2,rect.top+2+dy);

  01175	8b 45 c8	 mov	 eax, DWORD PTR _dy$198360[ebp]
  01178	8b 4d e8	 mov	 ecx, DWORD PTR _rect$[ebp+4]
  0117b	8d 54 01 02	 lea	 edx, DWORD PTR [ecx+eax+2]
  0117f	52		 push	 edx
  01180	8b 45 e4	 mov	 eax, DWORD PTR _rect$[ebp]
  01183	83 c0 02	 add	 eax, 2
  01186	50		 push	 eax
  01187	8d 8d 58 ff ff
	ff		 lea	 ecx, DWORD PTR _ptImage$198413[ebp]
  0118d	e8 00 00 00 00	 call	 ??0CPoint@@QAE@HH@Z	; CPoint::CPoint

; 503  : 				if(bitmap)bitmap->Draw(pDC,xoffset,ptImage,ILD_TRANSPARENT);

  01192	83 7d a4 00	 cmp	 DWORD PTR _bitmap$198364[ebp], 0
  01196	74 38		 je	 SHORT $L198414
  01198	8b 8d 58 ff ff
	ff		 mov	 ecx, DWORD PTR _ptImage$198413[ebp]
  0119e	89 8d c0 fe ff
	ff		 mov	 DWORD PTR $T202395[ebp], ecx
  011a4	8b 95 5c ff ff
	ff		 mov	 edx, DWORD PTR _ptImage$198413[ebp+4]
  011aa	89 95 c4 fe ff
	ff		 mov	 DWORD PTR $T202395[ebp+4], edx
  011b0	6a 01		 push	 1
  011b2	8b 85 c4 fe ff
	ff		 mov	 eax, DWORD PTR $T202395[ebp+4]
  011b8	50		 push	 eax
  011b9	8b 8d c0 fe ff
	ff		 mov	 ecx, DWORD PTR $T202395[ebp]
  011bf	51		 push	 ecx
  011c0	8b 55 ac	 mov	 edx, DWORD PTR _xoffset$198362[ebp]
  011c3	52		 push	 edx
  011c4	8b 45 e0	 mov	 eax, DWORD PTR _pDC$[ebp]
  011c7	50		 push	 eax
  011c8	8b 4d a4	 mov	 ecx, DWORD PTR _bitmap$198364[ebp]
  011cb	e8 00 00 00 00	 call	 ?Draw@CImageList@@QAEHPAVCDC@@HUtagPOINT@@I@Z ; CImageList::Draw
$L198414:

; 504  : 			}
; 505  : 			else{

  011d0	e9 b4 01 00 00	 jmp	 $L198391
$L198409:

; 506  : 				if(state&ODS_CHECKED){

  011d5	8b 4d 90	 mov	 ecx, DWORD PTR _state$198365[ebp]
  011d8	83 e1 08	 and	 ecx, 8
  011db	0f 84 e5 00 00
	00		 je	 $L198417

; 507  : 					CBrush brush;

  011e1	8d 8d 44 ff ff
	ff		 lea	 ecx, DWORD PTR _brush$198418[ebp]
  011e7	e8 00 00 00 00	 call	 ??0CBrush@@QAE@XZ	; CBrush::CBrush
  011ec	c6 45 fc 06	 mov	 BYTE PTR __$EHRec$[ebp+8], 6

; 508  : 					COLORREF col = m_clrBack;

  011f0	8b 55 dc	 mov	 edx, DWORD PTR _m_clrBack$[ebp]
  011f3	89 95 4c ff ff
	ff		 mov	 DWORD PTR _col$198419[ebp], edx

; 509  : 					col = LightenColor(col,0.6);

  011f9	dd 05 00 00 00
	00		 fld	 QWORD PTR __real@3fe3333333333333
  011ff	83 ec 08	 sub	 esp, 8
  01202	dd 1c 24	 fstp	 QWORD PTR [esp]
  01205	8b 85 4c ff ff
	ff		 mov	 eax, DWORD PTR _col$198419[ebp]
  0120b	50		 push	 eax
  0120c	e8 00 00 00 00	 call	 ?LightenColor@BCMenu@@SAKKN@Z ; BCMenu::LightenColor
  01211	83 c4 0c	 add	 esp, 12			; 0000000cH
  01214	89 85 4c ff ff
	ff		 mov	 DWORD PTR _col$198419[ebp], eax

; 510  : 					brush.CreateSolidBrush(col);

  0121a	8b 8d 4c ff ff
	ff		 mov	 ecx, DWORD PTR _col$198419[ebp]
  01220	51		 push	 ecx
  01221	8d 8d 44 ff ff
	ff		 lea	 ecx, DWORD PTR _brush$198418[ebp]
  01227	e8 00 00 00 00	 call	 ?CreateSolidBrush@CBrush@@QAEHK@Z ; CBrush::CreateSolidBrush

; 511  : 					pDC->FillRect(rect2,&brush);

  0122c	8d 95 44 ff ff
	ff		 lea	 edx, DWORD PTR _brush$198418[ebp]
  01232	52		 push	 edx
  01233	8d 8d 78 ff ff
	ff		 lea	 ecx, DWORD PTR _rect2$198350[ebp]
  01239	e8 00 00 00 00	 call	 ??BCRect@@QAEPAUtagRECT@@XZ ; CRect::operator tagRECT *
  0123e	50		 push	 eax
  0123f	8b 4d e0	 mov	 ecx, DWORD PTR _pDC$[ebp]
  01242	e8 00 00 00 00	 call	 ?FillRect@CDC@@QAEXPBUtagRECT@@PAVCBrush@@@Z ; CDC::FillRect

; 512  : 					brush.DeleteObject();

  01247	8d 8d 44 ff ff
	ff		 lea	 ecx, DWORD PTR _brush$198418[ebp]
  0124d	e8 00 00 00 00	 call	 ?DeleteObject@CGdiObject@@QAEHXZ ; CGdiObject::DeleteObject

; 513  : 					rect2.SetRect(rect.left,rect.top+dy,rect.left+m_iconX+4,
; 514  :                         rect.top+m_iconY+4+dy);

  01252	8b 45 e8	 mov	 eax, DWORD PTR _rect$[ebp+4]
  01255	03 05 00 00 00
	00		 add	 eax, DWORD PTR ?m_iconY@BCMenu@@1HA ; BCMenu::m_iconY
  0125b	8b 4d c8	 mov	 ecx, DWORD PTR _dy$198360[ebp]
  0125e	8d 54 08 04	 lea	 edx, DWORD PTR [eax+ecx+4]
  01262	52		 push	 edx
  01263	a1 00 00 00 00	 mov	 eax, DWORD PTR ?m_iconX@BCMenu@@1HA ; BCMenu::m_iconX
  01268	8b 4d e4	 mov	 ecx, DWORD PTR _rect$[ebp]
  0126b	8d 54 01 04	 lea	 edx, DWORD PTR [ecx+eax+4]
  0126f	52		 push	 edx
  01270	8b 45 e8	 mov	 eax, DWORD PTR _rect$[ebp+4]
  01273	03 45 c8	 add	 eax, DWORD PTR _dy$198360[ebp]
  01276	50		 push	 eax
  01277	8b 4d e4	 mov	 ecx, DWORD PTR _rect$[ebp]
  0127a	51		 push	 ecx
  0127b	8d 8d 78 ff ff
	ff		 lea	 ecx, DWORD PTR _rect2$198350[ebp]
  01281	e8 00 00 00 00	 call	 ?SetRect@CRect@@QAEXHHHH@Z ; CRect::SetRect

; 515  : 					if (IsNewShell())

  01286	e8 00 00 00 00	 call	 ?IsNewShell@BCMenu@@KAHXZ ; BCMenu::IsNewShell
  0128b	85 c0		 test	 eax, eax
  0128d	74 26		 je	 SHORT $L198420

; 516  : 						pDC->Draw3dRect(rect2,GetSysColor(COLOR_3DSHADOW),
; 517  : 						GetSysColor(COLOR_3DHILIGHT));

  0128f	6a 14		 push	 20			; 00000014H
  01291	ff 15 00 00 00
	00		 call	 DWORD PTR __imp__GetSysColor@4
  01297	50		 push	 eax
  01298	6a 10		 push	 16			; 00000010H
  0129a	ff 15 00 00 00
	00		 call	 DWORD PTR __imp__GetSysColor@4
  012a0	50		 push	 eax
  012a1	8d 8d 78 ff ff
	ff		 lea	 ecx, DWORD PTR _rect2$198350[ebp]
  012a7	e8 00 00 00 00	 call	 ??BCRect@@QAEPAUtagRECT@@XZ ; CRect::operator tagRECT *
  012ac	50		 push	 eax
  012ad	8b 4d e0	 mov	 ecx, DWORD PTR _pDC$[ebp]
  012b0	e8 00 00 00 00	 call	 ?Draw3dRect@CDC@@QAEXPBUtagRECT@@KK@Z ; CDC::Draw3dRect
$L198420:

; 518  : 				}

  012b5	c6 45 fc 03	 mov	 BYTE PTR __$EHRec$[ebp+8], 3
  012b9	8d 8d 44 ff ff
	ff		 lea	 ecx, DWORD PTR _brush$198418[ebp]
  012bf	e8 00 00 00 00	 call	 ??1CBrush@@UAE@XZ	; CBrush::~CBrush

; 519  : 				else{

  012c4	eb 68		 jmp	 SHORT $L198421
$L198417:

; 520  : 					pDC->FillRect (rect2,&m_brBackground);

  012c6	8d 55 d4	 lea	 edx, DWORD PTR _m_brBackground$[ebp]
  012c9	52		 push	 edx
  012ca	8d 8d 78 ff ff
	ff		 lea	 ecx, DWORD PTR _rect2$198350[ebp]
  012d0	e8 00 00 00 00	 call	 ??BCRect@@QAEPAUtagRECT@@XZ ; CRect::operator tagRECT *
  012d5	50		 push	 eax
  012d6	8b 4d e0	 mov	 ecx, DWORD PTR _pDC$[ebp]
  012d9	e8 00 00 00 00	 call	 ?FillRect@CDC@@QAEXPBUtagRECT@@PAVCBrush@@@Z ; CDC::FillRect

; 521  : 					rect2.SetRect(rect.left,rect.top+dy,rect.left+m_iconX+4,
; 522  :                         rect.top+m_iconY+4+dy);

  012de	8b 45 e8	 mov	 eax, DWORD PTR _rect$[ebp+4]
  012e1	03 05 00 00 00
	00		 add	 eax, DWORD PTR ?m_iconY@BCMenu@@1HA ; BCMenu::m_iconY
  012e7	8b 4d c8	 mov	 ecx, DWORD PTR _dy$198360[ebp]
  012ea	8d 54 08 04	 lea	 edx, DWORD PTR [eax+ecx+4]
  012ee	52		 push	 edx
  012ef	a1 00 00 00 00	 mov	 eax, DWORD PTR ?m_iconX@BCMenu@@1HA ; BCMenu::m_iconX
  012f4	8b 4d e4	 mov	 ecx, DWORD PTR _rect$[ebp]
  012f7	8d 54 01 04	 lea	 edx, DWORD PTR [ecx+eax+4]
  012fb	52		 push	 edx
  012fc	8b 45 e8	 mov	 eax, DWORD PTR _rect$[ebp+4]
  012ff	03 45 c8	 add	 eax, DWORD PTR _dy$198360[ebp]
  01302	50		 push	 eax
  01303	8b 4d e4	 mov	 ecx, DWORD PTR _rect$[ebp]
  01306	51		 push	 ecx
  01307	8d 8d 78 ff ff
	ff		 lea	 ecx, DWORD PTR _rect2$198350[ebp]
  0130d	e8 00 00 00 00	 call	 ?SetRect@CRect@@QAEXHHHH@Z ; CRect::SetRect

; 523  : 					pDC->Draw3dRect (rect2,m_clrBack,m_clrBack);

  01312	8b 55 dc	 mov	 edx, DWORD PTR _m_clrBack$[ebp]
  01315	52		 push	 edx
  01316	8b 45 dc	 mov	 eax, DWORD PTR _m_clrBack$[ebp]
  01319	50		 push	 eax
  0131a	8d 8d 78 ff ff
	ff		 lea	 ecx, DWORD PTR _rect2$198350[ebp]
  01320	e8 00 00 00 00	 call	 ??BCRect@@QAEPAUtagRECT@@XZ ; CRect::operator tagRECT *
  01325	50		 push	 eax
  01326	8b 4d e0	 mov	 ecx, DWORD PTR _pDC$[ebp]
  01329	e8 00 00 00 00	 call	 ?Draw3dRect@CDC@@QAEXPBUtagRECT@@KK@Z ; CDC::Draw3dRect
$L198421:

; 524  : 				}
; 525  : 				CPoint ptImage(rect.left+2,rect.top+2+dy);

  0132e	8b 4d c8	 mov	 ecx, DWORD PTR _dy$198360[ebp]
  01331	8b 55 e8	 mov	 edx, DWORD PTR _rect$[ebp+4]
  01334	8d 44 0a 02	 lea	 eax, DWORD PTR [edx+ecx+2]
  01338	50		 push	 eax
  01339	8b 4d e4	 mov	 ecx, DWORD PTR _rect$[ebp]
  0133c	83 c1 02	 add	 ecx, 2
  0133f	51		 push	 ecx
  01340	8d 8d 50 ff ff
	ff		 lea	 ecx, DWORD PTR _ptImage$198422[ebp]
  01346	e8 00 00 00 00	 call	 ??0CPoint@@QAE@HH@Z	; CPoint::CPoint

; 526  : 				if(bitmap)bitmap->Draw(pDC,xoffset,ptImage,ILD_TRANSPARENT);

  0134b	83 7d a4 00	 cmp	 DWORD PTR _bitmap$198364[ebp], 0
  0134f	74 38		 je	 SHORT $L198391
  01351	8b 95 50 ff ff
	ff		 mov	 edx, DWORD PTR _ptImage$198422[ebp]
  01357	89 95 b8 fe ff
	ff		 mov	 DWORD PTR $T202396[ebp], edx
  0135d	8b 85 54 ff ff
	ff		 mov	 eax, DWORD PTR _ptImage$198422[ebp+4]
  01363	89 85 bc fe ff
	ff		 mov	 DWORD PTR $T202396[ebp+4], eax
  01369	6a 01		 push	 1
  0136b	8b 8d bc fe ff
	ff		 mov	 ecx, DWORD PTR $T202396[ebp+4]
  01371	51		 push	 ecx
  01372	8b 95 b8 fe ff
	ff		 mov	 edx, DWORD PTR $T202396[ebp]
  01378	52		 push	 edx
  01379	8b 45 ac	 mov	 eax, DWORD PTR _xoffset$198362[ebp]
  0137c	50		 push	 eax
  0137d	8b 4d e0	 mov	 ecx, DWORD PTR _pDC$[ebp]
  01380	51		 push	 ecx
  01381	8b 4d a4	 mov	 ecx, DWORD PTR _bitmap$198364[ebp]
  01384	e8 00 00 00 00	 call	 ?Draw@CImageList@@QAEHPAVCDC@@HUtagPOINT@@I@Z ; CImageList::Draw
$L198391:

; 527  : 			}
; 528  : 		}
; 529  : 		if(nIconNormal<0 && state&ODS_CHECKED && !checkflag){

  01389	83 7d a0 00	 cmp	 DWORD PTR _nIconNormal$198361[ebp], 0
  0138d	0f 8d da 00 00
	00		 jge	 $L198425
  01393	8b 55 90	 mov	 edx, DWORD PTR _state$198365[ebp]
  01396	83 e2 08	 and	 edx, 8
  01399	0f 84 ce 00 00
	00		 je	 $L198425
  0139f	83 7d cc 00	 cmp	 DWORD PTR _checkflag$198354[ebp], 0
  013a3	0f 85 c4 00 00
	00		 jne	 $L198425

; 530  : 			rect2.SetRect(rect.left+1,rect.top+2+dy,rect.left+m_iconX+1,
; 531  : 				rect.top+m_iconY+2+dy);

  013a9	8b 45 e8	 mov	 eax, DWORD PTR _rect$[ebp+4]
  013ac	03 05 00 00 00
	00		 add	 eax, DWORD PTR ?m_iconY@BCMenu@@1HA ; BCMenu::m_iconY
  013b2	8b 4d c8	 mov	 ecx, DWORD PTR _dy$198360[ebp]
  013b5	8d 54 08 02	 lea	 edx, DWORD PTR [eax+ecx+2]
  013b9	52		 push	 edx
  013ba	a1 00 00 00 00	 mov	 eax, DWORD PTR ?m_iconX@BCMenu@@1HA ; BCMenu::m_iconX
  013bf	8b 4d e4	 mov	 ecx, DWORD PTR _rect$[ebp]
  013c2	8d 54 01 01	 lea	 edx, DWORD PTR [ecx+eax+1]
  013c6	52		 push	 edx
  013c7	8b 45 c8	 mov	 eax, DWORD PTR _dy$198360[ebp]
  013ca	8b 4d e8	 mov	 ecx, DWORD PTR _rect$[ebp+4]
  013cd	8d 54 01 02	 lea	 edx, DWORD PTR [ecx+eax+2]
  013d1	52		 push	 edx
  013d2	8b 45 e4	 mov	 eax, DWORD PTR _rect$[ebp]
  013d5	83 c0 01	 add	 eax, 1
  013d8	50		 push	 eax
  013d9	8d 8d 78 ff ff
	ff		 lea	 ecx, DWORD PTR _rect2$198350[ebp]
  013df	e8 00 00 00 00	 call	 ?SetRect@CRect@@QAEXHHHH@Z ; CRect::SetRect

; 532  : 			CMenuItemInfo info;

  013e4	8d 8d 14 ff ff
	ff		 lea	 ecx, DWORD PTR _info$198426[ebp]
  013ea	e8 00 00 00 00	 call	 ??0CMenuItemInfo@@QAE@XZ ; CMenuItemInfo::CMenuItemInfo

; 533  : 			info.fMask = MIIM_CHECKMARKS;

  013ef	c7 85 18 ff ff
	ff 08 00 00 00	 mov	 DWORD PTR _info$198426[ebp+4], 8

; 534  : 			::GetMenuItemInfo((HMENU)lpDIS->hwndItem,lpDIS->itemID,
; 535  : 				MF_BYCOMMAND, &info);

  013f9	8d 8d 14 ff ff
	ff		 lea	 ecx, DWORD PTR _info$198426[ebp]
  013ff	51		 push	 ecx
  01400	6a 00		 push	 0
  01402	8b 55 08	 mov	 edx, DWORD PTR _lpDIS$[ebp]
  01405	8b 42 08	 mov	 eax, DWORD PTR [edx+8]
  01408	50		 push	 eax
  01409	8b 4d 08	 mov	 ecx, DWORD PTR _lpDIS$[ebp]
  0140c	8b 51 14	 mov	 edx, DWORD PTR [ecx+20]
  0140f	52		 push	 edx
  01410	ff 15 00 00 00
	00		 call	 DWORD PTR __imp__GetMenuItemInfoA@16

; 536  : 			if(state&ODS_CHECKED || info.hbmpUnchecked) {

  01416	8b 45 90	 mov	 eax, DWORD PTR _state$198365[ebp]
  01419	83 e0 08	 and	 eax, 8
  0141c	75 09		 jne	 SHORT $L198429
  0141e	83 bd 30 ff ff
	ff 00		 cmp	 DWORD PTR _info$198426[ebp+28], 0
  01425	74 46		 je	 SHORT $L198425
$L198429:

; 537  : 				Draw3DCheckmark(pDC, rect2, state&ODS_SELECTED,
; 538  : 					state&ODS_CHECKED ? info.hbmpChecked :
; 539  : 				info.hbmpUnchecked);

  01427	8b 4d 90	 mov	 ecx, DWORD PTR _state$198365[ebp]
  0142a	83 e1 08	 and	 ecx, 8
  0142d	74 0e		 je	 SHORT $L202397
  0142f	8b 95 2c ff ff
	ff		 mov	 edx, DWORD PTR _info$198426[ebp+24]
  01435	89 95 a0 fe ff
	ff		 mov	 DWORD PTR tv579[ebp], edx
  0143b	eb 0c		 jmp	 SHORT $L202398
$L202397:
  0143d	8b 85 30 ff ff
	ff		 mov	 eax, DWORD PTR _info$198426[ebp+28]
  01443	89 85 a0 fe ff
	ff		 mov	 DWORD PTR tv579[ebp], eax
$L202398:
  01449	8b 8d a0 fe ff
	ff		 mov	 ecx, DWORD PTR tv579[ebp]
  0144f	51		 push	 ecx
  01450	8b 55 90	 mov	 edx, DWORD PTR _state$198365[ebp]
  01453	83 e2 01	 and	 edx, 1
  01456	52		 push	 edx
  01457	8d 85 78 ff ff
	ff		 lea	 eax, DWORD PTR _rect2$198350[ebp]
  0145d	50		 push	 eax
  0145e	8b 4d e0	 mov	 ecx, DWORD PTR _pDC$[ebp]
  01461	51		 push	 ecx
  01462	8b 8d ac fe ff
	ff		 mov	 ecx, DWORD PTR _this$[ebp]
  01468	e8 00 00 00 00	 call	 ?Draw3DCheckmark@BCMenu@@IAEHPAVCDC@@ABVCRect@@HPAUHBITMAP__@@@Z ; BCMenu::Draw3DCheckmark
$L198425:

; 540  : 			}
; 541  : 		}
; 542  : 		
; 543  : 		//This is needed always so that we can have the space for check marks
; 544  : 		
; 545  : 		x0=rect.left;y0=rect.top;

  0146d	8b 55 e4	 mov	 edx, DWORD PTR _rect$[ebp]
  01470	89 55 98	 mov	 DWORD PTR _x0$198358[ebp], edx
  01473	8b 45 e8	 mov	 eax, DWORD PTR _rect$[ebp+4]
  01476	89 45 c0	 mov	 DWORD PTR _y0$198359[ebp], eax

; 546  : 		rect.left = rect.left + m_iconX + 8 + BCMENU_GAP; 

  01479	8b 0d 00 00 00
	00		 mov	 ecx, DWORD PTR ?m_iconX@BCMenu@@1HA ; BCMenu::m_iconX
  0147f	8b 55 e4	 mov	 edx, DWORD PTR _rect$[ebp]
  01482	8d 44 0a 09	 lea	 eax, DWORD PTR [edx+ecx+9]
  01486	89 45 e4	 mov	 DWORD PTR _rect$[ebp], eax

; 547  : 		
; 548  : 		if(!strText.IsEmpty()){

  01489	8d 4d b0	 lea	 ecx, DWORD PTR _strText$198366[ebp]
  0148c	ff 15 00 00 00
	00		 call	 DWORD PTR __imp_?IsEmpty@?$CSimpleStringT@D$00@ATL@@QBE_NXZ
  01492	0f b6 c8	 movzx	 ecx, al
  01495	85 c9		 test	 ecx, ecx
  01497	0f 85 92 03 00
	00		 jne	 $L198430

; 549  : 			
; 550  : 			CRect rectt(rect.left,rect.top,rect.right,rect.bottom);

  0149d	8b 55 f0	 mov	 edx, DWORD PTR _rect$[ebp+12]
  014a0	52		 push	 edx
  014a1	8b 45 ec	 mov	 eax, DWORD PTR _rect$[ebp+8]
  014a4	50		 push	 eax
  014a5	8b 4d e8	 mov	 ecx, DWORD PTR _rect$[ebp+4]
  014a8	51		 push	 ecx
  014a9	8b 55 e4	 mov	 edx, DWORD PTR _rect$[ebp]
  014ac	52		 push	 edx
  014ad	8d 8d f4 fe ff
	ff		 lea	 ecx, DWORD PTR _rectt$198431[ebp]
  014b3	e8 00 00 00 00	 call	 ??0CRect@@QAE@HHHH@Z	; CRect::CRect

; 551  : 			
; 552  : 			//   Find tabs
; 553  : 			
; 554  : 			CString leftStr,rightStr;

  014b8	8d 8d ec fe ff
	ff		 lea	 ecx, DWORD PTR _leftStr$198432[ebp]
  014be	ff 15 00 00 00
	00		 call	 DWORD PTR __imp_??0?$CStringT@DV?$StrTraitMFC_DLL@DV?$ChTraitsCRT@D@ATL@@@@@ATL@@QAE@XZ
  014c4	c6 45 fc 07	 mov	 BYTE PTR __$EHRec$[ebp+8], 7
  014c8	8d 8d 04 ff ff
	ff		 lea	 ecx, DWORD PTR _rightStr$198433[ebp]
  014ce	ff 15 00 00 00
	00		 call	 DWORD PTR __imp_??0?$CStringT@DV?$StrTraitMFC_DLL@DV?$ChTraitsCRT@D@ATL@@@@@ATL@@QAE@XZ
  014d4	c6 45 fc 08	 mov	 BYTE PTR __$EHRec$[ebp+8], 8

; 555  : 			leftStr.Empty();rightStr.Empty();

  014d8	8d 8d ec fe ff
	ff		 lea	 ecx, DWORD PTR _leftStr$198432[ebp]
  014de	ff 15 00 00 00
	00		 call	 DWORD PTR __imp_?Empty@?$CSimpleStringT@D$00@ATL@@QAEXXZ
  014e4	8d 8d 04 ff ff
	ff		 lea	 ecx, DWORD PTR _rightStr$198433[ebp]
  014ea	ff 15 00 00 00
	00		 call	 DWORD PTR __imp_?Empty@?$CSimpleStringT@D$00@ATL@@QAEXXZ

; 556  : 			int tablocr=strText.ReverseFind(_T('\t'));

  014f0	6a 09		 push	 9
  014f2	8d 4d b0	 lea	 ecx, DWORD PTR _strText$198366[ebp]
  014f5	ff 15 00 00 00
	00		 call	 DWORD PTR __imp_?ReverseFind@?$CStringT@DV?$StrTraitMFC_DLL@DV?$ChTraitsCRT@D@ATL@@@@@ATL@@QBEHD@Z
  014fb	89 85 10 ff ff
	ff		 mov	 DWORD PTR _tablocr$198434[ebp], eax

; 557  : 			if(tablocr!=-1){

  01501	83 bd 10 ff ff
	ff ff		 cmp	 DWORD PTR _tablocr$198434[ebp], -1
  01508	0f 84 be 00 00
	00		 je	 $L198435

; 558  : 				rightStr=strText.Mid(tablocr+1);

  0150e	8b 85 10 ff ff
	ff		 mov	 eax, DWORD PTR _tablocr$198434[ebp]
  01514	83 c0 01	 add	 eax, 1
  01517	50		 push	 eax
  01518	8d 8d b4 fe ff
	ff		 lea	 ecx, DWORD PTR $T202399[ebp]
  0151e	51		 push	 ecx
  0151f	8d 4d b0	 lea	 ecx, DWORD PTR _strText$198366[ebp]
  01522	ff 15 00 00 00
	00		 call	 DWORD PTR __imp_?Mid@?$CStringT@DV?$StrTraitMFC_DLL@DV?$ChTraitsCRT@D@ATL@@@@@ATL@@QBE?AV12@H@Z
  01528	89 85 9c fe ff
	ff		 mov	 DWORD PTR tv600[ebp], eax
  0152e	8b 95 9c fe ff
	ff		 mov	 edx, DWORD PTR tv600[ebp]
  01534	89 95 98 fe ff
	ff		 mov	 DWORD PTR tv764[ebp], edx
  0153a	c6 45 fc 09	 mov	 BYTE PTR __$EHRec$[ebp+8], 9
  0153e	8b 85 98 fe ff
	ff		 mov	 eax, DWORD PTR tv764[ebp]
  01544	50		 push	 eax
  01545	8d 8d 04 ff ff
	ff		 lea	 ecx, DWORD PTR _rightStr$198433[ebp]
  0154b	ff 15 00 00 00
	00		 call	 DWORD PTR __imp_??4?$CStringT@DV?$StrTraitMFC_DLL@DV?$ChTraitsCRT@D@ATL@@@@@ATL@@QAEAAV01@ABV01@@Z
  01551	c6 45 fc 08	 mov	 BYTE PTR __$EHRec$[ebp+8], 8
  01555	8d 8d b4 fe ff
	ff		 lea	 ecx, DWORD PTR $T202399[ebp]
  0155b	ff 15 00 00 00
	00		 call	 DWORD PTR __imp_??1?$CStringT@DV?$StrTraitMFC_DLL@DV?$ChTraitsCRT@D@ATL@@@@@ATL@@QAE@XZ

; 559  : 				leftStr=strText.Left(strText.Find(_T('\t')));

  01561	6a 00		 push	 0
  01563	6a 09		 push	 9
  01565	8d 4d b0	 lea	 ecx, DWORD PTR _strText$198366[ebp]
  01568	ff 15 00 00 00
	00		 call	 DWORD PTR __imp_?Find@?$CStringT@DV?$StrTraitMFC_DLL@DV?$ChTraitsCRT@D@ATL@@@@@ATL@@QBEHDH@Z
  0156e	50		 push	 eax
  0156f	8d 8d b0 fe ff
	ff		 lea	 ecx, DWORD PTR $T202400[ebp]
  01575	51		 push	 ecx
  01576	8d 4d b0	 lea	 ecx, DWORD PTR _strText$198366[ebp]
  01579	ff 15 00 00 00
	00		 call	 DWORD PTR __imp_?Left@?$CStringT@DV?$StrTraitMFC_DLL@DV?$ChTraitsCRT@D@ATL@@@@@ATL@@QBE?AV12@H@Z
  0157f	89 85 94 fe ff
	ff		 mov	 DWORD PTR tv597[ebp], eax
  01585	8b 95 94 fe ff
	ff		 mov	 edx, DWORD PTR tv597[ebp]
  0158b	89 95 90 fe ff
	ff		 mov	 DWORD PTR tv766[ebp], edx
  01591	c6 45 fc 0a	 mov	 BYTE PTR __$EHRec$[ebp+8], 10 ; 0000000aH
  01595	8b 85 90 fe ff
	ff		 mov	 eax, DWORD PTR tv766[ebp]
  0159b	50		 push	 eax
  0159c	8d 8d ec fe ff
	ff		 lea	 ecx, DWORD PTR _leftStr$198432[ebp]
  015a2	ff 15 00 00 00
	00		 call	 DWORD PTR __imp_??4?$CStringT@DV?$StrTraitMFC_DLL@DV?$ChTraitsCRT@D@ATL@@@@@ATL@@QAEAAV01@ABV01@@Z
  015a8	c6 45 fc 08	 mov	 BYTE PTR __$EHRec$[ebp+8], 8
  015ac	8d 8d b0 fe ff
	ff		 lea	 ecx, DWORD PTR $T202400[ebp]
  015b2	ff 15 00 00 00
	00		 call	 DWORD PTR __imp_??1?$CStringT@DV?$StrTraitMFC_DLL@DV?$ChTraitsCRT@D@ATL@@@@@ATL@@QAE@XZ

; 560  : 				rectt.right-=m_iconX;

  015b8	8b 8d fc fe ff
	ff		 mov	 ecx, DWORD PTR _rectt$198431[ebp+8]
  015be	2b 0d 00 00 00
	00		 sub	 ecx, DWORD PTR ?m_iconX@BCMenu@@1HA ; BCMenu::m_iconX
  015c4	89 8d fc fe ff
	ff		 mov	 DWORD PTR _rectt$198431[ebp+8], ecx

; 561  : 			}
; 562  : 			else leftStr=strText;

  015ca	eb 10		 jmp	 SHORT $L198438
$L198435:
  015cc	8d 55 b0	 lea	 edx, DWORD PTR _strText$198366[ebp]
  015cf	52		 push	 edx
  015d0	8d 8d ec fe ff
	ff		 lea	 ecx, DWORD PTR _leftStr$198432[ebp]
  015d6	ff 15 00 00 00
	00		 call	 DWORD PTR __imp_??4?$CStringT@DV?$StrTraitMFC_DLL@DV?$ChTraitsCRT@D@ATL@@@@@ATL@@QAEAAV01@ABV01@@Z
$L198438:

; 563  : 			
; 564  : 			int iOldMode = pDC->GetBkMode();

  015dc	8b 4d e0	 mov	 ecx, DWORD PTR _pDC$[ebp]
  015df	e8 00 00 00 00	 call	 ?GetBkMode@CDC@@QBEHXZ	; CDC::GetBkMode
  015e4	89 85 f0 fe ff
	ff		 mov	 DWORD PTR _iOldMode$198439[ebp], eax

; 565  : 			pDC->SetBkMode( TRANSPARENT);

  015ea	6a 01		 push	 1
  015ec	8b 4d e0	 mov	 ecx, DWORD PTR _pDC$[ebp]
  015ef	e8 00 00 00 00	 call	 ?SetBkMode@CDC@@QAEHH@Z	; CDC::SetBkMode

; 566  : 			
; 567  : 			// Draw the text in the correct colour:
; 568  : 			
; 569  : 			UINT nFormat  = DT_LEFT|DT_SINGLELINE|DT_VCENTER;

  015f4	c7 85 0c ff ff
	ff 24 00 00 00	 mov	 DWORD PTR _nFormat$198440[ebp], 36 ; 00000024H

; 570  : 			UINT nFormatr = DT_RIGHT|DT_SINGLELINE|DT_VCENTER;

  015fe	c7 85 08 ff ff
	ff 26 00 00 00	 mov	 DWORD PTR _nFormatr$198441[ebp], 38 ; 00000026H

; 571  : 			if(!(lpDIS->itemState & ODS_GRAYED)){

  01608	8b 45 08	 mov	 eax, DWORD PTR _lpDIS$[ebp]
  0160b	8b 48 10	 mov	 ecx, DWORD PTR [eax+16]
  0160e	83 e1 02	 and	 ecx, 2
  01611	75 61		 jne	 SHORT $L198442

; 572  : 				pDC->SetTextColor(crText);

  01613	8b 55 94	 mov	 edx, DWORD PTR _crText$198355[ebp]
  01616	52		 push	 edx
  01617	8b 45 e0	 mov	 eax, DWORD PTR _pDC$[ebp]
  0161a	8b 10		 mov	 edx, DWORD PTR [eax]
  0161c	8b 4d e0	 mov	 ecx, DWORD PTR _pDC$[ebp]
  0161f	ff 52 38	 call	 DWORD PTR [edx+56]

; 573  : 				pDC->DrawText (leftStr,rectt,nFormat);

  01622	8b 85 0c ff ff
	ff		 mov	 eax, DWORD PTR _nFormat$198440[ebp]
  01628	50		 push	 eax
  01629	8d 8d f4 fe ff
	ff		 lea	 ecx, DWORD PTR _rectt$198431[ebp]
  0162f	e8 00 00 00 00	 call	 ??BCRect@@QAEPAUtagRECT@@XZ ; CRect::operator tagRECT *
  01634	50		 push	 eax
  01635	8d 8d ec fe ff
	ff		 lea	 ecx, DWORD PTR _leftStr$198432[ebp]
  0163b	51		 push	 ecx
  0163c	8b 4d e0	 mov	 ecx, DWORD PTR _pDC$[ebp]
  0163f	e8 00 00 00 00	 call	 ?DrawTextA@CDC@@QAEHABV?$CStringT@DV?$StrTraitMFC_DLL@DV?$ChTraitsCRT@D@ATL@@@@@ATL@@PAUtagRECT@@I@Z ; CDC::DrawTextA

; 574  : 				if(tablocr!=-1) pDC->DrawText (rightStr,rectt,nFormatr);

  01644	83 bd 10 ff ff
	ff ff		 cmp	 DWORD PTR _tablocr$198434[ebp], -1
  0164b	74 22		 je	 SHORT $L198443
  0164d	8b 95 08 ff ff
	ff		 mov	 edx, DWORD PTR _nFormatr$198441[ebp]
  01653	52		 push	 edx
  01654	8d 8d f4 fe ff
	ff		 lea	 ecx, DWORD PTR _rectt$198431[ebp]
  0165a	e8 00 00 00 00	 call	 ??BCRect@@QAEPAUtagRECT@@XZ ; CRect::operator tagRECT *
  0165f	50		 push	 eax
  01660	8d 85 04 ff ff
	ff		 lea	 eax, DWORD PTR _rightStr$198433[ebp]
  01666	50		 push	 eax
  01667	8b 4d e0	 mov	 ecx, DWORD PTR _pDC$[ebp]
  0166a	e8 00 00 00 00	 call	 ?DrawTextA@CDC@@QAEHABV?$CStringT@DV?$StrTraitMFC_DLL@DV?$ChTraitsCRT@D@ATL@@@@@ATL@@PAUtagRECT@@I@Z ; CDC::DrawTextA
$L198443:

; 575  : 			}
; 576  : 			else{

  0166f	e9 8c 01 00 00	 jmp	 $L198444
$L198442:

; 577  : 				
; 578  : 				// Draw the disabled text
; 579  : 				if(!(state & ODS_SELECTED)){

  01674	8b 4d 90	 mov	 ecx, DWORD PTR _state$198365[ebp]
  01677	83 e1 01	 and	 ecx, 1
  0167a	0f 85 24 01 00
	00		 jne	 $L198445

; 580  : 					RECT offset = *rectt;

  01680	8d 8d f4 fe ff
	ff		 lea	 ecx, DWORD PTR _rectt$198431[ebp]
  01686	e8 00 00 00 00	 call	 ??BCRect@@QAEPAUtagRECT@@XZ ; CRect::operator tagRECT *
  0168b	8b 10		 mov	 edx, DWORD PTR [eax]
  0168d	89 95 dc fe ff
	ff		 mov	 DWORD PTR _offset$198446[ebp], edx
  01693	8b 48 04	 mov	 ecx, DWORD PTR [eax+4]
  01696	89 8d e0 fe ff
	ff		 mov	 DWORD PTR _offset$198446[ebp+4], ecx
  0169c	8b 50 08	 mov	 edx, DWORD PTR [eax+8]
  0169f	89 95 e4 fe ff
	ff		 mov	 DWORD PTR _offset$198446[ebp+8], edx
  016a5	8b 40 0c	 mov	 eax, DWORD PTR [eax+12]
  016a8	89 85 e8 fe ff
	ff		 mov	 DWORD PTR _offset$198446[ebp+12], eax

; 581  : 					offset.left+=1;

  016ae	8b 8d dc fe ff
	ff		 mov	 ecx, DWORD PTR _offset$198446[ebp]
  016b4	83 c1 01	 add	 ecx, 1
  016b7	89 8d dc fe ff
	ff		 mov	 DWORD PTR _offset$198446[ebp], ecx

; 582  : 					offset.right+=1;

  016bd	8b 95 e4 fe ff
	ff		 mov	 edx, DWORD PTR _offset$198446[ebp+8]
  016c3	83 c2 01	 add	 edx, 1
  016c6	89 95 e4 fe ff
	ff		 mov	 DWORD PTR _offset$198446[ebp+8], edx

; 583  : 					offset.top+=1;

  016cc	8b 85 e0 fe ff
	ff		 mov	 eax, DWORD PTR _offset$198446[ebp+4]
  016d2	83 c0 01	 add	 eax, 1
  016d5	89 85 e0 fe ff
	ff		 mov	 DWORD PTR _offset$198446[ebp+4], eax

; 584  : 					offset.bottom+=1;

  016db	8b 8d e8 fe ff
	ff		 mov	 ecx, DWORD PTR _offset$198446[ebp+12]
  016e1	83 c1 01	 add	 ecx, 1
  016e4	89 8d e8 fe ff
	ff		 mov	 DWORD PTR _offset$198446[ebp+12], ecx

; 585  : 					pDC->SetTextColor(GetSysColor(COLOR_BTNHILIGHT));

  016ea	6a 14		 push	 20			; 00000014H
  016ec	ff 15 00 00 00
	00		 call	 DWORD PTR __imp__GetSysColor@4
  016f2	50		 push	 eax
  016f3	8b 55 e0	 mov	 edx, DWORD PTR _pDC$[ebp]
  016f6	8b 02		 mov	 eax, DWORD PTR [edx]
  016f8	8b 4d e0	 mov	 ecx, DWORD PTR _pDC$[ebp]
  016fb	ff 50 38	 call	 DWORD PTR [eax+56]

; 586  : 					pDC->DrawText(leftStr,&offset, nFormat);

  016fe	8b 8d 0c ff ff
	ff		 mov	 ecx, DWORD PTR _nFormat$198440[ebp]
  01704	51		 push	 ecx
  01705	8d 95 dc fe ff
	ff		 lea	 edx, DWORD PTR _offset$198446[ebp]
  0170b	52		 push	 edx
  0170c	8d 85 ec fe ff
	ff		 lea	 eax, DWORD PTR _leftStr$198432[ebp]
  01712	50		 push	 eax
  01713	8b 4d e0	 mov	 ecx, DWORD PTR _pDC$[ebp]
  01716	e8 00 00 00 00	 call	 ?DrawTextA@CDC@@QAEHABV?$CStringT@DV?$StrTraitMFC_DLL@DV?$ChTraitsCRT@D@ATL@@@@@ATL@@PAUtagRECT@@I@Z ; CDC::DrawTextA

; 587  : 					if(tablocr!=-1) pDC->DrawText (rightStr,&offset,nFormatr);

  0171b	83 bd 10 ff ff
	ff ff		 cmp	 DWORD PTR _tablocr$198434[ebp], -1
  01722	74 1d		 je	 SHORT $L198447
  01724	8b 8d 08 ff ff
	ff		 mov	 ecx, DWORD PTR _nFormatr$198441[ebp]
  0172a	51		 push	 ecx
  0172b	8d 95 dc fe ff
	ff		 lea	 edx, DWORD PTR _offset$198446[ebp]
  01731	52		 push	 edx
  01732	8d 85 04 ff ff
	ff		 lea	 eax, DWORD PTR _rightStr$198433[ebp]
  01738	50		 push	 eax
  01739	8b 4d e0	 mov	 ecx, DWORD PTR _pDC$[ebp]
  0173c	e8 00 00 00 00	 call	 ?DrawTextA@CDC@@QAEHABV?$CStringT@DV?$StrTraitMFC_DLL@DV?$ChTraitsCRT@D@ATL@@@@@ATL@@PAUtagRECT@@I@Z ; CDC::DrawTextA
$L198447:

; 588  : 					pDC->SetTextColor(GetSysColor(COLOR_GRAYTEXT));

  01741	6a 11		 push	 17			; 00000011H
  01743	ff 15 00 00 00
	00		 call	 DWORD PTR __imp__GetSysColor@4
  01749	50		 push	 eax
  0174a	8b 4d e0	 mov	 ecx, DWORD PTR _pDC$[ebp]
  0174d	8b 11		 mov	 edx, DWORD PTR [ecx]
  0174f	8b 4d e0	 mov	 ecx, DWORD PTR _pDC$[ebp]
  01752	ff 52 38	 call	 DWORD PTR [edx+56]

; 589  : 					pDC->DrawText(leftStr,rectt, nFormat);

  01755	8b 85 0c ff ff
	ff		 mov	 eax, DWORD PTR _nFormat$198440[ebp]
  0175b	50		 push	 eax
  0175c	8d 8d f4 fe ff
	ff		 lea	 ecx, DWORD PTR _rectt$198431[ebp]
  01762	e8 00 00 00 00	 call	 ??BCRect@@QAEPAUtagRECT@@XZ ; CRect::operator tagRECT *
  01767	50		 push	 eax
  01768	8d 8d ec fe ff
	ff		 lea	 ecx, DWORD PTR _leftStr$198432[ebp]
  0176e	51		 push	 ecx
  0176f	8b 4d e0	 mov	 ecx, DWORD PTR _pDC$[ebp]
  01772	e8 00 00 00 00	 call	 ?DrawTextA@CDC@@QAEHABV?$CStringT@DV?$StrTraitMFC_DLL@DV?$ChTraitsCRT@D@ATL@@@@@ATL@@PAUtagRECT@@I@Z ; CDC::DrawTextA

; 590  : 					if(tablocr!=-1) pDC->DrawText (rightStr,rectt,nFormatr);

  01777	83 bd 10 ff ff
	ff ff		 cmp	 DWORD PTR _tablocr$198434[ebp], -1
  0177e	74 22		 je	 SHORT $L198448
  01780	8b 95 08 ff ff
	ff		 mov	 edx, DWORD PTR _nFormatr$198441[ebp]
  01786	52		 push	 edx
  01787	8d 8d f4 fe ff
	ff		 lea	 ecx, DWORD PTR _rectt$198431[ebp]
  0178d	e8 00 00 00 00	 call	 ??BCRect@@QAEPAUtagRECT@@XZ ; CRect::operator tagRECT *
  01792	50		 push	 eax
  01793	8d 85 04 ff ff
	ff		 lea	 eax, DWORD PTR _rightStr$198433[ebp]
  01799	50		 push	 eax
  0179a	8b 4d e0	 mov	 ecx, DWORD PTR _pDC$[ebp]
  0179d	e8 00 00 00 00	 call	 ?DrawTextA@CDC@@QAEHABV?$CStringT@DV?$StrTraitMFC_DLL@DV?$ChTraitsCRT@D@ATL@@@@@ATL@@PAUtagRECT@@I@Z ; CDC::DrawTextA
$L198448:

; 591  : 				}
; 592  : 				else{

  017a2	eb 5c		 jmp	 SHORT $L198444
$L198445:

; 593  : 					// And the standard Grey text:
; 594  : 					pDC->SetTextColor(m_clrBack);

  017a4	8b 4d dc	 mov	 ecx, DWORD PTR _m_clrBack$[ebp]
  017a7	51		 push	 ecx
  017a8	8b 55 e0	 mov	 edx, DWORD PTR _pDC$[ebp]
  017ab	8b 02		 mov	 eax, DWORD PTR [edx]
  017ad	8b 4d e0	 mov	 ecx, DWORD PTR _pDC$[ebp]
  017b0	ff 50 38	 call	 DWORD PTR [eax+56]

; 595  : 					pDC->DrawText(leftStr,rectt, nFormat);

  017b3	8b 8d 0c ff ff
	ff		 mov	 ecx, DWORD PTR _nFormat$198440[ebp]
  017b9	51		 push	 ecx
  017ba	8d 8d f4 fe ff
	ff		 lea	 ecx, DWORD PTR _rectt$198431[ebp]
  017c0	e8 00 00 00 00	 call	 ??BCRect@@QAEPAUtagRECT@@XZ ; CRect::operator tagRECT *
  017c5	50		 push	 eax
  017c6	8d 95 ec fe ff
	ff		 lea	 edx, DWORD PTR _leftStr$198432[ebp]
  017cc	52		 push	 edx
  017cd	8b 4d e0	 mov	 ecx, DWORD PTR _pDC$[ebp]
  017d0	e8 00 00 00 00	 call	 ?DrawTextA@CDC@@QAEHABV?$CStringT@DV?$StrTraitMFC_DLL@DV?$ChTraitsCRT@D@ATL@@@@@ATL@@PAUtagRECT@@I@Z ; CDC::DrawTextA

; 596  : 					if(tablocr!=-1) pDC->DrawText (rightStr,rectt,nFormatr);

  017d5	83 bd 10 ff ff
	ff ff		 cmp	 DWORD PTR _tablocr$198434[ebp], -1
  017dc	74 22		 je	 SHORT $L198444
  017de	8b 85 08 ff ff
	ff		 mov	 eax, DWORD PTR _nFormatr$198441[ebp]
  017e4	50		 push	 eax
  017e5	8d 8d f4 fe ff
	ff		 lea	 ecx, DWORD PTR _rectt$198431[ebp]
  017eb	e8 00 00 00 00	 call	 ??BCRect@@QAEPAUtagRECT@@XZ ; CRect::operator tagRECT *
  017f0	50		 push	 eax
  017f1	8d 8d 04 ff ff
	ff		 lea	 ecx, DWORD PTR _rightStr$198433[ebp]
  017f7	51		 push	 ecx
  017f8	8b 4d e0	 mov	 ecx, DWORD PTR _pDC$[ebp]
  017fb	e8 00 00 00 00	 call	 ?DrawTextA@CDC@@QAEHABV?$CStringT@DV?$StrTraitMFC_DLL@DV?$ChTraitsCRT@D@ATL@@@@@ATL@@PAUtagRECT@@I@Z ; CDC::DrawTextA
$L198444:

; 597  : 				}
; 598  : 			}
; 599  : 			pDC->SetBkMode( iOldMode );

  01800	8b 95 f0 fe ff
	ff		 mov	 edx, DWORD PTR _iOldMode$198439[ebp]
  01806	52		 push	 edx
  01807	8b 4d e0	 mov	 ecx, DWORD PTR _pDC$[ebp]
  0180a	e8 00 00 00 00	 call	 ?SetBkMode@CDC@@QAEHH@Z	; CDC::SetBkMode

; 600  : 		}

  0180f	c6 45 fc 07	 mov	 BYTE PTR __$EHRec$[ebp+8], 7
  01813	8d 8d 04 ff ff
	ff		 lea	 ecx, DWORD PTR _rightStr$198433[ebp]
  01819	ff 15 00 00 00
	00		 call	 DWORD PTR __imp_??1?$CStringT@DV?$StrTraitMFC_DLL@DV?$ChTraitsCRT@D@ATL@@@@@ATL@@QAE@XZ
  0181f	c6 45 fc 03	 mov	 BYTE PTR __$EHRec$[ebp+8], 3
  01823	8d 8d ec fe ff
	ff		 lea	 ecx, DWORD PTR _leftStr$198432[ebp]
  01829	ff 15 00 00 00
	00		 call	 DWORD PTR __imp_??1?$CStringT@DV?$StrTraitMFC_DLL@DV?$ChTraitsCRT@D@ATL@@@@@ATL@@QAE@XZ
$L198430:

; 601  : 		
; 602  : 		m_penBack.DeleteObject();

  0182f	8d 4d b8	 lea	 ecx, DWORD PTR _m_penBack$198357[ebp]
  01832	e8 00 00 00 00	 call	 ?DeleteObject@CGdiObject@@QAEHXZ ; CGdiObject::DeleteObject

; 603  : 		m_brSelect.DeleteObject();

  01837	8d 4d 88	 lea	 ecx, DWORD PTR _m_brSelect$198356[ebp]
  0183a	e8 00 00 00 00	 call	 ?DeleteObject@CGdiObject@@QAEHXZ ; CGdiObject::DeleteObject

; 604  : 	}

  0183f	c6 45 fc 02	 mov	 BYTE PTR __$EHRec$[ebp+8], 2
  01843	8d 4d b0	 lea	 ecx, DWORD PTR _strText$198366[ebp]
  01846	ff 15 00 00 00
	00		 call	 DWORD PTR __imp_??1?$CStringT@DV?$StrTraitMFC_DLL@DV?$ChTraitsCRT@D@ATL@@@@@ATL@@QAE@XZ
  0184c	c6 45 fc 01	 mov	 BYTE PTR __$EHRec$[ebp+8], 1
  01850	8d 4d b8	 lea	 ecx, DWORD PTR _m_penBack$198357[ebp]
  01853	e8 00 00 00 00	 call	 ??1CPen@@UAE@XZ		; CPen::~CPen
  01858	c6 45 fc 00	 mov	 BYTE PTR __$EHRec$[ebp+8], 0
  0185c	8d 4d 88	 lea	 ecx, DWORD PTR _m_brSelect$198356[ebp]
  0185f	e8 00 00 00 00	 call	 ??1CBrush@@UAE@XZ	; CBrush::~CBrush
$L198349:

; 605  : 	m_brBackground.DeleteObject();

  01864	8d 4d d4	 lea	 ecx, DWORD PTR _m_brBackground$[ebp]
  01867	e8 00 00 00 00	 call	 ?DeleteObject@CGdiObject@@QAEHXZ ; CGdiObject::DeleteObject

; 606  : }

  0186c	c7 45 fc ff ff
	ff ff		 mov	 DWORD PTR __$EHRec$[ebp+8], -1
  01873	8d 4d d4	 lea	 ecx, DWORD PTR _m_brBackground$[ebp]
  01876	e8 00 00 00 00	 call	 ??1CBrush@@UAE@XZ	; CBrush::~CBrush
  0187b	8b 4d f4	 mov	 ecx, DWORD PTR __$EHRec$[ebp]
  0187e	64 89 0d 00 00
	00 00		 mov	 DWORD PTR fs:__except_list, ecx
  01885	8b e5		 mov	 esp, ebp
  01887	5d		 pop	 ebp
  01888	c2 04 00	 ret	 4
_TEXT	ENDS
text$x	SEGMENT
$L202401:
  00063	8d 4d d4	 lea	 ecx, DWORD PTR _m_brBackground$[ebp]
  00066	e9 00 00 00 00	 jmp	 ??1CBrush@@UAE@XZ	; CBrush::~CBrush
$L202402:
  0006b	8d 4d 88	 lea	 ecx, DWORD PTR _m_brSelect$198356[ebp]
  0006e	e9 00 00 00 00	 jmp	 ??1CBrush@@UAE@XZ	; CBrush::~CBrush
$L202403:
  00073	8d 4d b8	 lea	 ecx, DWORD PTR _m_penBack$198357[ebp]
  00076	e9 00 00 00 00	 jmp	 ??1CPen@@UAE@XZ		; CPen::~CPen
$L202404:
  0007b	8d 4d b0	 lea	 ecx, DWORD PTR _strText$198366[ebp]
  0007e	ff 25 00 00 00
	00		 jmp	 DWORD PTR __imp_??1?$CStringT@DV?$StrTraitMFC_DLL@DV?$ChTraitsCRT@D@ATL@@@@@ATL@@QAE@XZ
$L202405:
  00084	8d 8d d8 fe ff
	ff		 lea	 ecx, DWORD PTR $T202392[ebp]
  0008a	ff 25 00 00 00
	00		 jmp	 DWORD PTR __imp_??1?$CStringT@DV?$StrTraitMFC_DLL@DV?$ChTraitsCRT@D@ATL@@@@@ATL@@QAE@XZ
$L202406:
  00090	8d 8d 60 ff ff
	ff		 lea	 ecx, DWORD PTR _bitmapstandard$198402[ebp]
  00096	e9 00 00 00 00	 jmp	 ??1CBitmap@@UAE@XZ	; CBitmap::~CBitmap
$L202407:
  0009b	8d 8d 44 ff ff
	ff		 lea	 ecx, DWORD PTR _brush$198418[ebp]
  000a1	e9 00 00 00 00	 jmp	 ??1CBrush@@UAE@XZ	; CBrush::~CBrush
$L202408:
  000a6	8d 8d ec fe ff
	ff		 lea	 ecx, DWORD PTR _leftStr$198432[ebp]
  000ac	ff 25 00 00 00
	00		 jmp	 DWORD PTR __imp_??1?$CStringT@DV?$StrTraitMFC_DLL@DV?$ChTraitsCRT@D@ATL@@@@@ATL@@QAE@XZ
$L202409:
  000b2	8d 8d 04 ff ff
	ff		 lea	 ecx, DWORD PTR _rightStr$198433[ebp]
  000b8	ff 25 00 00 00
	00		 jmp	 DWORD PTR __imp_??1?$CStringT@DV?$StrTraitMFC_DLL@DV?$ChTraitsCRT@D@ATL@@@@@ATL@@QAE@XZ
$L202410:
  000be	8d 8d b4 fe ff
	ff		 lea	 ecx, DWORD PTR $T202399[ebp]
  000c4	ff 25 00 00 00
	00		 jmp	 DWORD PTR __imp_??1?$CStringT@DV?$StrTraitMFC_DLL@DV?$ChTraitsCRT@D@ATL@@@@@ATL@@QAE@XZ
$L202411:
  000ca	8d 8d b0 fe ff
	ff		 lea	 ecx, DWORD PTR $T202400[ebp]
  000d0	ff 25 00 00 00
	00		 jmp	 DWORD PTR __imp_??1?$CStringT@DV?$StrTraitMFC_DLL@DV?$ChTraitsCRT@D@ATL@@@@@ATL@@QAE@XZ
__ehhandler$?DrawItem_Win9xNT2000@BCMenu@@IAEXPAUtagDRAWITEMSTRUCT@@@Z:
  000d6	b8 00 00 00 00	 mov	 eax, OFFSET FLAT:$T202413
  000db	e9 00 00 00 00	 jmp	 ___CxxFrameHandler
text$x	ENDS
?DrawItem_Win9xNT2000@BCMenu@@IAEXPAUtagDRAWITEMSTRUCT@@@Z ENDP ; BCMenu::DrawItem_Win9xNT2000
; Function compile flags: /Odt
; File d:\boxgit\playbox\playbox\dev\prj\playbox\src\gui\util\bcmenu.h
;	COMDAT ??0CMenuItemInfo@@QAE@XZ
_TEXT	SEGMENT
_this$ = -4						; size = 4
??0CMenuItemInfo@@QAE@XZ PROC NEAR			; CMenuItemInfo::CMenuItemInfo, COMDAT
; _this$ = ecx

; 64   : 	CMenuItemInfo()

  00000	55		 push	 ebp
  00001	8b ec		 mov	 ebp, esp
  00003	51		 push	 ecx
  00004	89 4d fc	 mov	 DWORD PTR _this$[ebp], ecx

; 65   : 	{
; 66   : 		memset(this, 0, sizeof(MENUITEMINFO));

  00007	6a 30		 push	 48			; 00000030H
  00009	6a 00		 push	 0
  0000b	8b 45 fc	 mov	 eax, DWORD PTR _this$[ebp]
  0000e	50		 push	 eax
  0000f	e8 00 00 00 00	 call	 _memset
  00014	83 c4 0c	 add	 esp, 12			; 0000000cH

; 67   : 		cbSize = sizeof(MENUITEMINFO);

  00017	8b 4d fc	 mov	 ecx, DWORD PTR _this$[ebp]
  0001a	c7 01 30 00 00
	00		 mov	 DWORD PTR [ecx], 48	; 00000030H

; 68   : 	}

  00020	8b 45 fc	 mov	 eax, DWORD PTR _this$[ebp]
  00023	8b e5		 mov	 esp, ebp
  00025	5d		 pop	 ebp
  00026	c3		 ret	 0
??0CMenuItemInfo@@QAE@XZ ENDP				; CMenuItemInfo::CMenuItemInfo
_TEXT	ENDS
PUBLIC	?InterlockedExchangePointer@@YGPAXPAPAXPAX@Z	; InterlockedExchangePointer
PUBLIC	?_AtlGetThreadACPFake@ATL@@YGIXZ		; ATL::_AtlGetThreadACPFake
PUBLIC	?_AtlGetThreadACPReal@ATL@@YGIXZ		; ATL::_AtlGetThreadACPReal
; Function compile flags: /Odt
; File d:\program files (x86)\microsoft visual studio .net 2003\vc7\atlmfc\include\atlconv.h
;	COMDAT ?_AtlGetThreadACPThunk@ATL@@YGIXZ
_TEXT	SEGMENT
_pfnGetThreadACP$ = -164				; size = 4
_ver$ = -160						; size = 148
__$ArrayPad$ = -4					; size = 4
__$ReturnAddr$ = 4					; size = 4
?_AtlGetThreadACPThunk@ATL@@YGIXZ PROC NEAR		; ATL::_AtlGetThreadACPThunk, COMDAT

; 134  : {

  00000	55		 push	 ebp
  00001	8b ec		 mov	 ebp, esp
  00003	81 ec a4 00 00
	00		 sub	 esp, 164		; 000000a4H
  00009	a1 00 00 00 00	 mov	 eax, DWORD PTR ___security_cookie
  0000e	89 45 fc	 mov	 DWORD PTR __$ArrayPad$[ebp], eax

; 135  : 	OSVERSIONINFO ver;
; 136  : 	ATLGETTHREADACP pfnGetThreadACP;
; 137  : 
; 138  : 	ver.dwOSVersionInfoSize = sizeof( ver );

  00011	c7 85 60 ff ff
	ff 94 00 00 00	 mov	 DWORD PTR _ver$[ebp], 148 ; 00000094H

; 139  : 	::GetVersionEx( &ver );

  0001b	8d 85 60 ff ff
	ff		 lea	 eax, DWORD PTR _ver$[ebp]
  00021	50		 push	 eax
  00022	ff 15 00 00 00
	00		 call	 DWORD PTR __imp__GetVersionExA@4

; 140  : 	if( (ver.dwPlatformId == VER_PLATFORM_WIN32_NT) && (ver.dwMajorVersion >= 5) )

  00028	83 bd 70 ff ff
	ff 02		 cmp	 DWORD PTR _ver$[ebp+16], 2
  0002f	75 15		 jne	 SHORT $L24173
  00031	83 bd 64 ff ff
	ff 05		 cmp	 DWORD PTR _ver$[ebp+4], 5
  00038	72 0c		 jb	 SHORT $L24173

; 141  : 	{
; 142  : 		// On Win2K, CP_THREAD_ACP is supported
; 143  : 		pfnGetThreadACP = _AtlGetThreadACPReal;

  0003a	c7 85 5c ff ff
	ff 00 00 00 00	 mov	 DWORD PTR _pfnGetThreadACP$[ebp], OFFSET FLAT:?_AtlGetThreadACPReal@ATL@@YGIXZ ; ATL::_AtlGetThreadACPReal

; 144  : 	}
; 145  : 	else

  00044	eb 0a		 jmp	 SHORT $L24174
$L24173:

; 146  : 	{
; 147  : 		pfnGetThreadACP = _AtlGetThreadACPFake;

  00046	c7 85 5c ff ff
	ff 00 00 00 00	 mov	 DWORD PTR _pfnGetThreadACP$[ebp], OFFSET FLAT:?_AtlGetThreadACPFake@ATL@@YGIXZ ; ATL::_AtlGetThreadACPFake
$L24174:

; 148  : 	}
; 149  : 	InterlockedExchangePointer( reinterpret_cast< void** >(&g_pfnGetThreadACP), pfnGetThreadACP );

  00050	8b 8d 5c ff ff
	ff		 mov	 ecx, DWORD PTR _pfnGetThreadACP$[ebp]
  00056	51		 push	 ecx
  00057	68 00 00 00 00	 push	 OFFSET FLAT:?g_pfnGetThreadACP@ATL@@3P6GIXZA ; ATL::g_pfnGetThreadACP
  0005c	e8 00 00 00 00	 call	 ?InterlockedExchangePointer@@YGPAXPAPAXPAX@Z ; InterlockedExchangePointer

; 150  : 
; 151  : 	return( g_pfnGetThreadACP() );

  00061	ff 15 00 00 00
	00		 call	 DWORD PTR ?g_pfnGetThreadACP@ATL@@3P6GIXZA ; ATL::g_pfnGetThreadACP

; 152  : }

  00067	8b 4d fc	 mov	 ecx, DWORD PTR __$ArrayPad$[ebp]
  0006a	e8 00 00 00 00	 call	 @__security_check_cookie@4
  0006f	8b e5		 mov	 esp, ebp
  00071	5d		 pop	 ebp
  00072	c3		 ret	 0
?_AtlGetThreadACPThunk@ATL@@YGIXZ ENDP			; ATL::_AtlGetThreadACPThunk
_TEXT	ENDS
EXTRN	__imp__InterlockedExchange@8:NEAR
; Function compile flags: /Odt
;	COMDAT ?InterlockedExchangePointer@@YGPAXPAPAXPAX@Z
_TEXT	SEGMENT
_pp$ = 8						; size = 4
_pNew$ = 12						; size = 4
?InterlockedExchangePointer@@YGPAXPAPAXPAX@Z PROC NEAR	; InterlockedExchangePointer, COMDAT

; 91   : {

  00000	55		 push	 ebp
  00001	8b ec		 mov	 ebp, esp

; 92   : 	return( reinterpret_cast<void*>(static_cast<LONG_PTR>(::InterlockedExchange(reinterpret_cast<LONG*>(pp), static_cast<LONG>(reinterpret_cast<LONG_PTR>(pNew))))) );

  00003	8b 45 0c	 mov	 eax, DWORD PTR _pNew$[ebp]
  00006	50		 push	 eax
  00007	8b 4d 08	 mov	 ecx, DWORD PTR _pp$[ebp]
  0000a	51		 push	 ecx
  0000b	ff 15 00 00 00
	00		 call	 DWORD PTR __imp__InterlockedExchange@8

; 93   : }

  00011	5d		 pop	 ebp
  00012	c2 08 00	 ret	 8
?InterlockedExchangePointer@@YGPAXPAPAXPAX@Z ENDP	; InterlockedExchangePointer
_TEXT	ENDS
EXTRN	__imp__GetACP@0:NEAR
EXTRN	__imp__GetLocaleInfoA@16:NEAR
EXTRN	__imp__GetThreadLocale@0:NEAR
; Function compile flags: /Odt
;	COMDAT ?_AtlGetThreadACPFake@ATL@@YGIXZ
_TEXT	SEGMENT
_pch$24161 = -24					; size = 4
_lcidThread$ = -20					; size = 4
_szACP$ = -16						; size = 7
__$ArrayPad$ = -8					; size = 4
_nACP$ = -4						; size = 4
__$ReturnAddr$ = 4					; size = 4
?_AtlGetThreadACPFake@ATL@@YGIXZ PROC NEAR		; ATL::_AtlGetThreadACPFake, COMDAT

; 101  : {

  00000	55		 push	 ebp
  00001	8b ec		 mov	 ebp, esp
  00003	83 ec 18	 sub	 esp, 24			; 00000018H
  00006	a1 00 00 00 00	 mov	 eax, DWORD PTR ___security_cookie
  0000b	89 45 f8	 mov	 DWORD PTR __$ArrayPad$[ebp], eax

; 102  : 	UINT nACP = 0;

  0000e	c7 45 fc 00 00
	00 00		 mov	 DWORD PTR _nACP$[ebp], 0

; 103  : 
; 104  : 	LCID lcidThread = ::GetThreadLocale();

  00015	ff 15 00 00 00
	00		 call	 DWORD PTR __imp__GetThreadLocale@0
  0001b	89 45 ec	 mov	 DWORD PTR _lcidThread$[ebp], eax

; 105  : 
; 106  : 	char szACP[7];
; 107  : 	// GetLocaleInfoA will fail for a Unicode-only LCID, but those are only supported on 
; 108  : 	// Windows 2000.  Since Windows 2000 supports CP_THREAD_ACP, this code path is never
; 109  : 	// executed on Windows 2000.
; 110  : 	if (::GetLocaleInfoA(lcidThread, LOCALE_IDEFAULTANSICODEPAGE, szACP, 7) != 0)

  0001e	6a 07		 push	 7
  00020	8d 45 f0	 lea	 eax, DWORD PTR _szACP$[ebp]
  00023	50		 push	 eax
  00024	68 04 10 00 00	 push	 4100			; 00001004H
  00029	8b 4d ec	 mov	 ecx, DWORD PTR _lcidThread$[ebp]
  0002c	51		 push	 ecx
  0002d	ff 15 00 00 00
	00		 call	 DWORD PTR __imp__GetLocaleInfoA@16
  00033	85 c0		 test	 eax, eax
  00035	74 34		 je	 SHORT $L24160

; 111  : 	{
; 112  : 		char* pch = szACP;

  00037	8d 55 f0	 lea	 edx, DWORD PTR _szACP$[ebp]
  0003a	89 55 e8	 mov	 DWORD PTR _pch$24161[ebp], edx
$L24163:

; 113  : 		while (*pch != '\0')

  0003d	8b 45 e8	 mov	 eax, DWORD PTR _pch$24161[ebp]
  00040	0f be 08	 movsx	 ecx, BYTE PTR [eax]
  00043	85 c9		 test	 ecx, ecx
  00045	74 24		 je	 SHORT $L24160

; 114  : 		{
; 115  : 			nACP *= 10;

  00047	8b 55 fc	 mov	 edx, DWORD PTR _nACP$[ebp]
  0004a	6b d2 0a	 imul	 edx, 10			; 0000000aH
  0004d	89 55 fc	 mov	 DWORD PTR _nACP$[ebp], edx

; 116  : 			nACP += *pch++ - '0';

  00050	8b 45 e8	 mov	 eax, DWORD PTR _pch$24161[ebp]
  00053	0f be 08	 movsx	 ecx, BYTE PTR [eax]
  00056	8b 55 fc	 mov	 edx, DWORD PTR _nACP$[ebp]
  00059	8d 44 0a d0	 lea	 eax, DWORD PTR [edx+ecx-48]
  0005d	89 45 fc	 mov	 DWORD PTR _nACP$[ebp], eax
  00060	8b 4d e8	 mov	 ecx, DWORD PTR _pch$24161[ebp]
  00063	83 c1 01	 add	 ecx, 1
  00066	89 4d e8	 mov	 DWORD PTR _pch$24161[ebp], ecx

; 117  : 		}

  00069	eb d2		 jmp	 SHORT $L24163
$L24160:

; 118  : 	}
; 119  : 	// Use the Default ANSI Code Page if we were unable to get the thread ACP or if one does not exist.
; 120  : 	if (nACP == 0)

  0006b	83 7d fc 00	 cmp	 DWORD PTR _nACP$[ebp], 0
  0006f	75 09		 jne	 SHORT $L24165

; 121  : 		nACP = ::GetACP();

  00071	ff 15 00 00 00
	00		 call	 DWORD PTR __imp__GetACP@0
  00077	89 45 fc	 mov	 DWORD PTR _nACP$[ebp], eax
$L24165:

; 122  : 
; 123  : 	return nACP;

  0007a	8b 45 fc	 mov	 eax, DWORD PTR _nACP$[ebp]

; 124  : }

  0007d	8b 4d f8	 mov	 ecx, DWORD PTR __$ArrayPad$[ebp]
  00080	e8 00 00 00 00	 call	 @__security_check_cookie@4
  00085	8b e5		 mov	 esp, ebp
  00087	5d		 pop	 ebp
  00088	c3		 ret	 0
?_AtlGetThreadACPFake@ATL@@YGIXZ ENDP			; ATL::_AtlGetThreadACPFake
; Function compile flags: /Odt
_TEXT	ENDS
;	COMDAT ?_AtlGetThreadACPReal@ATL@@YGIXZ
_TEXT	SEGMENT
?_AtlGetThreadACPReal@ATL@@YGIXZ PROC NEAR		; ATL::_AtlGetThreadACPReal, COMDAT

; 127  : {

  00000	55		 push	 ebp
  00001	8b ec		 mov	 ebp, esp

; 128  : 	return( CP_THREAD_ACP );

  00003	b8 03 00 00 00	 mov	 eax, 3

; 129  : }

  00008	5d		 pop	 ebp
  00009	c3		 ret	 0
?_AtlGetThreadACPReal@ATL@@YGIXZ ENDP			; ATL::_AtlGetThreadACPReal
; Function compile flags: /Odt
_TEXT	ENDS
;	COMDAT ?_AtlGetConversionACP@ATL@@YGIXZ
_TEXT	SEGMENT
?_AtlGetConversionACP@ATL@@YGIXZ PROC NEAR		; ATL::_AtlGetConversionACP, COMDAT

; 157  : {

  00000	55		 push	 ebp
  00001	8b ec		 mov	 ebp, esp

; 158  : 	return( g_pfnGetThreadACP() );

  00003	ff 15 00 00 00
	00		 call	 DWORD PTR ?g_pfnGetThreadACP@ATL@@3P6GIXZA ; ATL::g_pfnGetThreadACP

; 159  : }

  00009	5d		 pop	 ebp
  0000a	c3		 ret	 0
?_AtlGetConversionACP@ATL@@YGIXZ ENDP			; ATL::_AtlGetConversionACP
_TEXT	ENDS
PUBLIC	__real@0000000000000000
PUBLIC	__real@3ff0000000000000
EXTRN	__ftol2:NEAR
;	COMDAT __real@0000000000000000
; File d:\boxgit\playbox\playbox\dev\prj\playbox\src\gui\util\bcmenu.cpp
CONST	SEGMENT
__real@0000000000000000 DQ 00000000000000000r	; 0
CONST	ENDS
;	COMDAT __real@3ff0000000000000
CONST	SEGMENT
__real@3ff0000000000000 DQ 03ff0000000000000r	; 1
; Function compile flags: /Odt
CONST	ENDS
_TEXT	SEGMENT
tv162 = -32						; size = 4
tv161 = -28						; size = 4
tv157 = -24						; size = 4
tv156 = -20						; size = 4
tv152 = -16						; size = 4
tv151 = -12						; size = 4
_green$198457 = -6					; size = 1
_blue$198458 = -5					; size = 1
_red$198456 = -4					; size = 1
_lightred$198459 = -3					; size = 1
_lightblue$198461 = -2					; size = 1
_lightgreen$198460 = -1					; size = 1
_col$ = 8						; size = 4
_factor$ = 12						; size = 8
?LightenColor@BCMenu@@SAKKN@Z PROC NEAR			; BCMenu::LightenColor

; 609  : {

  01890	55		 push	 ebp
  01891	8b ec		 mov	 ebp, esp
  01893	83 ec 20	 sub	 esp, 32			; 00000020H

; 610  : 	if(factor>0.0&&factor<=1.0){

  01896	dd 45 0c	 fld	 QWORD PTR _factor$[ebp]
  01899	dc 1d 00 00 00
	00		 fcomp	 QWORD PTR __real@0000000000000000
  0189f	df e0		 fnstsw	 ax
  018a1	f6 c4 41	 test	 ah, 65			; 00000041H
  018a4	0f 85 be 00 00
	00		 jne	 $L198455
  018aa	dd 45 0c	 fld	 QWORD PTR _factor$[ebp]
  018ad	dc 1d 00 00 00
	00		 fcomp	 QWORD PTR __real@3ff0000000000000
  018b3	df e0		 fnstsw	 ax
  018b5	f6 c4 41	 test	 ah, 65			; 00000041H
  018b8	0f 8a aa 00 00
	00		 jp	 $L198455

; 611  : 		BYTE red,green,blue,lightred,lightgreen,lightblue;
; 612  : 		red = GetRValue(col);

  018be	8a 45 08	 mov	 al, BYTE PTR _col$[ebp]
  018c1	88 45 fc	 mov	 BYTE PTR _red$198456[ebp], al

; 613  : 		green = GetGValue(col);

  018c4	0f b7 4d 08	 movzx	 ecx, WORD PTR _col$[ebp]
  018c8	c1 f9 08	 sar	 ecx, 8
  018cb	88 4d fa	 mov	 BYTE PTR _green$198457[ebp], cl

; 614  : 		blue = GetBValue(col);

  018ce	8b 55 08	 mov	 edx, DWORD PTR _col$[ebp]
  018d1	c1 ea 10	 shr	 edx, 16			; 00000010H
  018d4	88 55 fb	 mov	 BYTE PTR _blue$198458[ebp], dl

; 615  : 		lightred = (BYTE)((factor*(255-red)) + red);

  018d7	0f b6 45 fc	 movzx	 eax, BYTE PTR _red$198456[ebp]
  018db	b9 ff 00 00 00	 mov	 ecx, 255		; 000000ffH
  018e0	2b c8		 sub	 ecx, eax
  018e2	89 4d f4	 mov	 DWORD PTR tv151[ebp], ecx
  018e5	db 45 f4	 fild	 DWORD PTR tv151[ebp]
  018e8	dc 4d 0c	 fmul	 QWORD PTR _factor$[ebp]
  018eb	0f b6 55 fc	 movzx	 edx, BYTE PTR _red$198456[ebp]
  018ef	89 55 f0	 mov	 DWORD PTR tv152[ebp], edx
  018f2	db 45 f0	 fild	 DWORD PTR tv152[ebp]
  018f5	de c1		 faddp	 ST(1), ST(0)
  018f7	e8 00 00 00 00	 call	 __ftol2
  018fc	88 45 fd	 mov	 BYTE PTR _lightred$198459[ebp], al

; 616  : 		lightgreen = (BYTE)((factor*(255-green)) + green);

  018ff	0f b6 45 fa	 movzx	 eax, BYTE PTR _green$198457[ebp]
  01903	b9 ff 00 00 00	 mov	 ecx, 255		; 000000ffH
  01908	2b c8		 sub	 ecx, eax
  0190a	89 4d ec	 mov	 DWORD PTR tv156[ebp], ecx
  0190d	db 45 ec	 fild	 DWORD PTR tv156[ebp]
  01910	dc 4d 0c	 fmul	 QWORD PTR _factor$[ebp]
  01913	0f b6 55 fa	 movzx	 edx, BYTE PTR _green$198457[ebp]
  01917	89 55 e8	 mov	 DWORD PTR tv157[ebp], edx
  0191a	db 45 e8	 fild	 DWORD PTR tv157[ebp]
  0191d	de c1		 faddp	 ST(1), ST(0)
  0191f	e8 00 00 00 00	 call	 __ftol2
  01924	88 45 ff	 mov	 BYTE PTR _lightgreen$198460[ebp], al

; 617  : 		lightblue = (BYTE)((factor*(255-blue)) + blue);

  01927	0f b6 45 fb	 movzx	 eax, BYTE PTR _blue$198458[ebp]
  0192b	b9 ff 00 00 00	 mov	 ecx, 255		; 000000ffH
  01930	2b c8		 sub	 ecx, eax
  01932	89 4d e4	 mov	 DWORD PTR tv161[ebp], ecx
  01935	db 45 e4	 fild	 DWORD PTR tv161[ebp]
  01938	dc 4d 0c	 fmul	 QWORD PTR _factor$[ebp]
  0193b	0f b6 55 fb	 movzx	 edx, BYTE PTR _blue$198458[ebp]
  0193f	89 55 e0	 mov	 DWORD PTR tv162[ebp], edx
  01942	db 45 e0	 fild	 DWORD PTR tv162[ebp]
  01945	de c1		 faddp	 ST(1), ST(0)
  01947	e8 00 00 00 00	 call	 __ftol2
  0194c	88 45 fe	 mov	 BYTE PTR _lightblue$198461[ebp], al

; 618  : 		col = RGB(lightred,lightgreen,lightblue);

  0194f	0f b6 45 fd	 movzx	 eax, BYTE PTR _lightred$198459[ebp]
  01953	0f b6 4d ff	 movzx	 ecx, BYTE PTR _lightgreen$198460[ebp]
  01957	c1 e1 08	 shl	 ecx, 8
  0195a	0b c1		 or	 eax, ecx
  0195c	0f b6 55 fe	 movzx	 edx, BYTE PTR _lightblue$198461[ebp]
  01960	c1 e2 10	 shl	 edx, 16			; 00000010H
  01963	0b c2		 or	 eax, edx
  01965	89 45 08	 mov	 DWORD PTR _col$[ebp], eax
$L198455:

; 619  : 	}
; 620  : 	return(col);

  01968	8b 45 08	 mov	 eax, DWORD PTR _col$[ebp]

; 621  : }

  0196b	8b e5		 mov	 esp, ebp
  0196d	5d		 pop	 ebp
  0196e	c3		 ret	 0
?LightenColor@BCMenu@@SAKKN@Z ENDP			; BCMenu::LightenColor
_TEXT	ENDS
PUBLIC	?DarkenColor@BCMenu@@SAKKN@Z			; BCMenu::DarkenColor
; Function compile flags: /Odt
_TEXT	SEGMENT
tv156 = -32						; size = 4
tv155 = -28						; size = 4
tv152 = -24						; size = 4
tv151 = -20						; size = 4
tv148 = -16						; size = 4
tv147 = -12						; size = 4
_green$198481 = -6					; size = 1
_blue$198482 = -5					; size = 1
_red$198480 = -4					; size = 1
_lightred$198483 = -3					; size = 1
_lightblue$198485 = -2					; size = 1
_lightgreen$198484 = -1					; size = 1
_col$ = 8						; size = 4
_factor$ = 12						; size = 8
?DarkenColor@BCMenu@@SAKKN@Z PROC NEAR			; BCMenu::DarkenColor

; 624  : {

  01970	55		 push	 ebp
  01971	8b ec		 mov	 ebp, esp
  01973	83 ec 20	 sub	 esp, 32			; 00000020H

; 625  : 	if(factor>0.0&&factor<=1.0){

  01976	dd 45 0c	 fld	 QWORD PTR _factor$[ebp]
  01979	dc 1d 00 00 00
	00		 fcomp	 QWORD PTR __real@0000000000000000
  0197f	df e0		 fnstsw	 ax
  01981	f6 c4 41	 test	 ah, 65			; 00000041H
  01984	0f 85 a9 00 00
	00		 jne	 $L198479
  0198a	dd 45 0c	 fld	 QWORD PTR _factor$[ebp]
  0198d	dc 1d 00 00 00
	00		 fcomp	 QWORD PTR __real@3ff0000000000000
  01993	df e0		 fnstsw	 ax
  01995	f6 c4 41	 test	 ah, 65			; 00000041H
  01998	0f 8a 95 00 00
	00		 jp	 $L198479

; 626  : 		BYTE red,green,blue,lightred,lightgreen,lightblue;
; 627  : 		red = GetRValue(col);

  0199e	8a 45 08	 mov	 al, BYTE PTR _col$[ebp]
  019a1	88 45 fc	 mov	 BYTE PTR _red$198480[ebp], al

; 628  : 		green = GetGValue(col);

  019a4	0f b7 4d 08	 movzx	 ecx, WORD PTR _col$[ebp]
  019a8	c1 f9 08	 sar	 ecx, 8
  019ab	88 4d fa	 mov	 BYTE PTR _green$198481[ebp], cl

; 629  : 		blue = GetBValue(col);

  019ae	8b 55 08	 mov	 edx, DWORD PTR _col$[ebp]
  019b1	c1 ea 10	 shr	 edx, 16			; 00000010H
  019b4	88 55 fb	 mov	 BYTE PTR _blue$198482[ebp], dl

; 630  : 		lightred = (BYTE)(red-(factor*red));

  019b7	0f b6 45 fc	 movzx	 eax, BYTE PTR _red$198480[ebp]
  019bb	89 45 f4	 mov	 DWORD PTR tv147[ebp], eax
  019be	db 45 f4	 fild	 DWORD PTR tv147[ebp]
  019c1	0f b6 4d fc	 movzx	 ecx, BYTE PTR _red$198480[ebp]
  019c5	89 4d f0	 mov	 DWORD PTR tv148[ebp], ecx
  019c8	db 45 f0	 fild	 DWORD PTR tv148[ebp]
  019cb	dc 4d 0c	 fmul	 QWORD PTR _factor$[ebp]
  019ce	de e9		 fsubp	 ST(1), ST(0)
  019d0	e8 00 00 00 00	 call	 __ftol2
  019d5	88 45 fd	 mov	 BYTE PTR _lightred$198483[ebp], al

; 631  : 		lightgreen = (BYTE)(green-(factor*green));

  019d8	0f b6 55 fa	 movzx	 edx, BYTE PTR _green$198481[ebp]
  019dc	89 55 ec	 mov	 DWORD PTR tv151[ebp], edx
  019df	db 45 ec	 fild	 DWORD PTR tv151[ebp]
  019e2	0f b6 45 fa	 movzx	 eax, BYTE PTR _green$198481[ebp]
  019e6	89 45 e8	 mov	 DWORD PTR tv152[ebp], eax
  019e9	db 45 e8	 fild	 DWORD PTR tv152[ebp]
  019ec	dc 4d 0c	 fmul	 QWORD PTR _factor$[ebp]
  019ef	de e9		 fsubp	 ST(1), ST(0)
  019f1	e8 00 00 00 00	 call	 __ftol2
  019f6	88 45 ff	 mov	 BYTE PTR _lightgreen$198484[ebp], al

; 632  : 		lightblue = (BYTE)(blue-(factor*blue));

  019f9	0f b6 4d fb	 movzx	 ecx, BYTE PTR _blue$198482[ebp]
  019fd	89 4d e4	 mov	 DWORD PTR tv155[ebp], ecx
  01a00	db 45 e4	 fild	 DWORD PTR tv155[ebp]
  01a03	0f b6 55 fb	 movzx	 edx, BYTE PTR _blue$198482[ebp]
  01a07	89 55 e0	 mov	 DWORD PTR tv156[ebp], edx
  01a0a	db 45 e0	 fild	 DWORD PTR tv156[ebp]
  01a0d	dc 4d 0c	 fmul	 QWORD PTR _factor$[ebp]
  01a10	de e9		 fsubp	 ST(1), ST(0)
  01a12	e8 00 00 00 00	 call	 __ftol2
  01a17	88 45 fe	 mov	 BYTE PTR _lightblue$198485[ebp], al

; 633  : 		col = RGB(lightred,lightgreen,lightblue);

  01a1a	0f b6 45 fd	 movzx	 eax, BYTE PTR _lightred$198483[ebp]
  01a1e	0f b6 4d ff	 movzx	 ecx, BYTE PTR _lightgreen$198484[ebp]
  01a22	c1 e1 08	 shl	 ecx, 8
  01a25	0b c1		 or	 eax, ecx
  01a27	0f b6 55 fe	 movzx	 edx, BYTE PTR _lightblue$198485[ebp]
  01a2b	c1 e2 10	 shl	 edx, 16			; 00000010H
  01a2e	0b c2		 or	 eax, edx
  01a30	89 45 08	 mov	 DWORD PTR _col$[ebp], eax
$L198479:

; 634  : 	}
; 635  : 	return(col);

  01a33	8b 45 08	 mov	 eax, DWORD PTR _col$[ebp]

; 636  : }

  01a36	8b e5		 mov	 esp, ebp
  01a38	5d		 pop	 ebp
  01a39	c3		 ret	 0
?DarkenColor@BCMenu@@SAKKN@Z ENDP			; BCMenu::DarkenColor
_TEXT	ENDS
PUBLIC	?GetImageCount@CImageList@@QBEHXZ		; CImageList::GetImageCount
PUBLIC	?DrawXPCheckmark@BCMenu@@IAEHPAVCDC@@ABVCRect@@PAUHBITMAP__@@AAKH@Z ; BCMenu::DrawXPCheckmark
PUBLIC	?CanDraw3DImageList@BCMenu@@IAEHH@Z		; BCMenu::CanDraw3DImageList
PUBLIC	??2CObject@@SGPAXI@Z				; CObject::operator new
PUBLIC	??0BCMenuMemDC@@QAE@PAVCDC@@PBUtagRECT@@@Z	; BCMenuMemDC::BCMenuMemDC
PUBLIC	__real@3f947ae147ae147b
PUBLIC	__real@3fd0000000000000
PUBLIC	__real@3feb333333333333
PUBLIC	__real@3fe6666666666666
PUBLIC	__real@4000000000000000
PUBLIC	__real@3fe0000000000000
PUBLIC	__real@3fe199999999999a
PUBLIC	__real@3fd999999999999a
PUBLIC	??0CFont@@QAE@XZ				; CFont::CFont
PUBLIC	?CreateFontIndirectA@CFont@@QAEHPBUtagLOGFONTA@@@Z ; CFont::CreateFontIndirectA
PUBLIC	??1CFont@@UAE@XZ				; CFont::~CFont
EXTRN	__imp__SystemParametersInfoA@16:NEAR
xdata$x	SEGMENT
$T202501 DD	0ffffffffH
	DD	FLAT:$L202466
	DD	00H
	DD	FLAT:$L202467
	DD	01H
	DD	FLAT:$L202468
	DD	02H
	DD	FLAT:$L202469
	DD	02H
	DD	FLAT:$L202470
	DD	04H
	DD	FLAT:$L202471
	DD	05H
	DD	FLAT:$L202472
	DD	06H
	DD	FLAT:$L202473
	DD	06H
	DD	FLAT:$L202474
	DD	06H
	DD	FLAT:$L202475
	DD	06H
	DD	FLAT:$L202476
	DD	06H
	DD	FLAT:$L202477
	DD	0bH
	DD	FLAT:$L202478
	DD	0cH
	DD	FLAT:$L202479
	DD	0cH
	DD	FLAT:$L202480
$T202482 DD	019930520H
	DD	0fH
	DD	FLAT:$T202501
	DD	2 DUP(00H)
	DD	2 DUP(00H)
xdata$x	ENDS
;	COMDAT __real@3f947ae147ae147b
CONST	SEGMENT
__real@3f947ae147ae147b DQ 03f947ae147ae147br	; 0.02
CONST	ENDS
;	COMDAT __real@3fd0000000000000
CONST	SEGMENT
__real@3fd0000000000000 DQ 03fd0000000000000r	; 0.25
CONST	ENDS
;	COMDAT __real@3feb333333333333
CONST	SEGMENT
__real@3feb333333333333 DQ 03feb333333333333r	; 0.85
CONST	ENDS
;	COMDAT __real@3fe6666666666666
CONST	SEGMENT
__real@3fe6666666666666 DQ 03fe6666666666666r	; 0.7
CONST	ENDS
;	COMDAT __real@4000000000000000
CONST	SEGMENT
__real@4000000000000000 DQ 04000000000000000r	; 2
CONST	ENDS
;	COMDAT __real@3fe0000000000000
CONST	SEGMENT
__real@3fe0000000000000 DQ 03fe0000000000000r	; 0.5
CONST	ENDS
;	COMDAT __real@3fe199999999999a
CONST	SEGMENT
__real@3fe199999999999a DQ 03fe199999999999ar	; 0.55
CONST	ENDS
;	COMDAT __real@3fd999999999999a
CONST	SEGMENT
__real@3fd999999999999a DQ 03fd999999999999ar	; 0.4
; Function compile flags: /Odt
CONST	ENDS
_TEXT	SEGMENT
tv829 = -956						; size = 4
tv847 = -952						; size = 4
tv712 = -948						; size = 4
tv845 = -944						; size = 4
tv715 = -940						; size = 4
tv665 = -936						; size = 4
tv1034 = -932						; size = 4
tv1026 = -928						; size = 4
tv838 = -924						; size = 4
tv257 = -920						; size = 4
tv148 = -916						; size = 4
_this$ = -912						; size = 4
$T202463 = -908						; size = 4
$T202462 = -904						; size = 4
$T202461 = -900						; size = 4
$T202460 = -896						; size = 4
$T202457 = -892						; size = 8
$T202456 = -884						; size = 8
$T202455 = -876						; size = 8
$T202454 = -868						; size = 8
$T202453 = -860						; size = 8
$T202452 = -852						; size = 8
$T202451 = -844						; size = 8
$T202450 = -836						; size = 8
$T202449 = -828						; size = 8
$T202448 = -820						; size = 4
$T202445 = -816						; size = 4
$T202444 = -812						; size = 4
_graycol$198656 = -808					; size = 4
_offset$198654 = -804					; size = 16
_leftStr$198641 = -788					; size = 4
_iOldMode$198648 = -784					; size = 4
_rectt$198640 = -780					; size = 16
_rightStr$198642 = -764					; size = 4
_nFormatr$198650 = -760					; size = 4
_nFormat$198649 = -756					; size = 4
_tablocr$198643 = -752					; size = 4
_info$198635 = -748					; size = 48
_ptImage$198628 = -700					; size = 8
_brushin$198623 = -692					; size = 8
_ptImage$198624 = -684					; size = 8
_ptImage1$198615 = -676					; size = 8
_ptImage2$198616 = -668					; size = 8
_brushin$198611 = -660					; size = 8
_ptImage$198609 = -652					; size = 8
_transparentcol$198601 = -644				; size = 4
_bitmapstandard$198600 = -640				; size = 8
_ptImage$198597 = -632					; size = 8
_ptImage$198588 = -624					; size = 8
_pOldPen$198582 = -616					; size = 4
_pOldPen$198580 = -612					; size = 4
_m_brSelect$198543 = -608				; size = 8
_dx$198547 = -600					; size = 4
_state$198557 = -596					; size = 4
_crText$198538 = -592					; size = 4
_x0$198545 = -588					; size = 4
_global_offset$198551 = -584				; size = 4
_disabled_offset$198554 = -580				; size = 4
_nIconNormal$198549 = -576				; size = 4
_bitmap$198555 = -572					; size = 4
_selectedflag$198535 = -568				; size = 4
_xoffset$198550 = -564					; size = 4
_strText$198558 = -560					; size = 4
_standardflag$198534 = -556				; size = 4
_crSelectFill$198540 = -552				; size = 4
_shadow_offset$198553 = -548				; size = 4
_m_penBack$198544 = -544				; size = 8
_y0$198546 = -536					; size = 4
_disableflag$198536 = -532				; size = 4
_crSelect$198539 = -528					; size = 4
_dy$198548 = -524					; size = 4
_faded_offset$198552 = -520				; size = 4
_checkflag$198537 = -516				; size = 4
_CanDraw3D$198556 = -512				; size = 4
_nm$198529 = -508					; size = 340
_rect2$ = -164						; size = 16
_state$ = -148						; size = 4
_barwidth$ = -144					; size = 4
_m_newbrBackground$ = -140				; size = 8
_m_brBackground$ = -132					; size = 8
_BCMENU_PAD$ = -124					; size = 4
_m_clrBack$ = -120					; size = 4
_pDC$ = -116						; size = 4
_m_newclrBack$ = -112					; size = 4
_m_fontMenu$ = -108					; size = 8
_pFont$ = -100						; size = 4
_rect$ = -96						; size = 16
_m_lf$ = -80						; size = 60
__$ArrayPad$ = -20					; size = 4
_pMemDC$ = -16						; size = 4
__$EHRec$ = -12						; size = 12
__$ReturnAddr$ = 4					; size = 4
_lpDIS$ = 8						; size = 4
?DrawItem_WinXP@BCMenu@@IAEXPAUtagDRAWITEMSTRUCT@@@Z PROC NEAR ; BCMenu::DrawItem_WinXP
; _this$ = ecx

; 639  : {

  01a40	55		 push	 ebp
  01a41	8b ec		 mov	 ebp, esp
  01a43	6a ff		 push	 -1
  01a45	68 00 00 00 00	 push	 __ehhandler$?DrawItem_WinXP@BCMenu@@IAEXPAUtagDRAWITEMSTRUCT@@@Z
  01a4a	64 a1 00 00 00
	00		 mov	 eax, DWORD PTR fs:__except_list
  01a50	50		 push	 eax
  01a51	64 89 25 00 00
	00 00		 mov	 DWORD PTR fs:__except_list, esp
  01a58	81 ec b0 03 00
	00		 sub	 esp, 944		; 000003b0H
  01a5e	a1 00 00 00 00	 mov	 eax, DWORD PTR ___security_cookie
  01a63	89 45 ec	 mov	 DWORD PTR __$ArrayPad$[ebp], eax
  01a66	56		 push	 esi
  01a67	57		 push	 edi
  01a68	89 8d 70 fc ff
	ff		 mov	 DWORD PTR _this$[ebp], ecx

; 640  : 	ASSERT(lpDIS != NULL);
; 641  : 	CDC* pDC = CDC::FromHandle(lpDIS->hDC);

  01a6e	8b 45 08	 mov	 eax, DWORD PTR _lpDIS$[ebp]
  01a71	8b 48 18	 mov	 ecx, DWORD PTR [eax+24]
  01a74	51		 push	 ecx
  01a75	e8 00 00 00 00	 call	 ?FromHandle@CDC@@SGPAV1@PAUHDC__@@@Z ; CDC::FromHandle
  01a7a	89 45 8c	 mov	 DWORD PTR _pDC$[ebp], eax

; 642  : #ifdef BCMENU_USE_MEMDC
; 643  : 	BCMenuMemDC *pMemDC=NULL;

  01a7d	c7 45 f0 00 00
	00 00		 mov	 DWORD PTR _pMemDC$[ebp], 0

; 644  : #endif
; 645  : 	CRect rect,rect2;

  01a84	8d 4d a0	 lea	 ecx, DWORD PTR _rect$[ebp]
  01a87	e8 00 00 00 00	 call	 ??0CRect@@QAE@XZ	; CRect::CRect
  01a8c	8d 8d 5c ff ff
	ff		 lea	 ecx, DWORD PTR _rect2$[ebp]
  01a92	e8 00 00 00 00	 call	 ??0CRect@@QAE@XZ	; CRect::CRect

; 646  : 	UINT state = (((BCMenuData*)(lpDIS->itemData))->nFlags);

  01a97	8b 55 08	 mov	 edx, DWORD PTR _lpDIS$[ebp]
  01a9a	8b 42 2c	 mov	 eax, DWORD PTR [edx+44]
  01a9d	8b 48 10	 mov	 ecx, DWORD PTR [eax+16]
  01aa0	89 8d 6c ff ff
	ff		 mov	 DWORD PTR _state$[ebp], ecx

; 647  : //modified by vito--
; 648  : /*	COLORREF m_newclrBack=GetSysColor(COLOR_3DFACE);
; 649  : 	COLORREF m_clrBack=GetSysColor(COLOR_WINDOW);
; 650  : */
; 651  : 	COLORREF m_newclrBack=m_menuItemBitmapBkColor;

  01aa6	8b 95 70 fc ff
	ff		 mov	 edx, DWORD PTR _this$[ebp]
  01aac	8b 42 58	 mov	 eax, DWORD PTR [edx+88]
  01aaf	89 45 90	 mov	 DWORD PTR _m_newclrBack$[ebp], eax

; 652  : 	COLORREF m_clrBack=m_menuItemBkColor;

  01ab2	8b 8d 70 fc ff
	ff		 mov	 ecx, DWORD PTR _this$[ebp]
  01ab8	8b 51 54	 mov	 edx, DWORD PTR [ecx+84]
  01abb	89 55 88	 mov	 DWORD PTR _m_clrBack$[ebp], edx

; 653  : //--
; 654  : 	m_clrBack=DarkenColor(m_clrBack,0.02);

  01abe	dd 05 00 00 00
	00		 fld	 QWORD PTR __real@3f947ae147ae147b
  01ac4	83 ec 08	 sub	 esp, 8
  01ac7	dd 1c 24	 fstp	 QWORD PTR [esp]
  01aca	8b 45 88	 mov	 eax, DWORD PTR _m_clrBack$[ebp]
  01acd	50		 push	 eax
  01ace	e8 00 00 00 00	 call	 ?DarkenColor@BCMenu@@SAKKN@Z ; BCMenu::DarkenColor
  01ad3	83 c4 0c	 add	 esp, 12			; 0000000cH
  01ad6	89 45 88	 mov	 DWORD PTR _m_clrBack$[ebp], eax

; 655  : 	CFont m_fontMenu,*pFont=NULL;

  01ad9	8d 4d 94	 lea	 ecx, DWORD PTR _m_fontMenu$[ebp]
  01adc	e8 00 00 00 00	 call	 ??0CFont@@QAE@XZ	; CFont::CFont
  01ae1	c7 45 fc 00 00
	00 00		 mov	 DWORD PTR __$EHRec$[ebp+8], 0
  01ae8	c7 45 9c 00 00
	00 00		 mov	 DWORD PTR _pFont$[ebp], 0

; 656  : 	LOGFONT m_lf;
; 657  : 	if(!IsWinXPLuna())m_newclrBack=LightenColor(m_newclrBack,0.25);

  01aef	e8 00 00 00 00	 call	 ?IsWinXPLuna@BCMenu@@KAHXZ ; BCMenu::IsWinXPLuna
  01af4	85 c0		 test	 eax, eax
  01af6	75 1b		 jne	 SHORT $L198515
  01af8	dd 05 00 00 00
	00		 fld	 QWORD PTR __real@3fd0000000000000
  01afe	83 ec 08	 sub	 esp, 8
  01b01	dd 1c 24	 fstp	 QWORD PTR [esp]
  01b04	8b 4d 90	 mov	 ecx, DWORD PTR _m_newclrBack$[ebp]
  01b07	51		 push	 ecx
  01b08	e8 00 00 00 00	 call	 ?LightenColor@BCMenu@@SAKKN@Z ; BCMenu::LightenColor
  01b0d	83 c4 0c	 add	 esp, 12			; 0000000cH
  01b10	89 45 90	 mov	 DWORD PTR _m_newclrBack$[ebp], eax
$L198515:

; 658  : 	CBrush m_newbrBackground,m_brBackground;

  01b13	8d 8d 74 ff ff
	ff		 lea	 ecx, DWORD PTR _m_newbrBackground$[ebp]
  01b19	e8 00 00 00 00	 call	 ??0CBrush@@QAE@XZ	; CBrush::CBrush
  01b1e	c6 45 fc 01	 mov	 BYTE PTR __$EHRec$[ebp+8], 1
  01b22	8d 8d 7c ff ff
	ff		 lea	 ecx, DWORD PTR _m_brBackground$[ebp]
  01b28	e8 00 00 00 00	 call	 ??0CBrush@@QAE@XZ	; CBrush::CBrush
  01b2d	c6 45 fc 02	 mov	 BYTE PTR __$EHRec$[ebp+8], 2

; 659  : 	m_brBackground.CreateSolidBrush(m_clrBack);

  01b31	8b 55 88	 mov	 edx, DWORD PTR _m_clrBack$[ebp]
  01b34	52		 push	 edx
  01b35	8d 8d 7c ff ff
	ff		 lea	 ecx, DWORD PTR _m_brBackground$[ebp]
  01b3b	e8 00 00 00 00	 call	 ?CreateSolidBrush@CBrush@@QAEHK@Z ; CBrush::CreateSolidBrush

; 660  : 	m_newbrBackground.CreateSolidBrush(m_newclrBack);

  01b40	8b 45 90	 mov	 eax, DWORD PTR _m_newclrBack$[ebp]
  01b43	50		 push	 eax
  01b44	8d 8d 74 ff ff
	ff		 lea	 ecx, DWORD PTR _m_newbrBackground$[ebp]
  01b4a	e8 00 00 00 00	 call	 ?CreateSolidBrush@CBrush@@QAEHK@Z ; CBrush::CreateSolidBrush

; 661  : 	int BCMENU_PAD=4;

  01b4f	c7 45 84 04 00
	00 00		 mov	 DWORD PTR _BCMENU_PAD$[ebp], 4

; 662  : 	if(xp_draw_3D_bitmaps)BCMENU_PAD=7;

  01b56	83 3d 00 00 00
	00 00		 cmp	 DWORD PTR ?xp_draw_3D_bitmaps@BCMenu@@1HA, 0 ; BCMenu::xp_draw_3D_bitmaps
  01b5d	74 07		 je	 SHORT $L198519
  01b5f	c7 45 84 07 00
	00 00		 mov	 DWORD PTR _BCMENU_PAD$[ebp], 7
$L198519:

; 663  : 	int barwidth=m_iconX+BCMENU_PAD;

  01b66	8b 0d 00 00 00
	00		 mov	 ecx, DWORD PTR ?m_iconX@BCMenu@@1HA ; BCMenu::m_iconX
  01b6c	03 4d 84	 add	 ecx, DWORD PTR _BCMENU_PAD$[ebp]
  01b6f	89 8d 70 ff ff
	ff		 mov	 DWORD PTR _barwidth$[ebp], ecx

; 664  : 	
; 665  : 	// remove the selected bit if it's grayed out
; 666  : 	if(lpDIS->itemState & ODS_GRAYED&&!xp_select_disabled){

  01b75	8b 55 08	 mov	 edx, DWORD PTR _lpDIS$[ebp]
  01b78	8b 42 10	 mov	 eax, DWORD PTR [edx+16]
  01b7b	83 e0 02	 and	 eax, 2
  01b7e	0f 84 e8 00 00
	00		 je	 $L198521
  01b84	83 3d 00 00 00
	00 00		 cmp	 DWORD PTR ?xp_select_disabled@BCMenu@@1HA, 0 ; BCMenu::xp_select_disabled
  01b8b	0f 85 db 00 00
	00		 jne	 $L198521

; 667  : 		if(lpDIS->itemState & ODS_SELECTED)lpDIS->itemState=lpDIS->itemState & ~ODS_SELECTED;

  01b91	8b 4d 08	 mov	 ecx, DWORD PTR _lpDIS$[ebp]
  01b94	8b 51 10	 mov	 edx, DWORD PTR [ecx+16]
  01b97	83 e2 01	 and	 edx, 1
  01b9a	74 0f		 je	 SHORT $L198522
  01b9c	8b 45 08	 mov	 eax, DWORD PTR _lpDIS$[ebp]
  01b9f	8b 48 10	 mov	 ecx, DWORD PTR [eax+16]
  01ba2	83 e1 fe	 and	 ecx, -2			; fffffffeH
  01ba5	8b 55 08	 mov	 edx, DWORD PTR _lpDIS$[ebp]
  01ba8	89 4a 10	 mov	 DWORD PTR [edx+16], ecx
$L198522:

; 668  : #ifdef BCMENU_USE_MEMDC
; 669  : 		pMemDC=new BCMenuMemDC(pDC,&lpDIS->rcItem);

  01bab	6a 34		 push	 52			; 00000034H
  01bad	e8 00 00 00 00	 call	 ??2CObject@@SGPAXI@Z	; CObject::operator new
  01bb2	89 85 d0 fc ff
	ff		 mov	 DWORD PTR $T202445[ebp], eax
  01bb8	c6 45 fc 03	 mov	 BYTE PTR __$EHRec$[ebp+8], 3
  01bbc	83 bd d0 fc ff
	ff 00		 cmp	 DWORD PTR $T202445[ebp], 0
  01bc3	74 1e		 je	 SHORT $L202446
  01bc5	8b 45 08	 mov	 eax, DWORD PTR _lpDIS$[ebp]
  01bc8	83 c0 1c	 add	 eax, 28			; 0000001cH
  01bcb	50		 push	 eax
  01bcc	8b 4d 8c	 mov	 ecx, DWORD PTR _pDC$[ebp]
  01bcf	51		 push	 ecx
  01bd0	8b 8d d0 fc ff
	ff		 mov	 ecx, DWORD PTR $T202445[ebp]
  01bd6	e8 00 00 00 00	 call	 ??0BCMenuMemDC@@QAE@PAVCDC@@PBUtagRECT@@@Z ; BCMenuMemDC::BCMenuMemDC
  01bdb	89 85 6c fc ff
	ff		 mov	 DWORD PTR tv148[ebp], eax
  01be1	eb 0a		 jmp	 SHORT $L202447
$L202446:
  01be3	c7 85 6c fc ff
	ff 00 00 00 00	 mov	 DWORD PTR tv148[ebp], 0
$L202447:
  01bed	8b 95 6c fc ff
	ff		 mov	 edx, DWORD PTR tv148[ebp]
  01bf3	89 95 d4 fc ff
	ff		 mov	 DWORD PTR $T202444[ebp], edx
  01bf9	c6 45 fc 02	 mov	 BYTE PTR __$EHRec$[ebp+8], 2
  01bfd	8b 85 d4 fc ff
	ff		 mov	 eax, DWORD PTR $T202444[ebp]
  01c03	89 45 f0	 mov	 DWORD PTR _pMemDC$[ebp], eax

; 670  : 		pDC = pMemDC;

  01c06	8b 4d f0	 mov	 ecx, DWORD PTR _pMemDC$[ebp]
  01c09	89 4d 8c	 mov	 DWORD PTR _pDC$[ebp], ecx

; 671  : 		ZeroMemory ((PVOID) &m_lf,sizeof (LOGFONT));

  01c0c	6a 3c		 push	 60			; 0000003cH
  01c0e	6a 00		 push	 0
  01c10	8d 55 b0	 lea	 edx, DWORD PTR _m_lf$[ebp]
  01c13	52		 push	 edx
  01c14	e8 00 00 00 00	 call	 _memset
  01c19	83 c4 0c	 add	 esp, 12			; 0000000cH

; 672  : 		NONCLIENTMETRICS nm;
; 673  : 		nm.cbSize = sizeof (NONCLIENTMETRICS);

  01c1c	c7 85 04 fe ff
	ff 54 01 00 00	 mov	 DWORD PTR _nm$198529[ebp], 340 ; 00000154H

; 674  : 		VERIFY (SystemParametersInfo(SPI_GETNONCLIENTMETRICS,nm.cbSize,&nm,0)); 

  01c26	6a 00		 push	 0
  01c28	8d 85 04 fe ff
	ff		 lea	 eax, DWORD PTR _nm$198529[ebp]
  01c2e	50		 push	 eax
  01c2f	8b 8d 04 fe ff
	ff		 mov	 ecx, DWORD PTR _nm$198529[ebp]
  01c35	51		 push	 ecx
  01c36	6a 29		 push	 41			; 00000029H
  01c38	ff 15 00 00 00
	00		 call	 DWORD PTR __imp__SystemParametersInfoA@16

; 675  : 		m_lf =  nm.lfMenuFont;

  01c3e	b9 0f 00 00 00	 mov	 ecx, 15			; 0000000fH
  01c43	8d b5 a4 fe ff
	ff		 lea	 esi, DWORD PTR _nm$198529[ebp+160]
  01c49	8d 7d b0	 lea	 edi, DWORD PTR _m_lf$[ebp]
  01c4c	f3 a5		 rep movsd

; 676  : 		m_fontMenu.CreateFontIndirect (&m_lf);

  01c4e	8d 55 b0	 lea	 edx, DWORD PTR _m_lf$[ebp]
  01c51	52		 push	 edx
  01c52	8d 4d 94	 lea	 ecx, DWORD PTR _m_fontMenu$[ebp]
  01c55	e8 00 00 00 00	 call	 ?CreateFontIndirectA@CFont@@QAEHPBUtagLOGFONTA@@@Z ; CFont::CreateFontIndirectA

; 677  : 		pFont = pDC->SelectObject (&m_fontMenu);

  01c5a	8d 45 94	 lea	 eax, DWORD PTR _m_fontMenu$[ebp]
  01c5d	50		 push	 eax
  01c5e	8b 4d 8c	 mov	 ecx, DWORD PTR _pDC$[ebp]
  01c61	8b 11		 mov	 edx, DWORD PTR [ecx]
  01c63	8b 4d 8c	 mov	 ecx, DWORD PTR _pDC$[ebp]
  01c66	ff 52 30	 call	 DWORD PTR [edx+48]
  01c69	89 45 9c	 mov	 DWORD PTR _pFont$[ebp], eax
$L198521:

; 678  : #endif
; 679  : 
; 680  : 	}
; 681  : 	
; 682  : 	if(state & MF_SEPARATOR){

  01c6c	8b 85 6c ff ff
	ff		 mov	 eax, DWORD PTR _state$[ebp]
  01c72	25 00 08 00 00	 and	 eax, 2048		; 00000800H
  01c77	0f 84 b0 00 00
	00		 je	 $L198532

; 683  : 		rect.CopyRect(&lpDIS->rcItem);

  01c7d	8b 4d 08	 mov	 ecx, DWORD PTR _lpDIS$[ebp]
  01c80	83 c1 1c	 add	 ecx, 28			; 0000001cH
  01c83	51		 push	 ecx
  01c84	8d 4d a0	 lea	 ecx, DWORD PTR _rect$[ebp]
  01c87	e8 00 00 00 00	 call	 ?CopyRect@CRect@@QAEXPBUtagRECT@@@Z ; CRect::CopyRect

; 684  : 		pDC->FillRect (rect,&m_brBackground);

  01c8c	8d 95 7c ff ff
	ff		 lea	 edx, DWORD PTR _m_brBackground$[ebp]
  01c92	52		 push	 edx
  01c93	8d 4d a0	 lea	 ecx, DWORD PTR _rect$[ebp]
  01c96	e8 00 00 00 00	 call	 ??BCRect@@QAEPAUtagRECT@@XZ ; CRect::operator tagRECT *
  01c9b	50		 push	 eax
  01c9c	8b 4d 8c	 mov	 ecx, DWORD PTR _pDC$[ebp]
  01c9f	e8 00 00 00 00	 call	 ?FillRect@CDC@@QAEXPBUtagRECT@@PAVCBrush@@@Z ; CDC::FillRect

; 685  : 		rect2.SetRect(rect.left,rect.top,rect.left+barwidth,rect.bottom);

  01ca4	8b 45 ac	 mov	 eax, DWORD PTR _rect$[ebp+12]
  01ca7	50		 push	 eax
  01ca8	8b 4d a0	 mov	 ecx, DWORD PTR _rect$[ebp]
  01cab	03 8d 70 ff ff
	ff		 add	 ecx, DWORD PTR _barwidth$[ebp]
  01cb1	51		 push	 ecx
  01cb2	8b 55 a4	 mov	 edx, DWORD PTR _rect$[ebp+4]
  01cb5	52		 push	 edx
  01cb6	8b 45 a0	 mov	 eax, DWORD PTR _rect$[ebp]
  01cb9	50		 push	 eax
  01cba	8d 8d 5c ff ff
	ff		 lea	 ecx, DWORD PTR _rect2$[ebp]
  01cc0	e8 00 00 00 00	 call	 ?SetRect@CRect@@QAEXHHHH@Z ; CRect::SetRect

; 686  : 		rect.top+=rect.Height()>>1;

  01cc5	8d 4d a0	 lea	 ecx, DWORD PTR _rect$[ebp]
  01cc8	e8 00 00 00 00	 call	 ?Height@CRect@@QBEHXZ	; CRect::Height
  01ccd	d1 f8		 sar	 eax, 1
  01ccf	03 45 a4	 add	 eax, DWORD PTR _rect$[ebp+4]
  01cd2	89 45 a4	 mov	 DWORD PTR _rect$[ebp+4], eax

; 687  : 		rect.left = rect2.right+BCMENU_PAD;

  01cd5	8b 8d 64 ff ff
	ff		 mov	 ecx, DWORD PTR _rect2$[ebp+8]
  01cdb	03 4d 84	 add	 ecx, DWORD PTR _BCMENU_PAD$[ebp]
  01cde	89 4d a0	 mov	 DWORD PTR _rect$[ebp], ecx

; 688  : 		pDC->DrawEdge(&rect,EDGE_ETCHED,BF_TOP);

  01ce1	6a 02		 push	 2
  01ce3	6a 06		 push	 6
  01ce5	8d 55 a0	 lea	 edx, DWORD PTR _rect$[ebp]
  01ce8	52		 push	 edx
  01ce9	8b 4d 8c	 mov	 ecx, DWORD PTR _pDC$[ebp]
  01cec	e8 00 00 00 00	 call	 ?DrawEdge@CDC@@QAEHPAUtagRECT@@II@Z ; CDC::DrawEdge

; 689  : 		pDC->FillRect (rect2,&m_newbrBackground);

  01cf1	8d 85 74 ff ff
	ff		 lea	 eax, DWORD PTR _m_newbrBackground$[ebp]
  01cf7	50		 push	 eax
  01cf8	8d 8d 5c ff ff
	ff		 lea	 ecx, DWORD PTR _rect2$[ebp]
  01cfe	e8 00 00 00 00	 call	 ??BCRect@@QAEPAUtagRECT@@XZ ; CRect::operator tagRECT *
  01d03	50		 push	 eax
  01d04	8b 4d 8c	 mov	 ecx, DWORD PTR _pDC$[ebp]
  01d07	e8 00 00 00 00	 call	 ?FillRect@CDC@@QAEXPBUtagRECT@@PAVCBrush@@@Z ; CDC::FillRect

; 690  : 		pDC->Draw3dRect (rect2,m_newclrBack,m_newclrBack);

  01d0c	8b 4d 90	 mov	 ecx, DWORD PTR _m_newclrBack$[ebp]
  01d0f	51		 push	 ecx
  01d10	8b 55 90	 mov	 edx, DWORD PTR _m_newclrBack$[ebp]
  01d13	52		 push	 edx
  01d14	8d 8d 5c ff ff
	ff		 lea	 ecx, DWORD PTR _rect2$[ebp]
  01d1a	e8 00 00 00 00	 call	 ??BCRect@@QAEPAUtagRECT@@XZ ; CRect::operator tagRECT *
  01d1f	50		 push	 eax
  01d20	8b 4d 8c	 mov	 ecx, DWORD PTR _pDC$[ebp]
  01d23	e8 00 00 00 00	 call	 ?Draw3dRect@CDC@@QAEXPBUtagRECT@@KK@Z ; CDC::Draw3dRect

; 691  : 	}
; 692  : 	else{

  01d28	e9 b3 10 00 00	 jmp	 $L198533
$L198532:

; 693  : 		BOOL standardflag=FALSE,selectedflag=FALSE,disableflag=FALSE;

  01d2d	c7 85 d4 fd ff
	ff 00 00 00 00	 mov	 DWORD PTR _standardflag$198534[ebp], 0
  01d37	c7 85 c8 fd ff
	ff 00 00 00 00	 mov	 DWORD PTR _selectedflag$198535[ebp], 0
  01d41	c7 85 ec fd ff
	ff 00 00 00 00	 mov	 DWORD PTR _disableflag$198536[ebp], 0

; 694  : 		BOOL checkflag=FALSE;

  01d4b	c7 85 fc fd ff
	ff 00 00 00 00	 mov	 DWORD PTR _checkflag$198537[ebp], 0

; 695  : 		COLORREF crText ;
; 696  : 		crText = m_menuItemTextColor;

  01d55	8b 85 70 fc ff
	ff		 mov	 eax, DWORD PTR _this$[ebp]
  01d5b	8b 48 5c	 mov	 ecx, DWORD PTR [eax+92]
  01d5e	89 8d b0 fd ff
	ff		 mov	 DWORD PTR _crText$198538[ebp], ecx

; 697  : 		
; 698  : 		
; 699  : 		COLORREF crSelect = m_menuItemSelectBKColor;

  01d64	8b 95 70 fc ff
	ff		 mov	 edx, DWORD PTR _this$[ebp]
  01d6a	8b 42 60	 mov	 eax, DWORD PTR [edx+96]
  01d6d	89 85 f0 fd ff
	ff		 mov	 DWORD PTR _crSelect$198539[ebp], eax

; 700  : 		COLORREF crSelectFill;
; 701  : 		if(!IsWinXPLuna())crSelectFill=LightenColor(crSelect,0.85);

  01d73	e8 00 00 00 00	 call	 ?IsWinXPLuna@BCMenu@@KAHXZ ; BCMenu::IsWinXPLuna
  01d78	85 c0		 test	 eax, eax
  01d7a	75 23		 jne	 SHORT $L198541
  01d7c	dd 05 00 00 00
	00		 fld	 QWORD PTR __real@3feb333333333333
  01d82	83 ec 08	 sub	 esp, 8
  01d85	dd 1c 24	 fstp	 QWORD PTR [esp]
  01d88	8b 8d f0 fd ff
	ff		 mov	 ecx, DWORD PTR _crSelect$198539[ebp]
  01d8e	51		 push	 ecx
  01d8f	e8 00 00 00 00	 call	 ?LightenColor@BCMenu@@SAKKN@Z ; BCMenu::LightenColor
  01d94	83 c4 0c	 add	 esp, 12			; 0000000cH
  01d97	89 85 d8 fd ff
	ff		 mov	 DWORD PTR _crSelectFill$198540[ebp], eax

; 702  : 		else crSelectFill=LightenColor(crSelect,0.7);

  01d9d	eb 21		 jmp	 SHORT $L198542
$L198541:
  01d9f	dd 05 00 00 00
	00		 fld	 QWORD PTR __real@3fe6666666666666
  01da5	83 ec 08	 sub	 esp, 8
  01da8	dd 1c 24	 fstp	 QWORD PTR [esp]
  01dab	8b 95 f0 fd ff
	ff		 mov	 edx, DWORD PTR _crSelect$198539[ebp]
  01db1	52		 push	 edx
  01db2	e8 00 00 00 00	 call	 ?LightenColor@BCMenu@@SAKKN@Z ; BCMenu::LightenColor
  01db7	83 c4 0c	 add	 esp, 12			; 0000000cH
  01dba	89 85 d8 fd ff
	ff		 mov	 DWORD PTR _crSelectFill$198540[ebp], eax
$L198542:

; 703  : 		CBrush m_brSelect;

  01dc0	8d 8d a0 fd ff
	ff		 lea	 ecx, DWORD PTR _m_brSelect$198543[ebp]
  01dc6	e8 00 00 00 00	 call	 ??0CBrush@@QAE@XZ	; CBrush::CBrush
  01dcb	c6 45 fc 04	 mov	 BYTE PTR __$EHRec$[ebp+8], 4

; 704  : 		CPen m_penBack;

  01dcf	8d 8d e0 fd ff
	ff		 lea	 ecx, DWORD PTR _m_penBack$198544[ebp]
  01dd5	e8 00 00 00 00	 call	 ??0CPen@@QAE@XZ		; CPen::CPen
  01dda	c6 45 fc 05	 mov	 BYTE PTR __$EHRec$[ebp+8], 5

; 705  : 		int x0,y0,dx,dy;
; 706  : 		int nIconNormal=-1,xoffset=-1,global_offset=-1;

  01dde	c7 85 c0 fd ff
	ff ff ff ff ff	 mov	 DWORD PTR _nIconNormal$198549[ebp], -1
  01de8	c7 85 cc fd ff
	ff ff ff ff ff	 mov	 DWORD PTR _xoffset$198550[ebp], -1
  01df2	c7 85 b8 fd ff
	ff ff ff ff ff	 mov	 DWORD PTR _global_offset$198551[ebp], -1

; 707  : 		int faded_offset=1,shadow_offset=2,disabled_offset=3;

  01dfc	c7 85 f8 fd ff
	ff 01 00 00 00	 mov	 DWORD PTR _faded_offset$198552[ebp], 1
  01e06	c7 85 dc fd ff
	ff 02 00 00 00	 mov	 DWORD PTR _shadow_offset$198553[ebp], 2
  01e10	c7 85 bc fd ff
	ff 03 00 00 00	 mov	 DWORD PTR _disabled_offset$198554[ebp], 3

; 708  : 		CImageList *bitmap=NULL;

  01e1a	c7 85 c4 fd ff
	ff 00 00 00 00	 mov	 DWORD PTR _bitmap$198555[ebp], 0

; 709  : 		BOOL CanDraw3D=FALSE;

  01e24	c7 85 00 fe ff
	ff 00 00 00 00	 mov	 DWORD PTR _CanDraw3D$198556[ebp], 0

; 710  : 		
; 711  : 		// set some colors
; 712  : 		m_penBack.CreatePen (PS_SOLID,0,m_clrBack);

  01e2e	8b 45 88	 mov	 eax, DWORD PTR _m_clrBack$[ebp]
  01e31	50		 push	 eax
  01e32	6a 00		 push	 0
  01e34	6a 00		 push	 0
  01e36	8d 8d e0 fd ff
	ff		 lea	 ecx, DWORD PTR _m_penBack$198544[ebp]
  01e3c	e8 00 00 00 00	 call	 ?CreatePen@CPen@@QAEHHHK@Z ; CPen::CreatePen

; 713  : 		m_brSelect.CreateSolidBrush(crSelectFill);

  01e41	8b 8d d8 fd ff
	ff		 mov	 ecx, DWORD PTR _crSelectFill$198540[ebp]
  01e47	51		 push	 ecx
  01e48	8d 8d a0 fd ff
	ff		 lea	 ecx, DWORD PTR _m_brSelect$198543[ebp]
  01e4e	e8 00 00 00 00	 call	 ?CreateSolidBrush@CBrush@@QAEHK@Z ; CBrush::CreateSolidBrush

; 714  : 		
; 715  : 		// draw the colored rectangle portion
; 716  : 		
; 717  : 		rect.CopyRect(&lpDIS->rcItem);

  01e53	8b 55 08	 mov	 edx, DWORD PTR _lpDIS$[ebp]
  01e56	83 c2 1c	 add	 edx, 28			; 0000001cH
  01e59	52		 push	 edx
  01e5a	8d 4d a0	 lea	 ecx, DWORD PTR _rect$[ebp]
  01e5d	e8 00 00 00 00	 call	 ?CopyRect@CRect@@QAEXPBUtagRECT@@@Z ; CRect::CopyRect

; 718  : 		rect2=rect;

  01e62	8b 45 a0	 mov	 eax, DWORD PTR _rect$[ebp]
  01e65	89 85 5c ff ff
	ff		 mov	 DWORD PTR _rect2$[ebp], eax
  01e6b	8b 4d a4	 mov	 ecx, DWORD PTR _rect$[ebp+4]
  01e6e	89 8d 60 ff ff
	ff		 mov	 DWORD PTR _rect2$[ebp+4], ecx
  01e74	8b 55 a8	 mov	 edx, DWORD PTR _rect$[ebp+8]
  01e77	89 95 64 ff ff
	ff		 mov	 DWORD PTR _rect2$[ebp+8], edx
  01e7d	8b 45 ac	 mov	 eax, DWORD PTR _rect$[ebp+12]
  01e80	89 85 68 ff ff
	ff		 mov	 DWORD PTR _rect2$[ebp+12], eax

; 719  : 		
; 720  : 		// draw the up/down/focused/disabled state
; 721  : 		
; 722  : 		UINT state = lpDIS->itemState;

  01e86	8b 4d 08	 mov	 ecx, DWORD PTR _lpDIS$[ebp]
  01e89	8b 51 10	 mov	 edx, DWORD PTR [ecx+16]
  01e8c	89 95 ac fd ff
	ff		 mov	 DWORD PTR _state$198557[ebp], edx

; 723  : 		CString strText;

  01e92	8d 8d d0 fd ff
	ff		 lea	 ecx, DWORD PTR _strText$198558[ebp]
  01e98	ff 15 00 00 00
	00		 call	 DWORD PTR __imp_??0?$CStringT@DV?$StrTraitMFC_DLL@DV?$ChTraitsCRT@D@ATL@@@@@ATL@@QAE@XZ
  01e9e	c6 45 fc 06	 mov	 BYTE PTR __$EHRec$[ebp+8], 6

; 724  : 		
; 725  : 		if(lpDIS->itemData != NULL){

  01ea2	8b 45 08	 mov	 eax, DWORD PTR _lpDIS$[ebp]
  01ea5	83 78 2c 00	 cmp	 DWORD PTR [eax+44], 0
  01ea9	0f 84 ec 01 00
	00		 je	 $L198559

; 726  : 			nIconNormal = (((BCMenuData*)(lpDIS->itemData))->menuIconNormal);

  01eaf	8b 4d 08	 mov	 ecx, DWORD PTR _lpDIS$[ebp]
  01eb2	8b 51 2c	 mov	 edx, DWORD PTR [ecx+44]
  01eb5	8b 42 0c	 mov	 eax, DWORD PTR [edx+12]
  01eb8	89 85 c0 fd ff
	ff		 mov	 DWORD PTR _nIconNormal$198549[ebp], eax

; 727  : 			xoffset = (((BCMenuData*)(lpDIS->itemData))->xoffset);

  01ebe	8b 4d 08	 mov	 ecx, DWORD PTR _lpDIS$[ebp]
  01ec1	8b 51 2c	 mov	 edx, DWORD PTR [ecx+44]
  01ec4	8b 42 04	 mov	 eax, DWORD PTR [edx+4]
  01ec7	89 85 cc fd ff
	ff		 mov	 DWORD PTR _xoffset$198550[ebp], eax

; 728  : 			bitmap = (((BCMenuData*)(lpDIS->itemData))->bitmap);

  01ecd	8b 4d 08	 mov	 ecx, DWORD PTR _lpDIS$[ebp]
  01ed0	8b 51 2c	 mov	 edx, DWORD PTR [ecx+44]
  01ed3	8b 42 1c	 mov	 eax, DWORD PTR [edx+28]
  01ed6	89 85 c4 fd ff
	ff		 mov	 DWORD PTR _bitmap$198555[ebp], eax

; 729  : 			strText = ((BCMenuData*) (lpDIS->itemData))->GetString();

  01edc	8d 8d cc fc ff
	ff		 lea	 ecx, DWORD PTR $T202448[ebp]
  01ee2	51		 push	 ecx
  01ee3	8b 55 08	 mov	 edx, DWORD PTR _lpDIS$[ebp]
  01ee6	8b 4a 2c	 mov	 ecx, DWORD PTR [edx+44]
  01ee9	e8 00 00 00 00	 call	 ?GetString@BCMenuData@@QAE?AV?$CStringT@DV?$StrTraitMFC_DLL@DV?$ChTraitsCRT@D@ATL@@@@@ATL@@XZ ; BCMenuData::GetString
  01eee	89 85 68 fc ff
	ff		 mov	 DWORD PTR tv257[ebp], eax
  01ef4	8b 85 68 fc ff
	ff		 mov	 eax, DWORD PTR tv257[ebp]
  01efa	89 85 64 fc ff
	ff		 mov	 DWORD PTR tv838[ebp], eax
  01f00	c6 45 fc 07	 mov	 BYTE PTR __$EHRec$[ebp+8], 7
  01f04	8b 8d 64 fc ff
	ff		 mov	 ecx, DWORD PTR tv838[ebp]
  01f0a	51		 push	 ecx
  01f0b	8d 8d d0 fd ff
	ff		 lea	 ecx, DWORD PTR _strText$198558[ebp]
  01f11	ff 15 00 00 00
	00		 call	 DWORD PTR __imp_??4?$CStringT@DV?$StrTraitMFC_DLL@DV?$ChTraitsCRT@D@ATL@@@@@ATL@@QAEAAV01@ABV01@@Z
  01f17	c6 45 fc 06	 mov	 BYTE PTR __$EHRec$[ebp+8], 6
  01f1b	8d 8d cc fc ff
	ff		 lea	 ecx, DWORD PTR $T202448[ebp]
  01f21	ff 15 00 00 00
	00		 call	 DWORD PTR __imp_??1?$CStringT@DV?$StrTraitMFC_DLL@DV?$ChTraitsCRT@D@ATL@@@@@ATL@@QAE@XZ

; 730  : 			global_offset = (((BCMenuData*)(lpDIS->itemData))->global_offset);

  01f27	8b 55 08	 mov	 edx, DWORD PTR _lpDIS$[ebp]
  01f2a	8b 42 2c	 mov	 eax, DWORD PTR [edx+44]
  01f2d	8b 48 08	 mov	 ecx, DWORD PTR [eax+8]
  01f30	89 8d b8 fd ff
	ff		 mov	 DWORD PTR _global_offset$198551[ebp], ecx

; 731  : 
; 732  : 			if(xoffset==0&&xp_draw_3D_bitmaps&&bitmap&&bitmap->GetImageCount()>2)CanDraw3D=TRUE;

  01f36	83 bd cc fd ff
	ff 00		 cmp	 DWORD PTR _xoffset$198550[ebp], 0
  01f3d	75 2c		 jne	 SHORT $L198566
  01f3f	83 3d 00 00 00
	00 00		 cmp	 DWORD PTR ?xp_draw_3D_bitmaps@BCMenu@@1HA, 0 ; BCMenu::xp_draw_3D_bitmaps
  01f46	74 23		 je	 SHORT $L198566
  01f48	83 bd c4 fd ff
	ff 00		 cmp	 DWORD PTR _bitmap$198555[ebp], 0
  01f4f	74 1a		 je	 SHORT $L198566
  01f51	8b 8d c4 fd ff
	ff		 mov	 ecx, DWORD PTR _bitmap$198555[ebp]
  01f57	e8 00 00 00 00	 call	 ?GetImageCount@CImageList@@QBEHXZ ; CImageList::GetImageCount
  01f5c	83 f8 02	 cmp	 eax, 2
  01f5f	7e 0a		 jle	 SHORT $L198566
  01f61	c7 85 00 fe ff
	ff 01 00 00 00	 mov	 DWORD PTR _CanDraw3D$198556[ebp], 1
$L198566:

; 733  : 
; 734  : 			if(nIconNormal<0&&xoffset<0&&global_offset>=0){

  01f6b	83 bd c0 fd ff
	ff 00		 cmp	 DWORD PTR _nIconNormal$198549[ebp], 0
  01f72	0f 8d 88 00 00
	00		 jge	 $L198567
  01f78	83 bd cc fd ff
	ff 00		 cmp	 DWORD PTR _xoffset$198550[ebp], 0
  01f7f	7d 7f		 jge	 SHORT $L198567
  01f81	83 bd b8 fd ff
	ff 00		 cmp	 DWORD PTR _global_offset$198551[ebp], 0
  01f88	7c 76		 jl	 SHORT $L198567

; 735  : 				xoffset=global_offset;

  01f8a	8b 95 b8 fd ff
	ff		 mov	 edx, DWORD PTR _global_offset$198551[ebp]
  01f90	89 95 cc fd ff
	ff		 mov	 DWORD PTR _xoffset$198550[ebp], edx

; 736  : 				nIconNormal=0;

  01f96	c7 85 c0 fd ff
	ff 00 00 00 00	 mov	 DWORD PTR _nIconNormal$198549[ebp], 0

; 737  : 				bitmap = &m_AllImages;

  01fa0	c7 85 c4 fd ff
	ff 00 00 00 00	 mov	 DWORD PTR _bitmap$198555[ebp], OFFSET FLAT:?m_AllImages@BCMenu@@1VCImageList@@A ; BCMenu::m_AllImages

; 738  : 				if(xp_draw_3D_bitmaps&&CanDraw3DImageList(global_offset)){

  01faa	83 3d 00 00 00
	00 00		 cmp	 DWORD PTR ?xp_draw_3D_bitmaps@BCMenu@@1HA, 0 ; BCMenu::xp_draw_3D_bitmaps
  01fb1	74 4d		 je	 SHORT $L198567
  01fb3	8b 85 b8 fd ff
	ff		 mov	 eax, DWORD PTR _global_offset$198551[ebp]
  01fb9	50		 push	 eax
  01fba	8b 8d 70 fc ff
	ff		 mov	 ecx, DWORD PTR _this$[ebp]
  01fc0	e8 00 00 00 00	 call	 ?CanDraw3DImageList@BCMenu@@IAEHH@Z ; BCMenu::CanDraw3DImageList
  01fc5	85 c0		 test	 eax, eax
  01fc7	74 37		 je	 SHORT $L198567

; 739  : 					CanDraw3D=TRUE;

  01fc9	c7 85 00 fe ff
	ff 01 00 00 00	 mov	 DWORD PTR _CanDraw3D$198556[ebp], 1

; 740  : 					faded_offset=global_offset+1;

  01fd3	8b 8d b8 fd ff
	ff		 mov	 ecx, DWORD PTR _global_offset$198551[ebp]
  01fd9	83 c1 01	 add	 ecx, 1
  01fdc	89 8d f8 fd ff
	ff		 mov	 DWORD PTR _faded_offset$198552[ebp], ecx

; 741  : 					shadow_offset=global_offset+2;

  01fe2	8b 95 b8 fd ff
	ff		 mov	 edx, DWORD PTR _global_offset$198551[ebp]
  01fe8	83 c2 02	 add	 edx, 2
  01feb	89 95 dc fd ff
	ff		 mov	 DWORD PTR _shadow_offset$198553[ebp], edx

; 742  : 					disabled_offset=global_offset+3;

  01ff1	8b 85 b8 fd ff
	ff		 mov	 eax, DWORD PTR _global_offset$198551[ebp]
  01ff7	83 c0 03	 add	 eax, 3
  01ffa	89 85 bc fd ff
	ff		 mov	 DWORD PTR _disabled_offset$198554[ebp], eax
$L198567:

; 743  : 				}
; 744  : 			}
; 745  : 
; 746  : 			
; 747  : 			if(state&ODS_CHECKED && nIconNormal<0){

  02000	8b 8d ac fd ff
	ff		 mov	 ecx, DWORD PTR _state$198557[ebp]
  02006	83 e1 08	 and	 ecx, 8
  02009	74 44		 je	 SHORT $L198569
  0200b	83 bd c0 fd ff
	ff 00		 cmp	 DWORD PTR _nIconNormal$198549[ebp], 0
  02012	7d 3b		 jge	 SHORT $L198569

; 748  : 				if(state&ODS_SELECTED && m_selectcheck>0)checkflag=TRUE;

  02014	8b 95 ac fd ff
	ff		 mov	 edx, DWORD PTR _state$198557[ebp]
  0201a	83 e2 01	 and	 edx, 1
  0201d	74 18		 je	 SHORT $L198570
  0201f	8b 85 70 fc ff
	ff		 mov	 eax, DWORD PTR _this$[ebp]
  02025	83 78 44 00	 cmp	 DWORD PTR [eax+68], 0
  02029	7e 0c		 jle	 SHORT $L198570
  0202b	c7 85 fc fd ff
	ff 01 00 00 00	 mov	 DWORD PTR _checkflag$198537[ebp], 1

; 749  : 				else if(m_unselectcheck>0) checkflag=TRUE;

  02035	eb 16		 jmp	 SHORT $L198571
$L198570:
  02037	8b 8d 70 fc ff
	ff		 mov	 ecx, DWORD PTR _this$[ebp]
  0203d	83 79 48 00	 cmp	 DWORD PTR [ecx+72], 0
  02041	7e 0a		 jle	 SHORT $L198571
  02043	c7 85 fc fd ff
	ff 01 00 00 00	 mov	 DWORD PTR _checkflag$198537[ebp], 1
$L198571:

; 750  : 			}
; 751  : 			else if(nIconNormal != -1){

  0204d	eb 4a		 jmp	 SHORT $L198573
$L198569:
  0204f	83 bd c0 fd ff
	ff ff		 cmp	 DWORD PTR _nIconNormal$198549[ebp], -1
  02056	74 41		 je	 SHORT $L198573

; 752  : 				standardflag=TRUE;

  02058	c7 85 d4 fd ff
	ff 01 00 00 00	 mov	 DWORD PTR _standardflag$198534[ebp], 1

; 753  : 				if(state&ODS_SELECTED && !(state&ODS_GRAYED))selectedflag=TRUE;

  02062	8b 95 ac fd ff
	ff		 mov	 edx, DWORD PTR _state$198557[ebp]
  02068	83 e2 01	 and	 edx, 1
  0206b	74 17		 je	 SHORT $L198575
  0206d	8b 85 ac fd ff
	ff		 mov	 eax, DWORD PTR _state$198557[ebp]
  02073	83 e0 02	 and	 eax, 2
  02076	75 0c		 jne	 SHORT $L198575
  02078	c7 85 c8 fd ff
	ff 01 00 00 00	 mov	 DWORD PTR _selectedflag$198535[ebp], 1

; 754  : 				else if(state&ODS_GRAYED) disableflag=TRUE;

  02082	eb 15		 jmp	 SHORT $L198573
$L198575:
  02084	8b 8d ac fd ff
	ff		 mov	 ecx, DWORD PTR _state$198557[ebp]
  0208a	83 e1 02	 and	 ecx, 2
  0208d	74 0a		 je	 SHORT $L198573
  0208f	c7 85 ec fd ff
	ff 01 00 00 00	 mov	 DWORD PTR _disableflag$198536[ebp], 1
$L198573:

; 755  : 			}
; 756  : 		}
; 757  : 		else{

  02099	eb 0c		 jmp	 SHORT $L198578
$L198559:

; 758  : 			strText.Empty();

  0209b	8d 8d d0 fd ff
	ff		 lea	 ecx, DWORD PTR _strText$198558[ebp]
  020a1	ff 15 00 00 00
	00		 call	 DWORD PTR __imp_?Empty@?$CSimpleStringT@D$00@ATL@@QAEXXZ
$L198578:

; 759  : 		}
; 760  : 		
; 761  : 		if(state&ODS_SELECTED){ // draw the down edges

  020a7	8b 95 ac fd ff
	ff		 mov	 edx, DWORD PTR _state$198557[ebp]
  020ad	83 e2 01	 and	 edx, 1
  020b0	74 60		 je	 SHORT $L198579

; 762  : 			
; 763  : 			CPen *pOldPen = pDC->SelectObject (&m_penBack);

  020b2	8d 85 e0 fd ff
	ff		 lea	 eax, DWORD PTR _m_penBack$198544[ebp]
  020b8	50		 push	 eax
  020b9	8b 4d 8c	 mov	 ecx, DWORD PTR _pDC$[ebp]
  020bc	e8 00 00 00 00	 call	 ?SelectObject@CDC@@QAEPAVCPen@@PAV2@@Z ; CDC::SelectObject
  020c1	89 85 9c fd ff
	ff		 mov	 DWORD PTR _pOldPen$198580[ebp], eax

; 764  : 			
; 765  : 			pDC->FillRect (rect,&m_brSelect);

  020c7	8d 8d a0 fd ff
	ff		 lea	 ecx, DWORD PTR _m_brSelect$198543[ebp]
  020cd	51		 push	 ecx
  020ce	8d 4d a0	 lea	 ecx, DWORD PTR _rect$[ebp]
  020d1	e8 00 00 00 00	 call	 ??BCRect@@QAEPAUtagRECT@@XZ ; CRect::operator tagRECT *
  020d6	50		 push	 eax
  020d7	8b 4d 8c	 mov	 ecx, DWORD PTR _pDC$[ebp]
  020da	e8 00 00 00 00	 call	 ?FillRect@CDC@@QAEXPBUtagRECT@@PAVCBrush@@@Z ; CDC::FillRect

; 766  : 			pDC->Draw3dRect (rect,crSelect,crSelect);

  020df	8b 95 f0 fd ff
	ff		 mov	 edx, DWORD PTR _crSelect$198539[ebp]
  020e5	52		 push	 edx
  020e6	8b 85 f0 fd ff
	ff		 mov	 eax, DWORD PTR _crSelect$198539[ebp]
  020ec	50		 push	 eax
  020ed	8d 4d a0	 lea	 ecx, DWORD PTR _rect$[ebp]
  020f0	e8 00 00 00 00	 call	 ??BCRect@@QAEPAUtagRECT@@XZ ; CRect::operator tagRECT *
  020f5	50		 push	 eax
  020f6	8b 4d 8c	 mov	 ecx, DWORD PTR _pDC$[ebp]
  020f9	e8 00 00 00 00	 call	 ?Draw3dRect@CDC@@QAEXPBUtagRECT@@KK@Z ; CDC::Draw3dRect

; 767  : 			
; 768  : 			pDC->SelectObject (pOldPen);

  020fe	8b 8d 9c fd ff
	ff		 mov	 ecx, DWORD PTR _pOldPen$198580[ebp]
  02104	51		 push	 ecx
  02105	8b 4d 8c	 mov	 ecx, DWORD PTR _pDC$[ebp]
  02108	e8 00 00 00 00	 call	 ?SelectObject@CDC@@QAEPAVCPen@@PAV2@@Z ; CDC::SelectObject

; 769  : 		}
; 770  : 		else {

  0210d	e9 ad 00 00 00	 jmp	 $L198581
$L198579:

; 771  : 			rect2.SetRect(rect.left,rect.top,rect.left+barwidth,rect.bottom);

  02112	8b 55 ac	 mov	 edx, DWORD PTR _rect$[ebp+12]
  02115	52		 push	 edx
  02116	8b 45 a0	 mov	 eax, DWORD PTR _rect$[ebp]
  02119	03 85 70 ff ff
	ff		 add	 eax, DWORD PTR _barwidth$[ebp]
  0211f	50		 push	 eax
  02120	8b 4d a4	 mov	 ecx, DWORD PTR _rect$[ebp+4]
  02123	51		 push	 ecx
  02124	8b 55 a0	 mov	 edx, DWORD PTR _rect$[ebp]
  02127	52		 push	 edx
  02128	8d 8d 5c ff ff
	ff		 lea	 ecx, DWORD PTR _rect2$[ebp]
  0212e	e8 00 00 00 00	 call	 ?SetRect@CRect@@QAEXHHHH@Z ; CRect::SetRect

; 772  : 			CPen *pOldPen = pDC->SelectObject (&m_penBack);

  02133	8d 85 e0 fd ff
	ff		 lea	 eax, DWORD PTR _m_penBack$198544[ebp]
  02139	50		 push	 eax
  0213a	8b 4d 8c	 mov	 ecx, DWORD PTR _pDC$[ebp]
  0213d	e8 00 00 00 00	 call	 ?SelectObject@CDC@@QAEPAVCPen@@PAV2@@Z ; CDC::SelectObject
  02142	89 85 98 fd ff
	ff		 mov	 DWORD PTR _pOldPen$198582[ebp], eax

; 773  : 			pDC->FillRect (rect,&m_brBackground);

  02148	8d 8d 7c ff ff
	ff		 lea	 ecx, DWORD PTR _m_brBackground$[ebp]
  0214e	51		 push	 ecx
  0214f	8d 4d a0	 lea	 ecx, DWORD PTR _rect$[ebp]
  02152	e8 00 00 00 00	 call	 ??BCRect@@QAEPAUtagRECT@@XZ ; CRect::operator tagRECT *
  02157	50		 push	 eax
  02158	8b 4d 8c	 mov	 ecx, DWORD PTR _pDC$[ebp]
  0215b	e8 00 00 00 00	 call	 ?FillRect@CDC@@QAEXPBUtagRECT@@PAVCBrush@@@Z ; CDC::FillRect

; 774  : 			pDC->FillRect (rect2,&m_newbrBackground);

  02160	8d 95 74 ff ff
	ff		 lea	 edx, DWORD PTR _m_newbrBackground$[ebp]
  02166	52		 push	 edx
  02167	8d 8d 5c ff ff
	ff		 lea	 ecx, DWORD PTR _rect2$[ebp]
  0216d	e8 00 00 00 00	 call	 ??BCRect@@QAEPAUtagRECT@@XZ ; CRect::operator tagRECT *
  02172	50		 push	 eax
  02173	8b 4d 8c	 mov	 ecx, DWORD PTR _pDC$[ebp]
  02176	e8 00 00 00 00	 call	 ?FillRect@CDC@@QAEXPBUtagRECT@@PAVCBrush@@@Z ; CDC::FillRect

; 775  : 			pDC->SelectObject (pOldPen);

  0217b	8b 85 98 fd ff
	ff		 mov	 eax, DWORD PTR _pOldPen$198582[ebp]
  02181	50		 push	 eax
  02182	8b 4d 8c	 mov	 ecx, DWORD PTR _pDC$[ebp]
  02185	e8 00 00 00 00	 call	 ?SelectObject@CDC@@QAEPAVCPen@@PAV2@@Z ; CDC::SelectObject

; 776  : 			
; 777  : 			// draw the up edges
; 778  : 			
; 779  : 			pDC->Draw3dRect (rect,m_clrBack,m_clrBack);

  0218a	8b 4d 88	 mov	 ecx, DWORD PTR _m_clrBack$[ebp]
  0218d	51		 push	 ecx
  0218e	8b 55 88	 mov	 edx, DWORD PTR _m_clrBack$[ebp]
  02191	52		 push	 edx
  02192	8d 4d a0	 lea	 ecx, DWORD PTR _rect$[ebp]
  02195	e8 00 00 00 00	 call	 ??BCRect@@QAEPAUtagRECT@@XZ ; CRect::operator tagRECT *
  0219a	50		 push	 eax
  0219b	8b 4d 8c	 mov	 ecx, DWORD PTR _pDC$[ebp]
  0219e	e8 00 00 00 00	 call	 ?Draw3dRect@CDC@@QAEXPBUtagRECT@@KK@Z ; CDC::Draw3dRect

; 780  : 			pDC->Draw3dRect (rect2,m_newclrBack,m_newclrBack);

  021a3	8b 45 90	 mov	 eax, DWORD PTR _m_newclrBack$[ebp]
  021a6	50		 push	 eax
  021a7	8b 4d 90	 mov	 ecx, DWORD PTR _m_newclrBack$[ebp]
  021aa	51		 push	 ecx
  021ab	8d 8d 5c ff ff
	ff		 lea	 ecx, DWORD PTR _rect2$[ebp]
  021b1	e8 00 00 00 00	 call	 ??BCRect@@QAEPAUtagRECT@@XZ ; CRect::operator tagRECT *
  021b6	50		 push	 eax
  021b7	8b 4d 8c	 mov	 ecx, DWORD PTR _pDC$[ebp]
  021ba	e8 00 00 00 00	 call	 ?Draw3dRect@CDC@@QAEXPBUtagRECT@@KK@Z ; CDC::Draw3dRect
$L198581:

; 781  : 		}
; 782  : 		
; 783  : 		// draw the text if there is any
; 784  : 		//We have to paint the text only if the image is nonexistant
; 785  : 		
; 786  : 		dy = (int)(0.5+(rect.Height()-m_iconY)/2.0);

  021bf	8d 4d a0	 lea	 ecx, DWORD PTR _rect$[ebp]
  021c2	e8 00 00 00 00	 call	 ?Height@CRect@@QBEHXZ	; CRect::Height
  021c7	2b 05 00 00 00
	00		 sub	 eax, DWORD PTR ?m_iconY@BCMenu@@1HA ; BCMenu::m_iconY
  021cd	89 85 60 fc ff
	ff		 mov	 DWORD PTR tv1026[ebp], eax
  021d3	db 85 60 fc ff
	ff		 fild	 DWORD PTR tv1026[ebp]
  021d9	dc 35 00 00 00
	00		 fdiv	 QWORD PTR __real@4000000000000000
  021df	dc 05 00 00 00
	00		 fadd	 QWORD PTR __real@3fe0000000000000
  021e5	e8 00 00 00 00	 call	 __ftol2
  021ea	89 85 f4 fd ff
	ff		 mov	 DWORD PTR _dy$198548[ebp], eax

; 787  : 		dy = dy<0 ? 0 : dy;

  021f0	33 d2		 xor	 edx, edx
  021f2	83 bd f4 fd ff
	ff 00		 cmp	 DWORD PTR _dy$198548[ebp], 0
  021f9	0f 9c c2	 setl	 dl
  021fc	4a		 dec	 edx
  021fd	23 95 f4 fd ff
	ff		 and	 edx, DWORD PTR _dy$198548[ebp]
  02203	89 95 f4 fd ff
	ff		 mov	 DWORD PTR _dy$198548[ebp], edx

; 788  : 		dx = (int)(0.5+(barwidth-m_iconX)/2.0);

  02209	8b 85 70 ff ff
	ff		 mov	 eax, DWORD PTR _barwidth$[ebp]
  0220f	2b 05 00 00 00
	00		 sub	 eax, DWORD PTR ?m_iconX@BCMenu@@1HA ; BCMenu::m_iconX
  02215	89 85 5c fc ff
	ff		 mov	 DWORD PTR tv1034[ebp], eax
  0221b	db 85 5c fc ff
	ff		 fild	 DWORD PTR tv1034[ebp]
  02221	dc 35 00 00 00
	00		 fdiv	 QWORD PTR __real@4000000000000000
  02227	dc 05 00 00 00
	00		 fadd	 QWORD PTR __real@3fe0000000000000
  0222d	e8 00 00 00 00	 call	 __ftol2
  02232	89 85 a8 fd ff
	ff		 mov	 DWORD PTR _dx$198547[ebp], eax

; 789  : 		dx = dx<0 ? 0 : dx;

  02238	33 c9		 xor	 ecx, ecx
  0223a	83 bd a8 fd ff
	ff 00		 cmp	 DWORD PTR _dx$198547[ebp], 0
  02241	0f 9c c1	 setl	 cl
  02244	49		 dec	 ecx
  02245	23 8d a8 fd ff
	ff		 and	 ecx, DWORD PTR _dx$198547[ebp]
  0224b	89 8d a8 fd ff
	ff		 mov	 DWORD PTR _dx$198547[ebp], ecx

; 790  : 		rect2.SetRect(rect.left+1,rect.top+1,rect.left+barwidth-2,rect.bottom-1);

  02251	8b 55 ac	 mov	 edx, DWORD PTR _rect$[ebp+12]
  02254	83 ea 01	 sub	 edx, 1
  02257	52		 push	 edx
  02258	8b 85 70 ff ff
	ff		 mov	 eax, DWORD PTR _barwidth$[ebp]
  0225e	8b 4d a0	 mov	 ecx, DWORD PTR _rect$[ebp]
  02261	8d 54 01 fe	 lea	 edx, DWORD PTR [ecx+eax-2]
  02265	52		 push	 edx
  02266	8b 45 a4	 mov	 eax, DWORD PTR _rect$[ebp+4]
  02269	83 c0 01	 add	 eax, 1
  0226c	50		 push	 eax
  0226d	8b 4d a0	 mov	 ecx, DWORD PTR _rect$[ebp]
  02270	83 c1 01	 add	 ecx, 1
  02273	51		 push	 ecx
  02274	8d 8d 5c ff ff
	ff		 lea	 ecx, DWORD PTR _rect2$[ebp]
  0227a	e8 00 00 00 00	 call	 ?SetRect@CRect@@QAEXHHHH@Z ; CRect::SetRect

; 791  : 		
; 792  : 		if(checkflag||standardflag||selectedflag||disableflag){

  0227f	83 bd fc fd ff
	ff 00		 cmp	 DWORD PTR _checkflag$198537[ebp], 0
  02286	75 1f		 jne	 SHORT $L198586
  02288	83 bd d4 fd ff
	ff 00		 cmp	 DWORD PTR _standardflag$198534[ebp], 0
  0228f	75 16		 jne	 SHORT $L198586
  02291	83 bd c8 fd ff
	ff 00		 cmp	 DWORD PTR _selectedflag$198535[ebp], 0
  02298	75 0d		 jne	 SHORT $L198586
  0229a	83 bd ec fd ff
	ff 00		 cmp	 DWORD PTR _disableflag$198536[ebp], 0
  022a1	0f 84 c0 06 00
	00		 je	 $L198585
$L198586:

; 793  : 			if(checkflag && checkmaps){

  022a7	83 bd fc fd ff
	ff 00		 cmp	 DWORD PTR _checkflag$198537[ebp], 0
  022ae	0f 84 d4 00 00
	00		 je	 $L198587
  022b4	8b 95 70 fc ff
	ff		 mov	 edx, DWORD PTR _this$[ebp]
  022ba	83 7a 3c 00	 cmp	 DWORD PTR [edx+60], 0
  022be	0f 84 c4 00 00
	00		 je	 $L198587

; 794  : 				pDC->FillRect (rect2,&m_newbrBackground);

  022c4	8d 85 74 ff ff
	ff		 lea	 eax, DWORD PTR _m_newbrBackground$[ebp]
  022ca	50		 push	 eax
  022cb	8d 8d 5c ff ff
	ff		 lea	 ecx, DWORD PTR _rect2$[ebp]
  022d1	e8 00 00 00 00	 call	 ??BCRect@@QAEPAUtagRECT@@XZ ; CRect::operator tagRECT *
  022d6	50		 push	 eax
  022d7	8b 4d 8c	 mov	 ecx, DWORD PTR _pDC$[ebp]
  022da	e8 00 00 00 00	 call	 ?FillRect@CDC@@QAEXPBUtagRECT@@PAVCBrush@@@Z ; CDC::FillRect

; 795  : 				CPoint ptImage(rect.left+dx,rect.top+dy);		

  022df	8b 4d a4	 mov	 ecx, DWORD PTR _rect$[ebp+4]
  022e2	03 8d f4 fd ff
	ff		 add	 ecx, DWORD PTR _dy$198548[ebp]
  022e8	51		 push	 ecx
  022e9	8b 55 a0	 mov	 edx, DWORD PTR _rect$[ebp]
  022ec	03 95 a8 fd ff
	ff		 add	 edx, DWORD PTR _dx$198547[ebp]
  022f2	52		 push	 edx
  022f3	8d 8d 90 fd ff
	ff		 lea	 ecx, DWORD PTR _ptImage$198588[ebp]
  022f9	e8 00 00 00 00	 call	 ??0CPoint@@QAE@HH@Z	; CPoint::CPoint

; 796  : 				if(state&ODS_SELECTED)checkmaps->Draw(pDC,1,ptImage,ILD_TRANSPARENT);

  022fe	8b 85 ac fd ff
	ff		 mov	 eax, DWORD PTR _state$198557[ebp]
  02304	83 e0 01	 and	 eax, 1
  02307	74 3e		 je	 SHORT $L198589
  02309	8b 8d 90 fd ff
	ff		 mov	 ecx, DWORD PTR _ptImage$198588[ebp]
  0230f	89 8d c4 fc ff
	ff		 mov	 DWORD PTR $T202449[ebp], ecx
  02315	8b 95 94 fd ff
	ff		 mov	 edx, DWORD PTR _ptImage$198588[ebp+4]
  0231b	89 95 c8 fc ff
	ff		 mov	 DWORD PTR $T202449[ebp+4], edx
  02321	6a 01		 push	 1
  02323	8b 85 c8 fc ff
	ff		 mov	 eax, DWORD PTR $T202449[ebp+4]
  02329	50		 push	 eax
  0232a	8b 8d c4 fc ff
	ff		 mov	 ecx, DWORD PTR $T202449[ebp]
  02330	51		 push	 ecx
  02331	6a 01		 push	 1
  02333	8b 55 8c	 mov	 edx, DWORD PTR _pDC$[ebp]
  02336	52		 push	 edx
  02337	8b 85 70 fc ff
	ff		 mov	 eax, DWORD PTR _this$[ebp]
  0233d	8b 48 3c	 mov	 ecx, DWORD PTR [eax+60]
  02340	e8 00 00 00 00	 call	 ?Draw@CImageList@@QAEHPAVCDC@@HUtagPOINT@@I@Z ; CImageList::Draw

; 797  : 				else checkmaps->Draw(pDC,0,ptImage,ILD_TRANSPARENT);

  02345	eb 3c		 jmp	 SHORT $L198591
$L198589:
  02347	8b 8d 90 fd ff
	ff		 mov	 ecx, DWORD PTR _ptImage$198588[ebp]
  0234d	89 8d bc fc ff
	ff		 mov	 DWORD PTR $T202450[ebp], ecx
  02353	8b 95 94 fd ff
	ff		 mov	 edx, DWORD PTR _ptImage$198588[ebp+4]
  02359	89 95 c0 fc ff
	ff		 mov	 DWORD PTR $T202450[ebp+4], edx
  0235f	6a 01		 push	 1
  02361	8b 85 c0 fc ff
	ff		 mov	 eax, DWORD PTR $T202450[ebp+4]
  02367	50		 push	 eax
  02368	8b 8d bc fc ff
	ff		 mov	 ecx, DWORD PTR $T202450[ebp]
  0236e	51		 push	 ecx
  0236f	6a 00		 push	 0
  02371	8b 55 8c	 mov	 edx, DWORD PTR _pDC$[ebp]
  02374	52		 push	 edx
  02375	8b 85 70 fc ff
	ff		 mov	 eax, DWORD PTR _this$[ebp]
  0237b	8b 48 3c	 mov	 ecx, DWORD PTR [eax+60]
  0237e	e8 00 00 00 00	 call	 ?Draw@CImageList@@QAEHPAVCDC@@HUtagPOINT@@I@Z ; CImageList::Draw
$L198591:

; 798  : 			}
; 799  : 			else if(disableflag){

  02383	e9 df 05 00 00	 jmp	 $L198585
$L198587:
  02388	83 bd ec fd ff
	ff 00		 cmp	 DWORD PTR _disableflag$198536[ebp], 0
  0238f	0f 84 ae 01 00
	00		 je	 $L198594

; 800  : 				if(!selectedflag){

  02395	83 bd c8 fd ff
	ff 00		 cmp	 DWORD PTR _selectedflag$198535[ebp], 0
  0239c	0f 85 9c 01 00
	00		 jne	 $L198595

; 801  : 					if(CanDraw3D){

  023a2	83 bd 00 fe ff
	ff 00		 cmp	 DWORD PTR _CanDraw3D$198556[ebp], 0
  023a9	74 62		 je	 SHORT $L198596

; 802  : 						CPoint ptImage(rect.left+dx,rect.top+dy);

  023ab	8b 4d a4	 mov	 ecx, DWORD PTR _rect$[ebp+4]
  023ae	03 8d f4 fd ff
	ff		 add	 ecx, DWORD PTR _dy$198548[ebp]
  023b4	51		 push	 ecx
  023b5	8b 55 a0	 mov	 edx, DWORD PTR _rect$[ebp]
  023b8	03 95 a8 fd ff
	ff		 add	 edx, DWORD PTR _dx$198547[ebp]
  023be	52		 push	 edx
  023bf	8d 8d 88 fd ff
	ff		 lea	 ecx, DWORD PTR _ptImage$198597[ebp]
  023c5	e8 00 00 00 00	 call	 ??0CPoint@@QAE@HH@Z	; CPoint::CPoint

; 803  : 						bitmap->Draw(pDC,disabled_offset,ptImage,ILD_TRANSPARENT);

  023ca	8b 85 88 fd ff
	ff		 mov	 eax, DWORD PTR _ptImage$198597[ebp]
  023d0	89 85 b4 fc ff
	ff		 mov	 DWORD PTR $T202451[ebp], eax
  023d6	8b 8d 8c fd ff
	ff		 mov	 ecx, DWORD PTR _ptImage$198597[ebp+4]
  023dc	89 8d b8 fc ff
	ff		 mov	 DWORD PTR $T202451[ebp+4], ecx
  023e2	6a 01		 push	 1
  023e4	8b 95 b8 fc ff
	ff		 mov	 edx, DWORD PTR $T202451[ebp+4]
  023ea	52		 push	 edx
  023eb	8b 85 b4 fc ff
	ff		 mov	 eax, DWORD PTR $T202451[ebp]
  023f1	50		 push	 eax
  023f2	8b 8d bc fd ff
	ff		 mov	 ecx, DWORD PTR _disabled_offset$198554[ebp]
  023f8	51		 push	 ecx
