; Listing generated by Microsoft (R) Optimizing Compiler Version 13.10.3077 

	TITLE	.\src\Core\CDataManager.cpp
	.386P
include listing.inc
if @Version gt 510
.model FLAT
else
_TEXT	SEGMENT PARA USE32 PUBLIC 'CODE'
_TEXT	ENDS
_DATA	SEGMENT DWORD USE32 PUBLIC 'DATA'
_DATA	ENDS
CONST	SEGMENT DWORD USE32 PUBLIC 'CONST'
CONST	ENDS
_BSS	SEGMENT DWORD USE32 PUBLIC 'BSS'
_BSS	ENDS
$$SYMBOLS	SEGMENT BYTE USE32 'DEBSYM'
$$SYMBOLS	ENDS
$$TYPES	SEGMENT BYTE USE32 'DEBTYP'
$$TYPES	ENDS
_TLS	SEGMENT DWORD USE32 PUBLIC 'TLS'
_TLS	ENDS
;	COMDAT ??_C@_0BE@JONHPENG@map?1set?$DMT?$DO?5too?5long?$AA@
CONST	SEGMENT DWORD USE32 PUBLIC 'CONST'
CONST	ENDS
rdata$r	SEGMENT DWORD USE32 PUBLIC 'CONST'
rdata$r	ENDS
xdata$x	SEGMENT DWORD USE32 PUBLIC 'CONST'
xdata$x	ENDS
text$AFX_COL1	SEGMENT PARA USE32 PUBLIC ''
text$AFX_COL1	ENDS
text$yc	SEGMENT PARA USE32 PUBLIC 'CODE'
text$yc	ENDS
CRT$XCA	SEGMENT DWORD USE32 PUBLIC 'DATA'
CRT$XCA	ENDS
CRT$XCU	SEGMENT DWORD USE32 PUBLIC 'DATA'
CRT$XCU	ENDS
CRT$XCL	SEGMENT DWORD USE32 PUBLIC 'DATA'
CRT$XCL	ENDS
CRT$XCC	SEGMENT DWORD USE32 PUBLIC 'DATA'
CRT$XCC	ENDS
CRT$XCZ	SEGMENT DWORD USE32 PUBLIC 'DATA'
CRT$XCZ	ENDS
text$yd	SEGMENT PARA USE32 PUBLIC 'CODE'
text$yd	ENDS
ATL$__m	SEGMENT DWORD USE32 PUBLIC ''
ATL$__m	ENDS
ATL$__z	SEGMENT DWORD USE32 PUBLIC ''
ATL$__z	ENDS
ATL$__a	SEGMENT DWORD USE32 PUBLIC ''
ATL$__a	ENDS
;	COMDAT ??1IData@@MAE@XZ
_TEXT	SEGMENT PARA USE32 PUBLIC 'CODE'
_TEXT	ENDS
;	COMDAT ?DataAppStart@IData@@UAEXXZ
_TEXT	SEGMENT PARA USE32 PUBLIC 'CODE'
_TEXT	ENDS
;	COMDAT ?DataAppExit@IData@@UAEXXZ
_TEXT	SEGMENT PARA USE32 PUBLIC 'CODE'
_TEXT	ENDS
;	COMDAT ??_GIData@@MAEPAXI@Z
_TEXT	SEGMENT PARA USE32 PUBLIC 'CODE'
_TEXT	ENDS
;	COMDAT ?clear@OneLocalGame@@QAEXXZ
_TEXT	SEGMENT PARA USE32 PUBLIC 'CODE'
_TEXT	ENDS
;	COMDAT ??1IAdData@@MAE@XZ
_TEXT	SEGMENT PARA USE32 PUBLIC 'CODE'
_TEXT	ENDS
;	COMDAT ??_GIAdData@@MAEPAXI@Z
_TEXT	SEGMENT PARA USE32 PUBLIC 'CODE'
_TEXT	ENDS
;	COMDAT ??_GCDataManager@@UAEPAXI@Z
_TEXT	SEGMENT PARA USE32 PUBLIC 'CODE'
_TEXT	ENDS
;	COMDAT ??0IDataManager@@QAE@XZ
_TEXT	SEGMENT PARA USE32 PUBLIC 'CODE'
_TEXT	ENDS
;	COMDAT ??1?$map@KPAVIData@@U?$less@K@std@@V?$allocator@U?$pair@$$CBKPAVIData@@@std@@@3@@std@@QAE@XZ
_TEXT	SEGMENT PARA USE32 PUBLIC 'CODE'
_TEXT	ENDS
;	COMDAT ??B?$CComPtrBase@UITypeInfo2@@@ATL@@QBEPAUITypeInfo2@@XZ
_TEXT	SEGMENT PARA USE32 PUBLIC 'CODE'
_TEXT	ENDS
;	COMDAT ?equal@?$istreambuf_iterator@DU?$char_traits@D@std@@@std@@QBE_NABV12@@Z
_TEXT	SEGMENT PARA USE32 PUBLIC 'CODE'
_TEXT	ENDS
;	COMDAT ?equal@?$istreambuf_iterator@_WU?$char_traits@_W@std@@@std@@QBE_NABV12@@Z
_TEXT	SEGMENT PARA USE32 PUBLIC 'CODE'
_TEXT	ENDS
;	COMDAT ??0?$map@KPAVIData@@U?$less@K@std@@V?$allocator@U?$pair@$$CBKPAVIData@@@std@@@3@@std@@QAE@XZ
_TEXT	SEGMENT PARA USE32 PUBLIC 'CODE'
_TEXT	ENDS
;	COMDAT ??A?$map@KPAVIData@@U?$less@K@std@@V?$allocator@U?$pair@$$CBKPAVIData@@@std@@@3@@std@@QAEAAPAVIData@@ABK@Z
_TEXT	SEGMENT PARA USE32 PUBLIC 'CODE'
_TEXT	ENDS
;	COMDAT ??1?$_Tree@V?$_Tmap_traits@KPAVIData@@U?$less@K@std@@V?$allocator@U?$pair@$$CBKPAVIData@@@std@@@3@$0A@@std@@@std@@QAE@XZ
_TEXT	SEGMENT PARA USE32 PUBLIC 'CODE'
_TEXT	ENDS
;	COMDAT ?begin@?$_Tree@V?$_Tmap_traits@KPAVIData@@U?$less@K@std@@V?$allocator@U?$pair@$$CBKPAVIData@@@std@@@3@$0A@@std@@@std@@QAE?AViterator@12@XZ
_TEXT	SEGMENT PARA USE32 PUBLIC 'CODE'
_TEXT	ENDS
;	COMDAT ?end@?$_Tree@V?$_Tmap_traits@KPAVIData@@U?$less@K@std@@V?$allocator@U?$pair@$$CBKPAVIData@@@std@@@3@$0A@@std@@@std@@QAE?AViterator@12@XZ
_TEXT	SEGMENT PARA USE32 PUBLIC 'CODE'
_TEXT	ENDS
;	COMDAT ?erase@?$_Tree@V?$_Tmap_traits@KPAVIData@@U?$less@K@std@@V?$allocator@U?$pair@$$CBKPAVIData@@@std@@@3@$0A@@std@@@std@@QAEIABK@Z
_TEXT	SEGMENT PARA USE32 PUBLIC 'CODE'
_TEXT	ENDS
;	COMDAT ?clear@?$_Tree@V?$_Tmap_traits@KPAVIData@@U?$less@K@std@@V?$allocator@U?$pair@$$CBKPAVIData@@@std@@@3@$0A@@std@@@std@@QAEXXZ
_TEXT	SEGMENT PARA USE32 PUBLIC 'CODE'
_TEXT	ENDS
;	COMDAT ?find@?$_Tree@V?$_Tmap_traits@KPAVIData@@U?$less@K@std@@V?$allocator@U?$pair@$$CBKPAVIData@@@std@@@3@$0A@@std@@@std@@QAE?AViterator@12@ABK@Z
_TEXT	SEGMENT PARA USE32 PUBLIC 'CODE'
_TEXT	ENDS
;	COMDAT ??Citerator@?$_Tree@V?$_Tmap_traits@KPAVIData@@U?$less@K@std@@V?$allocator@U?$pair@$$CBKPAVIData@@@std@@@3@$0A@@std@@@std@@QBEPAU?$pair@$$CBKPAVIData@@@2@XZ
_TEXT	SEGMENT PARA USE32 PUBLIC 'CODE'
_TEXT	ENDS
;	COMDAT ??Eiterator@?$_Tree@V?$_Tmap_traits@KPAVIData@@U?$less@K@std@@V?$allocator@U?$pair@$$CBKPAVIData@@@std@@@3@$0A@@std@@@std@@QAE?AV012@H@Z
_TEXT	SEGMENT PARA USE32 PUBLIC 'CODE'
_TEXT	ENDS
;	COMDAT ??8const_iterator@?$_Tree@V?$_Tmap_traits@KPAVIData@@U?$less@K@std@@V?$allocator@U?$pair@$$CBKPAVIData@@@std@@@3@$0A@@std@@@std@@QBE_NABV012@@Z
_TEXT	SEGMENT PARA USE32 PUBLIC 'CODE'
_TEXT	ENDS
;	COMDAT ??9const_iterator@?$_Tree@V?$_Tmap_traits@KPAVIData@@U?$less@K@std@@V?$allocator@U?$pair@$$CBKPAVIData@@@std@@@3@$0A@@std@@@std@@QBE_NABV012@@Z
_TEXT	SEGMENT PARA USE32 PUBLIC 'CODE'
_TEXT	ENDS
;	COMDAT ?_Key@?$_Tree@V?$_Tmap_traits@KPAVIData@@U?$less@K@std@@V?$allocator@U?$pair@$$CBKPAVIData@@@std@@@3@$0A@@std@@@std@@KAABKPAU_Node@?$_Tree_nod@V?$_Tmap_traits@KPAVIData@@U?$less@K@std@@V?$allocator@U?$pair@$$CBKPAVIData@@@std@@@3@$0A@@std@@@2@@Z
_TEXT	SEGMENT PARA USE32 PUBLIC 'CODE'
_TEXT	ENDS
;	COMDAT ??0?$_Tree@V?$_Tmap_traits@KPAVIData@@U?$less@K@std@@V?$allocator@U?$pair@$$CBKPAVIData@@@std@@@3@$0A@@std@@@std@@QAE@ABU?$less@K@1@ABV?$allocator@U?$pair@$$CBKPAVIData@@@std@@@1@@Z
_TEXT	SEGMENT PARA USE32 PUBLIC 'CODE'
_TEXT	ENDS
;	COMDAT ?insert@?$_Tree@V?$_Tmap_traits@KPAVIData@@U?$less@K@std@@V?$allocator@U?$pair@$$CBKPAVIData@@@std@@@3@$0A@@std@@@std@@QAE?AViterator@12@V312@ABU?$pair@$$CBKPAVIData@@@2@@Z
_TEXT	SEGMENT PARA USE32 PUBLIC 'CODE'
_TEXT	ENDS
;	COMDAT ?erase@?$_Tree@V?$_Tmap_traits@KPAVIData@@U?$less@K@std@@V?$allocator@U?$pair@$$CBKPAVIData@@@std@@@3@$0A@@std@@@std@@QAE?AViterator@12@V312@0@Z
_TEXT	SEGMENT PARA USE32 PUBLIC 'CODE'
_TEXT	ENDS
;	COMDAT ?lower_bound@?$_Tree@V?$_Tmap_traits@KPAVIData@@U?$less@K@std@@V?$allocator@U?$pair@$$CBKPAVIData@@@std@@@3@$0A@@std@@@std@@QAE?AViterator@12@ABK@Z
_TEXT	SEGMENT PARA USE32 PUBLIC 'CODE'
_TEXT	ENDS
;	COMDAT ?equal_range@?$_Tree@V?$_Tmap_traits@KPAVIData@@U?$less@K@std@@V?$allocator@U?$pair@$$CBKPAVIData@@@std@@@3@$0A@@std@@@std@@QAE?AU?$pair@Viterator@?$_Tree@V?$_Tmap_traits@KPAVIData@@U?$less@K@std@@V?$allocator@U?$pair@$$CBKPAVIData@@@std@@@3@$0A@@std@@@std@@V123@@2@ABK@Z
_TEXT	SEGMENT PARA USE32 PUBLIC 'CODE'
_TEXT	ENDS
;	COMDAT ?_Erase@?$_Tree@V?$_Tmap_traits@KPAVIData@@U?$less@K@std@@V?$allocator@U?$pair@$$CBKPAVIData@@@std@@@3@$0A@@std@@@std@@IAEXPAU_Node@?$_Tree_nod@V?$_Tmap_traits@KPAVIData@@U?$less@K@std@@V?$allocator@U?$pair@$$CBKPAVIData@@@std@@@3@$0A@@std@@@2@@Z
_TEXT	SEGMENT PARA USE32 PUBLIC 'CODE'
_TEXT	ENDS
;	COMDAT ?_Lmost@?$_Tree@V?$_Tmap_traits@KPAVIData@@U?$less@K@std@@V?$allocator@U?$pair@$$CBKPAVIData@@@std@@@3@$0A@@std@@@std@@IAEAAPAU_Node@?$_Tree_nod@V?$_Tmap_traits@KPAVIData@@U?$less@K@std@@V?$allocator@U?$pair@$$CBKPAVIData@@@std@@@3@$0A@@std@@@2@XZ
_TEXT	SEGMENT PARA USE32 PUBLIC 'CODE'
_TEXT	ENDS
;	COMDAT ?_Rmost@?$_Tree@V?$_Tmap_traits@KPAVIData@@U?$less@K@std@@V?$allocator@U?$pair@$$CBKPAVIData@@@std@@@3@$0A@@std@@@std@@IAEAAPAU_Node@?$_Tree_nod@V?$_Tmap_traits@KPAVIData@@U?$less@K@std@@V?$allocator@U?$pair@$$CBKPAVIData@@@std@@@3@$0A@@std@@@2@XZ
_TEXT	SEGMENT PARA USE32 PUBLIC 'CODE'
_TEXT	ENDS
;	COMDAT ?_Root@?$_Tree@V?$_Tmap_traits@KPAVIData@@U?$less@K@std@@V?$allocator@U?$pair@$$CBKPAVIData@@@std@@@3@$0A@@std@@@std@@IAEAAPAU_Node@?$_Tree_nod@V?$_Tmap_traits@KPAVIData@@U?$less@K@std@@V?$allocator@U?$pair@$$CBKPAVIData@@@std@@@3@$0A@@std@@@2@XZ
_TEXT	SEGMENT PARA USE32 PUBLIC 'CODE'
_TEXT	ENDS
;	COMDAT ?_Tidy@?$_Tree@V?$_Tmap_traits@KPAVIData@@U?$less@K@std@@V?$allocator@U?$pair@$$CBKPAVIData@@@std@@@3@$0A@@std@@@std@@IAEXXZ
_TEXT	SEGMENT PARA USE32 PUBLIC 'CODE'
_TEXT	ENDS
;	COMDAT ??0?$allocator@U?$pair@$$CBKPAVIData@@@std@@@std@@QAE@XZ
_TEXT	SEGMENT PARA USE32 PUBLIC 'CODE'
_TEXT	ENDS
;	COMDAT ??R?$less@K@std@@QBE_NABK0@Z
_TEXT	SEGMENT PARA USE32 PUBLIC 'CODE'
_TEXT	ENDS
;	COMDAT ??0iterator@?$_Tree@V?$_Tmap_traits@KPAVIData@@U?$less@K@std@@V?$allocator@U?$pair@$$CBKPAVIData@@@std@@@3@$0A@@std@@@std@@QAE@PAU_Node@?$_Tree_nod@V?$_Tmap_traits@KPAVIData@@U?$less@K@std@@V?$allocator@U?$pair@$$CBKPAVIData@@@std@@@3@$0A@@std@@@2@@Z
_TEXT	SEGMENT PARA USE32 PUBLIC 'CODE'
_TEXT	ENDS
;	COMDAT ??Diterator@?$_Tree@V?$_Tmap_traits@KPAVIData@@U?$less@K@std@@V?$allocator@U?$pair@$$CBKPAVIData@@@std@@@3@$0A@@std@@@std@@QBEAAU?$pair@$$CBKPAVIData@@@2@XZ
_TEXT	SEGMENT PARA USE32 PUBLIC 'CODE'
_TEXT	ENDS
;	COMDAT ??Eiterator@?$_Tree@V?$_Tmap_traits@KPAVIData@@U?$less@K@std@@V?$allocator@U?$pair@$$CBKPAVIData@@@std@@@3@$0A@@std@@@std@@QAEAAV012@XZ
_TEXT	SEGMENT PARA USE32 PUBLIC 'CODE'
_TEXT	ENDS
;	COMDAT ?_Mynode@const_iterator@?$_Tree@V?$_Tmap_traits@KPAVIData@@U?$less@K@std@@V?$allocator@U?$pair@$$CBKPAVIData@@@std@@@3@$0A@@std@@@std@@QBEPAU_Node@?$_Tree_nod@V?$_Tmap_traits@KPAVIData@@U?$less@K@std@@V?$allocator@U?$pair@$$CBKPAVIData@@@std@@@3@$0A@@std@@@3@XZ
_TEXT	SEGMENT PARA USE32 PUBLIC 'CODE'
_TEXT	ENDS
;	COMDAT ??0?$pair@$$CBKPAVIData@@@std@@QAE@ABKABQAVIData@@@Z
_TEXT	SEGMENT PARA USE32 PUBLIC 'CODE'
_TEXT	ENDS
;	COMDAT ??0iterator@?$basic_string@DU?$char_traits@D@std@@V?$allocator@D@2@@std@@QAE@PAD@Z
_TEXT	SEGMENT PARA USE32 PUBLIC 'CODE'
_TEXT	ENDS
;	COMDAT ?_Isnil@?$_Tree@V?$_Tmap_traits@KPAVIData@@U?$less@K@std@@V?$allocator@U?$pair@$$CBKPAVIData@@@std@@@3@$0A@@std@@@std@@KAAADPAU_Node@?$_Tree_nod@V?$_Tmap_traits@KPAVIData@@U?$less@K@std@@V?$allocator@U?$pair@$$CBKPAVIData@@@std@@@3@$0A@@std@@@2@@Z
_TEXT	SEGMENT PARA USE32 PUBLIC 'CODE'
_TEXT	ENDS
;	COMDAT ?_Left@?$_Tree@V?$_Tmap_traits@KPAVIData@@U?$less@K@std@@V?$allocator@U?$pair@$$CBKPAVIData@@@std@@@3@$0A@@std@@@std@@KAAAPAU_Node@?$_Tree_nod@V?$_Tmap_traits@KPAVIData@@U?$less@K@std@@V?$allocator@U?$pair@$$CBKPAVIData@@@std@@@3@$0A@@std@@@2@PAU342@@Z
_TEXT	SEGMENT PARA USE32 PUBLIC 'CODE'
_TEXT	ENDS
;	COMDAT ?_Parent@?$_Tree@V?$_Tmap_traits@KPAVIData@@U?$less@K@std@@V?$allocator@U?$pair@$$CBKPAVIData@@@std@@@3@$0A@@std@@@std@@KAAAPAU_Node@?$_Tree_nod@V?$_Tmap_traits@KPAVIData@@U?$less@K@std@@V?$allocator@U?$pair@$$CBKPAVIData@@@std@@@3@$0A@@std@@@2@PAU342@@Z
_TEXT	SEGMENT PARA USE32 PUBLIC 'CODE'
_TEXT	ENDS
;	COMDAT ?_Right@?$_Tree@V?$_Tmap_traits@KPAVIData@@U?$less@K@std@@V?$allocator@U?$pair@$$CBKPAVIData@@@std@@@3@$0A@@std@@@std@@KAAAPAU_Node@?$_Tree_nod@V?$_Tmap_traits@KPAVIData@@U?$less@K@std@@V?$allocator@U?$pair@$$CBKPAVIData@@@std@@@3@$0A@@std@@@2@PAU342@@Z
_TEXT	SEGMENT PARA USE32 PUBLIC 'CODE'
_TEXT	ENDS
;	COMDAT ?_Myval@?$_Tree@V?$_Tmap_traits@KPAVIData@@U?$less@K@std@@V?$allocator@U?$pair@$$CBKPAVIData@@@std@@@3@$0A@@std@@@std@@KAAAU?$pair@$$CBKPAVIData@@@2@PAU_Node@?$_Tree_nod@V?$_Tmap_traits@KPAVIData@@U?$less@K@std@@V?$allocator@U?$pair@$$CBKPAVIData@@@std@@@3@$0A@@std@@@2@@Z
_TEXT	SEGMENT PARA USE32 PUBLIC 'CODE'
_TEXT	ENDS
;	COMDAT ?size@?$_Tree@V?$_Tmap_traits@KPAVIData@@U?$less@K@std@@V?$allocator@U?$pair@$$CBKPAVIData@@@std@@@3@$0A@@std@@@std@@QBEIXZ
_TEXT	SEGMENT PARA USE32 PUBLIC 'CODE'
_TEXT	ENDS
;	COMDAT ?insert@?$_Tree@V?$_Tmap_traits@KPAVIData@@U?$less@K@std@@V?$allocator@U?$pair@$$CBKPAVIData@@@std@@@3@$0A@@std@@@std@@QAE?AU?$pair@Viterator@?$_Tree@V?$_Tmap_traits@KPAVIData@@U?$less@K@std@@V?$allocator@U?$pair@$$CBKPAVIData@@@std@@@3@$0A@@std@@@std@@_N@2@ABU?$pair@$$CBKPAVIData@@@2@@Z
_TEXT	SEGMENT PARA USE32 PUBLIC 'CODE'
_TEXT	ENDS
;	COMDAT ?erase@?$_Tree@V?$_Tmap_traits@KPAVIData@@U?$less@K@std@@V?$allocator@U?$pair@$$CBKPAVIData@@@std@@@3@$0A@@std@@@std@@QAE?AViterator@12@V312@@Z
_TEXT	SEGMENT PARA USE32 PUBLIC 'CODE'
_TEXT	ENDS
;	COMDAT ?upper_bound@?$_Tree@V?$_Tmap_traits@KPAVIData@@U?$less@K@std@@V?$allocator@U?$pair@$$CBKPAVIData@@@std@@@3@$0A@@std@@@std@@QAE?AViterator@12@ABK@Z
_TEXT	SEGMENT PARA USE32 PUBLIC 'CODE'
_TEXT	ENDS
;	COMDAT ?_Init@?$_Tree@V?$_Tmap_traits@KPAVIData@@U?$less@K@std@@V?$allocator@U?$pair@$$CBKPAVIData@@@std@@@3@$0A@@std@@@std@@IAEXXZ
_TEXT	SEGMENT PARA USE32 PUBLIC 'CODE'
_TEXT	ENDS
;	COMDAT ?_Insert@?$_Tree@V?$_Tmap_traits@KPAVIData@@U?$less@K@std@@V?$allocator@U?$pair@$$CBKPAVIData@@@std@@@3@$0A@@std@@@std@@IAE?AViterator@12@_NPAU_Node@?$_Tree_nod@V?$_Tmap_traits@KPAVIData@@U?$less@K@std@@V?$allocator@U?$pair@$$CBKPAVIData@@@std@@@3@$0A@@std@@@2@ABU?$pair@$$CBKPAVIData@@@2@@Z
_TEXT	SEGMENT PARA USE32 PUBLIC 'CODE'
_TEXT	ENDS
;	COMDAT ?_Lbound@?$_Tree@V?$_Tmap_traits@KPAVIData@@U?$less@K@std@@V?$allocator@U?$pair@$$CBKPAVIData@@@std@@@3@$0A@@std@@@std@@IBEPAU_Node@?$_Tree_nod@V?$_Tmap_traits@KPAVIData@@U?$less@K@std@@V?$allocator@U?$pair@$$CBKPAVIData@@@std@@@3@$0A@@std@@@2@ABK@Z
_TEXT	SEGMENT PARA USE32 PUBLIC 'CODE'
_TEXT	ENDS
;	COMDAT ??0?$_Tree_val@V?$_Tmap_traits@KPAVIData@@U?$less@K@std@@V?$allocator@U?$pair@$$CBKPAVIData@@@std@@@3@$0A@@std@@@std@@IAE@ABU?$less@K@1@V?$allocator@U?$pair@$$CBKPAVIData@@@std@@@1@@Z
_TEXT	SEGMENT PARA USE32 PUBLIC 'CODE'
_TEXT	ENDS
;	COMDAT ?_Kfn@?$_Tmap_traits@KPAVIData@@U?$less@K@std@@V?$allocator@U?$pair@$$CBKPAVIData@@@std@@@3@$0A@@std@@SAABKABU?$pair@$$CBKPAVIData@@@2@@Z
_TEXT	SEGMENT PARA USE32 PUBLIC 'CODE'
_TEXT	ENDS
;	COMDAT ??0?$allocator@U?$pair@$$CBKPAVIData@@@std@@@std@@QAE@ABV01@@Z
_TEXT	SEGMENT PARA USE32 PUBLIC 'CODE'
_TEXT	ENDS
;	COMDAT ?deallocate@?$allocator@U_Node@?$_Tree_nod@V?$_Tmap_traits@KPAVIData@@U?$less@K@std@@V?$allocator@U?$pair@$$CBKPAVIData@@@std@@@3@$0A@@std@@@std@@@std@@QAEXPAU_Node@?$_Tree_nod@V?$_Tmap_traits@KPAVIData@@U?$less@K@std@@V?$allocator@U?$pair@$$CBKPAVIData@@@std@@@3@$0A@@std@@@2@I@Z
_TEXT	SEGMENT PARA USE32 PUBLIC 'CODE'
_TEXT	ENDS
;	COMDAT ?destroy@?$allocator@U_Node@?$_Tree_nod@V?$_Tmap_traits@KPAVIData@@U?$less@K@std@@V?$allocator@U?$pair@$$CBKPAVIData@@@std@@@3@$0A@@std@@@std@@@std@@QAEXPAU_Node@?$_Tree_nod@V?$_Tmap_traits@KPAVIData@@U?$less@K@std@@V?$allocator@U?$pair@$$CBKPAVIData@@@std@@@3@$0A@@std@@@2@@Z
_TEXT	SEGMENT PARA USE32 PUBLIC 'CODE'
_TEXT	ENDS
;	COMDAT ?destroy@?$allocator@PAU_Node@?$_Tree_nod@V?$_Tmap_traits@KPAVIData@@U?$less@K@std@@V?$allocator@U?$pair@$$CBKPAVIData@@@std@@@3@$0A@@std@@@std@@@std@@QAEXPAPAU_Node@?$_Tree_nod@V?$_Tmap_traits@KPAVIData@@U?$less@K@std@@V?$allocator@U?$pair@$$CBKPAVIData@@@std@@@3@$0A@@std@@@2@@Z
_TEXT	SEGMENT PARA USE32 PUBLIC 'CODE'
_TEXT	ENDS
;	COMDAT ??0iterator@?$_Tree@V?$_Tmap_traits@KPAVIData@@U?$less@K@std@@V?$allocator@U?$pair@$$CBKPAVIData@@@std@@@3@$0A@@std@@@std@@QAE@XZ
_TEXT	SEGMENT PARA USE32 PUBLIC 'CODE'
_TEXT	ENDS
;	COMDAT ??Fiterator@?$_Tree@V?$_Tmap_traits@KPAVIData@@U?$less@K@std@@V?$allocator@U?$pair@$$CBKPAVIData@@@std@@@3@$0A@@std@@@std@@QAEAAV012@XZ
_TEXT	SEGMENT PARA USE32 PUBLIC 'CODE'
_TEXT	ENDS
;	COMDAT ??0const_iterator@?$_Tree@V?$_Tmap_traits@KPAVIData@@U?$less@K@std@@V?$allocator@U?$pair@$$CBKPAVIData@@@std@@@3@$0A@@std@@@std@@QAE@PAU_Node@?$_Tree_nod@V?$_Tmap_traits@KPAVIData@@U?$less@K@std@@V?$allocator@U?$pair@$$CBKPAVIData@@@std@@@3@$0A@@std@@@2@@Z
_TEXT	SEGMENT PARA USE32 PUBLIC 'CODE'
_TEXT	ENDS
;	COMDAT ??Dconst_iterator@?$_Tree@V?$_Tmap_traits@KPAVIData@@U?$less@K@std@@V?$allocator@U?$pair@$$CBKPAVIData@@@std@@@3@$0A@@std@@@std@@QBEABU?$pair@$$CBKPAVIData@@@2@XZ
_TEXT	SEGMENT PARA USE32 PUBLIC 'CODE'
_TEXT	ENDS
;	COMDAT ??Econst_iterator@?$_Tree@V?$_Tmap_traits@KPAVIData@@U?$less@K@std@@V?$allocator@U?$pair@$$CBKPAVIData@@@std@@@3@$0A@@std@@@std@@QAEAAV012@XZ
_TEXT	SEGMENT PARA USE32 PUBLIC 'CODE'
_TEXT	ENDS
;	COMDAT ??0?$pair@Viterator@?$_Tree@V?$_Tmap_traits@KPAVIData@@U?$less@K@std@@V?$allocator@U?$pair@$$CBKPAVIData@@@std@@@3@$0A@@std@@@std@@V123@@std@@QAE@ABViterator@?$_Tree@V?$_Tmap_traits@KPAVIData@@U?$less@K@std@@V?$allocator@U?$pair@$$CBKPAVIData@@@std@@@3@$0A@@std@@@1@0@Z
_TEXT	SEGMENT PARA USE32 PUBLIC 'CODE'
_TEXT	ENDS
;	COMDAT ??0length_error@std@@QAE@ABV01@@Z
_TEXT	SEGMENT PARA USE32 PUBLIC 'CODE'
_TEXT	ENDS
;	COMDAT ??0const_iterator@?$basic_string@DU?$char_traits@D@std@@V?$allocator@D@2@@std@@QAE@PBD@Z
_TEXT	SEGMENT PARA USE32 PUBLIC 'CODE'
_TEXT	ENDS
;	COMDAT ??Gconst_iterator@?$basic_string@DU?$char_traits@D@std@@V?$allocator@D@2@@std@@QBEHABV012@@Z
_TEXT	SEGMENT PARA USE32 PUBLIC 'CODE'
_TEXT	ENDS
;	COMDAT ?_Color@?$_Tree@V?$_Tmap_traits@KPAVIData@@U?$less@K@std@@V?$allocator@U?$pair@$$CBKPAVIData@@@std@@@3@$0A@@std@@@std@@KAAADPAU_Node@?$_Tree_nod@V?$_Tmap_traits@KPAVIData@@U?$less@K@std@@V?$allocator@U?$pair@$$CBKPAVIData@@@std@@@3@$0A@@std@@@2@@Z
_TEXT	SEGMENT PARA USE32 PUBLIC 'CODE'
_TEXT	ENDS
;	COMDAT ?max_size@?$_Tree@V?$_Tmap_traits@KPAVIData@@U?$less@K@std@@V?$allocator@U?$pair@$$CBKPAVIData@@@std@@@3@$0A@@std@@@std@@QBEIXZ
_TEXT	SEGMENT PARA USE32 PUBLIC 'CODE'
_TEXT	ENDS
;	COMDAT ?_Lrotate@?$_Tree@V?$_Tmap_traits@KPAVIData@@U?$less@K@std@@V?$allocator@U?$pair@$$CBKPAVIData@@@std@@@3@$0A@@std@@@std@@IAEXPAU_Node@?$_Tree_nod@V?$_Tmap_traits@KPAVIData@@U?$less@K@std@@V?$allocator@U?$pair@$$CBKPAVIData@@@std@@@3@$0A@@std@@@2@@Z
_TEXT	SEGMENT PARA USE32 PUBLIC 'CODE'
_TEXT	ENDS
;	COMDAT ?_Max@?$_Tree@V?$_Tmap_traits@KPAVIData@@U?$less@K@std@@V?$allocator@U?$pair@$$CBKPAVIData@@@std@@@3@$0A@@std@@@std@@KAPAU_Node@?$_Tree_nod@V?$_Tmap_traits@KPAVIData@@U?$less@K@std@@V?$allocator@U?$pair@$$CBKPAVIData@@@std@@@3@$0A@@std@@@2@PAU342@@Z
_TEXT	SEGMENT PARA USE32 PUBLIC 'CODE'
_TEXT	ENDS
;	COMDAT ?_Min@?$_Tree@V?$_Tmap_traits@KPAVIData@@U?$less@K@std@@V?$allocator@U?$pair@$$CBKPAVIData@@@std@@@3@$0A@@std@@@std@@KAPAU_Node@?$_Tree_nod@V?$_Tmap_traits@KPAVIData@@U?$less@K@std@@V?$allocator@U?$pair@$$CBKPAVIData@@@std@@@3@$0A@@std@@@2@PAU342@@Z
_TEXT	SEGMENT PARA USE32 PUBLIC 'CODE'
_TEXT	ENDS
;	COMDAT ?_Root@?$_Tree@V?$_Tmap_traits@KPAVIData@@U?$less@K@std@@V?$allocator@U?$pair@$$CBKPAVIData@@@std@@@3@$0A@@std@@@std@@IBEAAPAU_Node@?$_Tree_nod@V?$_Tmap_traits@KPAVIData@@U?$less@K@std@@V?$allocator@U?$pair@$$CBKPAVIData@@@std@@@3@$0A@@std@@@2@XZ
_TEXT	SEGMENT PARA USE32 PUBLIC 'CODE'
_TEXT	ENDS
;	COMDAT ?_Rrotate@?$_Tree@V?$_Tmap_traits@KPAVIData@@U?$less@K@std@@V?$allocator@U?$pair@$$CBKPAVIData@@@std@@@3@$0A@@std@@@std@@IAEXPAU_Node@?$_Tree_nod@V?$_Tmap_traits@KPAVIData@@U?$less@K@std@@V?$allocator@U?$pair@$$CBKPAVIData@@@std@@@3@$0A@@std@@@2@@Z
_TEXT	SEGMENT PARA USE32 PUBLIC 'CODE'
_TEXT	ENDS
;	COMDAT ?_Ubound@?$_Tree@V?$_Tmap_traits@KPAVIData@@U?$less@K@std@@V?$allocator@U?$pair@$$CBKPAVIData@@@std@@@3@$0A@@std@@@std@@IBEPAU_Node@?$_Tree_nod@V?$_Tmap_traits@KPAVIData@@U?$less@K@std@@V?$allocator@U?$pair@$$CBKPAVIData@@@std@@@3@$0A@@std@@@2@ABK@Z
_TEXT	SEGMENT PARA USE32 PUBLIC 'CODE'
_TEXT	ENDS
;	COMDAT ?_Buynode@?$_Tree@V?$_Tmap_traits@KPAVIData@@U?$less@K@std@@V?$allocator@U?$pair@$$CBKPAVIData@@@std@@@3@$0A@@std@@@std@@IAEPAU_Node@?$_Tree_nod@V?$_Tmap_traits@KPAVIData@@U?$less@K@std@@V?$allocator@U?$pair@$$CBKPAVIData@@@std@@@3@$0A@@std@@@2@XZ
_TEXT	SEGMENT PARA USE32 PUBLIC 'CODE'
_TEXT	ENDS
;	COMDAT ?_Buynode@?$_Tree@V?$_Tmap_traits@KPAVIData@@U?$less@K@std@@V?$allocator@U?$pair@$$CBKPAVIData@@@std@@@3@$0A@@std@@@std@@IAEPAU_Node@?$_Tree_nod@V?$_Tmap_traits@KPAVIData@@U?$less@K@std@@V?$allocator@U?$pair@$$CBKPAVIData@@@std@@@3@$0A@@std@@@2@PAU342@00ABU?$pair@$$CBKPAVIData@@@2@D@Z
_TEXT	SEGMENT PARA USE32 PUBLIC 'CODE'
_TEXT	ENDS
;	COMDAT ??0?$_Tree_ptr@V?$_Tmap_traits@KPAVIData@@U?$less@K@std@@V?$allocator@U?$pair@$$CBKPAVIData@@@std@@@3@$0A@@std@@@std@@IAE@ABU?$less@K@1@V?$allocator@U?$pair@$$CBKPAVIData@@@std@@@1@@Z
_TEXT	SEGMENT PARA USE32 PUBLIC 'CODE'
_TEXT	ENDS
;	COMDAT ??0const_iterator@?$_Tree@V?$_Tmap_traits@KPAVIData@@U?$less@K@std@@V?$allocator@U?$pair@$$CBKPAVIData@@@std@@@3@$0A@@std@@@std@@QAE@XZ
_TEXT	SEGMENT PARA USE32 PUBLIC 'CODE'
_TEXT	ENDS
;	COMDAT ??Fconst_iterator@?$_Tree@V?$_Tmap_traits@KPAVIData@@U?$less@K@std@@V?$allocator@U?$pair@$$CBKPAVIData@@@std@@@3@$0A@@std@@@std@@QAEAAV012@XZ
_TEXT	SEGMENT PARA USE32 PUBLIC 'CODE'
_TEXT	ENDS
;	COMDAT ?_Inc@const_iterator@?$_Tree@V?$_Tmap_traits@KPAVIData@@U?$less@K@std@@V?$allocator@U?$pair@$$CBKPAVIData@@@std@@@3@$0A@@std@@@std@@QAEXXZ
_TEXT	SEGMENT PARA USE32 PUBLIC 'CODE'
_TEXT	ENDS
;	COMDAT ??0?$pair@Viterator@?$_Tree@V?$_Tmap_traits@KPAVIData@@U?$less@K@std@@V?$allocator@U?$pair@$$CBKPAVIData@@@std@@@3@$0A@@std@@@std@@_N@std@@QAE@ABViterator@?$_Tree@V?$_Tmap_traits@KPAVIData@@U?$less@K@std@@V?$allocator@U?$pair@$$CBKPAVIData@@@std@@@3@$0A@@std@@@1@AB_N@Z
_TEXT	SEGMENT PARA USE32 PUBLIC 'CODE'
_TEXT	ENDS
;	COMDAT ??0?$_Tree_nod@V?$_Tmap_traits@KPAVIData@@U?$less@K@std@@V?$allocator@U?$pair@$$CBKPAVIData@@@std@@@3@$0A@@std@@@std@@IAE@ABU?$less@K@1@V?$allocator@U?$pair@$$CBKPAVIData@@@std@@@1@@Z
_TEXT	SEGMENT PARA USE32 PUBLIC 'CODE'
_TEXT	ENDS
;	COMDAT ?max_size@?$allocator@U?$pair@$$CBKPAVIData@@@std@@@std@@QBEIXZ
_TEXT	SEGMENT PARA USE32 PUBLIC 'CODE'
_TEXT	ENDS
;	COMDAT ?allocate@?$allocator@U_Node@?$_Tree_nod@V?$_Tmap_traits@KPAVIData@@U?$less@K@std@@V?$allocator@U?$pair@$$CBKPAVIData@@@std@@@3@$0A@@std@@@std@@@std@@QAEPAU_Node@?$_Tree_nod@V?$_Tmap_traits@KPAVIData@@U?$less@K@std@@V?$allocator@U?$pair@$$CBKPAVIData@@@std@@@3@$0A@@std@@@2@I@Z
_TEXT	SEGMENT PARA USE32 PUBLIC 'CODE'
_TEXT	ENDS
;	COMDAT ?construct@?$allocator@PAU_Node@?$_Tree_nod@V?$_Tmap_traits@KPAVIData@@U?$less@K@std@@V?$allocator@U?$pair@$$CBKPAVIData@@@std@@@3@$0A@@std@@@std@@@std@@QAEXPAPAU_Node@?$_Tree_nod@V?$_Tmap_traits@KPAVIData@@U?$less@K@std@@V?$allocator@U?$pair@$$CBKPAVIData@@@std@@@3@$0A@@std@@@2@ABQAU342@@Z
_TEXT	SEGMENT PARA USE32 PUBLIC 'CODE'
_TEXT	ENDS
;	COMDAT ?_Dec@const_iterator@?$_Tree@V?$_Tmap_traits@KPAVIData@@U?$less@K@std@@V?$allocator@U?$pair@$$CBKPAVIData@@@std@@@3@$0A@@std@@@std@@QAEXXZ
_TEXT	SEGMENT PARA USE32 PUBLIC 'CODE'
_TEXT	ENDS
;	COMDAT ??0_Node@?$_Tree_nod@V?$_Tmap_traits@KPAVIData@@U?$less@K@std@@V?$allocator@U?$pair@$$CBKPAVIData@@@std@@@3@$0A@@std@@@std@@QAE@PAU012@00ABU?$pair@$$CBKPAVIData@@@2@D@Z
_TEXT	SEGMENT PARA USE32 PUBLIC 'CODE'
_TEXT	ENDS
;	COMDAT ??0?$_Tmap_traits@KPAVIData@@U?$less@K@std@@V?$allocator@U?$pair@$$CBKPAVIData@@@std@@@3@$0A@@std@@QAE@U?$less@K@1@@Z
_TEXT	SEGMENT PARA USE32 PUBLIC 'CODE'
_TEXT	ENDS
;	COMDAT ?Unlock@?$CComCritSecLock@VCComCriticalSection@ATL@@@ATL@@QAEXXZ
_TEXT	SEGMENT PARA USE32 PUBLIC 'CODE'
_TEXT	ENDS
;	COMDAT ??$_Distance@Viterator@?$_Tree@V?$_Tmap_traits@KPAVIData@@U?$less@K@std@@V?$allocator@U?$pair@$$CBKPAVIData@@@std@@@3@$0A@@std@@@std@@I@std@@YAXViterator@?$_Tree@V?$_Tmap_traits@KPAVIData@@U?$less@K@std@@V?$allocator@U?$pair@$$CBKPAVIData@@@std@@@3@$0A@@std@@@0@0AAI@Z
_TEXT	SEGMENT PARA USE32 PUBLIC 'CODE'
_TEXT	ENDS
;	COMDAT ??$_Maklocstr@D@std@@YAPADPBDPADABU_Cvtvec@@@Z
_TEXT	SEGMENT PARA USE32 PUBLIC 'CODE'
_TEXT	ENDS
;	COMDAT ??$_Destroy@U_Node@?$_Tree_nod@V?$_Tmap_traits@KPAVIData@@U?$less@K@std@@V?$allocator@U?$pair@$$CBKPAVIData@@@std@@@3@$0A@@std@@@std@@@std@@YAXPAU_Node@?$_Tree_nod@V?$_Tmap_traits@KPAVIData@@U?$less@K@std@@V?$allocator@U?$pair@$$CBKPAVIData@@@std@@@3@$0A@@std@@@0@@Z
_TEXT	SEGMENT PARA USE32 PUBLIC 'CODE'
_TEXT	ENDS
;	COMDAT ??$_Destroy@PAU_Node@?$_Tree_nod@V?$_Tmap_traits@KPAVIData@@U?$less@K@std@@V?$allocator@U?$pair@$$CBKPAVIData@@@std@@@3@$0A@@std@@@std@@@std@@YAXPAPAU_Node@?$_Tree_nod@V?$_Tmap_traits@KPAVIData@@U?$less@K@std@@V?$allocator@U?$pair@$$CBKPAVIData@@@std@@@3@$0A@@std@@@0@@Z
_TEXT	SEGMENT PARA USE32 PUBLIC 'CODE'
_TEXT	ENDS
;	COMDAT ??$?0U?$pair@$$CBKPAVIData@@@std@@@?$allocator@PAU_Node@?$_Tree_nod@V?$_Tmap_traits@KPAVIData@@U?$less@K@std@@V?$allocator@U?$pair@$$CBKPAVIData@@@std@@@3@$0A@@std@@@std@@@std@@QAE@ABV?$allocator@U?$pair@$$CBKPAVIData@@@std@@@1@@Z
_TEXT	SEGMENT PARA USE32 PUBLIC 'CODE'
_TEXT	ENDS
;	COMDAT ??$?0U?$pair@$$CBKPAVIData@@@std@@@?$allocator@U_Node@?$_Tree_nod@V?$_Tmap_traits@KPAVIData@@U?$less@K@std@@V?$allocator@U?$pair@$$CBKPAVIData@@@std@@@3@$0A@@std@@@std@@@std@@QAE@ABV?$allocator@U?$pair@$$CBKPAVIData@@@std@@@1@@Z
_TEXT	SEGMENT PARA USE32 PUBLIC 'CODE'
_TEXT	ENDS
;	COMDAT ??$_Allocate@U_Node@?$_Tree_nod@V?$_Tmap_traits@KPAVIData@@U?$less@K@std@@V?$allocator@U?$pair@$$CBKPAVIData@@@std@@@3@$0A@@std@@@std@@@std@@YAPAU_Node@?$_Tree_nod@V?$_Tmap_traits@KPAVIData@@U?$less@K@std@@V?$allocator@U?$pair@$$CBKPAVIData@@@std@@@3@$0A@@std@@@0@IPAU120@@Z
_TEXT	SEGMENT PARA USE32 PUBLIC 'CODE'
_TEXT	ENDS
;	COMDAT ??$_Construct@PAU_Node@?$_Tree_nod@V?$_Tmap_traits@KPAVIData@@U?$less@K@std@@V?$allocator@U?$pair@$$CBKPAVIData@@@std@@@3@$0A@@std@@@std@@PAU123@@std@@YAXPAPAU_Node@?$_Tree_nod@V?$_Tmap_traits@KPAVIData@@U?$less@K@std@@V?$allocator@U?$pair@$$CBKPAVIData@@@std@@@3@$0A@@std@@@0@ABQAU120@@Z
_TEXT	SEGMENT PARA USE32 PUBLIC 'CODE'
_TEXT	ENDS
;	COMDAT ??$_Iter_cat@Viterator@?$_Tree@V?$_Tmap_traits@KPAVIData@@U?$less@K@std@@V?$allocator@U?$pair@$$CBKPAVIData@@@std@@@3@$0A@@std@@@std@@@std@@YA?AUbidirectional_iterator_tag@0@ABViterator@?$_Tree@V?$_Tmap_traits@KPAVIData@@U?$less@K@std@@V?$allocator@U?$pair@$$CBKPAVIData@@@std@@@3@$0A@@std@@@0@@Z
_TEXT	SEGMENT PARA USE32 PUBLIC 'CODE'
_TEXT	ENDS
;	COMDAT ??$_Distance2@Viterator@?$_Tree@V?$_Tmap_traits@KPAVIData@@U?$less@K@std@@V?$allocator@U?$pair@$$CBKPAVIData@@@std@@@3@$0A@@std@@@std@@I@std@@YAXViterator@?$_Tree@V?$_Tmap_traits@KPAVIData@@U?$less@K@std@@V?$allocator@U?$pair@$$CBKPAVIData@@@std@@@3@$0A@@std@@@0@0AAIUbidirectional_iterator_tag@0@@Z
_TEXT	SEGMENT PARA USE32 PUBLIC 'CODE'
_TEXT	ENDS
;	COMDAT ??_R3IData@@8
rdata$r	SEGMENT DWORD USE32 PUBLIC 'CONST'
rdata$r	ENDS
;	COMDAT ??_R3CDataManager@@8
rdata$r	SEGMENT DWORD USE32 PUBLIC 'CONST'
rdata$r	ENDS
;	COMDAT ??_R3IAdData@@8
rdata$r	SEGMENT DWORD USE32 PUBLIC 'CONST'
rdata$r	ENDS
;	COMDAT ??_R3?$numpunct@_W@std@@8
rdata$r	SEGMENT DWORD USE32 PUBLIC 'CONST'
rdata$r	ENDS
;	COMDAT ??_R3?$numpunct@D@std@@8
rdata$r	SEGMENT DWORD USE32 PUBLIC 'CONST'
rdata$r	ENDS
;	COMDAT ??_R2IData@@8
rdata$r	SEGMENT DWORD USE32 PUBLIC 'CONST'
rdata$r	ENDS
;	COMDAT ??_R2CDataManager@@8
rdata$r	SEGMENT DWORD USE32 PUBLIC 'CONST'
rdata$r	ENDS
;	COMDAT ??_R2IAdData@@8
rdata$r	SEGMENT DWORD USE32 PUBLIC 'CONST'
rdata$r	ENDS
;	COMDAT ??_R2?$numpunct@_W@std@@8
rdata$r	SEGMENT DWORD USE32 PUBLIC 'CONST'
rdata$r	ENDS
;	COMDAT ??_R2?$numpunct@D@std@@8
rdata$r	SEGMENT DWORD USE32 PUBLIC 'CONST'
rdata$r	ENDS
;	COMDAT ??_R1A@?0A@A@IDataManager@@8
rdata$r	SEGMENT DWORD USE32 PUBLIC 'CONST'
rdata$r	ENDS
;	COMDAT ??_R0?AVIDataManager@@@8
_DATA	SEGMENT DWORD USE32 PUBLIC 'DATA'
_DATA	ENDS
;	COMDAT ??_R1A@?0A@A@CDataManager@@8
rdata$r	SEGMENT DWORD USE32 PUBLIC 'CONST'
rdata$r	ENDS
;	COMDAT ??_R1A@?0A@A@IData@@8
rdata$r	SEGMENT DWORD USE32 PUBLIC 'CONST'
rdata$r	ENDS
;	COMDAT ??_R1A@?0A@A@IAdData@@8
rdata$r	SEGMENT DWORD USE32 PUBLIC 'CONST'
rdata$r	ENDS
;	COMDAT ??_R1A@?0A@A@?$numpunct@_W@std@@8
rdata$r	SEGMENT DWORD USE32 PUBLIC 'CONST'
rdata$r	ENDS
;	COMDAT ??_R1A@?0A@A@facet@locale@std@@8
rdata$r	SEGMENT DWORD USE32 PUBLIC 'CONST'
rdata$r	ENDS
;	COMDAT ??_R0?AVfacet@locale@std@@@8
_DATA	SEGMENT DWORD USE32 PUBLIC 'DATA'
_DATA	ENDS
;	COMDAT ??_R1A@?0A@A@?$numpunct@D@std@@8
rdata$r	SEGMENT DWORD USE32 PUBLIC 'CONST'
rdata$r	ENDS
;	COMDAT ??_R0?AVCDataManager@@@8
_DATA	SEGMENT DWORD USE32 PUBLIC 'DATA'
_DATA	ENDS
;	COMDAT ??_R0?AVIData@@@8
_DATA	SEGMENT DWORD USE32 PUBLIC 'DATA'
_DATA	ENDS
;	COMDAT ??_R0?AVIAdData@@@8
_DATA	SEGMENT DWORD USE32 PUBLIC 'DATA'
_DATA	ENDS
;	COMDAT ??_R0?AV?$numpunct@_W@std@@@8
_DATA	SEGMENT DWORD USE32 PUBLIC 'DATA'
_DATA	ENDS
;	COMDAT ??_R0?AV?$numpunct@D@std@@@8
_DATA	SEGMENT DWORD USE32 PUBLIC 'DATA'
_DATA	ENDS
;	COMDAT ??_R4IData@@6B@
rdata$r	SEGMENT DWORD USE32 PUBLIC 'CONST'
rdata$r	ENDS
;	COMDAT ??_R4CDataManager@@6B@
rdata$r	SEGMENT DWORD USE32 PUBLIC 'CONST'
rdata$r	ENDS
;	COMDAT ??_R4IAdData@@6B@
rdata$r	SEGMENT DWORD USE32 PUBLIC 'CONST'
rdata$r	ENDS
;	COMDAT ??0?$allocator@_W@std@@QAE@XZ
_TEXT	SEGMENT PARA USE32 PUBLIC 'CODE'
_TEXT	ENDS
;	COMDAT ??_G?$numpunct@_W@std@@MAEPAXI@Z
_TEXT	SEGMENT PARA USE32 PUBLIC 'CODE'
_TEXT	ENDS
;	COMDAT ??_R4?$numpunct@_W@std@@6B@
rdata$r	SEGMENT DWORD USE32 PUBLIC 'CONST'
rdata$r	ENDS
;	COMDAT ??_G?$numpunct@D@std@@MAEPAXI@Z
_TEXT	SEGMENT PARA USE32 PUBLIC 'CODE'
_TEXT	ENDS
;	COMDAT ??_R4?$numpunct@D@std@@6B@
rdata$r	SEGMENT DWORD USE32 PUBLIC 'CONST'
rdata$r	ENDS
;	COMDAT ?_Psave@?$_Facetptr@V?$numpunct@_W@std@@@std@@2PBVfacet@locale@2@B
_DATA	SEGMENT DWORD USE32 PUBLIC 'DATA'
_DATA	ENDS
;	COMDAT ?_Psave@?$_Facetptr@V?$numpunct@D@std@@@std@@2PBVfacet@locale@2@B
_DATA	SEGMENT DWORD USE32 PUBLIC 'DATA'
_DATA	ENDS
;	COMDAT ?Unlock@CComCriticalSection@ATL@@QAEJXZ
_TEXT	SEGMENT PARA USE32 PUBLIC 'CODE'
_TEXT	ENDS
;	COMDAT ?_Psave@?$_Facetptr@V?$ctype@_W@std@@@std@@2PBVfacet@locale@2@B
_DATA	SEGMENT DWORD USE32 PUBLIC 'DATA'
_DATA	ENDS
;	COMDAT ?_Psave@?$_Facetptr@V?$ctype@D@std@@@std@@2PBVfacet@locale@2@B
_DATA	SEGMENT DWORD USE32 PUBLIC 'DATA'
_DATA	ENDS
;	COMDAT ??3@YAXPAX0@Z
_TEXT	SEGMENT PARA USE32 PUBLIC 'CODE'
_TEXT	ENDS
;	COMDAT ??2@YAPAXIPAX@Z
_TEXT	SEGMENT PARA USE32 PUBLIC 'CODE'
_TEXT	ENDS
;	COMDAT ??_7length_error@std@@6B@
CONST	SEGMENT DWORD USE32 PUBLIC 'CONST'
CONST	ENDS
;	COMDAT ??_R4length_error@std@@6B@
rdata$r	SEGMENT DWORD USE32 PUBLIC 'CONST'
rdata$r	ENDS
;	COMDAT ??_R3length_error@std@@8
rdata$r	SEGMENT DWORD USE32 PUBLIC 'CONST'
rdata$r	ENDS
;	COMDAT ??_R2length_error@std@@8
rdata$r	SEGMENT DWORD USE32 PUBLIC 'CONST'
rdata$r	ENDS
;	COMDAT ??_R1A@?0A@A@length_error@std@@8
rdata$r	SEGMENT DWORD USE32 PUBLIC 'CONST'
rdata$r	ENDS
;	COMDAT ??_R1A@?0A@A@logic_error@std@@8
rdata$r	SEGMENT DWORD USE32 PUBLIC 'CONST'
rdata$r	ENDS
;	COMDAT ??_R0?AVlogic_error@std@@@8
_DATA	SEGMENT DWORD USE32 PUBLIC 'DATA'
_DATA	ENDS
;	COMDAT ??_R1A@?0A@A@exception@@8
rdata$r	SEGMENT DWORD USE32 PUBLIC 'CONST'
rdata$r	ENDS
;	COMDAT ??_R0?AVexception@@@8
_DATA	SEGMENT DWORD USE32 PUBLIC 'DATA'
_DATA	ENDS
;	COMDAT ??_Glength_error@std@@UAEPAXI@Z
_TEXT	SEGMENT PARA USE32 PUBLIC 'CODE'
_TEXT	ENDS
;	COMDAT ?what@logic_error@std@@UBEPBDXZ
_TEXT	SEGMENT PARA USE32 PUBLIC 'CODE'
_TEXT	ENDS
;	COMDAT ??1logic_error@std@@UAE@XZ
_TEXT	SEGMENT PARA USE32 PUBLIC 'CODE'
_TEXT	ENDS
;	COMDAT ??_7logic_error@std@@6B@
CONST	SEGMENT DWORD USE32 PUBLIC 'CONST'
CONST	ENDS
;	COMDAT ??_R4logic_error@std@@6B@
rdata$r	SEGMENT DWORD USE32 PUBLIC 'CONST'
rdata$r	ENDS
;	COMDAT ??_R3logic_error@std@@8
rdata$r	SEGMENT DWORD USE32 PUBLIC 'CONST'
rdata$r	ENDS
;	COMDAT ??_R2logic_error@std@@8
rdata$r	SEGMENT DWORD USE32 PUBLIC 'CONST'
rdata$r	ENDS
;	COMDAT ??_Glogic_error@std@@UAEPAXI@Z
_TEXT	SEGMENT PARA USE32 PUBLIC 'CODE'
_TEXT	ENDS
;	COMDAT ??0logic_error@std@@QAE@ABV01@@Z
_TEXT	SEGMENT PARA USE32 PUBLIC 'CODE'
_TEXT	ENDS
;	COMDAT ??0?$allocator@D@std@@QAE@ABV01@@Z
_TEXT	SEGMENT PARA USE32 PUBLIC 'CODE'
_TEXT	ENDS
;	COMDAT ?deallocate@?$allocator@D@std@@QAEXPADI@Z
_TEXT	SEGMENT PARA USE32 PUBLIC 'CODE'
_TEXT	ENDS
;	COMDAT ?max_size@?$allocator@D@std@@QBEIXZ
_TEXT	SEGMENT PARA USE32 PUBLIC 'CODE'
_TEXT	ENDS
;	COMDAT ?allocate@?$allocator@D@std@@QAEPADI@Z
_TEXT	SEGMENT PARA USE32 PUBLIC 'CODE'
_TEXT	ENDS
;	COMDAT ??$_Allocate@D@std@@YAPADIPAD@Z
_TEXT	SEGMENT PARA USE32 PUBLIC 'CODE'
_TEXT	ENDS
;	COMDAT __CTA3?AVlength_error@std@@
xdata$x	SEGMENT DWORD USE32 PUBLIC 'CONST'
xdata$x	ENDS
;	COMDAT ??1length_error@std@@UAE@XZ
_TEXT	SEGMENT PARA USE32 PUBLIC 'CODE'
_TEXT	ENDS
;	COMDAT __CT??_R0?AVexception@@@8??0exception@@QAE@ABV0@@Z12
xdata$x	SEGMENT DWORD USE32 PUBLIC 'CONST'
xdata$x	ENDS
;	COMDAT __CT??_R0?AVlogic_error@std@@@8??0logic_error@std@@QAE@ABV01@@Z40
xdata$x	SEGMENT DWORD USE32 PUBLIC 'CONST'
xdata$x	ENDS
;	COMDAT __CT??_R0?AVlength_error@std@@@8??0length_error@std@@QAE@ABV01@@Z40
xdata$x	SEGMENT DWORD USE32 PUBLIC 'CONST'
xdata$x	ENDS
;	COMDAT ??_R0?AVlength_error@std@@@8
_DATA	SEGMENT DWORD USE32 PUBLIC 'DATA'
_DATA	ENDS
;	COMDAT __TI3?AVlength_error@std@@
xdata$x	SEGMENT DWORD USE32 PUBLIC 'CONST'
xdata$x	ENDS
;	COMDAT ??0length_error@std@@QAE@ABV?$basic_string@DU?$char_traits@D@std@@V?$allocator@D@2@@1@@Z
_TEXT	SEGMENT PARA USE32 PUBLIC 'CODE'
_TEXT	ENDS
;	COMDAT ??0logic_error@std@@QAE@ABV?$basic_string@DU?$char_traits@D@std@@V?$allocator@D@2@@1@@Z
_TEXT	SEGMENT PARA USE32 PUBLIC 'CODE'
_TEXT	ENDS
;	COMDAT ??$swap@D@std@@YAXAAD0@Z
_TEXT	SEGMENT PARA USE32 PUBLIC 'CODE'
_TEXT	ENDS
;	COMDAT __TI3?AVout_of_range@std@@
xdata$x	SEGMENT DWORD USE32 PUBLIC 'CONST'
xdata$x	ENDS
;	COMDAT ??1out_of_range@std@@UAE@XZ
_TEXT	SEGMENT PARA USE32 PUBLIC 'CODE'
_TEXT	ENDS
;	COMDAT ??_7out_of_range@std@@6B@
CONST	SEGMENT DWORD USE32 PUBLIC 'CONST'
CONST	ENDS
;	COMDAT ??_R4out_of_range@std@@6B@
rdata$r	SEGMENT DWORD USE32 PUBLIC 'CONST'
rdata$r	ENDS
;	COMDAT ??_R0?AVout_of_range@std@@@8
_DATA	SEGMENT DWORD USE32 PUBLIC 'DATA'
_DATA	ENDS
;	COMDAT ??_R3out_of_range@std@@8
rdata$r	SEGMENT DWORD USE32 PUBLIC 'CONST'
rdata$r	ENDS
;	COMDAT ??_R2out_of_range@std@@8
rdata$r	SEGMENT DWORD USE32 PUBLIC 'CONST'
rdata$r	ENDS
;	COMDAT ??_R1A@?0A@A@out_of_range@std@@8
rdata$r	SEGMENT DWORD USE32 PUBLIC 'CONST'
rdata$r	ENDS
;	COMDAT ??_Gout_of_range@std@@UAEPAXI@Z
_TEXT	SEGMENT PARA USE32 PUBLIC 'CODE'
_TEXT	ENDS
;	COMDAT __CTA3?AVout_of_range@std@@
xdata$x	SEGMENT DWORD USE32 PUBLIC 'CONST'
xdata$x	ENDS
;	COMDAT __CT??_R0?AVout_of_range@std@@@8??0out_of_range@std@@QAE@ABV01@@Z40
xdata$x	SEGMENT DWORD USE32 PUBLIC 'CONST'
xdata$x	ENDS
;	COMDAT ??0out_of_range@std@@QAE@ABV01@@Z
_TEXT	SEGMENT PARA USE32 PUBLIC 'CODE'
_TEXT	ENDS
;	COMDAT ??_C@_0BM@PAPJHAGI@invalid?5map?1set?$DMT?$DO?5iterator?$AA@
CONST	SEGMENT DWORD USE32 PUBLIC 'CONST'
CONST	ENDS
;	COMDAT ??0out_of_range@std@@QAE@ABV?$basic_string@DU?$char_traits@D@std@@V?$allocator@D@2@@1@@Z
_TEXT	SEGMENT PARA USE32 PUBLIC 'CODE'
_TEXT	ENDS
;	COMDAT ??$_Maklocchr@_W@std@@YA_WDPA_WABU_Cvtvec@@@Z
_TEXT	SEGMENT PARA USE32 PUBLIC 'CODE'
_TEXT	ENDS
;	COMDAT ??$_Maklocstr@_W@std@@YAPA_WPBDPA_WABU_Cvtvec@@@Z
_TEXT	SEGMENT PARA USE32 PUBLIC 'CODE'
_TEXT	ENDS
;	COMDAT ??$_Maklocchr@D@std@@YADDPADABU_Cvtvec@@@Z
_TEXT	SEGMENT PARA USE32 PUBLIC 'CODE'
_TEXT	ENDS
;	COMDAT ??_C@_04LOAJBDKD@true?$AA@
CONST	SEGMENT DWORD USE32 PUBLIC 'CONST'
CONST	ENDS
;	COMDAT ??_C@_05LAPONLG@false?$AA@
CONST	SEGMENT DWORD USE32 PUBLIC 'CONST'
CONST	ENDS
;	COMDAT _wmemcpy
_TEXT	SEGMENT PARA USE32 PUBLIC 'CODE'
_TEXT	ENDS
;	COMDAT ?max_size@?$allocator@_W@std@@QBEIXZ
_TEXT	SEGMENT PARA USE32 PUBLIC 'CODE'
_TEXT	ENDS
;	COMDAT ?allocate@?$allocator@_W@std@@QAEPA_WI@Z
_TEXT	SEGMENT PARA USE32 PUBLIC 'CODE'
_TEXT	ENDS
;	COMDAT ??$_Allocate@_W@std@@YAPA_WIPA_W@Z
_TEXT	SEGMENT PARA USE32 PUBLIC 'CODE'
_TEXT	ENDS
;	COMDAT ??_C@_01GFHCPBMG@C?$AA@
CONST	SEGMENT DWORD USE32 PUBLIC 'CONST'
CONST	ENDS
;	COMDAT ?_Peek@?$istreambuf_iterator@_WU?$char_traits@_W@std@@@std@@AAE_WXZ
_TEXT	SEGMENT PARA USE32 PUBLIC 'CODE'
_TEXT	ENDS
;	COMDAT ?_Peek@?$istreambuf_iterator@DU?$char_traits@D@std@@@std@@AAEDXZ
_TEXT	SEGMENT PARA USE32 PUBLIC 'CODE'
_TEXT	ENDS
;	COMDAT ??$use_facet@V?$ctype@_W@std@@@std@@YAABV?$ctype@_W@0@ABVlocale@0@@Z
_TEXT	SEGMENT PARA USE32 PUBLIC 'CODE'
_TEXT	ENDS
;	COMDAT ??_S?$ctype@_W@std@@6B@
CONST	SEGMENT DWORD USE32 PUBLIC 'CONST'
CONST	ENDS
;	COMDAT ??_R4?$ctype@_W@std@@6B@
rdata$r	SEGMENT DWORD USE32 PUBLIC 'CONST'
rdata$r	ENDS
;	COMDAT ??_R0?AV?$ctype@_W@std@@@8
_DATA	SEGMENT DWORD USE32 PUBLIC 'DATA'
_DATA	ENDS
;	COMDAT ??_R3?$ctype@_W@std@@8
rdata$r	SEGMENT DWORD USE32 PUBLIC 'CONST'
rdata$r	ENDS
;	COMDAT ??_R2?$ctype@_W@std@@8
rdata$r	SEGMENT DWORD USE32 PUBLIC 'CONST'
rdata$r	ENDS
;	COMDAT ??_R1A@?0A@A@?$ctype@_W@std@@8
rdata$r	SEGMENT DWORD USE32 PUBLIC 'CONST'
rdata$r	ENDS
;	COMDAT ??_R1A@?0A@A@ctype_base@std@@8
rdata$r	SEGMENT DWORD USE32 PUBLIC 'CONST'
rdata$r	ENDS
;	COMDAT ??_R0?AUctype_base@std@@@8
_DATA	SEGMENT DWORD USE32 PUBLIC 'DATA'
_DATA	ENDS
;	COMDAT ??_G?$ctype@_W@std@@MAEPAXI@Z
_TEXT	SEGMENT PARA USE32 PUBLIC 'CODE'
_TEXT	ENDS
;	COMDAT ??_C@_08EPJLHIJG@bad?5cast?$AA@
CONST	SEGMENT DWORD USE32 PUBLIC 'CONST'
CONST	ENDS
;	COMDAT __TI2?AVbad_cast@@
xdata$x	SEGMENT DWORD USE32 PUBLIC 'CONST'
xdata$x	ENDS
;	COMDAT __CTA2?AVbad_cast@@
xdata$x	SEGMENT DWORD USE32 PUBLIC 'CONST'
xdata$x	ENDS
;	COMDAT __CT??_R0?AVbad_cast@@@8??0bad_cast@@QAE@ABV0@@Z12
xdata$x	SEGMENT DWORD USE32 PUBLIC 'CONST'
xdata$x	ENDS
;	COMDAT ??_R0?AVbad_cast@@@8
_DATA	SEGMENT DWORD USE32 PUBLIC 'DATA'
_DATA	ENDS
;	COMDAT ??$use_facet@V?$ctype@D@std@@@std@@YAABV?$ctype@D@0@ABVlocale@0@@Z
_TEXT	SEGMENT PARA USE32 PUBLIC 'CODE'
_TEXT	ENDS
;	COMDAT ??_S?$ctype@D@std@@6B@
CONST	SEGMENT DWORD USE32 PUBLIC 'CONST'
CONST	ENDS
;	COMDAT ??_R4?$ctype@D@std@@6B@
rdata$r	SEGMENT DWORD USE32 PUBLIC 'CONST'
rdata$r	ENDS
;	COMDAT ??_R0?AV?$ctype@D@std@@@8
_DATA	SEGMENT DWORD USE32 PUBLIC 'DATA'
_DATA	ENDS
;	COMDAT ??_R3?$ctype@D@std@@8
rdata$r	SEGMENT DWORD USE32 PUBLIC 'CONST'
rdata$r	ENDS
;	COMDAT ??_R2?$ctype@D@std@@8
rdata$r	SEGMENT DWORD USE32 PUBLIC 'CONST'
rdata$r	ENDS
;	COMDAT ??_R1A@?0A@A@?$ctype@D@std@@8
rdata$r	SEGMENT DWORD USE32 PUBLIC 'CONST'
rdata$r	ENDS
;	COMDAT ??_G?$ctype@D@std@@MAEPAXI@Z
_TEXT	SEGMENT PARA USE32 PUBLIC 'CODE'
_TEXT	ENDS
;	COMDAT ??_S?$numpunct@_W@std@@6B@
CONST	SEGMENT DWORD USE32 PUBLIC 'CONST'
CONST	ENDS
;	COMDAT ??_S?$numpunct@D@std@@6B@
CONST	SEGMENT DWORD USE32 PUBLIC 'CONST'
CONST	ENDS
;	COMDAT _wmemmove
_TEXT	SEGMENT PARA USE32 PUBLIC 'CODE'
_TEXT	ENDS
;	COMDAT ?deallocate@?$allocator@_W@std@@QAEXPA_WI@Z
_TEXT	SEGMENT PARA USE32 PUBLIC 'CODE'
_TEXT	ENDS
;	COMDAT ??0?$allocator@_W@std@@QAE@ABV01@@Z
_TEXT	SEGMENT PARA USE32 PUBLIC 'CODE'
_TEXT	ENDS
;	COMDAT ??0?$allocator@D@std@@QAE@XZ
_TEXT	SEGMENT PARA USE32 PUBLIC 'CODE'
_TEXT	ENDS
;	COMDAT ??_7IDataManager@@6B@
CONST	SEGMENT DWORD USE32 PUBLIC 'CONST'
CONST	ENDS
;	COMDAT ??_R4IDataManager@@6B@
rdata$r	SEGMENT DWORD USE32 PUBLIC 'CONST'
rdata$r	ENDS
;	COMDAT ??_R3IDataManager@@8
rdata$r	SEGMENT DWORD USE32 PUBLIC 'CONST'
rdata$r	ENDS
;	COMDAT ??_R2IDataManager@@8
rdata$r	SEGMENT DWORD USE32 PUBLIC 'CONST'
rdata$r	ENDS
;	COMDAT ??_GIDataManager@@UAEPAXI@Z
_TEXT	SEGMENT PARA USE32 PUBLIC 'CODE'
_TEXT	ENDS
;	COMDAT ??_7CDataManager@@6B@
CONST	SEGMENT DWORD USE32 PUBLIC 'CONST'
CONST	ENDS
;	COMDAT ??1IDataManager@@UAE@XZ
_TEXT	SEGMENT PARA USE32 PUBLIC 'CODE'
_TEXT	ENDS
;	COMDAT ??_7IAdData@@6B@
CONST	SEGMENT DWORD USE32 PUBLIC 'CONST'
CONST	ENDS
;	COMDAT ??_7IData@@6B@
CONST	SEGMENT DWORD USE32 PUBLIC 'CONST'
CONST	ENDS
sxdata	SEGMENT DWORD USE32 'SXDATA'
sxdata	ENDS
FLAT	GROUP _DATA, CONST, _BSS
	ASSUME	CS: FLAT, DS: FLAT, SS: FLAT
endif

INCLUDELIB MSVCRT
INCLUDELIB OLDNAMES

CONST	SEGMENT
$SG199104 DB	'DataManAppStart======IN', 00H
$SG199105 DB	'DataManager', 00H
$SG199106 DB	'main.txt', 00H
	ORG $+3
$SG199109 DB	'DataManAppStart======OUT', 00H
	ORG $+3
$SG199110 DB	'DataManager', 00H
$SG199111 DB	'main.txt', 00H
	ORG $+3
$SG199117 DB	'DataManAppExit======IN', 00H
	ORG $+1
$SG199118 DB	'DataManager', 00H
$SG199119 DB	'main.txt', 00H
	ORG $+3
$SG199230 DB	'DataManAppExit--OUT', 00H
$SG199231 DB	'DataManager', 00H
$SG199232 DB	'main.txt', 00H
CONST	ENDS
PUBLIC	??0?$map@KPAVIData@@U?$less@K@std@@V?$allocator@U?$pair@$$CBKPAVIData@@@std@@@3@@std@@QAE@XZ ; std::map<unsigned long,IData *,std::less<unsigned long>,std::allocator<std::pair<unsigned long const ,IData *> > >::map<unsigned long,IData *,std::less<unsigned long>,std::allocator<std::pair<unsigned long const ,IData *> > >
PUBLIC	??1?$map@KPAVIData@@U?$less@K@std@@V?$allocator@U?$pair@$$CBKPAVIData@@@std@@@3@@std@@QAE@XZ ; std::map<unsigned long,IData *,std::less<unsigned long>,std::allocator<std::pair<unsigned long const ,IData *> > >::~map<unsigned long,IData *,std::less<unsigned long>,std::allocator<std::pair<unsigned long const ,IData *> > >
PUBLIC	??_7CDataManager@@6B@				; CDataManager::`vftable'
PUBLIC	??_GCDataManager@@UAEPAXI@Z			; CDataManager::`scalar deleting destructor'
PUBLIC	??1IDataManager@@UAE@XZ				; IDataManager::~IDataManager
PUBLIC	??0IDataManager@@QAE@XZ				; IDataManager::IDataManager
PUBLIC	??_R4CDataManager@@6B@				; CDataManager::`RTTI Complete Object Locator'
PUBLIC	??_R0?AVCDataManager@@@8			; CDataManager `RTTI Type Descriptor'
PUBLIC	??_R3CDataManager@@8				; CDataManager::`RTTI Class Hierarchy Descriptor'
PUBLIC	??_R2CDataManager@@8				; CDataManager::`RTTI Base Class Array'
PUBLIC	??_R1A@?0A@A@CDataManager@@8			; CDataManager::`RTTI Base Class Descriptor at (0,-1,0,0)'
PUBLIC	??0CDataManager@@QAE@XZ				; CDataManager::CDataManager
PUBLIC	?DataManAppStart@CDataManager@@UAEXXZ		; CDataManager::DataManAppStart
PUBLIC	?DataManAppExit@CDataManager@@UAEXXZ		; CDataManager::DataManAppExit
PUBLIC	?GetDataObject@CDataManager@@UAEPAVIData@@ABK@Z	; CDataManager::GetDataObject
PUBLIC	?AddDataObject@CDataManager@@UAEXABKPAVIData@@@Z ; CDataManager::AddDataObject
PUBLIC	?RemoveDataObject@CDataManager@@UAEXABK@Z	; CDataManager::RemoveDataObject
PUBLIC	??_R0?AVIDataManager@@@8			; IDataManager `RTTI Type Descriptor'
PUBLIC	??_R1A@?0A@A@IDataManager@@8			; IDataManager::`RTTI Base Class Descriptor at (0,-1,0,0)'
PUBLIC	?clear@?$_Tree@V?$_Tmap_traits@KPAVIData@@U?$less@K@std@@V?$allocator@U?$pair@$$CBKPAVIData@@@std@@@3@$0A@@std@@@std@@QAEXXZ ; std::_Tree<std::_Tmap_traits<unsigned long,IData *,std::less<unsigned long>,std::allocator<std::pair<unsigned long const ,IData *> >,0> >::clear
EXTRN	??_ECDataManager@@UAEPAXI@Z:NEAR		; CDataManager::`vector deleting destructor'
EXTRN	__imp__InitializeCriticalSection@4:NEAR
EXTRN	__except_list:DWORD
EXTRN	___CxxFrameHandler:NEAR
EXTRN	??_7type_info@@6B@:QWORD			; type_info::`vftable'
xdata$x	SEGMENT
$T200504 DD	0ffffffffH
	DD	FLAT:$L200496
	DD	00H
	DD	FLAT:$L200497
$T200501 DD	019930520H
	DD	02H
	DD	FLAT:$T200504
	DD	2 DUP(00H)
	DD	2 DUP(00H)
xdata$x	ENDS
;	COMDAT ??_7CDataManager@@6B@
; File d:\boxgit\playbox\playbox\dev\prj\playbox\src\core\cdatamanager.cpp
CONST	SEGMENT
??_7CDataManager@@6B@ DD FLAT:??_R4CDataManager@@6B@	; CDataManager::`vftable'
	DD	FLAT:??_ECDataManager@@UAEPAXI@Z
	DD	FLAT:?DataManAppStart@CDataManager@@UAEXXZ
	DD	FLAT:?DataManAppExit@CDataManager@@UAEXXZ
	DD	FLAT:?GetDataObject@CDataManager@@UAEPAVIData@@ABK@Z
	DD	FLAT:?AddDataObject@CDataManager@@UAEXABKPAVIData@@@Z
	DD	FLAT:?RemoveDataObject@CDataManager@@UAEXABK@Z
CONST	ENDS
;	COMDAT ??_R4CDataManager@@6B@
rdata$r	SEGMENT
??_R4CDataManager@@6B@ DD 00H				; CDataManager::`RTTI Complete Object Locator'
	DD	00H
	DD	00H
	DD	FLAT:??_R0?AVCDataManager@@@8
	DD	FLAT:??_R3CDataManager@@8
rdata$r	ENDS
;	COMDAT ??_R0?AVCDataManager@@@8
_DATA	SEGMENT
??_R0?AVCDataManager@@@8 DD FLAT:??_7type_info@@6B@	; CDataManager `RTTI Type Descriptor'
	DD	00H
	DB	'.?AVCDataManager@@', 00H
_DATA	ENDS
;	COMDAT ??_R3CDataManager@@8
rdata$r	SEGMENT
??_R3CDataManager@@8 DD 00H				; CDataManager::`RTTI Class Hierarchy Descriptor'
	DD	00H
	DD	02H
	DD	FLAT:??_R2CDataManager@@8
rdata$r	ENDS
;	COMDAT ??_R2CDataManager@@8
rdata$r	SEGMENT
??_R2CDataManager@@8 DD FLAT:??_R1A@?0A@A@CDataManager@@8 ; CDataManager::`RTTI Base Class Array'
	DD	FLAT:??_R1A@?0A@A@IDataManager@@8
rdata$r	ENDS
;	COMDAT ??_R1A@?0A@A@CDataManager@@8
rdata$r	SEGMENT
??_R1A@?0A@A@CDataManager@@8 DD FLAT:??_R0?AVCDataManager@@@8 ; CDataManager::`RTTI Base Class Descriptor at (0,-1,0,0)'
	DD	01H
	DD	00H
	DD	0ffffffffH
	DD	00H
	DD	00H
rdata$r	ENDS
;	COMDAT ??_R1A@?0A@A@IDataManager@@8
rdata$r	SEGMENT
??_R1A@?0A@A@IDataManager@@8 DD FLAT:??_R0?AVIDataManager@@@8 ; IDataManager::`RTTI Base Class Descriptor at (0,-1,0,0)'
	DD	00H
	DD	00H
	DD	0ffffffffH
	DD	00H
	DD	00H
rdata$r	ENDS
;	COMDAT ??_R0?AVIDataManager@@@8
_DATA	SEGMENT
??_R0?AVIDataManager@@@8 DD FLAT:??_7type_info@@6B@	; IDataManager `RTTI Type Descriptor'
	DD	00H
	DB	'.?AVIDataManager@@', 00H
; Function compile flags: /Odt
_DATA	ENDS
_TEXT	SEGMENT
_this$ = -16						; size = 4
__$EHRec$ = -12						; size = 12
??0CDataManager@@QAE@XZ PROC NEAR			; CDataManager::CDataManager
; _this$ = ecx

; 7    : {

  00000	55		 push	 ebp
  00001	8b ec		 mov	 ebp, esp
  00003	6a ff		 push	 -1
  00005	68 00 00 00 00	 push	 __ehhandler$??0CDataManager@@QAE@XZ
  0000a	64 a1 00 00 00
	00		 mov	 eax, DWORD PTR fs:__except_list
  00010	50		 push	 eax
  00011	64 89 25 00 00
	00 00		 mov	 DWORD PTR fs:__except_list, esp
  00018	51		 push	 ecx
  00019	89 4d f0	 mov	 DWORD PTR _this$[ebp], ecx
  0001c	8b 4d f0	 mov	 ecx, DWORD PTR _this$[ebp]
  0001f	e8 00 00 00 00	 call	 ??0IDataManager@@QAE@XZ
  00024	c7 45 fc 00 00
	00 00		 mov	 DWORD PTR __$EHRec$[ebp+8], 0
  0002b	8b 45 f0	 mov	 eax, DWORD PTR _this$[ebp]
  0002e	c7 00 00 00 00
	00		 mov	 DWORD PTR [eax], OFFSET FLAT:??_7CDataManager@@6B@
  00034	8b 4d f0	 mov	 ecx, DWORD PTR _this$[ebp]
  00037	83 c1 04	 add	 ecx, 4
  0003a	e8 00 00 00 00	 call	 ??0?$map@KPAVIData@@U?$less@K@std@@V?$allocator@U?$pair@$$CBKPAVIData@@@std@@@3@@std@@QAE@XZ ; std::map<unsigned long,IData *,std::less<unsigned long>,std::allocator<std::pair<unsigned long const ,IData *> > >::map<unsigned long,IData *,std::less<unsigned long>,std::allocator<std::pair<unsigned long const ,IData *> > >
  0003f	c6 45 fc 01	 mov	 BYTE PTR __$EHRec$[ebp+8], 1

; 8    : 	m_mapDataObject.clear();	

  00043	8b 4d f0	 mov	 ecx, DWORD PTR _this$[ebp]
  00046	83 c1 04	 add	 ecx, 4
  00049	e8 00 00 00 00	 call	 ?clear@?$_Tree@V?$_Tmap_traits@KPAVIData@@U?$less@K@std@@V?$allocator@U?$pair@$$CBKPAVIData@@@std@@@3@$0A@@std@@@std@@QAEXXZ ; std::_Tree<std::_Tmap_traits<unsigned long,IData *,std::less<unsigned long>,std::allocator<std::pair<unsigned long const ,IData *> >,0> >::clear

; 9    : 	InitializeCriticalSection(&m_csData);

  0004e	8b 4d f0	 mov	 ecx, DWORD PTR _this$[ebp]
  00051	83 c1 10	 add	 ecx, 16			; 00000010H
  00054	51		 push	 ecx
  00055	ff 15 00 00 00
	00		 call	 DWORD PTR __imp__InitializeCriticalSection@4

; 10   : }

  0005b	c7 45 fc ff ff
	ff ff		 mov	 DWORD PTR __$EHRec$[ebp+8], -1
  00062	8b 45 f0	 mov	 eax, DWORD PTR _this$[ebp]
  00065	8b 4d f4	 mov	 ecx, DWORD PTR __$EHRec$[ebp]
  00068	64 89 0d 00 00
	00 00		 mov	 DWORD PTR fs:__except_list, ecx
  0006f	8b e5		 mov	 esp, ebp
  00071	5d		 pop	 ebp
  00072	c3		 ret	 0
_TEXT	ENDS
text$x	SEGMENT
$L200496:
  00000	8b 4d f0	 mov	 ecx, DWORD PTR _this$[ebp]
  00003	e9 00 00 00 00	 jmp	 ??1IDataManager@@UAE@XZ	; IDataManager::~IDataManager
$L200497:
  00008	8b 4d f0	 mov	 ecx, DWORD PTR _this$[ebp]
  0000b	83 c1 04	 add	 ecx, 4
  0000e	e9 00 00 00 00	 jmp	 ??1?$map@KPAVIData@@U?$less@K@std@@V?$allocator@U?$pair@$$CBKPAVIData@@@std@@@3@@std@@QAE@XZ
__ehhandler$??0CDataManager@@QAE@XZ:
  00013	b8 00 00 00 00	 mov	 eax, OFFSET FLAT:$T200501
  00018	e9 00 00 00 00	 jmp	 ___CxxFrameHandler
text$x	ENDS
??0CDataManager@@QAE@XZ ENDP				; CDataManager::CDataManager
PUBLIC	??1CDataManager@@UAE@XZ				; CDataManager::~CDataManager
EXTRN	??3@YAXPAX@Z:NEAR				; operator delete
; Function compile flags: /Odt
;	COMDAT ??_GCDataManager@@UAEPAXI@Z
_TEXT	SEGMENT
_this$ = -4						; size = 4
___flags$ = 8						; size = 4
??_GCDataManager@@UAEPAXI@Z PROC NEAR			; CDataManager::`scalar deleting destructor', COMDAT
; _this$ = ecx
  00000	55		 push	 ebp
  00001	8b ec		 mov	 ebp, esp
  00003	51		 push	 ecx
  00004	89 4d fc	 mov	 DWORD PTR _this$[ebp], ecx
  00007	8b 4d fc	 mov	 ecx, DWORD PTR _this$[ebp]
  0000a	e8 00 00 00 00	 call	 ??1CDataManager@@UAE@XZ	; CDataManager::~CDataManager
  0000f	8b 45 08	 mov	 eax, DWORD PTR ___flags$[ebp]
  00012	83 e0 01	 and	 eax, 1
  00015	74 0c		 je	 SHORT $L199091
  00017	8b 4d fc	 mov	 ecx, DWORD PTR _this$[ebp]
  0001a	51		 push	 ecx
  0001b	e8 00 00 00 00	 call	 ??3@YAXPAX@Z		; operator delete
  00020	83 c4 04	 add	 esp, 4
$L199091:
  00023	8b 45 fc	 mov	 eax, DWORD PTR _this$[ebp]
  00026	8b e5		 mov	 esp, ebp
  00028	5d		 pop	 ebp
  00029	c2 04 00	 ret	 4
??_GCDataManager@@UAEPAXI@Z ENDP			; CDataManager::`scalar deleting destructor'
_TEXT	ENDS
PUBLIC	??_7IDataManager@@6B@				; IDataManager::`vftable'
PUBLIC	??_GIDataManager@@UAEPAXI@Z			; IDataManager::`scalar deleting destructor'
PUBLIC	??_R4IDataManager@@6B@				; IDataManager::`RTTI Complete Object Locator'
PUBLIC	??_R3IDataManager@@8				; IDataManager::`RTTI Class Hierarchy Descriptor'
PUBLIC	??_R2IDataManager@@8				; IDataManager::`RTTI Base Class Array'
EXTRN	??_EIDataManager@@UAEPAXI@Z:NEAR		; IDataManager::`vector deleting destructor'
EXTRN	__purecall:NEAR
;	COMDAT ??_7IDataManager@@6B@
CONST	SEGMENT
??_7IDataManager@@6B@ DD FLAT:??_R4IDataManager@@6B@	; IDataManager::`vftable'
	DD	FLAT:??_EIDataManager@@UAEPAXI@Z
	DD	FLAT:__purecall
	DD	FLAT:__purecall
	DD	FLAT:__purecall
	DD	FLAT:__purecall
	DD	FLAT:__purecall
CONST	ENDS
;	COMDAT ??_R4IDataManager@@6B@
rdata$r	SEGMENT
??_R4IDataManager@@6B@ DD 00H				; IDataManager::`RTTI Complete Object Locator'
	DD	00H
	DD	00H
	DD	FLAT:??_R0?AVIDataManager@@@8
	DD	FLAT:??_R3IDataManager@@8
rdata$r	ENDS
;	COMDAT ??_R3IDataManager@@8
rdata$r	SEGMENT
??_R3IDataManager@@8 DD 00H				; IDataManager::`RTTI Class Hierarchy Descriptor'
	DD	00H
	DD	01H
	DD	FLAT:??_R2IDataManager@@8
rdata$r	ENDS
;	COMDAT ??_R2IDataManager@@8
rdata$r	SEGMENT
??_R2IDataManager@@8 DD FLAT:??_R1A@?0A@A@IDataManager@@8 ; IDataManager::`RTTI Base Class Array'
; Function compile flags: /Odt
rdata$r	ENDS
;	COMDAT ??0IDataManager@@QAE@XZ
_TEXT	SEGMENT
_this$ = -4						; size = 4
??0IDataManager@@QAE@XZ PROC NEAR			; IDataManager::IDataManager, COMDAT
; _this$ = ecx
  00000	55		 push	 ebp
  00001	8b ec		 mov	 ebp, esp
  00003	51		 push	 ecx
  00004	89 4d fc	 mov	 DWORD PTR _this$[ebp], ecx
  00007	8b 45 fc	 mov	 eax, DWORD PTR _this$[ebp]
  0000a	c7 00 00 00 00
	00		 mov	 DWORD PTR [eax], OFFSET FLAT:??_7IDataManager@@6B@
  00010	8b 45 fc	 mov	 eax, DWORD PTR _this$[ebp]
  00013	8b e5		 mov	 esp, ebp
  00015	5d		 pop	 ebp
  00016	c3		 ret	 0
??0IDataManager@@QAE@XZ ENDP				; IDataManager::IDataManager
_TEXT	ENDS
PUBLIC	??1?$_Tree@V?$_Tmap_traits@KPAVIData@@U?$less@K@std@@V?$allocator@U?$pair@$$CBKPAVIData@@@std@@@3@$0A@@std@@@std@@QAE@XZ ; std::_Tree<std::_Tmap_traits<unsigned long,IData *,std::less<unsigned long>,std::allocator<std::pair<unsigned long const ,IData *> >,0> >::~_Tree<std::_Tmap_traits<unsigned long,IData *,std::less<unsigned long>,std::allocator<std::pair<unsigned long const ,IData *> >,0> >
; Function compile flags: /Odt
;	COMDAT ??1?$map@KPAVIData@@U?$less@K@std@@V?$allocator@U?$pair@$$CBKPAVIData@@@std@@@3@@std@@QAE@XZ
_TEXT	SEGMENT
_this$ = -4						; size = 4
??1?$map@KPAVIData@@U?$less@K@std@@V?$allocator@U?$pair@$$CBKPAVIData@@@std@@@3@@std@@QAE@XZ PROC NEAR ; std::map<unsigned long,IData *,std::less<unsigned long>,std::allocator<std::pair<unsigned long const ,IData *> > >::~map<unsigned long,IData *,std::less<unsigned long>,std::allocator<std::pair<unsigned long const ,IData *> > >, COMDAT
; _this$ = ecx
  00000	55		 push	 ebp
  00001	8b ec		 mov	 ebp, esp
  00003	51		 push	 ecx
  00004	89 4d fc	 mov	 DWORD PTR _this$[ebp], ecx
  00007	8b 4d fc	 mov	 ecx, DWORD PTR _this$[ebp]
  0000a	e8 00 00 00 00	 call	 ??1?$_Tree@V?$_Tmap_traits@KPAVIData@@U?$less@K@std@@V?$allocator@U?$pair@$$CBKPAVIData@@@std@@@3@$0A@@std@@@std@@QAE@XZ ; std::_Tree<std::_Tmap_traits<unsigned long,IData *,std::less<unsigned long>,std::allocator<std::pair<unsigned long const ,IData *> >,0> >::~_Tree<std::_Tmap_traits<unsigned long,IData *,std::less<unsigned long>,std::allocator<std::pair<unsigned long const ,IData *> >,0> >
  0000f	8b e5		 mov	 esp, ebp
  00011	5d		 pop	 ebp
  00012	c3		 ret	 0
??1?$map@KPAVIData@@U?$less@K@std@@V?$allocator@U?$pair@$$CBKPAVIData@@@std@@@3@@std@@QAE@XZ ENDP ; std::map<unsigned long,IData *,std::less<unsigned long>,std::allocator<std::pair<unsigned long const ,IData *> > >::~map<unsigned long,IData *,std::less<unsigned long>,std::allocator<std::pair<unsigned long const ,IData *> > >
_TEXT	ENDS
EXTRN	__imp__DeleteCriticalSection@4:NEAR
xdata$x	SEGMENT
$T200519 DD	0ffffffffH
	DD	FLAT:$L200514
$T200517 DD	019930520H
	DD	01H
	DD	FLAT:$T200519
	DD	2 DUP(00H)
	DD	2 DUP(00H)
; Function compile flags: /Odt
xdata$x	ENDS
_TEXT	SEGMENT
_this$ = -16						; size = 4
__$EHRec$ = -12						; size = 12
??1CDataManager@@UAE@XZ PROC NEAR			; CDataManager::~CDataManager
; _this$ = ecx

; 13   : {

  00080	55		 push	 ebp
  00081	8b ec		 mov	 ebp, esp
  00083	6a ff		 push	 -1
  00085	68 00 00 00 00	 push	 __ehhandler$??1CDataManager@@UAE@XZ
  0008a	64 a1 00 00 00
	00		 mov	 eax, DWORD PTR fs:__except_list
  00090	50		 push	 eax
  00091	64 89 25 00 00
	00 00		 mov	 DWORD PTR fs:__except_list, esp
  00098	51		 push	 ecx
  00099	89 4d f0	 mov	 DWORD PTR _this$[ebp], ecx
  0009c	8b 45 f0	 mov	 eax, DWORD PTR _this$[ebp]
  0009f	c7 00 00 00 00
	00		 mov	 DWORD PTR [eax], OFFSET FLAT:??_7CDataManager@@6B@
  000a5	c7 45 fc 00 00
	00 00		 mov	 DWORD PTR __$EHRec$[ebp+8], 0

; 14   : 	DeleteCriticalSection(&m_csData);

  000ac	8b 4d f0	 mov	 ecx, DWORD PTR _this$[ebp]
  000af	83 c1 10	 add	 ecx, 16			; 00000010H
  000b2	51		 push	 ecx
  000b3	ff 15 00 00 00
	00		 call	 DWORD PTR __imp__DeleteCriticalSection@4

; 15   : }

  000b9	8b 4d f0	 mov	 ecx, DWORD PTR _this$[ebp]
  000bc	83 c1 04	 add	 ecx, 4
  000bf	e8 00 00 00 00	 call	 ??1?$map@KPAVIData@@U?$less@K@std@@V?$allocator@U?$pair@$$CBKPAVIData@@@std@@@3@@std@@QAE@XZ
  000c4	c7 45 fc ff ff
	ff ff		 mov	 DWORD PTR __$EHRec$[ebp+8], -1
  000cb	8b 4d f0	 mov	 ecx, DWORD PTR _this$[ebp]
  000ce	e8 00 00 00 00	 call	 ??1IDataManager@@UAE@XZ	; IDataManager::~IDataManager
  000d3	8b 4d f4	 mov	 ecx, DWORD PTR __$EHRec$[ebp]
  000d6	64 89 0d 00 00
	00 00		 mov	 DWORD PTR fs:__except_list, ecx
  000dd	8b e5		 mov	 esp, ebp
  000df	5d		 pop	 ebp
  000e0	c3		 ret	 0
_TEXT	ENDS
text$x	SEGMENT
$L200514:
  0001d	8b 4d f0	 mov	 ecx, DWORD PTR _this$[ebp]
  00020	e9 00 00 00 00	 jmp	 ??1IDataManager@@UAE@XZ	; IDataManager::~IDataManager
__ehhandler$??1CDataManager@@UAE@XZ:
  00025	b8 00 00 00 00	 mov	 eax, OFFSET FLAT:$T200517
  0002a	e9 00 00 00 00	 jmp	 ___CxxFrameHandler
text$x	ENDS
??1CDataManager@@UAE@XZ ENDP				; CDataManager::~CDataManager
EXTRN	?Init@CHTTPControl@@SAXXZ:NEAR			; CHTTPControl::Init
EXTRN	__imp_?YL_Log@@YAXABV?$basic_string@DU?$char_traits@D@std@@V?$allocator@D@2@@std@@H0PBDZZ:NEAR
EXTRN	__imp_??0?$basic_string@DU?$char_traits@D@std@@V?$allocator@D@2@@std@@QAE@PBD@Z:NEAR
EXTRN	__imp_??1?$basic_string@DU?$char_traits@D@std@@V?$allocator@D@2@@std@@QAE@XZ:NEAR
xdata$x	SEGMENT
$T200532 DD	0ffffffffH
	DD	FLAT:$L200525
	DD	00H
	DD	FLAT:$L200526
	DD	0ffffffffH
	DD	FLAT:$L200527
	DD	02H
	DD	FLAT:$L200528
$T200530 DD	019930520H
	DD	04H
	DD	FLAT:$T200532
	DD	2 DUP(00H)
	DD	2 DUP(00H)
; Function compile flags: /Odt
xdata$x	ENDS
_TEXT	SEGMENT
_this$ = -128						; size = 4
$T200524 = -124						; size = 28
$T200523 = -96						; size = 28
$T200522 = -68						; size = 28
$T200521 = -40						; size = 28
__$EHRec$ = -12						; size = 12
?DataManAppStart@CDataManager@@UAEXXZ PROC NEAR		; CDataManager::DataManAppStart
; _this$ = ecx

; 18   : {	

  000f0	55		 push	 ebp
  000f1	8b ec		 mov	 ebp, esp
  000f3	6a ff		 push	 -1
  000f5	68 00 00 00 00	 push	 __ehhandler$?DataManAppStart@CDataManager@@UAEXXZ
  000fa	64 a1 00 00 00
	00		 mov	 eax, DWORD PTR fs:__except_list
  00100	50		 push	 eax
  00101	64 89 25 00 00
	00 00		 mov	 DWORD PTR fs:__except_list, esp
  00108	83 ec 74	 sub	 esp, 116		; 00000074H
  0010b	89 4d 80	 mov	 DWORD PTR _this$[ebp], ecx

; 19   : 	YL_Log( STR_LOG_FILE ,LOG_NOTICE,"DataManager","DataManAppStart======IN" );

  0010e	68 00 00 00 00	 push	 OFFSET FLAT:$SG199105
  00113	8d 4d d8	 lea	 ecx, DWORD PTR $T200521[ebp]
  00116	ff 15 00 00 00
	00		 call	 DWORD PTR __imp_??0?$basic_string@DU?$char_traits@D@std@@V?$allocator@D@2@@std@@QAE@PBD@Z
  0011c	c7 45 fc 00 00
	00 00		 mov	 DWORD PTR __$EHRec$[ebp+8], 0
  00123	68 00 00 00 00	 push	 OFFSET FLAT:$SG199106
  00128	8d 4d bc	 lea	 ecx, DWORD PTR $T200522[ebp]
  0012b	ff 15 00 00 00
	00		 call	 DWORD PTR __imp_??0?$basic_string@DU?$char_traits@D@std@@V?$allocator@D@2@@std@@QAE@PBD@Z
  00131	c6 45 fc 01	 mov	 BYTE PTR __$EHRec$[ebp+8], 1
  00135	68 00 00 00 00	 push	 OFFSET FLAT:$SG199104
  0013a	8d 45 d8	 lea	 eax, DWORD PTR $T200521[ebp]
  0013d	50		 push	 eax
  0013e	6a 01		 push	 1
  00140	8d 4d bc	 lea	 ecx, DWORD PTR $T200522[ebp]
  00143	51		 push	 ecx
  00144	ff 15 00 00 00
	00		 call	 DWORD PTR __imp_?YL_Log@@YAXABV?$basic_string@DU?$char_traits@D@std@@V?$allocator@D@2@@std@@H0PBDZZ
  0014a	83 c4 10	 add	 esp, 16			; 00000010H
  0014d	c6 45 fc 00	 mov	 BYTE PTR __$EHRec$[ebp+8], 0
  00151	8d 4d bc	 lea	 ecx, DWORD PTR $T200522[ebp]
  00154	ff 15 00 00 00
	00		 call	 DWORD PTR __imp_??1?$basic_string@DU?$char_traits@D@std@@V?$allocator@D@2@@std@@QAE@XZ
  0015a	c7 45 fc ff ff
	ff ff		 mov	 DWORD PTR __$EHRec$[ebp+8], -1
  00161	8d 4d d8	 lea	 ecx, DWORD PTR $T200521[ebp]
  00164	ff 15 00 00 00
	00		 call	 DWORD PTR __imp_??1?$basic_string@DU?$char_traits@D@std@@V?$allocator@D@2@@std@@QAE@XZ

; 20   : 	CHTTPControl::Init();

  0016a	e8 00 00 00 00	 call	 ?Init@CHTTPControl@@SAXXZ ; CHTTPControl::Init

; 21   : 	YL_Log( STR_LOG_FILE ,LOG_NOTICE,"DataManager","DataManAppStart======OUT" );

  0016f	68 00 00 00 00	 push	 OFFSET FLAT:$SG199110
  00174	8d 4d a0	 lea	 ecx, DWORD PTR $T200523[ebp]
  00177	ff 15 00 00 00
	00		 call	 DWORD PTR __imp_??0?$basic_string@DU?$char_traits@D@std@@V?$allocator@D@2@@std@@QAE@PBD@Z
  0017d	c7 45 fc 02 00
	00 00		 mov	 DWORD PTR __$EHRec$[ebp+8], 2
  00184	68 00 00 00 00	 push	 OFFSET FLAT:$SG199111
  00189	8d 4d 84	 lea	 ecx, DWORD PTR $T200524[ebp]
  0018c	ff 15 00 00 00
	00		 call	 DWORD PTR __imp_??0?$basic_string@DU?$char_traits@D@std@@V?$allocator@D@2@@std@@QAE@PBD@Z
  00192	c6 45 fc 03	 mov	 BYTE PTR __$EHRec$[ebp+8], 3
  00196	68 00 00 00 00	 push	 OFFSET FLAT:$SG199109
  0019b	8d 55 a0	 lea	 edx, DWORD PTR $T200523[ebp]
  0019e	52		 push	 edx
  0019f	6a 01		 push	 1
  001a1	8d 45 84	 lea	 eax, DWORD PTR $T200524[ebp]
  001a4	50		 push	 eax
  001a5	ff 15 00 00 00
	00		 call	 DWORD PTR __imp_?YL_Log@@YAXABV?$basic_string@DU?$char_traits@D@std@@V?$allocator@D@2@@std@@H0PBDZZ
  001ab	83 c4 10	 add	 esp, 16			; 00000010H
  001ae	c6 45 fc 02	 mov	 BYTE PTR __$EHRec$[ebp+8], 2
  001b2	8d 4d 84	 lea	 ecx, DWORD PTR $T200524[ebp]
  001b5	ff 15 00 00 00
	00		 call	 DWORD PTR __imp_??1?$basic_string@DU?$char_traits@D@std@@V?$allocator@D@2@@std@@QAE@XZ
  001bb	c7 45 fc ff ff
	ff ff		 mov	 DWORD PTR __$EHRec$[ebp+8], -1
  001c2	8d 4d a0	 lea	 ecx, DWORD PTR $T200523[ebp]
  001c5	ff 15 00 00 00
	00		 call	 DWORD PTR __imp_??1?$basic_string@DU?$char_traits@D@std@@V?$allocator@D@2@@std@@QAE@XZ

; 22   : }

  001cb	8b 4d f4	 mov	 ecx, DWORD PTR __$EHRec$[ebp]
  001ce	64 89 0d 00 00
	00 00		 mov	 DWORD PTR fs:__except_list, ecx
  001d5	8b e5		 mov	 esp, ebp
  001d7	5d		 pop	 ebp
  001d8	c3		 ret	 0
_TEXT	ENDS
text$x	SEGMENT
$L200525:
  0002f	8d 4d d8	 lea	 ecx, DWORD PTR $T200521[ebp]
  00032	ff 25 00 00 00
	00		 jmp	 DWORD PTR __imp_??1?$basic_string@DU?$char_traits@D@std@@V?$allocator@D@2@@std@@QAE@XZ
$L200526:
  00038	8d 4d bc	 lea	 ecx, DWORD PTR $T200522[ebp]
  0003b	ff 25 00 00 00
	00		 jmp	 DWORD PTR __imp_??1?$basic_string@DU?$char_traits@D@std@@V?$allocator@D@2@@std@@QAE@XZ
$L200527:
  00041	8d 4d a0	 lea	 ecx, DWORD PTR $T200523[ebp]
  00044	ff 25 00 00 00
	00		 jmp	 DWORD PTR __imp_??1?$basic_string@DU?$char_traits@D@std@@V?$allocator@D@2@@std@@QAE@XZ
$L200528:
  0004a	8d 4d 84	 lea	 ecx, DWORD PTR $T200524[ebp]
  0004d	ff 25 00 00 00
	00		 jmp	 DWORD PTR __imp_??1?$basic_string@DU?$char_traits@D@std@@V?$allocator@D@2@@std@@QAE@XZ
__ehhandler$?DataManAppStart@CDataManager@@UAEXXZ:
  00053	b8 00 00 00 00	 mov	 eax, OFFSET FLAT:$T200530
  00058	e9 00 00 00 00	 jmp	 ___CxxFrameHandler
text$x	ENDS
?DataManAppStart@CDataManager@@UAEXXZ ENDP		; CDataManager::DataManAppStart
PUBLIC	??9const_iterator@?$_Tree@V?$_Tmap_traits@KPAVIData@@U?$less@K@std@@V?$allocator@U?$pair@$$CBKPAVIData@@@std@@@3@$0A@@std@@@std@@QBE_NABV012@@Z ; std::_Tree<std::_Tmap_traits<unsigned long,IData *,std::less<unsigned long>,std::allocator<std::pair<unsigned long const ,IData *> >,0> >::const_iterator::operator!=
PUBLIC	??Citerator@?$_Tree@V?$_Tmap_traits@KPAVIData@@U?$less@K@std@@V?$allocator@U?$pair@$$CBKPAVIData@@@std@@@3@$0A@@std@@@std@@QBEPAU?$pair@$$CBKPAVIData@@@2@XZ ; std::_Tree<std::_Tmap_traits<unsigned long,IData *,std::less<unsigned long>,std::allocator<std::pair<unsigned long const ,IData *> >,0> >::iterator::operator->
PUBLIC	??Eiterator@?$_Tree@V?$_Tmap_traits@KPAVIData@@U?$less@K@std@@V?$allocator@U?$pair@$$CBKPAVIData@@@std@@@3@$0A@@std@@@std@@QAE?AV012@H@Z ; std::_Tree<std::_Tmap_traits<unsigned long,IData *,std::less<unsigned long>,std::allocator<std::pair<unsigned long const ,IData *> >,0> >::iterator::operator++
PUBLIC	?begin@?$_Tree@V?$_Tmap_traits@KPAVIData@@U?$less@K@std@@V?$allocator@U?$pair@$$CBKPAVIData@@@std@@@3@$0A@@std@@@std@@QAE?AViterator@12@XZ ; std::_Tree<std::_Tmap_traits<unsigned long,IData *,std::less<unsigned long>,std::allocator<std::pair<unsigned long const ,IData *> >,0> >::begin
PUBLIC	?end@?$_Tree@V?$_Tmap_traits@KPAVIData@@U?$less@K@std@@V?$allocator@U?$pair@$$CBKPAVIData@@@std@@@3@$0A@@std@@@std@@QAE?AViterator@12@XZ ; std::_Tree<std::_Tmap_traits<unsigned long,IData *,std::less<unsigned long>,std::allocator<std::pair<unsigned long const ,IData *> >,0> >::end
EXTRN	?Close@CHTTPControl@@SAXXZ:NEAR			; CHTTPControl::Close
xdata$x	SEGMENT
$T200547 DD	0ffffffffH
	DD	FLAT:$L200540
	DD	00H
	DD	FLAT:$L200541
	DD	0ffffffffH
	DD	FLAT:$L200542
	DD	02H
	DD	FLAT:$L200543
$T200545 DD	019930520H
	DD	04H
	DD	FLAT:$T200547
	DD	2 DUP(00H)
	DD	2 DUP(00H)
; Function compile flags: /Odt
xdata$x	ENDS
_TEXT	SEGMENT
tv132 = -148						; size = 4
_this$ = -144						; size = 4
$T200539 = -140						; size = 28
$T200538 = -112						; size = 28
$T200537 = -84						; size = 4
$T200536 = -80						; size = 4
$T200535 = -76						; size = 28
$T200534 = -48						; size = 28
_d$199209 = -20						; size = 4
_it1$199202 = -16					; size = 4
__$EHRec$ = -12						; size = 12
?DataManAppExit@CDataManager@@UAEXXZ PROC NEAR		; CDataManager::DataManAppExit
; _this$ = ecx

; 25   : {

  001e0	55		 push	 ebp
  001e1	8b ec		 mov	 ebp, esp
  001e3	6a ff		 push	 -1
  001e5	68 00 00 00 00	 push	 __ehhandler$?DataManAppExit@CDataManager@@UAEXXZ
  001ea	64 a1 00 00 00
	00		 mov	 eax, DWORD PTR fs:__except_list
  001f0	50		 push	 eax
  001f1	64 89 25 00 00
	00 00		 mov	 DWORD PTR fs:__except_list, esp
  001f8	81 ec 88 00 00
	00		 sub	 esp, 136		; 00000088H
  001fe	89 8d 70 ff ff
	ff		 mov	 DWORD PTR _this$[ebp], ecx

; 26   : 	YL_Log( STR_LOG_FILE,LOG_NOTICE,"DataManager","DataManAppExit======IN" );

  00204	68 00 00 00 00	 push	 OFFSET FLAT:$SG199118
  00209	8d 4d d0	 lea	 ecx, DWORD PTR $T200534[ebp]
  0020c	ff 15 00 00 00
	00		 call	 DWORD PTR __imp_??0?$basic_string@DU?$char_traits@D@std@@V?$allocator@D@2@@std@@QAE@PBD@Z
  00212	c7 45 fc 00 00
	00 00		 mov	 DWORD PTR __$EHRec$[ebp+8], 0
  00219	68 00 00 00 00	 push	 OFFSET FLAT:$SG199119
  0021e	8d 4d b4	 lea	 ecx, DWORD PTR $T200535[ebp]
  00221	ff 15 00 00 00
	00		 call	 DWORD PTR __imp_??0?$basic_string@DU?$char_traits@D@std@@V?$allocator@D@2@@std@@QAE@PBD@Z
  00227	c6 45 fc 01	 mov	 BYTE PTR __$EHRec$[ebp+8], 1
  0022b	68 00 00 00 00	 push	 OFFSET FLAT:$SG199117
  00230	8d 45 d0	 lea	 eax, DWORD PTR $T200534[ebp]
  00233	50		 push	 eax
  00234	6a 01		 push	 1
  00236	8d 4d b4	 lea	 ecx, DWORD PTR $T200535[ebp]
  00239	51		 push	 ecx
  0023a	ff 15 00 00 00
	00		 call	 DWORD PTR __imp_?YL_Log@@YAXABV?$basic_string@DU?$char_traits@D@std@@V?$allocator@D@2@@std@@H0PBDZZ
  00240	83 c4 10	 add	 esp, 16			; 00000010H
  00243	c6 45 fc 00	 mov	 BYTE PTR __$EHRec$[ebp+8], 0
  00247	8d 4d b4	 lea	 ecx, DWORD PTR $T200535[ebp]
  0024a	ff 15 00 00 00
	00		 call	 DWORD PTR __imp_??1?$basic_string@DU?$char_traits@D@std@@V?$allocator@D@2@@std@@QAE@XZ
  00250	c7 45 fc ff ff
	ff ff		 mov	 DWORD PTR __$EHRec$[ebp+8], -1
  00257	8d 4d d0	 lea	 ecx, DWORD PTR $T200534[ebp]
  0025a	ff 15 00 00 00
	00		 call	 DWORD PTR __imp_??1?$basic_string@DU?$char_traits@D@std@@V?$allocator@D@2@@std@@QAE@XZ

; 27   : 	for( map<DWORD,IData*>::iterator it1 = m_mapDataObject.begin();

  00260	8d 55 f0	 lea	 edx, DWORD PTR _it1$199202[ebp]
  00263	52		 push	 edx
  00264	8b 8d 70 ff ff
	ff		 mov	 ecx, DWORD PTR _this$[ebp]
  0026a	83 c1 04	 add	 ecx, 4
  0026d	e8 00 00 00 00	 call	 ?begin@?$_Tree@V?$_Tmap_traits@KPAVIData@@U?$less@K@std@@V?$allocator@U?$pair@$$CBKPAVIData@@@std@@@3@$0A@@std@@@std@@QAE?AViterator@12@XZ ; std::_Tree<std::_Tmap_traits<unsigned long,IData *,std::less<unsigned long>,std::allocator<std::pair<unsigned long const ,IData *> >,0> >::begin

; 28   : 		it1 != m_mapDataObject.end(); it1++ )

  00272	eb 0e		 jmp	 SHORT $L199206
$L199207:
  00274	6a 00		 push	 0
  00276	8d 45 b0	 lea	 eax, DWORD PTR $T200536[ebp]
  00279	50		 push	 eax
  0027a	8d 4d f0	 lea	 ecx, DWORD PTR _it1$199202[ebp]
  0027d	e8 00 00 00 00	 call	 ??Eiterator@?$_Tree@V?$_Tmap_traits@KPAVIData@@U?$less@K@std@@V?$allocator@U?$pair@$$CBKPAVIData@@@std@@@3@$0A@@std@@@std@@QAE?AV012@H@Z ; std::_Tree<std::_Tmap_traits<unsigned long,IData *,std::less<unsigned long>,std::allocator<std::pair<unsigned long const ,IData *> >,0> >::iterator::operator++
$L199206:
  00282	8d 4d ac	 lea	 ecx, DWORD PTR $T200537[ebp]
  00285	51		 push	 ecx
  00286	8b 8d 70 ff ff
	ff		 mov	 ecx, DWORD PTR _this$[ebp]
  0028c	83 c1 04	 add	 ecx, 4
  0028f	e8 00 00 00 00	 call	 ?end@?$_Tree@V?$_Tmap_traits@KPAVIData@@U?$less@K@std@@V?$allocator@U?$pair@$$CBKPAVIData@@@std@@@3@$0A@@std@@@std@@QAE?AViterator@12@XZ ; std::_Tree<std::_Tmap_traits<unsigned long,IData *,std::less<unsigned long>,std::allocator<std::pair<unsigned long const ,IData *> >,0> >::end
  00294	50		 push	 eax
  00295	8d 4d f0	 lea	 ecx, DWORD PTR _it1$199202[ebp]
  00298	e8 00 00 00 00	 call	 ??9const_iterator@?$_Tree@V?$_Tmap_traits@KPAVIData@@U?$less@K@std@@V?$allocator@U?$pair@$$CBKPAVIData@@@std@@@3@$0A@@std@@@std@@QBE_NABV012@@Z ; std::_Tree<std::_Tmap_traits<unsigned long,IData *,std::less<unsigned long>,std::allocator<std::pair<unsigned long const ,IData *> >,0> >::const_iterator::operator!=
  0029d	0f b6 d0	 movzx	 edx, al
  002a0	85 d2		 test	 edx, edx
  002a2	74 31		 je	 SHORT $L199208

; 29   : 	{
; 30   : 		DWORD d = it1->first;

  002a4	8d 4d f0	 lea	 ecx, DWORD PTR _it1$199202[ebp]
  002a7	e8 00 00 00 00	 call	 ??Citerator@?$_Tree@V?$_Tmap_traits@KPAVIData@@U?$less@K@std@@V?$allocator@U?$pair@$$CBKPAVIData@@@std@@@3@$0A@@std@@@std@@QBEPAU?$pair@$$CBKPAVIData@@@2@XZ ; std::_Tree<std::_Tmap_traits<unsigned long,IData *,std::less<unsigned long>,std::allocator<std::pair<unsigned long const ,IData *> >,0> >::iterator::operator->
  002ac	8b 00		 mov	 eax, DWORD PTR [eax]
  002ae	89 45 ec	 mov	 DWORD PTR _d$199209[ebp], eax

; 31   : 		it1->second->DataAppExit();

  002b1	8d 4d f0	 lea	 ecx, DWORD PTR _it1$199202[ebp]
  002b4	e8 00 00 00 00	 call	 ??Citerator@?$_Tree@V?$_Tmap_traits@KPAVIData@@U?$less@K@std@@V?$allocator@U?$pair@$$CBKPAVIData@@@std@@@3@$0A@@std@@@std@@QBEPAU?$pair@$$CBKPAVIData@@@2@XZ ; std::_Tree<std::_Tmap_traits<unsigned long,IData *,std::less<unsigned long>,std::allocator<std::pair<unsigned long const ,IData *> >,0> >::iterator::operator->
  002b9	8b 48 04	 mov	 ecx, DWORD PTR [eax+4]
  002bc	89 8d 6c ff ff
	ff		 mov	 DWORD PTR tv132[ebp], ecx
  002c2	8b 95 6c ff ff
	ff		 mov	 edx, DWORD PTR tv132[ebp]
  002c8	8b 02		 mov	 eax, DWORD PTR [edx]
  002ca	8b 8d 6c ff ff
	ff		 mov	 ecx, DWORD PTR tv132[ebp]
  002d0	ff 50 08	 call	 DWORD PTR [eax+8]

; 32   : 	}

  002d3	eb 9f		 jmp	 SHORT $L199207
$L199208:

; 33   : 	CHTTPControl::Close();

  002d5	e8 00 00 00 00	 call	 ?Close@CHTTPControl@@SAXXZ ; CHTTPControl::Close

; 34   : 	YL_Log( STR_LOG_FILE,LOG_NOTICE,"DataManager","DataManAppExit--OUT" );

  002da	68 00 00 00 00	 push	 OFFSET FLAT:$SG199231
  002df	8d 4d 90	 lea	 ecx, DWORD PTR $T200538[ebp]
  002e2	ff 15 00 00 00
	00		 call	 DWORD PTR __imp_??0?$basic_string@DU?$char_traits@D@std@@V?$allocator@D@2@@std@@QAE@PBD@Z
  002e8	c7 45 fc 02 00
	00 00		 mov	 DWORD PTR __$EHRec$[ebp+8], 2
  002ef	68 00 00 00 00	 push	 OFFSET FLAT:$SG199232
  002f4	8d 8d 74 ff ff
	ff		 lea	 ecx, DWORD PTR $T200539[ebp]
  002fa	ff 15 00 00 00
	00		 call	 DWORD PTR __imp_??0?$basic_string@DU?$char_traits@D@std@@V?$allocator@D@2@@std@@QAE@PBD@Z
  00300	c6 45 fc 03	 mov	 BYTE PTR __$EHRec$[ebp+8], 3
  00304	68 00 00 00 00	 push	 OFFSET FLAT:$SG199230
  00309	8d 4d 90	 lea	 ecx, DWORD PTR $T200538[ebp]
  0030c	51		 push	 ecx
  0030d	6a 01		 push	 1
  0030f	8d 95 74 ff ff
	ff		 lea	 edx, DWORD PTR $T200539[ebp]
  00315	52		 push	 edx
  00316	ff 15 00 00 00
	00		 call	 DWORD PTR __imp_?YL_Log@@YAXABV?$basic_string@DU?$char_traits@D@std@@V?$allocator@D@2@@std@@H0PBDZZ
  0031c	83 c4 10	 add	 esp, 16			; 00000010H
  0031f	c6 45 fc 02	 mov	 BYTE PTR __$EHRec$[ebp+8], 2
  00323	8d 8d 74 ff ff
	ff		 lea	 ecx, DWORD PTR $T200539[ebp]
  00329	ff 15 00 00 00
	00		 call	 DWORD PTR __imp_??1?$basic_string@DU?$char_traits@D@std@@V?$allocator@D@2@@std@@QAE@XZ
  0032f	c7 45 fc ff ff
	ff ff		 mov	 DWORD PTR __$EHRec$[ebp+8], -1
  00336	8d 4d 90	 lea	 ecx, DWORD PTR $T200538[ebp]
  00339	ff 15 00 00 00
	00		 call	 DWORD PTR __imp_??1?$basic_string@DU?$char_traits@D@std@@V?$allocator@D@2@@std@@QAE@XZ

; 35   : }

  0033f	8b 4d f4	 mov	 ecx, DWORD PTR __$EHRec$[ebp]
  00342	64 89 0d 00 00
	00 00		 mov	 DWORD PTR fs:__except_list, ecx
  00349	8b e5		 mov	 esp, ebp
  0034b	5d		 pop	 ebp
  0034c	c3		 ret	 0
_TEXT	ENDS
text$x	SEGMENT
$L200540:
  0005d	8d 4d d0	 lea	 ecx, DWORD PTR $T200534[ebp]
  00060	ff 25 00 00 00
	00		 jmp	 DWORD PTR __imp_??1?$basic_string@DU?$char_traits@D@std@@V?$allocator@D@2@@std@@QAE@XZ
$L200541:
  00066	8d 4d b4	 lea	 ecx, DWORD PTR $T200535[ebp]
  00069	ff 25 00 00 00
	00		 jmp	 DWORD PTR __imp_??1?$basic_string@DU?$char_traits@D@std@@V?$allocator@D@2@@std@@QAE@XZ
$L200542:
  0006f	8d 4d 90	 lea	 ecx, DWORD PTR $T200538[ebp]
  00072	ff 25 00 00 00
	00		 jmp	 DWORD PTR __imp_??1?$basic_string@DU?$char_traits@D@std@@V?$allocator@D@2@@std@@QAE@XZ
$L200543:
  00078	8d 8d 74 ff ff
	ff		 lea	 ecx, DWORD PTR $T200539[ebp]
  0007e	ff 25 00 00 00
	00		 jmp	 DWORD PTR __imp_??1?$basic_string@DU?$char_traits@D@std@@V?$allocator@D@2@@std@@QAE@XZ
__ehhandler$?DataManAppExit@CDataManager@@UAEXXZ:
  00084	b8 00 00 00 00	 mov	 eax, OFFSET FLAT:$T200545
  00089	e9 00 00 00 00	 jmp	 ___CxxFrameHandler
text$x	ENDS
?DataManAppExit@CDataManager@@UAEXXZ ENDP		; CDataManager::DataManAppExit
PUBLIC	??A?$map@KPAVIData@@U?$less@K@std@@V?$allocator@U?$pair@$$CBKPAVIData@@@std@@@3@@std@@QAEAAPAVIData@@ABK@Z ; std::map<unsigned long,IData *,std::less<unsigned long>,std::allocator<std::pair<unsigned long const ,IData *> > >::operator[]
EXTRN	__imp__EnterCriticalSection@4:NEAR
EXTRN	__imp__LeaveCriticalSection@4:NEAR
; Function compile flags: /Odt
_TEXT	SEGMENT
_this$ = -4						; size = 4
_guidDataObject$ = 8					; size = 4
_pData$ = 12						; size = 4
?AddDataObject@CDataManager@@UAEXABKPAVIData@@@Z PROC NEAR ; CDataManager::AddDataObject
; _this$ = ecx

; 38   : {

  00350	55		 push	 ebp
  00351	8b ec		 mov	 ebp, esp
  00353	51		 push	 ecx
  00354	89 4d fc	 mov	 DWORD PTR _this$[ebp], ecx

; 39   : 	if( pData == NULL )

  00357	83 7d 0c 00	 cmp	 DWORD PTR _pData$[ebp], 0
  0035b	75 02		 jne	 SHORT $L199238

; 40   : 	{
; 41   : 		return;

  0035d	eb 2e		 jmp	 SHORT $L199237
$L199238:

; 42   : 	}
; 43   : 
; 44   : 	EnterCriticalSection(&m_csData);

  0035f	8b 45 fc	 mov	 eax, DWORD PTR _this$[ebp]
  00362	83 c0 10	 add	 eax, 16			; 00000010H
  00365	50		 push	 eax
  00366	ff 15 00 00 00
	00		 call	 DWORD PTR __imp__EnterCriticalSection@4

; 45   : 	m_mapDataObject[guidDataObject] = pData;

  0036c	8b 4d 08	 mov	 ecx, DWORD PTR _guidDataObject$[ebp]
  0036f	51		 push	 ecx
  00370	8b 4d fc	 mov	 ecx, DWORD PTR _this$[ebp]
  00373	83 c1 04	 add	 ecx, 4
  00376	e8 00 00 00 00	 call	 ??A?$map@KPAVIData@@U?$less@K@std@@V?$allocator@U?$pair@$$CBKPAVIData@@@std@@@3@@std@@QAEAAPAVIData@@ABK@Z ; std::map<unsigned long,IData *,std::less<unsigned long>,std::allocator<std::pair<unsigned long const ,IData *> > >::operator[]
  0037b	8b 55 0c	 mov	 edx, DWORD PTR _pData$[ebp]
  0037e	89 10		 mov	 DWORD PTR [eax], edx

; 46   : 	LeaveCriticalSection(&m_csData);

  00380	8b 45 fc	 mov	 eax, DWORD PTR _this$[ebp]
  00383	83 c0 10	 add	 eax, 16			; 00000010H
  00386	50		 push	 eax
  00387	ff 15 00 00 00
	00		 call	 DWORD PTR __imp__LeaveCriticalSection@4
$L199237:

; 47   : }

  0038d	8b e5		 mov	 esp, ebp
  0038f	5d		 pop	 ebp
  00390	c2 08 00	 ret	 8
?AddDataObject@CDataManager@@UAEXABKPAVIData@@@Z ENDP	; CDataManager::AddDataObject
_TEXT	ENDS
PUBLIC	?erase@?$_Tree@V?$_Tmap_traits@KPAVIData@@U?$less@K@std@@V?$allocator@U?$pair@$$CBKPAVIData@@@std@@@3@$0A@@std@@@std@@QAEIABK@Z ; std::_Tree<std::_Tmap_traits<unsigned long,IData *,std::less<unsigned long>,std::allocator<std::pair<unsigned long const ,IData *> >,0> >::erase
; Function compile flags: /Odt
_TEXT	SEGMENT
_this$ = -4						; size = 4
_guidDataObject$ = 8					; size = 4
?RemoveDataObject@CDataManager@@UAEXABK@Z PROC NEAR	; CDataManager::RemoveDataObject
; _this$ = ecx

; 50   : {

  003a0	55		 push	 ebp
  003a1	8b ec		 mov	 ebp, esp
  003a3	51		 push	 ecx
  003a4	89 4d fc	 mov	 DWORD PTR _this$[ebp], ecx

; 51   : 	EnterCriticalSection(&m_csData);

  003a7	8b 45 fc	 mov	 eax, DWORD PTR _this$[ebp]
  003aa	83 c0 10	 add	 eax, 16			; 00000010H
  003ad	50		 push	 eax
  003ae	ff 15 00 00 00
	00		 call	 DWORD PTR __imp__EnterCriticalSection@4

; 52   : 	m_mapDataObject.erase(guidDataObject);

  003b4	8b 4d 08	 mov	 ecx, DWORD PTR _guidDataObject$[ebp]
  003b7	51		 push	 ecx
  003b8	8b 4d fc	 mov	 ecx, DWORD PTR _this$[ebp]
  003bb	83 c1 04	 add	 ecx, 4
  003be	e8 00 00 00 00	 call	 ?erase@?$_Tree@V?$_Tmap_traits@KPAVIData@@U?$less@K@std@@V?$allocator@U?$pair@$$CBKPAVIData@@@std@@@3@$0A@@std@@@std@@QAEIABK@Z ; std::_Tree<std::_Tmap_traits<unsigned long,IData *,std::less<unsigned long>,std::allocator<std::pair<unsigned long const ,IData *> >,0> >::erase

; 53   : 	LeaveCriticalSection(&m_csData);

  003c3	8b 55 fc	 mov	 edx, DWORD PTR _this$[ebp]
  003c6	83 c2 10	 add	 edx, 16			; 00000010H
  003c9	52		 push	 edx
  003ca	ff 15 00 00 00
	00		 call	 DWORD PTR __imp__LeaveCriticalSection@4

; 54   : }

  003d0	8b e5		 mov	 esp, ebp
  003d2	5d		 pop	 ebp
  003d3	c2 04 00	 ret	 4
?RemoveDataObject@CDataManager@@UAEXABK@Z ENDP		; CDataManager::RemoveDataObject
_TEXT	ENDS
PUBLIC	?_GetMapObject@CDataManager@@AAEPAVIData@@ABK@Z	; CDataManager::_GetMapObject
EXTRN	?GetInstance@CTabBarData@@SAPAVIData@@XZ:NEAR	; CTabBarData::GetInstance
EXTRN	?GetInstance@CDownAD@@SAPAV1@XZ:NEAR		; CDownAD::GetInstance
EXTRN	?GetInstance@LocalGameData@@SAPAVIData@@XZ:NEAR	; LocalGameData::GetInstance
EXTRN	?GetInstance@CPanelChange@@SAPAVIData@@XZ:NEAR	; CPanelChange::GetInstance
; Function compile flags: /Odt
_TEXT	SEGMENT
tv76 = -20						; size = 4
tv73 = -16						; size = 4
tv68 = -12						; size = 4
_this$ = -8						; size = 4
_pData$ = -4						; size = 4
_guidDataObject$ = 8					; size = 4
?GetDataObject@CDataManager@@UAEPAVIData@@ABK@Z PROC NEAR ; CDataManager::GetDataObject
; _this$ = ecx

; 57   : {

  003e0	55		 push	 ebp
  003e1	8b ec		 mov	 ebp, esp
  003e3	83 ec 14	 sub	 esp, 20			; 00000014H
  003e6	89 4d f8	 mov	 DWORD PTR _this$[ebp], ecx

; 58   : 	IData* pData = _GetMapObject( guidDataObject );

  003e9	8b 45 08	 mov	 eax, DWORD PTR _guidDataObject$[ebp]
  003ec	50		 push	 eax
  003ed	8b 4d f8	 mov	 ecx, DWORD PTR _this$[ebp]
  003f0	e8 00 00 00 00	 call	 ?_GetMapObject@CDataManager@@AAEPAVIData@@ABK@Z ; CDataManager::_GetMapObject
  003f5	89 45 fc	 mov	 DWORD PTR _pData$[ebp], eax

; 59   : 	if( pData )

  003f8	83 7d fc 00	 cmp	 DWORD PTR _pData$[ebp], 0
  003fc	74 08		 je	 SHORT $L199248

; 60   : 	{
; 61   : 		return pData;

  003fe	8b 45 fc	 mov	 eax, DWORD PTR _pData$[ebp]
  00401	e9 95 00 00 00	 jmp	 $L199246
$L199248:

; 62   : 	}
; 63   : 	switch( guidDataObject )

  00406	8b 4d 08	 mov	 ecx, DWORD PTR _guidDataObject$[ebp]
  00409	8b 11		 mov	 edx, DWORD PTR [ecx]
  0040b	89 55 f4	 mov	 DWORD PTR tv68[ebp], edx
  0040e	8b 45 f4	 mov	 eax, DWORD PTR tv68[ebp]
  00411	83 e8 05	 sub	 eax, 5
  00414	89 45 f4	 mov	 DWORD PTR tv68[ebp], eax
  00417	83 7d f4 06	 cmp	 DWORD PTR tv68[ebp], 6
  0041b	77 50		 ja	 SHORT $L199257
  0041d	8b 4d f4	 mov	 ecx, DWORD PTR tv68[ebp]
  00420	ff 24 8d 00 00
	00 00		 jmp	 DWORD PTR $L200553[ecx*4]
$L199253:

; 64   : 	{
; 65   : 	case ID_DATA_TABBAR:
; 66   : 		pData = CTabBarData::GetInstance();

  00427	e8 00 00 00 00	 call	 ?GetInstance@CTabBarData@@SAPAVIData@@XZ ; CTabBarData::GetInstance
  0042c	89 45 fc	 mov	 DWORD PTR _pData$[ebp], eax

; 67   : 		break;

  0042f	eb 43		 jmp	 SHORT $L199250
$L199254:

; 68   : 	case ID_DATA_LOCALGAME:
; 69   : 		pData = LocalGameData::GetInstance();

  00431	e8 00 00 00 00	 call	 ?GetInstance@LocalGameData@@SAPAVIData@@XZ ; LocalGameData::GetInstance
  00436	89 45 fc	 mov	 DWORD PTR _pData$[ebp], eax

; 70   : 		break;

  00439	eb 39		 jmp	 SHORT $L199250
$L199255:

; 71   : 	case ID_DATA_PANELCHANGE:
; 72   : 		pData = CPanelChange::GetInstance();

  0043b	e8 00 00 00 00	 call	 ?GetInstance@CPanelChange@@SAPAVIData@@XZ ; CPanelChange::GetInstance
  00440	89 45 fc	 mov	 DWORD PTR _pData$[ebp], eax

; 73   : 		break;

  00443	eb 2f		 jmp	 SHORT $L199250
$L199256:

; 74   : 	case ID_DATA_AD:
; 75   : 		pData = CDownAD::GetInstance();

  00445	e8 00 00 00 00	 call	 ?GetInstance@CDownAD@@SAPAV1@XZ ; CDownAD::GetInstance
  0044a	89 45 f0	 mov	 DWORD PTR tv73[ebp], eax
  0044d	83 7d f0 00	 cmp	 DWORD PTR tv73[ebp], 0
  00451	74 0b		 je	 SHORT $L200551
  00453	8b 55 f0	 mov	 edx, DWORD PTR tv73[ebp]
  00456	83 c2 08	 add	 edx, 8
  00459	89 55 ec	 mov	 DWORD PTR tv76[ebp], edx
  0045c	eb 07		 jmp	 SHORT $L200552
$L200551:
  0045e	c7 45 ec 00 00
	00 00		 mov	 DWORD PTR tv76[ebp], 0
$L200552:
  00465	8b 45 ec	 mov	 eax, DWORD PTR tv76[ebp]
  00468	89 45 fc	 mov	 DWORD PTR _pData$[ebp], eax

; 76   : 		break;

  0046b	eb 07		 jmp	 SHORT $L199250
$L199257:

; 77   : 	default:
; 78   : 		pData = NULL;

  0046d	c7 45 fc 00 00
	00 00		 mov	 DWORD PTR _pData$[ebp], 0
$L199250:

; 79   : 		break;
; 80   : 	}
; 81   : 	if( pData )

  00474	83 7d fc 00	 cmp	 DWORD PTR _pData$[ebp], 0
  00478	74 1e		 je	 SHORT $L199258

; 82   : 	{
; 83   : 		pData->DataAppStart();

  0047a	8b 4d fc	 mov	 ecx, DWORD PTR _pData$[ebp]
  0047d	8b 11		 mov	 edx, DWORD PTR [ecx]
  0047f	8b 4d fc	 mov	 ecx, DWORD PTR _pData$[ebp]
  00482	ff 52 04	 call	 DWORD PTR [edx+4]

; 84   : 		AddDataObject(guidDataObject, pData);

  00485	8b 45 fc	 mov	 eax, DWORD PTR _pData$[ebp]
  00488	50		 push	 eax
  00489	8b 4d 08	 mov	 ecx, DWORD PTR _guidDataObject$[ebp]
  0048c	51		 push	 ecx
  0048d	8b 55 f8	 mov	 edx, DWORD PTR _this$[ebp]
  00490	8b 02		 mov	 eax, DWORD PTR [edx]
  00492	8b 4d f8	 mov	 ecx, DWORD PTR _this$[ebp]
  00495	ff 50 10	 call	 DWORD PTR [eax+16]
$L199258:

; 85   : 	}
; 86   : 	return pData;

  00498	8b 45 fc	 mov	 eax, DWORD PTR _pData$[ebp]
$L199246:

; 87   : }

  0049b	8b e5		 mov	 esp, ebp
  0049d	5d		 pop	 ebp
  0049e	c2 04 00	 ret	 4
$L200553:
  004a1	00 00 00 00	 DD	 $L199255
  004a5	00 00 00 00	 DD	 $L199257
  004a9	00 00 00 00	 DD	 $L199253
  004ad	00 00 00 00	 DD	 $L199257
  004b1	00 00 00 00	 DD	 $L199257
  004b5	00 00 00 00	 DD	 $L199254
  004b9	00 00 00 00	 DD	 $L199256
?GetDataObject@CDataManager@@UAEPAVIData@@ABK@Z ENDP	; CDataManager::GetDataObject
_TEXT	ENDS
PUBLIC	??8const_iterator@?$_Tree@V?$_Tmap_traits@KPAVIData@@U?$less@K@std@@V?$allocator@U?$pair@$$CBKPAVIData@@@std@@@3@$0A@@std@@@std@@QBE_NABV012@@Z ; std::_Tree<std::_Tmap_traits<unsigned long,IData *,std::less<unsigned long>,std::allocator<std::pair<unsigned long const ,IData *> >,0> >::const_iterator::operator==
PUBLIC	?find@?$_Tree@V?$_Tmap_traits@KPAVIData@@U?$less@K@std@@V?$allocator@U?$pair@$$CBKPAVIData@@@std@@@3@$0A@@std@@@std@@QAE?AViterator@12@ABK@Z ; std::_Tree<std::_Tmap_traits<unsigned long,IData *,std::less<unsigned long>,std::allocator<std::pair<unsigned long const ,IData *> >,0> >::find
; Function compile flags: /Odt
_TEXT	SEGMENT
_this$ = -12						; size = 4
$T200556 = -8						; size = 4
$T200555 = -4						; size = 4
_guidDataObject$ = 8					; size = 4
?_GetMapObject@CDataManager@@AAEPAVIData@@ABK@Z PROC NEAR ; CDataManager::_GetMapObject
; _this$ = ecx

; 90   : {

  004c0	55		 push	 ebp
  004c1	8b ec		 mov	 ebp, esp
  004c3	83 ec 0c	 sub	 esp, 12			; 0000000cH
  004c6	89 4d f4	 mov	 DWORD PTR _this$[ebp], ecx

; 91   : 	if( m_mapDataObject.find(guidDataObject) == m_mapDataObject.end() )

  004c9	8d 45 f8	 lea	 eax, DWORD PTR $T200556[ebp]
  004cc	50		 push	 eax
  004cd	8b 4d f4	 mov	 ecx, DWORD PTR _this$[ebp]
  004d0	83 c1 04	 add	 ecx, 4
  004d3	e8 00 00 00 00	 call	 ?end@?$_Tree@V?$_Tmap_traits@KPAVIData@@U?$less@K@std@@V?$allocator@U?$pair@$$CBKPAVIData@@@std@@@3@$0A@@std@@@std@@QAE?AViterator@12@XZ ; std::_Tree<std::_Tmap_traits<unsigned long,IData *,std::less<unsigned long>,std::allocator<std::pair<unsigned long const ,IData *> >,0> >::end
  004d8	50		 push	 eax
  004d9	8b 4d 08	 mov	 ecx, DWORD PTR _guidDataObject$[ebp]
  004dc	51		 push	 ecx
  004dd	8d 55 fc	 lea	 edx, DWORD PTR $T200555[ebp]
  004e0	52		 push	 edx
  004e1	8b 4d f4	 mov	 ecx, DWORD PTR _this$[ebp]
  004e4	83 c1 04	 add	 ecx, 4
  004e7	e8 00 00 00 00	 call	 ?find@?$_Tree@V?$_Tmap_traits@KPAVIData@@U?$less@K@std@@V?$allocator@U?$pair@$$CBKPAVIData@@@std@@@3@$0A@@std@@@std@@QAE?AViterator@12@ABK@Z ; std::_Tree<std::_Tmap_traits<unsigned long,IData *,std::less<unsigned long>,std::allocator<std::pair<unsigned long const ,IData *> >,0> >::find
  004ec	8b c8		 mov	 ecx, eax
  004ee	e8 00 00 00 00	 call	 ??8const_iterator@?$_Tree@V?$_Tmap_traits@KPAVIData@@U?$less@K@std@@V?$allocator@U?$pair@$$CBKPAVIData@@@std@@@3@$0A@@std@@@std@@QBE_NABV012@@Z ; std::_Tree<std::_Tmap_traits<unsigned long,IData *,std::less<unsigned long>,std::allocator<std::pair<unsigned long const ,IData *> >,0> >::const_iterator::operator==
  004f3	0f b6 c0	 movzx	 eax, al
  004f6	85 c0		 test	 eax, eax
  004f8	74 04		 je	 SHORT $L199265

; 92   : 	{
; 93   : 		return NULL;

  004fa	33 c0		 xor	 eax, eax
  004fc	eb 11		 jmp	 SHORT $L199262
$L199265:

; 94   : 	}
; 95   : 	return m_mapDataObject[guidDataObject];

  004fe	8b 4d 08	 mov	 ecx, DWORD PTR _guidDataObject$[ebp]
  00501	51		 push	 ecx
  00502	8b 4d f4	 mov	 ecx, DWORD PTR _this$[ebp]
  00505	83 c1 04	 add	 ecx, 4
  00508	e8 00 00 00 00	 call	 ??A?$map@KPAVIData@@U?$less@K@std@@V?$allocator@U?$pair@$$CBKPAVIData@@@std@@@3@@std@@QAEAAPAVIData@@ABK@Z ; std::map<unsigned long,IData *,std::less<unsigned long>,std::allocator<std::pair<unsigned long const ,IData *> > >::operator[]
  0050d	8b 00		 mov	 eax, DWORD PTR [eax]
$L199262:

; 96   : }

  0050f	8b e5		 mov	 esp, ebp
  00511	5d		 pop	 ebp
  00512	c2 04 00	 ret	 4
?_GetMapObject@CDataManager@@AAEPAVIData@@ABK@Z ENDP	; CDataManager::_GetMapObject
_TEXT	ENDS
PUBLIC	?GetExportDataObject@CDataManager@@QAEPAVIData@@ABK@Z ; CDataManager::GetExportDataObject
; Function compile flags: /Odt
_TEXT	SEGMENT
_this$ = -12						; size = 4
$T200559 = -8						; size = 4
$T200558 = -4						; size = 4
_guidDataObject$ = 8					; size = 4
?GetExportDataObject@CDataManager@@QAEPAVIData@@ABK@Z PROC NEAR ; CDataManager::GetExportDataObject
; _this$ = ecx

; 99   : {

  00520	55		 push	 ebp
  00521	8b ec		 mov	 ebp, esp
  00523	83 ec 0c	 sub	 esp, 12			; 0000000cH
  00526	89 4d f4	 mov	 DWORD PTR _this$[ebp], ecx

; 100  : 	if( m_mapDataObject.find( guidDataObject ) == m_mapDataObject.end() )

  00529	8d 45 f8	 lea	 eax, DWORD PTR $T200559[ebp]
  0052c	50		 push	 eax
  0052d	8b 4d f4	 mov	 ecx, DWORD PTR _this$[ebp]
  00530	83 c1 04	 add	 ecx, 4
  00533	e8 00 00 00 00	 call	 ?end@?$_Tree@V?$_Tmap_traits@KPAVIData@@U?$less@K@std@@V?$allocator@U?$pair@$$CBKPAVIData@@@std@@@3@$0A@@std@@@std@@QAE?AViterator@12@XZ ; std::_Tree<std::_Tmap_traits<unsigned long,IData *,std::less<unsigned long>,std::allocator<std::pair<unsigned long const ,IData *> >,0> >::end
  00538	50		 push	 eax
  00539	8b 4d 08	 mov	 ecx, DWORD PTR _guidDataObject$[ebp]
  0053c	51		 push	 ecx
  0053d	8d 55 fc	 lea	 edx, DWORD PTR $T200558[ebp]
  00540	52		 push	 edx
  00541	8b 4d f4	 mov	 ecx, DWORD PTR _this$[ebp]
  00544	83 c1 04	 add	 ecx, 4
  00547	e8 00 00 00 00	 call	 ?find@?$_Tree@V?$_Tmap_traits@KPAVIData@@U?$less@K@std@@V?$allocator@U?$pair@$$CBKPAVIData@@@std@@@3@$0A@@std@@@std@@QAE?AViterator@12@ABK@Z ; std::_Tree<std::_Tmap_traits<unsigned long,IData *,std::less<unsigned long>,std::allocator<std::pair<unsigned long const ,IData *> >,0> >::find
  0054c	8b c8		 mov	 ecx, eax
  0054e	e8 00 00 00 00	 call	 ??8const_iterator@?$_Tree@V?$_Tmap_traits@KPAVIData@@U?$less@K@std@@V?$allocator@U?$pair@$$CBKPAVIData@@@std@@@3@$0A@@std@@@std@@QBE_NABV012@@Z ; std::_Tree<std::_Tmap_traits<unsigned long,IData *,std::less<unsigned long>,std::allocator<std::pair<unsigned long const ,IData *> >,0> >::const_iterator::operator==
  00553	0f b6 c0	 movzx	 eax, al
  00556	85 c0		 test	 eax, eax
  00558	74 04		 je	 SHORT $L199272

; 101  : 	{
; 102  : 		return NULL;

  0055a	33 c0		 xor	 eax, eax
  0055c	eb 11		 jmp	 SHORT $L199269
$L199272:

; 103  : 	}
; 104  : 	return m_mapDataObject[guidDataObject];

  0055e	8b 4d 08	 mov	 ecx, DWORD PTR _guidDataObject$[ebp]
  00561	51		 push	 ecx
  00562	8b 4d f4	 mov	 ecx, DWORD PTR _this$[ebp]
  00565	83 c1 04	 add	 ecx, 4
  00568	e8 00 00 00 00	 call	 ??A?$map@KPAVIData@@U?$less@K@std@@V?$allocator@U?$pair@$$CBKPAVIData@@@std@@@3@@std@@QAEAAPAVIData@@ABK@Z ; std::map<unsigned long,IData *,std::less<unsigned long>,std::allocator<std::pair<unsigned long const ,IData *> > >::operator[]
  0056d	8b 00		 mov	 eax, DWORD PTR [eax]
$L199269:

; 105  : }

  0056f	8b e5		 mov	 esp, ebp
  00571	5d		 pop	 ebp
  00572	c2 04 00	 ret	 4
?GetExportDataObject@CDataManager@@QAEPAVIData@@ABK@Z ENDP ; CDataManager::GetExportDataObject
_TEXT	ENDS
PUBLIC	??0?$allocator@U?$pair@$$CBKPAVIData@@@std@@@std@@QAE@XZ ; std::allocator<std::pair<unsigned long const ,IData *> >::allocator<std::pair<unsigned long const ,IData *> >
PUBLIC	??0?$_Tree@V?$_Tmap_traits@KPAVIData@@U?$less@K@std@@V?$allocator@U?$pair@$$CBKPAVIData@@@std@@@3@$0A@@std@@@std@@QAE@ABU?$less@K@1@ABV?$allocator@U?$pair@$$CBKPAVIData@@@std@@@1@@Z ; std::_Tree<std::_Tmap_traits<unsigned long,IData *,std::less<unsigned long>,std::allocator<std::pair<unsigned long const ,IData *> >,0> >::_Tree<std::_Tmap_traits<unsigned long,IData *,std::less<unsigned long>,std::allocator<std::pair<unsigned long const ,IData *> >,0> >
; Function compile flags: /Odt
; File d:\program files (x86)\microsoft visual studio .net 2003\vc7\include\map
;	COMDAT ??0?$map@KPAVIData@@U?$less@K@std@@V?$allocator@U?$pair@$$CBKPAVIData@@@std@@@3@@std@@QAE@XZ
_TEXT	SEGMENT
_this$ = -8						; size = 4
$T200562 = -2						; size = 1
$T200561 = -1						; size = 1
??0?$map@KPAVIData@@U?$less@K@std@@V?$allocator@U?$pair@$$CBKPAVIData@@@std@@@3@@std@@QAE@XZ PROC NEAR ; std::map<unsigned long,IData *,std::less<unsigned long>,std::allocator<std::pair<unsigned long const ,IData *> > >::map<unsigned long,IData *,std::less<unsigned long>,std::allocator<std::pair<unsigned long const ,IData *> > >, COMDAT
; _this$ = ecx

; 102  : 		{	// construct empty map from defaults

  00000	55		 push	 ebp
  00001	8b ec		 mov	 ebp, esp
  00003	83 ec 08	 sub	 esp, 8
  00006	89 4d f8	 mov	 DWORD PTR _this$[ebp], ecx
  00009	8d 4d ff	 lea	 ecx, DWORD PTR $T200561[ebp]
  0000c	e8 00 00 00 00	 call	 ??0?$allocator@U?$pair@$$CBKPAVIData@@@std@@@std@@QAE@XZ ; std::allocator<std::pair<unsigned long const ,IData *> >::allocator<std::pair<unsigned long const ,IData *> >
  00011	50		 push	 eax
  00012	8d 45 fe	 lea	 eax, DWORD PTR $T200562[ebp]
  00015	50		 push	 eax
  00016	8b 4d f8	 mov	 ecx, DWORD PTR _this$[ebp]
  00019	e8 00 00 00 00	 call	 ??0?$_Tree@V?$_Tmap_traits@KPAVIData@@U?$less@K@std@@V?$allocator@U?$pair@$$CBKPAVIData@@@std@@@3@$0A@@std@@@std@@QAE@ABU?$less@K@1@ABV?$allocator@U?$pair@$$CBKPAVIData@@@std@@@1@@Z ; std::_Tree<std::_Tmap_traits<unsigned long,IData *,std::less<unsigned long>,std::allocator<std::pair<unsigned long const ,IData *> >,0> >::_Tree<std::_Tmap_traits<unsigned long,IData *,std::less<unsigned long>,std::allocator<std::pair<unsigned long const ,IData *> >,0> >

; 103  : 		}

  0001e	8b 45 f8	 mov	 eax, DWORD PTR _this$[ebp]
  00021	8b e5		 mov	 esp, ebp
  00023	5d		 pop	 ebp
  00024	c3		 ret	 0
??0?$map@KPAVIData@@U?$less@K@std@@V?$allocator@U?$pair@$$CBKPAVIData@@@std@@@3@@std@@QAE@XZ ENDP ; std::map<unsigned long,IData *,std::less<unsigned long>,std::allocator<std::pair<unsigned long const ,IData *> > >::map<unsigned long,IData *,std::less<unsigned long>,std::allocator<std::pair<unsigned long const ,IData *> > >
_TEXT	ENDS
PUBLIC	?_Mynode@const_iterator@?$_Tree@V?$_Tmap_traits@KPAVIData@@U?$less@K@std@@V?$allocator@U?$pair@$$CBKPAVIData@@@std@@@3@$0A@@std@@@std@@QBEPAU_Node@?$_Tree_nod@V?$_Tmap_traits@KPAVIData@@U?$less@K@std@@V?$allocator@U?$pair@$$CBKPAVIData@@@std@@@3@$0A@@std@@@3@XZ ; std::_Tree<std::_Tmap_traits<unsigned long,IData *,std::less<unsigned long>,std::allocator<std::pair<unsigned long const ,IData *> >,0> >::const_iterator::_Mynode
PUBLIC	??Diterator@?$_Tree@V?$_Tmap_traits@KPAVIData@@U?$less@K@std@@V?$allocator@U?$pair@$$CBKPAVIData@@@std@@@3@$0A@@std@@@std@@QBEAAU?$pair@$$CBKPAVIData@@@2@XZ ; std::_Tree<std::_Tmap_traits<unsigned long,IData *,std::less<unsigned long>,std::allocator<std::pair<unsigned long const ,IData *> >,0> >::iterator::operator*
PUBLIC	??0?$pair@$$CBKPAVIData@@@std@@QAE@ABKABQAVIData@@@Z ; std::pair<unsigned long const ,IData *>::pair<unsigned long const ,IData *>
PUBLIC	??R?$less@K@std@@QBE_NABK0@Z			; std::less<unsigned long>::operator()
PUBLIC	?_Key@?$_Tree@V?$_Tmap_traits@KPAVIData@@U?$less@K@std@@V?$allocator@U?$pair@$$CBKPAVIData@@@std@@@3@$0A@@std@@@std@@KAABKPAU_Node@?$_Tree_nod@V?$_Tmap_traits@KPAVIData@@U?$less@K@std@@V?$allocator@U?$pair@$$CBKPAVIData@@@std@@@3@$0A@@std@@@2@@Z ; std::_Tree<std::_Tmap_traits<unsigned long,IData *,std::less<unsigned long>,std::allocator<std::pair<unsigned long const ,IData *> >,0> >::_Key
PUBLIC	?insert@?$_Tree@V?$_Tmap_traits@KPAVIData@@U?$less@K@std@@V?$allocator@U?$pair@$$CBKPAVIData@@@std@@@3@$0A@@std@@@std@@QAE?AViterator@12@V312@ABU?$pair@$$CBKPAVIData@@@2@@Z ; std::_Tree<std::_Tmap_traits<unsigned long,IData *,std::less<unsigned long>,std::allocator<std::pair<unsigned long const ,IData *> >,0> >::insert
PUBLIC	?lower_bound@?$_Tree@V?$_Tmap_traits@KPAVIData@@U?$less@K@std@@V?$allocator@U?$pair@$$CBKPAVIData@@@std@@@3@$0A@@std@@@std@@QAE?AViterator@12@ABK@Z ; std::_Tree<std::_Tmap_traits<unsigned long,IData *,std::less<unsigned long>,std::allocator<std::pair<unsigned long const ,IData *> >,0> >::lower_bound
; Function compile flags: /Odt
;	COMDAT ??A?$map@KPAVIData@@U?$less@K@std@@V?$allocator@U?$pair@$$CBKPAVIData@@@std@@@3@@std@@QAEAAPAVIData@@ABK@Z
_TEXT	SEGMENT
_this$ = -28						; size = 4
$T200569 = -24						; size = 4
$T200568 = -20						; size = 4
$T200567 = -16						; size = 8
$T200566 = -8						; size = 4
__Where$ = -4						; size = 4
__Keyval$ = 8						; size = 4
??A?$map@KPAVIData@@U?$less@K@std@@V?$allocator@U?$pair@$$CBKPAVIData@@@std@@@3@@std@@QAEAAPAVIData@@ABK@Z PROC NEAR ; std::map<unsigned long,IData *,std::less<unsigned long>,std::allocator<std::pair<unsigned long const ,IData *> > >::operator[], COMDAT
; _this$ = ecx

; 142  : 		{	// find element matching _Keyval or insert with default mapped

  00000	55		 push	 ebp
  00001	8b ec		 mov	 ebp, esp
  00003	83 ec 1c	 sub	 esp, 28			; 0000001cH
  00006	89 4d e4	 mov	 DWORD PTR _this$[ebp], ecx

; 143  : 		iterator _Where = this->lower_bound(_Keyval);

  00009	8b 45 08	 mov	 eax, DWORD PTR __Keyval$[ebp]
  0000c	50		 push	 eax
  0000d	8d 4d fc	 lea	 ecx, DWORD PTR __Where$[ebp]
  00010	51		 push	 ecx
  00011	8b 4d e4	 mov	 ecx, DWORD PTR _this$[ebp]
  00014	e8 00 00 00 00	 call	 ?lower_bound@?$_Tree@V?$_Tmap_traits@KPAVIData@@U?$less@K@std@@V?$allocator@U?$pair@$$CBKPAVIData@@@std@@@3@$0A@@std@@@std@@QAE?AViterator@12@ABK@Z ; std::_Tree<std::_Tmap_traits<unsigned long,IData *,std::less<unsigned long>,std::allocator<std::pair<unsigned long const ,IData *> >,0> >::lower_bound

; 144  : 		if (_Where == this->end() || this->comp(_Keyval, this->_Key(_Where._Mynode())))

  00019	8d 55 f8	 lea	 edx, DWORD PTR $T200566[ebp]
  0001c	52		 push	 edx
  0001d	8b 4d e4	 mov	 ecx, DWORD PTR _this$[ebp]
  00020	e8 00 00 00 00	 call	 ?end@?$_Tree@V?$_Tmap_traits@KPAVIData@@U?$less@K@std@@V?$allocator@U?$pair@$$CBKPAVIData@@@std@@@3@$0A@@std@@@std@@QAE?AViterator@12@XZ ; std::_Tree<std::_Tmap_traits<unsigned long,IData *,std::less<unsigned long>,std::allocator<std::pair<unsigned long const ,IData *> >,0> >::end
  00025	50		 push	 eax
  00026	8d 4d fc	 lea	 ecx, DWORD PTR __Where$[ebp]
  00029	e8 00 00 00 00	 call	 ??8const_iterator@?$_Tree@V?$_Tmap_traits@KPAVIData@@U?$less@K@std@@V?$allocator@U?$pair@$$CBKPAVIData@@@std@@@3@$0A@@std@@@std@@QBE_NABV012@@Z ; std::_Tree<std::_Tmap_traits<unsigned long,IData *,std::less<unsigned long>,std::allocator<std::pair<unsigned long const ,IData *> >,0> >::const_iterator::operator==
  0002e	0f b6 c0	 movzx	 eax, al
  00031	85 c0		 test	 eax, eax
  00033	75 25		 jne	 SHORT $L199337
  00035	8d 4d fc	 lea	 ecx, DWORD PTR __Where$[ebp]
  00038	e8 00 00 00 00	 call	 ?_Mynode@const_iterator@?$_Tree@V?$_Tmap_traits@KPAVIData@@U?$less@K@std@@V?$allocator@U?$pair@$$CBKPAVIData@@@std@@@3@$0A@@std@@@std@@QBEPAU_Node@?$_Tree_nod@V?$_Tmap_traits@KPAVIData@@U?$less@K@std@@V?$allocator@U?$pair@$$CBKPAVIData@@@std@@@3@$0A@@std@@@3@XZ ; std::_Tree<std::_Tmap_traits<unsigned long,IData *,std::less<unsigned long>,std::allocator<std::pair<unsigned long const ,IData *> >,0> >::const_iterator::_Mynode
  0003d	50		 push	 eax
  0003e	e8 00 00 00 00	 call	 ?_Key@?$_Tree@V?$_Tmap_traits@KPAVIData@@U?$less@K@std@@V?$allocator@U?$pair@$$CBKPAVIData@@@std@@@3@$0A@@std@@@std@@KAABKPAU_Node@?$_Tree_nod@V?$_Tmap_traits@KPAVIData@@U?$less@K@std@@V?$allocator@U?$pair@$$CBKPAVIData@@@std@@@3@$0A@@std@@@2@@Z ; std::_Tree<std::_Tmap_traits<unsigned long,IData *,std::less<unsigned long>,std::allocator<std::pair<unsigned long const ,IData *> >,0> >::_Key
  00043	83 c4 04	 add	 esp, 4
  00046	50		 push	 eax
  00047	8b 4d 08	 mov	 ecx, DWORD PTR __Keyval$[ebp]
  0004a	51		 push	 ecx
  0004b	8b 4d e4	 mov	 ecx, DWORD PTR _this$[ebp]
  0004e	e8 00 00 00 00	 call	 ??R?$less@K@std@@QBE_NABK0@Z ; std::less<unsigned long>::operator()
  00053	0f b6 d0	 movzx	 edx, al
  00056	85 d2		 test	 edx, edx
  00058	74 2d		 je	 SHORT $L199336
$L199337:

; 145  : 			_Where = this->insert(_Where,
; 146  : 				value_type(_Keyval, mapped_type()));

  0005a	c7 45 ec 00 00
	00 00		 mov	 DWORD PTR $T200568[ebp], 0
  00061	8d 45 ec	 lea	 eax, DWORD PTR $T200568[ebp]
  00064	50		 push	 eax
  00065	8b 4d 08	 mov	 ecx, DWORD PTR __Keyval$[ebp]
  00068	51		 push	 ecx
  00069	8d 4d f0	 lea	 ecx, DWORD PTR $T200567[ebp]
  0006c	e8 00 00 00 00	 call	 ??0?$pair@$$CBKPAVIData@@@std@@QAE@ABKABQAVIData@@@Z ; std::pair<unsigned long const ,IData *>::pair<unsigned long const ,IData *>
  00071	50		 push	 eax
  00072	8b 55 fc	 mov	 edx, DWORD PTR __Where$[ebp]
  00075	52		 push	 edx
  00076	8d 45 e8	 lea	 eax, DWORD PTR $T200569[ebp]
  00079	50		 push	 eax
  0007a	8b 4d e4	 mov	 ecx, DWORD PTR _this$[ebp]
  0007d	e8 00 00 00 00	 call	 ?insert@?$_Tree@V?$_Tmap_traits@KPAVIData@@U?$less@K@std@@V?$allocator@U?$pair@$$CBKPAVIData@@@std@@@3@$0A@@std@@@std@@QAE?AViterator@12@V312@ABU?$pair@$$CBKPAVIData@@@2@@Z ; std::_Tree<std::_Tmap_traits<unsigned long,IData *,std::less<unsigned long>,std::allocator<std::pair<unsigned long const ,IData *> >,0> >::insert
  00082	8b 08		 mov	 ecx, DWORD PTR [eax]
  00084	89 4d fc	 mov	 DWORD PTR __Where$[ebp], ecx
$L199336:

; 147  : 		return ((*_Where).second);

  00087	8d 4d fc	 lea	 ecx, DWORD PTR __Where$[ebp]
  0008a	e8 00 00 00 00	 call	 ??Diterator@?$_Tree@V?$_Tmap_traits@KPAVIData@@U?$less@K@std@@V?$allocator@U?$pair@$$CBKPAVIData@@@std@@@3@$0A@@std@@@std@@QBEAAU?$pair@$$CBKPAVIData@@@2@XZ ; std::_Tree<std::_Tmap_traits<unsigned long,IData *,std::less<unsigned long>,std::allocator<std::pair<unsigned long const ,IData *> >,0> >::iterator::operator*
  0008f	83 c0 04	 add	 eax, 4

; 148  : 		}

  00092	8b e5		 mov	 esp, ebp
  00094	5d		 pop	 ebp
  00095	c2 04 00	 ret	 4
??A?$map@KPAVIData@@U?$less@K@std@@V?$allocator@U?$pair@$$CBKPAVIData@@@std@@@3@@std@@QAEAAPAVIData@@ABK@Z ENDP ; std::map<unsigned long,IData *,std::less<unsigned long>,std::allocator<std::pair<unsigned long const ,IData *> > >::operator[]
_TEXT	ENDS
PUBLIC	?_Tidy@?$_Tree@V?$_Tmap_traits@KPAVIData@@U?$less@K@std@@V?$allocator@U?$pair@$$CBKPAVIData@@@std@@@3@$0A@@std@@@std@@IAEXXZ ; std::_Tree<std::_Tmap_traits<unsigned long,IData *,std::less<unsigned long>,std::allocator<std::pair<unsigned long const ,IData *> >,0> >::_Tidy
; Function compile flags: /Odt
; File d:\program files (x86)\microsoft visual studio .net 2003\vc7\include\xtree
;	COMDAT ??1?$_Tree@V?$_Tmap_traits@KPAVIData@@U?$less@K@std@@V?$allocator@U?$pair@$$CBKPAVIData@@@std@@@3@$0A@@std@@@std@@QAE@XZ
_TEXT	SEGMENT
_this$ = -4						; size = 4
??1?$_Tree@V?$_Tmap_traits@KPAVIData@@U?$less@K@std@@V?$allocator@U?$pair@$$CBKPAVIData@@@std@@@3@$0A@@std@@@std@@QAE@XZ PROC NEAR ; std::_Tree<std::_Tmap_traits<unsigned long,IData *,std::less<unsigned long>,std::allocator<std::pair<unsigned long const ,IData *> >,0> >::~_Tree<std::_Tmap_traits<unsigned long,IData *,std::less<unsigned long>,std::allocator<std::pair<unsigned long const ,IData *> >,0> >, COMDAT
; _this$ = ecx

; 391  : 		{	// destroy tree

  00000	55		 push	 ebp
  00001	8b ec		 mov	 ebp, esp
  00003	51		 push	 ecx
  00004	89 4d fc	 mov	 DWORD PTR _this$[ebp], ecx

; 392  : 		_Tidy();

  00007	8b 4d fc	 mov	 ecx, DWORD PTR _this$[ebp]
  0000a	e8 00 00 00 00	 call	 ?_Tidy@?$_Tree@V?$_Tmap_traits@KPAVIData@@U?$less@K@std@@V?$allocator@U?$pair@$$CBKPAVIData@@@std@@@3@$0A@@std@@@std@@IAEXXZ ; std::_Tree<std::_Tmap_traits<unsigned long,IData *,std::less<unsigned long>,std::allocator<std::pair<unsigned long const ,IData *> >,0> >::_Tidy

; 393  : 		}

  0000f	8b e5		 mov	 esp, ebp
  00011	5d		 pop	 ebp
  00012	c3		 ret	 0
??1?$_Tree@V?$_Tmap_traits@KPAVIData@@U?$less@K@std@@V?$allocator@U?$pair@$$CBKPAVIData@@@std@@@3@$0A@@std@@@std@@QAE@XZ ENDP ; std::_Tree<std::_Tmap_traits<unsigned long,IData *,std::less<unsigned long>,std::allocator<std::pair<unsigned long const ,IData *> >,0> >::~_Tree<std::_Tmap_traits<unsigned long,IData *,std::less<unsigned long>,std::allocator<std::pair<unsigned long const ,IData *> >,0> >
_TEXT	ENDS
PUBLIC	??0iterator@?$_Tree@V?$_Tmap_traits@KPAVIData@@U?$less@K@std@@V?$allocator@U?$pair@$$CBKPAVIData@@@std@@@3@$0A@@std@@@std@@QAE@PAU_Node@?$_Tree_nod@V?$_Tmap_traits@KPAVIData@@U?$less@K@std@@V?$allocator@U?$pair@$$CBKPAVIData@@@std@@@3@$0A@@std@@@2@@Z ; std::_Tree<std::_Tmap_traits<unsigned long,IData *,std::less<unsigned long>,std::allocator<std::pair<unsigned long const ,IData *> >,0> >::iterator::iterator
PUBLIC	?_Lmost@?$_Tree@V?$_Tmap_traits@KPAVIData@@U?$less@K@std@@V?$allocator@U?$pair@$$CBKPAVIData@@@std@@@3@$0A@@std@@@std@@IAEAAPAU_Node@?$_Tree_nod@V?$_Tmap_traits@KPAVIData@@U?$less@K@std@@V?$allocator@U?$pair@$$CBKPAVIData@@@std@@@3@$0A@@std@@@2@XZ ; std::_Tree<std::_Tmap_traits<unsigned long,IData *,std::less<unsigned long>,std::allocator<std::pair<unsigned long const ,IData *> >,0> >::_Lmost
; Function compile flags: /Odt
;	COMDAT ?begin@?$_Tree@V?$_Tmap_traits@KPAVIData@@U?$less@K@std@@V?$allocator@U?$pair@$$CBKPAVIData@@@std@@@3@$0A@@std@@@std@@QAE?AViterator@12@XZ
_TEXT	SEGMENT
_this$ = -4						; size = 4
___$ReturnUdt$ = 8					; size = 4
?begin@?$_Tree@V?$_Tmap_traits@KPAVIData@@U?$less@K@std@@V?$allocator@U?$pair@$$CBKPAVIData@@@std@@@3@$0A@@std@@@std@@QAE?AViterator@12@XZ PROC NEAR ; std::_Tree<std::_Tmap_traits<unsigned long,IData *,std::less<unsigned long>,std::allocator<std::pair<unsigned long const ,IData *> >,0> >::begin, COMDAT
; _this$ = ecx

; 407  : 		{	// return iterator for beginning of mutable sequence

  00000	55		 push	 ebp
  00001	8b ec		 mov	 ebp, esp
  00003	51		 push	 ecx
  00004	89 4d fc	 mov	 DWORD PTR _this$[ebp], ecx

; 408  : 		return (_TREE_ITERATOR(_Lmost()));

  00007	8b 4d fc	 mov	 ecx, DWORD PTR _this$[ebp]
  0000a	e8 00 00 00 00	 call	 ?_Lmost@?$_Tree@V?$_Tmap_traits@KPAVIData@@U?$less@K@std@@V?$allocator@U?$pair@$$CBKPAVIData@@@std@@@3@$0A@@std@@@std@@IAEAAPAU_Node@?$_Tree_nod@V?$_Tmap_traits@KPAVIData@@U?$less@K@std@@V?$allocator@U?$pair@$$CBKPAVIData@@@std@@@3@$0A@@std@@@2@XZ ; std::_Tree<std::_Tmap_traits<unsigned long,IData *,std::less<unsigned long>,std::allocator<std::pair<unsigned long const ,IData *> >,0> >::_Lmost
  0000f	8b 00		 mov	 eax, DWORD PTR [eax]
  00011	50		 push	 eax
  00012	8b 4d 08	 mov	 ecx, DWORD PTR ___$ReturnUdt$[ebp]
  00015	e8 00 00 00 00	 call	 ??0iterator@?$_Tree@V?$_Tmap_traits@KPAVIData@@U?$less@K@std@@V?$allocator@U?$pair@$$CBKPAVIData@@@std@@@3@$0A@@std@@@std@@QAE@PAU_Node@?$_Tree_nod@V?$_Tmap_traits@KPAVIData@@U?$less@K@std@@V?$allocator@U?$pair@$$CBKPAVIData@@@std@@@3@$0A@@std@@@2@@Z ; std::_Tree<std::_Tmap_traits<unsigned long,IData *,std::less<unsigned long>,std::allocator<std::pair<unsigned long const ,IData *> >,0> >::iterator::iterator
  0001a	8b 45 08	 mov	 eax, DWORD PTR ___$ReturnUdt$[ebp]

; 409  : 		}

  0001d	8b e5		 mov	 esp, ebp
  0001f	5d		 pop	 ebp
  00020	c2 04 00	 ret	 4
?begin@?$_Tree@V?$_Tmap_traits@KPAVIData@@U?$less@K@std@@V?$allocator@U?$pair@$$CBKPAVIData@@@std@@@3@$0A@@std@@@std@@QAE?AViterator@12@XZ ENDP ; std::_Tree<std::_Tmap_traits<unsigned long,IData *,std::less<unsigned long>,std::allocator<std::pair<unsigned long const ,IData *> >,0> >::begin
; Function compile flags: /Odt
_TEXT	ENDS
;	COMDAT ?end@?$_Tree@V?$_Tmap_traits@KPAVIData@@U?$less@K@std@@V?$allocator@U?$pair@$$CBKPAVIData@@@std@@@3@$0A@@std@@@std@@QAE?AViterator@12@XZ
_TEXT	SEGMENT
_this$ = -4						; size = 4
___$ReturnUdt$ = 8					; size = 4
?end@?$_Tree@V?$_Tmap_traits@KPAVIData@@U?$less@K@std@@V?$allocator@U?$pair@$$CBKPAVIData@@@std@@@3@$0A@@std@@@std@@QAE?AViterator@12@XZ PROC NEAR ; std::_Tree<std::_Tmap_traits<unsigned long,IData *,std::less<unsigned long>,std::allocator<std::pair<unsigned long const ,IData *> >,0> >::end, COMDAT
; _this$ = ecx

; 417  : 		{	// return iterator for end of mutable sequence

  00000	55		 push	 ebp
  00001	8b ec		 mov	 ebp, esp
  00003	51		 push	 ecx
  00004	89 4d fc	 mov	 DWORD PTR _this$[ebp], ecx

; 418  : 		return (_TREE_ITERATOR(_Myhead));

  00007	8b 45 fc	 mov	 eax, DWORD PTR _this$[ebp]
  0000a	8b 48 04	 mov	 ecx, DWORD PTR [eax+4]
  0000d	51		 push	 ecx
  0000e	8b 4d 08	 mov	 ecx, DWORD PTR ___$ReturnUdt$[ebp]
  00011	e8 00 00 00 00	 call	 ??0iterator@?$_Tree@V?$_Tmap_traits@KPAVIData@@U?$less@K@std@@V?$allocator@U?$pair@$$CBKPAVIData@@@std@@@3@$0A@@std@@@std@@QAE@PAU_Node@?$_Tree_nod@V?$_Tmap_traits@KPAVIData@@U?$less@K@std@@V?$allocator@U?$pair@$$CBKPAVIData@@@std@@@3@$0A@@std@@@2@@Z ; std::_Tree<std::_Tmap_traits<unsigned long,IData *,std::less<unsigned long>,std::allocator<std::pair<unsigned long const ,IData *> >,0> >::iterator::iterator
  00016	8b 45 08	 mov	 eax, DWORD PTR ___$ReturnUdt$[ebp]

; 419  : 		}

  00019	8b e5		 mov	 esp, ebp
  0001b	5d		 pop	 ebp
  0001c	c2 04 00	 ret	 4
?end@?$_Tree@V?$_Tmap_traits@KPAVIData@@U?$less@K@std@@V?$allocator@U?$pair@$$CBKPAVIData@@@std@@@3@$0A@@std@@@std@@QAE?AViterator@12@XZ ENDP ; std::_Tree<std::_Tmap_traits<unsigned long,IData *,std::less<unsigned long>,std::allocator<std::pair<unsigned long const ,IData *> >,0> >::end
_TEXT	ENDS
PUBLIC	??$_Distance@Viterator@?$_Tree@V?$_Tmap_traits@KPAVIData@@U?$less@K@std@@V?$allocator@U?$pair@$$CBKPAVIData@@@std@@@3@$0A@@std@@@std@@I@std@@YAXViterator@?$_Tree@V?$_Tmap_traits@KPAVIData@@U?$less@K@std@@V?$allocator@U?$pair@$$CBKPAVIData@@@std@@@3@$0A@@std@@@0@0AAI@Z ; std::_Distance<std::_Tree<std::_Tmap_traits<unsigned long,IData *,std::less<unsigned long>,std::allocator<std::pair<unsigned long const ,IData *> >,0> >::iterator,unsigned int>
PUBLIC	?erase@?$_Tree@V?$_Tmap_traits@KPAVIData@@U?$less@K@std@@V?$allocator@U?$pair@$$CBKPAVIData@@@std@@@3@$0A@@std@@@std@@QAE?AViterator@12@V312@0@Z ; std::_Tree<std::_Tmap_traits<unsigned long,IData *,std::less<unsigned long>,std::allocator<std::pair<unsigned long const ,IData *> >,0> >::erase
PUBLIC	?equal_range@?$_Tree@V?$_Tmap_traits@KPAVIData@@U?$less@K@std@@V?$allocator@U?$pair@$$CBKPAVIData@@@std@@@3@$0A@@std@@@std@@QAE?AU?$pair@Viterator@?$_Tree@V?$_Tmap_traits@KPAVIData@@U?$less@K@std@@V?$allocator@U?$pair@$$CBKPAVIData@@@std@@@3@$0A@@std@@@std@@V123@@2@ABK@Z ; std::_Tree<std::_Tmap_traits<unsigned long,IData *,std::less<unsigned long>,std::allocator<std::pair<unsigned long const ,IData *> >,0> >::equal_range
; Function compile flags: /Odt
;	COMDAT ?erase@?$_Tree@V?$_Tmap_traits@KPAVIData@@U?$less@K@std@@V?$allocator@U?$pair@$$CBKPAVIData@@@std@@@3@$0A@@std@@@std@@QAEIABK@Z
_TEXT	SEGMENT
_this$ = -20						; size = 4
$T200578 = -16						; size = 4
__Where$ = -12						; size = 8
__Num$ = -4						; size = 4
__Keyval$ = 8						; size = 4
?erase@?$_Tree@V?$_Tmap_traits@KPAVIData@@U?$less@K@std@@V?$allocator@U?$pair@$$CBKPAVIData@@@std@@@3@$0A@@std@@@std@@QAEIABK@Z PROC NEAR ; std::_Tree<std::_Tmap_traits<unsigned long,IData *,std::less<unsigned long>,std::allocator<std::pair<unsigned long const ,IData *> >,0> >::erase, COMDAT
; _this$ = ecx

; 765  : 		{	// erase and count all that match _Keyval

  00000	55		 push	 ebp
  00001	8b ec		 mov	 ebp, esp
  00003	83 ec 14	 sub	 esp, 20			; 00000014H
  00006	89 4d ec	 mov	 DWORD PTR _this$[ebp], ecx

; 766  : 		_Pairii _Where = equal_range(_Keyval);

  00009	8b 45 08	 mov	 eax, DWORD PTR __Keyval$[ebp]
  0000c	50		 push	 eax
  0000d	8d 4d f4	 lea	 ecx, DWORD PTR __Where$[ebp]
  00010	51		 push	 ecx
  00011	8b 4d ec	 mov	 ecx, DWORD PTR _this$[ebp]
  00014	e8 00 00 00 00	 call	 ?equal_range@?$_Tree@V?$_Tmap_traits@KPAVIData@@U?$less@K@std@@V?$allocator@U?$pair@$$CBKPAVIData@@@std@@@3@$0A@@std@@@std@@QAE?AU?$pair@Viterator@?$_Tree@V?$_Tmap_traits@KPAVIData@@U?$less@K@std@@V?$allocator@U?$pair@$$CBKPAVIData@@@std@@@3@$0A@@std@@@std@@V123@@2@ABK@Z ; std::_Tree<std::_Tmap_traits<unsigned long,IData *,std::less<unsigned long>,std::allocator<std::pair<unsigned long const ,IData *> >,0> >::equal_range

; 767  : 		size_type _Num = 0;

  00019	c7 45 fc 00 00
	00 00		 mov	 DWORD PTR __Num$[ebp], 0

; 768  : 		_Distance(_Where.first, _Where.second, _Num);

  00020	8d 55 fc	 lea	 edx, DWORD PTR __Num$[ebp]
  00023	52		 push	 edx
  00024	8b 45 f8	 mov	 eax, DWORD PTR __Where$[ebp+4]
  00027	50		 push	 eax
  00028	8b 4d f4	 mov	 ecx, DWORD PTR __Where$[ebp]
  0002b	51		 push	 ecx
  0002c	e8 00 00 00 00	 call	 ??$_Distance@Viterator@?$_Tree@V?$_Tmap_traits@KPAVIData@@U?$less@K@std@@V?$allocator@U?$pair@$$CBKPAVIData@@@std@@@3@$0A@@std@@@std@@I@std@@YAXViterator@?$_Tree@V?$_Tmap_traits@KPAVIData@@U?$less@K@std@@V?$allocator@U?$pair@$$CBKPAVIData@@@std@@@3@$0A@@std@@@0@0AAI@Z ; std::_Distance<std::_Tree<std::_Tmap_traits<unsigned long,IData *,std::less<unsigned long>,std::allocator<std::pair<unsigned long const ,IData *> >,0> >::iterator,unsigned int>
  00031	83 c4 0c	 add	 esp, 12			; 0000000cH

; 769  : 		erase(_Where.first, _Where.second);

  00034	8b 55 f8	 mov	 edx, DWORD PTR __Where$[ebp+4]
  00037	52		 push	 edx
  00038	8b 45 f4	 mov	 eax, DWORD PTR __Where$[ebp]
  0003b	50		 push	 eax
  0003c	8d 4d f0	 lea	 ecx, DWORD PTR $T200578[ebp]
  0003f	51		 push	 ecx
  00040	8b 4d ec	 mov	 ecx, DWORD PTR _this$[ebp]
  00043	e8 00 00 00 00	 call	 ?erase@?$_Tree@V?$_Tmap_traits@KPAVIData@@U?$less@K@std@@V?$allocator@U?$pair@$$CBKPAVIData@@@std@@@3@$0A@@std@@@std@@QAE?AViterator@12@V312@0@Z ; std::_Tree<std::_Tmap_traits<unsigned long,IData *,std::less<unsigned long>,std::allocator<std::pair<unsigned long const ,IData *> >,0> >::erase

; 770  : 		return (_Num);

  00048	8b 45 fc	 mov	 eax, DWORD PTR __Num$[ebp]

; 771  : 		}

  0004b	8b e5		 mov	 esp, ebp
  0004d	5d		 pop	 ebp
  0004e	c2 04 00	 ret	 4
?erase@?$_Tree@V?$_Tmap_traits@KPAVIData@@U?$less@K@std@@V?$allocator@U?$pair@$$CBKPAVIData@@@std@@@3@$0A@@std@@@std@@QAEIABK@Z ENDP ; std::_Tree<std::_Tmap_traits<unsigned long,IData *,std::less<unsigned long>,std::allocator<std::pair<unsigned long const ,IData *> >,0> >::erase
_TEXT	ENDS
PUBLIC	?_Erase@?$_Tree@V?$_Tmap_traits@KPAVIData@@U?$less@K@std@@V?$allocator@U?$pair@$$CBKPAVIData@@@std@@@3@$0A@@std@@@std@@IAEXPAU_Node@?$_Tree_nod@V?$_Tmap_traits@KPAVIData@@U?$less@K@std@@V?$allocator@U?$pair@$$CBKPAVIData@@@std@@@3@$0A@@std@@@2@@Z ; std::_Tree<std::_Tmap_traits<unsigned long,IData *,std::less<unsigned long>,std::allocator<std::pair<unsigned long const ,IData *> >,0> >::_Erase
PUBLIC	?_Rmost@?$_Tree@V?$_Tmap_traits@KPAVIData@@U?$less@K@std@@V?$allocator@U?$pair@$$CBKPAVIData@@@std@@@3@$0A@@std@@@std@@IAEAAPAU_Node@?$_Tree_nod@V?$_Tmap_traits@KPAVIData@@U?$less@K@std@@V?$allocator@U?$pair@$$CBKPAVIData@@@std@@@3@$0A@@std@@@2@XZ ; std::_Tree<std::_Tmap_traits<unsigned long,IData *,std::less<unsigned long>,std::allocator<std::pair<unsigned long const ,IData *> >,0> >::_Rmost
PUBLIC	?_Root@?$_Tree@V?$_Tmap_traits@KPAVIData@@U?$less@K@std@@V?$allocator@U?$pair@$$CBKPAVIData@@@std@@@3@$0A@@std@@@std@@IAEAAPAU_Node@?$_Tree_nod@V?$_Tmap_traits@KPAVIData@@U?$less@K@std@@V?$allocator@U?$pair@$$CBKPAVIData@@@std@@@3@$0A@@std@@@2@XZ ; std::_Tree<std::_Tmap_traits<unsigned long,IData *,std::less<unsigned long>,std::allocator<std::pair<unsigned long const ,IData *> >,0> >::_Root
; Function compile flags: /Odt
;	COMDAT ?clear@?$_Tree@V?$_Tmap_traits@KPAVIData@@U?$less@K@std@@V?$allocator@U?$pair@$$CBKPAVIData@@@std@@@3@$0A@@std@@@std@@QAEXXZ
_TEXT	SEGMENT
_this$ = -4						; size = 4
?clear@?$_Tree@V?$_Tmap_traits@KPAVIData@@U?$less@K@std@@V?$allocator@U?$pair@$$CBKPAVIData@@@std@@@3@$0A@@std@@@std@@QAEXXZ PROC NEAR ; std::_Tree<std::_Tmap_traits<unsigned long,IData *,std::less<unsigned long>,std::allocator<std::pair<unsigned long const ,IData *> >,0> >::clear, COMDAT
; _this$ = ecx

; 780  : 		{	// erase all

  00000	55		 push	 ebp
  00001	8b ec		 mov	 ebp, esp
  00003	51		 push	 ecx
  00004	89 4d fc	 mov	 DWORD PTR _this$[ebp], ecx

; 781  : 		_Erase(_Root());

  00007	8b 4d fc	 mov	 ecx, DWORD PTR _this$[ebp]
  0000a	e8 00 00 00 00	 call	 ?_Root@?$_Tree@V?$_Tmap_traits@KPAVIData@@U?$less@K@std@@V?$allocator@U?$pair@$$CBKPAVIData@@@std@@@3@$0A@@std@@@std@@IAEAAPAU_Node@?$_Tree_nod@V?$_Tmap_traits@KPAVIData@@U?$less@K@std@@V?$allocator@U?$pair@$$CBKPAVIData@@@std@@@3@$0A@@std@@@2@XZ ; std::_Tree<std::_Tmap_traits<unsigned long,IData *,std::less<unsigned long>,std::allocator<std::pair<unsigned long const ,IData *> >,0> >::_Root
  0000f	8b 00		 mov	 eax, DWORD PTR [eax]
  00011	50		 push	 eax
  00012	8b 4d fc	 mov	 ecx, DWORD PTR _this$[ebp]
  00015	e8 00 00 00 00	 call	 ?_Erase@?$_Tree@V?$_Tmap_traits@KPAVIData@@U?$less@K@std@@V?$allocator@U?$pair@$$CBKPAVIData@@@std@@@3@$0A@@std@@@std@@IAEXPAU_Node@?$_Tree_nod@V?$_Tmap_traits@KPAVIData@@U?$less@K@std@@V?$allocator@U?$pair@$$CBKPAVIData@@@std@@@3@$0A@@std@@@2@@Z ; std::_Tree<std::_Tmap_traits<unsigned long,IData *,std::less<unsigned long>,std::allocator<std::pair<unsigned long const ,IData *> >,0> >::_Erase

; 782  : 		_Root() = _Myhead, _Mysize = 0;

  0001a	8b 4d fc	 mov	 ecx, DWORD PTR _this$[ebp]
  0001d	e8 00 00 00 00	 call	 ?_Root@?$_Tree@V?$_Tmap_traits@KPAVIData@@U?$less@K@std@@V?$allocator@U?$pair@$$CBKPAVIData@@@std@@@3@$0A@@std@@@std@@IAEAAPAU_Node@?$_Tree_nod@V?$_Tmap_traits@KPAVIData@@U?$less@K@std@@V?$allocator@U?$pair@$$CBKPAVIData@@@std@@@3@$0A@@std@@@2@XZ ; std::_Tree<std::_Tmap_traits<unsigned long,IData *,std::less<unsigned long>,std::allocator<std::pair<unsigned long const ,IData *> >,0> >::_Root
  00022	8b 4d fc	 mov	 ecx, DWORD PTR _this$[ebp]
  00025	8b 51 04	 mov	 edx, DWORD PTR [ecx+4]
  00028	89 10		 mov	 DWORD PTR [eax], edx
  0002a	8b 45 fc	 mov	 eax, DWORD PTR _this$[ebp]
  0002d	c7 40 08 00 00
	00 00		 mov	 DWORD PTR [eax+8], 0

; 783  : 		_Lmost() = _Myhead, _Rmost() = _Myhead;

  00034	8b 4d fc	 mov	 ecx, DWORD PTR _this$[ebp]
  00037	e8 00 00 00 00	 call	 ?_Lmost@?$_Tree@V?$_Tmap_traits@KPAVIData@@U?$less@K@std@@V?$allocator@U?$pair@$$CBKPAVIData@@@std@@@3@$0A@@std@@@std@@IAEAAPAU_Node@?$_Tree_nod@V?$_Tmap_traits@KPAVIData@@U?$less@K@std@@V?$allocator@U?$pair@$$CBKPAVIData@@@std@@@3@$0A@@std@@@2@XZ ; std::_Tree<std::_Tmap_traits<unsigned long,IData *,std::less<unsigned long>,std::allocator<std::pair<unsigned long const ,IData *> >,0> >::_Lmost
  0003c	8b 4d fc	 mov	 ecx, DWORD PTR _this$[ebp]
  0003f	8b 51 04	 mov	 edx, DWORD PTR [ecx+4]
  00042	89 10		 mov	 DWORD PTR [eax], edx
  00044	8b 4d fc	 mov	 ecx, DWORD PTR _this$[ebp]
  00047	e8 00 00 00 00	 call	 ?_Rmost@?$_Tree@V?$_Tmap_traits@KPAVIData@@U?$less@K@std@@V?$allocator@U?$pair@$$CBKPAVIData@@@std@@@3@$0A@@std@@@std@@IAEAAPAU_Node@?$_Tree_nod@V?$_Tmap_traits@KPAVIData@@U?$less@K@std@@V?$allocator@U?$pair@$$CBKPAVIData@@@std@@@3@$0A@@std@@@2@XZ ; std::_Tree<std::_Tmap_traits<unsigned long,IData *,std::less<unsigned long>,std::allocator<std::pair<unsigned long const ,IData *> >,0> >::_Rmost
  0004c	8b 4d fc	 mov	 ecx, DWORD PTR _this$[ebp]
  0004f	8b 51 04	 mov	 edx, DWORD PTR [ecx+4]
  00052	89 10		 mov	 DWORD PTR [eax], edx

; 784  : 		}

  00054	8b e5		 mov	 esp, ebp
  00056	5d		 pop	 ebp
  00057	c3		 ret	 0
?clear@?$_Tree@V?$_Tmap_traits@KPAVIData@@U?$less@K@std@@V?$allocator@U?$pair@$$CBKPAVIData@@@std@@@3@$0A@@std@@@std@@QAEXXZ ENDP ; std::_Tree<std::_Tmap_traits<unsigned long,IData *,std::less<unsigned long>,std::allocator<std::pair<unsigned long const ,IData *> >,0> >::clear
; Function compile flags: /Odt
_TEXT	ENDS
;	COMDAT ?find@?$_Tree@V?$_Tmap_traits@KPAVIData@@U?$less@K@std@@V?$allocator@U?$pair@$$CBKPAVIData@@@std@@@3@$0A@@std@@@std@@QAE?AViterator@12@ABK@Z
_TEXT	SEGMENT
tv88 = -24						; size = 4
_this$ = -20						; size = 4
$T200586 = -16						; size = 4
$T200584 = -12						; size = 4
$T200583 = -8						; size = 4
__Where$ = -4						; size = 4
___$ReturnUdt$ = 8					; size = 4
__Keyval$ = 12						; size = 4
?find@?$_Tree@V?$_Tmap_traits@KPAVIData@@U?$less@K@std@@V?$allocator@U?$pair@$$CBKPAVIData@@@std@@@3@$0A@@std@@@std@@QAE?AViterator@12@ABK@Z PROC NEAR ; std::_Tree<std::_Tmap_traits<unsigned long,IData *,std::less<unsigned long>,std::allocator<std::pair<unsigned long const ,IData *> >,0> >::find, COMDAT
; _this$ = ecx

; 787  : 		{	// find an element in mutable sequence that matches _Keyval

  00000	55		 push	 ebp
  00001	8b ec		 mov	 ebp, esp
  00003	83 ec 18	 sub	 esp, 24			; 00000018H
  00006	89 4d ec	 mov	 DWORD PTR _this$[ebp], ecx

; 788  : 		iterator _Where = lower_bound(_Keyval);

  00009	8b 45 0c	 mov	 eax, DWORD PTR __Keyval$[ebp]
  0000c	50		 push	 eax
  0000d	8d 4d fc	 lea	 ecx, DWORD PTR __Where$[ebp]
  00010	51		 push	 ecx
  00011	8b 4d ec	 mov	 ecx, DWORD PTR _this$[ebp]
  00014	e8 00 00 00 00	 call	 ?lower_bound@?$_Tree@V?$_Tmap_traits@KPAVIData@@U?$less@K@std@@V?$allocator@U?$pair@$$CBKPAVIData@@@std@@@3@$0A@@std@@@std@@QAE?AViterator@12@ABK@Z ; std::_Tree<std::_Tmap_traits<unsigned long,IData *,std::less<unsigned long>,std::allocator<std::pair<unsigned long const ,IData *> >,0> >::lower_bound

; 789  : 		return (_Where == end() || this->comp(_Keyval, _Key(_Where._Mynode()))
; 790  : 			? end() : _Where);

  00019	8d 55 f4	 lea	 edx, DWORD PTR $T200584[ebp]
  0001c	52		 push	 edx
  0001d	8b 4d ec	 mov	 ecx, DWORD PTR _this$[ebp]
  00020	e8 00 00 00 00	 call	 ?end@?$_Tree@V?$_Tmap_traits@KPAVIData@@U?$less@K@std@@V?$allocator@U?$pair@$$CBKPAVIData@@@std@@@3@$0A@@std@@@std@@QAE?AViterator@12@XZ ; std::_Tree<std::_Tmap_traits<unsigned long,IData *,std::less<unsigned long>,std::allocator<std::pair<unsigned long const ,IData *> >,0> >::end
  00025	50		 push	 eax
  00026	8d 4d fc	 lea	 ecx, DWORD PTR __Where$[ebp]
  00029	e8 00 00 00 00	 call	 ??8const_iterator@?$_Tree@V?$_Tmap_traits@KPAVIData@@U?$less@K@std@@V?$allocator@U?$pair@$$CBKPAVIData@@@std@@@3@$0A@@std@@@std@@QBE_NABV012@@Z ; std::_Tree<std::_Tmap_traits<unsigned long,IData *,std::less<unsigned long>,std::allocator<std::pair<unsigned long const ,IData *> >,0> >::const_iterator::operator==
  0002e	0f b6 c0	 movzx	 eax, al
  00031	85 c0		 test	 eax, eax
  00033	75 2d		 jne	 SHORT $L200585
  00035	8d 4d fc	 lea	 ecx, DWORD PTR __Where$[ebp]
  00038	e8 00 00 00 00	 call	 ?_Mynode@const_iterator@?$_Tree@V?$_Tmap_traits@KPAVIData@@U?$less@K@std@@V?$allocator@U?$pair@$$CBKPAVIData@@@std@@@3@$0A@@std@@@std@@QBEPAU_Node@?$_Tree_nod@V?$_Tmap_traits@KPAVIData@@U?$less@K@std@@V?$allocator@U?$pair@$$CBKPAVIData@@@std@@@3@$0A@@std@@@3@XZ ; std::_Tree<std::_Tmap_traits<unsigned long,IData *,std::less<unsigned long>,std::allocator<std::pair<unsigned long const ,IData *> >,0> >::const_iterator::_Mynode
  0003d	50		 push	 eax
  0003e	e8 00 00 00 00	 call	 ?_Key@?$_Tree@V?$_Tmap_traits@KPAVIData@@U?$less@K@std@@V?$allocator@U?$pair@$$CBKPAVIData@@@std@@@3@$0A@@std@@@std@@KAABKPAU_Node@?$_Tree_nod@V?$_Tmap_traits@KPAVIData@@U?$less@K@std@@V?$allocator@U?$pair@$$CBKPAVIData@@@std@@@3@$0A@@std@@@2@@Z ; std::_Tree<std::_Tmap_traits<unsigned long,IData *,std::less<unsigned long>,std::allocator<std::pair<unsigned long const ,IData *> >,0> >::_Key
  00043	83 c4 04	 add	 esp, 4
  00046	50		 push	 eax
  00047	8b 4d 0c	 mov	 ecx, DWORD PTR __Keyval$[ebp]
  0004a	51		 push	 ecx
  0004b	8b 4d ec	 mov	 ecx, DWORD PTR _this$[ebp]
  0004e	e8 00 00 00 00	 call	 ??R?$less@K@std@@QBE_NABK0@Z ; std::less<unsigned long>::operator()
  00053	0f b6 d0	 movzx	 edx, al
  00056	85 d2		 test	 edx, edx
  00058	75 08		 jne	 SHORT $L200585
  0005a	8d 45 fc	 lea	 eax, DWORD PTR __Where$[ebp]
  0005d	89 45 e8	 mov	 DWORD PTR tv88[ebp], eax
  00060	eb 0f		 jmp	 SHORT $L200587
$L200585:
  00062	8d 4d f0	 lea	 ecx, DWORD PTR $T200586[ebp]
  00065	51		 push	 ecx
  00066	8b 4d ec	 mov	 ecx, DWORD PTR _this$[ebp]
  00069	e8 00 00 00 00	 call	 ?end@?$_Tree@V?$_Tmap_traits@KPAVIData@@U?$less@K@std@@V?$allocator@U?$pair@$$CBKPAVIData@@@std@@@3@$0A@@std@@@std@@QAE?AViterator@12@XZ ; std::_Tree<std::_Tmap_traits<unsigned long,IData *,std::less<unsigned long>,std::allocator<std::pair<unsigned long const ,IData *> >,0> >::end
  0006e	89 45 e8	 mov	 DWORD PTR tv88[ebp], eax
$L200587:
  00071	8b 55 e8	 mov	 edx, DWORD PTR tv88[ebp]
  00074	89 55 f8	 mov	 DWORD PTR $T200583[ebp], edx
  00077	8b 45 f8	 mov	 eax, DWORD PTR $T200583[ebp]
  0007a	8b 08		 mov	 ecx, DWORD PTR [eax]
  0007c	8b 55 08	 mov	 edx, DWORD PTR ___$ReturnUdt$[ebp]
  0007f	89 0a		 mov	 DWORD PTR [edx], ecx
  00081	8b 45 08	 mov	 eax, DWORD PTR ___$ReturnUdt$[ebp]

; 791  : 		}

  00084	8b e5		 mov	 esp, ebp
  00086	5d		 pop	 ebp
  00087	c2 08 00	 ret	 8
?find@?$_Tree@V?$_Tmap_traits@KPAVIData@@U?$less@K@std@@V?$allocator@U?$pair@$$CBKPAVIData@@@std@@@3@$0A@@std@@@std@@QAE?AViterator@12@ABK@Z ENDP ; std::_Tree<std::_Tmap_traits<unsigned long,IData *,std::less<unsigned long>,std::allocator<std::pair<unsigned long const ,IData *> >,0> >::find
; Function compile flags: /Odt
_TEXT	ENDS
;	COMDAT ??Citerator@?$_Tree@V?$_Tmap_traits@KPAVIData@@U?$less@K@std@@V?$allocator@U?$pair@$$CBKPAVIData@@@std@@@3@$0A@@std@@@std@@QBEPAU?$pair@$$CBKPAVIData@@@2@XZ
_TEXT	SEGMENT
_this$ = -4						; size = 4
??Citerator@?$_Tree@V?$_Tmap_traits@KPAVIData@@U?$less@K@std@@V?$allocator@U?$pair@$$CBKPAVIData@@@std@@@3@$0A@@std@@@std@@QBEPAU?$pair@$$CBKPAVIData@@@2@XZ PROC NEAR ; std::_Tree<std::_Tmap_traits<unsigned long,IData *,std::less<unsigned long>,std::allocator<std::pair<unsigned long const ,IData *> >,0> >::iterator::operator->, COMDAT
; _this$ = ecx

; 321  : 			{	// return pointer to class object

  00000	55		 push	 ebp
  00001	8b ec		 mov	 ebp, esp
  00003	51		 push	 ecx
  00004	89 4d fc	 mov	 DWORD PTR _this$[ebp], ecx

; 322  : 			return (&**this);

  00007	8b 4d fc	 mov	 ecx, DWORD PTR _this$[ebp]
  0000a	e8 00 00 00 00	 call	 ??Diterator@?$_Tree@V?$_Tmap_traits@KPAVIData@@U?$less@K@std@@V?$allocator@U?$pair@$$CBKPAVIData@@@std@@@3@$0A@@std@@@std@@QBEAAU?$pair@$$CBKPAVIData@@@2@XZ ; std::_Tree<std::_Tmap_traits<unsigned long,IData *,std::less<unsigned long>,std::allocator<std::pair<unsigned long const ,IData *> >,0> >::iterator::operator*

; 323  : 			}

  0000f	8b e5		 mov	 esp, ebp
  00011	5d		 pop	 ebp
  00012	c3		 ret	 0
??Citerator@?$_Tree@V?$_Tmap_traits@KPAVIData@@U?$less@K@std@@V?$allocator@U?$pair@$$CBKPAVIData@@@std@@@3@$0A@@std@@@std@@QBEPAU?$pair@$$CBKPAVIData@@@2@XZ ENDP ; std::_Tree<std::_Tmap_traits<unsigned long,IData *,std::less<unsigned long>,std::allocator<std::pair<unsigned long const ,IData *> >,0> >::iterator::operator->
_TEXT	ENDS
PUBLIC	??Eiterator@?$_Tree@V?$_Tmap_traits@KPAVIData@@U?$less@K@std@@V?$allocator@U?$pair@$$CBKPAVIData@@@std@@@3@$0A@@std@@@std@@QAEAAV012@XZ ; std::_Tree<std::_Tmap_traits<unsigned long,IData *,std::less<unsigned long>,std::allocator<std::pair<unsigned long const ,IData *> >,0> >::iterator::operator++
; Function compile flags: /Odt
;	COMDAT ??Eiterator@?$_Tree@V?$_Tmap_traits@KPAVIData@@U?$less@K@std@@V?$allocator@U?$pair@$$CBKPAVIData@@@std@@@3@$0A@@std@@@std@@QAE?AV012@H@Z
_TEXT	SEGMENT
_this$ = -8						; size = 4
__Tmp$ = -4						; size = 4
___$ReturnUdt$ = 8					; size = 4
___formal$ = 12						; size = 4
??Eiterator@?$_Tree@V?$_Tmap_traits@KPAVIData@@U?$less@K@std@@V?$allocator@U?$pair@$$CBKPAVIData@@@std@@@3@$0A@@std@@@std@@QAE?AV012@H@Z PROC NEAR ; std::_Tree<std::_Tmap_traits<unsigned long,IData *,std::less<unsigned long>,std::allocator<std::pair<unsigned long const ,IData *> >,0> >::iterator::operator++, COMDAT
; _this$ = ecx

; 332  : 			{	// postincrement

  00000	55		 push	 ebp
  00001	8b ec		 mov	 ebp, esp
  00003	83 ec 08	 sub	 esp, 8
  00006	89 4d f8	 mov	 DWORD PTR _this$[ebp], ecx

; 333  : 			iterator _Tmp = *this;

  00009	8b 45 f8	 mov	 eax, DWORD PTR _this$[ebp]
  0000c	8b 08		 mov	 ecx, DWORD PTR [eax]
  0000e	89 4d fc	 mov	 DWORD PTR __Tmp$[ebp], ecx

; 334  : 			++*this;

  00011	8b 4d f8	 mov	 ecx, DWORD PTR _this$[ebp]
  00014	e8 00 00 00 00	 call	 ??Eiterator@?$_Tree@V?$_Tmap_traits@KPAVIData@@U?$less@K@std@@V?$allocator@U?$pair@$$CBKPAVIData@@@std@@@3@$0A@@std@@@std@@QAEAAV012@XZ ; std::_Tree<std::_Tmap_traits<unsigned long,IData *,std::less<unsigned long>,std::allocator<std::pair<unsigned long const ,IData *> >,0> >::iterator::operator++

; 335  : 			return (_Tmp);

  00019	8b 55 08	 mov	 edx, DWORD PTR ___$ReturnUdt$[ebp]
  0001c	8b 45 fc	 mov	 eax, DWORD PTR __Tmp$[ebp]
  0001f	89 02		 mov	 DWORD PTR [edx], eax
  00021	8b 45 08	 mov	 eax, DWORD PTR ___$ReturnUdt$[ebp]

; 336  : 			}

  00024	8b e5		 mov	 esp, ebp
  00026	5d		 pop	 ebp
  00027	c2 08 00	 ret	 8
??Eiterator@?$_Tree@V?$_Tmap_traits@KPAVIData@@U?$less@K@std@@V?$allocator@U?$pair@$$CBKPAVIData@@@std@@@3@$0A@@std@@@std@@QAE?AV012@H@Z ENDP ; std::_Tree<std::_Tmap_traits<unsigned long,IData *,std::less<unsigned long>,std::allocator<std::pair<unsigned long const ,IData *> >,0> >::iterator::operator++
; Function compile flags: /Odt
_TEXT	ENDS
;	COMDAT ??8const_iterator@?$_Tree@V?$_Tmap_traits@KPAVIData@@U?$less@K@std@@V?$allocator@U?$pair@$$CBKPAVIData@@@std@@@3@$0A@@std@@@std@@QBE_NABV012@@Z
_TEXT	SEGMENT
_this$ = -4						; size = 4
__Right$ = 8						; size = 4
??8const_iterator@?$_Tree@V?$_Tmap_traits@KPAVIData@@U?$less@K@std@@V?$allocator@U?$pair@$$CBKPAVIData@@@std@@@3@$0A@@std@@@std@@QBE_NABV012@@Z PROC NEAR ; std::_Tree<std::_Tmap_traits<unsigned long,IData *,std::less<unsigned long>,std::allocator<std::pair<unsigned long const ,IData *> >,0> >::const_iterator::operator==, COMDAT
; _this$ = ecx

; 240  : 			{	// test for iterator equality

  00000	55		 push	 ebp
  00001	8b ec		 mov	 ebp, esp
  00003	51		 push	 ecx
  00004	89 4d fc	 mov	 DWORD PTR _this$[ebp], ecx

; 241  : 			return (_Ptr == _Right._Ptr);

  00007	8b 45 fc	 mov	 eax, DWORD PTR _this$[ebp]
  0000a	8b 4d 08	 mov	 ecx, DWORD PTR __Right$[ebp]
  0000d	8b 00		 mov	 eax, DWORD PTR [eax]
  0000f	2b 01		 sub	 eax, DWORD PTR [ecx]
  00011	f7 d8		 neg	 eax
  00013	1b c0		 sbb	 eax, eax
  00015	40		 inc	 eax

; 242  : 			}

  00016	8b e5		 mov	 esp, ebp
  00018	5d		 pop	 ebp
  00019	c2 04 00	 ret	 4
??8const_iterator@?$_Tree@V?$_Tmap_traits@KPAVIData@@U?$less@K@std@@V?$allocator@U?$pair@$$CBKPAVIData@@@std@@@3@$0A@@std@@@std@@QBE_NABV012@@Z ENDP ; std::_Tree<std::_Tmap_traits<unsigned long,IData *,std::less<unsigned long>,std::allocator<std::pair<unsigned long const ,IData *> >,0> >::const_iterator::operator==
; Function compile flags: /Odt
_TEXT	ENDS
;	COMDAT ??9const_iterator@?$_Tree@V?$_Tmap_traits@KPAVIData@@U?$less@K@std@@V?$allocator@U?$pair@$$CBKPAVIData@@@std@@@3@$0A@@std@@@std@@QBE_NABV012@@Z
_TEXT	SEGMENT
_this$ = -4						; size = 4
__Right$ = 8						; size = 4
??9const_iterator@?$_Tree@V?$_Tmap_traits@KPAVIData@@U?$less@K@std@@V?$allocator@U?$pair@$$CBKPAVIData@@@std@@@3@$0A@@std@@@std@@QBE_NABV012@@Z PROC NEAR ; std::_Tree<std::_Tmap_traits<unsigned long,IData *,std::less<unsigned long>,std::allocator<std::pair<unsigned long const ,IData *> >,0> >::const_iterator::operator!=, COMDAT
; _this$ = ecx

; 245  : 			{	// test for iterator inequality

  00000	55		 push	 ebp
  00001	8b ec		 mov	 ebp, esp
  00003	51		 push	 ecx
  00004	89 4d fc	 mov	 DWORD PTR _this$[ebp], ecx

; 246  : 			return (!(*this == _Right));

  00007	8b 45 08	 mov	 eax, DWORD PTR __Right$[ebp]
  0000a	50		 push	 eax
  0000b	8b 4d fc	 mov	 ecx, DWORD PTR _this$[ebp]
  0000e	e8 00 00 00 00	 call	 ??8const_iterator@?$_Tree@V?$_Tmap_traits@KPAVIData@@U?$less@K@std@@V?$allocator@U?$pair@$$CBKPAVIData@@@std@@@3@$0A@@std@@@std@@QBE_NABV012@@Z ; std::_Tree<std::_Tmap_traits<unsigned long,IData *,std::less<unsigned long>,std::allocator<std::pair<unsigned long const ,IData *> >,0> >::const_iterator::operator==
  00013	0f b6 c0	 movzx	 eax, al
  00016	f7 d8		 neg	 eax
  00018	1b c0		 sbb	 eax, eax
  0001a	40		 inc	 eax

; 247  : 			}

  0001b	8b e5		 mov	 esp, ebp
  0001d	5d		 pop	 ebp
  0001e	c2 04 00	 ret	 4
??9const_iterator@?$_Tree@V?$_Tmap_traits@KPAVIData@@U?$less@K@std@@V?$allocator@U?$pair@$$CBKPAVIData@@@std@@@3@$0A@@std@@@std@@QBE_NABV012@@Z ENDP ; std::_Tree<std::_Tmap_traits<unsigned long,IData *,std::less<unsigned long>,std::allocator<std::pair<unsigned long const ,IData *> >,0> >::const_iterator::operator!=
_TEXT	ENDS
PUBLIC	?_Kfn@?$_Tmap_traits@KPAVIData@@U?$less@K@std@@V?$allocator@U?$pair@$$CBKPAVIData@@@std@@@3@$0A@@std@@SAABKABU?$pair@$$CBKPAVIData@@@2@@Z ; std::_Tmap_traits<unsigned long,IData *,std::less<unsigned long>,std::allocator<std::pair<unsigned long const ,IData *> >,0>::_Kfn
PUBLIC	?_Myval@?$_Tree@V?$_Tmap_traits@KPAVIData@@U?$less@K@std@@V?$allocator@U?$pair@$$CBKPAVIData@@@std@@@3@$0A@@std@@@std@@KAAAU?$pair@$$CBKPAVIData@@@2@PAU_Node@?$_Tree_nod@V?$_Tmap_traits@KPAVIData@@U?$less@K@std@@V?$allocator@U?$pair@$$CBKPAVIData@@@std@@@3@$0A@@std@@@2@@Z ; std::_Tree<std::_Tmap_traits<unsigned long,IData *,std::less<unsigned long>,std::allocator<std::pair<unsigned long const ,IData *> >,0> >::_Myval
; Function compile flags: /Odt
;	COMDAT ?_Key@?$_Tree@V?$_Tmap_traits@KPAVIData@@U?$less@K@std@@V?$allocator@U?$pair@$$CBKPAVIData@@@std@@@3@$0A@@std@@@std@@KAABKPAU_Node@?$_Tree_nod@V?$_Tmap_traits@KPAVIData@@U?$less@K@std@@V?$allocator@U?$pair@$$CBKPAVIData@@@std@@@3@$0A@@std@@@2@@Z
_TEXT	SEGMENT
__Pnode$ = 8						; size = 4
?_Key@?$_Tree@V?$_Tmap_traits@KPAVIData@@U?$less@K@std@@V?$allocator@U?$pair@$$CBKPAVIData@@@std@@@3@$0A@@std@@@std@@KAABKPAU_Node@?$_Tree_nod@V?$_Tmap_traits@KPAVIData@@U?$less@K@std@@V?$allocator@U?$pair@$$CBKPAVIData@@@std@@@3@$0A@@std@@@2@@Z PROC NEAR ; std::_Tree<std::_Tmap_traits<unsigned long,IData *,std::less<unsigned long>,std::allocator<std::pair<unsigned long const ,IData *> >,0> >::_Key, COMDAT

; 141  : 		{	// return reference to key in node

  00000	55		 push	 ebp
  00001	8b ec		 mov	 ebp, esp

; 142  : 		return (_Mybase::_Kfn(_Myval(_Pnode)));

  00003	8b 45 08	 mov	 eax, DWORD PTR __Pnode$[ebp]
  00006	50		 push	 eax
  00007	e8 00 00 00 00	 call	 ?_Myval@?$_Tree@V?$_Tmap_traits@KPAVIData@@U?$less@K@std@@V?$allocator@U?$pair@$$CBKPAVIData@@@std@@@3@$0A@@std@@@std@@KAAAU?$pair@$$CBKPAVIData@@@2@PAU_Node@?$_Tree_nod@V?$_Tmap_traits@KPAVIData@@U?$less@K@std@@V?$allocator@U?$pair@$$CBKPAVIData@@@std@@@3@$0A@@std@@@2@@Z ; std::_Tree<std::_Tmap_traits<unsigned long,IData *,std::less<unsigned long>,std::allocator<std::pair<unsigned long const ,IData *> >,0> >::_Myval
  0000c	83 c4 04	 add	 esp, 4
  0000f	50		 push	 eax
  00010	e8 00 00 00 00	 call	 ?_Kfn@?$_Tmap_traits@KPAVIData@@U?$less@K@std@@V?$allocator@U?$pair@$$CBKPAVIData@@@std@@@3@$0A@@std@@SAABKABU?$pair@$$CBKPAVIData@@@2@@Z ; std::_Tmap_traits<unsigned long,IData *,std::less<unsigned long>,std::allocator<std::pair<unsigned long const ,IData *> >,0>::_Kfn
  00015	83 c4 04	 add	 esp, 4

; 143  : 		}

  00018	5d		 pop	 ebp
  00019	c3		 ret	 0
?_Key@?$_Tree@V?$_Tmap_traits@KPAVIData@@U?$less@K@std@@V?$allocator@U?$pair@$$CBKPAVIData@@@std@@@3@$0A@@std@@@std@@KAABKPAU_Node@?$_Tree_nod@V?$_Tmap_traits@KPAVIData@@U?$less@K@std@@V?$allocator@U?$pair@$$CBKPAVIData@@@std@@@3@$0A@@std@@@2@@Z ENDP ; std::_Tree<std::_Tmap_traits<unsigned long,IData *,std::less<unsigned long>,std::allocator<std::pair<unsigned long const ,IData *> >,0> >::_Key
_TEXT	ENDS
PUBLIC	??0?$allocator@U?$pair@$$CBKPAVIData@@@std@@@std@@QAE@ABV01@@Z ; std::allocator<std::pair<unsigned long const ,IData *> >::allocator<std::pair<unsigned long const ,IData *> >
PUBLIC	??0?$_Tree_val@V?$_Tmap_traits@KPAVIData@@U?$less@K@std@@V?$allocator@U?$pair@$$CBKPAVIData@@@std@@@3@$0A@@std@@@std@@IAE@ABU?$less@K@1@V?$allocator@U?$pair@$$CBKPAVIData@@@std@@@1@@Z ; std::_Tree_val<std::_Tmap_traits<unsigned long,IData *,std::less<unsigned long>,std::allocator<std::pair<unsigned long const ,IData *> >,0> >::_Tree_val<std::_Tmap_traits<unsigned long,IData *,std::less<unsigned long>,std::allocator<std::pair<unsigned long const ,IData *> >,0> >
PUBLIC	?_Init@?$_Tree@V?$_Tmap_traits@KPAVIData@@U?$less@K@std@@V?$allocator@U?$pair@$$CBKPAVIData@@@std@@@3@$0A@@std@@@std@@IAEXXZ ; std::_Tree<std::_Tmap_traits<unsigned long,IData *,std::less<unsigned long>,std::allocator<std::pair<unsigned long const ,IData *> >,0> >::_Init
; Function compile flags: /Odt
;	COMDAT ??0?$_Tree@V?$_Tmap_traits@KPAVIData@@U?$less@K@std@@V?$allocator@U?$pair@$$CBKPAVIData@@@std@@@3@$0A@@std@@@std@@QAE@ABU?$less@K@1@ABV?$allocator@U?$pair@$$CBKPAVIData@@@std@@@1@@Z
_TEXT	SEGMENT
_this$ = -8						; size = 4
__Parg$ = 8						; size = 4
__Al$ = 12						; size = 4
??0?$_Tree@V?$_Tmap_traits@KPAVIData@@U?$less@K@std@@V?$allocator@U?$pair@$$CBKPAVIData@@@std@@@3@$0A@@std@@@std@@QAE@ABU?$less@K@1@ABV?$allocator@U?$pair@$$CBKPAVIData@@@std@@@1@@Z PROC NEAR ; std::_Tree<std::_Tmap_traits<unsigned long,IData *,std::less<unsigned long>,std::allocator<std::pair<unsigned long const ,IData *> >,0> >::_Tree<std::_Tmap_traits<unsigned long,IData *,std::less<unsigned long>,std::allocator<std::pair<unsigned long const ,IData *> >,0> >, COMDAT
; _this$ = ecx

; 361  : 		{	// construct empty tree

  00000	55		 push	 ebp
  00001	8b ec		 mov	 ebp, esp
  00003	83 ec 08	 sub	 esp, 8
  00006	89 4d f8	 mov	 DWORD PTR _this$[ebp], ecx
  00009	51		 push	 ecx
  0000a	8b cc		 mov	 ecx, esp
  0000c	8b 45 0c	 mov	 eax, DWORD PTR __Al$[ebp]
  0000f	50		 push	 eax
  00010	e8 00 00 00 00	 call	 ??0?$allocator@U?$pair@$$CBKPAVIData@@@std@@@std@@QAE@ABV01@@Z ; std::allocator<std::pair<unsigned long const ,IData *> >::allocator<std::pair<unsigned long const ,IData *> >
  00015	8b 4d 08	 mov	 ecx, DWORD PTR __Parg$[ebp]
  00018	51		 push	 ecx
  00019	8b 4d f8	 mov	 ecx, DWORD PTR _this$[ebp]
  0001c	e8 00 00 00 00	 call	 ??0?$_Tree_val@V?$_Tmap_traits@KPAVIData@@U?$less@K@std@@V?$allocator@U?$pair@$$CBKPAVIData@@@std@@@3@$0A@@std@@@std@@IAE@ABU?$less@K@1@V?$allocator@U?$pair@$$CBKPAVIData@@@std@@@1@@Z ; std::_Tree_val<std::_Tmap_traits<unsigned long,IData *,std::less<unsigned long>,std::allocator<std::pair<unsigned long const ,IData *> >,0> >::_Tree_val<std::_Tmap_traits<unsigned long,IData *,std::less<unsigned long>,std::allocator<std::pair<unsigned long const ,IData *> >,0> >

; 362  : 		_Init();

  00021	8b 4d f8	 mov	 ecx, DWORD PTR _this$[ebp]
  00024	e8 00 00 00 00	 call	 ?_Init@?$_Tree@V?$_Tmap_traits@KPAVIData@@U?$less@K@std@@V?$allocator@U?$pair@$$CBKPAVIData@@@std@@@3@$0A@@std@@@std@@IAEXXZ ; std::_Tree<std::_Tmap_traits<unsigned long,IData *,std::less<unsigned long>,std::allocator<std::pair<unsigned long const ,IData *> >,0> >::_Init

; 363  : 		}

  00029	8b 45 f8	 mov	 eax, DWORD PTR _this$[ebp]
  0002c	8b e5		 mov	 esp, ebp
  0002e	5d		 pop	 ebp
  0002f	c2 08 00	 ret	 8
??0?$_Tree@V?$_Tmap_traits@KPAVIData@@U?$less@K@std@@V?$allocator@U?$pair@$$CBKPAVIData@@@std@@@3@$0A@@std@@@std@@QAE@ABU?$less@K@1@ABV?$allocator@U?$pair@$$CBKPAVIData@@@std@@@1@@Z ENDP ; std::_Tree<std::_Tmap_traits<unsigned long,IData *,std::less<unsigned long>,std::allocator<std::pair<unsigned long const ,IData *> >,0> >::_Tree<std::_Tmap_traits<unsigned long,IData *,std::less<unsigned long>,std::allocator<std::pair<unsigned long const ,IData *> >,0> >
_TEXT	ENDS
PUBLIC	??0iterator@?$_Tree@V?$_Tmap_traits@KPAVIData@@U?$less@K@std@@V?$allocator@U?$pair@$$CBKPAVIData@@@std@@@3@$0A@@std@@@std@@QAE@XZ ; std::_Tree<std::_Tmap_traits<unsigned long,IData *,std::less<unsigned long>,std::allocator<std::pair<unsigned long const ,IData *> >,0> >::iterator::iterator
PUBLIC	??Fiterator@?$_Tree@V?$_Tmap_traits@KPAVIData@@U?$less@K@std@@V?$allocator@U?$pair@$$CBKPAVIData@@@std@@@3@$0A@@std@@@std@@QAEAAV012@XZ ; std::_Tree<std::_Tmap_traits<unsigned long,IData *,std::less<unsigned long>,std::allocator<std::pair<unsigned long const ,IData *> >,0> >::iterator::operator--
PUBLIC	?_Isnil@?$_Tree@V?$_Tmap_traits@KPAVIData@@U?$less@K@std@@V?$allocator@U?$pair@$$CBKPAVIData@@@std@@@3@$0A@@std@@@std@@KAAADPAU_Node@?$_Tree_nod@V?$_Tmap_traits@KPAVIData@@U?$less@K@std@@V?$allocator@U?$pair@$$CBKPAVIData@@@std@@@3@$0A@@std@@@2@@Z ; std::_Tree<std::_Tmap_traits<unsigned long,IData *,std::less<unsigned long>,std::allocator<std::pair<unsigned long const ,IData *> >,0> >::_Isnil
PUBLIC	?_Right@?$_Tree@V?$_Tmap_traits@KPAVIData@@U?$less@K@std@@V?$allocator@U?$pair@$$CBKPAVIData@@@std@@@3@$0A@@std@@@std@@KAAAPAU_Node@?$_Tree_nod@V?$_Tmap_traits@KPAVIData@@U?$less@K@std@@V?$allocator@U?$pair@$$CBKPAVIData@@@std@@@3@$0A@@std@@@2@PAU342@@Z ; std::_Tree<std::_Tmap_traits<unsigned long,IData *,std::less<unsigned long>,std::allocator<std::pair<unsigned long const ,IData *> >,0> >::_Right
PUBLIC	?size@?$_Tree@V?$_Tmap_traits@KPAVIData@@U?$less@K@std@@V?$allocator@U?$pair@$$CBKPAVIData@@@std@@@3@$0A@@std@@@std@@QBEIXZ ; std::_Tree<std::_Tmap_traits<unsigned long,IData *,std::less<unsigned long>,std::allocator<std::pair<unsigned long const ,IData *> >,0> >::size
PUBLIC	?insert@?$_Tree@V?$_Tmap_traits@KPAVIData@@U?$less@K@std@@V?$allocator@U?$pair@$$CBKPAVIData@@@std@@@3@$0A@@std@@@std@@QAE?AU?$pair@Viterator@?$_Tree@V?$_Tmap_traits@KPAVIData@@U?$less@K@std@@V?$allocator@U?$pair@$$CBKPAVIData@@@std@@@3@$0A@@std@@@std@@_N@2@ABU?$pair@$$CBKPAVIData@@@2@@Z ; std::_Tree<std::_Tmap_traits<unsigned long,IData *,std::less<unsigned long>,std::allocator<std::pair<unsigned long const ,IData *> >,0> >::insert
PUBLIC	?_Insert@?$_Tree@V?$_Tmap_traits@KPAVIData@@U?$less@K@std@@V?$allocator@U?$pair@$$CBKPAVIData@@@std@@@3@$0A@@std@@@std@@IAE?AViterator@12@_NPAU_Node@?$_Tree_nod@V?$_Tmap_traits@KPAVIData@@U?$less@K@std@@V?$allocator@U?$pair@$$CBKPAVIData@@@std@@@3@$0A@@std@@@2@ABU?$pair@$$CBKPAVIData@@@2@@Z ; std::_Tree<std::_Tmap_traits<unsigned long,IData *,std::less<unsigned long>,std::allocator<std::pair<unsigned long const ,IData *> >,0> >::_Insert
; Function compile flags: /Odt
;	COMDAT ?insert@?$_Tree@V?$_Tmap_traits@KPAVIData@@U?$less@K@std@@V?$allocator@U?$pair@$$CBKPAVIData@@@std@@@3@$0A@@std@@@std@@QAE?AViterator@12@V312@ABU?$pair@$$CBKPAVIData@@@2@@Z
_TEXT	SEGMENT
_this$ = -40						; size = 4
$T200609 = -36						; size = 8
$T200608 = -28						; size = 4
$T200607 = -24						; size = 4
$T200606 = -20						; size = 4
$T200605 = -16						; size = 4
$T200604 = -12						; size = 4
$T200603 = -8						; size = 4
__Next$ = -4						; size = 4
___$ReturnUdt$ = 8					; size = 4
__Where$ = 12						; size = 4
__Val$ = 16						; size = 4
?insert@?$_Tree@V?$_Tmap_traits@KPAVIData@@U?$less@K@std@@V?$allocator@U?$pair@$$CBKPAVIData@@@std@@@3@$0A@@std@@@std@@QAE?AViterator@12@V312@ABU?$pair@$$CBKPAVIData@@@2@@Z PROC NEAR ; std::_Tree<std::_Tmap_traits<unsigned long,IData *,std::less<unsigned long>,std::allocator<std::pair<unsigned long const ,IData *> >,0> >::insert, COMDAT
; _this$ = ecx

; 509  : 		{	// try to insert node with value _Val using _Where as a hint

  00000	55		 push	 ebp
  00001	8b ec		 mov	 ebp, esp
  00003	83 ec 28	 sub	 esp, 40			; 00000028H
  00006	89 4d d8	 mov	 DWORD PTR _this$[ebp], ecx

; 510  : 		iterator _Next;

  00009	8d 4d fc	 lea	 ecx, DWORD PTR __Next$[ebp]
  0000c	e8 00 00 00 00	 call	 ??0iterator@?$_Tree@V?$_Tmap_traits@KPAVIData@@U?$less@K@std@@V?$allocator@U?$pair@$$CBKPAVIData@@@std@@@3@$0A@@std@@@std@@QAE@XZ ; std::_Tree<std::_Tmap_traits<unsigned long,IData *,std::less<unsigned long>,std::allocator<std::pair<unsigned long const ,IData *> >,0> >::iterator::iterator

; 511  : 
; 512  : 		if (size() == 0)

  00011	8b 4d d8	 mov	 ecx, DWORD PTR _this$[ebp]
  00014	e8 00 00 00 00	 call	 ?size@?$_Tree@V?$_Tmap_traits@KPAVIData@@U?$less@K@std@@V?$allocator@U?$pair@$$CBKPAVIData@@@std@@@3@$0A@@std@@@std@@QBEIXZ ; std::_Tree<std::_Tmap_traits<unsigned long,IData *,std::less<unsigned long>,std::allocator<std::pair<unsigned long const ,IData *> >,0> >::size
  00019	85 c0		 test	 eax, eax
  0001b	75 21		 jne	 SHORT $L199447

; 513  : 			return (_Insert(true, _Myhead, _Val));	// insert into empty tree

  0001d	8b 45 10	 mov	 eax, DWORD PTR __Val$[ebp]
  00020	50		 push	 eax
  00021	8b 4d d8	 mov	 ecx, DWORD PTR _this$[ebp]
  00024	8b 51 04	 mov	 edx, DWORD PTR [ecx+4]
  00027	52		 push	 edx
  00028	6a 01		 push	 1
  0002a	8b 45 08	 mov	 eax, DWORD PTR ___$ReturnUdt$[ebp]
  0002d	50		 push	 eax
  0002e	8b 4d d8	 mov	 ecx, DWORD PTR _this$[ebp]
  00031	e8 00 00 00 00	 call	 ?_Insert@?$_Tree@V?$_Tmap_traits@KPAVIData@@U?$less@K@std@@V?$allocator@U?$pair@$$CBKPAVIData@@@std@@@3@$0A@@std@@@std@@IAE?AViterator@12@_NPAU_Node@?$_Tree_nod@V?$_Tmap_traits@KPAVIData@@U?$less@K@std@@V?$allocator@U?$pair@$$CBKPAVIData@@@std@@@3@$0A@@std@@@2@ABU?$pair@$$CBKPAVIData@@@2@@Z ; std::_Tree<std::_Tmap_traits<unsigned long,IData *,std::less<unsigned long>,std::allocator<std::pair<unsigned long const ,IData *> >,0> >::_Insert
  00036	8b 45 08	 mov	 eax, DWORD PTR ___$ReturnUdt$[ebp]
  00039	e9 81 05 00 00	 jmp	 $L199445
$L199447:

; 514  : 		else if (this->_Multi)

  0003e	33 c9		 xor	 ecx, ecx
  00040	0f 84 b5 02 00
	00		 je	 $L199450

; 515  : 			{	// insert even if duplicate
; 516  : 			if (_Where == begin())

  00046	8d 55 f8	 lea	 edx, DWORD PTR $T200603[ebp]
  00049	52		 push	 edx
  0004a	8b 4d d8	 mov	 ecx, DWORD PTR _this$[ebp]
  0004d	e8 00 00 00 00	 call	 ?begin@?$_Tree@V?$_Tmap_traits@KPAVIData@@U?$less@K@std@@V?$allocator@U?$pair@$$CBKPAVIData@@@std@@@3@$0A@@std@@@std@@QAE?AViterator@12@XZ ; std::_Tree<std::_Tmap_traits<unsigned long,IData *,std::less<unsigned long>,std::allocator<std::pair<unsigned long const ,IData *> >,0> >::begin
  00052	50		 push	 eax
  00053	8d 4d 0c	 lea	 ecx, DWORD PTR __Where$[ebp]
  00056	e8 00 00 00 00	 call	 ??8const_iterator@?$_Tree@V?$_Tmap_traits@KPAVIData@@U?$less@K@std@@V?$allocator@U?$pair@$$CBKPAVIData@@@std@@@3@$0A@@std@@@std@@QBE_NABV012@@Z ; std::_Tree<std::_Tmap_traits<unsigned long,IData *,std::less<unsigned long>,std::allocator<std::pair<unsigned long const ,IData *> >,0> >::const_iterator::operator==
  0005b	0f b6 c0	 movzx	 eax, al
  0005e	85 c0		 test	 eax, eax
  00060	74 56		 je	 SHORT $L199452

; 517  : 				{	// insert at beginning if before first element
; 518  : 				if (!this->comp(_Key(_Where._Mynode()), this->_Kfn(_Val)))

  00062	8b 4d 10	 mov	 ecx, DWORD PTR __Val$[ebp]
  00065	51		 push	 ecx
  00066	e8 00 00 00 00	 call	 ?_Kfn@?$_Tmap_traits@KPAVIData@@U?$less@K@std@@V?$allocator@U?$pair@$$CBKPAVIData@@@std@@@3@$0A@@std@@SAABKABU?$pair@$$CBKPAVIData@@@2@@Z ; std::_Tmap_traits<unsigned long,IData *,std::less<unsigned long>,std::allocator<std::pair<unsigned long const ,IData *> >,0>::_Kfn
  0006b	83 c4 04	 add	 esp, 4
  0006e	50		 push	 eax
  0006f	8d 4d 0c	 lea	 ecx, DWORD PTR __Where$[ebp]
  00072	e8 00 00 00 00	 call	 ?_Mynode@const_iterator@?$_Tree@V?$_Tmap_traits@KPAVIData@@U?$less@K@std@@V?$allocator@U?$pair@$$CBKPAVIData@@@std@@@3@$0A@@std@@@std@@QBEPAU_Node@?$_Tree_nod@V?$_Tmap_traits@KPAVIData@@U?$less@K@std@@V?$allocator@U?$pair@$$CBKPAVIData@@@std@@@3@$0A@@std@@@3@XZ ; std::_Tree<std::_Tmap_traits<unsigned long,IData *,std::less<unsigned long>,std::allocator<std::pair<unsigned long const ,IData *> >,0> >::const_iterator::_Mynode
  00077	50		 push	 eax
  00078	e8 00 00 00 00	 call	 ?_Key@?$_Tree@V?$_Tmap_traits@KPAVIData@@U?$less@K@std@@V?$allocator@U?$pair@$$CBKPAVIData@@@std@@@3@$0A@@std@@@std@@KAABKPAU_Node@?$_Tree_nod@V?$_Tmap_traits@KPAVIData@@U?$less@K@std@@V?$allocator@U?$pair@$$CBKPAVIData@@@std@@@3@$0A@@std@@@2@@Z ; std::_Tree<std::_Tmap_traits<unsigned long,IData *,std::less<unsigned long>,std::allocator<std::pair<unsigned long const ,IData *> >,0> >::_Key
  0007d	83 c4 04	 add	 esp, 4
  00080	50		 push	 eax
  00081	8b 4d d8	 mov	 ecx, DWORD PTR _this$[ebp]
  00084	e8 00 00 00 00	 call	 ??R?$less@K@std@@QBE_NABK0@Z ; std::less<unsigned long>::operator()
  00089	0f b6 d0	 movzx	 edx, al
  0008c	85 d2		 test	 edx, edx
  0008e	75 23		 jne	 SHORT $L199453

; 519  : 					return (_Insert(true, _Where._Mynode(), _Val));

  00090	8b 45 10	 mov	 eax, DWORD PTR __Val$[ebp]
  00093	50		 push	 eax
  00094	8d 4d 0c	 lea	 ecx, DWORD PTR __Where$[ebp]
  00097	e8 00 00 00 00	 call	 ?_Mynode@const_iterator@?$_Tree@V?$_Tmap_traits@KPAVIData@@U?$less@K@std@@V?$allocator@U?$pair@$$CBKPAVIData@@@std@@@3@$0A@@std@@@std@@QBEPAU_Node@?$_Tree_nod@V?$_Tmap_traits@KPAVIData@@U?$less@K@std@@V?$allocator@U?$pair@$$CBKPAVIData@@@std@@@3@$0A@@std@@@3@XZ ; std::_Tree<std::_Tmap_traits<unsigned long,IData *,std::less<unsigned long>,std::allocator<std::pair<unsigned long const ,IData *> >,0> >::const_iterator::_Mynode
  0009c	50		 push	 eax
  0009d	6a 01		 push	 1
  0009f	8b 4d 08	 mov	 ecx, DWORD PTR ___$ReturnUdt$[ebp]
  000a2	51		 push	 ecx
  000a3	8b 4d d8	 mov	 ecx, DWORD PTR _this$[ebp]
  000a6	e8 00 00 00 00	 call	 ?_Insert@?$_Tree@V?$_Tmap_traits@KPAVIData@@U?$less@K@std@@V?$allocator@U?$pair@$$CBKPAVIData@@@std@@@3@$0A@@std@@@std@@IAE?AViterator@12@_NPAU_Node@?$_Tree_nod@V?$_Tmap_traits@KPAVIData@@U?$less@K@std@@V?$allocator@U?$pair@$$CBKPAVIData@@@std@@@3@$0A@@std@@@2@ABU?$pair@$$CBKPAVIData@@@2@@Z ; std::_Tree<std::_Tmap_traits<unsigned long,IData *,std::less<unsigned long>,std::allocator<std::pair<unsigned long const ,IData *> >,0> >::_Insert
  000ab	8b 45 08	 mov	 eax, DWORD PTR ___$ReturnUdt$[ebp]
  000ae	e9 0c 05 00 00	 jmp	 $L199445
$L199453:

; 520  : 				}
; 521  : 			else if (_Where == end())

  000b3	e9 3e 02 00 00	 jmp	 $L199455
$L199452:
  000b8	8d 55 f4	 lea	 edx, DWORD PTR $T200604[ebp]
  000bb	52		 push	 edx
  000bc	8b 4d d8	 mov	 ecx, DWORD PTR _this$[ebp]
  000bf	e8 00 00 00 00	 call	 ?end@?$_Tree@V?$_Tmap_traits@KPAVIData@@U?$less@K@std@@V?$allocator@U?$pair@$$CBKPAVIData@@@std@@@3@$0A@@std@@@std@@QAE?AViterator@12@XZ ; std::_Tree<std::_Tmap_traits<unsigned long,IData *,std::less<unsigned long>,std::allocator<std::pair<unsigned long const ,IData *> >,0> >::end
  000c4	50		 push	 eax
  000c5	8d 4d 0c	 lea	 ecx, DWORD PTR __Where$[ebp]
  000c8	e8 00 00 00 00	 call	 ??8const_iterator@?$_Tree@V?$_Tmap_traits@KPAVIData@@U?$less@K@std@@V?$allocator@U?$pair@$$CBKPAVIData@@@std@@@3@$0A@@std@@@std@@QBE_NABV012@@Z ; std::_Tree<std::_Tmap_traits<unsigned long,IData *,std::less<unsigned long>,std::allocator<std::pair<unsigned long const ,IData *> >,0> >::const_iterator::operator==
  000cd	0f b6 c0	 movzx	 eax, al
  000d0	85 c0		 test	 eax, eax
  000d2	74 5a		 je	 SHORT $L199457

; 522  : 				{	// insert at end if after last element
; 523  : 				if (!this->comp(this->_Kfn(_Val), _Key(_Rmost())))

  000d4	8b 4d d8	 mov	 ecx, DWORD PTR _this$[ebp]
  000d7	e8 00 00 00 00	 call	 ?_Rmost@?$_Tree@V?$_Tmap_traits@KPAVIData@@U?$less@K@std@@V?$allocator@U?$pair@$$CBKPAVIData@@@std@@@3@$0A@@std@@@std@@IAEAAPAU_Node@?$_Tree_nod@V?$_Tmap_traits@KPAVIData@@U?$less@K@std@@V?$allocator@U?$pair@$$CBKPAVIData@@@std@@@3@$0A@@std@@@2@XZ ; std::_Tree<std::_Tmap_traits<unsigned long,IData *,std::less<unsigned long>,std::allocator<std::pair<unsigned long const ,IData *> >,0> >::_Rmost
  000dc	8b 08		 mov	 ecx, DWORD PTR [eax]
  000de	51		 push	 ecx
  000df	e8 00 00 00 00	 call	 ?_Key@?$_Tree@V?$_Tmap_traits@KPAVIData@@U?$less@K@std@@V?$allocator@U?$pair@$$CBKPAVIData@@@std@@@3@$0A@@std@@@std@@KAABKPAU_Node@?$_Tree_nod@V?$_Tmap_traits@KPAVIData@@U?$less@K@std@@V?$allocator@U?$pair@$$CBKPAVIData@@@std@@@3@$0A@@std@@@2@@Z ; std::_Tree<std::_Tmap_traits<unsigned long,IData *,std::less<unsigned long>,std::allocator<std::pair<unsigned long const ,IData *> >,0> >::_Key
  000e4	83 c4 04	 add	 esp, 4
  000e7	50		 push	 eax
  000e8	8b 55 10	 mov	 edx, DWORD PTR __Val$[ebp]
  000eb	52		 push	 edx
  000ec	e8 00 00 00 00	 call	 ?_Kfn@?$_Tmap_traits@KPAVIData@@U?$less@K@std@@V?$allocator@U?$pair@$$CBKPAVIData@@@std@@@3@$0A@@std@@SAABKABU?$pair@$$CBKPAVIData@@@2@@Z ; std::_Tmap_traits<unsigned long,IData *,std::less<unsigned long>,std::allocator<std::pair<unsigned long const ,IData *> >,0>::_Kfn
  000f1	83 c4 04	 add	 esp, 4
  000f4	50		 push	 eax
  000f5	8b 4d d8	 mov	 ecx, DWORD PTR _this$[ebp]
  000f8	e8 00 00 00 00	 call	 ??R?$less@K@std@@QBE_NABK0@Z ; std::less<unsigned long>::operator()
  000fd	0f b6 c0	 movzx	 eax, al
  00100	85 c0		 test	 eax, eax
  00102	75 25		 jne	 SHORT $L199458

; 524  : 					return (_Insert(false, _Rmost(), _Val));

  00104	8b 4d 10	 mov	 ecx, DWORD PTR __Val$[ebp]
  00107	51		 push	 ecx
  00108	8b 4d d8	 mov	 ecx, DWORD PTR _this$[ebp]
  0010b	e8 00 00 00 00	 call	 ?_Rmost@?$_Tree@V?$_Tmap_traits@KPAVIData@@U?$less@K@std@@V?$allocator@U?$pair@$$CBKPAVIData@@@std@@@3@$0A@@std@@@std@@IAEAAPAU_Node@?$_Tree_nod@V?$_Tmap_traits@KPAVIData@@U?$less@K@std@@V?$allocator@U?$pair@$$CBKPAVIData@@@std@@@3@$0A@@std@@@2@XZ ; std::_Tree<std::_Tmap_traits<unsigned long,IData *,std::less<unsigned long>,std::allocator<std::pair<unsigned long const ,IData *> >,0> >::_Rmost
  00110	8b 10		 mov	 edx, DWORD PTR [eax]
  00112	52		 push	 edx
  00113	6a 00		 push	 0
  00115	8b 45 08	 mov	 eax, DWORD PTR ___$ReturnUdt$[ebp]
  00118	50		 push	 eax
  00119	8b 4d d8	 mov	 ecx, DWORD PTR _this$[ebp]
  0011c	e8 00 00 00 00	 call	 ?_Insert@?$_Tree@V?$_Tmap_traits@KPAVIData@@U?$less@K@std@@V?$allocator@U?$pair@$$CBKPAVIData@@@std@@@3@$0A@@std@@@std@@IAE?AViterator@12@_NPAU_Node@?$_Tree_nod@V?$_Tmap_traits@KPAVIData@@U?$less@K@std@@V?$allocator@U?$pair@$$CBKPAVIData@@@std@@@3@$0A@@std@@@2@ABU?$pair@$$CBKPAVIData@@@2@@Z ; std::_Tree<std::_Tmap_traits<unsigned long,IData *,std::less<unsigned long>,std::allocator<std::pair<unsigned long const ,IData *> >,0> >::_Insert
  00121	8b 45 08	 mov	 eax, DWORD PTR ___$ReturnUdt$[ebp]
  00124	e9 96 04 00 00	 jmp	 $L199445
$L199458:

; 525  : 				}
; 526  : 			else if (!this->comp(_Key(_Where._Mynode()), this->_Kfn(_Val))

  00129	e9 c8 01 00 00	 jmp	 $L199455
$L199457:

; 527  : 				&& !this->comp(this->_Kfn(_Val),
; 528  : 					_Key((--(_Next = _Where))._Mynode())))

  0012e	8b 4d 10	 mov	 ecx, DWORD PTR __Val$[ebp]
  00131	51		 push	 ecx
  00132	e8 00 00 00 00	 call	 ?_Kfn@?$_Tmap_traits@KPAVIData@@U?$less@K@std@@V?$allocator@U?$pair@$$CBKPAVIData@@@std@@@3@$0A@@std@@SAABKABU?$pair@$$CBKPAVIData@@@2@@Z ; std::_Tmap_traits<unsigned long,IData *,std::less<unsigned long>,std::allocator<std::pair<unsigned long const ,IData *> >,0>::_Kfn
  00137	83 c4 04	 add	 esp, 4
  0013a	50		 push	 eax
  0013b	8d 4d 0c	 lea	 ecx, DWORD PTR __Where$[ebp]
  0013e	e8 00 00 00 00	 call	 ?_Mynode@const_iterator@?$_Tree@V?$_Tmap_traits@KPAVIData@@U?$less@K@std@@V?$allocator@U?$pair@$$CBKPAVIData@@@std@@@3@$0A@@std@@@std@@QBEPAU_Node@?$_Tree_nod@V?$_Tmap_traits@KPAVIData@@U?$less@K@std@@V?$allocator@U?$pair@$$CBKPAVIData@@@std@@@3@$0A@@std@@@3@XZ ; std::_Tree<std::_Tmap_traits<unsigned long,IData *,std::less<unsigned long>,std::allocator<std::pair<unsigned long const ,IData *> >,0> >::const_iterator::_Mynode
  00143	50		 push	 eax
  00144	e8 00 00 00 00	 call	 ?_Key@?$_Tree@V?$_Tmap_traits@KPAVIData@@U?$less@K@std@@V?$allocator@U?$pair@$$CBKPAVIData@@@std@@@3@$0A@@std@@@std@@KAABKPAU_Node@?$_Tree_nod@V?$_Tmap_traits@KPAVIData@@U?$less@K@std@@V?$allocator@U?$pair@$$CBKPAVIData@@@std@@@3@$0A@@std@@@2@@Z ; std::_Tree<std::_Tmap_traits<unsigned long,IData *,std::less<unsigned long>,std::allocator<std::pair<unsigned long const ,IData *> >,0> >::_Key
  00149	83 c4 04	 add	 esp, 4
  0014c	50		 push	 eax
  0014d	8b 4d d8	 mov	 ecx, DWORD PTR _this$[ebp]
  00150	e8 00 00 00 00	 call	 ??R?$less@K@std@@QBE_NABK0@Z ; std::less<unsigned long>::operator()
  00155	0f b6 d0	 movzx	 edx, al
  00158	85 d2		 test	 edx, edx
  0015a	0f 85 a4 00 00
	00		 jne	 $L199461
  00160	8b 45 0c	 mov	 eax, DWORD PTR __Where$[ebp]
  00163	89 45 fc	 mov	 DWORD PTR __Next$[ebp], eax
  00166	8d 4d fc	 lea	 ecx, DWORD PTR __Next$[ebp]
  00169	e8 00 00 00 00	 call	 ??Fiterator@?$_Tree@V?$_Tmap_traits@KPAVIData@@U?$less@K@std@@V?$allocator@U?$pair@$$CBKPAVIData@@@std@@@3@$0A@@std@@@std@@QAEAAV012@XZ ; std::_Tree<std::_Tmap_traits<unsigned long,IData *,std::less<unsigned long>,std::allocator<std::pair<unsigned long const ,IData *> >,0> >::iterator::operator--
  0016e	8b c8		 mov	 ecx, eax
  00170	e8 00 00 00 00	 call	 ?_Mynode@const_iterator@?$_Tree@V?$_Tmap_traits@KPAVIData@@U?$less@K@std@@V?$allocator@U?$pair@$$CBKPAVIData@@@std@@@3@$0A@@std@@@std@@QBEPAU_Node@?$_Tree_nod@V?$_Tmap_traits@KPAVIData@@U?$less@K@std@@V?$allocator@U?$pair@$$CBKPAVIData@@@std@@@3@$0A@@std@@@3@XZ ; std::_Tree<std::_Tmap_traits<unsigned long,IData *,std::less<unsigned long>,std::allocator<std::pair<unsigned long const ,IData *> >,0> >::const_iterator::_Mynode
  00175	50		 push	 eax
  00176	e8 00 00 00 00	 call	 ?_Key@?$_Tree@V?$_Tmap_traits@KPAVIData@@U?$less@K@std@@V?$allocator@U?$pair@$$CBKPAVIData@@@std@@@3@$0A@@std@@@std@@KAABKPAU_Node@?$_Tree_nod@V?$_Tmap_traits@KPAVIData@@U?$less@K@std@@V?$allocator@U?$pair@$$CBKPAVIData@@@std@@@3@$0A@@std@@@2@@Z ; std::_Tree<std::_Tmap_traits<unsigned long,IData *,std::less<unsigned long>,std::allocator<std::pair<unsigned long const ,IData *> >,0> >::_Key
  0017b	83 c4 04	 add	 esp, 4
  0017e	50		 push	 eax
  0017f	8b 4d 10	 mov	 ecx, DWORD PTR __Val$[ebp]
  00182	51		 push	 ecx
  00183	e8 00 00 00 00	 call	 ?_Kfn@?$_Tmap_traits@KPAVIData@@U?$less@K@std@@V?$allocator@U?$pair@$$CBKPAVIData@@@std@@@3@$0A@@std@@SAABKABU?$pair@$$CBKPAVIData@@@2@@Z ; std::_Tmap_traits<unsigned long,IData *,std::less<unsigned long>,std::allocator<std::pair<unsigned long const ,IData *> >,0>::_Kfn
  00188	83 c4 04	 add	 esp, 4
  0018b	50		 push	 eax
  0018c	8b 4d d8	 mov	 ecx, DWORD PTR _this$[ebp]
  0018f	e8 00 00 00 00	 call	 ??R?$less@K@std@@QBE_NABK0@Z ; std::less<unsigned long>::operator()
  00194	0f b6 d0	 movzx	 edx, al
  00197	85 d2		 test	 edx, edx
  00199	75 69		 jne	 SHORT $L199461

; 529  : 				{	// insert before _Where
; 530  : 				if (_Isnil(_Right(_Next._Mynode())))

  0019b	8d 4d fc	 lea	 ecx, DWORD PTR __Next$[ebp]
  0019e	e8 00 00 00 00	 call	 ?_Mynode@const_iterator@?$_Tree@V?$_Tmap_traits@KPAVIData@@U?$less@K@std@@V?$allocator@U?$pair@$$CBKPAVIData@@@std@@@3@$0A@@std@@@std@@QBEPAU_Node@?$_Tree_nod@V?$_Tmap_traits@KPAVIData@@U?$less@K@std@@V?$allocator@U?$pair@$$CBKPAVIData@@@std@@@3@$0A@@std@@@3@XZ ; std::_Tree<std::_Tmap_traits<unsigned long,IData *,std::less<unsigned long>,std::allocator<std::pair<unsigned long const ,IData *> >,0> >::const_iterator::_Mynode
  001a3	50		 push	 eax
  001a4	e8 00 00 00 00	 call	 ?_Right@?$_Tree@V?$_Tmap_traits@KPAVIData@@U?$less@K@std@@V?$allocator@U?$pair@$$CBKPAVIData@@@std@@@3@$0A@@std@@@std@@KAAAPAU_Node@?$_Tree_nod@V?$_Tmap_traits@KPAVIData@@U?$less@K@std@@V?$allocator@U?$pair@$$CBKPAVIData@@@std@@@3@$0A@@std@@@2@PAU342@@Z ; std::_Tree<std::_Tmap_traits<unsigned long,IData *,std::less<unsigned long>,std::allocator<std::pair<unsigned long const ,IData *> >,0> >::_Right
  001a9	83 c4 04	 add	 esp, 4
  001ac	8b 00		 mov	 eax, DWORD PTR [eax]
  001ae	50		 push	 eax
  001af	e8 00 00 00 00	 call	 ?_Isnil@?$_Tree@V?$_Tmap_traits@KPAVIData@@U?$less@K@std@@V?$allocator@U?$pair@$$CBKPAVIData@@@std@@@3@$0A@@std@@@std@@KAAADPAU_Node@?$_Tree_nod@V?$_Tmap_traits@KPAVIData@@U?$less@K@std@@V?$allocator@U?$pair@$$CBKPAVIData@@@std@@@3@$0A@@std@@@2@@Z ; std::_Tree<std::_Tmap_traits<unsigned long,IData *,std::less<unsigned long>,std::allocator<std::pair<unsigned long const ,IData *> >,0> >::_Isnil
  001b4	83 c4 04	 add	 esp, 4
  001b7	0f be 08	 movsx	 ecx, BYTE PTR [eax]
  001ba	85 c9		 test	 ecx, ecx
  001bc	74 23		 je	 SHORT $L199462

; 531  : 					return (_Insert(false, _Next._Mynode(), _Val));

  001be	8b 55 10	 mov	 edx, DWORD PTR __Val$[ebp]
  001c1	52		 push	 edx
  001c2	8d 4d fc	 lea	 ecx, DWORD PTR __Next$[ebp]
  001c5	e8 00 00 00 00	 call	 ?_Mynode@const_iterator@?$_Tree@V?$_Tmap_traits@KPAVIData@@U?$less@K@std@@V?$allocator@U?$pair@$$CBKPAVIData@@@std@@@3@$0A@@std@@@std@@QBEPAU_Node@?$_Tree_nod@V?$_Tmap_traits@KPAVIData@@U?$less@K@std@@V?$allocator@U?$pair@$$CBKPAVIData@@@std@@@3@$0A@@std@@@3@XZ ; std::_Tree<std::_Tmap_traits<unsigned long,IData *,std::less<unsigned long>,std::allocator<std::pair<unsigned long const ,IData *> >,0> >::const_iterator::_Mynode
  001ca	50		 push	 eax
  001cb	6a 00		 push	 0
  001cd	8b 45 08	 mov	 eax, DWORD PTR ___$ReturnUdt$[ebp]
  001d0	50		 push	 eax
  001d1	8b 4d d8	 mov	 ecx, DWORD PTR _this$[ebp]
  001d4	e8 00 00 00 00	 call	 ?_Insert@?$_Tree@V?$_Tmap_traits@KPAVIData@@U?$less@K@std@@V?$allocator@U?$pair@$$CBKPAVIData@@@std@@@3@$0A@@std@@@std@@IAE?AViterator@12@_NPAU_Node@?$_Tree_nod@V?$_Tmap_traits@KPAVIData@@U?$less@K@std@@V?$allocator@U?$pair@$$CBKPAVIData@@@std@@@3@$0A@@std@@@2@ABU?$pair@$$CBKPAVIData@@@2@@Z ; std::_Tree<std::_Tmap_traits<unsigned long,IData *,std::less<unsigned long>,std::allocator<std::pair<unsigned long const ,IData *> >,0> >::_Insert
  001d9	8b 45 08	 mov	 eax, DWORD PTR ___$ReturnUdt$[ebp]
  001dc	e9 de 03 00 00	 jmp	 $L199445
$L199462:

; 532  : 				else
; 533  : 					return (_Insert(true, _Where._Mynode(), _Val));

  001e1	8b 4d 10	 mov	 ecx, DWORD PTR __Val$[ebp]
  001e4	51		 push	 ecx
  001e5	8d 4d 0c	 lea	 ecx, DWORD PTR __Where$[ebp]
  001e8	e8 00 00 00 00	 call	 ?_Mynode@const_iterator@?$_Tree@V?$_Tmap_traits@KPAVIData@@U?$less@K@std@@V?$allocator@U?$pair@$$CBKPAVIData@@@std@@@3@$0A@@std@@@std@@QBEPAU_Node@?$_Tree_nod@V?$_Tmap_traits@KPAVIData@@U?$less@K@std@@V?$allocator@U?$pair@$$CBKPAVIData@@@std@@@3@$0A@@std@@@3@XZ ; std::_Tree<std::_Tmap_traits<unsigned long,IData *,std::less<unsigned long>,std::allocator<std::pair<unsigned long const ,IData *> >,0> >::const_iterator::_Mynode
  001ed	50		 push	 eax
  001ee	6a 01		 push	 1
  001f0	8b 55 08	 mov	 edx, DWORD PTR ___$ReturnUdt$[ebp]
  001f3	52		 push	 edx
  001f4	8b 4d d8	 mov	 ecx, DWORD PTR _this$[ebp]
  001f7	e8 00 00 00 00	 call	 ?_Insert@?$_Tree@V?$_Tmap_traits@KPAVIData@@U?$less@K@std@@V?$allocator@U?$pair@$$CBKPAVIData@@@std@@@3@$0A@@std@@@std@@IAE?AViterator@12@_NPAU_Node@?$_Tree_nod@V?$_Tmap_traits@KPAVIData@@U?$less@K@std@@V?$allocator@U?$pair@$$CBKPAVIData@@@std@@@3@$0A@@std@@@2@ABU?$pair@$$CBKPAVIData@@@2@@Z ; std::_Tree<std::_Tmap_traits<unsigned long,IData *,std::less<unsigned long>,std::allocator<std::pair<unsigned long const ,IData *> >,0> >::_Insert
  001fc	8b 45 08	 mov	 eax, DWORD PTR ___$ReturnUdt$[ebp]
  001ff	e9 bb 03 00 00	 jmp	 $L199445
$L199461:

; 534  : 				}
; 535  : 			else if (!this->comp(this->_Kfn(_Val), _Key(_Where._Mynode()))
; 536  : 				&& (++(_Next = _Where) == end()
; 537  : 					|| !this->comp(_Key(_Next._Mynode()),
; 538  : 						this->_Kfn(_Val))))

  00204	8d 4d 0c	 lea	 ecx, DWORD PTR __Where$[ebp]
  00207	e8 00 00 00 00	 call	 ?_Mynode@const_iterator@?$_Tree@V?$_Tmap_traits@KPAVIData@@U?$less@K@std@@V?$allocator@U?$pair@$$CBKPAVIData@@@std@@@3@$0A@@std@@@std@@QBEPAU_Node@?$_Tree_nod@V?$_Tmap_traits@KPAVIData@@U?$less@K@std@@V?$allocator@U?$pair@$$CBKPAVIData@@@std@@@3@$0A@@std@@@3@XZ ; std::_Tree<std::_Tmap_traits<unsigned long,IData *,std::less<unsigned long>,std::allocator<std::pair<unsigned long const ,IData *> >,0> >::const_iterator::_Mynode
  0020c	50		 push	 eax
  0020d	e8 00 00 00 00	 call	 ?_Key@?$_Tree@V?$_Tmap_traits@KPAVIData@@U?$less@K@std@@V?$allocator@U?$pair@$$CBKPAVIData@@@std@@@3@$0A@@std@@@std@@KAABKPAU_Node@?$_Tree_nod@V?$_Tmap_traits@KPAVIData@@U?$less@K@std@@V?$allocator@U?$pair@$$CBKPAVIData@@@std@@@3@$0A@@std@@@2@@Z ; std::_Tree<std::_Tmap_traits<unsigned long,IData *,std::less<unsigned long>,std::allocator<std::pair<unsigned long const ,IData *> >,0> >::_Key
  00212	83 c4 04	 add	 esp, 4
  00215	50		 push	 eax
  00216	8b 45 10	 mov	 eax, DWORD PTR __Val$[ebp]
  00219	50		 push	 eax
  0021a	e8 00 00 00 00	 call	 ?_Kfn@?$_Tmap_traits@KPAVIData@@U?$less@K@std@@V?$allocator@U?$pair@$$CBKPAVIData@@@std@@@3@$0A@@std@@SAABKABU?$pair@$$CBKPAVIData@@@2@@Z ; std::_Tmap_traits<unsigned long,IData *,std::less<unsigned long>,std::allocator<std::pair<unsigned long const ,IData *> >,0>::_Kfn
  0021f	83 c4 04	 add	 esp, 4
  00222	50		 push	 eax
  00223	8b 4d d8	 mov	 ecx, DWORD PTR _this$[ebp]
  00226	e8 00 00 00 00	 call	 ??R?$less@K@std@@QBE_NABK0@Z ; std::less<unsigned long>::operator()
  0022b	0f b6 c8	 movzx	 ecx, al
  0022e	85 c9		 test	 ecx, ecx
  00230	0f 85 c0 00 00
	00		 jne	 $L199455
  00236	8b 55 0c	 mov	 edx, DWORD PTR __Where$[ebp]
  00239	89 55 fc	 mov	 DWORD PTR __Next$[ebp], edx
  0023c	8d 45 f0	 lea	 eax, DWORD PTR $T200605[ebp]
  0023f	50		 push	 eax
  00240	8b 4d d8	 mov	 ecx, DWORD PTR _this$[ebp]
  00243	e8 00 00 00 00	 call	 ?end@?$_Tree@V?$_Tmap_traits@KPAVIData@@U?$less@K@std@@V?$allocator@U?$pair@$$CBKPAVIData@@@std@@@3@$0A@@std@@@std@@QAE?AViterator@12@XZ ; std::_Tree<std::_Tmap_traits<unsigned long,IData *,std::less<unsigned long>,std::allocator<std::pair<unsigned long const ,IData *> >,0> >::end
  00248	50		 push	 eax
  00249	8d 4d fc	 lea	 ecx, DWORD PTR __Next$[ebp]
  0024c	e8 00 00 00 00	 call	 ??Eiterator@?$_Tree@V?$_Tmap_traits@KPAVIData@@U?$less@K@std@@V?$allocator@U?$pair@$$CBKPAVIData@@@std@@@3@$0A@@std@@@std@@QAEAAV012@XZ ; std::_Tree<std::_Tmap_traits<unsigned long,IData *,std::less<unsigned long>,std::allocator<std::pair<unsigned long const ,IData *> >,0> >::iterator::operator++
  00251	8b c8		 mov	 ecx, eax
  00253	e8 00 00 00 00	 call	 ??8const_iterator@?$_Tree@V?$_Tmap_traits@KPAVIData@@U?$less@K@std@@V?$allocator@U?$pair@$$CBKPAVIData@@@std@@@3@$0A@@std@@@std@@QBE_NABV012@@Z ; std::_Tree<std::_Tmap_traits<unsigned long,IData *,std::less<unsigned long>,std::allocator<std::pair<unsigned long const ,IData *> >,0> >::const_iterator::operator==
  00258	0f b6 c8	 movzx	 ecx, al
  0025b	85 c9		 test	 ecx, ecx
  0025d	75 2e		 jne	 SHORT $L199469
  0025f	8b 55 10	 mov	 edx, DWORD PTR __Val$[ebp]
  00262	52		 push	 edx
  00263	e8 00 00 00 00	 call	 ?_Kfn@?$_Tmap_traits@KPAVIData@@U?$less@K@std@@V?$allocator@U?$pair@$$CBKPAVIData@@@std@@@3@$0A@@std@@SAABKABU?$pair@$$CBKPAVIData@@@2@@Z ; std::_Tmap_traits<unsigned long,IData *,std::less<unsigned long>,std::allocator<std::pair<unsigned long const ,IData *> >,0>::_Kfn
  00268	83 c4 04	 add	 esp, 4
  0026b	50		 push	 eax
  0026c	8d 4d fc	 lea	 ecx, DWORD PTR __Next$[ebp]
  0026f	e8 00 00 00 00	 call	 ?_Mynode@const_iterator@?$_Tree@V?$_Tmap_traits@KPAVIData@@U?$less@K@std@@V?$allocator@U?$pair@$$CBKPAVIData@@@std@@@3@$0A@@std@@@std@@QBEPAU_Node@?$_Tree_nod@V?$_Tmap_traits@KPAVIData@@U?$less@K@std@@V?$allocator@U?$pair@$$CBKPAVIData@@@std@@@3@$0A@@std@@@3@XZ ; std::_Tree<std::_Tmap_traits<unsigned long,IData *,std::less<unsigned long>,std::allocator<std::pair<unsigned long const ,IData *> >,0> >::const_iterator::_Mynode
  00274	50		 push	 eax
  00275	e8 00 00 00 00	 call	 ?_Key@?$_Tree@V?$_Tmap_traits@KPAVIData@@U?$less@K@std@@V?$allocator@U?$pair@$$CBKPAVIData@@@std@@@3@$0A@@std@@@std@@KAABKPAU_Node@?$_Tree_nod@V?$_Tmap_traits@KPAVIData@@U?$less@K@std@@V?$allocator@U?$pair@$$CBKPAVIData@@@std@@@3@$0A@@std@@@2@@Z ; std::_Tree<std::_Tmap_traits<unsigned long,IData *,std::less<unsigned long>,std::allocator<std::pair<unsigned long const ,IData *> >,0> >::_Key
  0027a	83 c4 04	 add	 esp, 4
  0027d	50		 push	 eax
  0027e	8b 4d d8	 mov	 ecx, DWORD PTR _this$[ebp]
  00281	e8 00 00 00 00	 call	 ??R?$less@K@std@@QBE_NABK0@Z ; std::less<unsigned long>::operator()
  00286	0f b6 c0	 movzx	 eax, al
  00289	85 c0		 test	 eax, eax
  0028b	75 69		 jne	 SHORT $L199455
$L199469:

; 539  : 				{	// insert after _Where
; 540  : 				if (_Isnil(_Right(_Where._Mynode())))

  0028d	8d 4d 0c	 lea	 ecx, DWORD PTR __Where$[ebp]
  00290	e8 00 00 00 00	 call	 ?_Mynode@const_iterator@?$_Tree@V?$_Tmap_traits@KPAVIData@@U?$less@K@std@@V?$allocator@U?$pair@$$CBKPAVIData@@@std@@@3@$0A@@std@@@std@@QBEPAU_Node@?$_Tree_nod@V?$_Tmap_traits@KPAVIData@@U?$less@K@std@@V?$allocator@U?$pair@$$CBKPAVIData@@@std@@@3@$0A@@std@@@3@XZ ; std::_Tree<std::_Tmap_traits<unsigned long,IData *,std::less<unsigned long>,std::allocator<std::pair<unsigned long const ,IData *> >,0> >::const_iterator::_Mynode
  00295	50		 push	 eax
  00296	e8 00 00 00 00	 call	 ?_Right@?$_Tree@V?$_Tmap_traits@KPAVIData@@U?$less@K@std@@V?$allocator@U?$pair@$$CBKPAVIData@@@std@@@3@$0A@@std@@@std@@KAAAPAU_Node@?$_Tree_nod@V?$_Tmap_traits@KPAVIData@@U?$less@K@std@@V?$allocator@U?$pair@$$CBKPAVIData@@@std@@@3@$0A@@std@@@2@PAU342@@Z ; std::_Tree<std::_Tmap_traits<unsigned long,IData *,std::less<unsigned long>,std::allocator<std::pair<unsigned long const ,IData *> >,0> >::_Right
  0029b	83 c4 04	 add	 esp, 4
  0029e	8b 08		 mov	 ecx, DWORD PTR [eax]
  002a0	51		 push	 ecx
  002a1	e8 00 00 00 00	 call	 ?_Isnil@?$_Tree@V?$_Tmap_traits@KPAVIData@@U?$less@K@std@@V?$allocator@U?$pair@$$CBKPAVIData@@@std@@@3@$0A@@std@@@std@@KAAADPAU_Node@?$_Tree_nod@V?$_Tmap_traits@KPAVIData@@U?$less@K@std@@V?$allocator@U?$pair@$$CBKPAVIData@@@std@@@3@$0A@@std@@@2@@Z ; std::_Tree<std::_Tmap_traits<unsigned long,IData *,std::less<unsigned long>,std::allocator<std::pair<unsigned long const ,IData *> >,0> >::_Isnil
  002a6	83 c4 04	 add	 esp, 4
  002a9	0f be 10	 movsx	 edx, BYTE PTR [eax]
  002ac	85 d2		 test	 edx, edx
  002ae	74 23		 je	 SHORT $L199470

; 541  : 					return (_Insert(false, _Where._Mynode(), _Val));

  002b0	8b 45 10	 mov	 eax, DWORD PTR __Val$[ebp]
  002b3	50		 push	 eax
  002b4	8d 4d 0c	 lea	 ecx, DWORD PTR __Where$[ebp]
  002b7	e8 00 00 00 00	 call	 ?_Mynode@const_iterator@?$_Tree@V?$_Tmap_traits@KPAVIData@@U?$less@K@std@@V?$allocator@U?$pair@$$CBKPAVIData@@@std@@@3@$0A@@std@@@std@@QBEPAU_Node@?$_Tree_nod@V?$_Tmap_traits@KPAVIData@@U?$less@K@std@@V?$allocator@U?$pair@$$CBKPAVIData@@@std@@@3@$0A@@std@@@3@XZ ; std::_Tree<std::_Tmap_traits<unsigned long,IData *,std::less<unsigned long>,std::allocator<std::pair<unsigned long const ,IData *> >,0> >::const_iterator::_Mynode
  002bc	50		 push	 eax
  002bd	6a 00		 push	 0
  002bf	8b 4d 08	 mov	 ecx, DWORD PTR ___$ReturnUdt$[ebp]
  002c2	51		 push	 ecx
  002c3	8b 4d d8	 mov	 ecx, DWORD PTR _this$[ebp]
  002c6	e8 00 00 00 00	 call	 ?_Insert@?$_Tree@V?$_Tmap_traits@KPAVIData@@U?$less@K@std@@V?$allocator@U?$pair@$$CBKPAVIData@@@std@@@3@$0A@@std@@@std@@IAE?AViterator@12@_NPAU_Node@?$_Tree_nod@V?$_Tmap_traits@KPAVIData@@U?$less@K@std@@V?$allocator@U?$pair@$$CBKPAVIData@@@std@@@3@$0A@@std@@@2@ABU?$pair@$$CBKPAVIData@@@2@@Z ; std::_Tree<std::_Tmap_traits<unsigned long,IData *,std::less<unsigned long>,std::allocator<std::pair<unsigned long const ,IData *> >,0> >::_Insert
  002cb	8b 45 08	 mov	 eax, DWORD PTR ___$ReturnUdt$[ebp]
  002ce	e9 ec 02 00 00	 jmp	 $L199445
$L199470:

; 542  : 				else
; 543  : 					return (_Insert(true, _Next._Mynode(), _Val));

  002d3	8b 55 10	 mov	 edx, DWORD PTR __Val$[ebp]
  002d6	52		 push	 edx
  002d7	8d 4d fc	 lea	 ecx, DWORD PTR __Next$[ebp]
  002da	e8 00 00 00 00	 call	 ?_Mynode@const_iterator@?$_Tree@V?$_Tmap_traits@KPAVIData@@U?$less@K@std@@V?$allocator@U?$pair@$$CBKPAVIData@@@std@@@3@$0A@@std@@@std@@QBEPAU_Node@?$_Tree_nod@V?$_Tmap_traits@KPAVIData@@U?$less@K@std@@V?$allocator@U?$pair@$$CBKPAVIData@@@std@@@3@$0A@@std@@@3@XZ ; std::_Tree<std::_Tmap_traits<unsigned long,IData *,std::less<unsigned long>,std::allocator<std::pair<unsigned long const ,IData *> >,0> >::const_iterator::_Mynode
  002df	50		 push	 eax
  002e0	6a 01		 push	 1
  002e2	8b 45 08	 mov	 eax, DWORD PTR ___$ReturnUdt$[ebp]
  002e5	50		 push	 eax
  002e6	8b 4d d8	 mov	 ecx, DWORD PTR _this$[ebp]
  002e9	e8 00 00 00 00	 call	 ?_Insert@?$_Tree@V?$_Tmap_traits@KPAVIData@@U?$less@K@std@@V?$allocator@U?$pair@$$CBKPAVIData@@@std@@@3@$0A@@std@@@std@@IAE?AViterator@12@_NPAU_Node@?$_Tree_nod@V?$_Tmap_traits@KPAVIData@@U?$less@K@std@@V?$allocator@U?$pair@$$CBKPAVIData@@@std@@@3@$0A@@std@@@2@ABU?$pair@$$CBKPAVIData@@@2@@Z ; std::_Tree<std::_Tmap_traits<unsigned long,IData *,std::less<unsigned long>,std::allocator<std::pair<unsigned long const ,IData *> >,0> >::_Insert
  002ee	8b 45 08	 mov	 eax, DWORD PTR ___$ReturnUdt$[ebp]
  002f1	e9 c9 02 00 00	 jmp	 $L199445
$L199455:

; 544  : 				}
; 545  : 			}
; 546  : 		else

  002f6	e9 aa 02 00 00	 jmp	 $L199449
$L199450:

; 547  : 			{	// insert only if unique
; 548  : 			if (_Where == begin())

  002fb	8d 4d ec	 lea	 ecx, DWORD PTR $T200606[ebp]
  002fe	51		 push	 ecx
  002ff	8b 4d d8	 mov	 ecx, DWORD PTR _this$[ebp]
  00302	e8 00 00 00 00	 call	 ?begin@?$_Tree@V?$_Tmap_traits@KPAVIData@@U?$less@K@std@@V?$allocator@U?$pair@$$CBKPAVIData@@@std@@@3@$0A@@std@@@std@@QAE?AViterator@12@XZ ; std::_Tree<std::_Tmap_traits<unsigned long,IData *,std::less<unsigned long>,std::allocator<std::pair<unsigned long const ,IData *> >,0> >::begin
  00307	50		 push	 eax
  00308	8d 4d 0c	 lea	 ecx, DWORD PTR __Where$[ebp]
  0030b	e8 00 00 00 00	 call	 ??8const_iterator@?$_Tree@V?$_Tmap_traits@KPAVIData@@U?$less@K@std@@V?$allocator@U?$pair@$$CBKPAVIData@@@std@@@3@$0A@@std@@@std@@QBE_NABV012@@Z ; std::_Tree<std::_Tmap_traits<unsigned long,IData *,std::less<unsigned long>,std::allocator<std::pair<unsigned long const ,IData *> >,0> >::const_iterator::operator==
  00310	0f b6 d0	 movzx	 edx, al
  00313	85 d2		 test	 edx, edx
  00315	74 56		 je	 SHORT $L199476

; 549  : 				{	// insert at beginning if before first element
; 550  : 				if (this->comp(this->_Kfn(_Val), _Key(_Where._Mynode())))

  00317	8d 4d 0c	 lea	 ecx, DWORD PTR __Where$[ebp]
  0031a	e8 00 00 00 00	 call	 ?_Mynode@const_iterator@?$_Tree@V?$_Tmap_traits@KPAVIData@@U?$less@K@std@@V?$allocator@U?$pair@$$CBKPAVIData@@@std@@@3@$0A@@std@@@std@@QBEPAU_Node@?$_Tree_nod@V?$_Tmap_traits@KPAVIData@@U?$less@K@std@@V?$allocator@U?$pair@$$CBKPAVIData@@@std@@@3@$0A@@std@@@3@XZ ; std::_Tree<std::_Tmap_traits<unsigned long,IData *,std::less<unsigned long>,std::allocator<std::pair<unsigned long const ,IData *> >,0> >::const_iterator::_Mynode
  0031f	50		 push	 eax
  00320	e8 00 00 00 00	 call	 ?_Key@?$_Tree@V?$_Tmap_traits@KPAVIData@@U?$less@K@std@@V?$allocator@U?$pair@$$CBKPAVIData@@@std@@@3@$0A@@std@@@std@@KAABKPAU_Node@?$_Tree_nod@V?$_Tmap_traits@KPAVIData@@U?$less@K@std@@V?$allocator@U?$pair@$$CBKPAVIData@@@std@@@3@$0A@@std@@@2@@Z ; std::_Tree<std::_Tmap_traits<unsigned long,IData *,std::less<unsigned long>,std::allocator<std::pair<unsigned long const ,IData *> >,0> >::_Key
  00325	83 c4 04	 add	 esp, 4
  00328	50		 push	 eax
  00329	8b 45 10	 mov	 eax, DWORD PTR __Val$[ebp]
  0032c	50		 push	 eax
  0032d	e8 00 00 00 00	 call	 ?_Kfn@?$_Tmap_traits@KPAVIData@@U?$less@K@std@@V?$allocator@U?$pair@$$CBKPAVIData@@@std@@@3@$0A@@std@@SAABKABU?$pair@$$CBKPAVIData@@@2@@Z ; std::_Tmap_traits<unsigned long,IData *,std::less<unsigned long>,std::allocator<std::pair<unsigned long const ,IData *> >,0>::_Kfn
  00332	83 c4 04	 add	 esp, 4
  00335	50		 push	 eax
  00336	8b 4d d8	 mov	 ecx, DWORD PTR _this$[ebp]
  00339	e8 00 00 00 00	 call	 ??R?$less@K@std@@QBE_NABK0@Z ; std::less<unsigned long>::operator()
  0033e	0f b6 c8	 movzx	 ecx, al
  00341	85 c9		 test	 ecx, ecx
  00343	74 23		 je	 SHORT $L199477

; 551  : 					return (_Insert(true, _Where._Mynode(), _Val));

  00345	8b 55 10	 mov	 edx, DWORD PTR __Val$[ebp]
  00348	52		 push	 edx
  00349	8d 4d 0c	 lea	 ecx, DWORD PTR __Where$[ebp]
  0034c	e8 00 00 00 00	 call	 ?_Mynode@const_iterator@?$_Tree@V?$_Tmap_traits@KPAVIData@@U?$less@K@std@@V?$allocator@U?$pair@$$CBKPAVIData@@@std@@@3@$0A@@std@@@std@@QBEPAU_Node@?$_Tree_nod@V?$_Tmap_traits@KPAVIData@@U?$less@K@std@@V?$allocator@U?$pair@$$CBKPAVIData@@@std@@@3@$0A@@std@@@3@XZ ; std::_Tree<std::_Tmap_traits<unsigned long,IData *,std::less<unsigned long>,std::allocator<std::pair<unsigned long const ,IData *> >,0> >::const_iterator::_Mynode
  00351	50		 push	 eax
  00352	6a 01		 push	 1
  00354	8b 45 08	 mov	 eax, DWORD PTR ___$ReturnUdt$[ebp]
  00357	50		 push	 eax
  00358	8b 4d d8	 mov	 ecx, DWORD PTR _this$[ebp]
  0035b	e8 00 00 00 00	 call	 ?_Insert@?$_Tree@V?$_Tmap_traits@KPAVIData@@U?$less@K@std@@V?$allocator@U?$pair@$$CBKPAVIData@@@std@@@3@$0A@@std@@@std@@IAE?AViterator@12@_NPAU_Node@?$_Tree_nod@V?$_Tmap_traits@KPAVIData@@U?$less@K@std@@V?$allocator@U?$pair@$$CBKPAVIData@@@std@@@3@$0A@@std@@@2@ABU?$pair@$$CBKPAVIData@@@2@@Z ; std::_Tree<std::_Tmap_traits<unsigned long,IData *,std::less<unsigned long>,std::allocator<std::pair<unsigned long const ,IData *> >,0> >::_Insert
  00360	8b 45 08	 mov	 eax, DWORD PTR ___$ReturnUdt$[ebp]
  00363	e9 57 02 00 00	 jmp	 $L199445
$L199477:

; 552  : 				}
; 553  : 			else if (_Where == end())

  00368	e9 38 02 00 00	 jmp	 $L199449
$L199476:
  0036d	8d 4d e8	 lea	 ecx, DWORD PTR $T200607[ebp]
  00370	51		 push	 ecx
  00371	8b 4d d8	 mov	 ecx, DWORD PTR _this$[ebp]
  00374	e8 00 00 00 00	 call	 ?end@?$_Tree@V?$_Tmap_traits@KPAVIData@@U?$less@K@std@@V?$allocator@U?$pair@$$CBKPAVIData@@@std@@@3@$0A@@std@@@std@@QAE?AViterator@12@XZ ; std::_Tree<std::_Tmap_traits<unsigned long,IData *,std::less<unsigned long>,std::allocator<std::pair<unsigned long const ,IData *> >,0> >::end
  00379	50		 push	 eax
  0037a	8d 4d 0c	 lea	 ecx, DWORD PTR __Where$[ebp]
  0037d	e8 00 00 00 00	 call	 ??8const_iterator@?$_Tree@V?$_Tmap_traits@KPAVIData@@U?$less@K@std@@V?$allocator@U?$pair@$$CBKPAVIData@@@std@@@3@$0A@@std@@@std@@QBE_NABV012@@Z ; std::_Tree<std::_Tmap_traits<unsigned long,IData *,std::less<unsigned long>,std::allocator<std::pair<unsigned long const ,IData *> >,0> >::const_iterator::operator==
  00382	0f b6 d0	 movzx	 edx, al
  00385	85 d2		 test	 edx, edx
  00387	74 5a		 je	 SHORT $L199481

; 554  : 				{	// insert at end if after last element
; 555  : 				if (this->comp(_Key(_Rmost()), this->_Kfn(_Val)))

  00389	8b 45 10	 mov	 eax, DWORD PTR __Val$[ebp]
  0038c	50		 push	 eax
  0038d	e8 00 00 00 00	 call	 ?_Kfn@?$_Tmap_traits@KPAVIData@@U?$less@K@std@@V?$allocator@U?$pair@$$CBKPAVIData@@@std@@@3@$0A@@std@@SAABKABU?$pair@$$CBKPAVIData@@@2@@Z ; std::_Tmap_traits<unsigned long,IData *,std::less<unsigned long>,std::allocator<std::pair<unsigned long const ,IData *> >,0>::_Kfn
  00392	83 c4 04	 add	 esp, 4
  00395	50		 push	 eax
  00396	8b 4d d8	 mov	 ecx, DWORD PTR _this$[ebp]
  00399	e8 00 00 00 00	 call	 ?_Rmost@?$_Tree@V?$_Tmap_traits@KPAVIData@@U?$less@K@std@@V?$allocator@U?$pair@$$CBKPAVIData@@@std@@@3@$0A@@std@@@std@@IAEAAPAU_Node@?$_Tree_nod@V?$_Tmap_traits@KPAVIData@@U?$less@K@std@@V?$allocator@U?$pair@$$CBKPAVIData@@@std@@@3@$0A@@std@@@2@XZ ; std::_Tree<std::_Tmap_traits<unsigned long,IData *,std::less<unsigned long>,std::allocator<std::pair<unsigned long const ,IData *> >,0> >::_Rmost
  0039e	8b 08		 mov	 ecx, DWORD PTR [eax]
  003a0	51		 push	 ecx
  003a1	e8 00 00 00 00	 call	 ?_Key@?$_Tree@V?$_Tmap_traits@KPAVIData@@U?$less@K@std@@V?$allocator@U?$pair@$$CBKPAVIData@@@std@@@3@$0A@@std@@@std@@KAABKPAU_Node@?$_Tree_nod@V?$_Tmap_traits@KPAVIData@@U?$less@K@std@@V?$allocator@U?$pair@$$CBKPAVIData@@@std@@@3@$0A@@std@@@2@@Z ; std::_Tree<std::_Tmap_traits<unsigned long,IData *,std::less<unsigned long>,std::allocator<std::pair<unsigned long const ,IData *> >,0> >::_Key
  003a6	83 c4 04	 add	 esp, 4
  003a9	50		 push	 eax
  003aa	8b 4d d8	 mov	 ecx, DWORD PTR _this$[ebp]
  003ad	e8 00 00 00 00	 call	 ??R?$less@K@std@@QBE_NABK0@Z ; std::less<unsigned long>::operator()
  003b2	0f b6 d0	 movzx	 edx, al
  003b5	85 d2		 test	 edx, edx
  003b7	74 25		 je	 SHORT $L199482

; 556  : 					return (_Insert(false, _Rmost(), _Val));

  003b9	8b 45 10	 mov	 eax, DWORD PTR __Val$[ebp]
  003bc	50		 push	 eax
  003bd	8b 4d d8	 mov	 ecx, DWORD PTR _this$[ebp]
  003c0	e8 00 00 00 00	 call	 ?_Rmost@?$_Tree@V?$_Tmap_traits@KPAVIData@@U?$less@K@std@@V?$allocator@U?$pair@$$CBKPAVIData@@@std@@@3@$0A@@std@@@std@@IAEAAPAU_Node@?$_Tree_nod@V?$_Tmap_traits@KPAVIData@@U?$less@K@std@@V?$allocator@U?$pair@$$CBKPAVIData@@@std@@@3@$0A@@std@@@2@XZ ; std::_Tree<std::_Tmap_traits<unsigned long,IData *,std::less<unsigned long>,std::allocator<std::pair<unsigned long const ,IData *> >,0> >::_Rmost
  003c5	8b 08		 mov	 ecx, DWORD PTR [eax]
  003c7	51		 push	 ecx
  003c8	6a 00		 push	 0
  003ca	8b 55 08	 mov	 edx, DWORD PTR ___$ReturnUdt$[ebp]
  003cd	52		 push	 edx
  003ce	8b 4d d8	 mov	 ecx, DWORD PTR _this$[ebp]
  003d1	e8 00 00 00 00	 call	 ?_Insert@?$_Tree@V?$_Tmap_traits@KPAVIData@@U?$less@K@std@@V?$allocator@U?$pair@$$CBKPAVIData@@@std@@@3@$0A@@std@@@std@@IAE?AViterator@12@_NPAU_Node@?$_Tree_nod@V?$_Tmap_traits@KPAVIData@@U?$less@K@std@@V?$allocator@U?$pair@$$CBKPAVIData@@@std@@@3@$0A@@std@@@2@ABU?$pair@$$CBKPAVIData@@@2@@Z ; std::_Tree<std::_Tmap_traits<unsigned long,IData *,std::less<unsigned long>,std::allocator<std::pair<unsigned long const ,IData *> >,0> >::_Insert
  003d6	8b 45 08	 mov	 eax, DWORD PTR ___$ReturnUdt$[ebp]
  003d9	e9 e1 01 00 00	 jmp	 $L199445
$L199482:

; 557  : 				}
; 558  : 			else if (this->comp(this->_Kfn(_Val), _Key(_Where._Mynode()))

  003de	e9 c2 01 00 00	 jmp	 $L199449
$L199481:

; 559  : 				&& this->comp(_Key((--(_Next = _Where))._Mynode()),
; 560  : 					this->_Kfn(_Val)))

  003e3	8d 4d 0c	 lea	 ecx, DWORD PTR __Where$[ebp]
  003e6	e8 00 00 00 00	 call	 ?_Mynode@const_iterator@?$_Tree@V?$_Tmap_traits@KPAVIData@@U?$less@K@std@@V?$allocator@U?$pair@$$CBKPAVIData@@@std@@@3@$0A@@std@@@std@@QBEPAU_Node@?$_Tree_nod@V?$_Tmap_traits@KPAVIData@@U?$less@K@std@@V?$allocator@U?$pair@$$CBKPAVIData@@@std@@@3@$0A@@std@@@3@XZ ; std::_Tree<std::_Tmap_traits<unsigned long,IData *,std::less<unsigned long>,std::allocator<std::pair<unsigned long const ,IData *> >,0> >::const_iterator::_Mynode
  003eb	50		 push	 eax
  003ec	e8 00 00 00 00	 call	 ?_Key@?$_Tree@V?$_Tmap_traits@KPAVIData@@U?$less@K@std@@V?$allocator@U?$pair@$$CBKPAVIData@@@std@@@3@$0A@@std@@@std@@KAABKPAU_Node@?$_Tree_nod@V?$_Tmap_traits@KPAVIData@@U?$less@K@std@@V?$allocator@U?$pair@$$CBKPAVIData@@@std@@@3@$0A@@std@@@2@@Z ; std::_Tree<std::_Tmap_traits<unsigned long,IData *,std::less<unsigned long>,std::allocator<std::pair<unsigned long const ,IData *> >,0> >::_Key
  003f1	83 c4 04	 add	 esp, 4
  003f4	50		 push	 eax
  003f5	8b 45 10	 mov	 eax, DWORD PTR __Val$[ebp]
  003f8	50		 push	 eax
  003f9	e8 00 00 00 00	 call	 ?_Kfn@?$_Tmap_traits@KPAVIData@@U?$less@K@std@@V?$allocator@U?$pair@$$CBKPAVIData@@@std@@@3@$0A@@std@@SAABKABU?$pair@$$CBKPAVIData@@@2@@Z ; std::_Tmap_traits<unsigned long,IData *,std::less<unsigned long>,std::allocator<std::pair<unsigned long const ,IData *> >,0>::_Kfn
  003fe	83 c4 04	 add	 esp, 4
  00401	50		 push	 eax
  00402	8b 4d d8	 mov	 ecx, DWORD PTR _this$[ebp]
  00405	e8 00 00 00 00	 call	 ??R?$less@K@std@@QBE_NABK0@Z ; std::less<unsigned long>::operator()
  0040a	0f b6 c8	 movzx	 ecx, al
  0040d	85 c9		 test	 ecx, ecx
  0040f	0f 84 a4 00 00
	00		 je	 $L199485
  00415	8b 55 0c	 mov	 edx, DWORD PTR __Where$[ebp]
  00418	89 55 fc	 mov	 DWORD PTR __Next$[ebp], edx
  0041b	8b 45 10	 mov	 eax, DWORD PTR __Val$[ebp]
  0041e	50		 push	 eax
  0041f	e8 00 00 00 00	 call	 ?_Kfn@?$_Tmap_traits@KPAVIData@@U?$less@K@std@@V?$allocator@U?$pair@$$CBKPAVIData@@@std@@@3@$0A@@std@@SAABKABU?$pair@$$CBKPAVIData@@@2@@Z ; std::_Tmap_traits<unsigned long,IData *,std::less<unsigned long>,std::allocator<std::pair<unsigned long const ,IData *> >,0>::_Kfn
  00424	83 c4 04	 add	 esp, 4
  00427	50		 push	 eax
  00428	8d 4d fc	 lea	 ecx, DWORD PTR __Next$[ebp]
  0042b	e8 00 00 00 00	 call	 ??Fiterator@?$_Tree@V?$_Tmap_traits@KPAVIData@@U?$less@K@std@@V?$allocator@U?$pair@$$CBKPAVIData@@@std@@@3@$0A@@std@@@std@@QAEAAV012@XZ ; std::_Tree<std::_Tmap_traits<unsigned long,IData *,std::less<unsigned long>,std::allocator<std::pair<unsigned long const ,IData *> >,0> >::iterator::operator--
  00430	8b c8		 mov	 ecx, eax
  00432	e8 00 00 00 00	 call	 ?_Mynode@const_iterator@?$_Tree@V?$_Tmap_traits@KPAVIData@@U?$less@K@std@@V?$allocator@U?$pair@$$CBKPAVIData@@@std@@@3@$0A@@std@@@std@@QBEPAU_Node@?$_Tree_nod@V?$_Tmap_traits@KPAVIData@@U?$less@K@std@@V?$allocator@U?$pair@$$CBKPAVIData@@@std@@@3@$0A@@std@@@3@XZ ; std::_Tree<std::_Tmap_traits<unsigned long,IData *,std::less<unsigned long>,std::allocator<std::pair<unsigned long const ,IData *> >,0> >::const_iterator::_Mynode
  00437	50		 push	 eax
  00438	e8 00 00 00 00	 call	 ?_Key@?$_Tree@V?$_Tmap_traits@KPAVIData@@U?$less@K@std@@V?$allocator@U?$pair@$$CBKPAVIData@@@std@@@3@$0A@@std@@@std@@KAABKPAU_Node@?$_Tree_nod@V?$_Tmap_traits@KPAVIData@@U?$less@K@std@@V?$allocator@U?$pair@$$CBKPAVIData@@@std@@@3@$0A@@std@@@2@@Z ; std::_Tree<std::_Tmap_traits<unsigned long,IData *,std::less<unsigned long>,std::allocator<std::pair<unsigned long const ,IData *> >,0> >::_Key
  0043d	83 c4 04	 add	 esp, 4
  00440	50		 push	 eax
  00441	8b 4d d8	 mov	 ecx, DWORD PTR _this$[ebp]
  00444	e8 00 00 00 00	 call	 ??R?$less@K@std@@QBE_NABK0@Z ; std::less<unsigned long>::operator()
  00449	0f b6 c8	 movzx	 ecx, al
  0044c	85 c9		 test	 ecx, ecx
  0044e	74 69		 je	 SHORT $L199485

; 561  : 				{	// insert before _Where
; 562  : 				if (_Isnil(_Right(_Next._Mynode())))

  00450	8d 4d fc	 lea	 ecx, DWORD PTR __Next$[ebp]
  00453	e8 00 00 00 00	 call	 ?_Mynode@const_iterator@?$_Tree@V?$_Tmap_traits@KPAVIData@@U?$less@K@std@@V?$allocator@U?$pair@$$CBKPAVIData@@@std@@@3@$0A@@std@@@std@@QBEPAU_Node@?$_Tree_nod@V?$_Tmap_traits@KPAVIData@@U?$less@K@std@@V?$allocator@U?$pair@$$CBKPAVIData@@@std@@@3@$0A@@std@@@3@XZ ; std::_Tree<std::_Tmap_traits<unsigned long,IData *,std::less<unsigned long>,std::allocator<std::pair<unsigned long const ,IData *> >,0> >::const_iterator::_Mynode
  00458	50		 push	 eax
  00459	e8 00 00 00 00	 call	 ?_Right@?$_Tree@V?$_Tmap_traits@KPAVIData@@U?$less@K@std@@V?$allocator@U?$pair@$$CBKPAVIData@@@std@@@3@$0A@@std@@@std@@KAAAPAU_Node@?$_Tree_nod@V?$_Tmap_traits@KPAVIData@@U?$less@K@std@@V?$allocator@U?$pair@$$CBKPAVIData@@@std@@@3@$0A@@std@@@2@PAU342@@Z ; std::_Tree<std::_Tmap_traits<unsigned long,IData *,std::less<unsigned long>,std::allocator<std::pair<unsigned long const ,IData *> >,0> >::_Right
  0045e	83 c4 04	 add	 esp, 4
  00461	8b 10		 mov	 edx, DWORD PTR [eax]
  00463	52		 push	 edx
  00464	e8 00 00 00 00	 call	 ?_Isnil@?$_Tree@V?$_Tmap_traits@KPAVIData@@U?$less@K@std@@V?$allocator@U?$pair@$$CBKPAVIData@@@std@@@3@$0A@@std@@@std@@KAAADPAU_Node@?$_Tree_nod@V?$_Tmap_traits@KPAVIData@@U?$less@K@std@@V?$allocator@U?$pair@$$CBKPAVIData@@@std@@@3@$0A@@std@@@2@@Z ; std::_Tree<std::_Tmap_traits<unsigned long,IData *,std::less<unsigned long>,std::allocator<std::pair<unsigned long const ,IData *> >,0> >::_Isnil
  00469	83 c4 04	 add	 esp, 4
  0046c	0f be 00	 movsx	 eax, BYTE PTR [eax]
  0046f	85 c0		 test	 eax, eax
  00471	74 23		 je	 SHORT $L199486

; 563  : 					return (_Insert(false, _Next._Mynode(), _Val));

  00473	8b 4d 10	 mov	 ecx, DWORD PTR __Val$[ebp]
  00476	51		 push	 ecx
  00477	8d 4d fc	 lea	 ecx, DWORD PTR __Next$[ebp]
  0047a	e8 00 00 00 00	 call	 ?_Mynode@const_iterator@?$_Tree@V?$_Tmap_traits@KPAVIData@@U?$less@K@std@@V?$allocator@U?$pair@$$CBKPAVIData@@@std@@@3@$0A@@std@@@std@@QBEPAU_Node@?$_Tree_nod@V?$_Tmap_traits@KPAVIData@@U?$less@K@std@@V?$allocator@U?$pair@$$CBKPAVIData@@@std@@@3@$0A@@std@@@3@XZ ; std::_Tree<std::_Tmap_traits<unsigned long,IData *,std::less<unsigned long>,std::allocator<std::pair<unsigned long const ,IData *> >,0> >::const_iterator::_Mynode
  0047f	50		 push	 eax
  00480	6a 00		 push	 0
  00482	8b 55 08	 mov	 edx, DWORD PTR ___$ReturnUdt$[ebp]
  00485	52		 push	 edx
  00486	8b 4d d8	 mov	 ecx, DWORD PTR _this$[ebp]
  00489	e8 00 00 00 00	 call	 ?_Insert@?$_Tree@V?$_Tmap_traits@KPAVIData@@U?$less@K@std@@V?$allocator@U?$pair@$$CBKPAVIData@@@std@@@3@$0A@@std@@@std@@IAE?AViterator@12@_NPAU_Node@?$_Tree_nod@V?$_Tmap_traits@KPAVIData@@U?$less@K@std@@V?$allocator@U?$pair@$$CBKPAVIData@@@std@@@3@$0A@@std@@@2@ABU?$pair@$$CBKPAVIData@@@2@@Z ; std::_Tree<std::_Tmap_traits<unsigned long,IData *,std::less<unsigned long>,std::allocator<std::pair<unsigned long const ,IData *> >,0> >::_Insert
  0048e	8b 45 08	 mov	 eax, DWORD PTR ___$ReturnUdt$[ebp]
  00491	e9 29 01 00 00	 jmp	 $L199445
$L199486:

; 564  : 				else
; 565  : 					return (_Insert(true, _Where._Mynode(), _Val));

  00496	8b 45 10	 mov	 eax, DWORD PTR __Val$[ebp]
  00499	50		 push	 eax
  0049a	8d 4d 0c	 lea	 ecx, DWORD PTR __Where$[ebp]
  0049d	e8 00 00 00 00	 call	 ?_Mynode@const_iterator@?$_Tree@V?$_Tmap_traits@KPAVIData@@U?$less@K@std@@V?$allocator@U?$pair@$$CBKPAVIData@@@std@@@3@$0A@@std@@@std@@QBEPAU_Node@?$_Tree_nod@V?$_Tmap_traits@KPAVIData@@U?$less@K@std@@V?$allocator@U?$pair@$$CBKPAVIData@@@std@@@3@$0A@@std@@@3@XZ ; std::_Tree<std::_Tmap_traits<unsigned long,IData *,std::less<unsigned long>,std::allocator<std::pair<unsigned long const ,IData *> >,0> >::const_iterator::_Mynode
  004a2	50		 push	 eax
  004a3	6a 01		 push	 1
  004a5	8b 4d 08	 mov	 ecx, DWORD PTR ___$ReturnUdt$[ebp]
  004a8	51		 push	 ecx
  004a9	8b 4d d8	 mov	 ecx, DWORD PTR _this$[ebp]
  004ac	e8 00 00 00 00	 call	 ?_Insert@?$_Tree@V?$_Tmap_traits@KPAVIData@@U?$less@K@std@@V?$allocator@U?$pair@$$CBKPAVIData@@@std@@@3@$0A@@std@@@std@@IAE?AViterator@12@_NPAU_Node@?$_Tree_nod@V?$_Tmap_traits@KPAVIData@@U?$less@K@std@@V?$allocator@U?$pair@$$CBKPAVIData@@@std@@@3@$0A@@std@@@2@ABU?$pair@$$CBKPAVIData@@@2@@Z ; std::_Tree<std::_Tmap_traits<unsigned long,IData *,std::less<unsigned long>,std::allocator<std::pair<unsigned long const ,IData *> >,0> >::_Insert
  004b1	8b 45 08	 mov	 eax, DWORD PTR ___$ReturnUdt$[ebp]
  004b4	e9 06 01 00 00	 jmp	 $L199445
$L199485:

; 566  : 				}
; 567  : 			else if (this->comp(_Key(_Where._Mynode()), this->_Kfn(_Val))
; 568  : 				&& (++(_Next = _Where) == end()
; 569  : 					|| this->comp(this->_Kfn(_Val),
; 570  : 						_Key(_Next._Mynode()))))

  004b9	8b 55 10	 mov	 edx, DWORD PTR __Val$[ebp]
  004bc	52		 push	 edx
  004bd	e8 00 00 00 00	 call	 ?_Kfn@?$_Tmap_traits@KPAVIData@@U?$less@K@std@@V?$allocator@U?$pair@$$CBKPAVIData@@@std@@@3@$0A@@std@@SAABKABU?$pair@$$CBKPAVIData@@@2@@Z ; std::_Tmap_traits<unsigned long,IData *,std::less<unsigned long>,std::allocator<std::pair<unsigned long const ,IData *> >,0>::_Kfn
  004c2	83 c4 04	 add	 esp, 4
  004c5	50		 push	 eax
  004c6	8d 4d 0c	 lea	 ecx, DWORD PTR __Where$[ebp]
  004c9	e8 00 00 00 00	 call	 ?_Mynode@const_iterator@?$_Tree@V?$_Tmap_traits@KPAVIData@@U?$less@K@std@@V?$allocator@U?$pair@$$CBKPAVIData@@@std@@@3@$0A@@std@@@std@@QBEPAU_Node@?$_Tree_nod@V?$_Tmap_traits@KPAVIData@@U?$less@K@std@@V?$allocator@U?$pair@$$CBKPAVIData@@@std@@@3@$0A@@std@@@3@XZ ; std::_Tree<std::_Tmap_traits<unsigned long,IData *,std::less<unsigned long>,std::allocator<std::pair<unsigned long const ,IData *> >,0> >::const_iterator::_Mynode
  004ce	50		 push	 eax
  004cf	e8 00 00 00 00	 call	 ?_Key@?$_Tree@V?$_Tmap_traits@KPAVIData@@U?$less@K@std@@V?$allocator@U?$pair@$$CBKPAVIData@@@std@@@3@$0A@@std@@@std@@KAABKPAU_Node@?$_Tree_nod@V?$_Tmap_traits@KPAVIData@@U?$less@K@std@@V?$allocator@U?$pair@$$CBKPAVIData@@@std@@@3@$0A@@std@@@2@@Z ; std::_Tree<std::_Tmap_traits<unsigned long,IData *,std::less<unsigned long>,std::allocator<std::pair<unsigned long const ,IData *> >,0> >::_Key
  004d4	83 c4 04	 add	 esp, 4
  004d7	50		 push	 eax
  004d8	8b 4d d8	 mov	 ecx, DWORD PTR _this$[ebp]
  004db	e8 00 00 00 00	 call	 ??R?$less@K@std@@QBE_NABK0@Z ; std::less<unsigned long>::operator()
  004e0	0f b6 c0	 movzx	 eax, al
  004e3	85 c0		 test	 eax, eax
  004e5	0f 84 ba 00 00
	00		 je	 $L199449
  004eb	8b 4d 0c	 mov	 ecx, DWORD PTR __Where$[ebp]
  004ee	89 4d fc	 mov	 DWORD PTR __Next$[ebp], ecx
  004f1	8d 55 e4	 lea	 edx, DWORD PTR $T200608[ebp]
  004f4	52		 push	 edx
  004f5	8b 4d d8	 mov	 ecx, DWORD PTR _this$[ebp]
  004f8	e8 00 00 00 00	 call	 ?end@?$_Tree@V?$_Tmap_traits@KPAVIData@@U?$less@K@std@@V?$allocator@U?$pair@$$CBKPAVIData@@@std@@@3@$0A@@std@@@std@@QAE?AViterator@12@XZ ; std::_Tree<std::_Tmap_traits<unsigned long,IData *,std::less<unsigned long>,std::allocator<std::pair<unsigned long const ,IData *> >,0> >::end
  004fd	50		 push	 eax
  004fe	8d 4d fc	 lea	 ecx, DWORD PTR __Next$[ebp]
  00501	e8 00 00 00 00	 call	 ??Eiterator@?$_Tree@V?$_Tmap_traits@KPAVIData@@U?$less@K@std@@V?$allocator@U?$pair@$$CBKPAVIData@@@std@@@3@$0A@@std@@@std@@QAEAAV012@XZ ; std::_Tree<std::_Tmap_traits<unsigned long,IData *,std::less<unsigned long>,std::allocator<std::pair<unsigned long const ,IData *> >,0> >::iterator::operator++
  00506	8b c8		 mov	 ecx, eax
  00508	e8 00 00 00 00	 call	 ??8const_iterator@?$_Tree@V?$_Tmap_traits@KPAVIData@@U?$less@K@std@@V?$allocator@U?$pair@$$CBKPAVIData@@@std@@@3@$0A@@std@@@std@@QBE_NABV012@@Z ; std::_Tree<std::_Tmap_traits<unsigned long,IData *,std::less<unsigned long>,std::allocator<std::pair<unsigned long const ,IData *> >,0> >::const_iterator::operator==
  0050d	0f b6 c0	 movzx	 eax, al
  00510	85 c0		 test	 eax, eax
  00512	75 2e		 jne	 SHORT $L199493
  00514	8d 4d fc	 lea	 ecx, DWORD PTR __Next$[ebp]
  00517	e8 00 00 00 00	 call	 ?_Mynode@const_iterator@?$_Tree@V?$_Tmap_traits@KPAVIData@@U?$less@K@std@@V?$allocator@U?$pair@$$CBKPAVIData@@@std@@@3@$0A@@std@@@std@@QBEPAU_Node@?$_Tree_nod@V?$_Tmap_traits@KPAVIData@@U?$less@K@std@@V?$allocator@U?$pair@$$CBKPAVIData@@@std@@@3@$0A@@std@@@3@XZ ; std::_Tree<std::_Tmap_traits<unsigned long,IData *,std::less<unsigned long>,std::allocator<std::pair<unsigned long const ,IData *> >,0> >::const_iterator::_Mynode
  0051c	50		 push	 eax
  0051d	e8 00 00 00 00	 call	 ?_Key@?$_Tree@V?$_Tmap_traits@KPAVIData@@U?$less@K@std@@V?$allocator@U?$pair@$$CBKPAVIData@@@std@@@3@$0A@@std@@@std@@KAABKPAU_Node@?$_Tree_nod@V?$_Tmap_traits@KPAVIData@@U?$less@K@std@@V?$allocator@U?$pair@$$CBKPAVIData@@@std@@@3@$0A@@std@@@2@@Z ; std::_Tree<std::_Tmap_traits<unsigned long,IData *,std::less<unsigned long>,std::allocator<std::pair<unsigned long const ,IData *> >,0> >::_Key
  00522	83 c4 04	 add	 esp, 4
  00525	50		 push	 eax
  00526	8b 4d 10	 mov	 ecx, DWORD PTR __Val$[ebp]
  00529	51		 push	 ecx
  0052a	e8 00 00 00 00	 call	 ?_Kfn@?$_Tmap_traits@KPAVIData@@U?$less@K@std@@V?$allocator@U?$pair@$$CBKPAVIData@@@std@@@3@$0A@@std@@SAABKABU?$pair@$$CBKPAVIData@@@2@@Z ; std::_Tmap_traits<unsigned long,IData *,std::less<unsigned long>,std::allocator<std::pair<unsigned long const ,IData *> >,0>::_Kfn
  0052f	83 c4 04	 add	 esp, 4
  00532	50		 push	 eax
  00533	8b 4d d8	 mov	 ecx, DWORD PTR _this$[ebp]
  00536	e8 00 00 00 00	 call	 ??R?$less@K@std@@QBE_NABK0@Z ; std::less<unsigned long>::operator()
  0053b	0f b6 d0	 movzx	 edx, al
  0053e	85 d2		 test	 edx, edx
  00540	74 63		 je	 SHORT $L199449
$L199493:

; 571  : 				{	// insert after _Where
; 572  : 				if (_Isnil(_Right(_Where._Mynode())))

  00542	8d 4d 0c	 lea	 ecx, DWORD PTR __Where$[ebp]
  00545	e8 00 00 00 00	 call	 ?_Mynode@const_iterator@?$_Tree@V?$_Tmap_traits@KPAVIData@@U?$less@K@std@@V?$allocator@U?$pair@$$CBKPAVIData@@@std@@@3@$0A@@std@@@std@@QBEPAU_Node@?$_Tree_nod@V?$_Tmap_traits@KPAVIData@@U?$less@K@std@@V?$allocator@U?$pair@$$CBKPAVIData@@@std@@@3@$0A@@std@@@3@XZ ; std::_Tree<std::_Tmap_traits<unsigned long,IData *,std::less<unsigned long>,std::allocator<std::pair<unsigned long const ,IData *> >,0> >::const_iterator::_Mynode
  0054a	50		 push	 eax
  0054b	e8 00 00 00 00	 call	 ?_Right@?$_Tree@V?$_Tmap_traits@KPAVIData@@U?$less@K@std@@V?$allocator@U?$pair@$$CBKPAVIData@@@std@@@3@$0A@@std@@@std@@KAAAPAU_Node@?$_Tree_nod@V?$_Tmap_traits@KPAVIData@@U?$less@K@std@@V?$allocator@U?$pair@$$CBKPAVIData@@@std@@@3@$0A@@std@@@2@PAU342@@Z ; std::_Tree<std::_Tmap_traits<unsigned long,IData *,std::less<unsigned long>,std::allocator<std::pair<unsigned long const ,IData *> >,0> >::_Right
  00550	83 c4 04	 add	 esp, 4
  00553	8b 00		 mov	 eax, DWORD PTR [eax]
  00555	50		 push	 eax
  00556	e8 00 00 00 00	 call	 ?_Isnil@?$_Tree@V?$_Tmap_traits@KPAVIData@@U?$less@K@std@@V?$allocator@U?$pair@$$CBKPAVIData@@@std@@@3@$0A@@std@@@std@@KAAADPAU_Node@?$_Tree_nod@V?$_Tmap_traits@KPAVIData@@U?$less@K@std@@V?$allocator@U?$pair@$$CBKPAVIData@@@std@@@3@$0A@@std@@@2@@Z ; std::_Tree<std::_Tmap_traits<unsigned long,IData *,std::less<unsigned long>,std::allocator<std::pair<unsigned long const ,IData *> >,0> >::_Isnil
  0055b	83 c4 04	 add	 esp, 4
  0055e	0f be 08	 movsx	 ecx, BYTE PTR [eax]
  00561	85 c9		 test	 ecx, ecx
  00563	74 20		 je	 SHORT $L199494

; 573  : 					return (_Insert(false, _Where._Mynode(), _Val));

  00565	8b 55 10	 mov	 edx, DWORD PTR __Val$[ebp]
  00568	52		 push	 edx
  00569	8d 4d 0c	 lea	 ecx, DWORD PTR __Where$[ebp]
  0056c	e8 00 00 00 00	 call	 ?_Mynode@const_iterator@?$_Tree@V?$_Tmap_traits@KPAVIData@@U?$less@K@std@@V?$allocator@U?$pair@$$CBKPAVIData@@@std@@@3@$0A@@std@@@std@@QBEPAU_Node@?$_Tree_nod@V?$_Tmap_traits@KPAVIData@@U?$less@K@std@@V?$allocator@U?$pair@$$CBKPAVIData@@@std@@@3@$0A@@std@@@3@XZ ; std::_Tree<std::_Tmap_traits<unsigned long,IData *,std::less<unsigned long>,std::allocator<std::pair<unsigned long const ,IData *> >,0> >::const_iterator::_Mynode
  00571	50		 push	 eax
  00572	6a 00		 push	 0
  00574	8b 45 08	 mov	 eax, DWORD PTR ___$ReturnUdt$[ebp]
  00577	50		 push	 eax
  00578	8b 4d d8	 mov	 ecx, DWORD PTR _this$[ebp]
  0057b	e8 00 00 00 00	 call	 ?_Insert@?$_Tree@V?$_Tmap_traits@KPAVIData@@U?$less@K@std@@V?$allocator@U?$pair@$$CBKPAVIData@@@std@@@3@$0A@@std@@@std@@IAE?AViterator@12@_NPAU_Node@?$_Tree_nod@V?$_Tmap_traits@KPAVIData@@U?$less@K@std@@V?$allocator@U?$pair@$$CBKPAVIData@@@std@@@3@$0A@@std@@@2@ABU?$pair@$$CBKPAVIData@@@2@@Z ; std::_Tree<std::_Tmap_traits<unsigned long,IData *,std::less<unsigned long>,std::allocator<std::pair<unsigned long const ,IData *> >,0> >::_Insert
  00580	8b 45 08	 mov	 eax, DWORD PTR ___$ReturnUdt$[ebp]
  00583	eb 3a		 jmp	 SHORT $L199445
$L199494:

; 574  : 				else
; 575  : 					return (_Insert(true, _Next._Mynode(), _Val));

  00585	8b 4d 10	 mov	 ecx, DWORD PTR __Val$[ebp]
  00588	51		 push	 ecx
  00589	8d 4d fc	 lea	 ecx, DWORD PTR __Next$[ebp]
  0058c	e8 00 00 00 00	 call	 ?_Mynode@const_iterator@?$_Tree@V?$_Tmap_traits@KPAVIData@@U?$less@K@std@@V?$allocator@U?$pair@$$CBKPAVIData@@@std@@@3@$0A@@std@@@std@@QBEPAU_Node@?$_Tree_nod@V?$_Tmap_traits@KPAVIData@@U?$less@K@std@@V?$allocator@U?$pair@$$CBKPAVIData@@@std@@@3@$0A@@std@@@3@XZ ; std::_Tree<std::_Tmap_traits<unsigned long,IData *,std::less<unsigned long>,std::allocator<std::pair<unsigned long const ,IData *> >,0> >::const_iterator::_Mynode
  00591	50		 push	 eax
  00592	6a 01		 push	 1
  00594	8b 55 08	 mov	 edx, DWORD PTR ___$ReturnUdt$[ebp]
  00597	52		 push	 edx
  00598	8b 4d d8	 mov	 ecx, DWORD PTR _this$[ebp]
  0059b	e8 00 00 00 00	 call	 ?_Insert@?$_Tree@V?$_Tmap_traits@KPAVIData@@U?$less@K@std@@V?$allocator@U?$pair@$$CBKPAVIData@@@std@@@3@$0A@@std@@@std@@IAE?AViterator@12@_NPAU_Node@?$_Tree_nod@V?$_Tmap_traits@KPAVIData@@U?$less@K@std@@V?$allocator@U?$pair@$$CBKPAVIData@@@std@@@3@$0A@@std@@@2@ABU?$pair@$$CBKPAVIData@@@2@@Z ; std::_Tree<std::_Tmap_traits<unsigned long,IData *,std::less<unsigned long>,std::allocator<std::pair<unsigned long const ,IData *> >,0> >::_Insert
  005a0	8b 45 08	 mov	 eax, DWORD PTR ___$ReturnUdt$[ebp]
  005a3	eb 1a		 jmp	 SHORT $L199445
$L199449:

; 576  : 				}
; 577  : 			}
; 578  : 
; 579  : 		return (insert(_Val).first);	// try usual insert if all else fails

  005a5	8b 45 10	 mov	 eax, DWORD PTR __Val$[ebp]
  005a8	50		 push	 eax
  005a9	8d 4d dc	 lea	 ecx, DWORD PTR $T200609[ebp]
  005ac	51		 push	 ecx
  005ad	8b 4d d8	 mov	 ecx, DWORD PTR _this$[ebp]
  005b0	e8 00 00 00 00	 call	 ?insert@?$_Tree@V?$_Tmap_traits@KPAVIData@@U?$less@K@std@@V?$allocator@U?$pair@$$CBKPAVIData@@@std@@@3@$0A@@std@@@std@@QAE?AU?$pair@Viterator@?$_Tree@V?$_Tmap_traits@KPAVIData@@U?$less@K@std@@V?$allocator@U?$pair@$$CBKPAVIData@@@std@@@3@$0A@@std@@@std@@_N@2@ABU?$pair@$$CBKPAVIData@@@2@@Z ; std::_Tree<std::_Tmap_traits<unsigned long,IData *,std::less<unsigned long>,std::allocator<std::pair<unsigned long const ,IData *> >,0> >::insert
  005b5	8b 10		 mov	 edx, DWORD PTR [eax]
  005b7	8b 45 08	 mov	 eax, DWORD PTR ___$ReturnUdt$[ebp]
  005ba	89 10		 mov	 DWORD PTR [eax], edx
  005bc	8b 45 08	 mov	 eax, DWORD PTR ___$ReturnUdt$[ebp]
$L199445:

; 580  : 		}

  005bf	8b e5		 mov	 esp, ebp
  005c1	5d		 pop	 ebp
  005c2	c2 0c 00	 ret	 12			; 0000000cH
?insert@?$_Tree@V?$_Tmap_traits@KPAVIData@@U?$less@K@std@@V?$allocator@U?$pair@$$CBKPAVIData@@@std@@@3@$0A@@std@@@std@@QAE?AViterator@12@V312@ABU?$pair@$$CBKPAVIData@@@2@@Z ENDP ; std::_Tree<std::_Tmap_traits<unsigned long,IData *,std::less<unsigned long>,std::allocator<std::pair<unsigned long const ,IData *> >,0> >::insert
_TEXT	ENDS
PUBLIC	?erase@?$_Tree@V?$_Tmap_traits@KPAVIData@@U?$less@K@std@@V?$allocator@U?$pair@$$CBKPAVIData@@@std@@@3@$0A@@std@@@std@@QAE?AViterator@12@V312@@Z ; std::_Tree<std::_Tmap_traits<unsigned long,IData *,std::less<unsigned long>,std::allocator<std::pair<unsigned long const ,IData *> >,0> >::erase
; Function compile flags: /Odt
;	COMDAT ?erase@?$_Tree@V?$_Tmap_traits@KPAVIData@@U?$less@K@std@@V?$allocator@U?$pair@$$CBKPAVIData@@@std@@@3@$0A@@std@@@std@@QAE?AViterator@12@V312@0@Z
_TEXT	SEGMENT
_this$ = -20						; size = 4
$T200615 = -16						; size = 4
$T200614 = -12						; size = 4
$T200613 = -8						; size = 4
$T200612 = -4						; size = 4
___$ReturnUdt$ = 8					; size = 4
__First$ = 12						; size = 4
__Last$ = 16						; size = 4
?erase@?$_Tree@V?$_Tmap_traits@KPAVIData@@U?$less@K@std@@V?$allocator@U?$pair@$$CBKPAVIData@@@std@@@3@$0A@@std@@@std@@QAE?AViterator@12@V312@0@Z PROC NEAR ; std::_Tree<std::_Tmap_traits<unsigned long,IData *,std::less<unsigned long>,std::allocator<std::pair<unsigned long const ,IData *> >,0> >::erase, COMDAT
; _this$ = ecx

; 750  : 		{	// erase [_First, _Last)

  00000	55		 push	 ebp
  00001	8b ec		 mov	 ebp, esp
  00003	83 ec 14	 sub	 esp, 20			; 00000014H
  00006	89 4d ec	 mov	 DWORD PTR _this$[ebp], ecx

; 751  : 		if (_First == begin() && _Last == end())

  00009	8d 45 fc	 lea	 eax, DWORD PTR $T200612[ebp]
  0000c	50		 push	 eax
  0000d	8b 4d ec	 mov	 ecx, DWORD PTR _this$[ebp]
  00010	e8 00 00 00 00	 call	 ?begin@?$_Tree@V?$_Tmap_traits@KPAVIData@@U?$less@K@std@@V?$allocator@U?$pair@$$CBKPAVIData@@@std@@@3@$0A@@std@@@std@@QAE?AViterator@12@XZ ; std::_Tree<std::_Tmap_traits<unsigned long,IData *,std::less<unsigned long>,std::allocator<std::pair<unsigned long const ,IData *> >,0> >::begin
  00015	50		 push	 eax
  00016	8d 4d 0c	 lea	 ecx, DWORD PTR __First$[ebp]
  00019	e8 00 00 00 00	 call	 ??8const_iterator@?$_Tree@V?$_Tmap_traits@KPAVIData@@U?$less@K@std@@V?$allocator@U?$pair@$$CBKPAVIData@@@std@@@3@$0A@@std@@@std@@QBE_NABV012@@Z ; std::_Tree<std::_Tmap_traits<unsigned long,IData *,std::less<unsigned long>,std::allocator<std::pair<unsigned long const ,IData *> >,0> >::const_iterator::operator==
  0001e	0f b6 c8	 movzx	 ecx, al
  00021	85 c9		 test	 ecx, ecx
  00023	74 35		 je	 SHORT $L199528
  00025	8d 55 f8	 lea	 edx, DWORD PTR $T200613[ebp]
  00028	52		 push	 edx
  00029	8b 4d ec	 mov	 ecx, DWORD PTR _this$[ebp]
  0002c	e8 00 00 00 00	 call	 ?end@?$_Tree@V?$_Tmap_traits@KPAVIData@@U?$less@K@std@@V?$allocator@U?$pair@$$CBKPAVIData@@@std@@@3@$0A@@std@@@std@@QAE?AViterator@12@XZ ; std::_Tree<std::_Tmap_traits<unsigned long,IData *,std::less<unsigned long>,std::allocator<std::pair<unsigned long const ,IData *> >,0> >::end
  00031	50		 push	 eax
  00032	8d 4d 10	 lea	 ecx, DWORD PTR __Last$[ebp]
  00035	e8 00 00 00 00	 call	 ??8const_iterator@?$_Tree@V?$_Tmap_traits@KPAVIData@@U?$less@K@std@@V?$allocator@U?$pair@$$CBKPAVIData@@@std@@@3@$0A@@std@@@std@@QBE_NABV012@@Z ; std::_Tree<std::_Tmap_traits<unsigned long,IData *,std::less<unsigned long>,std::allocator<std::pair<unsigned long const ,IData *> >,0> >::const_iterator::operator==
  0003a	0f b6 c0	 movzx	 eax, al
  0003d	85 c0		 test	 eax, eax
  0003f	74 19		 je	 SHORT $L199528

; 752  : 			{	// erase all
; 753  : 			clear();

  00041	8b 4d ec	 mov	 ecx, DWORD PTR _this$[ebp]
  00044	e8 00 00 00 00	 call	 ?clear@?$_Tree@V?$_Tmap_traits@KPAVIData@@U?$less@K@std@@V?$allocator@U?$pair@$$CBKPAVIData@@@std@@@3@$0A@@std@@@std@@QAEXXZ ; std::_Tree<std::_Tmap_traits<unsigned long,IData *,std::less<unsigned long>,std::allocator<std::pair<unsigned long const ,IData *> >,0> >::clear

; 754  : 			return (begin());

  00049	8b 4d 08	 mov	 ecx, DWORD PTR ___$ReturnUdt$[ebp]
  0004c	51		 push	 ecx
  0004d	8b 4d ec	 mov	 ecx, DWORD PTR _this$[ebp]
  00050	e8 00 00 00 00	 call	 ?begin@?$_Tree@V?$_Tmap_traits@KPAVIData@@U?$less@K@std@@V?$allocator@U?$pair@$$CBKPAVIData@@@std@@@3@$0A@@std@@@std@@QAE?AViterator@12@XZ ; std::_Tree<std::_Tmap_traits<unsigned long,IData *,std::less<unsigned long>,std::allocator<std::pair<unsigned long const ,IData *> >,0> >::begin
  00055	8b 45 08	 mov	 eax, DWORD PTR ___$ReturnUdt$[ebp]
  00058	eb 3d		 jmp	 SHORT $L199521
$L199528:

; 755  : 			}
; 756  : 		else
; 757  : 			{	// partial erase, one at a time
; 758  : 			while (_First != _Last)

  0005a	8d 55 10	 lea	 edx, DWORD PTR __Last$[ebp]
  0005d	52		 push	 edx
  0005e	8d 4d 0c	 lea	 ecx, DWORD PTR __First$[ebp]
  00061	e8 00 00 00 00	 call	 ??9const_iterator@?$_Tree@V?$_Tmap_traits@KPAVIData@@U?$less@K@std@@V?$allocator@U?$pair@$$CBKPAVIData@@@std@@@3@$0A@@std@@@std@@QBE_NABV012@@Z ; std::_Tree<std::_Tmap_traits<unsigned long,IData *,std::less<unsigned long>,std::allocator<std::pair<unsigned long const ,IData *> >,0> >::const_iterator::operator!=
  00066	0f b6 c0	 movzx	 eax, al
  00069	85 c0		 test	 eax, eax
  0006b	74 1f		 je	 SHORT $L199529

; 759  : 				erase(_First++);

  0006d	6a 00		 push	 0
  0006f	8d 4d f4	 lea	 ecx, DWORD PTR $T200614[ebp]
  00072	51		 push	 ecx
  00073	8d 4d 0c	 lea	 ecx, DWORD PTR __First$[ebp]
  00076	e8 00 00 00 00	 call	 ??Eiterator@?$_Tree@V?$_Tmap_traits@KPAVIData@@U?$less@K@std@@V?$allocator@U?$pair@$$CBKPAVIData@@@std@@@3@$0A@@std@@@std@@QAE?AV012@H@Z ; std::_Tree<std::_Tmap_traits<unsigned long,IData *,std::less<unsigned long>,std::allocator<std::pair<unsigned long const ,IData *> >,0> >::iterator::operator++
  0007b	8b 10		 mov	 edx, DWORD PTR [eax]
  0007d	52		 push	 edx
  0007e	8d 45 f0	 lea	 eax, DWORD PTR $T200615[ebp]
  00081	50		 push	 eax
  00082	8b 4d ec	 mov	 ecx, DWORD PTR _this$[ebp]
  00085	e8 00 00 00 00	 call	 ?erase@?$_Tree@V?$_Tmap_traits@KPAVIData@@U?$less@K@std@@V?$allocator@U?$pair@$$CBKPAVIData@@@std@@@3@$0A@@std@@@std@@QAE?AViterator@12@V312@@Z ; std::_Tree<std::_Tmap_traits<unsigned long,IData *,std::less<unsigned long>,std::allocator<std::pair<unsigned long const ,IData *> >,0> >::erase
  0008a	eb ce		 jmp	 SHORT $L199528
$L199529:

; 760  : 			return (_First);

  0008c	8b 4d 08	 mov	 ecx, DWORD PTR ___$ReturnUdt$[ebp]
  0008f	8b 55 0c	 mov	 edx, DWORD PTR __First$[ebp]
  00092	89 11		 mov	 DWORD PTR [ecx], edx
  00094	8b 45 08	 mov	 eax, DWORD PTR ___$ReturnUdt$[ebp]
$L199521:

; 761  : 			}
; 762  : 		}

  00097	8b e5		 mov	 esp, ebp
  00099	5d		 pop	 ebp
  0009a	c2 0c 00	 ret	 12			; 0000000cH
?erase@?$_Tree@V?$_Tmap_traits@KPAVIData@@U?$less@K@std@@V?$allocator@U?$pair@$$CBKPAVIData@@@std@@@3@$0A@@std@@@std@@QAE?AViterator@12@V312@0@Z ENDP ; std::_Tree<std::_Tmap_traits<unsigned long,IData *,std::less<unsigned long>,std::allocator<std::pair<unsigned long const ,IData *> >,0> >::erase
_TEXT	ENDS
PUBLIC	?_Lbound@?$_Tree@V?$_Tmap_traits@KPAVIData@@U?$less@K@std@@V?$allocator@U?$pair@$$CBKPAVIData@@@std@@@3@$0A@@std@@@std@@IBEPAU_Node@?$_Tree_nod@V?$_Tmap_traits@KPAVIData@@U?$less@K@std@@V?$allocator@U?$pair@$$CBKPAVIData@@@std@@@3@$0A@@std@@@2@ABK@Z ; std::_Tree<std::_Tmap_traits<unsigned long,IData *,std::less<unsigned long>,std::allocator<std::pair<unsigned long const ,IData *> >,0> >::_Lbound
; Function compile flags: /Odt
;	COMDAT ?lower_bound@?$_Tree@V?$_Tmap_traits@KPAVIData@@U?$less@K@std@@V?$allocator@U?$pair@$$CBKPAVIData@@@std@@@3@$0A@@std@@@std@@QAE?AViterator@12@ABK@Z
_TEXT	SEGMENT
_this$ = -4						; size = 4
___$ReturnUdt$ = 8					; size = 4
__Keyval$ = 12						; size = 4
?lower_bound@?$_Tree@V?$_Tmap_traits@KPAVIData@@U?$less@K@std@@V?$allocator@U?$pair@$$CBKPAVIData@@@std@@@3@$0A@@std@@@std@@QAE?AViterator@12@ABK@Z PROC NEAR ; std::_Tree<std::_Tmap_traits<unsigned long,IData *,std::less<unsigned long>,std::allocator<std::pair<unsigned long const ,IData *> >,0> >::lower_bound, COMDAT
; _this$ = ecx

; 809  : 		{	// find leftmost node not less than _Keyval in mutable tree

  00000	55		 push	 ebp
  00001	8b ec		 mov	 ebp, esp
  00003	51		 push	 ecx
  00004	89 4d fc	 mov	 DWORD PTR _this$[ebp], ecx

; 810  : 		return (_TREE_ITERATOR(_Lbound(_Keyval)));

  00007	8b 45 0c	 mov	 eax, DWORD PTR __Keyval$[ebp]
  0000a	50		 push	 eax
  0000b	8b 4d fc	 mov	 ecx, DWORD PTR _this$[ebp]
  0000e	e8 00 00 00 00	 call	 ?_Lbound@?$_Tree@V?$_Tmap_traits@KPAVIData@@U?$less@K@std@@V?$allocator@U?$pair@$$CBKPAVIData@@@std@@@3@$0A@@std@@@std@@IBEPAU_Node@?$_Tree_nod@V?$_Tmap_traits@KPAVIData@@U?$less@K@std@@V?$allocator@U?$pair@$$CBKPAVIData@@@std@@@3@$0A@@std@@@2@ABK@Z ; std::_Tree<std::_Tmap_traits<unsigned long,IData *,std::less<unsigned long>,std::allocator<std::pair<unsigned long const ,IData *> >,0> >::_Lbound
  00013	50		 push	 eax
  00014	8b 4d 08	 mov	 ecx, DWORD PTR ___$ReturnUdt$[ebp]
  00017	e8 00 00 00 00	 call	 ??0iterator@?$_Tree@V?$_Tmap_traits@KPAVIData@@U?$less@K@std@@V?$allocator@U?$pair@$$CBKPAVIData@@@std@@@3@$0A@@std@@@std@@QAE@PAU_Node@?$_Tree_nod@V?$_Tmap_traits@KPAVIData@@U?$less@K@std@@V?$allocator@U?$pair@$$CBKPAVIData@@@std@@@3@$0A@@std@@@2@@Z ; std::_Tree<std::_Tmap_traits<unsigned long,IData *,std::less<unsigned long>,std::allocator<std::pair<unsigned long const ,IData *> >,0> >::iterator::iterator
  0001c	8b 45 08	 mov	 eax, DWORD PTR ___$ReturnUdt$[ebp]

; 811  : 		}

  0001f	8b e5		 mov	 esp, ebp
  00021	5d		 pop	 ebp
  00022	c2 08 00	 ret	 8
?lower_bound@?$_Tree@V?$_Tmap_traits@KPAVIData@@U?$less@K@std@@V?$allocator@U?$pair@$$CBKPAVIData@@@std@@@3@$0A@@std@@@std@@QAE?AViterator@12@ABK@Z ENDP ; std::_Tree<std::_Tmap_traits<unsigned long,IData *,std::less<unsigned long>,std::allocator<std::pair<unsigned long const ,IData *> >,0> >::lower_bound
_TEXT	ENDS
PUBLIC	??0?$pair@Viterator@?$_Tree@V?$_Tmap_traits@KPAVIData@@U?$less@K@std@@V?$allocator@U?$pair@$$CBKPAVIData@@@std@@@3@$0A@@std@@@std@@V123@@std@@QAE@ABViterator@?$_Tree@V?$_Tmap_traits@KPAVIData@@U?$less@K@std@@V?$allocator@U?$pair@$$CBKPAVIData@@@std@@@3@$0A@@std@@@1@0@Z ; std::pair<std::_Tree<std::_Tmap_traits<unsigned long,IData *,std::less<unsigned long>,std::allocator<std::pair<unsigned long const ,IData *> >,0> >::iterator,std::_Tree<std::_Tmap_traits<unsigned long,IData *,std::less<unsigned long>,std::allocator<std::pair<unsigned long const ,IData *> >,0> >::iterator>::pair<std::_Tree<std::_Tmap_traits<unsigned long,IData *,std::less<unsigned long>,std::allocator<std::pair<unsigned long const ,IData *> >,0> >::iterator,std::_Tree<std::_Tmap_traits<unsigned long,IData *,std::less<unsigned long>,std::allocator<std::pair<unsigned long const ,IData *> >,0> >::iterator>
PUBLIC	?upper_bound@?$_Tree@V?$_Tmap_traits@KPAVIData@@U?$less@K@std@@V?$allocator@U?$pair@$$CBKPAVIData@@@std@@@3@$0A@@std@@@std@@QAE?AViterator@12@ABK@Z ; std::_Tree<std::_Tmap_traits<unsigned long,IData *,std::less<unsigned long>,std::allocator<std::pair<unsigned long const ,IData *> >,0> >::upper_bound
; Function compile flags: /Odt
;	COMDAT ?equal_range@?$_Tree@V?$_Tmap_traits@KPAVIData@@U?$less@K@std@@V?$allocator@U?$pair@$$CBKPAVIData@@@std@@@3@$0A@@std@@@std@@QAE?AU?$pair@Viterator@?$_Tree@V?$_Tmap_traits@KPAVIData@@U?$less@K@std@@V?$allocator@U?$pair@$$CBKPAVIData@@@std@@@3@$0A@@std@@@std@@V123@@2@ABK@Z
_TEXT	SEGMENT
_this$ = -12						; size = 4
$T200621 = -8						; size = 4
$T200620 = -4						; size = 4
___$ReturnUdt$ = 8					; size = 4
__Keyval$ = 12						; size = 4
?equal_range@?$_Tree@V?$_Tmap_traits@KPAVIData@@U?$less@K@std@@V?$allocator@U?$pair@$$CBKPAVIData@@@std@@@3@$0A@@std@@@std@@QAE?AU?$pair@Viterator@?$_Tree@V?$_Tmap_traits@KPAVIData@@U?$less@K@std@@V?$allocator@U?$pair@$$CBKPAVIData@@@std@@@3@$0A@@std@@@std@@V123@@2@ABK@Z PROC NEAR ; std::_Tree<std::_Tmap_traits<unsigned long,IData *,std::less<unsigned long>,std::allocator<std::pair<unsigned long const ,IData *> >,0> >::equal_range, COMDAT
; _this$ = ecx

; 829  : 		{	// find range equivalent to _Keyval in mutable tree

  00000	55		 push	 ebp
  00001	8b ec		 mov	 ebp, esp
  00003	83 ec 0c	 sub	 esp, 12			; 0000000cH
  00006	89 4d f4	 mov	 DWORD PTR _this$[ebp], ecx

; 830  : 		return (_Pairii(lower_bound(_Keyval), upper_bound(_Keyval)));

  00009	8b 45 0c	 mov	 eax, DWORD PTR __Keyval$[ebp]
  0000c	50		 push	 eax
  0000d	8d 4d fc	 lea	 ecx, DWORD PTR $T200620[ebp]
  00010	51		 push	 ecx
  00011	8b 4d f4	 mov	 ecx, DWORD PTR _this$[ebp]
  00014	e8 00 00 00 00	 call	 ?upper_bound@?$_Tree@V?$_Tmap_traits@KPAVIData@@U?$less@K@std@@V?$allocator@U?$pair@$$CBKPAVIData@@@std@@@3@$0A@@std@@@std@@QAE?AViterator@12@ABK@Z ; std::_Tree<std::_Tmap_traits<unsigned long,IData *,std::less<unsigned long>,std::allocator<std::pair<unsigned long const ,IData *> >,0> >::upper_bound
  00019	50		 push	 eax
  0001a	8b 55 0c	 mov	 edx, DWORD PTR __Keyval$[ebp]
  0001d	52		 push	 edx
  0001e	8d 45 f8	 lea	 eax, DWORD PTR $T200621[ebp]
  00021	50		 push	 eax
  00022	8b 4d f4	 mov	 ecx, DWORD PTR _this$[ebp]
  00025	e8 00 00 00 00	 call	 ?lower_bound@?$_Tree@V?$_Tmap_traits@KPAVIData@@U?$less@K@std@@V?$allocator@U?$pair@$$CBKPAVIData@@@std@@@3@$0A@@std@@@std@@QAE?AViterator@12@ABK@Z ; std::_Tree<std::_Tmap_traits<unsigned long,IData *,std::less<unsigned long>,std::allocator<std::pair<unsigned long const ,IData *> >,0> >::lower_bound
  0002a	50		 push	 eax
  0002b	8b 4d 08	 mov	 ecx, DWORD PTR ___$ReturnUdt$[ebp]
  0002e	e8 00 00 00 00	 call	 ??0?$pair@Viterator@?$_Tree@V?$_Tmap_traits@KPAVIData@@U?$less@K@std@@V?$allocator@U?$pair@$$CBKPAVIData@@@std@@@3@$0A@@std@@@std@@V123@@std@@QAE@ABViterator@?$_Tree@V?$_Tmap_traits@KPAVIData@@U?$less@K@std@@V?$allocator@U?$pair@$$CBKPAVIData@@@std@@@3@$0A@@std@@@1@0@Z ; std::pair<std::_Tree<std::_Tmap_traits<unsigned long,IData *,std::less<unsigned long>,std::allocator<std::pair<unsigned long const ,IData *> >,0> >::iterator,std::_Tree<std::_Tmap_traits<unsigned long,IData *,std::less<unsigned long>,std::allocator<std::pair<unsigned long const ,IData *> >,0> >::iterator>::pair<std::_Tree<std::_Tmap_traits<unsigned long,IData *,std::less<unsigned long>,std::allocator<std::pair<unsigned long const ,IData *> >,0> >::iterator,std::_Tree<std::_Tmap_traits<unsigned long,IData *,std::less<unsigned long>,std::allocator<std::pair<unsigned long const ,IData *> >,0> >::iterator>
  00033	8b 45 08	 mov	 eax, DWORD PTR ___$ReturnUdt$[ebp]

; 831  : 		}

  00036	8b e5		 mov	 esp, ebp
  00038	5d		 pop	 ebp
  00039	c2 08 00	 ret	 8
?equal_range@?$_Tree@V?$_Tmap_traits@KPAVIData@@U?$less@K@std@@V?$allocator@U?$pair@$$CBKPAVIData@@@std@@@3@$0A@@std@@@std@@QAE?AU?$pair@Viterator@?$_Tree@V?$_Tmap_traits@KPAVIData@@U?$less@K@std@@V?$allocator@U?$pair@$$CBKPAVIData@@@std@@@3@$0A@@std@@@std@@V123@@2@ABK@Z ENDP ; std::_Tree<std::_Tmap_traits<unsigned long,IData *,std::less<unsigned long>,std::allocator<std::pair<unsigned long const ,IData *> >,0> >::equal_range
_TEXT	ENDS
PUBLIC	?deallocate@?$allocator@U_Node@?$_Tree_nod@V?$_Tmap_traits@KPAVIData@@U?$less@K@std@@V?$allocator@U?$pair@$$CBKPAVIData@@@std@@@3@$0A@@std@@@std@@@std@@QAEXPAU_Node@?$_Tree_nod@V?$_Tmap_traits@KPAVIData@@U?$less@K@std@@V?$allocator@U?$pair@$$CBKPAVIData@@@std@@@3@$0A@@std@@@2@I@Z ; std::allocator<std::_Tree_nod<std::_Tmap_traits<unsigned long,IData *,std::less<unsigned long>,std::allocator<std::pair<unsigned long const ,IData *> >,0> >::_Node>::deallocate
PUBLIC	?destroy@?$allocator@U_Node@?$_Tree_nod@V?$_Tmap_traits@KPAVIData@@U?$less@K@std@@V?$allocator@U?$pair@$$CBKPAVIData@@@std@@@3@$0A@@std@@@std@@@std@@QAEXPAU_Node@?$_Tree_nod@V?$_Tmap_traits@KPAVIData@@U?$less@K@std@@V?$allocator@U?$pair@$$CBKPAVIData@@@std@@@3@$0A@@std@@@2@@Z ; std::allocator<std::_Tree_nod<std::_Tmap_traits<unsigned long,IData *,std::less<unsigned long>,std::allocator<std::pair<unsigned long const ,IData *> >,0> >::_Node>::destroy
PUBLIC	?_Left@?$_Tree@V?$_Tmap_traits@KPAVIData@@U?$less@K@std@@V?$allocator@U?$pair@$$CBKPAVIData@@@std@@@3@$0A@@std@@@std@@KAAAPAU_Node@?$_Tree_nod@V?$_Tmap_traits@KPAVIData@@U?$less@K@std@@V?$allocator@U?$pair@$$CBKPAVIData@@@std@@@3@$0A@@std@@@2@PAU342@@Z ; std::_Tree<std::_Tmap_traits<unsigned long,IData *,std::less<unsigned long>,std::allocator<std::pair<unsigned long const ,IData *> >,0> >::_Left
; Function compile flags: /Odt
;	COMDAT ?_Erase@?$_Tree@V?$_Tmap_traits@KPAVIData@@U?$less@K@std@@V?$allocator@U?$pair@$$CBKPAVIData@@@std@@@3@$0A@@std@@@std@@IAEXPAU_Node@?$_Tree_nod@V?$_Tmap_traits@KPAVIData@@U?$less@K@std@@V?$allocator@U?$pair@$$CBKPAVIData@@@std@@@3@$0A@@std@@@2@@Z
_TEXT	SEGMENT
_this$ = -8						; size = 4
__Pnode$199544 = -4					; size = 4
__Rootnode$ = 8						; size = 4
?_Erase@?$_Tree@V?$_Tmap_traits@KPAVIData@@U?$less@K@std@@V?$allocator@U?$pair@$$CBKPAVIData@@@std@@@3@$0A@@std@@@std@@IAEXPAU_Node@?$_Tree_nod@V?$_Tmap_traits@KPAVIData@@U?$less@K@std@@V?$allocator@U?$pair@$$CBKPAVIData@@@std@@@3@$0A@@std@@@2@@Z PROC NEAR ; std::_Tree<std::_Tmap_traits<unsigned long,IData *,std::less<unsigned long>,std::allocator<std::pair<unsigned long const ,IData *> >,0> >::_Erase, COMDAT
; _this$ = ecx

; 890  : 		{	// free entire subtree, recursively

  00000	55		 push	 ebp
  00001	8b ec		 mov	 ebp, esp
  00003	83 ec 08	 sub	 esp, 8
  00006	89 4d f8	 mov	 DWORD PTR _this$[ebp], ecx

; 891  : 		for (_Nodeptr _Pnode = _Rootnode; !_Isnil(_Pnode); _Rootnode = _Pnode)

  00009	8b 45 08	 mov	 eax, DWORD PTR __Rootnode$[ebp]
  0000c	89 45 fc	 mov	 DWORD PTR __Pnode$199544[ebp], eax
  0000f	eb 06		 jmp	 SHORT $L199545
$L199546:
  00011	8b 4d fc	 mov	 ecx, DWORD PTR __Pnode$199544[ebp]
  00014	89 4d 08	 mov	 DWORD PTR __Rootnode$[ebp], ecx
$L199545:
  00017	8b 55 fc	 mov	 edx, DWORD PTR __Pnode$199544[ebp]
  0001a	52		 push	 edx
  0001b	e8 00 00 00 00	 call	 ?_Isnil@?$_Tree@V?$_Tmap_traits@KPAVIData@@U?$less@K@std@@V?$allocator@U?$pair@$$CBKPAVIData@@@std@@@3@$0A@@std@@@std@@KAAADPAU_Node@?$_Tree_nod@V?$_Tmap_traits@KPAVIData@@U?$less@K@std@@V?$allocator@U?$pair@$$CBKPAVIData@@@std@@@3@$0A@@std@@@2@@Z ; std::_Tree<std::_Tmap_traits<unsigned long,IData *,std::less<unsigned long>,std::allocator<std::pair<unsigned long const ,IData *> >,0> >::_Isnil
  00020	83 c4 04	 add	 esp, 4
  00023	0f be 00	 movsx	 eax, BYTE PTR [eax]
  00026	85 c0		 test	 eax, eax
  00028	75 4a		 jne	 SHORT $L199543

; 892  : 			{	// free subtrees, then node
; 893  : 			_Erase(_Right(_Pnode));

  0002a	8b 4d fc	 mov	 ecx, DWORD PTR __Pnode$199544[ebp]
  0002d	51		 push	 ecx
  0002e	e8 00 00 00 00	 call	 ?_Right@?$_Tree@V?$_Tmap_traits@KPAVIData@@U?$less@K@std@@V?$allocator@U?$pair@$$CBKPAVIData@@@std@@@3@$0A@@std@@@std@@KAAAPAU_Node@?$_Tree_nod@V?$_Tmap_traits@KPAVIData@@U?$less@K@std@@V?$allocator@U?$pair@$$CBKPAVIData@@@std@@@3@$0A@@std@@@2@PAU342@@Z ; std::_Tree<std::_Tmap_traits<unsigned long,IData *,std::less<unsigned long>,std::allocator<std::pair<unsigned long const ,IData *> >,0> >::_Right
  00033	83 c4 04	 add	 esp, 4
  00036	8b 10		 mov	 edx, DWORD PTR [eax]
  00038	52		 push	 edx
  00039	8b 4d f8	 mov	 ecx, DWORD PTR _this$[ebp]
  0003c	e8 00 00 00 00	 call	 ?_Erase@?$_Tree@V?$_Tmap_traits@KPAVIData@@U?$less@K@std@@V?$allocator@U?$pair@$$CBKPAVIData@@@std@@@3@$0A@@std@@@std@@IAEXPAU_Node@?$_Tree_nod@V?$_Tmap_traits@KPAVIData@@U?$less@K@std@@V?$allocator@U?$pair@$$CBKPAVIData@@@std@@@3@$0A@@std@@@2@@Z ; std::_Tree<std::_Tmap_traits<unsigned long,IData *,std::less<unsigned long>,std::allocator<std::pair<unsigned long const ,IData *> >,0> >::_Erase

; 894  : 			_Pnode = _Left(_Pnode);

  00041	8b 45 fc	 mov	 eax, DWORD PTR __Pnode$199544[ebp]
  00044	50		 push	 eax
  00045	e8 00 00 00 00	 call	 ?_Left@?$_Tree@V?$_Tmap_traits@KPAVIData@@U?$less@K@std@@V?$allocator@U?$pair@$$CBKPAVIData@@@std@@@3@$0A@@std@@@std@@KAAAPAU_Node@?$_Tree_nod@V?$_Tmap_traits@KPAVIData@@U?$less@K@std@@V?$allocator@U?$pair@$$CBKPAVIData@@@std@@@3@$0A@@std@@@2@PAU342@@Z ; std::_Tree<std::_Tmap_traits<unsigned long,IData *,std::less<unsigned long>,std::allocator<std::pair<unsigned long const ,IData *> >,0> >::_Left
  0004a	83 c4 04	 add	 esp, 4
  0004d	8b 08		 mov	 ecx, DWORD PTR [eax]
  0004f	89 4d fc	 mov	 DWORD PTR __Pnode$199544[ebp], ecx

; 895  : 			this->_Alnod.destroy(_Rootnode);	// destroy, free erased node

  00052	8b 55 08	 mov	 edx, DWORD PTR __Rootnode$[ebp]
  00055	52		 push	 edx
  00056	8b 4d f8	 mov	 ecx, DWORD PTR _this$[ebp]
  00059	83 c1 01	 add	 ecx, 1
  0005c	e8 00 00 00 00	 call	 ?destroy@?$allocator@U_Node@?$_Tree_nod@V?$_Tmap_traits@KPAVIData@@U?$less@K@std@@V?$allocator@U?$pair@$$CBKPAVIData@@@std@@@3@$0A@@std@@@std@@@std@@QAEXPAU_Node@?$_Tree_nod@V?$_Tmap_traits@KPAVIData@@U?$less@K@std@@V?$allocator@U?$pair@$$CBKPAVIData@@@std@@@3@$0A@@std@@@2@@Z ; std::allocator<std::_Tree_nod<std::_Tmap_traits<unsigned long,IData *,std::less<unsigned long>,std::allocator<std::pair<unsigned long const ,IData *> >,0> >::_Node>::destroy

; 896  : 			this->_Alnod.deallocate(_Rootnode, 1);

  00061	6a 01		 push	 1
  00063	8b 45 08	 mov	 eax, DWORD PTR __Rootnode$[ebp]
  00066	50		 push	 eax
  00067	8b 4d f8	 mov	 ecx, DWORD PTR _this$[ebp]
  0006a	83 c1 01	 add	 ecx, 1
  0006d	e8 00 00 00 00	 call	 ?deallocate@?$allocator@U_Node@?$_Tree_nod@V?$_Tmap_traits@KPAVIData@@U?$less@K@std@@V?$allocator@U?$pair@$$CBKPAVIData@@@std@@@3@$0A@@std@@@std@@@std@@QAEXPAU_Node@?$_Tree_nod@V?$_Tmap_traits@KPAVIData@@U?$less@K@std@@V?$allocator@U?$pair@$$CBKPAVIData@@@std@@@3@$0A@@std@@@2@I@Z ; std::allocator<std::_Tree_nod<std::_Tmap_traits<unsigned long,IData *,std::less<unsigned long>,std::allocator<std::pair<unsigned long const ,IData *> >,0> >::_Node>::deallocate

; 897  : 			}

  00072	eb 9d		 jmp	 SHORT $L199546
$L199543:

; 898  : 		}

  00074	8b e5		 mov	 esp, ebp
  00076	5d		 pop	 ebp
  00077	c2 04 00	 ret	 4
?_Erase@?$_Tree@V?$_Tmap_traits@KPAVIData@@U?$less@K@std@@V?$allocator@U?$pair@$$CBKPAVIData@@@std@@@3@$0A@@std@@@std@@IAEXPAU_Node@?$_Tree_nod@V?$_Tmap_traits@KPAVIData@@U?$less@K@std@@V?$allocator@U?$pair@$$CBKPAVIData@@@std@@@3@$0A@@std@@@2@@Z ENDP ; std::_Tree<std::_Tmap_traits<unsigned long,IData *,std::less<unsigned long>,std::allocator<std::pair<unsigned long const ,IData *> >,0> >::_Erase
; Function compile flags: /Odt
_TEXT	ENDS
;	COMDAT ?_Lmost@?$_Tree@V?$_Tmap_traits@KPAVIData@@U?$less@K@std@@V?$allocator@U?$pair@$$CBKPAVIData@@@std@@@3@$0A@@std@@@std@@IAEAAPAU_Node@?$_Tree_nod@V?$_Tmap_traits@KPAVIData@@U?$less@K@std@@V?$allocator@U?$pair@$$CBKPAVIData@@@std@@@3@$0A@@std@@@2@XZ
_TEXT	SEGMENT
_this$ = -4						; size = 4
?_Lmost@?$_Tree@V?$_Tmap_traits@KPAVIData@@U?$less@K@std@@V?$allocator@U?$pair@$$CBKPAVIData@@@std@@@3@$0A@@std@@@std@@IAEAAPAU_Node@?$_Tree_nod@V?$_Tmap_traits@KPAVIData@@U?$less@K@std@@V?$allocator@U?$pair@$$CBKPAVIData@@@std@@@3@$0A@@std@@@2@XZ PROC NEAR ; std::_Tree<std::_Tmap_traits<unsigned long,IData *,std::less<unsigned long>,std::allocator<std::pair<unsigned long const ,IData *> >,0> >::_Lmost, COMDAT
; _this$ = ecx

; 1004 : 		{	// return leftmost node in mutable tree

  00000	55		 push	 ebp
  00001	8b ec		 mov	 ebp, esp
  00003	51		 push	 ecx
  00004	89 4d fc	 mov	 DWORD PTR _this$[ebp], ecx

; 1005 : 		return (_Left(_Myhead));

  00007	8b 45 fc	 mov	 eax, DWORD PTR _this$[ebp]
  0000a	8b 48 04	 mov	 ecx, DWORD PTR [eax+4]
  0000d	51		 push	 ecx
  0000e	e8 00 00 00 00	 call	 ?_Left@?$_Tree@V?$_Tmap_traits@KPAVIData@@U?$less@K@std@@V?$allocator@U?$pair@$$CBKPAVIData@@@std@@@3@$0A@@std@@@std@@KAAAPAU_Node@?$_Tree_nod@V?$_Tmap_traits@KPAVIData@@U?$less@K@std@@V?$allocator@U?$pair@$$CBKPAVIData@@@std@@@3@$0A@@std@@@2@PAU342@@Z ; std::_Tree<std::_Tmap_traits<unsigned long,IData *,std::less<unsigned long>,std::allocator<std::pair<unsigned long const ,IData *> >,0> >::_Left
  00013	83 c4 04	 add	 esp, 4

; 1006 : 		}

  00016	8b e5		 mov	 esp, ebp
  00018	5d		 pop	 ebp
  00019	c3		 ret	 0
?_Lmost@?$_Tree@V?$_Tmap_traits@KPAVIData@@U?$less@K@std@@V?$allocator@U?$pair@$$CBKPAVIData@@@std@@@3@$0A@@std@@@std@@IAEAAPAU_Node@?$_Tree_nod@V?$_Tmap_traits@KPAVIData@@U?$less@K@std@@V?$allocator@U?$pair@$$CBKPAVIData@@@std@@@3@$0A@@std@@@2@XZ ENDP ; std::_Tree<std::_Tmap_traits<unsigned long,IData *,std::less<unsigned long>,std::allocator<std::pair<unsigned long const ,IData *> >,0> >::_Lmost
; Function compile flags: /Odt
_TEXT	ENDS
;	COMDAT ?_Rmost@?$_Tree@V?$_Tmap_traits@KPAVIData@@U?$less@K@std@@V?$allocator@U?$pair@$$CBKPAVIData@@@std@@@3@$0A@@std@@@std@@IAEAAPAU_Node@?$_Tree_nod@V?$_Tmap_traits@KPAVIData@@U?$less@K@std@@V?$allocator@U?$pair@$$CBKPAVIData@@@std@@@3@$0A@@std@@@2@XZ
_TEXT	SEGMENT
_this$ = -4						; size = 4
?_Rmost@?$_Tree@V?$_Tmap_traits@KPAVIData@@U?$less@K@std@@V?$allocator@U?$pair@$$CBKPAVIData@@@std@@@3@$0A@@std@@@std@@IAEAAPAU_Node@?$_Tree_nod@V?$_Tmap_traits@KPAVIData@@U?$less@K@std@@V?$allocator@U?$pair@$$CBKPAVIData@@@std@@@3@$0A@@std@@@2@XZ PROC NEAR ; std::_Tree<std::_Tmap_traits<unsigned long,IData *,std::less<unsigned long>,std::allocator<std::pair<unsigned long const ,IData *> >,0> >::_Rmost, COMDAT
; _this$ = ecx

; 1048 : 		{	// return rightmost node in mutable tree

  00000	55		 push	 ebp
  00001	8b ec		 mov	 ebp, esp
  00003	51		 push	 ecx
  00004	89 4d fc	 mov	 DWORD PTR _this$[ebp], ecx

; 1049 : 		return (_Right(_Myhead));

  00007	8b 45 fc	 mov	 eax, DWORD PTR _this$[ebp]
  0000a	8b 48 04	 mov	 ecx, DWORD PTR [eax+4]
  0000d	51		 push	 ecx
  0000e	e8 00 00 00 00	 call	 ?_Right@?$_Tree@V?$_Tmap_traits@KPAVIData@@U?$less@K@std@@V?$allocator@U?$pair@$$CBKPAVIData@@@std@@@3@$0A@@std@@@std@@KAAAPAU_Node@?$_Tree_nod@V?$_Tmap_traits@KPAVIData@@U?$less@K@std@@V?$allocator@U?$pair@$$CBKPAVIData@@@std@@@3@$0A@@std@@@2@PAU342@@Z ; std::_Tree<std::_Tmap_traits<unsigned long,IData *,std::less<unsigned long>,std::allocator<std::pair<unsigned long const ,IData *> >,0> >::_Right
  00013	83 c4 04	 add	 esp, 4

; 1050 : 		}

  00016	8b e5		 mov	 esp, ebp
  00018	5d		 pop	 ebp
  00019	c3		 ret	 0
?_Rmost@?$_Tree@V?$_Tmap_traits@KPAVIData@@U?$less@K@std@@V?$allocator@U?$pair@$$CBKPAVIData@@@std@@@3@$0A@@std@@@std@@IAEAAPAU_Node@?$_Tree_nod@V?$_Tmap_traits@KPAVIData@@U?$less@K@std@@V?$allocator@U?$pair@$$CBKPAVIData@@@std@@@3@$0A@@std@@@2@XZ ENDP ; std::_Tree<std::_Tmap_traits<unsigned long,IData *,std::less<unsigned long>,std::allocator<std::pair<unsigned long const ,IData *> >,0> >::_Rmost
_TEXT	ENDS
PUBLIC	?_Parent@?$_Tree@V?$_Tmap_traits@KPAVIData@@U?$less@K@std@@V?$allocator@U?$pair@$$CBKPAVIData@@@std@@@3@$0A@@std@@@std@@KAAAPAU_Node@?$_Tree_nod@V?$_Tmap_traits@KPAVIData@@U?$less@K@std@@V?$allocator@U?$pair@$$CBKPAVIData@@@std@@@3@$0A@@std@@@2@PAU342@@Z ; std::_Tree<std::_Tmap_traits<unsigned long,IData *,std::less<unsigned long>,std::allocator<std::pair<unsigned long const ,IData *> >,0> >::_Parent
; Function compile flags: /Odt
;	COMDAT ?_Root@?$_Tree@V?$_Tmap_traits@KPAVIData@@U?$less@K@std@@V?$allocator@U?$pair@$$CBKPAVIData@@@std@@@3@$0A@@std@@@std@@IAEAAPAU_Node@?$_Tree_nod@V?$_Tmap_traits@KPAVIData@@U?$less@K@std@@V?$allocator@U?$pair@$$CBKPAVIData@@@std@@@3@$0A@@std@@@2@XZ
_TEXT	SEGMENT
_this$ = -4						; size = 4
?_Root@?$_Tree@V?$_Tmap_traits@KPAVIData@@U?$less@K@std@@V?$allocator@U?$pair@$$CBKPAVIData@@@std@@@3@$0A@@std@@@std@@IAEAAPAU_Node@?$_Tree_nod@V?$_Tmap_traits@KPAVIData@@U?$less@K@std@@V?$allocator@U?$pair@$$CBKPAVIData@@@std@@@3@$0A@@std@@@2@XZ PROC NEAR ; std::_Tree<std::_Tmap_traits<unsigned long,IData *,std::less<unsigned long>,std::allocator<std::pair<unsigned long const ,IData *> >,0> >::_Root, COMDAT
; _this$ = ecx

; 1058 : 		{	// return root of mutable tree

  00000	55		 push	 ebp
  00001	8b ec		 mov	 ebp, esp
  00003	51		 push	 ecx
  00004	89 4d fc	 mov	 DWORD PTR _this$[ebp], ecx

; 1059 : 		return (_Parent(_Myhead));

  00007	8b 45 fc	 mov	 eax, DWORD PTR _this$[ebp]
  0000a	8b 48 04	 mov	 ecx, DWORD PTR [eax+4]
  0000d	51		 push	 ecx
  0000e	e8 00 00 00 00	 call	 ?_Parent@?$_Tree@V?$_Tmap_traits@KPAVIData@@U?$less@K@std@@V?$allocator@U?$pair@$$CBKPAVIData@@@std@@@3@$0A@@std@@@std@@KAAAPAU_Node@?$_Tree_nod@V?$_Tmap_traits@KPAVIData@@U?$less@K@std@@V?$allocator@U?$pair@$$CBKPAVIData@@@std@@@3@$0A@@std@@@2@PAU342@@Z ; std::_Tree<std::_Tmap_traits<unsigned long,IData *,std::less<unsigned long>,std::allocator<std::pair<unsigned long const ,IData *> >,0> >::_Parent
  00013	83 c4 04	 add	 esp, 4

; 1060 : 		}

  00016	8b e5		 mov	 esp, ebp
  00018	5d		 pop	 ebp
  00019	c3		 ret	 0
?_Root@?$_Tree@V?$_Tmap_traits@KPAVIData@@U?$less@K@std@@V?$allocator@U?$pair@$$CBKPAVIData@@@std@@@3@$0A@@std@@@std@@IAEAAPAU_Node@?$_Tree_nod@V?$_Tmap_traits@KPAVIData@@U?$less@K@std@@V?$allocator@U?$pair@$$CBKPAVIData@@@std@@@3@$0A@@std@@@2@XZ ENDP ; std::_Tree<std::_Tmap_traits<unsigned long,IData *,std::less<unsigned long>,std::allocator<std::pair<unsigned long const ,IData *> >,0> >::_Root
_TEXT	ENDS
PUBLIC	?destroy@?$allocator@PAU_Node@?$_Tree_nod@V?$_Tmap_traits@KPAVIData@@U?$less@K@std@@V?$allocator@U?$pair@$$CBKPAVIData@@@std@@@3@$0A@@std@@@std@@@std@@QAEXPAPAU_Node@?$_Tree_nod@V?$_Tmap_traits@KPAVIData@@U?$less@K@std@@V?$allocator@U?$pair@$$CBKPAVIData@@@std@@@3@$0A@@std@@@2@@Z ; std::allocator<std::_Tree_nod<std::_Tmap_traits<unsigned long,IData *,std::less<unsigned long>,std::allocator<std::pair<unsigned long const ,IData *> >,0> >::_Node *>::destroy
; Function compile flags: /Odt
;	COMDAT ?_Tidy@?$_Tree@V?$_Tmap_traits@KPAVIData@@U?$less@K@std@@V?$allocator@U?$pair@$$CBKPAVIData@@@std@@@3@$0A@@std@@@std@@IAEXXZ
_TEXT	SEGMENT
_this$ = -16						; size = 4
$T200634 = -12						; size = 4
$T200633 = -8						; size = 4
$T200632 = -4						; size = 4
?_Tidy@?$_Tree@V?$_Tmap_traits@KPAVIData@@U?$less@K@std@@V?$allocator@U?$pair@$$CBKPAVIData@@@std@@@3@$0A@@std@@@std@@IAEXXZ PROC NEAR ; std::_Tree<std::_Tmap_traits<unsigned long,IData *,std::less<unsigned long>,std::allocator<std::pair<unsigned long const ,IData *> >,0> >::_Tidy, COMDAT
; _this$ = ecx

; 1142 : 		{	// free all storage

  00000	55		 push	 ebp
  00001	8b ec		 mov	 ebp, esp
  00003	83 ec 10	 sub	 esp, 16			; 00000010H
  00006	89 4d f0	 mov	 DWORD PTR _this$[ebp], ecx

; 1143 : 		erase(begin(), end());

  00009	8d 45 fc	 lea	 eax, DWORD PTR $T200632[ebp]
  0000c	50		 push	 eax
  0000d	8b 4d f0	 mov	 ecx, DWORD PTR _this$[ebp]
  00010	e8 00 00 00 00	 call	 ?end@?$_Tree@V?$_Tmap_traits@KPAVIData@@U?$less@K@std@@V?$allocator@U?$pair@$$CBKPAVIData@@@std@@@3@$0A@@std@@@std@@QAE?AViterator@12@XZ ; std::_Tree<std::_Tmap_traits<unsigned long,IData *,std::less<unsigned long>,std::allocator<std::pair<unsigned long const ,IData *> >,0> >::end
  00015	8b 08		 mov	 ecx, DWORD PTR [eax]
  00017	51		 push	 ecx
  00018	8d 55 f8	 lea	 edx, DWORD PTR $T200633[ebp]
  0001b	52		 push	 edx
  0001c	8b 4d f0	 mov	 ecx, DWORD PTR _this$[ebp]
  0001f	e8 00 00 00 00	 call	 ?begin@?$_Tree@V?$_Tmap_traits@KPAVIData@@U?$less@K@std@@V?$allocator@U?$pair@$$CBKPAVIData@@@std@@@3@$0A@@std@@@std@@QAE?AViterator@12@XZ ; std::_Tree<std::_Tmap_traits<unsigned long,IData *,std::less<unsigned long>,std::allocator<std::pair<unsigned long const ,IData *> >,0> >::begin
  00024	8b 00		 mov	 eax, DWORD PTR [eax]
  00026	50		 push	 eax
  00027	8d 4d f4	 lea	 ecx, DWORD PTR $T200634[ebp]
  0002a	51		 push	 ecx
  0002b	8b 4d f0	 mov	 ecx, DWORD PTR _this$[ebp]
  0002e	e8 00 00 00 00	 call	 ?erase@?$_Tree@V?$_Tmap_traits@KPAVIData@@U?$less@K@std@@V?$allocator@U?$pair@$$CBKPAVIData@@@std@@@3@$0A@@std@@@std@@QAE?AViterator@12@V312@0@Z ; std::_Tree<std::_Tmap_traits<unsigned long,IData *,std::less<unsigned long>,std::allocator<std::pair<unsigned long const ,IData *> >,0> >::erase

; 1144 : 		this->_Alptr.destroy(&_Left(_Myhead));

  00033	8b 55 f0	 mov	 edx, DWORD PTR _this$[ebp]
  00036	8b 42 04	 mov	 eax, DWORD PTR [edx+4]
  00039	50		 push	 eax
  0003a	e8 00 00 00 00	 call	 ?_Left@?$_Tree@V?$_Tmap_traits@KPAVIData@@U?$less@K@std@@V?$allocator@U?$pair@$$CBKPAVIData@@@std@@@3@$0A@@std@@@std@@KAAAPAU_Node@?$_Tree_nod@V?$_Tmap_traits@KPAVIData@@U?$less@K@std@@V?$allocator@U?$pair@$$CBKPAVIData@@@std@@@3@$0A@@std@@@2@PAU342@@Z ; std::_Tree<std::_Tmap_traits<unsigned long,IData *,std::less<unsigned long>,std::allocator<std::pair<unsigned long const ,IData *> >,0> >::_Left
  0003f	83 c4 04	 add	 esp, 4
  00042	50		 push	 eax
  00043	8b 4d f0	 mov	 ecx, DWORD PTR _this$[ebp]
  00046	83 c1 02	 add	 ecx, 2
  00049	e8 00 00 00 00	 call	 ?destroy@?$allocator@PAU_Node@?$_Tree_nod@V?$_Tmap_traits@KPAVIData@@U?$less@K@std@@V?$allocator@U?$pair@$$CBKPAVIData@@@std@@@3@$0A@@std@@@std@@@std@@QAEXPAPAU_Node@?$_Tree_nod@V?$_Tmap_traits@KPAVIData@@U?$less@K@std@@V?$allocator@U?$pair@$$CBKPAVIData@@@std@@@3@$0A@@std@@@2@@Z ; std::allocator<std::_Tree_nod<std::_Tmap_traits<unsigned long,IData *,std::less<unsigned long>,std::allocator<std::pair<unsigned long const ,IData *> >,0> >::_Node *>::destroy

; 1145 : 		this->_Alptr.destroy(&_Parent(_Myhead));

  0004e	8b 4d f0	 mov	 ecx, DWORD PTR _this$[ebp]
  00051	8b 51 04	 mov	 edx, DWORD PTR [ecx+4]
  00054	52		 push	 edx
  00055	e8 00 00 00 00	 call	 ?_Parent@?$_Tree@V?$_Tmap_traits@KPAVIData@@U?$less@K@std@@V?$allocator@U?$pair@$$CBKPAVIData@@@std@@@3@$0A@@std@@@std@@KAAAPAU_Node@?$_Tree_nod@V?$_Tmap_traits@KPAVIData@@U?$less@K@std@@V?$allocator@U?$pair@$$CBKPAVIData@@@std@@@3@$0A@@std@@@2@PAU342@@Z ; std::_Tree<std::_Tmap_traits<unsigned long,IData *,std::less<unsigned long>,std::allocator<std::pair<unsigned long const ,IData *> >,0> >::_Parent
  0005a	83 c4 04	 add	 esp, 4
  0005d	50		 push	 eax
  0005e	8b 4d f0	 mov	 ecx, DWORD PTR _this$[ebp]
  00061	83 c1 02	 add	 ecx, 2
  00064	e8 00 00 00 00	 call	 ?destroy@?$allocator@PAU_Node@?$_Tree_nod@V?$_Tmap_traits@KPAVIData@@U?$less@K@std@@V?$allocator@U?$pair@$$CBKPAVIData@@@std@@@3@$0A@@std@@@std@@@std@@QAEXPAPAU_Node@?$_Tree_nod@V?$_Tmap_traits@KPAVIData@@U?$less@K@std@@V?$allocator@U?$pair@$$CBKPAVIData@@@std@@@3@$0A@@std@@@2@@Z ; std::allocator<std::_Tree_nod<std::_Tmap_traits<unsigned long,IData *,std::less<unsigned long>,std::allocator<std::pair<unsigned long const ,IData *> >,0> >::_Node *>::destroy

; 1146 : 		this->_Alptr.destroy(&_Right(_Myhead));

  00069	8b 45 f0	 mov	 eax, DWORD PTR _this$[ebp]
  0006c	8b 48 04	 mov	 ecx, DWORD PTR [eax+4]
  0006f	51		 push	 ecx
  00070	e8 00 00 00 00	 call	 ?_Right@?$_Tree@V?$_Tmap_traits@KPAVIData@@U?$less@K@std@@V?$allocator@U?$pair@$$CBKPAVIData@@@std@@@3@$0A@@std@@@std@@KAAAPAU_Node@?$_Tree_nod@V?$_Tmap_traits@KPAVIData@@U?$less@K@std@@V?$allocator@U?$pair@$$CBKPAVIData@@@std@@@3@$0A@@std@@@2@PAU342@@Z ; std::_Tree<std::_Tmap_traits<unsigned long,IData *,std::less<unsigned long>,std::allocator<std::pair<unsigned long const ,IData *> >,0> >::_Right
  00075	83 c4 04	 add	 esp, 4
  00078	50		 push	 eax
  00079	8b 4d f0	 mov	 ecx, DWORD PTR _this$[ebp]
  0007c	83 c1 02	 add	 ecx, 2
  0007f	e8 00 00 00 00	 call	 ?destroy@?$allocator@PAU_Node@?$_Tree_nod@V?$_Tmap_traits@KPAVIData@@U?$less@K@std@@V?$allocator@U?$pair@$$CBKPAVIData@@@std@@@3@$0A@@std@@@std@@@std@@QAEXPAPAU_Node@?$_Tree_nod@V?$_Tmap_traits@KPAVIData@@U?$less@K@std@@V?$allocator@U?$pair@$$CBKPAVIData@@@std@@@3@$0A@@std@@@2@@Z ; std::allocator<std::_Tree_nod<std::_Tmap_traits<unsigned long,IData *,std::less<unsigned long>,std::allocator<std::pair<unsigned long const ,IData *> >,0> >::_Node *>::destroy

; 1147 : 		this->_Alnod.deallocate(_Myhead, 1);

  00084	6a 01		 push	 1
  00086	8b 55 f0	 mov	 edx, DWORD PTR _this$[ebp]
  00089	8b 42 04	 mov	 eax, DWORD PTR [edx+4]
  0008c	50		 push	 eax
  0008d	8b 4d f0	 mov	 ecx, DWORD PTR _this$[ebp]
  00090	83 c1 01	 add	 ecx, 1
  00093	e8 00 00 00 00	 call	 ?deallocate@?$allocator@U_Node@?$_Tree_nod@V?$_Tmap_traits@KPAVIData@@U?$less@K@std@@V?$allocator@U?$pair@$$CBKPAVIData@@@std@@@3@$0A@@std@@@std@@@std@@QAEXPAU_Node@?$_Tree_nod@V?$_Tmap_traits@KPAVIData@@U?$less@K@std@@V?$allocator@U?$pair@$$CBKPAVIData@@@std@@@3@$0A@@std@@@2@I@Z ; std::allocator<std::_Tree_nod<std::_Tmap_traits<unsigned long,IData *,std::less<unsigned long>,std::allocator<std::pair<unsigned long const ,IData *> >,0> >::_Node>::deallocate

; 1148 : 		_Myhead = 0, _Mysize = 0;

  00098	8b 4d f0	 mov	 ecx, DWORD PTR _this$[ebp]
  0009b	c7 41 04 00 00
	00 00		 mov	 DWORD PTR [ecx+4], 0
  000a2	8b 55 f0	 mov	 edx, DWORD PTR _this$[ebp]
  000a5	c7 42 08 00 00
	00 00		 mov	 DWORD PTR [edx+8], 0

; 1149 : 		}

  000ac	8b e5		 mov	 esp, ebp
  000ae	5d		 pop	 ebp
  000af	c3		 ret	 0
?_Tidy@?$_Tree@V?$_Tmap_traits@KPAVIData@@U?$less@K@std@@V?$allocator@U?$pair@$$CBKPAVIData@@@std@@@3@$0A@@std@@@std@@IAEXXZ ENDP ; std::_Tree<std::_Tmap_traits<unsigned long,IData *,std::less<unsigned long>,std::allocator<std::pair<unsigned long const ,IData *> >,0> >::_Tidy
; Function compile flags: /Odt
; File d:\program files (x86)\microsoft visual studio .net 2003\vc7\include\xmemory
_TEXT	ENDS
;	COMDAT ??0?$allocator@U?$pair@$$CBKPAVIData@@@std@@@std@@QAE@XZ
_TEXT	SEGMENT
_this$ = -4						; size = 4
??0?$allocator@U?$pair@$$CBKPAVIData@@@std@@@std@@QAE@XZ PROC NEAR ; std::allocator<std::pair<unsigned long const ,IData *> >::allocator<std::pair<unsigned long const ,IData *> >, COMDAT
; _this$ = ecx

; 111  : 	allocator()

  00000	55		 push	 ebp
  00001	8b ec		 mov	 ebp, esp
  00003	51		 push	 ecx
  00004	89 4d fc	 mov	 DWORD PTR _this$[ebp], ecx

; 112  : 		{	// construct default allocator (do nothing)
; 113  : 		}

  00007	8b 45 fc	 mov	 eax, DWORD PTR _this$[ebp]
  0000a	8b e5		 mov	 esp, ebp
  0000c	5d		 pop	 ebp
  0000d	c3		 ret	 0
??0?$allocator@U?$pair@$$CBKPAVIData@@@std@@@std@@QAE@XZ ENDP ; std::allocator<std::pair<unsigned long const ,IData *> >::allocator<std::pair<unsigned long const ,IData *> >
; Function compile flags: /Odt
; File d:\program files (x86)\microsoft visual studio .net 2003\vc7\include\functional
_TEXT	ENDS
;	COMDAT ??R?$less@K@std@@QBE_NABK0@Z
_TEXT	SEGMENT
_this$ = -4						; size = 4
__Left$ = 8						; size = 4
__Right$ = 12						; size = 4
??R?$less@K@std@@QBE_NABK0@Z PROC NEAR			; std::less<unsigned long>::operator(), COMDAT
; _this$ = ecx

; 138  : 		{	// apply operator< to operands

  00000	55		 push	 ebp
  00001	8b ec		 mov	 ebp, esp
  00003	51		 push	 ecx
  00004	89 4d fc	 mov	 DWORD PTR _this$[ebp], ecx

; 139  : 		return (_Left < _Right);

  00007	8b 45 08	 mov	 eax, DWORD PTR __Left$[ebp]
  0000a	8b 4d 0c	 mov	 ecx, DWORD PTR __Right$[ebp]
  0000d	8b 10		 mov	 edx, DWORD PTR [eax]
  0000f	3b 11		 cmp	 edx, DWORD PTR [ecx]
  00011	1b c0		 sbb	 eax, eax
  00013	f7 d8		 neg	 eax

; 140  : 		}

  00015	8b e5		 mov	 esp, ebp
  00017	5d		 pop	 ebp
  00018	c2 08 00	 ret	 8
??R?$less@K@std@@QBE_NABK0@Z ENDP			; std::less<unsigned long>::operator()
_TEXT	ENDS
PUBLIC	??0const_iterator@?$_Tree@V?$_Tmap_traits@KPAVIData@@U?$less@K@std@@V?$allocator@U?$pair@$$CBKPAVIData@@@std@@@3@$0A@@std@@@std@@QAE@PAU_Node@?$_Tree_nod@V?$_Tmap_traits@KPAVIData@@U?$less@K@std@@V?$allocator@U?$pair@$$CBKPAVIData@@@std@@@3@$0A@@std@@@2@@Z ; std::_Tree<std::_Tmap_traits<unsigned long,IData *,std::less<unsigned long>,std::allocator<std::pair<unsigned long const ,IData *> >,0> >::const_iterator::const_iterator
; Function compile flags: /Odt
; File d:\program files (x86)\microsoft visual studio .net 2003\vc7\include\xtree
;	COMDAT ??0iterator@?$_Tree@V?$_Tmap_traits@KPAVIData@@U?$less@K@std@@V?$allocator@U?$pair@$$CBKPAVIData@@@std@@@3@$0A@@std@@@std@@QAE@PAU_Node@?$_Tree_nod@V?$_Tmap_traits@KPAVIData@@U?$less@K@std@@V?$allocator@U?$pair@$$CBKPAVIData@@@std@@@3@$0A@@std@@@2@@Z
_TEXT	SEGMENT
_this$ = -4						; size = 4
__Pnode$ = 8						; size = 4
??0iterator@?$_Tree@V?$_Tmap_traits@KPAVIData@@U?$less@K@std@@V?$allocator@U?$pair@$$CBKPAVIData@@@std@@@3@$0A@@std@@@std@@QAE@PAU_Node@?$_Tree_nod@V?$_Tmap_traits@KPAVIData@@U?$less@K@std@@V?$allocator@U?$pair@$$CBKPAVIData@@@std@@@3@$0A@@std@@@2@@Z PROC NEAR ; std::_Tree<std::_Tmap_traits<unsigned long,IData *,std::less<unsigned long>,std::allocator<std::pair<unsigned long const ,IData *> >,0> >::iterator::iterator, COMDAT
; _this$ = ecx

; 312  : 			{	// construct with node pointer _Pnode

  00000	55		 push	 ebp
  00001	8b ec		 mov	 ebp, esp
  00003	51		 push	 ecx
  00004	89 4d fc	 mov	 DWORD PTR _this$[ebp], ecx
  00007	8b 45 08	 mov	 eax, DWORD PTR __Pnode$[ebp]
  0000a	50		 push	 eax
  0000b	8b 4d fc	 mov	 ecx, DWORD PTR _this$[ebp]
  0000e	e8 00 00 00 00	 call	 ??0const_iterator@?$_Tree@V?$_Tmap_traits@KPAVIData@@U?$less@K@std@@V?$allocator@U?$pair@$$CBKPAVIData@@@std@@@3@$0A@@std@@@std@@QAE@PAU_Node@?$_Tree_nod@V?$_Tmap_traits@KPAVIData@@U?$less@K@std@@V?$allocator@U?$pair@$$CBKPAVIData@@@std@@@3@$0A@@std@@@2@@Z ; std::_Tree<std::_Tmap_traits<unsigned long,IData *,std::less<unsigned long>,std::allocator<std::pair<unsigned long const ,IData *> >,0> >::const_iterator::const_iterator

; 313  : 			}

  00013	8b 45 fc	 mov	 eax, DWORD PTR _this$[ebp]
  00016	8b e5		 mov	 esp, ebp
  00018	5d		 pop	 ebp
  00019	c2 04 00	 ret	 4
??0iterator@?$_Tree@V?$_Tmap_traits@KPAVIData@@U?$less@K@std@@V?$allocator@U?$pair@$$CBKPAVIData@@@std@@@3@$0A@@std@@@std@@QAE@PAU_Node@?$_Tree_nod@V?$_Tmap_traits@KPAVIData@@U?$less@K@std@@V?$allocator@U?$pair@$$CBKPAVIData@@@std@@@3@$0A@@std@@@2@@Z ENDP ; std::_Tree<std::_Tmap_traits<unsigned long,IData *,std::less<unsigned long>,std::allocator<std::pair<unsigned long const ,IData *> >,0> >::iterator::iterator
_TEXT	ENDS
PUBLIC	??Dconst_iterator@?$_Tree@V?$_Tmap_traits@KPAVIData@@U?$less@K@std@@V?$allocator@U?$pair@$$CBKPAVIData@@@std@@@3@$0A@@std@@@std@@QBEABU?$pair@$$CBKPAVIData@@@2@XZ ; std::_Tree<std::_Tmap_traits<unsigned long,IData *,std::less<unsigned long>,std::allocator<std::pair<unsigned long const ,IData *> >,0> >::const_iterator::operator*
; Function compile flags: /Odt
;	COMDAT ??Diterator@?$_Tree@V?$_Tmap_traits@KPAVIData@@U?$less@K@std@@V?$allocator@U?$pair@$$CBKPAVIData@@@std@@@3@$0A@@std@@@std@@QBEAAU?$pair@$$CBKPAVIData@@@2@XZ
_TEXT	SEGMENT
_this$ = -4						; size = 4
??Diterator@?$_Tree@V?$_Tmap_traits@KPAVIData@@U?$less@K@std@@V?$allocator@U?$pair@$$CBKPAVIData@@@std@@@3@$0A@@std@@@std@@QBEAAU?$pair@$$CBKPAVIData@@@2@XZ PROC NEAR ; std::_Tree<std::_Tmap_traits<unsigned long,IData *,std::less<unsigned long>,std::allocator<std::pair<unsigned long const ,IData *> >,0> >::iterator::operator*, COMDAT
; _this$ = ecx

; 316  : 			{	// return designated value

  00000	55		 push	 ebp
  00001	8b ec		 mov	 ebp, esp
  00003	51		 push	 ecx
  00004	89 4d fc	 mov	 DWORD PTR _this$[ebp], ecx

; 317  : 			return ((reference)**(const_iterator *)this);

  00007	8b 4d fc	 mov	 ecx, DWORD PTR _this$[ebp]
  0000a	e8 00 00 00 00	 call	 ??Dconst_iterator@?$_Tree@V?$_Tmap_traits@KPAVIData@@U?$less@K@std@@V?$allocator@U?$pair@$$CBKPAVIData@@@std@@@3@$0A@@std@@@std@@QBEABU?$pair@$$CBKPAVIData@@@2@XZ ; std::_Tree<std::_Tmap_traits<unsigned long,IData *,std::less<unsigned long>,std::allocator<std::pair<unsigned long const ,IData *> >,0> >::const_iterator::operator*

; 318  : 			}

  0000f	8b e5		 mov	 esp, ebp
  00011	5d		 pop	 ebp
  00012	c3		 ret	 0
??Diterator@?$_Tree@V?$_Tmap_traits@KPAVIData@@U?$less@K@std@@V?$allocator@U?$pair@$$CBKPAVIData@@@std@@@3@$0A@@std@@@std@@QBEAAU?$pair@$$CBKPAVIData@@@2@XZ ENDP ; std::_Tree<std::_Tmap_traits<unsigned long,IData *,std::less<unsigned long>,std::allocator<std::pair<unsigned long const ,IData *> >,0> >::iterator::operator*
_TEXT	ENDS
PUBLIC	??Econst_iterator@?$_Tree@V?$_Tmap_traits@KPAVIData@@U?$less@K@std@@V?$allocator@U?$pair@$$CBKPAVIData@@@std@@@3@$0A@@std@@@std@@QAEAAV012@XZ ; std::_Tree<std::_Tmap_traits<unsigned long,IData *,std::less<unsigned long>,std::allocator<std::pair<unsigned long const ,IData *> >,0> >::const_iterator::operator++
; Function compile flags: /Odt
;	COMDAT ??Eiterator@?$_Tree@V?$_Tmap_traits@KPAVIData@@U?$less@K@std@@V?$allocator@U?$pair@$$CBKPAVIData@@@std@@@3@$0A@@std@@@std@@QAEAAV012@XZ
_TEXT	SEGMENT
_this$ = -4						; size = 4
??Eiterator@?$_Tree@V?$_Tmap_traits@KPAVIData@@U?$less@K@std@@V?$allocator@U?$pair@$$CBKPAVIData@@@std@@@3@$0A@@std@@@std@@QAEAAV012@XZ PROC NEAR ; std::_Tree<std::_Tmap_traits<unsigned long,IData *,std::less<unsigned long>,std::allocator<std::pair<unsigned long const ,IData *> >,0> >::iterator::operator++, COMDAT
; _this$ = ecx

; 326  : 			{	// preincrement

  00000	55		 push	 ebp
  00001	8b ec		 mov	 ebp, esp
  00003	51		 push	 ecx
  00004	89 4d fc	 mov	 DWORD PTR _this$[ebp], ecx

; 327  : 			++(*(const_iterator *)this);

  00007	8b 4d fc	 mov	 ecx, DWORD PTR _this$[ebp]
  0000a	e8 00 00 00 00	 call	 ??Econst_iterator@?$_Tree@V?$_Tmap_traits@KPAVIData@@U?$less@K@std@@V?$allocator@U?$pair@$$CBKPAVIData@@@std@@@3@$0A@@std@@@std@@QAEAAV012@XZ ; std::_Tree<std::_Tmap_traits<unsigned long,IData *,std::less<unsigned long>,std::allocator<std::pair<unsigned long const ,IData *> >,0> >::const_iterator::operator++

; 328  : 			return (*this);

  0000f	8b 45 fc	 mov	 eax, DWORD PTR _this$[ebp]

; 329  : 			}

  00012	8b e5		 mov	 esp, ebp
  00014	5d		 pop	 ebp
  00015	c3		 ret	 0
??Eiterator@?$_Tree@V?$_Tmap_traits@KPAVIData@@U?$less@K@std@@V?$allocator@U?$pair@$$CBKPAVIData@@@std@@@3@$0A@@std@@@std@@QAEAAV012@XZ ENDP ; std::_Tree<std::_Tmap_traits<unsigned long,IData *,std::less<unsigned long>,std::allocator<std::pair<unsigned long const ,IData *> >,0> >::iterator::operator++
; Function compile flags: /Odt
_TEXT	ENDS
;	COMDAT ?_Mynode@const_iterator@?$_Tree@V?$_Tmap_traits@KPAVIData@@U?$less@K@std@@V?$allocator@U?$pair@$$CBKPAVIData@@@std@@@3@$0A@@std@@@std@@QBEPAU_Node@?$_Tree_nod@V?$_Tmap_traits@KPAVIData@@U?$less@K@std@@V?$allocator@U?$pair@$$CBKPAVIData@@@std@@@3@$0A@@std@@@3@XZ
_TEXT	SEGMENT
_this$ = -4						; size = 4
?_Mynode@const_iterator@?$_Tree@V?$_Tmap_traits@KPAVIData@@U?$less@K@std@@V?$allocator@U?$pair@$$CBKPAVIData@@@std@@@3@$0A@@std@@@std@@QBEPAU_Node@?$_Tree_nod@V?$_Tmap_traits@KPAVIData@@U?$less@K@std@@V?$allocator@U?$pair@$$CBKPAVIData@@@std@@@3@$0A@@std@@@3@XZ PROC NEAR ; std::_Tree<std::_Tmap_traits<unsigned long,IData *,std::less<unsigned long>,std::allocator<std::pair<unsigned long const ,IData *> >,0> >::const_iterator::_Mynode, COMDAT
; _this$ = ecx

; 283  : 			{	// return node pointer

  00000	55		 push	 ebp
  00001	8b ec		 mov	 ebp, esp
  00003	51		 push	 ecx
  00004	89 4d fc	 mov	 DWORD PTR _this$[ebp], ecx

; 284  : 			return (_Ptr);

  00007	8b 45 fc	 mov	 eax, DWORD PTR _this$[ebp]
  0000a	8b 00		 mov	 eax, DWORD PTR [eax]

; 285  : 			}

  0000c	8b e5		 mov	 esp, ebp
  0000e	5d		 pop	 ebp
  0000f	c3		 ret	 0
?_Mynode@const_iterator@?$_Tree@V?$_Tmap_traits@KPAVIData@@U?$less@K@std@@V?$allocator@U?$pair@$$CBKPAVIData@@@std@@@3@$0A@@std@@@std@@QBEPAU_Node@?$_Tree_nod@V?$_Tmap_traits@KPAVIData@@U?$less@K@std@@V?$allocator@U?$pair@$$CBKPAVIData@@@std@@@3@$0A@@std@@@3@XZ ENDP ; std::_Tree<std::_Tmap_traits<unsigned long,IData *,std::less<unsigned long>,std::allocator<std::pair<unsigned long const ,IData *> >,0> >::const_iterator::_Mynode
; Function compile flags: /Odt
; File d:\program files (x86)\microsoft visual studio .net 2003\vc7\include\utility
_TEXT	ENDS
;	COMDAT ??0?$pair@$$CBKPAVIData@@@std@@QAE@ABKABQAVIData@@@Z
_TEXT	SEGMENT
_this$ = -4						; size = 4
__Val1$ = 8						; size = 4
__Val2$ = 12						; size = 4
??0?$pair@$$CBKPAVIData@@@std@@QAE@ABKABQAVIData@@@Z PROC NEAR ; std::pair<unsigned long const ,IData *>::pair<unsigned long const ,IData *>, COMDAT
; _this$ = ecx

; 34   : 		{	// construct from specified values

  00000	55		 push	 ebp
  00001	8b ec		 mov	 ebp, esp
  00003	51		 push	 ecx
  00004	89 4d fc	 mov	 DWORD PTR _this$[ebp], ecx
  00007	8b 45 fc	 mov	 eax, DWORD PTR _this$[ebp]
  0000a	8b 4d 08	 mov	 ecx, DWORD PTR __Val1$[ebp]
  0000d	8b 11		 mov	 edx, DWORD PTR [ecx]
  0000f	89 10		 mov	 DWORD PTR [eax], edx
  00011	8b 45 fc	 mov	 eax, DWORD PTR _this$[ebp]
  00014	8b 4d 0c	 mov	 ecx, DWORD PTR __Val2$[ebp]
  00017	8b 11		 mov	 edx, DWORD PTR [ecx]
  00019	89 50 04	 mov	 DWORD PTR [eax+4], edx

; 35   : 		}

  0001c	8b 45 fc	 mov	 eax, DWORD PTR _this$[ebp]
  0001f	8b e5		 mov	 esp, ebp
  00021	5d		 pop	 ebp
  00022	c2 08 00	 ret	 8
??0?$pair@$$CBKPAVIData@@@std@@QAE@ABKABQAVIData@@@Z ENDP ; std::pair<unsigned long const ,IData *>::pair<unsigned long const ,IData *>
; Function compile flags: /Odt
; File d:\program files (x86)\microsoft visual studio .net 2003\vc7\include\xtree
_TEXT	ENDS
;	COMDAT ?_Isnil@?$_Tree@V?$_Tmap_traits@KPAVIData@@U?$less@K@std@@V?$allocator@U?$pair@$$CBKPAVIData@@@std@@@3@$0A@@std@@@std@@KAAADPAU_Node@?$_Tree_nod@V?$_Tmap_traits@KPAVIData@@U?$less@K@std@@V?$allocator@U?$pair@$$CBKPAVIData@@@std@@@3@$0A@@std@@@2@@Z
_TEXT	SEGMENT
__Pnode$ = 8						; size = 4
?_Isnil@?$_Tree@V?$_Tmap_traits@KPAVIData@@U?$less@K@std@@V?$allocator@U?$pair@$$CBKPAVIData@@@std@@@3@$0A@@std@@@std@@KAAADPAU_Node@?$_Tree_nod@V?$_Tmap_traits@KPAVIData@@U?$less@K@std@@V?$allocator@U?$pair@$$CBKPAVIData@@@std@@@3@$0A@@std@@@2@@Z PROC NEAR ; std::_Tree<std::_Tmap_traits<unsigned long,IData *,std::less<unsigned long>,std::allocator<std::pair<unsigned long const ,IData *> >,0> >::_Isnil, COMDAT

; 136  : 		{	// return reference to nil flag in node

  00000	55		 push	 ebp
  00001	8b ec		 mov	 ebp, esp

; 137  : 		return ((_Charref)(*_Pnode)._Isnil);

  00003	8b 45 08	 mov	 eax, DWORD PTR __Pnode$[ebp]
  00006	83 c0 15	 add	 eax, 21			; 00000015H

; 138  : 		}

  00009	5d		 pop	 ebp
  0000a	c3		 ret	 0
?_Isnil@?$_Tree@V?$_Tmap_traits@KPAVIData@@U?$less@K@std@@V?$allocator@U?$pair@$$CBKPAVIData@@@std@@@3@$0A@@std@@@std@@KAAADPAU_Node@?$_Tree_nod@V?$_Tmap_traits@KPAVIData@@U?$less@K@std@@V?$allocator@U?$pair@$$CBKPAVIData@@@std@@@3@$0A@@std@@@2@@Z ENDP ; std::_Tree<std::_Tmap_traits<unsigned long,IData *,std::less<unsigned long>,std::allocator<std::pair<unsigned long const ,IData *> >,0> >::_Isnil
; Function compile flags: /Odt
_TEXT	ENDS
;	COMDAT ?_Left@?$_Tree@V?$_Tmap_traits@KPAVIData@@U?$less@K@std@@V?$allocator@U?$pair@$$CBKPAVIData@@@std@@@3@$0A@@std@@@std@@KAAAPAU_Node@?$_Tree_nod@V?$_Tmap_traits@KPAVIData@@U?$less@K@std@@V?$allocator@U?$pair@$$CBKPAVIData@@@std@@@3@$0A@@std@@@2@PAU342@@Z
_TEXT	SEGMENT
__Pnode$ = 8						; size = 4
?_Left@?$_Tree@V?$_Tmap_traits@KPAVIData@@U?$less@K@std@@V?$allocator@U?$pair@$$CBKPAVIData@@@std@@@3@$0A@@std@@@std@@KAAAPAU_Node@?$_Tree_nod@V?$_Tmap_traits@KPAVIData@@U?$less@K@std@@V?$allocator@U?$pair@$$CBKPAVIData@@@std@@@3@$0A@@std@@@2@PAU342@@Z PROC NEAR ; std::_Tree<std::_Tmap_traits<unsigned long,IData *,std::less<unsigned long>,std::allocator<std::pair<unsigned long const ,IData *> >,0> >::_Left, COMDAT

; 146  : 		{	// return reference to left pointer in node

  00000	55		 push	 ebp
  00001	8b ec		 mov	 ebp, esp

; 147  : 		return ((_Nodepref)(*_Pnode)._Left);

  00003	8b 45 08	 mov	 eax, DWORD PTR __Pnode$[ebp]

; 148  : 		}

  00006	5d		 pop	 ebp
  00007	c3		 ret	 0
?_Left@?$_Tree@V?$_Tmap_traits@KPAVIData@@U?$less@K@std@@V?$allocator@U?$pair@$$CBKPAVIData@@@std@@@3@$0A@@std@@@std@@KAAAPAU_Node@?$_Tree_nod@V?$_Tmap_traits@KPAVIData@@U?$less@K@std@@V?$allocator@U?$pair@$$CBKPAVIData@@@std@@@3@$0A@@std@@@2@PAU342@@Z ENDP ; std::_Tree<std::_Tmap_traits<unsigned long,IData *,std::less<unsigned long>,std::allocator<std::pair<unsigned long const ,IData *> >,0> >::_Left
; Function compile flags: /Odt
_TEXT	ENDS
;	COMDAT ?_Parent@?$_Tree@V?$_Tmap_traits@KPAVIData@@U?$less@K@std@@V?$allocator@U?$pair@$$CBKPAVIData@@@std@@@3@$0A@@std@@@std@@KAAAPAU_Node@?$_Tree_nod@V?$_Tmap_traits@KPAVIData@@U?$less@K@std@@V?$allocator@U?$pair@$$CBKPAVIData@@@std@@@3@$0A@@std@@@2@PAU342@@Z
_TEXT	SEGMENT
__Pnode$ = 8						; size = 4
?_Parent@?$_Tree@V?$_Tmap_traits@KPAVIData@@U?$less@K@std@@V?$allocator@U?$pair@$$CBKPAVIData@@@std@@@3@$0A@@std@@@std@@KAAAPAU_Node@?$_Tree_nod@V?$_Tmap_traits@KPAVIData@@U?$less@K@std@@V?$allocator@U?$pair@$$CBKPAVIData@@@std@@@3@$0A@@std@@@2@PAU342@@Z PROC NEAR ; std::_Tree<std::_Tmap_traits<unsigned long,IData *,std::less<unsigned long>,std::allocator<std::pair<unsigned long const ,IData *> >,0> >::_Parent, COMDAT

; 151  : 		{	// return reference to parent pointer in node

  00000	55		 push	 ebp
  00001	8b ec		 mov	 ebp, esp

; 152  : 		return ((_Nodepref)(*_Pnode)._Parent);

  00003	8b 45 08	 mov	 eax, DWORD PTR __Pnode$[ebp]
  00006	83 c0 04	 add	 eax, 4

; 153  : 		}

  00009	5d		 pop	 ebp
  0000a	c3		 ret	 0
?_Parent@?$_Tree@V?$_Tmap_traits@KPAVIData@@U?$less@K@std@@V?$allocator@U?$pair@$$CBKPAVIData@@@std@@@3@$0A@@std@@@std@@KAAAPAU_Node@?$_Tree_nod@V?$_Tmap_traits@KPAVIData@@U?$less@K@std@@V?$allocator@U?$pair@$$CBKPAVIData@@@std@@@3@$0A@@std@@@2@PAU342@@Z ENDP ; std::_Tree<std::_Tmap_traits<unsigned long,IData *,std::less<unsigned long>,std::allocator<std::pair<unsigned long const ,IData *> >,0> >::_Parent
; Function compile flags: /Odt
_TEXT	ENDS
;	COMDAT ?_Right@?$_Tree@V?$_Tmap_traits@KPAVIData@@U?$less@K@std@@V?$allocator@U?$pair@$$CBKPAVIData@@@std@@@3@$0A@@std@@@std@@KAAAPAU_Node@?$_Tree_nod@V?$_Tmap_traits@KPAVIData@@U?$less@K@std@@V?$allocator@U?$pair@$$CBKPAVIData@@@std@@@3@$0A@@std@@@2@PAU342@@Z
_TEXT	SEGMENT
__Pnode$ = 8						; size = 4
?_Right@?$_Tree@V?$_Tmap_traits@KPAVIData@@U?$less@K@std@@V?$allocator@U?$pair@$$CBKPAVIData@@@std@@@3@$0A@@std@@@std@@KAAAPAU_Node@?$_Tree_nod@V?$_Tmap_traits@KPAVIData@@U?$less@K@std@@V?$allocator@U?$pair@$$CBKPAVIData@@@std@@@3@$0A@@std@@@2@PAU342@@Z PROC NEAR ; std::_Tree<std::_Tmap_traits<unsigned long,IData *,std::less<unsigned long>,std::allocator<std::pair<unsigned long const ,IData *> >,0> >::_Right, COMDAT

; 156  : 		{	// return reference to right pointer in node

  00000	55		 push	 ebp
  00001	8b ec		 mov	 ebp, esp

; 157  : 		return ((_Nodepref)(*_Pnode)._Right);

  00003	8b 45 08	 mov	 eax, DWORD PTR __Pnode$[ebp]
  00006	83 c0 08	 add	 eax, 8

; 158  : 		}

  00009	5d		 pop	 ebp
  0000a	c3		 ret	 0
?_Right@?$_Tree@V?$_Tmap_traits@KPAVIData@@U?$less@K@std@@V?$allocator@U?$pair@$$CBKPAVIData@@@std@@@3@$0A@@std@@@std@@KAAAPAU_Node@?$_Tree_nod@V?$_Tmap_traits@KPAVIData@@U?$less@K@std@@V?$allocator@U?$pair@$$CBKPAVIData@@@std@@@3@$0A@@std@@@2@PAU342@@Z ENDP ; std::_Tree<std::_Tmap_traits<unsigned long,IData *,std::less<unsigned long>,std::allocator<std::pair<unsigned long const ,IData *> >,0> >::_Right
; Function compile flags: /Odt
_TEXT	ENDS
;	COMDAT ?_Myval@?$_Tree@V?$_Tmap_traits@KPAVIData@@U?$less@K@std@@V?$allocator@U?$pair@$$CBKPAVIData@@@std@@@3@$0A@@std@@@std@@KAAAU?$pair@$$CBKPAVIData@@@2@PAU_Node@?$_Tree_nod@V?$_Tmap_traits@KPAVIData@@U?$less@K@std@@V?$allocator@U?$pair@$$CBKPAVIData@@@std@@@3@$0A@@std@@@2@@Z
_TEXT	SEGMENT
__Pnode$ = 8						; size = 4
?_Myval@?$_Tree@V?$_Tmap_traits@KPAVIData@@U?$less@K@std@@V?$allocator@U?$pair@$$CBKPAVIData@@@std@@@3@$0A@@std@@@std@@KAAAU?$pair@$$CBKPAVIData@@@2@PAU_Node@?$_Tree_nod@V?$_Tmap_traits@KPAVIData@@U?$less@K@std@@V?$allocator@U?$pair@$$CBKPAVIData@@@std@@@3@$0A@@std@@@2@@Z PROC NEAR ; std::_Tree<std::_Tmap_traits<unsigned long,IData *,std::less<unsigned long>,std::allocator<std::pair<unsigned long const ,IData *> >,0> >::_Myval, COMDAT

; 161  : 		{	// return reference to value in node

  00000	55		 push	 ebp
  00001	8b ec		 mov	 ebp, esp

; 162  : 		return ((_Vref)(*_Pnode)._Myval);

  00003	8b 45 08	 mov	 eax, DWORD PTR __Pnode$[ebp]
  00006	83 c0 0c	 add	 eax, 12			; 0000000cH

; 163  : 		}

  00009	5d		 pop	 ebp
  0000a	c3		 ret	 0
?_Myval@?$_Tree@V?$_Tmap_traits@KPAVIData@@U?$less@K@std@@V?$allocator@U?$pair@$$CBKPAVIData@@@std@@@3@$0A@@std@@@std@@KAAAU?$pair@$$CBKPAVIData@@@2@PAU_Node@?$_Tree_nod@V?$_Tmap_traits@KPAVIData@@U?$less@K@std@@V?$allocator@U?$pair@$$CBKPAVIData@@@std@@@3@$0A@@std@@@2@@Z ENDP ; std::_Tree<std::_Tmap_traits<unsigned long,IData *,std::less<unsigned long>,std::allocator<std::pair<unsigned long const ,IData *> >,0> >::_Myval
; Function compile flags: /Odt
_TEXT	ENDS
;	COMDAT ?size@?$_Tree@V?$_Tmap_traits@KPAVIData@@U?$less@K@std@@V?$allocator@U?$pair@$$CBKPAVIData@@@std@@@3@$0A@@std@@@std@@QBEIXZ
_TEXT	SEGMENT
_this$ = -4						; size = 4
?size@?$_Tree@V?$_Tmap_traits@KPAVIData@@U?$less@K@std@@V?$allocator@U?$pair@$$CBKPAVIData@@@std@@@3@$0A@@std@@@std@@QBEIXZ PROC NEAR ; std::_Tree<std::_Tmap_traits<unsigned long,IData *,std::less<unsigned long>,std::allocator<std::pair<unsigned long const ,IData *> >,0> >::size, COMDAT
; _this$ = ecx

; 447  : 		{	// return length of sequence

  00000	55		 push	 ebp
  00001	8b ec		 mov	 ebp, esp
  00003	51		 push	 ecx
  00004	89 4d fc	 mov	 DWORD PTR _this$[ebp], ecx

; 448  : 		return (_Mysize);

  00007	8b 45 fc	 mov	 eax, DWORD PTR _this$[ebp]
  0000a	8b 40 08	 mov	 eax, DWORD PTR [eax+8]

; 449  : 		}

  0000d	8b e5		 mov	 esp, ebp
  0000f	5d		 pop	 ebp
  00010	c3		 ret	 0
?size@?$_Tree@V?$_Tmap_traits@KPAVIData@@U?$less@K@std@@V?$allocator@U?$pair@$$CBKPAVIData@@@std@@@3@$0A@@std@@@std@@QBEIXZ ENDP ; std::_Tree<std::_Tmap_traits<unsigned long,IData *,std::less<unsigned long>,std::allocator<std::pair<unsigned long const ,IData *> >,0> >::size
_TEXT	ENDS
PUBLIC	??0?$pair@Viterator@?$_Tree@V?$_Tmap_traits@KPAVIData@@U?$less@K@std@@V?$allocator@U?$pair@$$CBKPAVIData@@@std@@@3@$0A@@std@@@std@@_N@std@@QAE@ABViterator@?$_Tree@V?$_Tmap_traits@KPAVIData@@U?$less@K@std@@V?$allocator@U?$pair@$$CBKPAVIData@@@std@@@3@$0A@@std@@@1@AB_N@Z ; std::pair<std::_Tree<std::_Tmap_traits<unsigned long,IData *,std::less<unsigned long>,std::allocator<std::pair<unsigned long const ,IData *> >,0> >::iterator,bool>::pair<std::_Tree<std::_Tmap_traits<unsigned long,IData *,std::less<unsigned long>,std::allocator<std::pair<unsigned long const ,IData *> >,0> >::iterator,bool>
; Function compile flags: /Odt
;	COMDAT ?insert@?$_Tree@V?$_Tmap_traits@KPAVIData@@U?$less@K@std@@V?$allocator@U?$pair@$$CBKPAVIData@@@std@@@3@$0A@@std@@@std@@QAE?AU?$pair@Viterator@?$_Tree@V?$_Tmap_traits@KPAVIData@@U?$less@K@std@@V?$allocator@U?$pair@$$CBKPAVIData@@@std@@@3@$0A@@std@@@std@@_N@2@ABU?$pair@$$CBKPAVIData@@@2@@Z
_TEXT	SEGMENT
tv85 = -56						; size = 4
_this$ = -52						; size = 4
$T200672 = -45						; size = 1
$T200671 = -44						; size = 4
$T200670 = -37						; size = 1
$T200669 = -36						; size = 4
$T200668 = -29						; size = 1
$T200667 = -28						; size = 4
$T200666 = -24						; size = 4
$T200665 = -17						; size = 1
__Where$199664 = -16					; size = 4
__Trynode$ = -12					; size = 4
__Wherenode$ = -8					; size = 4
__Addleft$ = -1						; size = 1
___$ReturnUdt$ = 8					; size = 4
__Val$ = 12						; size = 4
?insert@?$_Tree@V?$_Tmap_traits@KPAVIData@@U?$less@K@std@@V?$allocator@U?$pair@$$CBKPAVIData@@@std@@@3@$0A@@std@@@std@@QAE?AU?$pair@Viterator@?$_Tree@V?$_Tmap_traits@KPAVIData@@U?$less@K@std@@V?$allocator@U?$pair@$$CBKPAVIData@@@std@@@3@$0A@@std@@@std@@_N@2@ABU?$pair@$$CBKPAVIData@@@2@@Z PROC NEAR ; std::_Tree<std::_Tmap_traits<unsigned long,IData *,std::less<unsigned long>,std::allocator<std::pair<unsigned long const ,IData *> >,0> >::insert, COMDAT
; _this$ = ecx

; 477  : 		{	// try to insert node with value _Val

  00000	55		 push	 ebp
  00001	8b ec		 mov	 ebp, esp
  00003	83 ec 38	 sub	 esp, 56			; 00000038H
  00006	89 4d cc	 mov	 DWORD PTR _this$[ebp], ecx

; 478  : 		_Nodeptr _Trynode = _Root();

  00009	8b 4d cc	 mov	 ecx, DWORD PTR _this$[ebp]
  0000c	e8 00 00 00 00	 call	 ?_Root@?$_Tree@V?$_Tmap_traits@KPAVIData@@U?$less@K@std@@V?$allocator@U?$pair@$$CBKPAVIData@@@std@@@3@$0A@@std@@@std@@IAEAAPAU_Node@?$_Tree_nod@V?$_Tmap_traits@KPAVIData@@U?$less@K@std@@V?$allocator@U?$pair@$$CBKPAVIData@@@std@@@3@$0A@@std@@@2@XZ ; std::_Tree<std::_Tmap_traits<unsigned long,IData *,std::less<unsigned long>,std::allocator<std::pair<unsigned long const ,IData *> >,0> >::_Root
  00011	8b 00		 mov	 eax, DWORD PTR [eax]
  00013	89 45 f4	 mov	 DWORD PTR __Trynode$[ebp], eax

; 479  : 		_Nodeptr _Wherenode = _Myhead;

  00016	8b 4d cc	 mov	 ecx, DWORD PTR _this$[ebp]
  00019	8b 51 04	 mov	 edx, DWORD PTR [ecx+4]
  0001c	89 55 f8	 mov	 DWORD PTR __Wherenode$[ebp], edx

; 480  : 		bool _Addleft = true;	// add to left of head if tree empty

  0001f	c6 45 ff 01	 mov	 BYTE PTR __Addleft$[ebp], 1
$L199653:

; 481  : 		while (!_Isnil(_Trynode))

  00023	8b 45 f4	 mov	 eax, DWORD PTR __Trynode$[ebp]
  00026	50		 push	 eax
  00027	e8 00 00 00 00	 call	 ?_Isnil@?$_Tree@V?$_Tmap_traits@KPAVIData@@U?$less@K@std@@V?$allocator@U?$pair@$$CBKPAVIData@@@std@@@3@$0A@@std@@@std@@KAAADPAU_Node@?$_Tree_nod@V?$_Tmap_traits@KPAVIData@@U?$less@K@std@@V?$allocator@U?$pair@$$CBKPAVIData@@@std@@@3@$0A@@std@@@2@@Z ; std::_Tree<std::_Tmap_traits<unsigned long,IData *,std::less<unsigned long>,std::allocator<std::pair<unsigned long const ,IData *> >,0> >::_Isnil
  0002c	83 c4 04	 add	 esp, 4
  0002f	0f be 08	 movsx	 ecx, BYTE PTR [eax]
  00032	85 c9		 test	 ecx, ecx
  00034	75 5f		 jne	 SHORT $L199654

; 482  : 			{	// look for leaf to insert before (_Addleft) or after
; 483  : 			_Wherenode = _Trynode;

  00036	8b 55 f4	 mov	 edx, DWORD PTR __Trynode$[ebp]
  00039	89 55 f8	 mov	 DWORD PTR __Wherenode$[ebp], edx

; 484  : 			_Addleft = this->comp(this->_Kfn(_Val), _Key(_Trynode));

  0003c	8b 45 f4	 mov	 eax, DWORD PTR __Trynode$[ebp]
  0003f	50		 push	 eax
  00040	e8 00 00 00 00	 call	 ?_Key@?$_Tree@V?$_Tmap_traits@KPAVIData@@U?$less@K@std@@V?$allocator@U?$pair@$$CBKPAVIData@@@std@@@3@$0A@@std@@@std@@KAABKPAU_Node@?$_Tree_nod@V?$_Tmap_traits@KPAVIData@@U?$less@K@std@@V?$allocator@U?$pair@$$CBKPAVIData@@@std@@@3@$0A@@std@@@2@@Z ; std::_Tree<std::_Tmap_traits<unsigned long,IData *,std::less<unsigned long>,std::allocator<std::pair<unsigned long const ,IData *> >,0> >::_Key
  00045	83 c4 04	 add	 esp, 4
  00048	50		 push	 eax
  00049	8b 4d 0c	 mov	 ecx, DWORD PTR __Val$[ebp]
  0004c	51		 push	 ecx
  0004d	e8 00 00 00 00	 call	 ?_Kfn@?$_Tmap_traits@KPAVIData@@U?$less@K@std@@V?$allocator@U?$pair@$$CBKPAVIData@@@std@@@3@$0A@@std@@SAABKABU?$pair@$$CBKPAVIData@@@2@@Z ; std::_Tmap_traits<unsigned long,IData *,std::less<unsigned long>,std::allocator<std::pair<unsigned long const ,IData *> >,0>::_Kfn
  00052	83 c4 04	 add	 esp, 4
  00055	50		 push	 eax
  00056	8b 4d cc	 mov	 ecx, DWORD PTR _this$[ebp]
  00059	e8 00 00 00 00	 call	 ??R?$less@K@std@@QBE_NABK0@Z ; std::less<unsigned long>::operator()
  0005e	88 45 ff	 mov	 BYTE PTR __Addleft$[ebp], al

; 485  : 			_Trynode = _Addleft ? _Left(_Trynode) : _Right(_Trynode);

  00061	0f b6 55 ff	 movzx	 edx, BYTE PTR __Addleft$[ebp]
  00065	85 d2		 test	 edx, edx
  00067	74 13		 je	 SHORT $L200663
  00069	8b 45 f4	 mov	 eax, DWORD PTR __Trynode$[ebp]
  0006c	50		 push	 eax
  0006d	e8 00 00 00 00	 call	 ?_Left@?$_Tree@V?$_Tmap_traits@KPAVIData@@U?$less@K@std@@V?$allocator@U?$pair@$$CBKPAVIData@@@std@@@3@$0A@@std@@@std@@KAAAPAU_Node@?$_Tree_nod@V?$_Tmap_traits@KPAVIData@@U?$less@K@std@@V?$allocator@U?$pair@$$CBKPAVIData@@@std@@@3@$0A@@std@@@2@PAU342@@Z ; std::_Tree<std::_Tmap_traits<unsigned long,IData *,std::less<unsigned long>,std::allocator<std::pair<unsigned long const ,IData *> >,0> >::_Left
  00072	83 c4 04	 add	 esp, 4
  00075	8b 08		 mov	 ecx, DWORD PTR [eax]
  00077	89 4d c8	 mov	 DWORD PTR tv85[ebp], ecx
  0007a	eb 11		 jmp	 SHORT $L200664
$L200663:
  0007c	8b 55 f4	 mov	 edx, DWORD PTR __Trynode$[ebp]
  0007f	52		 push	 edx
  00080	e8 00 00 00 00	 call	 ?_Right@?$_Tree@V?$_Tmap_traits@KPAVIData@@U?$less@K@std@@V?$allocator@U?$pair@$$CBKPAVIData@@@std@@@3@$0A@@std@@@std@@KAAAPAU_Node@?$_Tree_nod@V?$_Tmap_traits@KPAVIData@@U?$less@K@std@@V?$allocator@U?$pair@$$CBKPAVIData@@@std@@@3@$0A@@std@@@2@PAU342@@Z ; std::_Tree<std::_Tmap_traits<unsigned long,IData *,std::less<unsigned long>,std::allocator<std::pair<unsigned long const ,IData *> >,0> >::_Right
  00085	83 c4 04	 add	 esp, 4
  00088	8b 00		 mov	 eax, DWORD PTR [eax]
  0008a	89 45 c8	 mov	 DWORD PTR tv85[ebp], eax
$L200664:
  0008d	8b 4d c8	 mov	 ecx, DWORD PTR tv85[ebp]
  00090	89 4d f4	 mov	 DWORD PTR __Trynode$[ebp], ecx

; 486  : 			}

  00093	eb 8e		 jmp	 SHORT $L199653
$L199654:

; 487  : 
; 488  : 		if (this->_Multi)

  00095	33 d2		 xor	 edx, edx
  00097	74 31		 je	 SHORT $L199655

; 489  : 			return (_Pairib(_Insert(_Addleft, _Wherenode, _Val), true));

  00099	c6 45 ef 01	 mov	 BYTE PTR $T200665[ebp], 1
  0009d	8d 45 ef	 lea	 eax, DWORD PTR $T200665[ebp]
  000a0	50		 push	 eax
  000a1	8b 4d 0c	 mov	 ecx, DWORD PTR __Val$[ebp]
  000a4	51		 push	 ecx
  000a5	8b 55 f8	 mov	 edx, DWORD PTR __Wherenode$[ebp]
  000a8	52		 push	 edx
  000a9	8a 45 ff	 mov	 al, BYTE PTR __Addleft$[ebp]
  000ac	50		 push	 eax
  000ad	8d 4d e8	 lea	 ecx, DWORD PTR $T200666[ebp]
  000b0	51		 push	 ecx
  000b1	8b 4d cc	 mov	 ecx, DWORD PTR _this$[ebp]
  000b4	e8 00 00 00 00	 call	 ?_Insert@?$_Tree@V?$_Tmap_traits@KPAVIData@@U?$less@K@std@@V?$allocator@U?$pair@$$CBKPAVIData@@@std@@@3@$0A@@std@@@std@@IAE?AViterator@12@_NPAU_Node@?$_Tree_nod@V?$_Tmap_traits@KPAVIData@@U?$less@K@std@@V?$allocator@U?$pair@$$CBKPAVIData@@@std@@@3@$0A@@std@@@2@ABU?$pair@$$CBKPAVIData@@@2@@Z ; std::_Tree<std::_Tmap_traits<unsigned long,IData *,std::less<unsigned long>,std::allocator<std::pair<unsigned long const ,IData *> >,0> >::_Insert
  000b9	50		 push	 eax
  000ba	8b 4d 08	 mov	 ecx, DWORD PTR ___$ReturnUdt$[ebp]
  000bd	e8 00 00 00 00	 call	 ??0?$pair@Viterator@?$_Tree@V?$_Tmap_traits@KPAVIData@@U?$less@K@std@@V?$allocator@U?$pair@$$CBKPAVIData@@@std@@@3@$0A@@std@@@std@@_N@std@@QAE@ABViterator@?$_Tree@V?$_Tmap_traits@KPAVIData@@U?$less@K@std@@V?$allocator@U?$pair@$$CBKPAVIData@@@std@@@3@$0A@@std@@@1@AB_N@Z ; std::pair<std::_Tree<std::_Tmap_traits<unsigned long,IData *,std::less<unsigned long>,std::allocator<std::pair<unsigned long const ,IData *> >,0> >::iterator,bool>::pair<std::_Tree<std::_Tmap_traits<unsigned long,IData *,std::less<unsigned long>,std::allocator<std::pair<unsigned long const ,IData *> >,0> >::iterator,bool>
  000c2	8b 45 08	 mov	 eax, DWORD PTR ___$ReturnUdt$[ebp]
  000c5	e9 d9 00 00 00	 jmp	 $L199648
$L199655:

; 490  : 		else
; 491  : 			{	// insert only if unique
; 492  : 			iterator _Where = _TREE_ITERATOR(_Wherenode);

  000ca	8b 55 f8	 mov	 edx, DWORD PTR __Wherenode$[ebp]
  000cd	52		 push	 edx
  000ce	8d 4d f0	 lea	 ecx, DWORD PTR __Where$199664[ebp]
  000d1	e8 00 00 00 00	 call	 ??0iterator@?$_Tree@V?$_Tmap_traits@KPAVIData@@U?$less@K@std@@V?$allocator@U?$pair@$$CBKPAVIData@@@std@@@3@$0A@@std@@@std@@QAE@PAU_Node@?$_Tree_nod@V?$_Tmap_traits@KPAVIData@@U?$less@K@std@@V?$allocator@U?$pair@$$CBKPAVIData@@@std@@@3@$0A@@std@@@2@@Z ; std::_Tree<std::_Tmap_traits<unsigned long,IData *,std::less<unsigned long>,std::allocator<std::pair<unsigned long const ,IData *> >,0> >::iterator::iterator

; 493  : 			if (!_Addleft)

  000d6	0f b6 45 ff	 movzx	 eax, BYTE PTR __Addleft$[ebp]
  000da	85 c0		 test	 eax, eax
  000dc	75 02		 jne	 SHORT $L199666

; 494  : 				;	// need to test if insert after is okay
; 495  : 			else if (_Where == begin())

  000de	eb 50		 jmp	 SHORT $L199667
$L199666:
  000e0	8d 4d e4	 lea	 ecx, DWORD PTR $T200667[ebp]
  000e3	51		 push	 ecx
  000e4	8b 4d cc	 mov	 ecx, DWORD PTR _this$[ebp]
  000e7	e8 00 00 00 00	 call	 ?begin@?$_Tree@V?$_Tmap_traits@KPAVIData@@U?$less@K@std@@V?$allocator@U?$pair@$$CBKPAVIData@@@std@@@3@$0A@@std@@@std@@QAE?AViterator@12@XZ ; std::_Tree<std::_Tmap_traits<unsigned long,IData *,std::less<unsigned long>,std::allocator<std::pair<unsigned long const ,IData *> >,0> >::begin
  000ec	50		 push	 eax
  000ed	8d 4d f0	 lea	 ecx, DWORD PTR __Where$199664[ebp]
  000f0	e8 00 00 00 00	 call	 ??8const_iterator@?$_Tree@V?$_Tmap_traits@KPAVIData@@U?$less@K@std@@V?$allocator@U?$pair@$$CBKPAVIData@@@std@@@3@$0A@@std@@@std@@QBE_NABV012@@Z ; std::_Tree<std::_Tmap_traits<unsigned long,IData *,std::less<unsigned long>,std::allocator<std::pair<unsigned long const ,IData *> >,0> >::const_iterator::operator==
  000f5	0f b6 d0	 movzx	 edx, al
  000f8	85 d2		 test	 edx, edx
  000fa	74 2c		 je	 SHORT $L199669

; 496  : 				return (_Pairib(_Insert(true, _Wherenode, _Val), true));

  000fc	c6 45 e3 01	 mov	 BYTE PTR $T200668[ebp], 1
  00100	8d 45 e3	 lea	 eax, DWORD PTR $T200668[ebp]
  00103	50		 push	 eax
  00104	8b 4d 0c	 mov	 ecx, DWORD PTR __Val$[ebp]
  00107	51		 push	 ecx
  00108	8b 55 f8	 mov	 edx, DWORD PTR __Wherenode$[ebp]
  0010b	52		 push	 edx
  0010c	6a 01		 push	 1
  0010e	8d 45 dc	 lea	 eax, DWORD PTR $T200669[ebp]
  00111	50		 push	 eax
  00112	8b 4d cc	 mov	 ecx, DWORD PTR _this$[ebp]
  00115	e8 00 00 00 00	 call	 ?_Insert@?$_Tree@V?$_Tmap_traits@KPAVIData@@U?$less@K@std@@V?$allocator@U?$pair@$$CBKPAVIData@@@std@@@3@$0A@@std@@@std@@IAE?AViterator@12@_NPAU_Node@?$_Tree_nod@V?$_Tmap_traits@KPAVIData@@U?$less@K@std@@V?$allocator@U?$pair@$$CBKPAVIData@@@std@@@3@$0A@@std@@@2@ABU?$pair@$$CBKPAVIData@@@2@@Z ; std::_Tree<std::_Tmap_traits<unsigned long,IData *,std::less<unsigned long>,std::allocator<std::pair<unsigned long const ,IData *> >,0> >::_Insert
  0011a	50		 push	 eax
  0011b	8b 4d 08	 mov	 ecx, DWORD PTR ___$ReturnUdt$[ebp]
  0011e	e8 00 00 00 00	 call	 ??0?$pair@Viterator@?$_Tree@V?$_Tmap_traits@KPAVIData@@U?$less@K@std@@V?$allocator@U?$pair@$$CBKPAVIData@@@std@@@3@$0A@@std@@@std@@_N@std@@QAE@ABViterator@?$_Tree@V?$_Tmap_traits@KPAVIData@@U?$less@K@std@@V?$allocator@U?$pair@$$CBKPAVIData@@@std@@@3@$0A@@std@@@1@AB_N@Z ; std::pair<std::_Tree<std::_Tmap_traits<unsigned long,IData *,std::less<unsigned long>,std::allocator<std::pair<unsigned long const ,IData *> >,0> >::iterator,bool>::pair<std::_Tree<std::_Tmap_traits<unsigned long,IData *,std::less<unsigned long>,std::allocator<std::pair<unsigned long const ,IData *> >,0> >::iterator,bool>
  00123	8b 45 08	 mov	 eax, DWORD PTR ___$ReturnUdt$[ebp]
  00126	eb 7b		 jmp	 SHORT $L199648
$L199669:

; 497  : 			else
; 498  : 				--_Where;	// need to test if insert before is okay

  00128	8d 4d f0	 lea	 ecx, DWORD PTR __Where$199664[ebp]
  0012b	e8 00 00 00 00	 call	 ??Fiterator@?$_Tree@V?$_Tmap_traits@KPAVIData@@U?$less@K@std@@V?$allocator@U?$pair@$$CBKPAVIData@@@std@@@3@$0A@@std@@@std@@QAEAAV012@XZ ; std::_Tree<std::_Tmap_traits<unsigned long,IData *,std::less<unsigned long>,std::allocator<std::pair<unsigned long const ,IData *> >,0> >::iterator::operator--
$L199667:

; 499  : 
; 500  : 			if (this->comp(_Key(_Where._Mynode()), this->_Kfn(_Val)))

  00130	8b 4d 0c	 mov	 ecx, DWORD PTR __Val$[ebp]
  00133	51		 push	 ecx
  00134	e8 00 00 00 00	 call	 ?_Kfn@?$_Tmap_traits@KPAVIData@@U?$less@K@std@@V?$allocator@U?$pair@$$CBKPAVIData@@@std@@@3@$0A@@std@@SAABKABU?$pair@$$CBKPAVIData@@@2@@Z ; std::_Tmap_traits<unsigned long,IData *,std::less<unsigned long>,std::allocator<std::pair<unsigned long const ,IData *> >,0>::_Kfn
  00139	83 c4 04	 add	 esp, 4
  0013c	50		 push	 eax
  0013d	8d 4d f0	 lea	 ecx, DWORD PTR __Where$199664[ebp]
  00140	e8 00 00 00 00	 call	 ?_Mynode@const_iterator@?$_Tree@V?$_Tmap_traits@KPAVIData@@U?$less@K@std@@V?$allocator@U?$pair@$$CBKPAVIData@@@std@@@3@$0A@@std@@@std@@QBEPAU_Node@?$_Tree_nod@V?$_Tmap_traits@KPAVIData@@U?$less@K@std@@V?$allocator@U?$pair@$$CBKPAVIData@@@std@@@3@$0A@@std@@@3@XZ ; std::_Tree<std::_Tmap_traits<unsigned long,IData *,std::less<unsigned long>,std::allocator<std::pair<unsigned long const ,IData *> >,0> >::const_iterator::_Mynode
  00145	50		 push	 eax
  00146	e8 00 00 00 00	 call	 ?_Key@?$_Tree@V?$_Tmap_traits@KPAVIData@@U?$less@K@std@@V?$allocator@U?$pair@$$CBKPAVIData@@@std@@@3@$0A@@std@@@std@@KAABKPAU_Node@?$_Tree_nod@V?$_Tmap_traits@KPAVIData@@U?$less@K@std@@V?$allocator@U?$pair@$$CBKPAVIData@@@std@@@3@$0A@@std@@@2@@Z ; std::_Tree<std::_Tmap_traits<unsigned long,IData *,std::less<unsigned long>,std::allocator<std::pair<unsigned long const ,IData *> >,0> >::_Key
  0014b	83 c4 04	 add	 esp, 4
  0014e	50		 push	 eax
  0014f	8b 4d cc	 mov	 ecx, DWORD PTR _this$[ebp]
  00152	e8 00 00 00 00	 call	 ??R?$less@K@std@@QBE_NABK0@Z ; std::less<unsigned long>::operator()
  00157	0f b6 d0	 movzx	 edx, al
  0015a	85 d2		 test	 edx, edx
  0015c	74 2e		 je	 SHORT $L199674

; 501  : 				return (_Pairib(_Insert(_Addleft, _Wherenode, _Val), true));

  0015e	c6 45 db 01	 mov	 BYTE PTR $T200670[ebp], 1
  00162	8d 45 db	 lea	 eax, DWORD PTR $T200670[ebp]
  00165	50		 push	 eax
  00166	8b 4d 0c	 mov	 ecx, DWORD PTR __Val$[ebp]
  00169	51		 push	 ecx
  0016a	8b 55 f8	 mov	 edx, DWORD PTR __Wherenode$[ebp]
  0016d	52		 push	 edx
  0016e	8a 45 ff	 mov	 al, BYTE PTR __Addleft$[ebp]
  00171	50		 push	 eax
  00172	8d 4d d4	 lea	 ecx, DWORD PTR $T200671[ebp]
  00175	51		 push	 ecx
  00176	8b 4d cc	 mov	 ecx, DWORD PTR _this$[ebp]
  00179	e8 00 00 00 00	 call	 ?_Insert@?$_Tree@V?$_Tmap_traits@KPAVIData@@U?$less@K@std@@V?$allocator@U?$pair@$$CBKPAVIData@@@std@@@3@$0A@@std@@@std@@IAE?AViterator@12@_NPAU_Node@?$_Tree_nod@V?$_Tmap_traits@KPAVIData@@U?$less@K@std@@V?$allocator@U?$pair@$$CBKPAVIData@@@std@@@3@$0A@@std@@@2@ABU?$pair@$$CBKPAVIData@@@2@@Z ; std::_Tree<std::_Tmap_traits<unsigned long,IData *,std::less<unsigned long>,std::allocator<std::pair<unsigned long const ,IData *> >,0> >::_Insert
  0017e	50		 push	 eax
  0017f	8b 4d 08	 mov	 ecx, DWORD PTR ___$ReturnUdt$[ebp]
  00182	e8 00 00 00 00	 call	 ??0?$pair@Viterator@?$_Tree@V?$_Tmap_traits@KPAVIData@@U?$less@K@std@@V?$allocator@U?$pair@$$CBKPAVIData@@@std@@@3@$0A@@std@@@std@@_N@std@@QAE@ABViterator@?$_Tree@V?$_Tmap_traits@KPAVIData@@U?$less@K@std@@V?$allocator@U?$pair@$$CBKPAVIData@@@std@@@3@$0A@@std@@@1@AB_N@Z ; std::pair<std::_Tree<std::_Tmap_traits<unsigned long,IData *,std::less<unsigned long>,std::allocator<std::pair<unsigned long const ,IData *> >,0> >::iterator,bool>::pair<std::_Tree<std::_Tmap_traits<unsigned long,IData *,std::less<unsigned long>,std::allocator<std::pair<unsigned long const ,IData *> >,0> >::iterator,bool>
  00187	8b 45 08	 mov	 eax, DWORD PTR ___$ReturnUdt$[ebp]
  0018a	eb 17		 jmp	 SHORT $L199648
$L199674:

; 502  : 			else
; 503  : 				return (_Pairib(_Where, false));

  0018c	c6 45 d3 00	 mov	 BYTE PTR $T200672[ebp], 0
  00190	8d 55 d3	 lea	 edx, DWORD PTR $T200672[ebp]
  00193	52		 push	 edx
  00194	8d 45 f0	 lea	 eax, DWORD PTR __Where$199664[ebp]
  00197	50		 push	 eax
  00198	8b 4d 08	 mov	 ecx, DWORD PTR ___$ReturnUdt$[ebp]
  0019b	e8 00 00 00 00	 call	 ??0?$pair@Viterator@?$_Tree@V?$_Tmap_traits@KPAVIData@@U?$less@K@std@@V?$allocator@U?$pair@$$CBKPAVIData@@@std@@@3@$0A@@std@@@std@@_N@std@@QAE@ABViterator@?$_Tree@V?$_Tmap_traits@KPAVIData@@U?$less@K@std@@V?$allocator@U?$pair@$$CBKPAVIData@@@std@@@3@$0A@@std@@@1@AB_N@Z ; std::pair<std::_Tree<std::_Tmap_traits<unsigned long,IData *,std::less<unsigned long>,std::allocator<std::pair<unsigned long const ,IData *> >,0> >::iterator,bool>::pair<std::_Tree<std::_Tmap_traits<unsigned long,IData *,std::less<unsigned long>,std::allocator<std::pair<unsigned long const ,IData *> >,0> >::iterator,bool>
  001a0	8b 45 08	 mov	 eax, DWORD PTR ___$ReturnUdt$[ebp]
$L199648:

; 504  : 			}
; 505  : 		}

  001a3	8b e5		 mov	 esp, ebp
  001a5	5d		 pop	 ebp
  001a6	c2 08 00	 ret	 8
?insert@?$_Tree@V?$_Tmap_traits@KPAVIData@@U?$less@K@std@@V?$allocator@U?$pair@$$CBKPAVIData@@@std@@@3@$0A@@std@@@std@@QAE?AU?$pair@Viterator@?$_Tree@V?$_Tmap_traits@KPAVIData@@U?$less@K@std@@V?$allocator@U?$pair@$$CBKPAVIData@@@std@@@3@$0A@@std@@@std@@_N@2@ABU?$pair@$$CBKPAVIData@@@2@@Z ENDP ; std::_Tree<std::_Tmap_traits<unsigned long,IData *,std::less<unsigned long>,std::allocator<std::pair<unsigned long const ,IData *> >,0> >::insert
_TEXT	ENDS
PUBLIC	__TI3?AVout_of_range@std@@
PUBLIC	__CTA3?AVout_of_range@std@@
PUBLIC	??_R0?AVout_of_range@std@@@8			; std::out_of_range `RTTI Type Descriptor'
PUBLIC	__CT??_R0?AVout_of_range@std@@@8??0out_of_range@std@@QAE@ABV01@@Z40
PUBLIC	??_R0?AVlogic_error@std@@@8			; std::logic_error `RTTI Type Descriptor'
PUBLIC	__CT??_R0?AVlogic_error@std@@@8??0logic_error@std@@QAE@ABV01@@Z40
PUBLIC	??_R0?AVexception@@@8				; exception `RTTI Type Descriptor'
PUBLIC	__CT??_R0?AVexception@@@8??0exception@@QAE@ABV0@@Z12
PUBLIC	??_C@_0BM@PAPJHAGI@invalid?5map?1set?$DMT?$DO?5iterator?$AA@ ; `string'
PUBLIC	??$swap@D@std@@YAXAAD0@Z			; std::swap<char>
PUBLIC	??0logic_error@std@@QAE@ABV01@@Z		; std::logic_error::logic_error
PUBLIC	?_Color@?$_Tree@V?$_Tmap_traits@KPAVIData@@U?$less@K@std@@V?$allocator@U?$pair@$$CBKPAVIData@@@std@@@3@$0A@@std@@@std@@KAAADPAU_Node@?$_Tree_nod@V?$_Tmap_traits@KPAVIData@@U?$less@K@std@@V?$allocator@U?$pair@$$CBKPAVIData@@@std@@@3@$0A@@std@@@2@@Z ; std::_Tree<std::_Tmap_traits<unsigned long,IData *,std::less<unsigned long>,std::allocator<std::pair<unsigned long const ,IData *> >,0> >::_Color
PUBLIC	??0out_of_range@std@@QAE@ABV?$basic_string@DU?$char_traits@D@std@@V?$allocator@D@2@@1@@Z ; std::out_of_range::out_of_range
PUBLIC	??1out_of_range@std@@UAE@XZ			; std::out_of_range::~out_of_range
PUBLIC	??0out_of_range@std@@QAE@ABV01@@Z		; std::out_of_range::out_of_range
PUBLIC	?_Lrotate@?$_Tree@V?$_Tmap_traits@KPAVIData@@U?$less@K@std@@V?$allocator@U?$pair@$$CBKPAVIData@@@std@@@3@$0A@@std@@@std@@IAEXPAU_Node@?$_Tree_nod@V?$_Tmap_traits@KPAVIData@@U?$less@K@std@@V?$allocator@U?$pair@$$CBKPAVIData@@@std@@@3@$0A@@std@@@2@@Z ; std::_Tree<std::_Tmap_traits<unsigned long,IData *,std::less<unsigned long>,std::allocator<std::pair<unsigned long const ,IData *> >,0> >::_Lrotate
PUBLIC	?_Max@?$_Tree@V?$_Tmap_traits@KPAVIData@@U?$less@K@std@@V?$allocator@U?$pair@$$CBKPAVIData@@@std@@@3@$0A@@std@@@std@@KAPAU_Node@?$_Tree_nod@V?$_Tmap_traits@KPAVIData@@U?$less@K@std@@V?$allocator@U?$pair@$$CBKPAVIData@@@std@@@3@$0A@@std@@@2@PAU342@@Z ; std::_Tree<std::_Tmap_traits<unsigned long,IData *,std::less<unsigned long>,std::allocator<std::pair<unsigned long const ,IData *> >,0> >::_Max
PUBLIC	?_Min@?$_Tree@V?$_Tmap_traits@KPAVIData@@U?$less@K@std@@V?$allocator@U?$pair@$$CBKPAVIData@@@std@@@3@$0A@@std@@@std@@KAPAU_Node@?$_Tree_nod@V?$_Tmap_traits@KPAVIData@@U?$less@K@std@@V?$allocator@U?$pair@$$CBKPAVIData@@@std@@@3@$0A@@std@@@2@PAU342@@Z ; std::_Tree<std::_Tmap_traits<unsigned long,IData *,std::less<unsigned long>,std::allocator<std::pair<unsigned long const ,IData *> >,0> >::_Min
PUBLIC	?_Rrotate@?$_Tree@V?$_Tmap_traits@KPAVIData@@U?$less@K@std@@V?$allocator@U?$pair@$$CBKPAVIData@@@std@@@3@$0A@@std@@@std@@IAEXPAU_Node@?$_Tree_nod@V?$_Tmap_traits@KPAVIData@@U?$less@K@std@@V?$allocator@U?$pair@$$CBKPAVIData@@@std@@@3@$0A@@std@@@2@@Z ; std::_Tree<std::_Tmap_traits<unsigned long,IData *,std::less<unsigned long>,std::allocator<std::pair<unsigned long const ,IData *> >,0> >::_Rrotate
EXTRN	??0exception@@QAE@ABV0@@Z:NEAR			; exception::exception
EXTRN	__CxxThrowException@8:NEAR
;	COMDAT xdata$x
xdata$x	SEGMENT
$T200686 DD	0ffffffffH
	DD	FLAT:$L200682
$T200684 DD	019930520H
	DD	01H
	DD	FLAT:$T200686
	DD	2 DUP(00H)
	DD	2 DUP(00H)
xdata$x	ENDS
;	COMDAT ??_C@_0BM@PAPJHAGI@invalid?5map?1set?$DMT?$DO?5iterator?$AA@
CONST	SEGMENT
??_C@_0BM@PAPJHAGI@invalid?5map?1set?$DMT?$DO?5iterator?$AA@ DB 'invalid '
	DB	'map/set<T> iterator', 00H			; `string'
CONST	ENDS
;	COMDAT __TI3?AVout_of_range@std@@
xdata$x	SEGMENT
__TI3?AVout_of_range@std@@ DD 00H
	DD	FLAT:??1out_of_range@std@@UAE@XZ
	DD	00H
	DD	FLAT:__CTA3?AVout_of_range@std@@
xdata$x	ENDS
;	COMDAT __CTA3?AVout_of_range@std@@
xdata$x	SEGMENT
__CTA3?AVout_of_range@std@@ DD 03H
	DD	FLAT:__CT??_R0?AVout_of_range@std@@@8??0out_of_range@std@@QAE@ABV01@@Z40
	DD	FLAT:__CT??_R0?AVlogic_error@std@@@8??0logic_error@std@@QAE@ABV01@@Z40
	DD	FLAT:__CT??_R0?AVexception@@@8??0exception@@QAE@ABV0@@Z12
xdata$x	ENDS
;	COMDAT __CT??_R0?AVout_of_range@std@@@8??0out_of_range@std@@QAE@ABV01@@Z40
xdata$x	SEGMENT
__CT??_R0?AVout_of_range@std@@@8??0out_of_range@std@@QAE@ABV01@@Z40 DD 00H
	DD	FLAT:??_R0?AVout_of_range@std@@@8
	DD	00H
	DD	0ffffffffH
	ORG $+4
	DD	028H
	DD	FLAT:??0out_of_range@std@@QAE@ABV01@@Z
xdata$x	ENDS
;	COMDAT ??_R0?AVout_of_range@std@@@8
_DATA	SEGMENT
??_R0?AVout_of_range@std@@@8 DD FLAT:??_7type_info@@6B@	; std::out_of_range `RTTI Type Descriptor'
	DD	00H
	DB	'.?AVout_of_range@std@@', 00H
_DATA	ENDS
;	COMDAT __CT??_R0?AVlogic_error@std@@@8??0logic_error@std@@QAE@ABV01@@Z40
xdata$x	SEGMENT
__CT??_R0?AVlogic_error@std@@@8??0logic_error@std@@QAE@ABV01@@Z40 DD 00H
	DD	FLAT:??_R0?AVlogic_error@std@@@8
	DD	00H
	DD	0ffffffffH
	ORG $+4
	DD	028H
	DD	FLAT:??0logic_error@std@@QAE@ABV01@@Z
xdata$x	ENDS
;	COMDAT ??_R0?AVlogic_error@std@@@8
_DATA	SEGMENT
??_R0?AVlogic_error@std@@@8 DD FLAT:??_7type_info@@6B@	; std::logic_error `RTTI Type Descriptor'
	DD	00H
	DB	'.?AVlogic_error@std@@', 00H
	ORG $-30
	DD	FLAT:??_7type_info@@6B@
	DD	00H
	DB	'.?AVlogic_error@std@@', 00H
_DATA	ENDS
;	COMDAT __CT??_R0?AVexception@@@8??0exception@@QAE@ABV0@@Z12
xdata$x	SEGMENT
__CT??_R0?AVexception@@@8??0exception@@QAE@ABV0@@Z12 DD 00H
	DD	FLAT:??_R0?AVexception@@@8
	DD	00H
	DD	0ffffffffH
	ORG $+4
	DD	0cH
	DD	FLAT:??0exception@@QAE@ABV0@@Z
xdata$x	ENDS
;	COMDAT ??_R0?AVexception@@@8
_DATA	SEGMENT
??_R0?AVexception@@@8 DD FLAT:??_7type_info@@6B@	; exception `RTTI Type Descriptor'
	DD	00H
	DB	'.?AVexception@@', 00H
	ORG $-24
	DD	FLAT:??_7type_info@@6B@
	DD	00H
	DB	'.?AVexception@@', 00H
; Function compile flags: /Odt
_DATA	ENDS
;	COMDAT ?erase@?$_Tree@V?$_Tmap_traits@KPAVIData@@U?$less@K@std@@V?$allocator@U?$pair@$$CBKPAVIData@@@std@@@3@$0A@@std@@@std@@QAE?AViterator@12@V312@@Z
_TEXT	SEGMENT
tv177 = -108						; size = 4
tv165 = -104						; size = 4
_this$ = -100						; size = 4
$T200676 = -96						; size = 28
$T200675 = -68						; size = 40
__Fixnodeparent$ = -28					; size = 4
__Pnode$ = -24						; size = 4
__Fixnode$ = -20					; size = 4
__Erasednode$ = -16					; size = 4
__$EHRec$ = -12						; size = 12
___$ReturnUdt$ = 8					; size = 4
__Where$ = 12						; size = 4
?erase@?$_Tree@V?$_Tmap_traits@KPAVIData@@U?$less@K@std@@V?$allocator@U?$pair@$$CBKPAVIData@@@std@@@3@$0A@@std@@@std@@QAE?AViterator@12@V312@@Z PROC NEAR ; std::_Tree<std::_Tmap_traits<unsigned long,IData *,std::less<unsigned long>,std::allocator<std::pair<unsigned long const ,IData *> >,0> >::erase, COMDAT
; _this$ = ecx

; 590  : 		{	// erase element at _Where

  00000	55		 push	 ebp
  00001	8b ec		 mov	 ebp, esp
  00003	6a ff		 push	 -1
  00005	68 00 00 00 00	 push	 __ehhandler$?erase@?$_Tree@V?$_Tmap_traits@KPAVIData@@U?$less@K@std@@V?$allocator@U?$pair@$$CBKPAVIData@@@std@@@3@$0A@@std@@@std@@QAE?AViterator@12@V312@@Z
  0000a	64 a1 00 00 00
	00		 mov	 eax, DWORD PTR fs:__except_list
  00010	50		 push	 eax
  00011	64 89 25 00 00
	00 00		 mov	 DWORD PTR fs:__except_list, esp
  00018	83 ec 60	 sub	 esp, 96			; 00000060H
  0001b	56		 push	 esi
  0001c	89 4d 9c	 mov	 DWORD PTR _this$[ebp], ecx

; 591  : 		if (_Isnil(_Where._Mynode()))

  0001f	8d 4d 0c	 lea	 ecx, DWORD PTR __Where$[ebp]
  00022	e8 00 00 00 00	 call	 ?_Mynode@const_iterator@?$_Tree@V?$_Tmap_traits@KPAVIData@@U?$less@K@std@@V?$allocator@U?$pair@$$CBKPAVIData@@@std@@@3@$0A@@std@@@std@@QBEPAU_Node@?$_Tree_nod@V?$_Tmap_traits@KPAVIData@@U?$less@K@std@@V?$allocator@U?$pair@$$CBKPAVIData@@@std@@@3@$0A@@std@@@3@XZ ; std::_Tree<std::_Tmap_traits<unsigned long,IData *,std::less<unsigned long>,std::allocator<std::pair<unsigned long const ,IData *> >,0> >::const_iterator::_Mynode
  00027	50		 push	 eax
  00028	e8 00 00 00 00	 call	 ?_Isnil@?$_Tree@V?$_Tmap_traits@KPAVIData@@U?$less@K@std@@V?$allocator@U?$pair@$$CBKPAVIData@@@std@@@3@$0A@@std@@@std@@KAAADPAU_Node@?$_Tree_nod@V?$_Tmap_traits@KPAVIData@@U?$less@K@std@@V?$allocator@U?$pair@$$CBKPAVIData@@@std@@@3@$0A@@std@@@2@@Z ; std::_Tree<std::_Tmap_traits<unsigned long,IData *,std::less<unsigned long>,std::allocator<std::pair<unsigned long const ,IData *> >,0> >::_Isnil
  0002d	83 c4 04	 add	 esp, 4
  00030	0f be 00	 movsx	 eax, BYTE PTR [eax]
  00033	85 c0		 test	 eax, eax
  00035	74 2f		 je	 SHORT $L199684

; 592  : 			_THROW(out_of_range, "invalid map/set<T> iterator");

  00037	68 00 00 00 00	 push	 OFFSET FLAT:??_C@_0BM@PAPJHAGI@invalid?5map?1set?$DMT?$DO?5iterator?$AA@
  0003c	8d 4d a0	 lea	 ecx, DWORD PTR $T200676[ebp]
  0003f	ff 15 00 00 00
	00		 call	 DWORD PTR __imp_??0?$basic_string@DU?$char_traits@D@std@@V?$allocator@D@2@@std@@QAE@PBD@Z
  00045	c7 45 fc 00 00
	00 00		 mov	 DWORD PTR __$EHRec$[ebp+8], 0
  0004c	8d 4d a0	 lea	 ecx, DWORD PTR $T200676[ebp]
  0004f	51		 push	 ecx
  00050	8d 4d bc	 lea	 ecx, DWORD PTR $T200675[ebp]
  00053	e8 00 00 00 00	 call	 ??0out_of_range@std@@QAE@ABV?$basic_string@DU?$char_traits@D@std@@V?$allocator@D@2@@1@@Z ; std::out_of_range::out_of_range
  00058	68 00 00 00 00	 push	 OFFSET FLAT:__TI3?AVout_of_range@std@@
  0005d	8d 55 bc	 lea	 edx, DWORD PTR $T200675[ebp]
  00060	52		 push	 edx
  00061	e8 00 00 00 00	 call	 __CxxThrowException@8
$L199684:

; 593  : 		_Nodeptr _Erasednode = _Where._Mynode();	// node to erase

  00066	8d 4d 0c	 lea	 ecx, DWORD PTR __Where$[ebp]
  00069	e8 00 00 00 00	 call	 ?_Mynode@const_iterator@?$_Tree@V?$_Tmap_traits@KPAVIData@@U?$less@K@std@@V?$allocator@U?$pair@$$CBKPAVIData@@@std@@@3@$0A@@std@@@std@@QBEPAU_Node@?$_Tree_nod@V?$_Tmap_traits@KPAVIData@@U?$less@K@std@@V?$allocator@U?$pair@$$CBKPAVIData@@@std@@@3@$0A@@std@@@3@XZ ; std::_Tree<std::_Tmap_traits<unsigned long,IData *,std::less<unsigned long>,std::allocator<std::pair<unsigned long const ,IData *> >,0> >::const_iterator::_Mynode
  0006e	89 45 f0	 mov	 DWORD PTR __Erasednode$[ebp], eax

; 594  : 		++_Where;	// save successor iterator for return

  00071	8d 4d 0c	 lea	 ecx, DWORD PTR __Where$[ebp]
  00074	e8 00 00 00 00	 call	 ??Eiterator@?$_Tree@V?$_Tmap_traits@KPAVIData@@U?$less@K@std@@V?$allocator@U?$pair@$$CBKPAVIData@@@std@@@3@$0A@@std@@@std@@QAEAAV012@XZ ; std::_Tree<std::_Tmap_traits<unsigned long,IData *,std::less<unsigned long>,std::allocator<std::pair<unsigned long const ,IData *> >,0> >::iterator::operator++

; 595  : 
; 596  : 		_Nodeptr _Fixnode;	// the node to recolor as needed
; 597  : 		_Nodeptr _Fixnodeparent;	// parent of _Fixnode (which may be nil)
; 598  : 		_Nodeptr _Pnode = _Erasednode;

  00079	8b 45 f0	 mov	 eax, DWORD PTR __Erasednode$[ebp]
  0007c	89 45 e8	 mov	 DWORD PTR __Pnode$[ebp], eax

; 599  : 
; 600  : 		if (_Isnil(_Left(_Pnode)))

  0007f	8b 4d e8	 mov	 ecx, DWORD PTR __Pnode$[ebp]
  00082	51		 push	 ecx
  00083	e8 00 00 00 00	 call	 ?_Left@?$_Tree@V?$_Tmap_traits@KPAVIData@@U?$less@K@std@@V?$allocator@U?$pair@$$CBKPAVIData@@@std@@@3@$0A@@std@@@std@@KAAAPAU_Node@?$_Tree_nod@V?$_Tmap_traits@KPAVIData@@U?$less@K@std@@V?$allocator@U?$pair@$$CBKPAVIData@@@std@@@3@$0A@@std@@@2@PAU342@@Z ; std::_Tree<std::_Tmap_traits<unsigned long,IData *,std::less<unsigned long>,std::allocator<std::pair<unsigned long const ,IData *> >,0> >::_Left
  00088	83 c4 04	 add	 esp, 4
  0008b	8b 10		 mov	 edx, DWORD PTR [eax]
  0008d	52		 push	 edx
  0008e	e8 00 00 00 00	 call	 ?_Isnil@?$_Tree@V?$_Tmap_traits@KPAVIData@@U?$less@K@std@@V?$allocator@U?$pair@$$CBKPAVIData@@@std@@@3@$0A@@std@@@std@@KAAADPAU_Node@?$_Tree_nod@V?$_Tmap_traits@KPAVIData@@U?$less@K@std@@V?$allocator@U?$pair@$$CBKPAVIData@@@std@@@3@$0A@@std@@@2@@Z ; std::_Tree<std::_Tmap_traits<unsigned long,IData *,std::less<unsigned long>,std::allocator<std::pair<unsigned long const ,IData *> >,0> >::_Isnil
  00093	83 c4 04	 add	 esp, 4
  00096	0f be 00	 movsx	 eax, BYTE PTR [eax]
  00099	85 c0		 test	 eax, eax
  0009b	74 13		 je	 SHORT $L199692

; 601  : 			_Fixnode = _Right(_Pnode);	// must stitch up right subtree

  0009d	8b 4d e8	 mov	 ecx, DWORD PTR __Pnode$[ebp]
  000a0	51		 push	 ecx
  000a1	e8 00 00 00 00	 call	 ?_Right@?$_Tree@V?$_Tmap_traits@KPAVIData@@U?$less@K@std@@V?$allocator@U?$pair@$$CBKPAVIData@@@std@@@3@$0A@@std@@@std@@KAAAPAU_Node@?$_Tree_nod@V?$_Tmap_traits@KPAVIData@@U?$less@K@std@@V?$allocator@U?$pair@$$CBKPAVIData@@@std@@@3@$0A@@std@@@2@PAU342@@Z ; std::_Tree<std::_Tmap_traits<unsigned long,IData *,std::less<unsigned long>,std::allocator<std::pair<unsigned long const ,IData *> >,0> >::_Right
  000a6	83 c4 04	 add	 esp, 4
  000a9	8b 10		 mov	 edx, DWORD PTR [eax]
  000ab	89 55 ec	 mov	 DWORD PTR __Fixnode$[ebp], edx

; 602  : 		else if (_Isnil(_Right(_Pnode)))

  000ae	eb 4d		 jmp	 SHORT $L199693
$L199692:
  000b0	8b 45 e8	 mov	 eax, DWORD PTR __Pnode$[ebp]
  000b3	50		 push	 eax
  000b4	e8 00 00 00 00	 call	 ?_Right@?$_Tree@V?$_Tmap_traits@KPAVIData@@U?$less@K@std@@V?$allocator@U?$pair@$$CBKPAVIData@@@std@@@3@$0A@@std@@@std@@KAAAPAU_Node@?$_Tree_nod@V?$_Tmap_traits@KPAVIData@@U?$less@K@std@@V?$allocator@U?$pair@$$CBKPAVIData@@@std@@@3@$0A@@std@@@2@PAU342@@Z ; std::_Tree<std::_Tmap_traits<unsigned long,IData *,std::less<unsigned long>,std::allocator<std::pair<unsigned long const ,IData *> >,0> >::_Right
  000b9	83 c4 04	 add	 esp, 4
  000bc	8b 08		 mov	 ecx, DWORD PTR [eax]
  000be	51		 push	 ecx
  000bf	e8 00 00 00 00	 call	 ?_Isnil@?$_Tree@V?$_Tmap_traits@KPAVIData@@U?$less@K@std@@V?$allocator@U?$pair@$$CBKPAVIData@@@std@@@3@$0A@@std@@@std@@KAAADPAU_Node@?$_Tree_nod@V?$_Tmap_traits@KPAVIData@@U?$less@K@std@@V?$allocator@U?$pair@$$CBKPAVIData@@@std@@@3@$0A@@std@@@2@@Z ; std::_Tree<std::_Tmap_traits<unsigned long,IData *,std::less<unsigned long>,std::allocator<std::pair<unsigned long const ,IData *> >,0> >::_Isnil
  000c4	83 c4 04	 add	 esp, 4
  000c7	0f be 10	 movsx	 edx, BYTE PTR [eax]
  000ca	85 d2		 test	 edx, edx
  000cc	74 13		 je	 SHORT $L199694

; 603  : 			_Fixnode = _Left(_Pnode);	// must stitch up left subtree

  000ce	8b 45 e8	 mov	 eax, DWORD PTR __Pnode$[ebp]
  000d1	50		 push	 eax
  000d2	e8 00 00 00 00	 call	 ?_Left@?$_Tree@V?$_Tmap_traits@KPAVIData@@U?$less@K@std@@V?$allocator@U?$pair@$$CBKPAVIData@@@std@@@3@$0A@@std@@@std@@KAAAPAU_Node@?$_Tree_nod@V?$_Tmap_traits@KPAVIData@@U?$less@K@std@@V?$allocator@U?$pair@$$CBKPAVIData@@@std@@@3@$0A@@std@@@2@PAU342@@Z ; std::_Tree<std::_Tmap_traits<unsigned long,IData *,std::less<unsigned long>,std::allocator<std::pair<unsigned long const ,IData *> >,0> >::_Left
  000d7	83 c4 04	 add	 esp, 4
  000da	8b 08		 mov	 ecx, DWORD PTR [eax]
  000dc	89 4d ec	 mov	 DWORD PTR __Fixnode$[ebp], ecx

; 604  : 		else

  000df	eb 1c		 jmp	 SHORT $L199693
$L199694:

; 605  : 			{	// two subtrees, must lift successor node to replace erased
; 606  : 			_Pnode = _Where._Mynode();	// _Pnode is successor node

  000e1	8d 4d 0c	 lea	 ecx, DWORD PTR __Where$[ebp]
  000e4	e8 00 00 00 00	 call	 ?_Mynode@const_iterator@?$_Tree@V?$_Tmap_traits@KPAVIData@@U?$less@K@std@@V?$allocator@U?$pair@$$CBKPAVIData@@@std@@@3@$0A@@std@@@std@@QBEPAU_Node@?$_Tree_nod@V?$_Tmap_traits@KPAVIData@@U?$less@K@std@@V?$allocator@U?$pair@$$CBKPAVIData@@@std@@@3@$0A@@std@@@3@XZ ; std::_Tree<std::_Tmap_traits<unsigned long,IData *,std::less<unsigned long>,std::allocator<std::pair<unsigned long const ,IData *> >,0> >::const_iterator::_Mynode
  000e9	89 45 e8	 mov	 DWORD PTR __Pnode$[ebp], eax

; 607  : 			_Fixnode = _Right(_Pnode);	// _Fixnode is its only subtree

  000ec	8b 55 e8	 mov	 edx, DWORD PTR __Pnode$[ebp]
  000ef	52		 push	 edx
  000f0	e8 00 00 00 00	 call	 ?_Right@?$_Tree@V?$_Tmap_traits@KPAVIData@@U?$less@K@std@@V?$allocator@U?$pair@$$CBKPAVIData@@@std@@@3@$0A@@std@@@std@@KAAAPAU_Node@?$_Tree_nod@V?$_Tmap_traits@KPAVIData@@U?$less@K@std@@V?$allocator@U?$pair@$$CBKPAVIData@@@std@@@3@$0A@@std@@@2@PAU342@@Z ; std::_Tree<std::_Tmap_traits<unsigned long,IData *,std::less<unsigned long>,std::allocator<std::pair<unsigned long const ,IData *> >,0> >::_Right
  000f5	83 c4 04	 add	 esp, 4
  000f8	8b 00		 mov	 eax, DWORD PTR [eax]
  000fa	89 45 ec	 mov	 DWORD PTR __Fixnode$[ebp], eax
$L199693:

; 608  : 			}
; 609  : 
; 610  : 		if (_Pnode == _Erasednode)

  000fd	8b 4d e8	 mov	 ecx, DWORD PTR __Pnode$[ebp]
  00100	3b 4d f0	 cmp	 ecx, DWORD PTR __Erasednode$[ebp]
  00103	0f 85 1b 01 00
	00		 jne	 $L199696

; 611  : 			{	// at most one subtree, relink it
; 612  : 			_Fixnodeparent = _Parent(_Erasednode);

  00109	8b 55 f0	 mov	 edx, DWORD PTR __Erasednode$[ebp]
  0010c	52		 push	 edx
  0010d	e8 00 00 00 00	 call	 ?_Parent@?$_Tree@V?$_Tmap_traits@KPAVIData@@U?$less@K@std@@V?$allocator@U?$pair@$$CBKPAVIData@@@std@@@3@$0A@@std@@@std@@KAAAPAU_Node@?$_Tree_nod@V?$_Tmap_traits@KPAVIData@@U?$less@K@std@@V?$allocator@U?$pair@$$CBKPAVIData@@@std@@@3@$0A@@std@@@2@PAU342@@Z ; std::_Tree<std::_Tmap_traits<unsigned long,IData *,std::less<unsigned long>,std::allocator<std::pair<unsigned long const ,IData *> >,0> >::_Parent
  00112	83 c4 04	 add	 esp, 4
  00115	8b 00		 mov	 eax, DWORD PTR [eax]
  00117	89 45 e4	 mov	 DWORD PTR __Fixnodeparent$[ebp], eax

; 613  : 			if (!_Isnil(_Fixnode))

  0011a	8b 4d ec	 mov	 ecx, DWORD PTR __Fixnode$[ebp]
  0011d	51		 push	 ecx
  0011e	e8 00 00 00 00	 call	 ?_Isnil@?$_Tree@V?$_Tmap_traits@KPAVIData@@U?$less@K@std@@V?$allocator@U?$pair@$$CBKPAVIData@@@std@@@3@$0A@@std@@@std@@KAAADPAU_Node@?$_Tree_nod@V?$_Tmap_traits@KPAVIData@@U?$less@K@std@@V?$allocator@U?$pair@$$CBKPAVIData@@@std@@@3@$0A@@std@@@2@@Z ; std::_Tree<std::_Tmap_traits<unsigned long,IData *,std::less<unsigned long>,std::allocator<std::pair<unsigned long const ,IData *> >,0> >::_Isnil
  00123	83 c4 04	 add	 esp, 4
  00126	0f be 10	 movsx	 edx, BYTE PTR [eax]
  00129	85 d2		 test	 edx, edx
  0012b	75 11		 jne	 SHORT $L199697

; 614  : 				_Parent(_Fixnode) = _Fixnodeparent;	// link up

  0012d	8b 45 ec	 mov	 eax, DWORD PTR __Fixnode$[ebp]
  00130	50		 push	 eax
  00131	e8 00 00 00 00	 call	 ?_Parent@?$_Tree@V?$_Tmap_traits@KPAVIData@@U?$less@K@std@@V?$allocator@U?$pair@$$CBKPAVIData@@@std@@@3@$0A@@std@@@std@@KAAAPAU_Node@?$_Tree_nod@V?$_Tmap_traits@KPAVIData@@U?$less@K@std@@V?$allocator@U?$pair@$$CBKPAVIData@@@std@@@3@$0A@@std@@@2@PAU342@@Z ; std::_Tree<std::_Tmap_traits<unsigned long,IData *,std::less<unsigned long>,std::allocator<std::pair<unsigned long const ,IData *> >,0> >::_Parent
  00136	83 c4 04	 add	 esp, 4
  00139	8b 4d e4	 mov	 ecx, DWORD PTR __Fixnodeparent$[ebp]
  0013c	89 08		 mov	 DWORD PTR [eax], ecx
$L199697:

; 615  : 
; 616  : 			if (_Root() == _Erasednode)

  0013e	8b 4d 9c	 mov	 ecx, DWORD PTR _this$[ebp]
  00141	e8 00 00 00 00	 call	 ?_Root@?$_Tree@V?$_Tmap_traits@KPAVIData@@U?$less@K@std@@V?$allocator@U?$pair@$$CBKPAVIData@@@std@@@3@$0A@@std@@@std@@IAEAAPAU_Node@?$_Tree_nod@V?$_Tmap_traits@KPAVIData@@U?$less@K@std@@V?$allocator@U?$pair@$$CBKPAVIData@@@std@@@3@$0A@@std@@@2@XZ ; std::_Tree<std::_Tmap_traits<unsigned long,IData *,std::less<unsigned long>,std::allocator<std::pair<unsigned long const ,IData *> >,0> >::_Root
  00146	8b 10		 mov	 edx, DWORD PTR [eax]
  00148	3b 55 f0	 cmp	 edx, DWORD PTR __Erasednode$[ebp]
  0014b	75 0f		 jne	 SHORT $L199698

; 617  : 				_Root() = _Fixnode;	// link down from root

  0014d	8b 4d 9c	 mov	 ecx, DWORD PTR _this$[ebp]
  00150	e8 00 00 00 00	 call	 ?_Root@?$_Tree@V?$_Tmap_traits@KPAVIData@@U?$less@K@std@@V?$allocator@U?$pair@$$CBKPAVIData@@@std@@@3@$0A@@std@@@std@@IAEAAPAU_Node@?$_Tree_nod@V?$_Tmap_traits@KPAVIData@@U?$less@K@std@@V?$allocator@U?$pair@$$CBKPAVIData@@@std@@@3@$0A@@std@@@2@XZ ; std::_Tree<std::_Tmap_traits<unsigned long,IData *,std::less<unsigned long>,std::allocator<std::pair<unsigned long const ,IData *> >,0> >::_Root
  00155	8b 4d ec	 mov	 ecx, DWORD PTR __Fixnode$[ebp]
  00158	89 08		 mov	 DWORD PTR [eax], ecx

; 618  : 			else if (_Left(_Fixnodeparent) == _Erasednode)

  0015a	eb 37		 jmp	 SHORT $L199699
$L199698:
  0015c	8b 55 e4	 mov	 edx, DWORD PTR __Fixnodeparent$[ebp]
  0015f	52		 push	 edx
  00160	e8 00 00 00 00	 call	 ?_Left@?$_Tree@V?$_Tmap_traits@KPAVIData@@U?$less@K@std@@V?$allocator@U?$pair@$$CBKPAVIData@@@std@@@3@$0A@@std@@@std@@KAAAPAU_Node@?$_Tree_nod@V?$_Tmap_traits@KPAVIData@@U?$less@K@std@@V?$allocator@U?$pair@$$CBKPAVIData@@@std@@@3@$0A@@std@@@2@PAU342@@Z ; std::_Tree<std::_Tmap_traits<unsigned long,IData *,std::less<unsigned long>,std::allocator<std::pair<unsigned long const ,IData *> >,0> >::_Left
  00165	83 c4 04	 add	 esp, 4
  00168	8b 00		 mov	 eax, DWORD PTR [eax]
  0016a	3b 45 f0	 cmp	 eax, DWORD PTR __Erasednode$[ebp]
  0016d	75 13		 jne	 SHORT $L199700

; 619  : 				_Left(_Fixnodeparent) = _Fixnode;	// link down to left

  0016f	8b 4d e4	 mov	 ecx, DWORD PTR __Fixnodeparent$[ebp]
  00172	51		 push	 ecx
  00173	e8 00 00 00 00	 call	 ?_Left@?$_Tree@V?$_Tmap_traits@KPAVIData@@U?$less@K@std@@V?$allocator@U?$pair@$$CBKPAVIData@@@std@@@3@$0A@@std@@@std@@KAAAPAU_Node@?$_Tree_nod@V?$_Tmap_traits@KPAVIData@@U?$less@K@std@@V?$allocator@U?$pair@$$CBKPAVIData@@@std@@@3@$0A@@std@@@2@PAU342@@Z ; std::_Tree<std::_Tmap_traits<unsigned long,IData *,std::less<unsigned long>,std::allocator<std::pair<unsigned long const ,IData *> >,0> >::_Left
  00178	83 c4 04	 add	 esp, 4
  0017b	8b 55 ec	 mov	 edx, DWORD PTR __Fixnode$[ebp]
  0017e	89 10		 mov	 DWORD PTR [eax], edx

; 620  : 			else

  00180	eb 11		 jmp	 SHORT $L199699
$L199700:

; 621  : 				_Right(_Fixnodeparent) = _Fixnode;	// link down to right

  00182	8b 45 e4	 mov	 eax, DWORD PTR __Fixnodeparent$[ebp]
  00185	50		 push	 eax
  00186	e8 00 00 00 00	 call	 ?_Right@?$_Tree@V?$_Tmap_traits@KPAVIData@@U?$less@K@std@@V?$allocator@U?$pair@$$CBKPAVIData@@@std@@@3@$0A@@std@@@std@@KAAAPAU_Node@?$_Tree_nod@V?$_Tmap_traits@KPAVIData@@U?$less@K@std@@V?$allocator@U?$pair@$$CBKPAVIData@@@std@@@3@$0A@@std@@@2@PAU342@@Z ; std::_Tree<std::_Tmap_traits<unsigned long,IData *,std::less<unsigned long>,std::allocator<std::pair<unsigned long const ,IData *> >,0> >::_Right
  0018b	83 c4 04	 add	 esp, 4
  0018e	8b 4d ec	 mov	 ecx, DWORD PTR __Fixnode$[ebp]
  00191	89 08		 mov	 DWORD PTR [eax], ecx
$L199699:

; 622  : 
; 623  : 			if (_Lmost() == _Erasednode)

  00193	8b 4d 9c	 mov	 ecx, DWORD PTR _this$[ebp]
  00196	e8 00 00 00 00	 call	 ?_Lmost@?$_Tree@V?$_Tmap_traits@KPAVIData@@U?$less@K@std@@V?$allocator@U?$pair@$$CBKPAVIData@@@std@@@3@$0A@@std@@@std@@IAEAAPAU_Node@?$_Tree_nod@V?$_Tmap_traits@KPAVIData@@U?$less@K@std@@V?$allocator@U?$pair@$$CBKPAVIData@@@std@@@3@$0A@@std@@@2@XZ ; std::_Tree<std::_Tmap_traits<unsigned long,IData *,std::less<unsigned long>,std::allocator<std::pair<unsigned long const ,IData *> >,0> >::_Lmost
  0019b	8b 10		 mov	 edx, DWORD PTR [eax]
  0019d	3b 55 f0	 cmp	 edx, DWORD PTR __Erasednode$[ebp]
  001a0	75 37		 jne	 SHORT $L199702

; 624  : 				_Lmost() = _Isnil(_Fixnode)
; 625  : 					? _Fixnodeparent	// smallest is parent of erased node
; 626  : 					: _Min(_Fixnode);	// smallest in relinked subtree

  001a2	8b 45 ec	 mov	 eax, DWORD PTR __Fixnode$[ebp]
  001a5	50		 push	 eax
  001a6	e8 00 00 00 00	 call	 ?_Isnil@?$_Tree@V?$_Tmap_traits@KPAVIData@@U?$less@K@std@@V?$allocator@U?$pair@$$CBKPAVIData@@@std@@@3@$0A@@std@@@std@@KAAADPAU_Node@?$_Tree_nod@V?$_Tmap_traits@KPAVIData@@U?$less@K@std@@V?$allocator@U?$pair@$$CBKPAVIData@@@std@@@3@$0A@@std@@@2@@Z ; std::_Tree<std::_Tmap_traits<unsigned long,IData *,std::less<unsigned long>,std::allocator<std::pair<unsigned long const ,IData *> >,0> >::_Isnil
  001ab	83 c4 04	 add	 esp, 4
  001ae	0f be 08	 movsx	 ecx, BYTE PTR [eax]
  001b1	85 c9		 test	 ecx, ecx
  001b3	74 08		 je	 SHORT $L200678
  001b5	8b 55 e4	 mov	 edx, DWORD PTR __Fixnodeparent$[ebp]
  001b8	89 55 98	 mov	 DWORD PTR tv165[ebp], edx
  001bb	eb 0f		 jmp	 SHORT $L200679
$L200678:
  001bd	8b 45 ec	 mov	 eax, DWORD PTR __Fixnode$[ebp]
  001c0	50		 push	 eax
  001c1	e8 00 00 00 00	 call	 ?_Min@?$_Tree@V?$_Tmap_traits@KPAVIData@@U?$less@K@std@@V?$allocator@U?$pair@$$CBKPAVIData@@@std@@@3@$0A@@std@@@std@@KAPAU_Node@?$_Tree_nod@V?$_Tmap_traits@KPAVIData@@U?$less@K@std@@V?$allocator@U?$pair@$$CBKPAVIData@@@std@@@3@$0A@@std@@@2@PAU342@@Z ; std::_Tree<std::_Tmap_traits<unsigned long,IData *,std::less<unsigned long>,std::allocator<std::pair<unsigned long const ,IData *> >,0> >::_Min
  001c6	83 c4 04	 add	 esp, 4
  001c9	89 45 98	 mov	 DWORD PTR tv165[ebp], eax
$L200679:
  001cc	8b 4d 9c	 mov	 ecx, DWORD PTR _this$[ebp]
  001cf	e8 00 00 00 00	 call	 ?_Lmost@?$_Tree@V?$_Tmap_traits@KPAVIData@@U?$less@K@std@@V?$allocator@U?$pair@$$CBKPAVIData@@@std@@@3@$0A@@std@@@std@@IAEAAPAU_Node@?$_Tree_nod@V?$_Tmap_traits@KPAVIData@@U?$less@K@std@@V?$allocator@U?$pair@$$CBKPAVIData@@@std@@@3@$0A@@std@@@2@XZ ; std::_Tree<std::_Tmap_traits<unsigned long,IData *,std::less<unsigned long>,std::allocator<std::pair<unsigned long const ,IData *> >,0> >::_Lmost
  001d4	8b 4d 98	 mov	 ecx, DWORD PTR tv165[ebp]
  001d7	89 08		 mov	 DWORD PTR [eax], ecx
$L199702:

; 627  : 
; 628  : 			if (_Rmost() == _Erasednode)

  001d9	8b 4d 9c	 mov	 ecx, DWORD PTR _this$[ebp]
  001dc	e8 00 00 00 00	 call	 ?_Rmost@?$_Tree@V?$_Tmap_traits@KPAVIData@@U?$less@K@std@@V?$allocator@U?$pair@$$CBKPAVIData@@@std@@@3@$0A@@std@@@std@@IAEAAPAU_Node@?$_Tree_nod@V?$_Tmap_traits@KPAVIData@@U?$less@K@std@@V?$allocator@U?$pair@$$CBKPAVIData@@@std@@@3@$0A@@std@@@2@XZ ; std::_Tree<std::_Tmap_traits<unsigned long,IData *,std::less<unsigned long>,std::allocator<std::pair<unsigned long const ,IData *> >,0> >::_Rmost
  001e1	8b 10		 mov	 edx, DWORD PTR [eax]
  001e3	3b 55 f0	 cmp	 edx, DWORD PTR __Erasednode$[ebp]
  001e6	75 37		 jne	 SHORT $L199703

; 629  : 				_Rmost() = _Isnil(_Fixnode)
; 630  : 					? _Fixnodeparent	// largest is parent of erased node
; 631  : 					: _Max(_Fixnode);	// largest in relinked subtree

  001e8	8b 45 ec	 mov	 eax, DWORD PTR __Fixnode$[ebp]
  001eb	50		 push	 eax
  001ec	e8 00 00 00 00	 call	 ?_Isnil@?$_Tree@V?$_Tmap_traits@KPAVIData@@U?$less@K@std@@V?$allocator@U?$pair@$$CBKPAVIData@@@std@@@3@$0A@@std@@@std@@KAAADPAU_Node@?$_Tree_nod@V?$_Tmap_traits@KPAVIData@@U?$less@K@std@@V?$allocator@U?$pair@$$CBKPAVIData@@@std@@@3@$0A@@std@@@2@@Z ; std::_Tree<std::_Tmap_traits<unsigned long,IData *,std::less<unsigned long>,std::allocator<std::pair<unsigned long const ,IData *> >,0> >::_Isnil
  001f1	83 c4 04	 add	 esp, 4
  001f4	0f be 08	 movsx	 ecx, BYTE PTR [eax]
  001f7	85 c9		 test	 ecx, ecx
  001f9	74 08		 je	 SHORT $L200680
  001fb	8b 55 e4	 mov	 edx, DWORD PTR __Fixnodeparent$[ebp]
  001fe	89 55 94	 mov	 DWORD PTR tv177[ebp], edx
  00201	eb 0f		 jmp	 SHORT $L200681
$L200680:
  00203	8b 45 ec	 mov	 eax, DWORD PTR __Fixnode$[ebp]
  00206	50		 push	 eax
  00207	e8 00 00 00 00	 call	 ?_Max@?$_Tree@V?$_Tmap_traits@KPAVIData@@U?$less@K@std@@V?$allocator@U?$pair@$$CBKPAVIData@@@std@@@3@$0A@@std@@@std@@KAPAU_Node@?$_Tree_nod@V?$_Tmap_traits@KPAVIData@@U?$less@K@std@@V?$allocator@U?$pair@$$CBKPAVIData@@@std@@@3@$0A@@std@@@2@PAU342@@Z ; std::_Tree<std::_Tmap_traits<unsigned long,IData *,std::less<unsigned long>,std::allocator<std::pair<unsigned long const ,IData *> >,0> >::_Max
  0020c	83 c4 04	 add	 esp, 4
  0020f	89 45 94	 mov	 DWORD PTR tv177[ebp], eax
$L200681:
  00212	8b 4d 9c	 mov	 ecx, DWORD PTR _this$[ebp]
  00215	e8 00 00 00 00	 call	 ?_Rmost@?$_Tree@V?$_Tmap_traits@KPAVIData@@U?$less@K@std@@V?$allocator@U?$pair@$$CBKPAVIData@@@std@@@3@$0A@@std@@@std@@IAEAAPAU_Node@?$_Tree_nod@V?$_Tmap_traits@KPAVIData@@U?$less@K@std@@V?$allocator@U?$pair@$$CBKPAVIData@@@std@@@3@$0A@@std@@@2@XZ ; std::_Tree<std::_Tmap_traits<unsigned long,IData *,std::less<unsigned long>,std::allocator<std::pair<unsigned long const ,IData *> >,0> >::_Rmost
  0021a	8b 4d 94	 mov	 ecx, DWORD PTR tv177[ebp]
  0021d	89 08		 mov	 DWORD PTR [eax], ecx
$L199703:

; 632  : 			}
; 633  : 		else

  0021f	e9 8e 01 00 00	 jmp	 $L199704
$L199696:

; 634  : 			{	// erased has two subtrees, _Pnode is successor to erased
; 635  : 			_Parent(_Left(_Erasednode)) = _Pnode;	// link left up

  00224	8b 55 f0	 mov	 edx, DWORD PTR __Erasednode$[ebp]
  00227	52		 push	 edx
  00228	e8 00 00 00 00	 call	 ?_Left@?$_Tree@V?$_Tmap_traits@KPAVIData@@U?$less@K@std@@V?$allocator@U?$pair@$$CBKPAVIData@@@std@@@3@$0A@@std@@@std@@KAAAPAU_Node@?$_Tree_nod@V?$_Tmap_traits@KPAVIData@@U?$less@K@std@@V?$allocator@U?$pair@$$CBKPAVIData@@@std@@@3@$0A@@std@@@2@PAU342@@Z ; std::_Tree<std::_Tmap_traits<unsigned long,IData *,std::less<unsigned long>,std::allocator<std::pair<unsigned long const ,IData *> >,0> >::_Left
  0022d	83 c4 04	 add	 esp, 4
  00230	8b 00		 mov	 eax, DWORD PTR [eax]
  00232	50		 push	 eax
  00233	e8 00 00 00 00	 call	 ?_Parent@?$_Tree@V?$_Tmap_traits@KPAVIData@@U?$less@K@std@@V?$allocator@U?$pair@$$CBKPAVIData@@@std@@@3@$0A@@std@@@std@@KAAAPAU_Node@?$_Tree_nod@V?$_Tmap_traits@KPAVIData@@U?$less@K@std@@V?$allocator@U?$pair@$$CBKPAVIData@@@std@@@3@$0A@@std@@@2@PAU342@@Z ; std::_Tree<std::_Tmap_traits<unsigned long,IData *,std::less<unsigned long>,std::allocator<std::pair<unsigned long const ,IData *> >,0> >::_Parent
  00238	83 c4 04	 add	 esp, 4
  0023b	8b 4d e8	 mov	 ecx, DWORD PTR __Pnode$[ebp]
  0023e	89 08		 mov	 DWORD PTR [eax], ecx

; 636  : 			_Left(_Pnode) = _Left(_Erasednode);	// link successor down

  00240	8b 55 f0	 mov	 edx, DWORD PTR __Erasednode$[ebp]
  00243	52		 push	 edx
  00244	e8 00 00 00 00	 call	 ?_Left@?$_Tree@V?$_Tmap_traits@KPAVIData@@U?$less@K@std@@V?$allocator@U?$pair@$$CBKPAVIData@@@std@@@3@$0A@@std@@@std@@KAAAPAU_Node@?$_Tree_nod@V?$_Tmap_traits@KPAVIData@@U?$less@K@std@@V?$allocator@U?$pair@$$CBKPAVIData@@@std@@@3@$0A@@std@@@2@PAU342@@Z ; std::_Tree<std::_Tmap_traits<unsigned long,IData *,std::less<unsigned long>,std::allocator<std::pair<unsigned long const ,IData *> >,0> >::_Left
  00249	83 c4 04	 add	 esp, 4
  0024c	8b f0		 mov	 esi, eax
  0024e	8b 45 e8	 mov	 eax, DWORD PTR __Pnode$[ebp]
  00251	50		 push	 eax
  00252	e8 00 00 00 00	 call	 ?_Left@?$_Tree@V?$_Tmap_traits@KPAVIData@@U?$less@K@std@@V?$allocator@U?$pair@$$CBKPAVIData@@@std@@@3@$0A@@std@@@std@@KAAAPAU_Node@?$_Tree_nod@V?$_Tmap_traits@KPAVIData@@U?$less@K@std@@V?$allocator@U?$pair@$$CBKPAVIData@@@std@@@3@$0A@@std@@@2@PAU342@@Z ; std::_Tree<std::_Tmap_traits<unsigned long,IData *,std::less<unsigned long>,std::allocator<std::pair<unsigned long const ,IData *> >,0> >::_Left
  00257	83 c4 04	 add	 esp, 4
  0025a	8b 0e		 mov	 ecx, DWORD PTR [esi]
  0025c	89 08		 mov	 DWORD PTR [eax], ecx

; 637  : 
; 638  : 			if (_Pnode == _Right(_Erasednode))

  0025e	8b 55 f0	 mov	 edx, DWORD PTR __Erasednode$[ebp]
  00261	52		 push	 edx
  00262	e8 00 00 00 00	 call	 ?_Right@?$_Tree@V?$_Tmap_traits@KPAVIData@@U?$less@K@std@@V?$allocator@U?$pair@$$CBKPAVIData@@@std@@@3@$0A@@std@@@std@@KAAAPAU_Node@?$_Tree_nod@V?$_Tmap_traits@KPAVIData@@U?$less@K@std@@V?$allocator@U?$pair@$$CBKPAVIData@@@std@@@3@$0A@@std@@@2@PAU342@@Z ; std::_Tree<std::_Tmap_traits<unsigned long,IData *,std::less<unsigned long>,std::allocator<std::pair<unsigned long const ,IData *> >,0> >::_Right
  00267	83 c4 04	 add	 esp, 4
  0026a	8b 4d e8	 mov	 ecx, DWORD PTR __Pnode$[ebp]
  0026d	3b 08		 cmp	 ecx, DWORD PTR [eax]
  0026f	75 0b		 jne	 SHORT $L199705

; 639  : 				_Fixnodeparent = _Pnode;	// successor is next to erased

  00271	8b 55 e8	 mov	 edx, DWORD PTR __Pnode$[ebp]
  00274	89 55 e4	 mov	 DWORD PTR __Fixnodeparent$[ebp], edx

; 640  : 			else

  00277	e9 80 00 00 00	 jmp	 $L199706
$L199705:

; 641  : 				{	// successor further down, link in place of erased
; 642  : 				_Fixnodeparent = _Parent(_Pnode);	// parent is successor's

  0027c	8b 45 e8	 mov	 eax, DWORD PTR __Pnode$[ebp]
  0027f	50		 push	 eax
  00280	e8 00 00 00 00	 call	 ?_Parent@?$_Tree@V?$_Tmap_traits@KPAVIData@@U?$less@K@std@@V?$allocator@U?$pair@$$CBKPAVIData@@@std@@@3@$0A@@std@@@std@@KAAAPAU_Node@?$_Tree_nod@V?$_Tmap_traits@KPAVIData@@U?$less@K@std@@V?$allocator@U?$pair@$$CBKPAVIData@@@std@@@3@$0A@@std@@@2@PAU342@@Z ; std::_Tree<std::_Tmap_traits<unsigned long,IData *,std::less<unsigned long>,std::allocator<std::pair<unsigned long const ,IData *> >,0> >::_Parent
  00285	83 c4 04	 add	 esp, 4
  00288	8b 08		 mov	 ecx, DWORD PTR [eax]
  0028a	89 4d e4	 mov	 DWORD PTR __Fixnodeparent$[ebp], ecx

; 643  : 				if (!_Isnil(_Fixnode))

  0028d	8b 55 ec	 mov	 edx, DWORD PTR __Fixnode$[ebp]
  00290	52		 push	 edx
  00291	e8 00 00 00 00	 call	 ?_Isnil@?$_Tree@V?$_Tmap_traits@KPAVIData@@U?$less@K@std@@V?$allocator@U?$pair@$$CBKPAVIData@@@std@@@3@$0A@@std@@@std@@KAAADPAU_Node@?$_Tree_nod@V?$_Tmap_traits@KPAVIData@@U?$less@K@std@@V?$allocator@U?$pair@$$CBKPAVIData@@@std@@@3@$0A@@std@@@2@@Z ; std::_Tree<std::_Tmap_traits<unsigned long,IData *,std::less<unsigned long>,std::allocator<std::pair<unsigned long const ,IData *> >,0> >::_Isnil
  00296	83 c4 04	 add	 esp, 4
  00299	0f be 00	 movsx	 eax, BYTE PTR [eax]
  0029c	85 c0		 test	 eax, eax
  0029e	75 11		 jne	 SHORT $L199707

; 644  : 					_Parent(_Fixnode) = _Fixnodeparent;	// link fix up

  002a0	8b 4d ec	 mov	 ecx, DWORD PTR __Fixnode$[ebp]
  002a3	51		 push	 ecx
  002a4	e8 00 00 00 00	 call	 ?_Parent@?$_Tree@V?$_Tmap_traits@KPAVIData@@U?$less@K@std@@V?$allocator@U?$pair@$$CBKPAVIData@@@std@@@3@$0A@@std@@@std@@KAAAPAU_Node@?$_Tree_nod@V?$_Tmap_traits@KPAVIData@@U?$less@K@std@@V?$allocator@U?$pair@$$CBKPAVIData@@@std@@@3@$0A@@std@@@2@PAU342@@Z ; std::_Tree<std::_Tmap_traits<unsigned long,IData *,std::less<unsigned long>,std::allocator<std::pair<unsigned long const ,IData *> >,0> >::_Parent
  002a9	83 c4 04	 add	 esp, 4
  002ac	8b 55 e4	 mov	 edx, DWORD PTR __Fixnodeparent$[ebp]
  002af	89 10		 mov	 DWORD PTR [eax], edx
$L199707:

; 645  : 				_Left(_Fixnodeparent) = _Fixnode;	// link fix down

  002b1	8b 45 e4	 mov	 eax, DWORD PTR __Fixnodeparent$[ebp]
  002b4	50		 push	 eax
  002b5	e8 00 00 00 00	 call	 ?_Left@?$_Tree@V?$_Tmap_traits@KPAVIData@@U?$less@K@std@@V?$allocator@U?$pair@$$CBKPAVIData@@@std@@@3@$0A@@std@@@std@@KAAAPAU_Node@?$_Tree_nod@V?$_Tmap_traits@KPAVIData@@U?$less@K@std@@V?$allocator@U?$pair@$$CBKPAVIData@@@std@@@3@$0A@@std@@@2@PAU342@@Z ; std::_Tree<std::_Tmap_traits<unsigned long,IData *,std::less<unsigned long>,std::allocator<std::pair<unsigned long const ,IData *> >,0> >::_Left
  002ba	83 c4 04	 add	 esp, 4
  002bd	8b 4d ec	 mov	 ecx, DWORD PTR __Fixnode$[ebp]
  002c0	89 08		 mov	 DWORD PTR [eax], ecx

; 646  : 				_Right(_Pnode) = _Right(_Erasednode);	// link successor down

  002c2	8b 55 f0	 mov	 edx, DWORD PTR __Erasednode$[ebp]
  002c5	52		 push	 edx
  002c6	e8 00 00 00 00	 call	 ?_Right@?$_Tree@V?$_Tmap_traits@KPAVIData@@U?$less@K@std@@V?$allocator@U?$pair@$$CBKPAVIData@@@std@@@3@$0A@@std@@@std@@KAAAPAU_Node@?$_Tree_nod@V?$_Tmap_traits@KPAVIData@@U?$less@K@std@@V?$allocator@U?$pair@$$CBKPAVIData@@@std@@@3@$0A@@std@@@2@PAU342@@Z ; std::_Tree<std::_Tmap_traits<unsigned long,IData *,std::less<unsigned long>,std::allocator<std::pair<unsigned long const ,IData *> >,0> >::_Right
  002cb	83 c4 04	 add	 esp, 4
  002ce	8b f0		 mov	 esi, eax
  002d0	8b 45 e8	 mov	 eax, DWORD PTR __Pnode$[ebp]
  002d3	50		 push	 eax
  002d4	e8 00 00 00 00	 call	 ?_Right@?$_Tree@V?$_Tmap_traits@KPAVIData@@U?$less@K@std@@V?$allocator@U?$pair@$$CBKPAVIData@@@std@@@3@$0A@@std@@@std@@KAAAPAU_Node@?$_Tree_nod@V?$_Tmap_traits@KPAVIData@@U?$less@K@std@@V?$allocator@U?$pair@$$CBKPAVIData@@@std@@@3@$0A@@std@@@2@PAU342@@Z ; std::_Tree<std::_Tmap_traits<unsigned long,IData *,std::less<unsigned long>,std::allocator<std::pair<unsigned long const ,IData *> >,0> >::_Right
  002d9	83 c4 04	 add	 esp, 4
  002dc	8b 0e		 mov	 ecx, DWORD PTR [esi]
  002de	89 08		 mov	 DWORD PTR [eax], ecx

; 647  : 				_Parent(_Right(_Erasednode)) = _Pnode;	// link right up

  002e0	8b 55 f0	 mov	 edx, DWORD PTR __Erasednode$[ebp]
  002e3	52		 push	 edx
  002e4	e8 00 00 00 00	 call	 ?_Right@?$_Tree@V?$_Tmap_traits@KPAVIData@@U?$less@K@std@@V?$allocator@U?$pair@$$CBKPAVIData@@@std@@@3@$0A@@std@@@std@@KAAAPAU_Node@?$_Tree_nod@V?$_Tmap_traits@KPAVIData@@U?$less@K@std@@V?$allocator@U?$pair@$$CBKPAVIData@@@std@@@3@$0A@@std@@@2@PAU342@@Z ; std::_Tree<std::_Tmap_traits<unsigned long,IData *,std::less<unsigned long>,std::allocator<std::pair<unsigned long const ,IData *> >,0> >::_Right
  002e9	83 c4 04	 add	 esp, 4
  002ec	8b 00		 mov	 eax, DWORD PTR [eax]
  002ee	50		 push	 eax
  002ef	e8 00 00 00 00	 call	 ?_Parent@?$_Tree@V?$_Tmap_traits@KPAVIData@@U?$less@K@std@@V?$allocator@U?$pair@$$CBKPAVIData@@@std@@@3@$0A@@std@@@std@@KAAAPAU_Node@?$_Tree_nod@V?$_Tmap_traits@KPAVIData@@U?$less@K@std@@V?$allocator@U?$pair@$$CBKPAVIData@@@std@@@3@$0A@@std@@@2@PAU342@@Z ; std::_Tree<std::_Tmap_traits<unsigned long,IData *,std::less<unsigned long>,std::allocator<std::pair<unsigned long const ,IData *> >,0> >::_Parent
  002f4	83 c4 04	 add	 esp, 4
  002f7	8b 4d e8	 mov	 ecx, DWORD PTR __Pnode$[ebp]
  002fa	89 08		 mov	 DWORD PTR [eax], ecx
$L199706:

; 648  : 				}
; 649  : 
; 650  : 			if (_Root() == _Erasednode)

  002fc	8b 4d 9c	 mov	 ecx, DWORD PTR _this$[ebp]
  002ff	e8 00 00 00 00	 call	 ?_Root@?$_Tree@V?$_Tmap_traits@KPAVIData@@U?$less@K@std@@V?$allocator@U?$pair@$$CBKPAVIData@@@std@@@3@$0A@@std@@@std@@IAEAAPAU_Node@?$_Tree_nod@V?$_Tmap_traits@KPAVIData@@U?$less@K@std@@V?$allocator@U?$pair@$$CBKPAVIData@@@std@@@3@$0A@@std@@@2@XZ ; std::_Tree<std::_Tmap_traits<unsigned long,IData *,std::less<unsigned long>,std::allocator<std::pair<unsigned long const ,IData *> >,0> >::_Root
  00304	8b 10		 mov	 edx, DWORD PTR [eax]
  00306	3b 55 f0	 cmp	 edx, DWORD PTR __Erasednode$[ebp]
  00309	75 0f		 jne	 SHORT $L199708

; 651  : 				_Root() = _Pnode;	// link down from root

  0030b	8b 4d 9c	 mov	 ecx, DWORD PTR _this$[ebp]
  0030e	e8 00 00 00 00	 call	 ?_Root@?$_Tree@V?$_Tmap_traits@KPAVIData@@U?$less@K@std@@V?$allocator@U?$pair@$$CBKPAVIData@@@std@@@3@$0A@@std@@@std@@IAEAAPAU_Node@?$_Tree_nod@V?$_Tmap_traits@KPAVIData@@U?$less@K@std@@V?$allocator@U?$pair@$$CBKPAVIData@@@std@@@3@$0A@@std@@@2@XZ ; std::_Tree<std::_Tmap_traits<unsigned long,IData *,std::less<unsigned long>,std::allocator<std::pair<unsigned long const ,IData *> >,0> >::_Root
  00313	8b 4d e8	 mov	 ecx, DWORD PTR __Pnode$[ebp]
  00316	89 08		 mov	 DWORD PTR [eax], ecx

; 652  : 			else if (_Left(_Parent(_Erasednode)) == _Erasednode)

  00318	eb 58		 jmp	 SHORT $L199709
$L199708:
  0031a	8b 55 f0	 mov	 edx, DWORD PTR __Erasednode$[ebp]
  0031d	52		 push	 edx
  0031e	e8 00 00 00 00	 call	 ?_Parent@?$_Tree@V?$_Tmap_traits@KPAVIData@@U?$less@K@std@@V?$allocator@U?$pair@$$CBKPAVIData@@@std@@@3@$0A@@std@@@std@@KAAAPAU_Node@?$_Tree_nod@V?$_Tmap_traits@KPAVIData@@U?$less@K@std@@V?$allocator@U?$pair@$$CBKPAVIData@@@std@@@3@$0A@@std@@@2@PAU342@@Z ; std::_Tree<std::_Tmap_traits<unsigned long,IData *,std::less<unsigned long>,std::allocator<std::pair<unsigned long const ,IData *> >,0> >::_Parent
  00323	83 c4 04	 add	 esp, 4
  00326	8b 00		 mov	 eax, DWORD PTR [eax]
  00328	50		 push	 eax
  00329	e8 00 00 00 00	 call	 ?_Left@?$_Tree@V?$_Tmap_traits@KPAVIData@@U?$less@K@std@@V?$allocator@U?$pair@$$CBKPAVIData@@@std@@@3@$0A@@std@@@std@@KAAAPAU_Node@?$_Tree_nod@V?$_Tmap_traits@KPAVIData@@U?$less@K@std@@V?$allocator@U?$pair@$$CBKPAVIData@@@std@@@3@$0A@@std@@@2@PAU342@@Z ; std::_Tree<std::_Tmap_traits<unsigned long,IData *,std::less<unsigned long>,std::allocator<std::pair<unsigned long const ,IData *> >,0> >::_Left
  0032e	83 c4 04	 add	 esp, 4
  00331	8b 08		 mov	 ecx, DWORD PTR [eax]
  00333	3b 4d f0	 cmp	 ecx, DWORD PTR __Erasednode$[ebp]
  00336	75 1e		 jne	 SHORT $L199710

; 653  : 				_Left(_Parent(_Erasednode)) = _Pnode;	// link down to left

  00338	8b 55 f0	 mov	 edx, DWORD PTR __Erasednode$[ebp]
  0033b	52		 push	 edx
  0033c	e8 00 00 00 00	 call	 ?_Parent@?$_Tree@V?$_Tmap_traits@KPAVIData@@U?$less@K@std@@V?$allocator@U?$pair@$$CBKPAVIData@@@std@@@3@$0A@@std@@@std@@KAAAPAU_Node@?$_Tree_nod@V?$_Tmap_traits@KPAVIData@@U?$less@K@std@@V?$allocator@U?$pair@$$CBKPAVIData@@@std@@@3@$0A@@std@@@2@PAU342@@Z ; std::_Tree<std::_Tmap_traits<unsigned long,IData *,std::less<unsigned long>,std::allocator<std::pair<unsigned long const ,IData *> >,0> >::_Parent
  00341	83 c4 04	 add	 esp, 4
  00344	8b 00		 mov	 eax, DWORD PTR [eax]
  00346	50		 push	 eax
  00347	e8 00 00 00 00	 call	 ?_Left@?$_Tree@V?$_Tmap_traits@KPAVIData@@U?$less@K@std@@V?$allocator@U?$pair@$$CBKPAVIData@@@std@@@3@$0A@@std@@@std@@KAAAPAU_Node@?$_Tree_nod@V?$_Tmap_traits@KPAVIData@@U?$less@K@std@@V?$allocator@U?$pair@$$CBKPAVIData@@@std@@@3@$0A@@std@@@2@PAU342@@Z ; std::_Tree<std::_Tmap_traits<unsigned long,IData *,std::less<unsigned long>,std::allocator<std::pair<unsigned long const ,IData *> >,0> >::_Left
  0034c	83 c4 04	 add	 esp, 4
  0034f	8b 4d e8	 mov	 ecx, DWORD PTR __Pnode$[ebp]
  00352	89 08		 mov	 DWORD PTR [eax], ecx

; 654  : 			else

  00354	eb 1c		 jmp	 SHORT $L199709
$L199710:

; 655  : 				_Right(_Parent(_Erasednode)) = _Pnode;	// link down to right

  00356	8b 55 f0	 mov	 edx, DWORD PTR __Erasednode$[ebp]
  00359	52		 push	 edx
  0035a	e8 00 00 00 00	 call	 ?_Parent@?$_Tree@V?$_Tmap_traits@KPAVIData@@U?$less@K@std@@V?$allocator@U?$pair@$$CBKPAVIData@@@std@@@3@$0A@@std@@@std@@KAAAPAU_Node@?$_Tree_nod@V?$_Tmap_traits@KPAVIData@@U?$less@K@std@@V?$allocator@U?$pair@$$CBKPAVIData@@@std@@@3@$0A@@std@@@2@PAU342@@Z ; std::_Tree<std::_Tmap_traits<unsigned long,IData *,std::less<unsigned long>,std::allocator<std::pair<unsigned long const ,IData *> >,0> >::_Parent
  0035f	83 c4 04	 add	 esp, 4
  00362	8b 00		 mov	 eax, DWORD PTR [eax]
  00364	50		 push	 eax
  00365	e8 00 00 00 00	 call	 ?_Right@?$_Tree@V?$_Tmap_traits@KPAVIData@@U?$less@K@std@@V?$allocator@U?$pair@$$CBKPAVIData@@@std@@@3@$0A@@std@@@std@@KAAAPAU_Node@?$_Tree_nod@V?$_Tmap_traits@KPAVIData@@U?$less@K@std@@V?$allocator@U?$pair@$$CBKPAVIData@@@std@@@3@$0A@@std@@@2@PAU342@@Z ; std::_Tree<std::_Tmap_traits<unsigned long,IData *,std::less<unsigned long>,std::allocator<std::pair<unsigned long const ,IData *> >,0> >::_Right
  0036a	83 c4 04	 add	 esp, 4
  0036d	8b 4d e8	 mov	 ecx, DWORD PTR __Pnode$[ebp]
  00370	89 08		 mov	 DWORD PTR [eax], ecx
$L199709:

; 656  : 
; 657  : 			_Parent(_Pnode) = _Parent(_Erasednode);	// link successor up

  00372	8b 55 f0	 mov	 edx, DWORD PTR __Erasednode$[ebp]
  00375	52		 push	 edx
  00376	e8 00 00 00 00	 call	 ?_Parent@?$_Tree@V?$_Tmap_traits@KPAVIData@@U?$less@K@std@@V?$allocator@U?$pair@$$CBKPAVIData@@@std@@@3@$0A@@std@@@std@@KAAAPAU_Node@?$_Tree_nod@V?$_Tmap_traits@KPAVIData@@U?$less@K@std@@V?$allocator@U?$pair@$$CBKPAVIData@@@std@@@3@$0A@@std@@@2@PAU342@@Z ; std::_Tree<std::_Tmap_traits<unsigned long,IData *,std::less<unsigned long>,std::allocator<std::pair<unsigned long const ,IData *> >,0> >::_Parent
  0037b	83 c4 04	 add	 esp, 4
  0037e	8b f0		 mov	 esi, eax
  00380	8b 45 e8	 mov	 eax, DWORD PTR __Pnode$[ebp]
  00383	50		 push	 eax
  00384	e8 00 00 00 00	 call	 ?_Parent@?$_Tree@V?$_Tmap_traits@KPAVIData@@U?$less@K@std@@V?$allocator@U?$pair@$$CBKPAVIData@@@std@@@3@$0A@@std@@@std@@KAAAPAU_Node@?$_Tree_nod@V?$_Tmap_traits@KPAVIData@@U?$less@K@std@@V?$allocator@U?$pair@$$CBKPAVIData@@@std@@@3@$0A@@std@@@2@PAU342@@Z ; std::_Tree<std::_Tmap_traits<unsigned long,IData *,std::less<unsigned long>,std::allocator<std::pair<unsigned long const ,IData *> >,0> >::_Parent
  00389	83 c4 04	 add	 esp, 4
  0038c	8b 0e		 mov	 ecx, DWORD PTR [esi]
  0038e	89 08		 mov	 DWORD PTR [eax], ecx

; 658  : 			std::swap(_Color(_Pnode), _Color(_Erasednode));	// recolor it

  00390	8b 55 f0	 mov	 edx, DWORD PTR __Erasednode$[ebp]
  00393	52		 push	 edx
  00394	e8 00 00 00 00	 call	 ?_Color@?$_Tree@V?$_Tmap_traits@KPAVIData@@U?$less@K@std@@V?$allocator@U?$pair@$$CBKPAVIData@@@std@@@3@$0A@@std@@@std@@KAAADPAU_Node@?$_Tree_nod@V?$_Tmap_traits@KPAVIData@@U?$less@K@std@@V?$allocator@U?$pair@$$CBKPAVIData@@@std@@@3@$0A@@std@@@2@@Z ; std::_Tree<std::_Tmap_traits<unsigned long,IData *,std::less<unsigned long>,std::allocator<std::pair<unsigned long const ,IData *> >,0> >::_Color
  00399	83 c4 04	 add	 esp, 4
  0039c	50		 push	 eax
  0039d	8b 45 e8	 mov	 eax, DWORD PTR __Pnode$[ebp]
  003a0	50		 push	 eax
  003a1	e8 00 00 00 00	 call	 ?_Color@?$_Tree@V?$_Tmap_traits@KPAVIData@@U?$less@K@std@@V?$allocator@U?$pair@$$CBKPAVIData@@@std@@@3@$0A@@std@@@std@@KAAADPAU_Node@?$_Tree_nod@V?$_Tmap_traits@KPAVIData@@U?$less@K@std@@V?$allocator@U?$pair@$$CBKPAVIData@@@std@@@3@$0A@@std@@@2@@Z ; std::_Tree<std::_Tmap_traits<unsigned long,IData *,std::less<unsigned long>,std::allocator<std::pair<unsigned long const ,IData *> >,0> >::_Color
  003a6	83 c4 04	 add	 esp, 4
  003a9	50		 push	 eax
  003aa	e8 00 00 00 00	 call	 ??$swap@D@std@@YAXAAD0@Z ; std::swap<char>
  003af	83 c4 08	 add	 esp, 8
$L199704:

; 659  : 			}
; 660  : 
; 661  : 		if (_Color(_Erasednode) == _Black)

  003b2	8b 4d f0	 mov	 ecx, DWORD PTR __Erasednode$[ebp]
  003b5	51		 push	 ecx
  003b6	e8 00 00 00 00	 call	 ?_Color@?$_Tree@V?$_Tmap_traits@KPAVIData@@U?$less@K@std@@V?$allocator@U?$pair@$$CBKPAVIData@@@std@@@3@$0A@@std@@@std@@KAAADPAU_Node@?$_Tree_nod@V?$_Tmap_traits@KPAVIData@@U?$less@K@std@@V?$allocator@U?$pair@$$CBKPAVIData@@@std@@@3@$0A@@std@@@2@@Z ; std::_Tree<std::_Tmap_traits<unsigned long,IData *,std::less<unsigned long>,std::allocator<std::pair<unsigned long const ,IData *> >,0> >::_Color
  003bb	83 c4 04	 add	 esp, 4
  003be	0f be 10	 movsx	 edx, BYTE PTR [eax]
  003c1	83 fa 01	 cmp	 edx, 1
  003c4	0f 85 8f 03 00
	00		 jne	 $L199712

; 662  : 			{	// erasing black link, must recolor/rebalance tree
; 663  : 			for (; _Fixnode != _Root() && _Color(_Fixnode) == _Black;
; 664  : 				_Fixnodeparent = _Parent(_Fixnode))

  003ca	eb 11		 jmp	 SHORT $L199713
$L199714:
  003cc	8b 45 ec	 mov	 eax, DWORD PTR __Fixnode$[ebp]
  003cf	50		 push	 eax
  003d0	e8 00 00 00 00	 call	 ?_Parent@?$_Tree@V?$_Tmap_traits@KPAVIData@@U?$less@K@std@@V?$allocator@U?$pair@$$CBKPAVIData@@@std@@@3@$0A@@std@@@std@@KAAAPAU_Node@?$_Tree_nod@V?$_Tmap_traits@KPAVIData@@U?$less@K@std@@V?$allocator@U?$pair@$$CBKPAVIData@@@std@@@3@$0A@@std@@@2@PAU342@@Z ; std::_Tree<std::_Tmap_traits<unsigned long,IData *,std::less<unsigned long>,std::allocator<std::pair<unsigned long const ,IData *> >,0> >::_Parent
  003d5	83 c4 04	 add	 esp, 4
  003d8	8b 08		 mov	 ecx, DWORD PTR [eax]
  003da	89 4d e4	 mov	 DWORD PTR __Fixnodeparent$[ebp], ecx
$L199713:
  003dd	8b 4d 9c	 mov	 ecx, DWORD PTR _this$[ebp]
  003e0	e8 00 00 00 00	 call	 ?_Root@?$_Tree@V?$_Tmap_traits@KPAVIData@@U?$less@K@std@@V?$allocator@U?$pair@$$CBKPAVIData@@@std@@@3@$0A@@std@@@std@@IAEAAPAU_Node@?$_Tree_nod@V?$_Tmap_traits@KPAVIData@@U?$less@K@std@@V?$allocator@U?$pair@$$CBKPAVIData@@@std@@@3@$0A@@std@@@2@XZ ; std::_Tree<std::_Tmap_traits<unsigned long,IData *,std::less<unsigned long>,std::allocator<std::pair<unsigned long const ,IData *> >,0> >::_Root
  003e5	8b 55 ec	 mov	 edx, DWORD PTR __Fixnode$[ebp]
  003e8	3b 10		 cmp	 edx, DWORD PTR [eax]
  003ea	0f 84 5a 03 00
	00		 je	 $L199715
  003f0	8b 45 ec	 mov	 eax, DWORD PTR __Fixnode$[ebp]
  003f3	50		 push	 eax
  003f4	e8 00 00 00 00	 call	 ?_Color@?$_Tree@V?$_Tmap_traits@KPAVIData@@U?$less@K@std@@V?$allocator@U?$pair@$$CBKPAVIData@@@std@@@3@$0A@@std@@@std@@KAAADPAU_Node@?$_Tree_nod@V?$_Tmap_traits@KPAVIData@@U?$less@K@std@@V?$allocator@U?$pair@$$CBKPAVIData@@@std@@@3@$0A@@std@@@2@@Z ; std::_Tree<std::_Tmap_traits<unsigned long,IData *,std::less<unsigned long>,std::allocator<std::pair<unsigned long const ,IData *> >,0> >::_Color
  003f9	83 c4 04	 add	 esp, 4
  003fc	0f be 08	 movsx	 ecx, BYTE PTR [eax]
  003ff	83 f9 01	 cmp	 ecx, 1
  00402	0f 85 42 03 00
	00		 jne	 $L199715

; 665  : 				if (_Fixnode == _Left(_Fixnodeparent))

  00408	8b 55 e4	 mov	 edx, DWORD PTR __Fixnodeparent$[ebp]
  0040b	52		 push	 edx
  0040c	e8 00 00 00 00	 call	 ?_Left@?$_Tree@V?$_Tmap_traits@KPAVIData@@U?$less@K@std@@V?$allocator@U?$pair@$$CBKPAVIData@@@std@@@3@$0A@@std@@@std@@KAAAPAU_Node@?$_Tree_nod@V?$_Tmap_traits@KPAVIData@@U?$less@K@std@@V?$allocator@U?$pair@$$CBKPAVIData@@@std@@@3@$0A@@std@@@2@PAU342@@Z ; std::_Tree<std::_Tmap_traits<unsigned long,IData *,std::less<unsigned long>,std::allocator<std::pair<unsigned long const ,IData *> >,0> >::_Left
  00411	83 c4 04	 add	 esp, 4
  00414	8b 4d ec	 mov	 ecx, DWORD PTR __Fixnode$[ebp]
  00417	3b 08		 cmp	 ecx, DWORD PTR [eax]
  00419	0f 85 97 01 00
	00		 jne	 $L199716

; 666  : 					{	// fixup left subtree
; 667  : 					_Pnode = _Right(_Fixnodeparent);

  0041f	8b 55 e4	 mov	 edx, DWORD PTR __Fixnodeparent$[ebp]
  00422	52		 push	 edx
  00423	e8 00 00 00 00	 call	 ?_Right@?$_Tree@V?$_Tmap_traits@KPAVIData@@U?$less@K@std@@V?$allocator@U?$pair@$$CBKPAVIData@@@std@@@3@$0A@@std@@@std@@KAAAPAU_Node@?$_Tree_nod@V?$_Tmap_traits@KPAVIData@@U?$less@K@std@@V?$allocator@U?$pair@$$CBKPAVIData@@@std@@@3@$0A@@std@@@2@PAU342@@Z ; std::_Tree<std::_Tmap_traits<unsigned long,IData *,std::less<unsigned long>,std::allocator<std::pair<unsigned long const ,IData *> >,0> >::_Right
  00428	83 c4 04	 add	 esp, 4
  0042b	8b 00		 mov	 eax, DWORD PTR [eax]
  0042d	89 45 e8	 mov	 DWORD PTR __Pnode$[ebp], eax

; 668  : 					if (_Color(_Pnode) == _Red)

  00430	8b 4d e8	 mov	 ecx, DWORD PTR __Pnode$[ebp]
  00433	51		 push	 ecx
  00434	e8 00 00 00 00	 call	 ?_Color@?$_Tree@V?$_Tmap_traits@KPAVIData@@U?$less@K@std@@V?$allocator@U?$pair@$$CBKPAVIData@@@std@@@3@$0A@@std@@@std@@KAAADPAU_Node@?$_Tree_nod@V?$_Tmap_traits@KPAVIData@@U?$less@K@std@@V?$allocator@U?$pair@$$CBKPAVIData@@@std@@@3@$0A@@std@@@2@@Z ; std::_Tree<std::_Tmap_traits<unsigned long,IData *,std::less<unsigned long>,std::allocator<std::pair<unsigned long const ,IData *> >,0> >::_Color
  00439	83 c4 04	 add	 esp, 4
  0043c	0f be 10	 movsx	 edx, BYTE PTR [eax]
  0043f	85 d2		 test	 edx, edx
  00441	75 3b		 jne	 SHORT $L199717

; 669  : 						{	// rotate red up from right subtree
; 670  : 						_Color(_Pnode) = _Black;

  00443	8b 45 e8	 mov	 eax, DWORD PTR __Pnode$[ebp]
  00446	50		 push	 eax
  00447	e8 00 00 00 00	 call	 ?_Color@?$_Tree@V?$_Tmap_traits@KPAVIData@@U?$less@K@std@@V?$allocator@U?$pair@$$CBKPAVIData@@@std@@@3@$0A@@std@@@std@@KAAADPAU_Node@?$_Tree_nod@V?$_Tmap_traits@KPAVIData@@U?$less@K@std@@V?$allocator@U?$pair@$$CBKPAVIData@@@std@@@3@$0A@@std@@@2@@Z ; std::_Tree<std::_Tmap_traits<unsigned long,IData *,std::less<unsigned long>,std::allocator<std::pair<unsigned long const ,IData *> >,0> >::_Color
  0044c	83 c4 04	 add	 esp, 4
  0044f	c6 00 01	 mov	 BYTE PTR [eax], 1

; 671  : 						_Color(_Fixnodeparent) = _Red;

  00452	8b 4d e4	 mov	 ecx, DWORD PTR __Fixnodeparent$[ebp]
  00455	51		 push	 ecx
  00456	e8 00 00 00 00	 call	 ?_Color@?$_Tree@V?$_Tmap_traits@KPAVIData@@U?$less@K@std@@V?$allocator@U?$pair@$$CBKPAVIData@@@std@@@3@$0A@@std@@@std@@KAAADPAU_Node@?$_Tree_nod@V?$_Tmap_traits@KPAVIData@@U?$less@K@std@@V?$allocator@U?$pair@$$CBKPAVIData@@@std@@@3@$0A@@std@@@2@@Z ; std::_Tree<std::_Tmap_traits<unsigned long,IData *,std::less<unsigned long>,std::allocator<std::pair<unsigned long const ,IData *> >,0> >::_Color
  0045b	83 c4 04	 add	 esp, 4
  0045e	c6 00 00	 mov	 BYTE PTR [eax], 0

; 672  : 						_Lrotate(_Fixnodeparent);

  00461	8b 55 e4	 mov	 edx, DWORD PTR __Fixnodeparent$[ebp]
  00464	52		 push	 edx
  00465	8b 4d 9c	 mov	 ecx, DWORD PTR _this$[ebp]
  00468	e8 00 00 00 00	 call	 ?_Lrotate@?$_Tree@V?$_Tmap_traits@KPAVIData@@U?$less@K@std@@V?$allocator@U?$pair@$$CBKPAVIData@@@std@@@3@$0A@@std@@@std@@IAEXPAU_Node@?$_Tree_nod@V?$_Tmap_traits@KPAVIData@@U?$less@K@std@@V?$allocator@U?$pair@$$CBKPAVIData@@@std@@@3@$0A@@std@@@2@@Z ; std::_Tree<std::_Tmap_traits<unsigned long,IData *,std::less<unsigned long>,std::allocator<std::pair<unsigned long const ,IData *> >,0> >::_Lrotate

; 673  : 						_Pnode = _Right(_Fixnodeparent);

  0046d	8b 45 e4	 mov	 eax, DWORD PTR __Fixnodeparent$[ebp]
  00470	50		 push	 eax
  00471	e8 00 00 00 00	 call	 ?_Right@?$_Tree@V?$_Tmap_traits@KPAVIData@@U?$less@K@std@@V?$allocator@U?$pair@$$CBKPAVIData@@@std@@@3@$0A@@std@@@std@@KAAAPAU_Node@?$_Tree_nod@V?$_Tmap_traits@KPAVIData@@U?$less@K@std@@V?$allocator@U?$pair@$$CBKPAVIData@@@std@@@3@$0A@@std@@@2@PAU342@@Z ; std::_Tree<std::_Tmap_traits<unsigned long,IData *,std::less<unsigned long>,std::allocator<std::pair<unsigned long const ,IData *> >,0> >::_Right
  00476	83 c4 04	 add	 esp, 4
  00479	8b 08		 mov	 ecx, DWORD PTR [eax]
  0047b	89 4d e8	 mov	 DWORD PTR __Pnode$[ebp], ecx
$L199717:

; 674  : 						}
; 675  : 
; 676  : 					if (_Isnil(_Pnode))

  0047e	8b 55 e8	 mov	 edx, DWORD PTR __Pnode$[ebp]
  00481	52		 push	 edx
  00482	e8 00 00 00 00	 call	 ?_Isnil@?$_Tree@V?$_Tmap_traits@KPAVIData@@U?$less@K@std@@V?$allocator@U?$pair@$$CBKPAVIData@@@std@@@3@$0A@@std@@@std@@KAAADPAU_Node@?$_Tree_nod@V?$_Tmap_traits@KPAVIData@@U?$less@K@std@@V?$allocator@U?$pair@$$CBKPAVIData@@@std@@@3@$0A@@std@@@2@@Z ; std::_Tree<std::_Tmap_traits<unsigned long,IData *,std::less<unsigned long>,std::allocator<std::pair<unsigned long const ,IData *> >,0> >::_Isnil
  00487	83 c4 04	 add	 esp, 4
  0048a	0f be 00	 movsx	 eax, BYTE PTR [eax]
  0048d	85 c0		 test	 eax, eax
  0048f	74 0b		 je	 SHORT $L199718

; 677  : 						_Fixnode = _Fixnodeparent;	// shouldn't happen

  00491	8b 4d e4	 mov	 ecx, DWORD PTR __Fixnodeparent$[ebp]
  00494	89 4d ec	 mov	 DWORD PTR __Fixnode$[ebp], ecx

; 678  : 					else if (_Color(_Left(_Pnode)) == _Black

  00497	e9 15 01 00 00	 jmp	 $L199719
$L199718:

; 679  : 						&& _Color(_Right(_Pnode)) == _Black)

  0049c	8b 55 e8	 mov	 edx, DWORD PTR __Pnode$[ebp]
  0049f	52		 push	 edx
  004a0	e8 00 00 00 00	 call	 ?_Left@?$_Tree@V?$_Tmap_traits@KPAVIData@@U?$less@K@std@@V?$allocator@U?$pair@$$CBKPAVIData@@@std@@@3@$0A@@std@@@std@@KAAAPAU_Node@?$_Tree_nod@V?$_Tmap_traits@KPAVIData@@U?$less@K@std@@V?$allocator@U?$pair@$$CBKPAVIData@@@std@@@3@$0A@@std@@@2@PAU342@@Z ; std::_Tree<std::_Tmap_traits<unsigned long,IData *,std::less<unsigned long>,std::allocator<std::pair<unsigned long const ,IData *> >,0> >::_Left
  004a5	83 c4 04	 add	 esp, 4
  004a8	8b 00		 mov	 eax, DWORD PTR [eax]
  004aa	50		 push	 eax
  004ab	e8 00 00 00 00	 call	 ?_Color@?$_Tree@V?$_Tmap_traits@KPAVIData@@U?$less@K@std@@V?$allocator@U?$pair@$$CBKPAVIData@@@std@@@3@$0A@@std@@@std@@KAAADPAU_Node@?$_Tree_nod@V?$_Tmap_traits@KPAVIData@@U?$less@K@std@@V?$allocator@U?$pair@$$CBKPAVIData@@@std@@@3@$0A@@std@@@2@@Z ; std::_Tree<std::_Tmap_traits<unsigned long,IData *,std::less<unsigned long>,std::allocator<std::pair<unsigned long const ,IData *> >,0> >::_Color
  004b0	83 c4 04	 add	 esp, 4
  004b3	0f be 08	 movsx	 ecx, BYTE PTR [eax]
  004b6	83 f9 01	 cmp	 ecx, 1
  004b9	75 39		 jne	 SHORT $L199720
  004bb	8b 55 e8	 mov	 edx, DWORD PTR __Pnode$[ebp]
  004be	52		 push	 edx
  004bf	e8 00 00 00 00	 call	 ?_Right@?$_Tree@V?$_Tmap_traits@KPAVIData@@U?$less@K@std@@V?$allocator@U?$pair@$$CBKPAVIData@@@std@@@3@$0A@@std@@@std@@KAAAPAU_Node@?$_Tree_nod@V?$_Tmap_traits@KPAVIData@@U?$less@K@std@@V?$allocator@U?$pair@$$CBKPAVIData@@@std@@@3@$0A@@std@@@2@PAU342@@Z ; std::_Tree<std::_Tmap_traits<unsigned long,IData *,std::less<unsigned long>,std::allocator<std::pair<unsigned long const ,IData *> >,0> >::_Right
  004c4	83 c4 04	 add	 esp, 4
  004c7	8b 00		 mov	 eax, DWORD PTR [eax]
  004c9	50		 push	 eax
  004ca	e8 00 00 00 00	 call	 ?_Color@?$_Tree@V?$_Tmap_traits@KPAVIData@@U?$less@K@std@@V?$allocator@U?$pair@$$CBKPAVIData@@@std@@@3@$0A@@std@@@std@@KAAADPAU_Node@?$_Tree_nod@V?$_Tmap_traits@KPAVIData@@U?$less@K@std@@V?$allocator@U?$pair@$$CBKPAVIData@@@std@@@3@$0A@@std@@@2@@Z ; std::_Tree<std::_Tmap_traits<unsigned long,IData *,std::less<unsigned long>,std::allocator<std::pair<unsigned long const ,IData *> >,0> >::_Color
  004cf	83 c4 04	 add	 esp, 4
  004d2	0f be 08	 movsx	 ecx, BYTE PTR [eax]
  004d5	83 f9 01	 cmp	 ecx, 1
  004d8	75 1a		 jne	 SHORT $L199720

; 680  : 						{	// redden right subtree with black children
; 681  : 						_Color(_Pnode) = _Red;

  004da	8b 55 e8	 mov	 edx, DWORD PTR __Pnode$[ebp]
  004dd	52		 push	 edx
  004de	e8 00 00 00 00	 call	 ?_Color@?$_Tree@V?$_Tmap_traits@KPAVIData@@U?$less@K@std@@V?$allocator@U?$pair@$$CBKPAVIData@@@std@@@3@$0A@@std@@@std@@KAAADPAU_Node@?$_Tree_nod@V?$_Tmap_traits@KPAVIData@@U?$less@K@std@@V?$allocator@U?$pair@$$CBKPAVIData@@@std@@@3@$0A@@std@@@2@@Z ; std::_Tree<std::_Tmap_traits<unsigned long,IData *,std::less<unsigned long>,std::allocator<std::pair<unsigned long const ,IData *> >,0> >::_Color
  004e3	83 c4 04	 add	 esp, 4
  004e6	c6 00 00	 mov	 BYTE PTR [eax], 0

; 682  : 						_Fixnode = _Fixnodeparent;

  004e9	8b 45 e4	 mov	 eax, DWORD PTR __Fixnodeparent$[ebp]
  004ec	89 45 ec	 mov	 DWORD PTR __Fixnode$[ebp], eax

; 683  : 						}
; 684  : 					else

  004ef	e9 bd 00 00 00	 jmp	 $L199719
$L199720:

; 685  : 						{	// must rearrange right subtree
; 686  : 						if (_Color(_Right(_Pnode)) == _Black)

  004f4	8b 4d e8	 mov	 ecx, DWORD PTR __Pnode$[ebp]
  004f7	51		 push	 ecx
  004f8	e8 00 00 00 00	 call	 ?_Right@?$_Tree@V?$_Tmap_traits@KPAVIData@@U?$less@K@std@@V?$allocator@U?$pair@$$CBKPAVIData@@@std@@@3@$0A@@std@@@std@@KAAAPAU_Node@?$_Tree_nod@V?$_Tmap_traits@KPAVIData@@U?$less@K@std@@V?$allocator@U?$pair@$$CBKPAVIData@@@std@@@3@$0A@@std@@@2@PAU342@@Z ; std::_Tree<std::_Tmap_traits<unsigned long,IData *,std::less<unsigned long>,std::allocator<std::pair<unsigned long const ,IData *> >,0> >::_Right
  004fd	83 c4 04	 add	 esp, 4
  00500	8b 10		 mov	 edx, DWORD PTR [eax]
  00502	52		 push	 edx
  00503	e8 00 00 00 00	 call	 ?_Color@?$_Tree@V?$_Tmap_traits@KPAVIData@@U?$less@K@std@@V?$allocator@U?$pair@$$CBKPAVIData@@@std@@@3@$0A@@std@@@std@@KAAADPAU_Node@?$_Tree_nod@V?$_Tmap_traits@KPAVIData@@U?$less@K@std@@V?$allocator@U?$pair@$$CBKPAVIData@@@std@@@3@$0A@@std@@@2@@Z ; std::_Tree<std::_Tmap_traits<unsigned long,IData *,std::less<unsigned long>,std::allocator<std::pair<unsigned long const ,IData *> >,0> >::_Color
  00508	83 c4 04	 add	 esp, 4
  0050b	0f be 00	 movsx	 eax, BYTE PTR [eax]
  0050e	83 f8 01	 cmp	 eax, 1
  00511	75 46		 jne	 SHORT $L199722

; 687  : 							{	// rotate red up from left sub-subtree
; 688  : 							_Color(_Left(_Pnode)) = _Black;

  00513	8b 4d e8	 mov	 ecx, DWORD PTR __Pnode$[ebp]
  00516	51		 push	 ecx
  00517	e8 00 00 00 00	 call	 ?_Left@?$_Tree@V?$_Tmap_traits@KPAVIData@@U?$less@K@std@@V?$allocator@U?$pair@$$CBKPAVIData@@@std@@@3@$0A@@std@@@std@@KAAAPAU_Node@?$_Tree_nod@V?$_Tmap_traits@KPAVIData@@U?$less@K@std@@V?$allocator@U?$pair@$$CBKPAVIData@@@std@@@3@$0A@@std@@@2@PAU342@@Z ; std::_Tree<std::_Tmap_traits<unsigned long,IData *,std::less<unsigned long>,std::allocator<std::pair<unsigned long const ,IData *> >,0> >::_Left
  0051c	83 c4 04	 add	 esp, 4
  0051f	8b 10		 mov	 edx, DWORD PTR [eax]
  00521	52		 push	 edx
  00522	e8 00 00 00 00	 call	 ?_Color@?$_Tree@V?$_Tmap_traits@KPAVIData@@U?$less@K@std@@V?$allocator@U?$pair@$$CBKPAVIData@@@std@@@3@$0A@@std@@@std@@KAAADPAU_Node@?$_Tree_nod@V?$_Tmap_traits@KPAVIData@@U?$less@K@std@@V?$allocator@U?$pair@$$CBKPAVIData@@@std@@@3@$0A@@std@@@2@@Z ; std::_Tree<std::_Tmap_traits<unsigned long,IData *,std::less<unsigned long>,std::allocator<std::pair<unsigned long const ,IData *> >,0> >::_Color
  00527	83 c4 04	 add	 esp, 4
  0052a	c6 00 01	 mov	 BYTE PTR [eax], 1

; 689  : 							_Color(_Pnode) = _Red;

  0052d	8b 45 e8	 mov	 eax, DWORD PTR __Pnode$[ebp]
  00530	50		 push	 eax
  00531	e8 00 00 00 00	 call	 ?_Color@?$_Tree@V?$_Tmap_traits@KPAVIData@@U?$less@K@std@@V?$allocator@U?$pair@$$CBKPAVIData@@@std@@@3@$0A@@std@@@std@@KAAADPAU_Node@?$_Tree_nod@V?$_Tmap_traits@KPAVIData@@U?$less@K@std@@V?$allocator@U?$pair@$$CBKPAVIData@@@std@@@3@$0A@@std@@@2@@Z ; std::_Tree<std::_Tmap_traits<unsigned long,IData *,std::less<unsigned long>,std::allocator<std::pair<unsigned long const ,IData *> >,0> >::_Color
  00536	83 c4 04	 add	 esp, 4
  00539	c6 00 00	 mov	 BYTE PTR [eax], 0

; 690  : 							_Rrotate(_Pnode);

  0053c	8b 4d e8	 mov	 ecx, DWORD PTR __Pnode$[ebp]
  0053f	51		 push	 ecx
  00540	8b 4d 9c	 mov	 ecx, DWORD PTR _this$[ebp]
  00543	e8 00 00 00 00	 call	 ?_Rrotate@?$_Tree@V?$_Tmap_traits@KPAVIData@@U?$less@K@std@@V?$allocator@U?$pair@$$CBKPAVIData@@@std@@@3@$0A@@std@@@std@@IAEXPAU_Node@?$_Tree_nod@V?$_Tmap_traits@KPAVIData@@U?$less@K@std@@V?$allocator@U?$pair@$$CBKPAVIData@@@std@@@3@$0A@@std@@@2@@Z ; std::_Tree<std::_Tmap_traits<unsigned long,IData *,std::less<unsigned long>,std::allocator<std::pair<unsigned long const ,IData *> >,0> >::_Rrotate

; 691  : 							_Pnode = _Right(_Fixnodeparent);

  00548	8b 55 e4	 mov	 edx, DWORD PTR __Fixnodeparent$[ebp]
  0054b	52		 push	 edx
  0054c	e8 00 00 00 00	 call	 ?_Right@?$_Tree@V?$_Tmap_traits@KPAVIData@@U?$less@K@std@@V?$allocator@U?$pair@$$CBKPAVIData@@@std@@@3@$0A@@std@@@std@@KAAAPAU_Node@?$_Tree_nod@V?$_Tmap_traits@KPAVIData@@U?$less@K@std@@V?$allocator@U?$pair@$$CBKPAVIData@@@std@@@3@$0A@@std@@@2@PAU342@@Z ; std::_Tree<std::_Tmap_traits<unsigned long,IData *,std::less<unsigned long>,std::allocator<std::pair<unsigned long const ,IData *> >,0> >::_Right
  00551	83 c4 04	 add	 esp, 4
  00554	8b 00		 mov	 eax, DWORD PTR [eax]
  00556	89 45 e8	 mov	 DWORD PTR __Pnode$[ebp], eax
$L199722:

; 692  : 							}
; 693  : 
; 694  : 						_Color(_Pnode) = _Color(_Fixnodeparent);

  00559	8b 4d e4	 mov	 ecx, DWORD PTR __Fixnodeparent$[ebp]
  0055c	51		 push	 ecx
  0055d	e8 00 00 00 00	 call	 ?_Color@?$_Tree@V?$_Tmap_traits@KPAVIData@@U?$less@K@std@@V?$allocator@U?$pair@$$CBKPAVIData@@@std@@@3@$0A@@std@@@std@@KAAADPAU_Node@?$_Tree_nod@V?$_Tmap_traits@KPAVIData@@U?$less@K@std@@V?$allocator@U?$pair@$$CBKPAVIData@@@std@@@3@$0A@@std@@@2@@Z ; std::_Tree<std::_Tmap_traits<unsigned long,IData *,std::less<unsigned long>,std::allocator<std::pair<unsigned long const ,IData *> >,0> >::_Color
  00562	83 c4 04	 add	 esp, 4
  00565	8b f0		 mov	 esi, eax
  00567	8b 55 e8	 mov	 edx, DWORD PTR __Pnode$[ebp]
  0056a	52		 push	 edx
  0056b	e8 00 00 00 00	 call	 ?_Color@?$_Tree@V?$_Tmap_traits@KPAVIData@@U?$less@K@std@@V?$allocator@U?$pair@$$CBKPAVIData@@@std@@@3@$0A@@std@@@std@@KAAADPAU_Node@?$_Tree_nod@V?$_Tmap_traits@KPAVIData@@U?$less@K@std@@V?$allocator@U?$pair@$$CBKPAVIData@@@std@@@3@$0A@@std@@@2@@Z ; std::_Tree<std::_Tmap_traits<unsigned long,IData *,std::less<unsigned long>,std::allocator<std::pair<unsigned long const ,IData *> >,0> >::_Color
  00570	83 c4 04	 add	 esp, 4
  00573	8a 0e		 mov	 cl, BYTE PTR [esi]
  00575	88 08		 mov	 BYTE PTR [eax], cl

; 695  : 						_Color(_Fixnodeparent) = _Black;

  00577	8b 55 e4	 mov	 edx, DWORD PTR __Fixnodeparent$[ebp]
  0057a	52		 push	 edx
  0057b	e8 00 00 00 00	 call	 ?_Color@?$_Tree@V?$_Tmap_traits@KPAVIData@@U?$less@K@std@@V?$allocator@U?$pair@$$CBKPAVIData@@@std@@@3@$0A@@std@@@std@@KAAADPAU_Node@?$_Tree_nod@V?$_Tmap_traits@KPAVIData@@U?$less@K@std@@V?$allocator@U?$pair@$$CBKPAVIData@@@std@@@3@$0A@@std@@@2@@Z ; std::_Tree<std::_Tmap_traits<unsigned long,IData *,std::less<unsigned long>,std::allocator<std::pair<unsigned long const ,IData *> >,0> >::_Color
  00580	83 c4 04	 add	 esp, 4
  00583	c6 00 01	 mov	 BYTE PTR [eax], 1

; 696  : 						_Color(_Right(_Pnode)) = _Black;

  00586	8b 45 e8	 mov	 eax, DWORD PTR __Pnode$[ebp]
  00589	50		 push	 eax
  0058a	e8 00 00 00 00	 call	 ?_Right@?$_Tree@V?$_Tmap_traits@KPAVIData@@U?$less@K@std@@V?$allocator@U?$pair@$$CBKPAVIData@@@std@@@3@$0A@@std@@@std@@KAAAPAU_Node@?$_Tree_nod@V?$_Tmap_traits@KPAVIData@@U?$less@K@std@@V?$allocator@U?$pair@$$CBKPAVIData@@@std@@@3@$0A@@std@@@2@PAU342@@Z ; std::_Tree<std::_Tmap_traits<unsigned long,IData *,std::less<unsigned long>,std::allocator<std::pair<unsigned long const ,IData *> >,0> >::_Right
  0058f	83 c4 04	 add	 esp, 4
  00592	8b 08		 mov	 ecx, DWORD PTR [eax]
  00594	51		 push	 ecx
  00595	e8 00 00 00 00	 call	 ?_Color@?$_Tree@V?$_Tmap_traits@KPAVIData@@U?$less@K@std@@V?$allocator@U?$pair@$$CBKPAVIData@@@std@@@3@$0A@@std@@@std@@KAAADPAU_Node@?$_Tree_nod@V?$_Tmap_traits@KPAVIData@@U?$less@K@std@@V?$allocator@U?$pair@$$CBKPAVIData@@@std@@@3@$0A@@std@@@2@@Z ; std::_Tree<std::_Tmap_traits<unsigned long,IData *,std::less<unsigned long>,std::allocator<std::pair<unsigned long const ,IData *> >,0> >::_Color
  0059a	83 c4 04	 add	 esp, 4
  0059d	c6 00 01	 mov	 BYTE PTR [eax], 1

; 697  : 						_Lrotate(_Fixnodeparent);

  005a0	8b 55 e4	 mov	 edx, DWORD PTR __Fixnodeparent$[ebp]
  005a3	52		 push	 edx
  005a4	8b 4d 9c	 mov	 ecx, DWORD PTR _this$[ebp]
  005a7	e8 00 00 00 00	 call	 ?_Lrotate@?$_Tree@V?$_Tmap_traits@KPAVIData@@U?$less@K@std@@V?$allocator@U?$pair@$$CBKPAVIData@@@std@@@3@$0A@@std@@@std@@IAEXPAU_Node@?$_Tree_nod@V?$_Tmap_traits@KPAVIData@@U?$less@K@std@@V?$allocator@U?$pair@$$CBKPAVIData@@@std@@@3@$0A@@std@@@2@@Z ; std::_Tree<std::_Tmap_traits<unsigned long,IData *,std::less<unsigned long>,std::allocator<std::pair<unsigned long const ,IData *> >,0> >::_Lrotate

; 698  : 						break;	// tree now recolored/rebalanced

  005ac	e9 99 01 00 00	 jmp	 $L199715
$L199719:

; 699  : 						}
; 700  : 					}
; 701  : 				else

  005b1	e9 8f 01 00 00	 jmp	 $L199723
$L199716:

; 702  : 					{	// fixup right subtree
; 703  : 					_Pnode = _Left(_Fixnodeparent);

  005b6	8b 45 e4	 mov	 eax, DWORD PTR __Fixnodeparent$[ebp]
  005b9	50		 push	 eax
  005ba	e8 00 00 00 00	 call	 ?_Left@?$_Tree@V?$_Tmap_traits@KPAVIData@@U?$less@K@std@@V?$allocator@U?$pair@$$CBKPAVIData@@@std@@@3@$0A@@std@@@std@@KAAAPAU_Node@?$_Tree_nod@V?$_Tmap_traits@KPAVIData@@U?$less@K@std@@V?$allocator@U?$pair@$$CBKPAVIData@@@std@@@3@$0A@@std@@@2@PAU342@@Z ; std::_Tree<std::_Tmap_traits<unsigned long,IData *,std::less<unsigned long>,std::allocator<std::pair<unsigned long const ,IData *> >,0> >::_Left
  005bf	83 c4 04	 add	 esp, 4
  005c2	8b 08		 mov	 ecx, DWORD PTR [eax]
  005c4	89 4d e8	 mov	 DWORD PTR __Pnode$[ebp], ecx

; 704  : 					if (_Color(_Pnode) == _Red)

  005c7	8b 55 e8	 mov	 edx, DWORD PTR __Pnode$[ebp]
  005ca	52		 push	 edx
  005cb	e8 00 00 00 00	 call	 ?_Color@?$_Tree@V?$_Tmap_traits@KPAVIData@@U?$less@K@std@@V?$allocator@U?$pair@$$CBKPAVIData@@@std@@@3@$0A@@std@@@std@@KAAADPAU_Node@?$_Tree_nod@V?$_Tmap_traits@KPAVIData@@U?$less@K@std@@V?$allocator@U?$pair@$$CBKPAVIData@@@std@@@3@$0A@@std@@@2@@Z ; std::_Tree<std::_Tmap_traits<unsigned long,IData *,std::less<unsigned long>,std::allocator<std::pair<unsigned long const ,IData *> >,0> >::_Color
  005d0	83 c4 04	 add	 esp, 4
  005d3	0f be 00	 movsx	 eax, BYTE PTR [eax]
  005d6	85 c0		 test	 eax, eax
  005d8	75 3b		 jne	 SHORT $L199724

; 705  : 						{	// rotate red up from left subtree
; 706  : 						_Color(_Pnode) = _Black;

  005da	8b 4d e8	 mov	 ecx, DWORD PTR __Pnode$[ebp]
  005dd	51		 push	 ecx
  005de	e8 00 00 00 00	 call	 ?_Color@?$_Tree@V?$_Tmap_traits@KPAVIData@@U?$less@K@std@@V?$allocator@U?$pair@$$CBKPAVIData@@@std@@@3@$0A@@std@@@std@@KAAADPAU_Node@?$_Tree_nod@V?$_Tmap_traits@KPAVIData@@U?$less@K@std@@V?$allocator@U?$pair@$$CBKPAVIData@@@std@@@3@$0A@@std@@@2@@Z ; std::_Tree<std::_Tmap_traits<unsigned long,IData *,std::less<unsigned long>,std::allocator<std::pair<unsigned long const ,IData *> >,0> >::_Color
  005e3	83 c4 04	 add	 esp, 4
  005e6	c6 00 01	 mov	 BYTE PTR [eax], 1

; 707  : 						_Color(_Fixnodeparent) = _Red;

  005e9	8b 55 e4	 mov	 edx, DWORD PTR __Fixnodeparent$[ebp]
  005ec	52		 push	 edx
  005ed	e8 00 00 00 00	 call	 ?_Color@?$_Tree@V?$_Tmap_traits@KPAVIData@@U?$less@K@std@@V?$allocator@U?$pair@$$CBKPAVIData@@@std@@@3@$0A@@std@@@std@@KAAADPAU_Node@?$_Tree_nod@V?$_Tmap_traits@KPAVIData@@U?$less@K@std@@V?$allocator@U?$pair@$$CBKPAVIData@@@std@@@3@$0A@@std@@@2@@Z ; std::_Tree<std::_Tmap_traits<unsigned long,IData *,std::less<unsigned long>,std::allocator<std::pair<unsigned long const ,IData *> >,0> >::_Color
  005f2	83 c4 04	 add	 esp, 4
  005f5	c6 00 00	 mov	 BYTE PTR [eax], 0

; 708  : 						_Rrotate(_Fixnodeparent);

  005f8	8b 45 e4	 mov	 eax, DWORD PTR __Fixnodeparent$[ebp]
  005fb	50		 push	 eax
  005fc	8b 4d 9c	 mov	 ecx, DWORD PTR _this$[ebp]
  005ff	e8 00 00 00 00	 call	 ?_Rrotate@?$_Tree@V?$_Tmap_traits@KPAVIData@@U?$less@K@std@@V?$allocator@U?$pair@$$CBKPAVIData@@@std@@@3@$0A@@std@@@std@@IAEXPAU_Node@?$_Tree_nod@V?$_Tmap_traits@KPAVIData@@U?$less@K@std@@V?$allocator@U?$pair@$$CBKPAVIData@@@std@@@3@$0A@@std@@@2@@Z ; std::_Tree<std::_Tmap_traits<unsigned long,IData *,std::less<unsigned long>,std::allocator<std::pair<unsigned long const ,IData *> >,0> >::_Rrotate

; 709  : 						_Pnode = _Left(_Fixnodeparent);

  00604	8b 4d e4	 mov	 ecx, DWORD PTR __Fixnodeparent$[ebp]
  00607	51		 push	 ecx
  00608	e8 00 00 00 00	 call	 ?_Left@?$_Tree@V?$_Tmap_traits@KPAVIData@@U?$less@K@std@@V?$allocator@U?$pair@$$CBKPAVIData@@@std@@@3@$0A@@std@@@std@@KAAAPAU_Node@?$_Tree_nod@V?$_Tmap_traits@KPAVIData@@U?$less@K@std@@V?$allocator@U?$pair@$$CBKPAVIData@@@std@@@3@$0A@@std@@@2@PAU342@@Z ; std::_Tree<std::_Tmap_traits<unsigned long,IData *,std::less<unsigned long>,std::allocator<std::pair<unsigned long const ,IData *> >,0> >::_Left
  0060d	83 c4 04	 add	 esp, 4
  00610	8b 10		 mov	 edx, DWORD PTR [eax]
  00612	89 55 e8	 mov	 DWORD PTR __Pnode$[ebp], edx
$L199724:

; 710  : 						}
; 711  : 					if (_Isnil(_Pnode))

  00615	8b 45 e8	 mov	 eax, DWORD PTR __Pnode$[ebp]
  00618	50		 push	 eax
  00619	e8 00 00 00 00	 call	 ?_Isnil@?$_Tree@V?$_Tmap_traits@KPAVIData@@U?$less@K@std@@V?$allocator@U?$pair@$$CBKPAVIData@@@std@@@3@$0A@@std@@@std@@KAAADPAU_Node@?$_Tree_nod@V?$_Tmap_traits@KPAVIData@@U?$less@K@std@@V?$allocator@U?$pair@$$CBKPAVIData@@@std@@@3@$0A@@std@@@2@@Z ; std::_Tree<std::_Tmap_traits<unsigned long,IData *,std::less<unsigned long>,std::allocator<std::pair<unsigned long const ,IData *> >,0> >::_Isnil
  0061e	83 c4 04	 add	 esp, 4
  00621	0f be 08	 movsx	 ecx, BYTE PTR [eax]
  00624	85 c9		 test	 ecx, ecx
  00626	74 0b		 je	 SHORT $L199725

; 712  : 						_Fixnode = _Fixnodeparent;	// shouldn't happen

  00628	8b 55 e4	 mov	 edx, DWORD PTR __Fixnodeparent$[ebp]
  0062b	89 55 ec	 mov	 DWORD PTR __Fixnode$[ebp], edx

; 713  : 					else if (_Color(_Right(_Pnode)) == _Black

  0062e	e9 12 01 00 00	 jmp	 $L199723
$L199725:

; 714  : 						&& _Color(_Left(_Pnode)) == _Black)

  00633	8b 45 e8	 mov	 eax, DWORD PTR __Pnode$[ebp]
  00636	50		 push	 eax
  00637	e8 00 00 00 00	 call	 ?_Right@?$_Tree@V?$_Tmap_traits@KPAVIData@@U?$less@K@std@@V?$allocator@U?$pair@$$CBKPAVIData@@@std@@@3@$0A@@std@@@std@@KAAAPAU_Node@?$_Tree_nod@V?$_Tmap_traits@KPAVIData@@U?$less@K@std@@V?$allocator@U?$pair@$$CBKPAVIData@@@std@@@3@$0A@@std@@@2@PAU342@@Z ; std::_Tree<std::_Tmap_traits<unsigned long,IData *,std::less<unsigned long>,std::allocator<std::pair<unsigned long const ,IData *> >,0> >::_Right
  0063c	83 c4 04	 add	 esp, 4
  0063f	8b 08		 mov	 ecx, DWORD PTR [eax]
  00641	51		 push	 ecx
  00642	e8 00 00 00 00	 call	 ?_Color@?$_Tree@V?$_Tmap_traits@KPAVIData@@U?$less@K@std@@V?$allocator@U?$pair@$$CBKPAVIData@@@std@@@3@$0A@@std@@@std@@KAAADPAU_Node@?$_Tree_nod@V?$_Tmap_traits@KPAVIData@@U?$less@K@std@@V?$allocator@U?$pair@$$CBKPAVIData@@@std@@@3@$0A@@std@@@2@@Z ; std::_Tree<std::_Tmap_traits<unsigned long,IData *,std::less<unsigned long>,std::allocator<std::pair<unsigned long const ,IData *> >,0> >::_Color
  00647	83 c4 04	 add	 esp, 4
  0064a	0f be 10	 movsx	 edx, BYTE PTR [eax]
  0064d	83 fa 01	 cmp	 edx, 1
  00650	75 39		 jne	 SHORT $L199727
  00652	8b 45 e8	 mov	 eax, DWORD PTR __Pnode$[ebp]
  00655	50		 push	 eax
  00656	e8 00 00 00 00	 call	 ?_Left@?$_Tree@V?$_Tmap_traits@KPAVIData@@U?$less@K@std@@V?$allocator@U?$pair@$$CBKPAVIData@@@std@@@3@$0A@@std@@@std@@KAAAPAU_Node@?$_Tree_nod@V?$_Tmap_traits@KPAVIData@@U?$less@K@std@@V?$allocator@U?$pair@$$CBKPAVIData@@@std@@@3@$0A@@std@@@2@PAU342@@Z ; std::_Tree<std::_Tmap_traits<unsigned long,IData *,std::less<unsigned long>,std::allocator<std::pair<unsigned long const ,IData *> >,0> >::_Left
  0065b	83 c4 04	 add	 esp, 4
  0065e	8b 08		 mov	 ecx, DWORD PTR [eax]
  00660	51		 push	 ecx
  00661	e8 00 00 00 00	 call	 ?_Color@?$_Tree@V?$_Tmap_traits@KPAVIData@@U?$less@K@std@@V?$allocator@U?$pair@$$CBKPAVIData@@@std@@@3@$0A@@std@@@std@@KAAADPAU_Node@?$_Tree_nod@V?$_Tmap_traits@KPAVIData@@U?$less@K@std@@V?$allocator@U?$pair@$$CBKPAVIData@@@std@@@3@$0A@@std@@@2@@Z ; std::_Tree<std::_Tmap_traits<unsigned long,IData *,std::less<unsigned long>,std::allocator<std::pair<unsigned long const ,IData *> >,0> >::_Color
  00666	83 c4 04	 add	 esp, 4
  00669	0f be 10	 movsx	 edx, BYTE PTR [eax]
  0066c	83 fa 01	 cmp	 edx, 1
  0066f	75 1a		 jne	 SHORT $L199727

; 715  : 						{	// redden left subtree with black children
; 716  : 						_Color(_Pnode) = _Red;

  00671	8b 45 e8	 mov	 eax, DWORD PTR __Pnode$[ebp]
  00674	50		 push	 eax
  00675	e8 00 00 00 00	 call	 ?_Color@?$_Tree@V?$_Tmap_traits@KPAVIData@@U?$less@K@std@@V?$allocator@U?$pair@$$CBKPAVIData@@@std@@@3@$0A@@std@@@std@@KAAADPAU_Node@?$_Tree_nod@V?$_Tmap_traits@KPAVIData@@U?$less@K@std@@V?$allocator@U?$pair@$$CBKPAVIData@@@std@@@3@$0A@@std@@@2@@Z ; std::_Tree<std::_Tmap_traits<unsigned long,IData *,std::less<unsigned long>,std::allocator<std::pair<unsigned long const ,IData *> >,0> >::_Color
  0067a	83 c4 04	 add	 esp, 4
  0067d	c6 00 00	 mov	 BYTE PTR [eax], 0

; 717  : 						_Fixnode = _Fixnodeparent;

  00680	8b 4d e4	 mov	 ecx, DWORD PTR __Fixnodeparent$[ebp]
  00683	89 4d ec	 mov	 DWORD PTR __Fixnode$[ebp], ecx

; 718  : 						}
; 719  : 					else

  00686	e9 ba 00 00 00	 jmp	 $L199723
$L199727:

; 720  : 						{	// must rearrange left subtree
; 721  : 						if (_Color(_Left(_Pnode)) == _Black)

  0068b	8b 55 e8	 mov	 edx, DWORD PTR __Pnode$[ebp]
  0068e	52		 push	 edx
  0068f	e8 00 00 00 00	 call	 ?_Left@?$_Tree@V?$_Tmap_traits@KPAVIData@@U?$less@K@std@@V?$allocator@U?$pair@$$CBKPAVIData@@@std@@@3@$0A@@std@@@std@@KAAAPAU_Node@?$_Tree_nod@V?$_Tmap_traits@KPAVIData@@U?$less@K@std@@V?$allocator@U?$pair@$$CBKPAVIData@@@std@@@3@$0A@@std@@@2@PAU342@@Z ; std::_Tree<std::_Tmap_traits<unsigned long,IData *,std::less<unsigned long>,std::allocator<std::pair<unsigned long const ,IData *> >,0> >::_Left
  00694	83 c4 04	 add	 esp, 4
  00697	8b 00		 mov	 eax, DWORD PTR [eax]
  00699	50		 push	 eax
  0069a	e8 00 00 00 00	 call	 ?_Color@?$_Tree@V?$_Tmap_traits@KPAVIData@@U?$less@K@std@@V?$allocator@U?$pair@$$CBKPAVIData@@@std@@@3@$0A@@std@@@std@@KAAADPAU_Node@?$_Tree_nod@V?$_Tmap_traits@KPAVIData@@U?$less@K@std@@V?$allocator@U?$pair@$$CBKPAVIData@@@std@@@3@$0A@@std@@@2@@Z ; std::_Tree<std::_Tmap_traits<unsigned long,IData *,std::less<unsigned long>,std::allocator<std::pair<unsigned long const ,IData *> >,0> >::_Color
  0069f	83 c4 04	 add	 esp, 4
  006a2	0f be 08	 movsx	 ecx, BYTE PTR [eax]
  006a5	83 f9 01	 cmp	 ecx, 1
  006a8	75 46		 jne	 SHORT $L199729

; 722  : 							{	// rotate red up from right sub-subtree
; 723  : 							_Color(_Right(_Pnode)) = _Black;

  006aa	8b 55 e8	 mov	 edx, DWORD PTR __Pnode$[ebp]
  006ad	52		 push	 edx
  006ae	e8 00 00 00 00	 call	 ?_Right@?$_Tree@V?$_Tmap_traits@KPAVIData@@U?$less@K@std@@V?$allocator@U?$pair@$$CBKPAVIData@@@std@@@3@$0A@@std@@@std@@KAAAPAU_Node@?$_Tree_nod@V?$_Tmap_traits@KPAVIData@@U?$less@K@std@@V?$allocator@U?$pair@$$CBKPAVIData@@@std@@@3@$0A@@std@@@2@PAU342@@Z ; std::_Tree<std::_Tmap_traits<unsigned long,IData *,std::less<unsigned long>,std::allocator<std::pair<unsigned long const ,IData *> >,0> >::_Right
  006b3	83 c4 04	 add	 esp, 4
  006b6	8b 00		 mov	 eax, DWORD PTR [eax]
  006b8	50		 push	 eax
  006b9	e8 00 00 00 00	 call	 ?_Color@?$_Tree@V?$_Tmap_traits@KPAVIData@@U?$less@K@std@@V?$allocator@U?$pair@$$CBKPAVIData@@@std@@@3@$0A@@std@@@std@@KAAADPAU_Node@?$_Tree_nod@V?$_Tmap_traits@KPAVIData@@U?$less@K@std@@V?$allocator@U?$pair@$$CBKPAVIData@@@std@@@3@$0A@@std@@@2@@Z ; std::_Tree<std::_Tmap_traits<unsigned long,IData *,std::less<unsigned long>,std::allocator<std::pair<unsigned long const ,IData *> >,0> >::_Color
  006be	83 c4 04	 add	 esp, 4
  006c1	c6 00 01	 mov	 BYTE PTR [eax], 1

; 724  : 							_Color(_Pnode) = _Red;

  006c4	8b 4d e8	 mov	 ecx, DWORD PTR __Pnode$[ebp]
  006c7	51		 push	 ecx
  006c8	e8 00 00 00 00	 call	 ?_Color@?$_Tree@V?$_Tmap_traits@KPAVIData@@U?$less@K@std@@V?$allocator@U?$pair@$$CBKPAVIData@@@std@@@3@$0A@@std@@@std@@KAAADPAU_Node@?$_Tree_nod@V?$_Tmap_traits@KPAVIData@@U?$less@K@std@@V?$allocator@U?$pair@$$CBKPAVIData@@@std@@@3@$0A@@std@@@2@@Z ; std::_Tree<std::_Tmap_traits<unsigned long,IData *,std::less<unsigned long>,std::allocator<std::pair<unsigned long const ,IData *> >,0> >::_Color
  006cd	83 c4 04	 add	 esp, 4
  006d0	c6 00 00	 mov	 BYTE PTR [eax], 0

; 725  : 							_Lrotate(_Pnode);

  006d3	8b 55 e8	 mov	 edx, DWORD PTR __Pnode$[ebp]
  006d6	52		 push	 edx
  006d7	8b 4d 9c	 mov	 ecx, DWORD PTR _this$[ebp]
  006da	e8 00 00 00 00	 call	 ?_Lrotate@?$_Tree@V?$_Tmap_traits@KPAVIData@@U?$less@K@std@@V?$allocator@U?$pair@$$CBKPAVIData@@@std@@@3@$0A@@std@@@std@@IAEXPAU_Node@?$_Tree_nod@V?$_Tmap_traits@KPAVIData@@U?$less@K@std@@V?$allocator@U?$pair@$$CBKPAVIData@@@std@@@3@$0A@@std@@@2@@Z ; std::_Tree<std::_Tmap_traits<unsigned long,IData *,std::less<unsigned long>,std::allocator<std::pair<unsigned long const ,IData *> >,0> >::_Lrotate

; 726  : 							_Pnode = _Left(_Fixnodeparent);

  006df	8b 45 e4	 mov	 eax, DWORD PTR __Fixnodeparent$[ebp]
  006e2	50		 push	 eax
  006e3	e8 00 00 00 00	 call	 ?_Left@?$_Tree@V?$_Tmap_traits@KPAVIData@@U?$less@K@std@@V?$allocator@U?$pair@$$CBKPAVIData@@@std@@@3@$0A@@std@@@std@@KAAAPAU_Node@?$_Tree_nod@V?$_Tmap_traits@KPAVIData@@U?$less@K@std@@V?$allocator@U?$pair@$$CBKPAVIData@@@std@@@3@$0A@@std@@@2@PAU342@@Z ; std::_Tree<std::_Tmap_traits<unsigned long,IData *,std::less<unsigned long>,std::allocator<std::pair<unsigned long const ,IData *> >,0> >::_Left
  006e8	83 c4 04	 add	 esp, 4
  006eb	8b 08		 mov	 ecx, DWORD PTR [eax]
  006ed	89 4d e8	 mov	 DWORD PTR __Pnode$[ebp], ecx
$L199729:

; 727  : 							}
; 728  : 
; 729  : 						_Color(_Pnode) = _Color(_Fixnodeparent);

  006f0	8b 55 e4	 mov	 edx, DWORD PTR __Fixnodeparent$[ebp]
  006f3	52		 push	 edx
  006f4	e8 00 00 00 00	 call	 ?_Color@?$_Tree@V?$_Tmap_traits@KPAVIData@@U?$less@K@std@@V?$allocator@U?$pair@$$CBKPAVIData@@@std@@@3@$0A@@std@@@std@@KAAADPAU_Node@?$_Tree_nod@V?$_Tmap_traits@KPAVIData@@U?$less@K@std@@V?$allocator@U?$pair@$$CBKPAVIData@@@std@@@3@$0A@@std@@@2@@Z ; std::_Tree<std::_Tmap_traits<unsigned long,IData *,std::less<unsigned long>,std::allocator<std::pair<unsigned long const ,IData *> >,0> >::_Color
  006f9	83 c4 04	 add	 esp, 4
  006fc	8b f0		 mov	 esi, eax
  006fe	8b 45 e8	 mov	 eax, DWORD PTR __Pnode$[ebp]
  00701	50		 push	 eax
  00702	e8 00 00 00 00	 call	 ?_Color@?$_Tree@V?$_Tmap_traits@KPAVIData@@U?$less@K@std@@V?$allocator@U?$pair@$$CBKPAVIData@@@std@@@3@$0A@@std@@@std@@KAAADPAU_Node@?$_Tree_nod@V?$_Tmap_traits@KPAVIData@@U?$less@K@std@@V?$allocator@U?$pair@$$CBKPAVIData@@@std@@@3@$0A@@std@@@2@@Z ; std::_Tree<std::_Tmap_traits<unsigned long,IData *,std::less<unsigned long>,std::allocator<std::pair<unsigned long const ,IData *> >,0> >::_Color
  00707	83 c4 04	 add	 esp, 4
  0070a	8a 0e		 mov	 cl, BYTE PTR [esi]
  0070c	88 08		 mov	 BYTE PTR [eax], cl

; 730  : 						_Color(_Fixnodeparent) = _Black;

  0070e	8b 55 e4	 mov	 edx, DWORD PTR __Fixnodeparent$[ebp]
  00711	52		 push	 edx
  00712	e8 00 00 00 00	 call	 ?_Color@?$_Tree@V?$_Tmap_traits@KPAVIData@@U?$less@K@std@@V?$allocator@U?$pair@$$CBKPAVIData@@@std@@@3@$0A@@std@@@std@@KAAADPAU_Node@?$_Tree_nod@V?$_Tmap_traits@KPAVIData@@U?$less@K@std@@V?$allocator@U?$pair@$$CBKPAVIData@@@std@@@3@$0A@@std@@@2@@Z ; std::_Tree<std::_Tmap_traits<unsigned long,IData *,std::less<unsigned long>,std::allocator<std::pair<unsigned long const ,IData *> >,0> >::_Color
  00717	83 c4 04	 add	 esp, 4
  0071a	c6 00 01	 mov	 BYTE PTR [eax], 1

; 731  : 						_Color(_Left(_Pnode)) = _Black;

  0071d	8b 45 e8	 mov	 eax, DWORD PTR __Pnode$[ebp]
  00720	50		 push	 eax
  00721	e8 00 00 00 00	 call	 ?_Left@?$_Tree@V?$_Tmap_traits@KPAVIData@@U?$less@K@std@@V?$allocator@U?$pair@$$CBKPAVIData@@@std@@@3@$0A@@std@@@std@@KAAAPAU_Node@?$_Tree_nod@V?$_Tmap_traits@KPAVIData@@U?$less@K@std@@V?$allocator@U?$pair@$$CBKPAVIData@@@std@@@3@$0A@@std@@@2@PAU342@@Z ; std::_Tree<std::_Tmap_traits<unsigned long,IData *,std::less<unsigned long>,std::allocator<std::pair<unsigned long const ,IData *> >,0> >::_Left
  00726	83 c4 04	 add	 esp, 4
  00729	8b 08		 mov	 ecx, DWORD PTR [eax]
  0072b	51		 push	 ecx
  0072c	e8 00 00 00 00	 call	 ?_Color@?$_Tree@V?$_Tmap_traits@KPAVIData@@U?$less@K@std@@V?$allocator@U?$pair@$$CBKPAVIData@@@std@@@3@$0A@@std@@@std@@KAAADPAU_Node@?$_Tree_nod@V?$_Tmap_traits@KPAVIData@@U?$less@K@std@@V?$allocator@U?$pair@$$CBKPAVIData@@@std@@@3@$0A@@std@@@2@@Z ; std::_Tree<std::_Tmap_traits<unsigned long,IData *,std::less<unsigned long>,std::allocator<std::pair<unsigned long const ,IData *> >,0> >::_Color
  00731	83 c4 04	 add	 esp, 4
  00734	c6 00 01	 mov	 BYTE PTR [eax], 1

; 732  : 						_Rrotate(_Fixnodeparent);

  00737	8b 55 e4	 mov	 edx, DWORD PTR __Fixnodeparent$[ebp]
  0073a	52		 push	 edx
  0073b	8b 4d 9c	 mov	 ecx, DWORD PTR _this$[ebp]
  0073e	e8 00 00 00 00	 call	 ?_Rrotate@?$_Tree@V?$_Tmap_traits@KPAVIData@@U?$less@K@std@@V?$allocator@U?$pair@$$CBKPAVIData@@@std@@@3@$0A@@std@@@std@@IAEXPAU_Node@?$_Tree_nod@V?$_Tmap_traits@KPAVIData@@U?$less@K@std@@V?$allocator@U?$pair@$$CBKPAVIData@@@std@@@3@$0A@@std@@@2@@Z ; std::_Tree<std::_Tmap_traits<unsigned long,IData *,std::less<unsigned long>,std::allocator<std::pair<unsigned long const ,IData *> >,0> >::_Rrotate

; 733  : 						break;	// tree now recolored/rebalanced

  00743	eb 05		 jmp	 SHORT $L199715
$L199723:

; 734  : 						}
; 735  : 					}

  00745	e9 82 fc ff ff	 jmp	 $L199714
$L199715:

; 736  : 
; 737  : 			_Color(_Fixnode) = _Black;	// ensure stopping node is black

  0074a	8b 45 ec	 mov	 eax, DWORD PTR __Fixnode$[ebp]
  0074d	50		 push	 eax
  0074e	e8 00 00 00 00	 call	 ?_Color@?$_Tree@V?$_Tmap_traits@KPAVIData@@U?$less@K@std@@V?$allocator@U?$pair@$$CBKPAVIData@@@std@@@3@$0A@@std@@@std@@KAAADPAU_Node@?$_Tree_nod@V?$_Tmap_traits@KPAVIData@@U?$less@K@std@@V?$allocator@U?$pair@$$CBKPAVIData@@@std@@@3@$0A@@std@@@2@@Z ; std::_Tree<std::_Tmap_traits<unsigned long,IData *,std::less<unsigned long>,std::allocator<std::pair<unsigned long const ,IData *> >,0> >::_Color
  00753	83 c4 04	 add	 esp, 4
  00756	c6 00 01	 mov	 BYTE PTR [eax], 1
$L199712:

; 738  : 			}
; 739  : 
; 740  : 		this->_Alnod.destroy(_Erasednode);	// destroy, free erased node

  00759	8b 4d f0	 mov	 ecx, DWORD PTR __Erasednode$[ebp]
  0075c	51		 push	 ecx
  0075d	8b 4d 9c	 mov	 ecx, DWORD PTR _this$[ebp]
  00760	83 c1 01	 add	 ecx, 1
  00763	e8 00 00 00 00	 call	 ?destroy@?$allocator@U_Node@?$_Tree_nod@V?$_Tmap_traits@KPAVIData@@U?$less@K@std@@V?$allocator@U?$pair@$$CBKPAVIData@@@std@@@3@$0A@@std@@@std@@@std@@QAEXPAU_Node@?$_Tree_nod@V?$_Tmap_traits@KPAVIData@@U?$less@K@std@@V?$allocator@U?$pair@$$CBKPAVIData@@@std@@@3@$0A@@std@@@2@@Z ; std::allocator<std::_Tree_nod<std::_Tmap_traits<unsigned long,IData *,std::less<unsigned long>,std::allocator<std::pair<unsigned long const ,IData *> >,0> >::_Node>::destroy

; 741  : 		this->_Alnod.deallocate(_Erasednode, 1);

  00768	6a 01		 push	 1
  0076a	8b 55 f0	 mov	 edx, DWORD PTR __Erasednode$[ebp]
  0076d	52		 push	 edx
  0076e	8b 4d 9c	 mov	 ecx, DWORD PTR _this$[ebp]
  00771	83 c1 01	 add	 ecx, 1
  00774	e8 00 00 00 00	 call	 ?deallocate@?$allocator@U_Node@?$_Tree_nod@V?$_Tmap_traits@KPAVIData@@U?$less@K@std@@V?$allocator@U?$pair@$$CBKPAVIData@@@std@@@3@$0A@@std@@@std@@@std@@QAEXPAU_Node@?$_Tree_nod@V?$_Tmap_traits@KPAVIData@@U?$less@K@std@@V?$allocator@U?$pair@$$CBKPAVIData@@@std@@@3@$0A@@std@@@2@I@Z ; std::allocator<std::_Tree_nod<std::_Tmap_traits<unsigned long,IData *,std::less<unsigned long>,std::allocator<std::pair<unsigned long const ,IData *> >,0> >::_Node>::deallocate

; 742  : 
; 743  : 		if (0 < _Mysize)

  00779	8b 45 9c	 mov	 eax, DWORD PTR _this$[ebp]
  0077c	83 78 08 00	 cmp	 DWORD PTR [eax+8], 0
  00780	76 0f		 jbe	 SHORT $L199730

; 744  : 			--_Mysize;

  00782	8b 4d 9c	 mov	 ecx, DWORD PTR _this$[ebp]
  00785	8b 51 08	 mov	 edx, DWORD PTR [ecx+8]
  00788	83 ea 01	 sub	 edx, 1
  0078b	8b 45 9c	 mov	 eax, DWORD PTR _this$[ebp]
  0078e	89 50 08	 mov	 DWORD PTR [eax+8], edx
$L199730:

; 745  : 
; 746  : 		return (_Where);	// return successor iterator

  00791	8b 4d 08	 mov	 ecx, DWORD PTR ___$ReturnUdt$[ebp]
  00794	8b 55 0c	 mov	 edx, DWORD PTR __Where$[ebp]
  00797	89 11		 mov	 DWORD PTR [ecx], edx
  00799	8b 45 08	 mov	 eax, DWORD PTR ___$ReturnUdt$[ebp]
$L200674:

; 747  : 		}

  0079c	8b 4d f4	 mov	 ecx, DWORD PTR __$EHRec$[ebp]
  0079f	64 89 0d 00 00
	00 00		 mov	 DWORD PTR fs:__except_list, ecx
  007a6	5e		 pop	 esi
  007a7	8b e5		 mov	 esp, ebp
  007a9	5d		 pop	 ebp
  007aa	c2 08 00	 ret	 8
_TEXT	ENDS
;	COMDAT text$x
text$x	SEGMENT
$L200682:
  00000	8d 4d a0	 lea	 ecx, DWORD PTR $T200676[ebp]
  00003	ff 25 00 00 00
	00		 jmp	 DWORD PTR __imp_??1?$basic_string@DU?$char_traits@D@std@@V?$allocator@D@2@@std@@QAE@XZ
__ehhandler$?erase@?$_Tree@V?$_Tmap_traits@KPAVIData@@U?$less@K@std@@V?$allocator@U?$pair@$$CBKPAVIData@@@std@@@3@$0A@@std@@@std@@QAE?AViterator@12@V312@@Z:
  00009	b8 00 00 00 00	 mov	 eax, OFFSET FLAT:$T200684
  0000e	e9 00 00 00 00	 jmp	 ___CxxFrameHandler
text$x	ENDS
?erase@?$_Tree@V?$_Tmap_traits@KPAVIData@@U?$less@K@std@@V?$allocator@U?$pair@$$CBKPAVIData@@@std@@@3@$0A@@std@@@std@@QAE?AViterator@12@V312@@Z ENDP ; std::_Tree<std::_Tmap_traits<unsigned long,IData *,std::less<unsigned long>,std::allocator<std::pair<unsigned long const ,IData *> >,0> >::erase
PUBLIC	?_Ubound@?$_Tree@V?$_Tmap_traits@KPAVIData@@U?$less@K@std@@V?$allocator@U?$pair@$$CBKPAVIData@@@std@@@3@$0A@@std@@@std@@IBEPAU_Node@?$_Tree_nod@V?$_Tmap_traits@KPAVIData@@U?$less@K@std@@V?$allocator@U?$pair@$$CBKPAVIData@@@std@@@3@$0A@@std@@@2@ABK@Z ; std::_Tree<std::_Tmap_traits<unsigned long,IData *,std::less<unsigned long>,std::allocator<std::pair<unsigned long const ,IData *> >,0> >::_Ubound
; Function compile flags: /Odt
;	COMDAT ?upper_bound@?$_Tree@V?$_Tmap_traits@KPAVIData@@U?$less@K@std@@V?$allocator@U?$pair@$$CBKPAVIData@@@std@@@3@$0A@@std@@@std@@QAE?AViterator@12@ABK@Z
_TEXT	SEGMENT
_this$ = -4						; size = 4
___$ReturnUdt$ = 8					; size = 4
__Keyval$ = 12						; size = 4
?upper_bound@?$_Tree@V?$_Tmap_traits@KPAVIData@@U?$less@K@std@@V?$allocator@U?$pair@$$CBKPAVIData@@@std@@@3@$0A@@std@@@std@@QAE?AViterator@12@ABK@Z PROC NEAR ; std::_Tree<std::_Tmap_traits<unsigned long,IData *,std::less<unsigned long>,std::allocator<std::pair<unsigned long const ,IData *> >,0> >::upper_bound, COMDAT
; _this$ = ecx

; 819  : 		{	// find leftmost node greater than _Keyval in mutable tree

  00000	55		 push	 ebp
  00001	8b ec		 mov	 ebp, esp
  00003	51		 push	 ecx
  00004	89 4d fc	 mov	 DWORD PTR _this$[ebp], ecx

; 820  : 		return (_TREE_ITERATOR(_Ubound(_Keyval)));

  00007	8b 45 0c	 mov	 eax, DWORD PTR __Keyval$[ebp]
  0000a	50		 push	 eax
  0000b	8b 4d fc	 mov	 ecx, DWORD PTR _this$[ebp]
  0000e	e8 00 00 00 00	 call	 ?_Ubound@?$_Tree@V?$_Tmap_traits@KPAVIData@@U?$less@K@std@@V?$allocator@U?$pair@$$CBKPAVIData@@@std@@@3@$0A@@std@@@std@@IBEPAU_Node@?$_Tree_nod@V?$_Tmap_traits@KPAVIData@@U?$less@K@std@@V?$allocator@U?$pair@$$CBKPAVIData@@@std@@@3@$0A@@std@@@2@ABK@Z ; std::_Tree<std::_Tmap_traits<unsigned long,IData *,std::less<unsigned long>,std::allocator<std::pair<unsigned long const ,IData *> >,0> >::_Ubound
  00013	50		 push	 eax
  00014	8b 4d 08	 mov	 ecx, DWORD PTR ___$ReturnUdt$[ebp]
  00017	e8 00 00 00 00	 call	 ??0iterator@?$_Tree@V?$_Tmap_traits@KPAVIData@@U?$less@K@std@@V?$allocator@U?$pair@$$CBKPAVIData@@@std@@@3@$0A@@std@@@std@@QAE@PAU_Node@?$_Tree_nod@V?$_Tmap_traits@KPAVIData@@U?$less@K@std@@V?$allocator@U?$pair@$$CBKPAVIData@@@std@@@3@$0A@@std@@@2@@Z ; std::_Tree<std::_Tmap_traits<unsigned long,IData *,std::less<unsigned long>,std::allocator<std::pair<unsigned long const ,IData *> >,0> >::iterator::iterator
  0001c	8b 45 08	 mov	 eax, DWORD PTR ___$ReturnUdt$[ebp]

; 821  : 		}

  0001f	8b e5		 mov	 esp, ebp
  00021	5d		 pop	 ebp
  00022	c2 08 00	 ret	 8
?upper_bound@?$_Tree@V?$_Tmap_traits@KPAVIData@@U?$less@K@std@@V?$allocator@U?$pair@$$CBKPAVIData@@@std@@@3@$0A@@std@@@std@@QAE?AViterator@12@ABK@Z ENDP ; std::_Tree<std::_Tmap_traits<unsigned long,IData *,std::less<unsigned long>,std::allocator<std::pair<unsigned long const ,IData *> >,0> >::upper_bound
_TEXT	ENDS
PUBLIC	?_Buynode@?$_Tree@V?$_Tmap_traits@KPAVIData@@U?$less@K@std@@V?$allocator@U?$pair@$$CBKPAVIData@@@std@@@3@$0A@@std@@@std@@IAEPAU_Node@?$_Tree_nod@V?$_Tmap_traits@KPAVIData@@U?$less@K@std@@V?$allocator@U?$pair@$$CBKPAVIData@@@std@@@3@$0A@@std@@@2@XZ ; std::_Tree<std::_Tmap_traits<unsigned long,IData *,std::less<unsigned long>,std::allocator<std::pair<unsigned long const ,IData *> >,0> >::_Buynode
; Function compile flags: /Odt
;	COMDAT ?_Init@?$_Tree@V?$_Tmap_traits@KPAVIData@@U?$less@K@std@@V?$allocator@U?$pair@$$CBKPAVIData@@@std@@@3@$0A@@std@@@std@@IAEXXZ
_TEXT	SEGMENT
_this$ = -4						; size = 4
?_Init@?$_Tree@V?$_Tmap_traits@KPAVIData@@U?$less@K@std@@V?$allocator@U?$pair@$$CBKPAVIData@@@std@@@3@$0A@@std@@@std@@IAEXXZ PROC NEAR ; std::_Tree<std::_Tmap_traits<unsigned long,IData *,std::less<unsigned long>,std::allocator<std::pair<unsigned long const ,IData *> >,0> >::_Init, COMDAT
; _this$ = ecx

; 901  : 		{	// create head/nil node and make tree empty

  00000	55		 push	 ebp
  00001	8b ec		 mov	 ebp, esp
  00003	51		 push	 ecx
  00004	89 4d fc	 mov	 DWORD PTR _this$[ebp], ecx

; 902  : 		_Myhead = _Buynode();

  00007	8b 4d fc	 mov	 ecx, DWORD PTR _this$[ebp]
  0000a	e8 00 00 00 00	 call	 ?_Buynode@?$_Tree@V?$_Tmap_traits@KPAVIData@@U?$less@K@std@@V?$allocator@U?$pair@$$CBKPAVIData@@@std@@@3@$0A@@std@@@std@@IAEPAU_Node@?$_Tree_nod@V?$_Tmap_traits@KPAVIData@@U?$less@K@std@@V?$allocator@U?$pair@$$CBKPAVIData@@@std@@@3@$0A@@std@@@2@XZ ; std::_Tree<std::_Tmap_traits<unsigned long,IData *,std::less<unsigned long>,std::allocator<std::pair<unsigned long const ,IData *> >,0> >::_Buynode
  0000f	8b 4d fc	 mov	 ecx, DWORD PTR _this$[ebp]
  00012	89 41 04	 mov	 DWORD PTR [ecx+4], eax

; 903  : 		_Isnil(_Myhead) = true;

  00015	8b 55 fc	 mov	 edx, DWORD PTR _this$[ebp]
  00018	8b 42 04	 mov	 eax, DWORD PTR [edx+4]
  0001b	50		 push	 eax
  0001c	e8 00 00 00 00	 call	 ?_Isnil@?$_Tree@V?$_Tmap_traits@KPAVIData@@U?$less@K@std@@V?$allocator@U?$pair@$$CBKPAVIData@@@std@@@3@$0A@@std@@@std@@KAAADPAU_Node@?$_Tree_nod@V?$_Tmap_traits@KPAVIData@@U?$less@K@std@@V?$allocator@U?$pair@$$CBKPAVIData@@@std@@@3@$0A@@std@@@2@@Z ; std::_Tree<std::_Tmap_traits<unsigned long,IData *,std::less<unsigned long>,std::allocator<std::pair<unsigned long const ,IData *> >,0> >::_Isnil
  00021	83 c4 04	 add	 esp, 4
  00024	c6 00 01	 mov	 BYTE PTR [eax], 1

; 904  : 		_Root() = _Myhead;

  00027	8b 4d fc	 mov	 ecx, DWORD PTR _this$[ebp]
  0002a	e8 00 00 00 00	 call	 ?_Root@?$_Tree@V?$_Tmap_traits@KPAVIData@@U?$less@K@std@@V?$allocator@U?$pair@$$CBKPAVIData@@@std@@@3@$0A@@std@@@std@@IAEAAPAU_Node@?$_Tree_nod@V?$_Tmap_traits@KPAVIData@@U?$less@K@std@@V?$allocator@U?$pair@$$CBKPAVIData@@@std@@@3@$0A@@std@@@2@XZ ; std::_Tree<std::_Tmap_traits<unsigned long,IData *,std::less<unsigned long>,std::allocator<std::pair<unsigned long const ,IData *> >,0> >::_Root
  0002f	8b 4d fc	 mov	 ecx, DWORD PTR _this$[ebp]
  00032	8b 51 04	 mov	 edx, DWORD PTR [ecx+4]
  00035	89 10		 mov	 DWORD PTR [eax], edx

; 905  : 		_Lmost() = _Myhead, _Rmost() = _Myhead;

  00037	8b 4d fc	 mov	 ecx, DWORD PTR _this$[ebp]
  0003a	e8 00 00 00 00	 call	 ?_Lmost@?$_Tree@V?$_Tmap_traits@KPAVIData@@U?$less@K@std@@V?$allocator@U?$pair@$$CBKPAVIData@@@std@@@3@$0A@@std@@@std@@IAEAAPAU_Node@?$_Tree_nod@V?$_Tmap_traits@KPAVIData@@U?$less@K@std@@V?$allocator@U?$pair@$$CBKPAVIData@@@std@@@3@$0A@@std@@@2@XZ ; std::_Tree<std::_Tmap_traits<unsigned long,IData *,std::less<unsigned long>,std::allocator<std::pair<unsigned long const ,IData *> >,0> >::_Lmost
  0003f	8b 4d fc	 mov	 ecx, DWORD PTR _this$[ebp]
  00042	8b 51 04	 mov	 edx, DWORD PTR [ecx+4]
  00045	89 10		 mov	 DWORD PTR [eax], edx
  00047	8b 4d fc	 mov	 ecx, DWORD PTR _this$[ebp]
  0004a	e8 00 00 00 00	 call	 ?_Rmost@?$_Tree@V?$_Tmap_traits@KPAVIData@@U?$less@K@std@@V?$allocator@U?$pair@$$CBKPAVIData@@@std@@@3@$0A@@std@@@std@@IAEAAPAU_Node@?$_Tree_nod@V?$_Tmap_traits@KPAVIData@@U?$less@K@std@@V?$allocator@U?$pair@$$CBKPAVIData@@@std@@@3@$0A@@std@@@2@XZ ; std::_Tree<std::_Tmap_traits<unsigned long,IData *,std::less<unsigned long>,std::allocator<std::pair<unsigned long const ,IData *> >,0> >::_Rmost
  0004f	8b 4d fc	 mov	 ecx, DWORD PTR _this$[ebp]
  00052	8b 51 04	 mov	 edx, DWORD PTR [ecx+4]
  00055	89 10		 mov	 DWORD PTR [eax], edx

; 906  : 		_Mysize = 0;

  00057	8b 45 fc	 mov	 eax, DWORD PTR _this$[ebp]
  0005a	c7 40 08 00 00
	00 00		 mov	 DWORD PTR [eax+8], 0

; 907  : 		}

  00061	8b e5		 mov	 esp, ebp
  00063	5d		 pop	 ebp
  00064	c3		 ret	 0
?_Init@?$_Tree@V?$_Tmap_traits@KPAVIData@@U?$less@K@std@@V?$allocator@U?$pair@$$CBKPAVIData@@@std@@@3@$0A@@std@@@std@@IAEXXZ ENDP ; std::_Tree<std::_Tmap_traits<unsigned long,IData *,std::less<unsigned long>,std::allocator<std::pair<unsigned long const ,IData *> >,0> >::_Init
_TEXT	ENDS
PUBLIC	__TI3?AVlength_error@std@@
PUBLIC	__CTA3?AVlength_error@std@@
PUBLIC	__CT??_R0?AVlength_error@std@@@8??0length_error@std@@QAE@ABV01@@Z40
PUBLIC	??_C@_0BE@JONHPENG@map?1set?$DMT?$DO?5too?5long?$AA@ ; `string'
PUBLIC	??_R0?AVlength_error@std@@@8			; std::length_error `RTTI Type Descriptor'
PUBLIC	?max_size@?$_Tree@V?$_Tmap_traits@KPAVIData@@U?$less@K@std@@V?$allocator@U?$pair@$$CBKPAVIData@@@std@@@3@$0A@@std@@@std@@QBEIXZ ; std::_Tree<std::_Tmap_traits<unsigned long,IData *,std::less<unsigned long>,std::allocator<std::pair<unsigned long const ,IData *> >,0> >::max_size
PUBLIC	??0length_error@std@@QAE@ABV?$basic_string@DU?$char_traits@D@std@@V?$allocator@D@2@@1@@Z ; std::length_error::length_error
PUBLIC	??1length_error@std@@UAE@XZ			; std::length_error::~length_error
PUBLIC	??0length_error@std@@QAE@ABV01@@Z		; std::length_error::length_error
PUBLIC	?_Buynode@?$_Tree@V?$_Tmap_traits@KPAVIData@@U?$less@K@std@@V?$allocator@U?$pair@$$CBKPAVIData@@@std@@@3@$0A@@std@@@std@@IAEPAU_Node@?$_Tree_nod@V?$_Tmap_traits@KPAVIData@@U?$less@K@std@@V?$allocator@U?$pair@$$CBKPAVIData@@@std@@@3@$0A@@std@@@2@PAU342@00ABU?$pair@$$CBKPAVIData@@@2@D@Z ; std::_Tree<std::_Tmap_traits<unsigned long,IData *,std::less<unsigned long>,std::allocator<std::pair<unsigned long const ,IData *> >,0> >::_Buynode
;	COMDAT xdata$x
xdata$x	SEGMENT
$T200701 DD	0ffffffffH
	DD	FLAT:$L200697
$T200699 DD	019930520H
	DD	01H
	DD	FLAT:$T200701
	DD	2 DUP(00H)
	DD	2 DUP(00H)
xdata$x	ENDS
;	COMDAT ??_C@_0BE@JONHPENG@map?1set?$DMT?$DO?5too?5long?$AA@
CONST	SEGMENT
??_C@_0BE@JONHPENG@map?1set?$DMT?$DO?5too?5long?$AA@ DB 'map/set<T> too l'
	DB	'ong', 00H					; `string'
CONST	ENDS
;	COMDAT __TI3?AVlength_error@std@@
xdata$x	SEGMENT
__TI3?AVlength_error@std@@ DD 00H
	DD	FLAT:??1length_error@std@@UAE@XZ
	DD	00H
	DD	FLAT:__CTA3?AVlength_error@std@@
xdata$x	ENDS
;	COMDAT __CTA3?AVlength_error@std@@
xdata$x	SEGMENT
__CTA3?AVlength_error@std@@ DD 03H
	DD	FLAT:__CT??_R0?AVlength_error@std@@@8??0length_error@std@@QAE@ABV01@@Z40
	DD	FLAT:__CT??_R0?AVlogic_error@std@@@8??0logic_error@std@@QAE@ABV01@@Z40
	DD	FLAT:__CT??_R0?AVexception@@@8??0exception@@QAE@ABV0@@Z12
xdata$x	ENDS
;	COMDAT __CT??_R0?AVlength_error@std@@@8??0length_error@std@@QAE@ABV01@@Z40
xdata$x	SEGMENT
__CT??_R0?AVlength_error@std@@@8??0length_error@std@@QAE@ABV01@@Z40 DD 00H
	DD	FLAT:??_R0?AVlength_error@std@@@8
	DD	00H
	DD	0ffffffffH
	ORG $+4
	DD	028H
	DD	FLAT:??0length_error@std@@QAE@ABV01@@Z
xdata$x	ENDS
;	COMDAT ??_R0?AVlength_error@std@@@8
_DATA	SEGMENT
??_R0?AVlength_error@std@@@8 DD FLAT:??_7type_info@@6B@	; std::length_error `RTTI Type Descriptor'
	DD	00H
	DB	'.?AVlength_error@std@@', 00H
	ORG $-31
	DD	FLAT:??_7type_info@@6B@
	DD	00H
	DB	'.?AVlength_error@std@@', 00H
; Function compile flags: /Odt
_DATA	ENDS
;	COMDAT ?_Insert@?$_Tree@V?$_Tmap_traits@KPAVIData@@U?$less@K@std@@V?$allocator@U?$pair@$$CBKPAVIData@@@std@@@3@$0A@@std@@@std@@IAE?AViterator@12@_NPAU_Node@?$_Tree_nod@V?$_Tmap_traits@KPAVIData@@U?$less@K@std@@V?$allocator@U?$pair@$$CBKPAVIData@@@std@@@3@$0A@@std@@@2@ABU?$pair@$$CBKPAVIData@@@2@@Z
_TEXT	SEGMENT
_this$ = -92						; size = 4
$T200696 = -88						; size = 28
$T200695 = -60						; size = 40
__Pnode$199755 = -20					; size = 4
__Newnode$ = -16					; size = 4
__$EHRec$ = -12						; size = 12
___$ReturnUdt$ = 8					; size = 4
__Addleft$ = 12						; size = 1
__Wherenode$ = 16					; size = 4
__Val$ = 20						; size = 4
?_Insert@?$_Tree@V?$_Tmap_traits@KPAVIData@@U?$less@K@std@@V?$allocator@U?$pair@$$CBKPAVIData@@@std@@@3@$0A@@std@@@std@@IAE?AViterator@12@_NPAU_Node@?$_Tree_nod@V?$_Tmap_traits@KPAVIData@@U?$less@K@std@@V?$allocator@U?$pair@$$CBKPAVIData@@@std@@@3@$0A@@std@@@2@ABU?$pair@$$CBKPAVIData@@@2@@Z PROC NEAR ; std::_Tree<std::_Tmap_traits<unsigned long,IData *,std::less<unsigned long>,std::allocator<std::pair<unsigned long const ,IData *> >,0> >::_Insert, COMDAT
; _this$ = ecx

; 911  : 		{	// add node with value next to _Wherenode, to left if _Addnode

  00000	55		 push	 ebp
  00001	8b ec		 mov	 ebp, esp
  00003	6a ff		 push	 -1
  00005	68 00 00 00 00	 push	 __ehhandler$?_Insert@?$_Tree@V?$_Tmap_traits@KPAVIData@@U?$less@K@std@@V?$allocator@U?$pair@$$CBKPAVIData@@@std@@@3@$0A@@std@@@std@@IAE?AViterator@12@_NPAU_Node@?$_Tree_nod@V?$_Tmap_traits@KPAVIData@@U?$less@K@std@@V?$allocator@U?$pair@$$CBKPAVIData@@@std@@@3@$0A@@std@@@2@ABU?$pair@$$CBKPAVIData@@@2@@Z
  0000a	64 a1 00 00 00
	00		 mov	 eax, DWORD PTR fs:__except_list
  00010	50		 push	 eax
  00011	64 89 25 00 00
	00 00		 mov	 DWORD PTR fs:__except_list, esp
  00018	83 ec 50	 sub	 esp, 80			; 00000050H
  0001b	56		 push	 esi
  0001c	89 4d a4	 mov	 DWORD PTR _this$[ebp], ecx

; 912  : 		if (max_size() - 1 <= _Mysize)

  0001f	8b 4d a4	 mov	 ecx, DWORD PTR _this$[ebp]
  00022	e8 00 00 00 00	 call	 ?max_size@?$_Tree@V?$_Tmap_traits@KPAVIData@@U?$less@K@std@@V?$allocator@U?$pair@$$CBKPAVIData@@@std@@@3@$0A@@std@@@std@@QBEIXZ ; std::_Tree<std::_Tmap_traits<unsigned long,IData *,std::less<unsigned long>,std::allocator<std::pair<unsigned long const ,IData *> >,0> >::max_size
  00027	83 e8 01	 sub	 eax, 1
  0002a	8b 4d a4	 mov	 ecx, DWORD PTR _this$[ebp]
  0002d	3b 41 08	 cmp	 eax, DWORD PTR [ecx+8]
  00030	77 2f		 ja	 SHORT $L199740

; 913  : 			_THROW(length_error, "map/set<T> too long");

  00032	68 00 00 00 00	 push	 OFFSET FLAT:??_C@_0BE@JONHPENG@map?1set?$DMT?$DO?5too?5long?$AA@
  00037	8d 4d a8	 lea	 ecx, DWORD PTR $T200696[ebp]
  0003a	ff 15 00 00 00
	00		 call	 DWORD PTR __imp_??0?$basic_string@DU?$char_traits@D@std@@V?$allocator@D@2@@std@@QAE@PBD@Z
  00040	c7 45 fc 00 00
	00 00		 mov	 DWORD PTR __$EHRec$[ebp+8], 0
  00047	8d 55 a8	 lea	 edx, DWORD PTR $T200696[ebp]
  0004a	52		 push	 edx
  0004b	8d 4d c4	 lea	 ecx, DWORD PTR $T200695[ebp]
  0004e	e8 00 00 00 00	 call	 ??0length_error@std@@QAE@ABV?$basic_string@DU?$char_traits@D@std@@V?$allocator@D@2@@1@@Z ; std::length_error::length_error
  00053	68 00 00 00 00	 push	 OFFSET FLAT:__TI3?AVlength_error@std@@
  00058	8d 45 c4	 lea	 eax, DWORD PTR $T200695[ebp]
  0005b	50		 push	 eax
  0005c	e8 00 00 00 00	 call	 __CxxThrowException@8
$L199740:

; 914  : 		_Nodeptr _Newnode = _Buynode(_Myhead, _Wherenode, _Myhead,
; 915  : 			_Val, _Red);

  00061	6a 00		 push	 0
  00063	8b 4d 14	 mov	 ecx, DWORD PTR __Val$[ebp]
  00066	51		 push	 ecx
  00067	8b 55 a4	 mov	 edx, DWORD PTR _this$[ebp]
  0006a	8b 42 04	 mov	 eax, DWORD PTR [edx+4]
  0006d	50		 push	 eax
  0006e	8b 4d 10	 mov	 ecx, DWORD PTR __Wherenode$[ebp]
  00071	51		 push	 ecx
  00072	8b 55 a4	 mov	 edx, DWORD PTR _this$[ebp]
  00075	8b 42 04	 mov	 eax, DWORD PTR [edx+4]
  00078	50		 push	 eax
  00079	8b 4d a4	 mov	 ecx, DWORD PTR _this$[ebp]
  0007c	e8 00 00 00 00	 call	 ?_Buynode@?$_Tree@V?$_Tmap_traits@KPAVIData@@U?$less@K@std@@V?$allocator@U?$pair@$$CBKPAVIData@@@std@@@3@$0A@@std@@@std@@IAEPAU_Node@?$_Tree_nod@V?$_Tmap_traits@KPAVIData@@U?$less@K@std@@V?$allocator@U?$pair@$$CBKPAVIData@@@std@@@3@$0A@@std@@@2@PAU342@00ABU?$pair@$$CBKPAVIData@@@2@D@Z ; std::_Tree<std::_Tmap_traits<unsigned long,IData *,std::less<unsigned long>,std::allocator<std::pair<unsigned long const ,IData *> >,0> >::_Buynode
  00081	89 45 f0	 mov	 DWORD PTR __Newnode$[ebp], eax

; 916  : 
; 917  : 		++_Mysize;

  00084	8b 4d a4	 mov	 ecx, DWORD PTR _this$[ebp]
  00087	8b 51 08	 mov	 edx, DWORD PTR [ecx+8]
  0008a	83 c2 01	 add	 edx, 1
  0008d	8b 45 a4	 mov	 eax, DWORD PTR _this$[ebp]
  00090	89 50 08	 mov	 DWORD PTR [eax+8], edx

; 918  : 		if (_Wherenode == _Myhead)

  00093	8b 4d a4	 mov	 ecx, DWORD PTR _this$[ebp]
  00096	8b 55 10	 mov	 edx, DWORD PTR __Wherenode$[ebp]
  00099	3b 51 04	 cmp	 edx, DWORD PTR [ecx+4]
  0009c	75 29		 jne	 SHORT $L199749

; 919  : 			{	// first node in tree, just set head values
; 920  : 			_Root() = _Newnode;

  0009e	8b 4d a4	 mov	 ecx, DWORD PTR _this$[ebp]
  000a1	e8 00 00 00 00	 call	 ?_Root@?$_Tree@V?$_Tmap_traits@KPAVIData@@U?$less@K@std@@V?$allocator@U?$pair@$$CBKPAVIData@@@std@@@3@$0A@@std@@@std@@IAEAAPAU_Node@?$_Tree_nod@V?$_Tmap_traits@KPAVIData@@U?$less@K@std@@V?$allocator@U?$pair@$$CBKPAVIData@@@std@@@3@$0A@@std@@@2@XZ ; std::_Tree<std::_Tmap_traits<unsigned long,IData *,std::less<unsigned long>,std::allocator<std::pair<unsigned long const ,IData *> >,0> >::_Root
  000a6	8b 4d f0	 mov	 ecx, DWORD PTR __Newnode$[ebp]
  000a9	89 08		 mov	 DWORD PTR [eax], ecx

; 921  : 			_Lmost() = _Newnode, _Rmost() = _Newnode;

  000ab	8b 4d a4	 mov	 ecx, DWORD PTR _this$[ebp]
  000ae	e8 00 00 00 00	 call	 ?_Lmost@?$_Tree@V?$_Tmap_traits@KPAVIData@@U?$less@K@std@@V?$allocator@U?$pair@$$CBKPAVIData@@@std@@@3@$0A@@std@@@std@@IAEAAPAU_Node@?$_Tree_nod@V?$_Tmap_traits@KPAVIData@@U?$less@K@std@@V?$allocator@U?$pair@$$CBKPAVIData@@@std@@@3@$0A@@std@@@2@XZ ; std::_Tree<std::_Tmap_traits<unsigned long,IData *,std::less<unsigned long>,std::allocator<std::pair<unsigned long const ,IData *> >,0> >::_Lmost
  000b3	8b 55 f0	 mov	 edx, DWORD PTR __Newnode$[ebp]
  000b6	89 10		 mov	 DWORD PTR [eax], edx
  000b8	8b 4d a4	 mov	 ecx, DWORD PTR _this$[ebp]
  000bb	e8 00 00 00 00	 call	 ?_Rmost@?$_Tree@V?$_Tmap_traits@KPAVIData@@U?$less@K@std@@V?$allocator@U?$pair@$$CBKPAVIData@@@std@@@3@$0A@@std@@@std@@IAEAAPAU_Node@?$_Tree_nod@V?$_Tmap_traits@KPAVIData@@U?$less@K@std@@V?$allocator@U?$pair@$$CBKPAVIData@@@std@@@3@$0A@@std@@@2@XZ ; std::_Tree<std::_Tmap_traits<unsigned long,IData *,std::less<unsigned long>,std::allocator<std::pair<unsigned long const ,IData *> >,0> >::_Rmost
  000c0	8b 4d f0	 mov	 ecx, DWORD PTR __Newnode$[ebp]
  000c3	89 08		 mov	 DWORD PTR [eax], ecx

; 922  : 			}
; 923  : 		else if (_Addleft)

  000c5	eb 64		 jmp	 SHORT $L199750
$L199749:
  000c7	0f b6 55 0c	 movzx	 edx, BYTE PTR __Addleft$[ebp]
  000cb	85 d2		 test	 edx, edx
  000cd	74 2f		 je	 SHORT $L199751

; 924  : 			{	// add to left of _Wherenode
; 925  : 			_Left(_Wherenode) = _Newnode;

  000cf	8b 45 10	 mov	 eax, DWORD PTR __Wherenode$[ebp]
  000d2	50		 push	 eax
  000d3	e8 00 00 00 00	 call	 ?_Left@?$_Tree@V?$_Tmap_traits@KPAVIData@@U?$less@K@std@@V?$allocator@U?$pair@$$CBKPAVIData@@@std@@@3@$0A@@std@@@std@@KAAAPAU_Node@?$_Tree_nod@V?$_Tmap_traits@KPAVIData@@U?$less@K@std@@V?$allocator@U?$pair@$$CBKPAVIData@@@std@@@3@$0A@@std@@@2@PAU342@@Z ; std::_Tree<std::_Tmap_traits<unsigned long,IData *,std::less<unsigned long>,std::allocator<std::pair<unsigned long const ,IData *> >,0> >::_Left
  000d8	83 c4 04	 add	 esp, 4
  000db	8b 4d f0	 mov	 ecx, DWORD PTR __Newnode$[ebp]
  000de	89 08		 mov	 DWORD PTR [eax], ecx

; 926  : 			if (_Wherenode == _Lmost())

  000e0	8b 4d a4	 mov	 ecx, DWORD PTR _this$[ebp]
  000e3	e8 00 00 00 00	 call	 ?_Lmost@?$_Tree@V?$_Tmap_traits@KPAVIData@@U?$less@K@std@@V?$allocator@U?$pair@$$CBKPAVIData@@@std@@@3@$0A@@std@@@std@@IAEAAPAU_Node@?$_Tree_nod@V?$_Tmap_traits@KPAVIData@@U?$less@K@std@@V?$allocator@U?$pair@$$CBKPAVIData@@@std@@@3@$0A@@std@@@2@XZ ; std::_Tree<std::_Tmap_traits<unsigned long,IData *,std::less<unsigned long>,std::allocator<std::pair<unsigned long const ,IData *> >,0> >::_Lmost
  000e8	8b 55 10	 mov	 edx, DWORD PTR __Wherenode$[ebp]
  000eb	3b 10		 cmp	 edx, DWORD PTR [eax]
  000ed	75 0d		 jne	 SHORT $L199752

; 927  : 				_Lmost() = _Newnode;

  000ef	8b 4d a4	 mov	 ecx, DWORD PTR _this$[ebp]
  000f2	e8 00 00 00 00	 call	 ?_Lmost@?$_Tree@V?$_Tmap_traits@KPAVIData@@U?$less@K@std@@V?$allocator@U?$pair@$$CBKPAVIData@@@std@@@3@$0A@@std@@@std@@IAEAAPAU_Node@?$_Tree_nod@V?$_Tmap_traits@KPAVIData@@U?$less@K@std@@V?$allocator@U?$pair@$$CBKPAVIData@@@std@@@3@$0A@@std@@@2@XZ ; std::_Tree<std::_Tmap_traits<unsigned long,IData *,std::less<unsigned long>,std::allocator<std::pair<unsigned long const ,IData *> >,0> >::_Lmost
  000f7	8b 4d f0	 mov	 ecx, DWORD PTR __Newnode$[ebp]
  000fa	89 08		 mov	 DWORD PTR [eax], ecx
$L199752:

; 928  : 			}
; 929  : 		else

  000fc	eb 2d		 jmp	 SHORT $L199750
$L199751:

; 930  : 			{	// add to right of _Wherenode
; 931  : 			_Right(_Wherenode) = _Newnode;

  000fe	8b 55 10	 mov	 edx, DWORD PTR __Wherenode$[ebp]
  00101	52		 push	 edx
  00102	e8 00 00 00 00	 call	 ?_Right@?$_Tree@V?$_Tmap_traits@KPAVIData@@U?$less@K@std@@V?$allocator@U?$pair@$$CBKPAVIData@@@std@@@3@$0A@@std@@@std@@KAAAPAU_Node@?$_Tree_nod@V?$_Tmap_traits@KPAVIData@@U?$less@K@std@@V?$allocator@U?$pair@$$CBKPAVIData@@@std@@@3@$0A@@std@@@2@PAU342@@Z ; std::_Tree<std::_Tmap_traits<unsigned long,IData *,std::less<unsigned long>,std::allocator<std::pair<unsigned long const ,IData *> >,0> >::_Right
  00107	83 c4 04	 add	 esp, 4
  0010a	8b 4d f0	 mov	 ecx, DWORD PTR __Newnode$[ebp]
  0010d	89 08		 mov	 DWORD PTR [eax], ecx

; 932  : 			if (_Wherenode == _Rmost())

  0010f	8b 4d a4	 mov	 ecx, DWORD PTR _this$[ebp]
  00112	e8 00 00 00 00	 call	 ?_Rmost@?$_Tree@V?$_Tmap_traits@KPAVIData@@U?$less@K@std@@V?$allocator@U?$pair@$$CBKPAVIData@@@std@@@3@$0A@@std@@@std@@IAEAAPAU_Node@?$_Tree_nod@V?$_Tmap_traits@KPAVIData@@U?$less@K@std@@V?$allocator@U?$pair@$$CBKPAVIData@@@std@@@3@$0A@@std@@@2@XZ ; std::_Tree<std::_Tmap_traits<unsigned long,IData *,std::less<unsigned long>,std::allocator<std::pair<unsigned long const ,IData *> >,0> >::_Rmost
  00117	8b 55 10	 mov	 edx, DWORD PTR __Wherenode$[ebp]
  0011a	3b 10		 cmp	 edx, DWORD PTR [eax]
  0011c	75 0d		 jne	 SHORT $L199750

; 933  : 				_Rmost() = _Newnode;

  0011e	8b 4d a4	 mov	 ecx, DWORD PTR _this$[ebp]
  00121	e8 00 00 00 00	 call	 ?_Rmost@?$_Tree@V?$_Tmap_traits@KPAVIData@@U?$less@K@std@@V?$allocator@U?$pair@$$CBKPAVIData@@@std@@@3@$0A@@std@@@std@@IAEAAPAU_Node@?$_Tree_nod@V?$_Tmap_traits@KPAVIData@@U?$less@K@std@@V?$allocator@U?$pair@$$CBKPAVIData@@@std@@@3@$0A@@std@@@2@XZ ; std::_Tree<std::_Tmap_traits<unsigned long,IData *,std::less<unsigned long>,std::allocator<std::pair<unsigned long const ,IData *> >,0> >::_Rmost
  00126	8b 4d f0	 mov	 ecx, DWORD PTR __Newnode$[ebp]
  00129	89 08		 mov	 DWORD PTR [eax], ecx
$L199750:

; 934  : 			}
; 935  : 
; 936  : 		for (_Nodeptr _Pnode = _Newnode; _Color(_Parent(_Pnode)) == _Red; )

  0012b	8b 55 f0	 mov	 edx, DWORD PTR __Newnode$[ebp]
  0012e	89 55 ec	 mov	 DWORD PTR __Pnode$199755[ebp], edx
$L199757:
  00131	8b 45 ec	 mov	 eax, DWORD PTR __Pnode$199755[ebp]
  00134	50		 push	 eax
  00135	e8 00 00 00 00	 call	 ?_Parent@?$_Tree@V?$_Tmap_traits@KPAVIData@@U?$less@K@std@@V?$allocator@U?$pair@$$CBKPAVIData@@@std@@@3@$0A@@std@@@std@@KAAAPAU_Node@?$_Tree_nod@V?$_Tmap_traits@KPAVIData@@U?$less@K@std@@V?$allocator@U?$pair@$$CBKPAVIData@@@std@@@3@$0A@@std@@@2@PAU342@@Z ; std::_Tree<std::_Tmap_traits<unsigned long,IData *,std::less<unsigned long>,std::allocator<std::pair<unsigned long const ,IData *> >,0> >::_Parent
  0013a	83 c4 04	 add	 esp, 4
  0013d	8b 08		 mov	 ecx, DWORD PTR [eax]
  0013f	51		 push	 ecx
  00140	e8 00 00 00 00	 call	 ?_Color@?$_Tree@V?$_Tmap_traits@KPAVIData@@U?$less@K@std@@V?$allocator@U?$pair@$$CBKPAVIData@@@std@@@3@$0A@@std@@@std@@KAAADPAU_Node@?$_Tree_nod@V?$_Tmap_traits@KPAVIData@@U?$less@K@std@@V?$allocator@U?$pair@$$CBKPAVIData@@@std@@@3@$0A@@std@@@2@@Z ; std::_Tree<std::_Tmap_traits<unsigned long,IData *,std::less<unsigned long>,std::allocator<std::pair<unsigned long const ,IData *> >,0> >::_Color
  00145	83 c4 04	 add	 esp, 4
  00148	0f be 10	 movsx	 edx, BYTE PTR [eax]
  0014b	85 d2		 test	 edx, edx
  0014d	0f 85 ce 02 00
	00		 jne	 $L199758

; 937  : 			if (_Parent(_Pnode) == _Left(_Parent(_Parent(_Pnode))))

  00153	8b 45 ec	 mov	 eax, DWORD PTR __Pnode$199755[ebp]
  00156	50		 push	 eax
  00157	e8 00 00 00 00	 call	 ?_Parent@?$_Tree@V?$_Tmap_traits@KPAVIData@@U?$less@K@std@@V?$allocator@U?$pair@$$CBKPAVIData@@@std@@@3@$0A@@std@@@std@@KAAAPAU_Node@?$_Tree_nod@V?$_Tmap_traits@KPAVIData@@U?$less@K@std@@V?$allocator@U?$pair@$$CBKPAVIData@@@std@@@3@$0A@@std@@@2@PAU342@@Z ; std::_Tree<std::_Tmap_traits<unsigned long,IData *,std::less<unsigned long>,std::allocator<std::pair<unsigned long const ,IData *> >,0> >::_Parent
  0015c	83 c4 04	 add	 esp, 4
  0015f	8b f0		 mov	 esi, eax
  00161	8b 4d ec	 mov	 ecx, DWORD PTR __Pnode$199755[ebp]
  00164	51		 push	 ecx
  00165	e8 00 00 00 00	 call	 ?_Parent@?$_Tree@V?$_Tmap_traits@KPAVIData@@U?$less@K@std@@V?$allocator@U?$pair@$$CBKPAVIData@@@std@@@3@$0A@@std@@@std@@KAAAPAU_Node@?$_Tree_nod@V?$_Tmap_traits@KPAVIData@@U?$less@K@std@@V?$allocator@U?$pair@$$CBKPAVIData@@@std@@@3@$0A@@std@@@2@PAU342@@Z ; std::_Tree<std::_Tmap_traits<unsigned long,IData *,std::less<unsigned long>,std::allocator<std::pair<unsigned long const ,IData *> >,0> >::_Parent
  0016a	83 c4 04	 add	 esp, 4
  0016d	8b 10		 mov	 edx, DWORD PTR [eax]
  0016f	52		 push	 edx
  00170	e8 00 00 00 00	 call	 ?_Parent@?$_Tree@V?$_Tmap_traits@KPAVIData@@U?$less@K@std@@V?$allocator@U?$pair@$$CBKPAVIData@@@std@@@3@$0A@@std@@@std@@KAAAPAU_Node@?$_Tree_nod@V?$_Tmap_traits@KPAVIData@@U?$less@K@std@@V?$allocator@U?$pair@$$CBKPAVIData@@@std@@@3@$0A@@std@@@2@PAU342@@Z ; std::_Tree<std::_Tmap_traits<unsigned long,IData *,std::less<unsigned long>,std::allocator<std::pair<unsigned long const ,IData *> >,0> >::_Parent
  00175	83 c4 04	 add	 esp, 4
  00178	8b 00		 mov	 eax, DWORD PTR [eax]
  0017a	50		 push	 eax
  0017b	e8 00 00 00 00	 call	 ?_Left@?$_Tree@V?$_Tmap_traits@KPAVIData@@U?$less@K@std@@V?$allocator@U?$pair@$$CBKPAVIData@@@std@@@3@$0A@@std@@@std@@KAAAPAU_Node@?$_Tree_nod@V?$_Tmap_traits@KPAVIData@@U?$less@K@std@@V?$allocator@U?$pair@$$CBKPAVIData@@@std@@@3@$0A@@std@@@2@PAU342@@Z ; std::_Tree<std::_Tmap_traits<unsigned long,IData *,std::less<unsigned long>,std::allocator<std::pair<unsigned long const ,IData *> >,0> >::_Left
  00180	83 c4 04	 add	 esp, 4
  00183	8b 0e		 mov	 ecx, DWORD PTR [esi]
  00185	3b 08		 cmp	 ecx, DWORD PTR [eax]
  00187	0f 85 4a 01 00
	00		 jne	 $L199759

; 938  : 				{	// fixup red-red in left subtree
; 939  : 				_Wherenode = _Right(_Parent(_Parent(_Pnode)));

  0018d	8b 55 ec	 mov	 edx, DWORD PTR __Pnode$199755[ebp]
  00190	52		 push	 edx
  00191	e8 00 00 00 00	 call	 ?_Parent@?$_Tree@V?$_Tmap_traits@KPAVIData@@U?$less@K@std@@V?$allocator@U?$pair@$$CBKPAVIData@@@std@@@3@$0A@@std@@@std@@KAAAPAU_Node@?$_Tree_nod@V?$_Tmap_traits@KPAVIData@@U?$less@K@std@@V?$allocator@U?$pair@$$CBKPAVIData@@@std@@@3@$0A@@std@@@2@PAU342@@Z ; std::_Tree<std::_Tmap_traits<unsigned long,IData *,std::less<unsigned long>,std::allocator<std::pair<unsigned long const ,IData *> >,0> >::_Parent
  00196	83 c4 04	 add	 esp, 4
  00199	8b 00		 mov	 eax, DWORD PTR [eax]
  0019b	50		 push	 eax
  0019c	e8 00 00 00 00	 call	 ?_Parent@?$_Tree@V?$_Tmap_traits@KPAVIData@@U?$less@K@std@@V?$allocator@U?$pair@$$CBKPAVIData@@@std@@@3@$0A@@std@@@std@@KAAAPAU_Node@?$_Tree_nod@V?$_Tmap_traits@KPAVIData@@U?$less@K@std@@V?$allocator@U?$pair@$$CBKPAVIData@@@std@@@3@$0A@@std@@@2@PAU342@@Z ; std::_Tree<std::_Tmap_traits<unsigned long,IData *,std::less<unsigned long>,std::allocator<std::pair<unsigned long const ,IData *> >,0> >::_Parent
  001a1	83 c4 04	 add	 esp, 4
  001a4	8b 08		 mov	 ecx, DWORD PTR [eax]
  001a6	51		 push	 ecx
  001a7	e8 00 00 00 00	 call	 ?_Right@?$_Tree@V?$_Tmap_traits@KPAVIData@@U?$less@K@std@@V?$allocator@U?$pair@$$CBKPAVIData@@@std@@@3@$0A@@std@@@std@@KAAAPAU_Node@?$_Tree_nod@V?$_Tmap_traits@KPAVIData@@U?$less@K@std@@V?$allocator@U?$pair@$$CBKPAVIData@@@std@@@3@$0A@@std@@@2@PAU342@@Z ; std::_Tree<std::_Tmap_traits<unsigned long,IData *,std::less<unsigned long>,std::allocator<std::pair<unsigned long const ,IData *> >,0> >::_Right
  001ac	83 c4 04	 add	 esp, 4
  001af	8b 10		 mov	 edx, DWORD PTR [eax]
  001b1	89 55 10	 mov	 DWORD PTR __Wherenode$[ebp], edx

; 940  : 				if (_Color(_Wherenode) == _Red)

  001b4	8b 45 10	 mov	 eax, DWORD PTR __Wherenode$[ebp]
  001b7	50		 push	 eax
  001b8	e8 00 00 00 00	 call	 ?_Color@?$_Tree@V?$_Tmap_traits@KPAVIData@@U?$less@K@std@@V?$allocator@U?$pair@$$CBKPAVIData@@@std@@@3@$0A@@std@@@std@@KAAADPAU_Node@?$_Tree_nod@V?$_Tmap_traits@KPAVIData@@U?$less@K@std@@V?$allocator@U?$pair@$$CBKPAVIData@@@std@@@3@$0A@@std@@@2@@Z ; std::_Tree<std::_Tmap_traits<unsigned long,IData *,std::less<unsigned long>,std::allocator<std::pair<unsigned long const ,IData *> >,0> >::_Color
  001bd	83 c4 04	 add	 esp, 4
  001c0	0f be 08	 movsx	 ecx, BYTE PTR [eax]
  001c3	85 c9		 test	 ecx, ecx
  001c5	75 6f		 jne	 SHORT $L199760

; 941  : 					{	// parent has two red children, blacken both
; 942  : 					_Color(_Parent(_Pnode)) = _Black;

  001c7	8b 55 ec	 mov	 edx, DWORD PTR __Pnode$199755[ebp]
  001ca	52		 push	 edx
  001cb	e8 00 00 00 00	 call	 ?_Parent@?$_Tree@V?$_Tmap_traits@KPAVIData@@U?$less@K@std@@V?$allocator@U?$pair@$$CBKPAVIData@@@std@@@3@$0A@@std@@@std@@KAAAPAU_Node@?$_Tree_nod@V?$_Tmap_traits@KPAVIData@@U?$less@K@std@@V?$allocator@U?$pair@$$CBKPAVIData@@@std@@@3@$0A@@std@@@2@PAU342@@Z ; std::_Tree<std::_Tmap_traits<unsigned long,IData *,std::less<unsigned long>,std::allocator<std::pair<unsigned long const ,IData *> >,0> >::_Parent
  001d0	83 c4 04	 add	 esp, 4
  001d3	8b 00		 mov	 eax, DWORD PTR [eax]
  001d5	50		 push	 eax
  001d6	e8 00 00 00 00	 call	 ?_Color@?$_Tree@V?$_Tmap_traits@KPAVIData@@U?$less@K@std@@V?$allocator@U?$pair@$$CBKPAVIData@@@std@@@3@$0A@@std@@@std@@KAAADPAU_Node@?$_Tree_nod@V?$_Tmap_traits@KPAVIData@@U?$less@K@std@@V?$allocator@U?$pair@$$CBKPAVIData@@@std@@@3@$0A@@std@@@2@@Z ; std::_Tree<std::_Tmap_traits<unsigned long,IData *,std::less<unsigned long>,std::allocator<std::pair<unsigned long const ,IData *> >,0> >::_Color
  001db	83 c4 04	 add	 esp, 4
  001de	c6 00 01	 mov	 BYTE PTR [eax], 1

; 943  : 					_Color(_Wherenode) = _Black;

  001e1	8b 4d 10	 mov	 ecx, DWORD PTR __Wherenode$[ebp]
  001e4	51		 push	 ecx
  001e5	e8 00 00 00 00	 call	 ?_Color@?$_Tree@V?$_Tmap_traits@KPAVIData@@U?$less@K@std@@V?$allocator@U?$pair@$$CBKPAVIData@@@std@@@3@$0A@@std@@@std@@KAAADPAU_Node@?$_Tree_nod@V?$_Tmap_traits@KPAVIData@@U?$less@K@std@@V?$allocator@U?$pair@$$CBKPAVIData@@@std@@@3@$0A@@std@@@2@@Z ; std::_Tree<std::_Tmap_traits<unsigned long,IData *,std::less<unsigned long>,std::allocator<std::pair<unsigned long const ,IData *> >,0> >::_Color
  001ea	83 c4 04	 add	 esp, 4
  001ed	c6 00 01	 mov	 BYTE PTR [eax], 1

; 944  : 					_Color(_Parent(_Parent(_Pnode))) = _Red;

  001f0	8b 55 ec	 mov	 edx, DWORD PTR __Pnode$199755[ebp]
  001f3	52		 push	 edx
  001f4	e8 00 00 00 00	 call	 ?_Parent@?$_Tree@V?$_Tmap_traits@KPAVIData@@U?$less@K@std@@V?$allocator@U?$pair@$$CBKPAVIData@@@std@@@3@$0A@@std@@@std@@KAAAPAU_Node@?$_Tree_nod@V?$_Tmap_traits@KPAVIData@@U?$less@K@std@@V?$allocator@U?$pair@$$CBKPAVIData@@@std@@@3@$0A@@std@@@2@PAU342@@Z ; std::_Tree<std::_Tmap_traits<unsigned long,IData *,std::less<unsigned long>,std::allocator<std::pair<unsigned long const ,IData *> >,0> >::_Parent
  001f9	83 c4 04	 add	 esp, 4
  001fc	8b 00		 mov	 eax, DWORD PTR [eax]
  001fe	50		 push	 eax
  001ff	e8 00 00 00 00	 call	 ?_Parent@?$_Tree@V?$_Tmap_traits@KPAVIData@@U?$less@K@std@@V?$allocator@U?$pair@$$CBKPAVIData@@@std@@@3@$0A@@std@@@std@@KAAAPAU_Node@?$_Tree_nod@V?$_Tmap_traits@KPAVIData@@U?$less@K@std@@V?$allocator@U?$pair@$$CBKPAVIData@@@std@@@3@$0A@@std@@@2@PAU342@@Z ; std::_Tree<std::_Tmap_traits<unsigned long,IData *,std::less<unsigned long>,std::allocator<std::pair<unsigned long const ,IData *> >,0> >::_Parent
  00204	83 c4 04	 add	 esp, 4
  00207	8b 08		 mov	 ecx, DWORD PTR [eax]
  00209	51		 push	 ecx
  0020a	e8 00 00 00 00	 call	 ?_Color@?$_Tree@V?$_Tmap_traits@KPAVIData@@U?$less@K@std@@V?$allocator@U?$pair@$$CBKPAVIData@@@std@@@3@$0A@@std@@@std@@KAAADPAU_Node@?$_Tree_nod@V?$_Tmap_traits@KPAVIData@@U?$less@K@std@@V?$allocator@U?$pair@$$CBKPAVIData@@@std@@@3@$0A@@std@@@2@@Z ; std::_Tree<std::_Tmap_traits<unsigned long,IData *,std::less<unsigned long>,std::allocator<std::pair<unsigned long const ,IData *> >,0> >::_Color
  0020f	83 c4 04	 add	 esp, 4
  00212	c6 00 00	 mov	 BYTE PTR [eax], 0

; 945  : 					_Pnode = _Parent(_Parent(_Pnode));

  00215	8b 55 ec	 mov	 edx, DWORD PTR __Pnode$199755[ebp]
  00218	52		 push	 edx
  00219	e8 00 00 00 00	 call	 ?_Parent@?$_Tree@V?$_Tmap_traits@KPAVIData@@U?$less@K@std@@V?$allocator@U?$pair@$$CBKPAVIData@@@std@@@3@$0A@@std@@@std@@KAAAPAU_Node@?$_Tree_nod@V?$_Tmap_traits@KPAVIData@@U?$less@K@std@@V?$allocator@U?$pair@$$CBKPAVIData@@@std@@@3@$0A@@std@@@2@PAU342@@Z ; std::_Tree<std::_Tmap_traits<unsigned long,IData *,std::less<unsigned long>,std::allocator<std::pair<unsigned long const ,IData *> >,0> >::_Parent
  0021e	83 c4 04	 add	 esp, 4
  00221	8b 00		 mov	 eax, DWORD PTR [eax]
  00223	50		 push	 eax
  00224	e8 00 00 00 00	 call	 ?_Parent@?$_Tree@V?$_Tmap_traits@KPAVIData@@U?$less@K@std@@V?$allocator@U?$pair@$$CBKPAVIData@@@std@@@3@$0A@@std@@@std@@KAAAPAU_Node@?$_Tree_nod@V?$_Tmap_traits@KPAVIData@@U?$less@K@std@@V?$allocator@U?$pair@$$CBKPAVIData@@@std@@@3@$0A@@std@@@2@PAU342@@Z ; std::_Tree<std::_Tmap_traits<unsigned long,IData *,std::less<unsigned long>,std::allocator<std::pair<unsigned long const ,IData *> >,0> >::_Parent
  00229	83 c4 04	 add	 esp, 4
  0022c	8b 08		 mov	 ecx, DWORD PTR [eax]
  0022e	89 4d ec	 mov	 DWORD PTR __Pnode$199755[ebp], ecx

; 946  : 					}
; 947  : 				else

  00231	e9 9c 00 00 00	 jmp	 $L199761
$L199760:

; 948  : 					{	// parent has red and black children
; 949  : 					if (_Pnode == _Right(_Parent(_Pnode)))

  00236	8b 55 ec	 mov	 edx, DWORD PTR __Pnode$199755[ebp]
  00239	52		 push	 edx
  0023a	e8 00 00 00 00	 call	 ?_Parent@?$_Tree@V?$_Tmap_traits@KPAVIData@@U?$less@K@std@@V?$allocator@U?$pair@$$CBKPAVIData@@@std@@@3@$0A@@std@@@std@@KAAAPAU_Node@?$_Tree_nod@V?$_Tmap_traits@KPAVIData@@U?$less@K@std@@V?$allocator@U?$pair@$$CBKPAVIData@@@std@@@3@$0A@@std@@@2@PAU342@@Z ; std::_Tree<std::_Tmap_traits<unsigned long,IData *,std::less<unsigned long>,std::allocator<std::pair<unsigned long const ,IData *> >,0> >::_Parent
  0023f	83 c4 04	 add	 esp, 4
  00242	8b 00		 mov	 eax, DWORD PTR [eax]
  00244	50		 push	 eax
  00245	e8 00 00 00 00	 call	 ?_Right@?$_Tree@V?$_Tmap_traits@KPAVIData@@U?$less@K@std@@V?$allocator@U?$pair@$$CBKPAVIData@@@std@@@3@$0A@@std@@@std@@KAAAPAU_Node@?$_Tree_nod@V?$_Tmap_traits@KPAVIData@@U?$less@K@std@@V?$allocator@U?$pair@$$CBKPAVIData@@@std@@@3@$0A@@std@@@2@PAU342@@Z ; std::_Tree<std::_Tmap_traits<unsigned long,IData *,std::less<unsigned long>,std::allocator<std::pair<unsigned long const ,IData *> >,0> >::_Right
  0024a	83 c4 04	 add	 esp, 4
  0024d	8b 4d ec	 mov	 ecx, DWORD PTR __Pnode$199755[ebp]
  00250	3b 08		 cmp	 ecx, DWORD PTR [eax]
  00252	75 1d		 jne	 SHORT $L199762

; 950  : 						{	// rotate right child to left
; 951  : 						_Pnode = _Parent(_Pnode);

  00254	8b 55 ec	 mov	 edx, DWORD PTR __Pnode$199755[ebp]
  00257	52		 push	 edx
  00258	e8 00 00 00 00	 call	 ?_Parent@?$_Tree@V?$_Tmap_traits@KPAVIData@@U?$less@K@std@@V?$allocator@U?$pair@$$CBKPAVIData@@@std@@@3@$0A@@std@@@std@@KAAAPAU_Node@?$_Tree_nod@V?$_Tmap_traits@KPAVIData@@U?$less@K@std@@V?$allocator@U?$pair@$$CBKPAVIData@@@std@@@3@$0A@@std@@@2@PAU342@@Z ; std::_Tree<std::_Tmap_traits<unsigned long,IData *,std::less<unsigned long>,std::allocator<std::pair<unsigned long const ,IData *> >,0> >::_Parent
  0025d	83 c4 04	 add	 esp, 4
  00260	8b 00		 mov	 eax, DWORD PTR [eax]
  00262	89 45 ec	 mov	 DWORD PTR __Pnode$199755[ebp], eax

; 952  : 						_Lrotate(_Pnode);

  00265	8b 4d ec	 mov	 ecx, DWORD PTR __Pnode$199755[ebp]
  00268	51		 push	 ecx
  00269	8b 4d a4	 mov	 ecx, DWORD PTR _this$[ebp]
  0026c	e8 00 00 00 00	 call	 ?_Lrotate@?$_Tree@V?$_Tmap_traits@KPAVIData@@U?$less@K@std@@V?$allocator@U?$pair@$$CBKPAVIData@@@std@@@3@$0A@@std@@@std@@IAEXPAU_Node@?$_Tree_nod@V?$_Tmap_traits@KPAVIData@@U?$less@K@std@@V?$allocator@U?$pair@$$CBKPAVIData@@@std@@@3@$0A@@std@@@2@@Z ; std::_Tree<std::_Tmap_traits<unsigned long,IData *,std::less<unsigned long>,std::allocator<std::pair<unsigned long const ,IData *> >,0> >::_Lrotate
$L199762:

; 953  : 						}
; 954  : 					_Color(_Parent(_Pnode)) = _Black;	// propagate red up

  00271	8b 55 ec	 mov	 edx, DWORD PTR __Pnode$199755[ebp]
  00274	52		 push	 edx
  00275	e8 00 00 00 00	 call	 ?_Parent@?$_Tree@V?$_Tmap_traits@KPAVIData@@U?$less@K@std@@V?$allocator@U?$pair@$$CBKPAVIData@@@std@@@3@$0A@@std@@@std@@KAAAPAU_Node@?$_Tree_nod@V?$_Tmap_traits@KPAVIData@@U?$less@K@std@@V?$allocator@U?$pair@$$CBKPAVIData@@@std@@@3@$0A@@std@@@2@PAU342@@Z ; std::_Tree<std::_Tmap_traits<unsigned long,IData *,std::less<unsigned long>,std::allocator<std::pair<unsigned long const ,IData *> >,0> >::_Parent
  0027a	83 c4 04	 add	 esp, 4
  0027d	8b 00		 mov	 eax, DWORD PTR [eax]
  0027f	50		 push	 eax
  00280	e8 00 00 00 00	 call	 ?_Color@?$_Tree@V?$_Tmap_traits@KPAVIData@@U?$less@K@std@@V?$allocator@U?$pair@$$CBKPAVIData@@@std@@@3@$0A@@std@@@std@@KAAADPAU_Node@?$_Tree_nod@V?$_Tmap_traits@KPAVIData@@U?$less@K@std@@V?$allocator@U?$pair@$$CBKPAVIData@@@std@@@3@$0A@@std@@@2@@Z ; std::_Tree<std::_Tmap_traits<unsigned long,IData *,std::less<unsigned long>,std::allocator<std::pair<unsigned long const ,IData *> >,0> >::_Color
  00285	83 c4 04	 add	 esp, 4
  00288	c6 00 01	 mov	 BYTE PTR [eax], 1

; 955  : 					_Color(_Parent(_Parent(_Pnode))) = _Red;

  0028b	8b 4d ec	 mov	 ecx, DWORD PTR __Pnode$199755[ebp]
  0028e	51		 push	 ecx
  0028f	e8 00 00 00 00	 call	 ?_Parent@?$_Tree@V?$_Tmap_traits@KPAVIData@@U?$less@K@std@@V?$allocator@U?$pair@$$CBKPAVIData@@@std@@@3@$0A@@std@@@std@@KAAAPAU_Node@?$_Tree_nod@V?$_Tmap_traits@KPAVIData@@U?$less@K@std@@V?$allocator@U?$pair@$$CBKPAVIData@@@std@@@3@$0A@@std@@@2@PAU342@@Z ; std::_Tree<std::_Tmap_traits<unsigned long,IData *,std::less<unsigned long>,std::allocator<std::pair<unsigned long const ,IData *> >,0> >::_Parent
  00294	83 c4 04	 add	 esp, 4
  00297	8b 10		 mov	 edx, DWORD PTR [eax]
  00299	52		 push	 edx
  0029a	e8 00 00 00 00	 call	 ?_Parent@?$_Tree@V?$_Tmap_traits@KPAVIData@@U?$less@K@std@@V?$allocator@U?$pair@$$CBKPAVIData@@@std@@@3@$0A@@std@@@std@@KAAAPAU_Node@?$_Tree_nod@V?$_Tmap_traits@KPAVIData@@U?$less@K@std@@V?$allocator@U?$pair@$$CBKPAVIData@@@std@@@3@$0A@@std@@@2@PAU342@@Z ; std::_Tree<std::_Tmap_traits<unsigned long,IData *,std::less<unsigned long>,std::allocator<std::pair<unsigned long const ,IData *> >,0> >::_Parent
  0029f	83 c4 04	 add	 esp, 4
  002a2	8b 00		 mov	 eax, DWORD PTR [eax]
  002a4	50		 push	 eax
  002a5	e8 00 00 00 00	 call	 ?_Color@?$_Tree@V?$_Tmap_traits@KPAVIData@@U?$less@K@std@@V?$allocator@U?$pair@$$CBKPAVIData@@@std@@@3@$0A@@std@@@std@@KAAADPAU_Node@?$_Tree_nod@V?$_Tmap_traits@KPAVIData@@U?$less@K@std@@V?$allocator@U?$pair@$$CBKPAVIData@@@std@@@3@$0A@@std@@@2@@Z ; std::_Tree<std::_Tmap_traits<unsigned long,IData *,std::less<unsigned long>,std::allocator<std::pair<unsigned long const ,IData *> >,0> >::_Color
  002aa	83 c4 04	 add	 esp, 4
  002ad	c6 00 00	 mov	 BYTE PTR [eax], 0

; 956  : 					_Rrotate(_Parent(_Parent(_Pnode)));

  002b0	8b 4d ec	 mov	 ecx, DWORD PTR __Pnode$199755[ebp]
  002b3	51		 push	 ecx
  002b4	e8 00 00 00 00	 call	 ?_Parent@?$_Tree@V?$_Tmap_traits@KPAVIData@@U?$less@K@std@@V?$allocator@U?$pair@$$CBKPAVIData@@@std@@@3@$0A@@std@@@std@@KAAAPAU_Node@?$_Tree_nod@V?$_Tmap_traits@KPAVIData@@U?$less@K@std@@V?$allocator@U?$pair@$$CBKPAVIData@@@std@@@3@$0A@@std@@@2@PAU342@@Z ; std::_Tree<std::_Tmap_traits<unsigned long,IData *,std::less<unsigned long>,std::allocator<std::pair<unsigned long const ,IData *> >,0> >::_Parent
  002b9	83 c4 04	 add	 esp, 4
  002bc	8b 10		 mov	 edx, DWORD PTR [eax]
  002be	52		 push	 edx
  002bf	e8 00 00 00 00	 call	 ?_Parent@?$_Tree@V?$_Tmap_traits@KPAVIData@@U?$less@K@std@@V?$allocator@U?$pair@$$CBKPAVIData@@@std@@@3@$0A@@std@@@std@@KAAAPAU_Node@?$_Tree_nod@V?$_Tmap_traits@KPAVIData@@U?$less@K@std@@V?$allocator@U?$pair@$$CBKPAVIData@@@std@@@3@$0A@@std@@@2@PAU342@@Z ; std::_Tree<std::_Tmap_traits<unsigned long,IData *,std::less<unsigned long>,std::allocator<std::pair<unsigned long const ,IData *> >,0> >::_Parent
  002c4	83 c4 04	 add	 esp, 4
  002c7	8b 00		 mov	 eax, DWORD PTR [eax]
  002c9	50		 push	 eax
  002ca	8b 4d a4	 mov	 ecx, DWORD PTR _this$[ebp]
  002cd	e8 00 00 00 00	 call	 ?_Rrotate@?$_Tree@V?$_Tmap_traits@KPAVIData@@U?$less@K@std@@V?$allocator@U?$pair@$$CBKPAVIData@@@std@@@3@$0A@@std@@@std@@IAEXPAU_Node@?$_Tree_nod@V?$_Tmap_traits@KPAVIData@@U?$less@K@std@@V?$allocator@U?$pair@$$CBKPAVIData@@@std@@@3@$0A@@std@@@2@@Z ; std::_Tree<std::_Tmap_traits<unsigned long,IData *,std::less<unsigned long>,std::allocator<std::pair<unsigned long const ,IData *> >,0> >::_Rrotate
$L199761:

; 957  : 					}
; 958  : 				}
; 959  : 			else

  002d2	e9 45 01 00 00	 jmp	 $L199763
$L199759:

; 960  : 				{	// fixup red-red in right subtree
; 961  : 				_Wherenode = _Left(_Parent(_Parent(_Pnode)));

  002d7	8b 4d ec	 mov	 ecx, DWORD PTR __Pnode$199755[ebp]
  002da	51		 push	 ecx
  002db	e8 00 00 00 00	 call	 ?_Parent@?$_Tree@V?$_Tmap_traits@KPAVIData@@U?$less@K@std@@V?$allocator@U?$pair@$$CBKPAVIData@@@std@@@3@$0A@@std@@@std@@KAAAPAU_Node@?$_Tree_nod@V?$_Tmap_traits@KPAVIData@@U?$less@K@std@@V?$allocator@U?$pair@$$CBKPAVIData@@@std@@@3@$0A@@std@@@2@PAU342@@Z ; std::_Tree<std::_Tmap_traits<unsigned long,IData *,std::less<unsigned long>,std::allocator<std::pair<unsigned long const ,IData *> >,0> >::_Parent
  002e0	83 c4 04	 add	 esp, 4
  002e3	8b 10		 mov	 edx, DWORD PTR [eax]
  002e5	52		 push	 edx
  002e6	e8 00 00 00 00	 call	 ?_Parent@?$_Tree@V?$_Tmap_traits@KPAVIData@@U?$less@K@std@@V?$allocator@U?$pair@$$CBKPAVIData@@@std@@@3@$0A@@std@@@std@@KAAAPAU_Node@?$_Tree_nod@V?$_Tmap_traits@KPAVIData@@U?$less@K@std@@V?$allocator@U?$pair@$$CBKPAVIData@@@std@@@3@$0A@@std@@@2@PAU342@@Z ; std::_Tree<std::_Tmap_traits<unsigned long,IData *,std::less<unsigned long>,std::allocator<std::pair<unsigned long const ,IData *> >,0> >::_Parent
  002eb	83 c4 04	 add	 esp, 4
  002ee	8b 00		 mov	 eax, DWORD PTR [eax]
  002f0	50		 push	 eax
  002f1	e8 00 00 00 00	 call	 ?_Left@?$_Tree@V?$_Tmap_traits@KPAVIData@@U?$less@K@std@@V?$allocator@U?$pair@$$CBKPAVIData@@@std@@@3@$0A@@std@@@std@@KAAAPAU_Node@?$_Tree_nod@V?$_Tmap_traits@KPAVIData@@U?$less@K@std@@V?$allocator@U?$pair@$$CBKPAVIData@@@std@@@3@$0A@@std@@@2@PAU342@@Z ; std::_Tree<std::_Tmap_traits<unsigned long,IData *,std::less<unsigned long>,std::allocator<std::pair<unsigned long const ,IData *> >,0> >::_Left
  002f6	83 c4 04	 add	 esp, 4
  002f9	8b 08		 mov	 ecx, DWORD PTR [eax]
  002fb	89 4d 10	 mov	 DWORD PTR __Wherenode$[ebp], ecx

; 962  : 				if (_Color(_Wherenode) == _Red)

  002fe	8b 55 10	 mov	 edx, DWORD PTR __Wherenode$[ebp]
  00301	52		 push	 edx
  00302	e8 00 00 00 00	 call	 ?_Color@?$_Tree@V?$_Tmap_traits@KPAVIData@@U?$less@K@std@@V?$allocator@U?$pair@$$CBKPAVIData@@@std@@@3@$0A@@std@@@std@@KAAADPAU_Node@?$_Tree_nod@V?$_Tmap_traits@KPAVIData@@U?$less@K@std@@V?$allocator@U?$pair@$$CBKPAVIData@@@std@@@3@$0A@@std@@@2@@Z ; std::_Tree<std::_Tmap_traits<unsigned long,IData *,std::less<unsigned long>,std::allocator<std::pair<unsigned long const ,IData *> >,0> >::_Color
  00307	83 c4 04	 add	 esp, 4
  0030a	0f be 00	 movsx	 eax, BYTE PTR [eax]
  0030d	85 c0		 test	 eax, eax
  0030f	75 6f		 jne	 SHORT $L199764

; 963  : 					{	// parent has two red children, blacken both
; 964  : 					_Color(_Parent(_Pnode)) = _Black;

  00311	8b 4d ec	 mov	 ecx, DWORD PTR __Pnode$199755[ebp]
  00314	51		 push	 ecx
  00315	e8 00 00 00 00	 call	 ?_Parent@?$_Tree@V?$_Tmap_traits@KPAVIData@@U?$less@K@std@@V?$allocator@U?$pair@$$CBKPAVIData@@@std@@@3@$0A@@std@@@std@@KAAAPAU_Node@?$_Tree_nod@V?$_Tmap_traits@KPAVIData@@U?$less@K@std@@V?$allocator@U?$pair@$$CBKPAVIData@@@std@@@3@$0A@@std@@@2@PAU342@@Z ; std::_Tree<std::_Tmap_traits<unsigned long,IData *,std::less<unsigned long>,std::allocator<std::pair<unsigned long const ,IData *> >,0> >::_Parent
  0031a	83 c4 04	 add	 esp, 4
  0031d	8b 10		 mov	 edx, DWORD PTR [eax]
  0031f	52		 push	 edx
  00320	e8 00 00 00 00	 call	 ?_Color@?$_Tree@V?$_Tmap_traits@KPAVIData@@U?$less@K@std@@V?$allocator@U?$pair@$$CBKPAVIData@@@std@@@3@$0A@@std@@@std@@KAAADPAU_Node@?$_Tree_nod@V?$_Tmap_traits@KPAVIData@@U?$less@K@std@@V?$allocator@U?$pair@$$CBKPAVIData@@@std@@@3@$0A@@std@@@2@@Z ; std::_Tree<std::_Tmap_traits<unsigned long,IData *,std::less<unsigned long>,std::allocator<std::pair<unsigned long const ,IData *> >,0> >::_Color
  00325	83 c4 04	 add	 esp, 4
  00328	c6 00 01	 mov	 BYTE PTR [eax], 1

; 965  : 					_Color(_Wherenode) = _Black;

  0032b	8b 45 10	 mov	 eax, DWORD PTR __Wherenode$[ebp]
  0032e	50		 push	 eax
  0032f	e8 00 00 00 00	 call	 ?_Color@?$_Tree@V?$_Tmap_traits@KPAVIData@@U?$less@K@std@@V?$allocator@U?$pair@$$CBKPAVIData@@@std@@@3@$0A@@std@@@std@@KAAADPAU_Node@?$_Tree_nod@V?$_Tmap_traits@KPAVIData@@U?$less@K@std@@V?$allocator@U?$pair@$$CBKPAVIData@@@std@@@3@$0A@@std@@@2@@Z ; std::_Tree<std::_Tmap_traits<unsigned long,IData *,std::less<unsigned long>,std::allocator<std::pair<unsigned long const ,IData *> >,0> >::_Color
  00334	83 c4 04	 add	 esp, 4
  00337	c6 00 01	 mov	 BYTE PTR [eax], 1

; 966  : 					_Color(_Parent(_Parent(_Pnode))) = _Red;

  0033a	8b 4d ec	 mov	 ecx, DWORD PTR __Pnode$199755[ebp]
  0033d	51		 push	 ecx
  0033e	e8 00 00 00 00	 call	 ?_Parent@?$_Tree@V?$_Tmap_traits@KPAVIData@@U?$less@K@std@@V?$allocator@U?$pair@$$CBKPAVIData@@@std@@@3@$0A@@std@@@std@@KAAAPAU_Node@?$_Tree_nod@V?$_Tmap_traits@KPAVIData@@U?$less@K@std@@V?$allocator@U?$pair@$$CBKPAVIData@@@std@@@3@$0A@@std@@@2@PAU342@@Z ; std::_Tree<std::_Tmap_traits<unsigned long,IData *,std::less<unsigned long>,std::allocator<std::pair<unsigned long const ,IData *> >,0> >::_Parent
  00343	83 c4 04	 add	 esp, 4
  00346	8b 10		 mov	 edx, DWORD PTR [eax]
  00348	52		 push	 edx
  00349	e8 00 00 00 00	 call	 ?_Parent@?$_Tree@V?$_Tmap_traits@KPAVIData@@U?$less@K@std@@V?$allocator@U?$pair@$$CBKPAVIData@@@std@@@3@$0A@@std@@@std@@KAAAPAU_Node@?$_Tree_nod@V?$_Tmap_traits@KPAVIData@@U?$less@K@std@@V?$allocator@U?$pair@$$CBKPAVIData@@@std@@@3@$0A@@std@@@2@PAU342@@Z ; std::_Tree<std::_Tmap_traits<unsigned long,IData *,std::less<unsigned long>,std::allocator<std::pair<unsigned long const ,IData *> >,0> >::_Parent
  0034e	83 c4 04	 add	 esp, 4
  00351	8b 00		 mov	 eax, DWORD PTR [eax]
  00353	50		 push	 eax
  00354	e8 00 00 00 00	 call	 ?_Color@?$_Tree@V?$_Tmap_traits@KPAVIData@@U?$less@K@std@@V?$allocator@U?$pair@$$CBKPAVIData@@@std@@@3@$0A@@std@@@std@@KAAADPAU_Node@?$_Tree_nod@V?$_Tmap_traits@KPAVIData@@U?$less@K@std@@V?$allocator@U?$pair@$$CBKPAVIData@@@std@@@3@$0A@@std@@@2@@Z ; std::_Tree<std::_Tmap_traits<unsigned long,IData *,std::less<unsigned long>,std::allocator<std::pair<unsigned long const ,IData *> >,0> >::_Color
  00359	83 c4 04	 add	 esp, 4
  0035c	c6 00 00	 mov	 BYTE PTR [eax], 0

; 967  : 					_Pnode = _Parent(_Parent(_Pnode));

  0035f	8b 4d ec	 mov	 ecx, DWORD PTR __Pnode$199755[ebp]
  00362	51		 push	 ecx
  00363	e8 00 00 00 00	 call	 ?_Parent@?$_Tree@V?$_Tmap_traits@KPAVIData@@U?$less@K@std@@V?$allocator@U?$pair@$$CBKPAVIData@@@std@@@3@$0A@@std@@@std@@KAAAPAU_Node@?$_Tree_nod@V?$_Tmap_traits@KPAVIData@@U?$less@K@std@@V?$allocator@U?$pair@$$CBKPAVIData@@@std@@@3@$0A@@std@@@2@PAU342@@Z ; std::_Tree<std::_Tmap_traits<unsigned long,IData *,std::less<unsigned long>,std::allocator<std::pair<unsigned long const ,IData *> >,0> >::_Parent
  00368	83 c4 04	 add	 esp, 4
  0036b	8b 10		 mov	 edx, DWORD PTR [eax]
  0036d	52		 push	 edx
  0036e	e8 00 00 00 00	 call	 ?_Parent@?$_Tree@V?$_Tmap_traits@KPAVIData@@U?$less@K@std@@V?$allocator@U?$pair@$$CBKPAVIData@@@std@@@3@$0A@@std@@@std@@KAAAPAU_Node@?$_Tree_nod@V?$_Tmap_traits@KPAVIData@@U?$less@K@std@@V?$allocator@U?$pair@$$CBKPAVIData@@@std@@@3@$0A@@std@@@2@PAU342@@Z ; std::_Tree<std::_Tmap_traits<unsigned long,IData *,std::less<unsigned long>,std::allocator<std::pair<unsigned long const ,IData *> >,0> >::_Parent
  00373	83 c4 04	 add	 esp, 4
  00376	8b 00		 mov	 eax, DWORD PTR [eax]
  00378	89 45 ec	 mov	 DWORD PTR __Pnode$199755[ebp], eax

; 968  : 					}
; 969  : 				else

  0037b	e9 9c 00 00 00	 jmp	 $L199763
$L199764:

; 970  : 					{	// parent has red and black children
; 971  : 					if (_Pnode == _Left(_Parent(_Pnode)))

  00380	8b 4d ec	 mov	 ecx, DWORD PTR __Pnode$199755[ebp]
  00383	51		 push	 ecx
  00384	e8 00 00 00 00	 call	 ?_Parent@?$_Tree@V?$_Tmap_traits@KPAVIData@@U?$less@K@std@@V?$allocator@U?$pair@$$CBKPAVIData@@@std@@@3@$0A@@std@@@std@@KAAAPAU_Node@?$_Tree_nod@V?$_Tmap_traits@KPAVIData@@U?$less@K@std@@V?$allocator@U?$pair@$$CBKPAVIData@@@std@@@3@$0A@@std@@@2@PAU342@@Z ; std::_Tree<std::_Tmap_traits<unsigned long,IData *,std::less<unsigned long>,std::allocator<std::pair<unsigned long const ,IData *> >,0> >::_Parent
  00389	83 c4 04	 add	 esp, 4
  0038c	8b 10		 mov	 edx, DWORD PTR [eax]
  0038e	52		 push	 edx
  0038f	e8 00 00 00 00	 call	 ?_Left@?$_Tree@V?$_Tmap_traits@KPAVIData@@U?$less@K@std@@V?$allocator@U?$pair@$$CBKPAVIData@@@std@@@3@$0A@@std@@@std@@KAAAPAU_Node@?$_Tree_nod@V?$_Tmap_traits@KPAVIData@@U?$less@K@std@@V?$allocator@U?$pair@$$CBKPAVIData@@@std@@@3@$0A@@std@@@2@PAU342@@Z ; std::_Tree<std::_Tmap_traits<unsigned long,IData *,std::less<unsigned long>,std::allocator<std::pair<unsigned long const ,IData *> >,0> >::_Left
  00394	83 c4 04	 add	 esp, 4
  00397	8b 4d ec	 mov	 ecx, DWORD PTR __Pnode$199755[ebp]
  0039a	3b 08		 cmp	 ecx, DWORD PTR [eax]
  0039c	75 1d		 jne	 SHORT $L199766

; 972  : 						{	// rotate left child to right
; 973  : 						_Pnode = _Parent(_Pnode);

  0039e	8b 55 ec	 mov	 edx, DWORD PTR __Pnode$199755[ebp]
  003a1	52		 push	 edx
  003a2	e8 00 00 00 00	 call	 ?_Parent@?$_Tree@V?$_Tmap_traits@KPAVIData@@U?$less@K@std@@V?$allocator@U?$pair@$$CBKPAVIData@@@std@@@3@$0A@@std@@@std@@KAAAPAU_Node@?$_Tree_nod@V?$_Tmap_traits@KPAVIData@@U?$less@K@std@@V?$allocator@U?$pair@$$CBKPAVIData@@@std@@@3@$0A@@std@@@2@PAU342@@Z ; std::_Tree<std::_Tmap_traits<unsigned long,IData *,std::less<unsigned long>,std::allocator<std::pair<unsigned long const ,IData *> >,0> >::_Parent
  003a7	83 c4 04	 add	 esp, 4
  003aa	8b 00		 mov	 eax, DWORD PTR [eax]
  003ac	89 45 ec	 mov	 DWORD PTR __Pnode$199755[ebp], eax

; 974  : 						_Rrotate(_Pnode);

  003af	8b 4d ec	 mov	 ecx, DWORD PTR __Pnode$199755[ebp]
  003b2	51		 push	 ecx
  003b3	8b 4d a4	 mov	 ecx, DWORD PTR _this$[ebp]
  003b6	e8 00 00 00 00	 call	 ?_Rrotate@?$_Tree@V?$_Tmap_traits@KPAVIData@@U?$less@K@std@@V?$allocator@U?$pair@$$CBKPAVIData@@@std@@@3@$0A@@std@@@std@@IAEXPAU_Node@?$_Tree_nod@V?$_Tmap_traits@KPAVIData@@U?$less@K@std@@V?$allocator@U?$pair@$$CBKPAVIData@@@std@@@3@$0A@@std@@@2@@Z ; std::_Tree<std::_Tmap_traits<unsigned long,IData *,std::less<unsigned long>,std::allocator<std::pair<unsigned long const ,IData *> >,0> >::_Rrotate
$L199766:

; 975  : 						}
; 976  : 					_Color(_Parent(_Pnode)) = _Black;	// propagate red up

  003bb	8b 55 ec	 mov	 edx, DWORD PTR __Pnode$199755[ebp]
  003be	52		 push	 edx
  003bf	e8 00 00 00 00	 call	 ?_Parent@?$_Tree@V?$_Tmap_traits@KPAVIData@@U?$less@K@std@@V?$allocator@U?$pair@$$CBKPAVIData@@@std@@@3@$0A@@std@@@std@@KAAAPAU_Node@?$_Tree_nod@V?$_Tmap_traits@KPAVIData@@U?$less@K@std@@V?$allocator@U?$pair@$$CBKPAVIData@@@std@@@3@$0A@@std@@@2@PAU342@@Z ; std::_Tree<std::_Tmap_traits<unsigned long,IData *,std::less<unsigned long>,std::allocator<std::pair<unsigned long const ,IData *> >,0> >::_Parent
  003c4	83 c4 04	 add	 esp, 4
  003c7	8b 00		 mov	 eax, DWORD PTR [eax]
  003c9	50		 push	 eax
  003ca	e8 00 00 00 00	 call	 ?_Color@?$_Tree@V?$_Tmap_traits@KPAVIData@@U?$less@K@std@@V?$allocator@U?$pair@$$CBKPAVIData@@@std@@@3@$0A@@std@@@std@@KAAADPAU_Node@?$_Tree_nod@V?$_Tmap_traits@KPAVIData@@U?$less@K@std@@V?$allocator@U?$pair@$$CBKPAVIData@@@std@@@3@$0A@@std@@@2@@Z ; std::_Tree<std::_Tmap_traits<unsigned long,IData *,std::less<unsigned long>,std::allocator<std::pair<unsigned long const ,IData *> >,0> >::_Color
  003cf	83 c4 04	 add	 esp, 4
  003d2	c6 00 01	 mov	 BYTE PTR [eax], 1

; 977  : 					_Color(_Parent(_Parent(_Pnode))) = _Red;

  003d5	8b 4d ec	 mov	 ecx, DWORD PTR __Pnode$199755[ebp]
  003d8	51		 push	 ecx
  003d9	e8 00 00 00 00	 call	 ?_Parent@?$_Tree@V?$_Tmap_traits@KPAVIData@@U?$less@K@std@@V?$allocator@U?$pair@$$CBKPAVIData@@@std@@@3@$0A@@std@@@std@@KAAAPAU_Node@?$_Tree_nod@V?$_Tmap_traits@KPAVIData@@U?$less@K@std@@V?$allocator@U?$pair@$$CBKPAVIData@@@std@@@3@$0A@@std@@@2@PAU342@@Z ; std::_Tree<std::_Tmap_traits<unsigned long,IData *,std::less<unsigned long>,std::allocator<std::pair<unsigned long const ,IData *> >,0> >::_Parent
  003de	83 c4 04	 add	 esp, 4
  003e1	8b 10		 mov	 edx, DWORD PTR [eax]
  003e3	52		 push	 edx
  003e4	e8 00 00 00 00	 call	 ?_Parent@?$_Tree@V?$_Tmap_traits@KPAVIData@@U?$less@K@std@@V?$allocator@U?$pair@$$CBKPAVIData@@@std@@@3@$0A@@std@@@std@@KAAAPAU_Node@?$_Tree_nod@V?$_Tmap_traits@KPAVIData@@U?$less@K@std@@V?$allocator@U?$pair@$$CBKPAVIData@@@std@@@3@$0A@@std@@@2@PAU342@@Z ; std::_Tree<std::_Tmap_traits<unsigned long,IData *,std::less<unsigned long>,std::allocator<std::pair<unsigned long const ,IData *> >,0> >::_Parent
  003e9	83 c4 04	 add	 esp, 4
  003ec	8b 00		 mov	 eax, DWORD PTR [eax]
  003ee	50		 push	 eax
  003ef	e8 00 00 00 00	 call	 ?_Color@?$_Tree@V?$_Tmap_traits@KPAVIData@@U?$less@K@std@@V?$allocator@U?$pair@$$CBKPAVIData@@@std@@@3@$0A@@std@@@std@@KAAADPAU_Node@?$_Tree_nod@V?$_Tmap_traits@KPAVIData@@U?$less@K@std@@V?$allocator@U?$pair@$$CBKPAVIData@@@std@@@3@$0A@@std@@@2@@Z ; std::_Tree<std::_Tmap_traits<unsigned long,IData *,std::less<unsigned long>,std::allocator<std::pair<unsigned long const ,IData *> >,0> >::_Color
  003f4	83 c4 04	 add	 esp, 4
  003f7	c6 00 00	 mov	 BYTE PTR [eax], 0

; 978  : 					_Lrotate(_Parent(_Parent(_Pnode)));

  003fa	8b 4d ec	 mov	 ecx, DWORD PTR __Pnode$199755[ebp]
  003fd	51		 push	 ecx
  003fe	e8 00 00 00 00	 call	 ?_Parent@?$_Tree@V?$_Tmap_traits@KPAVIData@@U?$less@K@std@@V?$allocator@U?$pair@$$CBKPAVIData@@@std@@@3@$0A@@std@@@std@@KAAAPAU_Node@?$_Tree_nod@V?$_Tmap_traits@KPAVIData@@U?$less@K@std@@V?$allocator@U?$pair@$$CBKPAVIData@@@std@@@3@$0A@@std@@@2@PAU342@@Z ; std::_Tree<std::_Tmap_traits<unsigned long,IData *,std::less<unsigned long>,std::allocator<std::pair<unsigned long const ,IData *> >,0> >::_Parent
  00403	83 c4 04	 add	 esp, 4
  00406	8b 10		 mov	 edx, DWORD PTR [eax]
  00408	52		 push	 edx
  00409	e8 00 00 00 00	 call	 ?_Parent@?$_Tree@V?$_Tmap_traits@KPAVIData@@U?$less@K@std@@V?$allocator@U?$pair@$$CBKPAVIData@@@std@@@3@$0A@@std@@@std@@KAAAPAU_Node@?$_Tree_nod@V?$_Tmap_traits@KPAVIData@@U?$less@K@std@@V?$allocator@U?$pair@$$CBKPAVIData@@@std@@@3@$0A@@std@@@2@PAU342@@Z ; std::_Tree<std::_Tmap_traits<unsigned long,IData *,std::less<unsigned long>,std::allocator<std::pair<unsigned long const ,IData *> >,0> >::_Parent
  0040e	83 c4 04	 add	 esp, 4
  00411	8b 00		 mov	 eax, DWORD PTR [eax]
  00413	50		 push	 eax
  00414	8b 4d a4	 mov	 ecx, DWORD PTR _this$[ebp]
  00417	e8 00 00 00 00	 call	 ?_Lrotate@?$_Tree@V?$_Tmap_traits@KPAVIData@@U?$less@K@std@@V?$allocator@U?$pair@$$CBKPAVIData@@@std@@@3@$0A@@std@@@std@@IAEXPAU_Node@?$_Tree_nod@V?$_Tmap_traits@KPAVIData@@U?$less@K@std@@V?$allocator@U?$pair@$$CBKPAVIData@@@std@@@3@$0A@@std@@@2@@Z ; std::_Tree<std::_Tmap_traits<unsigned long,IData *,std::less<unsigned long>,std::allocator<std::pair<unsigned long const ,IData *> >,0> >::_Lrotate
$L199763:

; 979  : 					}
; 980  : 				}

  0041c	e9 10 fd ff ff	 jmp	 $L199757
$L199758:

; 981  : 
; 982  : 		_Color(_Root()) = _Black;	// root is always black

  00421	8b 4d a4	 mov	 ecx, DWORD PTR _this$[ebp]
  00424	e8 00 00 00 00	 call	 ?_Root@?$_Tree@V?$_Tmap_traits@KPAVIData@@U?$less@K@std@@V?$allocator@U?$pair@$$CBKPAVIData@@@std@@@3@$0A@@std@@@std@@IAEAAPAU_Node@?$_Tree_nod@V?$_Tmap_traits@KPAVIData@@U?$less@K@std@@V?$allocator@U?$pair@$$CBKPAVIData@@@std@@@3@$0A@@std@@@2@XZ ; std::_Tree<std::_Tmap_traits<unsigned long,IData *,std::less<unsigned long>,std::allocator<std::pair<unsigned long const ,IData *> >,0> >::_Root
  00429	8b 08		 mov	 ecx, DWORD PTR [eax]
  0042b	51		 push	 ecx
  0042c	e8 00 00 00 00	 call	 ?_Color@?$_Tree@V?$_Tmap_traits@KPAVIData@@U?$less@K@std@@V?$allocator@U?$pair@$$CBKPAVIData@@@std@@@3@$0A@@std@@@std@@KAAADPAU_Node@?$_Tree_nod@V?$_Tmap_traits@KPAVIData@@U?$less@K@std@@V?$allocator@U?$pair@$$CBKPAVIData@@@std@@@3@$0A@@std@@@2@@Z ; std::_Tree<std::_Tmap_traits<unsigned long,IData *,std::less<unsigned long>,std::allocator<std::pair<unsigned long const ,IData *> >,0> >::_Color
  00431	83 c4 04	 add	 esp, 4
  00434	c6 00 01	 mov	 BYTE PTR [eax], 1

; 983  : 		return (_TREE_ITERATOR(_Newnode));

  00437	8b 55 f0	 mov	 edx, DWORD PTR __Newnode$[ebp]
  0043a	52		 push	 edx
  0043b	8b 4d 08	 mov	 ecx, DWORD PTR ___$ReturnUdt$[ebp]
  0043e	e8 00 00 00 00	 call	 ??0iterator@?$_Tree@V?$_Tmap_traits@KPAVIData@@U?$less@K@std@@V?$allocator@U?$pair@$$CBKPAVIData@@@std@@@3@$0A@@std@@@std@@QAE@PAU_Node@?$_Tree_nod@V?$_Tmap_traits@KPAVIData@@U?$less@K@std@@V?$allocator@U?$pair@$$CBKPAVIData@@@std@@@3@$0A@@std@@@2@@Z ; std::_Tree<std::_Tmap_traits<unsigned long,IData *,std::less<unsigned long>,std::allocator<std::pair<unsigned long const ,IData *> >,0> >::iterator::iterator
  00443	8b 45 08	 mov	 eax, DWORD PTR ___$ReturnUdt$[ebp]
$L200694:

; 984  : 		}

  00446	8b 4d f4	 mov	 ecx, DWORD PTR __$EHRec$[ebp]
  00449	64 89 0d 00 00
	00 00		 mov	 DWORD PTR fs:__except_list, ecx
  00450	5e		 pop	 esi
  00451	8b e5		 mov	 esp, ebp
  00453	5d		 pop	 ebp
  00454	c2 10 00	 ret	 16			; 00000010H
_TEXT	ENDS
;	COMDAT text$x
text$x	SEGMENT
$L200697:
  00000	8d 4d a8	 lea	 ecx, DWORD PTR $T200696[ebp]
  00003	ff 25 00 00 00
	00		 jmp	 DWORD PTR __imp_??1?$basic_string@DU?$char_traits@D@std@@V?$allocator@D@2@@std@@QAE@XZ
__ehhandler$?_Insert@?$_Tree@V?$_Tmap_traits@KPAVIData@@U?$less@K@std@@V?$allocator@U?$pair@$$CBKPAVIData@@@std@@@3@$0A@@std@@@std@@IAE?AViterator@12@_NPAU_Node@?$_Tree_nod@V?$_Tmap_traits@KPAVIData@@U?$less@K@std@@V?$allocator@U?$pair@$$CBKPAVIData@@@std@@@3@$0A@@std@@@2@ABU?$pair@$$CBKPAVIData@@@2@@Z:
  00009	b8 00 00 00 00	 mov	 eax, OFFSET FLAT:$T200699
  0000e	e9 00 00 00 00	 jmp	 ___CxxFrameHandler
text$x	ENDS
?_Insert@?$_Tree@V?$_Tmap_traits@KPAVIData@@U?$less@K@std@@V?$allocator@U?$pair@$$CBKPAVIData@@@std@@@3@$0A@@std@@@std@@IAE?AViterator@12@_NPAU_Node@?$_Tree_nod@V?$_Tmap_traits@KPAVIData@@U?$less@K@std@@V?$allocator@U?$pair@$$CBKPAVIData@@@std@@@3@$0A@@std@@@2@ABU?$pair@$$CBKPAVIData@@@2@@Z ENDP ; std::_Tree<std::_Tmap_traits<unsigned long,IData *,std::less<unsigned long>,std::allocator<std::pair<unsigned long const ,IData *> >,0> >::_Insert
PUBLIC	?_Root@?$_Tree@V?$_Tmap_traits@KPAVIData@@U?$less@K@std@@V?$allocator@U?$pair@$$CBKPAVIData@@@std@@@3@$0A@@std@@@std@@IBEAAPAU_Node@?$_Tree_nod@V?$_Tmap_traits@KPAVIData@@U?$less@K@std@@V?$allocator@U?$pair@$$CBKPAVIData@@@std@@@3@$0A@@std@@@2@XZ ; std::_Tree<std::_Tmap_traits<unsigned long,IData *,std::less<unsigned long>,std::allocator<std::pair<unsigned long const ,IData *> >,0> >::_Root
; Function compile flags: /Odt
;	COMDAT ?_Lbound@?$_Tree@V?$_Tmap_traits@KPAVIData@@U?$less@K@std@@V?$allocator@U?$pair@$$CBKPAVIData@@@std@@@3@$0A@@std@@@std@@IBEPAU_Node@?$_Tree_nod@V?$_Tmap_traits@KPAVIData@@U?$less@K@std@@V?$allocator@U?$pair@$$CBKPAVIData@@@std@@@3@$0A@@std@@@2@ABK@Z
_TEXT	SEGMENT
_this$ = -12						; size = 4
__Pnode$ = -8						; size = 4
__Wherenode$ = -4					; size = 4
__Keyval$ = 8						; size = 4
?_Lbound@?$_Tree@V?$_Tmap_traits@KPAVIData@@U?$less@K@std@@V?$allocator@U?$pair@$$CBKPAVIData@@@std@@@3@$0A@@std@@@std@@IBEPAU_Node@?$_Tree_nod@V?$_Tmap_traits@KPAVIData@@U?$less@K@std@@V?$allocator@U?$pair@$$CBKPAVIData@@@std@@@3@$0A@@std@@@2@ABK@Z PROC NEAR ; std::_Tree<std::_Tmap_traits<unsigned long,IData *,std::less<unsigned long>,std::allocator<std::pair<unsigned long const ,IData *> >,0> >::_Lbound, COMDAT
; _this$ = ecx

; 987  : 		{	// find leftmost node not less than _Keyval

  00000	55		 push	 ebp
  00001	8b ec		 mov	 ebp, esp
  00003	83 ec 0c	 sub	 esp, 12			; 0000000cH
  00006	89 4d f4	 mov	 DWORD PTR _this$[ebp], ecx

; 988  : 		_Nodeptr _Pnode = _Root();

  00009	8b 4d f4	 mov	 ecx, DWORD PTR _this$[ebp]
  0000c	e8 00 00 00 00	 call	 ?_Root@?$_Tree@V?$_Tmap_traits@KPAVIData@@U?$less@K@std@@V?$allocator@U?$pair@$$CBKPAVIData@@@std@@@3@$0A@@std@@@std@@IBEAAPAU_Node@?$_Tree_nod@V?$_Tmap_traits@KPAVIData@@U?$less@K@std@@V?$allocator@U?$pair@$$CBKPAVIData@@@std@@@3@$0A@@std@@@2@XZ ; std::_Tree<std::_Tmap_traits<unsigned long,IData *,std::less<unsigned long>,std::allocator<std::pair<unsigned long const ,IData *> >,0> >::_Root
  00011	8b 00		 mov	 eax, DWORD PTR [eax]
  00013	89 45 f8	 mov	 DWORD PTR __Pnode$[ebp], eax

; 989  : 		_Nodeptr _Wherenode = _Myhead;	// end() if search fails

  00016	8b 4d f4	 mov	 ecx, DWORD PTR _this$[ebp]
  00019	8b 51 04	 mov	 edx, DWORD PTR [ecx+4]
  0001c	89 55 fc	 mov	 DWORD PTR __Wherenode$[ebp], edx
$L199773:

; 990  : 
; 991  : 		while (!_Isnil(_Pnode))

  0001f	8b 45 f8	 mov	 eax, DWORD PTR __Pnode$[ebp]
  00022	50		 push	 eax
  00023	e8 00 00 00 00	 call	 ?_Isnil@?$_Tree@V?$_Tmap_traits@KPAVIData@@U?$less@K@std@@V?$allocator@U?$pair@$$CBKPAVIData@@@std@@@3@$0A@@std@@@std@@KAAADPAU_Node@?$_Tree_nod@V?$_Tmap_traits@KPAVIData@@U?$less@K@std@@V?$allocator@U?$pair@$$CBKPAVIData@@@std@@@3@$0A@@std@@@2@@Z ; std::_Tree<std::_Tmap_traits<unsigned long,IData *,std::less<unsigned long>,std::allocator<std::pair<unsigned long const ,IData *> >,0> >::_Isnil
  00028	83 c4 04	 add	 esp, 4
  0002b	0f be 08	 movsx	 ecx, BYTE PTR [eax]
  0002e	85 c9		 test	 ecx, ecx
  00030	75 4c		 jne	 SHORT $L199774

; 992  : 			if (this->comp(_Key(_Pnode), _Keyval))

  00032	8b 55 08	 mov	 edx, DWORD PTR __Keyval$[ebp]
  00035	52		 push	 edx
  00036	8b 45 f8	 mov	 eax, DWORD PTR __Pnode$[ebp]
  00039	50		 push	 eax
  0003a	e8 00 00 00 00	 call	 ?_Key@?$_Tree@V?$_Tmap_traits@KPAVIData@@U?$less@K@std@@V?$allocator@U?$pair@$$CBKPAVIData@@@std@@@3@$0A@@std@@@std@@KAABKPAU_Node@?$_Tree_nod@V?$_Tmap_traits@KPAVIData@@U?$less@K@std@@V?$allocator@U?$pair@$$CBKPAVIData@@@std@@@3@$0A@@std@@@2@@Z ; std::_Tree<std::_Tmap_traits<unsigned long,IData *,std::less<unsigned long>,std::allocator<std::pair<unsigned long const ,IData *> >,0> >::_Key
  0003f	83 c4 04	 add	 esp, 4
  00042	50		 push	 eax
  00043	8b 4d f4	 mov	 ecx, DWORD PTR _this$[ebp]
  00046	e8 00 00 00 00	 call	 ??R?$less@K@std@@QBE_NABK0@Z ; std::less<unsigned long>::operator()
  0004b	0f b6 c8	 movzx	 ecx, al
  0004e	85 c9		 test	 ecx, ecx
  00050	74 13		 je	 SHORT $L199775

; 993  : 				_Pnode = _Right(_Pnode);	// descend right subtree

  00052	8b 55 f8	 mov	 edx, DWORD PTR __Pnode$[ebp]
  00055	52		 push	 edx
  00056	e8 00 00 00 00	 call	 ?_Right@?$_Tree@V?$_Tmap_traits@KPAVIData@@U?$less@K@std@@V?$allocator@U?$pair@$$CBKPAVIData@@@std@@@3@$0A@@std@@@std@@KAAAPAU_Node@?$_Tree_nod@V?$_Tmap_traits@KPAVIData@@U?$less@K@std@@V?$allocator@U?$pair@$$CBKPAVIData@@@std@@@3@$0A@@std@@@2@PAU342@@Z ; std::_Tree<std::_Tmap_traits<unsigned long,IData *,std::less<unsigned long>,std::allocator<std::pair<unsigned long const ,IData *> >,0> >::_Right
  0005b	83 c4 04	 add	 esp, 4
  0005e	8b 00		 mov	 eax, DWORD PTR [eax]
  00060	89 45 f8	 mov	 DWORD PTR __Pnode$[ebp], eax

; 994  : 			else

  00063	eb 17		 jmp	 SHORT $L199776
$L199775:

; 995  : 				{	// _Pnode not less than _Keyval, remember it
; 996  : 				_Wherenode = _Pnode;

  00065	8b 4d f8	 mov	 ecx, DWORD PTR __Pnode$[ebp]
  00068	89 4d fc	 mov	 DWORD PTR __Wherenode$[ebp], ecx

; 997  : 				_Pnode = _Left(_Pnode);	// descend left subtree

  0006b	8b 55 f8	 mov	 edx, DWORD PTR __Pnode$[ebp]
  0006e	52		 push	 edx
  0006f	e8 00 00 00 00	 call	 ?_Left@?$_Tree@V?$_Tmap_traits@KPAVIData@@U?$less@K@std@@V?$allocator@U?$pair@$$CBKPAVIData@@@std@@@3@$0A@@std@@@std@@KAAAPAU_Node@?$_Tree_nod@V?$_Tmap_traits@KPAVIData@@U?$less@K@std@@V?$allocator@U?$pair@$$CBKPAVIData@@@std@@@3@$0A@@std@@@2@PAU342@@Z ; std::_Tree<std::_Tmap_traits<unsigned long,IData *,std::less<unsigned long>,std::allocator<std::pair<unsigned long const ,IData *> >,0> >::_Left
  00074	83 c4 04	 add	 esp, 4
  00077	8b 00		 mov	 eax, DWORD PTR [eax]
  00079	89 45 f8	 mov	 DWORD PTR __Pnode$[ebp], eax
$L199776:

; 998  : 				}

  0007c	eb a1		 jmp	 SHORT $L199773
$L199774:

; 999  : 
; 1000 : 		return (_Wherenode);	// return best remembered candidate

  0007e	8b 45 fc	 mov	 eax, DWORD PTR __Wherenode$[ebp]

; 1001 : 		}

  00081	8b e5		 mov	 esp, ebp
  00083	5d		 pop	 ebp
  00084	c2 04 00	 ret	 4
?_Lbound@?$_Tree@V?$_Tmap_traits@KPAVIData@@U?$less@K@std@@V?$allocator@U?$pair@$$CBKPAVIData@@@std@@@3@$0A@@std@@@std@@IBEPAU_Node@?$_Tree_nod@V?$_Tmap_traits@KPAVIData@@U?$less@K@std@@V?$allocator@U?$pair@$$CBKPAVIData@@@std@@@3@$0A@@std@@@2@ABK@Z ENDP ; std::_Tree<std::_Tmap_traits<unsigned long,IData *,std::less<unsigned long>,std::allocator<std::pair<unsigned long const ,IData *> >,0> >::_Lbound
_TEXT	ENDS
PUBLIC	??0?$_Tree_ptr@V?$_Tmap_traits@KPAVIData@@U?$less@K@std@@V?$allocator@U?$pair@$$CBKPAVIData@@@std@@@3@$0A@@std@@@std@@IAE@ABU?$less@K@1@V?$allocator@U?$pair@$$CBKPAVIData@@@std@@@1@@Z ; std::_Tree_ptr<std::_Tmap_traits<unsigned long,IData *,std::less<unsigned long>,std::allocator<std::pair<unsigned long const ,IData *> >,0> >::_Tree_ptr<std::_Tmap_traits<unsigned long,IData *,std::less<unsigned long>,std::allocator<std::pair<unsigned long const ,IData *> >,0> >
; Function compile flags: /Odt
;	COMDAT ??0?$_Tree_val@V?$_Tmap_traits@KPAVIData@@U?$less@K@std@@V?$allocator@U?$pair@$$CBKPAVIData@@@std@@@3@$0A@@std@@@std@@IAE@ABU?$less@K@1@V?$allocator@U?$pair@$$CBKPAVIData@@@std@@@1@@Z
_TEXT	SEGMENT
_this$ = -8						; size = 4
__Parg$ = 8						; size = 4
__Al$ = 12						; size = 1
??0?$_Tree_val@V?$_Tmap_traits@KPAVIData@@U?$less@K@std@@V?$allocator@U?$pair@$$CBKPAVIData@@@std@@@3@$0A@@std@@@std@@IAE@ABU?$less@K@1@V?$allocator@U?$pair@$$CBKPAVIData@@@std@@@1@@Z PROC NEAR ; std::_Tree_val<std::_Tmap_traits<unsigned long,IData *,std::less<unsigned long>,std::allocator<std::pair<unsigned long const ,IData *> >,0> >::_Tree_val<std::_Tmap_traits<unsigned long,IData *,std::less<unsigned long>,std::allocator<std::pair<unsigned long const ,IData *> >,0> >, COMDAT
; _this$ = ecx

; 95   : 		{	// construct base, and allocator from _Al

  00000	55		 push	 ebp
  00001	8b ec		 mov	 ebp, esp
  00003	83 ec 08	 sub	 esp, 8
  00006	89 4d f8	 mov	 DWORD PTR _this$[ebp], ecx
  00009	51		 push	 ecx
  0000a	8b cc		 mov	 ecx, esp
  0000c	8d 45 0c	 lea	 eax, DWORD PTR __Al$[ebp]
  0000f	50		 push	 eax
  00010	e8 00 00 00 00	 call	 ??0?$allocator@U?$pair@$$CBKPAVIData@@@std@@@std@@QAE@ABV01@@Z ; std::allocator<std::pair<unsigned long const ,IData *> >::allocator<std::pair<unsigned long const ,IData *> >
  00015	8b 4d 08	 mov	 ecx, DWORD PTR __Parg$[ebp]
  00018	51		 push	 ecx
  00019	8b 4d f8	 mov	 ecx, DWORD PTR _this$[ebp]
  0001c	e8 00 00 00 00	 call	 ??0?$_Tree_ptr@V?$_Tmap_traits@KPAVIData@@U?$less@K@std@@V?$allocator@U?$pair@$$CBKPAVIData@@@std@@@3@$0A@@std@@@std@@IAE@ABU?$less@K@1@V?$allocator@U?$pair@$$CBKPAVIData@@@std@@@1@@Z ; std::_Tree_ptr<std::_Tmap_traits<unsigned long,IData *,std::less<unsigned long>,std::allocator<std::pair<unsigned long const ,IData *> >,0> >::_Tree_ptr<std::_Tmap_traits<unsigned long,IData *,std::less<unsigned long>,std::allocator<std::pair<unsigned long const ,IData *> >,0> >
  00021	8d 55 0c	 lea	 edx, DWORD PTR __Al$[ebp]
  00024	52		 push	 edx
  00025	8b 4d f8	 mov	 ecx, DWORD PTR _this$[ebp]
  00028	83 c1 03	 add	 ecx, 3
  0002b	e8 00 00 00 00	 call	 ??0?$allocator@U?$pair@$$CBKPAVIData@@@std@@@std@@QAE@ABV01@@Z ; std::allocator<std::pair<unsigned long const ,IData *> >::allocator<std::pair<unsigned long const ,IData *> >

; 96   : 		}

  00030	8b 45 f8	 mov	 eax, DWORD PTR _this$[ebp]
  00033	8b e5		 mov	 esp, ebp
  00035	5d		 pop	 ebp
  00036	c2 08 00	 ret	 8
??0?$_Tree_val@V?$_Tmap_traits@KPAVIData@@U?$less@K@std@@V?$allocator@U?$pair@$$CBKPAVIData@@@std@@@3@$0A@@std@@@std@@IAE@ABU?$less@K@1@V?$allocator@U?$pair@$$CBKPAVIData@@@std@@@1@@Z ENDP ; std::_Tree_val<std::_Tmap_traits<unsigned long,IData *,std::less<unsigned long>,std::allocator<std::pair<unsigned long const ,IData *> >,0> >::_Tree_val<std::_Tmap_traits<unsigned long,IData *,std::less<unsigned long>,std::allocator<std::pair<unsigned long const ,IData *> >,0> >
; Function compile flags: /Odt
; File d:\program files (x86)\microsoft visual studio .net 2003\vc7\include\map
_TEXT	ENDS
;	COMDAT ?_Kfn@?$_Tmap_traits@KPAVIData@@U?$less@K@std@@V?$allocator@U?$pair@$$CBKPAVIData@@@std@@@3@$0A@@std@@SAABKABU?$pair@$$CBKPAVIData@@@2@@Z
_TEXT	SEGMENT
__Val$ = 8						; size = 4
?_Kfn@?$_Tmap_traits@KPAVIData@@U?$less@K@std@@V?$allocator@U?$pair@$$CBKPAVIData@@@std@@@3@$0A@@std@@SAABKABU?$pair@$$CBKPAVIData@@@2@@Z PROC NEAR ; std::_Tmap_traits<unsigned long,IData *,std::less<unsigned long>,std::allocator<std::pair<unsigned long const ,IData *> >,0>::_Kfn, COMDAT

; 63   : 		{	// extract key from element value

  00000	55		 push	 ebp
  00001	8b ec		 mov	 ebp, esp

; 64   : 		return (_Val.first);

  00003	8b 45 08	 mov	 eax, DWORD PTR __Val$[ebp]

; 65   : 		}

  00006	5d		 pop	 ebp
  00007	c3		 ret	 0
?_Kfn@?$_Tmap_traits@KPAVIData@@U?$less@K@std@@V?$allocator@U?$pair@$$CBKPAVIData@@@std@@@3@$0A@@std@@SAABKABU?$pair@$$CBKPAVIData@@@2@@Z ENDP ; std::_Tmap_traits<unsigned long,IData *,std::less<unsigned long>,std::allocator<std::pair<unsigned long const ,IData *> >,0>::_Kfn
; Function compile flags: /Odt
; File d:\program files (x86)\microsoft visual studio .net 2003\vc7\include\xmemory
_TEXT	ENDS
;	COMDAT ??0?$allocator@U?$pair@$$CBKPAVIData@@@std@@@std@@QAE@ABV01@@Z
_TEXT	SEGMENT
_this$ = -4						; size = 4
___formal$ = 8						; size = 4
??0?$allocator@U?$pair@$$CBKPAVIData@@@std@@@std@@QAE@ABV01@@Z PROC NEAR ; std::allocator<std::pair<unsigned long const ,IData *> >::allocator<std::pair<unsigned long const ,IData *> >, COMDAT
; _this$ = ecx

; 115  : 	allocator(const allocator<_Ty>&)

  00000	55		 push	 ebp
  00001	8b ec		 mov	 ebp, esp
  00003	51		 push	 ecx
  00004	89 4d fc	 mov	 DWORD PTR _this$[ebp], ecx

; 116  : 		{	// construct by copying (do nothing)
; 117  : 		}

  00007	8b 45 fc	 mov	 eax, DWORD PTR _this$[ebp]
  0000a	8b e5		 mov	 esp, ebp
  0000c	5d		 pop	 ebp
  0000d	c2 04 00	 ret	 4
??0?$allocator@U?$pair@$$CBKPAVIData@@@std@@@std@@QAE@ABV01@@Z ENDP ; std::allocator<std::pair<unsigned long const ,IData *> >::allocator<std::pair<unsigned long const ,IData *> >
; Function compile flags: /Odt
_TEXT	ENDS
;	COMDAT ?deallocate@?$allocator@U_Node@?$_Tree_nod@V?$_Tmap_traits@KPAVIData@@U?$less@K@std@@V?$allocator@U?$pair@$$CBKPAVIData@@@std@@@3@$0A@@std@@@std@@@std@@QAEXPAU_Node@?$_Tree_nod@V?$_Tmap_traits@KPAVIData@@U?$less@K@std@@V?$allocator@U?$pair@$$CBKPAVIData@@@std@@@3@$0A@@std@@@2@I@Z
_TEXT	SEGMENT
_this$ = -4						; size = 4
__Ptr$ = 8						; size = 4
___formal$ = 12						; size = 4
?deallocate@?$allocator@U_Node@?$_Tree_nod@V?$_Tmap_traits@KPAVIData@@U?$less@K@std@@V?$allocator@U?$pair@$$CBKPAVIData@@@std@@@3@$0A@@std@@@std@@@std@@QAEXPAU_Node@?$_Tree_nod@V?$_Tmap_traits@KPAVIData@@U?$less@K@std@@V?$allocator@U?$pair@$$CBKPAVIData@@@std@@@3@$0A@@std@@@2@I@Z PROC NEAR ; std::allocator<std::_Tree_nod<std::_Tmap_traits<unsigned long,IData *,std::less<unsigned long>,std::allocator<std::pair<unsigned long const ,IData *> >,0> >::_Node>::deallocate, COMDAT
; _this$ = ecx

; 131  : 		{	// deallocate object at _Ptr, ignore size

  00000	55		 push	 ebp
  00001	8b ec		 mov	 ebp, esp
  00003	51		 push	 ecx
  00004	89 4d fc	 mov	 DWORD PTR _this$[ebp], ecx

; 132  : 		operator delete(_Ptr);

  00007	8b 45 08	 mov	 eax, DWORD PTR __Ptr$[ebp]
  0000a	50		 push	 eax
  0000b	e8 00 00 00 00	 call	 ??3@YAXPAX@Z		; operator delete
  00010	83 c4 04	 add	 esp, 4

; 133  : 		}

  00013	8b e5		 mov	 esp, ebp
  00015	5d		 pop	 ebp
  00016	c2 08 00	 ret	 8
?deallocate@?$allocator@U_Node@?$_Tree_nod@V?$_Tmap_traits@KPAVIData@@U?$less@K@std@@V?$allocator@U?$pair@$$CBKPAVIData@@@std@@@3@$0A@@std@@@std@@@std@@QAEXPAU_Node@?$_Tree_nod@V?$_Tmap_traits@KPAVIData@@U?$less@K@std@@V?$allocator@U?$pair@$$CBKPAVIData@@@std@@@3@$0A@@std@@@2@I@Z ENDP ; std::allocator<std::_Tree_nod<std::_Tmap_traits<unsigned long,IData *,std::less<unsigned long>,std::allocator<std::pair<unsigned long const ,IData *> >,0> >::_Node>::deallocate
_TEXT	ENDS
PUBLIC	??$_Destroy@U_Node@?$_Tree_nod@V?$_Tmap_traits@KPAVIData@@U?$less@K@std@@V?$allocator@U?$pair@$$CBKPAVIData@@@std@@@3@$0A@@std@@@std@@@std@@YAXPAU_Node@?$_Tree_nod@V?$_Tmap_traits@KPAVIData@@U?$less@K@std@@V?$allocator@U?$pair@$$CBKPAVIData@@@std@@@3@$0A@@std@@@0@@Z ; std::_Destroy<std::_Tree_nod<std::_Tmap_traits<unsigned long,IData *,std::less<unsigned long>,std::allocator<std::pair<unsigned long const ,IData *> >,0> >::_Node>
; Function compile flags: /Odt
;	COMDAT ?destroy@?$allocator@U_Node@?$_Tree_nod@V?$_Tmap_traits@KPAVIData@@U?$less@K@std@@V?$allocator@U?$pair@$$CBKPAVIData@@@std@@@3@$0A@@std@@@std@@@std@@QAEXPAU_Node@?$_Tree_nod@V?$_Tmap_traits@KPAVIData@@U?$less@K@std@@V?$allocator@U?$pair@$$CBKPAVIData@@@std@@@3@$0A@@std@@@2@@Z
_TEXT	SEGMENT
_this$ = -4						; size = 4
__Ptr$ = 8						; size = 4
?destroy@?$allocator@U_Node@?$_Tree_nod@V?$_Tmap_traits@KPAVIData@@U?$less@K@std@@V?$allocator@U?$pair@$$CBKPAVIData@@@std@@@3@$0A@@std@@@std@@@std@@QAEXPAU_Node@?$_Tree_nod@V?$_Tmap_traits@KPAVIData@@U?$less@K@std@@V?$allocator@U?$pair@$$CBKPAVIData@@@std@@@3@$0A@@std@@@2@@Z PROC NEAR ; std::allocator<std::_Tree_nod<std::_Tmap_traits<unsigned long,IData *,std::less<unsigned long>,std::allocator<std::pair<unsigned long const ,IData *> >,0> >::_Node>::destroy, COMDAT
; _this$ = ecx

; 151  : 		{	// destroy object at _Ptr

  00000	55		 push	 ebp
  00001	8b ec		 mov	 ebp, esp
  00003	51		 push	 ecx
  00004	89 4d fc	 mov	 DWORD PTR _this$[ebp], ecx

; 152  : 		_Destroy(_Ptr);

  00007	8b 45 08	 mov	 eax, DWORD PTR __Ptr$[ebp]
  0000a	50		 push	 eax
  0000b	e8 00 00 00 00	 call	 ??$_Destroy@U_Node@?$_Tree_nod@V?$_Tmap_traits@KPAVIData@@U?$less@K@std@@V?$allocator@U?$pair@$$CBKPAVIData@@@std@@@3@$0A@@std@@@std@@@std@@YAXPAU_Node@?$_Tree_nod@V?$_Tmap_traits@KPAVIData@@U?$less@K@std@@V?$allocator@U?$pair@$$CBKPAVIData@@@std@@@3@$0A@@std@@@0@@Z ; std::_Destroy<std::_Tree_nod<std::_Tmap_traits<unsigned long,IData *,std::less<unsigned long>,std::allocator<std::pair<unsigned long const ,IData *> >,0> >::_Node>
  00010	83 c4 04	 add	 esp, 4

; 153  : 		}

  00013	8b e5		 mov	 esp, ebp
  00015	5d		 pop	 ebp
  00016	c2 04 00	 ret	 4
?destroy@?$allocator@U_Node@?$_Tree_nod@V?$_Tmap_traits@KPAVIData@@U?$less@K@std@@V?$allocator@U?$pair@$$CBKPAVIData@@@std@@@3@$0A@@std@@@std@@@std@@QAEXPAU_Node@?$_Tree_nod@V?$_Tmap_traits@KPAVIData@@U?$less@K@std@@V?$allocator@U?$pair@$$CBKPAVIData@@@std@@@3@$0A@@std@@@2@@Z ENDP ; std::allocator<std::_Tree_nod<std::_Tmap_traits<unsigned long,IData *,std::less<unsigned long>,std::allocator<std::pair<unsigned long const ,IData *> >,0> >::_Node>::destroy
_TEXT	ENDS
PUBLIC	??$_Destroy@PAU_Node@?$_Tree_nod@V?$_Tmap_traits@KPAVIData@@U?$less@K@std@@V?$allocator@U?$pair@$$CBKPAVIData@@@std@@@3@$0A@@std@@@std@@@std@@YAXPAPAU_Node@?$_Tree_nod@V?$_Tmap_traits@KPAVIData@@U?$less@K@std@@V?$allocator@U?$pair@$$CBKPAVIData@@@std@@@3@$0A@@std@@@0@@Z ; std::_Destroy<std::_Tree_nod<std::_Tmap_traits<unsigned long,IData *,std::less<unsigned long>,std::allocator<std::pair<unsigned long const ,IData *> >,0> >::_Node *>
; Function compile flags: /Odt
;	COMDAT ?destroy@?$allocator@PAU_Node@?$_Tree_nod@V?$_Tmap_traits@KPAVIData@@U?$less@K@std@@V?$allocator@U?$pair@$$CBKPAVIData@@@std@@@3@$0A@@std@@@std@@@std@@QAEXPAPAU_Node@?$_Tree_nod@V?$_Tmap_traits@KPAVIData@@U?$less@K@std@@V?$allocator@U?$pair@$$CBKPAVIData@@@std@@@3@$0A@@std@@@2@@Z
_TEXT	SEGMENT
_this$ = -4						; size = 4
__Ptr$ = 8						; size = 4
?destroy@?$allocator@PAU_Node@?$_Tree_nod@V?$_Tmap_traits@KPAVIData@@U?$less@K@std@@V?$allocator@U?$pair@$$CBKPAVIData@@@std@@@3@$0A@@std@@@std@@@std@@QAEXPAPAU_Node@?$_Tree_nod@V?$_Tmap_traits@KPAVIData@@U?$less@K@std@@V?$allocator@U?$pair@$$CBKPAVIData@@@std@@@3@$0A@@std@@@2@@Z PROC NEAR ; std::allocator<std::_Tree_nod<std::_Tmap_traits<unsigned long,IData *,std::less<unsigned long>,std::allocator<std::pair<unsigned long const ,IData *> >,0> >::_Node *>::destroy, COMDAT
; _this$ = ecx

; 151  : 		{	// destroy object at _Ptr

  00000	55		 push	 ebp
  00001	8b ec		 mov	 ebp, esp
  00003	51		 push	 ecx
  00004	89 4d fc	 mov	 DWORD PTR _this$[ebp], ecx

; 152  : 		_Destroy(_Ptr);

  00007	8b 45 08	 mov	 eax, DWORD PTR __Ptr$[ebp]
  0000a	50		 push	 eax
  0000b	e8 00 00 00 00	 call	 ??$_Destroy@PAU_Node@?$_Tree_nod@V?$_Tmap_traits@KPAVIData@@U?$less@K@std@@V?$allocator@U?$pair@$$CBKPAVIData@@@std@@@3@$0A@@std@@@std@@@std@@YAXPAPAU_Node@?$_Tree_nod@V?$_Tmap_traits@KPAVIData@@U?$less@K@std@@V?$allocator@U?$pair@$$CBKPAVIData@@@std@@@3@$0A@@std@@@0@@Z ; std::_Destroy<std::_Tree_nod<std::_Tmap_traits<unsigned long,IData *,std::less<unsigned long>,std::allocator<std::pair<unsigned long const ,IData *> >,0> >::_Node *>
  00010	83 c4 04	 add	 esp, 4

; 153  : 		}

  00013	8b e5		 mov	 esp, ebp
  00015	5d		 pop	 ebp
  00016	c2 04 00	 ret	 4
?destroy@?$allocator@PAU_Node@?$_Tree_nod@V?$_Tmap_traits@KPAVIData@@U?$less@K@std@@V?$allocator@U?$pair@$$CBKPAVIData@@@std@@@3@$0A@@std@@@std@@@std@@QAEXPAPAU_Node@?$_Tree_nod@V?$_Tmap_traits@KPAVIData@@U?$less@K@std@@V?$allocator@U?$pair@$$CBKPAVIData@@@std@@@3@$0A@@std@@@2@@Z ENDP ; std::allocator<std::_Tree_nod<std::_Tmap_traits<unsigned long,IData *,std::less<unsigned long>,std::allocator<std::pair<unsigned long const ,IData *> >,0> >::_Node *>::destroy
_TEXT	ENDS
PUBLIC	??0const_iterator@?$_Tree@V?$_Tmap_traits@KPAVIData@@U?$less@K@std@@V?$allocator@U?$pair@$$CBKPAVIData@@@std@@@3@$0A@@std@@@std@@QAE@XZ ; std::_Tree<std::_Tmap_traits<unsigned long,IData *,std::less<unsigned long>,std::allocator<std::pair<unsigned long const ,IData *> >,0> >::const_iterator::const_iterator
; Function compile flags: /Odt
; File d:\program files (x86)\microsoft visual studio .net 2003\vc7\include\xtree
;	COMDAT ??0iterator@?$_Tree@V?$_Tmap_traits@KPAVIData@@U?$less@K@std@@V?$allocator@U?$pair@$$CBKPAVIData@@@std@@@3@$0A@@std@@@std@@QAE@XZ
_TEXT	SEGMENT
_this$ = -4						; size = 4
??0iterator@?$_Tree@V?$_Tmap_traits@KPAVIData@@U?$less@K@std@@V?$allocator@U?$pair@$$CBKPAVIData@@@std@@@3@$0A@@std@@@std@@QAE@XZ PROC NEAR ; std::_Tree<std::_Tmap_traits<unsigned long,IData *,std::less<unsigned long>,std::allocator<std::pair<unsigned long const ,IData *> >,0> >::iterator::iterator, COMDAT
; _this$ = ecx

; 304  : 		iterator()

  00000	55		 push	 ebp
  00001	8b ec		 mov	 ebp, esp
  00003	51		 push	 ecx
  00004	89 4d fc	 mov	 DWORD PTR _this$[ebp], ecx
  00007	8b 4d fc	 mov	 ecx, DWORD PTR _this$[ebp]
  0000a	e8 00 00 00 00	 call	 ??0const_iterator@?$_Tree@V?$_Tmap_traits@KPAVIData@@U?$less@K@std@@V?$allocator@U?$pair@$$CBKPAVIData@@@std@@@3@$0A@@std@@@std@@QAE@XZ ; std::_Tree<std::_Tmap_traits<unsigned long,IData *,std::less<unsigned long>,std::allocator<std::pair<unsigned long const ,IData *> >,0> >::const_iterator::const_iterator

; 305  : 			{	// construct with null node pointer
; 306  : 			}

  0000f	8b 45 fc	 mov	 eax, DWORD PTR _this$[ebp]
  00012	8b e5		 mov	 esp, ebp
  00014	5d		 pop	 ebp
  00015	c3		 ret	 0
??0iterator@?$_Tree@V?$_Tmap_traits@KPAVIData@@U?$less@K@std@@V?$allocator@U?$pair@$$CBKPAVIData@@@std@@@3@$0A@@std@@@std@@QAE@XZ ENDP ; std::_Tree<std::_Tmap_traits<unsigned long,IData *,std::less<unsigned long>,std::allocator<std::pair<unsigned long const ,IData *> >,0> >::iterator::iterator
_TEXT	ENDS
PUBLIC	??Fconst_iterator@?$_Tree@V?$_Tmap_traits@KPAVIData@@U?$less@K@std@@V?$allocator@U?$pair@$$CBKPAVIData@@@std@@@3@$0A@@std@@@std@@QAEAAV012@XZ ; std::_Tree<std::_Tmap_traits<unsigned long,IData *,std::less<unsigned long>,std::allocator<std::pair<unsigned long const ,IData *> >,0> >::const_iterator::operator--
; Function compile flags: /Odt
;	COMDAT ??Fiterator@?$_Tree@V?$_Tmap_traits@KPAVIData@@U?$less@K@std@@V?$allocator@U?$pair@$$CBKPAVIData@@@std@@@3@$0A@@std@@@std@@QAEAAV012@XZ
_TEXT	SEGMENT
_this$ = -4						; size = 4
??Fiterator@?$_Tree@V?$_Tmap_traits@KPAVIData@@U?$less@K@std@@V?$allocator@U?$pair@$$CBKPAVIData@@@std@@@3@$0A@@std@@@std@@QAEAAV012@XZ PROC NEAR ; std::_Tree<std::_Tmap_traits<unsigned long,IData *,std::less<unsigned long>,std::allocator<std::pair<unsigned long const ,IData *> >,0> >::iterator::operator--, COMDAT
; _this$ = ecx

; 339  : 			{	// predecrement

  00000	55		 push	 ebp
  00001	8b ec		 mov	 ebp, esp
  00003	51		 push	 ecx
  00004	89 4d fc	 mov	 DWORD PTR _this$[ebp], ecx

; 340  : 			--(*(const_iterator *)this);

  00007	8b 4d fc	 mov	 ecx, DWORD PTR _this$[ebp]
  0000a	e8 00 00 00 00	 call	 ??Fconst_iterator@?$_Tree@V?$_Tmap_traits@KPAVIData@@U?$less@K@std@@V?$allocator@U?$pair@$$CBKPAVIData@@@std@@@3@$0A@@std@@@std@@QAEAAV012@XZ ; std::_Tree<std::_Tmap_traits<unsigned long,IData *,std::less<unsigned long>,std::allocator<std::pair<unsigned long const ,IData *> >,0> >::const_iterator::operator--

; 341  : 			return (*this);

  0000f	8b 45 fc	 mov	 eax, DWORD PTR _this$[ebp]

; 342  : 			}

  00012	8b e5		 mov	 esp, ebp
  00014	5d		 pop	 ebp
  00015	c3		 ret	 0
??Fiterator@?$_Tree@V?$_Tmap_traits@KPAVIData@@U?$less@K@std@@V?$allocator@U?$pair@$$CBKPAVIData@@@std@@@3@$0A@@std@@@std@@QAEAAV012@XZ ENDP ; std::_Tree<std::_Tmap_traits<unsigned long,IData *,std::less<unsigned long>,std::allocator<std::pair<unsigned long const ,IData *> >,0> >::iterator::operator--
; Function compile flags: /Odt
_TEXT	ENDS
;	COMDAT ??0const_iterator@?$_Tree@V?$_Tmap_traits@KPAVIData@@U?$less@K@std@@V?$allocator@U?$pair@$$CBKPAVIData@@@std@@@3@$0A@@std@@@std@@QAE@PAU_Node@?$_Tree_nod@V?$_Tmap_traits@KPAVIData@@U?$less@K@std@@V?$allocator@U?$pair@$$CBKPAVIData@@@std@@@3@$0A@@std@@@2@@Z
_TEXT	SEGMENT
_this$ = -4						; size = 4
__Pnode$ = 8						; size = 4
??0const_iterator@?$_Tree@V?$_Tmap_traits@KPAVIData@@U?$less@K@std@@V?$allocator@U?$pair@$$CBKPAVIData@@@std@@@3@$0A@@std@@@std@@QAE@PAU_Node@?$_Tree_nod@V?$_Tmap_traits@KPAVIData@@U?$less@K@std@@V?$allocator@U?$pair@$$CBKPAVIData@@@std@@@3@$0A@@std@@@2@@Z PROC NEAR ; std::_Tree<std::_Tmap_traits<unsigned long,IData *,std::less<unsigned long>,std::allocator<std::pair<unsigned long const ,IData *> >,0> >::const_iterator::const_iterator, COMDAT
; _this$ = ecx

; 200  : 			{	// construct with node pointer _Pnode

  00000	55		 push	 ebp
  00001	8b ec		 mov	 ebp, esp
  00003	51		 push	 ecx
  00004	89 4d fc	 mov	 DWORD PTR _this$[ebp], ecx
  00007	8b 45 fc	 mov	 eax, DWORD PTR _this$[ebp]
  0000a	8b 4d 08	 mov	 ecx, DWORD PTR __Pnode$[ebp]
  0000d	89 08		 mov	 DWORD PTR [eax], ecx

; 201  : 			}

  0000f	8b 45 fc	 mov	 eax, DWORD PTR _this$[ebp]
  00012	8b e5		 mov	 esp, ebp
  00014	5d		 pop	 ebp
  00015	c2 04 00	 ret	 4
??0const_iterator@?$_Tree@V?$_Tmap_traits@KPAVIData@@U?$less@K@std@@V?$allocator@U?$pair@$$CBKPAVIData@@@std@@@3@$0A@@std@@@std@@QAE@PAU_Node@?$_Tree_nod@V?$_Tmap_traits@KPAVIData@@U?$less@K@std@@V?$allocator@U?$pair@$$CBKPAVIData@@@std@@@3@$0A@@std@@@2@@Z ENDP ; std::_Tree<std::_Tmap_traits<unsigned long,IData *,std::less<unsigned long>,std::allocator<std::pair<unsigned long const ,IData *> >,0> >::const_iterator::const_iterator
; Function compile flags: /Odt
_TEXT	ENDS
;	COMDAT ??Dconst_iterator@?$_Tree@V?$_Tmap_traits@KPAVIData@@U?$less@K@std@@V?$allocator@U?$pair@$$CBKPAVIData@@@std@@@3@$0A@@std@@@std@@QBEABU?$pair@$$CBKPAVIData@@@2@XZ
_TEXT	SEGMENT
_this$ = -4						; size = 4
??Dconst_iterator@?$_Tree@V?$_Tmap_traits@KPAVIData@@U?$less@K@std@@V?$allocator@U?$pair@$$CBKPAVIData@@@std@@@3@$0A@@std@@@std@@QBEABU?$pair@$$CBKPAVIData@@@2@XZ PROC NEAR ; std::_Tree<std::_Tmap_traits<unsigned long,IData *,std::less<unsigned long>,std::allocator<std::pair<unsigned long const ,IData *> >,0> >::const_iterator::operator*, COMDAT
; _this$ = ecx

; 204  : 			{	// return designated value

  00000	55		 push	 ebp
  00001	8b ec		 mov	 ebp, esp
  00003	51		 push	 ecx
  00004	89 4d fc	 mov	 DWORD PTR _this$[ebp], ecx

; 205  : 			return (_Myval(_Ptr));

  00007	8b 45 fc	 mov	 eax, DWORD PTR _this$[ebp]
  0000a	8b 08		 mov	 ecx, DWORD PTR [eax]
  0000c	51		 push	 ecx
  0000d	e8 00 00 00 00	 call	 ?_Myval@?$_Tree@V?$_Tmap_traits@KPAVIData@@U?$less@K@std@@V?$allocator@U?$pair@$$CBKPAVIData@@@std@@@3@$0A@@std@@@std@@KAAAU?$pair@$$CBKPAVIData@@@2@PAU_Node@?$_Tree_nod@V?$_Tmap_traits@KPAVIData@@U?$less@K@std@@V?$allocator@U?$pair@$$CBKPAVIData@@@std@@@3@$0A@@std@@@2@@Z ; std::_Tree<std::_Tmap_traits<unsigned long,IData *,std::less<unsigned long>,std::allocator<std::pair<unsigned long const ,IData *> >,0> >::_Myval
  00012	83 c4 04	 add	 esp, 4

; 206  : 			}

  00015	8b e5		 mov	 esp, ebp
  00017	5d		 pop	 ebp
  00018	c3		 ret	 0
??Dconst_iterator@?$_Tree@V?$_Tmap_traits@KPAVIData@@U?$less@K@std@@V?$allocator@U?$pair@$$CBKPAVIData@@@std@@@3@$0A@@std@@@std@@QBEABU?$pair@$$CBKPAVIData@@@2@XZ ENDP ; std::_Tree<std::_Tmap_traits<unsigned long,IData *,std::less<unsigned long>,std::allocator<std::pair<unsigned long const ,IData *> >,0> >::const_iterator::operator*
_TEXT	ENDS
PUBLIC	?_Inc@const_iterator@?$_Tree@V?$_Tmap_traits@KPAVIData@@U?$less@K@std@@V?$allocator@U?$pair@$$CBKPAVIData@@@std@@@3@$0A@@std@@@std@@QAEXXZ ; std::_Tree<std::_Tmap_traits<unsigned long,IData *,std::less<unsigned long>,std::allocator<std::pair<unsigned long const ,IData *> >,0> >::const_iterator::_Inc
; Function compile flags: /Odt
;	COMDAT ??Econst_iterator@?$_Tree@V?$_Tmap_traits@KPAVIData@@U?$less@K@std@@V?$allocator@U?$pair@$$CBKPAVIData@@@std@@@3@$0A@@std@@@std@@QAEAAV012@XZ
_TEXT	SEGMENT
_this$ = -4						; size = 4
??Econst_iterator@?$_Tree@V?$_Tmap_traits@KPAVIData@@U?$less@K@std@@V?$allocator@U?$pair@$$CBKPAVIData@@@std@@@3@$0A@@std@@@std@@QAEAAV012@XZ PROC NEAR ; std::_Tree<std::_Tmap_traits<unsigned long,IData *,std::less<unsigned long>,std::allocator<std::pair<unsigned long const ,IData *> >,0> >::const_iterator::operator++, COMDAT
; _this$ = ecx

; 214  : 			{	// preincrement

  00000	55		 push	 ebp
  00001	8b ec		 mov	 ebp, esp
  00003	51		 push	 ecx
  00004	89 4d fc	 mov	 DWORD PTR _this$[ebp], ecx

; 215  : 			_Inc();

  00007	8b 4d fc	 mov	 ecx, DWORD PTR _this$[ebp]
  0000a	e8 00 00 00 00	 call	 ?_Inc@const_iterator@?$_Tree@V?$_Tmap_traits@KPAVIData@@U?$less@K@std@@V?$allocator@U?$pair@$$CBKPAVIData@@@std@@@3@$0A@@std@@@std@@QAEXXZ ; std::_Tree<std::_Tmap_traits<unsigned long,IData *,std::less<unsigned long>,std::allocator<std::pair<unsigned long const ,IData *> >,0> >::const_iterator::_Inc

; 216  : 			return (*this);

  0000f	8b 45 fc	 mov	 eax, DWORD PTR _this$[ebp]

; 217  : 			}

  00012	8b e5		 mov	 esp, ebp
  00014	5d		 pop	 ebp
  00015	c3		 ret	 0
??Econst_iterator@?$_Tree@V?$_Tmap_traits@KPAVIData@@U?$less@K@std@@V?$allocator@U?$pair@$$CBKPAVIData@@@std@@@3@$0A@@std@@@std@@QAEAAV012@XZ ENDP ; std::_Tree<std::_Tmap_traits<unsigned long,IData *,std::less<unsigned long>,std::allocator<std::pair<unsigned long const ,IData *> >,0> >::const_iterator::operator++
; Function compile flags: /Odt
; File d:\program files (x86)\microsoft visual studio .net 2003\vc7\include\utility
_TEXT	ENDS
;	COMDAT ??0?$pair@Viterator@?$_Tree@V?$_Tmap_traits@KPAVIData@@U?$less@K@std@@V?$allocator@U?$pair@$$CBKPAVIData@@@std@@@3@$0A@@std@@@std@@V123@@std@@QAE@ABViterator@?$_Tree@V?$_Tmap_traits@KPAVIData@@U?$less@K@std@@V?$allocator@U?$pair@$$CBKPAVIData@@@std@@@3@$0A@@std@@@1@0@Z
_TEXT	SEGMENT
_this$ = -4						; size = 4
__Val1$ = 8						; size = 4
__Val2$ = 12						; size = 4
??0?$pair@Viterator@?$_Tree@V?$_Tmap_traits@KPAVIData@@U?$less@K@std@@V?$allocator@U?$pair@$$CBKPAVIData@@@std@@@3@$0A@@std@@@std@@V123@@std@@QAE@ABViterator@?$_Tree@V?$_Tmap_traits@KPAVIData@@U?$less@K@std@@V?$allocator@U?$pair@$$CBKPAVIData@@@std@@@3@$0A@@std@@@1@0@Z PROC NEAR ; std::pair<std::_Tree<std::_Tmap_traits<unsigned long,IData *,std::less<unsigned long>,std::allocator<std::pair<unsigned long const ,IData *> >,0> >::iterator,std::_Tree<std::_Tmap_traits<unsigned long,IData *,std::less<unsigned long>,std::allocator<std::pair<unsigned long const ,IData *> >,0> >::iterator>::pair<std::_Tree<std::_Tmap_traits<unsigned long,IData *,std::less<unsigned long>,std::allocator<std::pair<unsigned long const ,IData *> >,0> >::iterator,std::_Tree<std::_Tmap_traits<unsigned long,IData *,std::less<unsigned long>,std::allocator<std::pair<unsigned long const ,IData *> >,0> >::iterator>, COMDAT
; _this$ = ecx

; 34   : 		{	// construct from specified values

  00000	55		 push	 ebp
  00001	8b ec		 mov	 ebp, esp
  00003	51		 push	 ecx
  00004	89 4d fc	 mov	 DWORD PTR _this$[ebp], ecx
  00007	8b 45 08	 mov	 eax, DWORD PTR __Val1$[ebp]
  0000a	8b 08		 mov	 ecx, DWORD PTR [eax]
  0000c	8b 55 fc	 mov	 edx, DWORD PTR _this$[ebp]
  0000f	89 0a		 mov	 DWORD PTR [edx], ecx
  00011	8b 45 0c	 mov	 eax, DWORD PTR __Val2$[ebp]
  00014	8b 08		 mov	 ecx, DWORD PTR [eax]
  00016	8b 55 fc	 mov	 edx, DWORD PTR _this$[ebp]
  00019	89 4a 04	 mov	 DWORD PTR [edx+4], ecx

; 35   : 		}

  0001c	8b 45 fc	 mov	 eax, DWORD PTR _this$[ebp]
  0001f	8b e5		 mov	 esp, ebp
  00021	5d		 pop	 ebp
  00022	c2 08 00	 ret	 8
??0?$pair@Viterator@?$_Tree@V?$_Tmap_traits@KPAVIData@@U?$less@K@std@@V?$allocator@U?$pair@$$CBKPAVIData@@@std@@@3@$0A@@std@@@std@@V123@@std@@QAE@ABViterator@?$_Tree@V?$_Tmap_traits@KPAVIData@@U?$less@K@std@@V?$allocator@U?$pair@$$CBKPAVIData@@@std@@@3@$0A@@std@@@1@0@Z ENDP ; std::pair<std::_Tree<std::_Tmap_traits<unsigned long,IData *,std::less<unsigned long>,std::allocator<std::pair<unsigned long const ,IData *> >,0> >::iterator,std::_Tree<std::_Tmap_traits<unsigned long,IData *,std::less<unsigned long>,std::allocator<std::pair<unsigned long const ,IData *> >,0> >::iterator>::pair<std::_Tree<std::_Tmap_traits<unsigned long,IData *,std::less<unsigned long>,std::allocator<std::pair<unsigned long const ,IData *> >,0> >::iterator,std::_Tree<std::_Tmap_traits<unsigned long,IData *,std::less<unsigned long>,std::allocator<std::pair<unsigned long const ,IData *> >,0> >::iterator>
_TEXT	ENDS
PUBLIC	??_R1A@?0A@A@logic_error@std@@8			; std::logic_error::`RTTI Base Class Descriptor at (0,-1,0,0)'
PUBLIC	??_R1A@?0A@A@exception@@8			; exception::`RTTI Base Class Descriptor at (0,-1,0,0)'
PUBLIC	??_R4length_error@std@@6B@			; std::length_error::`RTTI Complete Object Locator'
PUBLIC	??_R3length_error@std@@8			; std::length_error::`RTTI Class Hierarchy Descriptor'
PUBLIC	??_R2length_error@std@@8			; std::length_error::`RTTI Base Class Array'
PUBLIC	??_R1A@?0A@A@length_error@std@@8		; std::length_error::`RTTI Base Class Descriptor at (0,-1,0,0)'
PUBLIC	?what@logic_error@std@@UBEPBDXZ			; std::logic_error::what
PUBLIC	??_7length_error@std@@6B@			; std::length_error::`vftable'
PUBLIC	??_Glength_error@std@@UAEPAXI@Z			; std::length_error::`scalar deleting destructor'
EXTRN	??_Elength_error@std@@UAEPAXI@Z:NEAR		; std::length_error::`vector deleting destructor'
;	COMDAT ??_7length_error@std@@6B@
CONST	SEGMENT
??_7length_error@std@@6B@ DD FLAT:??_R4length_error@std@@6B@ ; std::length_error::`vftable'
	DD	FLAT:??_Elength_error@std@@UAEPAXI@Z
	DD	FLAT:?what@logic_error@std@@UBEPBDXZ
CONST	ENDS
;	COMDAT ??_R4length_error@std@@6B@
rdata$r	SEGMENT
??_R4length_error@std@@6B@ DD 00H			; std::length_error::`RTTI Complete Object Locator'
	DD	00H
	DD	00H
	DD	FLAT:??_R0?AVlength_error@std@@@8
	DD	FLAT:??_R3length_error@std@@8
rdata$r	ENDS
;	COMDAT ??_R3length_error@std@@8
rdata$r	SEGMENT
??_R3length_error@std@@8 DD 00H				; std::length_error::`RTTI Class Hierarchy Descriptor'
	DD	00H
	DD	03H
	DD	FLAT:??_R2length_error@std@@8
rdata$r	ENDS
;	COMDAT ??_R2length_error@std@@8
rdata$r	SEGMENT
??_R2length_error@std@@8 DD FLAT:??_R1A@?0A@A@length_error@std@@8 ; std::length_error::`RTTI Base Class Array'
	DD	FLAT:??_R1A@?0A@A@logic_error@std@@8
	DD	FLAT:??_R1A@?0A@A@exception@@8
rdata$r	ENDS
;	COMDAT ??_R1A@?0A@A@length_error@std@@8
rdata$r	SEGMENT
??_R1A@?0A@A@length_error@std@@8 DD FLAT:??_R0?AVlength_error@std@@@8 ; std::length_error::`RTTI Base Class Descriptor at (0,-1,0,0)'
	DD	02H
	DD	00H
	DD	0ffffffffH
	DD	00H
	DD	00H
rdata$r	ENDS
;	COMDAT ??_R1A@?0A@A@logic_error@std@@8
rdata$r	SEGMENT
??_R1A@?0A@A@logic_error@std@@8 DD FLAT:??_R0?AVlogic_error@std@@@8 ; std::logic_error::`RTTI Base Class Descriptor at (0,-1,0,0)'
	DD	01H
	DD	00H
	DD	0ffffffffH
	DD	00H
	DD	00H
rdata$r	ENDS
;	COMDAT ??_R1A@?0A@A@exception@@8
rdata$r	SEGMENT
??_R1A@?0A@A@exception@@8 DD FLAT:??_R0?AVexception@@@8	; exception::`RTTI Base Class Descriptor at (0,-1,0,0)'
	DD	00H
	DD	00H
	DD	0ffffffffH
	DD	00H
	DD	00H
; Function compile flags: /Odt
rdata$r	ENDS
;	COMDAT ??0length_error@std@@QAE@ABV01@@Z
_TEXT	SEGMENT
_this$ = -4						; size = 4
___that$ = 8						; size = 4
??0length_error@std@@QAE@ABV01@@Z PROC NEAR		; std::length_error::length_error, COMDAT
; _this$ = ecx
  00000	55		 push	 ebp
  00001	8b ec		 mov	 ebp, esp
  00003	51		 push	 ecx
  00004	89 4d fc	 mov	 DWORD PTR _this$[ebp], ecx
  00007	8b 45 08	 mov	 eax, DWORD PTR ___that$[ebp]
  0000a	50		 push	 eax
  0000b	8b 4d fc	 mov	 ecx, DWORD PTR _this$[ebp]
  0000e	e8 00 00 00 00	 call	 ??0logic_error@std@@QAE@ABV01@@Z
  00013	8b 4d fc	 mov	 ecx, DWORD PTR _this$[ebp]
  00016	c7 01 00 00 00
	00		 mov	 DWORD PTR [ecx], OFFSET FLAT:??_7length_error@std@@6B@
  0001c	8b 45 fc	 mov	 eax, DWORD PTR _this$[ebp]
  0001f	8b e5		 mov	 esp, ebp
  00021	5d		 pop	 ebp
  00022	c2 04 00	 ret	 4
??0length_error@std@@QAE@ABV01@@Z ENDP			; std::length_error::length_error
; Function compile flags: /Odt
; File d:\program files (x86)\microsoft visual studio .net 2003\vc7\include\xtree
_TEXT	ENDS
;	COMDAT ?_Color@?$_Tree@V?$_Tmap_traits@KPAVIData@@U?$less@K@std@@V?$allocator@U?$pair@$$CBKPAVIData@@@std@@@3@$0A@@std@@@std@@KAAADPAU_Node@?$_Tree_nod@V?$_Tmap_traits@KPAVIData@@U?$less@K@std@@V?$allocator@U?$pair@$$CBKPAVIData@@@std@@@3@$0A@@std@@@2@@Z
_TEXT	SEGMENT
__Pnode$ = 8						; size = 4
?_Color@?$_Tree@V?$_Tmap_traits@KPAVIData@@U?$less@K@std@@V?$allocator@U?$pair@$$CBKPAVIData@@@std@@@3@$0A@@std@@@std@@KAAADPAU_Node@?$_Tree_nod@V?$_Tmap_traits@KPAVIData@@U?$less@K@std@@V?$allocator@U?$pair@$$CBKPAVIData@@@std@@@3@$0A@@std@@@2@@Z PROC NEAR ; std::_Tree<std::_Tmap_traits<unsigned long,IData *,std::less<unsigned long>,std::allocator<std::pair<unsigned long const ,IData *> >,0> >::_Color, COMDAT

; 131  : 		{	// return reference to color in node

  00000	55		 push	 ebp
  00001	8b ec		 mov	 ebp, esp

; 132  : 		return ((_Charref)(*_Pnode)._Color);

  00003	8b 45 08	 mov	 eax, DWORD PTR __Pnode$[ebp]
  00006	83 c0 14	 add	 eax, 20			; 00000014H

; 133  : 		}

  00009	5d		 pop	 ebp
  0000a	c3		 ret	 0
?_Color@?$_Tree@V?$_Tmap_traits@KPAVIData@@U?$less@K@std@@V?$allocator@U?$pair@$$CBKPAVIData@@@std@@@3@$0A@@std@@@std@@KAAADPAU_Node@?$_Tree_nod@V?$_Tmap_traits@KPAVIData@@U?$less@K@std@@V?$allocator@U?$pair@$$CBKPAVIData@@@std@@@3@$0A@@std@@@2@@Z ENDP ; std::_Tree<std::_Tmap_traits<unsigned long,IData *,std::less<unsigned long>,std::allocator<std::pair<unsigned long const ,IData *> >,0> >::_Color
_TEXT	ENDS
PUBLIC	?max_size@?$allocator@U?$pair@$$CBKPAVIData@@@std@@@std@@QBEIXZ ; std::allocator<std::pair<unsigned long const ,IData *> >::max_size
; Function compile flags: /Odt
;	COMDAT ?max_size@?$_Tree@V?$_Tmap_traits@KPAVIData@@U?$less@K@std@@V?$allocator@U?$pair@$$CBKPAVIData@@@std@@@3@$0A@@std@@@std@@QBEIXZ
_TEXT	SEGMENT
_this$ = -4						; size = 4
?max_size@?$_Tree@V?$_Tmap_traits@KPAVIData@@U?$less@K@std@@V?$allocator@U?$pair@$$CBKPAVIData@@@std@@@3@$0A@@std@@@std@@QBEIXZ PROC NEAR ; std::_Tree<std::_Tmap_traits<unsigned long,IData *,std::less<unsigned long>,std::allocator<std::pair<unsigned long const ,IData *> >,0> >::max_size, COMDAT
; _this$ = ecx

; 452  : 		{	// return maximum possible length of sequence

  00000	55		 push	 ebp
  00001	8b ec		 mov	 ebp, esp
  00003	51		 push	 ecx
  00004	89 4d fc	 mov	 DWORD PTR _this$[ebp], ecx

; 453  : 		return (this->_Alval.max_size());

  00007	8b 4d fc	 mov	 ecx, DWORD PTR _this$[ebp]
  0000a	83 c1 03	 add	 ecx, 3
  0000d	e8 00 00 00 00	 call	 ?max_size@?$allocator@U?$pair@$$CBKPAVIData@@@std@@@std@@QBEIXZ ; std::allocator<std::pair<unsigned long const ,IData *> >::max_size

; 454  : 		}

  00012	8b e5		 mov	 esp, ebp
  00014	5d		 pop	 ebp
  00015	c3		 ret	 0
?max_size@?$_Tree@V?$_Tmap_traits@KPAVIData@@U?$less@K@std@@V?$allocator@U?$pair@$$CBKPAVIData@@@std@@@3@$0A@@std@@@std@@QBEIXZ ENDP ; std::_Tree<std::_Tmap_traits<unsigned long,IData *,std::less<unsigned long>,std::allocator<std::pair<unsigned long const ,IData *> >,0> >::max_size
; Function compile flags: /Odt
_TEXT	ENDS
;	COMDAT ?_Lrotate@?$_Tree@V?$_Tmap_traits@KPAVIData@@U?$less@K@std@@V?$allocator@U?$pair@$$CBKPAVIData@@@std@@@3@$0A@@std@@@std@@IAEXPAU_Node@?$_Tree_nod@V?$_Tmap_traits@KPAVIData@@U?$less@K@std@@V?$allocator@U?$pair@$$CBKPAVIData@@@std@@@3@$0A@@std@@@2@@Z
_TEXT	SEGMENT
_this$ = -8						; size = 4
__Pnode$ = -4						; size = 4
__Wherenode$ = 8					; size = 4
?_Lrotate@?$_Tree@V?$_Tmap_traits@KPAVIData@@U?$less@K@std@@V?$allocator@U?$pair@$$CBKPAVIData@@@std@@@3@$0A@@std@@@std@@IAEXPAU_Node@?$_Tree_nod@V?$_Tmap_traits@KPAVIData@@U?$less@K@std@@V?$allocator@U?$pair@$$CBKPAVIData@@@std@@@3@$0A@@std@@@2@@Z PROC NEAR ; std::_Tree<std::_Tmap_traits<unsigned long,IData *,std::less<unsigned long>,std::allocator<std::pair<unsigned long const ,IData *> >,0> >::_Lrotate, COMDAT
; _this$ = ecx

; 1014 : 		{	// promote right node to root of subtree

  00000	55		 push	 ebp
  00001	8b ec		 mov	 ebp, esp
  00003	83 ec 08	 sub	 esp, 8
  00006	56		 push	 esi
  00007	89 4d f8	 mov	 DWORD PTR _this$[ebp], ecx

; 1015 : 		_Nodeptr _Pnode = _Right(_Wherenode);

  0000a	8b 45 08	 mov	 eax, DWORD PTR __Wherenode$[ebp]
  0000d	50		 push	 eax
  0000e	e8 00 00 00 00	 call	 ?_Right@?$_Tree@V?$_Tmap_traits@KPAVIData@@U?$less@K@std@@V?$allocator@U?$pair@$$CBKPAVIData@@@std@@@3@$0A@@std@@@std@@KAAAPAU_Node@?$_Tree_nod@V?$_Tmap_traits@KPAVIData@@U?$less@K@std@@V?$allocator@U?$pair@$$CBKPAVIData@@@std@@@3@$0A@@std@@@2@PAU342@@Z ; std::_Tree<std::_Tmap_traits<unsigned long,IData *,std::less<unsigned long>,std::allocator<std::pair<unsigned long const ,IData *> >,0> >::_Right
  00013	83 c4 04	 add	 esp, 4
  00016	8b 08		 mov	 ecx, DWORD PTR [eax]
  00018	89 4d fc	 mov	 DWORD PTR __Pnode$[ebp], ecx

; 1016 : 		_Right(_Wherenode) = _Left(_Pnode);

  0001b	8b 55 fc	 mov	 edx, DWORD PTR __Pnode$[ebp]
  0001e	52		 push	 edx
  0001f	e8 00 00 00 00	 call	 ?_Left@?$_Tree@V?$_Tmap_traits@KPAVIData@@U?$less@K@std@@V?$allocator@U?$pair@$$CBKPAVIData@@@std@@@3@$0A@@std@@@std@@KAAAPAU_Node@?$_Tree_nod@V?$_Tmap_traits@KPAVIData@@U?$less@K@std@@V?$allocator@U?$pair@$$CBKPAVIData@@@std@@@3@$0A@@std@@@2@PAU342@@Z ; std::_Tree<std::_Tmap_traits<unsigned long,IData *,std::less<unsigned long>,std::allocator<std::pair<unsigned long const ,IData *> >,0> >::_Left
  00024	83 c4 04	 add	 esp, 4
  00027	8b f0		 mov	 esi, eax
  00029	8b 45 08	 mov	 eax, DWORD PTR __Wherenode$[ebp]
  0002c	50		 push	 eax
  0002d	e8 00 00 00 00	 call	 ?_Right@?$_Tree@V?$_Tmap_traits@KPAVIData@@U?$less@K@std@@V?$allocator@U?$pair@$$CBKPAVIData@@@std@@@3@$0A@@std@@@std@@KAAAPAU_Node@?$_Tree_nod@V?$_Tmap_traits@KPAVIData@@U?$less@K@std@@V?$allocator@U?$pair@$$CBKPAVIData@@@std@@@3@$0A@@std@@@2@PAU342@@Z ; std::_Tree<std::_Tmap_traits<unsigned long,IData *,std::less<unsigned long>,std::allocator<std::pair<unsigned long const ,IData *> >,0> >::_Right
  00032	83 c4 04	 add	 esp, 4
  00035	8b 0e		 mov	 ecx, DWORD PTR [esi]
  00037	89 08		 mov	 DWORD PTR [eax], ecx

; 1017 : 
; 1018 : 		if (!_Isnil(_Left(_Pnode)))

  00039	8b 55 fc	 mov	 edx, DWORD PTR __Pnode$[ebp]
  0003c	52		 push	 edx
  0003d	e8 00 00 00 00	 call	 ?_Left@?$_Tree@V?$_Tmap_traits@KPAVIData@@U?$less@K@std@@V?$allocator@U?$pair@$$CBKPAVIData@@@std@@@3@$0A@@std@@@std@@KAAAPAU_Node@?$_Tree_nod@V?$_Tmap_traits@KPAVIData@@U?$less@K@std@@V?$allocator@U?$pair@$$CBKPAVIData@@@std@@@3@$0A@@std@@@2@PAU342@@Z ; std::_Tree<std::_Tmap_traits<unsigned long,IData *,std::less<unsigned long>,std::allocator<std::pair<unsigned long const ,IData *> >,0> >::_Left
  00042	83 c4 04	 add	 esp, 4
  00045	8b 00		 mov	 eax, DWORD PTR [eax]
  00047	50		 push	 eax
  00048	e8 00 00 00 00	 call	 ?_Isnil@?$_Tree@V?$_Tmap_traits@KPAVIData@@U?$less@K@std@@V?$allocator@U?$pair@$$CBKPAVIData@@@std@@@3@$0A@@std@@@std@@KAAADPAU_Node@?$_Tree_nod@V?$_Tmap_traits@KPAVIData@@U?$less@K@std@@V?$allocator@U?$pair@$$CBKPAVIData@@@std@@@3@$0A@@std@@@2@@Z ; std::_Tree<std::_Tmap_traits<unsigned long,IData *,std::less<unsigned long>,std::allocator<std::pair<unsigned long const ,IData *> >,0> >::_Isnil
  0004d	83 c4 04	 add	 esp, 4
  00050	0f be 08	 movsx	 ecx, BYTE PTR [eax]
  00053	85 c9		 test	 ecx, ecx
  00055	75 1c		 jne	 SHORT $L199824

; 1019 : 			_Parent(_Left(_Pnode)) = _Wherenode;

  00057	8b 55 fc	 mov	 edx, DWORD PTR __Pnode$[ebp]
  0005a	52		 push	 edx
  0005b	e8 00 00 00 00	 call	 ?_Left@?$_Tree@V?$_Tmap_traits@KPAVIData@@U?$less@K@std@@V?$allocator@U?$pair@$$CBKPAVIData@@@std@@@3@$0A@@std@@@std@@KAAAPAU_Node@?$_Tree_nod@V?$_Tmap_traits@KPAVIData@@U?$less@K@std@@V?$allocator@U?$pair@$$CBKPAVIData@@@std@@@3@$0A@@std@@@2@PAU342@@Z ; std::_Tree<std::_Tmap_traits<unsigned long,IData *,std::less<unsigned long>,std::allocator<std::pair<unsigned long const ,IData *> >,0> >::_Left
  00060	83 c4 04	 add	 esp, 4
  00063	8b 00		 mov	 eax, DWORD PTR [eax]
  00065	50		 push	 eax
  00066	e8 00 00 00 00	 call	 ?_Parent@?$_Tree@V?$_Tmap_traits@KPAVIData@@U?$less@K@std@@V?$allocator@U?$pair@$$CBKPAVIData@@@std@@@3@$0A@@std@@@std@@KAAAPAU_Node@?$_Tree_nod@V?$_Tmap_traits@KPAVIData@@U?$less@K@std@@V?$allocator@U?$pair@$$CBKPAVIData@@@std@@@3@$0A@@std@@@2@PAU342@@Z ; std::_Tree<std::_Tmap_traits<unsigned long,IData *,std::less<unsigned long>,std::allocator<std::pair<unsigned long const ,IData *> >,0> >::_Parent
  0006b	83 c4 04	 add	 esp, 4
  0006e	8b 4d 08	 mov	 ecx, DWORD PTR __Wherenode$[ebp]
  00071	89 08		 mov	 DWORD PTR [eax], ecx
$L199824:

; 1020 : 		_Parent(_Pnode) = _Parent(_Wherenode);

  00073	8b 55 08	 mov	 edx, DWORD PTR __Wherenode$[ebp]
  00076	52		 push	 edx
  00077	e8 00 00 00 00	 call	 ?_Parent@?$_Tree@V?$_Tmap_traits@KPAVIData@@U?$less@K@std@@V?$allocator@U?$pair@$$CBKPAVIData@@@std@@@3@$0A@@std@@@std@@KAAAPAU_Node@?$_Tree_nod@V?$_Tmap_traits@KPAVIData@@U?$less@K@std@@V?$allocator@U?$pair@$$CBKPAVIData@@@std@@@3@$0A@@std@@@2@PAU342@@Z ; std::_Tree<std::_Tmap_traits<unsigned long,IData *,std::less<unsigned long>,std::allocator<std::pair<unsigned long const ,IData *> >,0> >::_Parent
  0007c	83 c4 04	 add	 esp, 4
  0007f	8b f0		 mov	 esi, eax
  00081	8b 45 fc	 mov	 eax, DWORD PTR __Pnode$[ebp]
  00084	50		 push	 eax
  00085	e8 00 00 00 00	 call	 ?_Parent@?$_Tree@V?$_Tmap_traits@KPAVIData@@U?$less@K@std@@V?$allocator@U?$pair@$$CBKPAVIData@@@std@@@3@$0A@@std@@@std@@KAAAPAU_Node@?$_Tree_nod@V?$_Tmap_traits@KPAVIData@@U?$less@K@std@@V?$allocator@U?$pair@$$CBKPAVIData@@@std@@@3@$0A@@std@@@2@PAU342@@Z ; std::_Tree<std::_Tmap_traits<unsigned long,IData *,std::less<unsigned long>,std::allocator<std::pair<unsigned long const ,IData *> >,0> >::_Parent
  0008a	83 c4 04	 add	 esp, 4
  0008d	8b 0e		 mov	 ecx, DWORD PTR [esi]
  0008f	89 08		 mov	 DWORD PTR [eax], ecx

; 1021 : 
; 1022 : 		if (_Wherenode == _Root())

  00091	8b 4d f8	 mov	 ecx, DWORD PTR _this$[ebp]
  00094	e8 00 00 00 00	 call	 ?_Root@?$_Tree@V?$_Tmap_traits@KPAVIData@@U?$less@K@std@@V?$allocator@U?$pair@$$CBKPAVIData@@@std@@@3@$0A@@std@@@std@@IAEAAPAU_Node@?$_Tree_nod@V?$_Tmap_traits@KPAVIData@@U?$less@K@std@@V?$allocator@U?$pair@$$CBKPAVIData@@@std@@@3@$0A@@std@@@2@XZ ; std::_Tree<std::_Tmap_traits<unsigned long,IData *,std::less<unsigned long>,std::allocator<std::pair<unsigned long const ,IData *> >,0> >::_Root
  00099	8b 55 08	 mov	 edx, DWORD PTR __Wherenode$[ebp]
  0009c	3b 10		 cmp	 edx, DWORD PTR [eax]
  0009e	75 0f		 jne	 SHORT $L199825

; 1023 : 			_Root() = _Pnode;

  000a0	8b 4d f8	 mov	 ecx, DWORD PTR _this$[ebp]
  000a3	e8 00 00 00 00	 call	 ?_Root@?$_Tree@V?$_Tmap_traits@KPAVIData@@U?$less@K@std@@V?$allocator@U?$pair@$$CBKPAVIData@@@std@@@3@$0A@@std@@@std@@IAEAAPAU_Node@?$_Tree_nod@V?$_Tmap_traits@KPAVIData@@U?$less@K@std@@V?$allocator@U?$pair@$$CBKPAVIData@@@std@@@3@$0A@@std@@@2@XZ ; std::_Tree<std::_Tmap_traits<unsigned long,IData *,std::less<unsigned long>,std::allocator<std::pair<unsigned long const ,IData *> >,0> >::_Root
  000a8	8b 4d fc	 mov	 ecx, DWORD PTR __Pnode$[ebp]
  000ab	89 08		 mov	 DWORD PTR [eax], ecx

; 1024 : 		else if (_Wherenode == _Left(_Parent(_Wherenode)))

  000ad	eb 58		 jmp	 SHORT $L199826
$L199825:
  000af	8b 55 08	 mov	 edx, DWORD PTR __Wherenode$[ebp]
  000b2	52		 push	 edx
  000b3	e8 00 00 00 00	 call	 ?_Parent@?$_Tree@V?$_Tmap_traits@KPAVIData@@U?$less@K@std@@V?$allocator@U?$pair@$$CBKPAVIData@@@std@@@3@$0A@@std@@@std@@KAAAPAU_Node@?$_Tree_nod@V?$_Tmap_traits@KPAVIData@@U?$less@K@std@@V?$allocator@U?$pair@$$CBKPAVIData@@@std@@@3@$0A@@std@@@2@PAU342@@Z ; std::_Tree<std::_Tmap_traits<unsigned long,IData *,std::less<unsigned long>,std::allocator<std::pair<unsigned long const ,IData *> >,0> >::_Parent
  000b8	83 c4 04	 add	 esp, 4
  000bb	8b 00		 mov	 eax, DWORD PTR [eax]
  000bd	50		 push	 eax
  000be	e8 00 00 00 00	 call	 ?_Left@?$_Tree@V?$_Tmap_traits@KPAVIData@@U?$less@K@std@@V?$allocator@U?$pair@$$CBKPAVIData@@@std@@@3@$0A@@std@@@std@@KAAAPAU_Node@?$_Tree_nod@V?$_Tmap_traits@KPAVIData@@U?$less@K@std@@V?$allocator@U?$pair@$$CBKPAVIData@@@std@@@3@$0A@@std@@@2@PAU342@@Z ; std::_Tree<std::_Tmap_traits<unsigned long,IData *,std::less<unsigned long>,std::allocator<std::pair<unsigned long const ,IData *> >,0> >::_Left
  000c3	83 c4 04	 add	 esp, 4
  000c6	8b 4d 08	 mov	 ecx, DWORD PTR __Wherenode$[ebp]
  000c9	3b 08		 cmp	 ecx, DWORD PTR [eax]
  000cb	75 1e		 jne	 SHORT $L199827

; 1025 : 			_Left(_Parent(_Wherenode)) = _Pnode;

  000cd	8b 55 08	 mov	 edx, DWORD PTR __Wherenode$[ebp]
  000d0	52		 push	 edx
  000d1	e8 00 00 00 00	 call	 ?_Parent@?$_Tree@V?$_Tmap_traits@KPAVIData@@U?$less@K@std@@V?$allocator@U?$pair@$$CBKPAVIData@@@std@@@3@$0A@@std@@@std@@KAAAPAU_Node@?$_Tree_nod@V?$_Tmap_traits@KPAVIData@@U?$less@K@std@@V?$allocator@U?$pair@$$CBKPAVIData@@@std@@@3@$0A@@std@@@2@PAU342@@Z ; std::_Tree<std::_Tmap_traits<unsigned long,IData *,std::less<unsigned long>,std::allocator<std::pair<unsigned long const ,IData *> >,0> >::_Parent
  000d6	83 c4 04	 add	 esp, 4
  000d9	8b 00		 mov	 eax, DWORD PTR [eax]
  000db	50		 push	 eax
  000dc	e8 00 00 00 00	 call	 ?_Left@?$_Tree@V?$_Tmap_traits@KPAVIData@@U?$less@K@std@@V?$allocator@U?$pair@$$CBKPAVIData@@@std@@@3@$0A@@std@@@std@@KAAAPAU_Node@?$_Tree_nod@V?$_Tmap_traits@KPAVIData@@U?$less@K@std@@V?$allocator@U?$pair@$$CBKPAVIData@@@std@@@3@$0A@@std@@@2@PAU342@@Z ; std::_Tree<std::_Tmap_traits<unsigned long,IData *,std::less<unsigned long>,std::allocator<std::pair<unsigned long const ,IData *> >,0> >::_Left
  000e1	83 c4 04	 add	 esp, 4
  000e4	8b 4d fc	 mov	 ecx, DWORD PTR __Pnode$[ebp]
  000e7	89 08		 mov	 DWORD PTR [eax], ecx

; 1026 : 		else

  000e9	eb 1c		 jmp	 SHORT $L199826
$L199827:

; 1027 : 			_Right(_Parent(_Wherenode)) = _Pnode;

  000eb	8b 55 08	 mov	 edx, DWORD PTR __Wherenode$[ebp]
  000ee	52		 push	 edx
  000ef	e8 00 00 00 00	 call	 ?_Parent@?$_Tree@V?$_Tmap_traits@KPAVIData@@U?$less@K@std@@V?$allocator@U?$pair@$$CBKPAVIData@@@std@@@3@$0A@@std@@@std@@KAAAPAU_Node@?$_Tree_nod@V?$_Tmap_traits@KPAVIData@@U?$less@K@std@@V?$allocator@U?$pair@$$CBKPAVIData@@@std@@@3@$0A@@std@@@2@PAU342@@Z ; std::_Tree<std::_Tmap_traits<unsigned long,IData *,std::less<unsigned long>,std::allocator<std::pair<unsigned long const ,IData *> >,0> >::_Parent
  000f4	83 c4 04	 add	 esp, 4
  000f7	8b 00		 mov	 eax, DWORD PTR [eax]
  000f9	50		 push	 eax
  000fa	e8 00 00 00 00	 call	 ?_Right@?$_Tree@V?$_Tmap_traits@KPAVIData@@U?$less@K@std@@V?$allocator@U?$pair@$$CBKPAVIData@@@std@@@3@$0A@@std@@@std@@KAAAPAU_Node@?$_Tree_nod@V?$_Tmap_traits@KPAVIData@@U?$less@K@std@@V?$allocator@U?$pair@$$CBKPAVIData@@@std@@@3@$0A@@std@@@2@PAU342@@Z ; std::_Tree<std::_Tmap_traits<unsigned long,IData *,std::less<unsigned long>,std::allocator<std::pair<unsigned long const ,IData *> >,0> >::_Right
  000ff	83 c4 04	 add	 esp, 4
  00102	8b 4d fc	 mov	 ecx, DWORD PTR __Pnode$[ebp]
  00105	89 08		 mov	 DWORD PTR [eax], ecx
$L199826:

; 1028 : 
; 1029 : 		_Left(_Pnode) = _Wherenode;

  00107	8b 55 fc	 mov	 edx, DWORD PTR __Pnode$[ebp]
  0010a	52		 push	 edx
  0010b	e8 00 00 00 00	 call	 ?_Left@?$_Tree@V?$_Tmap_traits@KPAVIData@@U?$less@K@std@@V?$allocator@U?$pair@$$CBKPAVIData@@@std@@@3@$0A@@std@@@std@@KAAAPAU_Node@?$_Tree_nod@V?$_Tmap_traits@KPAVIData@@U?$less@K@std@@V?$allocator@U?$pair@$$CBKPAVIData@@@std@@@3@$0A@@std@@@2@PAU342@@Z ; std::_Tree<std::_Tmap_traits<unsigned long,IData *,std::less<unsigned long>,std::allocator<std::pair<unsigned long const ,IData *> >,0> >::_Left
  00110	83 c4 04	 add	 esp, 4
  00113	8b 4d 08	 mov	 ecx, DWORD PTR __Wherenode$[ebp]
  00116	89 08		 mov	 DWORD PTR [eax], ecx

; 1030 : 		_Parent(_Wherenode) = _Pnode;

  00118	8b 55 08	 mov	 edx, DWORD PTR __Wherenode$[ebp]
  0011b	52		 push	 edx
  0011c	e8 00 00 00 00	 call	 ?_Parent@?$_Tree@V?$_Tmap_traits@KPAVIData@@U?$less@K@std@@V?$allocator@U?$pair@$$CBKPAVIData@@@std@@@3@$0A@@std@@@std@@KAAAPAU_Node@?$_Tree_nod@V?$_Tmap_traits@KPAVIData@@U?$less@K@std@@V?$allocator@U?$pair@$$CBKPAVIData@@@std@@@3@$0A@@std@@@2@PAU342@@Z ; std::_Tree<std::_Tmap_traits<unsigned long,IData *,std::less<unsigned long>,std::allocator<std::pair<unsigned long const ,IData *> >,0> >::_Parent
  00121	83 c4 04	 add	 esp, 4
  00124	8b 4d fc	 mov	 ecx, DWORD PTR __Pnode$[ebp]
  00127	89 08		 mov	 DWORD PTR [eax], ecx

; 1031 : 		}

  00129	5e		 pop	 esi
  0012a	8b e5		 mov	 esp, ebp
  0012c	5d		 pop	 ebp
  0012d	c2 04 00	 ret	 4
?_Lrotate@?$_Tree@V?$_Tmap_traits@KPAVIData@@U?$less@K@std@@V?$allocator@U?$pair@$$CBKPAVIData@@@std@@@3@$0A@@std@@@std@@IAEXPAU_Node@?$_Tree_nod@V?$_Tmap_traits@KPAVIData@@U?$less@K@std@@V?$allocator@U?$pair@$$CBKPAVIData@@@std@@@3@$0A@@std@@@2@@Z ENDP ; std::_Tree<std::_Tmap_traits<unsigned long,IData *,std::less<unsigned long>,std::allocator<std::pair<unsigned long const ,IData *> >,0> >::_Lrotate
; Function compile flags: /Odt
_TEXT	ENDS
;	COMDAT ?_Max@?$_Tree@V?$_Tmap_traits@KPAVIData@@U?$less@K@std@@V?$allocator@U?$pair@$$CBKPAVIData@@@std@@@3@$0A@@std@@@std@@KAPAU_Node@?$_Tree_nod@V?$_Tmap_traits@KPAVIData@@U?$less@K@std@@V?$allocator@U?$pair@$$CBKPAVIData@@@std@@@3@$0A@@std@@@2@PAU342@@Z
_TEXT	SEGMENT
__Pnode$ = 8						; size = 4
?_Max@?$_Tree@V?$_Tmap_traits@KPAVIData@@U?$less@K@std@@V?$allocator@U?$pair@$$CBKPAVIData@@@std@@@3@$0A@@std@@@std@@KAPAU_Node@?$_Tree_nod@V?$_Tmap_traits@KPAVIData@@U?$less@K@std@@V?$allocator@U?$pair@$$CBKPAVIData@@@std@@@3@$0A@@std@@@2@PAU342@@Z PROC NEAR ; std::_Tree<std::_Tmap_traits<unsigned long,IData *,std::less<unsigned long>,std::allocator<std::pair<unsigned long const ,IData *> >,0> >::_Max, COMDAT

; 1034 : 		{	// return rightmost node in subtree at _Pnode

  00000	55		 push	 ebp
  00001	8b ec		 mov	 ebp, esp
$L199831:

; 1035 : 		while (!_Isnil(_Right(_Pnode)))

  00003	8b 45 08	 mov	 eax, DWORD PTR __Pnode$[ebp]
  00006	50		 push	 eax
  00007	e8 00 00 00 00	 call	 ?_Right@?$_Tree@V?$_Tmap_traits@KPAVIData@@U?$less@K@std@@V?$allocator@U?$pair@$$CBKPAVIData@@@std@@@3@$0A@@std@@@std@@KAAAPAU_Node@?$_Tree_nod@V?$_Tmap_traits@KPAVIData@@U?$less@K@std@@V?$allocator@U?$pair@$$CBKPAVIData@@@std@@@3@$0A@@std@@@2@PAU342@@Z ; std::_Tree<std::_Tmap_traits<unsigned long,IData *,std::less<unsigned long>,std::allocator<std::pair<unsigned long const ,IData *> >,0> >::_Right
  0000c	83 c4 04	 add	 esp, 4
  0000f	8b 08		 mov	 ecx, DWORD PTR [eax]
  00011	51		 push	 ecx
  00012	e8 00 00 00 00	 call	 ?_Isnil@?$_Tree@V?$_Tmap_traits@KPAVIData@@U?$less@K@std@@V?$allocator@U?$pair@$$CBKPAVIData@@@std@@@3@$0A@@std@@@std@@KAAADPAU_Node@?$_Tree_nod@V?$_Tmap_traits@KPAVIData@@U?$less@K@std@@V?$allocator@U?$pair@$$CBKPAVIData@@@std@@@3@$0A@@std@@@2@@Z ; std::_Tree<std::_Tmap_traits<unsigned long,IData *,std::less<unsigned long>,std::allocator<std::pair<unsigned long const ,IData *> >,0> >::_Isnil
  00017	83 c4 04	 add	 esp, 4
  0001a	0f be 10	 movsx	 edx, BYTE PTR [eax]
  0001d	85 d2		 test	 edx, edx
  0001f	75 13		 jne	 SHORT $L199832

; 1036 : 			_Pnode = _Right(_Pnode);

  00021	8b 45 08	 mov	 eax, DWORD PTR __Pnode$[ebp]
  00024	50		 push	 eax
  00025	e8 00 00 00 00	 call	 ?_Right@?$_Tree@V?$_Tmap_traits@KPAVIData@@U?$less@K@std@@V?$allocator@U?$pair@$$CBKPAVIData@@@std@@@3@$0A@@std@@@std@@KAAAPAU_Node@?$_Tree_nod@V?$_Tmap_traits@KPAVIData@@U?$less@K@std@@V?$allocator@U?$pair@$$CBKPAVIData@@@std@@@3@$0A@@std@@@2@PAU342@@Z ; std::_Tree<std::_Tmap_traits<unsigned long,IData *,std::less<unsigned long>,std::allocator<std::pair<unsigned long const ,IData *> >,0> >::_Right
  0002a	83 c4 04	 add	 esp, 4
  0002d	8b 08		 mov	 ecx, DWORD PTR [eax]
  0002f	89 4d 08	 mov	 DWORD PTR __Pnode$[ebp], ecx
  00032	eb cf		 jmp	 SHORT $L199831
$L199832:

; 1037 : 		return (_Pnode);

  00034	8b 45 08	 mov	 eax, DWORD PTR __Pnode$[ebp]

; 1038 : 		}

  00037	5d		 pop	 ebp
  00038	c3		 ret	 0
?_Max@?$_Tree@V?$_Tmap_traits@KPAVIData@@U?$less@K@std@@V?$allocator@U?$pair@$$CBKPAVIData@@@std@@@3@$0A@@std@@@std@@KAPAU_Node@?$_Tree_nod@V?$_Tmap_traits@KPAVIData@@U?$less@K@std@@V?$allocator@U?$pair@$$CBKPAVIData@@@std@@@3@$0A@@std@@@2@PAU342@@Z ENDP ; std::_Tree<std::_Tmap_traits<unsigned long,IData *,std::less<unsigned long>,std::allocator<std::pair<unsigned long const ,IData *> >,0> >::_Max
; Function compile flags: /Odt
_TEXT	ENDS
;	COMDAT ?_Min@?$_Tree@V?$_Tmap_traits@KPAVIData@@U?$less@K@std@@V?$allocator@U?$pair@$$CBKPAVIData@@@std@@@3@$0A@@std@@@std@@KAPAU_Node@?$_Tree_nod@V?$_Tmap_traits@KPAVIData@@U?$less@K@std@@V?$allocator@U?$pair@$$CBKPAVIData@@@std@@@3@$0A@@std@@@2@PAU342@@Z
_TEXT	SEGMENT
__Pnode$ = 8						; size = 4
?_Min@?$_Tree@V?$_Tmap_traits@KPAVIData@@U?$less@K@std@@V?$allocator@U?$pair@$$CBKPAVIData@@@std@@@3@$0A@@std@@@std@@KAPAU_Node@?$_Tree_nod@V?$_Tmap_traits@KPAVIData@@U?$less@K@std@@V?$allocator@U?$pair@$$CBKPAVIData@@@std@@@3@$0A@@std@@@2@PAU342@@Z PROC NEAR ; std::_Tree<std::_Tmap_traits<unsigned long,IData *,std::less<unsigned long>,std::allocator<std::pair<unsigned long const ,IData *> >,0> >::_Min, COMDAT

; 1041 : 		{	// return leftmost node in subtree at _Pnode

  00000	55		 push	 ebp
  00001	8b ec		 mov	 ebp, esp
$L199835:

; 1042 : 		while (!_Isnil(_Left(_Pnode)))

  00003	8b 45 08	 mov	 eax, DWORD PTR __Pnode$[ebp]
  00006	50		 push	 eax
  00007	e8 00 00 00 00	 call	 ?_Left@?$_Tree@V?$_Tmap_traits@KPAVIData@@U?$less@K@std@@V?$allocator@U?$pair@$$CBKPAVIData@@@std@@@3@$0A@@std@@@std@@KAAAPAU_Node@?$_Tree_nod@V?$_Tmap_traits@KPAVIData@@U?$less@K@std@@V?$allocator@U?$pair@$$CBKPAVIData@@@std@@@3@$0A@@std@@@2@PAU342@@Z ; std::_Tree<std::_Tmap_traits<unsigned long,IData *,std::less<unsigned long>,std::allocator<std::pair<unsigned long const ,IData *> >,0> >::_Left
  0000c	83 c4 04	 add	 esp, 4
  0000f	8b 08		 mov	 ecx, DWORD PTR [eax]
  00011	51		 push	 ecx
  00012	e8 00 00 00 00	 call	 ?_Isnil@?$_Tree@V?$_Tmap_traits@KPAVIData@@U?$less@K@std@@V?$allocator@U?$pair@$$CBKPAVIData@@@std@@@3@$0A@@std@@@std@@KAAADPAU_Node@?$_Tree_nod@V?$_Tmap_traits@KPAVIData@@U?$less@K@std@@V?$allocator@U?$pair@$$CBKPAVIData@@@std@@@3@$0A@@std@@@2@@Z ; std::_Tree<std::_Tmap_traits<unsigned long,IData *,std::less<unsigned long>,std::allocator<std::pair<unsigned long const ,IData *> >,0> >::_Isnil
  00017	83 c4 04	 add	 esp, 4
  0001a	0f be 10	 movsx	 edx, BYTE PTR [eax]
  0001d	85 d2		 test	 edx, edx
  0001f	75 13		 jne	 SHORT $L199836

; 1043 : 			_Pnode = _Left(_Pnode);

  00021	8b 45 08	 mov	 eax, DWORD PTR __Pnode$[ebp]
  00024	50		 push	 eax
  00025	e8 00 00 00 00	 call	 ?_Left@?$_Tree@V?$_Tmap_traits@KPAVIData@@U?$less@K@std@@V?$allocator@U?$pair@$$CBKPAVIData@@@std@@@3@$0A@@std@@@std@@KAAAPAU_Node@?$_Tree_nod@V?$_Tmap_traits@KPAVIData@@U?$less@K@std@@V?$allocator@U?$pair@$$CBKPAVIData@@@std@@@3@$0A@@std@@@2@PAU342@@Z ; std::_Tree<std::_Tmap_traits<unsigned long,IData *,std::less<unsigned long>,std::allocator<std::pair<unsigned long const ,IData *> >,0> >::_Left
  0002a	83 c4 04	 add	 esp, 4
  0002d	8b 08		 mov	 ecx, DWORD PTR [eax]
  0002f	89 4d 08	 mov	 DWORD PTR __Pnode$[ebp], ecx
  00032	eb cf		 jmp	 SHORT $L199835
$L199836:

; 1044 : 		return (_Pnode);

  00034	8b 45 08	 mov	 eax, DWORD PTR __Pnode$[ebp]

; 1045 : 		}

  00037	5d		 pop	 ebp
  00038	c3		 ret	 0
?_Min@?$_Tree@V?$_Tmap_traits@KPAVIData@@U?$less@K@std@@V?$allocator@U?$pair@$$CBKPAVIData@@@std@@@3@$0A@@std@@@std@@KAPAU_Node@?$_Tree_nod@V?$_Tmap_traits@KPAVIData@@U?$less@K@std@@V?$allocator@U?$pair@$$CBKPAVIData@@@std@@@3@$0A@@std@@@2@PAU342@@Z ENDP ; std::_Tree<std::_Tmap_traits<unsigned long,IData *,std::less<unsigned long>,std::allocator<std::pair<unsigned long const ,IData *> >,0> >::_Min
; Function compile flags: /Odt
_TEXT	ENDS
;	COMDAT ?_Root@?$_Tree@V?$_Tmap_traits@KPAVIData@@U?$less@K@std@@V?$allocator@U?$pair@$$CBKPAVIData@@@std@@@3@$0A@@std@@@std@@IBEAAPAU_Node@?$_Tree_nod@V?$_Tmap_traits@KPAVIData@@U?$less@K@std@@V?$allocator@U?$pair@$$CBKPAVIData@@@std@@@3@$0A@@std@@@2@XZ
_TEXT	SEGMENT
_this$ = -4						; size = 4
?_Root@?$_Tree@V?$_Tmap_traits@KPAVIData@@U?$less@K@std@@V?$allocator@U?$pair@$$CBKPAVIData@@@std@@@3@$0A@@std@@@std@@IBEAAPAU_Node@?$_Tree_nod@V?$_Tmap_traits@KPAVIData@@U?$less@K@std@@V?$allocator@U?$pair@$$CBKPAVIData@@@std@@@3@$0A@@std@@@2@XZ PROC NEAR ; std::_Tree<std::_Tmap_traits<unsigned long,IData *,std::less<unsigned long>,std::allocator<std::pair<unsigned long const ,IData *> >,0> >::_Root, COMDAT
; _this$ = ecx

; 1063 : 		{	// return root of nonmutable tree

  00000	55		 push	 ebp
  00001	8b ec		 mov	 ebp, esp
  00003	51		 push	 ecx
  00004	89 4d fc	 mov	 DWORD PTR _this$[ebp], ecx

; 1064 : 		return (_Parent(_Myhead));

  00007	8b 45 fc	 mov	 eax, DWORD PTR _this$[ebp]
  0000a	8b 48 04	 mov	 ecx, DWORD PTR [eax+4]
  0000d	51		 push	 ecx
  0000e	e8 00 00 00 00	 call	 ?_Parent@?$_Tree@V?$_Tmap_traits@KPAVIData@@U?$less@K@std@@V?$allocator@U?$pair@$$CBKPAVIData@@@std@@@3@$0A@@std@@@std@@KAAAPAU_Node@?$_Tree_nod@V?$_Tmap_traits@KPAVIData@@U?$less@K@std@@V?$allocator@U?$pair@$$CBKPAVIData@@@std@@@3@$0A@@std@@@2@PAU342@@Z ; std::_Tree<std::_Tmap_traits<unsigned long,IData *,std::less<unsigned long>,std::allocator<std::pair<unsigned long const ,IData *> >,0> >::_Parent
  00013	83 c4 04	 add	 esp, 4

; 1065 : 		}

  00016	8b e5		 mov	 esp, ebp
  00018	5d		 pop	 ebp
  00019	c3		 ret	 0
?_Root@?$_Tree@V?$_Tmap_traits@KPAVIData@@U?$less@K@std@@V?$allocator@U?$pair@$$CBKPAVIData@@@std@@@3@$0A@@std@@@std@@IBEAAPAU_Node@?$_Tree_nod@V?$_Tmap_traits@KPAVIData@@U?$less@K@std@@V?$allocator@U?$pair@$$CBKPAVIData@@@std@@@3@$0A@@std@@@2@XZ ENDP ; std::_Tree<std::_Tmap_traits<unsigned long,IData *,std::less<unsigned long>,std::allocator<std::pair<unsigned long const ,IData *> >,0> >::_Root
; Function compile flags: /Odt
_TEXT	ENDS
;	COMDAT ?_Rrotate@?$_Tree@V?$_Tmap_traits@KPAVIData@@U?$less@K@std@@V?$allocator@U?$pair@$$CBKPAVIData@@@std@@@3@$0A@@std@@@std@@IAEXPAU_Node@?$_Tree_nod@V?$_Tmap_traits@KPAVIData@@U?$less@K@std@@V?$allocator@U?$pair@$$CBKPAVIData@@@std@@@3@$0A@@std@@@2@@Z
_TEXT	SEGMENT
_this$ = -8						; size = 4
__Pnode$ = -4						; size = 4
__Wherenode$ = 8					; size = 4
?_Rrotate@?$_Tree@V?$_Tmap_traits@KPAVIData@@U?$less@K@std@@V?$allocator@U?$pair@$$CBKPAVIData@@@std@@@3@$0A@@std@@@std@@IAEXPAU_Node@?$_Tree_nod@V?$_Tmap_traits@KPAVIData@@U?$less@K@std@@V?$allocator@U?$pair@$$CBKPAVIData@@@std@@@3@$0A@@std@@@2@@Z PROC NEAR ; std::_Tree<std::_Tmap_traits<unsigned long,IData *,std::less<unsigned long>,std::allocator<std::pair<unsigned long const ,IData *> >,0> >::_Rrotate, COMDAT
; _this$ = ecx

; 1068 : 		{	// promote left node to root of subtree

  00000	55		 push	 ebp
  00001	8b ec		 mov	 ebp, esp
  00003	83 ec 08	 sub	 esp, 8
  00006	56		 push	 esi
  00007	89 4d f8	 mov	 DWORD PTR _this$[ebp], ecx

; 1069 : 		_Nodeptr _Pnode = _Left(_Wherenode);

  0000a	8b 45 08	 mov	 eax, DWORD PTR __Wherenode$[ebp]
  0000d	50		 push	 eax
  0000e	e8 00 00 00 00	 call	 ?_Left@?$_Tree@V?$_Tmap_traits@KPAVIData@@U?$less@K@std@@V?$allocator@U?$pair@$$CBKPAVIData@@@std@@@3@$0A@@std@@@std@@KAAAPAU_Node@?$_Tree_nod@V?$_Tmap_traits@KPAVIData@@U?$less@K@std@@V?$allocator@U?$pair@$$CBKPAVIData@@@std@@@3@$0A@@std@@@2@PAU342@@Z ; std::_Tree<std::_Tmap_traits<unsigned long,IData *,std::less<unsigned long>,std::allocator<std::pair<unsigned long const ,IData *> >,0> >::_Left
  00013	83 c4 04	 add	 esp, 4
  00016	8b 08		 mov	 ecx, DWORD PTR [eax]
  00018	89 4d fc	 mov	 DWORD PTR __Pnode$[ebp], ecx

; 1070 : 		_Left(_Wherenode) = _Right(_Pnode);

  0001b	8b 55 fc	 mov	 edx, DWORD PTR __Pnode$[ebp]
  0001e	52		 push	 edx
  0001f	e8 00 00 00 00	 call	 ?_Right@?$_Tree@V?$_Tmap_traits@KPAVIData@@U?$less@K@std@@V?$allocator@U?$pair@$$CBKPAVIData@@@std@@@3@$0A@@std@@@std@@KAAAPAU_Node@?$_Tree_nod@V?$_Tmap_traits@KPAVIData@@U?$less@K@std@@V?$allocator@U?$pair@$$CBKPAVIData@@@std@@@3@$0A@@std@@@2@PAU342@@Z ; std::_Tree<std::_Tmap_traits<unsigned long,IData *,std::less<unsigned long>,std::allocator<std::pair<unsigned long const ,IData *> >,0> >::_Right
  00024	83 c4 04	 add	 esp, 4
  00027	8b f0		 mov	 esi, eax
  00029	8b 45 08	 mov	 eax, DWORD PTR __Wherenode$[ebp]
  0002c	50		 push	 eax
  0002d	e8 00 00 00 00	 call	 ?_Left@?$_Tree@V?$_Tmap_traits@KPAVIData@@U?$less@K@std@@V?$allocator@U?$pair@$$CBKPAVIData@@@std@@@3@$0A@@std@@@std@@KAAAPAU_Node@?$_Tree_nod@V?$_Tmap_traits@KPAVIData@@U?$less@K@std@@V?$allocator@U?$pair@$$CBKPAVIData@@@std@@@3@$0A@@std@@@2@PAU342@@Z ; std::_Tree<std::_Tmap_traits<unsigned long,IData *,std::less<unsigned long>,std::allocator<std::pair<unsigned long const ,IData *> >,0> >::_Left
  00032	83 c4 04	 add	 esp, 4
  00035	8b 0e		 mov	 ecx, DWORD PTR [esi]
  00037	89 08		 mov	 DWORD PTR [eax], ecx

; 1071 : 
; 1072 : 		if (!_Isnil(_Right(_Pnode)))

  00039	8b 55 fc	 mov	 edx, DWORD PTR __Pnode$[ebp]
  0003c	52		 push	 edx
  0003d	e8 00 00 00 00	 call	 ?_Right@?$_Tree@V?$_Tmap_traits@KPAVIData@@U?$less@K@std@@V?$allocator@U?$pair@$$CBKPAVIData@@@std@@@3@$0A@@std@@@std@@KAAAPAU_Node@?$_Tree_nod@V?$_Tmap_traits@KPAVIData@@U?$less@K@std@@V?$allocator@U?$pair@$$CBKPAVIData@@@std@@@3@$0A@@std@@@2@PAU342@@Z ; std::_Tree<std::_Tmap_traits<unsigned long,IData *,std::less<unsigned long>,std::allocator<std::pair<unsigned long const ,IData *> >,0> >::_Right
  00042	83 c4 04	 add	 esp, 4
  00045	8b 00		 mov	 eax, DWORD PTR [eax]
  00047	50		 push	 eax
  00048	e8 00 00 00 00	 call	 ?_Isnil@?$_Tree@V?$_Tmap_traits@KPAVIData@@U?$less@K@std@@V?$allocator@U?$pair@$$CBKPAVIData@@@std@@@3@$0A@@std@@@std@@KAAADPAU_Node@?$_Tree_nod@V?$_Tmap_traits@KPAVIData@@U?$less@K@std@@V?$allocator@U?$pair@$$CBKPAVIData@@@std@@@3@$0A@@std@@@2@@Z ; std::_Tree<std::_Tmap_traits<unsigned long,IData *,std::less<unsigned long>,std::allocator<std::pair<unsigned long const ,IData *> >,0> >::_Isnil
  0004d	83 c4 04	 add	 esp, 4
  00050	0f be 08	 movsx	 ecx, BYTE PTR [eax]
  00053	85 c9		 test	 ecx, ecx
  00055	75 1c		 jne	 SHORT $L199842

; 1073 : 			_Parent(_Right(_Pnode)) = _Wherenode;

  00057	8b 55 fc	 mov	 edx, DWORD PTR __Pnode$[ebp]
  0005a	52		 push	 edx
  0005b	e8 00 00 00 00	 call	 ?_Right@?$_Tree@V?$_Tmap_traits@KPAVIData@@U?$less@K@std@@V?$allocator@U?$pair@$$CBKPAVIData@@@std@@@3@$0A@@std@@@std@@KAAAPAU_Node@?$_Tree_nod@V?$_Tmap_traits@KPAVIData@@U?$less@K@std@@V?$allocator@U?$pair@$$CBKPAVIData@@@std@@@3@$0A@@std@@@2@PAU342@@Z ; std::_Tree<std::_Tmap_traits<unsigned long,IData *,std::less<unsigned long>,std::allocator<std::pair<unsigned long const ,IData *> >,0> >::_Right
  00060	83 c4 04	 add	 esp, 4
  00063	8b 00		 mov	 eax, DWORD PTR [eax]
  00065	50		 push	 eax
  00066	e8 00 00 00 00	 call	 ?_Parent@?$_Tree@V?$_Tmap_traits@KPAVIData@@U?$less@K@std@@V?$allocator@U?$pair@$$CBKPAVIData@@@std@@@3@$0A@@std@@@std@@KAAAPAU_Node@?$_Tree_nod@V?$_Tmap_traits@KPAVIData@@U?$less@K@std@@V?$allocator@U?$pair@$$CBKPAVIData@@@std@@@3@$0A@@std@@@2@PAU342@@Z ; std::_Tree<std::_Tmap_traits<unsigned long,IData *,std::less<unsigned long>,std::allocator<std::pair<unsigned long const ,IData *> >,0> >::_Parent
  0006b	83 c4 04	 add	 esp, 4
  0006e	8b 4d 08	 mov	 ecx, DWORD PTR __Wherenode$[ebp]
  00071	89 08		 mov	 DWORD PTR [eax], ecx
$L199842:

; 1074 : 		_Parent(_Pnode) = _Parent(_Wherenode);

  00073	8b 55 08	 mov	 edx, DWORD PTR __Wherenode$[ebp]
  00076	52		 push	 edx
  00077	e8 00 00 00 00	 call	 ?_Parent@?$_Tree@V?$_Tmap_traits@KPAVIData@@U?$less@K@std@@V?$allocator@U?$pair@$$CBKPAVIData@@@std@@@3@$0A@@std@@@std@@KAAAPAU_Node@?$_Tree_nod@V?$_Tmap_traits@KPAVIData@@U?$less@K@std@@V?$allocator@U?$pair@$$CBKPAVIData@@@std@@@3@$0A@@std@@@2@PAU342@@Z ; std::_Tree<std::_Tmap_traits<unsigned long,IData *,std::less<unsigned long>,std::allocator<std::pair<unsigned long const ,IData *> >,0> >::_Parent
  0007c	83 c4 04	 add	 esp, 4
  0007f	8b f0		 mov	 esi, eax
  00081	8b 45 fc	 mov	 eax, DWORD PTR __Pnode$[ebp]
  00084	50		 push	 eax
  00085	e8 00 00 00 00	 call	 ?_Parent@?$_Tree@V?$_Tmap_traits@KPAVIData@@U?$less@K@std@@V?$allocator@U?$pair@$$CBKPAVIData@@@std@@@3@$0A@@std@@@std@@KAAAPAU_Node@?$_Tree_nod@V?$_Tmap_traits@KPAVIData@@U?$less@K@std@@V?$allocator@U?$pair@$$CBKPAVIData@@@std@@@3@$0A@@std@@@2@PAU342@@Z ; std::_Tree<std::_Tmap_traits<unsigned long,IData *,std::less<unsigned long>,std::allocator<std::pair<unsigned long const ,IData *> >,0> >::_Parent
  0008a	83 c4 04	 add	 esp, 4
  0008d	8b 0e		 mov	 ecx, DWORD PTR [esi]
  0008f	89 08		 mov	 DWORD PTR [eax], ecx

; 1075 : 
; 1076 : 		if (_Wherenode == _Root())

  00091	8b 4d f8	 mov	 ecx, DWORD PTR _this$[ebp]
  00094	e8 00 00 00 00	 call	 ?_Root@?$_Tree@V?$_Tmap_traits@KPAVIData@@U?$less@K@std@@V?$allocator@U?$pair@$$CBKPAVIData@@@std@@@3@$0A@@std@@@std@@IAEAAPAU_Node@?$_Tree_nod@V?$_Tmap_traits@KPAVIData@@U?$less@K@std@@V?$allocator@U?$pair@$$CBKPAVIData@@@std@@@3@$0A@@std@@@2@XZ ; std::_Tree<std::_Tmap_traits<unsigned long,IData *,std::less<unsigned long>,std::allocator<std::pair<unsigned long const ,IData *> >,0> >::_Root
  00099	8b 55 08	 mov	 edx, DWORD PTR __Wherenode$[ebp]
  0009c	3b 10		 cmp	 edx, DWORD PTR [eax]
  0009e	75 0f		 jne	 SHORT $L199843

; 1077 : 			_Root() = _Pnode;

  000a0	8b 4d f8	 mov	 ecx, DWORD PTR _this$[ebp]
  000a3	e8 00 00 00 00	 call	 ?_Root@?$_Tree@V?$_Tmap_traits@KPAVIData@@U?$less@K@std@@V?$allocator@U?$pair@$$CBKPAVIData@@@std@@@3@$0A@@std@@@std@@IAEAAPAU_Node@?$_Tree_nod@V?$_Tmap_traits@KPAVIData@@U?$less@K@std@@V?$allocator@U?$pair@$$CBKPAVIData@@@std@@@3@$0A@@std@@@2@XZ ; std::_Tree<std::_Tmap_traits<unsigned long,IData *,std::less<unsigned long>,std::allocator<std::pair<unsigned long const ,IData *> >,0> >::_Root
  000a8	8b 4d fc	 mov	 ecx, DWORD PTR __Pnode$[ebp]
  000ab	89 08		 mov	 DWORD PTR [eax], ecx

; 1078 : 		else if (_Wherenode == _Right(_Parent(_Wherenode)))

  000ad	eb 58		 jmp	 SHORT $L199844
$L199843:
  000af	8b 55 08	 mov	 edx, DWORD PTR __Wherenode$[ebp]
  000b2	52		 push	 edx
  000b3	e8 00 00 00 00	 call	 ?_Parent@?$_Tree@V?$_Tmap_traits@KPAVIData@@U?$less@K@std@@V?$allocator@U?$pair@$$CBKPAVIData@@@std@@@3@$0A@@std@@@std@@KAAAPAU_Node@?$_Tree_nod@V?$_Tmap_traits@KPAVIData@@U?$less@K@std@@V?$allocator@U?$pair@$$CBKPAVIData@@@std@@@3@$0A@@std@@@2@PAU342@@Z ; std::_Tree<std::_Tmap_traits<unsigned long,IData *,std::less<unsigned long>,std::allocator<std::pair<unsigned long const ,IData *> >,0> >::_Parent
  000b8	83 c4 04	 add	 esp, 4
  000bb	8b 00		 mov	 eax, DWORD PTR [eax]
  000bd	50		 push	 eax
  000be	e8 00 00 00 00	 call	 ?_Right@?$_Tree@V?$_Tmap_traits@KPAVIData@@U?$less@K@std@@V?$allocator@U?$pair@$$CBKPAVIData@@@std@@@3@$0A@@std@@@std@@KAAAPAU_Node@?$_Tree_nod@V?$_Tmap_traits@KPAVIData@@U?$less@K@std@@V?$allocator@U?$pair@$$CBKPAVIData@@@std@@@3@$0A@@std@@@2@PAU342@@Z ; std::_Tree<std::_Tmap_traits<unsigned long,IData *,std::less<unsigned long>,std::allocator<std::pair<unsigned long const ,IData *> >,0> >::_Right
  000c3	83 c4 04	 add	 esp, 4
  000c6	8b 4d 08	 mov	 ecx, DWORD PTR __Wherenode$[ebp]
  000c9	3b 08		 cmp	 ecx, DWORD PTR [eax]
  000cb	75 1e		 jne	 SHORT $L199845

; 1079 : 			_Right(_Parent(_Wherenode)) = _Pnode;

  000cd	8b 55 08	 mov	 edx, DWORD PTR __Wherenode$[ebp]
  000d0	52		 push	 edx
  000d1	e8 00 00 00 00	 call	 ?_Parent@?$_Tree@V?$_Tmap_traits@KPAVIData@@U?$less@K@std@@V?$allocator@U?$pair@$$CBKPAVIData@@@std@@@3@$0A@@std@@@std@@KAAAPAU_Node@?$_Tree_nod@V?$_Tmap_traits@KPAVIData@@U?$less@K@std@@V?$allocator@U?$pair@$$CBKPAVIData@@@std@@@3@$0A@@std@@@2@PAU342@@Z ; std::_Tree<std::_Tmap_traits<unsigned long,IData *,std::less<unsigned long>,std::allocator<std::pair<unsigned long const ,IData *> >,0> >::_Parent
  000d6	83 c4 04	 add	 esp, 4
  000d9	8b 00		 mov	 eax, DWORD PTR [eax]
  000db	50		 push	 eax
  000dc	e8 00 00 00 00	 call	 ?_Right@?$_Tree@V?$_Tmap_traits@KPAVIData@@U?$less@K@std@@V?$allocator@U?$pair@$$CBKPAVIData@@@std@@@3@$0A@@std@@@std@@KAAAPAU_Node@?$_Tree_nod@V?$_Tmap_traits@KPAVIData@@U?$less@K@std@@V?$allocator@U?$pair@$$CBKPAVIData@@@std@@@3@$0A@@std@@@2@PAU342@@Z ; std::_Tree<std::_Tmap_traits<unsigned long,IData *,std::less<unsigned long>,std::allocator<std::pair<unsigned long const ,IData *> >,0> >::_Right
  000e1	83 c4 04	 add	 esp, 4
  000e4	8b 4d fc	 mov	 ecx, DWORD PTR __Pnode$[ebp]
  000e7	89 08		 mov	 DWORD PTR [eax], ecx

; 1080 : 		else

  000e9	eb 1c		 jmp	 SHORT $L199844
$L199845:

; 1081 : 			_Left(_Parent(_Wherenode)) = _Pnode;

  000eb	8b 55 08	 mov	 edx, DWORD PTR __Wherenode$[ebp]
  000ee	52		 push	 edx
  000ef	e8 00 00 00 00	 call	 ?_Parent@?$_Tree@V?$_Tmap_traits@KPAVIData@@U?$less@K@std@@V?$allocator@U?$pair@$$CBKPAVIData@@@std@@@3@$0A@@std@@@std@@KAAAPAU_Node@?$_Tree_nod@V?$_Tmap_traits@KPAVIData@@U?$less@K@std@@V?$allocator@U?$pair@$$CBKPAVIData@@@std@@@3@$0A@@std@@@2@PAU342@@Z ; std::_Tree<std::_Tmap_traits<unsigned long,IData *,std::less<unsigned long>,std::allocator<std::pair<unsigned long const ,IData *> >,0> >::_Parent
  000f4	83 c4 04	 add	 esp, 4
  000f7	8b 00		 mov	 eax, DWORD PTR [eax]
  000f9	50		 push	 eax
  000fa	e8 00 00 00 00	 call	 ?_Left@?$_Tree@V?$_Tmap_traits@KPAVIData@@U?$less@K@std@@V?$allocator@U?$pair@$$CBKPAVIData@@@std@@@3@$0A@@std@@@std@@KAAAPAU_Node@?$_Tree_nod@V?$_Tmap_traits@KPAVIData@@U?$less@K@std@@V?$allocator@U?$pair@$$CBKPAVIData@@@std@@@3@$0A@@std@@@2@PAU342@@Z ; std::_Tree<std::_Tmap_traits<unsigned long,IData *,std::less<unsigned long>,std::allocator<std::pair<unsigned long const ,IData *> >,0> >::_Left
  000ff	83 c4 04	 add	 esp, 4
  00102	8b 4d fc	 mov	 ecx, DWORD PTR __Pnode$[ebp]
  00105	89 08		 mov	 DWORD PTR [eax], ecx
$L199844:

; 1082 : 
; 1083 : 		_Right(_Pnode) = _Wherenode;

  00107	8b 55 fc	 mov	 edx, DWORD PTR __Pnode$[ebp]
  0010a	52		 push	 edx
  0010b	e8 00 00 00 00	 call	 ?_Right@?$_Tree@V?$_Tmap_traits@KPAVIData@@U?$less@K@std@@V?$allocator@U?$pair@$$CBKPAVIData@@@std@@@3@$0A@@std@@@std@@KAAAPAU_Node@?$_Tree_nod@V?$_Tmap_traits@KPAVIData@@U?$less@K@std@@V?$allocator@U?$pair@$$CBKPAVIData@@@std@@@3@$0A@@std@@@2@PAU342@@Z ; std::_Tree<std::_Tmap_traits<unsigned long,IData *,std::less<unsigned long>,std::allocator<std::pair<unsigned long const ,IData *> >,0> >::_Right
  00110	83 c4 04	 add	 esp, 4
  00113	8b 4d 08	 mov	 ecx, DWORD PTR __Wherenode$[ebp]
  00116	89 08		 mov	 DWORD PTR [eax], ecx

; 1084 : 		_Parent(_Wherenode) = _Pnode;

  00118	8b 55 08	 mov	 edx, DWORD PTR __Wherenode$[ebp]
  0011b	52		 push	 edx
  0011c	e8 00 00 00 00	 call	 ?_Parent@?$_Tree@V?$_Tmap_traits@KPAVIData@@U?$less@K@std@@V?$allocator@U?$pair@$$CBKPAVIData@@@std@@@3@$0A@@std@@@std@@KAAAPAU_Node@?$_Tree_nod@V?$_Tmap_traits@KPAVIData@@U?$less@K@std@@V?$allocator@U?$pair@$$CBKPAVIData@@@std@@@3@$0A@@std@@@2@PAU342@@Z ; std::_Tree<std::_Tmap_traits<unsigned long,IData *,std::less<unsigned long>,std::allocator<std::pair<unsigned long const ,IData *> >,0> >::_Parent
  00121	83 c4 04	 add	 esp, 4
  00124	8b 4d fc	 mov	 ecx, DWORD PTR __Pnode$[ebp]
  00127	89 08		 mov	 DWORD PTR [eax], ecx

; 1085 : 		}

  00129	5e		 pop	 esi
  0012a	8b e5		 mov	 esp, ebp
  0012c	5d		 pop	 ebp
  0012d	c2 04 00	 ret	 4
?_Rrotate@?$_Tree@V?$_Tmap_traits@KPAVIData@@U?$less@K@std@@V?$allocator@U?$pair@$$CBKPAVIData@@@std@@@3@$0A@@std@@@std@@IAEXPAU_Node@?$_Tree_nod@V?$_Tmap_traits@KPAVIData@@U?$less@K@std@@V?$allocator@U?$pair@$$CBKPAVIData@@@std@@@3@$0A@@std@@@2@@Z ENDP ; std::_Tree<std::_Tmap_traits<unsigned long,IData *,std::less<unsigned long>,std::allocator<std::pair<unsigned long const ,IData *> >,0> >::_Rrotate
; Function compile flags: /Odt
_TEXT	ENDS
;	COMDAT ?_Ubound@?$_Tree@V?$_Tmap_traits@KPAVIData@@U?$less@K@std@@V?$allocator@U?$pair@$$CBKPAVIData@@@std@@@3@$0A@@std@@@std@@IBEPAU_Node@?$_Tree_nod@V?$_Tmap_traits@KPAVIData@@U?$less@K@std@@V?$allocator@U?$pair@$$CBKPAVIData@@@std@@@3@$0A@@std@@@2@ABK@Z
_TEXT	SEGMENT
_this$ = -12						; size = 4
__Pnode$ = -8						; size = 4
__Wherenode$ = -4					; size = 4
__Keyval$ = 8						; size = 4
?_Ubound@?$_Tree@V?$_Tmap_traits@KPAVIData@@U?$less@K@std@@V?$allocator@U?$pair@$$CBKPAVIData@@@std@@@3@$0A@@std@@@std@@IBEPAU_Node@?$_Tree_nod@V?$_Tmap_traits@KPAVIData@@U?$less@K@std@@V?$allocator@U?$pair@$$CBKPAVIData@@@std@@@3@$0A@@std@@@2@ABK@Z PROC NEAR ; std::_Tree<std::_Tmap_traits<unsigned long,IData *,std::less<unsigned long>,std::allocator<std::pair<unsigned long const ,IData *> >,0> >::_Ubound, COMDAT
; _this$ = ecx

; 1088 : 		{	// find leftmost node greater than _Keyval

  00000	55		 push	 ebp
  00001	8b ec		 mov	 ebp, esp
  00003	83 ec 0c	 sub	 esp, 12			; 0000000cH
  00006	89 4d f4	 mov	 DWORD PTR _this$[ebp], ecx

; 1089 : 		_Nodeptr _Pnode = _Root();

  00009	8b 4d f4	 mov	 ecx, DWORD PTR _this$[ebp]
  0000c	e8 00 00 00 00	 call	 ?_Root@?$_Tree@V?$_Tmap_traits@KPAVIData@@U?$less@K@std@@V?$allocator@U?$pair@$$CBKPAVIData@@@std@@@3@$0A@@std@@@std@@IBEAAPAU_Node@?$_Tree_nod@V?$_Tmap_traits@KPAVIData@@U?$less@K@std@@V?$allocator@U?$pair@$$CBKPAVIData@@@std@@@3@$0A@@std@@@2@XZ ; std::_Tree<std::_Tmap_traits<unsigned long,IData *,std::less<unsigned long>,std::allocator<std::pair<unsigned long const ,IData *> >,0> >::_Root
  00011	8b 00		 mov	 eax, DWORD PTR [eax]
  00013	89 45 f8	 mov	 DWORD PTR __Pnode$[ebp], eax

; 1090 : 		_Nodeptr _Wherenode = _Myhead;	// end() if search fails

  00016	8b 4d f4	 mov	 ecx, DWORD PTR _this$[ebp]
  00019	8b 51 04	 mov	 edx, DWORD PTR [ecx+4]
  0001c	89 55 fc	 mov	 DWORD PTR __Wherenode$[ebp], edx
$L199852:

; 1091 : 
; 1092 : 		while (!_Isnil(_Pnode))

  0001f	8b 45 f8	 mov	 eax, DWORD PTR __Pnode$[ebp]
  00022	50		 push	 eax
  00023	e8 00 00 00 00	 call	 ?_Isnil@?$_Tree@V?$_Tmap_traits@KPAVIData@@U?$less@K@std@@V?$allocator@U?$pair@$$CBKPAVIData@@@std@@@3@$0A@@std@@@std@@KAAADPAU_Node@?$_Tree_nod@V?$_Tmap_traits@KPAVIData@@U?$less@K@std@@V?$allocator@U?$pair@$$CBKPAVIData@@@std@@@3@$0A@@std@@@2@@Z ; std::_Tree<std::_Tmap_traits<unsigned long,IData *,std::less<unsigned long>,std::allocator<std::pair<unsigned long const ,IData *> >,0> >::_Isnil
  00028	83 c4 04	 add	 esp, 4
  0002b	0f be 08	 movsx	 ecx, BYTE PTR [eax]
  0002e	85 c9		 test	 ecx, ecx
  00030	75 4c		 jne	 SHORT $L199853

; 1093 : 			if (this->comp(_Keyval, _Key(_Pnode)))

  00032	8b 55 f8	 mov	 edx, DWORD PTR __Pnode$[ebp]
  00035	52		 push	 edx
  00036	e8 00 00 00 00	 call	 ?_Key@?$_Tree@V?$_Tmap_traits@KPAVIData@@U?$less@K@std@@V?$allocator@U?$pair@$$CBKPAVIData@@@std@@@3@$0A@@std@@@std@@KAABKPAU_Node@?$_Tree_nod@V?$_Tmap_traits@KPAVIData@@U?$less@K@std@@V?$allocator@U?$pair@$$CBKPAVIData@@@std@@@3@$0A@@std@@@2@@Z ; std::_Tree<std::_Tmap_traits<unsigned long,IData *,std::less<unsigned long>,std::allocator<std::pair<unsigned long const ,IData *> >,0> >::_Key
  0003b	83 c4 04	 add	 esp, 4
  0003e	50		 push	 eax
  0003f	8b 45 08	 mov	 eax, DWORD PTR __Keyval$[ebp]
  00042	50		 push	 eax
  00043	8b 4d f4	 mov	 ecx, DWORD PTR _this$[ebp]
  00046	e8 00 00 00 00	 call	 ??R?$less@K@std@@QBE_NABK0@Z ; std::less<unsigned long>::operator()
  0004b	0f b6 c8	 movzx	 ecx, al
  0004e	85 c9		 test	 ecx, ecx
  00050	74 19		 je	 SHORT $L199854

; 1094 : 				{	// _Pnode greater than _Keyval, remember it
; 1095 : 				_Wherenode = _Pnode;

  00052	8b 55 f8	 mov	 edx, DWORD PTR __Pnode$[ebp]
  00055	89 55 fc	 mov	 DWORD PTR __Wherenode$[ebp], edx

; 1096 : 				_Pnode = _Left(_Pnode);	// descend left subtree

  00058	8b 45 f8	 mov	 eax, DWORD PTR __Pnode$[ebp]
  0005b	50		 push	 eax
  0005c	e8 00 00 00 00	 call	 ?_Left@?$_Tree@V?$_Tmap_traits@KPAVIData@@U?$less@K@std@@V?$allocator@U?$pair@$$CBKPAVIData@@@std@@@3@$0A@@std@@@std@@KAAAPAU_Node@?$_Tree_nod@V?$_Tmap_traits@KPAVIData@@U?$less@K@std@@V?$allocator@U?$pair@$$CBKPAVIData@@@std@@@3@$0A@@std@@@2@PAU342@@Z ; std::_Tree<std::_Tmap_traits<unsigned long,IData *,std::less<unsigned long>,std::allocator<std::pair<unsigned long const ,IData *> >,0> >::_Left
  00061	83 c4 04	 add	 esp, 4
  00064	8b 08		 mov	 ecx, DWORD PTR [eax]
  00066	89 4d f8	 mov	 DWORD PTR __Pnode$[ebp], ecx

; 1097 : 				}
; 1098 : 			else

  00069	eb 11		 jmp	 SHORT $L199855
$L199854:

; 1099 : 				_Pnode = _Right(_Pnode);	// descend right subtree

  0006b	8b 55 f8	 mov	 edx, DWORD PTR __Pnode$[ebp]
  0006e	52		 push	 edx
  0006f	e8 00 00 00 00	 call	 ?_Right@?$_Tree@V?$_Tmap_traits@KPAVIData@@U?$less@K@std@@V?$allocator@U?$pair@$$CBKPAVIData@@@std@@@3@$0A@@std@@@std@@KAAAPAU_Node@?$_Tree_nod@V?$_Tmap_traits@KPAVIData@@U?$less@K@std@@V?$allocator@U?$pair@$$CBKPAVIData@@@std@@@3@$0A@@std@@@2@PAU342@@Z ; std::_Tree<std::_Tmap_traits<unsigned long,IData *,std::less<unsigned long>,std::allocator<std::pair<unsigned long const ,IData *> >,0> >::_Right
  00074	83 c4 04	 add	 esp, 4
  00077	8b 00		 mov	 eax, DWORD PTR [eax]
  00079	89 45 f8	 mov	 DWORD PTR __Pnode$[ebp], eax
$L199855:
  0007c	eb a1		 jmp	 SHORT $L199852
$L199853:

; 1100 : 
; 1101 : 		return (_Wherenode);	// return best remembered candidate

  0007e	8b 45 fc	 mov	 eax, DWORD PTR __Wherenode$[ebp]

; 1102 : 		}

  00081	8b e5		 mov	 esp, ebp
  00083	5d		 pop	 ebp
  00084	c2 04 00	 ret	 4
?_Ubound@?$_Tree@V?$_Tmap_traits@KPAVIData@@U?$less@K@std@@V?$allocator@U?$pair@$$CBKPAVIData@@@std@@@3@$0A@@std@@@std@@IBEPAU_Node@?$_Tree_nod@V?$_Tmap_traits@KPAVIData@@U?$less@K@std@@V?$allocator@U?$pair@$$CBKPAVIData@@@std@@@3@$0A@@std@@@2@ABK@Z ENDP ; std::_Tree<std::_Tmap_traits<unsigned long,IData *,std::less<unsigned long>,std::allocator<std::pair<unsigned long const ,IData *> >,0> >::_Ubound
_TEXT	ENDS
PUBLIC	?allocate@?$allocator@U_Node@?$_Tree_nod@V?$_Tmap_traits@KPAVIData@@U?$less@K@std@@V?$allocator@U?$pair@$$CBKPAVIData@@@std@@@3@$0A@@std@@@std@@@std@@QAEPAU_Node@?$_Tree_nod@V?$_Tmap_traits@KPAVIData@@U?$less@K@std@@V?$allocator@U?$pair@$$CBKPAVIData@@@std@@@3@$0A@@std@@@2@I@Z ; std::allocator<std::_Tree_nod<std::_Tmap_traits<unsigned long,IData *,std::less<unsigned long>,std::allocator<std::pair<unsigned long const ,IData *> >,0> >::_Node>::allocate
PUBLIC	?construct@?$allocator@PAU_Node@?$_Tree_nod@V?$_Tmap_traits@KPAVIData@@U?$less@K@std@@V?$allocator@U?$pair@$$CBKPAVIData@@@std@@@3@$0A@@std@@@std@@@std@@QAEXPAPAU_Node@?$_Tree_nod@V?$_Tmap_traits@KPAVIData@@U?$less@K@std@@V?$allocator@U?$pair@$$CBKPAVIData@@@std@@@3@$0A@@std@@@2@ABQAU342@@Z ; std::allocator<std::_Tree_nod<std::_Tmap_traits<unsigned long,IData *,std::less<unsigned long>,std::allocator<std::pair<unsigned long const ,IData *> >,0> >::_Node *>::construct
;	COMDAT xdata$x
xdata$x	SEGMENT
$T200760 DD	0ffffffffH
	DD	00H
	DD	0ffffffffH
	DD	00H
$T200762 DD	00H
	DD	00H
	DD	00H
	DD	FLAT:$L200756
$T200761 DD	00H
	DD	00H
	DD	01H
	DD	01H
	DD	FLAT:$T200762
$T200758 DD	019930520H
	DD	02H
	DD	FLAT:$T200760
	DD	01H
	DD	FLAT:$T200761
	DD	2 DUP(00H)
; Function compile flags: /Odt
xdata$x	ENDS
;	COMDAT ?_Buynode@?$_Tree@V?$_Tmap_traits@KPAVIData@@U?$less@K@std@@V?$allocator@U?$pair@$$CBKPAVIData@@@std@@@3@$0A@@std@@@std@@IAEPAU_Node@?$_Tree_nod@V?$_Tmap_traits@KPAVIData@@U?$less@K@std@@V?$allocator@U?$pair@$$CBKPAVIData@@@std@@@3@$0A@@std@@@2@XZ
_TEXT	SEGMENT
tv145 = -52						; size = 4
tv144 = -48						; size = 4
tv143 = -44						; size = 4
_this$ = -40						; size = 4
$T200754 = -36						; size = 4
$T200753 = -32						; size = 4
$T200752 = -28						; size = 4
__Wherenode$ = -24					; size = 4
__Linkcnt$ = -20					; size = 4
__$EHRec$ = -16						; size = 16
?_Buynode@?$_Tree@V?$_Tmap_traits@KPAVIData@@U?$less@K@std@@V?$allocator@U?$pair@$$CBKPAVIData@@@std@@@3@$0A@@std@@@std@@IAEPAU_Node@?$_Tree_nod@V?$_Tmap_traits@KPAVIData@@U?$less@K@std@@V?$allocator@U?$pair@$$CBKPAVIData@@@std@@@3@$0A@@std@@@2@XZ PROC NEAR ; std::_Tree<std::_Tmap_traits<unsigned long,IData *,std::less<unsigned long>,std::allocator<std::pair<unsigned long const ,IData *> >,0> >::_Buynode, COMDAT
; _this$ = ecx

; 1105 : 		{	// allocate a head/nil node

  00000	55		 push	 ebp
  00001	8b ec		 mov	 ebp, esp
  00003	6a ff		 push	 -1
  00005	68 00 00 00 00	 push	 __ehhandler$?_Buynode@?$_Tree@V?$_Tmap_traits@KPAVIData@@U?$less@K@std@@V?$allocator@U?$pair@$$CBKPAVIData@@@std@@@3@$0A@@std@@@std@@IAEPAU_Node@?$_Tree_nod@V?$_Tmap_traits@KPAVIData@@U?$less@K@std@@V?$allocator@U?$pair@$$CBKPAVIData@@@std@@@3@$0A@@std@@@2@XZ
  0000a	64 a1 00 00 00
	00		 mov	 eax, DWORD PTR fs:__except_list
  00010	50		 push	 eax
  00011	64 89 25 00 00
	00 00		 mov	 DWORD PTR fs:__except_list, esp
  00018	51		 push	 ecx
  00019	83 ec 24	 sub	 esp, 36			; 00000024H
  0001c	53		 push	 ebx
  0001d	56		 push	 esi
  0001e	57		 push	 edi
  0001f	89 65 f0	 mov	 DWORD PTR __$EHRec$[ebp], esp
  00022	89 4d d8	 mov	 DWORD PTR _this$[ebp], ecx

; 1106 : 		_Nodeptr _Wherenode = this->_Alnod.allocate(1);

  00025	6a 01		 push	 1
  00027	8b 4d d8	 mov	 ecx, DWORD PTR _this$[ebp]
  0002a	83 c1 01	 add	 ecx, 1
  0002d	e8 00 00 00 00	 call	 ?allocate@?$allocator@U_Node@?$_Tree_nod@V?$_Tmap_traits@KPAVIData@@U?$less@K@std@@V?$allocator@U?$pair@$$CBKPAVIData@@@std@@@3@$0A@@std@@@std@@@std@@QAEPAU_Node@?$_Tree_nod@V?$_Tmap_traits@KPAVIData@@U?$less@K@std@@V?$allocator@U?$pair@$$CBKPAVIData@@@std@@@3@$0A@@std@@@2@I@Z ; std::allocator<std::_Tree_nod<std::_Tmap_traits<unsigned long,IData *,std::less<unsigned long>,std::allocator<std::pair<unsigned long const ,IData *> >,0> >::_Node>::allocate
  00032	89 45 e8	 mov	 DWORD PTR __Wherenode$[ebp], eax

; 1107 : 		int _Linkcnt = 0;

  00035	c7 45 ec 00 00
	00 00		 mov	 DWORD PTR __Linkcnt$[ebp], 0

; 1108 : 
; 1109 : 		_TRY_BEGIN

  0003c	c7 45 fc 00 00
	00 00		 mov	 DWORD PTR __$EHRec$[ebp+12], 0

; 1110 : 		this->_Alptr.construct(&_Left(_Wherenode), 0);

  00043	c7 45 e4 00 00
	00 00		 mov	 DWORD PTR $T200752[ebp], 0
  0004a	8b 45 e8	 mov	 eax, DWORD PTR __Wherenode$[ebp]
  0004d	50		 push	 eax
  0004e	e8 00 00 00 00	 call	 ?_Left@?$_Tree@V?$_Tmap_traits@KPAVIData@@U?$less@K@std@@V?$allocator@U?$pair@$$CBKPAVIData@@@std@@@3@$0A@@std@@@std@@KAAAPAU_Node@?$_Tree_nod@V?$_Tmap_traits@KPAVIData@@U?$less@K@std@@V?$allocator@U?$pair@$$CBKPAVIData@@@std@@@3@$0A@@std@@@2@PAU342@@Z ; std::_Tree<std::_Tmap_traits<unsigned long,IData *,std::less<unsigned long>,std::allocator<std::pair<unsigned long const ,IData *> >,0> >::_Left
  00053	83 c4 04	 add	 esp, 4
  00056	89 45 d4	 mov	 DWORD PTR tv143[ebp], eax
  00059	8d 4d e4	 lea	 ecx, DWORD PTR $T200752[ebp]
  0005c	51		 push	 ecx
  0005d	8b 55 d4	 mov	 edx, DWORD PTR tv143[ebp]
  00060	52		 push	 edx
  00061	8b 4d d8	 mov	 ecx, DWORD PTR _this$[ebp]
  00064	83 c1 02	 add	 ecx, 2
  00067	e8 00 00 00 00	 call	 ?construct@?$allocator@PAU_Node@?$_Tree_nod@V?$_Tmap_traits@KPAVIData@@U?$less@K@std@@V?$allocator@U?$pair@$$CBKPAVIData@@@std@@@3@$0A@@std@@@std@@@std@@QAEXPAPAU_Node@?$_Tree_nod@V?$_Tmap_traits@KPAVIData@@U?$less@K@std@@V?$allocator@U?$pair@$$CBKPAVIData@@@std@@@3@$0A@@std@@@2@ABQAU342@@Z ; std::allocator<std::_Tree_nod<std::_Tmap_traits<unsigned long,IData *,std::less<unsigned long>,std::allocator<std::pair<unsigned long const ,IData *> >,0> >::_Node *>::construct

; 1111 : 		++_Linkcnt;

  0006c	8b 45 ec	 mov	 eax, DWORD PTR __Linkcnt$[ebp]
  0006f	83 c0 01	 add	 eax, 1
  00072	89 45 ec	 mov	 DWORD PTR __Linkcnt$[ebp], eax

; 1112 : 		this->_Alptr.construct(&_Parent(_Wherenode), 0);

  00075	c7 45 e0 00 00
	00 00		 mov	 DWORD PTR $T200753[ebp], 0
  0007c	8b 4d e8	 mov	 ecx, DWORD PTR __Wherenode$[ebp]
  0007f	51		 push	 ecx
  00080	e8 00 00 00 00	 call	 ?_Parent@?$_Tree@V?$_Tmap_traits@KPAVIData@@U?$less@K@std@@V?$allocator@U?$pair@$$CBKPAVIData@@@std@@@3@$0A@@std@@@std@@KAAAPAU_Node@?$_Tree_nod@V?$_Tmap_traits@KPAVIData@@U?$less@K@std@@V?$allocator@U?$pair@$$CBKPAVIData@@@std@@@3@$0A@@std@@@2@PAU342@@Z ; std::_Tree<std::_Tmap_traits<unsigned long,IData *,std::less<unsigned long>,std::allocator<std::pair<unsigned long const ,IData *> >,0> >::_Parent
  00085	83 c4 04	 add	 esp, 4
  00088	89 45 d0	 mov	 DWORD PTR tv144[ebp], eax
  0008b	8d 55 e0	 lea	 edx, DWORD PTR $T200753[ebp]
  0008e	52		 push	 edx
  0008f	8b 45 d0	 mov	 eax, DWORD PTR tv144[ebp]
  00092	50		 push	 eax
  00093	8b 4d d8	 mov	 ecx, DWORD PTR _this$[ebp]
  00096	83 c1 02	 add	 ecx, 2
  00099	e8 00 00 00 00	 call	 ?construct@?$allocator@PAU_Node@?$_Tree_nod@V?$_Tmap_traits@KPAVIData@@U?$less@K@std@@V?$allocator@U?$pair@$$CBKPAVIData@@@std@@@3@$0A@@std@@@std@@@std@@QAEXPAPAU_Node@?$_Tree_nod@V?$_Tmap_traits@KPAVIData@@U?$less@K@std@@V?$allocator@U?$pair@$$CBKPAVIData@@@std@@@3@$0A@@std@@@2@ABQAU342@@Z ; std::allocator<std::_Tree_nod<std::_Tmap_traits<unsigned long,IData *,std::less<unsigned long>,std::allocator<std::pair<unsigned long const ,IData *> >,0> >::_Node *>::construct

; 1113 : 		++_Linkcnt;

  0009e	8b 4d ec	 mov	 ecx, DWORD PTR __Linkcnt$[ebp]
  000a1	83 c1 01	 add	 ecx, 1
  000a4	89 4d ec	 mov	 DWORD PTR __Linkcnt$[ebp], ecx

; 1114 : 		this->_Alptr.construct(&_Right(_Wherenode), 0);

  000a7	c7 45 dc 00 00
	00 00		 mov	 DWORD PTR $T200754[ebp], 0
  000ae	8b 55 e8	 mov	 edx, DWORD PTR __Wherenode$[ebp]
  000b1	52		 push	 edx
  000b2	e8 00 00 00 00	 call	 ?_Right@?$_Tree@V?$_Tmap_traits@KPAVIData@@U?$less@K@std@@V?$allocator@U?$pair@$$CBKPAVIData@@@std@@@3@$0A@@std@@@std@@KAAAPAU_Node@?$_Tree_nod@V?$_Tmap_traits@KPAVIData@@U?$less@K@std@@V?$allocator@U?$pair@$$CBKPAVIData@@@std@@@3@$0A@@std@@@2@PAU342@@Z ; std::_Tree<std::_Tmap_traits<unsigned long,IData *,std::less<unsigned long>,std::allocator<std::pair<unsigned long const ,IData *> >,0> >::_Right
  000b7	83 c4 04	 add	 esp, 4
  000ba	89 45 cc	 mov	 DWORD PTR tv145[ebp], eax
  000bd	8d 45 dc	 lea	 eax, DWORD PTR $T200754[ebp]
  000c0	50		 push	 eax
  000c1	8b 4d cc	 mov	 ecx, DWORD PTR tv145[ebp]
  000c4	51		 push	 ecx
  000c5	8b 4d d8	 mov	 ecx, DWORD PTR _this$[ebp]
  000c8	83 c1 02	 add	 ecx, 2
  000cb	e8 00 00 00 00	 call	 ?construct@?$allocator@PAU_Node@?$_Tree_nod@V?$_Tmap_traits@KPAVIData@@U?$less@K@std@@V?$allocator@U?$pair@$$CBKPAVIData@@@std@@@3@$0A@@std@@@std@@@std@@QAEXPAPAU_Node@?$_Tree_nod@V?$_Tmap_traits@KPAVIData@@U?$less@K@std@@V?$allocator@U?$pair@$$CBKPAVIData@@@std@@@3@$0A@@std@@@2@ABQAU342@@Z ; std::allocator<std::_Tree_nod<std::_Tmap_traits<unsigned long,IData *,std::less<unsigned long>,std::allocator<std::pair<unsigned long const ,IData *> >,0> >::_Node *>::construct
  000d0	eb 56		 jmp	 SHORT $L200755
$L200756:

; 1115 : 		_CATCH_ALL
; 1116 : 		if (1 < _Linkcnt)

  000d2	83 7d ec 01	 cmp	 DWORD PTR __Linkcnt$[ebp], 1
  000d6	7e 18		 jle	 SHORT $L199864

; 1117 : 			this->_Alptr.destroy(&_Parent(_Wherenode));

  000d8	8b 55 e8	 mov	 edx, DWORD PTR __Wherenode$[ebp]
  000db	52		 push	 edx
  000dc	e8 00 00 00 00	 call	 ?_Parent@?$_Tree@V?$_Tmap_traits@KPAVIData@@U?$less@K@std@@V?$allocator@U?$pair@$$CBKPAVIData@@@std@@@3@$0A@@std@@@std@@KAAAPAU_Node@?$_Tree_nod@V?$_Tmap_traits@KPAVIData@@U?$less@K@std@@V?$allocator@U?$pair@$$CBKPAVIData@@@std@@@3@$0A@@std@@@2@PAU342@@Z ; std::_Tree<std::_Tmap_traits<unsigned long,IData *,std::less<unsigned long>,std::allocator<std::pair<unsigned long const ,IData *> >,0> >::_Parent
  000e1	83 c4 04	 add	 esp, 4
  000e4	50		 push	 eax
  000e5	8b 4d d8	 mov	 ecx, DWORD PTR _this$[ebp]
  000e8	83 c1 02	 add	 ecx, 2
  000eb	e8 00 00 00 00	 call	 ?destroy@?$allocator@PAU_Node@?$_Tree_nod@V?$_Tmap_traits@KPAVIData@@U?$less@K@std@@V?$allocator@U?$pair@$$CBKPAVIData@@@std@@@3@$0A@@std@@@std@@@std@@QAEXPAPAU_Node@?$_Tree_nod@V?$_Tmap_traits@KPAVIData@@U?$less@K@std@@V?$allocator@U?$pair@$$CBKPAVIData@@@std@@@3@$0A@@std@@@2@@Z ; std::allocator<std::_Tree_nod<std::_Tmap_traits<unsigned long,IData *,std::less<unsigned long>,std::allocator<std::pair<unsigned long const ,IData *> >,0> >::_Node *>::destroy
$L199864:

; 1118 : 		if (0 < _Linkcnt)

  000f0	83 7d ec 00	 cmp	 DWORD PTR __Linkcnt$[ebp], 0
  000f4	7e 18		 jle	 SHORT $L199865

; 1119 : 			this->_Alptr.destroy(&_Left(_Wherenode));

  000f6	8b 45 e8	 mov	 eax, DWORD PTR __Wherenode$[ebp]
  000f9	50		 push	 eax
  000fa	e8 00 00 00 00	 call	 ?_Left@?$_Tree@V?$_Tmap_traits@KPAVIData@@U?$less@K@std@@V?$allocator@U?$pair@$$CBKPAVIData@@@std@@@3@$0A@@std@@@std@@KAAAPAU_Node@?$_Tree_nod@V?$_Tmap_traits@KPAVIData@@U?$less@K@std@@V?$allocator@U?$pair@$$CBKPAVIData@@@std@@@3@$0A@@std@@@2@PAU342@@Z ; std::_Tree<std::_Tmap_traits<unsigned long,IData *,std::less<unsigned long>,std::allocator<std::pair<unsigned long const ,IData *> >,0> >::_Left
  000ff	83 c4 04	 add	 esp, 4
  00102	50		 push	 eax
  00103	8b 4d d8	 mov	 ecx, DWORD PTR _this$[ebp]
  00106	83 c1 02	 add	 ecx, 2
  00109	e8 00 00 00 00	 call	 ?destroy@?$allocator@PAU_Node@?$_Tree_nod@V?$_Tmap_traits@KPAVIData@@U?$less@K@std@@V?$allocator@U?$pair@$$CBKPAVIData@@@std@@@3@$0A@@std@@@std@@@std@@QAEXPAPAU_Node@?$_Tree_nod@V?$_Tmap_traits@KPAVIData@@U?$less@K@std@@V?$allocator@U?$pair@$$CBKPAVIData@@@std@@@3@$0A@@std@@@2@@Z ; std::allocator<std::_Tree_nod<std::_Tmap_traits<unsigned long,IData *,std::less<unsigned long>,std::allocator<std::pair<unsigned long const ,IData *> >,0> >::_Node *>::destroy
$L199865:

; 1120 : 		this->_Alnod.deallocate(_Wherenode, 1);

  0010e	6a 01		 push	 1
  00110	8b 4d e8	 mov	 ecx, DWORD PTR __Wherenode$[ebp]
  00113	51		 push	 ecx
  00114	8b 4d d8	 mov	 ecx, DWORD PTR _this$[ebp]
  00117	83 c1 01	 add	 ecx, 1
  0011a	e8 00 00 00 00	 call	 ?deallocate@?$allocator@U_Node@?$_Tree_nod@V?$_Tmap_traits@KPAVIData@@U?$less@K@std@@V?$allocator@U?$pair@$$CBKPAVIData@@@std@@@3@$0A@@std@@@std@@@std@@QAEXPAU_Node@?$_Tree_nod@V?$_Tmap_traits@KPAVIData@@U?$less@K@std@@V?$allocator@U?$pair@$$CBKPAVIData@@@std@@@3@$0A@@std@@@2@I@Z ; std::allocator<std::_Tree_nod<std::_Tmap_traits<unsigned long,IData *,std::less<unsigned long>,std::allocator<std::pair<unsigned long const ,IData *> >,0> >::_Node>::deallocate

; 1121 : 		_RERAISE;

  0011f	6a 00		 push	 0
  00121	6a 00		 push	 0
  00123	e8 00 00 00 00	 call	 __CxxThrowException@8
$L200755:

; 1122 : 		_CATCH_END

  00128	c7 45 fc ff ff
	ff ff		 mov	 DWORD PTR __$EHRec$[ebp+12], -1

; 1123 : 		_Color(_Wherenode) = _Black;

  0012f	8b 55 e8	 mov	 edx, DWORD PTR __Wherenode$[ebp]
  00132	52		 push	 edx
  00133	e8 00 00 00 00	 call	 ?_Color@?$_Tree@V?$_Tmap_traits@KPAVIData@@U?$less@K@std@@V?$allocator@U?$pair@$$CBKPAVIData@@@std@@@3@$0A@@std@@@std@@KAAADPAU_Node@?$_Tree_nod@V?$_Tmap_traits@KPAVIData@@U?$less@K@std@@V?$allocator@U?$pair@$$CBKPAVIData@@@std@@@3@$0A@@std@@@2@@Z ; std::_Tree<std::_Tmap_traits<unsigned long,IData *,std::less<unsigned long>,std::allocator<std::pair<unsigned long const ,IData *> >,0> >::_Color
  00138	83 c4 04	 add	 esp, 4
  0013b	c6 00 01	 mov	 BYTE PTR [eax], 1

; 1124 : 		_Isnil(_Wherenode) = false;

  0013e	8b 45 e8	 mov	 eax, DWORD PTR __Wherenode$[ebp]
  00141	50		 push	 eax
  00142	e8 00 00 00 00	 call	 ?_Isnil@?$_Tree@V?$_Tmap_traits@KPAVIData@@U?$less@K@std@@V?$allocator@U?$pair@$$CBKPAVIData@@@std@@@3@$0A@@std@@@std@@KAAADPAU_Node@?$_Tree_nod@V?$_Tmap_traits@KPAVIData@@U?$less@K@std@@V?$allocator@U?$pair@$$CBKPAVIData@@@std@@@3@$0A@@std@@@2@@Z ; std::_Tree<std::_Tmap_traits<unsigned long,IData *,std::less<unsigned long>,std::allocator<std::pair<unsigned long const ,IData *> >,0> >::_Isnil
  00147	83 c4 04	 add	 esp, 4
  0014a	c6 00 00	 mov	 BYTE PTR [eax], 0

; 1125 : 		return (_Wherenode);

  0014d	8b 45 e8	 mov	 eax, DWORD PTR __Wherenode$[ebp]
$L200751:

; 1126 : 		}

  00150	8b 4d f4	 mov	 ecx, DWORD PTR __$EHRec$[ebp+4]
  00153	64 89 0d 00 00
	00 00		 mov	 DWORD PTR fs:__except_list, ecx
  0015a	5f		 pop	 edi
  0015b	5e		 pop	 esi
  0015c	5b		 pop	 ebx
  0015d	8b e5		 mov	 esp, ebp
  0015f	5d		 pop	 ebp
  00160	c3		 ret	 0
_TEXT	ENDS
;	COMDAT text$x
text$x	SEGMENT
__ehhandler$?_Buynode@?$_Tree@V?$_Tmap_traits@KPAVIData@@U?$less@K@std@@V?$allocator@U?$pair@$$CBKPAVIData@@@std@@@3@$0A@@std@@@std@@IAEPAU_Node@?$_Tree_nod@V?$_Tmap_traits@KPAVIData@@U?$less@K@std@@V?$allocator@U?$pair@$$CBKPAVIData@@@std@@@3@$0A@@std@@@2@XZ:
  00000	b8 00 00 00 00	 mov	 eax, OFFSET FLAT:$T200758
  00005	e9 00 00 00 00	 jmp	 ___CxxFrameHandler
text$x	ENDS
?_Buynode@?$_Tree@V?$_Tmap_traits@KPAVIData@@U?$less@K@std@@V?$allocator@U?$pair@$$CBKPAVIData@@@std@@@3@$0A@@std@@@std@@IAEPAU_Node@?$_Tree_nod@V?$_Tmap_traits@KPAVIData@@U?$less@K@std@@V?$allocator@U?$pair@$$CBKPAVIData@@@std@@@3@$0A@@std@@@2@XZ ENDP ; std::_Tree<std::_Tmap_traits<unsigned long,IData *,std::less<unsigned long>,std::allocator<std::pair<unsigned long const ,IData *> >,0> >::_Buynode
PUBLIC	??2@YAPAXIPAX@Z					; operator new
PUBLIC	??3@YAXPAX0@Z					; operator delete
PUBLIC	??0_Node@?$_Tree_nod@V?$_Tmap_traits@KPAVIData@@U?$less@K@std@@V?$allocator@U?$pair@$$CBKPAVIData@@@std@@@3@$0A@@std@@@std@@QAE@PAU012@00ABU?$pair@$$CBKPAVIData@@@2@D@Z ; std::_Tree_nod<std::_Tmap_traits<unsigned long,IData *,std::less<unsigned long>,std::allocator<std::pair<unsigned long const ,IData *> >,0> >::_Node::_Node
;	COMDAT xdata$x
xdata$x	SEGMENT
$T200777 DD	0ffffffffH
	DD	00H
	DD	00H
	DD	FLAT:$L200773
	DD	0ffffffffH
	DD	00H
$T200779 DD	00H
	DD	00H
	DD	00H
	DD	FLAT:$L200772
$T200778 DD	00H
	DD	01H
	DD	02H
	DD	01H
	DD	FLAT:$T200779
$T200775 DD	019930520H
	DD	03H
	DD	FLAT:$T200777
	DD	01H
	DD	FLAT:$T200778
	DD	2 DUP(00H)
; Function compile flags: /Odt
xdata$x	ENDS
;	COMDAT ?_Buynode@?$_Tree@V?$_Tmap_traits@KPAVIData@@U?$less@K@std@@V?$allocator@U?$pair@$$CBKPAVIData@@@std@@@3@$0A@@std@@@std@@IAEPAU_Node@?$_Tree_nod@V?$_Tmap_traits@KPAVIData@@U?$less@K@std@@V?$allocator@U?$pair@$$CBKPAVIData@@@std@@@3@$0A@@std@@@2@PAU342@00ABU?$pair@$$CBKPAVIData@@@2@D@Z
_TEXT	SEGMENT
tv82 = -44						; size = 4
tv94 = -40						; size = 4
tv91 = -36						; size = 4
_this$ = -32						; size = 4
$T200768 = -28						; size = 4
$T200767 = -24						; size = 4
__Wherenode$ = -20					; size = 4
__$EHRec$ = -16						; size = 16
__Larg$ = 8						; size = 4
__Parg$ = 12						; size = 4
__Rarg$ = 16						; size = 4
__Val$ = 20						; size = 4
__Carg$ = 24						; size = 1
?_Buynode@?$_Tree@V?$_Tmap_traits@KPAVIData@@U?$less@K@std@@V?$allocator@U?$pair@$$CBKPAVIData@@@std@@@3@$0A@@std@@@std@@IAEPAU_Node@?$_Tree_nod@V?$_Tmap_traits@KPAVIData@@U?$less@K@std@@V?$allocator@U?$pair@$$CBKPAVIData@@@std@@@3@$0A@@std@@@2@PAU342@00ABU?$pair@$$CBKPAVIData@@@2@D@Z PROC NEAR ; std::_Tree<std::_Tmap_traits<unsigned long,IData *,std::less<unsigned long>,std::allocator<std::pair<unsigned long const ,IData *> >,0> >::_Buynode, COMDAT
; _this$ = ecx

; 1130 : 		{	// allocate a node with pointers, value, and color

  00000	55		 push	 ebp
  00001	8b ec		 mov	 ebp, esp
  00003	6a ff		 push	 -1
  00005	68 00 00 00 00	 push	 __ehhandler$?_Buynode@?$_Tree@V?$_Tmap_traits@KPAVIData@@U?$less@K@std@@V?$allocator@U?$pair@$$CBKPAVIData@@@std@@@3@$0A@@std@@@std@@IAEPAU_Node@?$_Tree_nod@V?$_Tmap_traits@KPAVIData@@U?$less@K@std@@V?$allocator@U?$pair@$$CBKPAVIData@@@std@@@3@$0A@@std@@@2@PAU342@00ABU?$pair@$$CBKPAVIData@@@2@D@Z
  0000a	64 a1 00 00 00
	00		 mov	 eax, DWORD PTR fs:__except_list
  00010	50		 push	 eax
  00011	64 89 25 00 00
	00 00		 mov	 DWORD PTR fs:__except_list, esp
  00018	51		 push	 ecx
  00019	83 ec 1c	 sub	 esp, 28			; 0000001cH
  0001c	53		 push	 ebx
  0001d	56		 push	 esi
  0001e	57		 push	 edi
  0001f	89 65 f0	 mov	 DWORD PTR __$EHRec$[ebp], esp
  00022	89 4d e0	 mov	 DWORD PTR _this$[ebp], ecx

; 1131 : 		_Nodeptr _Wherenode = this->_Alnod.allocate(1);

  00025	6a 01		 push	 1
  00027	8b 4d e0	 mov	 ecx, DWORD PTR _this$[ebp]
  0002a	83 c1 01	 add	 ecx, 1
  0002d	e8 00 00 00 00	 call	 ?allocate@?$allocator@U_Node@?$_Tree_nod@V?$_Tmap_traits@KPAVIData@@U?$less@K@std@@V?$allocator@U?$pair@$$CBKPAVIData@@@std@@@3@$0A@@std@@@std@@@std@@QAEPAU_Node@?$_Tree_nod@V?$_Tmap_traits@KPAVIData@@U?$less@K@std@@V?$allocator@U?$pair@$$CBKPAVIData@@@std@@@3@$0A@@std@@@2@I@Z ; std::allocator<std::_Tree_nod<std::_Tmap_traits<unsigned long,IData *,std::less<unsigned long>,std::allocator<std::pair<unsigned long const ,IData *> >,0> >::_Node>::allocate
  00032	89 45 ec	 mov	 DWORD PTR __Wherenode$[ebp], eax

; 1132 : 		_TRY_BEGIN

  00035	c7 45 fc 00 00
	00 00		 mov	 DWORD PTR __$EHRec$[ebp+12], 0

; 1133 : 		new (_Wherenode) _Node(_Larg, _Parg, _Rarg, _Val, _Carg);

  0003c	8b 45 ec	 mov	 eax, DWORD PTR __Wherenode$[ebp]
  0003f	50		 push	 eax
  00040	6a 18		 push	 24			; 00000018H
  00042	e8 00 00 00 00	 call	 ??2@YAPAXIPAX@Z		; operator new
  00047	83 c4 08	 add	 esp, 8
  0004a	89 45 dc	 mov	 DWORD PTR tv91[ebp], eax
  0004d	8b 4d dc	 mov	 ecx, DWORD PTR tv91[ebp]
  00050	89 4d e4	 mov	 DWORD PTR $T200768[ebp], ecx
  00053	c6 45 fc 01	 mov	 BYTE PTR __$EHRec$[ebp+12], 1
  00057	83 7d e4 00	 cmp	 DWORD PTR $T200768[ebp], 0
  0005b	74 27		 je	 SHORT $L200769
  0005d	8a 55 18	 mov	 dl, BYTE PTR __Carg$[ebp]
  00060	52		 push	 edx
  00061	8b 45 14	 mov	 eax, DWORD PTR __Val$[ebp]
  00064	50		 push	 eax
  00065	8b 4d 10	 mov	 ecx, DWORD PTR __Rarg$[ebp]
  00068	51		 push	 ecx
  00069	8b 55 0c	 mov	 edx, DWORD PTR __Parg$[ebp]
  0006c	52		 push	 edx
  0006d	8b 45 08	 mov	 eax, DWORD PTR __Larg$[ebp]
  00070	50		 push	 eax
  00071	8b 4d e4	 mov	 ecx, DWORD PTR $T200768[ebp]
  00074	e8 00 00 00 00	 call	 ??0_Node@?$_Tree_nod@V?$_Tmap_traits@KPAVIData@@U?$less@K@std@@V?$allocator@U?$pair@$$CBKPAVIData@@@std@@@3@$0A@@std@@@std@@QAE@PAU012@00ABU?$pair@$$CBKPAVIData@@@2@D@Z ; std::_Tree_nod<std::_Tmap_traits<unsigned long,IData *,std::less<unsigned long>,std::allocator<std::pair<unsigned long const ,IData *> >,0> >::_Node::_Node
  00079	89 45 d8	 mov	 DWORD PTR tv94[ebp], eax
  0007c	8b 4d d8	 mov	 ecx, DWORD PTR tv94[ebp]
  0007f	89 4d d4	 mov	 DWORD PTR tv82[ebp], ecx
  00082	eb 07		 jmp	 SHORT $L200770
$L200769:
  00084	c7 45 d4 00 00
	00 00		 mov	 DWORD PTR tv82[ebp], 0
$L200770:
  0008b	8b 55 d4	 mov	 edx, DWORD PTR tv82[ebp]
  0008e	89 55 e8	 mov	 DWORD PTR $T200767[ebp], edx
  00091	c6 45 fc 00	 mov	 BYTE PTR __$EHRec$[ebp+12], 0
  00095	eb 1a		 jmp	 SHORT $L200771
$L200772:

; 1134 : 		_CATCH_ALL
; 1135 : 		this->_Alnod.deallocate(_Wherenode, 1);

  00097	6a 01		 push	 1
  00099	8b 45 ec	 mov	 eax, DWORD PTR __Wherenode$[ebp]
  0009c	50		 push	 eax
  0009d	8b 4d e0	 mov	 ecx, DWORD PTR _this$[ebp]
  000a0	83 c1 01	 add	 ecx, 1
  000a3	e8 00 00 00 00	 call	 ?deallocate@?$allocator@U_Node@?$_Tree_nod@V?$_Tmap_traits@KPAVIData@@U?$less@K@std@@V?$allocator@U?$pair@$$CBKPAVIData@@@std@@@3@$0A@@std@@@std@@@std@@QAEXPAU_Node@?$_Tree_nod@V?$_Tmap_traits@KPAVIData@@U?$less@K@std@@V?$allocator@U?$pair@$$CBKPAVIData@@@std@@@3@$0A@@std@@@2@I@Z ; std::allocator<std::_Tree_nod<std::_Tmap_traits<unsigned long,IData *,std::less<unsigned long>,std::allocator<std::pair<unsigned long const ,IData *> >,0> >::_Node>::deallocate

; 1136 : 		_RERAISE;

  000a8	6a 00		 push	 0
  000aa	6a 00		 push	 0
  000ac	e8 00 00 00 00	 call	 __CxxThrowException@8
$L200771:

; 1137 : 		_CATCH_END

  000b1	c7 45 fc ff ff
	ff ff		 mov	 DWORD PTR __$EHRec$[ebp+12], -1

; 1138 : 		return (_Wherenode);

  000b8	8b 45 ec	 mov	 eax, DWORD PTR __Wherenode$[ebp]
$L200766:

; 1139 : 		}

  000bb	8b 4d f4	 mov	 ecx, DWORD PTR __$EHRec$[ebp+4]
  000be	64 89 0d 00 00
	00 00		 mov	 DWORD PTR fs:__except_list, ecx
  000c5	5f		 pop	 edi
  000c6	5e		 pop	 esi
  000c7	5b		 pop	 ebx
  000c8	8b e5		 mov	 esp, ebp
  000ca	5d		 pop	 ebp
  000cb	c2 14 00	 ret	 20			; 00000014H
_TEXT	ENDS
;	COMDAT text$x
text$x	SEGMENT
$L200773:
  00000	8b 45 ec	 mov	 eax, DWORD PTR __Wherenode$[ebp]
  00003	50		 push	 eax
  00004	8b 4d e4	 mov	 ecx, DWORD PTR $T200768[ebp]
  00007	51		 push	 ecx
  00008	e8 00 00 00 00	 call	 ??3@YAXPAX0@Z		; operator delete
  0000d	83 c4 08	 add	 esp, 8
  00010	c3		 ret	 0
__ehhandler$?_Buynode@?$_Tree@V?$_Tmap_traits@KPAVIData@@U?$less@K@std@@V?$allocator@U?$pair@$$CBKPAVIData@@@std@@@3@$0A@@std@@@std@@IAEPAU_Node@?$_Tree_nod@V?$_Tmap_traits@KPAVIData@@U?$less@K@std@@V?$allocator@U?$pair@$$CBKPAVIData@@@std@@@3@$0A@@std@@@2@PAU342@00ABU?$pair@$$CBKPAVIData@@@2@D@Z:
  00011	b8 00 00 00 00	 mov	 eax, OFFSET FLAT:$T200775
  00016	e9 00 00 00 00	 jmp	 ___CxxFrameHandler
text$x	ENDS
?_Buynode@?$_Tree@V?$_Tmap_traits@KPAVIData@@U?$less@K@std@@V?$allocator@U?$pair@$$CBKPAVIData@@@std@@@3@$0A@@std@@@std@@IAEPAU_Node@?$_Tree_nod@V?$_Tmap_traits@KPAVIData@@U?$less@K@std@@V?$allocator@U?$pair@$$CBKPAVIData@@@std@@@3@$0A@@std@@@2@PAU342@00ABU?$pair@$$CBKPAVIData@@@2@D@Z ENDP ; std::_Tree<std::_Tmap_traits<unsigned long,IData *,std::less<unsigned long>,std::allocator<std::pair<unsigned long const ,IData *> >,0> >::_Buynode
; Function compile flags: /Odt
; File d:\program files (x86)\microsoft visual studio .net 2003\vc7\include\new.h
;	COMDAT ??2@YAPAXIPAX@Z
_TEXT	SEGMENT
___formal$ = 8						; size = 4
__P$ = 12						; size = 4
??2@YAPAXIPAX@Z PROC NEAR				; operator new, COMDAT

; 109  :         {return (_P); }

  00000	55		 push	 ebp
  00001	8b ec		 mov	 ebp, esp
  00003	8b 45 0c	 mov	 eax, DWORD PTR __P$[ebp]
  00006	5d		 pop	 ebp
  00007	c3		 ret	 0
??2@YAPAXIPAX@Z ENDP					; operator new
; Function compile flags: /Odt
_TEXT	ENDS
;	COMDAT ??3@YAXPAX0@Z
_TEXT	SEGMENT
___formal$ = 8						; size = 4
___formal$ = 12						; size = 4
??3@YAXPAX0@Z PROC NEAR					; operator delete, COMDAT

; 112  :         {return; }

  00000	55		 push	 ebp
  00001	8b ec		 mov	 ebp, esp
  00003	5d		 pop	 ebp
  00004	c3		 ret	 0
??3@YAXPAX0@Z ENDP					; operator delete
_TEXT	ENDS
PUBLIC	??$?0U?$pair@$$CBKPAVIData@@@std@@@?$allocator@PAU_Node@?$_Tree_nod@V?$_Tmap_traits@KPAVIData@@U?$less@K@std@@V?$allocator@U?$pair@$$CBKPAVIData@@@std@@@3@$0A@@std@@@std@@@std@@QAE@ABV?$allocator@U?$pair@$$CBKPAVIData@@@std@@@1@@Z ; std::allocator<std::_Tree_nod<std::_Tmap_traits<unsigned long,IData *,std::less<unsigned long>,std::allocator<std::pair<unsigned long const ,IData *> >,0> >::_Node *>::allocator<std::_Tree_nod<std::_Tmap_traits<unsigned long,IData *,std::less<unsigned long>,std::allocator<std::pair<unsigned long const ,IData *> >,0> >::_Node *><std::pair<unsigned long const ,IData *> >
PUBLIC	??0?$_Tree_nod@V?$_Tmap_traits@KPAVIData@@U?$less@K@std@@V?$allocator@U?$pair@$$CBKPAVIData@@@std@@@3@$0A@@std@@@std@@IAE@ABU?$less@K@1@V?$allocator@U?$pair@$$CBKPAVIData@@@std@@@1@@Z ; std::_Tree_nod<std::_Tmap_traits<unsigned long,IData *,std::less<unsigned long>,std::allocator<std::pair<unsigned long const ,IData *> >,0> >::_Tree_nod<std::_Tmap_traits<unsigned long,IData *,std::less<unsigned long>,std::allocator<std::pair<unsigned long const ,IData *> >,0> >
; Function compile flags: /Odt
; File d:\program files (x86)\microsoft visual studio .net 2003\vc7\include\xtree
;	COMDAT ??0?$_Tree_ptr@V?$_Tmap_traits@KPAVIData@@U?$less@K@std@@V?$allocator@U?$pair@$$CBKPAVIData@@@std@@@3@$0A@@std@@@std@@IAE@ABU?$less@K@1@V?$allocator@U?$pair@$$CBKPAVIData@@@std@@@1@@Z
_TEXT	SEGMENT
_this$ = -8						; size = 4
__Parg$ = 8						; size = 4
__Al$ = 12						; size = 1
??0?$_Tree_ptr@V?$_Tmap_traits@KPAVIData@@U?$less@K@std@@V?$allocator@U?$pair@$$CBKPAVIData@@@std@@@3@$0A@@std@@@std@@IAE@ABU?$less@K@1@V?$allocator@U?$pair@$$CBKPAVIData@@@std@@@1@@Z PROC NEAR ; std::_Tree_ptr<std::_Tmap_traits<unsigned long,IData *,std::less<unsigned long>,std::allocator<std::pair<unsigned long const ,IData *> >,0> >::_Tree_ptr<std::_Tmap_traits<unsigned long,IData *,std::less<unsigned long>,std::allocator<std::pair<unsigned long const ,IData *> >,0> >, COMDAT
; _this$ = ecx

; 76   : 		{	// construct base, and allocator from _Al

  00000	55		 push	 ebp
  00001	8b ec		 mov	 ebp, esp
  00003	83 ec 08	 sub	 esp, 8
  00006	89 4d f8	 mov	 DWORD PTR _this$[ebp], ecx
  00009	51		 push	 ecx
  0000a	8b cc		 mov	 ecx, esp
  0000c	8d 45 0c	 lea	 eax, DWORD PTR __Al$[ebp]
  0000f	50		 push	 eax
  00010	e8 00 00 00 00	 call	 ??0?$allocator@U?$pair@$$CBKPAVIData@@@std@@@std@@QAE@ABV01@@Z ; std::allocator<std::pair<unsigned long const ,IData *> >::allocator<std::pair<unsigned long const ,IData *> >
  00015	8b 4d 08	 mov	 ecx, DWORD PTR __Parg$[ebp]
  00018	51		 push	 ecx
  00019	8b 4d f8	 mov	 ecx, DWORD PTR _this$[ebp]
  0001c	e8 00 00 00 00	 call	 ??0?$_Tree_nod@V?$_Tmap_traits@KPAVIData@@U?$less@K@std@@V?$allocator@U?$pair@$$CBKPAVIData@@@std@@@3@$0A@@std@@@std@@IAE@ABU?$less@K@1@V?$allocator@U?$pair@$$CBKPAVIData@@@std@@@1@@Z ; std::_Tree_nod<std::_Tmap_traits<unsigned long,IData *,std::less<unsigned long>,std::allocator<std::pair<unsigned long const ,IData *> >,0> >::_Tree_nod<std::_Tmap_traits<unsigned long,IData *,std::less<unsigned long>,std::allocator<std::pair<unsigned long const ,IData *> >,0> >
  00021	8d 55 0c	 lea	 edx, DWORD PTR __Al$[ebp]
  00024	52		 push	 edx
  00025	8b 4d f8	 mov	 ecx, DWORD PTR _this$[ebp]
  00028	83 c1 02	 add	 ecx, 2
  0002b	e8 00 00 00 00	 call	 ??$?0U?$pair@$$CBKPAVIData@@@std@@@?$allocator@PAU_Node@?$_Tree_nod@V?$_Tmap_traits@KPAVIData@@U?$less@K@std@@V?$allocator@U?$pair@$$CBKPAVIData@@@std@@@3@$0A@@std@@@std@@@std@@QAE@ABV?$allocator@U?$pair@$$CBKPAVIData@@@std@@@1@@Z ; std::allocator<std::_Tree_nod<std::_Tmap_traits<unsigned long,IData *,std::less<unsigned long>,std::allocator<std::pair<unsigned long const ,IData *> >,0> >::_Node *>::allocator<std::_Tree_nod<std::_Tmap_traits<unsigned long,IData *,std::less<unsigned long>,std::allocator<std::pair<unsigned long const ,IData *> >,0> >::_Node *><std::pair<unsigned long const ,IData *> >

; 77   : 		}

  00030	8b 45 f8	 mov	 eax, DWORD PTR _this$[ebp]
  00033	8b e5		 mov	 esp, ebp
  00035	5d		 pop	 ebp
  00036	c2 08 00	 ret	 8
??0?$_Tree_ptr@V?$_Tmap_traits@KPAVIData@@U?$less@K@std@@V?$allocator@U?$pair@$$CBKPAVIData@@@std@@@3@$0A@@std@@@std@@IAE@ABU?$less@K@1@V?$allocator@U?$pair@$$CBKPAVIData@@@std@@@1@@Z ENDP ; std::_Tree_ptr<std::_Tmap_traits<unsigned long,IData *,std::less<unsigned long>,std::allocator<std::pair<unsigned long const ,IData *> >,0> >::_Tree_ptr<std::_Tmap_traits<unsigned long,IData *,std::less<unsigned long>,std::allocator<std::pair<unsigned long const ,IData *> >,0> >
; Function compile flags: /Odt
_TEXT	ENDS
;	COMDAT ??0const_iterator@?$_Tree@V?$_Tmap_traits@KPAVIData@@U?$less@K@std@@V?$allocator@U?$pair@$$CBKPAVIData@@@std@@@3@$0A@@std@@@std@@QAE@XZ
_TEXT	SEGMENT
_this$ = -4						; size = 4
??0const_iterator@?$_Tree@V?$_Tmap_traits@KPAVIData@@U?$less@K@std@@V?$allocator@U?$pair@$$CBKPAVIData@@@std@@@3@$0A@@std@@@std@@QAE@XZ PROC NEAR ; std::_Tree<std::_Tmap_traits<unsigned long,IData *,std::less<unsigned long>,std::allocator<std::pair<unsigned long const ,IData *> >,0> >::const_iterator::const_iterator, COMDAT
; _this$ = ecx

; 193  : 			{	// construct with null node pointer

  00000	55		 push	 ebp
  00001	8b ec		 mov	 ebp, esp
  00003	51		 push	 ecx
  00004	89 4d fc	 mov	 DWORD PTR _this$[ebp], ecx
  00007	8b 45 fc	 mov	 eax, DWORD PTR _this$[ebp]
  0000a	c7 00 00 00 00
	00		 mov	 DWORD PTR [eax], 0

; 194  : 			}

  00010	8b 45 fc	 mov	 eax, DWORD PTR _this$[ebp]
  00013	8b e5		 mov	 esp, ebp
  00015	5d		 pop	 ebp
  00016	c3		 ret	 0
??0const_iterator@?$_Tree@V?$_Tmap_traits@KPAVIData@@U?$less@K@std@@V?$allocator@U?$pair@$$CBKPAVIData@@@std@@@3@$0A@@std@@@std@@QAE@XZ ENDP ; std::_Tree<std::_Tmap_traits<unsigned long,IData *,std::less<unsigned long>,std::allocator<std::pair<unsigned long const ,IData *> >,0> >::const_iterator::const_iterator
_TEXT	ENDS
PUBLIC	?_Dec@const_iterator@?$_Tree@V?$_Tmap_traits@KPAVIData@@U?$less@K@std@@V?$allocator@U?$pair@$$CBKPAVIData@@@std@@@3@$0A@@std@@@std@@QAEXXZ ; std::_Tree<std::_Tmap_traits<unsigned long,IData *,std::less<unsigned long>,std::allocator<std::pair<unsigned long const ,IData *> >,0> >::const_iterator::_Dec
; Function compile flags: /Odt
;	COMDAT ??Fconst_iterator@?$_Tree@V?$_Tmap_traits@KPAVIData@@U?$less@K@std@@V?$allocator@U?$pair@$$CBKPAVIData@@@std@@@3@$0A@@std@@@std@@QAEAAV012@XZ
_TEXT	SEGMENT
_this$ = -4						; size = 4
??Fconst_iterator@?$_Tree@V?$_Tmap_traits@KPAVIData@@U?$less@K@std@@V?$allocator@U?$pair@$$CBKPAVIData@@@std@@@3@$0A@@std@@@std@@QAEAAV012@XZ PROC NEAR ; std::_Tree<std::_Tmap_traits<unsigned long,IData *,std::less<unsigned long>,std::allocator<std::pair<unsigned long const ,IData *> >,0> >::const_iterator::operator--, COMDAT
; _this$ = ecx

; 227  : 			{	// predecrement

  00000	55		 push	 ebp
  00001	8b ec		 mov	 ebp, esp
  00003	51		 push	 ecx
  00004	89 4d fc	 mov	 DWORD PTR _this$[ebp], ecx

; 228  : 			_Dec();

  00007	8b 4d fc	 mov	 ecx, DWORD PTR _this$[ebp]
  0000a	e8 00 00 00 00	 call	 ?_Dec@const_iterator@?$_Tree@V?$_Tmap_traits@KPAVIData@@U?$less@K@std@@V?$allocator@U?$pair@$$CBKPAVIData@@@std@@@3@$0A@@std@@@std@@QAEXXZ ; std::_Tree<std::_Tmap_traits<unsigned long,IData *,std::less<unsigned long>,std::allocator<std::pair<unsigned long const ,IData *> >,0> >::const_iterator::_Dec

; 229  : 			return (*this);

  0000f	8b 45 fc	 mov	 eax, DWORD PTR _this$[ebp]

; 230  : 			}

  00012	8b e5		 mov	 esp, ebp
  00014	5d		 pop	 ebp
  00015	c3		 ret	 0
??Fconst_iterator@?$_Tree@V?$_Tmap_traits@KPAVIData@@U?$less@K@std@@V?$allocator@U?$pair@$$CBKPAVIData@@@std@@@3@$0A@@std@@@std@@QAEAAV012@XZ ENDP ; std::_Tree<std::_Tmap_traits<unsigned long,IData *,std::less<unsigned long>,std::allocator<std::pair<unsigned long const ,IData *> >,0> >::const_iterator::operator--
; Function compile flags: /Odt
_TEXT	ENDS
;	COMDAT ?_Inc@const_iterator@?$_Tree@V?$_Tmap_traits@KPAVIData@@U?$less@K@std@@V?$allocator@U?$pair@$$CBKPAVIData@@@std@@@3@$0A@@std@@@std@@QAEXXZ
_TEXT	SEGMENT
_this$ = -8						; size = 4
__Pnode$199891 = -4					; size = 4
?_Inc@const_iterator@?$_Tree@V?$_Tmap_traits@KPAVIData@@U?$less@K@std@@V?$allocator@U?$pair@$$CBKPAVIData@@@std@@@3@$0A@@std@@@std@@QAEXXZ PROC NEAR ; std::_Tree<std::_Tmap_traits<unsigned long,IData *,std::less<unsigned long>,std::allocator<std::pair<unsigned long const ,IData *> >,0> >::const_iterator::_Inc, COMDAT
; _this$ = ecx

; 267  : 			{	// move to node with next larger value

  00000	55		 push	 ebp
  00001	8b ec		 mov	 ebp, esp
  00003	83 ec 08	 sub	 esp, 8
  00006	89 4d f8	 mov	 DWORD PTR _this$[ebp], ecx

; 268  : 			if (_Isnil(_Ptr))

  00009	8b 45 f8	 mov	 eax, DWORD PTR _this$[ebp]
  0000c	8b 08		 mov	 ecx, DWORD PTR [eax]
  0000e	51		 push	 ecx
  0000f	e8 00 00 00 00	 call	 ?_Isnil@?$_Tree@V?$_Tmap_traits@KPAVIData@@U?$less@K@std@@V?$allocator@U?$pair@$$CBKPAVIData@@@std@@@3@$0A@@std@@@std@@KAAADPAU_Node@?$_Tree_nod@V?$_Tmap_traits@KPAVIData@@U?$less@K@std@@V?$allocator@U?$pair@$$CBKPAVIData@@@std@@@3@$0A@@std@@@2@@Z ; std::_Tree<std::_Tmap_traits<unsigned long,IData *,std::less<unsigned long>,std::allocator<std::pair<unsigned long const ,IData *> >,0> >::_Isnil
  00014	83 c4 04	 add	 esp, 4
  00017	0f be 10	 movsx	 edx, BYTE PTR [eax]
  0001a	85 d2		 test	 edx, edx
  0001c	74 05		 je	 SHORT $L199887

; 269  : 				;	// end() shouldn't be incremented, don't move
; 270  : 			else if (!_Isnil(_Right(_Ptr)))

  0001e	e9 8d 00 00 00	 jmp	 $L199886
$L199887:
  00023	8b 45 f8	 mov	 eax, DWORD PTR _this$[ebp]
  00026	8b 08		 mov	 ecx, DWORD PTR [eax]
  00028	51		 push	 ecx
  00029	e8 00 00 00 00	 call	 ?_Right@?$_Tree@V?$_Tmap_traits@KPAVIData@@U?$less@K@std@@V?$allocator@U?$pair@$$CBKPAVIData@@@std@@@3@$0A@@std@@@std@@KAAAPAU_Node@?$_Tree_nod@V?$_Tmap_traits@KPAVIData@@U?$less@K@std@@V?$allocator@U?$pair@$$CBKPAVIData@@@std@@@3@$0A@@std@@@2@PAU342@@Z ; std::_Tree<std::_Tmap_traits<unsigned long,IData *,std::less<unsigned long>,std::allocator<std::pair<unsigned long const ,IData *> >,0> >::_Right
  0002e	83 c4 04	 add	 esp, 4
  00031	8b 10		 mov	 edx, DWORD PTR [eax]
  00033	52		 push	 edx
  00034	e8 00 00 00 00	 call	 ?_Isnil@?$_Tree@V?$_Tmap_traits@KPAVIData@@U?$less@K@std@@V?$allocator@U?$pair@$$CBKPAVIData@@@std@@@3@$0A@@std@@@std@@KAAADPAU_Node@?$_Tree_nod@V?$_Tmap_traits@KPAVIData@@U?$less@K@std@@V?$allocator@U?$pair@$$CBKPAVIData@@@std@@@3@$0A@@std@@@2@@Z ; std::_Tree<std::_Tmap_traits<unsigned long,IData *,std::less<unsigned long>,std::allocator<std::pair<unsigned long const ,IData *> >,0> >::_Isnil
  00039	83 c4 04	 add	 esp, 4
  0003c	0f be 00	 movsx	 eax, BYTE PTR [eax]
  0003f	85 c0		 test	 eax, eax
  00041	75 20		 jne	 SHORT $L199893

; 271  : 				_Ptr = _Min(_Right(_Ptr));	// ==> smallest of right subtree

  00043	8b 4d f8	 mov	 ecx, DWORD PTR _this$[ebp]
  00046	8b 11		 mov	 edx, DWORD PTR [ecx]
  00048	52		 push	 edx
  00049	e8 00 00 00 00	 call	 ?_Right@?$_Tree@V?$_Tmap_traits@KPAVIData@@U?$less@K@std@@V?$allocator@U?$pair@$$CBKPAVIData@@@std@@@3@$0A@@std@@@std@@KAAAPAU_Node@?$_Tree_nod@V?$_Tmap_traits@KPAVIData@@U?$less@K@std@@V?$allocator@U?$pair@$$CBKPAVIData@@@std@@@3@$0A@@std@@@2@PAU342@@Z ; std::_Tree<std::_Tmap_traits<unsigned long,IData *,std::less<unsigned long>,std::allocator<std::pair<unsigned long const ,IData *> >,0> >::_Right
  0004e	83 c4 04	 add	 esp, 4
  00051	8b 00		 mov	 eax, DWORD PTR [eax]
  00053	50		 push	 eax
  00054	e8 00 00 00 00	 call	 ?_Min@?$_Tree@V?$_Tmap_traits@KPAVIData@@U?$less@K@std@@V?$allocator@U?$pair@$$CBKPAVIData@@@std@@@3@$0A@@std@@@std@@KAPAU_Node@?$_Tree_nod@V?$_Tmap_traits@KPAVIData@@U?$less@K@std@@V?$allocator@U?$pair@$$CBKPAVIData@@@std@@@3@$0A@@std@@@2@PAU342@@Z ; std::_Tree<std::_Tmap_traits<unsigned long,IData *,std::less<unsigned long>,std::allocator<std::pair<unsigned long const ,IData *> >,0> >::_Min
  00059	83 c4 04	 add	 esp, 4
  0005c	8b 4d f8	 mov	 ecx, DWORD PTR _this$[ebp]
  0005f	89 01		 mov	 DWORD PTR [ecx], eax

; 272  : 			else

  00061	eb 4d		 jmp	 SHORT $L199886
$L199893:

; 273  : 				{	// climb looking for right subtree
; 274  : 				_Nodeptr _Pnode;
; 275  : 				while (!_Isnil(_Pnode = _Parent(_Ptr))
; 276  : 					&& _Ptr == _Right(_Pnode))

  00063	8b 55 f8	 mov	 edx, DWORD PTR _this$[ebp]
  00066	8b 02		 mov	 eax, DWORD PTR [edx]
  00068	50		 push	 eax
  00069	e8 00 00 00 00	 call	 ?_Parent@?$_Tree@V?$_Tmap_traits@KPAVIData@@U?$less@K@std@@V?$allocator@U?$pair@$$CBKPAVIData@@@std@@@3@$0A@@std@@@std@@KAAAPAU_Node@?$_Tree_nod@V?$_Tmap_traits@KPAVIData@@U?$less@K@std@@V?$allocator@U?$pair@$$CBKPAVIData@@@std@@@3@$0A@@std@@@2@PAU342@@Z ; std::_Tree<std::_Tmap_traits<unsigned long,IData *,std::less<unsigned long>,std::allocator<std::pair<unsigned long const ,IData *> >,0> >::_Parent
  0006e	83 c4 04	 add	 esp, 4
  00071	8b 08		 mov	 ecx, DWORD PTR [eax]
  00073	89 4d fc	 mov	 DWORD PTR __Pnode$199891[ebp], ecx
  00076	8b 55 fc	 mov	 edx, DWORD PTR __Pnode$199891[ebp]
  00079	52		 push	 edx
  0007a	e8 00 00 00 00	 call	 ?_Isnil@?$_Tree@V?$_Tmap_traits@KPAVIData@@U?$less@K@std@@V?$allocator@U?$pair@$$CBKPAVIData@@@std@@@3@$0A@@std@@@std@@KAAADPAU_Node@?$_Tree_nod@V?$_Tmap_traits@KPAVIData@@U?$less@K@std@@V?$allocator@U?$pair@$$CBKPAVIData@@@std@@@3@$0A@@std@@@2@@Z ; std::_Tree<std::_Tmap_traits<unsigned long,IData *,std::less<unsigned long>,std::allocator<std::pair<unsigned long const ,IData *> >,0> >::_Isnil
  0007f	83 c4 04	 add	 esp, 4
  00082	0f be 00	 movsx	 eax, BYTE PTR [eax]
  00085	85 c0		 test	 eax, eax
  00087	75 1f		 jne	 SHORT $L199894
  00089	8b 4d fc	 mov	 ecx, DWORD PTR __Pnode$199891[ebp]
  0008c	51		 push	 ecx
  0008d	e8 00 00 00 00	 call	 ?_Right@?$_Tree@V?$_Tmap_traits@KPAVIData@@U?$less@K@std@@V?$allocator@U?$pair@$$CBKPAVIData@@@std@@@3@$0A@@std@@@std@@KAAAPAU_Node@?$_Tree_nod@V?$_Tmap_traits@KPAVIData@@U?$less@K@std@@V?$allocator@U?$pair@$$CBKPAVIData@@@std@@@3@$0A@@std@@@2@PAU342@@Z ; std::_Tree<std::_Tmap_traits<unsigned long,IData *,std::less<unsigned long>,std::allocator<std::pair<unsigned long const ,IData *> >,0> >::_Right
  00092	83 c4 04	 add	 esp, 4
  00095	8b 55 f8	 mov	 edx, DWORD PTR _this$[ebp]
  00098	8b 0a		 mov	 ecx, DWORD PTR [edx]
  0009a	3b 08		 cmp	 ecx, DWORD PTR [eax]
  0009c	75 0a		 jne	 SHORT $L199894

; 277  : 					_Ptr = _Pnode;	// ==> parent while right subtree

  0009e	8b 55 f8	 mov	 edx, DWORD PTR _this$[ebp]
  000a1	8b 45 fc	 mov	 eax, DWORD PTR __Pnode$199891[ebp]
  000a4	89 02		 mov	 DWORD PTR [edx], eax
  000a6	eb bb		 jmp	 SHORT $L199893
$L199894:

; 278  : 				_Ptr = _Pnode;	// ==> parent (head if end())

  000a8	8b 4d f8	 mov	 ecx, DWORD PTR _this$[ebp]
  000ab	8b 55 fc	 mov	 edx, DWORD PTR __Pnode$199891[ebp]
  000ae	89 11		 mov	 DWORD PTR [ecx], edx
$L199886:

; 279  : 				}
; 280  : 			}

  000b0	8b e5		 mov	 esp, ebp
  000b2	5d		 pop	 ebp
  000b3	c3		 ret	 0
?_Inc@const_iterator@?$_Tree@V?$_Tmap_traits@KPAVIData@@U?$less@K@std@@V?$allocator@U?$pair@$$CBKPAVIData@@@std@@@3@$0A@@std@@@std@@QAEXXZ ENDP ; std::_Tree<std::_Tmap_traits<unsigned long,IData *,std::less<unsigned long>,std::allocator<std::pair<unsigned long const ,IData *> >,0> >::const_iterator::_Inc
; Function compile flags: /Odt
; File d:\program files (x86)\microsoft visual studio .net 2003\vc7\include\utility
_TEXT	ENDS
;	COMDAT ??0?$pair@Viterator@?$_Tree@V?$_Tmap_traits@KPAVIData@@U?$less@K@std@@V?$allocator@U?$pair@$$CBKPAVIData@@@std@@@3@$0A@@std@@@std@@_N@std@@QAE@ABViterator@?$_Tree@V?$_Tmap_traits@KPAVIData@@U?$less@K@std@@V?$allocator@U?$pair@$$CBKPAVIData@@@std@@@3@$0A@@std@@@1@AB_N@Z
_TEXT	SEGMENT
_this$ = -4						; size = 4
__Val1$ = 8						; size = 4
__Val2$ = 12						; size = 4
??0?$pair@Viterator@?$_Tree@V?$_Tmap_traits@KPAVIData@@U?$less@K@std@@V?$allocator@U?$pair@$$CBKPAVIData@@@std@@@3@$0A@@std@@@std@@_N@std@@QAE@ABViterator@?$_Tree@V?$_Tmap_traits@KPAVIData@@U?$less@K@std@@V?$allocator@U?$pair@$$CBKPAVIData@@@std@@@3@$0A@@std@@@1@AB_N@Z PROC NEAR ; std::pair<std::_Tree<std::_Tmap_traits<unsigned long,IData *,std::less<unsigned long>,std::allocator<std::pair<unsigned long const ,IData *> >,0> >::iterator,bool>::pair<std::_Tree<std::_Tmap_traits<unsigned long,IData *,std::less<unsigned long>,std::allocator<std::pair<unsigned long const ,IData *> >,0> >::iterator,bool>, COMDAT
; _this$ = ecx

; 34   : 		{	// construct from specified values

  00000	55		 push	 ebp
  00001	8b ec		 mov	 ebp, esp
  00003	51		 push	 ecx
  00004	89 4d fc	 mov	 DWORD PTR _this$[ebp], ecx
  00007	8b 45 08	 mov	 eax, DWORD PTR __Val1$[ebp]
  0000a	8b 08		 mov	 ecx, DWORD PTR [eax]
  0000c	8b 55 fc	 mov	 edx, DWORD PTR _this$[ebp]
  0000f	89 0a		 mov	 DWORD PTR [edx], ecx
  00011	8b 45 fc	 mov	 eax, DWORD PTR _this$[ebp]
  00014	8b 4d 0c	 mov	 ecx, DWORD PTR __Val2$[ebp]
  00017	8a 11		 mov	 dl, BYTE PTR [ecx]
  00019	88 50 04	 mov	 BYTE PTR [eax+4], dl

; 35   : 		}

  0001c	8b 45 fc	 mov	 eax, DWORD PTR _this$[ebp]
  0001f	8b e5		 mov	 esp, ebp
  00021	5d		 pop	 ebp
  00022	c2 08 00	 ret	 8
??0?$pair@Viterator@?$_Tree@V?$_Tmap_traits@KPAVIData@@U?$less@K@std@@V?$allocator@U?$pair@$$CBKPAVIData@@@std@@@3@$0A@@std@@@std@@_N@std@@QAE@ABViterator@?$_Tree@V?$_Tmap_traits@KPAVIData@@U?$less@K@std@@V?$allocator@U?$pair@$$CBKPAVIData@@@std@@@3@$0A@@std@@@1@AB_N@Z ENDP ; std::pair<std::_Tree<std::_Tmap_traits<unsigned long,IData *,std::less<unsigned long>,std::allocator<std::pair<unsigned long const ,IData *> >,0> >::iterator,bool>::pair<std::_Tree<std::_Tmap_traits<unsigned long,IData *,std::less<unsigned long>,std::allocator<std::pair<unsigned long const ,IData *> >,0> >::iterator,bool>
_TEXT	ENDS
PUBLIC	??$?0U?$pair@$$CBKPAVIData@@@std@@@?$allocator@U_Node@?$_Tree_nod@V?$_Tmap_traits@KPAVIData@@U?$less@K@std@@V?$allocator@U?$pair@$$CBKPAVIData@@@std@@@3@$0A@@std@@@std@@@std@@QAE@ABV?$allocator@U?$pair@$$CBKPAVIData@@@std@@@1@@Z ; std::allocator<std::_Tree_nod<std::_Tmap_traits<unsigned long,IData *,std::less<unsigned long>,std::allocator<std::pair<unsigned long const ,IData *> >,0> >::_Node>::allocator<std::_Tree_nod<std::_Tmap_traits<unsigned long,IData *,std::less<unsigned long>,std::allocator<std::pair<unsigned long const ,IData *> >,0> >::_Node><std::pair<unsigned long const ,IData *> >
PUBLIC	??0?$_Tmap_traits@KPAVIData@@U?$less@K@std@@V?$allocator@U?$pair@$$CBKPAVIData@@@std@@@3@$0A@@std@@QAE@U?$less@K@1@@Z ; std::_Tmap_traits<unsigned long,IData *,std::less<unsigned long>,std::allocator<std::pair<unsigned long const ,IData *> >,0>::_Tmap_traits<unsigned long,IData *,std::less<unsigned long>,std::allocator<std::pair<unsigned long const ,IData *> >,0>
; Function compile flags: /Odt
; File d:\program files (x86)\microsoft visual studio .net 2003\vc7\include\xtree
;	COMDAT ??0?$_Tree_nod@V?$_Tmap_traits@KPAVIData@@U?$less@K@std@@V?$allocator@U?$pair@$$CBKPAVIData@@@std@@@3@$0A@@std@@@std@@IAE@ABU?$less@K@1@V?$allocator@U?$pair@$$CBKPAVIData@@@std@@@1@@Z
_TEXT	SEGMENT
_this$ = -4						; size = 4
__Parg$ = 8						; size = 4
__Al$ = 12						; size = 1
??0?$_Tree_nod@V?$_Tmap_traits@KPAVIData@@U?$less@K@std@@V?$allocator@U?$pair@$$CBKPAVIData@@@std@@@3@$0A@@std@@@std@@IAE@ABU?$less@K@1@V?$allocator@U?$pair@$$CBKPAVIData@@@std@@@1@@Z PROC NEAR ; std::_Tree_nod<std::_Tmap_traits<unsigned long,IData *,std::less<unsigned long>,std::allocator<std::pair<unsigned long const ,IData *> >,0> >::_Tree_nod<std::_Tmap_traits<unsigned long,IData *,std::less<unsigned long>,std::allocator<std::pair<unsigned long const ,IData *> >,0> >, COMDAT
; _this$ = ecx

; 54   : 		{	// construct traits from _Parg and allocator from _Al

  00000	55		 push	 ebp
  00001	8b ec		 mov	 ebp, esp
  00003	51		 push	 ecx
  00004	89 4d fc	 mov	 DWORD PTR _this$[ebp], ecx
  00007	8b 45 08	 mov	 eax, DWORD PTR __Parg$[ebp]
  0000a	8a 08		 mov	 cl, BYTE PTR [eax]
  0000c	51		 push	 ecx
  0000d	8b 4d fc	 mov	 ecx, DWORD PTR _this$[ebp]
  00010	e8 00 00 00 00	 call	 ??0?$_Tmap_traits@KPAVIData@@U?$less@K@std@@V?$allocator@U?$pair@$$CBKPAVIData@@@std@@@3@$0A@@std@@QAE@U?$less@K@1@@Z ; std::_Tmap_traits<unsigned long,IData *,std::less<unsigned long>,std::allocator<std::pair<unsigned long const ,IData *> >,0>::_Tmap_traits<unsigned long,IData *,std::less<unsigned long>,std::allocator<std::pair<unsigned long const ,IData *> >,0>
  00015	8d 55 0c	 lea	 edx, DWORD PTR __Al$[ebp]
  00018	52		 push	 edx
  00019	8b 4d fc	 mov	 ecx, DWORD PTR _this$[ebp]
  0001c	83 c1 01	 add	 ecx, 1
  0001f	e8 00 00 00 00	 call	 ??$?0U?$pair@$$CBKPAVIData@@@std@@@?$allocator@U_Node@?$_Tree_nod@V?$_Tmap_traits@KPAVIData@@U?$less@K@std@@V?$allocator@U?$pair@$$CBKPAVIData@@@std@@@3@$0A@@std@@@std@@@std@@QAE@ABV?$allocator@U?$pair@$$CBKPAVIData@@@std@@@1@@Z ; std::allocator<std::_Tree_nod<std::_Tmap_traits<unsigned long,IData *,std::less<unsigned long>,std::allocator<std::pair<unsigned long const ,IData *> >,0> >::_Node>::allocator<std::_Tree_nod<std::_Tmap_traits<unsigned long,IData *,std::less<unsigned long>,std::allocator<std::pair<unsigned long const ,IData *> >,0> >::_Node><std::pair<unsigned long const ,IData *> >

; 55   : 		}

  00024	8b 45 fc	 mov	 eax, DWORD PTR _this$[ebp]
  00027	8b e5		 mov	 esp, ebp
  00029	5d		 pop	 ebp
  0002a	c2 08 00	 ret	 8
??0?$_Tree_nod@V?$_Tmap_traits@KPAVIData@@U?$less@K@std@@V?$allocator@U?$pair@$$CBKPAVIData@@@std@@@3@$0A@@std@@@std@@IAE@ABU?$less@K@1@V?$allocator@U?$pair@$$CBKPAVIData@@@std@@@1@@Z ENDP ; std::_Tree_nod<std::_Tmap_traits<unsigned long,IData *,std::less<unsigned long>,std::allocator<std::pair<unsigned long const ,IData *> >,0> >::_Tree_nod<std::_Tmap_traits<unsigned long,IData *,std::less<unsigned long>,std::allocator<std::pair<unsigned long const ,IData *> >,0> >
; Function compile flags: /Odt
; File d:\program files (x86)\microsoft visual studio .net 2003\vc7\include\xmemory
_TEXT	ENDS
;	COMDAT ?max_size@?$allocator@U?$pair@$$CBKPAVIData@@@std@@@std@@QBEIXZ
_TEXT	SEGMENT
tv65 = -12						; size = 4
_this$ = -8						; size = 4
__Count$ = -4						; size = 4
?max_size@?$allocator@U?$pair@$$CBKPAVIData@@@std@@@std@@QBEIXZ PROC NEAR ; std::allocator<std::pair<unsigned long const ,IData *> >::max_size, COMDAT
; _this$ = ecx

; 156  : 		{	// estimate maximum array size

  00000	55		 push	 ebp
  00001	8b ec		 mov	 ebp, esp
  00003	83 ec 0c	 sub	 esp, 12			; 0000000cH
  00006	89 4d f8	 mov	 DWORD PTR _this$[ebp], ecx

; 157  : 		_SIZT _Count = (_SIZT)(-1) / sizeof (_Ty);

  00009	c7 45 fc ff ff
	ff 1f		 mov	 DWORD PTR __Count$[ebp], 536870911 ; 1fffffffH

; 158  : 		return (0 < _Count ? _Count : 1);

  00010	83 7d fc 00	 cmp	 DWORD PTR __Count$[ebp], 0
  00014	76 08		 jbe	 SHORT $L200801
  00016	8b 45 fc	 mov	 eax, DWORD PTR __Count$[ebp]
  00019	89 45 f4	 mov	 DWORD PTR tv65[ebp], eax
  0001c	eb 07		 jmp	 SHORT $L200802
$L200801:
  0001e	c7 45 f4 01 00
	00 00		 mov	 DWORD PTR tv65[ebp], 1
$L200802:
  00025	8b 45 f4	 mov	 eax, DWORD PTR tv65[ebp]

; 159  : 		}

  00028	8b e5		 mov	 esp, ebp
  0002a	5d		 pop	 ebp
  0002b	c3		 ret	 0
?max_size@?$allocator@U?$pair@$$CBKPAVIData@@@std@@@std@@QBEIXZ ENDP ; std::allocator<std::pair<unsigned long const ,IData *> >::max_size
_TEXT	ENDS
PUBLIC	??$_Allocate@U_Node@?$_Tree_nod@V?$_Tmap_traits@KPAVIData@@U?$less@K@std@@V?$allocator@U?$pair@$$CBKPAVIData@@@std@@@3@$0A@@std@@@std@@@std@@YAPAU_Node@?$_Tree_nod@V?$_Tmap_traits@KPAVIData@@U?$less@K@std@@V?$allocator@U?$pair@$$CBKPAVIData@@@std@@@3@$0A@@std@@@0@IPAU120@@Z ; std::_Allocate<std::_Tree_nod<std::_Tmap_traits<unsigned long,IData *,std::less<unsigned long>,std::allocator<std::pair<unsigned long const ,IData *> >,0> >::_Node>
; Function compile flags: /Odt
;	COMDAT ?allocate@?$allocator@U_Node@?$_Tree_nod@V?$_Tmap_traits@KPAVIData@@U?$less@K@std@@V?$allocator@U?$pair@$$CBKPAVIData@@@std@@@3@$0A@@std@@@std@@@std@@QAEPAU_Node@?$_Tree_nod@V?$_Tmap_traits@KPAVIData@@U?$less@K@std@@V?$allocator@U?$pair@$$CBKPAVIData@@@std@@@3@$0A@@std@@@2@I@Z
_TEXT	SEGMENT
_this$ = -4						; size = 4
__Count$ = 8						; size = 4
?allocate@?$allocator@U_Node@?$_Tree_nod@V?$_Tmap_traits@KPAVIData@@U?$less@K@std@@V?$allocator@U?$pair@$$CBKPAVIData@@@std@@@3@$0A@@std@@@std@@@std@@QAEPAU_Node@?$_Tree_nod@V?$_Tmap_traits@KPAVIData@@U?$less@K@std@@V?$allocator@U?$pair@$$CBKPAVIData@@@std@@@3@$0A@@std@@@2@I@Z PROC NEAR ; std::allocator<std::_Tree_nod<std::_Tmap_traits<unsigned long,IData *,std::less<unsigned long>,std::allocator<std::pair<unsigned long const ,IData *> >,0> >::_Node>::allocate, COMDAT
; _this$ = ecx

; 136  : 		{	// allocate array of _Count elements

  00000	55		 push	 ebp
  00001	8b ec		 mov	 ebp, esp
  00003	51		 push	 ecx
  00004	89 4d fc	 mov	 DWORD PTR _this$[ebp], ecx

; 137  : 		return (_Allocate(_Count, (pointer)0));

  00007	6a 00		 push	 0
  00009	8b 45 08	 mov	 eax, DWORD PTR __Count$[ebp]
  0000c	50		 push	 eax
  0000d	e8 00 00 00 00	 call	 ??$_Allocate@U_Node@?$_Tree_nod@V?$_Tmap_traits@KPAVIData@@U?$less@K@std@@V?$allocator@U?$pair@$$CBKPAVIData@@@std@@@3@$0A@@std@@@std@@@std@@YAPAU_Node@?$_Tree_nod@V?$_Tmap_traits@KPAVIData@@U?$less@K@std@@V?$allocator@U?$pair@$$CBKPAVIData@@@std@@@3@$0A@@std@@@0@IPAU120@@Z ; std::_Allocate<std::_Tree_nod<std::_Tmap_traits<unsigned long,IData *,std::less<unsigned long>,std::allocator<std::pair<unsigned long const ,IData *> >,0> >::_Node>
  00012	83 c4 08	 add	 esp, 8

; 138  : 		}

  00015	8b e5		 mov	 esp, ebp
  00017	5d		 pop	 ebp
  00018	c2 04 00	 ret	 4
?allocate@?$allocator@U_Node@?$_Tree_nod@V?$_Tmap_traits@KPAVIData@@U?$less@K@std@@V?$allocator@U?$pair@$$CBKPAVIData@@@std@@@3@$0A@@std@@@std@@@std@@QAEPAU_Node@?$_Tree_nod@V?$_Tmap_traits@KPAVIData@@U?$less@K@std@@V?$allocator@U?$pair@$$CBKPAVIData@@@std@@@3@$0A@@std@@@2@I@Z ENDP ; std::allocator<std::_Tree_nod<std::_Tmap_traits<unsigned long,IData *,std::less<unsigned long>,std::allocator<std::pair<unsigned long const ,IData *> >,0> >::_Node>::allocate
_TEXT	ENDS
PUBLIC	??$_Construct@PAU_Node@?$_Tree_nod@V?$_Tmap_traits@KPAVIData@@U?$less@K@std@@V?$allocator@U?$pair@$$CBKPAVIData@@@std@@@3@$0A@@std@@@std@@PAU123@@std@@YAXPAPAU_Node@?$_Tree_nod@V?$_Tmap_traits@KPAVIData@@U?$less@K@std@@V?$allocator@U?$pair@$$CBKPAVIData@@@std@@@3@$0A@@std@@@0@ABQAU120@@Z ; std::_Construct<std::_Tree_nod<std::_Tmap_traits<unsigned long,IData *,std::less<unsigned long>,std::allocator<std::pair<unsigned long const ,IData *> >,0> >::_Node *,std::_Tree_nod<std::_Tmap_traits<unsigned long,IData *,std::less<unsigned long>,std::allocator<std::pair<unsigned long const ,IData *> >,0> >::_Node *>
; Function compile flags: /Odt
;	COMDAT ?construct@?$allocator@PAU_Node@?$_Tree_nod@V?$_Tmap_traits@KPAVIData@@U?$less@K@std@@V?$allocator@U?$pair@$$CBKPAVIData@@@std@@@3@$0A@@std@@@std@@@std@@QAEXPAPAU_Node@?$_Tree_nod@V?$_Tmap_traits@KPAVIData@@U?$less@K@std@@V?$allocator@U?$pair@$$CBKPAVIData@@@std@@@3@$0A@@std@@@2@ABQAU342@@Z
_TEXT	SEGMENT
_this$ = -4						; size = 4
__Ptr$ = 8						; size = 4
__Val$ = 12						; size = 4
?construct@?$allocator@PAU_Node@?$_Tree_nod@V?$_Tmap_traits@KPAVIData@@U?$less@K@std@@V?$allocator@U?$pair@$$CBKPAVIData@@@std@@@3@$0A@@std@@@std@@@std@@QAEXPAPAU_Node@?$_Tree_nod@V?$_Tmap_traits@KPAVIData@@U?$less@K@std@@V?$allocator@U?$pair@$$CBKPAVIData@@@std@@@3@$0A@@std@@@2@ABQAU342@@Z PROC NEAR ; std::allocator<std::_Tree_nod<std::_Tmap_traits<unsigned long,IData *,std::less<unsigned long>,std::allocator<std::pair<unsigned long const ,IData *> >,0> >::_Node *>::construct, COMDAT
; _this$ = ecx

; 146  : 		{	// construct object at _Ptr with value _Val

  00000	55		 push	 ebp
  00001	8b ec		 mov	 ebp, esp
  00003	51		 push	 ecx
  00004	89 4d fc	 mov	 DWORD PTR _this$[ebp], ecx

; 147  : 		_Construct(_Ptr, _Val);

  00007	8b 45 0c	 mov	 eax, DWORD PTR __Val$[ebp]
  0000a	50		 push	 eax
  0000b	8b 4d 08	 mov	 ecx, DWORD PTR __Ptr$[ebp]
  0000e	51		 push	 ecx
  0000f	e8 00 00 00 00	 call	 ??$_Construct@PAU_Node@?$_Tree_nod@V?$_Tmap_traits@KPAVIData@@U?$less@K@std@@V?$allocator@U?$pair@$$CBKPAVIData@@@std@@@3@$0A@@std@@@std@@PAU123@@std@@YAXPAPAU_Node@?$_Tree_nod@V?$_Tmap_traits@KPAVIData@@U?$less@K@std@@V?$allocator@U?$pair@$$CBKPAVIData@@@std@@@3@$0A@@std@@@0@ABQAU120@@Z ; std::_Construct<std::_Tree_nod<std::_Tmap_traits<unsigned long,IData *,std::less<unsigned long>,std::allocator<std::pair<unsigned long const ,IData *> >,0> >::_Node *,std::_Tree_nod<std::_Tmap_traits<unsigned long,IData *,std::less<unsigned long>,std::allocator<std::pair<unsigned long const ,IData *> >,0> >::_Node *>
  00014	83 c4 08	 add	 esp, 8

; 148  : 		}

  00017	8b e5		 mov	 esp, ebp
  00019	5d		 pop	 ebp
  0001a	c2 08 00	 ret	 8
?construct@?$allocator@PAU_Node@?$_Tree_nod@V?$_Tmap_traits@KPAVIData@@U?$less@K@std@@V?$allocator@U?$pair@$$CBKPAVIData@@@std@@@3@$0A@@std@@@std@@@std@@QAEXPAPAU_Node@?$_Tree_nod@V?$_Tmap_traits@KPAVIData@@U?$less@K@std@@V?$allocator@U?$pair@$$CBKPAVIData@@@std@@@3@$0A@@std@@@2@ABQAU342@@Z ENDP ; std::allocator<std::_Tree_nod<std::_Tmap_traits<unsigned long,IData *,std::less<unsigned long>,std::allocator<std::pair<unsigned long const ,IData *> >,0> >::_Node *>::construct
; Function compile flags: /Odt
; File d:\program files (x86)\microsoft visual studio .net 2003\vc7\include\xtree
_TEXT	ENDS
;	COMDAT ?_Dec@const_iterator@?$_Tree@V?$_Tmap_traits@KPAVIData@@U?$less@K@std@@V?$allocator@U?$pair@$$CBKPAVIData@@@std@@@3@$0A@@std@@@std@@QAEXXZ
_TEXT	SEGMENT
_this$ = -8						; size = 4
__Pnode$199929 = -4					; size = 4
?_Dec@const_iterator@?$_Tree@V?$_Tmap_traits@KPAVIData@@U?$less@K@std@@V?$allocator@U?$pair@$$CBKPAVIData@@@std@@@3@$0A@@std@@@std@@QAEXXZ PROC NEAR ; std::_Tree<std::_Tmap_traits<unsigned long,IData *,std::less<unsigned long>,std::allocator<std::pair<unsigned long const ,IData *> >,0> >::const_iterator::_Dec, COMDAT
; _this$ = ecx

; 250  : 			{	// move to node with next smaller value

  00000	55		 push	 ebp
  00001	8b ec		 mov	 ebp, esp
  00003	83 ec 08	 sub	 esp, 8
  00006	89 4d f8	 mov	 DWORD PTR _this$[ebp], ecx

; 251  : 			if (_Isnil(_Ptr))

  00009	8b 45 f8	 mov	 eax, DWORD PTR _this$[ebp]
  0000c	8b 08		 mov	 ecx, DWORD PTR [eax]
  0000e	51		 push	 ecx
  0000f	e8 00 00 00 00	 call	 ?_Isnil@?$_Tree@V?$_Tmap_traits@KPAVIData@@U?$less@K@std@@V?$allocator@U?$pair@$$CBKPAVIData@@@std@@@3@$0A@@std@@@std@@KAAADPAU_Node@?$_Tree_nod@V?$_Tmap_traits@KPAVIData@@U?$less@K@std@@V?$allocator@U?$pair@$$CBKPAVIData@@@std@@@3@$0A@@std@@@2@@Z ; std::_Tree<std::_Tmap_traits<unsigned long,IData *,std::less<unsigned long>,std::allocator<std::pair<unsigned long const ,IData *> >,0> >::_Isnil
  00014	83 c4 04	 add	 esp, 4
  00017	0f be 10	 movsx	 edx, BYTE PTR [eax]
  0001a	85 d2		 test	 edx, edx
  0001c	74 1a		 je	 SHORT $L199925

; 252  : 				_Ptr = _Right(_Ptr);	// end() ==> rightmost

  0001e	8b 45 f8	 mov	 eax, DWORD PTR _this$[ebp]
  00021	8b 08		 mov	 ecx, DWORD PTR [eax]
  00023	51		 push	 ecx
  00024	e8 00 00 00 00	 call	 ?_Right@?$_Tree@V?$_Tmap_traits@KPAVIData@@U?$less@K@std@@V?$allocator@U?$pair@$$CBKPAVIData@@@std@@@3@$0A@@std@@@std@@KAAAPAU_Node@?$_Tree_nod@V?$_Tmap_traits@KPAVIData@@U?$less@K@std@@V?$allocator@U?$pair@$$CBKPAVIData@@@std@@@3@$0A@@std@@@2@PAU342@@Z ; std::_Tree<std::_Tmap_traits<unsigned long,IData *,std::less<unsigned long>,std::allocator<std::pair<unsigned long const ,IData *> >,0> >::_Right
  00029	83 c4 04	 add	 esp, 4
  0002c	8b 55 f8	 mov	 edx, DWORD PTR _this$[ebp]
  0002f	8b 00		 mov	 eax, DWORD PTR [eax]
  00031	89 02		 mov	 DWORD PTR [edx], eax

; 253  : 			else if (!_Isnil(_Left(_Ptr)))

  00033	e9 a0 00 00 00	 jmp	 $L199924
$L199925:
  00038	8b 4d f8	 mov	 ecx, DWORD PTR _this$[ebp]
  0003b	8b 11		 mov	 edx, DWORD PTR [ecx]
  0003d	52		 push	 edx
  0003e	e8 00 00 00 00	 call	 ?_Left@?$_Tree@V?$_Tmap_traits@KPAVIData@@U?$less@K@std@@V?$allocator@U?$pair@$$CBKPAVIData@@@std@@@3@$0A@@std@@@std@@KAAAPAU_Node@?$_Tree_nod@V?$_Tmap_traits@KPAVIData@@U?$less@K@std@@V?$allocator@U?$pair@$$CBKPAVIData@@@std@@@3@$0A@@std@@@2@PAU342@@Z ; std::_Tree<std::_Tmap_traits<unsigned long,IData *,std::less<unsigned long>,std::allocator<std::pair<unsigned long const ,IData *> >,0> >::_Left
  00043	83 c4 04	 add	 esp, 4
  00046	8b 00		 mov	 eax, DWORD PTR [eax]
  00048	50		 push	 eax
  00049	e8 00 00 00 00	 call	 ?_Isnil@?$_Tree@V?$_Tmap_traits@KPAVIData@@U?$less@K@std@@V?$allocator@U?$pair@$$CBKPAVIData@@@std@@@3@$0A@@std@@@std@@KAAADPAU_Node@?$_Tree_nod@V?$_Tmap_traits@KPAVIData@@U?$less@K@std@@V?$allocator@U?$pair@$$CBKPAVIData@@@std@@@3@$0A@@std@@@2@@Z ; std::_Tree<std::_Tmap_traits<unsigned long,IData *,std::less<unsigned long>,std::allocator<std::pair<unsigned long const ,IData *> >,0> >::_Isnil
  0004e	83 c4 04	 add	 esp, 4
  00051	0f be 08	 movsx	 ecx, BYTE PTR [eax]
  00054	85 c9		 test	 ecx, ecx
  00056	75 20		 jne	 SHORT $L199931

; 254  : 				_Ptr = _Max(_Left(_Ptr));	// ==> largest of left subtree

  00058	8b 55 f8	 mov	 edx, DWORD PTR _this$[ebp]
  0005b	8b 02		 mov	 eax, DWORD PTR [edx]
  0005d	50		 push	 eax
  0005e	e8 00 00 00 00	 call	 ?_Left@?$_Tree@V?$_Tmap_traits@KPAVIData@@U?$less@K@std@@V?$allocator@U?$pair@$$CBKPAVIData@@@std@@@3@$0A@@std@@@std@@KAAAPAU_Node@?$_Tree_nod@V?$_Tmap_traits@KPAVIData@@U?$less@K@std@@V?$allocator@U?$pair@$$CBKPAVIData@@@std@@@3@$0A@@std@@@2@PAU342@@Z ; std::_Tree<std::_Tmap_traits<unsigned long,IData *,std::less<unsigned long>,std::allocator<std::pair<unsigned long const ,IData *> >,0> >::_Left
  00063	83 c4 04	 add	 esp, 4
  00066	8b 08		 mov	 ecx, DWORD PTR [eax]
  00068	51		 push	 ecx
  00069	e8 00 00 00 00	 call	 ?_Max@?$_Tree@V?$_Tmap_traits@KPAVIData@@U?$less@K@std@@V?$allocator@U?$pair@$$CBKPAVIData@@@std@@@3@$0A@@std@@@std@@KAPAU_Node@?$_Tree_nod@V?$_Tmap_traits@KPAVIData@@U?$less@K@std@@V?$allocator@U?$pair@$$CBKPAVIData@@@std@@@3@$0A@@std@@@2@PAU342@@Z ; std::_Tree<std::_Tmap_traits<unsigned long,IData *,std::less<unsigned long>,std::allocator<std::pair<unsigned long const ,IData *> >,0> >::_Max
  0006e	83 c4 04	 add	 esp, 4
  00071	8b 55 f8	 mov	 edx, DWORD PTR _this$[ebp]
  00074	89 02		 mov	 DWORD PTR [edx], eax

; 255  : 			else

  00076	eb 60		 jmp	 SHORT $L199924
$L199931:

; 256  : 				{	// climb looking for left subtree
; 257  : 				_Nodeptr _Pnode;
; 258  : 				while (!_Isnil(_Pnode = _Parent(_Ptr))
; 259  : 					&& _Ptr == _Left(_Pnode))

  00078	8b 45 f8	 mov	 eax, DWORD PTR _this$[ebp]
  0007b	8b 08		 mov	 ecx, DWORD PTR [eax]
  0007d	51		 push	 ecx
  0007e	e8 00 00 00 00	 call	 ?_Parent@?$_Tree@V?$_Tmap_traits@KPAVIData@@U?$less@K@std@@V?$allocator@U?$pair@$$CBKPAVIData@@@std@@@3@$0A@@std@@@std@@KAAAPAU_Node@?$_Tree_nod@V?$_Tmap_traits@KPAVIData@@U?$less@K@std@@V?$allocator@U?$pair@$$CBKPAVIData@@@std@@@3@$0A@@std@@@2@PAU342@@Z ; std::_Tree<std::_Tmap_traits<unsigned long,IData *,std::less<unsigned long>,std::allocator<std::pair<unsigned long const ,IData *> >,0> >::_Parent
  00083	83 c4 04	 add	 esp, 4
  00086	8b 10		 mov	 edx, DWORD PTR [eax]
  00088	89 55 fc	 mov	 DWORD PTR __Pnode$199929[ebp], edx
  0008b	8b 45 fc	 mov	 eax, DWORD PTR __Pnode$199929[ebp]
  0008e	50		 push	 eax
  0008f	e8 00 00 00 00	 call	 ?_Isnil@?$_Tree@V?$_Tmap_traits@KPAVIData@@U?$less@K@std@@V?$allocator@U?$pair@$$CBKPAVIData@@@std@@@3@$0A@@std@@@std@@KAAADPAU_Node@?$_Tree_nod@V?$_Tmap_traits@KPAVIData@@U?$less@K@std@@V?$allocator@U?$pair@$$CBKPAVIData@@@std@@@3@$0A@@std@@@2@@Z ; std::_Tree<std::_Tmap_traits<unsigned long,IData *,std::less<unsigned long>,std::allocator<std::pair<unsigned long const ,IData *> >,0> >::_Isnil
  00094	83 c4 04	 add	 esp, 4
  00097	0f be 08	 movsx	 ecx, BYTE PTR [eax]
  0009a	85 c9		 test	 ecx, ecx
  0009c	75 1f		 jne	 SHORT $L199932
  0009e	8b 55 fc	 mov	 edx, DWORD PTR __Pnode$199929[ebp]
  000a1	52		 push	 edx
  000a2	e8 00 00 00 00	 call	 ?_Left@?$_Tree@V?$_Tmap_traits@KPAVIData@@U?$less@K@std@@V?$allocator@U?$pair@$$CBKPAVIData@@@std@@@3@$0A@@std@@@std@@KAAAPAU_Node@?$_Tree_nod@V?$_Tmap_traits@KPAVIData@@U?$less@K@std@@V?$allocator@U?$pair@$$CBKPAVIData@@@std@@@3@$0A@@std@@@2@PAU342@@Z ; std::_Tree<std::_Tmap_traits<unsigned long,IData *,std::less<unsigned long>,std::allocator<std::pair<unsigned long const ,IData *> >,0> >::_Left
  000a7	83 c4 04	 add	 esp, 4
  000aa	8b 4d f8	 mov	 ecx, DWORD PTR _this$[ebp]
  000ad	8b 11		 mov	 edx, DWORD PTR [ecx]
  000af	3b 10		 cmp	 edx, DWORD PTR [eax]
  000b1	75 0a		 jne	 SHORT $L199932

; 260  : 					_Ptr = _Pnode;	// ==> parent while left subtree

  000b3	8b 45 f8	 mov	 eax, DWORD PTR _this$[ebp]
  000b6	8b 4d fc	 mov	 ecx, DWORD PTR __Pnode$199929[ebp]
  000b9	89 08		 mov	 DWORD PTR [eax], ecx
  000bb	eb bb		 jmp	 SHORT $L199931
$L199932:

; 261  : 				if (!_Isnil(_Pnode))

  000bd	8b 55 fc	 mov	 edx, DWORD PTR __Pnode$199929[ebp]
  000c0	52		 push	 edx
  000c1	e8 00 00 00 00	 call	 ?_Isnil@?$_Tree@V?$_Tmap_traits@KPAVIData@@U?$less@K@std@@V?$allocator@U?$pair@$$CBKPAVIData@@@std@@@3@$0A@@std@@@std@@KAAADPAU_Node@?$_Tree_nod@V?$_Tmap_traits@KPAVIData@@U?$less@K@std@@V?$allocator@U?$pair@$$CBKPAVIData@@@std@@@3@$0A@@std@@@2@@Z ; std::_Tree<std::_Tmap_traits<unsigned long,IData *,std::less<unsigned long>,std::allocator<std::pair<unsigned long const ,IData *> >,0> >::_Isnil
  000c6	83 c4 04	 add	 esp, 4
  000c9	0f be 00	 movsx	 eax, BYTE PTR [eax]
  000cc	85 c0		 test	 eax, eax
  000ce	75 08		 jne	 SHORT $L199924

; 262  : 					_Ptr = _Pnode;	// ==> parent if not head

  000d0	8b 4d f8	 mov	 ecx, DWORD PTR _this$[ebp]
  000d3	8b 55 fc	 mov	 edx, DWORD PTR __Pnode$199929[ebp]
  000d6	89 11		 mov	 DWORD PTR [ecx], edx
$L199924:

; 263  : 				}
; 264  : 			}

  000d8	8b e5		 mov	 esp, ebp
  000da	5d		 pop	 ebp
  000db	c3		 ret	 0
?_Dec@const_iterator@?$_Tree@V?$_Tmap_traits@KPAVIData@@U?$less@K@std@@V?$allocator@U?$pair@$$CBKPAVIData@@@std@@@3@$0A@@std@@@std@@QAEXXZ ENDP ; std::_Tree<std::_Tmap_traits<unsigned long,IData *,std::less<unsigned long>,std::allocator<std::pair<unsigned long const ,IData *> >,0> >::const_iterator::_Dec
; Function compile flags: /Odt
_TEXT	ENDS
;	COMDAT ??0_Node@?$_Tree_nod@V?$_Tmap_traits@KPAVIData@@U?$less@K@std@@V?$allocator@U?$pair@$$CBKPAVIData@@@std@@@3@$0A@@std@@@std@@QAE@PAU012@00ABU?$pair@$$CBKPAVIData@@@2@D@Z
_TEXT	SEGMENT
_this$ = -4						; size = 4
__Larg$ = 8						; size = 4
__Parg$ = 12						; size = 4
__Rarg$ = 16						; size = 4
__Val$ = 20						; size = 4
__Carg$ = 24						; size = 1
??0_Node@?$_Tree_nod@V?$_Tmap_traits@KPAVIData@@U?$less@K@std@@V?$allocator@U?$pair@$$CBKPAVIData@@@std@@@3@$0A@@std@@@std@@QAE@PAU012@00ABU?$pair@$$CBKPAVIData@@@2@D@Z PROC NEAR ; std::_Tree_nod<std::_Tmap_traits<unsigned long,IData *,std::less<unsigned long>,std::allocator<std::pair<unsigned long const ,IData *> >,0> >::_Node::_Node, COMDAT
; _this$ = ecx

; 40   : 			{	// construct a node with value

  00000	55		 push	 ebp
  00001	8b ec		 mov	 ebp, esp
  00003	51		 push	 ecx
  00004	89 4d fc	 mov	 DWORD PTR _this$[ebp], ecx
  00007	8b 45 fc	 mov	 eax, DWORD PTR _this$[ebp]
  0000a	8b 4d 08	 mov	 ecx, DWORD PTR __Larg$[ebp]
  0000d	89 08		 mov	 DWORD PTR [eax], ecx
  0000f	8b 55 fc	 mov	 edx, DWORD PTR _this$[ebp]
  00012	8b 45 0c	 mov	 eax, DWORD PTR __Parg$[ebp]
  00015	89 42 04	 mov	 DWORD PTR [edx+4], eax
  00018	8b 4d fc	 mov	 ecx, DWORD PTR _this$[ebp]
  0001b	8b 55 10	 mov	 edx, DWORD PTR __Rarg$[ebp]
  0001e	89 51 08	 mov	 DWORD PTR [ecx+8], edx
  00021	8b 45 14	 mov	 eax, DWORD PTR __Val$[ebp]
  00024	8b 08		 mov	 ecx, DWORD PTR [eax]
  00026	8b 50 04	 mov	 edx, DWORD PTR [eax+4]
  00029	8b 45 fc	 mov	 eax, DWORD PTR _this$[ebp]
  0002c	89 48 0c	 mov	 DWORD PTR [eax+12], ecx
  0002f	89 50 10	 mov	 DWORD PTR [eax+16], edx
  00032	8b 4d fc	 mov	 ecx, DWORD PTR _this$[ebp]
  00035	8a 55 18	 mov	 dl, BYTE PTR __Carg$[ebp]
  00038	88 51 14	 mov	 BYTE PTR [ecx+20], dl
  0003b	8b 45 fc	 mov	 eax, DWORD PTR _this$[ebp]
  0003e	c6 40 15 00	 mov	 BYTE PTR [eax+21], 0

; 41   : 			}

  00042	8b 45 fc	 mov	 eax, DWORD PTR _this$[ebp]
  00045	8b e5		 mov	 esp, ebp
  00047	5d		 pop	 ebp
  00048	c2 14 00	 ret	 20			; 00000014H
??0_Node@?$_Tree_nod@V?$_Tmap_traits@KPAVIData@@U?$less@K@std@@V?$allocator@U?$pair@$$CBKPAVIData@@@std@@@3@$0A@@std@@@std@@QAE@PAU012@00ABU?$pair@$$CBKPAVIData@@@2@D@Z ENDP ; std::_Tree_nod<std::_Tmap_traits<unsigned long,IData *,std::less<unsigned long>,std::allocator<std::pair<unsigned long const ,IData *> >,0> >::_Node::_Node
; Function compile flags: /Odt
; File d:\program files (x86)\microsoft visual studio .net 2003\vc7\include\map
_TEXT	ENDS
;	COMDAT ??0?$_Tmap_traits@KPAVIData@@U?$less@K@std@@V?$allocator@U?$pair@$$CBKPAVIData@@@std@@@3@$0A@@std@@QAE@U?$less@K@1@@Z
_TEXT	SEGMENT
_this$ = -4						; size = 4
__Parg$ = 8						; size = 1
??0?$_Tmap_traits@KPAVIData@@U?$less@K@std@@V?$allocator@U?$pair@$$CBKPAVIData@@@std@@@3@$0A@@std@@QAE@U?$less@K@1@@Z PROC NEAR ; std::_Tmap_traits<unsigned long,IData *,std::less<unsigned long>,std::allocator<std::pair<unsigned long const ,IData *> >,0>::_Tmap_traits<unsigned long,IData *,std::less<unsigned long>,std::allocator<std::pair<unsigned long const ,IData *> >,0>, COMDAT
; _this$ = ecx

; 38   : 		{	// construct with specified comparator

  00000	55		 push	 ebp
  00001	8b ec		 mov	 ebp, esp
  00003	51		 push	 ecx
  00004	89 4d fc	 mov	 DWORD PTR _this$[ebp], ecx

; 39   : 		}

  00007	8b 45 fc	 mov	 eax, DWORD PTR _this$[ebp]
  0000a	8b e5		 mov	 esp, ebp
  0000c	5d		 pop	 ebp
  0000d	c2 04 00	 ret	 4
??0?$_Tmap_traits@KPAVIData@@U?$less@K@std@@V?$allocator@U?$pair@$$CBKPAVIData@@@std@@@3@$0A@@std@@QAE@U?$less@K@1@@Z ENDP ; std::_Tmap_traits<unsigned long,IData *,std::less<unsigned long>,std::allocator<std::pair<unsigned long const ,IData *> >,0>::_Tmap_traits<unsigned long,IData *,std::less<unsigned long>,std::allocator<std::pair<unsigned long const ,IData *> >,0>
_TEXT	ENDS
PUBLIC	??$_Iter_cat@Viterator@?$_Tree@V?$_Tmap_traits@KPAVIData@@U?$less@K@std@@V?$allocator@U?$pair@$$CBKPAVIData@@@std@@@3@$0A@@std@@@std@@@std@@YA?AUbidirectional_iterator_tag@0@ABViterator@?$_Tree@V?$_Tmap_traits@KPAVIData@@U?$less@K@std@@V?$allocator@U?$pair@$$CBKPAVIData@@@std@@@3@$0A@@std@@@0@@Z ; std::_Iter_cat<std::_Tree<std::_Tmap_traits<unsigned long,IData *,std::less<unsigned long>,std::allocator<std::pair<unsigned long const ,IData *> >,0> >::iterator>
PUBLIC	??$_Distance2@Viterator@?$_Tree@V?$_Tmap_traits@KPAVIData@@U?$less@K@std@@V?$allocator@U?$pair@$$CBKPAVIData@@@std@@@3@$0A@@std@@@std@@I@std@@YAXViterator@?$_Tree@V?$_Tmap_traits@KPAVIData@@U?$less@K@std@@V?$allocator@U?$pair@$$CBKPAVIData@@@std@@@3@$0A@@std@@@0@0AAIUbidirectional_iterator_tag@0@@Z ; std::_Distance2<std::_Tree<std::_Tmap_traits<unsigned long,IData *,std::less<unsigned long>,std::allocator<std::pair<unsigned long const ,IData *> >,0> >::iterator,unsigned int>
; Function compile flags: /Odt
; File d:\program files (x86)\microsoft visual studio .net 2003\vc7\include\xutility
;	COMDAT ??$_Distance@Viterator@?$_Tree@V?$_Tmap_traits@KPAVIData@@U?$less@K@std@@V?$allocator@U?$pair@$$CBKPAVIData@@@std@@@3@$0A@@std@@@std@@I@std@@YAXViterator@?$_Tree@V?$_Tmap_traits@KPAVIData@@U?$less@K@std@@V?$allocator@U?$pair@$$CBKPAVIData@@@std@@@3@$0A@@std@@@0@0AAI@Z
_TEXT	SEGMENT
$T200815 = -1						; size = 1
__First$ = 8						; size = 4
__Last$ = 12						; size = 4
__Off$ = 16						; size = 4
??$_Distance@Viterator@?$_Tree@V?$_Tmap_traits@KPAVIData@@U?$less@K@std@@V?$allocator@U?$pair@$$CBKPAVIData@@@std@@@3@$0A@@std@@@std@@I@std@@YAXViterator@?$_Tree@V?$_Tmap_traits@KPAVIData@@U?$less@K@std@@V?$allocator@U?$pair@$$CBKPAVIData@@@std@@@3@$0A@@std@@@0@0AAI@Z PROC NEAR ; std::_Distance<std::_Tree<std::_Tmap_traits<unsigned long,IData *,std::less<unsigned long>,std::allocator<std::pair<unsigned long const ,IData *> >,0> >::iterator,unsigned int>, COMDAT

; 497  : 	{	// add to _Off distance between iterators

  00000	55		 push	 ebp
  00001	8b ec		 mov	 ebp, esp
  00003	51		 push	 ecx

; 498  : 	_Distance2(_First, _Last, _Off, _Iter_cat(_First));

  00004	8d 45 08	 lea	 eax, DWORD PTR __First$[ebp]
  00007	50		 push	 eax
  00008	8d 4d ff	 lea	 ecx, DWORD PTR $T200815[ebp]
  0000b	51		 push	 ecx
  0000c	e8 00 00 00 00	 call	 ??$_Iter_cat@Viterator@?$_Tree@V?$_Tmap_traits@KPAVIData@@U?$less@K@std@@V?$allocator@U?$pair@$$CBKPAVIData@@@std@@@3@$0A@@std@@@std@@@std@@YA?AUbidirectional_iterator_tag@0@ABViterator@?$_Tree@V?$_Tmap_traits@KPAVIData@@U?$less@K@std@@V?$allocator@U?$pair@$$CBKPAVIData@@@std@@@3@$0A@@std@@@0@@Z ; std::_Iter_cat<std::_Tree<std::_Tmap_traits<unsigned long,IData *,std::less<unsigned long>,std::allocator<std::pair<unsigned long const ,IData *> >,0> >::iterator>
  00011	83 c4 08	 add	 esp, 8
  00014	8a 10		 mov	 dl, BYTE PTR [eax]
  00016	52		 push	 edx
  00017	8b 45 10	 mov	 eax, DWORD PTR __Off$[ebp]
  0001a	50		 push	 eax
  0001b	8b 4d 0c	 mov	 ecx, DWORD PTR __Last$[ebp]
  0001e	51		 push	 ecx
  0001f	8b 55 08	 mov	 edx, DWORD PTR __First$[ebp]
  00022	52		 push	 edx
  00023	e8 00 00 00 00	 call	 ??$_Distance2@Viterator@?$_Tree@V?$_Tmap_traits@KPAVIData@@U?$less@K@std@@V?$allocator@U?$pair@$$CBKPAVIData@@@std@@@3@$0A@@std@@@std@@I@std@@YAXViterator@?$_Tree@V?$_Tmap_traits@KPAVIData@@U?$less@K@std@@V?$allocator@U?$pair@$$CBKPAVIData@@@std@@@3@$0A@@std@@@0@0AAIUbidirectional_iterator_tag@0@@Z ; std::_Distance2<std::_Tree<std::_Tmap_traits<unsigned long,IData *,std::less<unsigned long>,std::allocator<std::pair<unsigned long const ,IData *> >,0> >::iterator,unsigned int>
  00028	83 c4 10	 add	 esp, 16			; 00000010H

; 499  : 	}

  0002b	8b e5		 mov	 esp, ebp
  0002d	5d		 pop	 ebp
  0002e	c3		 ret	 0
??$_Distance@Viterator@?$_Tree@V?$_Tmap_traits@KPAVIData@@U?$less@K@std@@V?$allocator@U?$pair@$$CBKPAVIData@@@std@@@3@$0A@@std@@@std@@I@std@@YAXViterator@?$_Tree@V?$_Tmap_traits@KPAVIData@@U?$less@K@std@@V?$allocator@U?$pair@$$CBKPAVIData@@@std@@@3@$0A@@std@@@0@0AAI@Z ENDP ; std::_Distance<std::_Tree<std::_Tmap_traits<unsigned long,IData *,std::less<unsigned long>,std::allocator<std::pair<unsigned long const ,IData *> >,0> >::iterator,unsigned int>
; Function compile flags: /Odt
; File d:\program files (x86)\microsoft visual studio .net 2003\vc7\include\xmemory
_TEXT	ENDS
;	COMDAT ??$_Destroy@U_Node@?$_Tree_nod@V?$_Tmap_traits@KPAVIData@@U?$less@K@std@@V?$allocator@U?$pair@$$CBKPAVIData@@@std@@@3@$0A@@std@@@std@@@std@@YAXPAU_Node@?$_Tree_nod@V?$_Tmap_traits@KPAVIData@@U?$less@K@std@@V?$allocator@U?$pair@$$CBKPAVIData@@@std@@@3@$0A@@std@@@0@@Z
_TEXT	SEGMENT
__Ptr$ = 8						; size = 4
??$_Destroy@U_Node@?$_Tree_nod@V?$_Tmap_traits@KPAVIData@@U?$less@K@std@@V?$allocator@U?$pair@$$CBKPAVIData@@@std@@@3@$0A@@std@@@std@@@std@@YAXPAU_Node@?$_Tree_nod@V?$_Tmap_traits@KPAVIData@@U?$less@K@std@@V?$allocator@U?$pair@$$CBKPAVIData@@@std@@@3@$0A@@std@@@0@@Z PROC NEAR ; std::_Destroy<std::_Tree_nod<std::_Tmap_traits<unsigned long,IData *,std::less<unsigned long>,std::allocator<std::pair<unsigned long const ,IData *> >,0> >::_Node>, COMDAT

; 48   : 	{	// destroy object at _Ptr

  00000	55		 push	 ebp
  00001	8b ec		 mov	 ebp, esp

; 49   : 	_DESTRUCTOR(_Ty, _Ptr);
; 50   : 	}

  00003	5d		 pop	 ebp
  00004	c3		 ret	 0
??$_Destroy@U_Node@?$_Tree_nod@V?$_Tmap_traits@KPAVIData@@U?$less@K@std@@V?$allocator@U?$pair@$$CBKPAVIData@@@std@@@3@$0A@@std@@@std@@@std@@YAXPAU_Node@?$_Tree_nod@V?$_Tmap_traits@KPAVIData@@U?$less@K@std@@V?$allocator@U?$pair@$$CBKPAVIData@@@std@@@3@$0A@@std@@@0@@Z ENDP ; std::_Destroy<std::_Tree_nod<std::_Tmap_traits<unsigned long,IData *,std::less<unsigned long>,std::allocator<std::pair<unsigned long const ,IData *> >,0> >::_Node>
; Function compile flags: /Odt
_TEXT	ENDS
;	COMDAT ??$_Destroy@PAU_Node@?$_Tree_nod@V?$_Tmap_traits@KPAVIData@@U?$less@K@std@@V?$allocator@U?$pair@$$CBKPAVIData@@@std@@@3@$0A@@std@@@std@@@std@@YAXPAPAU_Node@?$_Tree_nod@V?$_Tmap_traits@KPAVIData@@U?$less@K@std@@V?$allocator@U?$pair@$$CBKPAVIData@@@std@@@3@$0A@@std@@@0@@Z
_TEXT	SEGMENT
__Ptr$ = 8						; size = 4
??$_Destroy@PAU_Node@?$_Tree_nod@V?$_Tmap_traits@KPAVIData@@U?$less@K@std@@V?$allocator@U?$pair@$$CBKPAVIData@@@std@@@3@$0A@@std@@@std@@@std@@YAXPAPAU_Node@?$_Tree_nod@V?$_Tmap_traits@KPAVIData@@U?$less@K@std@@V?$allocator@U?$pair@$$CBKPAVIData@@@std@@@3@$0A@@std@@@0@@Z PROC NEAR ; std::_Destroy<std::_Tree_nod<std::_Tmap_traits<unsigned long,IData *,std::less<unsigned long>,std::allocator<std::pair<unsigned long const ,IData *> >,0> >::_Node *>, COMDAT

; 48   : 	{	// destroy object at _Ptr

  00000	55		 push	 ebp
  00001	8b ec		 mov	 ebp, esp

; 49   : 	_DESTRUCTOR(_Ty, _Ptr);
; 50   : 	}

  00003	5d		 pop	 ebp
  00004	c3		 ret	 0
??$_Destroy@PAU_Node@?$_Tree_nod@V?$_Tmap_traits@KPAVIData@@U?$less@K@std@@V?$allocator@U?$pair@$$CBKPAVIData@@@std@@@3@$0A@@std@@@std@@@std@@YAXPAPAU_Node@?$_Tree_nod@V?$_Tmap_traits@KPAVIData@@U?$less@K@std@@V?$allocator@U?$pair@$$CBKPAVIData@@@std@@@3@$0A@@std@@@0@@Z ENDP ; std::_Destroy<std::_Tree_nod<std::_Tmap_traits<unsigned long,IData *,std::less<unsigned long>,std::allocator<std::pair<unsigned long const ,IData *> >,0> >::_Node *>
; Function compile flags: /Odt
_TEXT	ENDS
;	COMDAT ??$?0U?$pair@$$CBKPAVIData@@@std@@@?$allocator@PAU_Node@?$_Tree_nod@V?$_Tmap_traits@KPAVIData@@U?$less@K@std@@V?$allocator@U?$pair@$$CBKPAVIData@@@std@@@3@$0A@@std@@@std@@@std@@QAE@ABV?$allocator@U?$pair@$$CBKPAVIData@@@std@@@1@@Z
_TEXT	SEGMENT
_this$ = -4						; size = 4
___formal$ = 8						; size = 4
??$?0U?$pair@$$CBKPAVIData@@@std@@@?$allocator@PAU_Node@?$_Tree_nod@V?$_Tmap_traits@KPAVIData@@U?$less@K@std@@V?$allocator@U?$pair@$$CBKPAVIData@@@std@@@3@$0A@@std@@@std@@@std@@QAE@ABV?$allocator@U?$pair@$$CBKPAVIData@@@std@@@1@@Z PROC NEAR ; std::allocator<std::_Tree_nod<std::_Tmap_traits<unsigned long,IData *,std::less<unsigned long>,std::allocator<std::pair<unsigned long const ,IData *> >,0> >::_Node *>::allocator<std::_Tree_nod<std::_Tmap_traits<unsigned long,IData *,std::less<unsigned long>,std::allocator<std::pair<unsigned long const ,IData *> >,0> >::_Node *><std::pair<unsigned long const ,IData *> >, COMDAT
; _this$ = ecx

; 120  : 		allocator(const allocator<_Other>&)

  00000	55		 push	 ebp
  00001	8b ec		 mov	 ebp, esp
  00003	51		 push	 ecx
  00004	89 4d fc	 mov	 DWORD PTR _this$[ebp], ecx

; 121  : 		{	// construct from a related allocator (do nothing)
; 122  : 		}

  00007	8b 45 fc	 mov	 eax, DWORD PTR _this$[ebp]
  0000a	8b e5		 mov	 esp, ebp
  0000c	5d		 pop	 ebp
  0000d	c2 04 00	 ret	 4
??$?0U?$pair@$$CBKPAVIData@@@std@@@?$allocator@PAU_Node@?$_Tree_nod@V?$_Tmap_traits@KPAVIData@@U?$less@K@std@@V?$allocator@U?$pair@$$CBKPAVIData@@@std@@@3@$0A@@std@@@std@@@std@@QAE@ABV?$allocator@U?$pair@$$CBKPAVIData@@@std@@@1@@Z ENDP ; std::allocator<std::_Tree_nod<std::_Tmap_traits<unsigned long,IData *,std::less<unsigned long>,std::allocator<std::pair<unsigned long const ,IData *> >,0> >::_Node *>::allocator<std::_Tree_nod<std::_Tmap_traits<unsigned long,IData *,std::less<unsigned long>,std::allocator<std::pair<unsigned long const ,IData *> >,0> >::_Node *><std::pair<unsigned long const ,IData *> >
; Function compile flags: /Odt
_TEXT	ENDS
;	COMDAT ??$?0U?$pair@$$CBKPAVIData@@@std@@@?$allocator@U_Node@?$_Tree_nod@V?$_Tmap_traits@KPAVIData@@U?$less@K@std@@V?$allocator@U?$pair@$$CBKPAVIData@@@std@@@3@$0A@@std@@@std@@@std@@QAE@ABV?$allocator@U?$pair@$$CBKPAVIData@@@std@@@1@@Z
_TEXT	SEGMENT
_this$ = -4						; size = 4
___formal$ = 8						; size = 4
??$?0U?$pair@$$CBKPAVIData@@@std@@@?$allocator@U_Node@?$_Tree_nod@V?$_Tmap_traits@KPAVIData@@U?$less@K@std@@V?$allocator@U?$pair@$$CBKPAVIData@@@std@@@3@$0A@@std@@@std@@@std@@QAE@ABV?$allocator@U?$pair@$$CBKPAVIData@@@std@@@1@@Z PROC NEAR ; std::allocator<std::_Tree_nod<std::_Tmap_traits<unsigned long,IData *,std::less<unsigned long>,std::allocator<std::pair<unsigned long const ,IData *> >,0> >::_Node>::allocator<std::_Tree_nod<std::_Tmap_traits<unsigned long,IData *,std::less<unsigned long>,std::allocator<std::pair<unsigned long const ,IData *> >,0> >::_Node><std::pair<unsigned long const ,IData *> >, COMDAT
; _this$ = ecx

; 120  : 		allocator(const allocator<_Other>&)

  00000	55		 push	 ebp
  00001	8b ec		 mov	 ebp, esp
  00003	51		 push	 ecx
  00004	89 4d fc	 mov	 DWORD PTR _this$[ebp], ecx

; 121  : 		{	// construct from a related allocator (do nothing)
; 122  : 		}

  00007	8b 45 fc	 mov	 eax, DWORD PTR _this$[ebp]
  0000a	8b e5		 mov	 esp, ebp
  0000c	5d		 pop	 ebp
  0000d	c2 04 00	 ret	 4
??$?0U?$pair@$$CBKPAVIData@@@std@@@?$allocator@U_Node@?$_Tree_nod@V?$_Tmap_traits@KPAVIData@@U?$less@K@std@@V?$allocator@U?$pair@$$CBKPAVIData@@@std@@@3@$0A@@std@@@std@@@std@@QAE@ABV?$allocator@U?$pair@$$CBKPAVIData@@@std@@@1@@Z ENDP ; std::allocator<std::_Tree_nod<std::_Tmap_traits<unsigned long,IData *,std::less<unsigned long>,std::allocator<std::pair<unsigned long const ,IData *> >,0> >::_Node>::allocator<std::_Tree_nod<std::_Tmap_traits<unsigned long,IData *,std::less<unsigned long>,std::allocator<std::pair<unsigned long const ,IData *> >,0> >::_Node><std::pair<unsigned long const ,IData *> >
_TEXT	ENDS
EXTRN	??2@YAPAXI@Z:NEAR				; operator new
; Function compile flags: /Odt
;	COMDAT ??$_Allocate@U_Node@?$_Tree_nod@V?$_Tmap_traits@KPAVIData@@U?$less@K@std@@V?$allocator@U?$pair@$$CBKPAVIData@@@std@@@3@$0A@@std@@@std@@@std@@YAPAU_Node@?$_Tree_nod@V?$_Tmap_traits@KPAVIData@@U?$less@K@std@@V?$allocator@U?$pair@$$CBKPAVIData@@@std@@@3@$0A@@std@@@0@IPAU120@@Z
_TEXT	SEGMENT
__Count$ = 8						; size = 4
___formal$ = 12						; size = 4
??$_Allocate@U_Node@?$_Tree_nod@V?$_Tmap_traits@KPAVIData@@U?$less@K@std@@V?$allocator@U?$pair@$$CBKPAVIData@@@std@@@3@$0A@@std@@@std@@@std@@YAPAU_Node@?$_Tree_nod@V?$_Tmap_traits@KPAVIData@@U?$less@K@std@@V?$allocator@U?$pair@$$CBKPAVIData@@@std@@@3@$0A@@std@@@0@IPAU120@@Z PROC NEAR ; std::_Allocate<std::_Tree_nod<std::_Tmap_traits<unsigned long,IData *,std::less<unsigned long>,std::allocator<std::pair<unsigned long const ,IData *> >,0> >::_Node>, COMDAT

; 33   : 	{	// allocate storage for _Count elements of type _Ty

  00000	55		 push	 ebp
  00001	8b ec		 mov	 ebp, esp

; 34   : 	return ((_Ty _FARQ *)operator new(_Count * sizeof (_Ty)));

  00003	8b 45 08	 mov	 eax, DWORD PTR __Count$[ebp]
  00006	6b c0 18	 imul	 eax, 24			; 00000018H
  00009	50		 push	 eax
  0000a	e8 00 00 00 00	 call	 ??2@YAPAXI@Z		; operator new
  0000f	83 c4 04	 add	 esp, 4

; 35   : 	}

  00012	5d		 pop	 ebp
  00013	c3		 ret	 0
??$_Allocate@U_Node@?$_Tree_nod@V?$_Tmap_traits@KPAVIData@@U?$less@K@std@@V?$allocator@U?$pair@$$CBKPAVIData@@@std@@@3@$0A@@std@@@std@@@std@@YAPAU_Node@?$_Tree_nod@V?$_Tmap_traits@KPAVIData@@U?$less@K@std@@V?$allocator@U?$pair@$$CBKPAVIData@@@std@@@3@$0A@@std@@@0@IPAU120@@Z ENDP ; std::_Allocate<std::_Tree_nod<std::_Tmap_traits<unsigned long,IData *,std::less<unsigned long>,std::allocator<std::pair<unsigned long const ,IData *> >,0> >::_Node>
; Function compile flags: /Odt
_TEXT	ENDS
;	COMDAT ??$_Construct@PAU_Node@?$_Tree_nod@V?$_Tmap_traits@KPAVIData@@U?$less@K@std@@V?$allocator@U?$pair@$$CBKPAVIData@@@std@@@3@$0A@@std@@@std@@PAU123@@std@@YAXPAPAU_Node@?$_Tree_nod@V?$_Tmap_traits@KPAVIData@@U?$less@K@std@@V?$allocator@U?$pair@$$CBKPAVIData@@@std@@@3@$0A@@std@@@0@ABQAU120@@Z
_TEXT	SEGMENT
tv68 = -8						; size = 4
$T200828 = -4						; size = 4
__Ptr$ = 8						; size = 4
__Val$ = 12						; size = 4
??$_Construct@PAU_Node@?$_Tree_nod@V?$_Tmap_traits@KPAVIData@@U?$less@K@std@@V?$allocator@U?$pair@$$CBKPAVIData@@@std@@@3@$0A@@std@@@std@@PAU123@@std@@YAXPAPAU_Node@?$_Tree_nod@V?$_Tmap_traits@KPAVIData@@U?$less@K@std@@V?$allocator@U?$pair@$$CBKPAVIData@@@std@@@3@$0A@@std@@@0@ABQAU120@@Z PROC NEAR ; std::_Construct<std::_Tree_nod<std::_Tmap_traits<unsigned long,IData *,std::less<unsigned long>,std::allocator<std::pair<unsigned long const ,IData *> >,0> >::_Node *,std::_Tree_nod<std::_Tmap_traits<unsigned long,IData *,std::less<unsigned long>,std::allocator<std::pair<unsigned long const ,IData *> >,0> >::_Node *>, COMDAT

; 41   : 	{	// construct object at _Ptr with value _Val

  00000	55		 push	 ebp
  00001	8b ec		 mov	 ebp, esp
  00003	83 ec 08	 sub	 esp, 8

; 42   : 	new ((void _FARQ *)_Ptr) _T1(_Val);

  00006	8b 45 08	 mov	 eax, DWORD PTR __Ptr$[ebp]
  00009	50		 push	 eax
  0000a	6a 04		 push	 4
  0000c	e8 00 00 00 00	 call	 ??2@YAPAXIPAX@Z		; operator new
  00011	83 c4 08	 add	 esp, 8
  00014	89 45 fc	 mov	 DWORD PTR $T200828[ebp], eax
  00017	83 7d fc 00	 cmp	 DWORD PTR $T200828[ebp], 0
  0001b	74 12		 je	 SHORT $L200829
  0001d	8b 4d fc	 mov	 ecx, DWORD PTR $T200828[ebp]
  00020	8b 55 0c	 mov	 edx, DWORD PTR __Val$[ebp]
  00023	8b 02		 mov	 eax, DWORD PTR [edx]
  00025	89 01		 mov	 DWORD PTR [ecx], eax
  00027	8b 4d fc	 mov	 ecx, DWORD PTR $T200828[ebp]
  0002a	89 4d f8	 mov	 DWORD PTR tv68[ebp], ecx
  0002d	eb 07		 jmp	 SHORT $L200023
$L200829:
  0002f	c7 45 f8 00 00
	00 00		 mov	 DWORD PTR tv68[ebp], 0
$L200023:

; 43   : 	}

  00036	8b e5		 mov	 esp, ebp
  00038	5d		 pop	 ebp
  00039	c3		 ret	 0
??$_Construct@PAU_Node@?$_Tree_nod@V?$_Tmap_traits@KPAVIData@@U?$less@K@std@@V?$allocator@U?$pair@$$CBKPAVIData@@@std@@@3@$0A@@std@@@std@@PAU123@@std@@YAXPAPAU_Node@?$_Tree_nod@V?$_Tmap_traits@KPAVIData@@U?$less@K@std@@V?$allocator@U?$pair@$$CBKPAVIData@@@std@@@3@$0A@@std@@@0@ABQAU120@@Z ENDP ; std::_Construct<std::_Tree_nod<std::_Tmap_traits<unsigned long,IData *,std::less<unsigned long>,std::allocator<std::pair<unsigned long const ,IData *> >,0> >::_Node *,std::_Tree_nod<std::_Tmap_traits<unsigned long,IData *,std::less<unsigned long>,std::allocator<std::pair<unsigned long const ,IData *> >,0> >::_Node *>
; Function compile flags: /Odt
; File d:\program files (x86)\microsoft visual studio .net 2003\vc7\include\xutility
_TEXT	ENDS
;	COMDAT ??$_Iter_cat@Viterator@?$_Tree@V?$_Tmap_traits@KPAVIData@@U?$less@K@std@@V?$allocator@U?$pair@$$CBKPAVIData@@@std@@@3@$0A@@std@@@std@@@std@@YA?AUbidirectional_iterator_tag@0@ABViterator@?$_Tree@V?$_Tmap_traits@KPAVIData@@U?$less@K@std@@V?$allocator@U?$pair@$$CBKPAVIData@@@std@@@3@$0A@@std@@@0@@Z
_TEXT	SEGMENT
___$ReturnUdt$ = 8					; size = 4
___formal$ = 12						; size = 4
??$_Iter_cat@Viterator@?$_Tree@V?$_Tmap_traits@KPAVIData@@U?$less@K@std@@V?$allocator@U?$pair@$$CBKPAVIData@@@std@@@3@$0A@@std@@@std@@@std@@YA?AUbidirectional_iterator_tag@0@ABViterator@?$_Tree@V?$_Tmap_traits@KPAVIData@@U?$less@K@std@@V?$allocator@U?$pair@$$CBKPAVIData@@@std@@@3@$0A@@std@@@0@@Z PROC NEAR ; std::_Iter_cat<std::_Tree<std::_Tmap_traits<unsigned long,IData *,std::less<unsigned long>,std::allocator<std::pair<unsigned long const ,IData *> >,0> >::iterator>, COMDAT

; 201  : 	{	// return category from iterator argument

  00000	55		 push	 ebp
  00001	8b ec		 mov	 ebp, esp
  00003	51		 push	 ecx

; 202  : 	typename iterator_traits<_Iter>::iterator_category _Cat;
; 203  : 	return (_Cat);

  00004	8b 45 08	 mov	 eax, DWORD PTR ___$ReturnUdt$[ebp]

; 204  : 	}

  00007	8b e5		 mov	 esp, ebp
  00009	5d		 pop	 ebp
  0000a	c3		 ret	 0
??$_Iter_cat@Viterator@?$_Tree@V?$_Tmap_traits@KPAVIData@@U?$less@K@std@@V?$allocator@U?$pair@$$CBKPAVIData@@@std@@@3@$0A@@std@@@std@@@std@@YA?AUbidirectional_iterator_tag@0@ABViterator@?$_Tree@V?$_Tmap_traits@KPAVIData@@U?$less@K@std@@V?$allocator@U?$pair@$$CBKPAVIData@@@std@@@3@$0A@@std@@@0@@Z ENDP ; std::_Iter_cat<std::_Tree<std::_Tmap_traits<unsigned long,IData *,std::less<unsigned long>,std::allocator<std::pair<unsigned long const ,IData *> >,0> >::iterator>
; Function compile flags: /Odt
_TEXT	ENDS
;	COMDAT ??$_Distance2@Viterator@?$_Tree@V?$_Tmap_traits@KPAVIData@@U?$less@K@std@@V?$allocator@U?$pair@$$CBKPAVIData@@@std@@@3@$0A@@std@@@std@@I@std@@YAXViterator@?$_Tree@V?$_Tmap_traits@KPAVIData@@U?$less@K@std@@V?$allocator@U?$pair@$$CBKPAVIData@@@std@@@3@$0A@@std@@@0@0AAIUbidirectional_iterator_tag@0@@Z
_TEXT	SEGMENT
__First$ = 8						; size = 4
__Last$ = 12						; size = 4
__Off$ = 16						; size = 4
___formal$ = 20						; size = 1
??$_Distance2@Viterator@?$_Tree@V?$_Tmap_traits@KPAVIData@@U?$less@K@std@@V?$allocator@U?$pair@$$CBKPAVIData@@@std@@@3@$0A@@std@@@std@@I@std@@YAXViterator@?$_Tree@V?$_Tmap_traits@KPAVIData@@U?$less@K@std@@V?$allocator@U?$pair@$$CBKPAVIData@@@std@@@3@$0A@@std@@@0@0AAIUbidirectional_iterator_tag@0@@Z PROC NEAR ; std::_Distance2<std::_Tree<std::_Tmap_traits<unsigned long,IData *,std::less<unsigned long>,std::allocator<std::pair<unsigned long const ,IData *> >,0> >::iterator,unsigned int>, COMDAT

; 469  : 	{	// add to _Off distance between bidirectional iterators (redundant)

  00000	55		 push	 ebp
  00001	8b ec		 mov	 ebp, esp

; 470  : 	for (; _First != _Last; ++_First)

  00003	eb 08		 jmp	 SHORT $L200031
$L200032:
  00005	8d 4d 08	 lea	 ecx, DWORD PTR __First$[ebp]
  00008	e8 00 00 00 00	 call	 ??Eiterator@?$_Tree@V?$_Tmap_traits@KPAVIData@@U?$less@K@std@@V?$allocator@U?$pair@$$CBKPAVIData@@@std@@@3@$0A@@std@@@std@@QAEAAV012@XZ ; std::_Tree<std::_Tmap_traits<unsigned long,IData *,std::less<unsigned long>,std::allocator<std::pair<unsigned long const ,IData *> >,0> >::iterator::operator++
$L200031:
  0000d	8d 45 0c	 lea	 eax, DWORD PTR __Last$[ebp]
  00010	50		 push	 eax
  00011	8d 4d 08	 lea	 ecx, DWORD PTR __First$[ebp]
  00014	e8 00 00 00 00	 call	 ??9const_iterator@?$_Tree@V?$_Tmap_traits@KPAVIData@@U?$less@K@std@@V?$allocator@U?$pair@$$CBKPAVIData@@@std@@@3@$0A@@std@@@std@@QBE_NABV012@@Z ; std::_Tree<std::_Tmap_traits<unsigned long,IData *,std::less<unsigned long>,std::allocator<std::pair<unsigned long const ,IData *> >,0> >::const_iterator::operator!=
  00019	0f b6 c8	 movzx	 ecx, al
  0001c	85 c9		 test	 ecx, ecx
  0001e	74 0f		 je	 SHORT $L200030

; 471  : 		++_Off;

  00020	8b 55 10	 mov	 edx, DWORD PTR __Off$[ebp]
  00023	8b 02		 mov	 eax, DWORD PTR [edx]
  00025	83 c0 01	 add	 eax, 1
  00028	8b 4d 10	 mov	 ecx, DWORD PTR __Off$[ebp]
  0002b	89 01		 mov	 DWORD PTR [ecx], eax
  0002d	eb d6		 jmp	 SHORT $L200032
$L200030:

; 472  : 	}

  0002f	5d		 pop	 ebp
  00030	c3		 ret	 0
??$_Distance2@Viterator@?$_Tree@V?$_Tmap_traits@KPAVIData@@U?$less@K@std@@V?$allocator@U?$pair@$$CBKPAVIData@@@std@@@3@$0A@@std@@@std@@I@std@@YAXViterator@?$_Tree@V?$_Tmap_traits@KPAVIData@@U?$less@K@std@@V?$allocator@U?$pair@$$CBKPAVIData@@@std@@@3@$0A@@std@@@0@0AAIUbidirectional_iterator_tag@0@@Z ENDP ; std::_Distance2<std::_Tree<std::_Tmap_traits<unsigned long,IData *,std::less<unsigned long>,std::allocator<std::pair<unsigned long const ,IData *> >,0> >::iterator,unsigned int>
_TEXT	ENDS
EXTRN	__imp_?c_str@?$basic_string@DU?$char_traits@D@std@@V?$allocator@D@2@@std@@QBEPBDXZ:NEAR
; Function compile flags: /Odt
; File d:\program files (x86)\microsoft visual studio .net 2003\vc7\include\stdexcept
;	COMDAT ?what@logic_error@std@@UBEPBDXZ
_TEXT	SEGMENT
_this$ = -4						; size = 4
?what@logic_error@std@@UBEPBDXZ PROC NEAR		; std::logic_error::what, COMDAT
; _this$ = ecx

; 26   : 		{	// return pointer to message string

  00000	55		 push	 ebp
  00001	8b ec		 mov	 ebp, esp
  00003	51		 push	 ecx
  00004	89 4d fc	 mov	 DWORD PTR _this$[ebp], ecx

; 27   : 		return (_Str.c_str());

  00007	8b 4d fc	 mov	 ecx, DWORD PTR _this$[ebp]
  0000a	83 c1 0c	 add	 ecx, 12			; 0000000cH
  0000d	ff 15 00 00 00
	00		 call	 DWORD PTR __imp_?c_str@?$basic_string@DU?$char_traits@D@std@@V?$allocator@D@2@@std@@QBEPBDXZ

; 28   : 		}

  00013	8b e5		 mov	 esp, ebp
  00015	5d		 pop	 ebp
  00016	c3		 ret	 0
?what@logic_error@std@@UBEPBDXZ ENDP			; std::logic_error::what
_TEXT	ENDS
PUBLIC	??0logic_error@std@@QAE@ABV?$basic_string@DU?$char_traits@D@std@@V?$allocator@D@2@@1@@Z ; std::logic_error::logic_error
; Function compile flags: /Odt
;	COMDAT ??0length_error@std@@QAE@ABV?$basic_string@DU?$char_traits@D@std@@V?$allocator@D@2@@1@@Z
_TEXT	SEGMENT
_this$ = -4						; size = 4
__Message$ = 8						; size = 4
??0length_error@std@@QAE@ABV?$basic_string@DU?$char_traits@D@std@@V?$allocator@D@2@@1@@Z PROC NEAR ; std::length_error::length_error, COMDAT
; _this$ = ecx

; 95   : 		{	// construct from message string

  00000	55		 push	 ebp
  00001	8b ec		 mov	 ebp, esp
  00003	51		 push	 ecx
  00004	89 4d fc	 mov	 DWORD PTR _this$[ebp], ecx
  00007	8b 45 08	 mov	 eax, DWORD PTR __Message$[ebp]
  0000a	50		 push	 eax
  0000b	8b 4d fc	 mov	 ecx, DWORD PTR _this$[ebp]
  0000e	e8 00 00 00 00	 call	 ??0logic_error@std@@QAE@ABV?$basic_string@DU?$char_traits@D@std@@V?$allocator@D@2@@1@@Z ; std::logic_error::logic_error
  00013	8b 4d fc	 mov	 ecx, DWORD PTR _this$[ebp]
  00016	c7 01 00 00 00
	00		 mov	 DWORD PTR [ecx], OFFSET FLAT:??_7length_error@std@@6B@

; 96   : 		}

  0001c	8b 45 fc	 mov	 eax, DWORD PTR _this$[ebp]
  0001f	8b e5		 mov	 esp, ebp
  00021	5d		 pop	 ebp
  00022	c2 04 00	 ret	 4
??0length_error@std@@QAE@ABV?$basic_string@DU?$char_traits@D@std@@V?$allocator@D@2@@1@@Z ENDP ; std::length_error::length_error
_TEXT	ENDS
PUBLIC	??_R4logic_error@std@@6B@			; std::logic_error::`RTTI Complete Object Locator'
PUBLIC	??_R3logic_error@std@@8				; std::logic_error::`RTTI Class Hierarchy Descriptor'
PUBLIC	??_R2logic_error@std@@8				; std::logic_error::`RTTI Base Class Array'
PUBLIC	??_7logic_error@std@@6B@			; std::logic_error::`vftable'
PUBLIC	??_Glogic_error@std@@UAEPAXI@Z			; std::logic_error::`scalar deleting destructor'
EXTRN	__imp_??0exception@@QAE@XZ:NEAR
EXTRN	__imp_??1exception@@UAE@XZ:NEAR
EXTRN	__imp_??0?$basic_string@DU?$char_traits@D@std@@V?$allocator@D@2@@std@@QAE@ABV01@@Z:NEAR
EXTRN	??_Elogic_error@std@@UAEPAXI@Z:NEAR		; std::logic_error::`vector deleting destructor'
;	COMDAT xdata$x
xdata$x	SEGMENT
$T200847 DD	0ffffffffH
	DD	FLAT:$L200842
$T200845 DD	019930520H
	DD	01H
	DD	FLAT:$T200847
	DD	2 DUP(00H)
	DD	2 DUP(00H)
xdata$x	ENDS
;	COMDAT ??_7logic_error@std@@6B@
CONST	SEGMENT
??_7logic_error@std@@6B@ DD FLAT:??_R4logic_error@std@@6B@ ; std::logic_error::`vftable'
	DD	FLAT:??_Elogic_error@std@@UAEPAXI@Z
	DD	FLAT:?what@logic_error@std@@UBEPBDXZ
CONST	ENDS
;	COMDAT ??_R4logic_error@std@@6B@
rdata$r	SEGMENT
??_R4logic_error@std@@6B@ DD 00H			; std::logic_error::`RTTI Complete Object Locator'
	DD	00H
	DD	00H
	DD	FLAT:??_R0?AVlogic_error@std@@@8
	DD	FLAT:??_R3logic_error@std@@8
rdata$r	ENDS
;	COMDAT ??_R3logic_error@std@@8
rdata$r	SEGMENT
??_R3logic_error@std@@8 DD 00H				; std::logic_error::`RTTI Class Hierarchy Descriptor'
	DD	00H
	DD	02H
	DD	FLAT:??_R2logic_error@std@@8
rdata$r	ENDS
;	COMDAT ??_R2logic_error@std@@8
rdata$r	SEGMENT
??_R2logic_error@std@@8 DD FLAT:??_R1A@?0A@A@logic_error@std@@8 ; std::logic_error::`RTTI Base Class Array'
	DD	FLAT:??_R1A@?0A@A@exception@@8
; Function compile flags: /Odt
rdata$r	ENDS
;	COMDAT ??0logic_error@std@@QAE@ABV?$basic_string@DU?$char_traits@D@std@@V?$allocator@D@2@@1@@Z
_TEXT	SEGMENT
_this$ = -16						; size = 4
__$EHRec$ = -12						; size = 12
__Message$ = 8						; size = 4
??0logic_error@std@@QAE@ABV?$basic_string@DU?$char_traits@D@std@@V?$allocator@D@2@@1@@Z PROC NEAR ; std::logic_error::logic_error, COMDAT
; _this$ = ecx

; 19   : 		{	// construct from message string

  00000	55		 push	 ebp
  00001	8b ec		 mov	 ebp, esp
  00003	6a ff		 push	 -1
  00005	68 00 00 00 00	 push	 __ehhandler$??0logic_error@std@@QAE@ABV?$basic_string@DU?$char_traits@D@std@@V?$allocator@D@2@@1@@Z
  0000a	64 a1 00 00 00
	00		 mov	 eax, DWORD PTR fs:__except_list
  00010	50		 push	 eax
  00011	64 89 25 00 00
	00 00		 mov	 DWORD PTR fs:__except_list, esp
  00018	51		 push	 ecx
  00019	89 4d f0	 mov	 DWORD PTR _this$[ebp], ecx
  0001c	8b 4d f0	 mov	 ecx, DWORD PTR _this$[ebp]
  0001f	ff 15 00 00 00
	00		 call	 DWORD PTR __imp_??0exception@@QAE@XZ
  00025	c7 45 fc 00 00
	00 00		 mov	 DWORD PTR __$EHRec$[ebp+8], 0
  0002c	8b 45 f0	 mov	 eax, DWORD PTR _this$[ebp]
  0002f	c7 00 00 00 00
	00		 mov	 DWORD PTR [eax], OFFSET FLAT:??_7logic_error@std@@6B@
  00035	8b 4d 08	 mov	 ecx, DWORD PTR __Message$[ebp]
  00038	51		 push	 ecx
  00039	8b 4d f0	 mov	 ecx, DWORD PTR _this$[ebp]
  0003c	83 c1 0c	 add	 ecx, 12			; 0000000cH
  0003f	ff 15 00 00 00
	00		 call	 DWORD PTR __imp_??0?$basic_string@DU?$char_traits@D@std@@V?$allocator@D@2@@std@@QAE@ABV01@@Z

; 20   : 		}

  00045	c7 45 fc ff ff
	ff ff		 mov	 DWORD PTR __$EHRec$[ebp+8], -1
  0004c	8b 45 f0	 mov	 eax, DWORD PTR _this$[ebp]
  0004f	8b 4d f4	 mov	 ecx, DWORD PTR __$EHRec$[ebp]
  00052	64 89 0d 00 00
	00 00		 mov	 DWORD PTR fs:__except_list, ecx
  00059	8b e5		 mov	 esp, ebp
  0005b	5d		 pop	 ebp
  0005c	c2 04 00	 ret	 4
_TEXT	ENDS
;	COMDAT text$x
text$x	SEGMENT
$L200842:
  00000	8b 4d f0	 mov	 ecx, DWORD PTR _this$[ebp]
  00003	ff 25 00 00 00
	00		 jmp	 DWORD PTR __imp_??1exception@@UAE@XZ
__ehhandler$??0logic_error@std@@QAE@ABV?$basic_string@DU?$char_traits@D@std@@V?$allocator@D@2@@1@@Z:
  00009	b8 00 00 00 00	 mov	 eax, OFFSET FLAT:$T200845
  0000e	e9 00 00 00 00	 jmp	 ___CxxFrameHandler
text$x	ENDS
??0logic_error@std@@QAE@ABV?$basic_string@DU?$char_traits@D@std@@V?$allocator@D@2@@1@@Z ENDP ; std::logic_error::logic_error
PUBLIC	??1logic_error@std@@UAE@XZ			; std::logic_error::~logic_error
; Function compile flags: /Odt
;	COMDAT ??_Glogic_error@std@@UAEPAXI@Z
_TEXT	SEGMENT
_this$ = -4						; size = 4
___flags$ = 8						; size = 4
??_Glogic_error@std@@UAEPAXI@Z PROC NEAR		; std::logic_error::`scalar deleting destructor', COMDAT
; _this$ = ecx
  00000	55		 push	 ebp
  00001	8b ec		 mov	 ebp, esp
  00003	51		 push	 ecx
  00004	89 4d fc	 mov	 DWORD PTR _this$[ebp], ecx
  00007	8b 4d fc	 mov	 ecx, DWORD PTR _this$[ebp]
  0000a	e8 00 00 00 00	 call	 ??1logic_error@std@@UAE@XZ ; std::logic_error::~logic_error
  0000f	8b 45 08	 mov	 eax, DWORD PTR ___flags$[ebp]
  00012	83 e0 01	 and	 eax, 1
  00015	74 0c		 je	 SHORT $L102266
  00017	8b 4d fc	 mov	 ecx, DWORD PTR _this$[ebp]
  0001a	51		 push	 ecx
  0001b	e8 00 00 00 00	 call	 ??3@YAXPAX@Z		; operator delete
  00020	83 c4 04	 add	 esp, 4
$L102266:
  00023	8b 45 fc	 mov	 eax, DWORD PTR _this$[ebp]
  00026	8b e5		 mov	 esp, ebp
  00028	5d		 pop	 ebp
  00029	c2 04 00	 ret	 4
??_Glogic_error@std@@UAEPAXI@Z ENDP			; std::logic_error::`scalar deleting destructor'
_TEXT	ENDS
;	COMDAT xdata$x
xdata$x	SEGMENT
$T200859 DD	0ffffffffH
	DD	FLAT:$L200854
$T200857 DD	019930520H
	DD	01H
	DD	FLAT:$T200859
	DD	2 DUP(00H)
	DD	2 DUP(00H)
; Function compile flags: /Odt
xdata$x	ENDS
;	COMDAT ??1logic_error@std@@UAE@XZ
_TEXT	SEGMENT
_this$ = -16						; size = 4
__$EHRec$ = -12						; size = 12
??1logic_error@std@@UAE@XZ PROC NEAR			; std::logic_error::~logic_error, COMDAT
; _this$ = ecx

; 23   : 		{}	// destroy the object

  00000	55		 push	 ebp
  00001	8b ec		 mov	 ebp, esp
  00003	6a ff		 push	 -1
  00005	68 00 00 00 00	 push	 __ehhandler$??1logic_error@std@@UAE@XZ
  0000a	64 a1 00 00 00
	00		 mov	 eax, DWORD PTR fs:__except_list
  00010	50		 push	 eax
  00011	64 89 25 00 00
	00 00		 mov	 DWORD PTR fs:__except_list, esp
  00018	51		 push	 ecx
  00019	89 4d f0	 mov	 DWORD PTR _this$[ebp], ecx
  0001c	8b 45 f0	 mov	 eax, DWORD PTR _this$[ebp]
  0001f	c7 00 00 00 00
	00		 mov	 DWORD PTR [eax], OFFSET FLAT:??_7logic_error@std@@6B@
  00025	c7 45 fc 00 00
	00 00		 mov	 DWORD PTR __$EHRec$[ebp+8], 0
  0002c	8b 4d f0	 mov	 ecx, DWORD PTR _this$[ebp]
  0002f	83 c1 0c	 add	 ecx, 12			; 0000000cH
  00032	ff 15 00 00 00
	00		 call	 DWORD PTR __imp_??1?$basic_string@DU?$char_traits@D@std@@V?$allocator@D@2@@std@@QAE@XZ
  00038	c7 45 fc ff ff
	ff ff		 mov	 DWORD PTR __$EHRec$[ebp+8], -1
  0003f	8b 4d f0	 mov	 ecx, DWORD PTR _this$[ebp]
  00042	ff 15 00 00 00
	00		 call	 DWORD PTR __imp_??1exception@@UAE@XZ
  00048	8b 4d f4	 mov	 ecx, DWORD PTR __$EHRec$[ebp]
  0004b	64 89 0d 00 00
	00 00		 mov	 DWORD PTR fs:__except_list, ecx
  00052	8b e5		 mov	 esp, ebp
  00054	5d		 pop	 ebp
  00055	c3		 ret	 0
_TEXT	ENDS
;	COMDAT text$x
text$x	SEGMENT
$L200854:
  00000	8b 4d f0	 mov	 ecx, DWORD PTR _this$[ebp]
  00003	ff 25 00 00 00
	00		 jmp	 DWORD PTR __imp_??1exception@@UAE@XZ
__ehhandler$??1logic_error@std@@UAE@XZ:
  00009	b8 00 00 00 00	 mov	 eax, OFFSET FLAT:$T200857
  0000e	e9 00 00 00 00	 jmp	 ___CxxFrameHandler
text$x	ENDS
??1logic_error@std@@UAE@XZ ENDP				; std::logic_error::~logic_error
; Function compile flags: /Odt
;	COMDAT ??1length_error@std@@UAE@XZ
_TEXT	SEGMENT
_this$ = -4						; size = 4
??1length_error@std@@UAE@XZ PROC NEAR			; std::length_error::~length_error, COMDAT
; _this$ = ecx

; 99   : 		{}	// destroy the object

  00000	55		 push	 ebp
  00001	8b ec		 mov	 ebp, esp
  00003	51		 push	 ecx
  00004	89 4d fc	 mov	 DWORD PTR _this$[ebp], ecx
  00007	8b 45 fc	 mov	 eax, DWORD PTR _this$[ebp]
  0000a	c7 00 00 00 00
	00		 mov	 DWORD PTR [eax], OFFSET FLAT:??_7length_error@std@@6B@
  00010	8b 4d fc	 mov	 ecx, DWORD PTR _this$[ebp]
  00013	e8 00 00 00 00	 call	 ??1logic_error@std@@UAE@XZ ; std::logic_error::~logic_error
  00018	8b e5		 mov	 esp, ebp
  0001a	5d		 pop	 ebp
  0001b	c3		 ret	 0
??1length_error@std@@UAE@XZ ENDP			; std::length_error::~length_error
; Function compile flags: /Odt
_TEXT	ENDS
;	COMDAT ??_Glength_error@std@@UAEPAXI@Z
_TEXT	SEGMENT
_this$ = -4						; size = 4
___flags$ = 8						; size = 4
??_Glength_error@std@@UAEPAXI@Z PROC NEAR		; std::length_error::`scalar deleting destructor', COMDAT
; _this$ = ecx
  00000	55		 push	 ebp
  00001	8b ec		 mov	 ebp, esp
  00003	51		 push	 ecx
  00004	89 4d fc	 mov	 DWORD PTR _this$[ebp], ecx
  00007	8b 4d fc	 mov	 ecx, DWORD PTR _this$[ebp]
  0000a	e8 00 00 00 00	 call	 ??1length_error@std@@UAE@XZ ; std::length_error::~length_error
  0000f	8b 45 08	 mov	 eax, DWORD PTR ___flags$[ebp]
  00012	83 e0 01	 and	 eax, 1
  00015	74 0c		 je	 SHORT $L102332
  00017	8b 4d fc	 mov	 ecx, DWORD PTR _this$[ebp]
  0001a	51		 push	 ecx
  0001b	e8 00 00 00 00	 call	 ??3@YAXPAX@Z		; operator delete
  00020	83 c4 04	 add	 esp, 4
$L102332:
  00023	8b 45 fc	 mov	 eax, DWORD PTR _this$[ebp]
  00026	8b e5		 mov	 esp, ebp
  00028	5d		 pop	 ebp
  00029	c2 04 00	 ret	 4
??_Glength_error@std@@UAEPAXI@Z ENDP			; std::length_error::`scalar deleting destructor'
_TEXT	ENDS
PUBLIC	??_R4out_of_range@std@@6B@			; std::out_of_range::`RTTI Complete Object Locator'
PUBLIC	??_R3out_of_range@std@@8			; std::out_of_range::`RTTI Class Hierarchy Descriptor'
PUBLIC	??_R2out_of_range@std@@8			; std::out_of_range::`RTTI Base Class Array'
PUBLIC	??_R1A@?0A@A@out_of_range@std@@8		; std::out_of_range::`RTTI Base Class Descriptor at (0,-1,0,0)'
PUBLIC	??_7out_of_range@std@@6B@			; std::out_of_range::`vftable'
PUBLIC	??_Gout_of_range@std@@UAEPAXI@Z			; std::out_of_range::`scalar deleting destructor'
EXTRN	??_Eout_of_range@std@@UAEPAXI@Z:NEAR		; std::out_of_range::`vector deleting destructor'
;	COMDAT ??_7out_of_range@std@@6B@
CONST	SEGMENT
??_7out_of_range@std@@6B@ DD FLAT:??_R4out_of_range@std@@6B@ ; std::out_of_range::`vftable'
	DD	FLAT:??_Eout_of_range@std@@UAEPAXI@Z
	DD	FLAT:?what@logic_error@std@@UBEPBDXZ
CONST	ENDS
;	COMDAT ??_R4out_of_range@std@@6B@
rdata$r	SEGMENT
??_R4out_of_range@std@@6B@ DD 00H			; std::out_of_range::`RTTI Complete Object Locator'
	DD	00H
	DD	00H
	DD	FLAT:??_R0?AVout_of_range@std@@@8
	DD	FLAT:??_R3out_of_range@std@@8
rdata$r	ENDS
;	COMDAT ??_R3out_of_range@std@@8
rdata$r	SEGMENT
??_R3out_of_range@std@@8 DD 00H				; std::out_of_range::`RTTI Class Hierarchy Descriptor'
	DD	00H
	DD	03H
	DD	FLAT:??_R2out_of_range@std@@8
rdata$r	ENDS
;	COMDAT ??_R2out_of_range@std@@8
rdata$r	SEGMENT
??_R2out_of_range@std@@8 DD FLAT:??_R1A@?0A@A@out_of_range@std@@8 ; std::out_of_range::`RTTI Base Class Array'
	DD	FLAT:??_R1A@?0A@A@logic_error@std@@8
	DD	FLAT:??_R1A@?0A@A@exception@@8
rdata$r	ENDS
;	COMDAT ??_R1A@?0A@A@out_of_range@std@@8
rdata$r	SEGMENT
??_R1A@?0A@A@out_of_range@std@@8 DD FLAT:??_R0?AVout_of_range@std@@@8 ; std::out_of_range::`RTTI Base Class Descriptor at (0,-1,0,0)'
	DD	02H
	DD	00H
	DD	0ffffffffH
	DD	00H
	DD	00H
; Function compile flags: /Odt
rdata$r	ENDS
;	COMDAT ??0out_of_range@std@@QAE@ABV?$basic_string@DU?$char_traits@D@std@@V?$allocator@D@2@@1@@Z
_TEXT	SEGMENT
_this$ = -4						; size = 4
__Message$ = 8						; size = 4
??0out_of_range@std@@QAE@ABV?$basic_string@DU?$char_traits@D@std@@V?$allocator@D@2@@1@@Z PROC NEAR ; std::out_of_range::out_of_range, COMDAT
; _this$ = ecx

; 118  : 		{	// construct from message string

  00000	55		 push	 ebp
  00001	8b ec		 mov	 ebp, esp
  00003	51		 push	 ecx
  00004	89 4d fc	 mov	 DWORD PTR _this$[ebp], ecx
  00007	8b 45 08	 mov	 eax, DWORD PTR __Message$[ebp]
  0000a	50		 push	 eax
  0000b	8b 4d fc	 mov	 ecx, DWORD PTR _this$[ebp]
  0000e	e8 00 00 00 00	 call	 ??0logic_error@std@@QAE@ABV?$basic_string@DU?$char_traits@D@std@@V?$allocator@D@2@@1@@Z ; std::logic_error::logic_error
  00013	8b 4d fc	 mov	 ecx, DWORD PTR _this$[ebp]
  00016	c7 01 00 00 00
	00		 mov	 DWORD PTR [ecx], OFFSET FLAT:??_7out_of_range@std@@6B@

; 119  : 		}

  0001c	8b 45 fc	 mov	 eax, DWORD PTR _this$[ebp]
  0001f	8b e5		 mov	 esp, ebp
  00021	5d		 pop	 ebp
  00022	c2 04 00	 ret	 4
??0out_of_range@std@@QAE@ABV?$basic_string@DU?$char_traits@D@std@@V?$allocator@D@2@@1@@Z ENDP ; std::out_of_range::out_of_range
; Function compile flags: /Odt
_TEXT	ENDS
;	COMDAT ??1out_of_range@std@@UAE@XZ
_TEXT	SEGMENT
_this$ = -4						; size = 4
??1out_of_range@std@@UAE@XZ PROC NEAR			; std::out_of_range::~out_of_range, COMDAT
; _this$ = ecx

; 122  : 		{}	// destroy the object

  00000	55		 push	 ebp
  00001	8b ec		 mov	 ebp, esp
  00003	51		 push	 ecx
  00004	89 4d fc	 mov	 DWORD PTR _this$[ebp], ecx
  00007	8b 45 fc	 mov	 eax, DWORD PTR _this$[ebp]
  0000a	c7 00 00 00 00
	00		 mov	 DWORD PTR [eax], OFFSET FLAT:??_7out_of_range@std@@6B@
  00010	8b 4d fc	 mov	 ecx, DWORD PTR _this$[ebp]
  00013	e8 00 00 00 00	 call	 ??1logic_error@std@@UAE@XZ ; std::logic_error::~logic_error
  00018	8b e5		 mov	 esp, ebp
  0001a	5d		 pop	 ebp
  0001b	c3		 ret	 0
??1out_of_range@std@@UAE@XZ ENDP			; std::out_of_range::~out_of_range
; Function compile flags: /Odt
_TEXT	ENDS
;	COMDAT ??_Gout_of_range@std@@UAEPAXI@Z
_TEXT	SEGMENT
_this$ = -4						; size = 4
___flags$ = 8						; size = 4
??_Gout_of_range@std@@UAEPAXI@Z PROC NEAR		; std::out_of_range::`scalar deleting destructor', COMDAT
; _this$ = ecx
  00000	55		 push	 ebp
  00001	8b ec		 mov	 ebp, esp
  00003	51		 push	 ecx
  00004	89 4d fc	 mov	 DWORD PTR _this$[ebp], ecx
  00007	8b 4d fc	 mov	 ecx, DWORD PTR _this$[ebp]
  0000a	e8 00 00 00 00	 call	 ??1out_of_range@std@@UAE@XZ ; std::out_of_range::~out_of_range
  0000f	8b 45 08	 mov	 eax, DWORD PTR ___flags$[ebp]
  00012	83 e0 01	 and	 eax, 1
  00015	74 0c		 je	 SHORT $L102354
  00017	8b 4d fc	 mov	 ecx, DWORD PTR _this$[ebp]
  0001a	51		 push	 ecx
  0001b	e8 00 00 00 00	 call	 ??3@YAXPAX@Z		; operator delete
  00020	83 c4 04	 add	 esp, 4
$L102354:
  00023	8b 45 fc	 mov	 eax, DWORD PTR _this$[ebp]
  00026	8b e5		 mov	 esp, ebp
  00028	5d		 pop	 ebp
  00029	c2 04 00	 ret	 4
??_Gout_of_range@std@@UAEPAXI@Z ENDP			; std::out_of_range::`scalar deleting destructor'
; Function compile flags: /Odt
; File d:\boxgit\playbox\playbox\dev\prj\playbox\src\core\idatamanager.h
_TEXT	ENDS
;	COMDAT ??1IDataManager@@UAE@XZ
_TEXT	SEGMENT
_this$ = -4						; size = 4
??1IDataManager@@UAE@XZ PROC NEAR			; IDataManager::~IDataManager, COMDAT
; _this$ = ecx

; 13   : 	virtual ~IDataManager(){};

  00000	55		 push	 ebp
  00001	8b ec		 mov	 ebp, esp
  00003	51		 push	 ecx
  00004	89 4d fc	 mov	 DWORD PTR _this$[ebp], ecx
  00007	8b 45 fc	 mov	 eax, DWORD PTR _this$[ebp]
  0000a	c7 00 00 00 00
	00		 mov	 DWORD PTR [eax], OFFSET FLAT:??_7IDataManager@@6B@
  00010	8b e5		 mov	 esp, ebp
  00012	5d		 pop	 ebp
  00013	c3		 ret	 0
??1IDataManager@@UAE@XZ ENDP				; IDataManager::~IDataManager
; Function compile flags: /Odt
_TEXT	ENDS
;	COMDAT ??_GIDataManager@@UAEPAXI@Z
_TEXT	SEGMENT
_this$ = -4						; size = 4
___flags$ = 8						; size = 4
??_GIDataManager@@UAEPAXI@Z PROC NEAR			; IDataManager::`scalar deleting destructor', COMDAT
; _this$ = ecx
  00000	55		 push	 ebp
  00001	8b ec		 mov	 ebp, esp
  00003	51		 push	 ecx
  00004	89 4d fc	 mov	 DWORD PTR _this$[ebp], ecx
  00007	8b 4d fc	 mov	 ecx, DWORD PTR _this$[ebp]
  0000a	e8 00 00 00 00	 call	 ??1IDataManager@@UAE@XZ	; IDataManager::~IDataManager
  0000f	8b 45 08	 mov	 eax, DWORD PTR ___flags$[ebp]
  00012	83 e0 01	 and	 eax, 1
  00015	74 0c		 je	 SHORT $L107610
  00017	8b 4d fc	 mov	 ecx, DWORD PTR _this$[ebp]
  0001a	51		 push	 ecx
  0001b	e8 00 00 00 00	 call	 ??3@YAXPAX@Z		; operator delete
  00020	83 c4 04	 add	 esp, 4
$L107610:
  00023	8b 45 fc	 mov	 eax, DWORD PTR _this$[ebp]
  00026	8b e5		 mov	 esp, ebp
  00028	5d		 pop	 ebp
  00029	c2 04 00	 ret	 4
??_GIDataManager@@UAEPAXI@Z ENDP			; IDataManager::`scalar deleting destructor'
; Function compile flags: /Odt
_TEXT	ENDS
;	COMDAT ??0out_of_range@std@@QAE@ABV01@@Z
_TEXT	SEGMENT
_this$ = -4						; size = 4
___that$ = 8						; size = 4
??0out_of_range@std@@QAE@ABV01@@Z PROC NEAR		; std::out_of_range::out_of_range, COMDAT
; _this$ = ecx
  00000	55		 push	 ebp
  00001	8b ec		 mov	 ebp, esp
  00003	51		 push	 ecx
  00004	89 4d fc	 mov	 DWORD PTR _this$[ebp], ecx
  00007	8b 45 08	 mov	 eax, DWORD PTR ___that$[ebp]
  0000a	50		 push	 eax
  0000b	8b 4d fc	 mov	 ecx, DWORD PTR _this$[ebp]
  0000e	e8 00 00 00 00	 call	 ??0logic_error@std@@QAE@ABV01@@Z
  00013	8b 4d fc	 mov	 ecx, DWORD PTR _this$[ebp]
  00016	c7 01 00 00 00
	00		 mov	 DWORD PTR [ecx], OFFSET FLAT:??_7out_of_range@std@@6B@
  0001c	8b 45 fc	 mov	 eax, DWORD PTR _this$[ebp]
  0001f	8b e5		 mov	 esp, ebp
  00021	5d		 pop	 ebp
  00022	c2 04 00	 ret	 4
??0out_of_range@std@@QAE@ABV01@@Z ENDP			; std::out_of_range::out_of_range
_TEXT	ENDS
EXTRN	__imp_??0exception@@QAE@ABV0@@Z:NEAR
;	COMDAT xdata$x
xdata$x	SEGMENT
$T200889 DD	0ffffffffH
	DD	FLAT:$L200884
$T200887 DD	019930520H
	DD	01H
	DD	FLAT:$T200889
	DD	2 DUP(00H)
	DD	2 DUP(00H)
; Function compile flags: /Odt
xdata$x	ENDS
;	COMDAT ??0logic_error@std@@QAE@ABV01@@Z
_TEXT	SEGMENT
_this$ = -16						; size = 4
__$EHRec$ = -12						; size = 12
___that$ = 8						; size = 4
??0logic_error@std@@QAE@ABV01@@Z PROC NEAR		; std::logic_error::logic_error, COMDAT
; _this$ = ecx
  00000	55		 push	 ebp
  00001	8b ec		 mov	 ebp, esp
  00003	6a ff		 push	 -1
  00005	68 00 00 00 00	 push	 __ehhandler$??0logic_error@std@@QAE@ABV01@@Z
  0000a	64 a1 00 00 00
	00		 mov	 eax, DWORD PTR fs:__except_list
  00010	50		 push	 eax
  00011	64 89 25 00 00
	00 00		 mov	 DWORD PTR fs:__except_list, esp
  00018	51		 push	 ecx
  00019	89 4d f0	 mov	 DWORD PTR _this$[ebp], ecx
  0001c	8b 45 08	 mov	 eax, DWORD PTR ___that$[ebp]
  0001f	50		 push	 eax
  00020	8b 4d f0	 mov	 ecx, DWORD PTR _this$[ebp]
  00023	ff 15 00 00 00
	00		 call	 DWORD PTR __imp_??0exception@@QAE@ABV0@@Z
  00029	c7 45 fc 00 00
	00 00		 mov	 DWORD PTR __$EHRec$[ebp+8], 0
  00030	8b 4d f0	 mov	 ecx, DWORD PTR _this$[ebp]
  00033	c7 01 00 00 00
	00		 mov	 DWORD PTR [ecx], OFFSET FLAT:??_7logic_error@std@@6B@
  00039	8b 55 08	 mov	 edx, DWORD PTR ___that$[ebp]
  0003c	83 c2 0c	 add	 edx, 12			; 0000000cH
  0003f	52		 push	 edx
  00040	8b 4d f0	 mov	 ecx, DWORD PTR _this$[ebp]
  00043	83 c1 0c	 add	 ecx, 12			; 0000000cH
  00046	ff 15 00 00 00
	00		 call	 DWORD PTR __imp_??0?$basic_string@DU?$char_traits@D@std@@V?$allocator@D@2@@std@@QAE@ABV01@@Z
  0004c	c7 45 fc ff ff
	ff ff		 mov	 DWORD PTR __$EHRec$[ebp+8], -1
  00053	8b 45 f0	 mov	 eax, DWORD PTR _this$[ebp]
  00056	8b 4d f4	 mov	 ecx, DWORD PTR __$EHRec$[ebp]
  00059	64 89 0d 00 00
	00 00		 mov	 DWORD PTR fs:__except_list, ecx
  00060	8b e5		 mov	 esp, ebp
  00062	5d		 pop	 ebp
  00063	c2 04 00	 ret	 4
_TEXT	ENDS
;	COMDAT text$x
text$x	SEGMENT
$L200884:
  00000	8b 4d f0	 mov	 ecx, DWORD PTR _this$[ebp]
  00003	ff 25 00 00 00
	00		 jmp	 DWORD PTR __imp_??1exception@@UAE@XZ
__ehhandler$??0logic_error@std@@QAE@ABV01@@Z:
  00009	b8 00 00 00 00	 mov	 eax, OFFSET FLAT:$T200887
  0000e	e9 00 00 00 00	 jmp	 ___CxxFrameHandler
text$x	ENDS
??0logic_error@std@@QAE@ABV01@@Z ENDP			; std::logic_error::logic_error
; Function compile flags: /Odt
; File d:\program files (x86)\microsoft visual studio .net 2003\vc7\include\utility
;	COMDAT ??$swap@D@std@@YAXAAD0@Z
_TEXT	SEGMENT
__Tmp$ = -1						; size = 1
__Left$ = 8						; size = 4
__Right$ = 12						; size = 4
??$swap@D@std@@YAXAAD0@Z PROC NEAR			; std::swap<char>, COMDAT

; 14   : 	{	// exchange values stored at _Left and _Right

  00000	55		 push	 ebp
  00001	8b ec		 mov	 ebp, esp
  00003	51		 push	 ecx

; 15   : 	_Ty _Tmp = _Left;

  00004	8b 45 08	 mov	 eax, DWORD PTR __Left$[ebp]
  00007	8a 08		 mov	 cl, BYTE PTR [eax]
  00009	88 4d ff	 mov	 BYTE PTR __Tmp$[ebp], cl

; 16   : 	_Left = _Right, _Right = _Tmp;

  0000c	8b 55 08	 mov	 edx, DWORD PTR __Left$[ebp]
  0000f	8b 45 0c	 mov	 eax, DWORD PTR __Right$[ebp]
  00012	8a 08		 mov	 cl, BYTE PTR [eax]
  00014	88 0a		 mov	 BYTE PTR [edx], cl
  00016	8b 55 0c	 mov	 edx, DWORD PTR __Right$[ebp]
  00019	8a 45 ff	 mov	 al, BYTE PTR __Tmp$[ebp]
  0001c	88 02		 mov	 BYTE PTR [edx], al

; 17   : 	}

  0001e	8b e5		 mov	 esp, ebp
  00020	5d		 pop	 ebp
  00021	c3		 ret	 0
??$swap@D@std@@YAXAAD0@Z ENDP				; std::swap<char>
_TEXT	ENDS
END
