; Listing generated by Microsoft (R) Optimizing Compiler Version 13.10.3077 

	TITLE	.\src\LayoutMgr\ChangeColor\ColorSlide.cpp
	.386P
include listing.inc
if @Version gt 510
.model FLAT
else
_TEXT	SEGMENT PARA USE32 PUBLIC 'CODE'
_TEXT	ENDS
_DATA	SEGMENT DWORD USE32 PUBLIC 'DATA'
_DATA	ENDS
CONST	SEGMENT DWORD USE32 PUBLIC 'CONST'
CONST	ENDS
_BSS	SEGMENT DWORD USE32 PUBLIC 'BSS'
_BSS	ENDS
$$SYMBOLS	SEGMENT BYTE USE32 'DEBSYM'
$$SYMBOLS	ENDS
$$TYPES	SEGMENT BYTE USE32 'DEBTYP'
$$TYPES	ENDS
_TLS	SEGMENT DWORD USE32 PUBLIC 'TLS'
_TLS	ENDS
rdata$r	SEGMENT DWORD USE32 PUBLIC 'CONST'
rdata$r	ENDS
xdata$x	SEGMENT DWORD USE32 PUBLIC 'CONST'
xdata$x	ENDS
text$AFX_COL1	SEGMENT PARA USE32 PUBLIC ''
text$AFX_COL1	ENDS
text$yc	SEGMENT PARA USE32 PUBLIC 'CODE'
text$yc	ENDS
CRT$XCA	SEGMENT DWORD USE32 PUBLIC 'DATA'
CRT$XCA	ENDS
CRT$XCU	SEGMENT DWORD USE32 PUBLIC 'DATA'
CRT$XCU	ENDS
CRT$XCL	SEGMENT DWORD USE32 PUBLIC 'DATA'
CRT$XCL	ENDS
CRT$XCC	SEGMENT DWORD USE32 PUBLIC 'DATA'
CRT$XCC	ENDS
CRT$XCZ	SEGMENT DWORD USE32 PUBLIC 'DATA'
CRT$XCZ	ENDS
text$yd	SEGMENT PARA USE32 PUBLIC 'CODE'
text$yd	ENDS
ATL$__m	SEGMENT DWORD USE32 PUBLIC ''
ATL$__m	ENDS
ATL$__z	SEGMENT DWORD USE32 PUBLIC ''
ATL$__z	ENDS
ATL$__a	SEGMENT DWORD USE32 PUBLIC ''
ATL$__a	ENDS
;	COMDAT ??1DIBINFO@@UAE@XZ
_TEXT	SEGMENT PARA USE32 PUBLIC 'CODE'
_TEXT	ENDS
;	COMDAT ??_GDIBINFO@@UAEPAXI@Z
_TEXT	SEGMENT PARA USE32 PUBLIC 'CODE'
_TEXT	ENDS
;	COMDAT ??0BaseColor@@QAE@XZ
_TEXT	SEGMENT PARA USE32 PUBLIC 'CODE'
_TEXT	ENDS
;	COMDAT ??1BaseColor@@QAE@XZ
_TEXT	SEGMENT PARA USE32 PUBLIC 'CODE'
_TEXT	ENDS
;	COMDAT ??_GBaseColor@@QAEPAXI@Z
_TEXT	SEGMENT PARA USE32 PUBLIC 'CODE'
_TEXT	ENDS
;	COMDAT ??_GCColorSlide@@UAEPAXI@Z
_TEXT	SEGMENT PARA USE32 PUBLIC 'CODE'
_TEXT	ENDS
;	COMDAT ??B?$CComPtrBase@UITypeInfo2@@@ATL@@QBEPAUITypeInfo2@@XZ
_TEXT	SEGMENT PARA USE32 PUBLIC 'CODE'
_TEXT	ENDS
;	COMDAT ?equal@?$istreambuf_iterator@DU?$char_traits@D@std@@@std@@QBE_NABV12@@Z
_TEXT	SEGMENT PARA USE32 PUBLIC 'CODE'
_TEXT	ENDS
;	COMDAT ?equal@?$istreambuf_iterator@_WU?$char_traits@_W@std@@@std@@QBE_NABV12@@Z
_TEXT	SEGMENT PARA USE32 PUBLIC 'CODE'
_TEXT	ENDS
;	COMDAT ?Unlock@?$CComCritSecLock@VCComCriticalSection@ATL@@@ATL@@QAEXXZ
_TEXT	SEGMENT PARA USE32 PUBLIC 'CODE'
_TEXT	ENDS
;	COMDAT ??$_Maklocstr@D@std@@YAPADPBDPADABU_Cvtvec@@@Z
_TEXT	SEGMENT PARA USE32 PUBLIC 'CODE'
_TEXT	ENDS
;	COMDAT ??_R3CColorSlide@@8
rdata$r	SEGMENT DWORD USE32 PUBLIC 'CONST'
rdata$r	ENDS
;	COMDAT ??_R3DIBINFO@@8
rdata$r	SEGMENT DWORD USE32 PUBLIC 'CONST'
rdata$r	ENDS
;	COMDAT ??_R3?$numpunct@_W@std@@8
rdata$r	SEGMENT DWORD USE32 PUBLIC 'CONST'
rdata$r	ENDS
;	COMDAT ??_R3?$numpunct@D@std@@8
rdata$r	SEGMENT DWORD USE32 PUBLIC 'CONST'
rdata$r	ENDS
;	COMDAT ??_R2CColorSlide@@8
rdata$r	SEGMENT DWORD USE32 PUBLIC 'CONST'
rdata$r	ENDS
;	COMDAT ??_R2DIBINFO@@8
rdata$r	SEGMENT DWORD USE32 PUBLIC 'CONST'
rdata$r	ENDS
;	COMDAT ??_R2?$numpunct@_W@std@@8
rdata$r	SEGMENT DWORD USE32 PUBLIC 'CONST'
rdata$r	ENDS
;	COMDAT ??_R2?$numpunct@D@std@@8
rdata$r	SEGMENT DWORD USE32 PUBLIC 'CONST'
rdata$r	ENDS
;	COMDAT ??_R1A@?0A@A@CObject@@8
rdata$r	SEGMENT DWORD USE32 PUBLIC 'CONST'
rdata$r	ENDS
;	COMDAT ??_R0?AVCObject@@@8
_DATA	SEGMENT DWORD USE32 PUBLIC 'DATA'
_DATA	ENDS
;	COMDAT ??_R1A@?0A@A@CCmdTarget@@8
rdata$r	SEGMENT DWORD USE32 PUBLIC 'CONST'
rdata$r	ENDS
;	COMDAT ??_R0?AVCCmdTarget@@@8
_DATA	SEGMENT DWORD USE32 PUBLIC 'DATA'
_DATA	ENDS
;	COMDAT ??_R1A@?0A@A@CWnd@@8
rdata$r	SEGMENT DWORD USE32 PUBLIC 'CONST'
rdata$r	ENDS
;	COMDAT ??_R0?AVCWnd@@@8
_DATA	SEGMENT DWORD USE32 PUBLIC 'DATA'
_DATA	ENDS
;	COMDAT ??_R1A@?0A@A@CSliderCtrl@@8
rdata$r	SEGMENT DWORD USE32 PUBLIC 'CONST'
rdata$r	ENDS
;	COMDAT ??_R0?AVCSliderCtrl@@@8
_DATA	SEGMENT DWORD USE32 PUBLIC 'DATA'
_DATA	ENDS
;	COMDAT ??_R1A@?0A@A@CColorSlide@@8
rdata$r	SEGMENT DWORD USE32 PUBLIC 'CONST'
rdata$r	ENDS
;	COMDAT ??_R1A@?0A@A@DIBINFO@@8
rdata$r	SEGMENT DWORD USE32 PUBLIC 'CONST'
rdata$r	ENDS
;	COMDAT ??_R1A@?0A@A@?$numpunct@_W@std@@8
rdata$r	SEGMENT DWORD USE32 PUBLIC 'CONST'
rdata$r	ENDS
;	COMDAT ??_R1A@?0A@A@facet@locale@std@@8
rdata$r	SEGMENT DWORD USE32 PUBLIC 'CONST'
rdata$r	ENDS
;	COMDAT ??_R0?AVfacet@locale@std@@@8
_DATA	SEGMENT DWORD USE32 PUBLIC 'DATA'
_DATA	ENDS
;	COMDAT ??_R1A@?0A@A@?$numpunct@D@std@@8
rdata$r	SEGMENT DWORD USE32 PUBLIC 'CONST'
rdata$r	ENDS
;	COMDAT ??_R0?AVCColorSlide@@@8
_DATA	SEGMENT DWORD USE32 PUBLIC 'DATA'
_DATA	ENDS
;	COMDAT ??_R0?AVDIBINFO@@@8
_DATA	SEGMENT DWORD USE32 PUBLIC 'DATA'
_DATA	ENDS
;	COMDAT ??_R0?AV?$numpunct@_W@std@@@8
_DATA	SEGMENT DWORD USE32 PUBLIC 'DATA'
_DATA	ENDS
;	COMDAT ??_R0?AV?$numpunct@D@std@@@8
_DATA	SEGMENT DWORD USE32 PUBLIC 'DATA'
_DATA	ENDS
;	COMDAT ?EndModalState@CWnd@@UAEXXZ
_TEXT	SEGMENT PARA USE32 PUBLIC 'CODE'
_TEXT	ENDS
;	COMDAT ?BeginModalState@CWnd@@UAEXXZ
_TEXT	SEGMENT PARA USE32 PUBLIC 'CODE'
_TEXT	ENDS
;	COMDAT ?DoDataExchange@CWnd@@MAEXPAVCDataExchange@@@Z
_TEXT	SEGMENT PARA USE32 PUBLIC 'CODE'
_TEXT	ENDS
;	COMDAT ?Dump@CObject@@UBEXAAVCDumpContext@@@Z
_TEXT	SEGMENT PARA USE32 PUBLIC 'CODE'
_TEXT	ENDS
;	COMDAT ?AssertValid@CObject@@UBEXXZ
_TEXT	SEGMENT PARA USE32 PUBLIC 'CODE'
_TEXT	ENDS
;	COMDAT ?Serialize@CObject@@UAEXAAVCArchive@@@Z
_TEXT	SEGMENT PARA USE32 PUBLIC 'CODE'
_TEXT	ENDS
;	COMDAT ??_R4CColorSlide@@6B@
rdata$r	SEGMENT DWORD USE32 PUBLIC 'CONST'
rdata$r	ENDS
;	COMDAT ??_R4DIBINFO@@6B@
rdata$r	SEGMENT DWORD USE32 PUBLIC 'CONST'
rdata$r	ENDS
;	COMDAT ??0?$allocator@_W@std@@QAE@XZ
_TEXT	SEGMENT PARA USE32 PUBLIC 'CODE'
_TEXT	ENDS
;	COMDAT ??0?$allocator@D@std@@QAE@ABV01@@Z
_TEXT	SEGMENT PARA USE32 PUBLIC 'CODE'
_TEXT	ENDS
;	COMDAT ??0?$allocator@D@std@@QAE@XZ
_TEXT	SEGMENT PARA USE32 PUBLIC 'CODE'
_TEXT	ENDS
;	COMDAT ?deallocate@?$allocator@D@std@@QAEXPADI@Z
_TEXT	SEGMENT PARA USE32 PUBLIC 'CODE'
_TEXT	ENDS
;	COMDAT ?max_size@?$allocator@D@std@@QBEIXZ
_TEXT	SEGMENT PARA USE32 PUBLIC 'CODE'
_TEXT	ENDS
;	COMDAT ?allocate@?$allocator@D@std@@QAEPADI@Z
_TEXT	SEGMENT PARA USE32 PUBLIC 'CODE'
_TEXT	ENDS
;	COMDAT ??$_Allocate@D@std@@YAPADIPAD@Z
_TEXT	SEGMENT PARA USE32 PUBLIC 'CODE'
_TEXT	ENDS
;	COMDAT ??_G?$numpunct@_W@std@@MAEPAXI@Z
_TEXT	SEGMENT PARA USE32 PUBLIC 'CODE'
_TEXT	ENDS
;	COMDAT ??_R4?$numpunct@_W@std@@6B@
rdata$r	SEGMENT DWORD USE32 PUBLIC 'CONST'
rdata$r	ENDS
;	COMDAT ??_G?$numpunct@D@std@@MAEPAXI@Z
_TEXT	SEGMENT PARA USE32 PUBLIC 'CODE'
_TEXT	ENDS
;	COMDAT ??_R4?$numpunct@D@std@@6B@
rdata$r	SEGMENT DWORD USE32 PUBLIC 'CONST'
rdata$r	ENDS
;	COMDAT ?_Psave@?$_Facetptr@V?$numpunct@_W@std@@@std@@2PBVfacet@locale@2@B
_DATA	SEGMENT DWORD USE32 PUBLIC 'DATA'
_DATA	ENDS
;	COMDAT ?_Psave@?$_Facetptr@V?$numpunct@D@std@@@std@@2PBVfacet@locale@2@B
_DATA	SEGMENT DWORD USE32 PUBLIC 'DATA'
_DATA	ENDS
;	COMDAT ?Unlock@CComCriticalSection@ATL@@QAEJXZ
_TEXT	SEGMENT PARA USE32 PUBLIC 'CODE'
_TEXT	ENDS
;	COMDAT ?_Psave@?$_Facetptr@V?$ctype@_W@std@@@std@@2PBVfacet@locale@2@B
_DATA	SEGMENT DWORD USE32 PUBLIC 'DATA'
_DATA	ENDS
;	COMDAT ?_Psave@?$_Facetptr@V?$ctype@D@std@@@std@@2PBVfacet@locale@2@B
_DATA	SEGMENT DWORD USE32 PUBLIC 'DATA'
_DATA	ENDS
;	COMDAT ??$_Maklocchr@_W@std@@YA_WDPA_WABU_Cvtvec@@@Z
_TEXT	SEGMENT PARA USE32 PUBLIC 'CODE'
_TEXT	ENDS
;	COMDAT ??$_Maklocstr@_W@std@@YAPA_WPBDPA_WABU_Cvtvec@@@Z
_TEXT	SEGMENT PARA USE32 PUBLIC 'CODE'
_TEXT	ENDS
;	COMDAT ??$_Maklocchr@D@std@@YADDPADABU_Cvtvec@@@Z
_TEXT	SEGMENT PARA USE32 PUBLIC 'CODE'
_TEXT	ENDS
;	COMDAT ??_C@_04LOAJBDKD@true?$AA@
CONST	SEGMENT DWORD USE32 PUBLIC 'CONST'
CONST	ENDS
;	COMDAT ??_C@_05LAPONLG@false?$AA@
CONST	SEGMENT DWORD USE32 PUBLIC 'CONST'
CONST	ENDS
;	COMDAT _wmemcpy
_TEXT	SEGMENT PARA USE32 PUBLIC 'CODE'
_TEXT	ENDS
;	COMDAT ?max_size@?$allocator@_W@std@@QBEIXZ
_TEXT	SEGMENT PARA USE32 PUBLIC 'CODE'
_TEXT	ENDS
;	COMDAT ?allocate@?$allocator@_W@std@@QAEPA_WI@Z
_TEXT	SEGMENT PARA USE32 PUBLIC 'CODE'
_TEXT	ENDS
;	COMDAT ??$_Allocate@_W@std@@YAPA_WIPA_W@Z
_TEXT	SEGMENT PARA USE32 PUBLIC 'CODE'
_TEXT	ENDS
;	COMDAT ??_C@_01GFHCPBMG@C?$AA@
CONST	SEGMENT DWORD USE32 PUBLIC 'CONST'
CONST	ENDS
;	COMDAT ?_Peek@?$istreambuf_iterator@_WU?$char_traits@_W@std@@@std@@AAE_WXZ
_TEXT	SEGMENT PARA USE32 PUBLIC 'CODE'
_TEXT	ENDS
;	COMDAT ?_Peek@?$istreambuf_iterator@DU?$char_traits@D@std@@@std@@AAEDXZ
_TEXT	SEGMENT PARA USE32 PUBLIC 'CODE'
_TEXT	ENDS
;	COMDAT ??$use_facet@V?$ctype@_W@std@@@std@@YAABV?$ctype@_W@0@ABVlocale@0@@Z
_TEXT	SEGMENT PARA USE32 PUBLIC 'CODE'
_TEXT	ENDS
;	COMDAT ??_S?$ctype@_W@std@@6B@
CONST	SEGMENT DWORD USE32 PUBLIC 'CONST'
CONST	ENDS
;	COMDAT ??_R4?$ctype@_W@std@@6B@
rdata$r	SEGMENT DWORD USE32 PUBLIC 'CONST'
rdata$r	ENDS
;	COMDAT ??_R0?AV?$ctype@_W@std@@@8
_DATA	SEGMENT DWORD USE32 PUBLIC 'DATA'
_DATA	ENDS
;	COMDAT ??_R3?$ctype@_W@std@@8
rdata$r	SEGMENT DWORD USE32 PUBLIC 'CONST'
rdata$r	ENDS
;	COMDAT ??_R2?$ctype@_W@std@@8
rdata$r	SEGMENT DWORD USE32 PUBLIC 'CONST'
rdata$r	ENDS
;	COMDAT ??_R1A@?0A@A@?$ctype@_W@std@@8
rdata$r	SEGMENT DWORD USE32 PUBLIC 'CONST'
rdata$r	ENDS
;	COMDAT ??_R1A@?0A@A@ctype_base@std@@8
rdata$r	SEGMENT DWORD USE32 PUBLIC 'CONST'
rdata$r	ENDS
;	COMDAT ??_R0?AUctype_base@std@@@8
_DATA	SEGMENT DWORD USE32 PUBLIC 'DATA'
_DATA	ENDS
;	COMDAT ??_G?$ctype@_W@std@@MAEPAXI@Z
_TEXT	SEGMENT PARA USE32 PUBLIC 'CODE'
_TEXT	ENDS
;	COMDAT ??_C@_08EPJLHIJG@bad?5cast?$AA@
CONST	SEGMENT DWORD USE32 PUBLIC 'CONST'
CONST	ENDS
;	COMDAT __TI2?AVbad_cast@@
xdata$x	SEGMENT DWORD USE32 PUBLIC 'CONST'
xdata$x	ENDS
;	COMDAT __CTA2?AVbad_cast@@
xdata$x	SEGMENT DWORD USE32 PUBLIC 'CONST'
xdata$x	ENDS
;	COMDAT __CT??_R0?AVbad_cast@@@8??0bad_cast@@QAE@ABV0@@Z12
xdata$x	SEGMENT DWORD USE32 PUBLIC 'CONST'
xdata$x	ENDS
;	COMDAT ??_R0?AVbad_cast@@@8
_DATA	SEGMENT DWORD USE32 PUBLIC 'DATA'
_DATA	ENDS
;	COMDAT __CT??_R0?AVexception@@@8??0exception@@QAE@ABV0@@Z12
xdata$x	SEGMENT DWORD USE32 PUBLIC 'CONST'
xdata$x	ENDS
;	COMDAT ??_R0?AVexception@@@8
_DATA	SEGMENT DWORD USE32 PUBLIC 'DATA'
_DATA	ENDS
;	COMDAT ??$use_facet@V?$ctype@D@std@@@std@@YAABV?$ctype@D@0@ABVlocale@0@@Z
_TEXT	SEGMENT PARA USE32 PUBLIC 'CODE'
_TEXT	ENDS
;	COMDAT ??_S?$ctype@D@std@@6B@
CONST	SEGMENT DWORD USE32 PUBLIC 'CONST'
CONST	ENDS
;	COMDAT ??_R4?$ctype@D@std@@6B@
rdata$r	SEGMENT DWORD USE32 PUBLIC 'CONST'
rdata$r	ENDS
;	COMDAT ??_R0?AV?$ctype@D@std@@@8
_DATA	SEGMENT DWORD USE32 PUBLIC 'DATA'
_DATA	ENDS
;	COMDAT ??_R3?$ctype@D@std@@8
rdata$r	SEGMENT DWORD USE32 PUBLIC 'CONST'
rdata$r	ENDS
;	COMDAT ??_R2?$ctype@D@std@@8
rdata$r	SEGMENT DWORD USE32 PUBLIC 'CONST'
rdata$r	ENDS
;	COMDAT ??_R1A@?0A@A@?$ctype@D@std@@8
rdata$r	SEGMENT DWORD USE32 PUBLIC 'CONST'
rdata$r	ENDS
;	COMDAT ??_G?$ctype@D@std@@MAEPAXI@Z
_TEXT	SEGMENT PARA USE32 PUBLIC 'CODE'
_TEXT	ENDS
;	COMDAT ??_S?$numpunct@_W@std@@6B@
CONST	SEGMENT DWORD USE32 PUBLIC 'CONST'
CONST	ENDS
;	COMDAT ??_S?$numpunct@D@std@@6B@
CONST	SEGMENT DWORD USE32 PUBLIC 'CONST'
CONST	ENDS
;	COMDAT _wmemmove
_TEXT	SEGMENT PARA USE32 PUBLIC 'CODE'
_TEXT	ENDS
;	COMDAT ?deallocate@?$allocator@_W@std@@QAEXPA_WI@Z
_TEXT	SEGMENT PARA USE32 PUBLIC 'CODE'
_TEXT	ENDS
;	COMDAT ??0?$allocator@_W@std@@QAE@ABV01@@Z
_TEXT	SEGMENT PARA USE32 PUBLIC 'CODE'
_TEXT	ENDS
;	COMDAT ?Invalidate@CWnd@@QAEXH@Z
_TEXT	SEGMENT PARA USE32 PUBLIC 'CODE'
_TEXT	ENDS
;	COMDAT ?AfxGetMainWnd@@YGPAVCWnd@@XZ
_TEXT	SEGMENT PARA USE32 PUBLIC 'CODE'
_TEXT	ENDS
;	COMDAT ?FillRect@CDC@@QAEXPBUtagRECT@@PAVCBrush@@@Z
_TEXT	SEGMENT PARA USE32 PUBLIC 'CODE'
_TEXT	ENDS
;	COMDAT ?GetSafeHandle@CGdiObject@@QBEPAXXZ
_TEXT	SEGMENT PARA USE32 PUBLIC 'CODE'
_TEXT	ENDS
;	COMDAT ??0CRect@@QAE@ABUtagRECT@@@Z
_TEXT	SEGMENT PARA USE32 PUBLIC 'CODE'
_TEXT	ENDS
;	COMDAT ??1CBrush@@UAE@XZ
_TEXT	SEGMENT PARA USE32 PUBLIC 'CODE'
_TEXT	ENDS
;	COMDAT ??_7CBrush@@6B@
CONST	SEGMENT DWORD USE32 PUBLIC 'CONST'
CONST	ENDS
;	COMDAT ??_R4CBrush@@6B@
rdata$r	SEGMENT DWORD USE32 PUBLIC 'CONST'
rdata$r	ENDS
;	COMDAT ??_R0?AVCBrush@@@8
_DATA	SEGMENT DWORD USE32 PUBLIC 'DATA'
_DATA	ENDS
;	COMDAT ??_R3CBrush@@8
rdata$r	SEGMENT DWORD USE32 PUBLIC 'CONST'
rdata$r	ENDS
;	COMDAT ??_R2CBrush@@8
rdata$r	SEGMENT DWORD USE32 PUBLIC 'CONST'
rdata$r	ENDS
;	COMDAT ??_R1A@?0A@A@CBrush@@8
rdata$r	SEGMENT DWORD USE32 PUBLIC 'CONST'
rdata$r	ENDS
;	COMDAT ??_R1A@?0A@A@CGdiObject@@8
rdata$r	SEGMENT DWORD USE32 PUBLIC 'CONST'
rdata$r	ENDS
;	COMDAT ??_R0?AVCGdiObject@@@8
_DATA	SEGMENT DWORD USE32 PUBLIC 'DATA'
_DATA	ENDS
;	COMDAT ??_GCBrush@@UAEPAXI@Z
_TEXT	SEGMENT PARA USE32 PUBLIC 'CODE'
_TEXT	ENDS
;	COMDAT ??1CGdiObject@@UAE@XZ
_TEXT	SEGMENT PARA USE32 PUBLIC 'CODE'
_TEXT	ENDS
;	COMDAT ??_7CGdiObject@@6B@
CONST	SEGMENT DWORD USE32 PUBLIC 'CONST'
CONST	ENDS
;	COMDAT ??_R4CGdiObject@@6B@
rdata$r	SEGMENT DWORD USE32 PUBLIC 'CONST'
rdata$r	ENDS
;	COMDAT ??_R3CGdiObject@@8
rdata$r	SEGMENT DWORD USE32 PUBLIC 'CONST'
rdata$r	ENDS
;	COMDAT ??_R2CGdiObject@@8
rdata$r	SEGMENT DWORD USE32 PUBLIC 'CONST'
rdata$r	ENDS
;	COMDAT ??_GCGdiObject@@UAEPAXI@Z
_TEXT	SEGMENT PARA USE32 PUBLIC 'CODE'
_TEXT	ENDS
;	COMDAT ??1CObject@@UAE@XZ
_TEXT	SEGMENT PARA USE32 PUBLIC 'CODE'
_TEXT	ENDS
;	COMDAT ?FrameRect@CDC@@QAEXPBUtagRECT@@PAVCBrush@@@Z
_TEXT	SEGMENT PARA USE32 PUBLIC 'CODE'
_TEXT	ENDS
;	COMDAT ?ReleaseDC@CWnd@@QAEHPAVCDC@@@Z
_TEXT	SEGMENT PARA USE32 PUBLIC 'CODE'
_TEXT	ENDS
;	COMDAT ?GetSafeHdc@CDC@@QBEPAUHDC__@@XZ
_TEXT	SEGMENT PARA USE32 PUBLIC 'CODE'
_TEXT	ENDS
;	COMDAT ??1CMemDC@@UAE@XZ
_TEXT	SEGMENT PARA USE32 PUBLIC 'CODE'
_TEXT	ENDS
;	COMDAT ??_7CMemDC@@6B@
CONST	SEGMENT DWORD USE32 PUBLIC 'CONST'
CONST	ENDS
;	COMDAT ??_R4CMemDC@@6B@
rdata$r	SEGMENT DWORD USE32 PUBLIC 'CONST'
rdata$r	ENDS
;	COMDAT ??_R0?AVCMemDC@@@8
_DATA	SEGMENT DWORD USE32 PUBLIC 'DATA'
_DATA	ENDS
;	COMDAT ??_R3CMemDC@@8
rdata$r	SEGMENT DWORD USE32 PUBLIC 'CONST'
rdata$r	ENDS
;	COMDAT ??_R2CMemDC@@8
rdata$r	SEGMENT DWORD USE32 PUBLIC 'CONST'
rdata$r	ENDS
;	COMDAT ??_R1A@?0A@A@CMemDC@@8
rdata$r	SEGMENT DWORD USE32 PUBLIC 'CONST'
rdata$r	ENDS
;	COMDAT ??_R1A@?0A@A@CDC@@8
rdata$r	SEGMENT DWORD USE32 PUBLIC 'CONST'
rdata$r	ENDS
;	COMDAT ??_R0?AVCDC@@@8
_DATA	SEGMENT DWORD USE32 PUBLIC 'DATA'
_DATA	ENDS
;	COMDAT ??_GCMemDC@@UAEPAXI@Z
_TEXT	SEGMENT PARA USE32 PUBLIC 'CODE'
_TEXT	ENDS
;	COMDAT ?PtVisible@CDC@@UBEHHH@Z
_TEXT	SEGMENT PARA USE32 PUBLIC 'CODE'
_TEXT	ENDS
;	COMDAT ?RectVisible@CDC@@UBEHPBUtagRECT@@@Z
_TEXT	SEGMENT PARA USE32 PUBLIC 'CODE'
_TEXT	ENDS
;	COMDAT ?TextOutA@CDC@@UAEHHHPBDH@Z
_TEXT	SEGMENT PARA USE32 PUBLIC 'CODE'
_TEXT	ENDS
;	COMDAT ?ExtTextOutA@CDC@@UAEHHHIPBUtagRECT@@PBDIPAH@Z
_TEXT	SEGMENT PARA USE32 PUBLIC 'CODE'
_TEXT	ENDS
;	COMDAT ?TabbedTextOutA@CDC@@UAE?AVCSize@@HHPBDHHPAHH@Z
_TEXT	SEGMENT PARA USE32 PUBLIC 'CODE'
_TEXT	ENDS
;	COMDAT ??0CSize@@QAE@K@Z
_TEXT	SEGMENT PARA USE32 PUBLIC 'CODE'
_TEXT	ENDS
;	COMDAT ?DrawTextA@CDC@@UAEHPBDHPAUtagRECT@@I@Z
_TEXT	SEGMENT PARA USE32 PUBLIC 'CODE'
_TEXT	ENDS
;	COMDAT ?DrawTextExA@CDC@@UAEHPADHPAUtagRECT@@IPAUtagDRAWTEXTPARAMS@@@Z
_TEXT	SEGMENT PARA USE32 PUBLIC 'CODE'
_TEXT	ENDS
;	COMDAT ?GrayStringA@CDC@@UAEHPAVCBrush@@P6GHPAUHDC__@@JH@ZJHHHHH@Z
_TEXT	SEGMENT PARA USE32 PUBLIC 'CODE'
_TEXT	ENDS
;	COMDAT ?Escape@CDC@@UAEHHHPBDPAX@Z
_TEXT	SEGMENT PARA USE32 PUBLIC 'CODE'
_TEXT	ENDS
;	COMDAT ?BitBlt@CDC@@QAEHHHHHPAV1@HHK@Z
_TEXT	SEGMENT PARA USE32 PUBLIC 'CODE'
_TEXT	ENDS
;	COMDAT ?SelectObject@CDC@@QAEPAVCBitmap@@PAV2@@Z
_TEXT	SEGMENT PARA USE32 PUBLIC 'CODE'
_TEXT	ENDS
;	COMDAT ??0CRect@@QAE@HHHH@Z
_TEXT	SEGMENT PARA USE32 PUBLIC 'CODE'
_TEXT	ENDS
;	COMDAT ??0CMemDC@@QAE@PAVCDC@@ABVCRect@@@Z
_TEXT	SEGMENT PARA USE32 PUBLIC 'CODE'
_TEXT	ENDS
;	COMDAT ?CreateCompatibleDC@CDC@@QAEHPAV1@@Z
_TEXT	SEGMENT PARA USE32 PUBLIC 'CODE'
_TEXT	ENDS
;	COMDAT ??2CObject@@SGPAXI@Z
_TEXT	SEGMENT PARA USE32 PUBLIC 'CODE'
_TEXT	ENDS
;	COMDAT ??0CBitmap@@QAE@XZ
_TEXT	SEGMENT PARA USE32 PUBLIC 'CODE'
_TEXT	ENDS
;	COMDAT ??0CGdiObject@@QAE@XZ
_TEXT	SEGMENT PARA USE32 PUBLIC 'CODE'
_TEXT	ENDS
;	COMDAT ??0CObject@@IAE@XZ
_TEXT	SEGMENT PARA USE32 PUBLIC 'CODE'
_TEXT	ENDS
;	COMDAT ??_7CBitmap@@6B@
CONST	SEGMENT DWORD USE32 PUBLIC 'CONST'
CONST	ENDS
;	COMDAT ??_R4CBitmap@@6B@
rdata$r	SEGMENT DWORD USE32 PUBLIC 'CONST'
rdata$r	ENDS
;	COMDAT ??_R0?AVCBitmap@@@8
_DATA	SEGMENT DWORD USE32 PUBLIC 'DATA'
_DATA	ENDS
;	COMDAT ??_R3CBitmap@@8
rdata$r	SEGMENT DWORD USE32 PUBLIC 'CONST'
rdata$r	ENDS
;	COMDAT ??_R2CBitmap@@8
rdata$r	SEGMENT DWORD USE32 PUBLIC 'CONST'
rdata$r	ENDS
;	COMDAT ??_R1A@?0A@A@CBitmap@@8
rdata$r	SEGMENT DWORD USE32 PUBLIC 'CONST'
rdata$r	ENDS
;	COMDAT ??_GCBitmap@@UAEPAXI@Z
_TEXT	SEGMENT PARA USE32 PUBLIC 'CODE'
_TEXT	ENDS
;	COMDAT ??1CBitmap@@UAE@XZ
_TEXT	SEGMENT PARA USE32 PUBLIC 'CODE'
_TEXT	ENDS
;	COMDAT ?CreateCompatibleBitmap@CBitmap@@QAEHPAVCDC@@HH@Z
_TEXT	SEGMENT PARA USE32 PUBLIC 'CODE'
_TEXT	ENDS
;	COMDAT ?Height@CRect@@QBEHXZ
_TEXT	SEGMENT PARA USE32 PUBLIC 'CODE'
_TEXT	ENDS
;	COMDAT ?Width@CRect@@QBEHXZ
_TEXT	SEGMENT PARA USE32 PUBLIC 'CODE'
_TEXT	ENDS
;	COMDAT ??BCRect@@QAEPAUtagRECT@@XZ
_TEXT	SEGMENT PARA USE32 PUBLIC 'CODE'
_TEXT	ENDS
;	COMDAT ?GetClientRect@CWnd@@QBEXPAUtagRECT@@@Z
_TEXT	SEGMENT PARA USE32 PUBLIC 'CODE'
_TEXT	ENDS
;	COMDAT ??0CRect@@QAE@XZ
_TEXT	SEGMENT PARA USE32 PUBLIC 'CODE'
_TEXT	ENDS
;	COMDAT ?GetWindowDC@CWnd@@QAEPAVCDC@@XZ
_TEXT	SEGMENT PARA USE32 PUBLIC 'CODE'
_TEXT	ENDS
;	COMDAT ?GetParent@CWnd@@QBEPAV1@XZ
_TEXT	SEGMENT PARA USE32 PUBLIC 'CODE'
_TEXT	ENDS
;	COMDAT ?OnMouseMove@CWnd@@IAEXIVCPoint@@@Z
_TEXT	SEGMENT PARA USE32 PUBLIC 'CODE'
_TEXT	ENDS
;	COMDAT ?OnLButtonUp@CWnd@@IAEXIVCPoint@@@Z
_TEXT	SEGMENT PARA USE32 PUBLIC 'CODE'
_TEXT	ENDS
;	COMDAT ?WindowFromPoint@CWnd@@SGPAV1@UtagPOINT@@@Z
_TEXT	SEGMENT PARA USE32 PUBLIC 'CODE'
_TEXT	ENDS
;	COMDAT ?SetCapture@CWnd@@QAEPAV1@XZ
_TEXT	SEGMENT PARA USE32 PUBLIC 'CODE'
_TEXT	ENDS
;	COMDAT ?OnLButtonDown@CWnd@@IAEXIVCPoint@@@Z
_TEXT	SEGMENT PARA USE32 PUBLIC 'CODE'
_TEXT	ENDS
;	COMDAT ?SetPos@CSliderCtrl@@QAEXH@Z
_TEXT	SEGMENT PARA USE32 PUBLIC 'CODE'
_TEXT	ENDS
;	COMDAT ?GetSafeHwnd@CWnd@@QBEPAUHWND__@@XZ
_TEXT	SEGMENT PARA USE32 PUBLIC 'CODE'
_TEXT	ENDS
;	COMDAT ?_messageEntries@CColorSlide@@0QBUAFX_MSGMAP_ENTRY@@B
CONST	SEGMENT DWORD USE32 PUBLIC 'CONST'
CONST	ENDS
;	COMDAT ?messageMap@CColorSlide@@1UAFX_MSGMAP@@B
CONST	SEGMENT DWORD USE32 PUBLIC 'CONST'
CONST	ENDS
;	COMDAT ??3CObject@@SGXPAX@Z
_TEXT	SEGMENT PARA USE32 PUBLIC 'CODE'
_TEXT	ENDS
;	COMDAT ??_7CColorSlide@@6B@
CONST	SEGMENT DWORD USE32 PUBLIC 'CONST'
CONST	ENDS
;	COMDAT ??0CSliderCtrl@@QAE@XZ
_TEXT	SEGMENT PARA USE32 PUBLIC 'CODE'
_TEXT	ENDS
;	COMDAT ??_7CSliderCtrl@@6B@
CONST	SEGMENT DWORD USE32 PUBLIC 'CONST'
CONST	ENDS
;	COMDAT ??_R4CSliderCtrl@@6B@
rdata$r	SEGMENT DWORD USE32 PUBLIC 'CONST'
rdata$r	ENDS
;	COMDAT ??_R3CSliderCtrl@@8
rdata$r	SEGMENT DWORD USE32 PUBLIC 'CONST'
rdata$r	ENDS
;	COMDAT ??_R2CSliderCtrl@@8
rdata$r	SEGMENT DWORD USE32 PUBLIC 'CONST'
rdata$r	ENDS
;	COMDAT ??_GCSliderCtrl@@UAEPAXI@Z
_TEXT	SEGMENT PARA USE32 PUBLIC 'CODE'
_TEXT	ENDS
;	COMDAT ?Release@CStringData@ATL@@QAEXXZ
_TEXT	SEGMENT PARA USE32 PUBLIC 'CODE'
_TEXT	ENDS
;	COMDAT ??_7DIBINFO@@6B@
CONST	SEGMENT DWORD USE32 PUBLIC 'CONST'
CONST	ENDS
sxdata	SEGMENT DWORD USE32 'SXDATA'
sxdata	ENDS
FLAT	GROUP _DATA, CONST, _BSS
	ASSUME	CS: FLAT, DS: FLAT, SS: FLAT
endif

INCLUDELIB MSVCRT
INCLUDELIB OLDNAMES

PUBLIC	?OnEraseBkgnd@CColorSlide@@IAEHPAVCDC@@@Z	; CColorSlide::OnEraseBkgnd
PUBLIC	?OnLButtonDown@CColorSlide@@IAEXIVCPoint@@@Z	; CColorSlide::OnLButtonDown
PUBLIC	?OnLButtonUp@CColorSlide@@IAEXIVCPoint@@@Z	; CColorSlide::OnLButtonUp
PUBLIC	?OnMouseMove@CColorSlide@@IAEXIVCPoint@@@Z	; CColorSlide::OnMouseMove
PUBLIC	?_messageEntries@CColorSlide@@0QBUAFX_MSGMAP_ENTRY@@B ; CColorSlide::_messageEntries
PUBLIC	?messageMap@CColorSlide@@1UAFX_MSGMAP@@B	; CColorSlide::messageMap
EXTRN	?GetThisMessageMap@CWnd@@KGPBUAFX_MSGMAP@@XZ:NEAR ; CWnd::GetThisMessageMap
;	COMDAT ?_messageEntries@CColorSlide@@0QBUAFX_MSGMAP_ENTRY@@B
CONST	SEGMENT
?_messageEntries@CColorSlide@@0QBUAFX_MSGMAP_ENTRY@@B DD 014H ; CColorSlide::_messageEntries
	DD	00H
	DD	00H
	DD	00H
	DD	01H
	DD	FLAT:?OnEraseBkgnd@CColorSlide@@IAEHPAVCDC@@@Z
	DD	0202H
	DD	00H
	DD	00H
	DD	00H
	DD	032H
	DD	FLAT:?OnLButtonUp@CColorSlide@@IAEXIVCPoint@@@Z
	DD	0201H
	DD	00H
	DD	00H
	DD	00H
	DD	032H
	DD	FLAT:?OnLButtonDown@CColorSlide@@IAEXIVCPoint@@@Z
	DD	0200H
	DD	00H
	DD	00H
	DD	00H
	DD	032H
	DD	FLAT:?OnMouseMove@CColorSlide@@IAEXIVCPoint@@@Z
	DD	00H
	DD	00H
	DD	00H
	DD	00H
	DD	00H
	DD	00H
CONST	ENDS
;	COMDAT ?messageMap@CColorSlide@@1UAFX_MSGMAP@@B
CONST	SEGMENT
?messageMap@CColorSlide@@1UAFX_MSGMAP@@B DD FLAT:?GetThisMessageMap@CWnd@@KGPBUAFX_MSGMAP@@XZ ; CColorSlide::messageMap
	DD	FLAT:?_messageEntries@CColorSlide@@0QBUAFX_MSGMAP_ENTRY@@B
CONST	ENDS
PUBLIC	??_R1A@?0A@A@CObject@@8				; CObject::`RTTI Base Class Descriptor at (0,-1,0,0)'
PUBLIC	??_R0?AVCObject@@@8				; CObject `RTTI Type Descriptor'
PUBLIC	??_R1A@?0A@A@CWnd@@8				; CWnd::`RTTI Base Class Descriptor at (0,-1,0,0)'
PUBLIC	??_R0?AVCWnd@@@8				; CWnd `RTTI Type Descriptor'
PUBLIC	??_R1A@?0A@A@CCmdTarget@@8			; CCmdTarget::`RTTI Base Class Descriptor at (0,-1,0,0)'
PUBLIC	??_R0?AVCCmdTarget@@@8				; CCmdTarget `RTTI Type Descriptor'
PUBLIC	?Serialize@CObject@@UAEXAAVCArchive@@@Z		; CObject::Serialize
PUBLIC	?AssertValid@CObject@@UBEXXZ			; CObject::AssertValid
PUBLIC	?Dump@CObject@@UBEXAAVCDumpContext@@@Z		; CObject::Dump
PUBLIC	??0CSliderCtrl@@QAE@XZ				; CSliderCtrl::CSliderCtrl
PUBLIC	??_R4CColorSlide@@6B@				; CColorSlide::`RTTI Complete Object Locator'
PUBLIC	??_R0?AVCColorSlide@@@8				; CColorSlide `RTTI Type Descriptor'
PUBLIC	??_R3CColorSlide@@8				; CColorSlide::`RTTI Class Hierarchy Descriptor'
PUBLIC	??_R2CColorSlide@@8				; CColorSlide::`RTTI Base Class Array'
PUBLIC	??_R1A@?0A@A@CColorSlide@@8			; CColorSlide::`RTTI Base Class Descriptor at (0,-1,0,0)'
PUBLIC	??_R0?AVCSliderCtrl@@@8				; CSliderCtrl `RTTI Type Descriptor'
PUBLIC	??_R1A@?0A@A@CSliderCtrl@@8			; CSliderCtrl::`RTTI Base Class Descriptor at (0,-1,0,0)'
PUBLIC	??0CColorSlide@@QAE@XZ				; CColorSlide::CColorSlide
PUBLIC	?PreSubclassWindow@CColorSlide@@MAEXXZ		; CColorSlide::PreSubclassWindow
PUBLIC	?GetMessageMap@CColorSlide@@MBEPBUAFX_MSGMAP@@XZ ; CColorSlide::GetMessageMap
PUBLIC	?PreTranslateMessage@CColorSlide@@UAEHPAUtagMSG@@@Z ; CColorSlide::PreTranslateMessage
PUBLIC	??_7CColorSlide@@6B@				; CColorSlide::`vftable'
PUBLIC	??_GCColorSlide@@UAEPAXI@Z			; CColorSlide::`scalar deleting destructor'
PUBLIC	?DoDataExchange@CWnd@@MAEXPAVCDataExchange@@@Z	; CWnd::DoDataExchange
PUBLIC	?BeginModalState@CWnd@@UAEXXZ			; CWnd::BeginModalState
PUBLIC	?EndModalState@CWnd@@UAEXXZ			; CWnd::EndModalState
EXTRN	?CreateControlContainer@CWnd@@MAEHPAPAVCOleControlContainer@@@Z:NEAR ; CWnd::CreateControlContainer
EXTRN	?CreateControlSite@CWnd@@MAEHPAVCOleControlContainer@@PAPAVCOleControlSite@@IABU_GUID@@@Z:NEAR ; CWnd::CreateControlSite
EXTRN	?SetOccDialogInfo@CWnd@@MAEHPAU_AFX_OCC_DIALOG_INFO@@@Z:NEAR ; CWnd::SetOccDialogInfo
EXTRN	?OnToolHitTest@CWnd@@UBEHVCPoint@@PAUtagTOOLINFOA@@@Z:NEAR ; CWnd::OnToolHitTest
EXTRN	?GetScrollBarCtrl@CWnd@@UBEPAVCScrollBar@@H@Z:NEAR ; CWnd::GetScrollBarCtrl
EXTRN	?WinHelpA@CWnd@@UAEXKI@Z:NEAR			; CWnd::WinHelpA
EXTRN	?HtmlHelpA@CWnd@@UAEXKI@Z:NEAR			; CWnd::HtmlHelpA
EXTRN	?WinHelpInternal@CWnd@@UAEXKI@Z:NEAR		; CWnd::WinHelpInternal
EXTRN	?ContinueModal@CWnd@@UAEHXZ:NEAR		; CWnd::ContinueModal
EXTRN	?EndModalLoop@CWnd@@UAEXH@Z:NEAR		; CWnd::EndModalLoop
EXTRN	?GetInterfaceMap@CWnd@@MBEPBUAFX_INTERFACEMAP@@XZ:NEAR ; CWnd::GetInterfaceMap
EXTRN	?EnsureStdObj@CWnd@@UAEJXZ:NEAR			; CWnd::EnsureStdObj
EXTRN	?get_accParent@CWnd@@UAEJPAPAUIDispatch@@@Z:NEAR ; CWnd::get_accParent
EXTRN	?get_accChildCount@CWnd@@UAEJPAJ@Z:NEAR		; CWnd::get_accChildCount
EXTRN	?OnCmdMsg@CCmdTarget@@UAEHIHPAXPAUAFX_CMDHANDLERINFO@@@Z:NEAR ; CCmdTarget::OnCmdMsg
EXTRN	?get_accChild@CWnd@@UAEJUtagVARIANT@@PAPAUIDispatch@@@Z:NEAR ; CWnd::get_accChild
EXTRN	?IsInvokeAllowed@CCmdTarget@@UAEHJ@Z:NEAR	; CCmdTarget::IsInvokeAllowed
EXTRN	?get_accName@CWnd@@UAEJUtagVARIANT@@PAPA_W@Z:NEAR ; CWnd::get_accName
EXTRN	?get_accValue@CWnd@@UAEJUtagVARIANT@@PAPA_W@Z:NEAR ; CWnd::get_accValue
EXTRN	?get_accDescription@CWnd@@UAEJUtagVARIANT@@PAPA_W@Z:NEAR ; CWnd::get_accDescription
EXTRN	?GetDispatchIID@CCmdTarget@@UAEHPAU_GUID@@@Z:NEAR ; CCmdTarget::GetDispatchIID
EXTRN	?GetTypeInfoCount@CCmdTarget@@UAEIXZ:NEAR	; CCmdTarget::GetTypeInfoCount
EXTRN	?GetTypeLibCache@CCmdTarget@@UAEPAVCTypeLibCache@@XZ:NEAR ; CCmdTarget::GetTypeLibCache
EXTRN	?get_accRole@CWnd@@UAEJUtagVARIANT@@PAU2@@Z:NEAR ; CWnd::get_accRole
EXTRN	?GetRuntimeClass@CSliderCtrl@@UBEPAUCRuntimeClass@@XZ:NEAR ; CSliderCtrl::GetRuntimeClass
EXTRN	?GetTypeLib@CCmdTarget@@UAEJKPAPAUITypeLib@@@Z:NEAR ; CCmdTarget::GetTypeLib
EXTRN	?get_accState@CWnd@@UAEJUtagVARIANT@@PAU2@@Z:NEAR ; CWnd::get_accState
EXTRN	?get_accHelp@CWnd@@UAEJUtagVARIANT@@PAPA_W@Z:NEAR ; CWnd::get_accHelp
EXTRN	?Create@CSliderCtrl@@UAEHKABUtagRECT@@PAVCWnd@@I@Z:NEAR ; CSliderCtrl::Create
EXTRN	?get_accHelpTopic@CWnd@@UAEJPAPA_WUtagVARIANT@@PAJ@Z:NEAR ; CWnd::get_accHelpTopic
EXTRN	?get_accKeyboardShortcut@CWnd@@UAEJUtagVARIANT@@PAPA_W@Z:NEAR ; CWnd::get_accKeyboardShortcut
EXTRN	?CreateEx@CSliderCtrl@@UAEHKKABUtagRECT@@PAVCWnd@@I@Z:NEAR ; CSliderCtrl::CreateEx
EXTRN	?get_accFocus@CWnd@@UAEJPAUtagVARIANT@@@Z:NEAR	; CWnd::get_accFocus
EXTRN	?get_accSelection@CWnd@@UAEJPAUtagVARIANT@@@Z:NEAR ; CWnd::get_accSelection
EXTRN	?get_accDefaultAction@CWnd@@UAEJUtagVARIANT@@PAPA_W@Z:NEAR ; CWnd::get_accDefaultAction
EXTRN	?GetCommandMap@CCmdTarget@@MBEPBUAFX_OLECMDMAP@@XZ:NEAR ; CCmdTarget::GetCommandMap
EXTRN	?accSelect@CWnd@@UAEJJUtagVARIANT@@@Z:NEAR	; CWnd::accSelect
EXTRN	?accLocation@CWnd@@UAEJPAJ000UtagVARIANT@@@Z:NEAR ; CWnd::accLocation
EXTRN	?GetDispatchMap@CCmdTarget@@MBEPBUAFX_DISPMAP@@XZ:NEAR ; CCmdTarget::GetDispatchMap
EXTRN	?accNavigate@CWnd@@UAEJJUtagVARIANT@@PAU2@@Z:NEAR ; CWnd::accNavigate
EXTRN	?accHitTest@CWnd@@UAEJJJPAUtagVARIANT@@@Z:NEAR	; CWnd::accHitTest
EXTRN	?GetConnectionMap@CCmdTarget@@MBEPBUAFX_CONNECTIONMAP@@XZ:NEAR ; CCmdTarget::GetConnectionMap
EXTRN	?accDoDefaultAction@CWnd@@UAEJUtagVARIANT@@@Z:NEAR ; CWnd::accDoDefaultAction
EXTRN	?put_accName@CWnd@@UAEJUtagVARIANT@@PA_W@Z:NEAR	; CWnd::put_accName
EXTRN	?put_accValue@CWnd@@UAEJUtagVARIANT@@PA_W@Z:NEAR ; CWnd::put_accValue
EXTRN	?SetProxy@CWnd@@UAEJPAUIAccessibleProxy@@@Z:NEAR ; CWnd::SetProxy
EXTRN	?CreateAccessibleProxy@CWnd@@UAEJIJPAJ@Z:NEAR	; CWnd::CreateAccessibleProxy
EXTRN	?GetEventSinkMap@CCmdTarget@@MBEPBUAFX_EVENTSINKMAP@@XZ:NEAR ; CCmdTarget::GetEventSinkMap
EXTRN	?OnCreateAggregates@CCmdTarget@@UAEHXZ:NEAR	; CCmdTarget::OnCreateAggregates
EXTRN	?OnCommand@CWnd@@MAEHIJ@Z:NEAR			; CWnd::OnCommand
EXTRN	?GetInterfaceHook@CCmdTarget@@UAEPAUIUnknown@@PBX@Z:NEAR ; CCmdTarget::GetInterfaceHook
EXTRN	?OnNotify@CWnd@@MAEHIJPAJ@Z:NEAR		; CWnd::OnNotify
EXTRN	?GetExtraConnectionPoints@CCmdTarget@@MAEHPAVCPtrArray@@@Z:NEAR ; CCmdTarget::GetExtraConnectionPoints
EXTRN	?GetConnectionHook@CCmdTarget@@MAEPAUIConnectionPoint@@ABU_GUID@@@Z:NEAR ; CCmdTarget::GetConnectionHook
EXTRN	?Create@CWnd@@UAEHPBD0KABUtagRECT@@PAV1@IPAUCCreateContext@@@Z:NEAR ; CWnd::Create
EXTRN	??_ECColorSlide@@UAEPAXI@Z:NEAR			; CColorSlide::`vector deleting destructor'
EXTRN	?CreateEx@CWnd@@UAEHKPBD0KHHHHPAUHWND__@@PAUHMENU__@@PAX@Z:NEAR ; CWnd::CreateEx
EXTRN	?CreateEx@CWnd@@UAEHKPBD0KABUtagRECT@@PAV1@IPAX@Z:NEAR ; CWnd::CreateEx
EXTRN	?DestroyWindow@CWnd@@UAEHXZ:NEAR		; CWnd::DestroyWindow
EXTRN	?PreCreateWindow@CWnd@@UAEHAAUtagCREATESTRUCTA@@@Z:NEAR ; CWnd::PreCreateWindow
EXTRN	?CalcWindowRect@CWnd@@UAEXPAUtagRECT@@I@Z:NEAR	; CWnd::CalcWindowRect
EXTRN	?GetSuperWndProcAddr@CWnd@@MAEPAP6GJPAUHWND__@@IIJ@ZXZ:NEAR ; CWnd::GetSuperWndProcAddr
EXTRN	??_7type_info@@6B@:QWORD			; type_info::`vftable'
EXTRN	?OnAmbientProperty@CWnd@@UAEHPAVCOleControlSite@@JPAUtagVARIANT@@@Z:NEAR ; CWnd::OnAmbientProperty
EXTRN	?WindowProc@CWnd@@MAEJIIJ@Z:NEAR		; CWnd::WindowProc
EXTRN	?OnWndMsg@CWnd@@MAEHIIJPAJ@Z:NEAR		; CWnd::OnWndMsg
EXTRN	?DefWindowProcA@CWnd@@MAEJIIJ@Z:NEAR		; CWnd::DefWindowProcA
EXTRN	?PostNcDestroy@CWnd@@MAEXXZ:NEAR		; CWnd::PostNcDestroy
EXTRN	?OnChildNotify@CWnd@@MAEHIIJPAJ@Z:NEAR		; CWnd::OnChildNotify
EXTRN	?CheckAutoCenter@CWnd@@UAEHXZ:NEAR		; CWnd::CheckAutoCenter
EXTRN	?IsFrameWnd@CWnd@@UBEHXZ:NEAR			; CWnd::IsFrameWnd
EXTRN	?OnFinalRelease@CWnd@@UAEXXZ:NEAR		; CWnd::OnFinalRelease
;	COMDAT ??_7CColorSlide@@6B@
; File d:\boxgit\playbox\playbox\dev\prj\playbox\src\layoutmgr\changecolor\colorslide.cpp
CONST	SEGMENT
??_7CColorSlide@@6B@ DD FLAT:??_R4CColorSlide@@6B@	; CColorSlide::`vftable'
	DD	FLAT:?GetRuntimeClass@CSliderCtrl@@UBEPAUCRuntimeClass@@XZ
	DD	FLAT:??_ECColorSlide@@UAEPAXI@Z
	DD	FLAT:?Serialize@CObject@@UAEXAAVCArchive@@@Z
	DD	FLAT:?AssertValid@CObject@@UBEXXZ
	DD	FLAT:?Dump@CObject@@UBEXAAVCDumpContext@@@Z
	DD	FLAT:?OnCmdMsg@CCmdTarget@@UAEHIHPAXPAUAFX_CMDHANDLERINFO@@@Z
	DD	FLAT:?OnFinalRelease@CWnd@@UAEXXZ
	DD	FLAT:?IsInvokeAllowed@CCmdTarget@@UAEHJ@Z
	DD	FLAT:?GetDispatchIID@CCmdTarget@@UAEHPAU_GUID@@@Z
	DD	FLAT:?GetTypeInfoCount@CCmdTarget@@UAEIXZ
	DD	FLAT:?GetTypeLibCache@CCmdTarget@@UAEPAVCTypeLibCache@@XZ
	DD	FLAT:?GetTypeLib@CCmdTarget@@UAEJKPAPAUITypeLib@@@Z
	DD	FLAT:?GetMessageMap@CColorSlide@@MBEPBUAFX_MSGMAP@@XZ
	DD	FLAT:?GetCommandMap@CCmdTarget@@MBEPBUAFX_OLECMDMAP@@XZ
	DD	FLAT:?GetDispatchMap@CCmdTarget@@MBEPBUAFX_DISPMAP@@XZ
	DD	FLAT:?GetConnectionMap@CCmdTarget@@MBEPBUAFX_CONNECTIONMAP@@XZ
	DD	FLAT:?GetInterfaceMap@CWnd@@MBEPBUAFX_INTERFACEMAP@@XZ
	DD	FLAT:?GetEventSinkMap@CCmdTarget@@MBEPBUAFX_EVENTSINKMAP@@XZ
	DD	FLAT:?OnCreateAggregates@CCmdTarget@@UAEHXZ
	DD	FLAT:?GetInterfaceHook@CCmdTarget@@UAEPAUIUnknown@@PBX@Z
	DD	FLAT:?GetExtraConnectionPoints@CCmdTarget@@MAEHPAVCPtrArray@@@Z
	DD	FLAT:?GetConnectionHook@CCmdTarget@@MAEPAUIConnectionPoint@@ABU_GUID@@@Z
	DD	FLAT:?PreSubclassWindow@CColorSlide@@MAEXXZ
	DD	FLAT:?Create@CWnd@@UAEHPBD0KABUtagRECT@@PAV1@IPAUCCreateContext@@@Z
	DD	FLAT:?CreateEx@CWnd@@UAEHKPBD0KABUtagRECT@@PAV1@IPAX@Z
	DD	FLAT:?CreateEx@CWnd@@UAEHKPBD0KHHHHPAUHWND__@@PAUHMENU__@@PAX@Z
	DD	FLAT:?DestroyWindow@CWnd@@UAEHXZ
	DD	FLAT:?PreCreateWindow@CWnd@@UAEHAAUtagCREATESTRUCTA@@@Z
	DD	FLAT:?CalcWindowRect@CWnd@@UAEXPAUtagRECT@@I@Z
	DD	FLAT:?OnToolHitTest@CWnd@@UBEHVCPoint@@PAUtagTOOLINFOA@@@Z
	DD	FLAT:?GetScrollBarCtrl@CWnd@@UBEPAVCScrollBar@@H@Z
	DD	FLAT:?WinHelpA@CWnd@@UAEXKI@Z
	DD	FLAT:?HtmlHelpA@CWnd@@UAEXKI@Z
	DD	FLAT:?WinHelpInternal@CWnd@@UAEXKI@Z
	DD	FLAT:?ContinueModal@CWnd@@UAEHXZ
	DD	FLAT:?EndModalLoop@CWnd@@UAEXH@Z
	DD	FLAT:?EnsureStdObj@CWnd@@UAEJXZ
	DD	FLAT:?get_accParent@CWnd@@UAEJPAPAUIDispatch@@@Z
	DD	FLAT:?get_accChildCount@CWnd@@UAEJPAJ@Z
	DD	FLAT:?get_accChild@CWnd@@UAEJUtagVARIANT@@PAPAUIDispatch@@@Z
	DD	FLAT:?get_accName@CWnd@@UAEJUtagVARIANT@@PAPA_W@Z
	DD	FLAT:?get_accValue@CWnd@@UAEJUtagVARIANT@@PAPA_W@Z
	DD	FLAT:?get_accDescription@CWnd@@UAEJUtagVARIANT@@PAPA_W@Z
	DD	FLAT:?get_accRole@CWnd@@UAEJUtagVARIANT@@PAU2@@Z
	DD	FLAT:?get_accState@CWnd@@UAEJUtagVARIANT@@PAU2@@Z
	DD	FLAT:?get_accHelp@CWnd@@UAEJUtagVARIANT@@PAPA_W@Z
	DD	FLAT:?get_accHelpTopic@CWnd@@UAEJPAPA_WUtagVARIANT@@PAJ@Z
	DD	FLAT:?get_accKeyboardShortcut@CWnd@@UAEJUtagVARIANT@@PAPA_W@Z
	DD	FLAT:?get_accFocus@CWnd@@UAEJPAUtagVARIANT@@@Z
	DD	FLAT:?get_accSelection@CWnd@@UAEJPAUtagVARIANT@@@Z
	DD	FLAT:?get_accDefaultAction@CWnd@@UAEJUtagVARIANT@@PAPA_W@Z
	DD	FLAT:?accSelect@CWnd@@UAEJJUtagVARIANT@@@Z
	DD	FLAT:?accLocation@CWnd@@UAEJPAJ000UtagVARIANT@@@Z
	DD	FLAT:?accNavigate@CWnd@@UAEJJUtagVARIANT@@PAU2@@Z
	DD	FLAT:?accHitTest@CWnd@@UAEJJJPAUtagVARIANT@@@Z
	DD	FLAT:?accDoDefaultAction@CWnd@@UAEJUtagVARIANT@@@Z
	DD	FLAT:?put_accName@CWnd@@UAEJUtagVARIANT@@PA_W@Z
	DD	FLAT:?put_accValue@CWnd@@UAEJUtagVARIANT@@PA_W@Z
	DD	FLAT:?SetProxy@CWnd@@UAEJPAUIAccessibleProxy@@@Z
	DD	FLAT:?CreateAccessibleProxy@CWnd@@UAEJIJPAJ@Z
	DD	FLAT:?OnCommand@CWnd@@MAEHIJ@Z
	DD	FLAT:?OnNotify@CWnd@@MAEHIJPAJ@Z
	DD	FLAT:?GetSuperWndProcAddr@CWnd@@MAEPAP6GJPAUHWND__@@IIJ@ZXZ
	DD	FLAT:?DoDataExchange@CWnd@@MAEXPAVCDataExchange@@@Z
	DD	FLAT:?BeginModalState@CWnd@@UAEXXZ
	DD	FLAT:?EndModalState@CWnd@@UAEXXZ
	DD	FLAT:?PreTranslateMessage@CColorSlide@@UAEHPAUtagMSG@@@Z
	DD	FLAT:?OnAmbientProperty@CWnd@@UAEHPAVCOleControlSite@@JPAUtagVARIANT@@@Z
	DD	FLAT:?WindowProc@CWnd@@MAEJIIJ@Z
	DD	FLAT:?OnWndMsg@CWnd@@MAEHIIJPAJ@Z
	DD	FLAT:?DefWindowProcA@CWnd@@MAEJIIJ@Z
	DD	FLAT:?PostNcDestroy@CWnd@@MAEXXZ
	DD	FLAT:?OnChildNotify@CWnd@@MAEHIIJPAJ@Z
	DD	FLAT:?CheckAutoCenter@CWnd@@UAEHXZ
	DD	FLAT:?IsFrameWnd@CWnd@@UBEHXZ
	DD	FLAT:?CreateControlContainer@CWnd@@MAEHPAPAVCOleControlContainer@@@Z
	DD	FLAT:?CreateControlSite@CWnd@@MAEHPAVCOleControlContainer@@PAPAVCOleControlSite@@IABU_GUID@@@Z
	DD	FLAT:?SetOccDialogInfo@CWnd@@MAEHPAU_AFX_OCC_DIALOG_INFO@@@Z
	DD	FLAT:?Create@CSliderCtrl@@UAEHKABUtagRECT@@PAVCWnd@@I@Z
	DD	FLAT:?CreateEx@CSliderCtrl@@UAEHKKABUtagRECT@@PAVCWnd@@I@Z
CONST	ENDS
;	COMDAT ??_R4CColorSlide@@6B@
rdata$r	SEGMENT
??_R4CColorSlide@@6B@ DD 00H				; CColorSlide::`RTTI Complete Object Locator'
	DD	00H
	DD	00H
	DD	FLAT:??_R0?AVCColorSlide@@@8
	DD	FLAT:??_R3CColorSlide@@8
rdata$r	ENDS
;	COMDAT ??_R0?AVCColorSlide@@@8
_DATA	SEGMENT
??_R0?AVCColorSlide@@@8 DD FLAT:??_7type_info@@6B@	; CColorSlide `RTTI Type Descriptor'
	DD	00H
	DB	'.?AVCColorSlide@@', 00H
_DATA	ENDS
;	COMDAT ??_R3CColorSlide@@8
rdata$r	SEGMENT
??_R3CColorSlide@@8 DD 00H				; CColorSlide::`RTTI Class Hierarchy Descriptor'
	DD	00H
	DD	05H
	DD	FLAT:??_R2CColorSlide@@8
rdata$r	ENDS
;	COMDAT ??_R2CColorSlide@@8
rdata$r	SEGMENT
??_R2CColorSlide@@8 DD FLAT:??_R1A@?0A@A@CColorSlide@@8	; CColorSlide::`RTTI Base Class Array'
	DD	FLAT:??_R1A@?0A@A@CSliderCtrl@@8
	DD	FLAT:??_R1A@?0A@A@CWnd@@8
	DD	FLAT:??_R1A@?0A@A@CCmdTarget@@8
	DD	FLAT:??_R1A@?0A@A@CObject@@8
rdata$r	ENDS
;	COMDAT ??_R1A@?0A@A@CColorSlide@@8
rdata$r	SEGMENT
??_R1A@?0A@A@CColorSlide@@8 DD FLAT:??_R0?AVCColorSlide@@@8 ; CColorSlide::`RTTI Base Class Descriptor at (0,-1,0,0)'
	DD	04H
	DD	00H
	DD	0ffffffffH
	DD	00H
	DD	00H
rdata$r	ENDS
;	COMDAT ??_R1A@?0A@A@CSliderCtrl@@8
rdata$r	SEGMENT
??_R1A@?0A@A@CSliderCtrl@@8 DD FLAT:??_R0?AVCSliderCtrl@@@8 ; CSliderCtrl::`RTTI Base Class Descriptor at (0,-1,0,0)'
	DD	03H
	DD	00H
	DD	0ffffffffH
	DD	00H
	DD	00H
rdata$r	ENDS
;	COMDAT ??_R0?AVCSliderCtrl@@@8
_DATA	SEGMENT
??_R0?AVCSliderCtrl@@@8 DD FLAT:??_7type_info@@6B@	; CSliderCtrl `RTTI Type Descriptor'
	DD	00H
	DB	'.?AVCSliderCtrl@@', 00H
_DATA	ENDS
;	COMDAT ??_R1A@?0A@A@CWnd@@8
rdata$r	SEGMENT
??_R1A@?0A@A@CWnd@@8 DD FLAT:??_R0?AVCWnd@@@8		; CWnd::`RTTI Base Class Descriptor at (0,-1,0,0)'
	DD	02H
	DD	00H
	DD	0ffffffffH
	DD	00H
	DD	00H
rdata$r	ENDS
;	COMDAT ??_R0?AVCWnd@@@8
_DATA	SEGMENT
??_R0?AVCWnd@@@8 DD FLAT:??_7type_info@@6B@		; CWnd `RTTI Type Descriptor'
	DD	00H
	DB	'.?AVCWnd@@', 00H
_DATA	ENDS
;	COMDAT ??_R1A@?0A@A@CCmdTarget@@8
rdata$r	SEGMENT
??_R1A@?0A@A@CCmdTarget@@8 DD FLAT:??_R0?AVCCmdTarget@@@8 ; CCmdTarget::`RTTI Base Class Descriptor at (0,-1,0,0)'
	DD	01H
	DD	00H
	DD	0ffffffffH
	DD	00H
	DD	00H
rdata$r	ENDS
;	COMDAT ??_R0?AVCCmdTarget@@@8
_DATA	SEGMENT
??_R0?AVCCmdTarget@@@8 DD FLAT:??_7type_info@@6B@	; CCmdTarget `RTTI Type Descriptor'
	DD	00H
	DB	'.?AVCCmdTarget@@', 00H
_DATA	ENDS
;	COMDAT ??_R1A@?0A@A@CObject@@8
rdata$r	SEGMENT
??_R1A@?0A@A@CObject@@8 DD FLAT:??_R0?AVCObject@@@8	; CObject::`RTTI Base Class Descriptor at (0,-1,0,0)'
	DD	00H
	DD	00H
	DD	0ffffffffH
	DD	00H
	DD	00H
rdata$r	ENDS
;	COMDAT ??_R0?AVCObject@@@8
_DATA	SEGMENT
??_R0?AVCObject@@@8 DD FLAT:??_7type_info@@6B@		; CObject `RTTI Type Descriptor'
	DD	00H
	DB	'.?AVCObject@@', 00H
; Function compile flags: /Odt
_DATA	ENDS
_TEXT	SEGMENT
_this$ = -4						; size = 4
??0CColorSlide@@QAE@XZ PROC NEAR			; CColorSlide::CColorSlide
; _this$ = ecx

; 17   : {

  00000	55		 push	 ebp
  00001	8b ec		 mov	 ebp, esp
  00003	51		 push	 ecx
  00004	89 4d fc	 mov	 DWORD PTR _this$[ebp], ecx
  00007	8b 4d fc	 mov	 ecx, DWORD PTR _this$[ebp]
  0000a	e8 00 00 00 00	 call	 ??0CSliderCtrl@@QAE@XZ	; CSliderCtrl::CSliderCtrl
  0000f	8b 45 fc	 mov	 eax, DWORD PTR _this$[ebp]
  00012	c7 00 00 00 00
	00		 mov	 DWORD PTR [eax], OFFSET FLAT:??_7CColorSlide@@6B@

; 18   : 	FPosition = 0;

  00018	8b 4d fc	 mov	 ecx, DWORD PTR _this$[ebp]
  0001b	c7 41 54 00 00
	00 00		 mov	 DWORD PTR [ecx+84], 0

; 19   : 	FMaxValue = 100;

  00022	8b 55 fc	 mov	 edx, DWORD PTR _this$[ebp]
  00025	c7 42 58 64 00
	00 00		 mov	 DWORD PTR [edx+88], 100	; 00000064H

; 20   : 	FMinValue = 0;

  0002c	8b 45 fc	 mov	 eax, DWORD PTR _this$[ebp]
  0002f	c7 40 5c 00 00
	00 00		 mov	 DWORD PTR [eax+92], 0

; 21   : 
; 22   : 	m_iStatePosX=0;

  00036	8b 4d fc	 mov	 ecx, DWORD PTR _this$[ebp]
  00039	c7 81 84 00 00
	00 00 00 00 00	 mov	 DWORD PTR [ecx+132], 0

; 23   : 	m_nWidth = 0;

  00043	8b 55 fc	 mov	 edx, DWORD PTR _this$[ebp]
  00046	c7 42 60 00 00
	00 00		 mov	 DWORD PTR [edx+96], 0

; 24   : 	m_nHeight = 0;

  0004d	8b 45 fc	 mov	 eax, DWORD PTR _this$[ebp]
  00050	c7 40 64 00 00
	00 00		 mov	 DWORD PTR [eax+100], 0

; 25   : 	m_bButtonDown = FALSE;

  00057	8b 4d fc	 mov	 ecx, DWORD PTR _this$[ebp]
  0005a	c7 41 78 00 00
	00 00		 mov	 DWORD PTR [ecx+120], 0

; 26   : 	mWndProc = NULL;

  00061	8b 55 fc	 mov	 edx, DWORD PTR _this$[ebp]
  00064	c7 42 7c 00 00
	00 00		 mov	 DWORD PTR [edx+124], 0

; 27   : 
; 28   : 	m_SlideType = HUE_SLIDE;

  0006b	8b 45 fc	 mov	 eax, DWORD PTR _this$[ebp]
  0006e	c7 80 80 00 00
	00 02 00 00 00	 mov	 DWORD PTR [eax+128], 2

; 29   : 
; 30   : 	m_colBegain = 0;

  00078	8b 4d fc	 mov	 ecx, DWORD PTR _this$[ebp]
  0007b	c7 41 6c 00 00
	00 00		 mov	 DWORD PTR [ecx+108], 0

; 31   : 	m_colEnd    = 0;

  00082	8b 55 fc	 mov	 edx, DWORD PTR _this$[ebp]
  00085	c7 42 70 00 00
	00 00		 mov	 DWORD PTR [edx+112], 0

; 32   : 	m_nHue      = 0;

  0008c	8b 45 fc	 mov	 eax, DWORD PTR _this$[ebp]
  0008f	c7 40 74 00 00
	00 00		 mov	 DWORD PTR [eax+116], 0

; 33   : }

  00096	8b 45 fc	 mov	 eax, DWORD PTR _this$[ebp]
  00099	8b e5		 mov	 esp, ebp
  0009b	5d		 pop	 ebp
  0009c	c3		 ret	 0
??0CColorSlide@@QAE@XZ ENDP				; CColorSlide::CColorSlide
_TEXT	ENDS
PUBLIC	??3CObject@@SGXPAX@Z				; CObject::operator delete
PUBLIC	??1CColorSlide@@UAE@XZ				; CColorSlide::~CColorSlide
; Function compile flags: /Odt
;	COMDAT ??_GCColorSlide@@UAEPAXI@Z
_TEXT	SEGMENT
_this$ = -4						; size = 4
___flags$ = 8						; size = 4
??_GCColorSlide@@UAEPAXI@Z PROC NEAR			; CColorSlide::`scalar deleting destructor', COMDAT
; _this$ = ecx
  00000	55		 push	 ebp
  00001	8b ec		 mov	 ebp, esp
  00003	51		 push	 ecx
  00004	89 4d fc	 mov	 DWORD PTR _this$[ebp], ecx
  00007	8b 4d fc	 mov	 ecx, DWORD PTR _this$[ebp]
  0000a	e8 00 00 00 00	 call	 ??1CColorSlide@@UAE@XZ	; CColorSlide::~CColorSlide
  0000f	8b 45 08	 mov	 eax, DWORD PTR ___flags$[ebp]
  00012	83 e0 01	 and	 eax, 1
  00015	74 09		 je	 SHORT $L197845
  00017	8b 4d fc	 mov	 ecx, DWORD PTR _this$[ebp]
  0001a	51		 push	 ecx
  0001b	e8 00 00 00 00	 call	 ??3CObject@@SGXPAX@Z	; CObject::operator delete
$L197845:
  00020	8b 45 fc	 mov	 eax, DWORD PTR _this$[ebp]
  00023	8b e5		 mov	 esp, ebp
  00025	5d		 pop	 ebp
  00026	c2 04 00	 ret	 4
??_GCColorSlide@@UAEPAXI@Z ENDP				; CColorSlide::`scalar deleting destructor'
_TEXT	ENDS
EXTRN	??1CSliderCtrl@@UAE@XZ:NEAR			; CSliderCtrl::~CSliderCtrl
; Function compile flags: /Odt
_TEXT	SEGMENT
_this$ = -4						; size = 4
??1CColorSlide@@UAE@XZ PROC NEAR			; CColorSlide::~CColorSlide
; _this$ = ecx

; 36   : {

  000a0	55		 push	 ebp
  000a1	8b ec		 mov	 ebp, esp
  000a3	51		 push	 ecx
  000a4	89 4d fc	 mov	 DWORD PTR _this$[ebp], ecx
  000a7	8b 45 fc	 mov	 eax, DWORD PTR _this$[ebp]
  000aa	c7 00 00 00 00
	00		 mov	 DWORD PTR [eax], OFFSET FLAT:??_7CColorSlide@@6B@

; 37   : }

  000b0	8b 4d fc	 mov	 ecx, DWORD PTR _this$[ebp]
  000b3	e8 00 00 00 00	 call	 ??1CSliderCtrl@@UAE@XZ	; CSliderCtrl::~CSliderCtrl
  000b8	8b e5		 mov	 esp, ebp
  000ba	5d		 pop	 ebp
  000bb	c3		 ret	 0
??1CColorSlide@@UAE@XZ ENDP				; CColorSlide::~CColorSlide
_TEXT	ENDS
PUBLIC	?GetThisMessageMap@CColorSlide@@KGPBUAFX_MSGMAP@@XZ ; CColorSlide::GetThisMessageMap
; Function compile flags: /Odt
_TEXT	SEGMENT
?GetThisMessageMap@CColorSlide@@KGPBUAFX_MSGMAP@@XZ PROC NEAR ; CColorSlide::GetThisMessageMap

; 39   : BEGIN_MESSAGE_MAP(CColorSlide, CWnd)

  000c0	55		 push	 ebp
  000c1	8b ec		 mov	 ebp, esp
  000c3	b8 00 00 00 00	 mov	 eax, OFFSET FLAT:?messageMap@CColorSlide@@1UAFX_MSGMAP@@B ; CColorSlide::messageMap
  000c8	5d		 pop	 ebp
  000c9	c3		 ret	 0
?GetThisMessageMap@CColorSlide@@KGPBUAFX_MSGMAP@@XZ ENDP ; CColorSlide::GetThisMessageMap
; Function compile flags: /Odt
_this$ = -4						; size = 4
?GetMessageMap@CColorSlide@@MBEPBUAFX_MSGMAP@@XZ PROC NEAR ; CColorSlide::GetMessageMap
; _this$ = ecx

; 39   : BEGIN_MESSAGE_MAP(CColorSlide, CWnd)

  000d0	55		 push	 ebp
  000d1	8b ec		 mov	 ebp, esp
  000d3	51		 push	 ecx
  000d4	89 4d fc	 mov	 DWORD PTR _this$[ebp], ecx
  000d7	b8 00 00 00 00	 mov	 eax, OFFSET FLAT:?messageMap@CColorSlide@@1UAFX_MSGMAP@@B ; CColorSlide::messageMap
  000dc	8b e5		 mov	 esp, ebp
  000de	5d		 pop	 ebp
  000df	c3		 ret	 0
?GetMessageMap@CColorSlide@@MBEPBUAFX_MSGMAP@@XZ ENDP	; CColorSlide::GetMessageMap
; Function compile flags: /Odt
_this$ = -4						; size = 4
_pDC$ = 8						; size = 4
?OnEraseBkgnd@CColorSlide@@IAEHPAVCDC@@@Z PROC NEAR	; CColorSlide::OnEraseBkgnd
; _this$ = ecx

; 50   : {

  000e0	55		 push	 ebp
  000e1	8b ec		 mov	 ebp, esp
  000e3	51		 push	 ecx
  000e4	89 4d fc	 mov	 DWORD PTR _this$[ebp], ecx

; 51   : 	return TRUE;

  000e7	b8 01 00 00 00	 mov	 eax, 1

; 52   : }

  000ec	8b e5		 mov	 esp, ebp
  000ee	5d		 pop	 ebp
  000ef	c2 04 00	 ret	 4
?OnEraseBkgnd@CColorSlide@@IAEHPAVCDC@@@Z ENDP		; CColorSlide::OnEraseBkgnd
_TEXT	ENDS
PUBLIC	?GetSafeHwnd@CWnd@@QBEPAUHWND__@@XZ		; CWnd::GetSafeHwnd
PUBLIC	?SelfProc@CColorSlide@@KGJPAUHWND__@@IIJ@Z	; CColorSlide::SelfProc
EXTRN	__imp__SetWindowLongA@12:NEAR
EXTRN	?PreSubclassWindow@CWnd@@UAEXXZ:NEAR		; CWnd::PreSubclassWindow
; Function compile flags: /Odt
_TEXT	SEGMENT
_this$ = -4						; size = 4
?PreSubclassWindow@CColorSlide@@MAEXXZ PROC NEAR	; CColorSlide::PreSubclassWindow
; _this$ = ecx

; 58   : {

  00100	55		 push	 ebp
  00101	8b ec		 mov	 ebp, esp
  00103	51		 push	 ecx
  00104	89 4d fc	 mov	 DWORD PTR _this$[ebp], ecx

; 59   : 	/*m_ctlTips.Create(this);
; 60   : 	m_ctlTips.DelTool(this);
; 61   : 	m_ctlTips.AddTool(this);
; 62   : 	m_ctlTips.SetDelayTime(250);*/
; 63   : 
; 64   : 	mWndProc = (WNDPROC)SetWindowLong(this->GetSafeHwnd(), GWL_WNDPROC, (LONG)SelfProc);

  00107	68 00 00 00 00	 push	 OFFSET FLAT:?SelfProc@CColorSlide@@KGJPAUHWND__@@IIJ@Z ; CColorSlide::SelfProc
  0010c	6a fc		 push	 -4			; fffffffcH
  0010e	8b 4d fc	 mov	 ecx, DWORD PTR _this$[ebp]
  00111	e8 00 00 00 00	 call	 ?GetSafeHwnd@CWnd@@QBEPAUHWND__@@XZ ; CWnd::GetSafeHwnd
  00116	50		 push	 eax
  00117	ff 15 00 00 00
	00		 call	 DWORD PTR __imp__SetWindowLongA@12
  0011d	8b 4d fc	 mov	 ecx, DWORD PTR _this$[ebp]
  00120	89 41 7c	 mov	 DWORD PTR [ecx+124], eax

; 65   : 	CWnd::PreSubclassWindow();

  00123	8b 4d fc	 mov	 ecx, DWORD PTR _this$[ebp]
  00126	e8 00 00 00 00	 call	 ?PreSubclassWindow@CWnd@@UAEXXZ ; CWnd::PreSubclassWindow

; 66   : }

  0012b	8b e5		 mov	 esp, ebp
  0012d	5d		 pop	 ebp
  0012e	c3		 ret	 0
?PreSubclassWindow@CColorSlide@@MAEXXZ ENDP		; CColorSlide::PreSubclassWindow
_TEXT	ENDS
PUBLIC	?SetPos@CSliderCtrl@@QAEXH@Z			; CSliderCtrl::SetPos
PUBLIC	?SaveSize@CColorSlide@@AAEXXZ			; CColorSlide::SaveSize
PUBLIC	?DynamicStat@CColorSlide@@IAEXW4ENUM_SLIDERSTATE@@@Z ; CColorSlide::DynamicStat
EXTRN	__imp__DefWindowProcA@16:NEAR
EXTRN	__imp__CallWindowProcA@20:NEAR
EXTRN	__imp__IsWindow@4:NEAR
EXTRN	?FromHandle@CWnd@@SGPAV1@PAUHWND__@@@Z:NEAR	; CWnd::FromHandle
; Function compile flags: /Odt
_TEXT	SEGMENT
tv72 = -12						; size = 4
_lpThis$ = -8						; size = 4
_lReturn$ = -4						; size = 4
_hWnd$ = 8						; size = 4
_uMsg$ = 12						; size = 4
_wParam$ = 16						; size = 4
_lParam$ = 20						; size = 4
?SelfProc@CColorSlide@@KGJPAUHWND__@@IIJ@Z PROC NEAR	; CColorSlide::SelfProc

; 69   : {

  00130	55		 push	 ebp
  00131	8b ec		 mov	 ebp, esp
  00133	83 ec 0c	 sub	 esp, 12			; 0000000cH

; 70   : 	LONG lReturn = 0;

  00136	c7 45 fc 00 00
	00 00		 mov	 DWORD PTR _lReturn$[ebp], 0

; 71   : 	CColorSlide* lpThis = NULL;

  0013d	c7 45 f8 00 00
	00 00		 mov	 DWORD PTR _lpThis$[ebp], 0

; 72   : 	lpThis = (CColorSlide*)CWnd::FromHandle(hWnd);

  00144	8b 45 08	 mov	 eax, DWORD PTR _hWnd$[ebp]
  00147	50		 push	 eax
  00148	e8 00 00 00 00	 call	 ?FromHandle@CWnd@@SGPAV1@PAUHWND__@@@Z ; CWnd::FromHandle
  0014d	89 45 f8	 mov	 DWORD PTR _lpThis$[ebp], eax

; 73   : 	if (lpThis == NULL || !::IsWindow(lpThis->GetSafeHwnd()))

  00150	83 7d f8 00	 cmp	 DWORD PTR _lpThis$[ebp], 0
  00154	74 13		 je	 SHORT $L197893
  00156	8b 4d f8	 mov	 ecx, DWORD PTR _lpThis$[ebp]
  00159	e8 00 00 00 00	 call	 ?GetSafeHwnd@CWnd@@QBEPAUHWND__@@XZ ; CWnd::GetSafeHwnd
  0015e	50		 push	 eax
  0015f	ff 15 00 00 00
	00		 call	 DWORD PTR __imp__IsWindow@4
  00165	85 c0		 test	 eax, eax
  00167	75 08		 jne	 SHORT $L197892
$L197893:

; 74   : 		return lReturn;

  00169	8b 45 fc	 mov	 eax, DWORD PTR _lReturn$[ebp]
  0016c	e9 a3 00 00 00	 jmp	 $L197888
$L197892:

; 75   : 
; 76   : 	switch (uMsg)

  00171	8b 4d 0c	 mov	 ecx, DWORD PTR _uMsg$[ebp]
  00174	89 4d f4	 mov	 DWORD PTR tv72[ebp], ecx
  00177	8b 55 f4	 mov	 edx, DWORD PTR tv72[ebp]
  0017a	83 ea 05	 sub	 edx, 5
  0017d	89 55 f4	 mov	 DWORD PTR tv72[ebp], edx
  00180	81 7d f4 80 00
	00 00		 cmp	 DWORD PTR tv72[ebp], 128 ; 00000080H
  00187	77 68		 ja	 SHORT $L197895
  00189	8b 45 f4	 mov	 eax, DWORD PTR tv72[ebp]
  0018c	0f b6 88 00 00
	00 00		 movzx	 ecx, BYTE PTR $L198638[eax]
  00193	ff 24 8d 00 00
	00 00		 jmp	 DWORD PTR $L198639[ecx*4]
$L197898:

; 77   : 	{
; 78   : 	case WM_PAINT:
; 79   : 	case WM_NCPAINT:
; 80   : 		{
; 81   : 			lReturn = (LONG)::DefWindowProc(hWnd, uMsg, wParam, lParam);

  0019a	8b 55 14	 mov	 edx, DWORD PTR _lParam$[ebp]
  0019d	52		 push	 edx
  0019e	8b 45 10	 mov	 eax, DWORD PTR _wParam$[ebp]
  001a1	50		 push	 eax
  001a2	8b 4d 0c	 mov	 ecx, DWORD PTR _uMsg$[ebp]
  001a5	51		 push	 ecx
  001a6	8b 55 08	 mov	 edx, DWORD PTR _hWnd$[ebp]
  001a9	52		 push	 edx
  001aa	ff 15 00 00 00
	00		 call	 DWORD PTR __imp__DefWindowProcA@16
  001b0	89 45 fc	 mov	 DWORD PTR _lReturn$[ebp], eax

; 82   : 			lpThis->DynamicStat(set_Normal);

  001b3	6a 00		 push	 0
  001b5	8b 4d f8	 mov	 ecx, DWORD PTR _lpThis$[ebp]
  001b8	e8 00 00 00 00	 call	 ?DynamicStat@CColorSlide@@IAEXW4ENUM_SLIDERSTATE@@@Z ; CColorSlide::DynamicStat

; 83   : 			return lReturn;

  001bd	8b 45 fc	 mov	 eax, DWORD PTR _lReturn$[ebp]
  001c0	eb 52		 jmp	 SHORT $L197888
$L197900:

; 84   : 		}
; 85   : 		break;
; 86   : 	case WM_ENABLE:
; 87   : 		lpThis->DynamicStat(set_Normal);

  001c2	6a 00		 push	 0
  001c4	8b 4d f8	 mov	 ecx, DWORD PTR _lpThis$[ebp]
  001c7	e8 00 00 00 00	 call	 ?DynamicStat@CColorSlide@@IAEXW4ENUM_SLIDERSTATE@@@Z ; CColorSlide::DynamicStat

; 88   : 		break;

  001cc	eb 23		 jmp	 SHORT $L197895
$L197901:

; 89   : 	case WM_ACTIVATE:
; 90   : 		lpThis->DynamicStat(set_Normal);

  001ce	6a 00		 push	 0
  001d0	8b 4d f8	 mov	 ecx, DWORD PTR _lpThis$[ebp]
  001d3	e8 00 00 00 00	 call	 ?DynamicStat@CColorSlide@@IAEXW4ENUM_SLIDERSTATE@@@Z ; CColorSlide::DynamicStat

; 91   : 		break;

  001d8	eb 17		 jmp	 SHORT $L197895
$L197902:

; 92   : 	case WM_SIZE:
; 93   : 		lpThis->SaveSize();

  001da	8b 4d f8	 mov	 ecx, DWORD PTR _lpThis$[ebp]
  001dd	e8 00 00 00 00	 call	 ?SaveSize@CColorSlide@@AAEXXZ ; CColorSlide::SaveSize

; 94   : 		lpThis->SetPos(lpThis->FPosition);

  001e2	8b 45 f8	 mov	 eax, DWORD PTR _lpThis$[ebp]
  001e5	8b 48 54	 mov	 ecx, DWORD PTR [eax+84]
  001e8	51		 push	 ecx
  001e9	8b 4d f8	 mov	 ecx, DWORD PTR _lpThis$[ebp]
  001ec	e8 00 00 00 00	 call	 ?SetPos@CSliderCtrl@@QAEXH@Z ; CSliderCtrl::SetPos
$L197895:

; 95   : 
; 96   : 		break;
; 97   : 	}
; 98   : 	// 调用原来的回调函数
; 99   : 	lReturn = (LONG)CallWindowProc(lpThis->mWndProc, hWnd, uMsg, wParam, lParam);

  001f1	8b 55 14	 mov	 edx, DWORD PTR _lParam$[ebp]
  001f4	52		 push	 edx
  001f5	8b 45 10	 mov	 eax, DWORD PTR _wParam$[ebp]
  001f8	50		 push	 eax
  001f9	8b 4d 0c	 mov	 ecx, DWORD PTR _uMsg$[ebp]
  001fc	51		 push	 ecx
  001fd	8b 55 08	 mov	 edx, DWORD PTR _hWnd$[ebp]
  00200	52		 push	 edx
  00201	8b 45 f8	 mov	 eax, DWORD PTR _lpThis$[ebp]
  00204	8b 48 7c	 mov	 ecx, DWORD PTR [eax+124]
  00207	51		 push	 ecx
  00208	ff 15 00 00 00
	00		 call	 DWORD PTR __imp__CallWindowProcA@20
  0020e	89 45 fc	 mov	 DWORD PTR _lReturn$[ebp], eax

; 100  : 	return lReturn;

  00211	8b 45 fc	 mov	 eax, DWORD PTR _lReturn$[ebp]
$L197888:

; 101  : }

  00214	8b e5		 mov	 esp, ebp
  00216	5d		 pop	 ebp
  00217	c2 10 00	 ret	 16			; 00000010H
$L198639:
  0021a	00 00 00 00	 DD	 $L197902
  0021e	00 00 00 00	 DD	 $L197901
  00222	00 00 00 00	 DD	 $L197900
  00226	00 00 00 00	 DD	 $L197898
  0022a	00 00 00 00	 DD	 $L197895
$L198638:
  0022e	00		 DB	 0
  0022f	01		 DB	 1
  00230	04		 DB	 4
  00231	04		 DB	 4
  00232	04		 DB	 4
  00233	02		 DB	 2
  00234	04		 DB	 4
  00235	04		 DB	 4
  00236	04		 DB	 4
  00237	04		 DB	 4
  00238	03		 DB	 3
  00239	04		 DB	 4
  0023a	04		 DB	 4
  0023b	04		 DB	 4
  0023c	04		 DB	 4
  0023d	04		 DB	 4
  0023e	04		 DB	 4
  0023f	04		 DB	 4
  00240	04		 DB	 4
  00241	04		 DB	 4
  00242	04		 DB	 4
  00243	04		 DB	 4
  00244	04		 DB	 4
  00245	04		 DB	 4
  00246	04		 DB	 4
  00247	04		 DB	 4
  00248	04		 DB	 4
  00249	04		 DB	 4
  0024a	04		 DB	 4
  0024b	04		 DB	 4
  0024c	04		 DB	 4
  0024d	04		 DB	 4
  0024e	04		 DB	 4
  0024f	04		 DB	 4
  00250	04		 DB	 4
  00251	04		 DB	 4
  00252	04		 DB	 4
  00253	04		 DB	 4
  00254	04		 DB	 4
  00255	04		 DB	 4
  00256	04		 DB	 4
  00257	04		 DB	 4
  00258	04		 DB	 4
  00259	04		 DB	 4
  0025a	04		 DB	 4
  0025b	04		 DB	 4
  0025c	04		 DB	 4
  0025d	04		 DB	 4
  0025e	04		 DB	 4
  0025f	04		 DB	 4
  00260	04		 DB	 4
  00261	04		 DB	 4
  00262	04		 DB	 4
  00263	04		 DB	 4
  00264	04		 DB	 4
  00265	04		 DB	 4
  00266	04		 DB	 4
  00267	04		 DB	 4
  00268	04		 DB	 4
  00269	04		 DB	 4
  0026a	04		 DB	 4
  0026b	04		 DB	 4
  0026c	04		 DB	 4
  0026d	04		 DB	 4
  0026e	04		 DB	 4
  0026f	04		 DB	 4
  00270	04		 DB	 4
  00271	04		 DB	 4
  00272	04		 DB	 4
  00273	04		 DB	 4
  00274	04		 DB	 4
  00275	04		 DB	 4
  00276	04		 DB	 4
  00277	04		 DB	 4
  00278	04		 DB	 4
  00279	04		 DB	 4
  0027a	04		 DB	 4
  0027b	04		 DB	 4
  0027c	04		 DB	 4
  0027d	04		 DB	 4
  0027e	04		 DB	 4
  0027f	04		 DB	 4
  00280	04		 DB	 4
  00281	04		 DB	 4
  00282	04		 DB	 4
  00283	04		 DB	 4
  00284	04		 DB	 4
  00285	04		 DB	 4
  00286	04		 DB	 4
  00287	04		 DB	 4
  00288	04		 DB	 4
  00289	04		 DB	 4
  0028a	04		 DB	 4
  0028b	04		 DB	 4
  0028c	04		 DB	 4
  0028d	04		 DB	 4
  0028e	04		 DB	 4
  0028f	04		 DB	 4
  00290	04		 DB	 4
  00291	04		 DB	 4
  00292	04		 DB	 4
  00293	04		 DB	 4
  00294	04		 DB	 4
  00295	04		 DB	 4
  00296	04		 DB	 4
  00297	04		 DB	 4
  00298	04		 DB	 4
  00299	04		 DB	 4
  0029a	04		 DB	 4
  0029b	04		 DB	 4
  0029c	04		 DB	 4
  0029d	04		 DB	 4
  0029e	04		 DB	 4
  0029f	04		 DB	 4
  002a0	04		 DB	 4
  002a1	04		 DB	 4
  002a2	04		 DB	 4
  002a3	04		 DB	 4
  002a4	04		 DB	 4
  002a5	04		 DB	 4
  002a6	04		 DB	 4
  002a7	04		 DB	 4
  002a8	04		 DB	 4
  002a9	04		 DB	 4
  002aa	04		 DB	 4
  002ab	04		 DB	 4
  002ac	04		 DB	 4
  002ad	04		 DB	 4
  002ae	03		 DB	 3
?SelfProc@CColorSlide@@KGJPAUHWND__@@IIJ@Z ENDP		; CColorSlide::SelfProc
_TEXT	ENDS
PUBLIC	?SetCapture@CWnd@@QAEPAV1@XZ			; CWnd::SetCapture
PUBLIC	?WindowFromPoint@CWnd@@SGPAV1@UtagPOINT@@@Z	; CWnd::WindowFromPoint
PUBLIC	?OnLButtonDown@CWnd@@IAEXIVCPoint@@@Z		; CWnd::OnLButtonDown
PUBLIC	__real@3fe0000000000000
EXTRN	__ftol2:NEAR
EXTRN	__fltused:NEAR
;	COMDAT __real@3fe0000000000000
CONST	SEGMENT
__real@3fe0000000000000 DQ 03fe0000000000000r	; 0.5
; Function compile flags: /Odt
CONST	ENDS
_TEXT	SEGMENT
_this$ = -16						; size = 4
$T198641 = -12						; size = 8
_wndUnderMouse$ = -4					; size = 4
_nFlags$ = 8						; size = 4
_point$ = 12						; size = 8
?OnLButtonDown@CColorSlide@@IAEXIVCPoint@@@Z PROC NEAR	; CColorSlide::OnLButtonDown
; _this$ = ecx

; 104  : {

  002b0	55		 push	 ebp
  002b1	8b ec		 mov	 ebp, esp
  002b3	83 ec 10	 sub	 esp, 16			; 00000010H
  002b6	89 4d f0	 mov	 DWORD PTR _this$[ebp], ecx

; 105  : 	if( m_SlideType == PERCENT_SLIDE )

  002b9	8b 45 f0	 mov	 eax, DWORD PTR _this$[ebp]
  002bc	83 b8 80 00 00
	00 00		 cmp	 DWORD PTR [eax+128], 0
  002c3	75 19		 jne	 SHORT $L197909

; 106  : 	return CSliderCtrl::OnLButtonDown(nFlags, point);

  002c5	8b 4d 10	 mov	 ecx, DWORD PTR _point$[ebp+4]
  002c8	51		 push	 ecx
  002c9	8b 55 0c	 mov	 edx, DWORD PTR _point$[ebp]
  002cc	52		 push	 edx
  002cd	8b 45 08	 mov	 eax, DWORD PTR _nFlags$[ebp]
  002d0	50		 push	 eax
  002d1	8b 4d f0	 mov	 ecx, DWORD PTR _this$[ebp]
  002d4	e8 00 00 00 00	 call	 ?OnLButtonDown@CWnd@@IAEXIVCPoint@@@Z ; CWnd::OnLButtonDown
  002d9	e9 11 01 00 00	 jmp	 $L197908
$L197909:

; 107  : 	m_bButtonDown = TRUE;

  002de	8b 4d f0	 mov	 ecx, DWORD PTR _this$[ebp]
  002e1	c7 41 78 01 00
	00 00		 mov	 DWORD PTR [ecx+120], 1

; 108  : 	SetCapture();

  002e8	8b 4d f0	 mov	 ecx, DWORD PTR _this$[ebp]
  002eb	e8 00 00 00 00	 call	 ?SetCapture@CWnd@@QAEPAV1@XZ ; CWnd::SetCapture

; 109  : 	CWnd *wndUnderMouse = WindowFromPoint(point);

  002f0	8b 55 0c	 mov	 edx, DWORD PTR _point$[ebp]
  002f3	89 55 f4	 mov	 DWORD PTR $T198641[ebp], edx
  002f6	8b 45 10	 mov	 eax, DWORD PTR _point$[ebp+4]
  002f9	89 45 f8	 mov	 DWORD PTR $T198641[ebp+4], eax
  002fc	8b 4d f8	 mov	 ecx, DWORD PTR $T198641[ebp+4]
  002ff	51		 push	 ecx
  00300	8b 55 f4	 mov	 edx, DWORD PTR $T198641[ebp]
  00303	52		 push	 edx
  00304	e8 00 00 00 00	 call	 ?WindowFromPoint@CWnd@@SGPAV1@UtagPOINT@@@Z ; CWnd::WindowFromPoint
  00309	89 45 fc	 mov	 DWORD PTR _wndUnderMouse$[ebp], eax

; 110  : 
; 111  : 	if(( point.x-TRACKBAR_INTERVAL >m_iStatePosX ) &&( point.x-TRACKBAR_INTERVAL< m_iStatePosX ))

  0030c	8b 45 0c	 mov	 eax, DWORD PTR _point$[ebp]
  0030f	83 e8 04	 sub	 eax, 4
  00312	8b 4d f0	 mov	 ecx, DWORD PTR _this$[ebp]
  00315	3b 81 84 00 00
	00		 cmp	 eax, DWORD PTR [ecx+132]
  0031b	7e 2a		 jle	 SHORT $L197912
  0031d	8b 55 0c	 mov	 edx, DWORD PTR _point$[ebp]
  00320	83 ea 04	 sub	 edx, 4
  00323	8b 45 f0	 mov	 eax, DWORD PTR _this$[ebp]
  00326	3b 90 84 00 00
	00		 cmp	 edx, DWORD PTR [eax+132]
  0032c	7d 19		 jge	 SHORT $L197912

; 112  : 	{
; 113  : 		return CSliderCtrl::OnLButtonDown(nFlags, point);

  0032e	8b 4d 10	 mov	 ecx, DWORD PTR _point$[ebp+4]
  00331	51		 push	 ecx
  00332	8b 55 0c	 mov	 edx, DWORD PTR _point$[ebp]
  00335	52		 push	 edx
  00336	8b 45 08	 mov	 eax, DWORD PTR _nFlags$[ebp]
  00339	50		 push	 eax
  0033a	8b 4d f0	 mov	 ecx, DWORD PTR _this$[ebp]
  0033d	e8 00 00 00 00	 call	 ?OnLButtonDown@CWnd@@IAEXIVCPoint@@@Z ; CWnd::OnLButtonDown
  00342	e9 a8 00 00 00	 jmp	 $L197908
$L197912:

; 114  : 	}
; 115  : 
; 116  : 	m_iStatePosX = point.x;

  00347	8b 4d f0	 mov	 ecx, DWORD PTR _this$[ebp]
  0034a	8b 55 0c	 mov	 edx, DWORD PTR _point$[ebp]
  0034d	89 91 84 00 00
	00		 mov	 DWORD PTR [ecx+132], edx

; 117  : 
; 118  : 	if (m_iStatePosX < TRACKBAR_INTERVAL) m_iStatePosX = 0;

  00353	8b 45 f0	 mov	 eax, DWORD PTR _this$[ebp]
  00356	83 b8 84 00 00
	00 04		 cmp	 DWORD PTR [eax+132], 4
  0035d	7d 0f		 jge	 SHORT $L197913
  0035f	8b 4d f0	 mov	 ecx, DWORD PTR _this$[ebp]
  00362	c7 81 84 00 00
	00 00 00 00 00	 mov	 DWORD PTR [ecx+132], 0

; 119  : 	else if (m_iStatePosX > m_nWidth-2*TRACKBAR_INTERVAL ) m_iStatePosX = m_nWidth-2*TRACKBAR_INTERVAL ;

  0036c	eb 3d		 jmp	 SHORT $L197914
$L197913:
  0036e	8b 55 f0	 mov	 edx, DWORD PTR _this$[ebp]
  00371	8b 42 60	 mov	 eax, DWORD PTR [edx+96]
  00374	83 e8 08	 sub	 eax, 8
  00377	8b 4d f0	 mov	 ecx, DWORD PTR _this$[ebp]
  0037a	39 81 84 00 00
	00		 cmp	 DWORD PTR [ecx+132], eax
  00380	7e 14		 jle	 SHORT $L197915
  00382	8b 55 f0	 mov	 edx, DWORD PTR _this$[ebp]
  00385	8b 42 60	 mov	 eax, DWORD PTR [edx+96]
  00388	83 e8 08	 sub	 eax, 8
  0038b	8b 4d f0	 mov	 ecx, DWORD PTR _this$[ebp]
  0038e	89 81 84 00 00
	00		 mov	 DWORD PTR [ecx+132], eax

; 120  : 	else

  00394	eb 15		 jmp	 SHORT $L197914
$L197915:

; 121  : 	{
; 122  : 		m_iStatePosX -= TRACKBAR_INTERVAL;

  00396	8b 55 f0	 mov	 edx, DWORD PTR _this$[ebp]
  00399	8b 82 84 00 00
	00		 mov	 eax, DWORD PTR [edx+132]
  0039f	83 e8 04	 sub	 eax, 4
  003a2	8b 4d f0	 mov	 ecx, DWORD PTR _this$[ebp]
  003a5	89 81 84 00 00
	00		 mov	 DWORD PTR [ecx+132], eax
$L197914:

; 123  : 	}
; 124  : 
; 125  : 	FPosition =  (int)( FMaxValue * (float)(m_iStatePosX)/(float)(m_nWidthPlay) + 0.5 );

  003ab	8b 55 f0	 mov	 edx, DWORD PTR _this$[ebp]
  003ae	db 42 58	 fild	 DWORD PTR [edx+88]
  003b1	8b 45 f0	 mov	 eax, DWORD PTR _this$[ebp]
  003b4	da 88 84 00 00
	00		 fimul	 DWORD PTR [eax+132]
  003ba	8b 4d f0	 mov	 ecx, DWORD PTR _this$[ebp]
  003bd	da 71 68	 fidiv	 DWORD PTR [ecx+104]
  003c0	dc 05 00 00 00
	00		 fadd	 QWORD PTR __real@3fe0000000000000
  003c6	e8 00 00 00 00	 call	 __ftol2
  003cb	8b 55 f0	 mov	 edx, DWORD PTR _this$[ebp]
  003ce	89 42 54	 mov	 DWORD PTR [edx+84], eax

; 126  : 	DynamicStat(set_Down);

  003d1	6a 02		 push	 2
  003d3	8b 4d f0	 mov	 ecx, DWORD PTR _this$[ebp]
  003d6	e8 00 00 00 00	 call	 ?DynamicStat@CColorSlide@@IAEXW4ENUM_SLIDERSTATE@@@Z ; CColorSlide::DynamicStat

; 127  : 	/*::SendMessage(GetParent()->GetSafeHwnd(),WM_HSCROLL,0,(LPARAM)this->m_hWnd);
; 128  : 
; 129  : 	if( NULL != mp_slideEventListerner)
; 130  : 	{
; 131  : 	this->mp_slideEventListerner->OnCliekSlide(this);
; 132  : 	}*/
; 133  : 	return CSliderCtrl::OnLButtonDown(nFlags, point);

  003db	8b 45 10	 mov	 eax, DWORD PTR _point$[ebp+4]
  003de	50		 push	 eax
  003df	8b 4d 0c	 mov	 ecx, DWORD PTR _point$[ebp]
  003e2	51		 push	 ecx
  003e3	8b 55 08	 mov	 edx, DWORD PTR _nFlags$[ebp]
  003e6	52		 push	 edx
  003e7	8b 4d f0	 mov	 ecx, DWORD PTR _this$[ebp]
  003ea	e8 00 00 00 00	 call	 ?OnLButtonDown@CWnd@@IAEXIVCPoint@@@Z ; CWnd::OnLButtonDown
$L197908:

; 134  : }

  003ef	8b e5		 mov	 esp, ebp
  003f1	5d		 pop	 ebp
  003f2	c2 0c 00	 ret	 12			; 0000000cH
?OnLButtonDown@CColorSlide@@IAEXIVCPoint@@@Z ENDP	; CColorSlide::OnLButtonDown
_TEXT	ENDS
PUBLIC	?OnLButtonUp@CWnd@@IAEXIVCPoint@@@Z		; CWnd::OnLButtonUp
EXTRN	__imp__ReleaseCapture@0:NEAR
; Function compile flags: /Odt
_TEXT	SEGMENT
_this$ = -4						; size = 4
_nFlags$ = 8						; size = 4
_point$ = 12						; size = 8
?OnLButtonUp@CColorSlide@@IAEXIVCPoint@@@Z PROC NEAR	; CColorSlide::OnLButtonUp
; _this$ = ecx

; 137  : {

  00400	55		 push	 ebp
  00401	8b ec		 mov	 ebp, esp
  00403	51		 push	 ecx
  00404	89 4d fc	 mov	 DWORD PTR _this$[ebp], ecx

; 138  : 	if( m_SlideType == PERCENT_SLIDE )

  00407	8b 45 fc	 mov	 eax, DWORD PTR _this$[ebp]
  0040a	83 b8 80 00 00
	00 00		 cmp	 DWORD PTR [eax+128], 0
  00411	75 19		 jne	 SHORT $L197925

; 139  : 		return CSliderCtrl::OnLButtonUp(nFlags, point);

  00413	8b 4d 10	 mov	 ecx, DWORD PTR _point$[ebp+4]
  00416	51		 push	 ecx
  00417	8b 55 0c	 mov	 edx, DWORD PTR _point$[ebp]
  0041a	52		 push	 edx
  0041b	8b 45 08	 mov	 eax, DWORD PTR _nFlags$[ebp]
  0041e	50		 push	 eax
  0041f	8b 4d fc	 mov	 ecx, DWORD PTR _this$[ebp]
  00422	e8 00 00 00 00	 call	 ?OnLButtonUp@CWnd@@IAEXIVCPoint@@@Z ; CWnd::OnLButtonUp
  00427	e9 1a 01 00 00	 jmp	 $L197924
$L197925:

; 140  : 	if(( point.x-TRACKBAR_INTERVAL >m_iStatePosX ) &&( point.x-TRACKBAR_INTERVAL< m_iStatePosX ))

  0042c	8b 4d 0c	 mov	 ecx, DWORD PTR _point$[ebp]
  0042f	83 e9 04	 sub	 ecx, 4
  00432	8b 55 fc	 mov	 edx, DWORD PTR _this$[ebp]
  00435	3b 8a 84 00 00
	00		 cmp	 ecx, DWORD PTR [edx+132]
  0043b	7e 2a		 jle	 SHORT $L197926
  0043d	8b 45 0c	 mov	 eax, DWORD PTR _point$[ebp]
  00440	83 e8 04	 sub	 eax, 4
  00443	8b 4d fc	 mov	 ecx, DWORD PTR _this$[ebp]
  00446	3b 81 84 00 00
	00		 cmp	 eax, DWORD PTR [ecx+132]
  0044c	7d 19		 jge	 SHORT $L197926

; 141  : 	{
; 142  : 		return CSliderCtrl::OnLButtonUp(nFlags, point);

  0044e	8b 55 10	 mov	 edx, DWORD PTR _point$[ebp+4]
  00451	52		 push	 edx
  00452	8b 45 0c	 mov	 eax, DWORD PTR _point$[ebp]
  00455	50		 push	 eax
  00456	8b 4d 08	 mov	 ecx, DWORD PTR _nFlags$[ebp]
  00459	51		 push	 ecx
  0045a	8b 4d fc	 mov	 ecx, DWORD PTR _this$[ebp]
  0045d	e8 00 00 00 00	 call	 ?OnLButtonUp@CWnd@@IAEXIVCPoint@@@Z ; CWnd::OnLButtonUp
  00462	e9 df 00 00 00	 jmp	 $L197924
$L197926:

; 143  : 	}
; 144  : 	m_iStatePosX = point.x;

  00467	8b 55 fc	 mov	 edx, DWORD PTR _this$[ebp]
  0046a	8b 45 0c	 mov	 eax, DWORD PTR _point$[ebp]
  0046d	89 82 84 00 00
	00		 mov	 DWORD PTR [edx+132], eax

; 145  : 
; 146  : 	if (m_iStatePosX < TRACKBAR_INTERVAL) m_iStatePosX = 0;

  00473	8b 4d fc	 mov	 ecx, DWORD PTR _this$[ebp]
  00476	83 b9 84 00 00
	00 04		 cmp	 DWORD PTR [ecx+132], 4
  0047d	7d 0f		 jge	 SHORT $L197927
  0047f	8b 55 fc	 mov	 edx, DWORD PTR _this$[ebp]
  00482	c7 82 84 00 00
	00 00 00 00 00	 mov	 DWORD PTR [edx+132], 0

; 147  : 	else if (m_iStatePosX > m_nWidth-2*TRACKBAR_INTERVAL ) m_iStatePosX = m_nWidth-2*TRACKBAR_INTERVAL ;

  0048c	eb 3d		 jmp	 SHORT $L197928
$L197927:
  0048e	8b 45 fc	 mov	 eax, DWORD PTR _this$[ebp]
  00491	8b 48 60	 mov	 ecx, DWORD PTR [eax+96]
  00494	83 e9 08	 sub	 ecx, 8
  00497	8b 55 fc	 mov	 edx, DWORD PTR _this$[ebp]
  0049a	39 8a 84 00 00
	00		 cmp	 DWORD PTR [edx+132], ecx
  004a0	7e 14		 jle	 SHORT $L197929
  004a2	8b 45 fc	 mov	 eax, DWORD PTR _this$[ebp]
  004a5	8b 48 60	 mov	 ecx, DWORD PTR [eax+96]
  004a8	83 e9 08	 sub	 ecx, 8
  004ab	8b 55 fc	 mov	 edx, DWORD PTR _this$[ebp]
  004ae	89 8a 84 00 00
	00		 mov	 DWORD PTR [edx+132], ecx

; 148  : 	else

  004b4	eb 15		 jmp	 SHORT $L197928
$L197929:

; 149  : 	{
; 150  : 		m_iStatePosX -= TRACKBAR_INTERVAL;

  004b6	8b 45 fc	 mov	 eax, DWORD PTR _this$[ebp]
  004b9	8b 88 84 00 00
	00		 mov	 ecx, DWORD PTR [eax+132]
  004bf	83 e9 04	 sub	 ecx, 4
  004c2	8b 55 fc	 mov	 edx, DWORD PTR _this$[ebp]
  004c5	89 8a 84 00 00
	00		 mov	 DWORD PTR [edx+132], ecx
$L197928:

; 151  : 	}
; 152  : 
; 153  : 	ReleaseCapture();

  004cb	ff 15 00 00 00
	00		 call	 DWORD PTR __imp__ReleaseCapture@0

; 154  : 	m_bButtonDown = FALSE;

  004d1	8b 45 fc	 mov	 eax, DWORD PTR _this$[ebp]
  004d4	c7 40 78 00 00
	00 00		 mov	 DWORD PTR [eax+120], 0

; 155  : 	FPosition =  (int)( FMaxValue * (float)(m_iStatePosX)/(float)(m_nWidthPlay) + 0.5 );

  004db	8b 4d fc	 mov	 ecx, DWORD PTR _this$[ebp]
  004de	db 41 58	 fild	 DWORD PTR [ecx+88]
  004e1	8b 55 fc	 mov	 edx, DWORD PTR _this$[ebp]
  004e4	da 8a 84 00 00
	00		 fimul	 DWORD PTR [edx+132]
  004ea	8b 45 fc	 mov	 eax, DWORD PTR _this$[ebp]
  004ed	da 70 68	 fidiv	 DWORD PTR [eax+104]
  004f0	dc 05 00 00 00
	00		 fadd	 QWORD PTR __real@3fe0000000000000
  004f6	e8 00 00 00 00	 call	 __ftol2
  004fb	8b 4d fc	 mov	 ecx, DWORD PTR _this$[ebp]
  004fe	89 41 54	 mov	 DWORD PTR [ecx+84], eax

; 156  : 
; 157  : 
; 158  : 	DynamicStat(set_Normal);

  00501	6a 00		 push	 0
  00503	8b 4d fc	 mov	 ecx, DWORD PTR _this$[ebp]
  00506	e8 00 00 00 00	 call	 ?DynamicStat@CColorSlide@@IAEXW4ENUM_SLIDERSTATE@@@Z ; CColorSlide::DynamicStat

; 159  : 	//::SendMessage(GetParent()->GetSafeHwnd(),WM_HSCROLL,0,(LPARAM)this->m_hWnd);
; 160  : 	if( NULL != mp_slideEventListerner)

  0050b	8b 55 fc	 mov	 edx, DWORD PTR _this$[ebp]
  0050e	83 ba 88 00 00
	00 00		 cmp	 DWORD PTR [edx+136], 0
  00515	74 1b		 je	 SHORT $L197934

; 161  : 	{
; 162  : 		this->mp_slideEventListerner->OnCliekSlide(this);

  00517	8b 45 fc	 mov	 eax, DWORD PTR _this$[ebp]
  0051a	50		 push	 eax
  0051b	8b 4d fc	 mov	 ecx, DWORD PTR _this$[ebp]
  0051e	8b 91 88 00 00
	00		 mov	 edx, DWORD PTR [ecx+136]
  00524	8b 45 fc	 mov	 eax, DWORD PTR _this$[ebp]
  00527	8b 88 88 00 00
	00		 mov	 ecx, DWORD PTR [eax+136]
  0052d	8b 12		 mov	 edx, DWORD PTR [edx]
  0052f	ff 52 04	 call	 DWORD PTR [edx+4]
$L197934:

; 163  : 	}
; 164  : 
; 165  : 	return CSliderCtrl::OnLButtonUp(nFlags, point);

  00532	8b 45 10	 mov	 eax, DWORD PTR _point$[ebp+4]
  00535	50		 push	 eax
  00536	8b 4d 0c	 mov	 ecx, DWORD PTR _point$[ebp]
  00539	51		 push	 ecx
  0053a	8b 55 08	 mov	 edx, DWORD PTR _nFlags$[ebp]
  0053d	52		 push	 edx
  0053e	8b 4d fc	 mov	 ecx, DWORD PTR _this$[ebp]
  00541	e8 00 00 00 00	 call	 ?OnLButtonUp@CWnd@@IAEXIVCPoint@@@Z ; CWnd::OnLButtonUp
$L197924:

; 166  : }

  00546	8b e5		 mov	 esp, ebp
  00548	5d		 pop	 ebp
  00549	c2 0c 00	 ret	 12			; 0000000cH
?OnLButtonUp@CColorSlide@@IAEXIVCPoint@@@Z ENDP		; CColorSlide::OnLButtonUp
_TEXT	ENDS
PUBLIC	?GetParent@CWnd@@QBEPAV1@XZ			; CWnd::GetParent
PUBLIC	?OnMouseMove@CWnd@@IAEXIVCPoint@@@Z		; CWnd::OnMouseMove
EXTRN	__imp__SendMessageA@16:NEAR
; Function compile flags: /Odt
_TEXT	SEGMENT
_this$ = -4						; size = 4
_nFlags$ = 8						; size = 4
_point$ = 12						; size = 8
?OnMouseMove@CColorSlide@@IAEXIVCPoint@@@Z PROC NEAR	; CColorSlide::OnMouseMove
; _this$ = ecx

; 169  : {

  00550	55		 push	 ebp
  00551	8b ec		 mov	 ebp, esp
  00553	51		 push	 ecx
  00554	89 4d fc	 mov	 DWORD PTR _this$[ebp], ecx

; 170  : 	if( m_SlideType == PERCENT_SLIDE )

  00557	8b 45 fc	 mov	 eax, DWORD PTR _this$[ebp]
  0055a	83 b8 80 00 00
	00 00		 cmp	 DWORD PTR [eax+128], 0
  00561	75 19		 jne	 SHORT $L197940

; 171  : 		return CSliderCtrl::OnMouseMove(nFlags, point);

  00563	8b 4d 10	 mov	 ecx, DWORD PTR _point$[ebp+4]
  00566	51		 push	 ecx
  00567	8b 55 0c	 mov	 edx, DWORD PTR _point$[ebp]
  0056a	52		 push	 edx
  0056b	8b 45 08	 mov	 eax, DWORD PTR _nFlags$[ebp]
  0056e	50		 push	 eax
  0056f	8b 4d fc	 mov	 ecx, DWORD PTR _this$[ebp]
  00572	e8 00 00 00 00	 call	 ?OnMouseMove@CWnd@@IAEXIVCPoint@@@Z ; CWnd::OnMouseMove
  00577	e9 e3 00 00 00	 jmp	 $L197939
$L197940:

; 172  : 	if (m_bButtonDown)

  0057c	8b 4d fc	 mov	 ecx, DWORD PTR _this$[ebp]
  0057f	83 79 78 00	 cmp	 DWORD PTR [ecx+120], 0
  00583	0f 84 c2 00 00
	00		 je	 $L197941

; 173  : 	{
; 174  : 		if (nFlags == MK_LBUTTON)

  00589	83 7d 08 01	 cmp	 DWORD PTR _nFlags$[ebp], 1
  0058d	0f 85 b8 00 00
	00		 jne	 $L197941

; 175  : 		{
; 176  : 			m_iStatePosX = point.x;

  00593	8b 55 fc	 mov	 edx, DWORD PTR _this$[ebp]
  00596	8b 45 0c	 mov	 eax, DWORD PTR _point$[ebp]
  00599	89 82 84 00 00
	00		 mov	 DWORD PTR [edx+132], eax

; 177  : 
; 178  : 			if (m_iStatePosX < TRACKBAR_INTERVAL) m_iStatePosX = 0;

  0059f	8b 4d fc	 mov	 ecx, DWORD PTR _this$[ebp]
  005a2	83 b9 84 00 00
	00 04		 cmp	 DWORD PTR [ecx+132], 4
  005a9	7d 0f		 jge	 SHORT $L197943
  005ab	8b 55 fc	 mov	 edx, DWORD PTR _this$[ebp]
  005ae	c7 82 84 00 00
	00 00 00 00 00	 mov	 DWORD PTR [edx+132], 0

; 179  : 			else if (m_iStatePosX > m_nWidth-2*TRACKBAR_INTERVAL ) m_iStatePosX = m_nWidth-2*TRACKBAR_INTERVAL ;

  005b8	eb 3d		 jmp	 SHORT $L197944
$L197943:
  005ba	8b 45 fc	 mov	 eax, DWORD PTR _this$[ebp]
  005bd	8b 48 60	 mov	 ecx, DWORD PTR [eax+96]
  005c0	83 e9 08	 sub	 ecx, 8
  005c3	8b 55 fc	 mov	 edx, DWORD PTR _this$[ebp]
  005c6	39 8a 84 00 00
	00		 cmp	 DWORD PTR [edx+132], ecx
  005cc	7e 14		 jle	 SHORT $L197945
  005ce	8b 45 fc	 mov	 eax, DWORD PTR _this$[ebp]
  005d1	8b 48 60	 mov	 ecx, DWORD PTR [eax+96]
  005d4	83 e9 08	 sub	 ecx, 8
  005d7	8b 55 fc	 mov	 edx, DWORD PTR _this$[ebp]
  005da	89 8a 84 00 00
	00		 mov	 DWORD PTR [edx+132], ecx

; 180  : 			else

  005e0	eb 15		 jmp	 SHORT $L197944
$L197945:

; 181  : 			{
; 182  : 				m_iStatePosX -= TRACKBAR_INTERVAL;

  005e2	8b 45 fc	 mov	 eax, DWORD PTR _this$[ebp]
  005e5	8b 88 84 00 00
	00		 mov	 ecx, DWORD PTR [eax+132]
  005eb	83 e9 04	 sub	 ecx, 4
  005ee	8b 55 fc	 mov	 edx, DWORD PTR _this$[ebp]
  005f1	89 8a 84 00 00
	00		 mov	 DWORD PTR [edx+132], ecx
$L197944:

; 183  : 			}
; 184  : 
; 185  : 			FPosition =  (int)( FMaxValue * (float)(m_iStatePosX)/(float)(m_nWidthPlay) + 0.5 );

  005f7	8b 45 fc	 mov	 eax, DWORD PTR _this$[ebp]
  005fa	db 40 58	 fild	 DWORD PTR [eax+88]
  005fd	8b 4d fc	 mov	 ecx, DWORD PTR _this$[ebp]
  00600	da 89 84 00 00
	00		 fimul	 DWORD PTR [ecx+132]
  00606	8b 55 fc	 mov	 edx, DWORD PTR _this$[ebp]
  00609	da 72 68	 fidiv	 DWORD PTR [edx+104]
  0060c	dc 05 00 00 00
	00		 fadd	 QWORD PTR __real@3fe0000000000000
  00612	e8 00 00 00 00	 call	 __ftol2
  00617	8b 4d fc	 mov	 ecx, DWORD PTR _this$[ebp]
  0061a	89 41 54	 mov	 DWORD PTR [ecx+84], eax

; 186  : 			DynamicStat(set_Down);

  0061d	6a 02		 push	 2
  0061f	8b 4d fc	 mov	 ecx, DWORD PTR _this$[ebp]
  00622	e8 00 00 00 00	 call	 ?DynamicStat@CColorSlide@@IAEXW4ENUM_SLIDERSTATE@@@Z ; CColorSlide::DynamicStat

; 187  : 			::SendMessage(GetParent()->GetSafeHwnd(),WM_HSCROLL,0,(LPARAM)this->m_hWnd);

  00627	8b 55 fc	 mov	 edx, DWORD PTR _this$[ebp]
  0062a	8b 42 20	 mov	 eax, DWORD PTR [edx+32]
  0062d	50		 push	 eax
  0062e	6a 00		 push	 0
  00630	68 14 01 00 00	 push	 276			; 00000114H
  00635	8b 4d fc	 mov	 ecx, DWORD PTR _this$[ebp]
  00638	e8 00 00 00 00	 call	 ?GetParent@CWnd@@QBEPAV1@XZ ; CWnd::GetParent
  0063d	8b c8		 mov	 ecx, eax
  0063f	e8 00 00 00 00	 call	 ?GetSafeHwnd@CWnd@@QBEPAUHWND__@@XZ ; CWnd::GetSafeHwnd
  00644	50		 push	 eax
  00645	ff 15 00 00 00
	00		 call	 DWORD PTR __imp__SendMessageA@16
$L197941:

; 188  : 		}
; 189  : 	}
; 190  : 	return CSliderCtrl::OnMouseMove(nFlags, point);

  0064b	8b 4d 10	 mov	 ecx, DWORD PTR _point$[ebp+4]
  0064e	51		 push	 ecx
  0064f	8b 55 0c	 mov	 edx, DWORD PTR _point$[ebp]
  00652	52		 push	 edx
  00653	8b 45 08	 mov	 eax, DWORD PTR _nFlags$[ebp]
  00656	50		 push	 eax
  00657	8b 4d fc	 mov	 ecx, DWORD PTR _this$[ebp]
  0065a	e8 00 00 00 00	 call	 ?OnMouseMove@CWnd@@IAEXIVCPoint@@@Z ; CWnd::OnMouseMove
$L197939:

; 191  : }

  0065f	8b e5		 mov	 esp, ebp
  00661	5d		 pop	 ebp
  00662	c2 0c 00	 ret	 12			; 0000000cH
?OnMouseMove@CColorSlide@@IAEXIVCPoint@@@Z ENDP		; CColorSlide::OnMouseMove
_TEXT	ENDS
PUBLIC	?GetSafeHdc@CDC@@QBEPAUHDC__@@XZ		; CDC::GetSafeHdc
PUBLIC	?GetClientRect@CWnd@@QBEXPAUtagRECT@@@Z		; CWnd::GetClientRect
PUBLIC	?GetWindowDC@CWnd@@QAEPAVCDC@@XZ		; CWnd::GetWindowDC
PUBLIC	?ReleaseDC@CWnd@@QAEHPAVCDC@@@Z			; CWnd::ReleaseDC
PUBLIC	??0CRect@@QAE@XZ				; CRect::CRect
PUBLIC	??0CRect@@QAE@HHHH@Z				; CRect::CRect
PUBLIC	?Width@CRect@@QBEHXZ				; CRect::Width
PUBLIC	?Height@CRect@@QBEHXZ				; CRect::Height
PUBLIC	??BCRect@@QAEPAUtagRECT@@XZ			; CRect::operator tagRECT *
PUBLIC	??0CMemDC@@QAE@PAVCDC@@ABVCRect@@@Z		; CMemDC::CMemDC
PUBLIC	??1CMemDC@@UAE@XZ				; CMemDC::~CMemDC
PUBLIC	?DrawSlider@CColorSlide@@IAEXW4ENUM_SLIDERSTATE@@VCRect@@PAUHDC__@@@Z ; CColorSlide::DrawSlider
PUBLIC	?PaintBK@CColorSlide@@IAEXVCRect@@PAUHDC__@@@Z	; CColorSlide::PaintBK
EXTRN	__except_list:DWORD
EXTRN	___CxxFrameHandler:NEAR
EXTRN	__imp__BitBlt@36:NEAR
xdata$x	SEGMENT
$T198657 DD	0ffffffffH
	DD	FLAT:$L198650
$T198654 DD	019930520H
	DD	01H
	DD	FLAT:$T198657
	DD	2 DUP(00H)
	DD	2 DUP(00H)
; Function compile flags: /Odt
xdata$x	ENDS
_TEXT	SEGMENT
_this$ = -96						; size = 4
$T198649 = -92						; size = 16
_lrcClientRect$ = -76					; size = 16
_pDC$ = -60						; size = 4
_TempDC$ = -56						; size = 44
__$EHRec$ = -12						; size = 12
_aState$ = 8						; size = 4
?DynamicStat@CColorSlide@@IAEXW4ENUM_SLIDERSTATE@@@Z PROC NEAR ; CColorSlide::DynamicStat
; _this$ = ecx

; 194  : {

  00670	55		 push	 ebp
  00671	8b ec		 mov	 ebp, esp
  00673	6a ff		 push	 -1
  00675	68 00 00 00 00	 push	 __ehhandler$?DynamicStat@CColorSlide@@IAEXW4ENUM_SLIDERSTATE@@@Z
  0067a	64 a1 00 00 00
	00		 mov	 eax, DWORD PTR fs:__except_list
  00680	50		 push	 eax
  00681	64 89 25 00 00
	00 00		 mov	 DWORD PTR fs:__except_list, esp
  00688	83 ec 54	 sub	 esp, 84			; 00000054H
  0068b	89 4d a0	 mov	 DWORD PTR _this$[ebp], ecx

; 195  : 	if (m_nWidth <= 0)

  0068e	8b 45 a0	 mov	 eax, DWORD PTR _this$[ebp]
  00691	83 78 60 00	 cmp	 DWORD PTR [eax+96], 0
  00695	7f 05		 jg	 SHORT $L197955

; 196  : 	{
; 197  : 		return;

  00697	e9 3c 01 00 00	 jmp	 $L197954
$L197955:

; 198  : 	}
; 199  : 	CDC* pDC =GetWindowDC();	

  0069c	8b 4d a0	 mov	 ecx, DWORD PTR _this$[ebp]
  0069f	e8 00 00 00 00	 call	 ?GetWindowDC@CWnd@@QAEPAVCDC@@XZ ; CWnd::GetWindowDC
  006a4	89 45 c4	 mov	 DWORD PTR _pDC$[ebp], eax

; 200  : 	if (pDC == NULL)

  006a7	83 7d c4 00	 cmp	 DWORD PTR _pDC$[ebp], 0
  006ab	75 05		 jne	 SHORT $L197957

; 201  : 	{
; 202  : 		return;

  006ad	e9 26 01 00 00	 jmp	 $L197954
$L197957:

; 203  : 	}
; 204  : 	pDC->SetBkColor(TRANSPARENT);

  006b2	6a 01		 push	 1
  006b4	8b 4d c4	 mov	 ecx, DWORD PTR _pDC$[ebp]
  006b7	8b 11		 mov	 edx, DWORD PTR [ecx]
  006b9	8b 4d c4	 mov	 ecx, DWORD PTR _pDC$[ebp]
  006bc	ff 52 34	 call	 DWORD PTR [edx+52]

; 205  : 	CRect lrcClientRect;

  006bf	8d 4d b4	 lea	 ecx, DWORD PTR _lrcClientRect$[ebp]
  006c2	e8 00 00 00 00	 call	 ??0CRect@@QAE@XZ	; CRect::CRect

; 206  : 	GetClientRect(lrcClientRect);

  006c7	8d 4d b4	 lea	 ecx, DWORD PTR _lrcClientRect$[ebp]
  006ca	e8 00 00 00 00	 call	 ??BCRect@@QAEPAUtagRECT@@XZ ; CRect::operator tagRECT *
  006cf	50		 push	 eax
  006d0	8b 4d a0	 mov	 ecx, DWORD PTR _this$[ebp]
  006d3	e8 00 00 00 00	 call	 ?GetClientRect@CWnd@@QBEXPAUtagRECT@@@Z ; CWnd::GetClientRect

; 207  : 	m_nWidth = lrcClientRect.Width();

  006d8	8d 4d b4	 lea	 ecx, DWORD PTR _lrcClientRect$[ebp]
  006db	e8 00 00 00 00	 call	 ?Width@CRect@@QBEHXZ	; CRect::Width
  006e0	8b 4d a0	 mov	 ecx, DWORD PTR _this$[ebp]
  006e3	89 41 60	 mov	 DWORD PTR [ecx+96], eax

; 208  : 	lrcClientRect.bottom;
; 209  : 	m_nHeight = lrcClientRect.Height();

  006e6	8d 4d b4	 lea	 ecx, DWORD PTR _lrcClientRect$[ebp]
  006e9	e8 00 00 00 00	 call	 ?Height@CRect@@QBEHXZ	; CRect::Height
  006ee	8b 55 a0	 mov	 edx, DWORD PTR _this$[ebp]
  006f1	89 42 64	 mov	 DWORD PTR [edx+100], eax

; 210  : 
; 211  : 	CMemDC TempDC(pDC, CRect(lrcClientRect.left, lrcClientRect.top,lrcClientRect.right, lrcClientRect.bottom));

  006f4	8b 45 c0	 mov	 eax, DWORD PTR _lrcClientRect$[ebp+12]
  006f7	50		 push	 eax
  006f8	8b 4d bc	 mov	 ecx, DWORD PTR _lrcClientRect$[ebp+8]
  006fb	51		 push	 ecx
  006fc	8b 55 b8	 mov	 edx, DWORD PTR _lrcClientRect$[ebp+4]
  006ff	52		 push	 edx
  00700	8b 45 b4	 mov	 eax, DWORD PTR _lrcClientRect$[ebp]
  00703	50		 push	 eax
  00704	8d 4d a4	 lea	 ecx, DWORD PTR $T198649[ebp]
  00707	e8 00 00 00 00	 call	 ??0CRect@@QAE@HHHH@Z	; CRect::CRect
  0070c	50		 push	 eax
  0070d	8b 4d c4	 mov	 ecx, DWORD PTR _pDC$[ebp]
  00710	51		 push	 ecx
  00711	8d 4d c8	 lea	 ecx, DWORD PTR _TempDC$[ebp]
  00714	e8 00 00 00 00	 call	 ??0CMemDC@@QAE@PAVCDC@@ABVCRect@@@Z ; CMemDC::CMemDC
  00719	c7 45 fc 00 00
	00 00		 mov	 DWORD PTR __$EHRec$[ebp+8], 0

; 212  : 	PaintBK(lrcClientRect,TempDC.GetSafeHdc());

  00720	8d 4d c8	 lea	 ecx, DWORD PTR _TempDC$[ebp]
  00723	e8 00 00 00 00	 call	 ?GetSafeHdc@CDC@@QBEPAUHDC__@@XZ ; CDC::GetSafeHdc
  00728	50		 push	 eax
  00729	83 ec 10	 sub	 esp, 16			; 00000010H
  0072c	8b d4		 mov	 edx, esp
  0072e	8b 45 b4	 mov	 eax, DWORD PTR _lrcClientRect$[ebp]
  00731	89 02		 mov	 DWORD PTR [edx], eax
  00733	8b 4d b8	 mov	 ecx, DWORD PTR _lrcClientRect$[ebp+4]
  00736	89 4a 04	 mov	 DWORD PTR [edx+4], ecx
  00739	8b 45 bc	 mov	 eax, DWORD PTR _lrcClientRect$[ebp+8]
  0073c	89 42 08	 mov	 DWORD PTR [edx+8], eax
  0073f	8b 4d c0	 mov	 ecx, DWORD PTR _lrcClientRect$[ebp+12]
  00742	89 4a 0c	 mov	 DWORD PTR [edx+12], ecx
  00745	8b 4d a0	 mov	 ecx, DWORD PTR _this$[ebp]
  00748	e8 00 00 00 00	 call	 ?PaintBK@CColorSlide@@IAEXVCRect@@PAUHDC__@@@Z ; CColorSlide::PaintBK

; 213  : 	if( m_SlideType != PERCENT_SLIDE ) 

  0074d	8b 55 a0	 mov	 edx, DWORD PTR _this$[ebp]
  00750	83 ba 80 00 00
	00 00		 cmp	 DWORD PTR [edx+128], 0
  00757	74 31		 je	 SHORT $L197961

; 214  : 	DrawSlider(aState,lrcClientRect,TempDC.GetSafeHdc());

  00759	8d 4d c8	 lea	 ecx, DWORD PTR _TempDC$[ebp]
  0075c	e8 00 00 00 00	 call	 ?GetSafeHdc@CDC@@QBEPAUHDC__@@XZ ; CDC::GetSafeHdc
  00761	50		 push	 eax
  00762	83 ec 10	 sub	 esp, 16			; 00000010H
  00765	8b c4		 mov	 eax, esp
  00767	8b 4d b4	 mov	 ecx, DWORD PTR _lrcClientRect$[ebp]
  0076a	89 08		 mov	 DWORD PTR [eax], ecx
  0076c	8b 55 b8	 mov	 edx, DWORD PTR _lrcClientRect$[ebp+4]
  0076f	89 50 04	 mov	 DWORD PTR [eax+4], edx
  00772	8b 4d bc	 mov	 ecx, DWORD PTR _lrcClientRect$[ebp+8]
  00775	89 48 08	 mov	 DWORD PTR [eax+8], ecx
  00778	8b 55 c0	 mov	 edx, DWORD PTR _lrcClientRect$[ebp+12]
  0077b	89 50 0c	 mov	 DWORD PTR [eax+12], edx
  0077e	8b 45 08	 mov	 eax, DWORD PTR _aState$[ebp]
  00781	50		 push	 eax
  00782	8b 4d a0	 mov	 ecx, DWORD PTR _this$[ebp]
  00785	e8 00 00 00 00	 call	 ?DrawSlider@CColorSlide@@IAEXW4ENUM_SLIDERSTATE@@VCRect@@PAUHDC__@@@Z ; CColorSlide::DrawSlider
$L197961:

; 215  : 	BitBlt(pDC->GetSafeHdc(),0,0,m_nWidth,m_nHeight,TempDC.GetSafeHdc(),0,0,SRCCOPY);

  0078a	68 20 00 cc 00	 push	 13369376		; 00cc0020H
  0078f	6a 00		 push	 0
  00791	6a 00		 push	 0
  00793	8d 4d c8	 lea	 ecx, DWORD PTR _TempDC$[ebp]
  00796	e8 00 00 00 00	 call	 ?GetSafeHdc@CDC@@QBEPAUHDC__@@XZ ; CDC::GetSafeHdc
  0079b	50		 push	 eax
  0079c	8b 4d a0	 mov	 ecx, DWORD PTR _this$[ebp]
  0079f	8b 51 64	 mov	 edx, DWORD PTR [ecx+100]
  007a2	52		 push	 edx
  007a3	8b 45 a0	 mov	 eax, DWORD PTR _this$[ebp]
  007a6	8b 48 60	 mov	 ecx, DWORD PTR [eax+96]
  007a9	51		 push	 ecx
  007aa	6a 00		 push	 0
  007ac	6a 00		 push	 0
  007ae	8b 4d c4	 mov	 ecx, DWORD PTR _pDC$[ebp]
  007b1	e8 00 00 00 00	 call	 ?GetSafeHdc@CDC@@QBEPAUHDC__@@XZ ; CDC::GetSafeHdc
  007b6	50		 push	 eax
  007b7	ff 15 00 00 00
	00		 call	 DWORD PTR __imp__BitBlt@36

; 216  : 	ReleaseDC(pDC);

  007bd	8b 55 c4	 mov	 edx, DWORD PTR _pDC$[ebp]
  007c0	52		 push	 edx
  007c1	8b 4d a0	 mov	 ecx, DWORD PTR _this$[ebp]
  007c4	e8 00 00 00 00	 call	 ?ReleaseDC@CWnd@@QAEHPAVCDC@@@Z ; CWnd::ReleaseDC

; 217  : }

  007c9	c7 45 fc ff ff
	ff ff		 mov	 DWORD PTR __$EHRec$[ebp+8], -1
  007d0	8d 4d c8	 lea	 ecx, DWORD PTR _TempDC$[ebp]
  007d3	e8 00 00 00 00	 call	 ??1CMemDC@@UAE@XZ	; CMemDC::~CMemDC
$L197954:
  007d8	8b 4d f4	 mov	 ecx, DWORD PTR __$EHRec$[ebp]
  007db	64 89 0d 00 00
	00 00		 mov	 DWORD PTR fs:__except_list, ecx
  007e2	8b e5		 mov	 esp, ebp
  007e4	5d		 pop	 ebp
  007e5	c2 04 00	 ret	 4
_TEXT	ENDS
text$x	SEGMENT
$L198650:
  00000	8d 4d c8	 lea	 ecx, DWORD PTR _TempDC$[ebp]
  00003	e9 00 00 00 00	 jmp	 ??1CMemDC@@UAE@XZ	; CMemDC::~CMemDC
__ehhandler$?DynamicStat@CColorSlide@@IAEXW4ENUM_SLIDERSTATE@@@Z:
  00008	b8 00 00 00 00	 mov	 eax, OFFSET FLAT:$T198654
  0000d	e9 00 00 00 00	 jmp	 ___CxxFrameHandler
text$x	ENDS
?DynamicStat@CColorSlide@@IAEXW4ENUM_SLIDERSTATE@@@Z ENDP ; CColorSlide::DynamicStat
EXTRN	?DrawArrow@CBitMapOperate@@UAEXPAUHDC__@@KHHHHHHH@Z:NEAR ; CBitMapOperate::DrawArrow
EXTRN	?gBitMapOperate@@3VCBitMapOperate@@A:BYTE	; gBitMapOperate
; Function compile flags: /Odt
_TEXT	SEGMENT
_this$ = -20						; size = 4
_lrRect$ = -16						; size = 16
_aState$ = 8						; size = 4
_aRect$ = 12						; size = 16
_hMemDC$ = 28						; size = 4
?DrawSlider@CColorSlide@@IAEXW4ENUM_SLIDERSTATE@@VCRect@@PAUHDC__@@@Z PROC NEAR ; CColorSlide::DrawSlider
; _this$ = ecx

; 220  : {

  007f0	55		 push	 ebp
  007f1	8b ec		 mov	 ebp, esp
  007f3	83 ec 14	 sub	 esp, 20			; 00000014H
  007f6	89 4d ec	 mov	 DWORD PTR _this$[ebp], ecx

; 221  : 
; 222  : 	CRect lrRect = aRect;

  007f9	8b 45 0c	 mov	 eax, DWORD PTR _aRect$[ebp]
  007fc	89 45 f0	 mov	 DWORD PTR _lrRect$[ebp], eax
  007ff	8b 4d 10	 mov	 ecx, DWORD PTR _aRect$[ebp+4]
  00802	89 4d f4	 mov	 DWORD PTR _lrRect$[ebp+4], ecx
  00805	8b 55 14	 mov	 edx, DWORD PTR _aRect$[ebp+8]
  00808	89 55 f8	 mov	 DWORD PTR _lrRect$[ebp+8], edx
  0080b	8b 45 18	 mov	 eax, DWORD PTR _aRect$[ebp+12]
  0080e	89 45 fc	 mov	 DWORD PTR _lrRect$[ebp+12], eax

; 223  : 	lrRect.top = aRect.top + 9;

  00811	8b 4d 10	 mov	 ecx, DWORD PTR _aRect$[ebp+4]
  00814	83 c1 09	 add	 ecx, 9
  00817	89 4d f4	 mov	 DWORD PTR _lrRect$[ebp+4], ecx

; 224  : 	lrRect.bottom = lrRect.top + 7;

  0081a	8b 55 f4	 mov	 edx, DWORD PTR _lrRect$[ebp+4]
  0081d	83 c2 07	 add	 edx, 7
  00820	89 55 fc	 mov	 DWORD PTR _lrRect$[ebp+12], edx

; 225  : 	lrRect.left = m_iStatePosX+TRACKBAR_INTERVAL-1;

  00823	8b 45 ec	 mov	 eax, DWORD PTR _this$[ebp]
  00826	8b 88 84 00 00
	00		 mov	 ecx, DWORD PTR [eax+132]
  0082c	83 c1 03	 add	 ecx, 3
  0082f	89 4d f0	 mov	 DWORD PTR _lrRect$[ebp], ecx

; 226  : 	if( m_iStatePosX == 0)

  00832	8b 55 ec	 mov	 edx, DWORD PTR _this$[ebp]
  00835	83 ba 84 00 00
	00 00		 cmp	 DWORD PTR [edx+132], 0
  0083c	75 0f		 jne	 SHORT $L197970

; 227  : 	{
; 228  : 		lrRect.left = m_iStatePosX+TRACKBAR_INTERVAL;

  0083e	8b 45 ec	 mov	 eax, DWORD PTR _this$[ebp]
  00841	8b 88 84 00 00
	00		 mov	 ecx, DWORD PTR [eax+132]
  00847	83 c1 04	 add	 ecx, 4
  0084a	89 4d f0	 mov	 DWORD PTR _lrRect$[ebp], ecx
$L197970:

; 229  : 	}
; 230  : 	if( lrRect.left< 0)

  0084d	83 7d f0 00	 cmp	 DWORD PTR _lrRect$[ebp], 0
  00851	7d 07		 jge	 SHORT $L197971

; 231  : 	{
; 232  : 		lrRect.left = 0;

  00853	c7 45 f0 00 00
	00 00		 mov	 DWORD PTR _lrRect$[ebp], 0
$L197971:

; 233  : 	}
; 234  : 	lrRect.right = lrRect.left + 4;

  0085a	8b 55 f0	 mov	 edx, DWORD PTR _lrRect$[ebp]
  0085d	83 c2 04	 add	 edx, 4
  00860	89 55 f8	 mov	 DWORD PTR _lrRect$[ebp+8], edx

; 235  : 	
; 236  : 	gBitMapOperate.DrawArrow(hMemDC, RGB(100,100,100),lrRect.left,lrRect.top,lrRect.left-4,lrRect.bottom,lrRect.right,lrRect.bottom,true);

  00863	6a 01		 push	 1
  00865	8b 45 fc	 mov	 eax, DWORD PTR _lrRect$[ebp+12]
  00868	50		 push	 eax
  00869	8b 4d f8	 mov	 ecx, DWORD PTR _lrRect$[ebp+8]
  0086c	51		 push	 ecx
  0086d	8b 55 fc	 mov	 edx, DWORD PTR _lrRect$[ebp+12]
  00870	52		 push	 edx
  00871	8b 45 f0	 mov	 eax, DWORD PTR _lrRect$[ebp]
  00874	83 e8 04	 sub	 eax, 4
  00877	50		 push	 eax
  00878	8b 4d f4	 mov	 ecx, DWORD PTR _lrRect$[ebp+4]
  0087b	51		 push	 ecx
  0087c	8b 55 f0	 mov	 edx, DWORD PTR _lrRect$[ebp]
  0087f	52		 push	 edx
  00880	68 64 64 64 00	 push	 6579300			; 00646464H
  00885	8b 45 1c	 mov	 eax, DWORD PTR _hMemDC$[ebp]
  00888	50		 push	 eax
  00889	b9 00 00 00 00	 mov	 ecx, OFFSET FLAT:?gBitMapOperate@@3VCBitMapOperate@@A
  0088e	e8 00 00 00 00	 call	 ?DrawArrow@CBitMapOperate@@UAEXPAUHDC__@@KHHHHHHH@Z ; CBitMapOperate::DrawArrow

; 237  : }

  00893	8b e5		 mov	 esp, ebp
  00895	5d		 pop	 ebp
  00896	c2 18 00	 ret	 24			; 00000018H
?DrawSlider@CColorSlide@@IAEXW4ENUM_SLIDERSTATE@@VCRect@@PAUHDC__@@@Z ENDP ; CColorSlide::DrawSlider
_TEXT	ENDS
PUBLIC	??0CRect@@QAE@ABUtagRECT@@@Z			; CRect::CRect
PUBLIC	?FillRect@CDC@@QAEXPBUtagRECT@@PAVCBrush@@@Z	; CDC::FillRect
PUBLIC	?FrameRect@CDC@@QAEXPBUtagRECT@@PAVCBrush@@@Z	; CDC::FrameRect
PUBLIC	??1CBrush@@UAE@XZ				; CBrush::~CBrush
EXTRN	?FromHandle@CDC@@SGPAV1@PAUHDC__@@@Z:NEAR	; CDC::FromHandle
EXTRN	?getColor@CWndColorMgr@@QAEPAUCtrColBase@@I@Z:NEAR ; CWndColorMgr::getColor
EXTRN	__imp__SetBkMode@8:NEAR
EXTRN	?gWndColor@@3VCWndColorMgr@@A:DWORD		; gWndColor
EXTRN	__imp__GetBkColor@4:NEAR
EXTRN	__imp__InflateRect@12:NEAR
EXTRN	??0CBrush@@QAE@K@Z:NEAR				; CBrush::CBrush
EXTRN	?FillRectangleHue@CBitMapOperate@@UAEXPAUHDC__@@UtagRECT@@KKW4ENUM_DrawOrientation@1@HI@Z:NEAR ; CBitMapOperate::FillRectangleHue
EXTRN	?FillRectangleLight@CBitMapOperate@@UAEXPAUHDC__@@UtagRECT@@KKIW4ENUM_DrawOrientation@1@HI@Z:NEAR ; CBitMapOperate::FillRectangleLight
EXTRN	?FillRectangleS@CBitMapOperate@@QAEXPAUHDC__@@UtagRECT@@KKIW4ENUM_DrawOrientation@1@HI@Z:NEAR ; CBitMapOperate::FillRectangleS
EXTRN	?FillRectangle@CBitMapOperate@@UAEXPAUHDC__@@UtagRECT@@KH@Z:NEAR ; CBitMapOperate::FillRectangle
xdata$x	SEGMENT
$T198676 DD	0ffffffffH
	DD	FLAT:$L198669
	DD	0ffffffffH
	DD	FLAT:$L198670
	DD	0ffffffffH
	DD	FLAT:$L198671
$T198673 DD	019930520H
	DD	03H
	DD	FLAT:$T198676
	DD	2 DUP(00H)
	DD	2 DUP(00H)
; Function compile flags: /Odt
xdata$x	ENDS
_TEXT	SEGMENT
tv211 = -144						; size = 4
tv214 = -140						; size = 4
tv178 = -136						; size = 4
tv209 = -132						; size = 4
tv213 = -128						; size = 4
tv159 = -124						; size = 4
tv129 = -120						; size = 4
tv207 = -116						; size = 4
tv212 = -112						; size = 4
_this$ = -108						; size = 4
$T198668 = -104						; size = 8
$T198665 = -96						; size = 8
$T198662 = -88						; size = 8
$T198661 = -80						; size = 16
_lrect2$197997 = -64					; size = 16
_lrect1$197995 = -48					; size = 16
_lrcTrack$ = -32					; size = 16
_lcolorBack$ = -16					; size = 4
__$EHRec$ = -12						; size = 12
_aRect$ = 8						; size = 16
_hMemDC$ = 24						; size = 4
?PaintBK@CColorSlide@@IAEXVCRect@@PAUHDC__@@@Z PROC NEAR ; CColorSlide::PaintBK
; _this$ = ecx

; 240  : {

  008a0	55		 push	 ebp
  008a1	8b ec		 mov	 ebp, esp
  008a3	6a ff		 push	 -1
  008a5	68 00 00 00 00	 push	 __ehhandler$?PaintBK@CColorSlide@@IAEXVCRect@@PAUHDC__@@@Z
  008aa	64 a1 00 00 00
	00		 mov	 eax, DWORD PTR fs:__except_list
  008b0	50		 push	 eax
  008b1	64 89 25 00 00
	00 00		 mov	 DWORD PTR fs:__except_list, esp
  008b8	81 ec 84 00 00
	00		 sub	 esp, 132		; 00000084H
  008be	89 4d 94	 mov	 DWORD PTR _this$[ebp], ecx

; 241  : 	::SetBkMode(hMemDC,TRANSPARENT);

  008c1	6a 01		 push	 1
  008c3	8b 45 18	 mov	 eax, DWORD PTR _hMemDC$[ebp]
  008c6	50		 push	 eax
  008c7	ff 15 00 00 00
	00		 call	 DWORD PTR __imp__SetBkMode@8

; 242  : 
; 243  : 
; 244  : 
; 245  : 	COLORREF lcolorBack = ::GetBkColor(hMemDC);

  008cd	8b 4d 18	 mov	 ecx, DWORD PTR _hMemDC$[ebp]
  008d0	51		 push	 ecx
  008d1	ff 15 00 00 00
	00		 call	 DWORD PTR __imp__GetBkColor@4
  008d7	89 45 f0	 mov	 DWORD PTR _lcolorBack$[ebp], eax

; 246  : 	gBitMapOperate.FillRectangle(hMemDC, aRect, lcolorBack, true ) ;

  008da	8b 55 08	 mov	 edx, DWORD PTR _aRect$[ebp]
  008dd	89 55 b0	 mov	 DWORD PTR $T198661[ebp], edx
  008e0	8b 45 0c	 mov	 eax, DWORD PTR _aRect$[ebp+4]
  008e3	89 45 b4	 mov	 DWORD PTR $T198661[ebp+4], eax
  008e6	8b 4d 10	 mov	 ecx, DWORD PTR _aRect$[ebp+8]
  008e9	89 4d b8	 mov	 DWORD PTR $T198661[ebp+8], ecx
  008ec	8b 55 14	 mov	 edx, DWORD PTR _aRect$[ebp+12]
  008ef	89 55 bc	 mov	 DWORD PTR $T198661[ebp+12], edx
  008f2	6a 01		 push	 1
  008f4	8b 45 f0	 mov	 eax, DWORD PTR _lcolorBack$[ebp]
  008f7	50		 push	 eax
  008f8	83 ec 10	 sub	 esp, 16			; 00000010H
  008fb	8b cc		 mov	 ecx, esp
  008fd	8b 55 b0	 mov	 edx, DWORD PTR $T198661[ebp]
  00900	89 11		 mov	 DWORD PTR [ecx], edx
  00902	8b 45 b4	 mov	 eax, DWORD PTR $T198661[ebp+4]
  00905	89 41 04	 mov	 DWORD PTR [ecx+4], eax
  00908	8b 55 b8	 mov	 edx, DWORD PTR $T198661[ebp+8]
  0090b	89 51 08	 mov	 DWORD PTR [ecx+8], edx
  0090e	8b 45 bc	 mov	 eax, DWORD PTR $T198661[ebp+12]
  00911	89 41 0c	 mov	 DWORD PTR [ecx+12], eax
  00914	8b 4d 18	 mov	 ecx, DWORD PTR _hMemDC$[ebp]
  00917	51		 push	 ecx
  00918	b9 00 00 00 00	 mov	 ecx, OFFSET FLAT:?gBitMapOperate@@3VCBitMapOperate@@A
  0091d	e8 00 00 00 00	 call	 ?FillRectangle@CBitMapOperate@@UAEXPAUHDC__@@UtagRECT@@KH@Z ; CBitMapOperate::FillRectangle

; 247  : 
; 248  : 	RECT lrcTrack     = aRect;

  00922	8b 55 08	 mov	 edx, DWORD PTR _aRect$[ebp]
  00925	89 55 e0	 mov	 DWORD PTR _lrcTrack$[ebp], edx
  00928	8b 45 0c	 mov	 eax, DWORD PTR _aRect$[ebp+4]
  0092b	89 45 e4	 mov	 DWORD PTR _lrcTrack$[ebp+4], eax
  0092e	8b 4d 10	 mov	 ecx, DWORD PTR _aRect$[ebp+8]
  00931	89 4d e8	 mov	 DWORD PTR _lrcTrack$[ebp+8], ecx
  00934	8b 55 14	 mov	 edx, DWORD PTR _aRect$[ebp+12]
  00937	89 55 ec	 mov	 DWORD PTR _lrcTrack$[ebp+12], edx

; 249  : 	lrcTrack.top     += 2;

  0093a	8b 45 e4	 mov	 eax, DWORD PTR _lrcTrack$[ebp+4]
  0093d	83 c0 02	 add	 eax, 2
  00940	89 45 e4	 mov	 DWORD PTR _lrcTrack$[ebp+4], eax

; 250  : 	lrcTrack.bottom   = lrcTrack.top+7;

  00943	8b 4d e4	 mov	 ecx, DWORD PTR _lrcTrack$[ebp+4]
  00946	83 c1 07	 add	 ecx, 7
  00949	89 4d ec	 mov	 DWORD PTR _lrcTrack$[ebp+12], ecx

; 251  : 	lrcTrack.left    += TRACKBAR_INTERVAL;

  0094c	8b 55 e0	 mov	 edx, DWORD PTR _lrcTrack$[ebp]
  0094f	83 c2 04	 add	 edx, 4
  00952	89 55 e0	 mov	 DWORD PTR _lrcTrack$[ebp], edx

; 252  : 	lrcTrack.right   -= TRACKBAR_INTERVAL;

  00955	8b 45 e8	 mov	 eax, DWORD PTR _lrcTrack$[ebp+8]
  00958	83 e8 04	 sub	 eax, 4
  0095b	89 45 e8	 mov	 DWORD PTR _lrcTrack$[ebp+8], eax

; 253  : 
; 254  : 	if( (m_iStatePosX)>=0 )

  0095e	8b 4d 94	 mov	 ecx, DWORD PTR _this$[ebp]
  00961	83 b9 84 00 00
	00 00		 cmp	 DWORD PTR [ecx+132], 0
  00968	0f 8c 7a 02 00
	00		 jl	 $L197982

; 255  : 	{
; 256  : 		CDC::FromHandle(hMemDC)->FrameRect( &lrcTrack,&CBrush( gWndColor.getColor(SLIDER_CTROL)->structColBase->colFrame1) );

  0096e	6a 06		 push	 6
  00970	b9 00 00 00 00	 mov	 ecx, OFFSET FLAT:?gWndColor@@3VCWndColorMgr@@A ; gWndColor
  00975	e8 00 00 00 00	 call	 ?getColor@CWndColorMgr@@QAEPAUCtrColBase@@I@Z ; CWndColorMgr::getColor
  0097a	8b 10		 mov	 edx, DWORD PTR [eax]
  0097c	8b 02		 mov	 eax, DWORD PTR [edx]
  0097e	50		 push	 eax
  0097f	8d 4d a8	 lea	 ecx, DWORD PTR $T198662[ebp]
  00982	e8 00 00 00 00	 call	 ??0CBrush@@QAE@K@Z	; CBrush::CBrush
  00987	89 45 90	 mov	 DWORD PTR tv212[ebp], eax
  0098a	8b 4d 90	 mov	 ecx, DWORD PTR tv212[ebp]
  0098d	89 4d 8c	 mov	 DWORD PTR tv207[ebp], ecx
  00990	c7 45 fc 00 00
	00 00		 mov	 DWORD PTR __$EHRec$[ebp+8], 0
  00997	8b 55 8c	 mov	 edx, DWORD PTR tv207[ebp]
  0099a	52		 push	 edx
  0099b	8d 45 e0	 lea	 eax, DWORD PTR _lrcTrack$[ebp]
  0099e	50		 push	 eax
  0099f	8b 4d 18	 mov	 ecx, DWORD PTR _hMemDC$[ebp]
  009a2	51		 push	 ecx
  009a3	e8 00 00 00 00	 call	 ?FromHandle@CDC@@SGPAV1@PAUHDC__@@@Z ; CDC::FromHandle
  009a8	8b c8		 mov	 ecx, eax
  009aa	e8 00 00 00 00	 call	 ?FrameRect@CDC@@QAEXPBUtagRECT@@PAVCBrush@@@Z ; CDC::FrameRect
  009af	c7 45 fc ff ff
	ff ff		 mov	 DWORD PTR __$EHRec$[ebp+8], -1
  009b6	8d 4d a8	 lea	 ecx, DWORD PTR $T198662[ebp]
  009b9	e8 00 00 00 00	 call	 ??1CBrush@@UAE@XZ	; CBrush::~CBrush

; 257  : 		::InflateRect(&lrcTrack,-1,-1);

  009be	6a ff		 push	 -1
  009c0	6a ff		 push	 -1
  009c2	8d 55 e0	 lea	 edx, DWORD PTR _lrcTrack$[ebp]
  009c5	52		 push	 edx
  009c6	ff 15 00 00 00
	00		 call	 DWORD PTR __imp__InflateRect@12

; 258  : 		switch(m_SlideType)

  009cc	8b 45 94	 mov	 eax, DWORD PTR _this$[ebp]
  009cf	8b 88 80 00 00
	00		 mov	 ecx, DWORD PTR [eax+128]
  009d5	89 4d 88	 mov	 DWORD PTR tv129[ebp], ecx
  009d8	83 7d 88 03	 cmp	 DWORD PTR tv129[ebp], 3
  009dc	0f 87 06 02 00
	00		 ja	 $L197982
  009e2	8b 55 88	 mov	 edx, DWORD PTR tv129[ebp]
  009e5	ff 24 95 00 00
	00 00		 jmp	 DWORD PTR $L198675[edx*4]
$L197992:

; 259  : 		{
; 260  : 		case LIGHT_SLIDE:
; 261  : 			gBitMapOperate.FillRectangleLight( hMemDC,lrcTrack,m_colBegain,m_colEnd,m_nHue, gBitMapOperate.edoHorizontal, true, (lrcTrack.right - lrcTrack.left) );

  009ec	8b 45 e8	 mov	 eax, DWORD PTR _lrcTrack$[ebp+8]
  009ef	2b 45 e0	 sub	 eax, DWORD PTR _lrcTrack$[ebp]
  009f2	50		 push	 eax
  009f3	6a 01		 push	 1
  009f5	6a 00		 push	 0
  009f7	8b 4d 94	 mov	 ecx, DWORD PTR _this$[ebp]
  009fa	8b 51 74	 mov	 edx, DWORD PTR [ecx+116]
  009fd	52		 push	 edx
  009fe	8b 45 94	 mov	 eax, DWORD PTR _this$[ebp]
  00a01	8b 48 70	 mov	 ecx, DWORD PTR [eax+112]
  00a04	51		 push	 ecx
  00a05	8b 55 94	 mov	 edx, DWORD PTR _this$[ebp]
  00a08	8b 42 6c	 mov	 eax, DWORD PTR [edx+108]
  00a0b	50		 push	 eax
  00a0c	83 ec 10	 sub	 esp, 16			; 00000010H
  00a0f	8b cc		 mov	 ecx, esp
  00a11	8b 55 e0	 mov	 edx, DWORD PTR _lrcTrack$[ebp]
  00a14	89 11		 mov	 DWORD PTR [ecx], edx
  00a16	8b 45 e4	 mov	 eax, DWORD PTR _lrcTrack$[ebp+4]
  00a19	89 41 04	 mov	 DWORD PTR [ecx+4], eax
  00a1c	8b 55 e8	 mov	 edx, DWORD PTR _lrcTrack$[ebp+8]
  00a1f	89 51 08	 mov	 DWORD PTR [ecx+8], edx
  00a22	8b 45 ec	 mov	 eax, DWORD PTR _lrcTrack$[ebp+12]
  00a25	89 41 0c	 mov	 DWORD PTR [ecx+12], eax
  00a28	8b 4d 18	 mov	 ecx, DWORD PTR _hMemDC$[ebp]
  00a2b	51		 push	 ecx
  00a2c	b9 00 00 00 00	 mov	 ecx, OFFSET FLAT:?gBitMapOperate@@3VCBitMapOperate@@A
  00a31	e8 00 00 00 00	 call	 ?FillRectangleLight@CBitMapOperate@@UAEXPAUHDC__@@UtagRECT@@KKIW4ENUM_DrawOrientation@1@HI@Z ; CBitMapOperate::FillRectangleLight

; 262  : 			break;

  00a36	e9 ad 01 00 00	 jmp	 $L197982
$L197993:

; 263  : 		case HUE_SLIDE:
; 264  : 			gBitMapOperate.FillRectangleHue( hMemDC,lrcTrack,m_colBegain,m_colEnd, gBitMapOperate.edoHorizontal, true, (lrcTrack.right - lrcTrack.left) );

  00a3b	8b 55 e8	 mov	 edx, DWORD PTR _lrcTrack$[ebp+8]
  00a3e	2b 55 e0	 sub	 edx, DWORD PTR _lrcTrack$[ebp]
  00a41	52		 push	 edx
  00a42	6a 01		 push	 1
  00a44	6a 00		 push	 0
  00a46	8b 45 94	 mov	 eax, DWORD PTR _this$[ebp]
  00a49	8b 48 70	 mov	 ecx, DWORD PTR [eax+112]
  00a4c	51		 push	 ecx
  00a4d	8b 55 94	 mov	 edx, DWORD PTR _this$[ebp]
  00a50	8b 42 6c	 mov	 eax, DWORD PTR [edx+108]
  00a53	50		 push	 eax
  00a54	83 ec 10	 sub	 esp, 16			; 00000010H
  00a57	8b cc		 mov	 ecx, esp
  00a59	8b 55 e0	 mov	 edx, DWORD PTR _lrcTrack$[ebp]
  00a5c	89 11		 mov	 DWORD PTR [ecx], edx
  00a5e	8b 45 e4	 mov	 eax, DWORD PTR _lrcTrack$[ebp+4]
  00a61	89 41 04	 mov	 DWORD PTR [ecx+4], eax
  00a64	8b 55 e8	 mov	 edx, DWORD PTR _lrcTrack$[ebp+8]
  00a67	89 51 08	 mov	 DWORD PTR [ecx+8], edx
  00a6a	8b 45 ec	 mov	 eax, DWORD PTR _lrcTrack$[ebp+12]
  00a6d	89 41 0c	 mov	 DWORD PTR [ecx+12], eax
  00a70	8b 4d 18	 mov	 ecx, DWORD PTR _hMemDC$[ebp]
  00a73	51		 push	 ecx
  00a74	b9 00 00 00 00	 mov	 ecx, OFFSET FLAT:?gBitMapOperate@@3VCBitMapOperate@@A
  00a79	e8 00 00 00 00	 call	 ?FillRectangleHue@CBitMapOperate@@UAEXPAUHDC__@@UtagRECT@@KKW4ENUM_DrawOrientation@1@HI@Z ; CBitMapOperate::FillRectangleHue

; 265  : 			break;

  00a7e	e9 65 01 00 00	 jmp	 $L197982
$L197994:

; 266  : 		case PERCENT_SLIDE:
; 267  : 			{
; 268  : 				CRect lrect1 = lrcTrack;

  00a83	8d 55 e0	 lea	 edx, DWORD PTR _lrcTrack$[ebp]
  00a86	52		 push	 edx
  00a87	8d 4d d0	 lea	 ecx, DWORD PTR _lrect1$197995[ebp]
  00a8a	e8 00 00 00 00	 call	 ??0CRect@@QAE@ABUtagRECT@@@Z ; CRect::CRect

; 269  : 				lrect1.right = lrect1.left>m_iStatePosX? lrect1.left:m_iStatePosX;

  00a8f	8b 45 94	 mov	 eax, DWORD PTR _this$[ebp]
  00a92	8b 4d d0	 mov	 ecx, DWORD PTR _lrect1$197995[ebp]
  00a95	3b 88 84 00 00
	00		 cmp	 ecx, DWORD PTR [eax+132]
  00a9b	7e 08		 jle	 SHORT $L198663
  00a9d	8b 55 d0	 mov	 edx, DWORD PTR _lrect1$197995[ebp]
  00aa0	89 55 84	 mov	 DWORD PTR tv159[ebp], edx
  00aa3	eb 0c		 jmp	 SHORT $L198664
$L198663:
  00aa5	8b 45 94	 mov	 eax, DWORD PTR _this$[ebp]
  00aa8	8b 88 84 00 00
	00		 mov	 ecx, DWORD PTR [eax+132]
  00aae	89 4d 84	 mov	 DWORD PTR tv159[ebp], ecx
$L198664:
  00ab1	8b 55 84	 mov	 edx, DWORD PTR tv159[ebp]
  00ab4	89 55 d8	 mov	 DWORD PTR _lrect1$197995[ebp+8], edx

; 270  : 				CDC::FromHandle(hMemDC)->FillRect( lrect1, &CBrush(m_colBegain ) );

  00ab7	8b 45 94	 mov	 eax, DWORD PTR _this$[ebp]
  00aba	8b 48 6c	 mov	 ecx, DWORD PTR [eax+108]
  00abd	51		 push	 ecx
  00abe	8d 4d a0	 lea	 ecx, DWORD PTR $T198665[ebp]
  00ac1	e8 00 00 00 00	 call	 ??0CBrush@@QAE@K@Z	; CBrush::CBrush
  00ac6	89 45 80	 mov	 DWORD PTR tv213[ebp], eax
  00ac9	8b 55 80	 mov	 edx, DWORD PTR tv213[ebp]
  00acc	89 95 7c ff ff
	ff		 mov	 DWORD PTR tv209[ebp], edx
  00ad2	c7 45 fc 01 00
	00 00		 mov	 DWORD PTR __$EHRec$[ebp+8], 1
  00ad9	8b 85 7c ff ff
	ff		 mov	 eax, DWORD PTR tv209[ebp]
  00adf	50		 push	 eax
  00ae0	8d 4d d0	 lea	 ecx, DWORD PTR _lrect1$197995[ebp]
  00ae3	e8 00 00 00 00	 call	 ??BCRect@@QAEPAUtagRECT@@XZ ; CRect::operator tagRECT *
  00ae8	50		 push	 eax
  00ae9	8b 4d 18	 mov	 ecx, DWORD PTR _hMemDC$[ebp]
  00aec	51		 push	 ecx
  00aed	e8 00 00 00 00	 call	 ?FromHandle@CDC@@SGPAV1@PAUHDC__@@@Z ; CDC::FromHandle
  00af2	8b c8		 mov	 ecx, eax
  00af4	e8 00 00 00 00	 call	 ?FillRect@CDC@@QAEXPBUtagRECT@@PAVCBrush@@@Z ; CDC::FillRect
  00af9	c7 45 fc ff ff
	ff ff		 mov	 DWORD PTR __$EHRec$[ebp+8], -1
  00b00	8d 4d a0	 lea	 ecx, DWORD PTR $T198665[ebp]
  00b03	e8 00 00 00 00	 call	 ??1CBrush@@UAE@XZ	; CBrush::~CBrush

; 271  : 				
; 272  : 				CRect lrect2 = lrcTrack;

  00b08	8d 55 e0	 lea	 edx, DWORD PTR _lrcTrack$[ebp]
  00b0b	52		 push	 edx
  00b0c	8d 4d c0	 lea	 ecx, DWORD PTR _lrect2$197997[ebp]
  00b0f	e8 00 00 00 00	 call	 ??0CRect@@QAE@ABUtagRECT@@@Z ; CRect::CRect

; 273  : 				lrect2.left = lrect2.left>m_iStatePosX? lrect2.left:m_iStatePosX ;

  00b14	8b 45 94	 mov	 eax, DWORD PTR _this$[ebp]
  00b17	8b 4d c0	 mov	 ecx, DWORD PTR _lrect2$197997[ebp]
  00b1a	3b 88 84 00 00
	00		 cmp	 ecx, DWORD PTR [eax+132]
  00b20	7e 0b		 jle	 SHORT $L198666
  00b22	8b 55 c0	 mov	 edx, DWORD PTR _lrect2$197997[ebp]
  00b25	89 95 78 ff ff
	ff		 mov	 DWORD PTR tv178[ebp], edx
  00b2b	eb 0f		 jmp	 SHORT $L198667
$L198666:
  00b2d	8b 45 94	 mov	 eax, DWORD PTR _this$[ebp]
  00b30	8b 88 84 00 00
	00		 mov	 ecx, DWORD PTR [eax+132]
  00b36	89 8d 78 ff ff
	ff		 mov	 DWORD PTR tv178[ebp], ecx
$L198667:
  00b3c	8b 95 78 ff ff
	ff		 mov	 edx, DWORD PTR tv178[ebp]
  00b42	89 55 c0	 mov	 DWORD PTR _lrect2$197997[ebp], edx

; 274  : 				CDC::FromHandle(hMemDC)->FillRect( lrect2, &CBrush( m_colEnd ) );

  00b45	8b 45 94	 mov	 eax, DWORD PTR _this$[ebp]
  00b48	8b 48 70	 mov	 ecx, DWORD PTR [eax+112]
  00b4b	51		 push	 ecx
  00b4c	8d 4d 98	 lea	 ecx, DWORD PTR $T198668[ebp]
  00b4f	e8 00 00 00 00	 call	 ??0CBrush@@QAE@K@Z	; CBrush::CBrush
  00b54	89 85 74 ff ff
	ff		 mov	 DWORD PTR tv214[ebp], eax
  00b5a	8b 95 74 ff ff
	ff		 mov	 edx, DWORD PTR tv214[ebp]
  00b60	89 95 70 ff ff
	ff		 mov	 DWORD PTR tv211[ebp], edx
  00b66	c7 45 fc 02 00
	00 00		 mov	 DWORD PTR __$EHRec$[ebp+8], 2
  00b6d	8b 85 70 ff ff
	ff		 mov	 eax, DWORD PTR tv211[ebp]
  00b73	50		 push	 eax
  00b74	8d 4d c0	 lea	 ecx, DWORD PTR _lrect2$197997[ebp]
  00b77	e8 00 00 00 00	 call	 ??BCRect@@QAEPAUtagRECT@@XZ ; CRect::operator tagRECT *
  00b7c	50		 push	 eax
  00b7d	8b 4d 18	 mov	 ecx, DWORD PTR _hMemDC$[ebp]
  00b80	51		 push	 ecx
  00b81	e8 00 00 00 00	 call	 ?FromHandle@CDC@@SGPAV1@PAUHDC__@@@Z ; CDC::FromHandle
  00b86	8b c8		 mov	 ecx, eax
  00b88	e8 00 00 00 00	 call	 ?FillRect@CDC@@QAEXPBUtagRECT@@PAVCBrush@@@Z ; CDC::FillRect
  00b8d	c7 45 fc ff ff
	ff ff		 mov	 DWORD PTR __$EHRec$[ebp+8], -1
  00b94	8d 4d 98	 lea	 ecx, DWORD PTR $T198668[ebp]
  00b97	e8 00 00 00 00	 call	 ??1CBrush@@UAE@XZ	; CBrush::~CBrush

; 275  : 			}
; 276  : 			break;

  00b9c	eb 4a		 jmp	 SHORT $L197982
$L197999:

; 277  : 		case S_SLIDE:
; 278  : 			gBitMapOperate.FillRectangleS( hMemDC,lrcTrack,m_colBegain,m_colEnd,m_nHue, gBitMapOperate.edoHorizontal, true, (lrcTrack.right - lrcTrack.left) );

  00b9e	8b 55 e8	 mov	 edx, DWORD PTR _lrcTrack$[ebp+8]
  00ba1	2b 55 e0	 sub	 edx, DWORD PTR _lrcTrack$[ebp]
  00ba4	52		 push	 edx
  00ba5	6a 01		 push	 1
  00ba7	6a 00		 push	 0
  00ba9	8b 45 94	 mov	 eax, DWORD PTR _this$[ebp]
  00bac	8b 48 74	 mov	 ecx, DWORD PTR [eax+116]
  00baf	51		 push	 ecx
  00bb0	8b 55 94	 mov	 edx, DWORD PTR _this$[ebp]
  00bb3	8b 42 70	 mov	 eax, DWORD PTR [edx+112]
  00bb6	50		 push	 eax
  00bb7	8b 4d 94	 mov	 ecx, DWORD PTR _this$[ebp]
  00bba	8b 51 6c	 mov	 edx, DWORD PTR [ecx+108]
  00bbd	52		 push	 edx
  00bbe	83 ec 10	 sub	 esp, 16			; 00000010H
  00bc1	8b c4		 mov	 eax, esp
  00bc3	8b 4d e0	 mov	 ecx, DWORD PTR _lrcTrack$[ebp]
  00bc6	89 08		 mov	 DWORD PTR [eax], ecx
  00bc8	8b 55 e4	 mov	 edx, DWORD PTR _lrcTrack$[ebp+4]
  00bcb	89 50 04	 mov	 DWORD PTR [eax+4], edx
  00bce	8b 4d e8	 mov	 ecx, DWORD PTR _lrcTrack$[ebp+8]
  00bd1	89 48 08	 mov	 DWORD PTR [eax+8], ecx
  00bd4	8b 55 ec	 mov	 edx, DWORD PTR _lrcTrack$[ebp+12]
  00bd7	89 50 0c	 mov	 DWORD PTR [eax+12], edx
  00bda	8b 45 18	 mov	 eax, DWORD PTR _hMemDC$[ebp]
  00bdd	50		 push	 eax
  00bde	b9 00 00 00 00	 mov	 ecx, OFFSET FLAT:?gBitMapOperate@@3VCBitMapOperate@@A
  00be3	e8 00 00 00 00	 call	 ?FillRectangleS@CBitMapOperate@@QAEXPAUHDC__@@UtagRECT@@KKIW4ENUM_DrawOrientation@1@HI@Z ; CBitMapOperate::FillRectangleS
$L197982:

; 279  :         break;
; 280  : 		default:
; 281  : 			break;
; 282  : 		}
; 283  : 	}
; 284  : }

  00be8	8b 4d f4	 mov	 ecx, DWORD PTR __$EHRec$[ebp]
  00beb	64 89 0d 00 00
	00 00		 mov	 DWORD PTR fs:__except_list, ecx
  00bf2	8b e5		 mov	 esp, ebp
  00bf4	5d		 pop	 ebp
  00bf5	c2 14 00	 ret	 20			; 00000014H
$L198675:
  00bf8	00 00 00 00	 DD	 $L197994
  00bfc	00 00 00 00	 DD	 $L197992
  00c00	00 00 00 00	 DD	 $L197993
  00c04	00 00 00 00	 DD	 $L197999
_TEXT	ENDS
text$x	SEGMENT
$L198669:
  00012	8d 4d a8	 lea	 ecx, DWORD PTR $T198662[ebp]
  00015	e9 00 00 00 00	 jmp	 ??1CBrush@@UAE@XZ	; CBrush::~CBrush
$L198670:
  0001a	8d 4d a0	 lea	 ecx, DWORD PTR $T198665[ebp]
  0001d	e9 00 00 00 00	 jmp	 ??1CBrush@@UAE@XZ	; CBrush::~CBrush
$L198671:
  00022	8d 4d 98	 lea	 ecx, DWORD PTR $T198668[ebp]
  00025	e9 00 00 00 00	 jmp	 ??1CBrush@@UAE@XZ	; CBrush::~CBrush
__ehhandler$?PaintBK@CColorSlide@@IAEXVCRect@@PAUHDC__@@@Z:
  0002a	b8 00 00 00 00	 mov	 eax, OFFSET FLAT:$T198673
  0002f	e9 00 00 00 00	 jmp	 ___CxxFrameHandler
text$x	ENDS
?PaintBK@CColorSlide@@IAEXVCRect@@PAUHDC__@@@Z ENDP	; CColorSlide::PaintBK
PUBLIC	?Invalidate@CWnd@@QAEXH@Z			; CWnd::Invalidate
PUBLIC	?AfxGetMainWnd@@YGPAVCWnd@@XZ			; AfxGetMainWnd
PUBLIC	?SetButtonPos@CColorSlide@@QAEXH@Z		; CColorSlide::SetButtonPos
; Function compile flags: /Odt
_TEXT	SEGMENT
tv165 = -8						; size = 4
_this$ = -4						; size = 4
_aiValue$ = 8						; size = 4
?SetButtonPos@CColorSlide@@QAEXH@Z PROC NEAR		; CColorSlide::SetButtonPos
; _this$ = ecx

; 287  : {

  00c10	55		 push	 ebp
  00c11	8b ec		 mov	 ebp, esp
  00c13	83 ec 08	 sub	 esp, 8
  00c16	89 4d fc	 mov	 DWORD PTR _this$[ebp], ecx

; 288  : 	if(aiValue > FMaxValue)

  00c19	8b 45 fc	 mov	 eax, DWORD PTR _this$[ebp]
  00c1c	8b 4d 08	 mov	 ecx, DWORD PTR _aiValue$[ebp]
  00c1f	3b 48 58	 cmp	 ecx, DWORD PTR [eax+88]
  00c22	7e 0e		 jle	 SHORT $L198005

; 289  : 	{
; 290  : 		FPosition = FMaxValue;

  00c24	8b 55 fc	 mov	 edx, DWORD PTR _this$[ebp]
  00c27	8b 45 fc	 mov	 eax, DWORD PTR _this$[ebp]
  00c2a	8b 48 58	 mov	 ecx, DWORD PTR [eax+88]
  00c2d	89 4a 54	 mov	 DWORD PTR [edx+84], ecx

; 291  : 	}
; 292  : 	else

  00c30	eb 22		 jmp	 SHORT $L198006
$L198005:

; 293  : 	{
; 294  : 		if(aiValue < FMinValue)

  00c32	8b 55 fc	 mov	 edx, DWORD PTR _this$[ebp]
  00c35	8b 45 08	 mov	 eax, DWORD PTR _aiValue$[ebp]
  00c38	3b 42 5c	 cmp	 eax, DWORD PTR [edx+92]
  00c3b	7d 0e		 jge	 SHORT $L198007

; 295  : 		{
; 296  : 			FPosition = FMinValue;

  00c3d	8b 4d fc	 mov	 ecx, DWORD PTR _this$[ebp]
  00c40	8b 55 fc	 mov	 edx, DWORD PTR _this$[ebp]
  00c43	8b 42 5c	 mov	 eax, DWORD PTR [edx+92]
  00c46	89 41 54	 mov	 DWORD PTR [ecx+84], eax

; 297  : 		}
; 298  : 		else

  00c49	eb 09		 jmp	 SHORT $L198006
$L198007:

; 299  : 		{
; 300  : 		FPosition = aiValue;

  00c4b	8b 4d fc	 mov	 ecx, DWORD PTR _this$[ebp]
  00c4e	8b 55 08	 mov	 edx, DWORD PTR _aiValue$[ebp]
  00c51	89 51 54	 mov	 DWORD PTR [ecx+84], edx
$L198006:

; 301  : 		}
; 302  : 	}
; 303  : 	m_nWidthPlay = m_nWidth-2*TRACKBAR_INTERVAL;

  00c54	8b 45 fc	 mov	 eax, DWORD PTR _this$[ebp]
  00c57	8b 48 60	 mov	 ecx, DWORD PTR [eax+96]
  00c5a	83 e9 08	 sub	 ecx, 8
  00c5d	8b 55 fc	 mov	 edx, DWORD PTR _this$[ebp]
  00c60	89 4a 68	 mov	 DWORD PTR [edx+104], ecx

; 304  : 	if(FMaxValue <=FMinValue)

  00c63	8b 45 fc	 mov	 eax, DWORD PTR _this$[ebp]
  00c66	8b 4d fc	 mov	 ecx, DWORD PTR _this$[ebp]
  00c69	8b 50 58	 mov	 edx, DWORD PTR [eax+88]
  00c6c	3b 51 5c	 cmp	 edx, DWORD PTR [ecx+92]
  00c6f	7f 0f		 jg	 SHORT $L198009

; 305  : 	{
; 306  : 		m_iStatePosX = 0;

  00c71	8b 45 fc	 mov	 eax, DWORD PTR _this$[ebp]
  00c74	c7 80 84 00 00
	00 00 00 00 00	 mov	 DWORD PTR [eax+132], 0

; 307  : 	}
; 308  : 	else

  00c7e	eb 38		 jmp	 SHORT $L198010
$L198009:

; 309  : 	{
; 310  : 		m_iStatePosX = (int)( ((float)FPosition-(float)FMinValue)/(float)(FMaxValue - FMinValue) * m_nWidthPlay+0.5);// +0.5 浮点计算进位补偿

  00c80	8b 4d fc	 mov	 ecx, DWORD PTR _this$[ebp]
  00c83	db 41 54	 fild	 DWORD PTR [ecx+84]
  00c86	8b 55 fc	 mov	 edx, DWORD PTR _this$[ebp]
  00c89	da 62 5c	 fisub	 DWORD PTR [edx+92]
  00c8c	8b 45 fc	 mov	 eax, DWORD PTR _this$[ebp]
  00c8f	8b 4d fc	 mov	 ecx, DWORD PTR _this$[ebp]
  00c92	8b 50 58	 mov	 edx, DWORD PTR [eax+88]
  00c95	2b 51 5c	 sub	 edx, DWORD PTR [ecx+92]
  00c98	89 55 f8	 mov	 DWORD PTR tv165[ebp], edx
  00c9b	da 75 f8	 fidiv	 DWORD PTR tv165[ebp]
  00c9e	8b 45 fc	 mov	 eax, DWORD PTR _this$[ebp]
  00ca1	da 48 68	 fimul	 DWORD PTR [eax+104]
  00ca4	dc 05 00 00 00
	00		 fadd	 QWORD PTR __real@3fe0000000000000
  00caa	e8 00 00 00 00	 call	 __ftol2
  00caf	8b 4d fc	 mov	 ecx, DWORD PTR _this$[ebp]
  00cb2	89 81 84 00 00
	00		 mov	 DWORD PTR [ecx+132], eax
$L198010:

; 311  : 	}
; 312  : 	::SendMessage(AfxGetMainWnd()->GetSafeHwnd(),WM_HSCROLL,0,(LPARAM)this->m_hWnd);

  00cb8	8b 55 fc	 mov	 edx, DWORD PTR _this$[ebp]
  00cbb	8b 42 20	 mov	 eax, DWORD PTR [edx+32]
  00cbe	50		 push	 eax
  00cbf	6a 00		 push	 0
  00cc1	68 14 01 00 00	 push	 276			; 00000114H
  00cc6	e8 00 00 00 00	 call	 ?AfxGetMainWnd@@YGPAVCWnd@@XZ ; AfxGetMainWnd
  00ccb	8b c8		 mov	 ecx, eax
  00ccd	e8 00 00 00 00	 call	 ?GetSafeHwnd@CWnd@@QBEPAUHWND__@@XZ ; CWnd::GetSafeHwnd
  00cd2	50		 push	 eax
  00cd3	ff 15 00 00 00
	00		 call	 DWORD PTR __imp__SendMessageA@16

; 313  : 	Invalidate();

  00cd9	6a 01		 push	 1
  00cdb	8b 4d fc	 mov	 ecx, DWORD PTR _this$[ebp]
  00cde	e8 00 00 00 00	 call	 ?Invalidate@CWnd@@QAEXH@Z ; CWnd::Invalidate

; 314  : }

  00ce3	8b e5		 mov	 esp, ebp
  00ce5	5d		 pop	 ebp
  00ce6	c2 04 00	 ret	 4
?SetButtonPos@CColorSlide@@QAEXH@Z ENDP			; CColorSlide::SetButtonPos
_TEXT	ENDS
PUBLIC	?GetButtonPos@CColorSlide@@QAEIXZ		; CColorSlide::GetButtonPos
; Function compile flags: /Odt
_TEXT	SEGMENT
_this$ = -4						; size = 4
?GetButtonPos@CColorSlide@@QAEIXZ PROC NEAR		; CColorSlide::GetButtonPos
; _this$ = ecx

; 317  : {

  00cf0	55		 push	 ebp
  00cf1	8b ec		 mov	 ebp, esp
  00cf3	51		 push	 ecx
  00cf4	89 4d fc	 mov	 DWORD PTR _this$[ebp], ecx

; 318  : 	return FPosition;

  00cf7	8b 45 fc	 mov	 eax, DWORD PTR _this$[ebp]
  00cfa	8b 40 54	 mov	 eax, DWORD PTR [eax+84]

; 319  : }

  00cfd	8b e5		 mov	 esp, ebp
  00cff	5d		 pop	 ebp
  00d00	c3		 ret	 0
?GetButtonPos@CColorSlide@@QAEIXZ ENDP			; CColorSlide::GetButtonPos
_TEXT	ENDS
PUBLIC	?SetRangeMax@CColorSlide@@QAEXH@Z		; CColorSlide::SetRangeMax
; Function compile flags: /Odt
_TEXT	SEGMENT
_this$ = -4						; size = 4
_aiMax$ = 8						; size = 4
?SetRangeMax@CColorSlide@@QAEXH@Z PROC NEAR		; CColorSlide::SetRangeMax
; _this$ = ecx

; 322  : {

  00d10	55		 push	 ebp
  00d11	8b ec		 mov	 ebp, esp
  00d13	51		 push	 ecx
  00d14	89 4d fc	 mov	 DWORD PTR _this$[ebp], ecx

; 323  : 	FMaxValue = aiMax;

  00d17	8b 45 fc	 mov	 eax, DWORD PTR _this$[ebp]
  00d1a	8b 4d 08	 mov	 ecx, DWORD PTR _aiMax$[ebp]
  00d1d	89 48 58	 mov	 DWORD PTR [eax+88], ecx

; 324  : 	Invalidate();

  00d20	6a 01		 push	 1
  00d22	8b 4d fc	 mov	 ecx, DWORD PTR _this$[ebp]
  00d25	e8 00 00 00 00	 call	 ?Invalidate@CWnd@@QAEXH@Z ; CWnd::Invalidate

; 325  : }

  00d2a	8b e5		 mov	 esp, ebp
  00d2c	5d		 pop	 ebp
  00d2d	c2 04 00	 ret	 4
?SetRangeMax@CColorSlide@@QAEXH@Z ENDP			; CColorSlide::SetRangeMax
_TEXT	ENDS
PUBLIC	?GetRangeMax@CColorSlide@@QBEHXZ		; CColorSlide::GetRangeMax
; Function compile flags: /Odt
_TEXT	SEGMENT
_this$ = -4						; size = 4
?GetRangeMax@CColorSlide@@QBEHXZ PROC NEAR		; CColorSlide::GetRangeMax
; _this$ = ecx

; 328  : {

  00d30	55		 push	 ebp
  00d31	8b ec		 mov	 ebp, esp
  00d33	51		 push	 ecx
  00d34	89 4d fc	 mov	 DWORD PTR _this$[ebp], ecx

; 329  : 	return FMaxValue;

  00d37	8b 45 fc	 mov	 eax, DWORD PTR _this$[ebp]
  00d3a	8b 40 58	 mov	 eax, DWORD PTR [eax+88]

; 330  : }

  00d3d	8b e5		 mov	 esp, ebp
  00d3f	5d		 pop	 ebp
  00d40	c3		 ret	 0
?GetRangeMax@CColorSlide@@QBEHXZ ENDP			; CColorSlide::GetRangeMax
_TEXT	ENDS
PUBLIC	?SetRangeMin@CColorSlide@@QAEXH@Z		; CColorSlide::SetRangeMin
; Function compile flags: /Odt
_TEXT	SEGMENT
_this$ = -4						; size = 4
_aiMin$ = 8						; size = 4
?SetRangeMin@CColorSlide@@QAEXH@Z PROC NEAR		; CColorSlide::SetRangeMin
; _this$ = ecx

; 333  : {

  00d50	55		 push	 ebp
  00d51	8b ec		 mov	 ebp, esp
  00d53	51		 push	 ecx
  00d54	89 4d fc	 mov	 DWORD PTR _this$[ebp], ecx

; 334  : 	FMinValue = aiMin;

  00d57	8b 45 fc	 mov	 eax, DWORD PTR _this$[ebp]
  00d5a	8b 4d 08	 mov	 ecx, DWORD PTR _aiMin$[ebp]
  00d5d	89 48 5c	 mov	 DWORD PTR [eax+92], ecx

; 335  : 	Invalidate();

  00d60	6a 01		 push	 1
  00d62	8b 4d fc	 mov	 ecx, DWORD PTR _this$[ebp]
  00d65	e8 00 00 00 00	 call	 ?Invalidate@CWnd@@QAEXH@Z ; CWnd::Invalidate

; 336  : }

  00d6a	8b e5		 mov	 esp, ebp
  00d6c	5d		 pop	 ebp
  00d6d	c2 04 00	 ret	 4
?SetRangeMin@CColorSlide@@QAEXH@Z ENDP			; CColorSlide::SetRangeMin
_TEXT	ENDS
PUBLIC	?GetRangeMin@CColorSlide@@QBEHXZ		; CColorSlide::GetRangeMin
; Function compile flags: /Odt
_TEXT	SEGMENT
_this$ = -4						; size = 4
?GetRangeMin@CColorSlide@@QBEHXZ PROC NEAR		; CColorSlide::GetRangeMin
; _this$ = ecx

; 339  : {

  00d70	55		 push	 ebp
  00d71	8b ec		 mov	 ebp, esp
  00d73	51		 push	 ecx
  00d74	89 4d fc	 mov	 DWORD PTR _this$[ebp], ecx

; 340  : 	return FMinValue;

  00d77	8b 45 fc	 mov	 eax, DWORD PTR _this$[ebp]
  00d7a	8b 40 5c	 mov	 eax, DWORD PTR [eax+92]

; 341  : }

  00d7d	8b e5		 mov	 esp, ebp
  00d7f	5d		 pop	 ebp
  00d80	c3		 ret	 0
?GetRangeMin@CColorSlide@@QBEHXZ ENDP			; CColorSlide::GetRangeMin
_TEXT	ENDS
PUBLIC	?SetRange@CColorSlide@@QAEXHH@Z			; CColorSlide::SetRange
; Function compile flags: /Odt
_TEXT	SEGMENT
_this$ = -4						; size = 4
_nMin$ = 8						; size = 4
_nMax$ = 12						; size = 4
?SetRange@CColorSlide@@QAEXHH@Z PROC NEAR		; CColorSlide::SetRange
; _this$ = ecx

; 344  : {

  00d90	55		 push	 ebp
  00d91	8b ec		 mov	 ebp, esp
  00d93	51		 push	 ecx
  00d94	89 4d fc	 mov	 DWORD PTR _this$[ebp], ecx

; 345  : 	SetRangeMin(nMin);

  00d97	8b 45 08	 mov	 eax, DWORD PTR _nMin$[ebp]
  00d9a	50		 push	 eax
  00d9b	8b 4d fc	 mov	 ecx, DWORD PTR _this$[ebp]
  00d9e	e8 00 00 00 00	 call	 ?SetRangeMin@CColorSlide@@QAEXH@Z ; CColorSlide::SetRangeMin

; 346  : 	SetRangeMax(nMax);

  00da3	8b 4d 0c	 mov	 ecx, DWORD PTR _nMax$[ebp]
  00da6	51		 push	 ecx
  00da7	8b 4d fc	 mov	 ecx, DWORD PTR _this$[ebp]
  00daa	e8 00 00 00 00	 call	 ?SetRangeMax@CColorSlide@@QAEXH@Z ; CColorSlide::SetRangeMax

; 347  : }

  00daf	8b e5		 mov	 esp, ebp
  00db1	5d		 pop	 ebp
  00db2	c2 08 00	 ret	 8
?SetRange@CColorSlide@@QAEXHH@Z ENDP			; CColorSlide::SetRange
_TEXT	ENDS
PUBLIC	?GetRange@CColorSlide@@QBEXAAH0@Z		; CColorSlide::GetRange
; Function compile flags: /Odt
_TEXT	SEGMENT
_this$ = -4						; size = 4
_nMin$ = 8						; size = 4
_nMax$ = 12						; size = 4
?GetRange@CColorSlide@@QBEXAAH0@Z PROC NEAR		; CColorSlide::GetRange
; _this$ = ecx

; 350  : {

  00dc0	55		 push	 ebp
  00dc1	8b ec		 mov	 ebp, esp
  00dc3	51		 push	 ecx
  00dc4	89 4d fc	 mov	 DWORD PTR _this$[ebp], ecx

; 351  : 	ASSERT(::IsWindow(m_hWnd));
; 352  : 	nMin = GetRangeMin();

  00dc7	8b 4d fc	 mov	 ecx, DWORD PTR _this$[ebp]
  00dca	e8 00 00 00 00	 call	 ?GetRangeMin@CColorSlide@@QBEHXZ ; CColorSlide::GetRangeMin
  00dcf	8b 4d 08	 mov	 ecx, DWORD PTR _nMin$[ebp]
  00dd2	89 01		 mov	 DWORD PTR [ecx], eax

; 353  : 	nMax = GetRangeMax();

  00dd4	8b 4d fc	 mov	 ecx, DWORD PTR _this$[ebp]
  00dd7	e8 00 00 00 00	 call	 ?GetRangeMax@CColorSlide@@QBEHXZ ; CColorSlide::GetRangeMax
  00ddc	8b 55 0c	 mov	 edx, DWORD PTR _nMax$[ebp]
  00ddf	89 02		 mov	 DWORD PTR [edx], eax

; 354  : }

  00de1	8b e5		 mov	 esp, ebp
  00de3	5d		 pop	 ebp
  00de4	c2 08 00	 ret	 8
?GetRange@CColorSlide@@QBEXAAH0@Z ENDP			; CColorSlide::GetRange
_TEXT	ENDS
PUBLIC	?SetTicFreq@CColorSlide@@QAEXH@Z		; CColorSlide::SetTicFreq
; Function compile flags: /Odt
_TEXT	SEGMENT
_this$ = -4						; size = 4
_nFreq$ = 8						; size = 4
?SetTicFreq@CColorSlide@@QAEXH@Z PROC NEAR		; CColorSlide::SetTicFreq
; _this$ = ecx

; 357  : { 

  00df0	55		 push	 ebp
  00df1	8b ec		 mov	 ebp, esp
  00df3	51		 push	 ecx
  00df4	89 4d fc	 mov	 DWORD PTR _this$[ebp], ecx

; 358  : 	ASSERT(::IsWindow(m_hWnd)); 
; 359  : 	::SendMessage(m_hWnd, TBM_SETTICFREQ, nFreq, 0L); 

  00df7	6a 00		 push	 0
  00df9	8b 45 08	 mov	 eax, DWORD PTR _nFreq$[ebp]
  00dfc	50		 push	 eax
  00dfd	68 14 04 00 00	 push	 1044			; 00000414H
  00e02	8b 4d fc	 mov	 ecx, DWORD PTR _this$[ebp]
  00e05	8b 51 20	 mov	 edx, DWORD PTR [ecx+32]
  00e08	52		 push	 edx
  00e09	ff 15 00 00 00
	00		 call	 DWORD PTR __imp__SendMessageA@16

; 360  : }

  00e0f	8b e5		 mov	 esp, ebp
  00e11	5d		 pop	 ebp
  00e12	c2 04 00	 ret	 4
?SetTicFreq@CColorSlide@@QAEXH@Z ENDP			; CColorSlide::SetTicFreq
_TEXT	ENDS
PUBLIC	?SetSliderCtrlType@CColorSlide@@QAEXW4ColorSlideType@@@Z ; CColorSlide::SetSliderCtrlType
; Function compile flags: /Odt
_TEXT	SEGMENT
_this$ = -20						; size = 4
_mrClientRect$ = -16					; size = 16
_aSlideType$ = 8					; size = 4
?SetSliderCtrlType@CColorSlide@@QAEXW4ColorSlideType@@@Z PROC NEAR ; CColorSlide::SetSliderCtrlType
; _this$ = ecx

; 362  : {

  00e20	55		 push	 ebp
  00e21	8b ec		 mov	 ebp, esp
  00e23	83 ec 14	 sub	 esp, 20			; 00000014H
  00e26	89 4d ec	 mov	 DWORD PTR _this$[ebp], ecx

; 363  : 	m_SlideType = aSlideType ;

  00e29	8b 45 ec	 mov	 eax, DWORD PTR _this$[ebp]
  00e2c	8b 4d 08	 mov	 ecx, DWORD PTR _aSlideType$[ebp]
  00e2f	89 88 80 00 00
	00		 mov	 DWORD PTR [eax+128], ecx

; 364  : 
; 365  : 	CRect mrClientRect;

  00e35	8d 4d f0	 lea	 ecx, DWORD PTR _mrClientRect$[ebp]
  00e38	e8 00 00 00 00	 call	 ??0CRect@@QAE@XZ	; CRect::CRect

; 366  : 	GetClientRect(mrClientRect);

  00e3d	8d 4d f0	 lea	 ecx, DWORD PTR _mrClientRect$[ebp]
  00e40	e8 00 00 00 00	 call	 ??BCRect@@QAEPAUtagRECT@@XZ ; CRect::operator tagRECT *
  00e45	50		 push	 eax
  00e46	8b 4d ec	 mov	 ecx, DWORD PTR _this$[ebp]
  00e49	e8 00 00 00 00	 call	 ?GetClientRect@CWnd@@QBEXPAUtagRECT@@@Z ; CWnd::GetClientRect

; 367  : 	m_nWidth = mrClientRect.Width();

  00e4e	8d 4d f0	 lea	 ecx, DWORD PTR _mrClientRect$[ebp]
  00e51	e8 00 00 00 00	 call	 ?Width@CRect@@QBEHXZ	; CRect::Width
  00e56	8b 55 ec	 mov	 edx, DWORD PTR _this$[ebp]
  00e59	89 42 60	 mov	 DWORD PTR [edx+96], eax

; 368  : 	m_nHeight = mrClientRect.Height();

  00e5c	8d 4d f0	 lea	 ecx, DWORD PTR _mrClientRect$[ebp]
  00e5f	e8 00 00 00 00	 call	 ?Height@CRect@@QBEHXZ	; CRect::Height
  00e64	8b 4d ec	 mov	 ecx, DWORD PTR _this$[ebp]
  00e67	89 41 64	 mov	 DWORD PTR [ecx+100], eax

; 369  : 	Invalidate();

  00e6a	6a 01		 push	 1
  00e6c	8b 4d ec	 mov	 ecx, DWORD PTR _this$[ebp]
  00e6f	e8 00 00 00 00	 call	 ?Invalidate@CWnd@@QAEXH@Z ; CWnd::Invalidate

; 370  : 	DynamicStat(set_Normal);

  00e74	6a 00		 push	 0
  00e76	8b 4d ec	 mov	 ecx, DWORD PTR _this$[ebp]
  00e79	e8 00 00 00 00	 call	 ?DynamicStat@CColorSlide@@IAEXW4ENUM_SLIDERSTATE@@@Z ; CColorSlide::DynamicStat

; 371  : 	::SendMessage(AfxGetMainWnd()->GetSafeHwnd(),WM_HSCROLL,0,(LPARAM)this->m_hWnd);

  00e7e	8b 55 ec	 mov	 edx, DWORD PTR _this$[ebp]
  00e81	8b 42 20	 mov	 eax, DWORD PTR [edx+32]
  00e84	50		 push	 eax
  00e85	6a 00		 push	 0
  00e87	68 14 01 00 00	 push	 276			; 00000114H
  00e8c	e8 00 00 00 00	 call	 ?AfxGetMainWnd@@YGPAVCWnd@@XZ ; AfxGetMainWnd
  00e91	8b c8		 mov	 ecx, eax
  00e93	e8 00 00 00 00	 call	 ?GetSafeHwnd@CWnd@@QBEPAUHWND__@@XZ ; CWnd::GetSafeHwnd
  00e98	50		 push	 eax
  00e99	ff 15 00 00 00
	00		 call	 DWORD PTR __imp__SendMessageA@16

; 372  : 	Invalidate();

  00e9f	6a 01		 push	 1
  00ea1	8b 4d ec	 mov	 ecx, DWORD PTR _this$[ebp]
  00ea4	e8 00 00 00 00	 call	 ?Invalidate@CWnd@@QAEXH@Z ; CWnd::Invalidate

; 373  : 
; 374  : }

  00ea9	8b e5		 mov	 esp, ebp
  00eab	5d		 pop	 ebp
  00eac	c2 04 00	 ret	 4
?SetSliderCtrlType@CColorSlide@@QAEXW4ColorSlideType@@@Z ENDP ; CColorSlide::SetSliderCtrlType
_TEXT	ENDS
EXTRN	?PreTranslateMessage@CWnd@@UAEHPAUtagMSG@@@Z:NEAR ; CWnd::PreTranslateMessage
; Function compile flags: /Odt
_TEXT	SEGMENT
_this$ = -4						; size = 4
_pMsg$ = 8						; size = 4
?PreTranslateMessage@CColorSlide@@UAEHPAUtagMSG@@@Z PROC NEAR ; CColorSlide::PreTranslateMessage
; _this$ = ecx

; 376  : {

  00eb0	55		 push	 ebp
  00eb1	8b ec		 mov	 ebp, esp
  00eb3	51		 push	 ecx
  00eb4	89 4d fc	 mov	 DWORD PTR _this$[ebp], ecx

; 377  : 	// TODO: 在此添加专用代码和/或调用基类
; 378  : 	/*if (  m_ctlTips.m_hWnd != NULL  )
; 379  : 	m_ctlTips.RelayEvent(pMsg);*/
; 380  : 
; 381  : 	return CSliderCtrl::PreTranslateMessage(pMsg);

  00eb7	8b 45 08	 mov	 eax, DWORD PTR _pMsg$[ebp]
  00eba	50		 push	 eax
  00ebb	8b 4d fc	 mov	 ecx, DWORD PTR _this$[ebp]
  00ebe	e8 00 00 00 00	 call	 ?PreTranslateMessage@CWnd@@UAEHPAUtagMSG@@@Z ; CWnd::PreTranslateMessage

; 382  : }

  00ec3	8b e5		 mov	 esp, ebp
  00ec5	5d		 pop	 ebp
  00ec6	c2 04 00	 ret	 4
?PreTranslateMessage@CColorSlide@@UAEHPAUtagMSG@@@Z ENDP ; CColorSlide::PreTranslateMessage
_TEXT	ENDS
PUBLIC	?UpdateToolTips@CColorSlide@@QAEXXZ		; CColorSlide::UpdateToolTips
; Function compile flags: /Odt
_TEXT	SEGMENT
_this$ = -4						; size = 4
?UpdateToolTips@CColorSlide@@QAEXXZ PROC NEAR		; CColorSlide::UpdateToolTips
; _this$ = ecx

; 385  : {

  00ed0	55		 push	 ebp
  00ed1	8b ec		 mov	 ebp, esp
  00ed3	51		 push	 ecx
  00ed4	89 4d fc	 mov	 DWORD PTR _this$[ebp], ecx

; 386  : 	//m_ctlTips.UpdateTipText(m_HintText, this);
; 387  : }

  00ed7	8b e5		 mov	 esp, ebp
  00ed9	5d		 pop	 ebp
  00eda	c3		 ret	 0
?UpdateToolTips@CColorSlide@@QAEXXZ ENDP		; CColorSlide::UpdateToolTips
_TEXT	ENDS
PUBLIC	?SetHintText@CColorSlide@@QAEXV?$CStringT@DV?$StrTraitMFC_DLL@DV?$ChTraitsCRT@D@ATL@@@@@ATL@@@Z ; CColorSlide::SetHintText
EXTRN	__imp_??1?$CStringT@DV?$StrTraitMFC_DLL@DV?$ChTraitsCRT@D@ATL@@@@@ATL@@QAE@XZ:NEAR
; Function compile flags: /Odt
_TEXT	SEGMENT
_this$ = -4						; size = 4
_strValue$ = 8						; size = 4
?SetHintText@CColorSlide@@QAEXV?$CStringT@DV?$StrTraitMFC_DLL@DV?$ChTraitsCRT@D@ATL@@@@@ATL@@@Z PROC NEAR ; CColorSlide::SetHintText
; _this$ = ecx

; 389  : {

  00ee0	55		 push	 ebp
  00ee1	8b ec		 mov	 ebp, esp
  00ee3	51		 push	 ecx
  00ee4	89 4d fc	 mov	 DWORD PTR _this$[ebp], ecx

; 390  : 	/*m_HintText = strValue;
; 391  : 	m_ctlTips.UpdateTipText(m_HintText, this);*/
; 392  : 
; 393  : }

  00ee7	8d 4d 08	 lea	 ecx, DWORD PTR _strValue$[ebp]
  00eea	ff 15 00 00 00
	00		 call	 DWORD PTR __imp_??1?$CStringT@DV?$StrTraitMFC_DLL@DV?$ChTraitsCRT@D@ATL@@@@@ATL@@QAE@XZ
  00ef0	8b e5		 mov	 esp, ebp
  00ef2	5d		 pop	 ebp
  00ef3	c2 04 00	 ret	 4
?SetHintText@CColorSlide@@QAEXV?$CStringT@DV?$StrTraitMFC_DLL@DV?$ChTraitsCRT@D@ATL@@@@@ATL@@@Z ENDP ; CColorSlide::SetHintText
; Function compile flags: /Odt
_this$ = -20						; size = 4
_mrClientRect$ = -16					; size = 16
?SaveSize@CColorSlide@@AAEXXZ PROC NEAR			; CColorSlide::SaveSize
; _this$ = ecx

; 395  : {

  00f00	55		 push	 ebp
  00f01	8b ec		 mov	 ebp, esp
  00f03	83 ec 14	 sub	 esp, 20			; 00000014H
  00f06	89 4d ec	 mov	 DWORD PTR _this$[ebp], ecx

; 396  : 	CRect mrClientRect;

  00f09	8d 4d f0	 lea	 ecx, DWORD PTR _mrClientRect$[ebp]
  00f0c	e8 00 00 00 00	 call	 ??0CRect@@QAE@XZ	; CRect::CRect

; 397  : 	GetClientRect(mrClientRect);

  00f11	8d 4d f0	 lea	 ecx, DWORD PTR _mrClientRect$[ebp]
  00f14	e8 00 00 00 00	 call	 ??BCRect@@QAEPAUtagRECT@@XZ ; CRect::operator tagRECT *
  00f19	50		 push	 eax
  00f1a	8b 4d ec	 mov	 ecx, DWORD PTR _this$[ebp]
  00f1d	e8 00 00 00 00	 call	 ?GetClientRect@CWnd@@QBEXPAUtagRECT@@@Z ; CWnd::GetClientRect

; 398  : 	m_nWidth = mrClientRect.Width();

  00f22	8d 4d f0	 lea	 ecx, DWORD PTR _mrClientRect$[ebp]
  00f25	e8 00 00 00 00	 call	 ?Width@CRect@@QBEHXZ	; CRect::Width
  00f2a	8b 4d ec	 mov	 ecx, DWORD PTR _this$[ebp]
  00f2d	89 41 60	 mov	 DWORD PTR [ecx+96], eax

; 399  : 	m_nHeight = mrClientRect.Height();

  00f30	8d 4d f0	 lea	 ecx, DWORD PTR _mrClientRect$[ebp]
  00f33	e8 00 00 00 00	 call	 ?Height@CRect@@QBEHXZ	; CRect::Height
  00f38	8b 55 ec	 mov	 edx, DWORD PTR _this$[ebp]
  00f3b	89 42 64	 mov	 DWORD PTR [edx+100], eax

; 400  : }

  00f3e	8b e5		 mov	 esp, ebp
  00f40	5d		 pop	 ebp
  00f41	c3		 ret	 0
?SaveSize@CColorSlide@@AAEXXZ ENDP			; CColorSlide::SaveSize
_TEXT	ENDS
PUBLIC	?SetBKColor@CColorSlide@@QAEXKKI@Z		; CColorSlide::SetBKColor
; Function compile flags: /Odt
_TEXT	SEGMENT
_this$ = -4						; size = 4
_acolBegain$ = 8					; size = 4
_acolEnd$ = 12						; size = 4
_aHue$ = 16						; size = 4
?SetBKColor@CColorSlide@@QAEXKKI@Z PROC NEAR		; CColorSlide::SetBKColor
; _this$ = ecx

; 402  : {

  00f50	55		 push	 ebp
  00f51	8b ec		 mov	 ebp, esp
  00f53	51		 push	 ecx
  00f54	89 4d fc	 mov	 DWORD PTR _this$[ebp], ecx

; 403  : 	m_colBegain = acolBegain;

  00f57	8b 45 fc	 mov	 eax, DWORD PTR _this$[ebp]
  00f5a	8b 4d 08	 mov	 ecx, DWORD PTR _acolBegain$[ebp]
  00f5d	89 48 6c	 mov	 DWORD PTR [eax+108], ecx

; 404  : 	m_colEnd    = acolEnd;

  00f60	8b 55 fc	 mov	 edx, DWORD PTR _this$[ebp]
  00f63	8b 45 0c	 mov	 eax, DWORD PTR _acolEnd$[ebp]
  00f66	89 42 70	 mov	 DWORD PTR [edx+112], eax

; 405  : 	m_nHue =  aHue;

  00f69	8b 4d fc	 mov	 ecx, DWORD PTR _this$[ebp]
  00f6c	8b 55 10	 mov	 edx, DWORD PTR _aHue$[ebp]
  00f6f	89 51 74	 mov	 DWORD PTR [ecx+116], edx

; 406  : }

  00f72	8b e5		 mov	 esp, ebp
  00f74	5d		 pop	 ebp
  00f75	c2 0c 00	 ret	 12			; 0000000cH
?SetBKColor@CColorSlide@@QAEXKKI@Z ENDP			; CColorSlide::SetBKColor
_TEXT	ENDS
PUBLIC	?SetBKColor@CColorSlide@@QAEXK@Z		; CColorSlide::SetBKColor
; Function compile flags: /Odt
_TEXT	SEGMENT
_this$ = -4						; size = 4
_acolBegain$ = 8					; size = 4
?SetBKColor@CColorSlide@@QAEXK@Z PROC NEAR		; CColorSlide::SetBKColor
; _this$ = ecx

; 408  : {

  00f80	55		 push	 ebp
  00f81	8b ec		 mov	 ebp, esp
  00f83	51		 push	 ecx
  00f84	89 4d fc	 mov	 DWORD PTR _this$[ebp], ecx

; 409  : 	m_colBegain = acolBegain;

  00f87	8b 45 fc	 mov	 eax, DWORD PTR _this$[ebp]
  00f8a	8b 4d 08	 mov	 ecx, DWORD PTR _acolBegain$[ebp]
  00f8d	89 48 6c	 mov	 DWORD PTR [eax+108], ecx

; 410  : }

  00f90	8b e5		 mov	 esp, ebp
  00f92	5d		 pop	 ebp
  00f93	c2 04 00	 ret	 4
?SetBKColor@CColorSlide@@QAEXK@Z ENDP			; CColorSlide::SetBKColor
; Function compile flags: /Odt
; File d:\program files (x86)\microsoft visual studio .net 2003\vc7\atlmfc\include\atltypes.inl
_TEXT	ENDS
;	COMDAT ??0CRect@@QAE@XZ
_TEXT	SEGMENT
_this$ = -4						; size = 4
??0CRect@@QAE@XZ PROC NEAR				; CRect::CRect, COMDAT
; _this$ = ecx

; 110  : 	{ /* random filled */ }

  00000	55		 push	 ebp
  00001	8b ec		 mov	 ebp, esp
  00003	51		 push	 ecx
  00004	89 4d fc	 mov	 DWORD PTR _this$[ebp], ecx
  00007	8b 45 fc	 mov	 eax, DWORD PTR _this$[ebp]
  0000a	8b e5		 mov	 esp, ebp
  0000c	5d		 pop	 ebp
  0000d	c3		 ret	 0
??0CRect@@QAE@XZ ENDP					; CRect::CRect
; Function compile flags: /Odt
_TEXT	ENDS
;	COMDAT ??0CRect@@QAE@HHHH@Z
_TEXT	SEGMENT
_this$ = -4						; size = 4
_l$ = 8							; size = 4
_t$ = 12						; size = 4
_r$ = 16						; size = 4
_b$ = 20						; size = 4
??0CRect@@QAE@HHHH@Z PROC NEAR				; CRect::CRect, COMDAT
; _this$ = ecx

; 112  : 	{ left = l; top = t; right = r; bottom = b; }

  00000	55		 push	 ebp
  00001	8b ec		 mov	 ebp, esp
  00003	51		 push	 ecx
  00004	89 4d fc	 mov	 DWORD PTR _this$[ebp], ecx
  00007	8b 45 fc	 mov	 eax, DWORD PTR _this$[ebp]
  0000a	8b 4d 08	 mov	 ecx, DWORD PTR _l$[ebp]
  0000d	89 08		 mov	 DWORD PTR [eax], ecx
  0000f	8b 55 fc	 mov	 edx, DWORD PTR _this$[ebp]
  00012	8b 45 0c	 mov	 eax, DWORD PTR _t$[ebp]
  00015	89 42 04	 mov	 DWORD PTR [edx+4], eax
  00018	8b 4d fc	 mov	 ecx, DWORD PTR _this$[ebp]
  0001b	8b 55 10	 mov	 edx, DWORD PTR _r$[ebp]
  0001e	89 51 08	 mov	 DWORD PTR [ecx+8], edx
  00021	8b 45 fc	 mov	 eax, DWORD PTR _this$[ebp]
  00024	8b 4d 14	 mov	 ecx, DWORD PTR _b$[ebp]
  00027	89 48 0c	 mov	 DWORD PTR [eax+12], ecx
  0002a	8b 45 fc	 mov	 eax, DWORD PTR _this$[ebp]
  0002d	8b e5		 mov	 esp, ebp
  0002f	5d		 pop	 ebp
  00030	c2 10 00	 ret	 16			; 00000010H
??0CRect@@QAE@HHHH@Z ENDP				; CRect::CRect
_TEXT	ENDS
EXTRN	__imp__CopyRect@8:NEAR
; Function compile flags: /Odt
;	COMDAT ??0CRect@@QAE@ABUtagRECT@@@Z
_TEXT	SEGMENT
_this$ = -4						; size = 4
_srcRect$ = 8						; size = 4
??0CRect@@QAE@ABUtagRECT@@@Z PROC NEAR			; CRect::CRect, COMDAT
; _this$ = ecx

; 114  : 	{ ::CopyRect(this, &srcRect); }

  00000	55		 push	 ebp
  00001	8b ec		 mov	 ebp, esp
  00003	51		 push	 ecx
  00004	89 4d fc	 mov	 DWORD PTR _this$[ebp], ecx
  00007	8b 45 08	 mov	 eax, DWORD PTR _srcRect$[ebp]
  0000a	50		 push	 eax
  0000b	8b 4d fc	 mov	 ecx, DWORD PTR _this$[ebp]
  0000e	51		 push	 ecx
  0000f	ff 15 00 00 00
	00		 call	 DWORD PTR __imp__CopyRect@8
  00015	8b 45 fc	 mov	 eax, DWORD PTR _this$[ebp]
  00018	8b e5		 mov	 esp, ebp
  0001a	5d		 pop	 ebp
  0001b	c2 04 00	 ret	 4
??0CRect@@QAE@ABUtagRECT@@@Z ENDP			; CRect::CRect
; Function compile flags: /Odt
_TEXT	ENDS
;	COMDAT ?Width@CRect@@QBEHXZ
_TEXT	SEGMENT
_this$ = -4						; size = 4
?Width@CRect@@QBEHXZ PROC NEAR				; CRect::Width, COMDAT
; _this$ = ecx

; 123  : 	{ return right - left; }

  00000	55		 push	 ebp
  00001	8b ec		 mov	 ebp, esp
  00003	51		 push	 ecx
  00004	89 4d fc	 mov	 DWORD PTR _this$[ebp], ecx
  00007	8b 45 fc	 mov	 eax, DWORD PTR _this$[ebp]
  0000a	8b 4d fc	 mov	 ecx, DWORD PTR _this$[ebp]
  0000d	8b 40 08	 mov	 eax, DWORD PTR [eax+8]
  00010	2b 01		 sub	 eax, DWORD PTR [ecx]
  00012	8b e5		 mov	 esp, ebp
  00014	5d		 pop	 ebp
  00015	c3		 ret	 0
?Width@CRect@@QBEHXZ ENDP				; CRect::Width
; Function compile flags: /Odt
_TEXT	ENDS
;	COMDAT ?Height@CRect@@QBEHXZ
_TEXT	SEGMENT
_this$ = -4						; size = 4
?Height@CRect@@QBEHXZ PROC NEAR				; CRect::Height, COMDAT
; _this$ = ecx

; 125  : 	{ return bottom - top; }

  00000	55		 push	 ebp
  00001	8b ec		 mov	 ebp, esp
  00003	51		 push	 ecx
  00004	89 4d fc	 mov	 DWORD PTR _this$[ebp], ecx
  00007	8b 45 fc	 mov	 eax, DWORD PTR _this$[ebp]
  0000a	8b 4d fc	 mov	 ecx, DWORD PTR _this$[ebp]
  0000d	8b 40 0c	 mov	 eax, DWORD PTR [eax+12]
  00010	2b 41 04	 sub	 eax, DWORD PTR [ecx+4]
  00013	8b e5		 mov	 esp, ebp
  00015	5d		 pop	 ebp
  00016	c3		 ret	 0
?Height@CRect@@QBEHXZ ENDP				; CRect::Height
; Function compile flags: /Odt
_TEXT	ENDS
;	COMDAT ??BCRect@@QAEPAUtagRECT@@XZ
_TEXT	SEGMENT
_this$ = -4						; size = 4
??BCRect@@QAEPAUtagRECT@@XZ PROC NEAR			; CRect::operator tagRECT *, COMDAT
; _this$ = ecx

; 143  : 	{ return this; }

  00000	55		 push	 ebp
  00001	8b ec		 mov	 ebp, esp
  00003	51		 push	 ecx
  00004	89 4d fc	 mov	 DWORD PTR _this$[ebp], ecx
  00007	8b 45 fc	 mov	 eax, DWORD PTR _this$[ebp]
  0000a	8b e5		 mov	 esp, ebp
  0000c	5d		 pop	 ebp
  0000d	c3		 ret	 0
??BCRect@@QAEPAUtagRECT@@XZ ENDP			; CRect::operator tagRECT *
; Function compile flags: /Odt
; File d:\program files (x86)\microsoft visual studio .net 2003\vc7\atlmfc\include\afx.inl
_TEXT	ENDS
;	COMDAT ?Serialize@CObject@@UAEXAAVCArchive@@@Z
_TEXT	SEGMENT
_this$ = -4						; size = 4
___formal$ = 8						; size = 4
?Serialize@CObject@@UAEXAAVCArchive@@@Z PROC NEAR	; CObject::Serialize, COMDAT
; _this$ = ecx

; 25   : 	{ /* CObject does not serialize anything by default */ }

  00000	55		 push	 ebp
  00001	8b ec		 mov	 ebp, esp
  00003	51		 push	 ecx
  00004	89 4d fc	 mov	 DWORD PTR _this$[ebp], ecx
  00007	8b e5		 mov	 esp, ebp
  00009	5d		 pop	 ebp
  0000a	c2 04 00	 ret	 4
?Serialize@CObject@@UAEXAAVCArchive@@@Z ENDP		; CObject::Serialize
_TEXT	ENDS
EXTRN	??3@YAXPAX@Z:NEAR				; operator delete
; Function compile flags: /Odt
;	COMDAT ??3CObject@@SGXPAX@Z
_TEXT	SEGMENT
_p$ = 8							; size = 4
??3CObject@@SGXPAX@Z PROC NEAR				; CObject::operator delete, COMDAT

; 31   : 	{ ::operator delete(p); }

  00000	55		 push	 ebp
  00001	8b ec		 mov	 ebp, esp
  00003	8b 45 08	 mov	 eax, DWORD PTR _p$[ebp]
  00006	50		 push	 eax
  00007	e8 00 00 00 00	 call	 ??3@YAXPAX@Z		; operator delete
  0000c	83 c4 04	 add	 esp, 4
  0000f	5d		 pop	 ebp
  00010	c2 04 00	 ret	 4
??3CObject@@SGXPAX@Z ENDP				; CObject::operator delete
; Function compile flags: /Odt
_TEXT	ENDS
;	COMDAT ?AssertValid@CObject@@UBEXXZ
_TEXT	SEGMENT
_this$ = -4						; size = 4
?AssertValid@CObject@@UBEXXZ PROC NEAR			; CObject::AssertValid, COMDAT
; _this$ = ecx

; 41   : 	{ /* no asserts in release builds */ }

  00000	55		 push	 ebp
  00001	8b ec		 mov	 ebp, esp
  00003	51		 push	 ecx
  00004	89 4d fc	 mov	 DWORD PTR _this$[ebp], ecx
  00007	8b e5		 mov	 esp, ebp
  00009	5d		 pop	 ebp
  0000a	c3		 ret	 0
?AssertValid@CObject@@UBEXXZ ENDP			; CObject::AssertValid
; Function compile flags: /Odt
_TEXT	ENDS
;	COMDAT ?Dump@CObject@@UBEXAAVCDumpContext@@@Z
_TEXT	SEGMENT
_this$ = -4						; size = 4
___formal$ = 8						; size = 4
?Dump@CObject@@UBEXAAVCDumpContext@@@Z PROC NEAR	; CObject::Dump, COMDAT
; _this$ = ecx

; 43   : 	{ /* no dumping in release builds */ }

  00000	55		 push	 ebp
  00001	8b ec		 mov	 ebp, esp
  00003	51		 push	 ecx
  00004	89 4d fc	 mov	 DWORD PTR _this$[ebp], ecx
  00007	8b e5		 mov	 esp, ebp
  00009	5d		 pop	 ebp
  0000a	c2 04 00	 ret	 4
?Dump@CObject@@UBEXAAVCDumpContext@@@Z ENDP		; CObject::Dump
_TEXT	ENDS
EXTRN	?AfxGetThread@@YGPAVCWinThread@@XZ:NEAR		; AfxGetThread
; Function compile flags: /Odt
; File d:\program files (x86)\microsoft visual studio .net 2003\vc7\atlmfc\include\afxwin1.inl
;	COMDAT ?AfxGetMainWnd@@YGPAVCWnd@@XZ
_TEXT	SEGMENT
tv70 = -8						; size = 4
_pThread$ = -4						; size = 4
?AfxGetMainWnd@@YGPAVCWnd@@XZ PROC NEAR			; AfxGetMainWnd, COMDAT

; 35   : 	{ CWinThread* pThread = AfxGetThread();

  00000	55		 push	 ebp
  00001	8b ec		 mov	 ebp, esp
  00003	83 ec 08	 sub	 esp, 8
  00006	e8 00 00 00 00	 call	 ?AfxGetThread@@YGPAVCWinThread@@XZ ; AfxGetThread
  0000b	89 45 fc	 mov	 DWORD PTR _pThread$[ebp], eax

; 36   : 		return pThread != NULL ? pThread->GetMainWnd() : NULL; }

  0000e	83 7d fc 00	 cmp	 DWORD PTR _pThread$[ebp], 0
  00012	74 10		 je	 SHORT $L198715
  00014	8b 45 fc	 mov	 eax, DWORD PTR _pThread$[ebp]
  00017	8b 10		 mov	 edx, DWORD PTR [eax]
  00019	8b 4d fc	 mov	 ecx, DWORD PTR _pThread$[ebp]
  0001c	ff 52 7c	 call	 DWORD PTR [edx+124]
  0001f	89 45 f8	 mov	 DWORD PTR tv70[ebp], eax
  00022	eb 07		 jmp	 SHORT $L198716
$L198715:
  00024	c7 45 f8 00 00
	00 00		 mov	 DWORD PTR tv70[ebp], 0
$L198716:
  0002b	8b 45 f8	 mov	 eax, DWORD PTR tv70[ebp]
  0002e	8b e5		 mov	 esp, ebp
  00030	5d		 pop	 ebp
  00031	c3		 ret	 0
?AfxGetMainWnd@@YGPAVCWnd@@XZ ENDP			; AfxGetMainWnd
_TEXT	ENDS
PUBLIC	??_R0?AVCGdiObject@@@8				; CGdiObject `RTTI Type Descriptor'
PUBLIC	??_R1A@?0A@A@CGdiObject@@8			; CGdiObject::`RTTI Base Class Descriptor at (0,-1,0,0)'
PUBLIC	??_R4CBrush@@6B@				; CBrush::`RTTI Complete Object Locator'
PUBLIC	??_R0?AVCBrush@@@8				; CBrush `RTTI Type Descriptor'
PUBLIC	??_R3CBrush@@8					; CBrush::`RTTI Class Hierarchy Descriptor'
PUBLIC	??_R2CBrush@@8					; CBrush::`RTTI Base Class Array'
PUBLIC	??_R1A@?0A@A@CBrush@@8				; CBrush::`RTTI Base Class Descriptor at (0,-1,0,0)'
PUBLIC	??1CGdiObject@@UAE@XZ				; CGdiObject::~CGdiObject
PUBLIC	??_7CBrush@@6B@					; CBrush::`vftable'
PUBLIC	??_GCBrush@@UAEPAXI@Z				; CBrush::`scalar deleting destructor'
EXTRN	?GetRuntimeClass@CBrush@@UBEPAUCRuntimeClass@@XZ:NEAR ; CBrush::GetRuntimeClass
EXTRN	??_ECBrush@@UAEPAXI@Z:NEAR			; CBrush::`vector deleting destructor'
;	COMDAT ??_7CBrush@@6B@
CONST	SEGMENT
??_7CBrush@@6B@ DD FLAT:??_R4CBrush@@6B@		; CBrush::`vftable'
	DD	FLAT:?GetRuntimeClass@CBrush@@UBEPAUCRuntimeClass@@XZ
	DD	FLAT:??_ECBrush@@UAEPAXI@Z
	DD	FLAT:?Serialize@CObject@@UAEXAAVCArchive@@@Z
	DD	FLAT:?AssertValid@CObject@@UBEXXZ
	DD	FLAT:?Dump@CObject@@UBEXAAVCDumpContext@@@Z
CONST	ENDS
;	COMDAT ??_R4CBrush@@6B@
rdata$r	SEGMENT
??_R4CBrush@@6B@ DD 00H					; CBrush::`RTTI Complete Object Locator'
	DD	00H
	DD	00H
	DD	FLAT:??_R0?AVCBrush@@@8
	DD	FLAT:??_R3CBrush@@8
rdata$r	ENDS
;	COMDAT ??_R0?AVCBrush@@@8
_DATA	SEGMENT
??_R0?AVCBrush@@@8 DD FLAT:??_7type_info@@6B@		; CBrush `RTTI Type Descriptor'
	DD	00H
	DB	'.?AVCBrush@@', 00H
_DATA	ENDS
;	COMDAT ??_R3CBrush@@8
rdata$r	SEGMENT
??_R3CBrush@@8 DD 00H					; CBrush::`RTTI Class Hierarchy Descriptor'
	DD	00H
	DD	03H
	DD	FLAT:??_R2CBrush@@8
rdata$r	ENDS
;	COMDAT ??_R2CBrush@@8
rdata$r	SEGMENT
??_R2CBrush@@8 DD FLAT:??_R1A@?0A@A@CBrush@@8		; CBrush::`RTTI Base Class Array'
	DD	FLAT:??_R1A@?0A@A@CGdiObject@@8
	DD	FLAT:??_R1A@?0A@A@CObject@@8
rdata$r	ENDS
;	COMDAT ??_R1A@?0A@A@CBrush@@8
rdata$r	SEGMENT
??_R1A@?0A@A@CBrush@@8 DD FLAT:??_R0?AVCBrush@@@8	; CBrush::`RTTI Base Class Descriptor at (0,-1,0,0)'
	DD	02H
	DD	00H
	DD	0ffffffffH
	DD	00H
	DD	00H
rdata$r	ENDS
;	COMDAT ??_R1A@?0A@A@CGdiObject@@8
rdata$r	SEGMENT
??_R1A@?0A@A@CGdiObject@@8 DD FLAT:??_R0?AVCGdiObject@@@8 ; CGdiObject::`RTTI Base Class Descriptor at (0,-1,0,0)'
	DD	01H
	DD	00H
	DD	0ffffffffH
	DD	00H
	DD	00H
rdata$r	ENDS
;	COMDAT ??_R0?AVCGdiObject@@@8
_DATA	SEGMENT
??_R0?AVCGdiObject@@@8 DD FLAT:??_7type_info@@6B@	; CGdiObject `RTTI Type Descriptor'
	DD	00H
	DB	'.?AVCGdiObject@@', 00H
; Function compile flags: /Odt
_DATA	ENDS
;	COMDAT ??1CBrush@@UAE@XZ
_TEXT	SEGMENT
_this$ = -4						; size = 4
??1CBrush@@UAE@XZ PROC NEAR				; CBrush::~CBrush, COMDAT
; _this$ = ecx

; 130  : 	{ }

  00000	55		 push	 ebp
  00001	8b ec		 mov	 ebp, esp
  00003	51		 push	 ecx
  00004	89 4d fc	 mov	 DWORD PTR _this$[ebp], ecx
  00007	8b 45 fc	 mov	 eax, DWORD PTR _this$[ebp]
  0000a	c7 00 00 00 00
	00		 mov	 DWORD PTR [eax], OFFSET FLAT:??_7CBrush@@6B@
  00010	8b 4d fc	 mov	 ecx, DWORD PTR _this$[ebp]
  00013	e8 00 00 00 00	 call	 ??1CGdiObject@@UAE@XZ	; CGdiObject::~CGdiObject
  00018	8b e5		 mov	 esp, ebp
  0001a	5d		 pop	 ebp
  0001b	c3		 ret	 0
??1CBrush@@UAE@XZ ENDP					; CBrush::~CBrush
_TEXT	ENDS
PUBLIC	??_R4CGdiObject@@6B@				; CGdiObject::`RTTI Complete Object Locator'
PUBLIC	??_R3CGdiObject@@8				; CGdiObject::`RTTI Class Hierarchy Descriptor'
PUBLIC	??_R2CGdiObject@@8				; CGdiObject::`RTTI Base Class Array'
PUBLIC	??1CObject@@UAE@XZ				; CObject::~CObject
PUBLIC	??_7CGdiObject@@6B@				; CGdiObject::`vftable'
PUBLIC	??_GCGdiObject@@UAEPAXI@Z			; CGdiObject::`scalar deleting destructor'
EXTRN	?GetRuntimeClass@CGdiObject@@UBEPAUCRuntimeClass@@XZ:NEAR ; CGdiObject::GetRuntimeClass
EXTRN	?DeleteObject@CGdiObject@@QAEHXZ:NEAR		; CGdiObject::DeleteObject
EXTRN	??_ECGdiObject@@UAEPAXI@Z:NEAR			; CGdiObject::`vector deleting destructor'
;	COMDAT xdata$x
xdata$x	SEGMENT
$T198726 DD	0ffffffffH
	DD	FLAT:$L198722
$T198724 DD	019930520H
	DD	01H
	DD	FLAT:$T198726
	DD	2 DUP(00H)
	DD	2 DUP(00H)
xdata$x	ENDS
;	COMDAT ??_7CGdiObject@@6B@
CONST	SEGMENT
??_7CGdiObject@@6B@ DD FLAT:??_R4CGdiObject@@6B@	; CGdiObject::`vftable'
	DD	FLAT:?GetRuntimeClass@CGdiObject@@UBEPAUCRuntimeClass@@XZ
	DD	FLAT:??_ECGdiObject@@UAEPAXI@Z
	DD	FLAT:?Serialize@CObject@@UAEXAAVCArchive@@@Z
	DD	FLAT:?AssertValid@CObject@@UBEXXZ
	DD	FLAT:?Dump@CObject@@UBEXAAVCDumpContext@@@Z
CONST	ENDS
;	COMDAT ??_R4CGdiObject@@6B@
rdata$r	SEGMENT
??_R4CGdiObject@@6B@ DD 00H				; CGdiObject::`RTTI Complete Object Locator'
	DD	00H
	DD	00H
	DD	FLAT:??_R0?AVCGdiObject@@@8
	DD	FLAT:??_R3CGdiObject@@8
rdata$r	ENDS
;	COMDAT ??_R3CGdiObject@@8
rdata$r	SEGMENT
??_R3CGdiObject@@8 DD 00H				; CGdiObject::`RTTI Class Hierarchy Descriptor'
	DD	00H
	DD	02H
	DD	FLAT:??_R2CGdiObject@@8
rdata$r	ENDS
;	COMDAT ??_R2CGdiObject@@8
rdata$r	SEGMENT
??_R2CGdiObject@@8 DD FLAT:??_R1A@?0A@A@CGdiObject@@8	; CGdiObject::`RTTI Base Class Array'
	DD	FLAT:??_R1A@?0A@A@CObject@@8
; Function compile flags: /Odt
rdata$r	ENDS
;	COMDAT ??1CGdiObject@@UAE@XZ
_TEXT	SEGMENT
_this$ = -16						; size = 4
__$EHRec$ = -12						; size = 12
??1CGdiObject@@UAE@XZ PROC NEAR				; CGdiObject::~CGdiObject, COMDAT
; _this$ = ecx

; 84   : 	{ DeleteObject(); }

  00000	55		 push	 ebp
  00001	8b ec		 mov	 ebp, esp
  00003	6a ff		 push	 -1
  00005	68 00 00 00 00	 push	 __ehhandler$??1CGdiObject@@UAE@XZ
  0000a	64 a1 00 00 00
	00		 mov	 eax, DWORD PTR fs:__except_list
  00010	50		 push	 eax
  00011	64 89 25 00 00
	00 00		 mov	 DWORD PTR fs:__except_list, esp
  00018	51		 push	 ecx
  00019	89 4d f0	 mov	 DWORD PTR _this$[ebp], ecx
  0001c	8b 45 f0	 mov	 eax, DWORD PTR _this$[ebp]
  0001f	c7 00 00 00 00
	00		 mov	 DWORD PTR [eax], OFFSET FLAT:??_7CGdiObject@@6B@
  00025	c7 45 fc 00 00
	00 00		 mov	 DWORD PTR __$EHRec$[ebp+8], 0
  0002c	8b 4d f0	 mov	 ecx, DWORD PTR _this$[ebp]
  0002f	e8 00 00 00 00	 call	 ?DeleteObject@CGdiObject@@QAEHXZ ; CGdiObject::DeleteObject
  00034	c7 45 fc ff ff
	ff ff		 mov	 DWORD PTR __$EHRec$[ebp+8], -1
  0003b	8b 4d f0	 mov	 ecx, DWORD PTR _this$[ebp]
  0003e	e8 00 00 00 00	 call	 ??1CObject@@UAE@XZ	; CObject::~CObject
  00043	8b 4d f4	 mov	 ecx, DWORD PTR __$EHRec$[ebp]
  00046	64 89 0d 00 00
	00 00		 mov	 DWORD PTR fs:__except_list, ecx
  0004d	8b e5		 mov	 esp, ebp
  0004f	5d		 pop	 ebp
  00050	c3		 ret	 0
_TEXT	ENDS
;	COMDAT text$x
text$x	SEGMENT
$L198722:
  00000	8b 4d f0	 mov	 ecx, DWORD PTR _this$[ebp]
  00003	e9 00 00 00 00	 jmp	 ??1CObject@@UAE@XZ	; CObject::~CObject
__ehhandler$??1CGdiObject@@UAE@XZ:
  00008	b8 00 00 00 00	 mov	 eax, OFFSET FLAT:$T198724
  0000d	e9 00 00 00 00	 jmp	 ___CxxFrameHandler
text$x	ENDS
??1CGdiObject@@UAE@XZ ENDP				; CGdiObject::~CGdiObject
; Function compile flags: /Odt
; File d:\program files (x86)\microsoft visual studio .net 2003\vc7\atlmfc\include\afx.inl
;	COMDAT ??1CObject@@UAE@XZ
_TEXT	SEGMENT
_this$ = -4						; size = 4
??1CObject@@UAE@XZ PROC NEAR				; CObject::~CObject, COMDAT
; _this$ = ecx

; 23   : 	{ }

  00000	55		 push	 ebp
  00001	8b ec		 mov	 ebp, esp
  00003	51		 push	 ecx
  00004	89 4d fc	 mov	 DWORD PTR _this$[ebp], ecx
  00007	8b e5		 mov	 esp, ebp
  00009	5d		 pop	 ebp
  0000a	c3		 ret	 0
??1CObject@@UAE@XZ ENDP					; CObject::~CObject
; Function compile flags: /Odt
_TEXT	ENDS
;	COMDAT ??_GCGdiObject@@UAEPAXI@Z
_TEXT	SEGMENT
_this$ = -4						; size = 4
___flags$ = 8						; size = 4
??_GCGdiObject@@UAEPAXI@Z PROC NEAR			; CGdiObject::`scalar deleting destructor', COMDAT
; _this$ = ecx
  00000	55		 push	 ebp
  00001	8b ec		 mov	 ebp, esp
  00003	51		 push	 ecx
  00004	89 4d fc	 mov	 DWORD PTR _this$[ebp], ecx
  00007	8b 4d fc	 mov	 ecx, DWORD PTR _this$[ebp]
  0000a	e8 00 00 00 00	 call	 ??1CGdiObject@@UAE@XZ	; CGdiObject::~CGdiObject
  0000f	8b 45 08	 mov	 eax, DWORD PTR ___flags$[ebp]
  00012	83 e0 01	 and	 eax, 1
  00015	74 09		 je	 SHORT $L41495
  00017	8b 4d fc	 mov	 ecx, DWORD PTR _this$[ebp]
  0001a	51		 push	 ecx
  0001b	e8 00 00 00 00	 call	 ??3CObject@@SGXPAX@Z	; CObject::operator delete
$L41495:
  00020	8b 45 fc	 mov	 eax, DWORD PTR _this$[ebp]
  00023	8b e5		 mov	 esp, ebp
  00025	5d		 pop	 ebp
  00026	c2 04 00	 ret	 4
??_GCGdiObject@@UAEPAXI@Z ENDP				; CGdiObject::`scalar deleting destructor'
; Function compile flags: /Odt
_TEXT	ENDS
;	COMDAT ??_GCBrush@@UAEPAXI@Z
_TEXT	SEGMENT
_this$ = -4						; size = 4
___flags$ = 8						; size = 4
??_GCBrush@@UAEPAXI@Z PROC NEAR				; CBrush::`scalar deleting destructor', COMDAT
; _this$ = ecx
  00000	55		 push	 ebp
  00001	8b ec		 mov	 ebp, esp
  00003	51		 push	 ecx
  00004	89 4d fc	 mov	 DWORD PTR _this$[ebp], ecx
  00007	8b 4d fc	 mov	 ecx, DWORD PTR _this$[ebp]
  0000a	e8 00 00 00 00	 call	 ??1CBrush@@UAE@XZ	; CBrush::~CBrush
  0000f	8b 45 08	 mov	 eax, DWORD PTR ___flags$[ebp]
  00012	83 e0 01	 and	 eax, 1
  00015	74 09		 je	 SHORT $L41589
  00017	8b 4d fc	 mov	 ecx, DWORD PTR _this$[ebp]
  0001a	51		 push	 ecx
  0001b	e8 00 00 00 00	 call	 ??3CObject@@SGXPAX@Z	; CObject::operator delete
$L41589:
  00020	8b 45 fc	 mov	 eax, DWORD PTR _this$[ebp]
  00023	8b e5		 mov	 esp, ebp
  00025	5d		 pop	 ebp
  00026	c2 04 00	 ret	 4
??_GCBrush@@UAEPAXI@Z ENDP				; CBrush::`scalar deleting destructor'
; Function compile flags: /Odt
; File d:\program files (x86)\microsoft visual studio .net 2003\vc7\atlmfc\include\afxwin1.inl
_TEXT	ENDS
;	COMDAT ?GetSafeHdc@CDC@@QBEPAUHDC__@@XZ
_TEXT	SEGMENT
tv66 = -8						; size = 4
_this$ = -4						; size = 4
?GetSafeHdc@CDC@@QBEPAUHDC__@@XZ PROC NEAR		; CDC::GetSafeHdc, COMDAT
; _this$ = ecx

; 316  : 	{ return this == NULL ? NULL : m_hDC; }

  00000	55		 push	 ebp
  00001	8b ec		 mov	 ebp, esp
  00003	83 ec 08	 sub	 esp, 8
  00006	89 4d fc	 mov	 DWORD PTR _this$[ebp], ecx
  00009	83 7d fc 00	 cmp	 DWORD PTR _this$[ebp], 0
  0000d	75 09		 jne	 SHORT $L198737
  0000f	c7 45 f8 00 00
	00 00		 mov	 DWORD PTR tv66[ebp], 0
  00016	eb 09		 jmp	 SHORT $L198738
$L198737:
  00018	8b 45 fc	 mov	 eax, DWORD PTR _this$[ebp]
  0001b	8b 48 04	 mov	 ecx, DWORD PTR [eax+4]
  0001e	89 4d f8	 mov	 DWORD PTR tv66[ebp], ecx
$L198738:
  00021	8b 45 f8	 mov	 eax, DWORD PTR tv66[ebp]
  00024	8b e5		 mov	 esp, ebp
  00026	5d		 pop	 ebp
  00027	c3		 ret	 0
?GetSafeHdc@CDC@@QBEPAUHDC__@@XZ ENDP			; CDC::GetSafeHdc
_TEXT	ENDS
PUBLIC	?GetSafeHandle@CGdiObject@@QBEPAXXZ		; CGdiObject::GetSafeHandle
EXTRN	__imp__FillRect@12:NEAR
; Function compile flags: /Odt
;	COMDAT ?FillRect@CDC@@QAEXPBUtagRECT@@PAVCBrush@@@Z
_TEXT	SEGMENT
_this$ = -4						; size = 4
_lpRect$ = 8						; size = 4
_pBrush$ = 12						; size = 4
?FillRect@CDC@@QAEXPBUtagRECT@@PAVCBrush@@@Z PROC NEAR	; CDC::FillRect, COMDAT
; _this$ = ecx

; 472  : 	{ ASSERT(m_hDC != NULL); ::FillRect(m_hDC, lpRect, (HBRUSH)pBrush->GetSafeHandle()); }

  00000	55		 push	 ebp
  00001	8b ec		 mov	 ebp, esp
  00003	51		 push	 ecx
  00004	89 4d fc	 mov	 DWORD PTR _this$[ebp], ecx
  00007	8b 4d 0c	 mov	 ecx, DWORD PTR _pBrush$[ebp]
  0000a	e8 00 00 00 00	 call	 ?GetSafeHandle@CGdiObject@@QBEPAXXZ ; CGdiObject::GetSafeHandle
  0000f	50		 push	 eax
  00010	8b 45 08	 mov	 eax, DWORD PTR _lpRect$[ebp]
  00013	50		 push	 eax
  00014	8b 4d fc	 mov	 ecx, DWORD PTR _this$[ebp]
  00017	8b 51 04	 mov	 edx, DWORD PTR [ecx+4]
  0001a	52		 push	 edx
  0001b	ff 15 00 00 00
	00		 call	 DWORD PTR __imp__FillRect@12
  00021	8b e5		 mov	 esp, ebp
  00023	5d		 pop	 ebp
  00024	c2 08 00	 ret	 8
?FillRect@CDC@@QAEXPBUtagRECT@@PAVCBrush@@@Z ENDP	; CDC::FillRect
; Function compile flags: /Odt
_TEXT	ENDS
;	COMDAT ?GetSafeHandle@CGdiObject@@QBEPAXXZ
_TEXT	SEGMENT
tv66 = -8						; size = 4
_this$ = -4						; size = 4
?GetSafeHandle@CGdiObject@@QBEPAXXZ PROC NEAR		; CGdiObject::GetSafeHandle, COMDAT
; _this$ = ecx

; 80   : 	{ return this == NULL ? NULL : m_hObject; }

  00000	55		 push	 ebp
  00001	8b ec		 mov	 ebp, esp
  00003	83 ec 08	 sub	 esp, 8
  00006	89 4d fc	 mov	 DWORD PTR _this$[ebp], ecx
  00009	83 7d fc 00	 cmp	 DWORD PTR _this$[ebp], 0
  0000d	75 09		 jne	 SHORT $L198743
  0000f	c7 45 f8 00 00
	00 00		 mov	 DWORD PTR tv66[ebp], 0
  00016	eb 09		 jmp	 SHORT $L198744
$L198743:
  00018	8b 45 fc	 mov	 eax, DWORD PTR _this$[ebp]
  0001b	8b 48 04	 mov	 ecx, DWORD PTR [eax+4]
  0001e	89 4d f8	 mov	 DWORD PTR tv66[ebp], ecx
$L198744:
  00021	8b 45 f8	 mov	 eax, DWORD PTR tv66[ebp]
  00024	8b e5		 mov	 esp, ebp
  00026	5d		 pop	 ebp
  00027	c3		 ret	 0
?GetSafeHandle@CGdiObject@@QBEPAXXZ ENDP		; CGdiObject::GetSafeHandle
_TEXT	ENDS
EXTRN	__imp__FrameRect@12:NEAR
; Function compile flags: /Odt
;	COMDAT ?FrameRect@CDC@@QAEXPBUtagRECT@@PAVCBrush@@@Z
_TEXT	SEGMENT
_this$ = -4						; size = 4
_lpRect$ = 8						; size = 4
_pBrush$ = 12						; size = 4
?FrameRect@CDC@@QAEXPBUtagRECT@@PAVCBrush@@@Z PROC NEAR	; CDC::FrameRect, COMDAT
; _this$ = ecx

; 474  : 	{ ASSERT(m_hDC != NULL); ::FrameRect(m_hDC, lpRect, (HBRUSH)pBrush->GetSafeHandle()); }

  00000	55		 push	 ebp
  00001	8b ec		 mov	 ebp, esp
  00003	51		 push	 ecx
  00004	89 4d fc	 mov	 DWORD PTR _this$[ebp], ecx
  00007	8b 4d 0c	 mov	 ecx, DWORD PTR _pBrush$[ebp]
  0000a	e8 00 00 00 00	 call	 ?GetSafeHandle@CGdiObject@@QBEPAXXZ ; CGdiObject::GetSafeHandle
  0000f	50		 push	 eax
  00010	8b 45 08	 mov	 eax, DWORD PTR _lpRect$[ebp]
  00013	50		 push	 eax
  00014	8b 4d fc	 mov	 ecx, DWORD PTR _this$[ebp]
  00017	8b 51 04	 mov	 edx, DWORD PTR [ecx+4]
  0001a	52		 push	 edx
  0001b	ff 15 00 00 00
	00		 call	 DWORD PTR __imp__FrameRect@12
  00021	8b e5		 mov	 esp, ebp
  00023	5d		 pop	 ebp
  00024	c2 08 00	 ret	 8
?FrameRect@CDC@@QAEXPBUtagRECT@@PAVCBrush@@@Z ENDP	; CDC::FrameRect
; Function compile flags: /Odt
; File d:\program files (x86)\microsoft visual studio .net 2003\vc7\atlmfc\include\afxwin2.inl
_TEXT	ENDS
;	COMDAT ?GetSafeHwnd@CWnd@@QBEPAUHWND__@@XZ
_TEXT	SEGMENT
tv66 = -8						; size = 4
_this$ = -4						; size = 4
?GetSafeHwnd@CWnd@@QBEPAUHWND__@@XZ PROC NEAR		; CWnd::GetSafeHwnd, COMDAT
; _this$ = ecx

; 27   : 	{ return this == NULL ? NULL : m_hWnd; }

  00000	55		 push	 ebp
  00001	8b ec		 mov	 ebp, esp
  00003	83 ec 08	 sub	 esp, 8
  00006	89 4d fc	 mov	 DWORD PTR _this$[ebp], ecx
  00009	83 7d fc 00	 cmp	 DWORD PTR _this$[ebp], 0
  0000d	75 09		 jne	 SHORT $L198749
  0000f	c7 45 f8 00 00
	00 00		 mov	 DWORD PTR tv66[ebp], 0
  00016	eb 09		 jmp	 SHORT $L198750
$L198749:
  00018	8b 45 fc	 mov	 eax, DWORD PTR _this$[ebp]
  0001b	8b 48 20	 mov	 ecx, DWORD PTR [eax+32]
  0001e	89 4d f8	 mov	 DWORD PTR tv66[ebp], ecx
$L198750:
  00021	8b 45 f8	 mov	 eax, DWORD PTR tv66[ebp]
  00024	8b e5		 mov	 esp, ebp
  00026	5d		 pop	 ebp
  00027	c3		 ret	 0
?GetSafeHwnd@CWnd@@QBEPAUHWND__@@XZ ENDP		; CWnd::GetSafeHwnd
_TEXT	ENDS
EXTRN	__imp__GetClientRect@8:NEAR
; Function compile flags: /Odt
;	COMDAT ?GetClientRect@CWnd@@QBEXPAUtagRECT@@@Z
_TEXT	SEGMENT
_this$ = -4						; size = 4
_lpRect$ = 8						; size = 4
?GetClientRect@CWnd@@QBEXPAUtagRECT@@@Z PROC NEAR	; CWnd::GetClientRect, COMDAT
; _this$ = ecx

; 107  : 	{ ASSERT(::IsWindow(m_hWnd)); ::GetClientRect(m_hWnd, lpRect); }

  00000	55		 push	 ebp
  00001	8b ec		 mov	 ebp, esp
  00003	51		 push	 ecx
  00004	89 4d fc	 mov	 DWORD PTR _this$[ebp], ecx
  00007	8b 45 08	 mov	 eax, DWORD PTR _lpRect$[ebp]
  0000a	50		 push	 eax
  0000b	8b 4d fc	 mov	 ecx, DWORD PTR _this$[ebp]
  0000e	8b 51 20	 mov	 edx, DWORD PTR [ecx+32]
  00011	52		 push	 edx
  00012	ff 15 00 00 00
	00		 call	 DWORD PTR __imp__GetClientRect@8
  00018	8b e5		 mov	 esp, ebp
  0001a	5d		 pop	 ebp
  0001b	c2 04 00	 ret	 4
?GetClientRect@CWnd@@QBEXPAUtagRECT@@@Z ENDP		; CWnd::GetClientRect
_TEXT	ENDS
EXTRN	__imp__GetWindowDC@4:NEAR
; Function compile flags: /Odt
;	COMDAT ?GetWindowDC@CWnd@@QAEPAVCDC@@XZ
_TEXT	SEGMENT
_this$ = -4						; size = 4
?GetWindowDC@CWnd@@QAEPAVCDC@@XZ PROC NEAR		; CWnd::GetWindowDC, COMDAT
; _this$ = ecx

; 123  : 	{ ASSERT(::IsWindow(m_hWnd)); return CDC::FromHandle(::GetWindowDC(m_hWnd)); }

  00000	55		 push	 ebp
  00001	8b ec		 mov	 ebp, esp
  00003	51		 push	 ecx
  00004	89 4d fc	 mov	 DWORD PTR _this$[ebp], ecx
  00007	8b 45 fc	 mov	 eax, DWORD PTR _this$[ebp]
  0000a	8b 48 20	 mov	 ecx, DWORD PTR [eax+32]
  0000d	51		 push	 ecx
  0000e	ff 15 00 00 00
	00		 call	 DWORD PTR __imp__GetWindowDC@4
  00014	50		 push	 eax
  00015	e8 00 00 00 00	 call	 ?FromHandle@CDC@@SGPAV1@PAUHDC__@@@Z ; CDC::FromHandle
  0001a	8b e5		 mov	 esp, ebp
  0001c	5d		 pop	 ebp
  0001d	c3		 ret	 0
?GetWindowDC@CWnd@@QAEPAVCDC@@XZ ENDP			; CWnd::GetWindowDC
_TEXT	ENDS
EXTRN	__imp__ReleaseDC@8:NEAR
; Function compile flags: /Odt
;	COMDAT ?ReleaseDC@CWnd@@QAEHPAVCDC@@@Z
_TEXT	SEGMENT
_this$ = -4						; size = 4
_pDC$ = 8						; size = 4
?ReleaseDC@CWnd@@QAEHPAVCDC@@@Z PROC NEAR		; CWnd::ReleaseDC, COMDAT
; _this$ = ecx

; 125  : 	{ ASSERT(::IsWindow(m_hWnd)); return ::ReleaseDC(m_hWnd, pDC->m_hDC); }

  00000	55		 push	 ebp
  00001	8b ec		 mov	 ebp, esp
  00003	51		 push	 ecx
  00004	89 4d fc	 mov	 DWORD PTR _this$[ebp], ecx
  00007	8b 45 08	 mov	 eax, DWORD PTR _pDC$[ebp]
  0000a	8b 48 04	 mov	 ecx, DWORD PTR [eax+4]
  0000d	51		 push	 ecx
  0000e	8b 55 fc	 mov	 edx, DWORD PTR _this$[ebp]
  00011	8b 42 20	 mov	 eax, DWORD PTR [edx+32]
  00014	50		 push	 eax
  00015	ff 15 00 00 00
	00		 call	 DWORD PTR __imp__ReleaseDC@8
  0001b	8b e5		 mov	 esp, ebp
  0001d	5d		 pop	 ebp
  0001e	c2 04 00	 ret	 4
?ReleaseDC@CWnd@@QAEHPAVCDC@@@Z ENDP			; CWnd::ReleaseDC
_TEXT	ENDS
EXTRN	__imp__InvalidateRect@12:NEAR
; Function compile flags: /Odt
;	COMDAT ?Invalidate@CWnd@@QAEXH@Z
_TEXT	SEGMENT
_this$ = -4						; size = 4
_bErase$ = 8						; size = 4
?Invalidate@CWnd@@QAEXH@Z PROC NEAR			; CWnd::Invalidate, COMDAT
; _this$ = ecx

; 135  : 	{ ASSERT(::IsWindow(m_hWnd)); ::InvalidateRect(m_hWnd, NULL, bErase); }

  00000	55		 push	 ebp
  00001	8b ec		 mov	 ebp, esp
  00003	51		 push	 ecx
  00004	89 4d fc	 mov	 DWORD PTR _this$[ebp], ecx
  00007	8b 45 08	 mov	 eax, DWORD PTR _bErase$[ebp]
  0000a	50		 push	 eax
  0000b	6a 00		 push	 0
  0000d	8b 4d fc	 mov	 ecx, DWORD PTR _this$[ebp]
  00010	8b 51 20	 mov	 edx, DWORD PTR [ecx+32]
  00013	52		 push	 edx
  00014	ff 15 00 00 00
	00		 call	 DWORD PTR __imp__InvalidateRect@12
  0001a	8b e5		 mov	 esp, ebp
  0001c	5d		 pop	 ebp
  0001d	c2 04 00	 ret	 4
?Invalidate@CWnd@@QAEXH@Z ENDP				; CWnd::Invalidate
_TEXT	ENDS
EXTRN	__imp__SetCapture@4:NEAR
; Function compile flags: /Odt
;	COMDAT ?SetCapture@CWnd@@QAEPAV1@XZ
_TEXT	SEGMENT
_this$ = -4						; size = 4
?SetCapture@CWnd@@QAEPAV1@XZ PROC NEAR			; CWnd::SetCapture, COMDAT
; _this$ = ecx

; 199  : 	{ ASSERT(::IsWindow(m_hWnd)); return CWnd::FromHandle(::SetCapture(m_hWnd)); }

  00000	55		 push	 ebp
  00001	8b ec		 mov	 ebp, esp
  00003	51		 push	 ecx
  00004	89 4d fc	 mov	 DWORD PTR _this$[ebp], ecx
  00007	8b 45 fc	 mov	 eax, DWORD PTR _this$[ebp]
  0000a	8b 48 20	 mov	 ecx, DWORD PTR [eax+32]
  0000d	51		 push	 ecx
  0000e	ff 15 00 00 00
	00		 call	 DWORD PTR __imp__SetCapture@4
  00014	50		 push	 eax
  00015	e8 00 00 00 00	 call	 ?FromHandle@CWnd@@SGPAV1@PAUHWND__@@@Z ; CWnd::FromHandle
  0001a	8b e5		 mov	 esp, ebp
  0001c	5d		 pop	 ebp
  0001d	c3		 ret	 0
?SetCapture@CWnd@@QAEPAV1@XZ ENDP			; CWnd::SetCapture
_TEXT	ENDS
EXTRN	__imp__GetParent@4:NEAR
; Function compile flags: /Odt
;	COMDAT ?GetParent@CWnd@@QBEPAV1@XZ
_TEXT	SEGMENT
_this$ = -4						; size = 4
?GetParent@CWnd@@QBEPAV1@XZ PROC NEAR			; CWnd::GetParent, COMDAT
; _this$ = ecx

; 282  : 	{ ASSERT(::IsWindow(m_hWnd)); return CWnd::FromHandle(::GetParent(m_hWnd)); }

  00000	55		 push	 ebp
  00001	8b ec		 mov	 ebp, esp
  00003	51		 push	 ecx
  00004	89 4d fc	 mov	 DWORD PTR _this$[ebp], ecx
  00007	8b 45 fc	 mov	 eax, DWORD PTR _this$[ebp]
  0000a	8b 48 20	 mov	 ecx, DWORD PTR [eax+32]
  0000d	51		 push	 ecx
  0000e	ff 15 00 00 00
	00		 call	 DWORD PTR __imp__GetParent@4
  00014	50		 push	 eax
  00015	e8 00 00 00 00	 call	 ?FromHandle@CWnd@@SGPAV1@PAUHWND__@@@Z ; CWnd::FromHandle
  0001a	8b e5		 mov	 esp, ebp
  0001c	5d		 pop	 ebp
  0001d	c3		 ret	 0
?GetParent@CWnd@@QBEPAV1@XZ ENDP			; CWnd::GetParent
_TEXT	ENDS
EXTRN	__imp__WindowFromPoint@8:NEAR
; Function compile flags: /Odt
;	COMDAT ?WindowFromPoint@CWnd@@SGPAV1@UtagPOINT@@@Z
_TEXT	SEGMENT
_point$ = 8						; size = 8
?WindowFromPoint@CWnd@@SGPAV1@UtagPOINT@@@Z PROC NEAR	; CWnd::WindowFromPoint, COMDAT

; 287  : 	{ return CWnd::FromHandle(::WindowFromPoint(point)); }

  00000	55		 push	 ebp
  00001	8b ec		 mov	 ebp, esp
  00003	8b 45 0c	 mov	 eax, DWORD PTR _point$[ebp+4]
  00006	50		 push	 eax
  00007	8b 4d 08	 mov	 ecx, DWORD PTR _point$[ebp]
  0000a	51		 push	 ecx
  0000b	ff 15 00 00 00
	00		 call	 DWORD PTR __imp__WindowFromPoint@8
  00011	50		 push	 eax
  00012	e8 00 00 00 00	 call	 ?FromHandle@CWnd@@SGPAV1@PAUHWND__@@@Z ; CWnd::FromHandle
  00017	5d		 pop	 ebp
  00018	c2 08 00	 ret	 8
?WindowFromPoint@CWnd@@SGPAV1@UtagPOINT@@@Z ENDP	; CWnd::WindowFromPoint
_TEXT	ENDS
EXTRN	?Default@CWnd@@IAEJXZ:NEAR			; CWnd::Default
; Function compile flags: /Odt
;	COMDAT ?OnLButtonDown@CWnd@@IAEXIVCPoint@@@Z
_TEXT	SEGMENT
_this$ = -4						; size = 4
___formal$ = 8						; size = 4
___formal$ = 12						; size = 8
?OnLButtonDown@CWnd@@IAEXIVCPoint@@@Z PROC NEAR		; CWnd::OnLButtonDown, COMDAT
; _this$ = ecx

; 464  : 	{ Default(); }

  00000	55		 push	 ebp
  00001	8b ec		 mov	 ebp, esp
  00003	51		 push	 ecx
  00004	89 4d fc	 mov	 DWORD PTR _this$[ebp], ecx
  00007	8b 4d fc	 mov	 ecx, DWORD PTR _this$[ebp]
  0000a	e8 00 00 00 00	 call	 ?Default@CWnd@@IAEJXZ	; CWnd::Default
  0000f	8b e5		 mov	 esp, ebp
  00011	5d		 pop	 ebp
  00012	c2 0c 00	 ret	 12			; 0000000cH
?OnLButtonDown@CWnd@@IAEXIVCPoint@@@Z ENDP		; CWnd::OnLButtonDown
; Function compile flags: /Odt
_TEXT	ENDS
;	COMDAT ?OnLButtonUp@CWnd@@IAEXIVCPoint@@@Z
_TEXT	SEGMENT
_this$ = -4						; size = 4
___formal$ = 8						; size = 4
___formal$ = 12						; size = 8
?OnLButtonUp@CWnd@@IAEXIVCPoint@@@Z PROC NEAR		; CWnd::OnLButtonUp, COMDAT
; _this$ = ecx

; 466  : 	{ Default(); }

  00000	55		 push	 ebp
  00001	8b ec		 mov	 ebp, esp
  00003	51		 push	 ecx
  00004	89 4d fc	 mov	 DWORD PTR _this$[ebp], ecx
  00007	8b 4d fc	 mov	 ecx, DWORD PTR _this$[ebp]
  0000a	e8 00 00 00 00	 call	 ?Default@CWnd@@IAEJXZ	; CWnd::Default
  0000f	8b e5		 mov	 esp, ebp
  00011	5d		 pop	 ebp
  00012	c2 0c 00	 ret	 12			; 0000000cH
?OnLButtonUp@CWnd@@IAEXIVCPoint@@@Z ENDP		; CWnd::OnLButtonUp
; Function compile flags: /Odt
_TEXT	ENDS
;	COMDAT ?OnMouseMove@CWnd@@IAEXIVCPoint@@@Z
_TEXT	SEGMENT
_this$ = -4						; size = 4
___formal$ = 8						; size = 4
___formal$ = 12						; size = 8
?OnMouseMove@CWnd@@IAEXIVCPoint@@@Z PROC NEAR		; CWnd::OnMouseMove, COMDAT
; _this$ = ecx

; 476  : 	{ Default(); }

  00000	55		 push	 ebp
  00001	8b ec		 mov	 ebp, esp
  00003	51		 push	 ecx
  00004	89 4d fc	 mov	 DWORD PTR _this$[ebp], ecx
  00007	8b 4d fc	 mov	 ecx, DWORD PTR _this$[ebp]
  0000a	e8 00 00 00 00	 call	 ?Default@CWnd@@IAEJXZ	; CWnd::Default
  0000f	8b e5		 mov	 esp, ebp
  00011	5d		 pop	 ebp
  00012	c2 0c 00	 ret	 12			; 0000000cH
?OnMouseMove@CWnd@@IAEXIVCPoint@@@Z ENDP		; CWnd::OnMouseMove
; Function compile flags: /Odt
_TEXT	ENDS
;	COMDAT ?DoDataExchange@CWnd@@MAEXPAVCDataExchange@@@Z
_TEXT	SEGMENT
_this$ = -4						; size = 4
___formal$ = 8						; size = 4
?DoDataExchange@CWnd@@MAEXPAVCDataExchange@@@Z PROC NEAR ; CWnd::DoDataExchange, COMDAT
; _this$ = ecx

; 545  : 	{ } // default does nothing

  00000	55		 push	 ebp
  00001	8b ec		 mov	 ebp, esp
  00003	51		 push	 ecx
  00004	89 4d fc	 mov	 DWORD PTR _this$[ebp], ecx
  00007	8b e5		 mov	 esp, ebp
  00009	5d		 pop	 ebp
  0000a	c2 04 00	 ret	 4
?DoDataExchange@CWnd@@MAEXPAVCDataExchange@@@Z ENDP	; CWnd::DoDataExchange
_TEXT	ENDS
EXTRN	__imp__EnableWindow@8:NEAR
; Function compile flags: /Odt
;	COMDAT ?BeginModalState@CWnd@@UAEXXZ
_TEXT	SEGMENT
_this$ = -4						; size = 4
?BeginModalState@CWnd@@UAEXXZ PROC NEAR			; CWnd::BeginModalState, COMDAT
; _this$ = ecx

; 549  : 	{ ::EnableWindow(m_hWnd, FALSE); }

  00000	55		 push	 ebp
  00001	8b ec		 mov	 ebp, esp
  00003	51		 push	 ecx
  00004	89 4d fc	 mov	 DWORD PTR _this$[ebp], ecx
  00007	6a 00		 push	 0
  00009	8b 45 fc	 mov	 eax, DWORD PTR _this$[ebp]
  0000c	8b 48 20	 mov	 ecx, DWORD PTR [eax+32]
  0000f	51		 push	 ecx
  00010	ff 15 00 00 00
	00		 call	 DWORD PTR __imp__EnableWindow@8
  00016	8b e5		 mov	 esp, ebp
  00018	5d		 pop	 ebp
  00019	c3		 ret	 0
?BeginModalState@CWnd@@UAEXXZ ENDP			; CWnd::BeginModalState
; Function compile flags: /Odt
_TEXT	ENDS
;	COMDAT ?EndModalState@CWnd@@UAEXXZ
_TEXT	SEGMENT
_this$ = -4						; size = 4
?EndModalState@CWnd@@UAEXXZ PROC NEAR			; CWnd::EndModalState, COMDAT
; _this$ = ecx

; 551  : 	{ ::EnableWindow(m_hWnd, TRUE); }

  00000	55		 push	 ebp
  00001	8b ec		 mov	 ebp, esp
  00003	51		 push	 ecx
  00004	89 4d fc	 mov	 DWORD PTR _this$[ebp], ecx
  00007	6a 01		 push	 1
  00009	8b 45 fc	 mov	 eax, DWORD PTR _this$[ebp]
  0000c	8b 48 20	 mov	 ecx, DWORD PTR [eax+32]
  0000f	51		 push	 ecx
  00010	ff 15 00 00 00
	00		 call	 DWORD PTR __imp__EnableWindow@8
  00016	8b e5		 mov	 esp, ebp
  00018	5d		 pop	 ebp
  00019	c3		 ret	 0
?EndModalState@CWnd@@UAEXXZ ENDP			; CWnd::EndModalState
_TEXT	ENDS
PUBLIC	??_7CSliderCtrl@@6B@				; CSliderCtrl::`vftable'
PUBLIC	??_GCSliderCtrl@@UAEPAXI@Z			; CSliderCtrl::`scalar deleting destructor'
PUBLIC	??_R4CSliderCtrl@@6B@				; CSliderCtrl::`RTTI Complete Object Locator'
PUBLIC	??_R3CSliderCtrl@@8				; CSliderCtrl::`RTTI Class Hierarchy Descriptor'
PUBLIC	??_R2CSliderCtrl@@8				; CSliderCtrl::`RTTI Base Class Array'
EXTRN	?GetMessageMap@CWnd@@MBEPBUAFX_MSGMAP@@XZ:NEAR	; CWnd::GetMessageMap
EXTRN	??_ECSliderCtrl@@UAEPAXI@Z:NEAR			; CSliderCtrl::`vector deleting destructor'
EXTRN	??0CWnd@@QAE@XZ:NEAR				; CWnd::CWnd
;	COMDAT ??_7CSliderCtrl@@6B@
; File d:\program files (x86)\microsoft visual studio .net 2003\vc7\atlmfc\include\afxcmn.inl
CONST	SEGMENT
??_7CSliderCtrl@@6B@ DD FLAT:??_R4CSliderCtrl@@6B@	; CSliderCtrl::`vftable'
	DD	FLAT:?GetRuntimeClass@CSliderCtrl@@UBEPAUCRuntimeClass@@XZ
	DD	FLAT:??_ECSliderCtrl@@UAEPAXI@Z
	DD	FLAT:?Serialize@CObject@@UAEXAAVCArchive@@@Z
	DD	FLAT:?AssertValid@CObject@@UBEXXZ
	DD	FLAT:?Dump@CObject@@UBEXAAVCDumpContext@@@Z
	DD	FLAT:?OnCmdMsg@CCmdTarget@@UAEHIHPAXPAUAFX_CMDHANDLERINFO@@@Z
	DD	FLAT:?OnFinalRelease@CWnd@@UAEXXZ
	DD	FLAT:?IsInvokeAllowed@CCmdTarget@@UAEHJ@Z
	DD	FLAT:?GetDispatchIID@CCmdTarget@@UAEHPAU_GUID@@@Z
	DD	FLAT:?GetTypeInfoCount@CCmdTarget@@UAEIXZ
	DD	FLAT:?GetTypeLibCache@CCmdTarget@@UAEPAVCTypeLibCache@@XZ
	DD	FLAT:?GetTypeLib@CCmdTarget@@UAEJKPAPAUITypeLib@@@Z
	DD	FLAT:?GetMessageMap@CWnd@@MBEPBUAFX_MSGMAP@@XZ
	DD	FLAT:?GetCommandMap@CCmdTarget@@MBEPBUAFX_OLECMDMAP@@XZ
	DD	FLAT:?GetDispatchMap@CCmdTarget@@MBEPBUAFX_DISPMAP@@XZ
	DD	FLAT:?GetConnectionMap@CCmdTarget@@MBEPBUAFX_CONNECTIONMAP@@XZ
	DD	FLAT:?GetInterfaceMap@CWnd@@MBEPBUAFX_INTERFACEMAP@@XZ
	DD	FLAT:?GetEventSinkMap@CCmdTarget@@MBEPBUAFX_EVENTSINKMAP@@XZ
	DD	FLAT:?OnCreateAggregates@CCmdTarget@@UAEHXZ
	DD	FLAT:?GetInterfaceHook@CCmdTarget@@UAEPAUIUnknown@@PBX@Z
	DD	FLAT:?GetExtraConnectionPoints@CCmdTarget@@MAEHPAVCPtrArray@@@Z
	DD	FLAT:?GetConnectionHook@CCmdTarget@@MAEPAUIConnectionPoint@@ABU_GUID@@@Z
	DD	FLAT:?PreSubclassWindow@CWnd@@UAEXXZ
	DD	FLAT:?Create@CWnd@@UAEHPBD0KABUtagRECT@@PAV1@IPAUCCreateContext@@@Z
	DD	FLAT:?CreateEx@CWnd@@UAEHKPBD0KABUtagRECT@@PAV1@IPAX@Z
	DD	FLAT:?CreateEx@CWnd@@UAEHKPBD0KHHHHPAUHWND__@@PAUHMENU__@@PAX@Z
	DD	FLAT:?DestroyWindow@CWnd@@UAEHXZ
	DD	FLAT:?PreCreateWindow@CWnd@@UAEHAAUtagCREATESTRUCTA@@@Z
	DD	FLAT:?CalcWindowRect@CWnd@@UAEXPAUtagRECT@@I@Z
	DD	FLAT:?OnToolHitTest@CWnd@@UBEHVCPoint@@PAUtagTOOLINFOA@@@Z
	DD	FLAT:?GetScrollBarCtrl@CWnd@@UBEPAVCScrollBar@@H@Z
	DD	FLAT:?WinHelpA@CWnd@@UAEXKI@Z
	DD	FLAT:?HtmlHelpA@CWnd@@UAEXKI@Z
	DD	FLAT:?WinHelpInternal@CWnd@@UAEXKI@Z
	DD	FLAT:?ContinueModal@CWnd@@UAEHXZ
	DD	FLAT:?EndModalLoop@CWnd@@UAEXH@Z
	DD	FLAT:?EnsureStdObj@CWnd@@UAEJXZ
	DD	FLAT:?get_accParent@CWnd@@UAEJPAPAUIDispatch@@@Z
	DD	FLAT:?get_accChildCount@CWnd@@UAEJPAJ@Z
	DD	FLAT:?get_accChild@CWnd@@UAEJUtagVARIANT@@PAPAUIDispatch@@@Z
	DD	FLAT:?get_accName@CWnd@@UAEJUtagVARIANT@@PAPA_W@Z
	DD	FLAT:?get_accValue@CWnd@@UAEJUtagVARIANT@@PAPA_W@Z
	DD	FLAT:?get_accDescription@CWnd@@UAEJUtagVARIANT@@PAPA_W@Z
	DD	FLAT:?get_accRole@CWnd@@UAEJUtagVARIANT@@PAU2@@Z
	DD	FLAT:?get_accState@CWnd@@UAEJUtagVARIANT@@PAU2@@Z
	DD	FLAT:?get_accHelp@CWnd@@UAEJUtagVARIANT@@PAPA_W@Z
	DD	FLAT:?get_accHelpTopic@CWnd@@UAEJPAPA_WUtagVARIANT@@PAJ@Z
	DD	FLAT:?get_accKeyboardShortcut@CWnd@@UAEJUtagVARIANT@@PAPA_W@Z
	DD	FLAT:?get_accFocus@CWnd@@UAEJPAUtagVARIANT@@@Z
	DD	FLAT:?get_accSelection@CWnd@@UAEJPAUtagVARIANT@@@Z
	DD	FLAT:?get_accDefaultAction@CWnd@@UAEJUtagVARIANT@@PAPA_W@Z
	DD	FLAT:?accSelect@CWnd@@UAEJJUtagVARIANT@@@Z
	DD	FLAT:?accLocation@CWnd@@UAEJPAJ000UtagVARIANT@@@Z
	DD	FLAT:?accNavigate@CWnd@@UAEJJUtagVARIANT@@PAU2@@Z
	DD	FLAT:?accHitTest@CWnd@@UAEJJJPAUtagVARIANT@@@Z
	DD	FLAT:?accDoDefaultAction@CWnd@@UAEJUtagVARIANT@@@Z
	DD	FLAT:?put_accName@CWnd@@UAEJUtagVARIANT@@PA_W@Z
	DD	FLAT:?put_accValue@CWnd@@UAEJUtagVARIANT@@PA_W@Z
	DD	FLAT:?SetProxy@CWnd@@UAEJPAUIAccessibleProxy@@@Z
	DD	FLAT:?CreateAccessibleProxy@CWnd@@UAEJIJPAJ@Z
	DD	FLAT:?OnCommand@CWnd@@MAEHIJ@Z
	DD	FLAT:?OnNotify@CWnd@@MAEHIJPAJ@Z
	DD	FLAT:?GetSuperWndProcAddr@CWnd@@MAEPAP6GJPAUHWND__@@IIJ@ZXZ
	DD	FLAT:?DoDataExchange@CWnd@@MAEXPAVCDataExchange@@@Z
	DD	FLAT:?BeginModalState@CWnd@@UAEXXZ
	DD	FLAT:?EndModalState@CWnd@@UAEXXZ
	DD	FLAT:?PreTranslateMessage@CWnd@@UAEHPAUtagMSG@@@Z
	DD	FLAT:?OnAmbientProperty@CWnd@@UAEHPAVCOleControlSite@@JPAUtagVARIANT@@@Z
	DD	FLAT:?WindowProc@CWnd@@MAEJIIJ@Z
	DD	FLAT:?OnWndMsg@CWnd@@MAEHIIJPAJ@Z
	DD	FLAT:?DefWindowProcA@CWnd@@MAEJIIJ@Z
	DD	FLAT:?PostNcDestroy@CWnd@@MAEXXZ
	DD	FLAT:?OnChildNotify@CWnd@@MAEHIIJPAJ@Z
	DD	FLAT:?CheckAutoCenter@CWnd@@UAEHXZ
	DD	FLAT:?IsFrameWnd@CWnd@@UBEHXZ
	DD	FLAT:?CreateControlContainer@CWnd@@MAEHPAPAVCOleControlContainer@@@Z
	DD	FLAT:?CreateControlSite@CWnd@@MAEHPAVCOleControlContainer@@PAPAVCOleControlSite@@IABU_GUID@@@Z
	DD	FLAT:?SetOccDialogInfo@CWnd@@MAEHPAU_AFX_OCC_DIALOG_INFO@@@Z
	DD	FLAT:?Create@CSliderCtrl@@UAEHKABUtagRECT@@PAVCWnd@@I@Z
	DD	FLAT:?CreateEx@CSliderCtrl@@UAEHKKABUtagRECT@@PAVCWnd@@I@Z
CONST	ENDS
;	COMDAT ??_R4CSliderCtrl@@6B@
rdata$r	SEGMENT
??_R4CSliderCtrl@@6B@ DD 00H				; CSliderCtrl::`RTTI Complete Object Locator'
	DD	00H
	DD	00H
	DD	FLAT:??_R0?AVCSliderCtrl@@@8
	DD	FLAT:??_R3CSliderCtrl@@8
rdata$r	ENDS
;	COMDAT ??_R3CSliderCtrl@@8
rdata$r	SEGMENT
??_R3CSliderCtrl@@8 DD 00H				; CSliderCtrl::`RTTI Class Hierarchy Descriptor'
	DD	00H
	DD	04H
	DD	FLAT:??_R2CSliderCtrl@@8
rdata$r	ENDS
;	COMDAT ??_R2CSliderCtrl@@8
rdata$r	SEGMENT
??_R2CSliderCtrl@@8 DD FLAT:??_R1A@?0A@A@CSliderCtrl@@8	; CSliderCtrl::`RTTI Base Class Array'
	DD	FLAT:??_R1A@?0A@A@CWnd@@8
	DD	FLAT:??_R1A@?0A@A@CCmdTarget@@8
	DD	FLAT:??_R1A@?0A@A@CObject@@8
; Function compile flags: /Odt
rdata$r	ENDS
;	COMDAT ??0CSliderCtrl@@QAE@XZ
_TEXT	SEGMENT
_this$ = -4						; size = 4
??0CSliderCtrl@@QAE@XZ PROC NEAR			; CSliderCtrl::CSliderCtrl, COMDAT
; _this$ = ecx

; 402  : 	{ }

  00000	55		 push	 ebp
  00001	8b ec		 mov	 ebp, esp
  00003	51		 push	 ecx
  00004	89 4d fc	 mov	 DWORD PTR _this$[ebp], ecx
  00007	8b 4d fc	 mov	 ecx, DWORD PTR _this$[ebp]
  0000a	e8 00 00 00 00	 call	 ??0CWnd@@QAE@XZ		; CWnd::CWnd
  0000f	8b 45 fc	 mov	 eax, DWORD PTR _this$[ebp]
  00012	c7 00 00 00 00
	00		 mov	 DWORD PTR [eax], OFFSET FLAT:??_7CSliderCtrl@@6B@
  00018	8b 45 fc	 mov	 eax, DWORD PTR _this$[ebp]
  0001b	8b e5		 mov	 esp, ebp
  0001d	5d		 pop	 ebp
  0001e	c3		 ret	 0
??0CSliderCtrl@@QAE@XZ ENDP				; CSliderCtrl::CSliderCtrl
; Function compile flags: /Odt
_TEXT	ENDS
;	COMDAT ??_GCSliderCtrl@@UAEPAXI@Z
_TEXT	SEGMENT
_this$ = -4						; size = 4
___flags$ = 8						; size = 4
??_GCSliderCtrl@@UAEPAXI@Z PROC NEAR			; CSliderCtrl::`scalar deleting destructor', COMDAT
; _this$ = ecx
  00000	55		 push	 ebp
  00001	8b ec		 mov	 ebp, esp
  00003	51		 push	 ecx
  00004	89 4d fc	 mov	 DWORD PTR _this$[ebp], ecx
  00007	8b 4d fc	 mov	 ecx, DWORD PTR _this$[ebp]
  0000a	e8 00 00 00 00	 call	 ??1CSliderCtrl@@UAE@XZ	; CSliderCtrl::~CSliderCtrl
  0000f	8b 45 08	 mov	 eax, DWORD PTR ___flags$[ebp]
  00012	83 e0 01	 and	 eax, 1
  00015	74 09		 je	 SHORT $L96339
  00017	8b 4d fc	 mov	 ecx, DWORD PTR _this$[ebp]
  0001a	51		 push	 ecx
  0001b	e8 00 00 00 00	 call	 ??3CObject@@SGXPAX@Z	; CObject::operator delete
$L96339:
  00020	8b 45 fc	 mov	 eax, DWORD PTR _this$[ebp]
  00023	8b e5		 mov	 esp, ebp
  00025	5d		 pop	 ebp
  00026	c2 04 00	 ret	 4
??_GCSliderCtrl@@UAEPAXI@Z ENDP				; CSliderCtrl::`scalar deleting destructor'
; Function compile flags: /Odt
_TEXT	ENDS
;	COMDAT ?SetPos@CSliderCtrl@@QAEXH@Z
_TEXT	SEGMENT
_this$ = -4						; size = 4
_nPos$ = 8						; size = 4
?SetPos@CSliderCtrl@@QAEXH@Z PROC NEAR			; CSliderCtrl::SetPos, COMDAT
; _this$ = ecx

; 428  : 	{ ASSERT(::IsWindow(m_hWnd)); ::SendMessage(m_hWnd, TBM_SETPOS, TRUE, nPos); }

  00000	55		 push	 ebp
  00001	8b ec		 mov	 ebp, esp
  00003	51		 push	 ecx
  00004	89 4d fc	 mov	 DWORD PTR _this$[ebp], ecx
  00007	8b 45 08	 mov	 eax, DWORD PTR _nPos$[ebp]
  0000a	50		 push	 eax
  0000b	6a 01		 push	 1
  0000d	68 05 04 00 00	 push	 1029			; 00000405H
  00012	8b 4d fc	 mov	 ecx, DWORD PTR _this$[ebp]
  00015	8b 51 20	 mov	 edx, DWORD PTR [ecx+32]
  00018	52		 push	 edx
  00019	ff 15 00 00 00
	00		 call	 DWORD PTR __imp__SendMessageA@16
  0001f	8b e5		 mov	 esp, ebp
  00021	5d		 pop	 ebp
  00022	c2 04 00	 ret	 4
?SetPos@CSliderCtrl@@QAEXH@Z ENDP			; CSliderCtrl::SetPos
_TEXT	ENDS
PUBLIC	?CreateCompatibleDC@CDC@@QAEHPAV1@@Z		; CDC::CreateCompatibleDC
PUBLIC	?SelectObject@CDC@@QAEPAVCBitmap@@PAV2@@Z	; CDC::SelectObject
PUBLIC	?PtVisible@CDC@@UBEHHH@Z			; CDC::PtVisible
PUBLIC	?RectVisible@CDC@@UBEHPBUtagRECT@@@Z		; CDC::RectVisible
PUBLIC	??_7CMemDC@@6B@					; CMemDC::`vftable'
PUBLIC	??_GCMemDC@@UAEPAXI@Z				; CMemDC::`scalar deleting destructor'
PUBLIC	??2CObject@@SGPAXI@Z				; CObject::operator new
PUBLIC	?TextOutA@CDC@@UAEHHHPBDH@Z			; CDC::TextOutA
PUBLIC	?ExtTextOutA@CDC@@UAEHHHIPBUtagRECT@@PBDIPAH@Z	; CDC::ExtTextOutA
PUBLIC	?TabbedTextOutA@CDC@@UAE?AVCSize@@HHPBDHHPAHH@Z	; CDC::TabbedTextOutA
PUBLIC	?DrawTextA@CDC@@UAEHPBDHPAUtagRECT@@I@Z		; CDC::DrawTextA
PUBLIC	??_R4CMemDC@@6B@				; CMemDC::`RTTI Complete Object Locator'
PUBLIC	??_R0?AVCMemDC@@@8				; CMemDC `RTTI Type Descriptor'
PUBLIC	??_R3CMemDC@@8					; CMemDC::`RTTI Class Hierarchy Descriptor'
PUBLIC	??_R2CMemDC@@8					; CMemDC::`RTTI Base Class Array'
PUBLIC	??_R1A@?0A@A@CMemDC@@8				; CMemDC::`RTTI Base Class Descriptor at (0,-1,0,0)'
PUBLIC	??_R1A@?0A@A@CDC@@8				; CDC::`RTTI Base Class Descriptor at (0,-1,0,0)'
PUBLIC	?DrawTextExA@CDC@@UAEHPADHPAUtagRECT@@IPAUtagDRAWTEXTPARAMS@@@Z ; CDC::DrawTextExA
PUBLIC	??_R0?AVCDC@@@8					; CDC `RTTI Type Descriptor'
PUBLIC	?GrayStringA@CDC@@UAEHPAVCBrush@@P6GHPAUHDC__@@JH@ZJHHHHH@Z ; CDC::GrayStringA
PUBLIC	?Escape@CDC@@UAEHHHPBDPAX@Z			; CDC::Escape
PUBLIC	??0CBitmap@@QAE@XZ				; CBitmap::CBitmap
PUBLIC	?CreateCompatibleBitmap@CBitmap@@QAEHPAVCDC@@HH@Z ; CBitmap::CreateCompatibleBitmap
EXTRN	?SetAttribDC@CDC@@UAEXPAUHDC__@@@Z:NEAR		; CDC::SetAttribDC
EXTRN	?SetOutputDC@CDC@@UAEXPAUHDC__@@@Z:NEAR		; CDC::SetOutputDC
EXTRN	?ReleaseAttribDC@CDC@@UAEXXZ:NEAR		; CDC::ReleaseAttribDC
EXTRN	?ReleaseOutputDC@CDC@@UAEXXZ:NEAR		; CDC::ReleaseOutputDC
EXTRN	??0CDC@@QAE@XZ:NEAR				; CDC::CDC
EXTRN	?SaveDC@CDC@@UAEHXZ:NEAR			; CDC::SaveDC
EXTRN	?RestoreDC@CDC@@UAEHH@Z:NEAR			; CDC::RestoreDC
EXTRN	?SelectStockObject@CDC@@UAEPAVCGdiObject@@H@Z:NEAR ; CDC::SelectStockObject
EXTRN	?SelectObject@CDC@@UAEPAVCFont@@PAV2@@Z:NEAR	; CDC::SelectObject
EXTRN	?SetBkColor@CDC@@UAEKK@Z:NEAR			; CDC::SetBkColor
EXTRN	?SetTextColor@CDC@@UAEKK@Z:NEAR			; CDC::SetTextColor
EXTRN	?SetMapMode@CDC@@UAEHH@Z:NEAR			; CDC::SetMapMode
EXTRN	?SetViewportOrg@CDC@@UAE?AVCPoint@@HH@Z:NEAR	; CDC::SetViewportOrg
EXTRN	?OffsetViewportOrg@CDC@@UAE?AVCPoint@@HH@Z:NEAR	; CDC::OffsetViewportOrg
EXTRN	?SetViewportExt@CDC@@UAE?AVCSize@@HH@Z:NEAR	; CDC::SetViewportExt
EXTRN	?ScaleViewportExt@CDC@@UAE?AVCSize@@HHHH@Z:NEAR	; CDC::ScaleViewportExt
EXTRN	?SetWindowExt@CDC@@UAE?AVCSize@@HH@Z:NEAR	; CDC::SetWindowExt
EXTRN	?ScaleWindowExt@CDC@@UAE?AVCSize@@HHHH@Z:NEAR	; CDC::ScaleWindowExt
EXTRN	?GetClipBox@CDC@@UBEHPAUtagRECT@@@Z:NEAR	; CDC::GetClipBox
EXTRN	??_ECMemDC@@UAEPAXI@Z:NEAR			; CMemDC::`vector deleting destructor'
EXTRN	??1CDC@@UAE@XZ:NEAR				; CDC::~CDC
EXTRN	?GetRuntimeClass@CDC@@UBEPAUCRuntimeClass@@XZ:NEAR ; CDC::GetRuntimeClass
;	COMDAT xdata$x
; File d:\boxgit\playbox\playbox\dev\prj\playbox\src\gui\commoncontrol\listctrol\gdiex.h
xdata$x	SEGMENT
$T198795 DD	0ffffffffH
	DD	FLAT:$L198790
	DD	00H
	DD	FLAT:$L198791
$T198793 DD	019930520H
	DD	02H
	DD	FLAT:$T198795
	DD	2 DUP(00H)
	DD	2 DUP(00H)
xdata$x	ENDS
;	COMDAT ??_7CMemDC@@6B@
CONST	SEGMENT
??_7CMemDC@@6B@ DD FLAT:??_R4CMemDC@@6B@		; CMemDC::`vftable'
	DD	FLAT:?GetRuntimeClass@CDC@@UBEPAUCRuntimeClass@@XZ
	DD	FLAT:??_ECMemDC@@UAEPAXI@Z
	DD	FLAT:?Serialize@CObject@@UAEXAAVCArchive@@@Z
	DD	FLAT:?AssertValid@CObject@@UBEXXZ
	DD	FLAT:?Dump@CObject@@UBEXAAVCDumpContext@@@Z
	DD	FLAT:?SetAttribDC@CDC@@UAEXPAUHDC__@@@Z
	DD	FLAT:?SetOutputDC@CDC@@UAEXPAUHDC__@@@Z
	DD	FLAT:?ReleaseAttribDC@CDC@@UAEXXZ
	DD	FLAT:?ReleaseOutputDC@CDC@@UAEXXZ
	DD	FLAT:?SaveDC@CDC@@UAEHXZ
	DD	FLAT:?RestoreDC@CDC@@UAEHH@Z
	DD	FLAT:?SelectStockObject@CDC@@UAEPAVCGdiObject@@H@Z
	DD	FLAT:?SelectObject@CDC@@UAEPAVCFont@@PAV2@@Z
	DD	FLAT:?SetBkColor@CDC@@UAEKK@Z
	DD	FLAT:?SetTextColor@CDC@@UAEKK@Z
	DD	FLAT:?SetMapMode@CDC@@UAEHH@Z
	DD	FLAT:?SetViewportOrg@CDC@@UAE?AVCPoint@@HH@Z
	DD	FLAT:?OffsetViewportOrg@CDC@@UAE?AVCPoint@@HH@Z
	DD	FLAT:?SetViewportExt@CDC@@UAE?AVCSize@@HH@Z
	DD	FLAT:?ScaleViewportExt@CDC@@UAE?AVCSize@@HHHH@Z
	DD	FLAT:?SetWindowExt@CDC@@UAE?AVCSize@@HH@Z
	DD	FLAT:?ScaleWindowExt@CDC@@UAE?AVCSize@@HHHH@Z
	DD	FLAT:?GetClipBox@CDC@@UBEHPAUtagRECT@@@Z
	DD	FLAT:?PtVisible@CDC@@UBEHHH@Z
	DD	FLAT:?RectVisible@CDC@@UBEHPBUtagRECT@@@Z
	DD	FLAT:?TextOutA@CDC@@UAEHHHPBDH@Z
	DD	FLAT:?ExtTextOutA@CDC@@UAEHHHIPBUtagRECT@@PBDIPAH@Z
	DD	FLAT:?TabbedTextOutA@CDC@@UAE?AVCSize@@HHPBDHHPAHH@Z
	DD	FLAT:?DrawTextA@CDC@@UAEHPBDHPAUtagRECT@@I@Z
	DD	FLAT:?DrawTextExA@CDC@@UAEHPADHPAUtagRECT@@IPAUtagDRAWTEXTPARAMS@@@Z
	DD	FLAT:?GrayStringA@CDC@@UAEHPAVCBrush@@P6GHPAUHDC__@@JH@ZJHHHHH@Z
	DD	FLAT:?Escape@CDC@@UAEHHHPBDPAX@Z
CONST	ENDS
;	COMDAT ??_R4CMemDC@@6B@
rdata$r	SEGMENT
??_R4CMemDC@@6B@ DD 00H					; CMemDC::`RTTI Complete Object Locator'
	DD	00H
	DD	00H
	DD	FLAT:??_R0?AVCMemDC@@@8
	DD	FLAT:??_R3CMemDC@@8
rdata$r	ENDS
;	COMDAT ??_R0?AVCMemDC@@@8
_DATA	SEGMENT
??_R0?AVCMemDC@@@8 DD FLAT:??_7type_info@@6B@		; CMemDC `RTTI Type Descriptor'
	DD	00H
	DB	'.?AVCMemDC@@', 00H
_DATA	ENDS
;	COMDAT ??_R3CMemDC@@8
rdata$r	SEGMENT
??_R3CMemDC@@8 DD 00H					; CMemDC::`RTTI Class Hierarchy Descriptor'
	DD	00H
	DD	03H
	DD	FLAT:??_R2CMemDC@@8
rdata$r	ENDS
;	COMDAT ??_R2CMemDC@@8
rdata$r	SEGMENT
??_R2CMemDC@@8 DD FLAT:??_R1A@?0A@A@CMemDC@@8		; CMemDC::`RTTI Base Class Array'
	DD	FLAT:??_R1A@?0A@A@CDC@@8
	DD	FLAT:??_R1A@?0A@A@CObject@@8
rdata$r	ENDS
;	COMDAT ??_R1A@?0A@A@CMemDC@@8
rdata$r	SEGMENT
??_R1A@?0A@A@CMemDC@@8 DD FLAT:??_R0?AVCMemDC@@@8	; CMemDC::`RTTI Base Class Descriptor at (0,-1,0,0)'
	DD	02H
	DD	00H
	DD	0ffffffffH
	DD	00H
	DD	00H
rdata$r	ENDS
;	COMDAT ??_R1A@?0A@A@CDC@@8
rdata$r	SEGMENT
??_R1A@?0A@A@CDC@@8 DD FLAT:??_R0?AVCDC@@@8		; CDC::`RTTI Base Class Descriptor at (0,-1,0,0)'
	DD	01H
	DD	00H
	DD	0ffffffffH
	DD	00H
	DD	00H
rdata$r	ENDS
;	COMDAT ??_R0?AVCDC@@@8
_DATA	SEGMENT
??_R0?AVCDC@@@8 DD FLAT:??_7type_info@@6B@		; CDC `RTTI Type Descriptor'
	DD	00H
	DB	'.?AVCDC@@', 00H
; Function compile flags: /Odt
_DATA	ENDS
;	COMDAT ??0CMemDC@@QAE@PAVCDC@@ABVCRect@@@Z
_TEXT	SEGMENT
tv79 = -28						; size = 4
_this$ = -24						; size = 4
$T198787 = -20						; size = 4
$T198786 = -16						; size = 4
__$EHRec$ = -12						; size = 12
_apDC$ = 8						; size = 4
_arcBounds$ = 12					; size = 4
??0CMemDC@@QAE@PAVCDC@@ABVCRect@@@Z PROC NEAR		; CMemDC::CMemDC, COMDAT
; _this$ = ecx

; 69   : 	{

  00000	55		 push	 ebp
  00001	8b ec		 mov	 ebp, esp
  00003	6a ff		 push	 -1
  00005	68 00 00 00 00	 push	 __ehhandler$??0CMemDC@@QAE@PAVCDC@@ABVCRect@@@Z
  0000a	64 a1 00 00 00
	00		 mov	 eax, DWORD PTR fs:__except_list
  00010	50		 push	 eax
  00011	64 89 25 00 00
	00 00		 mov	 DWORD PTR fs:__except_list, esp
  00018	83 ec 10	 sub	 esp, 16			; 00000010H
  0001b	89 4d e8	 mov	 DWORD PTR _this$[ebp], ecx
  0001e	8b 4d e8	 mov	 ecx, DWORD PTR _this$[ebp]
  00021	e8 00 00 00 00	 call	 ??0CDC@@QAE@XZ		; CDC::CDC
  00026	c7 45 fc 00 00
	00 00		 mov	 DWORD PTR __$EHRec$[ebp+8], 0
  0002d	8b 45 e8	 mov	 eax, DWORD PTR _this$[ebp]
  00030	c7 00 00 00 00
	00		 mov	 DWORD PTR [eax], OFFSET FLAT:??_7CMemDC@@6B@
  00036	8b 4d e8	 mov	 ecx, DWORD PTR _this$[ebp]
  00039	83 c1 1c	 add	 ecx, 28			; 0000001cH
  0003c	e8 00 00 00 00	 call	 ??0CRect@@QAE@XZ	; CRect::CRect

; 70   : 		CreateCompatibleDC(apDC);

  00041	8b 4d 08	 mov	 ecx, DWORD PTR _apDC$[ebp]
  00044	51		 push	 ecx
  00045	8b 4d e8	 mov	 ecx, DWORD PTR _this$[ebp]
  00048	e8 00 00 00 00	 call	 ?CreateCompatibleDC@CDC@@QAEHPAV1@@Z ; CDC::CreateCompatibleDC

; 71   : 		mpBitmap = new CBitmap;

  0004d	6a 08		 push	 8
  0004f	e8 00 00 00 00	 call	 ??2CObject@@SGPAXI@Z	; CObject::operator new
  00054	89 45 ec	 mov	 DWORD PTR $T198787[ebp], eax
  00057	c6 45 fc 01	 mov	 BYTE PTR __$EHRec$[ebp+8], 1
  0005b	83 7d ec 00	 cmp	 DWORD PTR $T198787[ebp], 0
  0005f	74 0d		 je	 SHORT $L198788
  00061	8b 4d ec	 mov	 ecx, DWORD PTR $T198787[ebp]
  00064	e8 00 00 00 00	 call	 ??0CBitmap@@QAE@XZ	; CBitmap::CBitmap
  00069	89 45 e4	 mov	 DWORD PTR tv79[ebp], eax
  0006c	eb 07		 jmp	 SHORT $L198789
$L198788:
  0006e	c7 45 e4 00 00
	00 00		 mov	 DWORD PTR tv79[ebp], 0
$L198789:
  00075	8b 55 e4	 mov	 edx, DWORD PTR tv79[ebp]
  00078	89 55 f0	 mov	 DWORD PTR $T198786[ebp], edx
  0007b	c6 45 fc 00	 mov	 BYTE PTR __$EHRec$[ebp+8], 0
  0007f	8b 45 e8	 mov	 eax, DWORD PTR _this$[ebp]
  00082	8b 4d f0	 mov	 ecx, DWORD PTR $T198786[ebp]
  00085	89 48 10	 mov	 DWORD PTR [eax+16], ecx

; 72   : 		mpBitmap->CreateCompatibleBitmap(apDC, arcBounds.Width() + arcBounds.left, arcBounds.Height() + arcBounds.top);

  00088	8b 4d 0c	 mov	 ecx, DWORD PTR _arcBounds$[ebp]
  0008b	e8 00 00 00 00	 call	 ?Height@CRect@@QBEHXZ	; CRect::Height
  00090	8b 55 0c	 mov	 edx, DWORD PTR _arcBounds$[ebp]
  00093	03 42 04	 add	 eax, DWORD PTR [edx+4]
  00096	50		 push	 eax
  00097	8b 4d 0c	 mov	 ecx, DWORD PTR _arcBounds$[ebp]
  0009a	e8 00 00 00 00	 call	 ?Width@CRect@@QBEHXZ	; CRect::Width
  0009f	8b 4d 0c	 mov	 ecx, DWORD PTR _arcBounds$[ebp]
  000a2	03 01		 add	 eax, DWORD PTR [ecx]
  000a4	50		 push	 eax
  000a5	8b 55 08	 mov	 edx, DWORD PTR _apDC$[ebp]
  000a8	52		 push	 edx
  000a9	8b 45 e8	 mov	 eax, DWORD PTR _this$[ebp]
  000ac	8b 48 10	 mov	 ecx, DWORD PTR [eax+16]
  000af	e8 00 00 00 00	 call	 ?CreateCompatibleBitmap@CBitmap@@QAEHPAVCDC@@HH@Z ; CBitmap::CreateCompatibleBitmap

; 73   : 		mpOldBitmap = SelectObject(mpBitmap);

  000b4	8b 4d e8	 mov	 ecx, DWORD PTR _this$[ebp]
  000b7	8b 51 10	 mov	 edx, DWORD PTR [ecx+16]
  000ba	52		 push	 edx
  000bb	8b 4d e8	 mov	 ecx, DWORD PTR _this$[ebp]
  000be	e8 00 00 00 00	 call	 ?SelectObject@CDC@@QAEPAVCBitmap@@PAV2@@Z ; CDC::SelectObject
  000c3	8b 4d e8	 mov	 ecx, DWORD PTR _this$[ebp]
  000c6	89 41 14	 mov	 DWORD PTR [ecx+20], eax

; 74   : 		mpDC = apDC;

  000c9	8b 55 e8	 mov	 edx, DWORD PTR _this$[ebp]
  000cc	8b 45 08	 mov	 eax, DWORD PTR _apDC$[ebp]
  000cf	89 42 18	 mov	 DWORD PTR [edx+24], eax

; 75   : 		mrcBounds = arcBounds;

  000d2	8b 4d 0c	 mov	 ecx, DWORD PTR _arcBounds$[ebp]
  000d5	8b 55 e8	 mov	 edx, DWORD PTR _this$[ebp]
  000d8	83 c2 1c	 add	 edx, 28			; 0000001cH
  000db	8b 01		 mov	 eax, DWORD PTR [ecx]
  000dd	89 02		 mov	 DWORD PTR [edx], eax
  000df	8b 41 04	 mov	 eax, DWORD PTR [ecx+4]
  000e2	89 42 04	 mov	 DWORD PTR [edx+4], eax
  000e5	8b 41 08	 mov	 eax, DWORD PTR [ecx+8]
  000e8	89 42 08	 mov	 DWORD PTR [edx+8], eax
  000eb	8b 49 0c	 mov	 ecx, DWORD PTR [ecx+12]
  000ee	89 4a 0c	 mov	 DWORD PTR [edx+12], ecx

; 76   : 	}

  000f1	c7 45 fc ff ff
	ff ff		 mov	 DWORD PTR __$EHRec$[ebp+8], -1
  000f8	8b 45 e8	 mov	 eax, DWORD PTR _this$[ebp]
  000fb	8b 4d f4	 mov	 ecx, DWORD PTR __$EHRec$[ebp]
  000fe	64 89 0d 00 00
	00 00		 mov	 DWORD PTR fs:__except_list, ecx
  00105	8b e5		 mov	 esp, ebp
  00107	5d		 pop	 ebp
  00108	c2 08 00	 ret	 8
_TEXT	ENDS
;	COMDAT text$x
text$x	SEGMENT
$L198790:
  00000	8b 4d e8	 mov	 ecx, DWORD PTR _this$[ebp]
  00003	e9 00 00 00 00	 jmp	 ??1CDC@@UAE@XZ		; CDC::~CDC
$L198791:
  00008	8b 45 ec	 mov	 eax, DWORD PTR $T198787[ebp]
  0000b	50		 push	 eax
  0000c	e8 00 00 00 00	 call	 ??3CObject@@SGXPAX@Z	; CObject::operator delete
  00011	c3		 ret	 0
__ehhandler$??0CMemDC@@QAE@PAVCDC@@ABVCRect@@@Z:
  00012	b8 00 00 00 00	 mov	 eax, OFFSET FLAT:$T198793
  00017	e9 00 00 00 00	 jmp	 ___CxxFrameHandler
text$x	ENDS
??0CMemDC@@QAE@PAVCDC@@ABVCRect@@@Z ENDP		; CMemDC::CMemDC
EXTRN	??2@YAPAXI@Z:NEAR				; operator new
; Function compile flags: /Odt
; File d:\program files (x86)\microsoft visual studio .net 2003\vc7\atlmfc\include\afx.inl
;	COMDAT ??2CObject@@SGPAXI@Z
_TEXT	SEGMENT
_nSize$ = 8						; size = 4
??2CObject@@SGPAXI@Z PROC NEAR				; CObject::operator new, COMDAT

; 37   : 	{ return ::operator new(nSize); }

  00000	55		 push	 ebp
  00001	8b ec		 mov	 ebp, esp
  00003	8b 45 08	 mov	 eax, DWORD PTR _nSize$[ebp]
  00006	50		 push	 eax
  00007	e8 00 00 00 00	 call	 ??2@YAPAXI@Z		; operator new
  0000c	83 c4 04	 add	 esp, 4
  0000f	5d		 pop	 ebp
  00010	c2 04 00	 ret	 4
??2CObject@@SGPAXI@Z ENDP				; CObject::operator new
_TEXT	ENDS
PUBLIC	??_R4CBitmap@@6B@				; CBitmap::`RTTI Complete Object Locator'
PUBLIC	??_R0?AVCBitmap@@@8				; CBitmap `RTTI Type Descriptor'
PUBLIC	??_R3CBitmap@@8					; CBitmap::`RTTI Class Hierarchy Descriptor'
PUBLIC	??_R2CBitmap@@8					; CBitmap::`RTTI Base Class Array'
PUBLIC	??_R1A@?0A@A@CBitmap@@8				; CBitmap::`RTTI Base Class Descriptor at (0,-1,0,0)'
PUBLIC	??0CGdiObject@@QAE@XZ				; CGdiObject::CGdiObject
PUBLIC	??_7CBitmap@@6B@				; CBitmap::`vftable'
PUBLIC	??_GCBitmap@@UAEPAXI@Z				; CBitmap::`scalar deleting destructor'
EXTRN	?GetRuntimeClass@CBitmap@@UBEPAUCRuntimeClass@@XZ:NEAR ; CBitmap::GetRuntimeClass
EXTRN	??_ECBitmap@@UAEPAXI@Z:NEAR			; CBitmap::`vector deleting destructor'
;	COMDAT ??_7CBitmap@@6B@
; File d:\program files (x86)\microsoft visual studio .net 2003\vc7\atlmfc\include\afxwin1.inl
CONST	SEGMENT
??_7CBitmap@@6B@ DD FLAT:??_R4CBitmap@@6B@		; CBitmap::`vftable'
	DD	FLAT:?GetRuntimeClass@CBitmap@@UBEPAUCRuntimeClass@@XZ
	DD	FLAT:??_ECBitmap@@UAEPAXI@Z
	DD	FLAT:?Serialize@CObject@@UAEXAAVCArchive@@@Z
	DD	FLAT:?AssertValid@CObject@@UBEXXZ
	DD	FLAT:?Dump@CObject@@UBEXAAVCDumpContext@@@Z
CONST	ENDS
;	COMDAT ??_R4CBitmap@@6B@
rdata$r	SEGMENT
??_R4CBitmap@@6B@ DD 00H				; CBitmap::`RTTI Complete Object Locator'
	DD	00H
	DD	00H
	DD	FLAT:??_R0?AVCBitmap@@@8
	DD	FLAT:??_R3CBitmap@@8
rdata$r	ENDS
;	COMDAT ??_R0?AVCBitmap@@@8
_DATA	SEGMENT
??_R0?AVCBitmap@@@8 DD FLAT:??_7type_info@@6B@		; CBitmap `RTTI Type Descriptor'
	DD	00H
	DB	'.?AVCBitmap@@', 00H
_DATA	ENDS
;	COMDAT ??_R3CBitmap@@8
rdata$r	SEGMENT
??_R3CBitmap@@8 DD 00H					; CBitmap::`RTTI Class Hierarchy Descriptor'
	DD	00H
	DD	03H
	DD	FLAT:??_R2CBitmap@@8
rdata$r	ENDS
;	COMDAT ??_R2CBitmap@@8
rdata$r	SEGMENT
??_R2CBitmap@@8 DD FLAT:??_R1A@?0A@A@CBitmap@@8		; CBitmap::`RTTI Base Class Array'
	DD	FLAT:??_R1A@?0A@A@CGdiObject@@8
	DD	FLAT:??_R1A@?0A@A@CObject@@8
rdata$r	ENDS
;	COMDAT ??_R1A@?0A@A@CBitmap@@8
rdata$r	SEGMENT
??_R1A@?0A@A@CBitmap@@8 DD FLAT:??_R0?AVCBitmap@@@8	; CBitmap::`RTTI Base Class Descriptor at (0,-1,0,0)'
	DD	02H
	DD	00H
	DD	0ffffffffH
	DD	00H
	DD	00H
; Function compile flags: /Odt
rdata$r	ENDS
;	COMDAT ??0CBitmap@@QAE@XZ
_TEXT	SEGMENT
_this$ = -4						; size = 4
??0CBitmap@@QAE@XZ PROC NEAR				; CBitmap::CBitmap, COMDAT
; _this$ = ecx

; 177  : 	{ }

  00000	55		 push	 ebp
  00001	8b ec		 mov	 ebp, esp
  00003	51		 push	 ecx
  00004	89 4d fc	 mov	 DWORD PTR _this$[ebp], ecx
  00007	8b 4d fc	 mov	 ecx, DWORD PTR _this$[ebp]
  0000a	e8 00 00 00 00	 call	 ??0CGdiObject@@QAE@XZ	; CGdiObject::CGdiObject
  0000f	8b 45 fc	 mov	 eax, DWORD PTR _this$[ebp]
  00012	c7 00 00 00 00
	00		 mov	 DWORD PTR [eax], OFFSET FLAT:??_7CBitmap@@6B@
  00018	8b 45 fc	 mov	 eax, DWORD PTR _this$[ebp]
  0001b	8b e5		 mov	 esp, ebp
  0001d	5d		 pop	 ebp
  0001e	c3		 ret	 0
??0CBitmap@@QAE@XZ ENDP					; CBitmap::CBitmap
_TEXT	ENDS
PUBLIC	??0CObject@@IAE@XZ				; CObject::CObject
; Function compile flags: /Odt
;	COMDAT ??0CGdiObject@@QAE@XZ
_TEXT	SEGMENT
_this$ = -4						; size = 4
??0CGdiObject@@QAE@XZ PROC NEAR				; CGdiObject::CGdiObject, COMDAT
; _this$ = ecx

; 82   : 	{ m_hObject = NULL; }

  00000	55		 push	 ebp
  00001	8b ec		 mov	 ebp, esp
  00003	51		 push	 ecx
  00004	89 4d fc	 mov	 DWORD PTR _this$[ebp], ecx
  00007	8b 4d fc	 mov	 ecx, DWORD PTR _this$[ebp]
  0000a	e8 00 00 00 00	 call	 ??0CObject@@IAE@XZ	; CObject::CObject
  0000f	8b 45 fc	 mov	 eax, DWORD PTR _this$[ebp]
  00012	c7 00 00 00 00
	00		 mov	 DWORD PTR [eax], OFFSET FLAT:??_7CGdiObject@@6B@
  00018	8b 4d fc	 mov	 ecx, DWORD PTR _this$[ebp]
  0001b	c7 41 04 00 00
	00 00		 mov	 DWORD PTR [ecx+4], 0
  00022	8b 45 fc	 mov	 eax, DWORD PTR _this$[ebp]
  00025	8b e5		 mov	 esp, ebp
  00027	5d		 pop	 ebp
  00028	c3		 ret	 0
??0CGdiObject@@QAE@XZ ENDP				; CGdiObject::CGdiObject
; Function compile flags: /Odt
; File d:\program files (x86)\microsoft visual studio .net 2003\vc7\atlmfc\include\afx.inl
_TEXT	ENDS
;	COMDAT ??0CObject@@IAE@XZ
_TEXT	SEGMENT
_this$ = -4						; size = 4
??0CObject@@IAE@XZ PROC NEAR				; CObject::CObject, COMDAT
; _this$ = ecx

; 21   : 	{ }

  00000	55		 push	 ebp
  00001	8b ec		 mov	 ebp, esp
  00003	51		 push	 ecx
  00004	89 4d fc	 mov	 DWORD PTR _this$[ebp], ecx
  00007	8b 45 fc	 mov	 eax, DWORD PTR _this$[ebp]
  0000a	8b e5		 mov	 esp, ebp
  0000c	5d		 pop	 ebp
  0000d	c3		 ret	 0
??0CObject@@IAE@XZ ENDP					; CObject::CObject
_TEXT	ENDS
PUBLIC	??1CBitmap@@UAE@XZ				; CBitmap::~CBitmap
; Function compile flags: /Odt
;	COMDAT ??_GCBitmap@@UAEPAXI@Z
_TEXT	SEGMENT
_this$ = -4						; size = 4
___flags$ = 8						; size = 4
??_GCBitmap@@UAEPAXI@Z PROC NEAR			; CBitmap::`scalar deleting destructor', COMDAT
; _this$ = ecx
  00000	55		 push	 ebp
  00001	8b ec		 mov	 ebp, esp
  00003	51		 push	 ecx
  00004	89 4d fc	 mov	 DWORD PTR _this$[ebp], ecx
  00007	8b 4d fc	 mov	 ecx, DWORD PTR _this$[ebp]
  0000a	e8 00 00 00 00	 call	 ??1CBitmap@@UAE@XZ	; CBitmap::~CBitmap
  0000f	8b 45 08	 mov	 eax, DWORD PTR ___flags$[ebp]
  00012	83 e0 01	 and	 eax, 1
  00015	74 09		 je	 SHORT $L41685
  00017	8b 4d fc	 mov	 ecx, DWORD PTR _this$[ebp]
  0001a	51		 push	 ecx
  0001b	e8 00 00 00 00	 call	 ??3CObject@@SGXPAX@Z	; CObject::operator delete
$L41685:
  00020	8b 45 fc	 mov	 eax, DWORD PTR _this$[ebp]
  00023	8b e5		 mov	 esp, ebp
  00025	5d		 pop	 ebp
  00026	c2 04 00	 ret	 4
??_GCBitmap@@UAEPAXI@Z ENDP				; CBitmap::`scalar deleting destructor'
; Function compile flags: /Odt
; File d:\program files (x86)\microsoft visual studio .net 2003\vc7\atlmfc\include\afxwin1.inl
_TEXT	ENDS
;	COMDAT ??1CBitmap@@UAE@XZ
_TEXT	SEGMENT
_this$ = -4						; size = 4
??1CBitmap@@UAE@XZ PROC NEAR				; CBitmap::~CBitmap, COMDAT
; _this$ = ecx

; 179  : 	{ }

  00000	55		 push	 ebp
  00001	8b ec		 mov	 ebp, esp
  00003	51		 push	 ecx
  00004	89 4d fc	 mov	 DWORD PTR _this$[ebp], ecx
  00007	8b 45 fc	 mov	 eax, DWORD PTR _this$[ebp]
  0000a	c7 00 00 00 00
	00		 mov	 DWORD PTR [eax], OFFSET FLAT:??_7CBitmap@@6B@
  00010	8b 4d fc	 mov	 ecx, DWORD PTR _this$[ebp]
  00013	e8 00 00 00 00	 call	 ??1CGdiObject@@UAE@XZ	; CGdiObject::~CGdiObject
  00018	8b e5		 mov	 esp, ebp
  0001a	5d		 pop	 ebp
  0001b	c3		 ret	 0
??1CBitmap@@UAE@XZ ENDP					; CBitmap::~CBitmap
_TEXT	ENDS
EXTRN	__imp__CreateCompatibleBitmap@12:NEAR
EXTRN	?Attach@CGdiObject@@QAEHPAX@Z:NEAR		; CGdiObject::Attach
; Function compile flags: /Odt
;	COMDAT ?CreateCompatibleBitmap@CBitmap@@QAEHPAVCDC@@HH@Z
_TEXT	SEGMENT
_this$ = -4						; size = 4
_pDC$ = 8						; size = 4
_nWidth$ = 12						; size = 4
_nHeight$ = 16						; size = 4
?CreateCompatibleBitmap@CBitmap@@QAEHPAVCDC@@HH@Z PROC NEAR ; CBitmap::CreateCompatibleBitmap, COMDAT
; _this$ = ecx

; 217  : 	{ return Attach(::CreateCompatibleBitmap(pDC->m_hDC, nWidth, nHeight)); }

  00000	55		 push	 ebp
  00001	8b ec		 mov	 ebp, esp
  00003	51		 push	 ecx
  00004	89 4d fc	 mov	 DWORD PTR _this$[ebp], ecx
  00007	8b 45 10	 mov	 eax, DWORD PTR _nHeight$[ebp]
  0000a	50		 push	 eax
  0000b	8b 4d 0c	 mov	 ecx, DWORD PTR _nWidth$[ebp]
  0000e	51		 push	 ecx
  0000f	8b 55 08	 mov	 edx, DWORD PTR _pDC$[ebp]
  00012	8b 42 04	 mov	 eax, DWORD PTR [edx+4]
  00015	50		 push	 eax
  00016	ff 15 00 00 00
	00		 call	 DWORD PTR __imp__CreateCompatibleBitmap@12
  0001c	50		 push	 eax
  0001d	8b 4d fc	 mov	 ecx, DWORD PTR _this$[ebp]
  00020	e8 00 00 00 00	 call	 ?Attach@CGdiObject@@QAEHPAX@Z ; CGdiObject::Attach
  00025	8b e5		 mov	 esp, ebp
  00027	5d		 pop	 ebp
  00028	c2 0c 00	 ret	 12			; 0000000cH
?CreateCompatibleBitmap@CBitmap@@QAEHPAVCDC@@HH@Z ENDP	; CBitmap::CreateCompatibleBitmap
_TEXT	ENDS
EXTRN	?Attach@CDC@@QAEHPAUHDC__@@@Z:NEAR		; CDC::Attach
EXTRN	__imp__CreateCompatibleDC@4:NEAR
; Function compile flags: /Odt
;	COMDAT ?CreateCompatibleDC@CDC@@QAEHPAV1@@Z
_TEXT	SEGMENT
_this$ = -4						; size = 4
_pDC$ = 8						; size = 4
?CreateCompatibleDC@CDC@@QAEHPAV1@@Z PROC NEAR		; CDC::CreateCompatibleDC, COMDAT
; _this$ = ecx

; 330  : 	{ return Attach(::CreateCompatibleDC(pDC->GetSafeHdc())); }

  00000	55		 push	 ebp
  00001	8b ec		 mov	 ebp, esp
  00003	51		 push	 ecx
  00004	89 4d fc	 mov	 DWORD PTR _this$[ebp], ecx
  00007	8b 4d 08	 mov	 ecx, DWORD PTR _pDC$[ebp]
  0000a	e8 00 00 00 00	 call	 ?GetSafeHdc@CDC@@QBEPAUHDC__@@XZ ; CDC::GetSafeHdc
  0000f	50		 push	 eax
  00010	ff 15 00 00 00
	00		 call	 DWORD PTR __imp__CreateCompatibleDC@4
  00016	50		 push	 eax
  00017	8b 4d fc	 mov	 ecx, DWORD PTR _this$[ebp]
  0001a	e8 00 00 00 00	 call	 ?Attach@CDC@@QAEHPAUHDC__@@@Z ; CDC::Attach
  0001f	8b e5		 mov	 esp, ebp
  00021	5d		 pop	 ebp
  00022	c2 04 00	 ret	 4
?CreateCompatibleDC@CDC@@QAEHPAV1@@Z ENDP		; CDC::CreateCompatibleDC
_TEXT	ENDS
EXTRN	?SelectGdiObject@CDC@@KGPAVCGdiObject@@PAUHDC__@@PAX@Z:NEAR ; CDC::SelectGdiObject
; Function compile flags: /Odt
;	COMDAT ?SelectObject@CDC@@QAEPAVCBitmap@@PAV2@@Z
_TEXT	SEGMENT
_this$ = -4						; size = 4
_pBitmap$ = 8						; size = 4
?SelectObject@CDC@@QAEPAVCBitmap@@PAV2@@Z PROC NEAR	; CDC::SelectObject, COMDAT
; _this$ = ecx

; 361  : 	{ ASSERT(m_hDC != NULL); return (CBitmap*) SelectGdiObject(m_hDC, pBitmap->GetSafeHandle()); }

  00000	55		 push	 ebp
  00001	8b ec		 mov	 ebp, esp
  00003	51		 push	 ecx
  00004	89 4d fc	 mov	 DWORD PTR _this$[ebp], ecx
  00007	8b 4d 08	 mov	 ecx, DWORD PTR _pBitmap$[ebp]
  0000a	e8 00 00 00 00	 call	 ?GetSafeHandle@CGdiObject@@QBEPAXXZ ; CGdiObject::GetSafeHandle
  0000f	50		 push	 eax
  00010	8b 45 fc	 mov	 eax, DWORD PTR _this$[ebp]
  00013	8b 48 04	 mov	 ecx, DWORD PTR [eax+4]
  00016	51		 push	 ecx
  00017	e8 00 00 00 00	 call	 ?SelectGdiObject@CDC@@KGPAVCGdiObject@@PAUHDC__@@PAX@Z ; CDC::SelectGdiObject
  0001c	8b e5		 mov	 esp, ebp
  0001e	5d		 pop	 ebp
  0001f	c2 04 00	 ret	 4
?SelectObject@CDC@@QAEPAVCBitmap@@PAV2@@Z ENDP		; CDC::SelectObject
_TEXT	ENDS
EXTRN	__imp__PtVisible@12:NEAR
; Function compile flags: /Odt
;	COMDAT ?PtVisible@CDC@@UBEHHH@Z
_TEXT	SEGMENT
_this$ = -4						; size = 4
_x$ = 8							; size = 4
_y$ = 12						; size = 4
?PtVisible@CDC@@UBEHHH@Z PROC NEAR			; CDC::PtVisible, COMDAT
; _this$ = ecx

; 446  : 	{ ASSERT(m_hDC != NULL); return ::PtVisible(m_hDC, x, y); }

  00000	55		 push	 ebp
  00001	8b ec		 mov	 ebp, esp
  00003	51		 push	 ecx
  00004	89 4d fc	 mov	 DWORD PTR _this$[ebp], ecx
  00007	8b 45 0c	 mov	 eax, DWORD PTR _y$[ebp]
  0000a	50		 push	 eax
  0000b	8b 4d 08	 mov	 ecx, DWORD PTR _x$[ebp]
  0000e	51		 push	 ecx
  0000f	8b 55 fc	 mov	 edx, DWORD PTR _this$[ebp]
  00012	8b 42 04	 mov	 eax, DWORD PTR [edx+4]
  00015	50		 push	 eax
  00016	ff 15 00 00 00
	00		 call	 DWORD PTR __imp__PtVisible@12
  0001c	8b e5		 mov	 esp, ebp
  0001e	5d		 pop	 ebp
  0001f	c2 08 00	 ret	 8
?PtVisible@CDC@@UBEHHH@Z ENDP				; CDC::PtVisible
_TEXT	ENDS
EXTRN	__imp__RectVisible@8:NEAR
; Function compile flags: /Odt
;	COMDAT ?RectVisible@CDC@@UBEHPBUtagRECT@@@Z
_TEXT	SEGMENT
_this$ = -4						; size = 4
_lpRect$ = 8						; size = 4
?RectVisible@CDC@@UBEHPBUtagRECT@@@Z PROC NEAR		; CDC::RectVisible, COMDAT
; _this$ = ecx

; 450  : 	{ ASSERT(m_hDC != NULL); return ::RectVisible(m_hDC, lpRect); }

  00000	55		 push	 ebp
  00001	8b ec		 mov	 ebp, esp
  00003	51		 push	 ecx
  00004	89 4d fc	 mov	 DWORD PTR _this$[ebp], ecx
  00007	8b 45 08	 mov	 eax, DWORD PTR _lpRect$[ebp]
  0000a	50		 push	 eax
  0000b	8b 4d fc	 mov	 ecx, DWORD PTR _this$[ebp]
  0000e	8b 51 04	 mov	 edx, DWORD PTR [ecx+4]
  00011	52		 push	 edx
  00012	ff 15 00 00 00
	00		 call	 DWORD PTR __imp__RectVisible@8
  00018	8b e5		 mov	 esp, ebp
  0001a	5d		 pop	 ebp
  0001b	c2 04 00	 ret	 4
?RectVisible@CDC@@UBEHPBUtagRECT@@@Z ENDP		; CDC::RectVisible
_TEXT	ENDS
EXTRN	__imp__TextOutA@20:NEAR
; Function compile flags: /Odt
;	COMDAT ?TextOutA@CDC@@UAEHHHPBDH@Z
_TEXT	SEGMENT
_this$ = -4						; size = 4
_x$ = 8							; size = 4
_y$ = 12						; size = 4
_lpszString$ = 16					; size = 4
_nCount$ = 20						; size = 4
?TextOutA@CDC@@UAEHHHPBDH@Z PROC NEAR			; CDC::TextOutA, COMDAT
; _this$ = ecx

; 568  : 	{ ASSERT(m_hDC != NULL); return ::TextOut(m_hDC, x, y, lpszString, nCount); }

  00000	55		 push	 ebp
  00001	8b ec		 mov	 ebp, esp
  00003	51		 push	 ecx
  00004	89 4d fc	 mov	 DWORD PTR _this$[ebp], ecx
  00007	8b 45 14	 mov	 eax, DWORD PTR _nCount$[ebp]
  0000a	50		 push	 eax
  0000b	8b 4d 10	 mov	 ecx, DWORD PTR _lpszString$[ebp]
  0000e	51		 push	 ecx
  0000f	8b 55 0c	 mov	 edx, DWORD PTR _y$[ebp]
  00012	52		 push	 edx
  00013	8b 45 08	 mov	 eax, DWORD PTR _x$[ebp]
  00016	50		 push	 eax
  00017	8b 4d fc	 mov	 ecx, DWORD PTR _this$[ebp]
  0001a	8b 51 04	 mov	 edx, DWORD PTR [ecx+4]
  0001d	52		 push	 edx
  0001e	ff 15 00 00 00
	00		 call	 DWORD PTR __imp__TextOutA@20
  00024	8b e5		 mov	 esp, ebp
  00026	5d		 pop	 ebp
  00027	c2 10 00	 ret	 16			; 00000010H
?TextOutA@CDC@@UAEHHHPBDH@Z ENDP			; CDC::TextOutA
_TEXT	ENDS
EXTRN	__imp__ExtTextOutA@32:NEAR
; Function compile flags: /Odt
;	COMDAT ?ExtTextOutA@CDC@@UAEHHHIPBUtagRECT@@PBDIPAH@Z
_TEXT	SEGMENT
_this$ = -4						; size = 4
_x$ = 8							; size = 4
_y$ = 12						; size = 4
_nOptions$ = 16						; size = 4
_lpRect$ = 20						; size = 4
_lpszString$ = 24					; size = 4
_nCount$ = 28						; size = 4
_lpDxWidths$ = 32					; size = 4
?ExtTextOutA@CDC@@UAEHHHIPBUtagRECT@@PBDIPAH@Z PROC NEAR ; CDC::ExtTextOutA, COMDAT
; _this$ = ecx

; 573  : 	{ ASSERT(m_hDC != NULL); return ::ExtTextOut(m_hDC, x, y, nOptions, lpRect,

  00000	55		 push	 ebp
  00001	8b ec		 mov	 ebp, esp
  00003	51		 push	 ecx
  00004	89 4d fc	 mov	 DWORD PTR _this$[ebp], ecx

; 574  : 		lpszString, nCount, lpDxWidths); }

  00007	8b 45 20	 mov	 eax, DWORD PTR _lpDxWidths$[ebp]
  0000a	50		 push	 eax
  0000b	8b 4d 1c	 mov	 ecx, DWORD PTR _nCount$[ebp]
  0000e	51		 push	 ecx
  0000f	8b 55 18	 mov	 edx, DWORD PTR _lpszString$[ebp]
  00012	52		 push	 edx
  00013	8b 45 14	 mov	 eax, DWORD PTR _lpRect$[ebp]
  00016	50		 push	 eax
  00017	8b 4d 10	 mov	 ecx, DWORD PTR _nOptions$[ebp]
  0001a	51		 push	 ecx
  0001b	8b 55 0c	 mov	 edx, DWORD PTR _y$[ebp]
  0001e	52		 push	 edx
  0001f	8b 45 08	 mov	 eax, DWORD PTR _x$[ebp]
  00022	50		 push	 eax
  00023	8b 4d fc	 mov	 ecx, DWORD PTR _this$[ebp]
  00026	8b 51 04	 mov	 edx, DWORD PTR [ecx+4]
  00029	52		 push	 edx
  0002a	ff 15 00 00 00
	00		 call	 DWORD PTR __imp__ExtTextOutA@32
  00030	8b e5		 mov	 esp, ebp
  00032	5d		 pop	 ebp
  00033	c2 1c 00	 ret	 28			; 0000001cH
?ExtTextOutA@CDC@@UAEHHHIPBUtagRECT@@PBDIPAH@Z ENDP	; CDC::ExtTextOutA
_TEXT	ENDS
PUBLIC	??0CSize@@QAE@K@Z				; CSize::CSize
EXTRN	__imp__TabbedTextOutA@32:NEAR
; Function compile flags: /Odt
;	COMDAT ?TabbedTextOutA@CDC@@UAE?AVCSize@@HHPBDHHPAHH@Z
_TEXT	SEGMENT
_this$ = -4						; size = 4
___$ReturnUdt$ = 8					; size = 4
_x$ = 12						; size = 4
_y$ = 16						; size = 4
_lpszString$ = 20					; size = 4
_nCount$ = 24						; size = 4
_nTabPositions$ = 28					; size = 4
_lpnTabStopPositions$ = 32				; size = 4
_nTabOrigin$ = 36					; size = 4
?TabbedTextOutA@CDC@@UAE?AVCSize@@HHPBDHHPAHH@Z PROC NEAR ; CDC::TabbedTextOutA, COMDAT
; _this$ = ecx

; 581  : 	{ ASSERT(m_hDC != NULL); return ::TabbedTextOut(m_hDC, x, y, lpszString, nCount,

  00000	55		 push	 ebp
  00001	8b ec		 mov	 ebp, esp
  00003	51		 push	 ecx
  00004	89 4d fc	 mov	 DWORD PTR _this$[ebp], ecx

; 582  : 		nTabPositions, lpnTabStopPositions, nTabOrigin); }

  00007	8b 45 24	 mov	 eax, DWORD PTR _nTabOrigin$[ebp]
  0000a	50		 push	 eax
  0000b	8b 4d 20	 mov	 ecx, DWORD PTR _lpnTabStopPositions$[ebp]
  0000e	51		 push	 ecx
  0000f	8b 55 1c	 mov	 edx, DWORD PTR _nTabPositions$[ebp]
  00012	52		 push	 edx
  00013	8b 45 18	 mov	 eax, DWORD PTR _nCount$[ebp]
  00016	50		 push	 eax
  00017	8b 4d 14	 mov	 ecx, DWORD PTR _lpszString$[ebp]
  0001a	51		 push	 ecx
  0001b	8b 55 10	 mov	 edx, DWORD PTR _y$[ebp]
  0001e	52		 push	 edx
  0001f	8b 45 0c	 mov	 eax, DWORD PTR _x$[ebp]
  00022	50		 push	 eax
  00023	8b 4d fc	 mov	 ecx, DWORD PTR _this$[ebp]
  00026	8b 51 04	 mov	 edx, DWORD PTR [ecx+4]
  00029	52		 push	 edx
  0002a	ff 15 00 00 00
	00		 call	 DWORD PTR __imp__TabbedTextOutA@32
  00030	50		 push	 eax
  00031	8b 4d 08	 mov	 ecx, DWORD PTR ___$ReturnUdt$[ebp]
  00034	e8 00 00 00 00	 call	 ??0CSize@@QAE@K@Z	; CSize::CSize
  00039	8b 45 08	 mov	 eax, DWORD PTR ___$ReturnUdt$[ebp]
  0003c	8b e5		 mov	 esp, ebp
  0003e	5d		 pop	 ebp
  0003f	c2 20 00	 ret	 32			; 00000020H
?TabbedTextOutA@CDC@@UAE?AVCSize@@HHPBDHHPAHH@Z ENDP	; CDC::TabbedTextOutA
; Function compile flags: /Odt
; File d:\program files (x86)\microsoft visual studio .net 2003\vc7\atlmfc\include\atltypes.inl
_TEXT	ENDS
;	COMDAT ??0CSize@@QAE@K@Z
_TEXT	SEGMENT
_this$ = -4						; size = 4
_dwSize$ = 8						; size = 4
??0CSize@@QAE@K@Z PROC NEAR				; CSize::CSize, COMDAT
; _this$ = ecx

; 30   : 	{

  00000	55		 push	 ebp
  00001	8b ec		 mov	 ebp, esp
  00003	51		 push	 ecx
  00004	89 4d fc	 mov	 DWORD PTR _this$[ebp], ecx

; 31   : 		cx = (short)LOWORD(dwSize);

  00007	8b 45 08	 mov	 eax, DWORD PTR _dwSize$[ebp]
  0000a	25 ff ff 00 00	 and	 eax, 65535		; 0000ffffH
  0000f	0f bf c8	 movsx	 ecx, ax
  00012	8b 55 fc	 mov	 edx, DWORD PTR _this$[ebp]
  00015	89 0a		 mov	 DWORD PTR [edx], ecx

; 32   : 		cy = (short)HIWORD(dwSize);

  00017	8b 45 08	 mov	 eax, DWORD PTR _dwSize$[ebp]
  0001a	c1 e8 10	 shr	 eax, 16			; 00000010H
  0001d	0f bf c8	 movsx	 ecx, ax
  00020	8b 55 fc	 mov	 edx, DWORD PTR _this$[ebp]
  00023	89 4a 04	 mov	 DWORD PTR [edx+4], ecx

; 33   : 	}

  00026	8b 45 fc	 mov	 eax, DWORD PTR _this$[ebp]
  00029	8b e5		 mov	 esp, ebp
  0002b	5d		 pop	 ebp
  0002c	c2 04 00	 ret	 4
??0CSize@@QAE@K@Z ENDP					; CSize::CSize
_TEXT	ENDS
EXTRN	__imp__DrawTextA@20:NEAR
; Function compile flags: /Odt
; File d:\program files (x86)\microsoft visual studio .net 2003\vc7\atlmfc\include\afxwin1.inl
;	COMDAT ?DrawTextA@CDC@@UAEHPBDHPAUtagRECT@@I@Z
_TEXT	SEGMENT
_this$ = -4						; size = 4
_lpszString$ = 8					; size = 4
_nCount$ = 12						; size = 4
_lpRect$ = 16						; size = 4
_nFormat$ = 20						; size = 4
?DrawTextA@CDC@@UAEHPBDHPAUtagRECT@@I@Z PROC NEAR	; CDC::DrawTextA, COMDAT
; _this$ = ecx

; 589  : 	{ ASSERT(m_hDC != NULL);

  00000	55		 push	 ebp
  00001	8b ec		 mov	 ebp, esp
  00003	51		 push	 ecx
  00004	89 4d fc	 mov	 DWORD PTR _this$[ebp], ecx

; 590  : 		return ::DrawText(m_hDC, lpszString, nCount, lpRect, nFormat); }

  00007	8b 45 14	 mov	 eax, DWORD PTR _nFormat$[ebp]
  0000a	50		 push	 eax
  0000b	8b 4d 10	 mov	 ecx, DWORD PTR _lpRect$[ebp]
  0000e	51		 push	 ecx
  0000f	8b 55 0c	 mov	 edx, DWORD PTR _nCount$[ebp]
  00012	52		 push	 edx
  00013	8b 45 08	 mov	 eax, DWORD PTR _lpszString$[ebp]
  00016	50		 push	 eax
  00017	8b 4d fc	 mov	 ecx, DWORD PTR _this$[ebp]
  0001a	8b 51 04	 mov	 edx, DWORD PTR [ecx+4]
  0001d	52		 push	 edx
  0001e	ff 15 00 00 00
	00		 call	 DWORD PTR __imp__DrawTextA@20
  00024	8b e5		 mov	 esp, ebp
  00026	5d		 pop	 ebp
  00027	c2 10 00	 ret	 16			; 00000010H
?DrawTextA@CDC@@UAEHPBDHPAUtagRECT@@I@Z ENDP		; CDC::DrawTextA
_TEXT	ENDS
EXTRN	__imp__DrawTextExA@24:NEAR
; Function compile flags: /Odt
;	COMDAT ?DrawTextExA@CDC@@UAEHPADHPAUtagRECT@@IPAUtagDRAWTEXTPARAMS@@@Z
_TEXT	SEGMENT
_this$ = -4						; size = 4
_lpszString$ = 8					; size = 4
_nCount$ = 12						; size = 4
_lpRect$ = 16						; size = 4
_nFormat$ = 20						; size = 4
_lpDTParams$ = 24					; size = 4
?DrawTextExA@CDC@@UAEHPADHPAUtagRECT@@IPAUtagDRAWTEXTPARAMS@@@Z PROC NEAR ; CDC::DrawTextExA, COMDAT
; _this$ = ecx

; 600  : 	{ ASSERT(m_hDC != NULL);

  00000	55		 push	 ebp
  00001	8b ec		 mov	 ebp, esp
  00003	51		 push	 ecx
  00004	89 4d fc	 mov	 DWORD PTR _this$[ebp], ecx

; 601  : 		return ::DrawTextEx(m_hDC, lpszString, nCount, lpRect, nFormat, lpDTParams); }

  00007	8b 45 18	 mov	 eax, DWORD PTR _lpDTParams$[ebp]
  0000a	50		 push	 eax
  0000b	8b 4d 14	 mov	 ecx, DWORD PTR _nFormat$[ebp]
  0000e	51		 push	 ecx
  0000f	8b 55 10	 mov	 edx, DWORD PTR _lpRect$[ebp]
  00012	52		 push	 edx
  00013	8b 45 0c	 mov	 eax, DWORD PTR _nCount$[ebp]
  00016	50		 push	 eax
  00017	8b 4d 08	 mov	 ecx, DWORD PTR _lpszString$[ebp]
  0001a	51		 push	 ecx
  0001b	8b 55 fc	 mov	 edx, DWORD PTR _this$[ebp]
  0001e	8b 42 04	 mov	 eax, DWORD PTR [edx+4]
  00021	50		 push	 eax
  00022	ff 15 00 00 00
	00		 call	 DWORD PTR __imp__DrawTextExA@24
  00028	8b e5		 mov	 esp, ebp
  0002a	5d		 pop	 ebp
  0002b	c2 14 00	 ret	 20			; 00000014H
?DrawTextExA@CDC@@UAEHPADHPAUtagRECT@@IPAUtagDRAWTEXTPARAMS@@@Z ENDP ; CDC::DrawTextExA
_TEXT	ENDS
EXTRN	__imp__GrayStringA@36:NEAR
; Function compile flags: /Odt
;	COMDAT ?GrayStringA@CDC@@UAEHPAVCBrush@@P6GHPAUHDC__@@JH@ZJHHHHH@Z
_TEXT	SEGMENT
_this$ = -4						; size = 4
_pBrush$ = 8						; size = 4
_lpfnOutput$ = 12					; size = 4
_lpData$ = 16						; size = 4
_nCount$ = 20						; size = 4
_x$ = 24						; size = 4
_y$ = 28						; size = 4
_nWidth$ = 32						; size = 4
_nHeight$ = 36						; size = 4
?GrayStringA@CDC@@UAEHPAVCBrush@@P6GHPAUHDC__@@JH@ZJHHHHH@Z PROC NEAR ; CDC::GrayStringA, COMDAT
; _this$ = ecx

; 659  : 	{ ASSERT(m_hDC != NULL); return ::GrayString(m_hDC, (HBRUSH)pBrush->GetSafeHandle(),

  00000	55		 push	 ebp
  00001	8b ec		 mov	 ebp, esp
  00003	51		 push	 ecx
  00004	89 4d fc	 mov	 DWORD PTR _this$[ebp], ecx

; 660  : 		(GRAYSTRINGPROC)lpfnOutput, lpData, nCount, x, y, nWidth, nHeight); }

  00007	8b 45 24	 mov	 eax, DWORD PTR _nHeight$[ebp]
  0000a	50		 push	 eax
  0000b	8b 4d 20	 mov	 ecx, DWORD PTR _nWidth$[ebp]
  0000e	51		 push	 ecx
  0000f	8b 55 1c	 mov	 edx, DWORD PTR _y$[ebp]
  00012	52		 push	 edx
  00013	8b 45 18	 mov	 eax, DWORD PTR _x$[ebp]
  00016	50		 push	 eax
  00017	8b 4d 14	 mov	 ecx, DWORD PTR _nCount$[ebp]
  0001a	51		 push	 ecx
  0001b	8b 55 10	 mov	 edx, DWORD PTR _lpData$[ebp]
  0001e	52		 push	 edx
  0001f	8b 45 0c	 mov	 eax, DWORD PTR _lpfnOutput$[ebp]
  00022	50		 push	 eax
  00023	8b 4d 08	 mov	 ecx, DWORD PTR _pBrush$[ebp]
  00026	e8 00 00 00 00	 call	 ?GetSafeHandle@CGdiObject@@QBEPAXXZ ; CGdiObject::GetSafeHandle
  0002b	50		 push	 eax
  0002c	8b 4d fc	 mov	 ecx, DWORD PTR _this$[ebp]
  0002f	8b 51 04	 mov	 edx, DWORD PTR [ecx+4]
  00032	52		 push	 edx
  00033	ff 15 00 00 00
	00		 call	 DWORD PTR __imp__GrayStringA@36
  00039	8b e5		 mov	 esp, ebp
  0003b	5d		 pop	 ebp
  0003c	c2 20 00	 ret	 32			; 00000020H
?GrayStringA@CDC@@UAEHPAVCBrush@@P6GHPAUHDC__@@JH@ZJHHHHH@Z ENDP ; CDC::GrayStringA
_TEXT	ENDS
EXTRN	__imp__Escape@20:NEAR
; Function compile flags: /Odt
;	COMDAT ?Escape@CDC@@UAEHHHPBDPAX@Z
_TEXT	SEGMENT
_this$ = -4						; size = 4
_nEscape$ = 8						; size = 4
_nCount$ = 12						; size = 4
_lpszInData$ = 16					; size = 4
_lpOutData$ = 20					; size = 4
?Escape@CDC@@UAEHHHPBDPAX@Z PROC NEAR			; CDC::Escape, COMDAT
; _this$ = ecx

; 703  : 	{ ASSERT(m_hDC != NULL); return ::Escape(m_hDC, nEscape, nCount, lpszInData, lpOutData);}

  00000	55		 push	 ebp
  00001	8b ec		 mov	 ebp, esp
  00003	51		 push	 ecx
  00004	89 4d fc	 mov	 DWORD PTR _this$[ebp], ecx
  00007	8b 45 14	 mov	 eax, DWORD PTR _lpOutData$[ebp]
  0000a	50		 push	 eax
  0000b	8b 4d 10	 mov	 ecx, DWORD PTR _lpszInData$[ebp]
  0000e	51		 push	 ecx
  0000f	8b 55 0c	 mov	 edx, DWORD PTR _nCount$[ebp]
  00012	52		 push	 edx
  00013	8b 45 08	 mov	 eax, DWORD PTR _nEscape$[ebp]
  00016	50		 push	 eax
  00017	8b 4d fc	 mov	 ecx, DWORD PTR _this$[ebp]
  0001a	8b 51 04	 mov	 edx, DWORD PTR [ecx+4]
  0001d	52		 push	 edx
  0001e	ff 15 00 00 00
	00		 call	 DWORD PTR __imp__Escape@20
  00024	8b e5		 mov	 esp, ebp
  00026	5d		 pop	 ebp
  00027	c2 10 00	 ret	 16			; 00000010H
?Escape@CDC@@UAEHHHPBDPAX@Z ENDP			; CDC::Escape
_TEXT	ENDS
PUBLIC	?BitBlt@CDC@@QAEHHHHHPAV1@HHK@Z			; CDC::BitBlt
;	COMDAT xdata$x
; File d:\boxgit\playbox\playbox\dev\prj\playbox\src\gui\commoncontrol\listctrol\gdiex.h
xdata$x	SEGMENT
$T198849 DD	0ffffffffH
	DD	FLAT:$L198845
$T198847 DD	019930520H
	DD	01H
	DD	FLAT:$T198849
	DD	2 DUP(00H)
	DD	2 DUP(00H)
; Function compile flags: /Odt
xdata$x	ENDS
;	COMDAT ??1CMemDC@@UAE@XZ
_TEXT	SEGMENT
tv134 = -28						; size = 4
_this$ = -24						; size = 4
$T198842 = -20						; size = 4
$T198841 = -16						; size = 4
__$EHRec$ = -12						; size = 12
??1CMemDC@@UAE@XZ PROC NEAR				; CMemDC::~CMemDC, COMDAT
; _this$ = ecx

; 78   : 	{

  00000	55		 push	 ebp
  00001	8b ec		 mov	 ebp, esp
  00003	6a ff		 push	 -1
  00005	68 00 00 00 00	 push	 __ehhandler$??1CMemDC@@UAE@XZ
  0000a	64 a1 00 00 00
	00		 mov	 eax, DWORD PTR fs:__except_list
  00010	50		 push	 eax
  00011	64 89 25 00 00
	00 00		 mov	 DWORD PTR fs:__except_list, esp
  00018	83 ec 10	 sub	 esp, 16			; 00000010H
  0001b	89 4d e8	 mov	 DWORD PTR _this$[ebp], ecx
  0001e	8b 45 e8	 mov	 eax, DWORD PTR _this$[ebp]
  00021	c7 00 00 00 00
	00		 mov	 DWORD PTR [eax], OFFSET FLAT:??_7CMemDC@@6B@
  00027	c7 45 fc 00 00
	00 00		 mov	 DWORD PTR __$EHRec$[ebp+8], 0

; 79   : 		mpDC->BitBlt(mrcBounds.left, mrcBounds.top, mrcBounds.Width(), mrcBounds.Height(), 
; 80   : 					this, mrcBounds.left, mrcBounds.top, SRCCOPY);

  0002e	68 20 00 cc 00	 push	 13369376		; 00cc0020H
  00033	8b 4d e8	 mov	 ecx, DWORD PTR _this$[ebp]
  00036	8b 51 20	 mov	 edx, DWORD PTR [ecx+32]
  00039	52		 push	 edx
  0003a	8b 45 e8	 mov	 eax, DWORD PTR _this$[ebp]
  0003d	8b 48 1c	 mov	 ecx, DWORD PTR [eax+28]
  00040	51		 push	 ecx
  00041	8b 55 e8	 mov	 edx, DWORD PTR _this$[ebp]
  00044	52		 push	 edx
  00045	8b 4d e8	 mov	 ecx, DWORD PTR _this$[ebp]
  00048	83 c1 1c	 add	 ecx, 28			; 0000001cH
  0004b	e8 00 00 00 00	 call	 ?Height@CRect@@QBEHXZ	; CRect::Height
  00050	50		 push	 eax
  00051	8b 4d e8	 mov	 ecx, DWORD PTR _this$[ebp]
  00054	83 c1 1c	 add	 ecx, 28			; 0000001cH
  00057	e8 00 00 00 00	 call	 ?Width@CRect@@QBEHXZ	; CRect::Width
  0005c	50		 push	 eax
  0005d	8b 45 e8	 mov	 eax, DWORD PTR _this$[ebp]
  00060	8b 48 20	 mov	 ecx, DWORD PTR [eax+32]
  00063	51		 push	 ecx
  00064	8b 55 e8	 mov	 edx, DWORD PTR _this$[ebp]
  00067	8b 42 1c	 mov	 eax, DWORD PTR [edx+28]
  0006a	50		 push	 eax
  0006b	8b 4d e8	 mov	 ecx, DWORD PTR _this$[ebp]
  0006e	8b 49 18	 mov	 ecx, DWORD PTR [ecx+24]
  00071	e8 00 00 00 00	 call	 ?BitBlt@CDC@@QAEHHHHHPAV1@HHK@Z ; CDC::BitBlt

; 81   : 		SelectObject(mpOldBitmap);

  00076	8b 55 e8	 mov	 edx, DWORD PTR _this$[ebp]
  00079	8b 42 14	 mov	 eax, DWORD PTR [edx+20]
  0007c	50		 push	 eax
  0007d	8b 4d e8	 mov	 ecx, DWORD PTR _this$[ebp]
  00080	e8 00 00 00 00	 call	 ?SelectObject@CDC@@QAEPAVCBitmap@@PAV2@@Z ; CDC::SelectObject

; 82   : 		if (mpBitmap != NULL)

  00085	8b 4d e8	 mov	 ecx, DWORD PTR _this$[ebp]
  00088	83 79 10 00	 cmp	 DWORD PTR [ecx+16], 0
  0008c	74 38		 je	 SHORT $L117057

; 83   : 		{
; 84   : 			delete mpBitmap;

  0008e	8b 55 e8	 mov	 edx, DWORD PTR _this$[ebp]
  00091	8b 42 10	 mov	 eax, DWORD PTR [edx+16]
  00094	89 45 ec	 mov	 DWORD PTR $T198842[ebp], eax
  00097	8b 4d ec	 mov	 ecx, DWORD PTR $T198842[ebp]
  0009a	89 4d f0	 mov	 DWORD PTR $T198841[ebp], ecx
  0009d	83 7d f0 00	 cmp	 DWORD PTR $T198841[ebp], 0
  000a1	74 12		 je	 SHORT $L198843
  000a3	6a 01		 push	 1
  000a5	8b 55 f0	 mov	 edx, DWORD PTR $T198841[ebp]
  000a8	8b 02		 mov	 eax, DWORD PTR [edx]
  000aa	8b 4d f0	 mov	 ecx, DWORD PTR $T198841[ebp]
  000ad	ff 50 04	 call	 DWORD PTR [eax+4]
  000b0	89 45 e4	 mov	 DWORD PTR tv134[ebp], eax
  000b3	eb 07		 jmp	 SHORT $L198844
$L198843:
  000b5	c7 45 e4 00 00
	00 00		 mov	 DWORD PTR tv134[ebp], 0
$L198844:

; 85   : 			mpBitmap = NULL;

  000bc	8b 4d e8	 mov	 ecx, DWORD PTR _this$[ebp]
  000bf	c7 41 10 00 00
	00 00		 mov	 DWORD PTR [ecx+16], 0
$L117057:

; 86   : 		}
; 87   : 	}

  000c6	c7 45 fc ff ff
	ff ff		 mov	 DWORD PTR __$EHRec$[ebp+8], -1
  000cd	8b 4d e8	 mov	 ecx, DWORD PTR _this$[ebp]
  000d0	e8 00 00 00 00	 call	 ??1CDC@@UAE@XZ		; CDC::~CDC
  000d5	8b 4d f4	 mov	 ecx, DWORD PTR __$EHRec$[ebp]
  000d8	64 89 0d 00 00
	00 00		 mov	 DWORD PTR fs:__except_list, ecx
  000df	8b e5		 mov	 esp, ebp
  000e1	5d		 pop	 ebp
  000e2	c3		 ret	 0
_TEXT	ENDS
;	COMDAT text$x
text$x	SEGMENT
$L198845:
  00000	8b 4d e8	 mov	 ecx, DWORD PTR _this$[ebp]
  00003	e9 00 00 00 00	 jmp	 ??1CDC@@UAE@XZ		; CDC::~CDC
__ehhandler$??1CMemDC@@UAE@XZ:
  00008	b8 00 00 00 00	 mov	 eax, OFFSET FLAT:$T198847
  0000d	e9 00 00 00 00	 jmp	 ___CxxFrameHandler
text$x	ENDS
??1CMemDC@@UAE@XZ ENDP					; CMemDC::~CMemDC
; Function compile flags: /Odt
; File d:\program files (x86)\microsoft visual studio .net 2003\vc7\atlmfc\include\afxwin1.inl
;	COMDAT ?BitBlt@CDC@@QAEHHHHHPAV1@HHK@Z
_TEXT	SEGMENT
_this$ = -4						; size = 4
_x$ = 8							; size = 4
_y$ = 12						; size = 4
_nWidth$ = 16						; size = 4
_nHeight$ = 20						; size = 4
_pSrcDC$ = 24						; size = 4
_xSrc$ = 28						; size = 4
_ySrc$ = 32						; size = 4
_dwRop$ = 36						; size = 4
?BitBlt@CDC@@QAEHHHHHPAV1@HHK@Z PROC NEAR		; CDC::BitBlt, COMDAT
; _this$ = ecx

; 548  : 	{ ASSERT(m_hDC != NULL); return ::BitBlt(m_hDC, x, y, nWidth, nHeight,

  00000	55		 push	 ebp
  00001	8b ec		 mov	 ebp, esp
  00003	51		 push	 ecx
  00004	89 4d fc	 mov	 DWORD PTR _this$[ebp], ecx

; 549  : 		pSrcDC->GetSafeHdc(), xSrc, ySrc, dwRop); }

  00007	8b 45 24	 mov	 eax, DWORD PTR _dwRop$[ebp]
  0000a	50		 push	 eax
  0000b	8b 4d 20	 mov	 ecx, DWORD PTR _ySrc$[ebp]
  0000e	51		 push	 ecx
  0000f	8b 55 1c	 mov	 edx, DWORD PTR _xSrc$[ebp]
  00012	52		 push	 edx
  00013	8b 4d 18	 mov	 ecx, DWORD PTR _pSrcDC$[ebp]
  00016	e8 00 00 00 00	 call	 ?GetSafeHdc@CDC@@QBEPAUHDC__@@XZ ; CDC::GetSafeHdc
  0001b	50		 push	 eax
  0001c	8b 45 14	 mov	 eax, DWORD PTR _nHeight$[ebp]
  0001f	50		 push	 eax
  00020	8b 4d 10	 mov	 ecx, DWORD PTR _nWidth$[ebp]
  00023	51		 push	 ecx
  00024	8b 55 0c	 mov	 edx, DWORD PTR _y$[ebp]
  00027	52		 push	 edx
  00028	8b 45 08	 mov	 eax, DWORD PTR _x$[ebp]
  0002b	50		 push	 eax
  0002c	8b 4d fc	 mov	 ecx, DWORD PTR _this$[ebp]
  0002f	8b 51 04	 mov	 edx, DWORD PTR [ecx+4]
  00032	52		 push	 edx
  00033	ff 15 00 00 00
	00		 call	 DWORD PTR __imp__BitBlt@36
  00039	8b e5		 mov	 esp, ebp
  0003b	5d		 pop	 ebp
  0003c	c2 20 00	 ret	 32			; 00000020H
?BitBlt@CDC@@QAEHHHHHPAV1@HHK@Z ENDP			; CDC::BitBlt
; Function compile flags: /Odt
_TEXT	ENDS
;	COMDAT ??_GCMemDC@@UAEPAXI@Z
_TEXT	SEGMENT
_this$ = -4						; size = 4
___flags$ = 8						; size = 4
??_GCMemDC@@UAEPAXI@Z PROC NEAR				; CMemDC::`scalar deleting destructor', COMDAT
; _this$ = ecx
  00000	55		 push	 ebp
  00001	8b ec		 mov	 ebp, esp
  00003	51		 push	 ecx
  00004	89 4d fc	 mov	 DWORD PTR _this$[ebp], ecx
  00007	8b 4d fc	 mov	 ecx, DWORD PTR _this$[ebp]
  0000a	e8 00 00 00 00	 call	 ??1CMemDC@@UAE@XZ	; CMemDC::~CMemDC
  0000f	8b 45 08	 mov	 eax, DWORD PTR ___flags$[ebp]
  00012	83 e0 01	 and	 eax, 1
  00015	74 09		 je	 SHORT $L117067
  00017	8b 4d fc	 mov	 ecx, DWORD PTR _this$[ebp]
  0001a	51		 push	 ecx
  0001b	e8 00 00 00 00	 call	 ??3CObject@@SGXPAX@Z	; CObject::operator delete
$L117067:
  00020	8b 45 fc	 mov	 eax, DWORD PTR _this$[ebp]
  00023	8b e5		 mov	 esp, ebp
  00025	5d		 pop	 ebp
  00026	c2 04 00	 ret	 4
??_GCMemDC@@UAEPAXI@Z ENDP				; CMemDC::`scalar deleting destructor'
_TEXT	ENDS
END
