; Listing generated by Microsoft (R) Optimizing Compiler Version 13.10.3077 

	TITLE	.\src\Core\CUIManager.cpp
	.386P
include listing.inc
if @Version gt 510
.model FLAT
else
_TEXT	SEGMENT PARA USE32 PUBLIC 'CODE'
_TEXT	ENDS
_DATA	SEGMENT DWORD USE32 PUBLIC 'DATA'
_DATA	ENDS
CONST	SEGMENT DWORD USE32 PUBLIC 'CONST'
CONST	ENDS
_BSS	SEGMENT DWORD USE32 PUBLIC 'BSS'
_BSS	ENDS
$$SYMBOLS	SEGMENT BYTE USE32 'DEBSYM'
$$SYMBOLS	ENDS
$$TYPES	SEGMENT BYTE USE32 'DEBTYP'
$$TYPES	ENDS
_TLS	SEGMENT DWORD USE32 PUBLIC 'TLS'
_TLS	ENDS
;	COMDAT ??_C@_02PGHGPEOM@?91?$AA@
CONST	SEGMENT DWORD USE32 PUBLIC 'CONST'
CONST	ENDS
;	COMDAT ??_C@_04JAADICNI@?5?$DN?1?$FL?$AA@
CONST	SEGMENT DWORD USE32 PUBLIC 'CONST'
CONST	ENDS
;	COMDAT ??_C@_0L@GJIJNDEK@ISO?98859?91?$AA@
CONST	SEGMENT DWORD USE32 PUBLIC 'CONST'
CONST	ENDS
;	COMDAT ??_C@_01JLIPDDHJ@?3?$AA@
CONST	SEGMENT DWORD USE32 PUBLIC 'CONST'
CONST	ENDS
;	COMDAT ??_C@_04LJDDIHIK@?4bmp?$AA@
CONST	SEGMENT DWORD USE32 PUBLIC 'CONST'
CONST	ENDS
;	COMDAT ??_C@_05GPFFKKGA@sizeX?$AA@
CONST	SEGMENT DWORD USE32 PUBLIC 'CONST'
CONST	ENDS
;	COMDAT ??_C@_05HGEOJLCB@sizeY?$AA@
CONST	SEGMENT DWORD USE32 PUBLIC 'CONST'
CONST	ENDS
;	COMDAT ??_C@_08NCDIAMDB@sizeXMin?$AA@
CONST	SEGMENT DWORD USE32 PUBLIC 'CONST'
CONST	ENDS
;	COMDAT ??_C@_08OPFICFIB@sizeYMin?$AA@
CONST	SEGMENT DWORD USE32 PUBLIC 'CONST'
CONST	ENDS
;	COMDAT ??_C@_0N@CKANKLJC@splpane?9size?$AA@
CONST	SEGMENT DWORD USE32 PUBLIC 'CONST'
CONST	ENDS
;	COMDAT ??_C@_0M@PHGNDNIN@second?9size?$AA@
CONST	SEGMENT DWORD USE32 PUBLIC 'CONST'
CONST	ENDS
;	COMDAT ??_C@_0L@GIIMEBNN@closed?9pos?$AA@
CONST	SEGMENT DWORD USE32 PUBLIC 'CONST'
CONST	ENDS
;	COMDAT ??_C@_0L@MECFMMOM@closed?9ori?$AA@
CONST	SEGMENT DWORD USE32 PUBLIC 'CONST'
CONST	ENDS
;	COMDAT ??_C@_05BDPGECIF@FIRST?$AA@
CONST	SEGMENT DWORD USE32 PUBLIC 'CONST'
CONST	ENDS
;	COMDAT ??_C@_09INDKNENM@open?9size?$AA@
CONST	SEGMENT DWORD USE32 PUBLIC 'CONST'
CONST	ENDS
;	COMDAT ??_C@_0O@NCELCIBK@hide?9closebtn?$AA@
CONST	SEGMENT DWORD USE32 PUBLIC 'CONST'
CONST	ENDS
;	COMDAT ??_C@_04GBAKDPAD@slim?$AA@
CONST	SEGMENT DWORD USE32 PUBLIC 'CONST'
CONST	ENDS
;	COMDAT ??_C@_03FOLEKLGG@ori?$AA@
CONST	SEGMENT DWORD USE32 PUBLIC 'CONST'
CONST	ENDS
;	COMDAT ??_C@_06BDLHAFMO@NO_POS?$AA@
CONST	SEGMENT DWORD USE32 PUBLIC 'CONST'
CONST	ENDS
;	COMDAT ??_C@_04JDKLPIAI@VERT?$AA@
CONST	SEGMENT DWORD USE32 PUBLIC 'CONST'
CONST	ENDS
;	COMDAT ??_C@_0BE@JONHPENG@map?1set?$DMT?$DO?5too?5long?$AA@
CONST	SEGMENT DWORD USE32 PUBLIC 'CONST'
CONST	ENDS
;	COMDAT ??_C@_0BD@OLBABOEK@vector?$DMT?$DO?5too?5long?$AA@
CONST	SEGMENT DWORD USE32 PUBLIC 'CONST'
CONST	ENDS
rdata$r	SEGMENT DWORD USE32 PUBLIC 'CONST'
rdata$r	ENDS
xdata$x	SEGMENT DWORD USE32 PUBLIC 'CONST'
xdata$x	ENDS
text$AFX_COL1	SEGMENT PARA USE32 PUBLIC ''
text$AFX_COL1	ENDS
text$yc	SEGMENT PARA USE32 PUBLIC 'CODE'
text$yc	ENDS
CRT$XCA	SEGMENT DWORD USE32 PUBLIC 'DATA'
CRT$XCA	ENDS
CRT$XCU	SEGMENT DWORD USE32 PUBLIC 'DATA'
CRT$XCU	ENDS
CRT$XCL	SEGMENT DWORD USE32 PUBLIC 'DATA'
CRT$XCL	ENDS
CRT$XCC	SEGMENT DWORD USE32 PUBLIC 'DATA'
CRT$XCC	ENDS
CRT$XCZ	SEGMENT DWORD USE32 PUBLIC 'DATA'
CRT$XCZ	ENDS
text$yd	SEGMENT PARA USE32 PUBLIC 'CODE'
text$yd	ENDS
ATL$__m	SEGMENT DWORD USE32 PUBLIC ''
ATL$__m	ENDS
ATL$__z	SEGMENT DWORD USE32 PUBLIC ''
ATL$__z	ENDS
ATL$__a	SEGMENT DWORD USE32 PUBLIC ''
ATL$__a	ENDS
;	COMDAT ?GetSubPane@PaneBase@ETSLayoutMgr@@UAE?AVCPaneBase@2@V?$CStringT@DV?$StrTraitMFC_DLL@DV?$ChTraitsCRT@D@ATL@@@@@ATL@@@Z
_TEXT	SEGMENT PARA USE32 PUBLIC 'CODE'
_TEXT	ENDS
;	COMDAT ??1PaneBase@ETSLayoutMgr@@UAE@XZ
_TEXT	SEGMENT PARA USE32 PUBLIC 'CODE'
_TEXT	ENDS
;	COMDAT ?showPane@PaneBase@ETSLayoutMgr@@UAEX_N@Z
_TEXT	SEGMENT PARA USE32 PUBLIC 'CODE'
_TEXT	ENDS
;	COMDAT ?IsValid@CPaneBase@ETSLayoutMgr@@QAE_NXZ
_TEXT	SEGMENT PARA USE32 PUBLIC 'CODE'
_TEXT	ENDS
;	COMDAT ?GetRect@ETSLayoutMgr@@UAE?AVCRect@@XZ
_TEXT	SEGMENT PARA USE32 PUBLIC 'CODE'
_TEXT	ENDS
;	COMDAT ?UpdateLayout@ETSLayoutMgr@@UAEXVCPane@1@@Z
_TEXT	SEGMENT PARA USE32 PUBLIC 'CODE'
_TEXT	ENDS
;	COMDAT ??_GPaneBase@ETSLayoutMgr@@UAEPAXI@Z
_TEXT	SEGMENT PARA USE32 PUBLIC 'CODE'
_TEXT	ENDS
;	COMDAT ??_GETSLayoutMgr@@UAEPAXI@Z
_TEXT	SEGMENT PARA USE32 PUBLIC 'CODE'
_TEXT	ENDS
;	COMDAT ??0CMarkup@@QAE@XZ
_TEXT	SEGMENT PARA USE32 PUBLIC 'CODE'
_TEXT	ENDS
;	COMDAT ??1CMarkup@@UAE@XZ
_TEXT	SEGMENT PARA USE32 PUBLIC 'CODE'
_TEXT	ENDS
;	COMDAT ?AddElem@CMarkup@@QAE_NPBD0@Z
_TEXT	SEGMENT PARA USE32 PUBLIC 'CODE'
_TEXT	ENDS
;	COMDAT ?AddChildElem@CMarkup@@QAE_NPBD0@Z
_TEXT	SEGMENT PARA USE32 PUBLIC 'CODE'
_TEXT	ENDS
;	COMDAT ?GetAttrib@CMarkup@@QBE?AV?$CStringT@DV?$StrTraitMFC_DLL@DV?$ChTraitsCRT@D@ATL@@@@@ATL@@PBD@Z
_TEXT	SEGMENT PARA USE32 PUBLIC 'CODE'
_TEXT	ENDS
;	COMDAT ??0ElemPos@CMarkup@@QAE@XZ
_TEXT	SEGMENT PARA USE32 PUBLIC 'CODE'
_TEXT	ENDS
;	COMDAT ?Clear@ElemPos@CMarkup@@QAEXXZ
_TEXT	SEGMENT PARA USE32 PUBLIC 'CODE'
_TEXT	ENDS
;	COMDAT ?Clear@TokenPos@CMarkup@@QAEXXZ
_TEXT	SEGMENT PARA USE32 PUBLIC 'CODE'
_TEXT	ENDS
;	COMDAT ?x_SetPos@CMarkup@@IAEXHHH@Z
_TEXT	SEGMENT PARA USE32 PUBLIC 'CODE'
_TEXT	ENDS
;	COMDAT ??_GCMarkup@@UAEPAXI@Z
_TEXT	SEGMENT PARA USE32 PUBLIC 'CODE'
_TEXT	ENDS
;	COMDAT ?AddElem@CMarkupArchive@@UAE_NPBD0@Z
_TEXT	SEGMENT PARA USE32 PUBLIC 'CODE'
_TEXT	ENDS
;	COMDAT ?AddChildElem@CMarkupArchive@@UAE_NPBD0@Z
_TEXT	SEGMENT PARA USE32 PUBLIC 'CODE'
_TEXT	ENDS
;	COMDAT ?FindElem@CMarkupArchive@@UAE_NPBD@Z
_TEXT	SEGMENT PARA USE32 PUBLIC 'CODE'
_TEXT	ENDS
;	COMDAT ?FindChildElem@CMarkupArchive@@UAE_NPBD@Z
_TEXT	SEGMENT PARA USE32 PUBLIC 'CODE'
_TEXT	ENDS
;	COMDAT ??_GCMarkupArchive@@UAEPAXI@Z
_TEXT	SEGMENT PARA USE32 PUBLIC 'CODE'
_TEXT	ENDS
;	COMDAT ??1?$pair@$$CBV?$CStringT@DV?$StrTraitMFC_DLL@DV?$ChTraitsCRT@D@ATL@@@@@ATL@@PAVCDibBitmap@@@std@@QAE@XZ
_TEXT	SEGMENT PARA USE32 PUBLIC 'CODE'
_TEXT	ENDS
;	COMDAT ??1DIBINFO@@UAE@XZ
_TEXT	SEGMENT PARA USE32 PUBLIC 'CODE'
_TEXT	ENDS
;	COMDAT ??_GDIBINFO@@UAEPAXI@Z
_TEXT	SEGMENT PARA USE32 PUBLIC 'CODE'
_TEXT	ENDS
;	COMDAT ??1CGdiPlusBitmap@@UAE@XZ
_TEXT	SEGMENT PARA USE32 PUBLIC 'CODE'
_TEXT	ENDS
;	COMDAT ?Empty@CGdiPlusBitmap@@QAEXXZ
_TEXT	SEGMENT PARA USE32 PUBLIC 'CODE'
_TEXT	ENDS
;	COMDAT ?Load@CGdiPlusBitmap@@QAE_NPB_W@Z
_TEXT	SEGMENT PARA USE32 PUBLIC 'CODE'
_TEXT	ENDS
;	COMDAT ??_GCGdiPlusBitmap@@UAEPAXI@Z
_TEXT	SEGMENT PARA USE32 PUBLIC 'CODE'
_TEXT	ENDS
;	COMDAT ??1IData@@MAE@XZ
_TEXT	SEGMENT PARA USE32 PUBLIC 'CODE'
_TEXT	ENDS
;	COMDAT ?DataAppStart@IData@@UAEXXZ
_TEXT	SEGMENT PARA USE32 PUBLIC 'CODE'
_TEXT	ENDS
;	COMDAT ?DataAppExit@IData@@UAEXXZ
_TEXT	SEGMENT PARA USE32 PUBLIC 'CODE'
_TEXT	ENDS
;	COMDAT ??_GIData@@MAEPAXI@Z
_TEXT	SEGMENT PARA USE32 PUBLIC 'CODE'
_TEXT	ENDS
;	COMDAT ??1CGdiPlusBitmap@CSkinButton@@UAE@XZ
_TEXT	SEGMENT PARA USE32 PUBLIC 'CODE'
_TEXT	ENDS
;	COMDAT ?Empty@CGdiPlusBitmap@CSkinButton@@QAEXXZ
_TEXT	SEGMENT PARA USE32 PUBLIC 'CODE'
_TEXT	ENDS
;	COMDAT ?Load@CGdiPlusBitmap@CSkinButton@@QAE_NPB_W@Z
_TEXT	SEGMENT PARA USE32 PUBLIC 'CODE'
_TEXT	ENDS
;	COMDAT ??_GCGdiPlusBitmap@CSkinButton@@UAEPAXI@Z
_TEXT	SEGMENT PARA USE32 PUBLIC 'CODE'
_TEXT	ENDS
;	COMDAT ??1HTTPObserver@@UAE@XZ
_TEXT	SEGMENT PARA USE32 PUBLIC 'CODE'
_TEXT	ENDS
;	COMDAT ?HTTPOb_DownStart@HTTPObserver@@UAEXPBD0I@Z
_TEXT	SEGMENT PARA USE32 PUBLIC 'CODE'
_TEXT	ENDS
;	COMDAT ?HTTPOb_DownFinish@HTTPObserver@@UAEXPBD@Z
_TEXT	SEGMENT PARA USE32 PUBLIC 'CODE'
_TEXT	ENDS
;	COMDAT ?HTTPOb_DownFailed@HTTPObserver@@UAEXPBDW4HTTP_DOWN_FAILED_REASON@@@Z
_TEXT	SEGMENT PARA USE32 PUBLIC 'CODE'
_TEXT	ENDS
;	COMDAT ?HTTPOb_DownProgress@HTTPObserver@@UAEXPBDII@Z
_TEXT	SEGMENT PARA USE32 PUBLIC 'CODE'
_TEXT	ENDS
;	COMDAT ?HTTPOb_DownloadPause@HTTPObserver@@UAEXPBD@Z
_TEXT	SEGMENT PARA USE32 PUBLIC 'CODE'
_TEXT	ENDS
;	COMDAT ??_GHTTPObserver@@UAEPAXI@Z
_TEXT	SEGMENT PARA USE32 PUBLIC 'CODE'
_TEXT	ENDS
;	COMDAT ??1P2PObserver@@UAE@XZ
_TEXT	SEGMENT PARA USE32 PUBLIC 'CODE'
_TEXT	ENDS
;	COMDAT ?P2POb_DownStart@P2PObserver@@UAEXABV?$basic_string@DU?$char_traits@D@std@@V?$allocator@D@2@@std@@PBDI@Z
_TEXT	SEGMENT PARA USE32 PUBLIC 'CODE'
_TEXT	ENDS
;	COMDAT ?P2POb_DownFinish@P2PObserver@@UAEXABV?$basic_string@DU?$char_traits@D@std@@V?$allocator@D@2@@std@@@Z
_TEXT	SEGMENT PARA USE32 PUBLIC 'CODE'
_TEXT	ENDS
;	COMDAT ?P2POb_DownFailed@P2PObserver@@UAEXABV?$basic_string@DU?$char_traits@D@std@@V?$allocator@D@2@@std@@W4P2P_DOWN_FAILED_REASON@@@Z
_TEXT	SEGMENT PARA USE32 PUBLIC 'CODE'
_TEXT	ENDS
;	COMDAT ?P2POb_DownProgress@P2PObserver@@UAEXABV?$basic_string@DU?$char_traits@D@std@@V?$allocator@D@2@@std@@III@Z
_TEXT	SEGMENT PARA USE32 PUBLIC 'CODE'
_TEXT	ENDS
;	COMDAT ?P2POb_DownPause@P2PObserver@@UAEXABV?$basic_string@DU?$char_traits@D@std@@V?$allocator@D@2@@std@@@Z
_TEXT	SEGMENT PARA USE32 PUBLIC 'CODE'
_TEXT	ENDS
;	COMDAT ?P2POb_SigChange@P2PObserver@@UAEXABV?$basic_string@DU?$char_traits@D@std@@V?$allocator@D@2@@std@@0PBD@Z
_TEXT	SEGMENT PARA USE32 PUBLIC 'CODE'
_TEXT	ENDS
;	COMDAT ??_GP2PObserver@@UAEPAXI@Z
_TEXT	SEGMENT PARA USE32 PUBLIC 'CODE'
_TEXT	ENDS
;	COMDAT ?GetClsid@CShockwaveFlash@@QAEABU_GUID@@XZ
_TEXT	SEGMENT PARA USE32 PUBLIC 'CODE'
_TEXT	ENDS
;	COMDAT _$E5
text$yc	SEGMENT PARA USE32 PUBLIC 'CODE'
text$yc	ENDS
;	COMDAT _$E7
text$yc	SEGMENT PARA USE32 PUBLIC 'CODE'
text$yc	ENDS
;	COMDAT ??_GCUIManager@@UAEPAXI@Z
_TEXT	SEGMENT PARA USE32 PUBLIC 'CODE'
_TEXT	ENDS
;	COMDAT ??0IUIManager@@QAE@XZ
_TEXT	SEGMENT PARA USE32 PUBLIC 'CODE'
_TEXT	ENDS
;	COMDAT ??HATL@@YA?AV?$CStringT@DV?$StrTraitMFC_DLL@DV?$ChTraitsCRT@D@ATL@@@@@0@ABV10@0@Z
_TEXT	SEGMENT PARA USE32 PUBLIC 'CODE'
_TEXT	ENDS
;	COMDAT ??HATL@@YA?AV?$CStringT@DV?$StrTraitMFC_DLL@DV?$ChTraitsCRT@D@ATL@@@@@0@ABV10@PBD@Z
_TEXT	SEGMENT PARA USE32 PUBLIC 'CODE'
_TEXT	ENDS
;	COMDAT ??8ATL@@YA_NABV?$CStringT@DV?$StrTraitMFC_DLL@DV?$ChTraitsCRT@D@ATL@@@@@0@PBD@Z
_TEXT	SEGMENT PARA USE32 PUBLIC 'CODE'
_TEXT	ENDS
;	COMDAT ??B?$CComPtrBase@UITypeInfo2@@@ATL@@QBEPAUITypeInfo2@@XZ
_TEXT	SEGMENT PARA USE32 PUBLIC 'CODE'
_TEXT	ENDS
;	COMDAT ?equal@?$istreambuf_iterator@DU?$char_traits@D@std@@@std@@QBE_NABV12@@Z
_TEXT	SEGMENT PARA USE32 PUBLIC 'CODE'
_TEXT	ENDS
;	COMDAT ?equal@?$istreambuf_iterator@_WU?$char_traits@_W@std@@@std@@QBE_NABV12@@Z
_TEXT	SEGMENT PARA USE32 PUBLIC 'CODE'
_TEXT	ENDS
;	COMDAT ?insert@?$_Tree@V?$_Tmap_traits@V?$CStringT@DV?$StrTraitMFC_DLL@DV?$ChTraitsCRT@D@ATL@@@@@ATL@@PAVCDibBitmap@@U?$less@V?$CStringT@DV?$StrTraitMFC_DLL@DV?$ChTraitsCRT@D@ATL@@@@@ATL@@@std@@V?$allocator@U?$pair@$$CBV?$CStringT@DV?$StrTraitMFC_DLL@DV?$ChTraitsCRT@D@ATL@@@@@ATL@@PAVCDibBitmap@@@std@@@5@$0A@@std@@@std@@QAE?AU?$pair@Viterator@?$_Tree@V?$_Tmap_traits@V?$CStringT@DV?$StrTraitMFC_DLL@DV?$ChTraitsCRT@D@ATL@@@@@ATL@@PAVCDibBitmap@@U?$less@V?$CStringT@DV?$StrTraitMFC_DLL@DV?$ChTraitsCRT@D@ATL@@@@@ATL@@@std@@V?$allocator@U?$pair@$$CBV?$CStringT@DV?$StrTraitMFC_DLL@DV?$ChTraitsCRT@D@ATL@@@@@ATL@@PAVCDibBitmap@@@std@@@5@$0A@@std@@@std@@_N@2@ABU?$pair@$$CBV?$CStringT@DV?$StrTraitMFC_DLL@DV?$ChTraitsCRT@D@ATL@@@@@ATL@@PAVCDibBitmap@@@2@@Z
_TEXT	SEGMENT PARA USE32 PUBLIC 'CODE'
_TEXT	ENDS
;	COMDAT ??0?$pair@$$CBV?$CStringT@DV?$StrTraitMFC_DLL@DV?$ChTraitsCRT@D@ATL@@@@@ATL@@PAVCDibBitmap@@@std@@QAE@ABV?$CStringT@DV?$StrTraitMFC_DLL@DV?$ChTraitsCRT@D@ATL@@@@@ATL@@ABQAVCDibBitmap@@@Z
_TEXT	SEGMENT PARA USE32 PUBLIC 'CODE'
_TEXT	ENDS
;	COMDAT ??0?$vector@KV?$allocator@K@std@@@std@@QAE@XZ
_TEXT	SEGMENT PARA USE32 PUBLIC 'CODE'
_TEXT	ENDS
;	COMDAT ??1?$vector@KV?$allocator@K@std@@@std@@QAE@XZ
_TEXT	SEGMENT PARA USE32 PUBLIC 'CODE'
_TEXT	ENDS
;	COMDAT ?begin@?$vector@KV?$allocator@K@std@@@std@@QAE?AViterator@12@XZ
_TEXT	SEGMENT PARA USE32 PUBLIC 'CODE'
_TEXT	ENDS
;	COMDAT ?end@?$vector@KV?$allocator@K@std@@@std@@QAE?AViterator@12@XZ
_TEXT	SEGMENT PARA USE32 PUBLIC 'CODE'
_TEXT	ENDS
;	COMDAT ?size@?$vector@KV?$allocator@K@std@@@std@@QBEIXZ
_TEXT	SEGMENT PARA USE32 PUBLIC 'CODE'
_TEXT	ENDS
;	COMDAT ??A?$vector@KV?$allocator@K@std@@@std@@QAEAAKI@Z
_TEXT	SEGMENT PARA USE32 PUBLIC 'CODE'
_TEXT	ENDS
;	COMDAT ?push_back@?$vector@KV?$allocator@K@std@@@std@@QAEXABK@Z
_TEXT	SEGMENT PARA USE32 PUBLIC 'CODE'
_TEXT	ENDS
;	COMDAT ?erase@?$vector@KV?$allocator@K@std@@@std@@QAE?AViterator@12@V312@@Z
_TEXT	SEGMENT PARA USE32 PUBLIC 'CODE'
_TEXT	ENDS
;	COMDAT ??0?$list@PAVIMessageObserver@@V?$allocator@PAVIMessageObserver@@@std@@@std@@QAE@XZ
_TEXT	SEGMENT PARA USE32 PUBLIC 'CODE'
_TEXT	ENDS
;	COMDAT ??1?$list@PAVIMessageObserver@@V?$allocator@PAVIMessageObserver@@@std@@@std@@QAE@XZ
_TEXT	SEGMENT PARA USE32 PUBLIC 'CODE'
_TEXT	ENDS
;	COMDAT ?begin@?$list@PAVIMessageObserver@@V?$allocator@PAVIMessageObserver@@@std@@@std@@QAE?AViterator@12@XZ
_TEXT	SEGMENT PARA USE32 PUBLIC 'CODE'
_TEXT	ENDS
;	COMDAT ?end@?$list@PAVIMessageObserver@@V?$allocator@PAVIMessageObserver@@@std@@@std@@QAE?AViterator@12@XZ
_TEXT	SEGMENT PARA USE32 PUBLIC 'CODE'
_TEXT	ENDS
;	COMDAT ??Diterator@?$list@PAVIMessageObserver@@V?$allocator@PAVIMessageObserver@@@std@@@std@@QBEAAPAVIMessageObserver@@XZ
_TEXT	SEGMENT PARA USE32 PUBLIC 'CODE'
_TEXT	ENDS
;	COMDAT ??Eiterator@?$list@PAVIMessageObserver@@V?$allocator@PAVIMessageObserver@@@std@@@std@@QAE?AV012@H@Z
_TEXT	SEGMENT PARA USE32 PUBLIC 'CODE'
_TEXT	ENDS
;	COMDAT ??9const_iterator@?$list@PAVIMessageObserver@@V?$allocator@PAVIMessageObserver@@@std@@@std@@QBE_NABV012@@Z
_TEXT	SEGMENT PARA USE32 PUBLIC 'CODE'
_TEXT	ENDS
;	COMDAT ??Diterator@?$vector@KV?$allocator@K@std@@@std@@QBEAAKXZ
_TEXT	SEGMENT PARA USE32 PUBLIC 'CODE'
_TEXT	ENDS
;	COMDAT ??Eiterator@?$vector@KV?$allocator@K@std@@@std@@QAE?AV012@H@Z
_TEXT	SEGMENT PARA USE32 PUBLIC 'CODE'
_TEXT	ENDS
;	COMDAT ??9const_iterator@?$vector@KV?$allocator@K@std@@@std@@QBE_NABV012@@Z
_TEXT	SEGMENT PARA USE32 PUBLIC 'CODE'
_TEXT	ENDS
;	COMDAT ?_Isnil@?$_Tree@V?$_Tmap_traits@V?$CStringT@DV?$StrTraitMFC_DLL@DV?$ChTraitsCRT@D@ATL@@@@@ATL@@PAVCDibBitmap@@U?$less@V?$CStringT@DV?$StrTraitMFC_DLL@DV?$ChTraitsCRT@D@ATL@@@@@ATL@@@std@@V?$allocator@U?$pair@$$CBV?$CStringT@DV?$StrTraitMFC_DLL@DV?$ChTraitsCRT@D@ATL@@@@@ATL@@PAVCDibBitmap@@@std@@@5@$0A@@std@@@std@@KAAADPAU_Node@?$_Tree_nod@V?$_Tmap_traits@V?$CStringT@DV?$StrTraitMFC_DLL@DV?$ChTraitsCRT@D@ATL@@@@@ATL@@PAVCDibBitmap@@U?$less@V?$CStringT@DV?$StrTraitMFC_DLL@DV?$ChTraitsCRT@D@ATL@@@@@ATL@@@std@@V?$allocator@U?$pair@$$CBV?$CStringT@DV?$StrTraitMFC_DLL@DV?$ChTraitsCRT@D@ATL@@@@@ATL@@PAVCDibBitmap@@@std@@@5@$0A@@std@@@2@@Z
_TEXT	SEGMENT PARA USE32 PUBLIC 'CODE'
_TEXT	ENDS
;	COMDAT ?_Key@?$_Tree@V?$_Tmap_traits@V?$CStringT@DV?$StrTraitMFC_DLL@DV?$ChTraitsCRT@D@ATL@@@@@ATL@@PAVCDibBitmap@@U?$less@V?$CStringT@DV?$StrTraitMFC_DLL@DV?$ChTraitsCRT@D@ATL@@@@@ATL@@@std@@V?$allocator@U?$pair@$$CBV?$CStringT@DV?$StrTraitMFC_DLL@DV?$ChTraitsCRT@D@ATL@@@@@ATL@@PAVCDibBitmap@@@std@@@5@$0A@@std@@@std@@KAABV?$CStringT@DV?$StrTraitMFC_DLL@DV?$ChTraitsCRT@D@ATL@@@@@ATL@@PAU_Node@?$_Tree_nod@V?$_Tmap_traits@V?$CStringT@DV?$StrTraitMFC_DLL@DV?$ChTraitsCRT@D@ATL@@@@@ATL@@PAVCDibBitmap@@U?$less@V?$CStringT@DV?$StrTraitMFC_DLL@DV?$ChTraitsCRT@D@ATL@@@@@ATL@@@std@@V?$allocator@U?$pair@$$CBV?$CStringT@DV?$StrTraitMFC_DLL@DV?$ChTraitsCRT@D@ATL@@@@@ATL@@PAVCDibBitmap@@@std@@@5@$0A@@std@@@2@@Z
_TEXT	SEGMENT PARA USE32 PUBLIC 'CODE'
_TEXT	ENDS
;	COMDAT ?_Left@?$_Tree@V?$_Tmap_traits@V?$CStringT@DV?$StrTraitMFC_DLL@DV?$ChTraitsCRT@D@ATL@@@@@ATL@@PAVCDibBitmap@@U?$less@V?$CStringT@DV?$StrTraitMFC_DLL@DV?$ChTraitsCRT@D@ATL@@@@@ATL@@@std@@V?$allocator@U?$pair@$$CBV?$CStringT@DV?$StrTraitMFC_DLL@DV?$ChTraitsCRT@D@ATL@@@@@ATL@@PAVCDibBitmap@@@std@@@5@$0A@@std@@@std@@KAAAPAU_Node@?$_Tree_nod@V?$_Tmap_traits@V?$CStringT@DV?$StrTraitMFC_DLL@DV?$ChTraitsCRT@D@ATL@@@@@ATL@@PAVCDibBitmap@@U?$less@V?$CStringT@DV?$StrTraitMFC_DLL@DV?$ChTraitsCRT@D@ATL@@@@@ATL@@@std@@V?$allocator@U?$pair@$$CBV?$CStringT@DV?$StrTraitMFC_DLL@DV?$ChTraitsCRT@D@ATL@@@@@ATL@@PAVCDibBitmap@@@std@@@5@$0A@@std@@@2@PAU342@@Z
_TEXT	SEGMENT PARA USE32 PUBLIC 'CODE'
_TEXT	ENDS
;	COMDAT ?_Right@?$_Tree@V?$_Tmap_traits@V?$CStringT@DV?$StrTraitMFC_DLL@DV?$ChTraitsCRT@D@ATL@@@@@ATL@@PAVCDibBitmap@@U?$less@V?$CStringT@DV?$StrTraitMFC_DLL@DV?$ChTraitsCRT@D@ATL@@@@@ATL@@@std@@V?$allocator@U?$pair@$$CBV?$CStringT@DV?$StrTraitMFC_DLL@DV?$ChTraitsCRT@D@ATL@@@@@ATL@@PAVCDibBitmap@@@std@@@5@$0A@@std@@@std@@KAAAPAU_Node@?$_Tree_nod@V?$_Tmap_traits@V?$CStringT@DV?$StrTraitMFC_DLL@DV?$ChTraitsCRT@D@ATL@@@@@ATL@@PAVCDibBitmap@@U?$less@V?$CStringT@DV?$StrTraitMFC_DLL@DV?$ChTraitsCRT@D@ATL@@@@@ATL@@@std@@V?$allocator@U?$pair@$$CBV?$CStringT@DV?$StrTraitMFC_DLL@DV?$ChTraitsCRT@D@ATL@@@@@ATL@@PAVCDibBitmap@@@std@@@5@$0A@@std@@@2@PAU342@@Z
_TEXT	SEGMENT PARA USE32 PUBLIC 'CODE'
_TEXT	ENDS
;	COMDAT ?begin@?$_Tree@V?$_Tmap_traits@V?$CStringT@DV?$StrTraitMFC_DLL@DV?$ChTraitsCRT@D@ATL@@@@@ATL@@PAVCDibBitmap@@U?$less@V?$CStringT@DV?$StrTraitMFC_DLL@DV?$ChTraitsCRT@D@ATL@@@@@ATL@@@std@@V?$allocator@U?$pair@$$CBV?$CStringT@DV?$StrTraitMFC_DLL@DV?$ChTraitsCRT@D@ATL@@@@@ATL@@PAVCDibBitmap@@@std@@@5@$0A@@std@@@std@@QAE?AViterator@12@XZ
_TEXT	SEGMENT PARA USE32 PUBLIC 'CODE'
_TEXT	ENDS
;	COMDAT ?_Insert@?$_Tree@V?$_Tmap_traits@V?$CStringT@DV?$StrTraitMFC_DLL@DV?$ChTraitsCRT@D@ATL@@@@@ATL@@PAVCDibBitmap@@U?$less@V?$CStringT@DV?$StrTraitMFC_DLL@DV?$ChTraitsCRT@D@ATL@@@@@ATL@@@std@@V?$allocator@U?$pair@$$CBV?$CStringT@DV?$StrTraitMFC_DLL@DV?$ChTraitsCRT@D@ATL@@@@@ATL@@PAVCDibBitmap@@@std@@@5@$0A@@std@@@std@@IAE?AViterator@12@_NPAU_Node@?$_Tree_nod@V?$_Tmap_traits@V?$CStringT@DV?$StrTraitMFC_DLL@DV?$ChTraitsCRT@D@ATL@@@@@ATL@@PAVCDibBitmap@@U?$less@V?$CStringT@DV?$StrTraitMFC_DLL@DV?$ChTraitsCRT@D@ATL@@@@@ATL@@@std@@V?$allocator@U?$pair@$$CBV?$CStringT@DV?$StrTraitMFC_DLL@DV?$ChTraitsCRT@D@ATL@@@@@ATL@@PAVCDibBitmap@@@std@@@5@$0A@@std@@@2@ABU?$pair@$$CBV?$CStringT@DV?$StrTraitMFC_DLL@DV?$ChTraitsCRT@D@ATL@@@@@ATL@@PAVCDibBitmap@@@2@@Z
_TEXT	SEGMENT PARA USE32 PUBLIC 'CODE'
_TEXT	ENDS
;	COMDAT ?_Root@?$_Tree@V?$_Tmap_traits@V?$CStringT@DV?$StrTraitMFC_DLL@DV?$ChTraitsCRT@D@ATL@@@@@ATL@@PAVCDibBitmap@@U?$less@V?$CStringT@DV?$StrTraitMFC_DLL@DV?$ChTraitsCRT@D@ATL@@@@@ATL@@@std@@V?$allocator@U?$pair@$$CBV?$CStringT@DV?$StrTraitMFC_DLL@DV?$ChTraitsCRT@D@ATL@@@@@ATL@@PAVCDibBitmap@@@std@@@5@$0A@@std@@@std@@IAEAAPAU_Node@?$_Tree_nod@V?$_Tmap_traits@V?$CStringT@DV?$StrTraitMFC_DLL@DV?$ChTraitsCRT@D@ATL@@@@@ATL@@PAVCDibBitmap@@U?$less@V?$CStringT@DV?$StrTraitMFC_DLL@DV?$ChTraitsCRT@D@ATL@@@@@ATL@@@std@@V?$allocator@U?$pair@$$CBV?$CStringT@DV?$StrTraitMFC_DLL@DV?$ChTraitsCRT@D@ATL@@@@@ATL@@PAVCDibBitmap@@@std@@@5@$0A@@std@@@2@XZ
_TEXT	SEGMENT PARA USE32 PUBLIC 'CODE'
_TEXT	ENDS
;	COMDAT ?_Kfn@?$_Tmap_traits@V?$CStringT@DV?$StrTraitMFC_DLL@DV?$ChTraitsCRT@D@ATL@@@@@ATL@@PAVCDibBitmap@@U?$less@V?$CStringT@DV?$StrTraitMFC_DLL@DV?$ChTraitsCRT@D@ATL@@@@@ATL@@@std@@V?$allocator@U?$pair@$$CBV?$CStringT@DV?$StrTraitMFC_DLL@DV?$ChTraitsCRT@D@ATL@@@@@ATL@@PAVCDibBitmap@@@std@@@5@$0A@@std@@SAABV?$CStringT@DV?$StrTraitMFC_DLL@DV?$ChTraitsCRT@D@ATL@@@@@ATL@@ABU?$pair@$$CBV?$CStringT@DV?$StrTraitMFC_DLL@DV?$ChTraitsCRT@D@ATL@@@@@ATL@@PAVCDibBitmap@@@2@@Z
_TEXT	SEGMENT PARA USE32 PUBLIC 'CODE'
_TEXT	ENDS
;	COMDAT ??R?$less@V?$CStringT@DV?$StrTraitMFC_DLL@DV?$ChTraitsCRT@D@ATL@@@@@ATL@@@std@@QBE_NABV?$CStringT@DV?$StrTraitMFC_DLL@DV?$ChTraitsCRT@D@ATL@@@@@ATL@@0@Z
_TEXT	SEGMENT PARA USE32 PUBLIC 'CODE'
_TEXT	ENDS
;	COMDAT ??0?$pair@Viterator@?$_Tree@V?$_Tmap_traits@V?$CStringT@DV?$StrTraitMFC_DLL@DV?$ChTraitsCRT@D@ATL@@@@@ATL@@PAVCDibBitmap@@U?$less@V?$CStringT@DV?$StrTraitMFC_DLL@DV?$ChTraitsCRT@D@ATL@@@@@ATL@@@std@@V?$allocator@U?$pair@$$CBV?$CStringT@DV?$StrTraitMFC_DLL@DV?$ChTraitsCRT@D@ATL@@@@@ATL@@PAVCDibBitmap@@@std@@@5@$0A@@std@@@std@@_N@std@@QAE@ABViterator@?$_Tree@V?$_Tmap_traits@V?$CStringT@DV?$StrTraitMFC_DLL@DV?$ChTraitsCRT@D@ATL@@@@@ATL@@PAVCDibBitmap@@U?$less@V?$CStringT@DV?$StrTraitMFC_DLL@DV?$ChTraitsCRT@D@ATL@@@@@ATL@@@std@@V?$allocator@U?$pair@$$CBV?$CStringT@DV?$StrTraitMFC_DLL@DV?$ChTraitsCRT@D@ATL@@@@@ATL@@PAVCDibBitmap@@@std@@@5@$0A@@std@@@1@AB_N@Z
_TEXT	SEGMENT PARA USE32 PUBLIC 'CODE'
_TEXT	ENDS
;	COMDAT ??0iterator@?$_Tree@V?$_Tmap_traits@V?$CStringT@DV?$StrTraitMFC_DLL@DV?$ChTraitsCRT@D@ATL@@@@@ATL@@PAVCDibBitmap@@U?$less@V?$CStringT@DV?$StrTraitMFC_DLL@DV?$ChTraitsCRT@D@ATL@@@@@ATL@@@std@@V?$allocator@U?$pair@$$CBV?$CStringT@DV?$StrTraitMFC_DLL@DV?$ChTraitsCRT@D@ATL@@@@@ATL@@PAVCDibBitmap@@@std@@@5@$0A@@std@@@std@@QAE@PAU_Node@?$_Tree_nod@V?$_Tmap_traits@V?$CStringT@DV?$StrTraitMFC_DLL@DV?$ChTraitsCRT@D@ATL@@@@@ATL@@PAVCDibBitmap@@U?$less@V?$CStringT@DV?$StrTraitMFC_DLL@DV?$ChTraitsCRT@D@ATL@@@@@ATL@@@std@@V?$allocator@U?$pair@$$CBV?$CStringT@DV?$StrTraitMFC_DLL@DV?$ChTraitsCRT@D@ATL@@@@@ATL@@PAVCDibBitmap@@@std@@@5@$0A@@std@@@2@@Z
_TEXT	SEGMENT PARA USE32 PUBLIC 'CODE'
_TEXT	ENDS
;	COMDAT ??Fiterator@?$_Tree@V?$_Tmap_traits@V?$CStringT@DV?$StrTraitMFC_DLL@DV?$ChTraitsCRT@D@ATL@@@@@ATL@@PAVCDibBitmap@@U?$less@V?$CStringT@DV?$StrTraitMFC_DLL@DV?$ChTraitsCRT@D@ATL@@@@@ATL@@@std@@V?$allocator@U?$pair@$$CBV?$CStringT@DV?$StrTraitMFC_DLL@DV?$ChTraitsCRT@D@ATL@@@@@ATL@@PAVCDibBitmap@@@std@@@5@$0A@@std@@@std@@QAEAAV012@XZ
_TEXT	SEGMENT PARA USE32 PUBLIC 'CODE'
_TEXT	ENDS
;	COMDAT ??8const_iterator@?$_Tree@V?$_Tmap_traits@V?$CStringT@DV?$StrTraitMFC_DLL@DV?$ChTraitsCRT@D@ATL@@@@@ATL@@PAVCDibBitmap@@U?$less@V?$CStringT@DV?$StrTraitMFC_DLL@DV?$ChTraitsCRT@D@ATL@@@@@ATL@@@std@@V?$allocator@U?$pair@$$CBV?$CStringT@DV?$StrTraitMFC_DLL@DV?$ChTraitsCRT@D@ATL@@@@@ATL@@PAVCDibBitmap@@@std@@@5@$0A@@std@@@std@@QBE_NABV012@@Z
_TEXT	SEGMENT PARA USE32 PUBLIC 'CODE'
_TEXT	ENDS
;	COMDAT ?_Mynode@const_iterator@?$_Tree@V?$_Tmap_traits@V?$CStringT@DV?$StrTraitMFC_DLL@DV?$ChTraitsCRT@D@ATL@@@@@ATL@@PAVCDibBitmap@@U?$less@V?$CStringT@DV?$StrTraitMFC_DLL@DV?$ChTraitsCRT@D@ATL@@@@@ATL@@@std@@V?$allocator@U?$pair@$$CBV?$CStringT@DV?$StrTraitMFC_DLL@DV?$ChTraitsCRT@D@ATL@@@@@ATL@@PAVCDibBitmap@@@std@@@5@$0A@@std@@@std@@QBEPAU_Node@?$_Tree_nod@V?$_Tmap_traits@V?$CStringT@DV?$StrTraitMFC_DLL@DV?$ChTraitsCRT@D@ATL@@@@@ATL@@PAVCDibBitmap@@U?$less@V?$CStringT@DV?$StrTraitMFC_DLL@DV?$ChTraitsCRT@D@ATL@@@@@ATL@@@std@@V?$allocator@U?$pair@$$CBV?$CStringT@DV?$StrTraitMFC_DLL@DV?$ChTraitsCRT@D@ATL@@@@@ATL@@PAVCDibBitmap@@@std@@@5@$0A@@std@@@3@XZ
_TEXT	SEGMENT PARA USE32 PUBLIC 'CODE'
_TEXT	ENDS
;	COMDAT ?capacity@?$vector@KV?$allocator@K@std@@@std@@QBEIXZ
_TEXT	SEGMENT PARA USE32 PUBLIC 'CODE'
_TEXT	ENDS
;	COMDAT ?insert@?$vector@KV?$allocator@K@std@@@std@@QAE?AViterator@12@V312@ABK@Z
_TEXT	SEGMENT PARA USE32 PUBLIC 'CODE'
_TEXT	ENDS
;	COMDAT ?_Buy@?$vector@KV?$allocator@K@std@@@std@@IAE_NI@Z
_TEXT	SEGMENT PARA USE32 PUBLIC 'CODE'
_TEXT	ENDS
;	COMDAT ?_Destroy@?$vector@KV?$allocator@K@std@@@std@@IAEXPAK0@Z
_TEXT	SEGMENT PARA USE32 PUBLIC 'CODE'
_TEXT	ENDS
;	COMDAT ?_Tidy@?$vector@KV?$allocator@K@std@@@std@@IAEXXZ
_TEXT	SEGMENT PARA USE32 PUBLIC 'CODE'
_TEXT	ENDS
;	COMDAT ?_Ufill@?$vector@KV?$allocator@K@std@@@std@@IAEPAKPAKIABK@Z
_TEXT	SEGMENT PARA USE32 PUBLIC 'CODE'
_TEXT	ENDS
;	COMDAT ??0?$_Vector_val@KV?$allocator@K@std@@@std@@IAE@V?$allocator@K@1@@Z
_TEXT	SEGMENT PARA USE32 PUBLIC 'CODE'
_TEXT	ENDS
;	COMDAT ??0?$allocator@K@std@@QAE@XZ
_TEXT	SEGMENT PARA USE32 PUBLIC 'CODE'
_TEXT	ENDS
;	COMDAT ?_Nextnode@?$list@PAVIMessageObserver@@V?$allocator@PAVIMessageObserver@@@std@@@std@@KAAAPAU_Node@?$_List_nod@PAVIMessageObserver@@V?$allocator@PAVIMessageObserver@@@std@@@2@PAU342@@Z
_TEXT	SEGMENT PARA USE32 PUBLIC 'CODE'
_TEXT	ENDS
;	COMDAT ?_Buynode@?$list@PAVIMessageObserver@@V?$allocator@PAVIMessageObserver@@@std@@@std@@IAEPAU_Node@?$_List_nod@PAVIMessageObserver@@V?$allocator@PAVIMessageObserver@@@std@@@2@XZ
_TEXT	SEGMENT PARA USE32 PUBLIC 'CODE'
_TEXT	ENDS
;	COMDAT ?_Tidy@?$list@PAVIMessageObserver@@V?$allocator@PAVIMessageObserver@@@std@@@std@@IAEXXZ
_TEXT	SEGMENT PARA USE32 PUBLIC 'CODE'
_TEXT	ENDS
;	COMDAT ??0?$_List_val@PAVIMessageObserver@@V?$allocator@PAVIMessageObserver@@@std@@@std@@IAE@V?$allocator@PAVIMessageObserver@@@1@@Z
_TEXT	SEGMENT PARA USE32 PUBLIC 'CODE'
_TEXT	ENDS
;	COMDAT ??0?$allocator@PAVIMessageObserver@@@std@@QAE@XZ
_TEXT	SEGMENT PARA USE32 PUBLIC 'CODE'
_TEXT	ENDS
;	COMDAT ??0iterator@?$list@PAVIMessageObserver@@V?$allocator@PAVIMessageObserver@@@std@@@std@@QAE@PAU_Node@?$_List_nod@PAVIMessageObserver@@V?$allocator@PAVIMessageObserver@@@std@@@2@@Z
_TEXT	SEGMENT PARA USE32 PUBLIC 'CODE'
_TEXT	ENDS
;	COMDAT ??Eiterator@?$list@PAVIMessageObserver@@V?$allocator@PAVIMessageObserver@@@std@@@std@@QAEAAV012@XZ
_TEXT	SEGMENT PARA USE32 PUBLIC 'CODE'
_TEXT	ENDS
;	COMDAT ??Dconst_iterator@?$list@PAVIMessageObserver@@V?$allocator@PAVIMessageObserver@@@std@@@std@@QBEABQAVIMessageObserver@@XZ
_TEXT	SEGMENT PARA USE32 PUBLIC 'CODE'
_TEXT	ENDS
;	COMDAT ??8const_iterator@?$list@PAVIMessageObserver@@V?$allocator@PAVIMessageObserver@@@std@@@std@@QBE_NABV012@@Z
_TEXT	SEGMENT PARA USE32 PUBLIC 'CODE'
_TEXT	ENDS
;	COMDAT ??0iterator@?$vector@KV?$allocator@K@std@@@std@@QAE@PAK@Z
_TEXT	SEGMENT PARA USE32 PUBLIC 'CODE'
_TEXT	ENDS
;	COMDAT ??Eiterator@?$vector@KV?$allocator@K@std@@@std@@QAEAAV012@XZ
_TEXT	SEGMENT PARA USE32 PUBLIC 'CODE'
_TEXT	ENDS
;	COMDAT ??Hiterator@?$vector@KV?$allocator@K@std@@@std@@QBE?AV012@H@Z
_TEXT	SEGMENT PARA USE32 PUBLIC 'CODE'
_TEXT	ENDS
;	COMDAT ??Dconst_iterator@?$vector@KV?$allocator@K@std@@@std@@QBEABKXZ
_TEXT	SEGMENT PARA USE32 PUBLIC 'CODE'
_TEXT	ENDS
;	COMDAT ??8const_iterator@?$vector@KV?$allocator@K@std@@@std@@QBE_NABV012@@Z
_TEXT	SEGMENT PARA USE32 PUBLIC 'CODE'
_TEXT	ENDS
;	COMDAT ??0length_error@std@@QAE@ABV01@@Z
_TEXT	SEGMENT PARA USE32 PUBLIC 'CODE'
_TEXT	ENDS
;	COMDAT ??MATL@@YA_NABV?$CStringT@DV?$StrTraitMFC_DLL@DV?$ChTraitsCRT@D@ATL@@@@@0@0@Z
_TEXT	SEGMENT PARA USE32 PUBLIC 'CODE'
_TEXT	ENDS
;	COMDAT ?StringCompare@?$ChTraitsCRT@D@ATL@@SAHPBD0@Z
_TEXT	SEGMENT PARA USE32 PUBLIC 'CODE'
_TEXT	ENDS
;	COMDAT ?_Color@?$_Tree@V?$_Tmap_traits@V?$CStringT@DV?$StrTraitMFC_DLL@DV?$ChTraitsCRT@D@ATL@@@@@ATL@@PAVCDibBitmap@@U?$less@V?$CStringT@DV?$StrTraitMFC_DLL@DV?$ChTraitsCRT@D@ATL@@@@@ATL@@@std@@V?$allocator@U?$pair@$$CBV?$CStringT@DV?$StrTraitMFC_DLL@DV?$ChTraitsCRT@D@ATL@@@@@ATL@@PAVCDibBitmap@@@std@@@5@$0A@@std@@@std@@KAAADPAU_Node@?$_Tree_nod@V?$_Tmap_traits@V?$CStringT@DV?$StrTraitMFC_DLL@DV?$ChTraitsCRT@D@ATL@@@@@ATL@@PAVCDibBitmap@@U?$less@V?$CStringT@DV?$StrTraitMFC_DLL@DV?$ChTraitsCRT@D@ATL@@@@@ATL@@@std@@V?$allocator@U?$pair@$$CBV?$CStringT@DV?$StrTraitMFC_DLL@DV?$ChTraitsCRT@D@ATL@@@@@ATL@@PAVCDibBitmap@@@std@@@5@$0A@@std@@@2@@Z
_TEXT	SEGMENT PARA USE32 PUBLIC 'CODE'
_TEXT	ENDS
;	COMDAT ?_Parent@?$_Tree@V?$_Tmap_traits@V?$CStringT@DV?$StrTraitMFC_DLL@DV?$ChTraitsCRT@D@ATL@@@@@ATL@@PAVCDibBitmap@@U?$less@V?$CStringT@DV?$StrTraitMFC_DLL@DV?$ChTraitsCRT@D@ATL@@@@@ATL@@@std@@V?$allocator@U?$pair@$$CBV?$CStringT@DV?$StrTraitMFC_DLL@DV?$ChTraitsCRT@D@ATL@@@@@ATL@@PAVCDibBitmap@@@std@@@5@$0A@@std@@@std@@KAAAPAU_Node@?$_Tree_nod@V?$_Tmap_traits@V?$CStringT@DV?$StrTraitMFC_DLL@DV?$ChTraitsCRT@D@ATL@@@@@ATL@@PAVCDibBitmap@@U?$less@V?$CStringT@DV?$StrTraitMFC_DLL@DV?$ChTraitsCRT@D@ATL@@@@@ATL@@@std@@V?$allocator@U?$pair@$$CBV?$CStringT@DV?$StrTraitMFC_DLL@DV?$ChTraitsCRT@D@ATL@@@@@ATL@@PAVCDibBitmap@@@std@@@5@$0A@@std@@@2@PAU342@@Z
_TEXT	SEGMENT PARA USE32 PUBLIC 'CODE'
_TEXT	ENDS
;	COMDAT ?_Myval@?$_Tree@V?$_Tmap_traits@V?$CStringT@DV?$StrTraitMFC_DLL@DV?$ChTraitsCRT@D@ATL@@@@@ATL@@PAVCDibBitmap@@U?$less@V?$CStringT@DV?$StrTraitMFC_DLL@DV?$ChTraitsCRT@D@ATL@@@@@ATL@@@std@@V?$allocator@U?$pair@$$CBV?$CStringT@DV?$StrTraitMFC_DLL@DV?$ChTraitsCRT@D@ATL@@@@@ATL@@PAVCDibBitmap@@@std@@@5@$0A@@std@@@std@@KAAAU?$pair@$$CBV?$CStringT@DV?$StrTraitMFC_DLL@DV?$ChTraitsCRT@D@ATL@@@@@ATL@@PAVCDibBitmap@@@2@PAU_Node@?$_Tree_nod@V?$_Tmap_traits@V?$CStringT@DV?$StrTraitMFC_DLL@DV?$ChTraitsCRT@D@ATL@@@@@ATL@@PAVCDibBitmap@@U?$less@V?$CStringT@DV?$StrTraitMFC_DLL@DV?$ChTraitsCRT@D@ATL@@@@@ATL@@@std@@V?$allocator@U?$pair@$$CBV?$CStringT@DV?$StrTraitMFC_DLL@DV?$ChTraitsCRT@D@ATL@@@@@ATL@@PAVCDibBitmap@@@std@@@5@$0A@@std@@@2@@Z
_TEXT	SEGMENT PARA USE32 PUBLIC 'CODE'
_TEXT	ENDS
;	COMDAT ?max_size@?$_Tree@V?$_Tmap_traits@V?$CStringT@DV?$StrTraitMFC_DLL@DV?$ChTraitsCRT@D@ATL@@@@@ATL@@PAVCDibBitmap@@U?$less@V?$CStringT@DV?$StrTraitMFC_DLL@DV?$ChTraitsCRT@D@ATL@@@@@ATL@@@std@@V?$allocator@U?$pair@$$CBV?$CStringT@DV?$StrTraitMFC_DLL@DV?$ChTraitsCRT@D@ATL@@@@@ATL@@PAVCDibBitmap@@@std@@@5@$0A@@std@@@std@@QBEIXZ
_TEXT	SEGMENT PARA USE32 PUBLIC 'CODE'
_TEXT	ENDS
;	COMDAT ?_Lmost@?$_Tree@V?$_Tmap_traits@V?$CStringT@DV?$StrTraitMFC_DLL@DV?$ChTraitsCRT@D@ATL@@@@@ATL@@PAVCDibBitmap@@U?$less@V?$CStringT@DV?$StrTraitMFC_DLL@DV?$ChTraitsCRT@D@ATL@@@@@ATL@@@std@@V?$allocator@U?$pair@$$CBV?$CStringT@DV?$StrTraitMFC_DLL@DV?$ChTraitsCRT@D@ATL@@@@@ATL@@PAVCDibBitmap@@@std@@@5@$0A@@std@@@std@@IAEAAPAU_Node@?$_Tree_nod@V?$_Tmap_traits@V?$CStringT@DV?$StrTraitMFC_DLL@DV?$ChTraitsCRT@D@ATL@@@@@ATL@@PAVCDibBitmap@@U?$less@V?$CStringT@DV?$StrTraitMFC_DLL@DV?$ChTraitsCRT@D@ATL@@@@@ATL@@@std@@V?$allocator@U?$pair@$$CBV?$CStringT@DV?$StrTraitMFC_DLL@DV?$ChTraitsCRT@D@ATL@@@@@ATL@@PAVCDibBitmap@@@std@@@5@$0A@@std@@@2@XZ
_TEXT	SEGMENT PARA USE32 PUBLIC 'CODE'
_TEXT	ENDS
;	COMDAT ?_Lrotate@?$_Tree@V?$_Tmap_traits@V?$CStringT@DV?$StrTraitMFC_DLL@DV?$ChTraitsCRT@D@ATL@@@@@ATL@@PAVCDibBitmap@@U?$less@V?$CStringT@DV?$StrTraitMFC_DLL@DV?$ChTraitsCRT@D@ATL@@@@@ATL@@@std@@V?$allocator@U?$pair@$$CBV?$CStringT@DV?$StrTraitMFC_DLL@DV?$ChTraitsCRT@D@ATL@@@@@ATL@@PAVCDibBitmap@@@std@@@5@$0A@@std@@@std@@IAEXPAU_Node@?$_Tree_nod@V?$_Tmap_traits@V?$CStringT@DV?$StrTraitMFC_DLL@DV?$ChTraitsCRT@D@ATL@@@@@ATL@@PAVCDibBitmap@@U?$less@V?$CStringT@DV?$StrTraitMFC_DLL@DV?$ChTraitsCRT@D@ATL@@@@@ATL@@@std@@V?$allocator@U?$pair@$$CBV?$CStringT@DV?$StrTraitMFC_DLL@DV?$ChTraitsCRT@D@ATL@@@@@ATL@@PAVCDibBitmap@@@std@@@5@$0A@@std@@@2@@Z
_TEXT	SEGMENT PARA USE32 PUBLIC 'CODE'
_TEXT	ENDS
;	COMDAT ?_Rmost@?$_Tree@V?$_Tmap_traits@V?$CStringT@DV?$StrTraitMFC_DLL@DV?$ChTraitsCRT@D@ATL@@@@@ATL@@PAVCDibBitmap@@U?$less@V?$CStringT@DV?$StrTraitMFC_DLL@DV?$ChTraitsCRT@D@ATL@@@@@ATL@@@std@@V?$allocator@U?$pair@$$CBV?$CStringT@DV?$StrTraitMFC_DLL@DV?$ChTraitsCRT@D@ATL@@@@@ATL@@PAVCDibBitmap@@@std@@@5@$0A@@std@@@std@@IAEAAPAU_Node@?$_Tree_nod@V?$_Tmap_traits@V?$CStringT@DV?$StrTraitMFC_DLL@DV?$ChTraitsCRT@D@ATL@@@@@ATL@@PAVCDibBitmap@@U?$less@V?$CStringT@DV?$StrTraitMFC_DLL@DV?$ChTraitsCRT@D@ATL@@@@@ATL@@@std@@V?$allocator@U?$pair@$$CBV?$CStringT@DV?$StrTraitMFC_DLL@DV?$ChTraitsCRT@D@ATL@@@@@ATL@@PAVCDibBitmap@@@std@@@5@$0A@@std@@@2@XZ
_TEXT	SEGMENT PARA USE32 PUBLIC 'CODE'
_TEXT	ENDS
;	COMDAT ?_Rrotate@?$_Tree@V?$_Tmap_traits@V?$CStringT@DV?$StrTraitMFC_DLL@DV?$ChTraitsCRT@D@ATL@@@@@ATL@@PAVCDibBitmap@@U?$less@V?$CStringT@DV?$StrTraitMFC_DLL@DV?$ChTraitsCRT@D@ATL@@@@@ATL@@@std@@V?$allocator@U?$pair@$$CBV?$CStringT@DV?$StrTraitMFC_DLL@DV?$ChTraitsCRT@D@ATL@@@@@ATL@@PAVCDibBitmap@@@std@@@5@$0A@@std@@@std@@IAEXPAU_Node@?$_Tree_nod@V?$_Tmap_traits@V?$CStringT@DV?$StrTraitMFC_DLL@DV?$ChTraitsCRT@D@ATL@@@@@ATL@@PAVCDibBitmap@@U?$less@V?$CStringT@DV?$StrTraitMFC_DLL@DV?$ChTraitsCRT@D@ATL@@@@@ATL@@@std@@V?$allocator@U?$pair@$$CBV?$CStringT@DV?$StrTraitMFC_DLL@DV?$ChTraitsCRT@D@ATL@@@@@ATL@@PAVCDibBitmap@@@std@@@5@$0A@@std@@@2@@Z
_TEXT	SEGMENT PARA USE32 PUBLIC 'CODE'
_TEXT	ENDS
;	COMDAT ?_Buynode@?$_Tree@V?$_Tmap_traits@V?$CStringT@DV?$StrTraitMFC_DLL@DV?$ChTraitsCRT@D@ATL@@@@@ATL@@PAVCDibBitmap@@U?$less@V?$CStringT@DV?$StrTraitMFC_DLL@DV?$ChTraitsCRT@D@ATL@@@@@ATL@@@std@@V?$allocator@U?$pair@$$CBV?$CStringT@DV?$StrTraitMFC_DLL@DV?$ChTraitsCRT@D@ATL@@@@@ATL@@PAVCDibBitmap@@@std@@@5@$0A@@std@@@std@@IAEPAU_Node@?$_Tree_nod@V?$_Tmap_traits@V?$CStringT@DV?$StrTraitMFC_DLL@DV?$ChTraitsCRT@D@ATL@@@@@ATL@@PAVCDibBitmap@@U?$less@V?$CStringT@DV?$StrTraitMFC_DLL@DV?$ChTraitsCRT@D@ATL@@@@@ATL@@@std@@V?$allocator@U?$pair@$$CBV?$CStringT@DV?$StrTraitMFC_DLL@DV?$ChTraitsCRT@D@ATL@@@@@ATL@@PAVCDibBitmap@@@std@@@5@$0A@@std@@@2@PAU342@00ABU?$pair@$$CBV?$CStringT@DV?$StrTraitMFC_DLL@DV?$ChTraitsCRT@D@ATL@@@@@ATL@@PAVCDibBitmap@@@2@D@Z
_TEXT	SEGMENT PARA USE32 PUBLIC 'CODE'
_TEXT	ENDS
;	COMDAT ??0const_iterator@?$_Tree@V?$_Tmap_traits@V?$CStringT@DV?$StrTraitMFC_DLL@DV?$ChTraitsCRT@D@ATL@@@@@ATL@@PAVCDibBitmap@@U?$less@V?$CStringT@DV?$StrTraitMFC_DLL@DV?$ChTraitsCRT@D@ATL@@@@@ATL@@@std@@V?$allocator@U?$pair@$$CBV?$CStringT@DV?$StrTraitMFC_DLL@DV?$ChTraitsCRT@D@ATL@@@@@ATL@@PAVCDibBitmap@@@std@@@5@$0A@@std@@@std@@QAE@PAU_Node@?$_Tree_nod@V?$_Tmap_traits@V?$CStringT@DV?$StrTraitMFC_DLL@DV?$ChTraitsCRT@D@ATL@@@@@ATL@@PAVCDibBitmap@@U?$less@V?$CStringT@DV?$StrTraitMFC_DLL@DV?$ChTraitsCRT@D@ATL@@@@@ATL@@@std@@V?$allocator@U?$pair@$$CBV?$CStringT@DV?$StrTraitMFC_DLL@DV?$ChTraitsCRT@D@ATL@@@@@ATL@@PAVCDibBitmap@@@std@@@5@$0A@@std@@@2@@Z
_TEXT	SEGMENT PARA USE32 PUBLIC 'CODE'
_TEXT	ENDS
;	COMDAT ??Fconst_iterator@?$_Tree@V?$_Tmap_traits@V?$CStringT@DV?$StrTraitMFC_DLL@DV?$ChTraitsCRT@D@ATL@@@@@ATL@@PAVCDibBitmap@@U?$less@V?$CStringT@DV?$StrTraitMFC_DLL@DV?$ChTraitsCRT@D@ATL@@@@@ATL@@@std@@V?$allocator@U?$pair@$$CBV?$CStringT@DV?$StrTraitMFC_DLL@DV?$ChTraitsCRT@D@ATL@@@@@ATL@@PAVCDibBitmap@@@std@@@5@$0A@@std@@@std@@QAEAAV012@XZ
_TEXT	SEGMENT PARA USE32 PUBLIC 'CODE'
_TEXT	ENDS
;	COMDAT ?max_size@?$vector@KV?$allocator@K@std@@@std@@QBEIXZ
_TEXT	SEGMENT PARA USE32 PUBLIC 'CODE'
_TEXT	ENDS
;	COMDAT ?_Insert_n@?$vector@KV?$allocator@K@std@@@std@@IAEXViterator@12@IABK@Z
_TEXT	SEGMENT PARA USE32 PUBLIC 'CODE'
_TEXT	ENDS
;	COMDAT ?_Xlen@?$vector@KV?$allocator@K@std@@@std@@IBEXXZ
_TEXT	SEGMENT PARA USE32 PUBLIC 'CODE'
_TEXT	ENDS
;	COMDAT ??0?$allocator@K@std@@QAE@ABV01@@Z
_TEXT	SEGMENT PARA USE32 PUBLIC 'CODE'
_TEXT	ENDS
;	COMDAT ?deallocate@?$allocator@K@std@@QAEXPAKI@Z
_TEXT	SEGMENT PARA USE32 PUBLIC 'CODE'
_TEXT	ENDS
;	COMDAT ?allocate@?$allocator@K@std@@QAEPAKI@Z
_TEXT	SEGMENT PARA USE32 PUBLIC 'CODE'
_TEXT	ENDS
;	COMDAT ?_Prevnode@?$list@PAVIMessageObserver@@V?$allocator@PAVIMessageObserver@@@std@@@std@@KAAAPAU_Node@?$_List_nod@PAVIMessageObserver@@V?$allocator@PAVIMessageObserver@@@std@@@2@PAU342@@Z
_TEXT	SEGMENT PARA USE32 PUBLIC 'CODE'
_TEXT	ENDS
;	COMDAT ?_Myval@?$list@PAVIMessageObserver@@V?$allocator@PAVIMessageObserver@@@std@@@std@@KAAAPAVIMessageObserver@@PAU_Node@?$_List_nod@PAVIMessageObserver@@V?$allocator@PAVIMessageObserver@@@std@@@2@@Z
_TEXT	SEGMENT PARA USE32 PUBLIC 'CODE'
_TEXT	ENDS
;	COMDAT ?clear@?$list@PAVIMessageObserver@@V?$allocator@PAVIMessageObserver@@@std@@@std@@QAEXXZ
_TEXT	SEGMENT PARA USE32 PUBLIC 'CODE'
_TEXT	ENDS
;	COMDAT ??0?$_List_ptr@PAVIMessageObserver@@V?$allocator@PAVIMessageObserver@@@std@@@std@@IAE@V?$allocator@PAVIMessageObserver@@@1@@Z
_TEXT	SEGMENT PARA USE32 PUBLIC 'CODE'
_TEXT	ENDS
;	COMDAT ??0?$allocator@PAVIMessageObserver@@@std@@QAE@ABV01@@Z
_TEXT	SEGMENT PARA USE32 PUBLIC 'CODE'
_TEXT	ENDS
;	COMDAT ?deallocate@?$allocator@U_Node@?$_List_nod@PAVIMessageObserver@@V?$allocator@PAVIMessageObserver@@@std@@@std@@@std@@QAEXPAU_Node@?$_List_nod@PAVIMessageObserver@@V?$allocator@PAVIMessageObserver@@@std@@@2@I@Z
_TEXT	SEGMENT PARA USE32 PUBLIC 'CODE'
_TEXT	ENDS
;	COMDAT ?allocate@?$allocator@U_Node@?$_List_nod@PAVIMessageObserver@@V?$allocator@PAVIMessageObserver@@@std@@@std@@@std@@QAEPAU_Node@?$_List_nod@PAVIMessageObserver@@V?$allocator@PAVIMessageObserver@@@std@@@2@I@Z
_TEXT	SEGMENT PARA USE32 PUBLIC 'CODE'
_TEXT	ENDS
;	COMDAT ?construct@?$allocator@PAU_Node@?$_List_nod@PAVIMessageObserver@@V?$allocator@PAVIMessageObserver@@@std@@@std@@@std@@QAEXPAPAU_Node@?$_List_nod@PAVIMessageObserver@@V?$allocator@PAVIMessageObserver@@@std@@@2@ABQAU342@@Z
_TEXT	SEGMENT PARA USE32 PUBLIC 'CODE'
_TEXT	ENDS
;	COMDAT ?destroy@?$allocator@PAU_Node@?$_List_nod@PAVIMessageObserver@@V?$allocator@PAVIMessageObserver@@@std@@@std@@@std@@QAEXPAPAU_Node@?$_List_nod@PAVIMessageObserver@@V?$allocator@PAVIMessageObserver@@@std@@@2@@Z
_TEXT	SEGMENT PARA USE32 PUBLIC 'CODE'
_TEXT	ENDS
;	COMDAT ??0const_iterator@?$list@PAVIMessageObserver@@V?$allocator@PAVIMessageObserver@@@std@@@std@@QAE@PAU_Node@?$_List_nod@PAVIMessageObserver@@V?$allocator@PAVIMessageObserver@@@std@@@2@@Z
_TEXT	SEGMENT PARA USE32 PUBLIC 'CODE'
_TEXT	ENDS
;	COMDAT ??Econst_iterator@?$list@PAVIMessageObserver@@V?$allocator@PAVIMessageObserver@@@std@@@std@@QAEAAV012@XZ
_TEXT	SEGMENT PARA USE32 PUBLIC 'CODE'
_TEXT	ENDS
;	COMDAT ??Yiterator@?$vector@KV?$allocator@K@std@@@std@@QAEAAV012@H@Z
_TEXT	SEGMENT PARA USE32 PUBLIC 'CODE'
_TEXT	ENDS
;	COMDAT ??Giterator@?$vector@KV?$allocator@K@std@@@std@@QBEHABVconst_iterator@12@@Z
_TEXT	SEGMENT PARA USE32 PUBLIC 'CODE'
_TEXT	ENDS
;	COMDAT ??0const_iterator@?$vector@KV?$allocator@K@std@@@std@@QAE@PAK@Z
_TEXT	SEGMENT PARA USE32 PUBLIC 'CODE'
_TEXT	ENDS
;	COMDAT ?max_size@?$allocator@U?$pair@$$CBV?$CStringT@DV?$StrTraitMFC_DLL@DV?$ChTraitsCRT@D@ATL@@@@@ATL@@PAVCDibBitmap@@@std@@@std@@QBEIXZ
_TEXT	SEGMENT PARA USE32 PUBLIC 'CODE'
_TEXT	ENDS
;	COMDAT ?deallocate@?$allocator@U_Node@?$_Tree_nod@V?$_Tmap_traits@V?$CStringT@DV?$StrTraitMFC_DLL@DV?$ChTraitsCRT@D@ATL@@@@@ATL@@PAVCDibBitmap@@U?$less@V?$CStringT@DV?$StrTraitMFC_DLL@DV?$ChTraitsCRT@D@ATL@@@@@ATL@@@std@@V?$allocator@U?$pair@$$CBV?$CStringT@DV?$StrTraitMFC_DLL@DV?$ChTraitsCRT@D@ATL@@@@@ATL@@PAVCDibBitmap@@@std@@@5@$0A@@std@@@std@@@std@@QAEXPAU_Node@?$_Tree_nod@V?$_Tmap_traits@V?$CStringT@DV?$StrTraitMFC_DLL@DV?$ChTraitsCRT@D@ATL@@@@@ATL@@PAVCDibBitmap@@U?$less@V?$CStringT@DV?$StrTraitMFC_DLL@DV?$ChTraitsCRT@D@ATL@@@@@ATL@@@std@@V?$allocator@U?$pair@$$CBV?$CStringT@DV?$StrTraitMFC_DLL@DV?$ChTraitsCRT@D@ATL@@@@@ATL@@PAVCDibBitmap@@@std@@@5@$0A@@std@@@2@I@Z
_TEXT	SEGMENT PARA USE32 PUBLIC 'CODE'
_TEXT	ENDS
;	COMDAT ?allocate@?$allocator@U_Node@?$_Tree_nod@V?$_Tmap_traits@V?$CStringT@DV?$StrTraitMFC_DLL@DV?$ChTraitsCRT@D@ATL@@@@@ATL@@PAVCDibBitmap@@U?$less@V?$CStringT@DV?$StrTraitMFC_DLL@DV?$ChTraitsCRT@D@ATL@@@@@ATL@@@std@@V?$allocator@U?$pair@$$CBV?$CStringT@DV?$StrTraitMFC_DLL@DV?$ChTraitsCRT@D@ATL@@@@@ATL@@PAVCDibBitmap@@@std@@@5@$0A@@std@@@std@@@std@@QAEPAU_Node@?$_Tree_nod@V?$_Tmap_traits@V?$CStringT@DV?$StrTraitMFC_DLL@DV?$ChTraitsCRT@D@ATL@@@@@ATL@@PAVCDibBitmap@@U?$less@V?$CStringT@DV?$StrTraitMFC_DLL@DV?$ChTraitsCRT@D@ATL@@@@@ATL@@@std@@V?$allocator@U?$pair@$$CBV?$CStringT@DV?$StrTraitMFC_DLL@DV?$ChTraitsCRT@D@ATL@@@@@ATL@@PAVCDibBitmap@@@std@@@5@$0A@@std@@@2@I@Z
_TEXT	SEGMENT PARA USE32 PUBLIC 'CODE'
_TEXT	ENDS
;	COMDAT ?_Dec@const_iterator@?$_Tree@V?$_Tmap_traits@V?$CStringT@DV?$StrTraitMFC_DLL@DV?$ChTraitsCRT@D@ATL@@@@@ATL@@PAVCDibBitmap@@U?$less@V?$CStringT@DV?$StrTraitMFC_DLL@DV?$ChTraitsCRT@D@ATL@@@@@ATL@@@std@@V?$allocator@U?$pair@$$CBV?$CStringT@DV?$StrTraitMFC_DLL@DV?$ChTraitsCRT@D@ATL@@@@@ATL@@PAVCDibBitmap@@@std@@@5@$0A@@std@@@std@@QAEXXZ
_TEXT	SEGMENT PARA USE32 PUBLIC 'CODE'
_TEXT	ENDS
;	COMDAT ?max_size@?$allocator@K@std@@QBEIXZ
_TEXT	SEGMENT PARA USE32 PUBLIC 'CODE'
_TEXT	ENDS
;	COMDAT ??0?$_List_nod@PAVIMessageObserver@@V?$allocator@PAVIMessageObserver@@@std@@@std@@IAE@V?$allocator@PAVIMessageObserver@@@1@@Z
_TEXT	SEGMENT PARA USE32 PUBLIC 'CODE'
_TEXT	ENDS
;	COMDAT ?destroy@?$allocator@U_Node@?$_List_nod@PAVIMessageObserver@@V?$allocator@PAVIMessageObserver@@@std@@@std@@@std@@QAEXPAU_Node@?$_List_nod@PAVIMessageObserver@@V?$allocator@PAVIMessageObserver@@@std@@@2@@Z
_TEXT	SEGMENT PARA USE32 PUBLIC 'CODE'
_TEXT	ENDS
;	COMDAT ??Gconst_iterator@?$vector@KV?$allocator@K@std@@@std@@QBEHABV012@@Z
_TEXT	SEGMENT PARA USE32 PUBLIC 'CODE'
_TEXT	ENDS
;	COMDAT ??0_Node@?$_Tree_nod@V?$_Tmap_traits@V?$CStringT@DV?$StrTraitMFC_DLL@DV?$ChTraitsCRT@D@ATL@@@@@ATL@@PAVCDibBitmap@@U?$less@V?$CStringT@DV?$StrTraitMFC_DLL@DV?$ChTraitsCRT@D@ATL@@@@@ATL@@@std@@V?$allocator@U?$pair@$$CBV?$CStringT@DV?$StrTraitMFC_DLL@DV?$ChTraitsCRT@D@ATL@@@@@ATL@@PAVCDibBitmap@@@std@@@5@$0A@@std@@@std@@QAE@PAU012@00ABU?$pair@$$CBV?$CStringT@DV?$StrTraitMFC_DLL@DV?$ChTraitsCRT@D@ATL@@@@@ATL@@PAVCDibBitmap@@@2@D@Z
_TEXT	SEGMENT PARA USE32 PUBLIC 'CODE'
_TEXT	ENDS
;	COMDAT ??0?$pair@$$CBV?$CStringT@DV?$StrTraitMFC_DLL@DV?$ChTraitsCRT@D@ATL@@@@@ATL@@PAVCDibBitmap@@@std@@QAE@ABU01@@Z
_TEXT	SEGMENT PARA USE32 PUBLIC 'CODE'
_TEXT	ENDS
;	COMDAT ?_Max@?$_Tree@V?$_Tmap_traits@V?$CStringT@DV?$StrTraitMFC_DLL@DV?$ChTraitsCRT@D@ATL@@@@@ATL@@PAVCDibBitmap@@U?$less@V?$CStringT@DV?$StrTraitMFC_DLL@DV?$ChTraitsCRT@D@ATL@@@@@ATL@@@std@@V?$allocator@U?$pair@$$CBV?$CStringT@DV?$StrTraitMFC_DLL@DV?$ChTraitsCRT@D@ATL@@@@@ATL@@PAVCDibBitmap@@@std@@@5@$0A@@std@@@std@@KAPAU_Node@?$_Tree_nod@V?$_Tmap_traits@V?$CStringT@DV?$StrTraitMFC_DLL@DV?$ChTraitsCRT@D@ATL@@@@@ATL@@PAVCDibBitmap@@U?$less@V?$CStringT@DV?$StrTraitMFC_DLL@DV?$ChTraitsCRT@D@ATL@@@@@ATL@@@std@@V?$allocator@U?$pair@$$CBV?$CStringT@DV?$StrTraitMFC_DLL@DV?$ChTraitsCRT@D@ATL@@@@@ATL@@PAVCDibBitmap@@@std@@@5@$0A@@std@@@2@PAU342@@Z
_TEXT	SEGMENT PARA USE32 PUBLIC 'CODE'
_TEXT	ENDS
;	COMDAT ?Unlock@?$CComCritSecLock@VCComCriticalSection@ATL@@@ATL@@QAEXXZ
_TEXT	SEGMENT PARA USE32 PUBLIC 'CODE'
_TEXT	ENDS
;	COMDAT ??0?$CArray@MM@@QAE@XZ
_TEXT	SEGMENT PARA USE32 PUBLIC 'CODE'
_TEXT	ENDS
;	COMDAT ??1?$CArray@MM@@UAE@XZ
_TEXT	SEGMENT PARA USE32 PUBLIC 'CODE'
_TEXT	ENDS
;	COMDAT ?Serialize@?$CArray@MM@@UAEXAAVCArchive@@@Z
_TEXT	SEGMENT PARA USE32 PUBLIC 'CODE'
_TEXT	ENDS
;	COMDAT ??1?$CArray@VCPaneBase@ETSLayoutMgr@@V12@@@UAE@XZ
_TEXT	SEGMENT PARA USE32 PUBLIC 'CODE'
_TEXT	ENDS
;	COMDAT ?Serialize@?$CArray@VCPaneBase@ETSLayoutMgr@@V12@@@UAEXAAVCArchive@@@Z
_TEXT	SEGMENT PARA USE32 PUBLIC 'CODE'
_TEXT	ENDS
;	COMDAT ??1?$CMap@V?$CStringT@DV?$StrTraitMFC_DLL@DV?$ChTraitsCRT@D@ATL@@@@@ATL@@PBDVCPaneBase@ETSLayoutMgr@@V34@@@UAE@XZ
_TEXT	SEGMENT PARA USE32 PUBLIC 'CODE'
_TEXT	ENDS
;	COMDAT ?Serialize@?$CMap@V?$CStringT@DV?$StrTraitMFC_DLL@DV?$ChTraitsCRT@D@ATL@@@@@ATL@@PBDVCPaneBase@ETSLayoutMgr@@V34@@@UAEXAAVCArchive@@@Z
_TEXT	SEGMENT PARA USE32 PUBLIC 'CODE'
_TEXT	ENDS
;	COMDAT ??0?$CArray@UElemPos@CMarkup@@AAU12@@@QAE@XZ
_TEXT	SEGMENT PARA USE32 PUBLIC 'CODE'
_TEXT	ENDS
;	COMDAT ??1?$CArray@UElemPos@CMarkup@@AAU12@@@UAE@XZ
_TEXT	SEGMENT PARA USE32 PUBLIC 'CODE'
_TEXT	ENDS
;	COMDAT ?Serialize@?$CArray@UElemPos@CMarkup@@AAU12@@@UAEXAAVCArchive@@@Z
_TEXT	SEGMENT PARA USE32 PUBLIC 'CODE'
_TEXT	ENDS
;	COMDAT ??1?$CMap@PAUHWND__@@PAU1@PAVETSLayoutMgr@@PAV2@@@UAE@XZ
_TEXT	SEGMENT PARA USE32 PUBLIC 'CODE'
_TEXT	ENDS
;	COMDAT ?Serialize@?$CMap@PAUHWND__@@PAU1@PAVETSLayoutMgr@@PAV2@@@UAEXAAVCArchive@@@Z
_TEXT	SEGMENT PARA USE32 PUBLIC 'CODE'
_TEXT	ENDS
;	COMDAT ??$copy@PAKPAK@std@@YAPAKPAK00@Z
_TEXT	SEGMENT PARA USE32 PUBLIC 'CODE'
_TEXT	ENDS
;	COMDAT ??$_Destroy_range@KV?$allocator@K@std@@@std@@YAXPAK0AAV?$allocator@K@0@@Z
_TEXT	SEGMENT PARA USE32 PUBLIC 'CODE'
_TEXT	ENDS
;	COMDAT ??$_Uninitialized_fill_n@PAKIKV?$allocator@K@std@@@std@@YAXPAKIABKAAV?$allocator@K@0@@Z
_TEXT	SEGMENT PARA USE32 PUBLIC 'CODE'
_TEXT	ENDS
;	COMDAT ??$_Maklocstr@D@std@@YAPADPBDPADABU_Cvtvec@@@Z
_TEXT	SEGMENT PARA USE32 PUBLIC 'CODE'
_TEXT	ENDS
;	COMDAT ??$_Ucopy@PAK@?$vector@KV?$allocator@K@std@@@std@@IAEPAKPAK00@Z
_TEXT	SEGMENT PARA USE32 PUBLIC 'CODE'
_TEXT	ENDS
;	COMDAT ??$fill@PAKK@std@@YAXPAK0ABK@Z
_TEXT	SEGMENT PARA USE32 PUBLIC 'CODE'
_TEXT	ENDS
;	COMDAT ??$copy_backward@PAKPAK@std@@YAPAKPAK00@Z
_TEXT	SEGMENT PARA USE32 PUBLIC 'CODE'
_TEXT	ENDS
;	COMDAT ??$_Allocate@K@std@@YAPAKIPAK@Z
_TEXT	SEGMENT PARA USE32 PUBLIC 'CODE'
_TEXT	ENDS
;	COMDAT ??$?0PAVIMessageObserver@@@?$allocator@PAU_Node@?$_List_nod@PAVIMessageObserver@@V?$allocator@PAVIMessageObserver@@@std@@@std@@@std@@QAE@ABV?$allocator@PAVIMessageObserver@@@1@@Z
_TEXT	SEGMENT PARA USE32 PUBLIC 'CODE'
_TEXT	ENDS
;	COMDAT ??$_Allocate@U_Node@?$_List_nod@PAVIMessageObserver@@V?$allocator@PAVIMessageObserver@@@std@@@std@@@std@@YAPAU_Node@?$_List_nod@PAVIMessageObserver@@V?$allocator@PAVIMessageObserver@@@std@@@0@IPAU120@@Z
_TEXT	SEGMENT PARA USE32 PUBLIC 'CODE'
_TEXT	ENDS
;	COMDAT ??$_Construct@PAU_Node@?$_List_nod@PAVIMessageObserver@@V?$allocator@PAVIMessageObserver@@@std@@@std@@PAU123@@std@@YAXPAPAU_Node@?$_List_nod@PAVIMessageObserver@@V?$allocator@PAVIMessageObserver@@@std@@@0@ABQAU120@@Z
_TEXT	SEGMENT PARA USE32 PUBLIC 'CODE'
_TEXT	ENDS
;	COMDAT ??$_Destroy@PAU_Node@?$_List_nod@PAVIMessageObserver@@V?$allocator@PAVIMessageObserver@@@std@@@std@@@std@@YAXPAPAU_Node@?$_List_nod@PAVIMessageObserver@@V?$allocator@PAVIMessageObserver@@@std@@@0@@Z
_TEXT	SEGMENT PARA USE32 PUBLIC 'CODE'
_TEXT	ENDS
;	COMDAT ??$_Allocate@U_Node@?$_Tree_nod@V?$_Tmap_traits@V?$CStringT@DV?$StrTraitMFC_DLL@DV?$ChTraitsCRT@D@ATL@@@@@ATL@@PAVCDibBitmap@@U?$less@V?$CStringT@DV?$StrTraitMFC_DLL@DV?$ChTraitsCRT@D@ATL@@@@@ATL@@@std@@V?$allocator@U?$pair@$$CBV?$CStringT@DV?$StrTraitMFC_DLL@DV?$ChTraitsCRT@D@ATL@@@@@ATL@@PAVCDibBitmap@@@std@@@5@$0A@@std@@@std@@@std@@YAPAU_Node@?$_Tree_nod@V?$_Tmap_traits@V?$CStringT@DV?$StrTraitMFC_DLL@DV?$ChTraitsCRT@D@ATL@@@@@ATL@@PAVCDibBitmap@@U?$less@V?$CStringT@DV?$StrTraitMFC_DLL@DV?$ChTraitsCRT@D@ATL@@@@@ATL@@@std@@V?$allocator@U?$pair@$$CBV?$CStringT@DV?$StrTraitMFC_DLL@DV?$ChTraitsCRT@D@ATL@@@@@ATL@@PAVCDibBitmap@@@std@@@5@$0A@@std@@@0@IPAU120@@Z
_TEXT	SEGMENT PARA USE32 PUBLIC 'CODE'
_TEXT	ENDS
;	COMDAT ??$?0PAVIMessageObserver@@@?$allocator@U_Node@?$_List_nod@PAVIMessageObserver@@V?$allocator@PAVIMessageObserver@@@std@@@std@@@std@@QAE@ABV?$allocator@PAVIMessageObserver@@@1@@Z
_TEXT	SEGMENT PARA USE32 PUBLIC 'CODE'
_TEXT	ENDS
;	COMDAT ??$_Destroy@U_Node@?$_List_nod@PAVIMessageObserver@@V?$allocator@PAVIMessageObserver@@@std@@@std@@@std@@YAXPAU_Node@?$_List_nod@PAVIMessageObserver@@V?$allocator@PAVIMessageObserver@@@std@@@0@@Z
_TEXT	SEGMENT PARA USE32 PUBLIC 'CODE'
_TEXT	ENDS
;	COMDAT ??_G?$CArray@MM@@UAEPAXI@Z
_TEXT	SEGMENT PARA USE32 PUBLIC 'CODE'
_TEXT	ENDS
;	COMDAT ??_G?$CArray@VCPaneBase@ETSLayoutMgr@@V12@@@UAEPAXI@Z
_TEXT	SEGMENT PARA USE32 PUBLIC 'CODE'
_TEXT	ENDS
;	COMDAT ??_GCPaneBase@ETSLayoutMgr@@QAEPAXI@Z
_TEXT	SEGMENT PARA USE32 PUBLIC 'CODE'
_TEXT	ENDS
;	COMDAT ??_G?$CMap@V?$CStringT@DV?$StrTraitMFC_DLL@DV?$ChTraitsCRT@D@ATL@@@@@ATL@@PBDVCPaneBase@ETSLayoutMgr@@V34@@@UAEPAXI@Z
_TEXT	SEGMENT PARA USE32 PUBLIC 'CODE'
_TEXT	ENDS
;	COMDAT ??_G?$CArray@UElemPos@CMarkup@@AAU12@@@UAEPAXI@Z
_TEXT	SEGMENT PARA USE32 PUBLIC 'CODE'
_TEXT	ENDS
;	COMDAT ??_G?$CMap@PAUHWND__@@PAU1@PAVETSLayoutMgr@@PAV2@@@UAEPAXI@Z
_TEXT	SEGMENT PARA USE32 PUBLIC 'CODE'
_TEXT	ENDS
;	COMDAT ?SetSize@?$CArray@MM@@QAEXHH@Z
_TEXT	SEGMENT PARA USE32 PUBLIC 'CODE'
_TEXT	ENDS
;	COMDAT ??$SerializeElements@M@@YGXAAVCArchive@@PAMH@Z
_TEXT	SEGMENT PARA USE32 PUBLIC 'CODE'
_TEXT	ENDS
;	COMDAT ?SetSize@?$CArray@VCPaneBase@ETSLayoutMgr@@V12@@@QAEXHH@Z
_TEXT	SEGMENT PARA USE32 PUBLIC 'CODE'
_TEXT	ENDS
;	COMDAT ??$SerializeElements@VCPaneBase@ETSLayoutMgr@@@@YGXAAVCArchive@@PAVCPaneBase@ETSLayoutMgr@@H@Z
_TEXT	SEGMENT PARA USE32 PUBLIC 'CODE'
_TEXT	ENDS
;	COMDAT ?SetAt@?$CMap@V?$CStringT@DV?$StrTraitMFC_DLL@DV?$ChTraitsCRT@D@ATL@@@@@ATL@@PBDVCPaneBase@ETSLayoutMgr@@V34@@@QAEXPBDVCPaneBase@ETSLayoutMgr@@@Z
_TEXT	SEGMENT PARA USE32 PUBLIC 'CODE'
_TEXT	ENDS
;	COMDAT ?RemoveAll@?$CMap@V?$CStringT@DV?$StrTraitMFC_DLL@DV?$ChTraitsCRT@D@ATL@@@@@ATL@@PBDVCPaneBase@ETSLayoutMgr@@V34@@@QAEXXZ
_TEXT	SEGMENT PARA USE32 PUBLIC 'CODE'
_TEXT	ENDS
;	COMDAT ?SetSize@?$CArray@UElemPos@CMarkup@@AAU12@@@QAEXHH@Z
_TEXT	SEGMENT PARA USE32 PUBLIC 'CODE'
_TEXT	ENDS
;	COMDAT ??$SerializeElements@UElemPos@CMarkup@@@@YGXAAVCArchive@@PAUElemPos@CMarkup@@H@Z
_TEXT	SEGMENT PARA USE32 PUBLIC 'CODE'
_TEXT	ENDS
;	COMDAT ?SetAt@?$CMap@PAUHWND__@@PAU1@PAVETSLayoutMgr@@PAV2@@@QAEXPAUHWND__@@PAVETSLayoutMgr@@@Z
_TEXT	SEGMENT PARA USE32 PUBLIC 'CODE'
_TEXT	ENDS
;	COMDAT ?RemoveAll@?$CMap@PAUHWND__@@PAU1@PAVETSLayoutMgr@@PAV2@@@QAEXXZ
_TEXT	SEGMENT PARA USE32 PUBLIC 'CODE'
_TEXT	ENDS
;	COMDAT ??$SerializeElements@PAUHWND__@@@@YGXAAVCArchive@@PAPAUHWND__@@H@Z
_TEXT	SEGMENT PARA USE32 PUBLIC 'CODE'
_TEXT	ENDS
;	COMDAT ??$SerializeElements@PAVETSLayoutMgr@@@@YGXAAVCArchive@@PAPAVETSLayoutMgr@@H@Z
_TEXT	SEGMENT PARA USE32 PUBLIC 'CODE'
_TEXT	ENDS
;	COMDAT ??$_Copy_opt@PAKPAK@std@@YAPAKPAK00U_Scalar_ptr_iterator_tag@0@@Z
_TEXT	SEGMENT PARA USE32 PUBLIC 'CODE'
_TEXT	ENDS
;	COMDAT ??$_Destroy_range@KV?$allocator@K@std@@@std@@YAXPAK0AAV?$allocator@K@0@U_Scalar_ptr_iterator_tag@0@@Z
_TEXT	SEGMENT PARA USE32 PUBLIC 'CODE'
_TEXT	ENDS
;	COMDAT ??$_Uninit_fill_n@KIK@std@@YAXPAKIABKAAV?$allocator@K@0@U_Scalar_ptr_iterator_tag@0@@Z
_TEXT	SEGMENT PARA USE32 PUBLIC 'CODE'
_TEXT	ENDS
;	COMDAT ??$_Uninitialized_copy@PAKPAKV?$allocator@K@std@@@std@@YAPAKPAK00AAV?$allocator@K@0@@Z
_TEXT	SEGMENT PARA USE32 PUBLIC 'CODE'
_TEXT	ENDS
;	COMDAT ??$_Copy_backward_opt@PAKPAK@std@@YAPAKPAK00U_Scalar_ptr_iterator_tag@0@@Z
_TEXT	SEGMENT PARA USE32 PUBLIC 'CODE'
_TEXT	ENDS
;	COMDAT ??1CAssoc@?$CMap@V?$CStringT@DV?$StrTraitMFC_DLL@DV?$ChTraitsCRT@D@ATL@@@@@ATL@@PBDVCPaneBase@ETSLayoutMgr@@V34@@@QAE@XZ
_TEXT	SEGMENT PARA USE32 PUBLIC 'CODE'
_TEXT	ENDS
;	COMDAT ??1CPair@?$CMap@V?$CStringT@DV?$StrTraitMFC_DLL@DV?$ChTraitsCRT@D@ATL@@@@@ATL@@PBDVCPaneBase@ETSLayoutMgr@@V34@@@QAE@XZ
_TEXT	SEGMENT PARA USE32 PUBLIC 'CODE'
_TEXT	ENDS
;	COMDAT ??A?$CMap@V?$CStringT@DV?$StrTraitMFC_DLL@DV?$ChTraitsCRT@D@ATL@@@@@ATL@@PBDVCPaneBase@ETSLayoutMgr@@V34@@@QAEAAVCPaneBase@ETSLayoutMgr@@PBD@Z
_TEXT	SEGMENT PARA USE32 PUBLIC 'CODE'
_TEXT	ENDS
;	COMDAT ??A?$CMap@PAUHWND__@@PAU1@PAVETSLayoutMgr@@PAV2@@@QAEAAPAVETSLayoutMgr@@PAUHWND__@@@Z
_TEXT	SEGMENT PARA USE32 PUBLIC 'CODE'
_TEXT	ENDS
;	COMDAT ??$fill_n@PAKIK@std@@YAXPAKIABK@Z
_TEXT	SEGMENT PARA USE32 PUBLIC 'CODE'
_TEXT	ENDS
;	COMDAT ??$_Uninit_copy@KK@std@@YAPAKPAK00AAV?$allocator@K@0@U_Scalar_ptr_iterator_tag@0@@Z
_TEXT	SEGMENT PARA USE32 PUBLIC 'CODE'
_TEXT	ENDS
;	COMDAT ?InitHashTable@?$CMap@V?$CStringT@DV?$StrTraitMFC_DLL@DV?$ChTraitsCRT@D@ATL@@@@@ATL@@PBDVCPaneBase@ETSLayoutMgr@@V34@@@QAEXIH@Z
_TEXT	SEGMENT PARA USE32 PUBLIC 'CODE'
_TEXT	ENDS
;	COMDAT ?NewAssoc@?$CMap@V?$CStringT@DV?$StrTraitMFC_DLL@DV?$ChTraitsCRT@D@ATL@@@@@ATL@@PBDVCPaneBase@ETSLayoutMgr@@V34@@@IAEPAVCAssoc@1@PBD@Z
_TEXT	SEGMENT PARA USE32 PUBLIC 'CODE'
_TEXT	ENDS
;	COMDAT ?GetAssocAt@?$CMap@V?$CStringT@DV?$StrTraitMFC_DLL@DV?$ChTraitsCRT@D@ATL@@@@@ATL@@PBDVCPaneBase@ETSLayoutMgr@@V34@@@IBEPAVCAssoc@1@PBDAAI1@Z
_TEXT	SEGMENT PARA USE32 PUBLIC 'CODE'
_TEXT	ENDS
;	COMDAT ?InitHashTable@?$CMap@PAUHWND__@@PAU1@PAVETSLayoutMgr@@PAV2@@@QAEXIH@Z
_TEXT	SEGMENT PARA USE32 PUBLIC 'CODE'
_TEXT	ENDS
;	COMDAT ?NewAssoc@?$CMap@PAUHWND__@@PAU1@PAVETSLayoutMgr@@PAV2@@@IAEPAVCAssoc@1@PAUHWND__@@@Z
_TEXT	SEGMENT PARA USE32 PUBLIC 'CODE'
_TEXT	ENDS
;	COMDAT ?GetAssocAt@?$CMap@PAUHWND__@@PAU1@PAVETSLayoutMgr@@PAV2@@@IBEPAVCAssoc@1@PAUHWND__@@AAI1@Z
_TEXT	SEGMENT PARA USE32 PUBLIC 'CODE'
_TEXT	ENDS
;	COMDAT ??0CAssoc@?$CMap@V?$CStringT@DV?$StrTraitMFC_DLL@DV?$ChTraitsCRT@D@ATL@@@@@ATL@@PBDVCPaneBase@ETSLayoutMgr@@V34@@@QAE@PBD@Z
_TEXT	SEGMENT PARA USE32 PUBLIC 'CODE'
_TEXT	ENDS
;	COMDAT ??0CAssoc@?$CMap@PAUHWND__@@PAU1@PAVETSLayoutMgr@@PAV2@@@QAE@PAUHWND__@@@Z
_TEXT	SEGMENT PARA USE32 PUBLIC 'CODE'
_TEXT	ENDS
;	COMDAT ??0CPair@?$CMap@V?$CStringT@DV?$StrTraitMFC_DLL@DV?$ChTraitsCRT@D@ATL@@@@@ATL@@PBDVCPaneBase@ETSLayoutMgr@@V34@@@IAE@PBD@Z
_TEXT	SEGMENT PARA USE32 PUBLIC 'CODE'
_TEXT	ENDS
;	COMDAT ??0CPair@?$CMap@PAUHWND__@@PAU1@PAVETSLayoutMgr@@PAV2@@@IAE@PAUHWND__@@@Z
_TEXT	SEGMENT PARA USE32 PUBLIC 'CODE'
_TEXT	ENDS
;	COMDAT ??$CompareElements@V?$CStringT@DV?$StrTraitMFC_DLL@DV?$ChTraitsCRT@D@ATL@@@@@ATL@@PBD@@YGHPBV?$CStringT@DV?$StrTraitMFC_DLL@DV?$ChTraitsCRT@D@ATL@@@@@ATL@@PBQBD@Z
_TEXT	SEGMENT PARA USE32 PUBLIC 'CODE'
_TEXT	ENDS
;	COMDAT ??$HashKey@PAUHWND__@@@@YGIPAUHWND__@@@Z
_TEXT	SEGMENT PARA USE32 PUBLIC 'CODE'
_TEXT	ENDS
;	COMDAT ??$CompareElements@PAUHWND__@@PAU1@@@YGHPBQAUHWND__@@0@Z
_TEXT	SEGMENT PARA USE32 PUBLIC 'CODE'
_TEXT	ENDS
;	COMDAT ??_R3IData@@8
rdata$r	SEGMENT DWORD USE32 PUBLIC 'CONST'
rdata$r	ENDS
;	COMDAT ??_R3?$CMap@PAUHWND__@@PAU1@PAVETSLayoutMgr@@PAV2@@@8
rdata$r	SEGMENT DWORD USE32 PUBLIC 'CONST'
rdata$r	ENDS
;	COMDAT ??_R3ETSLayoutMgr@@8
rdata$r	SEGMENT DWORD USE32 PUBLIC 'CONST'
rdata$r	ENDS
;	COMDAT ??_R3CGdiPlusBitmap@CSkinButton@@8
rdata$r	SEGMENT DWORD USE32 PUBLIC 'CONST'
rdata$r	ENDS
;	COMDAT ??_R3DIBINFO@@8
rdata$r	SEGMENT DWORD USE32 PUBLIC 'CONST'
rdata$r	ENDS
;	COMDAT ??_R3CMarkupArchive@@8
rdata$r	SEGMENT DWORD USE32 PUBLIC 'CONST'
rdata$r	ENDS
;	COMDAT ??_R3P2PObserver@@8
rdata$r	SEGMENT DWORD USE32 PUBLIC 'CONST'
rdata$r	ENDS
;	COMDAT ??_R3?$CMap@V?$CStringT@DV?$StrTraitMFC_DLL@DV?$ChTraitsCRT@D@ATL@@@@@ATL@@PBDVCPaneBase@ETSLayoutMgr@@V34@@@8
rdata$r	SEGMENT DWORD USE32 PUBLIC 'CONST'
rdata$r	ENDS
;	COMDAT ??_R3?$CArray@UElemPos@CMarkup@@AAU12@@@8
rdata$r	SEGMENT DWORD USE32 PUBLIC 'CONST'
rdata$r	ENDS
;	COMDAT ??_R3HTTPObserver@@8
rdata$r	SEGMENT DWORD USE32 PUBLIC 'CONST'
rdata$r	ENDS
;	COMDAT ??_R3?$CArray@VCPaneBase@ETSLayoutMgr@@V12@@@8
rdata$r	SEGMENT DWORD USE32 PUBLIC 'CONST'
rdata$r	ENDS
;	COMDAT ??_R3CMarkup@@8
rdata$r	SEGMENT DWORD USE32 PUBLIC 'CONST'
rdata$r	ENDS
;	COMDAT ??_R3?$CArray@MM@@8
rdata$r	SEGMENT DWORD USE32 PUBLIC 'CONST'
rdata$r	ENDS
;	COMDAT ??_R3CGdiPlusBitmap@@8
rdata$r	SEGMENT DWORD USE32 PUBLIC 'CONST'
rdata$r	ENDS
;	COMDAT ??_R3CUIManager@@8
rdata$r	SEGMENT DWORD USE32 PUBLIC 'CONST'
rdata$r	ENDS
;	COMDAT ??_R3PaneBase@ETSLayoutMgr@@8
rdata$r	SEGMENT DWORD USE32 PUBLIC 'CONST'
rdata$r	ENDS
;	COMDAT ??_R3?$numpunct@_W@std@@8
rdata$r	SEGMENT DWORD USE32 PUBLIC 'CONST'
rdata$r	ENDS
;	COMDAT ??_R3?$numpunct@D@std@@8
rdata$r	SEGMENT DWORD USE32 PUBLIC 'CONST'
rdata$r	ENDS
;	COMDAT ??_R2IData@@8
rdata$r	SEGMENT DWORD USE32 PUBLIC 'CONST'
rdata$r	ENDS
;	COMDAT ??_R2?$CMap@PAUHWND__@@PAU1@PAVETSLayoutMgr@@PAV2@@@8
rdata$r	SEGMENT DWORD USE32 PUBLIC 'CONST'
rdata$r	ENDS
;	COMDAT ??_R2ETSLayoutMgr@@8
rdata$r	SEGMENT DWORD USE32 PUBLIC 'CONST'
rdata$r	ENDS
;	COMDAT ??_R2CGdiPlusBitmap@CSkinButton@@8
rdata$r	SEGMENT DWORD USE32 PUBLIC 'CONST'
rdata$r	ENDS
;	COMDAT ??_R2DIBINFO@@8
rdata$r	SEGMENT DWORD USE32 PUBLIC 'CONST'
rdata$r	ENDS
;	COMDAT ??_R2CMarkupArchive@@8
rdata$r	SEGMENT DWORD USE32 PUBLIC 'CONST'
rdata$r	ENDS
;	COMDAT ??_R2P2PObserver@@8
rdata$r	SEGMENT DWORD USE32 PUBLIC 'CONST'
rdata$r	ENDS
;	COMDAT ??_R2?$CMap@V?$CStringT@DV?$StrTraitMFC_DLL@DV?$ChTraitsCRT@D@ATL@@@@@ATL@@PBDVCPaneBase@ETSLayoutMgr@@V34@@@8
rdata$r	SEGMENT DWORD USE32 PUBLIC 'CONST'
rdata$r	ENDS
;	COMDAT ??_R2?$CArray@UElemPos@CMarkup@@AAU12@@@8
rdata$r	SEGMENT DWORD USE32 PUBLIC 'CONST'
rdata$r	ENDS
;	COMDAT ??_R2HTTPObserver@@8
rdata$r	SEGMENT DWORD USE32 PUBLIC 'CONST'
rdata$r	ENDS
;	COMDAT ??_R2?$CArray@VCPaneBase@ETSLayoutMgr@@V12@@@8
rdata$r	SEGMENT DWORD USE32 PUBLIC 'CONST'
rdata$r	ENDS
;	COMDAT ??_R2CMarkup@@8
rdata$r	SEGMENT DWORD USE32 PUBLIC 'CONST'
rdata$r	ENDS
;	COMDAT ??_R2?$CArray@MM@@8
rdata$r	SEGMENT DWORD USE32 PUBLIC 'CONST'
rdata$r	ENDS
;	COMDAT ??_R2CGdiPlusBitmap@@8
rdata$r	SEGMENT DWORD USE32 PUBLIC 'CONST'
rdata$r	ENDS
;	COMDAT ??_R2CUIManager@@8
rdata$r	SEGMENT DWORD USE32 PUBLIC 'CONST'
rdata$r	ENDS
;	COMDAT ??_R2PaneBase@ETSLayoutMgr@@8
rdata$r	SEGMENT DWORD USE32 PUBLIC 'CONST'
rdata$r	ENDS
;	COMDAT ??_R2?$numpunct@_W@std@@8
rdata$r	SEGMENT DWORD USE32 PUBLIC 'CONST'
rdata$r	ENDS
;	COMDAT ??_R2?$numpunct@D@std@@8
rdata$r	SEGMENT DWORD USE32 PUBLIC 'CONST'
rdata$r	ENDS
;	COMDAT ??_R1A@?0A@A@IData@@8
rdata$r	SEGMENT DWORD USE32 PUBLIC 'CONST'
rdata$r	ENDS
;	COMDAT ??_R1A@?0A@A@?$CMap@PAUHWND__@@PAU1@PAVETSLayoutMgr@@PAV2@@@8
rdata$r	SEGMENT DWORD USE32 PUBLIC 'CONST'
rdata$r	ENDS
;	COMDAT ??_R1A@?0A@A@ETSLayoutMgr@@8
rdata$r	SEGMENT DWORD USE32 PUBLIC 'CONST'
rdata$r	ENDS
;	COMDAT ??_R1A@?0A@A@CGdiPlusBitmap@CSkinButton@@8
rdata$r	SEGMENT DWORD USE32 PUBLIC 'CONST'
rdata$r	ENDS
;	COMDAT ??_R1A@?0A@A@DIBINFO@@8
rdata$r	SEGMENT DWORD USE32 PUBLIC 'CONST'
rdata$r	ENDS
;	COMDAT ??_R1A@?0A@A@CMarkupArchive@@8
rdata$r	SEGMENT DWORD USE32 PUBLIC 'CONST'
rdata$r	ENDS
;	COMDAT ??_R1A@?0A@A@P2PObserver@@8
rdata$r	SEGMENT DWORD USE32 PUBLIC 'CONST'
rdata$r	ENDS
;	COMDAT ??_R1A@?0A@A@?$CMap@V?$CStringT@DV?$StrTraitMFC_DLL@DV?$ChTraitsCRT@D@ATL@@@@@ATL@@PBDVCPaneBase@ETSLayoutMgr@@V34@@@8
rdata$r	SEGMENT DWORD USE32 PUBLIC 'CONST'
rdata$r	ENDS
;	COMDAT ??_R1A@?0A@A@?$CArray@UElemPos@CMarkup@@AAU12@@@8
rdata$r	SEGMENT DWORD USE32 PUBLIC 'CONST'
rdata$r	ENDS
;	COMDAT ??_R1A@?0A@A@HTTPObserver@@8
rdata$r	SEGMENT DWORD USE32 PUBLIC 'CONST'
rdata$r	ENDS
;	COMDAT ??_R1A@?0A@A@?$CArray@VCPaneBase@ETSLayoutMgr@@V12@@@8
rdata$r	SEGMENT DWORD USE32 PUBLIC 'CONST'
rdata$r	ENDS
;	COMDAT ??_R1A@?0A@A@CMarkup@@8
rdata$r	SEGMENT DWORD USE32 PUBLIC 'CONST'
rdata$r	ENDS
;	COMDAT ??_R1A@?0A@A@CObject@@8
rdata$r	SEGMENT DWORD USE32 PUBLIC 'CONST'
rdata$r	ENDS
;	COMDAT ??_R0?AVCObject@@@8
_DATA	SEGMENT DWORD USE32 PUBLIC 'DATA'
_DATA	ENDS
;	COMDAT ??_R1A@?0A@A@?$CArray@MM@@8
rdata$r	SEGMENT DWORD USE32 PUBLIC 'CONST'
rdata$r	ENDS
;	COMDAT ??_R1A@?0A@A@CGdiPlusBitmap@@8
rdata$r	SEGMENT DWORD USE32 PUBLIC 'CONST'
rdata$r	ENDS
;	COMDAT ??_R1A@?0A@A@IUIManager@@8
rdata$r	SEGMENT DWORD USE32 PUBLIC 'CONST'
rdata$r	ENDS
;	COMDAT ??_R0?AVIUIManager@@@8
_DATA	SEGMENT DWORD USE32 PUBLIC 'DATA'
_DATA	ENDS
;	COMDAT ??_R1A@?0A@A@CUIManager@@8
rdata$r	SEGMENT DWORD USE32 PUBLIC 'CONST'
rdata$r	ENDS
;	COMDAT ??_R1A@?0A@A@PaneBase@ETSLayoutMgr@@8
rdata$r	SEGMENT DWORD USE32 PUBLIC 'CONST'
rdata$r	ENDS
;	COMDAT ??_R1A@?0A@A@?$numpunct@_W@std@@8
rdata$r	SEGMENT DWORD USE32 PUBLIC 'CONST'
rdata$r	ENDS
;	COMDAT ??_R1A@?0A@A@facet@locale@std@@8
rdata$r	SEGMENT DWORD USE32 PUBLIC 'CONST'
rdata$r	ENDS
;	COMDAT ??_R0?AVfacet@locale@std@@@8
_DATA	SEGMENT DWORD USE32 PUBLIC 'DATA'
_DATA	ENDS
;	COMDAT ??_R1A@?0A@A@?$numpunct@D@std@@8
rdata$r	SEGMENT DWORD USE32 PUBLIC 'CONST'
rdata$r	ENDS
;	COMDAT ??_R0?AVIData@@@8
_DATA	SEGMENT DWORD USE32 PUBLIC 'DATA'
_DATA	ENDS
;	COMDAT ??_R0?AV?$CMap@PAUHWND__@@PAU1@PAVETSLayoutMgr@@PAV2@@@@8
_DATA	SEGMENT DWORD USE32 PUBLIC 'DATA'
_DATA	ENDS
;	COMDAT ??_R0?AVETSLayoutMgr@@@8
_DATA	SEGMENT DWORD USE32 PUBLIC 'DATA'
_DATA	ENDS
;	COMDAT ??_R0?AVCGdiPlusBitmap@CSkinButton@@@8
_DATA	SEGMENT DWORD USE32 PUBLIC 'DATA'
_DATA	ENDS
;	COMDAT ??_R0?AVDIBINFO@@@8
_DATA	SEGMENT DWORD USE32 PUBLIC 'DATA'
_DATA	ENDS
;	COMDAT ??_R0?AVCMarkupArchive@@@8
_DATA	SEGMENT DWORD USE32 PUBLIC 'DATA'
_DATA	ENDS
;	COMDAT ??_R0?AVP2PObserver@@@8
_DATA	SEGMENT DWORD USE32 PUBLIC 'DATA'
_DATA	ENDS
;	COMDAT ??_R0?AV?$CMap@V?$CStringT@DV?$StrTraitMFC_DLL@DV?$ChTraitsCRT@D@ATL@@@@@ATL@@PBDVCPaneBase@ETSLayoutMgr@@V34@@@@8
_DATA	SEGMENT DWORD USE32 PUBLIC 'DATA'
_DATA	ENDS
;	COMDAT ??_R0?AV?$CArray@UElemPos@CMarkup@@AAU12@@@@8
_DATA	SEGMENT DWORD USE32 PUBLIC 'DATA'
_DATA	ENDS
;	COMDAT ??_R0?AVHTTPObserver@@@8
_DATA	SEGMENT DWORD USE32 PUBLIC 'DATA'
_DATA	ENDS
;	COMDAT ??_R0?AV?$CArray@VCPaneBase@ETSLayoutMgr@@V12@@@@8
_DATA	SEGMENT DWORD USE32 PUBLIC 'DATA'
_DATA	ENDS
;	COMDAT ??_R0?AVCMarkup@@@8
_DATA	SEGMENT DWORD USE32 PUBLIC 'DATA'
_DATA	ENDS
;	COMDAT ??_R0?AV?$CArray@MM@@@8
_DATA	SEGMENT DWORD USE32 PUBLIC 'DATA'
_DATA	ENDS
;	COMDAT ??_R0?AVCGdiPlusBitmap@@@8
_DATA	SEGMENT DWORD USE32 PUBLIC 'DATA'
_DATA	ENDS
;	COMDAT ??_R0?AVCUIManager@@@8
_DATA	SEGMENT DWORD USE32 PUBLIC 'DATA'
_DATA	ENDS
;	COMDAT ??_R0?AVPaneBase@ETSLayoutMgr@@@8
_DATA	SEGMENT DWORD USE32 PUBLIC 'DATA'
_DATA	ENDS
;	COMDAT ??_R0?AV?$numpunct@_W@std@@@8
_DATA	SEGMENT DWORD USE32 PUBLIC 'DATA'
_DATA	ENDS
;	COMDAT ??_R0?AV?$numpunct@D@std@@@8
_DATA	SEGMENT DWORD USE32 PUBLIC 'DATA'
_DATA	ENDS
;	COMDAT ??_R4IData@@6B@
rdata$r	SEGMENT DWORD USE32 PUBLIC 'CONST'
rdata$r	ENDS
;	COMDAT ??_R4?$CMap@PAUHWND__@@PAU1@PAVETSLayoutMgr@@PAV2@@@6B@
rdata$r	SEGMENT DWORD USE32 PUBLIC 'CONST'
rdata$r	ENDS
;	COMDAT ??_R4ETSLayoutMgr@@6B@
rdata$r	SEGMENT DWORD USE32 PUBLIC 'CONST'
rdata$r	ENDS
;	COMDAT ??_R4CGdiPlusBitmap@CSkinButton@@6B@
rdata$r	SEGMENT DWORD USE32 PUBLIC 'CONST'
rdata$r	ENDS
;	COMDAT ??_R4DIBINFO@@6B@
rdata$r	SEGMENT DWORD USE32 PUBLIC 'CONST'
rdata$r	ENDS
;	COMDAT ??_R4CMarkupArchive@@6B@
rdata$r	SEGMENT DWORD USE32 PUBLIC 'CONST'
rdata$r	ENDS
;	COMDAT ??_R4P2PObserver@@6B@
rdata$r	SEGMENT DWORD USE32 PUBLIC 'CONST'
rdata$r	ENDS
;	COMDAT ??_R4?$CMap@V?$CStringT@DV?$StrTraitMFC_DLL@DV?$ChTraitsCRT@D@ATL@@@@@ATL@@PBDVCPaneBase@ETSLayoutMgr@@V34@@@6B@
rdata$r	SEGMENT DWORD USE32 PUBLIC 'CONST'
rdata$r	ENDS
;	COMDAT ??_R4?$CArray@UElemPos@CMarkup@@AAU12@@@6B@
rdata$r	SEGMENT DWORD USE32 PUBLIC 'CONST'
rdata$r	ENDS
;	COMDAT ??_R4HTTPObserver@@6B@
rdata$r	SEGMENT DWORD USE32 PUBLIC 'CONST'
rdata$r	ENDS
;	COMDAT ??_R4?$CArray@VCPaneBase@ETSLayoutMgr@@V12@@@6B@
rdata$r	SEGMENT DWORD USE32 PUBLIC 'CONST'
rdata$r	ENDS
;	COMDAT ??_R4CMarkup@@6B@
rdata$r	SEGMENT DWORD USE32 PUBLIC 'CONST'
rdata$r	ENDS
;	COMDAT ?Dump@CObject@@UBEXAAVCDumpContext@@@Z
_TEXT	SEGMENT PARA USE32 PUBLIC 'CODE'
_TEXT	ENDS
;	COMDAT ?AssertValid@CObject@@UBEXXZ
_TEXT	SEGMENT PARA USE32 PUBLIC 'CODE'
_TEXT	ENDS
;	COMDAT ??_R4?$CArray@MM@@6B@
rdata$r	SEGMENT DWORD USE32 PUBLIC 'CONST'
rdata$r	ENDS
;	COMDAT ??_R4CGdiPlusBitmap@@6B@
rdata$r	SEGMENT DWORD USE32 PUBLIC 'CONST'
rdata$r	ENDS
;	COMDAT ??_R4CUIManager@@6B@
rdata$r	SEGMENT DWORD USE32 PUBLIC 'CONST'
rdata$r	ENDS
;	COMDAT ??_R4PaneBase@ETSLayoutMgr@@6B@
rdata$r	SEGMENT DWORD USE32 PUBLIC 'CONST'
rdata$r	ENDS
;	COMDAT ??0?$allocator@_W@std@@QAE@XZ
_TEXT	SEGMENT PARA USE32 PUBLIC 'CODE'
_TEXT	ENDS
;	COMDAT ??_G?$numpunct@_W@std@@MAEPAXI@Z
_TEXT	SEGMENT PARA USE32 PUBLIC 'CODE'
_TEXT	ENDS
;	COMDAT ??_R4?$numpunct@_W@std@@6B@
rdata$r	SEGMENT DWORD USE32 PUBLIC 'CONST'
rdata$r	ENDS
;	COMDAT ??_G?$numpunct@D@std@@MAEPAXI@Z
_TEXT	SEGMENT PARA USE32 PUBLIC 'CODE'
_TEXT	ENDS
;	COMDAT ??_R4?$numpunct@D@std@@6B@
rdata$r	SEGMENT DWORD USE32 PUBLIC 'CONST'
rdata$r	ENDS
;	COMDAT ?data@CPlex@@QAEPAXXZ
text$AFX_COL1	SEGMENT PARA USE32 PUBLIC ''
text$AFX_COL1	ENDS
;	COMDAT ?_Ptr_cat@std@@YA?AU_Scalar_ptr_iterator_tag@1@PAK0@Z
_TEXT	SEGMENT PARA USE32 PUBLIC 'CODE'
_TEXT	ENDS
;	COMDAT ??_7?$CMap@PAUHWND__@@PAU1@PAVETSLayoutMgr@@PAV2@@@6B@
CONST	SEGMENT DWORD USE32 PUBLIC 'CONST'
CONST	ENDS
;	COMDAT ??_7?$CArray@UElemPos@CMarkup@@AAU12@@@6B@
CONST	SEGMENT DWORD USE32 PUBLIC 'CONST'
CONST	ENDS
;	COMDAT ??_7?$CMap@V?$CStringT@DV?$StrTraitMFC_DLL@DV?$ChTraitsCRT@D@ATL@@@@@ATL@@PBDVCPaneBase@ETSLayoutMgr@@V34@@@6B@
CONST	SEGMENT DWORD USE32 PUBLIC 'CONST'
CONST	ENDS
;	COMDAT ??_7?$CArray@VCPaneBase@ETSLayoutMgr@@V12@@@6B@
CONST	SEGMENT DWORD USE32 PUBLIC 'CONST'
CONST	ENDS
;	COMDAT ?IsStoring@CArchive@@QBEHXZ
_TEXT	SEGMENT PARA USE32 PUBLIC 'CODE'
_TEXT	ENDS
;	COMDAT ?Serialize@CObject@@UAEXAAVCArchive@@@Z
_TEXT	SEGMENT PARA USE32 PUBLIC 'CODE'
_TEXT	ENDS
;	COMDAT ??_7?$CArray@MM@@6B@
CONST	SEGMENT DWORD USE32 PUBLIC 'CONST'
CONST	ENDS
;	COMDAT ??1CObject@@UAE@XZ
_TEXT	SEGMENT PARA USE32 PUBLIC 'CODE'
_TEXT	ENDS
;	COMDAT ??0CObject@@IAE@XZ
_TEXT	SEGMENT PARA USE32 PUBLIC 'CODE'
_TEXT	ENDS
;	COMDAT ?_Psave@?$_Facetptr@V?$numpunct@_W@std@@@std@@2PBVfacet@locale@2@B
_DATA	SEGMENT DWORD USE32 PUBLIC 'DATA'
_DATA	ENDS
;	COMDAT ?_Psave@?$_Facetptr@V?$numpunct@D@std@@@std@@2PBVfacet@locale@2@B
_DATA	SEGMENT DWORD USE32 PUBLIC 'DATA'
_DATA	ENDS
;	COMDAT ?Unlock@CComCriticalSection@ATL@@QAEJXZ
_TEXT	SEGMENT PARA USE32 PUBLIC 'CODE'
_TEXT	ENDS
;	COMDAT ?_Psave@?$_Facetptr@V?$ctype@_W@std@@@std@@2PBVfacet@locale@2@B
_DATA	SEGMENT DWORD USE32 PUBLIC 'DATA'
_DATA	ENDS
;	COMDAT ?_Psave@?$_Facetptr@V?$ctype@D@std@@@std@@2PBVfacet@locale@2@B
_DATA	SEGMENT DWORD USE32 PUBLIC 'DATA'
_DATA	ENDS
;	COMDAT ??3@YAXPAX0@Z
_TEXT	SEGMENT PARA USE32 PUBLIC 'CODE'
_TEXT	ENDS
;	COMDAT ??2@YAPAXIPAX@Z
_TEXT	SEGMENT PARA USE32 PUBLIC 'CODE'
_TEXT	ENDS
;	COMDAT ??$_Maklocchr@_W@std@@YA_WDPA_WABU_Cvtvec@@@Z
_TEXT	SEGMENT PARA USE32 PUBLIC 'CODE'
_TEXT	ENDS
;	COMDAT ??$_Maklocstr@_W@std@@YAPA_WPBDPA_WABU_Cvtvec@@@Z
_TEXT	SEGMENT PARA USE32 PUBLIC 'CODE'
_TEXT	ENDS
;	COMDAT ??$_Maklocchr@D@std@@YADDPADABU_Cvtvec@@@Z
_TEXT	SEGMENT PARA USE32 PUBLIC 'CODE'
_TEXT	ENDS
;	COMDAT ??_C@_04LOAJBDKD@true?$AA@
CONST	SEGMENT DWORD USE32 PUBLIC 'CONST'
CONST	ENDS
;	COMDAT ??_C@_05LAPONLG@false?$AA@
CONST	SEGMENT DWORD USE32 PUBLIC 'CONST'
CONST	ENDS
;	COMDAT _wmemcpy
_TEXT	SEGMENT PARA USE32 PUBLIC 'CODE'
_TEXT	ENDS
;	COMDAT ?max_size@?$allocator@_W@std@@QBEIXZ
_TEXT	SEGMENT PARA USE32 PUBLIC 'CODE'
_TEXT	ENDS
;	COMDAT ?allocate@?$allocator@_W@std@@QAEPA_WI@Z
_TEXT	SEGMENT PARA USE32 PUBLIC 'CODE'
_TEXT	ENDS
;	COMDAT ??$_Allocate@_W@std@@YAPA_WIPA_W@Z
_TEXT	SEGMENT PARA USE32 PUBLIC 'CODE'
_TEXT	ENDS
;	COMDAT ?data@CStringData@ATL@@QAEPAXXZ
_TEXT	SEGMENT PARA USE32 PUBLIC 'CODE'
_TEXT	ENDS
;	COMDAT ?AtlThrow@ATL@@YGXJ@Z
_TEXT	SEGMENT PARA USE32 PUBLIC 'CODE'
_TEXT	ENDS
;	COMDAT ??_7length_error@std@@6B@
CONST	SEGMENT DWORD USE32 PUBLIC 'CONST'
CONST	ENDS
;	COMDAT ??_R4length_error@std@@6B@
rdata$r	SEGMENT DWORD USE32 PUBLIC 'CONST'
rdata$r	ENDS
;	COMDAT ??_R3length_error@std@@8
rdata$r	SEGMENT DWORD USE32 PUBLIC 'CONST'
rdata$r	ENDS
;	COMDAT ??_R2length_error@std@@8
rdata$r	SEGMENT DWORD USE32 PUBLIC 'CONST'
rdata$r	ENDS
;	COMDAT ??_R1A@?0A@A@length_error@std@@8
rdata$r	SEGMENT DWORD USE32 PUBLIC 'CONST'
rdata$r	ENDS
;	COMDAT ??_R1A@?0A@A@logic_error@std@@8
rdata$r	SEGMENT DWORD USE32 PUBLIC 'CONST'
rdata$r	ENDS
;	COMDAT ??_R0?AVlogic_error@std@@@8
_DATA	SEGMENT DWORD USE32 PUBLIC 'DATA'
_DATA	ENDS
;	COMDAT ??_R1A@?0A@A@exception@@8
rdata$r	SEGMENT DWORD USE32 PUBLIC 'CONST'
rdata$r	ENDS
;	COMDAT ??_R0?AVexception@@@8
_DATA	SEGMENT DWORD USE32 PUBLIC 'DATA'
_DATA	ENDS
;	COMDAT ??_Glength_error@std@@UAEPAXI@Z
_TEXT	SEGMENT PARA USE32 PUBLIC 'CODE'
_TEXT	ENDS
;	COMDAT ?what@logic_error@std@@UBEPBDXZ
_TEXT	SEGMENT PARA USE32 PUBLIC 'CODE'
_TEXT	ENDS
;	COMDAT ??1logic_error@std@@UAE@XZ
_TEXT	SEGMENT PARA USE32 PUBLIC 'CODE'
_TEXT	ENDS
;	COMDAT ??_7logic_error@std@@6B@
CONST	SEGMENT DWORD USE32 PUBLIC 'CONST'
CONST	ENDS
;	COMDAT ??_R4logic_error@std@@6B@
rdata$r	SEGMENT DWORD USE32 PUBLIC 'CONST'
rdata$r	ENDS
;	COMDAT ??_R3logic_error@std@@8
rdata$r	SEGMENT DWORD USE32 PUBLIC 'CONST'
rdata$r	ENDS
;	COMDAT ??_R2logic_error@std@@8
rdata$r	SEGMENT DWORD USE32 PUBLIC 'CONST'
rdata$r	ENDS
;	COMDAT ??_Glogic_error@std@@UAEPAXI@Z
_TEXT	SEGMENT PARA USE32 PUBLIC 'CODE'
_TEXT	ENDS
;	COMDAT ??0logic_error@std@@QAE@ABV01@@Z
_TEXT	SEGMENT PARA USE32 PUBLIC 'CODE'
_TEXT	ENDS
;	COMDAT __CTA3?AVlength_error@std@@
xdata$x	SEGMENT DWORD USE32 PUBLIC 'CONST'
xdata$x	ENDS
;	COMDAT ??1length_error@std@@UAE@XZ
_TEXT	SEGMENT PARA USE32 PUBLIC 'CODE'
_TEXT	ENDS
;	COMDAT __CT??_R0?AVexception@@@8??0exception@@QAE@ABV0@@Z12
xdata$x	SEGMENT DWORD USE32 PUBLIC 'CONST'
xdata$x	ENDS
;	COMDAT __CT??_R0?AVlogic_error@std@@@8??0logic_error@std@@QAE@ABV01@@Z40
xdata$x	SEGMENT DWORD USE32 PUBLIC 'CONST'
xdata$x	ENDS
;	COMDAT __CT??_R0?AVlength_error@std@@@8??0length_error@std@@QAE@ABV01@@Z40
xdata$x	SEGMENT DWORD USE32 PUBLIC 'CONST'
xdata$x	ENDS
;	COMDAT ??_R0?AVlength_error@std@@@8
_DATA	SEGMENT DWORD USE32 PUBLIC 'DATA'
_DATA	ENDS
;	COMDAT __TI3?AVlength_error@std@@
xdata$x	SEGMENT DWORD USE32 PUBLIC 'CONST'
xdata$x	ENDS
;	COMDAT ??0length_error@std@@QAE@ABV?$basic_string@DU?$char_traits@D@std@@V?$allocator@D@2@@1@@Z
_TEXT	SEGMENT PARA USE32 PUBLIC 'CODE'
_TEXT	ENDS
;	COMDAT ??0logic_error@std@@QAE@ABV?$basic_string@DU?$char_traits@D@std@@V?$allocator@D@2@@1@@Z
_TEXT	SEGMENT PARA USE32 PUBLIC 'CODE'
_TEXT	ENDS
;	COMDAT ??_C@_01GFHCPBMG@C?$AA@
CONST	SEGMENT DWORD USE32 PUBLIC 'CONST'
CONST	ENDS
;	COMDAT ?max_size@?$allocator@D@std@@QBEIXZ
_TEXT	SEGMENT PARA USE32 PUBLIC 'CODE'
_TEXT	ENDS
;	COMDAT ?allocate@?$allocator@D@std@@QAEPADI@Z
_TEXT	SEGMENT PARA USE32 PUBLIC 'CODE'
_TEXT	ENDS
;	COMDAT ??$_Allocate@D@std@@YAPADIPAD@Z
_TEXT	SEGMENT PARA USE32 PUBLIC 'CODE'
_TEXT	ENDS
;	COMDAT ?deallocate@?$allocator@D@std@@QAEXPADI@Z
_TEXT	SEGMENT PARA USE32 PUBLIC 'CODE'
_TEXT	ENDS
;	COMDAT ?Release@CStringData@ATL@@QAEXXZ
_TEXT	SEGMENT PARA USE32 PUBLIC 'CODE'
_TEXT	ENDS
;	COMDAT ?IsShared@CStringData@ATL@@QBE_NXZ
_TEXT	SEGMENT PARA USE32 PUBLIC 'CODE'
_TEXT	ENDS
;	COMDAT ?_Peek@?$istreambuf_iterator@_WU?$char_traits@_W@std@@@std@@AAE_WXZ
_TEXT	SEGMENT PARA USE32 PUBLIC 'CODE'
_TEXT	ENDS
;	COMDAT ?_Peek@?$istreambuf_iterator@DU?$char_traits@D@std@@@std@@AAEDXZ
_TEXT	SEGMENT PARA USE32 PUBLIC 'CODE'
_TEXT	ENDS
;	COMDAT ??$use_facet@V?$ctype@_W@std@@@std@@YAABV?$ctype@_W@0@ABVlocale@0@@Z
_TEXT	SEGMENT PARA USE32 PUBLIC 'CODE'
_TEXT	ENDS
;	COMDAT ??_S?$ctype@_W@std@@6B@
CONST	SEGMENT DWORD USE32 PUBLIC 'CONST'
CONST	ENDS
;	COMDAT ??_R4?$ctype@_W@std@@6B@
rdata$r	SEGMENT DWORD USE32 PUBLIC 'CONST'
rdata$r	ENDS
;	COMDAT ??_R0?AV?$ctype@_W@std@@@8
_DATA	SEGMENT DWORD USE32 PUBLIC 'DATA'
_DATA	ENDS
;	COMDAT ??_R3?$ctype@_W@std@@8
rdata$r	SEGMENT DWORD USE32 PUBLIC 'CONST'
rdata$r	ENDS
;	COMDAT ??_R2?$ctype@_W@std@@8
rdata$r	SEGMENT DWORD USE32 PUBLIC 'CONST'
rdata$r	ENDS
;	COMDAT ??_R1A@?0A@A@?$ctype@_W@std@@8
rdata$r	SEGMENT DWORD USE32 PUBLIC 'CONST'
rdata$r	ENDS
;	COMDAT ??_R1A@?0A@A@ctype_base@std@@8
rdata$r	SEGMENT DWORD USE32 PUBLIC 'CONST'
rdata$r	ENDS
;	COMDAT ??_R0?AUctype_base@std@@@8
_DATA	SEGMENT DWORD USE32 PUBLIC 'DATA'
_DATA	ENDS
;	COMDAT ??_G?$ctype@_W@std@@MAEPAXI@Z
_TEXT	SEGMENT PARA USE32 PUBLIC 'CODE'
_TEXT	ENDS
;	COMDAT ??_C@_08EPJLHIJG@bad?5cast?$AA@
CONST	SEGMENT DWORD USE32 PUBLIC 'CONST'
CONST	ENDS
;	COMDAT __TI2?AVbad_cast@@
xdata$x	SEGMENT DWORD USE32 PUBLIC 'CONST'
xdata$x	ENDS
;	COMDAT __CTA2?AVbad_cast@@
xdata$x	SEGMENT DWORD USE32 PUBLIC 'CONST'
xdata$x	ENDS
;	COMDAT __CT??_R0?AVbad_cast@@@8??0bad_cast@@QAE@ABV0@@Z12
xdata$x	SEGMENT DWORD USE32 PUBLIC 'CONST'
xdata$x	ENDS
;	COMDAT ??_R0?AVbad_cast@@@8
_DATA	SEGMENT DWORD USE32 PUBLIC 'DATA'
_DATA	ENDS
;	COMDAT ??$use_facet@V?$ctype@D@std@@@std@@YAABV?$ctype@D@0@ABVlocale@0@@Z
_TEXT	SEGMENT PARA USE32 PUBLIC 'CODE'
_TEXT	ENDS
;	COMDAT ??_S?$ctype@D@std@@6B@
CONST	SEGMENT DWORD USE32 PUBLIC 'CONST'
CONST	ENDS
;	COMDAT ??_R4?$ctype@D@std@@6B@
rdata$r	SEGMENT DWORD USE32 PUBLIC 'CONST'
rdata$r	ENDS
;	COMDAT ??_R0?AV?$ctype@D@std@@@8
_DATA	SEGMENT DWORD USE32 PUBLIC 'DATA'
_DATA	ENDS
;	COMDAT ??_R3?$ctype@D@std@@8
rdata$r	SEGMENT DWORD USE32 PUBLIC 'CONST'
rdata$r	ENDS
;	COMDAT ??_R2?$ctype@D@std@@8
rdata$r	SEGMENT DWORD USE32 PUBLIC 'CONST'
rdata$r	ENDS
;	COMDAT ??_R1A@?0A@A@?$ctype@D@std@@8
rdata$r	SEGMENT DWORD USE32 PUBLIC 'CONST'
rdata$r	ENDS
;	COMDAT ??_G?$ctype@D@std@@MAEPAXI@Z
_TEXT	SEGMENT PARA USE32 PUBLIC 'CODE'
_TEXT	ENDS
;	COMDAT ??_S?$numpunct@_W@std@@6B@
CONST	SEGMENT DWORD USE32 PUBLIC 'CONST'
CONST	ENDS
;	COMDAT ??_S?$numpunct@D@std@@6B@
CONST	SEGMENT DWORD USE32 PUBLIC 'CONST'
CONST	ENDS
;	COMDAT _wmemmove
_TEXT	SEGMENT PARA USE32 PUBLIC 'CODE'
_TEXT	ENDS
;	COMDAT ?deallocate@?$allocator@_W@std@@QAEXPA_WI@Z
_TEXT	SEGMENT PARA USE32 PUBLIC 'CODE'
_TEXT	ENDS
;	COMDAT ??0?$allocator@_W@std@@QAE@ABV01@@Z
_TEXT	SEGMENT PARA USE32 PUBLIC 'CODE'
_TEXT	ENDS
;	COMDAT ??_R0?AVIMessageObserver@@@8
_DATA	SEGMENT DWORD USE32 PUBLIC 'DATA'
_DATA	ENDS
;	COMDAT ??_R0?AVIAppExitObserver@@@8
_DATA	SEGMENT DWORD USE32 PUBLIC 'DATA'
_DATA	ENDS
;	COMDAT ??$?HDU?$char_traits@D@std@@V?$allocator@D@1@@std@@YA?AV?$basic_string@DU?$char_traits@D@std@@V?$allocator@D@2@@0@ABV10@PBD@Z
_TEXT	SEGMENT PARA USE32 PUBLIC 'CODE'
_TEXT	ENDS
;	COMDAT ??0?$allocator@D@std@@QAE@ABV01@@Z
_TEXT	SEGMENT PARA USE32 PUBLIC 'CODE'
_TEXT	ENDS
;	COMDAT ??0?$allocator@D@std@@QAE@XZ
_TEXT	SEGMENT PARA USE32 PUBLIC 'CODE'
_TEXT	ENDS
;	COMDAT ??_7IUIManager@@6B@
CONST	SEGMENT DWORD USE32 PUBLIC 'CONST'
CONST	ENDS
;	COMDAT ??_R4IUIManager@@6B@
rdata$r	SEGMENT DWORD USE32 PUBLIC 'CONST'
rdata$r	ENDS
;	COMDAT ??_R3IUIManager@@8
rdata$r	SEGMENT DWORD USE32 PUBLIC 'CONST'
rdata$r	ENDS
;	COMDAT ??_R2IUIManager@@8
rdata$r	SEGMENT DWORD USE32 PUBLIC 'CONST'
rdata$r	ENDS
;	COMDAT ??_GIUIManager@@UAEPAXI@Z
_TEXT	SEGMENT PARA USE32 PUBLIC 'CODE'
_TEXT	ENDS
;	COMDAT ??_7CUIManager@@6B@
CONST	SEGMENT DWORD USE32 PUBLIC 'CONST'
CONST	ENDS
;	COMDAT ??1IUIManager@@UAE@XZ
_TEXT	SEGMENT PARA USE32 PUBLIC 'CODE'
_TEXT	ENDS
;	COMDAT ?clsid@?1??GetClsid@CShockwaveFlash@@QAEABU_GUID@@XZ@4U3@B
CONST	SEGMENT DWORD USE32 PUBLIC 'CONST'
CONST	ENDS
;	COMDAT ??_7P2PObserver@@6B@
CONST	SEGMENT DWORD USE32 PUBLIC 'CONST'
CONST	ENDS
;	COMDAT ??_7HTTPObserver@@6B@
CONST	SEGMENT DWORD USE32 PUBLIC 'CONST'
CONST	ENDS
;	COMDAT ?GetDefaultManager@?$StrTraitMFC_DLL@DV?$ChTraitsCRT@D@ATL@@@@SAPAUIAtlStringMgr@ATL@@XZ
_TEXT	SEGMENT PARA USE32 PUBLIC 'CODE'
_TEXT	ENDS
;	COMDAT ?FindStringResourceInstance@?$StrTraitMFC_DLL@DV?$ChTraitsCRT@D@ATL@@@@SAPAUHINSTANCE__@@I@Z
_TEXT	SEGMENT PARA USE32 PUBLIC 'CODE'
_TEXT	ENDS
;	COMDAT ?AtlGetStringResourceImage@ATL@@YAPBUATLSTRINGRESOURCEIMAGE@1@PAUHINSTANCE__@@I@Z
_TEXT	SEGMENT PARA USE32 PUBLIC 'CODE'
_TEXT	ENDS
;	COMDAT ?_AtlGetStringResourceImage@ATL@@YAPBUATLSTRINGRESOURCEIMAGE@1@PAUHINSTANCE__@@PAUHRSRC__@@I@Z
_TEXT	SEGMENT PARA USE32 PUBLIC 'CODE'
_TEXT	ENDS
;	COMDAT ?GetBaseTypeLength@?$ChTraitsCRT@D@ATL@@SAHPB_WH@Z
_TEXT	SEGMENT PARA USE32 PUBLIC 'CODE'
_TEXT	ENDS
;	COMDAT ?_AtlGetConversionACP@ATL@@YGIXZ
_TEXT	SEGMENT PARA USE32 PUBLIC 'CODE'
_TEXT	ENDS
;	COMDAT ?g_pfnGetThreadACP@ATL@@3P6GIXZA
_DATA	SEGMENT DWORD USE32 PUBLIC 'DATA'
_DATA	ENDS
;	COMDAT ?_AtlGetThreadACPThunk@ATL@@YGIXZ
_TEXT	SEGMENT PARA USE32 PUBLIC 'CODE'
_TEXT	ENDS
;	COMDAT ?_AtlGetThreadACPReal@ATL@@YGIXZ
_TEXT	SEGMENT PARA USE32 PUBLIC 'CODE'
_TEXT	ENDS
;	COMDAT ?_AtlGetThreadACPFake@ATL@@YGIXZ
_TEXT	SEGMENT PARA USE32 PUBLIC 'CODE'
_TEXT	ENDS
;	COMDAT ?InterlockedExchangePointer@@YGPAXPAPAXPAX@Z
_TEXT	SEGMENT PARA USE32 PUBLIC 'CODE'
_TEXT	ENDS
;	COMDAT ?ConvertToBaseType@?$ChTraitsCRT@D@ATL@@SAXPADHPB_WH@Z
_TEXT	SEGMENT PARA USE32 PUBLIC 'CODE'
_TEXT	ENDS
;	COMDAT ??_7CGdiPlusBitmap@CSkinButton@@6B@
CONST	SEGMENT DWORD USE32 PUBLIC 'CONST'
CONST	ENDS
;	COMDAT ??_7IData@@6B@
CONST	SEGMENT DWORD USE32 PUBLIC 'CONST'
CONST	ENDS
;	COMDAT ?GetLastStatus@Image@Gdiplus@@QBE?AW4Status@2@XZ
_TEXT	SEGMENT PARA USE32 PUBLIC 'CODE'
_TEXT	ENDS
;	COMDAT ?FromFile@Bitmap@Gdiplus@@SAPAV12@PB_WH@Z
_TEXT	SEGMENT PARA USE32 PUBLIC 'CODE'
_TEXT	ENDS
;	COMDAT ??2GdiplusBase@Gdiplus@@SAPAXI@Z
_TEXT	SEGMENT PARA USE32 PUBLIC 'CODE'
_TEXT	ENDS
;	COMDAT ??3GdiplusBase@Gdiplus@@SAXPAX@Z
_TEXT	SEGMENT PARA USE32 PUBLIC 'CODE'
_TEXT	ENDS
;	COMDAT ??0Bitmap@Gdiplus@@QAE@PB_WH@Z
_TEXT	SEGMENT PARA USE32 PUBLIC 'CODE'
_TEXT	ENDS
;	COMDAT ??0Image@Gdiplus@@IAE@XZ
_TEXT	SEGMENT PARA USE32 PUBLIC 'CODE'
_TEXT	ENDS
;	COMDAT ??_7Image@Gdiplus@@6B@
CONST	SEGMENT DWORD USE32 PUBLIC 'CONST'
CONST	ENDS
;	COMDAT ??_R4Image@Gdiplus@@6B@
rdata$r	SEGMENT DWORD USE32 PUBLIC 'CONST'
rdata$r	ENDS
;	COMDAT ??_R0?AVImage@Gdiplus@@@8
_DATA	SEGMENT DWORD USE32 PUBLIC 'DATA'
_DATA	ENDS
;	COMDAT ??_R3Image@Gdiplus@@8
rdata$r	SEGMENT DWORD USE32 PUBLIC 'CONST'
rdata$r	ENDS
;	COMDAT ??_R2Image@Gdiplus@@8
rdata$r	SEGMENT DWORD USE32 PUBLIC 'CONST'
rdata$r	ENDS
;	COMDAT ??_R1A@?0A@A@Image@Gdiplus@@8
rdata$r	SEGMENT DWORD USE32 PUBLIC 'CONST'
rdata$r	ENDS
;	COMDAT ??_R13?0A@A@GdiplusBase@Gdiplus@@8
rdata$r	SEGMENT DWORD USE32 PUBLIC 'CONST'
rdata$r	ENDS
;	COMDAT ??_R0?AVGdiplusBase@Gdiplus@@@8
_DATA	SEGMENT DWORD USE32 PUBLIC 'DATA'
_DATA	ENDS
;	COMDAT ??_GImage@Gdiplus@@UAEPAXI@Z
_TEXT	SEGMENT PARA USE32 PUBLIC 'CODE'
_TEXT	ENDS
;	COMDAT ?Clone@Image@Gdiplus@@UAEPAV12@XZ
_TEXT	SEGMENT PARA USE32 PUBLIC 'CODE'
_TEXT	ENDS
;	COMDAT ?SetStatus@Image@Gdiplus@@IBE?AW4Status@2@W432@@Z
_TEXT	SEGMENT PARA USE32 PUBLIC 'CODE'
_TEXT	ENDS
;	COMDAT ??0Image@Gdiplus@@IAE@PAVGpImage@1@W4Status@1@@Z
_TEXT	SEGMENT PARA USE32 PUBLIC 'CODE'
_TEXT	ENDS
;	COMDAT ??1Image@Gdiplus@@UAE@XZ
_TEXT	SEGMENT PARA USE32 PUBLIC 'CODE'
_TEXT	ENDS
;	COMDAT ??_7Bitmap@Gdiplus@@6B@
CONST	SEGMENT DWORD USE32 PUBLIC 'CONST'
CONST	ENDS
;	COMDAT ??_R4Bitmap@Gdiplus@@6B@
rdata$r	SEGMENT DWORD USE32 PUBLIC 'CONST'
rdata$r	ENDS
;	COMDAT ??_R0?AVBitmap@Gdiplus@@@8
_DATA	SEGMENT DWORD USE32 PUBLIC 'DATA'
_DATA	ENDS
;	COMDAT ??_R3Bitmap@Gdiplus@@8
rdata$r	SEGMENT DWORD USE32 PUBLIC 'CONST'
rdata$r	ENDS
;	COMDAT ??_R2Bitmap@Gdiplus@@8
rdata$r	SEGMENT DWORD USE32 PUBLIC 'CONST'
rdata$r	ENDS
;	COMDAT ??_R1A@?0A@A@Bitmap@Gdiplus@@8
rdata$r	SEGMENT DWORD USE32 PUBLIC 'CONST'
rdata$r	ENDS
;	COMDAT ??_GBitmap@Gdiplus@@UAEPAXI@Z
_TEXT	SEGMENT PARA USE32 PUBLIC 'CODE'
_TEXT	ENDS
;	COMDAT ??1Bitmap@Gdiplus@@UAE@XZ
_TEXT	SEGMENT PARA USE32 PUBLIC 'CODE'
_TEXT	ENDS
;	COMDAT ?SetNativeImage@Image@Gdiplus@@IAEXPAVGpImage@2@@Z
_TEXT	SEGMENT PARA USE32 PUBLIC 'CODE'
_TEXT	ENDS
;	COMDAT ??_7CGdiPlusBitmap@@6B@
CONST	SEGMENT DWORD USE32 PUBLIC 'CONST'
CONST	ENDS
;	COMDAT ??_7DIBINFO@@6B@
CONST	SEGMENT DWORD USE32 PUBLIC 'CONST'
CONST	ENDS
;	COMDAT ??_C@_00CNPNBAHC@?$AA@
CONST	SEGMENT DWORD USE32 PUBLIC 'CONST'
CONST	ENDS
;	COMDAT ??3CObject@@SGXPAX@Z
_TEXT	SEGMENT PARA USE32 PUBLIC 'CODE'
_TEXT	ENDS
;	COMDAT ??2CObject@@SGPAXI@Z
_TEXT	SEGMENT PARA USE32 PUBLIC 'CODE'
_TEXT	ENDS
;	COMDAT ??_7CMarkupArchive@@6B@
CONST	SEGMENT DWORD USE32 PUBLIC 'CONST'
CONST	ENDS
;	COMDAT __tcschr
_TEXT	SEGMENT PARA USE32 PUBLIC 'CODE'
_TEXT	ENDS
;	COMDAT __tcsnccmp
_TEXT	SEGMENT PARA USE32 PUBLIC 'CODE'
_TEXT	ENDS
;	COMDAT ??_7CMarkup@@6B@
CONST	SEGMENT DWORD USE32 PUBLIC 'CONST'
CONST	ENDS
;	COMDAT ??BCRect@@QAEPAUtagRECT@@XZ
_TEXT	SEGMENT PARA USE32 PUBLIC 'CODE'
_TEXT	ENDS
;	COMDAT ?GetClientRect@CWnd@@QBEXPAUtagRECT@@@Z
_TEXT	SEGMENT PARA USE32 PUBLIC 'CODE'
_TEXT	ENDS
;	COMDAT ??0CSize@@QAE@HH@Z
_TEXT	SEGMENT PARA USE32 PUBLIC 'CODE'
_TEXT	ENDS
;	COMDAT ??0CSize@@QAE@XZ
_TEXT	SEGMENT PARA USE32 PUBLIC 'CODE'
_TEXT	ENDS
;	COMDAT ??_7ETSLayoutMgr@@6B@
CONST	SEGMENT DWORD USE32 PUBLIC 'CONST'
CONST	ENDS
;	COMDAT ?IsLocked@CStringData@ATL@@QBE_NXZ
_TEXT	SEGMENT PARA USE32 PUBLIC 'CODE'
_TEXT	ENDS
;	COMDAT ?AddRef@CStringData@ATL@@QAEXXZ
_TEXT	SEGMENT PARA USE32 PUBLIC 'CODE'
_TEXT	ENDS
;	COMDAT ??0CRect@@QAE@HHHH@Z
_TEXT	SEGMENT PARA USE32 PUBLIC 'CODE'
_TEXT	ENDS
;	COMDAT ??0CRect@@QAE@XZ
_TEXT	SEGMENT PARA USE32 PUBLIC 'CODE'
_TEXT	ENDS
;	COMDAT ??_7PaneBase@ETSLayoutMgr@@6B@
CONST	SEGMENT DWORD USE32 PUBLIC 'CONST'
CONST	ENDS
sxdata	SEGMENT DWORD USE32 'SXDATA'
sxdata	ENDS
FLAT	GROUP _DATA, CONST, _BSS
	ASSUME	CS: FLAT, DS: FLAT, SS: FLAT
endif

INCLUDELIB MSVCRT
INCLUDELIB OLDNAMES

PUBLIC	?g_pfnGetThreadACP@ATL@@3P6GIXZA		; ATL::g_pfnGetThreadACP
PUBLIC	?_AtlGetThreadACPThunk@ATL@@YGIXZ		; ATL::_AtlGetThreadACPThunk
CONST	SEGMENT
$SG206199 DB	'int', 00H
CONST	ENDS
_DATA	SEGMENT
_TYPE_CONFIG_INT DD FLAT:$SG206199
_DATA	ENDS
CONST	SEGMENT
$SG206201 DB	'str', 00H
CONST	ENDS
_DATA	SEGMENT
_TYPE_CONFIG_STR DD FLAT:$SG206201
_DATA	ENDS
CONST	SEGMENT
$SG206203 DB	'double', 00H
CONST	ENDS
_DATA	SEGMENT
_TYPE_CONFIG_DOUBLE DD FLAT:$SG206203
_DATA	ENDS
CONST	SEGMENT
	ORG $+1
$SG206205 DB	'bool', 00H
CONST	ENDS
_DATA	SEGMENT
_TYPE_CONFIG_BOOL DD FLAT:$SG206205
_DATA	ENDS
CONST	SEGMENT
	ORG $+3
$SG206207 DB	'sepint', 00H
CONST	ENDS
_DATA	SEGMENT
_TYPE_CONFIG_INT_HASSEP DD FLAT:$SG206207
_DATA	ENDS
CONST	SEGMENT
	ORG $+1
$SG206209 DB	'sepstr', 00H
CONST	ENDS
_DATA	SEGMENT
_TYPE_CONFIG_STR_HASSEP DD FLAT:$SG206209
_DATA	ENDS
CONST	SEGMENT
	ORG $+1
$SG206211 DB	'sepdouble', 00H
CONST	ENDS
_DATA	SEGMENT
_TYPE_CONFIG_DOUBLE_HASSEP DD FLAT:$SG206211
_DATA	ENDS
CONST	SEGMENT
	ORG $+2
$SG206213 DB	'sepbool', 00H
CONST	ENDS
_DATA	SEGMENT
_TYPE_CONFIG_BOOL_HASSEP DD FLAT:$SG206213
_DATA	ENDS
CONST	SEGMENT
$SG206215 DB	'Setting', 00H
CONST	ENDS
_DATA	SEGMENT
_CONF_SETTING_MODULE_NAME DD FLAT:$SG206215
_DATA	ENDS
CONST	SEGMENT
$SG206217 DB	'skin', 00H
CONST	ENDS
_DATA	SEGMENT
_CONF_SETTING_SKIN_IDX DD FLAT:$SG206217
_DATA	ENDS
CONST	SEGMENT
	ORG $+3
$SG206219 DB	'MainPage', 00H
CONST	ENDS
_DATA	SEGMENT
_CONF_SETTING_CONFIG_MAIN_PAGE DD FLAT:$SG206219
_DATA	ENDS
CONST	SEGMENT
	ORG $+3
$SG206221 DB	'ProblemReport', 00H
CONST	ENDS
_DATA	SEGMENT
_CONF_SETTING_CONFIG_PROBLEM_REPORT DD FLAT:$SG206221
_DATA	ENDS
CONST	SEGMENT
	ORG $+2
$SG206223 DB	'HomePage', 00H
CONST	ENDS
_DATA	SEGMENT
_CONF_SETTING_CONFIG_HOME_PAGE DD FLAT:$SG206223
_DATA	ENDS
CONST	SEGMENT
	ORG $+3
$SG206225 DB	'askexit', 00H
CONST	ENDS
_DATA	SEGMENT
_CONF_SETTING_CONFIG_IFASKEXIT DD FLAT:$SG206225
_DATA	ENDS
CONST	SEGMENT
$SG206227 DB	'exitchoice', 00H
CONST	ENDS
_DATA	SEGMENT
_CONF_SETTING_CONFIG_EXITCHOICE DD FLAT:$SG206227
_DATA	ENDS
CONST	SEGMENT
	ORG $+1
$SG206229 DB	'UN', 00H
CONST	ENDS
_DATA	SEGMENT
_CONF_SETTING_LOGIN_USER_NAME DD FLAT:$SG206229
_DATA	ENDS
CONST	SEGMENT
	ORG $+1
$SG206231 DB	'PW', 00H
CONST	ENDS
_DATA	SEGMENT
_CONF_SETTING_LOGIN_PASSWORD DD FLAT:$SG206231
_DATA	ENDS
CONST	SEGMENT
	ORG $+1
$SG206233 DB	'NetID', 00H
CONST	ENDS
_DATA	SEGMENT
_CONF_SETTING_NETID DD FLAT:$SG206233
_DATA	ENDS
CONST	SEGMENT
	ORG $+2
$SG206235 DB	'ChangeColorValue', 00H
CONST	ENDS
_DATA	SEGMENT
_CONF_SETTING_COLOR DD FLAT:$SG206235
_DATA	ENDS
CONST	SEGMENT
	ORG $+3
$SG206237 DB	'changeColorLight', 00H
CONST	ENDS
_DATA	SEGMENT
_CONF_SETTING_LIGHT DD FLAT:$SG206237
_DATA	ENDS
CONST	SEGMENT
	ORG $+3
$SG206239 DB	'ColorIndex', 00H
CONST	ENDS
_DATA	SEGMENT
_CONF_SETTING_COLOR_BTN_INDEX DD FLAT:$SG206239
_DATA	ENDS
CONST	SEGMENT
	ORG $+1
$SG206241 DB	'ColorUser', 00H
CONST	ENDS
_DATA	SEGMENT
_CONF_SETTING_COLOR_USER DD FLAT:$SG206241
_DATA	ENDS
CONST	SEGMENT
	ORG $+2
$SG206243 DB	'FirstTimeChangeSkin', 00H
CONST	ENDS
_DATA	SEGMENT
_CONF_SETTING_FIRST_TIME_CHANGESKIN DD FLAT:$SG206243
_DATA	ENDS
CONST	SEGMENT
$SG206250 DB	'SkinSub', 00H
CONST	ENDS
_DATA	SEGMENT
_CONF_SKINSUB_MODULE_NAME DD FLAT:$SG206250
_DATA	ENDS
CONST	SEGMENT
$SG206252 DB	'CurSub', 00H
CONST	ENDS
_DATA	SEGMENT
_CONF_SKINSUB_CURRSUB DD FLAT:$SG206252
_DATA	ENDS
CONST	SEGMENT
	ORG $+1
$SG206254 DB	'Color', 00H
CONST	ENDS
_DATA	SEGMENT
_CONF_SKINSUB_COLOR DD FLAT:$SG206254
_DATA	ENDS
CONST	SEGMENT
	ORG $+2
$SG207618 DB	'UIManAppStart======IN', 00H
	ORG $+2
$SG207619 DB	'CUIManager', 00H
	ORG $+1
$SG207620 DB	'main.txt', 00H
	ORG $+3
$SG207644 DB	'playbox', 00H
$SG207647 DB	'11', 00H
	ORG $+1
$SG207648 DB	'mainBk', 00H
	ORG $+1
$SG207653 DB	'\SbujectSkin\', 00H
$SG207659 DB	00H
$SG207663 DB	00H
$SG207673 DB	00H
$SG207678 DB	00H
	ORG $+2
$SG207701 DB	'UIManAppStart-OUT', 00H
	ORG $+2
$SG207702 DB	'CUIManager', 00H
	ORG $+1
$SG207703 DB	'main.txt', 00H
	ORG $+3
$SG207710 DB	'UIManAppExit======IN', 00H
	ORG $+3
$SG207711 DB	'CUIManager', 00H
	ORG $+1
$SG207712 DB	'main.txt', 00H
	ORG $+3
$SG207715 DB	'1', 00H
	ORG $+2
$SG207716 DB	'CUIManager', 00H
	ORG $+1
$SG207717 DB	'main.txt', 00H
	ORG $+3
$SG207720 DB	'2', 00H
	ORG $+2
$SG207721 DB	'CUIManager', 00H
	ORG $+1
$SG207722 DB	'main.txt', 00H
	ORG $+3
$SG208246 DB	'Del AppSkin', 00H
$SG208247 DB	'CUIManager', 00H
	ORG $+1
$SG208248 DB	'main.txt', 00H
	ORG $+3
$SG208253 DB	'Del PanesMgr', 00H
	ORG $+3
$SG208254 DB	'CUIManager', 00H
	ORG $+1
$SG208255 DB	'main.txt', 00H
	ORG $+3
$SG208258 DB	'UIManAppExit', 00H
	ORG $+3
$SG208259 DB	'CUIManager', 00H
	ORG $+1
$SG208260 DB	'main.txt', 00H
	ORG $+3
$SG208439 DB	'toppanel', 00H
	ORG $+3
$SG208442 DB	'%s--in', 00H
	ORG $+1
$SG208443 DB	'CreateUIWindow', 00H
	ORG $+1
$SG208444 DB	'createWindow.txt', 00H
	ORG $+3
$SG208450 DB	'toppanel', 00H
	ORG $+3
$SG208453 DB	'%s', 00H
	ORG $+1
$SG208454 DB	'CreateUIWindow', 00H
	ORG $+1
$SG208455 DB	'createWindow.txt', 00H
	ORG $+3
$SG208458 DB	'logopanel', 00H
	ORG $+2
$SG208461 DB	'%s--in', 00H
	ORG $+1
$SG208462 DB	'CreateUIWindow', 00H
	ORG $+1
$SG208463 DB	'createWindow.txt', 00H
	ORG $+3
$SG208469 DB	'logopanel', 00H
	ORG $+2
$SG208472 DB	'%s', 00H
	ORG $+1
$SG208473 DB	'CreateUIWindow', 00H
	ORG $+1
$SG208474 DB	'createWindow.txt', 00H
	ORG $+3
$SG208477 DB	'bottompanel', 00H
$SG208480 DB	'%s--in', 00H
	ORG $+1
$SG208481 DB	'CreateUIWindow', 00H
	ORG $+1
$SG208482 DB	'createWindow.txt', 00H
	ORG $+3
$SG208488 DB	'bottompanel', 00H
$SG208491 DB	'%s', 00H
	ORG $+1
$SG208492 DB	'CreateUIWindow', 00H
	ORG $+1
$SG208493 DB	'createWindow.txt', 00H
	ORG $+3
$SG208496 DB	'tabbarWnd', 00H
	ORG $+2
$SG208499 DB	'%s--in', 00H
	ORG $+1
$SG208500 DB	'CreateUIWindow', 00H
	ORG $+1
$SG208501 DB	'createWindow.txt', 00H
	ORG $+3
$SG208507 DB	'tabbarWnd', 00H
	ORG $+2
$SG208510 DB	'%s', 00H
	ORG $+1
$SG208511 DB	'CreateUIWindow', 00H
	ORG $+1
$SG208512 DB	'createWindow.txt', 00H
	ORG $+3
$SG208515 DB	'midpanel', 00H
	ORG $+3
$SG208518 DB	'%s--in', 00H
	ORG $+1
$SG208519 DB	'CreateUIWindow', 00H
	ORG $+1
$SG208520 DB	'createWindow.txt', 00H
$SG208521 DB	00H
	ORG $+2
$SG208525 DB	'%s', 00H
	ORG $+1
$SG208526 DB	'CreateUIWindow', 00H
	ORG $+1
$SG208527 DB	'createWindow.txt', 00H
	ORG $+3
$SG208530 DB	'tabpanelparent', 00H
	ORG $+1
$SG208533 DB	'%s--in', 00H
	ORG $+1
$SG208534 DB	'CreateUIWindow', 00H
	ORG $+1
$SG208535 DB	'createWindow.txt', 00H
	ORG $+3
$SG208543 DB	'%s', 00H
	ORG $+1
$SG208544 DB	'CreateUIWindow', 00H
	ORG $+1
$SG208545 DB	'createWindow.txt', 00H
CONST	ENDS
;	COMDAT ?g_pfnGetThreadACP@ATL@@3P6GIXZA
_DATA	SEGMENT
?g_pfnGetThreadACP@ATL@@3P6GIXZA DD FLAT:?_AtlGetThreadACPThunk@ATL@@YGIXZ ; ATL::g_pfnGetThreadACP
_DATA	ENDS
CONST	SEGMENT
	ORG $+3
_ID_MESSAGE_APPEXIT DD 0dH
CONST	ENDS
PUBLIC	?InterlockedExchangePointer@@YGPAXPAPAXPAX@Z	; InterlockedExchangePointer
PUBLIC	?_AtlGetThreadACPFake@ATL@@YGIXZ		; ATL::_AtlGetThreadACPFake
PUBLIC	?_AtlGetThreadACPReal@ATL@@YGIXZ		; ATL::_AtlGetThreadACPReal
EXTRN	___security_cookie:DWORD
EXTRN	@__security_check_cookie@4:NEAR
EXTRN	__imp__GetVersionExA@4:NEAR
; Function compile flags: /Odt
; File d:\program files (x86)\microsoft visual studio .net 2003\vc7\atlmfc\include\atlconv.h
;	COMDAT ?_AtlGetThreadACPThunk@ATL@@YGIXZ
_TEXT	SEGMENT
_pfnGetThreadACP$ = -164				; size = 4
_ver$ = -160						; size = 148
__$ArrayPad$ = -4					; size = 4
__$ReturnAddr$ = 4					; size = 4
?_AtlGetThreadACPThunk@ATL@@YGIXZ PROC NEAR		; ATL::_AtlGetThreadACPThunk, COMDAT

; 134  : {

  00000	55		 push	 ebp
  00001	8b ec		 mov	 ebp, esp
  00003	81 ec a4 00 00
	00		 sub	 esp, 164		; 000000a4H
  00009	a1 00 00 00 00	 mov	 eax, DWORD PTR ___security_cookie
  0000e	89 45 fc	 mov	 DWORD PTR __$ArrayPad$[ebp], eax

; 135  : 	OSVERSIONINFO ver;
; 136  : 	ATLGETTHREADACP pfnGetThreadACP;
; 137  : 
; 138  : 	ver.dwOSVersionInfoSize = sizeof( ver );

  00011	c7 85 60 ff ff
	ff 94 00 00 00	 mov	 DWORD PTR _ver$[ebp], 148 ; 00000094H

; 139  : 	::GetVersionEx( &ver );

  0001b	8d 85 60 ff ff
	ff		 lea	 eax, DWORD PTR _ver$[ebp]
  00021	50		 push	 eax
  00022	ff 15 00 00 00
	00		 call	 DWORD PTR __imp__GetVersionExA@4

; 140  : 	if( (ver.dwPlatformId == VER_PLATFORM_WIN32_NT) && (ver.dwMajorVersion >= 5) )

  00028	83 bd 70 ff ff
	ff 02		 cmp	 DWORD PTR _ver$[ebp+16], 2
  0002f	75 15		 jne	 SHORT $L24173
  00031	83 bd 64 ff ff
	ff 05		 cmp	 DWORD PTR _ver$[ebp+4], 5
  00038	72 0c		 jb	 SHORT $L24173

; 141  : 	{
; 142  : 		// On Win2K, CP_THREAD_ACP is supported
; 143  : 		pfnGetThreadACP = _AtlGetThreadACPReal;

  0003a	c7 85 5c ff ff
	ff 00 00 00 00	 mov	 DWORD PTR _pfnGetThreadACP$[ebp], OFFSET FLAT:?_AtlGetThreadACPReal@ATL@@YGIXZ ; ATL::_AtlGetThreadACPReal

; 144  : 	}
; 145  : 	else

  00044	eb 0a		 jmp	 SHORT $L24174
$L24173:

; 146  : 	{
; 147  : 		pfnGetThreadACP = _AtlGetThreadACPFake;

  00046	c7 85 5c ff ff
	ff 00 00 00 00	 mov	 DWORD PTR _pfnGetThreadACP$[ebp], OFFSET FLAT:?_AtlGetThreadACPFake@ATL@@YGIXZ ; ATL::_AtlGetThreadACPFake
$L24174:

; 148  : 	}
; 149  : 	InterlockedExchangePointer( reinterpret_cast< void** >(&g_pfnGetThreadACP), pfnGetThreadACP );

  00050	8b 8d 5c ff ff
	ff		 mov	 ecx, DWORD PTR _pfnGetThreadACP$[ebp]
  00056	51		 push	 ecx
  00057	68 00 00 00 00	 push	 OFFSET FLAT:?g_pfnGetThreadACP@ATL@@3P6GIXZA ; ATL::g_pfnGetThreadACP
  0005c	e8 00 00 00 00	 call	 ?InterlockedExchangePointer@@YGPAXPAPAXPAX@Z ; InterlockedExchangePointer

; 150  : 
; 151  : 	return( g_pfnGetThreadACP() );

  00061	ff 15 00 00 00
	00		 call	 DWORD PTR ?g_pfnGetThreadACP@ATL@@3P6GIXZA ; ATL::g_pfnGetThreadACP

; 152  : }

  00067	8b 4d fc	 mov	 ecx, DWORD PTR __$ArrayPad$[ebp]
  0006a	e8 00 00 00 00	 call	 @__security_check_cookie@4
  0006f	8b e5		 mov	 esp, ebp
  00071	5d		 pop	 ebp
  00072	c3		 ret	 0
?_AtlGetThreadACPThunk@ATL@@YGIXZ ENDP			; ATL::_AtlGetThreadACPThunk
_TEXT	ENDS
EXTRN	__imp__InterlockedExchange@8:NEAR
; Function compile flags: /Odt
;	COMDAT ?InterlockedExchangePointer@@YGPAXPAPAXPAX@Z
_TEXT	SEGMENT
_pp$ = 8						; size = 4
_pNew$ = 12						; size = 4
?InterlockedExchangePointer@@YGPAXPAPAXPAX@Z PROC NEAR	; InterlockedExchangePointer, COMDAT

; 91   : {

  00000	55		 push	 ebp
  00001	8b ec		 mov	 ebp, esp

; 92   : 	return( reinterpret_cast<void*>(static_cast<LONG_PTR>(::InterlockedExchange(reinterpret_cast<LONG*>(pp), static_cast<LONG>(reinterpret_cast<LONG_PTR>(pNew))))) );

  00003	8b 45 0c	 mov	 eax, DWORD PTR _pNew$[ebp]
  00006	50		 push	 eax
  00007	8b 4d 08	 mov	 ecx, DWORD PTR _pp$[ebp]
  0000a	51		 push	 ecx
  0000b	ff 15 00 00 00
	00		 call	 DWORD PTR __imp__InterlockedExchange@8

; 93   : }

  00011	5d		 pop	 ebp
  00012	c2 08 00	 ret	 8
?InterlockedExchangePointer@@YGPAXPAPAXPAX@Z ENDP	; InterlockedExchangePointer
_TEXT	ENDS
EXTRN	__imp__GetACP@0:NEAR
EXTRN	__imp__GetLocaleInfoA@16:NEAR
EXTRN	__imp__GetThreadLocale@0:NEAR
; Function compile flags: /Odt
;	COMDAT ?_AtlGetThreadACPFake@ATL@@YGIXZ
_TEXT	SEGMENT
_pch$24161 = -24					; size = 4
_lcidThread$ = -20					; size = 4
_szACP$ = -16						; size = 7
__$ArrayPad$ = -8					; size = 4
_nACP$ = -4						; size = 4
__$ReturnAddr$ = 4					; size = 4
?_AtlGetThreadACPFake@ATL@@YGIXZ PROC NEAR		; ATL::_AtlGetThreadACPFake, COMDAT

; 101  : {

  00000	55		 push	 ebp
  00001	8b ec		 mov	 ebp, esp
  00003	83 ec 18	 sub	 esp, 24			; 00000018H
  00006	a1 00 00 00 00	 mov	 eax, DWORD PTR ___security_cookie
  0000b	89 45 f8	 mov	 DWORD PTR __$ArrayPad$[ebp], eax

; 102  : 	UINT nACP = 0;

  0000e	c7 45 fc 00 00
	00 00		 mov	 DWORD PTR _nACP$[ebp], 0

; 103  : 
; 104  : 	LCID lcidThread = ::GetThreadLocale();

  00015	ff 15 00 00 00
	00		 call	 DWORD PTR __imp__GetThreadLocale@0
  0001b	89 45 ec	 mov	 DWORD PTR _lcidThread$[ebp], eax

; 105  : 
; 106  : 	char szACP[7];
; 107  : 	// GetLocaleInfoA will fail for a Unicode-only LCID, but those are only supported on 
; 108  : 	// Windows 2000.  Since Windows 2000 supports CP_THREAD_ACP, this code path is never
; 109  : 	// executed on Windows 2000.
; 110  : 	if (::GetLocaleInfoA(lcidThread, LOCALE_IDEFAULTANSICODEPAGE, szACP, 7) != 0)

  0001e	6a 07		 push	 7
  00020	8d 45 f0	 lea	 eax, DWORD PTR _szACP$[ebp]
  00023	50		 push	 eax
  00024	68 04 10 00 00	 push	 4100			; 00001004H
  00029	8b 4d ec	 mov	 ecx, DWORD PTR _lcidThread$[ebp]
  0002c	51		 push	 ecx
  0002d	ff 15 00 00 00
	00		 call	 DWORD PTR __imp__GetLocaleInfoA@16
  00033	85 c0		 test	 eax, eax
  00035	74 34		 je	 SHORT $L24160

; 111  : 	{
; 112  : 		char* pch = szACP;

  00037	8d 55 f0	 lea	 edx, DWORD PTR _szACP$[ebp]
  0003a	89 55 e8	 mov	 DWORD PTR _pch$24161[ebp], edx
$L24163:

; 113  : 		while (*pch != '\0')

  0003d	8b 45 e8	 mov	 eax, DWORD PTR _pch$24161[ebp]
  00040	0f be 08	 movsx	 ecx, BYTE PTR [eax]
  00043	85 c9		 test	 ecx, ecx
  00045	74 24		 je	 SHORT $L24160

; 114  : 		{
; 115  : 			nACP *= 10;

  00047	8b 55 fc	 mov	 edx, DWORD PTR _nACP$[ebp]
  0004a	6b d2 0a	 imul	 edx, 10			; 0000000aH
  0004d	89 55 fc	 mov	 DWORD PTR _nACP$[ebp], edx

; 116  : 			nACP += *pch++ - '0';

  00050	8b 45 e8	 mov	 eax, DWORD PTR _pch$24161[ebp]
  00053	0f be 08	 movsx	 ecx, BYTE PTR [eax]
  00056	8b 55 fc	 mov	 edx, DWORD PTR _nACP$[ebp]
  00059	8d 44 0a d0	 lea	 eax, DWORD PTR [edx+ecx-48]
  0005d	89 45 fc	 mov	 DWORD PTR _nACP$[ebp], eax
  00060	8b 4d e8	 mov	 ecx, DWORD PTR _pch$24161[ebp]
  00063	83 c1 01	 add	 ecx, 1
  00066	89 4d e8	 mov	 DWORD PTR _pch$24161[ebp], ecx

; 117  : 		}

  00069	eb d2		 jmp	 SHORT $L24163
$L24160:

; 118  : 	}
; 119  : 	// Use the Default ANSI Code Page if we were unable to get the thread ACP or if one does not exist.
; 120  : 	if (nACP == 0)

  0006b	83 7d fc 00	 cmp	 DWORD PTR _nACP$[ebp], 0
  0006f	75 09		 jne	 SHORT $L24165

; 121  : 		nACP = ::GetACP();

  00071	ff 15 00 00 00
	00		 call	 DWORD PTR __imp__GetACP@0
  00077	89 45 fc	 mov	 DWORD PTR _nACP$[ebp], eax
$L24165:

; 122  : 
; 123  : 	return nACP;

  0007a	8b 45 fc	 mov	 eax, DWORD PTR _nACP$[ebp]

; 124  : }

  0007d	8b 4d f8	 mov	 ecx, DWORD PTR __$ArrayPad$[ebp]
  00080	e8 00 00 00 00	 call	 @__security_check_cookie@4
  00085	8b e5		 mov	 esp, ebp
  00087	5d		 pop	 ebp
  00088	c3		 ret	 0
?_AtlGetThreadACPFake@ATL@@YGIXZ ENDP			; ATL::_AtlGetThreadACPFake
; Function compile flags: /Odt
_TEXT	ENDS
;	COMDAT ?_AtlGetThreadACPReal@ATL@@YGIXZ
_TEXT	SEGMENT
?_AtlGetThreadACPReal@ATL@@YGIXZ PROC NEAR		; ATL::_AtlGetThreadACPReal, COMDAT

; 127  : {

  00000	55		 push	 ebp
  00001	8b ec		 mov	 ebp, esp

; 128  : 	return( CP_THREAD_ACP );

  00003	b8 03 00 00 00	 mov	 eax, 3

; 129  : }

  00008	5d		 pop	 ebp
  00009	c3		 ret	 0
?_AtlGetThreadACPReal@ATL@@YGIXZ ENDP			; ATL::_AtlGetThreadACPReal
_TEXT	ENDS
PUBLIC	??_GCUIManager@@UAEPAXI@Z			; CUIManager::`scalar deleting destructor'
PUBLIC	??_R0?AVIUIManager@@@8				; IUIManager `RTTI Type Descriptor'
PUBLIC	??_R1A@?0A@A@IUIManager@@8			; IUIManager::`RTTI Base Class Descriptor at (0,-1,0,0)'
PUBLIC	??_R4CUIManager@@6B@				; CUIManager::`RTTI Complete Object Locator'
PUBLIC	??_R0?AVCUIManager@@@8				; CUIManager `RTTI Type Descriptor'
PUBLIC	??_R3CUIManager@@8				; CUIManager::`RTTI Class Hierarchy Descriptor'
PUBLIC	??_R2CUIManager@@8				; CUIManager::`RTTI Base Class Array'
PUBLIC	??_R1A@?0A@A@CUIManager@@8			; CUIManager::`RTTI Base Class Descriptor at (0,-1,0,0)'
PUBLIC	??0CUIManager@@QAE@XZ				; CUIManager::CUIManager
PUBLIC	?UIManAppStart@CUIManager@@UAE_NXZ		; CUIManager::UIManAppStart
PUBLIC	?UIManAppExit@CUIManager@@UAEXXZ		; CUIManager::UIManAppExit
PUBLIC	?UICanExit@CUIManager@@UAE_NXZ			; CUIManager::UICanExit
PUBLIC	?UIAddDialog@CUIManager@@UAEXK@Z		; CUIManager::UIAddDialog
PUBLIC	?UIRemoveDialog@CUIManager@@UAEXK@Z		; CUIManager::UIRemoveDialog
PUBLIC	?UIDlgSize@CUIManager@@UAEHXZ			; CUIManager::UIDlgSize
PUBLIC	?UIAddDialog@CUIManager@@UAEXPAVCDialog@@@Z	; CUIManager::UIAddDialog
PUBLIC	?UIRemoveDialog@CUIManager@@UAEXPAVCDialog@@@Z	; CUIManager::UIRemoveDialog
PUBLIC	?UIOnPaint@CUIManager@@UAEXPAVCDC@@@Z		; CUIManager::UIOnPaint
PUBLIC	?UIOnMove@CUIManager@@UAEXHH@Z			; CUIManager::UIOnMove
PUBLIC	?CreateUIWindow@CUIManager@@UAEXPBD@Z		; CUIManager::CreateUIWindow
PUBLIC	?UIGetLayoutMgr@CUIManager@@UAEPAVILayoutMgr@@XZ ; CUIManager::UIGetLayoutMgr
PUBLIC	?UIGetSkinMgr@CUIManager@@UAEPAVISkinMgr@@XZ	; CUIManager::UIGetSkinMgr
PUBLIC	?UIGetChangeColorMgr@CUIManager@@UAEPAVIChangeColorMgr@@XZ ; CUIManager::UIGetChangeColorMgr
PUBLIC	??0?$vector@KV?$allocator@K@std@@@std@@QAE@XZ	; std::vector<unsigned long,std::allocator<unsigned long> >::vector<unsigned long,std::allocator<unsigned long> >
PUBLIC	??1IUIManager@@UAE@XZ				; IUIManager::~IUIManager
PUBLIC	??0IUIManager@@QAE@XZ				; IUIManager::IUIManager
PUBLIC	??_7CUIManager@@6B@				; CUIManager::`vftable'
EXTRN	??_ECUIManager@@UAEPAXI@Z:NEAR			; CUIManager::`vector deleting destructor'
EXTRN	__except_list:DWORD
EXTRN	___CxxFrameHandler:NEAR
EXTRN	??0ETSSplitter@@QAE@PBD@Z:NEAR			; ETSSplitter::ETSSplitter
EXTRN	??1ETSSplitter@@UAE@XZ:NEAR			; ETSSplitter::~ETSSplitter
EXTRN	??_7type_info@@6B@:QWORD			; type_info::`vftable'
xdata$x	SEGMENT
$T211261 DD	0ffffffffH
	DD	FLAT:$L211252
	DD	00H
	DD	FLAT:$L211253
$T211258 DD	019930520H
	DD	02H
	DD	FLAT:$T211261
	DD	2 DUP(00H)
	DD	2 DUP(00H)
xdata$x	ENDS
;	COMDAT ??_7CUIManager@@6B@
; File d:\boxgit\playbox\playbox\dev\prj\playbox\src\core\cuimanager.cpp
CONST	SEGMENT
??_7CUIManager@@6B@ DD FLAT:??_R4CUIManager@@6B@	; CUIManager::`vftable'
	DD	FLAT:??_ECUIManager@@UAEPAXI@Z
	DD	FLAT:?UIManAppStart@CUIManager@@UAE_NXZ
	DD	FLAT:?UIManAppExit@CUIManager@@UAEXXZ
	DD	FLAT:?UICanExit@CUIManager@@UAE_NXZ
	DD	FLAT:?UIDlgSize@CUIManager@@UAEHXZ
	DD	FLAT:?UIAddDialog@CUIManager@@UAEXPAVCDialog@@@Z
	DD	FLAT:?UIAddDialog@CUIManager@@UAEXK@Z
	DD	FLAT:?UIRemoveDialog@CUIManager@@UAEXPAVCDialog@@@Z
	DD	FLAT:?UIRemoveDialog@CUIManager@@UAEXK@Z
	DD	FLAT:?UIGetLayoutMgr@CUIManager@@UAEPAVILayoutMgr@@XZ
	DD	FLAT:?UIGetSkinMgr@CUIManager@@UAEPAVISkinMgr@@XZ
	DD	FLAT:?UIGetChangeColorMgr@CUIManager@@UAEPAVIChangeColorMgr@@XZ
	DD	FLAT:?UIOnPaint@CUIManager@@UAEXPAVCDC@@@Z
	DD	FLAT:?UIOnMove@CUIManager@@UAEXHH@Z
	DD	FLAT:?CreateUIWindow@CUIManager@@UAEXPBD@Z
CONST	ENDS
;	COMDAT ??_R4CUIManager@@6B@
rdata$r	SEGMENT
??_R4CUIManager@@6B@ DD 00H				; CUIManager::`RTTI Complete Object Locator'
	DD	00H
	DD	00H
	DD	FLAT:??_R0?AVCUIManager@@@8
	DD	FLAT:??_R3CUIManager@@8
rdata$r	ENDS
;	COMDAT ??_R0?AVCUIManager@@@8
_DATA	SEGMENT
??_R0?AVCUIManager@@@8 DD FLAT:??_7type_info@@6B@	; CUIManager `RTTI Type Descriptor'
	DD	00H
	DB	'.?AVCUIManager@@', 00H
_DATA	ENDS
;	COMDAT ??_R3CUIManager@@8
rdata$r	SEGMENT
??_R3CUIManager@@8 DD 00H				; CUIManager::`RTTI Class Hierarchy Descriptor'
	DD	00H
	DD	02H
	DD	FLAT:??_R2CUIManager@@8
rdata$r	ENDS
;	COMDAT ??_R2CUIManager@@8
rdata$r	SEGMENT
??_R2CUIManager@@8 DD FLAT:??_R1A@?0A@A@CUIManager@@8	; CUIManager::`RTTI Base Class Array'
	DD	FLAT:??_R1A@?0A@A@IUIManager@@8
rdata$r	ENDS
;	COMDAT ??_R1A@?0A@A@CUIManager@@8
rdata$r	SEGMENT
??_R1A@?0A@A@CUIManager@@8 DD FLAT:??_R0?AVCUIManager@@@8 ; CUIManager::`RTTI Base Class Descriptor at (0,-1,0,0)'
	DD	01H
	DD	00H
	DD	0ffffffffH
	DD	00H
	DD	00H
rdata$r	ENDS
;	COMDAT ??_R1A@?0A@A@IUIManager@@8
rdata$r	SEGMENT
??_R1A@?0A@A@IUIManager@@8 DD FLAT:??_R0?AVIUIManager@@@8 ; IUIManager::`RTTI Base Class Descriptor at (0,-1,0,0)'
	DD	00H
	DD	00H
	DD	0ffffffffH
	DD	00H
	DD	00H
rdata$r	ENDS
;	COMDAT ??_R0?AVIUIManager@@@8
_DATA	SEGMENT
??_R0?AVIUIManager@@@8 DD FLAT:??_7type_info@@6B@	; IUIManager `RTTI Type Descriptor'
	DD	00H
	DB	'.?AVIUIManager@@', 00H
; Function compile flags: /Odt
_DATA	ENDS
_TEXT	SEGMENT
_this$ = -16						; size = 4
__$EHRec$ = -12						; size = 12
??0CUIManager@@QAE@XZ PROC NEAR				; CUIManager::CUIManager
; _this$ = ecx

; 25   : {

  00000	55		 push	 ebp
  00001	8b ec		 mov	 ebp, esp
  00003	6a ff		 push	 -1
  00005	68 00 00 00 00	 push	 __ehhandler$??0CUIManager@@QAE@XZ
  0000a	64 a1 00 00 00
	00		 mov	 eax, DWORD PTR fs:__except_list
  00010	50		 push	 eax
  00011	64 89 25 00 00
	00 00		 mov	 DWORD PTR fs:__except_list, esp
  00018	51		 push	 ecx
  00019	89 4d f0	 mov	 DWORD PTR _this$[ebp], ecx
  0001c	8b 4d f0	 mov	 ecx, DWORD PTR _this$[ebp]
  0001f	e8 00 00 00 00	 call	 ??0IUIManager@@QAE@XZ
  00024	c7 45 fc 00 00
	00 00		 mov	 DWORD PTR __$EHRec$[ebp+8], 0
  0002b	8b 45 f0	 mov	 eax, DWORD PTR _this$[ebp]
  0002e	c7 00 00 00 00
	00		 mov	 DWORD PTR [eax], OFFSET FLAT:??_7CUIManager@@6B@
  00034	6a 00		 push	 0
  00036	8b 4d f0	 mov	 ecx, DWORD PTR _this$[ebp]
  00039	83 c1 18	 add	 ecx, 24			; 00000018H
  0003c	e8 00 00 00 00	 call	 ??0ETSSplitter@@QAE@PBD@Z ; ETSSplitter::ETSSplitter
  00041	c6 45 fc 01	 mov	 BYTE PTR __$EHRec$[ebp+8], 1
  00045	8b 4d f0	 mov	 ecx, DWORD PTR _this$[ebp]
  00048	81 c1 d8 00 00
	00		 add	 ecx, 216		; 000000d8H
  0004e	e8 00 00 00 00	 call	 ??0?$vector@KV?$allocator@K@std@@@std@@QAE@XZ ; std::vector<unsigned long,std::allocator<unsigned long> >::vector<unsigned long,std::allocator<unsigned long> >

; 26   : }

  00053	c7 45 fc ff ff
	ff ff		 mov	 DWORD PTR __$EHRec$[ebp+8], -1
  0005a	8b 45 f0	 mov	 eax, DWORD PTR _this$[ebp]
  0005d	8b 4d f4	 mov	 ecx, DWORD PTR __$EHRec$[ebp]
  00060	64 89 0d 00 00
	00 00		 mov	 DWORD PTR fs:__except_list, ecx
  00067	8b e5		 mov	 esp, ebp
  00069	5d		 pop	 ebp
  0006a	c3		 ret	 0
_TEXT	ENDS
text$x	SEGMENT
$L211252:
  00000	8b 4d f0	 mov	 ecx, DWORD PTR _this$[ebp]
  00003	e9 00 00 00 00	 jmp	 ??1IUIManager@@UAE@XZ	; IUIManager::~IUIManager
$L211253:
  00008	8b 4d f0	 mov	 ecx, DWORD PTR _this$[ebp]
  0000b	83 c1 18	 add	 ecx, 24			; 00000018H
  0000e	e9 00 00 00 00	 jmp	 ??1ETSSplitter@@UAE@XZ	; ETSSplitter::~ETSSplitter
__ehhandler$??0CUIManager@@QAE@XZ:
  00013	b8 00 00 00 00	 mov	 eax, OFFSET FLAT:$T211258
  00018	e9 00 00 00 00	 jmp	 ___CxxFrameHandler
text$x	ENDS
??0CUIManager@@QAE@XZ ENDP				; CUIManager::CUIManager
PUBLIC	??1CUIManager@@UAE@XZ				; CUIManager::~CUIManager
EXTRN	??3@YAXPAX@Z:NEAR				; operator delete
; Function compile flags: /Odt
;	COMDAT ??_GCUIManager@@UAEPAXI@Z
_TEXT	SEGMENT
_this$ = -4						; size = 4
___flags$ = 8						; size = 4
??_GCUIManager@@UAEPAXI@Z PROC NEAR			; CUIManager::`scalar deleting destructor', COMDAT
; _this$ = ecx
  00000	55		 push	 ebp
  00001	8b ec		 mov	 ebp, esp
  00003	51		 push	 ecx
  00004	89 4d fc	 mov	 DWORD PTR _this$[ebp], ecx
  00007	8b 4d fc	 mov	 ecx, DWORD PTR _this$[ebp]
  0000a	e8 00 00 00 00	 call	 ??1CUIManager@@UAE@XZ	; CUIManager::~CUIManager
  0000f	8b 45 08	 mov	 eax, DWORD PTR ___flags$[ebp]
  00012	83 e0 01	 and	 eax, 1
  00015	74 0c		 je	 SHORT $L207607
  00017	8b 4d fc	 mov	 ecx, DWORD PTR _this$[ebp]
  0001a	51		 push	 ecx
  0001b	e8 00 00 00 00	 call	 ??3@YAXPAX@Z		; operator delete
  00020	83 c4 04	 add	 esp, 4
$L207607:
  00023	8b 45 fc	 mov	 eax, DWORD PTR _this$[ebp]
  00026	8b e5		 mov	 esp, ebp
  00028	5d		 pop	 ebp
  00029	c2 04 00	 ret	 4
??_GCUIManager@@UAEPAXI@Z ENDP				; CUIManager::`scalar deleting destructor'
_TEXT	ENDS
PUBLIC	??_R4IUIManager@@6B@				; IUIManager::`RTTI Complete Object Locator'
PUBLIC	??_R3IUIManager@@8				; IUIManager::`RTTI Class Hierarchy Descriptor'
PUBLIC	??_R2IUIManager@@8				; IUIManager::`RTTI Base Class Array'
PUBLIC	??_7IUIManager@@6B@				; IUIManager::`vftable'
PUBLIC	??_GIUIManager@@UAEPAXI@Z			; IUIManager::`scalar deleting destructor'
EXTRN	__purecall:NEAR
EXTRN	??_EIUIManager@@UAEPAXI@Z:NEAR			; IUIManager::`vector deleting destructor'
;	COMDAT ??_7IUIManager@@6B@
CONST	SEGMENT
??_7IUIManager@@6B@ DD FLAT:??_R4IUIManager@@6B@	; IUIManager::`vftable'
	DD	FLAT:??_EIUIManager@@UAEPAXI@Z
	DD	FLAT:__purecall
	DD	FLAT:__purecall
	DD	FLAT:__purecall
	DD	FLAT:__purecall
	DD	FLAT:__purecall
	DD	FLAT:__purecall
	DD	FLAT:__purecall
	DD	FLAT:__purecall
	DD	FLAT:__purecall
	DD	FLAT:__purecall
	DD	FLAT:__purecall
	DD	FLAT:__purecall
	DD	FLAT:__purecall
	DD	FLAT:__purecall
CONST	ENDS
;	COMDAT ??_R4IUIManager@@6B@
rdata$r	SEGMENT
??_R4IUIManager@@6B@ DD 00H				; IUIManager::`RTTI Complete Object Locator'
	DD	00H
	DD	00H
	DD	FLAT:??_R0?AVIUIManager@@@8
	DD	FLAT:??_R3IUIManager@@8
rdata$r	ENDS
;	COMDAT ??_R3IUIManager@@8
rdata$r	SEGMENT
??_R3IUIManager@@8 DD 00H				; IUIManager::`RTTI Class Hierarchy Descriptor'
	DD	00H
	DD	01H
	DD	FLAT:??_R2IUIManager@@8
rdata$r	ENDS
;	COMDAT ??_R2IUIManager@@8
rdata$r	SEGMENT
??_R2IUIManager@@8 DD FLAT:??_R1A@?0A@A@IUIManager@@8	; IUIManager::`RTTI Base Class Array'
; Function compile flags: /Odt
rdata$r	ENDS
;	COMDAT ??0IUIManager@@QAE@XZ
_TEXT	SEGMENT
_this$ = -4						; size = 4
??0IUIManager@@QAE@XZ PROC NEAR				; IUIManager::IUIManager, COMDAT
; _this$ = ecx
  00000	55		 push	 ebp
  00001	8b ec		 mov	 ebp, esp
  00003	51		 push	 ecx
  00004	89 4d fc	 mov	 DWORD PTR _this$[ebp], ecx
  00007	8b 45 fc	 mov	 eax, DWORD PTR _this$[ebp]
  0000a	c7 00 00 00 00
	00		 mov	 DWORD PTR [eax], OFFSET FLAT:??_7IUIManager@@6B@
  00010	8b 45 fc	 mov	 eax, DWORD PTR _this$[ebp]
  00013	8b e5		 mov	 esp, ebp
  00015	5d		 pop	 ebp
  00016	c3		 ret	 0
??0IUIManager@@QAE@XZ ENDP				; IUIManager::IUIManager
_TEXT	ENDS
PUBLIC	??1?$vector@KV?$allocator@K@std@@@std@@QAE@XZ	; std::vector<unsigned long,std::allocator<unsigned long> >::~vector<unsigned long,std::allocator<unsigned long> >
xdata$x	SEGMENT
$T211274 DD	0ffffffffH
	DD	FLAT:$L211268
	DD	00H
	DD	FLAT:$L211269
$T211272 DD	019930520H
	DD	02H
	DD	FLAT:$T211274
	DD	2 DUP(00H)
	DD	2 DUP(00H)
; Function compile flags: /Odt
xdata$x	ENDS
_TEXT	SEGMENT
_this$ = -16						; size = 4
__$EHRec$ = -12						; size = 12
??1CUIManager@@UAE@XZ PROC NEAR				; CUIManager::~CUIManager
; _this$ = ecx

; 29   : {

  00070	55		 push	 ebp
  00071	8b ec		 mov	 ebp, esp
  00073	6a ff		 push	 -1
  00075	68 00 00 00 00	 push	 __ehhandler$??1CUIManager@@UAE@XZ
  0007a	64 a1 00 00 00
	00		 mov	 eax, DWORD PTR fs:__except_list
  00080	50		 push	 eax
  00081	64 89 25 00 00
	00 00		 mov	 DWORD PTR fs:__except_list, esp
  00088	51		 push	 ecx
  00089	89 4d f0	 mov	 DWORD PTR _this$[ebp], ecx
  0008c	8b 45 f0	 mov	 eax, DWORD PTR _this$[ebp]
  0008f	c7 00 00 00 00
	00		 mov	 DWORD PTR [eax], OFFSET FLAT:??_7CUIManager@@6B@
  00095	c7 45 fc 01 00
	00 00		 mov	 DWORD PTR __$EHRec$[ebp+8], 1

; 30   : }

  0009c	8b 4d f0	 mov	 ecx, DWORD PTR _this$[ebp]
  0009f	81 c1 d8 00 00
	00		 add	 ecx, 216		; 000000d8H
  000a5	e8 00 00 00 00	 call	 ??1?$vector@KV?$allocator@K@std@@@std@@QAE@XZ ; std::vector<unsigned long,std::allocator<unsigned long> >::~vector<unsigned long,std::allocator<unsigned long> >
  000aa	c6 45 fc 00	 mov	 BYTE PTR __$EHRec$[ebp+8], 0
  000ae	8b 4d f0	 mov	 ecx, DWORD PTR _this$[ebp]
  000b1	83 c1 18	 add	 ecx, 24			; 00000018H
  000b4	e8 00 00 00 00	 call	 ??1ETSSplitter@@UAE@XZ	; ETSSplitter::~ETSSplitter
  000b9	c7 45 fc ff ff
	ff ff		 mov	 DWORD PTR __$EHRec$[ebp+8], -1
  000c0	8b 4d f0	 mov	 ecx, DWORD PTR _this$[ebp]
  000c3	e8 00 00 00 00	 call	 ??1IUIManager@@UAE@XZ	; IUIManager::~IUIManager
  000c8	8b 4d f4	 mov	 ecx, DWORD PTR __$EHRec$[ebp]
  000cb	64 89 0d 00 00
	00 00		 mov	 DWORD PTR fs:__except_list, ecx
  000d2	8b e5		 mov	 esp, ebp
  000d4	5d		 pop	 ebp
  000d5	c3		 ret	 0
_TEXT	ENDS
text$x	SEGMENT
$L211268:
  0001d	8b 4d f0	 mov	 ecx, DWORD PTR _this$[ebp]
  00020	e9 00 00 00 00	 jmp	 ??1IUIManager@@UAE@XZ	; IUIManager::~IUIManager
$L211269:
  00025	8b 4d f0	 mov	 ecx, DWORD PTR _this$[ebp]
  00028	83 c1 18	 add	 ecx, 24			; 00000018H
  0002b	e9 00 00 00 00	 jmp	 ??1ETSSplitter@@UAE@XZ	; ETSSplitter::~ETSSplitter
__ehhandler$??1CUIManager@@UAE@XZ:
  00030	b8 00 00 00 00	 mov	 eax, OFFSET FLAT:$T211272
  00035	e9 00 00 00 00	 jmp	 ___CxxFrameHandler
text$x	ENDS
??1CUIManager@@UAE@XZ ENDP				; CUIManager::~CUIManager
PUBLIC	??0CRect@@QAE@HHHH@Z				; CRect::CRect
PUBLIC	??2CObject@@SGPAXI@Z				; CObject::operator new
PUBLIC	??3CObject@@SGXPAX@Z				; CObject::operator delete
PUBLIC	??$?HDU?$char_traits@D@std@@V?$allocator@D@1@@std@@YA?AV?$basic_string@DU?$char_traits@D@std@@V?$allocator@D@2@@0@ABV10@PBD@Z ; std::operator+<char,std::char_traits<char>,std::allocator<char> >
EXTRN	?IsValid@YL_FileInfo@@SA_NABV?$basic_string@DU?$char_traits@D@std@@V?$allocator@D@2@@std@@@Z:NEAR ; YL_FileInfo::IsValid
EXTRN	?GetSkinConfPath@GlobalFunc@@SA_NAAV?$basic_string@DU?$char_traits@D@std@@V?$allocator@D@2@@std@@@Z:NEAR ; GlobalFunc::GetSkinConfPath
EXTRN	?GetSkinPath@GlobalFunc@@SA_NAAV?$basic_string@DU?$char_traits@D@std@@V?$allocator@D@2@@std@@@Z:NEAR ; GlobalFunc::GetSkinPath
EXTRN	__imp_??B?$CSimpleStringT@D$00@ATL@@QBEPBDXZ:NEAR
EXTRN	?GetObjectA@CSkinMgrV1@@SAPAVIChangeColorMgr@@XZ:NEAR ; CSkinMgrV1::GetObjectA
EXTRN	??2@YAPAXI@Z:NEAR				; operator new
EXTRN	__imp_?c_str@?$basic_string@DU?$char_traits@D@std@@V?$allocator@D@2@@std@@QBEPBDXZ:NEAR
EXTRN	__imp_??0?$CStringT@DV?$StrTraitMFC_DLL@DV?$ChTraitsCRT@D@ATL@@@@@ATL@@QAE@PBD@Z:NEAR
EXTRN	__imp_??1?$CStringT@DV?$StrTraitMFC_DLL@DV?$ChTraitsCRT@D@ATL@@@@@ATL@@QAE@XZ:NEAR
EXTRN	?GetConfigStringValue@AfxUserConfig@@QAEXABV?$basic_string@DU?$char_traits@D@std@@V?$allocator@D@2@@std@@0AAV23@@Z:NEAR ; AfxUserConfig::GetConfigStringValue
EXTRN	?SetConfigStringValue@AfxUserConfig@@QAEXABV?$basic_string@DU?$char_traits@D@std@@V?$allocator@D@2@@std@@00_N@Z:NEAR ; AfxUserConfig::SetConfigStringValue
EXTRN	?GetConfigIntValue@AfxUserConfig@@QAEXABV?$basic_string@DU?$char_traits@D@std@@V?$allocator@D@2@@std@@0AAH@Z:NEAR ; AfxUserConfig::GetConfigIntValue
EXTRN	?SetConfigIntValue@AfxUserConfig@@QAEXABV?$basic_string@DU?$char_traits@D@std@@V?$allocator@D@2@@std@@0H_N@Z:NEAR ; AfxUserConfig::SetConfigIntValue
EXTRN	??0CPanesMgr@@QAE@XZ:NEAR			; CPanesMgr::CPanesMgr
EXTRN	_CoolSB_InitializeApp@0:NEAR
EXTRN	__imp_?YL_Log@@YAXABV?$basic_string@DU?$char_traits@D@std@@V?$allocator@D@2@@std@@H0PBDZZ:NEAR
EXTRN	?CreateLoadSubjectTread@CPanesMgr@@QAEXXZ:NEAR	; CPanesMgr::CreateLoadSubjectTread
EXTRN	??0CSkinMgr@@QAE@XZ:NEAR			; CSkinMgr::CSkinMgr
EXTRN	?GetInstance@CTabPageControl@@SAPAV1@XZ:NEAR	; CTabPageControl::GetInstance
EXTRN	?OpenHomePage@CTabPageControl@@QAEXXZ:NEAR	; CTabPageControl::OpenHomePage
EXTRN	__imp__PathFileExistsA@4:NEAR
EXTRN	__imp_??$?9DU?$char_traits@D@std@@V?$allocator@D@1@@std@@YA_NABV?$basic_string@DU?$char_traits@D@std@@V?$allocator@D@2@@0@PBD@Z:NEAR
EXTRN	__imp_??0?$basic_string@DU?$char_traits@D@std@@V?$allocator@D@2@@std@@QAE@XZ:NEAR
EXTRN	?LoadSkinFromPath@CSkinMgr@@QAEXPBD@Z:NEAR	; CSkinMgr::LoadSkinFromPath
EXTRN	__imp_??0?$basic_string@DU?$char_traits@D@std@@V?$allocator@D@2@@std@@QAE@PBD@Z:NEAR
EXTRN	__imp_??1?$basic_string@DU?$char_traits@D@std@@V?$allocator@D@2@@std@@QAE@XZ:NEAR
EXTRN	?AfxGetUIManager@@YAPAVIUIManager@@XZ:NEAR	; AfxGetUIManager
EXTRN	?AfxGetMainWindow@@YAPAVCWnd@@XZ:NEAR		; AfxGetMainWindow
EXTRN	?AfxGetUserConfig@@YAPAVAfxUserConfig@@XZ:NEAR	; AfxGetUserConfig
xdata$x	SEGMENT
$T211370 DD	0ffffffffH
	DD	FLAT:$L211323
	DD	00H
	DD	FLAT:$L211324
	DD	0ffffffffH
	DD	FLAT:$L211325
	DD	0ffffffffH
	DD	FLAT:$L211326
	DD	0ffffffffH
	DD	FLAT:$L211327
	DD	04H
	DD	FLAT:$L211328
	DD	05H
	DD	FLAT:$L211329
	DD	06H
	DD	FLAT:$L211330
	DD	05H
	DD	FLAT:$L211331
	DD	08H
	DD	FLAT:$L211332
	DD	05H
	DD	FLAT:$L211336
	DD	05H
	DD	FLAT:$L211338
	DD	0bH
	DD	FLAT:$L211339
	DD	05H
	DD	FLAT:$L211339
	DD	0dH
	DD	FLAT:$L211340
	DD	0eH
	DD	FLAT:$L211341
	DD	0fH
	DD	FLAT:$L211342
	DD	010H
	DD	FLAT:$L211343
	DD	0fH
	DD	FLAT:$L211345
	DD	0fH
	DD	FLAT:$L211346
	DD	0fH
	DD	FLAT:$L211347
	DD	014H
	DD	FLAT:$L211348
	DD	0fH
	DD	FLAT:$L211349
	DD	016H
	DD	FLAT:$L211350
	DD	017H
	DD	FLAT:$L211351
	DD	0fH
	DD	FLAT:$L211352
	DD	019H
	DD	FLAT:$L211353
	DD	0fH
	DD	FLAT:$L211354
	DD	01bH
	DD	FLAT:$L211355
	DD	0eH
	DD	FLAT:$L211356
	DD	01dH
	DD	FLAT:$L211357
	DD	0eH
	DD	FLAT:$L211358
	DD	01fH
	DD	FLAT:$L211359
	DD	0eH
	DD	FLAT:$L211360
	DD	021H
	DD	FLAT:$L211361
	DD	0eH
	DD	FLAT:$L211362
	DD	023H
	DD	FLAT:$L211363
	DD	0eH
	DD	FLAT:$L211364
	DD	025H
	DD	FLAT:$L211365
$T211367 DD	019930520H
	DD	027H
	DD	FLAT:$T211370
	DD	2 DUP(00H)
	DD	2 DUP(00H)
; Function compile flags: /Odt
xdata$x	ENDS
_TEXT	SEGMENT
tv662 = -1144						; size = 4
tv657 = -1140						; size = 4
tv652 = -1136						; size = 4
tv647 = -1132						; size = 4
tv636 = -1128						; size = 4
tv631 = -1124						; size = 4
tv621 = -1120						; size = 4
tv616 = -1116						; size = 4
tv579 = -1112						; size = 4
tv574 = -1108						; size = 4
tv467 = -1104						; size = 4
tv462 = -1100						; size = 4
tv445 = -1096						; size = 4
tv440 = -1092						; size = 4
tv747 = -1088						; size = 4
tv740 = -1084						; size = 4
tv157 = -1080						; size = 4
tv738 = -1076						; size = 4
tv735 = -1072						; size = 4
tv162 = -1068						; size = 4
tv733 = -1064						; size = 4
tv256 = -1060						; size = 4
tv251 = -1056						; size = 4
tv261 = -1052						; size = 4
tv730 = -1048						; size = 4
tv726 = -1041						; size = 1
tv725 = -1040						; size = 4
tv92 = -1036						; size = 4
tv84 = -1032						; size = 4
_this$ = -1028						; size = 4
$T211322 = -1021					; size = 1
$T211321 = -1020					; size = 28
$T211320 = -992						; size = 28
$T211319 = -964						; size = 28
$T211318 = -936						; size = 28
$T211317 = -908						; size = 28
$T211316 = -880						; size = 28
$T211315 = -852						; size = 28
$T211314 = -824						; size = 28
$T211313 = -796						; size = 28
$T211312 = -768						; size = 28
$T211311 = -740						; size = 28
$T211310 = -712						; size = 28
$T211309 = -684						; size = 28
$T211308 = -656						; size = 28
$T211307 = -628						; size = 28
$T211306 = -600						; size = 28
$T211305 = -572						; size = 28
$T211304 = -544						; size = 28
$T211303 = -516						; size = 28
$T211302 = -488						; size = 4
$T211301 = -484						; size = 4
$T211300 = -480						; size = 4
$T211299 = -476						; size = 28
$T211298 = -448						; size = 28
$T211297 = -420						; size = 4
$T211296 = -416						; size = 4
$T211295 = -412						; size = 4
$T211294 = -408						; size = 4
$T211293 = -404						; size = 4
$T211292 = -397						; size = 1
$T211291 = -396						; size = 4
$T211290 = -392						; size = 28
$T211289 = -364						; size = 28
$T211288 = -336						; size = 28
$T211287 = -308						; size = 28
$T211284 = -280						; size = 4
$T211283 = -276						; size = 4
$T211280 = -272						; size = 4
$T211279 = -268						; size = 4
$T211278 = -264						; size = 28
$T211277 = -236						; size = 28
_pSub$207690 = -208					; size = 4
_iColorIndex$207669 = -204				; size = 4
_pSub$207665 = -200					; size = 4
_szCurSkin$207658 = -196				; size = 28
_strSubPath$ = -168					; size = 28
_bSubError$ = -138					; size = 1
_bNotifySub$ = -137					; size = 1
_strPath$ = -136					; size = 28
_light$ = -108						; size = 4
_strSkinConfPath$ = -104				; size = 28
_bSub$ = -73						; size = 1
_pMainWnd$ = -72					; size = 4
_bSetXml$ = -65						; size = 1
_color$ = -64						; size = 4
_rectNull$ = -60					; size = 16
_strSkinPath$ = -44					; size = 28
__$ArrayPad$ = -16					; size = 4
__$EHRec$ = -12						; size = 12
__$ReturnAddr$ = 4					; size = 4
?UIManAppStart@CUIManager@@UAE_NXZ PROC NEAR		; CUIManager::UIManAppStart
; _this$ = ecx

; 34   : {	

  000e0	55		 push	 ebp
  000e1	8b ec		 mov	 ebp, esp
  000e3	6a ff		 push	 -1
  000e5	68 00 00 00 00	 push	 __ehhandler$?UIManAppStart@CUIManager@@UAE_NXZ
  000ea	64 a1 00 00 00
	00		 mov	 eax, DWORD PTR fs:__except_list
  000f0	50		 push	 eax
  000f1	64 89 25 00 00
	00 00		 mov	 DWORD PTR fs:__except_list, esp
  000f8	81 ec 6c 04 00
	00		 sub	 esp, 1132		; 0000046cH
  000fe	a1 00 00 00 00	 mov	 eax, DWORD PTR ___security_cookie
  00103	89 45 f0	 mov	 DWORD PTR __$ArrayPad$[ebp], eax
  00106	89 8d fc fb ff
	ff		 mov	 DWORD PTR _this$[ebp], ecx

; 35   : 	YL_Log( STR_LOG_FILE,LOG_NOTICE,"CUIManager","UIManAppStart======IN" );

  0010c	68 00 00 00 00	 push	 OFFSET FLAT:$SG207619
  00111	8d 8d 14 ff ff
	ff		 lea	 ecx, DWORD PTR $T211277[ebp]
  00117	ff 15 00 00 00
	00		 call	 DWORD PTR __imp_??0?$basic_string@DU?$char_traits@D@std@@V?$allocator@D@2@@std@@QAE@PBD@Z
  0011d	c7 45 fc 00 00
	00 00		 mov	 DWORD PTR __$EHRec$[ebp+8], 0
  00124	68 00 00 00 00	 push	 OFFSET FLAT:$SG207620
  00129	8d 8d f8 fe ff
	ff		 lea	 ecx, DWORD PTR $T211278[ebp]
  0012f	ff 15 00 00 00
	00		 call	 DWORD PTR __imp_??0?$basic_string@DU?$char_traits@D@std@@V?$allocator@D@2@@std@@QAE@PBD@Z
  00135	c6 45 fc 01	 mov	 BYTE PTR __$EHRec$[ebp+8], 1
  00139	68 00 00 00 00	 push	 OFFSET FLAT:$SG207618
  0013e	8d 85 14 ff ff
	ff		 lea	 eax, DWORD PTR $T211277[ebp]
  00144	50		 push	 eax
  00145	6a 01		 push	 1
  00147	8d 8d f8 fe ff
	ff		 lea	 ecx, DWORD PTR $T211278[ebp]
  0014d	51		 push	 ecx
  0014e	ff 15 00 00 00
	00		 call	 DWORD PTR __imp_?YL_Log@@YAXABV?$basic_string@DU?$char_traits@D@std@@V?$allocator@D@2@@std@@H0PBDZZ
  00154	83 c4 10	 add	 esp, 16			; 00000010H
  00157	c6 45 fc 00	 mov	 BYTE PTR __$EHRec$[ebp+8], 0
  0015b	8d 8d f8 fe ff
	ff		 lea	 ecx, DWORD PTR $T211278[ebp]
  00161	ff 15 00 00 00
	00		 call	 DWORD PTR __imp_??1?$basic_string@DU?$char_traits@D@std@@V?$allocator@D@2@@std@@QAE@XZ
  00167	c7 45 fc ff ff
	ff ff		 mov	 DWORD PTR __$EHRec$[ebp+8], -1
  0016e	8d 8d 14 ff ff
	ff		 lea	 ecx, DWORD PTR $T211277[ebp]
  00174	ff 15 00 00 00
	00		 call	 DWORD PTR __imp_??1?$basic_string@DU?$char_traits@D@std@@V?$allocator@D@2@@std@@QAE@XZ

; 36   : 
; 37   : 	//
; 38   : 	CoolSB_InitializeApp();

  0017a	e8 00 00 00 00	 call	 _CoolSB_InitializeApp@0

; 39   : 
; 40   : 	m_pAppSkin			= new CSkinMgr();

  0017f	68 f8 00 00 00	 push	 248			; 000000f8H
  00184	e8 00 00 00 00	 call	 ??2CObject@@SGPAXI@Z	; CObject::operator new
  00189	89 85 f0 fe ff
	ff		 mov	 DWORD PTR $T211280[ebp], eax
  0018f	c7 45 fc 02 00
	00 00		 mov	 DWORD PTR __$EHRec$[ebp+8], 2
  00196	83 bd f0 fe ff
	ff 00		 cmp	 DWORD PTR $T211280[ebp], 0
  0019d	74 13		 je	 SHORT $L211281
  0019f	8b 8d f0 fe ff
	ff		 mov	 ecx, DWORD PTR $T211280[ebp]
  001a5	e8 00 00 00 00	 call	 ??0CSkinMgr@@QAE@XZ	; CSkinMgr::CSkinMgr
  001aa	89 85 f8 fb ff
	ff		 mov	 DWORD PTR tv84[ebp], eax
  001b0	eb 0a		 jmp	 SHORT $L211282
$L211281:
  001b2	c7 85 f8 fb ff
	ff 00 00 00 00	 mov	 DWORD PTR tv84[ebp], 0
$L211282:
  001bc	8b 95 f8 fb ff
	ff		 mov	 edx, DWORD PTR tv84[ebp]
  001c2	89 95 f4 fe ff
	ff		 mov	 DWORD PTR $T211279[ebp], edx
  001c8	c7 45 fc ff ff
	ff ff		 mov	 DWORD PTR __$EHRec$[ebp+8], -1
  001cf	8b 85 fc fb ff
	ff		 mov	 eax, DWORD PTR _this$[ebp]
  001d5	8b 8d f4 fe ff
	ff		 mov	 ecx, DWORD PTR $T211279[ebp]
  001db	89 88 ec 00 00
	00		 mov	 DWORD PTR [eax+236], ecx

; 41   : 	m_pPanesMgr			= new CPanesMgr();

  001e1	68 1c 01 00 00	 push	 284			; 0000011cH
  001e6	e8 00 00 00 00	 call	 ??2@YAPAXI@Z		; operator new
  001eb	83 c4 04	 add	 esp, 4
  001ee	89 85 e8 fe ff
	ff		 mov	 DWORD PTR $T211284[ebp], eax
  001f4	c7 45 fc 03 00
	00 00		 mov	 DWORD PTR __$EHRec$[ebp+8], 3
  001fb	83 bd e8 fe ff
	ff 00		 cmp	 DWORD PTR $T211284[ebp], 0
  00202	74 13		 je	 SHORT $L211285
  00204	8b 8d e8 fe ff
	ff		 mov	 ecx, DWORD PTR $T211284[ebp]
  0020a	e8 00 00 00 00	 call	 ??0CPanesMgr@@QAE@XZ	; CPanesMgr::CPanesMgr
  0020f	89 85 f4 fb ff
	ff		 mov	 DWORD PTR tv92[ebp], eax
  00215	eb 0a		 jmp	 SHORT $L211286
$L211285:
  00217	c7 85 f4 fb ff
	ff 00 00 00 00	 mov	 DWORD PTR tv92[ebp], 0
$L211286:
  00221	8b 95 f4 fb ff
	ff		 mov	 edx, DWORD PTR tv92[ebp]
  00227	89 95 ec fe ff
	ff		 mov	 DWORD PTR $T211283[ebp], edx
  0022d	c7 45 fc ff ff
	ff ff		 mov	 DWORD PTR __$EHRec$[ebp+8], -1
  00234	8b 85 fc fb ff
	ff		 mov	 eax, DWORD PTR _this$[ebp]
  0023a	8b 8d ec fe ff
	ff		 mov	 ecx, DWORD PTR $T211283[ebp]
  00240	89 88 e8 00 00
	00		 mov	 DWORD PTR [eax+232], ecx

; 42   : 	m_pChangeColorMgr	= CSkinMgrV1::GetObject();

  00246	e8 00 00 00 00	 call	 ?GetObjectA@CSkinMgrV1@@SAPAVIChangeColorMgr@@XZ ; CSkinMgrV1::GetObjectA
  0024b	8b 95 fc fb ff
	ff		 mov	 edx, DWORD PTR _this$[ebp]
  00251	89 82 f0 00 00
	00		 mov	 DWORD PTR [edx+240], eax

; 43   : 
; 44   : 	string strSkinPath;

  00257	8d 4d d4	 lea	 ecx, DWORD PTR _strSkinPath$[ebp]
  0025a	ff 15 00 00 00
	00		 call	 DWORD PTR __imp_??0?$basic_string@DU?$char_traits@D@std@@V?$allocator@D@2@@std@@QAE@XZ
  00260	c7 45 fc 04 00
	00 00		 mov	 DWORD PTR __$EHRec$[ebp+8], 4

; 45   : 	GlobalFunc::GetSkinPath( strSkinPath );

  00267	8d 45 d4	 lea	 eax, DWORD PTR _strSkinPath$[ebp]
  0026a	50		 push	 eax
  0026b	e8 00 00 00 00	 call	 ?GetSkinPath@GlobalFunc@@SA_NAAV?$basic_string@DU?$char_traits@D@std@@V?$allocator@D@2@@std@@@Z ; GlobalFunc::GetSkinPath
  00270	83 c4 04	 add	 esp, 4

; 46   : 
; 47   : 	string strSkinConfPath;

  00273	8d 4d 98	 lea	 ecx, DWORD PTR _strSkinConfPath$[ebp]
  00276	ff 15 00 00 00
	00		 call	 DWORD PTR __imp_??0?$basic_string@DU?$char_traits@D@std@@V?$allocator@D@2@@std@@QAE@XZ
  0027c	c6 45 fc 05	 mov	 BYTE PTR __$EHRec$[ebp+8], 5

; 48   : 	GlobalFunc::GetSkinConfPath( strSkinConfPath );

  00280	8d 4d 98	 lea	 ecx, DWORD PTR _strSkinConfPath$[ebp]
  00283	51		 push	 ecx
  00284	e8 00 00 00 00	 call	 ?GetSkinConfPath@GlobalFunc@@SA_NAAV?$basic_string@DU?$char_traits@D@std@@V?$allocator@D@2@@std@@@Z ; GlobalFunc::GetSkinConfPath
  00289	83 c4 04	 add	 esp, 4

; 49   : 
; 50   : 	if( !YL_FileInfo::IsValid( strSkinConfPath ) )

  0028c	8d 55 98	 lea	 edx, DWORD PTR _strSkinConfPath$[ebp]
  0028f	52		 push	 edx
  00290	e8 00 00 00 00	 call	 ?IsValid@YL_FileInfo@@SA_NABV?$basic_string@DU?$char_traits@D@std@@V?$allocator@D@2@@std@@@Z ; YL_FileInfo::IsValid
  00295	83 c4 04	 add	 esp, 4
  00298	0f b6 c0	 movzx	 eax, al
  0029b	85 c0		 test	 eax, eax
  0029d	0f 85 d7 00 00
	00		 jne	 $L207631

; 51   : 	{
; 52   : 		AfxGetUserConfig()->SetConfigIntValue(CONF_SETTING_MODULE_NAME, CONF_SETTING_LIGHT, 120);

  002a3	8b 0d 00 00 00
	00		 mov	 ecx, DWORD PTR _CONF_SETTING_LIGHT
  002a9	51		 push	 ecx
  002aa	8d 8d cc fe ff
	ff		 lea	 ecx, DWORD PTR $T211287[ebp]
  002b0	ff 15 00 00 00
	00		 call	 DWORD PTR __imp_??0?$basic_string@DU?$char_traits@D@std@@V?$allocator@D@2@@std@@QAE@PBD@Z
  002b6	c6 45 fc 06	 mov	 BYTE PTR __$EHRec$[ebp+8], 6
  002ba	8b 15 00 00 00
	00		 mov	 edx, DWORD PTR _CONF_SETTING_MODULE_NAME
  002c0	52		 push	 edx
  002c1	8d 8d b0 fe ff
	ff		 lea	 ecx, DWORD PTR $T211288[ebp]
  002c7	ff 15 00 00 00
	00		 call	 DWORD PTR __imp_??0?$basic_string@DU?$char_traits@D@std@@V?$allocator@D@2@@std@@QAE@PBD@Z
  002cd	c6 45 fc 07	 mov	 BYTE PTR __$EHRec$[ebp+8], 7
  002d1	6a 00		 push	 0
  002d3	6a 78		 push	 120			; 00000078H
  002d5	8d 85 cc fe ff
	ff		 lea	 eax, DWORD PTR $T211287[ebp]
  002db	50		 push	 eax
  002dc	8d 8d b0 fe ff
	ff		 lea	 ecx, DWORD PTR $T211288[ebp]
  002e2	51		 push	 ecx
  002e3	e8 00 00 00 00	 call	 ?AfxGetUserConfig@@YAPAVAfxUserConfig@@XZ ; AfxGetUserConfig
  002e8	8b c8		 mov	 ecx, eax
  002ea	e8 00 00 00 00	 call	 ?SetConfigIntValue@AfxUserConfig@@QAEXABV?$basic_string@DU?$char_traits@D@std@@V?$allocator@D@2@@std@@0H_N@Z ; AfxUserConfig::SetConfigIntValue
  002ef	c6 45 fc 06	 mov	 BYTE PTR __$EHRec$[ebp+8], 6
  002f3	8d 8d b0 fe ff
	ff		 lea	 ecx, DWORD PTR $T211288[ebp]
  002f9	ff 15 00 00 00
	00		 call	 DWORD PTR __imp_??1?$basic_string@DU?$char_traits@D@std@@V?$allocator@D@2@@std@@QAE@XZ
  002ff	c6 45 fc 05	 mov	 BYTE PTR __$EHRec$[ebp+8], 5
  00303	8d 8d cc fe ff
	ff		 lea	 ecx, DWORD PTR $T211287[ebp]
  00309	ff 15 00 00 00
	00		 call	 DWORD PTR __imp_??1?$basic_string@DU?$char_traits@D@std@@V?$allocator@D@2@@std@@QAE@XZ

; 53   : 		AfxGetUserConfig()->SetConfigIntValue(CONF_SETTING_MODULE_NAME, CONF_SETTING_COLOR, 0);

  0030f	8b 15 00 00 00
	00		 mov	 edx, DWORD PTR _CONF_SETTING_COLOR
  00315	52		 push	 edx
  00316	8d 8d 94 fe ff
	ff		 lea	 ecx, DWORD PTR $T211289[ebp]
  0031c	ff 15 00 00 00
	00		 call	 DWORD PTR __imp_??0?$basic_string@DU?$char_traits@D@std@@V?$allocator@D@2@@std@@QAE@PBD@Z
  00322	c6 45 fc 08	 mov	 BYTE PTR __$EHRec$[ebp+8], 8
  00326	a1 00 00 00 00	 mov	 eax, DWORD PTR _CONF_SETTING_MODULE_NAME
  0032b	50		 push	 eax
  0032c	8d 8d 78 fe ff
	ff		 lea	 ecx, DWORD PTR $T211290[ebp]
  00332	ff 15 00 00 00
	00		 call	 DWORD PTR __imp_??0?$basic_string@DU?$char_traits@D@std@@V?$allocator@D@2@@std@@QAE@PBD@Z
  00338	c6 45 fc 09	 mov	 BYTE PTR __$EHRec$[ebp+8], 9
  0033c	6a 00		 push	 0
  0033e	6a 00		 push	 0
  00340	8d 8d 94 fe ff
	ff		 lea	 ecx, DWORD PTR $T211289[ebp]
  00346	51		 push	 ecx
  00347	8d 95 78 fe ff
	ff		 lea	 edx, DWORD PTR $T211290[ebp]
  0034d	52		 push	 edx
  0034e	e8 00 00 00 00	 call	 ?AfxGetUserConfig@@YAPAVAfxUserConfig@@XZ ; AfxGetUserConfig
  00353	8b c8		 mov	 ecx, eax
  00355	e8 00 00 00 00	 call	 ?SetConfigIntValue@AfxUserConfig@@QAEXABV?$basic_string@DU?$char_traits@D@std@@V?$allocator@D@2@@std@@0H_N@Z ; AfxUserConfig::SetConfigIntValue
  0035a	c6 45 fc 08	 mov	 BYTE PTR __$EHRec$[ebp+8], 8
  0035e	8d 8d 78 fe ff
	ff		 lea	 ecx, DWORD PTR $T211290[ebp]
  00364	ff 15 00 00 00
	00		 call	 DWORD PTR __imp_??1?$basic_string@DU?$char_traits@D@std@@V?$allocator@D@2@@std@@QAE@XZ
  0036a	c6 45 fc 05	 mov	 BYTE PTR __$EHRec$[ebp+8], 5
  0036e	8d 8d 94 fe ff
	ff		 lea	 ecx, DWORD PTR $T211289[ebp]
  00374	ff 15 00 00 00
	00		 call	 DWORD PTR __imp_??1?$basic_string@DU?$char_traits@D@std@@V?$allocator@D@2@@std@@QAE@XZ
$L207631:

; 54   : 	}
; 55   : 
; 56   : 	bool bSetXml = m_pPanesMgr->SetXmlPath( strSkinConfPath.c_str() );

  0037a	8d 4d 98	 lea	 ecx, DWORD PTR _strSkinConfPath$[ebp]
  0037d	ff 15 00 00 00
	00		 call	 DWORD PTR __imp_?c_str@?$basic_string@DU?$char_traits@D@std@@V?$allocator@D@2@@std@@QBEPBDXZ
  00383	51		 push	 ecx
  00384	8b cc		 mov	 ecx, esp
  00386	89 a5 74 fe ff
	ff		 mov	 DWORD PTR $T211291[ebp], esp
  0038c	50		 push	 eax
  0038d	ff 15 00 00 00
	00		 call	 DWORD PTR __imp_??0?$CStringT@DV?$StrTraitMFC_DLL@DV?$ChTraitsCRT@D@ATL@@@@@ATL@@QAE@PBD@Z
  00393	89 85 f0 fb ff
	ff		 mov	 DWORD PTR tv725[ebp], eax
  00399	8b 85 fc fb ff
	ff		 mov	 eax, DWORD PTR _this$[ebp]
  0039f	8b 88 e8 00 00
	00		 mov	 ecx, DWORD PTR [eax+232]
  003a5	8b 95 fc fb ff
	ff		 mov	 edx, DWORD PTR _this$[ebp]
  003ab	8b 82 e8 00 00
	00		 mov	 eax, DWORD PTR [edx+232]
  003b1	8b 11		 mov	 edx, DWORD PTR [ecx]
  003b3	8b c8		 mov	 ecx, eax
  003b5	ff 52 0c	 call	 DWORD PTR [edx+12]
  003b8	88 85 ef fb ff
	ff		 mov	 BYTE PTR tv726[ebp], al
  003be	8a 85 ef fb ff
	ff		 mov	 al, BYTE PTR tv726[ebp]
  003c4	88 45 bf	 mov	 BYTE PTR _bSetXml$[ebp], al

; 57   : 	if( !bSetXml )

  003c7	0f b6 4d bf	 movzx	 ecx, BYTE PTR _bSetXml$[ebp]
  003cb	85 c9		 test	 ecx, ecx
  003cd	75 2f		 jne	 SHORT $L207638

; 58   : 	{
; 59   : 		return false;

  003cf	c6 85 73 fe ff
	ff 00		 mov	 BYTE PTR $T211292[ebp], 0
  003d6	c6 45 fc 04	 mov	 BYTE PTR __$EHRec$[ebp+8], 4
  003da	8d 4d 98	 lea	 ecx, DWORD PTR _strSkinConfPath$[ebp]
  003dd	ff 15 00 00 00
	00		 call	 DWORD PTR __imp_??1?$basic_string@DU?$char_traits@D@std@@V?$allocator@D@2@@std@@QAE@XZ
  003e3	c7 45 fc ff ff
	ff ff		 mov	 DWORD PTR __$EHRec$[ebp+8], -1
  003ea	8d 4d d4	 lea	 ecx, DWORD PTR _strSkinPath$[ebp]
  003ed	ff 15 00 00 00
	00		 call	 DWORD PTR __imp_??1?$basic_string@DU?$char_traits@D@std@@V?$allocator@D@2@@std@@QAE@XZ
  003f3	8a 85 73 fe ff
	ff		 mov	 al, BYTE PTR $T211292[ebp]
  003f9	e9 ad 0a 00 00	 jmp	 $L207615
$L207638:

; 60   : 	}
; 61   : 	m_pAppSkin->SetSkinPath( strSkinPath.c_str() );

  003fe	8d 4d d4	 lea	 ecx, DWORD PTR _strSkinPath$[ebp]
  00401	ff 15 00 00 00
	00		 call	 DWORD PTR __imp_?c_str@?$basic_string@DU?$char_traits@D@std@@V?$allocator@D@2@@std@@QBEPBDXZ
  00407	51		 push	 ecx
  00408	8b cc		 mov	 ecx, esp
  0040a	89 a5 6c fe ff
	ff		 mov	 DWORD PTR $T211293[ebp], esp
  00410	50		 push	 eax
  00411	ff 15 00 00 00
	00		 call	 DWORD PTR __imp_??0?$CStringT@DV?$StrTraitMFC_DLL@DV?$ChTraitsCRT@D@ATL@@@@@ATL@@QAE@PBD@Z
  00417	89 85 e8 fb ff
	ff		 mov	 DWORD PTR tv730[ebp], eax
  0041d	8b 95 fc fb ff
	ff		 mov	 edx, DWORD PTR _this$[ebp]
  00423	8b 82 ec 00 00
	00		 mov	 eax, DWORD PTR [edx+236]
  00429	8b 8d fc fb ff
	ff		 mov	 ecx, DWORD PTR _this$[ebp]
  0042f	8b 89 ec 00 00
	00		 mov	 ecx, DWORD PTR [ecx+236]
  00435	83 c1 04	 add	 ecx, 4
  00438	8b 50 04	 mov	 edx, DWORD PTR [eax+4]
  0043b	ff 52 0c	 call	 DWORD PTR [edx+12]

; 62   : 	m_pAppSkin->LoadSkinFromPath(strSkinPath.c_str());

  0043e	8d 4d d4	 lea	 ecx, DWORD PTR _strSkinPath$[ebp]
  00441	ff 15 00 00 00
	00		 call	 DWORD PTR __imp_?c_str@?$basic_string@DU?$char_traits@D@std@@V?$allocator@D@2@@std@@QBEPBDXZ
  00447	50		 push	 eax
  00448	8b 85 fc fb ff
	ff		 mov	 eax, DWORD PTR _this$[ebp]
  0044e	8b 88 ec 00 00
	00		 mov	 ecx, DWORD PTR [eax+236]
  00454	e8 00 00 00 00	 call	 ?LoadSkinFromPath@CSkinMgr@@QAEXPBD@Z ; CSkinMgr::LoadSkinFromPath

; 63   : 	m_pPanesMgr->SetSkin( m_pAppSkin );

  00459	8b 8d fc fb ff
	ff		 mov	 ecx, DWORD PTR _this$[ebp]
  0045f	8b 91 ec 00 00
	00		 mov	 edx, DWORD PTR [ecx+236]
  00465	52		 push	 edx
  00466	8b 85 fc fb ff
	ff		 mov	 eax, DWORD PTR _this$[ebp]
  0046c	8b 88 e8 00 00
	00		 mov	 ecx, DWORD PTR [eax+232]
  00472	8b 95 fc fb ff
	ff		 mov	 edx, DWORD PTR _this$[ebp]
  00478	8b 82 e8 00 00
	00		 mov	 eax, DWORD PTR [edx+232]
  0047e	8b 11		 mov	 edx, DWORD PTR [ecx]
  00480	8b c8		 mov	 ecx, eax
  00482	ff 52 10	 call	 DWORD PTR [edx+16]

; 64   : 	m_pPanesMgr->LoadColors();

  00485	8b 85 fc fb ff
	ff		 mov	 eax, DWORD PTR _this$[ebp]
  0048b	8b 88 e8 00 00
	00		 mov	 ecx, DWORD PTR [eax+232]
  00491	8b 95 fc fb ff
	ff		 mov	 edx, DWORD PTR _this$[ebp]
  00497	8b 82 e8 00 00
	00		 mov	 eax, DWORD PTR [edx+232]
  0049d	8b 11		 mov	 edx, DWORD PTR [ecx]
  0049f	8b c8		 mov	 ecx, eax
  004a1	ff 52 68	 call	 DWORD PTR [edx+104]

; 65   : 	m_pPanesMgr->LoadChangeColorData();

  004a4	8b 85 fc fb ff
	ff		 mov	 eax, DWORD PTR _this$[ebp]
  004aa	8b 88 e8 00 00
	00		 mov	 ecx, DWORD PTR [eax+232]
  004b0	8b 95 fc fb ff
	ff		 mov	 edx, DWORD PTR _this$[ebp]
  004b6	8b 82 e8 00 00
	00		 mov	 eax, DWORD PTR [edx+232]
  004bc	8b 11		 mov	 edx, DWORD PTR [ecx]
  004be	8b c8		 mov	 ecx, eax
  004c0	ff 52 6c	 call	 DWORD PTR [edx+108]

; 66   : 	//new panel
; 67   : 	CRect rectNull(0,0,0,0);

  004c3	6a 00		 push	 0
  004c5	6a 00		 push	 0
  004c7	6a 00		 push	 0
  004c9	6a 00		 push	 0
  004cb	8d 4d c4	 lea	 ecx, DWORD PTR _rectNull$[ebp]
  004ce	e8 00 00 00 00	 call	 ??0CRect@@QAE@HHHH@Z	; CRect::CRect

; 68   : 	AfxGetUIManager()->UIGetChangeColorMgr()->SetListener(AfxGetUIManager()->UIGetLayoutMgr());

  004d3	e8 00 00 00 00	 call	 ?AfxGetUIManager@@YAPAVIUIManager@@XZ ; AfxGetUIManager
  004d8	89 85 e4 fb ff
	ff		 mov	 DWORD PTR tv261[ebp], eax
  004de	e8 00 00 00 00	 call	 ?AfxGetUIManager@@YAPAVIUIManager@@XZ ; AfxGetUIManager
  004e3	89 85 e0 fb ff
	ff		 mov	 DWORD PTR tv251[ebp], eax
  004e9	8b 85 e0 fb ff
	ff		 mov	 eax, DWORD PTR tv251[ebp]
  004ef	8b 10		 mov	 edx, DWORD PTR [eax]
  004f1	8b 8d e0 fb ff
	ff		 mov	 ecx, DWORD PTR tv251[ebp]
  004f7	ff 52 2c	 call	 DWORD PTR [edx+44]
  004fa	89 85 dc fb ff
	ff		 mov	 DWORD PTR tv256[ebp], eax
  00500	8b 85 e4 fb ff
	ff		 mov	 eax, DWORD PTR tv261[ebp]
  00506	8b 10		 mov	 edx, DWORD PTR [eax]
  00508	8b 8d e4 fb ff
	ff		 mov	 ecx, DWORD PTR tv261[ebp]
  0050e	ff 52 24	 call	 DWORD PTR [edx+36]
  00511	50		 push	 eax
  00512	8b 85 dc fb ff
	ff		 mov	 eax, DWORD PTR tv256[ebp]
  00518	8b 10		 mov	 edx, DWORD PTR [eax]
  0051a	8b 8d dc fb ff
	ff		 mov	 ecx, DWORD PTR tv256[ebp]
  00520	ff 52 2c	 call	 DWORD PTR [edx+44]

; 69   : 	CWnd* pMainWnd = AfxGetMainWindow();

  00523	e8 00 00 00 00	 call	 ?AfxGetMainWindow@@YAPAVCWnd@@XZ ; AfxGetMainWindow
  00528	89 45 b8	 mov	 DWORD PTR _pMainWnd$[ebp], eax

; 70   : 	
; 71   : 	m_pPanesMgr->CreateWndPane( pMainWnd,"playbox", true);

  0052b	6a 01		 push	 1
  0052d	51		 push	 ecx
  0052e	8b cc		 mov	 ecx, esp
  00530	89 a5 68 fe ff
	ff		 mov	 DWORD PTR $T211294[ebp], esp
  00536	68 00 00 00 00	 push	 OFFSET FLAT:$SG207644
  0053b	ff 15 00 00 00
	00		 call	 DWORD PTR __imp_??0?$CStringT@DV?$StrTraitMFC_DLL@DV?$ChTraitsCRT@D@ATL@@@@@ATL@@QAE@PBD@Z
  00541	89 85 d8 fb ff
	ff		 mov	 DWORD PTR tv733[ebp], eax
  00547	8b 45 b8	 mov	 eax, DWORD PTR _pMainWnd$[ebp]
  0054a	50		 push	 eax
  0054b	8b 8d fc fb ff
	ff		 mov	 ecx, DWORD PTR _this$[ebp]
  00551	8b 89 e8 00 00
	00		 mov	 ecx, DWORD PTR [ecx+232]
  00557	8b 95 fc fb ff
	ff		 mov	 edx, DWORD PTR _this$[ebp]
  0055d	8b 82 e8 00 00
	00		 mov	 eax, DWORD PTR [edx+232]
  00563	8b 10		 mov	 edx, DWORD PTR [eax]
  00565	ff 52 20	 call	 DWORD PTR [edx+32]

; 72   : 	m_pPanesMgr->UpdateLayout( pMainWnd->m_hWnd );

  00568	8b 45 b8	 mov	 eax, DWORD PTR _pMainWnd$[ebp]
  0056b	8b 48 20	 mov	 ecx, DWORD PTR [eax+32]
  0056e	51		 push	 ecx
  0056f	8b 95 fc fb ff
	ff		 mov	 edx, DWORD PTR _this$[ebp]
  00575	8b 82 e8 00 00
	00		 mov	 eax, DWORD PTR [edx+232]
  0057b	8b 8d fc fb ff
	ff		 mov	 ecx, DWORD PTR _this$[ebp]
  00581	8b 89 e8 00 00
	00		 mov	 ecx, DWORD PTR [ecx+232]
  00587	8b 10		 mov	 edx, DWORD PTR [eax]
  00589	ff 52 14	 call	 DWORD PTR [edx+20]

; 73   : 	m_pPanesMgr->CreateBmpPane(  pMainWnd, "mainBk", "11");

  0058c	51		 push	 ecx
  0058d	8b cc		 mov	 ecx, esp
  0058f	89 a5 64 fe ff
	ff		 mov	 DWORD PTR $T211295[ebp], esp
  00595	68 00 00 00 00	 push	 OFFSET FLAT:$SG207647
  0059a	ff 15 00 00 00
	00		 call	 DWORD PTR __imp_??0?$CStringT@DV?$StrTraitMFC_DLL@DV?$ChTraitsCRT@D@ATL@@@@@ATL@@QAE@PBD@Z
  005a0	89 85 d4 fb ff
	ff		 mov	 DWORD PTR tv162[ebp], eax
  005a6	8b 85 d4 fb ff
	ff		 mov	 eax, DWORD PTR tv162[ebp]
  005ac	89 85 d0 fb ff
	ff		 mov	 DWORD PTR tv735[ebp], eax
  005b2	c6 45 fc 0a	 mov	 BYTE PTR __$EHRec$[ebp+8], 10 ; 0000000aH
  005b6	51		 push	 ecx
  005b7	8b cc		 mov	 ecx, esp
  005b9	89 a5 60 fe ff
	ff		 mov	 DWORD PTR $T211296[ebp], esp
  005bf	68 00 00 00 00	 push	 OFFSET FLAT:$SG207648
  005c4	ff 15 00 00 00
	00		 call	 DWORD PTR __imp_??0?$CStringT@DV?$StrTraitMFC_DLL@DV?$ChTraitsCRT@D@ATL@@@@@ATL@@QAE@PBD@Z
  005ca	89 85 cc fb ff
	ff		 mov	 DWORD PTR tv738[ebp], eax
  005d0	8b 4d b8	 mov	 ecx, DWORD PTR _pMainWnd$[ebp]
  005d3	51		 push	 ecx
  005d4	8b 95 fc fb ff
	ff		 mov	 edx, DWORD PTR _this$[ebp]
  005da	8b 8a e8 00 00
	00		 mov	 ecx, DWORD PTR [edx+232]
  005e0	8b 85 fc fb ff
	ff		 mov	 eax, DWORD PTR _this$[ebp]
  005e6	8b 90 e8 00 00
	00		 mov	 edx, DWORD PTR [eax+232]
  005ec	8b 02		 mov	 eax, DWORD PTR [edx]
  005ee	c6 45 fc 05	 mov	 BYTE PTR __$EHRec$[ebp+8], 5
  005f2	ff 50 58	 call	 DWORD PTR [eax+88]

; 74   : 	string strPath = m_pAppSkin->GetSkinPath();

  005f5	8d 8d 5c fe ff
	ff		 lea	 ecx, DWORD PTR $T211297[ebp]
  005fb	51		 push	 ecx
  005fc	8b 95 fc fb ff
	ff		 mov	 edx, DWORD PTR _this$[ebp]
  00602	8b 82 ec 00 00
	00		 mov	 eax, DWORD PTR [edx+236]
  00608	8b 8d fc fb ff
	ff		 mov	 ecx, DWORD PTR _this$[ebp]
  0060e	8b 89 ec 00 00
	00		 mov	 ecx, DWORD PTR [ecx+236]
  00614	83 c1 04	 add	 ecx, 4
  00617	8b 50 04	 mov	 edx, DWORD PTR [eax+4]
  0061a	ff 52 40	 call	 DWORD PTR [edx+64]
  0061d	89 85 c8 fb ff
	ff		 mov	 DWORD PTR tv157[ebp], eax
  00623	8b 85 c8 fb ff
	ff		 mov	 eax, DWORD PTR tv157[ebp]
  00629	89 85 c4 fb ff
	ff		 mov	 DWORD PTR tv740[ebp], eax
  0062f	c6 45 fc 0b	 mov	 BYTE PTR __$EHRec$[ebp+8], 11 ; 0000000bH
  00633	8b 8d c4 fb ff
	ff		 mov	 ecx, DWORD PTR tv740[ebp]
  00639	ff 15 00 00 00
	00		 call	 DWORD PTR __imp_??B?$CSimpleStringT@D$00@ATL@@QBEPBDXZ
  0063f	50		 push	 eax
  00640	8d 8d 78 ff ff
	ff		 lea	 ecx, DWORD PTR _strPath$[ebp]
  00646	ff 15 00 00 00
	00		 call	 DWORD PTR __imp_??0?$basic_string@DU?$char_traits@D@std@@V?$allocator@D@2@@std@@QAE@PBD@Z
  0064c	c6 45 fc 0d	 mov	 BYTE PTR __$EHRec$[ebp+8], 13 ; 0000000dH
  00650	8d 8d 5c fe ff
	ff		 lea	 ecx, DWORD PTR $T211297[ebp]
  00656	ff 15 00 00 00
	00		 call	 DWORD PTR __imp_??1?$CStringT@DV?$StrTraitMFC_DLL@DV?$ChTraitsCRT@D@ATL@@@@@ATL@@QAE@XZ

; 75   : 	string strSubPath = strPath + "\\SbujectSkin\\";	

  0065c	68 00 00 00 00	 push	 OFFSET FLAT:$SG207653
  00661	8d 8d 78 ff ff
	ff		 lea	 ecx, DWORD PTR _strPath$[ebp]
  00667	51		 push	 ecx
  00668	8d 95 58 ff ff
	ff		 lea	 edx, DWORD PTR _strSubPath$[ebp]
  0066e	52		 push	 edx
  0066f	e8 00 00 00 00	 call	 ??$?HDU?$char_traits@D@std@@V?$allocator@D@1@@std@@YA?AV?$basic_string@DU?$char_traits@D@std@@V?$allocator@D@2@@0@ABV10@PBD@Z ; std::operator+<char,std::char_traits<char>,std::allocator<char> >
  00674	83 c4 0c	 add	 esp, 12			; 0000000cH
  00677	c6 45 fc 0e	 mov	 BYTE PTR __$EHRec$[ebp+8], 14 ; 0000000eH

; 76   : 	bool   bNotifySub = false;

  0067b	c6 85 77 ff ff
	ff 00		 mov	 BYTE PTR _bNotifySub$[ebp], 0

; 77   : 	bool   bSub		  = false;

  00682	c6 45 b7 00	 mov	 BYTE PTR _bSub$[ebp], 0

; 78   : 	bool   bSubError  = false;

  00686	c6 85 76 ff ff
	ff 00		 mov	 BYTE PTR _bSubError$[ebp], 0

; 79   : 
; 80   : 	if( PathFileExists( strSubPath.c_str()) )

  0068d	8d 8d 58 ff ff
	ff		 lea	 ecx, DWORD PTR _strSubPath$[ebp]
  00693	ff 15 00 00 00
	00		 call	 DWORD PTR __imp_?c_str@?$basic_string@DU?$char_traits@D@std@@V?$allocator@D@2@@std@@QBEPBDXZ
  00699	50		 push	 eax
  0069a	ff 15 00 00 00
	00		 call	 DWORD PTR __imp__PathFileExistsA@4
  006a0	85 c0		 test	 eax, eax
  006a2	0f 84 06 04 00
	00		 je	 $L207657

; 81   : 	{	
; 82   : 		string szCurSkin = "";

  006a8	68 00 00 00 00	 push	 OFFSET FLAT:$SG207659
  006ad	8d 8d 3c ff ff
	ff		 lea	 ecx, DWORD PTR _szCurSkin$207658[ebp]
  006b3	ff 15 00 00 00
	00		 call	 DWORD PTR __imp_??0?$basic_string@DU?$char_traits@D@std@@V?$allocator@D@2@@std@@QAE@PBD@Z
  006b9	c6 45 fc 0f	 mov	 BYTE PTR __$EHRec$[ebp+8], 15 ; 0000000fH

; 83   : 		AfxGetUserConfig()->GetConfigStringValue( CONF_SKINSUB_MODULE_NAME,CONF_SKINSUB_CURRSUB,szCurSkin);		

  006bd	a1 00 00 00 00	 mov	 eax, DWORD PTR _CONF_SKINSUB_CURRSUB
  006c2	50		 push	 eax
  006c3	8d 8d 40 fe ff
	ff		 lea	 ecx, DWORD PTR $T211298[ebp]
  006c9	ff 15 00 00 00
	00		 call	 DWORD PTR __imp_??0?$basic_string@DU?$char_traits@D@std@@V?$allocator@D@2@@std@@QAE@PBD@Z
  006cf	c6 45 fc 10	 mov	 BYTE PTR __$EHRec$[ebp+8], 16 ; 00000010H
  006d3	8b 0d 00 00 00
	00		 mov	 ecx, DWORD PTR _CONF_SKINSUB_MODULE_NAME
  006d9	51		 push	 ecx
  006da	8d 8d 24 fe ff
	ff		 lea	 ecx, DWORD PTR $T211299[ebp]
  006e0	ff 15 00 00 00
	00		 call	 DWORD PTR __imp_??0?$basic_string@DU?$char_traits@D@std@@V?$allocator@D@2@@std@@QAE@PBD@Z
  006e6	c6 45 fc 11	 mov	 BYTE PTR __$EHRec$[ebp+8], 17 ; 00000011H
  006ea	8d 95 3c ff ff
	ff		 lea	 edx, DWORD PTR _szCurSkin$207658[ebp]
  006f0	52		 push	 edx
  006f1	8d 85 40 fe ff
	ff		 lea	 eax, DWORD PTR $T211298[ebp]
  006f7	50		 push	 eax
  006f8	8d 8d 24 fe ff
	ff		 lea	 ecx, DWORD PTR $T211299[ebp]
  006fe	51		 push	 ecx
  006ff	e8 00 00 00 00	 call	 ?AfxGetUserConfig@@YAPAVAfxUserConfig@@XZ ; AfxGetUserConfig
  00704	8b c8		 mov	 ecx, eax
  00706	e8 00 00 00 00	 call	 ?GetConfigStringValue@AfxUserConfig@@QAEXABV?$basic_string@DU?$char_traits@D@std@@V?$allocator@D@2@@std@@0AAV23@@Z ; AfxUserConfig::GetConfigStringValue
  0070b	c6 45 fc 10	 mov	 BYTE PTR __$EHRec$[ebp+8], 16 ; 00000010H
  0070f	8d 8d 24 fe ff
	ff		 lea	 ecx, DWORD PTR $T211299[ebp]
  00715	ff 15 00 00 00
	00		 call	 DWORD PTR __imp_??1?$basic_string@DU?$char_traits@D@std@@V?$allocator@D@2@@std@@QAE@XZ
  0071b	c6 45 fc 0f	 mov	 BYTE PTR __$EHRec$[ebp+8], 15 ; 0000000fH
  0071f	8d 8d 40 fe ff
	ff		 lea	 ecx, DWORD PTR $T211298[ebp]
  00725	ff 15 00 00 00
	00		 call	 DWORD PTR __imp_??1?$basic_string@DU?$char_traits@D@std@@V?$allocator@D@2@@std@@QAE@XZ

; 84   : 
; 85   : 		if( szCurSkin != "" )

  0072b	68 00 00 00 00	 push	 OFFSET FLAT:$SG207663
  00730	8d 95 3c ff ff
	ff		 lea	 edx, DWORD PTR _szCurSkin$207658[ebp]
  00736	52		 push	 edx
  00737	ff 15 00 00 00
	00		 call	 DWORD PTR __imp_??$?9DU?$char_traits@D@std@@V?$allocator@D@1@@std@@YA_NABV?$basic_string@DU?$char_traits@D@std@@V?$allocator@D@2@@0@PBD@Z
  0073d	83 c4 08	 add	 esp, 8
  00740	0f b6 c0	 movzx	 eax, al
  00743	85 c0		 test	 eax, eax
  00745	0f 84 53 03 00
	00		 je	 $L207662

; 86   : 		{
; 87   : 			m_pPanesMgr->InsertSubjectData(szCurSkin.c_str());

  0074b	8d 8d 3c ff ff
	ff		 lea	 ecx, DWORD PTR _szCurSkin$207658[ebp]
  00751	ff 15 00 00 00
	00		 call	 DWORD PTR __imp_?c_str@?$basic_string@DU?$char_traits@D@std@@V?$allocator@D@2@@std@@QBEPBDXZ
  00757	51		 push	 ecx
  00758	8b cc		 mov	 ecx, esp
  0075a	89 a5 20 fe ff
	ff		 mov	 DWORD PTR $T211300[ebp], esp
  00760	50		 push	 eax
  00761	ff 15 00 00 00
	00		 call	 DWORD PTR __imp_??0?$CStringT@DV?$StrTraitMFC_DLL@DV?$ChTraitsCRT@D@ATL@@@@@ATL@@QAE@PBD@Z
  00767	89 85 c0 fb ff
	ff		 mov	 DWORD PTR tv747[ebp], eax
  0076d	8b 8d fc fb ff
	ff		 mov	 ecx, DWORD PTR _this$[ebp]
  00773	8b 91 e8 00 00
	00		 mov	 edx, DWORD PTR [ecx+232]
  00779	8b 85 fc fb ff
	ff		 mov	 eax, DWORD PTR _this$[ebp]
  0077f	8b 88 e8 00 00
	00		 mov	 ecx, DWORD PTR [eax+232]
  00785	8b 12		 mov	 edx, DWORD PTR [edx]
  00787	ff 52 74	 call	 DWORD PTR [edx+116]

; 88   : 			OneSubject* pSub = AfxGetUIManager()->UIGetSkinMgr()->GetOneSubject( szCurSkin.c_str() );

  0078a	8d 8d 3c ff ff
	ff		 lea	 ecx, DWORD PTR _szCurSkin$207658[ebp]
  00790	ff 15 00 00 00
	00		 call	 DWORD PTR __imp_?c_str@?$basic_string@DU?$char_traits@D@std@@V?$allocator@D@2@@std@@QBEPBDXZ
  00796	50		 push	 eax
  00797	8d 8d 1c fe ff
	ff		 lea	 ecx, DWORD PTR $T211301[ebp]
  0079d	ff 15 00 00 00
	00		 call	 DWORD PTR __imp_??0?$CStringT@DV?$StrTraitMFC_DLL@DV?$ChTraitsCRT@D@ATL@@@@@ATL@@QAE@PBD@Z
  007a3	c6 45 fc 12	 mov	 BYTE PTR __$EHRec$[ebp+8], 18 ; 00000012H
  007a7	e8 00 00 00 00	 call	 ?AfxGetUIManager@@YAPAVIUIManager@@XZ ; AfxGetUIManager
  007ac	89 85 bc fb ff
	ff		 mov	 DWORD PTR tv440[ebp], eax
  007b2	8b 85 bc fb ff
	ff		 mov	 eax, DWORD PTR tv440[ebp]
  007b8	8b 10		 mov	 edx, DWORD PTR [eax]
  007ba	8b 8d bc fb ff
	ff		 mov	 ecx, DWORD PTR tv440[ebp]
  007c0	ff 52 28	 call	 DWORD PTR [edx+40]
  007c3	89 85 b8 fb ff
	ff		 mov	 DWORD PTR tv445[ebp], eax
  007c9	8d 85 1c fe ff
	ff		 lea	 eax, DWORD PTR $T211301[ebp]
  007cf	50		 push	 eax
  007d0	8b 8d b8 fb ff
	ff		 mov	 ecx, DWORD PTR tv445[ebp]
  007d6	8b 11		 mov	 edx, DWORD PTR [ecx]
  007d8	8b 8d b8 fb ff
	ff		 mov	 ecx, DWORD PTR tv445[ebp]
  007de	ff 52 2c	 call	 DWORD PTR [edx+44]
  007e1	89 85 38 ff ff
	ff		 mov	 DWORD PTR _pSub$207665[ebp], eax
  007e7	c6 45 fc 0f	 mov	 BYTE PTR __$EHRec$[ebp+8], 15 ; 0000000fH
  007eb	8d 8d 1c fe ff
	ff		 lea	 ecx, DWORD PTR $T211301[ebp]
  007f1	ff 15 00 00 00
	00		 call	 DWORD PTR __imp_??1?$CStringT@DV?$StrTraitMFC_DLL@DV?$ChTraitsCRT@D@ATL@@@@@ATL@@QAE@XZ

; 89   : 
; 90   : 			if( pSub != NULL  && pSub->bNeedDown == false )

  007f7	83 bd 38 ff ff
	ff 00		 cmp	 DWORD PTR _pSub$207665[ebp], 0
  007fe	0f 84 27 01 00
	00		 je	 $L207667
  00804	8b 85 38 ff ff
	ff		 mov	 eax, DWORD PTR _pSub$207665[ebp]
  0080a	0f b6 48 6c	 movzx	 ecx, BYTE PTR [eax+108]
  0080e	85 c9		 test	 ecx, ecx
  00810	0f 85 15 01 00
	00		 jne	 $L207667

; 91   : 			{
; 92   : 				bSub = true;

  00816	c6 45 b7 01	 mov	 BYTE PTR _bSub$[ebp], 1

; 93   : 				AfxGetUIManager()->UIGetChangeColorMgr()->NotifyChangeSubject( szCurSkin.c_str() );				

  0081a	8d 8d 3c ff ff
	ff		 lea	 ecx, DWORD PTR _szCurSkin$207658[ebp]
  00820	ff 15 00 00 00
	00		 call	 DWORD PTR __imp_?c_str@?$basic_string@DU?$char_traits@D@std@@V?$allocator@D@2@@std@@QBEPBDXZ
  00826	50		 push	 eax
  00827	8d 8d 18 fe ff
	ff		 lea	 ecx, DWORD PTR $T211302[ebp]
  0082d	ff 15 00 00 00
	00		 call	 DWORD PTR __imp_??0?$CStringT@DV?$StrTraitMFC_DLL@DV?$ChTraitsCRT@D@ATL@@@@@ATL@@QAE@PBD@Z
  00833	c6 45 fc 13	 mov	 BYTE PTR __$EHRec$[ebp+8], 19 ; 00000013H
  00837	e8 00 00 00 00	 call	 ?AfxGetUIManager@@YAPAVIUIManager@@XZ ; AfxGetUIManager
  0083c	89 85 b4 fb ff
	ff		 mov	 DWORD PTR tv462[ebp], eax
  00842	8b 95 b4 fb ff
	ff		 mov	 edx, DWORD PTR tv462[ebp]
  00848	8b 02		 mov	 eax, DWORD PTR [edx]
  0084a	8b 8d b4 fb ff
	ff		 mov	 ecx, DWORD PTR tv462[ebp]
  00850	ff 50 2c	 call	 DWORD PTR [eax+44]
  00853	89 85 b0 fb ff
	ff		 mov	 DWORD PTR tv467[ebp], eax
  00859	8d 8d 18 fe ff
	ff		 lea	 ecx, DWORD PTR $T211302[ebp]
  0085f	51		 push	 ecx
  00860	8b 95 b0 fb ff
	ff		 mov	 edx, DWORD PTR tv467[ebp]
  00866	8b 02		 mov	 eax, DWORD PTR [edx]
  00868	8b 8d b0 fb ff
	ff		 mov	 ecx, DWORD PTR tv467[ebp]
  0086e	ff 50 58	 call	 DWORD PTR [eax+88]
  00871	c6 45 fc 0f	 mov	 BYTE PTR __$EHRec$[ebp+8], 15 ; 0000000fH
  00875	8d 8d 18 fe ff
	ff		 lea	 ecx, DWORD PTR $T211302[ebp]
  0087b	ff 15 00 00 00
	00		 call	 DWORD PTR __imp_??1?$CStringT@DV?$StrTraitMFC_DLL@DV?$ChTraitsCRT@D@ATL@@@@@ATL@@QAE@XZ

; 94   : 
; 95   : 				int iColorIndex = 0;

  00881	c7 85 34 ff ff
	ff 00 00 00 00	 mov	 DWORD PTR _iColorIndex$207669[ebp], 0

; 96   : 				::AfxGetUserConfig()->GetConfigIntValue(CONF_SETTING_MODULE_NAME, CONF_SETTING_COLOR_BTN_INDEX,iColorIndex);

  0088b	8b 0d 00 00 00
	00		 mov	 ecx, DWORD PTR _CONF_SETTING_COLOR_BTN_INDEX
  00891	51		 push	 ecx
  00892	8d 8d fc fd ff
	ff		 lea	 ecx, DWORD PTR $T211303[ebp]
  00898	ff 15 00 00 00
	00		 call	 DWORD PTR __imp_??0?$basic_string@DU?$char_traits@D@std@@V?$allocator@D@2@@std@@QAE@PBD@Z
  0089e	c6 45 fc 14	 mov	 BYTE PTR __$EHRec$[ebp+8], 20 ; 00000014H
  008a2	8b 15 00 00 00
	00		 mov	 edx, DWORD PTR _CONF_SETTING_MODULE_NAME
  008a8	52		 push	 edx
  008a9	8d 8d e0 fd ff
	ff		 lea	 ecx, DWORD PTR $T211304[ebp]
  008af	ff 15 00 00 00
	00		 call	 DWORD PTR __imp_??0?$basic_string@DU?$char_traits@D@std@@V?$allocator@D@2@@std@@QAE@PBD@Z
  008b5	c6 45 fc 15	 mov	 BYTE PTR __$EHRec$[ebp+8], 21 ; 00000015H
  008b9	8d 85 34 ff ff
	ff		 lea	 eax, DWORD PTR _iColorIndex$207669[ebp]
  008bf	50		 push	 eax
  008c0	8d 8d fc fd ff
	ff		 lea	 ecx, DWORD PTR $T211303[ebp]
  008c6	51		 push	 ecx
  008c7	8d 95 e0 fd ff
	ff		 lea	 edx, DWORD PTR $T211304[ebp]
  008cd	52		 push	 edx
  008ce	e8 00 00 00 00	 call	 ?AfxGetUserConfig@@YAPAVAfxUserConfig@@XZ ; AfxGetUserConfig
  008d3	8b c8		 mov	 ecx, eax
  008d5	e8 00 00 00 00	 call	 ?GetConfigIntValue@AfxUserConfig@@QAEXABV?$basic_string@DU?$char_traits@D@std@@V?$allocator@D@2@@std@@0AAH@Z ; AfxUserConfig::GetConfigIntValue
  008da	c6 45 fc 14	 mov	 BYTE PTR __$EHRec$[ebp+8], 20 ; 00000014H
  008de	8d 8d e0 fd ff
	ff		 lea	 ecx, DWORD PTR $T211304[ebp]
  008e4	ff 15 00 00 00
	00		 call	 DWORD PTR __imp_??1?$basic_string@DU?$char_traits@D@std@@V?$allocator@D@2@@std@@QAE@XZ
  008ea	c6 45 fc 0f	 mov	 BYTE PTR __$EHRec$[ebp+8], 15 ; 0000000fH
  008ee	8d 8d fc fd ff
	ff		 lea	 ecx, DWORD PTR $T211303[ebp]
  008f4	ff 15 00 00 00
	00		 call	 DWORD PTR __imp_??1?$basic_string@DU?$char_traits@D@std@@V?$allocator@D@2@@std@@QAE@XZ

; 97   : 
; 98   : 				if( iColorIndex == 0 && szCurSkin != "" )

  008fa	83 bd 34 ff ff
	ff 00		 cmp	 DWORD PTR _iColorIndex$207669[ebp], 0
  00901	75 23		 jne	 SHORT $L207672
  00903	68 00 00 00 00	 push	 OFFSET FLAT:$SG207673
  00908	8d 85 3c ff ff
	ff		 lea	 eax, DWORD PTR _szCurSkin$207658[ebp]
  0090e	50		 push	 eax
  0090f	ff 15 00 00 00
	00		 call	 DWORD PTR __imp_??$?9DU?$char_traits@D@std@@V?$allocator@D@1@@std@@YA_NABV?$basic_string@DU?$char_traits@D@std@@V?$allocator@D@2@@0@PBD@Z
  00915	83 c4 08	 add	 esp, 8
  00918	0f b6 c8	 movzx	 ecx, al
  0091b	85 c9		 test	 ecx, ecx
  0091d	74 07		 je	 SHORT $L207672

; 99   : 				{			
; 100  : 					bNotifySub = true;

  0091f	c6 85 77 ff ff
	ff 01		 mov	 BYTE PTR _bNotifySub$[ebp], 1
$L207672:

; 101  : 				}
; 102  : 			}
; 103  : 			else

  00926	e9 73 01 00 00	 jmp	 $L207662
$L207667:

; 104  : 			{
; 105  : 				AfxGetUserConfig()->SetConfigStringValue( CONF_SKINSUB_MODULE_NAME,CONF_SKINSUB_CURRSUB,"",true);

  0092b	68 00 00 00 00	 push	 OFFSET FLAT:$SG207678
  00930	8d 8d c4 fd ff
	ff		 lea	 ecx, DWORD PTR $T211305[ebp]
  00936	ff 15 00 00 00
	00		 call	 DWORD PTR __imp_??0?$basic_string@DU?$char_traits@D@std@@V?$allocator@D@2@@std@@QAE@PBD@Z
  0093c	c6 45 fc 16	 mov	 BYTE PTR __$EHRec$[ebp+8], 22 ; 00000016H
  00940	8b 15 00 00 00
	00		 mov	 edx, DWORD PTR _CONF_SKINSUB_CURRSUB
  00946	52		 push	 edx
  00947	8d 8d a8 fd ff
	ff		 lea	 ecx, DWORD PTR $T211306[ebp]
  0094d	ff 15 00 00 00
	00		 call	 DWORD PTR __imp_??0?$basic_string@DU?$char_traits@D@std@@V?$allocator@D@2@@std@@QAE@PBD@Z
  00953	c6 45 fc 17	 mov	 BYTE PTR __$EHRec$[ebp+8], 23 ; 00000017H
  00957	a1 00 00 00 00	 mov	 eax, DWORD PTR _CONF_SKINSUB_MODULE_NAME
  0095c	50		 push	 eax
  0095d	8d 8d 8c fd ff
	ff		 lea	 ecx, DWORD PTR $T211307[ebp]
  00963	ff 15 00 00 00
	00		 call	 DWORD PTR __imp_??0?$basic_string@DU?$char_traits@D@std@@V?$allocator@D@2@@std@@QAE@PBD@Z
  00969	c6 45 fc 18	 mov	 BYTE PTR __$EHRec$[ebp+8], 24 ; 00000018H
  0096d	6a 01		 push	 1
  0096f	8d 8d c4 fd ff
	ff		 lea	 ecx, DWORD PTR $T211305[ebp]
  00975	51		 push	 ecx
  00976	8d 95 a8 fd ff
	ff		 lea	 edx, DWORD PTR $T211306[ebp]
  0097c	52		 push	 edx
  0097d	8d 85 8c fd ff
	ff		 lea	 eax, DWORD PTR $T211307[ebp]
  00983	50		 push	 eax
  00984	e8 00 00 00 00	 call	 ?AfxGetUserConfig@@YAPAVAfxUserConfig@@XZ ; AfxGetUserConfig
  00989	8b c8		 mov	 ecx, eax
  0098b	e8 00 00 00 00	 call	 ?SetConfigStringValue@AfxUserConfig@@QAEXABV?$basic_string@DU?$char_traits@D@std@@V?$allocator@D@2@@std@@00_N@Z ; AfxUserConfig::SetConfigStringValue
  00990	c6 45 fc 17	 mov	 BYTE PTR __$EHRec$[ebp+8], 23 ; 00000017H
  00994	8d 8d 8c fd ff
	ff		 lea	 ecx, DWORD PTR $T211307[ebp]
  0099a	ff 15 00 00 00
	00		 call	 DWORD PTR __imp_??1?$basic_string@DU?$char_traits@D@std@@V?$allocator@D@2@@std@@QAE@XZ
  009a0	c6 45 fc 16	 mov	 BYTE PTR __$EHRec$[ebp+8], 22 ; 00000016H
  009a4	8d 8d a8 fd ff
	ff		 lea	 ecx, DWORD PTR $T211306[ebp]
  009aa	ff 15 00 00 00
	00		 call	 DWORD PTR __imp_??1?$basic_string@DU?$char_traits@D@std@@V?$allocator@D@2@@std@@QAE@XZ
  009b0	c6 45 fc 0f	 mov	 BYTE PTR __$EHRec$[ebp+8], 15 ; 0000000fH
  009b4	8d 8d c4 fd ff
	ff		 lea	 ecx, DWORD PTR $T211305[ebp]
  009ba	ff 15 00 00 00
	00		 call	 DWORD PTR __imp_??1?$basic_string@DU?$char_traits@D@std@@V?$allocator@D@2@@std@@QAE@XZ

; 106  : 
; 107  : 				::AfxGetUserConfig()->SetConfigIntValue(CONF_SETTING_MODULE_NAME, CONF_SETTING_LIGHT, 120);

  009c0	8b 0d 00 00 00
	00		 mov	 ecx, DWORD PTR _CONF_SETTING_LIGHT
  009c6	51		 push	 ecx
  009c7	8d 8d 70 fd ff
	ff		 lea	 ecx, DWORD PTR $T211308[ebp]
  009cd	ff 15 00 00 00
	00		 call	 DWORD PTR __imp_??0?$basic_string@DU?$char_traits@D@std@@V?$allocator@D@2@@std@@QAE@PBD@Z
  009d3	c6 45 fc 19	 mov	 BYTE PTR __$EHRec$[ebp+8], 25 ; 00000019H
  009d7	8b 15 00 00 00
	00		 mov	 edx, DWORD PTR _CONF_SETTING_MODULE_NAME
  009dd	52		 push	 edx
  009de	8d 8d 54 fd ff
	ff		 lea	 ecx, DWORD PTR $T211309[ebp]
  009e4	ff 15 00 00 00
	00		 call	 DWORD PTR __imp_??0?$basic_string@DU?$char_traits@D@std@@V?$allocator@D@2@@std@@QAE@PBD@Z
  009ea	c6 45 fc 1a	 mov	 BYTE PTR __$EHRec$[ebp+8], 26 ; 0000001aH
  009ee	6a 00		 push	 0
  009f0	6a 78		 push	 120			; 00000078H
  009f2	8d 85 70 fd ff
	ff		 lea	 eax, DWORD PTR $T211308[ebp]
  009f8	50		 push	 eax
  009f9	8d 8d 54 fd ff
	ff		 lea	 ecx, DWORD PTR $T211309[ebp]
  009ff	51		 push	 ecx
  00a00	e8 00 00 00 00	 call	 ?AfxGetUserConfig@@YAPAVAfxUserConfig@@XZ ; AfxGetUserConfig
  00a05	8b c8		 mov	 ecx, eax
  00a07	e8 00 00 00 00	 call	 ?SetConfigIntValue@AfxUserConfig@@QAEXABV?$basic_string@DU?$char_traits@D@std@@V?$allocator@D@2@@std@@0H_N@Z ; AfxUserConfig::SetConfigIntValue
  00a0c	c6 45 fc 19	 mov	 BYTE PTR __$EHRec$[ebp+8], 25 ; 00000019H
  00a10	8d 8d 54 fd ff
	ff		 lea	 ecx, DWORD PTR $T211309[ebp]
  00a16	ff 15 00 00 00
	00		 call	 DWORD PTR __imp_??1?$basic_string@DU?$char_traits@D@std@@V?$allocator@D@2@@std@@QAE@XZ
  00a1c	c6 45 fc 0f	 mov	 BYTE PTR __$EHRec$[ebp+8], 15 ; 0000000fH
  00a20	8d 8d 70 fd ff
	ff		 lea	 ecx, DWORD PTR $T211308[ebp]
  00a26	ff 15 00 00 00
	00		 call	 DWORD PTR __imp_??1?$basic_string@DU?$char_traits@D@std@@V?$allocator@D@2@@std@@QAE@XZ

; 108  : 				::AfxGetUserConfig()->SetConfigIntValue(CONF_SETTING_MODULE_NAME, CONF_SETTING_COLOR, 0);

  00a2c	8b 15 00 00 00
	00		 mov	 edx, DWORD PTR _CONF_SETTING_COLOR
  00a32	52		 push	 edx
  00a33	8d 8d 38 fd ff
	ff		 lea	 ecx, DWORD PTR $T211310[ebp]
  00a39	ff 15 00 00 00
	00		 call	 DWORD PTR __imp_??0?$basic_string@DU?$char_traits@D@std@@V?$allocator@D@2@@std@@QAE@PBD@Z
  00a3f	c6 45 fc 1b	 mov	 BYTE PTR __$EHRec$[ebp+8], 27 ; 0000001bH
  00a43	a1 00 00 00 00	 mov	 eax, DWORD PTR _CONF_SETTING_MODULE_NAME
  00a48	50		 push	 eax
  00a49	8d 8d 1c fd ff
	ff		 lea	 ecx, DWORD PTR $T211311[ebp]
  00a4f	ff 15 00 00 00
	00		 call	 DWORD PTR __imp_??0?$basic_string@DU?$char_traits@D@std@@V?$allocator@D@2@@std@@QAE@PBD@Z
  00a55	c6 45 fc 1c	 mov	 BYTE PTR __$EHRec$[ebp+8], 28 ; 0000001cH
  00a59	6a 00		 push	 0
  00a5b	6a 00		 push	 0
  00a5d	8d 8d 38 fd ff
	ff		 lea	 ecx, DWORD PTR $T211310[ebp]
  00a63	51		 push	 ecx
  00a64	8d 95 1c fd ff
	ff		 lea	 edx, DWORD PTR $T211311[ebp]
  00a6a	52		 push	 edx
  00a6b	e8 00 00 00 00	 call	 ?AfxGetUserConfig@@YAPAVAfxUserConfig@@XZ ; AfxGetUserConfig
  00a70	8b c8		 mov	 ecx, eax
  00a72	e8 00 00 00 00	 call	 ?SetConfigIntValue@AfxUserConfig@@QAEXABV?$basic_string@DU?$char_traits@D@std@@V?$allocator@D@2@@std@@0H_N@Z ; AfxUserConfig::SetConfigIntValue
  00a77	c6 45 fc 1b	 mov	 BYTE PTR __$EHRec$[ebp+8], 27 ; 0000001bH
  00a7b	8d 8d 1c fd ff
	ff		 lea	 ecx, DWORD PTR $T211311[ebp]
  00a81	ff 15 00 00 00
	00		 call	 DWORD PTR __imp_??1?$basic_string@DU?$char_traits@D@std@@V?$allocator@D@2@@std@@QAE@XZ
  00a87	c6 45 fc 0f	 mov	 BYTE PTR __$EHRec$[ebp+8], 15 ; 0000000fH
  00a8b	8d 8d 38 fd ff
	ff		 lea	 ecx, DWORD PTR $T211310[ebp]
  00a91	ff 15 00 00 00
	00		 call	 DWORD PTR __imp_??1?$basic_string@DU?$char_traits@D@std@@V?$allocator@D@2@@std@@QAE@XZ

; 109  : 
; 110  : 				bSubError = true;

  00a97	c6 85 76 ff ff
	ff 01		 mov	 BYTE PTR _bSubError$[ebp], 1
$L207662:

; 111  : 			}
; 112  : 		}
; 113  : 		
; 114  : 	}

  00a9e	c6 45 fc 0e	 mov	 BYTE PTR __$EHRec$[ebp+8], 14 ; 0000000eH
  00aa2	8d 8d 3c ff ff
	ff		 lea	 ecx, DWORD PTR _szCurSkin$207658[ebp]
  00aa8	ff 15 00 00 00
	00		 call	 DWORD PTR __imp_??1?$basic_string@DU?$char_traits@D@std@@V?$allocator@D@2@@std@@QAE@XZ
$L207657:

; 115  : 	int color, light;
; 116  : 	::AfxGetUserConfig()->GetConfigIntValue(CONF_SETTING_MODULE_NAME, CONF_SETTING_LIGHT, light);

  00aae	a1 00 00 00 00	 mov	 eax, DWORD PTR _CONF_SETTING_LIGHT
  00ab3	50		 push	 eax
  00ab4	8d 8d 00 fd ff
	ff		 lea	 ecx, DWORD PTR $T211312[ebp]
  00aba	ff 15 00 00 00
	00		 call	 DWORD PTR __imp_??0?$basic_string@DU?$char_traits@D@std@@V?$allocator@D@2@@std@@QAE@PBD@Z
  00ac0	c6 45 fc 1d	 mov	 BYTE PTR __$EHRec$[ebp+8], 29 ; 0000001dH
  00ac4	8b 0d 00 00 00
	00		 mov	 ecx, DWORD PTR _CONF_SETTING_MODULE_NAME
  00aca	51		 push	 ecx
  00acb	8d 8d e4 fc ff
	ff		 lea	 ecx, DWORD PTR $T211313[ebp]
  00ad1	ff 15 00 00 00
	00		 call	 DWORD PTR __imp_??0?$basic_string@DU?$char_traits@D@std@@V?$allocator@D@2@@std@@QAE@PBD@Z
  00ad7	c6 45 fc 1e	 mov	 BYTE PTR __$EHRec$[ebp+8], 30 ; 0000001eH
  00adb	8d 55 94	 lea	 edx, DWORD PTR _light$[ebp]
  00ade	52		 push	 edx
  00adf	8d 85 00 fd ff
	ff		 lea	 eax, DWORD PTR $T211312[ebp]
  00ae5	50		 push	 eax
  00ae6	8d 8d e4 fc ff
	ff		 lea	 ecx, DWORD PTR $T211313[ebp]
  00aec	51		 push	 ecx
  00aed	e8 00 00 00 00	 call	 ?AfxGetUserConfig@@YAPAVAfxUserConfig@@XZ ; AfxGetUserConfig
  00af2	8b c8		 mov	 ecx, eax
  00af4	e8 00 00 00 00	 call	 ?GetConfigIntValue@AfxUserConfig@@QAEXABV?$basic_string@DU?$char_traits@D@std@@V?$allocator@D@2@@std@@0AAH@Z ; AfxUserConfig::GetConfigIntValue
  00af9	c6 45 fc 1d	 mov	 BYTE PTR __$EHRec$[ebp+8], 29 ; 0000001dH
  00afd	8d 8d e4 fc ff
	ff		 lea	 ecx, DWORD PTR $T211313[ebp]
  00b03	ff 15 00 00 00
	00		 call	 DWORD PTR __imp_??1?$basic_string@DU?$char_traits@D@std@@V?$allocator@D@2@@std@@QAE@XZ
  00b09	c6 45 fc 0e	 mov	 BYTE PTR __$EHRec$[ebp+8], 14 ; 0000000eH
  00b0d	8d 8d 00 fd ff
	ff		 lea	 ecx, DWORD PTR $T211312[ebp]
  00b13	ff 15 00 00 00
	00		 call	 DWORD PTR __imp_??1?$basic_string@DU?$char_traits@D@std@@V?$allocator@D@2@@std@@QAE@XZ

; 117  : 	::AfxGetUserConfig()->GetConfigIntValue(CONF_SETTING_MODULE_NAME, CONF_SETTING_COLOR, color);	

  00b19	8b 15 00 00 00
	00		 mov	 edx, DWORD PTR _CONF_SETTING_COLOR
  00b1f	52		 push	 edx
  00b20	8d 8d c8 fc ff
	ff		 lea	 ecx, DWORD PTR $T211314[ebp]
  00b26	ff 15 00 00 00
	00		 call	 DWORD PTR __imp_??0?$basic_string@DU?$char_traits@D@std@@V?$allocator@D@2@@std@@QAE@PBD@Z
  00b2c	c6 45 fc 1f	 mov	 BYTE PTR __$EHRec$[ebp+8], 31 ; 0000001fH
  00b30	a1 00 00 00 00	 mov	 eax, DWORD PTR _CONF_SETTING_MODULE_NAME
  00b35	50		 push	 eax
  00b36	8d 8d ac fc ff
	ff		 lea	 ecx, DWORD PTR $T211315[ebp]
  00b3c	ff 15 00 00 00
	00		 call	 DWORD PTR __imp_??0?$basic_string@DU?$char_traits@D@std@@V?$allocator@D@2@@std@@QAE@PBD@Z
  00b42	c6 45 fc 20	 mov	 BYTE PTR __$EHRec$[ebp+8], 32 ; 00000020H
  00b46	8d 4d c0	 lea	 ecx, DWORD PTR _color$[ebp]
  00b49	51		 push	 ecx
  00b4a	8d 95 c8 fc ff
	ff		 lea	 edx, DWORD PTR $T211314[ebp]
  00b50	52		 push	 edx
  00b51	8d 85 ac fc ff
	ff		 lea	 eax, DWORD PTR $T211315[ebp]
  00b57	50		 push	 eax
  00b58	e8 00 00 00 00	 call	 ?AfxGetUserConfig@@YAPAVAfxUserConfig@@XZ ; AfxGetUserConfig
  00b5d	8b c8		 mov	 ecx, eax
  00b5f	e8 00 00 00 00	 call	 ?GetConfigIntValue@AfxUserConfig@@QAEXABV?$basic_string@DU?$char_traits@D@std@@V?$allocator@D@2@@std@@0AAH@Z ; AfxUserConfig::GetConfigIntValue
  00b64	c6 45 fc 1f	 mov	 BYTE PTR __$EHRec$[ebp+8], 31 ; 0000001fH
  00b68	8d 8d ac fc ff
	ff		 lea	 ecx, DWORD PTR $T211315[ebp]
  00b6e	ff 15 00 00 00
	00		 call	 DWORD PTR __imp_??1?$basic_string@DU?$char_traits@D@std@@V?$allocator@D@2@@std@@QAE@XZ
  00b74	c6 45 fc 0e	 mov	 BYTE PTR __$EHRec$[ebp+8], 14 ; 0000000eH
  00b78	8d 8d c8 fc ff
	ff		 lea	 ecx, DWORD PTR $T211314[ebp]
  00b7e	ff 15 00 00 00
	00		 call	 DWORD PTR __imp_??1?$basic_string@DU?$char_traits@D@std@@V?$allocator@D@2@@std@@QAE@XZ

; 118  : 	
; 119  : 
; 120  : 	if( color == 0 && light == 120 && bSub )

  00b84	83 7d c0 00	 cmp	 DWORD PTR _color$[ebp], 0
  00b88	0f 85 4f 01 00
	00		 jne	 $L207689
  00b8e	83 7d 94 78	 cmp	 DWORD PTR _light$[ebp], 120 ; 00000078H
  00b92	0f 85 45 01 00
	00		 jne	 $L207689
  00b98	0f b6 4d b7	 movzx	 ecx, BYTE PTR _bSub$[ebp]
  00b9c	85 c9		 test	 ecx, ecx
  00b9e	0f 84 39 01 00
	00		 je	 $L207689

; 121  : 	{
; 122  : 		OneSubject* pSub = AfxGetUIManager()->UIGetSkinMgr()->GetCurSubject();

  00ba4	e8 00 00 00 00	 call	 ?AfxGetUIManager@@YAPAVIUIManager@@XZ ; AfxGetUIManager
  00ba9	89 85 ac fb ff
	ff		 mov	 DWORD PTR tv574[ebp], eax
  00baf	8b 95 ac fb ff
	ff		 mov	 edx, DWORD PTR tv574[ebp]
  00bb5	8b 02		 mov	 eax, DWORD PTR [edx]
  00bb7	8b 8d ac fb ff
	ff		 mov	 ecx, DWORD PTR tv574[ebp]
  00bbd	ff 50 28	 call	 DWORD PTR [eax+40]
  00bc0	89 85 a8 fb ff
	ff		 mov	 DWORD PTR tv579[ebp], eax
  00bc6	8b 8d a8 fb ff
	ff		 mov	 ecx, DWORD PTR tv579[ebp]
  00bcc	8b 11		 mov	 edx, DWORD PTR [ecx]
  00bce	8b 8d a8 fb ff
	ff		 mov	 ecx, DWORD PTR tv579[ebp]
  00bd4	ff 52 28	 call	 DWORD PTR [edx+40]
  00bd7	89 85 30 ff ff
	ff		 mov	 DWORD PTR _pSub$207690[ebp], eax

; 123  : 		if( pSub )

  00bdd	83 bd 30 ff ff
	ff 00		 cmp	 DWORD PTR _pSub$207690[ebp], 0
  00be4	0f 84 f3 00 00
	00		 je	 $L207689

; 124  : 		{
; 125  : 			color	 = pSub->subColor;

  00bea	8b 85 30 ff ff
	ff		 mov	 eax, DWORD PTR _pSub$207690[ebp]
  00bf0	8b 48 58	 mov	 ecx, DWORD PTR [eax+88]
  00bf3	89 4d c0	 mov	 DWORD PTR _color$[ebp], ecx

; 126  : 			light	 = pSub->iLight;

  00bf6	8b 95 30 ff ff
	ff		 mov	 edx, DWORD PTR _pSub$207690[ebp]
  00bfc	8b 42 5c	 mov	 eax, DWORD PTR [edx+92]
  00bff	89 45 94	 mov	 DWORD PTR _light$[ebp], eax

; 127  : 		
; 128  : 
; 129  : 			::AfxGetUserConfig()->SetConfigIntValue(CONF_SETTING_MODULE_NAME, CONF_SETTING_LIGHT, light);

  00c02	8b 0d 00 00 00
	00		 mov	 ecx, DWORD PTR _CONF_SETTING_LIGHT
  00c08	51		 push	 ecx
  00c09	8d 8d 90 fc ff
	ff		 lea	 ecx, DWORD PTR $T211316[ebp]
  00c0f	ff 15 00 00 00
	00		 call	 DWORD PTR __imp_??0?$basic_string@DU?$char_traits@D@std@@V?$allocator@D@2@@std@@QAE@PBD@Z
  00c15	c6 45 fc 21	 mov	 BYTE PTR __$EHRec$[ebp+8], 33 ; 00000021H
  00c19	8b 15 00 00 00
	00		 mov	 edx, DWORD PTR _CONF_SETTING_MODULE_NAME
  00c1f	52		 push	 edx
  00c20	8d 8d 74 fc ff
	ff		 lea	 ecx, DWORD PTR $T211317[ebp]
  00c26	ff 15 00 00 00
	00		 call	 DWORD PTR __imp_??0?$basic_string@DU?$char_traits@D@std@@V?$allocator@D@2@@std@@QAE@PBD@Z
  00c2c	c6 45 fc 22	 mov	 BYTE PTR __$EHRec$[ebp+8], 34 ; 00000022H
  00c30	6a 00		 push	 0
  00c32	8b 45 94	 mov	 eax, DWORD PTR _light$[ebp]
  00c35	50		 push	 eax
  00c36	8d 8d 90 fc ff
	ff		 lea	 ecx, DWORD PTR $T211316[ebp]
  00c3c	51		 push	 ecx
  00c3d	8d 95 74 fc ff
	ff		 lea	 edx, DWORD PTR $T211317[ebp]
  00c43	52		 push	 edx
  00c44	e8 00 00 00 00	 call	 ?AfxGetUserConfig@@YAPAVAfxUserConfig@@XZ ; AfxGetUserConfig
  00c49	8b c8		 mov	 ecx, eax
  00c4b	e8 00 00 00 00	 call	 ?SetConfigIntValue@AfxUserConfig@@QAEXABV?$basic_string@DU?$char_traits@D@std@@V?$allocator@D@2@@std@@0H_N@Z ; AfxUserConfig::SetConfigIntValue
  00c50	c6 45 fc 21	 mov	 BYTE PTR __$EHRec$[ebp+8], 33 ; 00000021H
  00c54	8d 8d 74 fc ff
	ff		 lea	 ecx, DWORD PTR $T211317[ebp]
  00c5a	ff 15 00 00 00
	00		 call	 DWORD PTR __imp_??1?$basic_string@DU?$char_traits@D@std@@V?$allocator@D@2@@std@@QAE@XZ
  00c60	c6 45 fc 0e	 mov	 BYTE PTR __$EHRec$[ebp+8], 14 ; 0000000eH
  00c64	8d 8d 90 fc ff
	ff		 lea	 ecx, DWORD PTR $T211316[ebp]
  00c6a	ff 15 00 00 00
	00		 call	 DWORD PTR __imp_??1?$basic_string@DU?$char_traits@D@std@@V?$allocator@D@2@@std@@QAE@XZ

; 130  : 			::AfxGetUserConfig()->SetConfigIntValue(CONF_SETTING_MODULE_NAME, CONF_SETTING_COLOR, color);

  00c70	a1 00 00 00 00	 mov	 eax, DWORD PTR _CONF_SETTING_COLOR
  00c75	50		 push	 eax
  00c76	8d 8d 58 fc ff
	ff		 lea	 ecx, DWORD PTR $T211318[ebp]
  00c7c	ff 15 00 00 00
	00		 call	 DWORD PTR __imp_??0?$basic_string@DU?$char_traits@D@std@@V?$allocator@D@2@@std@@QAE@PBD@Z
  00c82	c6 45 fc 23	 mov	 BYTE PTR __$EHRec$[ebp+8], 35 ; 00000023H
  00c86	8b 0d 00 00 00
	00		 mov	 ecx, DWORD PTR _CONF_SETTING_MODULE_NAME
  00c8c	51		 push	 ecx
  00c8d	8d 8d 3c fc ff
	ff		 lea	 ecx, DWORD PTR $T211319[ebp]
  00c93	ff 15 00 00 00
	00		 call	 DWORD PTR __imp_??0?$basic_string@DU?$char_traits@D@std@@V?$allocator@D@2@@std@@QAE@PBD@Z
  00c99	c6 45 fc 24	 mov	 BYTE PTR __$EHRec$[ebp+8], 36 ; 00000024H
  00c9d	6a 00		 push	 0
  00c9f	8b 55 c0	 mov	 edx, DWORD PTR _color$[ebp]
  00ca2	52		 push	 edx
  00ca3	8d 85 58 fc ff
	ff		 lea	 eax, DWORD PTR $T211318[ebp]
  00ca9	50		 push	 eax
  00caa	8d 8d 3c fc ff
	ff		 lea	 ecx, DWORD PTR $T211319[ebp]
  00cb0	51		 push	 ecx
  00cb1	e8 00 00 00 00	 call	 ?AfxGetUserConfig@@YAPAVAfxUserConfig@@XZ ; AfxGetUserConfig
  00cb6	8b c8		 mov	 ecx, eax
  00cb8	e8 00 00 00 00	 call	 ?SetConfigIntValue@AfxUserConfig@@QAEXABV?$basic_string@DU?$char_traits@D@std@@V?$allocator@D@2@@std@@0H_N@Z ; AfxUserConfig::SetConfigIntValue
  00cbd	c6 45 fc 23	 mov	 BYTE PTR __$EHRec$[ebp+8], 35 ; 00000023H
  00cc1	8d 8d 3c fc ff
	ff		 lea	 ecx, DWORD PTR $T211319[ebp]
  00cc7	ff 15 00 00 00
	00		 call	 DWORD PTR __imp_??1?$basic_string@DU?$char_traits@D@std@@V?$allocator@D@2@@std@@QAE@XZ
  00ccd	c6 45 fc 0e	 mov	 BYTE PTR __$EHRec$[ebp+8], 14 ; 0000000eH
  00cd1	8d 8d 58 fc ff
	ff		 lea	 ecx, DWORD PTR $T211318[ebp]
  00cd7	ff 15 00 00 00
	00		 call	 DWORD PTR __imp_??1?$basic_string@DU?$char_traits@D@std@@V?$allocator@D@2@@std@@QAE@XZ
$L207689:

; 131  : 		}
; 132  : 	}
; 133  : 
; 134  : 	::AfxGetUIManager()->UIGetChangeColorMgr()->SetSelectedColor(color);

  00cdd	e8 00 00 00 00	 call	 ?AfxGetUIManager@@YAPAVIUIManager@@XZ ; AfxGetUIManager
  00ce2	89 85 a4 fb ff
	ff		 mov	 DWORD PTR tv616[ebp], eax
  00ce8	8b 95 a4 fb ff
	ff		 mov	 edx, DWORD PTR tv616[ebp]
  00cee	8b 02		 mov	 eax, DWORD PTR [edx]
  00cf0	8b 8d a4 fb ff
	ff		 mov	 ecx, DWORD PTR tv616[ebp]
  00cf6	ff 50 2c	 call	 DWORD PTR [eax+44]
  00cf9	89 85 a0 fb ff
	ff		 mov	 DWORD PTR tv621[ebp], eax
  00cff	8b 4d c0	 mov	 ecx, DWORD PTR _color$[ebp]
  00d02	51		 push	 ecx
  00d03	8b 95 a0 fb ff
	ff		 mov	 edx, DWORD PTR tv621[ebp]
  00d09	8b 02		 mov	 eax, DWORD PTR [edx]
  00d0b	8b 8d a0 fb ff
	ff		 mov	 ecx, DWORD PTR tv621[ebp]
  00d11	ff 50 44	 call	 DWORD PTR [eax+68]

; 135  : 
; 136  : 	
; 137  : 
; 138  : 	if(!(color == 0 && light == 120) && !bSubError )

  00d14	83 7d c0 00	 cmp	 DWORD PTR _color$[ebp], 0
  00d18	75 06		 jne	 SHORT $L207697
  00d1a	83 7d 94 78	 cmp	 DWORD PTR _light$[ebp], 120 ; 00000078H
  00d1e	74 56		 je	 SHORT $L207696
$L207697:
  00d20	0f b6 8d 76 ff
	ff ff		 movzx	 ecx, BYTE PTR _bSubError$[ebp]
  00d27	85 c9		 test	 ecx, ecx
  00d29	75 4b		 jne	 SHORT $L207696

; 139  : 	{
; 140  : 		::AfxGetUIManager()->UIGetLayoutMgr()->OnchangeColor(color, light,!bNotifySub);

  00d2b	e8 00 00 00 00	 call	 ?AfxGetUIManager@@YAPAVIUIManager@@XZ ; AfxGetUIManager
  00d30	89 85 9c fb ff
	ff		 mov	 DWORD PTR tv631[ebp], eax
  00d36	8b 95 9c fb ff
	ff		 mov	 edx, DWORD PTR tv631[ebp]
  00d3c	8b 02		 mov	 eax, DWORD PTR [edx]
  00d3e	8b 8d 9c fb ff
	ff		 mov	 ecx, DWORD PTR tv631[ebp]
  00d44	ff 50 24	 call	 DWORD PTR [eax+36]
  00d47	89 85 98 fb ff
	ff		 mov	 DWORD PTR tv636[ebp], eax
  00d4d	0f b6 8d 77 ff
	ff ff		 movzx	 ecx, BYTE PTR _bNotifySub$[ebp]
  00d54	f7 d9		 neg	 ecx
  00d56	1a c9		 sbb	 cl, cl
  00d58	fe c1		 inc	 cl
  00d5a	51		 push	 ecx
  00d5b	8b 55 94	 mov	 edx, DWORD PTR _light$[ebp]
  00d5e	52		 push	 edx
  00d5f	8b 45 c0	 mov	 eax, DWORD PTR _color$[ebp]
  00d62	50		 push	 eax
  00d63	8b 8d 98 fb ff
	ff		 mov	 ecx, DWORD PTR tv636[ebp]
  00d69	8b 11		 mov	 edx, DWORD PTR [ecx]
  00d6b	8b 8d 98 fb ff
	ff		 mov	 ecx, DWORD PTR tv636[ebp]
  00d71	ff 52 04	 call	 DWORD PTR [edx+4]

; 141  : 	}
; 142  : 	else

  00d74	eb 66		 jmp	 SHORT $L207698
$L207696:

; 143  : 	{
; 144  : 		::AfxGetUIManager()->UIGetLayoutMgr()->LoadColors();

  00d76	e8 00 00 00 00	 call	 ?AfxGetUIManager@@YAPAVIUIManager@@XZ ; AfxGetUIManager
  00d7b	89 85 94 fb ff
	ff		 mov	 DWORD PTR tv647[ebp], eax
  00d81	8b 85 94 fb ff
	ff		 mov	 eax, DWORD PTR tv647[ebp]
  00d87	8b 10		 mov	 edx, DWORD PTR [eax]
  00d89	8b 8d 94 fb ff
	ff		 mov	 ecx, DWORD PTR tv647[ebp]
  00d8f	ff 52 24	 call	 DWORD PTR [edx+36]
  00d92	89 85 90 fb ff
	ff		 mov	 DWORD PTR tv652[ebp], eax
  00d98	8b 85 90 fb ff
	ff		 mov	 eax, DWORD PTR tv652[ebp]
  00d9e	8b 10		 mov	 edx, DWORD PTR [eax]
  00da0	8b 8d 90 fb ff
	ff		 mov	 ecx, DWORD PTR tv652[ebp]
  00da6	ff 52 68	 call	 DWORD PTR [edx+104]

; 145  : 		::AfxGetUIManager()->UIGetSkinMgr()->LoadWndsSkin();

  00da9	e8 00 00 00 00	 call	 ?AfxGetUIManager@@YAPAVIUIManager@@XZ ; AfxGetUIManager
  00dae	89 85 8c fb ff
	ff		 mov	 DWORD PTR tv657[ebp], eax
  00db4	8b 85 8c fb ff
	ff		 mov	 eax, DWORD PTR tv657[ebp]
  00dba	8b 10		 mov	 edx, DWORD PTR [eax]
  00dbc	8b 8d 8c fb ff
	ff		 mov	 ecx, DWORD PTR tv657[ebp]
  00dc2	ff 52 28	 call	 DWORD PTR [edx+40]
  00dc5	89 85 88 fb ff
	ff		 mov	 DWORD PTR tv662[ebp], eax
  00dcb	8b 85 88 fb ff
	ff		 mov	 eax, DWORD PTR tv662[ebp]
  00dd1	8b 10		 mov	 edx, DWORD PTR [eax]
  00dd3	8b 8d 88 fb ff
	ff		 mov	 ecx, DWORD PTR tv662[ebp]
  00dd9	ff 52 34	 call	 DWORD PTR [edx+52]
$L207698:

; 146  : 	}	
; 147  : 
; 148  : 	m_pPanesMgr->CreateLoadSubjectTread();

  00ddc	8b 85 fc fb ff
	ff		 mov	 eax, DWORD PTR _this$[ebp]
  00de2	8b 88 e8 00 00
	00		 mov	 ecx, DWORD PTR [eax+232]
  00de8	e8 00 00 00 00	 call	 ?CreateLoadSubjectTread@CPanesMgr@@QAEXXZ ; CPanesMgr::CreateLoadSubjectTread

; 149  : 	YL_Log( STR_LOG_FILE,LOG_NOTICE,"CUIManager","UIManAppStart-OUT" );

  00ded	68 00 00 00 00	 push	 OFFSET FLAT:$SG207702
  00df2	8d 8d 20 fc ff
	ff		 lea	 ecx, DWORD PTR $T211320[ebp]
  00df8	ff 15 00 00 00
	00		 call	 DWORD PTR __imp_??0?$basic_string@DU?$char_traits@D@std@@V?$allocator@D@2@@std@@QAE@PBD@Z
  00dfe	c6 45 fc 25	 mov	 BYTE PTR __$EHRec$[ebp+8], 37 ; 00000025H
  00e02	68 00 00 00 00	 push	 OFFSET FLAT:$SG207703
  00e07	8d 8d 04 fc ff
	ff		 lea	 ecx, DWORD PTR $T211321[ebp]
  00e0d	ff 15 00 00 00
	00		 call	 DWORD PTR __imp_??0?$basic_string@DU?$char_traits@D@std@@V?$allocator@D@2@@std@@QAE@PBD@Z
  00e13	c6 45 fc 26	 mov	 BYTE PTR __$EHRec$[ebp+8], 38 ; 00000026H
  00e17	68 00 00 00 00	 push	 OFFSET FLAT:$SG207701
  00e1c	8d 8d 20 fc ff
	ff		 lea	 ecx, DWORD PTR $T211320[ebp]
  00e22	51		 push	 ecx
  00e23	6a 01		 push	 1
  00e25	8d 95 04 fc ff
	ff		 lea	 edx, DWORD PTR $T211321[ebp]
  00e2b	52		 push	 edx
  00e2c	ff 15 00 00 00
	00		 call	 DWORD PTR __imp_?YL_Log@@YAXABV?$basic_string@DU?$char_traits@D@std@@V?$allocator@D@2@@std@@H0PBDZZ
  00e32	83 c4 10	 add	 esp, 16			; 00000010H
  00e35	c6 45 fc 25	 mov	 BYTE PTR __$EHRec$[ebp+8], 37 ; 00000025H
  00e39	8d 8d 04 fc ff
	ff		 lea	 ecx, DWORD PTR $T211321[ebp]
  00e3f	ff 15 00 00 00
	00		 call	 DWORD PTR __imp_??1?$basic_string@DU?$char_traits@D@std@@V?$allocator@D@2@@std@@QAE@XZ
  00e45	c6 45 fc 0e	 mov	 BYTE PTR __$EHRec$[ebp+8], 14 ; 0000000eH
  00e49	8d 8d 20 fc ff
	ff		 lea	 ecx, DWORD PTR $T211320[ebp]
  00e4f	ff 15 00 00 00
	00		 call	 DWORD PTR __imp_??1?$basic_string@DU?$char_traits@D@std@@V?$allocator@D@2@@std@@QAE@XZ

; 150  : 
; 151  : 	// 
; 152  : 	CTabPageControl::GetInstance()->OpenHomePage();

  00e55	e8 00 00 00 00	 call	 ?GetInstance@CTabPageControl@@SAPAV1@XZ ; CTabPageControl::GetInstance
  00e5a	8b c8		 mov	 ecx, eax
  00e5c	e8 00 00 00 00	 call	 ?OpenHomePage@CTabPageControl@@QAEXXZ ; CTabPageControl::OpenHomePage

; 153  : 	return true;

  00e61	c6 85 03 fc ff
	ff 01		 mov	 BYTE PTR $T211322[ebp], 1
  00e68	c6 45 fc 0d	 mov	 BYTE PTR __$EHRec$[ebp+8], 13 ; 0000000dH
  00e6c	8d 8d 58 ff ff
	ff		 lea	 ecx, DWORD PTR _strSubPath$[ebp]
  00e72	ff 15 00 00 00
	00		 call	 DWORD PTR __imp_??1?$basic_string@DU?$char_traits@D@std@@V?$allocator@D@2@@std@@QAE@XZ
  00e78	c6 45 fc 05	 mov	 BYTE PTR __$EHRec$[ebp+8], 5
  00e7c	8d 8d 78 ff ff
	ff		 lea	 ecx, DWORD PTR _strPath$[ebp]
  00e82	ff 15 00 00 00
	00		 call	 DWORD PTR __imp_??1?$basic_string@DU?$char_traits@D@std@@V?$allocator@D@2@@std@@QAE@XZ
  00e88	c6 45 fc 04	 mov	 BYTE PTR __$EHRec$[ebp+8], 4
  00e8c	8d 4d 98	 lea	 ecx, DWORD PTR _strSkinConfPath$[ebp]
  00e8f	ff 15 00 00 00
	00		 call	 DWORD PTR __imp_??1?$basic_string@DU?$char_traits@D@std@@V?$allocator@D@2@@std@@QAE@XZ
  00e95	c7 45 fc ff ff
	ff ff		 mov	 DWORD PTR __$EHRec$[ebp+8], -1
  00e9c	8d 4d d4	 lea	 ecx, DWORD PTR _strSkinPath$[ebp]
  00e9f	ff 15 00 00 00
	00		 call	 DWORD PTR __imp_??1?$basic_string@DU?$char_traits@D@std@@V?$allocator@D@2@@std@@QAE@XZ
  00ea5	8a 85 03 fc ff
	ff		 mov	 al, BYTE PTR $T211322[ebp]
$L207615:

; 154  : }

  00eab	8b 4d f4	 mov	 ecx, DWORD PTR __$EHRec$[ebp]
  00eae	64 89 0d 00 00
	00 00		 mov	 DWORD PTR fs:__except_list, ecx
  00eb5	8b 4d f0	 mov	 ecx, DWORD PTR __$ArrayPad$[ebp]
  00eb8	e8 00 00 00 00	 call	 @__security_check_cookie@4
  00ebd	8b e5		 mov	 esp, ebp
  00ebf	5d		 pop	 ebp
  00ec0	c3		 ret	 0
_TEXT	ENDS
text$x	SEGMENT
$L211323:
  0003a	8d 8d 14 ff ff
	ff		 lea	 ecx, DWORD PTR $T211277[ebp]
  00040	ff 25 00 00 00
	00		 jmp	 DWORD PTR __imp_??1?$basic_string@DU?$char_traits@D@std@@V?$allocator@D@2@@std@@QAE@XZ
$L211324:
  00046	8d 8d f8 fe ff
	ff		 lea	 ecx, DWORD PTR $T211278[ebp]
  0004c	ff 25 00 00 00
	00		 jmp	 DWORD PTR __imp_??1?$basic_string@DU?$char_traits@D@std@@V?$allocator@D@2@@std@@QAE@XZ
$L211325:
  00052	8b 85 f0 fe ff
	ff		 mov	 eax, DWORD PTR $T211280[ebp]
  00058	50		 push	 eax
  00059	e8 00 00 00 00	 call	 ??3CObject@@SGXPAX@Z	; CObject::operator delete
  0005e	c3		 ret	 0
$L211326:
  0005f	8b 85 e8 fe ff
	ff		 mov	 eax, DWORD PTR $T211284[ebp]
  00065	50		 push	 eax
  00066	e8 00 00 00 00	 call	 ??3@YAXPAX@Z		; operator delete
  0006b	59		 pop	 ecx
  0006c	c3		 ret	 0
$L211327:
  0006d	8d 4d d4	 lea	 ecx, DWORD PTR _strSkinPath$[ebp]
  00070	ff 25 00 00 00
	00		 jmp	 DWORD PTR __imp_??1?$basic_string@DU?$char_traits@D@std@@V?$allocator@D@2@@std@@QAE@XZ
$L211328:
  00076	8d 4d 98	 lea	 ecx, DWORD PTR _strSkinConfPath$[ebp]
  00079	ff 25 00 00 00
	00		 jmp	 DWORD PTR __imp_??1?$basic_string@DU?$char_traits@D@std@@V?$allocator@D@2@@std@@QAE@XZ
$L211329:
  0007f	8d 8d cc fe ff
	ff		 lea	 ecx, DWORD PTR $T211287[ebp]
  00085	ff 25 00 00 00
	00		 jmp	 DWORD PTR __imp_??1?$basic_string@DU?$char_traits@D@std@@V?$allocator@D@2@@std@@QAE@XZ
$L211330:
  0008b	8d 8d b0 fe ff
	ff		 lea	 ecx, DWORD PTR $T211288[ebp]
  00091	ff 25 00 00 00
	00		 jmp	 DWORD PTR __imp_??1?$basic_string@DU?$char_traits@D@std@@V?$allocator@D@2@@std@@QAE@XZ
$L211331:
  00097	8d 8d 94 fe ff
	ff		 lea	 ecx, DWORD PTR $T211289[ebp]
  0009d	ff 25 00 00 00
	00		 jmp	 DWORD PTR __imp_??1?$basic_string@DU?$char_traits@D@std@@V?$allocator@D@2@@std@@QAE@XZ
$L211332:
  000a3	8d 8d 78 fe ff
	ff		 lea	 ecx, DWORD PTR $T211290[ebp]
  000a9	ff 25 00 00 00
	00		 jmp	 DWORD PTR __imp_??1?$basic_string@DU?$char_traits@D@std@@V?$allocator@D@2@@std@@QAE@XZ
$L211336:
  000af	8b 8d 64 fe ff
	ff		 mov	 ecx, DWORD PTR $T211295[ebp]
  000b5	ff 25 00 00 00
	00		 jmp	 DWORD PTR __imp_??1?$CStringT@DV?$StrTraitMFC_DLL@DV?$ChTraitsCRT@D@ATL@@@@@ATL@@QAE@XZ
$L211338:
  000bb	8d 8d 5c fe ff
	ff		 lea	 ecx, DWORD PTR $T211297[ebp]
  000c1	ff 25 00 00 00
	00		 jmp	 DWORD PTR __imp_??1?$CStringT@DV?$StrTraitMFC_DLL@DV?$ChTraitsCRT@D@ATL@@@@@ATL@@QAE@XZ
$L211339:
  000c7	8d 8d 78 ff ff
	ff		 lea	 ecx, DWORD PTR _strPath$[ebp]
  000cd	ff 25 00 00 00
	00		 jmp	 DWORD PTR __imp_??1?$basic_string@DU?$char_traits@D@std@@V?$allocator@D@2@@std@@QAE@XZ
$L211340:
  000d3	8d 8d 58 ff ff
	ff		 lea	 ecx, DWORD PTR _strSubPath$[ebp]
  000d9	ff 25 00 00 00
	00		 jmp	 DWORD PTR __imp_??1?$basic_string@DU?$char_traits@D@std@@V?$allocator@D@2@@std@@QAE@XZ
$L211341:
  000df	8d 8d 3c ff ff
	ff		 lea	 ecx, DWORD PTR _szCurSkin$207658[ebp]
  000e5	ff 25 00 00 00
	00		 jmp	 DWORD PTR __imp_??1?$basic_string@DU?$char_traits@D@std@@V?$allocator@D@2@@std@@QAE@XZ
$L211342:
  000eb	8d 8d 40 fe ff
	ff		 lea	 ecx, DWORD PTR $T211298[ebp]
  000f1	ff 25 00 00 00
	00		 jmp	 DWORD PTR __imp_??1?$basic_string@DU?$char_traits@D@std@@V?$allocator@D@2@@std@@QAE@XZ
$L211343:
  000f7	8d 8d 24 fe ff
	ff		 lea	 ecx, DWORD PTR $T211299[ebp]
  000fd	ff 25 00 00 00
	00		 jmp	 DWORD PTR __imp_??1?$basic_string@DU?$char_traits@D@std@@V?$allocator@D@2@@std@@QAE@XZ
$L211345:
  00103	8d 8d 1c fe ff
	ff		 lea	 ecx, DWORD PTR $T211301[ebp]
  00109	ff 25 00 00 00
	00		 jmp	 DWORD PTR __imp_??1?$CStringT@DV?$StrTraitMFC_DLL@DV?$ChTraitsCRT@D@ATL@@@@@ATL@@QAE@XZ
$L211346:
  0010f	8d 8d 18 fe ff
	ff		 lea	 ecx, DWORD PTR $T211302[ebp]
  00115	ff 25 00 00 00
	00		 jmp	 DWORD PTR __imp_??1?$CStringT@DV?$StrTraitMFC_DLL@DV?$ChTraitsCRT@D@ATL@@@@@ATL@@QAE@XZ
$L211347:
  0011b	8d 8d fc fd ff
	ff		 lea	 ecx, DWORD PTR $T211303[ebp]
  00121	ff 25 00 00 00
	00		 jmp	 DWORD PTR __imp_??1?$basic_string@DU?$char_traits@D@std@@V?$allocator@D@2@@std@@QAE@XZ
$L211348:
  00127	8d 8d e0 fd ff
	ff		 lea	 ecx, DWORD PTR $T211304[ebp]
  0012d	ff 25 00 00 00
	00		 jmp	 DWORD PTR __imp_??1?$basic_string@DU?$char_traits@D@std@@V?$allocator@D@2@@std@@QAE@XZ
$L211349:
  00133	8d 8d c4 fd ff
	ff		 lea	 ecx, DWORD PTR $T211305[ebp]
  00139	ff 25 00 00 00
	00		 jmp	 DWORD PTR __imp_??1?$basic_string@DU?$char_traits@D@std@@V?$allocator@D@2@@std@@QAE@XZ
$L211350:
  0013f	8d 8d a8 fd ff
	ff		 lea	 ecx, DWORD PTR $T211306[ebp]
  00145	ff 25 00 00 00
	00		 jmp	 DWORD PTR __imp_??1?$basic_string@DU?$char_traits@D@std@@V?$allocator@D@2@@std@@QAE@XZ
$L211351:
  0014b	8d 8d 8c fd ff
	ff		 lea	 ecx, DWORD PTR $T211307[ebp]
  00151	ff 25 00 00 00
	00		 jmp	 DWORD PTR __imp_??1?$basic_string@DU?$char_traits@D@std@@V?$allocator@D@2@@std@@QAE@XZ
$L211352:
  00157	8d 8d 70 fd ff
	ff		 lea	 ecx, DWORD PTR $T211308[ebp]
  0015d	ff 25 00 00 00
	00		 jmp	 DWORD PTR __imp_??1?$basic_string@DU?$char_traits@D@std@@V?$allocator@D@2@@std@@QAE@XZ
$L211353:
  00163	8d 8d 54 fd ff
	ff		 lea	 ecx, DWORD PTR $T211309[ebp]
  00169	ff 25 00 00 00
	00		 jmp	 DWORD PTR __imp_??1?$basic_string@DU?$char_traits@D@std@@V?$allocator@D@2@@std@@QAE@XZ
$L211354:
  0016f	8d 8d 38 fd ff
	ff		 lea	 ecx, DWORD PTR $T211310[ebp]
  00175	ff 25 00 00 00
	00		 jmp	 DWORD PTR __imp_??1?$basic_string@DU?$char_traits@D@std@@V?$allocator@D@2@@std@@QAE@XZ
$L211355:
  0017b	8d 8d 1c fd ff
	ff		 lea	 ecx, DWORD PTR $T211311[ebp]
  00181	ff 25 00 00 00
	00		 jmp	 DWORD PTR __imp_??1?$basic_string@DU?$char_traits@D@std@@V?$allocator@D@2@@std@@QAE@XZ
$L211356:
  00187	8d 8d 00 fd ff
	ff		 lea	 ecx, DWORD PTR $T211312[ebp]
  0018d	ff 25 00 00 00
	00		 jmp	 DWORD PTR __imp_??1?$basic_string@DU?$char_traits@D@std@@V?$allocator@D@2@@std@@QAE@XZ
$L211357:
  00193	8d 8d e4 fc ff
	ff		 lea	 ecx, DWORD PTR $T211313[ebp]
  00199	ff 25 00 00 00
	00		 jmp	 DWORD PTR __imp_??1?$basic_string@DU?$char_traits@D@std@@V?$allocator@D@2@@std@@QAE@XZ
$L211358:
  0019f	8d 8d c8 fc ff
	ff		 lea	 ecx, DWORD PTR $T211314[ebp]
  001a5	ff 25 00 00 00
	00		 jmp	 DWORD PTR __imp_??1?$basic_string@DU?$char_traits@D@std@@V?$allocator@D@2@@std@@QAE@XZ
$L211359:
  001ab	8d 8d ac fc ff
	ff		 lea	 ecx, DWORD PTR $T211315[ebp]
  001b1	ff 25 00 00 00
	00		 jmp	 DWORD PTR __imp_??1?$basic_string@DU?$char_traits@D@std@@V?$allocator@D@2@@std@@QAE@XZ
$L211360:
  001b7	8d 8d 90 fc ff
	ff		 lea	 ecx, DWORD PTR $T211316[ebp]
  001bd	ff 25 00 00 00
	00		 jmp	 DWORD PTR __imp_??1?$basic_string@DU?$char_traits@D@std@@V?$allocator@D@2@@std@@QAE@XZ
$L211361:
  001c3	8d 8d 74 fc ff
	ff		 lea	 ecx, DWORD PTR $T211317[ebp]
  001c9	ff 25 00 00 00
	00		 jmp	 DWORD PTR __imp_??1?$basic_string@DU?$char_traits@D@std@@V?$allocator@D@2@@std@@QAE@XZ
$L211362:
  001cf	8d 8d 58 fc ff
	ff		 lea	 ecx, DWORD PTR $T211318[ebp]
  001d5	ff 25 00 00 00
	00		 jmp	 DWORD PTR __imp_??1?$basic_string@DU?$char_traits@D@std@@V?$allocator@D@2@@std@@QAE@XZ
$L211363:
  001db	8d 8d 3c fc ff
	ff		 lea	 ecx, DWORD PTR $T211319[ebp]
  001e1	ff 25 00 00 00
	00		 jmp	 DWORD PTR __imp_??1?$basic_string@DU?$char_traits@D@std@@V?$allocator@D@2@@std@@QAE@XZ
$L211364:
  001e7	8d 8d 20 fc ff
	ff		 lea	 ecx, DWORD PTR $T211320[ebp]
  001ed	ff 25 00 00 00
	00		 jmp	 DWORD PTR __imp_??1?$basic_string@DU?$char_traits@D@std@@V?$allocator@D@2@@std@@QAE@XZ
$L211365:
  001f3	8d 8d 04 fc ff
	ff		 lea	 ecx, DWORD PTR $T211321[ebp]
  001f9	ff 25 00 00 00
	00		 jmp	 DWORD PTR __imp_??1?$basic_string@DU?$char_traits@D@std@@V?$allocator@D@2@@std@@QAE@XZ
__ehhandler$?UIManAppStart@CUIManager@@UAE_NXZ:
  001ff	b8 00 00 00 00	 mov	 eax, OFFSET FLAT:$T211367
  00204	e9 00 00 00 00	 jmp	 ___CxxFrameHandler
text$x	ENDS
?UIManAppStart@CUIManager@@UAE_NXZ ENDP			; CUIManager::UIManAppStart
PUBLIC	??0?$list@PAVIMessageObserver@@V?$allocator@PAVIMessageObserver@@@std@@@std@@QAE@XZ ; std::list<IMessageObserver *,std::allocator<IMessageObserver *> >::list<IMessageObserver *,std::allocator<IMessageObserver *> >
PUBLIC	??1?$list@PAVIMessageObserver@@V?$allocator@PAVIMessageObserver@@@std@@@std@@QAE@XZ ; std::list<IMessageObserver *,std::allocator<IMessageObserver *> >::~list<IMessageObserver *,std::allocator<IMessageObserver *> >
PUBLIC	?begin@?$list@PAVIMessageObserver@@V?$allocator@PAVIMessageObserver@@@std@@@std@@QAE?AViterator@12@XZ ; std::list<IMessageObserver *,std::allocator<IMessageObserver *> >::begin
PUBLIC	?end@?$list@PAVIMessageObserver@@V?$allocator@PAVIMessageObserver@@@std@@@std@@QAE?AViterator@12@XZ ; std::list<IMessageObserver *,std::allocator<IMessageObserver *> >::end
PUBLIC	??9const_iterator@?$list@PAVIMessageObserver@@V?$allocator@PAVIMessageObserver@@@std@@@std@@QBE_NABV012@@Z ; std::list<IMessageObserver *,std::allocator<IMessageObserver *> >::const_iterator::operator!=
PUBLIC	??Diterator@?$list@PAVIMessageObserver@@V?$allocator@PAVIMessageObserver@@@std@@@std@@QBEAAPAVIMessageObserver@@XZ ; std::list<IMessageObserver *,std::allocator<IMessageObserver *> >::iterator::operator*
PUBLIC	??Eiterator@?$list@PAVIMessageObserver@@V?$allocator@PAVIMessageObserver@@@std@@@std@@QAE?AV012@H@Z ; std::list<IMessageObserver *,std::allocator<IMessageObserver *> >::iterator::operator++
PUBLIC	??_R0?AVIAppExitObserver@@@8			; IAppExitObserver `RTTI Type Descriptor'
PUBLIC	??_R0?AVIMessageObserver@@@8			; IMessageObserver `RTTI Type Descriptor'
EXTRN	___RTDynamicCast:NEAR
EXTRN	_CoolSB_UninitializeApp@0:NEAR
EXTRN	?AfxGetMessageManager@@YAPAVIMessageManager@@XZ:NEAR ; AfxGetMessageManager
xdata$x	SEGMENT
$T211430 DD	0ffffffffH
	DD	FLAT:$L211414
	DD	00H
	DD	FLAT:$L211415
	DD	0ffffffffH
	DD	FLAT:$L211416
	DD	02H
	DD	FLAT:$L211417
	DD	0ffffffffH
	DD	FLAT:$L211418
	DD	04H
	DD	FLAT:$L211419
	DD	0ffffffffH
	DD	FLAT:$L211420
	DD	06H
	DD	FLAT:$L211421
	DD	07H
	DD	FLAT:$L211422
	DD	06H
	DD	FLAT:$L211423
	DD	09H
	DD	FLAT:$L211424
	DD	06H
	DD	FLAT:$L211425
	DD	0bH
	DD	FLAT:$L211426
$T211428 DD	019930520H
	DD	0dH
	DD	FLAT:$T211430
	DD	2 DUP(00H)
	DD	2 DUP(00H)
xdata$x	ENDS
;	COMDAT ??_R0?AVIAppExitObserver@@@8
_DATA	SEGMENT
??_R0?AVIAppExitObserver@@@8 DD FLAT:??_7type_info@@6B@	; IAppExitObserver `RTTI Type Descriptor'
	DD	00H
	DB	'.?AVIAppExitObserver@@', 00H
_DATA	ENDS
;	COMDAT ??_R0?AVIMessageObserver@@@8
_DATA	SEGMENT
??_R0?AVIMessageObserver@@@8 DD FLAT:??_7type_info@@6B@	; IMessageObserver `RTTI Type Descriptor'
	DD	00H
	DB	'.?AVIMessageObserver@@', 00H
	ORG $-31
	DD	FLAT:??_7type_info@@6B@
	DD	00H
	DB	'.?AVIMessageObserver@@', 00H
; Function compile flags: /Odt
_DATA	ENDS
_TEXT	SEGMENT
tv289 = -472						; size = 4
tv266 = -468						; size = 4
tv258 = -464						; size = 4
tv241 = -460						; size = 4
tv224 = -456						; size = 4
tv207 = -452						; size = 4
tv190 = -448						; size = 4
tv145 = -444						; size = 4
tv93 = -440						; size = 4
_this$ = -436						; size = 4
$T211413 = -432						; size = 28
$T211412 = -404						; size = 28
$T211411 = -376						; size = 28
$T211410 = -348						; size = 28
$T211407 = -320						; size = 4
$T211406 = -316						; size = 4
$T211405 = -312						; size = 28
$T211404 = -284						; size = 28
$T211401 = -256						; size = 4
$T211400 = -252						; size = 4
$T211397 = -248						; size = 4
$T211396 = -244						; size = 4
$T211393 = -240						; size = 4
$T211392 = -236						; size = 4
$T211389 = -232						; size = 4
$T211388 = -228						; size = 4
$T211385 = -224						; size = 4
$T211384 = -220						; size = 4
$T211381 = -216						; size = 4
$T211380 = -212						; size = 4
$T211379 = -208						; size = 4
$T211378 = -204						; size = 4
$T211377 = -200						; size = 28
$T211376 = -172						; size = 28
$T211375 = -144						; size = 28
$T211374 = -116						; size = 28
$T211373 = -88						; size = 28
$T211372 = -60						; size = 28
_pOb$208224 = -32					; size = 4
_itOb$208217 = -28					; size = 4
_listOb$ = -24						; size = 12
__$EHRec$ = -12						; size = 12
?UIManAppExit@CUIManager@@UAEXXZ PROC NEAR		; CUIManager::UIManAppExit
; _this$ = ecx

; 158  : {

  00ed0	55		 push	 ebp
  00ed1	8b ec		 mov	 ebp, esp
  00ed3	6a ff		 push	 -1
  00ed5	68 00 00 00 00	 push	 __ehhandler$?UIManAppExit@CUIManager@@UAEXXZ
  00eda	64 a1 00 00 00
	00		 mov	 eax, DWORD PTR fs:__except_list
  00ee0	50		 push	 eax
  00ee1	64 89 25 00 00
	00 00		 mov	 DWORD PTR fs:__except_list, esp
  00ee8	81 ec cc 01 00
	00		 sub	 esp, 460		; 000001ccH
  00eee	89 8d 4c fe ff
	ff		 mov	 DWORD PTR _this$[ebp], ecx

; 159  : 	YL_Log( STR_LOG_FILE,LOG_NOTICE,"CUIManager","UIManAppExit======IN" );

  00ef4	68 00 00 00 00	 push	 OFFSET FLAT:$SG207711
  00ef9	8d 4d c4	 lea	 ecx, DWORD PTR $T211372[ebp]
  00efc	ff 15 00 00 00
	00		 call	 DWORD PTR __imp_??0?$basic_string@DU?$char_traits@D@std@@V?$allocator@D@2@@std@@QAE@PBD@Z
  00f02	c7 45 fc 00 00
	00 00		 mov	 DWORD PTR __$EHRec$[ebp+8], 0
  00f09	68 00 00 00 00	 push	 OFFSET FLAT:$SG207712
  00f0e	8d 4d a8	 lea	 ecx, DWORD PTR $T211373[ebp]
  00f11	ff 15 00 00 00
	00		 call	 DWORD PTR __imp_??0?$basic_string@DU?$char_traits@D@std@@V?$allocator@D@2@@std@@QAE@PBD@Z
  00f17	c6 45 fc 01	 mov	 BYTE PTR __$EHRec$[ebp+8], 1
  00f1b	68 00 00 00 00	 push	 OFFSET FLAT:$SG207710
  00f20	8d 45 c4	 lea	 eax, DWORD PTR $T211372[ebp]
  00f23	50		 push	 eax
  00f24	6a 01		 push	 1
  00f26	8d 4d a8	 lea	 ecx, DWORD PTR $T211373[ebp]
  00f29	51		 push	 ecx
  00f2a	ff 15 00 00 00
	00		 call	 DWORD PTR __imp_?YL_Log@@YAXABV?$basic_string@DU?$char_traits@D@std@@V?$allocator@D@2@@std@@H0PBDZZ
  00f30	83 c4 10	 add	 esp, 16			; 00000010H
  00f33	c6 45 fc 00	 mov	 BYTE PTR __$EHRec$[ebp+8], 0
  00f37	8d 4d a8	 lea	 ecx, DWORD PTR $T211373[ebp]
  00f3a	ff 15 00 00 00
	00		 call	 DWORD PTR __imp_??1?$basic_string@DU?$char_traits@D@std@@V?$allocator@D@2@@std@@QAE@XZ
  00f40	c7 45 fc ff ff
	ff ff		 mov	 DWORD PTR __$EHRec$[ebp+8], -1
  00f47	8d 4d c4	 lea	 ecx, DWORD PTR $T211372[ebp]
  00f4a	ff 15 00 00 00
	00		 call	 DWORD PTR __imp_??1?$basic_string@DU?$char_traits@D@std@@V?$allocator@D@2@@std@@QAE@XZ

; 160  : 	YL_Log(STR_LOG_FILE,LOG_DEBUG,"CUIManager","1");	

  00f50	68 00 00 00 00	 push	 OFFSET FLAT:$SG207716
  00f55	8d 4d 8c	 lea	 ecx, DWORD PTR $T211374[ebp]
  00f58	ff 15 00 00 00
	00		 call	 DWORD PTR __imp_??0?$basic_string@DU?$char_traits@D@std@@V?$allocator@D@2@@std@@QAE@PBD@Z
  00f5e	c7 45 fc 02 00
	00 00		 mov	 DWORD PTR __$EHRec$[ebp+8], 2
  00f65	68 00 00 00 00	 push	 OFFSET FLAT:$SG207717
  00f6a	8d 8d 70 ff ff
	ff		 lea	 ecx, DWORD PTR $T211375[ebp]
  00f70	ff 15 00 00 00
	00		 call	 DWORD PTR __imp_??0?$basic_string@DU?$char_traits@D@std@@V?$allocator@D@2@@std@@QAE@PBD@Z
  00f76	c6 45 fc 03	 mov	 BYTE PTR __$EHRec$[ebp+8], 3
  00f7a	68 00 00 00 00	 push	 OFFSET FLAT:$SG207715
  00f7f	8d 55 8c	 lea	 edx, DWORD PTR $T211374[ebp]
  00f82	52		 push	 edx
  00f83	6a 00		 push	 0
  00f85	8d 85 70 ff ff
	ff		 lea	 eax, DWORD PTR $T211375[ebp]
  00f8b	50		 push	 eax
  00f8c	ff 15 00 00 00
	00		 call	 DWORD PTR __imp_?YL_Log@@YAXABV?$basic_string@DU?$char_traits@D@std@@V?$allocator@D@2@@std@@H0PBDZZ
  00f92	83 c4 10	 add	 esp, 16			; 00000010H
  00f95	c6 45 fc 02	 mov	 BYTE PTR __$EHRec$[ebp+8], 2
  00f99	8d 8d 70 ff ff
	ff		 lea	 ecx, DWORD PTR $T211375[ebp]
  00f9f	ff 15 00 00 00
	00		 call	 DWORD PTR __imp_??1?$basic_string@DU?$char_traits@D@std@@V?$allocator@D@2@@std@@QAE@XZ
  00fa5	c7 45 fc ff ff
	ff ff		 mov	 DWORD PTR __$EHRec$[ebp+8], -1
  00fac	8d 4d 8c	 lea	 ecx, DWORD PTR $T211374[ebp]
  00faf	ff 15 00 00 00
	00		 call	 DWORD PTR __imp_??1?$basic_string@DU?$char_traits@D@std@@V?$allocator@D@2@@std@@QAE@XZ

; 161  : 	this->UIGetLayoutMgr()->AppExit();

  00fb5	8b 8d 4c fe ff
	ff		 mov	 ecx, DWORD PTR _this$[ebp]
  00fbb	8b 11		 mov	 edx, DWORD PTR [ecx]
  00fbd	8b 8d 4c fe ff
	ff		 mov	 ecx, DWORD PTR _this$[ebp]
  00fc3	ff 52 24	 call	 DWORD PTR [edx+36]
  00fc6	89 85 48 fe ff
	ff		 mov	 DWORD PTR tv93[ebp], eax
  00fcc	8b 85 48 fe ff
	ff		 mov	 eax, DWORD PTR tv93[ebp]
  00fd2	8b 10		 mov	 edx, DWORD PTR [eax]
  00fd4	8b 8d 48 fe ff
	ff		 mov	 ecx, DWORD PTR tv93[ebp]
  00fda	ff 52 18	 call	 DWORD PTR [edx+24]

; 162  : 	YL_Log(STR_LOG_FILE,LOG_DEBUG,"CUIManager","2");

  00fdd	68 00 00 00 00	 push	 OFFSET FLAT:$SG207721
  00fe2	8d 8d 54 ff ff
	ff		 lea	 ecx, DWORD PTR $T211376[ebp]
  00fe8	ff 15 00 00 00
	00		 call	 DWORD PTR __imp_??0?$basic_string@DU?$char_traits@D@std@@V?$allocator@D@2@@std@@QAE@PBD@Z
  00fee	c7 45 fc 04 00
	00 00		 mov	 DWORD PTR __$EHRec$[ebp+8], 4
  00ff5	68 00 00 00 00	 push	 OFFSET FLAT:$SG207722
  00ffa	8d 8d 38 ff ff
	ff		 lea	 ecx, DWORD PTR $T211377[ebp]
  01000	ff 15 00 00 00
	00		 call	 DWORD PTR __imp_??0?$basic_string@DU?$char_traits@D@std@@V?$allocator@D@2@@std@@QAE@PBD@Z
  01006	c6 45 fc 05	 mov	 BYTE PTR __$EHRec$[ebp+8], 5
  0100a	68 00 00 00 00	 push	 OFFSET FLAT:$SG207720
  0100f	8d 85 54 ff ff
	ff		 lea	 eax, DWORD PTR $T211376[ebp]
  01015	50		 push	 eax
  01016	6a 00		 push	 0
  01018	8d 8d 38 ff ff
	ff		 lea	 ecx, DWORD PTR $T211377[ebp]
  0101e	51		 push	 ecx
  0101f	ff 15 00 00 00
	00		 call	 DWORD PTR __imp_?YL_Log@@YAXABV?$basic_string@DU?$char_traits@D@std@@V?$allocator@D@2@@std@@H0PBDZZ
  01025	83 c4 10	 add	 esp, 16			; 00000010H
  01028	c6 45 fc 04	 mov	 BYTE PTR __$EHRec$[ebp+8], 4
  0102c	8d 8d 38 ff ff
	ff		 lea	 ecx, DWORD PTR $T211377[ebp]
  01032	ff 15 00 00 00
	00		 call	 DWORD PTR __imp_??1?$basic_string@DU?$char_traits@D@std@@V?$allocator@D@2@@std@@QAE@XZ
  01038	c7 45 fc ff ff
	ff ff		 mov	 DWORD PTR __$EHRec$[ebp+8], -1
  0103f	8d 8d 54 ff ff
	ff		 lea	 ecx, DWORD PTR $T211376[ebp]
  01045	ff 15 00 00 00
	00		 call	 DWORD PTR __imp_??1?$basic_string@DU?$char_traits@D@std@@V?$allocator@D@2@@std@@QAE@XZ

; 163  : 
; 164  : 	list<IMessageObserver*> listOb;

  0104b	8d 4d e8	 lea	 ecx, DWORD PTR _listOb$[ebp]
  0104e	e8 00 00 00 00	 call	 ??0?$list@PAVIMessageObserver@@V?$allocator@PAVIMessageObserver@@@std@@@std@@QAE@XZ ; std::list<IMessageObserver *,std::allocator<IMessageObserver *> >::list<IMessageObserver *,std::allocator<IMessageObserver *> >
  01053	c7 45 fc 06 00
	00 00		 mov	 DWORD PTR __$EHRec$[ebp+8], 6

; 165  : 	AfxGetMessageManager()->QueryObservers( ID_MESSAGE_APPEXIT,listOb);

  0105a	e8 00 00 00 00	 call	 ?AfxGetMessageManager@@YAPAVIMessageManager@@XZ ; AfxGetMessageManager
  0105f	89 85 44 fe ff
	ff		 mov	 DWORD PTR tv145[ebp], eax
  01065	8d 55 e8	 lea	 edx, DWORD PTR _listOb$[ebp]
  01068	52		 push	 edx
  01069	68 00 00 00 00	 push	 OFFSET FLAT:_ID_MESSAGE_APPEXIT
  0106e	8b 85 44 fe ff
	ff		 mov	 eax, DWORD PTR tv145[ebp]
  01074	8b 10		 mov	 edx, DWORD PTR [eax]
  01076	8b 8d 44 fe ff
	ff		 mov	 ecx, DWORD PTR tv145[ebp]
  0107c	ff 52 0c	 call	 DWORD PTR [edx+12]

; 166  : 
; 167  : 	for( list<IMessageObserver*>::iterator itOb = listOb.begin();itOb != listOb.end();itOb++ )

  0107f	8d 45 e4	 lea	 eax, DWORD PTR _itOb$208217[ebp]
  01082	50		 push	 eax
  01083	8d 4d e8	 lea	 ecx, DWORD PTR _listOb$[ebp]
  01086	e8 00 00 00 00	 call	 ?begin@?$list@PAVIMessageObserver@@V?$allocator@PAVIMessageObserver@@@std@@@std@@QAE?AViterator@12@XZ ; std::list<IMessageObserver *,std::allocator<IMessageObserver *> >::begin
  0108b	eb 11		 jmp	 SHORT $L208221
$L208222:
  0108d	6a 00		 push	 0
  0108f	8d 8d 34 ff ff
	ff		 lea	 ecx, DWORD PTR $T211378[ebp]
  01095	51		 push	 ecx
  01096	8d 4d e4	 lea	 ecx, DWORD PTR _itOb$208217[ebp]
  01099	e8 00 00 00 00	 call	 ??Eiterator@?$list@PAVIMessageObserver@@V?$allocator@PAVIMessageObserver@@@std@@@std@@QAE?AV012@H@Z ; std::list<IMessageObserver *,std::allocator<IMessageObserver *> >::iterator::operator++
$L208221:
  0109e	8d 95 30 ff ff
	ff		 lea	 edx, DWORD PTR $T211379[ebp]
  010a4	52		 push	 edx
  010a5	8d 4d e8	 lea	 ecx, DWORD PTR _listOb$[ebp]
  010a8	e8 00 00 00 00	 call	 ?end@?$list@PAVIMessageObserver@@V?$allocator@PAVIMessageObserver@@@std@@@std@@QAE?AViterator@12@XZ ; std::list<IMessageObserver *,std::allocator<IMessageObserver *> >::end
  010ad	50		 push	 eax
  010ae	8d 4d e4	 lea	 ecx, DWORD PTR _itOb$208217[ebp]
  010b1	e8 00 00 00 00	 call	 ??9const_iterator@?$list@PAVIMessageObserver@@V?$allocator@PAVIMessageObserver@@@std@@@std@@QBE_NABV012@@Z ; std::list<IMessageObserver *,std::allocator<IMessageObserver *> >::const_iterator::operator!=
  010b6	0f b6 c0	 movzx	 eax, al
  010b9	85 c0		 test	 eax, eax
  010bb	74 30		 je	 SHORT $L208223

; 168  : 	{
; 169  : 		IAppExitObserver* pOb = dynamic_cast<IAppExitObserver*>(*itOb);

  010bd	6a 00		 push	 0
  010bf	68 00 00 00 00	 push	 OFFSET FLAT:??_R0?AVIAppExitObserver@@@8
  010c4	68 00 00 00 00	 push	 OFFSET FLAT:??_R0?AVIMessageObserver@@@8
  010c9	6a 00		 push	 0
  010cb	8d 4d e4	 lea	 ecx, DWORD PTR _itOb$208217[ebp]
  010ce	e8 00 00 00 00	 call	 ??Diterator@?$list@PAVIMessageObserver@@V?$allocator@PAVIMessageObserver@@@std@@@std@@QBEAAPAVIMessageObserver@@XZ ; std::list<IMessageObserver *,std::allocator<IMessageObserver *> >::iterator::operator*
  010d3	8b 08		 mov	 ecx, DWORD PTR [eax]
  010d5	51		 push	 ecx
  010d6	e8 00 00 00 00	 call	 ___RTDynamicCast
  010db	83 c4 14	 add	 esp, 20			; 00000014H
  010de	89 45 e0	 mov	 DWORD PTR _pOb$208224[ebp], eax

; 170  : 		pOb->IAppExit( );

  010e1	8b 55 e0	 mov	 edx, DWORD PTR _pOb$208224[ebp]
  010e4	8b 02		 mov	 eax, DWORD PTR [edx]
  010e6	8b 4d e0	 mov	 ecx, DWORD PTR _pOb$208224[ebp]
  010e9	ff 10		 call	 DWORD PTR [eax]

; 171  : 	}

  010eb	eb a0		 jmp	 SHORT $L208222
$L208223:

; 172  : 
; 173  : 	DESTROY_WINDOW(m_pWndTopPanel);

  010ed	8b 8d 4c fe ff
	ff		 mov	 ecx, DWORD PTR _this$[ebp]
  010f3	83 79 04 00	 cmp	 DWORD PTR [ecx+4], 0
  010f7	74 60		 je	 SHORT $L208227
  010f9	8b 95 4c fe ff
	ff		 mov	 edx, DWORD PTR _this$[ebp]
  010ff	8b 42 04	 mov	 eax, DWORD PTR [edx+4]
  01102	8b 8d 4c fe ff
	ff		 mov	 ecx, DWORD PTR _this$[ebp]
  01108	8b 49 04	 mov	 ecx, DWORD PTR [ecx+4]
  0110b	8b 10		 mov	 edx, DWORD PTR [eax]
  0110d	ff 52 68	 call	 DWORD PTR [edx+104]
  01110	8b 85 4c fe ff
	ff		 mov	 eax, DWORD PTR _this$[ebp]
  01116	8b 48 04	 mov	 ecx, DWORD PTR [eax+4]
  01119	89 8d 28 ff ff
	ff		 mov	 DWORD PTR $T211381[ebp], ecx
  0111f	8b 95 28 ff ff
	ff		 mov	 edx, DWORD PTR $T211381[ebp]
  01125	89 95 2c ff ff
	ff		 mov	 DWORD PTR $T211380[ebp], edx
  0112b	83 bd 2c ff ff
	ff 00		 cmp	 DWORD PTR $T211380[ebp], 0
  01132	74 1b		 je	 SHORT $L211382
  01134	6a 01		 push	 1
  01136	8b 85 2c ff ff
	ff		 mov	 eax, DWORD PTR $T211380[ebp]
  0113c	8b 10		 mov	 edx, DWORD PTR [eax]
  0113e	8b 8d 2c ff ff
	ff		 mov	 ecx, DWORD PTR $T211380[ebp]
  01144	ff 52 04	 call	 DWORD PTR [edx+4]
  01147	89 85 40 fe ff
	ff		 mov	 DWORD PTR tv190[ebp], eax
  0114d	eb 0a		 jmp	 SHORT $L208227
$L211382:
  0114f	c7 85 40 fe ff
	ff 00 00 00 00	 mov	 DWORD PTR tv190[ebp], 0
$L208227:

; 174  : 	DESTROY_WINDOW(m_pWndLogoPanel);

  01159	8b 85 4c fe ff
	ff		 mov	 eax, DWORD PTR _this$[ebp]
  0115f	83 78 08 00	 cmp	 DWORD PTR [eax+8], 0
  01163	74 60		 je	 SHORT $L208230
  01165	8b 8d 4c fe ff
	ff		 mov	 ecx, DWORD PTR _this$[ebp]
  0116b	8b 51 08	 mov	 edx, DWORD PTR [ecx+8]
  0116e	8b 85 4c fe ff
	ff		 mov	 eax, DWORD PTR _this$[ebp]
  01174	8b 48 08	 mov	 ecx, DWORD PTR [eax+8]
  01177	8b 12		 mov	 edx, DWORD PTR [edx]
  01179	ff 52 68	 call	 DWORD PTR [edx+104]
  0117c	8b 85 4c fe ff
	ff		 mov	 eax, DWORD PTR _this$[ebp]
  01182	8b 48 08	 mov	 ecx, DWORD PTR [eax+8]
  01185	89 8d 20 ff ff
	ff		 mov	 DWORD PTR $T211385[ebp], ecx
  0118b	8b 95 20 ff ff
	ff		 mov	 edx, DWORD PTR $T211385[ebp]
  01191	89 95 24 ff ff
	ff		 mov	 DWORD PTR $T211384[ebp], edx
  01197	83 bd 24 ff ff
	ff 00		 cmp	 DWORD PTR $T211384[ebp], 0
  0119e	74 1b		 je	 SHORT $L211386
  011a0	6a 01		 push	 1
  011a2	8b 85 24 ff ff
	ff		 mov	 eax, DWORD PTR $T211384[ebp]
  011a8	8b 10		 mov	 edx, DWORD PTR [eax]
  011aa	8b 8d 24 ff ff
	ff		 mov	 ecx, DWORD PTR $T211384[ebp]
  011b0	ff 52 04	 call	 DWORD PTR [edx+4]
  011b3	89 85 3c fe ff
	ff		 mov	 DWORD PTR tv207[ebp], eax
  011b9	eb 0a		 jmp	 SHORT $L208230
$L211386:
  011bb	c7 85 3c fe ff
	ff 00 00 00 00	 mov	 DWORD PTR tv207[ebp], 0
$L208230:

; 175  : 	DESTROY_WINDOW(m_pWndBottomPanel);

  011c5	8b 85 4c fe ff
	ff		 mov	 eax, DWORD PTR _this$[ebp]
  011cb	83 78 0c 00	 cmp	 DWORD PTR [eax+12], 0
  011cf	74 60		 je	 SHORT $L208233
  011d1	8b 8d 4c fe ff
	ff		 mov	 ecx, DWORD PTR _this$[ebp]
  011d7	8b 51 0c	 mov	 edx, DWORD PTR [ecx+12]
  011da	8b 85 4c fe ff
	ff		 mov	 eax, DWORD PTR _this$[ebp]
  011e0	8b 48 0c	 mov	 ecx, DWORD PTR [eax+12]
  011e3	8b 12		 mov	 edx, DWORD PTR [edx]
  011e5	ff 52 68	 call	 DWORD PTR [edx+104]
  011e8	8b 85 4c fe ff
	ff		 mov	 eax, DWORD PTR _this$[ebp]
  011ee	8b 48 0c	 mov	 ecx, DWORD PTR [eax+12]
  011f1	89 8d 18 ff ff
	ff		 mov	 DWORD PTR $T211389[ebp], ecx
  011f7	8b 95 18 ff ff
	ff		 mov	 edx, DWORD PTR $T211389[ebp]
  011fd	89 95 1c ff ff
	ff		 mov	 DWORD PTR $T211388[ebp], edx
  01203	83 bd 1c ff ff
	ff 00		 cmp	 DWORD PTR $T211388[ebp], 0
  0120a	74 1b		 je	 SHORT $L211390
  0120c	6a 01		 push	 1
  0120e	8b 85 1c ff ff
	ff		 mov	 eax, DWORD PTR $T211388[ebp]
  01214	8b 10		 mov	 edx, DWORD PTR [eax]
  01216	8b 8d 1c ff ff
	ff		 mov	 ecx, DWORD PTR $T211388[ebp]
  0121c	ff 52 04	 call	 DWORD PTR [edx+4]
  0121f	89 85 38 fe ff
	ff		 mov	 DWORD PTR tv224[ebp], eax
  01225	eb 0a		 jmp	 SHORT $L208233
$L211390:
  01227	c7 85 38 fe ff
	ff 00 00 00 00	 mov	 DWORD PTR tv224[ebp], 0
$L208233:

; 176  : 	DESTROY_WINDOW(m_pWndTabPageParent);

  01231	8b 85 4c fe ff
	ff		 mov	 eax, DWORD PTR _this$[ebp]
  01237	83 78 14 00	 cmp	 DWORD PTR [eax+20], 0
  0123b	74 60		 je	 SHORT $L208236
  0123d	8b 8d 4c fe ff
	ff		 mov	 ecx, DWORD PTR _this$[ebp]
  01243	8b 51 14	 mov	 edx, DWORD PTR [ecx+20]
  01246	8b 85 4c fe ff
	ff		 mov	 eax, DWORD PTR _this$[ebp]
  0124c	8b 48 14	 mov	 ecx, DWORD PTR [eax+20]
  0124f	8b 12		 mov	 edx, DWORD PTR [edx]
  01251	ff 52 68	 call	 DWORD PTR [edx+104]
  01254	8b 85 4c fe ff
	ff		 mov	 eax, DWORD PTR _this$[ebp]
  0125a	8b 48 14	 mov	 ecx, DWORD PTR [eax+20]
  0125d	89 8d 10 ff ff
	ff		 mov	 DWORD PTR $T211393[ebp], ecx
  01263	8b 95 10 ff ff
	ff		 mov	 edx, DWORD PTR $T211393[ebp]
  01269	89 95 14 ff ff
	ff		 mov	 DWORD PTR $T211392[ebp], edx
  0126f	83 bd 14 ff ff
	ff 00		 cmp	 DWORD PTR $T211392[ebp], 0
  01276	74 1b		 je	 SHORT $L211394
  01278	6a 01		 push	 1
  0127a	8b 85 14 ff ff
	ff		 mov	 eax, DWORD PTR $T211392[ebp]
  01280	8b 10		 mov	 edx, DWORD PTR [eax]
  01282	8b 8d 14 ff ff
	ff		 mov	 ecx, DWORD PTR $T211392[ebp]
  01288	ff 52 04	 call	 DWORD PTR [edx+4]
  0128b	89 85 34 fe ff
	ff		 mov	 DWORD PTR tv241[ebp], eax
  01291	eb 0a		 jmp	 SHORT $L208236
$L211394:
  01293	c7 85 34 fe ff
	ff 00 00 00 00	 mov	 DWORD PTR tv241[ebp], 0
$L208236:

; 177  : 	DESTROY_WINDOW(m_pWndTabBar);

  0129d	8b 85 4c fe ff
	ff		 mov	 eax, DWORD PTR _this$[ebp]
  012a3	83 78 10 00	 cmp	 DWORD PTR [eax+16], 0
  012a7	74 60		 je	 SHORT $L208239
  012a9	8b 8d 4c fe ff
	ff		 mov	 ecx, DWORD PTR _this$[ebp]
  012af	8b 51 10	 mov	 edx, DWORD PTR [ecx+16]
  012b2	8b 85 4c fe ff
	ff		 mov	 eax, DWORD PTR _this$[ebp]
  012b8	8b 48 10	 mov	 ecx, DWORD PTR [eax+16]
  012bb	8b 12		 mov	 edx, DWORD PTR [edx]
  012bd	ff 52 68	 call	 DWORD PTR [edx+104]
  012c0	8b 85 4c fe ff
	ff		 mov	 eax, DWORD PTR _this$[ebp]
  012c6	8b 48 10	 mov	 ecx, DWORD PTR [eax+16]
  012c9	89 8d 08 ff ff
	ff		 mov	 DWORD PTR $T211397[ebp], ecx
  012cf	8b 95 08 ff ff
	ff		 mov	 edx, DWORD PTR $T211397[ebp]
  012d5	89 95 0c ff ff
	ff		 mov	 DWORD PTR $T211396[ebp], edx
  012db	83 bd 0c ff ff
	ff 00		 cmp	 DWORD PTR $T211396[ebp], 0
  012e2	74 1b		 je	 SHORT $L211398
  012e4	6a 01		 push	 1
  012e6	8b 85 0c ff ff
	ff		 mov	 eax, DWORD PTR $T211396[ebp]
  012ec	8b 10		 mov	 edx, DWORD PTR [eax]
  012ee	8b 8d 0c ff ff
	ff		 mov	 ecx, DWORD PTR $T211396[ebp]
  012f4	ff 52 04	 call	 DWORD PTR [edx+4]
  012f7	89 85 30 fe ff
	ff		 mov	 DWORD PTR tv258[ebp], eax
  012fd	eb 0a		 jmp	 SHORT $L208239
$L211398:
  012ff	c7 85 30 fe ff
	ff 00 00 00 00	 mov	 DWORD PTR tv258[ebp], 0
$L208239:

; 178  : 
; 179  : 	delete m_pAppSkin;

  01309	8b 85 4c fe ff
	ff		 mov	 eax, DWORD PTR _this$[ebp]
  0130f	8b 88 ec 00 00
	00		 mov	 ecx, DWORD PTR [eax+236]
  01315	89 8d 00 ff ff
	ff		 mov	 DWORD PTR $T211401[ebp], ecx
  0131b	8b 95 00 ff ff
	ff		 mov	 edx, DWORD PTR $T211401[ebp]
  01321	89 95 04 ff ff
	ff		 mov	 DWORD PTR $T211400[ebp], edx
  01327	83 bd 04 ff ff
	ff 00		 cmp	 DWORD PTR $T211400[ebp], 0
  0132e	74 1b		 je	 SHORT $L211402
  01330	6a 01		 push	 1
  01332	8b 85 04 ff ff
	ff		 mov	 eax, DWORD PTR $T211400[ebp]
  01338	8b 10		 mov	 edx, DWORD PTR [eax]
  0133a	8b 8d 04 ff ff
	ff		 mov	 ecx, DWORD PTR $T211400[ebp]
  01340	ff 52 04	 call	 DWORD PTR [edx+4]
  01343	89 85 2c fe ff
	ff		 mov	 DWORD PTR tv266[ebp], eax
  01349	eb 0a		 jmp	 SHORT $L211403
$L211402:
  0134b	c7 85 2c fe ff
	ff 00 00 00 00	 mov	 DWORD PTR tv266[ebp], 0
$L211403:

; 180  : 	m_pAppSkin = NULL;

  01355	8b 85 4c fe ff
	ff		 mov	 eax, DWORD PTR _this$[ebp]
  0135b	c7 80 ec 00 00
	00 00 00 00 00	 mov	 DWORD PTR [eax+236], 0

; 181  : 	YL_Log( STR_LOG_FILE,LOG_NOTICE,"CUIManager","Del AppSkin" );

  01365	68 00 00 00 00	 push	 OFFSET FLAT:$SG208247
  0136a	8d 8d e4 fe ff
	ff		 lea	 ecx, DWORD PTR $T211404[ebp]
  01370	ff 15 00 00 00
	00		 call	 DWORD PTR __imp_??0?$basic_string@DU?$char_traits@D@std@@V?$allocator@D@2@@std@@QAE@PBD@Z
  01376	c6 45 fc 07	 mov	 BYTE PTR __$EHRec$[ebp+8], 7
  0137a	68 00 00 00 00	 push	 OFFSET FLAT:$SG208248
  0137f	8d 8d c8 fe ff
	ff		 lea	 ecx, DWORD PTR $T211405[ebp]
  01385	ff 15 00 00 00
	00		 call	 DWORD PTR __imp_??0?$basic_string@DU?$char_traits@D@std@@V?$allocator@D@2@@std@@QAE@PBD@Z
  0138b	c6 45 fc 08	 mov	 BYTE PTR __$EHRec$[ebp+8], 8
  0138f	68 00 00 00 00	 push	 OFFSET FLAT:$SG208246
  01394	8d 8d e4 fe ff
	ff		 lea	 ecx, DWORD PTR $T211404[ebp]
  0139a	51		 push	 ecx
  0139b	6a 01		 push	 1
  0139d	8d 95 c8 fe ff
	ff		 lea	 edx, DWORD PTR $T211405[ebp]
  013a3	52		 push	 edx
  013a4	ff 15 00 00 00
	00		 call	 DWORD PTR __imp_?YL_Log@@YAXABV?$basic_string@DU?$char_traits@D@std@@V?$allocator@D@2@@std@@H0PBDZZ
  013aa	83 c4 10	 add	 esp, 16			; 00000010H
  013ad	c6 45 fc 07	 mov	 BYTE PTR __$EHRec$[ebp+8], 7
  013b1	8d 8d c8 fe ff
	ff		 lea	 ecx, DWORD PTR $T211405[ebp]
  013b7	ff 15 00 00 00
	00		 call	 DWORD PTR __imp_??1?$basic_string@DU?$char_traits@D@std@@V?$allocator@D@2@@std@@QAE@XZ
  013bd	c6 45 fc 06	 mov	 BYTE PTR __$EHRec$[ebp+8], 6
  013c1	8d 8d e4 fe ff
	ff		 lea	 ecx, DWORD PTR $T211404[ebp]
  013c7	ff 15 00 00 00
	00		 call	 DWORD PTR __imp_??1?$basic_string@DU?$char_traits@D@std@@V?$allocator@D@2@@std@@QAE@XZ

; 182  : 	delete m_pPanesMgr;

  013cd	8b 85 4c fe ff
	ff		 mov	 eax, DWORD PTR _this$[ebp]
  013d3	8b 88 e8 00 00
	00		 mov	 ecx, DWORD PTR [eax+232]
  013d9	89 8d c0 fe ff
	ff		 mov	 DWORD PTR $T211407[ebp], ecx
  013df	8b 95 c0 fe ff
	ff		 mov	 edx, DWORD PTR $T211407[ebp]
  013e5	89 95 c4 fe ff
	ff		 mov	 DWORD PTR $T211406[ebp], edx
  013eb	83 bd c4 fe ff
	ff 00		 cmp	 DWORD PTR $T211406[ebp], 0
  013f2	74 1e		 je	 SHORT $L211408
  013f4	6a 01		 push	 1
  013f6	8b 8d c4 fe ff
	ff		 mov	 ecx, DWORD PTR $T211406[ebp]
  013fc	83 c1 04	 add	 ecx, 4
  013ff	8b 85 c4 fe ff
	ff		 mov	 eax, DWORD PTR $T211406[ebp]
  01405	8b 50 04	 mov	 edx, DWORD PTR [eax+4]
  01408	ff 12		 call	 DWORD PTR [edx]
  0140a	89 85 28 fe ff
	ff		 mov	 DWORD PTR tv289[ebp], eax
  01410	eb 0a		 jmp	 SHORT $L211409
$L211408:
  01412	c7 85 28 fe ff
	ff 00 00 00 00	 mov	 DWORD PTR tv289[ebp], 0
$L211409:

; 183  : 	m_pPanesMgr = NULL;

  0141c	8b 85 4c fe ff
	ff		 mov	 eax, DWORD PTR _this$[ebp]
  01422	c7 80 e8 00 00
	00 00 00 00 00	 mov	 DWORD PTR [eax+232], 0

; 184  : 	YL_Log( STR_LOG_FILE,LOG_NOTICE,"CUIManager","Del PanesMgr" );

  0142c	68 00 00 00 00	 push	 OFFSET FLAT:$SG208254
  01431	8d 8d a4 fe ff
	ff		 lea	 ecx, DWORD PTR $T211410[ebp]
  01437	ff 15 00 00 00
	00		 call	 DWORD PTR __imp_??0?$basic_string@DU?$char_traits@D@std@@V?$allocator@D@2@@std@@QAE@PBD@Z
  0143d	c6 45 fc 09	 mov	 BYTE PTR __$EHRec$[ebp+8], 9
  01441	68 00 00 00 00	 push	 OFFSET FLAT:$SG208255
  01446	8d 8d 88 fe ff
	ff		 lea	 ecx, DWORD PTR $T211411[ebp]
  0144c	ff 15 00 00 00
	00		 call	 DWORD PTR __imp_??0?$basic_string@DU?$char_traits@D@std@@V?$allocator@D@2@@std@@QAE@PBD@Z
  01452	c6 45 fc 0a	 mov	 BYTE PTR __$EHRec$[ebp+8], 10 ; 0000000aH
  01456	68 00 00 00 00	 push	 OFFSET FLAT:$SG208253
  0145b	8d 8d a4 fe ff
	ff		 lea	 ecx, DWORD PTR $T211410[ebp]
  01461	51		 push	 ecx
  01462	6a 01		 push	 1
  01464	8d 95 88 fe ff
	ff		 lea	 edx, DWORD PTR $T211411[ebp]
  0146a	52		 push	 edx
  0146b	ff 15 00 00 00
	00		 call	 DWORD PTR __imp_?YL_Log@@YAXABV?$basic_string@DU?$char_traits@D@std@@V?$allocator@D@2@@std@@H0PBDZZ
  01471	83 c4 10	 add	 esp, 16			; 00000010H
  01474	c6 45 fc 09	 mov	 BYTE PTR __$EHRec$[ebp+8], 9
  01478	8d 8d 88 fe ff
	ff		 lea	 ecx, DWORD PTR $T211411[ebp]
  0147e	ff 15 00 00 00
	00		 call	 DWORD PTR __imp_??1?$basic_string@DU?$char_traits@D@std@@V?$allocator@D@2@@std@@QAE@XZ
  01484	c6 45 fc 06	 mov	 BYTE PTR __$EHRec$[ebp+8], 6
  01488	8d 8d a4 fe ff
	ff		 lea	 ecx, DWORD PTR $T211410[ebp]
  0148e	ff 15 00 00 00
	00		 call	 DWORD PTR __imp_??1?$basic_string@DU?$char_traits@D@std@@V?$allocator@D@2@@std@@QAE@XZ

; 185  : 	m_pChangeColorMgr->DeleteObject();	

  01494	8b 85 4c fe ff
	ff		 mov	 eax, DWORD PTR _this$[ebp]
  0149a	8b 88 f0 00 00
	00		 mov	 ecx, DWORD PTR [eax+240]
  014a0	8b 95 4c fe ff
	ff		 mov	 edx, DWORD PTR _this$[ebp]
  014a6	8b 82 f0 00 00
	00		 mov	 eax, DWORD PTR [edx+240]
  014ac	8b 11		 mov	 edx, DWORD PTR [ecx]
  014ae	8b c8		 mov	 ecx, eax
  014b0	ff 52 48	 call	 DWORD PTR [edx+72]

; 186  : 	YL_Log( STR_LOG_FILE,LOG_NOTICE,"CUIManager","UIManAppExit" );

  014b3	68 00 00 00 00	 push	 OFFSET FLAT:$SG208259
  014b8	8d 8d 6c fe ff
	ff		 lea	 ecx, DWORD PTR $T211412[ebp]
  014be	ff 15 00 00 00
	00		 call	 DWORD PTR __imp_??0?$basic_string@DU?$char_traits@D@std@@V?$allocator@D@2@@std@@QAE@PBD@Z
  014c4	c6 45 fc 0b	 mov	 BYTE PTR __$EHRec$[ebp+8], 11 ; 0000000bH
  014c8	68 00 00 00 00	 push	 OFFSET FLAT:$SG208260
  014cd	8d 8d 50 fe ff
	ff		 lea	 ecx, DWORD PTR $T211413[ebp]
  014d3	ff 15 00 00 00
	00		 call	 DWORD PTR __imp_??0?$basic_string@DU?$char_traits@D@std@@V?$allocator@D@2@@std@@QAE@PBD@Z
  014d9	c6 45 fc 0c	 mov	 BYTE PTR __$EHRec$[ebp+8], 12 ; 0000000cH
  014dd	68 00 00 00 00	 push	 OFFSET FLAT:$SG208258
  014e2	8d 85 6c fe ff
	ff		 lea	 eax, DWORD PTR $T211412[ebp]
  014e8	50		 push	 eax
  014e9	6a 01		 push	 1
  014eb	8d 8d 50 fe ff
	ff		 lea	 ecx, DWORD PTR $T211413[ebp]
  014f1	51		 push	 ecx
  014f2	ff 15 00 00 00
	00		 call	 DWORD PTR __imp_?YL_Log@@YAXABV?$basic_string@DU?$char_traits@D@std@@V?$allocator@D@2@@std@@H0PBDZZ
  014f8	83 c4 10	 add	 esp, 16			; 00000010H
  014fb	c6 45 fc 0b	 mov	 BYTE PTR __$EHRec$[ebp+8], 11 ; 0000000bH
  014ff	8d 8d 50 fe ff
	ff		 lea	 ecx, DWORD PTR $T211413[ebp]
  01505	ff 15 00 00 00
	00		 call	 DWORD PTR __imp_??1?$basic_string@DU?$char_traits@D@std@@V?$allocator@D@2@@std@@QAE@XZ
  0150b	c6 45 fc 06	 mov	 BYTE PTR __$EHRec$[ebp+8], 6
  0150f	8d 8d 6c fe ff
	ff		 lea	 ecx, DWORD PTR $T211412[ebp]
  01515	ff 15 00 00 00
	00		 call	 DWORD PTR __imp_??1?$basic_string@DU?$char_traits@D@std@@V?$allocator@D@2@@std@@QAE@XZ

; 187  : 	CoolSB_UninitializeApp();

  0151b	e8 00 00 00 00	 call	 _CoolSB_UninitializeApp@0

; 188  : }

  01520	c7 45 fc ff ff
	ff ff		 mov	 DWORD PTR __$EHRec$[ebp+8], -1
  01527	8d 4d e8	 lea	 ecx, DWORD PTR _listOb$[ebp]
  0152a	e8 00 00 00 00	 call	 ??1?$list@PAVIMessageObserver@@V?$allocator@PAVIMessageObserver@@@std@@@std@@QAE@XZ ; std::list<IMessageObserver *,std::allocator<IMessageObserver *> >::~list<IMessageObserver *,std::allocator<IMessageObserver *> >
  0152f	8b 4d f4	 mov	 ecx, DWORD PTR __$EHRec$[ebp]
  01532	64 89 0d 00 00
	00 00		 mov	 DWORD PTR fs:__except_list, ecx
  01539	8b e5		 mov	 esp, ebp
  0153b	5d		 pop	 ebp
  0153c	c3		 ret	 0
_TEXT	ENDS
text$x	SEGMENT
$L211414:
  00209	8d 4d c4	 lea	 ecx, DWORD PTR $T211372[ebp]
  0020c	ff 25 00 00 00
	00		 jmp	 DWORD PTR __imp_??1?$basic_string@DU?$char_traits@D@std@@V?$allocator@D@2@@std@@QAE@XZ
$L211415:
  00212	8d 4d a8	 lea	 ecx, DWORD PTR $T211373[ebp]
  00215	ff 25 00 00 00
	00		 jmp	 DWORD PTR __imp_??1?$basic_string@DU?$char_traits@D@std@@V?$allocator@D@2@@std@@QAE@XZ
$L211416:
  0021b	8d 4d 8c	 lea	 ecx, DWORD PTR $T211374[ebp]
  0021e	ff 25 00 00 00
	00		 jmp	 DWORD PTR __imp_??1?$basic_string@DU?$char_traits@D@std@@V?$allocator@D@2@@std@@QAE@XZ
$L211417:
  00224	8d 8d 70 ff ff
	ff		 lea	 ecx, DWORD PTR $T211375[ebp]
  0022a	ff 25 00 00 00
	00		 jmp	 DWORD PTR __imp_??1?$basic_string@DU?$char_traits@D@std@@V?$allocator@D@2@@std@@QAE@XZ
$L211418:
  00230	8d 8d 54 ff ff
	ff		 lea	 ecx, DWORD PTR $T211376[ebp]
  00236	ff 25 00 00 00
	00		 jmp	 DWORD PTR __imp_??1?$basic_string@DU?$char_traits@D@std@@V?$allocator@D@2@@std@@QAE@XZ
$L211419:
  0023c	8d 8d 38 ff ff
	ff		 lea	 ecx, DWORD PTR $T211377[ebp]
  00242	ff 25 00 00 00
	00		 jmp	 DWORD PTR __imp_??1?$basic_string@DU?$char_traits@D@std@@V?$allocator@D@2@@std@@QAE@XZ
$L211420:
  00248	8d 4d e8	 lea	 ecx, DWORD PTR _listOb$[ebp]
  0024b	e9 00 00 00 00	 jmp	 ??1?$list@PAVIMessageObserver@@V?$allocator@PAVIMessageObserver@@@std@@@std@@QAE@XZ ; std::list<IMessageObserver *,std::allocator<IMessageObserver *> >::~list<IMessageObserver *,std::allocator<IMessageObserver *> >
$L211421:
  00250	8d 8d e4 fe ff
	ff		 lea	 ecx, DWORD PTR $T211404[ebp]
  00256	ff 25 00 00 00
	00		 jmp	 DWORD PTR __imp_??1?$basic_string@DU?$char_traits@D@std@@V?$allocator@D@2@@std@@QAE@XZ
$L211422:
  0025c	8d 8d c8 fe ff
	ff		 lea	 ecx, DWORD PTR $T211405[ebp]
  00262	ff 25 00 00 00
	00		 jmp	 DWORD PTR __imp_??1?$basic_string@DU?$char_traits@D@std@@V?$allocator@D@2@@std@@QAE@XZ
$L211423:
  00268	8d 8d a4 fe ff
	ff		 lea	 ecx, DWORD PTR $T211410[ebp]
  0026e	ff 25 00 00 00
	00		 jmp	 DWORD PTR __imp_??1?$basic_string@DU?$char_traits@D@std@@V?$allocator@D@2@@std@@QAE@XZ
$L211424:
  00274	8d 8d 88 fe ff
	ff		 lea	 ecx, DWORD PTR $T211411[ebp]
  0027a	ff 25 00 00 00
	00		 jmp	 DWORD PTR __imp_??1?$basic_string@DU?$char_traits@D@std@@V?$allocator@D@2@@std@@QAE@XZ
$L211425:
  00280	8d 8d 6c fe ff
	ff		 lea	 ecx, DWORD PTR $T211412[ebp]
  00286	ff 25 00 00 00
	00		 jmp	 DWORD PTR __imp_??1?$basic_string@DU?$char_traits@D@std@@V?$allocator@D@2@@std@@QAE@XZ
$L211426:
  0028c	8d 8d 50 fe ff
	ff		 lea	 ecx, DWORD PTR $T211413[ebp]
  00292	ff 25 00 00 00
	00		 jmp	 DWORD PTR __imp_??1?$basic_string@DU?$char_traits@D@std@@V?$allocator@D@2@@std@@QAE@XZ
__ehhandler$?UIManAppExit@CUIManager@@UAEXXZ:
  00298	b8 00 00 00 00	 mov	 eax, OFFSET FLAT:$T211428
  0029d	e9 00 00 00 00	 jmp	 ___CxxFrameHandler
text$x	ENDS
?UIManAppExit@CUIManager@@UAEXXZ ENDP			; CUIManager::UIManAppExit
; Function compile flags: /Odt
_TEXT	SEGMENT
_this$ = -4						; size = 4
?UIGetLayoutMgr@CUIManager@@UAEPAVILayoutMgr@@XZ PROC NEAR ; CUIManager::UIGetLayoutMgr
; _this$ = ecx

; 191  : {

  01540	55		 push	 ebp
  01541	8b ec		 mov	 ebp, esp
  01543	51		 push	 ecx
  01544	89 4d fc	 mov	 DWORD PTR _this$[ebp], ecx

; 192  : 	return m_pPanesMgr;

  01547	8b 45 fc	 mov	 eax, DWORD PTR _this$[ebp]
  0154a	8b 80 e8 00 00
	00		 mov	 eax, DWORD PTR [eax+232]

; 193  : }

  01550	8b e5		 mov	 esp, ebp
  01552	5d		 pop	 ebp
  01553	c3		 ret	 0
?UIGetLayoutMgr@CUIManager@@UAEPAVILayoutMgr@@XZ ENDP	; CUIManager::UIGetLayoutMgr
; Function compile flags: /Odt
tv68 = -8						; size = 4
_this$ = -4						; size = 4
?UIGetSkinMgr@CUIManager@@UAEPAVISkinMgr@@XZ PROC NEAR	; CUIManager::UIGetSkinMgr
; _this$ = ecx

; 196  : {

  01560	55		 push	 ebp
  01561	8b ec		 mov	 ebp, esp
  01563	83 ec 08	 sub	 esp, 8
  01566	89 4d fc	 mov	 DWORD PTR _this$[ebp], ecx

; 197  : 	return m_pAppSkin;

  01569	8b 45 fc	 mov	 eax, DWORD PTR _this$[ebp]
  0156c	83 b8 ec 00 00
	00 00		 cmp	 DWORD PTR [eax+236], 0
  01573	74 11		 je	 SHORT $L211433
  01575	8b 4d fc	 mov	 ecx, DWORD PTR _this$[ebp]
  01578	8b 91 ec 00 00
	00		 mov	 edx, DWORD PTR [ecx+236]
  0157e	83 c2 04	 add	 edx, 4
  01581	89 55 f8	 mov	 DWORD PTR tv68[ebp], edx
  01584	eb 07		 jmp	 SHORT $L211434
$L211433:
  01586	c7 45 f8 00 00
	00 00		 mov	 DWORD PTR tv68[ebp], 0
$L211434:
  0158d	8b 45 f8	 mov	 eax, DWORD PTR tv68[ebp]

; 198  : }

  01590	8b e5		 mov	 esp, ebp
  01592	5d		 pop	 ebp
  01593	c3		 ret	 0
?UIGetSkinMgr@CUIManager@@UAEPAVISkinMgr@@XZ ENDP	; CUIManager::UIGetSkinMgr
; Function compile flags: /Odt
_this$ = -4						; size = 4
?UIGetChangeColorMgr@CUIManager@@UAEPAVIChangeColorMgr@@XZ PROC NEAR ; CUIManager::UIGetChangeColorMgr
; _this$ = ecx

; 201  : {

  015a0	55		 push	 ebp
  015a1	8b ec		 mov	 ebp, esp
  015a3	51		 push	 ecx
  015a4	89 4d fc	 mov	 DWORD PTR _this$[ebp], ecx

; 202  : 	return m_pChangeColorMgr;

  015a7	8b 45 fc	 mov	 eax, DWORD PTR _this$[ebp]
  015aa	8b 80 f0 00 00
	00		 mov	 eax, DWORD PTR [eax+240]

; 203  : }

  015b0	8b e5		 mov	 esp, ebp
  015b2	5d		 pop	 ebp
  015b3	c3		 ret	 0
?UIGetChangeColorMgr@CUIManager@@UAEPAVIChangeColorMgr@@XZ ENDP ; CUIManager::UIGetChangeColorMgr
_TEXT	ENDS
EXTRN	__imp__GetTickCount@0:NEAR
; Function compile flags: /Odt
_TEXT	SEGMENT
_this$ = -8						; size = 4
_count$ = -4						; size = 4
_pDc$ = 8						; size = 4
?UIOnPaint@CUIManager@@UAEXPAVCDC@@@Z PROC NEAR		; CUIManager::UIOnPaint
; _this$ = ecx

; 205  : {

  015c0	55		 push	 ebp
  015c1	8b ec		 mov	 ebp, esp
  015c3	83 ec 08	 sub	 esp, 8
  015c6	89 4d f8	 mov	 DWORD PTR _this$[ebp], ecx

; 206  : 	DWORD count = ::GetTickCount();

  015c9	ff 15 00 00 00
	00		 call	 DWORD PTR __imp__GetTickCount@0
  015cf	89 45 fc	 mov	 DWORD PTR _count$[ebp], eax

; 207  : 	if(m_pPanesMgr != NULL)

  015d2	8b 45 f8	 mov	 eax, DWORD PTR _this$[ebp]
  015d5	83 b8 e8 00 00
	00 00		 cmp	 DWORD PTR [eax+232], 0
  015dc	74 28		 je	 SHORT $L208273

; 208  : 		m_pPanesMgr->PaintBkGround( AfxGetMainWindow()->m_hWnd, pDc, false);

  015de	6a 00		 push	 0
  015e0	8b 4d 08	 mov	 ecx, DWORD PTR _pDc$[ebp]
  015e3	51		 push	 ecx
  015e4	e8 00 00 00 00	 call	 ?AfxGetMainWindow@@YAPAVCWnd@@XZ ; AfxGetMainWindow
  015e9	8b 50 20	 mov	 edx, DWORD PTR [eax+32]
  015ec	52		 push	 edx
  015ed	8b 45 f8	 mov	 eax, DWORD PTR _this$[ebp]
  015f0	8b 88 e8 00 00
	00		 mov	 ecx, DWORD PTR [eax+232]
  015f6	8b 55 f8	 mov	 edx, DWORD PTR _this$[ebp]
  015f9	8b 82 e8 00 00
	00		 mov	 eax, DWORD PTR [edx+232]
  015ff	8b 11		 mov	 edx, DWORD PTR [ecx]
  01601	8b c8		 mov	 ecx, eax
  01603	ff 52 5c	 call	 DWORD PTR [edx+92]
$L208273:

; 209  : }

  01606	8b e5		 mov	 esp, ebp
  01608	5d		 pop	 ebp
  01609	c2 04 00	 ret	 4
?UIOnPaint@CUIManager@@UAEXPAVCDC@@@Z ENDP		; CUIManager::UIOnPaint
_TEXT	ENDS
PUBLIC	?size@?$vector@KV?$allocator@K@std@@@std@@QBEIXZ ; std::vector<unsigned long,std::allocator<unsigned long> >::size
; Function compile flags: /Odt
_TEXT	SEGMENT
_this$ = -4						; size = 4
?UICanExit@CUIManager@@UAE_NXZ PROC NEAR		; CUIManager::UICanExit
; _this$ = ecx

; 212  : {

  01610	55		 push	 ebp
  01611	8b ec		 mov	 ebp, esp
  01613	51		 push	 ecx
  01614	89 4d fc	 mov	 DWORD PTR _this$[ebp], ecx

; 213  : 	return m_vecDialog.size() == 0 ;

  01617	8b 4d fc	 mov	 ecx, DWORD PTR _this$[ebp]
  0161a	81 c1 d8 00 00
	00		 add	 ecx, 216		; 000000d8H
  01620	e8 00 00 00 00	 call	 ?size@?$vector@KV?$allocator@K@std@@@std@@QBEIXZ ; std::vector<unsigned long,std::allocator<unsigned long> >::size
  01625	f7 d8		 neg	 eax
  01627	1b c0		 sbb	 eax, eax
  01629	40		 inc	 eax

; 214  : }

  0162a	8b e5		 mov	 esp, ebp
  0162c	5d		 pop	 ebp
  0162d	c3		 ret	 0
?UICanExit@CUIManager@@UAE_NXZ ENDP			; CUIManager::UICanExit
; Function compile flags: /Odt
_this$ = -4						; size = 4
_pDialog$ = 8						; size = 4
?UIAddDialog@CUIManager@@UAEXPAVCDialog@@@Z PROC NEAR	; CUIManager::UIAddDialog
; _this$ = ecx

; 217  : {	

  01630	55		 push	 ebp
  01631	8b ec		 mov	 ebp, esp
  01633	51		 push	 ecx
  01634	89 4d fc	 mov	 DWORD PTR _this$[ebp], ecx

; 218  : 	UIAddDialog((DWORD)pDialog);

  01637	8b 45 08	 mov	 eax, DWORD PTR _pDialog$[ebp]
  0163a	50		 push	 eax
  0163b	8b 4d fc	 mov	 ecx, DWORD PTR _this$[ebp]
  0163e	8b 11		 mov	 edx, DWORD PTR [ecx]
  01640	8b 4d fc	 mov	 ecx, DWORD PTR _this$[ebp]
  01643	ff 52 18	 call	 DWORD PTR [edx+24]

; 219  : }

  01646	8b e5		 mov	 esp, ebp
  01648	5d		 pop	 ebp
  01649	c2 04 00	 ret	 4
?UIAddDialog@CUIManager@@UAEXPAVCDialog@@@Z ENDP	; CUIManager::UIAddDialog
; Function compile flags: /Odt
_this$ = -4						; size = 4
_pDialog$ = 8						; size = 4
?UIRemoveDialog@CUIManager@@UAEXPAVCDialog@@@Z PROC NEAR ; CUIManager::UIRemoveDialog
; _this$ = ecx

; 222  : {	

  01650	55		 push	 ebp
  01651	8b ec		 mov	 ebp, esp
  01653	51		 push	 ecx
  01654	89 4d fc	 mov	 DWORD PTR _this$[ebp], ecx

; 223  : 	UIRemoveDialog((DWORD)pDialog);

  01657	8b 45 08	 mov	 eax, DWORD PTR _pDialog$[ebp]
  0165a	50		 push	 eax
  0165b	8b 4d fc	 mov	 ecx, DWORD PTR _this$[ebp]
  0165e	8b 11		 mov	 edx, DWORD PTR [ecx]
  01660	8b 4d fc	 mov	 ecx, DWORD PTR _this$[ebp]
  01663	ff 52 20	 call	 DWORD PTR [edx+32]

; 224  : }

  01666	8b e5		 mov	 esp, ebp
  01668	5d		 pop	 ebp
  01669	c2 04 00	 ret	 4
?UIRemoveDialog@CUIManager@@UAEXPAVCDialog@@@Z ENDP	; CUIManager::UIRemoveDialog
_TEXT	ENDS
PUBLIC	??A?$vector@KV?$allocator@K@std@@@std@@QAEAAKI@Z ; std::vector<unsigned long,std::allocator<unsigned long> >::operator[]
PUBLIC	?push_back@?$vector@KV?$allocator@K@std@@@std@@QAEXABK@Z ; std::vector<unsigned long,std::allocator<unsigned long> >::push_back
; Function compile flags: /Odt
_TEXT	SEGMENT
_this$ = -8						; size = 4
_idx$208293 = -4					; size = 4
_dwPtr$ = 8						; size = 4
?UIAddDialog@CUIManager@@UAEXK@Z PROC NEAR		; CUIManager::UIAddDialog
; _this$ = ecx

; 227  : {

  01670	55		 push	 ebp
  01671	8b ec		 mov	 ebp, esp
  01673	83 ec 08	 sub	 esp, 8
  01676	89 4d f8	 mov	 DWORD PTR _this$[ebp], ecx

; 228  : 	for(size_t idx = 0;idx < m_vecDialog.size();idx++ )

  01679	c7 45 fc 00 00
	00 00		 mov	 DWORD PTR _idx$208293[ebp], 0
  01680	eb 09		 jmp	 SHORT $L208294
$L208295:
  01682	8b 45 fc	 mov	 eax, DWORD PTR _idx$208293[ebp]
  01685	83 c0 01	 add	 eax, 1
  01688	89 45 fc	 mov	 DWORD PTR _idx$208293[ebp], eax
$L208294:
  0168b	8b 4d f8	 mov	 ecx, DWORD PTR _this$[ebp]
  0168e	81 c1 d8 00 00
	00		 add	 ecx, 216		; 000000d8H
  01694	e8 00 00 00 00	 call	 ?size@?$vector@KV?$allocator@K@std@@@std@@QBEIXZ ; std::vector<unsigned long,std::allocator<unsigned long> >::size
  01699	39 45 fc	 cmp	 DWORD PTR _idx$208293[ebp], eax
  0169c	73 1d		 jae	 SHORT $L208296

; 229  : 	{
; 230  : 		if( m_vecDialog[idx] == dwPtr )

  0169e	8b 4d fc	 mov	 ecx, DWORD PTR _idx$208293[ebp]
  016a1	51		 push	 ecx
  016a2	8b 4d f8	 mov	 ecx, DWORD PTR _this$[ebp]
  016a5	81 c1 d8 00 00
	00		 add	 ecx, 216		; 000000d8H
  016ab	e8 00 00 00 00	 call	 ??A?$vector@KV?$allocator@K@std@@@std@@QAEAAKI@Z ; std::vector<unsigned long,std::allocator<unsigned long> >::operator[]
  016b0	8b 10		 mov	 edx, DWORD PTR [eax]
  016b2	3b 55 08	 cmp	 edx, DWORD PTR _dwPtr$[ebp]
  016b5	75 02		 jne	 SHORT $L208297

; 231  : 		{
; 232  : 			return;

  016b7	eb 14		 jmp	 SHORT $L208292
$L208297:

; 233  : 		}
; 234  : 	}

  016b9	eb c7		 jmp	 SHORT $L208295
$L208296:

; 235  : 	m_vecDialog.push_back( dwPtr );

  016bb	8d 45 08	 lea	 eax, DWORD PTR _dwPtr$[ebp]
  016be	50		 push	 eax
  016bf	8b 4d f8	 mov	 ecx, DWORD PTR _this$[ebp]
  016c2	81 c1 d8 00 00
	00		 add	 ecx, 216		; 000000d8H
  016c8	e8 00 00 00 00	 call	 ?push_back@?$vector@KV?$allocator@K@std@@@std@@QAEXABK@Z ; std::vector<unsigned long,std::allocator<unsigned long> >::push_back
$L208292:

; 236  : }

  016cd	8b e5		 mov	 esp, ebp
  016cf	5d		 pop	 ebp
  016d0	c2 04 00	 ret	 4
?UIAddDialog@CUIManager@@UAEXK@Z ENDP			; CUIManager::UIAddDialog
_TEXT	ENDS
PUBLIC	??9const_iterator@?$vector@KV?$allocator@K@std@@@std@@QBE_NABV012@@Z ; std::vector<unsigned long,std::allocator<unsigned long> >::const_iterator::operator!=
PUBLIC	??Diterator@?$vector@KV?$allocator@K@std@@@std@@QBEAAKXZ ; std::vector<unsigned long,std::allocator<unsigned long> >::iterator::operator*
PUBLIC	??Eiterator@?$vector@KV?$allocator@K@std@@@std@@QAE?AV012@H@Z ; std::vector<unsigned long,std::allocator<unsigned long> >::iterator::operator++
PUBLIC	?begin@?$vector@KV?$allocator@K@std@@@std@@QAE?AViterator@12@XZ ; std::vector<unsigned long,std::allocator<unsigned long> >::begin
PUBLIC	?end@?$vector@KV?$allocator@K@std@@@std@@QAE?AViterator@12@XZ ; std::vector<unsigned long,std::allocator<unsigned long> >::end
PUBLIC	?erase@?$vector@KV?$allocator@K@std@@@std@@QAE?AViterator@12@V312@@Z ; std::vector<unsigned long,std::allocator<unsigned long> >::erase
; Function compile flags: /Odt
_TEXT	SEGMENT
_this$ = -20						; size = 4
$T211444 = -16						; size = 4
$T211443 = -12						; size = 4
$T211442 = -8						; size = 4
_it$ = -4						; size = 4
_dwPtr$ = 8						; size = 4
?UIRemoveDialog@CUIManager@@UAEXK@Z PROC NEAR		; CUIManager::UIRemoveDialog
; _this$ = ecx

; 240  : {

  016e0	55		 push	 ebp
  016e1	8b ec		 mov	 ebp, esp
  016e3	83 ec 14	 sub	 esp, 20			; 00000014H
  016e6	89 4d ec	 mov	 DWORD PTR _this$[ebp], ecx

; 241  : 	vector<DWORD>::iterator it = m_vecDialog.begin();

  016e9	8d 45 fc	 lea	 eax, DWORD PTR _it$[ebp]
  016ec	50		 push	 eax
  016ed	8b 4d ec	 mov	 ecx, DWORD PTR _this$[ebp]
  016f0	81 c1 d8 00 00
	00		 add	 ecx, 216		; 000000d8H
  016f6	e8 00 00 00 00	 call	 ?begin@?$vector@KV?$allocator@K@std@@@std@@QAE?AViterator@12@XZ ; std::vector<unsigned long,std::allocator<unsigned long> >::begin
$L208422:

; 242  : 
; 243  : 	while( it != m_vecDialog.end() )

  016fb	8d 4d f8	 lea	 ecx, DWORD PTR $T211442[ebp]
  016fe	51		 push	 ecx
  016ff	8b 4d ec	 mov	 ecx, DWORD PTR _this$[ebp]
  01702	81 c1 d8 00 00
	00		 add	 ecx, 216		; 000000d8H
  01708	e8 00 00 00 00	 call	 ?end@?$vector@KV?$allocator@K@std@@@std@@QAE?AViterator@12@XZ ; std::vector<unsigned long,std::allocator<unsigned long> >::end
  0170d	50		 push	 eax
  0170e	8d 4d fc	 lea	 ecx, DWORD PTR _it$[ebp]
  01711	e8 00 00 00 00	 call	 ??9const_iterator@?$vector@KV?$allocator@K@std@@@std@@QBE_NABV012@@Z ; std::vector<unsigned long,std::allocator<unsigned long> >::const_iterator::operator!=
  01716	0f b6 d0	 movzx	 edx, al
  01719	85 d2		 test	 edx, edx
  0171b	74 37		 je	 SHORT $L208301

; 244  : 	{
; 245  : 		if( (*it) == dwPtr )

  0171d	8d 4d fc	 lea	 ecx, DWORD PTR _it$[ebp]
  01720	e8 00 00 00 00	 call	 ??Diterator@?$vector@KV?$allocator@K@std@@@std@@QBEAAKXZ ; std::vector<unsigned long,std::allocator<unsigned long> >::iterator::operator*
  01725	8b 00		 mov	 eax, DWORD PTR [eax]
  01727	3b 45 08	 cmp	 eax, DWORD PTR _dwPtr$[ebp]
  0172a	75 18		 jne	 SHORT $L208425

; 246  : 		{
; 247  : 			m_vecDialog.erase( it );

  0172c	8b 4d fc	 mov	 ecx, DWORD PTR _it$[ebp]
  0172f	51		 push	 ecx
  01730	8d 55 f4	 lea	 edx, DWORD PTR $T211443[ebp]
  01733	52		 push	 edx
  01734	8b 4d ec	 mov	 ecx, DWORD PTR _this$[ebp]
  01737	81 c1 d8 00 00
	00		 add	 ecx, 216		; 000000d8H
  0173d	e8 00 00 00 00	 call	 ?erase@?$vector@KV?$allocator@K@std@@@std@@QAE?AViterator@12@V312@@Z ; std::vector<unsigned long,std::allocator<unsigned long> >::erase

; 248  : 			return;

  01742	eb 10		 jmp	 SHORT $L208301
$L208425:

; 249  : 		}
; 250  : 		it++;

  01744	6a 00		 push	 0
  01746	8d 45 f0	 lea	 eax, DWORD PTR $T211444[ebp]
  01749	50		 push	 eax
  0174a	8d 4d fc	 lea	 ecx, DWORD PTR _it$[ebp]
  0174d	e8 00 00 00 00	 call	 ??Eiterator@?$vector@KV?$allocator@K@std@@@std@@QAE?AV012@H@Z ; std::vector<unsigned long,std::allocator<unsigned long> >::iterator::operator++

; 251  : 	}

  01752	eb a7		 jmp	 SHORT $L208422
$L208301:

; 252  : }

  01754	8b e5		 mov	 esp, ebp
  01756	5d		 pop	 ebp
  01757	c2 04 00	 ret	 4
?UIRemoveDialog@CUIManager@@UAEXK@Z ENDP		; CUIManager::UIRemoveDialog
; Function compile flags: /Odt
_this$ = -4						; size = 4
?UIDlgSize@CUIManager@@UAEHXZ PROC NEAR			; CUIManager::UIDlgSize
; _this$ = ecx

; 255  : {

  01760	55		 push	 ebp
  01761	8b ec		 mov	 ebp, esp
  01763	51		 push	 ecx
  01764	89 4d fc	 mov	 DWORD PTR _this$[ebp], ecx

; 256  : 	return m_vecDialog.size();

  01767	8b 4d fc	 mov	 ecx, DWORD PTR _this$[ebp]
  0176a	81 c1 d8 00 00
	00		 add	 ecx, 216		; 000000d8H
  01770	e8 00 00 00 00	 call	 ?size@?$vector@KV?$allocator@K@std@@@std@@QBEIXZ ; std::vector<unsigned long,std::allocator<unsigned long> >::size

; 257  : }

  01775	8b e5		 mov	 esp, ebp
  01777	5d		 pop	 ebp
  01778	c3		 ret	 0
?UIDlgSize@CUIManager@@UAEHXZ ENDP			; CUIManager::UIDlgSize
_TEXT	ENDS
EXTRN	??0CTabPageParentWnd@@QAE@XZ:NEAR		; CTabPageParentWnd::CTabPageParentWnd
EXTRN	??0CTopPanelWnd@@QAE@XZ:NEAR			; CTopPanelWnd::CTopPanelWnd
EXTRN	??0CLogoPanelWnd@@QAE@XZ:NEAR			; CLogoPanelWnd::CLogoPanelWnd
EXTRN	_strcmp:NEAR
EXTRN	??0CBottomPanelWnd@@QAE@XZ:NEAR			; CBottomPanelWnd::CBottomPanelWnd
EXTRN	??0CTabBarWnd@@QAE@XZ:NEAR			; CTabBarWnd::CTabBarWnd
xdata$x	SEGMENT
$T211535 DD	0ffffffffH
	DD	FLAT:$L211497
	DD	00H
	DD	FLAT:$L211498
	DD	0ffffffffH
	DD	FLAT:$L211499
	DD	0ffffffffH
	DD	FLAT:$L211501
	DD	03H
	DD	FLAT:$L211502
	DD	0ffffffffH
	DD	FLAT:$L211503
	DD	05H
	DD	FLAT:$L211504
	DD	0ffffffffH
	DD	FLAT:$L211505
	DD	0ffffffffH
	DD	FLAT:$L211507
	DD	08H
	DD	FLAT:$L211508
	DD	0ffffffffH
	DD	FLAT:$L211509
	DD	0aH
	DD	FLAT:$L211510
	DD	0ffffffffH
	DD	FLAT:$L211511
	DD	0ffffffffH
	DD	FLAT:$L211513
	DD	0dH
	DD	FLAT:$L211514
	DD	0ffffffffH
	DD	FLAT:$L211515
	DD	0fH
	DD	FLAT:$L211516
	DD	0ffffffffH
	DD	FLAT:$L211517
	DD	0ffffffffH
	DD	FLAT:$L211519
	DD	012H
	DD	FLAT:$L211520
	DD	0ffffffffH
	DD	FLAT:$L211521
	DD	014H
	DD	FLAT:$L211522
	DD	0ffffffffH
	DD	FLAT:$L211524
	DD	016H
	DD	FLAT:$L211525
	DD	0ffffffffH
	DD	FLAT:$L211526
	DD	018H
	DD	FLAT:$L211527
	DD	0ffffffffH
	DD	FLAT:$L211528
	DD	0ffffffffH
	DD	FLAT:$L211530
	DD	01bH
	DD	FLAT:$L211531
$T211533 DD	019930520H
	DD	01dH
	DD	FLAT:$T211535
	DD	2 DUP(00H)
	DD	2 DUP(00H)
; Function compile flags: /Odt
xdata$x	ENDS
_TEXT	SEGMENT
tv654 = -820						; size = 4
tv560 = -816						; size = 4
tv646 = -812						; size = 4
tv639 = -808						; size = 4
tv355 = -804						; size = 4
tv631 = -800						; size = 4
tv279 = -796						; size = 4
tv623 = -792						; size = 4
tv203 = -788						; size = 4
tv615 = -784						; size = 4
tv95 = -780						; size = 4
_this$ = -776						; size = 4
$T211496 = -772						; size = 28
$T211495 = -744						; size = 28
$T211494 = -716						; size = 4
$T211491 = -712						; size = 4
$T211490 = -708						; size = 4
$T211489 = -704						; size = 28
$T211488 = -676						; size = 28
$T211487 = -648						; size = 28
$T211486 = -620						; size = 28
$T211485 = -592						; size = 4
$T211484 = -588						; size = 28
$T211483 = -560						; size = 28
$T211482 = -532						; size = 28
$T211481 = -504						; size = 28
$T211480 = -476						; size = 4
$T211477 = -472						; size = 4
$T211476 = -468						; size = 4
$T211475 = -464						; size = 28
$T211474 = -436						; size = 28
$T211473 = -408						; size = 28
$T211472 = -380						; size = 28
$T211471 = -352						; size = 4
$T211468 = -348						; size = 4
$T211467 = -344						; size = 4
$T211466 = -340						; size = 28
$T211465 = -312						; size = 28
$T211464 = -284						; size = 28
$T211463 = -256						; size = 28
$T211462 = -228						; size = 4
$T211459 = -224						; size = 4
$T211458 = -220						; size = 4
$T211457 = -216						; size = 28
$T211456 = -188						; size = 28
$T211455 = -160						; size = 28
$T211454 = -132						; size = 28
$T211453 = -104						; size = 4
$T211450 = -100						; size = 4
$T211449 = -96						; size = 4
$T211448 = -92						; size = 28
$T211447 = -64						; size = 28
_pMainWnd$ = -36					; size = 4
_rectNull$ = -32					; size = 16
_id$ = -16						; size = 4
__$EHRec$ = -12						; size = 12
_pszWindowName$ = 8					; size = 4
?CreateUIWindow@CUIManager@@UAEXPBD@Z PROC NEAR		; CUIManager::CreateUIWindow
; _this$ = ecx

; 260  : {

  01780	55		 push	 ebp
  01781	8b ec		 mov	 ebp, esp
  01783	6a ff		 push	 -1
  01785	68 00 00 00 00	 push	 __ehhandler$?CreateUIWindow@CUIManager@@UAEXPBD@Z
  0178a	64 a1 00 00 00
	00		 mov	 eax, DWORD PTR fs:__except_list
  01790	50		 push	 eax
  01791	64 89 25 00 00
	00 00		 mov	 DWORD PTR fs:__except_list, esp
  01798	81 ec 28 03 00
	00		 sub	 esp, 808		; 00000328H
  0179e	89 8d f8 fc ff
	ff		 mov	 DWORD PTR _this$[ebp], ecx

; 261  : 	CRect	rectNull(0,0,0,0);

  017a4	6a 00		 push	 0
  017a6	6a 00		 push	 0
  017a8	6a 00		 push	 0
  017aa	6a 00		 push	 0
  017ac	8d 4d e0	 lea	 ecx, DWORD PTR _rectNull$[ebp]
  017af	e8 00 00 00 00	 call	 ??0CRect@@QAE@HHHH@Z	; CRect::CRect

; 262  : 	CWnd*	pMainWnd = AfxGetMainWindow();

  017b4	e8 00 00 00 00	 call	 ?AfxGetMainWindow@@YAPAVCWnd@@XZ ; AfxGetMainWindow
  017b9	89 45 dc	 mov	 DWORD PTR _pMainWnd$[ebp], eax

; 263  : 	int		id = ID_WND_TOPPANEL;

  017bc	c7 45 f0 11 27
	00 00		 mov	 DWORD PTR _id$[ebp], 10001 ; 00002711H

; 264  : 
; 265  : 	if( strcmp( pszWindowName,"toppanel") == 0 )

  017c3	68 00 00 00 00	 push	 OFFSET FLAT:$SG208439
  017c8	8b 45 08	 mov	 eax, DWORD PTR _pszWindowName$[ebp]
  017cb	50		 push	 eax
  017cc	e8 00 00 00 00	 call	 _strcmp
  017d1	83 c4 08	 add	 esp, 8
  017d4	85 c0		 test	 eax, eax
  017d6	0f 85 93 01 00
	00		 jne	 $L208438

; 266  : 	{
; 267  : 		YL_Log( "createWindow.txt",LOG_NOTICE,"CreateUIWindow","%s--in",pszWindowName);

  017dc	68 00 00 00 00	 push	 OFFSET FLAT:$SG208443
  017e1	8d 4d c0	 lea	 ecx, DWORD PTR $T211447[ebp]
  017e4	ff 15 00 00 00
	00		 call	 DWORD PTR __imp_??0?$basic_string@DU?$char_traits@D@std@@V?$allocator@D@2@@std@@QAE@PBD@Z
  017ea	c7 45 fc 00 00
	00 00		 mov	 DWORD PTR __$EHRec$[ebp+8], 0
  017f1	68 00 00 00 00	 push	 OFFSET FLAT:$SG208444
  017f6	8d 4d a4	 lea	 ecx, DWORD PTR $T211448[ebp]
  017f9	ff 15 00 00 00
	00		 call	 DWORD PTR __imp_??0?$basic_string@DU?$char_traits@D@std@@V?$allocator@D@2@@std@@QAE@PBD@Z
  017ff	c6 45 fc 01	 mov	 BYTE PTR __$EHRec$[ebp+8], 1
  01803	8b 4d 08	 mov	 ecx, DWORD PTR _pszWindowName$[ebp]
  01806	51		 push	 ecx
  01807	68 00 00 00 00	 push	 OFFSET FLAT:$SG208442
  0180c	8d 55 c0	 lea	 edx, DWORD PTR $T211447[ebp]
  0180f	52		 push	 edx
  01810	6a 01		 push	 1
  01812	8d 45 a4	 lea	 eax, DWORD PTR $T211448[ebp]
  01815	50		 push	 eax
  01816	ff 15 00 00 00
	00		 call	 DWORD PTR __imp_?YL_Log@@YAXABV?$basic_string@DU?$char_traits@D@std@@V?$allocator@D@2@@std@@H0PBDZZ
  0181c	83 c4 14	 add	 esp, 20			; 00000014H
  0181f	c6 45 fc 00	 mov	 BYTE PTR __$EHRec$[ebp+8], 0
  01823	8d 4d a4	 lea	 ecx, DWORD PTR $T211448[ebp]
  01826	ff 15 00 00 00
	00		 call	 DWORD PTR __imp_??1?$basic_string@DU?$char_traits@D@std@@V?$allocator@D@2@@std@@QAE@XZ
  0182c	c7 45 fc ff ff
	ff ff		 mov	 DWORD PTR __$EHRec$[ebp+8], -1
  01833	8d 4d c0	 lea	 ecx, DWORD PTR $T211447[ebp]
  01836	ff 15 00 00 00
	00		 call	 DWORD PTR __imp_??1?$basic_string@DU?$char_traits@D@std@@V?$allocator@D@2@@std@@QAE@XZ

; 268  : 
; 269  : 		m_pWndTopPanel			= new CTopPanelWnd();

  0183c	68 6c 06 00 00	 push	 1644			; 0000066cH
  01841	e8 00 00 00 00	 call	 ??2CObject@@SGPAXI@Z	; CObject::operator new
  01846	89 45 9c	 mov	 DWORD PTR $T211450[ebp], eax
  01849	c7 45 fc 02 00
	00 00		 mov	 DWORD PTR __$EHRec$[ebp+8], 2
  01850	83 7d 9c 00	 cmp	 DWORD PTR $T211450[ebp], 0
  01854	74 10		 je	 SHORT $L211451
  01856	8b 4d 9c	 mov	 ecx, DWORD PTR $T211450[ebp]
  01859	e8 00 00 00 00	 call	 ??0CTopPanelWnd@@QAE@XZ	; CTopPanelWnd::CTopPanelWnd
  0185e	89 85 f4 fc ff
	ff		 mov	 DWORD PTR tv95[ebp], eax
  01864	eb 0a		 jmp	 SHORT $L211452
$L211451:
  01866	c7 85 f4 fc ff
	ff 00 00 00 00	 mov	 DWORD PTR tv95[ebp], 0
$L211452:
  01870	8b 8d f4 fc ff
	ff		 mov	 ecx, DWORD PTR tv95[ebp]
  01876	89 4d a0	 mov	 DWORD PTR $T211449[ebp], ecx
  01879	c7 45 fc ff ff
	ff ff		 mov	 DWORD PTR __$EHRec$[ebp+8], -1
  01880	8b 95 f8 fc ff
	ff		 mov	 edx, DWORD PTR _this$[ebp]
  01886	8b 45 a0	 mov	 eax, DWORD PTR $T211449[ebp]
  01889	89 42 04	 mov	 DWORD PTR [edx+4], eax

; 270  : 		m_pWndTopPanel->Create(NULL,NULL,WS_CHILD,rectNull,pMainWnd,id );

  0188c	6a 00		 push	 0
  0188e	8b 4d f0	 mov	 ecx, DWORD PTR _id$[ebp]
  01891	51		 push	 ecx
  01892	8b 55 dc	 mov	 edx, DWORD PTR _pMainWnd$[ebp]
  01895	52		 push	 edx
  01896	8d 45 e0	 lea	 eax, DWORD PTR _rectNull$[ebp]
  01899	50		 push	 eax
  0189a	68 00 00 00 40	 push	 1073741824		; 40000000H
  0189f	6a 00		 push	 0
  018a1	6a 00		 push	 0
  018a3	8b 8d f8 fc ff
	ff		 mov	 ecx, DWORD PTR _this$[ebp]
  018a9	8b 51 04	 mov	 edx, DWORD PTR [ecx+4]
  018ac	8b 85 f8 fc ff
	ff		 mov	 eax, DWORD PTR _this$[ebp]
  018b2	8b 48 04	 mov	 ecx, DWORD PTR [eax+4]
  018b5	8b 12		 mov	 edx, DWORD PTR [edx]
  018b7	ff 52 5c	 call	 DWORD PTR [edx+92]

; 271  : 		m_pPanesMgr->RegisterWnd( "toppanel", m_pWndTopPanel );

  018ba	8b 85 f8 fc ff
	ff		 mov	 eax, DWORD PTR _this$[ebp]
  018c0	8b 48 04	 mov	 ecx, DWORD PTR [eax+4]
  018c3	51		 push	 ecx
  018c4	51		 push	 ecx
  018c5	8b cc		 mov	 ecx, esp
  018c7	89 65 98	 mov	 DWORD PTR $T211453[ebp], esp
  018ca	68 00 00 00 00	 push	 OFFSET FLAT:$SG208450
  018cf	ff 15 00 00 00
	00		 call	 DWORD PTR __imp_??0?$CStringT@DV?$StrTraitMFC_DLL@DV?$ChTraitsCRT@D@ATL@@@@@ATL@@QAE@PBD@Z
  018d5	89 85 f0 fc ff
	ff		 mov	 DWORD PTR tv615[ebp], eax
  018db	8b 95 f8 fc ff
	ff		 mov	 edx, DWORD PTR _this$[ebp]
  018e1	8b 8a e8 00 00
	00		 mov	 ecx, DWORD PTR [edx+232]
  018e7	8b 85 f8 fc ff
	ff		 mov	 eax, DWORD PTR _this$[ebp]
  018ed	8b 90 e8 00 00
	00		 mov	 edx, DWORD PTR [eax+232]
  018f3	8b 02		 mov	 eax, DWORD PTR [edx]
  018f5	ff 50 1c	 call	 DWORD PTR [eax+28]

; 272  : 
; 273  : 		YL_Log( "createWindow.txt",LOG_NOTICE,"CreateUIWindow","%s",pszWindowName);

  018f8	68 00 00 00 00	 push	 OFFSET FLAT:$SG208454
  018fd	8d 8d 7c ff ff
	ff		 lea	 ecx, DWORD PTR $T211454[ebp]
  01903	ff 15 00 00 00
	00		 call	 DWORD PTR __imp_??0?$basic_string@DU?$char_traits@D@std@@V?$allocator@D@2@@std@@QAE@PBD@Z
  01909	c7 45 fc 03 00
	00 00		 mov	 DWORD PTR __$EHRec$[ebp+8], 3
  01910	68 00 00 00 00	 push	 OFFSET FLAT:$SG208455
  01915	8d 8d 60 ff ff
	ff		 lea	 ecx, DWORD PTR $T211455[ebp]
  0191b	ff 15 00 00 00
	00		 call	 DWORD PTR __imp_??0?$basic_string@DU?$char_traits@D@std@@V?$allocator@D@2@@std@@QAE@PBD@Z
  01921	c6 45 fc 04	 mov	 BYTE PTR __$EHRec$[ebp+8], 4
  01925	8b 4d 08	 mov	 ecx, DWORD PTR _pszWindowName$[ebp]
  01928	51		 push	 ecx
  01929	68 00 00 00 00	 push	 OFFSET FLAT:$SG208453
  0192e	8d 95 7c ff ff
	ff		 lea	 edx, DWORD PTR $T211454[ebp]
  01934	52		 push	 edx
  01935	6a 01		 push	 1
  01937	8d 85 60 ff ff
	ff		 lea	 eax, DWORD PTR $T211455[ebp]
  0193d	50		 push	 eax
  0193e	ff 15 00 00 00
	00		 call	 DWORD PTR __imp_?YL_Log@@YAXABV?$basic_string@DU?$char_traits@D@std@@V?$allocator@D@2@@std@@H0PBDZZ
  01944	83 c4 14	 add	 esp, 20			; 00000014H
  01947	c6 45 fc 03	 mov	 BYTE PTR __$EHRec$[ebp+8], 3
  0194b	8d 8d 60 ff ff
	ff		 lea	 ecx, DWORD PTR $T211455[ebp]
  01951	ff 15 00 00 00
	00		 call	 DWORD PTR __imp_??1?$basic_string@DU?$char_traits@D@std@@V?$allocator@D@2@@std@@QAE@XZ
  01957	c7 45 fc ff ff
	ff ff		 mov	 DWORD PTR __$EHRec$[ebp+8], -1
  0195e	8d 8d 7c ff ff
	ff		 lea	 ecx, DWORD PTR $T211454[ebp]
  01964	ff 15 00 00 00
	00		 call	 DWORD PTR __imp_??1?$basic_string@DU?$char_traits@D@std@@V?$allocator@D@2@@std@@QAE@XZ

; 274  : 		return;

  0196a	e9 d4 08 00 00	 jmp	 $L208434
$L208438:

; 275  : 	}
; 276  : 	else if( strcmp( pszWindowName,"logopanel") == 0 )

  0196f	68 00 00 00 00	 push	 OFFSET FLAT:$SG208458
  01974	8b 4d 08	 mov	 ecx, DWORD PTR _pszWindowName$[ebp]
  01977	51		 push	 ecx
  01978	e8 00 00 00 00	 call	 _strcmp
  0197d	83 c4 08	 add	 esp, 8
  01980	85 c0		 test	 eax, eax
  01982	0f 85 bf 01 00
	00		 jne	 $L208457

; 277  : 	{
; 278  : 		id++;

  01988	8b 55 f0	 mov	 edx, DWORD PTR _id$[ebp]
  0198b	83 c2 01	 add	 edx, 1
  0198e	89 55 f0	 mov	 DWORD PTR _id$[ebp], edx

; 279  : 		YL_Log( "createWindow.txt",LOG_NOTICE,"CreateUIWindow","%s--in",pszWindowName);

  01991	68 00 00 00 00	 push	 OFFSET FLAT:$SG208462
  01996	8d 8d 44 ff ff
	ff		 lea	 ecx, DWORD PTR $T211456[ebp]
  0199c	ff 15 00 00 00
	00		 call	 DWORD PTR __imp_??0?$basic_string@DU?$char_traits@D@std@@V?$allocator@D@2@@std@@QAE@PBD@Z
  019a2	c7 45 fc 05 00
	00 00		 mov	 DWORD PTR __$EHRec$[ebp+8], 5
  019a9	68 00 00 00 00	 push	 OFFSET FLAT:$SG208463
  019ae	8d 8d 28 ff ff
	ff		 lea	 ecx, DWORD PTR $T211457[ebp]
  019b4	ff 15 00 00 00
	00		 call	 DWORD PTR __imp_??0?$basic_string@DU?$char_traits@D@std@@V?$allocator@D@2@@std@@QAE@PBD@Z
  019ba	c6 45 fc 06	 mov	 BYTE PTR __$EHRec$[ebp+8], 6
  019be	8b 45 08	 mov	 eax, DWORD PTR _pszWindowName$[ebp]
  019c1	50		 push	 eax
  019c2	68 00 00 00 00	 push	 OFFSET FLAT:$SG208461
  019c7	8d 8d 44 ff ff
	ff		 lea	 ecx, DWORD PTR $T211456[ebp]
  019cd	51		 push	 ecx
  019ce	6a 01		 push	 1
  019d0	8d 95 28 ff ff
	ff		 lea	 edx, DWORD PTR $T211457[ebp]
  019d6	52		 push	 edx
  019d7	ff 15 00 00 00
	00		 call	 DWORD PTR __imp_?YL_Log@@YAXABV?$basic_string@DU?$char_traits@D@std@@V?$allocator@D@2@@std@@H0PBDZZ
  019dd	83 c4 14	 add	 esp, 20			; 00000014H
  019e0	c6 45 fc 05	 mov	 BYTE PTR __$EHRec$[ebp+8], 5
  019e4	8d 8d 28 ff ff
	ff		 lea	 ecx, DWORD PTR $T211457[ebp]
  019ea	ff 15 00 00 00
	00		 call	 DWORD PTR __imp_??1?$basic_string@DU?$char_traits@D@std@@V?$allocator@D@2@@std@@QAE@XZ
  019f0	c7 45 fc ff ff
	ff ff		 mov	 DWORD PTR __$EHRec$[ebp+8], -1
  019f7	8d 8d 44 ff ff
	ff		 lea	 ecx, DWORD PTR $T211456[ebp]
  019fd	ff 15 00 00 00
	00		 call	 DWORD PTR __imp_??1?$basic_string@DU?$char_traits@D@std@@V?$allocator@D@2@@std@@QAE@XZ

; 280  : 
; 281  : 		m_pWndLogoPanel		= new CLogoPanelWnd();

  01a03	6a 54		 push	 84			; 00000054H
  01a05	e8 00 00 00 00	 call	 ??2CObject@@SGPAXI@Z	; CObject::operator new
  01a0a	89 85 20 ff ff
	ff		 mov	 DWORD PTR $T211459[ebp], eax
  01a10	c7 45 fc 07 00
	00 00		 mov	 DWORD PTR __$EHRec$[ebp+8], 7
  01a17	83 bd 20 ff ff
	ff 00		 cmp	 DWORD PTR $T211459[ebp], 0
  01a1e	74 13		 je	 SHORT $L211460
  01a20	8b 8d 20 ff ff
	ff		 mov	 ecx, DWORD PTR $T211459[ebp]
  01a26	e8 00 00 00 00	 call	 ??0CLogoPanelWnd@@QAE@XZ ; CLogoPanelWnd::CLogoPanelWnd
  01a2b	89 85 ec fc ff
	ff		 mov	 DWORD PTR tv203[ebp], eax
  01a31	eb 0a		 jmp	 SHORT $L211461
$L211460:
  01a33	c7 85 ec fc ff
	ff 00 00 00 00	 mov	 DWORD PTR tv203[ebp], 0
$L211461:
  01a3d	8b 85 ec fc ff
	ff		 mov	 eax, DWORD PTR tv203[ebp]
  01a43	89 85 24 ff ff
	ff		 mov	 DWORD PTR $T211458[ebp], eax
  01a49	c7 45 fc ff ff
	ff ff		 mov	 DWORD PTR __$EHRec$[ebp+8], -1
  01a50	8b 8d f8 fc ff
	ff		 mov	 ecx, DWORD PTR _this$[ebp]
  01a56	8b 95 24 ff ff
	ff		 mov	 edx, DWORD PTR $T211458[ebp]
  01a5c	89 51 08	 mov	 DWORD PTR [ecx+8], edx

; 282  : 		m_pWndLogoPanel->Create(NULL,NULL,WS_CHILD,rectNull,pMainWnd,id );

  01a5f	6a 00		 push	 0
  01a61	8b 45 f0	 mov	 eax, DWORD PTR _id$[ebp]
  01a64	50		 push	 eax
  01a65	8b 4d dc	 mov	 ecx, DWORD PTR _pMainWnd$[ebp]
  01a68	51		 push	 ecx
  01a69	8d 55 e0	 lea	 edx, DWORD PTR _rectNull$[ebp]
  01a6c	52		 push	 edx
  01a6d	68 00 00 00 40	 push	 1073741824		; 40000000H
  01a72	6a 00		 push	 0
  01a74	6a 00		 push	 0
  01a76	8b 85 f8 fc ff
	ff		 mov	 eax, DWORD PTR _this$[ebp]
  01a7c	8b 48 08	 mov	 ecx, DWORD PTR [eax+8]
  01a7f	8b 95 f8 fc ff
	ff		 mov	 edx, DWORD PTR _this$[ebp]
  01a85	8b 42 08	 mov	 eax, DWORD PTR [edx+8]
  01a88	8b 11		 mov	 edx, DWORD PTR [ecx]
  01a8a	8b c8		 mov	 ecx, eax
  01a8c	ff 52 5c	 call	 DWORD PTR [edx+92]

; 283  : 		m_pPanesMgr->RegisterWnd( "logopanel", m_pWndLogoPanel );

  01a8f	8b 85 f8 fc ff
	ff		 mov	 eax, DWORD PTR _this$[ebp]
  01a95	8b 48 08	 mov	 ecx, DWORD PTR [eax+8]
  01a98	51		 push	 ecx
  01a99	51		 push	 ecx
  01a9a	8b cc		 mov	 ecx, esp
  01a9c	89 a5 1c ff ff
	ff		 mov	 DWORD PTR $T211462[ebp], esp
  01aa2	68 00 00 00 00	 push	 OFFSET FLAT:$SG208469
  01aa7	ff 15 00 00 00
	00		 call	 DWORD PTR __imp_??0?$CStringT@DV?$StrTraitMFC_DLL@DV?$ChTraitsCRT@D@ATL@@@@@ATL@@QAE@PBD@Z
  01aad	89 85 e8 fc ff
	ff		 mov	 DWORD PTR tv623[ebp], eax
  01ab3	8b 95 f8 fc ff
	ff		 mov	 edx, DWORD PTR _this$[ebp]
  01ab9	8b 8a e8 00 00
	00		 mov	 ecx, DWORD PTR [edx+232]
  01abf	8b 85 f8 fc ff
	ff		 mov	 eax, DWORD PTR _this$[ebp]
  01ac5	8b 90 e8 00 00
	00		 mov	 edx, DWORD PTR [eax+232]
  01acb	8b 02		 mov	 eax, DWORD PTR [edx]
  01acd	ff 50 1c	 call	 DWORD PTR [eax+28]

; 284  : 
; 285  : 		YL_Log( "createWindow.txt",LOG_NOTICE,"CreateUIWindow","%s",pszWindowName);

  01ad0	68 00 00 00 00	 push	 OFFSET FLAT:$SG208473
  01ad5	8d 8d 00 ff ff
	ff		 lea	 ecx, DWORD PTR $T211463[ebp]
  01adb	ff 15 00 00 00
	00		 call	 DWORD PTR __imp_??0?$basic_string@DU?$char_traits@D@std@@V?$allocator@D@2@@std@@QAE@PBD@Z
  01ae1	c7 45 fc 08 00
	00 00		 mov	 DWORD PTR __$EHRec$[ebp+8], 8
  01ae8	68 00 00 00 00	 push	 OFFSET FLAT:$SG208474
  01aed	8d 8d e4 fe ff
	ff		 lea	 ecx, DWORD PTR $T211464[ebp]
  01af3	ff 15 00 00 00
	00		 call	 DWORD PTR __imp_??0?$basic_string@DU?$char_traits@D@std@@V?$allocator@D@2@@std@@QAE@PBD@Z
  01af9	c6 45 fc 09	 mov	 BYTE PTR __$EHRec$[ebp+8], 9
  01afd	8b 4d 08	 mov	 ecx, DWORD PTR _pszWindowName$[ebp]
  01b00	51		 push	 ecx
  01b01	68 00 00 00 00	 push	 OFFSET FLAT:$SG208472
  01b06	8d 95 00 ff ff
	ff		 lea	 edx, DWORD PTR $T211463[ebp]
  01b0c	52		 push	 edx
  01b0d	6a 01		 push	 1
  01b0f	8d 85 e4 fe ff
	ff		 lea	 eax, DWORD PTR $T211464[ebp]
  01b15	50		 push	 eax
  01b16	ff 15 00 00 00
	00		 call	 DWORD PTR __imp_?YL_Log@@YAXABV?$basic_string@DU?$char_traits@D@std@@V?$allocator@D@2@@std@@H0PBDZZ
  01b1c	83 c4 14	 add	 esp, 20			; 00000014H
  01b1f	c6 45 fc 08	 mov	 BYTE PTR __$EHRec$[ebp+8], 8
  01b23	8d 8d e4 fe ff
	ff		 lea	 ecx, DWORD PTR $T211464[ebp]
  01b29	ff 15 00 00 00
	00		 call	 DWORD PTR __imp_??1?$basic_string@DU?$char_traits@D@std@@V?$allocator@D@2@@std@@QAE@XZ
  01b2f	c7 45 fc ff ff
	ff ff		 mov	 DWORD PTR __$EHRec$[ebp+8], -1
  01b36	8d 8d 00 ff ff
	ff		 lea	 ecx, DWORD PTR $T211463[ebp]
  01b3c	ff 15 00 00 00
	00		 call	 DWORD PTR __imp_??1?$basic_string@DU?$char_traits@D@std@@V?$allocator@D@2@@std@@QAE@XZ

; 286  : 		return;

  01b42	e9 fc 06 00 00	 jmp	 $L208434
$L208457:

; 287  : 	}
; 288  : 	else if( strcmp( pszWindowName,"bottompanel") == 0 )

  01b47	68 00 00 00 00	 push	 OFFSET FLAT:$SG208477
  01b4c	8b 4d 08	 mov	 ecx, DWORD PTR _pszWindowName$[ebp]
  01b4f	51		 push	 ecx
  01b50	e8 00 00 00 00	 call	 _strcmp
  01b55	83 c4 08	 add	 esp, 8
  01b58	85 c0		 test	 eax, eax
  01b5a	0f 85 bf 01 00
	00		 jne	 $L208476

; 289  : 	{
; 290  : 		id++;

  01b60	8b 55 f0	 mov	 edx, DWORD PTR _id$[ebp]
  01b63	83 c2 01	 add	 edx, 1
  01b66	89 55 f0	 mov	 DWORD PTR _id$[ebp], edx

; 291  : 		YL_Log( "createWindow.txt",LOG_NOTICE,"CreateUIWindow","%s--in",pszWindowName);

  01b69	68 00 00 00 00	 push	 OFFSET FLAT:$SG208481
  01b6e	8d 8d c8 fe ff
	ff		 lea	 ecx, DWORD PTR $T211465[ebp]
  01b74	ff 15 00 00 00
	00		 call	 DWORD PTR __imp_??0?$basic_string@DU?$char_traits@D@std@@V?$allocator@D@2@@std@@QAE@PBD@Z
  01b7a	c7 45 fc 0a 00
	00 00		 mov	 DWORD PTR __$EHRec$[ebp+8], 10 ; 0000000aH
  01b81	68 00 00 00 00	 push	 OFFSET FLAT:$SG208482
  01b86	8d 8d ac fe ff
	ff		 lea	 ecx, DWORD PTR $T211466[ebp]
  01b8c	ff 15 00 00 00
	00		 call	 DWORD PTR __imp_??0?$basic_string@DU?$char_traits@D@std@@V?$allocator@D@2@@std@@QAE@PBD@Z
  01b92	c6 45 fc 0b	 mov	 BYTE PTR __$EHRec$[ebp+8], 11 ; 0000000bH
  01b96	8b 45 08	 mov	 eax, DWORD PTR _pszWindowName$[ebp]
  01b99	50		 push	 eax
  01b9a	68 00 00 00 00	 push	 OFFSET FLAT:$SG208480
  01b9f	8d 8d c8 fe ff
	ff		 lea	 ecx, DWORD PTR $T211465[ebp]
  01ba5	51		 push	 ecx
  01ba6	6a 01		 push	 1
  01ba8	8d 95 ac fe ff
	ff		 lea	 edx, DWORD PTR $T211466[ebp]
  01bae	52		 push	 edx
  01baf	ff 15 00 00 00
	00		 call	 DWORD PTR __imp_?YL_Log@@YAXABV?$basic_string@DU?$char_traits@D@std@@V?$allocator@D@2@@std@@H0PBDZZ
  01bb5	83 c4 14	 add	 esp, 20			; 00000014H
  01bb8	c6 45 fc 0a	 mov	 BYTE PTR __$EHRec$[ebp+8], 10 ; 0000000aH
  01bbc	8d 8d ac fe ff
	ff		 lea	 ecx, DWORD PTR $T211466[ebp]
  01bc2	ff 15 00 00 00
	00		 call	 DWORD PTR __imp_??1?$basic_string@DU?$char_traits@D@std@@V?$allocator@D@2@@std@@QAE@XZ
  01bc8	c7 45 fc ff ff
	ff ff		 mov	 DWORD PTR __$EHRec$[ebp+8], -1
  01bcf	8d 8d c8 fe ff
	ff		 lea	 ecx, DWORD PTR $T211465[ebp]
  01bd5	ff 15 00 00 00
	00		 call	 DWORD PTR __imp_??1?$basic_string@DU?$char_traits@D@std@@V?$allocator@D@2@@std@@QAE@XZ

; 292  : 
; 293  : 		m_pWndBottomPanel		= new CBottomPanelWnd();

  01bdb	6a 54		 push	 84			; 00000054H
  01bdd	e8 00 00 00 00	 call	 ??2CObject@@SGPAXI@Z	; CObject::operator new
  01be2	89 85 a4 fe ff
	ff		 mov	 DWORD PTR $T211468[ebp], eax
  01be8	c7 45 fc 0c 00
	00 00		 mov	 DWORD PTR __$EHRec$[ebp+8], 12 ; 0000000cH
  01bef	83 bd a4 fe ff
	ff 00		 cmp	 DWORD PTR $T211468[ebp], 0
  01bf6	74 13		 je	 SHORT $L211469
  01bf8	8b 8d a4 fe ff
	ff		 mov	 ecx, DWORD PTR $T211468[ebp]
  01bfe	e8 00 00 00 00	 call	 ??0CBottomPanelWnd@@QAE@XZ ; CBottomPanelWnd::CBottomPanelWnd
  01c03	89 85 e4 fc ff
	ff		 mov	 DWORD PTR tv279[ebp], eax
  01c09	eb 0a		 jmp	 SHORT $L211470
$L211469:
  01c0b	c7 85 e4 fc ff
	ff 00 00 00 00	 mov	 DWORD PTR tv279[ebp], 0
$L211470:
  01c15	8b 85 e4 fc ff
	ff		 mov	 eax, DWORD PTR tv279[ebp]
  01c1b	89 85 a8 fe ff
	ff		 mov	 DWORD PTR $T211467[ebp], eax
  01c21	c7 45 fc ff ff
	ff ff		 mov	 DWORD PTR __$EHRec$[ebp+8], -1
  01c28	8b 8d f8 fc ff
	ff		 mov	 ecx, DWORD PTR _this$[ebp]
  01c2e	8b 95 a8 fe ff
	ff		 mov	 edx, DWORD PTR $T211467[ebp]
  01c34	89 51 0c	 mov	 DWORD PTR [ecx+12], edx

; 294  : 		m_pWndBottomPanel->Create(NULL,NULL,WS_CHILD,rectNull,pMainWnd,id );

  01c37	6a 00		 push	 0
  01c39	8b 45 f0	 mov	 eax, DWORD PTR _id$[ebp]
  01c3c	50		 push	 eax
  01c3d	8b 4d dc	 mov	 ecx, DWORD PTR _pMainWnd$[ebp]
  01c40	51		 push	 ecx
  01c41	8d 55 e0	 lea	 edx, DWORD PTR _rectNull$[ebp]
  01c44	52		 push	 edx
  01c45	68 00 00 00 40	 push	 1073741824		; 40000000H
  01c4a	6a 00		 push	 0
  01c4c	6a 00		 push	 0
  01c4e	8b 85 f8 fc ff
	ff		 mov	 eax, DWORD PTR _this$[ebp]
  01c54	8b 48 0c	 mov	 ecx, DWORD PTR [eax+12]
  01c57	8b 95 f8 fc ff
	ff		 mov	 edx, DWORD PTR _this$[ebp]
  01c5d	8b 42 0c	 mov	 eax, DWORD PTR [edx+12]
  01c60	8b 11		 mov	 edx, DWORD PTR [ecx]
  01c62	8b c8		 mov	 ecx, eax
  01c64	ff 52 5c	 call	 DWORD PTR [edx+92]

; 295  : 		m_pPanesMgr->RegisterWnd( "bottompanel", m_pWndBottomPanel );

  01c67	8b 85 f8 fc ff
	ff		 mov	 eax, DWORD PTR _this$[ebp]
  01c6d	8b 48 0c	 mov	 ecx, DWORD PTR [eax+12]
  01c70	51		 push	 ecx
  01c71	51		 push	 ecx
  01c72	8b cc		 mov	 ecx, esp
  01c74	89 a5 a0 fe ff
	ff		 mov	 DWORD PTR $T211471[ebp], esp
  01c7a	68 00 00 00 00	 push	 OFFSET FLAT:$SG208488
  01c7f	ff 15 00 00 00
	00		 call	 DWORD PTR __imp_??0?$CStringT@DV?$StrTraitMFC_DLL@DV?$ChTraitsCRT@D@ATL@@@@@ATL@@QAE@PBD@Z
  01c85	89 85 e0 fc ff
	ff		 mov	 DWORD PTR tv631[ebp], eax
  01c8b	8b 95 f8 fc ff
	ff		 mov	 edx, DWORD PTR _this$[ebp]
  01c91	8b 8a e8 00 00
	00		 mov	 ecx, DWORD PTR [edx+232]
  01c97	8b 85 f8 fc ff
	ff		 mov	 eax, DWORD PTR _this$[ebp]
  01c9d	8b 90 e8 00 00
	00		 mov	 edx, DWORD PTR [eax+232]
  01ca3	8b 02		 mov	 eax, DWORD PTR [edx]
  01ca5	ff 50 1c	 call	 DWORD PTR [eax+28]

; 296  : 
; 297  : 		YL_Log( "createWindow.txt",LOG_NOTICE,"CreateUIWindow","%s",pszWindowName);

  01ca8	68 00 00 00 00	 push	 OFFSET FLAT:$SG208492
  01cad	8d 8d 84 fe ff
	ff		 lea	 ecx, DWORD PTR $T211472[ebp]
  01cb3	ff 15 00 00 00
	00		 call	 DWORD PTR __imp_??0?$basic_string@DU?$char_traits@D@std@@V?$allocator@D@2@@std@@QAE@PBD@Z
  01cb9	c7 45 fc 0d 00
	00 00		 mov	 DWORD PTR __$EHRec$[ebp+8], 13 ; 0000000dH
  01cc0	68 00 00 00 00	 push	 OFFSET FLAT:$SG208493
  01cc5	8d 8d 68 fe ff
	ff		 lea	 ecx, DWORD PTR $T211473[ebp]
  01ccb	ff 15 00 00 00
	00		 call	 DWORD PTR __imp_??0?$basic_string@DU?$char_traits@D@std@@V?$allocator@D@2@@std@@QAE@PBD@Z
  01cd1	c6 45 fc 0e	 mov	 BYTE PTR __$EHRec$[ebp+8], 14 ; 0000000eH
  01cd5	8b 4d 08	 mov	 ecx, DWORD PTR _pszWindowName$[ebp]
  01cd8	51		 push	 ecx
  01cd9	68 00 00 00 00	 push	 OFFSET FLAT:$SG208491
  01cde	8d 95 84 fe ff
	ff		 lea	 edx, DWORD PTR $T211472[ebp]
  01ce4	52		 push	 edx
  01ce5	6a 01		 push	 1
  01ce7	8d 85 68 fe ff
	ff		 lea	 eax, DWORD PTR $T211473[ebp]
  01ced	50		 push	 eax
  01cee	ff 15 00 00 00
	00		 call	 DWORD PTR __imp_?YL_Log@@YAXABV?$basic_string@DU?$char_traits@D@std@@V?$allocator@D@2@@std@@H0PBDZZ
  01cf4	83 c4 14	 add	 esp, 20			; 00000014H
  01cf7	c6 45 fc 0d	 mov	 BYTE PTR __$EHRec$[ebp+8], 13 ; 0000000dH
  01cfb	8d 8d 68 fe ff
	ff		 lea	 ecx, DWORD PTR $T211473[ebp]
  01d01	ff 15 00 00 00
	00		 call	 DWORD PTR __imp_??1?$basic_string@DU?$char_traits@D@std@@V?$allocator@D@2@@std@@QAE@XZ
  01d07	c7 45 fc ff ff
	ff ff		 mov	 DWORD PTR __$EHRec$[ebp+8], -1
  01d0e	8d 8d 84 fe ff
	ff		 lea	 ecx, DWORD PTR $T211472[ebp]
  01d14	ff 15 00 00 00
	00		 call	 DWORD PTR __imp_??1?$basic_string@DU?$char_traits@D@std@@V?$allocator@D@2@@std@@QAE@XZ

; 298  : 		return;

  01d1a	e9 24 05 00 00	 jmp	 $L208434
$L208476:

; 299  : 	}
; 300  : 	else if( strcmp( pszWindowName,"tabbarWnd") == 0 )

  01d1f	68 00 00 00 00	 push	 OFFSET FLAT:$SG208496
  01d24	8b 4d 08	 mov	 ecx, DWORD PTR _pszWindowName$[ebp]
  01d27	51		 push	 ecx
  01d28	e8 00 00 00 00	 call	 _strcmp
  01d2d	83 c4 08	 add	 esp, 8
  01d30	85 c0		 test	 eax, eax
  01d32	0f 85 c2 01 00
	00		 jne	 $L208495

; 301  : 	{
; 302  : 		id ++ ;

  01d38	8b 55 f0	 mov	 edx, DWORD PTR _id$[ebp]
  01d3b	83 c2 01	 add	 edx, 1
  01d3e	89 55 f0	 mov	 DWORD PTR _id$[ebp], edx

; 303  : 		YL_Log( "createWindow.txt",LOG_NOTICE,"CreateUIWindow","%s--in",pszWindowName);

  01d41	68 00 00 00 00	 push	 OFFSET FLAT:$SG208500
  01d46	8d 8d 4c fe ff
	ff		 lea	 ecx, DWORD PTR $T211474[ebp]
  01d4c	ff 15 00 00 00
	00		 call	 DWORD PTR __imp_??0?$basic_string@DU?$char_traits@D@std@@V?$allocator@D@2@@std@@QAE@PBD@Z
  01d52	c7 45 fc 0f 00
	00 00		 mov	 DWORD PTR __$EHRec$[ebp+8], 15 ; 0000000fH
  01d59	68 00 00 00 00	 push	 OFFSET FLAT:$SG208501
  01d5e	8d 8d 30 fe ff
	ff		 lea	 ecx, DWORD PTR $T211475[ebp]
  01d64	ff 15 00 00 00
	00		 call	 DWORD PTR __imp_??0?$basic_string@DU?$char_traits@D@std@@V?$allocator@D@2@@std@@QAE@PBD@Z
  01d6a	c6 45 fc 10	 mov	 BYTE PTR __$EHRec$[ebp+8], 16 ; 00000010H
  01d6e	8b 45 08	 mov	 eax, DWORD PTR _pszWindowName$[ebp]
  01d71	50		 push	 eax
  01d72	68 00 00 00 00	 push	 OFFSET FLAT:$SG208499
  01d77	8d 8d 4c fe ff
	ff		 lea	 ecx, DWORD PTR $T211474[ebp]
  01d7d	51		 push	 ecx
  01d7e	6a 01		 push	 1
  01d80	8d 95 30 fe ff
	ff		 lea	 edx, DWORD PTR $T211475[ebp]
  01d86	52		 push	 edx
  01d87	ff 15 00 00 00
	00		 call	 DWORD PTR __imp_?YL_Log@@YAXABV?$basic_string@DU?$char_traits@D@std@@V?$allocator@D@2@@std@@H0PBDZZ
  01d8d	83 c4 14	 add	 esp, 20			; 00000014H
  01d90	c6 45 fc 0f	 mov	 BYTE PTR __$EHRec$[ebp+8], 15 ; 0000000fH
  01d94	8d 8d 30 fe ff
	ff		 lea	 ecx, DWORD PTR $T211475[ebp]
  01d9a	ff 15 00 00 00
	00		 call	 DWORD PTR __imp_??1?$basic_string@DU?$char_traits@D@std@@V?$allocator@D@2@@std@@QAE@XZ
  01da0	c7 45 fc ff ff
	ff ff		 mov	 DWORD PTR __$EHRec$[ebp+8], -1
  01da7	8d 8d 4c fe ff
	ff		 lea	 ecx, DWORD PTR $T211474[ebp]
  01dad	ff 15 00 00 00
	00		 call	 DWORD PTR __imp_??1?$basic_string@DU?$char_traits@D@std@@V?$allocator@D@2@@std@@QAE@XZ

; 304  : 
; 305  : 		m_pWndTabBar			= new CTabBarWnd();

  01db3	68 40 01 00 00	 push	 320			; 00000140H
  01db8	e8 00 00 00 00	 call	 ??2CObject@@SGPAXI@Z	; CObject::operator new
  01dbd	89 85 28 fe ff
	ff		 mov	 DWORD PTR $T211477[ebp], eax
  01dc3	c7 45 fc 11 00
	00 00		 mov	 DWORD PTR __$EHRec$[ebp+8], 17 ; 00000011H
  01dca	83 bd 28 fe ff
	ff 00		 cmp	 DWORD PTR $T211477[ebp], 0
  01dd1	74 13		 je	 SHORT $L211478
  01dd3	8b 8d 28 fe ff
	ff		 mov	 ecx, DWORD PTR $T211477[ebp]
  01dd9	e8 00 00 00 00	 call	 ??0CTabBarWnd@@QAE@XZ	; CTabBarWnd::CTabBarWnd
  01dde	89 85 dc fc ff
	ff		 mov	 DWORD PTR tv355[ebp], eax
  01de4	eb 0a		 jmp	 SHORT $L211479
$L211478:
  01de6	c7 85 dc fc ff
	ff 00 00 00 00	 mov	 DWORD PTR tv355[ebp], 0
$L211479:
  01df0	8b 85 dc fc ff
	ff		 mov	 eax, DWORD PTR tv355[ebp]
  01df6	89 85 2c fe ff
	ff		 mov	 DWORD PTR $T211476[ebp], eax
  01dfc	c7 45 fc ff ff
	ff ff		 mov	 DWORD PTR __$EHRec$[ebp+8], -1
  01e03	8b 8d f8 fc ff
	ff		 mov	 ecx, DWORD PTR _this$[ebp]
  01e09	8b 95 2c fe ff
	ff		 mov	 edx, DWORD PTR $T211476[ebp]
  01e0f	89 51 10	 mov	 DWORD PTR [ecx+16], edx

; 306  : 		m_pWndTabBar->Create(NULL,NULL,WS_CHILD,rectNull,pMainWnd,id );

  01e12	6a 00		 push	 0
  01e14	8b 45 f0	 mov	 eax, DWORD PTR _id$[ebp]
  01e17	50		 push	 eax
  01e18	8b 4d dc	 mov	 ecx, DWORD PTR _pMainWnd$[ebp]
  01e1b	51		 push	 ecx
  01e1c	8d 55 e0	 lea	 edx, DWORD PTR _rectNull$[ebp]
  01e1f	52		 push	 edx
  01e20	68 00 00 00 40	 push	 1073741824		; 40000000H
  01e25	6a 00		 push	 0
  01e27	6a 00		 push	 0
  01e29	8b 85 f8 fc ff
	ff		 mov	 eax, DWORD PTR _this$[ebp]
  01e2f	8b 48 10	 mov	 ecx, DWORD PTR [eax+16]
  01e32	8b 95 f8 fc ff
	ff		 mov	 edx, DWORD PTR _this$[ebp]
  01e38	8b 42 10	 mov	 eax, DWORD PTR [edx+16]
  01e3b	8b 11		 mov	 edx, DWORD PTR [ecx]
  01e3d	8b c8		 mov	 ecx, eax
  01e3f	ff 52 5c	 call	 DWORD PTR [edx+92]

; 307  : 		m_pPanesMgr->RegisterWnd( "tabbarWnd", m_pWndTabBar );

  01e42	8b 85 f8 fc ff
	ff		 mov	 eax, DWORD PTR _this$[ebp]
  01e48	8b 48 10	 mov	 ecx, DWORD PTR [eax+16]
  01e4b	51		 push	 ecx
  01e4c	51		 push	 ecx
  01e4d	8b cc		 mov	 ecx, esp
  01e4f	89 a5 24 fe ff
	ff		 mov	 DWORD PTR $T211480[ebp], esp
  01e55	68 00 00 00 00	 push	 OFFSET FLAT:$SG208507
  01e5a	ff 15 00 00 00
	00		 call	 DWORD PTR __imp_??0?$CStringT@DV?$StrTraitMFC_DLL@DV?$ChTraitsCRT@D@ATL@@@@@ATL@@QAE@PBD@Z
  01e60	89 85 d8 fc ff
	ff		 mov	 DWORD PTR tv639[ebp], eax
  01e66	8b 95 f8 fc ff
	ff		 mov	 edx, DWORD PTR _this$[ebp]
  01e6c	8b 8a e8 00 00
	00		 mov	 ecx, DWORD PTR [edx+232]
  01e72	8b 85 f8 fc ff
	ff		 mov	 eax, DWORD PTR _this$[ebp]
  01e78	8b 90 e8 00 00
	00		 mov	 edx, DWORD PTR [eax+232]
  01e7e	8b 02		 mov	 eax, DWORD PTR [edx]
  01e80	ff 50 1c	 call	 DWORD PTR [eax+28]

; 308  : 
; 309  : 		YL_Log( "createWindow.txt",LOG_NOTICE,"CreateUIWindow","%s",pszWindowName);

  01e83	68 00 00 00 00	 push	 OFFSET FLAT:$SG208511
  01e88	8d 8d 08 fe ff
	ff		 lea	 ecx, DWORD PTR $T211481[ebp]
  01e8e	ff 15 00 00 00
	00		 call	 DWORD PTR __imp_??0?$basic_string@DU?$char_traits@D@std@@V?$allocator@D@2@@std@@QAE@PBD@Z
  01e94	c7 45 fc 12 00
	00 00		 mov	 DWORD PTR __$EHRec$[ebp+8], 18 ; 00000012H
  01e9b	68 00 00 00 00	 push	 OFFSET FLAT:$SG208512
  01ea0	8d 8d ec fd ff
	ff		 lea	 ecx, DWORD PTR $T211482[ebp]
  01ea6	ff 15 00 00 00
	00		 call	 DWORD PTR __imp_??0?$basic_string@DU?$char_traits@D@std@@V?$allocator@D@2@@std@@QAE@PBD@Z
  01eac	c6 45 fc 13	 mov	 BYTE PTR __$EHRec$[ebp+8], 19 ; 00000013H
  01eb0	8b 4d 08	 mov	 ecx, DWORD PTR _pszWindowName$[ebp]
  01eb3	51		 push	 ecx
  01eb4	68 00 00 00 00	 push	 OFFSET FLAT:$SG208510
  01eb9	8d 95 08 fe ff
	ff		 lea	 edx, DWORD PTR $T211481[ebp]
  01ebf	52		 push	 edx
  01ec0	6a 01		 push	 1
  01ec2	8d 85 ec fd ff
	ff		 lea	 eax, DWORD PTR $T211482[ebp]
  01ec8	50		 push	 eax
  01ec9	ff 15 00 00 00
	00		 call	 DWORD PTR __imp_?YL_Log@@YAXABV?$basic_string@DU?$char_traits@D@std@@V?$allocator@D@2@@std@@H0PBDZZ
  01ecf	83 c4 14	 add	 esp, 20			; 00000014H
  01ed2	c6 45 fc 12	 mov	 BYTE PTR __$EHRec$[ebp+8], 18 ; 00000012H
  01ed6	8d 8d ec fd ff
	ff		 lea	 ecx, DWORD PTR $T211482[ebp]
  01edc	ff 15 00 00 00
	00		 call	 DWORD PTR __imp_??1?$basic_string@DU?$char_traits@D@std@@V?$allocator@D@2@@std@@QAE@XZ
  01ee2	c7 45 fc ff ff
	ff ff		 mov	 DWORD PTR __$EHRec$[ebp+8], -1
  01ee9	8d 8d 08 fe ff
	ff		 lea	 ecx, DWORD PTR $T211481[ebp]
  01eef	ff 15 00 00 00
	00		 call	 DWORD PTR __imp_??1?$basic_string@DU?$char_traits@D@std@@V?$allocator@D@2@@std@@QAE@XZ

; 310  : 		return;

  01ef5	e9 49 03 00 00	 jmp	 $L208434
$L208495:

; 311  : 	}
; 312  : 	else if( strcmp( pszWindowName,"midpanel") == 0 )

  01efa	68 00 00 00 00	 push	 OFFSET FLAT:$SG208515
  01eff	8b 4d 08	 mov	 ecx, DWORD PTR _pszWindowName$[ebp]
  01f02	51		 push	 ecx
  01f03	e8 00 00 00 00	 call	 _strcmp
  01f08	83 c4 08	 add	 esp, 8
  01f0b	85 c0		 test	 eax, eax
  01f0d	0f 85 60 01 00
	00		 jne	 $L208514

; 313  : 	{
; 314  : 		id++;

  01f13	8b 55 f0	 mov	 edx, DWORD PTR _id$[ebp]
  01f16	83 c2 01	 add	 edx, 1
  01f19	89 55 f0	 mov	 DWORD PTR _id$[ebp], edx

; 315  : 		YL_Log( "createWindow.txt",LOG_NOTICE,"CreateUIWindow","%s--in",pszWindowName);

  01f1c	68 00 00 00 00	 push	 OFFSET FLAT:$SG208519
  01f21	8d 8d d0 fd ff
	ff		 lea	 ecx, DWORD PTR $T211483[ebp]
  01f27	ff 15 00 00 00
	00		 call	 DWORD PTR __imp_??0?$basic_string@DU?$char_traits@D@std@@V?$allocator@D@2@@std@@QAE@PBD@Z
  01f2d	c7 45 fc 14 00
	00 00		 mov	 DWORD PTR __$EHRec$[ebp+8], 20 ; 00000014H
  01f34	68 00 00 00 00	 push	 OFFSET FLAT:$SG208520
  01f39	8d 8d b4 fd ff
	ff		 lea	 ecx, DWORD PTR $T211484[ebp]
  01f3f	ff 15 00 00 00
	00		 call	 DWORD PTR __imp_??0?$basic_string@DU?$char_traits@D@std@@V?$allocator@D@2@@std@@QAE@PBD@Z
  01f45	c6 45 fc 15	 mov	 BYTE PTR __$EHRec$[ebp+8], 21 ; 00000015H
  01f49	8b 45 08	 mov	 eax, DWORD PTR _pszWindowName$[ebp]
  01f4c	50		 push	 eax
  01f4d	68 00 00 00 00	 push	 OFFSET FLAT:$SG208518
  01f52	8d 8d d0 fd ff
	ff		 lea	 ecx, DWORD PTR $T211483[ebp]
  01f58	51		 push	 ecx
  01f59	6a 01		 push	 1
  01f5b	8d 95 b4 fd ff
	ff		 lea	 edx, DWORD PTR $T211484[ebp]
  01f61	52		 push	 edx
  01f62	ff 15 00 00 00
	00		 call	 DWORD PTR __imp_?YL_Log@@YAXABV?$basic_string@DU?$char_traits@D@std@@V?$allocator@D@2@@std@@H0PBDZZ
  01f68	83 c4 14	 add	 esp, 20			; 00000014H
  01f6b	c6 45 fc 14	 mov	 BYTE PTR __$EHRec$[ebp+8], 20 ; 00000014H
  01f6f	8d 8d b4 fd ff
	ff		 lea	 ecx, DWORD PTR $T211484[ebp]
  01f75	ff 15 00 00 00
	00		 call	 DWORD PTR __imp_??1?$basic_string@DU?$char_traits@D@std@@V?$allocator@D@2@@std@@QAE@XZ
  01f7b	c7 45 fc ff ff
	ff ff		 mov	 DWORD PTR __$EHRec$[ebp+8], -1
  01f82	8d 8d d0 fd ff
	ff		 lea	 ecx, DWORD PTR $T211483[ebp]
  01f88	ff 15 00 00 00
	00		 call	 DWORD PTR __imp_??1?$basic_string@DU?$char_traits@D@std@@V?$allocator@D@2@@std@@QAE@XZ

; 316  : 
; 317  : 		m_SplitterMid.Create("", WS_CHILD|WS_CLIPCHILDREN, rectNull,pMainWnd, id );

  01f8e	8b 45 f0	 mov	 eax, DWORD PTR _id$[ebp]
  01f91	50		 push	 eax
  01f92	8b 4d dc	 mov	 ecx, DWORD PTR _pMainWnd$[ebp]
  01f95	51		 push	 ecx
  01f96	8d 55 e0	 lea	 edx, DWORD PTR _rectNull$[ebp]
  01f99	52		 push	 edx
  01f9a	68 00 00 00 42	 push	 1107296256		; 42000000H
  01f9f	68 00 00 00 00	 push	 OFFSET FLAT:$SG208521
  01fa4	8b 8d f8 fc ff
	ff		 mov	 ecx, DWORD PTR _this$[ebp]
  01faa	83 c1 18	 add	 ecx, 24			; 00000018H
  01fad	8b 85 f8 fc ff
	ff		 mov	 eax, DWORD PTR _this$[ebp]
  01fb3	8b 50 18	 mov	 edx, DWORD PTR [eax+24]
  01fb6	ff 92 38 01 00
	00		 call	 DWORD PTR [edx+312]

; 318  : 		m_pPanesMgr->RegisterWnd( pszWindowName ,&m_SplitterMid);

  01fbc	8b 85 f8 fc ff
	ff		 mov	 eax, DWORD PTR _this$[ebp]
  01fc2	83 c0 18	 add	 eax, 24			; 00000018H
  01fc5	50		 push	 eax
  01fc6	51		 push	 ecx
  01fc7	8b cc		 mov	 ecx, esp
  01fc9	89 a5 b0 fd ff
	ff		 mov	 DWORD PTR $T211485[ebp], esp
  01fcf	8b 55 08	 mov	 edx, DWORD PTR _pszWindowName$[ebp]
  01fd2	52		 push	 edx
  01fd3	ff 15 00 00 00
	00		 call	 DWORD PTR __imp_??0?$CStringT@DV?$StrTraitMFC_DLL@DV?$ChTraitsCRT@D@ATL@@@@@ATL@@QAE@PBD@Z
  01fd9	89 85 d4 fc ff
	ff		 mov	 DWORD PTR tv646[ebp], eax
  01fdf	8b 85 f8 fc ff
	ff		 mov	 eax, DWORD PTR _this$[ebp]
  01fe5	8b 88 e8 00 00
	00		 mov	 ecx, DWORD PTR [eax+232]
  01feb	8b 95 f8 fc ff
	ff		 mov	 edx, DWORD PTR _this$[ebp]
  01ff1	8b 82 e8 00 00
	00		 mov	 eax, DWORD PTR [edx+232]
  01ff7	8b 10		 mov	 edx, DWORD PTR [eax]
  01ff9	ff 52 1c	 call	 DWORD PTR [edx+28]

; 319  : 
; 320  : 		YL_Log( "createWindow.txt",LOG_NOTICE,"CreateUIWindow","%s",pszWindowName);

  01ffc	68 00 00 00 00	 push	 OFFSET FLAT:$SG208526
  02001	8d 8d 94 fd ff
	ff		 lea	 ecx, DWORD PTR $T211486[ebp]
  02007	ff 15 00 00 00
	00		 call	 DWORD PTR __imp_??0?$basic_string@DU?$char_traits@D@std@@V?$allocator@D@2@@std@@QAE@PBD@Z
  0200d	c7 45 fc 16 00
	00 00		 mov	 DWORD PTR __$EHRec$[ebp+8], 22 ; 00000016H
  02014	68 00 00 00 00	 push	 OFFSET FLAT:$SG208527
  02019	8d 8d 78 fd ff
	ff		 lea	 ecx, DWORD PTR $T211487[ebp]
  0201f	ff 15 00 00 00
	00		 call	 DWORD PTR __imp_??0?$basic_string@DU?$char_traits@D@std@@V?$allocator@D@2@@std@@QAE@PBD@Z
  02025	c6 45 fc 17	 mov	 BYTE PTR __$EHRec$[ebp+8], 23 ; 00000017H
  02029	8b 45 08	 mov	 eax, DWORD PTR _pszWindowName$[ebp]
  0202c	50		 push	 eax
  0202d	68 00 00 00 00	 push	 OFFSET FLAT:$SG208525
  02032	8d 8d 94 fd ff
	ff		 lea	 ecx, DWORD PTR $T211486[ebp]
  02038	51		 push	 ecx
  02039	6a 01		 push	 1
  0203b	8d 95 78 fd ff
	ff		 lea	 edx, DWORD PTR $T211487[ebp]
  02041	52		 push	 edx
  02042	ff 15 00 00 00
	00		 call	 DWORD PTR __imp_?YL_Log@@YAXABV?$basic_string@DU?$char_traits@D@std@@V?$allocator@D@2@@std@@H0PBDZZ
  02048	83 c4 14	 add	 esp, 20			; 00000014H
  0204b	c6 45 fc 16	 mov	 BYTE PTR __$EHRec$[ebp+8], 22 ; 00000016H
  0204f	8d 8d 78 fd ff
	ff		 lea	 ecx, DWORD PTR $T211487[ebp]
  02055	ff 15 00 00 00
	00		 call	 DWORD PTR __imp_??1?$basic_string@DU?$char_traits@D@std@@V?$allocator@D@2@@std@@QAE@XZ
  0205b	c7 45 fc ff ff
	ff ff		 mov	 DWORD PTR __$EHRec$[ebp+8], -1
  02062	8d 8d 94 fd ff
	ff		 lea	 ecx, DWORD PTR $T211486[ebp]
  02068	ff 15 00 00 00
	00		 call	 DWORD PTR __imp_??1?$basic_string@DU?$char_traits@D@std@@V?$allocator@D@2@@std@@QAE@XZ

; 321  : 		return;

  0206e	e9 d0 01 00 00	 jmp	 $L208434
$L208514:

; 322  : 	}
; 323  : 
; 324  : 	else if( strcmp( pszWindowName,"tabpanelparent") == 0 )

  02073	68 00 00 00 00	 push	 OFFSET FLAT:$SG208530
  02078	8b 45 08	 mov	 eax, DWORD PTR _pszWindowName$[ebp]
  0207b	50		 push	 eax
  0207c	e8 00 00 00 00	 call	 _strcmp
  02081	83 c4 08	 add	 esp, 8
  02084	85 c0		 test	 eax, eax
  02086	0f 85 b7 01 00
	00		 jne	 $L208434

; 325  : 	{
; 326  : 		id++;

  0208c	8b 4d f0	 mov	 ecx, DWORD PTR _id$[ebp]
  0208f	83 c1 01	 add	 ecx, 1
  02092	89 4d f0	 mov	 DWORD PTR _id$[ebp], ecx

; 327  : 		YL_Log( "createWindow.txt",LOG_NOTICE,"CreateUIWindow","%s--in",pszWindowName);

  02095	68 00 00 00 00	 push	 OFFSET FLAT:$SG208534
  0209a	8d 8d 5c fd ff
	ff		 lea	 ecx, DWORD PTR $T211488[ebp]
  020a0	ff 15 00 00 00
	00		 call	 DWORD PTR __imp_??0?$basic_string@DU?$char_traits@D@std@@V?$allocator@D@2@@std@@QAE@PBD@Z
  020a6	c7 45 fc 18 00
	00 00		 mov	 DWORD PTR __$EHRec$[ebp+8], 24 ; 00000018H
  020ad	68 00 00 00 00	 push	 OFFSET FLAT:$SG208535
  020b2	8d 8d 40 fd ff
	ff		 lea	 ecx, DWORD PTR $T211489[ebp]
  020b8	ff 15 00 00 00
	00		 call	 DWORD PTR __imp_??0?$basic_string@DU?$char_traits@D@std@@V?$allocator@D@2@@std@@QAE@PBD@Z
  020be	c6 45 fc 19	 mov	 BYTE PTR __$EHRec$[ebp+8], 25 ; 00000019H
  020c2	8b 55 08	 mov	 edx, DWORD PTR _pszWindowName$[ebp]
  020c5	52		 push	 edx
  020c6	68 00 00 00 00	 push	 OFFSET FLAT:$SG208533
  020cb	8d 85 5c fd ff
	ff		 lea	 eax, DWORD PTR $T211488[ebp]
  020d1	50		 push	 eax
  020d2	6a 01		 push	 1
  020d4	8d 8d 40 fd ff
	ff		 lea	 ecx, DWORD PTR $T211489[ebp]
  020da	51		 push	 ecx
  020db	ff 15 00 00 00
	00		 call	 DWORD PTR __imp_?YL_Log@@YAXABV?$basic_string@DU?$char_traits@D@std@@V?$allocator@D@2@@std@@H0PBDZZ
  020e1	83 c4 14	 add	 esp, 20			; 00000014H
  020e4	c6 45 fc 18	 mov	 BYTE PTR __$EHRec$[ebp+8], 24 ; 00000018H
  020e8	8d 8d 40 fd ff
	ff		 lea	 ecx, DWORD PTR $T211489[ebp]
  020ee	ff 15 00 00 00
	00		 call	 DWORD PTR __imp_??1?$basic_string@DU?$char_traits@D@std@@V?$allocator@D@2@@std@@QAE@XZ
  020f4	c7 45 fc ff ff
	ff ff		 mov	 DWORD PTR __$EHRec$[ebp+8], -1
  020fb	8d 8d 5c fd ff
	ff		 lea	 ecx, DWORD PTR $T211488[ebp]
  02101	ff 15 00 00 00
	00		 call	 DWORD PTR __imp_??1?$basic_string@DU?$char_traits@D@std@@V?$allocator@D@2@@std@@QAE@XZ

; 328  : 		m_pWndTabPageParent			= new CTabPageParentWnd();

  02107	6a 58		 push	 88			; 00000058H
  02109	e8 00 00 00 00	 call	 ??2CObject@@SGPAXI@Z	; CObject::operator new
  0210e	89 85 38 fd ff
	ff		 mov	 DWORD PTR $T211491[ebp], eax
  02114	c7 45 fc 1a 00
	00 00		 mov	 DWORD PTR __$EHRec$[ebp+8], 26 ; 0000001aH
  0211b	83 bd 38 fd ff
	ff 00		 cmp	 DWORD PTR $T211491[ebp], 0
  02122	74 13		 je	 SHORT $L211492
  02124	8b 8d 38 fd ff
	ff		 mov	 ecx, DWORD PTR $T211491[ebp]
  0212a	e8 00 00 00 00	 call	 ??0CTabPageParentWnd@@QAE@XZ ; CTabPageParentWnd::CTabPageParentWnd
  0212f	89 85 d0 fc ff
	ff		 mov	 DWORD PTR tv560[ebp], eax
  02135	eb 0a		 jmp	 SHORT $L211493
$L211492:
  02137	c7 85 d0 fc ff
	ff 00 00 00 00	 mov	 DWORD PTR tv560[ebp], 0
$L211493:
  02141	8b 95 d0 fc ff
	ff		 mov	 edx, DWORD PTR tv560[ebp]
  02147	89 95 3c fd ff
	ff		 mov	 DWORD PTR $T211490[ebp], edx
  0214d	c7 45 fc ff ff
	ff ff		 mov	 DWORD PTR __$EHRec$[ebp+8], -1
  02154	8b 85 f8 fc ff
	ff		 mov	 eax, DWORD PTR _this$[ebp]
  0215a	8b 8d 3c fd ff
	ff		 mov	 ecx, DWORD PTR $T211490[ebp]
  02160	89 48 14	 mov	 DWORD PTR [eax+20], ecx

; 329  : 		m_pWndTabPageParent->Create(NULL,NULL,WS_CHILD|WS_CLIPCHILDREN,rectNull,pMainWnd,id );

  02163	6a 00		 push	 0
  02165	8b 55 f0	 mov	 edx, DWORD PTR _id$[ebp]
  02168	52		 push	 edx
  02169	8b 45 dc	 mov	 eax, DWORD PTR _pMainWnd$[ebp]
  0216c	50		 push	 eax
  0216d	8d 4d e0	 lea	 ecx, DWORD PTR _rectNull$[ebp]
  02170	51		 push	 ecx
  02171	68 00 00 00 42	 push	 1107296256		; 42000000H
  02176	6a 00		 push	 0
  02178	6a 00		 push	 0
  0217a	8b 95 f8 fc ff
	ff		 mov	 edx, DWORD PTR _this$[ebp]
  02180	8b 42 14	 mov	 eax, DWORD PTR [edx+20]
  02183	8b 8d f8 fc ff
	ff		 mov	 ecx, DWORD PTR _this$[ebp]
  02189	8b 49 14	 mov	 ecx, DWORD PTR [ecx+20]
  0218c	8b 10		 mov	 edx, DWORD PTR [eax]
  0218e	ff 52 5c	 call	 DWORD PTR [edx+92]

; 330  : 		m_pPanesMgr->RegisterWnd( pszWindowName ,m_pWndTabPageParent);

  02191	8b 85 f8 fc ff
	ff		 mov	 eax, DWORD PTR _this$[ebp]
  02197	8b 48 14	 mov	 ecx, DWORD PTR [eax+20]
  0219a	51		 push	 ecx
  0219b	51		 push	 ecx
  0219c	8b cc		 mov	 ecx, esp
  0219e	89 a5 34 fd ff
	ff		 mov	 DWORD PTR $T211494[ebp], esp
  021a4	8b 55 08	 mov	 edx, DWORD PTR _pszWindowName$[ebp]
  021a7	52		 push	 edx
  021a8	ff 15 00 00 00
	00		 call	 DWORD PTR __imp_??0?$CStringT@DV?$StrTraitMFC_DLL@DV?$ChTraitsCRT@D@ATL@@@@@ATL@@QAE@PBD@Z
  021ae	89 85 cc fc ff
	ff		 mov	 DWORD PTR tv654[ebp], eax
  021b4	8b 85 f8 fc ff
	ff		 mov	 eax, DWORD PTR _this$[ebp]
  021ba	8b 88 e8 00 00
	00		 mov	 ecx, DWORD PTR [eax+232]
  021c0	8b 95 f8 fc ff
	ff		 mov	 edx, DWORD PTR _this$[ebp]
  021c6	8b 82 e8 00 00
	00		 mov	 eax, DWORD PTR [edx+232]
  021cc	8b 10		 mov	 edx, DWORD PTR [eax]
  021ce	ff 52 1c	 call	 DWORD PTR [edx+28]

; 331  : 
; 332  : 		YL_Log( "createWindow.txt",LOG_NOTICE,"CreateUIWindow","%s",pszWindowName);

  021d1	68 00 00 00 00	 push	 OFFSET FLAT:$SG208544
  021d6	8d 8d 18 fd ff
	ff		 lea	 ecx, DWORD PTR $T211495[ebp]
  021dc	ff 15 00 00 00
	00		 call	 DWORD PTR __imp_??0?$basic_string@DU?$char_traits@D@std@@V?$allocator@D@2@@std@@QAE@PBD@Z
  021e2	c7 45 fc 1b 00
	00 00		 mov	 DWORD PTR __$EHRec$[ebp+8], 27 ; 0000001bH
  021e9	68 00 00 00 00	 push	 OFFSET FLAT:$SG208545
  021ee	8d 8d fc fc ff
	ff		 lea	 ecx, DWORD PTR $T211496[ebp]
  021f4	ff 15 00 00 00
	00		 call	 DWORD PTR __imp_??0?$basic_string@DU?$char_traits@D@std@@V?$allocator@D@2@@std@@QAE@PBD@Z
  021fa	c6 45 fc 1c	 mov	 BYTE PTR __$EHRec$[ebp+8], 28 ; 0000001cH
  021fe	8b 45 08	 mov	 eax, DWORD PTR _pszWindowName$[ebp]
  02201	50		 push	 eax
  02202	68 00 00 00 00	 push	 OFFSET FLAT:$SG208543
  02207	8d 8d 18 fd ff
	ff		 lea	 ecx, DWORD PTR $T211495[ebp]
  0220d	51		 push	 ecx
  0220e	6a 01		 push	 1
  02210	8d 95 fc fc ff
	ff		 lea	 edx, DWORD PTR $T211496[ebp]
  02216	52		 push	 edx
  02217	ff 15 00 00 00
	00		 call	 DWORD PTR __imp_?YL_Log@@YAXABV?$basic_string@DU?$char_traits@D@std@@V?$allocator@D@2@@std@@H0PBDZZ
  0221d	83 c4 14	 add	 esp, 20			; 00000014H
  02220	c6 45 fc 1b	 mov	 BYTE PTR __$EHRec$[ebp+8], 27 ; 0000001bH
  02224	8d 8d fc fc ff
	ff		 lea	 ecx, DWORD PTR $T211496[ebp]
  0222a	ff 15 00 00 00
	00		 call	 DWORD PTR __imp_??1?$basic_string@DU?$char_traits@D@std@@V?$allocator@D@2@@std@@QAE@XZ
  02230	c7 45 fc ff ff
	ff ff		 mov	 DWORD PTR __$EHRec$[ebp+8], -1
  02237	8d 8d 18 fd ff
	ff		 lea	 ecx, DWORD PTR $T211495[ebp]
  0223d	ff 15 00 00 00
	00		 call	 DWORD PTR __imp_??1?$basic_string@DU?$char_traits@D@std@@V?$allocator@D@2@@std@@QAE@XZ
$L208434:

; 333  : 		return;
; 334  : 	}
; 335  : }

  02243	8b 4d f4	 mov	 ecx, DWORD PTR __$EHRec$[ebp]
  02246	64 89 0d 00 00
	00 00		 mov	 DWORD PTR fs:__except_list, ecx
  0224d	8b e5		 mov	 esp, ebp
  0224f	5d		 pop	 ebp
  02250	c2 04 00	 ret	 4
_TEXT	ENDS
text$x	SEGMENT
$L211497:
  002a2	8d 4d c0	 lea	 ecx, DWORD PTR $T211447[ebp]
  002a5	ff 25 00 00 00
	00		 jmp	 DWORD PTR __imp_??1?$basic_string@DU?$char_traits@D@std@@V?$allocator@D@2@@std@@QAE@XZ
$L211498:
  002ab	8d 4d a4	 lea	 ecx, DWORD PTR $T211448[ebp]
  002ae	ff 25 00 00 00
	00		 jmp	 DWORD PTR __imp_??1?$basic_string@DU?$char_traits@D@std@@V?$allocator@D@2@@std@@QAE@XZ
$L211499:
  002b4	8b 45 9c	 mov	 eax, DWORD PTR $T211450[ebp]
  002b7	50		 push	 eax
  002b8	e8 00 00 00 00	 call	 ??3CObject@@SGXPAX@Z	; CObject::operator delete
  002bd	c3		 ret	 0
$L211501:
  002be	8d 8d 7c ff ff
	ff		 lea	 ecx, DWORD PTR $T211454[ebp]
  002c4	ff 25 00 00 00
	00		 jmp	 DWORD PTR __imp_??1?$basic_string@DU?$char_traits@D@std@@V?$allocator@D@2@@std@@QAE@XZ
$L211502:
  002ca	8d 8d 60 ff ff
	ff		 lea	 ecx, DWORD PTR $T211455[ebp]
  002d0	ff 25 00 00 00
	00		 jmp	 DWORD PTR __imp_??1?$basic_string@DU?$char_traits@D@std@@V?$allocator@D@2@@std@@QAE@XZ
$L211503:
  002d6	8d 8d 44 ff ff
	ff		 lea	 ecx, DWORD PTR $T211456[ebp]
  002dc	ff 25 00 00 00
	00		 jmp	 DWORD PTR __imp_??1?$basic_string@DU?$char_traits@D@std@@V?$allocator@D@2@@std@@QAE@XZ
$L211504:
  002e2	8d 8d 28 ff ff
	ff		 lea	 ecx, DWORD PTR $T211457[ebp]
  002e8	ff 25 00 00 00
	00		 jmp	 DWORD PTR __imp_??1?$basic_string@DU?$char_traits@D@std@@V?$allocator@D@2@@std@@QAE@XZ
$L211505:
  002ee	8b 85 20 ff ff
	ff		 mov	 eax, DWORD PTR $T211459[ebp]
  002f4	50		 push	 eax
  002f5	e8 00 00 00 00	 call	 ??3CObject@@SGXPAX@Z	; CObject::operator delete
  002fa	c3		 ret	 0
$L211507:
  002fb	8d 8d 00 ff ff
	ff		 lea	 ecx, DWORD PTR $T211463[ebp]
  00301	ff 25 00 00 00
	00		 jmp	 DWORD PTR __imp_??1?$basic_string@DU?$char_traits@D@std@@V?$allocator@D@2@@std@@QAE@XZ
$L211508:
  00307	8d 8d e4 fe ff
	ff		 lea	 ecx, DWORD PTR $T211464[ebp]
  0030d	ff 25 00 00 00
	00		 jmp	 DWORD PTR __imp_??1?$basic_string@DU?$char_traits@D@std@@V?$allocator@D@2@@std@@QAE@XZ
$L211509:
  00313	8d 8d c8 fe ff
	ff		 lea	 ecx, DWORD PTR $T211465[ebp]
  00319	ff 25 00 00 00
	00		 jmp	 DWORD PTR __imp_??1?$basic_string@DU?$char_traits@D@std@@V?$allocator@D@2@@std@@QAE@XZ
$L211510:
  0031f	8d 8d ac fe ff
	ff		 lea	 ecx, DWORD PTR $T211466[ebp]
  00325	ff 25 00 00 00
	00		 jmp	 DWORD PTR __imp_??1?$basic_string@DU?$char_traits@D@std@@V?$allocator@D@2@@std@@QAE@XZ
$L211511:
  0032b	8b 85 a4 fe ff
	ff		 mov	 eax, DWORD PTR $T211468[ebp]
  00331	50		 push	 eax
  00332	e8 00 00 00 00	 call	 ??3CObject@@SGXPAX@Z	; CObject::operator delete
  00337	c3		 ret	 0
$L211513:
  00338	8d 8d 84 fe ff
	ff		 lea	 ecx, DWORD PTR $T211472[ebp]
  0033e	ff 25 00 00 00
	00		 jmp	 DWORD PTR __imp_??1?$basic_string@DU?$char_traits@D@std@@V?$allocator@D@2@@std@@QAE@XZ
$L211514:
  00344	8d 8d 68 fe ff
	ff		 lea	 ecx, DWORD PTR $T211473[ebp]
  0034a	ff 25 00 00 00
	00		 jmp	 DWORD PTR __imp_??1?$basic_string@DU?$char_traits@D@std@@V?$allocator@D@2@@std@@QAE@XZ
$L211515:
  00350	8d 8d 4c fe ff
	ff		 lea	 ecx, DWORD PTR $T211474[ebp]
  00356	ff 25 00 00 00
	00		 jmp	 DWORD PTR __imp_??1?$basic_string@DU?$char_traits@D@std@@V?$allocator@D@2@@std@@QAE@XZ
$L211516:
  0035c	8d 8d 30 fe ff
	ff		 lea	 ecx, DWORD PTR $T211475[ebp]
  00362	ff 25 00 00 00
	00		 jmp	 DWORD PTR __imp_??1?$basic_string@DU?$char_traits@D@std@@V?$allocator@D@2@@std@@QAE@XZ
$L211517:
  00368	8b 85 28 fe ff
	ff		 mov	 eax, DWORD PTR $T211477[ebp]
  0036e	50		 push	 eax
  0036f	e8 00 00 00 00	 call	 ??3CObject@@SGXPAX@Z	; CObject::operator delete
  00374	c3		 ret	 0
$L211519:
  00375	8d 8d 08 fe ff
	ff		 lea	 ecx, DWORD PTR $T211481[ebp]
  0037b	ff 25 00 00 00
	00		 jmp	 DWORD PTR __imp_??1?$basic_string@DU?$char_traits@D@std@@V?$allocator@D@2@@std@@QAE@XZ
$L211520:
  00381	8d 8d ec fd ff
	ff		 lea	 ecx, DWORD PTR $T211482[ebp]
  00387	ff 25 00 00 00
	00		 jmp	 DWORD PTR __imp_??1?$basic_string@DU?$char_traits@D@std@@V?$allocator@D@2@@std@@QAE@XZ
$L211521:
  0038d	8d 8d d0 fd ff
	ff		 lea	 ecx, DWORD PTR $T211483[ebp]
  00393	ff 25 00 00 00
	00		 jmp	 DWORD PTR __imp_??1?$basic_string@DU?$char_traits@D@std@@V?$allocator@D@2@@std@@QAE@XZ
$L211522:
  00399	8d 8d b4 fd ff
	ff		 lea	 ecx, DWORD PTR $T211484[ebp]
  0039f	ff 25 00 00 00
	00		 jmp	 DWORD PTR __imp_??1?$basic_string@DU?$char_traits@D@std@@V?$allocator@D@2@@std@@QAE@XZ
$L211524:
  003a5	8d 8d 94 fd ff
	ff		 lea	 ecx, DWORD PTR $T211486[ebp]
  003ab	ff 25 00 00 00
	00		 jmp	 DWORD PTR __imp_??1?$basic_string@DU?$char_traits@D@std@@V?$allocator@D@2@@std@@QAE@XZ
$L211525:
  003b1	8d 8d 78 fd ff
	ff		 lea	 ecx, DWORD PTR $T211487[ebp]
  003b7	ff 25 00 00 00
	00		 jmp	 DWORD PTR __imp_??1?$basic_string@DU?$char_traits@D@std@@V?$allocator@D@2@@std@@QAE@XZ
$L211526:
  003bd	8d 8d 5c fd ff
	ff		 lea	 ecx, DWORD PTR $T211488[ebp]
  003c3	ff 25 00 00 00
	00		 jmp	 DWORD PTR __imp_??1?$basic_string@DU?$char_traits@D@std@@V?$allocator@D@2@@std@@QAE@XZ
$L211527:
  003c9	8d 8d 40 fd ff
	ff		 lea	 ecx, DWORD PTR $T211489[ebp]
  003cf	ff 25 00 00 00
	00		 jmp	 DWORD PTR __imp_??1?$basic_string@DU?$char_traits@D@std@@V?$allocator@D@2@@std@@QAE@XZ
$L211528:
  003d5	8b 85 38 fd ff
	ff		 mov	 eax, DWORD PTR $T211491[ebp]
  003db	50		 push	 eax
  003dc	e8 00 00 00 00	 call	 ??3CObject@@SGXPAX@Z	; CObject::operator delete
  003e1	c3		 ret	 0
$L211530:
  003e2	8d 8d 18 fd ff
	ff		 lea	 ecx, DWORD PTR $T211495[ebp]
  003e8	ff 25 00 00 00
	00		 jmp	 DWORD PTR __imp_??1?$basic_string@DU?$char_traits@D@std@@V?$allocator@D@2@@std@@QAE@XZ
$L211531:
  003ee	8d 8d fc fc ff
	ff		 lea	 ecx, DWORD PTR $T211496[ebp]
  003f4	ff 25 00 00 00
	00		 jmp	 DWORD PTR __imp_??1?$basic_string@DU?$char_traits@D@std@@V?$allocator@D@2@@std@@QAE@XZ
__ehhandler$?CreateUIWindow@CUIManager@@UAEXPBD@Z:
  003fa	b8 00 00 00 00	 mov	 eax, OFFSET FLAT:$T211533
  003ff	e9 00 00 00 00	 jmp	 ___CxxFrameHandler
text$x	ENDS
?CreateUIWindow@CUIManager@@UAEXPBD@Z ENDP		; CUIManager::CreateUIWindow
; Function compile flags: /Odt
_TEXT	SEGMENT
_this$ = -4						; size = 4
_xPos$ = 8						; size = 4
_yPos$ = 12						; size = 4
?UIOnMove@CUIManager@@UAEXHH@Z PROC NEAR		; CUIManager::UIOnMove
; _this$ = ecx

; 338  : {

  02260	55		 push	 ebp
  02261	8b ec		 mov	 ebp, esp
  02263	51		 push	 ecx
  02264	89 4d fc	 mov	 DWORD PTR _this$[ebp], ecx

; 339  : }

  02267	8b e5		 mov	 esp, ebp
  02269	5d		 pop	 ebp
  0226a	c2 08 00	 ret	 8
?UIOnMove@CUIManager@@UAEXHH@Z ENDP			; CUIManager::UIOnMove
_TEXT	ENDS
PUBLIC	??0?$_Vector_val@KV?$allocator@K@std@@@std@@IAE@V?$allocator@K@1@@Z ; std::_Vector_val<unsigned long,std::allocator<unsigned long> >::_Vector_val<unsigned long,std::allocator<unsigned long> >
PUBLIC	??0?$allocator@K@std@@QAE@XZ			; std::allocator<unsigned long>::allocator<unsigned long>
PUBLIC	?_Buy@?$vector@KV?$allocator@K@std@@@std@@IAE_NI@Z ; std::vector<unsigned long,std::allocator<unsigned long> >::_Buy
; Function compile flags: /Odt
; File d:\program files (x86)\microsoft visual studio .net 2003\vc7\include\vector
;	COMDAT ??0?$vector@KV?$allocator@K@std@@@std@@QAE@XZ
_TEXT	SEGMENT
_this$ = -8						; size = 4
??0?$vector@KV?$allocator@K@std@@@std@@QAE@XZ PROC NEAR	; std::vector<unsigned long,std::allocator<unsigned long> >::vector<unsigned long,std::allocator<unsigned long> >, COMDAT
; _this$ = ecx

; 299  : 		{	// construct empty vector

  00000	55		 push	 ebp
  00001	8b ec		 mov	 ebp, esp
  00003	83 ec 08	 sub	 esp, 8
  00006	89 4d f8	 mov	 DWORD PTR _this$[ebp], ecx
  00009	51		 push	 ecx
  0000a	8b cc		 mov	 ecx, esp
  0000c	e8 00 00 00 00	 call	 ??0?$allocator@K@std@@QAE@XZ ; std::allocator<unsigned long>::allocator<unsigned long>
  00011	8b 4d f8	 mov	 ecx, DWORD PTR _this$[ebp]
  00014	e8 00 00 00 00	 call	 ??0?$_Vector_val@KV?$allocator@K@std@@@std@@IAE@V?$allocator@K@1@@Z ; std::_Vector_val<unsigned long,std::allocator<unsigned long> >::_Vector_val<unsigned long,std::allocator<unsigned long> >

; 300  : 		_Buy(0);

  00019	6a 00		 push	 0
  0001b	8b 4d f8	 mov	 ecx, DWORD PTR _this$[ebp]
  0001e	e8 00 00 00 00	 call	 ?_Buy@?$vector@KV?$allocator@K@std@@@std@@IAE_NI@Z ; std::vector<unsigned long,std::allocator<unsigned long> >::_Buy

; 301  : 		}

  00023	8b 45 f8	 mov	 eax, DWORD PTR _this$[ebp]
  00026	8b e5		 mov	 esp, ebp
  00028	5d		 pop	 ebp
  00029	c3		 ret	 0
??0?$vector@KV?$allocator@K@std@@@std@@QAE@XZ ENDP	; std::vector<unsigned long,std::allocator<unsigned long> >::vector<unsigned long,std::allocator<unsigned long> >
_TEXT	ENDS
PUBLIC	?_Tidy@?$vector@KV?$allocator@K@std@@@std@@IAEXXZ ; std::vector<unsigned long,std::allocator<unsigned long> >::_Tidy
; Function compile flags: /Odt
;	COMDAT ??1?$vector@KV?$allocator@K@std@@@std@@QAE@XZ
_TEXT	SEGMENT
_this$ = -4						; size = 4
??1?$vector@KV?$allocator@K@std@@@std@@QAE@XZ PROC NEAR	; std::vector<unsigned long,std::allocator<unsigned long> >::~vector<unsigned long,std::allocator<unsigned long> >, COMDAT
; _this$ = ecx

; 387  : 		{	// destroy the object

  00000	55		 push	 ebp
  00001	8b ec		 mov	 ebp, esp
  00003	51		 push	 ecx
  00004	89 4d fc	 mov	 DWORD PTR _this$[ebp], ecx

; 388  : 		_Tidy();

  00007	8b 4d fc	 mov	 ecx, DWORD PTR _this$[ebp]
  0000a	e8 00 00 00 00	 call	 ?_Tidy@?$vector@KV?$allocator@K@std@@@std@@IAEXXZ ; std::vector<unsigned long,std::allocator<unsigned long> >::_Tidy

; 389  : 		}

  0000f	8b e5		 mov	 esp, ebp
  00011	5d		 pop	 ebp
  00012	c3		 ret	 0
??1?$vector@KV?$allocator@K@std@@@std@@QAE@XZ ENDP	; std::vector<unsigned long,std::allocator<unsigned long> >::~vector<unsigned long,std::allocator<unsigned long> >
_TEXT	ENDS
PUBLIC	??0iterator@?$vector@KV?$allocator@K@std@@@std@@QAE@PAK@Z ; std::vector<unsigned long,std::allocator<unsigned long> >::iterator::iterator
; Function compile flags: /Odt
;	COMDAT ?begin@?$vector@KV?$allocator@K@std@@@std@@QAE?AViterator@12@XZ
_TEXT	SEGMENT
_this$ = -4						; size = 4
___$ReturnUdt$ = 8					; size = 4
?begin@?$vector@KV?$allocator@K@std@@@std@@QAE?AViterator@12@XZ PROC NEAR ; std::vector<unsigned long,std::allocator<unsigned long> >::begin, COMDAT
; _this$ = ecx

; 462  : 		{	// return iterator for beginning of mutable sequence

  00000	55		 push	 ebp
  00001	8b ec		 mov	 ebp, esp
  00003	51		 push	 ecx
  00004	89 4d fc	 mov	 DWORD PTR _this$[ebp], ecx

; 463  : 		return (iterator(_Myfirst));

  00007	8b 45 fc	 mov	 eax, DWORD PTR _this$[ebp]
  0000a	8b 48 04	 mov	 ecx, DWORD PTR [eax+4]
  0000d	51		 push	 ecx
  0000e	8b 4d 08	 mov	 ecx, DWORD PTR ___$ReturnUdt$[ebp]
  00011	e8 00 00 00 00	 call	 ??0iterator@?$vector@KV?$allocator@K@std@@@std@@QAE@PAK@Z ; std::vector<unsigned long,std::allocator<unsigned long> >::iterator::iterator
  00016	8b 45 08	 mov	 eax, DWORD PTR ___$ReturnUdt$[ebp]

; 464  : 		}

  00019	8b e5		 mov	 esp, ebp
  0001b	5d		 pop	 ebp
  0001c	c2 04 00	 ret	 4
?begin@?$vector@KV?$allocator@K@std@@@std@@QAE?AViterator@12@XZ ENDP ; std::vector<unsigned long,std::allocator<unsigned long> >::begin
; Function compile flags: /Odt
_TEXT	ENDS
;	COMDAT ?end@?$vector@KV?$allocator@K@std@@@std@@QAE?AViterator@12@XZ
_TEXT	SEGMENT
_this$ = -4						; size = 4
___$ReturnUdt$ = 8					; size = 4
?end@?$vector@KV?$allocator@K@std@@@std@@QAE?AViterator@12@XZ PROC NEAR ; std::vector<unsigned long,std::allocator<unsigned long> >::end, COMDAT
; _this$ = ecx

; 472  : 		{	// return iterator for end of mutable sequence

  00000	55		 push	 ebp
  00001	8b ec		 mov	 ebp, esp
  00003	51		 push	 ecx
  00004	89 4d fc	 mov	 DWORD PTR _this$[ebp], ecx

; 473  : 		return (iterator(_Mylast));

  00007	8b 45 fc	 mov	 eax, DWORD PTR _this$[ebp]
  0000a	8b 48 08	 mov	 ecx, DWORD PTR [eax+8]
  0000d	51		 push	 ecx
  0000e	8b 4d 08	 mov	 ecx, DWORD PTR ___$ReturnUdt$[ebp]
  00011	e8 00 00 00 00	 call	 ??0iterator@?$vector@KV?$allocator@K@std@@@std@@QAE@PAK@Z ; std::vector<unsigned long,std::allocator<unsigned long> >::iterator::iterator
  00016	8b 45 08	 mov	 eax, DWORD PTR ___$ReturnUdt$[ebp]

; 474  : 		}

  00019	8b e5		 mov	 esp, ebp
  0001b	5d		 pop	 ebp
  0001c	c2 04 00	 ret	 4
?end@?$vector@KV?$allocator@K@std@@@std@@QAE?AViterator@12@XZ ENDP ; std::vector<unsigned long,std::allocator<unsigned long> >::end
; Function compile flags: /Odt
_TEXT	ENDS
;	COMDAT ?size@?$vector@KV?$allocator@K@std@@@std@@QBEIXZ
_TEXT	SEGMENT
tv70 = -8						; size = 4
_this$ = -4						; size = 4
?size@?$vector@KV?$allocator@K@std@@@std@@QBEIXZ PROC NEAR ; std::vector<unsigned long,std::allocator<unsigned long> >::size, COMDAT
; _this$ = ecx

; 515  : 		{	// return length of sequence

  00000	55		 push	 ebp
  00001	8b ec		 mov	 ebp, esp
  00003	83 ec 08	 sub	 esp, 8
  00006	89 4d fc	 mov	 DWORD PTR _this$[ebp], ecx

; 516  : 		return (_Myfirst == 0 ? 0 : _Mylast - _Myfirst);

  00009	8b 45 fc	 mov	 eax, DWORD PTR _this$[ebp]
  0000c	83 78 04 00	 cmp	 DWORD PTR [eax+4], 0
  00010	75 09		 jne	 SHORT $L211547
  00012	c7 45 f8 00 00
	00 00		 mov	 DWORD PTR tv70[ebp], 0
  00019	eb 12		 jmp	 SHORT $L211548
$L211547:
  0001b	8b 4d fc	 mov	 ecx, DWORD PTR _this$[ebp]
  0001e	8b 55 fc	 mov	 edx, DWORD PTR _this$[ebp]
  00021	8b 41 08	 mov	 eax, DWORD PTR [ecx+8]
  00024	2b 42 04	 sub	 eax, DWORD PTR [edx+4]
  00027	c1 f8 02	 sar	 eax, 2
  0002a	89 45 f8	 mov	 DWORD PTR tv70[ebp], eax
$L211548:
  0002d	8b 45 f8	 mov	 eax, DWORD PTR tv70[ebp]

; 517  : 		}

  00030	8b e5		 mov	 esp, ebp
  00032	5d		 pop	 ebp
  00033	c3		 ret	 0
?size@?$vector@KV?$allocator@K@std@@@std@@QBEIXZ ENDP	; std::vector<unsigned long,std::allocator<unsigned long> >::size
_TEXT	ENDS
PUBLIC	??Hiterator@?$vector@KV?$allocator@K@std@@@std@@QBE?AV012@H@Z ; std::vector<unsigned long,std::allocator<unsigned long> >::iterator::operator+
; Function compile flags: /Odt
;	COMDAT ??A?$vector@KV?$allocator@K@std@@@std@@QAEAAKI@Z
_TEXT	SEGMENT
_this$ = -12						; size = 4
$T211552 = -8						; size = 4
$T211551 = -4						; size = 4
__Pos$ = 8						; size = 4
??A?$vector@KV?$allocator@K@std@@@std@@QAEAAKI@Z PROC NEAR ; std::vector<unsigned long,std::allocator<unsigned long> >::operator[], COMDAT
; _this$ = ecx

; 554  : 		{	// subscript mutable sequence

  00000	55		 push	 ebp
  00001	8b ec		 mov	 ebp, esp
  00003	83 ec 0c	 sub	 esp, 12			; 0000000cH
  00006	89 4d f4	 mov	 DWORD PTR _this$[ebp], ecx

; 555  : 		return (*(begin() + _Pos));

  00009	8b 45 08	 mov	 eax, DWORD PTR __Pos$[ebp]
  0000c	50		 push	 eax
  0000d	8d 4d f8	 lea	 ecx, DWORD PTR $T211552[ebp]
  00010	51		 push	 ecx
  00011	8d 55 fc	 lea	 edx, DWORD PTR $T211551[ebp]
  00014	52		 push	 edx
  00015	8b 4d f4	 mov	 ecx, DWORD PTR _this$[ebp]
  00018	e8 00 00 00 00	 call	 ?begin@?$vector@KV?$allocator@K@std@@@std@@QAE?AViterator@12@XZ ; std::vector<unsigned long,std::allocator<unsigned long> >::begin
  0001d	8b c8		 mov	 ecx, eax
  0001f	e8 00 00 00 00	 call	 ??Hiterator@?$vector@KV?$allocator@K@std@@@std@@QBE?AV012@H@Z ; std::vector<unsigned long,std::allocator<unsigned long> >::iterator::operator+
  00024	8b c8		 mov	 ecx, eax
  00026	e8 00 00 00 00	 call	 ??Diterator@?$vector@KV?$allocator@K@std@@@std@@QBEAAKXZ ; std::vector<unsigned long,std::allocator<unsigned long> >::iterator::operator*

; 556  : 		}

  0002b	8b e5		 mov	 esp, ebp
  0002d	5d		 pop	 ebp
  0002e	c2 04 00	 ret	 4
??A?$vector@KV?$allocator@K@std@@@std@@QAEAAKI@Z ENDP	; std::vector<unsigned long,std::allocator<unsigned long> >::operator[]
_TEXT	ENDS
PUBLIC	?capacity@?$vector@KV?$allocator@K@std@@@std@@QBEIXZ ; std::vector<unsigned long,std::allocator<unsigned long> >::capacity
PUBLIC	?insert@?$vector@KV?$allocator@K@std@@@std@@QAE?AViterator@12@V312@ABK@Z ; std::vector<unsigned long,std::allocator<unsigned long> >::insert
PUBLIC	?_Ufill@?$vector@KV?$allocator@K@std@@@std@@IAEPAKPAKIABK@Z ; std::vector<unsigned long,std::allocator<unsigned long> >::_Ufill
; Function compile flags: /Odt
;	COMDAT ?push_back@?$vector@KV?$allocator@K@std@@@std@@QAEXABK@Z
_TEXT	SEGMENT
_this$ = -12						; size = 4
$T211556 = -8						; size = 4
$T211555 = -4						; size = 4
__Val$ = 8						; size = 4
?push_back@?$vector@KV?$allocator@K@std@@@std@@QAEXABK@Z PROC NEAR ; std::vector<unsigned long,std::allocator<unsigned long> >::push_back, COMDAT
; _this$ = ecx

; 579  : 		{	// insert element at end

  00000	55		 push	 ebp
  00001	8b ec		 mov	 ebp, esp
  00003	83 ec 0c	 sub	 esp, 12			; 0000000cH
  00006	56		 push	 esi
  00007	89 4d f4	 mov	 DWORD PTR _this$[ebp], ecx

; 580  : 		if (size() < capacity())

  0000a	8b 4d f4	 mov	 ecx, DWORD PTR _this$[ebp]
  0000d	e8 00 00 00 00	 call	 ?size@?$vector@KV?$allocator@K@std@@@std@@QBEIXZ ; std::vector<unsigned long,std::allocator<unsigned long> >::size
  00012	8b f0		 mov	 esi, eax
  00014	8b 4d f4	 mov	 ecx, DWORD PTR _this$[ebp]
  00017	e8 00 00 00 00	 call	 ?capacity@?$vector@KV?$allocator@K@std@@@std@@QBEIXZ ; std::vector<unsigned long,std::allocator<unsigned long> >::capacity
  0001c	3b f0		 cmp	 esi, eax
  0001e	73 1d		 jae	 SHORT $L208683

; 581  : 			_Mylast = _Ufill(_Mylast, 1, _Val);

  00020	8b 45 08	 mov	 eax, DWORD PTR __Val$[ebp]
  00023	50		 push	 eax
  00024	6a 01		 push	 1
  00026	8b 4d f4	 mov	 ecx, DWORD PTR _this$[ebp]
  00029	8b 51 08	 mov	 edx, DWORD PTR [ecx+8]
  0002c	52		 push	 edx
  0002d	8b 4d f4	 mov	 ecx, DWORD PTR _this$[ebp]
  00030	e8 00 00 00 00	 call	 ?_Ufill@?$vector@KV?$allocator@K@std@@@std@@IAEPAKPAKIABK@Z ; std::vector<unsigned long,std::allocator<unsigned long> >::_Ufill
  00035	8b 4d f4	 mov	 ecx, DWORD PTR _this$[ebp]
  00038	89 41 08	 mov	 DWORD PTR [ecx+8], eax

; 582  : 		else

  0003b	eb 1f		 jmp	 SHORT $L208682
$L208683:

; 583  : 			insert(end(), _Val);

  0003d	8b 55 08	 mov	 edx, DWORD PTR __Val$[ebp]
  00040	52		 push	 edx
  00041	8d 45 fc	 lea	 eax, DWORD PTR $T211555[ebp]
  00044	50		 push	 eax
  00045	8b 4d f4	 mov	 ecx, DWORD PTR _this$[ebp]
  00048	e8 00 00 00 00	 call	 ?end@?$vector@KV?$allocator@K@std@@@std@@QAE?AViterator@12@XZ ; std::vector<unsigned long,std::allocator<unsigned long> >::end
  0004d	8b 08		 mov	 ecx, DWORD PTR [eax]
  0004f	51		 push	 ecx
  00050	8d 55 f8	 lea	 edx, DWORD PTR $T211556[ebp]
  00053	52		 push	 edx
  00054	8b 4d f4	 mov	 ecx, DWORD PTR _this$[ebp]
  00057	e8 00 00 00 00	 call	 ?insert@?$vector@KV?$allocator@K@std@@@std@@QAE?AViterator@12@V312@ABK@Z ; std::vector<unsigned long,std::allocator<unsigned long> >::insert
$L208682:

; 584  : 		}

  0005c	5e		 pop	 esi
  0005d	8b e5		 mov	 esp, ebp
  0005f	5d		 pop	 ebp
  00060	c2 04 00	 ret	 4
?push_back@?$vector@KV?$allocator@K@std@@@std@@QAEXABK@Z ENDP ; std::vector<unsigned long,std::allocator<unsigned long> >::push_back
_TEXT	ENDS
PUBLIC	??$copy@PAKPAK@std@@YAPAKPAK00@Z		; std::copy<unsigned long *,unsigned long *>
PUBLIC	?_Destroy@?$vector@KV?$allocator@K@std@@@std@@IAEXPAK0@Z ; std::vector<unsigned long,std::allocator<unsigned long> >::_Destroy
; Function compile flags: /Odt
;	COMDAT ?erase@?$vector@KV?$allocator@K@std@@@std@@QAE?AViterator@12@V312@@Z
_TEXT	SEGMENT
_this$ = -4						; size = 4
___$ReturnUdt$ = 8					; size = 4
__Where$ = 12						; size = 4
?erase@?$vector@KV?$allocator@K@std@@@std@@QAE?AViterator@12@V312@@Z PROC NEAR ; std::vector<unsigned long,std::allocator<unsigned long> >::erase, COMDAT
; _this$ = ecx

; 723  : 		{	// erase element at where

  00000	55		 push	 ebp
  00001	8b ec		 mov	 ebp, esp
  00003	51		 push	 ecx
  00004	89 4d fc	 mov	 DWORD PTR _this$[ebp], ecx

; 724  : 		copy(_ITER_BASE(_Where) + 1, _Mylast, _ITER_BASE(_Where));

  00007	8b 45 0c	 mov	 eax, DWORD PTR __Where$[ebp]
  0000a	50		 push	 eax
  0000b	8b 4d fc	 mov	 ecx, DWORD PTR _this$[ebp]
  0000e	8b 51 08	 mov	 edx, DWORD PTR [ecx+8]
  00011	52		 push	 edx
  00012	8b 45 0c	 mov	 eax, DWORD PTR __Where$[ebp]
  00015	83 c0 04	 add	 eax, 4
  00018	50		 push	 eax
  00019	e8 00 00 00 00	 call	 ??$copy@PAKPAK@std@@YAPAKPAK00@Z ; std::copy<unsigned long *,unsigned long *>
  0001e	83 c4 0c	 add	 esp, 12			; 0000000cH

; 725  : 		_Destroy(_Mylast - 1, _Mylast);

  00021	8b 4d fc	 mov	 ecx, DWORD PTR _this$[ebp]
  00024	8b 51 08	 mov	 edx, DWORD PTR [ecx+8]
  00027	52		 push	 edx
  00028	8b 45 fc	 mov	 eax, DWORD PTR _this$[ebp]
  0002b	8b 48 08	 mov	 ecx, DWORD PTR [eax+8]
  0002e	83 e9 04	 sub	 ecx, 4
  00031	51		 push	 ecx
  00032	8b 4d fc	 mov	 ecx, DWORD PTR _this$[ebp]
  00035	e8 00 00 00 00	 call	 ?_Destroy@?$vector@KV?$allocator@K@std@@@std@@IAEXPAK0@Z ; std::vector<unsigned long,std::allocator<unsigned long> >::_Destroy

; 726  : 		--_Mylast;

  0003a	8b 55 fc	 mov	 edx, DWORD PTR _this$[ebp]
  0003d	8b 42 08	 mov	 eax, DWORD PTR [edx+8]
  00040	83 e8 04	 sub	 eax, 4
  00043	8b 4d fc	 mov	 ecx, DWORD PTR _this$[ebp]
  00046	89 41 08	 mov	 DWORD PTR [ecx+8], eax

; 727  : 		return (_Where);

  00049	8b 55 08	 mov	 edx, DWORD PTR ___$ReturnUdt$[ebp]
  0004c	8b 45 0c	 mov	 eax, DWORD PTR __Where$[ebp]
  0004f	89 02		 mov	 DWORD PTR [edx], eax
  00051	8b 45 08	 mov	 eax, DWORD PTR ___$ReturnUdt$[ebp]

; 728  : 		}

  00054	8b e5		 mov	 esp, ebp
  00056	5d		 pop	 ebp
  00057	c2 08 00	 ret	 8
?erase@?$vector@KV?$allocator@K@std@@@std@@QAE?AViterator@12@V312@@Z ENDP ; std::vector<unsigned long,std::allocator<unsigned long> >::erase
_TEXT	ENDS
PUBLIC	??0?$_List_val@PAVIMessageObserver@@V?$allocator@PAVIMessageObserver@@@std@@@std@@IAE@V?$allocator@PAVIMessageObserver@@@1@@Z ; std::_List_val<IMessageObserver *,std::allocator<IMessageObserver *> >::_List_val<IMessageObserver *,std::allocator<IMessageObserver *> >
PUBLIC	?_Buynode@?$list@PAVIMessageObserver@@V?$allocator@PAVIMessageObserver@@@std@@@std@@IAEPAU_Node@?$_List_nod@PAVIMessageObserver@@V?$allocator@PAVIMessageObserver@@@std@@@2@XZ ; std::list<IMessageObserver *,std::allocator<IMessageObserver *> >::_Buynode
PUBLIC	??0?$allocator@PAVIMessageObserver@@@std@@QAE@XZ ; std::allocator<IMessageObserver *>::allocator<IMessageObserver *>
; Function compile flags: /Odt
; File d:\program files (x86)\microsoft visual studio .net 2003\vc7\include\list
;	COMDAT ??0?$list@PAVIMessageObserver@@V?$allocator@PAVIMessageObserver@@@std@@@std@@QAE@XZ
_TEXT	SEGMENT
_this$ = -8						; size = 4
??0?$list@PAVIMessageObserver@@V?$allocator@PAVIMessageObserver@@@std@@@std@@QAE@XZ PROC NEAR ; std::list<IMessageObserver *,std::allocator<IMessageObserver *> >::list<IMessageObserver *,std::allocator<IMessageObserver *> >, COMDAT
; _this$ = ecx

; 280  : 		{	// construct empty list

  00000	55		 push	 ebp
  00001	8b ec		 mov	 ebp, esp
  00003	83 ec 08	 sub	 esp, 8
  00006	89 4d f8	 mov	 DWORD PTR _this$[ebp], ecx
  00009	51		 push	 ecx
  0000a	8b cc		 mov	 ecx, esp
  0000c	e8 00 00 00 00	 call	 ??0?$allocator@PAVIMessageObserver@@@std@@QAE@XZ ; std::allocator<IMessageObserver *>::allocator<IMessageObserver *>
  00011	8b 4d f8	 mov	 ecx, DWORD PTR _this$[ebp]
  00014	e8 00 00 00 00	 call	 ??0?$_List_val@PAVIMessageObserver@@V?$allocator@PAVIMessageObserver@@@std@@@std@@IAE@V?$allocator@PAVIMessageObserver@@@1@@Z ; std::_List_val<IMessageObserver *,std::allocator<IMessageObserver *> >::_List_val<IMessageObserver *,std::allocator<IMessageObserver *> >
  00019	8b 4d f8	 mov	 ecx, DWORD PTR _this$[ebp]
  0001c	e8 00 00 00 00	 call	 ?_Buynode@?$list@PAVIMessageObserver@@V?$allocator@PAVIMessageObserver@@@std@@@std@@IAEPAU_Node@?$_List_nod@PAVIMessageObserver@@V?$allocator@PAVIMessageObserver@@@std@@@2@XZ ; std::list<IMessageObserver *,std::allocator<IMessageObserver *> >::_Buynode
  00021	8b 4d f8	 mov	 ecx, DWORD PTR _this$[ebp]
  00024	89 41 04	 mov	 DWORD PTR [ecx+4], eax
  00027	8b 55 f8	 mov	 edx, DWORD PTR _this$[ebp]
  0002a	c7 42 08 00 00
	00 00		 mov	 DWORD PTR [edx+8], 0

; 281  : 		}

  00031	8b 45 f8	 mov	 eax, DWORD PTR _this$[ebp]
  00034	8b e5		 mov	 esp, ebp
  00036	5d		 pop	 ebp
  00037	c3		 ret	 0
??0?$list@PAVIMessageObserver@@V?$allocator@PAVIMessageObserver@@@std@@@std@@QAE@XZ ENDP ; std::list<IMessageObserver *,std::allocator<IMessageObserver *> >::list<IMessageObserver *,std::allocator<IMessageObserver *> >
_TEXT	ENDS
PUBLIC	?_Tidy@?$list@PAVIMessageObserver@@V?$allocator@PAVIMessageObserver@@@std@@@std@@IAEXXZ ; std::list<IMessageObserver *,std::allocator<IMessageObserver *> >::_Tidy
; Function compile flags: /Odt
;	COMDAT ??1?$list@PAVIMessageObserver@@V?$allocator@PAVIMessageObserver@@@std@@@std@@QAE@XZ
_TEXT	SEGMENT
_this$ = -4						; size = 4
??1?$list@PAVIMessageObserver@@V?$allocator@PAVIMessageObserver@@@std@@@std@@QAE@XZ PROC NEAR ; std::list<IMessageObserver *,std::allocator<IMessageObserver *> >::~list<IMessageObserver *,std::allocator<IMessageObserver *> >, COMDAT
; _this$ = ecx

; 364  : 		{	// destroy the object

  00000	55		 push	 ebp
  00001	8b ec		 mov	 ebp, esp
  00003	51		 push	 ecx
  00004	89 4d fc	 mov	 DWORD PTR _this$[ebp], ecx

; 365  : 		_Tidy();

  00007	8b 4d fc	 mov	 ecx, DWORD PTR _this$[ebp]
  0000a	e8 00 00 00 00	 call	 ?_Tidy@?$list@PAVIMessageObserver@@V?$allocator@PAVIMessageObserver@@@std@@@std@@IAEXXZ ; std::list<IMessageObserver *,std::allocator<IMessageObserver *> >::_Tidy

; 366  : 		}

  0000f	8b e5		 mov	 esp, ebp
  00011	5d		 pop	 ebp
  00012	c3		 ret	 0
??1?$list@PAVIMessageObserver@@V?$allocator@PAVIMessageObserver@@@std@@@std@@QAE@XZ ENDP ; std::list<IMessageObserver *,std::allocator<IMessageObserver *> >::~list<IMessageObserver *,std::allocator<IMessageObserver *> >
_TEXT	ENDS
PUBLIC	?_Nextnode@?$list@PAVIMessageObserver@@V?$allocator@PAVIMessageObserver@@@std@@@std@@KAAAPAU_Node@?$_List_nod@PAVIMessageObserver@@V?$allocator@PAVIMessageObserver@@@std@@@2@PAU342@@Z ; std::list<IMessageObserver *,std::allocator<IMessageObserver *> >::_Nextnode
PUBLIC	??0iterator@?$list@PAVIMessageObserver@@V?$allocator@PAVIMessageObserver@@@std@@@std@@QAE@PAU_Node@?$_List_nod@PAVIMessageObserver@@V?$allocator@PAVIMessageObserver@@@std@@@2@@Z ; std::list<IMessageObserver *,std::allocator<IMessageObserver *> >::iterator::iterator
; Function compile flags: /Odt
;	COMDAT ?begin@?$list@PAVIMessageObserver@@V?$allocator@PAVIMessageObserver@@@std@@@std@@QAE?AViterator@12@XZ
_TEXT	SEGMENT
_this$ = -4						; size = 4
___$ReturnUdt$ = 8					; size = 4
?begin@?$list@PAVIMessageObserver@@V?$allocator@PAVIMessageObserver@@@std@@@std@@QAE?AViterator@12@XZ PROC NEAR ; std::list<IMessageObserver *,std::allocator<IMessageObserver *> >::begin, COMDAT
; _this$ = ecx

; 376  : 		{	// return iterator for beginning of mutable sequence

  00000	55		 push	 ebp
  00001	8b ec		 mov	 ebp, esp
  00003	51		 push	 ecx
  00004	89 4d fc	 mov	 DWORD PTR _this$[ebp], ecx

; 377  : 		return (iterator(_Nextnode(_Myhead)));

  00007	8b 45 fc	 mov	 eax, DWORD PTR _this$[ebp]
  0000a	8b 48 04	 mov	 ecx, DWORD PTR [eax+4]
  0000d	51		 push	 ecx
  0000e	e8 00 00 00 00	 call	 ?_Nextnode@?$list@PAVIMessageObserver@@V?$allocator@PAVIMessageObserver@@@std@@@std@@KAAAPAU_Node@?$_List_nod@PAVIMessageObserver@@V?$allocator@PAVIMessageObserver@@@std@@@2@PAU342@@Z ; std::list<IMessageObserver *,std::allocator<IMessageObserver *> >::_Nextnode
  00013	83 c4 04	 add	 esp, 4
  00016	8b 10		 mov	 edx, DWORD PTR [eax]
  00018	52		 push	 edx
  00019	8b 4d 08	 mov	 ecx, DWORD PTR ___$ReturnUdt$[ebp]
  0001c	e8 00 00 00 00	 call	 ??0iterator@?$list@PAVIMessageObserver@@V?$allocator@PAVIMessageObserver@@@std@@@std@@QAE@PAU_Node@?$_List_nod@PAVIMessageObserver@@V?$allocator@PAVIMessageObserver@@@std@@@2@@Z ; std::list<IMessageObserver *,std::allocator<IMessageObserver *> >::iterator::iterator
  00021	8b 45 08	 mov	 eax, DWORD PTR ___$ReturnUdt$[ebp]

; 378  : 		}

  00024	8b e5		 mov	 esp, ebp
  00026	5d		 pop	 ebp
  00027	c2 04 00	 ret	 4
?begin@?$list@PAVIMessageObserver@@V?$allocator@PAVIMessageObserver@@@std@@@std@@QAE?AViterator@12@XZ ENDP ; std::list<IMessageObserver *,std::allocator<IMessageObserver *> >::begin
; Function compile flags: /Odt
_TEXT	ENDS
;	COMDAT ?end@?$list@PAVIMessageObserver@@V?$allocator@PAVIMessageObserver@@@std@@@std@@QAE?AViterator@12@XZ
_TEXT	SEGMENT
_this$ = -4						; size = 4
___$ReturnUdt$ = 8					; size = 4
?end@?$list@PAVIMessageObserver@@V?$allocator@PAVIMessageObserver@@@std@@@std@@QAE?AViterator@12@XZ PROC NEAR ; std::list<IMessageObserver *,std::allocator<IMessageObserver *> >::end, COMDAT
; _this$ = ecx

; 386  : 		{	// return iterator for end of mutable sequence

  00000	55		 push	 ebp
  00001	8b ec		 mov	 ebp, esp
  00003	51		 push	 ecx
  00004	89 4d fc	 mov	 DWORD PTR _this$[ebp], ecx

; 387  : 		return (iterator(_Myhead));

  00007	8b 45 fc	 mov	 eax, DWORD PTR _this$[ebp]
  0000a	8b 48 04	 mov	 ecx, DWORD PTR [eax+4]
  0000d	51		 push	 ecx
  0000e	8b 4d 08	 mov	 ecx, DWORD PTR ___$ReturnUdt$[ebp]
  00011	e8 00 00 00 00	 call	 ??0iterator@?$list@PAVIMessageObserver@@V?$allocator@PAVIMessageObserver@@@std@@@std@@QAE@PAU_Node@?$_List_nod@PAVIMessageObserver@@V?$allocator@PAVIMessageObserver@@@std@@@2@@Z ; std::list<IMessageObserver *,std::allocator<IMessageObserver *> >::iterator::iterator
  00016	8b 45 08	 mov	 eax, DWORD PTR ___$ReturnUdt$[ebp]

; 388  : 		}

  00019	8b e5		 mov	 esp, ebp
  0001b	5d		 pop	 ebp
  0001c	c2 04 00	 ret	 4
?end@?$list@PAVIMessageObserver@@V?$allocator@PAVIMessageObserver@@@std@@@std@@QAE?AViterator@12@XZ ENDP ; std::list<IMessageObserver *,std::allocator<IMessageObserver *> >::end
_TEXT	ENDS
PUBLIC	??Dconst_iterator@?$list@PAVIMessageObserver@@V?$allocator@PAVIMessageObserver@@@std@@@std@@QBEABQAVIMessageObserver@@XZ ; std::list<IMessageObserver *,std::allocator<IMessageObserver *> >::const_iterator::operator*
; Function compile flags: /Odt
;	COMDAT ??Diterator@?$list@PAVIMessageObserver@@V?$allocator@PAVIMessageObserver@@@std@@@std@@QBEAAPAVIMessageObserver@@XZ
_TEXT	SEGMENT
_this$ = -4						; size = 4
??Diterator@?$list@PAVIMessageObserver@@V?$allocator@PAVIMessageObserver@@@std@@@std@@QBEAAPAVIMessageObserver@@XZ PROC NEAR ; std::list<IMessageObserver *,std::allocator<IMessageObserver *> >::iterator::operator*, COMDAT
; _this$ = ecx

; 239  : 			{	// return designated value

  00000	55		 push	 ebp
  00001	8b ec		 mov	 ebp, esp
  00003	51		 push	 ecx
  00004	89 4d fc	 mov	 DWORD PTR _this$[ebp], ecx

; 240  : 			return ((reference)**(const_iterator *)this);

  00007	8b 4d fc	 mov	 ecx, DWORD PTR _this$[ebp]
  0000a	e8 00 00 00 00	 call	 ??Dconst_iterator@?$list@PAVIMessageObserver@@V?$allocator@PAVIMessageObserver@@@std@@@std@@QBEABQAVIMessageObserver@@XZ ; std::list<IMessageObserver *,std::allocator<IMessageObserver *> >::const_iterator::operator*

; 241  : 			}

  0000f	8b e5		 mov	 esp, ebp
  00011	5d		 pop	 ebp
  00012	c3		 ret	 0
??Diterator@?$list@PAVIMessageObserver@@V?$allocator@PAVIMessageObserver@@@std@@@std@@QBEAAPAVIMessageObserver@@XZ ENDP ; std::list<IMessageObserver *,std::allocator<IMessageObserver *> >::iterator::operator*
_TEXT	ENDS
PUBLIC	??Eiterator@?$list@PAVIMessageObserver@@V?$allocator@PAVIMessageObserver@@@std@@@std@@QAEAAV012@XZ ; std::list<IMessageObserver *,std::allocator<IMessageObserver *> >::iterator::operator++
; Function compile flags: /Odt
;	COMDAT ??Eiterator@?$list@PAVIMessageObserver@@V?$allocator@PAVIMessageObserver@@@std@@@std@@QAE?AV012@H@Z
_TEXT	SEGMENT
_this$ = -8						; size = 4
__Tmp$ = -4						; size = 4
___$ReturnUdt$ = 8					; size = 4
___formal$ = 12						; size = 4
??Eiterator@?$list@PAVIMessageObserver@@V?$allocator@PAVIMessageObserver@@@std@@@std@@QAE?AV012@H@Z PROC NEAR ; std::list<IMessageObserver *,std::allocator<IMessageObserver *> >::iterator::operator++, COMDAT
; _this$ = ecx

; 255  : 			{	// postincrement

  00000	55		 push	 ebp
  00001	8b ec		 mov	 ebp, esp
  00003	83 ec 08	 sub	 esp, 8
  00006	89 4d f8	 mov	 DWORD PTR _this$[ebp], ecx

; 256  : 			iterator _Tmp = *this;

  00009	8b 45 f8	 mov	 eax, DWORD PTR _this$[ebp]
  0000c	8b 08		 mov	 ecx, DWORD PTR [eax]
  0000e	89 4d fc	 mov	 DWORD PTR __Tmp$[ebp], ecx

; 257  : 			++*this;

  00011	8b 4d f8	 mov	 ecx, DWORD PTR _this$[ebp]
  00014	e8 00 00 00 00	 call	 ??Eiterator@?$list@PAVIMessageObserver@@V?$allocator@PAVIMessageObserver@@@std@@@std@@QAEAAV012@XZ ; std::list<IMessageObserver *,std::allocator<IMessageObserver *> >::iterator::operator++

; 258  : 			return (_Tmp);

  00019	8b 55 08	 mov	 edx, DWORD PTR ___$ReturnUdt$[ebp]
  0001c	8b 45 fc	 mov	 eax, DWORD PTR __Tmp$[ebp]
  0001f	89 02		 mov	 DWORD PTR [edx], eax
  00021	8b 45 08	 mov	 eax, DWORD PTR ___$ReturnUdt$[ebp]

; 259  : 			}

  00024	8b e5		 mov	 esp, ebp
  00026	5d		 pop	 ebp
  00027	c2 08 00	 ret	 8
??Eiterator@?$list@PAVIMessageObserver@@V?$allocator@PAVIMessageObserver@@@std@@@std@@QAE?AV012@H@Z ENDP ; std::list<IMessageObserver *,std::allocator<IMessageObserver *> >::iterator::operator++
_TEXT	ENDS
PUBLIC	??8const_iterator@?$list@PAVIMessageObserver@@V?$allocator@PAVIMessageObserver@@@std@@@std@@QBE_NABV012@@Z ; std::list<IMessageObserver *,std::allocator<IMessageObserver *> >::const_iterator::operator==
; Function compile flags: /Odt
;	COMDAT ??9const_iterator@?$list@PAVIMessageObserver@@V?$allocator@PAVIMessageObserver@@@std@@@std@@QBE_NABV012@@Z
_TEXT	SEGMENT
_this$ = -4						; size = 4
__Right$ = 8						; size = 4
??9const_iterator@?$list@PAVIMessageObserver@@V?$allocator@PAVIMessageObserver@@@std@@@std@@QBE_NABV012@@Z PROC NEAR ; std::list<IMessageObserver *,std::allocator<IMessageObserver *> >::const_iterator::operator!=, COMDAT
; _this$ = ecx

; 201  : 			{	// test for iterator inequality

  00000	55		 push	 ebp
  00001	8b ec		 mov	 ebp, esp
  00003	51		 push	 ecx
  00004	89 4d fc	 mov	 DWORD PTR _this$[ebp], ecx

; 202  : 			return (!(*this == _Right));

  00007	8b 45 08	 mov	 eax, DWORD PTR __Right$[ebp]
  0000a	50		 push	 eax
  0000b	8b 4d fc	 mov	 ecx, DWORD PTR _this$[ebp]
  0000e	e8 00 00 00 00	 call	 ??8const_iterator@?$list@PAVIMessageObserver@@V?$allocator@PAVIMessageObserver@@@std@@@std@@QBE_NABV012@@Z ; std::list<IMessageObserver *,std::allocator<IMessageObserver *> >::const_iterator::operator==
  00013	0f b6 c0	 movzx	 eax, al
  00016	f7 d8		 neg	 eax
  00018	1b c0		 sbb	 eax, eax
  0001a	40		 inc	 eax

; 203  : 			}

  0001b	8b e5		 mov	 esp, ebp
  0001d	5d		 pop	 ebp
  0001e	c2 04 00	 ret	 4
??9const_iterator@?$list@PAVIMessageObserver@@V?$allocator@PAVIMessageObserver@@@std@@@std@@QBE_NABV012@@Z ENDP ; std::list<IMessageObserver *,std::allocator<IMessageObserver *> >::const_iterator::operator!=
_TEXT	ENDS
PUBLIC	??Dconst_iterator@?$vector@KV?$allocator@K@std@@@std@@QBEABKXZ ; std::vector<unsigned long,std::allocator<unsigned long> >::const_iterator::operator*
; Function compile flags: /Odt
; File d:\program files (x86)\microsoft visual studio .net 2003\vc7\include\vector
;	COMDAT ??Diterator@?$vector@KV?$allocator@K@std@@@std@@QBEAAKXZ
_TEXT	SEGMENT
_this$ = -4						; size = 4
??Diterator@?$vector@KV?$allocator@K@std@@@std@@QBEAAKXZ PROC NEAR ; std::vector<unsigned long,std::allocator<unsigned long> >::iterator::operator*, COMDAT
; _this$ = ecx

; 219  : 			{	// return designated object

  00000	55		 push	 ebp
  00001	8b ec		 mov	 ebp, esp
  00003	51		 push	 ecx
  00004	89 4d fc	 mov	 DWORD PTR _this$[ebp], ecx

; 220  : 			return ((reference)**(const_iterator *)this);

  00007	8b 4d fc	 mov	 ecx, DWORD PTR _this$[ebp]
  0000a	e8 00 00 00 00	 call	 ??Dconst_iterator@?$vector@KV?$allocator@K@std@@@std@@QBEABKXZ ; std::vector<unsigned long,std::allocator<unsigned long> >::const_iterator::operator*

; 221  : 			}

  0000f	8b e5		 mov	 esp, ebp
  00011	5d		 pop	 ebp
  00012	c3		 ret	 0
??Diterator@?$vector@KV?$allocator@K@std@@@std@@QBEAAKXZ ENDP ; std::vector<unsigned long,std::allocator<unsigned long> >::iterator::operator*
_TEXT	ENDS
PUBLIC	??Eiterator@?$vector@KV?$allocator@K@std@@@std@@QAEAAV012@XZ ; std::vector<unsigned long,std::allocator<unsigned long> >::iterator::operator++
; Function compile flags: /Odt
;	COMDAT ??Eiterator@?$vector@KV?$allocator@K@std@@@std@@QAE?AV012@H@Z
_TEXT	SEGMENT
_this$ = -8						; size = 4
__Tmp$ = -4						; size = 4
___$ReturnUdt$ = 8					; size = 4
___formal$ = 12						; size = 4
??Eiterator@?$vector@KV?$allocator@K@std@@@std@@QAE?AV012@H@Z PROC NEAR ; std::vector<unsigned long,std::allocator<unsigned long> >::iterator::operator++, COMDAT
; _this$ = ecx

; 235  : 			{	// postincrement

  00000	55		 push	 ebp
  00001	8b ec		 mov	 ebp, esp
  00003	83 ec 08	 sub	 esp, 8
  00006	89 4d f8	 mov	 DWORD PTR _this$[ebp], ecx

; 236  : 			iterator _Tmp = *this;

  00009	8b 45 f8	 mov	 eax, DWORD PTR _this$[ebp]
  0000c	8b 08		 mov	 ecx, DWORD PTR [eax]
  0000e	89 4d fc	 mov	 DWORD PTR __Tmp$[ebp], ecx

; 237  : 			++*this;

  00011	8b 4d f8	 mov	 ecx, DWORD PTR _this$[ebp]
  00014	e8 00 00 00 00	 call	 ??Eiterator@?$vector@KV?$allocator@K@std@@@std@@QAEAAV012@XZ ; std::vector<unsigned long,std::allocator<unsigned long> >::iterator::operator++

; 238  : 			return (_Tmp);

  00019	8b 55 08	 mov	 edx, DWORD PTR ___$ReturnUdt$[ebp]
  0001c	8b 45 fc	 mov	 eax, DWORD PTR __Tmp$[ebp]
  0001f	89 02		 mov	 DWORD PTR [edx], eax
  00021	8b 45 08	 mov	 eax, DWORD PTR ___$ReturnUdt$[ebp]

; 239  : 			}

  00024	8b e5		 mov	 esp, ebp
  00026	5d		 pop	 ebp
  00027	c2 08 00	 ret	 8
??Eiterator@?$vector@KV?$allocator@K@std@@@std@@QAE?AV012@H@Z ENDP ; std::vector<unsigned long,std::allocator<unsigned long> >::iterator::operator++
_TEXT	ENDS
PUBLIC	??8const_iterator@?$vector@KV?$allocator@K@std@@@std@@QBE_NABV012@@Z ; std::vector<unsigned long,std::allocator<unsigned long> >::const_iterator::operator==
; Function compile flags: /Odt
;	COMDAT ??9const_iterator@?$vector@KV?$allocator@K@std@@@std@@QBE_NABV012@@Z
_TEXT	SEGMENT
_this$ = -4						; size = 4
__Right$ = 8						; size = 4
??9const_iterator@?$vector@KV?$allocator@K@std@@@std@@QBE_NABV012@@Z PROC NEAR ; std::vector<unsigned long,std::allocator<unsigned long> >::const_iterator::operator!=, COMDAT
; _this$ = ecx

; 159  : 			{	// test for iterator inequality

  00000	55		 push	 ebp
  00001	8b ec		 mov	 ebp, esp
  00003	51		 push	 ecx
  00004	89 4d fc	 mov	 DWORD PTR _this$[ebp], ecx

; 160  : 			return (!(*this == _Right));

  00007	8b 45 08	 mov	 eax, DWORD PTR __Right$[ebp]
  0000a	50		 push	 eax
  0000b	8b 4d fc	 mov	 ecx, DWORD PTR _this$[ebp]
  0000e	e8 00 00 00 00	 call	 ??8const_iterator@?$vector@KV?$allocator@K@std@@@std@@QBE_NABV012@@Z ; std::vector<unsigned long,std::allocator<unsigned long> >::const_iterator::operator==
  00013	0f b6 c0	 movzx	 eax, al
  00016	f7 d8		 neg	 eax
  00018	1b c0		 sbb	 eax, eax
  0001a	40		 inc	 eax

; 161  : 			}

  0001b	8b e5		 mov	 esp, ebp
  0001d	5d		 pop	 ebp
  0001e	c2 04 00	 ret	 4
??9const_iterator@?$vector@KV?$allocator@K@std@@@std@@QBE_NABV012@@Z ENDP ; std::vector<unsigned long,std::allocator<unsigned long> >::const_iterator::operator!=
; Function compile flags: /Odt
; File d:\program files (x86)\microsoft visual studio .net 2003\vc7\atlmfc\include\atltypes.inl
_TEXT	ENDS
;	COMDAT ??0CRect@@QAE@HHHH@Z
_TEXT	SEGMENT
_this$ = -4						; size = 4
_l$ = 8							; size = 4
_t$ = 12						; size = 4
_r$ = 16						; size = 4
_b$ = 20						; size = 4
??0CRect@@QAE@HHHH@Z PROC NEAR				; CRect::CRect, COMDAT
; _this$ = ecx

; 112  : 	{ left = l; top = t; right = r; bottom = b; }

  00000	55		 push	 ebp
  00001	8b ec		 mov	 ebp, esp
  00003	51		 push	 ecx
  00004	89 4d fc	 mov	 DWORD PTR _this$[ebp], ecx
  00007	8b 45 fc	 mov	 eax, DWORD PTR _this$[ebp]
  0000a	8b 4d 08	 mov	 ecx, DWORD PTR _l$[ebp]
  0000d	89 08		 mov	 DWORD PTR [eax], ecx
  0000f	8b 55 fc	 mov	 edx, DWORD PTR _this$[ebp]
  00012	8b 45 0c	 mov	 eax, DWORD PTR _t$[ebp]
  00015	89 42 04	 mov	 DWORD PTR [edx+4], eax
  00018	8b 4d fc	 mov	 ecx, DWORD PTR _this$[ebp]
  0001b	8b 55 10	 mov	 edx, DWORD PTR _r$[ebp]
  0001e	89 51 08	 mov	 DWORD PTR [ecx+8], edx
  00021	8b 45 fc	 mov	 eax, DWORD PTR _this$[ebp]
  00024	8b 4d 14	 mov	 ecx, DWORD PTR _b$[ebp]
  00027	89 48 0c	 mov	 DWORD PTR [eax+12], ecx
  0002a	8b 45 fc	 mov	 eax, DWORD PTR _this$[ebp]
  0002d	8b e5		 mov	 esp, ebp
  0002f	5d		 pop	 ebp
  00030	c2 10 00	 ret	 16			; 00000010H
??0CRect@@QAE@HHHH@Z ENDP				; CRect::CRect
; Function compile flags: /Odt
; File d:\program files (x86)\microsoft visual studio .net 2003\vc7\include\vector
_TEXT	ENDS
;	COMDAT ?capacity@?$vector@KV?$allocator@K@std@@@std@@QBEIXZ
_TEXT	SEGMENT
tv70 = -8						; size = 4
_this$ = -4						; size = 4
?capacity@?$vector@KV?$allocator@K@std@@@std@@QBEIXZ PROC NEAR ; std::vector<unsigned long,std::allocator<unsigned long> >::capacity, COMDAT
; _this$ = ecx

; 457  : 		{	// return current length of allocated storage

  00000	55		 push	 ebp
  00001	8b ec		 mov	 ebp, esp
  00003	83 ec 08	 sub	 esp, 8
  00006	89 4d fc	 mov	 DWORD PTR _this$[ebp], ecx

; 458  : 		return (_Myfirst == 0 ? 0 : _Myend - _Myfirst);

  00009	8b 45 fc	 mov	 eax, DWORD PTR _this$[ebp]
  0000c	83 78 04 00	 cmp	 DWORD PTR [eax+4], 0
  00010	75 09		 jne	 SHORT $L211584
  00012	c7 45 f8 00 00
	00 00		 mov	 DWORD PTR tv70[ebp], 0
  00019	eb 12		 jmp	 SHORT $L211585
$L211584:
  0001b	8b 4d fc	 mov	 ecx, DWORD PTR _this$[ebp]
  0001e	8b 55 fc	 mov	 edx, DWORD PTR _this$[ebp]
  00021	8b 41 0c	 mov	 eax, DWORD PTR [ecx+12]
  00024	2b 42 04	 sub	 eax, DWORD PTR [edx+4]
  00027	c1 f8 02	 sar	 eax, 2
  0002a	89 45 f8	 mov	 DWORD PTR tv70[ebp], eax
$L211585:
  0002d	8b 45 f8	 mov	 eax, DWORD PTR tv70[ebp]

; 459  : 		}

  00030	8b e5		 mov	 esp, ebp
  00032	5d		 pop	 ebp
  00033	c3		 ret	 0
?capacity@?$vector@KV?$allocator@K@std@@@std@@QBEIXZ ENDP ; std::vector<unsigned long,std::allocator<unsigned long> >::capacity
_TEXT	ENDS
PUBLIC	??Giterator@?$vector@KV?$allocator@K@std@@@std@@QBEHABVconst_iterator@12@@Z ; std::vector<unsigned long,std::allocator<unsigned long> >::iterator::operator-
PUBLIC	?_Insert_n@?$vector@KV?$allocator@K@std@@@std@@IAEXViterator@12@IABK@Z ; std::vector<unsigned long,std::allocator<unsigned long> >::_Insert_n
; Function compile flags: /Odt
;	COMDAT ?insert@?$vector@KV?$allocator@K@std@@@std@@QAE?AViterator@12@V312@ABK@Z
_TEXT	SEGMENT
tv73 = -20						; size = 4
_this$ = -16						; size = 4
$T211591 = -12						; size = 4
$T211588 = -8						; size = 4
__Off$ = -4						; size = 4
___$ReturnUdt$ = 8					; size = 4
__Where$ = 12						; size = 4
__Val$ = 16						; size = 4
?insert@?$vector@KV?$allocator@K@std@@@std@@QAE?AViterator@12@V312@ABK@Z PROC NEAR ; std::vector<unsigned long,std::allocator<unsigned long> >::insert, COMDAT
; _this$ = ecx

; 620  : 		{	// insert _Val at _Where

  00000	55		 push	 ebp
  00001	8b ec		 mov	 ebp, esp
  00003	83 ec 14	 sub	 esp, 20			; 00000014H
  00006	89 4d f0	 mov	 DWORD PTR _this$[ebp], ecx

; 621  : 		size_type _Off = size() == 0 ? 0 : _Where - begin();

  00009	8b 4d f0	 mov	 ecx, DWORD PTR _this$[ebp]
  0000c	e8 00 00 00 00	 call	 ?size@?$vector@KV?$allocator@K@std@@@std@@QBEIXZ ; std::vector<unsigned long,std::allocator<unsigned long> >::size
  00011	85 c0		 test	 eax, eax
  00013	75 09		 jne	 SHORT $L211589
  00015	c7 45 ec 00 00
	00 00		 mov	 DWORD PTR tv73[ebp], 0
  0001c	eb 18		 jmp	 SHORT $L211590
$L211589:
  0001e	8d 45 f8	 lea	 eax, DWORD PTR $T211588[ebp]
  00021	50		 push	 eax
  00022	8b 4d f0	 mov	 ecx, DWORD PTR _this$[ebp]
  00025	e8 00 00 00 00	 call	 ?begin@?$vector@KV?$allocator@K@std@@@std@@QAE?AViterator@12@XZ ; std::vector<unsigned long,std::allocator<unsigned long> >::begin
  0002a	50		 push	 eax
  0002b	8d 4d 0c	 lea	 ecx, DWORD PTR __Where$[ebp]
  0002e	e8 00 00 00 00	 call	 ??Giterator@?$vector@KV?$allocator@K@std@@@std@@QBEHABVconst_iterator@12@@Z ; std::vector<unsigned long,std::allocator<unsigned long> >::iterator::operator-
  00033	89 45 ec	 mov	 DWORD PTR tv73[ebp], eax
$L211590:
  00036	8b 4d ec	 mov	 ecx, DWORD PTR tv73[ebp]
  00039	89 4d fc	 mov	 DWORD PTR __Off$[ebp], ecx

; 622  : 		_Insert_n(_Where, (size_type)1, _Val);

  0003c	8b 55 10	 mov	 edx, DWORD PTR __Val$[ebp]
  0003f	52		 push	 edx
  00040	6a 01		 push	 1
  00042	8b 45 0c	 mov	 eax, DWORD PTR __Where$[ebp]
  00045	50		 push	 eax
  00046	8b 4d f0	 mov	 ecx, DWORD PTR _this$[ebp]
  00049	e8 00 00 00 00	 call	 ?_Insert_n@?$vector@KV?$allocator@K@std@@@std@@IAEXViterator@12@IABK@Z ; std::vector<unsigned long,std::allocator<unsigned long> >::_Insert_n

; 623  : 		return (begin() + _Off);

  0004e	8b 4d fc	 mov	 ecx, DWORD PTR __Off$[ebp]
  00051	51		 push	 ecx
  00052	8b 55 08	 mov	 edx, DWORD PTR ___$ReturnUdt$[ebp]
  00055	52		 push	 edx
  00056	8d 45 f4	 lea	 eax, DWORD PTR $T211591[ebp]
  00059	50		 push	 eax
  0005a	8b 4d f0	 mov	 ecx, DWORD PTR _this$[ebp]
  0005d	e8 00 00 00 00	 call	 ?begin@?$vector@KV?$allocator@K@std@@@std@@QAE?AViterator@12@XZ ; std::vector<unsigned long,std::allocator<unsigned long> >::begin
  00062	8b c8		 mov	 ecx, eax
  00064	e8 00 00 00 00	 call	 ??Hiterator@?$vector@KV?$allocator@K@std@@@std@@QBE?AV012@H@Z ; std::vector<unsigned long,std::allocator<unsigned long> >::iterator::operator+
  00069	8b 45 08	 mov	 eax, DWORD PTR ___$ReturnUdt$[ebp]

; 624  : 		}

  0006c	8b e5		 mov	 esp, ebp
  0006e	5d		 pop	 ebp
  0006f	c2 0c 00	 ret	 12			; 0000000cH
?insert@?$vector@KV?$allocator@K@std@@@std@@QAE?AViterator@12@V312@ABK@Z ENDP ; std::vector<unsigned long,std::allocator<unsigned long> >::insert
_TEXT	ENDS
PUBLIC	?allocate@?$allocator@K@std@@QAEPAKI@Z		; std::allocator<unsigned long>::allocate
PUBLIC	?max_size@?$vector@KV?$allocator@K@std@@@std@@QBEIXZ ; std::vector<unsigned long,std::allocator<unsigned long> >::max_size
PUBLIC	?_Xlen@?$vector@KV?$allocator@K@std@@@std@@IBEXXZ ; std::vector<unsigned long,std::allocator<unsigned long> >::_Xlen
; Function compile flags: /Odt
;	COMDAT ?_Buy@?$vector@KV?$allocator@K@std@@@std@@IAE_NI@Z
_TEXT	SEGMENT
_this$ = -4						; size = 4
__Capacity$ = 8						; size = 4
?_Buy@?$vector@KV?$allocator@K@std@@@std@@IAE_NI@Z PROC NEAR ; std::vector<unsigned long,std::allocator<unsigned long> >::_Buy, COMDAT
; _this$ = ecx

; 770  : 		{	// allocate array with _Capacity elements

  00000	55		 push	 ebp
  00001	8b ec		 mov	 ebp, esp
  00003	51		 push	 ecx
  00004	89 4d fc	 mov	 DWORD PTR _this$[ebp], ecx

; 771  : 		_Myfirst = 0, _Mylast = 0, _Myend = 0;

  00007	8b 45 fc	 mov	 eax, DWORD PTR _this$[ebp]
  0000a	c7 40 04 00 00
	00 00		 mov	 DWORD PTR [eax+4], 0
  00011	8b 4d fc	 mov	 ecx, DWORD PTR _this$[ebp]
  00014	c7 41 08 00 00
	00 00		 mov	 DWORD PTR [ecx+8], 0
  0001b	8b 55 fc	 mov	 edx, DWORD PTR _this$[ebp]
  0001e	c7 42 0c 00 00
	00 00		 mov	 DWORD PTR [edx+12], 0

; 772  : 		if (_Capacity == 0)

  00025	83 7d 08 00	 cmp	 DWORD PTR __Capacity$[ebp], 0
  00029	75 04		 jne	 SHORT $L208851

; 773  : 			return (false);

  0002b	32 c0		 xor	 al, al
  0002d	eb 49		 jmp	 SHORT $L208850
$L208851:

; 774  : 		else if (max_size() < _Capacity)

  0002f	8b 4d fc	 mov	 ecx, DWORD PTR _this$[ebp]
  00032	e8 00 00 00 00	 call	 ?max_size@?$vector@KV?$allocator@K@std@@@std@@QBEIXZ ; std::vector<unsigned long,std::allocator<unsigned long> >::max_size
  00037	3b 45 08	 cmp	 eax, DWORD PTR __Capacity$[ebp]
  0003a	73 0a		 jae	 SHORT $L208853

; 775  : 			_Xlen();	// result too long

  0003c	8b 4d fc	 mov	 ecx, DWORD PTR _this$[ebp]
  0003f	e8 00 00 00 00	 call	 ?_Xlen@?$vector@KV?$allocator@K@std@@@std@@IBEXXZ ; std::vector<unsigned long,std::allocator<unsigned long> >::_Xlen

; 776  : 		else

  00044	eb 30		 jmp	 SHORT $L208852
$L208853:

; 777  : 			{	// nonempty array, allocate storage
; 778  : 			_Myfirst = this->_Alval.allocate(_Capacity);

  00046	8b 45 08	 mov	 eax, DWORD PTR __Capacity$[ebp]
  00049	50		 push	 eax
  0004a	8b 4d fc	 mov	 ecx, DWORD PTR _this$[ebp]
  0004d	e8 00 00 00 00	 call	 ?allocate@?$allocator@K@std@@QAEPAKI@Z ; std::allocator<unsigned long>::allocate
  00052	8b 4d fc	 mov	 ecx, DWORD PTR _this$[ebp]
  00055	89 41 04	 mov	 DWORD PTR [ecx+4], eax

; 779  : 			_Mylast = _Myfirst;

  00058	8b 55 fc	 mov	 edx, DWORD PTR _this$[ebp]
  0005b	8b 45 fc	 mov	 eax, DWORD PTR _this$[ebp]
  0005e	8b 48 04	 mov	 ecx, DWORD PTR [eax+4]
  00061	89 4a 08	 mov	 DWORD PTR [edx+8], ecx

; 780  : 			_Myend = _Myfirst + _Capacity;

  00064	8b 55 fc	 mov	 edx, DWORD PTR _this$[ebp]
  00067	8b 42 04	 mov	 eax, DWORD PTR [edx+4]
  0006a	8b 4d 08	 mov	 ecx, DWORD PTR __Capacity$[ebp]
  0006d	8d 14 88	 lea	 edx, DWORD PTR [eax+ecx*4]
  00070	8b 45 fc	 mov	 eax, DWORD PTR _this$[ebp]
  00073	89 50 0c	 mov	 DWORD PTR [eax+12], edx
$L208852:

; 781  : 			}
; 782  : 		return (true);

  00076	b0 01		 mov	 al, 1
$L208850:

; 783  : 		}

  00078	8b e5		 mov	 esp, ebp
  0007a	5d		 pop	 ebp
  0007b	c2 04 00	 ret	 4
?_Buy@?$vector@KV?$allocator@K@std@@@std@@IAE_NI@Z ENDP	; std::vector<unsigned long,std::allocator<unsigned long> >::_Buy
_TEXT	ENDS
PUBLIC	??$_Destroy_range@KV?$allocator@K@std@@@std@@YAXPAK0AAV?$allocator@K@0@@Z ; std::_Destroy_range<unsigned long,std::allocator<unsigned long> >
; Function compile flags: /Odt
;	COMDAT ?_Destroy@?$vector@KV?$allocator@K@std@@@std@@IAEXPAK0@Z
_TEXT	SEGMENT
_this$ = -4						; size = 4
__First$ = 8						; size = 4
__Last$ = 12						; size = 4
?_Destroy@?$vector@KV?$allocator@K@std@@@std@@IAEXPAK0@Z PROC NEAR ; std::vector<unsigned long,std::allocator<unsigned long> >::_Destroy, COMDAT
; _this$ = ecx

; 786  : 		{	// destroy [_First, _Last) using allocator

  00000	55		 push	 ebp
  00001	8b ec		 mov	 ebp, esp
  00003	51		 push	 ecx
  00004	89 4d fc	 mov	 DWORD PTR _this$[ebp], ecx

; 787  : 		_Destroy_range(_First, _Last, this->_Alval);

  00007	8b 45 fc	 mov	 eax, DWORD PTR _this$[ebp]
  0000a	50		 push	 eax
  0000b	8b 4d 0c	 mov	 ecx, DWORD PTR __Last$[ebp]
  0000e	51		 push	 ecx
  0000f	8b 55 08	 mov	 edx, DWORD PTR __First$[ebp]
  00012	52		 push	 edx
  00013	e8 00 00 00 00	 call	 ??$_Destroy_range@KV?$allocator@K@std@@@std@@YAXPAK0AAV?$allocator@K@0@@Z ; std::_Destroy_range<unsigned long,std::allocator<unsigned long> >
  00018	83 c4 0c	 add	 esp, 12			; 0000000cH

; 788  : 		}

  0001b	8b e5		 mov	 esp, ebp
  0001d	5d		 pop	 ebp
  0001e	c2 08 00	 ret	 8
?_Destroy@?$vector@KV?$allocator@K@std@@@std@@IAEXPAK0@Z ENDP ; std::vector<unsigned long,std::allocator<unsigned long> >::_Destroy
_TEXT	ENDS
PUBLIC	?deallocate@?$allocator@K@std@@QAEXPAKI@Z	; std::allocator<unsigned long>::deallocate
; Function compile flags: /Odt
;	COMDAT ?_Tidy@?$vector@KV?$allocator@K@std@@@std@@IAEXXZ
_TEXT	SEGMENT
_this$ = -4						; size = 4
?_Tidy@?$vector@KV?$allocator@K@std@@@std@@IAEXXZ PROC NEAR ; std::vector<unsigned long,std::allocator<unsigned long> >::_Tidy, COMDAT
; _this$ = ecx

; 791  : 		{	// free all storage

  00000	55		 push	 ebp
  00001	8b ec		 mov	 ebp, esp
  00003	51		 push	 ecx
  00004	89 4d fc	 mov	 DWORD PTR _this$[ebp], ecx

; 792  : 		if (_Myfirst != 0)

  00007	8b 45 fc	 mov	 eax, DWORD PTR _this$[ebp]
  0000a	83 78 04 00	 cmp	 DWORD PTR [eax+4], 0
  0000e	74 35		 je	 SHORT $L208866

; 793  : 			{	// something to free, destroy and deallocate it
; 794  : 			_Destroy(_Myfirst, _Mylast);

  00010	8b 4d fc	 mov	 ecx, DWORD PTR _this$[ebp]
  00013	8b 51 08	 mov	 edx, DWORD PTR [ecx+8]
  00016	52		 push	 edx
  00017	8b 45 fc	 mov	 eax, DWORD PTR _this$[ebp]
  0001a	8b 48 04	 mov	 ecx, DWORD PTR [eax+4]
  0001d	51		 push	 ecx
  0001e	8b 4d fc	 mov	 ecx, DWORD PTR _this$[ebp]
  00021	e8 00 00 00 00	 call	 ?_Destroy@?$vector@KV?$allocator@K@std@@@std@@IAEXPAK0@Z ; std::vector<unsigned long,std::allocator<unsigned long> >::_Destroy

; 795  : 			this->_Alval.deallocate(_Myfirst, _Myend - _Myfirst);

  00026	8b 55 fc	 mov	 edx, DWORD PTR _this$[ebp]
  00029	8b 45 fc	 mov	 eax, DWORD PTR _this$[ebp]
  0002c	8b 4a 0c	 mov	 ecx, DWORD PTR [edx+12]
  0002f	2b 48 04	 sub	 ecx, DWORD PTR [eax+4]
  00032	c1 f9 02	 sar	 ecx, 2
  00035	51		 push	 ecx
  00036	8b 55 fc	 mov	 edx, DWORD PTR _this$[ebp]
  00039	8b 42 04	 mov	 eax, DWORD PTR [edx+4]
  0003c	50		 push	 eax
  0003d	8b 4d fc	 mov	 ecx, DWORD PTR _this$[ebp]
  00040	e8 00 00 00 00	 call	 ?deallocate@?$allocator@K@std@@QAEXPAKI@Z ; std::allocator<unsigned long>::deallocate
$L208866:

; 796  : 			}
; 797  : 		_Myfirst = 0, _Mylast = 0, _Myend = 0;

  00045	8b 4d fc	 mov	 ecx, DWORD PTR _this$[ebp]
  00048	c7 41 04 00 00
	00 00		 mov	 DWORD PTR [ecx+4], 0
  0004f	8b 55 fc	 mov	 edx, DWORD PTR _this$[ebp]
  00052	c7 42 08 00 00
	00 00		 mov	 DWORD PTR [edx+8], 0
  00059	8b 45 fc	 mov	 eax, DWORD PTR _this$[ebp]
  0005c	c7 40 0c 00 00
	00 00		 mov	 DWORD PTR [eax+12], 0

; 798  : 		}

  00063	8b e5		 mov	 esp, ebp
  00065	5d		 pop	 ebp
  00066	c3		 ret	 0
?_Tidy@?$vector@KV?$allocator@K@std@@@std@@IAEXXZ ENDP	; std::vector<unsigned long,std::allocator<unsigned long> >::_Tidy
_TEXT	ENDS
PUBLIC	??$_Uninitialized_fill_n@PAKIKV?$allocator@K@std@@@std@@YAXPAKIABKAAV?$allocator@K@0@@Z ; std::_Uninitialized_fill_n<unsigned long *,unsigned int,unsigned long,std::allocator<unsigned long> >
; Function compile flags: /Odt
;	COMDAT ?_Ufill@?$vector@KV?$allocator@K@std@@@std@@IAEPAKPAKIABK@Z
_TEXT	SEGMENT
_this$ = -4						; size = 4
__Ptr$ = 8						; size = 4
__Count$ = 12						; size = 4
__Val$ = 16						; size = 4
?_Ufill@?$vector@KV?$allocator@K@std@@@std@@IAEPAKPAKIABK@Z PROC NEAR ; std::vector<unsigned long,std::allocator<unsigned long> >::_Ufill, COMDAT
; _this$ = ecx

; 877  : 		{	// copy initializing _Count * _Val, using allocator

  00000	55		 push	 ebp
  00001	8b ec		 mov	 ebp, esp
  00003	51		 push	 ecx
  00004	89 4d fc	 mov	 DWORD PTR _this$[ebp], ecx

; 878  : 		_Uninitialized_fill_n(_Ptr, _Count, _Val, this->_Alval);

  00007	8b 45 fc	 mov	 eax, DWORD PTR _this$[ebp]
  0000a	50		 push	 eax
  0000b	8b 4d 10	 mov	 ecx, DWORD PTR __Val$[ebp]
  0000e	51		 push	 ecx
  0000f	8b 55 0c	 mov	 edx, DWORD PTR __Count$[ebp]
  00012	52		 push	 edx
  00013	8b 45 08	 mov	 eax, DWORD PTR __Ptr$[ebp]
  00016	50		 push	 eax
  00017	e8 00 00 00 00	 call	 ??$_Uninitialized_fill_n@PAKIKV?$allocator@K@std@@@std@@YAXPAKIABKAAV?$allocator@K@0@@Z ; std::_Uninitialized_fill_n<unsigned long *,unsigned int,unsigned long,std::allocator<unsigned long> >
  0001c	83 c4 10	 add	 esp, 16			; 00000010H

; 879  : 		return (_Ptr + _Count);

  0001f	8b 4d 0c	 mov	 ecx, DWORD PTR __Count$[ebp]
  00022	8b 55 08	 mov	 edx, DWORD PTR __Ptr$[ebp]
  00025	8d 04 8a	 lea	 eax, DWORD PTR [edx+ecx*4]

; 880  : 		}

  00028	8b e5		 mov	 esp, ebp
  0002a	5d		 pop	 ebp
  0002b	c2 0c 00	 ret	 12			; 0000000cH
?_Ufill@?$vector@KV?$allocator@K@std@@@std@@IAEPAKPAKIABK@Z ENDP ; std::vector<unsigned long,std::allocator<unsigned long> >::_Ufill
_TEXT	ENDS
PUBLIC	??0?$allocator@K@std@@QAE@ABV01@@Z		; std::allocator<unsigned long>::allocator<unsigned long>
; Function compile flags: /Odt
;	COMDAT ??0?$_Vector_val@KV?$allocator@K@std@@@std@@IAE@V?$allocator@K@1@@Z
_TEXT	SEGMENT
_this$ = -4						; size = 4
__Al$ = 8						; size = 1
??0?$_Vector_val@KV?$allocator@K@std@@@std@@IAE@V?$allocator@K@1@@Z PROC NEAR ; std::_Vector_val<unsigned long,std::allocator<unsigned long> >::_Vector_val<unsigned long,std::allocator<unsigned long> >, COMDAT
; _this$ = ecx

; 21   : 		{	// construct allocator from _Al

  00000	55		 push	 ebp
  00001	8b ec		 mov	 ebp, esp
  00003	51		 push	 ecx
  00004	89 4d fc	 mov	 DWORD PTR _this$[ebp], ecx
  00007	8d 45 08	 lea	 eax, DWORD PTR __Al$[ebp]
  0000a	50		 push	 eax
  0000b	8b 4d fc	 mov	 ecx, DWORD PTR _this$[ebp]
  0000e	e8 00 00 00 00	 call	 ??0?$allocator@K@std@@QAE@ABV01@@Z ; std::allocator<unsigned long>::allocator<unsigned long>

; 22   : 		}

  00013	8b 45 fc	 mov	 eax, DWORD PTR _this$[ebp]
  00016	8b e5		 mov	 esp, ebp
  00018	5d		 pop	 ebp
  00019	c2 04 00	 ret	 4
??0?$_Vector_val@KV?$allocator@K@std@@@std@@IAE@V?$allocator@K@1@@Z ENDP ; std::_Vector_val<unsigned long,std::allocator<unsigned long> >::_Vector_val<unsigned long,std::allocator<unsigned long> >
; Function compile flags: /Odt
; File d:\program files (x86)\microsoft visual studio .net 2003\vc7\include\xmemory
_TEXT	ENDS
;	COMDAT ??0?$allocator@K@std@@QAE@XZ
_TEXT	SEGMENT
_this$ = -4						; size = 4
??0?$allocator@K@std@@QAE@XZ PROC NEAR			; std::allocator<unsigned long>::allocator<unsigned long>, COMDAT
; _this$ = ecx

; 111  : 	allocator()

  00000	55		 push	 ebp
  00001	8b ec		 mov	 ebp, esp
  00003	51		 push	 ecx
  00004	89 4d fc	 mov	 DWORD PTR _this$[ebp], ecx

; 112  : 		{	// construct default allocator (do nothing)
; 113  : 		}

  00007	8b 45 fc	 mov	 eax, DWORD PTR _this$[ebp]
  0000a	8b e5		 mov	 esp, ebp
  0000c	5d		 pop	 ebp
  0000d	c3		 ret	 0
??0?$allocator@K@std@@QAE@XZ ENDP			; std::allocator<unsigned long>::allocator<unsigned long>
; Function compile flags: /Odt
; File d:\program files (x86)\microsoft visual studio .net 2003\vc7\include\list
_TEXT	ENDS
;	COMDAT ?_Nextnode@?$list@PAVIMessageObserver@@V?$allocator@PAVIMessageObserver@@@std@@@std@@KAAAPAU_Node@?$_List_nod@PAVIMessageObserver@@V?$allocator@PAVIMessageObserver@@@std@@@2@PAU342@@Z
_TEXT	SEGMENT
__Pnode$ = 8						; size = 4
?_Nextnode@?$list@PAVIMessageObserver@@V?$allocator@PAVIMessageObserver@@@std@@@std@@KAAAPAU_Node@?$_List_nod@PAVIMessageObserver@@V?$allocator@PAVIMessageObserver@@@std@@@2@PAU342@@Z PROC NEAR ; std::list<IMessageObserver *,std::allocator<IMessageObserver *> >::_Nextnode, COMDAT

; 107  : 		{	// return reference to successor pointer in node

  00000	55		 push	 ebp
  00001	8b ec		 mov	 ebp, esp

; 108  : 		return ((_Nodepref)(*_Pnode)._Next);

  00003	8b 45 08	 mov	 eax, DWORD PTR __Pnode$[ebp]

; 109  : 		}

  00006	5d		 pop	 ebp
  00007	c3		 ret	 0
?_Nextnode@?$list@PAVIMessageObserver@@V?$allocator@PAVIMessageObserver@@@std@@@std@@KAAAPAU_Node@?$_List_nod@PAVIMessageObserver@@V?$allocator@PAVIMessageObserver@@@std@@@2@PAU342@@Z ENDP ; std::list<IMessageObserver *,std::allocator<IMessageObserver *> >::_Nextnode
_TEXT	ENDS
PUBLIC	?construct@?$allocator@PAU_Node@?$_List_nod@PAVIMessageObserver@@V?$allocator@PAVIMessageObserver@@@std@@@std@@@std@@QAEXPAPAU_Node@?$_List_nod@PAVIMessageObserver@@V?$allocator@PAVIMessageObserver@@@std@@@2@ABQAU342@@Z ; std::allocator<std::_List_nod<IMessageObserver *,std::allocator<IMessageObserver *> >::_Node *>::construct
PUBLIC	?destroy@?$allocator@PAU_Node@?$_List_nod@PAVIMessageObserver@@V?$allocator@PAVIMessageObserver@@@std@@@std@@@std@@QAEXPAPAU_Node@?$_List_nod@PAVIMessageObserver@@V?$allocator@PAVIMessageObserver@@@std@@@2@@Z ; std::allocator<std::_List_nod<IMessageObserver *,std::allocator<IMessageObserver *> >::_Node *>::destroy
PUBLIC	?_Prevnode@?$list@PAVIMessageObserver@@V?$allocator@PAVIMessageObserver@@@std@@@std@@KAAAPAU_Node@?$_List_nod@PAVIMessageObserver@@V?$allocator@PAVIMessageObserver@@@std@@@2@PAU342@@Z ; std::list<IMessageObserver *,std::allocator<IMessageObserver *> >::_Prevnode
PUBLIC	?deallocate@?$allocator@U_Node@?$_List_nod@PAVIMessageObserver@@V?$allocator@PAVIMessageObserver@@@std@@@std@@@std@@QAEXPAU_Node@?$_List_nod@PAVIMessageObserver@@V?$allocator@PAVIMessageObserver@@@std@@@2@I@Z ; std::allocator<std::_List_nod<IMessageObserver *,std::allocator<IMessageObserver *> >::_Node>::deallocate
PUBLIC	?allocate@?$allocator@U_Node@?$_List_nod@PAVIMessageObserver@@V?$allocator@PAVIMessageObserver@@@std@@@std@@@std@@QAEPAU_Node@?$_List_nod@PAVIMessageObserver@@V?$allocator@PAVIMessageObserver@@@std@@@2@I@Z ; std::allocator<std::_List_nod<IMessageObserver *,std::allocator<IMessageObserver *> >::_Node>::allocate
EXTRN	__CxxThrowException@8:NEAR
;	COMDAT xdata$x
xdata$x	SEGMENT
$T211614 DD	0ffffffffH
	DD	00H
	DD	0ffffffffH
	DD	00H
$T211616 DD	00H
	DD	00H
	DD	00H
	DD	FLAT:$L211610
$T211615 DD	00H
	DD	00H
	DD	01H
	DD	01H
	DD	FLAT:$T211616
$T211612 DD	019930520H
	DD	02H
	DD	FLAT:$T211614
	DD	01H
	DD	FLAT:$T211615
	DD	2 DUP(00H)
; Function compile flags: /Odt
xdata$x	ENDS
;	COMDAT ?_Buynode@?$list@PAVIMessageObserver@@V?$allocator@PAVIMessageObserver@@@std@@@std@@IAEPAU_Node@?$_List_nod@PAVIMessageObserver@@V?$allocator@PAVIMessageObserver@@@std@@@2@XZ
_TEXT	SEGMENT
tv93 = -36						; size = 4
tv92 = -32						; size = 4
_this$ = -28						; size = 4
__Pnode$ = -24						; size = 4
__Linkcnt$ = -20					; size = 4
__$EHRec$ = -16						; size = 16
?_Buynode@?$list@PAVIMessageObserver@@V?$allocator@PAVIMessageObserver@@@std@@@std@@IAEPAU_Node@?$_List_nod@PAVIMessageObserver@@V?$allocator@PAVIMessageObserver@@@std@@@2@XZ PROC NEAR ; std::list<IMessageObserver *,std::allocator<IMessageObserver *> >::_Buynode, COMDAT
; _this$ = ecx

; 898  : 		{	// allocate a head node and set links

  00000	55		 push	 ebp
  00001	8b ec		 mov	 ebp, esp
  00003	6a ff		 push	 -1
  00005	68 00 00 00 00	 push	 __ehhandler$?_Buynode@?$list@PAVIMessageObserver@@V?$allocator@PAVIMessageObserver@@@std@@@std@@IAEPAU_Node@?$_List_nod@PAVIMessageObserver@@V?$allocator@PAVIMessageObserver@@@std@@@2@XZ
  0000a	64 a1 00 00 00
	00		 mov	 eax, DWORD PTR fs:__except_list
  00010	50		 push	 eax
  00011	64 89 25 00 00
	00 00		 mov	 DWORD PTR fs:__except_list, esp
  00018	51		 push	 ecx
  00019	83 ec 14	 sub	 esp, 20			; 00000014H
  0001c	53		 push	 ebx
  0001d	56		 push	 esi
  0001e	57		 push	 edi
  0001f	89 65 f0	 mov	 DWORD PTR __$EHRec$[ebp], esp
  00022	89 4d e4	 mov	 DWORD PTR _this$[ebp], ecx

; 899  : 		_Nodeptr _Pnode = this->_Alnod.allocate(1);

  00025	6a 01		 push	 1
  00027	8b 4d e4	 mov	 ecx, DWORD PTR _this$[ebp]
  0002a	e8 00 00 00 00	 call	 ?allocate@?$allocator@U_Node@?$_List_nod@PAVIMessageObserver@@V?$allocator@PAVIMessageObserver@@@std@@@std@@@std@@QAEPAU_Node@?$_List_nod@PAVIMessageObserver@@V?$allocator@PAVIMessageObserver@@@std@@@2@I@Z ; std::allocator<std::_List_nod<IMessageObserver *,std::allocator<IMessageObserver *> >::_Node>::allocate
  0002f	89 45 e8	 mov	 DWORD PTR __Pnode$[ebp], eax

; 900  : 		int _Linkcnt = 0;

  00032	c7 45 ec 00 00
	00 00		 mov	 DWORD PTR __Linkcnt$[ebp], 0

; 901  : 
; 902  : 		_TRY_BEGIN

  00039	c7 45 fc 00 00
	00 00		 mov	 DWORD PTR __$EHRec$[ebp+12], 0

; 903  : 		this->_Alptr.construct(&_Nextnode(_Pnode), _Pnode);

  00040	8b 45 e8	 mov	 eax, DWORD PTR __Pnode$[ebp]
  00043	50		 push	 eax
  00044	e8 00 00 00 00	 call	 ?_Nextnode@?$list@PAVIMessageObserver@@V?$allocator@PAVIMessageObserver@@@std@@@std@@KAAAPAU_Node@?$_List_nod@PAVIMessageObserver@@V?$allocator@PAVIMessageObserver@@@std@@@2@PAU342@@Z ; std::list<IMessageObserver *,std::allocator<IMessageObserver *> >::_Nextnode
  00049	83 c4 04	 add	 esp, 4
  0004c	89 45 e0	 mov	 DWORD PTR tv92[ebp], eax
  0004f	8d 4d e8	 lea	 ecx, DWORD PTR __Pnode$[ebp]
  00052	51		 push	 ecx
  00053	8b 55 e0	 mov	 edx, DWORD PTR tv92[ebp]
  00056	52		 push	 edx
  00057	8b 4d e4	 mov	 ecx, DWORD PTR _this$[ebp]
  0005a	83 c1 01	 add	 ecx, 1
  0005d	e8 00 00 00 00	 call	 ?construct@?$allocator@PAU_Node@?$_List_nod@PAVIMessageObserver@@V?$allocator@PAVIMessageObserver@@@std@@@std@@@std@@QAEXPAPAU_Node@?$_List_nod@PAVIMessageObserver@@V?$allocator@PAVIMessageObserver@@@std@@@2@ABQAU342@@Z ; std::allocator<std::_List_nod<IMessageObserver *,std::allocator<IMessageObserver *> >::_Node *>::construct

; 904  : 		++_Linkcnt;

  00062	8b 45 ec	 mov	 eax, DWORD PTR __Linkcnt$[ebp]
  00065	83 c0 01	 add	 eax, 1
  00068	89 45 ec	 mov	 DWORD PTR __Linkcnt$[ebp], eax

; 905  : 		this->_Alptr.construct(&_Prevnode(_Pnode), _Pnode);

  0006b	8b 4d e8	 mov	 ecx, DWORD PTR __Pnode$[ebp]
  0006e	51		 push	 ecx
  0006f	e8 00 00 00 00	 call	 ?_Prevnode@?$list@PAVIMessageObserver@@V?$allocator@PAVIMessageObserver@@@std@@@std@@KAAAPAU_Node@?$_List_nod@PAVIMessageObserver@@V?$allocator@PAVIMessageObserver@@@std@@@2@PAU342@@Z ; std::list<IMessageObserver *,std::allocator<IMessageObserver *> >::_Prevnode
  00074	83 c4 04	 add	 esp, 4
  00077	89 45 dc	 mov	 DWORD PTR tv93[ebp], eax
  0007a	8d 55 e8	 lea	 edx, DWORD PTR __Pnode$[ebp]
  0007d	52		 push	 edx
  0007e	8b 45 dc	 mov	 eax, DWORD PTR tv93[ebp]
  00081	50		 push	 eax
  00082	8b 4d e4	 mov	 ecx, DWORD PTR _this$[ebp]
  00085	83 c1 01	 add	 ecx, 1
  00088	e8 00 00 00 00	 call	 ?construct@?$allocator@PAU_Node@?$_List_nod@PAVIMessageObserver@@V?$allocator@PAVIMessageObserver@@@std@@@std@@@std@@QAEXPAPAU_Node@?$_List_nod@PAVIMessageObserver@@V?$allocator@PAVIMessageObserver@@@std@@@2@ABQAU342@@Z ; std::allocator<std::_List_nod<IMessageObserver *,std::allocator<IMessageObserver *> >::_Node *>::construct
  0008d	eb 35		 jmp	 SHORT $L211609
$L211610:

; 906  : 		_CATCH_ALL
; 907  : 		if (0 < _Linkcnt)

  0008f	83 7d ec 00	 cmp	 DWORD PTR __Linkcnt$[ebp], 0
  00093	7e 18		 jle	 SHORT $L208902

; 908  : 			this->_Alptr.destroy(&_Nextnode(_Pnode));

  00095	8b 4d e8	 mov	 ecx, DWORD PTR __Pnode$[ebp]
  00098	51		 push	 ecx
  00099	e8 00 00 00 00	 call	 ?_Nextnode@?$list@PAVIMessageObserver@@V?$allocator@PAVIMessageObserver@@@std@@@std@@KAAAPAU_Node@?$_List_nod@PAVIMessageObserver@@V?$allocator@PAVIMessageObserver@@@std@@@2@PAU342@@Z ; std::list<IMessageObserver *,std::allocator<IMessageObserver *> >::_Nextnode
  0009e	83 c4 04	 add	 esp, 4
  000a1	50		 push	 eax
  000a2	8b 4d e4	 mov	 ecx, DWORD PTR _this$[ebp]
  000a5	83 c1 01	 add	 ecx, 1
  000a8	e8 00 00 00 00	 call	 ?destroy@?$allocator@PAU_Node@?$_List_nod@PAVIMessageObserver@@V?$allocator@PAVIMessageObserver@@@std@@@std@@@std@@QAEXPAPAU_Node@?$_List_nod@PAVIMessageObserver@@V?$allocator@PAVIMessageObserver@@@std@@@2@@Z ; std::allocator<std::_List_nod<IMessageObserver *,std::allocator<IMessageObserver *> >::_Node *>::destroy
$L208902:

; 909  : 		this->_Alnod.deallocate(_Pnode, 1);

  000ad	6a 01		 push	 1
  000af	8b 55 e8	 mov	 edx, DWORD PTR __Pnode$[ebp]
  000b2	52		 push	 edx
  000b3	8b 4d e4	 mov	 ecx, DWORD PTR _this$[ebp]
  000b6	e8 00 00 00 00	 call	 ?deallocate@?$allocator@U_Node@?$_List_nod@PAVIMessageObserver@@V?$allocator@PAVIMessageObserver@@@std@@@std@@@std@@QAEXPAU_Node@?$_List_nod@PAVIMessageObserver@@V?$allocator@PAVIMessageObserver@@@std@@@2@I@Z ; std::allocator<std::_List_nod<IMessageObserver *,std::allocator<IMessageObserver *> >::_Node>::deallocate

; 910  : 		_RERAISE;

  000bb	6a 00		 push	 0
  000bd	6a 00		 push	 0
  000bf	e8 00 00 00 00	 call	 __CxxThrowException@8
$L211609:

; 911  : 		_CATCH_END

  000c4	c7 45 fc ff ff
	ff ff		 mov	 DWORD PTR __$EHRec$[ebp+12], -1

; 912  : 		return (_Pnode);

  000cb	8b 45 e8	 mov	 eax, DWORD PTR __Pnode$[ebp]
$L211607:

; 913  : 		}

  000ce	8b 4d f4	 mov	 ecx, DWORD PTR __$EHRec$[ebp+4]
  000d1	64 89 0d 00 00
	00 00		 mov	 DWORD PTR fs:__except_list, ecx
  000d8	5f		 pop	 edi
  000d9	5e		 pop	 esi
  000da	5b		 pop	 ebx
  000db	8b e5		 mov	 esp, ebp
  000dd	5d		 pop	 ebp
  000de	c3		 ret	 0
_TEXT	ENDS
;	COMDAT text$x
text$x	SEGMENT
__ehhandler$?_Buynode@?$list@PAVIMessageObserver@@V?$allocator@PAVIMessageObserver@@@std@@@std@@IAEPAU_Node@?$_List_nod@PAVIMessageObserver@@V?$allocator@PAVIMessageObserver@@@std@@@2@XZ:
  00000	b8 00 00 00 00	 mov	 eax, OFFSET FLAT:$T211612
  00005	e9 00 00 00 00	 jmp	 ___CxxFrameHandler
text$x	ENDS
?_Buynode@?$list@PAVIMessageObserver@@V?$allocator@PAVIMessageObserver@@@std@@@std@@IAEPAU_Node@?$_List_nod@PAVIMessageObserver@@V?$allocator@PAVIMessageObserver@@@std@@@2@XZ ENDP ; std::list<IMessageObserver *,std::allocator<IMessageObserver *> >::_Buynode
PUBLIC	?clear@?$list@PAVIMessageObserver@@V?$allocator@PAVIMessageObserver@@@std@@@std@@QAEXXZ ; std::list<IMessageObserver *,std::allocator<IMessageObserver *> >::clear
; Function compile flags: /Odt
;	COMDAT ?_Tidy@?$list@PAVIMessageObserver@@V?$allocator@PAVIMessageObserver@@@std@@@std@@IAEXXZ
_TEXT	SEGMENT
_this$ = -4						; size = 4
?_Tidy@?$list@PAVIMessageObserver@@V?$allocator@PAVIMessageObserver@@@std@@@std@@IAEXXZ PROC NEAR ; std::list<IMessageObserver *,std::allocator<IMessageObserver *> >::_Tidy, COMDAT
; _this$ = ecx

; 929  : 		{	// free all storage

  00000	55		 push	 ebp
  00001	8b ec		 mov	 ebp, esp
  00003	51		 push	 ecx
  00004	89 4d fc	 mov	 DWORD PTR _this$[ebp], ecx

; 930  : 		clear();

  00007	8b 4d fc	 mov	 ecx, DWORD PTR _this$[ebp]
  0000a	e8 00 00 00 00	 call	 ?clear@?$list@PAVIMessageObserver@@V?$allocator@PAVIMessageObserver@@@std@@@std@@QAEXXZ ; std::list<IMessageObserver *,std::allocator<IMessageObserver *> >::clear

; 931  : 		this->_Alptr.destroy(&_Nextnode(_Myhead));

  0000f	8b 45 fc	 mov	 eax, DWORD PTR _this$[ebp]
  00012	8b 48 04	 mov	 ecx, DWORD PTR [eax+4]
  00015	51		 push	 ecx
  00016	e8 00 00 00 00	 call	 ?_Nextnode@?$list@PAVIMessageObserver@@V?$allocator@PAVIMessageObserver@@@std@@@std@@KAAAPAU_Node@?$_List_nod@PAVIMessageObserver@@V?$allocator@PAVIMessageObserver@@@std@@@2@PAU342@@Z ; std::list<IMessageObserver *,std::allocator<IMessageObserver *> >::_Nextnode
  0001b	83 c4 04	 add	 esp, 4
  0001e	50		 push	 eax
  0001f	8b 4d fc	 mov	 ecx, DWORD PTR _this$[ebp]
  00022	83 c1 01	 add	 ecx, 1
  00025	e8 00 00 00 00	 call	 ?destroy@?$allocator@PAU_Node@?$_List_nod@PAVIMessageObserver@@V?$allocator@PAVIMessageObserver@@@std@@@std@@@std@@QAEXPAPAU_Node@?$_List_nod@PAVIMessageObserver@@V?$allocator@PAVIMessageObserver@@@std@@@2@@Z ; std::allocator<std::_List_nod<IMessageObserver *,std::allocator<IMessageObserver *> >::_Node *>::destroy

; 932  : 		this->_Alptr.destroy(&_Prevnode(_Myhead));

  0002a	8b 55 fc	 mov	 edx, DWORD PTR _this$[ebp]
  0002d	8b 42 04	 mov	 eax, DWORD PTR [edx+4]
  00030	50		 push	 eax
  00031	e8 00 00 00 00	 call	 ?_Prevnode@?$list@PAVIMessageObserver@@V?$allocator@PAVIMessageObserver@@@std@@@std@@KAAAPAU_Node@?$_List_nod@PAVIMessageObserver@@V?$allocator@PAVIMessageObserver@@@std@@@2@PAU342@@Z ; std::list<IMessageObserver *,std::allocator<IMessageObserver *> >::_Prevnode
  00036	83 c4 04	 add	 esp, 4
  00039	50		 push	 eax
  0003a	8b 4d fc	 mov	 ecx, DWORD PTR _this$[ebp]
  0003d	83 c1 01	 add	 ecx, 1
  00040	e8 00 00 00 00	 call	 ?destroy@?$allocator@PAU_Node@?$_List_nod@PAVIMessageObserver@@V?$allocator@PAVIMessageObserver@@@std@@@std@@@std@@QAEXPAPAU_Node@?$_List_nod@PAVIMessageObserver@@V?$allocator@PAVIMessageObserver@@@std@@@2@@Z ; std::allocator<std::_List_nod<IMessageObserver *,std::allocator<IMessageObserver *> >::_Node *>::destroy

; 933  : 		this->_Alnod.deallocate(_Myhead, 1);

  00045	6a 01		 push	 1
  00047	8b 4d fc	 mov	 ecx, DWORD PTR _this$[ebp]
  0004a	8b 51 04	 mov	 edx, DWORD PTR [ecx+4]
  0004d	52		 push	 edx
  0004e	8b 4d fc	 mov	 ecx, DWORD PTR _this$[ebp]
  00051	e8 00 00 00 00	 call	 ?deallocate@?$allocator@U_Node@?$_List_nod@PAVIMessageObserver@@V?$allocator@PAVIMessageObserver@@@std@@@std@@@std@@QAEXPAU_Node@?$_List_nod@PAVIMessageObserver@@V?$allocator@PAVIMessageObserver@@@std@@@2@I@Z ; std::allocator<std::_List_nod<IMessageObserver *,std::allocator<IMessageObserver *> >::_Node>::deallocate

; 934  : 		_Myhead = 0;

  00056	8b 45 fc	 mov	 eax, DWORD PTR _this$[ebp]
  00059	c7 40 04 00 00
	00 00		 mov	 DWORD PTR [eax+4], 0

; 935  : 		}

  00060	8b e5		 mov	 esp, ebp
  00062	5d		 pop	 ebp
  00063	c3		 ret	 0
?_Tidy@?$list@PAVIMessageObserver@@V?$allocator@PAVIMessageObserver@@@std@@@std@@IAEXXZ ENDP ; std::list<IMessageObserver *,std::allocator<IMessageObserver *> >::_Tidy
_TEXT	ENDS
PUBLIC	??0?$allocator@PAVIMessageObserver@@@std@@QAE@ABV01@@Z ; std::allocator<IMessageObserver *>::allocator<IMessageObserver *>
PUBLIC	??0?$_List_ptr@PAVIMessageObserver@@V?$allocator@PAVIMessageObserver@@@std@@@std@@IAE@V?$allocator@PAVIMessageObserver@@@1@@Z ; std::_List_ptr<IMessageObserver *,std::allocator<IMessageObserver *> >::_List_ptr<IMessageObserver *,std::allocator<IMessageObserver *> >
; Function compile flags: /Odt
;	COMDAT ??0?$_List_val@PAVIMessageObserver@@V?$allocator@PAVIMessageObserver@@@std@@@std@@IAE@V?$allocator@PAVIMessageObserver@@@1@@Z
_TEXT	SEGMENT
_this$ = -8						; size = 4
__Al$ = 8						; size = 1
??0?$_List_val@PAVIMessageObserver@@V?$allocator@PAVIMessageObserver@@@std@@@std@@IAE@V?$allocator@PAVIMessageObserver@@@1@@Z PROC NEAR ; std::_List_val<IMessageObserver *,std::allocator<IMessageObserver *> >::_List_val<IMessageObserver *,std::allocator<IMessageObserver *> >, COMDAT
; _this$ = ecx

; 82   : 		{	// construct base, and allocator from _Al

  00000	55		 push	 ebp
  00001	8b ec		 mov	 ebp, esp
  00003	83 ec 08	 sub	 esp, 8
  00006	89 4d f8	 mov	 DWORD PTR _this$[ebp], ecx
  00009	51		 push	 ecx
  0000a	8b cc		 mov	 ecx, esp
  0000c	8d 45 08	 lea	 eax, DWORD PTR __Al$[ebp]
  0000f	50		 push	 eax
  00010	e8 00 00 00 00	 call	 ??0?$allocator@PAVIMessageObserver@@@std@@QAE@ABV01@@Z ; std::allocator<IMessageObserver *>::allocator<IMessageObserver *>
  00015	8b 4d f8	 mov	 ecx, DWORD PTR _this$[ebp]
  00018	e8 00 00 00 00	 call	 ??0?$_List_ptr@PAVIMessageObserver@@V?$allocator@PAVIMessageObserver@@@std@@@std@@IAE@V?$allocator@PAVIMessageObserver@@@1@@Z ; std::_List_ptr<IMessageObserver *,std::allocator<IMessageObserver *> >::_List_ptr<IMessageObserver *,std::allocator<IMessageObserver *> >
  0001d	8d 4d 08	 lea	 ecx, DWORD PTR __Al$[ebp]
  00020	51		 push	 ecx
  00021	8b 4d f8	 mov	 ecx, DWORD PTR _this$[ebp]
  00024	83 c1 02	 add	 ecx, 2
  00027	e8 00 00 00 00	 call	 ??0?$allocator@PAVIMessageObserver@@@std@@QAE@ABV01@@Z ; std::allocator<IMessageObserver *>::allocator<IMessageObserver *>

; 83   : 		}

  0002c	8b 45 f8	 mov	 eax, DWORD PTR _this$[ebp]
  0002f	8b e5		 mov	 esp, ebp
  00031	5d		 pop	 ebp
  00032	c2 04 00	 ret	 4
??0?$_List_val@PAVIMessageObserver@@V?$allocator@PAVIMessageObserver@@@std@@@std@@IAE@V?$allocator@PAVIMessageObserver@@@1@@Z ENDP ; std::_List_val<IMessageObserver *,std::allocator<IMessageObserver *> >::_List_val<IMessageObserver *,std::allocator<IMessageObserver *> >
; Function compile flags: /Odt
; File d:\program files (x86)\microsoft visual studio .net 2003\vc7\include\xmemory
_TEXT	ENDS
;	COMDAT ??0?$allocator@PAVIMessageObserver@@@std@@QAE@XZ
_TEXT	SEGMENT
_this$ = -4						; size = 4
??0?$allocator@PAVIMessageObserver@@@std@@QAE@XZ PROC NEAR ; std::allocator<IMessageObserver *>::allocator<IMessageObserver *>, COMDAT
; _this$ = ecx

; 111  : 	allocator()

  00000	55		 push	 ebp
  00001	8b ec		 mov	 ebp, esp
  00003	51		 push	 ecx
  00004	89 4d fc	 mov	 DWORD PTR _this$[ebp], ecx

; 112  : 		{	// construct default allocator (do nothing)
; 113  : 		}

  00007	8b 45 fc	 mov	 eax, DWORD PTR _this$[ebp]
  0000a	8b e5		 mov	 esp, ebp
  0000c	5d		 pop	 ebp
  0000d	c3		 ret	 0
??0?$allocator@PAVIMessageObserver@@@std@@QAE@XZ ENDP	; std::allocator<IMessageObserver *>::allocator<IMessageObserver *>
_TEXT	ENDS
PUBLIC	??0const_iterator@?$list@PAVIMessageObserver@@V?$allocator@PAVIMessageObserver@@@std@@@std@@QAE@PAU_Node@?$_List_nod@PAVIMessageObserver@@V?$allocator@PAVIMessageObserver@@@std@@@2@@Z ; std::list<IMessageObserver *,std::allocator<IMessageObserver *> >::const_iterator::const_iterator
; Function compile flags: /Odt
; File d:\program files (x86)\microsoft visual studio .net 2003\vc7\include\list
;	COMDAT ??0iterator@?$list@PAVIMessageObserver@@V?$allocator@PAVIMessageObserver@@@std@@@std@@QAE@PAU_Node@?$_List_nod@PAVIMessageObserver@@V?$allocator@PAVIMessageObserver@@@std@@@2@@Z
_TEXT	SEGMENT
_this$ = -4						; size = 4
__Pnode$ = 8						; size = 4
??0iterator@?$list@PAVIMessageObserver@@V?$allocator@PAVIMessageObserver@@@std@@@std@@QAE@PAU_Node@?$_List_nod@PAVIMessageObserver@@V?$allocator@PAVIMessageObserver@@@std@@@2@@Z PROC NEAR ; std::list<IMessageObserver *,std::allocator<IMessageObserver *> >::iterator::iterator, COMDAT
; _this$ = ecx

; 235  : 			{	// construct with node pointer _Pnode

  00000	55		 push	 ebp
  00001	8b ec		 mov	 ebp, esp
  00003	51		 push	 ecx
  00004	89 4d fc	 mov	 DWORD PTR _this$[ebp], ecx
  00007	8b 45 08	 mov	 eax, DWORD PTR __Pnode$[ebp]
  0000a	50		 push	 eax
  0000b	8b 4d fc	 mov	 ecx, DWORD PTR _this$[ebp]
  0000e	e8 00 00 00 00	 call	 ??0const_iterator@?$list@PAVIMessageObserver@@V?$allocator@PAVIMessageObserver@@@std@@@std@@QAE@PAU_Node@?$_List_nod@PAVIMessageObserver@@V?$allocator@PAVIMessageObserver@@@std@@@2@@Z ; std::list<IMessageObserver *,std::allocator<IMessageObserver *> >::const_iterator::const_iterator

; 236  : 			}

  00013	8b 45 fc	 mov	 eax, DWORD PTR _this$[ebp]
  00016	8b e5		 mov	 esp, ebp
  00018	5d		 pop	 ebp
  00019	c2 04 00	 ret	 4
??0iterator@?$list@PAVIMessageObserver@@V?$allocator@PAVIMessageObserver@@@std@@@std@@QAE@PAU_Node@?$_List_nod@PAVIMessageObserver@@V?$allocator@PAVIMessageObserver@@@std@@@2@@Z ENDP ; std::list<IMessageObserver *,std::allocator<IMessageObserver *> >::iterator::iterator
_TEXT	ENDS
PUBLIC	??Econst_iterator@?$list@PAVIMessageObserver@@V?$allocator@PAVIMessageObserver@@@std@@@std@@QAEAAV012@XZ ; std::list<IMessageObserver *,std::allocator<IMessageObserver *> >::const_iterator::operator++
; Function compile flags: /Odt
;	COMDAT ??Eiterator@?$list@PAVIMessageObserver@@V?$allocator@PAVIMessageObserver@@@std@@@std@@QAEAAV012@XZ
_TEXT	SEGMENT
_this$ = -4						; size = 4
??Eiterator@?$list@PAVIMessageObserver@@V?$allocator@PAVIMessageObserver@@@std@@@std@@QAEAAV012@XZ PROC NEAR ; std::list<IMessageObserver *,std::allocator<IMessageObserver *> >::iterator::operator++, COMDAT
; _this$ = ecx

; 249  : 			{	// preincrement

  00000	55		 push	 ebp
  00001	8b ec		 mov	 ebp, esp
  00003	51		 push	 ecx
  00004	89 4d fc	 mov	 DWORD PTR _this$[ebp], ecx

; 250  : 			++(*(const_iterator *)this);

  00007	8b 4d fc	 mov	 ecx, DWORD PTR _this$[ebp]
  0000a	e8 00 00 00 00	 call	 ??Econst_iterator@?$list@PAVIMessageObserver@@V?$allocator@PAVIMessageObserver@@@std@@@std@@QAEAAV012@XZ ; std::list<IMessageObserver *,std::allocator<IMessageObserver *> >::const_iterator::operator++

; 251  : 			return (*this);

  0000f	8b 45 fc	 mov	 eax, DWORD PTR _this$[ebp]

; 252  : 			}

  00012	8b e5		 mov	 esp, ebp
  00014	5d		 pop	 ebp
  00015	c3		 ret	 0
??Eiterator@?$list@PAVIMessageObserver@@V?$allocator@PAVIMessageObserver@@@std@@@std@@QAEAAV012@XZ ENDP ; std::list<IMessageObserver *,std::allocator<IMessageObserver *> >::iterator::operator++
_TEXT	ENDS
PUBLIC	?_Myval@?$list@PAVIMessageObserver@@V?$allocator@PAVIMessageObserver@@@std@@@std@@KAAAPAVIMessageObserver@@PAU_Node@?$_List_nod@PAVIMessageObserver@@V?$allocator@PAVIMessageObserver@@@std@@@2@@Z ; std::list<IMessageObserver *,std::allocator<IMessageObserver *> >::_Myval
; Function compile flags: /Odt
;	COMDAT ??Dconst_iterator@?$list@PAVIMessageObserver@@V?$allocator@PAVIMessageObserver@@@std@@@std@@QBEABQAVIMessageObserver@@XZ
_TEXT	SEGMENT
_this$ = -4						; size = 4
??Dconst_iterator@?$list@PAVIMessageObserver@@V?$allocator@PAVIMessageObserver@@@std@@@std@@QBEABQAVIMessageObserver@@XZ PROC NEAR ; std::list<IMessageObserver *,std::allocator<IMessageObserver *> >::const_iterator::operator*, COMDAT
; _this$ = ecx

; 160  : 			{	// return designated value

  00000	55		 push	 ebp
  00001	8b ec		 mov	 ebp, esp
  00003	51		 push	 ecx
  00004	89 4d fc	 mov	 DWORD PTR _this$[ebp], ecx

; 161  : 			return (_Myval(_Ptr));

  00007	8b 45 fc	 mov	 eax, DWORD PTR _this$[ebp]
  0000a	8b 08		 mov	 ecx, DWORD PTR [eax]
  0000c	51		 push	 ecx
  0000d	e8 00 00 00 00	 call	 ?_Myval@?$list@PAVIMessageObserver@@V?$allocator@PAVIMessageObserver@@@std@@@std@@KAAAPAVIMessageObserver@@PAU_Node@?$_List_nod@PAVIMessageObserver@@V?$allocator@PAVIMessageObserver@@@std@@@2@@Z ; std::list<IMessageObserver *,std::allocator<IMessageObserver *> >::_Myval
  00012	83 c4 04	 add	 esp, 4

; 162  : 			}

  00015	8b e5		 mov	 esp, ebp
  00017	5d		 pop	 ebp
  00018	c3		 ret	 0
??Dconst_iterator@?$list@PAVIMessageObserver@@V?$allocator@PAVIMessageObserver@@@std@@@std@@QBEABQAVIMessageObserver@@XZ ENDP ; std::list<IMessageObserver *,std::allocator<IMessageObserver *> >::const_iterator::operator*
; Function compile flags: /Odt
_TEXT	ENDS
;	COMDAT ??8const_iterator@?$list@PAVIMessageObserver@@V?$allocator@PAVIMessageObserver@@@std@@@std@@QBE_NABV012@@Z
_TEXT	SEGMENT
_this$ = -4						; size = 4
__Right$ = 8						; size = 4
??8const_iterator@?$list@PAVIMessageObserver@@V?$allocator@PAVIMessageObserver@@@std@@@std@@QBE_NABV012@@Z PROC NEAR ; std::list<IMessageObserver *,std::allocator<IMessageObserver *> >::const_iterator::operator==, COMDAT
; _this$ = ecx

; 196  : 			{	// test for iterator equality

  00000	55		 push	 ebp
  00001	8b ec		 mov	 ebp, esp
  00003	51		 push	 ecx
  00004	89 4d fc	 mov	 DWORD PTR _this$[ebp], ecx

; 197  : 			return (_Ptr == _Right._Ptr);

  00007	8b 45 fc	 mov	 eax, DWORD PTR _this$[ebp]
  0000a	8b 4d 08	 mov	 ecx, DWORD PTR __Right$[ebp]
  0000d	8b 00		 mov	 eax, DWORD PTR [eax]
  0000f	2b 01		 sub	 eax, DWORD PTR [ecx]
  00011	f7 d8		 neg	 eax
  00013	1b c0		 sbb	 eax, eax
  00015	40		 inc	 eax

; 198  : 			}

  00016	8b e5		 mov	 esp, ebp
  00018	5d		 pop	 ebp
  00019	c2 04 00	 ret	 4
??8const_iterator@?$list@PAVIMessageObserver@@V?$allocator@PAVIMessageObserver@@@std@@@std@@QBE_NABV012@@Z ENDP ; std::list<IMessageObserver *,std::allocator<IMessageObserver *> >::const_iterator::operator==
_TEXT	ENDS
PUBLIC	??0const_iterator@?$vector@KV?$allocator@K@std@@@std@@QAE@PAK@Z ; std::vector<unsigned long,std::allocator<unsigned long> >::const_iterator::const_iterator
; Function compile flags: /Odt
; File d:\program files (x86)\microsoft visual studio .net 2003\vc7\include\vector
;	COMDAT ??0iterator@?$vector@KV?$allocator@K@std@@@std@@QAE@PAK@Z
_TEXT	SEGMENT
_this$ = -4						; size = 4
__Ptr$ = 8						; size = 4
??0iterator@?$vector@KV?$allocator@K@std@@@std@@QAE@PAK@Z PROC NEAR ; std::vector<unsigned long,std::allocator<unsigned long> >::iterator::iterator, COMDAT
; _this$ = ecx

; 215  : 			{	// construct with pointer _Ptr

  00000	55		 push	 ebp
  00001	8b ec		 mov	 ebp, esp
  00003	51		 push	 ecx
  00004	89 4d fc	 mov	 DWORD PTR _this$[ebp], ecx
  00007	8b 45 08	 mov	 eax, DWORD PTR __Ptr$[ebp]
  0000a	50		 push	 eax
  0000b	8b 4d fc	 mov	 ecx, DWORD PTR _this$[ebp]
  0000e	e8 00 00 00 00	 call	 ??0const_iterator@?$vector@KV?$allocator@K@std@@@std@@QAE@PAK@Z ; std::vector<unsigned long,std::allocator<unsigned long> >::const_iterator::const_iterator

; 216  : 			}

  00013	8b 45 fc	 mov	 eax, DWORD PTR _this$[ebp]
  00016	8b e5		 mov	 esp, ebp
  00018	5d		 pop	 ebp
  00019	c2 04 00	 ret	 4
??0iterator@?$vector@KV?$allocator@K@std@@@std@@QAE@PAK@Z ENDP ; std::vector<unsigned long,std::allocator<unsigned long> >::iterator::iterator
; Function compile flags: /Odt
_TEXT	ENDS
;	COMDAT ??Eiterator@?$vector@KV?$allocator@K@std@@@std@@QAEAAV012@XZ
_TEXT	SEGMENT
_this$ = -4						; size = 4
??Eiterator@?$vector@KV?$allocator@K@std@@@std@@QAEAAV012@XZ PROC NEAR ; std::vector<unsigned long,std::allocator<unsigned long> >::iterator::operator++, COMDAT
; _this$ = ecx

; 229  : 			{	// preincrement

  00000	55		 push	 ebp
  00001	8b ec		 mov	 ebp, esp
  00003	51		 push	 ecx
  00004	89 4d fc	 mov	 DWORD PTR _this$[ebp], ecx

; 230  : 			++this->_Myptr;

  00007	8b 45 fc	 mov	 eax, DWORD PTR _this$[ebp]
  0000a	8b 08		 mov	 ecx, DWORD PTR [eax]
  0000c	83 c1 04	 add	 ecx, 4
  0000f	8b 55 fc	 mov	 edx, DWORD PTR _this$[ebp]
  00012	89 0a		 mov	 DWORD PTR [edx], ecx

; 231  : 			return (*this);

  00014	8b 45 fc	 mov	 eax, DWORD PTR _this$[ebp]

; 232  : 			}

  00017	8b e5		 mov	 esp, ebp
  00019	5d		 pop	 ebp
  0001a	c3		 ret	 0
??Eiterator@?$vector@KV?$allocator@K@std@@@std@@QAEAAV012@XZ ENDP ; std::vector<unsigned long,std::allocator<unsigned long> >::iterator::operator++
_TEXT	ENDS
PUBLIC	??Yiterator@?$vector@KV?$allocator@K@std@@@std@@QAEAAV012@H@Z ; std::vector<unsigned long,std::allocator<unsigned long> >::iterator::operator+=
; Function compile flags: /Odt
;	COMDAT ??Hiterator@?$vector@KV?$allocator@K@std@@@std@@QBE?AV012@H@Z
_TEXT	SEGMENT
_this$ = -8						; size = 4
__Tmp$ = -4						; size = 4
___$ReturnUdt$ = 8					; size = 4
__Off$ = 12						; size = 4
??Hiterator@?$vector@KV?$allocator@K@std@@@std@@QBE?AV012@H@Z PROC NEAR ; std::vector<unsigned long,std::allocator<unsigned long> >::iterator::operator+, COMDAT
; _this$ = ecx

; 261  : 			{	// return this + integer

  00000	55		 push	 ebp
  00001	8b ec		 mov	 ebp, esp
  00003	83 ec 08	 sub	 esp, 8
  00006	89 4d f8	 mov	 DWORD PTR _this$[ebp], ecx

; 262  : 			iterator _Tmp = *this;

  00009	8b 45 f8	 mov	 eax, DWORD PTR _this$[ebp]
  0000c	8b 08		 mov	 ecx, DWORD PTR [eax]
  0000e	89 4d fc	 mov	 DWORD PTR __Tmp$[ebp], ecx

; 263  : 			return (_Tmp += _Off);

  00011	8b 55 0c	 mov	 edx, DWORD PTR __Off$[ebp]
  00014	52		 push	 edx
  00015	8d 4d fc	 lea	 ecx, DWORD PTR __Tmp$[ebp]
  00018	e8 00 00 00 00	 call	 ??Yiterator@?$vector@KV?$allocator@K@std@@@std@@QAEAAV012@H@Z ; std::vector<unsigned long,std::allocator<unsigned long> >::iterator::operator+=
  0001d	8b 00		 mov	 eax, DWORD PTR [eax]
  0001f	8b 4d 08	 mov	 ecx, DWORD PTR ___$ReturnUdt$[ebp]
  00022	89 01		 mov	 DWORD PTR [ecx], eax
  00024	8b 45 08	 mov	 eax, DWORD PTR ___$ReturnUdt$[ebp]

; 264  : 			}

  00027	8b e5		 mov	 esp, ebp
  00029	5d		 pop	 ebp
  0002a	c2 08 00	 ret	 8
??Hiterator@?$vector@KV?$allocator@K@std@@@std@@QBE?AV012@H@Z ENDP ; std::vector<unsigned long,std::allocator<unsigned long> >::iterator::operator+
; Function compile flags: /Odt
_TEXT	ENDS
;	COMDAT ??Dconst_iterator@?$vector@KV?$allocator@K@std@@@std@@QBEABKXZ
_TEXT	SEGMENT
_this$ = -4						; size = 4
??Dconst_iterator@?$vector@KV?$allocator@K@std@@@std@@QBEABKXZ PROC NEAR ; std::vector<unsigned long,std::allocator<unsigned long> >::const_iterator::operator*, COMDAT
; _this$ = ecx

; 79   : 			{	// return designated object

  00000	55		 push	 ebp
  00001	8b ec		 mov	 ebp, esp
  00003	51		 push	 ecx
  00004	89 4d fc	 mov	 DWORD PTR _this$[ebp], ecx

; 80   : 
; 81   : 
; 82   : 			return (*_Myptr);

  00007	8b 45 fc	 mov	 eax, DWORD PTR _this$[ebp]
  0000a	8b 00		 mov	 eax, DWORD PTR [eax]

; 83   : 			}

  0000c	8b e5		 mov	 esp, ebp
  0000e	5d		 pop	 ebp
  0000f	c3		 ret	 0
??Dconst_iterator@?$vector@KV?$allocator@K@std@@@std@@QBEABKXZ ENDP ; std::vector<unsigned long,std::allocator<unsigned long> >::const_iterator::operator*
; Function compile flags: /Odt
_TEXT	ENDS
;	COMDAT ??8const_iterator@?$vector@KV?$allocator@K@std@@@std@@QBE_NABV012@@Z
_TEXT	SEGMENT
_this$ = -4						; size = 4
__Right$ = 8						; size = 4
??8const_iterator@?$vector@KV?$allocator@K@std@@@std@@QBE_NABV012@@Z PROC NEAR ; std::vector<unsigned long,std::allocator<unsigned long> >::const_iterator::operator==, COMDAT
; _this$ = ecx

; 152  : 			{	// test for iterator equality

  00000	55		 push	 ebp
  00001	8b ec		 mov	 ebp, esp
  00003	51		 push	 ecx
  00004	89 4d fc	 mov	 DWORD PTR _this$[ebp], ecx

; 153  : 
; 154  : 
; 155  : 			return (_Myptr == _Right._Myptr);

  00007	8b 45 fc	 mov	 eax, DWORD PTR _this$[ebp]
  0000a	8b 4d 08	 mov	 ecx, DWORD PTR __Right$[ebp]
  0000d	8b 00		 mov	 eax, DWORD PTR [eax]
  0000f	2b 01		 sub	 eax, DWORD PTR [ecx]
  00011	f7 d8		 neg	 eax
  00013	1b c0		 sbb	 eax, eax
  00015	40		 inc	 eax

; 156  : 			}

  00016	8b e5		 mov	 esp, ebp
  00018	5d		 pop	 ebp
  00019	c2 04 00	 ret	 4
??8const_iterator@?$vector@KV?$allocator@K@std@@@std@@QBE_NABV012@@Z ENDP ; std::vector<unsigned long,std::allocator<unsigned long> >::const_iterator::operator==
_TEXT	ENDS
PUBLIC	?max_size@?$allocator@K@std@@QBEIXZ		; std::allocator<unsigned long>::max_size
; Function compile flags: /Odt
;	COMDAT ?max_size@?$vector@KV?$allocator@K@std@@@std@@QBEIXZ
_TEXT	SEGMENT
_this$ = -4						; size = 4
?max_size@?$vector@KV?$allocator@K@std@@@std@@QBEIXZ PROC NEAR ; std::vector<unsigned long,std::allocator<unsigned long> >::max_size, COMDAT
; _this$ = ecx

; 520  : 		{	// return maximum possible length of sequence

  00000	55		 push	 ebp
  00001	8b ec		 mov	 ebp, esp
  00003	51		 push	 ecx
  00004	89 4d fc	 mov	 DWORD PTR _this$[ebp], ecx

; 521  : 		return (this->_Alval.max_size());

  00007	8b 4d fc	 mov	 ecx, DWORD PTR _this$[ebp]
  0000a	e8 00 00 00 00	 call	 ?max_size@?$allocator@K@std@@QBEIXZ ; std::allocator<unsigned long>::max_size

; 522  : 		}

  0000f	8b e5		 mov	 esp, ebp
  00011	5d		 pop	 ebp
  00012	c3		 ret	 0
?max_size@?$vector@KV?$allocator@K@std@@@std@@QBEIXZ ENDP ; std::vector<unsigned long,std::allocator<unsigned long> >::max_size
_TEXT	ENDS
PUBLIC	??$_Ucopy@PAK@?$vector@KV?$allocator@K@std@@@std@@IAEPAKPAK00@Z ; std::vector<unsigned long,std::allocator<unsigned long> >::_Ucopy<unsigned long *>
PUBLIC	??$fill@PAKK@std@@YAXPAK0ABK@Z			; std::fill<unsigned long *,unsigned long>
PUBLIC	??$copy_backward@PAKPAK@std@@YAPAKPAK00@Z	; std::copy_backward<unsigned long *,unsigned long *>
;	COMDAT xdata$x
xdata$x	SEGMENT
$T211657 DD	0ffffffffH
	DD	00H
	DD	0ffffffffH
	DD	00H
	DD	0ffffffffH
	DD	00H
	DD	0ffffffffH
	DD	00H
$T211659 DD	00H
	DD	00H
	DD	00H
	DD	FLAT:$L211651
$T211660 DD	00H
	DD	00H
	DD	00H
	DD	FLAT:$L211653
$T211658 DD	00H
	DD	00H
	DD	01H
	DD	01H
	DD	FLAT:$T211659
	DD	02H
	DD	02H
	DD	03H
	DD	01H
	DD	FLAT:$T211660
$T211655 DD	019930520H
	DD	04H
	DD	FLAT:$T211657
	DD	02H
	DD	FLAT:$T211658
	DD	2 DUP(00H)
; Function compile flags: /Odt
xdata$x	ENDS
;	COMDAT ?_Insert_n@?$vector@KV?$allocator@K@std@@@std@@IAEXViterator@12@IABK@Z
_TEXT	SEGMENT
tv240 = -52						; size = 4
tv239 = -48						; size = 4
tv85 = -44						; size = 4
_this$ = -40						; size = 4
__Oldend$209062 = -36					; size = 4
__Newvec$209041 = -32					; size = 4
__Ptr$209042 = -28					; size = 4
__Capacity$ = -24					; size = 4
__Tmp$ = -20						; size = 4
__$EHRec$ = -16						; size = 16
__Where$ = 8						; size = 4
__Count$ = 12						; size = 4
__Val$ = 16						; size = 4
?_Insert_n@?$vector@KV?$allocator@K@std@@@std@@IAEXViterator@12@IABK@Z PROC NEAR ; std::vector<unsigned long,std::allocator<unsigned long> >::_Insert_n, COMDAT
; _this$ = ecx

; 809  : 		{	// insert _Count * _Val at _Where

  00000	55		 push	 ebp
  00001	8b ec		 mov	 ebp, esp
  00003	6a ff		 push	 -1
  00005	68 00 00 00 00	 push	 __ehhandler$?_Insert_n@?$vector@KV?$allocator@K@std@@@std@@IAEXViterator@12@IABK@Z
  0000a	64 a1 00 00 00
	00		 mov	 eax, DWORD PTR fs:__except_list
  00010	50		 push	 eax
  00011	64 89 25 00 00
	00 00		 mov	 DWORD PTR fs:__except_list, esp
  00018	51		 push	 ecx
  00019	83 ec 24	 sub	 esp, 36			; 00000024H
  0001c	53		 push	 ebx
  0001d	56		 push	 esi
  0001e	57		 push	 edi
  0001f	89 65 f0	 mov	 DWORD PTR __$EHRec$[ebp], esp
  00022	89 4d d8	 mov	 DWORD PTR _this$[ebp], ecx

; 810  : 		_Ty _Tmp = _Val;	// in case _Val is in sequence

  00025	8b 45 10	 mov	 eax, DWORD PTR __Val$[ebp]
  00028	8b 08		 mov	 ecx, DWORD PTR [eax]
  0002a	89 4d ec	 mov	 DWORD PTR __Tmp$[ebp], ecx

; 811  : 		size_type _Capacity = capacity();

  0002d	8b 4d d8	 mov	 ecx, DWORD PTR _this$[ebp]
  00030	e8 00 00 00 00	 call	 ?capacity@?$vector@KV?$allocator@K@std@@@std@@QBEIXZ ; std::vector<unsigned long,std::allocator<unsigned long> >::capacity
  00035	89 45 e8	 mov	 DWORD PTR __Capacity$[ebp], eax

; 812  : 
; 813  : 		if (_Count == 0)

  00038	83 7d 0c 00	 cmp	 DWORD PTR __Count$[ebp], 0
  0003c	75 05		 jne	 SHORT $L209035

; 814  : 			;
; 815  : 		else if (max_size() - size() < _Count)

  0003e	e9 c6 02 00 00	 jmp	 $L211647
$L209035:
  00043	8b 4d d8	 mov	 ecx, DWORD PTR _this$[ebp]
  00046	e8 00 00 00 00	 call	 ?size@?$vector@KV?$allocator@K@std@@@std@@QBEIXZ ; std::vector<unsigned long,std::allocator<unsigned long> >::size
  0004b	8b f0		 mov	 esi, eax
  0004d	8b 4d d8	 mov	 ecx, DWORD PTR _this$[ebp]
  00050	e8 00 00 00 00	 call	 ?max_size@?$vector@KV?$allocator@K@std@@@std@@QBEIXZ ; std::vector<unsigned long,std::allocator<unsigned long> >::max_size
  00055	2b c6		 sub	 eax, esi
  00057	3b 45 0c	 cmp	 eax, DWORD PTR __Count$[ebp]
  0005a	73 0d		 jae	 SHORT $L209037

; 816  : 			_Xlen();	// result too long

  0005c	8b 4d d8	 mov	 ecx, DWORD PTR _this$[ebp]
  0005f	e8 00 00 00 00	 call	 ?_Xlen@?$vector@KV?$allocator@K@std@@@std@@IBEXXZ ; std::vector<unsigned long,std::allocator<unsigned long> >::_Xlen

; 817  : 		else if (_Capacity < size() + _Count)

  00064	e9 a0 02 00 00	 jmp	 $L211647
$L209037:
  00069	8b 4d d8	 mov	 ecx, DWORD PTR _this$[ebp]
  0006c	e8 00 00 00 00	 call	 ?size@?$vector@KV?$allocator@K@std@@@std@@QBEIXZ ; std::vector<unsigned long,std::allocator<unsigned long> >::size
  00071	03 45 0c	 add	 eax, DWORD PTR __Count$[ebp]
  00074	39 45 e8	 cmp	 DWORD PTR __Capacity$[ebp], eax
  00077	0f 83 66 01 00
	00		 jae	 $L209039

; 818  : 			{	// not enough room, reallocate
; 819  : 			_Capacity = max_size() - _Capacity / 2 < _Capacity
; 820  : 				? 0 : _Capacity + _Capacity / 2;	// try to grow by 50%

  0007d	8b 75 e8	 mov	 esi, DWORD PTR __Capacity$[ebp]
  00080	d1 ee		 shr	 esi, 1
  00082	8b 4d d8	 mov	 ecx, DWORD PTR _this$[ebp]
  00085	e8 00 00 00 00	 call	 ?max_size@?$vector@KV?$allocator@K@std@@@std@@QBEIXZ ; std::vector<unsigned long,std::allocator<unsigned long> >::max_size
  0008a	2b c6		 sub	 eax, esi
  0008c	3b 45 e8	 cmp	 eax, DWORD PTR __Capacity$[ebp]
  0008f	73 09		 jae	 SHORT $L211648
  00091	c7 45 d4 00 00
	00 00		 mov	 DWORD PTR tv85[ebp], 0
  00098	eb 0b		 jmp	 SHORT $L211649
$L211648:
  0009a	8b 55 e8	 mov	 edx, DWORD PTR __Capacity$[ebp]
  0009d	d1 ea		 shr	 edx, 1
  0009f	03 55 e8	 add	 edx, DWORD PTR __Capacity$[ebp]
  000a2	89 55 d4	 mov	 DWORD PTR tv85[ebp], edx
$L211649:
  000a5	8b 45 d4	 mov	 eax, DWORD PTR tv85[ebp]
  000a8	89 45 e8	 mov	 DWORD PTR __Capacity$[ebp], eax

; 821  : 			if (_Capacity < size() + _Count)

  000ab	8b 4d d8	 mov	 ecx, DWORD PTR _this$[ebp]
  000ae	e8 00 00 00 00	 call	 ?size@?$vector@KV?$allocator@K@std@@@std@@QBEIXZ ; std::vector<unsigned long,std::allocator<unsigned long> >::size
  000b3	03 45 0c	 add	 eax, DWORD PTR __Count$[ebp]
  000b6	39 45 e8	 cmp	 DWORD PTR __Capacity$[ebp], eax
  000b9	73 0e		 jae	 SHORT $L209040

; 822  : 				_Capacity = size() + _Count;

  000bb	8b 4d d8	 mov	 ecx, DWORD PTR _this$[ebp]
  000be	e8 00 00 00 00	 call	 ?size@?$vector@KV?$allocator@K@std@@@std@@QBEIXZ ; std::vector<unsigned long,std::allocator<unsigned long> >::size
  000c3	03 45 0c	 add	 eax, DWORD PTR __Count$[ebp]
  000c6	89 45 e8	 mov	 DWORD PTR __Capacity$[ebp], eax
$L209040:

; 823  : 			pointer _Newvec = this->_Alval.allocate(_Capacity);

  000c9	8b 4d e8	 mov	 ecx, DWORD PTR __Capacity$[ebp]
  000cc	51		 push	 ecx
  000cd	8b 4d d8	 mov	 ecx, DWORD PTR _this$[ebp]
  000d0	e8 00 00 00 00	 call	 ?allocate@?$allocator@K@std@@QAEPAKI@Z ; std::allocator<unsigned long>::allocate
  000d5	89 45 e0	 mov	 DWORD PTR __Newvec$209041[ebp], eax

; 824  : 			pointer _Ptr = _Newvec;

  000d8	8b 55 e0	 mov	 edx, DWORD PTR __Newvec$209041[ebp]
  000db	89 55 e4	 mov	 DWORD PTR __Ptr$209042[ebp], edx

; 825  : 
; 826  : 			_TRY_BEGIN

  000de	c7 45 fc 00 00
	00 00		 mov	 DWORD PTR __$EHRec$[ebp+12], 0

; 827  : 			_Ptr = _Ucopy(_Myfirst, _ITER_BASE(_Where),
; 828  : 				_Newvec);	// copy prefix

  000e5	8b 45 e0	 mov	 eax, DWORD PTR __Newvec$209041[ebp]
  000e8	50		 push	 eax
  000e9	8b 4d 08	 mov	 ecx, DWORD PTR __Where$[ebp]
  000ec	51		 push	 ecx
  000ed	8b 55 d8	 mov	 edx, DWORD PTR _this$[ebp]
  000f0	8b 42 04	 mov	 eax, DWORD PTR [edx+4]
  000f3	50		 push	 eax
  000f4	8b 4d d8	 mov	 ecx, DWORD PTR _this$[ebp]
  000f7	e8 00 00 00 00	 call	 ??$_Ucopy@PAK@?$vector@KV?$allocator@K@std@@@std@@IAEPAKPAK00@Z ; std::vector<unsigned long,std::allocator<unsigned long> >::_Ucopy<unsigned long *>
  000fc	89 45 d0	 mov	 DWORD PTR tv239[ebp], eax
  000ff	8b 4d d0	 mov	 ecx, DWORD PTR tv239[ebp]
  00102	89 4d e4	 mov	 DWORD PTR __Ptr$209042[ebp], ecx

; 829  : 			_Ptr = _Ufill(_Ptr, _Count, _Tmp);	// add new stuff

  00105	8d 55 ec	 lea	 edx, DWORD PTR __Tmp$[ebp]
  00108	52		 push	 edx
  00109	8b 45 0c	 mov	 eax, DWORD PTR __Count$[ebp]
  0010c	50		 push	 eax
  0010d	8b 4d e4	 mov	 ecx, DWORD PTR __Ptr$209042[ebp]
  00110	51		 push	 ecx
  00111	8b 4d d8	 mov	 ecx, DWORD PTR _this$[ebp]
  00114	e8 00 00 00 00	 call	 ?_Ufill@?$vector@KV?$allocator@K@std@@@std@@IAEPAKPAKIABK@Z ; std::vector<unsigned long,std::allocator<unsigned long> >::_Ufill
  00119	89 45 cc	 mov	 DWORD PTR tv240[ebp], eax
  0011c	8b 55 cc	 mov	 edx, DWORD PTR tv240[ebp]
  0011f	89 55 e4	 mov	 DWORD PTR __Ptr$209042[ebp], edx

; 830  : 			_Ucopy(_ITER_BASE(_Where), _Mylast, _Ptr);	// copy suffix

  00122	8b 45 e4	 mov	 eax, DWORD PTR __Ptr$209042[ebp]
  00125	50		 push	 eax
  00126	8b 4d d8	 mov	 ecx, DWORD PTR _this$[ebp]
  00129	8b 51 08	 mov	 edx, DWORD PTR [ecx+8]
  0012c	52		 push	 edx
  0012d	8b 45 08	 mov	 eax, DWORD PTR __Where$[ebp]
  00130	50		 push	 eax
  00131	8b 4d d8	 mov	 ecx, DWORD PTR _this$[ebp]
  00134	e8 00 00 00 00	 call	 ??$_Ucopy@PAK@?$vector@KV?$allocator@K@std@@@std@@IAEPAKPAK00@Z ; std::vector<unsigned long,std::allocator<unsigned long> >::_Ucopy<unsigned long *>
  00139	eb 29		 jmp	 SHORT $L211650
$L211651:

; 831  : 			_CATCH_ALL
; 832  : 			_Destroy(_Newvec, _Ptr);

  0013b	8b 4d e4	 mov	 ecx, DWORD PTR __Ptr$209042[ebp]
  0013e	51		 push	 ecx
  0013f	8b 55 e0	 mov	 edx, DWORD PTR __Newvec$209041[ebp]
  00142	52		 push	 edx
  00143	8b 4d d8	 mov	 ecx, DWORD PTR _this$[ebp]
  00146	e8 00 00 00 00	 call	 ?_Destroy@?$vector@KV?$allocator@K@std@@@std@@IAEXPAK0@Z ; std::vector<unsigned long,std::allocator<unsigned long> >::_Destroy

; 833  : 			this->_Alval.deallocate(_Newvec, _Capacity);

  0014b	8b 45 e8	 mov	 eax, DWORD PTR __Capacity$[ebp]
  0014e	50		 push	 eax
  0014f	8b 4d e0	 mov	 ecx, DWORD PTR __Newvec$209041[ebp]
  00152	51		 push	 ecx
  00153	8b 4d d8	 mov	 ecx, DWORD PTR _this$[ebp]
  00156	e8 00 00 00 00	 call	 ?deallocate@?$allocator@K@std@@QAEXPAKI@Z ; std::allocator<unsigned long>::deallocate

; 834  : 			_RERAISE;

  0015b	6a 00		 push	 0
  0015d	6a 00		 push	 0
  0015f	e8 00 00 00 00	 call	 __CxxThrowException@8
$L211650:

; 835  : 			_CATCH_END

  00164	c7 45 fc ff ff
	ff ff		 mov	 DWORD PTR __$EHRec$[ebp+12], -1

; 836  : 
; 837  : 			_Count += size();

  0016b	8b 4d d8	 mov	 ecx, DWORD PTR _this$[ebp]
  0016e	e8 00 00 00 00	 call	 ?size@?$vector@KV?$allocator@K@std@@@std@@QBEIXZ ; std::vector<unsigned long,std::allocator<unsigned long> >::size
  00173	03 45 0c	 add	 eax, DWORD PTR __Count$[ebp]
  00176	89 45 0c	 mov	 DWORD PTR __Count$[ebp], eax

; 838  : 			if (_Myfirst != 0)

  00179	8b 55 d8	 mov	 edx, DWORD PTR _this$[ebp]
  0017c	83 7a 04 00	 cmp	 DWORD PTR [edx+4], 0
  00180	74 35		 je	 SHORT $L209049

; 839  : 				{	// destroy and deallocate old array
; 840  : 				_Destroy(_Myfirst, _Mylast);

  00182	8b 45 d8	 mov	 eax, DWORD PTR _this$[ebp]
  00185	8b 48 08	 mov	 ecx, DWORD PTR [eax+8]
  00188	51		 push	 ecx
  00189	8b 55 d8	 mov	 edx, DWORD PTR _this$[ebp]
  0018c	8b 42 04	 mov	 eax, DWORD PTR [edx+4]
  0018f	50		 push	 eax
  00190	8b 4d d8	 mov	 ecx, DWORD PTR _this$[ebp]
  00193	e8 00 00 00 00	 call	 ?_Destroy@?$vector@KV?$allocator@K@std@@@std@@IAEXPAK0@Z ; std::vector<unsigned long,std::allocator<unsigned long> >::_Destroy

; 841  : 				this->_Alval.deallocate(_Myfirst, _Myend - _Myfirst);

  00198	8b 4d d8	 mov	 ecx, DWORD PTR _this$[ebp]
  0019b	8b 55 d8	 mov	 edx, DWORD PTR _this$[ebp]
  0019e	8b 41 0c	 mov	 eax, DWORD PTR [ecx+12]
  001a1	2b 42 04	 sub	 eax, DWORD PTR [edx+4]
  001a4	c1 f8 02	 sar	 eax, 2
  001a7	50		 push	 eax
  001a8	8b 4d d8	 mov	 ecx, DWORD PTR _this$[ebp]
  001ab	8b 51 04	 mov	 edx, DWORD PTR [ecx+4]
  001ae	52		 push	 edx
  001af	8b 4d d8	 mov	 ecx, DWORD PTR _this$[ebp]
  001b2	e8 00 00 00 00	 call	 ?deallocate@?$allocator@K@std@@QAEXPAKI@Z ; std::allocator<unsigned long>::deallocate
$L209049:

; 842  : 				}
; 843  : 			_Myend = _Newvec + _Capacity;

  001b7	8b 45 e8	 mov	 eax, DWORD PTR __Capacity$[ebp]
  001ba	8b 4d e0	 mov	 ecx, DWORD PTR __Newvec$209041[ebp]
  001bd	8d 14 81	 lea	 edx, DWORD PTR [ecx+eax*4]
  001c0	8b 45 d8	 mov	 eax, DWORD PTR _this$[ebp]
  001c3	89 50 0c	 mov	 DWORD PTR [eax+12], edx

; 844  : 			_Mylast = _Newvec + _Count;

  001c6	8b 4d 0c	 mov	 ecx, DWORD PTR __Count$[ebp]
  001c9	8b 55 e0	 mov	 edx, DWORD PTR __Newvec$209041[ebp]
  001cc	8d 04 8a	 lea	 eax, DWORD PTR [edx+ecx*4]
  001cf	8b 4d d8	 mov	 ecx, DWORD PTR _this$[ebp]
  001d2	89 41 08	 mov	 DWORD PTR [ecx+8], eax

; 845  : 			_Myfirst = _Newvec;

  001d5	8b 55 d8	 mov	 edx, DWORD PTR _this$[ebp]
  001d8	8b 45 e0	 mov	 eax, DWORD PTR __Newvec$209041[ebp]
  001db	89 42 04	 mov	 DWORD PTR [edx+4], eax

; 846  : 			}
; 847  : 		else if ((size_type)(_Mylast - _ITER_BASE(_Where)) < _Count)

  001de	e9 26 01 00 00	 jmp	 $L211647
$L209039:
  001e3	8b 4d d8	 mov	 ecx, DWORD PTR _this$[ebp]
  001e6	8b 51 08	 mov	 edx, DWORD PTR [ecx+8]
  001e9	2b 55 08	 sub	 edx, DWORD PTR __Where$[ebp]
  001ec	c1 fa 02	 sar	 edx, 2
  001ef	3b 55 0c	 cmp	 edx, DWORD PTR __Count$[ebp]
  001f2	0f 83 ad 00 00
	00		 jae	 $L209052

; 848  : 			{	// new stuff spills off end
; 849  : 			_Ucopy(_ITER_BASE(_Where), _Mylast,
; 850  : 				_ITER_BASE(_Where) + _Count);	// copy suffix

  001f8	8b 45 0c	 mov	 eax, DWORD PTR __Count$[ebp]
  001fb	8b 4d 08	 mov	 ecx, DWORD PTR __Where$[ebp]
  001fe	8d 14 81	 lea	 edx, DWORD PTR [ecx+eax*4]
  00201	52		 push	 edx
  00202	8b 45 d8	 mov	 eax, DWORD PTR _this$[ebp]
  00205	8b 48 08	 mov	 ecx, DWORD PTR [eax+8]
  00208	51		 push	 ecx
  00209	8b 55 08	 mov	 edx, DWORD PTR __Where$[ebp]
  0020c	52		 push	 edx
  0020d	8b 4d d8	 mov	 ecx, DWORD PTR _this$[ebp]
  00210	e8 00 00 00 00	 call	 ??$_Ucopy@PAK@?$vector@KV?$allocator@K@std@@@std@@IAEPAKPAK00@Z ; std::vector<unsigned long,std::allocator<unsigned long> >::_Ucopy<unsigned long *>

; 851  : 
; 852  : 			_TRY_BEGIN

  00215	c7 45 fc 02 00
	00 00		 mov	 DWORD PTR __$EHRec$[ebp+12], 2

; 853  : 			_Ufill(_Mylast, _Count - (_Mylast - _ITER_BASE(_Where)),
; 854  : 				_Tmp);	// insert new stuff off end

  0021c	8d 45 ec	 lea	 eax, DWORD PTR __Tmp$[ebp]
  0021f	50		 push	 eax
  00220	8b 4d d8	 mov	 ecx, DWORD PTR _this$[ebp]
  00223	8b 51 08	 mov	 edx, DWORD PTR [ecx+8]
  00226	2b 55 08	 sub	 edx, DWORD PTR __Where$[ebp]
  00229	c1 fa 02	 sar	 edx, 2
  0022c	8b 45 0c	 mov	 eax, DWORD PTR __Count$[ebp]
  0022f	2b c2		 sub	 eax, edx
  00231	50		 push	 eax
  00232	8b 4d d8	 mov	 ecx, DWORD PTR _this$[ebp]
  00235	8b 51 08	 mov	 edx, DWORD PTR [ecx+8]
  00238	52		 push	 edx
  00239	8b 4d d8	 mov	 ecx, DWORD PTR _this$[ebp]
  0023c	e8 00 00 00 00	 call	 ?_Ufill@?$vector@KV?$allocator@K@std@@@std@@IAEPAKPAKIABK@Z ; std::vector<unsigned long,std::allocator<unsigned long> >::_Ufill
  00241	eb 28		 jmp	 SHORT $L211652
$L211653:

; 855  : 			_CATCH_ALL
; 856  : 			_Destroy(_ITER_BASE(_Where) + _Count, _Mylast + _Count);

  00243	8b 45 d8	 mov	 eax, DWORD PTR _this$[ebp]
  00246	8b 48 08	 mov	 ecx, DWORD PTR [eax+8]
  00249	8b 55 0c	 mov	 edx, DWORD PTR __Count$[ebp]
  0024c	8d 04 91	 lea	 eax, DWORD PTR [ecx+edx*4]
  0024f	50		 push	 eax
  00250	8b 4d 0c	 mov	 ecx, DWORD PTR __Count$[ebp]
  00253	8b 55 08	 mov	 edx, DWORD PTR __Where$[ebp]
  00256	8d 04 8a	 lea	 eax, DWORD PTR [edx+ecx*4]
  00259	50		 push	 eax
  0025a	8b 4d d8	 mov	 ecx, DWORD PTR _this$[ebp]
  0025d	e8 00 00 00 00	 call	 ?_Destroy@?$vector@KV?$allocator@K@std@@@std@@IAEXPAK0@Z ; std::vector<unsigned long,std::allocator<unsigned long> >::_Destroy

; 857  : 			_RERAISE;

  00262	6a 00		 push	 0
  00264	6a 00		 push	 0
  00266	e8 00 00 00 00	 call	 __CxxThrowException@8
$L211652:

; 858  : 			_CATCH_END

  0026b	c7 45 fc ff ff
	ff ff		 mov	 DWORD PTR __$EHRec$[ebp+12], -1

; 859  : 
; 860  : 			_Mylast += _Count;

  00272	8b 4d d8	 mov	 ecx, DWORD PTR _this$[ebp]
  00275	8b 51 08	 mov	 edx, DWORD PTR [ecx+8]
  00278	8b 45 0c	 mov	 eax, DWORD PTR __Count$[ebp]
  0027b	8d 0c 82	 lea	 ecx, DWORD PTR [edx+eax*4]
  0027e	8b 55 d8	 mov	 edx, DWORD PTR _this$[ebp]
  00281	89 4a 08	 mov	 DWORD PTR [edx+8], ecx

; 861  : 			fill(_ITER_BASE(_Where), _Mylast - _Count,
; 862  : 				_Tmp);	// insert up to old end

  00284	8d 45 ec	 lea	 eax, DWORD PTR __Tmp$[ebp]
  00287	50		 push	 eax
  00288	8b 4d 0c	 mov	 ecx, DWORD PTR __Count$[ebp]
  0028b	c1 e1 02	 shl	 ecx, 2
  0028e	8b 55 d8	 mov	 edx, DWORD PTR _this$[ebp]
  00291	8b 42 08	 mov	 eax, DWORD PTR [edx+8]
  00294	2b c1		 sub	 eax, ecx
  00296	50		 push	 eax
  00297	8b 4d 08	 mov	 ecx, DWORD PTR __Where$[ebp]
  0029a	51		 push	 ecx
  0029b	e8 00 00 00 00	 call	 ??$fill@PAKK@std@@YAXPAK0ABK@Z ; std::fill<unsigned long *,unsigned long>
  002a0	83 c4 0c	 add	 esp, 12			; 0000000cH

; 863  : 			}
; 864  : 		else

  002a3	eb 64		 jmp	 SHORT $L211647
$L209052:

; 865  : 			{	// new stuff can all be assigned
; 866  : 			pointer _Oldend = _Mylast;

  002a5	8b 55 d8	 mov	 edx, DWORD PTR _this$[ebp]
  002a8	8b 42 08	 mov	 eax, DWORD PTR [edx+8]
  002ab	89 45 dc	 mov	 DWORD PTR __Oldend$209062[ebp], eax

; 867  : 			_Mylast = _Ucopy(_Oldend - _Count, _Oldend,
; 868  : 				_Mylast);	// copy suffix

  002ae	8b 4d d8	 mov	 ecx, DWORD PTR _this$[ebp]
  002b1	8b 51 08	 mov	 edx, DWORD PTR [ecx+8]
  002b4	52		 push	 edx
  002b5	8b 45 dc	 mov	 eax, DWORD PTR __Oldend$209062[ebp]
  002b8	50		 push	 eax
  002b9	8b 4d 0c	 mov	 ecx, DWORD PTR __Count$[ebp]
  002bc	c1 e1 02	 shl	 ecx, 2
  002bf	8b 55 dc	 mov	 edx, DWORD PTR __Oldend$209062[ebp]
  002c2	2b d1		 sub	 edx, ecx
  002c4	52		 push	 edx
  002c5	8b 4d d8	 mov	 ecx, DWORD PTR _this$[ebp]
  002c8	e8 00 00 00 00	 call	 ??$_Ucopy@PAK@?$vector@KV?$allocator@K@std@@@std@@IAEPAKPAK00@Z ; std::vector<unsigned long,std::allocator<unsigned long> >::_Ucopy<unsigned long *>
  002cd	8b 4d d8	 mov	 ecx, DWORD PTR _this$[ebp]
  002d0	89 41 08	 mov	 DWORD PTR [ecx+8], eax

; 869  : 			copy_backward(_ITER_BASE(_Where), _Oldend - _Count,
; 870  : 				_Oldend);	// copy hole

  002d3	8b 55 dc	 mov	 edx, DWORD PTR __Oldend$209062[ebp]
  002d6	52		 push	 edx
  002d7	8b 45 0c	 mov	 eax, DWORD PTR __Count$[ebp]
  002da	c1 e0 02	 shl	 eax, 2
  002dd	8b 4d dc	 mov	 ecx, DWORD PTR __Oldend$209062[ebp]
  002e0	2b c8		 sub	 ecx, eax
  002e2	51		 push	 ecx
  002e3	8b 55 08	 mov	 edx, DWORD PTR __Where$[ebp]
  002e6	52		 push	 edx
  002e7	e8 00 00 00 00	 call	 ??$copy_backward@PAKPAK@std@@YAPAKPAK00@Z ; std::copy_backward<unsigned long *,unsigned long *>
  002ec	83 c4 0c	 add	 esp, 12			; 0000000cH

; 871  : 			fill(_ITER_BASE(_Where), _ITER_BASE(_Where) + _Count,
; 872  : 				_Tmp);	// insert into hole

  002ef	8d 45 ec	 lea	 eax, DWORD PTR __Tmp$[ebp]
  002f2	50		 push	 eax
  002f3	8b 4d 0c	 mov	 ecx, DWORD PTR __Count$[ebp]
  002f6	8b 55 08	 mov	 edx, DWORD PTR __Where$[ebp]
  002f9	8d 04 8a	 lea	 eax, DWORD PTR [edx+ecx*4]
  002fc	50		 push	 eax
  002fd	8b 4d 08	 mov	 ecx, DWORD PTR __Where$[ebp]
  00300	51		 push	 ecx
  00301	e8 00 00 00 00	 call	 ??$fill@PAKK@std@@YAXPAK0ABK@Z ; std::fill<unsigned long *,unsigned long>
  00306	83 c4 0c	 add	 esp, 12			; 0000000cH
$L211647:

; 873  : 			}
; 874  : 		}

  00309	8b 4d f4	 mov	 ecx, DWORD PTR __$EHRec$[ebp+4]
  0030c	64 89 0d 00 00
	00 00		 mov	 DWORD PTR fs:__except_list, ecx
  00313	5f		 pop	 edi
  00314	5e		 pop	 esi
  00315	5b		 pop	 ebx
  00316	8b e5		 mov	 esp, ebp
  00318	5d		 pop	 ebp
  00319	c2 0c 00	 ret	 12			; 0000000cH
_TEXT	ENDS
;	COMDAT text$x
text$x	SEGMENT
__ehhandler$?_Insert_n@?$vector@KV?$allocator@K@std@@@std@@IAEXViterator@12@IABK@Z:
  00000	b8 00 00 00 00	 mov	 eax, OFFSET FLAT:$T211655
  00005	e9 00 00 00 00	 jmp	 ___CxxFrameHandler
text$x	ENDS
?_Insert_n@?$vector@KV?$allocator@K@std@@@std@@IAEXViterator@12@IABK@Z ENDP ; std::vector<unsigned long,std::allocator<unsigned long> >::_Insert_n
PUBLIC	??_R0?AVlogic_error@std@@@8			; std::logic_error `RTTI Type Descriptor'
PUBLIC	__CT??_R0?AVlogic_error@std@@@8??0logic_error@std@@QAE@ABV01@@Z40
PUBLIC	??_R0?AVexception@@@8				; exception `RTTI Type Descriptor'
PUBLIC	__CT??_R0?AVexception@@@8??0exception@@QAE@ABV0@@Z12
PUBLIC	??_C@_0BD@OLBABOEK@vector?$DMT?$DO?5too?5long?$AA@ ; `string'
PUBLIC	??_R0?AVlength_error@std@@@8			; std::length_error `RTTI Type Descriptor'
PUBLIC	??0logic_error@std@@QAE@ABV01@@Z		; std::logic_error::logic_error
PUBLIC	__TI3?AVlength_error@std@@
PUBLIC	__CTA3?AVlength_error@std@@
PUBLIC	__CT??_R0?AVlength_error@std@@@8??0length_error@std@@QAE@ABV01@@Z40
PUBLIC	??0length_error@std@@QAE@ABV?$basic_string@DU?$char_traits@D@std@@V?$allocator@D@2@@1@@Z ; std::length_error::length_error
PUBLIC	??1length_error@std@@UAE@XZ			; std::length_error::~length_error
PUBLIC	??0length_error@std@@QAE@ABV01@@Z		; std::length_error::length_error
EXTRN	??0exception@@QAE@ABV0@@Z:NEAR			; exception::exception
;	COMDAT xdata$x
xdata$x	SEGMENT
$T211671 DD	0ffffffffH
	DD	FLAT:$L211667
$T211669 DD	019930520H
	DD	01H
	DD	FLAT:$T211671
	DD	2 DUP(00H)
	DD	2 DUP(00H)
xdata$x	ENDS
;	COMDAT ??_C@_0BD@OLBABOEK@vector?$DMT?$DO?5too?5long?$AA@
CONST	SEGMENT
??_C@_0BD@OLBABOEK@vector?$DMT?$DO?5too?5long?$AA@ DB 'vector<T> too long'
	DB	00H						; `string'
CONST	ENDS
;	COMDAT __TI3?AVlength_error@std@@
xdata$x	SEGMENT
__TI3?AVlength_error@std@@ DD 00H
	DD	FLAT:??1length_error@std@@UAE@XZ
	DD	00H
	DD	FLAT:__CTA3?AVlength_error@std@@
xdata$x	ENDS
;	COMDAT __CTA3?AVlength_error@std@@
xdata$x	SEGMENT
__CTA3?AVlength_error@std@@ DD 03H
	DD	FLAT:__CT??_R0?AVlength_error@std@@@8??0length_error@std@@QAE@ABV01@@Z40
	DD	FLAT:__CT??_R0?AVlogic_error@std@@@8??0logic_error@std@@QAE@ABV01@@Z40
	DD	FLAT:__CT??_R0?AVexception@@@8??0exception@@QAE@ABV0@@Z12
xdata$x	ENDS
;	COMDAT __CT??_R0?AVlength_error@std@@@8??0length_error@std@@QAE@ABV01@@Z40
xdata$x	SEGMENT
__CT??_R0?AVlength_error@std@@@8??0length_error@std@@QAE@ABV01@@Z40 DD 00H
	DD	FLAT:??_R0?AVlength_error@std@@@8
	DD	00H
	DD	0ffffffffH
	ORG $+4
	DD	028H
	DD	FLAT:??0length_error@std@@QAE@ABV01@@Z
xdata$x	ENDS
;	COMDAT ??_R0?AVlength_error@std@@@8
_DATA	SEGMENT
??_R0?AVlength_error@std@@@8 DD FLAT:??_7type_info@@6B@	; std::length_error `RTTI Type Descriptor'
	DD	00H
	DB	'.?AVlength_error@std@@', 00H
	ORG $-31
	DD	FLAT:??_7type_info@@6B@
	DD	00H
	DB	'.?AVlength_error@std@@', 00H
_DATA	ENDS
;	COMDAT __CT??_R0?AVlogic_error@std@@@8??0logic_error@std@@QAE@ABV01@@Z40
xdata$x	SEGMENT
__CT??_R0?AVlogic_error@std@@@8??0logic_error@std@@QAE@ABV01@@Z40 DD 00H
	DD	FLAT:??_R0?AVlogic_error@std@@@8
	DD	00H
	DD	0ffffffffH
	ORG $+4
	DD	028H
	DD	FLAT:??0logic_error@std@@QAE@ABV01@@Z
xdata$x	ENDS
;	COMDAT ??_R0?AVlogic_error@std@@@8
_DATA	SEGMENT
??_R0?AVlogic_error@std@@@8 DD FLAT:??_7type_info@@6B@	; std::logic_error `RTTI Type Descriptor'
	DD	00H
	DB	'.?AVlogic_error@std@@', 00H
	ORG $-30
	DD	FLAT:??_7type_info@@6B@
	DD	00H
	DB	'.?AVlogic_error@std@@', 00H
_DATA	ENDS
;	COMDAT __CT??_R0?AVexception@@@8??0exception@@QAE@ABV0@@Z12
xdata$x	SEGMENT
__CT??_R0?AVexception@@@8??0exception@@QAE@ABV0@@Z12 DD 00H
	DD	FLAT:??_R0?AVexception@@@8
	DD	00H
	DD	0ffffffffH
	ORG $+4
	DD	0cH
	DD	FLAT:??0exception@@QAE@ABV0@@Z
xdata$x	ENDS
;	COMDAT ??_R0?AVexception@@@8
_DATA	SEGMENT
??_R0?AVexception@@@8 DD FLAT:??_7type_info@@6B@	; exception `RTTI Type Descriptor'
	DD	00H
	DB	'.?AVexception@@', 00H
	ORG $-24
	DD	FLAT:??_7type_info@@6B@
	DD	00H
	DB	'.?AVexception@@', 00H
; Function compile flags: /Odt
_DATA	ENDS
;	COMDAT ?_Xlen@?$vector@KV?$allocator@K@std@@@std@@IBEXXZ
_TEXT	SEGMENT
_this$ = -84						; size = 4
$T211666 = -80						; size = 28
$T211665 = -52						; size = 40
__$EHRec$ = -12						; size = 12
?_Xlen@?$vector@KV?$allocator@K@std@@@std@@IBEXXZ PROC NEAR ; std::vector<unsigned long,std::allocator<unsigned long> >::_Xlen, COMDAT
; _this$ = ecx

; 883  : 		{	// report a length_error

  00000	55		 push	 ebp
  00001	8b ec		 mov	 ebp, esp
  00003	6a ff		 push	 -1
  00005	68 00 00 00 00	 push	 __ehhandler$?_Xlen@?$vector@KV?$allocator@K@std@@@std@@IBEXXZ
  0000a	64 a1 00 00 00
	00		 mov	 eax, DWORD PTR fs:__except_list
  00010	50		 push	 eax
  00011	64 89 25 00 00
	00 00		 mov	 DWORD PTR fs:__except_list, esp
  00018	83 ec 48	 sub	 esp, 72			; 00000048H
  0001b	89 4d ac	 mov	 DWORD PTR _this$[ebp], ecx

; 884  : 		_THROW(length_error, "vector<T> too long");

  0001e	68 00 00 00 00	 push	 OFFSET FLAT:??_C@_0BD@OLBABOEK@vector?$DMT?$DO?5too?5long?$AA@
  00023	8d 4d b0	 lea	 ecx, DWORD PTR $T211666[ebp]
  00026	ff 15 00 00 00
	00		 call	 DWORD PTR __imp_??0?$basic_string@DU?$char_traits@D@std@@V?$allocator@D@2@@std@@QAE@PBD@Z
  0002c	c7 45 fc 00 00
	00 00		 mov	 DWORD PTR __$EHRec$[ebp+8], 0
  00033	8d 45 b0	 lea	 eax, DWORD PTR $T211666[ebp]
  00036	50		 push	 eax
  00037	8d 4d cc	 lea	 ecx, DWORD PTR $T211665[ebp]
  0003a	e8 00 00 00 00	 call	 ??0length_error@std@@QAE@ABV?$basic_string@DU?$char_traits@D@std@@V?$allocator@D@2@@1@@Z ; std::length_error::length_error
  0003f	68 00 00 00 00	 push	 OFFSET FLAT:__TI3?AVlength_error@std@@
  00044	8d 4d cc	 lea	 ecx, DWORD PTR $T211665[ebp]
  00047	51		 push	 ecx
  00048	e8 00 00 00 00	 call	 __CxxThrowException@8
$L211664:

; 885  : 		}

  0004d	8b 4d f4	 mov	 ecx, DWORD PTR __$EHRec$[ebp]
  00050	64 89 0d 00 00
	00 00		 mov	 DWORD PTR fs:__except_list, ecx
  00057	8b e5		 mov	 esp, ebp
  00059	5d		 pop	 ebp
  0005a	c3		 ret	 0
_TEXT	ENDS
;	COMDAT text$x
text$x	SEGMENT
$L211667:
  00000	8d 4d b0	 lea	 ecx, DWORD PTR $T211666[ebp]
  00003	ff 25 00 00 00
	00		 jmp	 DWORD PTR __imp_??1?$basic_string@DU?$char_traits@D@std@@V?$allocator@D@2@@std@@QAE@XZ
__ehhandler$?_Xlen@?$vector@KV?$allocator@K@std@@@std@@IBEXXZ:
  00009	b8 00 00 00 00	 mov	 eax, OFFSET FLAT:$T211669
  0000e	e9 00 00 00 00	 jmp	 ___CxxFrameHandler
text$x	ENDS
?_Xlen@?$vector@KV?$allocator@K@std@@@std@@IBEXXZ ENDP	; std::vector<unsigned long,std::allocator<unsigned long> >::_Xlen
PUBLIC	??_R1A@?0A@A@logic_error@std@@8			; std::logic_error::`RTTI Base Class Descriptor at (0,-1,0,0)'
PUBLIC	??_R1A@?0A@A@exception@@8			; exception::`RTTI Base Class Descriptor at (0,-1,0,0)'
PUBLIC	??_R4length_error@std@@6B@			; std::length_error::`RTTI Complete Object Locator'
PUBLIC	??_R3length_error@std@@8			; std::length_error::`RTTI Class Hierarchy Descriptor'
PUBLIC	??_R2length_error@std@@8			; std::length_error::`RTTI Base Class Array'
PUBLIC	??_R1A@?0A@A@length_error@std@@8		; std::length_error::`RTTI Base Class Descriptor at (0,-1,0,0)'
PUBLIC	?what@logic_error@std@@UBEPBDXZ			; std::logic_error::what
PUBLIC	??_7length_error@std@@6B@			; std::length_error::`vftable'
PUBLIC	??_Glength_error@std@@UAEPAXI@Z			; std::length_error::`scalar deleting destructor'
EXTRN	??_Elength_error@std@@UAEPAXI@Z:NEAR		; std::length_error::`vector deleting destructor'
;	COMDAT ??_7length_error@std@@6B@
CONST	SEGMENT
??_7length_error@std@@6B@ DD FLAT:??_R4length_error@std@@6B@ ; std::length_error::`vftable'
	DD	FLAT:??_Elength_error@std@@UAEPAXI@Z
	DD	FLAT:?what@logic_error@std@@UBEPBDXZ
CONST	ENDS
;	COMDAT ??_R4length_error@std@@6B@
rdata$r	SEGMENT
??_R4length_error@std@@6B@ DD 00H			; std::length_error::`RTTI Complete Object Locator'
	DD	00H
	DD	00H
	DD	FLAT:??_R0?AVlength_error@std@@@8
	DD	FLAT:??_R3length_error@std@@8
rdata$r	ENDS
;	COMDAT ??_R3length_error@std@@8
rdata$r	SEGMENT
??_R3length_error@std@@8 DD 00H				; std::length_error::`RTTI Class Hierarchy Descriptor'
	DD	00H
	DD	03H
	DD	FLAT:??_R2length_error@std@@8
rdata$r	ENDS
;	COMDAT ??_R2length_error@std@@8
rdata$r	SEGMENT
??_R2length_error@std@@8 DD FLAT:??_R1A@?0A@A@length_error@std@@8 ; std::length_error::`RTTI Base Class Array'
	DD	FLAT:??_R1A@?0A@A@logic_error@std@@8
	DD	FLAT:??_R1A@?0A@A@exception@@8
rdata$r	ENDS
;	COMDAT ??_R1A@?0A@A@length_error@std@@8
rdata$r	SEGMENT
??_R1A@?0A@A@length_error@std@@8 DD FLAT:??_R0?AVlength_error@std@@@8 ; std::length_error::`RTTI Base Class Descriptor at (0,-1,0,0)'
	DD	02H
	DD	00H
	DD	0ffffffffH
	DD	00H
	DD	00H
rdata$r	ENDS
;	COMDAT ??_R1A@?0A@A@logic_error@std@@8
rdata$r	SEGMENT
??_R1A@?0A@A@logic_error@std@@8 DD FLAT:??_R0?AVlogic_error@std@@@8 ; std::logic_error::`RTTI Base Class Descriptor at (0,-1,0,0)'
	DD	01H
	DD	00H
	DD	0ffffffffH
	DD	00H
	DD	00H
rdata$r	ENDS
;	COMDAT ??_R1A@?0A@A@exception@@8
rdata$r	SEGMENT
??_R1A@?0A@A@exception@@8 DD FLAT:??_R0?AVexception@@@8	; exception::`RTTI Base Class Descriptor at (0,-1,0,0)'
	DD	00H
	DD	00H
	DD	0ffffffffH
	DD	00H
	DD	00H
; Function compile flags: /Odt
rdata$r	ENDS
;	COMDAT ??0length_error@std@@QAE@ABV01@@Z
_TEXT	SEGMENT
_this$ = -4						; size = 4
___that$ = 8						; size = 4
??0length_error@std@@QAE@ABV01@@Z PROC NEAR		; std::length_error::length_error, COMDAT
; _this$ = ecx
  00000	55		 push	 ebp
  00001	8b ec		 mov	 ebp, esp
  00003	51		 push	 ecx
  00004	89 4d fc	 mov	 DWORD PTR _this$[ebp], ecx
  00007	8b 45 08	 mov	 eax, DWORD PTR ___that$[ebp]
  0000a	50		 push	 eax
  0000b	8b 4d fc	 mov	 ecx, DWORD PTR _this$[ebp]
  0000e	e8 00 00 00 00	 call	 ??0logic_error@std@@QAE@ABV01@@Z
  00013	8b 4d fc	 mov	 ecx, DWORD PTR _this$[ebp]
  00016	c7 01 00 00 00
	00		 mov	 DWORD PTR [ecx], OFFSET FLAT:??_7length_error@std@@6B@
  0001c	8b 45 fc	 mov	 eax, DWORD PTR _this$[ebp]
  0001f	8b e5		 mov	 esp, ebp
  00021	5d		 pop	 ebp
  00022	c2 04 00	 ret	 4
??0length_error@std@@QAE@ABV01@@Z ENDP			; std::length_error::length_error
; Function compile flags: /Odt
; File d:\program files (x86)\microsoft visual studio .net 2003\vc7\include\xmemory
_TEXT	ENDS
;	COMDAT ??0?$allocator@K@std@@QAE@ABV01@@Z
_TEXT	SEGMENT
_this$ = -4						; size = 4
___formal$ = 8						; size = 4
??0?$allocator@K@std@@QAE@ABV01@@Z PROC NEAR		; std::allocator<unsigned long>::allocator<unsigned long>, COMDAT
; _this$ = ecx

; 115  : 	allocator(const allocator<_Ty>&)

  00000	55		 push	 ebp
  00001	8b ec		 mov	 ebp, esp
  00003	51		 push	 ecx
  00004	89 4d fc	 mov	 DWORD PTR _this$[ebp], ecx

; 116  : 		{	// construct by copying (do nothing)
; 117  : 		}

  00007	8b 45 fc	 mov	 eax, DWORD PTR _this$[ebp]
  0000a	8b e5		 mov	 esp, ebp
  0000c	5d		 pop	 ebp
  0000d	c2 04 00	 ret	 4
??0?$allocator@K@std@@QAE@ABV01@@Z ENDP			; std::allocator<unsigned long>::allocator<unsigned long>
; Function compile flags: /Odt
_TEXT	ENDS
;	COMDAT ?deallocate@?$allocator@K@std@@QAEXPAKI@Z
_TEXT	SEGMENT
_this$ = -4						; size = 4
__Ptr$ = 8						; size = 4
___formal$ = 12						; size = 4
?deallocate@?$allocator@K@std@@QAEXPAKI@Z PROC NEAR	; std::allocator<unsigned long>::deallocate, COMDAT
; _this$ = ecx

; 131  : 		{	// deallocate object at _Ptr, ignore size

  00000	55		 push	 ebp
  00001	8b ec		 mov	 ebp, esp
  00003	51		 push	 ecx
  00004	89 4d fc	 mov	 DWORD PTR _this$[ebp], ecx

; 132  : 		operator delete(_Ptr);

  00007	8b 45 08	 mov	 eax, DWORD PTR __Ptr$[ebp]
  0000a	50		 push	 eax
  0000b	e8 00 00 00 00	 call	 ??3@YAXPAX@Z		; operator delete
  00010	83 c4 04	 add	 esp, 4

; 133  : 		}

  00013	8b e5		 mov	 esp, ebp
  00015	5d		 pop	 ebp
  00016	c2 08 00	 ret	 8
?deallocate@?$allocator@K@std@@QAEXPAKI@Z ENDP		; std::allocator<unsigned long>::deallocate
_TEXT	ENDS
PUBLIC	??$_Allocate@K@std@@YAPAKIPAK@Z			; std::_Allocate<unsigned long>
; Function compile flags: /Odt
;	COMDAT ?allocate@?$allocator@K@std@@QAEPAKI@Z
_TEXT	SEGMENT
_this$ = -4						; size = 4
__Count$ = 8						; size = 4
?allocate@?$allocator@K@std@@QAEPAKI@Z PROC NEAR	; std::allocator<unsigned long>::allocate, COMDAT
; _this$ = ecx

; 136  : 		{	// allocate array of _Count elements

  00000	55		 push	 ebp
  00001	8b ec		 mov	 ebp, esp
  00003	51		 push	 ecx
  00004	89 4d fc	 mov	 DWORD PTR _this$[ebp], ecx

; 137  : 		return (_Allocate(_Count, (pointer)0));

  00007	6a 00		 push	 0
  00009	8b 45 08	 mov	 eax, DWORD PTR __Count$[ebp]
  0000c	50		 push	 eax
  0000d	e8 00 00 00 00	 call	 ??$_Allocate@K@std@@YAPAKIPAK@Z ; std::_Allocate<unsigned long>
  00012	83 c4 08	 add	 esp, 8

; 138  : 		}

  00015	8b e5		 mov	 esp, ebp
  00017	5d		 pop	 ebp
  00018	c2 04 00	 ret	 4
?allocate@?$allocator@K@std@@QAEPAKI@Z ENDP		; std::allocator<unsigned long>::allocate
; Function compile flags: /Odt
; File d:\program files (x86)\microsoft visual studio .net 2003\vc7\include\list
_TEXT	ENDS
;	COMDAT ?_Prevnode@?$list@PAVIMessageObserver@@V?$allocator@PAVIMessageObserver@@@std@@@std@@KAAAPAU_Node@?$_List_nod@PAVIMessageObserver@@V?$allocator@PAVIMessageObserver@@@std@@@2@PAU342@@Z
_TEXT	SEGMENT
__Pnode$ = 8						; size = 4
?_Prevnode@?$list@PAVIMessageObserver@@V?$allocator@PAVIMessageObserver@@@std@@@std@@KAAAPAU_Node@?$_List_nod@PAVIMessageObserver@@V?$allocator@PAVIMessageObserver@@@std@@@2@PAU342@@Z PROC NEAR ; std::list<IMessageObserver *,std::allocator<IMessageObserver *> >::_Prevnode, COMDAT

; 112  : 		{	// return reference to predecessor pointer in node

  00000	55		 push	 ebp
  00001	8b ec		 mov	 ebp, esp

; 113  : 		return ((_Nodepref)(*_Pnode)._Prev);

  00003	8b 45 08	 mov	 eax, DWORD PTR __Pnode$[ebp]
  00006	83 c0 04	 add	 eax, 4

; 114  : 		}

  00009	5d		 pop	 ebp
  0000a	c3		 ret	 0
?_Prevnode@?$list@PAVIMessageObserver@@V?$allocator@PAVIMessageObserver@@@std@@@std@@KAAAPAU_Node@?$_List_nod@PAVIMessageObserver@@V?$allocator@PAVIMessageObserver@@@std@@@2@PAU342@@Z ENDP ; std::list<IMessageObserver *,std::allocator<IMessageObserver *> >::_Prevnode
; Function compile flags: /Odt
_TEXT	ENDS
;	COMDAT ?_Myval@?$list@PAVIMessageObserver@@V?$allocator@PAVIMessageObserver@@@std@@@std@@KAAAPAVIMessageObserver@@PAU_Node@?$_List_nod@PAVIMessageObserver@@V?$allocator@PAVIMessageObserver@@@std@@@2@@Z
_TEXT	SEGMENT
__Pnode$ = 8						; size = 4
?_Myval@?$list@PAVIMessageObserver@@V?$allocator@PAVIMessageObserver@@@std@@@std@@KAAAPAVIMessageObserver@@PAU_Node@?$_List_nod@PAVIMessageObserver@@V?$allocator@PAVIMessageObserver@@@std@@@2@@Z PROC NEAR ; std::list<IMessageObserver *,std::allocator<IMessageObserver *> >::_Myval, COMDAT

; 117  : 		{	// return reference to value in node

  00000	55		 push	 ebp
  00001	8b ec		 mov	 ebp, esp

; 118  : 		return ((_Vref)(*_Pnode)._Myval);

  00003	8b 45 08	 mov	 eax, DWORD PTR __Pnode$[ebp]
  00006	83 c0 08	 add	 eax, 8

; 119  : 		}

  00009	5d		 pop	 ebp
  0000a	c3		 ret	 0
?_Myval@?$list@PAVIMessageObserver@@V?$allocator@PAVIMessageObserver@@@std@@@std@@KAAAPAVIMessageObserver@@PAU_Node@?$_List_nod@PAVIMessageObserver@@V?$allocator@PAVIMessageObserver@@@std@@@2@@Z ENDP ; std::list<IMessageObserver *,std::allocator<IMessageObserver *> >::_Myval
_TEXT	ENDS
PUBLIC	?destroy@?$allocator@U_Node@?$_List_nod@PAVIMessageObserver@@V?$allocator@PAVIMessageObserver@@@std@@@std@@@std@@QAEXPAU_Node@?$_List_nod@PAVIMessageObserver@@V?$allocator@PAVIMessageObserver@@@std@@@2@@Z ; std::allocator<std::_List_nod<IMessageObserver *,std::allocator<IMessageObserver *> >::_Node>::destroy
; Function compile flags: /Odt
;	COMDAT ?clear@?$list@PAVIMessageObserver@@V?$allocator@PAVIMessageObserver@@@std@@@std@@QAEXXZ
_TEXT	SEGMENT
_this$ = -12						; size = 4
__Pnext$ = -8						; size = 4
__Pnode$ = -4						; size = 4
?clear@?$list@PAVIMessageObserver@@V?$allocator@PAVIMessageObserver@@@std@@@std@@QAEXXZ PROC NEAR ; std::list<IMessageObserver *,std::allocator<IMessageObserver *> >::clear, COMDAT
; _this$ = ecx

; 610  : 		{	// erase all

  00000	55		 push	 ebp
  00001	8b ec		 mov	 ebp, esp
  00003	83 ec 0c	 sub	 esp, 12			; 0000000cH
  00006	89 4d f4	 mov	 DWORD PTR _this$[ebp], ecx

; 611  : 		_Nodeptr _Pnext;
; 612  : 		_Nodeptr _Pnode = _Nextnode(_Myhead);

  00009	8b 45 f4	 mov	 eax, DWORD PTR _this$[ebp]
  0000c	8b 48 04	 mov	 ecx, DWORD PTR [eax+4]
  0000f	51		 push	 ecx
  00010	e8 00 00 00 00	 call	 ?_Nextnode@?$list@PAVIMessageObserver@@V?$allocator@PAVIMessageObserver@@@std@@@std@@KAAAPAU_Node@?$_List_nod@PAVIMessageObserver@@V?$allocator@PAVIMessageObserver@@@std@@@2@PAU342@@Z ; std::list<IMessageObserver *,std::allocator<IMessageObserver *> >::_Nextnode
  00015	83 c4 04	 add	 esp, 4
  00018	8b 10		 mov	 edx, DWORD PTR [eax]
  0001a	89 55 fc	 mov	 DWORD PTR __Pnode$[ebp], edx

; 613  : 		_Nextnode(_Myhead) = _Myhead;

  0001d	8b 45 f4	 mov	 eax, DWORD PTR _this$[ebp]
  00020	8b 48 04	 mov	 ecx, DWORD PTR [eax+4]
  00023	51		 push	 ecx
  00024	e8 00 00 00 00	 call	 ?_Nextnode@?$list@PAVIMessageObserver@@V?$allocator@PAVIMessageObserver@@@std@@@std@@KAAAPAU_Node@?$_List_nod@PAVIMessageObserver@@V?$allocator@PAVIMessageObserver@@@std@@@2@PAU342@@Z ; std::list<IMessageObserver *,std::allocator<IMessageObserver *> >::_Nextnode
  00029	83 c4 04	 add	 esp, 4
  0002c	8b 55 f4	 mov	 edx, DWORD PTR _this$[ebp]
  0002f	8b 4a 04	 mov	 ecx, DWORD PTR [edx+4]
  00032	89 08		 mov	 DWORD PTR [eax], ecx

; 614  : 		_Prevnode(_Myhead) = _Myhead;

  00034	8b 55 f4	 mov	 edx, DWORD PTR _this$[ebp]
  00037	8b 42 04	 mov	 eax, DWORD PTR [edx+4]
  0003a	50		 push	 eax
  0003b	e8 00 00 00 00	 call	 ?_Prevnode@?$list@PAVIMessageObserver@@V?$allocator@PAVIMessageObserver@@@std@@@std@@KAAAPAU_Node@?$_List_nod@PAVIMessageObserver@@V?$allocator@PAVIMessageObserver@@@std@@@2@PAU342@@Z ; std::list<IMessageObserver *,std::allocator<IMessageObserver *> >::_Prevnode
  00040	83 c4 04	 add	 esp, 4
  00043	8b 4d f4	 mov	 ecx, DWORD PTR _this$[ebp]
  00046	8b 51 04	 mov	 edx, DWORD PTR [ecx+4]
  00049	89 10		 mov	 DWORD PTR [eax], edx

; 615  : 		_Mysize = 0;

  0004b	8b 45 f4	 mov	 eax, DWORD PTR _this$[ebp]
  0004e	c7 40 08 00 00
	00 00		 mov	 DWORD PTR [eax+8], 0

; 616  : 
; 617  : 		for (; _Pnode != _Myhead; _Pnode = _Pnext)

  00055	eb 06		 jmp	 SHORT $L209096
$L209097:
  00057	8b 4d f8	 mov	 ecx, DWORD PTR __Pnext$[ebp]
  0005a	89 4d fc	 mov	 DWORD PTR __Pnode$[ebp], ecx
$L209096:
  0005d	8b 55 f4	 mov	 edx, DWORD PTR _this$[ebp]
  00060	8b 45 fc	 mov	 eax, DWORD PTR __Pnode$[ebp]
  00063	3b 42 04	 cmp	 eax, DWORD PTR [edx+4]
  00066	74 2d		 je	 SHORT $L209093

; 618  : 			{	// delete an element
; 619  : 			_Pnext = _Nextnode(_Pnode);

  00068	8b 4d fc	 mov	 ecx, DWORD PTR __Pnode$[ebp]
  0006b	51		 push	 ecx
  0006c	e8 00 00 00 00	 call	 ?_Nextnode@?$list@PAVIMessageObserver@@V?$allocator@PAVIMessageObserver@@@std@@@std@@KAAAPAU_Node@?$_List_nod@PAVIMessageObserver@@V?$allocator@PAVIMessageObserver@@@std@@@2@PAU342@@Z ; std::list<IMessageObserver *,std::allocator<IMessageObserver *> >::_Nextnode
  00071	83 c4 04	 add	 esp, 4
  00074	8b 10		 mov	 edx, DWORD PTR [eax]
  00076	89 55 f8	 mov	 DWORD PTR __Pnext$[ebp], edx

; 620  : 			this->_Alnod.destroy(_Pnode);

  00079	8b 45 fc	 mov	 eax, DWORD PTR __Pnode$[ebp]
  0007c	50		 push	 eax
  0007d	8b 4d f4	 mov	 ecx, DWORD PTR _this$[ebp]
  00080	e8 00 00 00 00	 call	 ?destroy@?$allocator@U_Node@?$_List_nod@PAVIMessageObserver@@V?$allocator@PAVIMessageObserver@@@std@@@std@@@std@@QAEXPAU_Node@?$_List_nod@PAVIMessageObserver@@V?$allocator@PAVIMessageObserver@@@std@@@2@@Z ; std::allocator<std::_List_nod<IMessageObserver *,std::allocator<IMessageObserver *> >::_Node>::destroy

; 621  : 			this->_Alnod.deallocate(_Pnode, 1);

  00085	6a 01		 push	 1
  00087	8b 4d fc	 mov	 ecx, DWORD PTR __Pnode$[ebp]
  0008a	51		 push	 ecx
  0008b	8b 4d f4	 mov	 ecx, DWORD PTR _this$[ebp]
  0008e	e8 00 00 00 00	 call	 ?deallocate@?$allocator@U_Node@?$_List_nod@PAVIMessageObserver@@V?$allocator@PAVIMessageObserver@@@std@@@std@@@std@@QAEXPAU_Node@?$_List_nod@PAVIMessageObserver@@V?$allocator@PAVIMessageObserver@@@std@@@2@I@Z ; std::allocator<std::_List_nod<IMessageObserver *,std::allocator<IMessageObserver *> >::_Node>::deallocate

; 622  : 			}

  00093	eb c2		 jmp	 SHORT $L209097
$L209093:

; 623  : 		}

  00095	8b e5		 mov	 esp, ebp
  00097	5d		 pop	 ebp
  00098	c3		 ret	 0
?clear@?$list@PAVIMessageObserver@@V?$allocator@PAVIMessageObserver@@@std@@@std@@QAEXXZ ENDP ; std::list<IMessageObserver *,std::allocator<IMessageObserver *> >::clear
_TEXT	ENDS
PUBLIC	??$?0PAVIMessageObserver@@@?$allocator@PAU_Node@?$_List_nod@PAVIMessageObserver@@V?$allocator@PAVIMessageObserver@@@std@@@std@@@std@@QAE@ABV?$allocator@PAVIMessageObserver@@@1@@Z ; std::allocator<std::_List_nod<IMessageObserver *,std::allocator<IMessageObserver *> >::_Node *>::allocator<std::_List_nod<IMessageObserver *,std::allocator<IMessageObserver *> >::_Node *><IMessageObserver *>
PUBLIC	??0?$_List_nod@PAVIMessageObserver@@V?$allocator@PAVIMessageObserver@@@std@@@std@@IAE@V?$allocator@PAVIMessageObserver@@@1@@Z ; std::_List_nod<IMessageObserver *,std::allocator<IMessageObserver *> >::_List_nod<IMessageObserver *,std::allocator<IMessageObserver *> >
; Function compile flags: /Odt
;	COMDAT ??0?$_List_ptr@PAVIMessageObserver@@V?$allocator@PAVIMessageObserver@@@std@@@std@@IAE@V?$allocator@PAVIMessageObserver@@@1@@Z
_TEXT	SEGMENT
_this$ = -8						; size = 4
__Al$ = 8						; size = 1
??0?$_List_ptr@PAVIMessageObserver@@V?$allocator@PAVIMessageObserver@@@std@@@std@@IAE@V?$allocator@PAVIMessageObserver@@@1@@Z PROC NEAR ; std::_List_ptr<IMessageObserver *,std::allocator<IMessageObserver *> >::_List_ptr<IMessageObserver *,std::allocator<IMessageObserver *> >, COMDAT
; _this$ = ecx

; 64   : 		{	// construct base, and allocator from _Al

  00000	55		 push	 ebp
  00001	8b ec		 mov	 ebp, esp
  00003	83 ec 08	 sub	 esp, 8
  00006	89 4d f8	 mov	 DWORD PTR _this$[ebp], ecx
  00009	51		 push	 ecx
  0000a	8b cc		 mov	 ecx, esp
  0000c	8d 45 08	 lea	 eax, DWORD PTR __Al$[ebp]
  0000f	50		 push	 eax
  00010	e8 00 00 00 00	 call	 ??0?$allocator@PAVIMessageObserver@@@std@@QAE@ABV01@@Z ; std::allocator<IMessageObserver *>::allocator<IMessageObserver *>
  00015	8b 4d f8	 mov	 ecx, DWORD PTR _this$[ebp]
  00018	e8 00 00 00 00	 call	 ??0?$_List_nod@PAVIMessageObserver@@V?$allocator@PAVIMessageObserver@@@std@@@std@@IAE@V?$allocator@PAVIMessageObserver@@@1@@Z ; std::_List_nod<IMessageObserver *,std::allocator<IMessageObserver *> >::_List_nod<IMessageObserver *,std::allocator<IMessageObserver *> >
  0001d	8d 4d 08	 lea	 ecx, DWORD PTR __Al$[ebp]
  00020	51		 push	 ecx
  00021	8b 4d f8	 mov	 ecx, DWORD PTR _this$[ebp]
  00024	83 c1 01	 add	 ecx, 1
  00027	e8 00 00 00 00	 call	 ??$?0PAVIMessageObserver@@@?$allocator@PAU_Node@?$_List_nod@PAVIMessageObserver@@V?$allocator@PAVIMessageObserver@@@std@@@std@@@std@@QAE@ABV?$allocator@PAVIMessageObserver@@@1@@Z ; std::allocator<std::_List_nod<IMessageObserver *,std::allocator<IMessageObserver *> >::_Node *>::allocator<std::_List_nod<IMessageObserver *,std::allocator<IMessageObserver *> >::_Node *><IMessageObserver *>

; 65   : 		}

  0002c	8b 45 f8	 mov	 eax, DWORD PTR _this$[ebp]
  0002f	8b e5		 mov	 esp, ebp
  00031	5d		 pop	 ebp
  00032	c2 04 00	 ret	 4
??0?$_List_ptr@PAVIMessageObserver@@V?$allocator@PAVIMessageObserver@@@std@@@std@@IAE@V?$allocator@PAVIMessageObserver@@@1@@Z ENDP ; std::_List_ptr<IMessageObserver *,std::allocator<IMessageObserver *> >::_List_ptr<IMessageObserver *,std::allocator<IMessageObserver *> >
; Function compile flags: /Odt
; File d:\program files (x86)\microsoft visual studio .net 2003\vc7\include\xmemory
_TEXT	ENDS
;	COMDAT ??0?$allocator@PAVIMessageObserver@@@std@@QAE@ABV01@@Z
_TEXT	SEGMENT
_this$ = -4						; size = 4
___formal$ = 8						; size = 4
??0?$allocator@PAVIMessageObserver@@@std@@QAE@ABV01@@Z PROC NEAR ; std::allocator<IMessageObserver *>::allocator<IMessageObserver *>, COMDAT
; _this$ = ecx

; 115  : 	allocator(const allocator<_Ty>&)

  00000	55		 push	 ebp
  00001	8b ec		 mov	 ebp, esp
  00003	51		 push	 ecx
  00004	89 4d fc	 mov	 DWORD PTR _this$[ebp], ecx

; 116  : 		{	// construct by copying (do nothing)
; 117  : 		}

  00007	8b 45 fc	 mov	 eax, DWORD PTR _this$[ebp]
  0000a	8b e5		 mov	 esp, ebp
  0000c	5d		 pop	 ebp
  0000d	c2 04 00	 ret	 4
??0?$allocator@PAVIMessageObserver@@@std@@QAE@ABV01@@Z ENDP ; std::allocator<IMessageObserver *>::allocator<IMessageObserver *>
; Function compile flags: /Odt
_TEXT	ENDS
;	COMDAT ?deallocate@?$allocator@U_Node@?$_List_nod@PAVIMessageObserver@@V?$allocator@PAVIMessageObserver@@@std@@@std@@@std@@QAEXPAU_Node@?$_List_nod@PAVIMessageObserver@@V?$allocator@PAVIMessageObserver@@@std@@@2@I@Z
_TEXT	SEGMENT
_this$ = -4						; size = 4
__Ptr$ = 8						; size = 4
___formal$ = 12						; size = 4
?deallocate@?$allocator@U_Node@?$_List_nod@PAVIMessageObserver@@V?$allocator@PAVIMessageObserver@@@std@@@std@@@std@@QAEXPAU_Node@?$_List_nod@PAVIMessageObserver@@V?$allocator@PAVIMessageObserver@@@std@@@2@I@Z PROC NEAR ; std::allocator<std::_List_nod<IMessageObserver *,std::allocator<IMessageObserver *> >::_Node>::deallocate, COMDAT
; _this$ = ecx

; 131  : 		{	// deallocate object at _Ptr, ignore size

  00000	55		 push	 ebp
  00001	8b ec		 mov	 ebp, esp
  00003	51		 push	 ecx
  00004	89 4d fc	 mov	 DWORD PTR _this$[ebp], ecx

; 132  : 		operator delete(_Ptr);

  00007	8b 45 08	 mov	 eax, DWORD PTR __Ptr$[ebp]
  0000a	50		 push	 eax
  0000b	e8 00 00 00 00	 call	 ??3@YAXPAX@Z		; operator delete
  00010	83 c4 04	 add	 esp, 4

; 133  : 		}

  00013	8b e5		 mov	 esp, ebp
  00015	5d		 pop	 ebp
  00016	c2 08 00	 ret	 8
?deallocate@?$allocator@U_Node@?$_List_nod@PAVIMessageObserver@@V?$allocator@PAVIMessageObserver@@@std@@@std@@@std@@QAEXPAU_Node@?$_List_nod@PAVIMessageObserver@@V?$allocator@PAVIMessageObserver@@@std@@@2@I@Z ENDP ; std::allocator<std::_List_nod<IMessageObserver *,std::allocator<IMessageObserver *> >::_Node>::deallocate
_TEXT	ENDS
PUBLIC	??$_Allocate@U_Node@?$_List_nod@PAVIMessageObserver@@V?$allocator@PAVIMessageObserver@@@std@@@std@@@std@@YAPAU_Node@?$_List_nod@PAVIMessageObserver@@V?$allocator@PAVIMessageObserver@@@std@@@0@IPAU120@@Z ; std::_Allocate<std::_List_nod<IMessageObserver *,std::allocator<IMessageObserver *> >::_Node>
; Function compile flags: /Odt
;	COMDAT ?allocate@?$allocator@U_Node@?$_List_nod@PAVIMessageObserver@@V?$allocator@PAVIMessageObserver@@@std@@@std@@@std@@QAEPAU_Node@?$_List_nod@PAVIMessageObserver@@V?$allocator@PAVIMessageObserver@@@std@@@2@I@Z
_TEXT	SEGMENT
_this$ = -4						; size = 4
__Count$ = 8						; size = 4
?allocate@?$allocator@U_Node@?$_List_nod@PAVIMessageObserver@@V?$allocator@PAVIMessageObserver@@@std@@@std@@@std@@QAEPAU_Node@?$_List_nod@PAVIMessageObserver@@V?$allocator@PAVIMessageObserver@@@std@@@2@I@Z PROC NEAR ; std::allocator<std::_List_nod<IMessageObserver *,std::allocator<IMessageObserver *> >::_Node>::allocate, COMDAT
; _this$ = ecx

; 136  : 		{	// allocate array of _Count elements

  00000	55		 push	 ebp
  00001	8b ec		 mov	 ebp, esp
  00003	51		 push	 ecx
  00004	89 4d fc	 mov	 DWORD PTR _this$[ebp], ecx

; 137  : 		return (_Allocate(_Count, (pointer)0));

  00007	6a 00		 push	 0
  00009	8b 45 08	 mov	 eax, DWORD PTR __Count$[ebp]
  0000c	50		 push	 eax
  0000d	e8 00 00 00 00	 call	 ??$_Allocate@U_Node@?$_List_nod@PAVIMessageObserver@@V?$allocator@PAVIMessageObserver@@@std@@@std@@@std@@YAPAU_Node@?$_List_nod@PAVIMessageObserver@@V?$allocator@PAVIMessageObserver@@@std@@@0@IPAU120@@Z ; std::_Allocate<std::_List_nod<IMessageObserver *,std::allocator<IMessageObserver *> >::_Node>
  00012	83 c4 08	 add	 esp, 8

; 138  : 		}

  00015	8b e5		 mov	 esp, ebp
  00017	5d		 pop	 ebp
  00018	c2 04 00	 ret	 4
?allocate@?$allocator@U_Node@?$_List_nod@PAVIMessageObserver@@V?$allocator@PAVIMessageObserver@@@std@@@std@@@std@@QAEPAU_Node@?$_List_nod@PAVIMessageObserver@@V?$allocator@PAVIMessageObserver@@@std@@@2@I@Z ENDP ; std::allocator<std::_List_nod<IMessageObserver *,std::allocator<IMessageObserver *> >::_Node>::allocate
_TEXT	ENDS
PUBLIC	??$_Construct@PAU_Node@?$_List_nod@PAVIMessageObserver@@V?$allocator@PAVIMessageObserver@@@std@@@std@@PAU123@@std@@YAXPAPAU_Node@?$_List_nod@PAVIMessageObserver@@V?$allocator@PAVIMessageObserver@@@std@@@0@ABQAU120@@Z ; std::_Construct<std::_List_nod<IMessageObserver *,std::allocator<IMessageObserver *> >::_Node *,std::_List_nod<IMessageObserver *,std::allocator<IMessageObserver *> >::_Node *>
; Function compile flags: /Odt
;	COMDAT ?construct@?$allocator@PAU_Node@?$_List_nod@PAVIMessageObserver@@V?$allocator@PAVIMessageObserver@@@std@@@std@@@std@@QAEXPAPAU_Node@?$_List_nod@PAVIMessageObserver@@V?$allocator@PAVIMessageObserver@@@std@@@2@ABQAU342@@Z
_TEXT	SEGMENT
_this$ = -4						; size = 4
__Ptr$ = 8						; size = 4
__Val$ = 12						; size = 4
?construct@?$allocator@PAU_Node@?$_List_nod@PAVIMessageObserver@@V?$allocator@PAVIMessageObserver@@@std@@@std@@@std@@QAEXPAPAU_Node@?$_List_nod@PAVIMessageObserver@@V?$allocator@PAVIMessageObserver@@@std@@@2@ABQAU342@@Z PROC NEAR ; std::allocator<std::_List_nod<IMessageObserver *,std::allocator<IMessageObserver *> >::_Node *>::construct, COMDAT
; _this$ = ecx

; 146  : 		{	// construct object at _Ptr with value _Val

  00000	55		 push	 ebp
  00001	8b ec		 mov	 ebp, esp
  00003	51		 push	 ecx
  00004	89 4d fc	 mov	 DWORD PTR _this$[ebp], ecx

; 147  : 		_Construct(_Ptr, _Val);

  00007	8b 45 0c	 mov	 eax, DWORD PTR __Val$[ebp]
  0000a	50		 push	 eax
  0000b	8b 4d 08	 mov	 ecx, DWORD PTR __Ptr$[ebp]
  0000e	51		 push	 ecx
  0000f	e8 00 00 00 00	 call	 ??$_Construct@PAU_Node@?$_List_nod@PAVIMessageObserver@@V?$allocator@PAVIMessageObserver@@@std@@@std@@PAU123@@std@@YAXPAPAU_Node@?$_List_nod@PAVIMessageObserver@@V?$allocator@PAVIMessageObserver@@@std@@@0@ABQAU120@@Z ; std::_Construct<std::_List_nod<IMessageObserver *,std::allocator<IMessageObserver *> >::_Node *,std::_List_nod<IMessageObserver *,std::allocator<IMessageObserver *> >::_Node *>
  00014	83 c4 08	 add	 esp, 8

; 148  : 		}

  00017	8b e5		 mov	 esp, ebp
  00019	5d		 pop	 ebp
  0001a	c2 08 00	 ret	 8
?construct@?$allocator@PAU_Node@?$_List_nod@PAVIMessageObserver@@V?$allocator@PAVIMessageObserver@@@std@@@std@@@std@@QAEXPAPAU_Node@?$_List_nod@PAVIMessageObserver@@V?$allocator@PAVIMessageObserver@@@std@@@2@ABQAU342@@Z ENDP ; std::allocator<std::_List_nod<IMessageObserver *,std::allocator<IMessageObserver *> >::_Node *>::construct
_TEXT	ENDS
PUBLIC	??$_Destroy@PAU_Node@?$_List_nod@PAVIMessageObserver@@V?$allocator@PAVIMessageObserver@@@std@@@std@@@std@@YAXPAPAU_Node@?$_List_nod@PAVIMessageObserver@@V?$allocator@PAVIMessageObserver@@@std@@@0@@Z ; std::_Destroy<std::_List_nod<IMessageObserver *,std::allocator<IMessageObserver *> >::_Node *>
; Function compile flags: /Odt
;	COMDAT ?destroy@?$allocator@PAU_Node@?$_List_nod@PAVIMessageObserver@@V?$allocator@PAVIMessageObserver@@@std@@@std@@@std@@QAEXPAPAU_Node@?$_List_nod@PAVIMessageObserver@@V?$allocator@PAVIMessageObserver@@@std@@@2@@Z
_TEXT	SEGMENT
_this$ = -4						; size = 4
__Ptr$ = 8						; size = 4
?destroy@?$allocator@PAU_Node@?$_List_nod@PAVIMessageObserver@@V?$allocator@PAVIMessageObserver@@@std@@@std@@@std@@QAEXPAPAU_Node@?$_List_nod@PAVIMessageObserver@@V?$allocator@PAVIMessageObserver@@@std@@@2@@Z PROC NEAR ; std::allocator<std::_List_nod<IMessageObserver *,std::allocator<IMessageObserver *> >::_Node *>::destroy, COMDAT
; _this$ = ecx

; 151  : 		{	// destroy object at _Ptr

  00000	55		 push	 ebp
  00001	8b ec		 mov	 ebp, esp
  00003	51		 push	 ecx
  00004	89 4d fc	 mov	 DWORD PTR _this$[ebp], ecx

; 152  : 		_Destroy(_Ptr);

  00007	8b 45 08	 mov	 eax, DWORD PTR __Ptr$[ebp]
  0000a	50		 push	 eax
  0000b	e8 00 00 00 00	 call	 ??$_Destroy@PAU_Node@?$_List_nod@PAVIMessageObserver@@V?$allocator@PAVIMessageObserver@@@std@@@std@@@std@@YAXPAPAU_Node@?$_List_nod@PAVIMessageObserver@@V?$allocator@PAVIMessageObserver@@@std@@@0@@Z ; std::_Destroy<std::_List_nod<IMessageObserver *,std::allocator<IMessageObserver *> >::_Node *>
  00010	83 c4 04	 add	 esp, 4

; 153  : 		}

  00013	8b e5		 mov	 esp, ebp
  00015	5d		 pop	 ebp
  00016	c2 04 00	 ret	 4
?destroy@?$allocator@PAU_Node@?$_List_nod@PAVIMessageObserver@@V?$allocator@PAVIMessageObserver@@@std@@@std@@@std@@QAEXPAPAU_Node@?$_List_nod@PAVIMessageObserver@@V?$allocator@PAVIMessageObserver@@@std@@@2@@Z ENDP ; std::allocator<std::_List_nod<IMessageObserver *,std::allocator<IMessageObserver *> >::_Node *>::destroy
; Function compile flags: /Odt
; File d:\program files (x86)\microsoft visual studio .net 2003\vc7\include\list
_TEXT	ENDS
;	COMDAT ??0const_iterator@?$list@PAVIMessageObserver@@V?$allocator@PAVIMessageObserver@@@std@@@std@@QAE@PAU_Node@?$_List_nod@PAVIMessageObserver@@V?$allocator@PAVIMessageObserver@@@std@@@2@@Z
_TEXT	SEGMENT
_this$ = -4						; size = 4
__Pnode$ = 8						; size = 4
??0const_iterator@?$list@PAVIMessageObserver@@V?$allocator@PAVIMessageObserver@@@std@@@std@@QAE@PAU_Node@?$_List_nod@PAVIMessageObserver@@V?$allocator@PAVIMessageObserver@@@std@@@2@@Z PROC NEAR ; std::list<IMessageObserver *,std::allocator<IMessageObserver *> >::const_iterator::const_iterator, COMDAT
; _this$ = ecx

; 156  : 			{	// construct with node pointer _Pnode

  00000	55		 push	 ebp
  00001	8b ec		 mov	 ebp, esp
  00003	51		 push	 ecx
  00004	89 4d fc	 mov	 DWORD PTR _this$[ebp], ecx
  00007	8b 45 fc	 mov	 eax, DWORD PTR _this$[ebp]
  0000a	8b 4d 08	 mov	 ecx, DWORD PTR __Pnode$[ebp]
  0000d	89 08		 mov	 DWORD PTR [eax], ecx

; 157  : 			}

  0000f	8b 45 fc	 mov	 eax, DWORD PTR _this$[ebp]
  00012	8b e5		 mov	 esp, ebp
  00014	5d		 pop	 ebp
  00015	c2 04 00	 ret	 4
??0const_iterator@?$list@PAVIMessageObserver@@V?$allocator@PAVIMessageObserver@@@std@@@std@@QAE@PAU_Node@?$_List_nod@PAVIMessageObserver@@V?$allocator@PAVIMessageObserver@@@std@@@2@@Z ENDP ; std::list<IMessageObserver *,std::allocator<IMessageObserver *> >::const_iterator::const_iterator
; Function compile flags: /Odt
_TEXT	ENDS
;	COMDAT ??Econst_iterator@?$list@PAVIMessageObserver@@V?$allocator@PAVIMessageObserver@@@std@@@std@@QAEAAV012@XZ
_TEXT	SEGMENT
_this$ = -4						; size = 4
??Econst_iterator@?$list@PAVIMessageObserver@@V?$allocator@PAVIMessageObserver@@@std@@@std@@QAEAAV012@XZ PROC NEAR ; std::list<IMessageObserver *,std::allocator<IMessageObserver *> >::const_iterator::operator++, COMDAT
; _this$ = ecx

; 170  : 			{	// preincrement

  00000	55		 push	 ebp
  00001	8b ec		 mov	 ebp, esp
  00003	51		 push	 ecx
  00004	89 4d fc	 mov	 DWORD PTR _this$[ebp], ecx

; 171  : 			_Ptr = _Nextnode(_Ptr);

  00007	8b 45 fc	 mov	 eax, DWORD PTR _this$[ebp]
  0000a	8b 08		 mov	 ecx, DWORD PTR [eax]
  0000c	51		 push	 ecx
  0000d	e8 00 00 00 00	 call	 ?_Nextnode@?$list@PAVIMessageObserver@@V?$allocator@PAVIMessageObserver@@@std@@@std@@KAAAPAU_Node@?$_List_nod@PAVIMessageObserver@@V?$allocator@PAVIMessageObserver@@@std@@@2@PAU342@@Z ; std::list<IMessageObserver *,std::allocator<IMessageObserver *> >::_Nextnode
  00012	83 c4 04	 add	 esp, 4
  00015	8b 55 fc	 mov	 edx, DWORD PTR _this$[ebp]
  00018	8b 00		 mov	 eax, DWORD PTR [eax]
  0001a	89 02		 mov	 DWORD PTR [edx], eax

; 172  : 			return (*this);

  0001c	8b 45 fc	 mov	 eax, DWORD PTR _this$[ebp]

; 173  : 			}

  0001f	8b e5		 mov	 esp, ebp
  00021	5d		 pop	 ebp
  00022	c3		 ret	 0
??Econst_iterator@?$list@PAVIMessageObserver@@V?$allocator@PAVIMessageObserver@@@std@@@std@@QAEAAV012@XZ ENDP ; std::list<IMessageObserver *,std::allocator<IMessageObserver *> >::const_iterator::operator++
; Function compile flags: /Odt
; File d:\program files (x86)\microsoft visual studio .net 2003\vc7\include\vector
_TEXT	ENDS
;	COMDAT ??Yiterator@?$vector@KV?$allocator@K@std@@@std@@QAEAAV012@H@Z
_TEXT	SEGMENT
_this$ = -4						; size = 4
__Off$ = 8						; size = 4
??Yiterator@?$vector@KV?$allocator@K@std@@@std@@QAEAAV012@H@Z PROC NEAR ; std::vector<unsigned long,std::allocator<unsigned long> >::iterator::operator+=, COMDAT
; _this$ = ecx

; 255  : 			{	// increment by integer

  00000	55		 push	 ebp
  00001	8b ec		 mov	 ebp, esp
  00003	51		 push	 ecx
  00004	89 4d fc	 mov	 DWORD PTR _this$[ebp], ecx

; 256  : 			this->_Myptr += _Off;

  00007	8b 45 fc	 mov	 eax, DWORD PTR _this$[ebp]
  0000a	8b 08		 mov	 ecx, DWORD PTR [eax]
  0000c	8b 55 08	 mov	 edx, DWORD PTR __Off$[ebp]
  0000f	8d 04 91	 lea	 eax, DWORD PTR [ecx+edx*4]
  00012	8b 4d fc	 mov	 ecx, DWORD PTR _this$[ebp]
  00015	89 01		 mov	 DWORD PTR [ecx], eax

; 257  : 			return (*this);

  00017	8b 45 fc	 mov	 eax, DWORD PTR _this$[ebp]

; 258  : 			}

  0001a	8b e5		 mov	 esp, ebp
  0001c	5d		 pop	 ebp
  0001d	c2 04 00	 ret	 4
??Yiterator@?$vector@KV?$allocator@K@std@@@std@@QAEAAV012@H@Z ENDP ; std::vector<unsigned long,std::allocator<unsigned long> >::iterator::operator+=
_TEXT	ENDS
PUBLIC	??Gconst_iterator@?$vector@KV?$allocator@K@std@@@std@@QBEHABV012@@Z ; std::vector<unsigned long,std::allocator<unsigned long> >::const_iterator::operator-
; Function compile flags: /Odt
;	COMDAT ??Giterator@?$vector@KV?$allocator@K@std@@@std@@QBEHABVconst_iterator@12@@Z
_TEXT	SEGMENT
_this$ = -8						; size = 4
$T211710 = -4						; size = 4
__Right$ = 8						; size = 4
??Giterator@?$vector@KV?$allocator@K@std@@@std@@QBEHABVconst_iterator@12@@Z PROC NEAR ; std::vector<unsigned long,std::allocator<unsigned long> >::iterator::operator-, COMDAT
; _this$ = ecx

; 278  : 			{	// return difference of iterators

  00000	55		 push	 ebp
  00001	8b ec		 mov	 ebp, esp
  00003	83 ec 08	 sub	 esp, 8
  00006	89 4d f8	 mov	 DWORD PTR _this$[ebp], ecx

; 279  : 			return ((const_iterator)*this - _Right);

  00009	8b 45 f8	 mov	 eax, DWORD PTR _this$[ebp]
  0000c	8b 08		 mov	 ecx, DWORD PTR [eax]
  0000e	89 4d fc	 mov	 DWORD PTR $T211710[ebp], ecx
  00011	8b 55 08	 mov	 edx, DWORD PTR __Right$[ebp]
  00014	52		 push	 edx
  00015	8d 4d fc	 lea	 ecx, DWORD PTR $T211710[ebp]
  00018	e8 00 00 00 00	 call	 ??Gconst_iterator@?$vector@KV?$allocator@K@std@@@std@@QBEHABV012@@Z ; std::vector<unsigned long,std::allocator<unsigned long> >::const_iterator::operator-

; 280  : 			}

  0001d	8b e5		 mov	 esp, ebp
  0001f	5d		 pop	 ebp
  00020	c2 04 00	 ret	 4
??Giterator@?$vector@KV?$allocator@K@std@@@std@@QBEHABVconst_iterator@12@@Z ENDP ; std::vector<unsigned long,std::allocator<unsigned long> >::iterator::operator-
; Function compile flags: /Odt
_TEXT	ENDS
;	COMDAT ??0const_iterator@?$vector@KV?$allocator@K@std@@@std@@QAE@PAK@Z
_TEXT	SEGMENT
_this$ = -4						; size = 4
__Ptr$ = 8						; size = 4
??0const_iterator@?$vector@KV?$allocator@K@std@@@std@@QAE@PAK@Z PROC NEAR ; std::vector<unsigned long,std::allocator<unsigned long> >::const_iterator::const_iterator, COMDAT
; _this$ = ecx

; 73   : 		const_iterator(_Tptr _Ptr)

  00000	55		 push	 ebp
  00001	8b ec		 mov	 ebp, esp
  00003	51		 push	 ecx
  00004	89 4d fc	 mov	 DWORD PTR _this$[ebp], ecx

; 74   : 			{	// construct with pointer _Ptr
; 75   : 			_Myptr = _Ptr;

  00007	8b 45 fc	 mov	 eax, DWORD PTR _this$[ebp]
  0000a	8b 4d 08	 mov	 ecx, DWORD PTR __Ptr$[ebp]
  0000d	89 08		 mov	 DWORD PTR [eax], ecx

; 76   : 			}

  0000f	8b 45 fc	 mov	 eax, DWORD PTR _this$[ebp]
  00012	8b e5		 mov	 esp, ebp
  00014	5d		 pop	 ebp
  00015	c2 04 00	 ret	 4
??0const_iterator@?$vector@KV?$allocator@K@std@@@std@@QAE@PAK@Z ENDP ; std::vector<unsigned long,std::allocator<unsigned long> >::const_iterator::const_iterator
; Function compile flags: /Odt
; File d:\program files (x86)\microsoft visual studio .net 2003\vc7\include\xmemory
_TEXT	ENDS
;	COMDAT ?max_size@?$allocator@K@std@@QBEIXZ
_TEXT	SEGMENT
tv65 = -12						; size = 4
_this$ = -8						; size = 4
__Count$ = -4						; size = 4
?max_size@?$allocator@K@std@@QBEIXZ PROC NEAR		; std::allocator<unsigned long>::max_size, COMDAT
; _this$ = ecx

; 156  : 		{	// estimate maximum array size

  00000	55		 push	 ebp
  00001	8b ec		 mov	 ebp, esp
  00003	83 ec 0c	 sub	 esp, 12			; 0000000cH
  00006	89 4d f8	 mov	 DWORD PTR _this$[ebp], ecx

; 157  : 		_SIZT _Count = (_SIZT)(-1) / sizeof (_Ty);

  00009	c7 45 fc ff ff
	ff 3f		 mov	 DWORD PTR __Count$[ebp], 1073741823 ; 3fffffffH

; 158  : 		return (0 < _Count ? _Count : 1);

  00010	83 7d fc 00	 cmp	 DWORD PTR __Count$[ebp], 0
  00014	76 08		 jbe	 SHORT $L211715
  00016	8b 45 fc	 mov	 eax, DWORD PTR __Count$[ebp]
  00019	89 45 f4	 mov	 DWORD PTR tv65[ebp], eax
  0001c	eb 07		 jmp	 SHORT $L211716
$L211715:
  0001e	c7 45 f4 01 00
	00 00		 mov	 DWORD PTR tv65[ebp], 1
$L211716:
  00025	8b 45 f4	 mov	 eax, DWORD PTR tv65[ebp]

; 159  : 		}

  00028	8b e5		 mov	 esp, ebp
  0002a	5d		 pop	 ebp
  0002b	c3		 ret	 0
?max_size@?$allocator@K@std@@QBEIXZ ENDP		; std::allocator<unsigned long>::max_size
_TEXT	ENDS
PUBLIC	??$?0PAVIMessageObserver@@@?$allocator@U_Node@?$_List_nod@PAVIMessageObserver@@V?$allocator@PAVIMessageObserver@@@std@@@std@@@std@@QAE@ABV?$allocator@PAVIMessageObserver@@@1@@Z ; std::allocator<std::_List_nod<IMessageObserver *,std::allocator<IMessageObserver *> >::_Node>::allocator<std::_List_nod<IMessageObserver *,std::allocator<IMessageObserver *> >::_Node><IMessageObserver *>
; Function compile flags: /Odt
; File d:\program files (x86)\microsoft visual studio .net 2003\vc7\include\list
;	COMDAT ??0?$_List_nod@PAVIMessageObserver@@V?$allocator@PAVIMessageObserver@@@std@@@std@@IAE@V?$allocator@PAVIMessageObserver@@@1@@Z
_TEXT	SEGMENT
_this$ = -4						; size = 4
__Al$ = 8						; size = 1
??0?$_List_nod@PAVIMessageObserver@@V?$allocator@PAVIMessageObserver@@@std@@@std@@IAE@V?$allocator@PAVIMessageObserver@@@1@@Z PROC NEAR ; std::_List_nod<IMessageObserver *,std::allocator<IMessageObserver *> >::_List_nod<IMessageObserver *,std::allocator<IMessageObserver *> >, COMDAT
; _this$ = ecx

; 44   : 		{	// construct allocator from _Al

  00000	55		 push	 ebp
  00001	8b ec		 mov	 ebp, esp
  00003	51		 push	 ecx
  00004	89 4d fc	 mov	 DWORD PTR _this$[ebp], ecx
  00007	8d 45 08	 lea	 eax, DWORD PTR __Al$[ebp]
  0000a	50		 push	 eax
  0000b	8b 4d fc	 mov	 ecx, DWORD PTR _this$[ebp]
  0000e	e8 00 00 00 00	 call	 ??$?0PAVIMessageObserver@@@?$allocator@U_Node@?$_List_nod@PAVIMessageObserver@@V?$allocator@PAVIMessageObserver@@@std@@@std@@@std@@QAE@ABV?$allocator@PAVIMessageObserver@@@1@@Z ; std::allocator<std::_List_nod<IMessageObserver *,std::allocator<IMessageObserver *> >::_Node>::allocator<std::_List_nod<IMessageObserver *,std::allocator<IMessageObserver *> >::_Node><IMessageObserver *>

; 45   : 		}

  00013	8b 45 fc	 mov	 eax, DWORD PTR _this$[ebp]
  00016	8b e5		 mov	 esp, ebp
  00018	5d		 pop	 ebp
  00019	c2 04 00	 ret	 4
??0?$_List_nod@PAVIMessageObserver@@V?$allocator@PAVIMessageObserver@@@std@@@std@@IAE@V?$allocator@PAVIMessageObserver@@@1@@Z ENDP ; std::_List_nod<IMessageObserver *,std::allocator<IMessageObserver *> >::_List_nod<IMessageObserver *,std::allocator<IMessageObserver *> >
_TEXT	ENDS
PUBLIC	??$_Destroy@U_Node@?$_List_nod@PAVIMessageObserver@@V?$allocator@PAVIMessageObserver@@@std@@@std@@@std@@YAXPAU_Node@?$_List_nod@PAVIMessageObserver@@V?$allocator@PAVIMessageObserver@@@std@@@0@@Z ; std::_Destroy<std::_List_nod<IMessageObserver *,std::allocator<IMessageObserver *> >::_Node>
; Function compile flags: /Odt
; File d:\program files (x86)\microsoft visual studio .net 2003\vc7\include\xmemory
;	COMDAT ?destroy@?$allocator@U_Node@?$_List_nod@PAVIMessageObserver@@V?$allocator@PAVIMessageObserver@@@std@@@std@@@std@@QAEXPAU_Node@?$_List_nod@PAVIMessageObserver@@V?$allocator@PAVIMessageObserver@@@std@@@2@@Z
_TEXT	SEGMENT
_this$ = -4						; size = 4
__Ptr$ = 8						; size = 4
?destroy@?$allocator@U_Node@?$_List_nod@PAVIMessageObserver@@V?$allocator@PAVIMessageObserver@@@std@@@std@@@std@@QAEXPAU_Node@?$_List_nod@PAVIMessageObserver@@V?$allocator@PAVIMessageObserver@@@std@@@2@@Z PROC NEAR ; std::allocator<std::_List_nod<IMessageObserver *,std::allocator<IMessageObserver *> >::_Node>::destroy, COMDAT
; _this$ = ecx

; 151  : 		{	// destroy object at _Ptr

  00000	55		 push	 ebp
  00001	8b ec		 mov	 ebp, esp
  00003	51		 push	 ecx
  00004	89 4d fc	 mov	 DWORD PTR _this$[ebp], ecx

; 152  : 		_Destroy(_Ptr);

  00007	8b 45 08	 mov	 eax, DWORD PTR __Ptr$[ebp]
  0000a	50		 push	 eax
  0000b	e8 00 00 00 00	 call	 ??$_Destroy@U_Node@?$_List_nod@PAVIMessageObserver@@V?$allocator@PAVIMessageObserver@@@std@@@std@@@std@@YAXPAU_Node@?$_List_nod@PAVIMessageObserver@@V?$allocator@PAVIMessageObserver@@@std@@@0@@Z ; std::_Destroy<std::_List_nod<IMessageObserver *,std::allocator<IMessageObserver *> >::_Node>
  00010	83 c4 04	 add	 esp, 4

; 153  : 		}

  00013	8b e5		 mov	 esp, ebp
  00015	5d		 pop	 ebp
  00016	c2 04 00	 ret	 4
?destroy@?$allocator@U_Node@?$_List_nod@PAVIMessageObserver@@V?$allocator@PAVIMessageObserver@@@std@@@std@@@std@@QAEXPAU_Node@?$_List_nod@PAVIMessageObserver@@V?$allocator@PAVIMessageObserver@@@std@@@2@@Z ENDP ; std::allocator<std::_List_nod<IMessageObserver *,std::allocator<IMessageObserver *> >::_Node>::destroy
; Function compile flags: /Odt
; File d:\program files (x86)\microsoft visual studio .net 2003\vc7\include\vector
_TEXT	ENDS
;	COMDAT ??Gconst_iterator@?$vector@KV?$allocator@K@std@@@std@@QBEHABV012@@Z
_TEXT	SEGMENT
_this$ = -4						; size = 4
__Right$ = 8						; size = 4
??Gconst_iterator@?$vector@KV?$allocator@K@std@@@std@@QBEHABV012@@Z PROC NEAR ; std::vector<unsigned long,std::allocator<unsigned long> >::const_iterator::operator-, COMDAT
; _this$ = ecx

; 140  : 			{	// return difference of iterators

  00000	55		 push	 ebp
  00001	8b ec		 mov	 ebp, esp
  00003	51		 push	 ecx
  00004	89 4d fc	 mov	 DWORD PTR _this$[ebp], ecx

; 141  : 
; 142  : 
; 143  : 			return (_Myptr - _Right._Myptr);

  00007	8b 45 fc	 mov	 eax, DWORD PTR _this$[ebp]
  0000a	8b 4d 08	 mov	 ecx, DWORD PTR __Right$[ebp]
  0000d	8b 00		 mov	 eax, DWORD PTR [eax]
  0000f	2b 01		 sub	 eax, DWORD PTR [ecx]
  00011	c1 f8 02	 sar	 eax, 2

; 144  : 			}

  00014	8b e5		 mov	 esp, ebp
  00016	5d		 pop	 ebp
  00017	c2 04 00	 ret	 4
??Gconst_iterator@?$vector@KV?$allocator@K@std@@@std@@QBEHABV012@@Z ENDP ; std::vector<unsigned long,std::allocator<unsigned long> >::const_iterator::operator-
_TEXT	ENDS
PUBLIC	??$_Copy_opt@PAKPAK@std@@YAPAKPAK00U_Scalar_ptr_iterator_tag@0@@Z ; std::_Copy_opt<unsigned long *,unsigned long *>
PUBLIC	?_Ptr_cat@std@@YA?AU_Scalar_ptr_iterator_tag@1@PAK0@Z ; std::_Ptr_cat
; Function compile flags: /Odt
; File d:\program files (x86)\microsoft visual studio .net 2003\vc7\include\xutility
;	COMDAT ??$copy@PAKPAK@std@@YAPAKPAK00@Z
_TEXT	SEGMENT
$T211725 = -1						; size = 1
__First$ = 8						; size = 4
__Last$ = 12						; size = 4
__Dest$ = 16						; size = 4
??$copy@PAKPAK@std@@YAPAKPAK00@Z PROC NEAR		; std::copy<unsigned long *,unsigned long *>, COMDAT

; 1039 : 	{	// copy [_First, _Last) to [_Dest, ...)

  00000	55		 push	 ebp
  00001	8b ec		 mov	 ebp, esp
  00003	51		 push	 ecx

; 1040 : 	return (_Copy_opt(_First, _Last, _Dest, _Ptr_cat(_First, _Dest)));

  00004	8b 45 10	 mov	 eax, DWORD PTR __Dest$[ebp]
  00007	50		 push	 eax
  00008	8b 4d 08	 mov	 ecx, DWORD PTR __First$[ebp]
  0000b	51		 push	 ecx
  0000c	e8 00 00 00 00	 call	 ?_Ptr_cat@std@@YA?AU_Scalar_ptr_iterator_tag@1@PAK0@Z ; std::_Ptr_cat
  00011	83 c4 08	 add	 esp, 8
  00014	88 45 ff	 mov	 BYTE PTR $T211725[ebp], al
  00017	8a 55 ff	 mov	 dl, BYTE PTR $T211725[ebp]
  0001a	52		 push	 edx
  0001b	8b 45 10	 mov	 eax, DWORD PTR __Dest$[ebp]
  0001e	50		 push	 eax
  0001f	8b 4d 0c	 mov	 ecx, DWORD PTR __Last$[ebp]
  00022	51		 push	 ecx
  00023	8b 55 08	 mov	 edx, DWORD PTR __First$[ebp]
  00026	52		 push	 edx
  00027	e8 00 00 00 00	 call	 ??$_Copy_opt@PAKPAK@std@@YAPAKPAK00U_Scalar_ptr_iterator_tag@0@@Z ; std::_Copy_opt<unsigned long *,unsigned long *>
  0002c	83 c4 10	 add	 esp, 16			; 00000010H

; 1041 : 	}

  0002f	8b e5		 mov	 esp, ebp
  00031	5d		 pop	 ebp
  00032	c3		 ret	 0
??$copy@PAKPAK@std@@YAPAKPAK00@Z ENDP			; std::copy<unsigned long *,unsigned long *>
_TEXT	ENDS
PUBLIC	??$_Destroy_range@KV?$allocator@K@std@@@std@@YAXPAK0AAV?$allocator@K@0@U_Scalar_ptr_iterator_tag@0@@Z ; std::_Destroy_range<unsigned long,std::allocator<unsigned long> >
; Function compile flags: /Odt
; File d:\program files (x86)\microsoft visual studio .net 2003\vc7\include\xmemory
;	COMDAT ??$_Destroy_range@KV?$allocator@K@std@@@std@@YAXPAK0AAV?$allocator@K@0@@Z
_TEXT	SEGMENT
$T211728 = -1						; size = 1
__First$ = 8						; size = 4
__Last$ = 12						; size = 4
__Al$ = 16						; size = 4
??$_Destroy_range@KV?$allocator@K@std@@@std@@YAXPAK0AAV?$allocator@K@0@@Z PROC NEAR ; std::_Destroy_range<unsigned long,std::allocator<unsigned long> >, COMDAT

; 216  : 	{	// destroy [_First, _Last)

  00000	55		 push	 ebp
  00001	8b ec		 mov	 ebp, esp
  00003	51		 push	 ecx

; 217  : 	_Destroy_range(_First, _Last, _Al, _Ptr_cat(_First, _Last));

  00004	8b 45 0c	 mov	 eax, DWORD PTR __Last$[ebp]
  00007	50		 push	 eax
  00008	8b 4d 08	 mov	 ecx, DWORD PTR __First$[ebp]
  0000b	51		 push	 ecx
  0000c	e8 00 00 00 00	 call	 ?_Ptr_cat@std@@YA?AU_Scalar_ptr_iterator_tag@1@PAK0@Z ; std::_Ptr_cat
  00011	83 c4 08	 add	 esp, 8
  00014	88 45 ff	 mov	 BYTE PTR $T211728[ebp], al
  00017	8a 55 ff	 mov	 dl, BYTE PTR $T211728[ebp]
  0001a	52		 push	 edx
  0001b	8b 45 10	 mov	 eax, DWORD PTR __Al$[ebp]
  0001e	50		 push	 eax
  0001f	8b 4d 0c	 mov	 ecx, DWORD PTR __Last$[ebp]
  00022	51		 push	 ecx
  00023	8b 55 08	 mov	 edx, DWORD PTR __First$[ebp]
  00026	52		 push	 edx
  00027	e8 00 00 00 00	 call	 ??$_Destroy_range@KV?$allocator@K@std@@@std@@YAXPAK0AAV?$allocator@K@0@U_Scalar_ptr_iterator_tag@0@@Z ; std::_Destroy_range<unsigned long,std::allocator<unsigned long> >
  0002c	83 c4 10	 add	 esp, 16			; 00000010H

; 218  : 	}

  0002f	8b e5		 mov	 esp, ebp
  00031	5d		 pop	 ebp
  00032	c3		 ret	 0
??$_Destroy_range@KV?$allocator@K@std@@@std@@YAXPAK0AAV?$allocator@K@0@@Z ENDP ; std::_Destroy_range<unsigned long,std::allocator<unsigned long> >
_TEXT	ENDS
PUBLIC	??$_Uninit_fill_n@KIK@std@@YAXPAKIABKAAV?$allocator@K@0@U_Scalar_ptr_iterator_tag@0@@Z ; std::_Uninit_fill_n<unsigned long,unsigned int,unsigned long>
; Function compile flags: /Odt
; File d:\program files (x86)\microsoft visual studio .net 2003\vc7\include\memory
;	COMDAT ??$_Uninitialized_fill_n@PAKIKV?$allocator@K@std@@@std@@YAXPAKIABKAAV?$allocator@K@0@@Z
_TEXT	SEGMENT
$T211731 = -1						; size = 1
__First$ = 8						; size = 4
__Count$ = 12						; size = 4
__Val$ = 16						; size = 4
__Al$ = 20						; size = 4
??$_Uninitialized_fill_n@PAKIKV?$allocator@K@std@@@std@@YAXPAKIABKAAV?$allocator@K@0@@Z PROC NEAR ; std::_Uninitialized_fill_n<unsigned long *,unsigned int,unsigned long,std::allocator<unsigned long> >, COMDAT

; 255  : 	{	// copy _Count *_Val to raw _First, using _Al

  00000	55		 push	 ebp
  00001	8b ec		 mov	 ebp, esp
  00003	51		 push	 ecx

; 256  : 	_Uninit_fill_n(_First, _Count, _Val, _Al,
; 257  : 		_Ptr_cat(_First, _First));

  00004	8b 45 08	 mov	 eax, DWORD PTR __First$[ebp]
  00007	50		 push	 eax
  00008	8b 4d 08	 mov	 ecx, DWORD PTR __First$[ebp]
  0000b	51		 push	 ecx
  0000c	e8 00 00 00 00	 call	 ?_Ptr_cat@std@@YA?AU_Scalar_ptr_iterator_tag@1@PAK0@Z ; std::_Ptr_cat
  00011	83 c4 08	 add	 esp, 8
  00014	88 45 ff	 mov	 BYTE PTR $T211731[ebp], al
  00017	8a 55 ff	 mov	 dl, BYTE PTR $T211731[ebp]
  0001a	52		 push	 edx
  0001b	8b 45 14	 mov	 eax, DWORD PTR __Al$[ebp]
  0001e	50		 push	 eax
  0001f	8b 4d 10	 mov	 ecx, DWORD PTR __Val$[ebp]
  00022	51		 push	 ecx
  00023	8b 55 0c	 mov	 edx, DWORD PTR __Count$[ebp]
  00026	52		 push	 edx
  00027	8b 45 08	 mov	 eax, DWORD PTR __First$[ebp]
  0002a	50		 push	 eax
  0002b	e8 00 00 00 00	 call	 ??$_Uninit_fill_n@KIK@std@@YAXPAKIABKAAV?$allocator@K@0@U_Scalar_ptr_iterator_tag@0@@Z ; std::_Uninit_fill_n<unsigned long,unsigned int,unsigned long>
  00030	83 c4 14	 add	 esp, 20			; 00000014H

; 258  : 	}

  00033	8b e5		 mov	 esp, ebp
  00035	5d		 pop	 ebp
  00036	c3		 ret	 0
??$_Uninitialized_fill_n@PAKIKV?$allocator@K@std@@@std@@YAXPAKIABKAAV?$allocator@K@0@@Z ENDP ; std::_Uninitialized_fill_n<unsigned long *,unsigned int,unsigned long,std::allocator<unsigned long> >
_TEXT	ENDS
PUBLIC	??$_Uninitialized_copy@PAKPAKV?$allocator@K@std@@@std@@YAPAKPAK00AAV?$allocator@K@0@@Z ; std::_Uninitialized_copy<unsigned long *,unsigned long *,std::allocator<unsigned long> >
; Function compile flags: /Odt
; File d:\program files (x86)\microsoft visual studio .net 2003\vc7\include\vector
;	COMDAT ??$_Ucopy@PAK@?$vector@KV?$allocator@K@std@@@std@@IAEPAKPAK00@Z
_TEXT	SEGMENT
_this$ = -4						; size = 4
__First$ = 8						; size = 4
__Last$ = 12						; size = 4
__Ptr$ = 16						; size = 4
??$_Ucopy@PAK@?$vector@KV?$allocator@K@std@@@std@@IAEPAKPAK00@Z PROC NEAR ; std::vector<unsigned long,std::allocator<unsigned long> >::_Ucopy<unsigned long *>, COMDAT
; _this$ = ecx

; 801  : 		pointer _Ucopy(_Iter _First, _Iter _Last, pointer _Ptr)

  00000	55		 push	 ebp
  00001	8b ec		 mov	 ebp, esp
  00003	51		 push	 ecx
  00004	89 4d fc	 mov	 DWORD PTR _this$[ebp], ecx

; 802  : 		{	// copy initializing [_First, _Last), using allocator
; 803  : 		return (_Uninitialized_copy(_First, _Last,
; 804  : 			_Ptr, this->_Alval));

  00007	8b 45 fc	 mov	 eax, DWORD PTR _this$[ebp]
  0000a	50		 push	 eax
  0000b	8b 4d 10	 mov	 ecx, DWORD PTR __Ptr$[ebp]
  0000e	51		 push	 ecx
  0000f	8b 55 0c	 mov	 edx, DWORD PTR __Last$[ebp]
  00012	52		 push	 edx
  00013	8b 45 08	 mov	 eax, DWORD PTR __First$[ebp]
  00016	50		 push	 eax
  00017	e8 00 00 00 00	 call	 ??$_Uninitialized_copy@PAKPAKV?$allocator@K@std@@@std@@YAPAKPAK00AAV?$allocator@K@0@@Z ; std::_Uninitialized_copy<unsigned long *,unsigned long *,std::allocator<unsigned long> >
  0001c	83 c4 10	 add	 esp, 16			; 00000010H

; 805  : 		}

  0001f	8b e5		 mov	 esp, ebp
  00021	5d		 pop	 ebp
  00022	c2 0c 00	 ret	 12			; 0000000cH
??$_Ucopy@PAK@?$vector@KV?$allocator@K@std@@@std@@IAEPAKPAK00@Z ENDP ; std::vector<unsigned long,std::allocator<unsigned long> >::_Ucopy<unsigned long *>
; Function compile flags: /Odt
; File d:\program files (x86)\microsoft visual studio .net 2003\vc7\include\xutility
_TEXT	ENDS
;	COMDAT ??$fill@PAKK@std@@YAXPAK0ABK@Z
_TEXT	SEGMENT
__First$ = 8						; size = 4
__Last$ = 12						; size = 4
__Val$ = 16						; size = 4
??$fill@PAKK@std@@YAXPAK0ABK@Z PROC NEAR		; std::fill<unsigned long *,unsigned long>, COMDAT

; 1134 : 	{	// copy _Val through [_First, _Last)

  00000	55		 push	 ebp
  00001	8b ec		 mov	 ebp, esp

; 1135 : 	for (; _First != _Last; ++_First)

  00003	eb 09		 jmp	 SHORT $L209608
$L209609:
  00005	8b 45 08	 mov	 eax, DWORD PTR __First$[ebp]
  00008	83 c0 04	 add	 eax, 4
  0000b	89 45 08	 mov	 DWORD PTR __First$[ebp], eax
$L209608:
  0000e	8b 4d 08	 mov	 ecx, DWORD PTR __First$[ebp]
  00011	3b 4d 0c	 cmp	 ecx, DWORD PTR __Last$[ebp]
  00014	74 0c		 je	 SHORT $L209607

; 1136 : 		*_First = _Val;

  00016	8b 55 08	 mov	 edx, DWORD PTR __First$[ebp]
  00019	8b 45 10	 mov	 eax, DWORD PTR __Val$[ebp]
  0001c	8b 08		 mov	 ecx, DWORD PTR [eax]
  0001e	89 0a		 mov	 DWORD PTR [edx], ecx
  00020	eb e3		 jmp	 SHORT $L209609
$L209607:

; 1137 : 	}

  00022	5d		 pop	 ebp
  00023	c3		 ret	 0
??$fill@PAKK@std@@YAXPAK0ABK@Z ENDP			; std::fill<unsigned long *,unsigned long>
_TEXT	ENDS
PUBLIC	??$_Copy_backward_opt@PAKPAK@std@@YAPAKPAK00U_Scalar_ptr_iterator_tag@0@@Z ; std::_Copy_backward_opt<unsigned long *,unsigned long *>
; Function compile flags: /Odt
;	COMDAT ??$copy_backward@PAKPAK@std@@YAPAKPAK00@Z
_TEXT	SEGMENT
$T211738 = -1						; size = 1
__First$ = 8						; size = 4
__Last$ = 12						; size = 4
__Dest$ = 16						; size = 4
??$copy_backward@PAKPAK@std@@YAPAKPAK00@Z PROC NEAR	; std::copy_backward<unsigned long *,unsigned long *>, COMDAT

; 1067 : 	{	// copy [_First, _Last) backwards to [..., _Dest)

  00000	55		 push	 ebp
  00001	8b ec		 mov	 ebp, esp
  00003	51		 push	 ecx

; 1068 : 	return (_Copy_backward_opt(_First, _Last, _Dest,
; 1069 : 		_Ptr_cat(_First, _Dest)));

  00004	8b 45 10	 mov	 eax, DWORD PTR __Dest$[ebp]
  00007	50		 push	 eax
  00008	8b 4d 08	 mov	 ecx, DWORD PTR __First$[ebp]
  0000b	51		 push	 ecx
  0000c	e8 00 00 00 00	 call	 ?_Ptr_cat@std@@YA?AU_Scalar_ptr_iterator_tag@1@PAK0@Z ; std::_Ptr_cat
  00011	83 c4 08	 add	 esp, 8
  00014	88 45 ff	 mov	 BYTE PTR $T211738[ebp], al
  00017	8a 55 ff	 mov	 dl, BYTE PTR $T211738[ebp]
  0001a	52		 push	 edx
  0001b	8b 45 10	 mov	 eax, DWORD PTR __Dest$[ebp]
  0001e	50		 push	 eax
  0001f	8b 4d 0c	 mov	 ecx, DWORD PTR __Last$[ebp]
  00022	51		 push	 ecx
  00023	8b 55 08	 mov	 edx, DWORD PTR __First$[ebp]
  00026	52		 push	 edx
  00027	e8 00 00 00 00	 call	 ??$_Copy_backward_opt@PAKPAK@std@@YAPAKPAK00U_Scalar_ptr_iterator_tag@0@@Z ; std::_Copy_backward_opt<unsigned long *,unsigned long *>
  0002c	83 c4 10	 add	 esp, 16			; 00000010H

; 1070 : 	}

  0002f	8b e5		 mov	 esp, ebp
  00031	5d		 pop	 ebp
  00032	c3		 ret	 0
??$copy_backward@PAKPAK@std@@YAPAKPAK00@Z ENDP		; std::copy_backward<unsigned long *,unsigned long *>
; Function compile flags: /Odt
; File d:\program files (x86)\microsoft visual studio .net 2003\vc7\include\xmemory
_TEXT	ENDS
;	COMDAT ??$_Allocate@K@std@@YAPAKIPAK@Z
_TEXT	SEGMENT
__Count$ = 8						; size = 4
___formal$ = 12						; size = 4
??$_Allocate@K@std@@YAPAKIPAK@Z PROC NEAR		; std::_Allocate<unsigned long>, COMDAT

; 33   : 	{	// allocate storage for _Count elements of type _Ty

  00000	55		 push	 ebp
  00001	8b ec		 mov	 ebp, esp

; 34   : 	return ((_Ty _FARQ *)operator new(_Count * sizeof (_Ty)));

  00003	8b 45 08	 mov	 eax, DWORD PTR __Count$[ebp]
  00006	c1 e0 02	 shl	 eax, 2
  00009	50		 push	 eax
  0000a	e8 00 00 00 00	 call	 ??2@YAPAXI@Z		; operator new
  0000f	83 c4 04	 add	 esp, 4

; 35   : 	}

  00012	5d		 pop	 ebp
  00013	c3		 ret	 0
??$_Allocate@K@std@@YAPAKIPAK@Z ENDP			; std::_Allocate<unsigned long>
; Function compile flags: /Odt
_TEXT	ENDS
;	COMDAT ??$?0PAVIMessageObserver@@@?$allocator@PAU_Node@?$_List_nod@PAVIMessageObserver@@V?$allocator@PAVIMessageObserver@@@std@@@std@@@std@@QAE@ABV?$allocator@PAVIMessageObserver@@@1@@Z
_TEXT	SEGMENT
_this$ = -4						; size = 4
___formal$ = 8						; size = 4
??$?0PAVIMessageObserver@@@?$allocator@PAU_Node@?$_List_nod@PAVIMessageObserver@@V?$allocator@PAVIMessageObserver@@@std@@@std@@@std@@QAE@ABV?$allocator@PAVIMessageObserver@@@1@@Z PROC NEAR ; std::allocator<std::_List_nod<IMessageObserver *,std::allocator<IMessageObserver *> >::_Node *>::allocator<std::_List_nod<IMessageObserver *,std::allocator<IMessageObserver *> >::_Node *><IMessageObserver *>, COMDAT
; _this$ = ecx

; 120  : 		allocator(const allocator<_Other>&)

  00000	55		 push	 ebp
  00001	8b ec		 mov	 ebp, esp
  00003	51		 push	 ecx
  00004	89 4d fc	 mov	 DWORD PTR _this$[ebp], ecx

; 121  : 		{	// construct from a related allocator (do nothing)
; 122  : 		}

  00007	8b 45 fc	 mov	 eax, DWORD PTR _this$[ebp]
  0000a	8b e5		 mov	 esp, ebp
  0000c	5d		 pop	 ebp
  0000d	c2 04 00	 ret	 4
??$?0PAVIMessageObserver@@@?$allocator@PAU_Node@?$_List_nod@PAVIMessageObserver@@V?$allocator@PAVIMessageObserver@@@std@@@std@@@std@@QAE@ABV?$allocator@PAVIMessageObserver@@@1@@Z ENDP ; std::allocator<std::_List_nod<IMessageObserver *,std::allocator<IMessageObserver *> >::_Node *>::allocator<std::_List_nod<IMessageObserver *,std::allocator<IMessageObserver *> >::_Node *><IMessageObserver *>
; Function compile flags: /Odt
_TEXT	ENDS
;	COMDAT ??$_Allocate@U_Node@?$_List_nod@PAVIMessageObserver@@V?$allocator@PAVIMessageObserver@@@std@@@std@@@std@@YAPAU_Node@?$_List_nod@PAVIMessageObserver@@V?$allocator@PAVIMessageObserver@@@std@@@0@IPAU120@@Z
_TEXT	SEGMENT
__Count$ = 8						; size = 4
___formal$ = 12						; size = 4
??$_Allocate@U_Node@?$_List_nod@PAVIMessageObserver@@V?$allocator@PAVIMessageObserver@@@std@@@std@@@std@@YAPAU_Node@?$_List_nod@PAVIMessageObserver@@V?$allocator@PAVIMessageObserver@@@std@@@0@IPAU120@@Z PROC NEAR ; std::_Allocate<std::_List_nod<IMessageObserver *,std::allocator<IMessageObserver *> >::_Node>, COMDAT

; 33   : 	{	// allocate storage for _Count elements of type _Ty

  00000	55		 push	 ebp
  00001	8b ec		 mov	 ebp, esp

; 34   : 	return ((_Ty _FARQ *)operator new(_Count * sizeof (_Ty)));

  00003	8b 45 08	 mov	 eax, DWORD PTR __Count$[ebp]
  00006	6b c0 0c	 imul	 eax, 12			; 0000000cH
  00009	50		 push	 eax
  0000a	e8 00 00 00 00	 call	 ??2@YAPAXI@Z		; operator new
  0000f	83 c4 04	 add	 esp, 4

; 35   : 	}

  00012	5d		 pop	 ebp
  00013	c3		 ret	 0
??$_Allocate@U_Node@?$_List_nod@PAVIMessageObserver@@V?$allocator@PAVIMessageObserver@@@std@@@std@@@std@@YAPAU_Node@?$_List_nod@PAVIMessageObserver@@V?$allocator@PAVIMessageObserver@@@std@@@0@IPAU120@@Z ENDP ; std::_Allocate<std::_List_nod<IMessageObserver *,std::allocator<IMessageObserver *> >::_Node>
_TEXT	ENDS
PUBLIC	??2@YAPAXIPAX@Z					; operator new
; Function compile flags: /Odt
;	COMDAT ??$_Construct@PAU_Node@?$_List_nod@PAVIMessageObserver@@V?$allocator@PAVIMessageObserver@@@std@@@std@@PAU123@@std@@YAXPAPAU_Node@?$_List_nod@PAVIMessageObserver@@V?$allocator@PAVIMessageObserver@@@std@@@0@ABQAU120@@Z
_TEXT	SEGMENT
tv68 = -8						; size = 4
$T211747 = -4						; size = 4
__Ptr$ = 8						; size = 4
__Val$ = 12						; size = 4
??$_Construct@PAU_Node@?$_List_nod@PAVIMessageObserver@@V?$allocator@PAVIMessageObserver@@@std@@@std@@PAU123@@std@@YAXPAPAU_Node@?$_List_nod@PAVIMessageObserver@@V?$allocator@PAVIMessageObserver@@@std@@@0@ABQAU120@@Z PROC NEAR ; std::_Construct<std::_List_nod<IMessageObserver *,std::allocator<IMessageObserver *> >::_Node *,std::_List_nod<IMessageObserver *,std::allocator<IMessageObserver *> >::_Node *>, COMDAT

; 41   : 	{	// construct object at _Ptr with value _Val

  00000	55		 push	 ebp
  00001	8b ec		 mov	 ebp, esp
  00003	83 ec 08	 sub	 esp, 8

; 42   : 	new ((void _FARQ *)_Ptr) _T1(_Val);

  00006	8b 45 08	 mov	 eax, DWORD PTR __Ptr$[ebp]
  00009	50		 push	 eax
  0000a	6a 04		 push	 4
  0000c	e8 00 00 00 00	 call	 ??2@YAPAXIPAX@Z		; operator new
  00011	83 c4 08	 add	 esp, 8
  00014	89 45 fc	 mov	 DWORD PTR $T211747[ebp], eax
  00017	83 7d fc 00	 cmp	 DWORD PTR $T211747[ebp], 0
  0001b	74 12		 je	 SHORT $L211748
  0001d	8b 4d fc	 mov	 ecx, DWORD PTR $T211747[ebp]
  00020	8b 55 0c	 mov	 edx, DWORD PTR __Val$[ebp]
  00023	8b 02		 mov	 eax, DWORD PTR [edx]
  00025	89 01		 mov	 DWORD PTR [ecx], eax
  00027	8b 4d fc	 mov	 ecx, DWORD PTR $T211747[ebp]
  0002a	89 4d f8	 mov	 DWORD PTR tv68[ebp], ecx
  0002d	eb 07		 jmp	 SHORT $L209637
$L211748:
  0002f	c7 45 f8 00 00
	00 00		 mov	 DWORD PTR tv68[ebp], 0
$L209637:

; 43   : 	}

  00036	8b e5		 mov	 esp, ebp
  00038	5d		 pop	 ebp
  00039	c3		 ret	 0
??$_Construct@PAU_Node@?$_List_nod@PAVIMessageObserver@@V?$allocator@PAVIMessageObserver@@@std@@@std@@PAU123@@std@@YAXPAPAU_Node@?$_List_nod@PAVIMessageObserver@@V?$allocator@PAVIMessageObserver@@@std@@@0@ABQAU120@@Z ENDP ; std::_Construct<std::_List_nod<IMessageObserver *,std::allocator<IMessageObserver *> >::_Node *,std::_List_nod<IMessageObserver *,std::allocator<IMessageObserver *> >::_Node *>
; Function compile flags: /Odt
; File d:\program files (x86)\microsoft visual studio .net 2003\vc7\include\new.h
_TEXT	ENDS
;	COMDAT ??2@YAPAXIPAX@Z
_TEXT	SEGMENT
___formal$ = 8						; size = 4
__P$ = 12						; size = 4
??2@YAPAXIPAX@Z PROC NEAR				; operator new, COMDAT

; 109  :         {return (_P); }

  00000	55		 push	 ebp
  00001	8b ec		 mov	 ebp, esp
  00003	8b 45 0c	 mov	 eax, DWORD PTR __P$[ebp]
  00006	5d		 pop	 ebp
  00007	c3		 ret	 0
??2@YAPAXIPAX@Z ENDP					; operator new
; Function compile flags: /Odt
; File d:\program files (x86)\microsoft visual studio .net 2003\vc7\include\xmemory
_TEXT	ENDS
;	COMDAT ??$_Destroy@PAU_Node@?$_List_nod@PAVIMessageObserver@@V?$allocator@PAVIMessageObserver@@@std@@@std@@@std@@YAXPAPAU_Node@?$_List_nod@PAVIMessageObserver@@V?$allocator@PAVIMessageObserver@@@std@@@0@@Z
_TEXT	SEGMENT
__Ptr$ = 8						; size = 4
??$_Destroy@PAU_Node@?$_List_nod@PAVIMessageObserver@@V?$allocator@PAVIMessageObserver@@@std@@@std@@@std@@YAXPAPAU_Node@?$_List_nod@PAVIMessageObserver@@V?$allocator@PAVIMessageObserver@@@std@@@0@@Z PROC NEAR ; std::_Destroy<std::_List_nod<IMessageObserver *,std::allocator<IMessageObserver *> >::_Node *>, COMDAT

; 48   : 	{	// destroy object at _Ptr

  00000	55		 push	 ebp
  00001	8b ec		 mov	 ebp, esp

; 49   : 	_DESTRUCTOR(_Ty, _Ptr);
; 50   : 	}

  00003	5d		 pop	 ebp
  00004	c3		 ret	 0
??$_Destroy@PAU_Node@?$_List_nod@PAVIMessageObserver@@V?$allocator@PAVIMessageObserver@@@std@@@std@@@std@@YAXPAPAU_Node@?$_List_nod@PAVIMessageObserver@@V?$allocator@PAVIMessageObserver@@@std@@@0@@Z ENDP ; std::_Destroy<std::_List_nod<IMessageObserver *,std::allocator<IMessageObserver *> >::_Node *>
; Function compile flags: /Odt
_TEXT	ENDS
;	COMDAT ??$?0PAVIMessageObserver@@@?$allocator@U_Node@?$_List_nod@PAVIMessageObserver@@V?$allocator@PAVIMessageObserver@@@std@@@std@@@std@@QAE@ABV?$allocator@PAVIMessageObserver@@@1@@Z
_TEXT	SEGMENT
_this$ = -4						; size = 4
___formal$ = 8						; size = 4
??$?0PAVIMessageObserver@@@?$allocator@U_Node@?$_List_nod@PAVIMessageObserver@@V?$allocator@PAVIMessageObserver@@@std@@@std@@@std@@QAE@ABV?$allocator@PAVIMessageObserver@@@1@@Z PROC NEAR ; std::allocator<std::_List_nod<IMessageObserver *,std::allocator<IMessageObserver *> >::_Node>::allocator<std::_List_nod<IMessageObserver *,std::allocator<IMessageObserver *> >::_Node><IMessageObserver *>, COMDAT
; _this$ = ecx

; 120  : 		allocator(const allocator<_Other>&)

  00000	55		 push	 ebp
  00001	8b ec		 mov	 ebp, esp
  00003	51		 push	 ecx
  00004	89 4d fc	 mov	 DWORD PTR _this$[ebp], ecx

; 121  : 		{	// construct from a related allocator (do nothing)
; 122  : 		}

  00007	8b 45 fc	 mov	 eax, DWORD PTR _this$[ebp]
  0000a	8b e5		 mov	 esp, ebp
  0000c	5d		 pop	 ebp
  0000d	c2 04 00	 ret	 4
??$?0PAVIMessageObserver@@@?$allocator@U_Node@?$_List_nod@PAVIMessageObserver@@V?$allocator@PAVIMessageObserver@@@std@@@std@@@std@@QAE@ABV?$allocator@PAVIMessageObserver@@@1@@Z ENDP ; std::allocator<std::_List_nod<IMessageObserver *,std::allocator<IMessageObserver *> >::_Node>::allocator<std::_List_nod<IMessageObserver *,std::allocator<IMessageObserver *> >::_Node><IMessageObserver *>
; Function compile flags: /Odt
_TEXT	ENDS
;	COMDAT ??$_Destroy@U_Node@?$_List_nod@PAVIMessageObserver@@V?$allocator@PAVIMessageObserver@@@std@@@std@@@std@@YAXPAU_Node@?$_List_nod@PAVIMessageObserver@@V?$allocator@PAVIMessageObserver@@@std@@@0@@Z
_TEXT	SEGMENT
__Ptr$ = 8						; size = 4
??$_Destroy@U_Node@?$_List_nod@PAVIMessageObserver@@V?$allocator@PAVIMessageObserver@@@std@@@std@@@std@@YAXPAU_Node@?$_List_nod@PAVIMessageObserver@@V?$allocator@PAVIMessageObserver@@@std@@@0@@Z PROC NEAR ; std::_Destroy<std::_List_nod<IMessageObserver *,std::allocator<IMessageObserver *> >::_Node>, COMDAT

; 48   : 	{	// destroy object at _Ptr

  00000	55		 push	 ebp
  00001	8b ec		 mov	 ebp, esp

; 49   : 	_DESTRUCTOR(_Ty, _Ptr);
; 50   : 	}

  00003	5d		 pop	 ebp
  00004	c3		 ret	 0
??$_Destroy@U_Node@?$_List_nod@PAVIMessageObserver@@V?$allocator@PAVIMessageObserver@@@std@@@std@@@std@@YAXPAU_Node@?$_List_nod@PAVIMessageObserver@@V?$allocator@PAVIMessageObserver@@@std@@@0@@Z ENDP ; std::_Destroy<std::_List_nod<IMessageObserver *,std::allocator<IMessageObserver *> >::_Node>
; Function compile flags: /Odt
; File d:\program files (x86)\microsoft visual studio .net 2003\vc7\atlmfc\include\afx.inl
_TEXT	ENDS
;	COMDAT ??3CObject@@SGXPAX@Z
_TEXT	SEGMENT
_p$ = 8							; size = 4
??3CObject@@SGXPAX@Z PROC NEAR				; CObject::operator delete, COMDAT

; 31   : 	{ ::operator delete(p); }

  00000	55		 push	 ebp
  00001	8b ec		 mov	 ebp, esp
  00003	8b 45 08	 mov	 eax, DWORD PTR _p$[ebp]
  00006	50		 push	 eax
  00007	e8 00 00 00 00	 call	 ??3@YAXPAX@Z		; operator delete
  0000c	83 c4 04	 add	 esp, 4
  0000f	5d		 pop	 ebp
  00010	c2 04 00	 ret	 4
??3CObject@@SGXPAX@Z ENDP				; CObject::operator delete
; Function compile flags: /Odt
_TEXT	ENDS
;	COMDAT ??2CObject@@SGPAXI@Z
_TEXT	SEGMENT
_nSize$ = 8						; size = 4
??2CObject@@SGPAXI@Z PROC NEAR				; CObject::operator new, COMDAT

; 37   : 	{ return ::operator new(nSize); }

  00000	55		 push	 ebp
  00001	8b ec		 mov	 ebp, esp
  00003	8b 45 08	 mov	 eax, DWORD PTR _nSize$[ebp]
  00006	50		 push	 eax
  00007	e8 00 00 00 00	 call	 ??2@YAPAXI@Z		; operator new
  0000c	83 c4 04	 add	 esp, 4
  0000f	5d		 pop	 ebp
  00010	c2 04 00	 ret	 4
??2CObject@@SGPAXI@Z ENDP				; CObject::operator new
_TEXT	ENDS
EXTRN	__imp__memmove:NEAR
; Function compile flags: /Odt
; File d:\program files (x86)\microsoft visual studio .net 2003\vc7\include\xutility
;	COMDAT ??$_Copy_opt@PAKPAK@std@@YAPAKPAK00U_Scalar_ptr_iterator_tag@0@@Z
_TEXT	SEGMENT
__Off$ = -4						; size = 4
__First$ = 8						; size = 4
__Last$ = 12						; size = 4
__Dest$ = 16						; size = 4
___formal$ = 20						; size = 1
??$_Copy_opt@PAKPAK@std@@YAPAKPAK00U_Scalar_ptr_iterator_tag@0@@Z PROC NEAR ; std::_Copy_opt<unsigned long *,unsigned long *>, COMDAT

; 1030 : 	{	// copy [_First, _Last) to [_Dest, ...), pointers to scalars

  00000	55		 push	 ebp
  00001	8b ec		 mov	 ebp, esp
  00003	51		 push	 ecx

; 1031 : 	ptrdiff_t _Off = _Last - _First;	// NB: non-overlapping move

  00004	8b 45 0c	 mov	 eax, DWORD PTR __Last$[ebp]
  00007	2b 45 08	 sub	 eax, DWORD PTR __First$[ebp]
  0000a	c1 f8 02	 sar	 eax, 2
  0000d	89 45 fc	 mov	 DWORD PTR __Off$[ebp], eax

; 1032 : 	return ((_OutIt)::memmove(&*_Dest, &*_First,
; 1033 : 		_Off * sizeof (*_First)) + _Off);

  00010	8b 4d fc	 mov	 ecx, DWORD PTR __Off$[ebp]
  00013	c1 e1 02	 shl	 ecx, 2
  00016	51		 push	 ecx
  00017	8b 55 08	 mov	 edx, DWORD PTR __First$[ebp]
  0001a	52		 push	 edx
  0001b	8b 45 10	 mov	 eax, DWORD PTR __Dest$[ebp]
  0001e	50		 push	 eax
  0001f	ff 15 00 00 00
	00		 call	 DWORD PTR __imp__memmove
  00025	83 c4 0c	 add	 esp, 12			; 0000000cH
  00028	8b 4d fc	 mov	 ecx, DWORD PTR __Off$[ebp]
  0002b	8d 04 88	 lea	 eax, DWORD PTR [eax+ecx*4]

; 1034 : 	}

  0002e	8b e5		 mov	 esp, ebp
  00030	5d		 pop	 ebp
  00031	c3		 ret	 0
??$_Copy_opt@PAKPAK@std@@YAPAKPAK00U_Scalar_ptr_iterator_tag@0@@Z ENDP ; std::_Copy_opt<unsigned long *,unsigned long *>
; Function compile flags: /Odt
; File d:\program files (x86)\microsoft visual studio .net 2003\vc7\include\xmemory
_TEXT	ENDS
;	COMDAT ??$_Destroy_range@KV?$allocator@K@std@@@std@@YAXPAK0AAV?$allocator@K@0@U_Scalar_ptr_iterator_tag@0@@Z
_TEXT	SEGMENT
__First$ = 8						; size = 4
__Last$ = 12						; size = 4
__Al$ = 16						; size = 4
___formal$ = 20						; size = 1
??$_Destroy_range@KV?$allocator@K@std@@@std@@YAXPAK0AAV?$allocator@K@0@U_Scalar_ptr_iterator_tag@0@@Z PROC NEAR ; std::_Destroy_range<unsigned long,std::allocator<unsigned long> >, COMDAT

; 233  : 	{	// destroy [_First, _Last), scalar type (do nothing)

  00000	55		 push	 ebp
  00001	8b ec		 mov	 ebp, esp

; 234  : 	}

  00003	5d		 pop	 ebp
  00004	c3		 ret	 0
??$_Destroy_range@KV?$allocator@K@std@@@std@@YAXPAK0AAV?$allocator@K@0@U_Scalar_ptr_iterator_tag@0@@Z ENDP ; std::_Destroy_range<unsigned long,std::allocator<unsigned long> >
_TEXT	ENDS
PUBLIC	??$fill_n@PAKIK@std@@YAXPAKIABK@Z		; std::fill_n<unsigned long *,unsigned int,unsigned long>
; Function compile flags: /Odt
; File d:\program files (x86)\microsoft visual studio .net 2003\vc7\include\memory
;	COMDAT ??$_Uninit_fill_n@KIK@std@@YAXPAKIABKAAV?$allocator@K@0@U_Scalar_ptr_iterator_tag@0@@Z
_TEXT	SEGMENT
__First$ = 8						; size = 4
__Count$ = 12						; size = 4
__Val$ = 16						; size = 4
___formal$ = 20						; size = 4
___formal$ = 24						; size = 1
??$_Uninit_fill_n@KIK@std@@YAXPAKIABKAAV?$allocator@K@0@U_Scalar_ptr_iterator_tag@0@@Z PROC NEAR ; std::_Uninit_fill_n<unsigned long,unsigned int,unsigned long>, COMDAT

; 236  : 	{	// copy _Count *_Val to raw _First, using _Al, scalar type

  00000	55		 push	 ebp
  00001	8b ec		 mov	 ebp, esp

; 237  : 	fill_n(_First, _Count, _Val);

  00003	8b 45 10	 mov	 eax, DWORD PTR __Val$[ebp]
  00006	50		 push	 eax
  00007	8b 4d 0c	 mov	 ecx, DWORD PTR __Count$[ebp]
  0000a	51		 push	 ecx
  0000b	8b 55 08	 mov	 edx, DWORD PTR __First$[ebp]
  0000e	52		 push	 edx
  0000f	e8 00 00 00 00	 call	 ??$fill_n@PAKIK@std@@YAXPAKIABK@Z ; std::fill_n<unsigned long *,unsigned int,unsigned long>
  00014	83 c4 0c	 add	 esp, 12			; 0000000cH

; 238  : 	}

  00017	5d		 pop	 ebp
  00018	c3		 ret	 0
??$_Uninit_fill_n@KIK@std@@YAXPAKIABKAAV?$allocator@K@0@U_Scalar_ptr_iterator_tag@0@@Z ENDP ; std::_Uninit_fill_n<unsigned long,unsigned int,unsigned long>
_TEXT	ENDS
PUBLIC	??$_Uninit_copy@KK@std@@YAPAKPAK00AAV?$allocator@K@0@U_Scalar_ptr_iterator_tag@0@@Z ; std::_Uninit_copy<unsigned long,unsigned long>
; Function compile flags: /Odt
;	COMDAT ??$_Uninitialized_copy@PAKPAKV?$allocator@K@std@@@std@@YAPAKPAK00AAV?$allocator@K@0@@Z
_TEXT	SEGMENT
$T211770 = -1						; size = 1
__First$ = 8						; size = 4
__Last$ = 12						; size = 4
__Dest$ = 16						; size = 4
__Al$ = 20						; size = 4
??$_Uninitialized_copy@PAKPAKV?$allocator@K@std@@@std@@YAPAKPAK00AAV?$allocator@K@0@@Z PROC NEAR ; std::_Uninitialized_copy<unsigned long *,unsigned long *,std::allocator<unsigned long> >, COMDAT

; 126  : 	{	// copy [_First, _Last) to raw _Dest, using _Al

  00000	55		 push	 ebp
  00001	8b ec		 mov	 ebp, esp
  00003	51		 push	 ecx

; 127  : 	return (_Uninit_copy(_First, _Last, _Dest, _Al,
; 128  : 		_Ptr_cat(_First, _Dest)));

  00004	8b 45 10	 mov	 eax, DWORD PTR __Dest$[ebp]
  00007	50		 push	 eax
  00008	8b 4d 08	 mov	 ecx, DWORD PTR __First$[ebp]
  0000b	51		 push	 ecx
  0000c	e8 00 00 00 00	 call	 ?_Ptr_cat@std@@YA?AU_Scalar_ptr_iterator_tag@1@PAK0@Z ; std::_Ptr_cat
  00011	83 c4 08	 add	 esp, 8
  00014	88 45 ff	 mov	 BYTE PTR $T211770[ebp], al
  00017	8a 55 ff	 mov	 dl, BYTE PTR $T211770[ebp]
  0001a	52		 push	 edx
  0001b	8b 45 14	 mov	 eax, DWORD PTR __Al$[ebp]
  0001e	50		 push	 eax
  0001f	8b 4d 10	 mov	 ecx, DWORD PTR __Dest$[ebp]
  00022	51		 push	 ecx
  00023	8b 55 0c	 mov	 edx, DWORD PTR __Last$[ebp]
  00026	52		 push	 edx
  00027	8b 45 08	 mov	 eax, DWORD PTR __First$[ebp]
  0002a	50		 push	 eax
  0002b	e8 00 00 00 00	 call	 ??$_Uninit_copy@KK@std@@YAPAKPAK00AAV?$allocator@K@0@U_Scalar_ptr_iterator_tag@0@@Z ; std::_Uninit_copy<unsigned long,unsigned long>
  00030	83 c4 14	 add	 esp, 20			; 00000014H

; 129  : 	}

  00033	8b e5		 mov	 esp, ebp
  00035	5d		 pop	 ebp
  00036	c3		 ret	 0
??$_Uninitialized_copy@PAKPAKV?$allocator@K@std@@@std@@YAPAKPAK00AAV?$allocator@K@0@@Z ENDP ; std::_Uninitialized_copy<unsigned long *,unsigned long *,std::allocator<unsigned long> >
; Function compile flags: /Odt
; File d:\program files (x86)\microsoft visual studio .net 2003\vc7\include\xutility
_TEXT	ENDS
;	COMDAT ??$_Copy_backward_opt@PAKPAK@std@@YAPAKPAK00U_Scalar_ptr_iterator_tag@0@@Z
_TEXT	SEGMENT
__Off$ = -4						; size = 4
__First$ = 8						; size = 4
__Last$ = 12						; size = 4
__Dest$ = 16						; size = 4
___formal$ = 20						; size = 1
??$_Copy_backward_opt@PAKPAK@std@@YAPAKPAK00U_Scalar_ptr_iterator_tag@0@@Z PROC NEAR ; std::_Copy_backward_opt<unsigned long *,unsigned long *>, COMDAT

; 1058 : 	{	// copy [_First, _Last) backwards to [..., _Dest), pointers to scalars

  00000	55		 push	 ebp
  00001	8b ec		 mov	 ebp, esp
  00003	51		 push	 ecx

; 1059 : 	ptrdiff_t _Off = _Last - _First;	// NB: non-overlapping move

  00004	8b 45 0c	 mov	 eax, DWORD PTR __Last$[ebp]
  00007	2b 45 08	 sub	 eax, DWORD PTR __First$[ebp]
  0000a	c1 f8 02	 sar	 eax, 2
  0000d	89 45 fc	 mov	 DWORD PTR __Off$[ebp], eax

; 1060 : 	return ((_OutIt)memmove(&*_Dest - _Off, &*_First,
; 1061 : 		_Off * sizeof (*_First)));

  00010	8b 4d fc	 mov	 ecx, DWORD PTR __Off$[ebp]
  00013	c1 e1 02	 shl	 ecx, 2
  00016	51		 push	 ecx
  00017	8b 55 08	 mov	 edx, DWORD PTR __First$[ebp]
  0001a	52		 push	 edx
  0001b	8b 45 fc	 mov	 eax, DWORD PTR __Off$[ebp]
  0001e	c1 e0 02	 shl	 eax, 2
  00021	8b 4d 10	 mov	 ecx, DWORD PTR __Dest$[ebp]
  00024	2b c8		 sub	 ecx, eax
  00026	51		 push	 ecx
  00027	ff 15 00 00 00
	00		 call	 DWORD PTR __imp__memmove
  0002d	83 c4 0c	 add	 esp, 12			; 0000000cH

; 1062 : 	}

  00030	8b e5		 mov	 esp, ebp
  00032	5d		 pop	 ebp
  00033	c3		 ret	 0
??$_Copy_backward_opt@PAKPAK@std@@YAPAKPAK00U_Scalar_ptr_iterator_tag@0@@Z ENDP ; std::_Copy_backward_opt<unsigned long *,unsigned long *>
; Function compile flags: /Odt
_TEXT	ENDS
;	COMDAT ??$fill_n@PAKIK@std@@YAXPAKIABK@Z
_TEXT	SEGMENT
__First$ = 8						; size = 4
__Count$ = 12						; size = 4
__Val$ = 16						; size = 4
??$fill_n@PAKIK@std@@YAXPAKIABK@Z PROC NEAR		; std::fill_n<unsigned long *,unsigned int,unsigned long>, COMDAT

; 1159 : 	{	// copy _Val _Count times through [_First, ...)

  00000	55		 push	 ebp
  00001	8b ec		 mov	 ebp, esp

; 1160 : 	for (; 0 < _Count; --_Count, ++_First)

  00003	eb 12		 jmp	 SHORT $L210202
$L210203:
  00005	8b 45 0c	 mov	 eax, DWORD PTR __Count$[ebp]
  00008	83 e8 01	 sub	 eax, 1
  0000b	89 45 0c	 mov	 DWORD PTR __Count$[ebp], eax
  0000e	8b 4d 08	 mov	 ecx, DWORD PTR __First$[ebp]
  00011	83 c1 04	 add	 ecx, 4
  00014	89 4d 08	 mov	 DWORD PTR __First$[ebp], ecx
$L210202:
  00017	83 7d 0c 00	 cmp	 DWORD PTR __Count$[ebp], 0
  0001b	76 0c		 jbe	 SHORT $L210201

; 1161 : 		*_First = _Val;

  0001d	8b 55 08	 mov	 edx, DWORD PTR __First$[ebp]
  00020	8b 45 10	 mov	 eax, DWORD PTR __Val$[ebp]
  00023	8b 08		 mov	 ecx, DWORD PTR [eax]
  00025	89 0a		 mov	 DWORD PTR [edx], ecx
  00027	eb dc		 jmp	 SHORT $L210203
$L210201:

; 1162 : 	}

  00029	5d		 pop	 ebp
  0002a	c3		 ret	 0
??$fill_n@PAKIK@std@@YAXPAKIABK@Z ENDP			; std::fill_n<unsigned long *,unsigned int,unsigned long>
; Function compile flags: /Odt
; File d:\program files (x86)\microsoft visual studio .net 2003\vc7\include\memory
_TEXT	ENDS
;	COMDAT ??$_Uninit_copy@KK@std@@YAPAKPAK00AAV?$allocator@K@0@U_Scalar_ptr_iterator_tag@0@@Z
_TEXT	SEGMENT
__Count$ = -4						; size = 4
__First$ = 8						; size = 4
__Last$ = 12						; size = 4
__Dest$ = 16						; size = 4
___formal$ = 20						; size = 4
___formal$ = 24						; size = 1
??$_Uninit_copy@KK@std@@YAPAKPAK00AAV?$allocator@K@0@U_Scalar_ptr_iterator_tag@0@@Z PROC NEAR ; std::_Uninit_copy<unsigned long,unsigned long>, COMDAT

; 105  : 	{	// copy [_First, _Last) to raw _Dest, (const) scalar type

  00000	55		 push	 ebp
  00001	8b ec		 mov	 ebp, esp
  00003	51		 push	 ecx

; 106  : 	size_t _Count = (size_t)(_Last - _First);

  00004	8b 45 0c	 mov	 eax, DWORD PTR __Last$[ebp]
  00007	2b 45 08	 sub	 eax, DWORD PTR __First$[ebp]
  0000a	c1 f8 02	 sar	 eax, 2
  0000d	89 45 fc	 mov	 DWORD PTR __Count$[ebp], eax

; 107  : 	return ((_Ty2 *)memmove(&*_Dest, &*_First,
; 108  : 		_Count * sizeof (*_First)) + _Count);	// NB: non-overlapping move

  00010	8b 4d fc	 mov	 ecx, DWORD PTR __Count$[ebp]
  00013	c1 e1 02	 shl	 ecx, 2
  00016	51		 push	 ecx
  00017	8b 55 08	 mov	 edx, DWORD PTR __First$[ebp]
  0001a	52		 push	 edx
  0001b	8b 45 10	 mov	 eax, DWORD PTR __Dest$[ebp]
  0001e	50		 push	 eax
  0001f	ff 15 00 00 00
	00		 call	 DWORD PTR __imp__memmove
  00025	83 c4 0c	 add	 esp, 12			; 0000000cH
  00028	8b 4d fc	 mov	 ecx, DWORD PTR __Count$[ebp]
  0002b	8d 04 88	 lea	 eax, DWORD PTR [eax+ecx*4]

; 109  : 	}

  0002e	8b e5		 mov	 esp, ebp
  00030	5d		 pop	 ebp
  00031	c3		 ret	 0
??$_Uninit_copy@KK@std@@YAPAKPAK00AAV?$allocator@K@0@U_Scalar_ptr_iterator_tag@0@@Z ENDP ; std::_Uninit_copy<unsigned long,unsigned long>
; Function compile flags: /Odt
; File d:\program files (x86)\microsoft visual studio .net 2003\vc7\include\xutility
_TEXT	ENDS
;	COMDAT ?_Ptr_cat@std@@YA?AU_Scalar_ptr_iterator_tag@1@PAK0@Z
_TEXT	SEGMENT
__Cat$ = -1						; size = 1
___formal$ = 8						; size = 4
___formal$ = 12						; size = 4
?_Ptr_cat@std@@YA?AU_Scalar_ptr_iterator_tag@1@PAK0@Z PROC NEAR ; std::_Ptr_cat, COMDAT

; 371  : 	{	// return pointer category from pointer to unsigned long arguments

  00000	55		 push	 ebp
  00001	8b ec		 mov	 ebp, esp
  00003	51		 push	 ecx

; 372  : 	_Scalar_ptr_iterator_tag _Cat;
; 373  : 	return (_Cat);

  00004	8a 45 ff	 mov	 al, BYTE PTR __Cat$[ebp]

; 374  : 	}

  00007	8b e5		 mov	 esp, ebp
  00009	5d		 pop	 ebp
  0000a	c3		 ret	 0
?_Ptr_cat@std@@YA?AU_Scalar_ptr_iterator_tag@1@PAK0@Z ENDP ; std::_Ptr_cat
; Function compile flags: /Odt
; File d:\program files (x86)\microsoft visual studio .net 2003\vc7\include\stdexcept
_TEXT	ENDS
;	COMDAT ?what@logic_error@std@@UBEPBDXZ
_TEXT	SEGMENT
_this$ = -4						; size = 4
?what@logic_error@std@@UBEPBDXZ PROC NEAR		; std::logic_error::what, COMDAT
; _this$ = ecx

; 26   : 		{	// return pointer to message string

  00000	55		 push	 ebp
  00001	8b ec		 mov	 ebp, esp
  00003	51		 push	 ecx
  00004	89 4d fc	 mov	 DWORD PTR _this$[ebp], ecx

; 27   : 		return (_Str.c_str());

  00007	8b 4d fc	 mov	 ecx, DWORD PTR _this$[ebp]
  0000a	83 c1 0c	 add	 ecx, 12			; 0000000cH
  0000d	ff 15 00 00 00
	00		 call	 DWORD PTR __imp_?c_str@?$basic_string@DU?$char_traits@D@std@@V?$allocator@D@2@@std@@QBEPBDXZ

; 28   : 		}

  00013	8b e5		 mov	 esp, ebp
  00015	5d		 pop	 ebp
  00016	c3		 ret	 0
?what@logic_error@std@@UBEPBDXZ ENDP			; std::logic_error::what
_TEXT	ENDS
PUBLIC	??0logic_error@std@@QAE@ABV?$basic_string@DU?$char_traits@D@std@@V?$allocator@D@2@@1@@Z ; std::logic_error::logic_error
; Function compile flags: /Odt
;	COMDAT ??0length_error@std@@QAE@ABV?$basic_string@DU?$char_traits@D@std@@V?$allocator@D@2@@1@@Z
_TEXT	SEGMENT
_this$ = -4						; size = 4
__Message$ = 8						; size = 4
??0length_error@std@@QAE@ABV?$basic_string@DU?$char_traits@D@std@@V?$allocator@D@2@@1@@Z PROC NEAR ; std::length_error::length_error, COMDAT
; _this$ = ecx

; 95   : 		{	// construct from message string

  00000	55		 push	 ebp
  00001	8b ec		 mov	 ebp, esp
  00003	51		 push	 ecx
  00004	89 4d fc	 mov	 DWORD PTR _this$[ebp], ecx
  00007	8b 45 08	 mov	 eax, DWORD PTR __Message$[ebp]
  0000a	50		 push	 eax
  0000b	8b 4d fc	 mov	 ecx, DWORD PTR _this$[ebp]
  0000e	e8 00 00 00 00	 call	 ??0logic_error@std@@QAE@ABV?$basic_string@DU?$char_traits@D@std@@V?$allocator@D@2@@1@@Z ; std::logic_error::logic_error
  00013	8b 4d fc	 mov	 ecx, DWORD PTR _this$[ebp]
  00016	c7 01 00 00 00
	00		 mov	 DWORD PTR [ecx], OFFSET FLAT:??_7length_error@std@@6B@

; 96   : 		}

  0001c	8b 45 fc	 mov	 eax, DWORD PTR _this$[ebp]
  0001f	8b e5		 mov	 esp, ebp
  00021	5d		 pop	 ebp
  00022	c2 04 00	 ret	 4
??0length_error@std@@QAE@ABV?$basic_string@DU?$char_traits@D@std@@V?$allocator@D@2@@1@@Z ENDP ; std::length_error::length_error
_TEXT	ENDS
PUBLIC	??_R4logic_error@std@@6B@			; std::logic_error::`RTTI Complete Object Locator'
PUBLIC	??_R3logic_error@std@@8				; std::logic_error::`RTTI Class Hierarchy Descriptor'
PUBLIC	??_R2logic_error@std@@8				; std::logic_error::`RTTI Base Class Array'
PUBLIC	??_7logic_error@std@@6B@			; std::logic_error::`vftable'
PUBLIC	??_Glogic_error@std@@UAEPAXI@Z			; std::logic_error::`scalar deleting destructor'
EXTRN	__imp_??0exception@@QAE@XZ:NEAR
EXTRN	__imp_??1exception@@UAE@XZ:NEAR
EXTRN	__imp_??0?$basic_string@DU?$char_traits@D@std@@V?$allocator@D@2@@std@@QAE@ABV01@@Z:NEAR
EXTRN	??_Elogic_error@std@@UAEPAXI@Z:NEAR		; std::logic_error::`vector deleting destructor'
;	COMDAT xdata$x
xdata$x	SEGMENT
$T211791 DD	0ffffffffH
	DD	FLAT:$L211786
$T211789 DD	019930520H
	DD	01H
	DD	FLAT:$T211791
	DD	2 DUP(00H)
	DD	2 DUP(00H)
xdata$x	ENDS
;	COMDAT ??_7logic_error@std@@6B@
CONST	SEGMENT
??_7logic_error@std@@6B@ DD FLAT:??_R4logic_error@std@@6B@ ; std::logic_error::`vftable'
	DD	FLAT:??_Elogic_error@std@@UAEPAXI@Z
	DD	FLAT:?what@logic_error@std@@UBEPBDXZ
CONST	ENDS
;	COMDAT ??_R4logic_error@std@@6B@
rdata$r	SEGMENT
??_R4logic_error@std@@6B@ DD 00H			; std::logic_error::`RTTI Complete Object Locator'
	DD	00H
	DD	00H
	DD	FLAT:??_R0?AVlogic_error@std@@@8
	DD	FLAT:??_R3logic_error@std@@8
rdata$r	ENDS
;	COMDAT ??_R3logic_error@std@@8
rdata$r	SEGMENT
??_R3logic_error@std@@8 DD 00H				; std::logic_error::`RTTI Class Hierarchy Descriptor'
	DD	00H
	DD	02H
	DD	FLAT:??_R2logic_error@std@@8
rdata$r	ENDS
;	COMDAT ??_R2logic_error@std@@8
rdata$r	SEGMENT
??_R2logic_error@std@@8 DD FLAT:??_R1A@?0A@A@logic_error@std@@8 ; std::logic_error::`RTTI Base Class Array'
	DD	FLAT:??_R1A@?0A@A@exception@@8
; Function compile flags: /Odt
rdata$r	ENDS
;	COMDAT ??0logic_error@std@@QAE@ABV?$basic_string@DU?$char_traits@D@std@@V?$allocator@D@2@@1@@Z
_TEXT	SEGMENT
_this$ = -16						; size = 4
__$EHRec$ = -12						; size = 12
__Message$ = 8						; size = 4
??0logic_error@std@@QAE@ABV?$basic_string@DU?$char_traits@D@std@@V?$allocator@D@2@@1@@Z PROC NEAR ; std::logic_error::logic_error, COMDAT
; _this$ = ecx

; 19   : 		{	// construct from message string

  00000	55		 push	 ebp
  00001	8b ec		 mov	 ebp, esp
  00003	6a ff		 push	 -1
  00005	68 00 00 00 00	 push	 __ehhandler$??0logic_error@std@@QAE@ABV?$basic_string@DU?$char_traits@D@std@@V?$allocator@D@2@@1@@Z
  0000a	64 a1 00 00 00
	00		 mov	 eax, DWORD PTR fs:__except_list
  00010	50		 push	 eax
  00011	64 89 25 00 00
	00 00		 mov	 DWORD PTR fs:__except_list, esp
  00018	51		 push	 ecx
  00019	89 4d f0	 mov	 DWORD PTR _this$[ebp], ecx
  0001c	8b 4d f0	 mov	 ecx, DWORD PTR _this$[ebp]
  0001f	ff 15 00 00 00
	00		 call	 DWORD PTR __imp_??0exception@@QAE@XZ
  00025	c7 45 fc 00 00
	00 00		 mov	 DWORD PTR __$EHRec$[ebp+8], 0
  0002c	8b 45 f0	 mov	 eax, DWORD PTR _this$[ebp]
  0002f	c7 00 00 00 00
	00		 mov	 DWORD PTR [eax], OFFSET FLAT:??_7logic_error@std@@6B@
  00035	8b 4d 08	 mov	 ecx, DWORD PTR __Message$[ebp]
  00038	51		 push	 ecx
  00039	8b 4d f0	 mov	 ecx, DWORD PTR _this$[ebp]
  0003c	83 c1 0c	 add	 ecx, 12			; 0000000cH
  0003f	ff 15 00 00 00
	00		 call	 DWORD PTR __imp_??0?$basic_string@DU?$char_traits@D@std@@V?$allocator@D@2@@std@@QAE@ABV01@@Z

; 20   : 		}

  00045	c7 45 fc ff ff
	ff ff		 mov	 DWORD PTR __$EHRec$[ebp+8], -1
  0004c	8b 45 f0	 mov	 eax, DWORD PTR _this$[ebp]
  0004f	8b 4d f4	 mov	 ecx, DWORD PTR __$EHRec$[ebp]
  00052	64 89 0d 00 00
	00 00		 mov	 DWORD PTR fs:__except_list, ecx
  00059	8b e5		 mov	 esp, ebp
  0005b	5d		 pop	 ebp
  0005c	c2 04 00	 ret	 4
_TEXT	ENDS
;	COMDAT text$x
text$x	SEGMENT
$L211786:
  00000	8b 4d f0	 mov	 ecx, DWORD PTR _this$[ebp]
  00003	ff 25 00 00 00
	00		 jmp	 DWORD PTR __imp_??1exception@@UAE@XZ
__ehhandler$??0logic_error@std@@QAE@ABV?$basic_string@DU?$char_traits@D@std@@V?$allocator@D@2@@1@@Z:
  00009	b8 00 00 00 00	 mov	 eax, OFFSET FLAT:$T211789
  0000e	e9 00 00 00 00	 jmp	 ___CxxFrameHandler
text$x	ENDS
??0logic_error@std@@QAE@ABV?$basic_string@DU?$char_traits@D@std@@V?$allocator@D@2@@1@@Z ENDP ; std::logic_error::logic_error
PUBLIC	??1logic_error@std@@UAE@XZ			; std::logic_error::~logic_error
; Function compile flags: /Odt
;	COMDAT ??_Glogic_error@std@@UAEPAXI@Z
_TEXT	SEGMENT
_this$ = -4						; size = 4
___flags$ = 8						; size = 4
??_Glogic_error@std@@UAEPAXI@Z PROC NEAR		; std::logic_error::`scalar deleting destructor', COMDAT
; _this$ = ecx
  00000	55		 push	 ebp
  00001	8b ec		 mov	 ebp, esp
  00003	51		 push	 ecx
  00004	89 4d fc	 mov	 DWORD PTR _this$[ebp], ecx
  00007	8b 4d fc	 mov	 ecx, DWORD PTR _this$[ebp]
  0000a	e8 00 00 00 00	 call	 ??1logic_error@std@@UAE@XZ ; std::logic_error::~logic_error
  0000f	8b 45 08	 mov	 eax, DWORD PTR ___flags$[ebp]
  00012	83 e0 01	 and	 eax, 1
  00015	74 0c		 je	 SHORT $L102266
  00017	8b 4d fc	 mov	 ecx, DWORD PTR _this$[ebp]
  0001a	51		 push	 ecx
  0001b	e8 00 00 00 00	 call	 ??3@YAXPAX@Z		; operator delete
  00020	83 c4 04	 add	 esp, 4
$L102266:
  00023	8b 45 fc	 mov	 eax, DWORD PTR _this$[ebp]
  00026	8b e5		 mov	 esp, ebp
  00028	5d		 pop	 ebp
  00029	c2 04 00	 ret	 4
??_Glogic_error@std@@UAEPAXI@Z ENDP			; std::logic_error::`scalar deleting destructor'
_TEXT	ENDS
;	COMDAT xdata$x
xdata$x	SEGMENT
$T211803 DD	0ffffffffH
	DD	FLAT:$L211798
$T211801 DD	019930520H
	DD	01H
	DD	FLAT:$T211803
	DD	2 DUP(00H)
	DD	2 DUP(00H)
; Function compile flags: /Odt
xdata$x	ENDS
;	COMDAT ??1logic_error@std@@UAE@XZ
_TEXT	SEGMENT
_this$ = -16						; size = 4
__$EHRec$ = -12						; size = 12
??1logic_error@std@@UAE@XZ PROC NEAR			; std::logic_error::~logic_error, COMDAT
; _this$ = ecx

; 23   : 		{}	// destroy the object

  00000	55		 push	 ebp
  00001	8b ec		 mov	 ebp, esp
  00003	6a ff		 push	 -1
  00005	68 00 00 00 00	 push	 __ehhandler$??1logic_error@std@@UAE@XZ
  0000a	64 a1 00 00 00
	00		 mov	 eax, DWORD PTR fs:__except_list
  00010	50		 push	 eax
  00011	64 89 25 00 00
	00 00		 mov	 DWORD PTR fs:__except_list, esp
  00018	51		 push	 ecx
  00019	89 4d f0	 mov	 DWORD PTR _this$[ebp], ecx
  0001c	8b 45 f0	 mov	 eax, DWORD PTR _this$[ebp]
  0001f	c7 00 00 00 00
	00		 mov	 DWORD PTR [eax], OFFSET FLAT:??_7logic_error@std@@6B@
  00025	c7 45 fc 00 00
	00 00		 mov	 DWORD PTR __$EHRec$[ebp+8], 0
  0002c	8b 4d f0	 mov	 ecx, DWORD PTR _this$[ebp]
  0002f	83 c1 0c	 add	 ecx, 12			; 0000000cH
  00032	ff 15 00 00 00
	00		 call	 DWORD PTR __imp_??1?$basic_string@DU?$char_traits@D@std@@V?$allocator@D@2@@std@@QAE@XZ
  00038	c7 45 fc ff ff
	ff ff		 mov	 DWORD PTR __$EHRec$[ebp+8], -1
  0003f	8b 4d f0	 mov	 ecx, DWORD PTR _this$[ebp]
  00042	ff 15 00 00 00
	00		 call	 DWORD PTR __imp_??1exception@@UAE@XZ
  00048	8b 4d f4	 mov	 ecx, DWORD PTR __$EHRec$[ebp]
  0004b	64 89 0d 00 00
	00 00		 mov	 DWORD PTR fs:__except_list, ecx
  00052	8b e5		 mov	 esp, ebp
  00054	5d		 pop	 ebp
  00055	c3		 ret	 0
_TEXT	ENDS
;	COMDAT text$x
text$x	SEGMENT
$L211798:
  00000	8b 4d f0	 mov	 ecx, DWORD PTR _this$[ebp]
  00003	ff 25 00 00 00
	00		 jmp	 DWORD PTR __imp_??1exception@@UAE@XZ
__ehhandler$??1logic_error@std@@UAE@XZ:
  00009	b8 00 00 00 00	 mov	 eax, OFFSET FLAT:$T211801
  0000e	e9 00 00 00 00	 jmp	 ___CxxFrameHandler
text$x	ENDS
??1logic_error@std@@UAE@XZ ENDP				; std::logic_error::~logic_error
; Function compile flags: /Odt
;	COMDAT ??1length_error@std@@UAE@XZ
_TEXT	SEGMENT
_this$ = -4						; size = 4
??1length_error@std@@UAE@XZ PROC NEAR			; std::length_error::~length_error, COMDAT
; _this$ = ecx

; 99   : 		{}	// destroy the object

  00000	55		 push	 ebp
  00001	8b ec		 mov	 ebp, esp
  00003	51		 push	 ecx
  00004	89 4d fc	 mov	 DWORD PTR _this$[ebp], ecx
  00007	8b 45 fc	 mov	 eax, DWORD PTR _this$[ebp]
  0000a	c7 00 00 00 00
	00		 mov	 DWORD PTR [eax], OFFSET FLAT:??_7length_error@std@@6B@
  00010	8b 4d fc	 mov	 ecx, DWORD PTR _this$[ebp]
  00013	e8 00 00 00 00	 call	 ??1logic_error@std@@UAE@XZ ; std::logic_error::~logic_error
  00018	8b e5		 mov	 esp, ebp
  0001a	5d		 pop	 ebp
  0001b	c3		 ret	 0
??1length_error@std@@UAE@XZ ENDP			; std::length_error::~length_error
; Function compile flags: /Odt
_TEXT	ENDS
;	COMDAT ??_Glength_error@std@@UAEPAXI@Z
_TEXT	SEGMENT
_this$ = -4						; size = 4
___flags$ = 8						; size = 4
??_Glength_error@std@@UAEPAXI@Z PROC NEAR		; std::length_error::`scalar deleting destructor', COMDAT
; _this$ = ecx
  00000	55		 push	 ebp
  00001	8b ec		 mov	 ebp, esp
  00003	51		 push	 ecx
  00004	89 4d fc	 mov	 DWORD PTR _this$[ebp], ecx
  00007	8b 4d fc	 mov	 ecx, DWORD PTR _this$[ebp]
  0000a	e8 00 00 00 00	 call	 ??1length_error@std@@UAE@XZ ; std::length_error::~length_error
  0000f	8b 45 08	 mov	 eax, DWORD PTR ___flags$[ebp]
  00012	83 e0 01	 and	 eax, 1
  00015	74 0c		 je	 SHORT $L102332
  00017	8b 4d fc	 mov	 ecx, DWORD PTR _this$[ebp]
  0001a	51		 push	 ecx
  0001b	e8 00 00 00 00	 call	 ??3@YAXPAX@Z		; operator delete
  00020	83 c4 04	 add	 esp, 4
$L102332:
  00023	8b 45 fc	 mov	 eax, DWORD PTR _this$[ebp]
  00026	8b e5		 mov	 esp, ebp
  00028	5d		 pop	 ebp
  00029	c2 04 00	 ret	 4
??_Glength_error@std@@UAEPAXI@Z ENDP			; std::length_error::`scalar deleting destructor'
; Function compile flags: /Odt
; File d:\boxgit\playbox\playbox\dev\prj\playbox\src\core\iuimanager.h
_TEXT	ENDS
;	COMDAT ??1IUIManager@@UAE@XZ
_TEXT	SEGMENT
_this$ = -4						; size = 4
??1IUIManager@@UAE@XZ PROC NEAR				; IUIManager::~IUIManager, COMDAT
; _this$ = ecx

; 15   : 	virtual	~IUIManager(){};

  00000	55		 push	 ebp
  00001	8b ec		 mov	 ebp, esp
  00003	51		 push	 ecx
  00004	89 4d fc	 mov	 DWORD PTR _this$[ebp], ecx
  00007	8b 45 fc	 mov	 eax, DWORD PTR _this$[ebp]
  0000a	c7 00 00 00 00
	00		 mov	 DWORD PTR [eax], OFFSET FLAT:??_7IUIManager@@6B@
  00010	8b e5		 mov	 esp, ebp
  00012	5d		 pop	 ebp
  00013	c3		 ret	 0
??1IUIManager@@UAE@XZ ENDP				; IUIManager::~IUIManager
; Function compile flags: /Odt
_TEXT	ENDS
;	COMDAT ??_GIUIManager@@UAEPAXI@Z
_TEXT	SEGMENT
_this$ = -4						; size = 4
___flags$ = 8						; size = 4
??_GIUIManager@@UAEPAXI@Z PROC NEAR			; IUIManager::`scalar deleting destructor', COMDAT
; _this$ = ecx
  00000	55		 push	 ebp
  00001	8b ec		 mov	 ebp, esp
  00003	51		 push	 ecx
  00004	89 4d fc	 mov	 DWORD PTR _this$[ebp], ecx
  00007	8b 4d fc	 mov	 ecx, DWORD PTR _this$[ebp]
  0000a	e8 00 00 00 00	 call	 ??1IUIManager@@UAE@XZ	; IUIManager::~IUIManager
  0000f	8b 45 08	 mov	 eax, DWORD PTR ___flags$[ebp]
  00012	83 e0 01	 and	 eax, 1
  00015	74 0c		 je	 SHORT $L109496
  00017	8b 4d fc	 mov	 ecx, DWORD PTR _this$[ebp]
  0001a	51		 push	 ecx
  0001b	e8 00 00 00 00	 call	 ??3@YAXPAX@Z		; operator delete
  00020	83 c4 04	 add	 esp, 4
$L109496:
  00023	8b 45 fc	 mov	 eax, DWORD PTR _this$[ebp]
  00026	8b e5		 mov	 esp, ebp
  00028	5d		 pop	 ebp
  00029	c2 04 00	 ret	 4
??_GIUIManager@@UAEPAXI@Z ENDP				; IUIManager::`scalar deleting destructor'
_TEXT	ENDS
EXTRN	__imp_??0exception@@QAE@ABV0@@Z:NEAR
;	COMDAT xdata$x
xdata$x	SEGMENT
$T211822 DD	0ffffffffH
	DD	FLAT:$L211817
$T211820 DD	019930520H
	DD	01H
	DD	FLAT:$T211822
	DD	2 DUP(00H)
	DD	2 DUP(00H)
; Function compile flags: /Odt
xdata$x	ENDS
;	COMDAT ??0logic_error@std@@QAE@ABV01@@Z
_TEXT	SEGMENT
_this$ = -16						; size = 4
__$EHRec$ = -12						; size = 12
___that$ = 8						; size = 4
??0logic_error@std@@QAE@ABV01@@Z PROC NEAR		; std::logic_error::logic_error, COMDAT
; _this$ = ecx
  00000	55		 push	 ebp
  00001	8b ec		 mov	 ebp, esp
  00003	6a ff		 push	 -1
  00005	68 00 00 00 00	 push	 __ehhandler$??0logic_error@std@@QAE@ABV01@@Z
  0000a	64 a1 00 00 00
	00		 mov	 eax, DWORD PTR fs:__except_list
  00010	50		 push	 eax
  00011	64 89 25 00 00
	00 00		 mov	 DWORD PTR fs:__except_list, esp
  00018	51		 push	 ecx
  00019	89 4d f0	 mov	 DWORD PTR _this$[ebp], ecx
  0001c	8b 45 08	 mov	 eax, DWORD PTR ___that$[ebp]
  0001f	50		 push	 eax
  00020	8b 4d f0	 mov	 ecx, DWORD PTR _this$[ebp]
  00023	ff 15 00 00 00
	00		 call	 DWORD PTR __imp_??0exception@@QAE@ABV0@@Z
  00029	c7 45 fc 00 00
	00 00		 mov	 DWORD PTR __$EHRec$[ebp+8], 0
  00030	8b 4d f0	 mov	 ecx, DWORD PTR _this$[ebp]
  00033	c7 01 00 00 00
	00		 mov	 DWORD PTR [ecx], OFFSET FLAT:??_7logic_error@std@@6B@
  00039	8b 55 08	 mov	 edx, DWORD PTR ___that$[ebp]
  0003c	83 c2 0c	 add	 edx, 12			; 0000000cH
  0003f	52		 push	 edx
  00040	8b 4d f0	 mov	 ecx, DWORD PTR _this$[ebp]
  00043	83 c1 0c	 add	 ecx, 12			; 0000000cH
  00046	ff 15 00 00 00
	00		 call	 DWORD PTR __imp_??0?$basic_string@DU?$char_traits@D@std@@V?$allocator@D@2@@std@@QAE@ABV01@@Z
  0004c	c7 45 fc ff ff
	ff ff		 mov	 DWORD PTR __$EHRec$[ebp+8], -1
  00053	8b 45 f0	 mov	 eax, DWORD PTR _this$[ebp]
  00056	8b 4d f4	 mov	 ecx, DWORD PTR __$EHRec$[ebp]
  00059	64 89 0d 00 00
	00 00		 mov	 DWORD PTR fs:__except_list, ecx
  00060	8b e5		 mov	 esp, ebp
  00062	5d		 pop	 ebp
  00063	c2 04 00	 ret	 4
_TEXT	ENDS
;	COMDAT text$x
text$x	SEGMENT
$L211817:
  00000	8b 4d f0	 mov	 ecx, DWORD PTR _this$[ebp]
  00003	ff 25 00 00 00
	00		 jmp	 DWORD PTR __imp_??1exception@@UAE@XZ
__ehhandler$??0logic_error@std@@QAE@ABV01@@Z:
  00009	b8 00 00 00 00	 mov	 eax, OFFSET FLAT:$T211820
  0000e	e9 00 00 00 00	 jmp	 ___CxxFrameHandler
text$x	ENDS
??0logic_error@std@@QAE@ABV01@@Z ENDP			; std::logic_error::logic_error
EXTRN	__imp_??Y?$basic_string@DU?$char_traits@D@std@@V?$allocator@D@2@@std@@QAEAAV01@PBD@Z:NEAR
;	COMDAT xdata$x
; File d:\program files (x86)\microsoft visual studio .net 2003\vc7\include\string
xdata$x	SEGMENT
$T211835 DD	0ffffffffH
	DD	FLAT:$L211829
	DD	00H
	DD	FLAT:$L211828
$T211833 DD	019930520H
	DD	02H
	DD	FLAT:$T211835
	DD	2 DUP(00H)
	DD	2 DUP(00H)
; Function compile flags: /Odt
xdata$x	ENDS
;	COMDAT ??$?HDU?$char_traits@D@std@@V?$allocator@D@1@@std@@YA?AV?$basic_string@DU?$char_traits@D@std@@V?$allocator@D@2@@0@ABV10@PBD@Z
_TEXT	SEGMENT
tv77 = -52						; size = 4
tv82 = -48						; size = 4
$T211830 = -44						; size = 4
$T211827 = -40						; size = 28
__$EHRec$ = -12						; size = 12
___$ReturnUdt$ = 8					; size = 4
__Left$ = 12						; size = 4
__Right$ = 16						; size = 4
??$?HDU?$char_traits@D@std@@V?$allocator@D@1@@std@@YA?AV?$basic_string@DU?$char_traits@D@std@@V?$allocator@D@2@@0@ABV10@PBD@Z PROC NEAR ; std::operator+<char,std::char_traits<char>,std::allocator<char> >, COMDAT

; 51   : 	{	// return string + NTCS

  00000	55		 push	 ebp
  00001	8b ec		 mov	 ebp, esp
  00003	6a ff		 push	 -1
  00005	68 00 00 00 00	 push	 __ehhandler$??$?HDU?$char_traits@D@std@@V?$allocator@D@1@@std@@YA?AV?$basic_string@DU?$char_traits@D@std@@V?$allocator@D@2@@0@ABV10@PBD@Z
  0000a	64 a1 00 00 00
	00		 mov	 eax, DWORD PTR fs:__except_list
  00010	50		 push	 eax
  00011	64 89 25 00 00
	00 00		 mov	 DWORD PTR fs:__except_list, esp
  00018	83 ec 28	 sub	 esp, 40			; 00000028H
  0001b	c7 45 d4 00 00
	00 00		 mov	 DWORD PTR $T211830[ebp], 0

; 52   : 	return (basic_string<_Elem, _Traits, _Alloc>(_Left) += _Right);

  00022	8b 45 0c	 mov	 eax, DWORD PTR __Left$[ebp]
  00025	50		 push	 eax
  00026	8d 4d d8	 lea	 ecx, DWORD PTR $T211827[ebp]
  00029	ff 15 00 00 00
	00		 call	 DWORD PTR __imp_??0?$basic_string@DU?$char_traits@D@std@@V?$allocator@D@2@@std@@QAE@ABV01@@Z
  0002f	89 45 d0	 mov	 DWORD PTR tv82[ebp], eax
  00032	8b 4d d0	 mov	 ecx, DWORD PTR tv82[ebp]
  00035	89 4d cc	 mov	 DWORD PTR tv77[ebp], ecx
  00038	c7 45 fc 01 00
	00 00		 mov	 DWORD PTR __$EHRec$[ebp+8], 1
  0003f	8b 55 10	 mov	 edx, DWORD PTR __Right$[ebp]
  00042	52		 push	 edx
  00043	8b 4d cc	 mov	 ecx, DWORD PTR tv77[ebp]
  00046	ff 15 00 00 00
	00		 call	 DWORD PTR __imp_??Y?$basic_string@DU?$char_traits@D@std@@V?$allocator@D@2@@std@@QAEAAV01@PBD@Z
  0004c	50		 push	 eax
  0004d	8b 4d 08	 mov	 ecx, DWORD PTR ___$ReturnUdt$[ebp]
  00050	ff 15 00 00 00
	00		 call	 DWORD PTR __imp_??0?$basic_string@DU?$char_traits@D@std@@V?$allocator@D@2@@std@@QAE@ABV01@@Z
  00056	8b 45 d4	 mov	 eax, DWORD PTR $T211830[ebp]
  00059	83 c8 01	 or	 eax, 1
  0005c	89 45 d4	 mov	 DWORD PTR $T211830[ebp], eax
  0005f	c6 45 fc 00	 mov	 BYTE PTR __$EHRec$[ebp+8], 0
  00063	8d 4d d8	 lea	 ecx, DWORD PTR $T211827[ebp]
  00066	ff 15 00 00 00
	00		 call	 DWORD PTR __imp_??1?$basic_string@DU?$char_traits@D@std@@V?$allocator@D@2@@std@@QAE@XZ
  0006c	8b 45 08	 mov	 eax, DWORD PTR ___$ReturnUdt$[ebp]

; 53   : 	}

  0006f	8b 4d f4	 mov	 ecx, DWORD PTR __$EHRec$[ebp]
  00072	64 89 0d 00 00
	00 00		 mov	 DWORD PTR fs:__except_list, ecx
  00079	8b e5		 mov	 esp, ebp
  0007b	5d		 pop	 ebp
  0007c	c3		 ret	 0
_TEXT	ENDS
;	COMDAT text$x
text$x	SEGMENT
$L211828:
  00000	8d 4d d8	 lea	 ecx, DWORD PTR $T211827[ebp]
  00003	ff 25 00 00 00
	00		 jmp	 DWORD PTR __imp_??1?$basic_string@DU?$char_traits@D@std@@V?$allocator@D@2@@std@@QAE@XZ
$L211829:
  00009	8b 45 d4	 mov	 eax, DWORD PTR $T211830[ebp]
  0000c	83 e0 01	 and	 eax, 1
  0000f	0f 84 0d 00 00
	00		 je	 $L211831
  00015	83 65 d4 fe	 and	 DWORD PTR $T211830[ebp], -2 ; fffffffeH
  00019	8b 4d 08	 mov	 ecx, DWORD PTR ___$ReturnUdt$[ebp]
  0001c	ff 25 00 00 00
	00		 jmp	 DWORD PTR __imp_??1?$basic_string@DU?$char_traits@D@std@@V?$allocator@D@2@@std@@QAE@XZ
$L211831:
  00022	c3		 ret	 0
__ehhandler$??$?HDU?$char_traits@D@std@@V?$allocator@D@1@@std@@YA?AV?$basic_string@DU?$char_traits@D@std@@V?$allocator@D@2@@0@ABV10@PBD@Z:
  00023	b8 00 00 00 00	 mov	 eax, OFFSET FLAT:$T211833
  00028	e9 00 00 00 00	 jmp	 ___CxxFrameHandler
text$x	ENDS
??$?HDU?$char_traits@D@std@@V?$allocator@D@1@@std@@YA?AV?$basic_string@DU?$char_traits@D@std@@V?$allocator@D@2@@0@ABV10@PBD@Z ENDP ; std::operator+<char,std::char_traits<char>,std::allocator<char> >
CRT$XCU	SEGMENT
_$S6	DD	FLAT:_$E5
; Function compile flags: /Odt
; File d:\boxgit\playbox\playbox\dev\prj\playbox\src\appconfig\config\configsettingdef.h
CRT$XCU	ENDS
;	COMDAT _$E5
text$yc	SEGMENT
_$E5	PROC NEAR					; COMDAT

; 25   : 	CONF_SETTING_SKIN_IDX,				TYPE_CONFIG_STR,

  00000	55		 push	 ebp
  00001	8b ec		 mov	 ebp, esp
  00003	a1 00 00 00 00	 mov	 eax, DWORD PTR _CONF_SETTING_SKIN_IDX
  00008	a3 00 00 00 00	 mov	 DWORD PTR _CONF_SETTING, eax
  0000d	8b 0d 00 00 00
	00		 mov	 ecx, DWORD PTR _TYPE_CONFIG_STR
  00013	89 0d 04 00 00
	00		 mov	 DWORD PTR _CONF_SETTING+4, ecx

; 26   : 	CONF_SETTING_CONFIG_MAIN_PAGE,		TYPE_CONFIG_STR,

  00019	8b 15 00 00 00
	00		 mov	 edx, DWORD PTR _CONF_SETTING_CONFIG_MAIN_PAGE
  0001f	89 15 08 00 00
	00		 mov	 DWORD PTR _CONF_SETTING+8, edx
  00025	a1 00 00 00 00	 mov	 eax, DWORD PTR _TYPE_CONFIG_STR
  0002a	a3 0c 00 00 00	 mov	 DWORD PTR _CONF_SETTING+12, eax

; 27   : 	CONF_SETTING_CONFIG_PROBLEM_REPORT,	TYPE_CONFIG_STR,

  0002f	8b 0d 00 00 00
	00		 mov	 ecx, DWORD PTR _CONF_SETTING_CONFIG_PROBLEM_REPORT
  00035	89 0d 10 00 00
	00		 mov	 DWORD PTR _CONF_SETTING+16, ecx
  0003b	8b 15 00 00 00
	00		 mov	 edx, DWORD PTR _TYPE_CONFIG_STR
  00041	89 15 14 00 00
	00		 mov	 DWORD PTR _CONF_SETTING+20, edx

; 28   : 	CONF_SETTING_CONFIG_HOME_PAGE,		TYPE_CONFIG_STR,

  00047	a1 00 00 00 00	 mov	 eax, DWORD PTR _CONF_SETTING_CONFIG_HOME_PAGE
  0004c	a3 18 00 00 00	 mov	 DWORD PTR _CONF_SETTING+24, eax
  00051	8b 0d 00 00 00
	00		 mov	 ecx, DWORD PTR _TYPE_CONFIG_STR
  00057	89 0d 1c 00 00
	00		 mov	 DWORD PTR _CONF_SETTING+28, ecx

; 29   : 	CONF_SETTING_CONFIG_IFASKEXIT,		TYPE_CONFIG_BOOL,

  0005d	8b 15 00 00 00
	00		 mov	 edx, DWORD PTR _CONF_SETTING_CONFIG_IFASKEXIT
  00063	89 15 20 00 00
	00		 mov	 DWORD PTR _CONF_SETTING+32, edx
  00069	a1 00 00 00 00	 mov	 eax, DWORD PTR _TYPE_CONFIG_BOOL
  0006e	a3 24 00 00 00	 mov	 DWORD PTR _CONF_SETTING+36, eax

; 30   : 	CONF_SETTING_CONFIG_EXITCHOICE,		TYPE_CONFIG_BOOL,

  00073	8b 0d 00 00 00
	00		 mov	 ecx, DWORD PTR _CONF_SETTING_CONFIG_EXITCHOICE
  00079	89 0d 28 00 00
	00		 mov	 DWORD PTR _CONF_SETTING+40, ecx
  0007f	8b 15 00 00 00
	00		 mov	 edx, DWORD PTR _TYPE_CONFIG_BOOL
  00085	89 15 2c 00 00
	00		 mov	 DWORD PTR _CONF_SETTING+44, edx

; 31   : 	CONF_SETTING_LOGIN_USER_NAME,		TYPE_CONFIG_STR,

  0008b	a1 00 00 00 00	 mov	 eax, DWORD PTR _CONF_SETTING_LOGIN_USER_NAME
  00090	a3 30 00 00 00	 mov	 DWORD PTR _CONF_SETTING+48, eax
  00095	8b 0d 00 00 00
	00		 mov	 ecx, DWORD PTR _TYPE_CONFIG_STR
  0009b	89 0d 34 00 00
	00		 mov	 DWORD PTR _CONF_SETTING+52, ecx

; 32   : 	CONF_SETTING_LOGIN_PASSWORD,		TYPE_CONFIG_STR,

  000a1	8b 15 00 00 00
	00		 mov	 edx, DWORD PTR _CONF_SETTING_LOGIN_PASSWORD
  000a7	89 15 38 00 00
	00		 mov	 DWORD PTR _CONF_SETTING+56, edx
  000ad	a1 00 00 00 00	 mov	 eax, DWORD PTR _TYPE_CONFIG_STR
  000b2	a3 3c 00 00 00	 mov	 DWORD PTR _CONF_SETTING+60, eax

; 33   : 	CONF_SETTING_NETID,					TYPE_CONFIG_STR,

  000b7	8b 0d 00 00 00
	00		 mov	 ecx, DWORD PTR _CONF_SETTING_NETID
  000bd	89 0d 40 00 00
	00		 mov	 DWORD PTR _CONF_SETTING+64, ecx
  000c3	8b 15 00 00 00
	00		 mov	 edx, DWORD PTR _TYPE_CONFIG_STR
  000c9	89 15 44 00 00
	00		 mov	 DWORD PTR _CONF_SETTING+68, edx

; 34   : 	CONF_SETTING_COLOR,					TYPE_CONFIG_INT,

  000cf	a1 00 00 00 00	 mov	 eax, DWORD PTR _CONF_SETTING_COLOR
  000d4	a3 48 00 00 00	 mov	 DWORD PTR _CONF_SETTING+72, eax
  000d9	8b 0d 00 00 00
	00		 mov	 ecx, DWORD PTR _TYPE_CONFIG_INT
  000df	89 0d 4c 00 00
	00		 mov	 DWORD PTR _CONF_SETTING+76, ecx

; 35   : 	CONF_SETTING_LIGHT,					TYPE_CONFIG_INT,

  000e5	8b 15 00 00 00
	00		 mov	 edx, DWORD PTR _CONF_SETTING_LIGHT
  000eb	89 15 50 00 00
	00		 mov	 DWORD PTR _CONF_SETTING+80, edx
  000f1	a1 00 00 00 00	 mov	 eax, DWORD PTR _TYPE_CONFIG_INT
  000f6	a3 54 00 00 00	 mov	 DWORD PTR _CONF_SETTING+84, eax

; 36   : 	CONF_SETTING_COLOR_BTN_INDEX,		TYPE_CONFIG_INT,

  000fb	8b 0d 00 00 00
	00		 mov	 ecx, DWORD PTR _CONF_SETTING_COLOR_BTN_INDEX
  00101	89 0d 58 00 00
	00		 mov	 DWORD PTR _CONF_SETTING+88, ecx
  00107	8b 15 00 00 00
	00		 mov	 edx, DWORD PTR _TYPE_CONFIG_INT
  0010d	89 15 5c 00 00
	00		 mov	 DWORD PTR _CONF_SETTING+92, edx

; 37   : 	CONF_SETTING_COLOR_USER,			TYPE_CONFIG_INT,

  00113	a1 00 00 00 00	 mov	 eax, DWORD PTR _CONF_SETTING_COLOR_USER
  00118	a3 60 00 00 00	 mov	 DWORD PTR _CONF_SETTING+96, eax
  0011d	8b 0d 00 00 00
	00		 mov	 ecx, DWORD PTR _TYPE_CONFIG_INT
  00123	89 0d 64 00 00
	00		 mov	 DWORD PTR _CONF_SETTING+100, ecx

; 38   : 	CONF_SETTING_FIRST_TIME_CHANGESKIN, TYPE_CONFIG_BOOL

  00129	8b 15 00 00 00
	00		 mov	 edx, DWORD PTR _CONF_SETTING_FIRST_TIME_CHANGESKIN
  0012f	89 15 68 00 00
	00		 mov	 DWORD PTR _CONF_SETTING+104, edx

; 39   : };

  00135	a1 00 00 00 00	 mov	 eax, DWORD PTR _TYPE_CONFIG_BOOL
  0013a	a3 6c 00 00 00	 mov	 DWORD PTR _CONF_SETTING+108, eax
  0013f	5d		 pop	 ebp
  00140	c3		 ret	 0
_$E5	ENDP
text$yc	ENDS
CRT$XCU	SEGMENT
_$S8	DD	FLAT:_$E7
; Function compile flags: /Odt
; File d:\boxgit\playbox\playbox\dev\prj\playbox\src\appconfig\config\configskindef.h
CRT$XCU	ENDS
;	COMDAT _$E7
text$yc	SEGMENT
_$E7	PROC NEAR					; COMDAT

; 12   : 	CONF_SKINSUB_CURRSUB,				TYPE_CONFIG_STR,	

  00000	55		 push	 ebp
  00001	8b ec		 mov	 ebp, esp
  00003	a1 00 00 00 00	 mov	 eax, DWORD PTR _CONF_SKINSUB_CURRSUB
  00008	a3 00 00 00 00	 mov	 DWORD PTR _CONF_SKINSUB, eax
  0000d	8b 0d 00 00 00
	00		 mov	 ecx, DWORD PTR _TYPE_CONFIG_STR
  00013	89 0d 04 00 00
	00		 mov	 DWORD PTR _CONF_SKINSUB+4, ecx

; 13   : 	CONF_SKINSUB_COLOR,					TYPE_CONFIG_STR

  00019	8b 15 00 00 00
	00		 mov	 edx, DWORD PTR _CONF_SKINSUB_COLOR
  0001f	89 15 08 00 00
	00		 mov	 DWORD PTR _CONF_SKINSUB+8, edx

; 14   : };

  00025	a1 00 00 00 00	 mov	 eax, DWORD PTR _TYPE_CONFIG_STR
  0002a	a3 0c 00 00 00	 mov	 DWORD PTR _CONF_SKINSUB+12, eax
  0002f	5d		 pop	 ebp
  00030	c3		 ret	 0
_$E7	ENDP
text$yc	ENDS
_BSS	SEGMENT
_CONF_SETTING DD 01cH DUP (?)
_CONF_SKINSUB DD 04H DUP (?)
_BSS	ENDS
END
