; Listing generated by Microsoft (R) Optimizing Compiler Version 13.10.3077 

	TITLE	.\src\module\WebInteract\Custsite.cpp
	.386P
include listing.inc
if @Version gt 510
.model FLAT
else
_TEXT	SEGMENT PARA USE32 PUBLIC 'CODE'
_TEXT	ENDS
_DATA	SEGMENT DWORD USE32 PUBLIC 'DATA'
_DATA	ENDS
CONST	SEGMENT DWORD USE32 PUBLIC 'CONST'
CONST	ENDS
_BSS	SEGMENT DWORD USE32 PUBLIC 'BSS'
_BSS	ENDS
$$SYMBOLS	SEGMENT BYTE USE32 'DEBSYM'
$$SYMBOLS	ENDS
$$TYPES	SEGMENT BYTE USE32 'DEBTYP'
$$TYPES	ENDS
_TLS	SEGMENT DWORD USE32 PUBLIC 'TLS'
_TLS	ENDS
rdata$r	SEGMENT DWORD USE32 PUBLIC 'CONST'
rdata$r	ENDS
xdata$x	SEGMENT DWORD USE32 PUBLIC 'CONST'
xdata$x	ENDS
text$AFX_COL1	SEGMENT PARA USE32 PUBLIC ''
text$AFX_COL1	ENDS
text$yc	SEGMENT PARA USE32 PUBLIC 'CODE'
text$yc	ENDS
CRT$XCA	SEGMENT DWORD USE32 PUBLIC 'DATA'
CRT$XCA	ENDS
CRT$XCU	SEGMENT DWORD USE32 PUBLIC 'DATA'
CRT$XCU	ENDS
CRT$XCL	SEGMENT DWORD USE32 PUBLIC 'DATA'
CRT$XCL	ENDS
CRT$XCC	SEGMENT DWORD USE32 PUBLIC 'DATA'
CRT$XCC	ENDS
CRT$XCZ	SEGMENT DWORD USE32 PUBLIC 'DATA'
CRT$XCZ	ENDS
text$yd	SEGMENT PARA USE32 PUBLIC 'CODE'
text$yd	ENDS
ATL$__m	SEGMENT DWORD USE32 PUBLIC ''
ATL$__m	ENDS
ATL$__z	SEGMENT DWORD USE32 PUBLIC ''
ATL$__z	ENDS
ATL$__a	SEGMENT DWORD USE32 PUBLIC ''
ATL$__a	ENDS
;	COMDAT ??0CCustomControlSite@@QAE@PAVCOleControlContainer@@@Z
_TEXT	SEGMENT PARA USE32 PUBLIC 'CODE'
_TEXT	ENDS
;	COMDAT ??_GCCustomControlSite@@UAEPAXI@Z
_TEXT	SEGMENT PARA USE32 PUBLIC 'CODE'
_TEXT	ENDS
;	COMDAT ??0XDocHostShowUI@CCustomControlSite@@QAE@XZ
_TEXT	SEGMENT PARA USE32 PUBLIC 'CODE'
_TEXT	ENDS
;	COMDAT ??0XDocHostUIHandler@CCustomControlSite@@QAE@XZ
_TEXT	SEGMENT PARA USE32 PUBLIC 'CODE'
_TEXT	ENDS
;	COMDAT ??1CCustomControlSite@@UAE@XZ
_TEXT	SEGMENT PARA USE32 PUBLIC 'CODE'
_TEXT	ENDS
;	COMDAT ??0IDocHostShowUI@@QAE@XZ
_TEXT	SEGMENT PARA USE32 PUBLIC 'CODE'
_TEXT	ENDS
;	COMDAT ??0IDocHostUIHandler@@QAE@XZ
_TEXT	SEGMENT PARA USE32 PUBLIC 'CODE'
_TEXT	ENDS
;	COMDAT ?CreateSite@CCustomOccManager@@UAEPAVCOleControlSite@@PAVCOleControlContainer@@@Z
_TEXT	SEGMENT PARA USE32 PUBLIC 'CODE'
_TEXT	ENDS
;	COMDAT ??_GCCustomOccManager@@UAEPAXI@Z
_TEXT	SEGMENT PARA USE32 PUBLIC 'CODE'
_TEXT	ENDS
;	COMDAT ??0COccManager@@QAE@XZ
_TEXT	SEGMENT PARA USE32 PUBLIC 'CODE'
_TEXT	ENDS
;	COMDAT ??1COccManager@@UAE@XZ
_TEXT	SEGMENT PARA USE32 PUBLIC 'CODE'
_TEXT	ENDS
;	COMDAT ??1CCustomOccManager@@UAE@XZ
_TEXT	SEGMENT PARA USE32 PUBLIC 'CODE'
_TEXT	ENDS
;	COMDAT ??_GCOccManager@@UAEPAXI@Z
_TEXT	SEGMENT PARA USE32 PUBLIC 'CODE'
_TEXT	ENDS
;	COMDAT ??0CNoTrackObject@@QAE@XZ
_TEXT	SEGMENT PARA USE32 PUBLIC 'CODE'
_TEXT	ENDS
;	COMDAT ??B?$CComPtrBase@UITypeInfo2@@@ATL@@QBEPAUITypeInfo2@@XZ
_TEXT	SEGMENT PARA USE32 PUBLIC 'CODE'
_TEXT	ENDS
;	COMDAT ?equal@?$istreambuf_iterator@DU?$char_traits@D@std@@@std@@QBE_NABV12@@Z
_TEXT	SEGMENT PARA USE32 PUBLIC 'CODE'
_TEXT	ENDS
;	COMDAT ?equal@?$istreambuf_iterator@_WU?$char_traits@_W@std@@@std@@QBE_NABV12@@Z
_TEXT	SEGMENT PARA USE32 PUBLIC 'CODE'
_TEXT	ENDS
;	COMDAT ?Unlock@?$CComCritSecLock@VCComCriticalSection@ATL@@@ATL@@QAEXXZ
_TEXT	SEGMENT PARA USE32 PUBLIC 'CODE'
_TEXT	ENDS
;	COMDAT ??$_Maklocstr@D@std@@YAPADPBDPADABU_Cvtvec@@@Z
_TEXT	SEGMENT PARA USE32 PUBLIC 'CODE'
_TEXT	ENDS
;	COMDAT ??_R3XDocHostShowUI@CCustomControlSite@@8
rdata$r	SEGMENT DWORD USE32 PUBLIC 'CONST'
rdata$r	ENDS
;	COMDAT ??_R3CCustomControlSite@@8
rdata$r	SEGMENT DWORD USE32 PUBLIC 'CONST'
rdata$r	ENDS
;	COMDAT ??_R3IDocHostShowUI@@8
rdata$r	SEGMENT DWORD USE32 PUBLIC 'CONST'
rdata$r	ENDS
;	COMDAT ??_R3IDocHostUIHandler@@8
rdata$r	SEGMENT DWORD USE32 PUBLIC 'CONST'
rdata$r	ENDS
;	COMDAT ??_R3CCustomOccManager@@8
rdata$r	SEGMENT DWORD USE32 PUBLIC 'CONST'
rdata$r	ENDS
;	COMDAT ??_R3COccManager@@8
rdata$r	SEGMENT DWORD USE32 PUBLIC 'CONST'
rdata$r	ENDS
;	COMDAT ??_R3XDocHostUIHandler@CCustomControlSite@@8
rdata$r	SEGMENT DWORD USE32 PUBLIC 'CONST'
rdata$r	ENDS
;	COMDAT ??_R3?$numpunct@_W@std@@8
rdata$r	SEGMENT DWORD USE32 PUBLIC 'CONST'
rdata$r	ENDS
;	COMDAT ??_R3?$numpunct@D@std@@8
rdata$r	SEGMENT DWORD USE32 PUBLIC 'CONST'
rdata$r	ENDS
;	COMDAT ??_R2XDocHostShowUI@CCustomControlSite@@8
rdata$r	SEGMENT DWORD USE32 PUBLIC 'CONST'
rdata$r	ENDS
;	COMDAT ??_R2CCustomControlSite@@8
rdata$r	SEGMENT DWORD USE32 PUBLIC 'CONST'
rdata$r	ENDS
;	COMDAT ??_R2IDocHostShowUI@@8
rdata$r	SEGMENT DWORD USE32 PUBLIC 'CONST'
rdata$r	ENDS
;	COMDAT ??_R2IDocHostUIHandler@@8
rdata$r	SEGMENT DWORD USE32 PUBLIC 'CONST'
rdata$r	ENDS
;	COMDAT ??_R2CCustomOccManager@@8
rdata$r	SEGMENT DWORD USE32 PUBLIC 'CONST'
rdata$r	ENDS
;	COMDAT ??_R2COccManager@@8
rdata$r	SEGMENT DWORD USE32 PUBLIC 'CONST'
rdata$r	ENDS
;	COMDAT ??_R2XDocHostUIHandler@CCustomControlSite@@8
rdata$r	SEGMENT DWORD USE32 PUBLIC 'CONST'
rdata$r	ENDS
;	COMDAT ??_R2?$numpunct@_W@std@@8
rdata$r	SEGMENT DWORD USE32 PUBLIC 'CONST'
rdata$r	ENDS
;	COMDAT ??_R2?$numpunct@D@std@@8
rdata$r	SEGMENT DWORD USE32 PUBLIC 'CONST'
rdata$r	ENDS
;	COMDAT ??_R1A@?0A@A@XDocHostShowUI@CCustomControlSite@@8
rdata$r	SEGMENT DWORD USE32 PUBLIC 'CONST'
rdata$r	ENDS
;	COMDAT ??_R1A@?0A@A@CObject@@8
rdata$r	SEGMENT DWORD USE32 PUBLIC 'CONST'
rdata$r	ENDS
;	COMDAT ??_R0?AVCObject@@@8
_DATA	SEGMENT DWORD USE32 PUBLIC 'DATA'
_DATA	ENDS
;	COMDAT ??_R1A@?0A@A@CCmdTarget@@8
rdata$r	SEGMENT DWORD USE32 PUBLIC 'CONST'
rdata$r	ENDS
;	COMDAT ??_R0?AVCCmdTarget@@@8
_DATA	SEGMENT DWORD USE32 PUBLIC 'DATA'
_DATA	ENDS
;	COMDAT ??_R1A@?0A@A@COleControlSite@@8
rdata$r	SEGMENT DWORD USE32 PUBLIC 'CONST'
rdata$r	ENDS
;	COMDAT ??_R1A@?0A@A@CCustomControlSite@@8
rdata$r	SEGMENT DWORD USE32 PUBLIC 'CONST'
rdata$r	ENDS
;	COMDAT ??_R1A@?0A@A@IDocHostShowUI@@8
rdata$r	SEGMENT DWORD USE32 PUBLIC 'CONST'
rdata$r	ENDS
;	COMDAT ??_R1A@?0A@A@CCustomOccManager@@8
rdata$r	SEGMENT DWORD USE32 PUBLIC 'CONST'
rdata$r	ENDS
;	COMDAT ??_R1A@?0A@A@CNoTrackObject@@8
rdata$r	SEGMENT DWORD USE32 PUBLIC 'CONST'
rdata$r	ENDS
;	COMDAT ??_R0?AVCNoTrackObject@@@8
_DATA	SEGMENT DWORD USE32 PUBLIC 'DATA'
_DATA	ENDS
;	COMDAT ??_R1A@?0A@A@COccManager@@8
rdata$r	SEGMENT DWORD USE32 PUBLIC 'CONST'
rdata$r	ENDS
;	COMDAT ??_R1A@?0A@A@IUnknown@@8
rdata$r	SEGMENT DWORD USE32 PUBLIC 'CONST'
rdata$r	ENDS
;	COMDAT ??_R0?AUIUnknown@@@8
_DATA	SEGMENT DWORD USE32 PUBLIC 'DATA'
_DATA	ENDS
;	COMDAT ??_R1A@?0A@A@IDocHostUIHandler@@8
rdata$r	SEGMENT DWORD USE32 PUBLIC 'CONST'
rdata$r	ENDS
;	COMDAT ??_R1A@?0A@A@XDocHostUIHandler@CCustomControlSite@@8
rdata$r	SEGMENT DWORD USE32 PUBLIC 'CONST'
rdata$r	ENDS
;	COMDAT ??_R1A@?0A@A@?$numpunct@_W@std@@8
rdata$r	SEGMENT DWORD USE32 PUBLIC 'CONST'
rdata$r	ENDS
;	COMDAT ??_R1A@?0A@A@facet@locale@std@@8
rdata$r	SEGMENT DWORD USE32 PUBLIC 'CONST'
rdata$r	ENDS
;	COMDAT ??_R0?AVfacet@locale@std@@@8
_DATA	SEGMENT DWORD USE32 PUBLIC 'DATA'
_DATA	ENDS
;	COMDAT ??_R1A@?0A@A@?$numpunct@D@std@@8
rdata$r	SEGMENT DWORD USE32 PUBLIC 'CONST'
rdata$r	ENDS
;	COMDAT ??_R0?AVXDocHostShowUI@CCustomControlSite@@@8
_DATA	SEGMENT DWORD USE32 PUBLIC 'DATA'
_DATA	ENDS
;	COMDAT ??_R0?AVCOleControlSite@@@8
_DATA	SEGMENT DWORD USE32 PUBLIC 'DATA'
_DATA	ENDS
;	COMDAT ??_R0?AVCCustomControlSite@@@8
_DATA	SEGMENT DWORD USE32 PUBLIC 'DATA'
_DATA	ENDS
;	COMDAT ??_R0?AUIDocHostShowUI@@@8
_DATA	SEGMENT DWORD USE32 PUBLIC 'DATA'
_DATA	ENDS
;	COMDAT ??_R0?AVCCustomOccManager@@@8
_DATA	SEGMENT DWORD USE32 PUBLIC 'DATA'
_DATA	ENDS
;	COMDAT ??_R0?AVCOccManager@@@8
_DATA	SEGMENT DWORD USE32 PUBLIC 'DATA'
_DATA	ENDS
;	COMDAT ??_R0?AUIDocHostUIHandler@@@8
_DATA	SEGMENT DWORD USE32 PUBLIC 'DATA'
_DATA	ENDS
;	COMDAT ??_R0?AVXDocHostUIHandler@CCustomControlSite@@@8
_DATA	SEGMENT DWORD USE32 PUBLIC 'DATA'
_DATA	ENDS
;	COMDAT ??_R0?AV?$numpunct@_W@std@@@8
_DATA	SEGMENT DWORD USE32 PUBLIC 'DATA'
_DATA	ENDS
;	COMDAT ??_R0?AV?$numpunct@D@std@@@8
_DATA	SEGMENT DWORD USE32 PUBLIC 'DATA'
_DATA	ENDS
;	COMDAT ??_R4XDocHostShowUI@CCustomControlSite@@6B@
rdata$r	SEGMENT DWORD USE32 PUBLIC 'CONST'
rdata$r	ENDS
;	COMDAT ?Dump@CObject@@UBEXAAVCDumpContext@@@Z
_TEXT	SEGMENT PARA USE32 PUBLIC 'CODE'
_TEXT	ENDS
;	COMDAT ?AssertValid@CObject@@UBEXXZ
_TEXT	SEGMENT PARA USE32 PUBLIC 'CODE'
_TEXT	ENDS
;	COMDAT ?Serialize@CObject@@UAEXAAVCArchive@@@Z
_TEXT	SEGMENT PARA USE32 PUBLIC 'CODE'
_TEXT	ENDS
;	COMDAT ??_R4CCustomControlSite@@6B@
rdata$r	SEGMENT DWORD USE32 PUBLIC 'CONST'
rdata$r	ENDS
;	COMDAT ??_R4IDocHostShowUI@@6B@
rdata$r	SEGMENT DWORD USE32 PUBLIC 'CONST'
rdata$r	ENDS
;	COMDAT ??_R4IDocHostUIHandler@@6B@
rdata$r	SEGMENT DWORD USE32 PUBLIC 'CONST'
rdata$r	ENDS
;	COMDAT ??_R4CCustomOccManager@@6B@
rdata$r	SEGMENT DWORD USE32 PUBLIC 'CONST'
rdata$r	ENDS
;	COMDAT ??_R4COccManager@@6B@
rdata$r	SEGMENT DWORD USE32 PUBLIC 'CONST'
rdata$r	ENDS
;	COMDAT ??_R4XDocHostUIHandler@CCustomControlSite@@6B@
rdata$r	SEGMENT DWORD USE32 PUBLIC 'CONST'
rdata$r	ENDS
;	COMDAT ??0?$allocator@_W@std@@QAE@XZ
_TEXT	SEGMENT PARA USE32 PUBLIC 'CODE'
_TEXT	ENDS
;	COMDAT ??0?$allocator@D@std@@QAE@ABV01@@Z
_TEXT	SEGMENT PARA USE32 PUBLIC 'CODE'
_TEXT	ENDS
;	COMDAT ??0?$allocator@D@std@@QAE@XZ
_TEXT	SEGMENT PARA USE32 PUBLIC 'CODE'
_TEXT	ENDS
;	COMDAT ?deallocate@?$allocator@D@std@@QAEXPADI@Z
_TEXT	SEGMENT PARA USE32 PUBLIC 'CODE'
_TEXT	ENDS
;	COMDAT ?max_size@?$allocator@D@std@@QBEIXZ
_TEXT	SEGMENT PARA USE32 PUBLIC 'CODE'
_TEXT	ENDS
;	COMDAT ?allocate@?$allocator@D@std@@QAEPADI@Z
_TEXT	SEGMENT PARA USE32 PUBLIC 'CODE'
_TEXT	ENDS
;	COMDAT ??$_Allocate@D@std@@YAPADIPAD@Z
_TEXT	SEGMENT PARA USE32 PUBLIC 'CODE'
_TEXT	ENDS
;	COMDAT ??_G?$numpunct@_W@std@@MAEPAXI@Z
_TEXT	SEGMENT PARA USE32 PUBLIC 'CODE'
_TEXT	ENDS
;	COMDAT ??_R4?$numpunct@_W@std@@6B@
rdata$r	SEGMENT DWORD USE32 PUBLIC 'CONST'
rdata$r	ENDS
;	COMDAT ??_G?$numpunct@D@std@@MAEPAXI@Z
_TEXT	SEGMENT PARA USE32 PUBLIC 'CODE'
_TEXT	ENDS
;	COMDAT ??_R4?$numpunct@D@std@@6B@
rdata$r	SEGMENT DWORD USE32 PUBLIC 'CONST'
rdata$r	ENDS
;	COMDAT ?_Psave@?$_Facetptr@V?$numpunct@_W@std@@@std@@2PBVfacet@locale@2@B
_DATA	SEGMENT DWORD USE32 PUBLIC 'DATA'
_DATA	ENDS
;	COMDAT ?_Psave@?$_Facetptr@V?$numpunct@D@std@@@std@@2PBVfacet@locale@2@B
_DATA	SEGMENT DWORD USE32 PUBLIC 'DATA'
_DATA	ENDS
;	COMDAT ?Unlock@CComCriticalSection@ATL@@QAEJXZ
_TEXT	SEGMENT PARA USE32 PUBLIC 'CODE'
_TEXT	ENDS
;	COMDAT ?_Psave@?$_Facetptr@V?$ctype@_W@std@@@std@@2PBVfacet@locale@2@B
_DATA	SEGMENT DWORD USE32 PUBLIC 'DATA'
_DATA	ENDS
;	COMDAT ?_Psave@?$_Facetptr@V?$ctype@D@std@@@std@@2PBVfacet@locale@2@B
_DATA	SEGMENT DWORD USE32 PUBLIC 'DATA'
_DATA	ENDS
;	COMDAT ??$_Maklocchr@_W@std@@YA_WDPA_WABU_Cvtvec@@@Z
_TEXT	SEGMENT PARA USE32 PUBLIC 'CODE'
_TEXT	ENDS
;	COMDAT ??$_Maklocstr@_W@std@@YAPA_WPBDPA_WABU_Cvtvec@@@Z
_TEXT	SEGMENT PARA USE32 PUBLIC 'CODE'
_TEXT	ENDS
;	COMDAT ??$_Maklocchr@D@std@@YADDPADABU_Cvtvec@@@Z
_TEXT	SEGMENT PARA USE32 PUBLIC 'CODE'
_TEXT	ENDS
;	COMDAT ??_C@_04LOAJBDKD@true?$AA@
CONST	SEGMENT DWORD USE32 PUBLIC 'CONST'
CONST	ENDS
;	COMDAT ??_C@_05LAPONLG@false?$AA@
CONST	SEGMENT DWORD USE32 PUBLIC 'CONST'
CONST	ENDS
;	COMDAT _wmemcpy
_TEXT	SEGMENT PARA USE32 PUBLIC 'CODE'
_TEXT	ENDS
;	COMDAT ?max_size@?$allocator@_W@std@@QBEIXZ
_TEXT	SEGMENT PARA USE32 PUBLIC 'CODE'
_TEXT	ENDS
;	COMDAT ?allocate@?$allocator@_W@std@@QAEPA_WI@Z
_TEXT	SEGMENT PARA USE32 PUBLIC 'CODE'
_TEXT	ENDS
;	COMDAT ??$_Allocate@_W@std@@YAPA_WIPA_W@Z
_TEXT	SEGMENT PARA USE32 PUBLIC 'CODE'
_TEXT	ENDS
;	COMDAT ??_C@_01GFHCPBMG@C?$AA@
CONST	SEGMENT DWORD USE32 PUBLIC 'CONST'
CONST	ENDS
;	COMDAT ?_Peek@?$istreambuf_iterator@_WU?$char_traits@_W@std@@@std@@AAE_WXZ
_TEXT	SEGMENT PARA USE32 PUBLIC 'CODE'
_TEXT	ENDS
;	COMDAT ?_Peek@?$istreambuf_iterator@DU?$char_traits@D@std@@@std@@AAEDXZ
_TEXT	SEGMENT PARA USE32 PUBLIC 'CODE'
_TEXT	ENDS
;	COMDAT ??$use_facet@V?$ctype@_W@std@@@std@@YAABV?$ctype@_W@0@ABVlocale@0@@Z
_TEXT	SEGMENT PARA USE32 PUBLIC 'CODE'
_TEXT	ENDS
;	COMDAT ??_S?$ctype@_W@std@@6B@
CONST	SEGMENT DWORD USE32 PUBLIC 'CONST'
CONST	ENDS
;	COMDAT ??_R4?$ctype@_W@std@@6B@
rdata$r	SEGMENT DWORD USE32 PUBLIC 'CONST'
rdata$r	ENDS
;	COMDAT ??_R0?AV?$ctype@_W@std@@@8
_DATA	SEGMENT DWORD USE32 PUBLIC 'DATA'
_DATA	ENDS
;	COMDAT ??_R3?$ctype@_W@std@@8
rdata$r	SEGMENT DWORD USE32 PUBLIC 'CONST'
rdata$r	ENDS
;	COMDAT ??_R2?$ctype@_W@std@@8
rdata$r	SEGMENT DWORD USE32 PUBLIC 'CONST'
rdata$r	ENDS
;	COMDAT ??_R1A@?0A@A@?$ctype@_W@std@@8
rdata$r	SEGMENT DWORD USE32 PUBLIC 'CONST'
rdata$r	ENDS
;	COMDAT ??_R1A@?0A@A@ctype_base@std@@8
rdata$r	SEGMENT DWORD USE32 PUBLIC 'CONST'
rdata$r	ENDS
;	COMDAT ??_R0?AUctype_base@std@@@8
_DATA	SEGMENT DWORD USE32 PUBLIC 'DATA'
_DATA	ENDS
;	COMDAT ??_G?$ctype@_W@std@@MAEPAXI@Z
_TEXT	SEGMENT PARA USE32 PUBLIC 'CODE'
_TEXT	ENDS
;	COMDAT ??_C@_08EPJLHIJG@bad?5cast?$AA@
CONST	SEGMENT DWORD USE32 PUBLIC 'CONST'
CONST	ENDS
;	COMDAT __TI2?AVbad_cast@@
xdata$x	SEGMENT DWORD USE32 PUBLIC 'CONST'
xdata$x	ENDS
;	COMDAT __CTA2?AVbad_cast@@
xdata$x	SEGMENT DWORD USE32 PUBLIC 'CONST'
xdata$x	ENDS
;	COMDAT __CT??_R0?AVbad_cast@@@8??0bad_cast@@QAE@ABV0@@Z12
xdata$x	SEGMENT DWORD USE32 PUBLIC 'CONST'
xdata$x	ENDS
;	COMDAT ??_R0?AVbad_cast@@@8
_DATA	SEGMENT DWORD USE32 PUBLIC 'DATA'
_DATA	ENDS
;	COMDAT __CT??_R0?AVexception@@@8??0exception@@QAE@ABV0@@Z12
xdata$x	SEGMENT DWORD USE32 PUBLIC 'CONST'
xdata$x	ENDS
;	COMDAT ??_R0?AVexception@@@8
_DATA	SEGMENT DWORD USE32 PUBLIC 'DATA'
_DATA	ENDS
;	COMDAT ??$use_facet@V?$ctype@D@std@@@std@@YAABV?$ctype@D@0@ABVlocale@0@@Z
_TEXT	SEGMENT PARA USE32 PUBLIC 'CODE'
_TEXT	ENDS
;	COMDAT ??_S?$ctype@D@std@@6B@
CONST	SEGMENT DWORD USE32 PUBLIC 'CONST'
CONST	ENDS
;	COMDAT ??_R4?$ctype@D@std@@6B@
rdata$r	SEGMENT DWORD USE32 PUBLIC 'CONST'
rdata$r	ENDS
;	COMDAT ??_R0?AV?$ctype@D@std@@@8
_DATA	SEGMENT DWORD USE32 PUBLIC 'DATA'
_DATA	ENDS
;	COMDAT ??_R3?$ctype@D@std@@8
rdata$r	SEGMENT DWORD USE32 PUBLIC 'CONST'
rdata$r	ENDS
;	COMDAT ??_R2?$ctype@D@std@@8
rdata$r	SEGMENT DWORD USE32 PUBLIC 'CONST'
rdata$r	ENDS
;	COMDAT ??_R1A@?0A@A@?$ctype@D@std@@8
rdata$r	SEGMENT DWORD USE32 PUBLIC 'CONST'
rdata$r	ENDS
;	COMDAT ??_G?$ctype@D@std@@MAEPAXI@Z
_TEXT	SEGMENT PARA USE32 PUBLIC 'CODE'
_TEXT	ENDS
;	COMDAT ??_S?$numpunct@_W@std@@6B@
CONST	SEGMENT DWORD USE32 PUBLIC 'CONST'
CONST	ENDS
;	COMDAT ??_S?$numpunct@D@std@@6B@
CONST	SEGMENT DWORD USE32 PUBLIC 'CONST'
CONST	ENDS
;	COMDAT _wmemmove
_TEXT	SEGMENT PARA USE32 PUBLIC 'CODE'
_TEXT	ENDS
;	COMDAT ?deallocate@?$allocator@_W@std@@QAEXPA_WI@Z
_TEXT	SEGMENT PARA USE32 PUBLIC 'CODE'
_TEXT	ENDS
;	COMDAT ??0?$allocator@_W@std@@QAE@ABV01@@Z
_TEXT	SEGMENT PARA USE32 PUBLIC 'CODE'
_TEXT	ENDS
;	COMDAT ?Release@CStringData@ATL@@QAEXXZ
_TEXT	SEGMENT PARA USE32 PUBLIC 'CODE'
_TEXT	ENDS
;	COMDAT ?data@CStringData@ATL@@QAEPAXXZ
_TEXT	SEGMENT PARA USE32 PUBLIC 'CODE'
_TEXT	ENDS
;	COMDAT ?GetDefaultManager@?$StrTraitMFC_DLL@DV?$ChTraitsCRT@D@ATL@@@@SAPAUIAtlStringMgr@ATL@@XZ
_TEXT	SEGMENT PARA USE32 PUBLIC 'CODE'
_TEXT	ENDS
;	COMDAT ?FindStringResourceInstance@?$StrTraitMFC_DLL@DV?$ChTraitsCRT@D@ATL@@@@SAPAUHINSTANCE__@@I@Z
_TEXT	SEGMENT PARA USE32 PUBLIC 'CODE'
_TEXT	ENDS
;	COMDAT ?AtlGetStringResourceImage@ATL@@YAPBUATLSTRINGRESOURCEIMAGE@1@PAUHINSTANCE__@@I@Z
_TEXT	SEGMENT PARA USE32 PUBLIC 'CODE'
_TEXT	ENDS
;	COMDAT ?_AtlGetStringResourceImage@ATL@@YAPBUATLSTRINGRESOURCEIMAGE@1@PAUHINSTANCE__@@PAUHRSRC__@@I@Z
_TEXT	SEGMENT PARA USE32 PUBLIC 'CODE'
_TEXT	ENDS
;	COMDAT ?GetBaseTypeLength@?$ChTraitsCRT@D@ATL@@SAHPB_WH@Z
_TEXT	SEGMENT PARA USE32 PUBLIC 'CODE'
_TEXT	ENDS
;	COMDAT ?_AtlGetConversionACP@ATL@@YGIXZ
_TEXT	SEGMENT PARA USE32 PUBLIC 'CODE'
_TEXT	ENDS
;	COMDAT ?g_pfnGetThreadACP@ATL@@3P6GIXZA
_DATA	SEGMENT DWORD USE32 PUBLIC 'DATA'
_DATA	ENDS
;	COMDAT ?_AtlGetThreadACPThunk@ATL@@YGIXZ
_TEXT	SEGMENT PARA USE32 PUBLIC 'CODE'
_TEXT	ENDS
;	COMDAT ?_AtlGetThreadACPReal@ATL@@YGIXZ
_TEXT	SEGMENT PARA USE32 PUBLIC 'CODE'
_TEXT	ENDS
;	COMDAT ?_AtlGetThreadACPFake@ATL@@YGIXZ
_TEXT	SEGMENT PARA USE32 PUBLIC 'CODE'
_TEXT	ENDS
;	COMDAT ?InterlockedExchangePointer@@YGPAXPAPAXPAX@Z
_TEXT	SEGMENT PARA USE32 PUBLIC 'CODE'
_TEXT	ENDS
;	COMDAT ?IsShared@CStringData@ATL@@QBE_NXZ
_TEXT	SEGMENT PARA USE32 PUBLIC 'CODE'
_TEXT	ENDS
;	COMDAT ?AtlThrow@ATL@@YGXJ@Z
_TEXT	SEGMENT PARA USE32 PUBLIC 'CODE'
_TEXT	ENDS
;	COMDAT ?ConvertToBaseType@?$ChTraitsCRT@D@ATL@@SAXPADHPB_WH@Z
_TEXT	SEGMENT PARA USE32 PUBLIC 'CODE'
_TEXT	ENDS
;	COMDAT ?GetBaseTypeLength@?$ChTraitsCRT@D@ATL@@SAHPB_W@Z
_TEXT	SEGMENT PARA USE32 PUBLIC 'CODE'
_TEXT	ENDS
;	COMDAT ?IsLocked@CStringData@ATL@@QBE_NXZ
_TEXT	SEGMENT PARA USE32 PUBLIC 'CODE'
_TEXT	ENDS
;	COMDAT ??1AFX_MAINTAIN_STATE2@@QAE@XZ
_TEXT	SEGMENT PARA USE32 PUBLIC 'CODE'
_TEXT	ENDS
;	COMDAT ?_interfaceEntries@CCustomControlSite@@0QBUAFX_INTERFACEMAP_ENTRY@@B
CONST	SEGMENT DWORD USE32 PUBLIC 'CONST'
CONST	ENDS
;	COMDAT ?interfaceMap@CCustomControlSite@@1UAFX_INTERFACEMAP@@B
CONST	SEGMENT DWORD USE32 PUBLIC 'CONST'
CONST	ENDS
;	COMDAT ??_7COccManager@@6B@
CONST	SEGMENT DWORD USE32 PUBLIC 'CONST'
CONST	ENDS
;	COMDAT ??1CNoTrackObject@@UAE@XZ
_TEXT	SEGMENT PARA USE32 PUBLIC 'CODE'
_TEXT	ENDS
;	COMDAT ??2CObject@@SGPAXI@Z
_TEXT	SEGMENT PARA USE32 PUBLIC 'CODE'
_TEXT	ENDS
;	COMDAT ??_7CCustomOccManager@@6B@
CONST	SEGMENT DWORD USE32 PUBLIC 'CONST'
CONST	ENDS
;	COMDAT ??0IUnknown@@QAE@XZ
_TEXT	SEGMENT PARA USE32 PUBLIC 'CODE'
_TEXT	ENDS
;	COMDAT ??_7XDocHostUIHandler@CCustomControlSite@@6B@
CONST	SEGMENT DWORD USE32 PUBLIC 'CONST'
CONST	ENDS
;	COMDAT ??_7XDocHostShowUI@CCustomControlSite@@6B@
CONST	SEGMENT DWORD USE32 PUBLIC 'CONST'
CONST	ENDS
;	COMDAT ??3CObject@@SGXPAX@Z
_TEXT	SEGMENT PARA USE32 PUBLIC 'CODE'
_TEXT	ENDS
;	COMDAT ??_7CCustomControlSite@@6B@
CONST	SEGMENT DWORD USE32 PUBLIC 'CONST'
CONST	ENDS
sxdata	SEGMENT DWORD USE32 'SXDATA'
sxdata	ENDS
FLAT	GROUP _DATA, CONST, _BSS
	ASSUME	CS: FLAT, DS: FLAT, SS: FLAT
endif

INCLUDELIB MSVCRT
INCLUDELIB OLDNAMES

PUBLIC	?g_pfnGetThreadACP@ATL@@3P6GIXZA		; ATL::g_pfnGetThreadACP
PUBLIC	?_AtlGetThreadACPThunk@ATL@@YGIXZ		; ATL::_AtlGetThreadACPThunk
PUBLIC	?_interfaceEntries@CCustomControlSite@@0QBUAFX_INTERFACEMAP_ENTRY@@B ; CCustomControlSite::_interfaceEntries
PUBLIC	?interfaceMap@CCustomControlSite@@1UAFX_INTERFACEMAP@@B ; CCustomControlSite::interfaceMap
EXTRN	?GetThisInterfaceMap@COleControlSite@@KGPBUAFX_INTERFACEMAP@@XZ:NEAR ; COleControlSite::GetThisInterfaceMap
EXTRN	_IID_IDocHostUIHandler:BYTE
EXTRN	_IID_IDocHostShowUI:BYTE
;	COMDAT ?_interfaceEntries@CCustomControlSite@@0QBUAFX_INTERFACEMAP_ENTRY@@B
CONST	SEGMENT
?_interfaceEntries@CCustomControlSite@@0QBUAFX_INTERFACEMAP_ENTRY@@B DD FLAT:_IID_IDocHostShowUI ; CCustomControlSite::_interfaceEntries
	DD	0f0H
	DD	FLAT:_IID_IDocHostUIHandler
	DD	0f4H
	DD	00H
	DD	0ffffffffH
CONST	ENDS
;	COMDAT ?interfaceMap@CCustomControlSite@@1UAFX_INTERFACEMAP@@B
CONST	SEGMENT
?interfaceMap@CCustomControlSite@@1UAFX_INTERFACEMAP@@B DD FLAT:?GetThisInterfaceMap@COleControlSite@@KGPBUAFX_INTERFACEMAP@@XZ ; CCustomControlSite::interfaceMap
	DD	FLAT:?_interfaceEntries@CCustomControlSite@@0QBUAFX_INTERFACEMAP_ENTRY@@B
CONST	ENDS
CONST	SEGMENT
$SG197652 DB	'Custom Browser', 00H
CONST	ENDS
;	COMDAT ?g_pfnGetThreadACP@ATL@@3P6GIXZA
_DATA	SEGMENT
?g_pfnGetThreadACP@ATL@@3P6GIXZA DD FLAT:?_AtlGetThreadACPThunk@ATL@@YGIXZ ; ATL::g_pfnGetThreadACP
_DATA	ENDS
PUBLIC	?GetThisInterfaceMap@CCustomControlSite@@KGPBUAFX_INTERFACEMAP@@XZ ; CCustomControlSite::GetThisInterfaceMap
; Function compile flags: /Odt
; File d:\boxgit\playbox\playbox\dev\prj\playbox\src\module\webinteract\custsite.cpp
_TEXT	SEGMENT
?GetThisInterfaceMap@CCustomControlSite@@KGPBUAFX_INTERFACEMAP@@XZ PROC NEAR ; CCustomControlSite::GetThisInterfaceMap

; 26   : BEGIN_INTERFACE_MAP(CCustomControlSite, COleControlSite)

  00000	55		 push	 ebp
  00001	8b ec		 mov	 ebp, esp
  00003	b8 00 00 00 00	 mov	 eax, OFFSET FLAT:?interfaceMap@CCustomControlSite@@1UAFX_INTERFACEMAP@@B ; CCustomControlSite::interfaceMap
  00008	5d		 pop	 ebp
  00009	c3		 ret	 0
?GetThisInterfaceMap@CCustomControlSite@@KGPBUAFX_INTERFACEMAP@@XZ ENDP ; CCustomControlSite::GetThisInterfaceMap
_TEXT	ENDS
PUBLIC	?GetInterfaceMap@CCustomControlSite@@MBEPBUAFX_INTERFACEMAP@@XZ ; CCustomControlSite::GetInterfaceMap
; Function compile flags: /Odt
_TEXT	SEGMENT
_this$ = -4						; size = 4
?GetInterfaceMap@CCustomControlSite@@MBEPBUAFX_INTERFACEMAP@@XZ PROC NEAR ; CCustomControlSite::GetInterfaceMap
; _this$ = ecx

; 26   : BEGIN_INTERFACE_MAP(CCustomControlSite, COleControlSite)

  00010	55		 push	 ebp
  00011	8b ec		 mov	 ebp, esp
  00013	51		 push	 ecx
  00014	89 4d fc	 mov	 DWORD PTR _this$[ebp], ecx
  00017	b8 00 00 00 00	 mov	 eax, OFFSET FLAT:?interfaceMap@CCustomControlSite@@1UAFX_INTERFACEMAP@@B ; CCustomControlSite::interfaceMap
  0001c	8b e5		 mov	 esp, ebp
  0001e	5d		 pop	 ebp
  0001f	c3		 ret	 0
?GetInterfaceMap@CCustomControlSite@@MBEPBUAFX_INTERFACEMAP@@XZ ENDP ; CCustomControlSite::GetInterfaceMap
_TEXT	ENDS
PUBLIC	??1AFX_MAINTAIN_STATE2@@QAE@XZ			; AFX_MAINTAIN_STATE2::~AFX_MAINTAIN_STATE2
PUBLIC	?AddRef@XDocHostShowUI@CCustomControlSite@@UAGKXZ ; CCustomControlSite::XDocHostShowUI::AddRef
EXTRN	??0AFX_MAINTAIN_STATE2@@QAE@PAVAFX_MODULE_STATE@@@Z:NEAR ; AFX_MAINTAIN_STATE2::AFX_MAINTAIN_STATE2
EXTRN	?ExternalAddRef@CCmdTarget@@QAEKXZ:NEAR		; CCmdTarget::ExternalAddRef
EXTRN	__except_list:DWORD
EXTRN	___CxxFrameHandler:NEAR
xdata$x	SEGMENT
$T198456 DD	0ffffffffH
	DD	FLAT:$L198449
$T198453 DD	019930520H
	DD	01H
	DD	FLAT:$T198456
	DD	2 DUP(00H)
	DD	2 DUP(00H)
; Function compile flags: /Odt
xdata$x	ENDS
_TEXT	SEGMENT
$T198448 = -28						; size = 4
_pThis$ = -24						; size = 4
__ctlState$ = -20					; size = 8
__$EHRec$ = -12						; size = 12
_this$ = 8						; size = 4
?AddRef@XDocHostShowUI@CCustomControlSite@@UAGKXZ PROC NEAR ; CCustomControlSite::XDocHostShowUI::AddRef

; 33   : {

  00020	55		 push	 ebp
  00021	8b ec		 mov	 ebp, esp
  00023	6a ff		 push	 -1
  00025	68 00 00 00 00	 push	 __ehhandler$?AddRef@XDocHostShowUI@CCustomControlSite@@UAGKXZ
  0002a	64 a1 00 00 00
	00		 mov	 eax, DWORD PTR fs:__except_list
  00030	50		 push	 eax
  00031	64 89 25 00 00
	00 00		 mov	 DWORD PTR fs:__except_list, esp
  00038	83 ec 10	 sub	 esp, 16			; 00000010H

; 34   : 	METHOD_PROLOGUE(CCustomControlSite, DocHostShowUI);

  0003b	8b 45 08	 mov	 eax, DWORD PTR _this$[ebp]
  0003e	2d f0 00 00 00	 sub	 eax, 240		; 000000f0H
  00043	89 45 e8	 mov	 DWORD PTR _pThis$[ebp], eax
  00046	8b 4d e8	 mov	 ecx, DWORD PTR _pThis$[ebp]
  00049	8b 51 1c	 mov	 edx, DWORD PTR [ecx+28]
  0004c	52		 push	 edx
  0004d	8d 4d ec	 lea	 ecx, DWORD PTR __ctlState$[ebp]
  00050	e8 00 00 00 00	 call	 ??0AFX_MAINTAIN_STATE2@@QAE@PAVAFX_MODULE_STATE@@@Z ; AFX_MAINTAIN_STATE2::AFX_MAINTAIN_STATE2
  00055	c7 45 fc 00 00
	00 00		 mov	 DWORD PTR __$EHRec$[ebp+8], 0

; 35   : 
; 36   : 	return pThis->ExternalAddRef();

  0005c	8b 4d e8	 mov	 ecx, DWORD PTR _pThis$[ebp]
  0005f	e8 00 00 00 00	 call	 ?ExternalAddRef@CCmdTarget@@QAEKXZ ; CCmdTarget::ExternalAddRef
  00064	89 45 e4	 mov	 DWORD PTR $T198448[ebp], eax
  00067	c7 45 fc ff ff
	ff ff		 mov	 DWORD PTR __$EHRec$[ebp+8], -1
  0006e	8d 4d ec	 lea	 ecx, DWORD PTR __ctlState$[ebp]
  00071	e8 00 00 00 00	 call	 ??1AFX_MAINTAIN_STATE2@@QAE@XZ ; AFX_MAINTAIN_STATE2::~AFX_MAINTAIN_STATE2
  00076	8b 45 e4	 mov	 eax, DWORD PTR $T198448[ebp]

; 37   : }

  00079	8b 4d f4	 mov	 ecx, DWORD PTR __$EHRec$[ebp]
  0007c	64 89 0d 00 00
	00 00		 mov	 DWORD PTR fs:__except_list, ecx
  00083	8b e5		 mov	 esp, ebp
  00085	5d		 pop	 ebp
  00086	c2 04 00	 ret	 4
_TEXT	ENDS
text$x	SEGMENT
$L198449:
  00000	8d 4d ec	 lea	 ecx, DWORD PTR __ctlState$[ebp]
  00003	e9 00 00 00 00	 jmp	 ??1AFX_MAINTAIN_STATE2@@QAE@XZ ; AFX_MAINTAIN_STATE2::~AFX_MAINTAIN_STATE2
__ehhandler$?AddRef@XDocHostShowUI@CCustomControlSite@@UAGKXZ:
  00008	b8 00 00 00 00	 mov	 eax, OFFSET FLAT:$T198453
  0000d	e9 00 00 00 00	 jmp	 ___CxxFrameHandler
text$x	ENDS
?AddRef@XDocHostShowUI@CCustomControlSite@@UAGKXZ ENDP	; CCustomControlSite::XDocHostShowUI::AddRef
PUBLIC	?Release@XDocHostShowUI@CCustomControlSite@@UAGKXZ ; CCustomControlSite::XDocHostShowUI::Release
EXTRN	?ExternalRelease@CCmdTarget@@QAEKXZ:NEAR	; CCmdTarget::ExternalRelease
xdata$x	SEGMENT
$T198464 DD	0ffffffffH
	DD	FLAT:$L198460
$T198462 DD	019930520H
	DD	01H
	DD	FLAT:$T198464
	DD	2 DUP(00H)
	DD	2 DUP(00H)
; Function compile flags: /Odt
xdata$x	ENDS
_TEXT	SEGMENT
$T198459 = -28						; size = 4
_pThis$ = -24						; size = 4
__ctlState$ = -20					; size = 8
__$EHRec$ = -12						; size = 12
_this$ = 8						; size = 4
?Release@XDocHostShowUI@CCustomControlSite@@UAGKXZ PROC NEAR ; CCustomControlSite::XDocHostShowUI::Release

; 40   : {

  00090	55		 push	 ebp
  00091	8b ec		 mov	 ebp, esp
  00093	6a ff		 push	 -1
  00095	68 00 00 00 00	 push	 __ehhandler$?Release@XDocHostShowUI@CCustomControlSite@@UAGKXZ
  0009a	64 a1 00 00 00
	00		 mov	 eax, DWORD PTR fs:__except_list
  000a0	50		 push	 eax
  000a1	64 89 25 00 00
	00 00		 mov	 DWORD PTR fs:__except_list, esp
  000a8	83 ec 10	 sub	 esp, 16			; 00000010H

; 41   : 	METHOD_PROLOGUE(CCustomControlSite, DocHostShowUI);

  000ab	8b 45 08	 mov	 eax, DWORD PTR _this$[ebp]
  000ae	2d f0 00 00 00	 sub	 eax, 240		; 000000f0H
  000b3	89 45 e8	 mov	 DWORD PTR _pThis$[ebp], eax
  000b6	8b 4d e8	 mov	 ecx, DWORD PTR _pThis$[ebp]
  000b9	8b 51 1c	 mov	 edx, DWORD PTR [ecx+28]
  000bc	52		 push	 edx
  000bd	8d 4d ec	 lea	 ecx, DWORD PTR __ctlState$[ebp]
  000c0	e8 00 00 00 00	 call	 ??0AFX_MAINTAIN_STATE2@@QAE@PAVAFX_MODULE_STATE@@@Z ; AFX_MAINTAIN_STATE2::AFX_MAINTAIN_STATE2
  000c5	c7 45 fc 00 00
	00 00		 mov	 DWORD PTR __$EHRec$[ebp+8], 0

; 42   : 
; 43   : 	return pThis->ExternalRelease();

  000cc	8b 4d e8	 mov	 ecx, DWORD PTR _pThis$[ebp]
  000cf	e8 00 00 00 00	 call	 ?ExternalRelease@CCmdTarget@@QAEKXZ ; CCmdTarget::ExternalRelease
  000d4	89 45 e4	 mov	 DWORD PTR $T198459[ebp], eax
  000d7	c7 45 fc ff ff
	ff ff		 mov	 DWORD PTR __$EHRec$[ebp+8], -1
  000de	8d 4d ec	 lea	 ecx, DWORD PTR __ctlState$[ebp]
  000e1	e8 00 00 00 00	 call	 ??1AFX_MAINTAIN_STATE2@@QAE@XZ ; AFX_MAINTAIN_STATE2::~AFX_MAINTAIN_STATE2
  000e6	8b 45 e4	 mov	 eax, DWORD PTR $T198459[ebp]

; 44   : }

  000e9	8b 4d f4	 mov	 ecx, DWORD PTR __$EHRec$[ebp]
  000ec	64 89 0d 00 00
	00 00		 mov	 DWORD PTR fs:__except_list, ecx
  000f3	8b e5		 mov	 esp, ebp
  000f5	5d		 pop	 ebp
  000f6	c2 04 00	 ret	 4
_TEXT	ENDS
text$x	SEGMENT
$L198460:
  00012	8d 4d ec	 lea	 ecx, DWORD PTR __ctlState$[ebp]
  00015	e9 00 00 00 00	 jmp	 ??1AFX_MAINTAIN_STATE2@@QAE@XZ ; AFX_MAINTAIN_STATE2::~AFX_MAINTAIN_STATE2
__ehhandler$?Release@XDocHostShowUI@CCustomControlSite@@UAGKXZ:
  0001a	b8 00 00 00 00	 mov	 eax, OFFSET FLAT:$T198462
  0001f	e9 00 00 00 00	 jmp	 ___CxxFrameHandler
text$x	ENDS
?Release@XDocHostShowUI@CCustomControlSite@@UAGKXZ ENDP	; CCustomControlSite::XDocHostShowUI::Release
PUBLIC	?QueryInterface@XDocHostShowUI@CCustomControlSite@@UAGJABU_GUID@@PAPAX@Z ; CCustomControlSite::XDocHostShowUI::QueryInterface
EXTRN	?ExternalQueryInterface@CCmdTarget@@QAEKPBXPAPAX@Z:NEAR ; CCmdTarget::ExternalQueryInterface
xdata$x	SEGMENT
$T198471 DD	0ffffffffH
	DD	FLAT:$L198467
$T198469 DD	019930520H
	DD	01H
	DD	FLAT:$T198471
	DD	2 DUP(00H)
	DD	2 DUP(00H)
; Function compile flags: /Odt
xdata$x	ENDS
_TEXT	SEGMENT
$T198466 = -28						; size = 4
_pThis$ = -24						; size = 4
__ctlState$ = -20					; size = 8
__$EHRec$ = -12						; size = 12
_this$ = 8						; size = 4
_riid$ = 12						; size = 4
_ppvObj$ = 16						; size = 4
?QueryInterface@XDocHostShowUI@CCustomControlSite@@UAGJABU_GUID@@PAPAX@Z PROC NEAR ; CCustomControlSite::XDocHostShowUI::QueryInterface

; 47   : {

  00100	55		 push	 ebp
  00101	8b ec		 mov	 ebp, esp
  00103	6a ff		 push	 -1
  00105	68 00 00 00 00	 push	 __ehhandler$?QueryInterface@XDocHostShowUI@CCustomControlSite@@UAGJABU_GUID@@PAPAX@Z
  0010a	64 a1 00 00 00
	00		 mov	 eax, DWORD PTR fs:__except_list
  00110	50		 push	 eax
  00111	64 89 25 00 00
	00 00		 mov	 DWORD PTR fs:__except_list, esp
  00118	83 ec 10	 sub	 esp, 16			; 00000010H

; 48   : 	METHOD_PROLOGUE(CCustomControlSite, DocHostShowUI);

  0011b	8b 45 08	 mov	 eax, DWORD PTR _this$[ebp]
  0011e	2d f0 00 00 00	 sub	 eax, 240		; 000000f0H
  00123	89 45 e8	 mov	 DWORD PTR _pThis$[ebp], eax
  00126	8b 4d e8	 mov	 ecx, DWORD PTR _pThis$[ebp]
  00129	8b 51 1c	 mov	 edx, DWORD PTR [ecx+28]
  0012c	52		 push	 edx
  0012d	8d 4d ec	 lea	 ecx, DWORD PTR __ctlState$[ebp]
  00130	e8 00 00 00 00	 call	 ??0AFX_MAINTAIN_STATE2@@QAE@PAVAFX_MODULE_STATE@@@Z ; AFX_MAINTAIN_STATE2::AFX_MAINTAIN_STATE2
  00135	c7 45 fc 00 00
	00 00		 mov	 DWORD PTR __$EHRec$[ebp+8], 0

; 49   : 
; 50   : 	return pThis->ExternalQueryInterface( &riid, ppvObj );

  0013c	8b 45 10	 mov	 eax, DWORD PTR _ppvObj$[ebp]
  0013f	50		 push	 eax
  00140	8b 4d 0c	 mov	 ecx, DWORD PTR _riid$[ebp]
  00143	51		 push	 ecx
  00144	8b 4d e8	 mov	 ecx, DWORD PTR _pThis$[ebp]
  00147	e8 00 00 00 00	 call	 ?ExternalQueryInterface@CCmdTarget@@QAEKPBXPAPAX@Z ; CCmdTarget::ExternalQueryInterface
  0014c	89 45 e4	 mov	 DWORD PTR $T198466[ebp], eax
  0014f	c7 45 fc ff ff
	ff ff		 mov	 DWORD PTR __$EHRec$[ebp+8], -1
  00156	8d 4d ec	 lea	 ecx, DWORD PTR __ctlState$[ebp]
  00159	e8 00 00 00 00	 call	 ??1AFX_MAINTAIN_STATE2@@QAE@XZ ; AFX_MAINTAIN_STATE2::~AFX_MAINTAIN_STATE2
  0015e	8b 45 e4	 mov	 eax, DWORD PTR $T198466[ebp]

; 51   : }

  00161	8b 4d f4	 mov	 ecx, DWORD PTR __$EHRec$[ebp]
  00164	64 89 0d 00 00
	00 00		 mov	 DWORD PTR fs:__except_list, ecx
  0016b	8b e5		 mov	 esp, ebp
  0016d	5d		 pop	 ebp
  0016e	c2 0c 00	 ret	 12			; 0000000cH
_TEXT	ENDS
text$x	SEGMENT
$L198467:
  00024	8d 4d ec	 lea	 ecx, DWORD PTR __ctlState$[ebp]
  00027	e9 00 00 00 00	 jmp	 ??1AFX_MAINTAIN_STATE2@@QAE@XZ ; AFX_MAINTAIN_STATE2::~AFX_MAINTAIN_STATE2
__ehhandler$?QueryInterface@XDocHostShowUI@CCustomControlSite@@UAGJABU_GUID@@PAPAX@Z:
  0002c	b8 00 00 00 00	 mov	 eax, OFFSET FLAT:$T198469
  00031	e9 00 00 00 00	 jmp	 ___CxxFrameHandler
text$x	ENDS
?QueryInterface@XDocHostShowUI@CCustomControlSite@@UAGJABU_GUID@@PAPAX@Z ENDP ; CCustomControlSite::XDocHostShowUI::QueryInterface
PUBLIC	?ShowHelp@XDocHostShowUI@CCustomControlSite@@UAGJPAUHWND__@@PA_WIKUtagPOINT@@PAUIDispatch@@@Z ; CCustomControlSite::XDocHostShowUI::ShowHelp
; Function compile flags: /Odt
_TEXT	SEGMENT
$T198473 = -16						; size = 4
_pThis$ = -12						; size = 4
__ctlState$ = -8					; size = 8
_this$ = 8						; size = 4
_hwnd$ = 12						; size = 4
_pszHelpFile$ = 16					; size = 4
_nCommand$ = 20						; size = 4
_dwData$ = 24						; size = 4
_ptMouse$ = 28						; size = 8
_pDispatchObjectHit$ = 36				; size = 4
?ShowHelp@XDocHostShowUI@CCustomControlSite@@UAGJPAUHWND__@@PA_WIKUtagPOINT@@PAUIDispatch@@@Z PROC NEAR ; CCustomControlSite::XDocHostShowUI::ShowHelp

; 59   : {

  00180	55		 push	 ebp
  00181	8b ec		 mov	 ebp, esp
  00183	83 ec 10	 sub	 esp, 16			; 00000010H

; 60   : 	METHOD_PROLOGUE(CCustomControlSite, DocHostShowUI);

  00186	8b 45 08	 mov	 eax, DWORD PTR _this$[ebp]
  00189	2d f0 00 00 00	 sub	 eax, 240		; 000000f0H
  0018e	89 45 f4	 mov	 DWORD PTR _pThis$[ebp], eax
  00191	8b 4d f4	 mov	 ecx, DWORD PTR _pThis$[ebp]
  00194	8b 51 1c	 mov	 edx, DWORD PTR [ecx+28]
  00197	52		 push	 edx
  00198	8d 4d f8	 lea	 ecx, DWORD PTR __ctlState$[ebp]
  0019b	e8 00 00 00 00	 call	 ??0AFX_MAINTAIN_STATE2@@QAE@PAVAFX_MODULE_STATE@@@Z ; AFX_MAINTAIN_STATE2::AFX_MAINTAIN_STATE2

; 61   : 
; 62   : 	return S_OK;

  001a0	c7 45 f0 00 00
	00 00		 mov	 DWORD PTR $T198473[ebp], 0
  001a7	8d 4d f8	 lea	 ecx, DWORD PTR __ctlState$[ebp]
  001aa	e8 00 00 00 00	 call	 ??1AFX_MAINTAIN_STATE2@@QAE@XZ ; AFX_MAINTAIN_STATE2::~AFX_MAINTAIN_STATE2
  001af	8b 45 f0	 mov	 eax, DWORD PTR $T198473[ebp]

; 63   : }

  001b2	8b e5		 mov	 esp, ebp
  001b4	5d		 pop	 ebp
  001b5	c2 20 00	 ret	 32			; 00000020H
?ShowHelp@XDocHostShowUI@CCustomControlSite@@UAGJPAUHWND__@@PA_WIKUtagPOINT@@PAUIDispatch@@@Z ENDP ; CCustomControlSite::XDocHostShowUI::ShowHelp
_TEXT	ENDS
PUBLIC	?ShowMessage@XDocHostShowUI@CCustomControlSite@@UAGJPAUHWND__@@PA_W1K1KPAJ@Z ; CCustomControlSite::XDocHostShowUI::ShowMessage
EXTRN	__imp_??B?$CSimpleStringT@D$00@ATL@@QBEPBDXZ:NEAR
EXTRN	__imp_??0?$CStringT@DV?$StrTraitMFC_DLL@DV?$ChTraitsCRT@D@ATL@@@@@ATL@@QAE@PB_W@Z:NEAR
EXTRN	__imp_??1?$CStringT@DV?$StrTraitMFC_DLL@DV?$ChTraitsCRT@D@ATL@@@@@ATL@@QAE@XZ:NEAR
EXTRN	__imp__MessageBoxA@16:NEAR
xdata$x	SEGMENT
$T198483 DD	0ffffffffH
	DD	FLAT:$L198478
$T198481 DD	019930520H
	DD	01H
	DD	FLAT:$T198483
	DD	2 DUP(00H)
	DD	2 DUP(00H)
; Function compile flags: /Odt
xdata$x	ENDS
_TEXT	SEGMENT
tv83 = -36						; size = 4
$T198477 = -32						; size = 4
$T198476 = -28						; size = 4
_pThis$ = -24						; size = 4
__ctlState$ = -20					; size = 8
__$EHRec$ = -12						; size = 12
_this$ = 8						; size = 4
_hwnd$ = 12						; size = 4
_lpstrText$ = 16					; size = 4
_lpstrCaption$ = 20					; size = 4
_dwType$ = 24						; size = 4
_lpstrHelpFile$ = 28					; size = 4
_dwHelpContext$ = 32					; size = 4
_plResult$ = 36						; size = 4
?ShowMessage@XDocHostShowUI@CCustomControlSite@@UAGJPAUHWND__@@PA_W1K1KPAJ@Z PROC NEAR ; CCustomControlSite::XDocHostShowUI::ShowMessage

; 72   : {

  001c0	55		 push	 ebp
  001c1	8b ec		 mov	 ebp, esp
  001c3	6a ff		 push	 -1
  001c5	68 00 00 00 00	 push	 __ehhandler$?ShowMessage@XDocHostShowUI@CCustomControlSite@@UAGJPAUHWND__@@PA_W1K1KPAJ@Z
  001ca	64 a1 00 00 00
	00		 mov	 eax, DWORD PTR fs:__except_list
  001d0	50		 push	 eax
  001d1	64 89 25 00 00
	00 00		 mov	 DWORD PTR fs:__except_list, esp
  001d8	83 ec 18	 sub	 esp, 24			; 00000018H

; 73   : 	METHOD_PROLOGUE(CCustomControlSite, DocHostShowUI);

  001db	8b 45 08	 mov	 eax, DWORD PTR _this$[ebp]
  001de	2d f0 00 00 00	 sub	 eax, 240		; 000000f0H
  001e3	89 45 e8	 mov	 DWORD PTR _pThis$[ebp], eax
  001e6	8b 4d e8	 mov	 ecx, DWORD PTR _pThis$[ebp]
  001e9	8b 51 1c	 mov	 edx, DWORD PTR [ecx+28]
  001ec	52		 push	 edx
  001ed	8d 4d ec	 lea	 ecx, DWORD PTR __ctlState$[ebp]
  001f0	e8 00 00 00 00	 call	 ??0AFX_MAINTAIN_STATE2@@QAE@PAVAFX_MODULE_STATE@@@Z ; AFX_MAINTAIN_STATE2::AFX_MAINTAIN_STATE2
  001f5	c7 45 fc 00 00
	00 00		 mov	 DWORD PTR __$EHRec$[ebp+8], 0

; 74   : 	
; 75   : 	MessageBox(hwnd, (CString)lpstrText, "Custom Browser", /*dwType*/MB_ICONERROR);

  001fc	8b 45 10	 mov	 eax, DWORD PTR _lpstrText$[ebp]
  001ff	50		 push	 eax
  00200	8d 4d e4	 lea	 ecx, DWORD PTR $T198476[ebp]
  00203	ff 15 00 00 00
	00		 call	 DWORD PTR __imp_??0?$CStringT@DV?$StrTraitMFC_DLL@DV?$ChTraitsCRT@D@ATL@@@@@ATL@@QAE@PB_W@Z
  00209	89 45 dc	 mov	 DWORD PTR tv83[ebp], eax
  0020c	6a 10		 push	 16			; 00000010H
  0020e	68 00 00 00 00	 push	 OFFSET FLAT:$SG197652
  00213	8b 4d dc	 mov	 ecx, DWORD PTR tv83[ebp]
  00216	ff 15 00 00 00
	00		 call	 DWORD PTR __imp_??B?$CSimpleStringT@D$00@ATL@@QBEPBDXZ
  0021c	50		 push	 eax
  0021d	8b 4d 0c	 mov	 ecx, DWORD PTR _hwnd$[ebp]
  00220	51		 push	 ecx
  00221	ff 15 00 00 00
	00		 call	 DWORD PTR __imp__MessageBoxA@16
  00227	8d 4d e4	 lea	 ecx, DWORD PTR $T198476[ebp]
  0022a	ff 15 00 00 00
	00		 call	 DWORD PTR __imp_??1?$CStringT@DV?$StrTraitMFC_DLL@DV?$ChTraitsCRT@D@ATL@@@@@ATL@@QAE@XZ

; 76   : 
; 77   : 	return S_OK;

  00230	c7 45 e0 00 00
	00 00		 mov	 DWORD PTR $T198477[ebp], 0
  00237	c7 45 fc ff ff
	ff ff		 mov	 DWORD PTR __$EHRec$[ebp+8], -1
  0023e	8d 4d ec	 lea	 ecx, DWORD PTR __ctlState$[ebp]
  00241	e8 00 00 00 00	 call	 ??1AFX_MAINTAIN_STATE2@@QAE@XZ ; AFX_MAINTAIN_STATE2::~AFX_MAINTAIN_STATE2
  00246	8b 45 e0	 mov	 eax, DWORD PTR $T198477[ebp]

; 78   : }

  00249	8b 4d f4	 mov	 ecx, DWORD PTR __$EHRec$[ebp]
  0024c	64 89 0d 00 00
	00 00		 mov	 DWORD PTR fs:__except_list, ecx
  00253	8b e5		 mov	 esp, ebp
  00255	5d		 pop	 ebp
  00256	c2 20 00	 ret	 32			; 00000020H
_TEXT	ENDS
text$x	SEGMENT
$L198478:
  00036	8d 4d ec	 lea	 ecx, DWORD PTR __ctlState$[ebp]
  00039	e9 00 00 00 00	 jmp	 ??1AFX_MAINTAIN_STATE2@@QAE@XZ ; AFX_MAINTAIN_STATE2::~AFX_MAINTAIN_STATE2
__ehhandler$?ShowMessage@XDocHostShowUI@CCustomControlSite@@UAGJPAUHWND__@@PA_W1K1KPAJ@Z:
  0003e	b8 00 00 00 00	 mov	 eax, OFFSET FLAT:$T198481
  00043	e9 00 00 00 00	 jmp	 ___CxxFrameHandler
text$x	ENDS
?ShowMessage@XDocHostShowUI@CCustomControlSite@@UAGJPAUHWND__@@PA_W1K1KPAJ@Z ENDP ; CCustomControlSite::XDocHostShowUI::ShowMessage
PUBLIC	?AddRef@XDocHostUIHandler@CCustomControlSite@@UAGKXZ ; CCustomControlSite::XDocHostUIHandler::AddRef
xdata$x	SEGMENT
$T198490 DD	0ffffffffH
	DD	FLAT:$L198486
$T198488 DD	019930520H
	DD	01H
	DD	FLAT:$T198490
	DD	2 DUP(00H)
	DD	2 DUP(00H)
; Function compile flags: /Odt
xdata$x	ENDS
_TEXT	SEGMENT
$T198485 = -28						; size = 4
_pThis$ = -24						; size = 4
__ctlState$ = -20					; size = 8
__$EHRec$ = -12						; size = 12
_this$ = 8						; size = 4
?AddRef@XDocHostUIHandler@CCustomControlSite@@UAGKXZ PROC NEAR ; CCustomControlSite::XDocHostUIHandler::AddRef

; 82   : {

  00260	55		 push	 ebp
  00261	8b ec		 mov	 ebp, esp
  00263	6a ff		 push	 -1
  00265	68 00 00 00 00	 push	 __ehhandler$?AddRef@XDocHostUIHandler@CCustomControlSite@@UAGKXZ
  0026a	64 a1 00 00 00
	00		 mov	 eax, DWORD PTR fs:__except_list
  00270	50		 push	 eax
  00271	64 89 25 00 00
	00 00		 mov	 DWORD PTR fs:__except_list, esp
  00278	83 ec 10	 sub	 esp, 16			; 00000010H

; 83   : 	METHOD_PROLOGUE(CCustomControlSite, DocHostUIHandler)

  0027b	8b 45 08	 mov	 eax, DWORD PTR _this$[ebp]
  0027e	2d f4 00 00 00	 sub	 eax, 244		; 000000f4H
  00283	89 45 e8	 mov	 DWORD PTR _pThis$[ebp], eax
  00286	8b 4d e8	 mov	 ecx, DWORD PTR _pThis$[ebp]
  00289	8b 51 1c	 mov	 edx, DWORD PTR [ecx+28]
  0028c	52		 push	 edx
  0028d	8d 4d ec	 lea	 ecx, DWORD PTR __ctlState$[ebp]
  00290	e8 00 00 00 00	 call	 ??0AFX_MAINTAIN_STATE2@@QAE@PAVAFX_MODULE_STATE@@@Z ; AFX_MAINTAIN_STATE2::AFX_MAINTAIN_STATE2
  00295	c7 45 fc 00 00
	00 00		 mov	 DWORD PTR __$EHRec$[ebp+8], 0

; 84   : 	return pThis->ExternalAddRef();

  0029c	8b 4d e8	 mov	 ecx, DWORD PTR _pThis$[ebp]
  0029f	e8 00 00 00 00	 call	 ?ExternalAddRef@CCmdTarget@@QAEKXZ ; CCmdTarget::ExternalAddRef
  002a4	89 45 e4	 mov	 DWORD PTR $T198485[ebp], eax
  002a7	c7 45 fc ff ff
	ff ff		 mov	 DWORD PTR __$EHRec$[ebp+8], -1
  002ae	8d 4d ec	 lea	 ecx, DWORD PTR __ctlState$[ebp]
  002b1	e8 00 00 00 00	 call	 ??1AFX_MAINTAIN_STATE2@@QAE@XZ ; AFX_MAINTAIN_STATE2::~AFX_MAINTAIN_STATE2
  002b6	8b 45 e4	 mov	 eax, DWORD PTR $T198485[ebp]

; 85   : }

  002b9	8b 4d f4	 mov	 ecx, DWORD PTR __$EHRec$[ebp]
  002bc	64 89 0d 00 00
	00 00		 mov	 DWORD PTR fs:__except_list, ecx
  002c3	8b e5		 mov	 esp, ebp
  002c5	5d		 pop	 ebp
  002c6	c2 04 00	 ret	 4
_TEXT	ENDS
text$x	SEGMENT
$L198486:
  00048	8d 4d ec	 lea	 ecx, DWORD PTR __ctlState$[ebp]
  0004b	e9 00 00 00 00	 jmp	 ??1AFX_MAINTAIN_STATE2@@QAE@XZ ; AFX_MAINTAIN_STATE2::~AFX_MAINTAIN_STATE2
__ehhandler$?AddRef@XDocHostUIHandler@CCustomControlSite@@UAGKXZ:
  00050	b8 00 00 00 00	 mov	 eax, OFFSET FLAT:$T198488
  00055	e9 00 00 00 00	 jmp	 ___CxxFrameHandler
text$x	ENDS
?AddRef@XDocHostUIHandler@CCustomControlSite@@UAGKXZ ENDP ; CCustomControlSite::XDocHostUIHandler::AddRef
PUBLIC	?Release@XDocHostUIHandler@CCustomControlSite@@UAGKXZ ; CCustomControlSite::XDocHostUIHandler::Release
xdata$x	SEGMENT
$T198497 DD	0ffffffffH
	DD	FLAT:$L198493
$T198495 DD	019930520H
	DD	01H
	DD	FLAT:$T198497
	DD	2 DUP(00H)
	DD	2 DUP(00H)
; Function compile flags: /Odt
xdata$x	ENDS
_TEXT	SEGMENT
$T198492 = -28						; size = 4
_pThis$ = -24						; size = 4
__ctlState$ = -20					; size = 8
__$EHRec$ = -12						; size = 12
_this$ = 8						; size = 4
?Release@XDocHostUIHandler@CCustomControlSite@@UAGKXZ PROC NEAR ; CCustomControlSite::XDocHostUIHandler::Release

; 89   : {                            

  002d0	55		 push	 ebp
  002d1	8b ec		 mov	 ebp, esp
  002d3	6a ff		 push	 -1
  002d5	68 00 00 00 00	 push	 __ehhandler$?Release@XDocHostUIHandler@CCustomControlSite@@UAGKXZ
  002da	64 a1 00 00 00
	00		 mov	 eax, DWORD PTR fs:__except_list
  002e0	50		 push	 eax
  002e1	64 89 25 00 00
	00 00		 mov	 DWORD PTR fs:__except_list, esp
  002e8	83 ec 10	 sub	 esp, 16			; 00000010H

; 90   :     METHOD_PROLOGUE(CCustomControlSite, DocHostUIHandler)

  002eb	8b 45 08	 mov	 eax, DWORD PTR _this$[ebp]
  002ee	2d f4 00 00 00	 sub	 eax, 244		; 000000f4H
  002f3	89 45 e8	 mov	 DWORD PTR _pThis$[ebp], eax
  002f6	8b 4d e8	 mov	 ecx, DWORD PTR _pThis$[ebp]
  002f9	8b 51 1c	 mov	 edx, DWORD PTR [ecx+28]
  002fc	52		 push	 edx
  002fd	8d 4d ec	 lea	 ecx, DWORD PTR __ctlState$[ebp]
  00300	e8 00 00 00 00	 call	 ??0AFX_MAINTAIN_STATE2@@QAE@PAVAFX_MODULE_STATE@@@Z ; AFX_MAINTAIN_STATE2::AFX_MAINTAIN_STATE2
  00305	c7 45 fc 00 00
	00 00		 mov	 DWORD PTR __$EHRec$[ebp+8], 0

; 91   : 	return pThis->ExternalRelease();

  0030c	8b 4d e8	 mov	 ecx, DWORD PTR _pThis$[ebp]
  0030f	e8 00 00 00 00	 call	 ?ExternalRelease@CCmdTarget@@QAEKXZ ; CCmdTarget::ExternalRelease
  00314	89 45 e4	 mov	 DWORD PTR $T198492[ebp], eax
  00317	c7 45 fc ff ff
	ff ff		 mov	 DWORD PTR __$EHRec$[ebp+8], -1
  0031e	8d 4d ec	 lea	 ecx, DWORD PTR __ctlState$[ebp]
  00321	e8 00 00 00 00	 call	 ??1AFX_MAINTAIN_STATE2@@QAE@XZ ; AFX_MAINTAIN_STATE2::~AFX_MAINTAIN_STATE2
  00326	8b 45 e4	 mov	 eax, DWORD PTR $T198492[ebp]

; 92   : }

  00329	8b 4d f4	 mov	 ecx, DWORD PTR __$EHRec$[ebp]
  0032c	64 89 0d 00 00
	00 00		 mov	 DWORD PTR fs:__except_list, ecx
  00333	8b e5		 mov	 esp, ebp
  00335	5d		 pop	 ebp
  00336	c2 04 00	 ret	 4
_TEXT	ENDS
text$x	SEGMENT
$L198493:
  0005a	8d 4d ec	 lea	 ecx, DWORD PTR __ctlState$[ebp]
  0005d	e9 00 00 00 00	 jmp	 ??1AFX_MAINTAIN_STATE2@@QAE@XZ ; AFX_MAINTAIN_STATE2::~AFX_MAINTAIN_STATE2
__ehhandler$?Release@XDocHostUIHandler@CCustomControlSite@@UAGKXZ:
  00062	b8 00 00 00 00	 mov	 eax, OFFSET FLAT:$T198495
  00067	e9 00 00 00 00	 jmp	 ___CxxFrameHandler
text$x	ENDS
?Release@XDocHostUIHandler@CCustomControlSite@@UAGKXZ ENDP ; CCustomControlSite::XDocHostUIHandler::Release
PUBLIC	?QueryInterface@XDocHostUIHandler@CCustomControlSite@@UAGJABU_GUID@@PAPAX@Z ; CCustomControlSite::XDocHostUIHandler::QueryInterface
xdata$x	SEGMENT
$T198504 DD	0ffffffffH
	DD	FLAT:$L198500
$T198502 DD	019930520H
	DD	01H
	DD	FLAT:$T198504
	DD	2 DUP(00H)
	DD	2 DUP(00H)
; Function compile flags: /Odt
xdata$x	ENDS
_TEXT	SEGMENT
$T198499 = -32						; size = 4
_hr$ = -28						; size = 4
_pThis$ = -24						; size = 4
__ctlState$ = -20					; size = 8
__$EHRec$ = -12						; size = 12
_this$ = 8						; size = 4
_riid$ = 12						; size = 4
_ppvObj$ = 16						; size = 4
?QueryInterface@XDocHostUIHandler@CCustomControlSite@@UAGJABU_GUID@@PAPAX@Z PROC NEAR ; CCustomControlSite::XDocHostUIHandler::QueryInterface

; 95   : {

  00340	55		 push	 ebp
  00341	8b ec		 mov	 ebp, esp
  00343	6a ff		 push	 -1
  00345	68 00 00 00 00	 push	 __ehhandler$?QueryInterface@XDocHostUIHandler@CCustomControlSite@@UAGJABU_GUID@@PAPAX@Z
  0034a	64 a1 00 00 00
	00		 mov	 eax, DWORD PTR fs:__except_list
  00350	50		 push	 eax
  00351	64 89 25 00 00
	00 00		 mov	 DWORD PTR fs:__except_list, esp
  00358	83 ec 14	 sub	 esp, 20			; 00000014H

; 96   : 	METHOD_PROLOGUE(CCustomControlSite, DocHostUIHandler)

  0035b	8b 45 08	 mov	 eax, DWORD PTR _this$[ebp]
  0035e	2d f4 00 00 00	 sub	 eax, 244		; 000000f4H
  00363	89 45 e8	 mov	 DWORD PTR _pThis$[ebp], eax
  00366	8b 4d e8	 mov	 ecx, DWORD PTR _pThis$[ebp]
  00369	8b 51 1c	 mov	 edx, DWORD PTR [ecx+28]
  0036c	52		 push	 edx
  0036d	8d 4d ec	 lea	 ecx, DWORD PTR __ctlState$[ebp]
  00370	e8 00 00 00 00	 call	 ??0AFX_MAINTAIN_STATE2@@QAE@PAVAFX_MODULE_STATE@@@Z ; AFX_MAINTAIN_STATE2::AFX_MAINTAIN_STATE2
  00375	c7 45 fc 00 00
	00 00		 mov	 DWORD PTR __$EHRec$[ebp+8], 0

; 97   :     HRESULT hr = (HRESULT)pThis->ExternalQueryInterface(&riid, ppvObj);

  0037c	8b 45 10	 mov	 eax, DWORD PTR _ppvObj$[ebp]
  0037f	50		 push	 eax
  00380	8b 4d 0c	 mov	 ecx, DWORD PTR _riid$[ebp]
  00383	51		 push	 ecx
  00384	8b 4d e8	 mov	 ecx, DWORD PTR _pThis$[ebp]
  00387	e8 00 00 00 00	 call	 ?ExternalQueryInterface@CCmdTarget@@QAEKPBXPAPAX@Z ; CCmdTarget::ExternalQueryInterface
  0038c	89 45 e4	 mov	 DWORD PTR _hr$[ebp], eax

; 98   : 	return hr;

  0038f	8b 55 e4	 mov	 edx, DWORD PTR _hr$[ebp]
  00392	89 55 e0	 mov	 DWORD PTR $T198499[ebp], edx
  00395	c7 45 fc ff ff
	ff ff		 mov	 DWORD PTR __$EHRec$[ebp+8], -1
  0039c	8d 4d ec	 lea	 ecx, DWORD PTR __ctlState$[ebp]
  0039f	e8 00 00 00 00	 call	 ??1AFX_MAINTAIN_STATE2@@QAE@XZ ; AFX_MAINTAIN_STATE2::~AFX_MAINTAIN_STATE2
  003a4	8b 45 e0	 mov	 eax, DWORD PTR $T198499[ebp]

; 99   : }

  003a7	8b 4d f4	 mov	 ecx, DWORD PTR __$EHRec$[ebp]
  003aa	64 89 0d 00 00
	00 00		 mov	 DWORD PTR fs:__except_list, ecx
  003b1	8b e5		 mov	 esp, ebp
  003b3	5d		 pop	 ebp
  003b4	c2 0c 00	 ret	 12			; 0000000cH
_TEXT	ENDS
text$x	SEGMENT
$L198500:
  0006c	8d 4d ec	 lea	 ecx, DWORD PTR __ctlState$[ebp]
  0006f	e9 00 00 00 00	 jmp	 ??1AFX_MAINTAIN_STATE2@@QAE@XZ ; AFX_MAINTAIN_STATE2::~AFX_MAINTAIN_STATE2
__ehhandler$?QueryInterface@XDocHostUIHandler@CCustomControlSite@@UAGJABU_GUID@@PAPAX@Z:
  00074	b8 00 00 00 00	 mov	 eax, OFFSET FLAT:$T198502
  00079	e9 00 00 00 00	 jmp	 ___CxxFrameHandler
text$x	ENDS
?QueryInterface@XDocHostUIHandler@CCustomControlSite@@UAGJABU_GUID@@PAPAX@Z ENDP ; CCustomControlSite::XDocHostUIHandler::QueryInterface
PUBLIC	?GetHostInfo@XDocHostUIHandler@CCustomControlSite@@UAGJPAU_DOCHOSTUIINFO@@@Z ; CCustomControlSite::XDocHostUIHandler::GetHostInfo
; Function compile flags: /Odt
_TEXT	SEGMENT
$T198506 = -16						; size = 4
_pThis$ = -12						; size = 4
__ctlState$ = -8					; size = 8
_this$ = 8						; size = 4
_pInfo$ = 12						; size = 4
?GetHostInfo@XDocHostUIHandler@CCustomControlSite@@UAGJPAU_DOCHOSTUIINFO@@@Z PROC NEAR ; CCustomControlSite::XDocHostUIHandler::GetHostInfo

; 106  : {

  003c0	55		 push	 ebp
  003c1	8b ec		 mov	 ebp, esp
  003c3	83 ec 10	 sub	 esp, 16			; 00000010H

; 107  : 
; 108  : 	METHOD_PROLOGUE(CCustomControlSite, DocHostUIHandler)

  003c6	8b 45 08	 mov	 eax, DWORD PTR _this$[ebp]
  003c9	2d f4 00 00 00	 sub	 eax, 244		; 000000f4H
  003ce	89 45 f4	 mov	 DWORD PTR _pThis$[ebp], eax
  003d1	8b 4d f4	 mov	 ecx, DWORD PTR _pThis$[ebp]
  003d4	8b 51 1c	 mov	 edx, DWORD PTR [ecx+28]
  003d7	52		 push	 edx
  003d8	8d 4d f8	 lea	 ecx, DWORD PTR __ctlState$[ebp]
  003db	e8 00 00 00 00	 call	 ??0AFX_MAINTAIN_STATE2@@QAE@PAVAFX_MODULE_STATE@@@Z ; AFX_MAINTAIN_STATE2::AFX_MAINTAIN_STATE2

; 109  : 	//È¥µô¹ö¶¯Ìõ
; 110  : 	//pInfo->dwFlags = DOCHOSTUIFLAG_SCROLL_NO | DOCHOSTUIFLAG_NO3DBORDER;
; 111  :     //pInfo->dwDoubleClick = DOCHOSTUIDBLCLK_DEFAULT;
; 112  :     return S_OK;

  003e0	c7 45 f0 00 00
	00 00		 mov	 DWORD PTR $T198506[ebp], 0
  003e7	8d 4d f8	 lea	 ecx, DWORD PTR __ctlState$[ebp]
  003ea	e8 00 00 00 00	 call	 ??1AFX_MAINTAIN_STATE2@@QAE@XZ ; AFX_MAINTAIN_STATE2::~AFX_MAINTAIN_STATE2
  003ef	8b 45 f0	 mov	 eax, DWORD PTR $T198506[ebp]

; 113  : }

  003f2	8b e5		 mov	 esp, ebp
  003f4	5d		 pop	 ebp
  003f5	c2 08 00	 ret	 8
?GetHostInfo@XDocHostUIHandler@CCustomControlSite@@UAGJPAU_DOCHOSTUIINFO@@@Z ENDP ; CCustomControlSite::XDocHostUIHandler::GetHostInfo
_TEXT	ENDS
PUBLIC	?ShowUI@XDocHostUIHandler@CCustomControlSite@@UAGJKPAUIOleInPlaceActiveObject@@PAUIOleCommandTarget@@PAUIOleInPlaceFrame@@PAUIOleInPlaceUIWindow@@@Z ; CCustomControlSite::XDocHostUIHandler::ShowUI
; Function compile flags: /Odt
_TEXT	SEGMENT
$T198509 = -16						; size = 4
_pThis$ = -12						; size = 4
__ctlState$ = -8					; size = 8
_this$ = 8						; size = 4
_dwID$ = 12						; size = 4
___formal$ = 16						; size = 4
_pCommandTarget$ = 20					; size = 4
_pFrame$ = 24						; size = 4
___formal$ = 28						; size = 4
?ShowUI@XDocHostUIHandler@CCustomControlSite@@UAGJKPAUIOleInPlaceActiveObject@@PAUIOleCommandTarget@@PAUIOleInPlaceFrame@@PAUIOleInPlaceUIWindow@@@Z PROC NEAR ; CCustomControlSite::XDocHostUIHandler::ShowUI

; 125  : {

  00400	55		 push	 ebp
  00401	8b ec		 mov	 ebp, esp
  00403	83 ec 10	 sub	 esp, 16			; 00000010H

; 126  : 	METHOD_PROLOGUE(CCustomControlSite, DocHostUIHandler)

  00406	8b 45 08	 mov	 eax, DWORD PTR _this$[ebp]
  00409	2d f4 00 00 00	 sub	 eax, 244		; 000000f4H
  0040e	89 45 f4	 mov	 DWORD PTR _pThis$[ebp], eax
  00411	8b 4d f4	 mov	 ecx, DWORD PTR _pThis$[ebp]
  00414	8b 51 1c	 mov	 edx, DWORD PTR [ecx+28]
  00417	52		 push	 edx
  00418	8d 4d f8	 lea	 ecx, DWORD PTR __ctlState$[ebp]
  0041b	e8 00 00 00 00	 call	 ??0AFX_MAINTAIN_STATE2@@QAE@PAVAFX_MODULE_STATE@@@Z ; AFX_MAINTAIN_STATE2::AFX_MAINTAIN_STATE2

; 127  : 	// We've already got our own UI in place so just return S_OK
; 128  :     return S_OK;

  00420	c7 45 f0 00 00
	00 00		 mov	 DWORD PTR $T198509[ebp], 0
  00427	8d 4d f8	 lea	 ecx, DWORD PTR __ctlState$[ebp]
  0042a	e8 00 00 00 00	 call	 ??1AFX_MAINTAIN_STATE2@@QAE@XZ ; AFX_MAINTAIN_STATE2::~AFX_MAINTAIN_STATE2
  0042f	8b 45 f0	 mov	 eax, DWORD PTR $T198509[ebp]

; 129  : }

  00432	8b e5		 mov	 esp, ebp
  00434	5d		 pop	 ebp
  00435	c2 18 00	 ret	 24			; 00000018H
?ShowUI@XDocHostUIHandler@CCustomControlSite@@UAGJKPAUIOleInPlaceActiveObject@@PAUIOleCommandTarget@@PAUIOleInPlaceFrame@@PAUIOleInPlaceUIWindow@@@Z ENDP ; CCustomControlSite::XDocHostUIHandler::ShowUI
_TEXT	ENDS
PUBLIC	?HideUI@XDocHostUIHandler@CCustomControlSite@@UAGJXZ ; CCustomControlSite::XDocHostUIHandler::HideUI
; Function compile flags: /Odt
_TEXT	SEGMENT
$T198512 = -16						; size = 4
_pThis$ = -12						; size = 4
__ctlState$ = -8					; size = 8
_this$ = 8						; size = 4
?HideUI@XDocHostUIHandler@CCustomControlSite@@UAGJXZ PROC NEAR ; CCustomControlSite::XDocHostUIHandler::HideUI

; 136  : {

  00440	55		 push	 ebp
  00441	8b ec		 mov	 ebp, esp
  00443	83 ec 10	 sub	 esp, 16			; 00000010H

; 137  : 	METHOD_PROLOGUE(CCustomControlSite, DocHostUIHandler)

  00446	8b 45 08	 mov	 eax, DWORD PTR _this$[ebp]
  00449	2d f4 00 00 00	 sub	 eax, 244		; 000000f4H
  0044e	89 45 f4	 mov	 DWORD PTR _pThis$[ebp], eax
  00451	8b 4d f4	 mov	 ecx, DWORD PTR _pThis$[ebp]
  00454	8b 51 1c	 mov	 edx, DWORD PTR [ecx+28]
  00457	52		 push	 edx
  00458	8d 4d f8	 lea	 ecx, DWORD PTR __ctlState$[ebp]
  0045b	e8 00 00 00 00	 call	 ??0AFX_MAINTAIN_STATE2@@QAE@PAVAFX_MODULE_STATE@@@Z ; AFX_MAINTAIN_STATE2::AFX_MAINTAIN_STATE2

; 138  :     return S_OK;

  00460	c7 45 f0 00 00
	00 00		 mov	 DWORD PTR $T198512[ebp], 0
  00467	8d 4d f8	 lea	 ecx, DWORD PTR __ctlState$[ebp]
  0046a	e8 00 00 00 00	 call	 ??1AFX_MAINTAIN_STATE2@@QAE@XZ ; AFX_MAINTAIN_STATE2::~AFX_MAINTAIN_STATE2
  0046f	8b 45 f0	 mov	 eax, DWORD PTR $T198512[ebp]

; 139  : }

  00472	8b e5		 mov	 esp, ebp
  00474	5d		 pop	 ebp
  00475	c2 04 00	 ret	 4
?HideUI@XDocHostUIHandler@CCustomControlSite@@UAGJXZ ENDP ; CCustomControlSite::XDocHostUIHandler::HideUI
_TEXT	ENDS
PUBLIC	?UpdateUI@XDocHostUIHandler@CCustomControlSite@@UAGJXZ ; CCustomControlSite::XDocHostUIHandler::UpdateUI
; Function compile flags: /Odt
_TEXT	SEGMENT
$T198515 = -16						; size = 4
_pThis$ = -12						; size = 4
__ctlState$ = -8					; size = 8
_this$ = 8						; size = 4
?UpdateUI@XDocHostUIHandler@CCustomControlSite@@UAGJXZ PROC NEAR ; CCustomControlSite::XDocHostUIHandler::UpdateUI

; 146  : {

  00480	55		 push	 ebp
  00481	8b ec		 mov	 ebp, esp
  00483	83 ec 10	 sub	 esp, 16			; 00000010H

; 147  : 	METHOD_PROLOGUE(CCustomControlSite, DocHostUIHandler)

  00486	8b 45 08	 mov	 eax, DWORD PTR _this$[ebp]
  00489	2d f4 00 00 00	 sub	 eax, 244		; 000000f4H
  0048e	89 45 f4	 mov	 DWORD PTR _pThis$[ebp], eax
  00491	8b 4d f4	 mov	 ecx, DWORD PTR _pThis$[ebp]
  00494	8b 51 1c	 mov	 edx, DWORD PTR [ecx+28]
  00497	52		 push	 edx
  00498	8d 4d f8	 lea	 ecx, DWORD PTR __ctlState$[ebp]
  0049b	e8 00 00 00 00	 call	 ??0AFX_MAINTAIN_STATE2@@QAE@PAVAFX_MODULE_STATE@@@Z ; AFX_MAINTAIN_STATE2::AFX_MAINTAIN_STATE2

; 148  : 	// MFC is pretty good about updating it's UI in it's Idle loop so I don't do anything here
; 149  : 	return S_OK;

  004a0	c7 45 f0 00 00
	00 00		 mov	 DWORD PTR $T198515[ebp], 0
  004a7	8d 4d f8	 lea	 ecx, DWORD PTR __ctlState$[ebp]
  004aa	e8 00 00 00 00	 call	 ??1AFX_MAINTAIN_STATE2@@QAE@XZ ; AFX_MAINTAIN_STATE2::~AFX_MAINTAIN_STATE2
  004af	8b 45 f0	 mov	 eax, DWORD PTR $T198515[ebp]

; 150  : }

  004b2	8b e5		 mov	 esp, ebp
  004b4	5d		 pop	 ebp
  004b5	c2 04 00	 ret	 4
?UpdateUI@XDocHostUIHandler@CCustomControlSite@@UAGJXZ ENDP ; CCustomControlSite::XDocHostUIHandler::UpdateUI
_TEXT	ENDS
PUBLIC	?EnableModeless@XDocHostUIHandler@CCustomControlSite@@UAGJH@Z ; CCustomControlSite::XDocHostUIHandler::EnableModeless
; Function compile flags: /Odt
_TEXT	SEGMENT
$T198518 = -16						; size = 4
_pThis$ = -12						; size = 4
__ctlState$ = -8					; size = 8
_this$ = 8						; size = 4
___formal$ = 12						; size = 4
?EnableModeless@XDocHostUIHandler@CCustomControlSite@@UAGJH@Z PROC NEAR ; CCustomControlSite::XDocHostUIHandler::EnableModeless

; 157  : {

  004c0	55		 push	 ebp
  004c1	8b ec		 mov	 ebp, esp
  004c3	83 ec 10	 sub	 esp, 16			; 00000010H

; 158  : 	METHOD_PROLOGUE(CCustomControlSite, DocHostUIHandler)

  004c6	8b 45 08	 mov	 eax, DWORD PTR _this$[ebp]
  004c9	2d f4 00 00 00	 sub	 eax, 244		; 000000f4H
  004ce	89 45 f4	 mov	 DWORD PTR _pThis$[ebp], eax
  004d1	8b 4d f4	 mov	 ecx, DWORD PTR _pThis$[ebp]
  004d4	8b 51 1c	 mov	 edx, DWORD PTR [ecx+28]
  004d7	52		 push	 edx
  004d8	8d 4d f8	 lea	 ecx, DWORD PTR __ctlState$[ebp]
  004db	e8 00 00 00 00	 call	 ??0AFX_MAINTAIN_STATE2@@QAE@PAVAFX_MODULE_STATE@@@Z ; AFX_MAINTAIN_STATE2::AFX_MAINTAIN_STATE2

; 159  :     return E_NOTIMPL;

  004e0	c7 45 f0 01 40
	00 80		 mov	 DWORD PTR $T198518[ebp], -2147467263 ; 80004001H
  004e7	8d 4d f8	 lea	 ecx, DWORD PTR __ctlState$[ebp]
  004ea	e8 00 00 00 00	 call	 ??1AFX_MAINTAIN_STATE2@@QAE@XZ ; AFX_MAINTAIN_STATE2::~AFX_MAINTAIN_STATE2
  004ef	8b 45 f0	 mov	 eax, DWORD PTR $T198518[ebp]

; 160  : }

  004f2	8b e5		 mov	 esp, ebp
  004f4	5d		 pop	 ebp
  004f5	c2 08 00	 ret	 8
?EnableModeless@XDocHostUIHandler@CCustomControlSite@@UAGJH@Z ENDP ; CCustomControlSite::XDocHostUIHandler::EnableModeless
_TEXT	ENDS
PUBLIC	?OnDocWindowActivate@XDocHostUIHandler@CCustomControlSite@@UAGJH@Z ; CCustomControlSite::XDocHostUIHandler::OnDocWindowActivate
; Function compile flags: /Odt
_TEXT	SEGMENT
$T198521 = -16						; size = 4
_pThis$ = -12						; size = 4
__ctlState$ = -8					; size = 8
_this$ = 8						; size = 4
___formal$ = 12						; size = 4
?OnDocWindowActivate@XDocHostUIHandler@CCustomControlSite@@UAGJH@Z PROC NEAR ; CCustomControlSite::XDocHostUIHandler::OnDocWindowActivate

; 167  : {

  00500	55		 push	 ebp
  00501	8b ec		 mov	 ebp, esp
  00503	83 ec 10	 sub	 esp, 16			; 00000010H

; 168  : 	METHOD_PROLOGUE(CCustomControlSite, DocHostUIHandler)

  00506	8b 45 08	 mov	 eax, DWORD PTR _this$[ebp]
  00509	2d f4 00 00 00	 sub	 eax, 244		; 000000f4H
  0050e	89 45 f4	 mov	 DWORD PTR _pThis$[ebp], eax
  00511	8b 4d f4	 mov	 ecx, DWORD PTR _pThis$[ebp]
  00514	8b 51 1c	 mov	 edx, DWORD PTR [ecx+28]
  00517	52		 push	 edx
  00518	8d 4d f8	 lea	 ecx, DWORD PTR __ctlState$[ebp]
  0051b	e8 00 00 00 00	 call	 ??0AFX_MAINTAIN_STATE2@@QAE@PAVAFX_MODULE_STATE@@@Z ; AFX_MAINTAIN_STATE2::AFX_MAINTAIN_STATE2

; 169  :     return E_NOTIMPL;

  00520	c7 45 f0 01 40
	00 80		 mov	 DWORD PTR $T198521[ebp], -2147467263 ; 80004001H
  00527	8d 4d f8	 lea	 ecx, DWORD PTR __ctlState$[ebp]
  0052a	e8 00 00 00 00	 call	 ??1AFX_MAINTAIN_STATE2@@QAE@XZ ; AFX_MAINTAIN_STATE2::~AFX_MAINTAIN_STATE2
  0052f	8b 45 f0	 mov	 eax, DWORD PTR $T198521[ebp]

; 170  : }

  00532	8b e5		 mov	 esp, ebp
  00534	5d		 pop	 ebp
  00535	c2 08 00	 ret	 8
?OnDocWindowActivate@XDocHostUIHandler@CCustomControlSite@@UAGJH@Z ENDP ; CCustomControlSite::XDocHostUIHandler::OnDocWindowActivate
_TEXT	ENDS
PUBLIC	?OnFrameWindowActivate@XDocHostUIHandler@CCustomControlSite@@UAGJH@Z ; CCustomControlSite::XDocHostUIHandler::OnFrameWindowActivate
; Function compile flags: /Odt
_TEXT	SEGMENT
$T198524 = -16						; size = 4
_pThis$ = -12						; size = 4
__ctlState$ = -8					; size = 8
_this$ = 8						; size = 4
___formal$ = 12						; size = 4
?OnFrameWindowActivate@XDocHostUIHandler@CCustomControlSite@@UAGJH@Z PROC NEAR ; CCustomControlSite::XDocHostUIHandler::OnFrameWindowActivate

; 177  : {

  00540	55		 push	 ebp
  00541	8b ec		 mov	 ebp, esp
  00543	83 ec 10	 sub	 esp, 16			; 00000010H

; 178  : 	METHOD_PROLOGUE(CCustomControlSite, DocHostUIHandler)

  00546	8b 45 08	 mov	 eax, DWORD PTR _this$[ebp]
  00549	2d f4 00 00 00	 sub	 eax, 244		; 000000f4H
  0054e	89 45 f4	 mov	 DWORD PTR _pThis$[ebp], eax
  00551	8b 4d f4	 mov	 ecx, DWORD PTR _pThis$[ebp]
  00554	8b 51 1c	 mov	 edx, DWORD PTR [ecx+28]
  00557	52		 push	 edx
  00558	8d 4d f8	 lea	 ecx, DWORD PTR __ctlState$[ebp]
  0055b	e8 00 00 00 00	 call	 ??0AFX_MAINTAIN_STATE2@@QAE@PAVAFX_MODULE_STATE@@@Z ; AFX_MAINTAIN_STATE2::AFX_MAINTAIN_STATE2

; 179  :     return E_NOTIMPL;

  00560	c7 45 f0 01 40
	00 80		 mov	 DWORD PTR $T198524[ebp], -2147467263 ; 80004001H
  00567	8d 4d f8	 lea	 ecx, DWORD PTR __ctlState$[ebp]
  0056a	e8 00 00 00 00	 call	 ??1AFX_MAINTAIN_STATE2@@QAE@XZ ; AFX_MAINTAIN_STATE2::~AFX_MAINTAIN_STATE2
  0056f	8b 45 f0	 mov	 eax, DWORD PTR $T198524[ebp]

; 180  : }

  00572	8b e5		 mov	 esp, ebp
  00574	5d		 pop	 ebp
  00575	c2 08 00	 ret	 8
?OnFrameWindowActivate@XDocHostUIHandler@CCustomControlSite@@UAGJH@Z ENDP ; CCustomControlSite::XDocHostUIHandler::OnFrameWindowActivate
_TEXT	ENDS
PUBLIC	?ResizeBorder@XDocHostUIHandler@CCustomControlSite@@UAGJPBUtagRECT@@PAUIOleInPlaceUIWindow@@H@Z ; CCustomControlSite::XDocHostUIHandler::ResizeBorder
; Function compile flags: /Odt
_TEXT	SEGMENT
$T198527 = -16						; size = 4
_pThis$ = -12						; size = 4
__ctlState$ = -8					; size = 8
_this$ = 8						; size = 4
___formal$ = 12						; size = 4
___formal$ = 16						; size = 4
___formal$ = 20						; size = 4
?ResizeBorder@XDocHostUIHandler@CCustomControlSite@@UAGJPBUtagRECT@@PAUIOleInPlaceUIWindow@@H@Z PROC NEAR ; CCustomControlSite::XDocHostUIHandler::ResizeBorder

; 190  : {

  00580	55		 push	 ebp
  00581	8b ec		 mov	 ebp, esp
  00583	83 ec 10	 sub	 esp, 16			; 00000010H

; 191  : 	METHOD_PROLOGUE(CCustomControlSite, DocHostUIHandler)

  00586	8b 45 08	 mov	 eax, DWORD PTR _this$[ebp]
  00589	2d f4 00 00 00	 sub	 eax, 244		; 000000f4H
  0058e	89 45 f4	 mov	 DWORD PTR _pThis$[ebp], eax
  00591	8b 4d f4	 mov	 ecx, DWORD PTR _pThis$[ebp]
  00594	8b 51 1c	 mov	 edx, DWORD PTR [ecx+28]
  00597	52		 push	 edx
  00598	8d 4d f8	 lea	 ecx, DWORD PTR __ctlState$[ebp]
  0059b	e8 00 00 00 00	 call	 ??0AFX_MAINTAIN_STATE2@@QAE@PAVAFX_MODULE_STATE@@@Z ; AFX_MAINTAIN_STATE2::AFX_MAINTAIN_STATE2

; 192  :     return E_NOTIMPL;

  005a0	c7 45 f0 01 40
	00 80		 mov	 DWORD PTR $T198527[ebp], -2147467263 ; 80004001H
  005a7	8d 4d f8	 lea	 ecx, DWORD PTR __ctlState$[ebp]
  005aa	e8 00 00 00 00	 call	 ??1AFX_MAINTAIN_STATE2@@QAE@XZ ; AFX_MAINTAIN_STATE2::~AFX_MAINTAIN_STATE2
  005af	8b 45 f0	 mov	 eax, DWORD PTR $T198527[ebp]

; 193  : }

  005b2	8b e5		 mov	 esp, ebp
  005b4	5d		 pop	 ebp
  005b5	c2 10 00	 ret	 16			; 00000010H
?ResizeBorder@XDocHostUIHandler@CCustomControlSite@@UAGJPBUtagRECT@@PAUIOleInPlaceUIWindow@@H@Z ENDP ; CCustomControlSite::XDocHostUIHandler::ResizeBorder
_TEXT	ENDS
PUBLIC	?ShowContextMenu@XDocHostUIHandler@CCustomControlSite@@UAGJKPAUtagPOINT@@PAUIUnknown@@PAUIDispatch@@@Z ; CCustomControlSite::XDocHostUIHandler::ShowContextMenu
; Function compile flags: /Odt
_TEXT	SEGMENT
$T198530 = -16						; size = 4
_pThis$ = -12						; size = 4
__ctlState$ = -8					; size = 8
_this$ = 8						; size = 4
___formal$ = 12						; size = 4
_pptPosition$ = 16					; size = 4
___formal$ = 20						; size = 4
___formal$ = 24						; size = 4
?ShowContextMenu@XDocHostUIHandler@CCustomControlSite@@UAGJKPAUtagPOINT@@PAUIUnknown@@PAUIDispatch@@@Z PROC NEAR ; CCustomControlSite::XDocHostUIHandler::ShowContextMenu

; 204  : {

  005c0	55		 push	 ebp
  005c1	8b ec		 mov	 ebp, esp
  005c3	83 ec 10	 sub	 esp, 16			; 00000010H

; 205  : 	METHOD_PROLOGUE(CCustomControlSite, DocHostUIHandler)	

  005c6	8b 45 08	 mov	 eax, DWORD PTR _this$[ebp]
  005c9	2d f4 00 00 00	 sub	 eax, 244		; 000000f4H
  005ce	89 45 f4	 mov	 DWORD PTR _pThis$[ebp], eax
  005d1	8b 4d f4	 mov	 ecx, DWORD PTR _pThis$[ebp]
  005d4	8b 51 1c	 mov	 edx, DWORD PTR [ecx+28]
  005d7	52		 push	 edx
  005d8	8d 4d f8	 lea	 ecx, DWORD PTR __ctlState$[ebp]
  005db	e8 00 00 00 00	 call	 ??0AFX_MAINTAIN_STATE2@@QAE@PAVAFX_MODULE_STATE@@@Z ; AFX_MAINTAIN_STATE2::AFX_MAINTAIN_STATE2

; 206  :     return S_OK; // We've shown our own context menu. MSHTML.DLL will no longer try to show its own.

  005e0	c7 45 f0 00 00
	00 00		 mov	 DWORD PTR $T198530[ebp], 0
  005e7	8d 4d f8	 lea	 ecx, DWORD PTR __ctlState$[ebp]
  005ea	e8 00 00 00 00	 call	 ??1AFX_MAINTAIN_STATE2@@QAE@XZ ; AFX_MAINTAIN_STATE2::~AFX_MAINTAIN_STATE2
  005ef	8b 45 f0	 mov	 eax, DWORD PTR $T198530[ebp]

; 207  : }

  005f2	8b e5		 mov	 esp, ebp
  005f4	5d		 pop	 ebp
  005f5	c2 14 00	 ret	 20			; 00000014H
?ShowContextMenu@XDocHostUIHandler@CCustomControlSite@@UAGJKPAUtagPOINT@@PAUIUnknown@@PAUIDispatch@@@Z ENDP ; CCustomControlSite::XDocHostUIHandler::ShowContextMenu
_TEXT	ENDS
PUBLIC	?TranslateAcceleratorA@XDocHostUIHandler@CCustomControlSite@@UAGJPAUtagMSG@@PBU_GUID@@K@Z ; CCustomControlSite::XDocHostUIHandler::TranslateAcceleratorA
EXTRN	__imp__GetKeyState@4:NEAR
EXTRN	__imp__GetAsyncKeyState@4:NEAR
xdata$x	SEGMENT
$T198543 DD	0ffffffffH
	DD	FLAT:$L198539
$T198541 DD	019930520H
	DD	01H
	DD	FLAT:$T198543
	DD	2 DUP(00H)
	DD	2 DUP(00H)
; Function compile flags: /Odt
xdata$x	ENDS
_TEXT	SEGMENT
$T198538 = -48						; size = 4
$T198537 = -44						; size = 4
$T198536 = -40						; size = 4
$T198535 = -36						; size = 4
$T198534 = -32						; size = 4
$T198533 = -28						; size = 4
_pThis$ = -24						; size = 4
__ctlState$ = -20					; size = 8
__$EHRec$ = -12						; size = 12
_this$ = 8						; size = 4
_lpMsg$ = 12						; size = 4
_pguidCmdGroup$ = 16					; size = 4
_nCmdID$ = 20						; size = 4
?TranslateAcceleratorA@XDocHostUIHandler@CCustomControlSite@@UAGJPAUtagMSG@@PBU_GUID@@K@Z PROC NEAR ; CCustomControlSite::XDocHostUIHandler::TranslateAcceleratorA

; 216  : {

  00600	55		 push	 ebp
  00601	8b ec		 mov	 ebp, esp
  00603	6a ff		 push	 -1
  00605	68 00 00 00 00	 push	 __ehhandler$?TranslateAcceleratorA@XDocHostUIHandler@CCustomControlSite@@UAGJPAUtagMSG@@PBU_GUID@@K@Z
  0060a	64 a1 00 00 00
	00		 mov	 eax, DWORD PTR fs:__except_list
  00610	50		 push	 eax
  00611	64 89 25 00 00
	00 00		 mov	 DWORD PTR fs:__except_list, esp
  00618	83 ec 24	 sub	 esp, 36			; 00000024H

; 217  : 	METHOD_PROLOGUE(CCustomControlSite, DocHostUIHandler)

  0061b	8b 45 08	 mov	 eax, DWORD PTR _this$[ebp]
  0061e	2d f4 00 00 00	 sub	 eax, 244		; 000000f4H
  00623	89 45 e8	 mov	 DWORD PTR _pThis$[ebp], eax
  00626	8b 4d e8	 mov	 ecx, DWORD PTR _pThis$[ebp]
  00629	8b 51 1c	 mov	 edx, DWORD PTR [ecx+28]
  0062c	52		 push	 edx
  0062d	8d 4d ec	 lea	 ecx, DWORD PTR __ctlState$[ebp]
  00630	e8 00 00 00 00	 call	 ??0AFX_MAINTAIN_STATE2@@QAE@PAVAFX_MODULE_STATE@@@Z ; AFX_MAINTAIN_STATE2::AFX_MAINTAIN_STATE2
  00635	c7 45 fc 00 00
	00 00		 mov	 DWORD PTR __$EHRec$[ebp+8], 0

; 218  : 		
; 219  : 		//disable F5
; 220  : 		if(lpMsg->message == WM_KEYDOWN && GetAsyncKeyState(VK_F5) < 0)

  0063c	8b 45 0c	 mov	 eax, DWORD PTR _lpMsg$[ebp]
  0063f	81 78 04 00 01
	00 00		 cmp	 DWORD PTR [eax+4], 256	; 00000100H
  00646	75 2d		 jne	 SHORT $L197818
  00648	6a 74		 push	 116			; 00000074H
  0064a	ff 15 00 00 00
	00		 call	 DWORD PTR __imp__GetAsyncKeyState@4
  00650	0f bf c8	 movsx	 ecx, ax
  00653	85 c9		 test	 ecx, ecx
  00655	7d 1e		 jge	 SHORT $L197818

; 221  : 			return S_OK;

  00657	c7 45 e4 00 00
	00 00		 mov	 DWORD PTR $T198533[ebp], 0
  0065e	c7 45 fc ff ff
	ff ff		 mov	 DWORD PTR __$EHRec$[ebp+8], -1
  00665	8d 4d ec	 lea	 ecx, DWORD PTR __ctlState$[ebp]
  00668	e8 00 00 00 00	 call	 ??1AFX_MAINTAIN_STATE2@@QAE@XZ ; AFX_MAINTAIN_STATE2::~AFX_MAINTAIN_STATE2
  0066d	8b 45 e4	 mov	 eax, DWORD PTR $T198533[ebp]
  00670	e9 f9 00 00 00	 jmp	 $L197811
$L197818:

; 222  : 
; 223  : 		if(GetKeyState(VK_CONTROL) & 0x8000)

  00675	6a 11		 push	 17			; 00000011H
  00677	ff 15 00 00 00
	00		 call	 DWORD PTR __imp__GetKeyState@4
  0067d	0f bf d0	 movsx	 edx, ax
  00680	81 e2 00 80 00
	00		 and	 edx, 32768		; 00008000H
  00686	0f 84 a5 00 00
	00		 je	 $L197821

; 224  : 		{
; 225  : 			//disable ctrl + O
; 226  : 			if(lpMsg->message == WM_KEYDOWN && GetAsyncKeyState(0x4F) < 0)

  0068c	8b 45 0c	 mov	 eax, DWORD PTR _lpMsg$[ebp]
  0068f	81 78 04 00 01
	00 00		 cmp	 DWORD PTR [eax+4], 256	; 00000100H
  00696	75 2d		 jne	 SHORT $L197822
  00698	6a 4f		 push	 79			; 0000004fH
  0069a	ff 15 00 00 00
	00		 call	 DWORD PTR __imp__GetAsyncKeyState@4
  006a0	0f bf c8	 movsx	 ecx, ax
  006a3	85 c9		 test	 ecx, ecx
  006a5	7d 1e		 jge	 SHORT $L197822

; 227  : 				return S_OK;

  006a7	c7 45 e0 00 00
	00 00		 mov	 DWORD PTR $T198534[ebp], 0
  006ae	c7 45 fc ff ff
	ff ff		 mov	 DWORD PTR __$EHRec$[ebp+8], -1
  006b5	8d 4d ec	 lea	 ecx, DWORD PTR __ctlState$[ebp]
  006b8	e8 00 00 00 00	 call	 ??1AFX_MAINTAIN_STATE2@@QAE@XZ ; AFX_MAINTAIN_STATE2::~AFX_MAINTAIN_STATE2
  006bd	8b 45 e0	 mov	 eax, DWORD PTR $T198534[ebp]
  006c0	e9 a9 00 00 00	 jmp	 $L197811
$L197822:

; 228  : 			//disable ctrl + p
; 229  : 			if(lpMsg->message == WM_KEYDOWN && GetAsyncKeyState(0x50) < 0)

  006c5	8b 55 0c	 mov	 edx, DWORD PTR _lpMsg$[ebp]
  006c8	81 7a 04 00 01
	00 00		 cmp	 DWORD PTR [edx+4], 256	; 00000100H
  006cf	75 2a		 jne	 SHORT $L197825
  006d1	6a 50		 push	 80			; 00000050H
  006d3	ff 15 00 00 00
	00		 call	 DWORD PTR __imp__GetAsyncKeyState@4
  006d9	0f bf c0	 movsx	 eax, ax
  006dc	85 c0		 test	 eax, eax
  006de	7d 1b		 jge	 SHORT $L197825

; 230  : 				return S_OK;

  006e0	c7 45 dc 00 00
	00 00		 mov	 DWORD PTR $T198535[ebp], 0
  006e7	c7 45 fc ff ff
	ff ff		 mov	 DWORD PTR __$EHRec$[ebp+8], -1
  006ee	8d 4d ec	 lea	 ecx, DWORD PTR __ctlState$[ebp]
  006f1	e8 00 00 00 00	 call	 ??1AFX_MAINTAIN_STATE2@@QAE@XZ ; AFX_MAINTAIN_STATE2::~AFX_MAINTAIN_STATE2
  006f6	8b 45 dc	 mov	 eax, DWORD PTR $T198535[ebp]
  006f9	eb 73		 jmp	 SHORT $L197811
$L197825:

; 231  : 			//disable ctrl + N
; 232  : 			if(lpMsg->message == WM_KEYDOWN && GetAsyncKeyState(0x4E) < 0)

  006fb	8b 4d 0c	 mov	 ecx, DWORD PTR _lpMsg$[ebp]
  006fe	81 79 04 00 01
	00 00		 cmp	 DWORD PTR [ecx+4], 256	; 00000100H
  00705	75 2a		 jne	 SHORT $L197821
  00707	6a 4e		 push	 78			; 0000004eH
  00709	ff 15 00 00 00
	00		 call	 DWORD PTR __imp__GetAsyncKeyState@4
  0070f	0f bf d0	 movsx	 edx, ax
  00712	85 d2		 test	 edx, edx
  00714	7d 1b		 jge	 SHORT $L197821

; 233  : 				return S_OK;

  00716	c7 45 d8 00 00
	00 00		 mov	 DWORD PTR $T198536[ebp], 0
  0071d	c7 45 fc ff ff
	ff ff		 mov	 DWORD PTR __$EHRec$[ebp+8], -1
  00724	8d 4d ec	 lea	 ecx, DWORD PTR __ctlState$[ebp]
  00727	e8 00 00 00 00	 call	 ??1AFX_MAINTAIN_STATE2@@QAE@XZ ; AFX_MAINTAIN_STATE2::~AFX_MAINTAIN_STATE2
  0072c	8b 45 d8	 mov	 eax, DWORD PTR $T198536[ebp]
  0072f	eb 3d		 jmp	 SHORT $L197811
$L197821:

; 234  : 		}
; 235  : 
; 236  : 		//disable back space
; 237  : 		if(lpMsg->wParam == VK_BACK)

  00731	8b 45 0c	 mov	 eax, DWORD PTR _lpMsg$[ebp]
  00734	83 78 08 08	 cmp	 DWORD PTR [eax+8], 8
  00738	75 1b		 jne	 SHORT $L197831

; 238  : 			return S_OK;

  0073a	c7 45 d4 00 00
	00 00		 mov	 DWORD PTR $T198537[ebp], 0
  00741	c7 45 fc ff ff
	ff ff		 mov	 DWORD PTR __$EHRec$[ebp+8], -1
  00748	8d 4d ec	 lea	 ecx, DWORD PTR __ctlState$[ebp]
  0074b	e8 00 00 00 00	 call	 ??1AFX_MAINTAIN_STATE2@@QAE@XZ ; AFX_MAINTAIN_STATE2::~AFX_MAINTAIN_STATE2
  00750	8b 45 d4	 mov	 eax, DWORD PTR $T198537[ebp]
  00753	eb 19		 jmp	 SHORT $L197811
$L197831:

; 239  : 
; 240  :     return S_FALSE;

  00755	c7 45 d0 01 00
	00 00		 mov	 DWORD PTR $T198538[ebp], 1
  0075c	c7 45 fc ff ff
	ff ff		 mov	 DWORD PTR __$EHRec$[ebp+8], -1
  00763	8d 4d ec	 lea	 ecx, DWORD PTR __ctlState$[ebp]
  00766	e8 00 00 00 00	 call	 ??1AFX_MAINTAIN_STATE2@@QAE@XZ ; AFX_MAINTAIN_STATE2::~AFX_MAINTAIN_STATE2
  0076b	8b 45 d0	 mov	 eax, DWORD PTR $T198538[ebp]
$L197811:

; 241  : }

  0076e	8b 4d f4	 mov	 ecx, DWORD PTR __$EHRec$[ebp]
  00771	64 89 0d 00 00
	00 00		 mov	 DWORD PTR fs:__except_list, ecx
  00778	8b e5		 mov	 esp, ebp
  0077a	5d		 pop	 ebp
  0077b	c2 10 00	 ret	 16			; 00000010H
_TEXT	ENDS
text$x	SEGMENT
$L198539:
  0007e	8d 4d ec	 lea	 ecx, DWORD PTR __ctlState$[ebp]
  00081	e9 00 00 00 00	 jmp	 ??1AFX_MAINTAIN_STATE2@@QAE@XZ ; AFX_MAINTAIN_STATE2::~AFX_MAINTAIN_STATE2
__ehhandler$?TranslateAcceleratorA@XDocHostUIHandler@CCustomControlSite@@UAGJPAUtagMSG@@PBU_GUID@@K@Z:
  00086	b8 00 00 00 00	 mov	 eax, OFFSET FLAT:$T198541
  0008b	e9 00 00 00 00	 jmp	 ___CxxFrameHandler
text$x	ENDS
?TranslateAcceleratorA@XDocHostUIHandler@CCustomControlSite@@UAGJPAUtagMSG@@PBU_GUID@@K@Z ENDP ; CCustomControlSite::XDocHostUIHandler::TranslateAcceleratorA
PUBLIC	?GetOptionKeyPath@XDocHostUIHandler@CCustomControlSite@@UAGJPAPA_WK@Z ; CCustomControlSite::XDocHostUIHandler::GetOptionKeyPath
; Function compile flags: /Odt
_TEXT	SEGMENT
$T198545 = -16						; size = 4
_pThis$ = -12						; size = 4
__ctlState$ = -8					; size = 8
_this$ = 8						; size = 4
_pbstrKey$ = 12						; size = 4
___formal$ = 16						; size = 4
?GetOptionKeyPath@XDocHostUIHandler@CCustomControlSite@@UAGJPAPA_WK@Z PROC NEAR ; CCustomControlSite::XDocHostUIHandler::GetOptionKeyPath

; 249  : {

  00780	55		 push	 ebp
  00781	8b ec		 mov	 ebp, esp
  00783	83 ec 10	 sub	 esp, 16			; 00000010H

; 250  : 
; 251  : 	METHOD_PROLOGUE(CCustomControlSite, DocHostUIHandler)

  00786	8b 45 08	 mov	 eax, DWORD PTR _this$[ebp]
  00789	2d f4 00 00 00	 sub	 eax, 244		; 000000f4H
  0078e	89 45 f4	 mov	 DWORD PTR _pThis$[ebp], eax
  00791	8b 4d f4	 mov	 ecx, DWORD PTR _pThis$[ebp]
  00794	8b 51 1c	 mov	 edx, DWORD PTR [ecx+28]
  00797	52		 push	 edx
  00798	8d 4d f8	 lea	 ecx, DWORD PTR __ctlState$[ebp]
  0079b	e8 00 00 00 00	 call	 ??0AFX_MAINTAIN_STATE2@@QAE@PAVAFX_MODULE_STATE@@@Z ; AFX_MAINTAIN_STATE2::AFX_MAINTAIN_STATE2

; 252  : 	return E_NOTIMPL;

  007a0	c7 45 f0 01 40
	00 80		 mov	 DWORD PTR $T198545[ebp], -2147467263 ; 80004001H
  007a7	8d 4d f8	 lea	 ecx, DWORD PTR __ctlState$[ebp]
  007aa	e8 00 00 00 00	 call	 ??1AFX_MAINTAIN_STATE2@@QAE@XZ ; AFX_MAINTAIN_STATE2::~AFX_MAINTAIN_STATE2
  007af	8b 45 f0	 mov	 eax, DWORD PTR $T198545[ebp]

; 253  : }

  007b2	8b e5		 mov	 esp, ebp
  007b4	5d		 pop	 ebp
  007b5	c2 0c 00	 ret	 12			; 0000000cH
?GetOptionKeyPath@XDocHostUIHandler@CCustomControlSite@@UAGJPAPA_WK@Z ENDP ; CCustomControlSite::XDocHostUIHandler::GetOptionKeyPath
_TEXT	ENDS
PUBLIC	?GetDropTarget@XDocHostUIHandler@CCustomControlSite@@UAGJPAUIDropTarget@@PAPAU3@@Z ; CCustomControlSite::XDocHostUIHandler::GetDropTarget
; Function compile flags: /Odt
_TEXT	SEGMENT
$T198548 = -16						; size = 4
_pThis$ = -12						; size = 4
__ctlState$ = -8					; size = 8
_this$ = 8						; size = 4
_pDropTarget$ = 12					; size = 4
_ppDropTarget$ = 16					; size = 4
?GetDropTarget@XDocHostUIHandler@CCustomControlSite@@UAGJPAUIDropTarget@@PAPAU3@@Z PROC NEAR ; CCustomControlSite::XDocHostUIHandler::GetDropTarget

; 258  : {

  007c0	55		 push	 ebp
  007c1	8b ec		 mov	 ebp, esp
  007c3	83 ec 10	 sub	 esp, 16			; 00000010H

; 259  : 	METHOD_PROLOGUE(CCustomControlSite, DocHostUIHandler)

  007c6	8b 45 08	 mov	 eax, DWORD PTR _this$[ebp]
  007c9	2d f4 00 00 00	 sub	 eax, 244		; 000000f4H
  007ce	89 45 f4	 mov	 DWORD PTR _pThis$[ebp], eax
  007d1	8b 4d f4	 mov	 ecx, DWORD PTR _pThis$[ebp]
  007d4	8b 51 1c	 mov	 edx, DWORD PTR [ecx+28]
  007d7	52		 push	 edx
  007d8	8d 4d f8	 lea	 ecx, DWORD PTR __ctlState$[ebp]
  007db	e8 00 00 00 00	 call	 ??0AFX_MAINTAIN_STATE2@@QAE@PAVAFX_MODULE_STATE@@@Z ; AFX_MAINTAIN_STATE2::AFX_MAINTAIN_STATE2

; 260  :     return E_NOTIMPL;

  007e0	c7 45 f0 01 40
	00 80		 mov	 DWORD PTR $T198548[ebp], -2147467263 ; 80004001H
  007e7	8d 4d f8	 lea	 ecx, DWORD PTR __ctlState$[ebp]
  007ea	e8 00 00 00 00	 call	 ??1AFX_MAINTAIN_STATE2@@QAE@XZ ; AFX_MAINTAIN_STATE2::~AFX_MAINTAIN_STATE2
  007ef	8b 45 f0	 mov	 eax, DWORD PTR $T198548[ebp]

; 261  : }

  007f2	8b e5		 mov	 esp, ebp
  007f4	5d		 pop	 ebp
  007f5	c2 0c 00	 ret	 12			; 0000000cH
?GetDropTarget@XDocHostUIHandler@CCustomControlSite@@UAGJPAUIDropTarget@@PAPAU3@@Z ENDP ; CCustomControlSite::XDocHostUIHandler::GetDropTarget
_TEXT	ENDS
PUBLIC	?GetExternal@XDocHostUIHandler@CCustomControlSite@@UAGJPAPAUIDispatch@@@Z ; CCustomControlSite::XDocHostUIHandler::GetExternal
EXTRN	??2@YAPAXI@Z:NEAR				; operator new
EXTRN	??3@YAXPAX@Z:NEAR				; operator delete
EXTRN	??0CImpIDispatch@@QAE@XZ:NEAR			; CImpIDispatch::CImpIDispatch
xdata$x	SEGMENT
$T198559 DD	0ffffffffH
	DD	FLAT:$L198555
$T198557 DD	019930520H
	DD	01H
	DD	FLAT:$T198559
	DD	2 DUP(00H)
	DD	2 DUP(00H)
; Function compile flags: /Odt
xdata$x	ENDS
_TEXT	SEGMENT
tv71 = -28						; size = 4
$T198552 = -24						; size = 4
$T198551 = -20						; size = 4
_pDisPatch$ = -16					; size = 4
__$EHRec$ = -12						; size = 12
_this$ = 8						; size = 4
_ppDispatch$ = 12					; size = 4
?GetExternal@XDocHostUIHandler@CCustomControlSite@@UAGJPAPAUIDispatch@@@Z PROC NEAR ; CCustomControlSite::XDocHostUIHandler::GetExternal

; 266  : {

  00800	55		 push	 ebp
  00801	8b ec		 mov	 ebp, esp
  00803	6a ff		 push	 -1
  00805	68 00 00 00 00	 push	 __ehhandler$?GetExternal@XDocHostUIHandler@CCustomControlSite@@UAGJPAPAUIDispatch@@@Z
  0080a	64 a1 00 00 00
	00		 mov	 eax, DWORD PTR fs:__except_list
  00810	50		 push	 eax
  00811	64 89 25 00 00
	00 00		 mov	 DWORD PTR fs:__except_list, esp
  00818	83 ec 10	 sub	 esp, 16			; 00000010H

; 267  : 	// return the IDispatch we have for extending the object Model
; 268  : 	CImpIDispatch* pDisPatch = new CImpIDispatch;

  0081b	6a 08		 push	 8
  0081d	e8 00 00 00 00	 call	 ??2@YAPAXI@Z		; operator new
  00822	83 c4 04	 add	 esp, 4
  00825	89 45 e8	 mov	 DWORD PTR $T198552[ebp], eax
  00828	c7 45 fc 00 00
	00 00		 mov	 DWORD PTR __$EHRec$[ebp+8], 0
  0082f	83 7d e8 00	 cmp	 DWORD PTR $T198552[ebp], 0
  00833	74 0d		 je	 SHORT $L198553
  00835	8b 4d e8	 mov	 ecx, DWORD PTR $T198552[ebp]
  00838	e8 00 00 00 00	 call	 ??0CImpIDispatch@@QAE@XZ ; CImpIDispatch::CImpIDispatch
  0083d	89 45 e4	 mov	 DWORD PTR tv71[ebp], eax
  00840	eb 07		 jmp	 SHORT $L198554
$L198553:
  00842	c7 45 e4 00 00
	00 00		 mov	 DWORD PTR tv71[ebp], 0
$L198554:
  00849	8b 45 e4	 mov	 eax, DWORD PTR tv71[ebp]
  0084c	89 45 ec	 mov	 DWORD PTR $T198551[ebp], eax
  0084f	c7 45 fc ff ff
	ff ff		 mov	 DWORD PTR __$EHRec$[ebp+8], -1
  00856	8b 4d ec	 mov	 ecx, DWORD PTR $T198551[ebp]
  00859	89 4d f0	 mov	 DWORD PTR _pDisPatch$[ebp], ecx

; 269  : 	pDisPatch->AddRef();	

  0085c	8b 55 f0	 mov	 edx, DWORD PTR _pDisPatch$[ebp]
  0085f	8b 02		 mov	 eax, DWORD PTR [edx]
  00861	8b 4d f0	 mov	 ecx, DWORD PTR _pDisPatch$[ebp]
  00864	51		 push	 ecx
  00865	ff 50 04	 call	 DWORD PTR [eax+4]

; 270  : 	*ppDispatch = pDisPatch;

  00868	8b 55 0c	 mov	 edx, DWORD PTR _ppDispatch$[ebp]
  0086b	8b 45 f0	 mov	 eax, DWORD PTR _pDisPatch$[ebp]
  0086e	89 02		 mov	 DWORD PTR [edx], eax

; 271  :     return S_OK;

  00870	33 c0		 xor	 eax, eax

; 272  : }

  00872	8b 4d f4	 mov	 ecx, DWORD PTR __$EHRec$[ebp]
  00875	64 89 0d 00 00
	00 00		 mov	 DWORD PTR fs:__except_list, ecx
  0087c	8b e5		 mov	 esp, ebp
  0087e	5d		 pop	 ebp
  0087f	c2 08 00	 ret	 8
_TEXT	ENDS
text$x	SEGMENT
$L198555:
  00090	8b 45 e8	 mov	 eax, DWORD PTR $T198552[ebp]
  00093	50		 push	 eax
  00094	e8 00 00 00 00	 call	 ??3@YAXPAX@Z		; operator delete
  00099	59		 pop	 ecx
  0009a	c3		 ret	 0
__ehhandler$?GetExternal@XDocHostUIHandler@CCustomControlSite@@UAGJPAPAUIDispatch@@@Z:
  0009b	b8 00 00 00 00	 mov	 eax, OFFSET FLAT:$T198557
  000a0	e9 00 00 00 00	 jmp	 ___CxxFrameHandler
text$x	ENDS
?GetExternal@XDocHostUIHandler@CCustomControlSite@@UAGJPAPAUIDispatch@@@Z ENDP ; CCustomControlSite::XDocHostUIHandler::GetExternal
PUBLIC	?TranslateUrl@XDocHostUIHandler@CCustomControlSite@@UAGJKPA_WPAPA_W@Z ; CCustomControlSite::XDocHostUIHandler::TranslateUrl
; Function compile flags: /Odt
_TEXT	SEGMENT
$T198561 = -16						; size = 4
_pThis$ = -12						; size = 4
__ctlState$ = -8					; size = 8
_this$ = 8						; size = 4
_dwTranslate$ = 12					; size = 4
_pchURLIn$ = 16						; size = 4
_ppchURLOut$ = 20					; size = 4
?TranslateUrl@XDocHostUIHandler@CCustomControlSite@@UAGJKPA_WPAPA_W@Z PROC NEAR ; CCustomControlSite::XDocHostUIHandler::TranslateUrl

; 278  : {

  00890	55		 push	 ebp
  00891	8b ec		 mov	 ebp, esp
  00893	83 ec 10	 sub	 esp, 16			; 00000010H

; 279  : 	METHOD_PROLOGUE(CCustomControlSite, DocHostUIHandler)

  00896	8b 45 08	 mov	 eax, DWORD PTR _this$[ebp]
  00899	2d f4 00 00 00	 sub	 eax, 244		; 000000f4H
  0089e	89 45 f4	 mov	 DWORD PTR _pThis$[ebp], eax
  008a1	8b 4d f4	 mov	 ecx, DWORD PTR _pThis$[ebp]
  008a4	8b 51 1c	 mov	 edx, DWORD PTR [ecx+28]
  008a7	52		 push	 edx
  008a8	8d 4d f8	 lea	 ecx, DWORD PTR __ctlState$[ebp]
  008ab	e8 00 00 00 00	 call	 ??0AFX_MAINTAIN_STATE2@@QAE@PAVAFX_MODULE_STATE@@@Z ; AFX_MAINTAIN_STATE2::AFX_MAINTAIN_STATE2

; 280  :     return E_NOTIMPL;

  008b0	c7 45 f0 01 40
	00 80		 mov	 DWORD PTR $T198561[ebp], -2147467263 ; 80004001H
  008b7	8d 4d f8	 lea	 ecx, DWORD PTR __ctlState$[ebp]
  008ba	e8 00 00 00 00	 call	 ??1AFX_MAINTAIN_STATE2@@QAE@XZ ; AFX_MAINTAIN_STATE2::~AFX_MAINTAIN_STATE2
  008bf	8b 45 f0	 mov	 eax, DWORD PTR $T198561[ebp]

; 281  : }

  008c2	8b e5		 mov	 esp, ebp
  008c4	5d		 pop	 ebp
  008c5	c2 10 00	 ret	 16			; 00000010H
?TranslateUrl@XDocHostUIHandler@CCustomControlSite@@UAGJKPA_WPAPA_W@Z ENDP ; CCustomControlSite::XDocHostUIHandler::TranslateUrl
_TEXT	ENDS
PUBLIC	?FilterDataObject@XDocHostUIHandler@CCustomControlSite@@UAGJPAUIDataObject@@PAPAU3@@Z ; CCustomControlSite::XDocHostUIHandler::FilterDataObject
; Function compile flags: /Odt
_TEXT	SEGMENT
$T198564 = -16						; size = 4
_pThis$ = -12						; size = 4
__ctlState$ = -8					; size = 8
_this$ = 8						; size = 4
_pDO$ = 12						; size = 4
_ppDORet$ = 16						; size = 4
?FilterDataObject@XDocHostUIHandler@CCustomControlSite@@UAGJPAUIDataObject@@PAPAU3@@Z PROC NEAR ; CCustomControlSite::XDocHostUIHandler::FilterDataObject

; 286  : {

  008d0	55		 push	 ebp
  008d1	8b ec		 mov	 ebp, esp
  008d3	83 ec 10	 sub	 esp, 16			; 00000010H

; 287  : 	METHOD_PROLOGUE(CCustomControlSite, DocHostUIHandler)

  008d6	8b 45 08	 mov	 eax, DWORD PTR _this$[ebp]
  008d9	2d f4 00 00 00	 sub	 eax, 244		; 000000f4H
  008de	89 45 f4	 mov	 DWORD PTR _pThis$[ebp], eax
  008e1	8b 4d f4	 mov	 ecx, DWORD PTR _pThis$[ebp]
  008e4	8b 51 1c	 mov	 edx, DWORD PTR [ecx+28]
  008e7	52		 push	 edx
  008e8	8d 4d f8	 lea	 ecx, DWORD PTR __ctlState$[ebp]
  008eb	e8 00 00 00 00	 call	 ??0AFX_MAINTAIN_STATE2@@QAE@PAVAFX_MODULE_STATE@@@Z ; AFX_MAINTAIN_STATE2::AFX_MAINTAIN_STATE2

; 288  :     return E_NOTIMPL;

  008f0	c7 45 f0 01 40
	00 80		 mov	 DWORD PTR $T198564[ebp], -2147467263 ; 80004001H
  008f7	8d 4d f8	 lea	 ecx, DWORD PTR __ctlState$[ebp]
  008fa	e8 00 00 00 00	 call	 ??1AFX_MAINTAIN_STATE2@@QAE@XZ ; AFX_MAINTAIN_STATE2::~AFX_MAINTAIN_STATE2
  008ff	8b 45 f0	 mov	 eax, DWORD PTR $T198564[ebp]

; 289  : }

  00902	8b e5		 mov	 esp, ebp
  00904	5d		 pop	 ebp
  00905	c2 0c 00	 ret	 12			; 0000000cH
?FilterDataObject@XDocHostUIHandler@CCustomControlSite@@UAGJPAUIDataObject@@PAPAU3@@Z ENDP ; CCustomControlSite::XDocHostUIHandler::FilterDataObject
_TEXT	ENDS
PUBLIC	?InterlockedExchangePointer@@YGPAXPAPAXPAX@Z	; InterlockedExchangePointer
PUBLIC	?_AtlGetThreadACPFake@ATL@@YGIXZ		; ATL::_AtlGetThreadACPFake
PUBLIC	?_AtlGetThreadACPReal@ATL@@YGIXZ		; ATL::_AtlGetThreadACPReal
EXTRN	__imp__GetVersionExA@4:NEAR
EXTRN	___security_cookie:DWORD
EXTRN	@__security_check_cookie@4:NEAR
; Function compile flags: /Odt
; File d:\program files (x86)\microsoft visual studio .net 2003\vc7\atlmfc\include\atlconv.h
;	COMDAT ?_AtlGetThreadACPThunk@ATL@@YGIXZ
_TEXT	SEGMENT
_pfnGetThreadACP$ = -164				; size = 4
_ver$ = -160						; size = 148
__$ArrayPad$ = -4					; size = 4
__$ReturnAddr$ = 4					; size = 4
?_AtlGetThreadACPThunk@ATL@@YGIXZ PROC NEAR		; ATL::_AtlGetThreadACPThunk, COMDAT

; 134  : {

  00000	55		 push	 ebp
  00001	8b ec		 mov	 ebp, esp
  00003	81 ec a4 00 00
	00		 sub	 esp, 164		; 000000a4H
  00009	a1 00 00 00 00	 mov	 eax, DWORD PTR ___security_cookie
  0000e	89 45 fc	 mov	 DWORD PTR __$ArrayPad$[ebp], eax

; 135  : 	OSVERSIONINFO ver;
; 136  : 	ATLGETTHREADACP pfnGetThreadACP;
; 137  : 
; 138  : 	ver.dwOSVersionInfoSize = sizeof( ver );

  00011	c7 85 60 ff ff
	ff 94 00 00 00	 mov	 DWORD PTR _ver$[ebp], 148 ; 00000094H

; 139  : 	::GetVersionEx( &ver );

  0001b	8d 85 60 ff ff
	ff		 lea	 eax, DWORD PTR _ver$[ebp]
  00021	50		 push	 eax
  00022	ff 15 00 00 00
	00		 call	 DWORD PTR __imp__GetVersionExA@4

; 140  : 	if( (ver.dwPlatformId == VER_PLATFORM_WIN32_NT) && (ver.dwMajorVersion >= 5) )

  00028	83 bd 70 ff ff
	ff 02		 cmp	 DWORD PTR _ver$[ebp+16], 2
  0002f	75 15		 jne	 SHORT $L24173
  00031	83 bd 64 ff ff
	ff 05		 cmp	 DWORD PTR _ver$[ebp+4], 5
  00038	72 0c		 jb	 SHORT $L24173

; 141  : 	{
; 142  : 		// On Win2K, CP_THREAD_ACP is supported
; 143  : 		pfnGetThreadACP = _AtlGetThreadACPReal;

  0003a	c7 85 5c ff ff
	ff 00 00 00 00	 mov	 DWORD PTR _pfnGetThreadACP$[ebp], OFFSET FLAT:?_AtlGetThreadACPReal@ATL@@YGIXZ ; ATL::_AtlGetThreadACPReal

; 144  : 	}
; 145  : 	else

  00044	eb 0a		 jmp	 SHORT $L24174
$L24173:

; 146  : 	{
; 147  : 		pfnGetThreadACP = _AtlGetThreadACPFake;

  00046	c7 85 5c ff ff
	ff 00 00 00 00	 mov	 DWORD PTR _pfnGetThreadACP$[ebp], OFFSET FLAT:?_AtlGetThreadACPFake@ATL@@YGIXZ ; ATL::_AtlGetThreadACPFake
$L24174:

; 148  : 	}
; 149  : 	InterlockedExchangePointer( reinterpret_cast< void** >(&g_pfnGetThreadACP), pfnGetThreadACP );

  00050	8b 8d 5c ff ff
	ff		 mov	 ecx, DWORD PTR _pfnGetThreadACP$[ebp]
  00056	51		 push	 ecx
  00057	68 00 00 00 00	 push	 OFFSET FLAT:?g_pfnGetThreadACP@ATL@@3P6GIXZA ; ATL::g_pfnGetThreadACP
  0005c	e8 00 00 00 00	 call	 ?InterlockedExchangePointer@@YGPAXPAPAXPAX@Z ; InterlockedExchangePointer

; 150  : 
; 151  : 	return( g_pfnGetThreadACP() );

  00061	ff 15 00 00 00
	00		 call	 DWORD PTR ?g_pfnGetThreadACP@ATL@@3P6GIXZA ; ATL::g_pfnGetThreadACP

; 152  : }

  00067	8b 4d fc	 mov	 ecx, DWORD PTR __$ArrayPad$[ebp]
  0006a	e8 00 00 00 00	 call	 @__security_check_cookie@4
  0006f	8b e5		 mov	 esp, ebp
  00071	5d		 pop	 ebp
  00072	c3		 ret	 0
?_AtlGetThreadACPThunk@ATL@@YGIXZ ENDP			; ATL::_AtlGetThreadACPThunk
_TEXT	ENDS
EXTRN	__imp__InterlockedExchange@8:NEAR
; Function compile flags: /Odt
;	COMDAT ?InterlockedExchangePointer@@YGPAXPAPAXPAX@Z
_TEXT	SEGMENT
_pp$ = 8						; size = 4
_pNew$ = 12						; size = 4
?InterlockedExchangePointer@@YGPAXPAPAXPAX@Z PROC NEAR	; InterlockedExchangePointer, COMDAT

; 91   : {

  00000	55		 push	 ebp
  00001	8b ec		 mov	 ebp, esp

; 92   : 	return( reinterpret_cast<void*>(static_cast<LONG_PTR>(::InterlockedExchange(reinterpret_cast<LONG*>(pp), static_cast<LONG>(reinterpret_cast<LONG_PTR>(pNew))))) );

  00003	8b 45 0c	 mov	 eax, DWORD PTR _pNew$[ebp]
  00006	50		 push	 eax
  00007	8b 4d 08	 mov	 ecx, DWORD PTR _pp$[ebp]
  0000a	51		 push	 ecx
  0000b	ff 15 00 00 00
	00		 call	 DWORD PTR __imp__InterlockedExchange@8

; 93   : }

  00011	5d		 pop	 ebp
  00012	c2 08 00	 ret	 8
?InterlockedExchangePointer@@YGPAXPAPAXPAX@Z ENDP	; InterlockedExchangePointer
_TEXT	ENDS
EXTRN	__imp__GetACP@0:NEAR
EXTRN	__imp__GetLocaleInfoA@16:NEAR
EXTRN	__imp__GetThreadLocale@0:NEAR
; Function compile flags: /Odt
;	COMDAT ?_AtlGetThreadACPFake@ATL@@YGIXZ
_TEXT	SEGMENT
_pch$24161 = -24					; size = 4
_lcidThread$ = -20					; size = 4
_szACP$ = -16						; size = 7
__$ArrayPad$ = -8					; size = 4
_nACP$ = -4						; size = 4
__$ReturnAddr$ = 4					; size = 4
?_AtlGetThreadACPFake@ATL@@YGIXZ PROC NEAR		; ATL::_AtlGetThreadACPFake, COMDAT

; 101  : {

  00000	55		 push	 ebp
  00001	8b ec		 mov	 ebp, esp
  00003	83 ec 18	 sub	 esp, 24			; 00000018H
  00006	a1 00 00 00 00	 mov	 eax, DWORD PTR ___security_cookie
  0000b	89 45 f8	 mov	 DWORD PTR __$ArrayPad$[ebp], eax

; 102  : 	UINT nACP = 0;

  0000e	c7 45 fc 00 00
	00 00		 mov	 DWORD PTR _nACP$[ebp], 0

; 103  : 
; 104  : 	LCID lcidThread = ::GetThreadLocale();

  00015	ff 15 00 00 00
	00		 call	 DWORD PTR __imp__GetThreadLocale@0
  0001b	89 45 ec	 mov	 DWORD PTR _lcidThread$[ebp], eax

; 105  : 
; 106  : 	char szACP[7];
; 107  : 	// GetLocaleInfoA will fail for a Unicode-only LCID, but those are only supported on 
; 108  : 	// Windows 2000.  Since Windows 2000 supports CP_THREAD_ACP, this code path is never
; 109  : 	// executed on Windows 2000.
; 110  : 	if (::GetLocaleInfoA(lcidThread, LOCALE_IDEFAULTANSICODEPAGE, szACP, 7) != 0)

  0001e	6a 07		 push	 7
  00020	8d 45 f0	 lea	 eax, DWORD PTR _szACP$[ebp]
  00023	50		 push	 eax
  00024	68 04 10 00 00	 push	 4100			; 00001004H
  00029	8b 4d ec	 mov	 ecx, DWORD PTR _lcidThread$[ebp]
  0002c	51		 push	 ecx
  0002d	ff 15 00 00 00
	00		 call	 DWORD PTR __imp__GetLocaleInfoA@16
  00033	85 c0		 test	 eax, eax
  00035	74 34		 je	 SHORT $L24160

; 111  : 	{
; 112  : 		char* pch = szACP;

  00037	8d 55 f0	 lea	 edx, DWORD PTR _szACP$[ebp]
  0003a	89 55 e8	 mov	 DWORD PTR _pch$24161[ebp], edx
$L24163:

; 113  : 		while (*pch != '\0')

  0003d	8b 45 e8	 mov	 eax, DWORD PTR _pch$24161[ebp]
  00040	0f be 08	 movsx	 ecx, BYTE PTR [eax]
  00043	85 c9		 test	 ecx, ecx
  00045	74 24		 je	 SHORT $L24160

; 114  : 		{
; 115  : 			nACP *= 10;

  00047	8b 55 fc	 mov	 edx, DWORD PTR _nACP$[ebp]
  0004a	6b d2 0a	 imul	 edx, 10			; 0000000aH
  0004d	89 55 fc	 mov	 DWORD PTR _nACP$[ebp], edx

; 116  : 			nACP += *pch++ - '0';

  00050	8b 45 e8	 mov	 eax, DWORD PTR _pch$24161[ebp]
  00053	0f be 08	 movsx	 ecx, BYTE PTR [eax]
  00056	8b 55 fc	 mov	 edx, DWORD PTR _nACP$[ebp]
  00059	8d 44 0a d0	 lea	 eax, DWORD PTR [edx+ecx-48]
  0005d	89 45 fc	 mov	 DWORD PTR _nACP$[ebp], eax
  00060	8b 4d e8	 mov	 ecx, DWORD PTR _pch$24161[ebp]
  00063	83 c1 01	 add	 ecx, 1
  00066	89 4d e8	 mov	 DWORD PTR _pch$24161[ebp], ecx

; 117  : 		}

  00069	eb d2		 jmp	 SHORT $L24163
$L24160:

; 118  : 	}
; 119  : 	// Use the Default ANSI Code Page if we were unable to get the thread ACP or if one does not exist.
; 120  : 	if (nACP == 0)

  0006b	83 7d fc 00	 cmp	 DWORD PTR _nACP$[ebp], 0
  0006f	75 09		 jne	 SHORT $L24165

; 121  : 		nACP = ::GetACP();

  00071	ff 15 00 00 00
	00		 call	 DWORD PTR __imp__GetACP@0
  00077	89 45 fc	 mov	 DWORD PTR _nACP$[ebp], eax
$L24165:

; 122  : 
; 123  : 	return nACP;

  0007a	8b 45 fc	 mov	 eax, DWORD PTR _nACP$[ebp]

; 124  : }

  0007d	8b 4d f8	 mov	 ecx, DWORD PTR __$ArrayPad$[ebp]
  00080	e8 00 00 00 00	 call	 @__security_check_cookie@4
  00085	8b e5		 mov	 esp, ebp
  00087	5d		 pop	 ebp
  00088	c3		 ret	 0
?_AtlGetThreadACPFake@ATL@@YGIXZ ENDP			; ATL::_AtlGetThreadACPFake
; Function compile flags: /Odt
_TEXT	ENDS
;	COMDAT ?_AtlGetThreadACPReal@ATL@@YGIXZ
_TEXT	SEGMENT
?_AtlGetThreadACPReal@ATL@@YGIXZ PROC NEAR		; ATL::_AtlGetThreadACPReal, COMDAT

; 127  : {

  00000	55		 push	 ebp
  00001	8b ec		 mov	 ebp, esp

; 128  : 	return( CP_THREAD_ACP );

  00003	b8 03 00 00 00	 mov	 eax, 3

; 129  : }

  00008	5d		 pop	 ebp
  00009	c3		 ret	 0
?_AtlGetThreadACPReal@ATL@@YGIXZ ENDP			; ATL::_AtlGetThreadACPReal
; Function compile flags: /Odt
; File d:\program files (x86)\microsoft visual studio .net 2003\vc7\atlmfc\include\afxwin1.inl
_TEXT	ENDS
;	COMDAT ??1AFX_MAINTAIN_STATE2@@QAE@XZ
_TEXT	SEGMENT
_this$ = -4						; size = 4
??1AFX_MAINTAIN_STATE2@@QAE@XZ PROC NEAR		; AFX_MAINTAIN_STATE2::~AFX_MAINTAIN_STATE2, COMDAT
; _this$ = ecx

; 45   : 	{  m_pThreadState->m_pModuleState = m_pPrevModuleState; }

  00000	55		 push	 ebp
  00001	8b ec		 mov	 ebp, esp
  00003	51		 push	 ecx
  00004	89 4d fc	 mov	 DWORD PTR _this$[ebp], ecx
  00007	8b 45 fc	 mov	 eax, DWORD PTR _this$[ebp]
  0000a	8b 48 04	 mov	 ecx, DWORD PTR [eax+4]
  0000d	8b 55 fc	 mov	 edx, DWORD PTR _this$[ebp]
  00010	8b 02		 mov	 eax, DWORD PTR [edx]
  00012	89 41 04	 mov	 DWORD PTR [ecx+4], eax
  00015	8b e5		 mov	 esp, ebp
  00017	5d		 pop	 ebp
  00018	c3		 ret	 0
??1AFX_MAINTAIN_STATE2@@QAE@XZ ENDP			; AFX_MAINTAIN_STATE2::~AFX_MAINTAIN_STATE2
_TEXT	ENDS
END
