; Listing generated by Microsoft (R) Optimizing Compiler Version 13.10.3077 

	TITLE	.\src\Gui\CommonControl\DialogMsg.cpp
	.386P
include listing.inc
if @Version gt 510
.model FLAT
else
_TEXT	SEGMENT PARA USE32 PUBLIC 'CODE'
_TEXT	ENDS
_DATA	SEGMENT DWORD USE32 PUBLIC 'DATA'
_DATA	ENDS
CONST	SEGMENT DWORD USE32 PUBLIC 'CONST'
CONST	ENDS
_BSS	SEGMENT DWORD USE32 PUBLIC 'BSS'
_BSS	ENDS
$$SYMBOLS	SEGMENT BYTE USE32 'DEBSYM'
$$SYMBOLS	ENDS
$$TYPES	SEGMENT BYTE USE32 'DEBTYP'
$$TYPES	ENDS
_TLS	SEGMENT DWORD USE32 PUBLIC 'TLS'
_TLS	ENDS
rdata$r	SEGMENT DWORD USE32 PUBLIC 'CONST'
rdata$r	ENDS
xdata$x	SEGMENT DWORD USE32 PUBLIC 'CONST'
xdata$x	ENDS
text$AFX_COL1	SEGMENT PARA USE32 PUBLIC ''
text$AFX_COL1	ENDS
text$yc	SEGMENT PARA USE32 PUBLIC 'CODE'
text$yc	ENDS
CRT$XCA	SEGMENT DWORD USE32 PUBLIC 'DATA'
CRT$XCA	ENDS
CRT$XCU	SEGMENT DWORD USE32 PUBLIC 'DATA'
CRT$XCU	ENDS
CRT$XCL	SEGMENT DWORD USE32 PUBLIC 'DATA'
CRT$XCL	ENDS
CRT$XCC	SEGMENT DWORD USE32 PUBLIC 'DATA'
CRT$XCC	ENDS
CRT$XCZ	SEGMENT DWORD USE32 PUBLIC 'DATA'
CRT$XCZ	ENDS
text$yd	SEGMENT PARA USE32 PUBLIC 'CODE'
text$yd	ENDS
ATL$__m	SEGMENT DWORD USE32 PUBLIC ''
ATL$__m	ENDS
ATL$__z	SEGMENT DWORD USE32 PUBLIC ''
ATL$__z	ENDS
ATL$__a	SEGMENT DWORD USE32 PUBLIC ''
ATL$__a	ENDS
;	COMDAT ??1IData@@MAE@XZ
_TEXT	SEGMENT PARA USE32 PUBLIC 'CODE'
_TEXT	ENDS
;	COMDAT ?DataAppStart@IData@@UAEXXZ
_TEXT	SEGMENT PARA USE32 PUBLIC 'CODE'
_TEXT	ENDS
;	COMDAT ?DataAppExit@IData@@UAEXXZ
_TEXT	SEGMENT PARA USE32 PUBLIC 'CODE'
_TEXT	ENDS
;	COMDAT ??_GIData@@MAEPAXI@Z
_TEXT	SEGMENT PARA USE32 PUBLIC 'CODE'
_TEXT	ENDS
;	COMDAT ?SetTitle@CDialogMsg@@QAEXABV?$CStringT@DV?$StrTraitMFC_DLL@DV?$ChTraitsCRT@D@ATL@@@@@ATL@@@Z
_TEXT	SEGMENT PARA USE32 PUBLIC 'CODE'
_TEXT	ENDS
;	COMDAT ?SetSize@CDialogMsg@@QAEXHH@Z
_TEXT	SEGMENT PARA USE32 PUBLIC 'CODE'
_TEXT	ENDS
;	COMDAT ?CheckBox_Check@CDialogMsg@@UAEXXZ
_TEXT	SEGMENT PARA USE32 PUBLIC 'CODE'
_TEXT	ENDS
;	COMDAT ?CheckBox_Checked@CDialogMsg@@UAEXXZ
_TEXT	SEGMENT PARA USE32 PUBLIC 'CODE'
_TEXT	ENDS
;	COMDAT ?CheckBox_UnChecked@CDialogMsg@@UAEXXZ
_TEXT	SEGMENT PARA USE32 PUBLIC 'CODE'
_TEXT	ENDS
;	COMDAT ??_GCDialogMsg@@UAEPAXI@Z
_TEXT	SEGMENT PARA USE32 PUBLIC 'CODE'
_TEXT	ENDS
;	COMDAT ??B?$CComPtrBase@UITypeInfo2@@@ATL@@QBEPAUITypeInfo2@@XZ
_TEXT	SEGMENT PARA USE32 PUBLIC 'CODE'
_TEXT	ENDS
;	COMDAT ?equal@?$istreambuf_iterator@DU?$char_traits@D@std@@@std@@QBE_NABV12@@Z
_TEXT	SEGMENT PARA USE32 PUBLIC 'CODE'
_TEXT	ENDS
;	COMDAT ?equal@?$istreambuf_iterator@_WU?$char_traits@_W@std@@@std@@QBE_NABV12@@Z
_TEXT	SEGMENT PARA USE32 PUBLIC 'CODE'
_TEXT	ENDS
;	COMDAT ?StringFindString@?$ChTraitsCRT@D@ATL@@SAPBDPBD0@Z
_TEXT	SEGMENT PARA USE32 PUBLIC 'CODE'
_TEXT	ENDS
;	COMDAT ?Unlock@?$CComCritSecLock@VCComCriticalSection@ATL@@@ATL@@QAEXXZ
_TEXT	SEGMENT PARA USE32 PUBLIC 'CODE'
_TEXT	ENDS
;	COMDAT ??$_Maklocstr@D@std@@YAPADPBDPADABU_Cvtvec@@@Z
_TEXT	SEGMENT PARA USE32 PUBLIC 'CODE'
_TEXT	ENDS
;	COMDAT ??_9@$BBFE@AE
_TEXT	SEGMENT PARA USE32 PUBLIC 'CODE'
_TEXT	ENDS
;	COMDAT ??_9@$BBFI@AE
_TEXT	SEGMENT PARA USE32 PUBLIC 'CODE'
_TEXT	ENDS
;	COMDAT ??_R3IData@@8
rdata$r	SEGMENT DWORD USE32 PUBLIC 'CONST'
rdata$r	ENDS
;	COMDAT ??_R3CDialogMsg@@8
rdata$r	SEGMENT DWORD USE32 PUBLIC 'CONST'
rdata$r	ENDS
;	COMDAT ??_R3?$numpunct@_W@std@@8
rdata$r	SEGMENT DWORD USE32 PUBLIC 'CONST'
rdata$r	ENDS
;	COMDAT ??_R3?$numpunct@D@std@@8
rdata$r	SEGMENT DWORD USE32 PUBLIC 'CONST'
rdata$r	ENDS
;	COMDAT ??_R2IData@@8
rdata$r	SEGMENT DWORD USE32 PUBLIC 'CONST'
rdata$r	ENDS
;	COMDAT ??_R2CDialogMsg@@8
rdata$r	SEGMENT DWORD USE32 PUBLIC 'CONST'
rdata$r	ENDS
;	COMDAT ??_R2?$numpunct@_W@std@@8
rdata$r	SEGMENT DWORD USE32 PUBLIC 'CONST'
rdata$r	ENDS
;	COMDAT ??_R2?$numpunct@D@std@@8
rdata$r	SEGMENT DWORD USE32 PUBLIC 'CONST'
rdata$r	ENDS
;	COMDAT ??_R1A@?0A@A@IData@@8
rdata$r	SEGMENT DWORD USE32 PUBLIC 'CONST'
rdata$r	ENDS
;	COMDAT ??_R1A@?0A@A@CObject@@8
rdata$r	SEGMENT DWORD USE32 PUBLIC 'CONST'
rdata$r	ENDS
;	COMDAT ??_R0?AVCObject@@@8
_DATA	SEGMENT DWORD USE32 PUBLIC 'DATA'
_DATA	ENDS
;	COMDAT ??_R1A@?0A@A@CCmdTarget@@8
rdata$r	SEGMENT DWORD USE32 PUBLIC 'CONST'
rdata$r	ENDS
;	COMDAT ??_R0?AVCCmdTarget@@@8
_DATA	SEGMENT DWORD USE32 PUBLIC 'DATA'
_DATA	ENDS
;	COMDAT ??_R1A@?0A@A@CWnd@@8
rdata$r	SEGMENT DWORD USE32 PUBLIC 'CONST'
rdata$r	ENDS
;	COMDAT ??_R0?AVCWnd@@@8
_DATA	SEGMENT DWORD USE32 PUBLIC 'DATA'
_DATA	ENDS
;	COMDAT ??_R1A@?0A@A@CDialog@@8
rdata$r	SEGMENT DWORD USE32 PUBLIC 'CONST'
rdata$r	ENDS
;	COMDAT ??_R0?AVCDialog@@@8
_DATA	SEGMENT DWORD USE32 PUBLIC 'DATA'
_DATA	ENDS
;	COMDAT ??_R1A@?0A@A@CDialogMsg@@8
rdata$r	SEGMENT DWORD USE32 PUBLIC 'CONST'
rdata$r	ENDS
;	COMDAT ??_R1A@?0A@A@?$numpunct@_W@std@@8
rdata$r	SEGMENT DWORD USE32 PUBLIC 'CONST'
rdata$r	ENDS
;	COMDAT ??_R1A@?0A@A@facet@locale@std@@8
rdata$r	SEGMENT DWORD USE32 PUBLIC 'CONST'
rdata$r	ENDS
;	COMDAT ??_R0?AVfacet@locale@std@@@8
_DATA	SEGMENT DWORD USE32 PUBLIC 'DATA'
_DATA	ENDS
;	COMDAT ??_R1A@?0A@A@?$numpunct@D@std@@8
rdata$r	SEGMENT DWORD USE32 PUBLIC 'CONST'
rdata$r	ENDS
;	COMDAT ??_R0?AVIData@@@8
_DATA	SEGMENT DWORD USE32 PUBLIC 'DATA'
_DATA	ENDS
;	COMDAT ??_R0?AVCDialogMsg@@@8
_DATA	SEGMENT DWORD USE32 PUBLIC 'DATA'
_DATA	ENDS
;	COMDAT ??_R0?AV?$numpunct@_W@std@@@8
_DATA	SEGMENT DWORD USE32 PUBLIC 'DATA'
_DATA	ENDS
;	COMDAT ??_R0?AV?$numpunct@D@std@@@8
_DATA	SEGMENT DWORD USE32 PUBLIC 'DATA'
_DATA	ENDS
;	COMDAT ??_R4IData@@6B@
rdata$r	SEGMENT DWORD USE32 PUBLIC 'CONST'
rdata$r	ENDS
;	COMDAT ?Create@CDialog@@UAEHIPAVCWnd@@@Z
_TEXT	SEGMENT PARA USE32 PUBLIC 'CODE'
_TEXT	ENDS
;	COMDAT ?EndModalState@CWnd@@UAEXXZ
_TEXT	SEGMENT PARA USE32 PUBLIC 'CODE'
_TEXT	ENDS
;	COMDAT ?BeginModalState@CWnd@@UAEXXZ
_TEXT	SEGMENT PARA USE32 PUBLIC 'CODE'
_TEXT	ENDS
;	COMDAT ?Dump@CObject@@UBEXAAVCDumpContext@@@Z
_TEXT	SEGMENT PARA USE32 PUBLIC 'CODE'
_TEXT	ENDS
;	COMDAT ?AssertValid@CObject@@UBEXXZ
_TEXT	SEGMENT PARA USE32 PUBLIC 'CODE'
_TEXT	ENDS
;	COMDAT ?Serialize@CObject@@UAEXAAVCArchive@@@Z
_TEXT	SEGMENT PARA USE32 PUBLIC 'CODE'
_TEXT	ENDS
;	COMDAT ??_R4CDialogMsg@@6B@
rdata$r	SEGMENT DWORD USE32 PUBLIC 'CONST'
rdata$r	ENDS
;	COMDAT ??0?$allocator@_W@std@@QAE@XZ
_TEXT	SEGMENT PARA USE32 PUBLIC 'CODE'
_TEXT	ENDS
;	COMDAT ??0?$allocator@D@std@@QAE@ABV01@@Z
_TEXT	SEGMENT PARA USE32 PUBLIC 'CODE'
_TEXT	ENDS
;	COMDAT ??0?$allocator@D@std@@QAE@XZ
_TEXT	SEGMENT PARA USE32 PUBLIC 'CODE'
_TEXT	ENDS
;	COMDAT ?deallocate@?$allocator@D@std@@QAEXPADI@Z
_TEXT	SEGMENT PARA USE32 PUBLIC 'CODE'
_TEXT	ENDS
;	COMDAT ?max_size@?$allocator@D@std@@QBEIXZ
_TEXT	SEGMENT PARA USE32 PUBLIC 'CODE'
_TEXT	ENDS
;	COMDAT ?allocate@?$allocator@D@std@@QAEPADI@Z
_TEXT	SEGMENT PARA USE32 PUBLIC 'CODE'
_TEXT	ENDS
;	COMDAT ??$_Allocate@D@std@@YAPADIPAD@Z
_TEXT	SEGMENT PARA USE32 PUBLIC 'CODE'
_TEXT	ENDS
;	COMDAT ??_G?$numpunct@_W@std@@MAEPAXI@Z
_TEXT	SEGMENT PARA USE32 PUBLIC 'CODE'
_TEXT	ENDS
;	COMDAT ??_R4?$numpunct@_W@std@@6B@
rdata$r	SEGMENT DWORD USE32 PUBLIC 'CONST'
rdata$r	ENDS
;	COMDAT ??_G?$numpunct@D@std@@MAEPAXI@Z
_TEXT	SEGMENT PARA USE32 PUBLIC 'CODE'
_TEXT	ENDS
;	COMDAT ??_R4?$numpunct@D@std@@6B@
rdata$r	SEGMENT DWORD USE32 PUBLIC 'CONST'
rdata$r	ENDS
;	COMDAT ?_Psave@?$_Facetptr@V?$numpunct@_W@std@@@std@@2PBVfacet@locale@2@B
_DATA	SEGMENT DWORD USE32 PUBLIC 'DATA'
_DATA	ENDS
;	COMDAT ?_Psave@?$_Facetptr@V?$numpunct@D@std@@@std@@2PBVfacet@locale@2@B
_DATA	SEGMENT DWORD USE32 PUBLIC 'DATA'
_DATA	ENDS
;	COMDAT ?Unlock@CComCriticalSection@ATL@@QAEJXZ
_TEXT	SEGMENT PARA USE32 PUBLIC 'CODE'
_TEXT	ENDS
;	COMDAT ?_Psave@?$_Facetptr@V?$ctype@_W@std@@@std@@2PBVfacet@locale@2@B
_DATA	SEGMENT DWORD USE32 PUBLIC 'DATA'
_DATA	ENDS
;	COMDAT ?_Psave@?$_Facetptr@V?$ctype@D@std@@@std@@2PBVfacet@locale@2@B
_DATA	SEGMENT DWORD USE32 PUBLIC 'DATA'
_DATA	ENDS
;	COMDAT ??$_Maklocchr@_W@std@@YA_WDPA_WABU_Cvtvec@@@Z
_TEXT	SEGMENT PARA USE32 PUBLIC 'CODE'
_TEXT	ENDS
;	COMDAT ??$_Maklocstr@_W@std@@YAPA_WPBDPA_WABU_Cvtvec@@@Z
_TEXT	SEGMENT PARA USE32 PUBLIC 'CODE'
_TEXT	ENDS
;	COMDAT ??$_Maklocchr@D@std@@YADDPADABU_Cvtvec@@@Z
_TEXT	SEGMENT PARA USE32 PUBLIC 'CODE'
_TEXT	ENDS
;	COMDAT ??_C@_04LOAJBDKD@true?$AA@
CONST	SEGMENT DWORD USE32 PUBLIC 'CONST'
CONST	ENDS
;	COMDAT ??_C@_05LAPONLG@false?$AA@
CONST	SEGMENT DWORD USE32 PUBLIC 'CONST'
CONST	ENDS
;	COMDAT _wmemcpy
_TEXT	SEGMENT PARA USE32 PUBLIC 'CODE'
_TEXT	ENDS
;	COMDAT ?max_size@?$allocator@_W@std@@QBEIXZ
_TEXT	SEGMENT PARA USE32 PUBLIC 'CODE'
_TEXT	ENDS
;	COMDAT ?allocate@?$allocator@_W@std@@QAEPA_WI@Z
_TEXT	SEGMENT PARA USE32 PUBLIC 'CODE'
_TEXT	ENDS
;	COMDAT ??$_Allocate@_W@std@@YAPA_WIPA_W@Z
_TEXT	SEGMENT PARA USE32 PUBLIC 'CODE'
_TEXT	ENDS
;	COMDAT ?data@CStringData@ATL@@QAEPAXXZ
_TEXT	SEGMENT PARA USE32 PUBLIC 'CODE'
_TEXT	ENDS
;	COMDAT ?AtlThrow@ATL@@YGXJ@Z
_TEXT	SEGMENT PARA USE32 PUBLIC 'CODE'
_TEXT	ENDS
;	COMDAT ??_C@_01GFHCPBMG@C?$AA@
CONST	SEGMENT DWORD USE32 PUBLIC 'CONST'
CONST	ENDS
;	COMDAT ?Release@CStringData@ATL@@QAEXXZ
_TEXT	SEGMENT PARA USE32 PUBLIC 'CODE'
_TEXT	ENDS
;	COMDAT ?_Peek@?$istreambuf_iterator@_WU?$char_traits@_W@std@@@std@@AAE_WXZ
_TEXT	SEGMENT PARA USE32 PUBLIC 'CODE'
_TEXT	ENDS
;	COMDAT ?_Peek@?$istreambuf_iterator@DU?$char_traits@D@std@@@std@@AAEDXZ
_TEXT	SEGMENT PARA USE32 PUBLIC 'CODE'
_TEXT	ENDS
;	COMDAT ??$use_facet@V?$ctype@_W@std@@@std@@YAABV?$ctype@_W@0@ABVlocale@0@@Z
_TEXT	SEGMENT PARA USE32 PUBLIC 'CODE'
_TEXT	ENDS
;	COMDAT ??_S?$ctype@_W@std@@6B@
CONST	SEGMENT DWORD USE32 PUBLIC 'CONST'
CONST	ENDS
;	COMDAT ??_R4?$ctype@_W@std@@6B@
rdata$r	SEGMENT DWORD USE32 PUBLIC 'CONST'
rdata$r	ENDS
;	COMDAT ??_R0?AV?$ctype@_W@std@@@8
_DATA	SEGMENT DWORD USE32 PUBLIC 'DATA'
_DATA	ENDS
;	COMDAT ??_R3?$ctype@_W@std@@8
rdata$r	SEGMENT DWORD USE32 PUBLIC 'CONST'
rdata$r	ENDS
;	COMDAT ??_R2?$ctype@_W@std@@8
rdata$r	SEGMENT DWORD USE32 PUBLIC 'CONST'
rdata$r	ENDS
;	COMDAT ??_R1A@?0A@A@?$ctype@_W@std@@8
rdata$r	SEGMENT DWORD USE32 PUBLIC 'CONST'
rdata$r	ENDS
;	COMDAT ??_R1A@?0A@A@ctype_base@std@@8
rdata$r	SEGMENT DWORD USE32 PUBLIC 'CONST'
rdata$r	ENDS
;	COMDAT ??_R0?AUctype_base@std@@@8
_DATA	SEGMENT DWORD USE32 PUBLIC 'DATA'
_DATA	ENDS
;	COMDAT ??_G?$ctype@_W@std@@MAEPAXI@Z
_TEXT	SEGMENT PARA USE32 PUBLIC 'CODE'
_TEXT	ENDS
;	COMDAT ??_C@_08EPJLHIJG@bad?5cast?$AA@
CONST	SEGMENT DWORD USE32 PUBLIC 'CONST'
CONST	ENDS
;	COMDAT __TI2?AVbad_cast@@
xdata$x	SEGMENT DWORD USE32 PUBLIC 'CONST'
xdata$x	ENDS
;	COMDAT __CTA2?AVbad_cast@@
xdata$x	SEGMENT DWORD USE32 PUBLIC 'CONST'
xdata$x	ENDS
;	COMDAT __CT??_R0?AVbad_cast@@@8??0bad_cast@@QAE@ABV0@@Z12
xdata$x	SEGMENT DWORD USE32 PUBLIC 'CONST'
xdata$x	ENDS
;	COMDAT ??_R0?AVbad_cast@@@8
_DATA	SEGMENT DWORD USE32 PUBLIC 'DATA'
_DATA	ENDS
;	COMDAT __CT??_R0?AVexception@@@8??0exception@@QAE@ABV0@@Z12
xdata$x	SEGMENT DWORD USE32 PUBLIC 'CONST'
xdata$x	ENDS
;	COMDAT ??_R0?AVexception@@@8
_DATA	SEGMENT DWORD USE32 PUBLIC 'DATA'
_DATA	ENDS
;	COMDAT ??$use_facet@V?$ctype@D@std@@@std@@YAABV?$ctype@D@0@ABVlocale@0@@Z
_TEXT	SEGMENT PARA USE32 PUBLIC 'CODE'
_TEXT	ENDS
;	COMDAT ??_S?$ctype@D@std@@6B@
CONST	SEGMENT DWORD USE32 PUBLIC 'CONST'
CONST	ENDS
;	COMDAT ??_R4?$ctype@D@std@@6B@
rdata$r	SEGMENT DWORD USE32 PUBLIC 'CONST'
rdata$r	ENDS
;	COMDAT ??_R0?AV?$ctype@D@std@@@8
_DATA	SEGMENT DWORD USE32 PUBLIC 'DATA'
_DATA	ENDS
;	COMDAT ??_R3?$ctype@D@std@@8
rdata$r	SEGMENT DWORD USE32 PUBLIC 'CONST'
rdata$r	ENDS
;	COMDAT ??_R2?$ctype@D@std@@8
rdata$r	SEGMENT DWORD USE32 PUBLIC 'CONST'
rdata$r	ENDS
;	COMDAT ??_R1A@?0A@A@?$ctype@D@std@@8
rdata$r	SEGMENT DWORD USE32 PUBLIC 'CONST'
rdata$r	ENDS
;	COMDAT ??_G?$ctype@D@std@@MAEPAXI@Z
_TEXT	SEGMENT PARA USE32 PUBLIC 'CODE'
_TEXT	ENDS
;	COMDAT ??_S?$numpunct@_W@std@@6B@
CONST	SEGMENT DWORD USE32 PUBLIC 'CONST'
CONST	ENDS
;	COMDAT ??_S?$numpunct@D@std@@6B@
CONST	SEGMENT DWORD USE32 PUBLIC 'CONST'
CONST	ENDS
;	COMDAT _wmemmove
_TEXT	SEGMENT PARA USE32 PUBLIC 'CODE'
_TEXT	ENDS
;	COMDAT ?deallocate@?$allocator@_W@std@@QAEXPA_WI@Z
_TEXT	SEGMENT PARA USE32 PUBLIC 'CODE'
_TEXT	ENDS
;	COMDAT ??0?$allocator@_W@std@@QAE@ABV01@@Z
_TEXT	SEGMENT PARA USE32 PUBLIC 'CODE'
_TEXT	ENDS
;	COMDAT ?IsLocked@CStringData@ATL@@QBE_NXZ
_TEXT	SEGMENT PARA USE32 PUBLIC 'CODE'
_TEXT	ENDS
;	COMDAT ?AddRef@CStringData@ATL@@QAEXXZ
_TEXT	SEGMENT PARA USE32 PUBLIC 'CODE'
_TEXT	ENDS
;	COMDAT ?OnLButtonDown@CWnd@@IAEXIVCPoint@@@Z
_TEXT	SEGMENT PARA USE32 PUBLIC 'CODE'
_TEXT	ENDS
;	COMDAT ?PostMessageA@CWnd@@QAEHIIJ@Z
_TEXT	SEGMENT PARA USE32 PUBLIC 'CODE'
_TEXT	ENDS
;	COMDAT ?IsWindowVisible@CWnd@@QBEHXZ
_TEXT	SEGMENT PARA USE32 PUBLIC 'CODE'
_TEXT	ENDS
;	COMDAT ?PtInRect@CRect@@QBEHUtagPOINT@@@Z
_TEXT	SEGMENT PARA USE32 PUBLIC 'CODE'
_TEXT	ENDS
;	COMDAT ?SetLayeredWindowAttributes@CWnd@@QAEHKEK@Z
_TEXT	SEGMENT PARA USE32 PUBLIC 'CODE'
_TEXT	ENDS
;	COMDAT ??BCRect@@QAEPAUtagRECT@@XZ
_TEXT	SEGMENT PARA USE32 PUBLIC 'CODE'
_TEXT	ENDS
;	COMDAT ?DrawTextA@CDC@@QAEHABV?$CStringT@DV?$StrTraitMFC_DLL@DV?$ChTraitsCRT@D@ATL@@@@@ATL@@PAUtagRECT@@I@Z
_TEXT	SEGMENT PARA USE32 PUBLIC 'CODE'
_TEXT	ENDS
;	COMDAT ??BCDC@@QBEPAUHDC__@@XZ
_TEXT	SEGMENT PARA USE32 PUBLIC 'CODE'
_TEXT	ENDS
;	COMDAT ??0CRect@@QAE@HHHH@Z
_TEXT	SEGMENT PARA USE32 PUBLIC 'CODE'
_TEXT	ENDS
;	COMDAT ??2CObject@@SGPAXI@Z
_TEXT	SEGMENT PARA USE32 PUBLIC 'CODE'
_TEXT	ENDS
;	COMDAT ?_messageEntries@CDialogMsg@@0QBUAFX_MSGMAP_ENTRY@@B
CONST	SEGMENT DWORD USE32 PUBLIC 'CONST'
CONST	ENDS
;	COMDAT ?messageMap@CDialogMsg@@1UAFX_MSGMAP@@B
CONST	SEGMENT DWORD USE32 PUBLIC 'CONST'
CONST	ENDS
;	COMDAT ?DoDataExchange@CWnd@@MAEXPAVCDataExchange@@@Z
_TEXT	SEGMENT PARA USE32 PUBLIC 'CODE'
_TEXT	ENDS
;	COMDAT ??3CObject@@SGXPAX@Z
_TEXT	SEGMENT PARA USE32 PUBLIC 'CODE'
_TEXT	ENDS
;	COMDAT ?CreateFontA@CFont@@QAEHHHHHHEEEEEEEEPBD@Z
_TEXT	SEGMENT PARA USE32 PUBLIC 'CODE'
_TEXT	ENDS
;	COMDAT ?GetDefaultManager@?$StrTraitMFC_DLL@DV?$ChTraitsCRT@D@ATL@@@@SAPAUIAtlStringMgr@ATL@@XZ
_TEXT	SEGMENT PARA USE32 PUBLIC 'CODE'
_TEXT	ENDS
;	COMDAT ?FindStringResourceInstance@?$StrTraitMFC_DLL@DV?$ChTraitsCRT@D@ATL@@@@SAPAUHINSTANCE__@@I@Z
_TEXT	SEGMENT PARA USE32 PUBLIC 'CODE'
_TEXT	ENDS
;	COMDAT ?AtlGetStringResourceImage@ATL@@YAPBUATLSTRINGRESOURCEIMAGE@1@PAUHINSTANCE__@@I@Z
_TEXT	SEGMENT PARA USE32 PUBLIC 'CODE'
_TEXT	ENDS
;	COMDAT ?_AtlGetStringResourceImage@ATL@@YAPBUATLSTRINGRESOURCEIMAGE@1@PAUHINSTANCE__@@PAUHRSRC__@@I@Z
_TEXT	SEGMENT PARA USE32 PUBLIC 'CODE'
_TEXT	ENDS
;	COMDAT ?GetBaseTypeLength@?$ChTraitsCRT@D@ATL@@SAHPB_WH@Z
_TEXT	SEGMENT PARA USE32 PUBLIC 'CODE'
_TEXT	ENDS
;	COMDAT ?_AtlGetConversionACP@ATL@@YGIXZ
_TEXT	SEGMENT PARA USE32 PUBLIC 'CODE'
_TEXT	ENDS
;	COMDAT ?g_pfnGetThreadACP@ATL@@3P6GIXZA
_DATA	SEGMENT DWORD USE32 PUBLIC 'DATA'
_DATA	ENDS
;	COMDAT ?_AtlGetThreadACPThunk@ATL@@YGIXZ
_TEXT	SEGMENT PARA USE32 PUBLIC 'CODE'
_TEXT	ENDS
;	COMDAT ?_AtlGetThreadACPReal@ATL@@YGIXZ
_TEXT	SEGMENT PARA USE32 PUBLIC 'CODE'
_TEXT	ENDS
;	COMDAT ?_AtlGetThreadACPFake@ATL@@YGIXZ
_TEXT	SEGMENT PARA USE32 PUBLIC 'CODE'
_TEXT	ENDS
;	COMDAT ?InterlockedExchangePointer@@YGPAXPAPAXPAX@Z
_TEXT	SEGMENT PARA USE32 PUBLIC 'CODE'
_TEXT	ENDS
;	COMDAT ?IsShared@CStringData@ATL@@QBE_NXZ
_TEXT	SEGMENT PARA USE32 PUBLIC 'CODE'
_TEXT	ENDS
;	COMDAT ?ConvertToBaseType@?$ChTraitsCRT@D@ATL@@SAXPADHPB_WH@Z
_TEXT	SEGMENT PARA USE32 PUBLIC 'CODE'
_TEXT	ENDS
;	COMDAT ??1CFont@@UAE@XZ
_TEXT	SEGMENT PARA USE32 PUBLIC 'CODE'
_TEXT	ENDS
;	COMDAT ??_7CFont@@6B@
CONST	SEGMENT DWORD USE32 PUBLIC 'CONST'
CONST	ENDS
;	COMDAT ??_R4CFont@@6B@
rdata$r	SEGMENT DWORD USE32 PUBLIC 'CONST'
rdata$r	ENDS
;	COMDAT ??_R0?AVCFont@@@8
_DATA	SEGMENT DWORD USE32 PUBLIC 'DATA'
_DATA	ENDS
;	COMDAT ??_R3CFont@@8
rdata$r	SEGMENT DWORD USE32 PUBLIC 'CONST'
rdata$r	ENDS
;	COMDAT ??_R2CFont@@8
rdata$r	SEGMENT DWORD USE32 PUBLIC 'CONST'
rdata$r	ENDS
;	COMDAT ??_R1A@?0A@A@CFont@@8
rdata$r	SEGMENT DWORD USE32 PUBLIC 'CONST'
rdata$r	ENDS
;	COMDAT ??_R1A@?0A@A@CGdiObject@@8
rdata$r	SEGMENT DWORD USE32 PUBLIC 'CONST'
rdata$r	ENDS
;	COMDAT ??_R0?AVCGdiObject@@@8
_DATA	SEGMENT DWORD USE32 PUBLIC 'DATA'
_DATA	ENDS
;	COMDAT ??_GCFont@@UAEPAXI@Z
_TEXT	SEGMENT PARA USE32 PUBLIC 'CODE'
_TEXT	ENDS
;	COMDAT ??1CGdiObject@@UAE@XZ
_TEXT	SEGMENT PARA USE32 PUBLIC 'CODE'
_TEXT	ENDS
;	COMDAT ??_7CGdiObject@@6B@
CONST	SEGMENT DWORD USE32 PUBLIC 'CONST'
CONST	ENDS
;	COMDAT ??_R4CGdiObject@@6B@
rdata$r	SEGMENT DWORD USE32 PUBLIC 'CONST'
rdata$r	ENDS
;	COMDAT ??_R3CGdiObject@@8
rdata$r	SEGMENT DWORD USE32 PUBLIC 'CONST'
rdata$r	ENDS
;	COMDAT ??_R2CGdiObject@@8
rdata$r	SEGMENT DWORD USE32 PUBLIC 'CONST'
rdata$r	ENDS
;	COMDAT ??_GCGdiObject@@UAEPAXI@Z
_TEXT	SEGMENT PARA USE32 PUBLIC 'CODE'
_TEXT	ENDS
;	COMDAT ??1CObject@@UAE@XZ
_TEXT	SEGMENT PARA USE32 PUBLIC 'CODE'
_TEXT	ENDS
;	COMDAT ??0CFont@@QAE@XZ
_TEXT	SEGMENT PARA USE32 PUBLIC 'CODE'
_TEXT	ENDS
;	COMDAT ??0CGdiObject@@QAE@XZ
_TEXT	SEGMENT PARA USE32 PUBLIC 'CODE'
_TEXT	ENDS
;	COMDAT ??0CObject@@IAE@XZ
_TEXT	SEGMENT PARA USE32 PUBLIC 'CODE'
_TEXT	ENDS
;	COMDAT ??0CRect@@QAE@XZ
_TEXT	SEGMENT PARA USE32 PUBLIC 'CODE'
_TEXT	ENDS
;	COMDAT ??_7CDialogMsg@@6B@
CONST	SEGMENT DWORD USE32 PUBLIC 'CONST'
CONST	ENDS
;	COMDAT ?classCDialogMsg@CDialogMsg@@2UCRuntimeClass@@B
CONST	SEGMENT DWORD USE32 PUBLIC 'CONST'
CONST	ENDS
;	COMDAT ??_7IData@@6B@
CONST	SEGMENT DWORD USE32 PUBLIC 'CONST'
CONST	ENDS
sxdata	SEGMENT DWORD USE32 'SXDATA'
sxdata	ENDS
FLAT	GROUP _DATA, CONST, _BSS
	ASSUME	CS: FLAT, DS: FLAT, SS: FLAT
endif

INCLUDELIB MSVCRT
INCLUDELIB OLDNAMES

PUBLIC	?_messageEntries@CDialogMsg@@0QBUAFX_MSGMAP_ENTRY@@B ; CDialogMsg::_messageEntries
PUBLIC	?messageMap@CDialogMsg@@1UAFX_MSGMAP@@B		; CDialogMsg::messageMap
PUBLIC	?OnBnClickedBtnClose@CDialogMsg@@QAEXXZ		; CDialogMsg::OnBnClickedBtnClose
PUBLIC	?OnBnClickedBtn1@CDialogMsg@@QAEXXZ		; CDialogMsg::OnBnClickedBtn1
PUBLIC	?OnBnClickedBtn2@CDialogMsg@@QAEXXZ		; CDialogMsg::OnBnClickedBtn2
PUBLIC	?OnBnClickedCheck@CDialogMsg@@QAEXXZ		; CDialogMsg::OnBnClickedCheck
PUBLIC	?OnBnClickedUnCheck@CDialogMsg@@QAEXXZ		; CDialogMsg::OnBnClickedUnCheck
PUBLIC	?OnPaint@CDialogMsg@@QAEXXZ			; CDialogMsg::OnPaint
PUBLIC	?OnLButtonDown@CDialogMsg@@QAEXIVCPoint@@@Z	; CDialogMsg::OnLButtonDown
PUBLIC	??_9@$BBFE@AE					; `vcall'
PUBLIC	??_9@$BBFI@AE					; `vcall'
PUBLIC	?g_pfnGetThreadACP@ATL@@3P6GIXZA		; ATL::g_pfnGetThreadACP
PUBLIC	?_AtlGetThreadACPThunk@ATL@@YGIXZ		; ATL::_AtlGetThreadACPThunk
PUBLIC	?classCDialogMsg@CDialogMsg@@2UCRuntimeClass@@B	; CDialogMsg::classCDialogMsg
EXTRN	?GetThisClass@CDialog@@SGPAUCRuntimeClass@@XZ:NEAR ; CDialog::GetThisClass
EXTRN	?GetThisMessageMap@CDialog@@KGPBUAFX_MSGMAP@@XZ:NEAR ; CDialog::GetThisMessageMap
CONST	SEGMENT
$SG197730 DB	'CDialogMsg', 00H
CONST	ENDS
;	COMDAT ?classCDialogMsg@CDialogMsg@@2UCRuntimeClass@@B
CONST	SEGMENT
?classCDialogMsg@CDialogMsg@@2UCRuntimeClass@@B DD FLAT:$SG197730 ; CDialogMsg::classCDialogMsg
	DD	068cH
	DD	0ffffH
	DD	00H
	DD	FLAT:?GetThisClass@CDialog@@SGPAUCRuntimeClass@@XZ
	DD	00H
	DD	00H
CONST	ENDS
CONST	SEGMENT
$SG197743 DB	00H
$SG197745 DB	0ccH, 0e1H, 0caH, 0beH, 00H
	ORG $+3
$SG197747 DB	0c8H, 0b7H, ' ', 0b6H, 0a8H, 00H
	ORG $+2
$SG197749 DB	0c8H, 0a1H, ' ', 0cfH, 0fbH, 00H
	ORG $+2
$SG197750 DB	0cbH, 0ceH, 0ccH, 0e5H, 00H
	ORG $+3
$SG197751 DB	0cbH, 0ceH, 0ccH, 0e5H, 00H
CONST	ENDS
;	COMDAT ?_messageEntries@CDialogMsg@@0QBUAFX_MSGMAP_ENTRY@@B
CONST	SEGMENT
?_messageEntries@CDialogMsg@@0QBUAFX_MSGMAP_ENTRY@@B DD 0111H ; CDialogMsg::_messageEntries
	DD	00H
	DD	0aH
	DD	0aH
	DD	035H
	DD	FLAT:?OnBnClickedBtnClose@CDialogMsg@@QAEXXZ
	DD	0111H
	DD	00H
	DD	014H
	DD	014H
	DD	035H
	DD	FLAT:?OnBnClickedBtn1@CDialogMsg@@QAEXXZ
	DD	0111H
	DD	00H
	DD	01eH
	DD	01eH
	DD	035H
	DD	FLAT:?OnBnClickedBtn2@CDialogMsg@@QAEXXZ
	DD	0111H
	DD	00H
	DD	028H
	DD	028H
	DD	035H
	DD	FLAT:?OnBnClickedCheck@CDialogMsg@@QAEXXZ
	DD	0111H
	DD	00H
	DD	032H
	DD	032H
	DD	035H
	DD	FLAT:?OnBnClickedUnCheck@CDialogMsg@@QAEXXZ
	DD	0111H
	DD	00H
	DD	01H
	DD	01H
	DD	035H
	DD	FLAT:??_9@$BBFE@AE
	DD	0111H
	DD	00H
	DD	02H
	DD	02H
	DD	035H
	DD	FLAT:??_9@$BBFI@AE
	DD	0fH
	DD	00H
	DD	00H
	DD	00H
	DD	010H
	DD	FLAT:?OnPaint@CDialogMsg@@QAEXXZ
	DD	0201H
	DD	00H
	DD	00H
	DD	00H
	DD	032H
	DD	FLAT:?OnLButtonDown@CDialogMsg@@QAEXIVCPoint@@@Z
	DD	00H
	DD	00H
	DD	00H
	DD	00H
	DD	00H
	DD	00H
CONST	ENDS
;	COMDAT ?messageMap@CDialogMsg@@1UAFX_MSGMAP@@B
CONST	SEGMENT
?messageMap@CDialogMsg@@1UAFX_MSGMAP@@B DD FLAT:?GetThisMessageMap@CDialog@@KGPBUAFX_MSGMAP@@XZ ; CDialogMsg::messageMap
	DD	FLAT:?_messageEntries@CDialogMsg@@0QBUAFX_MSGMAP_ENTRY@@B
CONST	ENDS
CONST	SEGMENT
	ORG $+3
$SG197865 DB	'MSGDialogLeftTop', 00H
	ORG $+3
$SG197867 DB	'MSGDialogRightTop', 00H
	ORG $+2
$SG197869 DB	'MSGDialogMidTop', 00H
$SG197871 DB	'MSGDialogMid', 00H
	ORG $+3
$SG197873 DB	'MSGDialogMidLeft', 00H
	ORG $+3
$SG197875 DB	'MSGDialogMidRight', 00H
	ORG $+2
$SG197877 DB	'MSGDialogLeftBottom', 00H
$SG197879 DB	'MSGDialogRightBottom', 00H
	ORG $+3
$SG197881 DB	'MSGDialogMidBottom', 00H
	ORG $+1
$SG197901 DB	0dH, 0aH, 00H
	ORG $+1
$SG197907 DB	0dH, 0aH, 00H
	ORG $+1
$SG197928 DB	'MSGDialogCloseOver', 00H
	ORG $+1
$SG197929 DB	'MSGDialogCloseDown', 00H
	ORG $+1
$SG197930 DB	'MSGDialogCloseNormal', 00H
	ORG $+3
$SG197936 DB	'MSGDialogBtn1Over', 00H
	ORG $+2
$SG197937 DB	'MSGDialogBtn1Down', 00H
	ORG $+2
$SG197938 DB	'MSGDialogBtn1Normal', 00H
$SG197946 DB	'MSGDialogBtn1Over', 00H
	ORG $+2
$SG197947 DB	'MSGDialogBtn1Down', 00H
	ORG $+2
$SG197948 DB	'MSGDialogBtn1Normal', 00H
$SG197949 DB	'MSGDialogBtn2Over', 00H
	ORG $+2
$SG197950 DB	'MSGDialogBtn2Down', 00H
	ORG $+2
$SG197951 DB	'MSGDialogBtn2Normal', 00H
$SG197955 DB	'msgminorexitboxchkOver', 00H
	ORG $+1
$SG197956 DB	'msgminorexitboxchkNormal', 00H
	ORG $+3
$SG197957 DB	'msgminorexitboxchkNormal', 00H
	ORG $+3
$SG197958 DB	'msgminorexitboxuchkOver', 00H
$SG197959 DB	'msgminorexitboxuchkNormal', 00H
	ORG $+2
$SG197960 DB	'msgminorexitboxuchkNormal', 00H
CONST	ENDS
;	COMDAT ?g_pfnGetThreadACP@ATL@@3P6GIXZA
_DATA	SEGMENT
?g_pfnGetThreadACP@ATL@@3P6GIXZA DD FLAT:?_AtlGetThreadACPThunk@ATL@@YGIXZ ; ATL::g_pfnGetThreadACP
_DATA	ENDS
PUBLIC	?GetThisClass@CDialogMsg@@SGPAUCRuntimeClass@@XZ ; CDialogMsg::GetThisClass
; Function compile flags: /Odt
; File d:\boxgit\playbox\playbox\dev\prj\playbox\src\gui\commoncontrol\dialogmsg.cpp
_TEXT	SEGMENT
?GetThisClass@CDialogMsg@@SGPAUCRuntimeClass@@XZ PROC NEAR ; CDialogMsg::GetThisClass

; 15   : IMPLEMENT_DYNAMIC(CDialogMsg, CDialog)

  00000	55		 push	 ebp
  00001	8b ec		 mov	 ebp, esp
  00003	b8 00 00 00 00	 mov	 eax, OFFSET FLAT:?classCDialogMsg@CDialogMsg@@2UCRuntimeClass@@B ; CDialogMsg::classCDialogMsg
  00008	5d		 pop	 ebp
  00009	c3		 ret	 0
?GetThisClass@CDialogMsg@@SGPAUCRuntimeClass@@XZ ENDP	; CDialogMsg::GetThisClass
_TEXT	ENDS
PUBLIC	?GetRuntimeClass@CDialogMsg@@UBEPAUCRuntimeClass@@XZ ; CDialogMsg::GetRuntimeClass
; Function compile flags: /Odt
_TEXT	SEGMENT
_this$ = -4						; size = 4
?GetRuntimeClass@CDialogMsg@@UBEPAUCRuntimeClass@@XZ PROC NEAR ; CDialogMsg::GetRuntimeClass
; _this$ = ecx

; 15   : IMPLEMENT_DYNAMIC(CDialogMsg, CDialog)

  00010	55		 push	 ebp
  00011	8b ec		 mov	 ebp, esp
  00013	51		 push	 ecx
  00014	89 4d fc	 mov	 DWORD PTR _this$[ebp], ecx
  00017	b8 00 00 00 00	 mov	 eax, OFFSET FLAT:?classCDialogMsg@CDialogMsg@@2UCRuntimeClass@@B ; CDialogMsg::classCDialogMsg
  0001c	8b e5		 mov	 esp, ebp
  0001e	5d		 pop	 ebp
  0001f	c3		 ret	 0
?GetRuntimeClass@CDialogMsg@@UBEPAUCRuntimeClass@@XZ ENDP ; CDialogMsg::GetRuntimeClass
_TEXT	ENDS
PUBLIC	?GetMessageMap@CDialogMsg@@MBEPBUAFX_MSGMAP@@XZ	; CDialogMsg::GetMessageMap
PUBLIC	?SetTitle@CDialogMsg@@QAEXABV?$CStringT@DV?$StrTraitMFC_DLL@DV?$ChTraitsCRT@D@ATL@@@@@ATL@@@Z ; CDialogMsg::SetTitle
PUBLIC	?SetSize@CDialogMsg@@QAEXHH@Z			; CDialogMsg::SetSize
PUBLIC	?SetBtnCount@CDialogMsg@@QAEXH@Z		; CDialogMsg::SetBtnCount
PUBLIC	?SetBtnText@CDialogMsg@@QAEXHABV?$CStringT@DV?$StrTraitMFC_DLL@DV?$ChTraitsCRT@D@ATL@@@@@ATL@@@Z ; CDialogMsg::SetBtnText
PUBLIC	?OnClickBtn1@CDialogMsg@@UAEXXZ			; CDialogMsg::OnClickBtn1
PUBLIC	?OnClickBtn2@CDialogMsg@@UAEXXZ			; CDialogMsg::OnClickBtn2
PUBLIC	?OnClickClose@CDialogMsg@@UAEXXZ		; CDialogMsg::OnClickClose
PUBLIC	?CheckBox_Check@CDialogMsg@@UAEXXZ		; CDialogMsg::CheckBox_Check
PUBLIC	?PaintSomething@CDialogMsg@@UAEXPAVCDC@@@Z	; CDialogMsg::PaintSomething
PUBLIC	?CheckBox_Checked@CDialogMsg@@UAEXXZ		; CDialogMsg::CheckBox_Checked
PUBLIC	?CheckBox_UnChecked@CDialogMsg@@UAEXXZ		; CDialogMsg::CheckBox_UnChecked
PUBLIC	?OnOK@CDialogMsg@@MAEXXZ			; CDialogMsg::OnOK
PUBLIC	?OnCancel@CDialogMsg@@MAEXXZ			; CDialogMsg::OnCancel
PUBLIC	?OnInitDialog@CDialogMsg@@UAEHXZ		; CDialogMsg::OnInitDialog
PUBLIC	??_7CDialogMsg@@6B@				; CDialogMsg::`vftable'
PUBLIC	??_GCDialogMsg@@UAEPAXI@Z			; CDialogMsg::`scalar deleting destructor'
PUBLIC	??0CRect@@QAE@XZ				; CRect::CRect
PUBLIC	?Create@CDialog@@UAEHIPAVCWnd@@@Z		; CDialog::Create
PUBLIC	??_R1A@?0A@A@CObject@@8				; CObject::`RTTI Base Class Descriptor at (0,-1,0,0)'
PUBLIC	??_R0?AVCObject@@@8				; CObject `RTTI Type Descriptor'
PUBLIC	??_R1A@?0A@A@CWnd@@8				; CWnd::`RTTI Base Class Descriptor at (0,-1,0,0)'
PUBLIC	??_R0?AVCWnd@@@8				; CWnd `RTTI Type Descriptor'
PUBLIC	??_R1A@?0A@A@CCmdTarget@@8			; CCmdTarget::`RTTI Base Class Descriptor at (0,-1,0,0)'
PUBLIC	??_R0?AVCCmdTarget@@@8				; CCmdTarget `RTTI Type Descriptor'
PUBLIC	??_R1A@?0A@A@CDialog@@8				; CDialog::`RTTI Base Class Descriptor at (0,-1,0,0)'
PUBLIC	??_R0?AVCDialog@@@8				; CDialog `RTTI Type Descriptor'
PUBLIC	?Serialize@CObject@@UAEXAAVCArchive@@@Z		; CObject::Serialize
PUBLIC	?AssertValid@CObject@@UBEXXZ			; CObject::AssertValid
PUBLIC	?Dump@CObject@@UBEXAAVCDumpContext@@@Z		; CObject::Dump
PUBLIC	??_R4CDialogMsg@@6B@				; CDialogMsg::`RTTI Complete Object Locator'
PUBLIC	??_R0?AVCDialogMsg@@@8				; CDialogMsg `RTTI Type Descriptor'
PUBLIC	??_R3CDialogMsg@@8				; CDialogMsg::`RTTI Class Hierarchy Descriptor'
PUBLIC	??_R2CDialogMsg@@8				; CDialogMsg::`RTTI Base Class Array'
PUBLIC	??_R1A@?0A@A@CDialogMsg@@8			; CDialogMsg::`RTTI Base Class Descriptor at (0,-1,0,0)'
PUBLIC	??0CFont@@QAE@XZ				; CFont::CFont
PUBLIC	?CreateFontA@CFont@@QAEHHHHHHEEEEEEEEPBD@Z	; CFont::CreateFontA
PUBLIC	??1CFont@@UAE@XZ				; CFont::~CFont
PUBLIC	?BeginModalState@CWnd@@UAEXXZ			; CWnd::BeginModalState
PUBLIC	?EndModalState@CWnd@@UAEXXZ			; CWnd::EndModalState
PUBLIC	??0CDialogMsg@@QAE@PAVCWnd@@@Z			; CDialogMsg::CDialogMsg
PUBLIC	?DoDataExchange@CDialogMsg@@MAEXPAVCDataExchange@@@Z ; CDialogMsg::DoDataExchange
EXTRN	?CreateControlContainer@CWnd@@MAEHPAPAVCOleControlContainer@@@Z:NEAR ; CWnd::CreateControlContainer
EXTRN	?CreateControlSite@CWnd@@MAEHPAVCOleControlContainer@@PAPAVCOleControlSite@@IABU_GUID@@@Z:NEAR ; CWnd::CreateControlSite
EXTRN	??_ECDialogMsg@@UAEPAXI@Z:NEAR			; CDialogMsg::`vector deleting destructor'
EXTRN	?Create@CDialog@@UAEHPBDPAVCWnd@@@Z:NEAR	; CDialog::Create
EXTRN	?CreateIndirect@CDialog@@UAEHPBUDLGTEMPLATE@@PAVCWnd@@PAX@Z:NEAR ; CDialog::CreateIndirect
EXTRN	?CreateIndirect@CDialog@@UAEHPAXPAVCWnd@@@Z:NEAR ; CDialog::CreateIndirect
EXTRN	?OnToolHitTest@CWnd@@UBEHVCPoint@@PAUtagTOOLINFOA@@@Z:NEAR ; CWnd::OnToolHitTest
EXTRN	??0CDialog@@QAE@IPAVCWnd@@@Z:NEAR		; CDialog::CDialog
EXTRN	?DoModal@CDialog@@UAEHXZ:NEAR			; CDialog::DoModal
EXTRN	?OnSetFont@CDialog@@UAEXPAVCFont@@@Z:NEAR	; CDialog::OnSetFont
EXTRN	??1CDialog@@UAE@XZ:NEAR				; CDialog::~CDialog
EXTRN	?PreTranslateMessage@CDialog@@UAEHPAUtagMSG@@@Z:NEAR ; CDialog::PreTranslateMessage
EXTRN	?OnCmdMsg@CDialog@@UAEHIHPAXPAUAFX_CMDHANDLERINFO@@@Z:NEAR ; CDialog::OnCmdMsg
EXTRN	?CheckAutoCenter@CDialog@@UAEHXZ:NEAR		; CDialog::CheckAutoCenter
EXTRN	?SetOccDialogInfo@CDialog@@MAEHPAU_AFX_OCC_DIALOG_INFO@@@Z:NEAR ; CDialog::SetOccDialogInfo
EXTRN	?PreInitDialog@CDialog@@MAEXXZ:NEAR		; CDialog::PreInitDialog
EXTRN	__imp_??0?$CStringT@DV?$StrTraitMFC_DLL@DV?$ChTraitsCRT@D@ATL@@@@@ATL@@QAE@XZ:NEAR
EXTRN	__imp_??0?$CStringT@DV?$StrTraitMFC_DLL@DV?$ChTraitsCRT@D@ATL@@@@@ATL@@QAE@PBD@Z:NEAR
EXTRN	?GetScrollBarCtrl@CWnd@@UBEPAVCScrollBar@@H@Z:NEAR ; CWnd::GetScrollBarCtrl
EXTRN	__imp_??1?$CStringT@DV?$StrTraitMFC_DLL@DV?$ChTraitsCRT@D@ATL@@@@@ATL@@QAE@XZ:NEAR
EXTRN	__imp_??4?$CStringT@DV?$StrTraitMFC_DLL@DV?$ChTraitsCRT@D@ATL@@@@@ATL@@QAEAAV01@PBD@Z:NEAR
EXTRN	?WinHelpA@CWnd@@UAEXKI@Z:NEAR			; CWnd::WinHelpA
EXTRN	?HtmlHelpA@CWnd@@UAEXKI@Z:NEAR			; CWnd::HtmlHelpA
EXTRN	?WinHelpInternal@CWnd@@UAEXKI@Z:NEAR		; CWnd::WinHelpInternal
EXTRN	?ContinueModal@CWnd@@UAEHXZ:NEAR		; CWnd::ContinueModal
EXTRN	?EndModalLoop@CWnd@@UAEXH@Z:NEAR		; CWnd::EndModalLoop
EXTRN	?GetInterfaceMap@CWnd@@MBEPBUAFX_INTERFACEMAP@@XZ:NEAR ; CWnd::GetInterfaceMap
EXTRN	?EnsureStdObj@CWnd@@UAEJXZ:NEAR			; CWnd::EnsureStdObj
EXTRN	?get_accParent@CWnd@@UAEJPAPAUIDispatch@@@Z:NEAR ; CWnd::get_accParent
EXTRN	?get_accChildCount@CWnd@@UAEJPAJ@Z:NEAR		; CWnd::get_accChildCount
EXTRN	?get_accChild@CWnd@@UAEJUtagVARIANT@@PAPAUIDispatch@@@Z:NEAR ; CWnd::get_accChild
EXTRN	?IsInvokeAllowed@CCmdTarget@@UAEHJ@Z:NEAR	; CCmdTarget::IsInvokeAllowed
EXTRN	?get_accName@CWnd@@UAEJUtagVARIANT@@PAPA_W@Z:NEAR ; CWnd::get_accName
EXTRN	?get_accValue@CWnd@@UAEJUtagVARIANT@@PAPA_W@Z:NEAR ; CWnd::get_accValue
EXTRN	?get_accDescription@CWnd@@UAEJUtagVARIANT@@PAPA_W@Z:NEAR ; CWnd::get_accDescription
EXTRN	?GetDispatchIID@CCmdTarget@@UAEHPAU_GUID@@@Z:NEAR ; CCmdTarget::GetDispatchIID
EXTRN	?GetTypeInfoCount@CCmdTarget@@UAEIXZ:NEAR	; CCmdTarget::GetTypeInfoCount
EXTRN	?GetTypeLibCache@CCmdTarget@@UAEPAVCTypeLibCache@@XZ:NEAR ; CCmdTarget::GetTypeLibCache
EXTRN	?get_accRole@CWnd@@UAEJUtagVARIANT@@PAU2@@Z:NEAR ; CWnd::get_accRole
EXTRN	?GetTypeLib@CCmdTarget@@UAEJKPAPAUITypeLib@@@Z:NEAR ; CCmdTarget::GetTypeLib
EXTRN	?get_accState@CWnd@@UAEJUtagVARIANT@@PAU2@@Z:NEAR ; CWnd::get_accState
EXTRN	?get_accHelp@CWnd@@UAEJUtagVARIANT@@PAPA_W@Z:NEAR ; CWnd::get_accHelp
EXTRN	?get_accHelpTopic@CWnd@@UAEJPAPA_WUtagVARIANT@@PAJ@Z:NEAR ; CWnd::get_accHelpTopic
EXTRN	?get_accKeyboardShortcut@CWnd@@UAEJUtagVARIANT@@PAPA_W@Z:NEAR ; CWnd::get_accKeyboardShortcut
EXTRN	?get_accFocus@CWnd@@UAEJPAUtagVARIANT@@@Z:NEAR	; CWnd::get_accFocus
EXTRN	?get_accSelection@CWnd@@UAEJPAUtagVARIANT@@@Z:NEAR ; CWnd::get_accSelection
EXTRN	?get_accDefaultAction@CWnd@@UAEJUtagVARIANT@@PAPA_W@Z:NEAR ; CWnd::get_accDefaultAction
EXTRN	?GetCommandMap@CCmdTarget@@MBEPBUAFX_OLECMDMAP@@XZ:NEAR ; CCmdTarget::GetCommandMap
EXTRN	?accSelect@CWnd@@UAEJJUtagVARIANT@@@Z:NEAR	; CWnd::accSelect
EXTRN	?accLocation@CWnd@@UAEJPAJ000UtagVARIANT@@@Z:NEAR ; CWnd::accLocation
EXTRN	?GetDispatchMap@CCmdTarget@@MBEPBUAFX_DISPMAP@@XZ:NEAR ; CCmdTarget::GetDispatchMap
EXTRN	?accNavigate@CWnd@@UAEJJUtagVARIANT@@PAU2@@Z:NEAR ; CWnd::accNavigate
EXTRN	?accHitTest@CWnd@@UAEJJJPAUtagVARIANT@@@Z:NEAR	; CWnd::accHitTest
EXTRN	?GetConnectionMap@CCmdTarget@@MBEPBUAFX_CONNECTIONMAP@@XZ:NEAR ; CCmdTarget::GetConnectionMap
EXTRN	?accDoDefaultAction@CWnd@@UAEJUtagVARIANT@@@Z:NEAR ; CWnd::accDoDefaultAction
EXTRN	?put_accName@CWnd@@UAEJUtagVARIANT@@PA_W@Z:NEAR	; CWnd::put_accName
EXTRN	?put_accValue@CWnd@@UAEJUtagVARIANT@@PA_W@Z:NEAR ; CWnd::put_accValue
EXTRN	?SetProxy@CWnd@@UAEJPAUIAccessibleProxy@@@Z:NEAR ; CWnd::SetProxy
EXTRN	?CreateAccessibleProxy@CWnd@@UAEJIJPAJ@Z:NEAR	; CWnd::CreateAccessibleProxy
EXTRN	?GetEventSinkMap@CCmdTarget@@MBEPBUAFX_EVENTSINKMAP@@XZ:NEAR ; CCmdTarget::GetEventSinkMap
EXTRN	?OnCreateAggregates@CCmdTarget@@UAEHXZ:NEAR	; CCmdTarget::OnCreateAggregates
EXTRN	?OnCommand@CWnd@@MAEHIJ@Z:NEAR			; CWnd::OnCommand
EXTRN	?GetInterfaceHook@CCmdTarget@@UAEPAUIUnknown@@PBX@Z:NEAR ; CCmdTarget::GetInterfaceHook
EXTRN	?OnNotify@CWnd@@MAEHIJPAJ@Z:NEAR		; CWnd::OnNotify
EXTRN	?GetExtraConnectionPoints@CCmdTarget@@MAEHPAVCPtrArray@@@Z:NEAR ; CCmdTarget::GetExtraConnectionPoints
EXTRN	?GetConnectionHook@CCmdTarget@@MAEPAUIConnectionPoint@@ABU_GUID@@@Z:NEAR ; CCmdTarget::GetConnectionHook
EXTRN	?PreSubclassWindow@CWnd@@UAEXXZ:NEAR		; CWnd::PreSubclassWindow
EXTRN	?Create@CWnd@@UAEHPBD0KABUtagRECT@@PAV1@IPAUCCreateContext@@@Z:NEAR ; CWnd::Create
EXTRN	?CreateEx@CWnd@@UAEHKPBD0KHHHHPAUHWND__@@PAUHMENU__@@PAX@Z:NEAR ; CWnd::CreateEx
EXTRN	??0CxSkinButton@@QAE@XZ:NEAR			; CxSkinButton::CxSkinButton
EXTRN	?CreateEx@CWnd@@UAEHKPBD0KABUtagRECT@@PAV1@IPAX@Z:NEAR ; CWnd::CreateEx
EXTRN	??1CxSkinButton@@UAE@XZ:NEAR			; CxSkinButton::~CxSkinButton
EXTRN	?DestroyWindow@CWnd@@UAEHXZ:NEAR		; CWnd::DestroyWindow
EXTRN	?PreCreateWindow@CWnd@@UAEHAAUtagCREATESTRUCTA@@@Z:NEAR ; CWnd::PreCreateWindow
EXTRN	?CalcWindowRect@CWnd@@UAEXPAUtagRECT@@I@Z:NEAR	; CWnd::CalcWindowRect
EXTRN	?GetSuperWndProcAddr@CWnd@@MAEPAP6GJPAUHWND__@@IIJ@ZXZ:NEAR ; CWnd::GetSuperWndProcAddr
EXTRN	??_7type_info@@6B@:QWORD			; type_info::`vftable'
EXTRN	?OnAmbientProperty@CWnd@@UAEHPAVCOleControlSite@@JPAUtagVARIANT@@@Z:NEAR ; CWnd::OnAmbientProperty
EXTRN	?WindowProc@CWnd@@MAEJIIJ@Z:NEAR		; CWnd::WindowProc
EXTRN	?OnWndMsg@CWnd@@MAEHIIJPAJ@Z:NEAR		; CWnd::OnWndMsg
EXTRN	__except_list:DWORD
EXTRN	?DefWindowProcA@CWnd@@MAEJIIJ@Z:NEAR		; CWnd::DefWindowProcA
EXTRN	?PostNcDestroy@CWnd@@MAEXXZ:NEAR		; CWnd::PostNcDestroy
EXTRN	___CxxFrameHandler:NEAR
EXTRN	?OnChildNotify@CWnd@@MAEHIIJPAJ@Z:NEAR		; CWnd::OnChildNotify
EXTRN	?IsFrameWnd@CWnd@@UBEHXZ:NEAR			; CWnd::IsFrameWnd
EXTRN	?OnFinalRelease@CWnd@@UAEXXZ:NEAR		; CWnd::OnFinalRelease
xdata$x	SEGMENT
$T198604 DD	0ffffffffH
	DD	FLAT:$L198582
	DD	00H
	DD	FLAT:$L198583
	DD	01H
	DD	FLAT:$L198584
	DD	02H
	DD	FLAT:$L198585
	DD	03H
	DD	FLAT:$L198586
	DD	04H
	DD	FLAT:$L198587
	DD	05H
	DD	FLAT:$L198588
	DD	06H
	DD	FLAT:$L198589
	DD	07H
	DD	FLAT:$L198590
	DD	08H
	DD	FLAT:$L198591
	DD	09H
	DD	FLAT:$L198592
	DD	0aH
	DD	FLAT:$L198593
	DD	0bH
	DD	FLAT:$L198594
	DD	0cH
	DD	FLAT:$L198595
	DD	0cH
	DD	FLAT:$L198596
	DD	0cH
	DD	FLAT:$L198597
$T198601 DD	019930520H
	DD	010H
	DD	FLAT:$T198604
	DD	2 DUP(00H)
	DD	2 DUP(00H)
xdata$x	ENDS
;	COMDAT ??_7CDialogMsg@@6B@
CONST	SEGMENT
??_7CDialogMsg@@6B@ DD FLAT:??_R4CDialogMsg@@6B@	; CDialogMsg::`vftable'
	DD	FLAT:?GetRuntimeClass@CDialogMsg@@UBEPAUCRuntimeClass@@XZ
	DD	FLAT:??_ECDialogMsg@@UAEPAXI@Z
	DD	FLAT:?Serialize@CObject@@UAEXAAVCArchive@@@Z
	DD	FLAT:?AssertValid@CObject@@UBEXXZ
	DD	FLAT:?Dump@CObject@@UBEXAAVCDumpContext@@@Z
	DD	FLAT:?OnCmdMsg@CDialog@@UAEHIHPAXPAUAFX_CMDHANDLERINFO@@@Z
	DD	FLAT:?OnFinalRelease@CWnd@@UAEXXZ
	DD	FLAT:?IsInvokeAllowed@CCmdTarget@@UAEHJ@Z
	DD	FLAT:?GetDispatchIID@CCmdTarget@@UAEHPAU_GUID@@@Z
	DD	FLAT:?GetTypeInfoCount@CCmdTarget@@UAEIXZ
	DD	FLAT:?GetTypeLibCache@CCmdTarget@@UAEPAVCTypeLibCache@@XZ
	DD	FLAT:?GetTypeLib@CCmdTarget@@UAEJKPAPAUITypeLib@@@Z
	DD	FLAT:?GetMessageMap@CDialogMsg@@MBEPBUAFX_MSGMAP@@XZ
	DD	FLAT:?GetCommandMap@CCmdTarget@@MBEPBUAFX_OLECMDMAP@@XZ
	DD	FLAT:?GetDispatchMap@CCmdTarget@@MBEPBUAFX_DISPMAP@@XZ
	DD	FLAT:?GetConnectionMap@CCmdTarget@@MBEPBUAFX_CONNECTIONMAP@@XZ
	DD	FLAT:?GetInterfaceMap@CWnd@@MBEPBUAFX_INTERFACEMAP@@XZ
	DD	FLAT:?GetEventSinkMap@CCmdTarget@@MBEPBUAFX_EVENTSINKMAP@@XZ
	DD	FLAT:?OnCreateAggregates@CCmdTarget@@UAEHXZ
	DD	FLAT:?GetInterfaceHook@CCmdTarget@@UAEPAUIUnknown@@PBX@Z
	DD	FLAT:?GetExtraConnectionPoints@CCmdTarget@@MAEHPAVCPtrArray@@@Z
	DD	FLAT:?GetConnectionHook@CCmdTarget@@MAEPAUIConnectionPoint@@ABU_GUID@@@Z
	DD	FLAT:?PreSubclassWindow@CWnd@@UAEXXZ
	DD	FLAT:?Create@CWnd@@UAEHPBD0KABUtagRECT@@PAV1@IPAUCCreateContext@@@Z
	DD	FLAT:?CreateEx@CWnd@@UAEHKPBD0KABUtagRECT@@PAV1@IPAX@Z
	DD	FLAT:?CreateEx@CWnd@@UAEHKPBD0KHHHHPAUHWND__@@PAUHMENU__@@PAX@Z
	DD	FLAT:?DestroyWindow@CWnd@@UAEHXZ
	DD	FLAT:?PreCreateWindow@CWnd@@UAEHAAUtagCREATESTRUCTA@@@Z
	DD	FLAT:?CalcWindowRect@CWnd@@UAEXPAUtagRECT@@I@Z
	DD	FLAT:?OnToolHitTest@CWnd@@UBEHVCPoint@@PAUtagTOOLINFOA@@@Z
	DD	FLAT:?GetScrollBarCtrl@CWnd@@UBEPAVCScrollBar@@H@Z
	DD	FLAT:?WinHelpA@CWnd@@UAEXKI@Z
	DD	FLAT:?HtmlHelpA@CWnd@@UAEXKI@Z
	DD	FLAT:?WinHelpInternal@CWnd@@UAEXKI@Z
	DD	FLAT:?ContinueModal@CWnd@@UAEHXZ
	DD	FLAT:?EndModalLoop@CWnd@@UAEXH@Z
	DD	FLAT:?EnsureStdObj@CWnd@@UAEJXZ
	DD	FLAT:?get_accParent@CWnd@@UAEJPAPAUIDispatch@@@Z
	DD	FLAT:?get_accChildCount@CWnd@@UAEJPAJ@Z
	DD	FLAT:?get_accChild@CWnd@@UAEJUtagVARIANT@@PAPAUIDispatch@@@Z
	DD	FLAT:?get_accName@CWnd@@UAEJUtagVARIANT@@PAPA_W@Z
	DD	FLAT:?get_accValue@CWnd@@UAEJUtagVARIANT@@PAPA_W@Z
	DD	FLAT:?get_accDescription@CWnd@@UAEJUtagVARIANT@@PAPA_W@Z
	DD	FLAT:?get_accRole@CWnd@@UAEJUtagVARIANT@@PAU2@@Z
	DD	FLAT:?get_accState@CWnd@@UAEJUtagVARIANT@@PAU2@@Z
	DD	FLAT:?get_accHelp@CWnd@@UAEJUtagVARIANT@@PAPA_W@Z
	DD	FLAT:?get_accHelpTopic@CWnd@@UAEJPAPA_WUtagVARIANT@@PAJ@Z
	DD	FLAT:?get_accKeyboardShortcut@CWnd@@UAEJUtagVARIANT@@PAPA_W@Z
	DD	FLAT:?get_accFocus@CWnd@@UAEJPAUtagVARIANT@@@Z
	DD	FLAT:?get_accSelection@CWnd@@UAEJPAUtagVARIANT@@@Z
	DD	FLAT:?get_accDefaultAction@CWnd@@UAEJUtagVARIANT@@PAPA_W@Z
	DD	FLAT:?accSelect@CWnd@@UAEJJUtagVARIANT@@@Z
	DD	FLAT:?accLocation@CWnd@@UAEJPAJ000UtagVARIANT@@@Z
	DD	FLAT:?accNavigate@CWnd@@UAEJJUtagVARIANT@@PAU2@@Z
	DD	FLAT:?accHitTest@CWnd@@UAEJJJPAUtagVARIANT@@@Z
	DD	FLAT:?accDoDefaultAction@CWnd@@UAEJUtagVARIANT@@@Z
	DD	FLAT:?put_accName@CWnd@@UAEJUtagVARIANT@@PA_W@Z
	DD	FLAT:?put_accValue@CWnd@@UAEJUtagVARIANT@@PA_W@Z
	DD	FLAT:?SetProxy@CWnd@@UAEJPAUIAccessibleProxy@@@Z
	DD	FLAT:?CreateAccessibleProxy@CWnd@@UAEJIJPAJ@Z
	DD	FLAT:?OnCommand@CWnd@@MAEHIJ@Z
	DD	FLAT:?OnNotify@CWnd@@MAEHIJPAJ@Z
	DD	FLAT:?GetSuperWndProcAddr@CWnd@@MAEPAP6GJPAUHWND__@@IIJ@ZXZ
	DD	FLAT:?DoDataExchange@CDialogMsg@@MAEXPAVCDataExchange@@@Z
	DD	FLAT:?BeginModalState@CWnd@@UAEXXZ
	DD	FLAT:?EndModalState@CWnd@@UAEXXZ
	DD	FLAT:?PreTranslateMessage@CDialog@@UAEHPAUtagMSG@@@Z
	DD	FLAT:?OnAmbientProperty@CWnd@@UAEHPAVCOleControlSite@@JPAUtagVARIANT@@@Z
	DD	FLAT:?WindowProc@CWnd@@MAEJIIJ@Z
	DD	FLAT:?OnWndMsg@CWnd@@MAEHIIJPAJ@Z
	DD	FLAT:?DefWindowProcA@CWnd@@MAEJIIJ@Z
	DD	FLAT:?PostNcDestroy@CWnd@@MAEXXZ
	DD	FLAT:?OnChildNotify@CWnd@@MAEHIIJPAJ@Z
	DD	FLAT:?CheckAutoCenter@CDialog@@UAEHXZ
	DD	FLAT:?IsFrameWnd@CWnd@@UBEHXZ
	DD	FLAT:?CreateControlContainer@CWnd@@MAEHPAPAVCOleControlContainer@@@Z
	DD	FLAT:?CreateControlSite@CWnd@@MAEHPAVCOleControlContainer@@PAPAVCOleControlSite@@IABU_GUID@@@Z
	DD	FLAT:?SetOccDialogInfo@CDialog@@MAEHPAU_AFX_OCC_DIALOG_INFO@@@Z
	DD	FLAT:?Create@CDialog@@UAEHIPAVCWnd@@@Z
	DD	FLAT:?Create@CDialog@@UAEHPBDPAVCWnd@@@Z
	DD	FLAT:?CreateIndirect@CDialog@@UAEHPAXPAVCWnd@@@Z
	DD	FLAT:?CreateIndirect@CDialog@@UAEHPBUDLGTEMPLATE@@PAVCWnd@@PAX@Z
	DD	FLAT:?DoModal@CDialog@@UAEHXZ
	DD	FLAT:?OnInitDialog@CDialogMsg@@UAEHXZ
	DD	FLAT:?OnSetFont@CDialog@@UAEXPAVCFont@@@Z
	DD	FLAT:?OnOK@CDialogMsg@@MAEXXZ
	DD	FLAT:?OnCancel@CDialogMsg@@MAEXXZ
	DD	FLAT:?PreInitDialog@CDialog@@MAEXXZ
	DD	FLAT:?OnClickBtn1@CDialogMsg@@UAEXXZ
	DD	FLAT:?OnClickBtn2@CDialogMsg@@UAEXXZ
	DD	FLAT:?OnClickClose@CDialogMsg@@UAEXXZ
	DD	FLAT:?CheckBox_Check@CDialogMsg@@UAEXXZ
	DD	FLAT:?PaintSomething@CDialogMsg@@UAEXPAVCDC@@@Z
	DD	FLAT:?CheckBox_Checked@CDialogMsg@@UAEXXZ
	DD	FLAT:?CheckBox_UnChecked@CDialogMsg@@UAEXXZ
CONST	ENDS
;	COMDAT ??_R4CDialogMsg@@6B@
rdata$r	SEGMENT
??_R4CDialogMsg@@6B@ DD 00H				; CDialogMsg::`RTTI Complete Object Locator'
	DD	00H
	DD	00H
	DD	FLAT:??_R0?AVCDialogMsg@@@8
	DD	FLAT:??_R3CDialogMsg@@8
rdata$r	ENDS
;	COMDAT ??_R0?AVCDialogMsg@@@8
_DATA	SEGMENT
??_R0?AVCDialogMsg@@@8 DD FLAT:??_7type_info@@6B@	; CDialogMsg `RTTI Type Descriptor'
	DD	00H
	DB	'.?AVCDialogMsg@@', 00H
_DATA	ENDS
;	COMDAT ??_R3CDialogMsg@@8
rdata$r	SEGMENT
??_R3CDialogMsg@@8 DD 00H				; CDialogMsg::`RTTI Class Hierarchy Descriptor'
	DD	00H
	DD	05H
	DD	FLAT:??_R2CDialogMsg@@8
rdata$r	ENDS
;	COMDAT ??_R2CDialogMsg@@8
rdata$r	SEGMENT
??_R2CDialogMsg@@8 DD FLAT:??_R1A@?0A@A@CDialogMsg@@8	; CDialogMsg::`RTTI Base Class Array'
	DD	FLAT:??_R1A@?0A@A@CDialog@@8
	DD	FLAT:??_R1A@?0A@A@CWnd@@8
	DD	FLAT:??_R1A@?0A@A@CCmdTarget@@8
	DD	FLAT:??_R1A@?0A@A@CObject@@8
rdata$r	ENDS
;	COMDAT ??_R1A@?0A@A@CDialogMsg@@8
rdata$r	SEGMENT
??_R1A@?0A@A@CDialogMsg@@8 DD FLAT:??_R0?AVCDialogMsg@@@8 ; CDialogMsg::`RTTI Base Class Descriptor at (0,-1,0,0)'
	DD	04H
	DD	00H
	DD	0ffffffffH
	DD	00H
	DD	00H
rdata$r	ENDS
;	COMDAT ??_R1A@?0A@A@CDialog@@8
rdata$r	SEGMENT
??_R1A@?0A@A@CDialog@@8 DD FLAT:??_R0?AVCDialog@@@8	; CDialog::`RTTI Base Class Descriptor at (0,-1,0,0)'
	DD	03H
	DD	00H
	DD	0ffffffffH
	DD	00H
	DD	00H
rdata$r	ENDS
;	COMDAT ??_R0?AVCDialog@@@8
_DATA	SEGMENT
??_R0?AVCDialog@@@8 DD FLAT:??_7type_info@@6B@		; CDialog `RTTI Type Descriptor'
	DD	00H
	DB	'.?AVCDialog@@', 00H
_DATA	ENDS
;	COMDAT ??_R1A@?0A@A@CWnd@@8
rdata$r	SEGMENT
??_R1A@?0A@A@CWnd@@8 DD FLAT:??_R0?AVCWnd@@@8		; CWnd::`RTTI Base Class Descriptor at (0,-1,0,0)'
	DD	02H
	DD	00H
	DD	0ffffffffH
	DD	00H
	DD	00H
rdata$r	ENDS
;	COMDAT ??_R0?AVCWnd@@@8
_DATA	SEGMENT
??_R0?AVCWnd@@@8 DD FLAT:??_7type_info@@6B@		; CWnd `RTTI Type Descriptor'
	DD	00H
	DB	'.?AVCWnd@@', 00H
_DATA	ENDS
;	COMDAT ??_R1A@?0A@A@CCmdTarget@@8
rdata$r	SEGMENT
??_R1A@?0A@A@CCmdTarget@@8 DD FLAT:??_R0?AVCCmdTarget@@@8 ; CCmdTarget::`RTTI Base Class Descriptor at (0,-1,0,0)'
	DD	01H
	DD	00H
	DD	0ffffffffH
	DD	00H
	DD	00H
rdata$r	ENDS
;	COMDAT ??_R0?AVCCmdTarget@@@8
_DATA	SEGMENT
??_R0?AVCCmdTarget@@@8 DD FLAT:??_7type_info@@6B@	; CCmdTarget `RTTI Type Descriptor'
	DD	00H
	DB	'.?AVCCmdTarget@@', 00H
_DATA	ENDS
;	COMDAT ??_R1A@?0A@A@CObject@@8
rdata$r	SEGMENT
??_R1A@?0A@A@CObject@@8 DD FLAT:??_R0?AVCObject@@@8	; CObject::`RTTI Base Class Descriptor at (0,-1,0,0)'
	DD	00H
	DD	00H
	DD	0ffffffffH
	DD	00H
	DD	00H
rdata$r	ENDS
;	COMDAT ??_R0?AVCObject@@@8
_DATA	SEGMENT
??_R0?AVCObject@@@8 DD FLAT:??_7type_info@@6B@		; CObject `RTTI Type Descriptor'
	DD	00H
	DB	'.?AVCObject@@', 00H
; Function compile flags: /Odt
_DATA	ENDS
_TEXT	SEGMENT
_this$ = -28						; size = 4
$T198581 = -24						; size = 4
$T198580 = -20						; size = 4
$T198579 = -16						; size = 4
__$EHRec$ = -12						; size = 12
_pParent$ = 8						; size = 4
??0CDialogMsg@@QAE@PAVCWnd@@@Z PROC NEAR		; CDialogMsg::CDialogMsg
; _this$ = ecx

; 18   : {

  00020	55		 push	 ebp
  00021	8b ec		 mov	 ebp, esp
  00023	6a ff		 push	 -1
  00025	68 00 00 00 00	 push	 __ehhandler$??0CDialogMsg@@QAE@PAVCWnd@@@Z
  0002a	64 a1 00 00 00
	00		 mov	 eax, DWORD PTR fs:__except_list
  00030	50		 push	 eax
  00031	64 89 25 00 00
	00 00		 mov	 DWORD PTR fs:__except_list, esp
  00038	83 ec 10	 sub	 esp, 16			; 00000010H
  0003b	89 4d e4	 mov	 DWORD PTR _this$[ebp], ecx
  0003e	8b 45 08	 mov	 eax, DWORD PTR _pParent$[ebp]
  00041	50		 push	 eax
  00042	6a 6c		 push	 108			; 0000006cH
  00044	8b 4d e4	 mov	 ecx, DWORD PTR _this$[ebp]
  00047	e8 00 00 00 00	 call	 ??0CDialog@@QAE@IPAVCWnd@@@Z ; CDialog::CDialog
  0004c	c7 45 fc 00 00
	00 00		 mov	 DWORD PTR __$EHRec$[ebp+8], 0
  00053	8b 4d e4	 mov	 ecx, DWORD PTR _this$[ebp]
  00056	c7 01 00 00 00
	00		 mov	 DWORD PTR [ecx], OFFSET FLAT:??_7CDialogMsg@@6B@
  0005c	8b 4d e4	 mov	 ecx, DWORD PTR _this$[ebp]
  0005f	83 c1 74	 add	 ecx, 116		; 00000074H
  00062	ff 15 00 00 00
	00		 call	 DWORD PTR __imp_??0?$CStringT@DV?$StrTraitMFC_DLL@DV?$ChTraitsCRT@D@ATL@@@@@ATL@@QAE@XZ
  00068	c6 45 fc 01	 mov	 BYTE PTR __$EHRec$[ebp+8], 1
  0006c	8b 4d e4	 mov	 ecx, DWORD PTR _this$[ebp]
  0006f	81 c1 84 00 00
	00		 add	 ecx, 132		; 00000084H
  00075	ff 15 00 00 00
	00		 call	 DWORD PTR __imp_??0?$CStringT@DV?$StrTraitMFC_DLL@DV?$ChTraitsCRT@D@ATL@@@@@ATL@@QAE@XZ
  0007b	c6 45 fc 02	 mov	 BYTE PTR __$EHRec$[ebp+8], 2
  0007f	8b 4d e4	 mov	 ecx, DWORD PTR _this$[ebp]
  00082	81 c1 88 00 00
	00		 add	 ecx, 136		; 00000088H
  00088	ff 15 00 00 00
	00		 call	 DWORD PTR __imp_??0?$CStringT@DV?$StrTraitMFC_DLL@DV?$ChTraitsCRT@D@ATL@@@@@ATL@@QAE@XZ
  0008e	c6 45 fc 03	 mov	 BYTE PTR __$EHRec$[ebp+8], 3
  00092	8b 4d e4	 mov	 ecx, DWORD PTR _this$[ebp]
  00095	81 c1 8c 00 00
	00		 add	 ecx, 140		; 0000008cH
  0009b	ff 15 00 00 00
	00		 call	 DWORD PTR __imp_??0?$CStringT@DV?$StrTraitMFC_DLL@DV?$ChTraitsCRT@D@ATL@@@@@ATL@@QAE@XZ
  000a1	c6 45 fc 04	 mov	 BYTE PTR __$EHRec$[ebp+8], 4
  000a5	8b 4d e4	 mov	 ecx, DWORD PTR _this$[ebp]
  000a8	81 c1 90 00 00
	00		 add	 ecx, 144		; 00000090H
  000ae	e8 00 00 00 00	 call	 ??0CRect@@QAE@XZ	; CRect::CRect
  000b3	8b 4d e4	 mov	 ecx, DWORD PTR _this$[ebp]
  000b6	81 c1 a0 00 00
	00		 add	 ecx, 160		; 000000a0H
  000bc	e8 00 00 00 00	 call	 ??0CRect@@QAE@XZ	; CRect::CRect
  000c1	8b 4d e4	 mov	 ecx, DWORD PTR _this$[ebp]
  000c4	81 c1 b0 00 00
	00		 add	 ecx, 176		; 000000b0H
  000ca	e8 00 00 00 00	 call	 ??0CRect@@QAE@XZ	; CRect::CRect
  000cf	8b 4d e4	 mov	 ecx, DWORD PTR _this$[ebp]
  000d2	81 c1 c0 00 00
	00		 add	 ecx, 192		; 000000c0H
  000d8	e8 00 00 00 00	 call	 ??0CFont@@QAE@XZ	; CFont::CFont
  000dd	c6 45 fc 05	 mov	 BYTE PTR __$EHRec$[ebp+8], 5
  000e1	8b 4d e4	 mov	 ecx, DWORD PTR _this$[ebp]
  000e4	81 c1 c8 00 00
	00		 add	 ecx, 200		; 000000c8H
  000ea	e8 00 00 00 00	 call	 ??0CFont@@QAE@XZ	; CFont::CFont
  000ef	c6 45 fc 06	 mov	 BYTE PTR __$EHRec$[ebp+8], 6
  000f3	8b 4d e4	 mov	 ecx, DWORD PTR _this$[ebp]
  000f6	81 c1 d4 00 00
	00		 add	 ecx, 212		; 000000d4H
  000fc	ff 15 00 00 00
	00		 call	 DWORD PTR __imp_??0?$CStringT@DV?$StrTraitMFC_DLL@DV?$ChTraitsCRT@D@ATL@@@@@ATL@@QAE@XZ
  00102	c6 45 fc 07	 mov	 BYTE PTR __$EHRec$[ebp+8], 7
  00106	8b 4d e4	 mov	 ecx, DWORD PTR _this$[ebp]
  00109	81 c1 d8 00 00
	00		 add	 ecx, 216		; 000000d8H
  0010f	e8 00 00 00 00	 call	 ??0CxSkinButton@@QAE@XZ	; CxSkinButton::CxSkinButton
  00114	c6 45 fc 08	 mov	 BYTE PTR __$EHRec$[ebp+8], 8
  00118	8b 4d e4	 mov	 ecx, DWORD PTR _this$[ebp]
  0011b	81 c1 fc 01 00
	00		 add	 ecx, 508		; 000001fcH
  00121	e8 00 00 00 00	 call	 ??0CxSkinButton@@QAE@XZ	; CxSkinButton::CxSkinButton
  00126	c6 45 fc 09	 mov	 BYTE PTR __$EHRec$[ebp+8], 9
  0012a	8b 4d e4	 mov	 ecx, DWORD PTR _this$[ebp]
  0012d	81 c1 20 03 00
	00		 add	 ecx, 800		; 00000320H
  00133	e8 00 00 00 00	 call	 ??0CxSkinButton@@QAE@XZ	; CxSkinButton::CxSkinButton
  00138	c6 45 fc 0a	 mov	 BYTE PTR __$EHRec$[ebp+8], 10 ; 0000000aH
  0013c	8b 4d e4	 mov	 ecx, DWORD PTR _this$[ebp]
  0013f	81 c1 44 04 00
	00		 add	 ecx, 1092		; 00000444H
  00145	e8 00 00 00 00	 call	 ??0CxSkinButton@@QAE@XZ	; CxSkinButton::CxSkinButton
  0014a	c6 45 fc 0b	 mov	 BYTE PTR __$EHRec$[ebp+8], 11 ; 0000000bH
  0014e	8b 4d e4	 mov	 ecx, DWORD PTR _this$[ebp]
  00151	81 c1 68 05 00
	00		 add	 ecx, 1384		; 00000568H
  00157	e8 00 00 00 00	 call	 ??0CxSkinButton@@QAE@XZ	; CxSkinButton::CxSkinButton
  0015c	c6 45 fc 0c	 mov	 BYTE PTR __$EHRec$[ebp+8], 12 ; 0000000cH

; 19   : 	m_strTitle = "";

  00160	68 00 00 00 00	 push	 OFFSET FLAT:$SG197743
  00165	8b 4d e4	 mov	 ecx, DWORD PTR _this$[ebp]
  00168	83 c1 74	 add	 ecx, 116		; 00000074H
  0016b	ff 15 00 00 00
	00		 call	 DWORD PTR __imp_??4?$CStringT@DV?$StrTraitMFC_DLL@DV?$ChTraitsCRT@D@ATL@@@@@ATL@@QAEAAV01@PBD@Z

; 20   : 
; 21   : 	SetSize(254,131);

  00171	68 83 00 00 00	 push	 131			; 00000083H
  00176	68 fe 00 00 00	 push	 254			; 000000feH
  0017b	8b 4d e4	 mov	 ecx, DWORD PTR _this$[ebp]
  0017e	e8 00 00 00 00	 call	 ?SetSize@CDialogMsg@@QAEXHH@Z ; CDialogMsg::SetSize

; 22   : 	SetBtnCount(2);

  00183	6a 02		 push	 2
  00185	8b 4d e4	 mov	 ecx, DWORD PTR _this$[ebp]
  00188	e8 00 00 00 00	 call	 ?SetBtnCount@CDialogMsg@@QAEXH@Z ; CDialogMsg::SetBtnCount

; 23   : 	SetTitle("提示");

  0018d	68 00 00 00 00	 push	 OFFSET FLAT:$SG197745
  00192	8d 4d f0	 lea	 ecx, DWORD PTR $T198579[ebp]
  00195	ff 15 00 00 00
	00		 call	 DWORD PTR __imp_??0?$CStringT@DV?$StrTraitMFC_DLL@DV?$ChTraitsCRT@D@ATL@@@@@ATL@@QAE@PBD@Z
  0019b	c6 45 fc 0d	 mov	 BYTE PTR __$EHRec$[ebp+8], 13 ; 0000000dH
  0019f	8d 55 f0	 lea	 edx, DWORD PTR $T198579[ebp]
  001a2	52		 push	 edx
  001a3	8b 4d e4	 mov	 ecx, DWORD PTR _this$[ebp]
  001a6	e8 00 00 00 00	 call	 ?SetTitle@CDialogMsg@@QAEXABV?$CStringT@DV?$StrTraitMFC_DLL@DV?$ChTraitsCRT@D@ATL@@@@@ATL@@@Z ; CDialogMsg::SetTitle
  001ab	c6 45 fc 0c	 mov	 BYTE PTR __$EHRec$[ebp+8], 12 ; 0000000cH
  001af	8d 4d f0	 lea	 ecx, DWORD PTR $T198579[ebp]
  001b2	ff 15 00 00 00
	00		 call	 DWORD PTR __imp_??1?$CStringT@DV?$StrTraitMFC_DLL@DV?$ChTraitsCRT@D@ATL@@@@@ATL@@QAE@XZ

; 24   : 	SetBtnText(1,"确 定");

  001b8	68 00 00 00 00	 push	 OFFSET FLAT:$SG197747
  001bd	8d 4d ec	 lea	 ecx, DWORD PTR $T198580[ebp]
  001c0	ff 15 00 00 00
	00		 call	 DWORD PTR __imp_??0?$CStringT@DV?$StrTraitMFC_DLL@DV?$ChTraitsCRT@D@ATL@@@@@ATL@@QAE@PBD@Z
  001c6	c6 45 fc 0e	 mov	 BYTE PTR __$EHRec$[ebp+8], 14 ; 0000000eH
  001ca	8d 45 ec	 lea	 eax, DWORD PTR $T198580[ebp]
  001cd	50		 push	 eax
  001ce	6a 01		 push	 1
  001d0	8b 4d e4	 mov	 ecx, DWORD PTR _this$[ebp]
  001d3	e8 00 00 00 00	 call	 ?SetBtnText@CDialogMsg@@QAEXHABV?$CStringT@DV?$StrTraitMFC_DLL@DV?$ChTraitsCRT@D@ATL@@@@@ATL@@@Z ; CDialogMsg::SetBtnText
  001d8	c6 45 fc 0c	 mov	 BYTE PTR __$EHRec$[ebp+8], 12 ; 0000000cH
  001dc	8d 4d ec	 lea	 ecx, DWORD PTR $T198580[ebp]
  001df	ff 15 00 00 00
	00		 call	 DWORD PTR __imp_??1?$CStringT@DV?$StrTraitMFC_DLL@DV?$ChTraitsCRT@D@ATL@@@@@ATL@@QAE@XZ

; 25   : 	SetBtnText(2,"取 消");	

  001e5	68 00 00 00 00	 push	 OFFSET FLAT:$SG197749
  001ea	8d 4d e8	 lea	 ecx, DWORD PTR $T198581[ebp]
  001ed	ff 15 00 00 00
	00		 call	 DWORD PTR __imp_??0?$CStringT@DV?$StrTraitMFC_DLL@DV?$ChTraitsCRT@D@ATL@@@@@ATL@@QAE@PBD@Z
  001f3	c6 45 fc 0f	 mov	 BYTE PTR __$EHRec$[ebp+8], 15 ; 0000000fH
  001f7	8d 4d e8	 lea	 ecx, DWORD PTR $T198581[ebp]
  001fa	51		 push	 ecx
  001fb	6a 02		 push	 2
  001fd	8b 4d e4	 mov	 ecx, DWORD PTR _this$[ebp]
  00200	e8 00 00 00 00	 call	 ?SetBtnText@CDialogMsg@@QAEXHABV?$CStringT@DV?$StrTraitMFC_DLL@DV?$ChTraitsCRT@D@ATL@@@@@ATL@@@Z ; CDialogMsg::SetBtnText
  00205	c6 45 fc 0c	 mov	 BYTE PTR __$EHRec$[ebp+8], 12 ; 0000000cH
  00209	8d 4d e8	 lea	 ecx, DWORD PTR $T198581[ebp]
  0020c	ff 15 00 00 00
	00		 call	 DWORD PTR __imp_??1?$CStringT@DV?$StrTraitMFC_DLL@DV?$ChTraitsCRT@D@ATL@@@@@ATL@@QAE@XZ

; 26   : 
; 27   : 	m_bShowCheckBox = FALSE;

  00212	8b 55 e4	 mov	 edx, DWORD PTR _this$[ebp]
  00215	c7 82 d0 00 00
	00 00 00 00 00	 mov	 DWORD PTR [edx+208], 0

; 28   : 
; 29   : 	m_titleFont.CreateFont(
; 30   : 		12,                        // nHeight
; 31   : 		0,                         // nWidth
; 32   : 		0,                         // nEscapement
; 33   : 		0,                         // nOrientation
; 34   : 		FW_BOLD,				   // nWeight
; 35   : 		FALSE,                     // bItalic
; 36   : 		FALSE,                     // bUnderline
; 37   : 		0,                         // cStrikeOut
; 38   : 		ANSI_CHARSET,              // nCharSet
; 39   : 		OUT_DEFAULT_PRECIS,        // nOutPrecision
; 40   : 		CLIP_DEFAULT_PRECIS,       // nClipPrecision
; 41   : 		DEFAULT_QUALITY,           // nQuality
; 42   : 		DEFAULT_PITCH | FF_SWISS,  // nPitchAndFamily
; 43   : 		"宋体");				   // lpszFacename

  0021f	68 00 00 00 00	 push	 OFFSET FLAT:$SG197750
  00224	6a 20		 push	 32			; 00000020H
  00226	6a 00		 push	 0
  00228	6a 00		 push	 0
  0022a	6a 00		 push	 0
  0022c	6a 00		 push	 0
  0022e	6a 00		 push	 0
  00230	6a 00		 push	 0
  00232	6a 00		 push	 0
  00234	68 bc 02 00 00	 push	 700			; 000002bcH
  00239	6a 00		 push	 0
  0023b	6a 00		 push	 0
  0023d	6a 00		 push	 0
  0023f	6a 0c		 push	 12			; 0000000cH
  00241	8b 4d e4	 mov	 ecx, DWORD PTR _this$[ebp]
  00244	81 c1 c0 00 00
	00		 add	 ecx, 192		; 000000c0H
  0024a	e8 00 00 00 00	 call	 ?CreateFontA@CFont@@QAEHHHHHHEEEEEEEEPBD@Z ; CFont::CreateFontA

; 44   : 
; 45   : 	m_msgFont.CreateFont(
; 46   : 		12,                        // nHeight
; 47   : 		0,                         // nWidth
; 48   : 		0,                         // nEscapement
; 49   : 		0,                         // nOrientation
; 50   : 		FW_NORMAL,                 // nWeight
; 51   : 		FALSE,                     // bItalic
; 52   : 		FALSE,                     // bUnderline
; 53   : 		0,                         // cStrikeOut
; 54   : 		ANSI_CHARSET,              // nCharSet
; 55   : 		OUT_DEFAULT_PRECIS,        // nOutPrecision
; 56   : 		CLIP_DEFAULT_PRECIS,       // nClipPrecision
; 57   : 		DEFAULT_QUALITY,           // nQuality
; 58   : 		DEFAULT_PITCH | FF_SWISS,  // nPitchAndFamily
; 59   : 		"宋体");				   // lpszFacename

  0024f	68 00 00 00 00	 push	 OFFSET FLAT:$SG197751
  00254	6a 20		 push	 32			; 00000020H
  00256	6a 00		 push	 0
  00258	6a 00		 push	 0
  0025a	6a 00		 push	 0
  0025c	6a 00		 push	 0
  0025e	6a 00		 push	 0
  00260	6a 00		 push	 0
  00262	6a 00		 push	 0
  00264	68 90 01 00 00	 push	 400			; 00000190H
  00269	6a 00		 push	 0
  0026b	6a 00		 push	 0
  0026d	6a 00		 push	 0
  0026f	6a 0c		 push	 12			; 0000000cH
  00271	8b 4d e4	 mov	 ecx, DWORD PTR _this$[ebp]
  00274	81 c1 c8 00 00
	00		 add	 ecx, 200		; 000000c8H
  0027a	e8 00 00 00 00	 call	 ?CreateFontA@CFont@@QAEHHHHHHEEEEEEEEPBD@Z ; CFont::CreateFontA

; 60   : }

  0027f	c7 45 fc ff ff
	ff ff		 mov	 DWORD PTR __$EHRec$[ebp+8], -1
  00286	8b 45 e4	 mov	 eax, DWORD PTR _this$[ebp]
  00289	8b 4d f4	 mov	 ecx, DWORD PTR __$EHRec$[ebp]
  0028c	64 89 0d 00 00
	00 00		 mov	 DWORD PTR fs:__except_list, ecx
  00293	8b e5		 mov	 esp, ebp
  00295	5d		 pop	 ebp
  00296	c2 04 00	 ret	 4
_TEXT	ENDS
text$x	SEGMENT
$L198582:
  00000	8b 4d e4	 mov	 ecx, DWORD PTR _this$[ebp]
  00003	e9 00 00 00 00	 jmp	 ??1CDialog@@UAE@XZ	; CDialog::~CDialog
$L198583:
  00008	8b 4d e4	 mov	 ecx, DWORD PTR _this$[ebp]
  0000b	83 c1 74	 add	 ecx, 116		; 00000074H
  0000e	ff 25 00 00 00
	00		 jmp	 DWORD PTR __imp_??1?$CStringT@DV?$StrTraitMFC_DLL@DV?$ChTraitsCRT@D@ATL@@@@@ATL@@QAE@XZ
$L198584:
  00014	8b 4d e4	 mov	 ecx, DWORD PTR _this$[ebp]
  00017	81 c1 84 00 00
	00		 add	 ecx, 132		; 00000084H
  0001d	ff 25 00 00 00
	00		 jmp	 DWORD PTR __imp_??1?$CStringT@DV?$StrTraitMFC_DLL@DV?$ChTraitsCRT@D@ATL@@@@@ATL@@QAE@XZ
$L198585:
  00023	8b 4d e4	 mov	 ecx, DWORD PTR _this$[ebp]
  00026	81 c1 88 00 00
	00		 add	 ecx, 136		; 00000088H
  0002c	ff 25 00 00 00
	00		 jmp	 DWORD PTR __imp_??1?$CStringT@DV?$StrTraitMFC_DLL@DV?$ChTraitsCRT@D@ATL@@@@@ATL@@QAE@XZ
$L198586:
  00032	8b 4d e4	 mov	 ecx, DWORD PTR _this$[ebp]
  00035	81 c1 8c 00 00
	00		 add	 ecx, 140		; 0000008cH
  0003b	ff 25 00 00 00
	00		 jmp	 DWORD PTR __imp_??1?$CStringT@DV?$StrTraitMFC_DLL@DV?$ChTraitsCRT@D@ATL@@@@@ATL@@QAE@XZ
$L198587:
  00041	8b 4d e4	 mov	 ecx, DWORD PTR _this$[ebp]
  00044	81 c1 c0 00 00
	00		 add	 ecx, 192		; 000000c0H
  0004a	e9 00 00 00 00	 jmp	 ??1CFont@@UAE@XZ	; CFont::~CFont
$L198588:
  0004f	8b 4d e4	 mov	 ecx, DWORD PTR _this$[ebp]
  00052	81 c1 c8 00 00
	00		 add	 ecx, 200		; 000000c8H
  00058	e9 00 00 00 00	 jmp	 ??1CFont@@UAE@XZ	; CFont::~CFont
$L198589:
  0005d	8b 4d e4	 mov	 ecx, DWORD PTR _this$[ebp]
  00060	81 c1 d4 00 00
	00		 add	 ecx, 212		; 000000d4H
  00066	ff 25 00 00 00
	00		 jmp	 DWORD PTR __imp_??1?$CStringT@DV?$StrTraitMFC_DLL@DV?$ChTraitsCRT@D@ATL@@@@@ATL@@QAE@XZ
$L198590:
  0006c	8b 4d e4	 mov	 ecx, DWORD PTR _this$[ebp]
  0006f	81 c1 d8 00 00
	00		 add	 ecx, 216		; 000000d8H
  00075	e9 00 00 00 00	 jmp	 ??1CxSkinButton@@UAE@XZ	; CxSkinButton::~CxSkinButton
$L198591:
  0007a	8b 4d e4	 mov	 ecx, DWORD PTR _this$[ebp]
  0007d	81 c1 fc 01 00
	00		 add	 ecx, 508		; 000001fcH
  00083	e9 00 00 00 00	 jmp	 ??1CxSkinButton@@UAE@XZ	; CxSkinButton::~CxSkinButton
$L198592:
  00088	8b 4d e4	 mov	 ecx, DWORD PTR _this$[ebp]
  0008b	81 c1 20 03 00
	00		 add	 ecx, 800		; 00000320H
  00091	e9 00 00 00 00	 jmp	 ??1CxSkinButton@@UAE@XZ	; CxSkinButton::~CxSkinButton
$L198593:
  00096	8b 4d e4	 mov	 ecx, DWORD PTR _this$[ebp]
  00099	81 c1 44 04 00
	00		 add	 ecx, 1092		; 00000444H
  0009f	e9 00 00 00 00	 jmp	 ??1CxSkinButton@@UAE@XZ	; CxSkinButton::~CxSkinButton
$L198594:
  000a4	8b 4d e4	 mov	 ecx, DWORD PTR _this$[ebp]
  000a7	81 c1 68 05 00
	00		 add	 ecx, 1384		; 00000568H
  000ad	e9 00 00 00 00	 jmp	 ??1CxSkinButton@@UAE@XZ	; CxSkinButton::~CxSkinButton
$L198595:
  000b2	8d 4d f0	 lea	 ecx, DWORD PTR $T198579[ebp]
  000b5	ff 25 00 00 00
	00		 jmp	 DWORD PTR __imp_??1?$CStringT@DV?$StrTraitMFC_DLL@DV?$ChTraitsCRT@D@ATL@@@@@ATL@@QAE@XZ
$L198596:
  000bb	8d 4d ec	 lea	 ecx, DWORD PTR $T198580[ebp]
  000be	ff 25 00 00 00
	00		 jmp	 DWORD PTR __imp_??1?$CStringT@DV?$StrTraitMFC_DLL@DV?$ChTraitsCRT@D@ATL@@@@@ATL@@QAE@XZ
$L198597:
  000c4	8d 4d e8	 lea	 ecx, DWORD PTR $T198581[ebp]
  000c7	ff 25 00 00 00
	00		 jmp	 DWORD PTR __imp_??1?$CStringT@DV?$StrTraitMFC_DLL@DV?$ChTraitsCRT@D@ATL@@@@@ATL@@QAE@XZ
__ehhandler$??0CDialogMsg@@QAE@PAVCWnd@@@Z:
  000cd	b8 00 00 00 00	 mov	 eax, OFFSET FLAT:$T198601
  000d2	e9 00 00 00 00	 jmp	 ___CxxFrameHandler
text$x	ENDS
??0CDialogMsg@@QAE@PAVCWnd@@@Z ENDP			; CDialogMsg::CDialogMsg
EXTRN	__imp_??4?$CStringT@DV?$StrTraitMFC_DLL@DV?$ChTraitsCRT@D@ATL@@@@@ATL@@QAEAAV01@ABV01@@Z:NEAR
; Function compile flags: /Odt
; File d:\boxgit\playbox\playbox\dev\prj\playbox\src\gui\commoncontrol\dialogmsg.h
;	COMDAT ?SetTitle@CDialogMsg@@QAEXABV?$CStringT@DV?$StrTraitMFC_DLL@DV?$ChTraitsCRT@D@ATL@@@@@ATL@@@Z
_TEXT	SEGMENT
_this$ = -4						; size = 4
_strTitle$ = 8						; size = 4
?SetTitle@CDialogMsg@@QAEXABV?$CStringT@DV?$StrTraitMFC_DLL@DV?$ChTraitsCRT@D@ATL@@@@@ATL@@@Z PROC NEAR ; CDialogMsg::SetTitle, COMDAT
; _this$ = ecx

; 31   : 	void	SetTitle(const CString& strTitle ){m_strTitle = strTitle;}

  00000	55		 push	 ebp
  00001	8b ec		 mov	 ebp, esp
  00003	51		 push	 ecx
  00004	89 4d fc	 mov	 DWORD PTR _this$[ebp], ecx
  00007	8b 45 08	 mov	 eax, DWORD PTR _strTitle$[ebp]
  0000a	50		 push	 eax
  0000b	8b 4d fc	 mov	 ecx, DWORD PTR _this$[ebp]
  0000e	83 c1 74	 add	 ecx, 116		; 00000074H
  00011	ff 15 00 00 00
	00		 call	 DWORD PTR __imp_??4?$CStringT@DV?$StrTraitMFC_DLL@DV?$ChTraitsCRT@D@ATL@@@@@ATL@@QAEAAV01@ABV01@@Z
  00017	8b e5		 mov	 esp, ebp
  00019	5d		 pop	 ebp
  0001a	c2 04 00	 ret	 4
?SetTitle@CDialogMsg@@QAEXABV?$CStringT@DV?$StrTraitMFC_DLL@DV?$ChTraitsCRT@D@ATL@@@@@ATL@@@Z ENDP ; CDialogMsg::SetTitle
; Function compile flags: /Odt
_TEXT	ENDS
;	COMDAT ?SetSize@CDialogMsg@@QAEXHH@Z
_TEXT	SEGMENT
_this$ = -4						; size = 4
_iXSize$ = 8						; size = 4
_iYSize$ = 12						; size = 4
?SetSize@CDialogMsg@@QAEXHH@Z PROC NEAR			; CDialogMsg::SetSize, COMDAT
; _this$ = ecx

; 32   : 	void	SetSize(int iXSize,int iYSize){m_iXSize = iXSize;m_iYSize=iYSize;}

  00000	55		 push	 ebp
  00001	8b ec		 mov	 ebp, esp
  00003	51		 push	 ecx
  00004	89 4d fc	 mov	 DWORD PTR _this$[ebp], ecx
  00007	8b 45 fc	 mov	 eax, DWORD PTR _this$[ebp]
  0000a	8b 4d 08	 mov	 ecx, DWORD PTR _iXSize$[ebp]
  0000d	89 48 78	 mov	 DWORD PTR [eax+120], ecx
  00010	8b 55 fc	 mov	 edx, DWORD PTR _this$[ebp]
  00013	8b 45 0c	 mov	 eax, DWORD PTR _iYSize$[ebp]
  00016	89 42 7c	 mov	 DWORD PTR [edx+124], eax
  00019	8b e5		 mov	 esp, ebp
  0001b	5d		 pop	 ebp
  0001c	c2 08 00	 ret	 8
?SetSize@CDialogMsg@@QAEXHH@Z ENDP			; CDialogMsg::SetSize
; Function compile flags: /Odt
_TEXT	ENDS
;	COMDAT ?CheckBox_Check@CDialogMsg@@UAEXXZ
_TEXT	SEGMENT
_this$ = -4						; size = 4
?CheckBox_Check@CDialogMsg@@UAEXXZ PROC NEAR		; CDialogMsg::CheckBox_Check, COMDAT
; _this$ = ecx

; 80   : 	virtual void CheckBox_Check(){};

  00000	55		 push	 ebp
  00001	8b ec		 mov	 ebp, esp
  00003	51		 push	 ecx
  00004	89 4d fc	 mov	 DWORD PTR _this$[ebp], ecx
  00007	8b e5		 mov	 esp, ebp
  00009	5d		 pop	 ebp
  0000a	c3		 ret	 0
?CheckBox_Check@CDialogMsg@@UAEXXZ ENDP			; CDialogMsg::CheckBox_Check
; Function compile flags: /Odt
_TEXT	ENDS
;	COMDAT ?CheckBox_Checked@CDialogMsg@@UAEXXZ
_TEXT	SEGMENT
_this$ = -4						; size = 4
?CheckBox_Checked@CDialogMsg@@UAEXXZ PROC NEAR		; CDialogMsg::CheckBox_Checked, COMDAT
; _this$ = ecx

; 84   : 	virtual void CheckBox_Checked(){};

  00000	55		 push	 ebp
  00001	8b ec		 mov	 ebp, esp
  00003	51		 push	 ecx
  00004	89 4d fc	 mov	 DWORD PTR _this$[ebp], ecx
  00007	8b e5		 mov	 esp, ebp
  00009	5d		 pop	 ebp
  0000a	c3		 ret	 0
?CheckBox_Checked@CDialogMsg@@UAEXXZ ENDP		; CDialogMsg::CheckBox_Checked
; Function compile flags: /Odt
_TEXT	ENDS
;	COMDAT ?CheckBox_UnChecked@CDialogMsg@@UAEXXZ
_TEXT	SEGMENT
_this$ = -4						; size = 4
?CheckBox_UnChecked@CDialogMsg@@UAEXXZ PROC NEAR	; CDialogMsg::CheckBox_UnChecked, COMDAT
; _this$ = ecx

; 85   : 	virtual void CheckBox_UnChecked(){};

  00000	55		 push	 ebp
  00001	8b ec		 mov	 ebp, esp
  00003	51		 push	 ecx
  00004	89 4d fc	 mov	 DWORD PTR _this$[ebp], ecx
  00007	8b e5		 mov	 esp, ebp
  00009	5d		 pop	 ebp
  0000a	c3		 ret	 0
?CheckBox_UnChecked@CDialogMsg@@UAEXXZ ENDP		; CDialogMsg::CheckBox_UnChecked
_TEXT	ENDS
PUBLIC	??3CObject@@SGXPAX@Z				; CObject::operator delete
PUBLIC	??1CDialogMsg@@UAE@XZ				; CDialogMsg::~CDialogMsg
; Function compile flags: /Odt
;	COMDAT ??_GCDialogMsg@@UAEPAXI@Z
_TEXT	SEGMENT
_this$ = -4						; size = 4
___flags$ = 8						; size = 4
??_GCDialogMsg@@UAEPAXI@Z PROC NEAR			; CDialogMsg::`scalar deleting destructor', COMDAT
; _this$ = ecx
  00000	55		 push	 ebp
  00001	8b ec		 mov	 ebp, esp
  00003	51		 push	 ecx
  00004	89 4d fc	 mov	 DWORD PTR _this$[ebp], ecx
  00007	8b 4d fc	 mov	 ecx, DWORD PTR _this$[ebp]
  0000a	e8 00 00 00 00	 call	 ??1CDialogMsg@@UAE@XZ	; CDialogMsg::~CDialogMsg
  0000f	8b 45 08	 mov	 eax, DWORD PTR ___flags$[ebp]
  00012	83 e0 01	 and	 eax, 1
  00015	74 09		 je	 SHORT $L197755
  00017	8b 4d fc	 mov	 ecx, DWORD PTR _this$[ebp]
  0001a	51		 push	 ecx
  0001b	e8 00 00 00 00	 call	 ??3CObject@@SGXPAX@Z	; CObject::operator delete
$L197755:
  00020	8b 45 fc	 mov	 eax, DWORD PTR _this$[ebp]
  00023	8b e5		 mov	 esp, ebp
  00025	5d		 pop	 ebp
  00026	c2 04 00	 ret	 4
??_GCDialogMsg@@UAEPAXI@Z ENDP				; CDialogMsg::`scalar deleting destructor'
_TEXT	ENDS
xdata$x	SEGMENT
$T198635 DD	0ffffffffH
	DD	FLAT:$L198619
	DD	00H
	DD	FLAT:$L198620
	DD	01H
	DD	FLAT:$L198621
	DD	02H
	DD	FLAT:$L198622
	DD	03H
	DD	FLAT:$L198623
	DD	04H
	DD	FLAT:$L198624
	DD	05H
	DD	FLAT:$L198625
	DD	06H
	DD	FLAT:$L198626
	DD	07H
	DD	FLAT:$L198627
	DD	08H
	DD	FLAT:$L198628
	DD	09H
	DD	FLAT:$L198629
	DD	0aH
	DD	FLAT:$L198630
$T198633 DD	019930520H
	DD	0cH
	DD	FLAT:$T198635
	DD	2 DUP(00H)
	DD	2 DUP(00H)
; Function compile flags: /Odt
; File d:\boxgit\playbox\playbox\dev\prj\playbox\src\gui\commoncontrol\dialogmsg.cpp
xdata$x	ENDS
_TEXT	SEGMENT
_this$ = -16						; size = 4
__$EHRec$ = -12						; size = 12
??1CDialogMsg@@UAE@XZ PROC NEAR				; CDialogMsg::~CDialogMsg
; _this$ = ecx

; 63   : {

  002a0	55		 push	 ebp
  002a1	8b ec		 mov	 ebp, esp
  002a3	6a ff		 push	 -1
  002a5	68 00 00 00 00	 push	 __ehhandler$??1CDialogMsg@@UAE@XZ
  002aa	64 a1 00 00 00
	00		 mov	 eax, DWORD PTR fs:__except_list
  002b0	50		 push	 eax
  002b1	64 89 25 00 00
	00 00		 mov	 DWORD PTR fs:__except_list, esp
  002b8	51		 push	 ecx
  002b9	89 4d f0	 mov	 DWORD PTR _this$[ebp], ecx
  002bc	8b 45 f0	 mov	 eax, DWORD PTR _this$[ebp]
  002bf	c7 00 00 00 00
	00		 mov	 DWORD PTR [eax], OFFSET FLAT:??_7CDialogMsg@@6B@
  002c5	c7 45 fc 0b 00
	00 00		 mov	 DWORD PTR __$EHRec$[ebp+8], 11 ; 0000000bH

; 64   : }

  002cc	8b 4d f0	 mov	 ecx, DWORD PTR _this$[ebp]
  002cf	81 c1 68 05 00
	00		 add	 ecx, 1384		; 00000568H
  002d5	e8 00 00 00 00	 call	 ??1CxSkinButton@@UAE@XZ	; CxSkinButton::~CxSkinButton
  002da	c6 45 fc 0a	 mov	 BYTE PTR __$EHRec$[ebp+8], 10 ; 0000000aH
  002de	8b 4d f0	 mov	 ecx, DWORD PTR _this$[ebp]
  002e1	81 c1 44 04 00
	00		 add	 ecx, 1092		; 00000444H
  002e7	e8 00 00 00 00	 call	 ??1CxSkinButton@@UAE@XZ	; CxSkinButton::~CxSkinButton
  002ec	c6 45 fc 09	 mov	 BYTE PTR __$EHRec$[ebp+8], 9
  002f0	8b 4d f0	 mov	 ecx, DWORD PTR _this$[ebp]
  002f3	81 c1 20 03 00
	00		 add	 ecx, 800		; 00000320H
  002f9	e8 00 00 00 00	 call	 ??1CxSkinButton@@UAE@XZ	; CxSkinButton::~CxSkinButton
  002fe	c6 45 fc 08	 mov	 BYTE PTR __$EHRec$[ebp+8], 8
  00302	8b 4d f0	 mov	 ecx, DWORD PTR _this$[ebp]
  00305	81 c1 fc 01 00
	00		 add	 ecx, 508		; 000001fcH
  0030b	e8 00 00 00 00	 call	 ??1CxSkinButton@@UAE@XZ	; CxSkinButton::~CxSkinButton
  00310	c6 45 fc 07	 mov	 BYTE PTR __$EHRec$[ebp+8], 7
  00314	8b 4d f0	 mov	 ecx, DWORD PTR _this$[ebp]
  00317	81 c1 d8 00 00
	00		 add	 ecx, 216		; 000000d8H
  0031d	e8 00 00 00 00	 call	 ??1CxSkinButton@@UAE@XZ	; CxSkinButton::~CxSkinButton
  00322	c6 45 fc 06	 mov	 BYTE PTR __$EHRec$[ebp+8], 6
  00326	8b 4d f0	 mov	 ecx, DWORD PTR _this$[ebp]
  00329	81 c1 d4 00 00
	00		 add	 ecx, 212		; 000000d4H
  0032f	ff 15 00 00 00
	00		 call	 DWORD PTR __imp_??1?$CStringT@DV?$StrTraitMFC_DLL@DV?$ChTraitsCRT@D@ATL@@@@@ATL@@QAE@XZ
  00335	c6 45 fc 05	 mov	 BYTE PTR __$EHRec$[ebp+8], 5
  00339	8b 4d f0	 mov	 ecx, DWORD PTR _this$[ebp]
  0033c	81 c1 c8 00 00
	00		 add	 ecx, 200		; 000000c8H
  00342	e8 00 00 00 00	 call	 ??1CFont@@UAE@XZ	; CFont::~CFont
  00347	c6 45 fc 04	 mov	 BYTE PTR __$EHRec$[ebp+8], 4
  0034b	8b 4d f0	 mov	 ecx, DWORD PTR _this$[ebp]
  0034e	81 c1 c0 00 00
	00		 add	 ecx, 192		; 000000c0H
  00354	e8 00 00 00 00	 call	 ??1CFont@@UAE@XZ	; CFont::~CFont
  00359	c6 45 fc 03	 mov	 BYTE PTR __$EHRec$[ebp+8], 3
  0035d	8b 4d f0	 mov	 ecx, DWORD PTR _this$[ebp]
  00360	81 c1 8c 00 00
	00		 add	 ecx, 140		; 0000008cH
  00366	ff 15 00 00 00
	00		 call	 DWORD PTR __imp_??1?$CStringT@DV?$StrTraitMFC_DLL@DV?$ChTraitsCRT@D@ATL@@@@@ATL@@QAE@XZ
  0036c	c6 45 fc 02	 mov	 BYTE PTR __$EHRec$[ebp+8], 2
  00370	8b 4d f0	 mov	 ecx, DWORD PTR _this$[ebp]
  00373	81 c1 88 00 00
	00		 add	 ecx, 136		; 00000088H
  00379	ff 15 00 00 00
	00		 call	 DWORD PTR __imp_??1?$CStringT@DV?$StrTraitMFC_DLL@DV?$ChTraitsCRT@D@ATL@@@@@ATL@@QAE@XZ
  0037f	c6 45 fc 01	 mov	 BYTE PTR __$EHRec$[ebp+8], 1
  00383	8b 4d f0	 mov	 ecx, DWORD PTR _this$[ebp]
  00386	81 c1 84 00 00
	00		 add	 ecx, 132		; 00000084H
  0038c	ff 15 00 00 00
	00		 call	 DWORD PTR __imp_??1?$CStringT@DV?$StrTraitMFC_DLL@DV?$ChTraitsCRT@D@ATL@@@@@ATL@@QAE@XZ
  00392	c6 45 fc 00	 mov	 BYTE PTR __$EHRec$[ebp+8], 0
  00396	8b 4d f0	 mov	 ecx, DWORD PTR _this$[ebp]
  00399	83 c1 74	 add	 ecx, 116		; 00000074H
  0039c	ff 15 00 00 00
	00		 call	 DWORD PTR __imp_??1?$CStringT@DV?$StrTraitMFC_DLL@DV?$ChTraitsCRT@D@ATL@@@@@ATL@@QAE@XZ
  003a2	c7 45 fc ff ff
	ff ff		 mov	 DWORD PTR __$EHRec$[ebp+8], -1
  003a9	8b 4d f0	 mov	 ecx, DWORD PTR _this$[ebp]
  003ac	e8 00 00 00 00	 call	 ??1CDialog@@UAE@XZ	; CDialog::~CDialog
  003b1	8b 4d f4	 mov	 ecx, DWORD PTR __$EHRec$[ebp]
  003b4	64 89 0d 00 00
	00 00		 mov	 DWORD PTR fs:__except_list, ecx
  003bb	8b e5		 mov	 esp, ebp
  003bd	5d		 pop	 ebp
  003be	c3		 ret	 0
_TEXT	ENDS
text$x	SEGMENT
$L198619:
  000d7	8b 4d f0	 mov	 ecx, DWORD PTR _this$[ebp]
  000da	e9 00 00 00 00	 jmp	 ??1CDialog@@UAE@XZ	; CDialog::~CDialog
$L198620:
  000df	8b 4d f0	 mov	 ecx, DWORD PTR _this$[ebp]
  000e2	83 c1 74	 add	 ecx, 116		; 00000074H
  000e5	ff 25 00 00 00
	00		 jmp	 DWORD PTR __imp_??1?$CStringT@DV?$StrTraitMFC_DLL@DV?$ChTraitsCRT@D@ATL@@@@@ATL@@QAE@XZ
$L198621:
  000eb	8b 4d f0	 mov	 ecx, DWORD PTR _this$[ebp]
  000ee	81 c1 84 00 00
	00		 add	 ecx, 132		; 00000084H
  000f4	ff 25 00 00 00
	00		 jmp	 DWORD PTR __imp_??1?$CStringT@DV?$StrTraitMFC_DLL@DV?$ChTraitsCRT@D@ATL@@@@@ATL@@QAE@XZ
$L198622:
  000fa	8b 4d f0	 mov	 ecx, DWORD PTR _this$[ebp]
  000fd	81 c1 88 00 00
	00		 add	 ecx, 136		; 00000088H
  00103	ff 25 00 00 00
	00		 jmp	 DWORD PTR __imp_??1?$CStringT@DV?$StrTraitMFC_DLL@DV?$ChTraitsCRT@D@ATL@@@@@ATL@@QAE@XZ
$L198623:
  00109	8b 4d f0	 mov	 ecx, DWORD PTR _this$[ebp]
  0010c	81 c1 8c 00 00
	00		 add	 ecx, 140		; 0000008cH
  00112	ff 25 00 00 00
	00		 jmp	 DWORD PTR __imp_??1?$CStringT@DV?$StrTraitMFC_DLL@DV?$ChTraitsCRT@D@ATL@@@@@ATL@@QAE@XZ
$L198624:
  00118	8b 4d f0	 mov	 ecx, DWORD PTR _this$[ebp]
  0011b	81 c1 c0 00 00
	00		 add	 ecx, 192		; 000000c0H
  00121	e9 00 00 00 00	 jmp	 ??1CFont@@UAE@XZ	; CFont::~CFont
$L198625:
  00126	8b 4d f0	 mov	 ecx, DWORD PTR _this$[ebp]
  00129	81 c1 c8 00 00
	00		 add	 ecx, 200		; 000000c8H
  0012f	e9 00 00 00 00	 jmp	 ??1CFont@@UAE@XZ	; CFont::~CFont
$L198626:
  00134	8b 4d f0	 mov	 ecx, DWORD PTR _this$[ebp]
  00137	81 c1 d4 00 00
	00		 add	 ecx, 212		; 000000d4H
  0013d	ff 25 00 00 00
	00		 jmp	 DWORD PTR __imp_??1?$CStringT@DV?$StrTraitMFC_DLL@DV?$ChTraitsCRT@D@ATL@@@@@ATL@@QAE@XZ
$L198627:
  00143	8b 4d f0	 mov	 ecx, DWORD PTR _this$[ebp]
  00146	81 c1 d8 00 00
	00		 add	 ecx, 216		; 000000d8H
  0014c	e9 00 00 00 00	 jmp	 ??1CxSkinButton@@UAE@XZ	; CxSkinButton::~CxSkinButton
$L198628:
  00151	8b 4d f0	 mov	 ecx, DWORD PTR _this$[ebp]
  00154	81 c1 fc 01 00
	00		 add	 ecx, 508		; 000001fcH
  0015a	e9 00 00 00 00	 jmp	 ??1CxSkinButton@@UAE@XZ	; CxSkinButton::~CxSkinButton
$L198629:
  0015f	8b 4d f0	 mov	 ecx, DWORD PTR _this$[ebp]
  00162	81 c1 20 03 00
	00		 add	 ecx, 800		; 00000320H
  00168	e9 00 00 00 00	 jmp	 ??1CxSkinButton@@UAE@XZ	; CxSkinButton::~CxSkinButton
$L198630:
  0016d	8b 4d f0	 mov	 ecx, DWORD PTR _this$[ebp]
  00170	81 c1 44 04 00
	00		 add	 ecx, 1092		; 00000444H
  00176	e9 00 00 00 00	 jmp	 ??1CxSkinButton@@UAE@XZ	; CxSkinButton::~CxSkinButton
__ehhandler$??1CDialogMsg@@UAE@XZ:
  0017b	b8 00 00 00 00	 mov	 eax, OFFSET FLAT:$T198633
  00180	e9 00 00 00 00	 jmp	 ___CxxFrameHandler
text$x	ENDS
??1CDialogMsg@@UAE@XZ ENDP				; CDialogMsg::~CDialogMsg
PUBLIC	?DoDataExchange@CWnd@@MAEXPAVCDataExchange@@@Z	; CWnd::DoDataExchange
; Function compile flags: /Odt
_TEXT	SEGMENT
_this$ = -4						; size = 4
_pDX$ = 8						; size = 4
?DoDataExchange@CDialogMsg@@MAEXPAVCDataExchange@@@Z PROC NEAR ; CDialogMsg::DoDataExchange
; _this$ = ecx

; 67   : {

  003c0	55		 push	 ebp
  003c1	8b ec		 mov	 ebp, esp
  003c3	51		 push	 ecx
  003c4	89 4d fc	 mov	 DWORD PTR _this$[ebp], ecx

; 68   : 	CDialog::DoDataExchange(pDX);	

  003c7	8b 45 08	 mov	 eax, DWORD PTR _pDX$[ebp]
  003ca	50		 push	 eax
  003cb	8b 4d fc	 mov	 ecx, DWORD PTR _this$[ebp]
  003ce	e8 00 00 00 00	 call	 ?DoDataExchange@CWnd@@MAEXPAVCDataExchange@@@Z ; CWnd::DoDataExchange

; 69   : }

  003d3	8b e5		 mov	 esp, ebp
  003d5	5d		 pop	 ebp
  003d6	c2 04 00	 ret	 4
?DoDataExchange@CDialogMsg@@MAEXPAVCDataExchange@@@Z ENDP ; CDialogMsg::DoDataExchange
_TEXT	ENDS
PUBLIC	?GetThisMessageMap@CDialogMsg@@KGPBUAFX_MSGMAP@@XZ ; CDialogMsg::GetThisMessageMap
; Function compile flags: /Odt
_TEXT	SEGMENT
?GetThisMessageMap@CDialogMsg@@KGPBUAFX_MSGMAP@@XZ PROC NEAR ; CDialogMsg::GetThisMessageMap

; 72   : BEGIN_MESSAGE_MAP(CDialogMsg, CDialog)

  003e0	55		 push	 ebp
  003e1	8b ec		 mov	 ebp, esp
  003e3	b8 00 00 00 00	 mov	 eax, OFFSET FLAT:?messageMap@CDialogMsg@@1UAFX_MSGMAP@@B ; CDialogMsg::messageMap
  003e8	5d		 pop	 ebp
  003e9	c3		 ret	 0
?GetThisMessageMap@CDialogMsg@@KGPBUAFX_MSGMAP@@XZ ENDP	; CDialogMsg::GetThisMessageMap
; Function compile flags: /Odt
_this$ = -4						; size = 4
?GetMessageMap@CDialogMsg@@MBEPBUAFX_MSGMAP@@XZ PROC NEAR ; CDialogMsg::GetMessageMap
; _this$ = ecx

; 72   : BEGIN_MESSAGE_MAP(CDialogMsg, CDialog)

  003f0	55		 push	 ebp
  003f1	8b ec		 mov	 ebp, esp
  003f3	51		 push	 ecx
  003f4	89 4d fc	 mov	 DWORD PTR _this$[ebp], ecx
  003f7	b8 00 00 00 00	 mov	 eax, OFFSET FLAT:?messageMap@CDialogMsg@@1UAFX_MSGMAP@@B ; CDialogMsg::messageMap
  003fc	8b e5		 mov	 esp, ebp
  003fe	5d		 pop	 ebp
  003ff	c3		 ret	 0
?GetMessageMap@CDialogMsg@@MBEPBUAFX_MSGMAP@@XZ ENDP	; CDialogMsg::GetMessageMap
; Function compile flags: /Odt
_this$ = -4						; size = 4
_iBtnCount$ = 8						; size = 4
?SetBtnCount@CDialogMsg@@QAEXH@Z PROC NEAR		; CDialogMsg::SetBtnCount
; _this$ = ecx

; 85   : {

  00400	55		 push	 ebp
  00401	8b ec		 mov	 ebp, esp
  00403	51		 push	 ecx
  00404	89 4d fc	 mov	 DWORD PTR _this$[ebp], ecx

; 86   : 	if( iBtnCount <= 0 )

  00407	83 7d 08 00	 cmp	 DWORD PTR _iBtnCount$[ebp], 0
  0040b	7f 0f		 jg	 SHORT $L197812

; 87   : 	{
; 88   : 		m_iBtnCount = 0;

  0040d	8b 45 fc	 mov	 eax, DWORD PTR _this$[ebp]
  00410	c7 80 80 00 00
	00 00 00 00 00	 mov	 DWORD PTR [eax+128], 0

; 89   : 	}
; 90   : 	else if( iBtnCount >= 2 )

  0041a	eb 22		 jmp	 SHORT $L197811
$L197812:
  0041c	83 7d 08 02	 cmp	 DWORD PTR _iBtnCount$[ebp], 2
  00420	7c 0f		 jl	 SHORT $L197814

; 91   : 	{
; 92   : 		m_iBtnCount = 2;

  00422	8b 4d fc	 mov	 ecx, DWORD PTR _this$[ebp]
  00425	c7 81 80 00 00
	00 02 00 00 00	 mov	 DWORD PTR [ecx+128], 2

; 93   : 	}
; 94   : 	else

  0042f	eb 0d		 jmp	 SHORT $L197811
$L197814:

; 95   : 	{
; 96   : 		m_iBtnCount =1;

  00431	8b 55 fc	 mov	 edx, DWORD PTR _this$[ebp]
  00434	c7 82 80 00 00
	00 01 00 00 00	 mov	 DWORD PTR [edx+128], 1
$L197811:

; 97   : 	}
; 98   : }

  0043e	8b e5		 mov	 esp, ebp
  00440	5d		 pop	 ebp
  00441	c2 04 00	 ret	 4
?SetBtnCount@CDialogMsg@@QAEXH@Z ENDP			; CDialogMsg::SetBtnCount
; Function compile flags: /Odt
_this$ = -4						; size = 4
_iBtnIdx$ = 8						; size = 4
_strText$ = 12						; size = 4
?SetBtnText@CDialogMsg@@QAEXHABV?$CStringT@DV?$StrTraitMFC_DLL@DV?$ChTraitsCRT@D@ATL@@@@@ATL@@@Z PROC NEAR ; CDialogMsg::SetBtnText
; _this$ = ecx

; 101  : {		

  00450	55		 push	 ebp
  00451	8b ec		 mov	 ebp, esp
  00453	51		 push	 ecx
  00454	89 4d fc	 mov	 DWORD PTR _this$[ebp], ecx

; 102  : 	if( iBtnIdx == 1 )

  00457	83 7d 08 01	 cmp	 DWORD PTR _iBtnIdx$[ebp], 1
  0045b	75 13		 jne	 SHORT $L197821

; 103  : 	{
; 104  : 		m_strBtnText1 = strText;

  0045d	8b 45 0c	 mov	 eax, DWORD PTR _strText$[ebp]
  00460	50		 push	 eax
  00461	8b 4d fc	 mov	 ecx, DWORD PTR _this$[ebp]
  00464	81 c1 84 00 00
	00		 add	 ecx, 132		; 00000084H
  0046a	ff 15 00 00 00
	00		 call	 DWORD PTR __imp_??4?$CStringT@DV?$StrTraitMFC_DLL@DV?$ChTraitsCRT@D@ATL@@@@@ATL@@QAEAAV01@ABV01@@Z
$L197821:

; 105  : 	}
; 106  : 	if( iBtnIdx == 2 )

  00470	83 7d 08 02	 cmp	 DWORD PTR _iBtnIdx$[ebp], 2
  00474	75 13		 jne	 SHORT $L197820

; 107  : 	{
; 108  : 		m_strBtnText2 = strText;

  00476	8b 4d 0c	 mov	 ecx, DWORD PTR _strText$[ebp]
  00479	51		 push	 ecx
  0047a	8b 4d fc	 mov	 ecx, DWORD PTR _this$[ebp]
  0047d	81 c1 88 00 00
	00		 add	 ecx, 136		; 00000088H
  00483	ff 15 00 00 00
	00		 call	 DWORD PTR __imp_??4?$CStringT@DV?$StrTraitMFC_DLL@DV?$ChTraitsCRT@D@ATL@@@@@ATL@@QAEAAV01@ABV01@@Z
$L197820:

; 109  : 	}
; 110  : }

  00489	8b e5		 mov	 esp, ebp
  0048b	5d		 pop	 ebp
  0048c	c2 08 00	 ret	 8
?SetBtnText@CDialogMsg@@QAEXHABV?$CStringT@DV?$StrTraitMFC_DLL@DV?$ChTraitsCRT@D@ATL@@@@@ATL@@@Z ENDP ; CDialogMsg::SetBtnText
; Function compile flags: /Odt
_this$ = -4						; size = 4
?OnBnClickedBtnClose@CDialogMsg@@QAEXXZ PROC NEAR	; CDialogMsg::OnBnClickedBtnClose
; _this$ = ecx

; 116  : {

  00490	55		 push	 ebp
  00491	8b ec		 mov	 ebp, esp
  00493	51		 push	 ecx
  00494	89 4d fc	 mov	 DWORD PTR _this$[ebp], ecx

; 117  : 	OnClickClose();

  00497	8b 45 fc	 mov	 eax, DWORD PTR _this$[ebp]
  0049a	8b 10		 mov	 edx, DWORD PTR [eax]
  0049c	8b 4d fc	 mov	 ecx, DWORD PTR _this$[ebp]
  0049f	ff 92 68 01 00
	00		 call	 DWORD PTR [edx+360]

; 118  : }

  004a5	8b e5		 mov	 esp, ebp
  004a7	5d		 pop	 ebp
  004a8	c3		 ret	 0
?OnBnClickedBtnClose@CDialogMsg@@QAEXXZ ENDP		; CDialogMsg::OnBnClickedBtnClose
; Function compile flags: /Odt
_this$ = -4						; size = 4
?OnBnClickedBtn1@CDialogMsg@@QAEXXZ PROC NEAR		; CDialogMsg::OnBnClickedBtn1
; _this$ = ecx

; 121  : {

  004b0	55		 push	 ebp
  004b1	8b ec		 mov	 ebp, esp
  004b3	51		 push	 ecx
  004b4	89 4d fc	 mov	 DWORD PTR _this$[ebp], ecx

; 122  : 	OnClickBtn1();

  004b7	8b 45 fc	 mov	 eax, DWORD PTR _this$[ebp]
  004ba	8b 10		 mov	 edx, DWORD PTR [eax]
  004bc	8b 4d fc	 mov	 ecx, DWORD PTR _this$[ebp]
  004bf	ff 92 60 01 00
	00		 call	 DWORD PTR [edx+352]

; 123  : }

  004c5	8b e5		 mov	 esp, ebp
  004c7	5d		 pop	 ebp
  004c8	c3		 ret	 0
?OnBnClickedBtn1@CDialogMsg@@QAEXXZ ENDP		; CDialogMsg::OnBnClickedBtn1
; Function compile flags: /Odt
_this$ = -4						; size = 4
?OnBnClickedBtn2@CDialogMsg@@QAEXXZ PROC NEAR		; CDialogMsg::OnBnClickedBtn2
; _this$ = ecx

; 126  : {

  004d0	55		 push	 ebp
  004d1	8b ec		 mov	 ebp, esp
  004d3	51		 push	 ecx
  004d4	89 4d fc	 mov	 DWORD PTR _this$[ebp], ecx

; 127  : 	OnClickBtn2();

  004d7	8b 45 fc	 mov	 eax, DWORD PTR _this$[ebp]
  004da	8b 10		 mov	 edx, DWORD PTR [eax]
  004dc	8b 4d fc	 mov	 ecx, DWORD PTR _this$[ebp]
  004df	ff 92 64 01 00
	00		 call	 DWORD PTR [edx+356]

; 128  : }

  004e5	8b e5		 mov	 esp, ebp
  004e7	5d		 pop	 ebp
  004e8	c3		 ret	 0
?OnBnClickedBtn2@CDialogMsg@@QAEXXZ ENDP		; CDialogMsg::OnBnClickedBtn2
_TEXT	ENDS
EXTRN	?EndDialog@CDialog@@QAEXH@Z:NEAR		; CDialog::EndDialog
EXTRN	__imp__IsWindowVisible@4:NEAR
; Function compile flags: /Odt
_TEXT	SEGMENT
_this$ = -4						; size = 4
?OnClickBtn1@CDialogMsg@@UAEXXZ PROC NEAR		; CDialogMsg::OnClickBtn1
; _this$ = ecx

; 131  : {

  004f0	55		 push	 ebp
  004f1	8b ec		 mov	 ebp, esp
  004f3	51		 push	 ecx
  004f4	89 4d fc	 mov	 DWORD PTR _this$[ebp], ecx

; 132  : 	if( ::IsWindowVisible( m_btnCheck.m_hWnd) || ::IsWindowVisible(m_btnUnCheck.m_hWnd))

  004f7	8b 45 fc	 mov	 eax, DWORD PTR _this$[ebp]
  004fa	8b 88 64 04 00
	00		 mov	 ecx, DWORD PTR [eax+1124]
  00500	51		 push	 ecx
  00501	ff 15 00 00 00
	00		 call	 DWORD PTR __imp__IsWindowVisible@4
  00507	85 c0		 test	 eax, eax
  00509	75 14		 jne	 SHORT $L197836
  0050b	8b 55 fc	 mov	 edx, DWORD PTR _this$[ebp]
  0050e	8b 82 88 05 00
	00		 mov	 eax, DWORD PTR [edx+1416]
  00514	50		 push	 eax
  00515	ff 15 00 00 00
	00		 call	 DWORD PTR __imp__IsWindowVisible@4
  0051b	85 c0		 test	 eax, eax
  0051d	74 0e		 je	 SHORT $L197835
$L197836:

; 133  : 	{
; 134  : 		CheckBox_Check();

  0051f	8b 4d fc	 mov	 ecx, DWORD PTR _this$[ebp]
  00522	8b 11		 mov	 edx, DWORD PTR [ecx]
  00524	8b 4d fc	 mov	 ecx, DWORD PTR _this$[ebp]
  00527	ff 92 6c 01 00
	00		 call	 DWORD PTR [edx+364]
$L197835:

; 135  : 	}
; 136  : 	EndDialog(1);

  0052d	6a 01		 push	 1
  0052f	8b 4d fc	 mov	 ecx, DWORD PTR _this$[ebp]
  00532	e8 00 00 00 00	 call	 ?EndDialog@CDialog@@QAEXH@Z ; CDialog::EndDialog

; 137  : }

  00537	8b e5		 mov	 esp, ebp
  00539	5d		 pop	 ebp
  0053a	c3		 ret	 0
?OnClickBtn1@CDialogMsg@@UAEXXZ ENDP			; CDialogMsg::OnClickBtn1
; Function compile flags: /Odt
_this$ = -4						; size = 4
?OnClickBtn2@CDialogMsg@@UAEXXZ PROC NEAR		; CDialogMsg::OnClickBtn2
; _this$ = ecx

; 140  : {

  00540	55		 push	 ebp
  00541	8b ec		 mov	 ebp, esp
  00543	51		 push	 ecx
  00544	89 4d fc	 mov	 DWORD PTR _this$[ebp], ecx

; 141  : 	if( ::IsWindowVisible( m_btnCheck.m_hWnd) || ::IsWindowVisible(m_btnUnCheck.m_hWnd))

  00547	8b 45 fc	 mov	 eax, DWORD PTR _this$[ebp]
  0054a	8b 88 64 04 00
	00		 mov	 ecx, DWORD PTR [eax+1124]
  00550	51		 push	 ecx
  00551	ff 15 00 00 00
	00		 call	 DWORD PTR __imp__IsWindowVisible@4
  00557	85 c0		 test	 eax, eax
  00559	75 14		 jne	 SHORT $L197841
  0055b	8b 55 fc	 mov	 edx, DWORD PTR _this$[ebp]
  0055e	8b 82 88 05 00
	00		 mov	 eax, DWORD PTR [edx+1416]
  00564	50		 push	 eax
  00565	ff 15 00 00 00
	00		 call	 DWORD PTR __imp__IsWindowVisible@4
  0056b	85 c0		 test	 eax, eax
  0056d	74 0e		 je	 SHORT $L197840
$L197841:

; 142  : 	{
; 143  : 		CheckBox_Check();

  0056f	8b 4d fc	 mov	 ecx, DWORD PTR _this$[ebp]
  00572	8b 11		 mov	 edx, DWORD PTR [ecx]
  00574	8b 4d fc	 mov	 ecx, DWORD PTR _this$[ebp]
  00577	ff 92 6c 01 00
	00		 call	 DWORD PTR [edx+364]
$L197840:

; 144  : 	}
; 145  : 	EndDialog(0);

  0057d	6a 00		 push	 0
  0057f	8b 4d fc	 mov	 ecx, DWORD PTR _this$[ebp]
  00582	e8 00 00 00 00	 call	 ?EndDialog@CDialog@@QAEXH@Z ; CDialog::EndDialog

; 146  : }

  00587	8b e5		 mov	 esp, ebp
  00589	5d		 pop	 ebp
  0058a	c3		 ret	 0
?OnClickBtn2@CDialogMsg@@UAEXXZ ENDP			; CDialogMsg::OnClickBtn2
; Function compile flags: /Odt
_this$ = -4						; size = 4
?OnClickClose@CDialogMsg@@UAEXXZ PROC NEAR		; CDialogMsg::OnClickClose
; _this$ = ecx

; 149  : {

  00590	55		 push	 ebp
  00591	8b ec		 mov	 ebp, esp
  00593	51		 push	 ecx
  00594	89 4d fc	 mov	 DWORD PTR _this$[ebp], ecx

; 150  : 	if( ::IsWindowVisible( m_btnCheck.m_hWnd) || ::IsWindowVisible(m_btnUnCheck.m_hWnd))

  00597	8b 45 fc	 mov	 eax, DWORD PTR _this$[ebp]
  0059a	8b 88 64 04 00
	00		 mov	 ecx, DWORD PTR [eax+1124]
  005a0	51		 push	 ecx
  005a1	ff 15 00 00 00
	00		 call	 DWORD PTR __imp__IsWindowVisible@4
  005a7	85 c0		 test	 eax, eax
  005a9	75 14		 jne	 SHORT $L197846
  005ab	8b 55 fc	 mov	 edx, DWORD PTR _this$[ebp]
  005ae	8b 82 88 05 00
	00		 mov	 eax, DWORD PTR [edx+1416]
  005b4	50		 push	 eax
  005b5	ff 15 00 00 00
	00		 call	 DWORD PTR __imp__IsWindowVisible@4
  005bb	85 c0		 test	 eax, eax
  005bd	74 0e		 je	 SHORT $L197845
$L197846:

; 151  : 	{
; 152  : 		CheckBox_Check();

  005bf	8b 4d fc	 mov	 ecx, DWORD PTR _this$[ebp]
  005c2	8b 11		 mov	 edx, DWORD PTR [ecx]
  005c4	8b 4d fc	 mov	 ecx, DWORD PTR _this$[ebp]
  005c7	ff 92 6c 01 00
	00		 call	 DWORD PTR [edx+364]
$L197845:

; 153  : 	}
; 154  : 	EndDialog(0);

  005cd	6a 00		 push	 0
  005cf	8b 4d fc	 mov	 ecx, DWORD PTR _this$[ebp]
  005d2	e8 00 00 00 00	 call	 ?EndDialog@CDialog@@QAEXH@Z ; CDialog::EndDialog

; 155  : }

  005d7	8b e5		 mov	 esp, ebp
  005d9	5d		 pop	 ebp
  005da	c3		 ret	 0
?OnClickClose@CDialogMsg@@UAEXXZ ENDP			; CDialogMsg::OnClickClose
; Function compile flags: /Odt
_this$ = -4						; size = 4
?OnOK@CDialogMsg@@MAEXXZ PROC NEAR			; CDialogMsg::OnOK
; _this$ = ecx

; 158  : {

  005e0	55		 push	 ebp
  005e1	8b ec		 mov	 ebp, esp
  005e3	51		 push	 ecx
  005e4	89 4d fc	 mov	 DWORD PTR _this$[ebp], ecx

; 159  : 	OnClickBtn1();

  005e7	8b 45 fc	 mov	 eax, DWORD PTR _this$[ebp]
  005ea	8b 10		 mov	 edx, DWORD PTR [eax]
  005ec	8b 4d fc	 mov	 ecx, DWORD PTR _this$[ebp]
  005ef	ff 92 60 01 00
	00		 call	 DWORD PTR [edx+352]

; 160  : }

  005f5	8b e5		 mov	 esp, ebp
  005f7	5d		 pop	 ebp
  005f8	c3		 ret	 0
?OnOK@CDialogMsg@@MAEXXZ ENDP				; CDialogMsg::OnOK
; Function compile flags: /Odt
_this$ = -4						; size = 4
?OnCancel@CDialogMsg@@MAEXXZ PROC NEAR			; CDialogMsg::OnCancel
; _this$ = ecx

; 163  : {

  00600	55		 push	 ebp
  00601	8b ec		 mov	 ebp, esp
  00603	51		 push	 ecx
  00604	89 4d fc	 mov	 DWORD PTR _this$[ebp], ecx

; 164  : 	OnClickClose();

  00607	8b 45 fc	 mov	 eax, DWORD PTR _this$[ebp]
  0060a	8b 10		 mov	 edx, DWORD PTR [eax]
  0060c	8b 4d fc	 mov	 ecx, DWORD PTR _this$[ebp]
  0060f	ff 92 68 01 00
	00		 call	 DWORD PTR [edx+360]

; 165  : }

  00615	8b e5		 mov	 esp, ebp
  00617	5d		 pop	 ebp
  00618	c3		 ret	 0
?OnCancel@CDialogMsg@@MAEXXZ ENDP			; CDialogMsg::OnCancel
_TEXT	ENDS
PUBLIC	??BCDC@@QBEPAUHDC__@@XZ				; CDC::operator HDC__ *
PUBLIC	??0CRect@@QAE@HHHH@Z				; CRect::CRect
PUBLIC	??BCRect@@QAEPAUtagRECT@@XZ			; CRect::operator tagRECT *
PUBLIC	??2CObject@@SGPAXI@Z				; CObject::operator new
PUBLIC	?DrawTextA@CDC@@QAEHABV?$CStringT@DV?$StrTraitMFC_DLL@DV?$ChTraitsCRT@D@ATL@@@@@ATL@@PAUtagRECT@@I@Z ; CDC::DrawTextA
EXTRN	___security_cookie:DWORD
EXTRN	@__security_check_cookie@4:NEAR
EXTRN	__imp_??B?$CSimpleStringT@D$00@ATL@@QBEPBDXZ:NEAR
EXTRN	??0CBufferDC@@QAE@PAUHDC__@@ABVCRect@@@Z:NEAR	; CBufferDC::CBufferDC
EXTRN	?SetBkMode@CDC@@QAEHH@Z:NEAR			; CDC::SetBkMode
EXTRN	__imp_?GetLength@?$CSimpleStringT@D$00@ATL@@QBEHXZ:NEAR
EXTRN	?Draw@CDibBitmap@@QAEHPAVCDC@@HKH@Z:NEAR	; CDibBitmap::Draw
EXTRN	?SetCDibRect@CDibBitmap@@QAEXVCRect@@@Z:NEAR	; CDibBitmap::SetCDibRect
EXTRN	?GetWidth@CDibBitmap@@QAEHXZ:NEAR		; CDibBitmap::GetWidth
EXTRN	?GetHeight@CDibBitmap@@QAEHXZ:NEAR		; CDibBitmap::GetHeight
EXTRN	__imp_?Find@?$CStringT@DV?$StrTraitMFC_DLL@DV?$ChTraitsCRT@D@ATL@@@@@ATL@@QBEHPBDH@Z:NEAR
EXTRN	__imp_?Mid@?$CStringT@DV?$StrTraitMFC_DLL@DV?$ChTraitsCRT@D@ATL@@@@@ATL@@QBE?AV12@HH@Z:NEAR
EXTRN	__imp_?Right@?$CStringT@DV?$StrTraitMFC_DLL@DV?$ChTraitsCRT@D@ATL@@@@@ATL@@QBE?AV12@H@Z:NEAR
EXTRN	__imp__GetTextExtentPointA@16:NEAR
EXTRN	??0CPaintDC@@QAE@PAVCWnd@@@Z:NEAR		; CPaintDC::CPaintDC
EXTRN	??1CPaintDC@@UAE@XZ:NEAR			; CPaintDC::~CPaintDC
EXTRN	?AfxGetUIManager@@YAPAVIUIManager@@XZ:NEAR	; AfxGetUIManager
xdata$x	SEGMENT
$T198673 DD	0ffffffffH
	DD	FLAT:$L198662
	DD	00H
	DD	FLAT:$L198663
	DD	00H
	DD	FLAT:$L198664
	DD	02H
	DD	FLAT:$L198665
	DD	02H
	DD	FLAT:$L198666
$T198668 DD	019930520H
	DD	05H
	DD	FLAT:$T198673
	DD	2 DUP(00H)
	DD	2 DUP(00H)
; Function compile flags: /Odt
xdata$x	ENDS
_TEXT	SEGMENT
tv470 = -280						; size = 4
tv477 = -276						; size = 4
tv478 = -272						; size = 4
tv475 = -268						; size = 4
tv343 = -264						; size = 4
tv87 = -260						; size = 4
tv85 = -256						; size = 4
_this$ = -252						; size = 4
$T198659 = -248						; size = 4
$T198658 = -244						; size = 4
$T198657 = -240						; size = 4
$T198656 = -236						; size = 4
$T198653 = -232						; size = 16
$T198652 = -216						; size = 4
$T198651 = -212						; size = 4
_s$197910 = -208					; size = 8
_pCenter$ = -200					; size = 4
_pBottomRight$ = -196					; size = 4
_str$ = -192						; size = 4
_rect2$ = -188						; size = 16
_iLastPos$ = -172					; size = 4
_pCenterLeft$ = -168					; size = 4
_pCenterRight$ = -164					; size = 4
_pTopMid$ = -160					; size = 4
_pDC$ = -156						; size = 4
_pBottomMid$ = -152					; size = 4
_pTopLeft$ = -148					; size = 4
_pBottomLeft$ = -144					; size = 4
_pFont$ = -140						; size = 4
_iStartPos$ = -136					; size = 4
_pSkinMgr$ = -132					; size = 4
_pTopRight$ = -128					; size = 4
_dc$ = -124						; size = 84
__$ArrayPad$ = -32					; size = 4
_rect$ = -28						; size = 16
__$EHRec$ = -12						; size = 12
__$ReturnAddr$ = 4					; size = 4
?OnPaint@CDialogMsg@@QAEXXZ PROC NEAR			; CDialogMsg::OnPaint
; _this$ = ecx

; 168  : {

  00620	55		 push	 ebp
  00621	8b ec		 mov	 ebp, esp
  00623	6a ff		 push	 -1
  00625	68 00 00 00 00	 push	 __ehhandler$?OnPaint@CDialogMsg@@QAEXXZ
  0062a	64 a1 00 00 00
	00		 mov	 eax, DWORD PTR fs:__except_list
  00630	50		 push	 eax
  00631	64 89 25 00 00
	00 00		 mov	 DWORD PTR fs:__except_list, esp
  00638	81 ec 0c 01 00
	00		 sub	 esp, 268		; 0000010cH
  0063e	a1 00 00 00 00	 mov	 eax, DWORD PTR ___security_cookie
  00643	89 45 e0	 mov	 DWORD PTR __$ArrayPad$[ebp], eax
  00646	89 8d 04 ff ff
	ff		 mov	 DWORD PTR _this$[ebp], ecx

; 169  : 	CPaintDC dc(this); 

  0064c	8b 85 04 ff ff
	ff		 mov	 eax, DWORD PTR _this$[ebp]
  00652	50		 push	 eax
  00653	8d 4d 84	 lea	 ecx, DWORD PTR _dc$[ebp]
  00656	e8 00 00 00 00	 call	 ??0CPaintDC@@QAE@PAVCWnd@@@Z ; CPaintDC::CPaintDC
  0065b	c7 45 fc 00 00
	00 00		 mov	 DWORD PTR __$EHRec$[ebp+8], 0

; 170  : 	CBufferDC* pDC = new CBufferDC(dc);

  00662	6a 30		 push	 48			; 00000030H
  00664	e8 00 00 00 00	 call	 ??2CObject@@SGPAXI@Z	; CObject::operator new
  00669	89 85 28 ff ff
	ff		 mov	 DWORD PTR $T198652[ebp], eax
  0066f	c6 45 fc 01	 mov	 BYTE PTR __$EHRec$[ebp+8], 1
  00673	83 bd 28 ff ff
	ff 00		 cmp	 DWORD PTR $T198652[ebp], 0
  0067a	74 30		 je	 SHORT $L198654
  0067c	6a 00		 push	 0
  0067e	6a 00		 push	 0
  00680	6a 00		 push	 0
  00682	6a 00		 push	 0
  00684	8d 8d 18 ff ff
	ff		 lea	 ecx, DWORD PTR $T198653[ebp]
  0068a	e8 00 00 00 00	 call	 ??0CRect@@QAE@HHHH@Z	; CRect::CRect
  0068f	50		 push	 eax
  00690	8d 4d 84	 lea	 ecx, DWORD PTR _dc$[ebp]
  00693	e8 00 00 00 00	 call	 ??BCDC@@QBEPAUHDC__@@XZ	; CDC::operator HDC__ *
  00698	50		 push	 eax
  00699	8b 8d 28 ff ff
	ff		 mov	 ecx, DWORD PTR $T198652[ebp]
  0069f	e8 00 00 00 00	 call	 ??0CBufferDC@@QAE@PAUHDC__@@ABVCRect@@@Z ; CBufferDC::CBufferDC
  006a4	89 85 00 ff ff
	ff		 mov	 DWORD PTR tv85[ebp], eax
  006aa	eb 0a		 jmp	 SHORT $L198655
$L198654:
  006ac	c7 85 00 ff ff
	ff 00 00 00 00	 mov	 DWORD PTR tv85[ebp], 0
$L198655:
  006b6	8b 8d 00 ff ff
	ff		 mov	 ecx, DWORD PTR tv85[ebp]
  006bc	89 8d 2c ff ff
	ff		 mov	 DWORD PTR $T198651[ebp], ecx
  006c2	c6 45 fc 00	 mov	 BYTE PTR __$EHRec$[ebp+8], 0
  006c6	8b 95 2c ff ff
	ff		 mov	 edx, DWORD PTR $T198651[ebp]
  006cc	89 95 64 ff ff
	ff		 mov	 DWORD PTR _pDC$[ebp], edx

; 171  : 
; 172  : 	ISkinMgr* pSkinMgr = AfxGetUIManager()->UIGetSkinMgr();

  006d2	e8 00 00 00 00	 call	 ?AfxGetUIManager@@YAPAVIUIManager@@XZ ; AfxGetUIManager
  006d7	89 85 fc fe ff
	ff		 mov	 DWORD PTR tv87[ebp], eax
  006dd	8b 85 fc fe ff
	ff		 mov	 eax, DWORD PTR tv87[ebp]
  006e3	8b 10		 mov	 edx, DWORD PTR [eax]
  006e5	8b 8d fc fe ff
	ff		 mov	 ecx, DWORD PTR tv87[ebp]
  006eb	ff 52 28	 call	 DWORD PTR [edx+40]
  006ee	89 85 7c ff ff
	ff		 mov	 DWORD PTR _pSkinMgr$[ebp], eax

; 173  : 	CDibBitmap* pTopLeft		= pSkinMgr->GetDibBmp("MSGDialogLeftTop");

  006f4	68 00 00 00 00	 push	 OFFSET FLAT:$SG197865
  006f9	8b 85 7c ff ff
	ff		 mov	 eax, DWORD PTR _pSkinMgr$[ebp]
  006ff	8b 10		 mov	 edx, DWORD PTR [eax]
  00701	8b 8d 7c ff ff
	ff		 mov	 ecx, DWORD PTR _pSkinMgr$[ebp]
  00707	ff 52 04	 call	 DWORD PTR [edx+4]
  0070a	89 85 6c ff ff
	ff		 mov	 DWORD PTR _pTopLeft$[ebp], eax

; 174  : 	CDibBitmap* pTopRight		= pSkinMgr->GetDibBmp("MSGDialogRightTop");

  00710	68 00 00 00 00	 push	 OFFSET FLAT:$SG197867
  00715	8b 85 7c ff ff
	ff		 mov	 eax, DWORD PTR _pSkinMgr$[ebp]
  0071b	8b 10		 mov	 edx, DWORD PTR [eax]
  0071d	8b 8d 7c ff ff
	ff		 mov	 ecx, DWORD PTR _pSkinMgr$[ebp]
  00723	ff 52 04	 call	 DWORD PTR [edx+4]
  00726	89 45 80	 mov	 DWORD PTR _pTopRight$[ebp], eax

; 175  : 	CDibBitmap* pTopMid			= pSkinMgr->GetDibBmp("MSGDialogMidTop");

  00729	68 00 00 00 00	 push	 OFFSET FLAT:$SG197869
  0072e	8b 85 7c ff ff
	ff		 mov	 eax, DWORD PTR _pSkinMgr$[ebp]
  00734	8b 10		 mov	 edx, DWORD PTR [eax]
  00736	8b 8d 7c ff ff
	ff		 mov	 ecx, DWORD PTR _pSkinMgr$[ebp]
  0073c	ff 52 04	 call	 DWORD PTR [edx+4]
  0073f	89 85 60 ff ff
	ff		 mov	 DWORD PTR _pTopMid$[ebp], eax

; 176  : 	CDibBitmap* pCenter			= pSkinMgr->GetDibBmp("MSGDialogMid");

  00745	68 00 00 00 00	 push	 OFFSET FLAT:$SG197871
  0074a	8b 85 7c ff ff
	ff		 mov	 eax, DWORD PTR _pSkinMgr$[ebp]
  00750	8b 10		 mov	 edx, DWORD PTR [eax]
  00752	8b 8d 7c ff ff
	ff		 mov	 ecx, DWORD PTR _pSkinMgr$[ebp]
  00758	ff 52 04	 call	 DWORD PTR [edx+4]
  0075b	89 85 38 ff ff
	ff		 mov	 DWORD PTR _pCenter$[ebp], eax

; 177  : 	CDibBitmap* pCenterLeft		= pSkinMgr->GetDibBmp("MSGDialogMidLeft");

  00761	68 00 00 00 00	 push	 OFFSET FLAT:$SG197873
  00766	8b 85 7c ff ff
	ff		 mov	 eax, DWORD PTR _pSkinMgr$[ebp]
  0076c	8b 10		 mov	 edx, DWORD PTR [eax]
  0076e	8b 8d 7c ff ff
	ff		 mov	 ecx, DWORD PTR _pSkinMgr$[ebp]
  00774	ff 52 04	 call	 DWORD PTR [edx+4]
  00777	89 85 58 ff ff
	ff		 mov	 DWORD PTR _pCenterLeft$[ebp], eax

; 178  : 	CDibBitmap* pCenterRight	= pSkinMgr->GetDibBmp("MSGDialogMidRight");

  0077d	68 00 00 00 00	 push	 OFFSET FLAT:$SG197875
  00782	8b 85 7c ff ff
	ff		 mov	 eax, DWORD PTR _pSkinMgr$[ebp]
  00788	8b 10		 mov	 edx, DWORD PTR [eax]
  0078a	8b 8d 7c ff ff
	ff		 mov	 ecx, DWORD PTR _pSkinMgr$[ebp]
  00790	ff 52 04	 call	 DWORD PTR [edx+4]
  00793	89 85 5c ff ff
	ff		 mov	 DWORD PTR _pCenterRight$[ebp], eax

; 179  : 	CDibBitmap* pBottomLeft		= pSkinMgr->GetDibBmp("MSGDialogLeftBottom");

  00799	68 00 00 00 00	 push	 OFFSET FLAT:$SG197877
  0079e	8b 85 7c ff ff
	ff		 mov	 eax, DWORD PTR _pSkinMgr$[ebp]
  007a4	8b 10		 mov	 edx, DWORD PTR [eax]
  007a6	8b 8d 7c ff ff
	ff		 mov	 ecx, DWORD PTR _pSkinMgr$[ebp]
  007ac	ff 52 04	 call	 DWORD PTR [edx+4]
  007af	89 85 70 ff ff
	ff		 mov	 DWORD PTR _pBottomLeft$[ebp], eax

; 180  : 	CDibBitmap* pBottomRight	= pSkinMgr->GetDibBmp("MSGDialogRightBottom");

  007b5	68 00 00 00 00	 push	 OFFSET FLAT:$SG197879
  007ba	8b 85 7c ff ff
	ff		 mov	 eax, DWORD PTR _pSkinMgr$[ebp]
  007c0	8b 10		 mov	 edx, DWORD PTR [eax]
  007c2	8b 8d 7c ff ff
	ff		 mov	 ecx, DWORD PTR _pSkinMgr$[ebp]
  007c8	ff 52 04	 call	 DWORD PTR [edx+4]
  007cb	89 85 3c ff ff
	ff		 mov	 DWORD PTR _pBottomRight$[ebp], eax

; 181  : 	CDibBitmap* pBottomMid		= pSkinMgr->GetDibBmp("MSGDialogMidBottom");

  007d1	68 00 00 00 00	 push	 OFFSET FLAT:$SG197881
  007d6	8b 85 7c ff ff
	ff		 mov	 eax, DWORD PTR _pSkinMgr$[ebp]
  007dc	8b 10		 mov	 edx, DWORD PTR [eax]
  007de	8b 8d 7c ff ff
	ff		 mov	 ecx, DWORD PTR _pSkinMgr$[ebp]
  007e4	ff 52 04	 call	 DWORD PTR [edx+4]
  007e7	89 85 68 ff ff
	ff		 mov	 DWORD PTR _pBottomMid$[ebp], eax

; 182  : 
; 183  : 	CRect rect;

  007ed	8d 4d e4	 lea	 ecx, DWORD PTR _rect$[ebp]
  007f0	e8 00 00 00 00	 call	 ??0CRect@@QAE@XZ	; CRect::CRect

; 184  : 	rect.left	= 0;

  007f5	c7 45 e4 00 00
	00 00		 mov	 DWORD PTR _rect$[ebp], 0

; 185  : 	rect.top	= 0;

  007fc	c7 45 e8 00 00
	00 00		 mov	 DWORD PTR _rect$[ebp+4], 0

; 186  : 	rect.right	= pTopLeft->GetWidth();

  00803	8b 8d 6c ff ff
	ff		 mov	 ecx, DWORD PTR _pTopLeft$[ebp]
  00809	e8 00 00 00 00	 call	 ?GetWidth@CDibBitmap@@QAEHXZ ; CDibBitmap::GetWidth
  0080e	89 45 ec	 mov	 DWORD PTR _rect$[ebp+8], eax

; 187  : 	rect.bottom = pTopLeft->GetHeight();

  00811	8b 8d 6c ff ff
	ff		 mov	 ecx, DWORD PTR _pTopLeft$[ebp]
  00817	e8 00 00 00 00	 call	 ?GetHeight@CDibBitmap@@QAEHXZ ; CDibBitmap::GetHeight
  0081c	89 45 f0	 mov	 DWORD PTR _rect$[ebp+12], eax

; 188  : 	pTopLeft->SetCDibRect(rect);

  0081f	83 ec 10	 sub	 esp, 16			; 00000010H
  00822	8b c4		 mov	 eax, esp
  00824	8b 4d e4	 mov	 ecx, DWORD PTR _rect$[ebp]
  00827	89 08		 mov	 DWORD PTR [eax], ecx
  00829	8b 55 e8	 mov	 edx, DWORD PTR _rect$[ebp+4]
  0082c	89 50 04	 mov	 DWORD PTR [eax+4], edx
  0082f	8b 4d ec	 mov	 ecx, DWORD PTR _rect$[ebp+8]
  00832	89 48 08	 mov	 DWORD PTR [eax+8], ecx
  00835	8b 55 f0	 mov	 edx, DWORD PTR _rect$[ebp+12]
  00838	89 50 0c	 mov	 DWORD PTR [eax+12], edx
  0083b	8b 8d 6c ff ff
	ff		 mov	 ecx, DWORD PTR _pTopLeft$[ebp]
  00841	e8 00 00 00 00	 call	 ?SetCDibRect@CDibBitmap@@QAEXVCRect@@@Z ; CDibBitmap::SetCDibRect

; 189  : 	pTopLeft->Draw( pDC,TRUE );

  00846	6a 01		 push	 1
  00848	6a 00		 push	 0
  0084a	6a 01		 push	 1
  0084c	8b 85 64 ff ff
	ff		 mov	 eax, DWORD PTR _pDC$[ebp]
  00852	50		 push	 eax
  00853	8b 8d 6c ff ff
	ff		 mov	 ecx, DWORD PTR _pTopLeft$[ebp]
  00859	e8 00 00 00 00	 call	 ?Draw@CDibBitmap@@QAEHPAVCDC@@HKH@Z ; CDibBitmap::Draw

; 190  : 
; 191  : 	rect.right	= m_iXSize;

  0085e	8b 8d 04 ff ff
	ff		 mov	 ecx, DWORD PTR _this$[ebp]
  00864	8b 51 78	 mov	 edx, DWORD PTR [ecx+120]
  00867	89 55 ec	 mov	 DWORD PTR _rect$[ebp+8], edx

; 192  : 	rect.left	= m_iXSize - pTopRight->GetWidth();

  0086a	8b 4d 80	 mov	 ecx, DWORD PTR _pTopRight$[ebp]
  0086d	e8 00 00 00 00	 call	 ?GetWidth@CDibBitmap@@QAEHXZ ; CDibBitmap::GetWidth
  00872	8b 8d 04 ff ff
	ff		 mov	 ecx, DWORD PTR _this$[ebp]
  00878	8b 51 78	 mov	 edx, DWORD PTR [ecx+120]
  0087b	2b d0		 sub	 edx, eax
  0087d	89 55 e4	 mov	 DWORD PTR _rect$[ebp], edx

; 193  : 	rect.top	= 0;	

  00880	c7 45 e8 00 00
	00 00		 mov	 DWORD PTR _rect$[ebp+4], 0

; 194  : 	rect.bottom = pTopLeft->GetHeight();

  00887	8b 8d 6c ff ff
	ff		 mov	 ecx, DWORD PTR _pTopLeft$[ebp]
  0088d	e8 00 00 00 00	 call	 ?GetHeight@CDibBitmap@@QAEHXZ ; CDibBitmap::GetHeight
  00892	89 45 f0	 mov	 DWORD PTR _rect$[ebp+12], eax

; 195  : 	pTopRight->SetCDibRect(rect);

  00895	83 ec 10	 sub	 esp, 16			; 00000010H
  00898	8b c4		 mov	 eax, esp
  0089a	8b 4d e4	 mov	 ecx, DWORD PTR _rect$[ebp]
  0089d	89 08		 mov	 DWORD PTR [eax], ecx
  0089f	8b 55 e8	 mov	 edx, DWORD PTR _rect$[ebp+4]
  008a2	89 50 04	 mov	 DWORD PTR [eax+4], edx
  008a5	8b 4d ec	 mov	 ecx, DWORD PTR _rect$[ebp+8]
  008a8	89 48 08	 mov	 DWORD PTR [eax+8], ecx
  008ab	8b 55 f0	 mov	 edx, DWORD PTR _rect$[ebp+12]
  008ae	89 50 0c	 mov	 DWORD PTR [eax+12], edx
  008b1	8b 4d 80	 mov	 ecx, DWORD PTR _pTopRight$[ebp]
  008b4	e8 00 00 00 00	 call	 ?SetCDibRect@CDibBitmap@@QAEXVCRect@@@Z ; CDibBitmap::SetCDibRect

; 196  : 	pTopRight->Draw( pDC,TRUE );

  008b9	6a 01		 push	 1
  008bb	6a 00		 push	 0
  008bd	6a 01		 push	 1
  008bf	8b 85 64 ff ff
	ff		 mov	 eax, DWORD PTR _pDC$[ebp]
  008c5	50		 push	 eax
  008c6	8b 4d 80	 mov	 ecx, DWORD PTR _pTopRight$[ebp]
  008c9	e8 00 00 00 00	 call	 ?Draw@CDibBitmap@@QAEHPAVCDC@@HKH@Z ; CDibBitmap::Draw

; 197  : 
; 198  : 	rect.right	= m_iXSize-pTopRight->GetWidth();

  008ce	8b 4d 80	 mov	 ecx, DWORD PTR _pTopRight$[ebp]
  008d1	e8 00 00 00 00	 call	 ?GetWidth@CDibBitmap@@QAEHXZ ; CDibBitmap::GetWidth
  008d6	8b 8d 04 ff ff
	ff		 mov	 ecx, DWORD PTR _this$[ebp]
  008dc	8b 51 78	 mov	 edx, DWORD PTR [ecx+120]
  008df	2b d0		 sub	 edx, eax
  008e1	89 55 ec	 mov	 DWORD PTR _rect$[ebp+8], edx

; 199  : 	rect.left	= pTopLeft->GetWidth();;

  008e4	8b 8d 6c ff ff
	ff		 mov	 ecx, DWORD PTR _pTopLeft$[ebp]
  008ea	e8 00 00 00 00	 call	 ?GetWidth@CDibBitmap@@QAEHXZ ; CDibBitmap::GetWidth
  008ef	89 45 e4	 mov	 DWORD PTR _rect$[ebp], eax

; 200  : 	rect.top	= 0;	

  008f2	c7 45 e8 00 00
	00 00		 mov	 DWORD PTR _rect$[ebp+4], 0

; 201  : 	rect.bottom = pTopLeft->GetHeight();

  008f9	8b 8d 6c ff ff
	ff		 mov	 ecx, DWORD PTR _pTopLeft$[ebp]
  008ff	e8 00 00 00 00	 call	 ?GetHeight@CDibBitmap@@QAEHXZ ; CDibBitmap::GetHeight
  00904	89 45 f0	 mov	 DWORD PTR _rect$[ebp+12], eax

; 202  : 	pTopMid->SetCDibRect(rect);

  00907	83 ec 10	 sub	 esp, 16			; 00000010H
  0090a	8b c4		 mov	 eax, esp
  0090c	8b 4d e4	 mov	 ecx, DWORD PTR _rect$[ebp]
  0090f	89 08		 mov	 DWORD PTR [eax], ecx
  00911	8b 55 e8	 mov	 edx, DWORD PTR _rect$[ebp+4]
  00914	89 50 04	 mov	 DWORD PTR [eax+4], edx
  00917	8b 4d ec	 mov	 ecx, DWORD PTR _rect$[ebp+8]
  0091a	89 48 08	 mov	 DWORD PTR [eax+8], ecx
  0091d	8b 55 f0	 mov	 edx, DWORD PTR _rect$[ebp+12]
  00920	89 50 0c	 mov	 DWORD PTR [eax+12], edx
  00923	8b 8d 60 ff ff
	ff		 mov	 ecx, DWORD PTR _pTopMid$[ebp]
  00929	e8 00 00 00 00	 call	 ?SetCDibRect@CDibBitmap@@QAEXVCRect@@@Z ; CDibBitmap::SetCDibRect

; 203  : 	pTopMid->Draw( pDC,TRUE );

  0092e	6a 01		 push	 1
  00930	6a 00		 push	 0
  00932	6a 01		 push	 1
  00934	8b 85 64 ff ff
	ff		 mov	 eax, DWORD PTR _pDC$[ebp]
  0093a	50		 push	 eax
  0093b	8b 8d 60 ff ff
	ff		 mov	 ecx, DWORD PTR _pTopMid$[ebp]
  00941	e8 00 00 00 00	 call	 ?Draw@CDibBitmap@@QAEHPAVCDC@@HKH@Z ; CDibBitmap::Draw

; 204  : 
; 205  : 	rect.left	= 0;

  00946	c7 45 e4 00 00
	00 00		 mov	 DWORD PTR _rect$[ebp], 0

; 206  : 	rect.right  = pBottomLeft->GetWidth();

  0094d	8b 8d 70 ff ff
	ff		 mov	 ecx, DWORD PTR _pBottomLeft$[ebp]
  00953	e8 00 00 00 00	 call	 ?GetWidth@CDibBitmap@@QAEHXZ ; CDibBitmap::GetWidth
  00958	89 45 ec	 mov	 DWORD PTR _rect$[ebp+8], eax

; 207  : 	rect.bottom	= m_iYSize;

  0095b	8b 8d 04 ff ff
	ff		 mov	 ecx, DWORD PTR _this$[ebp]
  00961	8b 51 7c	 mov	 edx, DWORD PTR [ecx+124]
  00964	89 55 f0	 mov	 DWORD PTR _rect$[ebp+12], edx

; 208  : 	rect.top	= rect.bottom - pBottomLeft->GetHeight();

  00967	8b 8d 70 ff ff
	ff		 mov	 ecx, DWORD PTR _pBottomLeft$[ebp]
  0096d	e8 00 00 00 00	 call	 ?GetHeight@CDibBitmap@@QAEHXZ ; CDibBitmap::GetHeight
  00972	8b 4d f0	 mov	 ecx, DWORD PTR _rect$[ebp+12]
  00975	2b c8		 sub	 ecx, eax
  00977	89 4d e8	 mov	 DWORD PTR _rect$[ebp+4], ecx

; 209  : 	pBottomLeft->SetCDibRect(rect);

  0097a	83 ec 10	 sub	 esp, 16			; 00000010H
  0097d	8b d4		 mov	 edx, esp
  0097f	8b 45 e4	 mov	 eax, DWORD PTR _rect$[ebp]
  00982	89 02		 mov	 DWORD PTR [edx], eax
  00984	8b 4d e8	 mov	 ecx, DWORD PTR _rect$[ebp+4]
  00987	89 4a 04	 mov	 DWORD PTR [edx+4], ecx
  0098a	8b 45 ec	 mov	 eax, DWORD PTR _rect$[ebp+8]
  0098d	89 42 08	 mov	 DWORD PTR [edx+8], eax
  00990	8b 4d f0	 mov	 ecx, DWORD PTR _rect$[ebp+12]
  00993	89 4a 0c	 mov	 DWORD PTR [edx+12], ecx
  00996	8b 8d 70 ff ff
	ff		 mov	 ecx, DWORD PTR _pBottomLeft$[ebp]
  0099c	e8 00 00 00 00	 call	 ?SetCDibRect@CDibBitmap@@QAEXVCRect@@@Z ; CDibBitmap::SetCDibRect

; 210  : 	pBottomLeft->Draw( pDC,TRUE );

  009a1	6a 01		 push	 1
  009a3	6a 00		 push	 0
  009a5	6a 01		 push	 1
  009a7	8b 95 64 ff ff
	ff		 mov	 edx, DWORD PTR _pDC$[ebp]
  009ad	52		 push	 edx
  009ae	8b 8d 70 ff ff
	ff		 mov	 ecx, DWORD PTR _pBottomLeft$[ebp]
  009b4	e8 00 00 00 00	 call	 ?Draw@CDibBitmap@@QAEHPAVCDC@@HKH@Z ; CDibBitmap::Draw

; 211  : 
; 212  : 	rect.left	= m_iXSize-pBottomRight->GetWidth();

  009b9	8b 8d 3c ff ff
	ff		 mov	 ecx, DWORD PTR _pBottomRight$[ebp]
  009bf	e8 00 00 00 00	 call	 ?GetWidth@CDibBitmap@@QAEHXZ ; CDibBitmap::GetWidth
  009c4	8b 8d 04 ff ff
	ff		 mov	 ecx, DWORD PTR _this$[ebp]
  009ca	8b 51 78	 mov	 edx, DWORD PTR [ecx+120]
  009cd	2b d0		 sub	 edx, eax
  009cf	89 55 e4	 mov	 DWORD PTR _rect$[ebp], edx

; 213  : 	rect.right  = m_iXSize;

  009d2	8b 85 04 ff ff
	ff		 mov	 eax, DWORD PTR _this$[ebp]
  009d8	8b 48 78	 mov	 ecx, DWORD PTR [eax+120]
  009db	89 4d ec	 mov	 DWORD PTR _rect$[ebp+8], ecx

; 214  : 	rect.bottom	= m_iYSize;

  009de	8b 95 04 ff ff
	ff		 mov	 edx, DWORD PTR _this$[ebp]
  009e4	8b 42 7c	 mov	 eax, DWORD PTR [edx+124]
  009e7	89 45 f0	 mov	 DWORD PTR _rect$[ebp+12], eax

; 215  : 	rect.top	= rect.bottom - pBottomLeft->GetHeight();

  009ea	8b 8d 70 ff ff
	ff		 mov	 ecx, DWORD PTR _pBottomLeft$[ebp]
  009f0	e8 00 00 00 00	 call	 ?GetHeight@CDibBitmap@@QAEHXZ ; CDibBitmap::GetHeight
  009f5	8b 4d f0	 mov	 ecx, DWORD PTR _rect$[ebp+12]
  009f8	2b c8		 sub	 ecx, eax
  009fa	89 4d e8	 mov	 DWORD PTR _rect$[ebp+4], ecx

; 216  : 	pBottomRight->SetCDibRect(rect);

  009fd	83 ec 10	 sub	 esp, 16			; 00000010H
  00a00	8b d4		 mov	 edx, esp
  00a02	8b 45 e4	 mov	 eax, DWORD PTR _rect$[ebp]
  00a05	89 02		 mov	 DWORD PTR [edx], eax
  00a07	8b 4d e8	 mov	 ecx, DWORD PTR _rect$[ebp+4]
  00a0a	89 4a 04	 mov	 DWORD PTR [edx+4], ecx
  00a0d	8b 45 ec	 mov	 eax, DWORD PTR _rect$[ebp+8]
  00a10	89 42 08	 mov	 DWORD PTR [edx+8], eax
  00a13	8b 4d f0	 mov	 ecx, DWORD PTR _rect$[ebp+12]
  00a16	89 4a 0c	 mov	 DWORD PTR [edx+12], ecx
  00a19	8b 8d 3c ff ff
	ff		 mov	 ecx, DWORD PTR _pBottomRight$[ebp]
  00a1f	e8 00 00 00 00	 call	 ?SetCDibRect@CDibBitmap@@QAEXVCRect@@@Z ; CDibBitmap::SetCDibRect

; 217  : 	pBottomRight->Draw( pDC,TRUE );

  00a24	6a 01		 push	 1
  00a26	6a 00		 push	 0
  00a28	6a 01		 push	 1
  00a2a	8b 95 64 ff ff
	ff		 mov	 edx, DWORD PTR _pDC$[ebp]
  00a30	52		 push	 edx
  00a31	8b 8d 3c ff ff
	ff		 mov	 ecx, DWORD PTR _pBottomRight$[ebp]
  00a37	e8 00 00 00 00	 call	 ?Draw@CDibBitmap@@QAEHPAVCDC@@HKH@Z ; CDibBitmap::Draw

; 218  : 
; 219  : 	rect.right	= m_iXSize-pBottomRight->GetWidth();

  00a3c	8b 8d 3c ff ff
	ff		 mov	 ecx, DWORD PTR _pBottomRight$[ebp]
  00a42	e8 00 00 00 00	 call	 ?GetWidth@CDibBitmap@@QAEHXZ ; CDibBitmap::GetWidth
  00a47	8b 8d 04 ff ff
	ff		 mov	 ecx, DWORD PTR _this$[ebp]
  00a4d	8b 51 78	 mov	 edx, DWORD PTR [ecx+120]
  00a50	2b d0		 sub	 edx, eax
  00a52	89 55 ec	 mov	 DWORD PTR _rect$[ebp+8], edx

; 220  : 	rect.left	= pBottomLeft->GetWidth();;

  00a55	8b 8d 70 ff ff
	ff		 mov	 ecx, DWORD PTR _pBottomLeft$[ebp]
  00a5b	e8 00 00 00 00	 call	 ?GetWidth@CDibBitmap@@QAEHXZ ; CDibBitmap::GetWidth
  00a60	89 45 e4	 mov	 DWORD PTR _rect$[ebp], eax

; 221  : 	rect.top	= m_iYSize - pBottomMid->GetHeight();	

  00a63	8b 8d 68 ff ff
	ff		 mov	 ecx, DWORD PTR _pBottomMid$[ebp]
  00a69	e8 00 00 00 00	 call	 ?GetHeight@CDibBitmap@@QAEHXZ ; CDibBitmap::GetHeight
  00a6e	8b 8d 04 ff ff
	ff		 mov	 ecx, DWORD PTR _this$[ebp]
  00a74	8b 51 7c	 mov	 edx, DWORD PTR [ecx+124]
  00a77	2b d0		 sub	 edx, eax
  00a79	89 55 e8	 mov	 DWORD PTR _rect$[ebp+4], edx

; 222  : 	rect.bottom = m_iYSize;

  00a7c	8b 85 04 ff ff
	ff		 mov	 eax, DWORD PTR _this$[ebp]
  00a82	8b 48 7c	 mov	 ecx, DWORD PTR [eax+124]
  00a85	89 4d f0	 mov	 DWORD PTR _rect$[ebp+12], ecx

; 223  : 	pBottomMid->SetCDibRect(rect);

  00a88	83 ec 10	 sub	 esp, 16			; 00000010H
  00a8b	8b d4		 mov	 edx, esp
  00a8d	8b 45 e4	 mov	 eax, DWORD PTR _rect$[ebp]
  00a90	89 02		 mov	 DWORD PTR [edx], eax
  00a92	8b 4d e8	 mov	 ecx, DWORD PTR _rect$[ebp+4]
  00a95	89 4a 04	 mov	 DWORD PTR [edx+4], ecx
  00a98	8b 45 ec	 mov	 eax, DWORD PTR _rect$[ebp+8]
  00a9b	89 42 08	 mov	 DWORD PTR [edx+8], eax
  00a9e	8b 4d f0	 mov	 ecx, DWORD PTR _rect$[ebp+12]
  00aa1	89 4a 0c	 mov	 DWORD PTR [edx+12], ecx
  00aa4	8b 8d 68 ff ff
	ff		 mov	 ecx, DWORD PTR _pBottomMid$[ebp]
  00aaa	e8 00 00 00 00	 call	 ?SetCDibRect@CDibBitmap@@QAEXVCRect@@@Z ; CDibBitmap::SetCDibRect

; 224  : 	pBottomMid->Draw( pDC,TRUE );

  00aaf	6a 01		 push	 1
  00ab1	6a 00		 push	 0
  00ab3	6a 01		 push	 1
  00ab5	8b 95 64 ff ff
	ff		 mov	 edx, DWORD PTR _pDC$[ebp]
  00abb	52		 push	 edx
  00abc	8b 8d 68 ff ff
	ff		 mov	 ecx, DWORD PTR _pBottomMid$[ebp]
  00ac2	e8 00 00 00 00	 call	 ?Draw@CDibBitmap@@QAEHPAVCDC@@HKH@Z ; CDibBitmap::Draw

; 225  : 
; 226  : 	rect.left	= 0;

  00ac7	c7 45 e4 00 00
	00 00		 mov	 DWORD PTR _rect$[ebp], 0

; 227  : 	rect.right  = pCenterLeft->GetWidth();

  00ace	8b 8d 58 ff ff
	ff		 mov	 ecx, DWORD PTR _pCenterLeft$[ebp]
  00ad4	e8 00 00 00 00	 call	 ?GetWidth@CDibBitmap@@QAEHXZ ; CDibBitmap::GetWidth
  00ad9	89 45 ec	 mov	 DWORD PTR _rect$[ebp+8], eax

; 228  : 	rect.bottom	= m_iYSize-pBottomLeft->GetHeight();

  00adc	8b 8d 70 ff ff
	ff		 mov	 ecx, DWORD PTR _pBottomLeft$[ebp]
  00ae2	e8 00 00 00 00	 call	 ?GetHeight@CDibBitmap@@QAEHXZ ; CDibBitmap::GetHeight
  00ae7	8b 8d 04 ff ff
	ff		 mov	 ecx, DWORD PTR _this$[ebp]
  00aed	8b 51 7c	 mov	 edx, DWORD PTR [ecx+124]
  00af0	2b d0		 sub	 edx, eax
  00af2	89 55 f0	 mov	 DWORD PTR _rect$[ebp+12], edx

; 229  : 	rect.top	= pTopLeft->GetHeight();

  00af5	8b 8d 6c ff ff
	ff		 mov	 ecx, DWORD PTR _pTopLeft$[ebp]
  00afb	e8 00 00 00 00	 call	 ?GetHeight@CDibBitmap@@QAEHXZ ; CDibBitmap::GetHeight
  00b00	89 45 e8	 mov	 DWORD PTR _rect$[ebp+4], eax

; 230  : 	pCenterLeft->SetCDibRect(rect);

  00b03	83 ec 10	 sub	 esp, 16			; 00000010H
  00b06	8b c4		 mov	 eax, esp
  00b08	8b 4d e4	 mov	 ecx, DWORD PTR _rect$[ebp]
  00b0b	89 08		 mov	 DWORD PTR [eax], ecx
  00b0d	8b 55 e8	 mov	 edx, DWORD PTR _rect$[ebp+4]
  00b10	89 50 04	 mov	 DWORD PTR [eax+4], edx
  00b13	8b 4d ec	 mov	 ecx, DWORD PTR _rect$[ebp+8]
  00b16	89 48 08	 mov	 DWORD PTR [eax+8], ecx
  00b19	8b 55 f0	 mov	 edx, DWORD PTR _rect$[ebp+12]
  00b1c	89 50 0c	 mov	 DWORD PTR [eax+12], edx
  00b1f	8b 8d 58 ff ff
	ff		 mov	 ecx, DWORD PTR _pCenterLeft$[ebp]
  00b25	e8 00 00 00 00	 call	 ?SetCDibRect@CDibBitmap@@QAEXVCRect@@@Z ; CDibBitmap::SetCDibRect

; 231  : 	pCenterLeft->Draw( pDC,TRUE );

  00b2a	6a 01		 push	 1
  00b2c	6a 00		 push	 0
  00b2e	6a 01		 push	 1
  00b30	8b 85 64 ff ff
	ff		 mov	 eax, DWORD PTR _pDC$[ebp]
  00b36	50		 push	 eax
  00b37	8b 8d 58 ff ff
	ff		 mov	 ecx, DWORD PTR _pCenterLeft$[ebp]
  00b3d	e8 00 00 00 00	 call	 ?Draw@CDibBitmap@@QAEHPAVCDC@@HKH@Z ; CDibBitmap::Draw

; 232  : 
; 233  : 	rect.left	= m_iXSize-pCenterRight->GetWidth();

  00b42	8b 8d 5c ff ff
	ff		 mov	 ecx, DWORD PTR _pCenterRight$[ebp]
  00b48	e8 00 00 00 00	 call	 ?GetWidth@CDibBitmap@@QAEHXZ ; CDibBitmap::GetWidth
  00b4d	8b 8d 04 ff ff
	ff		 mov	 ecx, DWORD PTR _this$[ebp]
  00b53	8b 51 78	 mov	 edx, DWORD PTR [ecx+120]
  00b56	2b d0		 sub	 edx, eax
  00b58	89 55 e4	 mov	 DWORD PTR _rect$[ebp], edx

; 234  : 	rect.right  = m_iXSize;

  00b5b	8b 85 04 ff ff
	ff		 mov	 eax, DWORD PTR _this$[ebp]
  00b61	8b 48 78	 mov	 ecx, DWORD PTR [eax+120]
  00b64	89 4d ec	 mov	 DWORD PTR _rect$[ebp+8], ecx

; 235  : 	rect.bottom	= m_iYSize-pBottomRight->GetHeight();

  00b67	8b 8d 3c ff ff
	ff		 mov	 ecx, DWORD PTR _pBottomRight$[ebp]
  00b6d	e8 00 00 00 00	 call	 ?GetHeight@CDibBitmap@@QAEHXZ ; CDibBitmap::GetHeight
  00b72	8b 95 04 ff ff
	ff		 mov	 edx, DWORD PTR _this$[ebp]
  00b78	8b 4a 7c	 mov	 ecx, DWORD PTR [edx+124]
  00b7b	2b c8		 sub	 ecx, eax
  00b7d	89 4d f0	 mov	 DWORD PTR _rect$[ebp+12], ecx

; 236  : 	rect.top	= pTopRight->GetHeight();

  00b80	8b 4d 80	 mov	 ecx, DWORD PTR _pTopRight$[ebp]
  00b83	e8 00 00 00 00	 call	 ?GetHeight@CDibBitmap@@QAEHXZ ; CDibBitmap::GetHeight
  00b88	89 45 e8	 mov	 DWORD PTR _rect$[ebp+4], eax

; 237  : 	pCenterRight->SetCDibRect(rect);

  00b8b	83 ec 10	 sub	 esp, 16			; 00000010H
  00b8e	8b d4		 mov	 edx, esp
  00b90	8b 45 e4	 mov	 eax, DWORD PTR _rect$[ebp]
  00b93	89 02		 mov	 DWORD PTR [edx], eax
  00b95	8b 4d e8	 mov	 ecx, DWORD PTR _rect$[ebp+4]
  00b98	89 4a 04	 mov	 DWORD PTR [edx+4], ecx
  00b9b	8b 45 ec	 mov	 eax, DWORD PTR _rect$[ebp+8]
  00b9e	89 42 08	 mov	 DWORD PTR [edx+8], eax
  00ba1	8b 4d f0	 mov	 ecx, DWORD PTR _rect$[ebp+12]
  00ba4	89 4a 0c	 mov	 DWORD PTR [edx+12], ecx
  00ba7	8b 8d 5c ff ff
	ff		 mov	 ecx, DWORD PTR _pCenterRight$[ebp]
  00bad	e8 00 00 00 00	 call	 ?SetCDibRect@CDibBitmap@@QAEXVCRect@@@Z ; CDibBitmap::SetCDibRect

; 238  : 	pCenterRight->Draw( pDC,TRUE );

  00bb2	6a 01		 push	 1
  00bb4	6a 00		 push	 0
  00bb6	6a 01		 push	 1
  00bb8	8b 95 64 ff ff
	ff		 mov	 edx, DWORD PTR _pDC$[ebp]
  00bbe	52		 push	 edx
  00bbf	8b 8d 5c ff ff
	ff		 mov	 ecx, DWORD PTR _pCenterRight$[ebp]
  00bc5	e8 00 00 00 00	 call	 ?Draw@CDibBitmap@@QAEHPAVCDC@@HKH@Z ; CDibBitmap::Draw

; 239  : 
; 240  : 	rect.left	= pCenterLeft->GetWidth();

  00bca	8b 8d 58 ff ff
	ff		 mov	 ecx, DWORD PTR _pCenterLeft$[ebp]
  00bd0	e8 00 00 00 00	 call	 ?GetWidth@CDibBitmap@@QAEHXZ ; CDibBitmap::GetWidth
  00bd5	89 45 e4	 mov	 DWORD PTR _rect$[ebp], eax

; 241  : 	rect.right  = m_iXSize-pCenterRight->GetWidth();

  00bd8	8b 8d 5c ff ff
	ff		 mov	 ecx, DWORD PTR _pCenterRight$[ebp]
  00bde	e8 00 00 00 00	 call	 ?GetWidth@CDibBitmap@@QAEHXZ ; CDibBitmap::GetWidth
  00be3	8b 8d 04 ff ff
	ff		 mov	 ecx, DWORD PTR _this$[ebp]
  00be9	8b 51 78	 mov	 edx, DWORD PTR [ecx+120]
  00bec	2b d0		 sub	 edx, eax
  00bee	89 55 ec	 mov	 DWORD PTR _rect$[ebp+8], edx

; 242  : 	rect.bottom	= m_iYSize-pBottomRight->GetHeight();

  00bf1	8b 8d 3c ff ff
	ff		 mov	 ecx, DWORD PTR _pBottomRight$[ebp]
  00bf7	e8 00 00 00 00	 call	 ?GetHeight@CDibBitmap@@QAEHXZ ; CDibBitmap::GetHeight
  00bfc	8b 8d 04 ff ff
	ff		 mov	 ecx, DWORD PTR _this$[ebp]
  00c02	8b 51 7c	 mov	 edx, DWORD PTR [ecx+124]
  00c05	2b d0		 sub	 edx, eax
  00c07	89 55 f0	 mov	 DWORD PTR _rect$[ebp+12], edx

; 243  : 	rect.top	= pTopRight->GetHeight();

  00c0a	8b 4d 80	 mov	 ecx, DWORD PTR _pTopRight$[ebp]
  00c0d	e8 00 00 00 00	 call	 ?GetHeight@CDibBitmap@@QAEHXZ ; CDibBitmap::GetHeight
  00c12	89 45 e8	 mov	 DWORD PTR _rect$[ebp+4], eax

; 244  : 	pCenter->SetCDibRect(rect);

  00c15	83 ec 10	 sub	 esp, 16			; 00000010H
  00c18	8b c4		 mov	 eax, esp
  00c1a	8b 4d e4	 mov	 ecx, DWORD PTR _rect$[ebp]
  00c1d	89 08		 mov	 DWORD PTR [eax], ecx
  00c1f	8b 55 e8	 mov	 edx, DWORD PTR _rect$[ebp+4]
  00c22	89 50 04	 mov	 DWORD PTR [eax+4], edx
  00c25	8b 4d ec	 mov	 ecx, DWORD PTR _rect$[ebp+8]
  00c28	89 48 08	 mov	 DWORD PTR [eax+8], ecx
  00c2b	8b 55 f0	 mov	 edx, DWORD PTR _rect$[ebp+12]
  00c2e	89 50 0c	 mov	 DWORD PTR [eax+12], edx
  00c31	8b 8d 38 ff ff
	ff		 mov	 ecx, DWORD PTR _pCenter$[ebp]
  00c37	e8 00 00 00 00	 call	 ?SetCDibRect@CDibBitmap@@QAEXVCRect@@@Z ; CDibBitmap::SetCDibRect

; 245  : 	pCenter->Draw( pDC,TRUE );

  00c3c	6a 01		 push	 1
  00c3e	6a 00		 push	 0
  00c40	6a 01		 push	 1
  00c42	8b 85 64 ff ff
	ff		 mov	 eax, DWORD PTR _pDC$[ebp]
  00c48	50		 push	 eax
  00c49	8b 8d 38 ff ff
	ff		 mov	 ecx, DWORD PTR _pCenter$[ebp]
  00c4f	e8 00 00 00 00	 call	 ?Draw@CDibBitmap@@QAEHPAVCDC@@HKH@Z ; CDibBitmap::Draw

; 246  : 
; 247  : 	CFont* pFont = (CFont*)pDC->SelectObject( &m_titleFont );

  00c54	8b 8d 04 ff ff
	ff		 mov	 ecx, DWORD PTR _this$[ebp]
  00c5a	81 c1 c0 00 00
	00		 add	 ecx, 192		; 000000c0H
  00c60	51		 push	 ecx
  00c61	8b 95 64 ff ff
	ff		 mov	 edx, DWORD PTR _pDC$[ebp]
  00c67	8b 02		 mov	 eax, DWORD PTR [edx]
  00c69	8b 8d 64 ff ff
	ff		 mov	 ecx, DWORD PTR _pDC$[ebp]
  00c6f	ff 50 30	 call	 DWORD PTR [eax+48]
  00c72	89 85 74 ff ff
	ff		 mov	 DWORD PTR _pFont$[ebp], eax

; 248  : 	pDC->SetBkMode(TRANSPARENT);

  00c78	6a 01		 push	 1
  00c7a	8b 8d 64 ff ff
	ff		 mov	 ecx, DWORD PTR _pDC$[ebp]
  00c80	e8 00 00 00 00	 call	 ?SetBkMode@CDC@@QAEHH@Z	; CDC::SetBkMode

; 249  : 	pDC->SetTextColor(RGB(28,68,91));	

  00c85	68 1c 44 5b 00	 push	 5981212			; 005b441cH
  00c8a	8b 8d 64 ff ff
	ff		 mov	 ecx, DWORD PTR _pDC$[ebp]
  00c90	8b 11		 mov	 edx, DWORD PTR [ecx]
  00c92	8b 8d 64 ff ff
	ff		 mov	 ecx, DWORD PTR _pDC$[ebp]
  00c98	ff 52 38	 call	 DWORD PTR [edx+56]

; 250  : 	pDC->DrawText(m_strTitle,m_titleRect,DT_LEFT);

  00c9b	6a 00		 push	 0
  00c9d	8b 8d 04 ff ff
	ff		 mov	 ecx, DWORD PTR _this$[ebp]
  00ca3	81 c1 90 00 00
	00		 add	 ecx, 144		; 00000090H
  00ca9	e8 00 00 00 00	 call	 ??BCRect@@QAEPAUtagRECT@@XZ ; CRect::operator tagRECT *
  00cae	50		 push	 eax
  00caf	8b 85 04 ff ff
	ff		 mov	 eax, DWORD PTR _this$[ebp]
  00cb5	83 c0 74	 add	 eax, 116		; 00000074H
  00cb8	50		 push	 eax
  00cb9	8b 8d 64 ff ff
	ff		 mov	 ecx, DWORD PTR _pDC$[ebp]
  00cbf	e8 00 00 00 00	 call	 ?DrawTextA@CDC@@QAEHABV?$CStringT@DV?$StrTraitMFC_DLL@DV?$ChTraitsCRT@D@ATL@@@@@ATL@@PAUtagRECT@@I@Z ; CDC::DrawTextA

; 251  : 	pDC->SelectObject(pFont);

  00cc4	8b 8d 74 ff ff
	ff		 mov	 ecx, DWORD PTR _pFont$[ebp]
  00cca	51		 push	 ecx
  00ccb	8b 95 64 ff ff
	ff		 mov	 edx, DWORD PTR _pDC$[ebp]
  00cd1	8b 02		 mov	 eax, DWORD PTR [edx]
  00cd3	8b 8d 64 ff ff
	ff		 mov	 ecx, DWORD PTR _pDC$[ebp]
  00cd9	ff 50 30	 call	 DWORD PTR [eax+48]

; 252  : 
; 253  : 
; 254  : 	pFont = (CFont*)pDC->SelectObject( &m_msgFont );

  00cdc	8b 8d 04 ff ff
	ff		 mov	 ecx, DWORD PTR _this$[ebp]
  00ce2	81 c1 c8 00 00
	00		 add	 ecx, 200		; 000000c8H
  00ce8	51		 push	 ecx
  00ce9	8b 95 64 ff ff
	ff		 mov	 edx, DWORD PTR _pDC$[ebp]
  00cef	8b 02		 mov	 eax, DWORD PTR [edx]
  00cf1	8b 8d 64 ff ff
	ff		 mov	 ecx, DWORD PTR _pDC$[ebp]
  00cf7	ff 50 30	 call	 DWORD PTR [eax+48]
  00cfa	89 85 74 ff ff
	ff		 mov	 DWORD PTR _pFont$[ebp], eax

; 255  : 	pDC->SetTextColor(RGB(48,54,54));

  00d00	68 30 36 36 00	 push	 3552816			; 00363630H
  00d05	8b 8d 64 ff ff
	ff		 mov	 ecx, DWORD PTR _pDC$[ebp]
  00d0b	8b 11		 mov	 edx, DWORD PTR [ecx]
  00d0d	8b 8d 64 ff ff
	ff		 mov	 ecx, DWORD PTR _pDC$[ebp]
  00d13	ff 52 38	 call	 DWORD PTR [edx+56]

; 256  : 
; 257  : 	CString str;

  00d16	8d 8d 40 ff ff
	ff		 lea	 ecx, DWORD PTR _str$[ebp]
  00d1c	ff 15 00 00 00
	00		 call	 DWORD PTR __imp_??0?$CStringT@DV?$StrTraitMFC_DLL@DV?$ChTraitsCRT@D@ATL@@@@@ATL@@QAE@XZ
  00d22	c6 45 fc 02	 mov	 BYTE PTR __$EHRec$[ebp+8], 2

; 258  : 	int		iStartPos = 0;

  00d26	c7 85 78 ff ff
	ff 00 00 00 00	 mov	 DWORD PTR _iStartPos$[ebp], 0

; 259  : 	int		iLastPos  = m_strMsg.Find("\r\n",iStartPos);

  00d30	8b 85 78 ff ff
	ff		 mov	 eax, DWORD PTR _iStartPos$[ebp]
  00d36	50		 push	 eax
  00d37	68 00 00 00 00	 push	 OFFSET FLAT:$SG197901
  00d3c	8b 8d 04 ff ff
	ff		 mov	 ecx, DWORD PTR _this$[ebp]
  00d42	81 c1 8c 00 00
	00		 add	 ecx, 140		; 0000008cH
  00d48	ff 15 00 00 00
	00		 call	 DWORD PTR __imp_?Find@?$CStringT@DV?$StrTraitMFC_DLL@DV?$ChTraitsCRT@D@ATL@@@@@ATL@@QBEHPBDH@Z
  00d4e	89 85 54 ff ff
	ff		 mov	 DWORD PTR _iLastPos$[ebp], eax

; 260  : 
; 261  : 	CRect   rect2 = m_msgRect;

  00d54	8b 8d 04 ff ff
	ff		 mov	 ecx, DWORD PTR _this$[ebp]
  00d5a	81 c1 a0 00 00
	00		 add	 ecx, 160		; 000000a0H
  00d60	8b 11		 mov	 edx, DWORD PTR [ecx]
  00d62	89 95 44 ff ff
	ff		 mov	 DWORD PTR _rect2$[ebp], edx
  00d68	8b 41 04	 mov	 eax, DWORD PTR [ecx+4]
  00d6b	89 85 48 ff ff
	ff		 mov	 DWORD PTR _rect2$[ebp+4], eax
  00d71	8b 51 08	 mov	 edx, DWORD PTR [ecx+8]
  00d74	89 95 4c ff ff
	ff		 mov	 DWORD PTR _rect2$[ebp+8], edx
  00d7a	8b 41 0c	 mov	 eax, DWORD PTR [ecx+12]
  00d7d	89 85 50 ff ff
	ff		 mov	 DWORD PTR _rect2$[ebp+12], eax
$L197904:

; 262  : 
; 263  : 	while(  iLastPos != -1)

  00d83	83 bd 54 ff ff
	ff ff		 cmp	 DWORD PTR _iLastPos$[ebp], -1
  00d8a	0f 84 cd 00 00
	00		 je	 $L197905

; 264  : 	{
; 265  : 		str = m_strMsg.Mid(iStartPos,iLastPos-iStartPos);

  00d90	8b 8d 54 ff ff
	ff		 mov	 ecx, DWORD PTR _iLastPos$[ebp]
  00d96	2b 8d 78 ff ff
	ff		 sub	 ecx, DWORD PTR _iStartPos$[ebp]
  00d9c	51		 push	 ecx
  00d9d	8b 95 78 ff ff
	ff		 mov	 edx, DWORD PTR _iStartPos$[ebp]
  00da3	52		 push	 edx
  00da4	8d 85 14 ff ff
	ff		 lea	 eax, DWORD PTR $T198656[ebp]
  00daa	50		 push	 eax
  00dab	8b 8d 04 ff ff
	ff		 mov	 ecx, DWORD PTR _this$[ebp]
  00db1	81 c1 8c 00 00
	00		 add	 ecx, 140		; 0000008cH
  00db7	ff 15 00 00 00
	00		 call	 DWORD PTR __imp_?Mid@?$CStringT@DV?$StrTraitMFC_DLL@DV?$ChTraitsCRT@D@ATL@@@@@ATL@@QBE?AV12@HH@Z
  00dbd	89 85 f8 fe ff
	ff		 mov	 DWORD PTR tv343[ebp], eax
  00dc3	8b 8d f8 fe ff
	ff		 mov	 ecx, DWORD PTR tv343[ebp]
  00dc9	89 8d f4 fe ff
	ff		 mov	 DWORD PTR tv475[ebp], ecx
  00dcf	c6 45 fc 03	 mov	 BYTE PTR __$EHRec$[ebp+8], 3
  00dd3	8b 95 f4 fe ff
	ff		 mov	 edx, DWORD PTR tv475[ebp]
  00dd9	52		 push	 edx
  00dda	8d 8d 40 ff ff
	ff		 lea	 ecx, DWORD PTR _str$[ebp]
  00de0	ff 15 00 00 00
	00		 call	 DWORD PTR __imp_??4?$CStringT@DV?$StrTraitMFC_DLL@DV?$ChTraitsCRT@D@ATL@@@@@ATL@@QAEAAV01@ABV01@@Z
  00de6	c6 45 fc 02	 mov	 BYTE PTR __$EHRec$[ebp+8], 2
  00dea	8d 8d 14 ff ff
	ff		 lea	 ecx, DWORD PTR $T198656[ebp]
  00df0	ff 15 00 00 00
	00		 call	 DWORD PTR __imp_??1?$CStringT@DV?$StrTraitMFC_DLL@DV?$ChTraitsCRT@D@ATL@@@@@ATL@@QAE@XZ

; 266  : 		pDC->DrawText(str,rect2,DT_LEFT);

  00df6	6a 00		 push	 0
  00df8	8d 8d 44 ff ff
	ff		 lea	 ecx, DWORD PTR _rect2$[ebp]
  00dfe	e8 00 00 00 00	 call	 ??BCRect@@QAEPAUtagRECT@@XZ ; CRect::operator tagRECT *
  00e03	50		 push	 eax
  00e04	8d 85 40 ff ff
	ff		 lea	 eax, DWORD PTR _str$[ebp]
  00e0a	50		 push	 eax
  00e0b	8b 8d 64 ff ff
	ff		 mov	 ecx, DWORD PTR _pDC$[ebp]
  00e11	e8 00 00 00 00	 call	 ?DrawTextA@CDC@@QAEHABV?$CStringT@DV?$StrTraitMFC_DLL@DV?$ChTraitsCRT@D@ATL@@@@@ATL@@PAUtagRECT@@I@Z ; CDC::DrawTextA

; 267  : 		rect2.top += 15;

  00e16	8b 8d 48 ff ff
	ff		 mov	 ecx, DWORD PTR _rect2$[ebp+4]
  00e1c	83 c1 0f	 add	 ecx, 15			; 0000000fH
  00e1f	89 8d 48 ff ff
	ff		 mov	 DWORD PTR _rect2$[ebp+4], ecx

; 268  : 		iStartPos = iLastPos + 2;

  00e25	8b 95 54 ff ff
	ff		 mov	 edx, DWORD PTR _iLastPos$[ebp]
  00e2b	83 c2 02	 add	 edx, 2
  00e2e	89 95 78 ff ff
	ff		 mov	 DWORD PTR _iStartPos$[ebp], edx

; 269  : 		iLastPos  = m_strMsg.Find("\r\n",iStartPos);

  00e34	8b 85 78 ff ff
	ff		 mov	 eax, DWORD PTR _iStartPos$[ebp]
  00e3a	50		 push	 eax
  00e3b	68 00 00 00 00	 push	 OFFSET FLAT:$SG197907
  00e40	8b 8d 04 ff ff
	ff		 mov	 ecx, DWORD PTR _this$[ebp]
  00e46	81 c1 8c 00 00
	00		 add	 ecx, 140		; 0000008cH
  00e4c	ff 15 00 00 00
	00		 call	 DWORD PTR __imp_?Find@?$CStringT@DV?$StrTraitMFC_DLL@DV?$ChTraitsCRT@D@ATL@@@@@ATL@@QBEHPBDH@Z
  00e52	89 85 54 ff ff
	ff		 mov	 DWORD PTR _iLastPos$[ebp], eax

; 270  : 	}

  00e58	e9 26 ff ff ff	 jmp	 $L197904
$L197905:

; 271  : 
; 272  : 	str = m_strMsg.Right(m_strMsg.GetLength()-iStartPos);

  00e5d	8b 8d 04 ff ff
	ff		 mov	 ecx, DWORD PTR _this$[ebp]
  00e63	81 c1 8c 00 00
	00		 add	 ecx, 140		; 0000008cH
  00e69	ff 15 00 00 00
	00		 call	 DWORD PTR __imp_?GetLength@?$CSimpleStringT@D$00@ATL@@QBEHXZ
  00e6f	2b 85 78 ff ff
	ff		 sub	 eax, DWORD PTR _iStartPos$[ebp]
  00e75	50		 push	 eax
  00e76	8d 8d 10 ff ff
	ff		 lea	 ecx, DWORD PTR $T198657[ebp]
  00e7c	51		 push	 ecx
  00e7d	8b 8d 04 ff ff
	ff		 mov	 ecx, DWORD PTR _this$[ebp]
  00e83	81 c1 8c 00 00
	00		 add	 ecx, 140		; 0000008cH
  00e89	ff 15 00 00 00
	00		 call	 DWORD PTR __imp_?Right@?$CStringT@DV?$StrTraitMFC_DLL@DV?$ChTraitsCRT@D@ATL@@@@@ATL@@QBE?AV12@H@Z
  00e8f	89 85 f0 fe ff
	ff		 mov	 DWORD PTR tv478[ebp], eax
  00e95	8b 95 f0 fe ff
	ff		 mov	 edx, DWORD PTR tv478[ebp]
  00e9b	89 95 ec fe ff
	ff		 mov	 DWORD PTR tv477[ebp], edx
  00ea1	c6 45 fc 04	 mov	 BYTE PTR __$EHRec$[ebp+8], 4
  00ea5	8b 85 ec fe ff
	ff		 mov	 eax, DWORD PTR tv477[ebp]
  00eab	50		 push	 eax
  00eac	8d 8d 40 ff ff
	ff		 lea	 ecx, DWORD PTR _str$[ebp]
  00eb2	ff 15 00 00 00
	00		 call	 DWORD PTR __imp_??4?$CStringT@DV?$StrTraitMFC_DLL@DV?$ChTraitsCRT@D@ATL@@@@@ATL@@QAEAAV01@ABV01@@Z
  00eb8	c6 45 fc 02	 mov	 BYTE PTR __$EHRec$[ebp+8], 2
  00ebc	8d 8d 10 ff ff
	ff		 lea	 ecx, DWORD PTR $T198657[ebp]
  00ec2	ff 15 00 00 00
	00		 call	 DWORD PTR __imp_??1?$CStringT@DV?$StrTraitMFC_DLL@DV?$ChTraitsCRT@D@ATL@@@@@ATL@@QAE@XZ

; 273  : 
; 274  : 	pDC->DrawText(str,rect2,DT_LEFT);	

  00ec8	6a 00		 push	 0
  00eca	8d 8d 44 ff ff
	ff		 lea	 ecx, DWORD PTR _rect2$[ebp]
  00ed0	e8 00 00 00 00	 call	 ??BCRect@@QAEPAUtagRECT@@XZ ; CRect::operator tagRECT *
  00ed5	50		 push	 eax
  00ed6	8d 8d 40 ff ff
	ff		 lea	 ecx, DWORD PTR _str$[ebp]
  00edc	51		 push	 ecx
  00edd	8b 8d 64 ff ff
	ff		 mov	 ecx, DWORD PTR _pDC$[ebp]
  00ee3	e8 00 00 00 00	 call	 ?DrawTextA@CDC@@QAEHABV?$CStringT@DV?$StrTraitMFC_DLL@DV?$ChTraitsCRT@D@ATL@@@@@ATL@@PAUtagRECT@@I@Z ; CDC::DrawTextA

; 275  : 
; 276  : 	if( m_bShowCheckBox )

  00ee8	8b 95 04 ff ff
	ff		 mov	 edx, DWORD PTR _this$[ebp]
  00eee	83 ba d0 00 00
	00 00		 cmp	 DWORD PTR [edx+208], 0
  00ef5	0f 84 d7 00 00
	00		 je	 $L197909

; 277  : 	{
; 278  : 		rect2.left = 25+2;

  00efb	c7 85 44 ff ff
	ff 1b 00 00 00	 mov	 DWORD PTR _rect2$[ebp], 27 ; 0000001bH

; 279  : 		rect2.top  = 107+2;

  00f05	c7 85 48 ff ff
	ff 6d 00 00 00	 mov	 DWORD PTR _rect2$[ebp+4], 109 ; 0000006dH

; 280  : 		rect2.bottom = 107+30;

  00f0f	c7 85 50 ff ff
	ff 89 00 00 00	 mov	 DWORD PTR _rect2$[ebp+12], 137 ; 00000089H

; 281  : 		rect2.right  = 25+100;

  00f19	c7 85 4c ff ff
	ff 7d 00 00 00	 mov	 DWORD PTR _rect2$[ebp+8], 125 ; 0000007dH

; 282  : 
; 283  : 		SIZE s;
; 284  : 		GetTextExtentPoint(pDC->m_hDC,m_strCheckBox,m_strCheckBox.GetLength(),&s);

  00f23	8d 85 30 ff ff
	ff		 lea	 eax, DWORD PTR _s$197910[ebp]
  00f29	50		 push	 eax
  00f2a	8b 8d 04 ff ff
	ff		 mov	 ecx, DWORD PTR _this$[ebp]
  00f30	81 c1 d4 00 00
	00		 add	 ecx, 212		; 000000d4H
  00f36	ff 15 00 00 00
	00		 call	 DWORD PTR __imp_?GetLength@?$CSimpleStringT@D$00@ATL@@QBEHXZ
  00f3c	50		 push	 eax
  00f3d	8b 8d 04 ff ff
	ff		 mov	 ecx, DWORD PTR _this$[ebp]
  00f43	81 c1 d4 00 00
	00		 add	 ecx, 212		; 000000d4H
  00f49	ff 15 00 00 00
	00		 call	 DWORD PTR __imp_??B?$CSimpleStringT@D$00@ATL@@QBEPBDXZ
  00f4f	50		 push	 eax
  00f50	8b 8d 64 ff ff
	ff		 mov	 ecx, DWORD PTR _pDC$[ebp]
  00f56	8b 51 04	 mov	 edx, DWORD PTR [ecx+4]
  00f59	52		 push	 edx
  00f5a	ff 15 00 00 00
	00		 call	 DWORD PTR __imp__GetTextExtentPointA@16

; 285  : 		pDC->DrawText(m_strCheckBox,rect2,DT_LEFT);

  00f60	6a 00		 push	 0
  00f62	8d 8d 44 ff ff
	ff		 lea	 ecx, DWORD PTR _rect2$[ebp]
  00f68	e8 00 00 00 00	 call	 ??BCRect@@QAEPAUtagRECT@@XZ ; CRect::operator tagRECT *
  00f6d	50		 push	 eax
  00f6e	8b 85 04 ff ff
	ff		 mov	 eax, DWORD PTR _this$[ebp]
  00f74	05 d4 00 00 00	 add	 eax, 212		; 000000d4H
  00f79	50		 push	 eax
  00f7a	8b 8d 64 ff ff
	ff		 mov	 ecx, DWORD PTR _pDC$[ebp]
  00f80	e8 00 00 00 00	 call	 ?DrawTextA@CDC@@QAEHABV?$CStringT@DV?$StrTraitMFC_DLL@DV?$ChTraitsCRT@D@ATL@@@@@ATL@@PAUtagRECT@@I@Z ; CDC::DrawTextA

; 286  : 
; 287  : 		m_NoMoreHintRect = rect2;

  00f85	8b 8d 04 ff ff
	ff		 mov	 ecx, DWORD PTR _this$[ebp]
  00f8b	81 c1 b0 00 00
	00		 add	 ecx, 176		; 000000b0H
  00f91	8b 95 44 ff ff
	ff		 mov	 edx, DWORD PTR _rect2$[ebp]
  00f97	89 11		 mov	 DWORD PTR [ecx], edx
  00f99	8b 85 48 ff ff
	ff		 mov	 eax, DWORD PTR _rect2$[ebp+4]
  00f9f	89 41 04	 mov	 DWORD PTR [ecx+4], eax
  00fa2	8b 95 4c ff ff
	ff		 mov	 edx, DWORD PTR _rect2$[ebp+8]
  00fa8	89 51 08	 mov	 DWORD PTR [ecx+8], edx
  00fab	8b 85 50 ff ff
	ff		 mov	 eax, DWORD PTR _rect2$[ebp+12]
  00fb1	89 41 0c	 mov	 DWORD PTR [ecx+12], eax

; 288  : 		m_NoMoreHintRect.right = m_NoMoreHintRect.left + s.cx;

  00fb4	8b 8d 04 ff ff
	ff		 mov	 ecx, DWORD PTR _this$[ebp]
  00fba	8b 91 b0 00 00
	00		 mov	 edx, DWORD PTR [ecx+176]
  00fc0	03 95 30 ff ff
	ff		 add	 edx, DWORD PTR _s$197910[ebp]
  00fc6	8b 85 04 ff ff
	ff		 mov	 eax, DWORD PTR _this$[ebp]
  00fcc	89 90 b8 00 00
	00		 mov	 DWORD PTR [eax+184], edx
$L197909:

; 289  : 	}
; 290  : 
; 291  : 	pDC->SelectObject(pFont);

  00fd2	8b 8d 74 ff ff
	ff		 mov	 ecx, DWORD PTR _pFont$[ebp]
  00fd8	51		 push	 ecx
  00fd9	8b 95 64 ff ff
	ff		 mov	 edx, DWORD PTR _pDC$[ebp]
  00fdf	8b 02		 mov	 eax, DWORD PTR [edx]
  00fe1	8b 8d 64 ff ff
	ff		 mov	 ecx, DWORD PTR _pDC$[ebp]
  00fe7	ff 50 30	 call	 DWORD PTR [eax+48]

; 292  : 	PaintSomething( pDC );

  00fea	8b 8d 64 ff ff
	ff		 mov	 ecx, DWORD PTR _pDC$[ebp]
  00ff0	51		 push	 ecx
  00ff1	8b 95 04 ff ff
	ff		 mov	 edx, DWORD PTR _this$[ebp]
  00ff7	8b 02		 mov	 eax, DWORD PTR [edx]
  00ff9	8b 8d 04 ff ff
	ff		 mov	 ecx, DWORD PTR _this$[ebp]
  00fff	ff 90 70 01 00
	00		 call	 DWORD PTR [eax+368]

; 293  : 
; 294  : 	delete pDC;

  01005	8b 8d 64 ff ff
	ff		 mov	 ecx, DWORD PTR _pDC$[ebp]
  0100b	89 8d 08 ff ff
	ff		 mov	 DWORD PTR $T198659[ebp], ecx
  01011	8b 95 08 ff ff
	ff		 mov	 edx, DWORD PTR $T198659[ebp]
  01017	89 95 0c ff ff
	ff		 mov	 DWORD PTR $T198658[ebp], edx
  0101d	83 bd 0c ff ff
	ff 00		 cmp	 DWORD PTR $T198658[ebp], 0
  01024	74 1b		 je	 SHORT $L198660
  01026	6a 01		 push	 1
  01028	8b 85 0c ff ff
	ff		 mov	 eax, DWORD PTR $T198658[ebp]
  0102e	8b 10		 mov	 edx, DWORD PTR [eax]
  01030	8b 8d 0c ff ff
	ff		 mov	 ecx, DWORD PTR $T198658[ebp]
  01036	ff 52 04	 call	 DWORD PTR [edx+4]
  01039	89 85 e8 fe ff
	ff		 mov	 DWORD PTR tv470[ebp], eax
  0103f	eb 0a		 jmp	 SHORT $L198661
$L198660:
  01041	c7 85 e8 fe ff
	ff 00 00 00 00	 mov	 DWORD PTR tv470[ebp], 0
$L198661:

; 295  : }

  0104b	c6 45 fc 00	 mov	 BYTE PTR __$EHRec$[ebp+8], 0
  0104f	8d 8d 40 ff ff
	ff		 lea	 ecx, DWORD PTR _str$[ebp]
  01055	ff 15 00 00 00
	00		 call	 DWORD PTR __imp_??1?$CStringT@DV?$StrTraitMFC_DLL@DV?$ChTraitsCRT@D@ATL@@@@@ATL@@QAE@XZ
  0105b	c7 45 fc ff ff
	ff ff		 mov	 DWORD PTR __$EHRec$[ebp+8], -1
  01062	8d 4d 84	 lea	 ecx, DWORD PTR _dc$[ebp]
  01065	e8 00 00 00 00	 call	 ??1CPaintDC@@UAE@XZ	; CPaintDC::~CPaintDC
  0106a	8b 4d f4	 mov	 ecx, DWORD PTR __$EHRec$[ebp]
  0106d	64 89 0d 00 00
	00 00		 mov	 DWORD PTR fs:__except_list, ecx
  01074	8b 4d e0	 mov	 ecx, DWORD PTR __$ArrayPad$[ebp]
  01077	e8 00 00 00 00	 call	 @__security_check_cookie@4
  0107c	8b e5		 mov	 esp, ebp
  0107e	5d		 pop	 ebp
  0107f	c3		 ret	 0
_TEXT	ENDS
text$x	SEGMENT
$L198662:
  00185	8d 4d 84	 lea	 ecx, DWORD PTR _dc$[ebp]
  00188	e9 00 00 00 00	 jmp	 ??1CPaintDC@@UAE@XZ	; CPaintDC::~CPaintDC
$L198663:
  0018d	8b 85 28 ff ff
	ff		 mov	 eax, DWORD PTR $T198652[ebp]
  00193	50		 push	 eax
  00194	e8 00 00 00 00	 call	 ??3CObject@@SGXPAX@Z	; CObject::operator delete
  00199	c3		 ret	 0
$L198664:
  0019a	8d 8d 40 ff ff
	ff		 lea	 ecx, DWORD PTR _str$[ebp]
  001a0	ff 25 00 00 00
	00		 jmp	 DWORD PTR __imp_??1?$CStringT@DV?$StrTraitMFC_DLL@DV?$ChTraitsCRT@D@ATL@@@@@ATL@@QAE@XZ
$L198665:
  001a6	8d 8d 14 ff ff
	ff		 lea	 ecx, DWORD PTR $T198656[ebp]
  001ac	ff 25 00 00 00
	00		 jmp	 DWORD PTR __imp_??1?$CStringT@DV?$StrTraitMFC_DLL@DV?$ChTraitsCRT@D@ATL@@@@@ATL@@QAE@XZ
$L198666:
  001b2	8d 8d 10 ff ff
	ff		 lea	 ecx, DWORD PTR $T198657[ebp]
  001b8	ff 25 00 00 00
	00		 jmp	 DWORD PTR __imp_??1?$CStringT@DV?$StrTraitMFC_DLL@DV?$ChTraitsCRT@D@ATL@@@@@ATL@@QAE@XZ
__ehhandler$?OnPaint@CDialogMsg@@QAEXXZ:
  001be	b8 00 00 00 00	 mov	 eax, OFFSET FLAT:$T198668
  001c3	e9 00 00 00 00	 jmp	 ___CxxFrameHandler
text$x	ENDS
?OnPaint@CDialogMsg@@QAEXXZ ENDP			; CDialogMsg::OnPaint
; Function compile flags: /Odt
_TEXT	SEGMENT
_this$ = -4						; size = 4
_pDC$ = 8						; size = 4
?PaintSomething@CDialogMsg@@UAEXPAVCDC@@@Z PROC NEAR	; CDialogMsg::PaintSomething
; _this$ = ecx

; 298  : {

  01080	55		 push	 ebp
  01081	8b ec		 mov	 ebp, esp
  01083	51		 push	 ecx
  01084	89 4d fc	 mov	 DWORD PTR _this$[ebp], ecx

; 299  : 	
; 300  : }

  01087	8b e5		 mov	 esp, ebp
  01089	5d		 pop	 ebp
  0108a	c2 04 00	 ret	 4
?PaintSomething@CDialogMsg@@UAEXPAVCDC@@@Z ENDP		; CDialogMsg::PaintSomething
_TEXT	ENDS
PUBLIC	?SetLayeredWindowAttributes@CWnd@@QAEHKEK@Z	; CWnd::SetLayeredWindowAttributes
EXTRN	?OnInitDialog@CDialog@@UAEHXZ:NEAR		; CDialog::OnInitDialog
EXTRN	?CenterWindow@CWnd@@QAEXPAV1@@Z:NEAR		; CWnd::CenterWindow
EXTRN	__imp__GetWindowLongA@8:NEAR
EXTRN	__imp__SetWindowLongA@12:NEAR
EXTRN	?SetSkin@CxSkinButton@@QAEXPAVCDibBitmap@@00000FFF_N@Z:NEAR ; CxSkinButton::SetSkin
EXTRN	?SetWindowTextA@CWnd@@QAEXPBD@Z:NEAR		; CWnd::SetWindowTextA
EXTRN	?SetWindowPos@CWnd@@QAEHPBV1@HHHHI@Z:NEAR	; CWnd::SetWindowPos
; Function compile flags: /Odt
_TEXT	SEGMENT
tv143 = -156						; size = 4
_this$ = -152						; size = 4
$T198684 = -148						; size = 16
$T198683 = -132						; size = 16
$T198682 = -116						; size = 16
$T198681 = -100						; size = 16
$T198680 = -84						; size = 16
$T198679 = -68						; size = 16
$T198678 = -52						; size = 16
$T198677 = -36						; size = 16
$T198676 = -20						; size = 16
_pSkinMgr$ = -4						; size = 4
?OnInitDialog@CDialogMsg@@UAEHXZ PROC NEAR		; CDialogMsg::OnInitDialog
; _this$ = ecx

; 303  : {

  01090	55		 push	 ebp
  01091	8b ec		 mov	 ebp, esp
  01093	81 ec 9c 00 00
	00		 sub	 esp, 156		; 0000009cH
  01099	89 8d 68 ff ff
	ff		 mov	 DWORD PTR _this$[ebp], ecx

; 304  : 	CDialog::OnInitDialog();	

  0109f	8b 8d 68 ff ff
	ff		 mov	 ecx, DWORD PTR _this$[ebp]
  010a5	e8 00 00 00 00	 call	 ?OnInitDialog@CDialog@@UAEHXZ ; CDialog::OnInitDialog

; 305  : 
; 306  : 	SetWindowLong(m_hWnd,GWL_EXSTYLE,GetWindowLong(m_hWnd,GWL_EXSTYLE)^WS_EX_LAYERED);

  010aa	6a ec		 push	 -20			; ffffffecH
  010ac	8b 85 68 ff ff
	ff		 mov	 eax, DWORD PTR _this$[ebp]
  010b2	8b 48 20	 mov	 ecx, DWORD PTR [eax+32]
  010b5	51		 push	 ecx
  010b6	ff 15 00 00 00
	00		 call	 DWORD PTR __imp__GetWindowLongA@8
  010bc	35 00 00 08 00	 xor	 eax, 524288		; 00080000H
  010c1	50		 push	 eax
  010c2	6a ec		 push	 -20			; ffffffecH
  010c4	8b 95 68 ff ff
	ff		 mov	 edx, DWORD PTR _this$[ebp]
  010ca	8b 42 20	 mov	 eax, DWORD PTR [edx+32]
  010cd	50		 push	 eax
  010ce	ff 15 00 00 00
	00		 call	 DWORD PTR __imp__SetWindowLongA@12

; 307  : 	SetWindowPos(NULL,0,0,m_iXSize,m_iYSize,SWP_NOMOVE);

  010d4	6a 02		 push	 2
  010d6	8b 8d 68 ff ff
	ff		 mov	 ecx, DWORD PTR _this$[ebp]
  010dc	8b 51 7c	 mov	 edx, DWORD PTR [ecx+124]
  010df	52		 push	 edx
  010e0	8b 85 68 ff ff
	ff		 mov	 eax, DWORD PTR _this$[ebp]
  010e6	8b 48 78	 mov	 ecx, DWORD PTR [eax+120]
  010e9	51		 push	 ecx
  010ea	6a 00		 push	 0
  010ec	6a 00		 push	 0
  010ee	6a 00		 push	 0
  010f0	8b 8d 68 ff ff
	ff		 mov	 ecx, DWORD PTR _this$[ebp]
  010f6	e8 00 00 00 00	 call	 ?SetWindowPos@CWnd@@QAEHPBV1@HHHHI@Z ; CWnd::SetWindowPos

; 308  : 
; 309  : 	SetLayeredWindowAttributes(RGB(255,0,0),0,LWA_COLORKEY);

  010fb	6a 01		 push	 1
  010fd	6a 00		 push	 0
  010ff	68 ff 00 00 00	 push	 255			; 000000ffH
  01104	8b 8d 68 ff ff
	ff		 mov	 ecx, DWORD PTR _this$[ebp]
  0110a	e8 00 00 00 00	 call	 ?SetLayeredWindowAttributes@CWnd@@QAEHKEK@Z ; CWnd::SetLayeredWindowAttributes

; 310  : 
; 311  : 	m_titleRect.left = 9;

  0110f	8b 95 68 ff ff
	ff		 mov	 edx, DWORD PTR _this$[ebp]
  01115	c7 82 90 00 00
	00 09 00 00 00	 mov	 DWORD PTR [edx+144], 9

; 312  : 	m_titleRect.top  = 8;

  0111f	8b 85 68 ff ff
	ff		 mov	 eax, DWORD PTR _this$[ebp]
  01125	c7 80 94 00 00
	00 08 00 00 00	 mov	 DWORD PTR [eax+148], 8

; 313  : 	m_titleRect.right	= m_iXSize;

  0112f	8b 8d 68 ff ff
	ff		 mov	 ecx, DWORD PTR _this$[ebp]
  01135	8b 95 68 ff ff
	ff		 mov	 edx, DWORD PTR _this$[ebp]
  0113b	8b 42 78	 mov	 eax, DWORD PTR [edx+120]
  0113e	89 81 98 00 00
	00		 mov	 DWORD PTR [ecx+152], eax

; 314  : 	m_titleRect.bottom	= m_iYSize;

  01144	8b 8d 68 ff ff
	ff		 mov	 ecx, DWORD PTR _this$[ebp]
  0114a	8b 95 68 ff ff
	ff		 mov	 edx, DWORD PTR _this$[ebp]
  01150	8b 42 7c	 mov	 eax, DWORD PTR [edx+124]
  01153	89 81 9c 00 00
	00		 mov	 DWORD PTR [ecx+156], eax

; 315  : 
; 316  : 	m_msgRect.left	= 25;

  01159	8b 8d 68 ff ff
	ff		 mov	 ecx, DWORD PTR _this$[ebp]
  0115f	c7 81 a0 00 00
	00 19 00 00 00	 mov	 DWORD PTR [ecx+160], 25	; 00000019H

; 317  : 	m_msgRect.right	= m_iXSize - 25;

  01169	8b 95 68 ff ff
	ff		 mov	 edx, DWORD PTR _this$[ebp]
  0116f	8b 42 78	 mov	 eax, DWORD PTR [edx+120]
  01172	83 e8 19	 sub	 eax, 25			; 00000019H
  01175	8b 8d 68 ff ff
	ff		 mov	 ecx, DWORD PTR _this$[ebp]
  0117b	89 81 a8 00 00
	00		 mov	 DWORD PTR [ecx+168], eax

; 318  : 	m_msgRect.top	= 48;

  01181	8b 95 68 ff ff
	ff		 mov	 edx, DWORD PTR _this$[ebp]
  01187	c7 82 a4 00 00
	00 30 00 00 00	 mov	 DWORD PTR [edx+164], 48	; 00000030H

; 319  : 	m_msgRect.bottom = m_iYSize - 35;

  01191	8b 85 68 ff ff
	ff		 mov	 eax, DWORD PTR _this$[ebp]
  01197	8b 48 7c	 mov	 ecx, DWORD PTR [eax+124]
  0119a	83 e9 23	 sub	 ecx, 35			; 00000023H
  0119d	8b 95 68 ff ff
	ff		 mov	 edx, DWORD PTR _this$[ebp]
  011a3	89 8a ac 00 00
	00		 mov	 DWORD PTR [edx+172], ecx

; 320  : 
; 321  : 	ISkinMgr* pSkinMgr = AfxGetUIManager()->UIGetSkinMgr();

  011a9	e8 00 00 00 00	 call	 ?AfxGetUIManager@@YAPAVIUIManager@@XZ ; AfxGetUIManager
  011ae	89 85 64 ff ff
	ff		 mov	 DWORD PTR tv143[ebp], eax
  011b4	8b 85 64 ff ff
	ff		 mov	 eax, DWORD PTR tv143[ebp]
  011ba	8b 10		 mov	 edx, DWORD PTR [eax]
  011bc	8b 8d 64 ff ff
	ff		 mov	 ecx, DWORD PTR tv143[ebp]
  011c2	ff 52 28	 call	 DWORD PTR [edx+40]
  011c5	89 45 fc	 mov	 DWORD PTR _pSkinMgr$[ebp], eax

; 322  : 
; 323  : 	m_btnClose.Create(NULL,WS_VISIBLE,CRect(m_iXSize-20,5,m_iXSize-5,20),this,IDC_MSGD_BTN_CLOSE );	

  011c8	6a 0a		 push	 10			; 0000000aH
  011ca	8b 85 68 ff ff
	ff		 mov	 eax, DWORD PTR _this$[ebp]
  011d0	50		 push	 eax
  011d1	6a 14		 push	 20			; 00000014H
  011d3	8b 8d 68 ff ff
	ff		 mov	 ecx, DWORD PTR _this$[ebp]
  011d9	8b 51 78	 mov	 edx, DWORD PTR [ecx+120]
  011dc	83 ea 05	 sub	 edx, 5
  011df	52		 push	 edx
  011e0	6a 05		 push	 5
  011e2	8b 85 68 ff ff
	ff		 mov	 eax, DWORD PTR _this$[ebp]
  011e8	8b 48 78	 mov	 ecx, DWORD PTR [eax+120]
  011eb	83 e9 14	 sub	 ecx, 20			; 00000014H
  011ee	51		 push	 ecx
  011ef	8d 4d ec	 lea	 ecx, DWORD PTR $T198676[ebp]
  011f2	e8 00 00 00 00	 call	 ??0CRect@@QAE@HHHH@Z	; CRect::CRect
  011f7	50		 push	 eax
  011f8	68 00 00 00 10	 push	 268435456		; 10000000H
  011fd	6a 00		 push	 0
  011ff	8b 8d 68 ff ff
	ff		 mov	 ecx, DWORD PTR _this$[ebp]
  01205	81 c1 d8 00 00
	00		 add	 ecx, 216		; 000000d8H
  0120b	8b 95 68 ff ff
	ff		 mov	 edx, DWORD PTR _this$[ebp]
  01211	8b 82 d8 00 00
	00		 mov	 eax, DWORD PTR [edx+216]
  01217	ff 90 38 01 00
	00		 call	 DWORD PTR [eax+312]

; 324  : 	m_btnClose.SetSkin( pSkinMgr->GetDibBmp("MSGDialogCloseNormal"),pSkinMgr->GetDibBmp("MSGDialogCloseDown"),pSkinMgr->GetDibBmp("MSGDialogCloseOver"),NULL,NULL,NULL,0,0,0);

  0121d	6a 00		 push	 0
  0121f	6a 00		 push	 0
  01221	6a 00		 push	 0
  01223	6a 00		 push	 0
  01225	6a 00		 push	 0
  01227	6a 00		 push	 0
  01229	6a 00		 push	 0
  0122b	68 00 00 00 00	 push	 OFFSET FLAT:$SG197928
  01230	8b 4d fc	 mov	 ecx, DWORD PTR _pSkinMgr$[ebp]
  01233	8b 11		 mov	 edx, DWORD PTR [ecx]
  01235	8b 4d fc	 mov	 ecx, DWORD PTR _pSkinMgr$[ebp]
  01238	ff 52 04	 call	 DWORD PTR [edx+4]
  0123b	50		 push	 eax
  0123c	68 00 00 00 00	 push	 OFFSET FLAT:$SG197929
  01241	8b 45 fc	 mov	 eax, DWORD PTR _pSkinMgr$[ebp]
  01244	8b 10		 mov	 edx, DWORD PTR [eax]
  01246	8b 4d fc	 mov	 ecx, DWORD PTR _pSkinMgr$[ebp]
  01249	ff 52 04	 call	 DWORD PTR [edx+4]
  0124c	50		 push	 eax
  0124d	68 00 00 00 00	 push	 OFFSET FLAT:$SG197930
  01252	8b 45 fc	 mov	 eax, DWORD PTR _pSkinMgr$[ebp]
  01255	8b 10		 mov	 edx, DWORD PTR [eax]
  01257	8b 4d fc	 mov	 ecx, DWORD PTR _pSkinMgr$[ebp]
  0125a	ff 52 04	 call	 DWORD PTR [edx+4]
  0125d	50		 push	 eax
  0125e	8b 8d 68 ff ff
	ff		 mov	 ecx, DWORD PTR _this$[ebp]
  01264	81 c1 d8 00 00
	00		 add	 ecx, 216		; 000000d8H
  0126a	e8 00 00 00 00	 call	 ?SetSkin@CxSkinButton@@QAEXPAVCDibBitmap@@00000FFF_N@Z ; CxSkinButton::SetSkin

; 325  : 
; 326  : 	if( m_iBtnCount == 1)

  0126f	8b 85 68 ff ff
	ff		 mov	 eax, DWORD PTR _this$[ebp]
  01275	83 b8 80 00 00
	00 01		 cmp	 DWORD PTR [eax+128], 1
  0127c	0f 85 6c 01 00
	00		 jne	 $L197931

; 327  : 	{
; 328  : 		if( !m_bShowCheckBox )

  01282	8b 8d 68 ff ff
	ff		 mov	 ecx, DWORD PTR _this$[ebp]
  01288	83 b9 d0 00 00
	00 00		 cmp	 DWORD PTR [ecx+208], 0
  0128f	75 77		 jne	 SHORT $L197932

; 329  : 		{
; 330  : 			m_btn1.Create(NULL,WS_VISIBLE,CRect(m_iXSize/2-34,m_iYSize-6-23,m_iXSize/2+33,m_iYSize-6),this,IDC_MSGD_BTN_1);

  01291	6a 14		 push	 20			; 00000014H
  01293	8b 95 68 ff ff
	ff		 mov	 edx, DWORD PTR _this$[ebp]
  01299	52		 push	 edx
  0129a	8b 85 68 ff ff
	ff		 mov	 eax, DWORD PTR _this$[ebp]
  012a0	8b 48 7c	 mov	 ecx, DWORD PTR [eax+124]
  012a3	83 e9 06	 sub	 ecx, 6
  012a6	51		 push	 ecx
  012a7	8b 95 68 ff ff
	ff		 mov	 edx, DWORD PTR _this$[ebp]
  012ad	8b 42 78	 mov	 eax, DWORD PTR [edx+120]
  012b0	99		 cdq
  012b1	2b c2		 sub	 eax, edx
  012b3	d1 f8		 sar	 eax, 1
  012b5	83 c0 21	 add	 eax, 33			; 00000021H
  012b8	50		 push	 eax
  012b9	8b 85 68 ff ff
	ff		 mov	 eax, DWORD PTR _this$[ebp]
  012bf	8b 48 7c	 mov	 ecx, DWORD PTR [eax+124]
  012c2	83 e9 1d	 sub	 ecx, 29			; 0000001dH
  012c5	51		 push	 ecx
  012c6	8b 95 68 ff ff
	ff		 mov	 edx, DWORD PTR _this$[ebp]
  012cc	8b 42 78	 mov	 eax, DWORD PTR [edx+120]
  012cf	99		 cdq
  012d0	2b c2		 sub	 eax, edx
  012d2	d1 f8		 sar	 eax, 1
  012d4	83 e8 22	 sub	 eax, 34			; 00000022H
  012d7	50		 push	 eax
  012d8	8d 4d dc	 lea	 ecx, DWORD PTR $T198677[ebp]
  012db	e8 00 00 00 00	 call	 ??0CRect@@QAE@HHHH@Z	; CRect::CRect
  012e0	50		 push	 eax
  012e1	68 00 00 00 10	 push	 268435456		; 10000000H
  012e6	6a 00		 push	 0
  012e8	8b 8d 68 ff ff
	ff		 mov	 ecx, DWORD PTR _this$[ebp]
  012ee	81 c1 fc 01 00
	00		 add	 ecx, 508		; 000001fcH
  012f4	8b 85 68 ff ff
	ff		 mov	 eax, DWORD PTR _this$[ebp]
  012fa	8b 90 fc 01 00
	00		 mov	 edx, DWORD PTR [eax+508]
  01300	ff 92 38 01 00
	00		 call	 DWORD PTR [edx+312]

; 331  : 		}
; 332  : 		else

  01306	eb 6b		 jmp	 SHORT $L197934
$L197932:

; 333  : 		{
; 334  : 			m_btn1.Create(NULL,WS_VISIBLE,CRect(m_iXSize-67-10,m_iYSize-6-23,m_iXSize-10,m_iYSize-6),this,IDC_MSGD_BTN_1);

  01308	6a 14		 push	 20			; 00000014H
  0130a	8b 85 68 ff ff
	ff		 mov	 eax, DWORD PTR _this$[ebp]
  01310	50		 push	 eax
  01311	8b 8d 68 ff ff
	ff		 mov	 ecx, DWORD PTR _this$[ebp]
  01317	8b 51 7c	 mov	 edx, DWORD PTR [ecx+124]
  0131a	83 ea 06	 sub	 edx, 6
  0131d	52		 push	 edx
  0131e	8b 85 68 ff ff
	ff		 mov	 eax, DWORD PTR _this$[ebp]
  01324	8b 48 78	 mov	 ecx, DWORD PTR [eax+120]
  01327	83 e9 0a	 sub	 ecx, 10			; 0000000aH
  0132a	51		 push	 ecx
  0132b	8b 95 68 ff ff
	ff		 mov	 edx, DWORD PTR _this$[ebp]
  01331	8b 42 7c	 mov	 eax, DWORD PTR [edx+124]
  01334	83 e8 1d	 sub	 eax, 29			; 0000001dH
  01337	50		 push	 eax
  01338	8b 8d 68 ff ff
	ff		 mov	 ecx, DWORD PTR _this$[ebp]
  0133e	8b 51 78	 mov	 edx, DWORD PTR [ecx+120]
  01341	83 ea 4d	 sub	 edx, 77			; 0000004dH
  01344	52		 push	 edx
  01345	8d 4d cc	 lea	 ecx, DWORD PTR $T198678[ebp]
  01348	e8 00 00 00 00	 call	 ??0CRect@@QAE@HHHH@Z	; CRect::CRect
  0134d	50		 push	 eax
  0134e	68 00 00 00 10	 push	 268435456		; 10000000H
  01353	6a 00		 push	 0
  01355	8b 8d 68 ff ff
	ff		 mov	 ecx, DWORD PTR _this$[ebp]
  0135b	81 c1 fc 01 00
	00		 add	 ecx, 508		; 000001fcH
  01361	8b 85 68 ff ff
	ff		 mov	 eax, DWORD PTR _this$[ebp]
  01367	8b 90 fc 01 00
	00		 mov	 edx, DWORD PTR [eax+508]
  0136d	ff 92 38 01 00
	00		 call	 DWORD PTR [edx+312]
$L197934:

; 335  : 		}
; 336  : 		m_btn1.SetWindowText( m_strBtnText1 );		

  01373	8b 8d 68 ff ff
	ff		 mov	 ecx, DWORD PTR _this$[ebp]
  01379	81 c1 84 00 00
	00		 add	 ecx, 132		; 00000084H
  0137f	ff 15 00 00 00
	00		 call	 DWORD PTR __imp_??B?$CSimpleStringT@D$00@ATL@@QBEPBDXZ
  01385	50		 push	 eax
  01386	8b 8d 68 ff ff
	ff		 mov	 ecx, DWORD PTR _this$[ebp]
  0138c	81 c1 fc 01 00
	00		 add	 ecx, 508		; 000001fcH
  01392	e8 00 00 00 00	 call	 ?SetWindowTextA@CWnd@@QAEXPBD@Z ; CWnd::SetWindowTextA

; 337  : 
; 338  : 		m_btn1.SetSkin( pSkinMgr->GetDibBmp("MSGDialogBtn1Normal"),pSkinMgr->GetDibBmp("MSGDialogBtn1Down"),pSkinMgr->GetDibBmp("MSGDialogBtn1Over"),NULL,NULL,NULL,0,0,0);		

  01397	6a 00		 push	 0
  01399	6a 00		 push	 0
  0139b	6a 00		 push	 0
  0139d	6a 00		 push	 0
  0139f	6a 00		 push	 0
  013a1	6a 00		 push	 0
  013a3	6a 00		 push	 0
  013a5	68 00 00 00 00	 push	 OFFSET FLAT:$SG197936
  013aa	8b 45 fc	 mov	 eax, DWORD PTR _pSkinMgr$[ebp]
  013ad	8b 10		 mov	 edx, DWORD PTR [eax]
  013af	8b 4d fc	 mov	 ecx, DWORD PTR _pSkinMgr$[ebp]
  013b2	ff 52 04	 call	 DWORD PTR [edx+4]
  013b5	50		 push	 eax
  013b6	68 00 00 00 00	 push	 OFFSET FLAT:$SG197937
  013bb	8b 45 fc	 mov	 eax, DWORD PTR _pSkinMgr$[ebp]
  013be	8b 10		 mov	 edx, DWORD PTR [eax]
  013c0	8b 4d fc	 mov	 ecx, DWORD PTR _pSkinMgr$[ebp]
  013c3	ff 52 04	 call	 DWORD PTR [edx+4]
  013c6	50		 push	 eax
  013c7	68 00 00 00 00	 push	 OFFSET FLAT:$SG197938
  013cc	8b 45 fc	 mov	 eax, DWORD PTR _pSkinMgr$[ebp]
  013cf	8b 10		 mov	 edx, DWORD PTR [eax]
  013d1	8b 4d fc	 mov	 ecx, DWORD PTR _pSkinMgr$[ebp]
  013d4	ff 52 04	 call	 DWORD PTR [edx+4]
  013d7	50		 push	 eax
  013d8	8b 8d 68 ff ff
	ff		 mov	 ecx, DWORD PTR _this$[ebp]
  013de	81 c1 fc 01 00
	00		 add	 ecx, 508		; 000001fcH
  013e4	e8 00 00 00 00	 call	 ?SetSkin@CxSkinButton@@QAEXPAVCDibBitmap@@00000FFF_N@Z ; CxSkinButton::SetSkin

; 339  : 
; 340  : 	}
; 341  : 	else

  013e9	e9 c6 02 00 00	 jmp	 $L197939
$L197931:

; 342  : 	{	
; 343  : 		if( !m_bShowCheckBox )

  013ee	8b 85 68 ff ff
	ff		 mov	 eax, DWORD PTR _this$[ebp]
  013f4	83 b8 d0 00 00
	00 00		 cmp	 DWORD PTR [eax+208], 0
  013fb	0f 85 ef 00 00
	00		 jne	 $L197940

; 344  : 		{
; 345  : 			m_btn1.Create(NULL,WS_VISIBLE,CRect(m_iXSize/2-3-67,m_iYSize-6-23,m_iXSize/2-3,m_iYSize-6),this,IDC_MSGD_BTN_1);

  01401	6a 14		 push	 20			; 00000014H
  01403	8b 8d 68 ff ff
	ff		 mov	 ecx, DWORD PTR _this$[ebp]
  01409	51		 push	 ecx
  0140a	8b 95 68 ff ff
	ff		 mov	 edx, DWORD PTR _this$[ebp]
  01410	8b 42 7c	 mov	 eax, DWORD PTR [edx+124]
  01413	83 e8 06	 sub	 eax, 6
  01416	50		 push	 eax
  01417	8b 8d 68 ff ff
	ff		 mov	 ecx, DWORD PTR _this$[ebp]
  0141d	8b 41 78	 mov	 eax, DWORD PTR [ecx+120]
  01420	99		 cdq
  01421	2b c2		 sub	 eax, edx
  01423	d1 f8		 sar	 eax, 1
  01425	83 e8 03	 sub	 eax, 3
  01428	50		 push	 eax
  01429	8b 95 68 ff ff
	ff		 mov	 edx, DWORD PTR _this$[ebp]
  0142f	8b 42 7c	 mov	 eax, DWORD PTR [edx+124]
  01432	83 e8 1d	 sub	 eax, 29			; 0000001dH
  01435	50		 push	 eax
  01436	8b 8d 68 ff ff
	ff		 mov	 ecx, DWORD PTR _this$[ebp]
  0143c	8b 41 78	 mov	 eax, DWORD PTR [ecx+120]
  0143f	99		 cdq
  01440	2b c2		 sub	 eax, edx
  01442	d1 f8		 sar	 eax, 1
  01444	83 e8 46	 sub	 eax, 70			; 00000046H
  01447	50		 push	 eax
  01448	8d 4d bc	 lea	 ecx, DWORD PTR $T198679[ebp]
  0144b	e8 00 00 00 00	 call	 ??0CRect@@QAE@HHHH@Z	; CRect::CRect
  01450	50		 push	 eax
  01451	68 00 00 00 10	 push	 268435456		; 10000000H
  01456	6a 00		 push	 0
  01458	8b 8d 68 ff ff
	ff		 mov	 ecx, DWORD PTR _this$[ebp]
  0145e	81 c1 fc 01 00
	00		 add	 ecx, 508		; 000001fcH
  01464	8b 95 68 ff ff
	ff		 mov	 edx, DWORD PTR _this$[ebp]
  0146a	8b 82 fc 01 00
	00		 mov	 eax, DWORD PTR [edx+508]
  01470	ff 90 38 01 00
	00		 call	 DWORD PTR [eax+312]

; 346  : 			m_btn2.Create(NULL,WS_VISIBLE,CRect(m_iXSize/2+3,m_iYSize-6-23,m_iXSize/2+3+67,m_iYSize-6),this,IDC_MSGD_BTN_2);

  01476	6a 1e		 push	 30			; 0000001eH
  01478	8b 8d 68 ff ff
	ff		 mov	 ecx, DWORD PTR _this$[ebp]
  0147e	51		 push	 ecx
  0147f	8b 95 68 ff ff
	ff		 mov	 edx, DWORD PTR _this$[ebp]
  01485	8b 42 7c	 mov	 eax, DWORD PTR [edx+124]
  01488	83 e8 06	 sub	 eax, 6
  0148b	50		 push	 eax
  0148c	8b 8d 68 ff ff
	ff		 mov	 ecx, DWORD PTR _this$[ebp]
  01492	8b 41 78	 mov	 eax, DWORD PTR [ecx+120]
  01495	99		 cdq
  01496	2b c2		 sub	 eax, edx
  01498	d1 f8		 sar	 eax, 1
  0149a	83 c0 46	 add	 eax, 70			; 00000046H
  0149d	50		 push	 eax
  0149e	8b 95 68 ff ff
	ff		 mov	 edx, DWORD PTR _this$[ebp]
  014a4	8b 42 7c	 mov	 eax, DWORD PTR [edx+124]
  014a7	83 e8 1d	 sub	 eax, 29			; 0000001dH
  014aa	50		 push	 eax
  014ab	8b 8d 68 ff ff
	ff		 mov	 ecx, DWORD PTR _this$[ebp]
  014b1	8b 41 78	 mov	 eax, DWORD PTR [ecx+120]
  014b4	99		 cdq
  014b5	2b c2		 sub	 eax, edx
  014b7	d1 f8		 sar	 eax, 1
  014b9	83 c0 03	 add	 eax, 3
  014bc	50		 push	 eax
  014bd	8d 4d ac	 lea	 ecx, DWORD PTR $T198680[ebp]
  014c0	e8 00 00 00 00	 call	 ??0CRect@@QAE@HHHH@Z	; CRect::CRect
  014c5	50		 push	 eax
  014c6	68 00 00 00 10	 push	 268435456		; 10000000H
  014cb	6a 00		 push	 0
  014cd	8b 8d 68 ff ff
	ff		 mov	 ecx, DWORD PTR _this$[ebp]
  014d3	81 c1 20 03 00
	00		 add	 ecx, 800		; 00000320H
  014d9	8b 95 68 ff ff
	ff		 mov	 edx, DWORD PTR _this$[ebp]
  014df	8b 82 20 03 00
	00		 mov	 eax, DWORD PTR [edx+800]
  014e5	ff 90 38 01 00
	00		 call	 DWORD PTR [eax+312]

; 347  : 		}
; 348  : 		else

  014eb	e9 d8 00 00 00	 jmp	 $L197943
$L197940:

; 349  : 		{
; 350  : 			m_btn1.Create(NULL,WS_VISIBLE,CRect(m_iXSize-67-67-10-3,m_iYSize-6-23,m_iXSize-67-3-10,m_iYSize-6),this,IDC_MSGD_BTN_1);

  014f0	6a 14		 push	 20			; 00000014H
  014f2	8b 8d 68 ff ff
	ff		 mov	 ecx, DWORD PTR _this$[ebp]
  014f8	51		 push	 ecx
  014f9	8b 95 68 ff ff
	ff		 mov	 edx, DWORD PTR _this$[ebp]
  014ff	8b 42 7c	 mov	 eax, DWORD PTR [edx+124]
  01502	83 e8 06	 sub	 eax, 6
  01505	50		 push	 eax
  01506	8b 8d 68 ff ff
	ff		 mov	 ecx, DWORD PTR _this$[ebp]
  0150c	8b 51 78	 mov	 edx, DWORD PTR [ecx+120]
  0150f	83 ea 50	 sub	 edx, 80			; 00000050H
  01512	52		 push	 edx
  01513	8b 85 68 ff ff
	ff		 mov	 eax, DWORD PTR _this$[ebp]
  01519	8b 48 7c	 mov	 ecx, DWORD PTR [eax+124]
  0151c	83 e9 1d	 sub	 ecx, 29			; 0000001dH
  0151f	51		 push	 ecx
  01520	8b 95 68 ff ff
	ff		 mov	 edx, DWORD PTR _this$[ebp]
  01526	8b 42 78	 mov	 eax, DWORD PTR [edx+120]
  01529	2d 93 00 00 00	 sub	 eax, 147		; 00000093H
  0152e	50		 push	 eax
  0152f	8d 4d 9c	 lea	 ecx, DWORD PTR $T198681[ebp]
  01532	e8 00 00 00 00	 call	 ??0CRect@@QAE@HHHH@Z	; CRect::CRect
  01537	50		 push	 eax
  01538	68 00 00 00 10	 push	 268435456		; 10000000H
  0153d	6a 00		 push	 0
  0153f	8b 8d 68 ff ff
	ff		 mov	 ecx, DWORD PTR _this$[ebp]
  01545	81 c1 fc 01 00
	00		 add	 ecx, 508		; 000001fcH
  0154b	8b 95 68 ff ff
	ff		 mov	 edx, DWORD PTR _this$[ebp]
  01551	8b 82 fc 01 00
	00		 mov	 eax, DWORD PTR [edx+508]
  01557	ff 90 38 01 00
	00		 call	 DWORD PTR [eax+312]

; 351  : 			m_btn2.Create(NULL,WS_VISIBLE,CRect(m_iXSize-67-10,m_iYSize-6-23,m_iXSize-10,m_iYSize-6),this,IDC_MSGD_BTN_2);

  0155d	6a 1e		 push	 30			; 0000001eH
  0155f	8b 8d 68 ff ff
	ff		 mov	 ecx, DWORD PTR _this$[ebp]
  01565	51		 push	 ecx
  01566	8b 95 68 ff ff
	ff		 mov	 edx, DWORD PTR _this$[ebp]
  0156c	8b 42 7c	 mov	 eax, DWORD PTR [edx+124]
  0156f	83 e8 06	 sub	 eax, 6
  01572	50		 push	 eax
  01573	8b 8d 68 ff ff
	ff		 mov	 ecx, DWORD PTR _this$[ebp]
  01579	8b 51 78	 mov	 edx, DWORD PTR [ecx+120]
  0157c	83 ea 0a	 sub	 edx, 10			; 0000000aH
  0157f	52		 push	 edx
  01580	8b 85 68 ff ff
	ff		 mov	 eax, DWORD PTR _this$[ebp]
  01586	8b 48 7c	 mov	 ecx, DWORD PTR [eax+124]
  01589	83 e9 1d	 sub	 ecx, 29			; 0000001dH
  0158c	51		 push	 ecx
  0158d	8b 95 68 ff ff
	ff		 mov	 edx, DWORD PTR _this$[ebp]
  01593	8b 42 78	 mov	 eax, DWORD PTR [edx+120]
  01596	83 e8 4d	 sub	 eax, 77			; 0000004dH
  01599	50		 push	 eax
  0159a	8d 4d 8c	 lea	 ecx, DWORD PTR $T198682[ebp]
  0159d	e8 00 00 00 00	 call	 ??0CRect@@QAE@HHHH@Z	; CRect::CRect
  015a2	50		 push	 eax
  015a3	68 00 00 00 10	 push	 268435456		; 10000000H
  015a8	6a 00		 push	 0
  015aa	8b 8d 68 ff ff
	ff		 mov	 ecx, DWORD PTR _this$[ebp]
  015b0	81 c1 20 03 00
	00		 add	 ecx, 800		; 00000320H
  015b6	8b 95 68 ff ff
	ff		 mov	 edx, DWORD PTR _this$[ebp]
  015bc	8b 82 20 03 00
	00		 mov	 eax, DWORD PTR [edx+800]
  015c2	ff 90 38 01 00
	00		 call	 DWORD PTR [eax+312]
$L197943:

; 352  : 		}
; 353  : 
; 354  : 		m_btn1.SetWindowText( m_strBtnText1 );

  015c8	8b 8d 68 ff ff
	ff		 mov	 ecx, DWORD PTR _this$[ebp]
  015ce	81 c1 84 00 00
	00		 add	 ecx, 132		; 00000084H
  015d4	ff 15 00 00 00
	00		 call	 DWORD PTR __imp_??B?$CSimpleStringT@D$00@ATL@@QBEPBDXZ
  015da	50		 push	 eax
  015db	8b 8d 68 ff ff
	ff		 mov	 ecx, DWORD PTR _this$[ebp]
  015e1	81 c1 fc 01 00
	00		 add	 ecx, 508		; 000001fcH
  015e7	e8 00 00 00 00	 call	 ?SetWindowTextA@CWnd@@QAEXPBD@Z ; CWnd::SetWindowTextA

; 355  : 		m_btn2.SetWindowText( m_strBtnText2 );

  015ec	8b 8d 68 ff ff
	ff		 mov	 ecx, DWORD PTR _this$[ebp]
  015f2	81 c1 88 00 00
	00		 add	 ecx, 136		; 00000088H
  015f8	ff 15 00 00 00
	00		 call	 DWORD PTR __imp_??B?$CSimpleStringT@D$00@ATL@@QBEPBDXZ
  015fe	50		 push	 eax
  015ff	8b 8d 68 ff ff
	ff		 mov	 ecx, DWORD PTR _this$[ebp]
  01605	81 c1 20 03 00
	00		 add	 ecx, 800		; 00000320H
  0160b	e8 00 00 00 00	 call	 ?SetWindowTextA@CWnd@@QAEXPBD@Z ; CWnd::SetWindowTextA

; 356  : 
; 357  : 		m_btn1.SetSkin( pSkinMgr->GetDibBmp("MSGDialogBtn1Normal"),pSkinMgr->GetDibBmp("MSGDialogBtn1Down"),pSkinMgr->GetDibBmp("MSGDialogBtn1Over"),NULL,NULL,NULL,0,0,0);

  01610	6a 00		 push	 0
  01612	6a 00		 push	 0
  01614	6a 00		 push	 0
  01616	6a 00		 push	 0
  01618	6a 00		 push	 0
  0161a	6a 00		 push	 0
  0161c	6a 00		 push	 0
  0161e	68 00 00 00 00	 push	 OFFSET FLAT:$SG197946
  01623	8b 4d fc	 mov	 ecx, DWORD PTR _pSkinMgr$[ebp]
  01626	8b 11		 mov	 edx, DWORD PTR [ecx]
  01628	8b 4d fc	 mov	 ecx, DWORD PTR _pSkinMgr$[ebp]
  0162b	ff 52 04	 call	 DWORD PTR [edx+4]
  0162e	50		 push	 eax
  0162f	68 00 00 00 00	 push	 OFFSET FLAT:$SG197947
  01634	8b 45 fc	 mov	 eax, DWORD PTR _pSkinMgr$[ebp]
  01637	8b 10		 mov	 edx, DWORD PTR [eax]
  01639	8b 4d fc	 mov	 ecx, DWORD PTR _pSkinMgr$[ebp]
  0163c	ff 52 04	 call	 DWORD PTR [edx+4]
  0163f	50		 push	 eax
  01640	68 00 00 00 00	 push	 OFFSET FLAT:$SG197948
  01645	8b 45 fc	 mov	 eax, DWORD PTR _pSkinMgr$[ebp]
  01648	8b 10		 mov	 edx, DWORD PTR [eax]
  0164a	8b 4d fc	 mov	 ecx, DWORD PTR _pSkinMgr$[ebp]
  0164d	ff 52 04	 call	 DWORD PTR [edx+4]
  01650	50		 push	 eax
  01651	8b 8d 68 ff ff
	ff		 mov	 ecx, DWORD PTR _this$[ebp]
  01657	81 c1 fc 01 00
	00		 add	 ecx, 508		; 000001fcH
  0165d	e8 00 00 00 00	 call	 ?SetSkin@CxSkinButton@@QAEXPAVCDibBitmap@@00000FFF_N@Z ; CxSkinButton::SetSkin

; 358  : 		m_btn2.SetSkin( pSkinMgr->GetDibBmp("MSGDialogBtn2Normal"),pSkinMgr->GetDibBmp("MSGDialogBtn2Down"),pSkinMgr->GetDibBmp("MSGDialogBtn2Over"),NULL,NULL,NULL,0,0,0);		

  01662	6a 00		 push	 0
  01664	6a 00		 push	 0
  01666	6a 00		 push	 0
  01668	6a 00		 push	 0
  0166a	6a 00		 push	 0
  0166c	6a 00		 push	 0
  0166e	6a 00		 push	 0
  01670	68 00 00 00 00	 push	 OFFSET FLAT:$SG197949
  01675	8b 45 fc	 mov	 eax, DWORD PTR _pSkinMgr$[ebp]
  01678	8b 10		 mov	 edx, DWORD PTR [eax]
  0167a	8b 4d fc	 mov	 ecx, DWORD PTR _pSkinMgr$[ebp]
  0167d	ff 52 04	 call	 DWORD PTR [edx+4]
  01680	50		 push	 eax
  01681	68 00 00 00 00	 push	 OFFSET FLAT:$SG197950
  01686	8b 45 fc	 mov	 eax, DWORD PTR _pSkinMgr$[ebp]
  01689	8b 10		 mov	 edx, DWORD PTR [eax]
  0168b	8b 4d fc	 mov	 ecx, DWORD PTR _pSkinMgr$[ebp]
  0168e	ff 52 04	 call	 DWORD PTR [edx+4]
  01691	50		 push	 eax
  01692	68 00 00 00 00	 push	 OFFSET FLAT:$SG197951
  01697	8b 45 fc	 mov	 eax, DWORD PTR _pSkinMgr$[ebp]
  0169a	8b 10		 mov	 edx, DWORD PTR [eax]
  0169c	8b 4d fc	 mov	 ecx, DWORD PTR _pSkinMgr$[ebp]
  0169f	ff 52 04	 call	 DWORD PTR [edx+4]
  016a2	50		 push	 eax
  016a3	8b 8d 68 ff ff
	ff		 mov	 ecx, DWORD PTR _this$[ebp]
  016a9	81 c1 20 03 00
	00		 add	 ecx, 800		; 00000320H
  016af	e8 00 00 00 00	 call	 ?SetSkin@CxSkinButton@@QAEXPAVCDibBitmap@@00000FFF_N@Z ; CxSkinButton::SetSkin
$L197939:

; 359  : 	}
; 360  : 
; 361  : 	if( m_bShowCheckBox )

  016b4	8b 85 68 ff ff
	ff		 mov	 eax, DWORD PTR _this$[ebp]
  016ba	83 b8 d0 00 00
	00 00		 cmp	 DWORD PTR [eax+208], 0
  016c1	0f 84 25 01 00
	00		 je	 $L197952

; 362  : 	{
; 363  : 		m_btnCheck.Create(NULL,NULL,CRect(9,107,9+16,107+16),this,IDC_MSGD_BTN_CHECK);

  016c7	6a 28		 push	 40			; 00000028H
  016c9	8b 8d 68 ff ff
	ff		 mov	 ecx, DWORD PTR _this$[ebp]
  016cf	51		 push	 ecx
  016d0	6a 7b		 push	 123			; 0000007bH
  016d2	6a 19		 push	 25			; 00000019H
  016d4	6a 6b		 push	 107			; 0000006bH
  016d6	6a 09		 push	 9
  016d8	8d 8d 7c ff ff
	ff		 lea	 ecx, DWORD PTR $T198683[ebp]
  016de	e8 00 00 00 00	 call	 ??0CRect@@QAE@HHHH@Z	; CRect::CRect
  016e3	50		 push	 eax
  016e4	6a 00		 push	 0
  016e6	6a 00		 push	 0
  016e8	8b 8d 68 ff ff
	ff		 mov	 ecx, DWORD PTR _this$[ebp]
  016ee	81 c1 44 04 00
	00		 add	 ecx, 1092		; 00000444H
  016f4	8b 95 68 ff ff
	ff		 mov	 edx, DWORD PTR _this$[ebp]
  016fa	8b 82 44 04 00
	00		 mov	 eax, DWORD PTR [edx+1092]
  01700	ff 90 38 01 00
	00		 call	 DWORD PTR [eax+312]

; 364  : 		m_btnUnCheck.Create(NULL,WS_VISIBLE,CRect(9,107,9+16,107+16),this,IDC_MSGD_BTN_UNCHECK);

  01706	6a 32		 push	 50			; 00000032H
  01708	8b 8d 68 ff ff
	ff		 mov	 ecx, DWORD PTR _this$[ebp]
  0170e	51		 push	 ecx
  0170f	6a 7b		 push	 123			; 0000007bH
  01711	6a 19		 push	 25			; 00000019H
  01713	6a 6b		 push	 107			; 0000006bH
  01715	6a 09		 push	 9
  01717	8d 8d 6c ff ff
	ff		 lea	 ecx, DWORD PTR $T198684[ebp]
  0171d	e8 00 00 00 00	 call	 ??0CRect@@QAE@HHHH@Z	; CRect::CRect
  01722	50		 push	 eax
  01723	68 00 00 00 10	 push	 268435456		; 10000000H
  01728	6a 00		 push	 0
  0172a	8b 8d 68 ff ff
	ff		 mov	 ecx, DWORD PTR _this$[ebp]
  01730	81 c1 68 05 00
	00		 add	 ecx, 1384		; 00000568H
  01736	8b 95 68 ff ff
	ff		 mov	 edx, DWORD PTR _this$[ebp]
  0173c	8b 82 68 05 00
	00		 mov	 eax, DWORD PTR [edx+1384]
  01742	ff 90 38 01 00
	00		 call	 DWORD PTR [eax+312]

; 365  : 
; 366  : 		m_btnCheck.SetSkin( pSkinMgr->GetDibBmp("msgminorexitboxchkNormal"),pSkinMgr->GetDibBmp("msgminorexitboxchkNormal"),pSkinMgr->GetDibBmp("msgminorexitboxchkOver"),NULL,NULL,NULL,0,0,0);

  01748	6a 00		 push	 0
  0174a	6a 00		 push	 0
  0174c	6a 00		 push	 0
  0174e	6a 00		 push	 0
  01750	6a 00		 push	 0
  01752	6a 00		 push	 0
  01754	6a 00		 push	 0
  01756	68 00 00 00 00	 push	 OFFSET FLAT:$SG197955
  0175b	8b 4d fc	 mov	 ecx, DWORD PTR _pSkinMgr$[ebp]
  0175e	8b 11		 mov	 edx, DWORD PTR [ecx]
  01760	8b 4d fc	 mov	 ecx, DWORD PTR _pSkinMgr$[ebp]
  01763	ff 52 04	 call	 DWORD PTR [edx+4]
  01766	50		 push	 eax
  01767	68 00 00 00 00	 push	 OFFSET FLAT:$SG197956
  0176c	8b 45 fc	 mov	 eax, DWORD PTR _pSkinMgr$[ebp]
  0176f	8b 10		 mov	 edx, DWORD PTR [eax]
  01771	8b 4d fc	 mov	 ecx, DWORD PTR _pSkinMgr$[ebp]
  01774	ff 52 04	 call	 DWORD PTR [edx+4]
  01777	50		 push	 eax
  01778	68 00 00 00 00	 push	 OFFSET FLAT:$SG197957
  0177d	8b 45 fc	 mov	 eax, DWORD PTR _pSkinMgr$[ebp]
  01780	8b 10		 mov	 edx, DWORD PTR [eax]
  01782	8b 4d fc	 mov	 ecx, DWORD PTR _pSkinMgr$[ebp]
  01785	ff 52 04	 call	 DWORD PTR [edx+4]
  01788	50		 push	 eax
  01789	8b 8d 68 ff ff
	ff		 mov	 ecx, DWORD PTR _this$[ebp]
  0178f	81 c1 44 04 00
	00		 add	 ecx, 1092		; 00000444H
  01795	e8 00 00 00 00	 call	 ?SetSkin@CxSkinButton@@QAEXPAVCDibBitmap@@00000FFF_N@Z ; CxSkinButton::SetSkin

; 367  : 		m_btnUnCheck.SetSkin( pSkinMgr->GetDibBmp("msgminorexitboxuchkNormal"),pSkinMgr->GetDibBmp("msgminorexitboxuchkNormal"),pSkinMgr->GetDibBmp("msgminorexitboxuchkOver"),NULL,NULL,NULL,0,0,0);		

  0179a	6a 00		 push	 0
  0179c	6a 00		 push	 0
  0179e	6a 00		 push	 0
  017a0	6a 00		 push	 0
  017a2	6a 00		 push	 0
  017a4	6a 00		 push	 0
  017a6	6a 00		 push	 0
  017a8	68 00 00 00 00	 push	 OFFSET FLAT:$SG197958
  017ad	8b 45 fc	 mov	 eax, DWORD PTR _pSkinMgr$[ebp]
  017b0	8b 10		 mov	 edx, DWORD PTR [eax]
  017b2	8b 4d fc	 mov	 ecx, DWORD PTR _pSkinMgr$[ebp]
  017b5	ff 52 04	 call	 DWORD PTR [edx+4]
  017b8	50		 push	 eax
  017b9	68 00 00 00 00	 push	 OFFSET FLAT:$SG197959
  017be	8b 45 fc	 mov	 eax, DWORD PTR _pSkinMgr$[ebp]
  017c1	8b 10		 mov	 edx, DWORD PTR [eax]
  017c3	8b 4d fc	 mov	 ecx, DWORD PTR _pSkinMgr$[ebp]
  017c6	ff 52 04	 call	 DWORD PTR [edx+4]
  017c9	50		 push	 eax
  017ca	68 00 00 00 00	 push	 OFFSET FLAT:$SG197960
  017cf	8b 45 fc	 mov	 eax, DWORD PTR _pSkinMgr$[ebp]
  017d2	8b 10		 mov	 edx, DWORD PTR [eax]
  017d4	8b 4d fc	 mov	 ecx, DWORD PTR _pSkinMgr$[ebp]
  017d7	ff 52 04	 call	 DWORD PTR [edx+4]
  017da	50		 push	 eax
  017db	8b 8d 68 ff ff
	ff		 mov	 ecx, DWORD PTR _this$[ebp]
  017e1	81 c1 68 05 00
	00		 add	 ecx, 1384		; 00000568H
  017e7	e8 00 00 00 00	 call	 ?SetSkin@CxSkinButton@@QAEXPAVCDibBitmap@@00000FFF_N@Z ; CxSkinButton::SetSkin
$L197952:

; 368  : 	}
; 369  : 		
; 370  : 	CenterWindow();

  017ec	6a 00		 push	 0
  017ee	8b 8d 68 ff ff
	ff		 mov	 ecx, DWORD PTR _this$[ebp]
  017f4	e8 00 00 00 00	 call	 ?CenterWindow@CWnd@@QAEXPAV1@@Z ; CWnd::CenterWindow

; 371  : 
; 372  : 	return TRUE;  

  017f9	b8 01 00 00 00	 mov	 eax, 1

; 373  : }

  017fe	8b e5		 mov	 esp, ebp
  01800	5d		 pop	 ebp
  01801	c3		 ret	 0
?OnInitDialog@CDialogMsg@@UAEHXZ ENDP			; CDialogMsg::OnInitDialog
_TEXT	ENDS
PUBLIC	?InterlockedExchangePointer@@YGPAXPAPAXPAX@Z	; InterlockedExchangePointer
PUBLIC	?_AtlGetThreadACPFake@ATL@@YGIXZ		; ATL::_AtlGetThreadACPFake
PUBLIC	?_AtlGetThreadACPReal@ATL@@YGIXZ		; ATL::_AtlGetThreadACPReal
EXTRN	__imp__GetVersionExA@4:NEAR
; Function compile flags: /Odt
; File d:\program files (x86)\microsoft visual studio .net 2003\vc7\atlmfc\include\atlconv.h
;	COMDAT ?_AtlGetThreadACPThunk@ATL@@YGIXZ
_TEXT	SEGMENT
_pfnGetThreadACP$ = -164				; size = 4
_ver$ = -160						; size = 148
__$ArrayPad$ = -4					; size = 4
__$ReturnAddr$ = 4					; size = 4
?_AtlGetThreadACPThunk@ATL@@YGIXZ PROC NEAR		; ATL::_AtlGetThreadACPThunk, COMDAT

; 134  : {

  00000	55		 push	 ebp
  00001	8b ec		 mov	 ebp, esp
  00003	81 ec a4 00 00
	00		 sub	 esp, 164		; 000000a4H
  00009	a1 00 00 00 00	 mov	 eax, DWORD PTR ___security_cookie
  0000e	89 45 fc	 mov	 DWORD PTR __$ArrayPad$[ebp], eax

; 135  : 	OSVERSIONINFO ver;
; 136  : 	ATLGETTHREADACP pfnGetThreadACP;
; 137  : 
; 138  : 	ver.dwOSVersionInfoSize = sizeof( ver );

  00011	c7 85 60 ff ff
	ff 94 00 00 00	 mov	 DWORD PTR _ver$[ebp], 148 ; 00000094H

; 139  : 	::GetVersionEx( &ver );

  0001b	8d 85 60 ff ff
	ff		 lea	 eax, DWORD PTR _ver$[ebp]
  00021	50		 push	 eax
  00022	ff 15 00 00 00
	00		 call	 DWORD PTR __imp__GetVersionExA@4

; 140  : 	if( (ver.dwPlatformId == VER_PLATFORM_WIN32_NT) && (ver.dwMajorVersion >= 5) )

  00028	83 bd 70 ff ff
	ff 02		 cmp	 DWORD PTR _ver$[ebp+16], 2
  0002f	75 15		 jne	 SHORT $L24173
  00031	83 bd 64 ff ff
	ff 05		 cmp	 DWORD PTR _ver$[ebp+4], 5
  00038	72 0c		 jb	 SHORT $L24173

; 141  : 	{
; 142  : 		// On Win2K, CP_THREAD_ACP is supported
; 143  : 		pfnGetThreadACP = _AtlGetThreadACPReal;

  0003a	c7 85 5c ff ff
	ff 00 00 00 00	 mov	 DWORD PTR _pfnGetThreadACP$[ebp], OFFSET FLAT:?_AtlGetThreadACPReal@ATL@@YGIXZ ; ATL::_AtlGetThreadACPReal

; 144  : 	}
; 145  : 	else

  00044	eb 0a		 jmp	 SHORT $L24174
$L24173:

; 146  : 	{
; 147  : 		pfnGetThreadACP = _AtlGetThreadACPFake;

  00046	c7 85 5c ff ff
	ff 00 00 00 00	 mov	 DWORD PTR _pfnGetThreadACP$[ebp], OFFSET FLAT:?_AtlGetThreadACPFake@ATL@@YGIXZ ; ATL::_AtlGetThreadACPFake
$L24174:

; 148  : 	}
; 149  : 	InterlockedExchangePointer( reinterpret_cast< void** >(&g_pfnGetThreadACP), pfnGetThreadACP );

  00050	8b 8d 5c ff ff
	ff		 mov	 ecx, DWORD PTR _pfnGetThreadACP$[ebp]
  00056	51		 push	 ecx
  00057	68 00 00 00 00	 push	 OFFSET FLAT:?g_pfnGetThreadACP@ATL@@3P6GIXZA ; ATL::g_pfnGetThreadACP
  0005c	e8 00 00 00 00	 call	 ?InterlockedExchangePointer@@YGPAXPAPAXPAX@Z ; InterlockedExchangePointer

; 150  : 
; 151  : 	return( g_pfnGetThreadACP() );

  00061	ff 15 00 00 00
	00		 call	 DWORD PTR ?g_pfnGetThreadACP@ATL@@3P6GIXZA ; ATL::g_pfnGetThreadACP

; 152  : }

  00067	8b 4d fc	 mov	 ecx, DWORD PTR __$ArrayPad$[ebp]
  0006a	e8 00 00 00 00	 call	 @__security_check_cookie@4
  0006f	8b e5		 mov	 esp, ebp
  00071	5d		 pop	 ebp
  00072	c3		 ret	 0
?_AtlGetThreadACPThunk@ATL@@YGIXZ ENDP			; ATL::_AtlGetThreadACPThunk
_TEXT	ENDS
EXTRN	__imp__InterlockedExchange@8:NEAR
; Function compile flags: /Odt
;	COMDAT ?InterlockedExchangePointer@@YGPAXPAPAXPAX@Z
_TEXT	SEGMENT
_pp$ = 8						; size = 4
_pNew$ = 12						; size = 4
?InterlockedExchangePointer@@YGPAXPAPAXPAX@Z PROC NEAR	; InterlockedExchangePointer, COMDAT

; 91   : {

  00000	55		 push	 ebp
  00001	8b ec		 mov	 ebp, esp

; 92   : 	return( reinterpret_cast<void*>(static_cast<LONG_PTR>(::InterlockedExchange(reinterpret_cast<LONG*>(pp), static_cast<LONG>(reinterpret_cast<LONG_PTR>(pNew))))) );

  00003	8b 45 0c	 mov	 eax, DWORD PTR _pNew$[ebp]
  00006	50		 push	 eax
  00007	8b 4d 08	 mov	 ecx, DWORD PTR _pp$[ebp]
  0000a	51		 push	 ecx
  0000b	ff 15 00 00 00
	00		 call	 DWORD PTR __imp__InterlockedExchange@8

; 93   : }

  00011	5d		 pop	 ebp
  00012	c2 08 00	 ret	 8
?InterlockedExchangePointer@@YGPAXPAPAXPAX@Z ENDP	; InterlockedExchangePointer
_TEXT	ENDS
EXTRN	__imp__GetACP@0:NEAR
EXTRN	__imp__GetLocaleInfoA@16:NEAR
EXTRN	__imp__GetThreadLocale@0:NEAR
; Function compile flags: /Odt
;	COMDAT ?_AtlGetThreadACPFake@ATL@@YGIXZ
_TEXT	SEGMENT
_pch$24161 = -24					; size = 4
_lcidThread$ = -20					; size = 4
_szACP$ = -16						; size = 7
__$ArrayPad$ = -8					; size = 4
_nACP$ = -4						; size = 4
__$ReturnAddr$ = 4					; size = 4
?_AtlGetThreadACPFake@ATL@@YGIXZ PROC NEAR		; ATL::_AtlGetThreadACPFake, COMDAT

; 101  : {

  00000	55		 push	 ebp
  00001	8b ec		 mov	 ebp, esp
  00003	83 ec 18	 sub	 esp, 24			; 00000018H
  00006	a1 00 00 00 00	 mov	 eax, DWORD PTR ___security_cookie
  0000b	89 45 f8	 mov	 DWORD PTR __$ArrayPad$[ebp], eax

; 102  : 	UINT nACP = 0;

  0000e	c7 45 fc 00 00
	00 00		 mov	 DWORD PTR _nACP$[ebp], 0

; 103  : 
; 104  : 	LCID lcidThread = ::GetThreadLocale();

  00015	ff 15 00 00 00
	00		 call	 DWORD PTR __imp__GetThreadLocale@0
  0001b	89 45 ec	 mov	 DWORD PTR _lcidThread$[ebp], eax

; 105  : 
; 106  : 	char szACP[7];
; 107  : 	// GetLocaleInfoA will fail for a Unicode-only LCID, but those are only supported on 
; 108  : 	// Windows 2000.  Since Windows 2000 supports CP_THREAD_ACP, this code path is never
; 109  : 	// executed on Windows 2000.
; 110  : 	if (::GetLocaleInfoA(lcidThread, LOCALE_IDEFAULTANSICODEPAGE, szACP, 7) != 0)

  0001e	6a 07		 push	 7
  00020	8d 45 f0	 lea	 eax, DWORD PTR _szACP$[ebp]
  00023	50		 push	 eax
  00024	68 04 10 00 00	 push	 4100			; 00001004H
  00029	8b 4d ec	 mov	 ecx, DWORD PTR _lcidThread$[ebp]
  0002c	51		 push	 ecx
  0002d	ff 15 00 00 00
	00		 call	 DWORD PTR __imp__GetLocaleInfoA@16
  00033	85 c0		 test	 eax, eax
  00035	74 34		 je	 SHORT $L24160

; 111  : 	{
; 112  : 		char* pch = szACP;

  00037	8d 55 f0	 lea	 edx, DWORD PTR _szACP$[ebp]
  0003a	89 55 e8	 mov	 DWORD PTR _pch$24161[ebp], edx
$L24163:

; 113  : 		while (*pch != '\0')

  0003d	8b 45 e8	 mov	 eax, DWORD PTR _pch$24161[ebp]
  00040	0f be 08	 movsx	 ecx, BYTE PTR [eax]
  00043	85 c9		 test	 ecx, ecx
  00045	74 24		 je	 SHORT $L24160

; 114  : 		{
; 115  : 			nACP *= 10;

  00047	8b 55 fc	 mov	 edx, DWORD PTR _nACP$[ebp]
  0004a	6b d2 0a	 imul	 edx, 10			; 0000000aH
  0004d	89 55 fc	 mov	 DWORD PTR _nACP$[ebp], edx

; 116  : 			nACP += *pch++ - '0';

  00050	8b 45 e8	 mov	 eax, DWORD PTR _pch$24161[ebp]
  00053	0f be 08	 movsx	 ecx, BYTE PTR [eax]
  00056	8b 55 fc	 mov	 edx, DWORD PTR _nACP$[ebp]
  00059	8d 44 0a d0	 lea	 eax, DWORD PTR [edx+ecx-48]
  0005d	89 45 fc	 mov	 DWORD PTR _nACP$[ebp], eax
  00060	8b 4d e8	 mov	 ecx, DWORD PTR _pch$24161[ebp]
  00063	83 c1 01	 add	 ecx, 1
  00066	89 4d e8	 mov	 DWORD PTR _pch$24161[ebp], ecx

; 117  : 		}

  00069	eb d2		 jmp	 SHORT $L24163
$L24160:

; 118  : 	}
; 119  : 	// Use the Default ANSI Code Page if we were unable to get the thread ACP or if one does not exist.
; 120  : 	if (nACP == 0)

  0006b	83 7d fc 00	 cmp	 DWORD PTR _nACP$[ebp], 0
  0006f	75 09		 jne	 SHORT $L24165

; 121  : 		nACP = ::GetACP();

  00071	ff 15 00 00 00
	00		 call	 DWORD PTR __imp__GetACP@0
  00077	89 45 fc	 mov	 DWORD PTR _nACP$[ebp], eax
$L24165:

; 122  : 
; 123  : 	return nACP;

  0007a	8b 45 fc	 mov	 eax, DWORD PTR _nACP$[ebp]

; 124  : }

  0007d	8b 4d f8	 mov	 ecx, DWORD PTR __$ArrayPad$[ebp]
  00080	e8 00 00 00 00	 call	 @__security_check_cookie@4
  00085	8b e5		 mov	 esp, ebp
  00087	5d		 pop	 ebp
  00088	c3		 ret	 0
?_AtlGetThreadACPFake@ATL@@YGIXZ ENDP			; ATL::_AtlGetThreadACPFake
; Function compile flags: /Odt
_TEXT	ENDS
;	COMDAT ?_AtlGetThreadACPReal@ATL@@YGIXZ
_TEXT	SEGMENT
?_AtlGetThreadACPReal@ATL@@YGIXZ PROC NEAR		; ATL::_AtlGetThreadACPReal, COMDAT

; 127  : {

  00000	55		 push	 ebp
  00001	8b ec		 mov	 ebp, esp

; 128  : 	return( CP_THREAD_ACP );

  00003	b8 03 00 00 00	 mov	 eax, 3

; 129  : }

  00008	5d		 pop	 ebp
  00009	c3		 ret	 0
?_AtlGetThreadACPReal@ATL@@YGIXZ ENDP			; ATL::_AtlGetThreadACPReal
_TEXT	ENDS
PUBLIC	?IsWindowVisible@CWnd@@QBEHXZ			; CWnd::IsWindowVisible
PUBLIC	?PtInRect@CRect@@QBEHUtagPOINT@@@Z		; CRect::PtInRect
PUBLIC	?OnLButtonDown@CWnd@@IAEXIVCPoint@@@Z		; CWnd::OnLButtonDown
PUBLIC	?PostMessageA@CWnd@@QAEHIIJ@Z			; CWnd::PostMessageA
EXTRN	?ShowWindow@CWnd@@QAEHH@Z:NEAR			; CWnd::ShowWindow
; Function compile flags: /Odt
; File d:\boxgit\playbox\playbox\dev\prj\playbox\src\gui\commoncontrol\dialogmsg.cpp
_TEXT	SEGMENT
_this$ = -12						; size = 4
$T198698 = -8						; size = 8
_nFlags$ = 8						; size = 4
_point$ = 12						; size = 8
?OnLButtonDown@CDialogMsg@@QAEXIVCPoint@@@Z PROC NEAR	; CDialogMsg::OnLButtonDown
; _this$ = ecx

; 376  : {	

  01810	55		 push	 ebp
  01811	8b ec		 mov	 ebp, esp
  01813	83 ec 0c	 sub	 esp, 12			; 0000000cH
  01816	89 4d f4	 mov	 DWORD PTR _this$[ebp], ecx

; 377  : 	if( m_NoMoreHintRect.PtInRect( point) )

  01819	8b 45 0c	 mov	 eax, DWORD PTR _point$[ebp]
  0181c	89 45 f8	 mov	 DWORD PTR $T198698[ebp], eax
  0181f	8b 4d 10	 mov	 ecx, DWORD PTR _point$[ebp+4]
  01822	89 4d fc	 mov	 DWORD PTR $T198698[ebp+4], ecx
  01825	8b 55 fc	 mov	 edx, DWORD PTR $T198698[ebp+4]
  01828	52		 push	 edx
  01829	8b 45 f8	 mov	 eax, DWORD PTR $T198698[ebp]
  0182c	50		 push	 eax
  0182d	8b 4d f4	 mov	 ecx, DWORD PTR _this$[ebp]
  01830	81 c1 b0 00 00
	00		 add	 ecx, 176		; 000000b0H
  01836	e8 00 00 00 00	 call	 ?PtInRect@CRect@@QBEHUtagPOINT@@@Z ; CRect::PtInRect
  0183b	85 c0		 test	 eax, eax
  0183d	74 72		 je	 SHORT $L197967

; 378  : 	{
; 379  : 		if( m_btnCheck.IsWindowVisible() ) 

  0183f	8b 4d f4	 mov	 ecx, DWORD PTR _this$[ebp]
  01842	81 c1 44 04 00
	00		 add	 ecx, 1092		; 00000444H
  01848	e8 00 00 00 00	 call	 ?IsWindowVisible@CWnd@@QBEHXZ ; CWnd::IsWindowVisible
  0184d	85 c0		 test	 eax, eax
  0184f	74 30		 je	 SHORT $L197968

; 380  : 		{
; 381  : 			m_btnCheck.ShowWindow(SW_HIDE);

  01851	6a 00		 push	 0
  01853	8b 4d f4	 mov	 ecx, DWORD PTR _this$[ebp]
  01856	81 c1 44 04 00
	00		 add	 ecx, 1092		; 00000444H
  0185c	e8 00 00 00 00	 call	 ?ShowWindow@CWnd@@QAEHH@Z ; CWnd::ShowWindow

; 382  : 			m_btnUnCheck.ShowWindow(SW_SHOW);

  01861	6a 05		 push	 5
  01863	8b 4d f4	 mov	 ecx, DWORD PTR _this$[ebp]
  01866	81 c1 68 05 00
	00		 add	 ecx, 1384		; 00000568H
  0186c	e8 00 00 00 00	 call	 ?ShowWindow@CWnd@@QAEHH@Z ; CWnd::ShowWindow

; 383  : 
; 384  : 			CheckBox_UnChecked();

  01871	8b 4d f4	 mov	 ecx, DWORD PTR _this$[ebp]
  01874	8b 11		 mov	 edx, DWORD PTR [ecx]
  01876	8b 4d f4	 mov	 ecx, DWORD PTR _this$[ebp]
  01879	ff 92 78 01 00
	00		 call	 DWORD PTR [edx+376]

; 385  : 		}
; 386  : 		else

  0187f	eb 2e		 jmp	 SHORT $L197969
$L197968:

; 387  : 		{
; 388  : 			m_btnCheck.ShowWindow(SW_SHOW);

  01881	6a 05		 push	 5
  01883	8b 4d f4	 mov	 ecx, DWORD PTR _this$[ebp]
  01886	81 c1 44 04 00
	00		 add	 ecx, 1092		; 00000444H
  0188c	e8 00 00 00 00	 call	 ?ShowWindow@CWnd@@QAEHH@Z ; CWnd::ShowWindow

; 389  : 			m_btnUnCheck.ShowWindow(SW_HIDE);

  01891	6a 00		 push	 0
  01893	8b 4d f4	 mov	 ecx, DWORD PTR _this$[ebp]
  01896	81 c1 68 05 00
	00		 add	 ecx, 1384		; 00000568H
  0189c	e8 00 00 00 00	 call	 ?ShowWindow@CWnd@@QAEHH@Z ; CWnd::ShowWindow

; 390  : 			CheckBox_Checked();

  018a1	8b 45 f4	 mov	 eax, DWORD PTR _this$[ebp]
  018a4	8b 10		 mov	 edx, DWORD PTR [eax]
  018a6	8b 4d f4	 mov	 ecx, DWORD PTR _this$[ebp]
  018a9	ff 92 74 01 00
	00		 call	 DWORD PTR [edx+372]
$L197969:

; 391  : 		}
; 392  : 	}
; 393  : 	else

  018af	eb 27		 jmp	 SHORT $L197965
$L197967:

; 394  : 	{
; 395  : 		PostMessage( WM_NCLBUTTONDOWN, HTCAPTION, (LPARAM)&point );	

  018b1	8d 45 0c	 lea	 eax, DWORD PTR _point$[ebp]
  018b4	50		 push	 eax
  018b5	6a 02		 push	 2
  018b7	68 a1 00 00 00	 push	 161			; 000000a1H
  018bc	8b 4d f4	 mov	 ecx, DWORD PTR _this$[ebp]
  018bf	e8 00 00 00 00	 call	 ?PostMessageA@CWnd@@QAEHIIJ@Z ; CWnd::PostMessageA

; 396  : 		CDialog::OnLButtonDown(nFlags, point);

  018c4	8b 4d 10	 mov	 ecx, DWORD PTR _point$[ebp+4]
  018c7	51		 push	 ecx
  018c8	8b 55 0c	 mov	 edx, DWORD PTR _point$[ebp]
  018cb	52		 push	 edx
  018cc	8b 45 08	 mov	 eax, DWORD PTR _nFlags$[ebp]
  018cf	50		 push	 eax
  018d0	8b 4d f4	 mov	 ecx, DWORD PTR _this$[ebp]
  018d3	e8 00 00 00 00	 call	 ?OnLButtonDown@CWnd@@IAEXIVCPoint@@@Z ; CWnd::OnLButtonDown
$L197965:

; 397  : 	}
; 398  : }

  018d8	8b e5		 mov	 esp, ebp
  018da	5d		 pop	 ebp
  018db	c2 0c 00	 ret	 12			; 0000000cH
?OnLButtonDown@CDialogMsg@@QAEXIVCPoint@@@Z ENDP	; CDialogMsg::OnLButtonDown
; Function compile flags: /Odt
_this$ = -4						; size = 4
?OnBnClickedCheck@CDialogMsg@@QAEXXZ PROC NEAR		; CDialogMsg::OnBnClickedCheck
; _this$ = ecx

; 402  : {

  018e0	55		 push	 ebp
  018e1	8b ec		 mov	 ebp, esp
  018e3	51		 push	 ecx
  018e4	89 4d fc	 mov	 DWORD PTR _this$[ebp], ecx

; 403  : 	m_btnCheck.ShowWindow(SW_HIDE);

  018e7	6a 00		 push	 0
  018e9	8b 4d fc	 mov	 ecx, DWORD PTR _this$[ebp]
  018ec	81 c1 44 04 00
	00		 add	 ecx, 1092		; 00000444H
  018f2	e8 00 00 00 00	 call	 ?ShowWindow@CWnd@@QAEHH@Z ; CWnd::ShowWindow

; 404  : 	m_btnUnCheck.ShowWindow(SW_SHOW);

  018f7	6a 05		 push	 5
  018f9	8b 4d fc	 mov	 ecx, DWORD PTR _this$[ebp]
  018fc	81 c1 68 05 00
	00		 add	 ecx, 1384		; 00000568H
  01902	e8 00 00 00 00	 call	 ?ShowWindow@CWnd@@QAEHH@Z ; CWnd::ShowWindow

; 405  : 	CheckBox_UnChecked();

  01907	8b 45 fc	 mov	 eax, DWORD PTR _this$[ebp]
  0190a	8b 10		 mov	 edx, DWORD PTR [eax]
  0190c	8b 4d fc	 mov	 ecx, DWORD PTR _this$[ebp]
  0190f	ff 92 78 01 00
	00		 call	 DWORD PTR [edx+376]

; 406  : }

  01915	8b e5		 mov	 esp, ebp
  01917	5d		 pop	 ebp
  01918	c3		 ret	 0
?OnBnClickedCheck@CDialogMsg@@QAEXXZ ENDP		; CDialogMsg::OnBnClickedCheck
; Function compile flags: /Odt
_this$ = -4						; size = 4
?OnBnClickedUnCheck@CDialogMsg@@QAEXXZ PROC NEAR	; CDialogMsg::OnBnClickedUnCheck
; _this$ = ecx

; 409  : {

  01920	55		 push	 ebp
  01921	8b ec		 mov	 ebp, esp
  01923	51		 push	 ecx
  01924	89 4d fc	 mov	 DWORD PTR _this$[ebp], ecx

; 410  : 	m_btnCheck.ShowWindow(SW_SHOW);

  01927	6a 05		 push	 5
  01929	8b 4d fc	 mov	 ecx, DWORD PTR _this$[ebp]
  0192c	81 c1 44 04 00
	00		 add	 ecx, 1092		; 00000444H
  01932	e8 00 00 00 00	 call	 ?ShowWindow@CWnd@@QAEHH@Z ; CWnd::ShowWindow

; 411  : 	m_btnUnCheck.ShowWindow(SW_HIDE);

  01937	6a 00		 push	 0
  01939	8b 4d fc	 mov	 ecx, DWORD PTR _this$[ebp]
  0193c	81 c1 68 05 00
	00		 add	 ecx, 1384		; 00000568H
  01942	e8 00 00 00 00	 call	 ?ShowWindow@CWnd@@QAEHH@Z ; CWnd::ShowWindow

; 412  : 	CheckBox_Checked();

  01947	8b 45 fc	 mov	 eax, DWORD PTR _this$[ebp]
  0194a	8b 10		 mov	 edx, DWORD PTR [eax]
  0194c	8b 4d fc	 mov	 ecx, DWORD PTR _this$[ebp]
  0194f	ff 92 74 01 00
	00		 call	 DWORD PTR [edx+372]

; 413  : }

  01955	8b e5		 mov	 esp, ebp
  01957	5d		 pop	 ebp
  01958	c3		 ret	 0
?OnBnClickedUnCheck@CDialogMsg@@QAEXXZ ENDP		; CDialogMsg::OnBnClickedUnCheck
_TEXT	ENDS
PUBLIC	?ShowCheckBox@CDialogMsg@@QAEXH@Z		; CDialogMsg::ShowCheckBox
; Function compile flags: /Odt
_TEXT	SEGMENT
_this$ = -4						; size = 4
_bShow$ = 8						; size = 4
?ShowCheckBox@CDialogMsg@@QAEXH@Z PROC NEAR		; CDialogMsg::ShowCheckBox
; _this$ = ecx

; 416  : {

  01960	55		 push	 ebp
  01961	8b ec		 mov	 ebp, esp
  01963	51		 push	 ecx
  01964	89 4d fc	 mov	 DWORD PTR _this$[ebp], ecx

; 417  : 	m_bShowCheckBox = bShow;

  01967	8b 45 fc	 mov	 eax, DWORD PTR _this$[ebp]
  0196a	8b 4d 08	 mov	 ecx, DWORD PTR _bShow$[ebp]
  0196d	89 88 d0 00 00
	00		 mov	 DWORD PTR [eax+208], ecx

; 418  : 	if( m_bShowCheckBox )

  01973	8b 55 fc	 mov	 edx, DWORD PTR _this$[ebp]
  01976	83 ba d0 00 00
	00 00		 cmp	 DWORD PTR [edx+208], 0
  0197d	74 12		 je	 SHORT $L197981

; 419  : 	{
; 420  : 		SetSize(260,131);

  0197f	68 83 00 00 00	 push	 131			; 00000083H
  01984	68 04 01 00 00	 push	 260			; 00000104H
  01989	8b 4d fc	 mov	 ecx, DWORD PTR _this$[ebp]
  0198c	e8 00 00 00 00	 call	 ?SetSize@CDialogMsg@@QAEXHH@Z ; CDialogMsg::SetSize
$L197981:

; 421  : 	}
; 422  : }

  01991	8b e5		 mov	 esp, ebp
  01993	5d		 pop	 ebp
  01994	c2 04 00	 ret	 4
?ShowCheckBox@CDialogMsg@@QAEXH@Z ENDP			; CDialogMsg::ShowCheckBox
_TEXT	ENDS
PUBLIC	?SetCheckBoxText@CDialogMsg@@QAEXABV?$CStringT@DV?$StrTraitMFC_DLL@DV?$ChTraitsCRT@D@ATL@@@@@ATL@@@Z ; CDialogMsg::SetCheckBoxText
; Function compile flags: /Odt
_TEXT	SEGMENT
_this$ = -4						; size = 4
_str$ = 8						; size = 4
?SetCheckBoxText@CDialogMsg@@QAEXABV?$CStringT@DV?$StrTraitMFC_DLL@DV?$ChTraitsCRT@D@ATL@@@@@ATL@@@Z PROC NEAR ; CDialogMsg::SetCheckBoxText
; _this$ = ecx

; 425  : {

  019a0	55		 push	 ebp
  019a1	8b ec		 mov	 ebp, esp
  019a3	51		 push	 ecx
  019a4	89 4d fc	 mov	 DWORD PTR _this$[ebp], ecx

; 426  : 	m_strCheckBox = str;

  019a7	8b 45 08	 mov	 eax, DWORD PTR _str$[ebp]
  019aa	50		 push	 eax
  019ab	8b 4d fc	 mov	 ecx, DWORD PTR _this$[ebp]
  019ae	81 c1 d4 00 00
	00		 add	 ecx, 212		; 000000d4H
  019b4	ff 15 00 00 00
	00		 call	 DWORD PTR __imp_??4?$CStringT@DV?$StrTraitMFC_DLL@DV?$ChTraitsCRT@D@ATL@@@@@ATL@@QAEAAV01@ABV01@@Z

; 427  : }

  019ba	8b e5		 mov	 esp, ebp
  019bc	5d		 pop	 ebp
  019bd	c2 04 00	 ret	 4
?SetCheckBoxText@CDialogMsg@@QAEXABV?$CStringT@DV?$StrTraitMFC_DLL@DV?$ChTraitsCRT@D@ATL@@@@@ATL@@@Z ENDP ; CDialogMsg::SetCheckBoxText
; Function compile flags: /Odt
_TEXT	ENDS
;	COMDAT ??_9@$BBFE@AE
_TEXT	SEGMENT
??_9@$BBFE@AE PROC NEAR					; `vcall', COMDAT
  00000	8b 01		 mov	 eax, DWORD PTR [ecx]
  00002	ff a0 54 01 00
	00		 jmp	 DWORD PTR [eax+340]
??_9@$BBFE@AE ENDP					; `vcall'
; Function compile flags: /Odt
_TEXT	ENDS
;	COMDAT ??_9@$BBFI@AE
_TEXT	SEGMENT
??_9@$BBFI@AE PROC NEAR					; `vcall', COMDAT
  00000	8b 01		 mov	 eax, DWORD PTR [ecx]
  00002	ff a0 58 01 00
	00		 jmp	 DWORD PTR [eax+344]
??_9@$BBFI@AE ENDP					; `vcall'
; Function compile flags: /Odt
; File d:\program files (x86)\microsoft visual studio .net 2003\vc7\atlmfc\include\atltypes.inl
_TEXT	ENDS
;	COMDAT ??0CRect@@QAE@XZ
_TEXT	SEGMENT
_this$ = -4						; size = 4
??0CRect@@QAE@XZ PROC NEAR				; CRect::CRect, COMDAT
; _this$ = ecx

; 110  : 	{ /* random filled */ }

  00000	55		 push	 ebp
  00001	8b ec		 mov	 ebp, esp
  00003	51		 push	 ecx
  00004	89 4d fc	 mov	 DWORD PTR _this$[ebp], ecx
  00007	8b 45 fc	 mov	 eax, DWORD PTR _this$[ebp]
  0000a	8b e5		 mov	 esp, ebp
  0000c	5d		 pop	 ebp
  0000d	c3		 ret	 0
??0CRect@@QAE@XZ ENDP					; CRect::CRect
; Function compile flags: /Odt
_TEXT	ENDS
;	COMDAT ??0CRect@@QAE@HHHH@Z
_TEXT	SEGMENT
_this$ = -4						; size = 4
_l$ = 8							; size = 4
_t$ = 12						; size = 4
_r$ = 16						; size = 4
_b$ = 20						; size = 4
??0CRect@@QAE@HHHH@Z PROC NEAR				; CRect::CRect, COMDAT
; _this$ = ecx

; 112  : 	{ left = l; top = t; right = r; bottom = b; }

  00000	55		 push	 ebp
  00001	8b ec		 mov	 ebp, esp
  00003	51		 push	 ecx
  00004	89 4d fc	 mov	 DWORD PTR _this$[ebp], ecx
  00007	8b 45 fc	 mov	 eax, DWORD PTR _this$[ebp]
  0000a	8b 4d 08	 mov	 ecx, DWORD PTR _l$[ebp]
  0000d	89 08		 mov	 DWORD PTR [eax], ecx
  0000f	8b 55 fc	 mov	 edx, DWORD PTR _this$[ebp]
  00012	8b 45 0c	 mov	 eax, DWORD PTR _t$[ebp]
  00015	89 42 04	 mov	 DWORD PTR [edx+4], eax
  00018	8b 4d fc	 mov	 ecx, DWORD PTR _this$[ebp]
  0001b	8b 55 10	 mov	 edx, DWORD PTR _r$[ebp]
  0001e	89 51 08	 mov	 DWORD PTR [ecx+8], edx
  00021	8b 45 fc	 mov	 eax, DWORD PTR _this$[ebp]
  00024	8b 4d 14	 mov	 ecx, DWORD PTR _b$[ebp]
  00027	89 48 0c	 mov	 DWORD PTR [eax+12], ecx
  0002a	8b 45 fc	 mov	 eax, DWORD PTR _this$[ebp]
  0002d	8b e5		 mov	 esp, ebp
  0002f	5d		 pop	 ebp
  00030	c2 10 00	 ret	 16			; 00000010H
??0CRect@@QAE@HHHH@Z ENDP				; CRect::CRect
; Function compile flags: /Odt
_TEXT	ENDS
;	COMDAT ??BCRect@@QAEPAUtagRECT@@XZ
_TEXT	SEGMENT
_this$ = -4						; size = 4
??BCRect@@QAEPAUtagRECT@@XZ PROC NEAR			; CRect::operator tagRECT *, COMDAT
; _this$ = ecx

; 143  : 	{ return this; }

  00000	55		 push	 ebp
  00001	8b ec		 mov	 ebp, esp
  00003	51		 push	 ecx
  00004	89 4d fc	 mov	 DWORD PTR _this$[ebp], ecx
  00007	8b 45 fc	 mov	 eax, DWORD PTR _this$[ebp]
  0000a	8b e5		 mov	 esp, ebp
  0000c	5d		 pop	 ebp
  0000d	c3		 ret	 0
??BCRect@@QAEPAUtagRECT@@XZ ENDP			; CRect::operator tagRECT *
_TEXT	ENDS
EXTRN	__imp__PtInRect@12:NEAR
; Function compile flags: /Odt
;	COMDAT ?PtInRect@CRect@@QBEHUtagPOINT@@@Z
_TEXT	SEGMENT
_this$ = -4						; size = 4
_point$ = 8						; size = 8
?PtInRect@CRect@@QBEHUtagPOINT@@@Z PROC NEAR		; CRect::PtInRect, COMDAT
; _this$ = ecx

; 151  : 	{ return ::PtInRect(this, point); }

  00000	55		 push	 ebp
  00001	8b ec		 mov	 ebp, esp
  00003	51		 push	 ecx
  00004	89 4d fc	 mov	 DWORD PTR _this$[ebp], ecx
  00007	8b 45 0c	 mov	 eax, DWORD PTR _point$[ebp+4]
  0000a	50		 push	 eax
  0000b	8b 4d 08	 mov	 ecx, DWORD PTR _point$[ebp]
  0000e	51		 push	 ecx
  0000f	8b 55 fc	 mov	 edx, DWORD PTR _this$[ebp]
  00012	52		 push	 edx
  00013	ff 15 00 00 00
	00		 call	 DWORD PTR __imp__PtInRect@12
  00019	8b e5		 mov	 esp, ebp
  0001b	5d		 pop	 ebp
  0001c	c2 08 00	 ret	 8
?PtInRect@CRect@@QBEHUtagPOINT@@@Z ENDP			; CRect::PtInRect
; Function compile flags: /Odt
; File d:\program files (x86)\microsoft visual studio .net 2003\vc7\atlmfc\include\afx.inl
_TEXT	ENDS
;	COMDAT ?Serialize@CObject@@UAEXAAVCArchive@@@Z
_TEXT	SEGMENT
_this$ = -4						; size = 4
___formal$ = 8						; size = 4
?Serialize@CObject@@UAEXAAVCArchive@@@Z PROC NEAR	; CObject::Serialize, COMDAT
; _this$ = ecx

; 25   : 	{ /* CObject does not serialize anything by default */ }

  00000	55		 push	 ebp
  00001	8b ec		 mov	 ebp, esp
  00003	51		 push	 ecx
  00004	89 4d fc	 mov	 DWORD PTR _this$[ebp], ecx
  00007	8b e5		 mov	 esp, ebp
  00009	5d		 pop	 ebp
  0000a	c2 04 00	 ret	 4
?Serialize@CObject@@UAEXAAVCArchive@@@Z ENDP		; CObject::Serialize
_TEXT	ENDS
EXTRN	??3@YAXPAX@Z:NEAR				; operator delete
; Function compile flags: /Odt
;	COMDAT ??3CObject@@SGXPAX@Z
_TEXT	SEGMENT
_p$ = 8							; size = 4
??3CObject@@SGXPAX@Z PROC NEAR				; CObject::operator delete, COMDAT

; 31   : 	{ ::operator delete(p); }

  00000	55		 push	 ebp
  00001	8b ec		 mov	 ebp, esp
  00003	8b 45 08	 mov	 eax, DWORD PTR _p$[ebp]
  00006	50		 push	 eax
  00007	e8 00 00 00 00	 call	 ??3@YAXPAX@Z		; operator delete
  0000c	83 c4 04	 add	 esp, 4
  0000f	5d		 pop	 ebp
  00010	c2 04 00	 ret	 4
??3CObject@@SGXPAX@Z ENDP				; CObject::operator delete
_TEXT	ENDS
EXTRN	??2@YAPAXI@Z:NEAR				; operator new
; Function compile flags: /Odt
;	COMDAT ??2CObject@@SGPAXI@Z
_TEXT	SEGMENT
_nSize$ = 8						; size = 4
??2CObject@@SGPAXI@Z PROC NEAR				; CObject::operator new, COMDAT

; 37   : 	{ return ::operator new(nSize); }

  00000	55		 push	 ebp
  00001	8b ec		 mov	 ebp, esp
  00003	8b 45 08	 mov	 eax, DWORD PTR _nSize$[ebp]
  00006	50		 push	 eax
  00007	e8 00 00 00 00	 call	 ??2@YAPAXI@Z		; operator new
  0000c	83 c4 04	 add	 esp, 4
  0000f	5d		 pop	 ebp
  00010	c2 04 00	 ret	 4
??2CObject@@SGPAXI@Z ENDP				; CObject::operator new
; Function compile flags: /Odt
_TEXT	ENDS
;	COMDAT ?AssertValid@CObject@@UBEXXZ
_TEXT	SEGMENT
_this$ = -4						; size = 4
?AssertValid@CObject@@UBEXXZ PROC NEAR			; CObject::AssertValid, COMDAT
; _this$ = ecx

; 41   : 	{ /* no asserts in release builds */ }

  00000	55		 push	 ebp
  00001	8b ec		 mov	 ebp, esp
  00003	51		 push	 ecx
  00004	89 4d fc	 mov	 DWORD PTR _this$[ebp], ecx
  00007	8b e5		 mov	 esp, ebp
  00009	5d		 pop	 ebp
  0000a	c3		 ret	 0
?AssertValid@CObject@@UBEXXZ ENDP			; CObject::AssertValid
; Function compile flags: /Odt
_TEXT	ENDS
;	COMDAT ?Dump@CObject@@UBEXAAVCDumpContext@@@Z
_TEXT	SEGMENT
_this$ = -4						; size = 4
___formal$ = 8						; size = 4
?Dump@CObject@@UBEXAAVCDumpContext@@@Z PROC NEAR	; CObject::Dump, COMDAT
; _this$ = ecx

; 43   : 	{ /* no dumping in release builds */ }

  00000	55		 push	 ebp
  00001	8b ec		 mov	 ebp, esp
  00003	51		 push	 ecx
  00004	89 4d fc	 mov	 DWORD PTR _this$[ebp], ecx
  00007	8b e5		 mov	 esp, ebp
  00009	5d		 pop	 ebp
  0000a	c2 04 00	 ret	 4
?Dump@CObject@@UBEXAAVCDumpContext@@@Z ENDP		; CObject::Dump
_TEXT	ENDS
PUBLIC	??_R0?AVCGdiObject@@@8				; CGdiObject `RTTI Type Descriptor'
PUBLIC	??_R1A@?0A@A@CGdiObject@@8			; CGdiObject::`RTTI Base Class Descriptor at (0,-1,0,0)'
PUBLIC	??_R4CFont@@6B@					; CFont::`RTTI Complete Object Locator'
PUBLIC	??_R0?AVCFont@@@8				; CFont `RTTI Type Descriptor'
PUBLIC	??_R3CFont@@8					; CFont::`RTTI Class Hierarchy Descriptor'
PUBLIC	??_R2CFont@@8					; CFont::`RTTI Base Class Array'
PUBLIC	??_R1A@?0A@A@CFont@@8				; CFont::`RTTI Base Class Descriptor at (0,-1,0,0)'
PUBLIC	??0CGdiObject@@QAE@XZ				; CGdiObject::CGdiObject
PUBLIC	??_7CFont@@6B@					; CFont::`vftable'
PUBLIC	??_GCFont@@UAEPAXI@Z				; CFont::`scalar deleting destructor'
EXTRN	?GetRuntimeClass@CFont@@UBEPAUCRuntimeClass@@XZ:NEAR ; CFont::GetRuntimeClass
EXTRN	??_ECFont@@UAEPAXI@Z:NEAR			; CFont::`vector deleting destructor'
;	COMDAT ??_7CFont@@6B@
; File d:\program files (x86)\microsoft visual studio .net 2003\vc7\atlmfc\include\afxwin1.inl
CONST	SEGMENT
??_7CFont@@6B@ DD FLAT:??_R4CFont@@6B@			; CFont::`vftable'
	DD	FLAT:?GetRuntimeClass@CFont@@UBEPAUCRuntimeClass@@XZ
	DD	FLAT:??_ECFont@@UAEPAXI@Z
	DD	FLAT:?Serialize@CObject@@UAEXAAVCArchive@@@Z
	DD	FLAT:?AssertValid@CObject@@UBEXXZ
	DD	FLAT:?Dump@CObject@@UBEXAAVCDumpContext@@@Z
CONST	ENDS
;	COMDAT ??_R4CFont@@6B@
rdata$r	SEGMENT
??_R4CFont@@6B@ DD 00H					; CFont::`RTTI Complete Object Locator'
	DD	00H
	DD	00H
	DD	FLAT:??_R0?AVCFont@@@8
	DD	FLAT:??_R3CFont@@8
rdata$r	ENDS
;	COMDAT ??_R0?AVCFont@@@8
_DATA	SEGMENT
??_R0?AVCFont@@@8 DD FLAT:??_7type_info@@6B@		; CFont `RTTI Type Descriptor'
	DD	00H
	DB	'.?AVCFont@@', 00H
_DATA	ENDS
;	COMDAT ??_R3CFont@@8
rdata$r	SEGMENT
??_R3CFont@@8 DD 00H					; CFont::`RTTI Class Hierarchy Descriptor'
	DD	00H
	DD	03H
	DD	FLAT:??_R2CFont@@8
rdata$r	ENDS
;	COMDAT ??_R2CFont@@8
rdata$r	SEGMENT
??_R2CFont@@8 DD FLAT:??_R1A@?0A@A@CFont@@8		; CFont::`RTTI Base Class Array'
	DD	FLAT:??_R1A@?0A@A@CGdiObject@@8
	DD	FLAT:??_R1A@?0A@A@CObject@@8
rdata$r	ENDS
;	COMDAT ??_R1A@?0A@A@CFont@@8
rdata$r	SEGMENT
??_R1A@?0A@A@CFont@@8 DD FLAT:??_R0?AVCFont@@@8		; CFont::`RTTI Base Class Descriptor at (0,-1,0,0)'
	DD	02H
	DD	00H
	DD	0ffffffffH
	DD	00H
	DD	00H
rdata$r	ENDS
;	COMDAT ??_R1A@?0A@A@CGdiObject@@8
rdata$r	SEGMENT
??_R1A@?0A@A@CGdiObject@@8 DD FLAT:??_R0?AVCGdiObject@@@8 ; CGdiObject::`RTTI Base Class Descriptor at (0,-1,0,0)'
	DD	01H
	DD	00H
	DD	0ffffffffH
	DD	00H
	DD	00H
rdata$r	ENDS
;	COMDAT ??_R0?AVCGdiObject@@@8
_DATA	SEGMENT
??_R0?AVCGdiObject@@@8 DD FLAT:??_7type_info@@6B@	; CGdiObject `RTTI Type Descriptor'
	DD	00H
	DB	'.?AVCGdiObject@@', 00H
; Function compile flags: /Odt
_DATA	ENDS
;	COMDAT ??0CFont@@QAE@XZ
_TEXT	SEGMENT
_this$ = -4						; size = 4
??0CFont@@QAE@XZ PROC NEAR				; CFont::CFont, COMDAT
; _this$ = ecx

; 153  : 	{ }

  00000	55		 push	 ebp
  00001	8b ec		 mov	 ebp, esp
  00003	51		 push	 ecx
  00004	89 4d fc	 mov	 DWORD PTR _this$[ebp], ecx
  00007	8b 4d fc	 mov	 ecx, DWORD PTR _this$[ebp]
  0000a	e8 00 00 00 00	 call	 ??0CGdiObject@@QAE@XZ	; CGdiObject::CGdiObject
  0000f	8b 45 fc	 mov	 eax, DWORD PTR _this$[ebp]
  00012	c7 00 00 00 00
	00		 mov	 DWORD PTR [eax], OFFSET FLAT:??_7CFont@@6B@
  00018	8b 45 fc	 mov	 eax, DWORD PTR _this$[ebp]
  0001b	8b e5		 mov	 esp, ebp
  0001d	5d		 pop	 ebp
  0001e	c3		 ret	 0
??0CFont@@QAE@XZ ENDP					; CFont::CFont
_TEXT	ENDS
PUBLIC	??_R4CGdiObject@@6B@				; CGdiObject::`RTTI Complete Object Locator'
PUBLIC	??_R3CGdiObject@@8				; CGdiObject::`RTTI Class Hierarchy Descriptor'
PUBLIC	??_R2CGdiObject@@8				; CGdiObject::`RTTI Base Class Array'
PUBLIC	??0CObject@@IAE@XZ				; CObject::CObject
PUBLIC	??_7CGdiObject@@6B@				; CGdiObject::`vftable'
PUBLIC	??_GCGdiObject@@UAEPAXI@Z			; CGdiObject::`scalar deleting destructor'
EXTRN	?GetRuntimeClass@CGdiObject@@UBEPAUCRuntimeClass@@XZ:NEAR ; CGdiObject::GetRuntimeClass
EXTRN	??_ECGdiObject@@UAEPAXI@Z:NEAR			; CGdiObject::`vector deleting destructor'
;	COMDAT ??_7CGdiObject@@6B@
CONST	SEGMENT
??_7CGdiObject@@6B@ DD FLAT:??_R4CGdiObject@@6B@	; CGdiObject::`vftable'
	DD	FLAT:?GetRuntimeClass@CGdiObject@@UBEPAUCRuntimeClass@@XZ
	DD	FLAT:??_ECGdiObject@@UAEPAXI@Z
	DD	FLAT:?Serialize@CObject@@UAEXAAVCArchive@@@Z
	DD	FLAT:?AssertValid@CObject@@UBEXXZ
	DD	FLAT:?Dump@CObject@@UBEXAAVCDumpContext@@@Z
CONST	ENDS
;	COMDAT ??_R4CGdiObject@@6B@
rdata$r	SEGMENT
??_R4CGdiObject@@6B@ DD 00H				; CGdiObject::`RTTI Complete Object Locator'
	DD	00H
	DD	00H
	DD	FLAT:??_R0?AVCGdiObject@@@8
	DD	FLAT:??_R3CGdiObject@@8
rdata$r	ENDS
;	COMDAT ??_R3CGdiObject@@8
rdata$r	SEGMENT
??_R3CGdiObject@@8 DD 00H				; CGdiObject::`RTTI Class Hierarchy Descriptor'
	DD	00H
	DD	02H
	DD	FLAT:??_R2CGdiObject@@8
rdata$r	ENDS
;	COMDAT ??_R2CGdiObject@@8
rdata$r	SEGMENT
??_R2CGdiObject@@8 DD FLAT:??_R1A@?0A@A@CGdiObject@@8	; CGdiObject::`RTTI Base Class Array'
	DD	FLAT:??_R1A@?0A@A@CObject@@8
; Function compile flags: /Odt
rdata$r	ENDS
;	COMDAT ??0CGdiObject@@QAE@XZ
_TEXT	SEGMENT
_this$ = -4						; size = 4
??0CGdiObject@@QAE@XZ PROC NEAR				; CGdiObject::CGdiObject, COMDAT
; _this$ = ecx

; 82   : 	{ m_hObject = NULL; }

  00000	55		 push	 ebp
  00001	8b ec		 mov	 ebp, esp
  00003	51		 push	 ecx
  00004	89 4d fc	 mov	 DWORD PTR _this$[ebp], ecx
  00007	8b 4d fc	 mov	 ecx, DWORD PTR _this$[ebp]
  0000a	e8 00 00 00 00	 call	 ??0CObject@@IAE@XZ	; CObject::CObject
  0000f	8b 45 fc	 mov	 eax, DWORD PTR _this$[ebp]
  00012	c7 00 00 00 00
	00		 mov	 DWORD PTR [eax], OFFSET FLAT:??_7CGdiObject@@6B@
  00018	8b 4d fc	 mov	 ecx, DWORD PTR _this$[ebp]
  0001b	c7 41 04 00 00
	00 00		 mov	 DWORD PTR [ecx+4], 0
  00022	8b 45 fc	 mov	 eax, DWORD PTR _this$[ebp]
  00025	8b e5		 mov	 esp, ebp
  00027	5d		 pop	 ebp
  00028	c3		 ret	 0
??0CGdiObject@@QAE@XZ ENDP				; CGdiObject::CGdiObject
; Function compile flags: /Odt
; File d:\program files (x86)\microsoft visual studio .net 2003\vc7\atlmfc\include\afx.inl
_TEXT	ENDS
;	COMDAT ??0CObject@@IAE@XZ
_TEXT	SEGMENT
_this$ = -4						; size = 4
??0CObject@@IAE@XZ PROC NEAR				; CObject::CObject, COMDAT
; _this$ = ecx

; 21   : 	{ }

  00000	55		 push	 ebp
  00001	8b ec		 mov	 ebp, esp
  00003	51		 push	 ecx
  00004	89 4d fc	 mov	 DWORD PTR _this$[ebp], ecx
  00007	8b 45 fc	 mov	 eax, DWORD PTR _this$[ebp]
  0000a	8b e5		 mov	 esp, ebp
  0000c	5d		 pop	 ebp
  0000d	c3		 ret	 0
??0CObject@@IAE@XZ ENDP					; CObject::CObject
_TEXT	ENDS
PUBLIC	??1CGdiObject@@UAE@XZ				; CGdiObject::~CGdiObject
; Function compile flags: /Odt
;	COMDAT ??_GCGdiObject@@UAEPAXI@Z
_TEXT	SEGMENT
_this$ = -4						; size = 4
___flags$ = 8						; size = 4
??_GCGdiObject@@UAEPAXI@Z PROC NEAR			; CGdiObject::`scalar deleting destructor', COMDAT
; _this$ = ecx
  00000	55		 push	 ebp
  00001	8b ec		 mov	 ebp, esp
  00003	51		 push	 ecx
  00004	89 4d fc	 mov	 DWORD PTR _this$[ebp], ecx
  00007	8b 4d fc	 mov	 ecx, DWORD PTR _this$[ebp]
  0000a	e8 00 00 00 00	 call	 ??1CGdiObject@@UAE@XZ	; CGdiObject::~CGdiObject
  0000f	8b 45 08	 mov	 eax, DWORD PTR ___flags$[ebp]
  00012	83 e0 01	 and	 eax, 1
  00015	74 09		 je	 SHORT $L41495
  00017	8b 4d fc	 mov	 ecx, DWORD PTR _this$[ebp]
  0001a	51		 push	 ecx
  0001b	e8 00 00 00 00	 call	 ??3CObject@@SGXPAX@Z	; CObject::operator delete
$L41495:
  00020	8b 45 fc	 mov	 eax, DWORD PTR _this$[ebp]
  00023	8b e5		 mov	 esp, ebp
  00025	5d		 pop	 ebp
  00026	c2 04 00	 ret	 4
??_GCGdiObject@@UAEPAXI@Z ENDP				; CGdiObject::`scalar deleting destructor'
_TEXT	ENDS
PUBLIC	??1CObject@@UAE@XZ				; CObject::~CObject
EXTRN	?DeleteObject@CGdiObject@@QAEHXZ:NEAR		; CGdiObject::DeleteObject
;	COMDAT xdata$x
; File d:\program files (x86)\microsoft visual studio .net 2003\vc7\atlmfc\include\afxwin1.inl
xdata$x	SEGMENT
$T198740 DD	0ffffffffH
	DD	FLAT:$L198736
$T198738 DD	019930520H
	DD	01H
	DD	FLAT:$T198740
	DD	2 DUP(00H)
	DD	2 DUP(00H)
; Function compile flags: /Odt
xdata$x	ENDS
;	COMDAT ??1CGdiObject@@UAE@XZ
_TEXT	SEGMENT
_this$ = -16						; size = 4
__$EHRec$ = -12						; size = 12
??1CGdiObject@@UAE@XZ PROC NEAR				; CGdiObject::~CGdiObject, COMDAT
; _this$ = ecx

; 84   : 	{ DeleteObject(); }

  00000	55		 push	 ebp
  00001	8b ec		 mov	 ebp, esp
  00003	6a ff		 push	 -1
  00005	68 00 00 00 00	 push	 __ehhandler$??1CGdiObject@@UAE@XZ
  0000a	64 a1 00 00 00
	00		 mov	 eax, DWORD PTR fs:__except_list
  00010	50		 push	 eax
  00011	64 89 25 00 00
	00 00		 mov	 DWORD PTR fs:__except_list, esp
  00018	51		 push	 ecx
  00019	89 4d f0	 mov	 DWORD PTR _this$[ebp], ecx
  0001c	8b 45 f0	 mov	 eax, DWORD PTR _this$[ebp]
  0001f	c7 00 00 00 00
	00		 mov	 DWORD PTR [eax], OFFSET FLAT:??_7CGdiObject@@6B@
  00025	c7 45 fc 00 00
	00 00		 mov	 DWORD PTR __$EHRec$[ebp+8], 0
  0002c	8b 4d f0	 mov	 ecx, DWORD PTR _this$[ebp]
  0002f	e8 00 00 00 00	 call	 ?DeleteObject@CGdiObject@@QAEHXZ ; CGdiObject::DeleteObject
  00034	c7 45 fc ff ff
	ff ff		 mov	 DWORD PTR __$EHRec$[ebp+8], -1
  0003b	8b 4d f0	 mov	 ecx, DWORD PTR _this$[ebp]
  0003e	e8 00 00 00 00	 call	 ??1CObject@@UAE@XZ	; CObject::~CObject
  00043	8b 4d f4	 mov	 ecx, DWORD PTR __$EHRec$[ebp]
  00046	64 89 0d 00 00
	00 00		 mov	 DWORD PTR fs:__except_list, ecx
  0004d	8b e5		 mov	 esp, ebp
  0004f	5d		 pop	 ebp
  00050	c3		 ret	 0
_TEXT	ENDS
;	COMDAT text$x
text$x	SEGMENT
$L198736:
  00000	8b 4d f0	 mov	 ecx, DWORD PTR _this$[ebp]
  00003	e9 00 00 00 00	 jmp	 ??1CObject@@UAE@XZ	; CObject::~CObject
__ehhandler$??1CGdiObject@@UAE@XZ:
  00008	b8 00 00 00 00	 mov	 eax, OFFSET FLAT:$T198738
  0000d	e9 00 00 00 00	 jmp	 ___CxxFrameHandler
text$x	ENDS
??1CGdiObject@@UAE@XZ ENDP				; CGdiObject::~CGdiObject
; Function compile flags: /Odt
; File d:\program files (x86)\microsoft visual studio .net 2003\vc7\atlmfc\include\afx.inl
;	COMDAT ??1CObject@@UAE@XZ
_TEXT	SEGMENT
_this$ = -4						; size = 4
??1CObject@@UAE@XZ PROC NEAR				; CObject::~CObject, COMDAT
; _this$ = ecx

; 23   : 	{ }

  00000	55		 push	 ebp
  00001	8b ec		 mov	 ebp, esp
  00003	51		 push	 ecx
  00004	89 4d fc	 mov	 DWORD PTR _this$[ebp], ecx
  00007	8b e5		 mov	 esp, ebp
  00009	5d		 pop	 ebp
  0000a	c3		 ret	 0
??1CObject@@UAE@XZ ENDP					; CObject::~CObject
; Function compile flags: /Odt
_TEXT	ENDS
;	COMDAT ??_GCFont@@UAEPAXI@Z
_TEXT	SEGMENT
_this$ = -4						; size = 4
___flags$ = 8						; size = 4
??_GCFont@@UAEPAXI@Z PROC NEAR				; CFont::`scalar deleting destructor', COMDAT
; _this$ = ecx
  00000	55		 push	 ebp
  00001	8b ec		 mov	 ebp, esp
  00003	51		 push	 ecx
  00004	89 4d fc	 mov	 DWORD PTR _this$[ebp], ecx
  00007	8b 4d fc	 mov	 ecx, DWORD PTR _this$[ebp]
  0000a	e8 00 00 00 00	 call	 ??1CFont@@UAE@XZ	; CFont::~CFont
  0000f	8b 45 08	 mov	 eax, DWORD PTR ___flags$[ebp]
  00012	83 e0 01	 and	 eax, 1
  00015	74 09		 je	 SHORT $L41640
  00017	8b 4d fc	 mov	 ecx, DWORD PTR _this$[ebp]
  0001a	51		 push	 ecx
  0001b	e8 00 00 00 00	 call	 ??3CObject@@SGXPAX@Z	; CObject::operator delete
$L41640:
  00020	8b 45 fc	 mov	 eax, DWORD PTR _this$[ebp]
  00023	8b e5		 mov	 esp, ebp
  00025	5d		 pop	 ebp
  00026	c2 04 00	 ret	 4
??_GCFont@@UAEPAXI@Z ENDP				; CFont::`scalar deleting destructor'
; Function compile flags: /Odt
; File d:\program files (x86)\microsoft visual studio .net 2003\vc7\atlmfc\include\afxwin1.inl
_TEXT	ENDS
;	COMDAT ??1CFont@@UAE@XZ
_TEXT	SEGMENT
_this$ = -4						; size = 4
??1CFont@@UAE@XZ PROC NEAR				; CFont::~CFont, COMDAT
; _this$ = ecx

; 155  : 	{ }

  00000	55		 push	 ebp
  00001	8b ec		 mov	 ebp, esp
  00003	51		 push	 ecx
  00004	89 4d fc	 mov	 DWORD PTR _this$[ebp], ecx
  00007	8b 45 fc	 mov	 eax, DWORD PTR _this$[ebp]
  0000a	c7 00 00 00 00
	00		 mov	 DWORD PTR [eax], OFFSET FLAT:??_7CFont@@6B@
  00010	8b 4d fc	 mov	 ecx, DWORD PTR _this$[ebp]
  00013	e8 00 00 00 00	 call	 ??1CGdiObject@@UAE@XZ	; CGdiObject::~CGdiObject
  00018	8b e5		 mov	 esp, ebp
  0001a	5d		 pop	 ebp
  0001b	c3		 ret	 0
??1CFont@@UAE@XZ ENDP					; CFont::~CFont
_TEXT	ENDS
EXTRN	__imp__CreateFontA@56:NEAR
EXTRN	?Attach@CGdiObject@@QAEHPAX@Z:NEAR		; CGdiObject::Attach
; Function compile flags: /Odt
;	COMDAT ?CreateFontA@CFont@@QAEHHHHHHEEEEEEEEPBD@Z
_TEXT	SEGMENT
_this$ = -4						; size = 4
_nHeight$ = 8						; size = 4
_nWidth$ = 12						; size = 4
_nEscapement$ = 16					; size = 4
_nOrientation$ = 20					; size = 4
_nWeight$ = 24						; size = 4
_bItalic$ = 28						; size = 1
_bUnderline$ = 32					; size = 1
_cStrikeOut$ = 36					; size = 1
_nCharSet$ = 40						; size = 1
_nOutPrecision$ = 44					; size = 1
_nClipPrecision$ = 48					; size = 1
_nQuality$ = 52						; size = 1
_nPitchAndFamily$ = 56					; size = 1
_lpszFacename$ = 60					; size = 4
?CreateFontA@CFont@@QAEHHHHHHEEEEEEEEPBD@Z PROC NEAR	; CFont::CreateFontA, COMDAT
; _this$ = ecx

; 163  : 	{ return Attach(::CreateFont(nHeight, nWidth, nEscapement,

  00000	55		 push	 ebp
  00001	8b ec		 mov	 ebp, esp
  00003	51		 push	 ecx
  00004	89 4d fc	 mov	 DWORD PTR _this$[ebp], ecx

; 164  : 		nOrientation, nWeight, bItalic, bUnderline, cStrikeOut,
; 165  : 		nCharSet, nOutPrecision, nClipPrecision, nQuality,
; 166  : 		nPitchAndFamily, lpszFacename)); }

  00007	8b 45 3c	 mov	 eax, DWORD PTR _lpszFacename$[ebp]
  0000a	50		 push	 eax
  0000b	0f b6 4d 38	 movzx	 ecx, BYTE PTR _nPitchAndFamily$[ebp]
  0000f	51		 push	 ecx
  00010	0f b6 55 34	 movzx	 edx, BYTE PTR _nQuality$[ebp]
  00014	52		 push	 edx
  00015	0f b6 45 30	 movzx	 eax, BYTE PTR _nClipPrecision$[ebp]
  00019	50		 push	 eax
  0001a	0f b6 4d 2c	 movzx	 ecx, BYTE PTR _nOutPrecision$[ebp]
  0001e	51		 push	 ecx
  0001f	0f b6 55 28	 movzx	 edx, BYTE PTR _nCharSet$[ebp]
  00023	52		 push	 edx
  00024	0f b6 45 24	 movzx	 eax, BYTE PTR _cStrikeOut$[ebp]
  00028	50		 push	 eax
  00029	0f b6 4d 20	 movzx	 ecx, BYTE PTR _bUnderline$[ebp]
  0002d	51		 push	 ecx
  0002e	0f b6 55 1c	 movzx	 edx, BYTE PTR _bItalic$[ebp]
  00032	52		 push	 edx
  00033	8b 45 18	 mov	 eax, DWORD PTR _nWeight$[ebp]
  00036	50		 push	 eax
  00037	8b 4d 14	 mov	 ecx, DWORD PTR _nOrientation$[ebp]
  0003a	51		 push	 ecx
  0003b	8b 55 10	 mov	 edx, DWORD PTR _nEscapement$[ebp]
  0003e	52		 push	 edx
  0003f	8b 45 0c	 mov	 eax, DWORD PTR _nWidth$[ebp]
  00042	50		 push	 eax
  00043	8b 4d 08	 mov	 ecx, DWORD PTR _nHeight$[ebp]
  00046	51		 push	 ecx
  00047	ff 15 00 00 00
	00		 call	 DWORD PTR __imp__CreateFontA@56
  0004d	50		 push	 eax
  0004e	8b 4d fc	 mov	 ecx, DWORD PTR _this$[ebp]
  00051	e8 00 00 00 00	 call	 ?Attach@CGdiObject@@QAEHPAX@Z ; CGdiObject::Attach
  00056	8b e5		 mov	 esp, ebp
  00058	5d		 pop	 ebp
  00059	c2 38 00	 ret	 56			; 00000038H
?CreateFontA@CFont@@QAEHHHHHHEEEEEEEEPBD@Z ENDP		; CFont::CreateFontA
; Function compile flags: /Odt
_TEXT	ENDS
;	COMDAT ??BCDC@@QBEPAUHDC__@@XZ
_TEXT	SEGMENT
tv66 = -8						; size = 4
_this$ = -4						; size = 4
??BCDC@@QBEPAUHDC__@@XZ PROC NEAR			; CDC::operator HDC__ *, COMDAT
; _this$ = ecx

; 314  : 	{ return this == NULL ? NULL : m_hDC; }

  00000	55		 push	 ebp
  00001	8b ec		 mov	 ebp, esp
  00003	83 ec 08	 sub	 esp, 8
  00006	89 4d fc	 mov	 DWORD PTR _this$[ebp], ecx
  00009	83 7d fc 00	 cmp	 DWORD PTR _this$[ebp], 0
  0000d	75 09		 jne	 SHORT $L198754
  0000f	c7 45 f8 00 00
	00 00		 mov	 DWORD PTR tv66[ebp], 0
  00016	eb 09		 jmp	 SHORT $L198755
$L198754:
  00018	8b 45 fc	 mov	 eax, DWORD PTR _this$[ebp]
  0001b	8b 48 04	 mov	 ecx, DWORD PTR [eax+4]
  0001e	89 4d f8	 mov	 DWORD PTR tv66[ebp], ecx
$L198755:
  00021	8b 45 f8	 mov	 eax, DWORD PTR tv66[ebp]
  00024	8b e5		 mov	 esp, ebp
  00026	5d		 pop	 ebp
  00027	c3		 ret	 0
??BCDC@@QBEPAUHDC__@@XZ ENDP				; CDC::operator HDC__ *
; Function compile flags: /Odt
_TEXT	ENDS
;	COMDAT ?DrawTextA@CDC@@QAEHABV?$CStringT@DV?$StrTraitMFC_DLL@DV?$ChTraitsCRT@D@ATL@@@@@ATL@@PAUtagRECT@@I@Z
_TEXT	SEGMENT
_this$ = -4						; size = 4
_str$ = 8						; size = 4
_lpRect$ = 12						; size = 4
_nFormat$ = 16						; size = 4
?DrawTextA@CDC@@QAEHABV?$CStringT@DV?$StrTraitMFC_DLL@DV?$ChTraitsCRT@D@ATL@@@@@ATL@@PAUtagRECT@@I@Z PROC NEAR ; CDC::DrawTextA, COMDAT
; _this$ = ecx

; 592  : 	{ ASSERT(m_hDC != NULL);

  00000	55		 push	 ebp
  00001	8b ec		 mov	 ebp, esp
  00003	51		 push	 ecx
  00004	89 4d fc	 mov	 DWORD PTR _this$[ebp], ecx

; 593  : 		// these flags would modify the string
; 594  : 		ASSERT((nFormat & (DT_END_ELLIPSIS | DT_MODIFYSTRING)) != (DT_END_ELLIPSIS | DT_MODIFYSTRING));
; 595  : 		ASSERT((nFormat & (DT_PATH_ELLIPSIS | DT_MODIFYSTRING)) != (DT_PATH_ELLIPSIS | DT_MODIFYSTRING));
; 596  : 		return DrawText((LPCTSTR)str, (int)str.GetLength(), lpRect, nFormat); }

  00007	8b 45 10	 mov	 eax, DWORD PTR _nFormat$[ebp]
  0000a	50		 push	 eax
  0000b	8b 4d 0c	 mov	 ecx, DWORD PTR _lpRect$[ebp]
  0000e	51		 push	 ecx
  0000f	8b 4d 08	 mov	 ecx, DWORD PTR _str$[ebp]
  00012	ff 15 00 00 00
	00		 call	 DWORD PTR __imp_?GetLength@?$CSimpleStringT@D$00@ATL@@QBEHXZ
  00018	50		 push	 eax
  00019	8b 4d 08	 mov	 ecx, DWORD PTR _str$[ebp]
  0001c	ff 15 00 00 00
	00		 call	 DWORD PTR __imp_??B?$CSimpleStringT@D$00@ATL@@QBEPBDXZ
  00022	50		 push	 eax
  00023	8b 55 fc	 mov	 edx, DWORD PTR _this$[ebp]
  00026	8b 02		 mov	 eax, DWORD PTR [edx]
  00028	8b 4d fc	 mov	 ecx, DWORD PTR _this$[ebp]
  0002b	ff 50 70	 call	 DWORD PTR [eax+112]
  0002e	8b e5		 mov	 esp, ebp
  00030	5d		 pop	 ebp
  00031	c2 0c 00	 ret	 12			; 0000000cH
?DrawTextA@CDC@@QAEHABV?$CStringT@DV?$StrTraitMFC_DLL@DV?$ChTraitsCRT@D@ATL@@@@@ATL@@PAUtagRECT@@I@Z ENDP ; CDC::DrawTextA
_TEXT	ENDS
EXTRN	__imp__PostMessageA@16:NEAR
; Function compile flags: /Odt
; File d:\program files (x86)\microsoft visual studio .net 2003\vc7\atlmfc\include\afxwin2.inl
;	COMDAT ?PostMessageA@CWnd@@QAEHIIJ@Z
_TEXT	SEGMENT
_this$ = -4						; size = 4
_message$ = 8						; size = 4
_wParam$ = 12						; size = 4
_lParam$ = 16						; size = 4
?PostMessageA@CWnd@@QAEHIIJ@Z PROC NEAR			; CWnd::PostMessageA, COMDAT
; _this$ = ecx

; 46   : 	{ ASSERT(::IsWindow(m_hWnd)); return ::PostMessage(m_hWnd, message, wParam, lParam); }

  00000	55		 push	 ebp
  00001	8b ec		 mov	 ebp, esp
  00003	51		 push	 ecx
  00004	89 4d fc	 mov	 DWORD PTR _this$[ebp], ecx
  00007	8b 45 10	 mov	 eax, DWORD PTR _lParam$[ebp]
  0000a	50		 push	 eax
  0000b	8b 4d 0c	 mov	 ecx, DWORD PTR _wParam$[ebp]
  0000e	51		 push	 ecx
  0000f	8b 55 08	 mov	 edx, DWORD PTR _message$[ebp]
  00012	52		 push	 edx
  00013	8b 45 fc	 mov	 eax, DWORD PTR _this$[ebp]
  00016	8b 48 20	 mov	 ecx, DWORD PTR [eax+32]
  00019	51		 push	 ecx
  0001a	ff 15 00 00 00
	00		 call	 DWORD PTR __imp__PostMessageA@16
  00020	8b e5		 mov	 esp, ebp
  00022	5d		 pop	 ebp
  00023	c2 0c 00	 ret	 12			; 0000000cH
?PostMessageA@CWnd@@QAEHIIJ@Z ENDP			; CWnd::PostMessageA
; Function compile flags: /Odt
_TEXT	ENDS
;	COMDAT ?IsWindowVisible@CWnd@@QBEHXZ
_TEXT	SEGMENT
_this$ = -4						; size = 4
?IsWindowVisible@CWnd@@QBEHXZ PROC NEAR			; CWnd::IsWindowVisible, COMDAT
; _this$ = ecx

; 149  : 	{ ASSERT(::IsWindow(m_hWnd)); return ::IsWindowVisible(m_hWnd); }

  00000	55		 push	 ebp
  00001	8b ec		 mov	 ebp, esp
  00003	51		 push	 ecx
  00004	89 4d fc	 mov	 DWORD PTR _this$[ebp], ecx
  00007	8b 45 fc	 mov	 eax, DWORD PTR _this$[ebp]
  0000a	8b 48 20	 mov	 ecx, DWORD PTR [eax+32]
  0000d	51		 push	 ecx
  0000e	ff 15 00 00 00
	00		 call	 DWORD PTR __imp__IsWindowVisible@4
  00014	8b e5		 mov	 esp, ebp
  00016	5d		 pop	 ebp
  00017	c3		 ret	 0
?IsWindowVisible@CWnd@@QBEHXZ ENDP			; CWnd::IsWindowVisible
_TEXT	ENDS
EXTRN	?Default@CWnd@@IAEJXZ:NEAR			; CWnd::Default
; Function compile flags: /Odt
;	COMDAT ?OnLButtonDown@CWnd@@IAEXIVCPoint@@@Z
_TEXT	SEGMENT
_this$ = -4						; size = 4
___formal$ = 8						; size = 4
___formal$ = 12						; size = 8
?OnLButtonDown@CWnd@@IAEXIVCPoint@@@Z PROC NEAR		; CWnd::OnLButtonDown, COMDAT
; _this$ = ecx

; 464  : 	{ Default(); }

  00000	55		 push	 ebp
  00001	8b ec		 mov	 ebp, esp
  00003	51		 push	 ecx
  00004	89 4d fc	 mov	 DWORD PTR _this$[ebp], ecx
  00007	8b 4d fc	 mov	 ecx, DWORD PTR _this$[ebp]
  0000a	e8 00 00 00 00	 call	 ?Default@CWnd@@IAEJXZ	; CWnd::Default
  0000f	8b e5		 mov	 esp, ebp
  00011	5d		 pop	 ebp
  00012	c2 0c 00	 ret	 12			; 0000000cH
?OnLButtonDown@CWnd@@IAEXIVCPoint@@@Z ENDP		; CWnd::OnLButtonDown
; Function compile flags: /Odt
_TEXT	ENDS
;	COMDAT ?DoDataExchange@CWnd@@MAEXPAVCDataExchange@@@Z
_TEXT	SEGMENT
_this$ = -4						; size = 4
___formal$ = 8						; size = 4
?DoDataExchange@CWnd@@MAEXPAVCDataExchange@@@Z PROC NEAR ; CWnd::DoDataExchange, COMDAT
; _this$ = ecx

; 545  : 	{ } // default does nothing

  00000	55		 push	 ebp
  00001	8b ec		 mov	 ebp, esp
  00003	51		 push	 ecx
  00004	89 4d fc	 mov	 DWORD PTR _this$[ebp], ecx
  00007	8b e5		 mov	 esp, ebp
  00009	5d		 pop	 ebp
  0000a	c2 04 00	 ret	 4
?DoDataExchange@CWnd@@MAEXPAVCDataExchange@@@Z ENDP	; CWnd::DoDataExchange
_TEXT	ENDS
EXTRN	__imp__EnableWindow@8:NEAR
; Function compile flags: /Odt
;	COMDAT ?BeginModalState@CWnd@@UAEXXZ
_TEXT	SEGMENT
_this$ = -4						; size = 4
?BeginModalState@CWnd@@UAEXXZ PROC NEAR			; CWnd::BeginModalState, COMDAT
; _this$ = ecx

; 549  : 	{ ::EnableWindow(m_hWnd, FALSE); }

  00000	55		 push	 ebp
  00001	8b ec		 mov	 ebp, esp
  00003	51		 push	 ecx
  00004	89 4d fc	 mov	 DWORD PTR _this$[ebp], ecx
  00007	6a 00		 push	 0
  00009	8b 45 fc	 mov	 eax, DWORD PTR _this$[ebp]
  0000c	8b 48 20	 mov	 ecx, DWORD PTR [eax+32]
  0000f	51		 push	 ecx
  00010	ff 15 00 00 00
	00		 call	 DWORD PTR __imp__EnableWindow@8
  00016	8b e5		 mov	 esp, ebp
  00018	5d		 pop	 ebp
  00019	c3		 ret	 0
?BeginModalState@CWnd@@UAEXXZ ENDP			; CWnd::BeginModalState
; Function compile flags: /Odt
_TEXT	ENDS
;	COMDAT ?EndModalState@CWnd@@UAEXXZ
_TEXT	SEGMENT
_this$ = -4						; size = 4
?EndModalState@CWnd@@UAEXXZ PROC NEAR			; CWnd::EndModalState, COMDAT
; _this$ = ecx

; 551  : 	{ ::EnableWindow(m_hWnd, TRUE); }

  00000	55		 push	 ebp
  00001	8b ec		 mov	 ebp, esp
  00003	51		 push	 ecx
  00004	89 4d fc	 mov	 DWORD PTR _this$[ebp], ecx
  00007	6a 01		 push	 1
  00009	8b 45 fc	 mov	 eax, DWORD PTR _this$[ebp]
  0000c	8b 48 20	 mov	 ecx, DWORD PTR [eax+32]
  0000f	51		 push	 ecx
  00010	ff 15 00 00 00
	00		 call	 DWORD PTR __imp__EnableWindow@8
  00016	8b e5		 mov	 esp, ebp
  00018	5d		 pop	 ebp
  00019	c3		 ret	 0
?EndModalState@CWnd@@UAEXXZ ENDP			; CWnd::EndModalState
; Function compile flags: /Odt
_TEXT	ENDS
;	COMDAT ?Create@CDialog@@UAEHIPAVCWnd@@@Z
_TEXT	SEGMENT
_this$ = -4						; size = 4
_nIDTemplate$ = 8					; size = 4
_pParentWnd$ = 12					; size = 4
?Create@CDialog@@UAEHIPAVCWnd@@@Z PROC NEAR		; CDialog::Create, COMDAT
; _this$ = ecx

; 569  : 	{ return Create(MAKEINTRESOURCE(nIDTemplate), pParentWnd); }

  00000	55		 push	 ebp
  00001	8b ec		 mov	 ebp, esp
  00003	51		 push	 ecx
  00004	89 4d fc	 mov	 DWORD PTR _this$[ebp], ecx
  00007	8b 45 0c	 mov	 eax, DWORD PTR _pParentWnd$[ebp]
  0000a	50		 push	 eax
  0000b	0f b7 4d 08	 movzx	 ecx, WORD PTR _nIDTemplate$[ebp]
  0000f	51		 push	 ecx
  00010	8b 55 fc	 mov	 edx, DWORD PTR _this$[ebp]
  00013	8b 02		 mov	 eax, DWORD PTR [edx]
  00015	8b 4d fc	 mov	 ecx, DWORD PTR _this$[ebp]
  00018	ff 90 3c 01 00
	00		 call	 DWORD PTR [eax+316]
  0001e	8b e5		 mov	 esp, ebp
  00020	5d		 pop	 ebp
  00021	c2 08 00	 ret	 8
?Create@CDialog@@UAEHIPAVCWnd@@@Z ENDP			; CDialog::Create
_TEXT	ENDS
EXTRN	__imp__SetLayeredWindowAttributes@16:NEAR
; Function compile flags: /Odt
; File d:\program files (x86)\microsoft visual studio .net 2003\vc7\atlmfc\include\afxwin4.inl
;	COMDAT ?SetLayeredWindowAttributes@CWnd@@QAEHKEK@Z
_TEXT	SEGMENT
_this$ = -4						; size = 4
_crKey$ = 8						; size = 4
_bAlpha$ = 12						; size = 1
_dwFlags$ = 16						; size = 4
?SetLayeredWindowAttributes@CWnd@@QAEHKEK@Z PROC NEAR	; CWnd::SetLayeredWindowAttributes, COMDAT
; _this$ = ecx

; 119  : {

  00000	55		 push	 ebp
  00001	8b ec		 mov	 ebp, esp
  00003	51		 push	 ecx
  00004	89 4d fc	 mov	 DWORD PTR _this$[ebp], ecx

; 120  : 	ASSERT(::IsWindow(m_hWnd)); 
; 121  : 	return ::SetLayeredWindowAttributes(m_hWnd, crKey, bAlpha, dwFlags);

  00007	8b 45 10	 mov	 eax, DWORD PTR _dwFlags$[ebp]
  0000a	50		 push	 eax
  0000b	8a 4d 0c	 mov	 cl, BYTE PTR _bAlpha$[ebp]
  0000e	51		 push	 ecx
  0000f	8b 55 08	 mov	 edx, DWORD PTR _crKey$[ebp]
  00012	52		 push	 edx
  00013	8b 45 fc	 mov	 eax, DWORD PTR _this$[ebp]
  00016	8b 48 20	 mov	 ecx, DWORD PTR [eax+32]
  00019	51		 push	 ecx
  0001a	ff 15 00 00 00
	00		 call	 DWORD PTR __imp__SetLayeredWindowAttributes@16

; 122  : }

  00020	8b e5		 mov	 esp, ebp
  00022	5d		 pop	 ebp
  00023	c2 0c 00	 ret	 12			; 0000000cH
?SetLayeredWindowAttributes@CWnd@@QAEHKEK@Z ENDP	; CWnd::SetLayeredWindowAttributes
_TEXT	ENDS
END
