; Listing generated by Microsoft (R) Optimizing Compiler Version 13.10.3077 

	TITLE	.\src\AppConfig\config\Dlg\DlgConfig.cpp
	.386P
include listing.inc
if @Version gt 510
.model FLAT
else
_TEXT	SEGMENT PARA USE32 PUBLIC 'CODE'
_TEXT	ENDS
_DATA	SEGMENT DWORD USE32 PUBLIC 'DATA'
_DATA	ENDS
CONST	SEGMENT DWORD USE32 PUBLIC 'CONST'
CONST	ENDS
_BSS	SEGMENT DWORD USE32 PUBLIC 'BSS'
_BSS	ENDS
$$SYMBOLS	SEGMENT BYTE USE32 'DEBSYM'
$$SYMBOLS	ENDS
$$TYPES	SEGMENT BYTE USE32 'DEBTYP'
$$TYPES	ENDS
_TLS	SEGMENT DWORD USE32 PUBLIC 'TLS'
_TLS	ENDS
;	COMDAT ??_C@_0BE@JONHPENG@map?1set?$DMT?$DO?5too?5long?$AA@
CONST	SEGMENT DWORD USE32 PUBLIC 'CONST'
CONST	ENDS
rdata$r	SEGMENT DWORD USE32 PUBLIC 'CONST'
rdata$r	ENDS
xdata$x	SEGMENT DWORD USE32 PUBLIC 'CONST'
xdata$x	ENDS
text$AFX_COL1	SEGMENT PARA USE32 PUBLIC ''
text$AFX_COL1	ENDS
text$yc	SEGMENT PARA USE32 PUBLIC 'CODE'
text$yc	ENDS
CRT$XCA	SEGMENT DWORD USE32 PUBLIC 'DATA'
CRT$XCA	ENDS
CRT$XCU	SEGMENT DWORD USE32 PUBLIC 'DATA'
CRT$XCU	ENDS
CRT$XCL	SEGMENT DWORD USE32 PUBLIC 'DATA'
CRT$XCL	ENDS
CRT$XCC	SEGMENT DWORD USE32 PUBLIC 'DATA'
CRT$XCC	ENDS
CRT$XCZ	SEGMENT DWORD USE32 PUBLIC 'DATA'
CRT$XCZ	ENDS
text$yd	SEGMENT PARA USE32 PUBLIC 'CODE'
text$yd	ENDS
ATL$__m	SEGMENT DWORD USE32 PUBLIC ''
ATL$__m	ENDS
ATL$__z	SEGMENT DWORD USE32 PUBLIC ''
ATL$__z	ENDS
ATL$__a	SEGMENT DWORD USE32 PUBLIC ''
ATL$__a	ENDS
;	COMDAT ?IAppExit@IAppExitObserver@@UAEXXZ
_TEXT	SEGMENT PARA USE32 PUBLIC 'CODE'
_TEXT	ENDS
;	COMDAT _$E5
text$yc	SEGMENT PARA USE32 PUBLIC 'CODE'
text$yc	ENDS
;	COMDAT ??1IData@@MAE@XZ
_TEXT	SEGMENT PARA USE32 PUBLIC 'CODE'
_TEXT	ENDS
;	COMDAT ?DataAppStart@IData@@UAEXXZ
_TEXT	SEGMENT PARA USE32 PUBLIC 'CODE'
_TEXT	ENDS
;	COMDAT ?DataAppExit@IData@@UAEXXZ
_TEXT	SEGMENT PARA USE32 PUBLIC 'CODE'
_TEXT	ENDS
;	COMDAT ??_GIData@@MAEPAXI@Z
_TEXT	SEGMENT PARA USE32 PUBLIC 'CODE'
_TEXT	ENDS
;	COMDAT ??_GCConfigDialog@@UAEPAXI@Z
_TEXT	SEGMENT PARA USE32 PUBLIC 'CODE'
_TEXT	ENDS
;	COMDAT ??0IMessageObserver@@QAE@XZ
_TEXT	SEGMENT PARA USE32 PUBLIC 'CODE'
_TEXT	ENDS
;	COMDAT ??0IAppExitObserver@@QAE@XZ
_TEXT	SEGMENT PARA USE32 PUBLIC 'CODE'
_TEXT	ENDS
;	COMDAT ??1IAppExitObserver@@UAE@XZ
_TEXT	SEGMENT PARA USE32 PUBLIC 'CODE'
_TEXT	ENDS
;	COMDAT ??1?$map@HPAVBaseDialog@@U?$less@H@std@@V?$allocator@U?$pair@$$CBHPAVBaseDialog@@@std@@@3@@std@@QAE@XZ
_TEXT	SEGMENT PARA USE32 PUBLIC 'CODE'
_TEXT	ENDS
;	COMDAT ??_DCConfigDialog@@QAEXXZ
_TEXT	SEGMENT PARA USE32 PUBLIC 'CODE'
_TEXT	ENDS
;	COMDAT ??_GIAppExitObserver@@UAEPAXI@Z
_TEXT	SEGMENT PARA USE32 PUBLIC 'CODE'
_TEXT	ENDS
;	COMDAT ??_DIAppExitObserver@@QAEXXZ
_TEXT	SEGMENT PARA USE32 PUBLIC 'CODE'
_TEXT	ENDS
;	COMDAT _$E7
text$yc	SEGMENT PARA USE32 PUBLIC 'CODE'
text$yc	ENDS
;	COMDAT ??B?$CComPtrBase@UITypeInfo2@@@ATL@@QBEPAUITypeInfo2@@XZ
_TEXT	SEGMENT PARA USE32 PUBLIC 'CODE'
_TEXT	ENDS
;	COMDAT ?equal@?$istreambuf_iterator@DU?$char_traits@D@std@@@std@@QBE_NABV12@@Z
_TEXT	SEGMENT PARA USE32 PUBLIC 'CODE'
_TEXT	ENDS
;	COMDAT ?equal@?$istreambuf_iterator@_WU?$char_traits@_W@std@@@std@@QBE_NABV12@@Z
_TEXT	SEGMENT PARA USE32 PUBLIC 'CODE'
_TEXT	ENDS
;	COMDAT ??0?$map@HPAVBaseDialog@@U?$less@H@std@@V?$allocator@U?$pair@$$CBHPAVBaseDialog@@@std@@@3@@std@@QAE@XZ
_TEXT	SEGMENT PARA USE32 PUBLIC 'CODE'
_TEXT	ENDS
;	COMDAT ??A?$map@HPAVBaseDialog@@U?$less@H@std@@V?$allocator@U?$pair@$$CBHPAVBaseDialog@@@std@@@3@@std@@QAEAAPAVBaseDialog@@ABH@Z
_TEXT	SEGMENT PARA USE32 PUBLIC 'CODE'
_TEXT	ENDS
;	COMDAT ??1?$_Tree@V?$_Tmap_traits@HPAVBaseDialog@@U?$less@H@std@@V?$allocator@U?$pair@$$CBHPAVBaseDialog@@@std@@@3@$0A@@std@@@std@@QAE@XZ
_TEXT	SEGMENT PARA USE32 PUBLIC 'CODE'
_TEXT	ENDS
;	COMDAT ?size@?$_Tree@V?$_Tmap_traits@HPAVBaseDialog@@U?$less@H@std@@V?$allocator@U?$pair@$$CBHPAVBaseDialog@@@std@@@3@$0A@@std@@@std@@QBEIXZ
_TEXT	SEGMENT PARA USE32 PUBLIC 'CODE'
_TEXT	ENDS
;	COMDAT ?_Key@?$_Tree@V?$_Tmap_traits@HPAVBaseDialog@@U?$less@H@std@@V?$allocator@U?$pair@$$CBHPAVBaseDialog@@@std@@@3@$0A@@std@@@std@@KAABHPAU_Node@?$_Tree_nod@V?$_Tmap_traits@HPAVBaseDialog@@U?$less@H@std@@V?$allocator@U?$pair@$$CBHPAVBaseDialog@@@std@@@3@$0A@@std@@@2@@Z
_TEXT	SEGMENT PARA USE32 PUBLIC 'CODE'
_TEXT	ENDS
;	COMDAT ??0?$_Tree@V?$_Tmap_traits@HPAVBaseDialog@@U?$less@H@std@@V?$allocator@U?$pair@$$CBHPAVBaseDialog@@@std@@@3@$0A@@std@@@std@@QAE@ABU?$less@H@1@ABV?$allocator@U?$pair@$$CBHPAVBaseDialog@@@std@@@1@@Z
_TEXT	SEGMENT PARA USE32 PUBLIC 'CODE'
_TEXT	ENDS
;	COMDAT ?end@?$_Tree@V?$_Tmap_traits@HPAVBaseDialog@@U?$less@H@std@@V?$allocator@U?$pair@$$CBHPAVBaseDialog@@@std@@@3@$0A@@std@@@std@@QAE?AViterator@12@XZ
_TEXT	SEGMENT PARA USE32 PUBLIC 'CODE'
_TEXT	ENDS
;	COMDAT ?insert@?$_Tree@V?$_Tmap_traits@HPAVBaseDialog@@U?$less@H@std@@V?$allocator@U?$pair@$$CBHPAVBaseDialog@@@std@@@3@$0A@@std@@@std@@QAE?AViterator@12@V312@ABU?$pair@$$CBHPAVBaseDialog@@@2@@Z
_TEXT	SEGMENT PARA USE32 PUBLIC 'CODE'
_TEXT	ENDS
;	COMDAT ?lower_bound@?$_Tree@V?$_Tmap_traits@HPAVBaseDialog@@U?$less@H@std@@V?$allocator@U?$pair@$$CBHPAVBaseDialog@@@std@@@3@$0A@@std@@@std@@QAE?AViterator@12@ABH@Z
_TEXT	SEGMENT PARA USE32 PUBLIC 'CODE'
_TEXT	ENDS
;	COMDAT ?_Tidy@?$_Tree@V?$_Tmap_traits@HPAVBaseDialog@@U?$less@H@std@@V?$allocator@U?$pair@$$CBHPAVBaseDialog@@@std@@@3@$0A@@std@@@std@@IAEXXZ
_TEXT	SEGMENT PARA USE32 PUBLIC 'CODE'
_TEXT	ENDS
;	COMDAT ??0?$allocator@U?$pair@$$CBHPAVBaseDialog@@@std@@@std@@QAE@XZ
_TEXT	SEGMENT PARA USE32 PUBLIC 'CODE'
_TEXT	ENDS
;	COMDAT ??R?$less@H@std@@QBE_NABH0@Z
_TEXT	SEGMENT PARA USE32 PUBLIC 'CODE'
_TEXT	ENDS
;	COMDAT ??Diterator@?$_Tree@V?$_Tmap_traits@HPAVBaseDialog@@U?$less@H@std@@V?$allocator@U?$pair@$$CBHPAVBaseDialog@@@std@@@3@$0A@@std@@@std@@QBEAAU?$pair@$$CBHPAVBaseDialog@@@2@XZ
_TEXT	SEGMENT PARA USE32 PUBLIC 'CODE'
_TEXT	ENDS
;	COMDAT ??8const_iterator@?$_Tree@V?$_Tmap_traits@HPAVBaseDialog@@U?$less@H@std@@V?$allocator@U?$pair@$$CBHPAVBaseDialog@@@std@@@3@$0A@@std@@@std@@QBE_NABV012@@Z
_TEXT	SEGMENT PARA USE32 PUBLIC 'CODE'
_TEXT	ENDS
;	COMDAT ?_Mynode@const_iterator@?$_Tree@V?$_Tmap_traits@HPAVBaseDialog@@U?$less@H@std@@V?$allocator@U?$pair@$$CBHPAVBaseDialog@@@std@@@3@$0A@@std@@@std@@QBEPAU_Node@?$_Tree_nod@V?$_Tmap_traits@HPAVBaseDialog@@U?$less@H@std@@V?$allocator@U?$pair@$$CBHPAVBaseDialog@@@std@@@3@$0A@@std@@@3@XZ
_TEXT	SEGMENT PARA USE32 PUBLIC 'CODE'
_TEXT	ENDS
;	COMDAT ??0?$pair@$$CBHPAVBaseDialog@@@std@@QAE@ABHABQAVBaseDialog@@@Z
_TEXT	SEGMENT PARA USE32 PUBLIC 'CODE'
_TEXT	ENDS
;	COMDAT ?_Isnil@?$_Tree@V?$_Tmap_traits@HPAVBaseDialog@@U?$less@H@std@@V?$allocator@U?$pair@$$CBHPAVBaseDialog@@@std@@@3@$0A@@std@@@std@@KAAADPAU_Node@?$_Tree_nod@V?$_Tmap_traits@HPAVBaseDialog@@U?$less@H@std@@V?$allocator@U?$pair@$$CBHPAVBaseDialog@@@std@@@3@$0A@@std@@@2@@Z
_TEXT	SEGMENT PARA USE32 PUBLIC 'CODE'
_TEXT	ENDS
;	COMDAT ?_Left@?$_Tree@V?$_Tmap_traits@HPAVBaseDialog@@U?$less@H@std@@V?$allocator@U?$pair@$$CBHPAVBaseDialog@@@std@@@3@$0A@@std@@@std@@KAAAPAU_Node@?$_Tree_nod@V?$_Tmap_traits@HPAVBaseDialog@@U?$less@H@std@@V?$allocator@U?$pair@$$CBHPAVBaseDialog@@@std@@@3@$0A@@std@@@2@PAU342@@Z
_TEXT	SEGMENT PARA USE32 PUBLIC 'CODE'
_TEXT	ENDS
;	COMDAT ?_Parent@?$_Tree@V?$_Tmap_traits@HPAVBaseDialog@@U?$less@H@std@@V?$allocator@U?$pair@$$CBHPAVBaseDialog@@@std@@@3@$0A@@std@@@std@@KAAAPAU_Node@?$_Tree_nod@V?$_Tmap_traits@HPAVBaseDialog@@U?$less@H@std@@V?$allocator@U?$pair@$$CBHPAVBaseDialog@@@std@@@3@$0A@@std@@@2@PAU342@@Z
_TEXT	SEGMENT PARA USE32 PUBLIC 'CODE'
_TEXT	ENDS
;	COMDAT ?_Right@?$_Tree@V?$_Tmap_traits@HPAVBaseDialog@@U?$less@H@std@@V?$allocator@U?$pair@$$CBHPAVBaseDialog@@@std@@@3@$0A@@std@@@std@@KAAAPAU_Node@?$_Tree_nod@V?$_Tmap_traits@HPAVBaseDialog@@U?$less@H@std@@V?$allocator@U?$pair@$$CBHPAVBaseDialog@@@std@@@3@$0A@@std@@@2@PAU342@@Z
_TEXT	SEGMENT PARA USE32 PUBLIC 'CODE'
_TEXT	ENDS
;	COMDAT ?_Myval@?$_Tree@V?$_Tmap_traits@HPAVBaseDialog@@U?$less@H@std@@V?$allocator@U?$pair@$$CBHPAVBaseDialog@@@std@@@3@$0A@@std@@@std@@KAAAU?$pair@$$CBHPAVBaseDialog@@@2@PAU_Node@?$_Tree_nod@V?$_Tmap_traits@HPAVBaseDialog@@U?$less@H@std@@V?$allocator@U?$pair@$$CBHPAVBaseDialog@@@std@@@3@$0A@@std@@@2@@Z
_TEXT	SEGMENT PARA USE32 PUBLIC 'CODE'
_TEXT	ENDS
;	COMDAT ?begin@?$_Tree@V?$_Tmap_traits@HPAVBaseDialog@@U?$less@H@std@@V?$allocator@U?$pair@$$CBHPAVBaseDialog@@@std@@@3@$0A@@std@@@std@@QAE?AViterator@12@XZ
_TEXT	SEGMENT PARA USE32 PUBLIC 'CODE'
_TEXT	ENDS
;	COMDAT ?insert@?$_Tree@V?$_Tmap_traits@HPAVBaseDialog@@U?$less@H@std@@V?$allocator@U?$pair@$$CBHPAVBaseDialog@@@std@@@3@$0A@@std@@@std@@QAE?AU?$pair@Viterator@?$_Tree@V?$_Tmap_traits@HPAVBaseDialog@@U?$less@H@std@@V?$allocator@U?$pair@$$CBHPAVBaseDialog@@@std@@@3@$0A@@std@@@std@@_N@2@ABU?$pair@$$CBHPAVBaseDialog@@@2@@Z
_TEXT	SEGMENT PARA USE32 PUBLIC 'CODE'
_TEXT	ENDS
;	COMDAT ?erase@?$_Tree@V?$_Tmap_traits@HPAVBaseDialog@@U?$less@H@std@@V?$allocator@U?$pair@$$CBHPAVBaseDialog@@@std@@@3@$0A@@std@@@std@@QAE?AViterator@12@V312@0@Z
_TEXT	SEGMENT PARA USE32 PUBLIC 'CODE'
_TEXT	ENDS
;	COMDAT ?_Init@?$_Tree@V?$_Tmap_traits@HPAVBaseDialog@@U?$less@H@std@@V?$allocator@U?$pair@$$CBHPAVBaseDialog@@@std@@@3@$0A@@std@@@std@@IAEXXZ
_TEXT	SEGMENT PARA USE32 PUBLIC 'CODE'
_TEXT	ENDS
;	COMDAT ?_Insert@?$_Tree@V?$_Tmap_traits@HPAVBaseDialog@@U?$less@H@std@@V?$allocator@U?$pair@$$CBHPAVBaseDialog@@@std@@@3@$0A@@std@@@std@@IAE?AViterator@12@_NPAU_Node@?$_Tree_nod@V?$_Tmap_traits@HPAVBaseDialog@@U?$less@H@std@@V?$allocator@U?$pair@$$CBHPAVBaseDialog@@@std@@@3@$0A@@std@@@2@ABU?$pair@$$CBHPAVBaseDialog@@@2@@Z
_TEXT	SEGMENT PARA USE32 PUBLIC 'CODE'
_TEXT	ENDS
;	COMDAT ?_Lbound@?$_Tree@V?$_Tmap_traits@HPAVBaseDialog@@U?$less@H@std@@V?$allocator@U?$pair@$$CBHPAVBaseDialog@@@std@@@3@$0A@@std@@@std@@IBEPAU_Node@?$_Tree_nod@V?$_Tmap_traits@HPAVBaseDialog@@U?$less@H@std@@V?$allocator@U?$pair@$$CBHPAVBaseDialog@@@std@@@3@$0A@@std@@@2@ABH@Z
_TEXT	SEGMENT PARA USE32 PUBLIC 'CODE'
_TEXT	ENDS
;	COMDAT ?_Rmost@?$_Tree@V?$_Tmap_traits@HPAVBaseDialog@@U?$less@H@std@@V?$allocator@U?$pair@$$CBHPAVBaseDialog@@@std@@@3@$0A@@std@@@std@@IAEAAPAU_Node@?$_Tree_nod@V?$_Tmap_traits@HPAVBaseDialog@@U?$less@H@std@@V?$allocator@U?$pair@$$CBHPAVBaseDialog@@@std@@@3@$0A@@std@@@2@XZ
_TEXT	SEGMENT PARA USE32 PUBLIC 'CODE'
_TEXT	ENDS
;	COMDAT ??0?$_Tree_val@V?$_Tmap_traits@HPAVBaseDialog@@U?$less@H@std@@V?$allocator@U?$pair@$$CBHPAVBaseDialog@@@std@@@3@$0A@@std@@@std@@IAE@ABU?$less@H@1@V?$allocator@U?$pair@$$CBHPAVBaseDialog@@@std@@@1@@Z
_TEXT	SEGMENT PARA USE32 PUBLIC 'CODE'
_TEXT	ENDS
;	COMDAT ?_Kfn@?$_Tmap_traits@HPAVBaseDialog@@U?$less@H@std@@V?$allocator@U?$pair@$$CBHPAVBaseDialog@@@std@@@3@$0A@@std@@SAABHABU?$pair@$$CBHPAVBaseDialog@@@2@@Z
_TEXT	SEGMENT PARA USE32 PUBLIC 'CODE'
_TEXT	ENDS
;	COMDAT ??0?$allocator@U?$pair@$$CBHPAVBaseDialog@@@std@@@std@@QAE@ABV01@@Z
_TEXT	SEGMENT PARA USE32 PUBLIC 'CODE'
_TEXT	ENDS
;	COMDAT ?deallocate@?$allocator@U_Node@?$_Tree_nod@V?$_Tmap_traits@HPAVBaseDialog@@U?$less@H@std@@V?$allocator@U?$pair@$$CBHPAVBaseDialog@@@std@@@3@$0A@@std@@@std@@@std@@QAEXPAU_Node@?$_Tree_nod@V?$_Tmap_traits@HPAVBaseDialog@@U?$less@H@std@@V?$allocator@U?$pair@$$CBHPAVBaseDialog@@@std@@@3@$0A@@std@@@2@I@Z
_TEXT	SEGMENT PARA USE32 PUBLIC 'CODE'
_TEXT	ENDS
;	COMDAT ?destroy@?$allocator@PAU_Node@?$_Tree_nod@V?$_Tmap_traits@HPAVBaseDialog@@U?$less@H@std@@V?$allocator@U?$pair@$$CBHPAVBaseDialog@@@std@@@3@$0A@@std@@@std@@@std@@QAEXPAPAU_Node@?$_Tree_nod@V?$_Tmap_traits@HPAVBaseDialog@@U?$less@H@std@@V?$allocator@U?$pair@$$CBHPAVBaseDialog@@@std@@@3@$0A@@std@@@2@@Z
_TEXT	SEGMENT PARA USE32 PUBLIC 'CODE'
_TEXT	ENDS
;	COMDAT ??0iterator@?$_Tree@V?$_Tmap_traits@HPAVBaseDialog@@U?$less@H@std@@V?$allocator@U?$pair@$$CBHPAVBaseDialog@@@std@@@3@$0A@@std@@@std@@QAE@XZ
_TEXT	SEGMENT PARA USE32 PUBLIC 'CODE'
_TEXT	ENDS
;	COMDAT ??0iterator@?$_Tree@V?$_Tmap_traits@HPAVBaseDialog@@U?$less@H@std@@V?$allocator@U?$pair@$$CBHPAVBaseDialog@@@std@@@3@$0A@@std@@@std@@QAE@PAU_Node@?$_Tree_nod@V?$_Tmap_traits@HPAVBaseDialog@@U?$less@H@std@@V?$allocator@U?$pair@$$CBHPAVBaseDialog@@@std@@@3@$0A@@std@@@2@@Z
_TEXT	SEGMENT PARA USE32 PUBLIC 'CODE'
_TEXT	ENDS
;	COMDAT ??Eiterator@?$_Tree@V?$_Tmap_traits@HPAVBaseDialog@@U?$less@H@std@@V?$allocator@U?$pair@$$CBHPAVBaseDialog@@@std@@@3@$0A@@std@@@std@@QAEAAV012@XZ
_TEXT	SEGMENT PARA USE32 PUBLIC 'CODE'
_TEXT	ENDS
;	COMDAT ??Fiterator@?$_Tree@V?$_Tmap_traits@HPAVBaseDialog@@U?$less@H@std@@V?$allocator@U?$pair@$$CBHPAVBaseDialog@@@std@@@3@$0A@@std@@@std@@QAEAAV012@XZ
_TEXT	SEGMENT PARA USE32 PUBLIC 'CODE'
_TEXT	ENDS
;	COMDAT ??Dconst_iterator@?$_Tree@V?$_Tmap_traits@HPAVBaseDialog@@U?$less@H@std@@V?$allocator@U?$pair@$$CBHPAVBaseDialog@@@std@@@3@$0A@@std@@@std@@QBEABU?$pair@$$CBHPAVBaseDialog@@@2@XZ
_TEXT	SEGMENT PARA USE32 PUBLIC 'CODE'
_TEXT	ENDS
;	COMDAT ??0length_error@std@@QAE@ABV01@@Z
_TEXT	SEGMENT PARA USE32 PUBLIC 'CODE'
_TEXT	ENDS
;	COMDAT ?_Color@?$_Tree@V?$_Tmap_traits@HPAVBaseDialog@@U?$less@H@std@@V?$allocator@U?$pair@$$CBHPAVBaseDialog@@@std@@@3@$0A@@std@@@std@@KAAADPAU_Node@?$_Tree_nod@V?$_Tmap_traits@HPAVBaseDialog@@U?$less@H@std@@V?$allocator@U?$pair@$$CBHPAVBaseDialog@@@std@@@3@$0A@@std@@@2@@Z
_TEXT	SEGMENT PARA USE32 PUBLIC 'CODE'
_TEXT	ENDS
;	COMDAT ?max_size@?$_Tree@V?$_Tmap_traits@HPAVBaseDialog@@U?$less@H@std@@V?$allocator@U?$pair@$$CBHPAVBaseDialog@@@std@@@3@$0A@@std@@@std@@QBEIXZ
_TEXT	SEGMENT PARA USE32 PUBLIC 'CODE'
_TEXT	ENDS
;	COMDAT ?erase@?$_Tree@V?$_Tmap_traits@HPAVBaseDialog@@U?$less@H@std@@V?$allocator@U?$pair@$$CBHPAVBaseDialog@@@std@@@3@$0A@@std@@@std@@QAE?AViterator@12@V312@@Z
_TEXT	SEGMENT PARA USE32 PUBLIC 'CODE'
_TEXT	ENDS
;	COMDAT ?clear@?$_Tree@V?$_Tmap_traits@HPAVBaseDialog@@U?$less@H@std@@V?$allocator@U?$pair@$$CBHPAVBaseDialog@@@std@@@3@$0A@@std@@@std@@QAEXXZ
_TEXT	SEGMENT PARA USE32 PUBLIC 'CODE'
_TEXT	ENDS
;	COMDAT ?_Lmost@?$_Tree@V?$_Tmap_traits@HPAVBaseDialog@@U?$less@H@std@@V?$allocator@U?$pair@$$CBHPAVBaseDialog@@@std@@@3@$0A@@std@@@std@@IAEAAPAU_Node@?$_Tree_nod@V?$_Tmap_traits@HPAVBaseDialog@@U?$less@H@std@@V?$allocator@U?$pair@$$CBHPAVBaseDialog@@@std@@@3@$0A@@std@@@2@XZ
_TEXT	SEGMENT PARA USE32 PUBLIC 'CODE'
_TEXT	ENDS
;	COMDAT ?_Lrotate@?$_Tree@V?$_Tmap_traits@HPAVBaseDialog@@U?$less@H@std@@V?$allocator@U?$pair@$$CBHPAVBaseDialog@@@std@@@3@$0A@@std@@@std@@IAEXPAU_Node@?$_Tree_nod@V?$_Tmap_traits@HPAVBaseDialog@@U?$less@H@std@@V?$allocator@U?$pair@$$CBHPAVBaseDialog@@@std@@@3@$0A@@std@@@2@@Z
_TEXT	SEGMENT PARA USE32 PUBLIC 'CODE'
_TEXT	ENDS
;	COMDAT ?_Root@?$_Tree@V?$_Tmap_traits@HPAVBaseDialog@@U?$less@H@std@@V?$allocator@U?$pair@$$CBHPAVBaseDialog@@@std@@@3@$0A@@std@@@std@@IAEAAPAU_Node@?$_Tree_nod@V?$_Tmap_traits@HPAVBaseDialog@@U?$less@H@std@@V?$allocator@U?$pair@$$CBHPAVBaseDialog@@@std@@@3@$0A@@std@@@2@XZ
_TEXT	SEGMENT PARA USE32 PUBLIC 'CODE'
_TEXT	ENDS
;	COMDAT ?_Root@?$_Tree@V?$_Tmap_traits@HPAVBaseDialog@@U?$less@H@std@@V?$allocator@U?$pair@$$CBHPAVBaseDialog@@@std@@@3@$0A@@std@@@std@@IBEAAPAU_Node@?$_Tree_nod@V?$_Tmap_traits@HPAVBaseDialog@@U?$less@H@std@@V?$allocator@U?$pair@$$CBHPAVBaseDialog@@@std@@@3@$0A@@std@@@2@XZ
_TEXT	SEGMENT PARA USE32 PUBLIC 'CODE'
_TEXT	ENDS
;	COMDAT ?_Rrotate@?$_Tree@V?$_Tmap_traits@HPAVBaseDialog@@U?$less@H@std@@V?$allocator@U?$pair@$$CBHPAVBaseDialog@@@std@@@3@$0A@@std@@@std@@IAEXPAU_Node@?$_Tree_nod@V?$_Tmap_traits@HPAVBaseDialog@@U?$less@H@std@@V?$allocator@U?$pair@$$CBHPAVBaseDialog@@@std@@@3@$0A@@std@@@2@@Z
_TEXT	SEGMENT PARA USE32 PUBLIC 'CODE'
_TEXT	ENDS
;	COMDAT ?_Buynode@?$_Tree@V?$_Tmap_traits@HPAVBaseDialog@@U?$less@H@std@@V?$allocator@U?$pair@$$CBHPAVBaseDialog@@@std@@@3@$0A@@std@@@std@@IAEPAU_Node@?$_Tree_nod@V?$_Tmap_traits@HPAVBaseDialog@@U?$less@H@std@@V?$allocator@U?$pair@$$CBHPAVBaseDialog@@@std@@@3@$0A@@std@@@2@XZ
_TEXT	SEGMENT PARA USE32 PUBLIC 'CODE'
_TEXT	ENDS
;	COMDAT ?_Buynode@?$_Tree@V?$_Tmap_traits@HPAVBaseDialog@@U?$less@H@std@@V?$allocator@U?$pair@$$CBHPAVBaseDialog@@@std@@@3@$0A@@std@@@std@@IAEPAU_Node@?$_Tree_nod@V?$_Tmap_traits@HPAVBaseDialog@@U?$less@H@std@@V?$allocator@U?$pair@$$CBHPAVBaseDialog@@@std@@@3@$0A@@std@@@2@PAU342@00ABU?$pair@$$CBHPAVBaseDialog@@@2@D@Z
_TEXT	SEGMENT PARA USE32 PUBLIC 'CODE'
_TEXT	ENDS
;	COMDAT ??0?$_Tree_ptr@V?$_Tmap_traits@HPAVBaseDialog@@U?$less@H@std@@V?$allocator@U?$pair@$$CBHPAVBaseDialog@@@std@@@3@$0A@@std@@@std@@IAE@ABU?$less@H@1@V?$allocator@U?$pair@$$CBHPAVBaseDialog@@@std@@@1@@Z
_TEXT	SEGMENT PARA USE32 PUBLIC 'CODE'
_TEXT	ENDS
;	COMDAT ??Eiterator@?$_Tree@V?$_Tmap_traits@HPAVBaseDialog@@U?$less@H@std@@V?$allocator@U?$pair@$$CBHPAVBaseDialog@@@std@@@3@$0A@@std@@@std@@QAE?AV012@H@Z
_TEXT	SEGMENT PARA USE32 PUBLIC 'CODE'
_TEXT	ENDS
;	COMDAT ??0const_iterator@?$_Tree@V?$_Tmap_traits@HPAVBaseDialog@@U?$less@H@std@@V?$allocator@U?$pair@$$CBHPAVBaseDialog@@@std@@@3@$0A@@std@@@std@@QAE@XZ
_TEXT	SEGMENT PARA USE32 PUBLIC 'CODE'
_TEXT	ENDS
;	COMDAT ??0const_iterator@?$_Tree@V?$_Tmap_traits@HPAVBaseDialog@@U?$less@H@std@@V?$allocator@U?$pair@$$CBHPAVBaseDialog@@@std@@@3@$0A@@std@@@std@@QAE@PAU_Node@?$_Tree_nod@V?$_Tmap_traits@HPAVBaseDialog@@U?$less@H@std@@V?$allocator@U?$pair@$$CBHPAVBaseDialog@@@std@@@3@$0A@@std@@@2@@Z
_TEXT	SEGMENT PARA USE32 PUBLIC 'CODE'
_TEXT	ENDS
;	COMDAT ??Econst_iterator@?$_Tree@V?$_Tmap_traits@HPAVBaseDialog@@U?$less@H@std@@V?$allocator@U?$pair@$$CBHPAVBaseDialog@@@std@@@3@$0A@@std@@@std@@QAEAAV012@XZ
_TEXT	SEGMENT PARA USE32 PUBLIC 'CODE'
_TEXT	ENDS
;	COMDAT ??Fconst_iterator@?$_Tree@V?$_Tmap_traits@HPAVBaseDialog@@U?$less@H@std@@V?$allocator@U?$pair@$$CBHPAVBaseDialog@@@std@@@3@$0A@@std@@@std@@QAEAAV012@XZ
_TEXT	SEGMENT PARA USE32 PUBLIC 'CODE'
_TEXT	ENDS
;	COMDAT ??9const_iterator@?$_Tree@V?$_Tmap_traits@HPAVBaseDialog@@U?$less@H@std@@V?$allocator@U?$pair@$$CBHPAVBaseDialog@@@std@@@3@$0A@@std@@@std@@QBE_NABV012@@Z
_TEXT	SEGMENT PARA USE32 PUBLIC 'CODE'
_TEXT	ENDS
;	COMDAT ??0?$pair@Viterator@?$_Tree@V?$_Tmap_traits@HPAVBaseDialog@@U?$less@H@std@@V?$allocator@U?$pair@$$CBHPAVBaseDialog@@@std@@@3@$0A@@std@@@std@@_N@std@@QAE@ABViterator@?$_Tree@V?$_Tmap_traits@HPAVBaseDialog@@U?$less@H@std@@V?$allocator@U?$pair@$$CBHPAVBaseDialog@@@std@@@3@$0A@@std@@@1@AB_N@Z
_TEXT	SEGMENT PARA USE32 PUBLIC 'CODE'
_TEXT	ENDS
;	COMDAT ?_Erase@?$_Tree@V?$_Tmap_traits@HPAVBaseDialog@@U?$less@H@std@@V?$allocator@U?$pair@$$CBHPAVBaseDialog@@@std@@@3@$0A@@std@@@std@@IAEXPAU_Node@?$_Tree_nod@V?$_Tmap_traits@HPAVBaseDialog@@U?$less@H@std@@V?$allocator@U?$pair@$$CBHPAVBaseDialog@@@std@@@3@$0A@@std@@@2@@Z
_TEXT	SEGMENT PARA USE32 PUBLIC 'CODE'
_TEXT	ENDS
;	COMDAT ?_Max@?$_Tree@V?$_Tmap_traits@HPAVBaseDialog@@U?$less@H@std@@V?$allocator@U?$pair@$$CBHPAVBaseDialog@@@std@@@3@$0A@@std@@@std@@KAPAU_Node@?$_Tree_nod@V?$_Tmap_traits@HPAVBaseDialog@@U?$less@H@std@@V?$allocator@U?$pair@$$CBHPAVBaseDialog@@@std@@@3@$0A@@std@@@2@PAU342@@Z
_TEXT	SEGMENT PARA USE32 PUBLIC 'CODE'
_TEXT	ENDS
;	COMDAT ?_Min@?$_Tree@V?$_Tmap_traits@HPAVBaseDialog@@U?$less@H@std@@V?$allocator@U?$pair@$$CBHPAVBaseDialog@@@std@@@3@$0A@@std@@@std@@KAPAU_Node@?$_Tree_nod@V?$_Tmap_traits@HPAVBaseDialog@@U?$less@H@std@@V?$allocator@U?$pair@$$CBHPAVBaseDialog@@@std@@@3@$0A@@std@@@2@PAU342@@Z
_TEXT	SEGMENT PARA USE32 PUBLIC 'CODE'
_TEXT	ENDS
;	COMDAT ??0?$_Tree_nod@V?$_Tmap_traits@HPAVBaseDialog@@U?$less@H@std@@V?$allocator@U?$pair@$$CBHPAVBaseDialog@@@std@@@3@$0A@@std@@@std@@IAE@ABU?$less@H@1@V?$allocator@U?$pair@$$CBHPAVBaseDialog@@@std@@@1@@Z
_TEXT	SEGMENT PARA USE32 PUBLIC 'CODE'
_TEXT	ENDS
;	COMDAT ?max_size@?$allocator@U?$pair@$$CBHPAVBaseDialog@@@std@@@std@@QBEIXZ
_TEXT	SEGMENT PARA USE32 PUBLIC 'CODE'
_TEXT	ENDS
;	COMDAT ?allocate@?$allocator@U_Node@?$_Tree_nod@V?$_Tmap_traits@HPAVBaseDialog@@U?$less@H@std@@V?$allocator@U?$pair@$$CBHPAVBaseDialog@@@std@@@3@$0A@@std@@@std@@@std@@QAEPAU_Node@?$_Tree_nod@V?$_Tmap_traits@HPAVBaseDialog@@U?$less@H@std@@V?$allocator@U?$pair@$$CBHPAVBaseDialog@@@std@@@3@$0A@@std@@@2@I@Z
_TEXT	SEGMENT PARA USE32 PUBLIC 'CODE'
_TEXT	ENDS
;	COMDAT ?destroy@?$allocator@U_Node@?$_Tree_nod@V?$_Tmap_traits@HPAVBaseDialog@@U?$less@H@std@@V?$allocator@U?$pair@$$CBHPAVBaseDialog@@@std@@@3@$0A@@std@@@std@@@std@@QAEXPAU_Node@?$_Tree_nod@V?$_Tmap_traits@HPAVBaseDialog@@U?$less@H@std@@V?$allocator@U?$pair@$$CBHPAVBaseDialog@@@std@@@3@$0A@@std@@@2@@Z
_TEXT	SEGMENT PARA USE32 PUBLIC 'CODE'
_TEXT	ENDS
;	COMDAT ?construct@?$allocator@PAU_Node@?$_Tree_nod@V?$_Tmap_traits@HPAVBaseDialog@@U?$less@H@std@@V?$allocator@U?$pair@$$CBHPAVBaseDialog@@@std@@@3@$0A@@std@@@std@@@std@@QAEXPAPAU_Node@?$_Tree_nod@V?$_Tmap_traits@HPAVBaseDialog@@U?$less@H@std@@V?$allocator@U?$pair@$$CBHPAVBaseDialog@@@std@@@3@$0A@@std@@@2@ABQAU342@@Z
_TEXT	SEGMENT PARA USE32 PUBLIC 'CODE'
_TEXT	ENDS
;	COMDAT ?_Dec@const_iterator@?$_Tree@V?$_Tmap_traits@HPAVBaseDialog@@U?$less@H@std@@V?$allocator@U?$pair@$$CBHPAVBaseDialog@@@std@@@3@$0A@@std@@@std@@QAEXXZ
_TEXT	SEGMENT PARA USE32 PUBLIC 'CODE'
_TEXT	ENDS
;	COMDAT ?_Inc@const_iterator@?$_Tree@V?$_Tmap_traits@HPAVBaseDialog@@U?$less@H@std@@V?$allocator@U?$pair@$$CBHPAVBaseDialog@@@std@@@3@$0A@@std@@@std@@QAEXXZ
_TEXT	SEGMENT PARA USE32 PUBLIC 'CODE'
_TEXT	ENDS
;	COMDAT ??0_Node@?$_Tree_nod@V?$_Tmap_traits@HPAVBaseDialog@@U?$less@H@std@@V?$allocator@U?$pair@$$CBHPAVBaseDialog@@@std@@@3@$0A@@std@@@std@@QAE@PAU012@00ABU?$pair@$$CBHPAVBaseDialog@@@2@D@Z
_TEXT	SEGMENT PARA USE32 PUBLIC 'CODE'
_TEXT	ENDS
;	COMDAT ??0?$_Tmap_traits@HPAVBaseDialog@@U?$less@H@std@@V?$allocator@U?$pair@$$CBHPAVBaseDialog@@@std@@@3@$0A@@std@@QAE@U?$less@H@1@@Z
_TEXT	SEGMENT PARA USE32 PUBLIC 'CODE'
_TEXT	ENDS
;	COMDAT ?Unlock@?$CComCritSecLock@VCComCriticalSection@ATL@@@ATL@@QAEXXZ
_TEXT	SEGMENT PARA USE32 PUBLIC 'CODE'
_TEXT	ENDS
;	COMDAT ??$_Maklocstr@D@std@@YAPADPBDPADABU_Cvtvec@@@Z
_TEXT	SEGMENT PARA USE32 PUBLIC 'CODE'
_TEXT	ENDS
;	COMDAT ??$_Destroy@PAU_Node@?$_Tree_nod@V?$_Tmap_traits@HPAVBaseDialog@@U?$less@H@std@@V?$allocator@U?$pair@$$CBHPAVBaseDialog@@@std@@@3@$0A@@std@@@std@@@std@@YAXPAPAU_Node@?$_Tree_nod@V?$_Tmap_traits@HPAVBaseDialog@@U?$less@H@std@@V?$allocator@U?$pair@$$CBHPAVBaseDialog@@@std@@@3@$0A@@std@@@0@@Z
_TEXT	SEGMENT PARA USE32 PUBLIC 'CODE'
_TEXT	ENDS
;	COMDAT ??$?0U?$pair@$$CBHPAVBaseDialog@@@std@@@?$allocator@PAU_Node@?$_Tree_nod@V?$_Tmap_traits@HPAVBaseDialog@@U?$less@H@std@@V?$allocator@U?$pair@$$CBHPAVBaseDialog@@@std@@@3@$0A@@std@@@std@@@std@@QAE@ABV?$allocator@U?$pair@$$CBHPAVBaseDialog@@@std@@@1@@Z
_TEXT	SEGMENT PARA USE32 PUBLIC 'CODE'
_TEXT	ENDS
;	COMDAT ??$?0U?$pair@$$CBHPAVBaseDialog@@@std@@@?$allocator@U_Node@?$_Tree_nod@V?$_Tmap_traits@HPAVBaseDialog@@U?$less@H@std@@V?$allocator@U?$pair@$$CBHPAVBaseDialog@@@std@@@3@$0A@@std@@@std@@@std@@QAE@ABV?$allocator@U?$pair@$$CBHPAVBaseDialog@@@std@@@1@@Z
_TEXT	SEGMENT PARA USE32 PUBLIC 'CODE'
_TEXT	ENDS
;	COMDAT ??$_Allocate@U_Node@?$_Tree_nod@V?$_Tmap_traits@HPAVBaseDialog@@U?$less@H@std@@V?$allocator@U?$pair@$$CBHPAVBaseDialog@@@std@@@3@$0A@@std@@@std@@@std@@YAPAU_Node@?$_Tree_nod@V?$_Tmap_traits@HPAVBaseDialog@@U?$less@H@std@@V?$allocator@U?$pair@$$CBHPAVBaseDialog@@@std@@@3@$0A@@std@@@0@IPAU120@@Z
_TEXT	SEGMENT PARA USE32 PUBLIC 'CODE'
_TEXT	ENDS
;	COMDAT ??$_Destroy@U_Node@?$_Tree_nod@V?$_Tmap_traits@HPAVBaseDialog@@U?$less@H@std@@V?$allocator@U?$pair@$$CBHPAVBaseDialog@@@std@@@3@$0A@@std@@@std@@@std@@YAXPAU_Node@?$_Tree_nod@V?$_Tmap_traits@HPAVBaseDialog@@U?$less@H@std@@V?$allocator@U?$pair@$$CBHPAVBaseDialog@@@std@@@3@$0A@@std@@@0@@Z
_TEXT	SEGMENT PARA USE32 PUBLIC 'CODE'
_TEXT	ENDS
;	COMDAT ??$_Construct@PAU_Node@?$_Tree_nod@V?$_Tmap_traits@HPAVBaseDialog@@U?$less@H@std@@V?$allocator@U?$pair@$$CBHPAVBaseDialog@@@std@@@3@$0A@@std@@@std@@PAU123@@std@@YAXPAPAU_Node@?$_Tree_nod@V?$_Tmap_traits@HPAVBaseDialog@@U?$less@H@std@@V?$allocator@U?$pair@$$CBHPAVBaseDialog@@@std@@@3@$0A@@std@@@0@ABQAU120@@Z
_TEXT	SEGMENT PARA USE32 PUBLIC 'CODE'
_TEXT	ENDS
;	COMDAT ??_ECConfigDialog@@WEOI@AEPAXI@Z
_TEXT	SEGMENT PARA USE32 PUBLIC 'CODE'
_TEXT	ENDS
;	COMDAT ??_R3IData@@8
rdata$r	SEGMENT DWORD USE32 PUBLIC 'CONST'
rdata$r	ENDS
;	COMDAT ??_R3IAppExitObserver@@8
rdata$r	SEGMENT DWORD USE32 PUBLIC 'CONST'
rdata$r	ENDS
;	COMDAT ??_R3CConfigDialog@@8
rdata$r	SEGMENT DWORD USE32 PUBLIC 'CONST'
rdata$r	ENDS
;	COMDAT ??_R3?$numpunct@_W@std@@8
rdata$r	SEGMENT DWORD USE32 PUBLIC 'CONST'
rdata$r	ENDS
;	COMDAT ??_R3?$numpunct@D@std@@8
rdata$r	SEGMENT DWORD USE32 PUBLIC 'CONST'
rdata$r	ENDS
;	COMDAT ??_R2IData@@8
rdata$r	SEGMENT DWORD USE32 PUBLIC 'CONST'
rdata$r	ENDS
;	COMDAT ??_R2IAppExitObserver@@8
rdata$r	SEGMENT DWORD USE32 PUBLIC 'CONST'
rdata$r	ENDS
;	COMDAT ??_R2CConfigDialog@@8
rdata$r	SEGMENT DWORD USE32 PUBLIC 'CONST'
rdata$r	ENDS
;	COMDAT ??_R2?$numpunct@_W@std@@8
rdata$r	SEGMENT DWORD USE32 PUBLIC 'CONST'
rdata$r	ENDS
;	COMDAT ??_R2?$numpunct@D@std@@8
rdata$r	SEGMENT DWORD USE32 PUBLIC 'CONST'
rdata$r	ENDS
;	COMDAT ??_R1A@?0A@A@IData@@8
rdata$r	SEGMENT DWORD USE32 PUBLIC 'CONST'
rdata$r	ENDS
;	COMDAT ??_R1A@33BA@IMessageObserver@@8
rdata$r	SEGMENT DWORD USE32 PUBLIC 'CONST'
rdata$r	ENDS
;	COMDAT ??_R1A@?0A@A@IAppExitObserver@@8
rdata$r	SEGMENT DWORD USE32 PUBLIC 'CONST'
rdata$r	ENDS
;	COMDAT ??_R1A@HI@3BA@IMessageObserver@@8
rdata$r	SEGMENT DWORD USE32 PUBLIC 'CONST'
rdata$r	ENDS
;	COMDAT ??_R1HE@?0A@A@IAppExitObserver@@8
rdata$r	SEGMENT DWORD USE32 PUBLIC 'CONST'
rdata$r	ENDS
;	COMDAT ??_R1A@?0A@A@CObject@@8
rdata$r	SEGMENT DWORD USE32 PUBLIC 'CONST'
rdata$r	ENDS
;	COMDAT ??_R0?AVCObject@@@8
_DATA	SEGMENT DWORD USE32 PUBLIC 'DATA'
_DATA	ENDS
;	COMDAT ??_R1A@?0A@A@CCmdTarget@@8
rdata$r	SEGMENT DWORD USE32 PUBLIC 'CONST'
rdata$r	ENDS
;	COMDAT ??_R0?AVCCmdTarget@@@8
_DATA	SEGMENT DWORD USE32 PUBLIC 'DATA'
_DATA	ENDS
;	COMDAT ??_R1A@?0A@A@CWnd@@8
rdata$r	SEGMENT DWORD USE32 PUBLIC 'CONST'
rdata$r	ENDS
;	COMDAT ??_R0?AVCWnd@@@8
_DATA	SEGMENT DWORD USE32 PUBLIC 'DATA'
_DATA	ENDS
;	COMDAT ??_R1A@?0A@A@CDialog@@8
rdata$r	SEGMENT DWORD USE32 PUBLIC 'CONST'
rdata$r	ENDS
;	COMDAT ??_R0?AVCDialog@@@8
_DATA	SEGMENT DWORD USE32 PUBLIC 'DATA'
_DATA	ENDS
;	COMDAT ??_R1A@?0A@A@CConfigDialog@@8
rdata$r	SEGMENT DWORD USE32 PUBLIC 'CONST'
rdata$r	ENDS
;	COMDAT ??_R1A@?0A@A@?$numpunct@_W@std@@8
rdata$r	SEGMENT DWORD USE32 PUBLIC 'CONST'
rdata$r	ENDS
;	COMDAT ??_R1A@?0A@A@facet@locale@std@@8
rdata$r	SEGMENT DWORD USE32 PUBLIC 'CONST'
rdata$r	ENDS
;	COMDAT ??_R0?AVfacet@locale@std@@@8
_DATA	SEGMENT DWORD USE32 PUBLIC 'DATA'
_DATA	ENDS
;	COMDAT ??_R1A@?0A@A@?$numpunct@D@std@@8
rdata$r	SEGMENT DWORD USE32 PUBLIC 'CONST'
rdata$r	ENDS
;	COMDAT ??_R0?AVIData@@@8
_DATA	SEGMENT DWORD USE32 PUBLIC 'DATA'
_DATA	ENDS
;	COMDAT ??_R0?AVIMessageObserver@@@8
_DATA	SEGMENT DWORD USE32 PUBLIC 'DATA'
_DATA	ENDS
;	COMDAT ??_R0?AVIAppExitObserver@@@8
_DATA	SEGMENT DWORD USE32 PUBLIC 'DATA'
_DATA	ENDS
;	COMDAT ??_R0?AVCConfigDialog@@@8
_DATA	SEGMENT DWORD USE32 PUBLIC 'DATA'
_DATA	ENDS
;	COMDAT ??_R0?AV?$numpunct@_W@std@@@8
_DATA	SEGMENT DWORD USE32 PUBLIC 'DATA'
_DATA	ENDS
;	COMDAT ??_R0?AV?$numpunct@D@std@@@8
_DATA	SEGMENT DWORD USE32 PUBLIC 'DATA'
_DATA	ENDS
;	COMDAT ??_R4IData@@6B@
rdata$r	SEGMENT DWORD USE32 PUBLIC 'CONST'
rdata$r	ENDS
;	COMDAT ??_R4IAppExitObserver@@6BIMessageObserver@@@
rdata$r	SEGMENT DWORD USE32 PUBLIC 'CONST'
rdata$r	ENDS
;	COMDAT ??_R4IAppExitObserver@@6B0@@
rdata$r	SEGMENT DWORD USE32 PUBLIC 'CONST'
rdata$r	ENDS
;	COMDAT ??_R4CConfigDialog@@6BIMessageObserver@@@
rdata$r	SEGMENT DWORD USE32 PUBLIC 'CONST'
rdata$r	ENDS
;	COMDAT ??_R4CConfigDialog@@6BIAppExitObserver@@@
rdata$r	SEGMENT DWORD USE32 PUBLIC 'CONST'
rdata$r	ENDS
;	COMDAT ?Create@CDialog@@UAEHIPAVCWnd@@@Z
_TEXT	SEGMENT PARA USE32 PUBLIC 'CODE'
_TEXT	ENDS
;	COMDAT ?EndModalState@CWnd@@UAEXXZ
_TEXT	SEGMENT PARA USE32 PUBLIC 'CODE'
_TEXT	ENDS
;	COMDAT ?BeginModalState@CWnd@@UAEXXZ
_TEXT	SEGMENT PARA USE32 PUBLIC 'CODE'
_TEXT	ENDS
;	COMDAT ?Dump@CObject@@UBEXAAVCDumpContext@@@Z
_TEXT	SEGMENT PARA USE32 PUBLIC 'CODE'
_TEXT	ENDS
;	COMDAT ?AssertValid@CObject@@UBEXXZ
_TEXT	SEGMENT PARA USE32 PUBLIC 'CODE'
_TEXT	ENDS
;	COMDAT ?Serialize@CObject@@UAEXAAVCArchive@@@Z
_TEXT	SEGMENT PARA USE32 PUBLIC 'CODE'
_TEXT	ENDS
;	COMDAT ??_R4CConfigDialog@@6B@
rdata$r	SEGMENT DWORD USE32 PUBLIC 'CONST'
rdata$r	ENDS
;	COMDAT ??0?$allocator@_W@std@@QAE@XZ
_TEXT	SEGMENT PARA USE32 PUBLIC 'CODE'
_TEXT	ENDS
;	COMDAT ??_G?$numpunct@_W@std@@MAEPAXI@Z
_TEXT	SEGMENT PARA USE32 PUBLIC 'CODE'
_TEXT	ENDS
;	COMDAT ??_R4?$numpunct@_W@std@@6B@
rdata$r	SEGMENT DWORD USE32 PUBLIC 'CONST'
rdata$r	ENDS
;	COMDAT ??_G?$numpunct@D@std@@MAEPAXI@Z
_TEXT	SEGMENT PARA USE32 PUBLIC 'CODE'
_TEXT	ENDS
;	COMDAT ??_R4?$numpunct@D@std@@6B@
rdata$r	SEGMENT DWORD USE32 PUBLIC 'CONST'
rdata$r	ENDS
;	COMDAT ?_Psave@?$_Facetptr@V?$numpunct@_W@std@@@std@@2PBVfacet@locale@2@B
_DATA	SEGMENT DWORD USE32 PUBLIC 'DATA'
_DATA	ENDS
;	COMDAT ?_Psave@?$_Facetptr@V?$numpunct@D@std@@@std@@2PBVfacet@locale@2@B
_DATA	SEGMENT DWORD USE32 PUBLIC 'DATA'
_DATA	ENDS
;	COMDAT ?Unlock@CComCriticalSection@ATL@@QAEJXZ
_TEXT	SEGMENT PARA USE32 PUBLIC 'CODE'
_TEXT	ENDS
;	COMDAT ?_Psave@?$_Facetptr@V?$ctype@_W@std@@@std@@2PBVfacet@locale@2@B
_DATA	SEGMENT DWORD USE32 PUBLIC 'DATA'
_DATA	ENDS
;	COMDAT ?_Psave@?$_Facetptr@V?$ctype@D@std@@@std@@2PBVfacet@locale@2@B
_DATA	SEGMENT DWORD USE32 PUBLIC 'DATA'
_DATA	ENDS
;	COMDAT ??3@YAXPAX0@Z
_TEXT	SEGMENT PARA USE32 PUBLIC 'CODE'
_TEXT	ENDS
;	COMDAT ??2@YAPAXIPAX@Z
_TEXT	SEGMENT PARA USE32 PUBLIC 'CODE'
_TEXT	ENDS
;	COMDAT ??$swap@D@std@@YAXAAD0@Z
_TEXT	SEGMENT PARA USE32 PUBLIC 'CODE'
_TEXT	ENDS
;	COMDAT __TI3?AVout_of_range@std@@
xdata$x	SEGMENT DWORD USE32 PUBLIC 'CONST'
xdata$x	ENDS
;	COMDAT ??1out_of_range@std@@UAE@XZ
_TEXT	SEGMENT PARA USE32 PUBLIC 'CODE'
_TEXT	ENDS
;	COMDAT ??_7out_of_range@std@@6B@
CONST	SEGMENT DWORD USE32 PUBLIC 'CONST'
CONST	ENDS
;	COMDAT ??_R4out_of_range@std@@6B@
rdata$r	SEGMENT DWORD USE32 PUBLIC 'CONST'
rdata$r	ENDS
;	COMDAT ??_R0?AVout_of_range@std@@@8
_DATA	SEGMENT DWORD USE32 PUBLIC 'DATA'
_DATA	ENDS
;	COMDAT ??_R3out_of_range@std@@8
rdata$r	SEGMENT DWORD USE32 PUBLIC 'CONST'
rdata$r	ENDS
;	COMDAT ??_R2out_of_range@std@@8
rdata$r	SEGMENT DWORD USE32 PUBLIC 'CONST'
rdata$r	ENDS
;	COMDAT ??_R1A@?0A@A@out_of_range@std@@8
rdata$r	SEGMENT DWORD USE32 PUBLIC 'CONST'
rdata$r	ENDS
;	COMDAT ??_R1A@?0A@A@logic_error@std@@8
rdata$r	SEGMENT DWORD USE32 PUBLIC 'CONST'
rdata$r	ENDS
;	COMDAT ??_R0?AVlogic_error@std@@@8
_DATA	SEGMENT DWORD USE32 PUBLIC 'DATA'
_DATA	ENDS
;	COMDAT ??_R1A@?0A@A@exception@@8
rdata$r	SEGMENT DWORD USE32 PUBLIC 'CONST'
rdata$r	ENDS
;	COMDAT ??_R0?AVexception@@@8
_DATA	SEGMENT DWORD USE32 PUBLIC 'DATA'
_DATA	ENDS
;	COMDAT ??_Gout_of_range@std@@UAEPAXI@Z
_TEXT	SEGMENT PARA USE32 PUBLIC 'CODE'
_TEXT	ENDS
;	COMDAT ?what@logic_error@std@@UBEPBDXZ
_TEXT	SEGMENT PARA USE32 PUBLIC 'CODE'
_TEXT	ENDS
;	COMDAT __CTA3?AVout_of_range@std@@
xdata$x	SEGMENT DWORD USE32 PUBLIC 'CONST'
xdata$x	ENDS
;	COMDAT __CT??_R0?AVout_of_range@std@@@8??0out_of_range@std@@QAE@ABV01@@Z40
xdata$x	SEGMENT DWORD USE32 PUBLIC 'CONST'
xdata$x	ENDS
;	COMDAT ??0out_of_range@std@@QAE@ABV01@@Z
_TEXT	SEGMENT PARA USE32 PUBLIC 'CODE'
_TEXT	ENDS
;	COMDAT ??_C@_0BM@PAPJHAGI@invalid?5map?1set?$DMT?$DO?5iterator?$AA@
CONST	SEGMENT DWORD USE32 PUBLIC 'CONST'
CONST	ENDS
;	COMDAT ??0out_of_range@std@@QAE@ABV?$basic_string@DU?$char_traits@D@std@@V?$allocator@D@2@@1@@Z
_TEXT	SEGMENT PARA USE32 PUBLIC 'CODE'
_TEXT	ENDS
;	COMDAT ??0logic_error@std@@QAE@ABV?$basic_string@DU?$char_traits@D@std@@V?$allocator@D@2@@1@@Z
_TEXT	SEGMENT PARA USE32 PUBLIC 'CODE'
_TEXT	ENDS
;	COMDAT ??_7logic_error@std@@6B@
CONST	SEGMENT DWORD USE32 PUBLIC 'CONST'
CONST	ENDS
;	COMDAT ??_R4logic_error@std@@6B@
rdata$r	SEGMENT DWORD USE32 PUBLIC 'CONST'
rdata$r	ENDS
;	COMDAT ??_R3logic_error@std@@8
rdata$r	SEGMENT DWORD USE32 PUBLIC 'CONST'
rdata$r	ENDS
;	COMDAT ??_R2logic_error@std@@8
rdata$r	SEGMENT DWORD USE32 PUBLIC 'CONST'
rdata$r	ENDS
;	COMDAT ??_Glogic_error@std@@UAEPAXI@Z
_TEXT	SEGMENT PARA USE32 PUBLIC 'CODE'
_TEXT	ENDS
;	COMDAT ??0?$allocator@D@std@@QAE@ABV01@@Z
_TEXT	SEGMENT PARA USE32 PUBLIC 'CODE'
_TEXT	ENDS
;	COMDAT ?deallocate@?$allocator@D@std@@QAEXPADI@Z
_TEXT	SEGMENT PARA USE32 PUBLIC 'CODE'
_TEXT	ENDS
;	COMDAT ?max_size@?$allocator@D@std@@QBEIXZ
_TEXT	SEGMENT PARA USE32 PUBLIC 'CODE'
_TEXT	ENDS
;	COMDAT ?allocate@?$allocator@D@std@@QAEPADI@Z
_TEXT	SEGMENT PARA USE32 PUBLIC 'CODE'
_TEXT	ENDS
;	COMDAT ??$_Allocate@D@std@@YAPADIPAD@Z
_TEXT	SEGMENT PARA USE32 PUBLIC 'CODE'
_TEXT	ENDS
;	COMDAT ??_7length_error@std@@6B@
CONST	SEGMENT DWORD USE32 PUBLIC 'CONST'
CONST	ENDS
;	COMDAT ??_R4length_error@std@@6B@
rdata$r	SEGMENT DWORD USE32 PUBLIC 'CONST'
rdata$r	ENDS
;	COMDAT ??_R3length_error@std@@8
rdata$r	SEGMENT DWORD USE32 PUBLIC 'CONST'
rdata$r	ENDS
;	COMDAT ??_R2length_error@std@@8
rdata$r	SEGMENT DWORD USE32 PUBLIC 'CONST'
rdata$r	ENDS
;	COMDAT ??_R1A@?0A@A@length_error@std@@8
rdata$r	SEGMENT DWORD USE32 PUBLIC 'CONST'
rdata$r	ENDS
;	COMDAT ??_Glength_error@std@@UAEPAXI@Z
_TEXT	SEGMENT PARA USE32 PUBLIC 'CODE'
_TEXT	ENDS
;	COMDAT ??1logic_error@std@@UAE@XZ
_TEXT	SEGMENT PARA USE32 PUBLIC 'CODE'
_TEXT	ENDS
;	COMDAT ??0logic_error@std@@QAE@ABV01@@Z
_TEXT	SEGMENT PARA USE32 PUBLIC 'CODE'
_TEXT	ENDS
;	COMDAT __CTA3?AVlength_error@std@@
xdata$x	SEGMENT DWORD USE32 PUBLIC 'CONST'
xdata$x	ENDS
;	COMDAT ??1length_error@std@@UAE@XZ
_TEXT	SEGMENT PARA USE32 PUBLIC 'CODE'
_TEXT	ENDS
;	COMDAT __CT??_R0?AVexception@@@8??0exception@@QAE@ABV0@@Z12
xdata$x	SEGMENT DWORD USE32 PUBLIC 'CONST'
xdata$x	ENDS
;	COMDAT __CT??_R0?AVlogic_error@std@@@8??0logic_error@std@@QAE@ABV01@@Z40
xdata$x	SEGMENT DWORD USE32 PUBLIC 'CONST'
xdata$x	ENDS
;	COMDAT __CT??_R0?AVlength_error@std@@@8??0length_error@std@@QAE@ABV01@@Z40
xdata$x	SEGMENT DWORD USE32 PUBLIC 'CONST'
xdata$x	ENDS
;	COMDAT ??_R0?AVlength_error@std@@@8
_DATA	SEGMENT DWORD USE32 PUBLIC 'DATA'
_DATA	ENDS
;	COMDAT __TI3?AVlength_error@std@@
xdata$x	SEGMENT DWORD USE32 PUBLIC 'CONST'
xdata$x	ENDS
;	COMDAT ??0length_error@std@@QAE@ABV?$basic_string@DU?$char_traits@D@std@@V?$allocator@D@2@@1@@Z
_TEXT	SEGMENT PARA USE32 PUBLIC 'CODE'
_TEXT	ENDS
;	COMDAT ??$_Maklocchr@_W@std@@YA_WDPA_WABU_Cvtvec@@@Z
_TEXT	SEGMENT PARA USE32 PUBLIC 'CODE'
_TEXT	ENDS
;	COMDAT ??$_Maklocstr@_W@std@@YAPA_WPBDPA_WABU_Cvtvec@@@Z
_TEXT	SEGMENT PARA USE32 PUBLIC 'CODE'
_TEXT	ENDS
;	COMDAT ??$_Maklocchr@D@std@@YADDPADABU_Cvtvec@@@Z
_TEXT	SEGMENT PARA USE32 PUBLIC 'CODE'
_TEXT	ENDS
;	COMDAT ??_C@_04LOAJBDKD@true?$AA@
CONST	SEGMENT DWORD USE32 PUBLIC 'CONST'
CONST	ENDS
;	COMDAT ??_C@_05LAPONLG@false?$AA@
CONST	SEGMENT DWORD USE32 PUBLIC 'CONST'
CONST	ENDS
;	COMDAT _wmemcpy
_TEXT	SEGMENT PARA USE32 PUBLIC 'CODE'
_TEXT	ENDS
;	COMDAT ?max_size@?$allocator@_W@std@@QBEIXZ
_TEXT	SEGMENT PARA USE32 PUBLIC 'CODE'
_TEXT	ENDS
;	COMDAT ?allocate@?$allocator@_W@std@@QAEPA_WI@Z
_TEXT	SEGMENT PARA USE32 PUBLIC 'CODE'
_TEXT	ENDS
;	COMDAT ??$_Allocate@_W@std@@YAPA_WIPA_W@Z
_TEXT	SEGMENT PARA USE32 PUBLIC 'CODE'
_TEXT	ENDS
;	COMDAT ??_C@_01GFHCPBMG@C?$AA@
CONST	SEGMENT DWORD USE32 PUBLIC 'CONST'
CONST	ENDS
;	COMDAT ?_Peek@?$istreambuf_iterator@_WU?$char_traits@_W@std@@@std@@AAE_WXZ
_TEXT	SEGMENT PARA USE32 PUBLIC 'CODE'
_TEXT	ENDS
;	COMDAT ?_Peek@?$istreambuf_iterator@DU?$char_traits@D@std@@@std@@AAEDXZ
_TEXT	SEGMENT PARA USE32 PUBLIC 'CODE'
_TEXT	ENDS
;	COMDAT ??$use_facet@V?$ctype@_W@std@@@std@@YAABV?$ctype@_W@0@ABVlocale@0@@Z
_TEXT	SEGMENT PARA USE32 PUBLIC 'CODE'
_TEXT	ENDS
;	COMDAT ??_S?$ctype@_W@std@@6B@
CONST	SEGMENT DWORD USE32 PUBLIC 'CONST'
CONST	ENDS
;	COMDAT ??_R4?$ctype@_W@std@@6B@
rdata$r	SEGMENT DWORD USE32 PUBLIC 'CONST'
rdata$r	ENDS
;	COMDAT ??_R0?AV?$ctype@_W@std@@@8
_DATA	SEGMENT DWORD USE32 PUBLIC 'DATA'
_DATA	ENDS
;	COMDAT ??_R3?$ctype@_W@std@@8
rdata$r	SEGMENT DWORD USE32 PUBLIC 'CONST'
rdata$r	ENDS
;	COMDAT ??_R2?$ctype@_W@std@@8
rdata$r	SEGMENT DWORD USE32 PUBLIC 'CONST'
rdata$r	ENDS
;	COMDAT ??_R1A@?0A@A@?$ctype@_W@std@@8
rdata$r	SEGMENT DWORD USE32 PUBLIC 'CONST'
rdata$r	ENDS
;	COMDAT ??_R1A@?0A@A@ctype_base@std@@8
rdata$r	SEGMENT DWORD USE32 PUBLIC 'CONST'
rdata$r	ENDS
;	COMDAT ??_R0?AUctype_base@std@@@8
_DATA	SEGMENT DWORD USE32 PUBLIC 'DATA'
_DATA	ENDS
;	COMDAT ??_G?$ctype@_W@std@@MAEPAXI@Z
_TEXT	SEGMENT PARA USE32 PUBLIC 'CODE'
_TEXT	ENDS
;	COMDAT ??_C@_08EPJLHIJG@bad?5cast?$AA@
CONST	SEGMENT DWORD USE32 PUBLIC 'CONST'
CONST	ENDS
;	COMDAT __TI2?AVbad_cast@@
xdata$x	SEGMENT DWORD USE32 PUBLIC 'CONST'
xdata$x	ENDS
;	COMDAT __CTA2?AVbad_cast@@
xdata$x	SEGMENT DWORD USE32 PUBLIC 'CONST'
xdata$x	ENDS
;	COMDAT __CT??_R0?AVbad_cast@@@8??0bad_cast@@QAE@ABV0@@Z12
xdata$x	SEGMENT DWORD USE32 PUBLIC 'CONST'
xdata$x	ENDS
;	COMDAT ??_R0?AVbad_cast@@@8
_DATA	SEGMENT DWORD USE32 PUBLIC 'DATA'
_DATA	ENDS
;	COMDAT ??$use_facet@V?$ctype@D@std@@@std@@YAABV?$ctype@D@0@ABVlocale@0@@Z
_TEXT	SEGMENT PARA USE32 PUBLIC 'CODE'
_TEXT	ENDS
;	COMDAT ??_S?$ctype@D@std@@6B@
CONST	SEGMENT DWORD USE32 PUBLIC 'CONST'
CONST	ENDS
;	COMDAT ??_R4?$ctype@D@std@@6B@
rdata$r	SEGMENT DWORD USE32 PUBLIC 'CONST'
rdata$r	ENDS
;	COMDAT ??_R0?AV?$ctype@D@std@@@8
_DATA	SEGMENT DWORD USE32 PUBLIC 'DATA'
_DATA	ENDS
;	COMDAT ??_R3?$ctype@D@std@@8
rdata$r	SEGMENT DWORD USE32 PUBLIC 'CONST'
rdata$r	ENDS
;	COMDAT ??_R2?$ctype@D@std@@8
rdata$r	SEGMENT DWORD USE32 PUBLIC 'CONST'
rdata$r	ENDS
;	COMDAT ??_R1A@?0A@A@?$ctype@D@std@@8
rdata$r	SEGMENT DWORD USE32 PUBLIC 'CONST'
rdata$r	ENDS
;	COMDAT ??_G?$ctype@D@std@@MAEPAXI@Z
_TEXT	SEGMENT PARA USE32 PUBLIC 'CODE'
_TEXT	ENDS
;	COMDAT ??_S?$numpunct@_W@std@@6B@
CONST	SEGMENT DWORD USE32 PUBLIC 'CONST'
CONST	ENDS
;	COMDAT ??_S?$numpunct@D@std@@6B@
CONST	SEGMENT DWORD USE32 PUBLIC 'CONST'
CONST	ENDS
;	COMDAT _wmemmove
_TEXT	SEGMENT PARA USE32 PUBLIC 'CODE'
_TEXT	ENDS
;	COMDAT ?deallocate@?$allocator@_W@std@@QAEXPA_WI@Z
_TEXT	SEGMENT PARA USE32 PUBLIC 'CODE'
_TEXT	ENDS
;	COMDAT ??0?$allocator@_W@std@@QAE@ABV01@@Z
_TEXT	SEGMENT PARA USE32 PUBLIC 'CODE'
_TEXT	ENDS
;	COMDAT ?SendMessageA@CWnd@@QAEJIIJ@Z
_TEXT	SEGMENT PARA USE32 PUBLIC 'CODE'
_TEXT	ENDS
;	COMDAT ??0?$allocator@D@std@@QAE@XZ
_TEXT	SEGMENT PARA USE32 PUBLIC 'CODE'
_TEXT	ENDS
;	COMDAT ??BCRect@@QAEPAUtagRECT@@XZ
_TEXT	SEGMENT PARA USE32 PUBLIC 'CODE'
_TEXT	ENDS
;	COMDAT ?MoveWindow@CWnd@@QAEXPBUtagRECT@@H@Z
_TEXT	SEGMENT PARA USE32 PUBLIC 'CODE'
_TEXT	ENDS
;	COMDAT ?Height@CRect@@QBEHXZ
_TEXT	SEGMENT PARA USE32 PUBLIC 'CODE'
_TEXT	ENDS
;	COMDAT ?GetClientRect@CWnd@@QBEXPAUtagRECT@@@Z
_TEXT	SEGMENT PARA USE32 PUBLIC 'CODE'
_TEXT	ENDS
;	COMDAT ??0CRect@@QAE@XZ
_TEXT	SEGMENT PARA USE32 PUBLIC 'CODE'
_TEXT	ENDS
;	COMDAT ??0CRect@@QAE@HHHH@Z
_TEXT	SEGMENT PARA USE32 PUBLIC 'CODE'
_TEXT	ENDS
;	COMDAT ?ScreenToClient@CWnd@@QBEXPAUtagPOINT@@@Z
_TEXT	SEGMENT PARA USE32 PUBLIC 'CODE'
_TEXT	ENDS
;	COMDAT ?GetWindowRect@CWnd@@QBEXPAUtagRECT@@@Z
_TEXT	SEGMENT PARA USE32 PUBLIC 'CODE'
_TEXT	ENDS
;	COMDAT ?DoDataExchange@CWnd@@MAEXPAVCDataExchange@@@Z
_TEXT	SEGMENT PARA USE32 PUBLIC 'CODE'
_TEXT	ENDS
;	COMDAT ?_messageEntries@CConfigDialog@@0QBUAFX_MSGMAP_ENTRY@@B
_DATA	SEGMENT DWORD USE32 PUBLIC 'DATA'
_DATA	ENDS
;	COMDAT CRT$XCU
CRT$XCU	SEGMENT DWORD USE32 PUBLIC 'DATA'
CRT$XCU	ENDS
;	COMDAT ?messageMap@CConfigDialog@@1UAFX_MSGMAP@@B
CONST	SEGMENT DWORD USE32 PUBLIC 'CONST'
CONST	ENDS
;	COMDAT ??_7IAppExitObserver@@6BIMessageObserver@@@
CONST	SEGMENT DWORD USE32 PUBLIC 'CONST'
CONST	ENDS
;	COMDAT ??_7IAppExitObserver@@6B0@@
CONST	SEGMENT DWORD USE32 PUBLIC 'CONST'
CONST	ENDS
;	COMDAT ??_8IAppExitObserver@@7B@
CONST	SEGMENT DWORD USE32 PUBLIC 'CONST'
CONST	ENDS
;	COMDAT ??_7IMessageObserver@@6B@
CONST	SEGMENT DWORD USE32 PUBLIC 'CONST'
CONST	ENDS
;	COMDAT ??_R4IMessageObserver@@6B@
rdata$r	SEGMENT DWORD USE32 PUBLIC 'CONST'
rdata$r	ENDS
;	COMDAT ??_R3IMessageObserver@@8
rdata$r	SEGMENT DWORD USE32 PUBLIC 'CONST'
rdata$r	ENDS
;	COMDAT ??_R2IMessageObserver@@8
rdata$r	SEGMENT DWORD USE32 PUBLIC 'CONST'
rdata$r	ENDS
;	COMDAT ??_R1A@?0A@A@IMessageObserver@@8
rdata$r	SEGMENT DWORD USE32 PUBLIC 'CONST'
rdata$r	ENDS
;	COMDAT ??_GIMessageObserver@@UAEPAXI@Z
_TEXT	SEGMENT PARA USE32 PUBLIC 'CODE'
_TEXT	ENDS
;	COMDAT ??3CObject@@SGXPAX@Z
_TEXT	SEGMENT PARA USE32 PUBLIC 'CODE'
_TEXT	ENDS
;	COMDAT ??_7CConfigDialog@@6BIMessageObserver@@@
CONST	SEGMENT DWORD USE32 PUBLIC 'CONST'
CONST	ENDS
;	COMDAT ??_7CConfigDialog@@6BIAppExitObserver@@@
CONST	SEGMENT DWORD USE32 PUBLIC 'CONST'
CONST	ENDS
;	COMDAT ??_7CConfigDialog@@6B@
CONST	SEGMENT DWORD USE32 PUBLIC 'CONST'
CONST	ENDS
;	COMDAT ??1IMessageObserver@@UAE@XZ
_TEXT	SEGMENT PARA USE32 PUBLIC 'CODE'
_TEXT	ENDS
;	COMDAT ??_8CConfigDialog@@7B@
CONST	SEGMENT DWORD USE32 PUBLIC 'CONST'
CONST	ENDS
;	COMDAT ?classCConfigDialog@CConfigDialog@@2UCRuntimeClass@@B
CONST	SEGMENT DWORD USE32 PUBLIC 'CONST'
CONST	ENDS
;	COMDAT ??_7IData@@6B@
CONST	SEGMENT DWORD USE32 PUBLIC 'CONST'
CONST	ENDS
sxdata	SEGMENT DWORD USE32 'SXDATA'
sxdata	ENDS
FLAT	GROUP _DATA, CONST, _BSS, CRT$XCU
	ASSUME	CS: FLAT, DS: FLAT, SS: FLAT
endif

INCLUDELIB MSVCRT
INCLUDELIB OLDNAMES

PUBLIC	?g_hLastConfWnd@@3PAUHWND__@@A			; g_hLastConfWnd
PUBLIC	?classCConfigDialog@CConfigDialog@@2UCRuntimeClass@@B ; CConfigDialog::classCConfigDialog
PUBLIC	?messageMap@CConfigDialog@@1UAFX_MSGMAP@@B	; CConfigDialog::messageMap
EXTRN	?GetThisClass@CDialog@@SGPAUCRuntimeClass@@XZ:NEAR ; CDialog::GetThisClass
EXTRN	?GetThisMessageMap@CDialog@@KGPBUAFX_MSGMAP@@XZ:NEAR ; CDialog::GetThisMessageMap
_BSS	SEGMENT
?g_hLastConfWnd@@3PAUHWND__@@A DD 01H DUP (?)		; g_hLastConfWnd
_BSS	ENDS
CONST	SEGMENT
$SG198306 DB	'int', 00H
CONST	ENDS
_DATA	SEGMENT
_TYPE_CONFIG_INT DD FLAT:$SG198306
_DATA	ENDS
CONST	SEGMENT
$SG198308 DB	'str', 00H
CONST	ENDS
_DATA	SEGMENT
_TYPE_CONFIG_STR DD FLAT:$SG198308
_DATA	ENDS
CONST	SEGMENT
$SG198310 DB	'double', 00H
CONST	ENDS
_DATA	SEGMENT
_TYPE_CONFIG_DOUBLE DD FLAT:$SG198310
_DATA	ENDS
CONST	SEGMENT
	ORG $+1
$SG198312 DB	'bool', 00H
CONST	ENDS
_DATA	SEGMENT
_TYPE_CONFIG_BOOL DD FLAT:$SG198312
_DATA	ENDS
CONST	SEGMENT
	ORG $+3
$SG198314 DB	'sepint', 00H
CONST	ENDS
_DATA	SEGMENT
_TYPE_CONFIG_INT_HASSEP DD FLAT:$SG198314
_DATA	ENDS
CONST	SEGMENT
	ORG $+1
$SG198316 DB	'sepstr', 00H
CONST	ENDS
_DATA	SEGMENT
_TYPE_CONFIG_STR_HASSEP DD FLAT:$SG198316
_DATA	ENDS
CONST	SEGMENT
	ORG $+1
$SG198318 DB	'sepdouble', 00H
CONST	ENDS
_DATA	SEGMENT
_TYPE_CONFIG_DOUBLE_HASSEP DD FLAT:$SG198318
_DATA	ENDS
CONST	SEGMENT
	ORG $+2
$SG198320 DB	'sepbool', 00H
CONST	ENDS
_DATA	SEGMENT
_TYPE_CONFIG_BOOL_HASSEP DD FLAT:$SG198320
_DATA	ENDS
CONST	SEGMENT
$SG198322 DB	'Setting', 00H
CONST	ENDS
_DATA	SEGMENT
_CONF_SETTING_MODULE_NAME DD FLAT:$SG198322
_DATA	ENDS
CONST	SEGMENT
$SG198324 DB	'skin', 00H
CONST	ENDS
_DATA	SEGMENT
_CONF_SETTING_SKIN_IDX DD FLAT:$SG198324
_DATA	ENDS
CONST	SEGMENT
	ORG $+3
$SG198326 DB	'MainPage', 00H
CONST	ENDS
_DATA	SEGMENT
_CONF_SETTING_CONFIG_MAIN_PAGE DD FLAT:$SG198326
_DATA	ENDS
CONST	SEGMENT
	ORG $+3
$SG198328 DB	'ProblemReport', 00H
CONST	ENDS
_DATA	SEGMENT
_CONF_SETTING_CONFIG_PROBLEM_REPORT DD FLAT:$SG198328
_DATA	ENDS
CONST	SEGMENT
	ORG $+2
$SG198330 DB	'HomePage', 00H
CONST	ENDS
_DATA	SEGMENT
_CONF_SETTING_CONFIG_HOME_PAGE DD FLAT:$SG198330
_DATA	ENDS
CONST	SEGMENT
	ORG $+3
$SG198332 DB	'askexit', 00H
CONST	ENDS
_DATA	SEGMENT
_CONF_SETTING_CONFIG_IFASKEXIT DD FLAT:$SG198332
_DATA	ENDS
CONST	SEGMENT
$SG198334 DB	'exitchoice', 00H
CONST	ENDS
_DATA	SEGMENT
_CONF_SETTING_CONFIG_EXITCHOICE DD FLAT:$SG198334
_DATA	ENDS
CONST	SEGMENT
	ORG $+1
$SG198336 DB	'UN', 00H
CONST	ENDS
_DATA	SEGMENT
_CONF_SETTING_LOGIN_USER_NAME DD FLAT:$SG198336
_DATA	ENDS
CONST	SEGMENT
	ORG $+1
$SG198338 DB	'PW', 00H
CONST	ENDS
_DATA	SEGMENT
_CONF_SETTING_LOGIN_PASSWORD DD FLAT:$SG198338
_DATA	ENDS
CONST	SEGMENT
	ORG $+1
$SG198340 DB	'NetID', 00H
CONST	ENDS
_DATA	SEGMENT
_CONF_SETTING_NETID DD FLAT:$SG198340
_DATA	ENDS
CONST	SEGMENT
	ORG $+2
$SG198342 DB	'ChangeColorValue', 00H
CONST	ENDS
_DATA	SEGMENT
_CONF_SETTING_COLOR DD FLAT:$SG198342
_DATA	ENDS
CONST	SEGMENT
	ORG $+3
$SG198344 DB	'changeColorLight', 00H
CONST	ENDS
_DATA	SEGMENT
_CONF_SETTING_LIGHT DD FLAT:$SG198344
_DATA	ENDS
CONST	SEGMENT
	ORG $+3
$SG198346 DB	'ColorIndex', 00H
CONST	ENDS
_DATA	SEGMENT
_CONF_SETTING_COLOR_BTN_INDEX DD FLAT:$SG198346
_DATA	ENDS
CONST	SEGMENT
	ORG $+1
$SG198348 DB	'ColorUser', 00H
CONST	ENDS
_DATA	SEGMENT
_CONF_SETTING_COLOR_USER DD FLAT:$SG198348
_DATA	ENDS
CONST	SEGMENT
	ORG $+2
$SG198350 DB	'FirstTimeChangeSkin', 00H
CONST	ENDS
_DATA	SEGMENT
_CONF_SETTING_FIRST_TIME_CHANGESKIN DD FLAT:$SG198350
_DATA	ENDS
CONST	SEGMENT
$SG198405 DB	'CConfigDialog', 00H
CONST	ENDS
;	COMDAT ?classCConfigDialog@CConfigDialog@@2UCRuntimeClass@@B
CONST	SEGMENT
?classCConfigDialog@CConfigDialog@@2UCRuntimeClass@@B DD FLAT:$SG198405 ; CConfigDialog::classCConfigDialog
	DD	04ecH
	DD	0ffffH
	DD	00H
	DD	FLAT:?GetThisClass@CDialog@@SGPAUCRuntimeClass@@XZ
	DD	00H
	DD	00H
CONST	ENDS
;	COMDAT ?messageMap@CConfigDialog@@1UAFX_MSGMAP@@B
CONST	SEGMENT
?messageMap@CConfigDialog@@1UAFX_MSGMAP@@B DD FLAT:?GetThisMessageMap@CDialog@@KGPBUAFX_MSGMAP@@XZ ; CConfigDialog::messageMap
	DD	FLAT:?_messageEntries@CConfigDialog@@0QBUAFX_MSGMAP_ENTRY@@B
CONST	ENDS
CONST	SEGMENT
	ORG $+2
$SG198482 DB	0cfH, 0c2H, 0d4H, 0d8H, 00H
	ORG $+3
$SG198483 DB	0cfH, 0b5H, 0cdH, 0b3H, 00H
	ORG $+3
$SG198496 DB	'ConfigDlg', 00H
	ORG $+2
$SG198497 DB	'add', 00H
$SG198498 DB	'AddDlg.txt', 00H
	ORG $+1
$SG198513 DB	'ConfigDlg', 00H
	ORG $+2
$SG198514 DB	'remove', 00H
	ORG $+1
$SG198515 DB	'AddDlg.txt', 00H
	ORG $+1
$SG198544 DB	'SET_CHANGE:DEFAULT', 00H
	ORG $+1
$SG198545 DB	'SETTING', 00H
_ID_MESSAGE_APPEXIT DD 0dH
CONST	ENDS
PUBLIC	?GetThisClass@CConfigDialog@@SGPAUCRuntimeClass@@XZ ; CConfigDialog::GetThisClass
; Function compile flags: /Odt
; File d:\boxgit\playbox\playbox\dev\prj\playbox\src\appconfig\config\dlg\dlgconfig.cpp
_TEXT	SEGMENT
?GetThisClass@CConfigDialog@@SGPAUCRuntimeClass@@XZ PROC NEAR ; CConfigDialog::GetThisClass

; 12   : IMPLEMENT_DYNAMIC(CConfigDialog, CDialog)

  00000	55		 push	 ebp
  00001	8b ec		 mov	 ebp, esp
  00003	b8 00 00 00 00	 mov	 eax, OFFSET FLAT:?classCConfigDialog@CConfigDialog@@2UCRuntimeClass@@B ; CConfigDialog::classCConfigDialog
  00008	5d		 pop	 ebp
  00009	c3		 ret	 0
?GetThisClass@CConfigDialog@@SGPAUCRuntimeClass@@XZ ENDP ; CConfigDialog::GetThisClass
_TEXT	ENDS
PUBLIC	?GetRuntimeClass@CConfigDialog@@UBEPAUCRuntimeClass@@XZ ; CConfigDialog::GetRuntimeClass
; Function compile flags: /Odt
_TEXT	SEGMENT
_this$ = -4						; size = 4
?GetRuntimeClass@CConfigDialog@@UBEPAUCRuntimeClass@@XZ PROC NEAR ; CConfigDialog::GetRuntimeClass
; _this$ = ecx

; 12   : IMPLEMENT_DYNAMIC(CConfigDialog, CDialog)

  00010	55		 push	 ebp
  00011	8b ec		 mov	 ebp, esp
  00013	51		 push	 ecx
  00014	89 4d fc	 mov	 DWORD PTR _this$[ebp], ecx
  00017	b8 00 00 00 00	 mov	 eax, OFFSET FLAT:?classCConfigDialog@CConfigDialog@@2UCRuntimeClass@@B ; CConfigDialog::classCConfigDialog
  0001c	8b e5		 mov	 esp, ebp
  0001e	5d		 pop	 ebp
  0001f	c3		 ret	 0
?GetRuntimeClass@CConfigDialog@@UBEPAUCRuntimeClass@@XZ ENDP ; CConfigDialog::GetRuntimeClass
_TEXT	ENDS
PUBLIC	?Create@CDialog@@UAEHIPAVCWnd@@@Z		; CDialog::Create
PUBLIC	??_R1A@?0A@A@CObject@@8				; CObject::`RTTI Base Class Descriptor at (0,-1,0,0)'
PUBLIC	??_R0?AVCObject@@@8				; CObject `RTTI Type Descriptor'
PUBLIC	??_R1A@?0A@A@CWnd@@8				; CWnd::`RTTI Base Class Descriptor at (0,-1,0,0)'
PUBLIC	??_R0?AVCWnd@@@8				; CWnd `RTTI Type Descriptor'
PUBLIC	??_R1A@?0A@A@CCmdTarget@@8			; CCmdTarget::`RTTI Base Class Descriptor at (0,-1,0,0)'
PUBLIC	??_R0?AVCCmdTarget@@@8				; CCmdTarget `RTTI Type Descriptor'
PUBLIC	??_R1A@?0A@A@CDialog@@8				; CDialog::`RTTI Base Class Descriptor at (0,-1,0,0)'
PUBLIC	??_R0?AVCDialog@@@8				; CDialog `RTTI Type Descriptor'
PUBLIC	??_R0?AVIMessageObserver@@@8			; IMessageObserver `RTTI Type Descriptor'
PUBLIC	?Serialize@CObject@@UAEXAAVCArchive@@@Z		; CObject::Serialize
PUBLIC	?AssertValid@CObject@@UBEXXZ			; CObject::AssertValid
PUBLIC	?Dump@CObject@@UBEXAAVCDumpContext@@@Z		; CObject::Dump
PUBLIC	??0?$map@HPAVBaseDialog@@U?$less@H@std@@V?$allocator@U?$pair@$$CBHPAVBaseDialog@@@std@@@3@@std@@QAE@XZ ; std::map<int,BaseDialog *,std::less<int>,std::allocator<std::pair<int const ,BaseDialog *> > >::map<int,BaseDialog *,std::less<int>,std::allocator<std::pair<int const ,BaseDialog *> > >
PUBLIC	??_R4CConfigDialog@@6B@				; CConfigDialog::`RTTI Complete Object Locator'
PUBLIC	??_R0?AVCConfigDialog@@@8			; CConfigDialog `RTTI Type Descriptor'
PUBLIC	??_R3CConfigDialog@@8				; CConfigDialog::`RTTI Class Hierarchy Descriptor'
PUBLIC	??_R2CConfigDialog@@8				; CConfigDialog::`RTTI Base Class Array'
PUBLIC	??_R1A@?0A@A@CConfigDialog@@8			; CConfigDialog::`RTTI Base Class Descriptor at (0,-1,0,0)'
PUBLIC	??_R1HE@?0A@A@IAppExitObserver@@8		; IAppExitObserver::`RTTI Base Class Descriptor at (116,-1,0,0)'
PUBLIC	??_R0?AVIAppExitObserver@@@8			; IAppExitObserver `RTTI Type Descriptor'
PUBLIC	??_R1A@HI@3BA@IMessageObserver@@8		; IMessageObserver::`RTTI Base Class Descriptor at (0,120,4,16)'
PUBLIC	??_R4CConfigDialog@@6BIAppExitObserver@@@	; CConfigDialog::`RTTI Complete Object Locator'
PUBLIC	??_ECConfigDialog@@WEOI@AEPAXI@Z		; [thunk]:CConfigDialog::`vector deleting destructor'
PUBLIC	??_R4CConfigDialog@@6BIMessageObserver@@@	; CConfigDialog::`RTTI Complete Object Locator'
PUBLIC	??0CConfigDialog@@QAE@HPAVCWnd@@@Z		; CConfigDialog::CConfigDialog
PUBLIC	?DoDataExchange@CConfigDialog@@MAEXPAVCDataExchange@@@Z ; CConfigDialog::DoDataExchange
PUBLIC	?GetMessageMap@CConfigDialog@@MBEPBUAFX_MSGMAP@@XZ ; CConfigDialog::GetMessageMap
PUBLIC	?OnInitDialog@CConfigDialog@@MAEHXZ		; CConfigDialog::OnInitDialog
PUBLIC	?IAppExit@CConfigDialog@@MAEXXZ			; CConfigDialog::IAppExit
PUBLIC	??_7CConfigDialog@@6B@				; CConfigDialog::`vftable'
PUBLIC	??_7CConfigDialog@@6BIAppExitObserver@@@	; CConfigDialog::`vftable'
PUBLIC	??_7CConfigDialog@@6BIMessageObserver@@@	; CConfigDialog::`vftable'
PUBLIC	??_8CConfigDialog@@7B@				; CConfigDialog::`vbtable'
PUBLIC	??_GCConfigDialog@@UAEPAXI@Z			; CConfigDialog::`scalar deleting destructor'
PUBLIC	?BeginModalState@CWnd@@UAEXXZ			; CWnd::BeginModalState
PUBLIC	?EndModalState@CWnd@@UAEXXZ			; CWnd::EndModalState
PUBLIC	??1IMessageObserver@@UAE@XZ			; IMessageObserver::~IMessageObserver
PUBLIC	??0IMessageObserver@@QAE@XZ			; IMessageObserver::IMessageObserver
PUBLIC	??0IAppExitObserver@@QAE@XZ			; IAppExitObserver::IAppExitObserver
PUBLIC	??1IAppExitObserver@@UAE@XZ			; IAppExitObserver::~IAppExitObserver
EXTRN	?CreateControlContainer@CWnd@@MAEHPAPAVCOleControlContainer@@@Z:NEAR ; CWnd::CreateControlContainer
EXTRN	?CreateControlSite@CWnd@@MAEHPAVCOleControlContainer@@PAPAVCOleControlSite@@IABU_GUID@@@Z:NEAR ; CWnd::CreateControlSite
EXTRN	__except_list:DWORD
EXTRN	___CxxFrameHandler:NEAR
EXTRN	?Create@CDialog@@UAEHPBDPAVCWnd@@@Z:NEAR	; CDialog::Create
EXTRN	?CreateIndirect@CDialog@@UAEHPBUDLGTEMPLATE@@PAVCWnd@@PAX@Z:NEAR ; CDialog::CreateIndirect
EXTRN	?CreateIndirect@CDialog@@UAEHPAXPAVCWnd@@@Z:NEAR ; CDialog::CreateIndirect
EXTRN	?OnToolHitTest@CWnd@@UBEHVCPoint@@PAUtagTOOLINFOA@@@Z:NEAR ; CWnd::OnToolHitTest
EXTRN	??0CDialog@@QAE@IPAVCWnd@@@Z:NEAR		; CDialog::CDialog
EXTRN	?DoModal@CDialog@@UAEHXZ:NEAR			; CDialog::DoModal
EXTRN	?OnSetFont@CDialog@@UAEXPAVCFont@@@Z:NEAR	; CDialog::OnSetFont
EXTRN	?OnOK@CDialog@@MAEXXZ:NEAR			; CDialog::OnOK
EXTRN	?OnCancel@CDialog@@MAEXXZ:NEAR			; CDialog::OnCancel
EXTRN	??1CDialog@@UAE@XZ:NEAR				; CDialog::~CDialog
EXTRN	?PreTranslateMessage@CDialog@@UAEHPAUtagMSG@@@Z:NEAR ; CDialog::PreTranslateMessage
EXTRN	?OnCmdMsg@CDialog@@UAEHIHPAXPAUAFX_CMDHANDLERINFO@@@Z:NEAR ; CDialog::OnCmdMsg
EXTRN	?CheckAutoCenter@CDialog@@UAEHXZ:NEAR		; CDialog::CheckAutoCenter
EXTRN	?SetOccDialogInfo@CDialog@@MAEHPAU_AFX_OCC_DIALOG_INFO@@@Z:NEAR ; CDialog::SetOccDialogInfo
EXTRN	?PreInitDialog@CDialog@@MAEXXZ:NEAR		; CDialog::PreInitDialog
EXTRN	?GetScrollBarCtrl@CWnd@@UBEPAVCScrollBar@@H@Z:NEAR ; CWnd::GetScrollBarCtrl
EXTRN	?WinHelpA@CWnd@@UAEXKI@Z:NEAR			; CWnd::WinHelpA
EXTRN	?HtmlHelpA@CWnd@@UAEXKI@Z:NEAR			; CWnd::HtmlHelpA
EXTRN	?WinHelpInternal@CWnd@@UAEXKI@Z:NEAR		; CWnd::WinHelpInternal
EXTRN	?ContinueModal@CWnd@@UAEHXZ:NEAR		; CWnd::ContinueModal
EXTRN	?EndModalLoop@CWnd@@UAEXH@Z:NEAR		; CWnd::EndModalLoop
EXTRN	?GetInterfaceMap@CWnd@@MBEPBUAFX_INTERFACEMAP@@XZ:NEAR ; CWnd::GetInterfaceMap
EXTRN	?EnsureStdObj@CWnd@@UAEJXZ:NEAR			; CWnd::EnsureStdObj
EXTRN	?get_accParent@CWnd@@UAEJPAPAUIDispatch@@@Z:NEAR ; CWnd::get_accParent
EXTRN	?get_accChildCount@CWnd@@UAEJPAJ@Z:NEAR		; CWnd::get_accChildCount
EXTRN	?get_accChild@CWnd@@UAEJUtagVARIANT@@PAPAUIDispatch@@@Z:NEAR ; CWnd::get_accChild
EXTRN	?IsInvokeAllowed@CCmdTarget@@UAEHJ@Z:NEAR	; CCmdTarget::IsInvokeAllowed
EXTRN	?get_accName@CWnd@@UAEJUtagVARIANT@@PAPA_W@Z:NEAR ; CWnd::get_accName
EXTRN	?get_accValue@CWnd@@UAEJUtagVARIANT@@PAPA_W@Z:NEAR ; CWnd::get_accValue
EXTRN	?get_accDescription@CWnd@@UAEJUtagVARIANT@@PAPA_W@Z:NEAR ; CWnd::get_accDescription
EXTRN	?GetDispatchIID@CCmdTarget@@UAEHPAU_GUID@@@Z:NEAR ; CCmdTarget::GetDispatchIID
EXTRN	?GetTypeInfoCount@CCmdTarget@@UAEIXZ:NEAR	; CCmdTarget::GetTypeInfoCount
EXTRN	?GetTypeLibCache@CCmdTarget@@UAEPAVCTypeLibCache@@XZ:NEAR ; CCmdTarget::GetTypeLibCache
EXTRN	?get_accRole@CWnd@@UAEJUtagVARIANT@@PAU2@@Z:NEAR ; CWnd::get_accRole
EXTRN	?GetTypeLib@CCmdTarget@@UAEJKPAPAUITypeLib@@@Z:NEAR ; CCmdTarget::GetTypeLib
EXTRN	?get_accState@CWnd@@UAEJUtagVARIANT@@PAU2@@Z:NEAR ; CWnd::get_accState
EXTRN	?get_accHelp@CWnd@@UAEJUtagVARIANT@@PAPA_W@Z:NEAR ; CWnd::get_accHelp
EXTRN	?get_accHelpTopic@CWnd@@UAEJPAPA_WUtagVARIANT@@PAJ@Z:NEAR ; CWnd::get_accHelpTopic
EXTRN	?get_accKeyboardShortcut@CWnd@@UAEJUtagVARIANT@@PAPA_W@Z:NEAR ; CWnd::get_accKeyboardShortcut
EXTRN	?get_accFocus@CWnd@@UAEJPAUtagVARIANT@@@Z:NEAR	; CWnd::get_accFocus
EXTRN	?get_accSelection@CWnd@@UAEJPAUtagVARIANT@@@Z:NEAR ; CWnd::get_accSelection
EXTRN	?get_accDefaultAction@CWnd@@UAEJUtagVARIANT@@PAPA_W@Z:NEAR ; CWnd::get_accDefaultAction
EXTRN	?GetCommandMap@CCmdTarget@@MBEPBUAFX_OLECMDMAP@@XZ:NEAR ; CCmdTarget::GetCommandMap
EXTRN	?accSelect@CWnd@@UAEJJUtagVARIANT@@@Z:NEAR	; CWnd::accSelect
EXTRN	?accLocation@CWnd@@UAEJPAJ000UtagVARIANT@@@Z:NEAR ; CWnd::accLocation
EXTRN	?GetDispatchMap@CCmdTarget@@MBEPBUAFX_DISPMAP@@XZ:NEAR ; CCmdTarget::GetDispatchMap
EXTRN	?accNavigate@CWnd@@UAEJJUtagVARIANT@@PAU2@@Z:NEAR ; CWnd::accNavigate
EXTRN	?accHitTest@CWnd@@UAEJJJPAUtagVARIANT@@@Z:NEAR	; CWnd::accHitTest
EXTRN	?GetConnectionMap@CCmdTarget@@MBEPBUAFX_CONNECTIONMAP@@XZ:NEAR ; CCmdTarget::GetConnectionMap
EXTRN	?accDoDefaultAction@CWnd@@UAEJUtagVARIANT@@@Z:NEAR ; CWnd::accDoDefaultAction
EXTRN	?put_accName@CWnd@@UAEJUtagVARIANT@@PA_W@Z:NEAR	; CWnd::put_accName
EXTRN	?put_accValue@CWnd@@UAEJUtagVARIANT@@PA_W@Z:NEAR ; CWnd::put_accValue
EXTRN	?SetProxy@CWnd@@UAEJPAUIAccessibleProxy@@@Z:NEAR ; CWnd::SetProxy
EXTRN	?CreateAccessibleProxy@CWnd@@UAEJIJPAJ@Z:NEAR	; CWnd::CreateAccessibleProxy
EXTRN	?GetEventSinkMap@CCmdTarget@@MBEPBUAFX_EVENTSINKMAP@@XZ:NEAR ; CCmdTarget::GetEventSinkMap
EXTRN	?OnCreateAggregates@CCmdTarget@@UAEHXZ:NEAR	; CCmdTarget::OnCreateAggregates
EXTRN	?OnCommand@CWnd@@MAEHIJ@Z:NEAR			; CWnd::OnCommand
EXTRN	?GetInterfaceHook@CCmdTarget@@UAEPAUIUnknown@@PBX@Z:NEAR ; CCmdTarget::GetInterfaceHook
EXTRN	?OnNotify@CWnd@@MAEHIJPAJ@Z:NEAR		; CWnd::OnNotify
EXTRN	??_ECConfigDialog@@UAEPAXI@Z:NEAR		; CConfigDialog::`vector deleting destructor'
EXTRN	?GetExtraConnectionPoints@CCmdTarget@@MAEHPAVCPtrArray@@@Z:NEAR ; CCmdTarget::GetExtraConnectionPoints
EXTRN	?GetConnectionHook@CCmdTarget@@MAEPAUIConnectionPoint@@ABU_GUID@@@Z:NEAR ; CCmdTarget::GetConnectionHook
EXTRN	?PreSubclassWindow@CWnd@@UAEXXZ:NEAR		; CWnd::PreSubclassWindow
EXTRN	?Create@CWnd@@UAEHPBD0KABUtagRECT@@PAV1@IPAUCCreateContext@@@Z:NEAR ; CWnd::Create
EXTRN	?CreateEx@CWnd@@UAEHKPBD0KHHHHPAUHWND__@@PAUHMENU__@@PAX@Z:NEAR ; CWnd::CreateEx
EXTRN	?CreateEx@CWnd@@UAEHKPBD0KABUtagRECT@@PAV1@IPAX@Z:NEAR ; CWnd::CreateEx
EXTRN	??0CDownDialog@@QAE@PAVCWnd@@@Z:NEAR		; CDownDialog::CDownDialog
EXTRN	??1CDownDialog@@UAE@XZ:NEAR			; CDownDialog::~CDownDialog
EXTRN	?DestroyWindow@CWnd@@UAEHXZ:NEAR		; CWnd::DestroyWindow
EXTRN	?PreCreateWindow@CWnd@@UAEHAAUtagCREATESTRUCTA@@@Z:NEAR ; CWnd::PreCreateWindow
EXTRN	?CalcWindowRect@CWnd@@UAEXPAUtagRECT@@I@Z:NEAR	; CWnd::CalcWindowRect
EXTRN	??0CSysDialog@@QAE@PAVCWnd@@@Z:NEAR		; CSysDialog::CSysDialog
EXTRN	??1CSysDialog@@UAE@XZ:NEAR			; CSysDialog::~CSysDialog
EXTRN	?GetSuperWndProcAddr@CWnd@@MAEPAP6GJPAUHWND__@@IIJ@ZXZ:NEAR ; CWnd::GetSuperWndProcAddr
EXTRN	??_7type_info@@6B@:QWORD			; type_info::`vftable'
EXTRN	?OnAmbientProperty@CWnd@@UAEHPAVCOleControlSite@@JPAUtagVARIANT@@@Z:NEAR ; CWnd::OnAmbientProperty
EXTRN	?WindowProc@CWnd@@MAEJIIJ@Z:NEAR		; CWnd::WindowProc
EXTRN	?OnWndMsg@CWnd@@MAEHIIJPAJ@Z:NEAR		; CWnd::OnWndMsg
EXTRN	?DefWindowProcA@CWnd@@MAEJIIJ@Z:NEAR		; CWnd::DefWindowProcA
EXTRN	?PostNcDestroy@CWnd@@MAEXXZ:NEAR		; CWnd::PostNcDestroy
EXTRN	?OnChildNotify@CWnd@@MAEHIIJPAJ@Z:NEAR		; CWnd::OnChildNotify
EXTRN	?IsFrameWnd@CWnd@@UBEHXZ:NEAR			; CWnd::IsFrameWnd
EXTRN	?OnFinalRelease@CWnd@@UAEXXZ:NEAR		; CWnd::OnFinalRelease
xdata$x	SEGMENT
$T199784 DD	0ffffffffH
	DD	FLAT:$L199771
	DD	00H
	DD	FLAT:$L199773
	DD	01H
	DD	FLAT:$L199774
	DD	02H
	DD	FLAT:$L199775
	DD	03H
	DD	FLAT:$L199776
$T199781 DD	019930520H
	DD	05H
	DD	FLAT:$T199784
	DD	2 DUP(00H)
	DD	2 DUP(00H)
xdata$x	ENDS
;	COMDAT ??_8CConfigDialog@@7B@
CONST	SEGMENT
??_8CConfigDialog@@7B@ DD 0fffffffcH			; CConfigDialog::`vbtable'
	DD	0470H
CONST	ENDS
;	COMDAT ??_7CConfigDialog@@6B@
CONST	SEGMENT
??_7CConfigDialog@@6B@ DD FLAT:??_R4CConfigDialog@@6B@	; CConfigDialog::`vftable'
	DD	FLAT:?GetRuntimeClass@CConfigDialog@@UBEPAUCRuntimeClass@@XZ
	DD	FLAT:??_ECConfigDialog@@UAEPAXI@Z
	DD	FLAT:?Serialize@CObject@@UAEXAAVCArchive@@@Z
	DD	FLAT:?AssertValid@CObject@@UBEXXZ
	DD	FLAT:?Dump@CObject@@UBEXAAVCDumpContext@@@Z
	DD	FLAT:?OnCmdMsg@CDialog@@UAEHIHPAXPAUAFX_CMDHANDLERINFO@@@Z
	DD	FLAT:?OnFinalRelease@CWnd@@UAEXXZ
	DD	FLAT:?IsInvokeAllowed@CCmdTarget@@UAEHJ@Z
	DD	FLAT:?GetDispatchIID@CCmdTarget@@UAEHPAU_GUID@@@Z
	DD	FLAT:?GetTypeInfoCount@CCmdTarget@@UAEIXZ
	DD	FLAT:?GetTypeLibCache@CCmdTarget@@UAEPAVCTypeLibCache@@XZ
	DD	FLAT:?GetTypeLib@CCmdTarget@@UAEJKPAPAUITypeLib@@@Z
	DD	FLAT:?GetMessageMap@CConfigDialog@@MBEPBUAFX_MSGMAP@@XZ
	DD	FLAT:?GetCommandMap@CCmdTarget@@MBEPBUAFX_OLECMDMAP@@XZ
	DD	FLAT:?GetDispatchMap@CCmdTarget@@MBEPBUAFX_DISPMAP@@XZ
	DD	FLAT:?GetConnectionMap@CCmdTarget@@MBEPBUAFX_CONNECTIONMAP@@XZ
	DD	FLAT:?GetInterfaceMap@CWnd@@MBEPBUAFX_INTERFACEMAP@@XZ
	DD	FLAT:?GetEventSinkMap@CCmdTarget@@MBEPBUAFX_EVENTSINKMAP@@XZ
	DD	FLAT:?OnCreateAggregates@CCmdTarget@@UAEHXZ
	DD	FLAT:?GetInterfaceHook@CCmdTarget@@UAEPAUIUnknown@@PBX@Z
	DD	FLAT:?GetExtraConnectionPoints@CCmdTarget@@MAEHPAVCPtrArray@@@Z
	DD	FLAT:?GetConnectionHook@CCmdTarget@@MAEPAUIConnectionPoint@@ABU_GUID@@@Z
	DD	FLAT:?PreSubclassWindow@CWnd@@UAEXXZ
	DD	FLAT:?Create@CWnd@@UAEHPBD0KABUtagRECT@@PAV1@IPAUCCreateContext@@@Z
	DD	FLAT:?CreateEx@CWnd@@UAEHKPBD0KABUtagRECT@@PAV1@IPAX@Z
	DD	FLAT:?CreateEx@CWnd@@UAEHKPBD0KHHHHPAUHWND__@@PAUHMENU__@@PAX@Z
	DD	FLAT:?DestroyWindow@CWnd@@UAEHXZ
	DD	FLAT:?PreCreateWindow@CWnd@@UAEHAAUtagCREATESTRUCTA@@@Z
	DD	FLAT:?CalcWindowRect@CWnd@@UAEXPAUtagRECT@@I@Z
	DD	FLAT:?OnToolHitTest@CWnd@@UBEHVCPoint@@PAUtagTOOLINFOA@@@Z
	DD	FLAT:?GetScrollBarCtrl@CWnd@@UBEPAVCScrollBar@@H@Z
	DD	FLAT:?WinHelpA@CWnd@@UAEXKI@Z
	DD	FLAT:?HtmlHelpA@CWnd@@UAEXKI@Z
	DD	FLAT:?WinHelpInternal@CWnd@@UAEXKI@Z
	DD	FLAT:?ContinueModal@CWnd@@UAEHXZ
	DD	FLAT:?EndModalLoop@CWnd@@UAEXH@Z
	DD	FLAT:?EnsureStdObj@CWnd@@UAEJXZ
	DD	FLAT:?get_accParent@CWnd@@UAEJPAPAUIDispatch@@@Z
	DD	FLAT:?get_accChildCount@CWnd@@UAEJPAJ@Z
	DD	FLAT:?get_accChild@CWnd@@UAEJUtagVARIANT@@PAPAUIDispatch@@@Z
	DD	FLAT:?get_accName@CWnd@@UAEJUtagVARIANT@@PAPA_W@Z
	DD	FLAT:?get_accValue@CWnd@@UAEJUtagVARIANT@@PAPA_W@Z
	DD	FLAT:?get_accDescription@CWnd@@UAEJUtagVARIANT@@PAPA_W@Z
	DD	FLAT:?get_accRole@CWnd@@UAEJUtagVARIANT@@PAU2@@Z
	DD	FLAT:?get_accState@CWnd@@UAEJUtagVARIANT@@PAU2@@Z
	DD	FLAT:?get_accHelp@CWnd@@UAEJUtagVARIANT@@PAPA_W@Z
	DD	FLAT:?get_accHelpTopic@CWnd@@UAEJPAPA_WUtagVARIANT@@PAJ@Z
	DD	FLAT:?get_accKeyboardShortcut@CWnd@@UAEJUtagVARIANT@@PAPA_W@Z
	DD	FLAT:?get_accFocus@CWnd@@UAEJPAUtagVARIANT@@@Z
	DD	FLAT:?get_accSelection@CWnd@@UAEJPAUtagVARIANT@@@Z
	DD	FLAT:?get_accDefaultAction@CWnd@@UAEJUtagVARIANT@@PAPA_W@Z
	DD	FLAT:?accSelect@CWnd@@UAEJJUtagVARIANT@@@Z
	DD	FLAT:?accLocation@CWnd@@UAEJPAJ000UtagVARIANT@@@Z
	DD	FLAT:?accNavigate@CWnd@@UAEJJUtagVARIANT@@PAU2@@Z
	DD	FLAT:?accHitTest@CWnd@@UAEJJJPAUtagVARIANT@@@Z
	DD	FLAT:?accDoDefaultAction@CWnd@@UAEJUtagVARIANT@@@Z
	DD	FLAT:?put_accName@CWnd@@UAEJUtagVARIANT@@PA_W@Z
	DD	FLAT:?put_accValue@CWnd@@UAEJUtagVARIANT@@PA_W@Z
	DD	FLAT:?SetProxy@CWnd@@UAEJPAUIAccessibleProxy@@@Z
	DD	FLAT:?CreateAccessibleProxy@CWnd@@UAEJIJPAJ@Z
	DD	FLAT:?OnCommand@CWnd@@MAEHIJ@Z
	DD	FLAT:?OnNotify@CWnd@@MAEHIJPAJ@Z
	DD	FLAT:?GetSuperWndProcAddr@CWnd@@MAEPAP6GJPAUHWND__@@IIJ@ZXZ
	DD	FLAT:?DoDataExchange@CConfigDialog@@MAEXPAVCDataExchange@@@Z
	DD	FLAT:?BeginModalState@CWnd@@UAEXXZ
	DD	FLAT:?EndModalState@CWnd@@UAEXXZ
	DD	FLAT:?PreTranslateMessage@CDialog@@UAEHPAUtagMSG@@@Z
	DD	FLAT:?OnAmbientProperty@CWnd@@UAEHPAVCOleControlSite@@JPAUtagVARIANT@@@Z
	DD	FLAT:?WindowProc@CWnd@@MAEJIIJ@Z
	DD	FLAT:?OnWndMsg@CWnd@@MAEHIIJPAJ@Z
	DD	FLAT:?DefWindowProcA@CWnd@@MAEJIIJ@Z
	DD	FLAT:?PostNcDestroy@CWnd@@MAEXXZ
	DD	FLAT:?OnChildNotify@CWnd@@MAEHIIJPAJ@Z
	DD	FLAT:?CheckAutoCenter@CDialog@@UAEHXZ
	DD	FLAT:?IsFrameWnd@CWnd@@UBEHXZ
	DD	FLAT:?CreateControlContainer@CWnd@@MAEHPAPAVCOleControlContainer@@@Z
	DD	FLAT:?CreateControlSite@CWnd@@MAEHPAVCOleControlContainer@@PAPAVCOleControlSite@@IABU_GUID@@@Z
	DD	FLAT:?SetOccDialogInfo@CDialog@@MAEHPAU_AFX_OCC_DIALOG_INFO@@@Z
	DD	FLAT:?Create@CDialog@@UAEHIPAVCWnd@@@Z
	DD	FLAT:?Create@CDialog@@UAEHPBDPAVCWnd@@@Z
	DD	FLAT:?CreateIndirect@CDialog@@UAEHPAXPAVCWnd@@@Z
	DD	FLAT:?CreateIndirect@CDialog@@UAEHPBUDLGTEMPLATE@@PAVCWnd@@PAX@Z
	DD	FLAT:?DoModal@CDialog@@UAEHXZ
	DD	FLAT:?OnInitDialog@CConfigDialog@@MAEHXZ
	DD	FLAT:?OnSetFont@CDialog@@UAEXPAVCFont@@@Z
	DD	FLAT:?OnOK@CDialog@@MAEXXZ
	DD	FLAT:?OnCancel@CDialog@@MAEXXZ
	DD	FLAT:?PreInitDialog@CDialog@@MAEXXZ
CONST	ENDS
;	COMDAT ??_7CConfigDialog@@6BIAppExitObserver@@@
CONST	SEGMENT
??_7CConfigDialog@@6BIAppExitObserver@@@ DD FLAT:??_R4CConfigDialog@@6BIAppExitObserver@@@ ; CConfigDialog::`vftable'
	DD	FLAT:?IAppExit@CConfigDialog@@MAEXXZ
CONST	ENDS
;	COMDAT ??_7CConfigDialog@@6BIMessageObserver@@@
CONST	SEGMENT
??_7CConfigDialog@@6BIMessageObserver@@@ DD FLAT:??_R4CConfigDialog@@6BIMessageObserver@@@ ; CConfigDialog::`vftable'
	DD	FLAT:??_ECConfigDialog@@WEOI@AEPAXI@Z
CONST	ENDS
;	COMDAT ??_R4CConfigDialog@@6B@
rdata$r	SEGMENT
??_R4CConfigDialog@@6B@ DD 00H				; CConfigDialog::`RTTI Complete Object Locator'
	DD	00H
	DD	00H
	DD	FLAT:??_R0?AVCConfigDialog@@@8
	DD	FLAT:??_R3CConfigDialog@@8
rdata$r	ENDS
;	COMDAT ??_R0?AVCConfigDialog@@@8
_DATA	SEGMENT
??_R0?AVCConfigDialog@@@8 DD FLAT:??_7type_info@@6B@	; CConfigDialog `RTTI Type Descriptor'
	DD	00H
	DB	'.?AVCConfigDialog@@', 00H
_DATA	ENDS
;	COMDAT ??_R3CConfigDialog@@8
rdata$r	SEGMENT
??_R3CConfigDialog@@8 DD 00H				; CConfigDialog::`RTTI Class Hierarchy Descriptor'
	DD	03H
	DD	07H
	DD	FLAT:??_R2CConfigDialog@@8
rdata$r	ENDS
;	COMDAT ??_R2CConfigDialog@@8
rdata$r	SEGMENT
??_R2CConfigDialog@@8 DD FLAT:??_R1A@?0A@A@CConfigDialog@@8 ; CConfigDialog::`RTTI Base Class Array'
	DD	FLAT:??_R1A@?0A@A@CDialog@@8
	DD	FLAT:??_R1A@?0A@A@CWnd@@8
	DD	FLAT:??_R1A@?0A@A@CCmdTarget@@8
	DD	FLAT:??_R1A@?0A@A@CObject@@8
	DD	FLAT:??_R1HE@?0A@A@IAppExitObserver@@8
	DD	FLAT:??_R1A@HI@3BA@IMessageObserver@@8
rdata$r	ENDS
;	COMDAT ??_R1A@?0A@A@CConfigDialog@@8
rdata$r	SEGMENT
??_R1A@?0A@A@CConfigDialog@@8 DD FLAT:??_R0?AVCConfigDialog@@@8 ; CConfigDialog::`RTTI Base Class Descriptor at (0,-1,0,0)'
	DD	06H
	DD	00H
	DD	0ffffffffH
	DD	00H
	DD	00H
rdata$r	ENDS
;	COMDAT ??_R1A@?0A@A@CDialog@@8
rdata$r	SEGMENT
??_R1A@?0A@A@CDialog@@8 DD FLAT:??_R0?AVCDialog@@@8	; CDialog::`RTTI Base Class Descriptor at (0,-1,0,0)'
	DD	03H
	DD	00H
	DD	0ffffffffH
	DD	00H
	DD	00H
rdata$r	ENDS
;	COMDAT ??_R0?AVCDialog@@@8
_DATA	SEGMENT
??_R0?AVCDialog@@@8 DD FLAT:??_7type_info@@6B@		; CDialog `RTTI Type Descriptor'
	DD	00H
	DB	'.?AVCDialog@@', 00H
_DATA	ENDS
;	COMDAT ??_R1A@?0A@A@CWnd@@8
rdata$r	SEGMENT
??_R1A@?0A@A@CWnd@@8 DD FLAT:??_R0?AVCWnd@@@8		; CWnd::`RTTI Base Class Descriptor at (0,-1,0,0)'
	DD	02H
	DD	00H
	DD	0ffffffffH
	DD	00H
	DD	00H
rdata$r	ENDS
;	COMDAT ??_R0?AVCWnd@@@8
_DATA	SEGMENT
??_R0?AVCWnd@@@8 DD FLAT:??_7type_info@@6B@		; CWnd `RTTI Type Descriptor'
	DD	00H
	DB	'.?AVCWnd@@', 00H
_DATA	ENDS
;	COMDAT ??_R1A@?0A@A@CCmdTarget@@8
rdata$r	SEGMENT
??_R1A@?0A@A@CCmdTarget@@8 DD FLAT:??_R0?AVCCmdTarget@@@8 ; CCmdTarget::`RTTI Base Class Descriptor at (0,-1,0,0)'
	DD	01H
	DD	00H
	DD	0ffffffffH
	DD	00H
	DD	00H
rdata$r	ENDS
;	COMDAT ??_R0?AVCCmdTarget@@@8
_DATA	SEGMENT
??_R0?AVCCmdTarget@@@8 DD FLAT:??_7type_info@@6B@	; CCmdTarget `RTTI Type Descriptor'
	DD	00H
	DB	'.?AVCCmdTarget@@', 00H
_DATA	ENDS
;	COMDAT ??_R1A@?0A@A@CObject@@8
rdata$r	SEGMENT
??_R1A@?0A@A@CObject@@8 DD FLAT:??_R0?AVCObject@@@8	; CObject::`RTTI Base Class Descriptor at (0,-1,0,0)'
	DD	00H
	DD	00H
	DD	0ffffffffH
	DD	00H
	DD	00H
rdata$r	ENDS
;	COMDAT ??_R0?AVCObject@@@8
_DATA	SEGMENT
??_R0?AVCObject@@@8 DD FLAT:??_7type_info@@6B@		; CObject `RTTI Type Descriptor'
	DD	00H
	DB	'.?AVCObject@@', 00H
_DATA	ENDS
;	COMDAT ??_R1HE@?0A@A@IAppExitObserver@@8
rdata$r	SEGMENT
??_R1HE@?0A@A@IAppExitObserver@@8 DD FLAT:??_R0?AVIAppExitObserver@@@8 ; IAppExitObserver::`RTTI Base Class Descriptor at (116,-1,0,0)'
	DD	01H
	DD	074H
	DD	0ffffffffH
	DD	00H
	DD	00H
rdata$r	ENDS
;	COMDAT ??_R0?AVIAppExitObserver@@@8
_DATA	SEGMENT
??_R0?AVIAppExitObserver@@@8 DD FLAT:??_7type_info@@6B@	; IAppExitObserver `RTTI Type Descriptor'
	DD	00H
	DB	'.?AVIAppExitObserver@@', 00H
_DATA	ENDS
;	COMDAT ??_R1A@HI@3BA@IMessageObserver@@8
rdata$r	SEGMENT
??_R1A@HI@3BA@IMessageObserver@@8 DD FLAT:??_R0?AVIMessageObserver@@@8 ; IMessageObserver::`RTTI Base Class Descriptor at (0,120,4,16)'
	DD	00H
	DD	00H
	DD	078H
	DD	04H
	DD	010H
rdata$r	ENDS
;	COMDAT ??_R0?AVIMessageObserver@@@8
_DATA	SEGMENT
??_R0?AVIMessageObserver@@@8 DD FLAT:??_7type_info@@6B@	; IMessageObserver `RTTI Type Descriptor'
	DD	00H
	DB	'.?AVIMessageObserver@@', 00H
	ORG $-31
	DD	FLAT:??_7type_info@@6B@
	DD	00H
	DB	'.?AVIMessageObserver@@', 00H
_DATA	ENDS
;	COMDAT ??_R4CConfigDialog@@6BIAppExitObserver@@@
rdata$r	SEGMENT
??_R4CConfigDialog@@6BIAppExitObserver@@@ DD 00H	; CConfigDialog::`RTTI Complete Object Locator'
	DD	074H
	DD	00H
	DD	FLAT:??_R0?AVCConfigDialog@@@8
	DD	FLAT:??_R3CConfigDialog@@8
rdata$r	ENDS
;	COMDAT ??_R4CConfigDialog@@6BIMessageObserver@@@
rdata$r	SEGMENT
??_R4CConfigDialog@@6BIMessageObserver@@@ DD 00H	; CConfigDialog::`RTTI Complete Object Locator'
	DD	04e8H
	DD	00H
	DD	FLAT:??_R0?AVCConfigDialog@@@8
	DD	FLAT:??_R3CConfigDialog@@8
; Function compile flags: /Odt
rdata$r	ENDS
_TEXT	SEGMENT
_this$ = -20						; size = 4
$T199770 = -16						; size = 4
__$EHRec$ = -12						; size = 12
_iShowIdx$ = 8						; size = 4
_pParent$ = 12						; size = 4
_$initVBases$ = 16					; size = 4
??0CConfigDialog@@QAE@HPAVCWnd@@@Z PROC NEAR		; CConfigDialog::CConfigDialog
; _this$ = ecx

; 16   : {

  00020	55		 push	 ebp
  00021	8b ec		 mov	 ebp, esp
  00023	6a ff		 push	 -1
  00025	68 00 00 00 00	 push	 __ehhandler$??0CConfigDialog@@QAE@HPAVCWnd@@@Z
  0002a	64 a1 00 00 00
	00		 mov	 eax, DWORD PTR fs:__except_list
  00030	50		 push	 eax
  00031	64 89 25 00 00
	00 00		 mov	 DWORD PTR fs:__except_list, esp
  00038	83 ec 08	 sub	 esp, 8
  0003b	89 4d ec	 mov	 DWORD PTR _this$[ebp], ecx
  0003e	c7 45 f0 00 00
	00 00		 mov	 DWORD PTR $T199770[ebp], 0
  00045	83 7d 10 00	 cmp	 DWORD PTR _$initVBases$[ebp], 0
  00049	74 28		 je	 SHORT $L198420
  0004b	8b 45 ec	 mov	 eax, DWORD PTR _this$[ebp]
  0004e	c7 40 78 00 00
	00 00		 mov	 DWORD PTR [eax+120], OFFSET FLAT:??_8CConfigDialog@@7B@
  00055	8b 4d ec	 mov	 ecx, DWORD PTR _this$[ebp]
  00058	81 c1 e8 04 00
	00		 add	 ecx, 1256		; 000004e8H
  0005e	e8 00 00 00 00	 call	 ??0IMessageObserver@@QAE@XZ
  00063	c7 45 fc 00 00
	00 00		 mov	 DWORD PTR __$EHRec$[ebp+8], 0
  0006a	8b 4d f0	 mov	 ecx, DWORD PTR $T199770[ebp]
  0006d	83 c9 01	 or	 ecx, 1
  00070	89 4d f0	 mov	 DWORD PTR $T199770[ebp], ecx
$L198420:
  00073	8b 55 0c	 mov	 edx, DWORD PTR _pParent$[ebp]
  00076	52		 push	 edx
  00077	68 8e 00 00 00	 push	 142			; 0000008eH
  0007c	8b 4d ec	 mov	 ecx, DWORD PTR _this$[ebp]
  0007f	e8 00 00 00 00	 call	 ??0CDialog@@QAE@IPAVCWnd@@@Z ; CDialog::CDialog
  00084	c7 45 fc 01 00
	00 00		 mov	 DWORD PTR __$EHRec$[ebp+8], 1
  0008b	6a 00		 push	 0
  0008d	8b 4d ec	 mov	 ecx, DWORD PTR _this$[ebp]
  00090	83 c1 74	 add	 ecx, 116		; 00000074H
  00093	e8 00 00 00 00	 call	 ??0IAppExitObserver@@QAE@XZ
  00098	c6 45 fc 02	 mov	 BYTE PTR __$EHRec$[ebp+8], 2
  0009c	8b 45 ec	 mov	 eax, DWORD PTR _this$[ebp]
  0009f	c7 00 00 00 00
	00		 mov	 DWORD PTR [eax], OFFSET FLAT:??_7CConfigDialog@@6B@
  000a5	8b 4d ec	 mov	 ecx, DWORD PTR _this$[ebp]
  000a8	c7 41 74 00 00
	00 00		 mov	 DWORD PTR [ecx+116], OFFSET FLAT:??_7CConfigDialog@@6BIAppExitObserver@@@
  000af	8b 55 ec	 mov	 edx, DWORD PTR _this$[ebp]
  000b2	8b 42 78	 mov	 eax, DWORD PTR [edx+120]
  000b5	8b 48 04	 mov	 ecx, DWORD PTR [eax+4]
  000b8	8b 55 ec	 mov	 edx, DWORD PTR _this$[ebp]
  000bb	c7 44 0a 78 00
	00 00 00	 mov	 DWORD PTR [edx+ecx+120], OFFSET FLAT:??_7CConfigDialog@@6BIMessageObserver@@@
  000c3	6a 00		 push	 0
  000c5	8b 4d ec	 mov	 ecx, DWORD PTR _this$[ebp]
  000c8	83 c1 7c	 add	 ecx, 124		; 0000007cH
  000cb	e8 00 00 00 00	 call	 ??0CDownDialog@@QAE@PAVCWnd@@@Z ; CDownDialog::CDownDialog
  000d0	c6 45 fc 03	 mov	 BYTE PTR __$EHRec$[ebp+8], 3
  000d4	6a 00		 push	 0
  000d6	8b 4d ec	 mov	 ecx, DWORD PTR _this$[ebp]
  000d9	81 c1 84 02 00
	00		 add	 ecx, 644		; 00000284H
  000df	e8 00 00 00 00	 call	 ??0CSysDialog@@QAE@PAVCWnd@@@Z ; CSysDialog::CSysDialog
  000e4	c6 45 fc 04	 mov	 BYTE PTR __$EHRec$[ebp+8], 4
  000e8	8b 4d ec	 mov	 ecx, DWORD PTR _this$[ebp]
  000eb	81 c1 d4 04 00
	00		 add	 ecx, 1236		; 000004d4H
  000f1	e8 00 00 00 00	 call	 ??0?$map@HPAVBaseDialog@@U?$less@H@std@@V?$allocator@U?$pair@$$CBHPAVBaseDialog@@@std@@@3@@std@@QAE@XZ ; std::map<int,BaseDialog *,std::less<int>,std::allocator<std::pair<int const ,BaseDialog *> > >::map<int,BaseDialog *,std::less<int>,std::allocator<std::pair<int const ,BaseDialog *> > >

; 17   : 	m_iShowIdx	= iShowIdx;

  000f6	8b 45 ec	 mov	 eax, DWORD PTR _this$[ebp]
  000f9	8b 4d 08	 mov	 ecx, DWORD PTR _iShowIdx$[ebp]
  000fc	89 88 e4 04 00
	00		 mov	 DWORD PTR [eax+1252], ecx

; 18   : 	m_bFullScreen = FALSE;

  00102	8b 55 ec	 mov	 edx, DWORD PTR _this$[ebp]
  00105	c7 82 e0 04 00
	00 00 00 00 00	 mov	 DWORD PTR [edx+1248], 0

; 19   : }

  0010f	c7 45 fc ff ff
	ff ff		 mov	 DWORD PTR __$EHRec$[ebp+8], -1
  00116	8b 45 ec	 mov	 eax, DWORD PTR _this$[ebp]
  00119	8b 4d f4	 mov	 ecx, DWORD PTR __$EHRec$[ebp]
  0011c	64 89 0d 00 00
	00 00		 mov	 DWORD PTR fs:__except_list, ecx
  00123	8b e5		 mov	 esp, ebp
  00125	5d		 pop	 ebp
  00126	c2 0c 00	 ret	 12			; 0000000cH
_TEXT	ENDS
text$x	SEGMENT
$L199771:
  00000	8b 45 f0	 mov	 eax, DWORD PTR $T199770[ebp]
  00003	83 e0 01	 and	 eax, 1
  00006	0f 84 12 00 00
	00		 je	 $L199772
  0000c	83 65 f0 fe	 and	 DWORD PTR $T199770[ebp], -2 ; fffffffeH
  00010	8b 4d ec	 mov	 ecx, DWORD PTR _this$[ebp]
  00013	81 c1 e8 04 00
	00		 add	 ecx, 1256		; 000004e8H
  00019	e9 00 00 00 00	 jmp	 ??1IMessageObserver@@UAE@XZ ; IMessageObserver::~IMessageObserver
$L199772:
  0001e	c3		 ret	 0
$L199773:
  0001f	8b 4d ec	 mov	 ecx, DWORD PTR _this$[ebp]
  00022	e9 00 00 00 00	 jmp	 ??1CDialog@@UAE@XZ	; CDialog::~CDialog
$L199774:
  00027	8b 4d ec	 mov	 ecx, DWORD PTR _this$[ebp]
  0002a	83 c1 7c	 add	 ecx, 124		; 0000007cH
  0002d	e9 00 00 00 00	 jmp	 ??1IAppExitObserver@@UAE@XZ
$L199775:
  00032	8b 4d ec	 mov	 ecx, DWORD PTR _this$[ebp]
  00035	83 c1 7c	 add	 ecx, 124		; 0000007cH
  00038	e9 00 00 00 00	 jmp	 ??1CDownDialog@@UAE@XZ	; CDownDialog::~CDownDialog
$L199776:
  0003d	8b 4d ec	 mov	 ecx, DWORD PTR _this$[ebp]
  00040	81 c1 84 02 00
	00		 add	 ecx, 644		; 00000284H
  00046	e9 00 00 00 00	 jmp	 ??1CSysDialog@@UAE@XZ	; CSysDialog::~CSysDialog
__ehhandler$??0CConfigDialog@@QAE@HPAVCWnd@@@Z:
  0004b	b8 00 00 00 00	 mov	 eax, OFFSET FLAT:$T199781
  00050	e9 00 00 00 00	 jmp	 ___CxxFrameHandler
text$x	ENDS
??0CConfigDialog@@QAE@HPAVCWnd@@@Z ENDP			; CConfigDialog::CConfigDialog
PUBLIC	??3CObject@@SGXPAX@Z				; CObject::operator delete
PUBLIC	??_DCConfigDialog@@QAEXXZ			; CConfigDialog::`vbase destructor'
; Function compile flags: /Odt
;	COMDAT ??_GCConfigDialog@@UAEPAXI@Z
_TEXT	SEGMENT
_this$ = -4						; size = 4
___flags$ = 8						; size = 4
??_GCConfigDialog@@UAEPAXI@Z PROC NEAR			; CConfigDialog::`scalar deleting destructor', COMDAT
; _this$ = ecx
  00000	55		 push	 ebp
  00001	8b ec		 mov	 ebp, esp
  00003	51		 push	 ecx
  00004	89 4d fc	 mov	 DWORD PTR _this$[ebp], ecx
  00007	8b 4d fc	 mov	 ecx, DWORD PTR _this$[ebp]
  0000a	e8 00 00 00 00	 call	 ??_DCConfigDialog@@QAEXXZ
  0000f	8b 45 08	 mov	 eax, DWORD PTR ___flags$[ebp]
  00012	83 e0 01	 and	 eax, 1
  00015	74 09		 je	 SHORT $L198424
  00017	8b 4d fc	 mov	 ecx, DWORD PTR _this$[ebp]
  0001a	51		 push	 ecx
  0001b	e8 00 00 00 00	 call	 ??3CObject@@SGXPAX@Z	; CObject::operator delete
$L198424:
  00020	8b 45 fc	 mov	 eax, DWORD PTR _this$[ebp]
  00023	8b e5		 mov	 esp, ebp
  00025	5d		 pop	 ebp
  00026	c2 04 00	 ret	 4
??_GCConfigDialog@@UAEPAXI@Z ENDP			; CConfigDialog::`scalar deleting destructor'
_TEXT	ENDS
PUBLIC	??_R4IMessageObserver@@6B@			; IMessageObserver::`RTTI Complete Object Locator'
PUBLIC	??_R3IMessageObserver@@8			; IMessageObserver::`RTTI Class Hierarchy Descriptor'
PUBLIC	??_R2IMessageObserver@@8			; IMessageObserver::`RTTI Base Class Array'
PUBLIC	??_R1A@?0A@A@IMessageObserver@@8		; IMessageObserver::`RTTI Base Class Descriptor at (0,-1,0,0)'
PUBLIC	??_7IMessageObserver@@6B@			; IMessageObserver::`vftable'
PUBLIC	??_GIMessageObserver@@UAEPAXI@Z			; IMessageObserver::`scalar deleting destructor'
EXTRN	??_EIMessageObserver@@UAEPAXI@Z:NEAR		; IMessageObserver::`vector deleting destructor'
;	COMDAT ??_7IMessageObserver@@6B@
CONST	SEGMENT
??_7IMessageObserver@@6B@ DD FLAT:??_R4IMessageObserver@@6B@ ; IMessageObserver::`vftable'
	DD	FLAT:??_EIMessageObserver@@UAEPAXI@Z
CONST	ENDS
;	COMDAT ??_R4IMessageObserver@@6B@
rdata$r	SEGMENT
??_R4IMessageObserver@@6B@ DD 00H			; IMessageObserver::`RTTI Complete Object Locator'
	DD	00H
	DD	00H
	DD	FLAT:??_R0?AVIMessageObserver@@@8
	DD	FLAT:??_R3IMessageObserver@@8
rdata$r	ENDS
;	COMDAT ??_R3IMessageObserver@@8
rdata$r	SEGMENT
??_R3IMessageObserver@@8 DD 00H				; IMessageObserver::`RTTI Class Hierarchy Descriptor'
	DD	00H
	DD	01H
	DD	FLAT:??_R2IMessageObserver@@8
rdata$r	ENDS
;	COMDAT ??_R2IMessageObserver@@8
rdata$r	SEGMENT
??_R2IMessageObserver@@8 DD FLAT:??_R1A@?0A@A@IMessageObserver@@8 ; IMessageObserver::`RTTI Base Class Array'
rdata$r	ENDS
;	COMDAT ??_R1A@?0A@A@IMessageObserver@@8
rdata$r	SEGMENT
??_R1A@?0A@A@IMessageObserver@@8 DD FLAT:??_R0?AVIMessageObserver@@@8 ; IMessageObserver::`RTTI Base Class Descriptor at (0,-1,0,0)'
	DD	00H
	DD	00H
	DD	0ffffffffH
	DD	00H
	DD	00H
; Function compile flags: /Odt
rdata$r	ENDS
;	COMDAT ??0IMessageObserver@@QAE@XZ
_TEXT	SEGMENT
_this$ = -4						; size = 4
??0IMessageObserver@@QAE@XZ PROC NEAR			; IMessageObserver::IMessageObserver, COMDAT
; _this$ = ecx
  00000	55		 push	 ebp
  00001	8b ec		 mov	 ebp, esp
  00003	51		 push	 ecx
  00004	89 4d fc	 mov	 DWORD PTR _this$[ebp], ecx
  00007	8b 45 fc	 mov	 eax, DWORD PTR _this$[ebp]
  0000a	c7 00 00 00 00
	00		 mov	 DWORD PTR [eax], OFFSET FLAT:??_7IMessageObserver@@6B@
  00010	8b 45 fc	 mov	 eax, DWORD PTR _this$[ebp]
  00013	8b e5		 mov	 esp, ebp
  00015	5d		 pop	 ebp
  00016	c3		 ret	 0
??0IMessageObserver@@QAE@XZ ENDP			; IMessageObserver::IMessageObserver
_TEXT	ENDS
PUBLIC	??_R4IAppExitObserver@@6B0@@			; IAppExitObserver::`RTTI Complete Object Locator'
PUBLIC	??_R3IAppExitObserver@@8			; IAppExitObserver::`RTTI Class Hierarchy Descriptor'
PUBLIC	??_R2IAppExitObserver@@8			; IAppExitObserver::`RTTI Base Class Array'
PUBLIC	??_R1A@?0A@A@IAppExitObserver@@8		; IAppExitObserver::`RTTI Base Class Descriptor at (0,-1,0,0)'
PUBLIC	??_R1A@33BA@IMessageObserver@@8			; IMessageObserver::`RTTI Base Class Descriptor at (0,4,4,16)'
PUBLIC	??_R4IAppExitObserver@@6BIMessageObserver@@@	; IAppExitObserver::`RTTI Complete Object Locator'
PUBLIC	?IAppExit@IAppExitObserver@@UAEXXZ		; IAppExitObserver::IAppExit
PUBLIC	??_7IAppExitObserver@@6B0@@			; IAppExitObserver::`vftable'
PUBLIC	??_7IAppExitObserver@@6BIMessageObserver@@@	; IAppExitObserver::`vftable'
PUBLIC	??_8IAppExitObserver@@7B@			; IAppExitObserver::`vbtable'
PUBLIC	??_GIAppExitObserver@@UAEPAXI@Z			; IAppExitObserver::`scalar deleting destructor'
EXTRN	??_EIAppExitObserver@@UAEPAXI@Z:NEAR		; IAppExitObserver::`vector deleting destructor'
;	COMDAT ??_8IAppExitObserver@@7B@
CONST	SEGMENT
??_8IAppExitObserver@@7B@ DD 0fffffffcH			; IAppExitObserver::`vbtable'
	DD	04H
CONST	ENDS
;	COMDAT ??_7IAppExitObserver@@6B0@@
CONST	SEGMENT
??_7IAppExitObserver@@6B0@@ DD FLAT:??_R4IAppExitObserver@@6B0@@ ; IAppExitObserver::`vftable'
	DD	FLAT:?IAppExit@IAppExitObserver@@UAEXXZ
CONST	ENDS
;	COMDAT ??_7IAppExitObserver@@6BIMessageObserver@@@
CONST	SEGMENT
??_7IAppExitObserver@@6BIMessageObserver@@@ DD FLAT:??_R4IAppExitObserver@@6BIMessageObserver@@@ ; IAppExitObserver::`vftable'
	DD	FLAT:??_EIAppExitObserver@@UAEPAXI@Z
CONST	ENDS
;	COMDAT ??_R4IAppExitObserver@@6B0@@
rdata$r	SEGMENT
??_R4IAppExitObserver@@6B0@@ DD 00H			; IAppExitObserver::`RTTI Complete Object Locator'
	DD	00H
	DD	00H
	DD	FLAT:??_R0?AVIAppExitObserver@@@8
	DD	FLAT:??_R3IAppExitObserver@@8
rdata$r	ENDS
;	COMDAT ??_R3IAppExitObserver@@8
rdata$r	SEGMENT
??_R3IAppExitObserver@@8 DD 00H				; IAppExitObserver::`RTTI Class Hierarchy Descriptor'
	DD	00H
	DD	02H
	DD	FLAT:??_R2IAppExitObserver@@8
rdata$r	ENDS
;	COMDAT ??_R2IAppExitObserver@@8
rdata$r	SEGMENT
??_R2IAppExitObserver@@8 DD FLAT:??_R1A@?0A@A@IAppExitObserver@@8 ; IAppExitObserver::`RTTI Base Class Array'
	DD	FLAT:??_R1A@33BA@IMessageObserver@@8
rdata$r	ENDS
;	COMDAT ??_R1A@?0A@A@IAppExitObserver@@8
rdata$r	SEGMENT
??_R1A@?0A@A@IAppExitObserver@@8 DD FLAT:??_R0?AVIAppExitObserver@@@8 ; IAppExitObserver::`RTTI Base Class Descriptor at (0,-1,0,0)'
	DD	01H
	DD	00H
	DD	0ffffffffH
	DD	00H
	DD	00H
rdata$r	ENDS
;	COMDAT ??_R1A@33BA@IMessageObserver@@8
rdata$r	SEGMENT
??_R1A@33BA@IMessageObserver@@8 DD FLAT:??_R0?AVIMessageObserver@@@8 ; IMessageObserver::`RTTI Base Class Descriptor at (0,4,4,16)'
	DD	00H
	DD	00H
	DD	04H
	DD	04H
	DD	010H
rdata$r	ENDS
;	COMDAT ??_R4IAppExitObserver@@6BIMessageObserver@@@
rdata$r	SEGMENT
??_R4IAppExitObserver@@6BIMessageObserver@@@ DD 00H	; IAppExitObserver::`RTTI Complete Object Locator'
	DD	08H
	DD	00H
	DD	FLAT:??_R0?AVIAppExitObserver@@@8
	DD	FLAT:??_R3IAppExitObserver@@8
; Function compile flags: /Odt
rdata$r	ENDS
;	COMDAT ??0IAppExitObserver@@QAE@XZ
_TEXT	SEGMENT
_this$ = -8						; size = 4
$T199791 = -4						; size = 4
_$initVBases$ = 8					; size = 4
??0IAppExitObserver@@QAE@XZ PROC NEAR			; IAppExitObserver::IAppExitObserver, COMDAT
; _this$ = ecx
  00000	55		 push	 ebp
  00001	8b ec		 mov	 ebp, esp
  00003	83 ec 08	 sub	 esp, 8
  00006	89 4d f8	 mov	 DWORD PTR _this$[ebp], ecx
  00009	c7 45 fc 00 00
	00 00		 mov	 DWORD PTR $T199791[ebp], 0
  00010	83 7d 08 00	 cmp	 DWORD PTR _$initVBases$[ebp], 0
  00014	74 19		 je	 SHORT $L198430
  00016	8b 45 f8	 mov	 eax, DWORD PTR _this$[ebp]
  00019	c7 40 04 00 00
	00 00		 mov	 DWORD PTR [eax+4], OFFSET FLAT:??_8IAppExitObserver@@7B@
  00020	8b 4d f8	 mov	 ecx, DWORD PTR _this$[ebp]
  00023	83 c1 08	 add	 ecx, 8
  00026	e8 00 00 00 00	 call	 ??0IMessageObserver@@QAE@XZ
  0002b	83 4d fc 01	 or	 DWORD PTR $T199791[ebp], 1
$L198430:
  0002f	8b 4d f8	 mov	 ecx, DWORD PTR _this$[ebp]
  00032	c7 01 00 00 00
	00		 mov	 DWORD PTR [ecx], OFFSET FLAT:??_7IAppExitObserver@@6B0@@
  00038	8b 55 f8	 mov	 edx, DWORD PTR _this$[ebp]
  0003b	8b 42 04	 mov	 eax, DWORD PTR [edx+4]
  0003e	8b 48 04	 mov	 ecx, DWORD PTR [eax+4]
  00041	8b 55 f8	 mov	 edx, DWORD PTR _this$[ebp]
  00044	c7 44 0a 04 00
	00 00 00	 mov	 DWORD PTR [edx+ecx+4], OFFSET FLAT:??_7IAppExitObserver@@6BIMessageObserver@@@
  0004c	8b 45 f8	 mov	 eax, DWORD PTR _this$[ebp]
  0004f	8b e5		 mov	 esp, ebp
  00051	5d		 pop	 ebp
  00052	c2 04 00	 ret	 4
??0IAppExitObserver@@QAE@XZ ENDP			; IAppExitObserver::IAppExitObserver
; Function compile flags: /Odt
; File d:\boxgit\playbox\playbox\dev\prj\playbox\src\datainterface\iappexitobserver.h
_TEXT	ENDS
;	COMDAT ?IAppExit@IAppExitObserver@@UAEXXZ
_TEXT	SEGMENT
_this$ = -4						; size = 4
?IAppExit@IAppExitObserver@@UAEXXZ PROC NEAR		; IAppExitObserver::IAppExit, COMDAT
; _this$ = ecx

; 9    : 	virtual void	IAppExit(){};	

  00000	55		 push	 ebp
  00001	8b ec		 mov	 ebp, esp
  00003	51		 push	 ecx
  00004	89 4d fc	 mov	 DWORD PTR _this$[ebp], ecx
  00007	8b e5		 mov	 esp, ebp
  00009	5d		 pop	 ebp
  0000a	c3		 ret	 0
?IAppExit@IAppExitObserver@@UAEXXZ ENDP			; IAppExitObserver::IAppExit
; Function compile flags: /Odt
_TEXT	ENDS
;	COMDAT ??1IAppExitObserver@@UAE@XZ
_TEXT	SEGMENT
_this$ = -4						; size = 4
??1IAppExitObserver@@UAE@XZ PROC NEAR			; IAppExitObserver::~IAppExitObserver, COMDAT
; _this$ = ecx
  00000	55		 push	 ebp
  00001	8b ec		 mov	 ebp, esp
  00003	51		 push	 ecx
  00004	89 4d fc	 mov	 DWORD PTR _this$[ebp], ecx
  00007	8b e5		 mov	 esp, ebp
  00009	5d		 pop	 ebp
  0000a	c3		 ret	 0
??1IAppExitObserver@@UAE@XZ ENDP			; IAppExitObserver::~IAppExitObserver
_TEXT	ENDS
PUBLIC	??1CConfigDialog@@UAE@XZ			; CConfigDialog::~CConfigDialog
; Function compile flags: /Odt
;	COMDAT ??_DCConfigDialog@@QAEXXZ
_TEXT	SEGMENT
_this$ = -4						; size = 4
??_DCConfigDialog@@QAEXXZ PROC NEAR			; CConfigDialog::`vbase destructor', COMDAT
; _this$ = ecx
  00000	55		 push	 ebp
  00001	8b ec		 mov	 ebp, esp
  00003	51		 push	 ecx
  00004	89 4d fc	 mov	 DWORD PTR _this$[ebp], ecx
  00007	8b 4d fc	 mov	 ecx, DWORD PTR _this$[ebp]
  0000a	e8 00 00 00 00	 call	 ??1CConfigDialog@@UAE@XZ ; CConfigDialog::~CConfigDialog
  0000f	8b 4d fc	 mov	 ecx, DWORD PTR _this$[ebp]
  00012	81 c1 e8 04 00
	00		 add	 ecx, 1256		; 000004e8H
  00018	e8 00 00 00 00	 call	 ??1IMessageObserver@@UAE@XZ ; IMessageObserver::~IMessageObserver
  0001d	8b e5		 mov	 esp, ebp
  0001f	5d		 pop	 ebp
  00020	c3		 ret	 0
??_DCConfigDialog@@QAEXXZ ENDP				; CConfigDialog::`vbase destructor'
_TEXT	ENDS
PUBLIC	??_DIAppExitObserver@@QAEXXZ			; IAppExitObserver::`vbase destructor'
EXTRN	??3@YAXPAX@Z:NEAR				; operator delete
; Function compile flags: /Odt
;	COMDAT ??_GIAppExitObserver@@UAEPAXI@Z
_TEXT	SEGMENT
_this$ = -4						; size = 4
___flags$ = 8						; size = 4
??_GIAppExitObserver@@UAEPAXI@Z PROC NEAR		; IAppExitObserver::`scalar deleting destructor', COMDAT
; _this$ = ecx
  00000	55		 push	 ebp
  00001	8b ec		 mov	 ebp, esp
  00003	51		 push	 ecx
  00004	89 4d fc	 mov	 DWORD PTR _this$[ebp], ecx
  00007	8b 4d fc	 mov	 ecx, DWORD PTR _this$[ebp]
  0000a	83 e9 08	 sub	 ecx, 8
  0000d	e8 00 00 00 00	 call	 ??_DIAppExitObserver@@QAEXXZ
  00012	8b 45 08	 mov	 eax, DWORD PTR ___flags$[ebp]
  00015	83 e0 01	 and	 eax, 1
  00018	74 0f		 je	 SHORT $L198440
  0001a	8b 4d fc	 mov	 ecx, DWORD PTR _this$[ebp]
  0001d	83 e9 08	 sub	 ecx, 8
  00020	51		 push	 ecx
  00021	e8 00 00 00 00	 call	 ??3@YAXPAX@Z		; operator delete
  00026	83 c4 04	 add	 esp, 4
$L198440:
  00029	8b 45 fc	 mov	 eax, DWORD PTR _this$[ebp]
  0002c	83 e8 08	 sub	 eax, 8
  0002f	8b e5		 mov	 esp, ebp
  00031	5d		 pop	 ebp
  00032	c2 04 00	 ret	 4
??_GIAppExitObserver@@UAEPAXI@Z ENDP			; IAppExitObserver::`scalar deleting destructor'
; Function compile flags: /Odt
_TEXT	ENDS
;	COMDAT ??_DIAppExitObserver@@QAEXXZ
_TEXT	SEGMENT
_this$ = -4						; size = 4
??_DIAppExitObserver@@QAEXXZ PROC NEAR			; IAppExitObserver::`vbase destructor', COMDAT
; _this$ = ecx
  00000	55		 push	 ebp
  00001	8b ec		 mov	 ebp, esp
  00003	51		 push	 ecx
  00004	89 4d fc	 mov	 DWORD PTR _this$[ebp], ecx
  00007	8b 4d fc	 mov	 ecx, DWORD PTR _this$[ebp]
  0000a	83 c1 08	 add	 ecx, 8
  0000d	e8 00 00 00 00	 call	 ??1IAppExitObserver@@UAE@XZ
  00012	8b 4d fc	 mov	 ecx, DWORD PTR _this$[ebp]
  00015	83 c1 08	 add	 ecx, 8
  00018	e8 00 00 00 00	 call	 ??1IMessageObserver@@UAE@XZ ; IMessageObserver::~IMessageObserver
  0001d	8b e5		 mov	 esp, ebp
  0001f	5d		 pop	 ebp
  00020	c3		 ret	 0
??_DIAppExitObserver@@QAEXXZ ENDP			; IAppExitObserver::`vbase destructor'
_TEXT	ENDS
PUBLIC	??1?$map@HPAVBaseDialog@@U?$less@H@std@@V?$allocator@U?$pair@$$CBHPAVBaseDialog@@@std@@@3@@std@@QAE@XZ ; std::map<int,BaseDialog *,std::less<int>,std::allocator<std::pair<int const ,BaseDialog *> > >::~map<int,BaseDialog *,std::less<int>,std::allocator<std::pair<int const ,BaseDialog *> > >
xdata$x	SEGMENT
$T199816 DD	0ffffffffH
	DD	FLAT:$L199806
	DD	00H
	DD	FLAT:$L199809
	DD	01H
	DD	FLAT:$L199810
	DD	02H
	DD	FLAT:$L199811
$T199814 DD	019930520H
	DD	04H
	DD	FLAT:$T199816
	DD	2 DUP(00H)
	DD	2 DUP(00H)
; Function compile flags: /Odt
; File d:\boxgit\playbox\playbox\dev\prj\playbox\src\appconfig\config\dlg\dlgconfig.cpp
xdata$x	ENDS
_TEXT	SEGMENT
tv72 = -20						; size = 4
_this$ = -16						; size = 4
__$EHRec$ = -12						; size = 12
??1CConfigDialog@@UAE@XZ PROC NEAR			; CConfigDialog::~CConfigDialog
; _this$ = ecx

; 22   : {

  00130	55		 push	 ebp
  00131	8b ec		 mov	 ebp, esp
  00133	6a ff		 push	 -1
  00135	68 00 00 00 00	 push	 __ehhandler$??1CConfigDialog@@UAE@XZ
  0013a	64 a1 00 00 00
	00		 mov	 eax, DWORD PTR fs:__except_list
  00140	50		 push	 eax
  00141	64 89 25 00 00
	00 00		 mov	 DWORD PTR fs:__except_list, esp
  00148	83 ec 08	 sub	 esp, 8
  0014b	89 4d f0	 mov	 DWORD PTR _this$[ebp], ecx
  0014e	8b 45 f0	 mov	 eax, DWORD PTR _this$[ebp]
  00151	c7 00 00 00 00
	00		 mov	 DWORD PTR [eax], OFFSET FLAT:??_7CConfigDialog@@6B@
  00157	8b 4d f0	 mov	 ecx, DWORD PTR _this$[ebp]
  0015a	c7 41 74 00 00
	00 00		 mov	 DWORD PTR [ecx+116], OFFSET FLAT:??_7CConfigDialog@@6BIAppExitObserver@@@
  00161	8b 55 f0	 mov	 edx, DWORD PTR _this$[ebp]
  00164	8b 42 78	 mov	 eax, DWORD PTR [edx+120]
  00167	8b 48 04	 mov	 ecx, DWORD PTR [eax+4]
  0016a	8b 55 f0	 mov	 edx, DWORD PTR _this$[ebp]
  0016d	c7 44 0a 78 00
	00 00 00	 mov	 DWORD PTR [edx+ecx+120], OFFSET FLAT:??_7CConfigDialog@@6BIMessageObserver@@@
  00175	c7 45 fc 03 00
	00 00		 mov	 DWORD PTR __$EHRec$[ebp+8], 3

; 23   : }

  0017c	8b 4d f0	 mov	 ecx, DWORD PTR _this$[ebp]
  0017f	81 c1 d4 04 00
	00		 add	 ecx, 1236		; 000004d4H
  00185	e8 00 00 00 00	 call	 ??1?$map@HPAVBaseDialog@@U?$less@H@std@@V?$allocator@U?$pair@$$CBHPAVBaseDialog@@@std@@@3@@std@@QAE@XZ
  0018a	c6 45 fc 02	 mov	 BYTE PTR __$EHRec$[ebp+8], 2
  0018e	8b 4d f0	 mov	 ecx, DWORD PTR _this$[ebp]
  00191	81 c1 84 02 00
	00		 add	 ecx, 644		; 00000284H
  00197	e8 00 00 00 00	 call	 ??1CSysDialog@@UAE@XZ	; CSysDialog::~CSysDialog
  0019c	c6 45 fc 01	 mov	 BYTE PTR __$EHRec$[ebp+8], 1
  001a0	8b 4d f0	 mov	 ecx, DWORD PTR _this$[ebp]
  001a3	83 c1 7c	 add	 ecx, 124		; 0000007cH
  001a6	e8 00 00 00 00	 call	 ??1CDownDialog@@UAE@XZ	; CDownDialog::~CDownDialog
  001ab	c6 45 fc 00	 mov	 BYTE PTR __$EHRec$[ebp+8], 0
  001af	83 7d f0 00	 cmp	 DWORD PTR _this$[ebp], 0
  001b3	74 0b		 je	 SHORT $L199804
  001b5	8b 45 f0	 mov	 eax, DWORD PTR _this$[ebp]
  001b8	83 c0 74	 add	 eax, 116		; 00000074H
  001bb	89 45 ec	 mov	 DWORD PTR tv72[ebp], eax
  001be	eb 07		 jmp	 SHORT $L199805
$L199804:
  001c0	c7 45 ec 00 00
	00 00		 mov	 DWORD PTR tv72[ebp], 0
$L199805:
  001c7	8b 4d ec	 mov	 ecx, DWORD PTR tv72[ebp]
  001ca	83 c1 08	 add	 ecx, 8
  001cd	e8 00 00 00 00	 call	 ??1IAppExitObserver@@UAE@XZ
  001d2	c7 45 fc ff ff
	ff ff		 mov	 DWORD PTR __$EHRec$[ebp+8], -1
  001d9	8b 4d f0	 mov	 ecx, DWORD PTR _this$[ebp]
  001dc	e8 00 00 00 00	 call	 ??1CDialog@@UAE@XZ	; CDialog::~CDialog
  001e1	8b 4d f4	 mov	 ecx, DWORD PTR __$EHRec$[ebp]
  001e4	64 89 0d 00 00
	00 00		 mov	 DWORD PTR fs:__except_list, ecx
  001eb	8b e5		 mov	 esp, ebp
  001ed	5d		 pop	 ebp
  001ee	c3		 ret	 0
_TEXT	ENDS
text$x	SEGMENT
$L199806:
  00055	8b 4d f0	 mov	 ecx, DWORD PTR _this$[ebp]
  00058	e9 00 00 00 00	 jmp	 ??1CDialog@@UAE@XZ	; CDialog::~CDialog
$L199809:
  0005d	83 7d f0 00	 cmp	 DWORD PTR _this$[ebp], 0
  00061	0f 84 0e 00 00
	00		 je	 $L199807
  00067	8b 45 f0	 mov	 eax, DWORD PTR _this$[ebp]
  0006a	83 c0 74	 add	 eax, 116		; 00000074H
  0006d	89 45 ec	 mov	 DWORD PTR tv72[ebp], eax
  00070	e9 07 00 00 00	 jmp	 $L199808
$L199807:
  00075	c7 45 ec 00 00
	00 00		 mov	 DWORD PTR tv72[ebp], 0
$L199808:
  0007c	8b 4d ec	 mov	 ecx, DWORD PTR tv72[ebp]
  0007f	83 c1 08	 add	 ecx, 8
  00082	e9 00 00 00 00	 jmp	 ??1IAppExitObserver@@UAE@XZ
$L199810:
  00087	8b 4d f0	 mov	 ecx, DWORD PTR _this$[ebp]
  0008a	83 c1 7c	 add	 ecx, 124		; 0000007cH
  0008d	e9 00 00 00 00	 jmp	 ??1CDownDialog@@UAE@XZ	; CDownDialog::~CDownDialog
$L199811:
  00092	8b 4d f0	 mov	 ecx, DWORD PTR _this$[ebp]
  00095	81 c1 84 02 00
	00		 add	 ecx, 644		; 00000284H
  0009b	e9 00 00 00 00	 jmp	 ??1CSysDialog@@UAE@XZ	; CSysDialog::~CSysDialog
__ehhandler$??1CConfigDialog@@UAE@XZ:
  000a0	b8 00 00 00 00	 mov	 eax, OFFSET FLAT:$T199814
  000a5	e9 00 00 00 00	 jmp	 ___CxxFrameHandler
text$x	ENDS
??1CConfigDialog@@UAE@XZ ENDP				; CConfigDialog::~CConfigDialog
PUBLIC	??1?$_Tree@V?$_Tmap_traits@HPAVBaseDialog@@U?$less@H@std@@V?$allocator@U?$pair@$$CBHPAVBaseDialog@@@std@@@3@$0A@@std@@@std@@QAE@XZ ; std::_Tree<std::_Tmap_traits<int,BaseDialog *,std::less<int>,std::allocator<std::pair<int const ,BaseDialog *> >,0> >::~_Tree<std::_Tmap_traits<int,BaseDialog *,std::less<int>,std::allocator<std::pair<int const ,BaseDialog *> >,0> >
; Function compile flags: /Odt
;	COMDAT ??1?$map@HPAVBaseDialog@@U?$less@H@std@@V?$allocator@U?$pair@$$CBHPAVBaseDialog@@@std@@@3@@std@@QAE@XZ
_TEXT	SEGMENT
_this$ = -4						; size = 4
??1?$map@HPAVBaseDialog@@U?$less@H@std@@V?$allocator@U?$pair@$$CBHPAVBaseDialog@@@std@@@3@@std@@QAE@XZ PROC NEAR ; std::map<int,BaseDialog *,std::less<int>,std::allocator<std::pair<int const ,BaseDialog *> > >::~map<int,BaseDialog *,std::less<int>,std::allocator<std::pair<int const ,BaseDialog *> > >, COMDAT
; _this$ = ecx
  00000	55		 push	 ebp
  00001	8b ec		 mov	 ebp, esp
  00003	51		 push	 ecx
  00004	89 4d fc	 mov	 DWORD PTR _this$[ebp], ecx
  00007	8b 4d fc	 mov	 ecx, DWORD PTR _this$[ebp]
  0000a	e8 00 00 00 00	 call	 ??1?$_Tree@V?$_Tmap_traits@HPAVBaseDialog@@U?$less@H@std@@V?$allocator@U?$pair@$$CBHPAVBaseDialog@@@std@@@3@$0A@@std@@@std@@QAE@XZ ; std::_Tree<std::_Tmap_traits<int,BaseDialog *,std::less<int>,std::allocator<std::pair<int const ,BaseDialog *> >,0> >::~_Tree<std::_Tmap_traits<int,BaseDialog *,std::less<int>,std::allocator<std::pair<int const ,BaseDialog *> >,0> >
  0000f	8b e5		 mov	 esp, ebp
  00011	5d		 pop	 ebp
  00012	c3		 ret	 0
??1?$map@HPAVBaseDialog@@U?$less@H@std@@V?$allocator@U?$pair@$$CBHPAVBaseDialog@@@std@@@3@@std@@QAE@XZ ENDP ; std::map<int,BaseDialog *,std::less<int>,std::allocator<std::pair<int const ,BaseDialog *> > >::~map<int,BaseDialog *,std::less<int>,std::allocator<std::pair<int const ,BaseDialog *> > >
_TEXT	ENDS
PUBLIC	?GetThisMessageMap@CConfigDialog@@KGPBUAFX_MSGMAP@@XZ ; CConfigDialog::GetThisMessageMap
; Function compile flags: /Odt
_TEXT	SEGMENT
?GetThisMessageMap@CConfigDialog@@KGPBUAFX_MSGMAP@@XZ PROC NEAR ; CConfigDialog::GetThisMessageMap

; 25   : BEGIN_MESSAGE_MAP(CConfigDialog,CDialog)

  001f0	55		 push	 ebp
  001f1	8b ec		 mov	 ebp, esp
  001f3	b8 00 00 00 00	 mov	 eax, OFFSET FLAT:?messageMap@CConfigDialog@@1UAFX_MSGMAP@@B ; CConfigDialog::messageMap
  001f8	5d		 pop	 ebp
  001f9	c3		 ret	 0
?GetThisMessageMap@CConfigDialog@@KGPBUAFX_MSGMAP@@XZ ENDP ; CConfigDialog::GetThisMessageMap
; Function compile flags: /Odt
_this$ = -4						; size = 4
?GetMessageMap@CConfigDialog@@MBEPBUAFX_MSGMAP@@XZ PROC NEAR ; CConfigDialog::GetMessageMap
; _this$ = ecx

; 25   : BEGIN_MESSAGE_MAP(CConfigDialog,CDialog)

  00200	55		 push	 ebp
  00201	8b ec		 mov	 ebp, esp
  00203	51		 push	 ecx
  00204	89 4d fc	 mov	 DWORD PTR _this$[ebp], ecx
  00207	b8 00 00 00 00	 mov	 eax, OFFSET FLAT:?messageMap@CConfigDialog@@1UAFX_MSGMAP@@B ; CConfigDialog::messageMap
  0020c	8b e5		 mov	 esp, ebp
  0020e	5d		 pop	 ebp
  0020f	c3		 ret	 0
?GetMessageMap@CConfigDialog@@MBEPBUAFX_MSGMAP@@XZ ENDP	; CConfigDialog::GetMessageMap
_TEXT	ENDS
PUBLIC	?DoDataExchange@CWnd@@MAEXPAVCDataExchange@@@Z	; CWnd::DoDataExchange
; Function compile flags: /Odt
_TEXT	SEGMENT
_this$ = -4						; size = 4
_pDX$ = 8						; size = 4
?DoDataExchange@CConfigDialog@@MAEXPAVCDataExchange@@@Z PROC NEAR ; CConfigDialog::DoDataExchange
; _this$ = ecx

; 33   : {

  00210	55		 push	 ebp
  00211	8b ec		 mov	 ebp, esp
  00213	51		 push	 ecx
  00214	89 4d fc	 mov	 DWORD PTR _this$[ebp], ecx

; 34   : 	CDialog::DoDataExchange(pDX);

  00217	8b 45 08	 mov	 eax, DWORD PTR _pDX$[ebp]
  0021a	50		 push	 eax
  0021b	8b 4d fc	 mov	 ecx, DWORD PTR _this$[ebp]
  0021e	e8 00 00 00 00	 call	 ?DoDataExchange@CWnd@@MAEXPAVCDataExchange@@@Z ; CWnd::DoDataExchange

; 35   : }

  00223	8b e5		 mov	 esp, ebp
  00225	5d		 pop	 ebp
  00226	c2 04 00	 ret	 4
?DoDataExchange@CConfigDialog@@MAEXPAVCDataExchange@@@Z ENDP ; CConfigDialog::DoDataExchange
_TEXT	ENDS
PUBLIC	?GetWindowRect@CWnd@@QBEXPAUtagRECT@@@Z		; CWnd::GetWindowRect
PUBLIC	?GetClientRect@CWnd@@QBEXPAUtagRECT@@@Z		; CWnd::GetClientRect
PUBLIC	?ScreenToClient@CWnd@@QBEXPAUtagPOINT@@@Z	; CWnd::ScreenToClient
PUBLIC	??0CRect@@QAE@XZ				; CRect::CRect
PUBLIC	??0CRect@@QAE@HHHH@Z				; CRect::CRect
PUBLIC	?Height@CRect@@QBEHXZ				; CRect::Height
PUBLIC	??BCRect@@QAEPAUtagRECT@@XZ			; CRect::operator tagRECT *
PUBLIC	?size@?$_Tree@V?$_Tmap_traits@HPAVBaseDialog@@U?$less@H@std@@V?$allocator@U?$pair@$$CBHPAVBaseDialog@@@std@@@3@$0A@@std@@@std@@QBEIXZ ; std::_Tree<std::_Tmap_traits<int,BaseDialog *,std::less<int>,std::allocator<std::pair<int const ,BaseDialog *> >,0> >::size
PUBLIC	??A?$map@HPAVBaseDialog@@U?$less@H@std@@V?$allocator@U?$pair@$$CBHPAVBaseDialog@@@std@@@3@@std@@QAEAAPAVBaseDialog@@ABH@Z ; std::map<int,BaseDialog *,std::less<int>,std::allocator<std::pair<int const ,BaseDialog *> > >::operator[]
PUBLIC	?MoveWindow@CWnd@@QAEXPBUtagRECT@@H@Z		; CWnd::MoveWindow
EXTRN	__imp__SendMessageA@16:NEAR
EXTRN	?ShowWindow@CWnd@@QAEHH@Z:NEAR			; CWnd::ShowWindow
EXTRN	?OnInitDialog@CDialog@@UAEHXZ:NEAR		; CDialog::OnInitDialog
EXTRN	__imp__SetWindowPos@28:NEAR
EXTRN	?CenterWindow@CWnd@@QAEXPAV1@@Z:NEAR		; CWnd::CenterWindow
EXTRN	__imp_?YL_Log@@YAXABV?$basic_string@DU?$char_traits@D@std@@V?$allocator@D@2@@std@@H0PBDZZ:NEAR
EXTRN	__imp_??0?$basic_string@DU?$char_traits@D@std@@V?$allocator@D@2@@std@@QAE@PBD@Z:NEAR
EXTRN	__imp_??1?$basic_string@DU?$char_traits@D@std@@V?$allocator@D@2@@std@@QAE@XZ:NEAR
EXTRN	?GetDlgItem@CWnd@@QBEPAV1@H@Z:NEAR		; CWnd::GetDlgItem
EXTRN	__imp_??4?$basic_string@DU?$char_traits@D@std@@V?$allocator@D@2@@std@@QAEAAV01@PBD@Z:NEAR
EXTRN	?AfxGetMessageManager@@YAPAVIMessageManager@@XZ:NEAR ; AfxGetMessageManager
EXTRN	?AfxGetUIManager@@YAPAVIUIManager@@XZ:NEAR	; AfxGetUIManager
xdata$x	SEGMENT
$T199835 DD	0ffffffffH
	DD	FLAT:$L199830
	DD	00H
	DD	FLAT:$L199831
$T199833 DD	019930520H
	DD	02H
	DD	FLAT:$T199835
	DD	2 DUP(00H)
	DD	2 DUP(00H)
; Function compile flags: /Odt
xdata$x	ENDS
_TEXT	SEGMENT
tv221 = -168						; size = 4
tv230 = -164						; size = 4
tv215 = -160						; size = 4
_this$ = -156						; size = 4
$T199827 = -152						; size = 28
$T199826 = -124						; size = 28
$T199825 = -96						; size = 4
$T199824 = -92						; size = 4
_rcOne$198491 = -88					; size = 16
_i$198487 = -72						; size = 4
_dlgRc$ = -68						; size = 16
_rect$ = -52						; size = 16
_rc$ = -36						; size = 16
_point$ = -20						; size = 8
__$EHRec$ = -12						; size = 12
?OnInitDialog@CConfigDialog@@MAEHXZ PROC NEAR		; CConfigDialog::OnInitDialog
; _this$ = ecx

; 38   : {

  00230	55		 push	 ebp
  00231	8b ec		 mov	 ebp, esp
  00233	6a ff		 push	 -1
  00235	68 00 00 00 00	 push	 __ehhandler$?OnInitDialog@CConfigDialog@@MAEHXZ
  0023a	64 a1 00 00 00
	00		 mov	 eax, DWORD PTR fs:__except_list
  00240	50		 push	 eax
  00241	64 89 25 00 00
	00 00		 mov	 DWORD PTR fs:__except_list, esp
  00248	81 ec 9c 00 00
	00		 sub	 esp, 156		; 0000009cH
  0024e	56		 push	 esi
  0024f	89 8d 64 ff ff
	ff		 mov	 DWORD PTR _this$[ebp], ecx

; 39   : 	CDialog::OnInitDialog();

  00255	8b 8d 64 ff ff
	ff		 mov	 ecx, DWORD PTR _this$[ebp]
  0025b	e8 00 00 00 00	 call	 ?OnInitDialog@CDialog@@UAEHXZ ; CDialog::OnInitDialog

; 40   : 	//
; 41   : 	if(g_hLastConfWnd != NULL && g_hLastConfWnd != m_hWnd)

  00260	83 3d 00 00 00
	00 00		 cmp	 DWORD PTR ?g_hLastConfWnd@@3PAUHWND__@@A, 0 ; g_hLastConfWnd
  00267	74 27		 je	 SHORT $L198477
  00269	8b 85 64 ff ff
	ff		 mov	 eax, DWORD PTR _this$[ebp]
  0026f	8b 0d 00 00 00
	00		 mov	 ecx, DWORD PTR ?g_hLastConfWnd@@3PAUHWND__@@A ; g_hLastConfWnd
  00275	3b 48 20	 cmp	 ecx, DWORD PTR [eax+32]
  00278	74 16		 je	 SHORT $L198477

; 42   : 	{
; 43   : 		::SendMessage(g_hLastConfWnd, WM_COMMAND, IDCANCEL, 0);

  0027a	6a 00		 push	 0
  0027c	6a 02		 push	 2
  0027e	68 11 01 00 00	 push	 273			; 00000111H
  00283	8b 15 00 00 00
	00		 mov	 edx, DWORD PTR ?g_hLastConfWnd@@3PAUHWND__@@A ; g_hLastConfWnd
  00289	52		 push	 edx
  0028a	ff 15 00 00 00
	00		 call	 DWORD PTR __imp__SendMessageA@16
$L198477:

; 44   : 	}
; 45   : 	g_hLastConfWnd = m_hWnd;

  00290	8b 85 64 ff ff
	ff		 mov	 eax, DWORD PTR _this$[ebp]
  00296	8b 48 20	 mov	 ecx, DWORD PTR [eax+32]
  00299	89 0d 00 00 00
	00		 mov	 DWORD PTR ?g_hLastConfWnd@@3PAUHWND__@@A, ecx ; g_hLastConfWnd

; 46   : 
; 47   : 	CenterWindow();

  0029f	6a 00		 push	 0
  002a1	8b 8d 64 ff ff
	ff		 mov	 ecx, DWORD PTR _this$[ebp]
  002a7	e8 00 00 00 00	 call	 ?CenterWindow@CWnd@@QAEXPAV1@@Z ; CWnd::CenterWindow

; 48   : 
; 49   : 	RECT rect;
; 50   : 	GetDlgItem(IDC_STATIC)->GetWindowRect(&rect);

  002ac	8d 55 cc	 lea	 edx, DWORD PTR _rect$[ebp]
  002af	52		 push	 edx
  002b0	6a ff		 push	 -1
  002b2	8b 8d 64 ff ff
	ff		 mov	 ecx, DWORD PTR _this$[ebp]
  002b8	e8 00 00 00 00	 call	 ?GetDlgItem@CWnd@@QBEPAV1@H@Z ; CWnd::GetDlgItem
  002bd	8b c8		 mov	 ecx, eax
  002bf	e8 00 00 00 00	 call	 ?GetWindowRect@CWnd@@QBEXPAUtagRECT@@@Z ; CWnd::GetWindowRect

; 51   : 	POINT point;
; 52   : 	point.x = rect.left;

  002c4	8b 45 cc	 mov	 eax, DWORD PTR _rect$[ebp]
  002c7	89 45 ec	 mov	 DWORD PTR _point$[ebp], eax

; 53   : 	point.y = rect.top;

  002ca	8b 4d d0	 mov	 ecx, DWORD PTR _rect$[ebp+4]
  002cd	89 4d f0	 mov	 DWORD PTR _point$[ebp+4], ecx

; 54   : 	ScreenToClient(&point);

  002d0	8d 55 ec	 lea	 edx, DWORD PTR _point$[ebp]
  002d3	52		 push	 edx
  002d4	8b 8d 64 ff ff
	ff		 mov	 ecx, DWORD PTR _this$[ebp]
  002da	e8 00 00 00 00	 call	 ?ScreenToClient@CWnd@@QBEXPAUtagPOINT@@@Z ; CWnd::ScreenToClient

; 55   :     //
; 56   : 	CRect dlgRc = CRect( point.x,point.y,(rect.right - rect.left)+point.x,(rect.bottom-rect.top)+point.y );

  002df	8b 45 d8	 mov	 eax, DWORD PTR _rect$[ebp+12]
  002e2	2b 45 d0	 sub	 eax, DWORD PTR _rect$[ebp+4]
  002e5	03 45 f0	 add	 eax, DWORD PTR _point$[ebp+4]
  002e8	50		 push	 eax
  002e9	8b 4d d4	 mov	 ecx, DWORD PTR _rect$[ebp+8]
  002ec	2b 4d cc	 sub	 ecx, DWORD PTR _rect$[ebp]
  002ef	03 4d ec	 add	 ecx, DWORD PTR _point$[ebp]
  002f2	51		 push	 ecx
  002f3	8b 55 f0	 mov	 edx, DWORD PTR _point$[ebp+4]
  002f6	52		 push	 edx
  002f7	8b 45 ec	 mov	 eax, DWORD PTR _point$[ebp]
  002fa	50		 push	 eax
  002fb	8d 4d bc	 lea	 ecx, DWORD PTR _dlgRc$[ebp]
  002fe	e8 00 00 00 00	 call	 ??0CRect@@QAE@HHHH@Z	; CRect::CRect

; 57   : 
; 58   : 	m_downDlg.Create( CDownDialog::IDD, this );

  00303	8b 8d 64 ff ff
	ff		 mov	 ecx, DWORD PTR _this$[ebp]
  00309	51		 push	 ecx
  0030a	68 cb 00 00 00	 push	 203			; 000000cbH
  0030f	8b 8d 64 ff ff
	ff		 mov	 ecx, DWORD PTR _this$[ebp]
  00315	83 c1 7c	 add	 ecx, 124		; 0000007cH
  00318	8b 95 64 ff ff
	ff		 mov	 edx, DWORD PTR _this$[ebp]
  0031e	8b 42 7c	 mov	 eax, DWORD PTR [edx+124]
  00321	ff 90 38 01 00
	00		 call	 DWORD PTR [eax+312]

; 59   : 	m_downDlg.m_strAlert = "";

  00327	68 00 00 00 00	 push	 OFFSET FLAT:$SG198482
  0032c	8b 8d 64 ff ff
	ff		 mov	 ecx, DWORD PTR _this$[ebp]
  00332	81 c1 f0 00 00
	00		 add	 ecx, 240		; 000000f0H
  00338	ff 15 00 00 00
	00		 call	 DWORD PTR __imp_??4?$basic_string@DU?$char_traits@D@std@@V?$allocator@D@2@@std@@QAEAAV01@PBD@Z

; 60   : 	
; 61   : 	m_sysDlg.Create( CSysDialog::IDD, this );

  0033e	8b 8d 64 ff ff
	ff		 mov	 ecx, DWORD PTR _this$[ebp]
  00344	51		 push	 ecx
  00345	68 cc 00 00 00	 push	 204			; 000000ccH
  0034a	8b 8d 64 ff ff
	ff		 mov	 ecx, DWORD PTR _this$[ebp]
  00350	81 c1 84 02 00
	00		 add	 ecx, 644		; 00000284H
  00356	8b 95 64 ff ff
	ff		 mov	 edx, DWORD PTR _this$[ebp]
  0035c	8b 82 84 02 00
	00		 mov	 eax, DWORD PTR [edx+644]
  00362	ff 90 38 01 00
	00		 call	 DWORD PTR [eax+312]

; 62   : 	m_sysDlg.m_strAlert = "";

  00368	68 00 00 00 00	 push	 OFFSET FLAT:$SG198483
  0036d	8b 8d 64 ff ff
	ff		 mov	 ecx, DWORD PTR _this$[ebp]
  00373	81 c1 f8 02 00
	00		 add	 ecx, 760		; 000002f8H
  00379	ff 15 00 00 00
	00		 call	 DWORD PTR __imp_??4?$basic_string@DU?$char_traits@D@std@@V?$allocator@D@2@@std@@QAEAAV01@PBD@Z

; 63   : 
; 64   : 	m_mapBase[CONF_IDX_DOWN]  = &m_downDlg;

  0037f	c7 45 a4 00 00
	00 00		 mov	 DWORD PTR $T199824[ebp], 0
  00386	8b b5 64 ff ff
	ff		 mov	 esi, DWORD PTR _this$[ebp]
  0038c	83 c6 7c	 add	 esi, 124		; 0000007cH
  0038f	8d 4d a4	 lea	 ecx, DWORD PTR $T199824[ebp]
  00392	51		 push	 ecx
  00393	8b 8d 64 ff ff
	ff		 mov	 ecx, DWORD PTR _this$[ebp]
  00399	81 c1 d4 04 00
	00		 add	 ecx, 1236		; 000004d4H
  0039f	e8 00 00 00 00	 call	 ??A?$map@HPAVBaseDialog@@U?$less@H@std@@V?$allocator@U?$pair@$$CBHPAVBaseDialog@@@std@@@3@@std@@QAEAAPAVBaseDialog@@ABH@Z ; std::map<int,BaseDialog *,std::less<int>,std::allocator<std::pair<int const ,BaseDialog *> > >::operator[]
  003a4	89 30		 mov	 DWORD PTR [eax], esi

; 65   : 	m_mapBase[CONF_IDX_SYS]   = &m_sysDlg;

  003a6	c7 45 a0 01 00
	00 00		 mov	 DWORD PTR $T199825[ebp], 1
  003ad	8b b5 64 ff ff
	ff		 mov	 esi, DWORD PTR _this$[ebp]
  003b3	81 c6 84 02 00
	00		 add	 esi, 644		; 00000284H
  003b9	8d 55 a0	 lea	 edx, DWORD PTR $T199825[ebp]
  003bc	52		 push	 edx
  003bd	8b 8d 64 ff ff
	ff		 mov	 ecx, DWORD PTR _this$[ebp]
  003c3	81 c1 d4 04 00
	00		 add	 ecx, 1236		; 000004d4H
  003c9	e8 00 00 00 00	 call	 ??A?$map@HPAVBaseDialog@@U?$less@H@std@@V?$allocator@U?$pair@$$CBHPAVBaseDialog@@@std@@@3@@std@@QAEAAPAVBaseDialog@@ABH@Z ; std::map<int,BaseDialog *,std::less<int>,std::allocator<std::pair<int const ,BaseDialog *> > >::operator[]
  003ce	89 30		 mov	 DWORD PTR [eax], esi

; 66   : 
; 67   : 	//wnd
; 68   : 	CRect rc(dlgRc);

  003d0	8b 45 bc	 mov	 eax, DWORD PTR _dlgRc$[ebp]
  003d3	89 45 dc	 mov	 DWORD PTR _rc$[ebp], eax
  003d6	8b 4d c0	 mov	 ecx, DWORD PTR _dlgRc$[ebp+4]
  003d9	89 4d e0	 mov	 DWORD PTR _rc$[ebp+4], ecx
  003dc	8b 55 c4	 mov	 edx, DWORD PTR _dlgRc$[ebp+8]
  003df	89 55 e4	 mov	 DWORD PTR _rc$[ebp+8], edx
  003e2	8b 45 c8	 mov	 eax, DWORD PTR _dlgRc$[ebp+12]
  003e5	89 45 e8	 mov	 DWORD PTR _rc$[ebp+12], eax

; 69   : 	for( int i=0; i<m_mapBase.size(); i++ )

  003e8	c7 45 b8 00 00
	00 00		 mov	 DWORD PTR _i$198487[ebp], 0
  003ef	eb 09		 jmp	 SHORT $L198488
$L198489:
  003f1	8b 4d b8	 mov	 ecx, DWORD PTR _i$198487[ebp]
  003f4	83 c1 01	 add	 ecx, 1
  003f7	89 4d b8	 mov	 DWORD PTR _i$198487[ebp], ecx
$L198488:
  003fa	8b 8d 64 ff ff
	ff		 mov	 ecx, DWORD PTR _this$[ebp]
  00400	81 c1 d4 04 00
	00		 add	 ecx, 1236		; 000004d4H
  00406	e8 00 00 00 00	 call	 ?size@?$_Tree@V?$_Tmap_traits@HPAVBaseDialog@@U?$less@H@std@@V?$allocator@U?$pair@$$CBHPAVBaseDialog@@@std@@@3@$0A@@std@@@std@@QBEIXZ ; std::_Tree<std::_Tmap_traits<int,BaseDialog *,std::less<int>,std::allocator<std::pair<int const ,BaseDialog *> >,0> >::size
  0040b	39 45 b8	 cmp	 DWORD PTR _i$198487[ebp], eax
  0040e	0f 83 86 00 00
	00		 jae	 $L198490

; 70   : 	{
; 71   : 		CRect rcOne;

  00414	8d 4d a8	 lea	 ecx, DWORD PTR _rcOne$198491[ebp]
  00417	e8 00 00 00 00	 call	 ??0CRect@@QAE@XZ	; CRect::CRect

; 72   : 		m_mapBase[i]->GetClientRect(&rcOne);

  0041c	8d 55 a8	 lea	 edx, DWORD PTR _rcOne$198491[ebp]
  0041f	52		 push	 edx
  00420	8d 45 b8	 lea	 eax, DWORD PTR _i$198487[ebp]
  00423	50		 push	 eax
  00424	8b 8d 64 ff ff
	ff		 mov	 ecx, DWORD PTR _this$[ebp]
  0042a	81 c1 d4 04 00
	00		 add	 ecx, 1236		; 000004d4H
  00430	e8 00 00 00 00	 call	 ??A?$map@HPAVBaseDialog@@U?$less@H@std@@V?$allocator@U?$pair@$$CBHPAVBaseDialog@@@std@@@3@@std@@QAEAAPAVBaseDialog@@ABH@Z ; std::map<int,BaseDialog *,std::less<int>,std::allocator<std::pair<int const ,BaseDialog *> > >::operator[]
  00435	8b 08		 mov	 ecx, DWORD PTR [eax]
  00437	e8 00 00 00 00	 call	 ?GetClientRect@CWnd@@QBEXPAUtagRECT@@@Z ; CWnd::GetClientRect

; 73   : 
; 74   : 		rc.bottom = rc.top + rcOne.Height();

  0043c	8d 4d a8	 lea	 ecx, DWORD PTR _rcOne$198491[ebp]
  0043f	e8 00 00 00 00	 call	 ?Height@CRect@@QBEHXZ	; CRect::Height
  00444	03 45 e0	 add	 eax, DWORD PTR _rc$[ebp+4]
  00447	89 45 e8	 mov	 DWORD PTR _rc$[ebp+12], eax

; 75   : 		m_mapBase[i]->MoveWindow( rc );

  0044a	6a 01		 push	 1
  0044c	8d 4d dc	 lea	 ecx, DWORD PTR _rc$[ebp]
  0044f	e8 00 00 00 00	 call	 ??BCRect@@QAEPAUtagRECT@@XZ ; CRect::operator tagRECT *
  00454	50		 push	 eax
  00455	8d 4d b8	 lea	 ecx, DWORD PTR _i$198487[ebp]
  00458	51		 push	 ecx
  00459	8b 8d 64 ff ff
	ff		 mov	 ecx, DWORD PTR _this$[ebp]
  0045f	81 c1 d4 04 00
	00		 add	 ecx, 1236		; 000004d4H
  00465	e8 00 00 00 00	 call	 ??A?$map@HPAVBaseDialog@@U?$less@H@std@@V?$allocator@U?$pair@$$CBHPAVBaseDialog@@@std@@@3@@std@@QAEAAPAVBaseDialog@@ABH@Z ; std::map<int,BaseDialog *,std::less<int>,std::allocator<std::pair<int const ,BaseDialog *> > >::operator[]
  0046a	8b 08		 mov	 ecx, DWORD PTR [eax]
  0046c	e8 00 00 00 00	 call	 ?MoveWindow@CWnd@@QAEXPBUtagRECT@@H@Z ; CWnd::MoveWindow

; 76   : 		m_mapBase[i]->ShowWindow(SW_SHOW);

  00471	6a 05		 push	 5
  00473	8d 55 b8	 lea	 edx, DWORD PTR _i$198487[ebp]
  00476	52		 push	 edx
  00477	8b 8d 64 ff ff
	ff		 mov	 ecx, DWORD PTR _this$[ebp]
  0047d	81 c1 d4 04 00
	00		 add	 ecx, 1236		; 000004d4H
  00483	e8 00 00 00 00	 call	 ??A?$map@HPAVBaseDialog@@U?$less@H@std@@V?$allocator@U?$pair@$$CBHPAVBaseDialog@@@std@@@3@@std@@QAEAAPAVBaseDialog@@ABH@Z ; std::map<int,BaseDialog *,std::less<int>,std::allocator<std::pair<int const ,BaseDialog *> > >::operator[]
  00488	8b 08		 mov	 ecx, DWORD PTR [eax]
  0048a	e8 00 00 00 00	 call	 ?ShowWindow@CWnd@@QAEHH@Z ; CWnd::ShowWindow

; 77   : 
; 78   : 		rc.top = rc.bottom;

  0048f	8b 45 e8	 mov	 eax, DWORD PTR _rc$[ebp+12]
  00492	89 45 e0	 mov	 DWORD PTR _rc$[ebp+4], eax

; 79   : 	}

  00495	e9 57 ff ff ff	 jmp	 $L198489
$L198490:

; 80   : 
; 81   : 	if( m_bFullScreen )

  0049a	8b 8d 64 ff ff
	ff		 mov	 ecx, DWORD PTR _this$[ebp]
  004a0	83 b9 e0 04 00
	00 00		 cmp	 DWORD PTR [ecx+1248], 0
  004a7	74 1c		 je	 SHORT $L198492

; 82   : 	{
; 83   : 		::SetWindowPos(m_hWnd,HWND_TOPMOST,0,0,0,0,SWP_NOSIZE|SWP_NOMOVE);

  004a9	6a 03		 push	 3
  004ab	6a 00		 push	 0
  004ad	6a 00		 push	 0
  004af	6a 00		 push	 0
  004b1	6a 00		 push	 0
  004b3	6a ff		 push	 -1
  004b5	8b 95 64 ff ff
	ff		 mov	 edx, DWORD PTR _this$[ebp]
  004bb	8b 42 20	 mov	 eax, DWORD PTR [edx+32]
  004be	50		 push	 eax
  004bf	ff 15 00 00 00
	00		 call	 DWORD PTR __imp__SetWindowPos@28
$L198492:

; 84   : 	}
; 85   : 
; 86   : 	YL_Log("AddDlg.txt",LOG_DEBUG,"add","ConfigDlg");

  004c5	68 00 00 00 00	 push	 OFFSET FLAT:$SG198497
  004ca	8d 4d 84	 lea	 ecx, DWORD PTR $T199826[ebp]
  004cd	ff 15 00 00 00
	00		 call	 DWORD PTR __imp_??0?$basic_string@DU?$char_traits@D@std@@V?$allocator@D@2@@std@@QAE@PBD@Z
  004d3	c7 45 fc 00 00
	00 00		 mov	 DWORD PTR __$EHRec$[ebp+8], 0
  004da	68 00 00 00 00	 push	 OFFSET FLAT:$SG198498
  004df	8d 8d 68 ff ff
	ff		 lea	 ecx, DWORD PTR $T199827[ebp]
  004e5	ff 15 00 00 00
	00		 call	 DWORD PTR __imp_??0?$basic_string@DU?$char_traits@D@std@@V?$allocator@D@2@@std@@QAE@PBD@Z
  004eb	c6 45 fc 01	 mov	 BYTE PTR __$EHRec$[ebp+8], 1
  004ef	68 00 00 00 00	 push	 OFFSET FLAT:$SG198496
  004f4	8d 4d 84	 lea	 ecx, DWORD PTR $T199826[ebp]
  004f7	51		 push	 ecx
  004f8	6a 00		 push	 0
  004fa	8d 95 68 ff ff
	ff		 lea	 edx, DWORD PTR $T199827[ebp]
  00500	52		 push	 edx
  00501	ff 15 00 00 00
	00		 call	 DWORD PTR __imp_?YL_Log@@YAXABV?$basic_string@DU?$char_traits@D@std@@V?$allocator@D@2@@std@@H0PBDZZ
  00507	83 c4 10	 add	 esp, 16			; 00000010H
  0050a	c6 45 fc 00	 mov	 BYTE PTR __$EHRec$[ebp+8], 0
  0050e	8d 8d 68 ff ff
	ff		 lea	 ecx, DWORD PTR $T199827[ebp]
  00514	ff 15 00 00 00
	00		 call	 DWORD PTR __imp_??1?$basic_string@DU?$char_traits@D@std@@V?$allocator@D@2@@std@@QAE@XZ
  0051a	c7 45 fc ff ff
	ff ff		 mov	 DWORD PTR __$EHRec$[ebp+8], -1
  00521	8d 4d 84	 lea	 ecx, DWORD PTR $T199826[ebp]
  00524	ff 15 00 00 00
	00		 call	 DWORD PTR __imp_??1?$basic_string@DU?$char_traits@D@std@@V?$allocator@D@2@@std@@QAE@XZ

; 87   : 	AfxGetUIManager()->UIAddDialog(this);

  0052a	e8 00 00 00 00	 call	 ?AfxGetUIManager@@YAPAVIUIManager@@XZ ; AfxGetUIManager
  0052f	89 85 60 ff ff
	ff		 mov	 DWORD PTR tv215[ebp], eax
  00535	8b 85 64 ff ff
	ff		 mov	 eax, DWORD PTR _this$[ebp]
  0053b	50		 push	 eax
  0053c	8b 8d 60 ff ff
	ff		 mov	 ecx, DWORD PTR tv215[ebp]
  00542	8b 11		 mov	 edx, DWORD PTR [ecx]
  00544	8b 8d 60 ff ff
	ff		 mov	 ecx, DWORD PTR tv215[ebp]
  0054a	ff 52 14	 call	 DWORD PTR [edx+20]

; 88   : 	AfxGetMessageManager()->AttachMessage( ID_MESSAGE_APPEXIT,this );

  0054d	83 bd 64 ff ff
	ff 00		 cmp	 DWORD PTR _this$[ebp], 0
  00554	75 0c		 jne	 SHORT $L199828
  00556	c7 85 5c ff ff
	ff 00 00 00 00	 mov	 DWORD PTR tv230[ebp], 0
  00560	eb 1c		 jmp	 SHORT $L199829
$L199828:
  00562	8b 85 64 ff ff
	ff		 mov	 eax, DWORD PTR _this$[ebp]
  00568	8b 48 78	 mov	 ecx, DWORD PTR [eax+120]
  0056b	8b 51 04	 mov	 edx, DWORD PTR [ecx+4]
  0056e	8b 85 64 ff ff
	ff		 mov	 eax, DWORD PTR _this$[ebp]
  00574	8d 4c 10 78	 lea	 ecx, DWORD PTR [eax+edx+120]
  00578	89 8d 5c ff ff
	ff		 mov	 DWORD PTR tv230[ebp], ecx
$L199829:
  0057e	e8 00 00 00 00	 call	 ?AfxGetMessageManager@@YAPAVIMessageManager@@XZ ; AfxGetMessageManager
  00583	89 85 58 ff ff
	ff		 mov	 DWORD PTR tv221[ebp], eax
  00589	6a 02		 push	 2
  0058b	8b 95 5c ff ff
	ff		 mov	 edx, DWORD PTR tv230[ebp]
  00591	52		 push	 edx
  00592	68 00 00 00 00	 push	 OFFSET FLAT:_ID_MESSAGE_APPEXIT
  00597	8b 85 58 ff ff
	ff		 mov	 eax, DWORD PTR tv221[ebp]
  0059d	8b 10		 mov	 edx, DWORD PTR [eax]
  0059f	8b 8d 58 ff ff
	ff		 mov	 ecx, DWORD PTR tv221[ebp]
  005a5	ff 52 04	 call	 DWORD PTR [edx+4]

; 89   : 	return TRUE; 

  005a8	b8 01 00 00 00	 mov	 eax, 1

; 90   : }

  005ad	8b 4d f4	 mov	 ecx, DWORD PTR __$EHRec$[ebp]
  005b0	64 89 0d 00 00
	00 00		 mov	 DWORD PTR fs:__except_list, ecx
  005b7	5e		 pop	 esi
  005b8	8b e5		 mov	 esp, ebp
  005ba	5d		 pop	 ebp
  005bb	c3		 ret	 0
_TEXT	ENDS
text$x	SEGMENT
$L199830:
  000aa	8d 4d 84	 lea	 ecx, DWORD PTR $T199826[ebp]
  000ad	ff 25 00 00 00
	00		 jmp	 DWORD PTR __imp_??1?$basic_string@DU?$char_traits@D@std@@V?$allocator@D@2@@std@@QAE@XZ
$L199831:
  000b3	8d 8d 68 ff ff
	ff		 lea	 ecx, DWORD PTR $T199827[ebp]
  000b9	ff 25 00 00 00
	00		 jmp	 DWORD PTR __imp_??1?$basic_string@DU?$char_traits@D@std@@V?$allocator@D@2@@std@@QAE@XZ
__ehhandler$?OnInitDialog@CConfigDialog@@MAEHXZ:
  000bf	b8 00 00 00 00	 mov	 eax, OFFSET FLAT:$T199833
  000c4	e9 00 00 00 00	 jmp	 ___CxxFrameHandler
text$x	ENDS
?OnInitDialog@CConfigDialog@@MAEHXZ ENDP		; CConfigDialog::OnInitDialog
PUBLIC	?OnClickedOK@CConfigDialog@@IAEXXZ		; CConfigDialog::OnClickedOK
PUBLIC	?IsAllInputOK@CConfigDialog@@IAE_NXZ		; CConfigDialog::IsAllInputOK
xdata$x	SEGMENT
$T199846 DD	0ffffffffH
	DD	FLAT:$L199841
	DD	00H
	DD	FLAT:$L199842
$T199844 DD	019930520H
	DD	02H
	DD	FLAT:$T199846
	DD	2 DUP(00H)
	DD	2 DUP(00H)
; Function compile flags: /Odt
xdata$x	ENDS
_TEXT	SEGMENT
tv151 = -100						; size = 4
tv159 = -96						; size = 4
tv145 = -92						; size = 4
tv128 = -88						; size = 4
tv80 = -84						; size = 4
_this$ = -80						; size = 4
$T199838 = -76						; size = 28
$T199837 = -48						; size = 28
_i$198507 = -20						; size = 4
_i$198503 = -16						; size = 4
__$EHRec$ = -12						; size = 12
?OnClickedOK@CConfigDialog@@IAEXXZ PROC NEAR		; CConfigDialog::OnClickedOK
; _this$ = ecx

; 93   : {

  005c0	55		 push	 ebp
  005c1	8b ec		 mov	 ebp, esp
  005c3	6a ff		 push	 -1
  005c5	68 00 00 00 00	 push	 __ehhandler$?OnClickedOK@CConfigDialog@@IAEXXZ
  005ca	64 a1 00 00 00
	00		 mov	 eax, DWORD PTR fs:__except_list
  005d0	50		 push	 eax
  005d1	64 89 25 00 00
	00 00		 mov	 DWORD PTR fs:__except_list, esp
  005d8	83 ec 58	 sub	 esp, 88			; 00000058H
  005db	89 4d b0	 mov	 DWORD PTR _this$[ebp], ecx

; 94   : 	//
; 95   : 	if( !IsAllInputOK() )

  005de	8b 4d b0	 mov	 ecx, DWORD PTR _this$[ebp]
  005e1	e8 00 00 00 00	 call	 ?IsAllInputOK@CConfigDialog@@IAE_NXZ ; CConfigDialog::IsAllInputOK
  005e6	0f b6 c0	 movzx	 eax, al
  005e9	85 c0		 test	 eax, eax
  005eb	75 05		 jne	 SHORT $L198502

; 96   : 		return;

  005ed	e9 60 01 00 00	 jmp	 $L198501
$L198502:

; 97   : 	//
; 98   : 	for( int i=0; i<m_mapBase.size(); i++ )

  005f2	c7 45 f0 00 00
	00 00		 mov	 DWORD PTR _i$198503[ebp], 0
  005f9	eb 09		 jmp	 SHORT $L198504
$L198505:
  005fb	8b 4d f0	 mov	 ecx, DWORD PTR _i$198503[ebp]
  005fe	83 c1 01	 add	 ecx, 1
  00601	89 4d f0	 mov	 DWORD PTR _i$198503[ebp], ecx
$L198504:
  00604	8b 4d b0	 mov	 ecx, DWORD PTR _this$[ebp]
  00607	81 c1 d4 04 00
	00		 add	 ecx, 1236		; 000004d4H
  0060d	e8 00 00 00 00	 call	 ?size@?$_Tree@V?$_Tmap_traits@HPAVBaseDialog@@U?$less@H@std@@V?$allocator@U?$pair@$$CBHPAVBaseDialog@@@std@@@3@$0A@@std@@@std@@QBEIXZ ; std::_Tree<std::_Tmap_traits<int,BaseDialog *,std::less<int>,std::allocator<std::pair<int const ,BaseDialog *> >,0> >::size
  00612	39 45 f0	 cmp	 DWORD PTR _i$198503[ebp], eax
  00615	73 29		 jae	 SHORT $L198506

; 99   : 	{
; 100  : 		m_mapBase[i]->SaveConf();

  00617	8d 55 f0	 lea	 edx, DWORD PTR _i$198503[ebp]
  0061a	52		 push	 edx
  0061b	8b 4d b0	 mov	 ecx, DWORD PTR _this$[ebp]
  0061e	81 c1 d4 04 00
	00		 add	 ecx, 1236		; 000004d4H
  00624	e8 00 00 00 00	 call	 ??A?$map@HPAVBaseDialog@@U?$less@H@std@@V?$allocator@U?$pair@$$CBHPAVBaseDialog@@@std@@@3@@std@@QAEAAPAVBaseDialog@@ABH@Z ; std::map<int,BaseDialog *,std::less<int>,std::allocator<std::pair<int const ,BaseDialog *> > >::operator[]
  00629	8b 00		 mov	 eax, DWORD PTR [eax]
  0062b	89 45 ac	 mov	 DWORD PTR tv80[ebp], eax
  0062e	6a 01		 push	 1
  00630	8b 4d ac	 mov	 ecx, DWORD PTR tv80[ebp]
  00633	8b 11		 mov	 edx, DWORD PTR [ecx]
  00635	8b 4d ac	 mov	 ecx, DWORD PTR tv80[ebp]
  00638	ff 92 6c 01 00
	00		 call	 DWORD PTR [edx+364]

; 101  : 	}

  0063e	eb bb		 jmp	 SHORT $L198505
$L198506:

; 102  : 	//
; 103  : 	for( int i=0; i<m_mapBase.size(); i++ )

  00640	c7 45 ec 00 00
	00 00		 mov	 DWORD PTR _i$198507[ebp], 0
  00647	eb 09		 jmp	 SHORT $L198508
$L198509:
  00649	8b 45 ec	 mov	 eax, DWORD PTR _i$198507[ebp]
  0064c	83 c0 01	 add	 eax, 1
  0064f	89 45 ec	 mov	 DWORD PTR _i$198507[ebp], eax
$L198508:
  00652	8b 4d b0	 mov	 ecx, DWORD PTR _this$[ebp]
  00655	81 c1 d4 04 00
	00		 add	 ecx, 1236		; 000004d4H
  0065b	e8 00 00 00 00	 call	 ?size@?$_Tree@V?$_Tmap_traits@HPAVBaseDialog@@U?$less@H@std@@V?$allocator@U?$pair@$$CBHPAVBaseDialog@@@std@@@3@$0A@@std@@@std@@QBEIXZ ; std::_Tree<std::_Tmap_traits<int,BaseDialog *,std::less<int>,std::allocator<std::pair<int const ,BaseDialog *> >,0> >::size
  00660	39 45 ec	 cmp	 DWORD PTR _i$198507[ebp], eax
  00663	73 24		 jae	 SHORT $L198510

; 104  : 	{
; 105  : 		m_mapBase[i]->DestroyWindow();

  00665	8d 4d ec	 lea	 ecx, DWORD PTR _i$198507[ebp]
  00668	51		 push	 ecx
  00669	8b 4d b0	 mov	 ecx, DWORD PTR _this$[ebp]
  0066c	81 c1 d4 04 00
	00		 add	 ecx, 1236		; 000004d4H
  00672	e8 00 00 00 00	 call	 ??A?$map@HPAVBaseDialog@@U?$less@H@std@@V?$allocator@U?$pair@$$CBHPAVBaseDialog@@@std@@@3@@std@@QAEAAPAVBaseDialog@@ABH@Z ; std::map<int,BaseDialog *,std::less<int>,std::allocator<std::pair<int const ,BaseDialog *> > >::operator[]
  00677	8b 10		 mov	 edx, DWORD PTR [eax]
  00679	89 55 a8	 mov	 DWORD PTR tv128[ebp], edx
  0067c	8b 45 a8	 mov	 eax, DWORD PTR tv128[ebp]
  0067f	8b 10		 mov	 edx, DWORD PTR [eax]
  00681	8b 4d a8	 mov	 ecx, DWORD PTR tv128[ebp]
  00684	ff 52 68	 call	 DWORD PTR [edx+104]

; 106  : 	}

  00687	eb c0		 jmp	 SHORT $L198509
$L198510:

; 107  : 	g_hLastConfWnd = NULL;

  00689	c7 05 00 00 00
	00 00 00 00 00	 mov	 DWORD PTR ?g_hLastConfWnd@@3PAUHWND__@@A, 0 ; g_hLastConfWnd

; 108  : 
; 109  : 	YL_Log("AddDlg.txt",LOG_DEBUG,"remove","ConfigDlg");

  00693	68 00 00 00 00	 push	 OFFSET FLAT:$SG198514
  00698	8d 4d d0	 lea	 ecx, DWORD PTR $T199837[ebp]
  0069b	ff 15 00 00 00
	00		 call	 DWORD PTR __imp_??0?$basic_string@DU?$char_traits@D@std@@V?$allocator@D@2@@std@@QAE@PBD@Z
  006a1	c7 45 fc 00 00
	00 00		 mov	 DWORD PTR __$EHRec$[ebp+8], 0
  006a8	68 00 00 00 00	 push	 OFFSET FLAT:$SG198515
  006ad	8d 4d b4	 lea	 ecx, DWORD PTR $T199838[ebp]
  006b0	ff 15 00 00 00
	00		 call	 DWORD PTR __imp_??0?$basic_string@DU?$char_traits@D@std@@V?$allocator@D@2@@std@@QAE@PBD@Z
  006b6	c6 45 fc 01	 mov	 BYTE PTR __$EHRec$[ebp+8], 1
  006ba	68 00 00 00 00	 push	 OFFSET FLAT:$SG198513
  006bf	8d 45 d0	 lea	 eax, DWORD PTR $T199837[ebp]
  006c2	50		 push	 eax
  006c3	6a 00		 push	 0
  006c5	8d 4d b4	 lea	 ecx, DWORD PTR $T199838[ebp]
  006c8	51		 push	 ecx
  006c9	ff 15 00 00 00
	00		 call	 DWORD PTR __imp_?YL_Log@@YAXABV?$basic_string@DU?$char_traits@D@std@@V?$allocator@D@2@@std@@H0PBDZZ
  006cf	83 c4 10	 add	 esp, 16			; 00000010H
  006d2	c6 45 fc 00	 mov	 BYTE PTR __$EHRec$[ebp+8], 0
  006d6	8d 4d b4	 lea	 ecx, DWORD PTR $T199838[ebp]
  006d9	ff 15 00 00 00
	00		 call	 DWORD PTR __imp_??1?$basic_string@DU?$char_traits@D@std@@V?$allocator@D@2@@std@@QAE@XZ
  006df	c7 45 fc ff ff
	ff ff		 mov	 DWORD PTR __$EHRec$[ebp+8], -1
  006e6	8d 4d d0	 lea	 ecx, DWORD PTR $T199837[ebp]
  006e9	ff 15 00 00 00
	00		 call	 DWORD PTR __imp_??1?$basic_string@DU?$char_traits@D@std@@V?$allocator@D@2@@std@@QAE@XZ

; 110  : 	AfxGetUIManager()->UIRemoveDialog(this);

  006ef	e8 00 00 00 00	 call	 ?AfxGetUIManager@@YAPAVIUIManager@@XZ ; AfxGetUIManager
  006f4	89 45 a4	 mov	 DWORD PTR tv145[ebp], eax
  006f7	8b 55 b0	 mov	 edx, DWORD PTR _this$[ebp]
  006fa	52		 push	 edx
  006fb	8b 45 a4	 mov	 eax, DWORD PTR tv145[ebp]
  006fe	8b 10		 mov	 edx, DWORD PTR [eax]
  00700	8b 4d a4	 mov	 ecx, DWORD PTR tv145[ebp]
  00703	ff 52 1c	 call	 DWORD PTR [edx+28]

; 111  : 	AfxGetMessageManager()->DetachMessage( ID_MESSAGE_APPEXIT,this );

  00706	83 7d b0 00	 cmp	 DWORD PTR _this$[ebp], 0
  0070a	75 09		 jne	 SHORT $L199839
  0070c	c7 45 a0 00 00
	00 00		 mov	 DWORD PTR tv159[ebp], 0
  00713	eb 13		 jmp	 SHORT $L199840
$L199839:
  00715	8b 45 b0	 mov	 eax, DWORD PTR _this$[ebp]
  00718	8b 48 78	 mov	 ecx, DWORD PTR [eax+120]
  0071b	8b 51 04	 mov	 edx, DWORD PTR [ecx+4]
  0071e	8b 45 b0	 mov	 eax, DWORD PTR _this$[ebp]
  00721	8d 4c 10 78	 lea	 ecx, DWORD PTR [eax+edx+120]
  00725	89 4d a0	 mov	 DWORD PTR tv159[ebp], ecx
$L199840:
  00728	e8 00 00 00 00	 call	 ?AfxGetMessageManager@@YAPAVIMessageManager@@XZ ; AfxGetMessageManager
  0072d	89 45 9c	 mov	 DWORD PTR tv151[ebp], eax
  00730	8b 55 a0	 mov	 edx, DWORD PTR tv159[ebp]
  00733	52		 push	 edx
  00734	68 00 00 00 00	 push	 OFFSET FLAT:_ID_MESSAGE_APPEXIT
  00739	8b 45 9c	 mov	 eax, DWORD PTR tv151[ebp]
  0073c	8b 10		 mov	 edx, DWORD PTR [eax]
  0073e	8b 4d 9c	 mov	 ecx, DWORD PTR tv151[ebp]
  00741	ff 52 08	 call	 DWORD PTR [edx+8]

; 112  : 	OnOK();

  00744	8b 45 b0	 mov	 eax, DWORD PTR _this$[ebp]
  00747	8b 10		 mov	 edx, DWORD PTR [eax]
  00749	8b 4d b0	 mov	 ecx, DWORD PTR _this$[ebp]
  0074c	ff 92 54 01 00
	00		 call	 DWORD PTR [edx+340]
$L198501:

; 113  : }

  00752	8b 4d f4	 mov	 ecx, DWORD PTR __$EHRec$[ebp]
  00755	64 89 0d 00 00
	00 00		 mov	 DWORD PTR fs:__except_list, ecx
  0075c	8b e5		 mov	 esp, ebp
  0075e	5d		 pop	 ebp
  0075f	c3		 ret	 0
_TEXT	ENDS
text$x	SEGMENT
$L199841:
  000c9	8d 4d d0	 lea	 ecx, DWORD PTR $T199837[ebp]
  000cc	ff 25 00 00 00
	00		 jmp	 DWORD PTR __imp_??1?$basic_string@DU?$char_traits@D@std@@V?$allocator@D@2@@std@@QAE@XZ
$L199842:
  000d2	8d 4d b4	 lea	 ecx, DWORD PTR $T199838[ebp]
  000d5	ff 25 00 00 00
	00		 jmp	 DWORD PTR __imp_??1?$basic_string@DU?$char_traits@D@std@@V?$allocator@D@2@@std@@QAE@XZ
__ehhandler$?OnClickedOK@CConfigDialog@@IAEXXZ:
  000db	b8 00 00 00 00	 mov	 eax, OFFSET FLAT:$T199844
  000e0	e9 00 00 00 00	 jmp	 ___CxxFrameHandler
text$x	ENDS
?OnClickedOK@CConfigDialog@@IAEXXZ ENDP			; CConfigDialog::OnClickedOK
EXTRN	__imp_?c_str@?$basic_string@DU?$char_traits@D@std@@V?$allocator@D@2@@std@@QBEPBDXZ:NEAR
EXTRN	__imp_?length@?$basic_string@DU?$char_traits@D@std@@V?$allocator@D@2@@std@@QBEIXZ:NEAR
EXTRN	___security_cookie:DWORD
EXTRN	@__security_check_cookie@4:NEAR
EXTRN	?MessageBoxA@CWnd@@QAEHPBD0I@Z:NEAR		; CWnd::MessageBoxA
EXTRN	__imp_??0?$basic_string@DU?$char_traits@D@std@@V?$allocator@D@2@@std@@QAE@XZ:NEAR
xdata$x	SEGMENT
$T199858 DD	0ffffffffH
	DD	FLAT:$L199851
$T199853 DD	019930520H
	DD	01H
	DD	FLAT:$T199858
	DD	2 DUP(00H)
	DD	2 DUP(00H)
; Function compile flags: /Odt
xdata$x	ENDS
_TEXT	SEGMENT
tv79 = -60						; size = 4
_this$ = -56						; size = 4
$T199850 = -50						; size = 1
$T199849 = -49						; size = 1
_i$198520 = -48						; size = 4
_strMsg$ = -44						; size = 28
__$ArrayPad$ = -16					; size = 4
__$EHRec$ = -12						; size = 12
__$ReturnAddr$ = 4					; size = 4
?IsAllInputOK@CConfigDialog@@IAE_NXZ PROC NEAR		; CConfigDialog::IsAllInputOK
; _this$ = ecx

; 116  : {

  00760	55		 push	 ebp
  00761	8b ec		 mov	 ebp, esp
  00763	6a ff		 push	 -1
  00765	68 00 00 00 00	 push	 __ehhandler$?IsAllInputOK@CConfigDialog@@IAE_NXZ
  0076a	64 a1 00 00 00
	00		 mov	 eax, DWORD PTR fs:__except_list
  00770	50		 push	 eax
  00771	64 89 25 00 00
	00 00		 mov	 DWORD PTR fs:__except_list, esp
  00778	83 ec 30	 sub	 esp, 48			; 00000030H
  0077b	a1 00 00 00 00	 mov	 eax, DWORD PTR ___security_cookie
  00780	89 45 f0	 mov	 DWORD PTR __$ArrayPad$[ebp], eax
  00783	89 4d c8	 mov	 DWORD PTR _this$[ebp], ecx

; 117  : 	string strMsg;

  00786	8d 4d d4	 lea	 ecx, DWORD PTR _strMsg$[ebp]
  00789	ff 15 00 00 00
	00		 call	 DWORD PTR __imp_??0?$basic_string@DU?$char_traits@D@std@@V?$allocator@D@2@@std@@QAE@XZ
  0078f	c7 45 fc 00 00
	00 00		 mov	 DWORD PTR __$EHRec$[ebp+8], 0

; 118  : 	for( int i=0; i<m_mapBase.size(); i++ )

  00796	c7 45 d0 00 00
	00 00		 mov	 DWORD PTR _i$198520[ebp], 0
  0079d	eb 09		 jmp	 SHORT $L198521
$L198522:
  0079f	8b 45 d0	 mov	 eax, DWORD PTR _i$198520[ebp]
  007a2	83 c0 01	 add	 eax, 1
  007a5	89 45 d0	 mov	 DWORD PTR _i$198520[ebp], eax
$L198521:
  007a8	8b 4d c8	 mov	 ecx, DWORD PTR _this$[ebp]
  007ab	81 c1 d4 04 00
	00		 add	 ecx, 1236		; 000004d4H
  007b1	e8 00 00 00 00	 call	 ?size@?$_Tree@V?$_Tmap_traits@HPAVBaseDialog@@U?$less@H@std@@V?$allocator@U?$pair@$$CBHPAVBaseDialog@@@std@@@3@$0A@@std@@@std@@QBEIXZ ; std::_Tree<std::_Tmap_traits<int,BaseDialog *,std::less<int>,std::allocator<std::pair<int const ,BaseDialog *> >,0> >::size
  007b6	39 45 d0	 cmp	 DWORD PTR _i$198520[ebp], eax
  007b9	0f 83 8d 00 00
	00		 jae	 $L198523

; 119  : 	{
; 120  : 		if( !m_mapBase[i]->IsAllInputOK( strMsg ) )

  007bf	8d 4d d0	 lea	 ecx, DWORD PTR _i$198520[ebp]
  007c2	51		 push	 ecx
  007c3	8b 4d c8	 mov	 ecx, DWORD PTR _this$[ebp]
  007c6	81 c1 d4 04 00
	00		 add	 ecx, 1236		; 000004d4H
  007cc	e8 00 00 00 00	 call	 ??A?$map@HPAVBaseDialog@@U?$less@H@std@@V?$allocator@U?$pair@$$CBHPAVBaseDialog@@@std@@@3@@std@@QAEAAPAVBaseDialog@@ABH@Z ; std::map<int,BaseDialog *,std::less<int>,std::allocator<std::pair<int const ,BaseDialog *> > >::operator[]
  007d1	8b 10		 mov	 edx, DWORD PTR [eax]
  007d3	89 55 c4	 mov	 DWORD PTR tv79[ebp], edx
  007d6	8d 45 d4	 lea	 eax, DWORD PTR _strMsg$[ebp]
  007d9	50		 push	 eax
  007da	8b 4d c4	 mov	 ecx, DWORD PTR tv79[ebp]
  007dd	8b 11		 mov	 edx, DWORD PTR [ecx]
  007df	8b 4d c4	 mov	 ecx, DWORD PTR tv79[ebp]
  007e2	ff 92 70 01 00
	00		 call	 DWORD PTR [edx+368]
  007e8	0f b6 c0	 movzx	 eax, al
  007eb	85 c0		 test	 eax, eax
  007ed	75 58		 jne	 SHORT $L198524

; 121  : 		{
; 122  : 			if( strMsg.length() != 0 )

  007ef	8d 4d d4	 lea	 ecx, DWORD PTR _strMsg$[ebp]
  007f2	ff 15 00 00 00
	00		 call	 DWORD PTR __imp_?length@?$basic_string@DU?$char_traits@D@std@@V?$allocator@D@2@@std@@QBEIXZ
  007f8	85 c0		 test	 eax, eax
  007fa	74 32		 je	 SHORT $L198525

; 123  : 			{
; 124  : 				MessageBox( strMsg.c_str(), m_mapBase[i]->m_strAlert.c_str() );

  007fc	6a 00		 push	 0
  007fe	8d 4d d0	 lea	 ecx, DWORD PTR _i$198520[ebp]
  00801	51		 push	 ecx
  00802	8b 4d c8	 mov	 ecx, DWORD PTR _this$[ebp]
  00805	81 c1 d4 04 00
	00		 add	 ecx, 1236		; 000004d4H
  0080b	e8 00 00 00 00	 call	 ??A?$map@HPAVBaseDialog@@U?$less@H@std@@V?$allocator@U?$pair@$$CBHPAVBaseDialog@@@std@@@3@@std@@QAEAAPAVBaseDialog@@ABH@Z ; std::map<int,BaseDialog *,std::less<int>,std::allocator<std::pair<int const ,BaseDialog *> > >::operator[]
  00810	8b 08		 mov	 ecx, DWORD PTR [eax]
  00812	83 c1 74	 add	 ecx, 116		; 00000074H
  00815	ff 15 00 00 00
	00		 call	 DWORD PTR __imp_?c_str@?$basic_string@DU?$char_traits@D@std@@V?$allocator@D@2@@std@@QBEPBDXZ
  0081b	50		 push	 eax
  0081c	8d 4d d4	 lea	 ecx, DWORD PTR _strMsg$[ebp]
  0081f	ff 15 00 00 00
	00		 call	 DWORD PTR __imp_?c_str@?$basic_string@DU?$char_traits@D@std@@V?$allocator@D@2@@std@@QBEPBDXZ
  00825	50		 push	 eax
  00826	8b 4d c8	 mov	 ecx, DWORD PTR _this$[ebp]
  00829	e8 00 00 00 00	 call	 ?MessageBoxA@CWnd@@QAEHPBD0I@Z ; CWnd::MessageBoxA
$L198525:

; 125  : 			}		
; 126  : 			return false;

  0082e	c6 45 cf 00	 mov	 BYTE PTR $T199849[ebp], 0
  00832	c7 45 fc ff ff
	ff ff		 mov	 DWORD PTR __$EHRec$[ebp+8], -1
  00839	8d 4d d4	 lea	 ecx, DWORD PTR _strMsg$[ebp]
  0083c	ff 15 00 00 00
	00		 call	 DWORD PTR __imp_??1?$basic_string@DU?$char_traits@D@std@@V?$allocator@D@2@@std@@QAE@XZ
  00842	8a 45 cf	 mov	 al, BYTE PTR $T199849[ebp]
  00845	eb 1c		 jmp	 SHORT $L198518
$L198524:

; 127  : 		}
; 128  : 	}

  00847	e9 53 ff ff ff	 jmp	 $L198522
$L198523:

; 129  : 	return true;

  0084c	c6 45 ce 01	 mov	 BYTE PTR $T199850[ebp], 1
  00850	c7 45 fc ff ff
	ff ff		 mov	 DWORD PTR __$EHRec$[ebp+8], -1
  00857	8d 4d d4	 lea	 ecx, DWORD PTR _strMsg$[ebp]
  0085a	ff 15 00 00 00
	00		 call	 DWORD PTR __imp_??1?$basic_string@DU?$char_traits@D@std@@V?$allocator@D@2@@std@@QAE@XZ
  00860	8a 45 ce	 mov	 al, BYTE PTR $T199850[ebp]
$L198518:

; 130  : }

  00863	8b 4d f4	 mov	 ecx, DWORD PTR __$EHRec$[ebp]
  00866	64 89 0d 00 00
	00 00		 mov	 DWORD PTR fs:__except_list, ecx
  0086d	8b 4d f0	 mov	 ecx, DWORD PTR __$ArrayPad$[ebp]
  00870	e8 00 00 00 00	 call	 @__security_check_cookie@4
  00875	8b e5		 mov	 esp, ebp
  00877	5d		 pop	 ebp
  00878	c3		 ret	 0
_TEXT	ENDS
text$x	SEGMENT
$L199851:
  000e5	8d 4d d4	 lea	 ecx, DWORD PTR _strMsg$[ebp]
  000e8	ff 25 00 00 00
	00		 jmp	 DWORD PTR __imp_??1?$basic_string@DU?$char_traits@D@std@@V?$allocator@D@2@@std@@QAE@XZ
__ehhandler$?IsAllInputOK@CConfigDialog@@IAE_NXZ:
  000ee	b8 00 00 00 00	 mov	 eax, OFFSET FLAT:$T199853
  000f3	e9 00 00 00 00	 jmp	 ___CxxFrameHandler
text$x	ENDS
?IsAllInputOK@CConfigDialog@@IAE_NXZ ENDP		; CConfigDialog::IsAllInputOK
PUBLIC	?OnClickedCancel@CConfigDialog@@IAEXXZ		; CConfigDialog::OnClickedCancel
; Function compile flags: /Odt
_TEXT	SEGMENT
tv87 = -24						; size = 4
tv95 = -20						; size = 4
tv81 = -16						; size = 4
tv76 = -12						; size = 4
_this$ = -8						; size = 4
_i$198531 = -4						; size = 4
?OnClickedCancel@CConfigDialog@@IAEXXZ PROC NEAR	; CConfigDialog::OnClickedCancel
; _this$ = ecx

; 133  : {

  00880	55		 push	 ebp
  00881	8b ec		 mov	 ebp, esp
  00883	83 ec 18	 sub	 esp, 24			; 00000018H
  00886	89 4d f8	 mov	 DWORD PTR _this$[ebp], ecx

; 134  : 	g_hLastConfWnd = NULL;

  00889	c7 05 00 00 00
	00 00 00 00 00	 mov	 DWORD PTR ?g_hLastConfWnd@@3PAUHWND__@@A, 0 ; g_hLastConfWnd

; 135  : 
; 136  : 	for( int i=0; i<m_mapBase.size(); i++ )

  00893	c7 45 fc 00 00
	00 00		 mov	 DWORD PTR _i$198531[ebp], 0
  0089a	eb 09		 jmp	 SHORT $L198532
$L198533:
  0089c	8b 45 fc	 mov	 eax, DWORD PTR _i$198531[ebp]
  0089f	83 c0 01	 add	 eax, 1
  008a2	89 45 fc	 mov	 DWORD PTR _i$198531[ebp], eax
$L198532:
  008a5	8b 4d f8	 mov	 ecx, DWORD PTR _this$[ebp]
  008a8	81 c1 d4 04 00
	00		 add	 ecx, 1236		; 000004d4H
  008ae	e8 00 00 00 00	 call	 ?size@?$_Tree@V?$_Tmap_traits@HPAVBaseDialog@@U?$less@H@std@@V?$allocator@U?$pair@$$CBHPAVBaseDialog@@@std@@@3@$0A@@std@@@std@@QBEIXZ ; std::_Tree<std::_Tmap_traits<int,BaseDialog *,std::less<int>,std::allocator<std::pair<int const ,BaseDialog *> >,0> >::size
  008b3	39 45 fc	 cmp	 DWORD PTR _i$198531[ebp], eax
  008b6	73 24		 jae	 SHORT $L198534

; 137  : 	{
; 138  : 		m_mapBase[i]->DestroyWindow();

  008b8	8d 4d fc	 lea	 ecx, DWORD PTR _i$198531[ebp]
  008bb	51		 push	 ecx
  008bc	8b 4d f8	 mov	 ecx, DWORD PTR _this$[ebp]
  008bf	81 c1 d4 04 00
	00		 add	 ecx, 1236		; 000004d4H
  008c5	e8 00 00 00 00	 call	 ??A?$map@HPAVBaseDialog@@U?$less@H@std@@V?$allocator@U?$pair@$$CBHPAVBaseDialog@@@std@@@3@@std@@QAEAAPAVBaseDialog@@ABH@Z ; std::map<int,BaseDialog *,std::less<int>,std::allocator<std::pair<int const ,BaseDialog *> > >::operator[]
  008ca	8b 10		 mov	 edx, DWORD PTR [eax]
  008cc	89 55 f4	 mov	 DWORD PTR tv76[ebp], edx
  008cf	8b 45 f4	 mov	 eax, DWORD PTR tv76[ebp]
  008d2	8b 10		 mov	 edx, DWORD PTR [eax]
  008d4	8b 4d f4	 mov	 ecx, DWORD PTR tv76[ebp]
  008d7	ff 52 68	 call	 DWORD PTR [edx+104]

; 139  : 	}

  008da	eb c0		 jmp	 SHORT $L198533
$L198534:

; 140  : 	AfxGetUIManager()->UIRemoveDialog(this);

  008dc	e8 00 00 00 00	 call	 ?AfxGetUIManager@@YAPAVIUIManager@@XZ ; AfxGetUIManager
  008e1	89 45 f0	 mov	 DWORD PTR tv81[ebp], eax
  008e4	8b 45 f8	 mov	 eax, DWORD PTR _this$[ebp]
  008e7	50		 push	 eax
  008e8	8b 4d f0	 mov	 ecx, DWORD PTR tv81[ebp]
  008eb	8b 11		 mov	 edx, DWORD PTR [ecx]
  008ed	8b 4d f0	 mov	 ecx, DWORD PTR tv81[ebp]
  008f0	ff 52 1c	 call	 DWORD PTR [edx+28]

; 141  : 	AfxGetMessageManager()->DetachMessage( ID_MESSAGE_APPEXIT,this );

  008f3	83 7d f8 00	 cmp	 DWORD PTR _this$[ebp], 0
  008f7	75 09		 jne	 SHORT $L199860
  008f9	c7 45 ec 00 00
	00 00		 mov	 DWORD PTR tv95[ebp], 0
  00900	eb 13		 jmp	 SHORT $L199861
$L199860:
  00902	8b 45 f8	 mov	 eax, DWORD PTR _this$[ebp]
  00905	8b 48 78	 mov	 ecx, DWORD PTR [eax+120]
  00908	8b 51 04	 mov	 edx, DWORD PTR [ecx+4]
  0090b	8b 45 f8	 mov	 eax, DWORD PTR _this$[ebp]
  0090e	8d 4c 10 78	 lea	 ecx, DWORD PTR [eax+edx+120]
  00912	89 4d ec	 mov	 DWORD PTR tv95[ebp], ecx
$L199861:
  00915	e8 00 00 00 00	 call	 ?AfxGetMessageManager@@YAPAVIMessageManager@@XZ ; AfxGetMessageManager
  0091a	89 45 e8	 mov	 DWORD PTR tv87[ebp], eax
  0091d	8b 55 ec	 mov	 edx, DWORD PTR tv95[ebp]
  00920	52		 push	 edx
  00921	68 00 00 00 00	 push	 OFFSET FLAT:_ID_MESSAGE_APPEXIT
  00926	8b 45 e8	 mov	 eax, DWORD PTR tv87[ebp]
  00929	8b 10		 mov	 edx, DWORD PTR [eax]
  0092b	8b 4d e8	 mov	 ecx, DWORD PTR tv87[ebp]
  0092e	ff 52 08	 call	 DWORD PTR [edx+8]

; 142  : 
; 143  : 	OnCancel();

  00931	8b 45 f8	 mov	 eax, DWORD PTR _this$[ebp]
  00934	8b 10		 mov	 edx, DWORD PTR [eax]
  00936	8b 4d f8	 mov	 ecx, DWORD PTR _this$[ebp]
  00939	ff 92 58 01 00
	00		 call	 DWORD PTR [edx+344]

; 144  : }

  0093f	8b e5		 mov	 esp, ebp
  00941	5d		 pop	 ebp
  00942	c3		 ret	 0
?OnClickedCancel@CConfigDialog@@IAEXXZ ENDP		; CConfigDialog::OnClickedCancel
_TEXT	ENDS
PUBLIC	?OnConfigBtnDefaultBnClicked@CConfigDialog@@IAEXXZ ; CConfigDialog::OnConfigBtnDefaultBnClicked
EXTRN	?EnableWindow@CWnd@@QAEHH@Z:NEAR		; CWnd::EnableWindow
EXTRN	__imp_?LogUserActMsg@@YAXABV?$basic_string@DU?$char_traits@D@std@@V?$allocator@D@2@@std@@0@Z:NEAR
xdata$x	SEGMENT
$T199870 DD	0ffffffffH
	DD	FLAT:$L199865
	DD	00H
	DD	FLAT:$L199866
$T199868 DD	019930520H
	DD	02H
	DD	FLAT:$T199870
	DD	2 DUP(00H)
	DD	2 DUP(00H)
; Function compile flags: /Odt
xdata$x	ENDS
_TEXT	SEGMENT
tv76 = -80						; size = 4
_this$ = -76						; size = 4
$T199864 = -72						; size = 28
$T199863 = -44						; size = 28
_i$198538 = -16						; size = 4
__$EHRec$ = -12						; size = 12
?OnConfigBtnDefaultBnClicked@CConfigDialog@@IAEXXZ PROC NEAR ; CConfigDialog::OnConfigBtnDefaultBnClicked
; _this$ = ecx

; 147  : {

  00950	55		 push	 ebp
  00951	8b ec		 mov	 ebp, esp
  00953	6a ff		 push	 -1
  00955	68 00 00 00 00	 push	 __ehhandler$?OnConfigBtnDefaultBnClicked@CConfigDialog@@IAEXXZ
  0095a	64 a1 00 00 00
	00		 mov	 eax, DWORD PTR fs:__except_list
  00960	50		 push	 eax
  00961	64 89 25 00 00
	00 00		 mov	 DWORD PTR fs:__except_list, esp
  00968	83 ec 44	 sub	 esp, 68			; 00000044H
  0096b	89 4d b4	 mov	 DWORD PTR _this$[ebp], ecx

; 148  : 	for( int i=0; i<m_mapBase.size(); i++ )

  0096e	c7 45 f0 00 00
	00 00		 mov	 DWORD PTR _i$198538[ebp], 0
  00975	eb 09		 jmp	 SHORT $L198539
$L198540:
  00977	8b 45 f0	 mov	 eax, DWORD PTR _i$198538[ebp]
  0097a	83 c0 01	 add	 eax, 1
  0097d	89 45 f0	 mov	 DWORD PTR _i$198538[ebp], eax
$L198539:
  00980	8b 4d b4	 mov	 ecx, DWORD PTR _this$[ebp]
  00983	81 c1 d4 04 00
	00		 add	 ecx, 1236		; 000004d4H
  00989	e8 00 00 00 00	 call	 ?size@?$_Tree@V?$_Tmap_traits@HPAVBaseDialog@@U?$less@H@std@@V?$allocator@U?$pair@$$CBHPAVBaseDialog@@@std@@@3@$0A@@std@@@std@@QBEIXZ ; std::_Tree<std::_Tmap_traits<int,BaseDialog *,std::less<int>,std::allocator<std::pair<int const ,BaseDialog *> >,0> >::size
  0098e	39 45 f0	 cmp	 DWORD PTR _i$198538[ebp], eax
  00991	73 27		 jae	 SHORT $L198541

; 149  : 	{
; 150  : 		m_mapBase[i]->SetDefault();

  00993	8d 4d f0	 lea	 ecx, DWORD PTR _i$198538[ebp]
  00996	51		 push	 ecx
  00997	8b 4d b4	 mov	 ecx, DWORD PTR _this$[ebp]
  0099a	81 c1 d4 04 00
	00		 add	 ecx, 1236		; 000004d4H
  009a0	e8 00 00 00 00	 call	 ??A?$map@HPAVBaseDialog@@U?$less@H@std@@V?$allocator@U?$pair@$$CBHPAVBaseDialog@@@std@@@3@@std@@QAEAAPAVBaseDialog@@ABH@Z ; std::map<int,BaseDialog *,std::less<int>,std::allocator<std::pair<int const ,BaseDialog *> > >::operator[]
  009a5	8b 10		 mov	 edx, DWORD PTR [eax]
  009a7	89 55 b0	 mov	 DWORD PTR tv76[ebp], edx
  009aa	8b 45 b0	 mov	 eax, DWORD PTR tv76[ebp]
  009ad	8b 10		 mov	 edx, DWORD PTR [eax]
  009af	8b 4d b0	 mov	 ecx, DWORD PTR tv76[ebp]
  009b2	ff 92 64 01 00
	00		 call	 DWORD PTR [edx+356]

; 151  : 	}

  009b8	eb bd		 jmp	 SHORT $L198540
$L198541:

; 152  : 	GetDlgItem(IDC_BUTTON_APPLY)->EnableWindow();

  009ba	6a 01		 push	 1
  009bc	68 bd 00 00 00	 push	 189			; 000000bdH
  009c1	8b 4d b4	 mov	 ecx, DWORD PTR _this$[ebp]
  009c4	e8 00 00 00 00	 call	 ?GetDlgItem@CWnd@@QBEPAV1@H@Z ; CWnd::GetDlgItem
  009c9	8b c8		 mov	 ecx, eax
  009cb	e8 00 00 00 00	 call	 ?EnableWindow@CWnd@@QAEHH@Z ; CWnd::EnableWindow

; 153  : 	LogUserActMsg( "SETTING", "SET_CHANGE:DEFAULT" );

  009d0	68 00 00 00 00	 push	 OFFSET FLAT:$SG198544
  009d5	8d 4d d4	 lea	 ecx, DWORD PTR $T199863[ebp]
  009d8	ff 15 00 00 00
	00		 call	 DWORD PTR __imp_??0?$basic_string@DU?$char_traits@D@std@@V?$allocator@D@2@@std@@QAE@PBD@Z
  009de	c7 45 fc 00 00
	00 00		 mov	 DWORD PTR __$EHRec$[ebp+8], 0
  009e5	68 00 00 00 00	 push	 OFFSET FLAT:$SG198545
  009ea	8d 4d b8	 lea	 ecx, DWORD PTR $T199864[ebp]
  009ed	ff 15 00 00 00
	00		 call	 DWORD PTR __imp_??0?$basic_string@DU?$char_traits@D@std@@V?$allocator@D@2@@std@@QAE@PBD@Z
  009f3	c6 45 fc 01	 mov	 BYTE PTR __$EHRec$[ebp+8], 1
  009f7	8d 45 d4	 lea	 eax, DWORD PTR $T199863[ebp]
  009fa	50		 push	 eax
  009fb	8d 4d b8	 lea	 ecx, DWORD PTR $T199864[ebp]
  009fe	51		 push	 ecx
  009ff	ff 15 00 00 00
	00		 call	 DWORD PTR __imp_?LogUserActMsg@@YAXABV?$basic_string@DU?$char_traits@D@std@@V?$allocator@D@2@@std@@0@Z
  00a05	83 c4 08	 add	 esp, 8
  00a08	c6 45 fc 00	 mov	 BYTE PTR __$EHRec$[ebp+8], 0
  00a0c	8d 4d b8	 lea	 ecx, DWORD PTR $T199864[ebp]
  00a0f	ff 15 00 00 00
	00		 call	 DWORD PTR __imp_??1?$basic_string@DU?$char_traits@D@std@@V?$allocator@D@2@@std@@QAE@XZ
  00a15	c7 45 fc ff ff
	ff ff		 mov	 DWORD PTR __$EHRec$[ebp+8], -1
  00a1c	8d 4d d4	 lea	 ecx, DWORD PTR $T199863[ebp]
  00a1f	ff 15 00 00 00
	00		 call	 DWORD PTR __imp_??1?$basic_string@DU?$char_traits@D@std@@V?$allocator@D@2@@std@@QAE@XZ

; 154  : }

  00a25	8b 4d f4	 mov	 ecx, DWORD PTR __$EHRec$[ebp]
  00a28	64 89 0d 00 00
	00 00		 mov	 DWORD PTR fs:__except_list, ecx
  00a2f	8b e5		 mov	 esp, ebp
  00a31	5d		 pop	 ebp
  00a32	c3		 ret	 0
_TEXT	ENDS
text$x	SEGMENT
$L199865:
  000f8	8d 4d d4	 lea	 ecx, DWORD PTR $T199863[ebp]
  000fb	ff 25 00 00 00
	00		 jmp	 DWORD PTR __imp_??1?$basic_string@DU?$char_traits@D@std@@V?$allocator@D@2@@std@@QAE@XZ
$L199866:
  00101	8d 4d b8	 lea	 ecx, DWORD PTR $T199864[ebp]
  00104	ff 25 00 00 00
	00		 jmp	 DWORD PTR __imp_??1?$basic_string@DU?$char_traits@D@std@@V?$allocator@D@2@@std@@QAE@XZ
__ehhandler$?OnConfigBtnDefaultBnClicked@CConfigDialog@@IAEXXZ:
  0010a	b8 00 00 00 00	 mov	 eax, OFFSET FLAT:$T199868
  0010f	e9 00 00 00 00	 jmp	 ___CxxFrameHandler
text$x	ENDS
?OnConfigBtnDefaultBnClicked@CConfigDialog@@IAEXXZ ENDP	; CConfigDialog::OnConfigBtnDefaultBnClicked
PUBLIC	?SendMessageA@CWnd@@QAEJIIJ@Z			; CWnd::SendMessageA
; Function compile flags: /Odt
_TEXT	SEGMENT
_this$ = -4						; size = 4
?IAppExit@CConfigDialog@@MAEXXZ PROC NEAR		; CConfigDialog::IAppExit
; _this$ = ecx

; 157  : {

  00a40	55		 push	 ebp
  00a41	8b ec		 mov	 ebp, esp
  00a43	51		 push	 ecx
  00a44	89 4d fc	 mov	 DWORD PTR _this$[ebp], ecx

; 158  : 	SendMessage(WM_COMMAND,IDCANCEL,0);

  00a47	6a 00		 push	 0
  00a49	6a 02		 push	 2
  00a4b	68 11 01 00 00	 push	 273			; 00000111H
  00a50	8b 4d fc	 mov	 ecx, DWORD PTR _this$[ebp]
  00a53	83 e9 74	 sub	 ecx, 116		; 00000074H
  00a56	e8 00 00 00 00	 call	 ?SendMessageA@CWnd@@QAEJIIJ@Z ; CWnd::SendMessageA

; 159  : }

  00a5b	8b e5		 mov	 esp, ebp
  00a5d	5d		 pop	 ebp
  00a5e	c3		 ret	 0
?IAppExit@CConfigDialog@@MAEXXZ ENDP			; CConfigDialog::IAppExit
_TEXT	ENDS
PUBLIC	?OnCtlColor@CConfigDialog@@IAEPAUHBRUSH__@@PAVCDC@@PAVCWnd@@I@Z ; CConfigDialog::OnCtlColor
EXTRN	__imp__CreateSolidBrush@4:NEAR
EXTRN	?OnCtlColor@CWnd@@IAEPAUHBRUSH__@@PAVCDC@@PAV1@I@Z:NEAR ; CWnd::OnCtlColor
; Function compile flags: /Odt
_TEXT	SEGMENT
_this$ = -8						; size = 4
_hbr$ = -4						; size = 4
_pDC$ = 8						; size = 4
_pWnd$ = 12						; size = 4
_nCtlColor$ = 16					; size = 4
?OnCtlColor@CConfigDialog@@IAEPAUHBRUSH__@@PAVCDC@@PAVCWnd@@I@Z PROC NEAR ; CConfigDialog::OnCtlColor
; _this$ = ecx

; 162  : {

  00a60	55		 push	 ebp
  00a61	8b ec		 mov	 ebp, esp
  00a63	83 ec 08	 sub	 esp, 8
  00a66	89 4d f8	 mov	 DWORD PTR _this$[ebp], ecx

; 163  : 	HBRUSH hbr = CDialog::OnCtlColor(pDC, pWnd, nCtlColor);

  00a69	8b 45 10	 mov	 eax, DWORD PTR _nCtlColor$[ebp]
  00a6c	50		 push	 eax
  00a6d	8b 4d 0c	 mov	 ecx, DWORD PTR _pWnd$[ebp]
  00a70	51		 push	 ecx
  00a71	8b 55 08	 mov	 edx, DWORD PTR _pDC$[ebp]
  00a74	52		 push	 edx
  00a75	8b 4d f8	 mov	 ecx, DWORD PTR _this$[ebp]
  00a78	e8 00 00 00 00	 call	 ?OnCtlColor@CWnd@@IAEPAUHBRUSH__@@PAVCDC@@PAV1@I@Z ; CWnd::OnCtlColor
  00a7d	89 45 fc	 mov	 DWORD PTR _hbr$[ebp], eax

; 164  : 	hbr = ::CreateSolidBrush( RGB(245,245,245) );

  00a80	68 f5 f5 f5 00	 push	 16119285		; 00f5f5f5H
  00a85	ff 15 00 00 00
	00		 call	 DWORD PTR __imp__CreateSolidBrush@4
  00a8b	89 45 fc	 mov	 DWORD PTR _hbr$[ebp], eax

; 165  : 	return hbr;

  00a8e	8b 45 fc	 mov	 eax, DWORD PTR _hbr$[ebp]

; 166  : }

  00a91	8b e5		 mov	 esp, ebp
  00a93	5d		 pop	 ebp
  00a94	c2 0c 00	 ret	 12			; 0000000cH
?OnCtlColor@CConfigDialog@@IAEPAUHBRUSH__@@PAVCDC@@PAVCWnd@@I@Z ENDP ; CConfigDialog::OnCtlColor
_TEXT	ENDS
PUBLIC	??0?$allocator@U?$pair@$$CBHPAVBaseDialog@@@std@@@std@@QAE@XZ ; std::allocator<std::pair<int const ,BaseDialog *> >::allocator<std::pair<int const ,BaseDialog *> >
PUBLIC	??0?$_Tree@V?$_Tmap_traits@HPAVBaseDialog@@U?$less@H@std@@V?$allocator@U?$pair@$$CBHPAVBaseDialog@@@std@@@3@$0A@@std@@@std@@QAE@ABU?$less@H@1@ABV?$allocator@U?$pair@$$CBHPAVBaseDialog@@@std@@@1@@Z ; std::_Tree<std::_Tmap_traits<int,BaseDialog *,std::less<int>,std::allocator<std::pair<int const ,BaseDialog *> >,0> >::_Tree<std::_Tmap_traits<int,BaseDialog *,std::less<int>,std::allocator<std::pair<int const ,BaseDialog *> >,0> >
; Function compile flags: /Odt
; File d:\program files (x86)\microsoft visual studio .net 2003\vc7\include\map
;	COMDAT ??0?$map@HPAVBaseDialog@@U?$less@H@std@@V?$allocator@U?$pair@$$CBHPAVBaseDialog@@@std@@@3@@std@@QAE@XZ
_TEXT	SEGMENT
_this$ = -8						; size = 4
$T199875 = -2						; size = 1
$T199874 = -1						; size = 1
??0?$map@HPAVBaseDialog@@U?$less@H@std@@V?$allocator@U?$pair@$$CBHPAVBaseDialog@@@std@@@3@@std@@QAE@XZ PROC NEAR ; std::map<int,BaseDialog *,std::less<int>,std::allocator<std::pair<int const ,BaseDialog *> > >::map<int,BaseDialog *,std::less<int>,std::allocator<std::pair<int const ,BaseDialog *> > >, COMDAT
; _this$ = ecx

; 102  : 		{	// construct empty map from defaults

  00000	55		 push	 ebp
  00001	8b ec		 mov	 ebp, esp
  00003	83 ec 08	 sub	 esp, 8
  00006	89 4d f8	 mov	 DWORD PTR _this$[ebp], ecx
  00009	8d 4d ff	 lea	 ecx, DWORD PTR $T199874[ebp]
  0000c	e8 00 00 00 00	 call	 ??0?$allocator@U?$pair@$$CBHPAVBaseDialog@@@std@@@std@@QAE@XZ ; std::allocator<std::pair<int const ,BaseDialog *> >::allocator<std::pair<int const ,BaseDialog *> >
  00011	50		 push	 eax
  00012	8d 45 fe	 lea	 eax, DWORD PTR $T199875[ebp]
  00015	50		 push	 eax
  00016	8b 4d f8	 mov	 ecx, DWORD PTR _this$[ebp]
  00019	e8 00 00 00 00	 call	 ??0?$_Tree@V?$_Tmap_traits@HPAVBaseDialog@@U?$less@H@std@@V?$allocator@U?$pair@$$CBHPAVBaseDialog@@@std@@@3@$0A@@std@@@std@@QAE@ABU?$less@H@1@ABV?$allocator@U?$pair@$$CBHPAVBaseDialog@@@std@@@1@@Z ; std::_Tree<std::_Tmap_traits<int,BaseDialog *,std::less<int>,std::allocator<std::pair<int const ,BaseDialog *> >,0> >::_Tree<std::_Tmap_traits<int,BaseDialog *,std::less<int>,std::allocator<std::pair<int const ,BaseDialog *> >,0> >

; 103  : 		}

  0001e	8b 45 f8	 mov	 eax, DWORD PTR _this$[ebp]
  00021	8b e5		 mov	 esp, ebp
  00023	5d		 pop	 ebp
  00024	c3		 ret	 0
??0?$map@HPAVBaseDialog@@U?$less@H@std@@V?$allocator@U?$pair@$$CBHPAVBaseDialog@@@std@@@3@@std@@QAE@XZ ENDP ; std::map<int,BaseDialog *,std::less<int>,std::allocator<std::pair<int const ,BaseDialog *> > >::map<int,BaseDialog *,std::less<int>,std::allocator<std::pair<int const ,BaseDialog *> > >
_TEXT	ENDS
PUBLIC	??8const_iterator@?$_Tree@V?$_Tmap_traits@HPAVBaseDialog@@U?$less@H@std@@V?$allocator@U?$pair@$$CBHPAVBaseDialog@@@std@@@3@$0A@@std@@@std@@QBE_NABV012@@Z ; std::_Tree<std::_Tmap_traits<int,BaseDialog *,std::less<int>,std::allocator<std::pair<int const ,BaseDialog *> >,0> >::const_iterator::operator==
PUBLIC	?_Mynode@const_iterator@?$_Tree@V?$_Tmap_traits@HPAVBaseDialog@@U?$less@H@std@@V?$allocator@U?$pair@$$CBHPAVBaseDialog@@@std@@@3@$0A@@std@@@std@@QBEPAU_Node@?$_Tree_nod@V?$_Tmap_traits@HPAVBaseDialog@@U?$less@H@std@@V?$allocator@U?$pair@$$CBHPAVBaseDialog@@@std@@@3@$0A@@std@@@3@XZ ; std::_Tree<std::_Tmap_traits<int,BaseDialog *,std::less<int>,std::allocator<std::pair<int const ,BaseDialog *> >,0> >::const_iterator::_Mynode
PUBLIC	??Diterator@?$_Tree@V?$_Tmap_traits@HPAVBaseDialog@@U?$less@H@std@@V?$allocator@U?$pair@$$CBHPAVBaseDialog@@@std@@@3@$0A@@std@@@std@@QBEAAU?$pair@$$CBHPAVBaseDialog@@@2@XZ ; std::_Tree<std::_Tmap_traits<int,BaseDialog *,std::less<int>,std::allocator<std::pair<int const ,BaseDialog *> >,0> >::iterator::operator*
PUBLIC	??0?$pair@$$CBHPAVBaseDialog@@@std@@QAE@ABHABQAVBaseDialog@@@Z ; std::pair<int const ,BaseDialog *>::pair<int const ,BaseDialog *>
PUBLIC	??R?$less@H@std@@QBE_NABH0@Z			; std::less<int>::operator()
PUBLIC	?_Key@?$_Tree@V?$_Tmap_traits@HPAVBaseDialog@@U?$less@H@std@@V?$allocator@U?$pair@$$CBHPAVBaseDialog@@@std@@@3@$0A@@std@@@std@@KAABHPAU_Node@?$_Tree_nod@V?$_Tmap_traits@HPAVBaseDialog@@U?$less@H@std@@V?$allocator@U?$pair@$$CBHPAVBaseDialog@@@std@@@3@$0A@@std@@@2@@Z ; std::_Tree<std::_Tmap_traits<int,BaseDialog *,std::less<int>,std::allocator<std::pair<int const ,BaseDialog *> >,0> >::_Key
PUBLIC	?end@?$_Tree@V?$_Tmap_traits@HPAVBaseDialog@@U?$less@H@std@@V?$allocator@U?$pair@$$CBHPAVBaseDialog@@@std@@@3@$0A@@std@@@std@@QAE?AViterator@12@XZ ; std::_Tree<std::_Tmap_traits<int,BaseDialog *,std::less<int>,std::allocator<std::pair<int const ,BaseDialog *> >,0> >::end
PUBLIC	?insert@?$_Tree@V?$_Tmap_traits@HPAVBaseDialog@@U?$less@H@std@@V?$allocator@U?$pair@$$CBHPAVBaseDialog@@@std@@@3@$0A@@std@@@std@@QAE?AViterator@12@V312@ABU?$pair@$$CBHPAVBaseDialog@@@2@@Z ; std::_Tree<std::_Tmap_traits<int,BaseDialog *,std::less<int>,std::allocator<std::pair<int const ,BaseDialog *> >,0> >::insert
PUBLIC	?lower_bound@?$_Tree@V?$_Tmap_traits@HPAVBaseDialog@@U?$less@H@std@@V?$allocator@U?$pair@$$CBHPAVBaseDialog@@@std@@@3@$0A@@std@@@std@@QAE?AViterator@12@ABH@Z ; std::_Tree<std::_Tmap_traits<int,BaseDialog *,std::less<int>,std::allocator<std::pair<int const ,BaseDialog *> >,0> >::lower_bound
; Function compile flags: /Odt
;	COMDAT ??A?$map@HPAVBaseDialog@@U?$less@H@std@@V?$allocator@U?$pair@$$CBHPAVBaseDialog@@@std@@@3@@std@@QAEAAPAVBaseDialog@@ABH@Z
_TEXT	SEGMENT
_this$ = -28						; size = 4
$T199882 = -24						; size = 4
$T199881 = -20						; size = 4
$T199880 = -16						; size = 8
$T199879 = -8						; size = 4
__Where$ = -4						; size = 4
__Keyval$ = 8						; size = 4
??A?$map@HPAVBaseDialog@@U?$less@H@std@@V?$allocator@U?$pair@$$CBHPAVBaseDialog@@@std@@@3@@std@@QAEAAPAVBaseDialog@@ABH@Z PROC NEAR ; std::map<int,BaseDialog *,std::less<int>,std::allocator<std::pair<int const ,BaseDialog *> > >::operator[], COMDAT
; _this$ = ecx

; 142  : 		{	// find element matching _Keyval or insert with default mapped

  00000	55		 push	 ebp
  00001	8b ec		 mov	 ebp, esp
  00003	83 ec 1c	 sub	 esp, 28			; 0000001cH
  00006	89 4d e4	 mov	 DWORD PTR _this$[ebp], ecx

; 143  : 		iterator _Where = this->lower_bound(_Keyval);

  00009	8b 45 08	 mov	 eax, DWORD PTR __Keyval$[ebp]
  0000c	50		 push	 eax
  0000d	8d 4d fc	 lea	 ecx, DWORD PTR __Where$[ebp]
  00010	51		 push	 ecx
  00011	8b 4d e4	 mov	 ecx, DWORD PTR _this$[ebp]
  00014	e8 00 00 00 00	 call	 ?lower_bound@?$_Tree@V?$_Tmap_traits@HPAVBaseDialog@@U?$less@H@std@@V?$allocator@U?$pair@$$CBHPAVBaseDialog@@@std@@@3@$0A@@std@@@std@@QAE?AViterator@12@ABH@Z ; std::_Tree<std::_Tmap_traits<int,BaseDialog *,std::less<int>,std::allocator<std::pair<int const ,BaseDialog *> >,0> >::lower_bound

; 144  : 		if (_Where == this->end() || this->comp(_Keyval, this->_Key(_Where._Mynode())))

  00019	8d 55 f8	 lea	 edx, DWORD PTR $T199879[ebp]
  0001c	52		 push	 edx
  0001d	8b 4d e4	 mov	 ecx, DWORD PTR _this$[ebp]
  00020	e8 00 00 00 00	 call	 ?end@?$_Tree@V?$_Tmap_traits@HPAVBaseDialog@@U?$less@H@std@@V?$allocator@U?$pair@$$CBHPAVBaseDialog@@@std@@@3@$0A@@std@@@std@@QAE?AViterator@12@XZ ; std::_Tree<std::_Tmap_traits<int,BaseDialog *,std::less<int>,std::allocator<std::pair<int const ,BaseDialog *> >,0> >::end
  00025	50		 push	 eax
  00026	8d 4d fc	 lea	 ecx, DWORD PTR __Where$[ebp]
  00029	e8 00 00 00 00	 call	 ??8const_iterator@?$_Tree@V?$_Tmap_traits@HPAVBaseDialog@@U?$less@H@std@@V?$allocator@U?$pair@$$CBHPAVBaseDialog@@@std@@@3@$0A@@std@@@std@@QBE_NABV012@@Z ; std::_Tree<std::_Tmap_traits<int,BaseDialog *,std::less<int>,std::allocator<std::pair<int const ,BaseDialog *> >,0> >::const_iterator::operator==
  0002e	0f b6 c0	 movzx	 eax, al
  00031	85 c0		 test	 eax, eax
  00033	75 25		 jne	 SHORT $L198700
  00035	8d 4d fc	 lea	 ecx, DWORD PTR __Where$[ebp]
  00038	e8 00 00 00 00	 call	 ?_Mynode@const_iterator@?$_Tree@V?$_Tmap_traits@HPAVBaseDialog@@U?$less@H@std@@V?$allocator@U?$pair@$$CBHPAVBaseDialog@@@std@@@3@$0A@@std@@@std@@QBEPAU_Node@?$_Tree_nod@V?$_Tmap_traits@HPAVBaseDialog@@U?$less@H@std@@V?$allocator@U?$pair@$$CBHPAVBaseDialog@@@std@@@3@$0A@@std@@@3@XZ ; std::_Tree<std::_Tmap_traits<int,BaseDialog *,std::less<int>,std::allocator<std::pair<int const ,BaseDialog *> >,0> >::const_iterator::_Mynode
  0003d	50		 push	 eax
  0003e	e8 00 00 00 00	 call	 ?_Key@?$_Tree@V?$_Tmap_traits@HPAVBaseDialog@@U?$less@H@std@@V?$allocator@U?$pair@$$CBHPAVBaseDialog@@@std@@@3@$0A@@std@@@std@@KAABHPAU_Node@?$_Tree_nod@V?$_Tmap_traits@HPAVBaseDialog@@U?$less@H@std@@V?$allocator@U?$pair@$$CBHPAVBaseDialog@@@std@@@3@$0A@@std@@@2@@Z ; std::_Tree<std::_Tmap_traits<int,BaseDialog *,std::less<int>,std::allocator<std::pair<int const ,BaseDialog *> >,0> >::_Key
  00043	83 c4 04	 add	 esp, 4
  00046	50		 push	 eax
  00047	8b 4d 08	 mov	 ecx, DWORD PTR __Keyval$[ebp]
  0004a	51		 push	 ecx
  0004b	8b 4d e4	 mov	 ecx, DWORD PTR _this$[ebp]
  0004e	e8 00 00 00 00	 call	 ??R?$less@H@std@@QBE_NABH0@Z ; std::less<int>::operator()
  00053	0f b6 d0	 movzx	 edx, al
  00056	85 d2		 test	 edx, edx
  00058	74 2d		 je	 SHORT $L198699
$L198700:

; 145  : 			_Where = this->insert(_Where,
; 146  : 				value_type(_Keyval, mapped_type()));

  0005a	c7 45 ec 00 00
	00 00		 mov	 DWORD PTR $T199881[ebp], 0
  00061	8d 45 ec	 lea	 eax, DWORD PTR $T199881[ebp]
  00064	50		 push	 eax
  00065	8b 4d 08	 mov	 ecx, DWORD PTR __Keyval$[ebp]
  00068	51		 push	 ecx
  00069	8d 4d f0	 lea	 ecx, DWORD PTR $T199880[ebp]
  0006c	e8 00 00 00 00	 call	 ??0?$pair@$$CBHPAVBaseDialog@@@std@@QAE@ABHABQAVBaseDialog@@@Z ; std::pair<int const ,BaseDialog *>::pair<int const ,BaseDialog *>
  00071	50		 push	 eax
  00072	8b 55 fc	 mov	 edx, DWORD PTR __Where$[ebp]
  00075	52		 push	 edx
  00076	8d 45 e8	 lea	 eax, DWORD PTR $T199882[ebp]
  00079	50		 push	 eax
  0007a	8b 4d e4	 mov	 ecx, DWORD PTR _this$[ebp]
  0007d	e8 00 00 00 00	 call	 ?insert@?$_Tree@V?$_Tmap_traits@HPAVBaseDialog@@U?$less@H@std@@V?$allocator@U?$pair@$$CBHPAVBaseDialog@@@std@@@3@$0A@@std@@@std@@QAE?AViterator@12@V312@ABU?$pair@$$CBHPAVBaseDialog@@@2@@Z ; std::_Tree<std::_Tmap_traits<int,BaseDialog *,std::less<int>,std::allocator<std::pair<int const ,BaseDialog *> >,0> >::insert
  00082	8b 08		 mov	 ecx, DWORD PTR [eax]
  00084	89 4d fc	 mov	 DWORD PTR __Where$[ebp], ecx
$L198699:

; 147  : 		return ((*_Where).second);

  00087	8d 4d fc	 lea	 ecx, DWORD PTR __Where$[ebp]
  0008a	e8 00 00 00 00	 call	 ??Diterator@?$_Tree@V?$_Tmap_traits@HPAVBaseDialog@@U?$less@H@std@@V?$allocator@U?$pair@$$CBHPAVBaseDialog@@@std@@@3@$0A@@std@@@std@@QBEAAU?$pair@$$CBHPAVBaseDialog@@@2@XZ ; std::_Tree<std::_Tmap_traits<int,BaseDialog *,std::less<int>,std::allocator<std::pair<int const ,BaseDialog *> >,0> >::iterator::operator*
  0008f	83 c0 04	 add	 eax, 4

; 148  : 		}

  00092	8b e5		 mov	 esp, ebp
  00094	5d		 pop	 ebp
  00095	c2 04 00	 ret	 4
??A?$map@HPAVBaseDialog@@U?$less@H@std@@V?$allocator@U?$pair@$$CBHPAVBaseDialog@@@std@@@3@@std@@QAEAAPAVBaseDialog@@ABH@Z ENDP ; std::map<int,BaseDialog *,std::less<int>,std::allocator<std::pair<int const ,BaseDialog *> > >::operator[]
_TEXT	ENDS
PUBLIC	?_Tidy@?$_Tree@V?$_Tmap_traits@HPAVBaseDialog@@U?$less@H@std@@V?$allocator@U?$pair@$$CBHPAVBaseDialog@@@std@@@3@$0A@@std@@@std@@IAEXXZ ; std::_Tree<std::_Tmap_traits<int,BaseDialog *,std::less<int>,std::allocator<std::pair<int const ,BaseDialog *> >,0> >::_Tidy
; Function compile flags: /Odt
; File d:\program files (x86)\microsoft visual studio .net 2003\vc7\include\xtree
;	COMDAT ??1?$_Tree@V?$_Tmap_traits@HPAVBaseDialog@@U?$less@H@std@@V?$allocator@U?$pair@$$CBHPAVBaseDialog@@@std@@@3@$0A@@std@@@std@@QAE@XZ
_TEXT	SEGMENT
_this$ = -4						; size = 4
??1?$_Tree@V?$_Tmap_traits@HPAVBaseDialog@@U?$less@H@std@@V?$allocator@U?$pair@$$CBHPAVBaseDialog@@@std@@@3@$0A@@std@@@std@@QAE@XZ PROC NEAR ; std::_Tree<std::_Tmap_traits<int,BaseDialog *,std::less<int>,std::allocator<std::pair<int const ,BaseDialog *> >,0> >::~_Tree<std::_Tmap_traits<int,BaseDialog *,std::less<int>,std::allocator<std::pair<int const ,BaseDialog *> >,0> >, COMDAT
; _this$ = ecx

; 391  : 		{	// destroy tree

  00000	55		 push	 ebp
  00001	8b ec		 mov	 ebp, esp
  00003	51		 push	 ecx
  00004	89 4d fc	 mov	 DWORD PTR _this$[ebp], ecx

; 392  : 		_Tidy();

  00007	8b 4d fc	 mov	 ecx, DWORD PTR _this$[ebp]
  0000a	e8 00 00 00 00	 call	 ?_Tidy@?$_Tree@V?$_Tmap_traits@HPAVBaseDialog@@U?$less@H@std@@V?$allocator@U?$pair@$$CBHPAVBaseDialog@@@std@@@3@$0A@@std@@@std@@IAEXXZ ; std::_Tree<std::_Tmap_traits<int,BaseDialog *,std::less<int>,std::allocator<std::pair<int const ,BaseDialog *> >,0> >::_Tidy

; 393  : 		}

  0000f	8b e5		 mov	 esp, ebp
  00011	5d		 pop	 ebp
  00012	c3		 ret	 0
??1?$_Tree@V?$_Tmap_traits@HPAVBaseDialog@@U?$less@H@std@@V?$allocator@U?$pair@$$CBHPAVBaseDialog@@@std@@@3@$0A@@std@@@std@@QAE@XZ ENDP ; std::_Tree<std::_Tmap_traits<int,BaseDialog *,std::less<int>,std::allocator<std::pair<int const ,BaseDialog *> >,0> >::~_Tree<std::_Tmap_traits<int,BaseDialog *,std::less<int>,std::allocator<std::pair<int const ,BaseDialog *> >,0> >
; Function compile flags: /Odt
_TEXT	ENDS
;	COMDAT ?size@?$_Tree@V?$_Tmap_traits@HPAVBaseDialog@@U?$less@H@std@@V?$allocator@U?$pair@$$CBHPAVBaseDialog@@@std@@@3@$0A@@std@@@std@@QBEIXZ
_TEXT	SEGMENT
_this$ = -4						; size = 4
?size@?$_Tree@V?$_Tmap_traits@HPAVBaseDialog@@U?$less@H@std@@V?$allocator@U?$pair@$$CBHPAVBaseDialog@@@std@@@3@$0A@@std@@@std@@QBEIXZ PROC NEAR ; std::_Tree<std::_Tmap_traits<int,BaseDialog *,std::less<int>,std::allocator<std::pair<int const ,BaseDialog *> >,0> >::size, COMDAT
; _this$ = ecx

; 447  : 		{	// return length of sequence

  00000	55		 push	 ebp
  00001	8b ec		 mov	 ebp, esp
  00003	51		 push	 ecx
  00004	89 4d fc	 mov	 DWORD PTR _this$[ebp], ecx

; 448  : 		return (_Mysize);

  00007	8b 45 fc	 mov	 eax, DWORD PTR _this$[ebp]
  0000a	8b 40 08	 mov	 eax, DWORD PTR [eax+8]

; 449  : 		}

  0000d	8b e5		 mov	 esp, ebp
  0000f	5d		 pop	 ebp
  00010	c3		 ret	 0
?size@?$_Tree@V?$_Tmap_traits@HPAVBaseDialog@@U?$less@H@std@@V?$allocator@U?$pair@$$CBHPAVBaseDialog@@@std@@@3@$0A@@std@@@std@@QBEIXZ ENDP ; std::_Tree<std::_Tmap_traits<int,BaseDialog *,std::less<int>,std::allocator<std::pair<int const ,BaseDialog *> >,0> >::size
_TEXT	ENDS
PUBLIC	?_Kfn@?$_Tmap_traits@HPAVBaseDialog@@U?$less@H@std@@V?$allocator@U?$pair@$$CBHPAVBaseDialog@@@std@@@3@$0A@@std@@SAABHABU?$pair@$$CBHPAVBaseDialog@@@2@@Z ; std::_Tmap_traits<int,BaseDialog *,std::less<int>,std::allocator<std::pair<int const ,BaseDialog *> >,0>::_Kfn
PUBLIC	?_Myval@?$_Tree@V?$_Tmap_traits@HPAVBaseDialog@@U?$less@H@std@@V?$allocator@U?$pair@$$CBHPAVBaseDialog@@@std@@@3@$0A@@std@@@std@@KAAAU?$pair@$$CBHPAVBaseDialog@@@2@PAU_Node@?$_Tree_nod@V?$_Tmap_traits@HPAVBaseDialog@@U?$less@H@std@@V?$allocator@U?$pair@$$CBHPAVBaseDialog@@@std@@@3@$0A@@std@@@2@@Z ; std::_Tree<std::_Tmap_traits<int,BaseDialog *,std::less<int>,std::allocator<std::pair<int const ,BaseDialog *> >,0> >::_Myval
; Function compile flags: /Odt
;	COMDAT ?_Key@?$_Tree@V?$_Tmap_traits@HPAVBaseDialog@@U?$less@H@std@@V?$allocator@U?$pair@$$CBHPAVBaseDialog@@@std@@@3@$0A@@std@@@std@@KAABHPAU_Node@?$_Tree_nod@V?$_Tmap_traits@HPAVBaseDialog@@U?$less@H@std@@V?$allocator@U?$pair@$$CBHPAVBaseDialog@@@std@@@3@$0A@@std@@@2@@Z
_TEXT	SEGMENT
__Pnode$ = 8						; size = 4
?_Key@?$_Tree@V?$_Tmap_traits@HPAVBaseDialog@@U?$less@H@std@@V?$allocator@U?$pair@$$CBHPAVBaseDialog@@@std@@@3@$0A@@std@@@std@@KAABHPAU_Node@?$_Tree_nod@V?$_Tmap_traits@HPAVBaseDialog@@U?$less@H@std@@V?$allocator@U?$pair@$$CBHPAVBaseDialog@@@std@@@3@$0A@@std@@@2@@Z PROC NEAR ; std::_Tree<std::_Tmap_traits<int,BaseDialog *,std::less<int>,std::allocator<std::pair<int const ,BaseDialog *> >,0> >::_Key, COMDAT

; 141  : 		{	// return reference to key in node

  00000	55		 push	 ebp
  00001	8b ec		 mov	 ebp, esp

; 142  : 		return (_Mybase::_Kfn(_Myval(_Pnode)));

  00003	8b 45 08	 mov	 eax, DWORD PTR __Pnode$[ebp]
  00006	50		 push	 eax
  00007	e8 00 00 00 00	 call	 ?_Myval@?$_Tree@V?$_Tmap_traits@HPAVBaseDialog@@U?$less@H@std@@V?$allocator@U?$pair@$$CBHPAVBaseDialog@@@std@@@3@$0A@@std@@@std@@KAAAU?$pair@$$CBHPAVBaseDialog@@@2@PAU_Node@?$_Tree_nod@V?$_Tmap_traits@HPAVBaseDialog@@U?$less@H@std@@V?$allocator@U?$pair@$$CBHPAVBaseDialog@@@std@@@3@$0A@@std@@@2@@Z ; std::_Tree<std::_Tmap_traits<int,BaseDialog *,std::less<int>,std::allocator<std::pair<int const ,BaseDialog *> >,0> >::_Myval
  0000c	83 c4 04	 add	 esp, 4
  0000f	50		 push	 eax
  00010	e8 00 00 00 00	 call	 ?_Kfn@?$_Tmap_traits@HPAVBaseDialog@@U?$less@H@std@@V?$allocator@U?$pair@$$CBHPAVBaseDialog@@@std@@@3@$0A@@std@@SAABHABU?$pair@$$CBHPAVBaseDialog@@@2@@Z ; std::_Tmap_traits<int,BaseDialog *,std::less<int>,std::allocator<std::pair<int const ,BaseDialog *> >,0>::_Kfn
  00015	83 c4 04	 add	 esp, 4

; 143  : 		}

  00018	5d		 pop	 ebp
  00019	c3		 ret	 0
?_Key@?$_Tree@V?$_Tmap_traits@HPAVBaseDialog@@U?$less@H@std@@V?$allocator@U?$pair@$$CBHPAVBaseDialog@@@std@@@3@$0A@@std@@@std@@KAABHPAU_Node@?$_Tree_nod@V?$_Tmap_traits@HPAVBaseDialog@@U?$less@H@std@@V?$allocator@U?$pair@$$CBHPAVBaseDialog@@@std@@@3@$0A@@std@@@2@@Z ENDP ; std::_Tree<std::_Tmap_traits<int,BaseDialog *,std::less<int>,std::allocator<std::pair<int const ,BaseDialog *> >,0> >::_Key
_TEXT	ENDS
PUBLIC	??0?$allocator@U?$pair@$$CBHPAVBaseDialog@@@std@@@std@@QAE@ABV01@@Z ; std::allocator<std::pair<int const ,BaseDialog *> >::allocator<std::pair<int const ,BaseDialog *> >
PUBLIC	??0?$_Tree_val@V?$_Tmap_traits@HPAVBaseDialog@@U?$less@H@std@@V?$allocator@U?$pair@$$CBHPAVBaseDialog@@@std@@@3@$0A@@std@@@std@@IAE@ABU?$less@H@1@V?$allocator@U?$pair@$$CBHPAVBaseDialog@@@std@@@1@@Z ; std::_Tree_val<std::_Tmap_traits<int,BaseDialog *,std::less<int>,std::allocator<std::pair<int const ,BaseDialog *> >,0> >::_Tree_val<std::_Tmap_traits<int,BaseDialog *,std::less<int>,std::allocator<std::pair<int const ,BaseDialog *> >,0> >
PUBLIC	?_Init@?$_Tree@V?$_Tmap_traits@HPAVBaseDialog@@U?$less@H@std@@V?$allocator@U?$pair@$$CBHPAVBaseDialog@@@std@@@3@$0A@@std@@@std@@IAEXXZ ; std::_Tree<std::_Tmap_traits<int,BaseDialog *,std::less<int>,std::allocator<std::pair<int const ,BaseDialog *> >,0> >::_Init
; Function compile flags: /Odt
;	COMDAT ??0?$_Tree@V?$_Tmap_traits@HPAVBaseDialog@@U?$less@H@std@@V?$allocator@U?$pair@$$CBHPAVBaseDialog@@@std@@@3@$0A@@std@@@std@@QAE@ABU?$less@H@1@ABV?$allocator@U?$pair@$$CBHPAVBaseDialog@@@std@@@1@@Z
_TEXT	SEGMENT
_this$ = -8						; size = 4
__Parg$ = 8						; size = 4
__Al$ = 12						; size = 4
??0?$_Tree@V?$_Tmap_traits@HPAVBaseDialog@@U?$less@H@std@@V?$allocator@U?$pair@$$CBHPAVBaseDialog@@@std@@@3@$0A@@std@@@std@@QAE@ABU?$less@H@1@ABV?$allocator@U?$pair@$$CBHPAVBaseDialog@@@std@@@1@@Z PROC NEAR ; std::_Tree<std::_Tmap_traits<int,BaseDialog *,std::less<int>,std::allocator<std::pair<int const ,BaseDialog *> >,0> >::_Tree<std::_Tmap_traits<int,BaseDialog *,std::less<int>,std::allocator<std::pair<int const ,BaseDialog *> >,0> >, COMDAT
; _this$ = ecx

; 361  : 		{	// construct empty tree

  00000	55		 push	 ebp
  00001	8b ec		 mov	 ebp, esp
  00003	83 ec 08	 sub	 esp, 8
  00006	89 4d f8	 mov	 DWORD PTR _this$[ebp], ecx
  00009	51		 push	 ecx
  0000a	8b cc		 mov	 ecx, esp
  0000c	8b 45 0c	 mov	 eax, DWORD PTR __Al$[ebp]
  0000f	50		 push	 eax
  00010	e8 00 00 00 00	 call	 ??0?$allocator@U?$pair@$$CBHPAVBaseDialog@@@std@@@std@@QAE@ABV01@@Z ; std::allocator<std::pair<int const ,BaseDialog *> >::allocator<std::pair<int const ,BaseDialog *> >
  00015	8b 4d 08	 mov	 ecx, DWORD PTR __Parg$[ebp]
  00018	51		 push	 ecx
  00019	8b 4d f8	 mov	 ecx, DWORD PTR _this$[ebp]
  0001c	e8 00 00 00 00	 call	 ??0?$_Tree_val@V?$_Tmap_traits@HPAVBaseDialog@@U?$less@H@std@@V?$allocator@U?$pair@$$CBHPAVBaseDialog@@@std@@@3@$0A@@std@@@std@@IAE@ABU?$less@H@1@V?$allocator@U?$pair@$$CBHPAVBaseDialog@@@std@@@1@@Z ; std::_Tree_val<std::_Tmap_traits<int,BaseDialog *,std::less<int>,std::allocator<std::pair<int const ,BaseDialog *> >,0> >::_Tree_val<std::_Tmap_traits<int,BaseDialog *,std::less<int>,std::allocator<std::pair<int const ,BaseDialog *> >,0> >

; 362  : 		_Init();

  00021	8b 4d f8	 mov	 ecx, DWORD PTR _this$[ebp]
  00024	e8 00 00 00 00	 call	 ?_Init@?$_Tree@V?$_Tmap_traits@HPAVBaseDialog@@U?$less@H@std@@V?$allocator@U?$pair@$$CBHPAVBaseDialog@@@std@@@3@$0A@@std@@@std@@IAEXXZ ; std::_Tree<std::_Tmap_traits<int,BaseDialog *,std::less<int>,std::allocator<std::pair<int const ,BaseDialog *> >,0> >::_Init

; 363  : 		}

  00029	8b 45 f8	 mov	 eax, DWORD PTR _this$[ebp]
  0002c	8b e5		 mov	 esp, ebp
  0002e	5d		 pop	 ebp
  0002f	c2 08 00	 ret	 8
??0?$_Tree@V?$_Tmap_traits@HPAVBaseDialog@@U?$less@H@std@@V?$allocator@U?$pair@$$CBHPAVBaseDialog@@@std@@@3@$0A@@std@@@std@@QAE@ABU?$less@H@1@ABV?$allocator@U?$pair@$$CBHPAVBaseDialog@@@std@@@1@@Z ENDP ; std::_Tree<std::_Tmap_traits<int,BaseDialog *,std::less<int>,std::allocator<std::pair<int const ,BaseDialog *> >,0> >::_Tree<std::_Tmap_traits<int,BaseDialog *,std::less<int>,std::allocator<std::pair<int const ,BaseDialog *> >,0> >
_TEXT	ENDS
PUBLIC	??0iterator@?$_Tree@V?$_Tmap_traits@HPAVBaseDialog@@U?$less@H@std@@V?$allocator@U?$pair@$$CBHPAVBaseDialog@@@std@@@3@$0A@@std@@@std@@QAE@PAU_Node@?$_Tree_nod@V?$_Tmap_traits@HPAVBaseDialog@@U?$less@H@std@@V?$allocator@U?$pair@$$CBHPAVBaseDialog@@@std@@@3@$0A@@std@@@2@@Z ; std::_Tree<std::_Tmap_traits<int,BaseDialog *,std::less<int>,std::allocator<std::pair<int const ,BaseDialog *> >,0> >::iterator::iterator
; Function compile flags: /Odt
;	COMDAT ?end@?$_Tree@V?$_Tmap_traits@HPAVBaseDialog@@U?$less@H@std@@V?$allocator@U?$pair@$$CBHPAVBaseDialog@@@std@@@3@$0A@@std@@@std@@QAE?AViterator@12@XZ
_TEXT	SEGMENT
_this$ = -4						; size = 4
___$ReturnUdt$ = 8					; size = 4
?end@?$_Tree@V?$_Tmap_traits@HPAVBaseDialog@@U?$less@H@std@@V?$allocator@U?$pair@$$CBHPAVBaseDialog@@@std@@@3@$0A@@std@@@std@@QAE?AViterator@12@XZ PROC NEAR ; std::_Tree<std::_Tmap_traits<int,BaseDialog *,std::less<int>,std::allocator<std::pair<int const ,BaseDialog *> >,0> >::end, COMDAT
; _this$ = ecx

; 417  : 		{	// return iterator for end of mutable sequence

  00000	55		 push	 ebp
  00001	8b ec		 mov	 ebp, esp
  00003	51		 push	 ecx
  00004	89 4d fc	 mov	 DWORD PTR _this$[ebp], ecx

; 418  : 		return (_TREE_ITERATOR(_Myhead));

  00007	8b 45 fc	 mov	 eax, DWORD PTR _this$[ebp]
  0000a	8b 48 04	 mov	 ecx, DWORD PTR [eax+4]
  0000d	51		 push	 ecx
  0000e	8b 4d 08	 mov	 ecx, DWORD PTR ___$ReturnUdt$[ebp]
  00011	e8 00 00 00 00	 call	 ??0iterator@?$_Tree@V?$_Tmap_traits@HPAVBaseDialog@@U?$less@H@std@@V?$allocator@U?$pair@$$CBHPAVBaseDialog@@@std@@@3@$0A@@std@@@std@@QAE@PAU_Node@?$_Tree_nod@V?$_Tmap_traits@HPAVBaseDialog@@U?$less@H@std@@V?$allocator@U?$pair@$$CBHPAVBaseDialog@@@std@@@3@$0A@@std@@@2@@Z ; std::_Tree<std::_Tmap_traits<int,BaseDialog *,std::less<int>,std::allocator<std::pair<int const ,BaseDialog *> >,0> >::iterator::iterator
  00016	8b 45 08	 mov	 eax, DWORD PTR ___$ReturnUdt$[ebp]

; 419  : 		}

  00019	8b e5		 mov	 esp, ebp
  0001b	5d		 pop	 ebp
  0001c	c2 04 00	 ret	 4
?end@?$_Tree@V?$_Tmap_traits@HPAVBaseDialog@@U?$less@H@std@@V?$allocator@U?$pair@$$CBHPAVBaseDialog@@@std@@@3@$0A@@std@@@std@@QAE?AViterator@12@XZ ENDP ; std::_Tree<std::_Tmap_traits<int,BaseDialog *,std::less<int>,std::allocator<std::pair<int const ,BaseDialog *> >,0> >::end
_TEXT	ENDS
PUBLIC	??0iterator@?$_Tree@V?$_Tmap_traits@HPAVBaseDialog@@U?$less@H@std@@V?$allocator@U?$pair@$$CBHPAVBaseDialog@@@std@@@3@$0A@@std@@@std@@QAE@XZ ; std::_Tree<std::_Tmap_traits<int,BaseDialog *,std::less<int>,std::allocator<std::pair<int const ,BaseDialog *> >,0> >::iterator::iterator
PUBLIC	??Eiterator@?$_Tree@V?$_Tmap_traits@HPAVBaseDialog@@U?$less@H@std@@V?$allocator@U?$pair@$$CBHPAVBaseDialog@@@std@@@3@$0A@@std@@@std@@QAEAAV012@XZ ; std::_Tree<std::_Tmap_traits<int,BaseDialog *,std::less<int>,std::allocator<std::pair<int const ,BaseDialog *> >,0> >::iterator::operator++
PUBLIC	??Fiterator@?$_Tree@V?$_Tmap_traits@HPAVBaseDialog@@U?$less@H@std@@V?$allocator@U?$pair@$$CBHPAVBaseDialog@@@std@@@3@$0A@@std@@@std@@QAEAAV012@XZ ; std::_Tree<std::_Tmap_traits<int,BaseDialog *,std::less<int>,std::allocator<std::pair<int const ,BaseDialog *> >,0> >::iterator::operator--
PUBLIC	?_Isnil@?$_Tree@V?$_Tmap_traits@HPAVBaseDialog@@U?$less@H@std@@V?$allocator@U?$pair@$$CBHPAVBaseDialog@@@std@@@3@$0A@@std@@@std@@KAAADPAU_Node@?$_Tree_nod@V?$_Tmap_traits@HPAVBaseDialog@@U?$less@H@std@@V?$allocator@U?$pair@$$CBHPAVBaseDialog@@@std@@@3@$0A@@std@@@2@@Z ; std::_Tree<std::_Tmap_traits<int,BaseDialog *,std::less<int>,std::allocator<std::pair<int const ,BaseDialog *> >,0> >::_Isnil
PUBLIC	?_Right@?$_Tree@V?$_Tmap_traits@HPAVBaseDialog@@U?$less@H@std@@V?$allocator@U?$pair@$$CBHPAVBaseDialog@@@std@@@3@$0A@@std@@@std@@KAAAPAU_Node@?$_Tree_nod@V?$_Tmap_traits@HPAVBaseDialog@@U?$less@H@std@@V?$allocator@U?$pair@$$CBHPAVBaseDialog@@@std@@@3@$0A@@std@@@2@PAU342@@Z ; std::_Tree<std::_Tmap_traits<int,BaseDialog *,std::less<int>,std::allocator<std::pair<int const ,BaseDialog *> >,0> >::_Right
PUBLIC	?begin@?$_Tree@V?$_Tmap_traits@HPAVBaseDialog@@U?$less@H@std@@V?$allocator@U?$pair@$$CBHPAVBaseDialog@@@std@@@3@$0A@@std@@@std@@QAE?AViterator@12@XZ ; std::_Tree<std::_Tmap_traits<int,BaseDialog *,std::less<int>,std::allocator<std::pair<int const ,BaseDialog *> >,0> >::begin
PUBLIC	?insert@?$_Tree@V?$_Tmap_traits@HPAVBaseDialog@@U?$less@H@std@@V?$allocator@U?$pair@$$CBHPAVBaseDialog@@@std@@@3@$0A@@std@@@std@@QAE?AU?$pair@Viterator@?$_Tree@V?$_Tmap_traits@HPAVBaseDialog@@U?$less@H@std@@V?$allocator@U?$pair@$$CBHPAVBaseDialog@@@std@@@3@$0A@@std@@@std@@_N@2@ABU?$pair@$$CBHPAVBaseDialog@@@2@@Z ; std::_Tree<std::_Tmap_traits<int,BaseDialog *,std::less<int>,std::allocator<std::pair<int const ,BaseDialog *> >,0> >::insert
PUBLIC	?_Insert@?$_Tree@V?$_Tmap_traits@HPAVBaseDialog@@U?$less@H@std@@V?$allocator@U?$pair@$$CBHPAVBaseDialog@@@std@@@3@$0A@@std@@@std@@IAE?AViterator@12@_NPAU_Node@?$_Tree_nod@V?$_Tmap_traits@HPAVBaseDialog@@U?$less@H@std@@V?$allocator@U?$pair@$$CBHPAVBaseDialog@@@std@@@3@$0A@@std@@@2@ABU?$pair@$$CBHPAVBaseDialog@@@2@@Z ; std::_Tree<std::_Tmap_traits<int,BaseDialog *,std::less<int>,std::allocator<std::pair<int const ,BaseDialog *> >,0> >::_Insert
PUBLIC	?_Rmost@?$_Tree@V?$_Tmap_traits@HPAVBaseDialog@@U?$less@H@std@@V?$allocator@U?$pair@$$CBHPAVBaseDialog@@@std@@@3@$0A@@std@@@std@@IAEAAPAU_Node@?$_Tree_nod@V?$_Tmap_traits@HPAVBaseDialog@@U?$less@H@std@@V?$allocator@U?$pair@$$CBHPAVBaseDialog@@@std@@@3@$0A@@std@@@2@XZ ; std::_Tree<std::_Tmap_traits<int,BaseDialog *,std::less<int>,std::allocator<std::pair<int const ,BaseDialog *> >,0> >::_Rmost
; Function compile flags: /Odt
;	COMDAT ?insert@?$_Tree@V?$_Tmap_traits@HPAVBaseDialog@@U?$less@H@std@@V?$allocator@U?$pair@$$CBHPAVBaseDialog@@@std@@@3@$0A@@std@@@std@@QAE?AViterator@12@V312@ABU?$pair@$$CBHPAVBaseDialog@@@2@@Z
_TEXT	SEGMENT
_this$ = -40						; size = 4
$T199902 = -36						; size = 8
$T199901 = -28						; size = 4
$T199900 = -24						; size = 4
$T199899 = -20						; size = 4
$T199898 = -16						; size = 4
$T199897 = -12						; size = 4
$T199896 = -8						; size = 4
__Next$ = -4						; size = 4
___$ReturnUdt$ = 8					; size = 4
__Where$ = 12						; size = 4
__Val$ = 16						; size = 4
?insert@?$_Tree@V?$_Tmap_traits@HPAVBaseDialog@@U?$less@H@std@@V?$allocator@U?$pair@$$CBHPAVBaseDialog@@@std@@@3@$0A@@std@@@std@@QAE?AViterator@12@V312@ABU?$pair@$$CBHPAVBaseDialog@@@2@@Z PROC NEAR ; std::_Tree<std::_Tmap_traits<int,BaseDialog *,std::less<int>,std::allocator<std::pair<int const ,BaseDialog *> >,0> >::insert, COMDAT
; _this$ = ecx

; 509  : 		{	// try to insert node with value _Val using _Where as a hint

  00000	55		 push	 ebp
  00001	8b ec		 mov	 ebp, esp
  00003	83 ec 28	 sub	 esp, 40			; 00000028H
  00006	89 4d d8	 mov	 DWORD PTR _this$[ebp], ecx

; 510  : 		iterator _Next;

  00009	8d 4d fc	 lea	 ecx, DWORD PTR __Next$[ebp]
  0000c	e8 00 00 00 00	 call	 ??0iterator@?$_Tree@V?$_Tmap_traits@HPAVBaseDialog@@U?$less@H@std@@V?$allocator@U?$pair@$$CBHPAVBaseDialog@@@std@@@3@$0A@@std@@@std@@QAE@XZ ; std::_Tree<std::_Tmap_traits<int,BaseDialog *,std::less<int>,std::allocator<std::pair<int const ,BaseDialog *> >,0> >::iterator::iterator

; 511  : 
; 512  : 		if (size() == 0)

  00011	8b 4d d8	 mov	 ecx, DWORD PTR _this$[ebp]
  00014	e8 00 00 00 00	 call	 ?size@?$_Tree@V?$_Tmap_traits@HPAVBaseDialog@@U?$less@H@std@@V?$allocator@U?$pair@$$CBHPAVBaseDialog@@@std@@@3@$0A@@std@@@std@@QBEIXZ ; std::_Tree<std::_Tmap_traits<int,BaseDialog *,std::less<int>,std::allocator<std::pair<int const ,BaseDialog *> >,0> >::size
  00019	85 c0		 test	 eax, eax
  0001b	75 21		 jne	 SHORT $L198751

; 513  : 			return (_Insert(true, _Myhead, _Val));	// insert into empty tree

  0001d	8b 45 10	 mov	 eax, DWORD PTR __Val$[ebp]
  00020	50		 push	 eax
  00021	8b 4d d8	 mov	 ecx, DWORD PTR _this$[ebp]
  00024	8b 51 04	 mov	 edx, DWORD PTR [ecx+4]
  00027	52		 push	 edx
  00028	6a 01		 push	 1
  0002a	8b 45 08	 mov	 eax, DWORD PTR ___$ReturnUdt$[ebp]
  0002d	50		 push	 eax
  0002e	8b 4d d8	 mov	 ecx, DWORD PTR _this$[ebp]
  00031	e8 00 00 00 00	 call	 ?_Insert@?$_Tree@V?$_Tmap_traits@HPAVBaseDialog@@U?$less@H@std@@V?$allocator@U?$pair@$$CBHPAVBaseDialog@@@std@@@3@$0A@@std@@@std@@IAE?AViterator@12@_NPAU_Node@?$_Tree_nod@V?$_Tmap_traits@HPAVBaseDialog@@U?$less@H@std@@V?$allocator@U?$pair@$$CBHPAVBaseDialog@@@std@@@3@$0A@@std@@@2@ABU?$pair@$$CBHPAVBaseDialog@@@2@@Z ; std::_Tree<std::_Tmap_traits<int,BaseDialog *,std::less<int>,std::allocator<std::pair<int const ,BaseDialog *> >,0> >::_Insert
  00036	8b 45 08	 mov	 eax, DWORD PTR ___$ReturnUdt$[ebp]
  00039	e9 81 05 00 00	 jmp	 $L198749
$L198751:

; 514  : 		else if (this->_Multi)

  0003e	33 c9		 xor	 ecx, ecx
  00040	0f 84 b5 02 00
	00		 je	 $L198754

; 515  : 			{	// insert even if duplicate
; 516  : 			if (_Where == begin())

  00046	8d 55 f8	 lea	 edx, DWORD PTR $T199896[ebp]
  00049	52		 push	 edx
  0004a	8b 4d d8	 mov	 ecx, DWORD PTR _this$[ebp]
  0004d	e8 00 00 00 00	 call	 ?begin@?$_Tree@V?$_Tmap_traits@HPAVBaseDialog@@U?$less@H@std@@V?$allocator@U?$pair@$$CBHPAVBaseDialog@@@std@@@3@$0A@@std@@@std@@QAE?AViterator@12@XZ ; std::_Tree<std::_Tmap_traits<int,BaseDialog *,std::less<int>,std::allocator<std::pair<int const ,BaseDialog *> >,0> >::begin
  00052	50		 push	 eax
  00053	8d 4d 0c	 lea	 ecx, DWORD PTR __Where$[ebp]
  00056	e8 00 00 00 00	 call	 ??8const_iterator@?$_Tree@V?$_Tmap_traits@HPAVBaseDialog@@U?$less@H@std@@V?$allocator@U?$pair@$$CBHPAVBaseDialog@@@std@@@3@$0A@@std@@@std@@QBE_NABV012@@Z ; std::_Tree<std::_Tmap_traits<int,BaseDialog *,std::less<int>,std::allocator<std::pair<int const ,BaseDialog *> >,0> >::const_iterator::operator==
  0005b	0f b6 c0	 movzx	 eax, al
  0005e	85 c0		 test	 eax, eax
  00060	74 56		 je	 SHORT $L198756

; 517  : 				{	// insert at beginning if before first element
; 518  : 				if (!this->comp(_Key(_Where._Mynode()), this->_Kfn(_Val)))

  00062	8b 4d 10	 mov	 ecx, DWORD PTR __Val$[ebp]
  00065	51		 push	 ecx
  00066	e8 00 00 00 00	 call	 ?_Kfn@?$_Tmap_traits@HPAVBaseDialog@@U?$less@H@std@@V?$allocator@U?$pair@$$CBHPAVBaseDialog@@@std@@@3@$0A@@std@@SAABHABU?$pair@$$CBHPAVBaseDialog@@@2@@Z ; std::_Tmap_traits<int,BaseDialog *,std::less<int>,std::allocator<std::pair<int const ,BaseDialog *> >,0>::_Kfn
  0006b	83 c4 04	 add	 esp, 4
  0006e	50		 push	 eax
  0006f	8d 4d 0c	 lea	 ecx, DWORD PTR __Where$[ebp]
  00072	e8 00 00 00 00	 call	 ?_Mynode@const_iterator@?$_Tree@V?$_Tmap_traits@HPAVBaseDialog@@U?$less@H@std@@V?$allocator@U?$pair@$$CBHPAVBaseDialog@@@std@@@3@$0A@@std@@@std@@QBEPAU_Node@?$_Tree_nod@V?$_Tmap_traits@HPAVBaseDialog@@U?$less@H@std@@V?$allocator@U?$pair@$$CBHPAVBaseDialog@@@std@@@3@$0A@@std@@@3@XZ ; std::_Tree<std::_Tmap_traits<int,BaseDialog *,std::less<int>,std::allocator<std::pair<int const ,BaseDialog *> >,0> >::const_iterator::_Mynode
  00077	50		 push	 eax
  00078	e8 00 00 00 00	 call	 ?_Key@?$_Tree@V?$_Tmap_traits@HPAVBaseDialog@@U?$less@H@std@@V?$allocator@U?$pair@$$CBHPAVBaseDialog@@@std@@@3@$0A@@std@@@std@@KAABHPAU_Node@?$_Tree_nod@V?$_Tmap_traits@HPAVBaseDialog@@U?$less@H@std@@V?$allocator@U?$pair@$$CBHPAVBaseDialog@@@std@@@3@$0A@@std@@@2@@Z ; std::_Tree<std::_Tmap_traits<int,BaseDialog *,std::less<int>,std::allocator<std::pair<int const ,BaseDialog *> >,0> >::_Key
  0007d	83 c4 04	 add	 esp, 4
  00080	50		 push	 eax
  00081	8b 4d d8	 mov	 ecx, DWORD PTR _this$[ebp]
  00084	e8 00 00 00 00	 call	 ??R?$less@H@std@@QBE_NABH0@Z ; std::less<int>::operator()
  00089	0f b6 d0	 movzx	 edx, al
  0008c	85 d2		 test	 edx, edx
  0008e	75 23		 jne	 SHORT $L198757

; 519  : 					return (_Insert(true, _Where._Mynode(), _Val));

  00090	8b 45 10	 mov	 eax, DWORD PTR __Val$[ebp]
  00093	50		 push	 eax
  00094	8d 4d 0c	 lea	 ecx, DWORD PTR __Where$[ebp]
  00097	e8 00 00 00 00	 call	 ?_Mynode@const_iterator@?$_Tree@V?$_Tmap_traits@HPAVBaseDialog@@U?$less@H@std@@V?$allocator@U?$pair@$$CBHPAVBaseDialog@@@std@@@3@$0A@@std@@@std@@QBEPAU_Node@?$_Tree_nod@V?$_Tmap_traits@HPAVBaseDialog@@U?$less@H@std@@V?$allocator@U?$pair@$$CBHPAVBaseDialog@@@std@@@3@$0A@@std@@@3@XZ ; std::_Tree<std::_Tmap_traits<int,BaseDialog *,std::less<int>,std::allocator<std::pair<int const ,BaseDialog *> >,0> >::const_iterator::_Mynode
  0009c	50		 push	 eax
  0009d	6a 01		 push	 1
  0009f	8b 4d 08	 mov	 ecx, DWORD PTR ___$ReturnUdt$[ebp]
  000a2	51		 push	 ecx
  000a3	8b 4d d8	 mov	 ecx, DWORD PTR _this$[ebp]
  000a6	e8 00 00 00 00	 call	 ?_Insert@?$_Tree@V?$_Tmap_traits@HPAVBaseDialog@@U?$less@H@std@@V?$allocator@U?$pair@$$CBHPAVBaseDialog@@@std@@@3@$0A@@std@@@std@@IAE?AViterator@12@_NPAU_Node@?$_Tree_nod@V?$_Tmap_traits@HPAVBaseDialog@@U?$less@H@std@@V?$allocator@U?$pair@$$CBHPAVBaseDialog@@@std@@@3@$0A@@std@@@2@ABU?$pair@$$CBHPAVBaseDialog@@@2@@Z ; std::_Tree<std::_Tmap_traits<int,BaseDialog *,std::less<int>,std::allocator<std::pair<int const ,BaseDialog *> >,0> >::_Insert
  000ab	8b 45 08	 mov	 eax, DWORD PTR ___$ReturnUdt$[ebp]
  000ae	e9 0c 05 00 00	 jmp	 $L198749
$L198757:

; 520  : 				}
; 521  : 			else if (_Where == end())

  000b3	e9 3e 02 00 00	 jmp	 $L198759
$L198756:
  000b8	8d 55 f4	 lea	 edx, DWORD PTR $T199897[ebp]
  000bb	52		 push	 edx
  000bc	8b 4d d8	 mov	 ecx, DWORD PTR _this$[ebp]
  000bf	e8 00 00 00 00	 call	 ?end@?$_Tree@V?$_Tmap_traits@HPAVBaseDialog@@U?$less@H@std@@V?$allocator@U?$pair@$$CBHPAVBaseDialog@@@std@@@3@$0A@@std@@@std@@QAE?AViterator@12@XZ ; std::_Tree<std::_Tmap_traits<int,BaseDialog *,std::less<int>,std::allocator<std::pair<int const ,BaseDialog *> >,0> >::end
  000c4	50		 push	 eax
  000c5	8d 4d 0c	 lea	 ecx, DWORD PTR __Where$[ebp]
  000c8	e8 00 00 00 00	 call	 ??8const_iterator@?$_Tree@V?$_Tmap_traits@HPAVBaseDialog@@U?$less@H@std@@V?$allocator@U?$pair@$$CBHPAVBaseDialog@@@std@@@3@$0A@@std@@@std@@QBE_NABV012@@Z ; std::_Tree<std::_Tmap_traits<int,BaseDialog *,std::less<int>,std::allocator<std::pair<int const ,BaseDialog *> >,0> >::const_iterator::operator==
  000cd	0f b6 c0	 movzx	 eax, al
  000d0	85 c0		 test	 eax, eax
  000d2	74 5a		 je	 SHORT $L198761

; 522  : 				{	// insert at end if after last element
; 523  : 				if (!this->comp(this->_Kfn(_Val), _Key(_Rmost())))

  000d4	8b 4d d8	 mov	 ecx, DWORD PTR _this$[ebp]
  000d7	e8 00 00 00 00	 call	 ?_Rmost@?$_Tree@V?$_Tmap_traits@HPAVBaseDialog@@U?$less@H@std@@V?$allocator@U?$pair@$$CBHPAVBaseDialog@@@std@@@3@$0A@@std@@@std@@IAEAAPAU_Node@?$_Tree_nod@V?$_Tmap_traits@HPAVBaseDialog@@U?$less@H@std@@V?$allocator@U?$pair@$$CBHPAVBaseDialog@@@std@@@3@$0A@@std@@@2@XZ ; std::_Tree<std::_Tmap_traits<int,BaseDialog *,std::less<int>,std::allocator<std::pair<int const ,BaseDialog *> >,0> >::_Rmost
  000dc	8b 08		 mov	 ecx, DWORD PTR [eax]
  000de	51		 push	 ecx
  000df	e8 00 00 00 00	 call	 ?_Key@?$_Tree@V?$_Tmap_traits@HPAVBaseDialog@@U?$less@H@std@@V?$allocator@U?$pair@$$CBHPAVBaseDialog@@@std@@@3@$0A@@std@@@std@@KAABHPAU_Node@?$_Tree_nod@V?$_Tmap_traits@HPAVBaseDialog@@U?$less@H@std@@V?$allocator@U?$pair@$$CBHPAVBaseDialog@@@std@@@3@$0A@@std@@@2@@Z ; std::_Tree<std::_Tmap_traits<int,BaseDialog *,std::less<int>,std::allocator<std::pair<int const ,BaseDialog *> >,0> >::_Key
  000e4	83 c4 04	 add	 esp, 4
  000e7	50		 push	 eax
  000e8	8b 55 10	 mov	 edx, DWORD PTR __Val$[ebp]
  000eb	52		 push	 edx
  000ec	e8 00 00 00 00	 call	 ?_Kfn@?$_Tmap_traits@HPAVBaseDialog@@U?$less@H@std@@V?$allocator@U?$pair@$$CBHPAVBaseDialog@@@std@@@3@$0A@@std@@SAABHABU?$pair@$$CBHPAVBaseDialog@@@2@@Z ; std::_Tmap_traits<int,BaseDialog *,std::less<int>,std::allocator<std::pair<int const ,BaseDialog *> >,0>::_Kfn
  000f1	83 c4 04	 add	 esp, 4
  000f4	50		 push	 eax
  000f5	8b 4d d8	 mov	 ecx, DWORD PTR _this$[ebp]
  000f8	e8 00 00 00 00	 call	 ??R?$less@H@std@@QBE_NABH0@Z ; std::less<int>::operator()
  000fd	0f b6 c0	 movzx	 eax, al
  00100	85 c0		 test	 eax, eax
  00102	75 25		 jne	 SHORT $L198762

; 524  : 					return (_Insert(false, _Rmost(), _Val));

  00104	8b 4d 10	 mov	 ecx, DWORD PTR __Val$[ebp]
  00107	51		 push	 ecx
  00108	8b 4d d8	 mov	 ecx, DWORD PTR _this$[ebp]
  0010b	e8 00 00 00 00	 call	 ?_Rmost@?$_Tree@V?$_Tmap_traits@HPAVBaseDialog@@U?$less@H@std@@V?$allocator@U?$pair@$$CBHPAVBaseDialog@@@std@@@3@$0A@@std@@@std@@IAEAAPAU_Node@?$_Tree_nod@V?$_Tmap_traits@HPAVBaseDialog@@U?$less@H@std@@V?$allocator@U?$pair@$$CBHPAVBaseDialog@@@std@@@3@$0A@@std@@@2@XZ ; std::_Tree<std::_Tmap_traits<int,BaseDialog *,std::less<int>,std::allocator<std::pair<int const ,BaseDialog *> >,0> >::_Rmost
  00110	8b 10		 mov	 edx, DWORD PTR [eax]
  00112	52		 push	 edx
  00113	6a 00		 push	 0
  00115	8b 45 08	 mov	 eax, DWORD PTR ___$ReturnUdt$[ebp]
  00118	50		 push	 eax
  00119	8b 4d d8	 mov	 ecx, DWORD PTR _this$[ebp]
  0011c	e8 00 00 00 00	 call	 ?_Insert@?$_Tree@V?$_Tmap_traits@HPAVBaseDialog@@U?$less@H@std@@V?$allocator@U?$pair@$$CBHPAVBaseDialog@@@std@@@3@$0A@@std@@@std@@IAE?AViterator@12@_NPAU_Node@?$_Tree_nod@V?$_Tmap_traits@HPAVBaseDialog@@U?$less@H@std@@V?$allocator@U?$pair@$$CBHPAVBaseDialog@@@std@@@3@$0A@@std@@@2@ABU?$pair@$$CBHPAVBaseDialog@@@2@@Z ; std::_Tree<std::_Tmap_traits<int,BaseDialog *,std::less<int>,std::allocator<std::pair<int const ,BaseDialog *> >,0> >::_Insert
  00121	8b 45 08	 mov	 eax, DWORD PTR ___$ReturnUdt$[ebp]
  00124	e9 96 04 00 00	 jmp	 $L198749
$L198762:

; 525  : 				}
; 526  : 			else if (!this->comp(_Key(_Where._Mynode()), this->_Kfn(_Val))

  00129	e9 c8 01 00 00	 jmp	 $L198759
$L198761:

; 527  : 				&& !this->comp(this->_Kfn(_Val),
; 528  : 					_Key((--(_Next = _Where))._Mynode())))

  0012e	8b 4d 10	 mov	 ecx, DWORD PTR __Val$[ebp]
  00131	51		 push	 ecx
  00132	e8 00 00 00 00	 call	 ?_Kfn@?$_Tmap_traits@HPAVBaseDialog@@U?$less@H@std@@V?$allocator@U?$pair@$$CBHPAVBaseDialog@@@std@@@3@$0A@@std@@SAABHABU?$pair@$$CBHPAVBaseDialog@@@2@@Z ; std::_Tmap_traits<int,BaseDialog *,std::less<int>,std::allocator<std::pair<int const ,BaseDialog *> >,0>::_Kfn
  00137	83 c4 04	 add	 esp, 4
  0013a	50		 push	 eax
  0013b	8d 4d 0c	 lea	 ecx, DWORD PTR __Where$[ebp]
  0013e	e8 00 00 00 00	 call	 ?_Mynode@const_iterator@?$_Tree@V?$_Tmap_traits@HPAVBaseDialog@@U?$less@H@std@@V?$allocator@U?$pair@$$CBHPAVBaseDialog@@@std@@@3@$0A@@std@@@std@@QBEPAU_Node@?$_Tree_nod@V?$_Tmap_traits@HPAVBaseDialog@@U?$less@H@std@@V?$allocator@U?$pair@$$CBHPAVBaseDialog@@@std@@@3@$0A@@std@@@3@XZ ; std::_Tree<std::_Tmap_traits<int,BaseDialog *,std::less<int>,std::allocator<std::pair<int const ,BaseDialog *> >,0> >::const_iterator::_Mynode
  00143	50		 push	 eax
  00144	e8 00 00 00 00	 call	 ?_Key@?$_Tree@V?$_Tmap_traits@HPAVBaseDialog@@U?$less@H@std@@V?$allocator@U?$pair@$$CBHPAVBaseDialog@@@std@@@3@$0A@@std@@@std@@KAABHPAU_Node@?$_Tree_nod@V?$_Tmap_traits@HPAVBaseDialog@@U?$less@H@std@@V?$allocator@U?$pair@$$CBHPAVBaseDialog@@@std@@@3@$0A@@std@@@2@@Z ; std::_Tree<std::_Tmap_traits<int,BaseDialog *,std::less<int>,std::allocator<std::pair<int const ,BaseDialog *> >,0> >::_Key
  00149	83 c4 04	 add	 esp, 4
  0014c	50		 push	 eax
  0014d	8b 4d d8	 mov	 ecx, DWORD PTR _this$[ebp]
  00150	e8 00 00 00 00	 call	 ??R?$less@H@std@@QBE_NABH0@Z ; std::less<int>::operator()
  00155	0f b6 d0	 movzx	 edx, al
  00158	85 d2		 test	 edx, edx
  0015a	0f 85 a4 00 00
	00		 jne	 $L198765
  00160	8b 45 0c	 mov	 eax, DWORD PTR __Where$[ebp]
  00163	89 45 fc	 mov	 DWORD PTR __Next$[ebp], eax
  00166	8d 4d fc	 lea	 ecx, DWORD PTR __Next$[ebp]
  00169	e8 00 00 00 00	 call	 ??Fiterator@?$_Tree@V?$_Tmap_traits@HPAVBaseDialog@@U?$less@H@std@@V?$allocator@U?$pair@$$CBHPAVBaseDialog@@@std@@@3@$0A@@std@@@std@@QAEAAV012@XZ ; std::_Tree<std::_Tmap_traits<int,BaseDialog *,std::less<int>,std::allocator<std::pair<int const ,BaseDialog *> >,0> >::iterator::operator--
  0016e	8b c8		 mov	 ecx, eax
  00170	e8 00 00 00 00	 call	 ?_Mynode@const_iterator@?$_Tree@V?$_Tmap_traits@HPAVBaseDialog@@U?$less@H@std@@V?$allocator@U?$pair@$$CBHPAVBaseDialog@@@std@@@3@$0A@@std@@@std@@QBEPAU_Node@?$_Tree_nod@V?$_Tmap_traits@HPAVBaseDialog@@U?$less@H@std@@V?$allocator@U?$pair@$$CBHPAVBaseDialog@@@std@@@3@$0A@@std@@@3@XZ ; std::_Tree<std::_Tmap_traits<int,BaseDialog *,std::less<int>,std::allocator<std::pair<int const ,BaseDialog *> >,0> >::const_iterator::_Mynode
  00175	50		 push	 eax
  00176	e8 00 00 00 00	 call	 ?_Key@?$_Tree@V?$_Tmap_traits@HPAVBaseDialog@@U?$less@H@std@@V?$allocator@U?$pair@$$CBHPAVBaseDialog@@@std@@@3@$0A@@std@@@std@@KAABHPAU_Node@?$_Tree_nod@V?$_Tmap_traits@HPAVBaseDialog@@U?$less@H@std@@V?$allocator@U?$pair@$$CBHPAVBaseDialog@@@std@@@3@$0A@@std@@@2@@Z ; std::_Tree<std::_Tmap_traits<int,BaseDialog *,std::less<int>,std::allocator<std::pair<int const ,BaseDialog *> >,0> >::_Key
  0017b	83 c4 04	 add	 esp, 4
  0017e	50		 push	 eax
  0017f	8b 4d 10	 mov	 ecx, DWORD PTR __Val$[ebp]
  00182	51		 push	 ecx
  00183	e8 00 00 00 00	 call	 ?_Kfn@?$_Tmap_traits@HPAVBaseDialog@@U?$less@H@std@@V?$allocator@U?$pair@$$CBHPAVBaseDialog@@@std@@@3@$0A@@std@@SAABHABU?$pair@$$CBHPAVBaseDialog@@@2@@Z ; std::_Tmap_traits<int,BaseDialog *,std::less<int>,std::allocator<std::pair<int const ,BaseDialog *> >,0>::_Kfn
  00188	83 c4 04	 add	 esp, 4
  0018b	50		 push	 eax
  0018c	8b 4d d8	 mov	 ecx, DWORD PTR _this$[ebp]
  0018f	e8 00 00 00 00	 call	 ??R?$less@H@std@@QBE_NABH0@Z ; std::less<int>::operator()
  00194	0f b6 d0	 movzx	 edx, al
  00197	85 d2		 test	 edx, edx
  00199	75 69		 jne	 SHORT $L198765

; 529  : 				{	// insert before _Where
; 530  : 				if (_Isnil(_Right(_Next._Mynode())))

  0019b	8d 4d fc	 lea	 ecx, DWORD PTR __Next$[ebp]
  0019e	e8 00 00 00 00	 call	 ?_Mynode@const_iterator@?$_Tree@V?$_Tmap_traits@HPAVBaseDialog@@U?$less@H@std@@V?$allocator@U?$pair@$$CBHPAVBaseDialog@@@std@@@3@$0A@@std@@@std@@QBEPAU_Node@?$_Tree_nod@V?$_Tmap_traits@HPAVBaseDialog@@U?$less@H@std@@V?$allocator@U?$pair@$$CBHPAVBaseDialog@@@std@@@3@$0A@@std@@@3@XZ ; std::_Tree<std::_Tmap_traits<int,BaseDialog *,std::less<int>,std::allocator<std::pair<int const ,BaseDialog *> >,0> >::const_iterator::_Mynode
  001a3	50		 push	 eax
  001a4	e8 00 00 00 00	 call	 ?_Right@?$_Tree@V?$_Tmap_traits@HPAVBaseDialog@@U?$less@H@std@@V?$allocator@U?$pair@$$CBHPAVBaseDialog@@@std@@@3@$0A@@std@@@std@@KAAAPAU_Node@?$_Tree_nod@V?$_Tmap_traits@HPAVBaseDialog@@U?$less@H@std@@V?$allocator@U?$pair@$$CBHPAVBaseDialog@@@std@@@3@$0A@@std@@@2@PAU342@@Z ; std::_Tree<std::_Tmap_traits<int,BaseDialog *,std::less<int>,std::allocator<std::pair<int const ,BaseDialog *> >,0> >::_Right
  001a9	83 c4 04	 add	 esp, 4
  001ac	8b 00		 mov	 eax, DWORD PTR [eax]
  001ae	50		 push	 eax
  001af	e8 00 00 00 00	 call	 ?_Isnil@?$_Tree@V?$_Tmap_traits@HPAVBaseDialog@@U?$less@H@std@@V?$allocator@U?$pair@$$CBHPAVBaseDialog@@@std@@@3@$0A@@std@@@std@@KAAADPAU_Node@?$_Tree_nod@V?$_Tmap_traits@HPAVBaseDialog@@U?$less@H@std@@V?$allocator@U?$pair@$$CBHPAVBaseDialog@@@std@@@3@$0A@@std@@@2@@Z ; std::_Tree<std::_Tmap_traits<int,BaseDialog *,std::less<int>,std::allocator<std::pair<int const ,BaseDialog *> >,0> >::_Isnil
  001b4	83 c4 04	 add	 esp, 4
  001b7	0f be 08	 movsx	 ecx, BYTE PTR [eax]
  001ba	85 c9		 test	 ecx, ecx
  001bc	74 23		 je	 SHORT $L198766

; 531  : 					return (_Insert(false, _Next._Mynode(), _Val));

  001be	8b 55 10	 mov	 edx, DWORD PTR __Val$[ebp]
  001c1	52		 push	 edx
  001c2	8d 4d fc	 lea	 ecx, DWORD PTR __Next$[ebp]
  001c5	e8 00 00 00 00	 call	 ?_Mynode@const_iterator@?$_Tree@V?$_Tmap_traits@HPAVBaseDialog@@U?$less@H@std@@V?$allocator@U?$pair@$$CBHPAVBaseDialog@@@std@@@3@$0A@@std@@@std@@QBEPAU_Node@?$_Tree_nod@V?$_Tmap_traits@HPAVBaseDialog@@U?$less@H@std@@V?$allocator@U?$pair@$$CBHPAVBaseDialog@@@std@@@3@$0A@@std@@@3@XZ ; std::_Tree<std::_Tmap_traits<int,BaseDialog *,std::less<int>,std::allocator<std::pair<int const ,BaseDialog *> >,0> >::const_iterator::_Mynode
  001ca	50		 push	 eax
  001cb	6a 00		 push	 0
  001cd	8b 45 08	 mov	 eax, DWORD PTR ___$ReturnUdt$[ebp]
  001d0	50		 push	 eax
  001d1	8b 4d d8	 mov	 ecx, DWORD PTR _this$[ebp]
  001d4	e8 00 00 00 00	 call	 ?_Insert@?$_Tree@V?$_Tmap_traits@HPAVBaseDialog@@U?$less@H@std@@V?$allocator@U?$pair@$$CBHPAVBaseDialog@@@std@@@3@$0A@@std@@@std@@IAE?AViterator@12@_NPAU_Node@?$_Tree_nod@V?$_Tmap_traits@HPAVBaseDialog@@U?$less@H@std@@V?$allocator@U?$pair@$$CBHPAVBaseDialog@@@std@@@3@$0A@@std@@@2@ABU?$pair@$$CBHPAVBaseDialog@@@2@@Z ; std::_Tree<std::_Tmap_traits<int,BaseDialog *,std::less<int>,std::allocator<std::pair<int const ,BaseDialog *> >,0> >::_Insert
  001d9	8b 45 08	 mov	 eax, DWORD PTR ___$ReturnUdt$[ebp]
  001dc	e9 de 03 00 00	 jmp	 $L198749
$L198766:

; 532  : 				else
; 533  : 					return (_Insert(true, _Where._Mynode(), _Val));

  001e1	8b 4d 10	 mov	 ecx, DWORD PTR __Val$[ebp]
  001e4	51		 push	 ecx
  001e5	8d 4d 0c	 lea	 ecx, DWORD PTR __Where$[ebp]
  001e8	e8 00 00 00 00	 call	 ?_Mynode@const_iterator@?$_Tree@V?$_Tmap_traits@HPAVBaseDialog@@U?$less@H@std@@V?$allocator@U?$pair@$$CBHPAVBaseDialog@@@std@@@3@$0A@@std@@@std@@QBEPAU_Node@?$_Tree_nod@V?$_Tmap_traits@HPAVBaseDialog@@U?$less@H@std@@V?$allocator@U?$pair@$$CBHPAVBaseDialog@@@std@@@3@$0A@@std@@@3@XZ ; std::_Tree<std::_Tmap_traits<int,BaseDialog *,std::less<int>,std::allocator<std::pair<int const ,BaseDialog *> >,0> >::const_iterator::_Mynode
  001ed	50		 push	 eax
  001ee	6a 01		 push	 1
  001f0	8b 55 08	 mov	 edx, DWORD PTR ___$ReturnUdt$[ebp]
  001f3	52		 push	 edx
  001f4	8b 4d d8	 mov	 ecx, DWORD PTR _this$[ebp]
  001f7	e8 00 00 00 00	 call	 ?_Insert@?$_Tree@V?$_Tmap_traits@HPAVBaseDialog@@U?$less@H@std@@V?$allocator@U?$pair@$$CBHPAVBaseDialog@@@std@@@3@$0A@@std@@@std@@IAE?AViterator@12@_NPAU_Node@?$_Tree_nod@V?$_Tmap_traits@HPAVBaseDialog@@U?$less@H@std@@V?$allocator@U?$pair@$$CBHPAVBaseDialog@@@std@@@3@$0A@@std@@@2@ABU?$pair@$$CBHPAVBaseDialog@@@2@@Z ; std::_Tree<std::_Tmap_traits<int,BaseDialog *,std::less<int>,std::allocator<std::pair<int const ,BaseDialog *> >,0> >::_Insert
  001fc	8b 45 08	 mov	 eax, DWORD PTR ___$ReturnUdt$[ebp]
  001ff	e9 bb 03 00 00	 jmp	 $L198749
$L198765:

; 534  : 				}
; 535  : 			else if (!this->comp(this->_Kfn(_Val), _Key(_Where._Mynode()))
; 536  : 				&& (++(_Next = _Where) == end()
; 537  : 					|| !this->comp(_Key(_Next._Mynode()),
; 538  : 						this->_Kfn(_Val))))

  00204	8d 4d 0c	 lea	 ecx, DWORD PTR __Where$[ebp]
  00207	e8 00 00 00 00	 call	 ?_Mynode@const_iterator@?$_Tree@V?$_Tmap_traits@HPAVBaseDialog@@U?$less@H@std@@V?$allocator@U?$pair@$$CBHPAVBaseDialog@@@std@@@3@$0A@@std@@@std@@QBEPAU_Node@?$_Tree_nod@V?$_Tmap_traits@HPAVBaseDialog@@U?$less@H@std@@V?$allocator@U?$pair@$$CBHPAVBaseDialog@@@std@@@3@$0A@@std@@@3@XZ ; std::_Tree<std::_Tmap_traits<int,BaseDialog *,std::less<int>,std::allocator<std::pair<int const ,BaseDialog *> >,0> >::const_iterator::_Mynode
  0020c	50		 push	 eax
  0020d	e8 00 00 00 00	 call	 ?_Key@?$_Tree@V?$_Tmap_traits@HPAVBaseDialog@@U?$less@H@std@@V?$allocator@U?$pair@$$CBHPAVBaseDialog@@@std@@@3@$0A@@std@@@std@@KAABHPAU_Node@?$_Tree_nod@V?$_Tmap_traits@HPAVBaseDialog@@U?$less@H@std@@V?$allocator@U?$pair@$$CBHPAVBaseDialog@@@std@@@3@$0A@@std@@@2@@Z ; std::_Tree<std::_Tmap_traits<int,BaseDialog *,std::less<int>,std::allocator<std::pair<int const ,BaseDialog *> >,0> >::_Key
  00212	83 c4 04	 add	 esp, 4
  00215	50		 push	 eax
  00216	8b 45 10	 mov	 eax, DWORD PTR __Val$[ebp]
  00219	50		 push	 eax
  0021a	e8 00 00 00 00	 call	 ?_Kfn@?$_Tmap_traits@HPAVBaseDialog@@U?$less@H@std@@V?$allocator@U?$pair@$$CBHPAVBaseDialog@@@std@@@3@$0A@@std@@SAABHABU?$pair@$$CBHPAVBaseDialog@@@2@@Z ; std::_Tmap_traits<int,BaseDialog *,std::less<int>,std::allocator<std::pair<int const ,BaseDialog *> >,0>::_Kfn
  0021f	83 c4 04	 add	 esp, 4
  00222	50		 push	 eax
  00223	8b 4d d8	 mov	 ecx, DWORD PTR _this$[ebp]
  00226	e8 00 00 00 00	 call	 ??R?$less@H@std@@QBE_NABH0@Z ; std::less<int>::operator()
  0022b	0f b6 c8	 movzx	 ecx, al
  0022e	85 c9		 test	 ecx, ecx
  00230	0f 85 c0 00 00
	00		 jne	 $L198759
  00236	8b 55 0c	 mov	 edx, DWORD PTR __Where$[ebp]
  00239	89 55 fc	 mov	 DWORD PTR __Next$[ebp], edx
  0023c	8d 45 f0	 lea	 eax, DWORD PTR $T199898[ebp]
  0023f	50		 push	 eax
  00240	8b 4d d8	 mov	 ecx, DWORD PTR _this$[ebp]
  00243	e8 00 00 00 00	 call	 ?end@?$_Tree@V?$_Tmap_traits@HPAVBaseDialog@@U?$less@H@std@@V?$allocator@U?$pair@$$CBHPAVBaseDialog@@@std@@@3@$0A@@std@@@std@@QAE?AViterator@12@XZ ; std::_Tree<std::_Tmap_traits<int,BaseDialog *,std::less<int>,std::allocator<std::pair<int const ,BaseDialog *> >,0> >::end
  00248	50		 push	 eax
  00249	8d 4d fc	 lea	 ecx, DWORD PTR __Next$[ebp]
  0024c	e8 00 00 00 00	 call	 ??Eiterator@?$_Tree@V?$_Tmap_traits@HPAVBaseDialog@@U?$less@H@std@@V?$allocator@U?$pair@$$CBHPAVBaseDialog@@@std@@@3@$0A@@std@@@std@@QAEAAV012@XZ ; std::_Tree<std::_Tmap_traits<int,BaseDialog *,std::less<int>,std::allocator<std::pair<int const ,BaseDialog *> >,0> >::iterator::operator++
  00251	8b c8		 mov	 ecx, eax
  00253	e8 00 00 00 00	 call	 ??8const_iterator@?$_Tree@V?$_Tmap_traits@HPAVBaseDialog@@U?$less@H@std@@V?$allocator@U?$pair@$$CBHPAVBaseDialog@@@std@@@3@$0A@@std@@@std@@QBE_NABV012@@Z ; std::_Tree<std::_Tmap_traits<int,BaseDialog *,std::less<int>,std::allocator<std::pair<int const ,BaseDialog *> >,0> >::const_iterator::operator==
  00258	0f b6 c8	 movzx	 ecx, al
  0025b	85 c9		 test	 ecx, ecx
  0025d	75 2e		 jne	 SHORT $L198773
  0025f	8b 55 10	 mov	 edx, DWORD PTR __Val$[ebp]
  00262	52		 push	 edx
  00263	e8 00 00 00 00	 call	 ?_Kfn@?$_Tmap_traits@HPAVBaseDialog@@U?$less@H@std@@V?$allocator@U?$pair@$$CBHPAVBaseDialog@@@std@@@3@$0A@@std@@SAABHABU?$pair@$$CBHPAVBaseDialog@@@2@@Z ; std::_Tmap_traits<int,BaseDialog *,std::less<int>,std::allocator<std::pair<int const ,BaseDialog *> >,0>::_Kfn
  00268	83 c4 04	 add	 esp, 4
  0026b	50		 push	 eax
  0026c	8d 4d fc	 lea	 ecx, DWORD PTR __Next$[ebp]
  0026f	e8 00 00 00 00	 call	 ?_Mynode@const_iterator@?$_Tree@V?$_Tmap_traits@HPAVBaseDialog@@U?$less@H@std@@V?$allocator@U?$pair@$$CBHPAVBaseDialog@@@std@@@3@$0A@@std@@@std@@QBEPAU_Node@?$_Tree_nod@V?$_Tmap_traits@HPAVBaseDialog@@U?$less@H@std@@V?$allocator@U?$pair@$$CBHPAVBaseDialog@@@std@@@3@$0A@@std@@@3@XZ ; std::_Tree<std::_Tmap_traits<int,BaseDialog *,std::less<int>,std::allocator<std::pair<int const ,BaseDialog *> >,0> >::const_iterator::_Mynode
  00274	50		 push	 eax
  00275	e8 00 00 00 00	 call	 ?_Key@?$_Tree@V?$_Tmap_traits@HPAVBaseDialog@@U?$less@H@std@@V?$allocator@U?$pair@$$CBHPAVBaseDialog@@@std@@@3@$0A@@std@@@std@@KAABHPAU_Node@?$_Tree_nod@V?$_Tmap_traits@HPAVBaseDialog@@U?$less@H@std@@V?$allocator@U?$pair@$$CBHPAVBaseDialog@@@std@@@3@$0A@@std@@@2@@Z ; std::_Tree<std::_Tmap_traits<int,BaseDialog *,std::less<int>,std::allocator<std::pair<int const ,BaseDialog *> >,0> >::_Key
  0027a	83 c4 04	 add	 esp, 4
  0027d	50		 push	 eax
  0027e	8b 4d d8	 mov	 ecx, DWORD PTR _this$[ebp]
  00281	e8 00 00 00 00	 call	 ??R?$less@H@std@@QBE_NABH0@Z ; std::less<int>::operator()
  00286	0f b6 c0	 movzx	 eax, al
  00289	85 c0		 test	 eax, eax
  0028b	75 69		 jne	 SHORT $L198759
$L198773:

; 539  : 				{	// insert after _Where
; 540  : 				if (_Isnil(_Right(_Where._Mynode())))

  0028d	8d 4d 0c	 lea	 ecx, DWORD PTR __Where$[ebp]
  00290	e8 00 00 00 00	 call	 ?_Mynode@const_iterator@?$_Tree@V?$_Tmap_traits@HPAVBaseDialog@@U?$less@H@std@@V?$allocator@U?$pair@$$CBHPAVBaseDialog@@@std@@@3@$0A@@std@@@std@@QBEPAU_Node@?$_Tree_nod@V?$_Tmap_traits@HPAVBaseDialog@@U?$less@H@std@@V?$allocator@U?$pair@$$CBHPAVBaseDialog@@@std@@@3@$0A@@std@@@3@XZ ; std::_Tree<std::_Tmap_traits<int,BaseDialog *,std::less<int>,std::allocator<std::pair<int const ,BaseDialog *> >,0> >::const_iterator::_Mynode
  00295	50		 push	 eax
  00296	e8 00 00 00 00	 call	 ?_Right@?$_Tree@V?$_Tmap_traits@HPAVBaseDialog@@U?$less@H@std@@V?$allocator@U?$pair@$$CBHPAVBaseDialog@@@std@@@3@$0A@@std@@@std@@KAAAPAU_Node@?$_Tree_nod@V?$_Tmap_traits@HPAVBaseDialog@@U?$less@H@std@@V?$allocator@U?$pair@$$CBHPAVBaseDialog@@@std@@@3@$0A@@std@@@2@PAU342@@Z ; std::_Tree<std::_Tmap_traits<int,BaseDialog *,std::less<int>,std::allocator<std::pair<int const ,BaseDialog *> >,0> >::_Right
  0029b	83 c4 04	 add	 esp, 4
  0029e	8b 08		 mov	 ecx, DWORD PTR [eax]
  002a0	51		 push	 ecx
  002a1	e8 00 00 00 00	 call	 ?_Isnil@?$_Tree@V?$_Tmap_traits@HPAVBaseDialog@@U?$less@H@std@@V?$allocator@U?$pair@$$CBHPAVBaseDialog@@@std@@@3@$0A@@std@@@std@@KAAADPAU_Node@?$_Tree_nod@V?$_Tmap_traits@HPAVBaseDialog@@U?$less@H@std@@V?$allocator@U?$pair@$$CBHPAVBaseDialog@@@std@@@3@$0A@@std@@@2@@Z ; std::_Tree<std::_Tmap_traits<int,BaseDialog *,std::less<int>,std::allocator<std::pair<int const ,BaseDialog *> >,0> >::_Isnil
  002a6	83 c4 04	 add	 esp, 4
  002a9	0f be 10	 movsx	 edx, BYTE PTR [eax]
  002ac	85 d2		 test	 edx, edx
  002ae	74 23		 je	 SHORT $L198774

; 541  : 					return (_Insert(false, _Where._Mynode(), _Val));

  002b0	8b 45 10	 mov	 eax, DWORD PTR __Val$[ebp]
  002b3	50		 push	 eax
  002b4	8d 4d 0c	 lea	 ecx, DWORD PTR __Where$[ebp]
  002b7	e8 00 00 00 00	 call	 ?_Mynode@const_iterator@?$_Tree@V?$_Tmap_traits@HPAVBaseDialog@@U?$less@H@std@@V?$allocator@U?$pair@$$CBHPAVBaseDialog@@@std@@@3@$0A@@std@@@std@@QBEPAU_Node@?$_Tree_nod@V?$_Tmap_traits@HPAVBaseDialog@@U?$less@H@std@@V?$allocator@U?$pair@$$CBHPAVBaseDialog@@@std@@@3@$0A@@std@@@3@XZ ; std::_Tree<std::_Tmap_traits<int,BaseDialog *,std::less<int>,std::allocator<std::pair<int const ,BaseDialog *> >,0> >::const_iterator::_Mynode
  002bc	50		 push	 eax
  002bd	6a 00		 push	 0
  002bf	8b 4d 08	 mov	 ecx, DWORD PTR ___$ReturnUdt$[ebp]
  002c2	51		 push	 ecx
  002c3	8b 4d d8	 mov	 ecx, DWORD PTR _this$[ebp]
  002c6	e8 00 00 00 00	 call	 ?_Insert@?$_Tree@V?$_Tmap_traits@HPAVBaseDialog@@U?$less@H@std@@V?$allocator@U?$pair@$$CBHPAVBaseDialog@@@std@@@3@$0A@@std@@@std@@IAE?AViterator@12@_NPAU_Node@?$_Tree_nod@V?$_Tmap_traits@HPAVBaseDialog@@U?$less@H@std@@V?$allocator@U?$pair@$$CBHPAVBaseDialog@@@std@@@3@$0A@@std@@@2@ABU?$pair@$$CBHPAVBaseDialog@@@2@@Z ; std::_Tree<std::_Tmap_traits<int,BaseDialog *,std::less<int>,std::allocator<std::pair<int const ,BaseDialog *> >,0> >::_Insert
  002cb	8b 45 08	 mov	 eax, DWORD PTR ___$ReturnUdt$[ebp]
  002ce	e9 ec 02 00 00	 jmp	 $L198749
$L198774:

; 542  : 				else
; 543  : 					return (_Insert(true, _Next._Mynode(), _Val));

  002d3	8b 55 10	 mov	 edx, DWORD PTR __Val$[ebp]
  002d6	52		 push	 edx
  002d7	8d 4d fc	 lea	 ecx, DWORD PTR __Next$[ebp]
  002da	e8 00 00 00 00	 call	 ?_Mynode@const_iterator@?$_Tree@V?$_Tmap_traits@HPAVBaseDialog@@U?$less@H@std@@V?$allocator@U?$pair@$$CBHPAVBaseDialog@@@std@@@3@$0A@@std@@@std@@QBEPAU_Node@?$_Tree_nod@V?$_Tmap_traits@HPAVBaseDialog@@U?$less@H@std@@V?$allocator@U?$pair@$$CBHPAVBaseDialog@@@std@@@3@$0A@@std@@@3@XZ ; std::_Tree<std::_Tmap_traits<int,BaseDialog *,std::less<int>,std::allocator<std::pair<int const ,BaseDialog *> >,0> >::const_iterator::_Mynode
  002df	50		 push	 eax
  002e0	6a 01		 push	 1
  002e2	8b 45 08	 mov	 eax, DWORD PTR ___$ReturnUdt$[ebp]
  002e5	50		 push	 eax
  002e6	8b 4d d8	 mov	 ecx, DWORD PTR _this$[ebp]
  002e9	e8 00 00 00 00	 call	 ?_Insert@?$_Tree@V?$_Tmap_traits@HPAVBaseDialog@@U?$less@H@std@@V?$allocator@U?$pair@$$CBHPAVBaseDialog@@@std@@@3@$0A@@std@@@std@@IAE?AViterator@12@_NPAU_Node@?$_Tree_nod@V?$_Tmap_traits@HPAVBaseDialog@@U?$less@H@std@@V?$allocator@U?$pair@$$CBHPAVBaseDialog@@@std@@@3@$0A@@std@@@2@ABU?$pair@$$CBHPAVBaseDialog@@@2@@Z ; std::_Tree<std::_Tmap_traits<int,BaseDialog *,std::less<int>,std::allocator<std::pair<int const ,BaseDialog *> >,0> >::_Insert
  002ee	8b 45 08	 mov	 eax, DWORD PTR ___$ReturnUdt$[ebp]
  002f1	e9 c9 02 00 00	 jmp	 $L198749
$L198759:

; 544  : 				}
; 545  : 			}
; 546  : 		else

  002f6	e9 aa 02 00 00	 jmp	 $L198753
$L198754:

; 547  : 			{	// insert only if unique
; 548  : 			if (_Where == begin())

  002fb	8d 4d ec	 lea	 ecx, DWORD PTR $T199899[ebp]
  002fe	51		 push	 ecx
  002ff	8b 4d d8	 mov	 ecx, DWORD PTR _this$[ebp]
  00302	e8 00 00 00 00	 call	 ?begin@?$_Tree@V?$_Tmap_traits@HPAVBaseDialog@@U?$less@H@std@@V?$allocator@U?$pair@$$CBHPAVBaseDialog@@@std@@@3@$0A@@std@@@std@@QAE?AViterator@12@XZ ; std::_Tree<std::_Tmap_traits<int,BaseDialog *,std::less<int>,std::allocator<std::pair<int const ,BaseDialog *> >,0> >::begin
  00307	50		 push	 eax
  00308	8d 4d 0c	 lea	 ecx, DWORD PTR __Where$[ebp]
  0030b	e8 00 00 00 00	 call	 ??8const_iterator@?$_Tree@V?$_Tmap_traits@HPAVBaseDialog@@U?$less@H@std@@V?$allocator@U?$pair@$$CBHPAVBaseDialog@@@std@@@3@$0A@@std@@@std@@QBE_NABV012@@Z ; std::_Tree<std::_Tmap_traits<int,BaseDialog *,std::less<int>,std::allocator<std::pair<int const ,BaseDialog *> >,0> >::const_iterator::operator==
  00310	0f b6 d0	 movzx	 edx, al
  00313	85 d2		 test	 edx, edx
  00315	74 56		 je	 SHORT $L198780

; 549  : 				{	// insert at beginning if before first element
; 550  : 				if (this->comp(this->_Kfn(_Val), _Key(_Where._Mynode())))

  00317	8d 4d 0c	 lea	 ecx, DWORD PTR __Where$[ebp]
  0031a	e8 00 00 00 00	 call	 ?_Mynode@const_iterator@?$_Tree@V?$_Tmap_traits@HPAVBaseDialog@@U?$less@H@std@@V?$allocator@U?$pair@$$CBHPAVBaseDialog@@@std@@@3@$0A@@std@@@std@@QBEPAU_Node@?$_Tree_nod@V?$_Tmap_traits@HPAVBaseDialog@@U?$less@H@std@@V?$allocator@U?$pair@$$CBHPAVBaseDialog@@@std@@@3@$0A@@std@@@3@XZ ; std::_Tree<std::_Tmap_traits<int,BaseDialog *,std::less<int>,std::allocator<std::pair<int const ,BaseDialog *> >,0> >::const_iterator::_Mynode
  0031f	50		 push	 eax
  00320	e8 00 00 00 00	 call	 ?_Key@?$_Tree@V?$_Tmap_traits@HPAVBaseDialog@@U?$less@H@std@@V?$allocator@U?$pair@$$CBHPAVBaseDialog@@@std@@@3@$0A@@std@@@std@@KAABHPAU_Node@?$_Tree_nod@V?$_Tmap_traits@HPAVBaseDialog@@U?$less@H@std@@V?$allocator@U?$pair@$$CBHPAVBaseDialog@@@std@@@3@$0A@@std@@@2@@Z ; std::_Tree<std::_Tmap_traits<int,BaseDialog *,std::less<int>,std::allocator<std::pair<int const ,BaseDialog *> >,0> >::_Key
  00325	83 c4 04	 add	 esp, 4
  00328	50		 push	 eax
  00329	8b 45 10	 mov	 eax, DWORD PTR __Val$[ebp]
  0032c	50		 push	 eax
  0032d	e8 00 00 00 00	 call	 ?_Kfn@?$_Tmap_traits@HPAVBaseDialog@@U?$less@H@std@@V?$allocator@U?$pair@$$CBHPAVBaseDialog@@@std@@@3@$0A@@std@@SAABHABU?$pair@$$CBHPAVBaseDialog@@@2@@Z ; std::_Tmap_traits<int,BaseDialog *,std::less<int>,std::allocator<std::pair<int const ,BaseDialog *> >,0>::_Kfn
  00332	83 c4 04	 add	 esp, 4
  00335	50		 push	 eax
  00336	8b 4d d8	 mov	 ecx, DWORD PTR _this$[ebp]
  00339	e8 00 00 00 00	 call	 ??R?$less@H@std@@QBE_NABH0@Z ; std::less<int>::operator()
  0033e	0f b6 c8	 movzx	 ecx, al
  00341	85 c9		 test	 ecx, ecx
  00343	74 23		 je	 SHORT $L198781

; 551  : 					return (_Insert(true, _Where._Mynode(), _Val));

  00345	8b 55 10	 mov	 edx, DWORD PTR __Val$[ebp]
  00348	52		 push	 edx
  00349	8d 4d 0c	 lea	 ecx, DWORD PTR __Where$[ebp]
  0034c	e8 00 00 00 00	 call	 ?_Mynode@const_iterator@?$_Tree@V?$_Tmap_traits@HPAVBaseDialog@@U?$less@H@std@@V?$allocator@U?$pair@$$CBHPAVBaseDialog@@@std@@@3@$0A@@std@@@std@@QBEPAU_Node@?$_Tree_nod@V?$_Tmap_traits@HPAVBaseDialog@@U?$less@H@std@@V?$allocator@U?$pair@$$CBHPAVBaseDialog@@@std@@@3@$0A@@std@@@3@XZ ; std::_Tree<std::_Tmap_traits<int,BaseDialog *,std::less<int>,std::allocator<std::pair<int const ,BaseDialog *> >,0> >::const_iterator::_Mynode
  00351	50		 push	 eax
  00352	6a 01		 push	 1
  00354	8b 45 08	 mov	 eax, DWORD PTR ___$ReturnUdt$[ebp]
  00357	50		 push	 eax
  00358	8b 4d d8	 mov	 ecx, DWORD PTR _this$[ebp]
  0035b	e8 00 00 00 00	 call	 ?_Insert@?$_Tree@V?$_Tmap_traits@HPAVBaseDialog@@U?$less@H@std@@V?$allocator@U?$pair@$$CBHPAVBaseDialog@@@std@@@3@$0A@@std@@@std@@IAE?AViterator@12@_NPAU_Node@?$_Tree_nod@V?$_Tmap_traits@HPAVBaseDialog@@U?$less@H@std@@V?$allocator@U?$pair@$$CBHPAVBaseDialog@@@std@@@3@$0A@@std@@@2@ABU?$pair@$$CBHPAVBaseDialog@@@2@@Z ; std::_Tree<std::_Tmap_traits<int,BaseDialog *,std::less<int>,std::allocator<std::pair<int const ,BaseDialog *> >,0> >::_Insert
  00360	8b 45 08	 mov	 eax, DWORD PTR ___$ReturnUdt$[ebp]
  00363	e9 57 02 00 00	 jmp	 $L198749
$L198781:

; 552  : 				}
; 553  : 			else if (_Where == end())

  00368	e9 38 02 00 00	 jmp	 $L198753
$L198780:
  0036d	8d 4d e8	 lea	 ecx, DWORD PTR $T199900[ebp]
  00370	51		 push	 ecx
  00371	8b 4d d8	 mov	 ecx, DWORD PTR _this$[ebp]
  00374	e8 00 00 00 00	 call	 ?end@?$_Tree@V?$_Tmap_traits@HPAVBaseDialog@@U?$less@H@std@@V?$allocator@U?$pair@$$CBHPAVBaseDialog@@@std@@@3@$0A@@std@@@std@@QAE?AViterator@12@XZ ; std::_Tree<std::_Tmap_traits<int,BaseDialog *,std::less<int>,std::allocator<std::pair<int const ,BaseDialog *> >,0> >::end
  00379	50		 push	 eax
  0037a	8d 4d 0c	 lea	 ecx, DWORD PTR __Where$[ebp]
  0037d	e8 00 00 00 00	 call	 ??8const_iterator@?$_Tree@V?$_Tmap_traits@HPAVBaseDialog@@U?$less@H@std@@V?$allocator@U?$pair@$$CBHPAVBaseDialog@@@std@@@3@$0A@@std@@@std@@QBE_NABV012@@Z ; std::_Tree<std::_Tmap_traits<int,BaseDialog *,std::less<int>,std::allocator<std::pair<int const ,BaseDialog *> >,0> >::const_iterator::operator==
  00382	0f b6 d0	 movzx	 edx, al
  00385	85 d2		 test	 edx, edx
  00387	74 5a		 je	 SHORT $L198785

; 554  : 				{	// insert at end if after last element
; 555  : 				if (this->comp(_Key(_Rmost()), this->_Kfn(_Val)))

  00389	8b 45 10	 mov	 eax, DWORD PTR __Val$[ebp]
  0038c	50		 push	 eax
  0038d	e8 00 00 00 00	 call	 ?_Kfn@?$_Tmap_traits@HPAVBaseDialog@@U?$less@H@std@@V?$allocator@U?$pair@$$CBHPAVBaseDialog@@@std@@@3@$0A@@std@@SAABHABU?$pair@$$CBHPAVBaseDialog@@@2@@Z ; std::_Tmap_traits<int,BaseDialog *,std::less<int>,std::allocator<std::pair<int const ,BaseDialog *> >,0>::_Kfn
  00392	83 c4 04	 add	 esp, 4
  00395	50		 push	 eax
  00396	8b 4d d8	 mov	 ecx, DWORD PTR _this$[ebp]
  00399	e8 00 00 00 00	 call	 ?_Rmost@?$_Tree@V?$_Tmap_traits@HPAVBaseDialog@@U?$less@H@std@@V?$allocator@U?$pair@$$CBHPAVBaseDialog@@@std@@@3@$0A@@std@@@std@@IAEAAPAU_Node@?$_Tree_nod@V?$_Tmap_traits@HPAVBaseDialog@@U?$less@H@std@@V?$allocator@U?$pair@$$CBHPAVBaseDialog@@@std@@@3@$0A@@std@@@2@XZ ; std::_Tree<std::_Tmap_traits<int,BaseDialog *,std::less<int>,std::allocator<std::pair<int const ,BaseDialog *> >,0> >::_Rmost
  0039e	8b 08		 mov	 ecx, DWORD PTR [eax]
  003a0	51		 push	 ecx
  003a1	e8 00 00 00 00	 call	 ?_Key@?$_Tree@V?$_Tmap_traits@HPAVBaseDialog@@U?$less@H@std@@V?$allocator@U?$pair@$$CBHPAVBaseDialog@@@std@@@3@$0A@@std@@@std@@KAABHPAU_Node@?$_Tree_nod@V?$_Tmap_traits@HPAVBaseDialog@@U?$less@H@std@@V?$allocator@U?$pair@$$CBHPAVBaseDialog@@@std@@@3@$0A@@std@@@2@@Z ; std::_Tree<std::_Tmap_traits<int,BaseDialog *,std::less<int>,std::allocator<std::pair<int const ,BaseDialog *> >,0> >::_Key
  003a6	83 c4 04	 add	 esp, 4
  003a9	50		 push	 eax
  003aa	8b 4d d8	 mov	 ecx, DWORD PTR _this$[ebp]
  003ad	e8 00 00 00 00	 call	 ??R?$less@H@std@@QBE_NABH0@Z ; std::less<int>::operator()
  003b2	0f b6 d0	 movzx	 edx, al
  003b5	85 d2		 test	 edx, edx
  003b7	74 25		 je	 SHORT $L198786

; 556  : 					return (_Insert(false, _Rmost(), _Val));

  003b9	8b 45 10	 mov	 eax, DWORD PTR __Val$[ebp]
  003bc	50		 push	 eax
  003bd	8b 4d d8	 mov	 ecx, DWORD PTR _this$[ebp]
  003c0	e8 00 00 00 00	 call	 ?_Rmost@?$_Tree@V?$_Tmap_traits@HPAVBaseDialog@@U?$less@H@std@@V?$allocator@U?$pair@$$CBHPAVBaseDialog@@@std@@@3@$0A@@std@@@std@@IAEAAPAU_Node@?$_Tree_nod@V?$_Tmap_traits@HPAVBaseDialog@@U?$less@H@std@@V?$allocator@U?$pair@$$CBHPAVBaseDialog@@@std@@@3@$0A@@std@@@2@XZ ; std::_Tree<std::_Tmap_traits<int,BaseDialog *,std::less<int>,std::allocator<std::pair<int const ,BaseDialog *> >,0> >::_Rmost
  003c5	8b 08		 mov	 ecx, DWORD PTR [eax]
  003c7	51		 push	 ecx
  003c8	6a 00		 push	 0
  003ca	8b 55 08	 mov	 edx, DWORD PTR ___$ReturnUdt$[ebp]
  003cd	52		 push	 edx
  003ce	8b 4d d8	 mov	 ecx, DWORD PTR _this$[ebp]
  003d1	e8 00 00 00 00	 call	 ?_Insert@?$_Tree@V?$_Tmap_traits@HPAVBaseDialog@@U?$less@H@std@@V?$allocator@U?$pair@$$CBHPAVBaseDialog@@@std@@@3@$0A@@std@@@std@@IAE?AViterator@12@_NPAU_Node@?$_Tree_nod@V?$_Tmap_traits@HPAVBaseDialog@@U?$less@H@std@@V?$allocator@U?$pair@$$CBHPAVBaseDialog@@@std@@@3@$0A@@std@@@2@ABU?$pair@$$CBHPAVBaseDialog@@@2@@Z ; std::_Tree<std::_Tmap_traits<int,BaseDialog *,std::less<int>,std::allocator<std::pair<int const ,BaseDialog *> >,0> >::_Insert
  003d6	8b 45 08	 mov	 eax, DWORD PTR ___$ReturnUdt$[ebp]
  003d9	e9 e1 01 00 00	 jmp	 $L198749
$L198786:

; 557  : 				}
; 558  : 			else if (this->comp(this->_Kfn(_Val), _Key(_Where._Mynode()))

  003de	e9 c2 01 00 00	 jmp	 $L198753
$L198785:

; 559  : 				&& this->comp(_Key((--(_Next = _Where))._Mynode()),
; 560  : 					this->_Kfn(_Val)))

  003e3	8d 4d 0c	 lea	 ecx, DWORD PTR __Where$[ebp]
  003e6	e8 00 00 00 00	 call	 ?_Mynode@const_iterator@?$_Tree@V?$_Tmap_traits@HPAVBaseDialog@@U?$less@H@std@@V?$allocator@U?$pair@$$CBHPAVBaseDialog@@@std@@@3@$0A@@std@@@std@@QBEPAU_Node@?$_Tree_nod@V?$_Tmap_traits@HPAVBaseDialog@@U?$less@H@std@@V?$allocator@U?$pair@$$CBHPAVBaseDialog@@@std@@@3@$0A@@std@@@3@XZ ; std::_Tree<std::_Tmap_traits<int,BaseDialog *,std::less<int>,std::allocator<std::pair<int const ,BaseDialog *> >,0> >::const_iterator::_Mynode
  003eb	50		 push	 eax
  003ec	e8 00 00 00 00	 call	 ?_Key@?$_Tree@V?$_Tmap_traits@HPAVBaseDialog@@U?$less@H@std@@V?$allocator@U?$pair@$$CBHPAVBaseDialog@@@std@@@3@$0A@@std@@@std@@KAABHPAU_Node@?$_Tree_nod@V?$_Tmap_traits@HPAVBaseDialog@@U?$less@H@std@@V?$allocator@U?$pair@$$CBHPAVBaseDialog@@@std@@@3@$0A@@std@@@2@@Z ; std::_Tree<std::_Tmap_traits<int,BaseDialog *,std::less<int>,std::allocator<std::pair<int const ,BaseDialog *> >,0> >::_Key
  003f1	83 c4 04	 add	 esp, 4
  003f4	50		 push	 eax
  003f5	8b 45 10	 mov	 eax, DWORD PTR __Val$[ebp]
  003f8	50		 push	 eax
  003f9	e8 00 00 00 00	 call	 ?_Kfn@?$_Tmap_traits@HPAVBaseDialog@@U?$less@H@std@@V?$allocator@U?$pair@$$CBHPAVBaseDialog@@@std@@@3@$0A@@std@@SAABHABU?$pair@$$CBHPAVBaseDialog@@@2@@Z ; std::_Tmap_traits<int,BaseDialog *,std::less<int>,std::allocator<std::pair<int const ,BaseDialog *> >,0>::_Kfn
  003fe	83 c4 04	 add	 esp, 4
  00401	50		 push	 eax
  00402	8b 4d d8	 mov	 ecx, DWORD PTR _this$[ebp]
  00405	e8 00 00 00 00	 call	 ??R?$less@H@std@@QBE_NABH0@Z ; std::less<int>::operator()
  0040a	0f b6 c8	 movzx	 ecx, al
  0040d	85 c9		 test	 ecx, ecx
  0040f	0f 84 a4 00 00
	00		 je	 $L198789
  00415	8b 55 0c	 mov	 edx, DWORD PTR __Where$[ebp]
  00418	89 55 fc	 mov	 DWORD PTR __Next$[ebp], edx
  0041b	8b 45 10	 mov	 eax, DWORD PTR __Val$[ebp]
  0041e	50		 push	 eax
  0041f	e8 00 00 00 00	 call	 ?_Kfn@?$_Tmap_traits@HPAVBaseDialog@@U?$less@H@std@@V?$allocator@U?$pair@$$CBHPAVBaseDialog@@@std@@@3@$0A@@std@@SAABHABU?$pair@$$CBHPAVBaseDialog@@@2@@Z ; std::_Tmap_traits<int,BaseDialog *,std::less<int>,std::allocator<std::pair<int const ,BaseDialog *> >,0>::_Kfn
  00424	83 c4 04	 add	 esp, 4
  00427	50		 push	 eax
  00428	8d 4d fc	 lea	 ecx, DWORD PTR __Next$[ebp]
  0042b	e8 00 00 00 00	 call	 ??Fiterator@?$_Tree@V?$_Tmap_traits@HPAVBaseDialog@@U?$less@H@std@@V?$allocator@U?$pair@$$CBHPAVBaseDialog@@@std@@@3@$0A@@std@@@std@@QAEAAV012@XZ ; std::_Tree<std::_Tmap_traits<int,BaseDialog *,std::less<int>,std::allocator<std::pair<int const ,BaseDialog *> >,0> >::iterator::operator--
  00430	8b c8		 mov	 ecx, eax
  00432	e8 00 00 00 00	 call	 ?_Mynode@const_iterator@?$_Tree@V?$_Tmap_traits@HPAVBaseDialog@@U?$less@H@std@@V?$allocator@U?$pair@$$CBHPAVBaseDialog@@@std@@@3@$0A@@std@@@std@@QBEPAU_Node@?$_Tree_nod@V?$_Tmap_traits@HPAVBaseDialog@@U?$less@H@std@@V?$allocator@U?$pair@$$CBHPAVBaseDialog@@@std@@@3@$0A@@std@@@3@XZ ; std::_Tree<std::_Tmap_traits<int,BaseDialog *,std::less<int>,std::allocator<std::pair<int const ,BaseDialog *> >,0> >::const_iterator::_Mynode
  00437	50		 push	 eax
  00438	e8 00 00 00 00	 call	 ?_Key@?$_Tree@V?$_Tmap_traits@HPAVBaseDialog@@U?$less@H@std@@V?$allocator@U?$pair@$$CBHPAVBaseDialog@@@std@@@3@$0A@@std@@@std@@KAABHPAU_Node@?$_Tree_nod@V?$_Tmap_traits@HPAVBaseDialog@@U?$less@H@std@@V?$allocator@U?$pair@$$CBHPAVBaseDialog@@@std@@@3@$0A@@std@@@2@@Z ; std::_Tree<std::_Tmap_traits<int,BaseDialog *,std::less<int>,std::allocator<std::pair<int const ,BaseDialog *> >,0> >::_Key
  0043d	83 c4 04	 add	 esp, 4
  00440	50		 push	 eax
  00441	8b 4d d8	 mov	 ecx, DWORD PTR _this$[ebp]
  00444	e8 00 00 00 00	 call	 ??R?$less@H@std@@QBE_NABH0@Z ; std::less<int>::operator()
  00449	0f b6 c8	 movzx	 ecx, al
  0044c	85 c9		 test	 ecx, ecx
  0044e	74 69		 je	 SHORT $L198789

; 561  : 				{	// insert before _Where
; 562  : 				if (_Isnil(_Right(_Next._Mynode())))

  00450	8d 4d fc	 lea	 ecx, DWORD PTR __Next$[ebp]
  00453	e8 00 00 00 00	 call	 ?_Mynode@const_iterator@?$_Tree@V?$_Tmap_traits@HPAVBaseDialog@@U?$less@H@std@@V?$allocator@U?$pair@$$CBHPAVBaseDialog@@@std@@@3@$0A@@std@@@std@@QBEPAU_Node@?$_Tree_nod@V?$_Tmap_traits@HPAVBaseDialog@@U?$less@H@std@@V?$allocator@U?$pair@$$CBHPAVBaseDialog@@@std@@@3@$0A@@std@@@3@XZ ; std::_Tree<std::_Tmap_traits<int,BaseDialog *,std::less<int>,std::allocator<std::pair<int const ,BaseDialog *> >,0> >::const_iterator::_Mynode
  00458	50		 push	 eax
  00459	e8 00 00 00 00	 call	 ?_Right@?$_Tree@V?$_Tmap_traits@HPAVBaseDialog@@U?$less@H@std@@V?$allocator@U?$pair@$$CBHPAVBaseDialog@@@std@@@3@$0A@@std@@@std@@KAAAPAU_Node@?$_Tree_nod@V?$_Tmap_traits@HPAVBaseDialog@@U?$less@H@std@@V?$allocator@U?$pair@$$CBHPAVBaseDialog@@@std@@@3@$0A@@std@@@2@PAU342@@Z ; std::_Tree<std::_Tmap_traits<int,BaseDialog *,std::less<int>,std::allocator<std::pair<int const ,BaseDialog *> >,0> >::_Right
  0045e	83 c4 04	 add	 esp, 4
  00461	8b 10		 mov	 edx, DWORD PTR [eax]
  00463	52		 push	 edx
  00464	e8 00 00 00 00	 call	 ?_Isnil@?$_Tree@V?$_Tmap_traits@HPAVBaseDialog@@U?$less@H@std@@V?$allocator@U?$pair@$$CBHPAVBaseDialog@@@std@@@3@$0A@@std@@@std@@KAAADPAU_Node@?$_Tree_nod@V?$_Tmap_traits@HPAVBaseDialog@@U?$less@H@std@@V?$allocator@U?$pair@$$CBHPAVBaseDialog@@@std@@@3@$0A@@std@@@2@@Z ; std::_Tree<std::_Tmap_traits<int,BaseDialog *,std::less<int>,std::allocator<std::pair<int const ,BaseDialog *> >,0> >::_Isnil
  00469	83 c4 04	 add	 esp, 4
  0046c	0f be 00	 movsx	 eax, BYTE PTR [eax]
  0046f	85 c0		 test	 eax, eax
  00471	74 23		 je	 SHORT $L198790

; 563  : 					return (_Insert(false, _Next._Mynode(), _Val));

  00473	8b 4d 10	 mov	 ecx, DWORD PTR __Val$[ebp]
  00476	51		 push	 ecx
  00477	8d 4d fc	 lea	 ecx, DWORD PTR __Next$[ebp]
  0047a	e8 00 00 00 00	 call	 ?_Mynode@const_iterator@?$_Tree@V?$_Tmap_traits@HPAVBaseDialog@@U?$less@H@std@@V?$allocator@U?$pair@$$CBHPAVBaseDialog@@@std@@@3@$0A@@std@@@std@@QBEPAU_Node@?$_Tree_nod@V?$_Tmap_traits@HPAVBaseDialog@@U?$less@H@std@@V?$allocator@U?$pair@$$CBHPAVBaseDialog@@@std@@@3@$0A@@std@@@3@XZ ; std::_Tree<std::_Tmap_traits<int,BaseDialog *,std::less<int>,std::allocator<std::pair<int const ,BaseDialog *> >,0> >::const_iterator::_Mynode
  0047f	50		 push	 eax
  00480	6a 00		 push	 0
  00482	8b 55 08	 mov	 edx, DWORD PTR ___$ReturnUdt$[ebp]
  00485	52		 push	 edx
  00486	8b 4d d8	 mov	 ecx, DWORD PTR _this$[ebp]
  00489	e8 00 00 00 00	 call	 ?_Insert@?$_Tree@V?$_Tmap_traits@HPAVBaseDialog@@U?$less@H@std@@V?$allocator@U?$pair@$$CBHPAVBaseDialog@@@std@@@3@$0A@@std@@@std@@IAE?AViterator@12@_NPAU_Node@?$_Tree_nod@V?$_Tmap_traits@HPAVBaseDialog@@U?$less@H@std@@V?$allocator@U?$pair@$$CBHPAVBaseDialog@@@std@@@3@$0A@@std@@@2@ABU?$pair@$$CBHPAVBaseDialog@@@2@@Z ; std::_Tree<std::_Tmap_traits<int,BaseDialog *,std::less<int>,std::allocator<std::pair<int const ,BaseDialog *> >,0> >::_Insert
  0048e	8b 45 08	 mov	 eax, DWORD PTR ___$ReturnUdt$[ebp]
  00491	e9 29 01 00 00	 jmp	 $L198749
$L198790:

; 564  : 				else
; 565  : 					return (_Insert(true, _Where._Mynode(), _Val));

  00496	8b 45 10	 mov	 eax, DWORD PTR __Val$[ebp]
  00499	50		 push	 eax
  0049a	8d 4d 0c	 lea	 ecx, DWORD PTR __Where$[ebp]
  0049d	e8 00 00 00 00	 call	 ?_Mynode@const_iterator@?$_Tree@V?$_Tmap_traits@HPAVBaseDialog@@U?$less@H@std@@V?$allocator@U?$pair@$$CBHPAVBaseDialog@@@std@@@3@$0A@@std@@@std@@QBEPAU_Node@?$_Tree_nod@V?$_Tmap_traits@HPAVBaseDialog@@U?$less@H@std@@V?$allocator@U?$pair@$$CBHPAVBaseDialog@@@std@@@3@$0A@@std@@@3@XZ ; std::_Tree<std::_Tmap_traits<int,BaseDialog *,std::less<int>,std::allocator<std::pair<int const ,BaseDialog *> >,0> >::const_iterator::_Mynode
  004a2	50		 push	 eax
  004a3	6a 01		 push	 1
  004a5	8b 4d 08	 mov	 ecx, DWORD PTR ___$ReturnUdt$[ebp]
  004a8	51		 push	 ecx
  004a9	8b 4d d8	 mov	 ecx, DWORD PTR _this$[ebp]
  004ac	e8 00 00 00 00	 call	 ?_Insert@?$_Tree@V?$_Tmap_traits@HPAVBaseDialog@@U?$less@H@std@@V?$allocator@U?$pair@$$CBHPAVBaseDialog@@@std@@@3@$0A@@std@@@std@@IAE?AViterator@12@_NPAU_Node@?$_Tree_nod@V?$_Tmap_traits@HPAVBaseDialog@@U?$less@H@std@@V?$allocator@U?$pair@$$CBHPAVBaseDialog@@@std@@@3@$0A@@std@@@2@ABU?$pair@$$CBHPAVBaseDialog@@@2@@Z ; std::_Tree<std::_Tmap_traits<int,BaseDialog *,std::less<int>,std::allocator<std::pair<int const ,BaseDialog *> >,0> >::_Insert
  004b1	8b 45 08	 mov	 eax, DWORD PTR ___$ReturnUdt$[ebp]
  004b4	e9 06 01 00 00	 jmp	 $L198749
$L198789:

; 566  : 				}
; 567  : 			else if (this->comp(_Key(_Where._Mynode()), this->_Kfn(_Val))
; 568  : 				&& (++(_Next = _Where) == end()
; 569  : 					|| this->comp(this->_Kfn(_Val),
; 570  : 						_Key(_Next._Mynode()))))

  004b9	8b 55 10	 mov	 edx, DWORD PTR __Val$[ebp]
  004bc	52		 push	 edx
  004bd	e8 00 00 00 00	 call	 ?_Kfn@?$_Tmap_traits@HPAVBaseDialog@@U?$less@H@std@@V?$allocator@U?$pair@$$CBHPAVBaseDialog@@@std@@@3@$0A@@std@@SAABHABU?$pair@$$CBHPAVBaseDialog@@@2@@Z ; std::_Tmap_traits<int,BaseDialog *,std::less<int>,std::allocator<std::pair<int const ,BaseDialog *> >,0>::_Kfn
  004c2	83 c4 04	 add	 esp, 4
  004c5	50		 push	 eax
  004c6	8d 4d 0c	 lea	 ecx, DWORD PTR __Where$[ebp]
  004c9	e8 00 00 00 00	 call	 ?_Mynode@const_iterator@?$_Tree@V?$_Tmap_traits@HPAVBaseDialog@@U?$less@H@std@@V?$allocator@U?$pair@$$CBHPAVBaseDialog@@@std@@@3@$0A@@std@@@std@@QBEPAU_Node@?$_Tree_nod@V?$_Tmap_traits@HPAVBaseDialog@@U?$less@H@std@@V?$allocator@U?$pair@$$CBHPAVBaseDialog@@@std@@@3@$0A@@std@@@3@XZ ; std::_Tree<std::_Tmap_traits<int,BaseDialog *,std::less<int>,std::allocator<std::pair<int const ,BaseDialog *> >,0> >::const_iterator::_Mynode
  004ce	50		 push	 eax
  004cf	e8 00 00 00 00	 call	 ?_Key@?$_Tree@V?$_Tmap_traits@HPAVBaseDialog@@U?$less@H@std@@V?$allocator@U?$pair@$$CBHPAVBaseDialog@@@std@@@3@$0A@@std@@@std@@KAABHPAU_Node@?$_Tree_nod@V?$_Tmap_traits@HPAVBaseDialog@@U?$less@H@std@@V?$allocator@U?$pair@$$CBHPAVBaseDialog@@@std@@@3@$0A@@std@@@2@@Z ; std::_Tree<std::_Tmap_traits<int,BaseDialog *,std::less<int>,std::allocator<std::pair<int const ,BaseDialog *> >,0> >::_Key
  004d4	83 c4 04	 add	 esp, 4
  004d7	50		 push	 eax
  004d8	8b 4d d8	 mov	 ecx, DWORD PTR _this$[ebp]
  004db	e8 00 00 00 00	 call	 ??R?$less@H@std@@QBE_NABH0@Z ; std::less<int>::operator()
  004e0	0f b6 c0	 movzx	 eax, al
  004e3	85 c0		 test	 eax, eax
  004e5	0f 84 ba 00 00
	00		 je	 $L198753
  004eb	8b 4d 0c	 mov	 ecx, DWORD PTR __Where$[ebp]
  004ee	89 4d fc	 mov	 DWORD PTR __Next$[ebp], ecx
  004f1	8d 55 e4	 lea	 edx, DWORD PTR $T199901[ebp]
  004f4	52		 push	 edx
  004f5	8b 4d d8	 mov	 ecx, DWORD PTR _this$[ebp]
  004f8	e8 00 00 00 00	 call	 ?end@?$_Tree@V?$_Tmap_traits@HPAVBaseDialog@@U?$less@H@std@@V?$allocator@U?$pair@$$CBHPAVBaseDialog@@@std@@@3@$0A@@std@@@std@@QAE?AViterator@12@XZ ; std::_Tree<std::_Tmap_traits<int,BaseDialog *,std::less<int>,std::allocator<std::pair<int const ,BaseDialog *> >,0> >::end
  004fd	50		 push	 eax
  004fe	8d 4d fc	 lea	 ecx, DWORD PTR __Next$[ebp]
  00501	e8 00 00 00 00	 call	 ??Eiterator@?$_Tree@V?$_Tmap_traits@HPAVBaseDialog@@U?$less@H@std@@V?$allocator@U?$pair@$$CBHPAVBaseDialog@@@std@@@3@$0A@@std@@@std@@QAEAAV012@XZ ; std::_Tree<std::_Tmap_traits<int,BaseDialog *,std::less<int>,std::allocator<std::pair<int const ,BaseDialog *> >,0> >::iterator::operator++
  00506	8b c8		 mov	 ecx, eax
  00508	e8 00 00 00 00	 call	 ??8const_iterator@?$_Tree@V?$_Tmap_traits@HPAVBaseDialog@@U?$less@H@std@@V?$allocator@U?$pair@$$CBHPAVBaseDialog@@@std@@@3@$0A@@std@@@std@@QBE_NABV012@@Z ; std::_Tree<std::_Tmap_traits<int,BaseDialog *,std::less<int>,std::allocator<std::pair<int const ,BaseDialog *> >,0> >::const_iterator::operator==
  0050d	0f b6 c0	 movzx	 eax, al
  00510	85 c0		 test	 eax, eax
  00512	75 2e		 jne	 SHORT $L198797
  00514	8d 4d fc	 lea	 ecx, DWORD PTR __Next$[ebp]
  00517	e8 00 00 00 00	 call	 ?_Mynode@const_iterator@?$_Tree@V?$_Tmap_traits@HPAVBaseDialog@@U?$less@H@std@@V?$allocator@U?$pair@$$CBHPAVBaseDialog@@@std@@@3@$0A@@std@@@std@@QBEPAU_Node@?$_Tree_nod@V?$_Tmap_traits@HPAVBaseDialog@@U?$less@H@std@@V?$allocator@U?$pair@$$CBHPAVBaseDialog@@@std@@@3@$0A@@std@@@3@XZ ; std::_Tree<std::_Tmap_traits<int,BaseDialog *,std::less<int>,std::allocator<std::pair<int const ,BaseDialog *> >,0> >::const_iterator::_Mynode
  0051c	50		 push	 eax
  0051d	e8 00 00 00 00	 call	 ?_Key@?$_Tree@V?$_Tmap_traits@HPAVBaseDialog@@U?$less@H@std@@V?$allocator@U?$pair@$$CBHPAVBaseDialog@@@std@@@3@$0A@@std@@@std@@KAABHPAU_Node@?$_Tree_nod@V?$_Tmap_traits@HPAVBaseDialog@@U?$less@H@std@@V?$allocator@U?$pair@$$CBHPAVBaseDialog@@@std@@@3@$0A@@std@@@2@@Z ; std::_Tree<std::_Tmap_traits<int,BaseDialog *,std::less<int>,std::allocator<std::pair<int const ,BaseDialog *> >,0> >::_Key
  00522	83 c4 04	 add	 esp, 4
  00525	50		 push	 eax
  00526	8b 4d 10	 mov	 ecx, DWORD PTR __Val$[ebp]
  00529	51		 push	 ecx
  0052a	e8 00 00 00 00	 call	 ?_Kfn@?$_Tmap_traits@HPAVBaseDialog@@U?$less@H@std@@V?$allocator@U?$pair@$$CBHPAVBaseDialog@@@std@@@3@$0A@@std@@SAABHABU?$pair@$$CBHPAVBaseDialog@@@2@@Z ; std::_Tmap_traits<int,BaseDialog *,std::less<int>,std::allocator<std::pair<int const ,BaseDialog *> >,0>::_Kfn
  0052f	83 c4 04	 add	 esp, 4
  00532	50		 push	 eax
  00533	8b 4d d8	 mov	 ecx, DWORD PTR _this$[ebp]
  00536	e8 00 00 00 00	 call	 ??R?$less@H@std@@QBE_NABH0@Z ; std::less<int>::operator()
  0053b	0f b6 d0	 movzx	 edx, al
  0053e	85 d2		 test	 edx, edx
  00540	74 63		 je	 SHORT $L198753
$L198797:

; 571  : 				{	// insert after _Where
; 572  : 				if (_Isnil(_Right(_Where._Mynode())))

  00542	8d 4d 0c	 lea	 ecx, DWORD PTR __Where$[ebp]
  00545	e8 00 00 00 00	 call	 ?_Mynode@const_iterator@?$_Tree@V?$_Tmap_traits@HPAVBaseDialog@@U?$less@H@std@@V?$allocator@U?$pair@$$CBHPAVBaseDialog@@@std@@@3@$0A@@std@@@std@@QBEPAU_Node@?$_Tree_nod@V?$_Tmap_traits@HPAVBaseDialog@@U?$less@H@std@@V?$allocator@U?$pair@$$CBHPAVBaseDialog@@@std@@@3@$0A@@std@@@3@XZ ; std::_Tree<std::_Tmap_traits<int,BaseDialog *,std::less<int>,std::allocator<std::pair<int const ,BaseDialog *> >,0> >::const_iterator::_Mynode
  0054a	50		 push	 eax
  0054b	e8 00 00 00 00	 call	 ?_Right@?$_Tree@V?$_Tmap_traits@HPAVBaseDialog@@U?$less@H@std@@V?$allocator@U?$pair@$$CBHPAVBaseDialog@@@std@@@3@$0A@@std@@@std@@KAAAPAU_Node@?$_Tree_nod@V?$_Tmap_traits@HPAVBaseDialog@@U?$less@H@std@@V?$allocator@U?$pair@$$CBHPAVBaseDialog@@@std@@@3@$0A@@std@@@2@PAU342@@Z ; std::_Tree<std::_Tmap_traits<int,BaseDialog *,std::less<int>,std::allocator<std::pair<int const ,BaseDialog *> >,0> >::_Right
  00550	83 c4 04	 add	 esp, 4
  00553	8b 00		 mov	 eax, DWORD PTR [eax]
  00555	50		 push	 eax
  00556	e8 00 00 00 00	 call	 ?_Isnil@?$_Tree@V?$_Tmap_traits@HPAVBaseDialog@@U?$less@H@std@@V?$allocator@U?$pair@$$CBHPAVBaseDialog@@@std@@@3@$0A@@std@@@std@@KAAADPAU_Node@?$_Tree_nod@V?$_Tmap_traits@HPAVBaseDialog@@U?$less@H@std@@V?$allocator@U?$pair@$$CBHPAVBaseDialog@@@std@@@3@$0A@@std@@@2@@Z ; std::_Tree<std::_Tmap_traits<int,BaseDialog *,std::less<int>,std::allocator<std::pair<int const ,BaseDialog *> >,0> >::_Isnil
  0055b	83 c4 04	 add	 esp, 4
  0055e	0f be 08	 movsx	 ecx, BYTE PTR [eax]
  00561	85 c9		 test	 ecx, ecx
  00563	74 20		 je	 SHORT $L198798

; 573  : 					return (_Insert(false, _Where._Mynode(), _Val));

  00565	8b 55 10	 mov	 edx, DWORD PTR __Val$[ebp]
  00568	52		 push	 edx
  00569	8d 4d 0c	 lea	 ecx, DWORD PTR __Where$[ebp]
  0056c	e8 00 00 00 00	 call	 ?_Mynode@const_iterator@?$_Tree@V?$_Tmap_traits@HPAVBaseDialog@@U?$less@H@std@@V?$allocator@U?$pair@$$CBHPAVBaseDialog@@@std@@@3@$0A@@std@@@std@@QBEPAU_Node@?$_Tree_nod@V?$_Tmap_traits@HPAVBaseDialog@@U?$less@H@std@@V?$allocator@U?$pair@$$CBHPAVBaseDialog@@@std@@@3@$0A@@std@@@3@XZ ; std::_Tree<std::_Tmap_traits<int,BaseDialog *,std::less<int>,std::allocator<std::pair<int const ,BaseDialog *> >,0> >::const_iterator::_Mynode
  00571	50		 push	 eax
  00572	6a 00		 push	 0
  00574	8b 45 08	 mov	 eax, DWORD PTR ___$ReturnUdt$[ebp]
  00577	50		 push	 eax
  00578	8b 4d d8	 mov	 ecx, DWORD PTR _this$[ebp]
  0057b	e8 00 00 00 00	 call	 ?_Insert@?$_Tree@V?$_Tmap_traits@HPAVBaseDialog@@U?$less@H@std@@V?$allocator@U?$pair@$$CBHPAVBaseDialog@@@std@@@3@$0A@@std@@@std@@IAE?AViterator@12@_NPAU_Node@?$_Tree_nod@V?$_Tmap_traits@HPAVBaseDialog@@U?$less@H@std@@V?$allocator@U?$pair@$$CBHPAVBaseDialog@@@std@@@3@$0A@@std@@@2@ABU?$pair@$$CBHPAVBaseDialog@@@2@@Z ; std::_Tree<std::_Tmap_traits<int,BaseDialog *,std::less<int>,std::allocator<std::pair<int const ,BaseDialog *> >,0> >::_Insert
  00580	8b 45 08	 mov	 eax, DWORD PTR ___$ReturnUdt$[ebp]
  00583	eb 3a		 jmp	 SHORT $L198749
$L198798:

; 574  : 				else
; 575  : 					return (_Insert(true, _Next._Mynode(), _Val));

  00585	8b 4d 10	 mov	 ecx, DWORD PTR __Val$[ebp]
  00588	51		 push	 ecx
  00589	8d 4d fc	 lea	 ecx, DWORD PTR __Next$[ebp]
  0058c	e8 00 00 00 00	 call	 ?_Mynode@const_iterator@?$_Tree@V?$_Tmap_traits@HPAVBaseDialog@@U?$less@H@std@@V?$allocator@U?$pair@$$CBHPAVBaseDialog@@@std@@@3@$0A@@std@@@std@@QBEPAU_Node@?$_Tree_nod@V?$_Tmap_traits@HPAVBaseDialog@@U?$less@H@std@@V?$allocator@U?$pair@$$CBHPAVBaseDialog@@@std@@@3@$0A@@std@@@3@XZ ; std::_Tree<std::_Tmap_traits<int,BaseDialog *,std::less<int>,std::allocator<std::pair<int const ,BaseDialog *> >,0> >::const_iterator::_Mynode
  00591	50		 push	 eax
  00592	6a 01		 push	 1
  00594	8b 55 08	 mov	 edx, DWORD PTR ___$ReturnUdt$[ebp]
  00597	52		 push	 edx
  00598	8b 4d d8	 mov	 ecx, DWORD PTR _this$[ebp]
  0059b	e8 00 00 00 00	 call	 ?_Insert@?$_Tree@V?$_Tmap_traits@HPAVBaseDialog@@U?$less@H@std@@V?$allocator@U?$pair@$$CBHPAVBaseDialog@@@std@@@3@$0A@@std@@@std@@IAE?AViterator@12@_NPAU_Node@?$_Tree_nod@V?$_Tmap_traits@HPAVBaseDialog@@U?$less@H@std@@V?$allocator@U?$pair@$$CBHPAVBaseDialog@@@std@@@3@$0A@@std@@@2@ABU?$pair@$$CBHPAVBaseDialog@@@2@@Z ; std::_Tree<std::_Tmap_traits<int,BaseDialog *,std::less<int>,std::allocator<std::pair<int const ,BaseDialog *> >,0> >::_Insert
  005a0	8b 45 08	 mov	 eax, DWORD PTR ___$ReturnUdt$[ebp]
  005a3	eb 1a		 jmp	 SHORT $L198749
$L198753:

; 576  : 				}
; 577  : 			}
; 578  : 
; 579  : 		return (insert(_Val).first);	// try usual insert if all else fails

  005a5	8b 45 10	 mov	 eax, DWORD PTR __Val$[ebp]
  005a8	50		 push	 eax
  005a9	8d 4d dc	 lea	 ecx, DWORD PTR $T199902[ebp]
  005ac	51		 push	 ecx
  005ad	8b 4d d8	 mov	 ecx, DWORD PTR _this$[ebp]
  005b0	e8 00 00 00 00	 call	 ?insert@?$_Tree@V?$_Tmap_traits@HPAVBaseDialog@@U?$less@H@std@@V?$allocator@U?$pair@$$CBHPAVBaseDialog@@@std@@@3@$0A@@std@@@std@@QAE?AU?$pair@Viterator@?$_Tree@V?$_Tmap_traits@HPAVBaseDialog@@U?$less@H@std@@V?$allocator@U?$pair@$$CBHPAVBaseDialog@@@std@@@3@$0A@@std@@@std@@_N@2@ABU?$pair@$$CBHPAVBaseDialog@@@2@@Z ; std::_Tree<std::_Tmap_traits<int,BaseDialog *,std::less<int>,std::allocator<std::pair<int const ,BaseDialog *> >,0> >::insert
  005b5	8b 10		 mov	 edx, DWORD PTR [eax]
  005b7	8b 45 08	 mov	 eax, DWORD PTR ___$ReturnUdt$[ebp]
  005ba	89 10		 mov	 DWORD PTR [eax], edx
  005bc	8b 45 08	 mov	 eax, DWORD PTR ___$ReturnUdt$[ebp]
$L198749:

; 580  : 		}

  005bf	8b e5		 mov	 esp, ebp
  005c1	5d		 pop	 ebp
  005c2	c2 0c 00	 ret	 12			; 0000000cH
?insert@?$_Tree@V?$_Tmap_traits@HPAVBaseDialog@@U?$less@H@std@@V?$allocator@U?$pair@$$CBHPAVBaseDialog@@@std@@@3@$0A@@std@@@std@@QAE?AViterator@12@V312@ABU?$pair@$$CBHPAVBaseDialog@@@2@@Z ENDP ; std::_Tree<std::_Tmap_traits<int,BaseDialog *,std::less<int>,std::allocator<std::pair<int const ,BaseDialog *> >,0> >::insert
_TEXT	ENDS
PUBLIC	?_Lbound@?$_Tree@V?$_Tmap_traits@HPAVBaseDialog@@U?$less@H@std@@V?$allocator@U?$pair@$$CBHPAVBaseDialog@@@std@@@3@$0A@@std@@@std@@IBEPAU_Node@?$_Tree_nod@V?$_Tmap_traits@HPAVBaseDialog@@U?$less@H@std@@V?$allocator@U?$pair@$$CBHPAVBaseDialog@@@std@@@3@$0A@@std@@@2@ABH@Z ; std::_Tree<std::_Tmap_traits<int,BaseDialog *,std::less<int>,std::allocator<std::pair<int const ,BaseDialog *> >,0> >::_Lbound
; Function compile flags: /Odt
;	COMDAT ?lower_bound@?$_Tree@V?$_Tmap_traits@HPAVBaseDialog@@U?$less@H@std@@V?$allocator@U?$pair@$$CBHPAVBaseDialog@@@std@@@3@$0A@@std@@@std@@QAE?AViterator@12@ABH@Z
_TEXT	SEGMENT
_this$ = -4						; size = 4
___$ReturnUdt$ = 8					; size = 4
__Keyval$ = 12						; size = 4
?lower_bound@?$_Tree@V?$_Tmap_traits@HPAVBaseDialog@@U?$less@H@std@@V?$allocator@U?$pair@$$CBHPAVBaseDialog@@@std@@@3@$0A@@std@@@std@@QAE?AViterator@12@ABH@Z PROC NEAR ; std::_Tree<std::_Tmap_traits<int,BaseDialog *,std::less<int>,std::allocator<std::pair<int const ,BaseDialog *> >,0> >::lower_bound, COMDAT
; _this$ = ecx

; 809  : 		{	// find leftmost node not less than _Keyval in mutable tree

  00000	55		 push	 ebp
  00001	8b ec		 mov	 ebp, esp
  00003	51		 push	 ecx
  00004	89 4d fc	 mov	 DWORD PTR _this$[ebp], ecx

; 810  : 		return (_TREE_ITERATOR(_Lbound(_Keyval)));

  00007	8b 45 0c	 mov	 eax, DWORD PTR __Keyval$[ebp]
  0000a	50		 push	 eax
  0000b	8b 4d fc	 mov	 ecx, DWORD PTR _this$[ebp]
  0000e	e8 00 00 00 00	 call	 ?_Lbound@?$_Tree@V?$_Tmap_traits@HPAVBaseDialog@@U?$less@H@std@@V?$allocator@U?$pair@$$CBHPAVBaseDialog@@@std@@@3@$0A@@std@@@std@@IBEPAU_Node@?$_Tree_nod@V?$_Tmap_traits@HPAVBaseDialog@@U?$less@H@std@@V?$allocator@U?$pair@$$CBHPAVBaseDialog@@@std@@@3@$0A@@std@@@2@ABH@Z ; std::_Tree<std::_Tmap_traits<int,BaseDialog *,std::less<int>,std::allocator<std::pair<int const ,BaseDialog *> >,0> >::_Lbound
  00013	50		 push	 eax
  00014	8b 4d 08	 mov	 ecx, DWORD PTR ___$ReturnUdt$[ebp]
  00017	e8 00 00 00 00	 call	 ??0iterator@?$_Tree@V?$_Tmap_traits@HPAVBaseDialog@@U?$less@H@std@@V?$allocator@U?$pair@$$CBHPAVBaseDialog@@@std@@@3@$0A@@std@@@std@@QAE@PAU_Node@?$_Tree_nod@V?$_Tmap_traits@HPAVBaseDialog@@U?$less@H@std@@V?$allocator@U?$pair@$$CBHPAVBaseDialog@@@std@@@3@$0A@@std@@@2@@Z ; std::_Tree<std::_Tmap_traits<int,BaseDialog *,std::less<int>,std::allocator<std::pair<int const ,BaseDialog *> >,0> >::iterator::iterator
  0001c	8b 45 08	 mov	 eax, DWORD PTR ___$ReturnUdt$[ebp]

; 811  : 		}

  0001f	8b e5		 mov	 esp, ebp
  00021	5d		 pop	 ebp
  00022	c2 08 00	 ret	 8
?lower_bound@?$_Tree@V?$_Tmap_traits@HPAVBaseDialog@@U?$less@H@std@@V?$allocator@U?$pair@$$CBHPAVBaseDialog@@@std@@@3@$0A@@std@@@std@@QAE?AViterator@12@ABH@Z ENDP ; std::_Tree<std::_Tmap_traits<int,BaseDialog *,std::less<int>,std::allocator<std::pair<int const ,BaseDialog *> >,0> >::lower_bound
_TEXT	ENDS
PUBLIC	?deallocate@?$allocator@U_Node@?$_Tree_nod@V?$_Tmap_traits@HPAVBaseDialog@@U?$less@H@std@@V?$allocator@U?$pair@$$CBHPAVBaseDialog@@@std@@@3@$0A@@std@@@std@@@std@@QAEXPAU_Node@?$_Tree_nod@V?$_Tmap_traits@HPAVBaseDialog@@U?$less@H@std@@V?$allocator@U?$pair@$$CBHPAVBaseDialog@@@std@@@3@$0A@@std@@@2@I@Z ; std::allocator<std::_Tree_nod<std::_Tmap_traits<int,BaseDialog *,std::less<int>,std::allocator<std::pair<int const ,BaseDialog *> >,0> >::_Node>::deallocate
PUBLIC	?destroy@?$allocator@PAU_Node@?$_Tree_nod@V?$_Tmap_traits@HPAVBaseDialog@@U?$less@H@std@@V?$allocator@U?$pair@$$CBHPAVBaseDialog@@@std@@@3@$0A@@std@@@std@@@std@@QAEXPAPAU_Node@?$_Tree_nod@V?$_Tmap_traits@HPAVBaseDialog@@U?$less@H@std@@V?$allocator@U?$pair@$$CBHPAVBaseDialog@@@std@@@3@$0A@@std@@@2@@Z ; std::allocator<std::_Tree_nod<std::_Tmap_traits<int,BaseDialog *,std::less<int>,std::allocator<std::pair<int const ,BaseDialog *> >,0> >::_Node *>::destroy
PUBLIC	?_Left@?$_Tree@V?$_Tmap_traits@HPAVBaseDialog@@U?$less@H@std@@V?$allocator@U?$pair@$$CBHPAVBaseDialog@@@std@@@3@$0A@@std@@@std@@KAAAPAU_Node@?$_Tree_nod@V?$_Tmap_traits@HPAVBaseDialog@@U?$less@H@std@@V?$allocator@U?$pair@$$CBHPAVBaseDialog@@@std@@@3@$0A@@std@@@2@PAU342@@Z ; std::_Tree<std::_Tmap_traits<int,BaseDialog *,std::less<int>,std::allocator<std::pair<int const ,BaseDialog *> >,0> >::_Left
PUBLIC	?_Parent@?$_Tree@V?$_Tmap_traits@HPAVBaseDialog@@U?$less@H@std@@V?$allocator@U?$pair@$$CBHPAVBaseDialog@@@std@@@3@$0A@@std@@@std@@KAAAPAU_Node@?$_Tree_nod@V?$_Tmap_traits@HPAVBaseDialog@@U?$less@H@std@@V?$allocator@U?$pair@$$CBHPAVBaseDialog@@@std@@@3@$0A@@std@@@2@PAU342@@Z ; std::_Tree<std::_Tmap_traits<int,BaseDialog *,std::less<int>,std::allocator<std::pair<int const ,BaseDialog *> >,0> >::_Parent
PUBLIC	?erase@?$_Tree@V?$_Tmap_traits@HPAVBaseDialog@@U?$less@H@std@@V?$allocator@U?$pair@$$CBHPAVBaseDialog@@@std@@@3@$0A@@std@@@std@@QAE?AViterator@12@V312@0@Z ; std::_Tree<std::_Tmap_traits<int,BaseDialog *,std::less<int>,std::allocator<std::pair<int const ,BaseDialog *> >,0> >::erase
; Function compile flags: /Odt
;	COMDAT ?_Tidy@?$_Tree@V?$_Tmap_traits@HPAVBaseDialog@@U?$less@H@std@@V?$allocator@U?$pair@$$CBHPAVBaseDialog@@@std@@@3@$0A@@std@@@std@@IAEXXZ
_TEXT	SEGMENT
_this$ = -16						; size = 4
$T199909 = -12						; size = 4
$T199908 = -8						; size = 4
$T199907 = -4						; size = 4
?_Tidy@?$_Tree@V?$_Tmap_traits@HPAVBaseDialog@@U?$less@H@std@@V?$allocator@U?$pair@$$CBHPAVBaseDialog@@@std@@@3@$0A@@std@@@std@@IAEXXZ PROC NEAR ; std::_Tree<std::_Tmap_traits<int,BaseDialog *,std::less<int>,std::allocator<std::pair<int const ,BaseDialog *> >,0> >::_Tidy, COMDAT
; _this$ = ecx

; 1142 : 		{	// free all storage

  00000	55		 push	 ebp
  00001	8b ec		 mov	 ebp, esp
  00003	83 ec 10	 sub	 esp, 16			; 00000010H
  00006	89 4d f0	 mov	 DWORD PTR _this$[ebp], ecx

; 1143 : 		erase(begin(), end());

  00009	8d 45 fc	 lea	 eax, DWORD PTR $T199907[ebp]
  0000c	50		 push	 eax
  0000d	8b 4d f0	 mov	 ecx, DWORD PTR _this$[ebp]
  00010	e8 00 00 00 00	 call	 ?end@?$_Tree@V?$_Tmap_traits@HPAVBaseDialog@@U?$less@H@std@@V?$allocator@U?$pair@$$CBHPAVBaseDialog@@@std@@@3@$0A@@std@@@std@@QAE?AViterator@12@XZ ; std::_Tree<std::_Tmap_traits<int,BaseDialog *,std::less<int>,std::allocator<std::pair<int const ,BaseDialog *> >,0> >::end
  00015	8b 08		 mov	 ecx, DWORD PTR [eax]
  00017	51		 push	 ecx
  00018	8d 55 f8	 lea	 edx, DWORD PTR $T199908[ebp]
  0001b	52		 push	 edx
  0001c	8b 4d f0	 mov	 ecx, DWORD PTR _this$[ebp]
  0001f	e8 00 00 00 00	 call	 ?begin@?$_Tree@V?$_Tmap_traits@HPAVBaseDialog@@U?$less@H@std@@V?$allocator@U?$pair@$$CBHPAVBaseDialog@@@std@@@3@$0A@@std@@@std@@QAE?AViterator@12@XZ ; std::_Tree<std::_Tmap_traits<int,BaseDialog *,std::less<int>,std::allocator<std::pair<int const ,BaseDialog *> >,0> >::begin
  00024	8b 00		 mov	 eax, DWORD PTR [eax]
  00026	50		 push	 eax
  00027	8d 4d f4	 lea	 ecx, DWORD PTR $T199909[ebp]
  0002a	51		 push	 ecx
  0002b	8b 4d f0	 mov	 ecx, DWORD PTR _this$[ebp]
  0002e	e8 00 00 00 00	 call	 ?erase@?$_Tree@V?$_Tmap_traits@HPAVBaseDialog@@U?$less@H@std@@V?$allocator@U?$pair@$$CBHPAVBaseDialog@@@std@@@3@$0A@@std@@@std@@QAE?AViterator@12@V312@0@Z ; std::_Tree<std::_Tmap_traits<int,BaseDialog *,std::less<int>,std::allocator<std::pair<int const ,BaseDialog *> >,0> >::erase

; 1144 : 		this->_Alptr.destroy(&_Left(_Myhead));

  00033	8b 55 f0	 mov	 edx, DWORD PTR _this$[ebp]
  00036	8b 42 04	 mov	 eax, DWORD PTR [edx+4]
  00039	50		 push	 eax
  0003a	e8 00 00 00 00	 call	 ?_Left@?$_Tree@V?$_Tmap_traits@HPAVBaseDialog@@U?$less@H@std@@V?$allocator@U?$pair@$$CBHPAVBaseDialog@@@std@@@3@$0A@@std@@@std@@KAAAPAU_Node@?$_Tree_nod@V?$_Tmap_traits@HPAVBaseDialog@@U?$less@H@std@@V?$allocator@U?$pair@$$CBHPAVBaseDialog@@@std@@@3@$0A@@std@@@2@PAU342@@Z ; std::_Tree<std::_Tmap_traits<int,BaseDialog *,std::less<int>,std::allocator<std::pair<int const ,BaseDialog *> >,0> >::_Left
  0003f	83 c4 04	 add	 esp, 4
  00042	50		 push	 eax
  00043	8b 4d f0	 mov	 ecx, DWORD PTR _this$[ebp]
  00046	83 c1 02	 add	 ecx, 2
  00049	e8 00 00 00 00	 call	 ?destroy@?$allocator@PAU_Node@?$_Tree_nod@V?$_Tmap_traits@HPAVBaseDialog@@U?$less@H@std@@V?$allocator@U?$pair@$$CBHPAVBaseDialog@@@std@@@3@$0A@@std@@@std@@@std@@QAEXPAPAU_Node@?$_Tree_nod@V?$_Tmap_traits@HPAVBaseDialog@@U?$less@H@std@@V?$allocator@U?$pair@$$CBHPAVBaseDialog@@@std@@@3@$0A@@std@@@2@@Z ; std::allocator<std::_Tree_nod<std::_Tmap_traits<int,BaseDialog *,std::less<int>,std::allocator<std::pair<int const ,BaseDialog *> >,0> >::_Node *>::destroy

; 1145 : 		this->_Alptr.destroy(&_Parent(_Myhead));

  0004e	8b 4d f0	 mov	 ecx, DWORD PTR _this$[ebp]
  00051	8b 51 04	 mov	 edx, DWORD PTR [ecx+4]
  00054	52		 push	 edx
  00055	e8 00 00 00 00	 call	 ?_Parent@?$_Tree@V?$_Tmap_traits@HPAVBaseDialog@@U?$less@H@std@@V?$allocator@U?$pair@$$CBHPAVBaseDialog@@@std@@@3@$0A@@std@@@std@@KAAAPAU_Node@?$_Tree_nod@V?$_Tmap_traits@HPAVBaseDialog@@U?$less@H@std@@V?$allocator@U?$pair@$$CBHPAVBaseDialog@@@std@@@3@$0A@@std@@@2@PAU342@@Z ; std::_Tree<std::_Tmap_traits<int,BaseDialog *,std::less<int>,std::allocator<std::pair<int const ,BaseDialog *> >,0> >::_Parent
  0005a	83 c4 04	 add	 esp, 4
  0005d	50		 push	 eax
  0005e	8b 4d f0	 mov	 ecx, DWORD PTR _this$[ebp]
  00061	83 c1 02	 add	 ecx, 2
  00064	e8 00 00 00 00	 call	 ?destroy@?$allocator@PAU_Node@?$_Tree_nod@V?$_Tmap_traits@HPAVBaseDialog@@U?$less@H@std@@V?$allocator@U?$pair@$$CBHPAVBaseDialog@@@std@@@3@$0A@@std@@@std@@@std@@QAEXPAPAU_Node@?$_Tree_nod@V?$_Tmap_traits@HPAVBaseDialog@@U?$less@H@std@@V?$allocator@U?$pair@$$CBHPAVBaseDialog@@@std@@@3@$0A@@std@@@2@@Z ; std::allocator<std::_Tree_nod<std::_Tmap_traits<int,BaseDialog *,std::less<int>,std::allocator<std::pair<int const ,BaseDialog *> >,0> >::_Node *>::destroy

; 1146 : 		this->_Alptr.destroy(&_Right(_Myhead));

  00069	8b 45 f0	 mov	 eax, DWORD PTR _this$[ebp]
  0006c	8b 48 04	 mov	 ecx, DWORD PTR [eax+4]
  0006f	51		 push	 ecx
  00070	e8 00 00 00 00	 call	 ?_Right@?$_Tree@V?$_Tmap_traits@HPAVBaseDialog@@U?$less@H@std@@V?$allocator@U?$pair@$$CBHPAVBaseDialog@@@std@@@3@$0A@@std@@@std@@KAAAPAU_Node@?$_Tree_nod@V?$_Tmap_traits@HPAVBaseDialog@@U?$less@H@std@@V?$allocator@U?$pair@$$CBHPAVBaseDialog@@@std@@@3@$0A@@std@@@2@PAU342@@Z ; std::_Tree<std::_Tmap_traits<int,BaseDialog *,std::less<int>,std::allocator<std::pair<int const ,BaseDialog *> >,0> >::_Right
  00075	83 c4 04	 add	 esp, 4
  00078	50		 push	 eax
  00079	8b 4d f0	 mov	 ecx, DWORD PTR _this$[ebp]
  0007c	83 c1 02	 add	 ecx, 2
  0007f	e8 00 00 00 00	 call	 ?destroy@?$allocator@PAU_Node@?$_Tree_nod@V?$_Tmap_traits@HPAVBaseDialog@@U?$less@H@std@@V?$allocator@U?$pair@$$CBHPAVBaseDialog@@@std@@@3@$0A@@std@@@std@@@std@@QAEXPAPAU_Node@?$_Tree_nod@V?$_Tmap_traits@HPAVBaseDialog@@U?$less@H@std@@V?$allocator@U?$pair@$$CBHPAVBaseDialog@@@std@@@3@$0A@@std@@@2@@Z ; std::allocator<std::_Tree_nod<std::_Tmap_traits<int,BaseDialog *,std::less<int>,std::allocator<std::pair<int const ,BaseDialog *> >,0> >::_Node *>::destroy

; 1147 : 		this->_Alnod.deallocate(_Myhead, 1);

  00084	6a 01		 push	 1
  00086	8b 55 f0	 mov	 edx, DWORD PTR _this$[ebp]
  00089	8b 42 04	 mov	 eax, DWORD PTR [edx+4]
  0008c	50		 push	 eax
  0008d	8b 4d f0	 mov	 ecx, DWORD PTR _this$[ebp]
  00090	83 c1 01	 add	 ecx, 1
  00093	e8 00 00 00 00	 call	 ?deallocate@?$allocator@U_Node@?$_Tree_nod@V?$_Tmap_traits@HPAVBaseDialog@@U?$less@H@std@@V?$allocator@U?$pair@$$CBHPAVBaseDialog@@@std@@@3@$0A@@std@@@std@@@std@@QAEXPAU_Node@?$_Tree_nod@V?$_Tmap_traits@HPAVBaseDialog@@U?$less@H@std@@V?$allocator@U?$pair@$$CBHPAVBaseDialog@@@std@@@3@$0A@@std@@@2@I@Z ; std::allocator<std::_Tree_nod<std::_Tmap_traits<int,BaseDialog *,std::less<int>,std::allocator<std::pair<int const ,BaseDialog *> >,0> >::_Node>::deallocate

; 1148 : 		_Myhead = 0, _Mysize = 0;

  00098	8b 4d f0	 mov	 ecx, DWORD PTR _this$[ebp]
  0009b	c7 41 04 00 00
	00 00		 mov	 DWORD PTR [ecx+4], 0
  000a2	8b 55 f0	 mov	 edx, DWORD PTR _this$[ebp]
  000a5	c7 42 08 00 00
	00 00		 mov	 DWORD PTR [edx+8], 0

; 1149 : 		}

  000ac	8b e5		 mov	 esp, ebp
  000ae	5d		 pop	 ebp
  000af	c3		 ret	 0
?_Tidy@?$_Tree@V?$_Tmap_traits@HPAVBaseDialog@@U?$less@H@std@@V?$allocator@U?$pair@$$CBHPAVBaseDialog@@@std@@@3@$0A@@std@@@std@@IAEXXZ ENDP ; std::_Tree<std::_Tmap_traits<int,BaseDialog *,std::less<int>,std::allocator<std::pair<int const ,BaseDialog *> >,0> >::_Tidy
; Function compile flags: /Odt
; File d:\program files (x86)\microsoft visual studio .net 2003\vc7\include\xmemory
_TEXT	ENDS
;	COMDAT ??0?$allocator@U?$pair@$$CBHPAVBaseDialog@@@std@@@std@@QAE@XZ
_TEXT	SEGMENT
_this$ = -4						; size = 4
??0?$allocator@U?$pair@$$CBHPAVBaseDialog@@@std@@@std@@QAE@XZ PROC NEAR ; std::allocator<std::pair<int const ,BaseDialog *> >::allocator<std::pair<int const ,BaseDialog *> >, COMDAT
; _this$ = ecx

; 111  : 	allocator()

  00000	55		 push	 ebp
  00001	8b ec		 mov	 ebp, esp
  00003	51		 push	 ecx
  00004	89 4d fc	 mov	 DWORD PTR _this$[ebp], ecx

; 112  : 		{	// construct default allocator (do nothing)
; 113  : 		}

  00007	8b 45 fc	 mov	 eax, DWORD PTR _this$[ebp]
  0000a	8b e5		 mov	 esp, ebp
  0000c	5d		 pop	 ebp
  0000d	c3		 ret	 0
??0?$allocator@U?$pair@$$CBHPAVBaseDialog@@@std@@@std@@QAE@XZ ENDP ; std::allocator<std::pair<int const ,BaseDialog *> >::allocator<std::pair<int const ,BaseDialog *> >
; Function compile flags: /Odt
; File d:\program files (x86)\microsoft visual studio .net 2003\vc7\include\functional
_TEXT	ENDS
;	COMDAT ??R?$less@H@std@@QBE_NABH0@Z
_TEXT	SEGMENT
_this$ = -4						; size = 4
__Left$ = 8						; size = 4
__Right$ = 12						; size = 4
??R?$less@H@std@@QBE_NABH0@Z PROC NEAR			; std::less<int>::operator(), COMDAT
; _this$ = ecx

; 138  : 		{	// apply operator< to operands

  00000	55		 push	 ebp
  00001	8b ec		 mov	 ebp, esp
  00003	51		 push	 ecx
  00004	89 4d fc	 mov	 DWORD PTR _this$[ebp], ecx

; 139  : 		return (_Left < _Right);

  00007	8b 45 08	 mov	 eax, DWORD PTR __Left$[ebp]
  0000a	8b 4d 0c	 mov	 ecx, DWORD PTR __Right$[ebp]
  0000d	8b 10		 mov	 edx, DWORD PTR [eax]
  0000f	33 c0		 xor	 eax, eax
  00011	3b 11		 cmp	 edx, DWORD PTR [ecx]
  00013	0f 9c c0	 setl	 al

; 140  : 		}

  00016	8b e5		 mov	 esp, ebp
  00018	5d		 pop	 ebp
  00019	c2 08 00	 ret	 8
??R?$less@H@std@@QBE_NABH0@Z ENDP			; std::less<int>::operator()
_TEXT	ENDS
PUBLIC	??Dconst_iterator@?$_Tree@V?$_Tmap_traits@HPAVBaseDialog@@U?$less@H@std@@V?$allocator@U?$pair@$$CBHPAVBaseDialog@@@std@@@3@$0A@@std@@@std@@QBEABU?$pair@$$CBHPAVBaseDialog@@@2@XZ ; std::_Tree<std::_Tmap_traits<int,BaseDialog *,std::less<int>,std::allocator<std::pair<int const ,BaseDialog *> >,0> >::const_iterator::operator*
; Function compile flags: /Odt
; File d:\program files (x86)\microsoft visual studio .net 2003\vc7\include\xtree
;	COMDAT ??Diterator@?$_Tree@V?$_Tmap_traits@HPAVBaseDialog@@U?$less@H@std@@V?$allocator@U?$pair@$$CBHPAVBaseDialog@@@std@@@3@$0A@@std@@@std@@QBEAAU?$pair@$$CBHPAVBaseDialog@@@2@XZ
_TEXT	SEGMENT
_this$ = -4						; size = 4
??Diterator@?$_Tree@V?$_Tmap_traits@HPAVBaseDialog@@U?$less@H@std@@V?$allocator@U?$pair@$$CBHPAVBaseDialog@@@std@@@3@$0A@@std@@@std@@QBEAAU?$pair@$$CBHPAVBaseDialog@@@2@XZ PROC NEAR ; std::_Tree<std::_Tmap_traits<int,BaseDialog *,std::less<int>,std::allocator<std::pair<int const ,BaseDialog *> >,0> >::iterator::operator*, COMDAT
; _this$ = ecx

; 316  : 			{	// return designated value

  00000	55		 push	 ebp
  00001	8b ec		 mov	 ebp, esp
  00003	51		 push	 ecx
  00004	89 4d fc	 mov	 DWORD PTR _this$[ebp], ecx

; 317  : 			return ((reference)**(const_iterator *)this);

  00007	8b 4d fc	 mov	 ecx, DWORD PTR _this$[ebp]
  0000a	e8 00 00 00 00	 call	 ??Dconst_iterator@?$_Tree@V?$_Tmap_traits@HPAVBaseDialog@@U?$less@H@std@@V?$allocator@U?$pair@$$CBHPAVBaseDialog@@@std@@@3@$0A@@std@@@std@@QBEABU?$pair@$$CBHPAVBaseDialog@@@2@XZ ; std::_Tree<std::_Tmap_traits<int,BaseDialog *,std::less<int>,std::allocator<std::pair<int const ,BaseDialog *> >,0> >::const_iterator::operator*

; 318  : 			}

  0000f	8b e5		 mov	 esp, ebp
  00011	5d		 pop	 ebp
  00012	c3		 ret	 0
??Diterator@?$_Tree@V?$_Tmap_traits@HPAVBaseDialog@@U?$less@H@std@@V?$allocator@U?$pair@$$CBHPAVBaseDialog@@@std@@@3@$0A@@std@@@std@@QBEAAU?$pair@$$CBHPAVBaseDialog@@@2@XZ ENDP ; std::_Tree<std::_Tmap_traits<int,BaseDialog *,std::less<int>,std::allocator<std::pair<int const ,BaseDialog *> >,0> >::iterator::operator*
; Function compile flags: /Odt
_TEXT	ENDS
;	COMDAT ??8const_iterator@?$_Tree@V?$_Tmap_traits@HPAVBaseDialog@@U?$less@H@std@@V?$allocator@U?$pair@$$CBHPAVBaseDialog@@@std@@@3@$0A@@std@@@std@@QBE_NABV012@@Z
_TEXT	SEGMENT
_this$ = -4						; size = 4
__Right$ = 8						; size = 4
??8const_iterator@?$_Tree@V?$_Tmap_traits@HPAVBaseDialog@@U?$less@H@std@@V?$allocator@U?$pair@$$CBHPAVBaseDialog@@@std@@@3@$0A@@std@@@std@@QBE_NABV012@@Z PROC NEAR ; std::_Tree<std::_Tmap_traits<int,BaseDialog *,std::less<int>,std::allocator<std::pair<int const ,BaseDialog *> >,0> >::const_iterator::operator==, COMDAT
; _this$ = ecx

; 240  : 			{	// test for iterator equality

  00000	55		 push	 ebp
  00001	8b ec		 mov	 ebp, esp
  00003	51		 push	 ecx
  00004	89 4d fc	 mov	 DWORD PTR _this$[ebp], ecx

; 241  : 			return (_Ptr == _Right._Ptr);

  00007	8b 45 fc	 mov	 eax, DWORD PTR _this$[ebp]
  0000a	8b 4d 08	 mov	 ecx, DWORD PTR __Right$[ebp]
  0000d	8b 00		 mov	 eax, DWORD PTR [eax]
  0000f	2b 01		 sub	 eax, DWORD PTR [ecx]
  00011	f7 d8		 neg	 eax
  00013	1b c0		 sbb	 eax, eax
  00015	40		 inc	 eax

; 242  : 			}

  00016	8b e5		 mov	 esp, ebp
  00018	5d		 pop	 ebp
  00019	c2 04 00	 ret	 4
??8const_iterator@?$_Tree@V?$_Tmap_traits@HPAVBaseDialog@@U?$less@H@std@@V?$allocator@U?$pair@$$CBHPAVBaseDialog@@@std@@@3@$0A@@std@@@std@@QBE_NABV012@@Z ENDP ; std::_Tree<std::_Tmap_traits<int,BaseDialog *,std::less<int>,std::allocator<std::pair<int const ,BaseDialog *> >,0> >::const_iterator::operator==
; Function compile flags: /Odt
_TEXT	ENDS
;	COMDAT ?_Mynode@const_iterator@?$_Tree@V?$_Tmap_traits@HPAVBaseDialog@@U?$less@H@std@@V?$allocator@U?$pair@$$CBHPAVBaseDialog@@@std@@@3@$0A@@std@@@std@@QBEPAU_Node@?$_Tree_nod@V?$_Tmap_traits@HPAVBaseDialog@@U?$less@H@std@@V?$allocator@U?$pair@$$CBHPAVBaseDialog@@@std@@@3@$0A@@std@@@3@XZ
_TEXT	SEGMENT
_this$ = -4						; size = 4
?_Mynode@const_iterator@?$_Tree@V?$_Tmap_traits@HPAVBaseDialog@@U?$less@H@std@@V?$allocator@U?$pair@$$CBHPAVBaseDialog@@@std@@@3@$0A@@std@@@std@@QBEPAU_Node@?$_Tree_nod@V?$_Tmap_traits@HPAVBaseDialog@@U?$less@H@std@@V?$allocator@U?$pair@$$CBHPAVBaseDialog@@@std@@@3@$0A@@std@@@3@XZ PROC NEAR ; std::_Tree<std::_Tmap_traits<int,BaseDialog *,std::less<int>,std::allocator<std::pair<int const ,BaseDialog *> >,0> >::const_iterator::_Mynode, COMDAT
; _this$ = ecx

; 283  : 			{	// return node pointer

  00000	55		 push	 ebp
  00001	8b ec		 mov	 ebp, esp
  00003	51		 push	 ecx
  00004	89 4d fc	 mov	 DWORD PTR _this$[ebp], ecx

; 284  : 			return (_Ptr);

  00007	8b 45 fc	 mov	 eax, DWORD PTR _this$[ebp]
  0000a	8b 00		 mov	 eax, DWORD PTR [eax]

; 285  : 			}

  0000c	8b e5		 mov	 esp, ebp
  0000e	5d		 pop	 ebp
  0000f	c3		 ret	 0
?_Mynode@const_iterator@?$_Tree@V?$_Tmap_traits@HPAVBaseDialog@@U?$less@H@std@@V?$allocator@U?$pair@$$CBHPAVBaseDialog@@@std@@@3@$0A@@std@@@std@@QBEPAU_Node@?$_Tree_nod@V?$_Tmap_traits@HPAVBaseDialog@@U?$less@H@std@@V?$allocator@U?$pair@$$CBHPAVBaseDialog@@@std@@@3@$0A@@std@@@3@XZ ENDP ; std::_Tree<std::_Tmap_traits<int,BaseDialog *,std::less<int>,std::allocator<std::pair<int const ,BaseDialog *> >,0> >::const_iterator::_Mynode
; Function compile flags: /Odt
; File d:\program files (x86)\microsoft visual studio .net 2003\vc7\include\utility
_TEXT	ENDS
;	COMDAT ??0?$pair@$$CBHPAVBaseDialog@@@std@@QAE@ABHABQAVBaseDialog@@@Z
_TEXT	SEGMENT
_this$ = -4						; size = 4
__Val1$ = 8						; size = 4
__Val2$ = 12						; size = 4
??0?$pair@$$CBHPAVBaseDialog@@@std@@QAE@ABHABQAVBaseDialog@@@Z PROC NEAR ; std::pair<int const ,BaseDialog *>::pair<int const ,BaseDialog *>, COMDAT
; _this$ = ecx

; 34   : 		{	// construct from specified values

  00000	55		 push	 ebp
  00001	8b ec		 mov	 ebp, esp
  00003	51		 push	 ecx
  00004	89 4d fc	 mov	 DWORD PTR _this$[ebp], ecx
  00007	8b 45 fc	 mov	 eax, DWORD PTR _this$[ebp]
  0000a	8b 4d 08	 mov	 ecx, DWORD PTR __Val1$[ebp]
  0000d	8b 11		 mov	 edx, DWORD PTR [ecx]
  0000f	89 10		 mov	 DWORD PTR [eax], edx
  00011	8b 45 fc	 mov	 eax, DWORD PTR _this$[ebp]
  00014	8b 4d 0c	 mov	 ecx, DWORD PTR __Val2$[ebp]
  00017	8b 11		 mov	 edx, DWORD PTR [ecx]
  00019	89 50 04	 mov	 DWORD PTR [eax+4], edx

; 35   : 		}

  0001c	8b 45 fc	 mov	 eax, DWORD PTR _this$[ebp]
  0001f	8b e5		 mov	 esp, ebp
  00021	5d		 pop	 ebp
  00022	c2 08 00	 ret	 8
??0?$pair@$$CBHPAVBaseDialog@@@std@@QAE@ABHABQAVBaseDialog@@@Z ENDP ; std::pair<int const ,BaseDialog *>::pair<int const ,BaseDialog *>
; Function compile flags: /Odt
; File d:\program files (x86)\microsoft visual studio .net 2003\vc7\include\xtree
_TEXT	ENDS
;	COMDAT ?_Isnil@?$_Tree@V?$_Tmap_traits@HPAVBaseDialog@@U?$less@H@std@@V?$allocator@U?$pair@$$CBHPAVBaseDialog@@@std@@@3@$0A@@std@@@std@@KAAADPAU_Node@?$_Tree_nod@V?$_Tmap_traits@HPAVBaseDialog@@U?$less@H@std@@V?$allocator@U?$pair@$$CBHPAVBaseDialog@@@std@@@3@$0A@@std@@@2@@Z
_TEXT	SEGMENT
__Pnode$ = 8						; size = 4
?_Isnil@?$_Tree@V?$_Tmap_traits@HPAVBaseDialog@@U?$less@H@std@@V?$allocator@U?$pair@$$CBHPAVBaseDialog@@@std@@@3@$0A@@std@@@std@@KAAADPAU_Node@?$_Tree_nod@V?$_Tmap_traits@HPAVBaseDialog@@U?$less@H@std@@V?$allocator@U?$pair@$$CBHPAVBaseDialog@@@std@@@3@$0A@@std@@@2@@Z PROC NEAR ; std::_Tree<std::_Tmap_traits<int,BaseDialog *,std::less<int>,std::allocator<std::pair<int const ,BaseDialog *> >,0> >::_Isnil, COMDAT

; 136  : 		{	// return reference to nil flag in node

  00000	55		 push	 ebp
  00001	8b ec		 mov	 ebp, esp

; 137  : 		return ((_Charref)(*_Pnode)._Isnil);

  00003	8b 45 08	 mov	 eax, DWORD PTR __Pnode$[ebp]
  00006	83 c0 15	 add	 eax, 21			; 00000015H

; 138  : 		}

  00009	5d		 pop	 ebp
  0000a	c3		 ret	 0
?_Isnil@?$_Tree@V?$_Tmap_traits@HPAVBaseDialog@@U?$less@H@std@@V?$allocator@U?$pair@$$CBHPAVBaseDialog@@@std@@@3@$0A@@std@@@std@@KAAADPAU_Node@?$_Tree_nod@V?$_Tmap_traits@HPAVBaseDialog@@U?$less@H@std@@V?$allocator@U?$pair@$$CBHPAVBaseDialog@@@std@@@3@$0A@@std@@@2@@Z ENDP ; std::_Tree<std::_Tmap_traits<int,BaseDialog *,std::less<int>,std::allocator<std::pair<int const ,BaseDialog *> >,0> >::_Isnil
; Function compile flags: /Odt
_TEXT	ENDS
;	COMDAT ?_Left@?$_Tree@V?$_Tmap_traits@HPAVBaseDialog@@U?$less@H@std@@V?$allocator@U?$pair@$$CBHPAVBaseDialog@@@std@@@3@$0A@@std@@@std@@KAAAPAU_Node@?$_Tree_nod@V?$_Tmap_traits@HPAVBaseDialog@@U?$less@H@std@@V?$allocator@U?$pair@$$CBHPAVBaseDialog@@@std@@@3@$0A@@std@@@2@PAU342@@Z
_TEXT	SEGMENT
__Pnode$ = 8						; size = 4
?_Left@?$_Tree@V?$_Tmap_traits@HPAVBaseDialog@@U?$less@H@std@@V?$allocator@U?$pair@$$CBHPAVBaseDialog@@@std@@@3@$0A@@std@@@std@@KAAAPAU_Node@?$_Tree_nod@V?$_Tmap_traits@HPAVBaseDialog@@U?$less@H@std@@V?$allocator@U?$pair@$$CBHPAVBaseDialog@@@std@@@3@$0A@@std@@@2@PAU342@@Z PROC NEAR ; std::_Tree<std::_Tmap_traits<int,BaseDialog *,std::less<int>,std::allocator<std::pair<int const ,BaseDialog *> >,0> >::_Left, COMDAT

; 146  : 		{	// return reference to left pointer in node

  00000	55		 push	 ebp
  00001	8b ec		 mov	 ebp, esp

; 147  : 		return ((_Nodepref)(*_Pnode)._Left);

  00003	8b 45 08	 mov	 eax, DWORD PTR __Pnode$[ebp]

; 148  : 		}

  00006	5d		 pop	 ebp
  00007	c3		 ret	 0
?_Left@?$_Tree@V?$_Tmap_traits@HPAVBaseDialog@@U?$less@H@std@@V?$allocator@U?$pair@$$CBHPAVBaseDialog@@@std@@@3@$0A@@std@@@std@@KAAAPAU_Node@?$_Tree_nod@V?$_Tmap_traits@HPAVBaseDialog@@U?$less@H@std@@V?$allocator@U?$pair@$$CBHPAVBaseDialog@@@std@@@3@$0A@@std@@@2@PAU342@@Z ENDP ; std::_Tree<std::_Tmap_traits<int,BaseDialog *,std::less<int>,std::allocator<std::pair<int const ,BaseDialog *> >,0> >::_Left
; Function compile flags: /Odt
_TEXT	ENDS
;	COMDAT ?_Parent@?$_Tree@V?$_Tmap_traits@HPAVBaseDialog@@U?$less@H@std@@V?$allocator@U?$pair@$$CBHPAVBaseDialog@@@std@@@3@$0A@@std@@@std@@KAAAPAU_Node@?$_Tree_nod@V?$_Tmap_traits@HPAVBaseDialog@@U?$less@H@std@@V?$allocator@U?$pair@$$CBHPAVBaseDialog@@@std@@@3@$0A@@std@@@2@PAU342@@Z
_TEXT	SEGMENT
__Pnode$ = 8						; size = 4
?_Parent@?$_Tree@V?$_Tmap_traits@HPAVBaseDialog@@U?$less@H@std@@V?$allocator@U?$pair@$$CBHPAVBaseDialog@@@std@@@3@$0A@@std@@@std@@KAAAPAU_Node@?$_Tree_nod@V?$_Tmap_traits@HPAVBaseDialog@@U?$less@H@std@@V?$allocator@U?$pair@$$CBHPAVBaseDialog@@@std@@@3@$0A@@std@@@2@PAU342@@Z PROC NEAR ; std::_Tree<std::_Tmap_traits<int,BaseDialog *,std::less<int>,std::allocator<std::pair<int const ,BaseDialog *> >,0> >::_Parent, COMDAT

; 151  : 		{	// return reference to parent pointer in node

  00000	55		 push	 ebp
  00001	8b ec		 mov	 ebp, esp

; 152  : 		return ((_Nodepref)(*_Pnode)._Parent);

  00003	8b 45 08	 mov	 eax, DWORD PTR __Pnode$[ebp]
  00006	83 c0 04	 add	 eax, 4

; 153  : 		}

  00009	5d		 pop	 ebp
  0000a	c3		 ret	 0
?_Parent@?$_Tree@V?$_Tmap_traits@HPAVBaseDialog@@U?$less@H@std@@V?$allocator@U?$pair@$$CBHPAVBaseDialog@@@std@@@3@$0A@@std@@@std@@KAAAPAU_Node@?$_Tree_nod@V?$_Tmap_traits@HPAVBaseDialog@@U?$less@H@std@@V?$allocator@U?$pair@$$CBHPAVBaseDialog@@@std@@@3@$0A@@std@@@2@PAU342@@Z ENDP ; std::_Tree<std::_Tmap_traits<int,BaseDialog *,std::less<int>,std::allocator<std::pair<int const ,BaseDialog *> >,0> >::_Parent
; Function compile flags: /Odt
_TEXT	ENDS
;	COMDAT ?_Right@?$_Tree@V?$_Tmap_traits@HPAVBaseDialog@@U?$less@H@std@@V?$allocator@U?$pair@$$CBHPAVBaseDialog@@@std@@@3@$0A@@std@@@std@@KAAAPAU_Node@?$_Tree_nod@V?$_Tmap_traits@HPAVBaseDialog@@U?$less@H@std@@V?$allocator@U?$pair@$$CBHPAVBaseDialog@@@std@@@3@$0A@@std@@@2@PAU342@@Z
_TEXT	SEGMENT
__Pnode$ = 8						; size = 4
?_Right@?$_Tree@V?$_Tmap_traits@HPAVBaseDialog@@U?$less@H@std@@V?$allocator@U?$pair@$$CBHPAVBaseDialog@@@std@@@3@$0A@@std@@@std@@KAAAPAU_Node@?$_Tree_nod@V?$_Tmap_traits@HPAVBaseDialog@@U?$less@H@std@@V?$allocator@U?$pair@$$CBHPAVBaseDialog@@@std@@@3@$0A@@std@@@2@PAU342@@Z PROC NEAR ; std::_Tree<std::_Tmap_traits<int,BaseDialog *,std::less<int>,std::allocator<std::pair<int const ,BaseDialog *> >,0> >::_Right, COMDAT

; 156  : 		{	// return reference to right pointer in node

  00000	55		 push	 ebp
  00001	8b ec		 mov	 ebp, esp

; 157  : 		return ((_Nodepref)(*_Pnode)._Right);

  00003	8b 45 08	 mov	 eax, DWORD PTR __Pnode$[ebp]
  00006	83 c0 08	 add	 eax, 8

; 158  : 		}

  00009	5d		 pop	 ebp
  0000a	c3		 ret	 0
?_Right@?$_Tree@V?$_Tmap_traits@HPAVBaseDialog@@U?$less@H@std@@V?$allocator@U?$pair@$$CBHPAVBaseDialog@@@std@@@3@$0A@@std@@@std@@KAAAPAU_Node@?$_Tree_nod@V?$_Tmap_traits@HPAVBaseDialog@@U?$less@H@std@@V?$allocator@U?$pair@$$CBHPAVBaseDialog@@@std@@@3@$0A@@std@@@2@PAU342@@Z ENDP ; std::_Tree<std::_Tmap_traits<int,BaseDialog *,std::less<int>,std::allocator<std::pair<int const ,BaseDialog *> >,0> >::_Right
; Function compile flags: /Odt
_TEXT	ENDS
;	COMDAT ?_Myval@?$_Tree@V?$_Tmap_traits@HPAVBaseDialog@@U?$less@H@std@@V?$allocator@U?$pair@$$CBHPAVBaseDialog@@@std@@@3@$0A@@std@@@std@@KAAAU?$pair@$$CBHPAVBaseDialog@@@2@PAU_Node@?$_Tree_nod@V?$_Tmap_traits@HPAVBaseDialog@@U?$less@H@std@@V?$allocator@U?$pair@$$CBHPAVBaseDialog@@@std@@@3@$0A@@std@@@2@@Z
_TEXT	SEGMENT
__Pnode$ = 8						; size = 4
?_Myval@?$_Tree@V?$_Tmap_traits@HPAVBaseDialog@@U?$less@H@std@@V?$allocator@U?$pair@$$CBHPAVBaseDialog@@@std@@@3@$0A@@std@@@std@@KAAAU?$pair@$$CBHPAVBaseDialog@@@2@PAU_Node@?$_Tree_nod@V?$_Tmap_traits@HPAVBaseDialog@@U?$less@H@std@@V?$allocator@U?$pair@$$CBHPAVBaseDialog@@@std@@@3@$0A@@std@@@2@@Z PROC NEAR ; std::_Tree<std::_Tmap_traits<int,BaseDialog *,std::less<int>,std::allocator<std::pair<int const ,BaseDialog *> >,0> >::_Myval, COMDAT

; 161  : 		{	// return reference to value in node

  00000	55		 push	 ebp
  00001	8b ec		 mov	 ebp, esp

; 162  : 		return ((_Vref)(*_Pnode)._Myval);

  00003	8b 45 08	 mov	 eax, DWORD PTR __Pnode$[ebp]
  00006	83 c0 0c	 add	 eax, 12			; 0000000cH

; 163  : 		}

  00009	5d		 pop	 ebp
  0000a	c3		 ret	 0
?_Myval@?$_Tree@V?$_Tmap_traits@HPAVBaseDialog@@U?$less@H@std@@V?$allocator@U?$pair@$$CBHPAVBaseDialog@@@std@@@3@$0A@@std@@@std@@KAAAU?$pair@$$CBHPAVBaseDialog@@@2@PAU_Node@?$_Tree_nod@V?$_Tmap_traits@HPAVBaseDialog@@U?$less@H@std@@V?$allocator@U?$pair@$$CBHPAVBaseDialog@@@std@@@3@$0A@@std@@@2@@Z ENDP ; std::_Tree<std::_Tmap_traits<int,BaseDialog *,std::less<int>,std::allocator<std::pair<int const ,BaseDialog *> >,0> >::_Myval
_TEXT	ENDS
PUBLIC	?_Lmost@?$_Tree@V?$_Tmap_traits@HPAVBaseDialog@@U?$less@H@std@@V?$allocator@U?$pair@$$CBHPAVBaseDialog@@@std@@@3@$0A@@std@@@std@@IAEAAPAU_Node@?$_Tree_nod@V?$_Tmap_traits@HPAVBaseDialog@@U?$less@H@std@@V?$allocator@U?$pair@$$CBHPAVBaseDialog@@@std@@@3@$0A@@std@@@2@XZ ; std::_Tree<std::_Tmap_traits<int,BaseDialog *,std::less<int>,std::allocator<std::pair<int const ,BaseDialog *> >,0> >::_Lmost
; Function compile flags: /Odt
;	COMDAT ?begin@?$_Tree@V?$_Tmap_traits@HPAVBaseDialog@@U?$less@H@std@@V?$allocator@U?$pair@$$CBHPAVBaseDialog@@@std@@@3@$0A@@std@@@std@@QAE?AViterator@12@XZ
_TEXT	SEGMENT
_this$ = -4						; size = 4
___$ReturnUdt$ = 8					; size = 4
?begin@?$_Tree@V?$_Tmap_traits@HPAVBaseDialog@@U?$less@H@std@@V?$allocator@U?$pair@$$CBHPAVBaseDialog@@@std@@@3@$0A@@std@@@std@@QAE?AViterator@12@XZ PROC NEAR ; std::_Tree<std::_Tmap_traits<int,BaseDialog *,std::less<int>,std::allocator<std::pair<int const ,BaseDialog *> >,0> >::begin, COMDAT
; _this$ = ecx

; 407  : 		{	// return iterator for beginning of mutable sequence

  00000	55		 push	 ebp
  00001	8b ec		 mov	 ebp, esp
  00003	51		 push	 ecx
  00004	89 4d fc	 mov	 DWORD PTR _this$[ebp], ecx

; 408  : 		return (_TREE_ITERATOR(_Lmost()));

  00007	8b 4d fc	 mov	 ecx, DWORD PTR _this$[ebp]
  0000a	e8 00 00 00 00	 call	 ?_Lmost@?$_Tree@V?$_Tmap_traits@HPAVBaseDialog@@U?$less@H@std@@V?$allocator@U?$pair@$$CBHPAVBaseDialog@@@std@@@3@$0A@@std@@@std@@IAEAAPAU_Node@?$_Tree_nod@V?$_Tmap_traits@HPAVBaseDialog@@U?$less@H@std@@V?$allocator@U?$pair@$$CBHPAVBaseDialog@@@std@@@3@$0A@@std@@@2@XZ ; std::_Tree<std::_Tmap_traits<int,BaseDialog *,std::less<int>,std::allocator<std::pair<int const ,BaseDialog *> >,0> >::_Lmost
  0000f	8b 00		 mov	 eax, DWORD PTR [eax]
  00011	50		 push	 eax
  00012	8b 4d 08	 mov	 ecx, DWORD PTR ___$ReturnUdt$[ebp]
  00015	e8 00 00 00 00	 call	 ??0iterator@?$_Tree@V?$_Tmap_traits@HPAVBaseDialog@@U?$less@H@std@@V?$allocator@U?$pair@$$CBHPAVBaseDialog@@@std@@@3@$0A@@std@@@std@@QAE@PAU_Node@?$_Tree_nod@V?$_Tmap_traits@HPAVBaseDialog@@U?$less@H@std@@V?$allocator@U?$pair@$$CBHPAVBaseDialog@@@std@@@3@$0A@@std@@@2@@Z ; std::_Tree<std::_Tmap_traits<int,BaseDialog *,std::less<int>,std::allocator<std::pair<int const ,BaseDialog *> >,0> >::iterator::iterator
  0001a	8b 45 08	 mov	 eax, DWORD PTR ___$ReturnUdt$[ebp]

; 409  : 		}

  0001d	8b e5		 mov	 esp, ebp
  0001f	5d		 pop	 ebp
  00020	c2 04 00	 ret	 4
?begin@?$_Tree@V?$_Tmap_traits@HPAVBaseDialog@@U?$less@H@std@@V?$allocator@U?$pair@$$CBHPAVBaseDialog@@@std@@@3@$0A@@std@@@std@@QAE?AViterator@12@XZ ENDP ; std::_Tree<std::_Tmap_traits<int,BaseDialog *,std::less<int>,std::allocator<std::pair<int const ,BaseDialog *> >,0> >::begin
_TEXT	ENDS
PUBLIC	??0?$pair@Viterator@?$_Tree@V?$_Tmap_traits@HPAVBaseDialog@@U?$less@H@std@@V?$allocator@U?$pair@$$CBHPAVBaseDialog@@@std@@@3@$0A@@std@@@std@@_N@std@@QAE@ABViterator@?$_Tree@V?$_Tmap_traits@HPAVBaseDialog@@U?$less@H@std@@V?$allocator@U?$pair@$$CBHPAVBaseDialog@@@std@@@3@$0A@@std@@@1@AB_N@Z ; std::pair<std::_Tree<std::_Tmap_traits<int,BaseDialog *,std::less<int>,std::allocator<std::pair<int const ,BaseDialog *> >,0> >::iterator,bool>::pair<std::_Tree<std::_Tmap_traits<int,BaseDialog *,std::less<int>,std::allocator<std::pair<int const ,BaseDialog *> >,0> >::iterator,bool>
PUBLIC	?_Root@?$_Tree@V?$_Tmap_traits@HPAVBaseDialog@@U?$less@H@std@@V?$allocator@U?$pair@$$CBHPAVBaseDialog@@@std@@@3@$0A@@std@@@std@@IAEAAPAU_Node@?$_Tree_nod@V?$_Tmap_traits@HPAVBaseDialog@@U?$less@H@std@@V?$allocator@U?$pair@$$CBHPAVBaseDialog@@@std@@@3@$0A@@std@@@2@XZ ; std::_Tree<std::_Tmap_traits<int,BaseDialog *,std::less<int>,std::allocator<std::pair<int const ,BaseDialog *> >,0> >::_Root
; Function compile flags: /Odt
;	COMDAT ?insert@?$_Tree@V?$_Tmap_traits@HPAVBaseDialog@@U?$less@H@std@@V?$allocator@U?$pair@$$CBHPAVBaseDialog@@@std@@@3@$0A@@std@@@std@@QAE?AU?$pair@Viterator@?$_Tree@V?$_Tmap_traits@HPAVBaseDialog@@U?$less@H@std@@V?$allocator@U?$pair@$$CBHPAVBaseDialog@@@std@@@3@$0A@@std@@@std@@_N@2@ABU?$pair@$$CBHPAVBaseDialog@@@2@@Z
_TEXT	SEGMENT
tv85 = -56						; size = 4
_this$ = -52						; size = 4
$T199945 = -45						; size = 1
$T199944 = -44						; size = 4
$T199943 = -37						; size = 1
$T199942 = -36						; size = 4
$T199941 = -29						; size = 1
$T199940 = -28						; size = 4
$T199939 = -24						; size = 4
$T199938 = -17						; size = 1
__Where$198933 = -16					; size = 4
__Trynode$ = -12					; size = 4
__Wherenode$ = -8					; size = 4
__Addleft$ = -1						; size = 1
___$ReturnUdt$ = 8					; size = 4
__Val$ = 12						; size = 4
?insert@?$_Tree@V?$_Tmap_traits@HPAVBaseDialog@@U?$less@H@std@@V?$allocator@U?$pair@$$CBHPAVBaseDialog@@@std@@@3@$0A@@std@@@std@@QAE?AU?$pair@Viterator@?$_Tree@V?$_Tmap_traits@HPAVBaseDialog@@U?$less@H@std@@V?$allocator@U?$pair@$$CBHPAVBaseDialog@@@std@@@3@$0A@@std@@@std@@_N@2@ABU?$pair@$$CBHPAVBaseDialog@@@2@@Z PROC NEAR ; std::_Tree<std::_Tmap_traits<int,BaseDialog *,std::less<int>,std::allocator<std::pair<int const ,BaseDialog *> >,0> >::insert, COMDAT
; _this$ = ecx

; 477  : 		{	// try to insert node with value _Val

  00000	55		 push	 ebp
  00001	8b ec		 mov	 ebp, esp
  00003	83 ec 38	 sub	 esp, 56			; 00000038H
  00006	89 4d cc	 mov	 DWORD PTR _this$[ebp], ecx

; 478  : 		_Nodeptr _Trynode = _Root();

  00009	8b 4d cc	 mov	 ecx, DWORD PTR _this$[ebp]
  0000c	e8 00 00 00 00	 call	 ?_Root@?$_Tree@V?$_Tmap_traits@HPAVBaseDialog@@U?$less@H@std@@V?$allocator@U?$pair@$$CBHPAVBaseDialog@@@std@@@3@$0A@@std@@@std@@IAEAAPAU_Node@?$_Tree_nod@V?$_Tmap_traits@HPAVBaseDialog@@U?$less@H@std@@V?$allocator@U?$pair@$$CBHPAVBaseDialog@@@std@@@3@$0A@@std@@@2@XZ ; std::_Tree<std::_Tmap_traits<int,BaseDialog *,std::less<int>,std::allocator<std::pair<int const ,BaseDialog *> >,0> >::_Root
  00011	8b 00		 mov	 eax, DWORD PTR [eax]
  00013	89 45 f4	 mov	 DWORD PTR __Trynode$[ebp], eax

; 479  : 		_Nodeptr _Wherenode = _Myhead;

  00016	8b 4d cc	 mov	 ecx, DWORD PTR _this$[ebp]
  00019	8b 51 04	 mov	 edx, DWORD PTR [ecx+4]
  0001c	89 55 f8	 mov	 DWORD PTR __Wherenode$[ebp], edx

; 480  : 		bool _Addleft = true;	// add to left of head if tree empty

  0001f	c6 45 ff 01	 mov	 BYTE PTR __Addleft$[ebp], 1
$L198922:

; 481  : 		while (!_Isnil(_Trynode))

  00023	8b 45 f4	 mov	 eax, DWORD PTR __Trynode$[ebp]
  00026	50		 push	 eax
  00027	e8 00 00 00 00	 call	 ?_Isnil@?$_Tree@V?$_Tmap_traits@HPAVBaseDialog@@U?$less@H@std@@V?$allocator@U?$pair@$$CBHPAVBaseDialog@@@std@@@3@$0A@@std@@@std@@KAAADPAU_Node@?$_Tree_nod@V?$_Tmap_traits@HPAVBaseDialog@@U?$less@H@std@@V?$allocator@U?$pair@$$CBHPAVBaseDialog@@@std@@@3@$0A@@std@@@2@@Z ; std::_Tree<std::_Tmap_traits<int,BaseDialog *,std::less<int>,std::allocator<std::pair<int const ,BaseDialog *> >,0> >::_Isnil
  0002c	83 c4 04	 add	 esp, 4
  0002f	0f be 08	 movsx	 ecx, BYTE PTR [eax]
  00032	85 c9		 test	 ecx, ecx
  00034	75 5f		 jne	 SHORT $L198923

; 482  : 			{	// look for leaf to insert before (_Addleft) or after
; 483  : 			_Wherenode = _Trynode;

  00036	8b 55 f4	 mov	 edx, DWORD PTR __Trynode$[ebp]
  00039	89 55 f8	 mov	 DWORD PTR __Wherenode$[ebp], edx

; 484  : 			_Addleft = this->comp(this->_Kfn(_Val), _Key(_Trynode));

  0003c	8b 45 f4	 mov	 eax, DWORD PTR __Trynode$[ebp]
  0003f	50		 push	 eax
  00040	e8 00 00 00 00	 call	 ?_Key@?$_Tree@V?$_Tmap_traits@HPAVBaseDialog@@U?$less@H@std@@V?$allocator@U?$pair@$$CBHPAVBaseDialog@@@std@@@3@$0A@@std@@@std@@KAABHPAU_Node@?$_Tree_nod@V?$_Tmap_traits@HPAVBaseDialog@@U?$less@H@std@@V?$allocator@U?$pair@$$CBHPAVBaseDialog@@@std@@@3@$0A@@std@@@2@@Z ; std::_Tree<std::_Tmap_traits<int,BaseDialog *,std::less<int>,std::allocator<std::pair<int const ,BaseDialog *> >,0> >::_Key
  00045	83 c4 04	 add	 esp, 4
  00048	50		 push	 eax
  00049	8b 4d 0c	 mov	 ecx, DWORD PTR __Val$[ebp]
  0004c	51		 push	 ecx
  0004d	e8 00 00 00 00	 call	 ?_Kfn@?$_Tmap_traits@HPAVBaseDialog@@U?$less@H@std@@V?$allocator@U?$pair@$$CBHPAVBaseDialog@@@std@@@3@$0A@@std@@SAABHABU?$pair@$$CBHPAVBaseDialog@@@2@@Z ; std::_Tmap_traits<int,BaseDialog *,std::less<int>,std::allocator<std::pair<int const ,BaseDialog *> >,0>::_Kfn
  00052	83 c4 04	 add	 esp, 4
  00055	50		 push	 eax
  00056	8b 4d cc	 mov	 ecx, DWORD PTR _this$[ebp]
  00059	e8 00 00 00 00	 call	 ??R?$less@H@std@@QBE_NABH0@Z ; std::less<int>::operator()
  0005e	88 45 ff	 mov	 BYTE PTR __Addleft$[ebp], al

; 485  : 			_Trynode = _Addleft ? _Left(_Trynode) : _Right(_Trynode);

  00061	0f b6 55 ff	 movzx	 edx, BYTE PTR __Addleft$[ebp]
  00065	85 d2		 test	 edx, edx
  00067	74 13		 je	 SHORT $L199936
  00069	8b 45 f4	 mov	 eax, DWORD PTR __Trynode$[ebp]
  0006c	50		 push	 eax
  0006d	e8 00 00 00 00	 call	 ?_Left@?$_Tree@V?$_Tmap_traits@HPAVBaseDialog@@U?$less@H@std@@V?$allocator@U?$pair@$$CBHPAVBaseDialog@@@std@@@3@$0A@@std@@@std@@KAAAPAU_Node@?$_Tree_nod@V?$_Tmap_traits@HPAVBaseDialog@@U?$less@H@std@@V?$allocator@U?$pair@$$CBHPAVBaseDialog@@@std@@@3@$0A@@std@@@2@PAU342@@Z ; std::_Tree<std::_Tmap_traits<int,BaseDialog *,std::less<int>,std::allocator<std::pair<int const ,BaseDialog *> >,0> >::_Left
  00072	83 c4 04	 add	 esp, 4
  00075	8b 08		 mov	 ecx, DWORD PTR [eax]
  00077	89 4d c8	 mov	 DWORD PTR tv85[ebp], ecx
  0007a	eb 11		 jmp	 SHORT $L199937
$L199936:
  0007c	8b 55 f4	 mov	 edx, DWORD PTR __Trynode$[ebp]
  0007f	52		 push	 edx
  00080	e8 00 00 00 00	 call	 ?_Right@?$_Tree@V?$_Tmap_traits@HPAVBaseDialog@@U?$less@H@std@@V?$allocator@U?$pair@$$CBHPAVBaseDialog@@@std@@@3@$0A@@std@@@std@@KAAAPAU_Node@?$_Tree_nod@V?$_Tmap_traits@HPAVBaseDialog@@U?$less@H@std@@V?$allocator@U?$pair@$$CBHPAVBaseDialog@@@std@@@3@$0A@@std@@@2@PAU342@@Z ; std::_Tree<std::_Tmap_traits<int,BaseDialog *,std::less<int>,std::allocator<std::pair<int const ,BaseDialog *> >,0> >::_Right
  00085	83 c4 04	 add	 esp, 4
  00088	8b 00		 mov	 eax, DWORD PTR [eax]
  0008a	89 45 c8	 mov	 DWORD PTR tv85[ebp], eax
$L199937:
  0008d	8b 4d c8	 mov	 ecx, DWORD PTR tv85[ebp]
  00090	89 4d f4	 mov	 DWORD PTR __Trynode$[ebp], ecx

; 486  : 			}

  00093	eb 8e		 jmp	 SHORT $L198922
$L198923:

; 487  : 
; 488  : 		if (this->_Multi)

  00095	33 d2		 xor	 edx, edx
  00097	74 31		 je	 SHORT $L198924

; 489  : 			return (_Pairib(_Insert(_Addleft, _Wherenode, _Val), true));

  00099	c6 45 ef 01	 mov	 BYTE PTR $T199938[ebp], 1
  0009d	8d 45 ef	 lea	 eax, DWORD PTR $T199938[ebp]
  000a0	50		 push	 eax
  000a1	8b 4d 0c	 mov	 ecx, DWORD PTR __Val$[ebp]
  000a4	51		 push	 ecx
  000a5	8b 55 f8	 mov	 edx, DWORD PTR __Wherenode$[ebp]
  000a8	52		 push	 edx
  000a9	8a 45 ff	 mov	 al, BYTE PTR __Addleft$[ebp]
  000ac	50		 push	 eax
  000ad	8d 4d e8	 lea	 ecx, DWORD PTR $T199939[ebp]
  000b0	51		 push	 ecx
  000b1	8b 4d cc	 mov	 ecx, DWORD PTR _this$[ebp]
  000b4	e8 00 00 00 00	 call	 ?_Insert@?$_Tree@V?$_Tmap_traits@HPAVBaseDialog@@U?$less@H@std@@V?$allocator@U?$pair@$$CBHPAVBaseDialog@@@std@@@3@$0A@@std@@@std@@IAE?AViterator@12@_NPAU_Node@?$_Tree_nod@V?$_Tmap_traits@HPAVBaseDialog@@U?$less@H@std@@V?$allocator@U?$pair@$$CBHPAVBaseDialog@@@std@@@3@$0A@@std@@@2@ABU?$pair@$$CBHPAVBaseDialog@@@2@@Z ; std::_Tree<std::_Tmap_traits<int,BaseDialog *,std::less<int>,std::allocator<std::pair<int const ,BaseDialog *> >,0> >::_Insert
  000b9	50		 push	 eax
  000ba	8b 4d 08	 mov	 ecx, DWORD PTR ___$ReturnUdt$[ebp]
  000bd	e8 00 00 00 00	 call	 ??0?$pair@Viterator@?$_Tree@V?$_Tmap_traits@HPAVBaseDialog@@U?$less@H@std@@V?$allocator@U?$pair@$$CBHPAVBaseDialog@@@std@@@3@$0A@@std@@@std@@_N@std@@QAE@ABViterator@?$_Tree@V?$_Tmap_traits@HPAVBaseDialog@@U?$less@H@std@@V?$allocator@U?$pair@$$CBHPAVBaseDialog@@@std@@@3@$0A@@std@@@1@AB_N@Z ; std::pair<std::_Tree<std::_Tmap_traits<int,BaseDialog *,std::less<int>,std::allocator<std::pair<int const ,BaseDialog *> >,0> >::iterator,bool>::pair<std::_Tree<std::_Tmap_traits<int,BaseDialog *,std::less<int>,std::allocator<std::pair<int const ,BaseDialog *> >,0> >::iterator,bool>
  000c2	8b 45 08	 mov	 eax, DWORD PTR ___$ReturnUdt$[ebp]
  000c5	e9 d9 00 00 00	 jmp	 $L198917
$L198924:

; 490  : 		else
; 491  : 			{	// insert only if unique
; 492  : 			iterator _Where = _TREE_ITERATOR(_Wherenode);

  000ca	8b 55 f8	 mov	 edx, DWORD PTR __Wherenode$[ebp]
  000cd	52		 push	 edx
  000ce	8d 4d f0	 lea	 ecx, DWORD PTR __Where$198933[ebp]
  000d1	e8 00 00 00 00	 call	 ??0iterator@?$_Tree@V?$_Tmap_traits@HPAVBaseDialog@@U?$less@H@std@@V?$allocator@U?$pair@$$CBHPAVBaseDialog@@@std@@@3@$0A@@std@@@std@@QAE@PAU_Node@?$_Tree_nod@V?$_Tmap_traits@HPAVBaseDialog@@U?$less@H@std@@V?$allocator@U?$pair@$$CBHPAVBaseDialog@@@std@@@3@$0A@@std@@@2@@Z ; std::_Tree<std::_Tmap_traits<int,BaseDialog *,std::less<int>,std::allocator<std::pair<int const ,BaseDialog *> >,0> >::iterator::iterator

; 493  : 			if (!_Addleft)

  000d6	0f b6 45 ff	 movzx	 eax, BYTE PTR __Addleft$[ebp]
  000da	85 c0		 test	 eax, eax
  000dc	75 02		 jne	 SHORT $L198935

; 494  : 				;	// need to test if insert after is okay
; 495  : 			else if (_Where == begin())

  000de	eb 50		 jmp	 SHORT $L198936
$L198935:
  000e0	8d 4d e4	 lea	 ecx, DWORD PTR $T199940[ebp]
  000e3	51		 push	 ecx
  000e4	8b 4d cc	 mov	 ecx, DWORD PTR _this$[ebp]
  000e7	e8 00 00 00 00	 call	 ?begin@?$_Tree@V?$_Tmap_traits@HPAVBaseDialog@@U?$less@H@std@@V?$allocator@U?$pair@$$CBHPAVBaseDialog@@@std@@@3@$0A@@std@@@std@@QAE?AViterator@12@XZ ; std::_Tree<std::_Tmap_traits<int,BaseDialog *,std::less<int>,std::allocator<std::pair<int const ,BaseDialog *> >,0> >::begin
  000ec	50		 push	 eax
  000ed	8d 4d f0	 lea	 ecx, DWORD PTR __Where$198933[ebp]
  000f0	e8 00 00 00 00	 call	 ??8const_iterator@?$_Tree@V?$_Tmap_traits@HPAVBaseDialog@@U?$less@H@std@@V?$allocator@U?$pair@$$CBHPAVBaseDialog@@@std@@@3@$0A@@std@@@std@@QBE_NABV012@@Z ; std::_Tree<std::_Tmap_traits<int,BaseDialog *,std::less<int>,std::allocator<std::pair<int const ,BaseDialog *> >,0> >::const_iterator::operator==
  000f5	0f b6 d0	 movzx	 edx, al
  000f8	85 d2		 test	 edx, edx
  000fa	74 2c		 je	 SHORT $L198938

; 496  : 				return (_Pairib(_Insert(true, _Wherenode, _Val), true));

  000fc	c6 45 e3 01	 mov	 BYTE PTR $T199941[ebp], 1
  00100	8d 45 e3	 lea	 eax, DWORD PTR $T199941[ebp]
  00103	50		 push	 eax
  00104	8b 4d 0c	 mov	 ecx, DWORD PTR __Val$[ebp]
  00107	51		 push	 ecx
  00108	8b 55 f8	 mov	 edx, DWORD PTR __Wherenode$[ebp]
  0010b	52		 push	 edx
  0010c	6a 01		 push	 1
  0010e	8d 45 dc	 lea	 eax, DWORD PTR $T199942[ebp]
  00111	50		 push	 eax
  00112	8b 4d cc	 mov	 ecx, DWORD PTR _this$[ebp]
  00115	e8 00 00 00 00	 call	 ?_Insert@?$_Tree@V?$_Tmap_traits@HPAVBaseDialog@@U?$less@H@std@@V?$allocator@U?$pair@$$CBHPAVBaseDialog@@@std@@@3@$0A@@std@@@std@@IAE?AViterator@12@_NPAU_Node@?$_Tree_nod@V?$_Tmap_traits@HPAVBaseDialog@@U?$less@H@std@@V?$allocator@U?$pair@$$CBHPAVBaseDialog@@@std@@@3@$0A@@std@@@2@ABU?$pair@$$CBHPAVBaseDialog@@@2@@Z ; std::_Tree<std::_Tmap_traits<int,BaseDialog *,std::less<int>,std::allocator<std::pair<int const ,BaseDialog *> >,0> >::_Insert
  0011a	50		 push	 eax
  0011b	8b 4d 08	 mov	 ecx, DWORD PTR ___$ReturnUdt$[ebp]
  0011e	e8 00 00 00 00	 call	 ??0?$pair@Viterator@?$_Tree@V?$_Tmap_traits@HPAVBaseDialog@@U?$less@H@std@@V?$allocator@U?$pair@$$CBHPAVBaseDialog@@@std@@@3@$0A@@std@@@std@@_N@std@@QAE@ABViterator@?$_Tree@V?$_Tmap_traits@HPAVBaseDialog@@U?$less@H@std@@V?$allocator@U?$pair@$$CBHPAVBaseDialog@@@std@@@3@$0A@@std@@@1@AB_N@Z ; std::pair<std::_Tree<std::_Tmap_traits<int,BaseDialog *,std::less<int>,std::allocator<std::pair<int const ,BaseDialog *> >,0> >::iterator,bool>::pair<std::_Tree<std::_Tmap_traits<int,BaseDialog *,std::less<int>,std::allocator<std::pair<int const ,BaseDialog *> >,0> >::iterator,bool>
  00123	8b 45 08	 mov	 eax, DWORD PTR ___$ReturnUdt$[ebp]
  00126	eb 7b		 jmp	 SHORT $L198917
$L198938:

; 497  : 			else
; 498  : 				--_Where;	// need to test if insert before is okay

  00128	8d 4d f0	 lea	 ecx, DWORD PTR __Where$198933[ebp]
  0012b	e8 00 00 00 00	 call	 ??Fiterator@?$_Tree@V?$_Tmap_traits@HPAVBaseDialog@@U?$less@H@std@@V?$allocator@U?$pair@$$CBHPAVBaseDialog@@@std@@@3@$0A@@std@@@std@@QAEAAV012@XZ ; std::_Tree<std::_Tmap_traits<int,BaseDialog *,std::less<int>,std::allocator<std::pair<int const ,BaseDialog *> >,0> >::iterator::operator--
$L198936:

; 499  : 
; 500  : 			if (this->comp(_Key(_Where._Mynode()), this->_Kfn(_Val)))

  00130	8b 4d 0c	 mov	 ecx, DWORD PTR __Val$[ebp]
  00133	51		 push	 ecx
  00134	e8 00 00 00 00	 call	 ?_Kfn@?$_Tmap_traits@HPAVBaseDialog@@U?$less@H@std@@V?$allocator@U?$pair@$$CBHPAVBaseDialog@@@std@@@3@$0A@@std@@SAABHABU?$pair@$$CBHPAVBaseDialog@@@2@@Z ; std::_Tmap_traits<int,BaseDialog *,std::less<int>,std::allocator<std::pair<int const ,BaseDialog *> >,0>::_Kfn
  00139	83 c4 04	 add	 esp, 4
  0013c	50		 push	 eax
  0013d	8d 4d f0	 lea	 ecx, DWORD PTR __Where$198933[ebp]
  00140	e8 00 00 00 00	 call	 ?_Mynode@const_iterator@?$_Tree@V?$_Tmap_traits@HPAVBaseDialog@@U?$less@H@std@@V?$allocator@U?$pair@$$CBHPAVBaseDialog@@@std@@@3@$0A@@std@@@std@@QBEPAU_Node@?$_Tree_nod@V?$_Tmap_traits@HPAVBaseDialog@@U?$less@H@std@@V?$allocator@U?$pair@$$CBHPAVBaseDialog@@@std@@@3@$0A@@std@@@3@XZ ; std::_Tree<std::_Tmap_traits<int,BaseDialog *,std::less<int>,std::allocator<std::pair<int const ,BaseDialog *> >,0> >::const_iterator::_Mynode
  00145	50		 push	 eax
  00146	e8 00 00 00 00	 call	 ?_Key@?$_Tree@V?$_Tmap_traits@HPAVBaseDialog@@U?$less@H@std@@V?$allocator@U?$pair@$$CBHPAVBaseDialog@@@std@@@3@$0A@@std@@@std@@KAABHPAU_Node@?$_Tree_nod@V?$_Tmap_traits@HPAVBaseDialog@@U?$less@H@std@@V?$allocator@U?$pair@$$CBHPAVBaseDialog@@@std@@@3@$0A@@std@@@2@@Z ; std::_Tree<std::_Tmap_traits<int,BaseDialog *,std::less<int>,std::allocator<std::pair<int const ,BaseDialog *> >,0> >::_Key
  0014b	83 c4 04	 add	 esp, 4
  0014e	50		 push	 eax
  0014f	8b 4d cc	 mov	 ecx, DWORD PTR _this$[ebp]
  00152	e8 00 00 00 00	 call	 ??R?$less@H@std@@QBE_NABH0@Z ; std::less<int>::operator()
  00157	0f b6 d0	 movzx	 edx, al
  0015a	85 d2		 test	 edx, edx
  0015c	74 2e		 je	 SHORT $L198943

; 501  : 				return (_Pairib(_Insert(_Addleft, _Wherenode, _Val), true));

  0015e	c6 45 db 01	 mov	 BYTE PTR $T199943[ebp], 1
  00162	8d 45 db	 lea	 eax, DWORD PTR $T199943[ebp]
  00165	50		 push	 eax
  00166	8b 4d 0c	 mov	 ecx, DWORD PTR __Val$[ebp]
  00169	51		 push	 ecx
  0016a	8b 55 f8	 mov	 edx, DWORD PTR __Wherenode$[ebp]
  0016d	52		 push	 edx
  0016e	8a 45 ff	 mov	 al, BYTE PTR __Addleft$[ebp]
  00171	50		 push	 eax
  00172	8d 4d d4	 lea	 ecx, DWORD PTR $T199944[ebp]
  00175	51		 push	 ecx
  00176	8b 4d cc	 mov	 ecx, DWORD PTR _this$[ebp]
  00179	e8 00 00 00 00	 call	 ?_Insert@?$_Tree@V?$_Tmap_traits@HPAVBaseDialog@@U?$less@H@std@@V?$allocator@U?$pair@$$CBHPAVBaseDialog@@@std@@@3@$0A@@std@@@std@@IAE?AViterator@12@_NPAU_Node@?$_Tree_nod@V?$_Tmap_traits@HPAVBaseDialog@@U?$less@H@std@@V?$allocator@U?$pair@$$CBHPAVBaseDialog@@@std@@@3@$0A@@std@@@2@ABU?$pair@$$CBHPAVBaseDialog@@@2@@Z ; std::_Tree<std::_Tmap_traits<int,BaseDialog *,std::less<int>,std::allocator<std::pair<int const ,BaseDialog *> >,0> >::_Insert
  0017e	50		 push	 eax
  0017f	8b 4d 08	 mov	 ecx, DWORD PTR ___$ReturnUdt$[ebp]
  00182	e8 00 00 00 00	 call	 ??0?$pair@Viterator@?$_Tree@V?$_Tmap_traits@HPAVBaseDialog@@U?$less@H@std@@V?$allocator@U?$pair@$$CBHPAVBaseDialog@@@std@@@3@$0A@@std@@@std@@_N@std@@QAE@ABViterator@?$_Tree@V?$_Tmap_traits@HPAVBaseDialog@@U?$less@H@std@@V?$allocator@U?$pair@$$CBHPAVBaseDialog@@@std@@@3@$0A@@std@@@1@AB_N@Z ; std::pair<std::_Tree<std::_Tmap_traits<int,BaseDialog *,std::less<int>,std::allocator<std::pair<int const ,BaseDialog *> >,0> >::iterator,bool>::pair<std::_Tree<std::_Tmap_traits<int,BaseDialog *,std::less<int>,std::allocator<std::pair<int const ,BaseDialog *> >,0> >::iterator,bool>
  00187	8b 45 08	 mov	 eax, DWORD PTR ___$ReturnUdt$[ebp]
  0018a	eb 17		 jmp	 SHORT $L198917
$L198943:

; 502  : 			else
; 503  : 				return (_Pairib(_Where, false));

  0018c	c6 45 d3 00	 mov	 BYTE PTR $T199945[ebp], 0
  00190	8d 55 d3	 lea	 edx, DWORD PTR $T199945[ebp]
  00193	52		 push	 edx
  00194	8d 45 f0	 lea	 eax, DWORD PTR __Where$198933[ebp]
  00197	50		 push	 eax
  00198	8b 4d 08	 mov	 ecx, DWORD PTR ___$ReturnUdt$[ebp]
  0019b	e8 00 00 00 00	 call	 ??0?$pair@Viterator@?$_Tree@V?$_Tmap_traits@HPAVBaseDialog@@U?$less@H@std@@V?$allocator@U?$pair@$$CBHPAVBaseDialog@@@std@@@3@$0A@@std@@@std@@_N@std@@QAE@ABViterator@?$_Tree@V?$_Tmap_traits@HPAVBaseDialog@@U?$less@H@std@@V?$allocator@U?$pair@$$CBHPAVBaseDialog@@@std@@@3@$0A@@std@@@1@AB_N@Z ; std::pair<std::_Tree<std::_Tmap_traits<int,BaseDialog *,std::less<int>,std::allocator<std::pair<int const ,BaseDialog *> >,0> >::iterator,bool>::pair<std::_Tree<std::_Tmap_traits<int,BaseDialog *,std::less<int>,std::allocator<std::pair<int const ,BaseDialog *> >,0> >::iterator,bool>
  001a0	8b 45 08	 mov	 eax, DWORD PTR ___$ReturnUdt$[ebp]
$L198917:

; 504  : 			}
; 505  : 		}

  001a3	8b e5		 mov	 esp, ebp
  001a5	5d		 pop	 ebp
  001a6	c2 08 00	 ret	 8
?insert@?$_Tree@V?$_Tmap_traits@HPAVBaseDialog@@U?$less@H@std@@V?$allocator@U?$pair@$$CBHPAVBaseDialog@@@std@@@3@$0A@@std@@@std@@QAE?AU?$pair@Viterator@?$_Tree@V?$_Tmap_traits@HPAVBaseDialog@@U?$less@H@std@@V?$allocator@U?$pair@$$CBHPAVBaseDialog@@@std@@@3@$0A@@std@@@std@@_N@2@ABU?$pair@$$CBHPAVBaseDialog@@@2@@Z ENDP ; std::_Tree<std::_Tmap_traits<int,BaseDialog *,std::less<int>,std::allocator<std::pair<int const ,BaseDialog *> >,0> >::insert
_TEXT	ENDS
PUBLIC	??9const_iterator@?$_Tree@V?$_Tmap_traits@HPAVBaseDialog@@U?$less@H@std@@V?$allocator@U?$pair@$$CBHPAVBaseDialog@@@std@@@3@$0A@@std@@@std@@QBE_NABV012@@Z ; std::_Tree<std::_Tmap_traits<int,BaseDialog *,std::less<int>,std::allocator<std::pair<int const ,BaseDialog *> >,0> >::const_iterator::operator!=
PUBLIC	??Eiterator@?$_Tree@V?$_Tmap_traits@HPAVBaseDialog@@U?$less@H@std@@V?$allocator@U?$pair@$$CBHPAVBaseDialog@@@std@@@3@$0A@@std@@@std@@QAE?AV012@H@Z ; std::_Tree<std::_Tmap_traits<int,BaseDialog *,std::less<int>,std::allocator<std::pair<int const ,BaseDialog *> >,0> >::iterator::operator++
PUBLIC	?erase@?$_Tree@V?$_Tmap_traits@HPAVBaseDialog@@U?$less@H@std@@V?$allocator@U?$pair@$$CBHPAVBaseDialog@@@std@@@3@$0A@@std@@@std@@QAE?AViterator@12@V312@@Z ; std::_Tree<std::_Tmap_traits<int,BaseDialog *,std::less<int>,std::allocator<std::pair<int const ,BaseDialog *> >,0> >::erase
PUBLIC	?clear@?$_Tree@V?$_Tmap_traits@HPAVBaseDialog@@U?$less@H@std@@V?$allocator@U?$pair@$$CBHPAVBaseDialog@@@std@@@3@$0A@@std@@@std@@QAEXXZ ; std::_Tree<std::_Tmap_traits<int,BaseDialog *,std::less<int>,std::allocator<std::pair<int const ,BaseDialog *> >,0> >::clear
; Function compile flags: /Odt
;	COMDAT ?erase@?$_Tree@V?$_Tmap_traits@HPAVBaseDialog@@U?$less@H@std@@V?$allocator@U?$pair@$$CBHPAVBaseDialog@@@std@@@3@$0A@@std@@@std@@QAE?AViterator@12@V312@0@Z
_TEXT	SEGMENT
_this$ = -20						; size = 4
$T199951 = -16						; size = 4
$T199950 = -12						; size = 4
$T199949 = -8						; size = 4
$T199948 = -4						; size = 4
___$ReturnUdt$ = 8					; size = 4
__First$ = 12						; size = 4
__Last$ = 16						; size = 4
?erase@?$_Tree@V?$_Tmap_traits@HPAVBaseDialog@@U?$less@H@std@@V?$allocator@U?$pair@$$CBHPAVBaseDialog@@@std@@@3@$0A@@std@@@std@@QAE?AViterator@12@V312@0@Z PROC NEAR ; std::_Tree<std::_Tmap_traits<int,BaseDialog *,std::less<int>,std::allocator<std::pair<int const ,BaseDialog *> >,0> >::erase, COMDAT
; _this$ = ecx

; 750  : 		{	// erase [_First, _Last)

  00000	55		 push	 ebp
  00001	8b ec		 mov	 ebp, esp
  00003	83 ec 14	 sub	 esp, 20			; 00000014H
  00006	89 4d ec	 mov	 DWORD PTR _this$[ebp], ecx

; 751  : 		if (_First == begin() && _Last == end())

  00009	8d 45 fc	 lea	 eax, DWORD PTR $T199948[ebp]
  0000c	50		 push	 eax
  0000d	8b 4d ec	 mov	 ecx, DWORD PTR _this$[ebp]
  00010	e8 00 00 00 00	 call	 ?begin@?$_Tree@V?$_Tmap_traits@HPAVBaseDialog@@U?$less@H@std@@V?$allocator@U?$pair@$$CBHPAVBaseDialog@@@std@@@3@$0A@@std@@@std@@QAE?AViterator@12@XZ ; std::_Tree<std::_Tmap_traits<int,BaseDialog *,std::less<int>,std::allocator<std::pair<int const ,BaseDialog *> >,0> >::begin
  00015	50		 push	 eax
  00016	8d 4d 0c	 lea	 ecx, DWORD PTR __First$[ebp]
  00019	e8 00 00 00 00	 call	 ??8const_iterator@?$_Tree@V?$_Tmap_traits@HPAVBaseDialog@@U?$less@H@std@@V?$allocator@U?$pair@$$CBHPAVBaseDialog@@@std@@@3@$0A@@std@@@std@@QBE_NABV012@@Z ; std::_Tree<std::_Tmap_traits<int,BaseDialog *,std::less<int>,std::allocator<std::pair<int const ,BaseDialog *> >,0> >::const_iterator::operator==
  0001e	0f b6 c8	 movzx	 ecx, al
  00021	85 c9		 test	 ecx, ecx
  00023	74 35		 je	 SHORT $L198959
  00025	8d 55 f8	 lea	 edx, DWORD PTR $T199949[ebp]
  00028	52		 push	 edx
  00029	8b 4d ec	 mov	 ecx, DWORD PTR _this$[ebp]
  0002c	e8 00 00 00 00	 call	 ?end@?$_Tree@V?$_Tmap_traits@HPAVBaseDialog@@U?$less@H@std@@V?$allocator@U?$pair@$$CBHPAVBaseDialog@@@std@@@3@$0A@@std@@@std@@QAE?AViterator@12@XZ ; std::_Tree<std::_Tmap_traits<int,BaseDialog *,std::less<int>,std::allocator<std::pair<int const ,BaseDialog *> >,0> >::end
  00031	50		 push	 eax
  00032	8d 4d 10	 lea	 ecx, DWORD PTR __Last$[ebp]
  00035	e8 00 00 00 00	 call	 ??8const_iterator@?$_Tree@V?$_Tmap_traits@HPAVBaseDialog@@U?$less@H@std@@V?$allocator@U?$pair@$$CBHPAVBaseDialog@@@std@@@3@$0A@@std@@@std@@QBE_NABV012@@Z ; std::_Tree<std::_Tmap_traits<int,BaseDialog *,std::less<int>,std::allocator<std::pair<int const ,BaseDialog *> >,0> >::const_iterator::operator==
  0003a	0f b6 c0	 movzx	 eax, al
  0003d	85 c0		 test	 eax, eax
  0003f	74 19		 je	 SHORT $L198959

; 752  : 			{	// erase all
; 753  : 			clear();

  00041	8b 4d ec	 mov	 ecx, DWORD PTR _this$[ebp]
  00044	e8 00 00 00 00	 call	 ?clear@?$_Tree@V?$_Tmap_traits@HPAVBaseDialog@@U?$less@H@std@@V?$allocator@U?$pair@$$CBHPAVBaseDialog@@@std@@@3@$0A@@std@@@std@@QAEXXZ ; std::_Tree<std::_Tmap_traits<int,BaseDialog *,std::less<int>,std::allocator<std::pair<int const ,BaseDialog *> >,0> >::clear

; 754  : 			return (begin());

  00049	8b 4d 08	 mov	 ecx, DWORD PTR ___$ReturnUdt$[ebp]
  0004c	51		 push	 ecx
  0004d	8b 4d ec	 mov	 ecx, DWORD PTR _this$[ebp]
  00050	e8 00 00 00 00	 call	 ?begin@?$_Tree@V?$_Tmap_traits@HPAVBaseDialog@@U?$less@H@std@@V?$allocator@U?$pair@$$CBHPAVBaseDialog@@@std@@@3@$0A@@std@@@std@@QAE?AViterator@12@XZ ; std::_Tree<std::_Tmap_traits<int,BaseDialog *,std::less<int>,std::allocator<std::pair<int const ,BaseDialog *> >,0> >::begin
  00055	8b 45 08	 mov	 eax, DWORD PTR ___$ReturnUdt$[ebp]
  00058	eb 3d		 jmp	 SHORT $L198952
$L198959:

; 755  : 			}
; 756  : 		else
; 757  : 			{	// partial erase, one at a time
; 758  : 			while (_First != _Last)

  0005a	8d 55 10	 lea	 edx, DWORD PTR __Last$[ebp]
  0005d	52		 push	 edx
  0005e	8d 4d 0c	 lea	 ecx, DWORD PTR __First$[ebp]
  00061	e8 00 00 00 00	 call	 ??9const_iterator@?$_Tree@V?$_Tmap_traits@HPAVBaseDialog@@U?$less@H@std@@V?$allocator@U?$pair@$$CBHPAVBaseDialog@@@std@@@3@$0A@@std@@@std@@QBE_NABV012@@Z ; std::_Tree<std::_Tmap_traits<int,BaseDialog *,std::less<int>,std::allocator<std::pair<int const ,BaseDialog *> >,0> >::const_iterator::operator!=
  00066	0f b6 c0	 movzx	 eax, al
  00069	85 c0		 test	 eax, eax
  0006b	74 1f		 je	 SHORT $L198960

; 759  : 				erase(_First++);

  0006d	6a 00		 push	 0
  0006f	8d 4d f4	 lea	 ecx, DWORD PTR $T199950[ebp]
  00072	51		 push	 ecx
  00073	8d 4d 0c	 lea	 ecx, DWORD PTR __First$[ebp]
  00076	e8 00 00 00 00	 call	 ??Eiterator@?$_Tree@V?$_Tmap_traits@HPAVBaseDialog@@U?$less@H@std@@V?$allocator@U?$pair@$$CBHPAVBaseDialog@@@std@@@3@$0A@@std@@@std@@QAE?AV012@H@Z ; std::_Tree<std::_Tmap_traits<int,BaseDialog *,std::less<int>,std::allocator<std::pair<int const ,BaseDialog *> >,0> >::iterator::operator++
  0007b	8b 10		 mov	 edx, DWORD PTR [eax]
  0007d	52		 push	 edx
  0007e	8d 45 f0	 lea	 eax, DWORD PTR $T199951[ebp]
  00081	50		 push	 eax
  00082	8b 4d ec	 mov	 ecx, DWORD PTR _this$[ebp]
  00085	e8 00 00 00 00	 call	 ?erase@?$_Tree@V?$_Tmap_traits@HPAVBaseDialog@@U?$less@H@std@@V?$allocator@U?$pair@$$CBHPAVBaseDialog@@@std@@@3@$0A@@std@@@std@@QAE?AViterator@12@V312@@Z ; std::_Tree<std::_Tmap_traits<int,BaseDialog *,std::less<int>,std::allocator<std::pair<int const ,BaseDialog *> >,0> >::erase
  0008a	eb ce		 jmp	 SHORT $L198959
$L198960:

; 760  : 			return (_First);

  0008c	8b 4d 08	 mov	 ecx, DWORD PTR ___$ReturnUdt$[ebp]
  0008f	8b 55 0c	 mov	 edx, DWORD PTR __First$[ebp]
  00092	89 11		 mov	 DWORD PTR [ecx], edx
  00094	8b 45 08	 mov	 eax, DWORD PTR ___$ReturnUdt$[ebp]
$L198952:

; 761  : 			}
; 762  : 		}

  00097	8b e5		 mov	 esp, ebp
  00099	5d		 pop	 ebp
  0009a	c2 0c 00	 ret	 12			; 0000000cH
?erase@?$_Tree@V?$_Tmap_traits@HPAVBaseDialog@@U?$less@H@std@@V?$allocator@U?$pair@$$CBHPAVBaseDialog@@@std@@@3@$0A@@std@@@std@@QAE?AViterator@12@V312@0@Z ENDP ; std::_Tree<std::_Tmap_traits<int,BaseDialog *,std::less<int>,std::allocator<std::pair<int const ,BaseDialog *> >,0> >::erase
_TEXT	ENDS
PUBLIC	?_Buynode@?$_Tree@V?$_Tmap_traits@HPAVBaseDialog@@U?$less@H@std@@V?$allocator@U?$pair@$$CBHPAVBaseDialog@@@std@@@3@$0A@@std@@@std@@IAEPAU_Node@?$_Tree_nod@V?$_Tmap_traits@HPAVBaseDialog@@U?$less@H@std@@V?$allocator@U?$pair@$$CBHPAVBaseDialog@@@std@@@3@$0A@@std@@@2@XZ ; std::_Tree<std::_Tmap_traits<int,BaseDialog *,std::less<int>,std::allocator<std::pair<int const ,BaseDialog *> >,0> >::_Buynode
; Function compile flags: /Odt
;	COMDAT ?_Init@?$_Tree@V?$_Tmap_traits@HPAVBaseDialog@@U?$less@H@std@@V?$allocator@U?$pair@$$CBHPAVBaseDialog@@@std@@@3@$0A@@std@@@std@@IAEXXZ
_TEXT	SEGMENT
_this$ = -4						; size = 4
?_Init@?$_Tree@V?$_Tmap_traits@HPAVBaseDialog@@U?$less@H@std@@V?$allocator@U?$pair@$$CBHPAVBaseDialog@@@std@@@3@$0A@@std@@@std@@IAEXXZ PROC NEAR ; std::_Tree<std::_Tmap_traits<int,BaseDialog *,std::less<int>,std::allocator<std::pair<int const ,BaseDialog *> >,0> >::_Init, COMDAT
; _this$ = ecx

; 901  : 		{	// create head/nil node and make tree empty

  00000	55		 push	 ebp
  00001	8b ec		 mov	 ebp, esp
  00003	51		 push	 ecx
  00004	89 4d fc	 mov	 DWORD PTR _this$[ebp], ecx

; 902  : 		_Myhead = _Buynode();

  00007	8b 4d fc	 mov	 ecx, DWORD PTR _this$[ebp]
  0000a	e8 00 00 00 00	 call	 ?_Buynode@?$_Tree@V?$_Tmap_traits@HPAVBaseDialog@@U?$less@H@std@@V?$allocator@U?$pair@$$CBHPAVBaseDialog@@@std@@@3@$0A@@std@@@std@@IAEPAU_Node@?$_Tree_nod@V?$_Tmap_traits@HPAVBaseDialog@@U?$less@H@std@@V?$allocator@U?$pair@$$CBHPAVBaseDialog@@@std@@@3@$0A@@std@@@2@XZ ; std::_Tree<std::_Tmap_traits<int,BaseDialog *,std::less<int>,std::allocator<std::pair<int const ,BaseDialog *> >,0> >::_Buynode
  0000f	8b 4d fc	 mov	 ecx, DWORD PTR _this$[ebp]
  00012	89 41 04	 mov	 DWORD PTR [ecx+4], eax

; 903  : 		_Isnil(_Myhead) = true;

  00015	8b 55 fc	 mov	 edx, DWORD PTR _this$[ebp]
  00018	8b 42 04	 mov	 eax, DWORD PTR [edx+4]
  0001b	50		 push	 eax
  0001c	e8 00 00 00 00	 call	 ?_Isnil@?$_Tree@V?$_Tmap_traits@HPAVBaseDialog@@U?$less@H@std@@V?$allocator@U?$pair@$$CBHPAVBaseDialog@@@std@@@3@$0A@@std@@@std@@KAAADPAU_Node@?$_Tree_nod@V?$_Tmap_traits@HPAVBaseDialog@@U?$less@H@std@@V?$allocator@U?$pair@$$CBHPAVBaseDialog@@@std@@@3@$0A@@std@@@2@@Z ; std::_Tree<std::_Tmap_traits<int,BaseDialog *,std::less<int>,std::allocator<std::pair<int const ,BaseDialog *> >,0> >::_Isnil
  00021	83 c4 04	 add	 esp, 4
  00024	c6 00 01	 mov	 BYTE PTR [eax], 1

; 904  : 		_Root() = _Myhead;

  00027	8b 4d fc	 mov	 ecx, DWORD PTR _this$[ebp]
  0002a	e8 00 00 00 00	 call	 ?_Root@?$_Tree@V?$_Tmap_traits@HPAVBaseDialog@@U?$less@H@std@@V?$allocator@U?$pair@$$CBHPAVBaseDialog@@@std@@@3@$0A@@std@@@std@@IAEAAPAU_Node@?$_Tree_nod@V?$_Tmap_traits@HPAVBaseDialog@@U?$less@H@std@@V?$allocator@U?$pair@$$CBHPAVBaseDialog@@@std@@@3@$0A@@std@@@2@XZ ; std::_Tree<std::_Tmap_traits<int,BaseDialog *,std::less<int>,std::allocator<std::pair<int const ,BaseDialog *> >,0> >::_Root
  0002f	8b 4d fc	 mov	 ecx, DWORD PTR _this$[ebp]
  00032	8b 51 04	 mov	 edx, DWORD PTR [ecx+4]
  00035	89 10		 mov	 DWORD PTR [eax], edx

; 905  : 		_Lmost() = _Myhead, _Rmost() = _Myhead;

  00037	8b 4d fc	 mov	 ecx, DWORD PTR _this$[ebp]
  0003a	e8 00 00 00 00	 call	 ?_Lmost@?$_Tree@V?$_Tmap_traits@HPAVBaseDialog@@U?$less@H@std@@V?$allocator@U?$pair@$$CBHPAVBaseDialog@@@std@@@3@$0A@@std@@@std@@IAEAAPAU_Node@?$_Tree_nod@V?$_Tmap_traits@HPAVBaseDialog@@U?$less@H@std@@V?$allocator@U?$pair@$$CBHPAVBaseDialog@@@std@@@3@$0A@@std@@@2@XZ ; std::_Tree<std::_Tmap_traits<int,BaseDialog *,std::less<int>,std::allocator<std::pair<int const ,BaseDialog *> >,0> >::_Lmost
  0003f	8b 4d fc	 mov	 ecx, DWORD PTR _this$[ebp]
  00042	8b 51 04	 mov	 edx, DWORD PTR [ecx+4]
  00045	89 10		 mov	 DWORD PTR [eax], edx
  00047	8b 4d fc	 mov	 ecx, DWORD PTR _this$[ebp]
  0004a	e8 00 00 00 00	 call	 ?_Rmost@?$_Tree@V?$_Tmap_traits@HPAVBaseDialog@@U?$less@H@std@@V?$allocator@U?$pair@$$CBHPAVBaseDialog@@@std@@@3@$0A@@std@@@std@@IAEAAPAU_Node@?$_Tree_nod@V?$_Tmap_traits@HPAVBaseDialog@@U?$less@H@std@@V?$allocator@U?$pair@$$CBHPAVBaseDialog@@@std@@@3@$0A@@std@@@2@XZ ; std::_Tree<std::_Tmap_traits<int,BaseDialog *,std::less<int>,std::allocator<std::pair<int const ,BaseDialog *> >,0> >::_Rmost
  0004f	8b 4d fc	 mov	 ecx, DWORD PTR _this$[ebp]
  00052	8b 51 04	 mov	 edx, DWORD PTR [ecx+4]
  00055	89 10		 mov	 DWORD PTR [eax], edx

; 906  : 		_Mysize = 0;

  00057	8b 45 fc	 mov	 eax, DWORD PTR _this$[ebp]
  0005a	c7 40 08 00 00
	00 00		 mov	 DWORD PTR [eax+8], 0

; 907  : 		}

  00061	8b e5		 mov	 esp, ebp
  00063	5d		 pop	 ebp
  00064	c3		 ret	 0
?_Init@?$_Tree@V?$_Tmap_traits@HPAVBaseDialog@@U?$less@H@std@@V?$allocator@U?$pair@$$CBHPAVBaseDialog@@@std@@@3@$0A@@std@@@std@@IAEXXZ ENDP ; std::_Tree<std::_Tmap_traits<int,BaseDialog *,std::less<int>,std::allocator<std::pair<int const ,BaseDialog *> >,0> >::_Init
_TEXT	ENDS
PUBLIC	??_R0?AVlogic_error@std@@@8			; std::logic_error `RTTI Type Descriptor'
PUBLIC	__CT??_R0?AVlogic_error@std@@@8??0logic_error@std@@QAE@ABV01@@Z40
PUBLIC	??_R0?AVexception@@@8				; exception `RTTI Type Descriptor'
PUBLIC	__CT??_R0?AVexception@@@8??0exception@@QAE@ABV0@@Z12
PUBLIC	__TI3?AVlength_error@std@@
PUBLIC	__CTA3?AVlength_error@std@@
PUBLIC	__CT??_R0?AVlength_error@std@@@8??0length_error@std@@QAE@ABV01@@Z40
PUBLIC	??_C@_0BE@JONHPENG@map?1set?$DMT?$DO?5too?5long?$AA@ ; `string'
PUBLIC	?_Color@?$_Tree@V?$_Tmap_traits@HPAVBaseDialog@@U?$less@H@std@@V?$allocator@U?$pair@$$CBHPAVBaseDialog@@@std@@@3@$0A@@std@@@std@@KAAADPAU_Node@?$_Tree_nod@V?$_Tmap_traits@HPAVBaseDialog@@U?$less@H@std@@V?$allocator@U?$pair@$$CBHPAVBaseDialog@@@std@@@3@$0A@@std@@@2@@Z ; std::_Tree<std::_Tmap_traits<int,BaseDialog *,std::less<int>,std::allocator<std::pair<int const ,BaseDialog *> >,0> >::_Color
PUBLIC	??_R0?AVlength_error@std@@@8			; std::length_error `RTTI Type Descriptor'
PUBLIC	?max_size@?$_Tree@V?$_Tmap_traits@HPAVBaseDialog@@U?$less@H@std@@V?$allocator@U?$pair@$$CBHPAVBaseDialog@@@std@@@3@$0A@@std@@@std@@QBEIXZ ; std::_Tree<std::_Tmap_traits<int,BaseDialog *,std::less<int>,std::allocator<std::pair<int const ,BaseDialog *> >,0> >::max_size
PUBLIC	?_Lrotate@?$_Tree@V?$_Tmap_traits@HPAVBaseDialog@@U?$less@H@std@@V?$allocator@U?$pair@$$CBHPAVBaseDialog@@@std@@@3@$0A@@std@@@std@@IAEXPAU_Node@?$_Tree_nod@V?$_Tmap_traits@HPAVBaseDialog@@U?$less@H@std@@V?$allocator@U?$pair@$$CBHPAVBaseDialog@@@std@@@3@$0A@@std@@@2@@Z ; std::_Tree<std::_Tmap_traits<int,BaseDialog *,std::less<int>,std::allocator<std::pair<int const ,BaseDialog *> >,0> >::_Lrotate
PUBLIC	?_Rrotate@?$_Tree@V?$_Tmap_traits@HPAVBaseDialog@@U?$less@H@std@@V?$allocator@U?$pair@$$CBHPAVBaseDialog@@@std@@@3@$0A@@std@@@std@@IAEXPAU_Node@?$_Tree_nod@V?$_Tmap_traits@HPAVBaseDialog@@U?$less@H@std@@V?$allocator@U?$pair@$$CBHPAVBaseDialog@@@std@@@3@$0A@@std@@@2@@Z ; std::_Tree<std::_Tmap_traits<int,BaseDialog *,std::less<int>,std::allocator<std::pair<int const ,BaseDialog *> >,0> >::_Rrotate
PUBLIC	?_Buynode@?$_Tree@V?$_Tmap_traits@HPAVBaseDialog@@U?$less@H@std@@V?$allocator@U?$pair@$$CBHPAVBaseDialog@@@std@@@3@$0A@@std@@@std@@IAEPAU_Node@?$_Tree_nod@V?$_Tmap_traits@HPAVBaseDialog@@U?$less@H@std@@V?$allocator@U?$pair@$$CBHPAVBaseDialog@@@std@@@3@$0A@@std@@@2@PAU342@00ABU?$pair@$$CBHPAVBaseDialog@@@2@D@Z ; std::_Tree<std::_Tmap_traits<int,BaseDialog *,std::less<int>,std::allocator<std::pair<int const ,BaseDialog *> >,0> >::_Buynode
PUBLIC	??0logic_error@std@@QAE@ABV01@@Z		; std::logic_error::logic_error
PUBLIC	??0length_error@std@@QAE@ABV?$basic_string@DU?$char_traits@D@std@@V?$allocator@D@2@@1@@Z ; std::length_error::length_error
PUBLIC	??1length_error@std@@UAE@XZ			; std::length_error::~length_error
PUBLIC	??0length_error@std@@QAE@ABV01@@Z		; std::length_error::length_error
EXTRN	__CxxThrowException@8:NEAR
EXTRN	??0exception@@QAE@ABV0@@Z:NEAR			; exception::exception
;	COMDAT xdata$x
xdata$x	SEGMENT
$T199963 DD	0ffffffffH
	DD	FLAT:$L199959
$T199961 DD	019930520H
	DD	01H
	DD	FLAT:$T199963
	DD	2 DUP(00H)
	DD	2 DUP(00H)
xdata$x	ENDS
;	COMDAT ??_C@_0BE@JONHPENG@map?1set?$DMT?$DO?5too?5long?$AA@
CONST	SEGMENT
??_C@_0BE@JONHPENG@map?1set?$DMT?$DO?5too?5long?$AA@ DB 'map/set<T> too l'
	DB	'ong', 00H					; `string'
CONST	ENDS
;	COMDAT __TI3?AVlength_error@std@@
xdata$x	SEGMENT
__TI3?AVlength_error@std@@ DD 00H
	DD	FLAT:??1length_error@std@@UAE@XZ
	DD	00H
	DD	FLAT:__CTA3?AVlength_error@std@@
xdata$x	ENDS
;	COMDAT __CTA3?AVlength_error@std@@
xdata$x	SEGMENT
__CTA3?AVlength_error@std@@ DD 03H
	DD	FLAT:__CT??_R0?AVlength_error@std@@@8??0length_error@std@@QAE@ABV01@@Z40
	DD	FLAT:__CT??_R0?AVlogic_error@std@@@8??0logic_error@std@@QAE@ABV01@@Z40
	DD	FLAT:__CT??_R0?AVexception@@@8??0exception@@QAE@ABV0@@Z12
xdata$x	ENDS
;	COMDAT __CT??_R0?AVlength_error@std@@@8??0length_error@std@@QAE@ABV01@@Z40
xdata$x	SEGMENT
__CT??_R0?AVlength_error@std@@@8??0length_error@std@@QAE@ABV01@@Z40 DD 00H
	DD	FLAT:??_R0?AVlength_error@std@@@8
	DD	00H
	DD	0ffffffffH
	ORG $+4
	DD	028H
	DD	FLAT:??0length_error@std@@QAE@ABV01@@Z
xdata$x	ENDS
;	COMDAT ??_R0?AVlength_error@std@@@8
_DATA	SEGMENT
??_R0?AVlength_error@std@@@8 DD FLAT:??_7type_info@@6B@	; std::length_error `RTTI Type Descriptor'
	DD	00H
	DB	'.?AVlength_error@std@@', 00H
	ORG $-31
	DD	FLAT:??_7type_info@@6B@
	DD	00H
	DB	'.?AVlength_error@std@@', 00H
_DATA	ENDS
;	COMDAT __CT??_R0?AVlogic_error@std@@@8??0logic_error@std@@QAE@ABV01@@Z40
xdata$x	SEGMENT
__CT??_R0?AVlogic_error@std@@@8??0logic_error@std@@QAE@ABV01@@Z40 DD 00H
	DD	FLAT:??_R0?AVlogic_error@std@@@8
	DD	00H
	DD	0ffffffffH
	ORG $+4
	DD	028H
	DD	FLAT:??0logic_error@std@@QAE@ABV01@@Z
xdata$x	ENDS
;	COMDAT ??_R0?AVlogic_error@std@@@8
_DATA	SEGMENT
??_R0?AVlogic_error@std@@@8 DD FLAT:??_7type_info@@6B@	; std::logic_error `RTTI Type Descriptor'
	DD	00H
	DB	'.?AVlogic_error@std@@', 00H
	ORG $-30
	DD	FLAT:??_7type_info@@6B@
	DD	00H
	DB	'.?AVlogic_error@std@@', 00H
_DATA	ENDS
;	COMDAT __CT??_R0?AVexception@@@8??0exception@@QAE@ABV0@@Z12
xdata$x	SEGMENT
__CT??_R0?AVexception@@@8??0exception@@QAE@ABV0@@Z12 DD 00H
	DD	FLAT:??_R0?AVexception@@@8
	DD	00H
	DD	0ffffffffH
	ORG $+4
	DD	0cH
	DD	FLAT:??0exception@@QAE@ABV0@@Z
xdata$x	ENDS
;	COMDAT ??_R0?AVexception@@@8
_DATA	SEGMENT
??_R0?AVexception@@@8 DD FLAT:??_7type_info@@6B@	; exception `RTTI Type Descriptor'
	DD	00H
	DB	'.?AVexception@@', 00H
	ORG $-24
	DD	FLAT:??_7type_info@@6B@
	DD	00H
	DB	'.?AVexception@@', 00H
; Function compile flags: /Odt
_DATA	ENDS
;	COMDAT ?_Insert@?$_Tree@V?$_Tmap_traits@HPAVBaseDialog@@U?$less@H@std@@V?$allocator@U?$pair@$$CBHPAVBaseDialog@@@std@@@3@$0A@@std@@@std@@IAE?AViterator@12@_NPAU_Node@?$_Tree_nod@V?$_Tmap_traits@HPAVBaseDialog@@U?$less@H@std@@V?$allocator@U?$pair@$$CBHPAVBaseDialog@@@std@@@3@$0A@@std@@@2@ABU?$pair@$$CBHPAVBaseDialog@@@2@@Z
_TEXT	SEGMENT
_this$ = -92						; size = 4
$T199957 = -88						; size = 28
$T199956 = -60						; size = 40
__Pnode$198983 = -20					; size = 4
__Newnode$ = -16					; size = 4
__$EHRec$ = -12						; size = 12
___$ReturnUdt$ = 8					; size = 4
__Addleft$ = 12						; size = 1
__Wherenode$ = 16					; size = 4
__Val$ = 20						; size = 4
?_Insert@?$_Tree@V?$_Tmap_traits@HPAVBaseDialog@@U?$less@H@std@@V?$allocator@U?$pair@$$CBHPAVBaseDialog@@@std@@@3@$0A@@std@@@std@@IAE?AViterator@12@_NPAU_Node@?$_Tree_nod@V?$_Tmap_traits@HPAVBaseDialog@@U?$less@H@std@@V?$allocator@U?$pair@$$CBHPAVBaseDialog@@@std@@@3@$0A@@std@@@2@ABU?$pair@$$CBHPAVBaseDialog@@@2@@Z PROC NEAR ; std::_Tree<std::_Tmap_traits<int,BaseDialog *,std::less<int>,std::allocator<std::pair<int const ,BaseDialog *> >,0> >::_Insert, COMDAT
; _this$ = ecx

; 911  : 		{	// add node with value next to _Wherenode, to left if _Addnode

  00000	55		 push	 ebp
  00001	8b ec		 mov	 ebp, esp
  00003	6a ff		 push	 -1
  00005	68 00 00 00 00	 push	 __ehhandler$?_Insert@?$_Tree@V?$_Tmap_traits@HPAVBaseDialog@@U?$less@H@std@@V?$allocator@U?$pair@$$CBHPAVBaseDialog@@@std@@@3@$0A@@std@@@std@@IAE?AViterator@12@_NPAU_Node@?$_Tree_nod@V?$_Tmap_traits@HPAVBaseDialog@@U?$less@H@std@@V?$allocator@U?$pair@$$CBHPAVBaseDialog@@@std@@@3@$0A@@std@@@2@ABU?$pair@$$CBHPAVBaseDialog@@@2@@Z
  0000a	64 a1 00 00 00
	00		 mov	 eax, DWORD PTR fs:__except_list
  00010	50		 push	 eax
  00011	64 89 25 00 00
	00 00		 mov	 DWORD PTR fs:__except_list, esp
  00018	83 ec 50	 sub	 esp, 80			; 00000050H
  0001b	56		 push	 esi
  0001c	89 4d a4	 mov	 DWORD PTR _this$[ebp], ecx

; 912  : 		if (max_size() - 1 <= _Mysize)

  0001f	8b 4d a4	 mov	 ecx, DWORD PTR _this$[ebp]
  00022	e8 00 00 00 00	 call	 ?max_size@?$_Tree@V?$_Tmap_traits@HPAVBaseDialog@@U?$less@H@std@@V?$allocator@U?$pair@$$CBHPAVBaseDialog@@@std@@@3@$0A@@std@@@std@@QBEIXZ ; std::_Tree<std::_Tmap_traits<int,BaseDialog *,std::less<int>,std::allocator<std::pair<int const ,BaseDialog *> >,0> >::max_size
  00027	83 e8 01	 sub	 eax, 1
  0002a	8b 4d a4	 mov	 ecx, DWORD PTR _this$[ebp]
  0002d	3b 41 08	 cmp	 eax, DWORD PTR [ecx+8]
  00030	77 2f		 ja	 SHORT $L198968

; 913  : 			_THROW(length_error, "map/set<T> too long");

  00032	68 00 00 00 00	 push	 OFFSET FLAT:??_C@_0BE@JONHPENG@map?1set?$DMT?$DO?5too?5long?$AA@
  00037	8d 4d a8	 lea	 ecx, DWORD PTR $T199957[ebp]
  0003a	ff 15 00 00 00
	00		 call	 DWORD PTR __imp_??0?$basic_string@DU?$char_traits@D@std@@V?$allocator@D@2@@std@@QAE@PBD@Z
  00040	c7 45 fc 00 00
	00 00		 mov	 DWORD PTR __$EHRec$[ebp+8], 0
  00047	8d 55 a8	 lea	 edx, DWORD PTR $T199957[ebp]
  0004a	52		 push	 edx
  0004b	8d 4d c4	 lea	 ecx, DWORD PTR $T199956[ebp]
  0004e	e8 00 00 00 00	 call	 ??0length_error@std@@QAE@ABV?$basic_string@DU?$char_traits@D@std@@V?$allocator@D@2@@1@@Z ; std::length_error::length_error
  00053	68 00 00 00 00	 push	 OFFSET FLAT:__TI3?AVlength_error@std@@
  00058	8d 45 c4	 lea	 eax, DWORD PTR $T199956[ebp]
  0005b	50		 push	 eax
  0005c	e8 00 00 00 00	 call	 __CxxThrowException@8
$L198968:

; 914  : 		_Nodeptr _Newnode = _Buynode(_Myhead, _Wherenode, _Myhead,
; 915  : 			_Val, _Red);

  00061	6a 00		 push	 0
  00063	8b 4d 14	 mov	 ecx, DWORD PTR __Val$[ebp]
  00066	51		 push	 ecx
  00067	8b 55 a4	 mov	 edx, DWORD PTR _this$[ebp]
  0006a	8b 42 04	 mov	 eax, DWORD PTR [edx+4]
  0006d	50		 push	 eax
  0006e	8b 4d 10	 mov	 ecx, DWORD PTR __Wherenode$[ebp]
  00071	51		 push	 ecx
  00072	8b 55 a4	 mov	 edx, DWORD PTR _this$[ebp]
  00075	8b 42 04	 mov	 eax, DWORD PTR [edx+4]
  00078	50		 push	 eax
  00079	8b 4d a4	 mov	 ecx, DWORD PTR _this$[ebp]
  0007c	e8 00 00 00 00	 call	 ?_Buynode@?$_Tree@V?$_Tmap_traits@HPAVBaseDialog@@U?$less@H@std@@V?$allocator@U?$pair@$$CBHPAVBaseDialog@@@std@@@3@$0A@@std@@@std@@IAEPAU_Node@?$_Tree_nod@V?$_Tmap_traits@HPAVBaseDialog@@U?$less@H@std@@V?$allocator@U?$pair@$$CBHPAVBaseDialog@@@std@@@3@$0A@@std@@@2@PAU342@00ABU?$pair@$$CBHPAVBaseDialog@@@2@D@Z ; std::_Tree<std::_Tmap_traits<int,BaseDialog *,std::less<int>,std::allocator<std::pair<int const ,BaseDialog *> >,0> >::_Buynode
  00081	89 45 f0	 mov	 DWORD PTR __Newnode$[ebp], eax

; 916  : 
; 917  : 		++_Mysize;

  00084	8b 4d a4	 mov	 ecx, DWORD PTR _this$[ebp]
  00087	8b 51 08	 mov	 edx, DWORD PTR [ecx+8]
  0008a	83 c2 01	 add	 edx, 1
  0008d	8b 45 a4	 mov	 eax, DWORD PTR _this$[ebp]
  00090	89 50 08	 mov	 DWORD PTR [eax+8], edx

; 918  : 		if (_Wherenode == _Myhead)

  00093	8b 4d a4	 mov	 ecx, DWORD PTR _this$[ebp]
  00096	8b 55 10	 mov	 edx, DWORD PTR __Wherenode$[ebp]
  00099	3b 51 04	 cmp	 edx, DWORD PTR [ecx+4]
  0009c	75 29		 jne	 SHORT $L198977

; 919  : 			{	// first node in tree, just set head values
; 920  : 			_Root() = _Newnode;

  0009e	8b 4d a4	 mov	 ecx, DWORD PTR _this$[ebp]
  000a1	e8 00 00 00 00	 call	 ?_Root@?$_Tree@V?$_Tmap_traits@HPAVBaseDialog@@U?$less@H@std@@V?$allocator@U?$pair@$$CBHPAVBaseDialog@@@std@@@3@$0A@@std@@@std@@IAEAAPAU_Node@?$_Tree_nod@V?$_Tmap_traits@HPAVBaseDialog@@U?$less@H@std@@V?$allocator@U?$pair@$$CBHPAVBaseDialog@@@std@@@3@$0A@@std@@@2@XZ ; std::_Tree<std::_Tmap_traits<int,BaseDialog *,std::less<int>,std::allocator<std::pair<int const ,BaseDialog *> >,0> >::_Root
  000a6	8b 4d f0	 mov	 ecx, DWORD PTR __Newnode$[ebp]
  000a9	89 08		 mov	 DWORD PTR [eax], ecx

; 921  : 			_Lmost() = _Newnode, _Rmost() = _Newnode;

  000ab	8b 4d a4	 mov	 ecx, DWORD PTR _this$[ebp]
  000ae	e8 00 00 00 00	 call	 ?_Lmost@?$_Tree@V?$_Tmap_traits@HPAVBaseDialog@@U?$less@H@std@@V?$allocator@U?$pair@$$CBHPAVBaseDialog@@@std@@@3@$0A@@std@@@std@@IAEAAPAU_Node@?$_Tree_nod@V?$_Tmap_traits@HPAVBaseDialog@@U?$less@H@std@@V?$allocator@U?$pair@$$CBHPAVBaseDialog@@@std@@@3@$0A@@std@@@2@XZ ; std::_Tree<std::_Tmap_traits<int,BaseDialog *,std::less<int>,std::allocator<std::pair<int const ,BaseDialog *> >,0> >::_Lmost
  000b3	8b 55 f0	 mov	 edx, DWORD PTR __Newnode$[ebp]
  000b6	89 10		 mov	 DWORD PTR [eax], edx
  000b8	8b 4d a4	 mov	 ecx, DWORD PTR _this$[ebp]
  000bb	e8 00 00 00 00	 call	 ?_Rmost@?$_Tree@V?$_Tmap_traits@HPAVBaseDialog@@U?$less@H@std@@V?$allocator@U?$pair@$$CBHPAVBaseDialog@@@std@@@3@$0A@@std@@@std@@IAEAAPAU_Node@?$_Tree_nod@V?$_Tmap_traits@HPAVBaseDialog@@U?$less@H@std@@V?$allocator@U?$pair@$$CBHPAVBaseDialog@@@std@@@3@$0A@@std@@@2@XZ ; std::_Tree<std::_Tmap_traits<int,BaseDialog *,std::less<int>,std::allocator<std::pair<int const ,BaseDialog *> >,0> >::_Rmost
  000c0	8b 4d f0	 mov	 ecx, DWORD PTR __Newnode$[ebp]
  000c3	89 08		 mov	 DWORD PTR [eax], ecx

; 922  : 			}
; 923  : 		else if (_Addleft)

  000c5	eb 64		 jmp	 SHORT $L198978
$L198977:
  000c7	0f b6 55 0c	 movzx	 edx, BYTE PTR __Addleft$[ebp]
  000cb	85 d2		 test	 edx, edx
  000cd	74 2f		 je	 SHORT $L198979

; 924  : 			{	// add to left of _Wherenode
; 925  : 			_Left(_Wherenode) = _Newnode;

  000cf	8b 45 10	 mov	 eax, DWORD PTR __Wherenode$[ebp]
  000d2	50		 push	 eax
  000d3	e8 00 00 00 00	 call	 ?_Left@?$_Tree@V?$_Tmap_traits@HPAVBaseDialog@@U?$less@H@std@@V?$allocator@U?$pair@$$CBHPAVBaseDialog@@@std@@@3@$0A@@std@@@std@@KAAAPAU_Node@?$_Tree_nod@V?$_Tmap_traits@HPAVBaseDialog@@U?$less@H@std@@V?$allocator@U?$pair@$$CBHPAVBaseDialog@@@std@@@3@$0A@@std@@@2@PAU342@@Z ; std::_Tree<std::_Tmap_traits<int,BaseDialog *,std::less<int>,std::allocator<std::pair<int const ,BaseDialog *> >,0> >::_Left
  000d8	83 c4 04	 add	 esp, 4
  000db	8b 4d f0	 mov	 ecx, DWORD PTR __Newnode$[ebp]
  000de	89 08		 mov	 DWORD PTR [eax], ecx

; 926  : 			if (_Wherenode == _Lmost())

  000e0	8b 4d a4	 mov	 ecx, DWORD PTR _this$[ebp]
  000e3	e8 00 00 00 00	 call	 ?_Lmost@?$_Tree@V?$_Tmap_traits@HPAVBaseDialog@@U?$less@H@std@@V?$allocator@U?$pair@$$CBHPAVBaseDialog@@@std@@@3@$0A@@std@@@std@@IAEAAPAU_Node@?$_Tree_nod@V?$_Tmap_traits@HPAVBaseDialog@@U?$less@H@std@@V?$allocator@U?$pair@$$CBHPAVBaseDialog@@@std@@@3@$0A@@std@@@2@XZ ; std::_Tree<std::_Tmap_traits<int,BaseDialog *,std::less<int>,std::allocator<std::pair<int const ,BaseDialog *> >,0> >::_Lmost
  000e8	8b 55 10	 mov	 edx, DWORD PTR __Wherenode$[ebp]
  000eb	3b 10		 cmp	 edx, DWORD PTR [eax]
  000ed	75 0d		 jne	 SHORT $L198980

; 927  : 				_Lmost() = _Newnode;

  000ef	8b 4d a4	 mov	 ecx, DWORD PTR _this$[ebp]
  000f2	e8 00 00 00 00	 call	 ?_Lmost@?$_Tree@V?$_Tmap_traits@HPAVBaseDialog@@U?$less@H@std@@V?$allocator@U?$pair@$$CBHPAVBaseDialog@@@std@@@3@$0A@@std@@@std@@IAEAAPAU_Node@?$_Tree_nod@V?$_Tmap_traits@HPAVBaseDialog@@U?$less@H@std@@V?$allocator@U?$pair@$$CBHPAVBaseDialog@@@std@@@3@$0A@@std@@@2@XZ ; std::_Tree<std::_Tmap_traits<int,BaseDialog *,std::less<int>,std::allocator<std::pair<int const ,BaseDialog *> >,0> >::_Lmost
  000f7	8b 4d f0	 mov	 ecx, DWORD PTR __Newnode$[ebp]
  000fa	89 08		 mov	 DWORD PTR [eax], ecx
$L198980:

; 928  : 			}
; 929  : 		else

  000fc	eb 2d		 jmp	 SHORT $L198978
$L198979:

; 930  : 			{	// add to right of _Wherenode
; 931  : 			_Right(_Wherenode) = _Newnode;

  000fe	8b 55 10	 mov	 edx, DWORD PTR __Wherenode$[ebp]
  00101	52		 push	 edx
  00102	e8 00 00 00 00	 call	 ?_Right@?$_Tree@V?$_Tmap_traits@HPAVBaseDialog@@U?$less@H@std@@V?$allocator@U?$pair@$$CBHPAVBaseDialog@@@std@@@3@$0A@@std@@@std@@KAAAPAU_Node@?$_Tree_nod@V?$_Tmap_traits@HPAVBaseDialog@@U?$less@H@std@@V?$allocator@U?$pair@$$CBHPAVBaseDialog@@@std@@@3@$0A@@std@@@2@PAU342@@Z ; std::_Tree<std::_Tmap_traits<int,BaseDialog *,std::less<int>,std::allocator<std::pair<int const ,BaseDialog *> >,0> >::_Right
  00107	83 c4 04	 add	 esp, 4
  0010a	8b 4d f0	 mov	 ecx, DWORD PTR __Newnode$[ebp]
  0010d	89 08		 mov	 DWORD PTR [eax], ecx

; 932  : 			if (_Wherenode == _Rmost())

  0010f	8b 4d a4	 mov	 ecx, DWORD PTR _this$[ebp]
  00112	e8 00 00 00 00	 call	 ?_Rmost@?$_Tree@V?$_Tmap_traits@HPAVBaseDialog@@U?$less@H@std@@V?$allocator@U?$pair@$$CBHPAVBaseDialog@@@std@@@3@$0A@@std@@@std@@IAEAAPAU_Node@?$_Tree_nod@V?$_Tmap_traits@HPAVBaseDialog@@U?$less@H@std@@V?$allocator@U?$pair@$$CBHPAVBaseDialog@@@std@@@3@$0A@@std@@@2@XZ ; std::_Tree<std::_Tmap_traits<int,BaseDialog *,std::less<int>,std::allocator<std::pair<int const ,BaseDialog *> >,0> >::_Rmost
  00117	8b 55 10	 mov	 edx, DWORD PTR __Wherenode$[ebp]
  0011a	3b 10		 cmp	 edx, DWORD PTR [eax]
  0011c	75 0d		 jne	 SHORT $L198978

; 933  : 				_Rmost() = _Newnode;

  0011e	8b 4d a4	 mov	 ecx, DWORD PTR _this$[ebp]
  00121	e8 00 00 00 00	 call	 ?_Rmost@?$_Tree@V?$_Tmap_traits@HPAVBaseDialog@@U?$less@H@std@@V?$allocator@U?$pair@$$CBHPAVBaseDialog@@@std@@@3@$0A@@std@@@std@@IAEAAPAU_Node@?$_Tree_nod@V?$_Tmap_traits@HPAVBaseDialog@@U?$less@H@std@@V?$allocator@U?$pair@$$CBHPAVBaseDialog@@@std@@@3@$0A@@std@@@2@XZ ; std::_Tree<std::_Tmap_traits<int,BaseDialog *,std::less<int>,std::allocator<std::pair<int const ,BaseDialog *> >,0> >::_Rmost
  00126	8b 4d f0	 mov	 ecx, DWORD PTR __Newnode$[ebp]
  00129	89 08		 mov	 DWORD PTR [eax], ecx
$L198978:

; 934  : 			}
; 935  : 
; 936  : 		for (_Nodeptr _Pnode = _Newnode; _Color(_Parent(_Pnode)) == _Red; )

  0012b	8b 55 f0	 mov	 edx, DWORD PTR __Newnode$[ebp]
  0012e	89 55 ec	 mov	 DWORD PTR __Pnode$198983[ebp], edx
$L198985:
  00131	8b 45 ec	 mov	 eax, DWORD PTR __Pnode$198983[ebp]
  00134	50		 push	 eax
  00135	e8 00 00 00 00	 call	 ?_Parent@?$_Tree@V?$_Tmap_traits@HPAVBaseDialog@@U?$less@H@std@@V?$allocator@U?$pair@$$CBHPAVBaseDialog@@@std@@@3@$0A@@std@@@std@@KAAAPAU_Node@?$_Tree_nod@V?$_Tmap_traits@HPAVBaseDialog@@U?$less@H@std@@V?$allocator@U?$pair@$$CBHPAVBaseDialog@@@std@@@3@$0A@@std@@@2@PAU342@@Z ; std::_Tree<std::_Tmap_traits<int,BaseDialog *,std::less<int>,std::allocator<std::pair<int const ,BaseDialog *> >,0> >::_Parent
  0013a	83 c4 04	 add	 esp, 4
  0013d	8b 08		 mov	 ecx, DWORD PTR [eax]
  0013f	51		 push	 ecx
  00140	e8 00 00 00 00	 call	 ?_Color@?$_Tree@V?$_Tmap_traits@HPAVBaseDialog@@U?$less@H@std@@V?$allocator@U?$pair@$$CBHPAVBaseDialog@@@std@@@3@$0A@@std@@@std@@KAAADPAU_Node@?$_Tree_nod@V?$_Tmap_traits@HPAVBaseDialog@@U?$less@H@std@@V?$allocator@U?$pair@$$CBHPAVBaseDialog@@@std@@@3@$0A@@std@@@2@@Z ; std::_Tree<std::_Tmap_traits<int,BaseDialog *,std::less<int>,std::allocator<std::pair<int const ,BaseDialog *> >,0> >::_Color
  00145	83 c4 04	 add	 esp, 4
  00148	0f be 10	 movsx	 edx, BYTE PTR [eax]
  0014b	85 d2		 test	 edx, edx
  0014d	0f 85 ce 02 00
	00		 jne	 $L198986

; 937  : 			if (_Parent(_Pnode) == _Left(_Parent(_Parent(_Pnode))))

  00153	8b 45 ec	 mov	 eax, DWORD PTR __Pnode$198983[ebp]
  00156	50		 push	 eax
  00157	e8 00 00 00 00	 call	 ?_Parent@?$_Tree@V?$_Tmap_traits@HPAVBaseDialog@@U?$less@H@std@@V?$allocator@U?$pair@$$CBHPAVBaseDialog@@@std@@@3@$0A@@std@@@std@@KAAAPAU_Node@?$_Tree_nod@V?$_Tmap_traits@HPAVBaseDialog@@U?$less@H@std@@V?$allocator@U?$pair@$$CBHPAVBaseDialog@@@std@@@3@$0A@@std@@@2@PAU342@@Z ; std::_Tree<std::_Tmap_traits<int,BaseDialog *,std::less<int>,std::allocator<std::pair<int const ,BaseDialog *> >,0> >::_Parent
  0015c	83 c4 04	 add	 esp, 4
  0015f	8b f0		 mov	 esi, eax
  00161	8b 4d ec	 mov	 ecx, DWORD PTR __Pnode$198983[ebp]
  00164	51		 push	 ecx
  00165	e8 00 00 00 00	 call	 ?_Parent@?$_Tree@V?$_Tmap_traits@HPAVBaseDialog@@U?$less@H@std@@V?$allocator@U?$pair@$$CBHPAVBaseDialog@@@std@@@3@$0A@@std@@@std@@KAAAPAU_Node@?$_Tree_nod@V?$_Tmap_traits@HPAVBaseDialog@@U?$less@H@std@@V?$allocator@U?$pair@$$CBHPAVBaseDialog@@@std@@@3@$0A@@std@@@2@PAU342@@Z ; std::_Tree<std::_Tmap_traits<int,BaseDialog *,std::less<int>,std::allocator<std::pair<int const ,BaseDialog *> >,0> >::_Parent
  0016a	83 c4 04	 add	 esp, 4
  0016d	8b 10		 mov	 edx, DWORD PTR [eax]
  0016f	52		 push	 edx
  00170	e8 00 00 00 00	 call	 ?_Parent@?$_Tree@V?$_Tmap_traits@HPAVBaseDialog@@U?$less@H@std@@V?$allocator@U?$pair@$$CBHPAVBaseDialog@@@std@@@3@$0A@@std@@@std@@KAAAPAU_Node@?$_Tree_nod@V?$_Tmap_traits@HPAVBaseDialog@@U?$less@H@std@@V?$allocator@U?$pair@$$CBHPAVBaseDialog@@@std@@@3@$0A@@std@@@2@PAU342@@Z ; std::_Tree<std::_Tmap_traits<int,BaseDialog *,std::less<int>,std::allocator<std::pair<int const ,BaseDialog *> >,0> >::_Parent
  00175	83 c4 04	 add	 esp, 4
  00178	8b 00		 mov	 eax, DWORD PTR [eax]
  0017a	50		 push	 eax
  0017b	e8 00 00 00 00	 call	 ?_Left@?$_Tree@V?$_Tmap_traits@HPAVBaseDialog@@U?$less@H@std@@V?$allocator@U?$pair@$$CBHPAVBaseDialog@@@std@@@3@$0A@@std@@@std@@KAAAPAU_Node@?$_Tree_nod@V?$_Tmap_traits@HPAVBaseDialog@@U?$less@H@std@@V?$allocator@U?$pair@$$CBHPAVBaseDialog@@@std@@@3@$0A@@std@@@2@PAU342@@Z ; std::_Tree<std::_Tmap_traits<int,BaseDialog *,std::less<int>,std::allocator<std::pair<int const ,BaseDialog *> >,0> >::_Left
  00180	83 c4 04	 add	 esp, 4
  00183	8b 0e		 mov	 ecx, DWORD PTR [esi]
  00185	3b 08		 cmp	 ecx, DWORD PTR [eax]
  00187	0f 85 4a 01 00
	00		 jne	 $L198987

; 938  : 				{	// fixup red-red in left subtree
; 939  : 				_Wherenode = _Right(_Parent(_Parent(_Pnode)));

  0018d	8b 55 ec	 mov	 edx, DWORD PTR __Pnode$198983[ebp]
  00190	52		 push	 edx
  00191	e8 00 00 00 00	 call	 ?_Parent@?$_Tree@V?$_Tmap_traits@HPAVBaseDialog@@U?$less@H@std@@V?$allocator@U?$pair@$$CBHPAVBaseDialog@@@std@@@3@$0A@@std@@@std@@KAAAPAU_Node@?$_Tree_nod@V?$_Tmap_traits@HPAVBaseDialog@@U?$less@H@std@@V?$allocator@U?$pair@$$CBHPAVBaseDialog@@@std@@@3@$0A@@std@@@2@PAU342@@Z ; std::_Tree<std::_Tmap_traits<int,BaseDialog *,std::less<int>,std::allocator<std::pair<int const ,BaseDialog *> >,0> >::_Parent
  00196	83 c4 04	 add	 esp, 4
  00199	8b 00		 mov	 eax, DWORD PTR [eax]
  0019b	50		 push	 eax
  0019c	e8 00 00 00 00	 call	 ?_Parent@?$_Tree@V?$_Tmap_traits@HPAVBaseDialog@@U?$less@H@std@@V?$allocator@U?$pair@$$CBHPAVBaseDialog@@@std@@@3@$0A@@std@@@std@@KAAAPAU_Node@?$_Tree_nod@V?$_Tmap_traits@HPAVBaseDialog@@U?$less@H@std@@V?$allocator@U?$pair@$$CBHPAVBaseDialog@@@std@@@3@$0A@@std@@@2@PAU342@@Z ; std::_Tree<std::_Tmap_traits<int,BaseDialog *,std::less<int>,std::allocator<std::pair<int const ,BaseDialog *> >,0> >::_Parent
  001a1	83 c4 04	 add	 esp, 4
  001a4	8b 08		 mov	 ecx, DWORD PTR [eax]
  001a6	51		 push	 ecx
  001a7	e8 00 00 00 00	 call	 ?_Right@?$_Tree@V?$_Tmap_traits@HPAVBaseDialog@@U?$less@H@std@@V?$allocator@U?$pair@$$CBHPAVBaseDialog@@@std@@@3@$0A@@std@@@std@@KAAAPAU_Node@?$_Tree_nod@V?$_Tmap_traits@HPAVBaseDialog@@U?$less@H@std@@V?$allocator@U?$pair@$$CBHPAVBaseDialog@@@std@@@3@$0A@@std@@@2@PAU342@@Z ; std::_Tree<std::_Tmap_traits<int,BaseDialog *,std::less<int>,std::allocator<std::pair<int const ,BaseDialog *> >,0> >::_Right
  001ac	83 c4 04	 add	 esp, 4
  001af	8b 10		 mov	 edx, DWORD PTR [eax]
  001b1	89 55 10	 mov	 DWORD PTR __Wherenode$[ebp], edx

; 940  : 				if (_Color(_Wherenode) == _Red)

  001b4	8b 45 10	 mov	 eax, DWORD PTR __Wherenode$[ebp]
  001b7	50		 push	 eax
  001b8	e8 00 00 00 00	 call	 ?_Color@?$_Tree@V?$_Tmap_traits@HPAVBaseDialog@@U?$less@H@std@@V?$allocator@U?$pair@$$CBHPAVBaseDialog@@@std@@@3@$0A@@std@@@std@@KAAADPAU_Node@?$_Tree_nod@V?$_Tmap_traits@HPAVBaseDialog@@U?$less@H@std@@V?$allocator@U?$pair@$$CBHPAVBaseDialog@@@std@@@3@$0A@@std@@@2@@Z ; std::_Tree<std::_Tmap_traits<int,BaseDialog *,std::less<int>,std::allocator<std::pair<int const ,BaseDialog *> >,0> >::_Color
  001bd	83 c4 04	 add	 esp, 4
  001c0	0f be 08	 movsx	 ecx, BYTE PTR [eax]
  001c3	85 c9		 test	 ecx, ecx
  001c5	75 6f		 jne	 SHORT $L198988

; 941  : 					{	// parent has two red children, blacken both
; 942  : 					_Color(_Parent(_Pnode)) = _Black;

  001c7	8b 55 ec	 mov	 edx, DWORD PTR __Pnode$198983[ebp]
  001ca	52		 push	 edx
  001cb	e8 00 00 00 00	 call	 ?_Parent@?$_Tree@V?$_Tmap_traits@HPAVBaseDialog@@U?$less@H@std@@V?$allocator@U?$pair@$$CBHPAVBaseDialog@@@std@@@3@$0A@@std@@@std@@KAAAPAU_Node@?$_Tree_nod@V?$_Tmap_traits@HPAVBaseDialog@@U?$less@H@std@@V?$allocator@U?$pair@$$CBHPAVBaseDialog@@@std@@@3@$0A@@std@@@2@PAU342@@Z ; std::_Tree<std::_Tmap_traits<int,BaseDialog *,std::less<int>,std::allocator<std::pair<int const ,BaseDialog *> >,0> >::_Parent
  001d0	83 c4 04	 add	 esp, 4
  001d3	8b 00		 mov	 eax, DWORD PTR [eax]
  001d5	50		 push	 eax
  001d6	e8 00 00 00 00	 call	 ?_Color@?$_Tree@V?$_Tmap_traits@HPAVBaseDialog@@U?$less@H@std@@V?$allocator@U?$pair@$$CBHPAVBaseDialog@@@std@@@3@$0A@@std@@@std@@KAAADPAU_Node@?$_Tree_nod@V?$_Tmap_traits@HPAVBaseDialog@@U?$less@H@std@@V?$allocator@U?$pair@$$CBHPAVBaseDialog@@@std@@@3@$0A@@std@@@2@@Z ; std::_Tree<std::_Tmap_traits<int,BaseDialog *,std::less<int>,std::allocator<std::pair<int const ,BaseDialog *> >,0> >::_Color
  001db	83 c4 04	 add	 esp, 4
  001de	c6 00 01	 mov	 BYTE PTR [eax], 1

; 943  : 					_Color(_Wherenode) = _Black;

  001e1	8b 4d 10	 mov	 ecx, DWORD PTR __Wherenode$[ebp]
  001e4	51		 push	 ecx
  001e5	e8 00 00 00 00	 call	 ?_Color@?$_Tree@V?$_Tmap_traits@HPAVBaseDialog@@U?$less@H@std@@V?$allocator@U?$pair@$$CBHPAVBaseDialog@@@std@@@3@$0A@@std@@@std@@KAAADPAU_Node@?$_Tree_nod@V?$_Tmap_traits@HPAVBaseDialog@@U?$less@H@std@@V?$allocator@U?$pair@$$CBHPAVBaseDialog@@@std@@@3@$0A@@std@@@2@@Z ; std::_Tree<std::_Tmap_traits<int,BaseDialog *,std::less<int>,std::allocator<std::pair<int const ,BaseDialog *> >,0> >::_Color
  001ea	83 c4 04	 add	 esp, 4
  001ed	c6 00 01	 mov	 BYTE PTR [eax], 1

; 944  : 					_Color(_Parent(_Parent(_Pnode))) = _Red;

  001f0	8b 55 ec	 mov	 edx, DWORD PTR __Pnode$198983[ebp]
  001f3	52		 push	 edx
  001f4	e8 00 00 00 00	 call	 ?_Parent@?$_Tree@V?$_Tmap_traits@HPAVBaseDialog@@U?$less@H@std@@V?$allocator@U?$pair@$$CBHPAVBaseDialog@@@std@@@3@$0A@@std@@@std@@KAAAPAU_Node@?$_Tree_nod@V?$_Tmap_traits@HPAVBaseDialog@@U?$less@H@std@@V?$allocator@U?$pair@$$CBHPAVBaseDialog@@@std@@@3@$0A@@std@@@2@PAU342@@Z ; std::_Tree<std::_Tmap_traits<int,BaseDialog *,std::less<int>,std::allocator<std::pair<int const ,BaseDialog *> >,0> >::_Parent
  001f9	83 c4 04	 add	 esp, 4
  001fc	8b 00		 mov	 eax, DWORD PTR [eax]
  001fe	50		 push	 eax
  001ff	e8 00 00 00 00	 call	 ?_Parent@?$_Tree@V?$_Tmap_traits@HPAVBaseDialog@@U?$less@H@std@@V?$allocator@U?$pair@$$CBHPAVBaseDialog@@@std@@@3@$0A@@std@@@std@@KAAAPAU_Node@?$_Tree_nod@V?$_Tmap_traits@HPAVBaseDialog@@U?$less@H@std@@V?$allocator@U?$pair@$$CBHPAVBaseDialog@@@std@@@3@$0A@@std@@@2@PAU342@@Z ; std::_Tree<std::_Tmap_traits<int,BaseDialog *,std::less<int>,std::allocator<std::pair<int const ,BaseDialog *> >,0> >::_Parent
  00204	83 c4 04	 add	 esp, 4
  00207	8b 08		 mov	 ecx, DWORD PTR [eax]
  00209	51		 push	 ecx
  0020a	e8 00 00 00 00	 call	 ?_Color@?$_Tree@V?$_Tmap_traits@HPAVBaseDialog@@U?$less@H@std@@V?$allocator@U?$pair@$$CBHPAVBaseDialog@@@std@@@3@$0A@@std@@@std@@KAAADPAU_Node@?$_Tree_nod@V?$_Tmap_traits@HPAVBaseDialog@@U?$less@H@std@@V?$allocator@U?$pair@$$CBHPAVBaseDialog@@@std@@@3@$0A@@std@@@2@@Z ; std::_Tree<std::_Tmap_traits<int,BaseDialog *,std::less<int>,std::allocator<std::pair<int const ,BaseDialog *> >,0> >::_Color
  0020f	83 c4 04	 add	 esp, 4
  00212	c6 00 00	 mov	 BYTE PTR [eax], 0

; 945  : 					_Pnode = _Parent(_Parent(_Pnode));

  00215	8b 55 ec	 mov	 edx, DWORD PTR __Pnode$198983[ebp]
  00218	52		 push	 edx
  00219	e8 00 00 00 00	 call	 ?_Parent@?$_Tree@V?$_Tmap_traits@HPAVBaseDialog@@U?$less@H@std@@V?$allocator@U?$pair@$$CBHPAVBaseDialog@@@std@@@3@$0A@@std@@@std@@KAAAPAU_Node@?$_Tree_nod@V?$_Tmap_traits@HPAVBaseDialog@@U?$less@H@std@@V?$allocator@U?$pair@$$CBHPAVBaseDialog@@@std@@@3@$0A@@std@@@2@PAU342@@Z ; std::_Tree<std::_Tmap_traits<int,BaseDialog *,std::less<int>,std::allocator<std::pair<int const ,BaseDialog *> >,0> >::_Parent
  0021e	83 c4 04	 add	 esp, 4
  00221	8b 00		 mov	 eax, DWORD PTR [eax]
  00223	50		 push	 eax
  00224	e8 00 00 00 00	 call	 ?_Parent@?$_Tree@V?$_Tmap_traits@HPAVBaseDialog@@U?$less@H@std@@V?$allocator@U?$pair@$$CBHPAVBaseDialog@@@std@@@3@$0A@@std@@@std@@KAAAPAU_Node@?$_Tree_nod@V?$_Tmap_traits@HPAVBaseDialog@@U?$less@H@std@@V?$allocator@U?$pair@$$CBHPAVBaseDialog@@@std@@@3@$0A@@std@@@2@PAU342@@Z ; std::_Tree<std::_Tmap_traits<int,BaseDialog *,std::less<int>,std::allocator<std::pair<int const ,BaseDialog *> >,0> >::_Parent
  00229	83 c4 04	 add	 esp, 4
  0022c	8b 08		 mov	 ecx, DWORD PTR [eax]
  0022e	89 4d ec	 mov	 DWORD PTR __Pnode$198983[ebp], ecx

; 946  : 					}
; 947  : 				else

  00231	e9 9c 00 00 00	 jmp	 $L198989
$L198988:

; 948  : 					{	// parent has red and black children
; 949  : 					if (_Pnode == _Right(_Parent(_Pnode)))

  00236	8b 55 ec	 mov	 edx, DWORD PTR __Pnode$198983[ebp]
  00239	52		 push	 edx
  0023a	e8 00 00 00 00	 call	 ?_Parent@?$_Tree@V?$_Tmap_traits@HPAVBaseDialog@@U?$less@H@std@@V?$allocator@U?$pair@$$CBHPAVBaseDialog@@@std@@@3@$0A@@std@@@std@@KAAAPAU_Node@?$_Tree_nod@V?$_Tmap_traits@HPAVBaseDialog@@U?$less@H@std@@V?$allocator@U?$pair@$$CBHPAVBaseDialog@@@std@@@3@$0A@@std@@@2@PAU342@@Z ; std::_Tree<std::_Tmap_traits<int,BaseDialog *,std::less<int>,std::allocator<std::pair<int const ,BaseDialog *> >,0> >::_Parent
  0023f	83 c4 04	 add	 esp, 4
  00242	8b 00		 mov	 eax, DWORD PTR [eax]
  00244	50		 push	 eax
  00245	e8 00 00 00 00	 call	 ?_Right@?$_Tree@V?$_Tmap_traits@HPAVBaseDialog@@U?$less@H@std@@V?$allocator@U?$pair@$$CBHPAVBaseDialog@@@std@@@3@$0A@@std@@@std@@KAAAPAU_Node@?$_Tree_nod@V?$_Tmap_traits@HPAVBaseDialog@@U?$less@H@std@@V?$allocator@U?$pair@$$CBHPAVBaseDialog@@@std@@@3@$0A@@std@@@2@PAU342@@Z ; std::_Tree<std::_Tmap_traits<int,BaseDialog *,std::less<int>,std::allocator<std::pair<int const ,BaseDialog *> >,0> >::_Right
  0024a	83 c4 04	 add	 esp, 4
  0024d	8b 4d ec	 mov	 ecx, DWORD PTR __Pnode$198983[ebp]
  00250	3b 08		 cmp	 ecx, DWORD PTR [eax]
  00252	75 1d		 jne	 SHORT $L198990

; 950  : 						{	// rotate right child to left
; 951  : 						_Pnode = _Parent(_Pnode);

  00254	8b 55 ec	 mov	 edx, DWORD PTR __Pnode$198983[ebp]
  00257	52		 push	 edx
  00258	e8 00 00 00 00	 call	 ?_Parent@?$_Tree@V?$_Tmap_traits@HPAVBaseDialog@@U?$less@H@std@@V?$allocator@U?$pair@$$CBHPAVBaseDialog@@@std@@@3@$0A@@std@@@std@@KAAAPAU_Node@?$_Tree_nod@V?$_Tmap_traits@HPAVBaseDialog@@U?$less@H@std@@V?$allocator@U?$pair@$$CBHPAVBaseDialog@@@std@@@3@$0A@@std@@@2@PAU342@@Z ; std::_Tree<std::_Tmap_traits<int,BaseDialog *,std::less<int>,std::allocator<std::pair<int const ,BaseDialog *> >,0> >::_Parent
  0025d	83 c4 04	 add	 esp, 4
  00260	8b 00		 mov	 eax, DWORD PTR [eax]
  00262	89 45 ec	 mov	 DWORD PTR __Pnode$198983[ebp], eax

; 952  : 						_Lrotate(_Pnode);

  00265	8b 4d ec	 mov	 ecx, DWORD PTR __Pnode$198983[ebp]
  00268	51		 push	 ecx
  00269	8b 4d a4	 mov	 ecx, DWORD PTR _this$[ebp]
  0026c	e8 00 00 00 00	 call	 ?_Lrotate@?$_Tree@V?$_Tmap_traits@HPAVBaseDialog@@U?$less@H@std@@V?$allocator@U?$pair@$$CBHPAVBaseDialog@@@std@@@3@$0A@@std@@@std@@IAEXPAU_Node@?$_Tree_nod@V?$_Tmap_traits@HPAVBaseDialog@@U?$less@H@std@@V?$allocator@U?$pair@$$CBHPAVBaseDialog@@@std@@@3@$0A@@std@@@2@@Z ; std::_Tree<std::_Tmap_traits<int,BaseDialog *,std::less<int>,std::allocator<std::pair<int const ,BaseDialog *> >,0> >::_Lrotate
$L198990:

; 953  : 						}
; 954  : 					_Color(_Parent(_Pnode)) = _Black;	// propagate red up

  00271	8b 55 ec	 mov	 edx, DWORD PTR __Pnode$198983[ebp]
  00274	52		 push	 edx
  00275	e8 00 00 00 00	 call	 ?_Parent@?$_Tree@V?$_Tmap_traits@HPAVBaseDialog@@U?$less@H@std@@V?$allocator@U?$pair@$$CBHPAVBaseDialog@@@std@@@3@$0A@@std@@@std@@KAAAPAU_Node@?$_Tree_nod@V?$_Tmap_traits@HPAVBaseDialog@@U?$less@H@std@@V?$allocator@U?$pair@$$CBHPAVBaseDialog@@@std@@@3@$0A@@std@@@2@PAU342@@Z ; std::_Tree<std::_Tmap_traits<int,BaseDialog *,std::less<int>,std::allocator<std::pair<int const ,BaseDialog *> >,0> >::_Parent
  0027a	83 c4 04	 add	 esp, 4
  0027d	8b 00		 mov	 eax, DWORD PTR [eax]
  0027f	50		 push	 eax
  00280	e8 00 00 00 00	 call	 ?_Color@?$_Tree@V?$_Tmap_traits@HPAVBaseDialog@@U?$less@H@std@@V?$allocator@U?$pair@$$CBHPAVBaseDialog@@@std@@@3@$0A@@std@@@std@@KAAADPAU_Node@?$_Tree_nod@V?$_Tmap_traits@HPAVBaseDialog@@U?$less@H@std@@V?$allocator@U?$pair@$$CBHPAVBaseDialog@@@std@@@3@$0A@@std@@@2@@Z ; std::_Tree<std::_Tmap_traits<int,BaseDialog *,std::less<int>,std::allocator<std::pair<int const ,BaseDialog *> >,0> >::_Color
  00285	83 c4 04	 add	 esp, 4
  00288	c6 00 01	 mov	 BYTE PTR [eax], 1

; 955  : 					_Color(_Parent(_Parent(_Pnode))) = _Red;

  0028b	8b 4d ec	 mov	 ecx, DWORD PTR __Pnode$198983[ebp]
  0028e	51		 push	 ecx
  0028f	e8 00 00 00 00	 call	 ?_Parent@?$_Tree@V?$_Tmap_traits@HPAVBaseDialog@@U?$less@H@std@@V?$allocator@U?$pair@$$CBHPAVBaseDialog@@@std@@@3@$0A@@std@@@std@@KAAAPAU_Node@?$_Tree_nod@V?$_Tmap_traits@HPAVBaseDialog@@U?$less@H@std@@V?$allocator@U?$pair@$$CBHPAVBaseDialog@@@std@@@3@$0A@@std@@@2@PAU342@@Z ; std::_Tree<std::_Tmap_traits<int,BaseDialog *,std::less<int>,std::allocator<std::pair<int const ,BaseDialog *> >,0> >::_Parent
  00294	83 c4 04	 add	 esp, 4
  00297	8b 10		 mov	 edx, DWORD PTR [eax]
  00299	52		 push	 edx
  0029a	e8 00 00 00 00	 call	 ?_Parent@?$_Tree@V?$_Tmap_traits@HPAVBaseDialog@@U?$less@H@std@@V?$allocator@U?$pair@$$CBHPAVBaseDialog@@@std@@@3@$0A@@std@@@std@@KAAAPAU_Node@?$_Tree_nod@V?$_Tmap_traits@HPAVBaseDialog@@U?$less@H@std@@V?$allocator@U?$pair@$$CBHPAVBaseDialog@@@std@@@3@$0A@@std@@@2@PAU342@@Z ; std::_Tree<std::_Tmap_traits<int,BaseDialog *,std::less<int>,std::allocator<std::pair<int const ,BaseDialog *> >,0> >::_Parent
  0029f	83 c4 04	 add	 esp, 4
  002a2	8b 00		 mov	 eax, DWORD PTR [eax]
  002a4	50		 push	 eax
  002a5	e8 00 00 00 00	 call	 ?_Color@?$_Tree@V?$_Tmap_traits@HPAVBaseDialog@@U?$less@H@std@@V?$allocator@U?$pair@$$CBHPAVBaseDialog@@@std@@@3@$0A@@std@@@std@@KAAADPAU_Node@?$_Tree_nod@V?$_Tmap_traits@HPAVBaseDialog@@U?$less@H@std@@V?$allocator@U?$pair@$$CBHPAVBaseDialog@@@std@@@3@$0A@@std@@@2@@Z ; std::_Tree<std::_Tmap_traits<int,BaseDialog *,std::less<int>,std::allocator<std::pair<int const ,BaseDialog *> >,0> >::_Color
  002aa	83 c4 04	 add	 esp, 4
  002ad	c6 00 00	 mov	 BYTE PTR [eax], 0

; 956  : 					_Rrotate(_Parent(_Parent(_Pnode)));

  002b0	8b 4d ec	 mov	 ecx, DWORD PTR __Pnode$198983[ebp]
  002b3	51		 push	 ecx
  002b4	e8 00 00 00 00	 call	 ?_Parent@?$_Tree@V?$_Tmap_traits@HPAVBaseDialog@@U?$less@H@std@@V?$allocator@U?$pair@$$CBHPAVBaseDialog@@@std@@@3@$0A@@std@@@std@@KAAAPAU_Node@?$_Tree_nod@V?$_Tmap_traits@HPAVBaseDialog@@U?$less@H@std@@V?$allocator@U?$pair@$$CBHPAVBaseDialog@@@std@@@3@$0A@@std@@@2@PAU342@@Z ; std::_Tree<std::_Tmap_traits<int,BaseDialog *,std::less<int>,std::allocator<std::pair<int const ,BaseDialog *> >,0> >::_Parent
  002b9	83 c4 04	 add	 esp, 4
  002bc	8b 10		 mov	 edx, DWORD PTR [eax]
  002be	52		 push	 edx
  002bf	e8 00 00 00 00	 call	 ?_Parent@?$_Tree@V?$_Tmap_traits@HPAVBaseDialog@@U?$less@H@std@@V?$allocator@U?$pair@$$CBHPAVBaseDialog@@@std@@@3@$0A@@std@@@std@@KAAAPAU_Node@?$_Tree_nod@V?$_Tmap_traits@HPAVBaseDialog@@U?$less@H@std@@V?$allocator@U?$pair@$$CBHPAVBaseDialog@@@std@@@3@$0A@@std@@@2@PAU342@@Z ; std::_Tree<std::_Tmap_traits<int,BaseDialog *,std::less<int>,std::allocator<std::pair<int const ,BaseDialog *> >,0> >::_Parent
  002c4	83 c4 04	 add	 esp, 4
  002c7	8b 00		 mov	 eax, DWORD PTR [eax]
  002c9	50		 push	 eax
  002ca	8b 4d a4	 mov	 ecx, DWORD PTR _this$[ebp]
  002cd	e8 00 00 00 00	 call	 ?_Rrotate@?$_Tree@V?$_Tmap_traits@HPAVBaseDialog@@U?$less@H@std@@V?$allocator@U?$pair@$$CBHPAVBaseDialog@@@std@@@3@$0A@@std@@@std@@IAEXPAU_Node@?$_Tree_nod@V?$_Tmap_traits@HPAVBaseDialog@@U?$less@H@std@@V?$allocator@U?$pair@$$CBHPAVBaseDialog@@@std@@@3@$0A@@std@@@2@@Z ; std::_Tree<std::_Tmap_traits<int,BaseDialog *,std::less<int>,std::allocator<std::pair<int const ,BaseDialog *> >,0> >::_Rrotate
$L198989:

; 957  : 					}
; 958  : 				}
; 959  : 			else

  002d2	e9 45 01 00 00	 jmp	 $L198991
$L198987:

; 960  : 				{	// fixup red-red in right subtree
; 961  : 				_Wherenode = _Left(_Parent(_Parent(_Pnode)));

  002d7	8b 4d ec	 mov	 ecx, DWORD PTR __Pnode$198983[ebp]
  002da	51		 push	 ecx
  002db	e8 00 00 00 00	 call	 ?_Parent@?$_Tree@V?$_Tmap_traits@HPAVBaseDialog@@U?$less@H@std@@V?$allocator@U?$pair@$$CBHPAVBaseDialog@@@std@@@3@$0A@@std@@@std@@KAAAPAU_Node@?$_Tree_nod@V?$_Tmap_traits@HPAVBaseDialog@@U?$less@H@std@@V?$allocator@U?$pair@$$CBHPAVBaseDialog@@@std@@@3@$0A@@std@@@2@PAU342@@Z ; std::_Tree<std::_Tmap_traits<int,BaseDialog *,std::less<int>,std::allocator<std::pair<int const ,BaseDialog *> >,0> >::_Parent
  002e0	83 c4 04	 add	 esp, 4
  002e3	8b 10		 mov	 edx, DWORD PTR [eax]
  002e5	52		 push	 edx
  002e6	e8 00 00 00 00	 call	 ?_Parent@?$_Tree@V?$_Tmap_traits@HPAVBaseDialog@@U?$less@H@std@@V?$allocator@U?$pair@$$CBHPAVBaseDialog@@@std@@@3@$0A@@std@@@std@@KAAAPAU_Node@?$_Tree_nod@V?$_Tmap_traits@HPAVBaseDialog@@U?$less@H@std@@V?$allocator@U?$pair@$$CBHPAVBaseDialog@@@std@@@3@$0A@@std@@@2@PAU342@@Z ; std::_Tree<std::_Tmap_traits<int,BaseDialog *,std::less<int>,std::allocator<std::pair<int const ,BaseDialog *> >,0> >::_Parent
  002eb	83 c4 04	 add	 esp, 4
  002ee	8b 00		 mov	 eax, DWORD PTR [eax]
  002f0	50		 push	 eax
  002f1	e8 00 00 00 00	 call	 ?_Left@?$_Tree@V?$_Tmap_traits@HPAVBaseDialog@@U?$less@H@std@@V?$allocator@U?$pair@$$CBHPAVBaseDialog@@@std@@@3@$0A@@std@@@std@@KAAAPAU_Node@?$_Tree_nod@V?$_Tmap_traits@HPAVBaseDialog@@U?$less@H@std@@V?$allocator@U?$pair@$$CBHPAVBaseDialog@@@std@@@3@$0A@@std@@@2@PAU342@@Z ; std::_Tree<std::_Tmap_traits<int,BaseDialog *,std::less<int>,std::allocator<std::pair<int const ,BaseDialog *> >,0> >::_Left
  002f6	83 c4 04	 add	 esp, 4
  002f9	8b 08		 mov	 ecx, DWORD PTR [eax]
  002fb	89 4d 10	 mov	 DWORD PTR __Wherenode$[ebp], ecx

; 962  : 				if (_Color(_Wherenode) == _Red)

  002fe	8b 55 10	 mov	 edx, DWORD PTR __Wherenode$[ebp]
  00301	52		 push	 edx
  00302	e8 00 00 00 00	 call	 ?_Color@?$_Tree@V?$_Tmap_traits@HPAVBaseDialog@@U?$less@H@std@@V?$allocator@U?$pair@$$CBHPAVBaseDialog@@@std@@@3@$0A@@std@@@std@@KAAADPAU_Node@?$_Tree_nod@V?$_Tmap_traits@HPAVBaseDialog@@U?$less@H@std@@V?$allocator@U?$pair@$$CBHPAVBaseDialog@@@std@@@3@$0A@@std@@@2@@Z ; std::_Tree<std::_Tmap_traits<int,BaseDialog *,std::less<int>,std::allocator<std::pair<int const ,BaseDialog *> >,0> >::_Color
  00307	83 c4 04	 add	 esp, 4
  0030a	0f be 00	 movsx	 eax, BYTE PTR [eax]
  0030d	85 c0		 test	 eax, eax
  0030f	75 6f		 jne	 SHORT $L198992

; 963  : 					{	// parent has two red children, blacken both
; 964  : 					_Color(_Parent(_Pnode)) = _Black;

  00311	8b 4d ec	 mov	 ecx, DWORD PTR __Pnode$198983[ebp]
  00314	51		 push	 ecx
  00315	e8 00 00 00 00	 call	 ?_Parent@?$_Tree@V?$_Tmap_traits@HPAVBaseDialog@@U?$less@H@std@@V?$allocator@U?$pair@$$CBHPAVBaseDialog@@@std@@@3@$0A@@std@@@std@@KAAAPAU_Node@?$_Tree_nod@V?$_Tmap_traits@HPAVBaseDialog@@U?$less@H@std@@V?$allocator@U?$pair@$$CBHPAVBaseDialog@@@std@@@3@$0A@@std@@@2@PAU342@@Z ; std::_Tree<std::_Tmap_traits<int,BaseDialog *,std::less<int>,std::allocator<std::pair<int const ,BaseDialog *> >,0> >::_Parent
  0031a	83 c4 04	 add	 esp, 4
  0031d	8b 10		 mov	 edx, DWORD PTR [eax]
  0031f	52		 push	 edx
  00320	e8 00 00 00 00	 call	 ?_Color@?$_Tree@V?$_Tmap_traits@HPAVBaseDialog@@U?$less@H@std@@V?$allocator@U?$pair@$$CBHPAVBaseDialog@@@std@@@3@$0A@@std@@@std@@KAAADPAU_Node@?$_Tree_nod@V?$_Tmap_traits@HPAVBaseDialog@@U?$less@H@std@@V?$allocator@U?$pair@$$CBHPAVBaseDialog@@@std@@@3@$0A@@std@@@2@@Z ; std::_Tree<std::_Tmap_traits<int,BaseDialog *,std::less<int>,std::allocator<std::pair<int const ,BaseDialog *> >,0> >::_Color
  00325	83 c4 04	 add	 esp, 4
  00328	c6 00 01	 mov	 BYTE PTR [eax], 1

; 965  : 					_Color(_Wherenode) = _Black;

  0032b	8b 45 10	 mov	 eax, DWORD PTR __Wherenode$[ebp]
  0032e	50		 push	 eax
  0032f	e8 00 00 00 00	 call	 ?_Color@?$_Tree@V?$_Tmap_traits@HPAVBaseDialog@@U?$less@H@std@@V?$allocator@U?$pair@$$CBHPAVBaseDialog@@@std@@@3@$0A@@std@@@std@@KAAADPAU_Node@?$_Tree_nod@V?$_Tmap_traits@HPAVBaseDialog@@U?$less@H@std@@V?$allocator@U?$pair@$$CBHPAVBaseDialog@@@std@@@3@$0A@@std@@@2@@Z ; std::_Tree<std::_Tmap_traits<int,BaseDialog *,std::less<int>,std::allocator<std::pair<int const ,BaseDialog *> >,0> >::_Color
  00334	83 c4 04	 add	 esp, 4
  00337	c6 00 01	 mov	 BYTE PTR [eax], 1

; 966  : 					_Color(_Parent(_Parent(_Pnode))) = _Red;

  0033a	8b 4d ec	 mov	 ecx, DWORD PTR __Pnode$198983[ebp]
  0033d	51		 push	 ecx
  0033e	e8 00 00 00 00	 call	 ?_Parent@?$_Tree@V?$_Tmap_traits@HPAVBaseDialog@@U?$less@H@std@@V?$allocator@U?$pair@$$CBHPAVBaseDialog@@@std@@@3@$0A@@std@@@std@@KAAAPAU_Node@?$_Tree_nod@V?$_Tmap_traits@HPAVBaseDialog@@U?$less@H@std@@V?$allocator@U?$pair@$$CBHPAVBaseDialog@@@std@@@3@$0A@@std@@@2@PAU342@@Z ; std::_Tree<std::_Tmap_traits<int,BaseDialog *,std::less<int>,std::allocator<std::pair<int const ,BaseDialog *> >,0> >::_Parent
  00343	83 c4 04	 add	 esp, 4
  00346	8b 10		 mov	 edx, DWORD PTR [eax]
  00348	52		 push	 edx
  00349	e8 00 00 00 00	 call	 ?_Parent@?$_Tree@V?$_Tmap_traits@HPAVBaseDialog@@U?$less@H@std@@V?$allocator@U?$pair@$$CBHPAVBaseDialog@@@std@@@3@$0A@@std@@@std@@KAAAPAU_Node@?$_Tree_nod@V?$_Tmap_traits@HPAVBaseDialog@@U?$less@H@std@@V?$allocator@U?$pair@$$CBHPAVBaseDialog@@@std@@@3@$0A@@std@@@2@PAU342@@Z ; std::_Tree<std::_Tmap_traits<int,BaseDialog *,std::less<int>,std::allocator<std::pair<int const ,BaseDialog *> >,0> >::_Parent
  0034e	83 c4 04	 add	 esp, 4
  00351	8b 00		 mov	 eax, DWORD PTR [eax]
  00353	50		 push	 eax
  00354	e8 00 00 00 00	 call	 ?_Color@?$_Tree@V?$_Tmap_traits@HPAVBaseDialog@@U?$less@H@std@@V?$allocator@U?$pair@$$CBHPAVBaseDialog@@@std@@@3@$0A@@std@@@std@@KAAADPAU_Node@?$_Tree_nod@V?$_Tmap_traits@HPAVBaseDialog@@U?$less@H@std@@V?$allocator@U?$pair@$$CBHPAVBaseDialog@@@std@@@3@$0A@@std@@@2@@Z ; std::_Tree<std::_Tmap_traits<int,BaseDialog *,std::less<int>,std::allocator<std::pair<int const ,BaseDialog *> >,0> >::_Color
  00359	83 c4 04	 add	 esp, 4
  0035c	c6 00 00	 mov	 BYTE PTR [eax], 0

; 967  : 					_Pnode = _Parent(_Parent(_Pnode));

  0035f	8b 4d ec	 mov	 ecx, DWORD PTR __Pnode$198983[ebp]
  00362	51		 push	 ecx
  00363	e8 00 00 00 00	 call	 ?_Parent@?$_Tree@V?$_Tmap_traits@HPAVBaseDialog@@U?$less@H@std@@V?$allocator@U?$pair@$$CBHPAVBaseDialog@@@std@@@3@$0A@@std@@@std@@KAAAPAU_Node@?$_Tree_nod@V?$_Tmap_traits@HPAVBaseDialog@@U?$less@H@std@@V?$allocator@U?$pair@$$CBHPAVBaseDialog@@@std@@@3@$0A@@std@@@2@PAU342@@Z ; std::_Tree<std::_Tmap_traits<int,BaseDialog *,std::less<int>,std::allocator<std::pair<int const ,BaseDialog *> >,0> >::_Parent
  00368	83 c4 04	 add	 esp, 4
  0036b	8b 10		 mov	 edx, DWORD PTR [eax]
  0036d	52		 push	 edx
  0036e	e8 00 00 00 00	 call	 ?_Parent@?$_Tree@V?$_Tmap_traits@HPAVBaseDialog@@U?$less@H@std@@V?$allocator@U?$pair@$$CBHPAVBaseDialog@@@std@@@3@$0A@@std@@@std@@KAAAPAU_Node@?$_Tree_nod@V?$_Tmap_traits@HPAVBaseDialog@@U?$less@H@std@@V?$allocator@U?$pair@$$CBHPAVBaseDialog@@@std@@@3@$0A@@std@@@2@PAU342@@Z ; std::_Tree<std::_Tmap_traits<int,BaseDialog *,std::less<int>,std::allocator<std::pair<int const ,BaseDialog *> >,0> >::_Parent
  00373	83 c4 04	 add	 esp, 4
  00376	8b 00		 mov	 eax, DWORD PTR [eax]
  00378	89 45 ec	 mov	 DWORD PTR __Pnode$198983[ebp], eax

; 968  : 					}
; 969  : 				else

  0037b	e9 9c 00 00 00	 jmp	 $L198991
$L198992:

; 970  : 					{	// parent has red and black children
; 971  : 					if (_Pnode == _Left(_Parent(_Pnode)))

  00380	8b 4d ec	 mov	 ecx, DWORD PTR __Pnode$198983[ebp]
  00383	51		 push	 ecx
  00384	e8 00 00 00 00	 call	 ?_Parent@?$_Tree@V?$_Tmap_traits@HPAVBaseDialog@@U?$less@H@std@@V?$allocator@U?$pair@$$CBHPAVBaseDialog@@@std@@@3@$0A@@std@@@std@@KAAAPAU_Node@?$_Tree_nod@V?$_Tmap_traits@HPAVBaseDialog@@U?$less@H@std@@V?$allocator@U?$pair@$$CBHPAVBaseDialog@@@std@@@3@$0A@@std@@@2@PAU342@@Z ; std::_Tree<std::_Tmap_traits<int,BaseDialog *,std::less<int>,std::allocator<std::pair<int const ,BaseDialog *> >,0> >::_Parent
  00389	83 c4 04	 add	 esp, 4
  0038c	8b 10		 mov	 edx, DWORD PTR [eax]
  0038e	52		 push	 edx
  0038f	e8 00 00 00 00	 call	 ?_Left@?$_Tree@V?$_Tmap_traits@HPAVBaseDialog@@U?$less@H@std@@V?$allocator@U?$pair@$$CBHPAVBaseDialog@@@std@@@3@$0A@@std@@@std@@KAAAPAU_Node@?$_Tree_nod@V?$_Tmap_traits@HPAVBaseDialog@@U?$less@H@std@@V?$allocator@U?$pair@$$CBHPAVBaseDialog@@@std@@@3@$0A@@std@@@2@PAU342@@Z ; std::_Tree<std::_Tmap_traits<int,BaseDialog *,std::less<int>,std::allocator<std::pair<int const ,BaseDialog *> >,0> >::_Left
  00394	83 c4 04	 add	 esp, 4
  00397	8b 4d ec	 mov	 ecx, DWORD PTR __Pnode$198983[ebp]
  0039a	3b 08		 cmp	 ecx, DWORD PTR [eax]
  0039c	75 1d		 jne	 SHORT $L198994

; 972  : 						{	// rotate left child to right
; 973  : 						_Pnode = _Parent(_Pnode);

  0039e	8b 55 ec	 mov	 edx, DWORD PTR __Pnode$198983[ebp]
  003a1	52		 push	 edx
  003a2	e8 00 00 00 00	 call	 ?_Parent@?$_Tree@V?$_Tmap_traits@HPAVBaseDialog@@U?$less@H@std@@V?$allocator@U?$pair@$$CBHPAVBaseDialog@@@std@@@3@$0A@@std@@@std@@KAAAPAU_Node@?$_Tree_nod@V?$_Tmap_traits@HPAVBaseDialog@@U?$less@H@std@@V?$allocator@U?$pair@$$CBHPAVBaseDialog@@@std@@@3@$0A@@std@@@2@PAU342@@Z ; std::_Tree<std::_Tmap_traits<int,BaseDialog *,std::less<int>,std::allocator<std::pair<int const ,BaseDialog *> >,0> >::_Parent
  003a7	83 c4 04	 add	 esp, 4
  003aa	8b 00		 mov	 eax, DWORD PTR [eax]
  003ac	89 45 ec	 mov	 DWORD PTR __Pnode$198983[ebp], eax

; 974  : 						_Rrotate(_Pnode);

  003af	8b 4d ec	 mov	 ecx, DWORD PTR __Pnode$198983[ebp]
  003b2	51		 push	 ecx
  003b3	8b 4d a4	 mov	 ecx, DWORD PTR _this$[ebp]
  003b6	e8 00 00 00 00	 call	 ?_Rrotate@?$_Tree@V?$_Tmap_traits@HPAVBaseDialog@@U?$less@H@std@@V?$allocator@U?$pair@$$CBHPAVBaseDialog@@@std@@@3@$0A@@std@@@std@@IAEXPAU_Node@?$_Tree_nod@V?$_Tmap_traits@HPAVBaseDialog@@U?$less@H@std@@V?$allocator@U?$pair@$$CBHPAVBaseDialog@@@std@@@3@$0A@@std@@@2@@Z ; std::_Tree<std::_Tmap_traits<int,BaseDialog *,std::less<int>,std::allocator<std::pair<int const ,BaseDialog *> >,0> >::_Rrotate
$L198994:

; 975  : 						}
; 976  : 					_Color(_Parent(_Pnode)) = _Black;	// propagate red up

  003bb	8b 55 ec	 mov	 edx, DWORD PTR __Pnode$198983[ebp]
  003be	52		 push	 edx
  003bf	e8 00 00 00 00	 call	 ?_Parent@?$_Tree@V?$_Tmap_traits@HPAVBaseDialog@@U?$less@H@std@@V?$allocator@U?$pair@$$CBHPAVBaseDialog@@@std@@@3@$0A@@std@@@std@@KAAAPAU_Node@?$_Tree_nod@V?$_Tmap_traits@HPAVBaseDialog@@U?$less@H@std@@V?$allocator@U?$pair@$$CBHPAVBaseDialog@@@std@@@3@$0A@@std@@@2@PAU342@@Z ; std::_Tree<std::_Tmap_traits<int,BaseDialog *,std::less<int>,std::allocator<std::pair<int const ,BaseDialog *> >,0> >::_Parent
  003c4	83 c4 04	 add	 esp, 4
  003c7	8b 00		 mov	 eax, DWORD PTR [eax]
  003c9	50		 push	 eax
  003ca	e8 00 00 00 00	 call	 ?_Color@?$_Tree@V?$_Tmap_traits@HPAVBaseDialog@@U?$less@H@std@@V?$allocator@U?$pair@$$CBHPAVBaseDialog@@@std@@@3@$0A@@std@@@std@@KAAADPAU_Node@?$_Tree_nod@V?$_Tmap_traits@HPAVBaseDialog@@U?$less@H@std@@V?$allocator@U?$pair@$$CBHPAVBaseDialog@@@std@@@3@$0A@@std@@@2@@Z ; std::_Tree<std::_Tmap_traits<int,BaseDialog *,std::less<int>,std::allocator<std::pair<int const ,BaseDialog *> >,0> >::_Color
  003cf	83 c4 04	 add	 esp, 4
  003d2	c6 00 01	 mov	 BYTE PTR [eax], 1

; 977  : 					_Color(_Parent(_Parent(_Pnode))) = _Red;

  003d5	8b 4d ec	 mov	 ecx, DWORD PTR __Pnode$198983[ebp]
  003d8	51		 push	 ecx
  003d9	e8 00 00 00 00	 call	 ?_Parent@?$_Tree@V?$_Tmap_traits@HPAVBaseDialog@@U?$less@H@std@@V?$allocator@U?$pair@$$CBHPAVBaseDialog@@@std@@@3@$0A@@std@@@std@@KAAAPAU_Node@?$_Tree_nod@V?$_Tmap_traits@HPAVBaseDialog@@U?$less@H@std@@V?$allocator@U?$pair@$$CBHPAVBaseDialog@@@std@@@3@$0A@@std@@@2@PAU342@@Z ; std::_Tree<std::_Tmap_traits<int,BaseDialog *,std::less<int>,std::allocator<std::pair<int const ,BaseDialog *> >,0> >::_Parent
  003de	83 c4 04	 add	 esp, 4
  003e1	8b 10		 mov	 edx, DWORD PTR [eax]
  003e3	52		 push	 edx
  003e4	e8 00 00 00 00	 call	 ?_Parent@?$_Tree@V?$_Tmap_traits@HPAVBaseDialog@@U?$less@H@std@@V?$allocator@U?$pair@$$CBHPAVBaseDialog@@@std@@@3@$0A@@std@@@std@@KAAAPAU_Node@?$_Tree_nod@V?$_Tmap_traits@HPAVBaseDialog@@U?$less@H@std@@V?$allocator@U?$pair@$$CBHPAVBaseDialog@@@std@@@3@$0A@@std@@@2@PAU342@@Z ; std::_Tree<std::_Tmap_traits<int,BaseDialog *,std::less<int>,std::allocator<std::pair<int const ,BaseDialog *> >,0> >::_Parent
  003e9	83 c4 04	 add	 esp, 4
  003ec	8b 00		 mov	 eax, DWORD PTR [eax]
  003ee	50		 push	 eax
  003ef	e8 00 00 00 00	 call	 ?_Color@?$_Tree@V?$_Tmap_traits@HPAVBaseDialog@@U?$less@H@std@@V?$allocator@U?$pair@$$CBHPAVBaseDialog@@@std@@@3@$0A@@std@@@std@@KAAADPAU_Node@?$_Tree_nod@V?$_Tmap_traits@HPAVBaseDialog@@U?$less@H@std@@V?$allocator@U?$pair@$$CBHPAVBaseDialog@@@std@@@3@$0A@@std@@@2@@Z ; std::_Tree<std::_Tmap_traits<int,BaseDialog *,std::less<int>,std::allocator<std::pair<int const ,BaseDialog *> >,0> >::_Color
  003f4	83 c4 04	 add	 esp, 4
  003f7	c6 00 00	 mov	 BYTE PTR [eax], 0

; 978  : 					_Lrotate(_Parent(_Parent(_Pnode)));

  003fa	8b 4d ec	 mov	 ecx, DWORD PTR __Pnode$198983[ebp]
  003fd	51		 push	 ecx
  003fe	e8 00 00 00 00	 call	 ?_Parent@?$_Tree@V?$_Tmap_traits@HPAVBaseDialog@@U?$less@H@std@@V?$allocator@U?$pair@$$CBHPAVBaseDialog@@@std@@@3@$0A@@std@@@std@@KAAAPAU_Node@?$_Tree_nod@V?$_Tmap_traits@HPAVBaseDialog@@U?$less@H@std@@V?$allocator@U?$pair@$$CBHPAVBaseDialog@@@std@@@3@$0A@@std@@@2@PAU342@@Z ; std::_Tree<std::_Tmap_traits<int,BaseDialog *,std::less<int>,std::allocator<std::pair<int const ,BaseDialog *> >,0> >::_Parent
  00403	83 c4 04	 add	 esp, 4
  00406	8b 10		 mov	 edx, DWORD PTR [eax]
  00408	52		 push	 edx
  00409	e8 00 00 00 00	 call	 ?_Parent@?$_Tree@V?$_Tmap_traits@HPAVBaseDialog@@U?$less@H@std@@V?$allocator@U?$pair@$$CBHPAVBaseDialog@@@std@@@3@$0A@@std@@@std@@KAAAPAU_Node@?$_Tree_nod@V?$_Tmap_traits@HPAVBaseDialog@@U?$less@H@std@@V?$allocator@U?$pair@$$CBHPAVBaseDialog@@@std@@@3@$0A@@std@@@2@PAU342@@Z ; std::_Tree<std::_Tmap_traits<int,BaseDialog *,std::less<int>,std::allocator<std::pair<int const ,BaseDialog *> >,0> >::_Parent
  0040e	83 c4 04	 add	 esp, 4
  00411	8b 00		 mov	 eax, DWORD PTR [eax]
  00413	50		 push	 eax
  00414	8b 4d a4	 mov	 ecx, DWORD PTR _this$[ebp]
  00417	e8 00 00 00 00	 call	 ?_Lrotate@?$_Tree@V?$_Tmap_traits@HPAVBaseDialog@@U?$less@H@std@@V?$allocator@U?$pair@$$CBHPAVBaseDialog@@@std@@@3@$0A@@std@@@std@@IAEXPAU_Node@?$_Tree_nod@V?$_Tmap_traits@HPAVBaseDialog@@U?$less@H@std@@V?$allocator@U?$pair@$$CBHPAVBaseDialog@@@std@@@3@$0A@@std@@@2@@Z ; std::_Tree<std::_Tmap_traits<int,BaseDialog *,std::less<int>,std::allocator<std::pair<int const ,BaseDialog *> >,0> >::_Lrotate
$L198991:

; 979  : 					}
; 980  : 				}

  0041c	e9 10 fd ff ff	 jmp	 $L198985
$L198986:

; 981  : 
; 982  : 		_Color(_Root()) = _Black;	// root is always black

  00421	8b 4d a4	 mov	 ecx, DWORD PTR _this$[ebp]
  00424	e8 00 00 00 00	 call	 ?_Root@?$_Tree@V?$_Tmap_traits@HPAVBaseDialog@@U?$less@H@std@@V?$allocator@U?$pair@$$CBHPAVBaseDialog@@@std@@@3@$0A@@std@@@std@@IAEAAPAU_Node@?$_Tree_nod@V?$_Tmap_traits@HPAVBaseDialog@@U?$less@H@std@@V?$allocator@U?$pair@$$CBHPAVBaseDialog@@@std@@@3@$0A@@std@@@2@XZ ; std::_Tree<std::_Tmap_traits<int,BaseDialog *,std::less<int>,std::allocator<std::pair<int const ,BaseDialog *> >,0> >::_Root
  00429	8b 08		 mov	 ecx, DWORD PTR [eax]
  0042b	51		 push	 ecx
  0042c	e8 00 00 00 00	 call	 ?_Color@?$_Tree@V?$_Tmap_traits@HPAVBaseDialog@@U?$less@H@std@@V?$allocator@U?$pair@$$CBHPAVBaseDialog@@@std@@@3@$0A@@std@@@std@@KAAADPAU_Node@?$_Tree_nod@V?$_Tmap_traits@HPAVBaseDialog@@U?$less@H@std@@V?$allocator@U?$pair@$$CBHPAVBaseDialog@@@std@@@3@$0A@@std@@@2@@Z ; std::_Tree<std::_Tmap_traits<int,BaseDialog *,std::less<int>,std::allocator<std::pair<int const ,BaseDialog *> >,0> >::_Color
  00431	83 c4 04	 add	 esp, 4
  00434	c6 00 01	 mov	 BYTE PTR [eax], 1

; 983  : 		return (_TREE_ITERATOR(_Newnode));

  00437	8b 55 f0	 mov	 edx, DWORD PTR __Newnode$[ebp]
  0043a	52		 push	 edx
  0043b	8b 4d 08	 mov	 ecx, DWORD PTR ___$ReturnUdt$[ebp]
  0043e	e8 00 00 00 00	 call	 ??0iterator@?$_Tree@V?$_Tmap_traits@HPAVBaseDialog@@U?$less@H@std@@V?$allocator@U?$pair@$$CBHPAVBaseDialog@@@std@@@3@$0A@@std@@@std@@QAE@PAU_Node@?$_Tree_nod@V?$_Tmap_traits@HPAVBaseDialog@@U?$less@H@std@@V?$allocator@U?$pair@$$CBHPAVBaseDialog@@@std@@@3@$0A@@std@@@2@@Z ; std::_Tree<std::_Tmap_traits<int,BaseDialog *,std::less<int>,std::allocator<std::pair<int const ,BaseDialog *> >,0> >::iterator::iterator
  00443	8b 45 08	 mov	 eax, DWORD PTR ___$ReturnUdt$[ebp]
$L199955:

; 984  : 		}

  00446	8b 4d f4	 mov	 ecx, DWORD PTR __$EHRec$[ebp]
  00449	64 89 0d 00 00
	00 00		 mov	 DWORD PTR fs:__except_list, ecx
  00450	5e		 pop	 esi
  00451	8b e5		 mov	 esp, ebp
  00453	5d		 pop	 ebp
  00454	c2 10 00	 ret	 16			; 00000010H
_TEXT	ENDS
;	COMDAT text$x
text$x	SEGMENT
$L199959:
  00000	8d 4d a8	 lea	 ecx, DWORD PTR $T199957[ebp]
  00003	ff 25 00 00 00
	00		 jmp	 DWORD PTR __imp_??1?$basic_string@DU?$char_traits@D@std@@V?$allocator@D@2@@std@@QAE@XZ
__ehhandler$?_Insert@?$_Tree@V?$_Tmap_traits@HPAVBaseDialog@@U?$less@H@std@@V?$allocator@U?$pair@$$CBHPAVBaseDialog@@@std@@@3@$0A@@std@@@std@@IAE?AViterator@12@_NPAU_Node@?$_Tree_nod@V?$_Tmap_traits@HPAVBaseDialog@@U?$less@H@std@@V?$allocator@U?$pair@$$CBHPAVBaseDialog@@@std@@@3@$0A@@std@@@2@ABU?$pair@$$CBHPAVBaseDialog@@@2@@Z:
  00009	b8 00 00 00 00	 mov	 eax, OFFSET FLAT:$T199961
  0000e	e9 00 00 00 00	 jmp	 ___CxxFrameHandler
text$x	ENDS
?_Insert@?$_Tree@V?$_Tmap_traits@HPAVBaseDialog@@U?$less@H@std@@V?$allocator@U?$pair@$$CBHPAVBaseDialog@@@std@@@3@$0A@@std@@@std@@IAE?AViterator@12@_NPAU_Node@?$_Tree_nod@V?$_Tmap_traits@HPAVBaseDialog@@U?$less@H@std@@V?$allocator@U?$pair@$$CBHPAVBaseDialog@@@std@@@3@$0A@@std@@@2@ABU?$pair@$$CBHPAVBaseDialog@@@2@@Z ENDP ; std::_Tree<std::_Tmap_traits<int,BaseDialog *,std::less<int>,std::allocator<std::pair<int const ,BaseDialog *> >,0> >::_Insert
PUBLIC	?_Root@?$_Tree@V?$_Tmap_traits@HPAVBaseDialog@@U?$less@H@std@@V?$allocator@U?$pair@$$CBHPAVBaseDialog@@@std@@@3@$0A@@std@@@std@@IBEAAPAU_Node@?$_Tree_nod@V?$_Tmap_traits@HPAVBaseDialog@@U?$less@H@std@@V?$allocator@U?$pair@$$CBHPAVBaseDialog@@@std@@@3@$0A@@std@@@2@XZ ; std::_Tree<std::_Tmap_traits<int,BaseDialog *,std::less<int>,std::allocator<std::pair<int const ,BaseDialog *> >,0> >::_Root
; Function compile flags: /Odt
;	COMDAT ?_Lbound@?$_Tree@V?$_Tmap_traits@HPAVBaseDialog@@U?$less@H@std@@V?$allocator@U?$pair@$$CBHPAVBaseDialog@@@std@@@3@$0A@@std@@@std@@IBEPAU_Node@?$_Tree_nod@V?$_Tmap_traits@HPAVBaseDialog@@U?$less@H@std@@V?$allocator@U?$pair@$$CBHPAVBaseDialog@@@std@@@3@$0A@@std@@@2@ABH@Z
_TEXT	SEGMENT
_this$ = -12						; size = 4
__Pnode$ = -8						; size = 4
__Wherenode$ = -4					; size = 4
__Keyval$ = 8						; size = 4
?_Lbound@?$_Tree@V?$_Tmap_traits@HPAVBaseDialog@@U?$less@H@std@@V?$allocator@U?$pair@$$CBHPAVBaseDialog@@@std@@@3@$0A@@std@@@std@@IBEPAU_Node@?$_Tree_nod@V?$_Tmap_traits@HPAVBaseDialog@@U?$less@H@std@@V?$allocator@U?$pair@$$CBHPAVBaseDialog@@@std@@@3@$0A@@std@@@2@ABH@Z PROC NEAR ; std::_Tree<std::_Tmap_traits<int,BaseDialog *,std::less<int>,std::allocator<std::pair<int const ,BaseDialog *> >,0> >::_Lbound, COMDAT
; _this$ = ecx

; 987  : 		{	// find leftmost node not less than _Keyval

  00000	55		 push	 ebp
  00001	8b ec		 mov	 ebp, esp
  00003	83 ec 0c	 sub	 esp, 12			; 0000000cH
  00006	89 4d f4	 mov	 DWORD PTR _this$[ebp], ecx

; 988  : 		_Nodeptr _Pnode = _Root();

  00009	8b 4d f4	 mov	 ecx, DWORD PTR _this$[ebp]
  0000c	e8 00 00 00 00	 call	 ?_Root@?$_Tree@V?$_Tmap_traits@HPAVBaseDialog@@U?$less@H@std@@V?$allocator@U?$pair@$$CBHPAVBaseDialog@@@std@@@3@$0A@@std@@@std@@IBEAAPAU_Node@?$_Tree_nod@V?$_Tmap_traits@HPAVBaseDialog@@U?$less@H@std@@V?$allocator@U?$pair@$$CBHPAVBaseDialog@@@std@@@3@$0A@@std@@@2@XZ ; std::_Tree<std::_Tmap_traits<int,BaseDialog *,std::less<int>,std::allocator<std::pair<int const ,BaseDialog *> >,0> >::_Root
  00011	8b 00		 mov	 eax, DWORD PTR [eax]
  00013	89 45 f8	 mov	 DWORD PTR __Pnode$[ebp], eax

; 989  : 		_Nodeptr _Wherenode = _Myhead;	// end() if search fails

  00016	8b 4d f4	 mov	 ecx, DWORD PTR _this$[ebp]
  00019	8b 51 04	 mov	 edx, DWORD PTR [ecx+4]
  0001c	89 55 fc	 mov	 DWORD PTR __Wherenode$[ebp], edx
$L199001:

; 990  : 
; 991  : 		while (!_Isnil(_Pnode))

  0001f	8b 45 f8	 mov	 eax, DWORD PTR __Pnode$[ebp]
  00022	50		 push	 eax
  00023	e8 00 00 00 00	 call	 ?_Isnil@?$_Tree@V?$_Tmap_traits@HPAVBaseDialog@@U?$less@H@std@@V?$allocator@U?$pair@$$CBHPAVBaseDialog@@@std@@@3@$0A@@std@@@std@@KAAADPAU_Node@?$_Tree_nod@V?$_Tmap_traits@HPAVBaseDialog@@U?$less@H@std@@V?$allocator@U?$pair@$$CBHPAVBaseDialog@@@std@@@3@$0A@@std@@@2@@Z ; std::_Tree<std::_Tmap_traits<int,BaseDialog *,std::less<int>,std::allocator<std::pair<int const ,BaseDialog *> >,0> >::_Isnil
  00028	83 c4 04	 add	 esp, 4
  0002b	0f be 08	 movsx	 ecx, BYTE PTR [eax]
  0002e	85 c9		 test	 ecx, ecx
  00030	75 4c		 jne	 SHORT $L199002

; 992  : 			if (this->comp(_Key(_Pnode), _Keyval))

  00032	8b 55 08	 mov	 edx, DWORD PTR __Keyval$[ebp]
  00035	52		 push	 edx
  00036	8b 45 f8	 mov	 eax, DWORD PTR __Pnode$[ebp]
  00039	50		 push	 eax
  0003a	e8 00 00 00 00	 call	 ?_Key@?$_Tree@V?$_Tmap_traits@HPAVBaseDialog@@U?$less@H@std@@V?$allocator@U?$pair@$$CBHPAVBaseDialog@@@std@@@3@$0A@@std@@@std@@KAABHPAU_Node@?$_Tree_nod@V?$_Tmap_traits@HPAVBaseDialog@@U?$less@H@std@@V?$allocator@U?$pair@$$CBHPAVBaseDialog@@@std@@@3@$0A@@std@@@2@@Z ; std::_Tree<std::_Tmap_traits<int,BaseDialog *,std::less<int>,std::allocator<std::pair<int const ,BaseDialog *> >,0> >::_Key
  0003f	83 c4 04	 add	 esp, 4
  00042	50		 push	 eax
  00043	8b 4d f4	 mov	 ecx, DWORD PTR _this$[ebp]
  00046	e8 00 00 00 00	 call	 ??R?$less@H@std@@QBE_NABH0@Z ; std::less<int>::operator()
  0004b	0f b6 c8	 movzx	 ecx, al
  0004e	85 c9		 test	 ecx, ecx
  00050	74 13		 je	 SHORT $L199003

; 993  : 				_Pnode = _Right(_Pnode);	// descend right subtree

  00052	8b 55 f8	 mov	 edx, DWORD PTR __Pnode$[ebp]
  00055	52		 push	 edx
  00056	e8 00 00 00 00	 call	 ?_Right@?$_Tree@V?$_Tmap_traits@HPAVBaseDialog@@U?$less@H@std@@V?$allocator@U?$pair@$$CBHPAVBaseDialog@@@std@@@3@$0A@@std@@@std@@KAAAPAU_Node@?$_Tree_nod@V?$_Tmap_traits@HPAVBaseDialog@@U?$less@H@std@@V?$allocator@U?$pair@$$CBHPAVBaseDialog@@@std@@@3@$0A@@std@@@2@PAU342@@Z ; std::_Tree<std::_Tmap_traits<int,BaseDialog *,std::less<int>,std::allocator<std::pair<int const ,BaseDialog *> >,0> >::_Right
  0005b	83 c4 04	 add	 esp, 4
  0005e	8b 00		 mov	 eax, DWORD PTR [eax]
  00060	89 45 f8	 mov	 DWORD PTR __Pnode$[ebp], eax

; 994  : 			else

  00063	eb 17		 jmp	 SHORT $L199004
$L199003:

; 995  : 				{	// _Pnode not less than _Keyval, remember it
; 996  : 				_Wherenode = _Pnode;

  00065	8b 4d f8	 mov	 ecx, DWORD PTR __Pnode$[ebp]
  00068	89 4d fc	 mov	 DWORD PTR __Wherenode$[ebp], ecx

; 997  : 				_Pnode = _Left(_Pnode);	// descend left subtree

  0006b	8b 55 f8	 mov	 edx, DWORD PTR __Pnode$[ebp]
  0006e	52		 push	 edx
  0006f	e8 00 00 00 00	 call	 ?_Left@?$_Tree@V?$_Tmap_traits@HPAVBaseDialog@@U?$less@H@std@@V?$allocator@U?$pair@$$CBHPAVBaseDialog@@@std@@@3@$0A@@std@@@std@@KAAAPAU_Node@?$_Tree_nod@V?$_Tmap_traits@HPAVBaseDialog@@U?$less@H@std@@V?$allocator@U?$pair@$$CBHPAVBaseDialog@@@std@@@3@$0A@@std@@@2@PAU342@@Z ; std::_Tree<std::_Tmap_traits<int,BaseDialog *,std::less<int>,std::allocator<std::pair<int const ,BaseDialog *> >,0> >::_Left
  00074	83 c4 04	 add	 esp, 4
  00077	8b 00		 mov	 eax, DWORD PTR [eax]
  00079	89 45 f8	 mov	 DWORD PTR __Pnode$[ebp], eax
$L199004:

; 998  : 				}

  0007c	eb a1		 jmp	 SHORT $L199001
$L199002:

; 999  : 
; 1000 : 		return (_Wherenode);	// return best remembered candidate

  0007e	8b 45 fc	 mov	 eax, DWORD PTR __Wherenode$[ebp]

; 1001 : 		}

  00081	8b e5		 mov	 esp, ebp
  00083	5d		 pop	 ebp
  00084	c2 04 00	 ret	 4
?_Lbound@?$_Tree@V?$_Tmap_traits@HPAVBaseDialog@@U?$less@H@std@@V?$allocator@U?$pair@$$CBHPAVBaseDialog@@@std@@@3@$0A@@std@@@std@@IBEPAU_Node@?$_Tree_nod@V?$_Tmap_traits@HPAVBaseDialog@@U?$less@H@std@@V?$allocator@U?$pair@$$CBHPAVBaseDialog@@@std@@@3@$0A@@std@@@2@ABH@Z ENDP ; std::_Tree<std::_Tmap_traits<int,BaseDialog *,std::less<int>,std::allocator<std::pair<int const ,BaseDialog *> >,0> >::_Lbound
; Function compile flags: /Odt
_TEXT	ENDS
;	COMDAT ?_Rmost@?$_Tree@V?$_Tmap_traits@HPAVBaseDialog@@U?$less@H@std@@V?$allocator@U?$pair@$$CBHPAVBaseDialog@@@std@@@3@$0A@@std@@@std@@IAEAAPAU_Node@?$_Tree_nod@V?$_Tmap_traits@HPAVBaseDialog@@U?$less@H@std@@V?$allocator@U?$pair@$$CBHPAVBaseDialog@@@std@@@3@$0A@@std@@@2@XZ
_TEXT	SEGMENT
_this$ = -4						; size = 4
?_Rmost@?$_Tree@V?$_Tmap_traits@HPAVBaseDialog@@U?$less@H@std@@V?$allocator@U?$pair@$$CBHPAVBaseDialog@@@std@@@3@$0A@@std@@@std@@IAEAAPAU_Node@?$_Tree_nod@V?$_Tmap_traits@HPAVBaseDialog@@U?$less@H@std@@V?$allocator@U?$pair@$$CBHPAVBaseDialog@@@std@@@3@$0A@@std@@@2@XZ PROC NEAR ; std::_Tree<std::_Tmap_traits<int,BaseDialog *,std::less<int>,std::allocator<std::pair<int const ,BaseDialog *> >,0> >::_Rmost, COMDAT
; _this$ = ecx

; 1048 : 		{	// return rightmost node in mutable tree

  00000	55		 push	 ebp
  00001	8b ec		 mov	 ebp, esp
  00003	51		 push	 ecx
  00004	89 4d fc	 mov	 DWORD PTR _this$[ebp], ecx

; 1049 : 		return (_Right(_Myhead));

  00007	8b 45 fc	 mov	 eax, DWORD PTR _this$[ebp]
  0000a	8b 48 04	 mov	 ecx, DWORD PTR [eax+4]
  0000d	51		 push	 ecx
  0000e	e8 00 00 00 00	 call	 ?_Right@?$_Tree@V?$_Tmap_traits@HPAVBaseDialog@@U?$less@H@std@@V?$allocator@U?$pair@$$CBHPAVBaseDialog@@@std@@@3@$0A@@std@@@std@@KAAAPAU_Node@?$_Tree_nod@V?$_Tmap_traits@HPAVBaseDialog@@U?$less@H@std@@V?$allocator@U?$pair@$$CBHPAVBaseDialog@@@std@@@3@$0A@@std@@@2@PAU342@@Z ; std::_Tree<std::_Tmap_traits<int,BaseDialog *,std::less<int>,std::allocator<std::pair<int const ,BaseDialog *> >,0> >::_Right
  00013	83 c4 04	 add	 esp, 4

; 1050 : 		}

  00016	8b e5		 mov	 esp, ebp
  00018	5d		 pop	 ebp
  00019	c3		 ret	 0
?_Rmost@?$_Tree@V?$_Tmap_traits@HPAVBaseDialog@@U?$less@H@std@@V?$allocator@U?$pair@$$CBHPAVBaseDialog@@@std@@@3@$0A@@std@@@std@@IAEAAPAU_Node@?$_Tree_nod@V?$_Tmap_traits@HPAVBaseDialog@@U?$less@H@std@@V?$allocator@U?$pair@$$CBHPAVBaseDialog@@@std@@@3@$0A@@std@@@2@XZ ENDP ; std::_Tree<std::_Tmap_traits<int,BaseDialog *,std::less<int>,std::allocator<std::pair<int const ,BaseDialog *> >,0> >::_Rmost
_TEXT	ENDS
PUBLIC	??0?$_Tree_ptr@V?$_Tmap_traits@HPAVBaseDialog@@U?$less@H@std@@V?$allocator@U?$pair@$$CBHPAVBaseDialog@@@std@@@3@$0A@@std@@@std@@IAE@ABU?$less@H@1@V?$allocator@U?$pair@$$CBHPAVBaseDialog@@@std@@@1@@Z ; std::_Tree_ptr<std::_Tmap_traits<int,BaseDialog *,std::less<int>,std::allocator<std::pair<int const ,BaseDialog *> >,0> >::_Tree_ptr<std::_Tmap_traits<int,BaseDialog *,std::less<int>,std::allocator<std::pair<int const ,BaseDialog *> >,0> >
; Function compile flags: /Odt
;	COMDAT ??0?$_Tree_val@V?$_Tmap_traits@HPAVBaseDialog@@U?$less@H@std@@V?$allocator@U?$pair@$$CBHPAVBaseDialog@@@std@@@3@$0A@@std@@@std@@IAE@ABU?$less@H@1@V?$allocator@U?$pair@$$CBHPAVBaseDialog@@@std@@@1@@Z
_TEXT	SEGMENT
_this$ = -8						; size = 4
__Parg$ = 8						; size = 4
__Al$ = 12						; size = 1
??0?$_Tree_val@V?$_Tmap_traits@HPAVBaseDialog@@U?$less@H@std@@V?$allocator@U?$pair@$$CBHPAVBaseDialog@@@std@@@3@$0A@@std@@@std@@IAE@ABU?$less@H@1@V?$allocator@U?$pair@$$CBHPAVBaseDialog@@@std@@@1@@Z PROC NEAR ; std::_Tree_val<std::_Tmap_traits<int,BaseDialog *,std::less<int>,std::allocator<std::pair<int const ,BaseDialog *> >,0> >::_Tree_val<std::_Tmap_traits<int,BaseDialog *,std::less<int>,std::allocator<std::pair<int const ,BaseDialog *> >,0> >, COMDAT
; _this$ = ecx

; 95   : 		{	// construct base, and allocator from _Al

  00000	55		 push	 ebp
  00001	8b ec		 mov	 ebp, esp
  00003	83 ec 08	 sub	 esp, 8
  00006	89 4d f8	 mov	 DWORD PTR _this$[ebp], ecx
  00009	51		 push	 ecx
  0000a	8b cc		 mov	 ecx, esp
  0000c	8d 45 0c	 lea	 eax, DWORD PTR __Al$[ebp]
  0000f	50		 push	 eax
  00010	e8 00 00 00 00	 call	 ??0?$allocator@U?$pair@$$CBHPAVBaseDialog@@@std@@@std@@QAE@ABV01@@Z ; std::allocator<std::pair<int const ,BaseDialog *> >::allocator<std::pair<int const ,BaseDialog *> >
  00015	8b 4d 08	 mov	 ecx, DWORD PTR __Parg$[ebp]
  00018	51		 push	 ecx
  00019	8b 4d f8	 mov	 ecx, DWORD PTR _this$[ebp]
  0001c	e8 00 00 00 00	 call	 ??0?$_Tree_ptr@V?$_Tmap_traits@HPAVBaseDialog@@U?$less@H@std@@V?$allocator@U?$pair@$$CBHPAVBaseDialog@@@std@@@3@$0A@@std@@@std@@IAE@ABU?$less@H@1@V?$allocator@U?$pair@$$CBHPAVBaseDialog@@@std@@@1@@Z ; std::_Tree_ptr<std::_Tmap_traits<int,BaseDialog *,std::less<int>,std::allocator<std::pair<int const ,BaseDialog *> >,0> >::_Tree_ptr<std::_Tmap_traits<int,BaseDialog *,std::less<int>,std::allocator<std::pair<int const ,BaseDialog *> >,0> >
  00021	8d 55 0c	 lea	 edx, DWORD PTR __Al$[ebp]
  00024	52		 push	 edx
  00025	8b 4d f8	 mov	 ecx, DWORD PTR _this$[ebp]
  00028	83 c1 03	 add	 ecx, 3
  0002b	e8 00 00 00 00	 call	 ??0?$allocator@U?$pair@$$CBHPAVBaseDialog@@@std@@@std@@QAE@ABV01@@Z ; std::allocator<std::pair<int const ,BaseDialog *> >::allocator<std::pair<int const ,BaseDialog *> >

; 96   : 		}

  00030	8b 45 f8	 mov	 eax, DWORD PTR _this$[ebp]
  00033	8b e5		 mov	 esp, ebp
  00035	5d		 pop	 ebp
  00036	c2 08 00	 ret	 8
??0?$_Tree_val@V?$_Tmap_traits@HPAVBaseDialog@@U?$less@H@std@@V?$allocator@U?$pair@$$CBHPAVBaseDialog@@@std@@@3@$0A@@std@@@std@@IAE@ABU?$less@H@1@V?$allocator@U?$pair@$$CBHPAVBaseDialog@@@std@@@1@@Z ENDP ; std::_Tree_val<std::_Tmap_traits<int,BaseDialog *,std::less<int>,std::allocator<std::pair<int const ,BaseDialog *> >,0> >::_Tree_val<std::_Tmap_traits<int,BaseDialog *,std::less<int>,std::allocator<std::pair<int const ,BaseDialog *> >,0> >
; Function compile flags: /Odt
; File d:\program files (x86)\microsoft visual studio .net 2003\vc7\include\map
_TEXT	ENDS
;	COMDAT ?_Kfn@?$_Tmap_traits@HPAVBaseDialog@@U?$less@H@std@@V?$allocator@U?$pair@$$CBHPAVBaseDialog@@@std@@@3@$0A@@std@@SAABHABU?$pair@$$CBHPAVBaseDialog@@@2@@Z
_TEXT	SEGMENT
__Val$ = 8						; size = 4
?_Kfn@?$_Tmap_traits@HPAVBaseDialog@@U?$less@H@std@@V?$allocator@U?$pair@$$CBHPAVBaseDialog@@@std@@@3@$0A@@std@@SAABHABU?$pair@$$CBHPAVBaseDialog@@@2@@Z PROC NEAR ; std::_Tmap_traits<int,BaseDialog *,std::less<int>,std::allocator<std::pair<int const ,BaseDialog *> >,0>::_Kfn, COMDAT

; 63   : 		{	// extract key from element value

  00000	55		 push	 ebp
  00001	8b ec		 mov	 ebp, esp

; 64   : 		return (_Val.first);

  00003	8b 45 08	 mov	 eax, DWORD PTR __Val$[ebp]

; 65   : 		}

  00006	5d		 pop	 ebp
  00007	c3		 ret	 0
?_Kfn@?$_Tmap_traits@HPAVBaseDialog@@U?$less@H@std@@V?$allocator@U?$pair@$$CBHPAVBaseDialog@@@std@@@3@$0A@@std@@SAABHABU?$pair@$$CBHPAVBaseDialog@@@2@@Z ENDP ; std::_Tmap_traits<int,BaseDialog *,std::less<int>,std::allocator<std::pair<int const ,BaseDialog *> >,0>::_Kfn
; Function compile flags: /Odt
; File d:\program files (x86)\microsoft visual studio .net 2003\vc7\include\xmemory
_TEXT	ENDS
;	COMDAT ??0?$allocator@U?$pair@$$CBHPAVBaseDialog@@@std@@@std@@QAE@ABV01@@Z
_TEXT	SEGMENT
_this$ = -4						; size = 4
___formal$ = 8						; size = 4
??0?$allocator@U?$pair@$$CBHPAVBaseDialog@@@std@@@std@@QAE@ABV01@@Z PROC NEAR ; std::allocator<std::pair<int const ,BaseDialog *> >::allocator<std::pair<int const ,BaseDialog *> >, COMDAT
; _this$ = ecx

; 115  : 	allocator(const allocator<_Ty>&)

  00000	55		 push	 ebp
  00001	8b ec		 mov	 ebp, esp
  00003	51		 push	 ecx
  00004	89 4d fc	 mov	 DWORD PTR _this$[ebp], ecx

; 116  : 		{	// construct by copying (do nothing)
; 117  : 		}

  00007	8b 45 fc	 mov	 eax, DWORD PTR _this$[ebp]
  0000a	8b e5		 mov	 esp, ebp
  0000c	5d		 pop	 ebp
  0000d	c2 04 00	 ret	 4
??0?$allocator@U?$pair@$$CBHPAVBaseDialog@@@std@@@std@@QAE@ABV01@@Z ENDP ; std::allocator<std::pair<int const ,BaseDialog *> >::allocator<std::pair<int const ,BaseDialog *> >
; Function compile flags: /Odt
_TEXT	ENDS
;	COMDAT ?deallocate@?$allocator@U_Node@?$_Tree_nod@V?$_Tmap_traits@HPAVBaseDialog@@U?$less@H@std@@V?$allocator@U?$pair@$$CBHPAVBaseDialog@@@std@@@3@$0A@@std@@@std@@@std@@QAEXPAU_Node@?$_Tree_nod@V?$_Tmap_traits@HPAVBaseDialog@@U?$less@H@std@@V?$allocator@U?$pair@$$CBHPAVBaseDialog@@@std@@@3@$0A@@std@@@2@I@Z
_TEXT	SEGMENT
_this$ = -4						; size = 4
__Ptr$ = 8						; size = 4
___formal$ = 12						; size = 4
?deallocate@?$allocator@U_Node@?$_Tree_nod@V?$_Tmap_traits@HPAVBaseDialog@@U?$less@H@std@@V?$allocator@U?$pair@$$CBHPAVBaseDialog@@@std@@@3@$0A@@std@@@std@@@std@@QAEXPAU_Node@?$_Tree_nod@V?$_Tmap_traits@HPAVBaseDialog@@U?$less@H@std@@V?$allocator@U?$pair@$$CBHPAVBaseDialog@@@std@@@3@$0A@@std@@@2@I@Z PROC NEAR ; std::allocator<std::_Tree_nod<std::_Tmap_traits<int,BaseDialog *,std::less<int>,std::allocator<std::pair<int const ,BaseDialog *> >,0> >::_Node>::deallocate, COMDAT
; _this$ = ecx

; 131  : 		{	// deallocate object at _Ptr, ignore size

  00000	55		 push	 ebp
  00001	8b ec		 mov	 ebp, esp
  00003	51		 push	 ecx
  00004	89 4d fc	 mov	 DWORD PTR _this$[ebp], ecx

; 132  : 		operator delete(_Ptr);

  00007	8b 45 08	 mov	 eax, DWORD PTR __Ptr$[ebp]
  0000a	50		 push	 eax
  0000b	e8 00 00 00 00	 call	 ??3@YAXPAX@Z		; operator delete
  00010	83 c4 04	 add	 esp, 4

; 133  : 		}

  00013	8b e5		 mov	 esp, ebp
  00015	5d		 pop	 ebp
  00016	c2 08 00	 ret	 8
?deallocate@?$allocator@U_Node@?$_Tree_nod@V?$_Tmap_traits@HPAVBaseDialog@@U?$less@H@std@@V?$allocator@U?$pair@$$CBHPAVBaseDialog@@@std@@@3@$0A@@std@@@std@@@std@@QAEXPAU_Node@?$_Tree_nod@V?$_Tmap_traits@HPAVBaseDialog@@U?$less@H@std@@V?$allocator@U?$pair@$$CBHPAVBaseDialog@@@std@@@3@$0A@@std@@@2@I@Z ENDP ; std::allocator<std::_Tree_nod<std::_Tmap_traits<int,BaseDialog *,std::less<int>,std::allocator<std::pair<int const ,BaseDialog *> >,0> >::_Node>::deallocate
_TEXT	ENDS
PUBLIC	??$_Destroy@PAU_Node@?$_Tree_nod@V?$_Tmap_traits@HPAVBaseDialog@@U?$less@H@std@@V?$allocator@U?$pair@$$CBHPAVBaseDialog@@@std@@@3@$0A@@std@@@std@@@std@@YAXPAPAU_Node@?$_Tree_nod@V?$_Tmap_traits@HPAVBaseDialog@@U?$less@H@std@@V?$allocator@U?$pair@$$CBHPAVBaseDialog@@@std@@@3@$0A@@std@@@0@@Z ; std::_Destroy<std::_Tree_nod<std::_Tmap_traits<int,BaseDialog *,std::less<int>,std::allocator<std::pair<int const ,BaseDialog *> >,0> >::_Node *>
; Function compile flags: /Odt
;	COMDAT ?destroy@?$allocator@PAU_Node@?$_Tree_nod@V?$_Tmap_traits@HPAVBaseDialog@@U?$less@H@std@@V?$allocator@U?$pair@$$CBHPAVBaseDialog@@@std@@@3@$0A@@std@@@std@@@std@@QAEXPAPAU_Node@?$_Tree_nod@V?$_Tmap_traits@HPAVBaseDialog@@U?$less@H@std@@V?$allocator@U?$pair@$$CBHPAVBaseDialog@@@std@@@3@$0A@@std@@@2@@Z
_TEXT	SEGMENT
_this$ = -4						; size = 4
__Ptr$ = 8						; size = 4
?destroy@?$allocator@PAU_Node@?$_Tree_nod@V?$_Tmap_traits@HPAVBaseDialog@@U?$less@H@std@@V?$allocator@U?$pair@$$CBHPAVBaseDialog@@@std@@@3@$0A@@std@@@std@@@std@@QAEXPAPAU_Node@?$_Tree_nod@V?$_Tmap_traits@HPAVBaseDialog@@U?$less@H@std@@V?$allocator@U?$pair@$$CBHPAVBaseDialog@@@std@@@3@$0A@@std@@@2@@Z PROC NEAR ; std::allocator<std::_Tree_nod<std::_Tmap_traits<int,BaseDialog *,std::less<int>,std::allocator<std::pair<int const ,BaseDialog *> >,0> >::_Node *>::destroy, COMDAT
; _this$ = ecx

; 151  : 		{	// destroy object at _Ptr

  00000	55		 push	 ebp
  00001	8b ec		 mov	 ebp, esp
  00003	51		 push	 ecx
  00004	89 4d fc	 mov	 DWORD PTR _this$[ebp], ecx

; 152  : 		_Destroy(_Ptr);

  00007	8b 45 08	 mov	 eax, DWORD PTR __Ptr$[ebp]
  0000a	50		 push	 eax
  0000b	e8 00 00 00 00	 call	 ??$_Destroy@PAU_Node@?$_Tree_nod@V?$_Tmap_traits@HPAVBaseDialog@@U?$less@H@std@@V?$allocator@U?$pair@$$CBHPAVBaseDialog@@@std@@@3@$0A@@std@@@std@@@std@@YAXPAPAU_Node@?$_Tree_nod@V?$_Tmap_traits@HPAVBaseDialog@@U?$less@H@std@@V?$allocator@U?$pair@$$CBHPAVBaseDialog@@@std@@@3@$0A@@std@@@0@@Z ; std::_Destroy<std::_Tree_nod<std::_Tmap_traits<int,BaseDialog *,std::less<int>,std::allocator<std::pair<int const ,BaseDialog *> >,0> >::_Node *>
  00010	83 c4 04	 add	 esp, 4

; 153  : 		}

  00013	8b e5		 mov	 esp, ebp
  00015	5d		 pop	 ebp
  00016	c2 04 00	 ret	 4
?destroy@?$allocator@PAU_Node@?$_Tree_nod@V?$_Tmap_traits@HPAVBaseDialog@@U?$less@H@std@@V?$allocator@U?$pair@$$CBHPAVBaseDialog@@@std@@@3@$0A@@std@@@std@@@std@@QAEXPAPAU_Node@?$_Tree_nod@V?$_Tmap_traits@HPAVBaseDialog@@U?$less@H@std@@V?$allocator@U?$pair@$$CBHPAVBaseDialog@@@std@@@3@$0A@@std@@@2@@Z ENDP ; std::allocator<std::_Tree_nod<std::_Tmap_traits<int,BaseDialog *,std::less<int>,std::allocator<std::pair<int const ,BaseDialog *> >,0> >::_Node *>::destroy
_TEXT	ENDS
PUBLIC	??0const_iterator@?$_Tree@V?$_Tmap_traits@HPAVBaseDialog@@U?$less@H@std@@V?$allocator@U?$pair@$$CBHPAVBaseDialog@@@std@@@3@$0A@@std@@@std@@QAE@XZ ; std::_Tree<std::_Tmap_traits<int,BaseDialog *,std::less<int>,std::allocator<std::pair<int const ,BaseDialog *> >,0> >::const_iterator::const_iterator
; Function compile flags: /Odt
; File d:\program files (x86)\microsoft visual studio .net 2003\vc7\include\xtree
;	COMDAT ??0iterator@?$_Tree@V?$_Tmap_traits@HPAVBaseDialog@@U?$less@H@std@@V?$allocator@U?$pair@$$CBHPAVBaseDialog@@@std@@@3@$0A@@std@@@std@@QAE@XZ
_TEXT	SEGMENT
_this$ = -4						; size = 4
??0iterator@?$_Tree@V?$_Tmap_traits@HPAVBaseDialog@@U?$less@H@std@@V?$allocator@U?$pair@$$CBHPAVBaseDialog@@@std@@@3@$0A@@std@@@std@@QAE@XZ PROC NEAR ; std::_Tree<std::_Tmap_traits<int,BaseDialog *,std::less<int>,std::allocator<std::pair<int const ,BaseDialog *> >,0> >::iterator::iterator, COMDAT
; _this$ = ecx

; 304  : 		iterator()

  00000	55		 push	 ebp
  00001	8b ec		 mov	 ebp, esp
  00003	51		 push	 ecx
  00004	89 4d fc	 mov	 DWORD PTR _this$[ebp], ecx
  00007	8b 4d fc	 mov	 ecx, DWORD PTR _this$[ebp]
  0000a	e8 00 00 00 00	 call	 ??0const_iterator@?$_Tree@V?$_Tmap_traits@HPAVBaseDialog@@U?$less@H@std@@V?$allocator@U?$pair@$$CBHPAVBaseDialog@@@std@@@3@$0A@@std@@@std@@QAE@XZ ; std::_Tree<std::_Tmap_traits<int,BaseDialog *,std::less<int>,std::allocator<std::pair<int const ,BaseDialog *> >,0> >::const_iterator::const_iterator

; 305  : 			{	// construct with null node pointer
; 306  : 			}

  0000f	8b 45 fc	 mov	 eax, DWORD PTR _this$[ebp]
  00012	8b e5		 mov	 esp, ebp
  00014	5d		 pop	 ebp
  00015	c3		 ret	 0
??0iterator@?$_Tree@V?$_Tmap_traits@HPAVBaseDialog@@U?$less@H@std@@V?$allocator@U?$pair@$$CBHPAVBaseDialog@@@std@@@3@$0A@@std@@@std@@QAE@XZ ENDP ; std::_Tree<std::_Tmap_traits<int,BaseDialog *,std::less<int>,std::allocator<std::pair<int const ,BaseDialog *> >,0> >::iterator::iterator
_TEXT	ENDS
PUBLIC	??0const_iterator@?$_Tree@V?$_Tmap_traits@HPAVBaseDialog@@U?$less@H@std@@V?$allocator@U?$pair@$$CBHPAVBaseDialog@@@std@@@3@$0A@@std@@@std@@QAE@PAU_Node@?$_Tree_nod@V?$_Tmap_traits@HPAVBaseDialog@@U?$less@H@std@@V?$allocator@U?$pair@$$CBHPAVBaseDialog@@@std@@@3@$0A@@std@@@2@@Z ; std::_Tree<std::_Tmap_traits<int,BaseDialog *,std::less<int>,std::allocator<std::pair<int const ,BaseDialog *> >,0> >::const_iterator::const_iterator
; Function compile flags: /Odt
;	COMDAT ??0iterator@?$_Tree@V?$_Tmap_traits@HPAVBaseDialog@@U?$less@H@std@@V?$allocator@U?$pair@$$CBHPAVBaseDialog@@@std@@@3@$0A@@std@@@std@@QAE@PAU_Node@?$_Tree_nod@V?$_Tmap_traits@HPAVBaseDialog@@U?$less@H@std@@V?$allocator@U?$pair@$$CBHPAVBaseDialog@@@std@@@3@$0A@@std@@@2@@Z
_TEXT	SEGMENT
_this$ = -4						; size = 4
__Pnode$ = 8						; size = 4
??0iterator@?$_Tree@V?$_Tmap_traits@HPAVBaseDialog@@U?$less@H@std@@V?$allocator@U?$pair@$$CBHPAVBaseDialog@@@std@@@3@$0A@@std@@@std@@QAE@PAU_Node@?$_Tree_nod@V?$_Tmap_traits@HPAVBaseDialog@@U?$less@H@std@@V?$allocator@U?$pair@$$CBHPAVBaseDialog@@@std@@@3@$0A@@std@@@2@@Z PROC NEAR ; std::_Tree<std::_Tmap_traits<int,BaseDialog *,std::less<int>,std::allocator<std::pair<int const ,BaseDialog *> >,0> >::iterator::iterator, COMDAT
; _this$ = ecx

; 312  : 			{	// construct with node pointer _Pnode

  00000	55		 push	 ebp
  00001	8b ec		 mov	 ebp, esp
  00003	51		 push	 ecx
  00004	89 4d fc	 mov	 DWORD PTR _this$[ebp], ecx
  00007	8b 45 08	 mov	 eax, DWORD PTR __Pnode$[ebp]
  0000a	50		 push	 eax
  0000b	8b 4d fc	 mov	 ecx, DWORD PTR _this$[ebp]
  0000e	e8 00 00 00 00	 call	 ??0const_iterator@?$_Tree@V?$_Tmap_traits@HPAVBaseDialog@@U?$less@H@std@@V?$allocator@U?$pair@$$CBHPAVBaseDialog@@@std@@@3@$0A@@std@@@std@@QAE@PAU_Node@?$_Tree_nod@V?$_Tmap_traits@HPAVBaseDialog@@U?$less@H@std@@V?$allocator@U?$pair@$$CBHPAVBaseDialog@@@std@@@3@$0A@@std@@@2@@Z ; std::_Tree<std::_Tmap_traits<int,BaseDialog *,std::less<int>,std::allocator<std::pair<int const ,BaseDialog *> >,0> >::const_iterator::const_iterator

; 313  : 			}

  00013	8b 45 fc	 mov	 eax, DWORD PTR _this$[ebp]
  00016	8b e5		 mov	 esp, ebp
  00018	5d		 pop	 ebp
  00019	c2 04 00	 ret	 4
??0iterator@?$_Tree@V?$_Tmap_traits@HPAVBaseDialog@@U?$less@H@std@@V?$allocator@U?$pair@$$CBHPAVBaseDialog@@@std@@@3@$0A@@std@@@std@@QAE@PAU_Node@?$_Tree_nod@V?$_Tmap_traits@HPAVBaseDialog@@U?$less@H@std@@V?$allocator@U?$pair@$$CBHPAVBaseDialog@@@std@@@3@$0A@@std@@@2@@Z ENDP ; std::_Tree<std::_Tmap_traits<int,BaseDialog *,std::less<int>,std::allocator<std::pair<int const ,BaseDialog *> >,0> >::iterator::iterator
_TEXT	ENDS
PUBLIC	??Econst_iterator@?$_Tree@V?$_Tmap_traits@HPAVBaseDialog@@U?$less@H@std@@V?$allocator@U?$pair@$$CBHPAVBaseDialog@@@std@@@3@$0A@@std@@@std@@QAEAAV012@XZ ; std::_Tree<std::_Tmap_traits<int,BaseDialog *,std::less<int>,std::allocator<std::pair<int const ,BaseDialog *> >,0> >::const_iterator::operator++
; Function compile flags: /Odt
;	COMDAT ??Eiterator@?$_Tree@V?$_Tmap_traits@HPAVBaseDialog@@U?$less@H@std@@V?$allocator@U?$pair@$$CBHPAVBaseDialog@@@std@@@3@$0A@@std@@@std@@QAEAAV012@XZ
_TEXT	SEGMENT
_this$ = -4						; size = 4
??Eiterator@?$_Tree@V?$_Tmap_traits@HPAVBaseDialog@@U?$less@H@std@@V?$allocator@U?$pair@$$CBHPAVBaseDialog@@@std@@@3@$0A@@std@@@std@@QAEAAV012@XZ PROC NEAR ; std::_Tree<std::_Tmap_traits<int,BaseDialog *,std::less<int>,std::allocator<std::pair<int const ,BaseDialog *> >,0> >::iterator::operator++, COMDAT
; _this$ = ecx

; 326  : 			{	// preincrement

  00000	55		 push	 ebp
  00001	8b ec		 mov	 ebp, esp
  00003	51		 push	 ecx
  00004	89 4d fc	 mov	 DWORD PTR _this$[ebp], ecx

; 327  : 			++(*(const_iterator *)this);

  00007	8b 4d fc	 mov	 ecx, DWORD PTR _this$[ebp]
  0000a	e8 00 00 00 00	 call	 ??Econst_iterator@?$_Tree@V?$_Tmap_traits@HPAVBaseDialog@@U?$less@H@std@@V?$allocator@U?$pair@$$CBHPAVBaseDialog@@@std@@@3@$0A@@std@@@std@@QAEAAV012@XZ ; std::_Tree<std::_Tmap_traits<int,BaseDialog *,std::less<int>,std::allocator<std::pair<int const ,BaseDialog *> >,0> >::const_iterator::operator++

; 328  : 			return (*this);

  0000f	8b 45 fc	 mov	 eax, DWORD PTR _this$[ebp]

; 329  : 			}

  00012	8b e5		 mov	 esp, ebp
  00014	5d		 pop	 ebp
  00015	c3		 ret	 0
??Eiterator@?$_Tree@V?$_Tmap_traits@HPAVBaseDialog@@U?$less@H@std@@V?$allocator@U?$pair@$$CBHPAVBaseDialog@@@std@@@3@$0A@@std@@@std@@QAEAAV012@XZ ENDP ; std::_Tree<std::_Tmap_traits<int,BaseDialog *,std::less<int>,std::allocator<std::pair<int const ,BaseDialog *> >,0> >::iterator::operator++
_TEXT	ENDS
PUBLIC	??Fconst_iterator@?$_Tree@V?$_Tmap_traits@HPAVBaseDialog@@U?$less@H@std@@V?$allocator@U?$pair@$$CBHPAVBaseDialog@@@std@@@3@$0A@@std@@@std@@QAEAAV012@XZ ; std::_Tree<std::_Tmap_traits<int,BaseDialog *,std::less<int>,std::allocator<std::pair<int const ,BaseDialog *> >,0> >::const_iterator::operator--
; Function compile flags: /Odt
;	COMDAT ??Fiterator@?$_Tree@V?$_Tmap_traits@HPAVBaseDialog@@U?$less@H@std@@V?$allocator@U?$pair@$$CBHPAVBaseDialog@@@std@@@3@$0A@@std@@@std@@QAEAAV012@XZ
_TEXT	SEGMENT
_this$ = -4						; size = 4
??Fiterator@?$_Tree@V?$_Tmap_traits@HPAVBaseDialog@@U?$less@H@std@@V?$allocator@U?$pair@$$CBHPAVBaseDialog@@@std@@@3@$0A@@std@@@std@@QAEAAV012@XZ PROC NEAR ; std::_Tree<std::_Tmap_traits<int,BaseDialog *,std::less<int>,std::allocator<std::pair<int const ,BaseDialog *> >,0> >::iterator::operator--, COMDAT
; _this$ = ecx

; 339  : 			{	// predecrement

  00000	55		 push	 ebp
  00001	8b ec		 mov	 ebp, esp
  00003	51		 push	 ecx
  00004	89 4d fc	 mov	 DWORD PTR _this$[ebp], ecx

; 340  : 			--(*(const_iterator *)this);

  00007	8b 4d fc	 mov	 ecx, DWORD PTR _this$[ebp]
  0000a	e8 00 00 00 00	 call	 ??Fconst_iterator@?$_Tree@V?$_Tmap_traits@HPAVBaseDialog@@U?$less@H@std@@V?$allocator@U?$pair@$$CBHPAVBaseDialog@@@std@@@3@$0A@@std@@@std@@QAEAAV012@XZ ; std::_Tree<std::_Tmap_traits<int,BaseDialog *,std::less<int>,std::allocator<std::pair<int const ,BaseDialog *> >,0> >::const_iterator::operator--

; 341  : 			return (*this);

  0000f	8b 45 fc	 mov	 eax, DWORD PTR _this$[ebp]

; 342  : 			}

  00012	8b e5		 mov	 esp, ebp
  00014	5d		 pop	 ebp
  00015	c3		 ret	 0
??Fiterator@?$_Tree@V?$_Tmap_traits@HPAVBaseDialog@@U?$less@H@std@@V?$allocator@U?$pair@$$CBHPAVBaseDialog@@@std@@@3@$0A@@std@@@std@@QAEAAV012@XZ ENDP ; std::_Tree<std::_Tmap_traits<int,BaseDialog *,std::less<int>,std::allocator<std::pair<int const ,BaseDialog *> >,0> >::iterator::operator--
; Function compile flags: /Odt
_TEXT	ENDS
;	COMDAT ??Dconst_iterator@?$_Tree@V?$_Tmap_traits@HPAVBaseDialog@@U?$less@H@std@@V?$allocator@U?$pair@$$CBHPAVBaseDialog@@@std@@@3@$0A@@std@@@std@@QBEABU?$pair@$$CBHPAVBaseDialog@@@2@XZ
_TEXT	SEGMENT
_this$ = -4						; size = 4
??Dconst_iterator@?$_Tree@V?$_Tmap_traits@HPAVBaseDialog@@U?$less@H@std@@V?$allocator@U?$pair@$$CBHPAVBaseDialog@@@std@@@3@$0A@@std@@@std@@QBEABU?$pair@$$CBHPAVBaseDialog@@@2@XZ PROC NEAR ; std::_Tree<std::_Tmap_traits<int,BaseDialog *,std::less<int>,std::allocator<std::pair<int const ,BaseDialog *> >,0> >::const_iterator::operator*, COMDAT
; _this$ = ecx

; 204  : 			{	// return designated value

  00000	55		 push	 ebp
  00001	8b ec		 mov	 ebp, esp
  00003	51		 push	 ecx
  00004	89 4d fc	 mov	 DWORD PTR _this$[ebp], ecx

; 205  : 			return (_Myval(_Ptr));

  00007	8b 45 fc	 mov	 eax, DWORD PTR _this$[ebp]
  0000a	8b 08		 mov	 ecx, DWORD PTR [eax]
  0000c	51		 push	 ecx
  0000d	e8 00 00 00 00	 call	 ?_Myval@?$_Tree@V?$_Tmap_traits@HPAVBaseDialog@@U?$less@H@std@@V?$allocator@U?$pair@$$CBHPAVBaseDialog@@@std@@@3@$0A@@std@@@std@@KAAAU?$pair@$$CBHPAVBaseDialog@@@2@PAU_Node@?$_Tree_nod@V?$_Tmap_traits@HPAVBaseDialog@@U?$less@H@std@@V?$allocator@U?$pair@$$CBHPAVBaseDialog@@@std@@@3@$0A@@std@@@2@@Z ; std::_Tree<std::_Tmap_traits<int,BaseDialog *,std::less<int>,std::allocator<std::pair<int const ,BaseDialog *> >,0> >::_Myval
  00012	83 c4 04	 add	 esp, 4

; 206  : 			}

  00015	8b e5		 mov	 esp, ebp
  00017	5d		 pop	 ebp
  00018	c3		 ret	 0
??Dconst_iterator@?$_Tree@V?$_Tmap_traits@HPAVBaseDialog@@U?$less@H@std@@V?$allocator@U?$pair@$$CBHPAVBaseDialog@@@std@@@3@$0A@@std@@@std@@QBEABU?$pair@$$CBHPAVBaseDialog@@@2@XZ ENDP ; std::_Tree<std::_Tmap_traits<int,BaseDialog *,std::less<int>,std::allocator<std::pair<int const ,BaseDialog *> >,0> >::const_iterator::operator*
_TEXT	ENDS
PUBLIC	??_R1A@?0A@A@logic_error@std@@8			; std::logic_error::`RTTI Base Class Descriptor at (0,-1,0,0)'
PUBLIC	??_R1A@?0A@A@exception@@8			; exception::`RTTI Base Class Descriptor at (0,-1,0,0)'
PUBLIC	??_R4length_error@std@@6B@			; std::length_error::`RTTI Complete Object Locator'
PUBLIC	??_R3length_error@std@@8			; std::length_error::`RTTI Class Hierarchy Descriptor'
PUBLIC	??_R2length_error@std@@8			; std::length_error::`RTTI Base Class Array'
PUBLIC	??_R1A@?0A@A@length_error@std@@8		; std::length_error::`RTTI Base Class Descriptor at (0,-1,0,0)'
PUBLIC	?what@logic_error@std@@UBEPBDXZ			; std::logic_error::what
PUBLIC	??_7length_error@std@@6B@			; std::length_error::`vftable'
PUBLIC	??_Glength_error@std@@UAEPAXI@Z			; std::length_error::`scalar deleting destructor'
EXTRN	??_Elength_error@std@@UAEPAXI@Z:NEAR		; std::length_error::`vector deleting destructor'
;	COMDAT ??_7length_error@std@@6B@
CONST	SEGMENT
??_7length_error@std@@6B@ DD FLAT:??_R4length_error@std@@6B@ ; std::length_error::`vftable'
	DD	FLAT:??_Elength_error@std@@UAEPAXI@Z
	DD	FLAT:?what@logic_error@std@@UBEPBDXZ
CONST	ENDS
;	COMDAT ??_R4length_error@std@@6B@
rdata$r	SEGMENT
??_R4length_error@std@@6B@ DD 00H			; std::length_error::`RTTI Complete Object Locator'
	DD	00H
	DD	00H
	DD	FLAT:??_R0?AVlength_error@std@@@8
	DD	FLAT:??_R3length_error@std@@8
rdata$r	ENDS
;	COMDAT ??_R3length_error@std@@8
rdata$r	SEGMENT
??_R3length_error@std@@8 DD 00H				; std::length_error::`RTTI Class Hierarchy Descriptor'
	DD	00H
	DD	03H
	DD	FLAT:??_R2length_error@std@@8
rdata$r	ENDS
;	COMDAT ??_R2length_error@std@@8
rdata$r	SEGMENT
??_R2length_error@std@@8 DD FLAT:??_R1A@?0A@A@length_error@std@@8 ; std::length_error::`RTTI Base Class Array'
	DD	FLAT:??_R1A@?0A@A@logic_error@std@@8
	DD	FLAT:??_R1A@?0A@A@exception@@8
rdata$r	ENDS
;	COMDAT ??_R1A@?0A@A@length_error@std@@8
rdata$r	SEGMENT
??_R1A@?0A@A@length_error@std@@8 DD FLAT:??_R0?AVlength_error@std@@@8 ; std::length_error::`RTTI Base Class Descriptor at (0,-1,0,0)'
	DD	02H
	DD	00H
	DD	0ffffffffH
	DD	00H
	DD	00H
rdata$r	ENDS
;	COMDAT ??_R1A@?0A@A@logic_error@std@@8
rdata$r	SEGMENT
??_R1A@?0A@A@logic_error@std@@8 DD FLAT:??_R0?AVlogic_error@std@@@8 ; std::logic_error::`RTTI Base Class Descriptor at (0,-1,0,0)'
	DD	01H
	DD	00H
	DD	0ffffffffH
	DD	00H
	DD	00H
rdata$r	ENDS
;	COMDAT ??_R1A@?0A@A@exception@@8
rdata$r	SEGMENT
??_R1A@?0A@A@exception@@8 DD FLAT:??_R0?AVexception@@@8	; exception::`RTTI Base Class Descriptor at (0,-1,0,0)'
	DD	00H
	DD	00H
	DD	0ffffffffH
	DD	00H
	DD	00H
; Function compile flags: /Odt
rdata$r	ENDS
;	COMDAT ??0length_error@std@@QAE@ABV01@@Z
_TEXT	SEGMENT
_this$ = -4						; size = 4
___that$ = 8						; size = 4
??0length_error@std@@QAE@ABV01@@Z PROC NEAR		; std::length_error::length_error, COMDAT
; _this$ = ecx
  00000	55		 push	 ebp
  00001	8b ec		 mov	 ebp, esp
  00003	51		 push	 ecx
  00004	89 4d fc	 mov	 DWORD PTR _this$[ebp], ecx
  00007	8b 45 08	 mov	 eax, DWORD PTR ___that$[ebp]
  0000a	50		 push	 eax
  0000b	8b 4d fc	 mov	 ecx, DWORD PTR _this$[ebp]
  0000e	e8 00 00 00 00	 call	 ??0logic_error@std@@QAE@ABV01@@Z
  00013	8b 4d fc	 mov	 ecx, DWORD PTR _this$[ebp]
  00016	c7 01 00 00 00
	00		 mov	 DWORD PTR [ecx], OFFSET FLAT:??_7length_error@std@@6B@
  0001c	8b 45 fc	 mov	 eax, DWORD PTR _this$[ebp]
  0001f	8b e5		 mov	 esp, ebp
  00021	5d		 pop	 ebp
  00022	c2 04 00	 ret	 4
??0length_error@std@@QAE@ABV01@@Z ENDP			; std::length_error::length_error
; Function compile flags: /Odt
_TEXT	ENDS
;	COMDAT ?_Color@?$_Tree@V?$_Tmap_traits@HPAVBaseDialog@@U?$less@H@std@@V?$allocator@U?$pair@$$CBHPAVBaseDialog@@@std@@@3@$0A@@std@@@std@@KAAADPAU_Node@?$_Tree_nod@V?$_Tmap_traits@HPAVBaseDialog@@U?$less@H@std@@V?$allocator@U?$pair@$$CBHPAVBaseDialog@@@std@@@3@$0A@@std@@@2@@Z
_TEXT	SEGMENT
__Pnode$ = 8						; size = 4
?_Color@?$_Tree@V?$_Tmap_traits@HPAVBaseDialog@@U?$less@H@std@@V?$allocator@U?$pair@$$CBHPAVBaseDialog@@@std@@@3@$0A@@std@@@std@@KAAADPAU_Node@?$_Tree_nod@V?$_Tmap_traits@HPAVBaseDialog@@U?$less@H@std@@V?$allocator@U?$pair@$$CBHPAVBaseDialog@@@std@@@3@$0A@@std@@@2@@Z PROC NEAR ; std::_Tree<std::_Tmap_traits<int,BaseDialog *,std::less<int>,std::allocator<std::pair<int const ,BaseDialog *> >,0> >::_Color, COMDAT

; 131  : 		{	// return reference to color in node

  00000	55		 push	 ebp
  00001	8b ec		 mov	 ebp, esp

; 132  : 		return ((_Charref)(*_Pnode)._Color);

  00003	8b 45 08	 mov	 eax, DWORD PTR __Pnode$[ebp]
  00006	83 c0 14	 add	 eax, 20			; 00000014H

; 133  : 		}

  00009	5d		 pop	 ebp
  0000a	c3		 ret	 0
?_Color@?$_Tree@V?$_Tmap_traits@HPAVBaseDialog@@U?$less@H@std@@V?$allocator@U?$pair@$$CBHPAVBaseDialog@@@std@@@3@$0A@@std@@@std@@KAAADPAU_Node@?$_Tree_nod@V?$_Tmap_traits@HPAVBaseDialog@@U?$less@H@std@@V?$allocator@U?$pair@$$CBHPAVBaseDialog@@@std@@@3@$0A@@std@@@2@@Z ENDP ; std::_Tree<std::_Tmap_traits<int,BaseDialog *,std::less<int>,std::allocator<std::pair<int const ,BaseDialog *> >,0> >::_Color
_TEXT	ENDS
PUBLIC	?max_size@?$allocator@U?$pair@$$CBHPAVBaseDialog@@@std@@@std@@QBEIXZ ; std::allocator<std::pair<int const ,BaseDialog *> >::max_size
; Function compile flags: /Odt
;	COMDAT ?max_size@?$_Tree@V?$_Tmap_traits@HPAVBaseDialog@@U?$less@H@std@@V?$allocator@U?$pair@$$CBHPAVBaseDialog@@@std@@@3@$0A@@std@@@std@@QBEIXZ
_TEXT	SEGMENT
_this$ = -4						; size = 4
?max_size@?$_Tree@V?$_Tmap_traits@HPAVBaseDialog@@U?$less@H@std@@V?$allocator@U?$pair@$$CBHPAVBaseDialog@@@std@@@3@$0A@@std@@@std@@QBEIXZ PROC NEAR ; std::_Tree<std::_Tmap_traits<int,BaseDialog *,std::less<int>,std::allocator<std::pair<int const ,BaseDialog *> >,0> >::max_size, COMDAT
; _this$ = ecx

; 452  : 		{	// return maximum possible length of sequence

  00000	55		 push	 ebp
  00001	8b ec		 mov	 ebp, esp
  00003	51		 push	 ecx
  00004	89 4d fc	 mov	 DWORD PTR _this$[ebp], ecx

; 453  : 		return (this->_Alval.max_size());

  00007	8b 4d fc	 mov	 ecx, DWORD PTR _this$[ebp]
  0000a	83 c1 03	 add	 ecx, 3
  0000d	e8 00 00 00 00	 call	 ?max_size@?$allocator@U?$pair@$$CBHPAVBaseDialog@@@std@@@std@@QBEIXZ ; std::allocator<std::pair<int const ,BaseDialog *> >::max_size

; 454  : 		}

  00012	8b e5		 mov	 esp, ebp
  00014	5d		 pop	 ebp
  00015	c3		 ret	 0
?max_size@?$_Tree@V?$_Tmap_traits@HPAVBaseDialog@@U?$less@H@std@@V?$allocator@U?$pair@$$CBHPAVBaseDialog@@@std@@@3@$0A@@std@@@std@@QBEIXZ ENDP ; std::_Tree<std::_Tmap_traits<int,BaseDialog *,std::less<int>,std::allocator<std::pair<int const ,BaseDialog *> >,0> >::max_size
_TEXT	ENDS
PUBLIC	__TI3?AVout_of_range@std@@
PUBLIC	__CTA3?AVout_of_range@std@@
PUBLIC	??_R0?AVout_of_range@std@@@8			; std::out_of_range `RTTI Type Descriptor'
PUBLIC	__CT??_R0?AVout_of_range@std@@@8??0out_of_range@std@@QAE@ABV01@@Z40
PUBLIC	??_C@_0BM@PAPJHAGI@invalid?5map?1set?$DMT?$DO?5iterator?$AA@ ; `string'
PUBLIC	??$swap@D@std@@YAXAAD0@Z			; std::swap<char>
PUBLIC	?destroy@?$allocator@U_Node@?$_Tree_nod@V?$_Tmap_traits@HPAVBaseDialog@@U?$less@H@std@@V?$allocator@U?$pair@$$CBHPAVBaseDialog@@@std@@@3@$0A@@std@@@std@@@std@@QAEXPAU_Node@?$_Tree_nod@V?$_Tmap_traits@HPAVBaseDialog@@U?$less@H@std@@V?$allocator@U?$pair@$$CBHPAVBaseDialog@@@std@@@3@$0A@@std@@@2@@Z ; std::allocator<std::_Tree_nod<std::_Tmap_traits<int,BaseDialog *,std::less<int>,std::allocator<std::pair<int const ,BaseDialog *> >,0> >::_Node>::destroy
PUBLIC	?_Max@?$_Tree@V?$_Tmap_traits@HPAVBaseDialog@@U?$less@H@std@@V?$allocator@U?$pair@$$CBHPAVBaseDialog@@@std@@@3@$0A@@std@@@std@@KAPAU_Node@?$_Tree_nod@V?$_Tmap_traits@HPAVBaseDialog@@U?$less@H@std@@V?$allocator@U?$pair@$$CBHPAVBaseDialog@@@std@@@3@$0A@@std@@@2@PAU342@@Z ; std::_Tree<std::_Tmap_traits<int,BaseDialog *,std::less<int>,std::allocator<std::pair<int const ,BaseDialog *> >,0> >::_Max
PUBLIC	?_Min@?$_Tree@V?$_Tmap_traits@HPAVBaseDialog@@U?$less@H@std@@V?$allocator@U?$pair@$$CBHPAVBaseDialog@@@std@@@3@$0A@@std@@@std@@KAPAU_Node@?$_Tree_nod@V?$_Tmap_traits@HPAVBaseDialog@@U?$less@H@std@@V?$allocator@U?$pair@$$CBHPAVBaseDialog@@@std@@@3@$0A@@std@@@2@PAU342@@Z ; std::_Tree<std::_Tmap_traits<int,BaseDialog *,std::less<int>,std::allocator<std::pair<int const ,BaseDialog *> >,0> >::_Min
PUBLIC	??0out_of_range@std@@QAE@ABV?$basic_string@DU?$char_traits@D@std@@V?$allocator@D@2@@1@@Z ; std::out_of_range::out_of_range
PUBLIC	??1out_of_range@std@@UAE@XZ			; std::out_of_range::~out_of_range
PUBLIC	??0out_of_range@std@@QAE@ABV01@@Z		; std::out_of_range::out_of_range
;	COMDAT xdata$x
xdata$x	SEGMENT
$T200010 DD	0ffffffffH
	DD	FLAT:$L200006
$T200008 DD	019930520H
	DD	01H
	DD	FLAT:$T200010
	DD	2 DUP(00H)
	DD	2 DUP(00H)
xdata$x	ENDS
;	COMDAT ??_C@_0BM@PAPJHAGI@invalid?5map?1set?$DMT?$DO?5iterator?$AA@
CONST	SEGMENT
??_C@_0BM@PAPJHAGI@invalid?5map?1set?$DMT?$DO?5iterator?$AA@ DB 'invalid '
	DB	'map/set<T> iterator', 00H			; `string'
CONST	ENDS
;	COMDAT __TI3?AVout_of_range@std@@
xdata$x	SEGMENT
__TI3?AVout_of_range@std@@ DD 00H
	DD	FLAT:??1out_of_range@std@@UAE@XZ
	DD	00H
	DD	FLAT:__CTA3?AVout_of_range@std@@
xdata$x	ENDS
;	COMDAT __CTA3?AVout_of_range@std@@
xdata$x	SEGMENT
__CTA3?AVout_of_range@std@@ DD 03H
	DD	FLAT:__CT??_R0?AVout_of_range@std@@@8??0out_of_range@std@@QAE@ABV01@@Z40
	DD	FLAT:__CT??_R0?AVlogic_error@std@@@8??0logic_error@std@@QAE@ABV01@@Z40
	DD	FLAT:__CT??_R0?AVexception@@@8??0exception@@QAE@ABV0@@Z12
xdata$x	ENDS
;	COMDAT __CT??_R0?AVout_of_range@std@@@8??0out_of_range@std@@QAE@ABV01@@Z40
xdata$x	SEGMENT
__CT??_R0?AVout_of_range@std@@@8??0out_of_range@std@@QAE@ABV01@@Z40 DD 00H
	DD	FLAT:??_R0?AVout_of_range@std@@@8
	DD	00H
	DD	0ffffffffH
	ORG $+4
	DD	028H
	DD	FLAT:??0out_of_range@std@@QAE@ABV01@@Z
xdata$x	ENDS
;	COMDAT ??_R0?AVout_of_range@std@@@8
_DATA	SEGMENT
??_R0?AVout_of_range@std@@@8 DD FLAT:??_7type_info@@6B@	; std::out_of_range `RTTI Type Descriptor'
	DD	00H
	DB	'.?AVout_of_range@std@@', 00H
; Function compile flags: /Odt
_DATA	ENDS
;	COMDAT ?erase@?$_Tree@V?$_Tmap_traits@HPAVBaseDialog@@U?$less@H@std@@V?$allocator@U?$pair@$$CBHPAVBaseDialog@@@std@@@3@$0A@@std@@@std@@QAE?AViterator@12@V312@@Z
_TEXT	SEGMENT
tv177 = -108						; size = 4
tv165 = -104						; size = 4
_this$ = -100						; size = 4
$T200001 = -96						; size = 28
$T200000 = -68						; size = 40
__Fixnodeparent$ = -28					; size = 4
__Pnode$ = -24						; size = 4
__Fixnode$ = -20					; size = 4
__Erasednode$ = -16					; size = 4
__$EHRec$ = -12						; size = 12
___$ReturnUdt$ = 8					; size = 4
__Where$ = 12						; size = 4
?erase@?$_Tree@V?$_Tmap_traits@HPAVBaseDialog@@U?$less@H@std@@V?$allocator@U?$pair@$$CBHPAVBaseDialog@@@std@@@3@$0A@@std@@@std@@QAE?AViterator@12@V312@@Z PROC NEAR ; std::_Tree<std::_Tmap_traits<int,BaseDialog *,std::less<int>,std::allocator<std::pair<int const ,BaseDialog *> >,0> >::erase, COMDAT
; _this$ = ecx

; 590  : 		{	// erase element at _Where

  00000	55		 push	 ebp
  00001	8b ec		 mov	 ebp, esp
  00003	6a ff		 push	 -1
  00005	68 00 00 00 00	 push	 __ehhandler$?erase@?$_Tree@V?$_Tmap_traits@HPAVBaseDialog@@U?$less@H@std@@V?$allocator@U?$pair@$$CBHPAVBaseDialog@@@std@@@3@$0A@@std@@@std@@QAE?AViterator@12@V312@@Z
  0000a	64 a1 00 00 00
	00		 mov	 eax, DWORD PTR fs:__except_list
  00010	50		 push	 eax
  00011	64 89 25 00 00
	00 00		 mov	 DWORD PTR fs:__except_list, esp
  00018	83 ec 60	 sub	 esp, 96			; 00000060H
  0001b	56		 push	 esi
  0001c	89 4d 9c	 mov	 DWORD PTR _this$[ebp], ecx

; 591  : 		if (_Isnil(_Where._Mynode()))

  0001f	8d 4d 0c	 lea	 ecx, DWORD PTR __Where$[ebp]
  00022	e8 00 00 00 00	 call	 ?_Mynode@const_iterator@?$_Tree@V?$_Tmap_traits@HPAVBaseDialog@@U?$less@H@std@@V?$allocator@U?$pair@$$CBHPAVBaseDialog@@@std@@@3@$0A@@std@@@std@@QBEPAU_Node@?$_Tree_nod@V?$_Tmap_traits@HPAVBaseDialog@@U?$less@H@std@@V?$allocator@U?$pair@$$CBHPAVBaseDialog@@@std@@@3@$0A@@std@@@3@XZ ; std::_Tree<std::_Tmap_traits<int,BaseDialog *,std::less<int>,std::allocator<std::pair<int const ,BaseDialog *> >,0> >::const_iterator::_Mynode
  00027	50		 push	 eax
  00028	e8 00 00 00 00	 call	 ?_Isnil@?$_Tree@V?$_Tmap_traits@HPAVBaseDialog@@U?$less@H@std@@V?$allocator@U?$pair@$$CBHPAVBaseDialog@@@std@@@3@$0A@@std@@@std@@KAAADPAU_Node@?$_Tree_nod@V?$_Tmap_traits@HPAVBaseDialog@@U?$less@H@std@@V?$allocator@U?$pair@$$CBHPAVBaseDialog@@@std@@@3@$0A@@std@@@2@@Z ; std::_Tree<std::_Tmap_traits<int,BaseDialog *,std::less<int>,std::allocator<std::pair<int const ,BaseDialog *> >,0> >::_Isnil
  0002d	83 c4 04	 add	 esp, 4
  00030	0f be 00	 movsx	 eax, BYTE PTR [eax]
  00033	85 c0		 test	 eax, eax
  00035	74 2f		 je	 SHORT $L199043

; 592  : 			_THROW(out_of_range, "invalid map/set<T> iterator");

  00037	68 00 00 00 00	 push	 OFFSET FLAT:??_C@_0BM@PAPJHAGI@invalid?5map?1set?$DMT?$DO?5iterator?$AA@
  0003c	8d 4d a0	 lea	 ecx, DWORD PTR $T200001[ebp]
  0003f	ff 15 00 00 00
	00		 call	 DWORD PTR __imp_??0?$basic_string@DU?$char_traits@D@std@@V?$allocator@D@2@@std@@QAE@PBD@Z
  00045	c7 45 fc 00 00
	00 00		 mov	 DWORD PTR __$EHRec$[ebp+8], 0
  0004c	8d 4d a0	 lea	 ecx, DWORD PTR $T200001[ebp]
  0004f	51		 push	 ecx
  00050	8d 4d bc	 lea	 ecx, DWORD PTR $T200000[ebp]
  00053	e8 00 00 00 00	 call	 ??0out_of_range@std@@QAE@ABV?$basic_string@DU?$char_traits@D@std@@V?$allocator@D@2@@1@@Z ; std::out_of_range::out_of_range
  00058	68 00 00 00 00	 push	 OFFSET FLAT:__TI3?AVout_of_range@std@@
  0005d	8d 55 bc	 lea	 edx, DWORD PTR $T200000[ebp]
  00060	52		 push	 edx
  00061	e8 00 00 00 00	 call	 __CxxThrowException@8
$L199043:

; 593  : 		_Nodeptr _Erasednode = _Where._Mynode();	// node to erase

  00066	8d 4d 0c	 lea	 ecx, DWORD PTR __Where$[ebp]
  00069	e8 00 00 00 00	 call	 ?_Mynode@const_iterator@?$_Tree@V?$_Tmap_traits@HPAVBaseDialog@@U?$less@H@std@@V?$allocator@U?$pair@$$CBHPAVBaseDialog@@@std@@@3@$0A@@std@@@std@@QBEPAU_Node@?$_Tree_nod@V?$_Tmap_traits@HPAVBaseDialog@@U?$less@H@std@@V?$allocator@U?$pair@$$CBHPAVBaseDialog@@@std@@@3@$0A@@std@@@3@XZ ; std::_Tree<std::_Tmap_traits<int,BaseDialog *,std::less<int>,std::allocator<std::pair<int const ,BaseDialog *> >,0> >::const_iterator::_Mynode
  0006e	89 45 f0	 mov	 DWORD PTR __Erasednode$[ebp], eax

; 594  : 		++_Where;	// save successor iterator for return

  00071	8d 4d 0c	 lea	 ecx, DWORD PTR __Where$[ebp]
  00074	e8 00 00 00 00	 call	 ??Eiterator@?$_Tree@V?$_Tmap_traits@HPAVBaseDialog@@U?$less@H@std@@V?$allocator@U?$pair@$$CBHPAVBaseDialog@@@std@@@3@$0A@@std@@@std@@QAEAAV012@XZ ; std::_Tree<std::_Tmap_traits<int,BaseDialog *,std::less<int>,std::allocator<std::pair<int const ,BaseDialog *> >,0> >::iterator::operator++

; 595  : 
; 596  : 		_Nodeptr _Fixnode;	// the node to recolor as needed
; 597  : 		_Nodeptr _Fixnodeparent;	// parent of _Fixnode (which may be nil)
; 598  : 		_Nodeptr _Pnode = _Erasednode;

  00079	8b 45 f0	 mov	 eax, DWORD PTR __Erasednode$[ebp]
  0007c	89 45 e8	 mov	 DWORD PTR __Pnode$[ebp], eax

; 599  : 
; 600  : 		if (_Isnil(_Left(_Pnode)))

  0007f	8b 4d e8	 mov	 ecx, DWORD PTR __Pnode$[ebp]
  00082	51		 push	 ecx
  00083	e8 00 00 00 00	 call	 ?_Left@?$_Tree@V?$_Tmap_traits@HPAVBaseDialog@@U?$less@H@std@@V?$allocator@U?$pair@$$CBHPAVBaseDialog@@@std@@@3@$0A@@std@@@std@@KAAAPAU_Node@?$_Tree_nod@V?$_Tmap_traits@HPAVBaseDialog@@U?$less@H@std@@V?$allocator@U?$pair@$$CBHPAVBaseDialog@@@std@@@3@$0A@@std@@@2@PAU342@@Z ; std::_Tree<std::_Tmap_traits<int,BaseDialog *,std::less<int>,std::allocator<std::pair<int const ,BaseDialog *> >,0> >::_Left
  00088	83 c4 04	 add	 esp, 4
  0008b	8b 10		 mov	 edx, DWORD PTR [eax]
  0008d	52		 push	 edx
  0008e	e8 00 00 00 00	 call	 ?_Isnil@?$_Tree@V?$_Tmap_traits@HPAVBaseDialog@@U?$less@H@std@@V?$allocator@U?$pair@$$CBHPAVBaseDialog@@@std@@@3@$0A@@std@@@std@@KAAADPAU_Node@?$_Tree_nod@V?$_Tmap_traits@HPAVBaseDialog@@U?$less@H@std@@V?$allocator@U?$pair@$$CBHPAVBaseDialog@@@std@@@3@$0A@@std@@@2@@Z ; std::_Tree<std::_Tmap_traits<int,BaseDialog *,std::less<int>,std::allocator<std::pair<int const ,BaseDialog *> >,0> >::_Isnil
  00093	83 c4 04	 add	 esp, 4
  00096	0f be 00	 movsx	 eax, BYTE PTR [eax]
  00099	85 c0		 test	 eax, eax
  0009b	74 13		 je	 SHORT $L199051

; 601  : 			_Fixnode = _Right(_Pnode);	// must stitch up right subtree

  0009d	8b 4d e8	 mov	 ecx, DWORD PTR __Pnode$[ebp]
  000a0	51		 push	 ecx
  000a1	e8 00 00 00 00	 call	 ?_Right@?$_Tree@V?$_Tmap_traits@HPAVBaseDialog@@U?$less@H@std@@V?$allocator@U?$pair@$$CBHPAVBaseDialog@@@std@@@3@$0A@@std@@@std@@KAAAPAU_Node@?$_Tree_nod@V?$_Tmap_traits@HPAVBaseDialog@@U?$less@H@std@@V?$allocator@U?$pair@$$CBHPAVBaseDialog@@@std@@@3@$0A@@std@@@2@PAU342@@Z ; std::_Tree<std::_Tmap_traits<int,BaseDialog *,std::less<int>,std::allocator<std::pair<int const ,BaseDialog *> >,0> >::_Right
  000a6	83 c4 04	 add	 esp, 4
  000a9	8b 10		 mov	 edx, DWORD PTR [eax]
  000ab	89 55 ec	 mov	 DWORD PTR __Fixnode$[ebp], edx

; 602  : 		else if (_Isnil(_Right(_Pnode)))

  000ae	eb 4d		 jmp	 SHORT $L199052
$L199051:
  000b0	8b 45 e8	 mov	 eax, DWORD PTR __Pnode$[ebp]
  000b3	50		 push	 eax
  000b4	e8 00 00 00 00	 call	 ?_Right@?$_Tree@V?$_Tmap_traits@HPAVBaseDialog@@U?$less@H@std@@V?$allocator@U?$pair@$$CBHPAVBaseDialog@@@std@@@3@$0A@@std@@@std@@KAAAPAU_Node@?$_Tree_nod@V?$_Tmap_traits@HPAVBaseDialog@@U?$less@H@std@@V?$allocator@U?$pair@$$CBHPAVBaseDialog@@@std@@@3@$0A@@std@@@2@PAU342@@Z ; std::_Tree<std::_Tmap_traits<int,BaseDialog *,std::less<int>,std::allocator<std::pair<int const ,BaseDialog *> >,0> >::_Right
  000b9	83 c4 04	 add	 esp, 4
  000bc	8b 08		 mov	 ecx, DWORD PTR [eax]
  000be	51		 push	 ecx
  000bf	e8 00 00 00 00	 call	 ?_Isnil@?$_Tree@V?$_Tmap_traits@HPAVBaseDialog@@U?$less@H@std@@V?$allocator@U?$pair@$$CBHPAVBaseDialog@@@std@@@3@$0A@@std@@@std@@KAAADPAU_Node@?$_Tree_nod@V?$_Tmap_traits@HPAVBaseDialog@@U?$less@H@std@@V?$allocator@U?$pair@$$CBHPAVBaseDialog@@@std@@@3@$0A@@std@@@2@@Z ; std::_Tree<std::_Tmap_traits<int,BaseDialog *,std::less<int>,std::allocator<std::pair<int const ,BaseDialog *> >,0> >::_Isnil
  000c4	83 c4 04	 add	 esp, 4
  000c7	0f be 10	 movsx	 edx, BYTE PTR [eax]
  000ca	85 d2		 test	 edx, edx
  000cc	74 13		 je	 SHORT $L199053

; 603  : 			_Fixnode = _Left(_Pnode);	// must stitch up left subtree

  000ce	8b 45 e8	 mov	 eax, DWORD PTR __Pnode$[ebp]
  000d1	50		 push	 eax
  000d2	e8 00 00 00 00	 call	 ?_Left@?$_Tree@V?$_Tmap_traits@HPAVBaseDialog@@U?$less@H@std@@V?$allocator@U?$pair@$$CBHPAVBaseDialog@@@std@@@3@$0A@@std@@@std@@KAAAPAU_Node@?$_Tree_nod@V?$_Tmap_traits@HPAVBaseDialog@@U?$less@H@std@@V?$allocator@U?$pair@$$CBHPAVBaseDialog@@@std@@@3@$0A@@std@@@2@PAU342@@Z ; std::_Tree<std::_Tmap_traits<int,BaseDialog *,std::less<int>,std::allocator<std::pair<int const ,BaseDialog *> >,0> >::_Left
  000d7	83 c4 04	 add	 esp, 4
  000da	8b 08		 mov	 ecx, DWORD PTR [eax]
  000dc	89 4d ec	 mov	 DWORD PTR __Fixnode$[ebp], ecx

; 604  : 		else

  000df	eb 1c		 jmp	 SHORT $L199052
$L199053:

; 605  : 			{	// two subtrees, must lift successor node to replace erased
; 606  : 			_Pnode = _Where._Mynode();	// _Pnode is successor node

  000e1	8d 4d 0c	 lea	 ecx, DWORD PTR __Where$[ebp]
  000e4	e8 00 00 00 00	 call	 ?_Mynode@const_iterator@?$_Tree@V?$_Tmap_traits@HPAVBaseDialog@@U?$less@H@std@@V?$allocator@U?$pair@$$CBHPAVBaseDialog@@@std@@@3@$0A@@std@@@std@@QBEPAU_Node@?$_Tree_nod@V?$_Tmap_traits@HPAVBaseDialog@@U?$less@H@std@@V?$allocator@U?$pair@$$CBHPAVBaseDialog@@@std@@@3@$0A@@std@@@3@XZ ; std::_Tree<std::_Tmap_traits<int,BaseDialog *,std::less<int>,std::allocator<std::pair<int const ,BaseDialog *> >,0> >::const_iterator::_Mynode
  000e9	89 45 e8	 mov	 DWORD PTR __Pnode$[ebp], eax

; 607  : 			_Fixnode = _Right(_Pnode);	// _Fixnode is its only subtree

  000ec	8b 55 e8	 mov	 edx, DWORD PTR __Pnode$[ebp]
  000ef	52		 push	 edx
  000f0	e8 00 00 00 00	 call	 ?_Right@?$_Tree@V?$_Tmap_traits@HPAVBaseDialog@@U?$less@H@std@@V?$allocator@U?$pair@$$CBHPAVBaseDialog@@@std@@@3@$0A@@std@@@std@@KAAAPAU_Node@?$_Tree_nod@V?$_Tmap_traits@HPAVBaseDialog@@U?$less@H@std@@V?$allocator@U?$pair@$$CBHPAVBaseDialog@@@std@@@3@$0A@@std@@@2@PAU342@@Z ; std::_Tree<std::_Tmap_traits<int,BaseDialog *,std::less<int>,std::allocator<std::pair<int const ,BaseDialog *> >,0> >::_Right
  000f5	83 c4 04	 add	 esp, 4
  000f8	8b 00		 mov	 eax, DWORD PTR [eax]
  000fa	89 45 ec	 mov	 DWORD PTR __Fixnode$[ebp], eax
$L199052:

; 608  : 			}
; 609  : 
; 610  : 		if (_Pnode == _Erasednode)

  000fd	8b 4d e8	 mov	 ecx, DWORD PTR __Pnode$[ebp]
  00100	3b 4d f0	 cmp	 ecx, DWORD PTR __Erasednode$[ebp]
  00103	0f 85 1b 01 00
	00		 jne	 $L199055

; 611  : 			{	// at most one subtree, relink it
; 612  : 			_Fixnodeparent = _Parent(_Erasednode);

  00109	8b 55 f0	 mov	 edx, DWORD PTR __Erasednode$[ebp]
  0010c	52		 push	 edx
  0010d	e8 00 00 00 00	 call	 ?_Parent@?$_Tree@V?$_Tmap_traits@HPAVBaseDialog@@U?$less@H@std@@V?$allocator@U?$pair@$$CBHPAVBaseDialog@@@std@@@3@$0A@@std@@@std@@KAAAPAU_Node@?$_Tree_nod@V?$_Tmap_traits@HPAVBaseDialog@@U?$less@H@std@@V?$allocator@U?$pair@$$CBHPAVBaseDialog@@@std@@@3@$0A@@std@@@2@PAU342@@Z ; std::_Tree<std::_Tmap_traits<int,BaseDialog *,std::less<int>,std::allocator<std::pair<int const ,BaseDialog *> >,0> >::_Parent
  00112	83 c4 04	 add	 esp, 4
  00115	8b 00		 mov	 eax, DWORD PTR [eax]
  00117	89 45 e4	 mov	 DWORD PTR __Fixnodeparent$[ebp], eax

; 613  : 			if (!_Isnil(_Fixnode))

  0011a	8b 4d ec	 mov	 ecx, DWORD PTR __Fixnode$[ebp]
  0011d	51		 push	 ecx
  0011e	e8 00 00 00 00	 call	 ?_Isnil@?$_Tree@V?$_Tmap_traits@HPAVBaseDialog@@U?$less@H@std@@V?$allocator@U?$pair@$$CBHPAVBaseDialog@@@std@@@3@$0A@@std@@@std@@KAAADPAU_Node@?$_Tree_nod@V?$_Tmap_traits@HPAVBaseDialog@@U?$less@H@std@@V?$allocator@U?$pair@$$CBHPAVBaseDialog@@@std@@@3@$0A@@std@@@2@@Z ; std::_Tree<std::_Tmap_traits<int,BaseDialog *,std::less<int>,std::allocator<std::pair<int const ,BaseDialog *> >,0> >::_Isnil
  00123	83 c4 04	 add	 esp, 4
  00126	0f be 10	 movsx	 edx, BYTE PTR [eax]
  00129	85 d2		 test	 edx, edx
  0012b	75 11		 jne	 SHORT $L199056

; 614  : 				_Parent(_Fixnode) = _Fixnodeparent;	// link up

  0012d	8b 45 ec	 mov	 eax, DWORD PTR __Fixnode$[ebp]
  00130	50		 push	 eax
  00131	e8 00 00 00 00	 call	 ?_Parent@?$_Tree@V?$_Tmap_traits@HPAVBaseDialog@@U?$less@H@std@@V?$allocator@U?$pair@$$CBHPAVBaseDialog@@@std@@@3@$0A@@std@@@std@@KAAAPAU_Node@?$_Tree_nod@V?$_Tmap_traits@HPAVBaseDialog@@U?$less@H@std@@V?$allocator@U?$pair@$$CBHPAVBaseDialog@@@std@@@3@$0A@@std@@@2@PAU342@@Z ; std::_Tree<std::_Tmap_traits<int,BaseDialog *,std::less<int>,std::allocator<std::pair<int const ,BaseDialog *> >,0> >::_Parent
  00136	83 c4 04	 add	 esp, 4
  00139	8b 4d e4	 mov	 ecx, DWORD PTR __Fixnodeparent$[ebp]
  0013c	89 08		 mov	 DWORD PTR [eax], ecx
$L199056:

; 615  : 
; 616  : 			if (_Root() == _Erasednode)

  0013e	8b 4d 9c	 mov	 ecx, DWORD PTR _this$[ebp]
  00141	e8 00 00 00 00	 call	 ?_Root@?$_Tree@V?$_Tmap_traits@HPAVBaseDialog@@U?$less@H@std@@V?$allocator@U?$pair@$$CBHPAVBaseDialog@@@std@@@3@$0A@@std@@@std@@IAEAAPAU_Node@?$_Tree_nod@V?$_Tmap_traits@HPAVBaseDialog@@U?$less@H@std@@V?$allocator@U?$pair@$$CBHPAVBaseDialog@@@std@@@3@$0A@@std@@@2@XZ ; std::_Tree<std::_Tmap_traits<int,BaseDialog *,std::less<int>,std::allocator<std::pair<int const ,BaseDialog *> >,0> >::_Root
  00146	8b 10		 mov	 edx, DWORD PTR [eax]
  00148	3b 55 f0	 cmp	 edx, DWORD PTR __Erasednode$[ebp]
  0014b	75 0f		 jne	 SHORT $L199057

; 617  : 				_Root() = _Fixnode;	// link down from root

  0014d	8b 4d 9c	 mov	 ecx, DWORD PTR _this$[ebp]
  00150	e8 00 00 00 00	 call	 ?_Root@?$_Tree@V?$_Tmap_traits@HPAVBaseDialog@@U?$less@H@std@@V?$allocator@U?$pair@$$CBHPAVBaseDialog@@@std@@@3@$0A@@std@@@std@@IAEAAPAU_Node@?$_Tree_nod@V?$_Tmap_traits@HPAVBaseDialog@@U?$less@H@std@@V?$allocator@U?$pair@$$CBHPAVBaseDialog@@@std@@@3@$0A@@std@@@2@XZ ; std::_Tree<std::_Tmap_traits<int,BaseDialog *,std::less<int>,std::allocator<std::pair<int const ,BaseDialog *> >,0> >::_Root
  00155	8b 4d ec	 mov	 ecx, DWORD PTR __Fixnode$[ebp]
  00158	89 08		 mov	 DWORD PTR [eax], ecx

; 618  : 			else if (_Left(_Fixnodeparent) == _Erasednode)

  0015a	eb 37		 jmp	 SHORT $L199058
$L199057:
  0015c	8b 55 e4	 mov	 edx, DWORD PTR __Fixnodeparent$[ebp]
  0015f	52		 push	 edx
  00160	e8 00 00 00 00	 call	 ?_Left@?$_Tree@V?$_Tmap_traits@HPAVBaseDialog@@U?$less@H@std@@V?$allocator@U?$pair@$$CBHPAVBaseDialog@@@std@@@3@$0A@@std@@@std@@KAAAPAU_Node@?$_Tree_nod@V?$_Tmap_traits@HPAVBaseDialog@@U?$less@H@std@@V?$allocator@U?$pair@$$CBHPAVBaseDialog@@@std@@@3@$0A@@std@@@2@PAU342@@Z ; std::_Tree<std::_Tmap_traits<int,BaseDialog *,std::less<int>,std::allocator<std::pair<int const ,BaseDialog *> >,0> >::_Left
  00165	83 c4 04	 add	 esp, 4
  00168	8b 00		 mov	 eax, DWORD PTR [eax]
  0016a	3b 45 f0	 cmp	 eax, DWORD PTR __Erasednode$[ebp]
  0016d	75 13		 jne	 SHORT $L199059

; 619  : 				_Left(_Fixnodeparent) = _Fixnode;	// link down to left

  0016f	8b 4d e4	 mov	 ecx, DWORD PTR __Fixnodeparent$[ebp]
  00172	51		 push	 ecx
  00173	e8 00 00 00 00	 call	 ?_Left@?$_Tree@V?$_Tmap_traits@HPAVBaseDialog@@U?$less@H@std@@V?$allocator@U?$pair@$$CBHPAVBaseDialog@@@std@@@3@$0A@@std@@@std@@KAAAPAU_Node@?$_Tree_nod@V?$_Tmap_traits@HPAVBaseDialog@@U?$less@H@std@@V?$allocator@U?$pair@$$CBHPAVBaseDialog@@@std@@@3@$0A@@std@@@2@PAU342@@Z ; std::_Tree<std::_Tmap_traits<int,BaseDialog *,std::less<int>,std::allocator<std::pair<int const ,BaseDialog *> >,0> >::_Left
  00178	83 c4 04	 add	 esp, 4
  0017b	8b 55 ec	 mov	 edx, DWORD PTR __Fixnode$[ebp]
  0017e	89 10		 mov	 DWORD PTR [eax], edx

; 620  : 			else

  00180	eb 11		 jmp	 SHORT $L199058
$L199059:

; 621  : 				_Right(_Fixnodeparent) = _Fixnode;	// link down to right

  00182	8b 45 e4	 mov	 eax, DWORD PTR __Fixnodeparent$[ebp]
  00185	50		 push	 eax
  00186	e8 00 00 00 00	 call	 ?_Right@?$_Tree@V?$_Tmap_traits@HPAVBaseDialog@@U?$less@H@std@@V?$allocator@U?$pair@$$CBHPAVBaseDialog@@@std@@@3@$0A@@std@@@std@@KAAAPAU_Node@?$_Tree_nod@V?$_Tmap_traits@HPAVBaseDialog@@U?$less@H@std@@V?$allocator@U?$pair@$$CBHPAVBaseDialog@@@std@@@3@$0A@@std@@@2@PAU342@@Z ; std::_Tree<std::_Tmap_traits<int,BaseDialog *,std::less<int>,std::allocator<std::pair<int const ,BaseDialog *> >,0> >::_Right
  0018b	83 c4 04	 add	 esp, 4
  0018e	8b 4d ec	 mov	 ecx, DWORD PTR __Fixnode$[ebp]
  00191	89 08		 mov	 DWORD PTR [eax], ecx
$L199058:

; 622  : 
; 623  : 			if (_Lmost() == _Erasednode)

  00193	8b 4d 9c	 mov	 ecx, DWORD PTR _this$[ebp]
  00196	e8 00 00 00 00	 call	 ?_Lmost@?$_Tree@V?$_Tmap_traits@HPAVBaseDialog@@U?$less@H@std@@V?$allocator@U?$pair@$$CBHPAVBaseDialog@@@std@@@3@$0A@@std@@@std@@IAEAAPAU_Node@?$_Tree_nod@V?$_Tmap_traits@HPAVBaseDialog@@U?$less@H@std@@V?$allocator@U?$pair@$$CBHPAVBaseDialog@@@std@@@3@$0A@@std@@@2@XZ ; std::_Tree<std::_Tmap_traits<int,BaseDialog *,std::less<int>,std::allocator<std::pair<int const ,BaseDialog *> >,0> >::_Lmost
  0019b	8b 10		 mov	 edx, DWORD PTR [eax]
  0019d	3b 55 f0	 cmp	 edx, DWORD PTR __Erasednode$[ebp]
  001a0	75 37		 jne	 SHORT $L199061

; 624  : 				_Lmost() = _Isnil(_Fixnode)
; 625  : 					? _Fixnodeparent	// smallest is parent of erased node
; 626  : 					: _Min(_Fixnode);	// smallest in relinked subtree

  001a2	8b 45 ec	 mov	 eax, DWORD PTR __Fixnode$[ebp]
  001a5	50		 push	 eax
  001a6	e8 00 00 00 00	 call	 ?_Isnil@?$_Tree@V?$_Tmap_traits@HPAVBaseDialog@@U?$less@H@std@@V?$allocator@U?$pair@$$CBHPAVBaseDialog@@@std@@@3@$0A@@std@@@std@@KAAADPAU_Node@?$_Tree_nod@V?$_Tmap_traits@HPAVBaseDialog@@U?$less@H@std@@V?$allocator@U?$pair@$$CBHPAVBaseDialog@@@std@@@3@$0A@@std@@@2@@Z ; std::_Tree<std::_Tmap_traits<int,BaseDialog *,std::less<int>,std::allocator<std::pair<int const ,BaseDialog *> >,0> >::_Isnil
  001ab	83 c4 04	 add	 esp, 4
  001ae	0f be 08	 movsx	 ecx, BYTE PTR [eax]
  001b1	85 c9		 test	 ecx, ecx
  001b3	74 08		 je	 SHORT $L200002
  001b5	8b 55 e4	 mov	 edx, DWORD PTR __Fixnodeparent$[ebp]
  001b8	89 55 98	 mov	 DWORD PTR tv165[ebp], edx
  001bb	eb 0f		 jmp	 SHORT $L200003
$L200002:
  001bd	8b 45 ec	 mov	 eax, DWORD PTR __Fixnode$[ebp]
  001c0	50		 push	 eax
  001c1	e8 00 00 00 00	 call	 ?_Min@?$_Tree@V?$_Tmap_traits@HPAVBaseDialog@@U?$less@H@std@@V?$allocator@U?$pair@$$CBHPAVBaseDialog@@@std@@@3@$0A@@std@@@std@@KAPAU_Node@?$_Tree_nod@V?$_Tmap_traits@HPAVBaseDialog@@U?$less@H@std@@V?$allocator@U?$pair@$$CBHPAVBaseDialog@@@std@@@3@$0A@@std@@@2@PAU342@@Z ; std::_Tree<std::_Tmap_traits<int,BaseDialog *,std::less<int>,std::allocator<std::pair<int const ,BaseDialog *> >,0> >::_Min
  001c6	83 c4 04	 add	 esp, 4
  001c9	89 45 98	 mov	 DWORD PTR tv165[ebp], eax
$L200003:
  001cc	8b 4d 9c	 mov	 ecx, DWORD PTR _this$[ebp]
  001cf	e8 00 00 00 00	 call	 ?_Lmost@?$_Tree@V?$_Tmap_traits@HPAVBaseDialog@@U?$less@H@std@@V?$allocator@U?$pair@$$CBHPAVBaseDialog@@@std@@@3@$0A@@std@@@std@@IAEAAPAU_Node@?$_Tree_nod@V?$_Tmap_traits@HPAVBaseDialog@@U?$less@H@std@@V?$allocator@U?$pair@$$CBHPAVBaseDialog@@@std@@@3@$0A@@std@@@2@XZ ; std::_Tree<std::_Tmap_traits<int,BaseDialog *,std::less<int>,std::allocator<std::pair<int const ,BaseDialog *> >,0> >::_Lmost
  001d4	8b 4d 98	 mov	 ecx, DWORD PTR tv165[ebp]
  001d7	89 08		 mov	 DWORD PTR [eax], ecx
$L199061:

; 627  : 
; 628  : 			if (_Rmost() == _Erasednode)

  001d9	8b 4d 9c	 mov	 ecx, DWORD PTR _this$[ebp]
  001dc	e8 00 00 00 00	 call	 ?_Rmost@?$_Tree@V?$_Tmap_traits@HPAVBaseDialog@@U?$less@H@std@@V?$allocator@U?$pair@$$CBHPAVBaseDialog@@@std@@@3@$0A@@std@@@std@@IAEAAPAU_Node@?$_Tree_nod@V?$_Tmap_traits@HPAVBaseDialog@@U?$less@H@std@@V?$allocator@U?$pair@$$CBHPAVBaseDialog@@@std@@@3@$0A@@std@@@2@XZ ; std::_Tree<std::_Tmap_traits<int,BaseDialog *,std::less<int>,std::allocator<std::pair<int const ,BaseDialog *> >,0> >::_Rmost
  001e1	8b 10		 mov	 edx, DWORD PTR [eax]
  001e3	3b 55 f0	 cmp	 edx, DWORD PTR __Erasednode$[ebp]
  001e6	75 37		 jne	 SHORT $L199062

; 629  : 				_Rmost() = _Isnil(_Fixnode)
; 630  : 					? _Fixnodeparent	// largest is parent of erased node
; 631  : 					: _Max(_Fixnode);	// largest in relinked subtree

  001e8	8b 45 ec	 mov	 eax, DWORD PTR __Fixnode$[ebp]
  001eb	50		 push	 eax
  001ec	e8 00 00 00 00	 call	 ?_Isnil@?$_Tree@V?$_Tmap_traits@HPAVBaseDialog@@U?$less@H@std@@V?$allocator@U?$pair@$$CBHPAVBaseDialog@@@std@@@3@$0A@@std@@@std@@KAAADPAU_Node@?$_Tree_nod@V?$_Tmap_traits@HPAVBaseDialog@@U?$less@H@std@@V?$allocator@U?$pair@$$CBHPAVBaseDialog@@@std@@@3@$0A@@std@@@2@@Z ; std::_Tree<std::_Tmap_traits<int,BaseDialog *,std::less<int>,std::allocator<std::pair<int const ,BaseDialog *> >,0> >::_Isnil
  001f1	83 c4 04	 add	 esp, 4
  001f4	0f be 08	 movsx	 ecx, BYTE PTR [eax]
  001f7	85 c9		 test	 ecx, ecx
  001f9	74 08		 je	 SHORT $L200004
  001fb	8b 55 e4	 mov	 edx, DWORD PTR __Fixnodeparent$[ebp]
  001fe	89 55 94	 mov	 DWORD PTR tv177[ebp], edx
  00201	eb 0f		 jmp	 SHORT $L200005
$L200004:
  00203	8b 45 ec	 mov	 eax, DWORD PTR __Fixnode$[ebp]
  00206	50		 push	 eax
  00207	e8 00 00 00 00	 call	 ?_Max@?$_Tree@V?$_Tmap_traits@HPAVBaseDialog@@U?$less@H@std@@V?$allocator@U?$pair@$$CBHPAVBaseDialog@@@std@@@3@$0A@@std@@@std@@KAPAU_Node@?$_Tree_nod@V?$_Tmap_traits@HPAVBaseDialog@@U?$less@H@std@@V?$allocator@U?$pair@$$CBHPAVBaseDialog@@@std@@@3@$0A@@std@@@2@PAU342@@Z ; std::_Tree<std::_Tmap_traits<int,BaseDialog *,std::less<int>,std::allocator<std::pair<int const ,BaseDialog *> >,0> >::_Max
  0020c	83 c4 04	 add	 esp, 4
  0020f	89 45 94	 mov	 DWORD PTR tv177[ebp], eax
$L200005:
  00212	8b 4d 9c	 mov	 ecx, DWORD PTR _this$[ebp]
  00215	e8 00 00 00 00	 call	 ?_Rmost@?$_Tree@V?$_Tmap_traits@HPAVBaseDialog@@U?$less@H@std@@V?$allocator@U?$pair@$$CBHPAVBaseDialog@@@std@@@3@$0A@@std@@@std@@IAEAAPAU_Node@?$_Tree_nod@V?$_Tmap_traits@HPAVBaseDialog@@U?$less@H@std@@V?$allocator@U?$pair@$$CBHPAVBaseDialog@@@std@@@3@$0A@@std@@@2@XZ ; std::_Tree<std::_Tmap_traits<int,BaseDialog *,std::less<int>,std::allocator<std::pair<int const ,BaseDialog *> >,0> >::_Rmost
  0021a	8b 4d 94	 mov	 ecx, DWORD PTR tv177[ebp]
  0021d	89 08		 mov	 DWORD PTR [eax], ecx
$L199062:

; 632  : 			}
; 633  : 		else

  0021f	e9 8e 01 00 00	 jmp	 $L199063
$L199055:

; 634  : 			{	// erased has two subtrees, _Pnode is successor to erased
; 635  : 			_Parent(_Left(_Erasednode)) = _Pnode;	// link left up

  00224	8b 55 f0	 mov	 edx, DWORD PTR __Erasednode$[ebp]
  00227	52		 push	 edx
  00228	e8 00 00 00 00	 call	 ?_Left@?$_Tree@V?$_Tmap_traits@HPAVBaseDialog@@U?$less@H@std@@V?$allocator@U?$pair@$$CBHPAVBaseDialog@@@std@@@3@$0A@@std@@@std@@KAAAPAU_Node@?$_Tree_nod@V?$_Tmap_traits@HPAVBaseDialog@@U?$less@H@std@@V?$allocator@U?$pair@$$CBHPAVBaseDialog@@@std@@@3@$0A@@std@@@2@PAU342@@Z ; std::_Tree<std::_Tmap_traits<int,BaseDialog *,std::less<int>,std::allocator<std::pair<int const ,BaseDialog *> >,0> >::_Left
  0022d	83 c4 04	 add	 esp, 4
  00230	8b 00		 mov	 eax, DWORD PTR [eax]
  00232	50		 push	 eax
  00233	e8 00 00 00 00	 call	 ?_Parent@?$_Tree@V?$_Tmap_traits@HPAVBaseDialog@@U?$less@H@std@@V?$allocator@U?$pair@$$CBHPAVBaseDialog@@@std@@@3@$0A@@std@@@std@@KAAAPAU_Node@?$_Tree_nod@V?$_Tmap_traits@HPAVBaseDialog@@U?$less@H@std@@V?$allocator@U?$pair@$$CBHPAVBaseDialog@@@std@@@3@$0A@@std@@@2@PAU342@@Z ; std::_Tree<std::_Tmap_traits<int,BaseDialog *,std::less<int>,std::allocator<std::pair<int const ,BaseDialog *> >,0> >::_Parent
  00238	83 c4 04	 add	 esp, 4
  0023b	8b 4d e8	 mov	 ecx, DWORD PTR __Pnode$[ebp]
  0023e	89 08		 mov	 DWORD PTR [eax], ecx

; 636  : 			_Left(_Pnode) = _Left(_Erasednode);	// link successor down

  00240	8b 55 f0	 mov	 edx, DWORD PTR __Erasednode$[ebp]
  00243	52		 push	 edx
  00244	e8 00 00 00 00	 call	 ?_Left@?$_Tree@V?$_Tmap_traits@HPAVBaseDialog@@U?$less@H@std@@V?$allocator@U?$pair@$$CBHPAVBaseDialog@@@std@@@3@$0A@@std@@@std@@KAAAPAU_Node@?$_Tree_nod@V?$_Tmap_traits@HPAVBaseDialog@@U?$less@H@std@@V?$allocator@U?$pair@$$CBHPAVBaseDialog@@@std@@@3@$0A@@std@@@2@PAU342@@Z ; std::_Tree<std::_Tmap_traits<int,BaseDialog *,std::less<int>,std::allocator<std::pair<int const ,BaseDialog *> >,0> >::_Left
  00249	83 c4 04	 add	 esp, 4
  0024c	8b f0		 mov	 esi, eax
  0024e	8b 45 e8	 mov	 eax, DWORD PTR __Pnode$[ebp]
  00251	50		 push	 eax
  00252	e8 00 00 00 00	 call	 ?_Left@?$_Tree@V?$_Tmap_traits@HPAVBaseDialog@@U?$less@H@std@@V?$allocator@U?$pair@$$CBHPAVBaseDialog@@@std@@@3@$0A@@std@@@std@@KAAAPAU_Node@?$_Tree_nod@V?$_Tmap_traits@HPAVBaseDialog@@U?$less@H@std@@V?$allocator@U?$pair@$$CBHPAVBaseDialog@@@std@@@3@$0A@@std@@@2@PAU342@@Z ; std::_Tree<std::_Tmap_traits<int,BaseDialog *,std::less<int>,std::allocator<std::pair<int const ,BaseDialog *> >,0> >::_Left
  00257	83 c4 04	 add	 esp, 4
  0025a	8b 0e		 mov	 ecx, DWORD PTR [esi]
  0025c	89 08		 mov	 DWORD PTR [eax], ecx

; 637  : 
; 638  : 			if (_Pnode == _Right(_Erasednode))

  0025e	8b 55 f0	 mov	 edx, DWORD PTR __Erasednode$[ebp]
  00261	52		 push	 edx
  00262	e8 00 00 00 00	 call	 ?_Right@?$_Tree@V?$_Tmap_traits@HPAVBaseDialog@@U?$less@H@std@@V?$allocator@U?$pair@$$CBHPAVBaseDialog@@@std@@@3@$0A@@std@@@std@@KAAAPAU_Node@?$_Tree_nod@V?$_Tmap_traits@HPAVBaseDialog@@U?$less@H@std@@V?$allocator@U?$pair@$$CBHPAVBaseDialog@@@std@@@3@$0A@@std@@@2@PAU342@@Z ; std::_Tree<std::_Tmap_traits<int,BaseDialog *,std::less<int>,std::allocator<std::pair<int const ,BaseDialog *> >,0> >::_Right
  00267	83 c4 04	 add	 esp, 4
  0026a	8b 4d e8	 mov	 ecx, DWORD PTR __Pnode$[ebp]
  0026d	3b 08		 cmp	 ecx, DWORD PTR [eax]
  0026f	75 0b		 jne	 SHORT $L199064

; 639  : 				_Fixnodeparent = _Pnode;	// successor is next to erased

  00271	8b 55 e8	 mov	 edx, DWORD PTR __Pnode$[ebp]
  00274	89 55 e4	 mov	 DWORD PTR __Fixnodeparent$[ebp], edx

; 640  : 			else

  00277	e9 80 00 00 00	 jmp	 $L199065
$L199064:

; 641  : 				{	// successor further down, link in place of erased
; 642  : 				_Fixnodeparent = _Parent(_Pnode);	// parent is successor's

  0027c	8b 45 e8	 mov	 eax, DWORD PTR __Pnode$[ebp]
  0027f	50		 push	 eax
  00280	e8 00 00 00 00	 call	 ?_Parent@?$_Tree@V?$_Tmap_traits@HPAVBaseDialog@@U?$less@H@std@@V?$allocator@U?$pair@$$CBHPAVBaseDialog@@@std@@@3@$0A@@std@@@std@@KAAAPAU_Node@?$_Tree_nod@V?$_Tmap_traits@HPAVBaseDialog@@U?$less@H@std@@V?$allocator@U?$pair@$$CBHPAVBaseDialog@@@std@@@3@$0A@@std@@@2@PAU342@@Z ; std::_Tree<std::_Tmap_traits<int,BaseDialog *,std::less<int>,std::allocator<std::pair<int const ,BaseDialog *> >,0> >::_Parent
  00285	83 c4 04	 add	 esp, 4
  00288	8b 08		 mov	 ecx, DWORD PTR [eax]
  0028a	89 4d e4	 mov	 DWORD PTR __Fixnodeparent$[ebp], ecx

; 643  : 				if (!_Isnil(_Fixnode))

  0028d	8b 55 ec	 mov	 edx, DWORD PTR __Fixnode$[ebp]
  00290	52		 push	 edx
  00291	e8 00 00 00 00	 call	 ?_Isnil@?$_Tree@V?$_Tmap_traits@HPAVBaseDialog@@U?$less@H@std@@V?$allocator@U?$pair@$$CBHPAVBaseDialog@@@std@@@3@$0A@@std@@@std@@KAAADPAU_Node@?$_Tree_nod@V?$_Tmap_traits@HPAVBaseDialog@@U?$less@H@std@@V?$allocator@U?$pair@$$CBHPAVBaseDialog@@@std@@@3@$0A@@std@@@2@@Z ; std::_Tree<std::_Tmap_traits<int,BaseDialog *,std::less<int>,std::allocator<std::pair<int const ,BaseDialog *> >,0> >::_Isnil
  00296	83 c4 04	 add	 esp, 4
  00299	0f be 00	 movsx	 eax, BYTE PTR [eax]
  0029c	85 c0		 test	 eax, eax
  0029e	75 11		 jne	 SHORT $L199066

; 644  : 					_Parent(_Fixnode) = _Fixnodeparent;	// link fix up

  002a0	8b 4d ec	 mov	 ecx, DWORD PTR __Fixnode$[ebp]
  002a3	51		 push	 ecx
  002a4	e8 00 00 00 00	 call	 ?_Parent@?$_Tree@V?$_Tmap_traits@HPAVBaseDialog@@U?$less@H@std@@V?$allocator@U?$pair@$$CBHPAVBaseDialog@@@std@@@3@$0A@@std@@@std@@KAAAPAU_Node@?$_Tree_nod@V?$_Tmap_traits@HPAVBaseDialog@@U?$less@H@std@@V?$allocator@U?$pair@$$CBHPAVBaseDialog@@@std@@@3@$0A@@std@@@2@PAU342@@Z ; std::_Tree<std::_Tmap_traits<int,BaseDialog *,std::less<int>,std::allocator<std::pair<int const ,BaseDialog *> >,0> >::_Parent
  002a9	83 c4 04	 add	 esp, 4
  002ac	8b 55 e4	 mov	 edx, DWORD PTR __Fixnodeparent$[ebp]
  002af	89 10		 mov	 DWORD PTR [eax], edx
$L199066:

; 645  : 				_Left(_Fixnodeparent) = _Fixnode;	// link fix down

  002b1	8b 45 e4	 mov	 eax, DWORD PTR __Fixnodeparent$[ebp]
  002b4	50		 push	 eax
  002b5	e8 00 00 00 00	 call	 ?_Left@?$_Tree@V?$_Tmap_traits@HPAVBaseDialog@@U?$less@H@std@@V?$allocator@U?$pair@$$CBHPAVBaseDialog@@@std@@@3@$0A@@std@@@std@@KAAAPAU_Node@?$_Tree_nod@V?$_Tmap_traits@HPAVBaseDialog@@U?$less@H@std@@V?$allocator@U?$pair@$$CBHPAVBaseDialog@@@std@@@3@$0A@@std@@@2@PAU342@@Z ; std::_Tree<std::_Tmap_traits<int,BaseDialog *,std::less<int>,std::allocator<std::pair<int const ,BaseDialog *> >,0> >::_Left
  002ba	83 c4 04	 add	 esp, 4
  002bd	8b 4d ec	 mov	 ecx, DWORD PTR __Fixnode$[ebp]
  002c0	89 08		 mov	 DWORD PTR [eax], ecx

; 646  : 				_Right(_Pnode) = _Right(_Erasednode);	// link successor down

  002c2	8b 55 f0	 mov	 edx, DWORD PTR __Erasednode$[ebp]
  002c5	52		 push	 edx
  002c6	e8 00 00 00 00	 call	 ?_Right@?$_Tree@V?$_Tmap_traits@HPAVBaseDialog@@U?$less@H@std@@V?$allocator@U?$pair@$$CBHPAVBaseDialog@@@std@@@3@$0A@@std@@@std@@KAAAPAU_Node@?$_Tree_nod@V?$_Tmap_traits@HPAVBaseDialog@@U?$less@H@std@@V?$allocator@U?$pair@$$CBHPAVBaseDialog@@@std@@@3@$0A@@std@@@2@PAU342@@Z ; std::_Tree<std::_Tmap_traits<int,BaseDialog *,std::less<int>,std::allocator<std::pair<int const ,BaseDialog *> >,0> >::_Right
  002cb	83 c4 04	 add	 esp, 4
  002ce	8b f0		 mov	 esi, eax
  002d0	8b 45 e8	 mov	 eax, DWORD PTR __Pnode$[ebp]
  002d3	50		 push	 eax
  002d4	e8 00 00 00 00	 call	 ?_Right@?$_Tree@V?$_Tmap_traits@HPAVBaseDialog@@U?$less@H@std@@V?$allocator@U?$pair@$$CBHPAVBaseDialog@@@std@@@3@$0A@@std@@@std@@KAAAPAU_Node@?$_Tree_nod@V?$_Tmap_traits@HPAVBaseDialog@@U?$less@H@std@@V?$allocator@U?$pair@$$CBHPAVBaseDialog@@@std@@@3@$0A@@std@@@2@PAU342@@Z ; std::_Tree<std::_Tmap_traits<int,BaseDialog *,std::less<int>,std::allocator<std::pair<int const ,BaseDialog *> >,0> >::_Right
  002d9	83 c4 04	 add	 esp, 4
  002dc	8b 0e		 mov	 ecx, DWORD PTR [esi]
  002de	89 08		 mov	 DWORD PTR [eax], ecx

; 647  : 				_Parent(_Right(_Erasednode)) = _Pnode;	// link right up

  002e0	8b 55 f0	 mov	 edx, DWORD PTR __Erasednode$[ebp]
  002e3	52		 push	 edx
  002e4	e8 00 00 00 00	 call	 ?_Right@?$_Tree@V?$_Tmap_traits@HPAVBaseDialog@@U?$less@H@std@@V?$allocator@U?$pair@$$CBHPAVBaseDialog@@@std@@@3@$0A@@std@@@std@@KAAAPAU_Node@?$_Tree_nod@V?$_Tmap_traits@HPAVBaseDialog@@U?$less@H@std@@V?$allocator@U?$pair@$$CBHPAVBaseDialog@@@std@@@3@$0A@@std@@@2@PAU342@@Z ; std::_Tree<std::_Tmap_traits<int,BaseDialog *,std::less<int>,std::allocator<std::pair<int const ,BaseDialog *> >,0> >::_Right
  002e9	83 c4 04	 add	 esp, 4
  002ec	8b 00		 mov	 eax, DWORD PTR [eax]
  002ee	50		 push	 eax
  002ef	e8 00 00 00 00	 call	 ?_Parent@?$_Tree@V?$_Tmap_traits@HPAVBaseDialog@@U?$less@H@std@@V?$allocator@U?$pair@$$CBHPAVBaseDialog@@@std@@@3@$0A@@std@@@std@@KAAAPAU_Node@?$_Tree_nod@V?$_Tmap_traits@HPAVBaseDialog@@U?$less@H@std@@V?$allocator@U?$pair@$$CBHPAVBaseDialog@@@std@@@3@$0A@@std@@@2@PAU342@@Z ; std::_Tree<std::_Tmap_traits<int,BaseDialog *,std::less<int>,std::allocator<std::pair<int const ,BaseDialog *> >,0> >::_Parent
  002f4	83 c4 04	 add	 esp, 4
  002f7	8b 4d e8	 mov	 ecx, DWORD PTR __Pnode$[ebp]
  002fa	89 08		 mov	 DWORD PTR [eax], ecx
$L199065:

; 648  : 				}
; 649  : 
; 650  : 			if (_Root() == _Erasednode)

  002fc	8b 4d 9c	 mov	 ecx, DWORD PTR _this$[ebp]
  002ff	e8 00 00 00 00	 call	 ?_Root@?$_Tree@V?$_Tmap_traits@HPAVBaseDialog@@U?$less@H@std@@V?$allocator@U?$pair@$$CBHPAVBaseDialog@@@std@@@3@$0A@@std@@@std@@IAEAAPAU_Node@?$_Tree_nod@V?$_Tmap_traits@HPAVBaseDialog@@U?$less@H@std@@V?$allocator@U?$pair@$$CBHPAVBaseDialog@@@std@@@3@$0A@@std@@@2@XZ ; std::_Tree<std::_Tmap_traits<int,BaseDialog *,std::less<int>,std::allocator<std::pair<int const ,BaseDialog *> >,0> >::_Root
  00304	8b 10		 mov	 edx, DWORD PTR [eax]
  00306	3b 55 f0	 cmp	 edx, DWORD PTR __Erasednode$[ebp]
  00309	75 0f		 jne	 SHORT $L199067

; 651  : 				_Root() = _Pnode;	// link down from root

  0030b	8b 4d 9c	 mov	 ecx, DWORD PTR _this$[ebp]
  0030e	e8 00 00 00 00	 call	 ?_Root@?$_Tree@V?$_Tmap_traits@HPAVBaseDialog@@U?$less@H@std@@V?$allocator@U?$pair@$$CBHPAVBaseDialog@@@std@@@3@$0A@@std@@@std@@IAEAAPAU_Node@?$_Tree_nod@V?$_Tmap_traits@HPAVBaseDialog@@U?$less@H@std@@V?$allocator@U?$pair@$$CBHPAVBaseDialog@@@std@@@3@$0A@@std@@@2@XZ ; std::_Tree<std::_Tmap_traits<int,BaseDialog *,std::less<int>,std::allocator<std::pair<int const ,BaseDialog *> >,0> >::_Root
  00313	8b 4d e8	 mov	 ecx, DWORD PTR __Pnode$[ebp]
  00316	89 08		 mov	 DWORD PTR [eax], ecx

; 652  : 			else if (_Left(_Parent(_Erasednode)) == _Erasednode)

  00318	eb 58		 jmp	 SHORT $L199068
$L199067:
  0031a	8b 55 f0	 mov	 edx, DWORD PTR __Erasednode$[ebp]
  0031d	52		 push	 edx
  0031e	e8 00 00 00 00	 call	 ?_Parent@?$_Tree@V?$_Tmap_traits@HPAVBaseDialog@@U?$less@H@std@@V?$allocator@U?$pair@$$CBHPAVBaseDialog@@@std@@@3@$0A@@std@@@std@@KAAAPAU_Node@?$_Tree_nod@V?$_Tmap_traits@HPAVBaseDialog@@U?$less@H@std@@V?$allocator@U?$pair@$$CBHPAVBaseDialog@@@std@@@3@$0A@@std@@@2@PAU342@@Z ; std::_Tree<std::_Tmap_traits<int,BaseDialog *,std::less<int>,std::allocator<std::pair<int const ,BaseDialog *> >,0> >::_Parent
  00323	83 c4 04	 add	 esp, 4
  00326	8b 00		 mov	 eax, DWORD PTR [eax]
  00328	50		 push	 eax
  00329	e8 00 00 00 00	 call	 ?_Left@?$_Tree@V?$_Tmap_traits@HPAVBaseDialog@@U?$less@H@std@@V?$allocator@U?$pair@$$CBHPAVBaseDialog@@@std@@@3@$0A@@std@@@std@@KAAAPAU_Node@?$_Tree_nod@V?$_Tmap_traits@HPAVBaseDialog@@U?$less@H@std@@V?$allocator@U?$pair@$$CBHPAVBaseDialog@@@std@@@3@$0A@@std@@@2@PAU342@@Z ; std::_Tree<std::_Tmap_traits<int,BaseDialog *,std::less<int>,std::allocator<std::pair<int const ,BaseDialog *> >,0> >::_Left
  0032e	83 c4 04	 add	 esp, 4
  00331	8b 08		 mov	 ecx, DWORD PTR [eax]
  00333	3b 4d f0	 cmp	 ecx, DWORD PTR __Erasednode$[ebp]
  00336	75 1e		 jne	 SHORT $L199069

; 653  : 				_Left(_Parent(_Erasednode)) = _Pnode;	// link down to left

  00338	8b 55 f0	 mov	 edx, DWORD PTR __Erasednode$[ebp]
  0033b	52		 push	 edx
  0033c	e8 00 00 00 00	 call	 ?_Parent@?$_Tree@V?$_Tmap_traits@HPAVBaseDialog@@U?$less@H@std@@V?$allocator@U?$pair@$$CBHPAVBaseDialog@@@std@@@3@$0A@@std@@@std@@KAAAPAU_Node@?$_Tree_nod@V?$_Tmap_traits@HPAVBaseDialog@@U?$less@H@std@@V?$allocator@U?$pair@$$CBHPAVBaseDialog@@@std@@@3@$0A@@std@@@2@PAU342@@Z ; std::_Tree<std::_Tmap_traits<int,BaseDialog *,std::less<int>,std::allocator<std::pair<int const ,BaseDialog *> >,0> >::_Parent
  00341	83 c4 04	 add	 esp, 4
  00344	8b 00		 mov	 eax, DWORD PTR [eax]
  00346	50		 push	 eax
  00347	e8 00 00 00 00	 call	 ?_Left@?$_Tree@V?$_Tmap_traits@HPAVBaseDialog@@U?$less@H@std@@V?$allocator@U?$pair@$$CBHPAVBaseDialog@@@std@@@3@$0A@@std@@@std@@KAAAPAU_Node@?$_Tree_nod@V?$_Tmap_traits@HPAVBaseDialog@@U?$less@H@std@@V?$allocator@U?$pair@$$CBHPAVBaseDialog@@@std@@@3@$0A@@std@@@2@PAU342@@Z ; std::_Tree<std::_Tmap_traits<int,BaseDialog *,std::less<int>,std::allocator<std::pair<int const ,BaseDialog *> >,0> >::_Left
  0034c	83 c4 04	 add	 esp, 4
  0034f	8b 4d e8	 mov	 ecx, DWORD PTR __Pnode$[ebp]
  00352	89 08		 mov	 DWORD PTR [eax], ecx

; 654  : 			else

  00354	eb 1c		 jmp	 SHORT $L199068
$L199069:

; 655  : 				_Right(_Parent(_Erasednode)) = _Pnode;	// link down to right

  00356	8b 55 f0	 mov	 edx, DWORD PTR __Erasednode$[ebp]
  00359	52		 push	 edx
  0035a	e8 00 00 00 00	 call	 ?_Parent@?$_Tree@V?$_Tmap_traits@HPAVBaseDialog@@U?$less@H@std@@V?$allocator@U?$pair@$$CBHPAVBaseDialog@@@std@@@3@$0A@@std@@@std@@KAAAPAU_Node@?$_Tree_nod@V?$_Tmap_traits@HPAVBaseDialog@@U?$less@H@std@@V?$allocator@U?$pair@$$CBHPAVBaseDialog@@@std@@@3@$0A@@std@@@2@PAU342@@Z ; std::_Tree<std::_Tmap_traits<int,BaseDialog *,std::less<int>,std::allocator<std::pair<int const ,BaseDialog *> >,0> >::_Parent
  0035f	83 c4 04	 add	 esp, 4
  00362	8b 00		 mov	 eax, DWORD PTR [eax]
  00364	50		 push	 eax
  00365	e8 00 00 00 00	 call	 ?_Right@?$_Tree@V?$_Tmap_traits@HPAVBaseDialog@@U?$less@H@std@@V?$allocator@U?$pair@$$CBHPAVBaseDialog@@@std@@@3@$0A@@std@@@std@@KAAAPAU_Node@?$_Tree_nod@V?$_Tmap_traits@HPAVBaseDialog@@U?$less@H@std@@V?$allocator@U?$pair@$$CBHPAVBaseDialog@@@std@@@3@$0A@@std@@@2@PAU342@@Z ; std::_Tree<std::_Tmap_traits<int,BaseDialog *,std::less<int>,std::allocator<std::pair<int const ,BaseDialog *> >,0> >::_Right
  0036a	83 c4 04	 add	 esp, 4
  0036d	8b 4d e8	 mov	 ecx, DWORD PTR __Pnode$[ebp]
  00370	89 08		 mov	 DWORD PTR [eax], ecx
$L199068:

; 656  : 
; 657  : 			_Parent(_Pnode) = _Parent(_Erasednode);	// link successor up

  00372	8b 55 f0	 mov	 edx, DWORD PTR __Erasednode$[ebp]
  00375	52		 push	 edx
  00376	e8 00 00 00 00	 call	 ?_Parent@?$_Tree@V?$_Tmap_traits@HPAVBaseDialog@@U?$less@H@std@@V?$allocator@U?$pair@$$CBHPAVBaseDialog@@@std@@@3@$0A@@std@@@std@@KAAAPAU_Node@?$_Tree_nod@V?$_Tmap_traits@HPAVBaseDialog@@U?$less@H@std@@V?$allocator@U?$pair@$$CBHPAVBaseDialog@@@std@@@3@$0A@@std@@@2@PAU342@@Z ; std::_Tree<std::_Tmap_traits<int,BaseDialog *,std::less<int>,std::allocator<std::pair<int const ,BaseDialog *> >,0> >::_Parent
  0037b	83 c4 04	 add	 esp, 4
  0037e	8b f0		 mov	 esi, eax
  00380	8b 45 e8	 mov	 eax, DWORD PTR __Pnode$[ebp]
  00383	50		 push	 eax
  00384	e8 00 00 00 00	 call	 ?_Parent@?$_Tree@V?$_Tmap_traits@HPAVBaseDialog@@U?$less@H@std@@V?$allocator@U?$pair@$$CBHPAVBaseDialog@@@std@@@3@$0A@@std@@@std@@KAAAPAU_Node@?$_Tree_nod@V?$_Tmap_traits@HPAVBaseDialog@@U?$less@H@std@@V?$allocator@U?$pair@$$CBHPAVBaseDialog@@@std@@@3@$0A@@std@@@2@PAU342@@Z ; std::_Tree<std::_Tmap_traits<int,BaseDialog *,std::less<int>,std::allocator<std::pair<int const ,BaseDialog *> >,0> >::_Parent
  00389	83 c4 04	 add	 esp, 4
  0038c	8b 0e		 mov	 ecx, DWORD PTR [esi]
  0038e	89 08		 mov	 DWORD PTR [eax], ecx

; 658  : 			std::swap(_Color(_Pnode), _Color(_Erasednode));	// recolor it

  00390	8b 55 f0	 mov	 edx, DWORD PTR __Erasednode$[ebp]
  00393	52		 push	 edx
  00394	e8 00 00 00 00	 call	 ?_Color@?$_Tree@V?$_Tmap_traits@HPAVBaseDialog@@U?$less@H@std@@V?$allocator@U?$pair@$$CBHPAVBaseDialog@@@std@@@3@$0A@@std@@@std@@KAAADPAU_Node@?$_Tree_nod@V?$_Tmap_traits@HPAVBaseDialog@@U?$less@H@std@@V?$allocator@U?$pair@$$CBHPAVBaseDialog@@@std@@@3@$0A@@std@@@2@@Z ; std::_Tree<std::_Tmap_traits<int,BaseDialog *,std::less<int>,std::allocator<std::pair<int const ,BaseDialog *> >,0> >::_Color
  00399	83 c4 04	 add	 esp, 4
  0039c	50		 push	 eax
  0039d	8b 45 e8	 mov	 eax, DWORD PTR __Pnode$[ebp]
  003a0	50		 push	 eax
  003a1	e8 00 00 00 00	 call	 ?_Color@?$_Tree@V?$_Tmap_traits@HPAVBaseDialog@@U?$less@H@std@@V?$allocator@U?$pair@$$CBHPAVBaseDialog@@@std@@@3@$0A@@std@@@std@@KAAADPAU_Node@?$_Tree_nod@V?$_Tmap_traits@HPAVBaseDialog@@U?$less@H@std@@V?$allocator@U?$pair@$$CBHPAVBaseDialog@@@std@@@3@$0A@@std@@@2@@Z ; std::_Tree<std::_Tmap_traits<int,BaseDialog *,std::less<int>,std::allocator<std::pair<int const ,BaseDialog *> >,0> >::_Color
  003a6	83 c4 04	 add	 esp, 4
  003a9	50		 push	 eax
  003aa	e8 00 00 00 00	 call	 ??$swap@D@std@@YAXAAD0@Z ; std::swap<char>
  003af	83 c4 08	 add	 esp, 8
$L199063:

; 659  : 			}
; 660  : 
; 661  : 		if (_Color(_Erasednode) == _Black)

  003b2	8b 4d f0	 mov	 ecx, DWORD PTR __Erasednode$[ebp]
  003b5	51		 push	 ecx
  003b6	e8 00 00 00 00	 call	 ?_Color@?$_Tree@V?$_Tmap_traits@HPAVBaseDialog@@U?$less@H@std@@V?$allocator@U?$pair@$$CBHPAVBaseDialog@@@std@@@3@$0A@@std@@@std@@KAAADPAU_Node@?$_Tree_nod@V?$_Tmap_traits@HPAVBaseDialog@@U?$less@H@std@@V?$allocator@U?$pair@$$CBHPAVBaseDialog@@@std@@@3@$0A@@std@@@2@@Z ; std::_Tree<std::_Tmap_traits<int,BaseDialog *,std::less<int>,std::allocator<std::pair<int const ,BaseDialog *> >,0> >::_Color
  003bb	83 c4 04	 add	 esp, 4
  003be	0f be 10	 movsx	 edx, BYTE PTR [eax]
  003c1	83 fa 01	 cmp	 edx, 1
  003c4	0f 85 8f 03 00
	00		 jne	 $L199071

; 662  : 			{	// erasing black link, must recolor/rebalance tree
; 663  : 			for (; _Fixnode != _Root() && _Color(_Fixnode) == _Black;
; 664  : 				_Fixnodeparent = _Parent(_Fixnode))

  003ca	eb 11		 jmp	 SHORT $L199072
$L199073:
  003cc	8b 45 ec	 mov	 eax, DWORD PTR __Fixnode$[ebp]
  003cf	50		 push	 eax
  003d0	e8 00 00 00 00	 call	 ?_Parent@?$_Tree@V?$_Tmap_traits@HPAVBaseDialog@@U?$less@H@std@@V?$allocator@U?$pair@$$CBHPAVBaseDialog@@@std@@@3@$0A@@std@@@std@@KAAAPAU_Node@?$_Tree_nod@V?$_Tmap_traits@HPAVBaseDialog@@U?$less@H@std@@V?$allocator@U?$pair@$$CBHPAVBaseDialog@@@std@@@3@$0A@@std@@@2@PAU342@@Z ; std::_Tree<std::_Tmap_traits<int,BaseDialog *,std::less<int>,std::allocator<std::pair<int const ,BaseDialog *> >,0> >::_Parent
  003d5	83 c4 04	 add	 esp, 4
  003d8	8b 08		 mov	 ecx, DWORD PTR [eax]
  003da	89 4d e4	 mov	 DWORD PTR __Fixnodeparent$[ebp], ecx
$L199072:
  003dd	8b 4d 9c	 mov	 ecx, DWORD PTR _this$[ebp]
  003e0	e8 00 00 00 00	 call	 ?_Root@?$_Tree@V?$_Tmap_traits@HPAVBaseDialog@@U?$less@H@std@@V?$allocator@U?$pair@$$CBHPAVBaseDialog@@@std@@@3@$0A@@std@@@std@@IAEAAPAU_Node@?$_Tree_nod@V?$_Tmap_traits@HPAVBaseDialog@@U?$less@H@std@@V?$allocator@U?$pair@$$CBHPAVBaseDialog@@@std@@@3@$0A@@std@@@2@XZ ; std::_Tree<std::_Tmap_traits<int,BaseDialog *,std::less<int>,std::allocator<std::pair<int const ,BaseDialog *> >,0> >::_Root
  003e5	8b 55 ec	 mov	 edx, DWORD PTR __Fixnode$[ebp]
  003e8	3b 10		 cmp	 edx, DWORD PTR [eax]
  003ea	0f 84 5a 03 00
	00		 je	 $L199074
  003f0	8b 45 ec	 mov	 eax, DWORD PTR __Fixnode$[ebp]
  003f3	50		 push	 eax
  003f4	e8 00 00 00 00	 call	 ?_Color@?$_Tree@V?$_Tmap_traits@HPAVBaseDialog@@U?$less@H@std@@V?$allocator@U?$pair@$$CBHPAVBaseDialog@@@std@@@3@$0A@@std@@@std@@KAAADPAU_Node@?$_Tree_nod@V?$_Tmap_traits@HPAVBaseDialog@@U?$less@H@std@@V?$allocator@U?$pair@$$CBHPAVBaseDialog@@@std@@@3@$0A@@std@@@2@@Z ; std::_Tree<std::_Tmap_traits<int,BaseDialog *,std::less<int>,std::allocator<std::pair<int const ,BaseDialog *> >,0> >::_Color
  003f9	83 c4 04	 add	 esp, 4
  003fc	0f be 08	 movsx	 ecx, BYTE PTR [eax]
  003ff	83 f9 01	 cmp	 ecx, 1
  00402	0f 85 42 03 00
	00		 jne	 $L199074

; 665  : 				if (_Fixnode == _Left(_Fixnodeparent))

  00408	8b 55 e4	 mov	 edx, DWORD PTR __Fixnodeparent$[ebp]
  0040b	52		 push	 edx
  0040c	e8 00 00 00 00	 call	 ?_Left@?$_Tree@V?$_Tmap_traits@HPAVBaseDialog@@U?$less@H@std@@V?$allocator@U?$pair@$$CBHPAVBaseDialog@@@std@@@3@$0A@@std@@@std@@KAAAPAU_Node@?$_Tree_nod@V?$_Tmap_traits@HPAVBaseDialog@@U?$less@H@std@@V?$allocator@U?$pair@$$CBHPAVBaseDialog@@@std@@@3@$0A@@std@@@2@PAU342@@Z ; std::_Tree<std::_Tmap_traits<int,BaseDialog *,std::less<int>,std::allocator<std::pair<int const ,BaseDialog *> >,0> >::_Left
  00411	83 c4 04	 add	 esp, 4
  00414	8b 4d ec	 mov	 ecx, DWORD PTR __Fixnode$[ebp]
  00417	3b 08		 cmp	 ecx, DWORD PTR [eax]
  00419	0f 85 97 01 00
	00		 jne	 $L199075

; 666  : 					{	// fixup left subtree
; 667  : 					_Pnode = _Right(_Fixnodeparent);

  0041f	8b 55 e4	 mov	 edx, DWORD PTR __Fixnodeparent$[ebp]
  00422	52		 push	 edx
  00423	e8 00 00 00 00	 call	 ?_Right@?$_Tree@V?$_Tmap_traits@HPAVBaseDialog@@U?$less@H@std@@V?$allocator@U?$pair@$$CBHPAVBaseDialog@@@std@@@3@$0A@@std@@@std@@KAAAPAU_Node@?$_Tree_nod@V?$_Tmap_traits@HPAVBaseDialog@@U?$less@H@std@@V?$allocator@U?$pair@$$CBHPAVBaseDialog@@@std@@@3@$0A@@std@@@2@PAU342@@Z ; std::_Tree<std::_Tmap_traits<int,BaseDialog *,std::less<int>,std::allocator<std::pair<int const ,BaseDialog *> >,0> >::_Right
  00428	83 c4 04	 add	 esp, 4
  0042b	8b 00		 mov	 eax, DWORD PTR [eax]
  0042d	89 45 e8	 mov	 DWORD PTR __Pnode$[ebp], eax

; 668  : 					if (_Color(_Pnode) == _Red)

  00430	8b 4d e8	 mov	 ecx, DWORD PTR __Pnode$[ebp]
  00433	51		 push	 ecx
  00434	e8 00 00 00 00	 call	 ?_Color@?$_Tree@V?$_Tmap_traits@HPAVBaseDialog@@U?$less@H@std@@V?$allocator@U?$pair@$$CBHPAVBaseDialog@@@std@@@3@$0A@@std@@@std@@KAAADPAU_Node@?$_Tree_nod@V?$_Tmap_traits@HPAVBaseDialog@@U?$less@H@std@@V?$allocator@U?$pair@$$CBHPAVBaseDialog@@@std@@@3@$0A@@std@@@2@@Z ; std::_Tree<std::_Tmap_traits<int,BaseDialog *,std::less<int>,std::allocator<std::pair<int const ,BaseDialog *> >,0> >::_Color
  00439	83 c4 04	 add	 esp, 4
  0043c	0f be 10	 movsx	 edx, BYTE PTR [eax]
  0043f	85 d2		 test	 edx, edx
  00441	75 3b		 jne	 SHORT $L199076

; 669  : 						{	// rotate red up from right subtree
; 670  : 						_Color(_Pnode) = _Black;

  00443	8b 45 e8	 mov	 eax, DWORD PTR __Pnode$[ebp]
  00446	50		 push	 eax
  00447	e8 00 00 00 00	 call	 ?_Color@?$_Tree@V?$_Tmap_traits@HPAVBaseDialog@@U?$less@H@std@@V?$allocator@U?$pair@$$CBHPAVBaseDialog@@@std@@@3@$0A@@std@@@std@@KAAADPAU_Node@?$_Tree_nod@V?$_Tmap_traits@HPAVBaseDialog@@U?$less@H@std@@V?$allocator@U?$pair@$$CBHPAVBaseDialog@@@std@@@3@$0A@@std@@@2@@Z ; std::_Tree<std::_Tmap_traits<int,BaseDialog *,std::less<int>,std::allocator<std::pair<int const ,BaseDialog *> >,0> >::_Color
  0044c	83 c4 04	 add	 esp, 4
  0044f	c6 00 01	 mov	 BYTE PTR [eax], 1

; 671  : 						_Color(_Fixnodeparent) = _Red;

  00452	8b 4d e4	 mov	 ecx, DWORD PTR __Fixnodeparent$[ebp]
  00455	51		 push	 ecx
  00456	e8 00 00 00 00	 call	 ?_Color@?$_Tree@V?$_Tmap_traits@HPAVBaseDialog@@U?$less@H@std@@V?$allocator@U?$pair@$$CBHPAVBaseDialog@@@std@@@3@$0A@@std@@@std@@KAAADPAU_Node@?$_Tree_nod@V?$_Tmap_traits@HPAVBaseDialog@@U?$less@H@std@@V?$allocator@U?$pair@$$CBHPAVBaseDialog@@@std@@@3@$0A@@std@@@2@@Z ; std::_Tree<std::_Tmap_traits<int,BaseDialog *,std::less<int>,std::allocator<std::pair<int const ,BaseDialog *> >,0> >::_Color
  0045b	83 c4 04	 add	 esp, 4
  0045e	c6 00 00	 mov	 BYTE PTR [eax], 0

; 672  : 						_Lrotate(_Fixnodeparent);

  00461	8b 55 e4	 mov	 edx, DWORD PTR __Fixnodeparent$[ebp]
  00464	52		 push	 edx
  00465	8b 4d 9c	 mov	 ecx, DWORD PTR _this$[ebp]
  00468	e8 00 00 00 00	 call	 ?_Lrotate@?$_Tree@V?$_Tmap_traits@HPAVBaseDialog@@U?$less@H@std@@V?$allocator@U?$pair@$$CBHPAVBaseDialog@@@std@@@3@$0A@@std@@@std@@IAEXPAU_Node@?$_Tree_nod@V?$_Tmap_traits@HPAVBaseDialog@@U?$less@H@std@@V?$allocator@U?$pair@$$CBHPAVBaseDialog@@@std@@@3@$0A@@std@@@2@@Z ; std::_Tree<std::_Tmap_traits<int,BaseDialog *,std::less<int>,std::allocator<std::pair<int const ,BaseDialog *> >,0> >::_Lrotate

; 673  : 						_Pnode = _Right(_Fixnodeparent);

  0046d	8b 45 e4	 mov	 eax, DWORD PTR __Fixnodeparent$[ebp]
  00470	50		 push	 eax
  00471	e8 00 00 00 00	 call	 ?_Right@?$_Tree@V?$_Tmap_traits@HPAVBaseDialog@@U?$less@H@std@@V?$allocator@U?$pair@$$CBHPAVBaseDialog@@@std@@@3@$0A@@std@@@std@@KAAAPAU_Node@?$_Tree_nod@V?$_Tmap_traits@HPAVBaseDialog@@U?$less@H@std@@V?$allocator@U?$pair@$$CBHPAVBaseDialog@@@std@@@3@$0A@@std@@@2@PAU342@@Z ; std::_Tree<std::_Tmap_traits<int,BaseDialog *,std::less<int>,std::allocator<std::pair<int const ,BaseDialog *> >,0> >::_Right
  00476	83 c4 04	 add	 esp, 4
  00479	8b 08		 mov	 ecx, DWORD PTR [eax]
  0047b	89 4d e8	 mov	 DWORD PTR __Pnode$[ebp], ecx
$L199076:

; 674  : 						}
; 675  : 
; 676  : 					if (_Isnil(_Pnode))

  0047e	8b 55 e8	 mov	 edx, DWORD PTR __Pnode$[ebp]
  00481	52		 push	 edx
  00482	e8 00 00 00 00	 call	 ?_Isnil@?$_Tree@V?$_Tmap_traits@HPAVBaseDialog@@U?$less@H@std@@V?$allocator@U?$pair@$$CBHPAVBaseDialog@@@std@@@3@$0A@@std@@@std@@KAAADPAU_Node@?$_Tree_nod@V?$_Tmap_traits@HPAVBaseDialog@@U?$less@H@std@@V?$allocator@U?$pair@$$CBHPAVBaseDialog@@@std@@@3@$0A@@std@@@2@@Z ; std::_Tree<std::_Tmap_traits<int,BaseDialog *,std::less<int>,std::allocator<std::pair<int const ,BaseDialog *> >,0> >::_Isnil
  00487	83 c4 04	 add	 esp, 4
  0048a	0f be 00	 movsx	 eax, BYTE PTR [eax]
  0048d	85 c0		 test	 eax, eax
  0048f	74 0b		 je	 SHORT $L199077

; 677  : 						_Fixnode = _Fixnodeparent;	// shouldn't happen

  00491	8b 4d e4	 mov	 ecx, DWORD PTR __Fixnodeparent$[ebp]
  00494	89 4d ec	 mov	 DWORD PTR __Fixnode$[ebp], ecx

; 678  : 					else if (_Color(_Left(_Pnode)) == _Black

  00497	e9 15 01 00 00	 jmp	 $L199078
$L199077:

; 679  : 						&& _Color(_Right(_Pnode)) == _Black)

  0049c	8b 55 e8	 mov	 edx, DWORD PTR __Pnode$[ebp]
  0049f	52		 push	 edx
  004a0	e8 00 00 00 00	 call	 ?_Left@?$_Tree@V?$_Tmap_traits@HPAVBaseDialog@@U?$less@H@std@@V?$allocator@U?$pair@$$CBHPAVBaseDialog@@@std@@@3@$0A@@std@@@std@@KAAAPAU_Node@?$_Tree_nod@V?$_Tmap_traits@HPAVBaseDialog@@U?$less@H@std@@V?$allocator@U?$pair@$$CBHPAVBaseDialog@@@std@@@3@$0A@@std@@@2@PAU342@@Z ; std::_Tree<std::_Tmap_traits<int,BaseDialog *,std::less<int>,std::allocator<std::pair<int const ,BaseDialog *> >,0> >::_Left
  004a5	83 c4 04	 add	 esp, 4
  004a8	8b 00		 mov	 eax, DWORD PTR [eax]
  004aa	50		 push	 eax
  004ab	e8 00 00 00 00	 call	 ?_Color@?$_Tree@V?$_Tmap_traits@HPAVBaseDialog@@U?$less@H@std@@V?$allocator@U?$pair@$$CBHPAVBaseDialog@@@std@@@3@$0A@@std@@@std@@KAAADPAU_Node@?$_Tree_nod@V?$_Tmap_traits@HPAVBaseDialog@@U?$less@H@std@@V?$allocator@U?$pair@$$CBHPAVBaseDialog@@@std@@@3@$0A@@std@@@2@@Z ; std::_Tree<std::_Tmap_traits<int,BaseDialog *,std::less<int>,std::allocator<std::pair<int const ,BaseDialog *> >,0> >::_Color
  004b0	83 c4 04	 add	 esp, 4
  004b3	0f be 08	 movsx	 ecx, BYTE PTR [eax]
  004b6	83 f9 01	 cmp	 ecx, 1
  004b9	75 39		 jne	 SHORT $L199079
  004bb	8b 55 e8	 mov	 edx, DWORD PTR __Pnode$[ebp]
  004be	52		 push	 edx
  004bf	e8 00 00 00 00	 call	 ?_Right@?$_Tree@V?$_Tmap_traits@HPAVBaseDialog@@U?$less@H@std@@V?$allocator@U?$pair@$$CBHPAVBaseDialog@@@std@@@3@$0A@@std@@@std@@KAAAPAU_Node@?$_Tree_nod@V?$_Tmap_traits@HPAVBaseDialog@@U?$less@H@std@@V?$allocator@U?$pair@$$CBHPAVBaseDialog@@@std@@@3@$0A@@std@@@2@PAU342@@Z ; std::_Tree<std::_Tmap_traits<int,BaseDialog *,std::less<int>,std::allocator<std::pair<int const ,BaseDialog *> >,0> >::_Right
  004c4	83 c4 04	 add	 esp, 4
  004c7	8b 00		 mov	 eax, DWORD PTR [eax]
  004c9	50		 push	 eax
  004ca	e8 00 00 00 00	 call	 ?_Color@?$_Tree@V?$_Tmap_traits@HPAVBaseDialog@@U?$less@H@std@@V?$allocator@U?$pair@$$CBHPAVBaseDialog@@@std@@@3@$0A@@std@@@std@@KAAADPAU_Node@?$_Tree_nod@V?$_Tmap_traits@HPAVBaseDialog@@U?$less@H@std@@V?$allocator@U?$pair@$$CBHPAVBaseDialog@@@std@@@3@$0A@@std@@@2@@Z ; std::_Tree<std::_Tmap_traits<int,BaseDialog *,std::less<int>,std::allocator<std::pair<int const ,BaseDialog *> >,0> >::_Color
  004cf	83 c4 04	 add	 esp, 4
  004d2	0f be 08	 movsx	 ecx, BYTE PTR [eax]
  004d5	83 f9 01	 cmp	 ecx, 1
  004d8	75 1a		 jne	 SHORT $L199079

; 680  : 						{	// redden right subtree with black children
; 681  : 						_Color(_Pnode) = _Red;

  004da	8b 55 e8	 mov	 edx, DWORD PTR __Pnode$[ebp]
  004dd	52		 push	 edx
  004de	e8 00 00 00 00	 call	 ?_Color@?$_Tree@V?$_Tmap_traits@HPAVBaseDialog@@U?$less@H@std@@V?$allocator@U?$pair@$$CBHPAVBaseDialog@@@std@@@3@$0A@@std@@@std@@KAAADPAU_Node@?$_Tree_nod@V?$_Tmap_traits@HPAVBaseDialog@@U?$less@H@std@@V?$allocator@U?$pair@$$CBHPAVBaseDialog@@@std@@@3@$0A@@std@@@2@@Z ; std::_Tree<std::_Tmap_traits<int,BaseDialog *,std::less<int>,std::allocator<std::pair<int const ,BaseDialog *> >,0> >::_Color
  004e3	83 c4 04	 add	 esp, 4
  004e6	c6 00 00	 mov	 BYTE PTR [eax], 0

; 682  : 						_Fixnode = _Fixnodeparent;

  004e9	8b 45 e4	 mov	 eax, DWORD PTR __Fixnodeparent$[ebp]
  004ec	89 45 ec	 mov	 DWORD PTR __Fixnode$[ebp], eax

; 683  : 						}
; 684  : 					else

  004ef	e9 bd 00 00 00	 jmp	 $L199078
$L199079:

; 685  : 						{	// must rearrange right subtree
; 686  : 						if (_Color(_Right(_Pnode)) == _Black)

  004f4	8b 4d e8	 mov	 ecx, DWORD PTR __Pnode$[ebp]
  004f7	51		 push	 ecx
  004f8	e8 00 00 00 00	 call	 ?_Right@?$_Tree@V?$_Tmap_traits@HPAVBaseDialog@@U?$less@H@std@@V?$allocator@U?$pair@$$CBHPAVBaseDialog@@@std@@@3@$0A@@std@@@std@@KAAAPAU_Node@?$_Tree_nod@V?$_Tmap_traits@HPAVBaseDialog@@U?$less@H@std@@V?$allocator@U?$pair@$$CBHPAVBaseDialog@@@std@@@3@$0A@@std@@@2@PAU342@@Z ; std::_Tree<std::_Tmap_traits<int,BaseDialog *,std::less<int>,std::allocator<std::pair<int const ,BaseDialog *> >,0> >::_Right
  004fd	83 c4 04	 add	 esp, 4
  00500	8b 10		 mov	 edx, DWORD PTR [eax]
  00502	52		 push	 edx
  00503	e8 00 00 00 00	 call	 ?_Color@?$_Tree@V?$_Tmap_traits@HPAVBaseDialog@@U?$less@H@std@@V?$allocator@U?$pair@$$CBHPAVBaseDialog@@@std@@@3@$0A@@std@@@std@@KAAADPAU_Node@?$_Tree_nod@V?$_Tmap_traits@HPAVBaseDialog@@U?$less@H@std@@V?$allocator@U?$pair@$$CBHPAVBaseDialog@@@std@@@3@$0A@@std@@@2@@Z ; std::_Tree<std::_Tmap_traits<int,BaseDialog *,std::less<int>,std::allocator<std::pair<int const ,BaseDialog *> >,0> >::_Color
  00508	83 c4 04	 add	 esp, 4
  0050b	0f be 00	 movsx	 eax, BYTE PTR [eax]
  0050e	83 f8 01	 cmp	 eax, 1
  00511	75 46		 jne	 SHORT $L199081

; 687  : 							{	// rotate red up from left sub-subtree
; 688  : 							_Color(_Left(_Pnode)) = _Black;

  00513	8b 4d e8	 mov	 ecx, DWORD PTR __Pnode$[ebp]
  00516	51		 push	 ecx
  00517	e8 00 00 00 00	 call	 ?_Left@?$_Tree@V?$_Tmap_traits@HPAVBaseDialog@@U?$less@H@std@@V?$allocator@U?$pair@$$CBHPAVBaseDialog@@@std@@@3@$0A@@std@@@std@@KAAAPAU_Node@?$_Tree_nod@V?$_Tmap_traits@HPAVBaseDialog@@U?$less@H@std@@V?$allocator@U?$pair@$$CBHPAVBaseDialog@@@std@@@3@$0A@@std@@@2@PAU342@@Z ; std::_Tree<std::_Tmap_traits<int,BaseDialog *,std::less<int>,std::allocator<std::pair<int const ,BaseDialog *> >,0> >::_Left
  0051c	83 c4 04	 add	 esp, 4
  0051f	8b 10		 mov	 edx, DWORD PTR [eax]
  00521	52		 push	 edx
  00522	e8 00 00 00 00	 call	 ?_Color@?$_Tree@V?$_Tmap_traits@HPAVBaseDialog@@U?$less@H@std@@V?$allocator@U?$pair@$$CBHPAVBaseDialog@@@std@@@3@$0A@@std@@@std@@KAAADPAU_Node@?$_Tree_nod@V?$_Tmap_traits@HPAVBaseDialog@@U?$less@H@std@@V?$allocator@U?$pair@$$CBHPAVBaseDialog@@@std@@@3@$0A@@std@@@2@@Z ; std::_Tree<std::_Tmap_traits<int,BaseDialog *,std::less<int>,std::allocator<std::pair<int const ,BaseDialog *> >,0> >::_Color
  00527	83 c4 04	 add	 esp, 4
  0052a	c6 00 01	 mov	 BYTE PTR [eax], 1

; 689  : 							_Color(_Pnode) = _Red;

  0052d	8b 45 e8	 mov	 eax, DWORD PTR __Pnode$[ebp]
  00530	50		 push	 eax
  00531	e8 00 00 00 00	 call	 ?_Color@?$_Tree@V?$_Tmap_traits@HPAVBaseDialog@@U?$less@H@std@@V?$allocator@U?$pair@$$CBHPAVBaseDialog@@@std@@@3@$0A@@std@@@std@@KAAADPAU_Node@?$_Tree_nod@V?$_Tmap_traits@HPAVBaseDialog@@U?$less@H@std@@V?$allocator@U?$pair@$$CBHPAVBaseDialog@@@std@@@3@$0A@@std@@@2@@Z ; std::_Tree<std::_Tmap_traits<int,BaseDialog *,std::less<int>,std::allocator<std::pair<int const ,BaseDialog *> >,0> >::_Color
  00536	83 c4 04	 add	 esp, 4
  00539	c6 00 00	 mov	 BYTE PTR [eax], 0

; 690  : 							_Rrotate(_Pnode);

  0053c	8b 4d e8	 mov	 ecx, DWORD PTR __Pnode$[ebp]
  0053f	51		 push	 ecx
  00540	8b 4d 9c	 mov	 ecx, DWORD PTR _this$[ebp]
  00543	e8 00 00 00 00	 call	 ?_Rrotate@?$_Tree@V?$_Tmap_traits@HPAVBaseDialog@@U?$less@H@std@@V?$allocator@U?$pair@$$CBHPAVBaseDialog@@@std@@@3@$0A@@std@@@std@@IAEXPAU_Node@?$_Tree_nod@V?$_Tmap_traits@HPAVBaseDialog@@U?$less@H@std@@V?$allocator@U?$pair@$$CBHPAVBaseDialog@@@std@@@3@$0A@@std@@@2@@Z ; std::_Tree<std::_Tmap_traits<int,BaseDialog *,std::less<int>,std::allocator<std::pair<int const ,BaseDialog *> >,0> >::_Rrotate

; 691  : 							_Pnode = _Right(_Fixnodeparent);

  00548	8b 55 e4	 mov	 edx, DWORD PTR __Fixnodeparent$[ebp]
  0054b	52		 push	 edx
  0054c	e8 00 00 00 00	 call	 ?_Right@?$_Tree@V?$_Tmap_traits@HPAVBaseDialog@@U?$less@H@std@@V?$allocator@U?$pair@$$CBHPAVBaseDialog@@@std@@@3@$0A@@std@@@std@@KAAAPAU_Node@?$_Tree_nod@V?$_Tmap_traits@HPAVBaseDialog@@U?$less@H@std@@V?$allocator@U?$pair@$$CBHPAVBaseDialog@@@std@@@3@$0A@@std@@@2@PAU342@@Z ; std::_Tree<std::_Tmap_traits<int,BaseDialog *,std::less<int>,std::allocator<std::pair<int const ,BaseDialog *> >,0> >::_Right
  00551	83 c4 04	 add	 esp, 4
  00554	8b 00		 mov	 eax, DWORD PTR [eax]
  00556	89 45 e8	 mov	 DWORD PTR __Pnode$[ebp], eax
$L199081:

; 692  : 							}
; 693  : 
; 694  : 						_Color(_Pnode) = _Color(_Fixnodeparent);

  00559	8b 4d e4	 mov	 ecx, DWORD PTR __Fixnodeparent$[ebp]
  0055c	51		 push	 ecx
  0055d	e8 00 00 00 00	 call	 ?_Color@?$_Tree@V?$_Tmap_traits@HPAVBaseDialog@@U?$less@H@std@@V?$allocator@U?$pair@$$CBHPAVBaseDialog@@@std@@@3@$0A@@std@@@std@@KAAADPAU_Node@?$_Tree_nod@V?$_Tmap_traits@HPAVBaseDialog@@U?$less@H@std@@V?$allocator@U?$pair@$$CBHPAVBaseDialog@@@std@@@3@$0A@@std@@@2@@Z ; std::_Tree<std::_Tmap_traits<int,BaseDialog *,std::less<int>,std::allocator<std::pair<int const ,BaseDialog *> >,0> >::_Color
  00562	83 c4 04	 add	 esp, 4
  00565	8b f0		 mov	 esi, eax
  00567	8b 55 e8	 mov	 edx, DWORD PTR __Pnode$[ebp]
  0056a	52		 push	 edx
  0056b	e8 00 00 00 00	 call	 ?_Color@?$_Tree@V?$_Tmap_traits@HPAVBaseDialog@@U?$less@H@std@@V?$allocator@U?$pair@$$CBHPAVBaseDialog@@@std@@@3@$0A@@std@@@std@@KAAADPAU_Node@?$_Tree_nod@V?$_Tmap_traits@HPAVBaseDialog@@U?$less@H@std@@V?$allocator@U?$pair@$$CBHPAVBaseDialog@@@std@@@3@$0A@@std@@@2@@Z ; std::_Tree<std::_Tmap_traits<int,BaseDialog *,std::less<int>,std::allocator<std::pair<int const ,BaseDialog *> >,0> >::_Color
  00570	83 c4 04	 add	 esp, 4
  00573	8a 0e		 mov	 cl, BYTE PTR [esi]
  00575	88 08		 mov	 BYTE PTR [eax], cl

; 695  : 						_Color(_Fixnodeparent) = _Black;

  00577	8b 55 e4	 mov	 edx, DWORD PTR __Fixnodeparent$[ebp]
  0057a	52		 push	 edx
  0057b	e8 00 00 00 00	 call	 ?_Color@?$_Tree@V?$_Tmap_traits@HPAVBaseDialog@@U?$less@H@std@@V?$allocator@U?$pair@$$CBHPAVBaseDialog@@@std@@@3@$0A@@std@@@std@@KAAADPAU_Node@?$_Tree_nod@V?$_Tmap_traits@HPAVBaseDialog@@U?$less@H@std@@V?$allocator@U?$pair@$$CBHPAVBaseDialog@@@std@@@3@$0A@@std@@@2@@Z ; std::_Tree<std::_Tmap_traits<int,BaseDialog *,std::less<int>,std::allocator<std::pair<int const ,BaseDialog *> >,0> >::_Color
  00580	83 c4 04	 add	 esp, 4
  00583	c6 00 01	 mov	 BYTE PTR [eax], 1

; 696  : 						_Color(_Right(_Pnode)) = _Black;

  00586	8b 45 e8	 mov	 eax, DWORD PTR __Pnode$[ebp]
  00589	50		 push	 eax
  0058a	e8 00 00 00 00	 call	 ?_Right@?$_Tree@V?$_Tmap_traits@HPAVBaseDialog@@U?$less@H@std@@V?$allocator@U?$pair@$$CBHPAVBaseDialog@@@std@@@3@$0A@@std@@@std@@KAAAPAU_Node@?$_Tree_nod@V?$_Tmap_traits@HPAVBaseDialog@@U?$less@H@std@@V?$allocator@U?$pair@$$CBHPAVBaseDialog@@@std@@@3@$0A@@std@@@2@PAU342@@Z ; std::_Tree<std::_Tmap_traits<int,BaseDialog *,std::less<int>,std::allocator<std::pair<int const ,BaseDialog *> >,0> >::_Right
  0058f	83 c4 04	 add	 esp, 4
  00592	8b 08		 mov	 ecx, DWORD PTR [eax]
  00594	51		 push	 ecx
  00595	e8 00 00 00 00	 call	 ?_Color@?$_Tree@V?$_Tmap_traits@HPAVBaseDialog@@U?$less@H@std@@V?$allocator@U?$pair@$$CBHPAVBaseDialog@@@std@@@3@$0A@@std@@@std@@KAAADPAU_Node@?$_Tree_nod@V?$_Tmap_traits@HPAVBaseDialog@@U?$less@H@std@@V?$allocator@U?$pair@$$CBHPAVBaseDialog@@@std@@@3@$0A@@std@@@2@@Z ; std::_Tree<std::_Tmap_traits<int,BaseDialog *,std::less<int>,std::allocator<std::pair<int const ,BaseDialog *> >,0> >::_Color
  0059a	83 c4 04	 add	 esp, 4
  0059d	c6 00 01	 mov	 BYTE PTR [eax], 1

; 697  : 						_Lrotate(_Fixnodeparent);

  005a0	8b 55 e4	 mov	 edx, DWORD PTR __Fixnodeparent$[ebp]
  005a3	52		 push	 edx
  005a4	8b 4d 9c	 mov	 ecx, DWORD PTR _this$[ebp]
  005a7	e8 00 00 00 00	 call	 ?_Lrotate@?$_Tree@V?$_Tmap_traits@HPAVBaseDialog@@U?$less@H@std@@V?$allocator@U?$pair@$$CBHPAVBaseDialog@@@std@@@3@$0A@@std@@@std@@IAEXPAU_Node@?$_Tree_nod@V?$_Tmap_traits@HPAVBaseDialog@@U?$less@H@std@@V?$allocator@U?$pair@$$CBHPAVBaseDialog@@@std@@@3@$0A@@std@@@2@@Z ; std::_Tree<std::_Tmap_traits<int,BaseDialog *,std::less<int>,std::allocator<std::pair<int const ,BaseDialog *> >,0> >::_Lrotate

; 698  : 						break;	// tree now recolored/rebalanced

  005ac	e9 99 01 00 00	 jmp	 $L199074
$L199078:

; 699  : 						}
; 700  : 					}
; 701  : 				else

  005b1	e9 8f 01 00 00	 jmp	 $L199082
$L199075:

; 702  : 					{	// fixup right subtree
; 703  : 					_Pnode = _Left(_Fixnodeparent);

  005b6	8b 45 e4	 mov	 eax, DWORD PTR __Fixnodeparent$[ebp]
  005b9	50		 push	 eax
  005ba	e8 00 00 00 00	 call	 ?_Left@?$_Tree@V?$_Tmap_traits@HPAVBaseDialog@@U?$less@H@std@@V?$allocator@U?$pair@$$CBHPAVBaseDialog@@@std@@@3@$0A@@std@@@std@@KAAAPAU_Node@?$_Tree_nod@V?$_Tmap_traits@HPAVBaseDialog@@U?$less@H@std@@V?$allocator@U?$pair@$$CBHPAVBaseDialog@@@std@@@3@$0A@@std@@@2@PAU342@@Z ; std::_Tree<std::_Tmap_traits<int,BaseDialog *,std::less<int>,std::allocator<std::pair<int const ,BaseDialog *> >,0> >::_Left
  005bf	83 c4 04	 add	 esp, 4
  005c2	8b 08		 mov	 ecx, DWORD PTR [eax]
  005c4	89 4d e8	 mov	 DWORD PTR __Pnode$[ebp], ecx

; 704  : 					if (_Color(_Pnode) == _Red)

  005c7	8b 55 e8	 mov	 edx, DWORD PTR __Pnode$[ebp]
  005ca	52		 push	 edx
  005cb	e8 00 00 00 00	 call	 ?_Color@?$_Tree@V?$_Tmap_traits@HPAVBaseDialog@@U?$less@H@std@@V?$allocator@U?$pair@$$CBHPAVBaseDialog@@@std@@@3@$0A@@std@@@std@@KAAADPAU_Node@?$_Tree_nod@V?$_Tmap_traits@HPAVBaseDialog@@U?$less@H@std@@V?$allocator@U?$pair@$$CBHPAVBaseDialog@@@std@@@3@$0A@@std@@@2@@Z ; std::_Tree<std::_Tmap_traits<int,BaseDialog *,std::less<int>,std::allocator<std::pair<int const ,BaseDialog *> >,0> >::_Color
  005d0	83 c4 04	 add	 esp, 4
  005d3	0f be 00	 movsx	 eax, BYTE PTR [eax]
  005d6	85 c0		 test	 eax, eax
  005d8	75 3b		 jne	 SHORT $L199083

; 705  : 						{	// rotate red up from left subtree
; 706  : 						_Color(_Pnode) = _Black;

  005da	8b 4d e8	 mov	 ecx, DWORD PTR __Pnode$[ebp]
  005dd	51		 push	 ecx
  005de	e8 00 00 00 00	 call	 ?_Color@?$_Tree@V?$_Tmap_traits@HPAVBaseDialog@@U?$less@H@std@@V?$allocator@U?$pair@$$CBHPAVBaseDialog@@@std@@@3@$0A@@std@@@std@@KAAADPAU_Node@?$_Tree_nod@V?$_Tmap_traits@HPAVBaseDialog@@U?$less@H@std@@V?$allocator@U?$pair@$$CBHPAVBaseDialog@@@std@@@3@$0A@@std@@@2@@Z ; std::_Tree<std::_Tmap_traits<int,BaseDialog *,std::less<int>,std::allocator<std::pair<int const ,BaseDialog *> >,0> >::_Color
  005e3	83 c4 04	 add	 esp, 4
  005e6	c6 00 01	 mov	 BYTE PTR [eax], 1

; 707  : 						_Color(_Fixnodeparent) = _Red;

  005e9	8b 55 e4	 mov	 edx, DWORD PTR __Fixnodeparent$[ebp]
  005ec	52		 push	 edx
  005ed	e8 00 00 00 00	 call	 ?_Color@?$_Tree@V?$_Tmap_traits@HPAVBaseDialog@@U?$less@H@std@@V?$allocator@U?$pair@$$CBHPAVBaseDialog@@@std@@@3@$0A@@std@@@std@@KAAADPAU_Node@?$_Tree_nod@V?$_Tmap_traits@HPAVBaseDialog@@U?$less@H@std@@V?$allocator@U?$pair@$$CBHPAVBaseDialog@@@std@@@3@$0A@@std@@@2@@Z ; std::_Tree<std::_Tmap_traits<int,BaseDialog *,std::less<int>,std::allocator<std::pair<int const ,BaseDialog *> >,0> >::_Color
  005f2	83 c4 04	 add	 esp, 4
  005f5	c6 00 00	 mov	 BYTE PTR [eax], 0

; 708  : 						_Rrotate(_Fixnodeparent);

  005f8	8b 45 e4	 mov	 eax, DWORD PTR __Fixnodeparent$[ebp]
  005fb	50		 push	 eax
  005fc	8b 4d 9c	 mov	 ecx, DWORD PTR _this$[ebp]
  005ff	e8 00 00 00 00	 call	 ?_Rrotate@?$_Tree@V?$_Tmap_traits@HPAVBaseDialog@@U?$less@H@std@@V?$allocator@U?$pair@$$CBHPAVBaseDialog@@@std@@@3@$0A@@std@@@std@@IAEXPAU_Node@?$_Tree_nod@V?$_Tmap_traits@HPAVBaseDialog@@U?$less@H@std@@V?$allocator@U?$pair@$$CBHPAVBaseDialog@@@std@@@3@$0A@@std@@@2@@Z ; std::_Tree<std::_Tmap_traits<int,BaseDialog *,std::less<int>,std::allocator<std::pair<int const ,BaseDialog *> >,0> >::_Rrotate

; 709  : 						_Pnode = _Left(_Fixnodeparent);

  00604	8b 4d e4	 mov	 ecx, DWORD PTR __Fixnodeparent$[ebp]
  00607	51		 push	 ecx
  00608	e8 00 00 00 00	 call	 ?_Left@?$_Tree@V?$_Tmap_traits@HPAVBaseDialog@@U?$less@H@std@@V?$allocator@U?$pair@$$CBHPAVBaseDialog@@@std@@@3@$0A@@std@@@std@@KAAAPAU_Node@?$_Tree_nod@V?$_Tmap_traits@HPAVBaseDialog@@U?$less@H@std@@V?$allocator@U?$pair@$$CBHPAVBaseDialog@@@std@@@3@$0A@@std@@@2@PAU342@@Z ; std::_Tree<std::_Tmap_traits<int,BaseDialog *,std::less<int>,std::allocator<std::pair<int const ,BaseDialog *> >,0> >::_Left
  0060d	83 c4 04	 add	 esp, 4
  00610	8b 10		 mov	 edx, DWORD PTR [eax]
  00612	89 55 e8	 mov	 DWORD PTR __Pnode$[ebp], edx
$L199083:

; 710  : 						}
; 711  : 					if (_Isnil(_Pnode))

  00615	8b 45 e8	 mov	 eax, DWORD PTR __Pnode$[ebp]
  00618	50		 push	 eax
  00619	e8 00 00 00 00	 call	 ?_Isnil@?$_Tree@V?$_Tmap_traits@HPAVBaseDialog@@U?$less@H@std@@V?$allocator@U?$pair@$$CBHPAVBaseDialog@@@std@@@3@$0A@@std@@@std@@KAAADPAU_Node@?$_Tree_nod@V?$_Tmap_traits@HPAVBaseDialog@@U?$less@H@std@@V?$allocator@U?$pair@$$CBHPAVBaseDialog@@@std@@@3@$0A@@std@@@2@@Z ; std::_Tree<std::_Tmap_traits<int,BaseDialog *,std::less<int>,std::allocator<std::pair<int const ,BaseDialog *> >,0> >::_Isnil
  0061e	83 c4 04	 add	 esp, 4
  00621	0f be 08	 movsx	 ecx, BYTE PTR [eax]
  00624	85 c9		 test	 ecx, ecx
  00626	74 0b		 je	 SHORT $L199084

; 712  : 						_Fixnode = _Fixnodeparent;	// shouldn't happen

  00628	8b 55 e4	 mov	 edx, DWORD PTR __Fixnodeparent$[ebp]
  0062b	89 55 ec	 mov	 DWORD PTR __Fixnode$[ebp], edx

; 713  : 					else if (_Color(_Right(_Pnode)) == _Black

  0062e	e9 12 01 00 00	 jmp	 $L199082
$L199084:

; 714  : 						&& _Color(_Left(_Pnode)) == _Black)

  00633	8b 45 e8	 mov	 eax, DWORD PTR __Pnode$[ebp]
  00636	50		 push	 eax
  00637	e8 00 00 00 00	 call	 ?_Right@?$_Tree@V?$_Tmap_traits@HPAVBaseDialog@@U?$less@H@std@@V?$allocator@U?$pair@$$CBHPAVBaseDialog@@@std@@@3@$0A@@std@@@std@@KAAAPAU_Node@?$_Tree_nod@V?$_Tmap_traits@HPAVBaseDialog@@U?$less@H@std@@V?$allocator@U?$pair@$$CBHPAVBaseDialog@@@std@@@3@$0A@@std@@@2@PAU342@@Z ; std::_Tree<std::_Tmap_traits<int,BaseDialog *,std::less<int>,std::allocator<std::pair<int const ,BaseDialog *> >,0> >::_Right
  0063c	83 c4 04	 add	 esp, 4
  0063f	8b 08		 mov	 ecx, DWORD PTR [eax]
  00641	51		 push	 ecx
  00642	e8 00 00 00 00	 call	 ?_Color@?$_Tree@V?$_Tmap_traits@HPAVBaseDialog@@U?$less@H@std@@V?$allocator@U?$pair@$$CBHPAVBaseDialog@@@std@@@3@$0A@@std@@@std@@KAAADPAU_Node@?$_Tree_nod@V?$_Tmap_traits@HPAVBaseDialog@@U?$less@H@std@@V?$allocator@U?$pair@$$CBHPAVBaseDialog@@@std@@@3@$0A@@std@@@2@@Z ; std::_Tree<std::_Tmap_traits<int,BaseDialog *,std::less<int>,std::allocator<std::pair<int const ,BaseDialog *> >,0> >::_Color
  00647	83 c4 04	 add	 esp, 4
  0064a	0f be 10	 movsx	 edx, BYTE PTR [eax]
  0064d	83 fa 01	 cmp	 edx, 1
  00650	75 39		 jne	 SHORT $L199086
  00652	8b 45 e8	 mov	 eax, DWORD PTR __Pnode$[ebp]
  00655	50		 push	 eax
  00656	e8 00 00 00 00	 call	 ?_Left@?$_Tree@V?$_Tmap_traits@HPAVBaseDialog@@U?$less@H@std@@V?$allocator@U?$pair@$$CBHPAVBaseDialog@@@std@@@3@$0A@@std@@@std@@KAAAPAU_Node@?$_Tree_nod@V?$_Tmap_traits@HPAVBaseDialog@@U?$less@H@std@@V?$allocator@U?$pair@$$CBHPAVBaseDialog@@@std@@@3@$0A@@std@@@2@PAU342@@Z ; std::_Tree<std::_Tmap_traits<int,BaseDialog *,std::less<int>,std::allocator<std::pair<int const ,BaseDialog *> >,0> >::_Left
  0065b	83 c4 04	 add	 esp, 4
  0065e	8b 08		 mov	 ecx, DWORD PTR [eax]
  00660	51		 push	 ecx
  00661	e8 00 00 00 00	 call	 ?_Color@?$_Tree@V?$_Tmap_traits@HPAVBaseDialog@@U?$less@H@std@@V?$allocator@U?$pair@$$CBHPAVBaseDialog@@@std@@@3@$0A@@std@@@std@@KAAADPAU_Node@?$_Tree_nod@V?$_Tmap_traits@HPAVBaseDialog@@U?$less@H@std@@V?$allocator@U?$pair@$$CBHPAVBaseDialog@@@std@@@3@$0A@@std@@@2@@Z ; std::_Tree<std::_Tmap_traits<int,BaseDialog *,std::less<int>,std::allocator<std::pair<int const ,BaseDialog *> >,0> >::_Color
  00666	83 c4 04	 add	 esp, 4
  00669	0f be 10	 movsx	 edx, BYTE PTR [eax]
  0066c	83 fa 01	 cmp	 edx, 1
  0066f	75 1a		 jne	 SHORT $L199086

; 715  : 						{	// redden left subtree with black children
; 716  : 						_Color(_Pnode) = _Red;

  00671	8b 45 e8	 mov	 eax, DWORD PTR __Pnode$[ebp]
  00674	50		 push	 eax
  00675	e8 00 00 00 00	 call	 ?_Color@?$_Tree@V?$_Tmap_traits@HPAVBaseDialog@@U?$less@H@std@@V?$allocator@U?$pair@$$CBHPAVBaseDialog@@@std@@@3@$0A@@std@@@std@@KAAADPAU_Node@?$_Tree_nod@V?$_Tmap_traits@HPAVBaseDialog@@U?$less@H@std@@V?$allocator@U?$pair@$$CBHPAVBaseDialog@@@std@@@3@$0A@@std@@@2@@Z ; std::_Tree<std::_Tmap_traits<int,BaseDialog *,std::less<int>,std::allocator<std::pair<int const ,BaseDialog *> >,0> >::_Color
  0067a	83 c4 04	 add	 esp, 4
  0067d	c6 00 00	 mov	 BYTE PTR [eax], 0

; 717  : 						_Fixnode = _Fixnodeparent;

  00680	8b 4d e4	 mov	 ecx, DWORD PTR __Fixnodeparent$[ebp]
  00683	89 4d ec	 mov	 DWORD PTR __Fixnode$[ebp], ecx

; 718  : 						}
; 719  : 					else

  00686	e9 ba 00 00 00	 jmp	 $L199082
$L199086:

; 720  : 						{	// must rearrange left subtree
; 721  : 						if (_Color(_Left(_Pnode)) == _Black)

  0068b	8b 55 e8	 mov	 edx, DWORD PTR __Pnode$[ebp]
  0068e	52		 push	 edx
  0068f	e8 00 00 00 00	 call	 ?_Left@?$_Tree@V?$_Tmap_traits@HPAVBaseDialog@@U?$less@H@std@@V?$allocator@U?$pair@$$CBHPAVBaseDialog@@@std@@@3@$0A@@std@@@std@@KAAAPAU_Node@?$_Tree_nod@V?$_Tmap_traits@HPAVBaseDialog@@U?$less@H@std@@V?$allocator@U?$pair@$$CBHPAVBaseDialog@@@std@@@3@$0A@@std@@@2@PAU342@@Z ; std::_Tree<std::_Tmap_traits<int,BaseDialog *,std::less<int>,std::allocator<std::pair<int const ,BaseDialog *> >,0> >::_Left
  00694	83 c4 04	 add	 esp, 4
  00697	8b 00		 mov	 eax, DWORD PTR [eax]
  00699	50		 push	 eax
  0069a	e8 00 00 00 00	 call	 ?_Color@?$_Tree@V?$_Tmap_traits@HPAVBaseDialog@@U?$less@H@std@@V?$allocator@U?$pair@$$CBHPAVBaseDialog@@@std@@@3@$0A@@std@@@std@@KAAADPAU_Node@?$_Tree_nod@V?$_Tmap_traits@HPAVBaseDialog@@U?$less@H@std@@V?$allocator@U?$pair@$$CBHPAVBaseDialog@@@std@@@3@$0A@@std@@@2@@Z ; std::_Tree<std::_Tmap_traits<int,BaseDialog *,std::less<int>,std::allocator<std::pair<int const ,BaseDialog *> >,0> >::_Color
  0069f	83 c4 04	 add	 esp, 4
  006a2	0f be 08	 movsx	 ecx, BYTE PTR [eax]
  006a5	83 f9 01	 cmp	 ecx, 1
  006a8	75 46		 jne	 SHORT $L199088

; 722  : 							{	// rotate red up from right sub-subtree
; 723  : 							_Color(_Right(_Pnode)) = _Black;

  006aa	8b 55 e8	 mov	 edx, DWORD PTR __Pnode$[ebp]
  006ad	52		 push	 edx
  006ae	e8 00 00 00 00	 call	 ?_Right@?$_Tree@V?$_Tmap_traits@HPAVBaseDialog@@U?$less@H@std@@V?$allocator@U?$pair@$$CBHPAVBaseDialog@@@std@@@3@$0A@@std@@@std@@KAAAPAU_Node@?$_Tree_nod@V?$_Tmap_traits@HPAVBaseDialog@@U?$less@H@std@@V?$allocator@U?$pair@$$CBHPAVBaseDialog@@@std@@@3@$0A@@std@@@2@PAU342@@Z ; std::_Tree<std::_Tmap_traits<int,BaseDialog *,std::less<int>,std::allocator<std::pair<int const ,BaseDialog *> >,0> >::_Right
  006b3	83 c4 04	 add	 esp, 4
  006b6	8b 00		 mov	 eax, DWORD PTR [eax]
  006b8	50		 push	 eax
  006b9	e8 00 00 00 00	 call	 ?_Color@?$_Tree@V?$_Tmap_traits@HPAVBaseDialog@@U?$less@H@std@@V?$allocator@U?$pair@$$CBHPAVBaseDialog@@@std@@@3@$0A@@std@@@std@@KAAADPAU_Node@?$_Tree_nod@V?$_Tmap_traits@HPAVBaseDialog@@U?$less@H@std@@V?$allocator@U?$pair@$$CBHPAVBaseDialog@@@std@@@3@$0A@@std@@@2@@Z ; std::_Tree<std::_Tmap_traits<int,BaseDialog *,std::less<int>,std::allocator<std::pair<int const ,BaseDialog *> >,0> >::_Color
  006be	83 c4 04	 add	 esp, 4
  006c1	c6 00 01	 mov	 BYTE PTR [eax], 1

; 724  : 							_Color(_Pnode) = _Red;

  006c4	8b 4d e8	 mov	 ecx, DWORD PTR __Pnode$[ebp]
  006c7	51		 push	 ecx
  006c8	e8 00 00 00 00	 call	 ?_Color@?$_Tree@V?$_Tmap_traits@HPAVBaseDialog@@U?$less@H@std@@V?$allocator@U?$pair@$$CBHPAVBaseDialog@@@std@@@3@$0A@@std@@@std@@KAAADPAU_Node@?$_Tree_nod@V?$_Tmap_traits@HPAVBaseDialog@@U?$less@H@std@@V?$allocator@U?$pair@$$CBHPAVBaseDialog@@@std@@@3@$0A@@std@@@2@@Z ; std::_Tree<std::_Tmap_traits<int,BaseDialog *,std::less<int>,std::allocator<std::pair<int const ,BaseDialog *> >,0> >::_Color
  006cd	83 c4 04	 add	 esp, 4
  006d0	c6 00 00	 mov	 BYTE PTR [eax], 0

; 725  : 							_Lrotate(_Pnode);

  006d3	8b 55 e8	 mov	 edx, DWORD PTR __Pnode$[ebp]
  006d6	52		 push	 edx
  006d7	8b 4d 9c	 mov	 ecx, DWORD PTR _this$[ebp]
  006da	e8 00 00 00 00	 call	 ?_Lrotate@?$_Tree@V?$_Tmap_traits@HPAVBaseDialog@@U?$less@H@std@@V?$allocator@U?$pair@$$CBHPAVBaseDialog@@@std@@@3@$0A@@std@@@std@@IAEXPAU_Node@?$_Tree_nod@V?$_Tmap_traits@HPAVBaseDialog@@U?$less@H@std@@V?$allocator@U?$pair@$$CBHPAVBaseDialog@@@std@@@3@$0A@@std@@@2@@Z ; std::_Tree<std::_Tmap_traits<int,BaseDialog *,std::less<int>,std::allocator<std::pair<int const ,BaseDialog *> >,0> >::_Lrotate

; 726  : 							_Pnode = _Left(_Fixnodeparent);

  006df	8b 45 e4	 mov	 eax, DWORD PTR __Fixnodeparent$[ebp]
  006e2	50		 push	 eax
  006e3	e8 00 00 00 00	 call	 ?_Left@?$_Tree@V?$_Tmap_traits@HPAVBaseDialog@@U?$less@H@std@@V?$allocator@U?$pair@$$CBHPAVBaseDialog@@@std@@@3@$0A@@std@@@std@@KAAAPAU_Node@?$_Tree_nod@V?$_Tmap_traits@HPAVBaseDialog@@U?$less@H@std@@V?$allocator@U?$pair@$$CBHPAVBaseDialog@@@std@@@3@$0A@@std@@@2@PAU342@@Z ; std::_Tree<std::_Tmap_traits<int,BaseDialog *,std::less<int>,std::allocator<std::pair<int const ,BaseDialog *> >,0> >::_Left
  006e8	83 c4 04	 add	 esp, 4
  006eb	8b 08		 mov	 ecx, DWORD PTR [eax]
  006ed	89 4d e8	 mov	 DWORD PTR __Pnode$[ebp], ecx
$L199088:

; 727  : 							}
; 728  : 
; 729  : 						_Color(_Pnode) = _Color(_Fixnodeparent);

  006f0	8b 55 e4	 mov	 edx, DWORD PTR __Fixnodeparent$[ebp]
  006f3	52		 push	 edx
  006f4	e8 00 00 00 00	 call	 ?_Color@?$_Tree@V?$_Tmap_traits@HPAVBaseDialog@@U?$less@H@std@@V?$allocator@U?$pair@$$CBHPAVBaseDialog@@@std@@@3@$0A@@std@@@std@@KAAADPAU_Node@?$_Tree_nod@V?$_Tmap_traits@HPAVBaseDialog@@U?$less@H@std@@V?$allocator@U?$pair@$$CBHPAVBaseDialog@@@std@@@3@$0A@@std@@@2@@Z ; std::_Tree<std::_Tmap_traits<int,BaseDialog *,std::less<int>,std::allocator<std::pair<int const ,BaseDialog *> >,0> >::_Color
  006f9	83 c4 04	 add	 esp, 4
  006fc	8b f0		 mov	 esi, eax
  006fe	8b 45 e8	 mov	 eax, DWORD PTR __Pnode$[ebp]
  00701	50		 push	 eax
  00702	e8 00 00 00 00	 call	 ?_Color@?$_Tree@V?$_Tmap_traits@HPAVBaseDialog@@U?$less@H@std@@V?$allocator@U?$pair@$$CBHPAVBaseDialog@@@std@@@3@$0A@@std@@@std@@KAAADPAU_Node@?$_Tree_nod@V?$_Tmap_traits@HPAVBaseDialog@@U?$less@H@std@@V?$allocator@U?$pair@$$CBHPAVBaseDialog@@@std@@@3@$0A@@std@@@2@@Z ; std::_Tree<std::_Tmap_traits<int,BaseDialog *,std::less<int>,std::allocator<std::pair<int const ,BaseDialog *> >,0> >::_Color
  00707	83 c4 04	 add	 esp, 4
  0070a	8a 0e		 mov	 cl, BYTE PTR [esi]
  0070c	88 08		 mov	 BYTE PTR [eax], cl

; 730  : 						_Color(_Fixnodeparent) = _Black;

  0070e	8b 55 e4	 mov	 edx, DWORD PTR __Fixnodeparent$[ebp]
  00711	52		 push	 edx
  00712	e8 00 00 00 00	 call	 ?_Color@?$_Tree@V?$_Tmap_traits@HPAVBaseDialog@@U?$less@H@std@@V?$allocator@U?$pair@$$CBHPAVBaseDialog@@@std@@@3@$0A@@std@@@std@@KAAADPAU_Node@?$_Tree_nod@V?$_Tmap_traits@HPAVBaseDialog@@U?$less@H@std@@V?$allocator@U?$pair@$$CBHPAVBaseDialog@@@std@@@3@$0A@@std@@@2@@Z ; std::_Tree<std::_Tmap_traits<int,BaseDialog *,std::less<int>,std::allocator<std::pair<int const ,BaseDialog *> >,0> >::_Color
  00717	83 c4 04	 add	 esp, 4
  0071a	c6 00 01	 mov	 BYTE PTR [eax], 1

; 731  : 						_Color(_Left(_Pnode)) = _Black;

  0071d	8b 45 e8	 mov	 eax, DWORD PTR __Pnode$[ebp]
  00720	50		 push	 eax
  00721	e8 00 00 00 00	 call	 ?_Left@?$_Tree@V?$_Tmap_traits@HPAVBaseDialog@@U?$less@H@std@@V?$allocator@U?$pair@$$CBHPAVBaseDialog@@@std@@@3@$0A@@std@@@std@@KAAAPAU_Node@?$_Tree_nod@V?$_Tmap_traits@HPAVBaseDialog@@U?$less@H@std@@V?$allocator@U?$pair@$$CBHPAVBaseDialog@@@std@@@3@$0A@@std@@@2@PAU342@@Z ; std::_Tree<std::_Tmap_traits<int,BaseDialog *,std::less<int>,std::allocator<std::pair<int const ,BaseDialog *> >,0> >::_Left
  00726	83 c4 04	 add	 esp, 4
  00729	8b 08		 mov	 ecx, DWORD PTR [eax]
  0072b	51		 push	 ecx
  0072c	e8 00 00 00 00	 call	 ?_Color@?$_Tree@V?$_Tmap_traits@HPAVBaseDialog@@U?$less@H@std@@V?$allocator@U?$pair@$$CBHPAVBaseDialog@@@std@@@3@$0A@@std@@@std@@KAAADPAU_Node@?$_Tree_nod@V?$_Tmap_traits@HPAVBaseDialog@@U?$less@H@std@@V?$allocator@U?$pair@$$CBHPAVBaseDialog@@@std@@@3@$0A@@std@@@2@@Z ; std::_Tree<std::_Tmap_traits<int,BaseDialog *,std::less<int>,std::allocator<std::pair<int const ,BaseDialog *> >,0> >::_Color
  00731	83 c4 04	 add	 esp, 4
  00734	c6 00 01	 mov	 BYTE PTR [eax], 1

; 732  : 						_Rrotate(_Fixnodeparent);

  00737	8b 55 e4	 mov	 edx, DWORD PTR __Fixnodeparent$[ebp]
  0073a	52		 push	 edx
  0073b	8b 4d 9c	 mov	 ecx, DWORD PTR _this$[ebp]
  0073e	e8 00 00 00 00	 call	 ?_Rrotate@?$_Tree@V?$_Tmap_traits@HPAVBaseDialog@@U?$less@H@std@@V?$allocator@U?$pair@$$CBHPAVBaseDialog@@@std@@@3@$0A@@std@@@std@@IAEXPAU_Node@?$_Tree_nod@V?$_Tmap_traits@HPAVBaseDialog@@U?$less@H@std@@V?$allocator@U?$pair@$$CBHPAVBaseDialog@@@std@@@3@$0A@@std@@@2@@Z ; std::_Tree<std::_Tmap_traits<int,BaseDialog *,std::less<int>,std::allocator<std::pair<int const ,BaseDialog *> >,0> >::_Rrotate

; 733  : 						break;	// tree now recolored/rebalanced

  00743	eb 05		 jmp	 SHORT $L199074
$L199082:

; 734  : 						}
; 735  : 					}

  00745	e9 82 fc ff ff	 jmp	 $L199073
$L199074:

; 736  : 
; 737  : 			_Color(_Fixnode) = _Black;	// ensure stopping node is black

  0074a	8b 45 ec	 mov	 eax, DWORD PTR __Fixnode$[ebp]
  0074d	50		 push	 eax
  0074e	e8 00 00 00 00	 call	 ?_Color@?$_Tree@V?$_Tmap_traits@HPAVBaseDialog@@U?$less@H@std@@V?$allocator@U?$pair@$$CBHPAVBaseDialog@@@std@@@3@$0A@@std@@@std@@KAAADPAU_Node@?$_Tree_nod@V?$_Tmap_traits@HPAVBaseDialog@@U?$less@H@std@@V?$allocator@U?$pair@$$CBHPAVBaseDialog@@@std@@@3@$0A@@std@@@2@@Z ; std::_Tree<std::_Tmap_traits<int,BaseDialog *,std::less<int>,std::allocator<std::pair<int const ,BaseDialog *> >,0> >::_Color
  00753	83 c4 04	 add	 esp, 4
  00756	c6 00 01	 mov	 BYTE PTR [eax], 1
$L199071:

; 738  : 			}
; 739  : 
; 740  : 		this->_Alnod.destroy(_Erasednode);	// destroy, free erased node

  00759	8b 4d f0	 mov	 ecx, DWORD PTR __Erasednode$[ebp]
  0075c	51		 push	 ecx
  0075d	8b 4d 9c	 mov	 ecx, DWORD PTR _this$[ebp]
  00760	83 c1 01	 add	 ecx, 1
  00763	e8 00 00 00 00	 call	 ?destroy@?$allocator@U_Node@?$_Tree_nod@V?$_Tmap_traits@HPAVBaseDialog@@U?$less@H@std@@V?$allocator@U?$pair@$$CBHPAVBaseDialog@@@std@@@3@$0A@@std@@@std@@@std@@QAEXPAU_Node@?$_Tree_nod@V?$_Tmap_traits@HPAVBaseDialog@@U?$less@H@std@@V?$allocator@U?$pair@$$CBHPAVBaseDialog@@@std@@@3@$0A@@std@@@2@@Z ; std::allocator<std::_Tree_nod<std::_Tmap_traits<int,BaseDialog *,std::less<int>,std::allocator<std::pair<int const ,BaseDialog *> >,0> >::_Node>::destroy

; 741  : 		this->_Alnod.deallocate(_Erasednode, 1);

  00768	6a 01		 push	 1
  0076a	8b 55 f0	 mov	 edx, DWORD PTR __Erasednode$[ebp]
  0076d	52		 push	 edx
  0076e	8b 4d 9c	 mov	 ecx, DWORD PTR _this$[ebp]
  00771	83 c1 01	 add	 ecx, 1
  00774	e8 00 00 00 00	 call	 ?deallocate@?$allocator@U_Node@?$_Tree_nod@V?$_Tmap_traits@HPAVBaseDialog@@U?$less@H@std@@V?$allocator@U?$pair@$$CBHPAVBaseDialog@@@std@@@3@$0A@@std@@@std@@@std@@QAEXPAU_Node@?$_Tree_nod@V?$_Tmap_traits@HPAVBaseDialog@@U?$less@H@std@@V?$allocator@U?$pair@$$CBHPAVBaseDialog@@@std@@@3@$0A@@std@@@2@I@Z ; std::allocator<std::_Tree_nod<std::_Tmap_traits<int,BaseDialog *,std::less<int>,std::allocator<std::pair<int const ,BaseDialog *> >,0> >::_Node>::deallocate

; 742  : 
; 743  : 		if (0 < _Mysize)

  00779	8b 45 9c	 mov	 eax, DWORD PTR _this$[ebp]
  0077c	83 78 08 00	 cmp	 DWORD PTR [eax+8], 0
  00780	76 0f		 jbe	 SHORT $L199089

; 744  : 			--_Mysize;

  00782	8b 4d 9c	 mov	 ecx, DWORD PTR _this$[ebp]
  00785	8b 51 08	 mov	 edx, DWORD PTR [ecx+8]
  00788	83 ea 01	 sub	 edx, 1
  0078b	8b 45 9c	 mov	 eax, DWORD PTR _this$[ebp]
  0078e	89 50 08	 mov	 DWORD PTR [eax+8], edx
$L199089:

; 745  : 
; 746  : 		return (_Where);	// return successor iterator

  00791	8b 4d 08	 mov	 ecx, DWORD PTR ___$ReturnUdt$[ebp]
  00794	8b 55 0c	 mov	 edx, DWORD PTR __Where$[ebp]
  00797	89 11		 mov	 DWORD PTR [ecx], edx
  00799	8b 45 08	 mov	 eax, DWORD PTR ___$ReturnUdt$[ebp]
$L199999:

; 747  : 		}

  0079c	8b 4d f4	 mov	 ecx, DWORD PTR __$EHRec$[ebp]
  0079f	64 89 0d 00 00
	00 00		 mov	 DWORD PTR fs:__except_list, ecx
  007a6	5e		 pop	 esi
  007a7	8b e5		 mov	 esp, ebp
  007a9	5d		 pop	 ebp
  007aa	c2 08 00	 ret	 8
_TEXT	ENDS
;	COMDAT text$x
text$x	SEGMENT
$L200006:
  00000	8d 4d a0	 lea	 ecx, DWORD PTR $T200001[ebp]
  00003	ff 25 00 00 00
	00		 jmp	 DWORD PTR __imp_??1?$basic_string@DU?$char_traits@D@std@@V?$allocator@D@2@@std@@QAE@XZ
__ehhandler$?erase@?$_Tree@V?$_Tmap_traits@HPAVBaseDialog@@U?$less@H@std@@V?$allocator@U?$pair@$$CBHPAVBaseDialog@@@std@@@3@$0A@@std@@@std@@QAE?AViterator@12@V312@@Z:
  00009	b8 00 00 00 00	 mov	 eax, OFFSET FLAT:$T200008
  0000e	e9 00 00 00 00	 jmp	 ___CxxFrameHandler
text$x	ENDS
?erase@?$_Tree@V?$_Tmap_traits@HPAVBaseDialog@@U?$less@H@std@@V?$allocator@U?$pair@$$CBHPAVBaseDialog@@@std@@@3@$0A@@std@@@std@@QAE?AViterator@12@V312@@Z ENDP ; std::_Tree<std::_Tmap_traits<int,BaseDialog *,std::less<int>,std::allocator<std::pair<int const ,BaseDialog *> >,0> >::erase
PUBLIC	?_Erase@?$_Tree@V?$_Tmap_traits@HPAVBaseDialog@@U?$less@H@std@@V?$allocator@U?$pair@$$CBHPAVBaseDialog@@@std@@@3@$0A@@std@@@std@@IAEXPAU_Node@?$_Tree_nod@V?$_Tmap_traits@HPAVBaseDialog@@U?$less@H@std@@V?$allocator@U?$pair@$$CBHPAVBaseDialog@@@std@@@3@$0A@@std@@@2@@Z ; std::_Tree<std::_Tmap_traits<int,BaseDialog *,std::less<int>,std::allocator<std::pair<int const ,BaseDialog *> >,0> >::_Erase
; Function compile flags: /Odt
;	COMDAT ?clear@?$_Tree@V?$_Tmap_traits@HPAVBaseDialog@@U?$less@H@std@@V?$allocator@U?$pair@$$CBHPAVBaseDialog@@@std@@@3@$0A@@std@@@std@@QAEXXZ
_TEXT	SEGMENT
_this$ = -4						; size = 4
?clear@?$_Tree@V?$_Tmap_traits@HPAVBaseDialog@@U?$less@H@std@@V?$allocator@U?$pair@$$CBHPAVBaseDialog@@@std@@@3@$0A@@std@@@std@@QAEXXZ PROC NEAR ; std::_Tree<std::_Tmap_traits<int,BaseDialog *,std::less<int>,std::allocator<std::pair<int const ,BaseDialog *> >,0> >::clear, COMDAT
; _this$ = ecx

; 780  : 		{	// erase all

  00000	55		 push	 ebp
  00001	8b ec		 mov	 ebp, esp
  00003	51		 push	 ecx
  00004	89 4d fc	 mov	 DWORD PTR _this$[ebp], ecx

; 781  : 		_Erase(_Root());

  00007	8b 4d fc	 mov	 ecx, DWORD PTR _this$[ebp]
  0000a	e8 00 00 00 00	 call	 ?_Root@?$_Tree@V?$_Tmap_traits@HPAVBaseDialog@@U?$less@H@std@@V?$allocator@U?$pair@$$CBHPAVBaseDialog@@@std@@@3@$0A@@std@@@std@@IAEAAPAU_Node@?$_Tree_nod@V?$_Tmap_traits@HPAVBaseDialog@@U?$less@H@std@@V?$allocator@U?$pair@$$CBHPAVBaseDialog@@@std@@@3@$0A@@std@@@2@XZ ; std::_Tree<std::_Tmap_traits<int,BaseDialog *,std::less<int>,std::allocator<std::pair<int const ,BaseDialog *> >,0> >::_Root
  0000f	8b 00		 mov	 eax, DWORD PTR [eax]
  00011	50		 push	 eax
  00012	8b 4d fc	 mov	 ecx, DWORD PTR _this$[ebp]
  00015	e8 00 00 00 00	 call	 ?_Erase@?$_Tree@V?$_Tmap_traits@HPAVBaseDialog@@U?$less@H@std@@V?$allocator@U?$pair@$$CBHPAVBaseDialog@@@std@@@3@$0A@@std@@@std@@IAEXPAU_Node@?$_Tree_nod@V?$_Tmap_traits@HPAVBaseDialog@@U?$less@H@std@@V?$allocator@U?$pair@$$CBHPAVBaseDialog@@@std@@@3@$0A@@std@@@2@@Z ; std::_Tree<std::_Tmap_traits<int,BaseDialog *,std::less<int>,std::allocator<std::pair<int const ,BaseDialog *> >,0> >::_Erase

; 782  : 		_Root() = _Myhead, _Mysize = 0;

  0001a	8b 4d fc	 mov	 ecx, DWORD PTR _this$[ebp]
  0001d	e8 00 00 00 00	 call	 ?_Root@?$_Tree@V?$_Tmap_traits@HPAVBaseDialog@@U?$less@H@std@@V?$allocator@U?$pair@$$CBHPAVBaseDialog@@@std@@@3@$0A@@std@@@std@@IAEAAPAU_Node@?$_Tree_nod@V?$_Tmap_traits@HPAVBaseDialog@@U?$less@H@std@@V?$allocator@U?$pair@$$CBHPAVBaseDialog@@@std@@@3@$0A@@std@@@2@XZ ; std::_Tree<std::_Tmap_traits<int,BaseDialog *,std::less<int>,std::allocator<std::pair<int const ,BaseDialog *> >,0> >::_Root
  00022	8b 4d fc	 mov	 ecx, DWORD PTR _this$[ebp]
  00025	8b 51 04	 mov	 edx, DWORD PTR [ecx+4]
  00028	89 10		 mov	 DWORD PTR [eax], edx
  0002a	8b 45 fc	 mov	 eax, DWORD PTR _this$[ebp]
  0002d	c7 40 08 00 00
	00 00		 mov	 DWORD PTR [eax+8], 0

; 783  : 		_Lmost() = _Myhead, _Rmost() = _Myhead;

  00034	8b 4d fc	 mov	 ecx, DWORD PTR _this$[ebp]
  00037	e8 00 00 00 00	 call	 ?_Lmost@?$_Tree@V?$_Tmap_traits@HPAVBaseDialog@@U?$less@H@std@@V?$allocator@U?$pair@$$CBHPAVBaseDialog@@@std@@@3@$0A@@std@@@std@@IAEAAPAU_Node@?$_Tree_nod@V?$_Tmap_traits@HPAVBaseDialog@@U?$less@H@std@@V?$allocator@U?$pair@$$CBHPAVBaseDialog@@@std@@@3@$0A@@std@@@2@XZ ; std::_Tree<std::_Tmap_traits<int,BaseDialog *,std::less<int>,std::allocator<std::pair<int const ,BaseDialog *> >,0> >::_Lmost
  0003c	8b 4d fc	 mov	 ecx, DWORD PTR _this$[ebp]
  0003f	8b 51 04	 mov	 edx, DWORD PTR [ecx+4]
  00042	89 10		 mov	 DWORD PTR [eax], edx
  00044	8b 4d fc	 mov	 ecx, DWORD PTR _this$[ebp]
  00047	e8 00 00 00 00	 call	 ?_Rmost@?$_Tree@V?$_Tmap_traits@HPAVBaseDialog@@U?$less@H@std@@V?$allocator@U?$pair@$$CBHPAVBaseDialog@@@std@@@3@$0A@@std@@@std@@IAEAAPAU_Node@?$_Tree_nod@V?$_Tmap_traits@HPAVBaseDialog@@U?$less@H@std@@V?$allocator@U?$pair@$$CBHPAVBaseDialog@@@std@@@3@$0A@@std@@@2@XZ ; std::_Tree<std::_Tmap_traits<int,BaseDialog *,std::less<int>,std::allocator<std::pair<int const ,BaseDialog *> >,0> >::_Rmost
  0004c	8b 4d fc	 mov	 ecx, DWORD PTR _this$[ebp]
  0004f	8b 51 04	 mov	 edx, DWORD PTR [ecx+4]
  00052	89 10		 mov	 DWORD PTR [eax], edx

; 784  : 		}

  00054	8b e5		 mov	 esp, ebp
  00056	5d		 pop	 ebp
  00057	c3		 ret	 0
?clear@?$_Tree@V?$_Tmap_traits@HPAVBaseDialog@@U?$less@H@std@@V?$allocator@U?$pair@$$CBHPAVBaseDialog@@@std@@@3@$0A@@std@@@std@@QAEXXZ ENDP ; std::_Tree<std::_Tmap_traits<int,BaseDialog *,std::less<int>,std::allocator<std::pair<int const ,BaseDialog *> >,0> >::clear
; Function compile flags: /Odt
_TEXT	ENDS
;	COMDAT ?_Lmost@?$_Tree@V?$_Tmap_traits@HPAVBaseDialog@@U?$less@H@std@@V?$allocator@U?$pair@$$CBHPAVBaseDialog@@@std@@@3@$0A@@std@@@std@@IAEAAPAU_Node@?$_Tree_nod@V?$_Tmap_traits@HPAVBaseDialog@@U?$less@H@std@@V?$allocator@U?$pair@$$CBHPAVBaseDialog@@@std@@@3@$0A@@std@@@2@XZ
_TEXT	SEGMENT
_this$ = -4						; size = 4
?_Lmost@?$_Tree@V?$_Tmap_traits@HPAVBaseDialog@@U?$less@H@std@@V?$allocator@U?$pair@$$CBHPAVBaseDialog@@@std@@@3@$0A@@std@@@std@@IAEAAPAU_Node@?$_Tree_nod@V?$_Tmap_traits@HPAVBaseDialog@@U?$less@H@std@@V?$allocator@U?$pair@$$CBHPAVBaseDialog@@@std@@@3@$0A@@std@@@2@XZ PROC NEAR ; std::_Tree<std::_Tmap_traits<int,BaseDialog *,std::less<int>,std::allocator<std::pair<int const ,BaseDialog *> >,0> >::_Lmost, COMDAT
; _this$ = ecx

; 1004 : 		{	// return leftmost node in mutable tree

  00000	55		 push	 ebp
  00001	8b ec		 mov	 ebp, esp
  00003	51		 push	 ecx
  00004	89 4d fc	 mov	 DWORD PTR _this$[ebp], ecx

; 1005 : 		return (_Left(_Myhead));

  00007	8b 45 fc	 mov	 eax, DWORD PTR _this$[ebp]
  0000a	8b 48 04	 mov	 ecx, DWORD PTR [eax+4]
  0000d	51		 push	 ecx
  0000e	e8 00 00 00 00	 call	 ?_Left@?$_Tree@V?$_Tmap_traits@HPAVBaseDialog@@U?$less@H@std@@V?$allocator@U?$pair@$$CBHPAVBaseDialog@@@std@@@3@$0A@@std@@@std@@KAAAPAU_Node@?$_Tree_nod@V?$_Tmap_traits@HPAVBaseDialog@@U?$less@H@std@@V?$allocator@U?$pair@$$CBHPAVBaseDialog@@@std@@@3@$0A@@std@@@2@PAU342@@Z ; std::_Tree<std::_Tmap_traits<int,BaseDialog *,std::less<int>,std::allocator<std::pair<int const ,BaseDialog *> >,0> >::_Left
  00013	83 c4 04	 add	 esp, 4

; 1006 : 		}

  00016	8b e5		 mov	 esp, ebp
  00018	5d		 pop	 ebp
  00019	c3		 ret	 0
?_Lmost@?$_Tree@V?$_Tmap_traits@HPAVBaseDialog@@U?$less@H@std@@V?$allocator@U?$pair@$$CBHPAVBaseDialog@@@std@@@3@$0A@@std@@@std@@IAEAAPAU_Node@?$_Tree_nod@V?$_Tmap_traits@HPAVBaseDialog@@U?$less@H@std@@V?$allocator@U?$pair@$$CBHPAVBaseDialog@@@std@@@3@$0A@@std@@@2@XZ ENDP ; std::_Tree<std::_Tmap_traits<int,BaseDialog *,std::less<int>,std::allocator<std::pair<int const ,BaseDialog *> >,0> >::_Lmost
; Function compile flags: /Odt
_TEXT	ENDS
;	COMDAT ?_Lrotate@?$_Tree@V?$_Tmap_traits@HPAVBaseDialog@@U?$less@H@std@@V?$allocator@U?$pair@$$CBHPAVBaseDialog@@@std@@@3@$0A@@std@@@std@@IAEXPAU_Node@?$_Tree_nod@V?$_Tmap_traits@HPAVBaseDialog@@U?$less@H@std@@V?$allocator@U?$pair@$$CBHPAVBaseDialog@@@std@@@3@$0A@@std@@@2@@Z
_TEXT	SEGMENT
_this$ = -8						; size = 4
__Pnode$ = -4						; size = 4
__Wherenode$ = 8					; size = 4
?_Lrotate@?$_Tree@V?$_Tmap_traits@HPAVBaseDialog@@U?$less@H@std@@V?$allocator@U?$pair@$$CBHPAVBaseDialog@@@std@@@3@$0A@@std@@@std@@IAEXPAU_Node@?$_Tree_nod@V?$_Tmap_traits@HPAVBaseDialog@@U?$less@H@std@@V?$allocator@U?$pair@$$CBHPAVBaseDialog@@@std@@@3@$0A@@std@@@2@@Z PROC NEAR ; std::_Tree<std::_Tmap_traits<int,BaseDialog *,std::less<int>,std::allocator<std::pair<int const ,BaseDialog *> >,0> >::_Lrotate, COMDAT
; _this$ = ecx

; 1014 : 		{	// promote right node to root of subtree

  00000	55		 push	 ebp
  00001	8b ec		 mov	 ebp, esp
  00003	83 ec 08	 sub	 esp, 8
  00006	56		 push	 esi
  00007	89 4d f8	 mov	 DWORD PTR _this$[ebp], ecx

; 1015 : 		_Nodeptr _Pnode = _Right(_Wherenode);

  0000a	8b 45 08	 mov	 eax, DWORD PTR __Wherenode$[ebp]
  0000d	50		 push	 eax
  0000e	e8 00 00 00 00	 call	 ?_Right@?$_Tree@V?$_Tmap_traits@HPAVBaseDialog@@U?$less@H@std@@V?$allocator@U?$pair@$$CBHPAVBaseDialog@@@std@@@3@$0A@@std@@@std@@KAAAPAU_Node@?$_Tree_nod@V?$_Tmap_traits@HPAVBaseDialog@@U?$less@H@std@@V?$allocator@U?$pair@$$CBHPAVBaseDialog@@@std@@@3@$0A@@std@@@2@PAU342@@Z ; std::_Tree<std::_Tmap_traits<int,BaseDialog *,std::less<int>,std::allocator<std::pair<int const ,BaseDialog *> >,0> >::_Right
  00013	83 c4 04	 add	 esp, 4
  00016	8b 08		 mov	 ecx, DWORD PTR [eax]
  00018	89 4d fc	 mov	 DWORD PTR __Pnode$[ebp], ecx

; 1016 : 		_Right(_Wherenode) = _Left(_Pnode);

  0001b	8b 55 fc	 mov	 edx, DWORD PTR __Pnode$[ebp]
  0001e	52		 push	 edx
  0001f	e8 00 00 00 00	 call	 ?_Left@?$_Tree@V?$_Tmap_traits@HPAVBaseDialog@@U?$less@H@std@@V?$allocator@U?$pair@$$CBHPAVBaseDialog@@@std@@@3@$0A@@std@@@std@@KAAAPAU_Node@?$_Tree_nod@V?$_Tmap_traits@HPAVBaseDialog@@U?$less@H@std@@V?$allocator@U?$pair@$$CBHPAVBaseDialog@@@std@@@3@$0A@@std@@@2@PAU342@@Z ; std::_Tree<std::_Tmap_traits<int,BaseDialog *,std::less<int>,std::allocator<std::pair<int const ,BaseDialog *> >,0> >::_Left
  00024	83 c4 04	 add	 esp, 4
  00027	8b f0		 mov	 esi, eax
  00029	8b 45 08	 mov	 eax, DWORD PTR __Wherenode$[ebp]
  0002c	50		 push	 eax
  0002d	e8 00 00 00 00	 call	 ?_Right@?$_Tree@V?$_Tmap_traits@HPAVBaseDialog@@U?$less@H@std@@V?$allocator@U?$pair@$$CBHPAVBaseDialog@@@std@@@3@$0A@@std@@@std@@KAAAPAU_Node@?$_Tree_nod@V?$_Tmap_traits@HPAVBaseDialog@@U?$less@H@std@@V?$allocator@U?$pair@$$CBHPAVBaseDialog@@@std@@@3@$0A@@std@@@2@PAU342@@Z ; std::_Tree<std::_Tmap_traits<int,BaseDialog *,std::less<int>,std::allocator<std::pair<int const ,BaseDialog *> >,0> >::_Right
  00032	83 c4 04	 add	 esp, 4
  00035	8b 0e		 mov	 ecx, DWORD PTR [esi]
  00037	89 08		 mov	 DWORD PTR [eax], ecx

; 1017 : 
; 1018 : 		if (!_Isnil(_Left(_Pnode)))

  00039	8b 55 fc	 mov	 edx, DWORD PTR __Pnode$[ebp]
  0003c	52		 push	 edx
  0003d	e8 00 00 00 00	 call	 ?_Left@?$_Tree@V?$_Tmap_traits@HPAVBaseDialog@@U?$less@H@std@@V?$allocator@U?$pair@$$CBHPAVBaseDialog@@@std@@@3@$0A@@std@@@std@@KAAAPAU_Node@?$_Tree_nod@V?$_Tmap_traits@HPAVBaseDialog@@U?$less@H@std@@V?$allocator@U?$pair@$$CBHPAVBaseDialog@@@std@@@3@$0A@@std@@@2@PAU342@@Z ; std::_Tree<std::_Tmap_traits<int,BaseDialog *,std::less<int>,std::allocator<std::pair<int const ,BaseDialog *> >,0> >::_Left
  00042	83 c4 04	 add	 esp, 4
  00045	8b 00		 mov	 eax, DWORD PTR [eax]
  00047	50		 push	 eax
  00048	e8 00 00 00 00	 call	 ?_Isnil@?$_Tree@V?$_Tmap_traits@HPAVBaseDialog@@U?$less@H@std@@V?$allocator@U?$pair@$$CBHPAVBaseDialog@@@std@@@3@$0A@@std@@@std@@KAAADPAU_Node@?$_Tree_nod@V?$_Tmap_traits@HPAVBaseDialog@@U?$less@H@std@@V?$allocator@U?$pair@$$CBHPAVBaseDialog@@@std@@@3@$0A@@std@@@2@@Z ; std::_Tree<std::_Tmap_traits<int,BaseDialog *,std::less<int>,std::allocator<std::pair<int const ,BaseDialog *> >,0> >::_Isnil
  0004d	83 c4 04	 add	 esp, 4
  00050	0f be 08	 movsx	 ecx, BYTE PTR [eax]
  00053	85 c9		 test	 ecx, ecx
  00055	75 1c		 jne	 SHORT $L199097

; 1019 : 			_Parent(_Left(_Pnode)) = _Wherenode;

  00057	8b 55 fc	 mov	 edx, DWORD PTR __Pnode$[ebp]
  0005a	52		 push	 edx
  0005b	e8 00 00 00 00	 call	 ?_Left@?$_Tree@V?$_Tmap_traits@HPAVBaseDialog@@U?$less@H@std@@V?$allocator@U?$pair@$$CBHPAVBaseDialog@@@std@@@3@$0A@@std@@@std@@KAAAPAU_Node@?$_Tree_nod@V?$_Tmap_traits@HPAVBaseDialog@@U?$less@H@std@@V?$allocator@U?$pair@$$CBHPAVBaseDialog@@@std@@@3@$0A@@std@@@2@PAU342@@Z ; std::_Tree<std::_Tmap_traits<int,BaseDialog *,std::less<int>,std::allocator<std::pair<int const ,BaseDialog *> >,0> >::_Left
  00060	83 c4 04	 add	 esp, 4
  00063	8b 00		 mov	 eax, DWORD PTR [eax]
  00065	50		 push	 eax
  00066	e8 00 00 00 00	 call	 ?_Parent@?$_Tree@V?$_Tmap_traits@HPAVBaseDialog@@U?$less@H@std@@V?$allocator@U?$pair@$$CBHPAVBaseDialog@@@std@@@3@$0A@@std@@@std@@KAAAPAU_Node@?$_Tree_nod@V?$_Tmap_traits@HPAVBaseDialog@@U?$less@H@std@@V?$allocator@U?$pair@$$CBHPAVBaseDialog@@@std@@@3@$0A@@std@@@2@PAU342@@Z ; std::_Tree<std::_Tmap_traits<int,BaseDialog *,std::less<int>,std::allocator<std::pair<int const ,BaseDialog *> >,0> >::_Parent
  0006b	83 c4 04	 add	 esp, 4
  0006e	8b 4d 08	 mov	 ecx, DWORD PTR __Wherenode$[ebp]
  00071	89 08		 mov	 DWORD PTR [eax], ecx
$L199097:

; 1020 : 		_Parent(_Pnode) = _Parent(_Wherenode);

  00073	8b 55 08	 mov	 edx, DWORD PTR __Wherenode$[ebp]
  00076	52		 push	 edx
  00077	e8 00 00 00 00	 call	 ?_Parent@?$_Tree@V?$_Tmap_traits@HPAVBaseDialog@@U?$less@H@std@@V?$allocator@U?$pair@$$CBHPAVBaseDialog@@@std@@@3@$0A@@std@@@std@@KAAAPAU_Node@?$_Tree_nod@V?$_Tmap_traits@HPAVBaseDialog@@U?$less@H@std@@V?$allocator@U?$pair@$$CBHPAVBaseDialog@@@std@@@3@$0A@@std@@@2@PAU342@@Z ; std::_Tree<std::_Tmap_traits<int,BaseDialog *,std::less<int>,std::allocator<std::pair<int const ,BaseDialog *> >,0> >::_Parent
  0007c	83 c4 04	 add	 esp, 4
  0007f	8b f0		 mov	 esi, eax
  00081	8b 45 fc	 mov	 eax, DWORD PTR __Pnode$[ebp]
  00084	50		 push	 eax
  00085	e8 00 00 00 00	 call	 ?_Parent@?$_Tree@V?$_Tmap_traits@HPAVBaseDialog@@U?$less@H@std@@V?$allocator@U?$pair@$$CBHPAVBaseDialog@@@std@@@3@$0A@@std@@@std@@KAAAPAU_Node@?$_Tree_nod@V?$_Tmap_traits@HPAVBaseDialog@@U?$less@H@std@@V?$allocator@U?$pair@$$CBHPAVBaseDialog@@@std@@@3@$0A@@std@@@2@PAU342@@Z ; std::_Tree<std::_Tmap_traits<int,BaseDialog *,std::less<int>,std::allocator<std::pair<int const ,BaseDialog *> >,0> >::_Parent
  0008a	83 c4 04	 add	 esp, 4
  0008d	8b 0e		 mov	 ecx, DWORD PTR [esi]
  0008f	89 08		 mov	 DWORD PTR [eax], ecx

; 1021 : 
; 1022 : 		if (_Wherenode == _Root())

  00091	8b 4d f8	 mov	 ecx, DWORD PTR _this$[ebp]
  00094	e8 00 00 00 00	 call	 ?_Root@?$_Tree@V?$_Tmap_traits@HPAVBaseDialog@@U?$less@H@std@@V?$allocator@U?$pair@$$CBHPAVBaseDialog@@@std@@@3@$0A@@std@@@std@@IAEAAPAU_Node@?$_Tree_nod@V?$_Tmap_traits@HPAVBaseDialog@@U?$less@H@std@@V?$allocator@U?$pair@$$CBHPAVBaseDialog@@@std@@@3@$0A@@std@@@2@XZ ; std::_Tree<std::_Tmap_traits<int,BaseDialog *,std::less<int>,std::allocator<std::pair<int const ,BaseDialog *> >,0> >::_Root
  00099	8b 55 08	 mov	 edx, DWORD PTR __Wherenode$[ebp]
  0009c	3b 10		 cmp	 edx, DWORD PTR [eax]
  0009e	75 0f		 jne	 SHORT $L199098

; 1023 : 			_Root() = _Pnode;

  000a0	8b 4d f8	 mov	 ecx, DWORD PTR _this$[ebp]
  000a3	e8 00 00 00 00	 call	 ?_Root@?$_Tree@V?$_Tmap_traits@HPAVBaseDialog@@U?$less@H@std@@V?$allocator@U?$pair@$$CBHPAVBaseDialog@@@std@@@3@$0A@@std@@@std@@IAEAAPAU_Node@?$_Tree_nod@V?$_Tmap_traits@HPAVBaseDialog@@U?$less@H@std@@V?$allocator@U?$pair@$$CBHPAVBaseDialog@@@std@@@3@$0A@@std@@@2@XZ ; std::_Tree<std::_Tmap_traits<int,BaseDialog *,std::less<int>,std::allocator<std::pair<int const ,BaseDialog *> >,0> >::_Root
  000a8	8b 4d fc	 mov	 ecx, DWORD PTR __Pnode$[ebp]
  000ab	89 08		 mov	 DWORD PTR [eax], ecx

; 1024 : 		else if (_Wherenode == _Left(_Parent(_Wherenode)))

  000ad	eb 58		 jmp	 SHORT $L199099
$L199098:
  000af	8b 55 08	 mov	 edx, DWORD PTR __Wherenode$[ebp]
  000b2	52		 push	 edx
  000b3	e8 00 00 00 00	 call	 ?_Parent@?$_Tree@V?$_Tmap_traits@HPAVBaseDialog@@U?$less@H@std@@V?$allocator@U?$pair@$$CBHPAVBaseDialog@@@std@@@3@$0A@@std@@@std@@KAAAPAU_Node@?$_Tree_nod@V?$_Tmap_traits@HPAVBaseDialog@@U?$less@H@std@@V?$allocator@U?$pair@$$CBHPAVBaseDialog@@@std@@@3@$0A@@std@@@2@PAU342@@Z ; std::_Tree<std::_Tmap_traits<int,BaseDialog *,std::less<int>,std::allocator<std::pair<int const ,BaseDialog *> >,0> >::_Parent
  000b8	83 c4 04	 add	 esp, 4
  000bb	8b 00		 mov	 eax, DWORD PTR [eax]
  000bd	50		 push	 eax
  000be	e8 00 00 00 00	 call	 ?_Left@?$_Tree@V?$_Tmap_traits@HPAVBaseDialog@@U?$less@H@std@@V?$allocator@U?$pair@$$CBHPAVBaseDialog@@@std@@@3@$0A@@std@@@std@@KAAAPAU_Node@?$_Tree_nod@V?$_Tmap_traits@HPAVBaseDialog@@U?$less@H@std@@V?$allocator@U?$pair@$$CBHPAVBaseDialog@@@std@@@3@$0A@@std@@@2@PAU342@@Z ; std::_Tree<std::_Tmap_traits<int,BaseDialog *,std::less<int>,std::allocator<std::pair<int const ,BaseDialog *> >,0> >::_Left
  000c3	83 c4 04	 add	 esp, 4
  000c6	8b 4d 08	 mov	 ecx, DWORD PTR __Wherenode$[ebp]
  000c9	3b 08		 cmp	 ecx, DWORD PTR [eax]
  000cb	75 1e		 jne	 SHORT $L199100

; 1025 : 			_Left(_Parent(_Wherenode)) = _Pnode;

  000cd	8b 55 08	 mov	 edx, DWORD PTR __Wherenode$[ebp]
  000d0	52		 push	 edx
  000d1	e8 00 00 00 00	 call	 ?_Parent@?$_Tree@V?$_Tmap_traits@HPAVBaseDialog@@U?$less@H@std@@V?$allocator@U?$pair@$$CBHPAVBaseDialog@@@std@@@3@$0A@@std@@@std@@KAAAPAU_Node@?$_Tree_nod@V?$_Tmap_traits@HPAVBaseDialog@@U?$less@H@std@@V?$allocator@U?$pair@$$CBHPAVBaseDialog@@@std@@@3@$0A@@std@@@2@PAU342@@Z ; std::_Tree<std::_Tmap_traits<int,BaseDialog *,std::less<int>,std::allocator<std::pair<int const ,BaseDialog *> >,0> >::_Parent
  000d6	83 c4 04	 add	 esp, 4
  000d9	8b 00		 mov	 eax, DWORD PTR [eax]
  000db	50		 push	 eax
  000dc	e8 00 00 00 00	 call	 ?_Left@?$_Tree@V?$_Tmap_traits@HPAVBaseDialog@@U?$less@H@std@@V?$allocator@U?$pair@$$CBHPAVBaseDialog@@@std@@@3@$0A@@std@@@std@@KAAAPAU_Node@?$_Tree_nod@V?$_Tmap_traits@HPAVBaseDialog@@U?$less@H@std@@V?$allocator@U?$pair@$$CBHPAVBaseDialog@@@std@@@3@$0A@@std@@@2@PAU342@@Z ; std::_Tree<std::_Tmap_traits<int,BaseDialog *,std::less<int>,std::allocator<std::pair<int const ,BaseDialog *> >,0> >::_Left
  000e1	83 c4 04	 add	 esp, 4
  000e4	8b 4d fc	 mov	 ecx, DWORD PTR __Pnode$[ebp]
  000e7	89 08		 mov	 DWORD PTR [eax], ecx

; 1026 : 		else

  000e9	eb 1c		 jmp	 SHORT $L199099
$L199100:

; 1027 : 			_Right(_Parent(_Wherenode)) = _Pnode;

  000eb	8b 55 08	 mov	 edx, DWORD PTR __Wherenode$[ebp]
  000ee	52		 push	 edx
  000ef	e8 00 00 00 00	 call	 ?_Parent@?$_Tree@V?$_Tmap_traits@HPAVBaseDialog@@U?$less@H@std@@V?$allocator@U?$pair@$$CBHPAVBaseDialog@@@std@@@3@$0A@@std@@@std@@KAAAPAU_Node@?$_Tree_nod@V?$_Tmap_traits@HPAVBaseDialog@@U?$less@H@std@@V?$allocator@U?$pair@$$CBHPAVBaseDialog@@@std@@@3@$0A@@std@@@2@PAU342@@Z ; std::_Tree<std::_Tmap_traits<int,BaseDialog *,std::less<int>,std::allocator<std::pair<int const ,BaseDialog *> >,0> >::_Parent
  000f4	83 c4 04	 add	 esp, 4
  000f7	8b 00		 mov	 eax, DWORD PTR [eax]
  000f9	50		 push	 eax
  000fa	e8 00 00 00 00	 call	 ?_Right@?$_Tree@V?$_Tmap_traits@HPAVBaseDialog@@U?$less@H@std@@V?$allocator@U?$pair@$$CBHPAVBaseDialog@@@std@@@3@$0A@@std@@@std@@KAAAPAU_Node@?$_Tree_nod@V?$_Tmap_traits@HPAVBaseDialog@@U?$less@H@std@@V?$allocator@U?$pair@$$CBHPAVBaseDialog@@@std@@@3@$0A@@std@@@2@PAU342@@Z ; std::_Tree<std::_Tmap_traits<int,BaseDialog *,std::less<int>,std::allocator<std::pair<int const ,BaseDialog *> >,0> >::_Right
  000ff	83 c4 04	 add	 esp, 4
  00102	8b 4d fc	 mov	 ecx, DWORD PTR __Pnode$[ebp]
  00105	89 08		 mov	 DWORD PTR [eax], ecx
$L199099:

; 1028 : 
; 1029 : 		_Left(_Pnode) = _Wherenode;

  00107	8b 55 fc	 mov	 edx, DWORD PTR __Pnode$[ebp]
  0010a	52		 push	 edx
  0010b	e8 00 00 00 00	 call	 ?_Left@?$_Tree@V?$_Tmap_traits@HPAVBaseDialog@@U?$less@H@std@@V?$allocator@U?$pair@$$CBHPAVBaseDialog@@@std@@@3@$0A@@std@@@std@@KAAAPAU_Node@?$_Tree_nod@V?$_Tmap_traits@HPAVBaseDialog@@U?$less@H@std@@V?$allocator@U?$pair@$$CBHPAVBaseDialog@@@std@@@3@$0A@@std@@@2@PAU342@@Z ; std::_Tree<std::_Tmap_traits<int,BaseDialog *,std::less<int>,std::allocator<std::pair<int const ,BaseDialog *> >,0> >::_Left
  00110	83 c4 04	 add	 esp, 4
  00113	8b 4d 08	 mov	 ecx, DWORD PTR __Wherenode$[ebp]
  00116	89 08		 mov	 DWORD PTR [eax], ecx

; 1030 : 		_Parent(_Wherenode) = _Pnode;

  00118	8b 55 08	 mov	 edx, DWORD PTR __Wherenode$[ebp]
  0011b	52		 push	 edx
  0011c	e8 00 00 00 00	 call	 ?_Parent@?$_Tree@V?$_Tmap_traits@HPAVBaseDialog@@U?$less@H@std@@V?$allocator@U?$pair@$$CBHPAVBaseDialog@@@std@@@3@$0A@@std@@@std@@KAAAPAU_Node@?$_Tree_nod@V?$_Tmap_traits@HPAVBaseDialog@@U?$less@H@std@@V?$allocator@U?$pair@$$CBHPAVBaseDialog@@@std@@@3@$0A@@std@@@2@PAU342@@Z ; std::_Tree<std::_Tmap_traits<int,BaseDialog *,std::less<int>,std::allocator<std::pair<int const ,BaseDialog *> >,0> >::_Parent
  00121	83 c4 04	 add	 esp, 4
  00124	8b 4d fc	 mov	 ecx, DWORD PTR __Pnode$[ebp]
  00127	89 08		 mov	 DWORD PTR [eax], ecx

; 1031 : 		}

  00129	5e		 pop	 esi
  0012a	8b e5		 mov	 esp, ebp
  0012c	5d		 pop	 ebp
  0012d	c2 04 00	 ret	 4
?_Lrotate@?$_Tree@V?$_Tmap_traits@HPAVBaseDialog@@U?$less@H@std@@V?$allocator@U?$pair@$$CBHPAVBaseDialog@@@std@@@3@$0A@@std@@@std@@IAEXPAU_Node@?$_Tree_nod@V?$_Tmap_traits@HPAVBaseDialog@@U?$less@H@std@@V?$allocator@U?$pair@$$CBHPAVBaseDialog@@@std@@@3@$0A@@std@@@2@@Z ENDP ; std::_Tree<std::_Tmap_traits<int,BaseDialog *,std::less<int>,std::allocator<std::pair<int const ,BaseDialog *> >,0> >::_Lrotate
; Function compile flags: /Odt
_TEXT	ENDS
;	COMDAT ?_Root@?$_Tree@V?$_Tmap_traits@HPAVBaseDialog@@U?$less@H@std@@V?$allocator@U?$pair@$$CBHPAVBaseDialog@@@std@@@3@$0A@@std@@@std@@IAEAAPAU_Node@?$_Tree_nod@V?$_Tmap_traits@HPAVBaseDialog@@U?$less@H@std@@V?$allocator@U?$pair@$$CBHPAVBaseDialog@@@std@@@3@$0A@@std@@@2@XZ
_TEXT	SEGMENT
_this$ = -4						; size = 4
?_Root@?$_Tree@V?$_Tmap_traits@HPAVBaseDialog@@U?$less@H@std@@V?$allocator@U?$pair@$$CBHPAVBaseDialog@@@std@@@3@$0A@@std@@@std@@IAEAAPAU_Node@?$_Tree_nod@V?$_Tmap_traits@HPAVBaseDialog@@U?$less@H@std@@V?$allocator@U?$pair@$$CBHPAVBaseDialog@@@std@@@3@$0A@@std@@@2@XZ PROC NEAR ; std::_Tree<std::_Tmap_traits<int,BaseDialog *,std::less<int>,std::allocator<std::pair<int const ,BaseDialog *> >,0> >::_Root, COMDAT
; _this$ = ecx

; 1058 : 		{	// return root of mutable tree

  00000	55		 push	 ebp
  00001	8b ec		 mov	 ebp, esp
  00003	51		 push	 ecx
  00004	89 4d fc	 mov	 DWORD PTR _this$[ebp], ecx

; 1059 : 		return (_Parent(_Myhead));

  00007	8b 45 fc	 mov	 eax, DWORD PTR _this$[ebp]
  0000a	8b 48 04	 mov	 ecx, DWORD PTR [eax+4]
  0000d	51		 push	 ecx
  0000e	e8 00 00 00 00	 call	 ?_Parent@?$_Tree@V?$_Tmap_traits@HPAVBaseDialog@@U?$less@H@std@@V?$allocator@U?$pair@$$CBHPAVBaseDialog@@@std@@@3@$0A@@std@@@std@@KAAAPAU_Node@?$_Tree_nod@V?$_Tmap_traits@HPAVBaseDialog@@U?$less@H@std@@V?$allocator@U?$pair@$$CBHPAVBaseDialog@@@std@@@3@$0A@@std@@@2@PAU342@@Z ; std::_Tree<std::_Tmap_traits<int,BaseDialog *,std::less<int>,std::allocator<std::pair<int const ,BaseDialog *> >,0> >::_Parent
  00013	83 c4 04	 add	 esp, 4

; 1060 : 		}

  00016	8b e5		 mov	 esp, ebp
  00018	5d		 pop	 ebp
  00019	c3		 ret	 0
?_Root@?$_Tree@V?$_Tmap_traits@HPAVBaseDialog@@U?$less@H@std@@V?$allocator@U?$pair@$$CBHPAVBaseDialog@@@std@@@3@$0A@@std@@@std@@IAEAAPAU_Node@?$_Tree_nod@V?$_Tmap_traits@HPAVBaseDialog@@U?$less@H@std@@V?$allocator@U?$pair@$$CBHPAVBaseDialog@@@std@@@3@$0A@@std@@@2@XZ ENDP ; std::_Tree<std::_Tmap_traits<int,BaseDialog *,std::less<int>,std::allocator<std::pair<int const ,BaseDialog *> >,0> >::_Root
; Function compile flags: /Odt
_TEXT	ENDS
;	COMDAT ?_Root@?$_Tree@V?$_Tmap_traits@HPAVBaseDialog@@U?$less@H@std@@V?$allocator@U?$pair@$$CBHPAVBaseDialog@@@std@@@3@$0A@@std@@@std@@IBEAAPAU_Node@?$_Tree_nod@V?$_Tmap_traits@HPAVBaseDialog@@U?$less@H@std@@V?$allocator@U?$pair@$$CBHPAVBaseDialog@@@std@@@3@$0A@@std@@@2@XZ
_TEXT	SEGMENT
_this$ = -4						; size = 4
?_Root@?$_Tree@V?$_Tmap_traits@HPAVBaseDialog@@U?$less@H@std@@V?$allocator@U?$pair@$$CBHPAVBaseDialog@@@std@@@3@$0A@@std@@@std@@IBEAAPAU_Node@?$_Tree_nod@V?$_Tmap_traits@HPAVBaseDialog@@U?$less@H@std@@V?$allocator@U?$pair@$$CBHPAVBaseDialog@@@std@@@3@$0A@@std@@@2@XZ PROC NEAR ; std::_Tree<std::_Tmap_traits<int,BaseDialog *,std::less<int>,std::allocator<std::pair<int const ,BaseDialog *> >,0> >::_Root, COMDAT
; _this$ = ecx

; 1063 : 		{	// return root of nonmutable tree

  00000	55		 push	 ebp
  00001	8b ec		 mov	 ebp, esp
  00003	51		 push	 ecx
  00004	89 4d fc	 mov	 DWORD PTR _this$[ebp], ecx

; 1064 : 		return (_Parent(_Myhead));

  00007	8b 45 fc	 mov	 eax, DWORD PTR _this$[ebp]
  0000a	8b 48 04	 mov	 ecx, DWORD PTR [eax+4]
  0000d	51		 push	 ecx
  0000e	e8 00 00 00 00	 call	 ?_Parent@?$_Tree@V?$_Tmap_traits@HPAVBaseDialog@@U?$less@H@std@@V?$allocator@U?$pair@$$CBHPAVBaseDialog@@@std@@@3@$0A@@std@@@std@@KAAAPAU_Node@?$_Tree_nod@V?$_Tmap_traits@HPAVBaseDialog@@U?$less@H@std@@V?$allocator@U?$pair@$$CBHPAVBaseDialog@@@std@@@3@$0A@@std@@@2@PAU342@@Z ; std::_Tree<std::_Tmap_traits<int,BaseDialog *,std::less<int>,std::allocator<std::pair<int const ,BaseDialog *> >,0> >::_Parent
  00013	83 c4 04	 add	 esp, 4

; 1065 : 		}

  00016	8b e5		 mov	 esp, ebp
  00018	5d		 pop	 ebp
  00019	c3		 ret	 0
?_Root@?$_Tree@V?$_Tmap_traits@HPAVBaseDialog@@U?$less@H@std@@V?$allocator@U?$pair@$$CBHPAVBaseDialog@@@std@@@3@$0A@@std@@@std@@IBEAAPAU_Node@?$_Tree_nod@V?$_Tmap_traits@HPAVBaseDialog@@U?$less@H@std@@V?$allocator@U?$pair@$$CBHPAVBaseDialog@@@std@@@3@$0A@@std@@@2@XZ ENDP ; std::_Tree<std::_Tmap_traits<int,BaseDialog *,std::less<int>,std::allocator<std::pair<int const ,BaseDialog *> >,0> >::_Root
; Function compile flags: /Odt
_TEXT	ENDS
;	COMDAT ?_Rrotate@?$_Tree@V?$_Tmap_traits@HPAVBaseDialog@@U?$less@H@std@@V?$allocator@U?$pair@$$CBHPAVBaseDialog@@@std@@@3@$0A@@std@@@std@@IAEXPAU_Node@?$_Tree_nod@V?$_Tmap_traits@HPAVBaseDialog@@U?$less@H@std@@V?$allocator@U?$pair@$$CBHPAVBaseDialog@@@std@@@3@$0A@@std@@@2@@Z
_TEXT	SEGMENT
_this$ = -8						; size = 4
__Pnode$ = -4						; size = 4
__Wherenode$ = 8					; size = 4
?_Rrotate@?$_Tree@V?$_Tmap_traits@HPAVBaseDialog@@U?$less@H@std@@V?$allocator@U?$pair@$$CBHPAVBaseDialog@@@std@@@3@$0A@@std@@@std@@IAEXPAU_Node@?$_Tree_nod@V?$_Tmap_traits@HPAVBaseDialog@@U?$less@H@std@@V?$allocator@U?$pair@$$CBHPAVBaseDialog@@@std@@@3@$0A@@std@@@2@@Z PROC NEAR ; std::_Tree<std::_Tmap_traits<int,BaseDialog *,std::less<int>,std::allocator<std::pair<int const ,BaseDialog *> >,0> >::_Rrotate, COMDAT
; _this$ = ecx

; 1068 : 		{	// promote left node to root of subtree

  00000	55		 push	 ebp
  00001	8b ec		 mov	 ebp, esp
  00003	83 ec 08	 sub	 esp, 8
  00006	56		 push	 esi
  00007	89 4d f8	 mov	 DWORD PTR _this$[ebp], ecx

; 1069 : 		_Nodeptr _Pnode = _Left(_Wherenode);

  0000a	8b 45 08	 mov	 eax, DWORD PTR __Wherenode$[ebp]
  0000d	50		 push	 eax
  0000e	e8 00 00 00 00	 call	 ?_Left@?$_Tree@V?$_Tmap_traits@HPAVBaseDialog@@U?$less@H@std@@V?$allocator@U?$pair@$$CBHPAVBaseDialog@@@std@@@3@$0A@@std@@@std@@KAAAPAU_Node@?$_Tree_nod@V?$_Tmap_traits@HPAVBaseDialog@@U?$less@H@std@@V?$allocator@U?$pair@$$CBHPAVBaseDialog@@@std@@@3@$0A@@std@@@2@PAU342@@Z ; std::_Tree<std::_Tmap_traits<int,BaseDialog *,std::less<int>,std::allocator<std::pair<int const ,BaseDialog *> >,0> >::_Left
  00013	83 c4 04	 add	 esp, 4
  00016	8b 08		 mov	 ecx, DWORD PTR [eax]
  00018	89 4d fc	 mov	 DWORD PTR __Pnode$[ebp], ecx

; 1070 : 		_Left(_Wherenode) = _Right(_Pnode);

  0001b	8b 55 fc	 mov	 edx, DWORD PTR __Pnode$[ebp]
  0001e	52		 push	 edx
  0001f	e8 00 00 00 00	 call	 ?_Right@?$_Tree@V?$_Tmap_traits@HPAVBaseDialog@@U?$less@H@std@@V?$allocator@U?$pair@$$CBHPAVBaseDialog@@@std@@@3@$0A@@std@@@std@@KAAAPAU_Node@?$_Tree_nod@V?$_Tmap_traits@HPAVBaseDialog@@U?$less@H@std@@V?$allocator@U?$pair@$$CBHPAVBaseDialog@@@std@@@3@$0A@@std@@@2@PAU342@@Z ; std::_Tree<std::_Tmap_traits<int,BaseDialog *,std::less<int>,std::allocator<std::pair<int const ,BaseDialog *> >,0> >::_Right
  00024	83 c4 04	 add	 esp, 4
  00027	8b f0		 mov	 esi, eax
  00029	8b 45 08	 mov	 eax, DWORD PTR __Wherenode$[ebp]
  0002c	50		 push	 eax
  0002d	e8 00 00 00 00	 call	 ?_Left@?$_Tree@V?$_Tmap_traits@HPAVBaseDialog@@U?$less@H@std@@V?$allocator@U?$pair@$$CBHPAVBaseDialog@@@std@@@3@$0A@@std@@@std@@KAAAPAU_Node@?$_Tree_nod@V?$_Tmap_traits@HPAVBaseDialog@@U?$less@H@std@@V?$allocator@U?$pair@$$CBHPAVBaseDialog@@@std@@@3@$0A@@std@@@2@PAU342@@Z ; std::_Tree<std::_Tmap_traits<int,BaseDialog *,std::less<int>,std::allocator<std::pair<int const ,BaseDialog *> >,0> >::_Left
  00032	83 c4 04	 add	 esp, 4
  00035	8b 0e		 mov	 ecx, DWORD PTR [esi]
  00037	89 08		 mov	 DWORD PTR [eax], ecx

; 1071 : 
; 1072 : 		if (!_Isnil(_Right(_Pnode)))

  00039	8b 55 fc	 mov	 edx, DWORD PTR __Pnode$[ebp]
  0003c	52		 push	 edx
  0003d	e8 00 00 00 00	 call	 ?_Right@?$_Tree@V?$_Tmap_traits@HPAVBaseDialog@@U?$less@H@std@@V?$allocator@U?$pair@$$CBHPAVBaseDialog@@@std@@@3@$0A@@std@@@std@@KAAAPAU_Node@?$_Tree_nod@V?$_Tmap_traits@HPAVBaseDialog@@U?$less@H@std@@V?$allocator@U?$pair@$$CBHPAVBaseDialog@@@std@@@3@$0A@@std@@@2@PAU342@@Z ; std::_Tree<std::_Tmap_traits<int,BaseDialog *,std::less<int>,std::allocator<std::pair<int const ,BaseDialog *> >,0> >::_Right
  00042	83 c4 04	 add	 esp, 4
  00045	8b 00		 mov	 eax, DWORD PTR [eax]
  00047	50		 push	 eax
  00048	e8 00 00 00 00	 call	 ?_Isnil@?$_Tree@V?$_Tmap_traits@HPAVBaseDialog@@U?$less@H@std@@V?$allocator@U?$pair@$$CBHPAVBaseDialog@@@std@@@3@$0A@@std@@@std@@KAAADPAU_Node@?$_Tree_nod@V?$_Tmap_traits@HPAVBaseDialog@@U?$less@H@std@@V?$allocator@U?$pair@$$CBHPAVBaseDialog@@@std@@@3@$0A@@std@@@2@@Z ; std::_Tree<std::_Tmap_traits<int,BaseDialog *,std::less<int>,std::allocator<std::pair<int const ,BaseDialog *> >,0> >::_Isnil
  0004d	83 c4 04	 add	 esp, 4
  00050	0f be 08	 movsx	 ecx, BYTE PTR [eax]
  00053	85 c9		 test	 ecx, ecx
  00055	75 1c		 jne	 SHORT $L199109

; 1073 : 			_Parent(_Right(_Pnode)) = _Wherenode;

  00057	8b 55 fc	 mov	 edx, DWORD PTR __Pnode$[ebp]
  0005a	52		 push	 edx
  0005b	e8 00 00 00 00	 call	 ?_Right@?$_Tree@V?$_Tmap_traits@HPAVBaseDialog@@U?$less@H@std@@V?$allocator@U?$pair@$$CBHPAVBaseDialog@@@std@@@3@$0A@@std@@@std@@KAAAPAU_Node@?$_Tree_nod@V?$_Tmap_traits@HPAVBaseDialog@@U?$less@H@std@@V?$allocator@U?$pair@$$CBHPAVBaseDialog@@@std@@@3@$0A@@std@@@2@PAU342@@Z ; std::_Tree<std::_Tmap_traits<int,BaseDialog *,std::less<int>,std::allocator<std::pair<int const ,BaseDialog *> >,0> >::_Right
  00060	83 c4 04	 add	 esp, 4
  00063	8b 00		 mov	 eax, DWORD PTR [eax]
  00065	50		 push	 eax
  00066	e8 00 00 00 00	 call	 ?_Parent@?$_Tree@V?$_Tmap_traits@HPAVBaseDialog@@U?$less@H@std@@V?$allocator@U?$pair@$$CBHPAVBaseDialog@@@std@@@3@$0A@@std@@@std@@KAAAPAU_Node@?$_Tree_nod@V?$_Tmap_traits@HPAVBaseDialog@@U?$less@H@std@@V?$allocator@U?$pair@$$CBHPAVBaseDialog@@@std@@@3@$0A@@std@@@2@PAU342@@Z ; std::_Tree<std::_Tmap_traits<int,BaseDialog *,std::less<int>,std::allocator<std::pair<int const ,BaseDialog *> >,0> >::_Parent
  0006b	83 c4 04	 add	 esp, 4
  0006e	8b 4d 08	 mov	 ecx, DWORD PTR __Wherenode$[ebp]
  00071	89 08		 mov	 DWORD PTR [eax], ecx
$L199109:

; 1074 : 		_Parent(_Pnode) = _Parent(_Wherenode);

  00073	8b 55 08	 mov	 edx, DWORD PTR __Wherenode$[ebp]
  00076	52		 push	 edx
  00077	e8 00 00 00 00	 call	 ?_Parent@?$_Tree@V?$_Tmap_traits@HPAVBaseDialog@@U?$less@H@std@@V?$allocator@U?$pair@$$CBHPAVBaseDialog@@@std@@@3@$0A@@std@@@std@@KAAAPAU_Node@?$_Tree_nod@V?$_Tmap_traits@HPAVBaseDialog@@U?$less@H@std@@V?$allocator@U?$pair@$$CBHPAVBaseDialog@@@std@@@3@$0A@@std@@@2@PAU342@@Z ; std::_Tree<std::_Tmap_traits<int,BaseDialog *,std::less<int>,std::allocator<std::pair<int const ,BaseDialog *> >,0> >::_Parent
  0007c	83 c4 04	 add	 esp, 4
  0007f	8b f0		 mov	 esi, eax
  00081	8b 45 fc	 mov	 eax, DWORD PTR __Pnode$[ebp]
  00084	50		 push	 eax
  00085	e8 00 00 00 00	 call	 ?_Parent@?$_Tree@V?$_Tmap_traits@HPAVBaseDialog@@U?$less@H@std@@V?$allocator@U?$pair@$$CBHPAVBaseDialog@@@std@@@3@$0A@@std@@@std@@KAAAPAU_Node@?$_Tree_nod@V?$_Tmap_traits@HPAVBaseDialog@@U?$less@H@std@@V?$allocator@U?$pair@$$CBHPAVBaseDialog@@@std@@@3@$0A@@std@@@2@PAU342@@Z ; std::_Tree<std::_Tmap_traits<int,BaseDialog *,std::less<int>,std::allocator<std::pair<int const ,BaseDialog *> >,0> >::_Parent
  0008a	83 c4 04	 add	 esp, 4
  0008d	8b 0e		 mov	 ecx, DWORD PTR [esi]
  0008f	89 08		 mov	 DWORD PTR [eax], ecx

; 1075 : 
; 1076 : 		if (_Wherenode == _Root())

  00091	8b 4d f8	 mov	 ecx, DWORD PTR _this$[ebp]
  00094	e8 00 00 00 00	 call	 ?_Root@?$_Tree@V?$_Tmap_traits@HPAVBaseDialog@@U?$less@H@std@@V?$allocator@U?$pair@$$CBHPAVBaseDialog@@@std@@@3@$0A@@std@@@std@@IAEAAPAU_Node@?$_Tree_nod@V?$_Tmap_traits@HPAVBaseDialog@@U?$less@H@std@@V?$allocator@U?$pair@$$CBHPAVBaseDialog@@@std@@@3@$0A@@std@@@2@XZ ; std::_Tree<std::_Tmap_traits<int,BaseDialog *,std::less<int>,std::allocator<std::pair<int const ,BaseDialog *> >,0> >::_Root
  00099	8b 55 08	 mov	 edx, DWORD PTR __Wherenode$[ebp]
  0009c	3b 10		 cmp	 edx, DWORD PTR [eax]
  0009e	75 0f		 jne	 SHORT $L199110

; 1077 : 			_Root() = _Pnode;

  000a0	8b 4d f8	 mov	 ecx, DWORD PTR _this$[ebp]
  000a3	e8 00 00 00 00	 call	 ?_Root@?$_Tree@V?$_Tmap_traits@HPAVBaseDialog@@U?$less@H@std@@V?$allocator@U?$pair@$$CBHPAVBaseDialog@@@std@@@3@$0A@@std@@@std@@IAEAAPAU_Node@?$_Tree_nod@V?$_Tmap_traits@HPAVBaseDialog@@U?$less@H@std@@V?$allocator@U?$pair@$$CBHPAVBaseDialog@@@std@@@3@$0A@@std@@@2@XZ ; std::_Tree<std::_Tmap_traits<int,BaseDialog *,std::less<int>,std::allocator<std::pair<int const ,BaseDialog *> >,0> >::_Root
  000a8	8b 4d fc	 mov	 ecx, DWORD PTR __Pnode$[ebp]
  000ab	89 08		 mov	 DWORD PTR [eax], ecx

; 1078 : 		else if (_Wherenode == _Right(_Parent(_Wherenode)))

  000ad	eb 58		 jmp	 SHORT $L199111
$L199110:
  000af	8b 55 08	 mov	 edx, DWORD PTR __Wherenode$[ebp]
  000b2	52		 push	 edx
  000b3	e8 00 00 00 00	 call	 ?_Parent@?$_Tree@V?$_Tmap_traits@HPAVBaseDialog@@U?$less@H@std@@V?$allocator@U?$pair@$$CBHPAVBaseDialog@@@std@@@3@$0A@@std@@@std@@KAAAPAU_Node@?$_Tree_nod@V?$_Tmap_traits@HPAVBaseDialog@@U?$less@H@std@@V?$allocator@U?$pair@$$CBHPAVBaseDialog@@@std@@@3@$0A@@std@@@2@PAU342@@Z ; std::_Tree<std::_Tmap_traits<int,BaseDialog *,std::less<int>,std::allocator<std::pair<int const ,BaseDialog *> >,0> >::_Parent
  000b8	83 c4 04	 add	 esp, 4
  000bb	8b 00		 mov	 eax, DWORD PTR [eax]
  000bd	50		 push	 eax
  000be	e8 00 00 00 00	 call	 ?_Right@?$_Tree@V?$_Tmap_traits@HPAVBaseDialog@@U?$less@H@std@@V?$allocator@U?$pair@$$CBHPAVBaseDialog@@@std@@@3@$0A@@std@@@std@@KAAAPAU_Node@?$_Tree_nod@V?$_Tmap_traits@HPAVBaseDialog@@U?$less@H@std@@V?$allocator@U?$pair@$$CBHPAVBaseDialog@@@std@@@3@$0A@@std@@@2@PAU342@@Z ; std::_Tree<std::_Tmap_traits<int,BaseDialog *,std::less<int>,std::allocator<std::pair<int const ,BaseDialog *> >,0> >::_Right
  000c3	83 c4 04	 add	 esp, 4
  000c6	8b 4d 08	 mov	 ecx, DWORD PTR __Wherenode$[ebp]
  000c9	3b 08		 cmp	 ecx, DWORD PTR [eax]
  000cb	75 1e		 jne	 SHORT $L199112

; 1079 : 			_Right(_Parent(_Wherenode)) = _Pnode;

  000cd	8b 55 08	 mov	 edx, DWORD PTR __Wherenode$[ebp]
  000d0	52		 push	 edx
  000d1	e8 00 00 00 00	 call	 ?_Parent@?$_Tree@V?$_Tmap_traits@HPAVBaseDialog@@U?$less@H@std@@V?$allocator@U?$pair@$$CBHPAVBaseDialog@@@std@@@3@$0A@@std@@@std@@KAAAPAU_Node@?$_Tree_nod@V?$_Tmap_traits@HPAVBaseDialog@@U?$less@H@std@@V?$allocator@U?$pair@$$CBHPAVBaseDialog@@@std@@@3@$0A@@std@@@2@PAU342@@Z ; std::_Tree<std::_Tmap_traits<int,BaseDialog *,std::less<int>,std::allocator<std::pair<int const ,BaseDialog *> >,0> >::_Parent
  000d6	83 c4 04	 add	 esp, 4
  000d9	8b 00		 mov	 eax, DWORD PTR [eax]
  000db	50		 push	 eax
  000dc	e8 00 00 00 00	 call	 ?_Right@?$_Tree@V?$_Tmap_traits@HPAVBaseDialog@@U?$less@H@std@@V?$allocator@U?$pair@$$CBHPAVBaseDialog@@@std@@@3@$0A@@std@@@std@@KAAAPAU_Node@?$_Tree_nod@V?$_Tmap_traits@HPAVBaseDialog@@U?$less@H@std@@V?$allocator@U?$pair@$$CBHPAVBaseDialog@@@std@@@3@$0A@@std@@@2@PAU342@@Z ; std::_Tree<std::_Tmap_traits<int,BaseDialog *,std::less<int>,std::allocator<std::pair<int const ,BaseDialog *> >,0> >::_Right
  000e1	83 c4 04	 add	 esp, 4
  000e4	8b 4d fc	 mov	 ecx, DWORD PTR __Pnode$[ebp]
  000e7	89 08		 mov	 DWORD PTR [eax], ecx

; 1080 : 		else

  000e9	eb 1c		 jmp	 SHORT $L199111
$L199112:

; 1081 : 			_Left(_Parent(_Wherenode)) = _Pnode;

  000eb	8b 55 08	 mov	 edx, DWORD PTR __Wherenode$[ebp]
  000ee	52		 push	 edx
  000ef	e8 00 00 00 00	 call	 ?_Parent@?$_Tree@V?$_Tmap_traits@HPAVBaseDialog@@U?$less@H@std@@V?$allocator@U?$pair@$$CBHPAVBaseDialog@@@std@@@3@$0A@@std@@@std@@KAAAPAU_Node@?$_Tree_nod@V?$_Tmap_traits@HPAVBaseDialog@@U?$less@H@std@@V?$allocator@U?$pair@$$CBHPAVBaseDialog@@@std@@@3@$0A@@std@@@2@PAU342@@Z ; std::_Tree<std::_Tmap_traits<int,BaseDialog *,std::less<int>,std::allocator<std::pair<int const ,BaseDialog *> >,0> >::_Parent
  000f4	83 c4 04	 add	 esp, 4
  000f7	8b 00		 mov	 eax, DWORD PTR [eax]
  000f9	50		 push	 eax
  000fa	e8 00 00 00 00	 call	 ?_Left@?$_Tree@V?$_Tmap_traits@HPAVBaseDialog@@U?$less@H@std@@V?$allocator@U?$pair@$$CBHPAVBaseDialog@@@std@@@3@$0A@@std@@@std@@KAAAPAU_Node@?$_Tree_nod@V?$_Tmap_traits@HPAVBaseDialog@@U?$less@H@std@@V?$allocator@U?$pair@$$CBHPAVBaseDialog@@@std@@@3@$0A@@std@@@2@PAU342@@Z ; std::_Tree<std::_Tmap_traits<int,BaseDialog *,std::less<int>,std::allocator<std::pair<int const ,BaseDialog *> >,0> >::_Left
  000ff	83 c4 04	 add	 esp, 4
  00102	8b 4d fc	 mov	 ecx, DWORD PTR __Pnode$[ebp]
  00105	89 08		 mov	 DWORD PTR [eax], ecx
$L199111:

; 1082 : 
; 1083 : 		_Right(_Pnode) = _Wherenode;

  00107	8b 55 fc	 mov	 edx, DWORD PTR __Pnode$[ebp]
  0010a	52		 push	 edx
  0010b	e8 00 00 00 00	 call	 ?_Right@?$_Tree@V?$_Tmap_traits@HPAVBaseDialog@@U?$less@H@std@@V?$allocator@U?$pair@$$CBHPAVBaseDialog@@@std@@@3@$0A@@std@@@std@@KAAAPAU_Node@?$_Tree_nod@V?$_Tmap_traits@HPAVBaseDialog@@U?$less@H@std@@V?$allocator@U?$pair@$$CBHPAVBaseDialog@@@std@@@3@$0A@@std@@@2@PAU342@@Z ; std::_Tree<std::_Tmap_traits<int,BaseDialog *,std::less<int>,std::allocator<std::pair<int const ,BaseDialog *> >,0> >::_Right
  00110	83 c4 04	 add	 esp, 4
  00113	8b 4d 08	 mov	 ecx, DWORD PTR __Wherenode$[ebp]
  00116	89 08		 mov	 DWORD PTR [eax], ecx

; 1084 : 		_Parent(_Wherenode) = _Pnode;

  00118	8b 55 08	 mov	 edx, DWORD PTR __Wherenode$[ebp]
  0011b	52		 push	 edx
  0011c	e8 00 00 00 00	 call	 ?_Parent@?$_Tree@V?$_Tmap_traits@HPAVBaseDialog@@U?$less@H@std@@V?$allocator@U?$pair@$$CBHPAVBaseDialog@@@std@@@3@$0A@@std@@@std@@KAAAPAU_Node@?$_Tree_nod@V?$_Tmap_traits@HPAVBaseDialog@@U?$less@H@std@@V?$allocator@U?$pair@$$CBHPAVBaseDialog@@@std@@@3@$0A@@std@@@2@PAU342@@Z ; std::_Tree<std::_Tmap_traits<int,BaseDialog *,std::less<int>,std::allocator<std::pair<int const ,BaseDialog *> >,0> >::_Parent
  00121	83 c4 04	 add	 esp, 4
  00124	8b 4d fc	 mov	 ecx, DWORD PTR __Pnode$[ebp]
  00127	89 08		 mov	 DWORD PTR [eax], ecx

; 1085 : 		}

  00129	5e		 pop	 esi
  0012a	8b e5		 mov	 esp, ebp
  0012c	5d		 pop	 ebp
  0012d	c2 04 00	 ret	 4
?_Rrotate@?$_Tree@V?$_Tmap_traits@HPAVBaseDialog@@U?$less@H@std@@V?$allocator@U?$pair@$$CBHPAVBaseDialog@@@std@@@3@$0A@@std@@@std@@IAEXPAU_Node@?$_Tree_nod@V?$_Tmap_traits@HPAVBaseDialog@@U?$less@H@std@@V?$allocator@U?$pair@$$CBHPAVBaseDialog@@@std@@@3@$0A@@std@@@2@@Z ENDP ; std::_Tree<std::_Tmap_traits<int,BaseDialog *,std::less<int>,std::allocator<std::pair<int const ,BaseDialog *> >,0> >::_Rrotate
_TEXT	ENDS
PUBLIC	?allocate@?$allocator@U_Node@?$_Tree_nod@V?$_Tmap_traits@HPAVBaseDialog@@U?$less@H@std@@V?$allocator@U?$pair@$$CBHPAVBaseDialog@@@std@@@3@$0A@@std@@@std@@@std@@QAEPAU_Node@?$_Tree_nod@V?$_Tmap_traits@HPAVBaseDialog@@U?$less@H@std@@V?$allocator@U?$pair@$$CBHPAVBaseDialog@@@std@@@3@$0A@@std@@@2@I@Z ; std::allocator<std::_Tree_nod<std::_Tmap_traits<int,BaseDialog *,std::less<int>,std::allocator<std::pair<int const ,BaseDialog *> >,0> >::_Node>::allocate
PUBLIC	?construct@?$allocator@PAU_Node@?$_Tree_nod@V?$_Tmap_traits@HPAVBaseDialog@@U?$less@H@std@@V?$allocator@U?$pair@$$CBHPAVBaseDialog@@@std@@@3@$0A@@std@@@std@@@std@@QAEXPAPAU_Node@?$_Tree_nod@V?$_Tmap_traits@HPAVBaseDialog@@U?$less@H@std@@V?$allocator@U?$pair@$$CBHPAVBaseDialog@@@std@@@3@$0A@@std@@@2@ABQAU342@@Z ; std::allocator<std::_Tree_nod<std::_Tmap_traits<int,BaseDialog *,std::less<int>,std::allocator<std::pair<int const ,BaseDialog *> >,0> >::_Node *>::construct
;	COMDAT xdata$x
xdata$x	SEGMENT
$T200035 DD	0ffffffffH
	DD	00H
	DD	0ffffffffH
	DD	00H
$T200037 DD	00H
	DD	00H
	DD	00H
	DD	FLAT:$L200031
$T200036 DD	00H
	DD	00H
	DD	01H
	DD	01H
	DD	FLAT:$T200037
$T200033 DD	019930520H
	DD	02H
	DD	FLAT:$T200035
	DD	01H
	DD	FLAT:$T200036
	DD	2 DUP(00H)
; Function compile flags: /Odt
xdata$x	ENDS
;	COMDAT ?_Buynode@?$_Tree@V?$_Tmap_traits@HPAVBaseDialog@@U?$less@H@std@@V?$allocator@U?$pair@$$CBHPAVBaseDialog@@@std@@@3@$0A@@std@@@std@@IAEPAU_Node@?$_Tree_nod@V?$_Tmap_traits@HPAVBaseDialog@@U?$less@H@std@@V?$allocator@U?$pair@$$CBHPAVBaseDialog@@@std@@@3@$0A@@std@@@2@XZ
_TEXT	SEGMENT
tv145 = -52						; size = 4
tv144 = -48						; size = 4
tv143 = -44						; size = 4
_this$ = -40						; size = 4
$T200029 = -36						; size = 4
$T200028 = -32						; size = 4
$T200027 = -28						; size = 4
__Wherenode$ = -24					; size = 4
__Linkcnt$ = -20					; size = 4
__$EHRec$ = -16						; size = 16
?_Buynode@?$_Tree@V?$_Tmap_traits@HPAVBaseDialog@@U?$less@H@std@@V?$allocator@U?$pair@$$CBHPAVBaseDialog@@@std@@@3@$0A@@std@@@std@@IAEPAU_Node@?$_Tree_nod@V?$_Tmap_traits@HPAVBaseDialog@@U?$less@H@std@@V?$allocator@U?$pair@$$CBHPAVBaseDialog@@@std@@@3@$0A@@std@@@2@XZ PROC NEAR ; std::_Tree<std::_Tmap_traits<int,BaseDialog *,std::less<int>,std::allocator<std::pair<int const ,BaseDialog *> >,0> >::_Buynode, COMDAT
; _this$ = ecx

; 1105 : 		{	// allocate a head/nil node

  00000	55		 push	 ebp
  00001	8b ec		 mov	 ebp, esp
  00003	6a ff		 push	 -1
  00005	68 00 00 00 00	 push	 __ehhandler$?_Buynode@?$_Tree@V?$_Tmap_traits@HPAVBaseDialog@@U?$less@H@std@@V?$allocator@U?$pair@$$CBHPAVBaseDialog@@@std@@@3@$0A@@std@@@std@@IAEPAU_Node@?$_Tree_nod@V?$_Tmap_traits@HPAVBaseDialog@@U?$less@H@std@@V?$allocator@U?$pair@$$CBHPAVBaseDialog@@@std@@@3@$0A@@std@@@2@XZ
  0000a	64 a1 00 00 00
	00		 mov	 eax, DWORD PTR fs:__except_list
  00010	50		 push	 eax
  00011	64 89 25 00 00
	00 00		 mov	 DWORD PTR fs:__except_list, esp
  00018	51		 push	 ecx
  00019	83 ec 24	 sub	 esp, 36			; 00000024H
  0001c	53		 push	 ebx
  0001d	56		 push	 esi
  0001e	57		 push	 edi
  0001f	89 65 f0	 mov	 DWORD PTR __$EHRec$[ebp], esp
  00022	89 4d d8	 mov	 DWORD PTR _this$[ebp], ecx

; 1106 : 		_Nodeptr _Wherenode = this->_Alnod.allocate(1);

  00025	6a 01		 push	 1
  00027	8b 4d d8	 mov	 ecx, DWORD PTR _this$[ebp]
  0002a	83 c1 01	 add	 ecx, 1
  0002d	e8 00 00 00 00	 call	 ?allocate@?$allocator@U_Node@?$_Tree_nod@V?$_Tmap_traits@HPAVBaseDialog@@U?$less@H@std@@V?$allocator@U?$pair@$$CBHPAVBaseDialog@@@std@@@3@$0A@@std@@@std@@@std@@QAEPAU_Node@?$_Tree_nod@V?$_Tmap_traits@HPAVBaseDialog@@U?$less@H@std@@V?$allocator@U?$pair@$$CBHPAVBaseDialog@@@std@@@3@$0A@@std@@@2@I@Z ; std::allocator<std::_Tree_nod<std::_Tmap_traits<int,BaseDialog *,std::less<int>,std::allocator<std::pair<int const ,BaseDialog *> >,0> >::_Node>::allocate
  00032	89 45 e8	 mov	 DWORD PTR __Wherenode$[ebp], eax

; 1107 : 		int _Linkcnt = 0;

  00035	c7 45 ec 00 00
	00 00		 mov	 DWORD PTR __Linkcnt$[ebp], 0

; 1108 : 
; 1109 : 		_TRY_BEGIN

  0003c	c7 45 fc 00 00
	00 00		 mov	 DWORD PTR __$EHRec$[ebp+12], 0

; 1110 : 		this->_Alptr.construct(&_Left(_Wherenode), 0);

  00043	c7 45 e4 00 00
	00 00		 mov	 DWORD PTR $T200027[ebp], 0
  0004a	8b 45 e8	 mov	 eax, DWORD PTR __Wherenode$[ebp]
  0004d	50		 push	 eax
  0004e	e8 00 00 00 00	 call	 ?_Left@?$_Tree@V?$_Tmap_traits@HPAVBaseDialog@@U?$less@H@std@@V?$allocator@U?$pair@$$CBHPAVBaseDialog@@@std@@@3@$0A@@std@@@std@@KAAAPAU_Node@?$_Tree_nod@V?$_Tmap_traits@HPAVBaseDialog@@U?$less@H@std@@V?$allocator@U?$pair@$$CBHPAVBaseDialog@@@std@@@3@$0A@@std@@@2@PAU342@@Z ; std::_Tree<std::_Tmap_traits<int,BaseDialog *,std::less<int>,std::allocator<std::pair<int const ,BaseDialog *> >,0> >::_Left
  00053	83 c4 04	 add	 esp, 4
  00056	89 45 d4	 mov	 DWORD PTR tv143[ebp], eax
  00059	8d 4d e4	 lea	 ecx, DWORD PTR $T200027[ebp]
  0005c	51		 push	 ecx
  0005d	8b 55 d4	 mov	 edx, DWORD PTR tv143[ebp]
  00060	52		 push	 edx
  00061	8b 4d d8	 mov	 ecx, DWORD PTR _this$[ebp]
  00064	83 c1 02	 add	 ecx, 2
  00067	e8 00 00 00 00	 call	 ?construct@?$allocator@PAU_Node@?$_Tree_nod@V?$_Tmap_traits@HPAVBaseDialog@@U?$less@H@std@@V?$allocator@U?$pair@$$CBHPAVBaseDialog@@@std@@@3@$0A@@std@@@std@@@std@@QAEXPAPAU_Node@?$_Tree_nod@V?$_Tmap_traits@HPAVBaseDialog@@U?$less@H@std@@V?$allocator@U?$pair@$$CBHPAVBaseDialog@@@std@@@3@$0A@@std@@@2@ABQAU342@@Z ; std::allocator<std::_Tree_nod<std::_Tmap_traits<int,BaseDialog *,std::less<int>,std::allocator<std::pair<int const ,BaseDialog *> >,0> >::_Node *>::construct

; 1111 : 		++_Linkcnt;

  0006c	8b 45 ec	 mov	 eax, DWORD PTR __Linkcnt$[ebp]
  0006f	83 c0 01	 add	 eax, 1
  00072	89 45 ec	 mov	 DWORD PTR __Linkcnt$[ebp], eax

; 1112 : 		this->_Alptr.construct(&_Parent(_Wherenode), 0);

  00075	c7 45 e0 00 00
	00 00		 mov	 DWORD PTR $T200028[ebp], 0
  0007c	8b 4d e8	 mov	 ecx, DWORD PTR __Wherenode$[ebp]
  0007f	51		 push	 ecx
  00080	e8 00 00 00 00	 call	 ?_Parent@?$_Tree@V?$_Tmap_traits@HPAVBaseDialog@@U?$less@H@std@@V?$allocator@U?$pair@$$CBHPAVBaseDialog@@@std@@@3@$0A@@std@@@std@@KAAAPAU_Node@?$_Tree_nod@V?$_Tmap_traits@HPAVBaseDialog@@U?$less@H@std@@V?$allocator@U?$pair@$$CBHPAVBaseDialog@@@std@@@3@$0A@@std@@@2@PAU342@@Z ; std::_Tree<std::_Tmap_traits<int,BaseDialog *,std::less<int>,std::allocator<std::pair<int const ,BaseDialog *> >,0> >::_Parent
  00085	83 c4 04	 add	 esp, 4
  00088	89 45 d0	 mov	 DWORD PTR tv144[ebp], eax
  0008b	8d 55 e0	 lea	 edx, DWORD PTR $T200028[ebp]
  0008e	52		 push	 edx
  0008f	8b 45 d0	 mov	 eax, DWORD PTR tv144[ebp]
  00092	50		 push	 eax
  00093	8b 4d d8	 mov	 ecx, DWORD PTR _this$[ebp]
  00096	83 c1 02	 add	 ecx, 2
  00099	e8 00 00 00 00	 call	 ?construct@?$allocator@PAU_Node@?$_Tree_nod@V?$_Tmap_traits@HPAVBaseDialog@@U?$less@H@std@@V?$allocator@U?$pair@$$CBHPAVBaseDialog@@@std@@@3@$0A@@std@@@std@@@std@@QAEXPAPAU_Node@?$_Tree_nod@V?$_Tmap_traits@HPAVBaseDialog@@U?$less@H@std@@V?$allocator@U?$pair@$$CBHPAVBaseDialog@@@std@@@3@$0A@@std@@@2@ABQAU342@@Z ; std::allocator<std::_Tree_nod<std::_Tmap_traits<int,BaseDialog *,std::less<int>,std::allocator<std::pair<int const ,BaseDialog *> >,0> >::_Node *>::construct

; 1113 : 		++_Linkcnt;

  0009e	8b 4d ec	 mov	 ecx, DWORD PTR __Linkcnt$[ebp]
  000a1	83 c1 01	 add	 ecx, 1
  000a4	89 4d ec	 mov	 DWORD PTR __Linkcnt$[ebp], ecx

; 1114 : 		this->_Alptr.construct(&_Right(_Wherenode), 0);

  000a7	c7 45 dc 00 00
	00 00		 mov	 DWORD PTR $T200029[ebp], 0
  000ae	8b 55 e8	 mov	 edx, DWORD PTR __Wherenode$[ebp]
  000b1	52		 push	 edx
  000b2	e8 00 00 00 00	 call	 ?_Right@?$_Tree@V?$_Tmap_traits@HPAVBaseDialog@@U?$less@H@std@@V?$allocator@U?$pair@$$CBHPAVBaseDialog@@@std@@@3@$0A@@std@@@std@@KAAAPAU_Node@?$_Tree_nod@V?$_Tmap_traits@HPAVBaseDialog@@U?$less@H@std@@V?$allocator@U?$pair@$$CBHPAVBaseDialog@@@std@@@3@$0A@@std@@@2@PAU342@@Z ; std::_Tree<std::_Tmap_traits<int,BaseDialog *,std::less<int>,std::allocator<std::pair<int const ,BaseDialog *> >,0> >::_Right
  000b7	83 c4 04	 add	 esp, 4
  000ba	89 45 cc	 mov	 DWORD PTR tv145[ebp], eax
  000bd	8d 45 dc	 lea	 eax, DWORD PTR $T200029[ebp]
  000c0	50		 push	 eax
  000c1	8b 4d cc	 mov	 ecx, DWORD PTR tv145[ebp]
  000c4	51		 push	 ecx
  000c5	8b 4d d8	 mov	 ecx, DWORD PTR _this$[ebp]
  000c8	83 c1 02	 add	 ecx, 2
  000cb	e8 00 00 00 00	 call	 ?construct@?$allocator@PAU_Node@?$_Tree_nod@V?$_Tmap_traits@HPAVBaseDialog@@U?$less@H@std@@V?$allocator@U?$pair@$$CBHPAVBaseDialog@@@std@@@3@$0A@@std@@@std@@@std@@QAEXPAPAU_Node@?$_Tree_nod@V?$_Tmap_traits@HPAVBaseDialog@@U?$less@H@std@@V?$allocator@U?$pair@$$CBHPAVBaseDialog@@@std@@@3@$0A@@std@@@2@ABQAU342@@Z ; std::allocator<std::_Tree_nod<std::_Tmap_traits<int,BaseDialog *,std::less<int>,std::allocator<std::pair<int const ,BaseDialog *> >,0> >::_Node *>::construct
  000d0	eb 56		 jmp	 SHORT $L200030
$L200031:

; 1115 : 		_CATCH_ALL
; 1116 : 		if (1 < _Linkcnt)

  000d2	83 7d ec 01	 cmp	 DWORD PTR __Linkcnt$[ebp], 1
  000d6	7e 18		 jle	 SHORT $L199122

; 1117 : 			this->_Alptr.destroy(&_Parent(_Wherenode));

  000d8	8b 55 e8	 mov	 edx, DWORD PTR __Wherenode$[ebp]
  000db	52		 push	 edx
  000dc	e8 00 00 00 00	 call	 ?_Parent@?$_Tree@V?$_Tmap_traits@HPAVBaseDialog@@U?$less@H@std@@V?$allocator@U?$pair@$$CBHPAVBaseDialog@@@std@@@3@$0A@@std@@@std@@KAAAPAU_Node@?$_Tree_nod@V?$_Tmap_traits@HPAVBaseDialog@@U?$less@H@std@@V?$allocator@U?$pair@$$CBHPAVBaseDialog@@@std@@@3@$0A@@std@@@2@PAU342@@Z ; std::_Tree<std::_Tmap_traits<int,BaseDialog *,std::less<int>,std::allocator<std::pair<int const ,BaseDialog *> >,0> >::_Parent
  000e1	83 c4 04	 add	 esp, 4
  000e4	50		 push	 eax
  000e5	8b 4d d8	 mov	 ecx, DWORD PTR _this$[ebp]
  000e8	83 c1 02	 add	 ecx, 2
  000eb	e8 00 00 00 00	 call	 ?destroy@?$allocator@PAU_Node@?$_Tree_nod@V?$_Tmap_traits@HPAVBaseDialog@@U?$less@H@std@@V?$allocator@U?$pair@$$CBHPAVBaseDialog@@@std@@@3@$0A@@std@@@std@@@std@@QAEXPAPAU_Node@?$_Tree_nod@V?$_Tmap_traits@HPAVBaseDialog@@U?$less@H@std@@V?$allocator@U?$pair@$$CBHPAVBaseDialog@@@std@@@3@$0A@@std@@@2@@Z ; std::allocator<std::_Tree_nod<std::_Tmap_traits<int,BaseDialog *,std::less<int>,std::allocator<std::pair<int const ,BaseDialog *> >,0> >::_Node *>::destroy
$L199122:

; 1118 : 		if (0 < _Linkcnt)

  000f0	83 7d ec 00	 cmp	 DWORD PTR __Linkcnt$[ebp], 0
  000f4	7e 18		 jle	 SHORT $L199123

; 1119 : 			this->_Alptr.destroy(&_Left(_Wherenode));

  000f6	8b 45 e8	 mov	 eax, DWORD PTR __Wherenode$[ebp]
  000f9	50		 push	 eax
  000fa	e8 00 00 00 00	 call	 ?_Left@?$_Tree@V?$_Tmap_traits@HPAVBaseDialog@@U?$less@H@std@@V?$allocator@U?$pair@$$CBHPAVBaseDialog@@@std@@@3@$0A@@std@@@std@@KAAAPAU_Node@?$_Tree_nod@V?$_Tmap_traits@HPAVBaseDialog@@U?$less@H@std@@V?$allocator@U?$pair@$$CBHPAVBaseDialog@@@std@@@3@$0A@@std@@@2@PAU342@@Z ; std::_Tree<std::_Tmap_traits<int,BaseDialog *,std::less<int>,std::allocator<std::pair<int const ,BaseDialog *> >,0> >::_Left
  000ff	83 c4 04	 add	 esp, 4
  00102	50		 push	 eax
  00103	8b 4d d8	 mov	 ecx, DWORD PTR _this$[ebp]
  00106	83 c1 02	 add	 ecx, 2
  00109	e8 00 00 00 00	 call	 ?destroy@?$allocator@PAU_Node@?$_Tree_nod@V?$_Tmap_traits@HPAVBaseDialog@@U?$less@H@std@@V?$allocator@U?$pair@$$CBHPAVBaseDialog@@@std@@@3@$0A@@std@@@std@@@std@@QAEXPAPAU_Node@?$_Tree_nod@V?$_Tmap_traits@HPAVBaseDialog@@U?$less@H@std@@V?$allocator@U?$pair@$$CBHPAVBaseDialog@@@std@@@3@$0A@@std@@@2@@Z ; std::allocator<std::_Tree_nod<std::_Tmap_traits<int,BaseDialog *,std::less<int>,std::allocator<std::pair<int const ,BaseDialog *> >,0> >::_Node *>::destroy
$L199123:

; 1120 : 		this->_Alnod.deallocate(_Wherenode, 1);

  0010e	6a 01		 push	 1
  00110	8b 4d e8	 mov	 ecx, DWORD PTR __Wherenode$[ebp]
  00113	51		 push	 ecx
  00114	8b 4d d8	 mov	 ecx, DWORD PTR _this$[ebp]
  00117	83 c1 01	 add	 ecx, 1
  0011a	e8 00 00 00 00	 call	 ?deallocate@?$allocator@U_Node@?$_Tree_nod@V?$_Tmap_traits@HPAVBaseDialog@@U?$less@H@std@@V?$allocator@U?$pair@$$CBHPAVBaseDialog@@@std@@@3@$0A@@std@@@std@@@std@@QAEXPAU_Node@?$_Tree_nod@V?$_Tmap_traits@HPAVBaseDialog@@U?$less@H@std@@V?$allocator@U?$pair@$$CBHPAVBaseDialog@@@std@@@3@$0A@@std@@@2@I@Z ; std::allocator<std::_Tree_nod<std::_Tmap_traits<int,BaseDialog *,std::less<int>,std::allocator<std::pair<int const ,BaseDialog *> >,0> >::_Node>::deallocate

; 1121 : 		_RERAISE;

  0011f	6a 00		 push	 0
  00121	6a 00		 push	 0
  00123	e8 00 00 00 00	 call	 __CxxThrowException@8
$L200030:

; 1122 : 		_CATCH_END

  00128	c7 45 fc ff ff
	ff ff		 mov	 DWORD PTR __$EHRec$[ebp+12], -1

; 1123 : 		_Color(_Wherenode) = _Black;

  0012f	8b 55 e8	 mov	 edx, DWORD PTR __Wherenode$[ebp]
  00132	52		 push	 edx
  00133	e8 00 00 00 00	 call	 ?_Color@?$_Tree@V?$_Tmap_traits@HPAVBaseDialog@@U?$less@H@std@@V?$allocator@U?$pair@$$CBHPAVBaseDialog@@@std@@@3@$0A@@std@@@std@@KAAADPAU_Node@?$_Tree_nod@V?$_Tmap_traits@HPAVBaseDialog@@U?$less@H@std@@V?$allocator@U?$pair@$$CBHPAVBaseDialog@@@std@@@3@$0A@@std@@@2@@Z ; std::_Tree<std::_Tmap_traits<int,BaseDialog *,std::less<int>,std::allocator<std::pair<int const ,BaseDialog *> >,0> >::_Color
  00138	83 c4 04	 add	 esp, 4
  0013b	c6 00 01	 mov	 BYTE PTR [eax], 1

; 1124 : 		_Isnil(_Wherenode) = false;

  0013e	8b 45 e8	 mov	 eax, DWORD PTR __Wherenode$[ebp]
  00141	50		 push	 eax
  00142	e8 00 00 00 00	 call	 ?_Isnil@?$_Tree@V?$_Tmap_traits@HPAVBaseDialog@@U?$less@H@std@@V?$allocator@U?$pair@$$CBHPAVBaseDialog@@@std@@@3@$0A@@std@@@std@@KAAADPAU_Node@?$_Tree_nod@V?$_Tmap_traits@HPAVBaseDialog@@U?$less@H@std@@V?$allocator@U?$pair@$$CBHPAVBaseDialog@@@std@@@3@$0A@@std@@@2@@Z ; std::_Tree<std::_Tmap_traits<int,BaseDialog *,std::less<int>,std::allocator<std::pair<int const ,BaseDialog *> >,0> >::_Isnil
  00147	83 c4 04	 add	 esp, 4
  0014a	c6 00 00	 mov	 BYTE PTR [eax], 0

; 1125 : 		return (_Wherenode);

  0014d	8b 45 e8	 mov	 eax, DWORD PTR __Wherenode$[ebp]
$L200026:

; 1126 : 		}

  00150	8b 4d f4	 mov	 ecx, DWORD PTR __$EHRec$[ebp+4]
  00153	64 89 0d 00 00
	00 00		 mov	 DWORD PTR fs:__except_list, ecx
  0015a	5f		 pop	 edi
  0015b	5e		 pop	 esi
  0015c	5b		 pop	 ebx
  0015d	8b e5		 mov	 esp, ebp
  0015f	5d		 pop	 ebp
  00160	c3		 ret	 0
_TEXT	ENDS
;	COMDAT text$x
text$x	SEGMENT
__ehhandler$?_Buynode@?$_Tree@V?$_Tmap_traits@HPAVBaseDialog@@U?$less@H@std@@V?$allocator@U?$pair@$$CBHPAVBaseDialog@@@std@@@3@$0A@@std@@@std@@IAEPAU_Node@?$_Tree_nod@V?$_Tmap_traits@HPAVBaseDialog@@U?$less@H@std@@V?$allocator@U?$pair@$$CBHPAVBaseDialog@@@std@@@3@$0A@@std@@@2@XZ:
  00000	b8 00 00 00 00	 mov	 eax, OFFSET FLAT:$T200033
  00005	e9 00 00 00 00	 jmp	 ___CxxFrameHandler
text$x	ENDS
?_Buynode@?$_Tree@V?$_Tmap_traits@HPAVBaseDialog@@U?$less@H@std@@V?$allocator@U?$pair@$$CBHPAVBaseDialog@@@std@@@3@$0A@@std@@@std@@IAEPAU_Node@?$_Tree_nod@V?$_Tmap_traits@HPAVBaseDialog@@U?$less@H@std@@V?$allocator@U?$pair@$$CBHPAVBaseDialog@@@std@@@3@$0A@@std@@@2@XZ ENDP ; std::_Tree<std::_Tmap_traits<int,BaseDialog *,std::less<int>,std::allocator<std::pair<int const ,BaseDialog *> >,0> >::_Buynode
PUBLIC	??0_Node@?$_Tree_nod@V?$_Tmap_traits@HPAVBaseDialog@@U?$less@H@std@@V?$allocator@U?$pair@$$CBHPAVBaseDialog@@@std@@@3@$0A@@std@@@std@@QAE@PAU012@00ABU?$pair@$$CBHPAVBaseDialog@@@2@D@Z ; std::_Tree_nod<std::_Tmap_traits<int,BaseDialog *,std::less<int>,std::allocator<std::pair<int const ,BaseDialog *> >,0> >::_Node::_Node
PUBLIC	??2@YAPAXIPAX@Z					; operator new
PUBLIC	??3@YAXPAX0@Z					; operator delete
;	COMDAT xdata$x
xdata$x	SEGMENT
$T200052 DD	0ffffffffH
	DD	00H
	DD	00H
	DD	FLAT:$L200048
	DD	0ffffffffH
	DD	00H
$T200054 DD	00H
	DD	00H
	DD	00H
	DD	FLAT:$L200047
$T200053 DD	00H
	DD	01H
	DD	02H
	DD	01H
	DD	FLAT:$T200054
$T200050 DD	019930520H
	DD	03H
	DD	FLAT:$T200052
	DD	01H
	DD	FLAT:$T200053
	DD	2 DUP(00H)
; Function compile flags: /Odt
xdata$x	ENDS
;	COMDAT ?_Buynode@?$_Tree@V?$_Tmap_traits@HPAVBaseDialog@@U?$less@H@std@@V?$allocator@U?$pair@$$CBHPAVBaseDialog@@@std@@@3@$0A@@std@@@std@@IAEPAU_Node@?$_Tree_nod@V?$_Tmap_traits@HPAVBaseDialog@@U?$less@H@std@@V?$allocator@U?$pair@$$CBHPAVBaseDialog@@@std@@@3@$0A@@std@@@2@PAU342@00ABU?$pair@$$CBHPAVBaseDialog@@@2@D@Z
_TEXT	SEGMENT
tv82 = -44						; size = 4
tv94 = -40						; size = 4
tv91 = -36						; size = 4
_this$ = -32						; size = 4
$T200043 = -28						; size = 4
$T200042 = -24						; size = 4
__Wherenode$ = -20					; size = 4
__$EHRec$ = -16						; size = 16
__Larg$ = 8						; size = 4
__Parg$ = 12						; size = 4
__Rarg$ = 16						; size = 4
__Val$ = 20						; size = 4
__Carg$ = 24						; size = 1
?_Buynode@?$_Tree@V?$_Tmap_traits@HPAVBaseDialog@@U?$less@H@std@@V?$allocator@U?$pair@$$CBHPAVBaseDialog@@@std@@@3@$0A@@std@@@std@@IAEPAU_Node@?$_Tree_nod@V?$_Tmap_traits@HPAVBaseDialog@@U?$less@H@std@@V?$allocator@U?$pair@$$CBHPAVBaseDialog@@@std@@@3@$0A@@std@@@2@PAU342@00ABU?$pair@$$CBHPAVBaseDialog@@@2@D@Z PROC NEAR ; std::_Tree<std::_Tmap_traits<int,BaseDialog *,std::less<int>,std::allocator<std::pair<int const ,BaseDialog *> >,0> >::_Buynode, COMDAT
; _this$ = ecx

; 1130 : 		{	// allocate a node with pointers, value, and color

  00000	55		 push	 ebp
  00001	8b ec		 mov	 ebp, esp
  00003	6a ff		 push	 -1
  00005	68 00 00 00 00	 push	 __ehhandler$?_Buynode@?$_Tree@V?$_Tmap_traits@HPAVBaseDialog@@U?$less@H@std@@V?$allocator@U?$pair@$$CBHPAVBaseDialog@@@std@@@3@$0A@@std@@@std@@IAEPAU_Node@?$_Tree_nod@V?$_Tmap_traits@HPAVBaseDialog@@U?$less@H@std@@V?$allocator@U?$pair@$$CBHPAVBaseDialog@@@std@@@3@$0A@@std@@@2@PAU342@00ABU?$pair@$$CBHPAVBaseDialog@@@2@D@Z
  0000a	64 a1 00 00 00
	00		 mov	 eax, DWORD PTR fs:__except_list
  00010	50		 push	 eax
  00011	64 89 25 00 00
	00 00		 mov	 DWORD PTR fs:__except_list, esp
  00018	51		 push	 ecx
  00019	83 ec 1c	 sub	 esp, 28			; 0000001cH
  0001c	53		 push	 ebx
  0001d	56		 push	 esi
  0001e	57		 push	 edi
  0001f	89 65 f0	 mov	 DWORD PTR __$EHRec$[ebp], esp
  00022	89 4d e0	 mov	 DWORD PTR _this$[ebp], ecx

; 1131 : 		_Nodeptr _Wherenode = this->_Alnod.allocate(1);

  00025	6a 01		 push	 1
  00027	8b 4d e0	 mov	 ecx, DWORD PTR _this$[ebp]
  0002a	83 c1 01	 add	 ecx, 1
  0002d	e8 00 00 00 00	 call	 ?allocate@?$allocator@U_Node@?$_Tree_nod@V?$_Tmap_traits@HPAVBaseDialog@@U?$less@H@std@@V?$allocator@U?$pair@$$CBHPAVBaseDialog@@@std@@@3@$0A@@std@@@std@@@std@@QAEPAU_Node@?$_Tree_nod@V?$_Tmap_traits@HPAVBaseDialog@@U?$less@H@std@@V?$allocator@U?$pair@$$CBHPAVBaseDialog@@@std@@@3@$0A@@std@@@2@I@Z ; std::allocator<std::_Tree_nod<std::_Tmap_traits<int,BaseDialog *,std::less<int>,std::allocator<std::pair<int const ,BaseDialog *> >,0> >::_Node>::allocate
  00032	89 45 ec	 mov	 DWORD PTR __Wherenode$[ebp], eax

; 1132 : 		_TRY_BEGIN

  00035	c7 45 fc 00 00
	00 00		 mov	 DWORD PTR __$EHRec$[ebp+12], 0

; 1133 : 		new (_Wherenode) _Node(_Larg, _Parg, _Rarg, _Val, _Carg);

  0003c	8b 45 ec	 mov	 eax, DWORD PTR __Wherenode$[ebp]
  0003f	50		 push	 eax
  00040	6a 18		 push	 24			; 00000018H
  00042	e8 00 00 00 00	 call	 ??2@YAPAXIPAX@Z		; operator new
  00047	83 c4 08	 add	 esp, 8
  0004a	89 45 dc	 mov	 DWORD PTR tv91[ebp], eax
  0004d	8b 4d dc	 mov	 ecx, DWORD PTR tv91[ebp]
  00050	89 4d e4	 mov	 DWORD PTR $T200043[ebp], ecx
  00053	c6 45 fc 01	 mov	 BYTE PTR __$EHRec$[ebp+12], 1
  00057	83 7d e4 00	 cmp	 DWORD PTR $T200043[ebp], 0
  0005b	74 27		 je	 SHORT $L200044
  0005d	8a 55 18	 mov	 dl, BYTE PTR __Carg$[ebp]
  00060	52		 push	 edx
  00061	8b 45 14	 mov	 eax, DWORD PTR __Val$[ebp]
  00064	50		 push	 eax
  00065	8b 4d 10	 mov	 ecx, DWORD PTR __Rarg$[ebp]
  00068	51		 push	 ecx
  00069	8b 55 0c	 mov	 edx, DWORD PTR __Parg$[ebp]
  0006c	52		 push	 edx
  0006d	8b 45 08	 mov	 eax, DWORD PTR __Larg$[ebp]
  00070	50		 push	 eax
  00071	8b 4d e4	 mov	 ecx, DWORD PTR $T200043[ebp]
  00074	e8 00 00 00 00	 call	 ??0_Node@?$_Tree_nod@V?$_Tmap_traits@HPAVBaseDialog@@U?$less@H@std@@V?$allocator@U?$pair@$$CBHPAVBaseDialog@@@std@@@3@$0A@@std@@@std@@QAE@PAU012@00ABU?$pair@$$CBHPAVBaseDialog@@@2@D@Z ; std::_Tree_nod<std::_Tmap_traits<int,BaseDialog *,std::less<int>,std::allocator<std::pair<int const ,BaseDialog *> >,0> >::_Node::_Node
  00079	89 45 d8	 mov	 DWORD PTR tv94[ebp], eax
  0007c	8b 4d d8	 mov	 ecx, DWORD PTR tv94[ebp]
  0007f	89 4d d4	 mov	 DWORD PTR tv82[ebp], ecx
  00082	eb 07		 jmp	 SHORT $L200045
$L200044:
  00084	c7 45 d4 00 00
	00 00		 mov	 DWORD PTR tv82[ebp], 0
$L200045:
  0008b	8b 55 d4	 mov	 edx, DWORD PTR tv82[ebp]
  0008e	89 55 e8	 mov	 DWORD PTR $T200042[ebp], edx
  00091	c6 45 fc 00	 mov	 BYTE PTR __$EHRec$[ebp+12], 0
  00095	eb 1a		 jmp	 SHORT $L200046
$L200047:

; 1134 : 		_CATCH_ALL
; 1135 : 		this->_Alnod.deallocate(_Wherenode, 1);

  00097	6a 01		 push	 1
  00099	8b 45 ec	 mov	 eax, DWORD PTR __Wherenode$[ebp]
  0009c	50		 push	 eax
  0009d	8b 4d e0	 mov	 ecx, DWORD PTR _this$[ebp]
  000a0	83 c1 01	 add	 ecx, 1
  000a3	e8 00 00 00 00	 call	 ?deallocate@?$allocator@U_Node@?$_Tree_nod@V?$_Tmap_traits@HPAVBaseDialog@@U?$less@H@std@@V?$allocator@U?$pair@$$CBHPAVBaseDialog@@@std@@@3@$0A@@std@@@std@@@std@@QAEXPAU_Node@?$_Tree_nod@V?$_Tmap_traits@HPAVBaseDialog@@U?$less@H@std@@V?$allocator@U?$pair@$$CBHPAVBaseDialog@@@std@@@3@$0A@@std@@@2@I@Z ; std::allocator<std::_Tree_nod<std::_Tmap_traits<int,BaseDialog *,std::less<int>,std::allocator<std::pair<int const ,BaseDialog *> >,0> >::_Node>::deallocate

; 1136 : 		_RERAISE;

  000a8	6a 00		 push	 0
  000aa	6a 00		 push	 0
  000ac	e8 00 00 00 00	 call	 __CxxThrowException@8
$L200046:

; 1137 : 		_CATCH_END

  000b1	c7 45 fc ff ff
	ff ff		 mov	 DWORD PTR __$EHRec$[ebp+12], -1

; 1138 : 		return (_Wherenode);

  000b8	8b 45 ec	 mov	 eax, DWORD PTR __Wherenode$[ebp]
$L200041:

; 1139 : 		}

  000bb	8b 4d f4	 mov	 ecx, DWORD PTR __$EHRec$[ebp+4]
  000be	64 89 0d 00 00
	00 00		 mov	 DWORD PTR fs:__except_list, ecx
  000c5	5f		 pop	 edi
  000c6	5e		 pop	 esi
  000c7	5b		 pop	 ebx
  000c8	8b e5		 mov	 esp, ebp
  000ca	5d		 pop	 ebp
  000cb	c2 14 00	 ret	 20			; 00000014H
_TEXT	ENDS
;	COMDAT text$x
text$x	SEGMENT
$L200048:
  00000	8b 45 ec	 mov	 eax, DWORD PTR __Wherenode$[ebp]
  00003	50		 push	 eax
  00004	8b 4d e4	 mov	 ecx, DWORD PTR $T200043[ebp]
  00007	51		 push	 ecx
  00008	e8 00 00 00 00	 call	 ??3@YAXPAX0@Z		; operator delete
  0000d	83 c4 08	 add	 esp, 8
  00010	c3		 ret	 0
__ehhandler$?_Buynode@?$_Tree@V?$_Tmap_traits@HPAVBaseDialog@@U?$less@H@std@@V?$allocator@U?$pair@$$CBHPAVBaseDialog@@@std@@@3@$0A@@std@@@std@@IAEPAU_Node@?$_Tree_nod@V?$_Tmap_traits@HPAVBaseDialog@@U?$less@H@std@@V?$allocator@U?$pair@$$CBHPAVBaseDialog@@@std@@@3@$0A@@std@@@2@PAU342@00ABU?$pair@$$CBHPAVBaseDialog@@@2@D@Z:
  00011	b8 00 00 00 00	 mov	 eax, OFFSET FLAT:$T200050
  00016	e9 00 00 00 00	 jmp	 ___CxxFrameHandler
text$x	ENDS
?_Buynode@?$_Tree@V?$_Tmap_traits@HPAVBaseDialog@@U?$less@H@std@@V?$allocator@U?$pair@$$CBHPAVBaseDialog@@@std@@@3@$0A@@std@@@std@@IAEPAU_Node@?$_Tree_nod@V?$_Tmap_traits@HPAVBaseDialog@@U?$less@H@std@@V?$allocator@U?$pair@$$CBHPAVBaseDialog@@@std@@@3@$0A@@std@@@2@PAU342@00ABU?$pair@$$CBHPAVBaseDialog@@@2@D@Z ENDP ; std::_Tree<std::_Tmap_traits<int,BaseDialog *,std::less<int>,std::allocator<std::pair<int const ,BaseDialog *> >,0> >::_Buynode
; Function compile flags: /Odt
; File d:\program files (x86)\microsoft visual studio .net 2003\vc7\include\new.h
;	COMDAT ??2@YAPAXIPAX@Z
_TEXT	SEGMENT
___formal$ = 8						; size = 4
__P$ = 12						; size = 4
??2@YAPAXIPAX@Z PROC NEAR				; operator new, COMDAT

; 109  :         {return (_P); }

  00000	55		 push	 ebp
  00001	8b ec		 mov	 ebp, esp
  00003	8b 45 0c	 mov	 eax, DWORD PTR __P$[ebp]
  00006	5d		 pop	 ebp
  00007	c3		 ret	 0
??2@YAPAXIPAX@Z ENDP					; operator new
; Function compile flags: /Odt
_TEXT	ENDS
;	COMDAT ??3@YAXPAX0@Z
_TEXT	SEGMENT
___formal$ = 8						; size = 4
___formal$ = 12						; size = 4
??3@YAXPAX0@Z PROC NEAR					; operator delete, COMDAT

; 112  :         {return; }

  00000	55		 push	 ebp
  00001	8b ec		 mov	 ebp, esp
  00003	5d		 pop	 ebp
  00004	c3		 ret	 0
??3@YAXPAX0@Z ENDP					; operator delete
_TEXT	ENDS
PUBLIC	??0?$_Tree_nod@V?$_Tmap_traits@HPAVBaseDialog@@U?$less@H@std@@V?$allocator@U?$pair@$$CBHPAVBaseDialog@@@std@@@3@$0A@@std@@@std@@IAE@ABU?$less@H@1@V?$allocator@U?$pair@$$CBHPAVBaseDialog@@@std@@@1@@Z ; std::_Tree_nod<std::_Tmap_traits<int,BaseDialog *,std::less<int>,std::allocator<std::pair<int const ,BaseDialog *> >,0> >::_Tree_nod<std::_Tmap_traits<int,BaseDialog *,std::less<int>,std::allocator<std::pair<int const ,BaseDialog *> >,0> >
PUBLIC	??$?0U?$pair@$$CBHPAVBaseDialog@@@std@@@?$allocator@PAU_Node@?$_Tree_nod@V?$_Tmap_traits@HPAVBaseDialog@@U?$less@H@std@@V?$allocator@U?$pair@$$CBHPAVBaseDialog@@@std@@@3@$0A@@std@@@std@@@std@@QAE@ABV?$allocator@U?$pair@$$CBHPAVBaseDialog@@@std@@@1@@Z ; std::allocator<std::_Tree_nod<std::_Tmap_traits<int,BaseDialog *,std::less<int>,std::allocator<std::pair<int const ,BaseDialog *> >,0> >::_Node *>::allocator<std::_Tree_nod<std::_Tmap_traits<int,BaseDialog *,std::less<int>,std::allocator<std::pair<int const ,BaseDialog *> >,0> >::_Node *><std::pair<int const ,BaseDialog *> >
; Function compile flags: /Odt
; File d:\program files (x86)\microsoft visual studio .net 2003\vc7\include\xtree
;	COMDAT ??0?$_Tree_ptr@V?$_Tmap_traits@HPAVBaseDialog@@U?$less@H@std@@V?$allocator@U?$pair@$$CBHPAVBaseDialog@@@std@@@3@$0A@@std@@@std@@IAE@ABU?$less@H@1@V?$allocator@U?$pair@$$CBHPAVBaseDialog@@@std@@@1@@Z
_TEXT	SEGMENT
_this$ = -8						; size = 4
__Parg$ = 8						; size = 4
__Al$ = 12						; size = 1
??0?$_Tree_ptr@V?$_Tmap_traits@HPAVBaseDialog@@U?$less@H@std@@V?$allocator@U?$pair@$$CBHPAVBaseDialog@@@std@@@3@$0A@@std@@@std@@IAE@ABU?$less@H@1@V?$allocator@U?$pair@$$CBHPAVBaseDialog@@@std@@@1@@Z PROC NEAR ; std::_Tree_ptr<std::_Tmap_traits<int,BaseDialog *,std::less<int>,std::allocator<std::pair<int const ,BaseDialog *> >,0> >::_Tree_ptr<std::_Tmap_traits<int,BaseDialog *,std::less<int>,std::allocator<std::pair<int const ,BaseDialog *> >,0> >, COMDAT
; _this$ = ecx

; 76   : 		{	// construct base, and allocator from _Al

  00000	55		 push	 ebp
  00001	8b ec		 mov	 ebp, esp
  00003	83 ec 08	 sub	 esp, 8
  00006	89 4d f8	 mov	 DWORD PTR _this$[ebp], ecx
  00009	51		 push	 ecx
  0000a	8b cc		 mov	 ecx, esp
  0000c	8d 45 0c	 lea	 eax, DWORD PTR __Al$[ebp]
  0000f	50		 push	 eax
  00010	e8 00 00 00 00	 call	 ??0?$allocator@U?$pair@$$CBHPAVBaseDialog@@@std@@@std@@QAE@ABV01@@Z ; std::allocator<std::pair<int const ,BaseDialog *> >::allocator<std::pair<int const ,BaseDialog *> >
  00015	8b 4d 08	 mov	 ecx, DWORD PTR __Parg$[ebp]
  00018	51		 push	 ecx
  00019	8b 4d f8	 mov	 ecx, DWORD PTR _this$[ebp]
  0001c	e8 00 00 00 00	 call	 ??0?$_Tree_nod@V?$_Tmap_traits@HPAVBaseDialog@@U?$less@H@std@@V?$allocator@U?$pair@$$CBHPAVBaseDialog@@@std@@@3@$0A@@std@@@std@@IAE@ABU?$less@H@1@V?$allocator@U?$pair@$$CBHPAVBaseDialog@@@std@@@1@@Z ; std::_Tree_nod<std::_Tmap_traits<int,BaseDialog *,std::less<int>,std::allocator<std::pair<int const ,BaseDialog *> >,0> >::_Tree_nod<std::_Tmap_traits<int,BaseDialog *,std::less<int>,std::allocator<std::pair<int const ,BaseDialog *> >,0> >
  00021	8d 55 0c	 lea	 edx, DWORD PTR __Al$[ebp]
  00024	52		 push	 edx
  00025	8b 4d f8	 mov	 ecx, DWORD PTR _this$[ebp]
  00028	83 c1 02	 add	 ecx, 2
  0002b	e8 00 00 00 00	 call	 ??$?0U?$pair@$$CBHPAVBaseDialog@@@std@@@?$allocator@PAU_Node@?$_Tree_nod@V?$_Tmap_traits@HPAVBaseDialog@@U?$less@H@std@@V?$allocator@U?$pair@$$CBHPAVBaseDialog@@@std@@@3@$0A@@std@@@std@@@std@@QAE@ABV?$allocator@U?$pair@$$CBHPAVBaseDialog@@@std@@@1@@Z ; std::allocator<std::_Tree_nod<std::_Tmap_traits<int,BaseDialog *,std::less<int>,std::allocator<std::pair<int const ,BaseDialog *> >,0> >::_Node *>::allocator<std::_Tree_nod<std::_Tmap_traits<int,BaseDialog *,std::less<int>,std::allocator<std::pair<int const ,BaseDialog *> >,0> >::_Node *><std::pair<int const ,BaseDialog *> >

; 77   : 		}

  00030	8b 45 f8	 mov	 eax, DWORD PTR _this$[ebp]
  00033	8b e5		 mov	 esp, ebp
  00035	5d		 pop	 ebp
  00036	c2 08 00	 ret	 8
??0?$_Tree_ptr@V?$_Tmap_traits@HPAVBaseDialog@@U?$less@H@std@@V?$allocator@U?$pair@$$CBHPAVBaseDialog@@@std@@@3@$0A@@std@@@std@@IAE@ABU?$less@H@1@V?$allocator@U?$pair@$$CBHPAVBaseDialog@@@std@@@1@@Z ENDP ; std::_Tree_ptr<std::_Tmap_traits<int,BaseDialog *,std::less<int>,std::allocator<std::pair<int const ,BaseDialog *> >,0> >::_Tree_ptr<std::_Tmap_traits<int,BaseDialog *,std::less<int>,std::allocator<std::pair<int const ,BaseDialog *> >,0> >
; Function compile flags: /Odt
_TEXT	ENDS
;	COMDAT ??Eiterator@?$_Tree@V?$_Tmap_traits@HPAVBaseDialog@@U?$less@H@std@@V?$allocator@U?$pair@$$CBHPAVBaseDialog@@@std@@@3@$0A@@std@@@std@@QAE?AV012@H@Z
_TEXT	SEGMENT
_this$ = -8						; size = 4
__Tmp$ = -4						; size = 4
___$ReturnUdt$ = 8					; size = 4
___formal$ = 12						; size = 4
??Eiterator@?$_Tree@V?$_Tmap_traits@HPAVBaseDialog@@U?$less@H@std@@V?$allocator@U?$pair@$$CBHPAVBaseDialog@@@std@@@3@$0A@@std@@@std@@QAE?AV012@H@Z PROC NEAR ; std::_Tree<std::_Tmap_traits<int,BaseDialog *,std::less<int>,std::allocator<std::pair<int const ,BaseDialog *> >,0> >::iterator::operator++, COMDAT
; _this$ = ecx

; 332  : 			{	// postincrement

  00000	55		 push	 ebp
  00001	8b ec		 mov	 ebp, esp
  00003	83 ec 08	 sub	 esp, 8
  00006	89 4d f8	 mov	 DWORD PTR _this$[ebp], ecx

; 333  : 			iterator _Tmp = *this;

  00009	8b 45 f8	 mov	 eax, DWORD PTR _this$[ebp]
  0000c	8b 08		 mov	 ecx, DWORD PTR [eax]
  0000e	89 4d fc	 mov	 DWORD PTR __Tmp$[ebp], ecx

; 334  : 			++*this;

  00011	8b 4d f8	 mov	 ecx, DWORD PTR _this$[ebp]
  00014	e8 00 00 00 00	 call	 ??Eiterator@?$_Tree@V?$_Tmap_traits@HPAVBaseDialog@@U?$less@H@std@@V?$allocator@U?$pair@$$CBHPAVBaseDialog@@@std@@@3@$0A@@std@@@std@@QAEAAV012@XZ ; std::_Tree<std::_Tmap_traits<int,BaseDialog *,std::less<int>,std::allocator<std::pair<int const ,BaseDialog *> >,0> >::iterator::operator++

; 335  : 			return (_Tmp);

  00019	8b 55 08	 mov	 edx, DWORD PTR ___$ReturnUdt$[ebp]
  0001c	8b 45 fc	 mov	 eax, DWORD PTR __Tmp$[ebp]
  0001f	89 02		 mov	 DWORD PTR [edx], eax
  00021	8b 45 08	 mov	 eax, DWORD PTR ___$ReturnUdt$[ebp]

; 336  : 			}

  00024	8b e5		 mov	 esp, ebp
  00026	5d		 pop	 ebp
  00027	c2 08 00	 ret	 8
??Eiterator@?$_Tree@V?$_Tmap_traits@HPAVBaseDialog@@U?$less@H@std@@V?$allocator@U?$pair@$$CBHPAVBaseDialog@@@std@@@3@$0A@@std@@@std@@QAE?AV012@H@Z ENDP ; std::_Tree<std::_Tmap_traits<int,BaseDialog *,std::less<int>,std::allocator<std::pair<int const ,BaseDialog *> >,0> >::iterator::operator++
; Function compile flags: /Odt
_TEXT	ENDS
;	COMDAT ??0const_iterator@?$_Tree@V?$_Tmap_traits@HPAVBaseDialog@@U?$less@H@std@@V?$allocator@U?$pair@$$CBHPAVBaseDialog@@@std@@@3@$0A@@std@@@std@@QAE@XZ
_TEXT	SEGMENT
_this$ = -4						; size = 4
??0const_iterator@?$_Tree@V?$_Tmap_traits@HPAVBaseDialog@@U?$less@H@std@@V?$allocator@U?$pair@$$CBHPAVBaseDialog@@@std@@@3@$0A@@std@@@std@@QAE@XZ PROC NEAR ; std::_Tree<std::_Tmap_traits<int,BaseDialog *,std::less<int>,std::allocator<std::pair<int const ,BaseDialog *> >,0> >::const_iterator::const_iterator, COMDAT
; _this$ = ecx

; 193  : 			{	// construct with null node pointer

  00000	55		 push	 ebp
  00001	8b ec		 mov	 ebp, esp
  00003	51		 push	 ecx
  00004	89 4d fc	 mov	 DWORD PTR _this$[ebp], ecx
  00007	8b 45 fc	 mov	 eax, DWORD PTR _this$[ebp]
  0000a	c7 00 00 00 00
	00		 mov	 DWORD PTR [eax], 0

; 194  : 			}

  00010	8b 45 fc	 mov	 eax, DWORD PTR _this$[ebp]
  00013	8b e5		 mov	 esp, ebp
  00015	5d		 pop	 ebp
  00016	c3		 ret	 0
??0const_iterator@?$_Tree@V?$_Tmap_traits@HPAVBaseDialog@@U?$less@H@std@@V?$allocator@U?$pair@$$CBHPAVBaseDialog@@@std@@@3@$0A@@std@@@std@@QAE@XZ ENDP ; std::_Tree<std::_Tmap_traits<int,BaseDialog *,std::less<int>,std::allocator<std::pair<int const ,BaseDialog *> >,0> >::const_iterator::const_iterator
; Function compile flags: /Odt
_TEXT	ENDS
;	COMDAT ??0const_iterator@?$_Tree@V?$_Tmap_traits@HPAVBaseDialog@@U?$less@H@std@@V?$allocator@U?$pair@$$CBHPAVBaseDialog@@@std@@@3@$0A@@std@@@std@@QAE@PAU_Node@?$_Tree_nod@V?$_Tmap_traits@HPAVBaseDialog@@U?$less@H@std@@V?$allocator@U?$pair@$$CBHPAVBaseDialog@@@std@@@3@$0A@@std@@@2@@Z
_TEXT	SEGMENT
_this$ = -4						; size = 4
__Pnode$ = 8						; size = 4
??0const_iterator@?$_Tree@V?$_Tmap_traits@HPAVBaseDialog@@U?$less@H@std@@V?$allocator@U?$pair@$$CBHPAVBaseDialog@@@std@@@3@$0A@@std@@@std@@QAE@PAU_Node@?$_Tree_nod@V?$_Tmap_traits@HPAVBaseDialog@@U?$less@H@std@@V?$allocator@U?$pair@$$CBHPAVBaseDialog@@@std@@@3@$0A@@std@@@2@@Z PROC NEAR ; std::_Tree<std::_Tmap_traits<int,BaseDialog *,std::less<int>,std::allocator<std::pair<int const ,BaseDialog *> >,0> >::const_iterator::const_iterator, COMDAT
; _this$ = ecx

; 200  : 			{	// construct with node pointer _Pnode

  00000	55		 push	 ebp
  00001	8b ec		 mov	 ebp, esp
  00003	51		 push	 ecx
  00004	89 4d fc	 mov	 DWORD PTR _this$[ebp], ecx
  00007	8b 45 fc	 mov	 eax, DWORD PTR _this$[ebp]
  0000a	8b 4d 08	 mov	 ecx, DWORD PTR __Pnode$[ebp]
  0000d	89 08		 mov	 DWORD PTR [eax], ecx

; 201  : 			}

  0000f	8b 45 fc	 mov	 eax, DWORD PTR _this$[ebp]
  00012	8b e5		 mov	 esp, ebp
  00014	5d		 pop	 ebp
  00015	c2 04 00	 ret	 4
??0const_iterator@?$_Tree@V?$_Tmap_traits@HPAVBaseDialog@@U?$less@H@std@@V?$allocator@U?$pair@$$CBHPAVBaseDialog@@@std@@@3@$0A@@std@@@std@@QAE@PAU_Node@?$_Tree_nod@V?$_Tmap_traits@HPAVBaseDialog@@U?$less@H@std@@V?$allocator@U?$pair@$$CBHPAVBaseDialog@@@std@@@3@$0A@@std@@@2@@Z ENDP ; std::_Tree<std::_Tmap_traits<int,BaseDialog *,std::less<int>,std::allocator<std::pair<int const ,BaseDialog *> >,0> >::const_iterator::const_iterator
_TEXT	ENDS
PUBLIC	?_Inc@const_iterator@?$_Tree@V?$_Tmap_traits@HPAVBaseDialog@@U?$less@H@std@@V?$allocator@U?$pair@$$CBHPAVBaseDialog@@@std@@@3@$0A@@std@@@std@@QAEXXZ ; std::_Tree<std::_Tmap_traits<int,BaseDialog *,std::less<int>,std::allocator<std::pair<int const ,BaseDialog *> >,0> >::const_iterator::_Inc
; Function compile flags: /Odt
;	COMDAT ??Econst_iterator@?$_Tree@V?$_Tmap_traits@HPAVBaseDialog@@U?$less@H@std@@V?$allocator@U?$pair@$$CBHPAVBaseDialog@@@std@@@3@$0A@@std@@@std@@QAEAAV012@XZ
_TEXT	SEGMENT
_this$ = -4						; size = 4
??Econst_iterator@?$_Tree@V?$_Tmap_traits@HPAVBaseDialog@@U?$less@H@std@@V?$allocator@U?$pair@$$CBHPAVBaseDialog@@@std@@@3@$0A@@std@@@std@@QAEAAV012@XZ PROC NEAR ; std::_Tree<std::_Tmap_traits<int,BaseDialog *,std::less<int>,std::allocator<std::pair<int const ,BaseDialog *> >,0> >::const_iterator::operator++, COMDAT
; _this$ = ecx

; 214  : 			{	// preincrement

  00000	55		 push	 ebp
  00001	8b ec		 mov	 ebp, esp
  00003	51		 push	 ecx
  00004	89 4d fc	 mov	 DWORD PTR _this$[ebp], ecx

; 215  : 			_Inc();

  00007	8b 4d fc	 mov	 ecx, DWORD PTR _this$[ebp]
  0000a	e8 00 00 00 00	 call	 ?_Inc@const_iterator@?$_Tree@V?$_Tmap_traits@HPAVBaseDialog@@U?$less@H@std@@V?$allocator@U?$pair@$$CBHPAVBaseDialog@@@std@@@3@$0A@@std@@@std@@QAEXXZ ; std::_Tree<std::_Tmap_traits<int,BaseDialog *,std::less<int>,std::allocator<std::pair<int const ,BaseDialog *> >,0> >::const_iterator::_Inc

; 216  : 			return (*this);

  0000f	8b 45 fc	 mov	 eax, DWORD PTR _this$[ebp]

; 217  : 			}

  00012	8b e5		 mov	 esp, ebp
  00014	5d		 pop	 ebp
  00015	c3		 ret	 0
??Econst_iterator@?$_Tree@V?$_Tmap_traits@HPAVBaseDialog@@U?$less@H@std@@V?$allocator@U?$pair@$$CBHPAVBaseDialog@@@std@@@3@$0A@@std@@@std@@QAEAAV012@XZ ENDP ; std::_Tree<std::_Tmap_traits<int,BaseDialog *,std::less<int>,std::allocator<std::pair<int const ,BaseDialog *> >,0> >::const_iterator::operator++
_TEXT	ENDS
PUBLIC	?_Dec@const_iterator@?$_Tree@V?$_Tmap_traits@HPAVBaseDialog@@U?$less@H@std@@V?$allocator@U?$pair@$$CBHPAVBaseDialog@@@std@@@3@$0A@@std@@@std@@QAEXXZ ; std::_Tree<std::_Tmap_traits<int,BaseDialog *,std::less<int>,std::allocator<std::pair<int const ,BaseDialog *> >,0> >::const_iterator::_Dec
; Function compile flags: /Odt
;	COMDAT ??Fconst_iterator@?$_Tree@V?$_Tmap_traits@HPAVBaseDialog@@U?$less@H@std@@V?$allocator@U?$pair@$$CBHPAVBaseDialog@@@std@@@3@$0A@@std@@@std@@QAEAAV012@XZ
_TEXT	SEGMENT
_this$ = -4						; size = 4
??Fconst_iterator@?$_Tree@V?$_Tmap_traits@HPAVBaseDialog@@U?$less@H@std@@V?$allocator@U?$pair@$$CBHPAVBaseDialog@@@std@@@3@$0A@@std@@@std@@QAEAAV012@XZ PROC NEAR ; std::_Tree<std::_Tmap_traits<int,BaseDialog *,std::less<int>,std::allocator<std::pair<int const ,BaseDialog *> >,0> >::const_iterator::operator--, COMDAT
; _this$ = ecx

; 227  : 			{	// predecrement

  00000	55		 push	 ebp
  00001	8b ec		 mov	 ebp, esp
  00003	51		 push	 ecx
  00004	89 4d fc	 mov	 DWORD PTR _this$[ebp], ecx

; 228  : 			_Dec();

  00007	8b 4d fc	 mov	 ecx, DWORD PTR _this$[ebp]
  0000a	e8 00 00 00 00	 call	 ?_Dec@const_iterator@?$_Tree@V?$_Tmap_traits@HPAVBaseDialog@@U?$less@H@std@@V?$allocator@U?$pair@$$CBHPAVBaseDialog@@@std@@@3@$0A@@std@@@std@@QAEXXZ ; std::_Tree<std::_Tmap_traits<int,BaseDialog *,std::less<int>,std::allocator<std::pair<int const ,BaseDialog *> >,0> >::const_iterator::_Dec

; 229  : 			return (*this);

  0000f	8b 45 fc	 mov	 eax, DWORD PTR _this$[ebp]

; 230  : 			}

  00012	8b e5		 mov	 esp, ebp
  00014	5d		 pop	 ebp
  00015	c3		 ret	 0
??Fconst_iterator@?$_Tree@V?$_Tmap_traits@HPAVBaseDialog@@U?$less@H@std@@V?$allocator@U?$pair@$$CBHPAVBaseDialog@@@std@@@3@$0A@@std@@@std@@QAEAAV012@XZ ENDP ; std::_Tree<std::_Tmap_traits<int,BaseDialog *,std::less<int>,std::allocator<std::pair<int const ,BaseDialog *> >,0> >::const_iterator::operator--
; Function compile flags: /Odt
_TEXT	ENDS
;	COMDAT ??9const_iterator@?$_Tree@V?$_Tmap_traits@HPAVBaseDialog@@U?$less@H@std@@V?$allocator@U?$pair@$$CBHPAVBaseDialog@@@std@@@3@$0A@@std@@@std@@QBE_NABV012@@Z
_TEXT	SEGMENT
_this$ = -4						; size = 4
__Right$ = 8						; size = 4
??9const_iterator@?$_Tree@V?$_Tmap_traits@HPAVBaseDialog@@U?$less@H@std@@V?$allocator@U?$pair@$$CBHPAVBaseDialog@@@std@@@3@$0A@@std@@@std@@QBE_NABV012@@Z PROC NEAR ; std::_Tree<std::_Tmap_traits<int,BaseDialog *,std::less<int>,std::allocator<std::pair<int const ,BaseDialog *> >,0> >::const_iterator::operator!=, COMDAT
; _this$ = ecx

; 245  : 			{	// test for iterator inequality

  00000	55		 push	 ebp
  00001	8b ec		 mov	 ebp, esp
  00003	51		 push	 ecx
  00004	89 4d fc	 mov	 DWORD PTR _this$[ebp], ecx

; 246  : 			return (!(*this == _Right));

  00007	8b 45 08	 mov	 eax, DWORD PTR __Right$[ebp]
  0000a	50		 push	 eax
  0000b	8b 4d fc	 mov	 ecx, DWORD PTR _this$[ebp]
  0000e	e8 00 00 00 00	 call	 ??8const_iterator@?$_Tree@V?$_Tmap_traits@HPAVBaseDialog@@U?$less@H@std@@V?$allocator@U?$pair@$$CBHPAVBaseDialog@@@std@@@3@$0A@@std@@@std@@QBE_NABV012@@Z ; std::_Tree<std::_Tmap_traits<int,BaseDialog *,std::less<int>,std::allocator<std::pair<int const ,BaseDialog *> >,0> >::const_iterator::operator==
  00013	0f b6 c0	 movzx	 eax, al
  00016	f7 d8		 neg	 eax
  00018	1b c0		 sbb	 eax, eax
  0001a	40		 inc	 eax

; 247  : 			}

  0001b	8b e5		 mov	 esp, ebp
  0001d	5d		 pop	 ebp
  0001e	c2 04 00	 ret	 4
??9const_iterator@?$_Tree@V?$_Tmap_traits@HPAVBaseDialog@@U?$less@H@std@@V?$allocator@U?$pair@$$CBHPAVBaseDialog@@@std@@@3@$0A@@std@@@std@@QBE_NABV012@@Z ENDP ; std::_Tree<std::_Tmap_traits<int,BaseDialog *,std::less<int>,std::allocator<std::pair<int const ,BaseDialog *> >,0> >::const_iterator::operator!=
; Function compile flags: /Odt
; File d:\program files (x86)\microsoft visual studio .net 2003\vc7\include\utility
_TEXT	ENDS
;	COMDAT ??0?$pair@Viterator@?$_Tree@V?$_Tmap_traits@HPAVBaseDialog@@U?$less@H@std@@V?$allocator@U?$pair@$$CBHPAVBaseDialog@@@std@@@3@$0A@@std@@@std@@_N@std@@QAE@ABViterator@?$_Tree@V?$_Tmap_traits@HPAVBaseDialog@@U?$less@H@std@@V?$allocator@U?$pair@$$CBHPAVBaseDialog@@@std@@@3@$0A@@std@@@1@AB_N@Z
_TEXT	SEGMENT
_this$ = -4						; size = 4
__Val1$ = 8						; size = 4
__Val2$ = 12						; size = 4
??0?$pair@Viterator@?$_Tree@V?$_Tmap_traits@HPAVBaseDialog@@U?$less@H@std@@V?$allocator@U?$pair@$$CBHPAVBaseDialog@@@std@@@3@$0A@@std@@@std@@_N@std@@QAE@ABViterator@?$_Tree@V?$_Tmap_traits@HPAVBaseDialog@@U?$less@H@std@@V?$allocator@U?$pair@$$CBHPAVBaseDialog@@@std@@@3@$0A@@std@@@1@AB_N@Z PROC NEAR ; std::pair<std::_Tree<std::_Tmap_traits<int,BaseDialog *,std::less<int>,std::allocator<std::pair<int const ,BaseDialog *> >,0> >::iterator,bool>::pair<std::_Tree<std::_Tmap_traits<int,BaseDialog *,std::less<int>,std::allocator<std::pair<int const ,BaseDialog *> >,0> >::iterator,bool>, COMDAT
; _this$ = ecx

; 34   : 		{	// construct from specified values

  00000	55		 push	 ebp
  00001	8b ec		 mov	 ebp, esp
  00003	51		 push	 ecx
  00004	89 4d fc	 mov	 DWORD PTR _this$[ebp], ecx
  00007	8b 45 08	 mov	 eax, DWORD PTR __Val1$[ebp]
  0000a	8b 08		 mov	 ecx, DWORD PTR [eax]
  0000c	8b 55 fc	 mov	 edx, DWORD PTR _this$[ebp]
  0000f	89 0a		 mov	 DWORD PTR [edx], ecx
  00011	8b 45 fc	 mov	 eax, DWORD PTR _this$[ebp]
  00014	8b 4d 0c	 mov	 ecx, DWORD PTR __Val2$[ebp]
  00017	8a 11		 mov	 dl, BYTE PTR [ecx]
  00019	88 50 04	 mov	 BYTE PTR [eax+4], dl

; 35   : 		}

  0001c	8b 45 fc	 mov	 eax, DWORD PTR _this$[ebp]
  0001f	8b e5		 mov	 esp, ebp
  00021	5d		 pop	 ebp
  00022	c2 08 00	 ret	 8
??0?$pair@Viterator@?$_Tree@V?$_Tmap_traits@HPAVBaseDialog@@U?$less@H@std@@V?$allocator@U?$pair@$$CBHPAVBaseDialog@@@std@@@3@$0A@@std@@@std@@_N@std@@QAE@ABViterator@?$_Tree@V?$_Tmap_traits@HPAVBaseDialog@@U?$less@H@std@@V?$allocator@U?$pair@$$CBHPAVBaseDialog@@@std@@@3@$0A@@std@@@1@AB_N@Z ENDP ; std::pair<std::_Tree<std::_Tmap_traits<int,BaseDialog *,std::less<int>,std::allocator<std::pair<int const ,BaseDialog *> >,0> >::iterator,bool>::pair<std::_Tree<std::_Tmap_traits<int,BaseDialog *,std::less<int>,std::allocator<std::pair<int const ,BaseDialog *> >,0> >::iterator,bool>
; Function compile flags: /Odt
; File d:\program files (x86)\microsoft visual studio .net 2003\vc7\include\xtree
_TEXT	ENDS
;	COMDAT ?_Erase@?$_Tree@V?$_Tmap_traits@HPAVBaseDialog@@U?$less@H@std@@V?$allocator@U?$pair@$$CBHPAVBaseDialog@@@std@@@3@$0A@@std@@@std@@IAEXPAU_Node@?$_Tree_nod@V?$_Tmap_traits@HPAVBaseDialog@@U?$less@H@std@@V?$allocator@U?$pair@$$CBHPAVBaseDialog@@@std@@@3@$0A@@std@@@2@@Z
_TEXT	SEGMENT
_this$ = -8						; size = 4
__Pnode$199157 = -4					; size = 4
__Rootnode$ = 8						; size = 4
?_Erase@?$_Tree@V?$_Tmap_traits@HPAVBaseDialog@@U?$less@H@std@@V?$allocator@U?$pair@$$CBHPAVBaseDialog@@@std@@@3@$0A@@std@@@std@@IAEXPAU_Node@?$_Tree_nod@V?$_Tmap_traits@HPAVBaseDialog@@U?$less@H@std@@V?$allocator@U?$pair@$$CBHPAVBaseDialog@@@std@@@3@$0A@@std@@@2@@Z PROC NEAR ; std::_Tree<std::_Tmap_traits<int,BaseDialog *,std::less<int>,std::allocator<std::pair<int const ,BaseDialog *> >,0> >::_Erase, COMDAT
; _this$ = ecx

; 890  : 		{	// free entire subtree, recursively

  00000	55		 push	 ebp
  00001	8b ec		 mov	 ebp, esp
  00003	83 ec 08	 sub	 esp, 8
  00006	89 4d f8	 mov	 DWORD PTR _this$[ebp], ecx

; 891  : 		for (_Nodeptr _Pnode = _Rootnode; !_Isnil(_Pnode); _Rootnode = _Pnode)

  00009	8b 45 08	 mov	 eax, DWORD PTR __Rootnode$[ebp]
  0000c	89 45 fc	 mov	 DWORD PTR __Pnode$199157[ebp], eax
  0000f	eb 06		 jmp	 SHORT $L199158
$L199159:
  00011	8b 4d fc	 mov	 ecx, DWORD PTR __Pnode$199157[ebp]
  00014	89 4d 08	 mov	 DWORD PTR __Rootnode$[ebp], ecx
$L199158:
  00017	8b 55 fc	 mov	 edx, DWORD PTR __Pnode$199157[ebp]
  0001a	52		 push	 edx
  0001b	e8 00 00 00 00	 call	 ?_Isnil@?$_Tree@V?$_Tmap_traits@HPAVBaseDialog@@U?$less@H@std@@V?$allocator@U?$pair@$$CBHPAVBaseDialog@@@std@@@3@$0A@@std@@@std@@KAAADPAU_Node@?$_Tree_nod@V?$_Tmap_traits@HPAVBaseDialog@@U?$less@H@std@@V?$allocator@U?$pair@$$CBHPAVBaseDialog@@@std@@@3@$0A@@std@@@2@@Z ; std::_Tree<std::_Tmap_traits<int,BaseDialog *,std::less<int>,std::allocator<std::pair<int const ,BaseDialog *> >,0> >::_Isnil
  00020	83 c4 04	 add	 esp, 4
  00023	0f be 00	 movsx	 eax, BYTE PTR [eax]
  00026	85 c0		 test	 eax, eax
  00028	75 4a		 jne	 SHORT $L199156

; 892  : 			{	// free subtrees, then node
; 893  : 			_Erase(_Right(_Pnode));

  0002a	8b 4d fc	 mov	 ecx, DWORD PTR __Pnode$199157[ebp]
  0002d	51		 push	 ecx
  0002e	e8 00 00 00 00	 call	 ?_Right@?$_Tree@V?$_Tmap_traits@HPAVBaseDialog@@U?$less@H@std@@V?$allocator@U?$pair@$$CBHPAVBaseDialog@@@std@@@3@$0A@@std@@@std@@KAAAPAU_Node@?$_Tree_nod@V?$_Tmap_traits@HPAVBaseDialog@@U?$less@H@std@@V?$allocator@U?$pair@$$CBHPAVBaseDialog@@@std@@@3@$0A@@std@@@2@PAU342@@Z ; std::_Tree<std::_Tmap_traits<int,BaseDialog *,std::less<int>,std::allocator<std::pair<int const ,BaseDialog *> >,0> >::_Right
  00033	83 c4 04	 add	 esp, 4
  00036	8b 10		 mov	 edx, DWORD PTR [eax]
  00038	52		 push	 edx
  00039	8b 4d f8	 mov	 ecx, DWORD PTR _this$[ebp]
  0003c	e8 00 00 00 00	 call	 ?_Erase@?$_Tree@V?$_Tmap_traits@HPAVBaseDialog@@U?$less@H@std@@V?$allocator@U?$pair@$$CBHPAVBaseDialog@@@std@@@3@$0A@@std@@@std@@IAEXPAU_Node@?$_Tree_nod@V?$_Tmap_traits@HPAVBaseDialog@@U?$less@H@std@@V?$allocator@U?$pair@$$CBHPAVBaseDialog@@@std@@@3@$0A@@std@@@2@@Z ; std::_Tree<std::_Tmap_traits<int,BaseDialog *,std::less<int>,std::allocator<std::pair<int const ,BaseDialog *> >,0> >::_Erase

; 894  : 			_Pnode = _Left(_Pnode);

  00041	8b 45 fc	 mov	 eax, DWORD PTR __Pnode$199157[ebp]
  00044	50		 push	 eax
  00045	e8 00 00 00 00	 call	 ?_Left@?$_Tree@V?$_Tmap_traits@HPAVBaseDialog@@U?$less@H@std@@V?$allocator@U?$pair@$$CBHPAVBaseDialog@@@std@@@3@$0A@@std@@@std@@KAAAPAU_Node@?$_Tree_nod@V?$_Tmap_traits@HPAVBaseDialog@@U?$less@H@std@@V?$allocator@U?$pair@$$CBHPAVBaseDialog@@@std@@@3@$0A@@std@@@2@PAU342@@Z ; std::_Tree<std::_Tmap_traits<int,BaseDialog *,std::less<int>,std::allocator<std::pair<int const ,BaseDialog *> >,0> >::_Left
  0004a	83 c4 04	 add	 esp, 4
  0004d	8b 08		 mov	 ecx, DWORD PTR [eax]
  0004f	89 4d fc	 mov	 DWORD PTR __Pnode$199157[ebp], ecx

; 895  : 			this->_Alnod.destroy(_Rootnode);	// destroy, free erased node

  00052	8b 55 08	 mov	 edx, DWORD PTR __Rootnode$[ebp]
  00055	52		 push	 edx
  00056	8b 4d f8	 mov	 ecx, DWORD PTR _this$[ebp]
  00059	83 c1 01	 add	 ecx, 1
  0005c	e8 00 00 00 00	 call	 ?destroy@?$allocator@U_Node@?$_Tree_nod@V?$_Tmap_traits@HPAVBaseDialog@@U?$less@H@std@@V?$allocator@U?$pair@$$CBHPAVBaseDialog@@@std@@@3@$0A@@std@@@std@@@std@@QAEXPAU_Node@?$_Tree_nod@V?$_Tmap_traits@HPAVBaseDialog@@U?$less@H@std@@V?$allocator@U?$pair@$$CBHPAVBaseDialog@@@std@@@3@$0A@@std@@@2@@Z ; std::allocator<std::_Tree_nod<std::_Tmap_traits<int,BaseDialog *,std::less<int>,std::allocator<std::pair<int const ,BaseDialog *> >,0> >::_Node>::destroy

; 896  : 			this->_Alnod.deallocate(_Rootnode, 1);

  00061	6a 01		 push	 1
  00063	8b 45 08	 mov	 eax, DWORD PTR __Rootnode$[ebp]
  00066	50		 push	 eax
  00067	8b 4d f8	 mov	 ecx, DWORD PTR _this$[ebp]
  0006a	83 c1 01	 add	 ecx, 1
  0006d	e8 00 00 00 00	 call	 ?deallocate@?$allocator@U_Node@?$_Tree_nod@V?$_Tmap_traits@HPAVBaseDialog@@U?$less@H@std@@V?$allocator@U?$pair@$$CBHPAVBaseDialog@@@std@@@3@$0A@@std@@@std@@@std@@QAEXPAU_Node@?$_Tree_nod@V?$_Tmap_traits@HPAVBaseDialog@@U?$less@H@std@@V?$allocator@U?$pair@$$CBHPAVBaseDialog@@@std@@@3@$0A@@std@@@2@I@Z ; std::allocator<std::_Tree_nod<std::_Tmap_traits<int,BaseDialog *,std::less<int>,std::allocator<std::pair<int const ,BaseDialog *> >,0> >::_Node>::deallocate

; 897  : 			}

  00072	eb 9d		 jmp	 SHORT $L199159
$L199156:

; 898  : 		}

  00074	8b e5		 mov	 esp, ebp
  00076	5d		 pop	 ebp
  00077	c2 04 00	 ret	 4
?_Erase@?$_Tree@V?$_Tmap_traits@HPAVBaseDialog@@U?$less@H@std@@V?$allocator@U?$pair@$$CBHPAVBaseDialog@@@std@@@3@$0A@@std@@@std@@IAEXPAU_Node@?$_Tree_nod@V?$_Tmap_traits@HPAVBaseDialog@@U?$less@H@std@@V?$allocator@U?$pair@$$CBHPAVBaseDialog@@@std@@@3@$0A@@std@@@2@@Z ENDP ; std::_Tree<std::_Tmap_traits<int,BaseDialog *,std::less<int>,std::allocator<std::pair<int const ,BaseDialog *> >,0> >::_Erase
; Function compile flags: /Odt
_TEXT	ENDS
;	COMDAT ?_Max@?$_Tree@V?$_Tmap_traits@HPAVBaseDialog@@U?$less@H@std@@V?$allocator@U?$pair@$$CBHPAVBaseDialog@@@std@@@3@$0A@@std@@@std@@KAPAU_Node@?$_Tree_nod@V?$_Tmap_traits@HPAVBaseDialog@@U?$less@H@std@@V?$allocator@U?$pair@$$CBHPAVBaseDialog@@@std@@@3@$0A@@std@@@2@PAU342@@Z
_TEXT	SEGMENT
__Pnode$ = 8						; size = 4
?_Max@?$_Tree@V?$_Tmap_traits@HPAVBaseDialog@@U?$less@H@std@@V?$allocator@U?$pair@$$CBHPAVBaseDialog@@@std@@@3@$0A@@std@@@std@@KAPAU_Node@?$_Tree_nod@V?$_Tmap_traits@HPAVBaseDialog@@U?$less@H@std@@V?$allocator@U?$pair@$$CBHPAVBaseDialog@@@std@@@3@$0A@@std@@@2@PAU342@@Z PROC NEAR ; std::_Tree<std::_Tmap_traits<int,BaseDialog *,std::less<int>,std::allocator<std::pair<int const ,BaseDialog *> >,0> >::_Max, COMDAT

; 1034 : 		{	// return rightmost node in subtree at _Pnode

  00000	55		 push	 ebp
  00001	8b ec		 mov	 ebp, esp
$L199163:

; 1035 : 		while (!_Isnil(_Right(_Pnode)))

  00003	8b 45 08	 mov	 eax, DWORD PTR __Pnode$[ebp]
  00006	50		 push	 eax
  00007	e8 00 00 00 00	 call	 ?_Right@?$_Tree@V?$_Tmap_traits@HPAVBaseDialog@@U?$less@H@std@@V?$allocator@U?$pair@$$CBHPAVBaseDialog@@@std@@@3@$0A@@std@@@std@@KAAAPAU_Node@?$_Tree_nod@V?$_Tmap_traits@HPAVBaseDialog@@U?$less@H@std@@V?$allocator@U?$pair@$$CBHPAVBaseDialog@@@std@@@3@$0A@@std@@@2@PAU342@@Z ; std::_Tree<std::_Tmap_traits<int,BaseDialog *,std::less<int>,std::allocator<std::pair<int const ,BaseDialog *> >,0> >::_Right
  0000c	83 c4 04	 add	 esp, 4
  0000f	8b 08		 mov	 ecx, DWORD PTR [eax]
  00011	51		 push	 ecx
  00012	e8 00 00 00 00	 call	 ?_Isnil@?$_Tree@V?$_Tmap_traits@HPAVBaseDialog@@U?$less@H@std@@V?$allocator@U?$pair@$$CBHPAVBaseDialog@@@std@@@3@$0A@@std@@@std@@KAAADPAU_Node@?$_Tree_nod@V?$_Tmap_traits@HPAVBaseDialog@@U?$less@H@std@@V?$allocator@U?$pair@$$CBHPAVBaseDialog@@@std@@@3@$0A@@std@@@2@@Z ; std::_Tree<std::_Tmap_traits<int,BaseDialog *,std::less<int>,std::allocator<std::pair<int const ,BaseDialog *> >,0> >::_Isnil
  00017	83 c4 04	 add	 esp, 4
  0001a	0f be 10	 movsx	 edx, BYTE PTR [eax]
  0001d	85 d2		 test	 edx, edx
  0001f	75 13		 jne	 SHORT $L199164

; 1036 : 			_Pnode = _Right(_Pnode);

  00021	8b 45 08	 mov	 eax, DWORD PTR __Pnode$[ebp]
  00024	50		 push	 eax
  00025	e8 00 00 00 00	 call	 ?_Right@?$_Tree@V?$_Tmap_traits@HPAVBaseDialog@@U?$less@H@std@@V?$allocator@U?$pair@$$CBHPAVBaseDialog@@@std@@@3@$0A@@std@@@std@@KAAAPAU_Node@?$_Tree_nod@V?$_Tmap_traits@HPAVBaseDialog@@U?$less@H@std@@V?$allocator@U?$pair@$$CBHPAVBaseDialog@@@std@@@3@$0A@@std@@@2@PAU342@@Z ; std::_Tree<std::_Tmap_traits<int,BaseDialog *,std::less<int>,std::allocator<std::pair<int const ,BaseDialog *> >,0> >::_Right
  0002a	83 c4 04	 add	 esp, 4
  0002d	8b 08		 mov	 ecx, DWORD PTR [eax]
  0002f	89 4d 08	 mov	 DWORD PTR __Pnode$[ebp], ecx
  00032	eb cf		 jmp	 SHORT $L199163
$L199164:

; 1037 : 		return (_Pnode);

  00034	8b 45 08	 mov	 eax, DWORD PTR __Pnode$[ebp]

; 1038 : 		}

  00037	5d		 pop	 ebp
  00038	c3		 ret	 0
?_Max@?$_Tree@V?$_Tmap_traits@HPAVBaseDialog@@U?$less@H@std@@V?$allocator@U?$pair@$$CBHPAVBaseDialog@@@std@@@3@$0A@@std@@@std@@KAPAU_Node@?$_Tree_nod@V?$_Tmap_traits@HPAVBaseDialog@@U?$less@H@std@@V?$allocator@U?$pair@$$CBHPAVBaseDialog@@@std@@@3@$0A@@std@@@2@PAU342@@Z ENDP ; std::_Tree<std::_Tmap_traits<int,BaseDialog *,std::less<int>,std::allocator<std::pair<int const ,BaseDialog *> >,0> >::_Max
; Function compile flags: /Odt
_TEXT	ENDS
;	COMDAT ?_Min@?$_Tree@V?$_Tmap_traits@HPAVBaseDialog@@U?$less@H@std@@V?$allocator@U?$pair@$$CBHPAVBaseDialog@@@std@@@3@$0A@@std@@@std@@KAPAU_Node@?$_Tree_nod@V?$_Tmap_traits@HPAVBaseDialog@@U?$less@H@std@@V?$allocator@U?$pair@$$CBHPAVBaseDialog@@@std@@@3@$0A@@std@@@2@PAU342@@Z
_TEXT	SEGMENT
__Pnode$ = 8						; size = 4
?_Min@?$_Tree@V?$_Tmap_traits@HPAVBaseDialog@@U?$less@H@std@@V?$allocator@U?$pair@$$CBHPAVBaseDialog@@@std@@@3@$0A@@std@@@std@@KAPAU_Node@?$_Tree_nod@V?$_Tmap_traits@HPAVBaseDialog@@U?$less@H@std@@V?$allocator@U?$pair@$$CBHPAVBaseDialog@@@std@@@3@$0A@@std@@@2@PAU342@@Z PROC NEAR ; std::_Tree<std::_Tmap_traits<int,BaseDialog *,std::less<int>,std::allocator<std::pair<int const ,BaseDialog *> >,0> >::_Min, COMDAT

; 1041 : 		{	// return leftmost node in subtree at _Pnode

  00000	55		 push	 ebp
  00001	8b ec		 mov	 ebp, esp
$L199167:

; 1042 : 		while (!_Isnil(_Left(_Pnode)))

  00003	8b 45 08	 mov	 eax, DWORD PTR __Pnode$[ebp]
  00006	50		 push	 eax
  00007	e8 00 00 00 00	 call	 ?_Left@?$_Tree@V?$_Tmap_traits@HPAVBaseDialog@@U?$less@H@std@@V?$allocator@U?$pair@$$CBHPAVBaseDialog@@@std@@@3@$0A@@std@@@std@@KAAAPAU_Node@?$_Tree_nod@V?$_Tmap_traits@HPAVBaseDialog@@U?$less@H@std@@V?$allocator@U?$pair@$$CBHPAVBaseDialog@@@std@@@3@$0A@@std@@@2@PAU342@@Z ; std::_Tree<std::_Tmap_traits<int,BaseDialog *,std::less<int>,std::allocator<std::pair<int const ,BaseDialog *> >,0> >::_Left
  0000c	83 c4 04	 add	 esp, 4
  0000f	8b 08		 mov	 ecx, DWORD PTR [eax]
  00011	51		 push	 ecx
  00012	e8 00 00 00 00	 call	 ?_Isnil@?$_Tree@V?$_Tmap_traits@HPAVBaseDialog@@U?$less@H@std@@V?$allocator@U?$pair@$$CBHPAVBaseDialog@@@std@@@3@$0A@@std@@@std@@KAAADPAU_Node@?$_Tree_nod@V?$_Tmap_traits@HPAVBaseDialog@@U?$less@H@std@@V?$allocator@U?$pair@$$CBHPAVBaseDialog@@@std@@@3@$0A@@std@@@2@@Z ; std::_Tree<std::_Tmap_traits<int,BaseDialog *,std::less<int>,std::allocator<std::pair<int const ,BaseDialog *> >,0> >::_Isnil
  00017	83 c4 04	 add	 esp, 4
  0001a	0f be 10	 movsx	 edx, BYTE PTR [eax]
  0001d	85 d2		 test	 edx, edx
  0001f	75 13		 jne	 SHORT $L199168

; 1043 : 			_Pnode = _Left(_Pnode);

  00021	8b 45 08	 mov	 eax, DWORD PTR __Pnode$[ebp]
  00024	50		 push	 eax
  00025	e8 00 00 00 00	 call	 ?_Left@?$_Tree@V?$_Tmap_traits@HPAVBaseDialog@@U?$less@H@std@@V?$allocator@U?$pair@$$CBHPAVBaseDialog@@@std@@@3@$0A@@std@@@std@@KAAAPAU_Node@?$_Tree_nod@V?$_Tmap_traits@HPAVBaseDialog@@U?$less@H@std@@V?$allocator@U?$pair@$$CBHPAVBaseDialog@@@std@@@3@$0A@@std@@@2@PAU342@@Z ; std::_Tree<std::_Tmap_traits<int,BaseDialog *,std::less<int>,std::allocator<std::pair<int const ,BaseDialog *> >,0> >::_Left
  0002a	83 c4 04	 add	 esp, 4
  0002d	8b 08		 mov	 ecx, DWORD PTR [eax]
  0002f	89 4d 08	 mov	 DWORD PTR __Pnode$[ebp], ecx
  00032	eb cf		 jmp	 SHORT $L199167
$L199168:

; 1044 : 		return (_Pnode);

  00034	8b 45 08	 mov	 eax, DWORD PTR __Pnode$[ebp]

; 1045 : 		}

  00037	5d		 pop	 ebp
  00038	c3		 ret	 0
?_Min@?$_Tree@V?$_Tmap_traits@HPAVBaseDialog@@U?$less@H@std@@V?$allocator@U?$pair@$$CBHPAVBaseDialog@@@std@@@3@$0A@@std@@@std@@KAPAU_Node@?$_Tree_nod@V?$_Tmap_traits@HPAVBaseDialog@@U?$less@H@std@@V?$allocator@U?$pair@$$CBHPAVBaseDialog@@@std@@@3@$0A@@std@@@2@PAU342@@Z ENDP ; std::_Tree<std::_Tmap_traits<int,BaseDialog *,std::less<int>,std::allocator<std::pair<int const ,BaseDialog *> >,0> >::_Min
_TEXT	ENDS
PUBLIC	??0?$_Tmap_traits@HPAVBaseDialog@@U?$less@H@std@@V?$allocator@U?$pair@$$CBHPAVBaseDialog@@@std@@@3@$0A@@std@@QAE@U?$less@H@1@@Z ; std::_Tmap_traits<int,BaseDialog *,std::less<int>,std::allocator<std::pair<int const ,BaseDialog *> >,0>::_Tmap_traits<int,BaseDialog *,std::less<int>,std::allocator<std::pair<int const ,BaseDialog *> >,0>
PUBLIC	??$?0U?$pair@$$CBHPAVBaseDialog@@@std@@@?$allocator@U_Node@?$_Tree_nod@V?$_Tmap_traits@HPAVBaseDialog@@U?$less@H@std@@V?$allocator@U?$pair@$$CBHPAVBaseDialog@@@std@@@3@$0A@@std@@@std@@@std@@QAE@ABV?$allocator@U?$pair@$$CBHPAVBaseDialog@@@std@@@1@@Z ; std::allocator<std::_Tree_nod<std::_Tmap_traits<int,BaseDialog *,std::less<int>,std::allocator<std::pair<int const ,BaseDialog *> >,0> >::_Node>::allocator<std::_Tree_nod<std::_Tmap_traits<int,BaseDialog *,std::less<int>,std::allocator<std::pair<int const ,BaseDialog *> >,0> >::_Node><std::pair<int const ,BaseDialog *> >
; Function compile flags: /Odt
;	COMDAT ??0?$_Tree_nod@V?$_Tmap_traits@HPAVBaseDialog@@U?$less@H@std@@V?$allocator@U?$pair@$$CBHPAVBaseDialog@@@std@@@3@$0A@@std@@@std@@IAE@ABU?$less@H@1@V?$allocator@U?$pair@$$CBHPAVBaseDialog@@@std@@@1@@Z
_TEXT	SEGMENT
_this$ = -4						; size = 4
__Parg$ = 8						; size = 4
__Al$ = 12						; size = 1
??0?$_Tree_nod@V?$_Tmap_traits@HPAVBaseDialog@@U?$less@H@std@@V?$allocator@U?$pair@$$CBHPAVBaseDialog@@@std@@@3@$0A@@std@@@std@@IAE@ABU?$less@H@1@V?$allocator@U?$pair@$$CBHPAVBaseDialog@@@std@@@1@@Z PROC NEAR ; std::_Tree_nod<std::_Tmap_traits<int,BaseDialog *,std::less<int>,std::allocator<std::pair<int const ,BaseDialog *> >,0> >::_Tree_nod<std::_Tmap_traits<int,BaseDialog *,std::less<int>,std::allocator<std::pair<int const ,BaseDialog *> >,0> >, COMDAT
; _this$ = ecx

; 54   : 		{	// construct traits from _Parg and allocator from _Al

  00000	55		 push	 ebp
  00001	8b ec		 mov	 ebp, esp
  00003	51		 push	 ecx
  00004	89 4d fc	 mov	 DWORD PTR _this$[ebp], ecx
  00007	8b 45 08	 mov	 eax, DWORD PTR __Parg$[ebp]
  0000a	8a 08		 mov	 cl, BYTE PTR [eax]
  0000c	51		 push	 ecx
  0000d	8b 4d fc	 mov	 ecx, DWORD PTR _this$[ebp]
  00010	e8 00 00 00 00	 call	 ??0?$_Tmap_traits@HPAVBaseDialog@@U?$less@H@std@@V?$allocator@U?$pair@$$CBHPAVBaseDialog@@@std@@@3@$0A@@std@@QAE@U?$less@H@1@@Z ; std::_Tmap_traits<int,BaseDialog *,std::less<int>,std::allocator<std::pair<int const ,BaseDialog *> >,0>::_Tmap_traits<int,BaseDialog *,std::less<int>,std::allocator<std::pair<int const ,BaseDialog *> >,0>
  00015	8d 55 0c	 lea	 edx, DWORD PTR __Al$[ebp]
  00018	52		 push	 edx
  00019	8b 4d fc	 mov	 ecx, DWORD PTR _this$[ebp]
  0001c	83 c1 01	 add	 ecx, 1
  0001f	e8 00 00 00 00	 call	 ??$?0U?$pair@$$CBHPAVBaseDialog@@@std@@@?$allocator@U_Node@?$_Tree_nod@V?$_Tmap_traits@HPAVBaseDialog@@U?$less@H@std@@V?$allocator@U?$pair@$$CBHPAVBaseDialog@@@std@@@3@$0A@@std@@@std@@@std@@QAE@ABV?$allocator@U?$pair@$$CBHPAVBaseDialog@@@std@@@1@@Z ; std::allocator<std::_Tree_nod<std::_Tmap_traits<int,BaseDialog *,std::less<int>,std::allocator<std::pair<int const ,BaseDialog *> >,0> >::_Node>::allocator<std::_Tree_nod<std::_Tmap_traits<int,BaseDialog *,std::less<int>,std::allocator<std::pair<int const ,BaseDialog *> >,0> >::_Node><std::pair<int const ,BaseDialog *> >

; 55   : 		}

  00024	8b 45 fc	 mov	 eax, DWORD PTR _this$[ebp]
  00027	8b e5		 mov	 esp, ebp
  00029	5d		 pop	 ebp
  0002a	c2 08 00	 ret	 8
??0?$_Tree_nod@V?$_Tmap_traits@HPAVBaseDialog@@U?$less@H@std@@V?$allocator@U?$pair@$$CBHPAVBaseDialog@@@std@@@3@$0A@@std@@@std@@IAE@ABU?$less@H@1@V?$allocator@U?$pair@$$CBHPAVBaseDialog@@@std@@@1@@Z ENDP ; std::_Tree_nod<std::_Tmap_traits<int,BaseDialog *,std::less<int>,std::allocator<std::pair<int const ,BaseDialog *> >,0> >::_Tree_nod<std::_Tmap_traits<int,BaseDialog *,std::less<int>,std::allocator<std::pair<int const ,BaseDialog *> >,0> >
; Function compile flags: /Odt
; File d:\program files (x86)\microsoft visual studio .net 2003\vc7\include\xmemory
_TEXT	ENDS
;	COMDAT ?max_size@?$allocator@U?$pair@$$CBHPAVBaseDialog@@@std@@@std@@QBEIXZ
_TEXT	SEGMENT
tv65 = -12						; size = 4
_this$ = -8						; size = 4
__Count$ = -4						; size = 4
?max_size@?$allocator@U?$pair@$$CBHPAVBaseDialog@@@std@@@std@@QBEIXZ PROC NEAR ; std::allocator<std::pair<int const ,BaseDialog *> >::max_size, COMDAT
; _this$ = ecx

; 156  : 		{	// estimate maximum array size

  00000	55		 push	 ebp
  00001	8b ec		 mov	 ebp, esp
  00003	83 ec 0c	 sub	 esp, 12			; 0000000cH
  00006	89 4d f8	 mov	 DWORD PTR _this$[ebp], ecx

; 157  : 		_SIZT _Count = (_SIZT)(-1) / sizeof (_Ty);

  00009	c7 45 fc ff ff
	ff 1f		 mov	 DWORD PTR __Count$[ebp], 536870911 ; 1fffffffH

; 158  : 		return (0 < _Count ? _Count : 1);

  00010	83 7d fc 00	 cmp	 DWORD PTR __Count$[ebp], 0
  00014	76 08		 jbe	 SHORT $L200088
  00016	8b 45 fc	 mov	 eax, DWORD PTR __Count$[ebp]
  00019	89 45 f4	 mov	 DWORD PTR tv65[ebp], eax
  0001c	eb 07		 jmp	 SHORT $L200089
$L200088:
  0001e	c7 45 f4 01 00
	00 00		 mov	 DWORD PTR tv65[ebp], 1
$L200089:
  00025	8b 45 f4	 mov	 eax, DWORD PTR tv65[ebp]

; 159  : 		}

  00028	8b e5		 mov	 esp, ebp
  0002a	5d		 pop	 ebp
  0002b	c3		 ret	 0
?max_size@?$allocator@U?$pair@$$CBHPAVBaseDialog@@@std@@@std@@QBEIXZ ENDP ; std::allocator<std::pair<int const ,BaseDialog *> >::max_size
_TEXT	ENDS
PUBLIC	??$_Allocate@U_Node@?$_Tree_nod@V?$_Tmap_traits@HPAVBaseDialog@@U?$less@H@std@@V?$allocator@U?$pair@$$CBHPAVBaseDialog@@@std@@@3@$0A@@std@@@std@@@std@@YAPAU_Node@?$_Tree_nod@V?$_Tmap_traits@HPAVBaseDialog@@U?$less@H@std@@V?$allocator@U?$pair@$$CBHPAVBaseDialog@@@std@@@3@$0A@@std@@@0@IPAU120@@Z ; std::_Allocate<std::_Tree_nod<std::_Tmap_traits<int,BaseDialog *,std::less<int>,std::allocator<std::pair<int const ,BaseDialog *> >,0> >::_Node>
; Function compile flags: /Odt
;	COMDAT ?allocate@?$allocator@U_Node@?$_Tree_nod@V?$_Tmap_traits@HPAVBaseDialog@@U?$less@H@std@@V?$allocator@U?$pair@$$CBHPAVBaseDialog@@@std@@@3@$0A@@std@@@std@@@std@@QAEPAU_Node@?$_Tree_nod@V?$_Tmap_traits@HPAVBaseDialog@@U?$less@H@std@@V?$allocator@U?$pair@$$CBHPAVBaseDialog@@@std@@@3@$0A@@std@@@2@I@Z
_TEXT	SEGMENT
_this$ = -4						; size = 4
__Count$ = 8						; size = 4
?allocate@?$allocator@U_Node@?$_Tree_nod@V?$_Tmap_traits@HPAVBaseDialog@@U?$less@H@std@@V?$allocator@U?$pair@$$CBHPAVBaseDialog@@@std@@@3@$0A@@std@@@std@@@std@@QAEPAU_Node@?$_Tree_nod@V?$_Tmap_traits@HPAVBaseDialog@@U?$less@H@std@@V?$allocator@U?$pair@$$CBHPAVBaseDialog@@@std@@@3@$0A@@std@@@2@I@Z PROC NEAR ; std::allocator<std::_Tree_nod<std::_Tmap_traits<int,BaseDialog *,std::less<int>,std::allocator<std::pair<int const ,BaseDialog *> >,0> >::_Node>::allocate, COMDAT
; _this$ = ecx

; 136  : 		{	// allocate array of _Count elements

  00000	55		 push	 ebp
  00001	8b ec		 mov	 ebp, esp
  00003	51		 push	 ecx
  00004	89 4d fc	 mov	 DWORD PTR _this$[ebp], ecx

; 137  : 		return (_Allocate(_Count, (pointer)0));

  00007	6a 00		 push	 0
  00009	8b 45 08	 mov	 eax, DWORD PTR __Count$[ebp]
  0000c	50		 push	 eax
  0000d	e8 00 00 00 00	 call	 ??$_Allocate@U_Node@?$_Tree_nod@V?$_Tmap_traits@HPAVBaseDialog@@U?$less@H@std@@V?$allocator@U?$pair@$$CBHPAVBaseDialog@@@std@@@3@$0A@@std@@@std@@@std@@YAPAU_Node@?$_Tree_nod@V?$_Tmap_traits@HPAVBaseDialog@@U?$less@H@std@@V?$allocator@U?$pair@$$CBHPAVBaseDialog@@@std@@@3@$0A@@std@@@0@IPAU120@@Z ; std::_Allocate<std::_Tree_nod<std::_Tmap_traits<int,BaseDialog *,std::less<int>,std::allocator<std::pair<int const ,BaseDialog *> >,0> >::_Node>
  00012	83 c4 08	 add	 esp, 8

; 138  : 		}

  00015	8b e5		 mov	 esp, ebp
  00017	5d		 pop	 ebp
  00018	c2 04 00	 ret	 4
?allocate@?$allocator@U_Node@?$_Tree_nod@V?$_Tmap_traits@HPAVBaseDialog@@U?$less@H@std@@V?$allocator@U?$pair@$$CBHPAVBaseDialog@@@std@@@3@$0A@@std@@@std@@@std@@QAEPAU_Node@?$_Tree_nod@V?$_Tmap_traits@HPAVBaseDialog@@U?$less@H@std@@V?$allocator@U?$pair@$$CBHPAVBaseDialog@@@std@@@3@$0A@@std@@@2@I@Z ENDP ; std::allocator<std::_Tree_nod<std::_Tmap_traits<int,BaseDialog *,std::less<int>,std::allocator<std::pair<int const ,BaseDialog *> >,0> >::_Node>::allocate
_TEXT	ENDS
PUBLIC	??$_Destroy@U_Node@?$_Tree_nod@V?$_Tmap_traits@HPAVBaseDialog@@U?$less@H@std@@V?$allocator@U?$pair@$$CBHPAVBaseDialog@@@std@@@3@$0A@@std@@@std@@@std@@YAXPAU_Node@?$_Tree_nod@V?$_Tmap_traits@HPAVBaseDialog@@U?$less@H@std@@V?$allocator@U?$pair@$$CBHPAVBaseDialog@@@std@@@3@$0A@@std@@@0@@Z ; std::_Destroy<std::_Tree_nod<std::_Tmap_traits<int,BaseDialog *,std::less<int>,std::allocator<std::pair<int const ,BaseDialog *> >,0> >::_Node>
; Function compile flags: /Odt
;	COMDAT ?destroy@?$allocator@U_Node@?$_Tree_nod@V?$_Tmap_traits@HPAVBaseDialog@@U?$less@H@std@@V?$allocator@U?$pair@$$CBHPAVBaseDialog@@@std@@@3@$0A@@std@@@std@@@std@@QAEXPAU_Node@?$_Tree_nod@V?$_Tmap_traits@HPAVBaseDialog@@U?$less@H@std@@V?$allocator@U?$pair@$$CBHPAVBaseDialog@@@std@@@3@$0A@@std@@@2@@Z
_TEXT	SEGMENT
_this$ = -4						; size = 4
__Ptr$ = 8						; size = 4
?destroy@?$allocator@U_Node@?$_Tree_nod@V?$_Tmap_traits@HPAVBaseDialog@@U?$less@H@std@@V?$allocator@U?$pair@$$CBHPAVBaseDialog@@@std@@@3@$0A@@std@@@std@@@std@@QAEXPAU_Node@?$_Tree_nod@V?$_Tmap_traits@HPAVBaseDialog@@U?$less@H@std@@V?$allocator@U?$pair@$$CBHPAVBaseDialog@@@std@@@3@$0A@@std@@@2@@Z PROC NEAR ; std::allocator<std::_Tree_nod<std::_Tmap_traits<int,BaseDialog *,std::less<int>,std::allocator<std::pair<int const ,BaseDialog *> >,0> >::_Node>::destroy, COMDAT
; _this$ = ecx

; 151  : 		{	// destroy object at _Ptr

  00000	55		 push	 ebp
  00001	8b ec		 mov	 ebp, esp
  00003	51		 push	 ecx
  00004	89 4d fc	 mov	 DWORD PTR _this$[ebp], ecx

; 152  : 		_Destroy(_Ptr);

  00007	8b 45 08	 mov	 eax, DWORD PTR __Ptr$[ebp]
  0000a	50		 push	 eax
  0000b	e8 00 00 00 00	 call	 ??$_Destroy@U_Node@?$_Tree_nod@V?$_Tmap_traits@HPAVBaseDialog@@U?$less@H@std@@V?$allocator@U?$pair@$$CBHPAVBaseDialog@@@std@@@3@$0A@@std@@@std@@@std@@YAXPAU_Node@?$_Tree_nod@V?$_Tmap_traits@HPAVBaseDialog@@U?$less@H@std@@V?$allocator@U?$pair@$$CBHPAVBaseDialog@@@std@@@3@$0A@@std@@@0@@Z ; std::_Destroy<std::_Tree_nod<std::_Tmap_traits<int,BaseDialog *,std::less<int>,std::allocator<std::pair<int const ,BaseDialog *> >,0> >::_Node>
  00010	83 c4 04	 add	 esp, 4

; 153  : 		}

  00013	8b e5		 mov	 esp, ebp
  00015	5d		 pop	 ebp
  00016	c2 04 00	 ret	 4
?destroy@?$allocator@U_Node@?$_Tree_nod@V?$_Tmap_traits@HPAVBaseDialog@@U?$less@H@std@@V?$allocator@U?$pair@$$CBHPAVBaseDialog@@@std@@@3@$0A@@std@@@std@@@std@@QAEXPAU_Node@?$_Tree_nod@V?$_Tmap_traits@HPAVBaseDialog@@U?$less@H@std@@V?$allocator@U?$pair@$$CBHPAVBaseDialog@@@std@@@3@$0A@@std@@@2@@Z ENDP ; std::allocator<std::_Tree_nod<std::_Tmap_traits<int,BaseDialog *,std::less<int>,std::allocator<std::pair<int const ,BaseDialog *> >,0> >::_Node>::destroy
_TEXT	ENDS
PUBLIC	??$_Construct@PAU_Node@?$_Tree_nod@V?$_Tmap_traits@HPAVBaseDialog@@U?$less@H@std@@V?$allocator@U?$pair@$$CBHPAVBaseDialog@@@std@@@3@$0A@@std@@@std@@PAU123@@std@@YAXPAPAU_Node@?$_Tree_nod@V?$_Tmap_traits@HPAVBaseDialog@@U?$less@H@std@@V?$allocator@U?$pair@$$CBHPAVBaseDialog@@@std@@@3@$0A@@std@@@0@ABQAU120@@Z ; std::_Construct<std::_Tree_nod<std::_Tmap_traits<int,BaseDialog *,std::less<int>,std::allocator<std::pair<int const ,BaseDialog *> >,0> >::_Node *,std::_Tree_nod<std::_Tmap_traits<int,BaseDialog *,std::less<int>,std::allocator<std::pair<int const ,BaseDialog *> >,0> >::_Node *>
; Function compile flags: /Odt
;	COMDAT ?construct@?$allocator@PAU_Node@?$_Tree_nod@V?$_Tmap_traits@HPAVBaseDialog@@U?$less@H@std@@V?$allocator@U?$pair@$$CBHPAVBaseDialog@@@std@@@3@$0A@@std@@@std@@@std@@QAEXPAPAU_Node@?$_Tree_nod@V?$_Tmap_traits@HPAVBaseDialog@@U?$less@H@std@@V?$allocator@U?$pair@$$CBHPAVBaseDialog@@@std@@@3@$0A@@std@@@2@ABQAU342@@Z
_TEXT	SEGMENT
_this$ = -4						; size = 4
__Ptr$ = 8						; size = 4
__Val$ = 12						; size = 4
?construct@?$allocator@PAU_Node@?$_Tree_nod@V?$_Tmap_traits@HPAVBaseDialog@@U?$less@H@std@@V?$allocator@U?$pair@$$CBHPAVBaseDialog@@@std@@@3@$0A@@std@@@std@@@std@@QAEXPAPAU_Node@?$_Tree_nod@V?$_Tmap_traits@HPAVBaseDialog@@U?$less@H@std@@V?$allocator@U?$pair@$$CBHPAVBaseDialog@@@std@@@3@$0A@@std@@@2@ABQAU342@@Z PROC NEAR ; std::allocator<std::_Tree_nod<std::_Tmap_traits<int,BaseDialog *,std::less<int>,std::allocator<std::pair<int const ,BaseDialog *> >,0> >::_Node *>::construct, COMDAT
; _this$ = ecx

; 146  : 		{	// construct object at _Ptr with value _Val

  00000	55		 push	 ebp
  00001	8b ec		 mov	 ebp, esp
  00003	51		 push	 ecx
  00004	89 4d fc	 mov	 DWORD PTR _this$[ebp], ecx

; 147  : 		_Construct(_Ptr, _Val);

  00007	8b 45 0c	 mov	 eax, DWORD PTR __Val$[ebp]
  0000a	50		 push	 eax
  0000b	8b 4d 08	 mov	 ecx, DWORD PTR __Ptr$[ebp]
  0000e	51		 push	 ecx
  0000f	e8 00 00 00 00	 call	 ??$_Construct@PAU_Node@?$_Tree_nod@V?$_Tmap_traits@HPAVBaseDialog@@U?$less@H@std@@V?$allocator@U?$pair@$$CBHPAVBaseDialog@@@std@@@3@$0A@@std@@@std@@PAU123@@std@@YAXPAPAU_Node@?$_Tree_nod@V?$_Tmap_traits@HPAVBaseDialog@@U?$less@H@std@@V?$allocator@U?$pair@$$CBHPAVBaseDialog@@@std@@@3@$0A@@std@@@0@ABQAU120@@Z ; std::_Construct<std::_Tree_nod<std::_Tmap_traits<int,BaseDialog *,std::less<int>,std::allocator<std::pair<int const ,BaseDialog *> >,0> >::_Node *,std::_Tree_nod<std::_Tmap_traits<int,BaseDialog *,std::less<int>,std::allocator<std::pair<int const ,BaseDialog *> >,0> >::_Node *>
  00014	83 c4 08	 add	 esp, 8

; 148  : 		}

  00017	8b e5		 mov	 esp, ebp
  00019	5d		 pop	 ebp
  0001a	c2 08 00	 ret	 8
?construct@?$allocator@PAU_Node@?$_Tree_nod@V?$_Tmap_traits@HPAVBaseDialog@@U?$less@H@std@@V?$allocator@U?$pair@$$CBHPAVBaseDialog@@@std@@@3@$0A@@std@@@std@@@std@@QAEXPAPAU_Node@?$_Tree_nod@V?$_Tmap_traits@HPAVBaseDialog@@U?$less@H@std@@V?$allocator@U?$pair@$$CBHPAVBaseDialog@@@std@@@3@$0A@@std@@@2@ABQAU342@@Z ENDP ; std::allocator<std::_Tree_nod<std::_Tmap_traits<int,BaseDialog *,std::less<int>,std::allocator<std::pair<int const ,BaseDialog *> >,0> >::_Node *>::construct
; Function compile flags: /Odt
; File d:\program files (x86)\microsoft visual studio .net 2003\vc7\include\xtree
_TEXT	ENDS
;	COMDAT ?_Dec@const_iterator@?$_Tree@V?$_Tmap_traits@HPAVBaseDialog@@U?$less@H@std@@V?$allocator@U?$pair@$$CBHPAVBaseDialog@@@std@@@3@$0A@@std@@@std@@QAEXXZ
_TEXT	SEGMENT
_this$ = -8						; size = 4
__Pnode$199207 = -4					; size = 4
?_Dec@const_iterator@?$_Tree@V?$_Tmap_traits@HPAVBaseDialog@@U?$less@H@std@@V?$allocator@U?$pair@$$CBHPAVBaseDialog@@@std@@@3@$0A@@std@@@std@@QAEXXZ PROC NEAR ; std::_Tree<std::_Tmap_traits<int,BaseDialog *,std::less<int>,std::allocator<std::pair<int const ,BaseDialog *> >,0> >::const_iterator::_Dec, COMDAT
; _this$ = ecx

; 250  : 			{	// move to node with next smaller value

  00000	55		 push	 ebp
  00001	8b ec		 mov	 ebp, esp
  00003	83 ec 08	 sub	 esp, 8
  00006	89 4d f8	 mov	 DWORD PTR _this$[ebp], ecx

; 251  : 			if (_Isnil(_Ptr))

  00009	8b 45 f8	 mov	 eax, DWORD PTR _this$[ebp]
  0000c	8b 08		 mov	 ecx, DWORD PTR [eax]
  0000e	51		 push	 ecx
  0000f	e8 00 00 00 00	 call	 ?_Isnil@?$_Tree@V?$_Tmap_traits@HPAVBaseDialog@@U?$less@H@std@@V?$allocator@U?$pair@$$CBHPAVBaseDialog@@@std@@@3@$0A@@std@@@std@@KAAADPAU_Node@?$_Tree_nod@V?$_Tmap_traits@HPAVBaseDialog@@U?$less@H@std@@V?$allocator@U?$pair@$$CBHPAVBaseDialog@@@std@@@3@$0A@@std@@@2@@Z ; std::_Tree<std::_Tmap_traits<int,BaseDialog *,std::less<int>,std::allocator<std::pair<int const ,BaseDialog *> >,0> >::_Isnil
  00014	83 c4 04	 add	 esp, 4
  00017	0f be 10	 movsx	 edx, BYTE PTR [eax]
  0001a	85 d2		 test	 edx, edx
  0001c	74 1a		 je	 SHORT $L199203

; 252  : 				_Ptr = _Right(_Ptr);	// end() ==> rightmost

  0001e	8b 45 f8	 mov	 eax, DWORD PTR _this$[ebp]
  00021	8b 08		 mov	 ecx, DWORD PTR [eax]
  00023	51		 push	 ecx
  00024	e8 00 00 00 00	 call	 ?_Right@?$_Tree@V?$_Tmap_traits@HPAVBaseDialog@@U?$less@H@std@@V?$allocator@U?$pair@$$CBHPAVBaseDialog@@@std@@@3@$0A@@std@@@std@@KAAAPAU_Node@?$_Tree_nod@V?$_Tmap_traits@HPAVBaseDialog@@U?$less@H@std@@V?$allocator@U?$pair@$$CBHPAVBaseDialog@@@std@@@3@$0A@@std@@@2@PAU342@@Z ; std::_Tree<std::_Tmap_traits<int,BaseDialog *,std::less<int>,std::allocator<std::pair<int const ,BaseDialog *> >,0> >::_Right
  00029	83 c4 04	 add	 esp, 4
  0002c	8b 55 f8	 mov	 edx, DWORD PTR _this$[ebp]
  0002f	8b 00		 mov	 eax, DWORD PTR [eax]
  00031	89 02		 mov	 DWORD PTR [edx], eax

; 253  : 			else if (!_Isnil(_Left(_Ptr)))

  00033	e9 a0 00 00 00	 jmp	 $L199202
$L199203:
  00038	8b 4d f8	 mov	 ecx, DWORD PTR _this$[ebp]
  0003b	8b 11		 mov	 edx, DWORD PTR [ecx]
  0003d	52		 push	 edx
  0003e	e8 00 00 00 00	 call	 ?_Left@?$_Tree@V?$_Tmap_traits@HPAVBaseDialog@@U?$less@H@std@@V?$allocator@U?$pair@$$CBHPAVBaseDialog@@@std@@@3@$0A@@std@@@std@@KAAAPAU_Node@?$_Tree_nod@V?$_Tmap_traits@HPAVBaseDialog@@U?$less@H@std@@V?$allocator@U?$pair@$$CBHPAVBaseDialog@@@std@@@3@$0A@@std@@@2@PAU342@@Z ; std::_Tree<std::_Tmap_traits<int,BaseDialog *,std::less<int>,std::allocator<std::pair<int const ,BaseDialog *> >,0> >::_Left
  00043	83 c4 04	 add	 esp, 4
  00046	8b 00		 mov	 eax, DWORD PTR [eax]
  00048	50		 push	 eax
  00049	e8 00 00 00 00	 call	 ?_Isnil@?$_Tree@V?$_Tmap_traits@HPAVBaseDialog@@U?$less@H@std@@V?$allocator@U?$pair@$$CBHPAVBaseDialog@@@std@@@3@$0A@@std@@@std@@KAAADPAU_Node@?$_Tree_nod@V?$_Tmap_traits@HPAVBaseDialog@@U?$less@H@std@@V?$allocator@U?$pair@$$CBHPAVBaseDialog@@@std@@@3@$0A@@std@@@2@@Z ; std::_Tree<std::_Tmap_traits<int,BaseDialog *,std::less<int>,std::allocator<std::pair<int const ,BaseDialog *> >,0> >::_Isnil
  0004e	83 c4 04	 add	 esp, 4
  00051	0f be 08	 movsx	 ecx, BYTE PTR [eax]
  00054	85 c9		 test	 ecx, ecx
  00056	75 20		 jne	 SHORT $L199209

; 254  : 				_Ptr = _Max(_Left(_Ptr));	// ==> largest of left subtree

  00058	8b 55 f8	 mov	 edx, DWORD PTR _this$[ebp]
  0005b	8b 02		 mov	 eax, DWORD PTR [edx]
  0005d	50		 push	 eax
  0005e	e8 00 00 00 00	 call	 ?_Left@?$_Tree@V?$_Tmap_traits@HPAVBaseDialog@@U?$less@H@std@@V?$allocator@U?$pair@$$CBHPAVBaseDialog@@@std@@@3@$0A@@std@@@std@@KAAAPAU_Node@?$_Tree_nod@V?$_Tmap_traits@HPAVBaseDialog@@U?$less@H@std@@V?$allocator@U?$pair@$$CBHPAVBaseDialog@@@std@@@3@$0A@@std@@@2@PAU342@@Z ; std::_Tree<std::_Tmap_traits<int,BaseDialog *,std::less<int>,std::allocator<std::pair<int const ,BaseDialog *> >,0> >::_Left
  00063	83 c4 04	 add	 esp, 4
  00066	8b 08		 mov	 ecx, DWORD PTR [eax]
  00068	51		 push	 ecx
  00069	e8 00 00 00 00	 call	 ?_Max@?$_Tree@V?$_Tmap_traits@HPAVBaseDialog@@U?$less@H@std@@V?$allocator@U?$pair@$$CBHPAVBaseDialog@@@std@@@3@$0A@@std@@@std@@KAPAU_Node@?$_Tree_nod@V?$_Tmap_traits@HPAVBaseDialog@@U?$less@H@std@@V?$allocator@U?$pair@$$CBHPAVBaseDialog@@@std@@@3@$0A@@std@@@2@PAU342@@Z ; std::_Tree<std::_Tmap_traits<int,BaseDialog *,std::less<int>,std::allocator<std::pair<int const ,BaseDialog *> >,0> >::_Max
  0006e	83 c4 04	 add	 esp, 4
  00071	8b 55 f8	 mov	 edx, DWORD PTR _this$[ebp]
  00074	89 02		 mov	 DWORD PTR [edx], eax

; 255  : 			else

  00076	eb 60		 jmp	 SHORT $L199202
$L199209:

; 256  : 				{	// climb looking for left subtree
; 257  : 				_Nodeptr _Pnode;
; 258  : 				while (!_Isnil(_Pnode = _Parent(_Ptr))
; 259  : 					&& _Ptr == _Left(_Pnode))

  00078	8b 45 f8	 mov	 eax, DWORD PTR _this$[ebp]
  0007b	8b 08		 mov	 ecx, DWORD PTR [eax]
  0007d	51		 push	 ecx
  0007e	e8 00 00 00 00	 call	 ?_Parent@?$_Tree@V?$_Tmap_traits@HPAVBaseDialog@@U?$less@H@std@@V?$allocator@U?$pair@$$CBHPAVBaseDialog@@@std@@@3@$0A@@std@@@std@@KAAAPAU_Node@?$_Tree_nod@V?$_Tmap_traits@HPAVBaseDialog@@U?$less@H@std@@V?$allocator@U?$pair@$$CBHPAVBaseDialog@@@std@@@3@$0A@@std@@@2@PAU342@@Z ; std::_Tree<std::_Tmap_traits<int,BaseDialog *,std::less<int>,std::allocator<std::pair<int const ,BaseDialog *> >,0> >::_Parent
  00083	83 c4 04	 add	 esp, 4
  00086	8b 10		 mov	 edx, DWORD PTR [eax]
  00088	89 55 fc	 mov	 DWORD PTR __Pnode$199207[ebp], edx
  0008b	8b 45 fc	 mov	 eax, DWORD PTR __Pnode$199207[ebp]
  0008e	50		 push	 eax
  0008f	e8 00 00 00 00	 call	 ?_Isnil@?$_Tree@V?$_Tmap_traits@HPAVBaseDialog@@U?$less@H@std@@V?$allocator@U?$pair@$$CBHPAVBaseDialog@@@std@@@3@$0A@@std@@@std@@KAAADPAU_Node@?$_Tree_nod@V?$_Tmap_traits@HPAVBaseDialog@@U?$less@H@std@@V?$allocator@U?$pair@$$CBHPAVBaseDialog@@@std@@@3@$0A@@std@@@2@@Z ; std::_Tree<std::_Tmap_traits<int,BaseDialog *,std::less<int>,std::allocator<std::pair<int const ,BaseDialog *> >,0> >::_Isnil
  00094	83 c4 04	 add	 esp, 4
  00097	0f be 08	 movsx	 ecx, BYTE PTR [eax]
  0009a	85 c9		 test	 ecx, ecx
  0009c	75 1f		 jne	 SHORT $L199210
  0009e	8b 55 fc	 mov	 edx, DWORD PTR __Pnode$199207[ebp]
  000a1	52		 push	 edx
  000a2	e8 00 00 00 00	 call	 ?_Left@?$_Tree@V?$_Tmap_traits@HPAVBaseDialog@@U?$less@H@std@@V?$allocator@U?$pair@$$CBHPAVBaseDialog@@@std@@@3@$0A@@std@@@std@@KAAAPAU_Node@?$_Tree_nod@V?$_Tmap_traits@HPAVBaseDialog@@U?$less@H@std@@V?$allocator@U?$pair@$$CBHPAVBaseDialog@@@std@@@3@$0A@@std@@@2@PAU342@@Z ; std::_Tree<std::_Tmap_traits<int,BaseDialog *,std::less<int>,std::allocator<std::pair<int const ,BaseDialog *> >,0> >::_Left
  000a7	83 c4 04	 add	 esp, 4
  000aa	8b 4d f8	 mov	 ecx, DWORD PTR _this$[ebp]
  000ad	8b 11		 mov	 edx, DWORD PTR [ecx]
  000af	3b 10		 cmp	 edx, DWORD PTR [eax]
  000b1	75 0a		 jne	 SHORT $L199210

; 260  : 					_Ptr = _Pnode;	// ==> parent while left subtree

  000b3	8b 45 f8	 mov	 eax, DWORD PTR _this$[ebp]
  000b6	8b 4d fc	 mov	 ecx, DWORD PTR __Pnode$199207[ebp]
  000b9	89 08		 mov	 DWORD PTR [eax], ecx
  000bb	eb bb		 jmp	 SHORT $L199209
$L199210:

; 261  : 				if (!_Isnil(_Pnode))

  000bd	8b 55 fc	 mov	 edx, DWORD PTR __Pnode$199207[ebp]
  000c0	52		 push	 edx
  000c1	e8 00 00 00 00	 call	 ?_Isnil@?$_Tree@V?$_Tmap_traits@HPAVBaseDialog@@U?$less@H@std@@V?$allocator@U?$pair@$$CBHPAVBaseDialog@@@std@@@3@$0A@@std@@@std@@KAAADPAU_Node@?$_Tree_nod@V?$_Tmap_traits@HPAVBaseDialog@@U?$less@H@std@@V?$allocator@U?$pair@$$CBHPAVBaseDialog@@@std@@@3@$0A@@std@@@2@@Z ; std::_Tree<std::_Tmap_traits<int,BaseDialog *,std::less<int>,std::allocator<std::pair<int const ,BaseDialog *> >,0> >::_Isnil
  000c6	83 c4 04	 add	 esp, 4
  000c9	0f be 00	 movsx	 eax, BYTE PTR [eax]
  000cc	85 c0		 test	 eax, eax
  000ce	75 08		 jne	 SHORT $L199202

; 262  : 					_Ptr = _Pnode;	// ==> parent if not head

  000d0	8b 4d f8	 mov	 ecx, DWORD PTR _this$[ebp]
  000d3	8b 55 fc	 mov	 edx, DWORD PTR __Pnode$199207[ebp]
  000d6	89 11		 mov	 DWORD PTR [ecx], edx
$L199202:

; 263  : 				}
; 264  : 			}

  000d8	8b e5		 mov	 esp, ebp
  000da	5d		 pop	 ebp
  000db	c3		 ret	 0
?_Dec@const_iterator@?$_Tree@V?$_Tmap_traits@HPAVBaseDialog@@U?$less@H@std@@V?$allocator@U?$pair@$$CBHPAVBaseDialog@@@std@@@3@$0A@@std@@@std@@QAEXXZ ENDP ; std::_Tree<std::_Tmap_traits<int,BaseDialog *,std::less<int>,std::allocator<std::pair<int const ,BaseDialog *> >,0> >::const_iterator::_Dec
; Function compile flags: /Odt
_TEXT	ENDS
;	COMDAT ?_Inc@const_iterator@?$_Tree@V?$_Tmap_traits@HPAVBaseDialog@@U?$less@H@std@@V?$allocator@U?$pair@$$CBHPAVBaseDialog@@@std@@@3@$0A@@std@@@std@@QAEXXZ
_TEXT	SEGMENT
_this$ = -8						; size = 4
__Pnode$199218 = -4					; size = 4
?_Inc@const_iterator@?$_Tree@V?$_Tmap_traits@HPAVBaseDialog@@U?$less@H@std@@V?$allocator@U?$pair@$$CBHPAVBaseDialog@@@std@@@3@$0A@@std@@@std@@QAEXXZ PROC NEAR ; std::_Tree<std::_Tmap_traits<int,BaseDialog *,std::less<int>,std::allocator<std::pair<int const ,BaseDialog *> >,0> >::const_iterator::_Inc, COMDAT
; _this$ = ecx

; 267  : 			{	// move to node with next larger value

  00000	55		 push	 ebp
  00001	8b ec		 mov	 ebp, esp
  00003	83 ec 08	 sub	 esp, 8
  00006	89 4d f8	 mov	 DWORD PTR _this$[ebp], ecx

; 268  : 			if (_Isnil(_Ptr))

  00009	8b 45 f8	 mov	 eax, DWORD PTR _this$[ebp]
  0000c	8b 08		 mov	 ecx, DWORD PTR [eax]
  0000e	51		 push	 ecx
  0000f	e8 00 00 00 00	 call	 ?_Isnil@?$_Tree@V?$_Tmap_traits@HPAVBaseDialog@@U?$less@H@std@@V?$allocator@U?$pair@$$CBHPAVBaseDialog@@@std@@@3@$0A@@std@@@std@@KAAADPAU_Node@?$_Tree_nod@V?$_Tmap_traits@HPAVBaseDialog@@U?$less@H@std@@V?$allocator@U?$pair@$$CBHPAVBaseDialog@@@std@@@3@$0A@@std@@@2@@Z ; std::_Tree<std::_Tmap_traits<int,BaseDialog *,std::less<int>,std::allocator<std::pair<int const ,BaseDialog *> >,0> >::_Isnil
  00014	83 c4 04	 add	 esp, 4
  00017	0f be 10	 movsx	 edx, BYTE PTR [eax]
  0001a	85 d2		 test	 edx, edx
  0001c	74 05		 je	 SHORT $L199214

; 269  : 				;	// end() shouldn't be incremented, don't move
; 270  : 			else if (!_Isnil(_Right(_Ptr)))

  0001e	e9 8d 00 00 00	 jmp	 $L199213
$L199214:
  00023	8b 45 f8	 mov	 eax, DWORD PTR _this$[ebp]
  00026	8b 08		 mov	 ecx, DWORD PTR [eax]
  00028	51		 push	 ecx
  00029	e8 00 00 00 00	 call	 ?_Right@?$_Tree@V?$_Tmap_traits@HPAVBaseDialog@@U?$less@H@std@@V?$allocator@U?$pair@$$CBHPAVBaseDialog@@@std@@@3@$0A@@std@@@std@@KAAAPAU_Node@?$_Tree_nod@V?$_Tmap_traits@HPAVBaseDialog@@U?$less@H@std@@V?$allocator@U?$pair@$$CBHPAVBaseDialog@@@std@@@3@$0A@@std@@@2@PAU342@@Z ; std::_Tree<std::_Tmap_traits<int,BaseDialog *,std::less<int>,std::allocator<std::pair<int const ,BaseDialog *> >,0> >::_Right
  0002e	83 c4 04	 add	 esp, 4
  00031	8b 10		 mov	 edx, DWORD PTR [eax]
  00033	52		 push	 edx
  00034	e8 00 00 00 00	 call	 ?_Isnil@?$_Tree@V?$_Tmap_traits@HPAVBaseDialog@@U?$less@H@std@@V?$allocator@U?$pair@$$CBHPAVBaseDialog@@@std@@@3@$0A@@std@@@std@@KAAADPAU_Node@?$_Tree_nod@V?$_Tmap_traits@HPAVBaseDialog@@U?$less@H@std@@V?$allocator@U?$pair@$$CBHPAVBaseDialog@@@std@@@3@$0A@@std@@@2@@Z ; std::_Tree<std::_Tmap_traits<int,BaseDialog *,std::less<int>,std::allocator<std::pair<int const ,BaseDialog *> >,0> >::_Isnil
  00039	83 c4 04	 add	 esp, 4
  0003c	0f be 00	 movsx	 eax, BYTE PTR [eax]
  0003f	85 c0		 test	 eax, eax
  00041	75 20		 jne	 SHORT $L199220

; 271  : 				_Ptr = _Min(_Right(_Ptr));	// ==> smallest of right subtree

  00043	8b 4d f8	 mov	 ecx, DWORD PTR _this$[ebp]
  00046	8b 11		 mov	 edx, DWORD PTR [ecx]
  00048	52		 push	 edx
  00049	e8 00 00 00 00	 call	 ?_Right@?$_Tree@V?$_Tmap_traits@HPAVBaseDialog@@U?$less@H@std@@V?$allocator@U?$pair@$$CBHPAVBaseDialog@@@std@@@3@$0A@@std@@@std@@KAAAPAU_Node@?$_Tree_nod@V?$_Tmap_traits@HPAVBaseDialog@@U?$less@H@std@@V?$allocator@U?$pair@$$CBHPAVBaseDialog@@@std@@@3@$0A@@std@@@2@PAU342@@Z ; std::_Tree<std::_Tmap_traits<int,BaseDialog *,std::less<int>,std::allocator<std::pair<int const ,BaseDialog *> >,0> >::_Right
  0004e	83 c4 04	 add	 esp, 4
  00051	8b 00		 mov	 eax, DWORD PTR [eax]
  00053	50		 push	 eax
  00054	e8 00 00 00 00	 call	 ?_Min@?$_Tree@V?$_Tmap_traits@HPAVBaseDialog@@U?$less@H@std@@V?$allocator@U?$pair@$$CBHPAVBaseDialog@@@std@@@3@$0A@@std@@@std@@KAPAU_Node@?$_Tree_nod@V?$_Tmap_traits@HPAVBaseDialog@@U?$less@H@std@@V?$allocator@U?$pair@$$CBHPAVBaseDialog@@@std@@@3@$0A@@std@@@2@PAU342@@Z ; std::_Tree<std::_Tmap_traits<int,BaseDialog *,std::less<int>,std::allocator<std::pair<int const ,BaseDialog *> >,0> >::_Min
  00059	83 c4 04	 add	 esp, 4
  0005c	8b 4d f8	 mov	 ecx, DWORD PTR _this$[ebp]
  0005f	89 01		 mov	 DWORD PTR [ecx], eax

; 272  : 			else

  00061	eb 4d		 jmp	 SHORT $L199213
$L199220:

; 273  : 				{	// climb looking for right subtree
; 274  : 				_Nodeptr _Pnode;
; 275  : 				while (!_Isnil(_Pnode = _Parent(_Ptr))
; 276  : 					&& _Ptr == _Right(_Pnode))

  00063	8b 55 f8	 mov	 edx, DWORD PTR _this$[ebp]
  00066	8b 02		 mov	 eax, DWORD PTR [edx]
  00068	50		 push	 eax
  00069	e8 00 00 00 00	 call	 ?_Parent@?$_Tree@V?$_Tmap_traits@HPAVBaseDialog@@U?$less@H@std@@V?$allocator@U?$pair@$$CBHPAVBaseDialog@@@std@@@3@$0A@@std@@@std@@KAAAPAU_Node@?$_Tree_nod@V?$_Tmap_traits@HPAVBaseDialog@@U?$less@H@std@@V?$allocator@U?$pair@$$CBHPAVBaseDialog@@@std@@@3@$0A@@std@@@2@PAU342@@Z ; std::_Tree<std::_Tmap_traits<int,BaseDialog *,std::less<int>,std::allocator<std::pair<int const ,BaseDialog *> >,0> >::_Parent
  0006e	83 c4 04	 add	 esp, 4
  00071	8b 08		 mov	 ecx, DWORD PTR [eax]
  00073	89 4d fc	 mov	 DWORD PTR __Pnode$199218[ebp], ecx
  00076	8b 55 fc	 mov	 edx, DWORD PTR __Pnode$199218[ebp]
  00079	52		 push	 edx
  0007a	e8 00 00 00 00	 call	 ?_Isnil@?$_Tree@V?$_Tmap_traits@HPAVBaseDialog@@U?$less@H@std@@V?$allocator@U?$pair@$$CBHPAVBaseDialog@@@std@@@3@$0A@@std@@@std@@KAAADPAU_Node@?$_Tree_nod@V?$_Tmap_traits@HPAVBaseDialog@@U?$less@H@std@@V?$allocator@U?$pair@$$CBHPAVBaseDialog@@@std@@@3@$0A@@std@@@2@@Z ; std::_Tree<std::_Tmap_traits<int,BaseDialog *,std::less<int>,std::allocator<std::pair<int const ,BaseDialog *> >,0> >::_Isnil
  0007f	83 c4 04	 add	 esp, 4
  00082	0f be 00	 movsx	 eax, BYTE PTR [eax]
  00085	85 c0		 test	 eax, eax
  00087	75 1f		 jne	 SHORT $L199221
  00089	8b 4d fc	 mov	 ecx, DWORD PTR __Pnode$199218[ebp]
  0008c	51		 push	 ecx
  0008d	e8 00 00 00 00	 call	 ?_Right@?$_Tree@V?$_Tmap_traits@HPAVBaseDialog@@U?$less@H@std@@V?$allocator@U?$pair@$$CBHPAVBaseDialog@@@std@@@3@$0A@@std@@@std@@KAAAPAU_Node@?$_Tree_nod@V?$_Tmap_traits@HPAVBaseDialog@@U?$less@H@std@@V?$allocator@U?$pair@$$CBHPAVBaseDialog@@@std@@@3@$0A@@std@@@2@PAU342@@Z ; std::_Tree<std::_Tmap_traits<int,BaseDialog *,std::less<int>,std::allocator<std::pair<int const ,BaseDialog *> >,0> >::_Right
  00092	83 c4 04	 add	 esp, 4
  00095	8b 55 f8	 mov	 edx, DWORD PTR _this$[ebp]
  00098	8b 0a		 mov	 ecx, DWORD PTR [edx]
  0009a	3b 08		 cmp	 ecx, DWORD PTR [eax]
  0009c	75 0a		 jne	 SHORT $L199221

; 277  : 					_Ptr = _Pnode;	// ==> parent while right subtree

  0009e	8b 55 f8	 mov	 edx, DWORD PTR _this$[ebp]
  000a1	8b 45 fc	 mov	 eax, DWORD PTR __Pnode$199218[ebp]
  000a4	89 02		 mov	 DWORD PTR [edx], eax
  000a6	eb bb		 jmp	 SHORT $L199220
$L199221:

; 278  : 				_Ptr = _Pnode;	// ==> parent (head if end())

  000a8	8b 4d f8	 mov	 ecx, DWORD PTR _this$[ebp]
  000ab	8b 55 fc	 mov	 edx, DWORD PTR __Pnode$199218[ebp]
  000ae	89 11		 mov	 DWORD PTR [ecx], edx
$L199213:

; 279  : 				}
; 280  : 			}

  000b0	8b e5		 mov	 esp, ebp
  000b2	5d		 pop	 ebp
  000b3	c3		 ret	 0
?_Inc@const_iterator@?$_Tree@V?$_Tmap_traits@HPAVBaseDialog@@U?$less@H@std@@V?$allocator@U?$pair@$$CBHPAVBaseDialog@@@std@@@3@$0A@@std@@@std@@QAEXXZ ENDP ; std::_Tree<std::_Tmap_traits<int,BaseDialog *,std::less<int>,std::allocator<std::pair<int const ,BaseDialog *> >,0> >::const_iterator::_Inc
; Function compile flags: /Odt
_TEXT	ENDS
;	COMDAT ??0_Node@?$_Tree_nod@V?$_Tmap_traits@HPAVBaseDialog@@U?$less@H@std@@V?$allocator@U?$pair@$$CBHPAVBaseDialog@@@std@@@3@$0A@@std@@@std@@QAE@PAU012@00ABU?$pair@$$CBHPAVBaseDialog@@@2@D@Z
_TEXT	SEGMENT
_this$ = -4						; size = 4
__Larg$ = 8						; size = 4
__Parg$ = 12						; size = 4
__Rarg$ = 16						; size = 4
__Val$ = 20						; size = 4
__Carg$ = 24						; size = 1
??0_Node@?$_Tree_nod@V?$_Tmap_traits@HPAVBaseDialog@@U?$less@H@std@@V?$allocator@U?$pair@$$CBHPAVBaseDialog@@@std@@@3@$0A@@std@@@std@@QAE@PAU012@00ABU?$pair@$$CBHPAVBaseDialog@@@2@D@Z PROC NEAR ; std::_Tree_nod<std::_Tmap_traits<int,BaseDialog *,std::less<int>,std::allocator<std::pair<int const ,BaseDialog *> >,0> >::_Node::_Node, COMDAT
; _this$ = ecx

; 40   : 			{	// construct a node with value

  00000	55		 push	 ebp
  00001	8b ec		 mov	 ebp, esp
  00003	51		 push	 ecx
  00004	89 4d fc	 mov	 DWORD PTR _this$[ebp], ecx
  00007	8b 45 fc	 mov	 eax, DWORD PTR _this$[ebp]
  0000a	8b 4d 08	 mov	 ecx, DWORD PTR __Larg$[ebp]
  0000d	89 08		 mov	 DWORD PTR [eax], ecx
  0000f	8b 55 fc	 mov	 edx, DWORD PTR _this$[ebp]
  00012	8b 45 0c	 mov	 eax, DWORD PTR __Parg$[ebp]
  00015	89 42 04	 mov	 DWORD PTR [edx+4], eax
  00018	8b 4d fc	 mov	 ecx, DWORD PTR _this$[ebp]
  0001b	8b 55 10	 mov	 edx, DWORD PTR __Rarg$[ebp]
  0001e	89 51 08	 mov	 DWORD PTR [ecx+8], edx
  00021	8b 45 14	 mov	 eax, DWORD PTR __Val$[ebp]
  00024	8b 08		 mov	 ecx, DWORD PTR [eax]
  00026	8b 50 04	 mov	 edx, DWORD PTR [eax+4]
  00029	8b 45 fc	 mov	 eax, DWORD PTR _this$[ebp]
  0002c	89 48 0c	 mov	 DWORD PTR [eax+12], ecx
  0002f	89 50 10	 mov	 DWORD PTR [eax+16], edx
  00032	8b 4d fc	 mov	 ecx, DWORD PTR _this$[ebp]
  00035	8a 55 18	 mov	 dl, BYTE PTR __Carg$[ebp]
  00038	88 51 14	 mov	 BYTE PTR [ecx+20], dl
  0003b	8b 45 fc	 mov	 eax, DWORD PTR _this$[ebp]
  0003e	c6 40 15 00	 mov	 BYTE PTR [eax+21], 0

; 41   : 			}

  00042	8b 45 fc	 mov	 eax, DWORD PTR _this$[ebp]
  00045	8b e5		 mov	 esp, ebp
  00047	5d		 pop	 ebp
  00048	c2 14 00	 ret	 20			; 00000014H
??0_Node@?$_Tree_nod@V?$_Tmap_traits@HPAVBaseDialog@@U?$less@H@std@@V?$allocator@U?$pair@$$CBHPAVBaseDialog@@@std@@@3@$0A@@std@@@std@@QAE@PAU012@00ABU?$pair@$$CBHPAVBaseDialog@@@2@D@Z ENDP ; std::_Tree_nod<std::_Tmap_traits<int,BaseDialog *,std::less<int>,std::allocator<std::pair<int const ,BaseDialog *> >,0> >::_Node::_Node
; Function compile flags: /Odt
; File d:\program files (x86)\microsoft visual studio .net 2003\vc7\include\map
_TEXT	ENDS
;	COMDAT ??0?$_Tmap_traits@HPAVBaseDialog@@U?$less@H@std@@V?$allocator@U?$pair@$$CBHPAVBaseDialog@@@std@@@3@$0A@@std@@QAE@U?$less@H@1@@Z
_TEXT	SEGMENT
_this$ = -4						; size = 4
__Parg$ = 8						; size = 1
??0?$_Tmap_traits@HPAVBaseDialog@@U?$less@H@std@@V?$allocator@U?$pair@$$CBHPAVBaseDialog@@@std@@@3@$0A@@std@@QAE@U?$less@H@1@@Z PROC NEAR ; std::_Tmap_traits<int,BaseDialog *,std::less<int>,std::allocator<std::pair<int const ,BaseDialog *> >,0>::_Tmap_traits<int,BaseDialog *,std::less<int>,std::allocator<std::pair<int const ,BaseDialog *> >,0>, COMDAT
; _this$ = ecx

; 38   : 		{	// construct with specified comparator

  00000	55		 push	 ebp
  00001	8b ec		 mov	 ebp, esp
  00003	51		 push	 ecx
  00004	89 4d fc	 mov	 DWORD PTR _this$[ebp], ecx

; 39   : 		}

  00007	8b 45 fc	 mov	 eax, DWORD PTR _this$[ebp]
  0000a	8b e5		 mov	 esp, ebp
  0000c	5d		 pop	 ebp
  0000d	c2 04 00	 ret	 4
??0?$_Tmap_traits@HPAVBaseDialog@@U?$less@H@std@@V?$allocator@U?$pair@$$CBHPAVBaseDialog@@@std@@@3@$0A@@std@@QAE@U?$less@H@1@@Z ENDP ; std::_Tmap_traits<int,BaseDialog *,std::less<int>,std::allocator<std::pair<int const ,BaseDialog *> >,0>::_Tmap_traits<int,BaseDialog *,std::less<int>,std::allocator<std::pair<int const ,BaseDialog *> >,0>
; Function compile flags: /Odt
; File d:\program files (x86)\microsoft visual studio .net 2003\vc7\include\xmemory
_TEXT	ENDS
;	COMDAT ??$_Destroy@PAU_Node@?$_Tree_nod@V?$_Tmap_traits@HPAVBaseDialog@@U?$less@H@std@@V?$allocator@U?$pair@$$CBHPAVBaseDialog@@@std@@@3@$0A@@std@@@std@@@std@@YAXPAPAU_Node@?$_Tree_nod@V?$_Tmap_traits@HPAVBaseDialog@@U?$less@H@std@@V?$allocator@U?$pair@$$CBHPAVBaseDialog@@@std@@@3@$0A@@std@@@0@@Z
_TEXT	SEGMENT
__Ptr$ = 8						; size = 4
??$_Destroy@PAU_Node@?$_Tree_nod@V?$_Tmap_traits@HPAVBaseDialog@@U?$less@H@std@@V?$allocator@U?$pair@$$CBHPAVBaseDialog@@@std@@@3@$0A@@std@@@std@@@std@@YAXPAPAU_Node@?$_Tree_nod@V?$_Tmap_traits@HPAVBaseDialog@@U?$less@H@std@@V?$allocator@U?$pair@$$CBHPAVBaseDialog@@@std@@@3@$0A@@std@@@0@@Z PROC NEAR ; std::_Destroy<std::_Tree_nod<std::_Tmap_traits<int,BaseDialog *,std::less<int>,std::allocator<std::pair<int const ,BaseDialog *> >,0> >::_Node *>, COMDAT

; 48   : 	{	// destroy object at _Ptr

  00000	55		 push	 ebp
  00001	8b ec		 mov	 ebp, esp

; 49   : 	_DESTRUCTOR(_Ty, _Ptr);
; 50   : 	}

  00003	5d		 pop	 ebp
  00004	c3		 ret	 0
??$_Destroy@PAU_Node@?$_Tree_nod@V?$_Tmap_traits@HPAVBaseDialog@@U?$less@H@std@@V?$allocator@U?$pair@$$CBHPAVBaseDialog@@@std@@@3@$0A@@std@@@std@@@std@@YAXPAPAU_Node@?$_Tree_nod@V?$_Tmap_traits@HPAVBaseDialog@@U?$less@H@std@@V?$allocator@U?$pair@$$CBHPAVBaseDialog@@@std@@@3@$0A@@std@@@0@@Z ENDP ; std::_Destroy<std::_Tree_nod<std::_Tmap_traits<int,BaseDialog *,std::less<int>,std::allocator<std::pair<int const ,BaseDialog *> >,0> >::_Node *>
; Function compile flags: /Odt
_TEXT	ENDS
;	COMDAT ??$?0U?$pair@$$CBHPAVBaseDialog@@@std@@@?$allocator@PAU_Node@?$_Tree_nod@V?$_Tmap_traits@HPAVBaseDialog@@U?$less@H@std@@V?$allocator@U?$pair@$$CBHPAVBaseDialog@@@std@@@3@$0A@@std@@@std@@@std@@QAE@ABV?$allocator@U?$pair@$$CBHPAVBaseDialog@@@std@@@1@@Z
_TEXT	SEGMENT
_this$ = -4						; size = 4
___formal$ = 8						; size = 4
??$?0U?$pair@$$CBHPAVBaseDialog@@@std@@@?$allocator@PAU_Node@?$_Tree_nod@V?$_Tmap_traits@HPAVBaseDialog@@U?$less@H@std@@V?$allocator@U?$pair@$$CBHPAVBaseDialog@@@std@@@3@$0A@@std@@@std@@@std@@QAE@ABV?$allocator@U?$pair@$$CBHPAVBaseDialog@@@std@@@1@@Z PROC NEAR ; std::allocator<std::_Tree_nod<std::_Tmap_traits<int,BaseDialog *,std::less<int>,std::allocator<std::pair<int const ,BaseDialog *> >,0> >::_Node *>::allocator<std::_Tree_nod<std::_Tmap_traits<int,BaseDialog *,std::less<int>,std::allocator<std::pair<int const ,BaseDialog *> >,0> >::_Node *><std::pair<int const ,BaseDialog *> >, COMDAT
; _this$ = ecx

; 120  : 		allocator(const allocator<_Other>&)

  00000	55		 push	 ebp
  00001	8b ec		 mov	 ebp, esp
  00003	51		 push	 ecx
  00004	89 4d fc	 mov	 DWORD PTR _this$[ebp], ecx

; 121  : 		{	// construct from a related allocator (do nothing)
; 122  : 		}

  00007	8b 45 fc	 mov	 eax, DWORD PTR _this$[ebp]
  0000a	8b e5		 mov	 esp, ebp
  0000c	5d		 pop	 ebp
  0000d	c2 04 00	 ret	 4
??$?0U?$pair@$$CBHPAVBaseDialog@@@std@@@?$allocator@PAU_Node@?$_Tree_nod@V?$_Tmap_traits@HPAVBaseDialog@@U?$less@H@std@@V?$allocator@U?$pair@$$CBHPAVBaseDialog@@@std@@@3@$0A@@std@@@std@@@std@@QAE@ABV?$allocator@U?$pair@$$CBHPAVBaseDialog@@@std@@@1@@Z ENDP ; std::allocator<std::_Tree_nod<std::_Tmap_traits<int,BaseDialog *,std::less<int>,std::allocator<std::pair<int const ,BaseDialog *> >,0> >::_Node *>::allocator<std::_Tree_nod<std::_Tmap_traits<int,BaseDialog *,std::less<int>,std::allocator<std::pair<int const ,BaseDialog *> >,0> >::_Node *><std::pair<int const ,BaseDialog *> >
; Function compile flags: /Odt
_TEXT	ENDS
;	COMDAT ??$?0U?$pair@$$CBHPAVBaseDialog@@@std@@@?$allocator@U_Node@?$_Tree_nod@V?$_Tmap_traits@HPAVBaseDialog@@U?$less@H@std@@V?$allocator@U?$pair@$$CBHPAVBaseDialog@@@std@@@3@$0A@@std@@@std@@@std@@QAE@ABV?$allocator@U?$pair@$$CBHPAVBaseDialog@@@std@@@1@@Z
_TEXT	SEGMENT
_this$ = -4						; size = 4
___formal$ = 8						; size = 4
??$?0U?$pair@$$CBHPAVBaseDialog@@@std@@@?$allocator@U_Node@?$_Tree_nod@V?$_Tmap_traits@HPAVBaseDialog@@U?$less@H@std@@V?$allocator@U?$pair@$$CBHPAVBaseDialog@@@std@@@3@$0A@@std@@@std@@@std@@QAE@ABV?$allocator@U?$pair@$$CBHPAVBaseDialog@@@std@@@1@@Z PROC NEAR ; std::allocator<std::_Tree_nod<std::_Tmap_traits<int,BaseDialog *,std::less<int>,std::allocator<std::pair<int const ,BaseDialog *> >,0> >::_Node>::allocator<std::_Tree_nod<std::_Tmap_traits<int,BaseDialog *,std::less<int>,std::allocator<std::pair<int const ,BaseDialog *> >,0> >::_Node><std::pair<int const ,BaseDialog *> >, COMDAT
; _this$ = ecx

; 120  : 		allocator(const allocator<_Other>&)

  00000	55		 push	 ebp
  00001	8b ec		 mov	 ebp, esp
  00003	51		 push	 ecx
  00004	89 4d fc	 mov	 DWORD PTR _this$[ebp], ecx

; 121  : 		{	// construct from a related allocator (do nothing)
; 122  : 		}

  00007	8b 45 fc	 mov	 eax, DWORD PTR _this$[ebp]
  0000a	8b e5		 mov	 esp, ebp
  0000c	5d		 pop	 ebp
  0000d	c2 04 00	 ret	 4
??$?0U?$pair@$$CBHPAVBaseDialog@@@std@@@?$allocator@U_Node@?$_Tree_nod@V?$_Tmap_traits@HPAVBaseDialog@@U?$less@H@std@@V?$allocator@U?$pair@$$CBHPAVBaseDialog@@@std@@@3@$0A@@std@@@std@@@std@@QAE@ABV?$allocator@U?$pair@$$CBHPAVBaseDialog@@@std@@@1@@Z ENDP ; std::allocator<std::_Tree_nod<std::_Tmap_traits<int,BaseDialog *,std::less<int>,std::allocator<std::pair<int const ,BaseDialog *> >,0> >::_Node>::allocator<std::_Tree_nod<std::_Tmap_traits<int,BaseDialog *,std::less<int>,std::allocator<std::pair<int const ,BaseDialog *> >,0> >::_Node><std::pair<int const ,BaseDialog *> >
_TEXT	ENDS
EXTRN	??2@YAPAXI@Z:NEAR				; operator new
; Function compile flags: /Odt
;	COMDAT ??$_Allocate@U_Node@?$_Tree_nod@V?$_Tmap_traits@HPAVBaseDialog@@U?$less@H@std@@V?$allocator@U?$pair@$$CBHPAVBaseDialog@@@std@@@3@$0A@@std@@@std@@@std@@YAPAU_Node@?$_Tree_nod@V?$_Tmap_traits@HPAVBaseDialog@@U?$less@H@std@@V?$allocator@U?$pair@$$CBHPAVBaseDialog@@@std@@@3@$0A@@std@@@0@IPAU120@@Z
_TEXT	SEGMENT
__Count$ = 8						; size = 4
___formal$ = 12						; size = 4
??$_Allocate@U_Node@?$_Tree_nod@V?$_Tmap_traits@HPAVBaseDialog@@U?$less@H@std@@V?$allocator@U?$pair@$$CBHPAVBaseDialog@@@std@@@3@$0A@@std@@@std@@@std@@YAPAU_Node@?$_Tree_nod@V?$_Tmap_traits@HPAVBaseDialog@@U?$less@H@std@@V?$allocator@U?$pair@$$CBHPAVBaseDialog@@@std@@@3@$0A@@std@@@0@IPAU120@@Z PROC NEAR ; std::_Allocate<std::_Tree_nod<std::_Tmap_traits<int,BaseDialog *,std::less<int>,std::allocator<std::pair<int const ,BaseDialog *> >,0> >::_Node>, COMDAT

; 33   : 	{	// allocate storage for _Count elements of type _Ty

  00000	55		 push	 ebp
  00001	8b ec		 mov	 ebp, esp

; 34   : 	return ((_Ty _FARQ *)operator new(_Count * sizeof (_Ty)));

  00003	8b 45 08	 mov	 eax, DWORD PTR __Count$[ebp]
  00006	6b c0 18	 imul	 eax, 24			; 00000018H
  00009	50		 push	 eax
  0000a	e8 00 00 00 00	 call	 ??2@YAPAXI@Z		; operator new
  0000f	83 c4 04	 add	 esp, 4

; 35   : 	}

  00012	5d		 pop	 ebp
  00013	c3		 ret	 0
??$_Allocate@U_Node@?$_Tree_nod@V?$_Tmap_traits@HPAVBaseDialog@@U?$less@H@std@@V?$allocator@U?$pair@$$CBHPAVBaseDialog@@@std@@@3@$0A@@std@@@std@@@std@@YAPAU_Node@?$_Tree_nod@V?$_Tmap_traits@HPAVBaseDialog@@U?$less@H@std@@V?$allocator@U?$pair@$$CBHPAVBaseDialog@@@std@@@3@$0A@@std@@@0@IPAU120@@Z ENDP ; std::_Allocate<std::_Tree_nod<std::_Tmap_traits<int,BaseDialog *,std::less<int>,std::allocator<std::pair<int const ,BaseDialog *> >,0> >::_Node>
; Function compile flags: /Odt
_TEXT	ENDS
;	COMDAT ??$_Destroy@U_Node@?$_Tree_nod@V?$_Tmap_traits@HPAVBaseDialog@@U?$less@H@std@@V?$allocator@U?$pair@$$CBHPAVBaseDialog@@@std@@@3@$0A@@std@@@std@@@std@@YAXPAU_Node@?$_Tree_nod@V?$_Tmap_traits@HPAVBaseDialog@@U?$less@H@std@@V?$allocator@U?$pair@$$CBHPAVBaseDialog@@@std@@@3@$0A@@std@@@0@@Z
_TEXT	SEGMENT
__Ptr$ = 8						; size = 4
??$_Destroy@U_Node@?$_Tree_nod@V?$_Tmap_traits@HPAVBaseDialog@@U?$less@H@std@@V?$allocator@U?$pair@$$CBHPAVBaseDialog@@@std@@@3@$0A@@std@@@std@@@std@@YAXPAU_Node@?$_Tree_nod@V?$_Tmap_traits@HPAVBaseDialog@@U?$less@H@std@@V?$allocator@U?$pair@$$CBHPAVBaseDialog@@@std@@@3@$0A@@std@@@0@@Z PROC NEAR ; std::_Destroy<std::_Tree_nod<std::_Tmap_traits<int,BaseDialog *,std::less<int>,std::allocator<std::pair<int const ,BaseDialog *> >,0> >::_Node>, COMDAT

; 48   : 	{	// destroy object at _Ptr

  00000	55		 push	 ebp
  00001	8b ec		 mov	 ebp, esp

; 49   : 	_DESTRUCTOR(_Ty, _Ptr);
; 50   : 	}

  00003	5d		 pop	 ebp
  00004	c3		 ret	 0
??$_Destroy@U_Node@?$_Tree_nod@V?$_Tmap_traits@HPAVBaseDialog@@U?$less@H@std@@V?$allocator@U?$pair@$$CBHPAVBaseDialog@@@std@@@3@$0A@@std@@@std@@@std@@YAXPAU_Node@?$_Tree_nod@V?$_Tmap_traits@HPAVBaseDialog@@U?$less@H@std@@V?$allocator@U?$pair@$$CBHPAVBaseDialog@@@std@@@3@$0A@@std@@@0@@Z ENDP ; std::_Destroy<std::_Tree_nod<std::_Tmap_traits<int,BaseDialog *,std::less<int>,std::allocator<std::pair<int const ,BaseDialog *> >,0> >::_Node>
; Function compile flags: /Odt
_TEXT	ENDS
;	COMDAT ??$_Construct@PAU_Node@?$_Tree_nod@V?$_Tmap_traits@HPAVBaseDialog@@U?$less@H@std@@V?$allocator@U?$pair@$$CBHPAVBaseDialog@@@std@@@3@$0A@@std@@@std@@PAU123@@std@@YAXPAPAU_Node@?$_Tree_nod@V?$_Tmap_traits@HPAVBaseDialog@@U?$less@H@std@@V?$allocator@U?$pair@$$CBHPAVBaseDialog@@@std@@@3@$0A@@std@@@0@ABQAU120@@Z
_TEXT	SEGMENT
tv68 = -8						; size = 4
$T200116 = -4						; size = 4
__Ptr$ = 8						; size = 4
__Val$ = 12						; size = 4
??$_Construct@PAU_Node@?$_Tree_nod@V?$_Tmap_traits@HPAVBaseDialog@@U?$less@H@std@@V?$allocator@U?$pair@$$CBHPAVBaseDialog@@@std@@@3@$0A@@std@@@std@@PAU123@@std@@YAXPAPAU_Node@?$_Tree_nod@V?$_Tmap_traits@HPAVBaseDialog@@U?$less@H@std@@V?$allocator@U?$pair@$$CBHPAVBaseDialog@@@std@@@3@$0A@@std@@@0@ABQAU120@@Z PROC NEAR ; std::_Construct<std::_Tree_nod<std::_Tmap_traits<int,BaseDialog *,std::less<int>,std::allocator<std::pair<int const ,BaseDialog *> >,0> >::_Node *,std::_Tree_nod<std::_Tmap_traits<int,BaseDialog *,std::less<int>,std::allocator<std::pair<int const ,BaseDialog *> >,0> >::_Node *>, COMDAT

; 41   : 	{	// construct object at _Ptr with value _Val

  00000	55		 push	 ebp
  00001	8b ec		 mov	 ebp, esp
  00003	83 ec 08	 sub	 esp, 8

; 42   : 	new ((void _FARQ *)_Ptr) _T1(_Val);

  00006	8b 45 08	 mov	 eax, DWORD PTR __Ptr$[ebp]
  00009	50		 push	 eax
  0000a	6a 04		 push	 4
  0000c	e8 00 00 00 00	 call	 ??2@YAPAXIPAX@Z		; operator new
  00011	83 c4 08	 add	 esp, 8
  00014	89 45 fc	 mov	 DWORD PTR $T200116[ebp], eax
  00017	83 7d fc 00	 cmp	 DWORD PTR $T200116[ebp], 0
  0001b	74 12		 je	 SHORT $L200117
  0001d	8b 4d fc	 mov	 ecx, DWORD PTR $T200116[ebp]
  00020	8b 55 0c	 mov	 edx, DWORD PTR __Val$[ebp]
  00023	8b 02		 mov	 eax, DWORD PTR [edx]
  00025	89 01		 mov	 DWORD PTR [ecx], eax
  00027	8b 4d fc	 mov	 ecx, DWORD PTR $T200116[ebp]
  0002a	89 4d f8	 mov	 DWORD PTR tv68[ebp], ecx
  0002d	eb 07		 jmp	 SHORT $L199259
$L200117:
  0002f	c7 45 f8 00 00
	00 00		 mov	 DWORD PTR tv68[ebp], 0
$L199259:

; 43   : 	}

  00036	8b e5		 mov	 esp, ebp
  00038	5d		 pop	 ebp
  00039	c3		 ret	 0
??$_Construct@PAU_Node@?$_Tree_nod@V?$_Tmap_traits@HPAVBaseDialog@@U?$less@H@std@@V?$allocator@U?$pair@$$CBHPAVBaseDialog@@@std@@@3@$0A@@std@@@std@@PAU123@@std@@YAXPAPAU_Node@?$_Tree_nod@V?$_Tmap_traits@HPAVBaseDialog@@U?$less@H@std@@V?$allocator@U?$pair@$$CBHPAVBaseDialog@@@std@@@3@$0A@@std@@@0@ABQAU120@@Z ENDP ; std::_Construct<std::_Tree_nod<std::_Tmap_traits<int,BaseDialog *,std::less<int>,std::allocator<std::pair<int const ,BaseDialog *> >,0> >::_Node *,std::_Tree_nod<std::_Tmap_traits<int,BaseDialog *,std::less<int>,std::allocator<std::pair<int const ,BaseDialog *> >,0> >::_Node *>
; Function compile flags: /Odt
_TEXT	ENDS
;	COMDAT ??_ECConfigDialog@@WEOI@AEPAXI@Z
_TEXT	SEGMENT
??_ECConfigDialog@@WEOI@AEPAXI@Z PROC NEAR		; [thunk]:CConfigDialog::`vector deleting destructor', COMDAT
  00000	81 e9 e8 04 00
	00		 sub	 ecx, 1256		; 000004e8H
  00006	e9 00 00 00 00	 jmp	 ??_ECConfigDialog@@UAEPAXI@Z
??_ECConfigDialog@@WEOI@AEPAXI@Z ENDP			; [thunk]:CConfigDialog::`vector deleting destructor'
; Function compile flags: /Odt
; File d:\program files (x86)\microsoft visual studio .net 2003\vc7\atlmfc\include\atltypes.inl
_TEXT	ENDS
;	COMDAT ??0CRect@@QAE@XZ
_TEXT	SEGMENT
_this$ = -4						; size = 4
??0CRect@@QAE@XZ PROC NEAR				; CRect::CRect, COMDAT
; _this$ = ecx

; 110  : 	{ /* random filled */ }

  00000	55		 push	 ebp
  00001	8b ec		 mov	 ebp, esp
  00003	51		 push	 ecx
  00004	89 4d fc	 mov	 DWORD PTR _this$[ebp], ecx
  00007	8b 45 fc	 mov	 eax, DWORD PTR _this$[ebp]
  0000a	8b e5		 mov	 esp, ebp
  0000c	5d		 pop	 ebp
  0000d	c3		 ret	 0
??0CRect@@QAE@XZ ENDP					; CRect::CRect
; Function compile flags: /Odt
_TEXT	ENDS
;	COMDAT ??0CRect@@QAE@HHHH@Z
_TEXT	SEGMENT
_this$ = -4						; size = 4
_l$ = 8							; size = 4
_t$ = 12						; size = 4
_r$ = 16						; size = 4
_b$ = 20						; size = 4
??0CRect@@QAE@HHHH@Z PROC NEAR				; CRect::CRect, COMDAT
; _this$ = ecx

; 112  : 	{ left = l; top = t; right = r; bottom = b; }

  00000	55		 push	 ebp
  00001	8b ec		 mov	 ebp, esp
  00003	51		 push	 ecx
  00004	89 4d fc	 mov	 DWORD PTR _this$[ebp], ecx
  00007	8b 45 fc	 mov	 eax, DWORD PTR _this$[ebp]
  0000a	8b 4d 08	 mov	 ecx, DWORD PTR _l$[ebp]
  0000d	89 08		 mov	 DWORD PTR [eax], ecx
  0000f	8b 55 fc	 mov	 edx, DWORD PTR _this$[ebp]
  00012	8b 45 0c	 mov	 eax, DWORD PTR _t$[ebp]
  00015	89 42 04	 mov	 DWORD PTR [edx+4], eax
  00018	8b 4d fc	 mov	 ecx, DWORD PTR _this$[ebp]
  0001b	8b 55 10	 mov	 edx, DWORD PTR _r$[ebp]
  0001e	89 51 08	 mov	 DWORD PTR [ecx+8], edx
  00021	8b 45 fc	 mov	 eax, DWORD PTR _this$[ebp]
  00024	8b 4d 14	 mov	 ecx, DWORD PTR _b$[ebp]
  00027	89 48 0c	 mov	 DWORD PTR [eax+12], ecx
  0002a	8b 45 fc	 mov	 eax, DWORD PTR _this$[ebp]
  0002d	8b e5		 mov	 esp, ebp
  0002f	5d		 pop	 ebp
  00030	c2 10 00	 ret	 16			; 00000010H
??0CRect@@QAE@HHHH@Z ENDP				; CRect::CRect
; Function compile flags: /Odt
_TEXT	ENDS
;	COMDAT ?Height@CRect@@QBEHXZ
_TEXT	SEGMENT
_this$ = -4						; size = 4
?Height@CRect@@QBEHXZ PROC NEAR				; CRect::Height, COMDAT
; _this$ = ecx

; 125  : 	{ return bottom - top; }

  00000	55		 push	 ebp
  00001	8b ec		 mov	 ebp, esp
  00003	51		 push	 ecx
  00004	89 4d fc	 mov	 DWORD PTR _this$[ebp], ecx
  00007	8b 45 fc	 mov	 eax, DWORD PTR _this$[ebp]
  0000a	8b 4d fc	 mov	 ecx, DWORD PTR _this$[ebp]
  0000d	8b 40 0c	 mov	 eax, DWORD PTR [eax+12]
  00010	2b 41 04	 sub	 eax, DWORD PTR [ecx+4]
  00013	8b e5		 mov	 esp, ebp
  00015	5d		 pop	 ebp
  00016	c3		 ret	 0
?Height@CRect@@QBEHXZ ENDP				; CRect::Height
; Function compile flags: /Odt
_TEXT	ENDS
;	COMDAT ??BCRect@@QAEPAUtagRECT@@XZ
_TEXT	SEGMENT
_this$ = -4						; size = 4
??BCRect@@QAEPAUtagRECT@@XZ PROC NEAR			; CRect::operator tagRECT *, COMDAT
; _this$ = ecx

; 143  : 	{ return this; }

  00000	55		 push	 ebp
  00001	8b ec		 mov	 ebp, esp
  00003	51		 push	 ecx
  00004	89 4d fc	 mov	 DWORD PTR _this$[ebp], ecx
  00007	8b 45 fc	 mov	 eax, DWORD PTR _this$[ebp]
  0000a	8b e5		 mov	 esp, ebp
  0000c	5d		 pop	 ebp
  0000d	c3		 ret	 0
??BCRect@@QAEPAUtagRECT@@XZ ENDP			; CRect::operator tagRECT *
; Function compile flags: /Odt
; File d:\program files (x86)\microsoft visual studio .net 2003\vc7\atlmfc\include\afx.inl
_TEXT	ENDS
;	COMDAT ?Serialize@CObject@@UAEXAAVCArchive@@@Z
_TEXT	SEGMENT
_this$ = -4						; size = 4
___formal$ = 8						; size = 4
?Serialize@CObject@@UAEXAAVCArchive@@@Z PROC NEAR	; CObject::Serialize, COMDAT
; _this$ = ecx

; 25   : 	{ /* CObject does not serialize anything by default */ }

  00000	55		 push	 ebp
  00001	8b ec		 mov	 ebp, esp
  00003	51		 push	 ecx
  00004	89 4d fc	 mov	 DWORD PTR _this$[ebp], ecx
  00007	8b e5		 mov	 esp, ebp
  00009	5d		 pop	 ebp
  0000a	c2 04 00	 ret	 4
?Serialize@CObject@@UAEXAAVCArchive@@@Z ENDP		; CObject::Serialize
; Function compile flags: /Odt
_TEXT	ENDS
;	COMDAT ??3CObject@@SGXPAX@Z
_TEXT	SEGMENT
_p$ = 8							; size = 4
??3CObject@@SGXPAX@Z PROC NEAR				; CObject::operator delete, COMDAT

; 31   : 	{ ::operator delete(p); }

  00000	55		 push	 ebp
  00001	8b ec		 mov	 ebp, esp
  00003	8b 45 08	 mov	 eax, DWORD PTR _p$[ebp]
  00006	50		 push	 eax
  00007	e8 00 00 00 00	 call	 ??3@YAXPAX@Z		; operator delete
  0000c	83 c4 04	 add	 esp, 4
  0000f	5d		 pop	 ebp
  00010	c2 04 00	 ret	 4
??3CObject@@SGXPAX@Z ENDP				; CObject::operator delete
; Function compile flags: /Odt
_TEXT	ENDS
;	COMDAT ?AssertValid@CObject@@UBEXXZ
_TEXT	SEGMENT
_this$ = -4						; size = 4
?AssertValid@CObject@@UBEXXZ PROC NEAR			; CObject::AssertValid, COMDAT
; _this$ = ecx

; 41   : 	{ /* no asserts in release builds */ }

  00000	55		 push	 ebp
  00001	8b ec		 mov	 ebp, esp
  00003	51		 push	 ecx
  00004	89 4d fc	 mov	 DWORD PTR _this$[ebp], ecx
  00007	8b e5		 mov	 esp, ebp
  00009	5d		 pop	 ebp
  0000a	c3		 ret	 0
?AssertValid@CObject@@UBEXXZ ENDP			; CObject::AssertValid
; Function compile flags: /Odt
_TEXT	ENDS
;	COMDAT ?Dump@CObject@@UBEXAAVCDumpContext@@@Z
_TEXT	SEGMENT
_this$ = -4						; size = 4
___formal$ = 8						; size = 4
?Dump@CObject@@UBEXAAVCDumpContext@@@Z PROC NEAR	; CObject::Dump, COMDAT
; _this$ = ecx

; 43   : 	{ /* no dumping in release builds */ }

  00000	55		 push	 ebp
  00001	8b ec		 mov	 ebp, esp
  00003	51		 push	 ecx
  00004	89 4d fc	 mov	 DWORD PTR _this$[ebp], ecx
  00007	8b e5		 mov	 esp, ebp
  00009	5d		 pop	 ebp
  0000a	c2 04 00	 ret	 4
?Dump@CObject@@UBEXAAVCDumpContext@@@Z ENDP		; CObject::Dump
; Function compile flags: /Odt
; File d:\program files (x86)\microsoft visual studio .net 2003\vc7\atlmfc\include\afxwin2.inl
_TEXT	ENDS
;	COMDAT ?SendMessageA@CWnd@@QAEJIIJ@Z
_TEXT	SEGMENT
_this$ = -4						; size = 4
_message$ = 8						; size = 4
_wParam$ = 12						; size = 4
_lParam$ = 16						; size = 4
?SendMessageA@CWnd@@QAEJIIJ@Z PROC NEAR			; CWnd::SendMessageA, COMDAT
; _this$ = ecx

; 44   : 	{ ASSERT(::IsWindow(m_hWnd)); return ::SendMessage(m_hWnd, message, wParam, lParam); }

  00000	55		 push	 ebp
  00001	8b ec		 mov	 ebp, esp
  00003	51		 push	 ecx
  00004	89 4d fc	 mov	 DWORD PTR _this$[ebp], ecx
  00007	8b 45 10	 mov	 eax, DWORD PTR _lParam$[ebp]
  0000a	50		 push	 eax
  0000b	8b 4d 0c	 mov	 ecx, DWORD PTR _wParam$[ebp]
  0000e	51		 push	 ecx
  0000f	8b 55 08	 mov	 edx, DWORD PTR _message$[ebp]
  00012	52		 push	 edx
  00013	8b 45 fc	 mov	 eax, DWORD PTR _this$[ebp]
  00016	8b 48 20	 mov	 ecx, DWORD PTR [eax+32]
  00019	51		 push	 ecx
  0001a	ff 15 00 00 00
	00		 call	 DWORD PTR __imp__SendMessageA@16
  00020	8b e5		 mov	 esp, ebp
  00022	5d		 pop	 ebp
  00023	c2 0c 00	 ret	 12			; 0000000cH
?SendMessageA@CWnd@@QAEJIIJ@Z ENDP			; CWnd::SendMessageA
_TEXT	ENDS
EXTRN	?MoveWindow@CWnd@@QAEXHHHHH@Z:NEAR		; CWnd::MoveWindow
; Function compile flags: /Odt
;	COMDAT ?MoveWindow@CWnd@@QAEXPBUtagRECT@@H@Z
_TEXT	SEGMENT
_this$ = -4						; size = 4
_lpRect$ = 8						; size = 4
_bRepaint$ = 12						; size = 4
?MoveWindow@CWnd@@QAEXPBUtagRECT@@H@Z PROC NEAR		; CWnd::MoveWindow, COMDAT
; _this$ = ecx

; 89   : 	{ MoveWindow(lpRect->left, lpRect->top, lpRect->right - lpRect->left,

  00000	55		 push	 ebp
  00001	8b ec		 mov	 ebp, esp
  00003	51		 push	 ecx
  00004	89 4d fc	 mov	 DWORD PTR _this$[ebp], ecx

; 90   : 		lpRect->bottom - lpRect->top, bRepaint); }

  00007	8b 45 0c	 mov	 eax, DWORD PTR _bRepaint$[ebp]
  0000a	50		 push	 eax
  0000b	8b 4d 08	 mov	 ecx, DWORD PTR _lpRect$[ebp]
  0000e	8b 55 08	 mov	 edx, DWORD PTR _lpRect$[ebp]
  00011	8b 41 0c	 mov	 eax, DWORD PTR [ecx+12]
  00014	2b 42 04	 sub	 eax, DWORD PTR [edx+4]
  00017	50		 push	 eax
  00018	8b 4d 08	 mov	 ecx, DWORD PTR _lpRect$[ebp]
  0001b	8b 55 08	 mov	 edx, DWORD PTR _lpRect$[ebp]
  0001e	8b 41 08	 mov	 eax, DWORD PTR [ecx+8]
  00021	2b 02		 sub	 eax, DWORD PTR [edx]
  00023	50		 push	 eax
  00024	8b 4d 08	 mov	 ecx, DWORD PTR _lpRect$[ebp]
  00027	8b 51 04	 mov	 edx, DWORD PTR [ecx+4]
  0002a	52		 push	 edx
  0002b	8b 45 08	 mov	 eax, DWORD PTR _lpRect$[ebp]
  0002e	8b 08		 mov	 ecx, DWORD PTR [eax]
  00030	51		 push	 ecx
  00031	8b 4d fc	 mov	 ecx, DWORD PTR _this$[ebp]
  00034	e8 00 00 00 00	 call	 ?MoveWindow@CWnd@@QAEXHHHHH@Z ; CWnd::MoveWindow
  00039	8b e5		 mov	 esp, ebp
  0003b	5d		 pop	 ebp
  0003c	c2 08 00	 ret	 8
?MoveWindow@CWnd@@QAEXPBUtagRECT@@H@Z ENDP		; CWnd::MoveWindow
_TEXT	ENDS
EXTRN	__imp__GetWindowRect@8:NEAR
; Function compile flags: /Odt
;	COMDAT ?GetWindowRect@CWnd@@QBEXPAUtagRECT@@@Z
_TEXT	SEGMENT
_this$ = -4						; size = 4
_lpRect$ = 8						; size = 4
?GetWindowRect@CWnd@@QBEXPAUtagRECT@@@Z PROC NEAR	; CWnd::GetWindowRect, COMDAT
; _this$ = ecx

; 105  : 	{ ASSERT(::IsWindow(m_hWnd)); ::GetWindowRect(m_hWnd, lpRect); }

  00000	55		 push	 ebp
  00001	8b ec		 mov	 ebp, esp
  00003	51		 push	 ecx
  00004	89 4d fc	 mov	 DWORD PTR _this$[ebp], ecx
  00007	8b 45 08	 mov	 eax, DWORD PTR _lpRect$[ebp]
  0000a	50		 push	 eax
  0000b	8b 4d fc	 mov	 ecx, DWORD PTR _this$[ebp]
  0000e	8b 51 20	 mov	 edx, DWORD PTR [ecx+32]
  00011	52		 push	 edx
  00012	ff 15 00 00 00
	00		 call	 DWORD PTR __imp__GetWindowRect@8
  00018	8b e5		 mov	 esp, ebp
  0001a	5d		 pop	 ebp
  0001b	c2 04 00	 ret	 4
?GetWindowRect@CWnd@@QBEXPAUtagRECT@@@Z ENDP		; CWnd::GetWindowRect
_TEXT	ENDS
EXTRN	__imp__GetClientRect@8:NEAR
; Function compile flags: /Odt
;	COMDAT ?GetClientRect@CWnd@@QBEXPAUtagRECT@@@Z
_TEXT	SEGMENT
_this$ = -4						; size = 4
_lpRect$ = 8						; size = 4
?GetClientRect@CWnd@@QBEXPAUtagRECT@@@Z PROC NEAR	; CWnd::GetClientRect, COMDAT
; _this$ = ecx

; 107  : 	{ ASSERT(::IsWindow(m_hWnd)); ::GetClientRect(m_hWnd, lpRect); }

  00000	55		 push	 ebp
  00001	8b ec		 mov	 ebp, esp
  00003	51		 push	 ecx
  00004	89 4d fc	 mov	 DWORD PTR _this$[ebp], ecx
  00007	8b 45 08	 mov	 eax, DWORD PTR _lpRect$[ebp]
  0000a	50		 push	 eax
  0000b	8b 4d fc	 mov	 ecx, DWORD PTR _this$[ebp]
  0000e	8b 51 20	 mov	 edx, DWORD PTR [ecx+32]
  00011	52		 push	 edx
  00012	ff 15 00 00 00
	00		 call	 DWORD PTR __imp__GetClientRect@8
  00018	8b e5		 mov	 esp, ebp
  0001a	5d		 pop	 ebp
  0001b	c2 04 00	 ret	 4
?GetClientRect@CWnd@@QBEXPAUtagRECT@@@Z ENDP		; CWnd::GetClientRect
_TEXT	ENDS
EXTRN	__imp__ScreenToClient@8:NEAR
; Function compile flags: /Odt
;	COMDAT ?ScreenToClient@CWnd@@QBEXPAUtagPOINT@@@Z
_TEXT	SEGMENT
_this$ = -4						; size = 4
_lpPoint$ = 8						; size = 4
?ScreenToClient@CWnd@@QBEXPAUtagPOINT@@@Z PROC NEAR	; CWnd::ScreenToClient, COMDAT
; _this$ = ecx

; 115  : 	{ ASSERT(::IsWindow(m_hWnd)); ::ScreenToClient(m_hWnd, lpPoint); }

  00000	55		 push	 ebp
  00001	8b ec		 mov	 ebp, esp
  00003	51		 push	 ecx
  00004	89 4d fc	 mov	 DWORD PTR _this$[ebp], ecx
  00007	8b 45 08	 mov	 eax, DWORD PTR _lpPoint$[ebp]
  0000a	50		 push	 eax
  0000b	8b 4d fc	 mov	 ecx, DWORD PTR _this$[ebp]
  0000e	8b 51 20	 mov	 edx, DWORD PTR [ecx+32]
  00011	52		 push	 edx
  00012	ff 15 00 00 00
	00		 call	 DWORD PTR __imp__ScreenToClient@8
  00018	8b e5		 mov	 esp, ebp
  0001a	5d		 pop	 ebp
  0001b	c2 04 00	 ret	 4
?ScreenToClient@CWnd@@QBEXPAUtagPOINT@@@Z ENDP		; CWnd::ScreenToClient
; Function compile flags: /Odt
_TEXT	ENDS
;	COMDAT ?DoDataExchange@CWnd@@MAEXPAVCDataExchange@@@Z
_TEXT	SEGMENT
_this$ = -4						; size = 4
___formal$ = 8						; size = 4
?DoDataExchange@CWnd@@MAEXPAVCDataExchange@@@Z PROC NEAR ; CWnd::DoDataExchange, COMDAT
; _this$ = ecx

; 545  : 	{ } // default does nothing

  00000	55		 push	 ebp
  00001	8b ec		 mov	 ebp, esp
  00003	51		 push	 ecx
  00004	89 4d fc	 mov	 DWORD PTR _this$[ebp], ecx
  00007	8b e5		 mov	 esp, ebp
  00009	5d		 pop	 ebp
  0000a	c2 04 00	 ret	 4
?DoDataExchange@CWnd@@MAEXPAVCDataExchange@@@Z ENDP	; CWnd::DoDataExchange
_TEXT	ENDS
EXTRN	__imp__EnableWindow@8:NEAR
; Function compile flags: /Odt
;	COMDAT ?BeginModalState@CWnd@@UAEXXZ
_TEXT	SEGMENT
_this$ = -4						; size = 4
?BeginModalState@CWnd@@UAEXXZ PROC NEAR			; CWnd::BeginModalState, COMDAT
; _this$ = ecx

; 549  : 	{ ::EnableWindow(m_hWnd, FALSE); }

  00000	55		 push	 ebp
  00001	8b ec		 mov	 ebp, esp
  00003	51		 push	 ecx
  00004	89 4d fc	 mov	 DWORD PTR _this$[ebp], ecx
  00007	6a 00		 push	 0
  00009	8b 45 fc	 mov	 eax, DWORD PTR _this$[ebp]
  0000c	8b 48 20	 mov	 ecx, DWORD PTR [eax+32]
  0000f	51		 push	 ecx
  00010	ff 15 00 00 00
	00		 call	 DWORD PTR __imp__EnableWindow@8
  00016	8b e5		 mov	 esp, ebp
  00018	5d		 pop	 ebp
  00019	c3		 ret	 0
?BeginModalState@CWnd@@UAEXXZ ENDP			; CWnd::BeginModalState
; Function compile flags: /Odt
_TEXT	ENDS
;	COMDAT ?EndModalState@CWnd@@UAEXXZ
_TEXT	SEGMENT
_this$ = -4						; size = 4
?EndModalState@CWnd@@UAEXXZ PROC NEAR			; CWnd::EndModalState, COMDAT
; _this$ = ecx

; 551  : 	{ ::EnableWindow(m_hWnd, TRUE); }

  00000	55		 push	 ebp
  00001	8b ec		 mov	 ebp, esp
  00003	51		 push	 ecx
  00004	89 4d fc	 mov	 DWORD PTR _this$[ebp], ecx
  00007	6a 01		 push	 1
  00009	8b 45 fc	 mov	 eax, DWORD PTR _this$[ebp]
  0000c	8b 48 20	 mov	 ecx, DWORD PTR [eax+32]
  0000f	51		 push	 ecx
  00010	ff 15 00 00 00
	00		 call	 DWORD PTR __imp__EnableWindow@8
  00016	8b e5		 mov	 esp, ebp
  00018	5d		 pop	 ebp
  00019	c3		 ret	 0
?EndModalState@CWnd@@UAEXXZ ENDP			; CWnd::EndModalState
; Function compile flags: /Odt
_TEXT	ENDS
;	COMDAT ?Create@CDialog@@UAEHIPAVCWnd@@@Z
_TEXT	SEGMENT
_this$ = -4						; size = 4
_nIDTemplate$ = 8					; size = 4
_pParentWnd$ = 12					; size = 4
?Create@CDialog@@UAEHIPAVCWnd@@@Z PROC NEAR		; CDialog::Create, COMDAT
; _this$ = ecx

; 569  : 	{ return Create(MAKEINTRESOURCE(nIDTemplate), pParentWnd); }

  00000	55		 push	 ebp
  00001	8b ec		 mov	 ebp, esp
  00003	51		 push	 ecx
  00004	89 4d fc	 mov	 DWORD PTR _this$[ebp], ecx
  00007	8b 45 0c	 mov	 eax, DWORD PTR _pParentWnd$[ebp]
  0000a	50		 push	 eax
  0000b	0f b7 4d 08	 movzx	 ecx, WORD PTR _nIDTemplate$[ebp]
  0000f	51		 push	 ecx
  00010	8b 55 fc	 mov	 edx, DWORD PTR _this$[ebp]
  00013	8b 02		 mov	 eax, DWORD PTR [edx]
  00015	8b 4d fc	 mov	 ecx, DWORD PTR _this$[ebp]
  00018	ff 90 3c 01 00
	00		 call	 DWORD PTR [eax+316]
  0001e	8b e5		 mov	 esp, ebp
  00020	5d		 pop	 ebp
  00021	c2 08 00	 ret	 8
?Create@CDialog@@UAEHIPAVCWnd@@@Z ENDP			; CDialog::Create
; Function compile flags: /Odt
; File d:\program files (x86)\microsoft visual studio .net 2003\vc7\include\stdexcept
_TEXT	ENDS
;	COMDAT ?what@logic_error@std@@UBEPBDXZ
_TEXT	SEGMENT
_this$ = -4						; size = 4
?what@logic_error@std@@UBEPBDXZ PROC NEAR		; std::logic_error::what, COMDAT
; _this$ = ecx

; 26   : 		{	// return pointer to message string

  00000	55		 push	 ebp
  00001	8b ec		 mov	 ebp, esp
  00003	51		 push	 ecx
  00004	89 4d fc	 mov	 DWORD PTR _this$[ebp], ecx

; 27   : 		return (_Str.c_str());

  00007	8b 4d fc	 mov	 ecx, DWORD PTR _this$[ebp]
  0000a	83 c1 0c	 add	 ecx, 12			; 0000000cH
  0000d	ff 15 00 00 00
	00		 call	 DWORD PTR __imp_?c_str@?$basic_string@DU?$char_traits@D@std@@V?$allocator@D@2@@std@@QBEPBDXZ

; 28   : 		}

  00013	8b e5		 mov	 esp, ebp
  00015	5d		 pop	 ebp
  00016	c3		 ret	 0
?what@logic_error@std@@UBEPBDXZ ENDP			; std::logic_error::what
_TEXT	ENDS
PUBLIC	??0logic_error@std@@QAE@ABV?$basic_string@DU?$char_traits@D@std@@V?$allocator@D@2@@1@@Z ; std::logic_error::logic_error
; Function compile flags: /Odt
;	COMDAT ??0length_error@std@@QAE@ABV?$basic_string@DU?$char_traits@D@std@@V?$allocator@D@2@@1@@Z
_TEXT	SEGMENT
_this$ = -4						; size = 4
__Message$ = 8						; size = 4
??0length_error@std@@QAE@ABV?$basic_string@DU?$char_traits@D@std@@V?$allocator@D@2@@1@@Z PROC NEAR ; std::length_error::length_error, COMDAT
; _this$ = ecx

; 95   : 		{	// construct from message string

  00000	55		 push	 ebp
  00001	8b ec		 mov	 ebp, esp
  00003	51		 push	 ecx
  00004	89 4d fc	 mov	 DWORD PTR _this$[ebp], ecx
  00007	8b 45 08	 mov	 eax, DWORD PTR __Message$[ebp]
  0000a	50		 push	 eax
  0000b	8b 4d fc	 mov	 ecx, DWORD PTR _this$[ebp]
  0000e	e8 00 00 00 00	 call	 ??0logic_error@std@@QAE@ABV?$basic_string@DU?$char_traits@D@std@@V?$allocator@D@2@@1@@Z ; std::logic_error::logic_error
  00013	8b 4d fc	 mov	 ecx, DWORD PTR _this$[ebp]
  00016	c7 01 00 00 00
	00		 mov	 DWORD PTR [ecx], OFFSET FLAT:??_7length_error@std@@6B@

; 96   : 		}

  0001c	8b 45 fc	 mov	 eax, DWORD PTR _this$[ebp]
  0001f	8b e5		 mov	 esp, ebp
  00021	5d		 pop	 ebp
  00022	c2 04 00	 ret	 4
??0length_error@std@@QAE@ABV?$basic_string@DU?$char_traits@D@std@@V?$allocator@D@2@@1@@Z ENDP ; std::length_error::length_error
_TEXT	ENDS
PUBLIC	??_R4logic_error@std@@6B@			; std::logic_error::`RTTI Complete Object Locator'
PUBLIC	??_R3logic_error@std@@8				; std::logic_error::`RTTI Class Hierarchy Descriptor'
PUBLIC	??_R2logic_error@std@@8				; std::logic_error::`RTTI Base Class Array'
PUBLIC	??_7logic_error@std@@6B@			; std::logic_error::`vftable'
PUBLIC	??_Glogic_error@std@@UAEPAXI@Z			; std::logic_error::`scalar deleting destructor'
EXTRN	__imp_??0exception@@QAE@XZ:NEAR
EXTRN	__imp_??1exception@@UAE@XZ:NEAR
EXTRN	__imp_??0?$basic_string@DU?$char_traits@D@std@@V?$allocator@D@2@@std@@QAE@ABV01@@Z:NEAR
EXTRN	??_Elogic_error@std@@UAEPAXI@Z:NEAR		; std::logic_error::`vector deleting destructor'
;	COMDAT xdata$x
xdata$x	SEGMENT
$T200167 DD	0ffffffffH
	DD	FLAT:$L200162
$T200165 DD	019930520H
	DD	01H
	DD	FLAT:$T200167
	DD	2 DUP(00H)
	DD	2 DUP(00H)
xdata$x	ENDS
;	COMDAT ??_7logic_error@std@@6B@
CONST	SEGMENT
??_7logic_error@std@@6B@ DD FLAT:??_R4logic_error@std@@6B@ ; std::logic_error::`vftable'
	DD	FLAT:??_Elogic_error@std@@UAEPAXI@Z
	DD	FLAT:?what@logic_error@std@@UBEPBDXZ
CONST	ENDS
;	COMDAT ??_R4logic_error@std@@6B@
rdata$r	SEGMENT
??_R4logic_error@std@@6B@ DD 00H			; std::logic_error::`RTTI Complete Object Locator'
	DD	00H
	DD	00H
	DD	FLAT:??_R0?AVlogic_error@std@@@8
	DD	FLAT:??_R3logic_error@std@@8
rdata$r	ENDS
;	COMDAT ??_R3logic_error@std@@8
rdata$r	SEGMENT
??_R3logic_error@std@@8 DD 00H				; std::logic_error::`RTTI Class Hierarchy Descriptor'
	DD	00H
	DD	02H
	DD	FLAT:??_R2logic_error@std@@8
rdata$r	ENDS
;	COMDAT ??_R2logic_error@std@@8
rdata$r	SEGMENT
??_R2logic_error@std@@8 DD FLAT:??_R1A@?0A@A@logic_error@std@@8 ; std::logic_error::`RTTI Base Class Array'
	DD	FLAT:??_R1A@?0A@A@exception@@8
; Function compile flags: /Odt
rdata$r	ENDS
;	COMDAT ??0logic_error@std@@QAE@ABV?$basic_string@DU?$char_traits@D@std@@V?$allocator@D@2@@1@@Z
_TEXT	SEGMENT
_this$ = -16						; size = 4
__$EHRec$ = -12						; size = 12
__Message$ = 8						; size = 4
??0logic_error@std@@QAE@ABV?$basic_string@DU?$char_traits@D@std@@V?$allocator@D@2@@1@@Z PROC NEAR ; std::logic_error::logic_error, COMDAT
; _this$ = ecx

; 19   : 		{	// construct from message string

  00000	55		 push	 ebp
  00001	8b ec		 mov	 ebp, esp
  00003	6a ff		 push	 -1
  00005	68 00 00 00 00	 push	 __ehhandler$??0logic_error@std@@QAE@ABV?$basic_string@DU?$char_traits@D@std@@V?$allocator@D@2@@1@@Z
  0000a	64 a1 00 00 00
	00		 mov	 eax, DWORD PTR fs:__except_list
  00010	50		 push	 eax
  00011	64 89 25 00 00
	00 00		 mov	 DWORD PTR fs:__except_list, esp
  00018	51		 push	 ecx
  00019	89 4d f0	 mov	 DWORD PTR _this$[ebp], ecx
  0001c	8b 4d f0	 mov	 ecx, DWORD PTR _this$[ebp]
  0001f	ff 15 00 00 00
	00		 call	 DWORD PTR __imp_??0exception@@QAE@XZ
  00025	c7 45 fc 00 00
	00 00		 mov	 DWORD PTR __$EHRec$[ebp+8], 0
  0002c	8b 45 f0	 mov	 eax, DWORD PTR _this$[ebp]
  0002f	c7 00 00 00 00
	00		 mov	 DWORD PTR [eax], OFFSET FLAT:??_7logic_error@std@@6B@
  00035	8b 4d 08	 mov	 ecx, DWORD PTR __Message$[ebp]
  00038	51		 push	 ecx
  00039	8b 4d f0	 mov	 ecx, DWORD PTR _this$[ebp]
  0003c	83 c1 0c	 add	 ecx, 12			; 0000000cH
  0003f	ff 15 00 00 00
	00		 call	 DWORD PTR __imp_??0?$basic_string@DU?$char_traits@D@std@@V?$allocator@D@2@@std@@QAE@ABV01@@Z

; 20   : 		}

  00045	c7 45 fc ff ff
	ff ff		 mov	 DWORD PTR __$EHRec$[ebp+8], -1
  0004c	8b 45 f0	 mov	 eax, DWORD PTR _this$[ebp]
  0004f	8b 4d f4	 mov	 ecx, DWORD PTR __$EHRec$[ebp]
  00052	64 89 0d 00 00
	00 00		 mov	 DWORD PTR fs:__except_list, ecx
  00059	8b e5		 mov	 esp, ebp
  0005b	5d		 pop	 ebp
  0005c	c2 04 00	 ret	 4
_TEXT	ENDS
;	COMDAT text$x
text$x	SEGMENT
$L200162:
  00000	8b 4d f0	 mov	 ecx, DWORD PTR _this$[ebp]
  00003	ff 25 00 00 00
	00		 jmp	 DWORD PTR __imp_??1exception@@UAE@XZ
__ehhandler$??0logic_error@std@@QAE@ABV?$basic_string@DU?$char_traits@D@std@@V?$allocator@D@2@@1@@Z:
  00009	b8 00 00 00 00	 mov	 eax, OFFSET FLAT:$T200165
  0000e	e9 00 00 00 00	 jmp	 ___CxxFrameHandler
text$x	ENDS
??0logic_error@std@@QAE@ABV?$basic_string@DU?$char_traits@D@std@@V?$allocator@D@2@@1@@Z ENDP ; std::logic_error::logic_error
PUBLIC	??1logic_error@std@@UAE@XZ			; std::logic_error::~logic_error
; Function compile flags: /Odt
;	COMDAT ??_Glogic_error@std@@UAEPAXI@Z
_TEXT	SEGMENT
_this$ = -4						; size = 4
___flags$ = 8						; size = 4
??_Glogic_error@std@@UAEPAXI@Z PROC NEAR		; std::logic_error::`scalar deleting destructor', COMDAT
; _this$ = ecx
  00000	55		 push	 ebp
  00001	8b ec		 mov	 ebp, esp
  00003	51		 push	 ecx
  00004	89 4d fc	 mov	 DWORD PTR _this$[ebp], ecx
  00007	8b 4d fc	 mov	 ecx, DWORD PTR _this$[ebp]
  0000a	e8 00 00 00 00	 call	 ??1logic_error@std@@UAE@XZ ; std::logic_error::~logic_error
  0000f	8b 45 08	 mov	 eax, DWORD PTR ___flags$[ebp]
  00012	83 e0 01	 and	 eax, 1
  00015	74 0c		 je	 SHORT $L102266
  00017	8b 4d fc	 mov	 ecx, DWORD PTR _this$[ebp]
  0001a	51		 push	 ecx
  0001b	e8 00 00 00 00	 call	 ??3@YAXPAX@Z		; operator delete
  00020	83 c4 04	 add	 esp, 4
$L102266:
  00023	8b 45 fc	 mov	 eax, DWORD PTR _this$[ebp]
  00026	8b e5		 mov	 esp, ebp
  00028	5d		 pop	 ebp
  00029	c2 04 00	 ret	 4
??_Glogic_error@std@@UAEPAXI@Z ENDP			; std::logic_error::`scalar deleting destructor'
_TEXT	ENDS
;	COMDAT xdata$x
xdata$x	SEGMENT
$T200179 DD	0ffffffffH
	DD	FLAT:$L200174
$T200177 DD	019930520H
	DD	01H
	DD	FLAT:$T200179
	DD	2 DUP(00H)
	DD	2 DUP(00H)
; Function compile flags: /Odt
xdata$x	ENDS
;	COMDAT ??1logic_error@std@@UAE@XZ
_TEXT	SEGMENT
_this$ = -16						; size = 4
__$EHRec$ = -12						; size = 12
??1logic_error@std@@UAE@XZ PROC NEAR			; std::logic_error::~logic_error, COMDAT
; _this$ = ecx

; 23   : 		{}	// destroy the object

  00000	55		 push	 ebp
  00001	8b ec		 mov	 ebp, esp
  00003	6a ff		 push	 -1
  00005	68 00 00 00 00	 push	 __ehhandler$??1logic_error@std@@UAE@XZ
  0000a	64 a1 00 00 00
	00		 mov	 eax, DWORD PTR fs:__except_list
  00010	50		 push	 eax
  00011	64 89 25 00 00
	00 00		 mov	 DWORD PTR fs:__except_list, esp
  00018	51		 push	 ecx
  00019	89 4d f0	 mov	 DWORD PTR _this$[ebp], ecx
  0001c	8b 45 f0	 mov	 eax, DWORD PTR _this$[ebp]
  0001f	c7 00 00 00 00
	00		 mov	 DWORD PTR [eax], OFFSET FLAT:??_7logic_error@std@@6B@
  00025	c7 45 fc 00 00
	00 00		 mov	 DWORD PTR __$EHRec$[ebp+8], 0
  0002c	8b 4d f0	 mov	 ecx, DWORD PTR _this$[ebp]
  0002f	83 c1 0c	 add	 ecx, 12			; 0000000cH
  00032	ff 15 00 00 00
	00		 call	 DWORD PTR __imp_??1?$basic_string@DU?$char_traits@D@std@@V?$allocator@D@2@@std@@QAE@XZ
  00038	c7 45 fc ff ff
	ff ff		 mov	 DWORD PTR __$EHRec$[ebp+8], -1
  0003f	8b 4d f0	 mov	 ecx, DWORD PTR _this$[ebp]
  00042	ff 15 00 00 00
	00		 call	 DWORD PTR __imp_??1exception@@UAE@XZ
  00048	8b 4d f4	 mov	 ecx, DWORD PTR __$EHRec$[ebp]
  0004b	64 89 0d 00 00
	00 00		 mov	 DWORD PTR fs:__except_list, ecx
  00052	8b e5		 mov	 esp, ebp
  00054	5d		 pop	 ebp
  00055	c3		 ret	 0
_TEXT	ENDS
;	COMDAT text$x
text$x	SEGMENT
$L200174:
  00000	8b 4d f0	 mov	 ecx, DWORD PTR _this$[ebp]
  00003	ff 25 00 00 00
	00		 jmp	 DWORD PTR __imp_??1exception@@UAE@XZ
__ehhandler$??1logic_error@std@@UAE@XZ:
  00009	b8 00 00 00 00	 mov	 eax, OFFSET FLAT:$T200177
  0000e	e9 00 00 00 00	 jmp	 ___CxxFrameHandler
text$x	ENDS
??1logic_error@std@@UAE@XZ ENDP				; std::logic_error::~logic_error
; Function compile flags: /Odt
;	COMDAT ??1length_error@std@@UAE@XZ
_TEXT	SEGMENT
_this$ = -4						; size = 4
??1length_error@std@@UAE@XZ PROC NEAR			; std::length_error::~length_error, COMDAT
; _this$ = ecx

; 99   : 		{}	// destroy the object

  00000	55		 push	 ebp
  00001	8b ec		 mov	 ebp, esp
  00003	51		 push	 ecx
  00004	89 4d fc	 mov	 DWORD PTR _this$[ebp], ecx
  00007	8b 45 fc	 mov	 eax, DWORD PTR _this$[ebp]
  0000a	c7 00 00 00 00
	00		 mov	 DWORD PTR [eax], OFFSET FLAT:??_7length_error@std@@6B@
  00010	8b 4d fc	 mov	 ecx, DWORD PTR _this$[ebp]
  00013	e8 00 00 00 00	 call	 ??1logic_error@std@@UAE@XZ ; std::logic_error::~logic_error
  00018	8b e5		 mov	 esp, ebp
  0001a	5d		 pop	 ebp
  0001b	c3		 ret	 0
??1length_error@std@@UAE@XZ ENDP			; std::length_error::~length_error
; Function compile flags: /Odt
_TEXT	ENDS
;	COMDAT ??_Glength_error@std@@UAEPAXI@Z
_TEXT	SEGMENT
_this$ = -4						; size = 4
___flags$ = 8						; size = 4
??_Glength_error@std@@UAEPAXI@Z PROC NEAR		; std::length_error::`scalar deleting destructor', COMDAT
; _this$ = ecx
  00000	55		 push	 ebp
  00001	8b ec		 mov	 ebp, esp
  00003	51		 push	 ecx
  00004	89 4d fc	 mov	 DWORD PTR _this$[ebp], ecx
  00007	8b 4d fc	 mov	 ecx, DWORD PTR _this$[ebp]
  0000a	e8 00 00 00 00	 call	 ??1length_error@std@@UAE@XZ ; std::length_error::~length_error
  0000f	8b 45 08	 mov	 eax, DWORD PTR ___flags$[ebp]
  00012	83 e0 01	 and	 eax, 1
  00015	74 0c		 je	 SHORT $L102332
  00017	8b 4d fc	 mov	 ecx, DWORD PTR _this$[ebp]
  0001a	51		 push	 ecx
  0001b	e8 00 00 00 00	 call	 ??3@YAXPAX@Z		; operator delete
  00020	83 c4 04	 add	 esp, 4
$L102332:
  00023	8b 45 fc	 mov	 eax, DWORD PTR _this$[ebp]
  00026	8b e5		 mov	 esp, ebp
  00028	5d		 pop	 ebp
  00029	c2 04 00	 ret	 4
??_Glength_error@std@@UAEPAXI@Z ENDP			; std::length_error::`scalar deleting destructor'
_TEXT	ENDS
PUBLIC	??_R4out_of_range@std@@6B@			; std::out_of_range::`RTTI Complete Object Locator'
PUBLIC	??_R3out_of_range@std@@8			; std::out_of_range::`RTTI Class Hierarchy Descriptor'
PUBLIC	??_R2out_of_range@std@@8			; std::out_of_range::`RTTI Base Class Array'
PUBLIC	??_R1A@?0A@A@out_of_range@std@@8		; std::out_of_range::`RTTI Base Class Descriptor at (0,-1,0,0)'
PUBLIC	??_7out_of_range@std@@6B@			; std::out_of_range::`vftable'
PUBLIC	??_Gout_of_range@std@@UAEPAXI@Z			; std::out_of_range::`scalar deleting destructor'
EXTRN	??_Eout_of_range@std@@UAEPAXI@Z:NEAR		; std::out_of_range::`vector deleting destructor'
;	COMDAT ??_7out_of_range@std@@6B@
CONST	SEGMENT
??_7out_of_range@std@@6B@ DD FLAT:??_R4out_of_range@std@@6B@ ; std::out_of_range::`vftable'
	DD	FLAT:??_Eout_of_range@std@@UAEPAXI@Z
	DD	FLAT:?what@logic_error@std@@UBEPBDXZ
CONST	ENDS
;	COMDAT ??_R4out_of_range@std@@6B@
rdata$r	SEGMENT
??_R4out_of_range@std@@6B@ DD 00H			; std::out_of_range::`RTTI Complete Object Locator'
	DD	00H
	DD	00H
	DD	FLAT:??_R0?AVout_of_range@std@@@8
	DD	FLAT:??_R3out_of_range@std@@8
rdata$r	ENDS
;	COMDAT ??_R3out_of_range@std@@8
rdata$r	SEGMENT
??_R3out_of_range@std@@8 DD 00H				; std::out_of_range::`RTTI Class Hierarchy Descriptor'
	DD	00H
	DD	03H
	DD	FLAT:??_R2out_of_range@std@@8
rdata$r	ENDS
;	COMDAT ??_R2out_of_range@std@@8
rdata$r	SEGMENT
??_R2out_of_range@std@@8 DD FLAT:??_R1A@?0A@A@out_of_range@std@@8 ; std::out_of_range::`RTTI Base Class Array'
	DD	FLAT:??_R1A@?0A@A@logic_error@std@@8
	DD	FLAT:??_R1A@?0A@A@exception@@8
rdata$r	ENDS
;	COMDAT ??_R1A@?0A@A@out_of_range@std@@8
rdata$r	SEGMENT
??_R1A@?0A@A@out_of_range@std@@8 DD FLAT:??_R0?AVout_of_range@std@@@8 ; std::out_of_range::`RTTI Base Class Descriptor at (0,-1,0,0)'
	DD	02H
	DD	00H
	DD	0ffffffffH
	DD	00H
	DD	00H
; Function compile flags: /Odt
rdata$r	ENDS
;	COMDAT ??0out_of_range@std@@QAE@ABV?$basic_string@DU?$char_traits@D@std@@V?$allocator@D@2@@1@@Z
_TEXT	SEGMENT
_this$ = -4						; size = 4
__Message$ = 8						; size = 4
??0out_of_range@std@@QAE@ABV?$basic_string@DU?$char_traits@D@std@@V?$allocator@D@2@@1@@Z PROC NEAR ; std::out_of_range::out_of_range, COMDAT
; _this$ = ecx

; 118  : 		{	// construct from message string

  00000	55		 push	 ebp
  00001	8b ec		 mov	 ebp, esp
  00003	51		 push	 ecx
  00004	89 4d fc	 mov	 DWORD PTR _this$[ebp], ecx
  00007	8b 45 08	 mov	 eax, DWORD PTR __Message$[ebp]
  0000a	50		 push	 eax
  0000b	8b 4d fc	 mov	 ecx, DWORD PTR _this$[ebp]
  0000e	e8 00 00 00 00	 call	 ??0logic_error@std@@QAE@ABV?$basic_string@DU?$char_traits@D@std@@V?$allocator@D@2@@1@@Z ; std::logic_error::logic_error
  00013	8b 4d fc	 mov	 ecx, DWORD PTR _this$[ebp]
  00016	c7 01 00 00 00
	00		 mov	 DWORD PTR [ecx], OFFSET FLAT:??_7out_of_range@std@@6B@

; 119  : 		}

  0001c	8b 45 fc	 mov	 eax, DWORD PTR _this$[ebp]
  0001f	8b e5		 mov	 esp, ebp
  00021	5d		 pop	 ebp
  00022	c2 04 00	 ret	 4
??0out_of_range@std@@QAE@ABV?$basic_string@DU?$char_traits@D@std@@V?$allocator@D@2@@1@@Z ENDP ; std::out_of_range::out_of_range
; Function compile flags: /Odt
_TEXT	ENDS
;	COMDAT ??1out_of_range@std@@UAE@XZ
_TEXT	SEGMENT
_this$ = -4						; size = 4
??1out_of_range@std@@UAE@XZ PROC NEAR			; std::out_of_range::~out_of_range, COMDAT
; _this$ = ecx

; 122  : 		{}	// destroy the object

  00000	55		 push	 ebp
  00001	8b ec		 mov	 ebp, esp
  00003	51		 push	 ecx
  00004	89 4d fc	 mov	 DWORD PTR _this$[ebp], ecx
  00007	8b 45 fc	 mov	 eax, DWORD PTR _this$[ebp]
  0000a	c7 00 00 00 00
	00		 mov	 DWORD PTR [eax], OFFSET FLAT:??_7out_of_range@std@@6B@
  00010	8b 4d fc	 mov	 ecx, DWORD PTR _this$[ebp]
  00013	e8 00 00 00 00	 call	 ??1logic_error@std@@UAE@XZ ; std::logic_error::~logic_error
  00018	8b e5		 mov	 esp, ebp
  0001a	5d		 pop	 ebp
  0001b	c3		 ret	 0
??1out_of_range@std@@UAE@XZ ENDP			; std::out_of_range::~out_of_range
; Function compile flags: /Odt
_TEXT	ENDS
;	COMDAT ??_Gout_of_range@std@@UAEPAXI@Z
_TEXT	SEGMENT
_this$ = -4						; size = 4
___flags$ = 8						; size = 4
??_Gout_of_range@std@@UAEPAXI@Z PROC NEAR		; std::out_of_range::`scalar deleting destructor', COMDAT
; _this$ = ecx
  00000	55		 push	 ebp
  00001	8b ec		 mov	 ebp, esp
  00003	51		 push	 ecx
  00004	89 4d fc	 mov	 DWORD PTR _this$[ebp], ecx
  00007	8b 4d fc	 mov	 ecx, DWORD PTR _this$[ebp]
  0000a	e8 00 00 00 00	 call	 ??1out_of_range@std@@UAE@XZ ; std::out_of_range::~out_of_range
  0000f	8b 45 08	 mov	 eax, DWORD PTR ___flags$[ebp]
  00012	83 e0 01	 and	 eax, 1
  00015	74 0c		 je	 SHORT $L102354
  00017	8b 4d fc	 mov	 ecx, DWORD PTR _this$[ebp]
  0001a	51		 push	 ecx
  0001b	e8 00 00 00 00	 call	 ??3@YAXPAX@Z		; operator delete
  00020	83 c4 04	 add	 esp, 4
$L102354:
  00023	8b 45 fc	 mov	 eax, DWORD PTR _this$[ebp]
  00026	8b e5		 mov	 esp, ebp
  00028	5d		 pop	 ebp
  00029	c2 04 00	 ret	 4
??_Gout_of_range@std@@UAEPAXI@Z ENDP			; std::out_of_range::`scalar deleting destructor'
; Function compile flags: /Odt
; File d:\boxgit\playbox\playbox\dev\prj\playbox\src\core\imessageobserver.h
_TEXT	ENDS
;	COMDAT ??1IMessageObserver@@UAE@XZ
_TEXT	SEGMENT
_this$ = -4						; size = 4
??1IMessageObserver@@UAE@XZ PROC NEAR			; IMessageObserver::~IMessageObserver, COMDAT
; _this$ = ecx

; 16   : 	virtual ~IMessageObserver(){};

  00000	55		 push	 ebp
  00001	8b ec		 mov	 ebp, esp
  00003	51		 push	 ecx
  00004	89 4d fc	 mov	 DWORD PTR _this$[ebp], ecx
  00007	8b 45 fc	 mov	 eax, DWORD PTR _this$[ebp]
  0000a	c7 00 00 00 00
	00		 mov	 DWORD PTR [eax], OFFSET FLAT:??_7IMessageObserver@@6B@
  00010	8b e5		 mov	 esp, ebp
  00012	5d		 pop	 ebp
  00013	c3		 ret	 0
??1IMessageObserver@@UAE@XZ ENDP			; IMessageObserver::~IMessageObserver
; Function compile flags: /Odt
_TEXT	ENDS
;	COMDAT ??_GIMessageObserver@@UAEPAXI@Z
_TEXT	SEGMENT
_this$ = -4						; size = 4
___flags$ = 8						; size = 4
??_GIMessageObserver@@UAEPAXI@Z PROC NEAR		; IMessageObserver::`scalar deleting destructor', COMDAT
; _this$ = ecx
  00000	55		 push	 ebp
  00001	8b ec		 mov	 ebp, esp
  00003	51		 push	 ecx
  00004	89 4d fc	 mov	 DWORD PTR _this$[ebp], ecx
  00007	8b 4d fc	 mov	 ecx, DWORD PTR _this$[ebp]
  0000a	e8 00 00 00 00	 call	 ??1IMessageObserver@@UAE@XZ ; IMessageObserver::~IMessageObserver
  0000f	8b 45 08	 mov	 eax, DWORD PTR ___flags$[ebp]
  00012	83 e0 01	 and	 eax, 1
  00015	74 0c		 je	 SHORT $L109524
  00017	8b 4d fc	 mov	 ecx, DWORD PTR _this$[ebp]
  0001a	51		 push	 ecx
  0001b	e8 00 00 00 00	 call	 ??3@YAXPAX@Z		; operator delete
  00020	83 c4 04	 add	 esp, 4
$L109524:
  00023	8b 45 fc	 mov	 eax, DWORD PTR _this$[ebp]
  00026	8b e5		 mov	 esp, ebp
  00028	5d		 pop	 ebp
  00029	c2 04 00	 ret	 4
??_GIMessageObserver@@UAEPAXI@Z ENDP			; IMessageObserver::`scalar deleting destructor'
; Function compile flags: /Odt
_TEXT	ENDS
;	COMDAT ??0out_of_range@std@@QAE@ABV01@@Z
_TEXT	SEGMENT
_this$ = -4						; size = 4
___that$ = 8						; size = 4
??0out_of_range@std@@QAE@ABV01@@Z PROC NEAR		; std::out_of_range::out_of_range, COMDAT
; _this$ = ecx
  00000	55		 push	 ebp
  00001	8b ec		 mov	 ebp, esp
  00003	51		 push	 ecx
  00004	89 4d fc	 mov	 DWORD PTR _this$[ebp], ecx
  00007	8b 45 08	 mov	 eax, DWORD PTR ___that$[ebp]
  0000a	50		 push	 eax
  0000b	8b 4d fc	 mov	 ecx, DWORD PTR _this$[ebp]
  0000e	e8 00 00 00 00	 call	 ??0logic_error@std@@QAE@ABV01@@Z
  00013	8b 4d fc	 mov	 ecx, DWORD PTR _this$[ebp]
  00016	c7 01 00 00 00
	00		 mov	 DWORD PTR [ecx], OFFSET FLAT:??_7out_of_range@std@@6B@
  0001c	8b 45 fc	 mov	 eax, DWORD PTR _this$[ebp]
  0001f	8b e5		 mov	 esp, ebp
  00021	5d		 pop	 ebp
  00022	c2 04 00	 ret	 4
??0out_of_range@std@@QAE@ABV01@@Z ENDP			; std::out_of_range::out_of_range
_TEXT	ENDS
EXTRN	__imp_??0exception@@QAE@ABV0@@Z:NEAR
;	COMDAT xdata$x
xdata$x	SEGMENT
$T200209 DD	0ffffffffH
	DD	FLAT:$L200204
$T200207 DD	019930520H
	DD	01H
	DD	FLAT:$T200209
	DD	2 DUP(00H)
	DD	2 DUP(00H)
; Function compile flags: /Odt
xdata$x	ENDS
;	COMDAT ??0logic_error@std@@QAE@ABV01@@Z
_TEXT	SEGMENT
_this$ = -16						; size = 4
__$EHRec$ = -12						; size = 12
___that$ = 8						; size = 4
??0logic_error@std@@QAE@ABV01@@Z PROC NEAR		; std::logic_error::logic_error, COMDAT
; _this$ = ecx
  00000	55		 push	 ebp
  00001	8b ec		 mov	 ebp, esp
  00003	6a ff		 push	 -1
  00005	68 00 00 00 00	 push	 __ehhandler$??0logic_error@std@@QAE@ABV01@@Z
  0000a	64 a1 00 00 00
	00		 mov	 eax, DWORD PTR fs:__except_list
  00010	50		 push	 eax
  00011	64 89 25 00 00
	00 00		 mov	 DWORD PTR fs:__except_list, esp
  00018	51		 push	 ecx
  00019	89 4d f0	 mov	 DWORD PTR _this$[ebp], ecx
  0001c	8b 45 08	 mov	 eax, DWORD PTR ___that$[ebp]
  0001f	50		 push	 eax
  00020	8b 4d f0	 mov	 ecx, DWORD PTR _this$[ebp]
  00023	ff 15 00 00 00
	00		 call	 DWORD PTR __imp_??0exception@@QAE@ABV0@@Z
  00029	c7 45 fc 00 00
	00 00		 mov	 DWORD PTR __$EHRec$[ebp+8], 0
  00030	8b 4d f0	 mov	 ecx, DWORD PTR _this$[ebp]
  00033	c7 01 00 00 00
	00		 mov	 DWORD PTR [ecx], OFFSET FLAT:??_7logic_error@std@@6B@
  00039	8b 55 08	 mov	 edx, DWORD PTR ___that$[ebp]
  0003c	83 c2 0c	 add	 edx, 12			; 0000000cH
  0003f	52		 push	 edx
  00040	8b 4d f0	 mov	 ecx, DWORD PTR _this$[ebp]
  00043	83 c1 0c	 add	 ecx, 12			; 0000000cH
  00046	ff 15 00 00 00
	00		 call	 DWORD PTR __imp_??0?$basic_string@DU?$char_traits@D@std@@V?$allocator@D@2@@std@@QAE@ABV01@@Z
  0004c	c7 45 fc ff ff
	ff ff		 mov	 DWORD PTR __$EHRec$[ebp+8], -1
  00053	8b 45 f0	 mov	 eax, DWORD PTR _this$[ebp]
  00056	8b 4d f4	 mov	 ecx, DWORD PTR __$EHRec$[ebp]
  00059	64 89 0d 00 00
	00 00		 mov	 DWORD PTR fs:__except_list, ecx
  00060	8b e5		 mov	 esp, ebp
  00062	5d		 pop	 ebp
  00063	c2 04 00	 ret	 4
_TEXT	ENDS
;	COMDAT text$x
text$x	SEGMENT
$L200204:
  00000	8b 4d f0	 mov	 ecx, DWORD PTR _this$[ebp]
  00003	ff 25 00 00 00
	00		 jmp	 DWORD PTR __imp_??1exception@@UAE@XZ
__ehhandler$??0logic_error@std@@QAE@ABV01@@Z:
  00009	b8 00 00 00 00	 mov	 eax, OFFSET FLAT:$T200207
  0000e	e9 00 00 00 00	 jmp	 ___CxxFrameHandler
text$x	ENDS
??0logic_error@std@@QAE@ABV01@@Z ENDP			; std::logic_error::logic_error
; Function compile flags: /Odt
; File d:\program files (x86)\microsoft visual studio .net 2003\vc7\include\utility
;	COMDAT ??$swap@D@std@@YAXAAD0@Z
_TEXT	SEGMENT
__Tmp$ = -1						; size = 1
__Left$ = 8						; size = 4
__Right$ = 12						; size = 4
??$swap@D@std@@YAXAAD0@Z PROC NEAR			; std::swap<char>, COMDAT

; 14   : 	{	// exchange values stored at _Left and _Right

  00000	55		 push	 ebp
  00001	8b ec		 mov	 ebp, esp
  00003	51		 push	 ecx

; 15   : 	_Ty _Tmp = _Left;

  00004	8b 45 08	 mov	 eax, DWORD PTR __Left$[ebp]
  00007	8a 08		 mov	 cl, BYTE PTR [eax]
  00009	88 4d ff	 mov	 BYTE PTR __Tmp$[ebp], cl

; 16   : 	_Left = _Right, _Right = _Tmp;

  0000c	8b 55 08	 mov	 edx, DWORD PTR __Left$[ebp]
  0000f	8b 45 0c	 mov	 eax, DWORD PTR __Right$[ebp]
  00012	8a 08		 mov	 cl, BYTE PTR [eax]
  00014	88 0a		 mov	 BYTE PTR [edx], cl
  00016	8b 55 0c	 mov	 edx, DWORD PTR __Right$[ebp]
  00019	8a 45 ff	 mov	 al, BYTE PTR __Tmp$[ebp]
  0001c	88 02		 mov	 BYTE PTR [edx], al

; 17   : 	}

  0001e	8b e5		 mov	 esp, ebp
  00020	5d		 pop	 ebp
  00021	c3		 ret	 0
??$swap@D@std@@YAXAAD0@Z ENDP				; std::swap<char>
_TEXT	ENDS
CRT$XCU	SEGMENT
_$S6	DD	FLAT:_$E5
; Function compile flags: /Odt
; File d:\boxgit\playbox\playbox\dev\prj\playbox\src\appconfig\config\configsettingdef.h
CRT$XCU	ENDS
;	COMDAT _$E5
text$yc	SEGMENT
_$E5	PROC NEAR					; COMDAT

; 25   : 	CONF_SETTING_SKIN_IDX,				TYPE_CONFIG_STR,

  00000	55		 push	 ebp
  00001	8b ec		 mov	 ebp, esp
  00003	a1 00 00 00 00	 mov	 eax, DWORD PTR _CONF_SETTING_SKIN_IDX
  00008	a3 00 00 00 00	 mov	 DWORD PTR _CONF_SETTING, eax
  0000d	8b 0d 00 00 00
	00		 mov	 ecx, DWORD PTR _TYPE_CONFIG_STR
  00013	89 0d 04 00 00
	00		 mov	 DWORD PTR _CONF_SETTING+4, ecx

; 26   : 	CONF_SETTING_CONFIG_MAIN_PAGE,		TYPE_CONFIG_STR,

  00019	8b 15 00 00 00
	00		 mov	 edx, DWORD PTR _CONF_SETTING_CONFIG_MAIN_PAGE
  0001f	89 15 08 00 00
	00		 mov	 DWORD PTR _CONF_SETTING+8, edx
  00025	a1 00 00 00 00	 mov	 eax, DWORD PTR _TYPE_CONFIG_STR
  0002a	a3 0c 00 00 00	 mov	 DWORD PTR _CONF_SETTING+12, eax

; 27   : 	CONF_SETTING_CONFIG_PROBLEM_REPORT,	TYPE_CONFIG_STR,

  0002f	8b 0d 00 00 00
	00		 mov	 ecx, DWORD PTR _CONF_SETTING_CONFIG_PROBLEM_REPORT
  00035	89 0d 10 00 00
	00		 mov	 DWORD PTR _CONF_SETTING+16, ecx
  0003b	8b 15 00 00 00
	00		 mov	 edx, DWORD PTR _TYPE_CONFIG_STR
  00041	89 15 14 00 00
	00		 mov	 DWORD PTR _CONF_SETTING+20, edx

; 28   : 	CONF_SETTING_CONFIG_HOME_PAGE,		TYPE_CONFIG_STR,

  00047	a1 00 00 00 00	 mov	 eax, DWORD PTR _CONF_SETTING_CONFIG_HOME_PAGE
  0004c	a3 18 00 00 00	 mov	 DWORD PTR _CONF_SETTING+24, eax
  00051	8b 0d 00 00 00
	00		 mov	 ecx, DWORD PTR _TYPE_CONFIG_STR
  00057	89 0d 1c 00 00
	00		 mov	 DWORD PTR _CONF_SETTING+28, ecx

; 29   : 	CONF_SETTING_CONFIG_IFASKEXIT,		TYPE_CONFIG_BOOL,

  0005d	8b 15 00 00 00
	00		 mov	 edx, DWORD PTR _CONF_SETTING_CONFIG_IFASKEXIT
  00063	89 15 20 00 00
	00		 mov	 DWORD PTR _CONF_SETTING+32, edx
  00069	a1 00 00 00 00	 mov	 eax, DWORD PTR _TYPE_CONFIG_BOOL
  0006e	a3 24 00 00 00	 mov	 DWORD PTR _CONF_SETTING+36, eax

; 30   : 	CONF_SETTING_CONFIG_EXITCHOICE,		TYPE_CONFIG_BOOL,

  00073	8b 0d 00 00 00
	00		 mov	 ecx, DWORD PTR _CONF_SETTING_CONFIG_EXITCHOICE
  00079	89 0d 28 00 00
	00		 mov	 DWORD PTR _CONF_SETTING+40, ecx
  0007f	8b 15 00 00 00
	00		 mov	 edx, DWORD PTR _TYPE_CONFIG_BOOL
  00085	89 15 2c 00 00
	00		 mov	 DWORD PTR _CONF_SETTING+44, edx

; 31   : 	CONF_SETTING_LOGIN_USER_NAME,		TYPE_CONFIG_STR,

  0008b	a1 00 00 00 00	 mov	 eax, DWORD PTR _CONF_SETTING_LOGIN_USER_NAME
  00090	a3 30 00 00 00	 mov	 DWORD PTR _CONF_SETTING+48, eax
  00095	8b 0d 00 00 00
	00		 mov	 ecx, DWORD PTR _TYPE_CONFIG_STR
  0009b	89 0d 34 00 00
	00		 mov	 DWORD PTR _CONF_SETTING+52, ecx

; 32   : 	CONF_SETTING_LOGIN_PASSWORD,		TYPE_CONFIG_STR,

  000a1	8b 15 00 00 00
	00		 mov	 edx, DWORD PTR _CONF_SETTING_LOGIN_PASSWORD
  000a7	89 15 38 00 00
	00		 mov	 DWORD PTR _CONF_SETTING+56, edx
  000ad	a1 00 00 00 00	 mov	 eax, DWORD PTR _TYPE_CONFIG_STR
  000b2	a3 3c 00 00 00	 mov	 DWORD PTR _CONF_SETTING+60, eax

; 33   : 	CONF_SETTING_NETID,					TYPE_CONFIG_STR,

  000b7	8b 0d 00 00 00
	00		 mov	 ecx, DWORD PTR _CONF_SETTING_NETID
  000bd	89 0d 40 00 00
	00		 mov	 DWORD PTR _CONF_SETTING+64, ecx
  000c3	8b 15 00 00 00
	00		 mov	 edx, DWORD PTR _TYPE_CONFIG_STR
  000c9	89 15 44 00 00
	00		 mov	 DWORD PTR _CONF_SETTING+68, edx

; 34   : 	CONF_SETTING_COLOR,					TYPE_CONFIG_INT,

  000cf	a1 00 00 00 00	 mov	 eax, DWORD PTR _CONF_SETTING_COLOR
  000d4	a3 48 00 00 00	 mov	 DWORD PTR _CONF_SETTING+72, eax
  000d9	8b 0d 00 00 00
	00		 mov	 ecx, DWORD PTR _TYPE_CONFIG_INT
  000df	89 0d 4c 00 00
	00		 mov	 DWORD PTR _CONF_SETTING+76, ecx

; 35   : 	CONF_SETTING_LIGHT,					TYPE_CONFIG_INT,

  000e5	8b 15 00 00 00
	00		 mov	 edx, DWORD PTR _CONF_SETTING_LIGHT
  000eb	89 15 50 00 00
	00		 mov	 DWORD PTR _CONF_SETTING+80, edx
  000f1	a1 00 00 00 00	 mov	 eax, DWORD PTR _TYPE_CONFIG_INT
  000f6	a3 54 00 00 00	 mov	 DWORD PTR _CONF_SETTING+84, eax

; 36   : 	CONF_SETTING_COLOR_BTN_INDEX,		TYPE_CONFIG_INT,

  000fb	8b 0d 00 00 00
	00		 mov	 ecx, DWORD PTR _CONF_SETTING_COLOR_BTN_INDEX
  00101	89 0d 58 00 00
	00		 mov	 DWORD PTR _CONF_SETTING+88, ecx
  00107	8b 15 00 00 00
	00		 mov	 edx, DWORD PTR _TYPE_CONFIG_INT
  0010d	89 15 5c 00 00
	00		 mov	 DWORD PTR _CONF_SETTING+92, edx

; 37   : 	CONF_SETTING_COLOR_USER,			TYPE_CONFIG_INT,

  00113	a1 00 00 00 00	 mov	 eax, DWORD PTR _CONF_SETTING_COLOR_USER
  00118	a3 60 00 00 00	 mov	 DWORD PTR _CONF_SETTING+96, eax
  0011d	8b 0d 00 00 00
	00		 mov	 ecx, DWORD PTR _TYPE_CONFIG_INT
  00123	89 0d 64 00 00
	00		 mov	 DWORD PTR _CONF_SETTING+100, ecx

; 38   : 	CONF_SETTING_FIRST_TIME_CHANGESKIN, TYPE_CONFIG_BOOL

  00129	8b 15 00 00 00
	00		 mov	 edx, DWORD PTR _CONF_SETTING_FIRST_TIME_CHANGESKIN
  0012f	89 15 68 00 00
	00		 mov	 DWORD PTR _CONF_SETTING+104, edx

; 39   : };

  00135	a1 00 00 00 00	 mov	 eax, DWORD PTR _TYPE_CONFIG_BOOL
  0013a	a3 6c 00 00 00	 mov	 DWORD PTR _CONF_SETTING+108, eax
  0013f	5d		 pop	 ebp
  00140	c3		 ret	 0
_$E5	ENDP
text$yc	ENDS
;	COMDAT CRT$XCU
; File d:\boxgit\playbox\playbox\dev\prj\playbox\src\appconfig\config\dlg\dlgconfig.cpp
CRT$XCU	SEGMENT
_$S8	DD	FLAT:_$E7
; Function compile flags: /Odt
CRT$XCU	ENDS
;	COMDAT _$E7
text$yc	SEGMENT
$T200220 = -36						; size = 12
$T200219 = -24						; size = 12
$T200218 = -12						; size = 12
_$E7	PROC NEAR					; COMDAT

; 26   :     ON_BN_CLICKED(IDOK, OnClickedOK)

  00000	55		 push	 ebp
  00001	8b ec		 mov	 ebp, esp
  00003	83 ec 24	 sub	 esp, 36			; 00000024H
  00006	c7 45 f4 00 00
	00 00		 mov	 DWORD PTR $T200218[ebp], OFFSET FLAT:?OnClickedOK@CConfigDialog@@IAEXXZ ; CConfigDialog::OnClickedOK
  0000d	c7 45 f8 8c ff
	ff ff		 mov	 DWORD PTR $T200218[ebp+4], -116 ; ffffff8cH
  00014	c7 45 fc 00 00
	00 00		 mov	 DWORD PTR $T200218[ebp+8], 0
  0001b	8b 45 f4	 mov	 eax, DWORD PTR $T200218[ebp]
  0001e	a3 14 00 00 00	 mov	 DWORD PTR ?_messageEntries@CConfigDialog@@0QBUAFX_MSGMAP_ENTRY@@B+20, eax

; 27   :     ON_BN_CLICKED(IDCANCEL, OnClickedCancel)

  00023	c7 05 18 00 00
	00 11 01 00 00	 mov	 DWORD PTR ?_messageEntries@CConfigDialog@@0QBUAFX_MSGMAP_ENTRY@@B+24, 273 ; 00000111H
  0002d	c7 05 1c 00 00
	00 00 00 00 00	 mov	 DWORD PTR ?_messageEntries@CConfigDialog@@0QBUAFX_MSGMAP_ENTRY@@B+28, 0
  00037	c7 05 20 00 00
	00 02 00 00 00	 mov	 DWORD PTR ?_messageEntries@CConfigDialog@@0QBUAFX_MSGMAP_ENTRY@@B+32, 2
  00041	c7 05 24 00 00
	00 02 00 00 00	 mov	 DWORD PTR ?_messageEntries@CConfigDialog@@0QBUAFX_MSGMAP_ENTRY@@B+36, 2
  0004b	c7 05 28 00 00
	00 35 00 00 00	 mov	 DWORD PTR ?_messageEntries@CConfigDialog@@0QBUAFX_MSGMAP_ENTRY@@B+40, 53 ; 00000035H
  00055	c7 45 e8 00 00
	00 00		 mov	 DWORD PTR $T200219[ebp], OFFSET FLAT:?OnClickedCancel@CConfigDialog@@IAEXXZ ; CConfigDialog::OnClickedCancel
  0005c	c7 45 ec 8c ff
	ff ff		 mov	 DWORD PTR $T200219[ebp+4], -116 ; ffffff8cH
  00063	c7 45 f0 00 00
	00 00		 mov	 DWORD PTR $T200219[ebp+8], 0
  0006a	8b 4d e8	 mov	 ecx, DWORD PTR $T200219[ebp]
  0006d	89 0d 2c 00 00
	00		 mov	 DWORD PTR ?_messageEntries@CConfigDialog@@0QBUAFX_MSGMAP_ENTRY@@B+44, ecx

; 28   : 	ON_BN_CLICKED(IDC_CONFIG_BTN_DEFAULT, OnConfigBtnDefaultBnClicked)

  00073	c7 05 30 00 00
	00 11 01 00 00	 mov	 DWORD PTR ?_messageEntries@CConfigDialog@@0QBUAFX_MSGMAP_ENTRY@@B+48, 273 ; 00000111H
  0007d	c7 05 34 00 00
	00 00 00 00 00	 mov	 DWORD PTR ?_messageEntries@CConfigDialog@@0QBUAFX_MSGMAP_ENTRY@@B+52, 0
  00087	c7 05 38 00 00
	00 be 00 00 00	 mov	 DWORD PTR ?_messageEntries@CConfigDialog@@0QBUAFX_MSGMAP_ENTRY@@B+56, 190 ; 000000beH
  00091	c7 05 3c 00 00
	00 be 00 00 00	 mov	 DWORD PTR ?_messageEntries@CConfigDialog@@0QBUAFX_MSGMAP_ENTRY@@B+60, 190 ; 000000beH
  0009b	c7 05 40 00 00
	00 35 00 00 00	 mov	 DWORD PTR ?_messageEntries@CConfigDialog@@0QBUAFX_MSGMAP_ENTRY@@B+64, 53 ; 00000035H
  000a5	c7 45 dc 00 00
	00 00		 mov	 DWORD PTR $T200220[ebp], OFFSET FLAT:?OnConfigBtnDefaultBnClicked@CConfigDialog@@IAEXXZ ; CConfigDialog::OnConfigBtnDefaultBnClicked
  000ac	c7 45 e0 8c ff
	ff ff		 mov	 DWORD PTR $T200220[ebp+4], -116 ; ffffff8cH
  000b3	c7 45 e4 00 00
	00 00		 mov	 DWORD PTR $T200220[ebp+8], 0
  000ba	8b 55 dc	 mov	 edx, DWORD PTR $T200220[ebp]
  000bd	89 15 44 00 00
	00		 mov	 DWORD PTR ?_messageEntries@CConfigDialog@@0QBUAFX_MSGMAP_ENTRY@@B+68, edx

; 29   : 	//ON_WM_CTLCOLOR()
; 30   : END_MESSAGE_MAP()

  000c3	c7 05 48 00 00
	00 00 00 00 00	 mov	 DWORD PTR ?_messageEntries@CConfigDialog@@0QBUAFX_MSGMAP_ENTRY@@B+72, 0
  000cd	c7 05 4c 00 00
	00 00 00 00 00	 mov	 DWORD PTR ?_messageEntries@CConfigDialog@@0QBUAFX_MSGMAP_ENTRY@@B+76, 0
  000d7	c7 05 50 00 00
	00 00 00 00 00	 mov	 DWORD PTR ?_messageEntries@CConfigDialog@@0QBUAFX_MSGMAP_ENTRY@@B+80, 0
  000e1	c7 05 54 00 00
	00 00 00 00 00	 mov	 DWORD PTR ?_messageEntries@CConfigDialog@@0QBUAFX_MSGMAP_ENTRY@@B+84, 0
  000eb	c7 05 58 00 00
	00 00 00 00 00	 mov	 DWORD PTR ?_messageEntries@CConfigDialog@@0QBUAFX_MSGMAP_ENTRY@@B+88, 0
  000f5	c7 05 5c 00 00
	00 00 00 00 00	 mov	 DWORD PTR ?_messageEntries@CConfigDialog@@0QBUAFX_MSGMAP_ENTRY@@B+92, 0
  000ff	8b e5		 mov	 esp, ebp
  00101	5d		 pop	 ebp
  00102	c3		 ret	 0
_$E7	ENDP
text$yc	ENDS
PUBLIC	?_messageEntries@CConfigDialog@@0QBUAFX_MSGMAP_ENTRY@@B ; CConfigDialog::_messageEntries
_BSS	SEGMENT
_CONF_SETTING DD 01cH DUP (?)
_BSS	ENDS
;	COMDAT ?_messageEntries@CConfigDialog@@0QBUAFX_MSGMAP_ENTRY@@B
_DATA	SEGMENT
?_messageEntries@CConfigDialog@@0QBUAFX_MSGMAP_ENTRY@@B DD 0111H ; CConfigDialog::_messageEntries
	DD	00H
	DD	01H
	DD	01H
	DD	035H
	ORG $+76
_DATA	ENDS
END
