; Listing generated by Microsoft (R) Optimizing Compiler Version 13.10.3077 

	TITLE	.\src\AppConfig\config\Dlg\DlgDown.cpp
	.386P
include listing.inc
if @Version gt 510
.model FLAT
else
_TEXT	SEGMENT PARA USE32 PUBLIC 'CODE'
_TEXT	ENDS
_DATA	SEGMENT DWORD USE32 PUBLIC 'DATA'
_DATA	ENDS
CONST	SEGMENT DWORD USE32 PUBLIC 'CONST'
CONST	ENDS
_BSS	SEGMENT DWORD USE32 PUBLIC 'BSS'
_BSS	ENDS
$$SYMBOLS	SEGMENT BYTE USE32 'DEBSYM'
$$SYMBOLS	ENDS
$$TYPES	SEGMENT BYTE USE32 'DEBTYP'
$$TYPES	ENDS
_TLS	SEGMENT DWORD USE32 PUBLIC 'TLS'
_TLS	ENDS
rdata$r	SEGMENT DWORD USE32 PUBLIC 'CONST'
rdata$r	ENDS
xdata$x	SEGMENT DWORD USE32 PUBLIC 'CONST'
xdata$x	ENDS
text$AFX_COL1	SEGMENT PARA USE32 PUBLIC ''
text$AFX_COL1	ENDS
text$yc	SEGMENT PARA USE32 PUBLIC 'CODE'
text$yc	ENDS
CRT$XCA	SEGMENT DWORD USE32 PUBLIC 'DATA'
CRT$XCA	ENDS
CRT$XCU	SEGMENT DWORD USE32 PUBLIC 'DATA'
CRT$XCU	ENDS
CRT$XCL	SEGMENT DWORD USE32 PUBLIC 'DATA'
CRT$XCL	ENDS
CRT$XCC	SEGMENT DWORD USE32 PUBLIC 'DATA'
CRT$XCC	ENDS
CRT$XCZ	SEGMENT DWORD USE32 PUBLIC 'DATA'
CRT$XCZ	ENDS
text$yd	SEGMENT PARA USE32 PUBLIC 'CODE'
text$yd	ENDS
ATL$__m	SEGMENT DWORD USE32 PUBLIC ''
ATL$__m	ENDS
ATL$__z	SEGMENT DWORD USE32 PUBLIC ''
ATL$__z	ENDS
ATL$__a	SEGMENT DWORD USE32 PUBLIC ''
ATL$__a	ENDS
;	COMDAT _$E5
text$yc	SEGMENT PARA USE32 PUBLIC 'CODE'
text$yc	ENDS
;	COMDAT ??_GCDownDialog@@UAEPAXI@Z
_TEXT	SEGMENT PARA USE32 PUBLIC 'CODE'
_TEXT	ENDS
;	COMDAT ??0BaseDialog@@QAE@XZ
_TEXT	SEGMENT PARA USE32 PUBLIC 'CODE'
_TEXT	ENDS
;	COMDAT ??1BaseDialog@@UAE@XZ
_TEXT	SEGMENT PARA USE32 PUBLIC 'CODE'
_TEXT	ENDS
;	COMDAT ??_GBaseDialog@@UAEPAXI@Z
_TEXT	SEGMENT PARA USE32 PUBLIC 'CODE'
_TEXT	ENDS
;	COMDAT ??B?$CComPtrBase@UITypeInfo2@@@ATL@@QBEPAUITypeInfo2@@XZ
_TEXT	SEGMENT PARA USE32 PUBLIC 'CODE'
_TEXT	ENDS
;	COMDAT ?equal@?$istreambuf_iterator@DU?$char_traits@D@std@@@std@@QBE_NABV12@@Z
_TEXT	SEGMENT PARA USE32 PUBLIC 'CODE'
_TEXT	ENDS
;	COMDAT ?equal@?$istreambuf_iterator@_WU?$char_traits@_W@std@@@std@@QBE_NABV12@@Z
_TEXT	SEGMENT PARA USE32 PUBLIC 'CODE'
_TEXT	ENDS
;	COMDAT ?Unlock@?$CComCritSecLock@VCComCriticalSection@ATL@@@ATL@@QAEXXZ
_TEXT	SEGMENT PARA USE32 PUBLIC 'CODE'
_TEXT	ENDS
;	COMDAT ??$_Maklocstr@D@std@@YAPADPBDPADABU_Cvtvec@@@Z
_TEXT	SEGMENT PARA USE32 PUBLIC 'CODE'
_TEXT	ENDS
;	COMDAT ??_R3BaseDialog@@8
rdata$r	SEGMENT DWORD USE32 PUBLIC 'CONST'
rdata$r	ENDS
;	COMDAT ??_R3CDownDialog@@8
rdata$r	SEGMENT DWORD USE32 PUBLIC 'CONST'
rdata$r	ENDS
;	COMDAT ??_R3?$numpunct@_W@std@@8
rdata$r	SEGMENT DWORD USE32 PUBLIC 'CONST'
rdata$r	ENDS
;	COMDAT ??_R3?$numpunct@D@std@@8
rdata$r	SEGMENT DWORD USE32 PUBLIC 'CONST'
rdata$r	ENDS
;	COMDAT ??_R2BaseDialog@@8
rdata$r	SEGMENT DWORD USE32 PUBLIC 'CONST'
rdata$r	ENDS
;	COMDAT ??_R2CDownDialog@@8
rdata$r	SEGMENT DWORD USE32 PUBLIC 'CONST'
rdata$r	ENDS
;	COMDAT ??_R2?$numpunct@_W@std@@8
rdata$r	SEGMENT DWORD USE32 PUBLIC 'CONST'
rdata$r	ENDS
;	COMDAT ??_R2?$numpunct@D@std@@8
rdata$r	SEGMENT DWORD USE32 PUBLIC 'CONST'
rdata$r	ENDS
;	COMDAT ??_R1A@?0A@A@CObject@@8
rdata$r	SEGMENT DWORD USE32 PUBLIC 'CONST'
rdata$r	ENDS
;	COMDAT ??_R0?AVCObject@@@8
_DATA	SEGMENT DWORD USE32 PUBLIC 'DATA'
_DATA	ENDS
;	COMDAT ??_R1A@?0A@A@CCmdTarget@@8
rdata$r	SEGMENT DWORD USE32 PUBLIC 'CONST'
rdata$r	ENDS
;	COMDAT ??_R0?AVCCmdTarget@@@8
_DATA	SEGMENT DWORD USE32 PUBLIC 'DATA'
_DATA	ENDS
;	COMDAT ??_R1A@?0A@A@CWnd@@8
rdata$r	SEGMENT DWORD USE32 PUBLIC 'CONST'
rdata$r	ENDS
;	COMDAT ??_R0?AVCWnd@@@8
_DATA	SEGMENT DWORD USE32 PUBLIC 'DATA'
_DATA	ENDS
;	COMDAT ??_R1A@?0A@A@CDialog@@8
rdata$r	SEGMENT DWORD USE32 PUBLIC 'CONST'
rdata$r	ENDS
;	COMDAT ??_R0?AVCDialog@@@8
_DATA	SEGMENT DWORD USE32 PUBLIC 'DATA'
_DATA	ENDS
;	COMDAT ??_R1A@?0A@A@BaseDialog@@8
rdata$r	SEGMENT DWORD USE32 PUBLIC 'CONST'
rdata$r	ENDS
;	COMDAT ??_R1A@?0A@A@CDownDialog@@8
rdata$r	SEGMENT DWORD USE32 PUBLIC 'CONST'
rdata$r	ENDS
;	COMDAT ??_R1A@?0A@A@?$numpunct@_W@std@@8
rdata$r	SEGMENT DWORD USE32 PUBLIC 'CONST'
rdata$r	ENDS
;	COMDAT ??_R1A@?0A@A@facet@locale@std@@8
rdata$r	SEGMENT DWORD USE32 PUBLIC 'CONST'
rdata$r	ENDS
;	COMDAT ??_R0?AVfacet@locale@std@@@8
_DATA	SEGMENT DWORD USE32 PUBLIC 'DATA'
_DATA	ENDS
;	COMDAT ??_R1A@?0A@A@?$numpunct@D@std@@8
rdata$r	SEGMENT DWORD USE32 PUBLIC 'CONST'
rdata$r	ENDS
;	COMDAT ??_R0?AVBaseDialog@@@8
_DATA	SEGMENT DWORD USE32 PUBLIC 'DATA'
_DATA	ENDS
;	COMDAT ??_R0?AVCDownDialog@@@8
_DATA	SEGMENT DWORD USE32 PUBLIC 'DATA'
_DATA	ENDS
;	COMDAT ??_R0?AV?$numpunct@_W@std@@@8
_DATA	SEGMENT DWORD USE32 PUBLIC 'DATA'
_DATA	ENDS
;	COMDAT ??_R0?AV?$numpunct@D@std@@@8
_DATA	SEGMENT DWORD USE32 PUBLIC 'DATA'
_DATA	ENDS
;	COMDAT ??_R4BaseDialog@@6B@
rdata$r	SEGMENT DWORD USE32 PUBLIC 'CONST'
rdata$r	ENDS
;	COMDAT ?Create@CDialog@@UAEHIPAVCWnd@@@Z
_TEXT	SEGMENT PARA USE32 PUBLIC 'CODE'
_TEXT	ENDS
;	COMDAT ?EndModalState@CWnd@@UAEXXZ
_TEXT	SEGMENT PARA USE32 PUBLIC 'CODE'
_TEXT	ENDS
;	COMDAT ?BeginModalState@CWnd@@UAEXXZ
_TEXT	SEGMENT PARA USE32 PUBLIC 'CODE'
_TEXT	ENDS
;	COMDAT ?Dump@CObject@@UBEXAAVCDumpContext@@@Z
_TEXT	SEGMENT PARA USE32 PUBLIC 'CODE'
_TEXT	ENDS
;	COMDAT ?AssertValid@CObject@@UBEXXZ
_TEXT	SEGMENT PARA USE32 PUBLIC 'CODE'
_TEXT	ENDS
;	COMDAT ?Serialize@CObject@@UAEXAAVCArchive@@@Z
_TEXT	SEGMENT PARA USE32 PUBLIC 'CODE'
_TEXT	ENDS
;	COMDAT ??_R4CDownDialog@@6B@
rdata$r	SEGMENT DWORD USE32 PUBLIC 'CONST'
rdata$r	ENDS
;	COMDAT ??0?$allocator@_W@std@@QAE@XZ
_TEXT	SEGMENT PARA USE32 PUBLIC 'CODE'
_TEXT	ENDS
;	COMDAT ??_G?$numpunct@_W@std@@MAEPAXI@Z
_TEXT	SEGMENT PARA USE32 PUBLIC 'CODE'
_TEXT	ENDS
;	COMDAT ??_R4?$numpunct@_W@std@@6B@
rdata$r	SEGMENT DWORD USE32 PUBLIC 'CONST'
rdata$r	ENDS
;	COMDAT ??_G?$numpunct@D@std@@MAEPAXI@Z
_TEXT	SEGMENT PARA USE32 PUBLIC 'CODE'
_TEXT	ENDS
;	COMDAT ??_R4?$numpunct@D@std@@6B@
rdata$r	SEGMENT DWORD USE32 PUBLIC 'CONST'
rdata$r	ENDS
;	COMDAT ?_Psave@?$_Facetptr@V?$numpunct@_W@std@@@std@@2PBVfacet@locale@2@B
_DATA	SEGMENT DWORD USE32 PUBLIC 'DATA'
_DATA	ENDS
;	COMDAT ?_Psave@?$_Facetptr@V?$numpunct@D@std@@@std@@2PBVfacet@locale@2@B
_DATA	SEGMENT DWORD USE32 PUBLIC 'DATA'
_DATA	ENDS
;	COMDAT ?Unlock@CComCriticalSection@ATL@@QAEJXZ
_TEXT	SEGMENT PARA USE32 PUBLIC 'CODE'
_TEXT	ENDS
;	COMDAT ?_Psave@?$_Facetptr@V?$ctype@_W@std@@@std@@2PBVfacet@locale@2@B
_DATA	SEGMENT DWORD USE32 PUBLIC 'DATA'
_DATA	ENDS
;	COMDAT ?_Psave@?$_Facetptr@V?$ctype@D@std@@@std@@2PBVfacet@locale@2@B
_DATA	SEGMENT DWORD USE32 PUBLIC 'DATA'
_DATA	ENDS
;	COMDAT ??$_Maklocchr@_W@std@@YA_WDPA_WABU_Cvtvec@@@Z
_TEXT	SEGMENT PARA USE32 PUBLIC 'CODE'
_TEXT	ENDS
;	COMDAT ??$_Maklocstr@_W@std@@YAPA_WPBDPA_WABU_Cvtvec@@@Z
_TEXT	SEGMENT PARA USE32 PUBLIC 'CODE'
_TEXT	ENDS
;	COMDAT ??$_Maklocchr@D@std@@YADDPADABU_Cvtvec@@@Z
_TEXT	SEGMENT PARA USE32 PUBLIC 'CODE'
_TEXT	ENDS
;	COMDAT ??_C@_04LOAJBDKD@true?$AA@
CONST	SEGMENT DWORD USE32 PUBLIC 'CONST'
CONST	ENDS
;	COMDAT ??_C@_05LAPONLG@false?$AA@
CONST	SEGMENT DWORD USE32 PUBLIC 'CONST'
CONST	ENDS
;	COMDAT _wmemcpy
_TEXT	SEGMENT PARA USE32 PUBLIC 'CODE'
_TEXT	ENDS
;	COMDAT ?max_size@?$allocator@_W@std@@QBEIXZ
_TEXT	SEGMENT PARA USE32 PUBLIC 'CODE'
_TEXT	ENDS
;	COMDAT ?allocate@?$allocator@_W@std@@QAEPA_WI@Z
_TEXT	SEGMENT PARA USE32 PUBLIC 'CODE'
_TEXT	ENDS
;	COMDAT ??$_Allocate@_W@std@@YAPA_WIPA_W@Z
_TEXT	SEGMENT PARA USE32 PUBLIC 'CODE'
_TEXT	ENDS
;	COMDAT ??_C@_01GFHCPBMG@C?$AA@
CONST	SEGMENT DWORD USE32 PUBLIC 'CONST'
CONST	ENDS
;	COMDAT ?max_size@?$allocator@D@std@@QBEIXZ
_TEXT	SEGMENT PARA USE32 PUBLIC 'CODE'
_TEXT	ENDS
;	COMDAT ?allocate@?$allocator@D@std@@QAEPADI@Z
_TEXT	SEGMENT PARA USE32 PUBLIC 'CODE'
_TEXT	ENDS
;	COMDAT ??$_Allocate@D@std@@YAPADIPAD@Z
_TEXT	SEGMENT PARA USE32 PUBLIC 'CODE'
_TEXT	ENDS
;	COMDAT ?deallocate@?$allocator@D@std@@QAEXPADI@Z
_TEXT	SEGMENT PARA USE32 PUBLIC 'CODE'
_TEXT	ENDS
;	COMDAT ?_Peek@?$istreambuf_iterator@_WU?$char_traits@_W@std@@@std@@AAE_WXZ
_TEXT	SEGMENT PARA USE32 PUBLIC 'CODE'
_TEXT	ENDS
;	COMDAT ?_Peek@?$istreambuf_iterator@DU?$char_traits@D@std@@@std@@AAEDXZ
_TEXT	SEGMENT PARA USE32 PUBLIC 'CODE'
_TEXT	ENDS
;	COMDAT ??$use_facet@V?$ctype@_W@std@@@std@@YAABV?$ctype@_W@0@ABVlocale@0@@Z
_TEXT	SEGMENT PARA USE32 PUBLIC 'CODE'
_TEXT	ENDS
;	COMDAT ??_S?$ctype@_W@std@@6B@
CONST	SEGMENT DWORD USE32 PUBLIC 'CONST'
CONST	ENDS
;	COMDAT ??_R4?$ctype@_W@std@@6B@
rdata$r	SEGMENT DWORD USE32 PUBLIC 'CONST'
rdata$r	ENDS
;	COMDAT ??_R0?AV?$ctype@_W@std@@@8
_DATA	SEGMENT DWORD USE32 PUBLIC 'DATA'
_DATA	ENDS
;	COMDAT ??_R3?$ctype@_W@std@@8
rdata$r	SEGMENT DWORD USE32 PUBLIC 'CONST'
rdata$r	ENDS
;	COMDAT ??_R2?$ctype@_W@std@@8
rdata$r	SEGMENT DWORD USE32 PUBLIC 'CONST'
rdata$r	ENDS
;	COMDAT ??_R1A@?0A@A@?$ctype@_W@std@@8
rdata$r	SEGMENT DWORD USE32 PUBLIC 'CONST'
rdata$r	ENDS
;	COMDAT ??_R1A@?0A@A@ctype_base@std@@8
rdata$r	SEGMENT DWORD USE32 PUBLIC 'CONST'
rdata$r	ENDS
;	COMDAT ??_R0?AUctype_base@std@@@8
_DATA	SEGMENT DWORD USE32 PUBLIC 'DATA'
_DATA	ENDS
;	COMDAT ??_G?$ctype@_W@std@@MAEPAXI@Z
_TEXT	SEGMENT PARA USE32 PUBLIC 'CODE'
_TEXT	ENDS
;	COMDAT ??_C@_08EPJLHIJG@bad?5cast?$AA@
CONST	SEGMENT DWORD USE32 PUBLIC 'CONST'
CONST	ENDS
;	COMDAT __TI2?AVbad_cast@@
xdata$x	SEGMENT DWORD USE32 PUBLIC 'CONST'
xdata$x	ENDS
;	COMDAT __CTA2?AVbad_cast@@
xdata$x	SEGMENT DWORD USE32 PUBLIC 'CONST'
xdata$x	ENDS
;	COMDAT __CT??_R0?AVbad_cast@@@8??0bad_cast@@QAE@ABV0@@Z12
xdata$x	SEGMENT DWORD USE32 PUBLIC 'CONST'
xdata$x	ENDS
;	COMDAT ??_R0?AVbad_cast@@@8
_DATA	SEGMENT DWORD USE32 PUBLIC 'DATA'
_DATA	ENDS
;	COMDAT __CT??_R0?AVexception@@@8??0exception@@QAE@ABV0@@Z12
xdata$x	SEGMENT DWORD USE32 PUBLIC 'CONST'
xdata$x	ENDS
;	COMDAT ??_R0?AVexception@@@8
_DATA	SEGMENT DWORD USE32 PUBLIC 'DATA'
_DATA	ENDS
;	COMDAT ??$use_facet@V?$ctype@D@std@@@std@@YAABV?$ctype@D@0@ABVlocale@0@@Z
_TEXT	SEGMENT PARA USE32 PUBLIC 'CODE'
_TEXT	ENDS
;	COMDAT ??_S?$ctype@D@std@@6B@
CONST	SEGMENT DWORD USE32 PUBLIC 'CONST'
CONST	ENDS
;	COMDAT ??_R4?$ctype@D@std@@6B@
rdata$r	SEGMENT DWORD USE32 PUBLIC 'CONST'
rdata$r	ENDS
;	COMDAT ??_R0?AV?$ctype@D@std@@@8
_DATA	SEGMENT DWORD USE32 PUBLIC 'DATA'
_DATA	ENDS
;	COMDAT ??_R3?$ctype@D@std@@8
rdata$r	SEGMENT DWORD USE32 PUBLIC 'CONST'
rdata$r	ENDS
;	COMDAT ??_R2?$ctype@D@std@@8
rdata$r	SEGMENT DWORD USE32 PUBLIC 'CONST'
rdata$r	ENDS
;	COMDAT ??_R1A@?0A@A@?$ctype@D@std@@8
rdata$r	SEGMENT DWORD USE32 PUBLIC 'CONST'
rdata$r	ENDS
;	COMDAT ??_G?$ctype@D@std@@MAEPAXI@Z
_TEXT	SEGMENT PARA USE32 PUBLIC 'CODE'
_TEXT	ENDS
;	COMDAT ??_S?$numpunct@_W@std@@6B@
CONST	SEGMENT DWORD USE32 PUBLIC 'CONST'
CONST	ENDS
;	COMDAT ??_S?$numpunct@D@std@@6B@
CONST	SEGMENT DWORD USE32 PUBLIC 'CONST'
CONST	ENDS
;	COMDAT _wmemmove
_TEXT	SEGMENT PARA USE32 PUBLIC 'CODE'
_TEXT	ENDS
;	COMDAT ?deallocate@?$allocator@_W@std@@QAEXPA_WI@Z
_TEXT	SEGMENT PARA USE32 PUBLIC 'CODE'
_TEXT	ENDS
;	COMDAT ??0?$allocator@_W@std@@QAE@ABV01@@Z
_TEXT	SEGMENT PARA USE32 PUBLIC 'CODE'
_TEXT	ENDS
;	COMDAT ?IsLocked@CStringData@ATL@@QBE_NXZ
_TEXT	SEGMENT PARA USE32 PUBLIC 'CODE'
_TEXT	ENDS
;	COMDAT ?Release@CStringData@ATL@@QAEXXZ
_TEXT	SEGMENT PARA USE32 PUBLIC 'CODE'
_TEXT	ENDS
;	COMDAT ?data@CStringData@ATL@@QAEPAXXZ
_TEXT	SEGMENT PARA USE32 PUBLIC 'CODE'
_TEXT	ENDS
;	COMDAT ?AtlThrow@ATL@@YGXJ@Z
_TEXT	SEGMENT PARA USE32 PUBLIC 'CODE'
_TEXT	ENDS
;	COMDAT ?IsShared@CStringData@ATL@@QBE_NXZ
_TEXT	SEGMENT PARA USE32 PUBLIC 'CODE'
_TEXT	ENDS
;	COMDAT ?GetDefaultManager@?$StrTraitMFC_DLL@DV?$ChTraitsCRT@D@ATL@@@@SAPAUIAtlStringMgr@ATL@@XZ
_TEXT	SEGMENT PARA USE32 PUBLIC 'CODE'
_TEXT	ENDS
;	COMDAT ?FindStringResourceInstance@?$StrTraitMFC_DLL@DV?$ChTraitsCRT@D@ATL@@@@SAPAUHINSTANCE__@@I@Z
_TEXT	SEGMENT PARA USE32 PUBLIC 'CODE'
_TEXT	ENDS
;	COMDAT ?AtlGetStringResourceImage@ATL@@YAPBUATLSTRINGRESOURCEIMAGE@1@PAUHINSTANCE__@@I@Z
_TEXT	SEGMENT PARA USE32 PUBLIC 'CODE'
_TEXT	ENDS
;	COMDAT ?_AtlGetStringResourceImage@ATL@@YAPBUATLSTRINGRESOURCEIMAGE@1@PAUHINSTANCE__@@PAUHRSRC__@@I@Z
_TEXT	SEGMENT PARA USE32 PUBLIC 'CODE'
_TEXT	ENDS
;	COMDAT ?GetBaseTypeLength@?$ChTraitsCRT@D@ATL@@SAHPB_WH@Z
_TEXT	SEGMENT PARA USE32 PUBLIC 'CODE'
_TEXT	ENDS
;	COMDAT ?_AtlGetConversionACP@ATL@@YGIXZ
_TEXT	SEGMENT PARA USE32 PUBLIC 'CODE'
_TEXT	ENDS
;	COMDAT ?g_pfnGetThreadACP@ATL@@3P6GIXZA
_DATA	SEGMENT DWORD USE32 PUBLIC 'DATA'
_DATA	ENDS
;	COMDAT ?_AtlGetThreadACPThunk@ATL@@YGIXZ
_TEXT	SEGMENT PARA USE32 PUBLIC 'CODE'
_TEXT	ENDS
;	COMDAT ?_AtlGetThreadACPReal@ATL@@YGIXZ
_TEXT	SEGMENT PARA USE32 PUBLIC 'CODE'
_TEXT	ENDS
;	COMDAT ?_AtlGetThreadACPFake@ATL@@YGIXZ
_TEXT	SEGMENT PARA USE32 PUBLIC 'CODE'
_TEXT	ENDS
;	COMDAT ?InterlockedExchangePointer@@YGPAXPAPAXPAX@Z
_TEXT	SEGMENT PARA USE32 PUBLIC 'CODE'
_TEXT	ENDS
;	COMDAT ?ConvertToBaseType@?$ChTraitsCRT@D@ATL@@SAXPADHPB_WH@Z
_TEXT	SEGMENT PARA USE32 PUBLIC 'CODE'
_TEXT	ENDS
;	COMDAT ?AddRef@CStringData@ATL@@QAEXXZ
_TEXT	SEGMENT PARA USE32 PUBLIC 'CODE'
_TEXT	ENDS
;	COMDAT ??0?$allocator@D@std@@QAE@ABV01@@Z
_TEXT	SEGMENT PARA USE32 PUBLIC 'CODE'
_TEXT	ENDS
;	COMDAT ??0?$allocator@D@std@@QAE@XZ
_TEXT	SEGMENT PARA USE32 PUBLIC 'CODE'
_TEXT	ENDS
;	COMDAT ?DoDataExchange@CWnd@@MAEXPAVCDataExchange@@@Z
_TEXT	SEGMENT PARA USE32 PUBLIC 'CODE'
_TEXT	ENDS
;	COMDAT ?_messageEntries@CDownDialog@@0QBUAFX_MSGMAP_ENTRY@@B
CONST	SEGMENT DWORD USE32 PUBLIC 'CONST'
CONST	ENDS
;	COMDAT ?messageMap@CDownDialog@@1UAFX_MSGMAP@@B
CONST	SEGMENT DWORD USE32 PUBLIC 'CONST'
CONST	ENDS
;	COMDAT ??_7BaseDialog@@6B@
CONST	SEGMENT DWORD USE32 PUBLIC 'CONST'
CONST	ENDS
;	COMDAT ??3CObject@@SGXPAX@Z
_TEXT	SEGMENT PARA USE32 PUBLIC 'CODE'
_TEXT	ENDS
;	COMDAT ??_7CDownDialog@@6B@
CONST	SEGMENT DWORD USE32 PUBLIC 'CONST'
CONST	ENDS
;	COMDAT ?classCDownDialog@CDownDialog@@2UCRuntimeClass@@B
CONST	SEGMENT DWORD USE32 PUBLIC 'CONST'
CONST	ENDS
;	COMDAT ?AfxGetApp@@YGPAVCWinApp@@XZ
_TEXT	SEGMENT PARA USE32 PUBLIC 'CODE'
_TEXT	ENDS
;	COMDAT ?LoadIconA@CWinApp@@QBEPAUHICON__@@PBD@Z
_TEXT	SEGMENT PARA USE32 PUBLIC 'CODE'
_TEXT	ENDS
;	COMDAT ?GetSafeHwnd@CWnd@@QBEPAUHWND__@@XZ
_TEXT	SEGMENT PARA USE32 PUBLIC 'CODE'
_TEXT	ENDS
sxdata	SEGMENT DWORD USE32 'SXDATA'
sxdata	ENDS
FLAT	GROUP _DATA, CONST, _BSS
	ASSUME	CS: FLAT, DS: FLAT, SS: FLAT
endif

INCLUDELIB MSVCRT
INCLUDELIB OLDNAMES

PUBLIC	?g_pfnGetThreadACP@ATL@@3P6GIXZA		; ATL::g_pfnGetThreadACP
PUBLIC	?_AtlGetThreadACPThunk@ATL@@YGIXZ		; ATL::_AtlGetThreadACPThunk
PUBLIC	?classCDownDialog@CDownDialog@@2UCRuntimeClass@@B ; CDownDialog::classCDownDialog
PUBLIC	?_messageEntries@CDownDialog@@0QBUAFX_MSGMAP_ENTRY@@B ; CDownDialog::_messageEntries
PUBLIC	?messageMap@CDownDialog@@1UAFX_MSGMAP@@B	; CDownDialog::messageMap
PUBLIC	?OnBnClickedButton1@CDownDialog@@IAEXXZ		; CDownDialog::OnBnClickedButton1
PUBLIC	?OnBtnBroPicSavePath@CDownDialog@@IAEXXZ	; CDownDialog::OnBtnBroPicSavePath
EXTRN	?GetThisClass@BaseDialog@@SGPAUCRuntimeClass@@XZ:NEAR ; BaseDialog::GetThisClass
EXTRN	?GetThisMessageMap@BaseDialog@@KGPBUAFX_MSGMAP@@XZ:NEAR ; BaseDialog::GetThisMessageMap
CONST	SEGMENT
$SG197662 DB	'int', 00H
CONST	ENDS
_DATA	SEGMENT
_TYPE_CONFIG_INT DD FLAT:$SG197662
_DATA	ENDS
CONST	SEGMENT
$SG197664 DB	'str', 00H
CONST	ENDS
_DATA	SEGMENT
_TYPE_CONFIG_STR DD FLAT:$SG197664
_DATA	ENDS
CONST	SEGMENT
$SG197666 DB	'double', 00H
CONST	ENDS
_DATA	SEGMENT
_TYPE_CONFIG_DOUBLE DD FLAT:$SG197666
_DATA	ENDS
CONST	SEGMENT
	ORG $+1
$SG197668 DB	'bool', 00H
CONST	ENDS
_DATA	SEGMENT
_TYPE_CONFIG_BOOL DD FLAT:$SG197668
_DATA	ENDS
CONST	SEGMENT
	ORG $+3
$SG197670 DB	'sepint', 00H
CONST	ENDS
_DATA	SEGMENT
_TYPE_CONFIG_INT_HASSEP DD FLAT:$SG197670
_DATA	ENDS
CONST	SEGMENT
	ORG $+1
$SG197672 DB	'sepstr', 00H
CONST	ENDS
_DATA	SEGMENT
_TYPE_CONFIG_STR_HASSEP DD FLAT:$SG197672
_DATA	ENDS
CONST	SEGMENT
	ORG $+1
$SG197674 DB	'sepdouble', 00H
CONST	ENDS
_DATA	SEGMENT
_TYPE_CONFIG_DOUBLE_HASSEP DD FLAT:$SG197674
_DATA	ENDS
CONST	SEGMENT
	ORG $+2
$SG197676 DB	'sepbool', 00H
CONST	ENDS
_DATA	SEGMENT
_TYPE_CONFIG_BOOL_HASSEP DD FLAT:$SG197676
_DATA	ENDS
CONST	SEGMENT
$SG197678 DB	'App', 00H
CONST	ENDS
_DATA	SEGMENT
_CONF_APP_MODULE_NAME DD FLAT:$SG197678
_DATA	ENDS
CONST	SEGMENT
$SG197680 DB	'SwfPath', 00H
CONST	ENDS
_DATA	SEGMENT
_CONF_APP_SWF_PATH DD FLAT:$SG197680
_DATA	ENDS
CONST	SEGMENT
$SG197682 DB	'MainWndHold', 00H
CONST	ENDS
_DATA	SEGMENT
_CONF_APP_MAINWND_HOLD DD FLAT:$SG197682
_DATA	ENDS
CONST	SEGMENT
$SG197684 DB	'RunCount', 00H
CONST	ENDS
_DATA	SEGMENT
_CONF_APP_RUN_COUNT DD FLAT:$SG197684
_DATA	ENDS
CONST	SEGMENT
	ORG $+3
$SG197686 DB	'PlayedGame', 00H
CONST	ENDS
_DATA	SEGMENT
_CONF_APP_PLAYED_GAME DD FLAT:$SG197686
_DATA	ENDS
CONST	SEGMENT
	ORG $+1
$SG197688 DB	'playedPcGame', 00H
CONST	ENDS
_DATA	SEGMENT
_CONF_APP_PLAYED_PC_GAME DD FLAT:$SG197688
_DATA	ENDS
CONST	SEGMENT
	ORG $+3
$SG197690 DB	'PlayedIconSize', 00H
CONST	ENDS
_DATA	SEGMENT
_CONF_APP_PLAYED_ICON_SIZE DD FLAT:$SG197690
_DATA	ENDS
CONST	SEGMENT
	ORG $+1
$SG197692 DB	'PictureSavePath', 00H
CONST	ENDS
_DATA	SEGMENT
_CONF_APP_PIC_SAVE_PATH DD FLAT:$SG197692
_DATA	ENDS
CONST	SEGMENT
$SG198127 DB	'CDownDialog', 00H
CONST	ENDS
;	COMDAT ?classCDownDialog@CDownDialog@@2UCRuntimeClass@@B
CONST	SEGMENT
?classCDownDialog@CDownDialog@@2UCRuntimeClass@@B DD FLAT:$SG198127 ; CDownDialog::classCDownDialog
	DD	0208H
	DD	0ffffH
	DD	00H
	DD	FLAT:?GetThisClass@BaseDialog@@SGPAUCRuntimeClass@@XZ
	DD	00H
	DD	00H
CONST	ENDS
;	COMDAT ?_messageEntries@CDownDialog@@0QBUAFX_MSGMAP_ENTRY@@B
CONST	SEGMENT
?_messageEntries@CDownDialog@@0QBUAFX_MSGMAP_ENTRY@@B DD 0111H ; CDownDialog::_messageEntries
	DD	00H
	DD	03eaH
	DD	03eaH
	DD	035H
	DD	FLAT:?OnBnClickedButton1@CDownDialog@@IAEXXZ
	DD	0111H
	DD	00H
	DD	03ecH
	DD	03ecH
	DD	035H
	DD	FLAT:?OnBtnBroPicSavePath@CDownDialog@@IAEXXZ
	DD	00H
	DD	00H
	DD	00H
	DD	00H
	DD	00H
	DD	00H
CONST	ENDS
;	COMDAT ?messageMap@CDownDialog@@1UAFX_MSGMAP@@B
CONST	SEGMENT
?messageMap@CDownDialog@@1UAFX_MSGMAP@@B DD FLAT:?GetThisMessageMap@BaseDialog@@KGPBUAFX_MSGMAP@@XZ ; CDownDialog::messageMap
	DD	FLAT:?_messageEntries@CDownDialog@@0QBUAFX_MSGMAP_ENTRY@@B
CONST	ENDS
CONST	SEGMENT
$SG198187 DB	0cdH, 0bcH, 0c6H, 0acH, 0b1H, 0a3H, 0b4H, 0e6H, 0c2H, 0b7H
	DB	0beH, 0b6H, 0b2H, 0bbH, 0d5H, 0fdH, 0c8H, 0b7H, ',', 0c7H, 0ebH
	DB	0b5H, 0a5H, 0bbH, 0f7H, 0e4H, 0afH, 0c0H, 0c0H, 0d6H, 0d8H, 0d0H
	DB	0c2H, 0d1H, 0a1H, 0d4H, 0f1H, 00H
	ORG $+2
$SG198228 DB	0cfH, 0c2H, 0d4H, 0d8H, 0c4H, 0bfH, 0c2H, 0bcH, 0ceH, 0deH
	DB	0b7H, 0a8H, 0b7H, 0c3H, 0ceH, 0caH, 00H
	ORG $+3
$SG198235 DB	0d1H, 0a1H, 0d4H, 0f1H, 0d3H, 0ceH, 0cfH, 0b7H, 0b4H, 0e6H
	DB	0b7H, 0c5H, 0c4H, 0bfH, 0c2H, 0bcH, 00H
	ORG $+3
$SG198244 DB	0cfH, 0c2H, 0d4H, 0d8H, 00H
	ORG $+3
$SG198245 DB	0b4H, 0edH, 0ceH, 0f3H, 0b5H, 0c4H, 0b4H, 0e6H, 0b7H, 0c5H
	DB	0c4H, 0bfH, 0c2H, 0bcH, ', ', 0c7H, 0ebH, 0d6H, 0d8H, 0d0H, 0c2H
	DB	0c9H, 0e8H, 0d6H, 0c3H, '!', 00H
$SG198254 DB	0d1H, 0a1H, 0d4H, 0f1H, 0d3H, 0ceH, 0cfH, 0b7H, 0bdH, 0d8H
	DB	0cdH, 0bcH, 0b4H, 0e6H, 0b7H, 0c5H, 0c4H, 0bfH, 0c2H, 0bcH, 00H
	ORG $+3
$SG198263 DB	0cfH, 0c2H, 0d4H, 0d8H, 00H
	ORG $+3
$SG198264 DB	0c4H, 0bfH, 0c2H, 0bcH, 0b4H, 0edH, 0ceH, 0f3H, ', ', 0c7H
	DB	0ebH, 0d6H, 0d8H, 0d0H, 0c2H, 0c9H, 0e8H, 0d6H, 0c3H, '!', 00H
CONST	ENDS
;	COMDAT ?g_pfnGetThreadACP@ATL@@3P6GIXZA
_DATA	SEGMENT
?g_pfnGetThreadACP@ATL@@3P6GIXZA DD FLAT:?_AtlGetThreadACPThunk@ATL@@YGIXZ ; ATL::g_pfnGetThreadACP
_DATA	ENDS
PUBLIC	?GetThisClass@CDownDialog@@SGPAUCRuntimeClass@@XZ ; CDownDialog::GetThisClass
; Function compile flags: /Odt
; File d:\boxgit\playbox\playbox\dev\prj\playbox\src\appconfig\config\dlg\dlgdown.cpp
_TEXT	SEGMENT
?GetThisClass@CDownDialog@@SGPAUCRuntimeClass@@XZ PROC NEAR ; CDownDialog::GetThisClass

; 10   : IMPLEMENT_DYNAMIC(CDownDialog, BaseDialog)

  00000	55		 push	 ebp
  00001	8b ec		 mov	 ebp, esp
  00003	b8 00 00 00 00	 mov	 eax, OFFSET FLAT:?classCDownDialog@CDownDialog@@2UCRuntimeClass@@B ; CDownDialog::classCDownDialog
  00008	5d		 pop	 ebp
  00009	c3		 ret	 0
?GetThisClass@CDownDialog@@SGPAUCRuntimeClass@@XZ ENDP	; CDownDialog::GetThisClass
_TEXT	ENDS
PUBLIC	?GetRuntimeClass@CDownDialog@@UBEPAUCRuntimeClass@@XZ ; CDownDialog::GetRuntimeClass
; Function compile flags: /Odt
_TEXT	SEGMENT
_this$ = -4						; size = 4
?GetRuntimeClass@CDownDialog@@UBEPAUCRuntimeClass@@XZ PROC NEAR ; CDownDialog::GetRuntimeClass
; _this$ = ecx

; 10   : IMPLEMENT_DYNAMIC(CDownDialog, BaseDialog)

  00010	55		 push	 ebp
  00011	8b ec		 mov	 ebp, esp
  00013	51		 push	 ecx
  00014	89 4d fc	 mov	 DWORD PTR _this$[ebp], ecx
  00017	b8 00 00 00 00	 mov	 eax, OFFSET FLAT:?classCDownDialog@CDownDialog@@2UCRuntimeClass@@B ; CDownDialog::classCDownDialog
  0001c	8b e5		 mov	 esp, ebp
  0001e	5d		 pop	 ebp
  0001f	c3		 ret	 0
?GetRuntimeClass@CDownDialog@@UBEPAUCRuntimeClass@@XZ ENDP ; CDownDialog::GetRuntimeClass
_TEXT	ENDS
PUBLIC	?Create@CDialog@@UAEHIPAVCWnd@@@Z		; CDialog::Create
PUBLIC	??_R1A@?0A@A@CObject@@8				; CObject::`RTTI Base Class Descriptor at (0,-1,0,0)'
PUBLIC	??_R0?AVCObject@@@8				; CObject `RTTI Type Descriptor'
PUBLIC	??_R1A@?0A@A@CWnd@@8				; CWnd::`RTTI Base Class Descriptor at (0,-1,0,0)'
PUBLIC	??_R0?AVCWnd@@@8				; CWnd `RTTI Type Descriptor'
PUBLIC	??_R1A@?0A@A@CCmdTarget@@8			; CCmdTarget::`RTTI Base Class Descriptor at (0,-1,0,0)'
PUBLIC	??_R0?AVCCmdTarget@@@8				; CCmdTarget `RTTI Type Descriptor'
PUBLIC	??_R1A@?0A@A@CDialog@@8				; CDialog::`RTTI Base Class Descriptor at (0,-1,0,0)'
PUBLIC	??_R0?AVCDialog@@@8				; CDialog `RTTI Type Descriptor'
PUBLIC	?Serialize@CObject@@UAEXAAVCArchive@@@Z		; CObject::Serialize
PUBLIC	?AssertValid@CObject@@UBEXXZ			; CObject::AssertValid
PUBLIC	?Dump@CObject@@UBEXAAVCDumpContext@@@Z		; CObject::Dump
PUBLIC	??_R4CDownDialog@@6B@				; CDownDialog::`RTTI Complete Object Locator'
PUBLIC	??_R0?AVCDownDialog@@@8				; CDownDialog `RTTI Type Descriptor'
PUBLIC	??_R3CDownDialog@@8				; CDownDialog::`RTTI Class Hierarchy Descriptor'
PUBLIC	??_R2CDownDialog@@8				; CDownDialog::`RTTI Base Class Array'
PUBLIC	??_R1A@?0A@A@CDownDialog@@8			; CDownDialog::`RTTI Base Class Descriptor at (0,-1,0,0)'
PUBLIC	??_R1A@?0A@A@BaseDialog@@8			; BaseDialog::`RTTI Base Class Descriptor at (0,-1,0,0)'
PUBLIC	??_R0?AVBaseDialog@@@8				; BaseDialog `RTTI Type Descriptor'
PUBLIC	??0BaseDialog@@QAE@XZ				; BaseDialog::BaseDialog
PUBLIC	??1BaseDialog@@UAE@XZ				; BaseDialog::~BaseDialog
PUBLIC	??0CDownDialog@@QAE@PAVCWnd@@@Z			; CDownDialog::CDownDialog
PUBLIC	?SetDefault@CDownDialog@@UAEXXZ			; CDownDialog::SetDefault
PUBLIC	?LoadConf@CDownDialog@@UAEXXZ			; CDownDialog::LoadConf
PUBLIC	?SaveConf@CDownDialog@@UAEX_N@Z			; CDownDialog::SaveConf
PUBLIC	?IsAllInputOK@CDownDialog@@UAE_NAAV?$basic_string@DU?$char_traits@D@std@@V?$allocator@D@2@@std@@@Z ; CDownDialog::IsAllInputOK
PUBLIC	?DoDataExchange@CDownDialog@@MAEXPAVCDataExchange@@@Z ; CDownDialog::DoDataExchange
PUBLIC	?GetMessageMap@CDownDialog@@MBEPBUAFX_MSGMAP@@XZ ; CDownDialog::GetMessageMap
PUBLIC	??_7CDownDialog@@6B@				; CDownDialog::`vftable'
PUBLIC	??_GCDownDialog@@UAEPAXI@Z			; CDownDialog::`scalar deleting destructor'
PUBLIC	?BeginModalState@CWnd@@UAEXXZ			; CWnd::BeginModalState
PUBLIC	?EndModalState@CWnd@@UAEXXZ			; CWnd::EndModalState
EXTRN	?CreateControlContainer@CWnd@@MAEHPAPAVCOleControlContainer@@@Z:NEAR ; CWnd::CreateControlContainer
EXTRN	?CreateControlSite@CWnd@@MAEHPAVCOleControlContainer@@PAPAVCOleControlSite@@IABU_GUID@@@Z:NEAR ; CWnd::CreateControlSite
EXTRN	?Create@CDialog@@UAEHPBDPAVCWnd@@@Z:NEAR	; CDialog::Create
EXTRN	?CreateIndirect@CDialog@@UAEHPBUDLGTEMPLATE@@PAVCWnd@@PAX@Z:NEAR ; CDialog::CreateIndirect
EXTRN	?CreateIndirect@CDialog@@UAEHPAXPAVCWnd@@@Z:NEAR ; CDialog::CreateIndirect
EXTRN	?OnToolHitTest@CWnd@@UBEHVCPoint@@PAUtagTOOLINFOA@@@Z:NEAR ; CWnd::OnToolHitTest
EXTRN	??0CDialog@@QAE@IPAVCWnd@@@Z:NEAR		; CDialog::CDialog
EXTRN	__except_list:DWORD
EXTRN	___CxxFrameHandler:NEAR
EXTRN	?DoModal@CDialog@@UAEHXZ:NEAR			; CDialog::DoModal
EXTRN	?OnSetFont@CDialog@@UAEXPAVCFont@@@Z:NEAR	; CDialog::OnSetFont
EXTRN	??1CDialog@@UAE@XZ:NEAR				; CDialog::~CDialog
EXTRN	?PreTranslateMessage@CDialog@@UAEHPAUtagMSG@@@Z:NEAR ; CDialog::PreTranslateMessage
EXTRN	?OnCmdMsg@CDialog@@UAEHIHPAXPAUAFX_CMDHANDLERINFO@@@Z:NEAR ; CDialog::OnCmdMsg
EXTRN	?CheckAutoCenter@CDialog@@UAEHXZ:NEAR		; CDialog::CheckAutoCenter
EXTRN	?SetOccDialogInfo@CDialog@@MAEHPAU_AFX_OCC_DIALOG_INFO@@@Z:NEAR ; CDialog::SetOccDialogInfo
EXTRN	?PreInitDialog@CDialog@@MAEXXZ:NEAR		; CDialog::PreInitDialog
EXTRN	__imp_??0?$CStringT@DV?$StrTraitMFC_DLL@DV?$ChTraitsCRT@D@ATL@@@@@ATL@@QAE@XZ:NEAR
EXTRN	?GetScrollBarCtrl@CWnd@@UBEPAVCScrollBar@@H@Z:NEAR ; CWnd::GetScrollBarCtrl
EXTRN	__imp_??1?$CStringT@DV?$StrTraitMFC_DLL@DV?$ChTraitsCRT@D@ATL@@@@@ATL@@QAE@XZ:NEAR
EXTRN	?WinHelpA@CWnd@@UAEXKI@Z:NEAR			; CWnd::WinHelpA
EXTRN	?HtmlHelpA@CWnd@@UAEXKI@Z:NEAR			; CWnd::HtmlHelpA
EXTRN	?WinHelpInternal@CWnd@@UAEXKI@Z:NEAR		; CWnd::WinHelpInternal
EXTRN	?ContinueModal@CWnd@@UAEHXZ:NEAR		; CWnd::ContinueModal
EXTRN	?EndModalLoop@CWnd@@UAEXH@Z:NEAR		; CWnd::EndModalLoop
EXTRN	?GetInterfaceMap@CWnd@@MBEPBUAFX_INTERFACEMAP@@XZ:NEAR ; CWnd::GetInterfaceMap
EXTRN	?EnsureStdObj@CWnd@@UAEJXZ:NEAR			; CWnd::EnsureStdObj
EXTRN	?get_accParent@CWnd@@UAEJPAPAUIDispatch@@@Z:NEAR ; CWnd::get_accParent
EXTRN	?get_accChildCount@CWnd@@UAEJPAJ@Z:NEAR		; CWnd::get_accChildCount
EXTRN	?get_accChild@CWnd@@UAEJUtagVARIANT@@PAPAUIDispatch@@@Z:NEAR ; CWnd::get_accChild
EXTRN	?IsInvokeAllowed@CCmdTarget@@UAEHJ@Z:NEAR	; CCmdTarget::IsInvokeAllowed
EXTRN	?get_accName@CWnd@@UAEJUtagVARIANT@@PAPA_W@Z:NEAR ; CWnd::get_accName
EXTRN	?get_accValue@CWnd@@UAEJUtagVARIANT@@PAPA_W@Z:NEAR ; CWnd::get_accValue
EXTRN	?get_accDescription@CWnd@@UAEJUtagVARIANT@@PAPA_W@Z:NEAR ; CWnd::get_accDescription
EXTRN	?GetDispatchIID@CCmdTarget@@UAEHPAU_GUID@@@Z:NEAR ; CCmdTarget::GetDispatchIID
EXTRN	?GetTypeInfoCount@CCmdTarget@@UAEIXZ:NEAR	; CCmdTarget::GetTypeInfoCount
EXTRN	?GetTypeLibCache@CCmdTarget@@UAEPAVCTypeLibCache@@XZ:NEAR ; CCmdTarget::GetTypeLibCache
EXTRN	?get_accRole@CWnd@@UAEJUtagVARIANT@@PAU2@@Z:NEAR ; CWnd::get_accRole
EXTRN	?GetTypeLib@CCmdTarget@@UAEJKPAPAUITypeLib@@@Z:NEAR ; CCmdTarget::GetTypeLib
EXTRN	?get_accState@CWnd@@UAEJUtagVARIANT@@PAU2@@Z:NEAR ; CWnd::get_accState
EXTRN	?get_accHelp@CWnd@@UAEJUtagVARIANT@@PAPA_W@Z:NEAR ; CWnd::get_accHelp
EXTRN	?get_accHelpTopic@CWnd@@UAEJPAPA_WUtagVARIANT@@PAJ@Z:NEAR ; CWnd::get_accHelpTopic
EXTRN	?get_accKeyboardShortcut@CWnd@@UAEJUtagVARIANT@@PAPA_W@Z:NEAR ; CWnd::get_accKeyboardShortcut
EXTRN	?get_accFocus@CWnd@@UAEJPAUtagVARIANT@@@Z:NEAR	; CWnd::get_accFocus
EXTRN	?get_accSelection@CWnd@@UAEJPAUtagVARIANT@@@Z:NEAR ; CWnd::get_accSelection
EXTRN	?get_accDefaultAction@CWnd@@UAEJUtagVARIANT@@PAPA_W@Z:NEAR ; CWnd::get_accDefaultAction
EXTRN	?GetCommandMap@CCmdTarget@@MBEPBUAFX_OLECMDMAP@@XZ:NEAR ; CCmdTarget::GetCommandMap
EXTRN	?accSelect@CWnd@@UAEJJUtagVARIANT@@@Z:NEAR	; CWnd::accSelect
EXTRN	?accLocation@CWnd@@UAEJPAJ000UtagVARIANT@@@Z:NEAR ; CWnd::accLocation
EXTRN	?GetDispatchMap@CCmdTarget@@MBEPBUAFX_DISPMAP@@XZ:NEAR ; CCmdTarget::GetDispatchMap
EXTRN	?accNavigate@CWnd@@UAEJJUtagVARIANT@@PAU2@@Z:NEAR ; CWnd::accNavigate
EXTRN	?accHitTest@CWnd@@UAEJJJPAUtagVARIANT@@@Z:NEAR	; CWnd::accHitTest
EXTRN	?GetConnectionMap@CCmdTarget@@MBEPBUAFX_CONNECTIONMAP@@XZ:NEAR ; CCmdTarget::GetConnectionMap
EXTRN	?accDoDefaultAction@CWnd@@UAEJUtagVARIANT@@@Z:NEAR ; CWnd::accDoDefaultAction
EXTRN	?put_accName@CWnd@@UAEJUtagVARIANT@@PA_W@Z:NEAR	; CWnd::put_accName
EXTRN	?put_accValue@CWnd@@UAEJUtagVARIANT@@PA_W@Z:NEAR ; CWnd::put_accValue
EXTRN	?SetProxy@CWnd@@UAEJPAUIAccessibleProxy@@@Z:NEAR ; CWnd::SetProxy
EXTRN	?CreateAccessibleProxy@CWnd@@UAEJIJPAJ@Z:NEAR	; CWnd::CreateAccessibleProxy
EXTRN	?GetEventSinkMap@CCmdTarget@@MBEPBUAFX_EVENTSINKMAP@@XZ:NEAR ; CCmdTarget::GetEventSinkMap
EXTRN	?OnCreateAggregates@CCmdTarget@@UAEHXZ:NEAR	; CCmdTarget::OnCreateAggregates
EXTRN	?OnCommand@CWnd@@MAEHIJ@Z:NEAR			; CWnd::OnCommand
EXTRN	?GetInterfaceHook@CCmdTarget@@UAEPAUIUnknown@@PBX@Z:NEAR ; CCmdTarget::GetInterfaceHook
EXTRN	?OnNotify@CWnd@@MAEHIJPAJ@Z:NEAR		; CWnd::OnNotify
EXTRN	?GetExtraConnectionPoints@CCmdTarget@@MAEHPAVCPtrArray@@@Z:NEAR ; CCmdTarget::GetExtraConnectionPoints
EXTRN	?GetConnectionHook@CCmdTarget@@MAEPAUIConnectionPoint@@ABU_GUID@@@Z:NEAR ; CCmdTarget::GetConnectionHook
EXTRN	??0SetBaseStatic@@QAE@XZ:NEAR			; SetBaseStatic::SetBaseStatic
EXTRN	??1SetBaseStatic@@UAE@XZ:NEAR			; SetBaseStatic::~SetBaseStatic
EXTRN	??0SetBaseEdit@@QAE@XZ:NEAR			; SetBaseEdit::SetBaseEdit
EXTRN	??1SetBaseEdit@@UAE@XZ:NEAR			; SetBaseEdit::~SetBaseEdit
EXTRN	?PreSubclassWindow@CWnd@@UAEXXZ:NEAR		; CWnd::PreSubclassWindow
EXTRN	?Create@CWnd@@UAEHPBD0KABUtagRECT@@PAV1@IPAUCCreateContext@@@Z:NEAR ; CWnd::Create
EXTRN	?OnOK@BaseDialog@@MAEXXZ:NEAR			; BaseDialog::OnOK
EXTRN	?OnCancel@BaseDialog@@MAEXXZ:NEAR		; BaseDialog::OnCancel
EXTRN	?OnInitDialog@BaseDialog@@MAEHXZ:NEAR		; BaseDialog::OnInitDialog
EXTRN	?SthChanged@BaseDialog@@UAEXXZ:NEAR		; BaseDialog::SthChanged
EXTRN	?CreateEx@CWnd@@UAEHKPBD0KHHHHPAUHWND__@@PAUHMENU__@@PAX@Z:NEAR ; CWnd::CreateEx
EXTRN	?CreateEx@CWnd@@UAEHKPBD0KABUtagRECT@@PAV1@IPAX@Z:NEAR ; CWnd::CreateEx
EXTRN	?DestroyWindow@CWnd@@UAEHXZ:NEAR		; CWnd::DestroyWindow
EXTRN	?PreCreateWindow@CWnd@@UAEHAAUtagCREATESTRUCTA@@@Z:NEAR ; CWnd::PreCreateWindow
EXTRN	?CalcWindowRect@CWnd@@UAEXPAUtagRECT@@I@Z:NEAR	; CWnd::CalcWindowRect
EXTRN	??_ECDownDialog@@UAEPAXI@Z:NEAR			; CDownDialog::`vector deleting destructor'
EXTRN	?GetSuperWndProcAddr@CWnd@@MAEPAP6GJPAUHWND__@@IIJ@ZXZ:NEAR ; CWnd::GetSuperWndProcAddr
EXTRN	??_7type_info@@6B@:QWORD			; type_info::`vftable'
EXTRN	?OnAmbientProperty@CWnd@@UAEHPAVCOleControlSite@@JPAUtagVARIANT@@@Z:NEAR ; CWnd::OnAmbientProperty
EXTRN	?WindowProc@CWnd@@MAEJIIJ@Z:NEAR		; CWnd::WindowProc
EXTRN	?OnWndMsg@CWnd@@MAEHIIJPAJ@Z:NEAR		; CWnd::OnWndMsg
EXTRN	?DefWindowProcA@CWnd@@MAEJIIJ@Z:NEAR		; CWnd::DefWindowProcA
EXTRN	?PostNcDestroy@CWnd@@MAEXXZ:NEAR		; CWnd::PostNcDestroy
EXTRN	?OnChildNotify@CWnd@@MAEHIIJPAJ@Z:NEAR		; CWnd::OnChildNotify
EXTRN	?IsFrameWnd@CWnd@@UBEHXZ:NEAR			; CWnd::IsFrameWnd
EXTRN	?OnFinalRelease@CWnd@@UAEXXZ:NEAR		; CWnd::OnFinalRelease
xdata$x	SEGMENT
$T198792 DD	0ffffffffH
	DD	FLAT:$L198778
	DD	00H
	DD	FLAT:$L198779
	DD	01H
	DD	FLAT:$L198780
	DD	02H
	DD	FLAT:$L198781
	DD	03H
	DD	FLAT:$L198782
	DD	04H
	DD	FLAT:$L198783
	DD	05H
	DD	FLAT:$L198784
$T198789 DD	019930520H
	DD	07H
	DD	FLAT:$T198792
	DD	2 DUP(00H)
	DD	2 DUP(00H)
xdata$x	ENDS
;	COMDAT ??_7CDownDialog@@6B@
CONST	SEGMENT
??_7CDownDialog@@6B@ DD FLAT:??_R4CDownDialog@@6B@	; CDownDialog::`vftable'
	DD	FLAT:?GetRuntimeClass@CDownDialog@@UBEPAUCRuntimeClass@@XZ
	DD	FLAT:??_ECDownDialog@@UAEPAXI@Z
	DD	FLAT:?Serialize@CObject@@UAEXAAVCArchive@@@Z
	DD	FLAT:?AssertValid@CObject@@UBEXXZ
	DD	FLAT:?Dump@CObject@@UBEXAAVCDumpContext@@@Z
	DD	FLAT:?OnCmdMsg@CDialog@@UAEHIHPAXPAUAFX_CMDHANDLERINFO@@@Z
	DD	FLAT:?OnFinalRelease@CWnd@@UAEXXZ
	DD	FLAT:?IsInvokeAllowed@CCmdTarget@@UAEHJ@Z
	DD	FLAT:?GetDispatchIID@CCmdTarget@@UAEHPAU_GUID@@@Z
	DD	FLAT:?GetTypeInfoCount@CCmdTarget@@UAEIXZ
	DD	FLAT:?GetTypeLibCache@CCmdTarget@@UAEPAVCTypeLibCache@@XZ
	DD	FLAT:?GetTypeLib@CCmdTarget@@UAEJKPAPAUITypeLib@@@Z
	DD	FLAT:?GetMessageMap@CDownDialog@@MBEPBUAFX_MSGMAP@@XZ
	DD	FLAT:?GetCommandMap@CCmdTarget@@MBEPBUAFX_OLECMDMAP@@XZ
	DD	FLAT:?GetDispatchMap@CCmdTarget@@MBEPBUAFX_DISPMAP@@XZ
	DD	FLAT:?GetConnectionMap@CCmdTarget@@MBEPBUAFX_CONNECTIONMAP@@XZ
	DD	FLAT:?GetInterfaceMap@CWnd@@MBEPBUAFX_INTERFACEMAP@@XZ
	DD	FLAT:?GetEventSinkMap@CCmdTarget@@MBEPBUAFX_EVENTSINKMAP@@XZ
	DD	FLAT:?OnCreateAggregates@CCmdTarget@@UAEHXZ
	DD	FLAT:?GetInterfaceHook@CCmdTarget@@UAEPAUIUnknown@@PBX@Z
	DD	FLAT:?GetExtraConnectionPoints@CCmdTarget@@MAEHPAVCPtrArray@@@Z
	DD	FLAT:?GetConnectionHook@CCmdTarget@@MAEPAUIConnectionPoint@@ABU_GUID@@@Z
	DD	FLAT:?PreSubclassWindow@CWnd@@UAEXXZ
	DD	FLAT:?Create@CWnd@@UAEHPBD0KABUtagRECT@@PAV1@IPAUCCreateContext@@@Z
	DD	FLAT:?CreateEx@CWnd@@UAEHKPBD0KABUtagRECT@@PAV1@IPAX@Z
	DD	FLAT:?CreateEx@CWnd@@UAEHKPBD0KHHHHPAUHWND__@@PAUHMENU__@@PAX@Z
	DD	FLAT:?DestroyWindow@CWnd@@UAEHXZ
	DD	FLAT:?PreCreateWindow@CWnd@@UAEHAAUtagCREATESTRUCTA@@@Z
	DD	FLAT:?CalcWindowRect@CWnd@@UAEXPAUtagRECT@@I@Z
	DD	FLAT:?OnToolHitTest@CWnd@@UBEHVCPoint@@PAUtagTOOLINFOA@@@Z
	DD	FLAT:?GetScrollBarCtrl@CWnd@@UBEPAVCScrollBar@@H@Z
	DD	FLAT:?WinHelpA@CWnd@@UAEXKI@Z
	DD	FLAT:?HtmlHelpA@CWnd@@UAEXKI@Z
	DD	FLAT:?WinHelpInternal@CWnd@@UAEXKI@Z
	DD	FLAT:?ContinueModal@CWnd@@UAEHXZ
	DD	FLAT:?EndModalLoop@CWnd@@UAEXH@Z
	DD	FLAT:?EnsureStdObj@CWnd@@UAEJXZ
	DD	FLAT:?get_accParent@CWnd@@UAEJPAPAUIDispatch@@@Z
	DD	FLAT:?get_accChildCount@CWnd@@UAEJPAJ@Z
	DD	FLAT:?get_accChild@CWnd@@UAEJUtagVARIANT@@PAPAUIDispatch@@@Z
	DD	FLAT:?get_accName@CWnd@@UAEJUtagVARIANT@@PAPA_W@Z
	DD	FLAT:?get_accValue@CWnd@@UAEJUtagVARIANT@@PAPA_W@Z
	DD	FLAT:?get_accDescription@CWnd@@UAEJUtagVARIANT@@PAPA_W@Z
	DD	FLAT:?get_accRole@CWnd@@UAEJUtagVARIANT@@PAU2@@Z
	DD	FLAT:?get_accState@CWnd@@UAEJUtagVARIANT@@PAU2@@Z
	DD	FLAT:?get_accHelp@CWnd@@UAEJUtagVARIANT@@PAPA_W@Z
	DD	FLAT:?get_accHelpTopic@CWnd@@UAEJPAPA_WUtagVARIANT@@PAJ@Z
	DD	FLAT:?get_accKeyboardShortcut@CWnd@@UAEJUtagVARIANT@@PAPA_W@Z
	DD	FLAT:?get_accFocus@CWnd@@UAEJPAUtagVARIANT@@@Z
	DD	FLAT:?get_accSelection@CWnd@@UAEJPAUtagVARIANT@@@Z
	DD	FLAT:?get_accDefaultAction@CWnd@@UAEJUtagVARIANT@@PAPA_W@Z
	DD	FLAT:?accSelect@CWnd@@UAEJJUtagVARIANT@@@Z
	DD	FLAT:?accLocation@CWnd@@UAEJPAJ000UtagVARIANT@@@Z
	DD	FLAT:?accNavigate@CWnd@@UAEJJUtagVARIANT@@PAU2@@Z
	DD	FLAT:?accHitTest@CWnd@@UAEJJJPAUtagVARIANT@@@Z
	DD	FLAT:?accDoDefaultAction@CWnd@@UAEJUtagVARIANT@@@Z
	DD	FLAT:?put_accName@CWnd@@UAEJUtagVARIANT@@PA_W@Z
	DD	FLAT:?put_accValue@CWnd@@UAEJUtagVARIANT@@PA_W@Z
	DD	FLAT:?SetProxy@CWnd@@UAEJPAUIAccessibleProxy@@@Z
	DD	FLAT:?CreateAccessibleProxy@CWnd@@UAEJIJPAJ@Z
	DD	FLAT:?OnCommand@CWnd@@MAEHIJ@Z
	DD	FLAT:?OnNotify@CWnd@@MAEHIJPAJ@Z
	DD	FLAT:?GetSuperWndProcAddr@CWnd@@MAEPAP6GJPAUHWND__@@IIJ@ZXZ
	DD	FLAT:?DoDataExchange@CDownDialog@@MAEXPAVCDataExchange@@@Z
	DD	FLAT:?BeginModalState@CWnd@@UAEXXZ
	DD	FLAT:?EndModalState@CWnd@@UAEXXZ
	DD	FLAT:?PreTranslateMessage@CDialog@@UAEHPAUtagMSG@@@Z
	DD	FLAT:?OnAmbientProperty@CWnd@@UAEHPAVCOleControlSite@@JPAUtagVARIANT@@@Z
	DD	FLAT:?WindowProc@CWnd@@MAEJIIJ@Z
	DD	FLAT:?OnWndMsg@CWnd@@MAEHIIJPAJ@Z
	DD	FLAT:?DefWindowProcA@CWnd@@MAEJIIJ@Z
	DD	FLAT:?PostNcDestroy@CWnd@@MAEXXZ
	DD	FLAT:?OnChildNotify@CWnd@@MAEHIIJPAJ@Z
	DD	FLAT:?CheckAutoCenter@CDialog@@UAEHXZ
	DD	FLAT:?IsFrameWnd@CWnd@@UBEHXZ
	DD	FLAT:?CreateControlContainer@CWnd@@MAEHPAPAVCOleControlContainer@@@Z
	DD	FLAT:?CreateControlSite@CWnd@@MAEHPAVCOleControlContainer@@PAPAVCOleControlSite@@IABU_GUID@@@Z
	DD	FLAT:?SetOccDialogInfo@CDialog@@MAEHPAU_AFX_OCC_DIALOG_INFO@@@Z
	DD	FLAT:?Create@CDialog@@UAEHIPAVCWnd@@@Z
	DD	FLAT:?Create@CDialog@@UAEHPBDPAVCWnd@@@Z
	DD	FLAT:?CreateIndirect@CDialog@@UAEHPAXPAVCWnd@@@Z
	DD	FLAT:?CreateIndirect@CDialog@@UAEHPBUDLGTEMPLATE@@PAVCWnd@@PAX@Z
	DD	FLAT:?DoModal@CDialog@@UAEHXZ
	DD	FLAT:?OnInitDialog@BaseDialog@@MAEHXZ
	DD	FLAT:?OnSetFont@CDialog@@UAEXPAVCFont@@@Z
	DD	FLAT:?OnOK@BaseDialog@@MAEXXZ
	DD	FLAT:?OnCancel@BaseDialog@@MAEXXZ
	DD	FLAT:?PreInitDialog@CDialog@@MAEXXZ
	DD	FLAT:?SthChanged@BaseDialog@@UAEXXZ
	DD	FLAT:?SetDefault@CDownDialog@@UAEXXZ
	DD	FLAT:?LoadConf@CDownDialog@@UAEXXZ
	DD	FLAT:?SaveConf@CDownDialog@@UAEX_N@Z
	DD	FLAT:?IsAllInputOK@CDownDialog@@UAE_NAAV?$basic_string@DU?$char_traits@D@std@@V?$allocator@D@2@@std@@@Z
CONST	ENDS
;	COMDAT ??_R4CDownDialog@@6B@
rdata$r	SEGMENT
??_R4CDownDialog@@6B@ DD 00H				; CDownDialog::`RTTI Complete Object Locator'
	DD	00H
	DD	00H
	DD	FLAT:??_R0?AVCDownDialog@@@8
	DD	FLAT:??_R3CDownDialog@@8
rdata$r	ENDS
;	COMDAT ??_R0?AVCDownDialog@@@8
_DATA	SEGMENT
??_R0?AVCDownDialog@@@8 DD FLAT:??_7type_info@@6B@	; CDownDialog `RTTI Type Descriptor'
	DD	00H
	DB	'.?AVCDownDialog@@', 00H
_DATA	ENDS
;	COMDAT ??_R3CDownDialog@@8
rdata$r	SEGMENT
??_R3CDownDialog@@8 DD 00H				; CDownDialog::`RTTI Class Hierarchy Descriptor'
	DD	00H
	DD	06H
	DD	FLAT:??_R2CDownDialog@@8
rdata$r	ENDS
;	COMDAT ??_R2CDownDialog@@8
rdata$r	SEGMENT
??_R2CDownDialog@@8 DD FLAT:??_R1A@?0A@A@CDownDialog@@8	; CDownDialog::`RTTI Base Class Array'
	DD	FLAT:??_R1A@?0A@A@BaseDialog@@8
	DD	FLAT:??_R1A@?0A@A@CDialog@@8
	DD	FLAT:??_R1A@?0A@A@CWnd@@8
	DD	FLAT:??_R1A@?0A@A@CCmdTarget@@8
	DD	FLAT:??_R1A@?0A@A@CObject@@8
rdata$r	ENDS
;	COMDAT ??_R1A@?0A@A@CDownDialog@@8
rdata$r	SEGMENT
??_R1A@?0A@A@CDownDialog@@8 DD FLAT:??_R0?AVCDownDialog@@@8 ; CDownDialog::`RTTI Base Class Descriptor at (0,-1,0,0)'
	DD	05H
	DD	00H
	DD	0ffffffffH
	DD	00H
	DD	00H
rdata$r	ENDS
;	COMDAT ??_R1A@?0A@A@BaseDialog@@8
rdata$r	SEGMENT
??_R1A@?0A@A@BaseDialog@@8 DD FLAT:??_R0?AVBaseDialog@@@8 ; BaseDialog::`RTTI Base Class Descriptor at (0,-1,0,0)'
	DD	04H
	DD	00H
	DD	0ffffffffH
	DD	00H
	DD	00H
rdata$r	ENDS
;	COMDAT ??_R0?AVBaseDialog@@@8
_DATA	SEGMENT
??_R0?AVBaseDialog@@@8 DD FLAT:??_7type_info@@6B@	; BaseDialog `RTTI Type Descriptor'
	DD	00H
	DB	'.?AVBaseDialog@@', 00H
_DATA	ENDS
;	COMDAT ??_R1A@?0A@A@CDialog@@8
rdata$r	SEGMENT
??_R1A@?0A@A@CDialog@@8 DD FLAT:??_R0?AVCDialog@@@8	; CDialog::`RTTI Base Class Descriptor at (0,-1,0,0)'
	DD	03H
	DD	00H
	DD	0ffffffffH
	DD	00H
	DD	00H
rdata$r	ENDS
;	COMDAT ??_R0?AVCDialog@@@8
_DATA	SEGMENT
??_R0?AVCDialog@@@8 DD FLAT:??_7type_info@@6B@		; CDialog `RTTI Type Descriptor'
	DD	00H
	DB	'.?AVCDialog@@', 00H
_DATA	ENDS
;	COMDAT ??_R1A@?0A@A@CWnd@@8
rdata$r	SEGMENT
??_R1A@?0A@A@CWnd@@8 DD FLAT:??_R0?AVCWnd@@@8		; CWnd::`RTTI Base Class Descriptor at (0,-1,0,0)'
	DD	02H
	DD	00H
	DD	0ffffffffH
	DD	00H
	DD	00H
rdata$r	ENDS
;	COMDAT ??_R0?AVCWnd@@@8
_DATA	SEGMENT
??_R0?AVCWnd@@@8 DD FLAT:??_7type_info@@6B@		; CWnd `RTTI Type Descriptor'
	DD	00H
	DB	'.?AVCWnd@@', 00H
_DATA	ENDS
;	COMDAT ??_R1A@?0A@A@CCmdTarget@@8
rdata$r	SEGMENT
??_R1A@?0A@A@CCmdTarget@@8 DD FLAT:??_R0?AVCCmdTarget@@@8 ; CCmdTarget::`RTTI Base Class Descriptor at (0,-1,0,0)'
	DD	01H
	DD	00H
	DD	0ffffffffH
	DD	00H
	DD	00H
rdata$r	ENDS
;	COMDAT ??_R0?AVCCmdTarget@@@8
_DATA	SEGMENT
??_R0?AVCCmdTarget@@@8 DD FLAT:??_7type_info@@6B@	; CCmdTarget `RTTI Type Descriptor'
	DD	00H
	DB	'.?AVCCmdTarget@@', 00H
_DATA	ENDS
;	COMDAT ??_R1A@?0A@A@CObject@@8
rdata$r	SEGMENT
??_R1A@?0A@A@CObject@@8 DD FLAT:??_R0?AVCObject@@@8	; CObject::`RTTI Base Class Descriptor at (0,-1,0,0)'
	DD	00H
	DD	00H
	DD	0ffffffffH
	DD	00H
	DD	00H
rdata$r	ENDS
;	COMDAT ??_R0?AVCObject@@@8
_DATA	SEGMENT
??_R0?AVCObject@@@8 DD FLAT:??_7type_info@@6B@		; CObject `RTTI Type Descriptor'
	DD	00H
	DB	'.?AVCObject@@', 00H
; Function compile flags: /Odt
_DATA	ENDS
_TEXT	SEGMENT
_this$ = -132						; size = 4
$T198777 = -128						; size = 116
__$EHRec$ = -12						; size = 12
_pParent$ = 8						; size = 4
??0CDownDialog@@QAE@PAVCWnd@@@Z PROC NEAR		; CDownDialog::CDownDialog
; _this$ = ecx

; 12   : {

  00020	55		 push	 ebp
  00021	8b ec		 mov	 ebp, esp
  00023	6a ff		 push	 -1
  00025	68 00 00 00 00	 push	 __ehhandler$??0CDownDialog@@QAE@PAVCWnd@@@Z
  0002a	64 a1 00 00 00
	00		 mov	 eax, DWORD PTR fs:__except_list
  00030	50		 push	 eax
  00031	64 89 25 00 00
	00 00		 mov	 DWORD PTR fs:__except_list, esp
  00038	83 ec 78	 sub	 esp, 120		; 00000078H
  0003b	89 8d 7c ff ff
	ff		 mov	 DWORD PTR _this$[ebp], ecx
  00041	8b 8d 7c ff ff
	ff		 mov	 ecx, DWORD PTR _this$[ebp]
  00047	e8 00 00 00 00	 call	 ??0BaseDialog@@QAE@XZ
  0004c	c7 45 fc 00 00
	00 00		 mov	 DWORD PTR __$EHRec$[ebp+8], 0
  00053	8b 85 7c ff ff
	ff		 mov	 eax, DWORD PTR _this$[ebp]
  00059	c7 00 00 00 00
	00		 mov	 DWORD PTR [eax], OFFSET FLAT:??_7CDownDialog@@6B@
  0005f	8b 8d 7c ff ff
	ff		 mov	 ecx, DWORD PTR _this$[ebp]
  00065	81 c1 90 00 00
	00		 add	 ecx, 144		; 00000090H
  0006b	e8 00 00 00 00	 call	 ??0SetBaseStatic@@QAE@XZ ; SetBaseStatic::SetBaseStatic
  00070	c6 45 fc 01	 mov	 BYTE PTR __$EHRec$[ebp+8], 1
  00074	8b 8d 7c ff ff
	ff		 mov	 ecx, DWORD PTR _this$[ebp]
  0007a	81 c1 f4 00 00
	00		 add	 ecx, 244		; 000000f4H
  00080	e8 00 00 00 00	 call	 ??0SetBaseStatic@@QAE@XZ ; SetBaseStatic::SetBaseStatic
  00085	c6 45 fc 02	 mov	 BYTE PTR __$EHRec$[ebp+8], 2
  00089	8b 8d 7c ff ff
	ff		 mov	 ecx, DWORD PTR _this$[ebp]
  0008f	81 c1 58 01 00
	00		 add	 ecx, 344		; 00000158H
  00095	ff 15 00 00 00
	00		 call	 DWORD PTR __imp_??0?$CStringT@DV?$StrTraitMFC_DLL@DV?$ChTraitsCRT@D@ATL@@@@@ATL@@QAE@XZ
  0009b	c6 45 fc 03	 mov	 BYTE PTR __$EHRec$[ebp+8], 3
  0009f	8b 8d 7c ff ff
	ff		 mov	 ecx, DWORD PTR _this$[ebp]
  000a5	81 c1 5c 01 00
	00		 add	 ecx, 348		; 0000015cH
  000ab	e8 00 00 00 00	 call	 ??0SetBaseEdit@@QAE@XZ	; SetBaseEdit::SetBaseEdit
  000b0	c6 45 fc 04	 mov	 BYTE PTR __$EHRec$[ebp+8], 4
  000b4	8b 8d 7c ff ff
	ff		 mov	 ecx, DWORD PTR _this$[ebp]
  000ba	81 c1 b0 01 00
	00		 add	 ecx, 432		; 000001b0H
  000c0	ff 15 00 00 00
	00		 call	 DWORD PTR __imp_??0?$CStringT@DV?$StrTraitMFC_DLL@DV?$ChTraitsCRT@D@ATL@@@@@ATL@@QAE@XZ
  000c6	c6 45 fc 05	 mov	 BYTE PTR __$EHRec$[ebp+8], 5
  000ca	8b 8d 7c ff ff
	ff		 mov	 ecx, DWORD PTR _this$[ebp]
  000d0	81 c1 b4 01 00
	00		 add	 ecx, 436		; 000001b4H
  000d6	e8 00 00 00 00	 call	 ??0SetBaseEdit@@QAE@XZ	; SetBaseEdit::SetBaseEdit
  000db	c6 45 fc 06	 mov	 BYTE PTR __$EHRec$[ebp+8], 6

; 13   : 	CDialog( CDownDialog::IDD, pParent );

  000df	8b 4d 08	 mov	 ecx, DWORD PTR _pParent$[ebp]
  000e2	51		 push	 ecx
  000e3	68 cb 00 00 00	 push	 203			; 000000cbH
  000e8	8d 4d 80	 lea	 ecx, DWORD PTR $T198777[ebp]
  000eb	e8 00 00 00 00	 call	 ??0CDialog@@QAE@IPAVCWnd@@@Z ; CDialog::CDialog
  000f0	8d 4d 80	 lea	 ecx, DWORD PTR $T198777[ebp]
  000f3	e8 00 00 00 00	 call	 ??1CDialog@@UAE@XZ	; CDialog::~CDialog

; 14   : 
; 15   : }

  000f8	c7 45 fc ff ff
	ff ff		 mov	 DWORD PTR __$EHRec$[ebp+8], -1
  000ff	8b 85 7c ff ff
	ff		 mov	 eax, DWORD PTR _this$[ebp]
  00105	8b 4d f4	 mov	 ecx, DWORD PTR __$EHRec$[ebp]
  00108	64 89 0d 00 00
	00 00		 mov	 DWORD PTR fs:__except_list, ecx
  0010f	8b e5		 mov	 esp, ebp
  00111	5d		 pop	 ebp
  00112	c2 04 00	 ret	 4
_TEXT	ENDS
text$x	SEGMENT
$L198778:
  00000	8b 8d 7c ff ff
	ff		 mov	 ecx, DWORD PTR _this$[ebp]
  00006	e9 00 00 00 00	 jmp	 ??1BaseDialog@@UAE@XZ
$L198779:
  0000b	8b 8d 7c ff ff
	ff		 mov	 ecx, DWORD PTR _this$[ebp]
  00011	81 c1 90 00 00
	00		 add	 ecx, 144		; 00000090H
  00017	e9 00 00 00 00	 jmp	 ??1SetBaseStatic@@UAE@XZ ; SetBaseStatic::~SetBaseStatic
$L198780:
  0001c	8b 8d 7c ff ff
	ff		 mov	 ecx, DWORD PTR _this$[ebp]
  00022	81 c1 f4 00 00
	00		 add	 ecx, 244		; 000000f4H
  00028	e9 00 00 00 00	 jmp	 ??1SetBaseStatic@@UAE@XZ ; SetBaseStatic::~SetBaseStatic
$L198781:
  0002d	8b 8d 7c ff ff
	ff		 mov	 ecx, DWORD PTR _this$[ebp]
  00033	81 c1 58 01 00
	00		 add	 ecx, 344		; 00000158H
  00039	ff 25 00 00 00
	00		 jmp	 DWORD PTR __imp_??1?$CStringT@DV?$StrTraitMFC_DLL@DV?$ChTraitsCRT@D@ATL@@@@@ATL@@QAE@XZ
$L198782:
  0003f	8b 8d 7c ff ff
	ff		 mov	 ecx, DWORD PTR _this$[ebp]
  00045	81 c1 5c 01 00
	00		 add	 ecx, 348		; 0000015cH
  0004b	e9 00 00 00 00	 jmp	 ??1SetBaseEdit@@UAE@XZ	; SetBaseEdit::~SetBaseEdit
$L198783:
  00050	8b 8d 7c ff ff
	ff		 mov	 ecx, DWORD PTR _this$[ebp]
  00056	81 c1 b0 01 00
	00		 add	 ecx, 432		; 000001b0H
  0005c	ff 25 00 00 00
	00		 jmp	 DWORD PTR __imp_??1?$CStringT@DV?$StrTraitMFC_DLL@DV?$ChTraitsCRT@D@ATL@@@@@ATL@@QAE@XZ
$L198784:
  00062	8b 8d 7c ff ff
	ff		 mov	 ecx, DWORD PTR _this$[ebp]
  00068	81 c1 b4 01 00
	00		 add	 ecx, 436		; 000001b4H
  0006e	e9 00 00 00 00	 jmp	 ??1SetBaseEdit@@UAE@XZ	; SetBaseEdit::~SetBaseEdit
__ehhandler$??0CDownDialog@@QAE@PAVCWnd@@@Z:
  00073	b8 00 00 00 00	 mov	 eax, OFFSET FLAT:$T198789
  00078	e9 00 00 00 00	 jmp	 ___CxxFrameHandler
text$x	ENDS
??0CDownDialog@@QAE@PAVCWnd@@@Z ENDP			; CDownDialog::CDownDialog
PUBLIC	??3CObject@@SGXPAX@Z				; CObject::operator delete
PUBLIC	??1CDownDialog@@UAE@XZ				; CDownDialog::~CDownDialog
; Function compile flags: /Odt
;	COMDAT ??_GCDownDialog@@UAEPAXI@Z
_TEXT	SEGMENT
_this$ = -4						; size = 4
___flags$ = 8						; size = 4
??_GCDownDialog@@UAEPAXI@Z PROC NEAR			; CDownDialog::`scalar deleting destructor', COMDAT
; _this$ = ecx
  00000	55		 push	 ebp
  00001	8b ec		 mov	 ebp, esp
  00003	51		 push	 ecx
  00004	89 4d fc	 mov	 DWORD PTR _this$[ebp], ecx
  00007	8b 4d fc	 mov	 ecx, DWORD PTR _this$[ebp]
  0000a	e8 00 00 00 00	 call	 ??1CDownDialog@@UAE@XZ	; CDownDialog::~CDownDialog
  0000f	8b 45 08	 mov	 eax, DWORD PTR ___flags$[ebp]
  00012	83 e0 01	 and	 eax, 1
  00015	74 09		 je	 SHORT $L198144
  00017	8b 4d fc	 mov	 ecx, DWORD PTR _this$[ebp]
  0001a	51		 push	 ecx
  0001b	e8 00 00 00 00	 call	 ??3CObject@@SGXPAX@Z	; CObject::operator delete
$L198144:
  00020	8b 45 fc	 mov	 eax, DWORD PTR _this$[ebp]
  00023	8b e5		 mov	 esp, ebp
  00025	5d		 pop	 ebp
  00026	c2 04 00	 ret	 4
??_GCDownDialog@@UAEPAXI@Z ENDP				; CDownDialog::`scalar deleting destructor'
_TEXT	ENDS
PUBLIC	??_R4BaseDialog@@6B@				; BaseDialog::`RTTI Complete Object Locator'
PUBLIC	??_R3BaseDialog@@8				; BaseDialog::`RTTI Class Hierarchy Descriptor'
PUBLIC	??_R2BaseDialog@@8				; BaseDialog::`RTTI Base Class Array'
PUBLIC	??_7BaseDialog@@6B@				; BaseDialog::`vftable'
PUBLIC	??_GBaseDialog@@UAEPAXI@Z			; BaseDialog::`scalar deleting destructor'
PUBLIC	?DoDataExchange@CWnd@@MAEXPAVCDataExchange@@@Z	; CWnd::DoDataExchange
EXTRN	__purecall:NEAR
EXTRN	??0CDialog@@QAE@XZ:NEAR				; CDialog::CDialog
EXTRN	?GetRuntimeClass@BaseDialog@@UBEPAUCRuntimeClass@@XZ:NEAR ; BaseDialog::GetRuntimeClass
EXTRN	?GetMessageMap@BaseDialog@@MBEPBUAFX_MSGMAP@@XZ:NEAR ; BaseDialog::GetMessageMap
EXTRN	__imp_??0?$basic_string@DU?$char_traits@D@std@@V?$allocator@D@2@@std@@QAE@XZ:NEAR
EXTRN	??_EBaseDialog@@UAEPAXI@Z:NEAR			; BaseDialog::`vector deleting destructor'
;	COMDAT xdata$x
xdata$x	SEGMENT
$T198802 DD	0ffffffffH
	DD	FLAT:$L198797
$T198800 DD	019930520H
	DD	01H
	DD	FLAT:$T198802
	DD	2 DUP(00H)
	DD	2 DUP(00H)
xdata$x	ENDS
;	COMDAT ??_7BaseDialog@@6B@
CONST	SEGMENT
??_7BaseDialog@@6B@ DD FLAT:??_R4BaseDialog@@6B@	; BaseDialog::`vftable'
	DD	FLAT:?GetRuntimeClass@BaseDialog@@UBEPAUCRuntimeClass@@XZ
	DD	FLAT:??_EBaseDialog@@UAEPAXI@Z
	DD	FLAT:?Serialize@CObject@@UAEXAAVCArchive@@@Z
	DD	FLAT:?AssertValid@CObject@@UBEXXZ
	DD	FLAT:?Dump@CObject@@UBEXAAVCDumpContext@@@Z
	DD	FLAT:?OnCmdMsg@CDialog@@UAEHIHPAXPAUAFX_CMDHANDLERINFO@@@Z
	DD	FLAT:?OnFinalRelease@CWnd@@UAEXXZ
	DD	FLAT:?IsInvokeAllowed@CCmdTarget@@UAEHJ@Z
	DD	FLAT:?GetDispatchIID@CCmdTarget@@UAEHPAU_GUID@@@Z
	DD	FLAT:?GetTypeInfoCount@CCmdTarget@@UAEIXZ
	DD	FLAT:?GetTypeLibCache@CCmdTarget@@UAEPAVCTypeLibCache@@XZ
	DD	FLAT:?GetTypeLib@CCmdTarget@@UAEJKPAPAUITypeLib@@@Z
	DD	FLAT:?GetMessageMap@BaseDialog@@MBEPBUAFX_MSGMAP@@XZ
	DD	FLAT:?GetCommandMap@CCmdTarget@@MBEPBUAFX_OLECMDMAP@@XZ
	DD	FLAT:?GetDispatchMap@CCmdTarget@@MBEPBUAFX_DISPMAP@@XZ
	DD	FLAT:?GetConnectionMap@CCmdTarget@@MBEPBUAFX_CONNECTIONMAP@@XZ
	DD	FLAT:?GetInterfaceMap@CWnd@@MBEPBUAFX_INTERFACEMAP@@XZ
	DD	FLAT:?GetEventSinkMap@CCmdTarget@@MBEPBUAFX_EVENTSINKMAP@@XZ
	DD	FLAT:?OnCreateAggregates@CCmdTarget@@UAEHXZ
	DD	FLAT:?GetInterfaceHook@CCmdTarget@@UAEPAUIUnknown@@PBX@Z
	DD	FLAT:?GetExtraConnectionPoints@CCmdTarget@@MAEHPAVCPtrArray@@@Z
	DD	FLAT:?GetConnectionHook@CCmdTarget@@MAEPAUIConnectionPoint@@ABU_GUID@@@Z
	DD	FLAT:?PreSubclassWindow@CWnd@@UAEXXZ
	DD	FLAT:?Create@CWnd@@UAEHPBD0KABUtagRECT@@PAV1@IPAUCCreateContext@@@Z
	DD	FLAT:?CreateEx@CWnd@@UAEHKPBD0KABUtagRECT@@PAV1@IPAX@Z
	DD	FLAT:?CreateEx@CWnd@@UAEHKPBD0KHHHHPAUHWND__@@PAUHMENU__@@PAX@Z
	DD	FLAT:?DestroyWindow@CWnd@@UAEHXZ
	DD	FLAT:?PreCreateWindow@CWnd@@UAEHAAUtagCREATESTRUCTA@@@Z
	DD	FLAT:?CalcWindowRect@CWnd@@UAEXPAUtagRECT@@I@Z
	DD	FLAT:?OnToolHitTest@CWnd@@UBEHVCPoint@@PAUtagTOOLINFOA@@@Z
	DD	FLAT:?GetScrollBarCtrl@CWnd@@UBEPAVCScrollBar@@H@Z
	DD	FLAT:?WinHelpA@CWnd@@UAEXKI@Z
	DD	FLAT:?HtmlHelpA@CWnd@@UAEXKI@Z
	DD	FLAT:?WinHelpInternal@CWnd@@UAEXKI@Z
	DD	FLAT:?ContinueModal@CWnd@@UAEHXZ
	DD	FLAT:?EndModalLoop@CWnd@@UAEXH@Z
	DD	FLAT:?EnsureStdObj@CWnd@@UAEJXZ
	DD	FLAT:?get_accParent@CWnd@@UAEJPAPAUIDispatch@@@Z
	DD	FLAT:?get_accChildCount@CWnd@@UAEJPAJ@Z
	DD	FLAT:?get_accChild@CWnd@@UAEJUtagVARIANT@@PAPAUIDispatch@@@Z
	DD	FLAT:?get_accName@CWnd@@UAEJUtagVARIANT@@PAPA_W@Z
	DD	FLAT:?get_accValue@CWnd@@UAEJUtagVARIANT@@PAPA_W@Z
	DD	FLAT:?get_accDescription@CWnd@@UAEJUtagVARIANT@@PAPA_W@Z
	DD	FLAT:?get_accRole@CWnd@@UAEJUtagVARIANT@@PAU2@@Z
	DD	FLAT:?get_accState@CWnd@@UAEJUtagVARIANT@@PAU2@@Z
	DD	FLAT:?get_accHelp@CWnd@@UAEJUtagVARIANT@@PAPA_W@Z
	DD	FLAT:?get_accHelpTopic@CWnd@@UAEJPAPA_WUtagVARIANT@@PAJ@Z
	DD	FLAT:?get_accKeyboardShortcut@CWnd@@UAEJUtagVARIANT@@PAPA_W@Z
	DD	FLAT:?get_accFocus@CWnd@@UAEJPAUtagVARIANT@@@Z
	DD	FLAT:?get_accSelection@CWnd@@UAEJPAUtagVARIANT@@@Z
	DD	FLAT:?get_accDefaultAction@CWnd@@UAEJUtagVARIANT@@PAPA_W@Z
	DD	FLAT:?accSelect@CWnd@@UAEJJUtagVARIANT@@@Z
	DD	FLAT:?accLocation@CWnd@@UAEJPAJ000UtagVARIANT@@@Z
	DD	FLAT:?accNavigate@CWnd@@UAEJJUtagVARIANT@@PAU2@@Z
	DD	FLAT:?accHitTest@CWnd@@UAEJJJPAUtagVARIANT@@@Z
	DD	FLAT:?accDoDefaultAction@CWnd@@UAEJUtagVARIANT@@@Z
	DD	FLAT:?put_accName@CWnd@@UAEJUtagVARIANT@@PA_W@Z
	DD	FLAT:?put_accValue@CWnd@@UAEJUtagVARIANT@@PA_W@Z
	DD	FLAT:?SetProxy@CWnd@@UAEJPAUIAccessibleProxy@@@Z
	DD	FLAT:?CreateAccessibleProxy@CWnd@@UAEJIJPAJ@Z
	DD	FLAT:?OnCommand@CWnd@@MAEHIJ@Z
	DD	FLAT:?OnNotify@CWnd@@MAEHIJPAJ@Z
	DD	FLAT:?GetSuperWndProcAddr@CWnd@@MAEPAP6GJPAUHWND__@@IIJ@ZXZ
	DD	FLAT:?DoDataExchange@CWnd@@MAEXPAVCDataExchange@@@Z
	DD	FLAT:?BeginModalState@CWnd@@UAEXXZ
	DD	FLAT:?EndModalState@CWnd@@UAEXXZ
	DD	FLAT:?PreTranslateMessage@CDialog@@UAEHPAUtagMSG@@@Z
	DD	FLAT:?OnAmbientProperty@CWnd@@UAEHPAVCOleControlSite@@JPAUtagVARIANT@@@Z
	DD	FLAT:?WindowProc@CWnd@@MAEJIIJ@Z
	DD	FLAT:?OnWndMsg@CWnd@@MAEHIIJPAJ@Z
	DD	FLAT:?DefWindowProcA@CWnd@@MAEJIIJ@Z
	DD	FLAT:?PostNcDestroy@CWnd@@MAEXXZ
	DD	FLAT:?OnChildNotify@CWnd@@MAEHIIJPAJ@Z
	DD	FLAT:?CheckAutoCenter@CDialog@@UAEHXZ
	DD	FLAT:?IsFrameWnd@CWnd@@UBEHXZ
	DD	FLAT:?CreateControlContainer@CWnd@@MAEHPAPAVCOleControlContainer@@@Z
	DD	FLAT:?CreateControlSite@CWnd@@MAEHPAVCOleControlContainer@@PAPAVCOleControlSite@@IABU_GUID@@@Z
	DD	FLAT:?SetOccDialogInfo@CDialog@@MAEHPAU_AFX_OCC_DIALOG_INFO@@@Z
	DD	FLAT:?Create@CDialog@@UAEHIPAVCWnd@@@Z
	DD	FLAT:?Create@CDialog@@UAEHPBDPAVCWnd@@@Z
	DD	FLAT:?CreateIndirect@CDialog@@UAEHPAXPAVCWnd@@@Z
	DD	FLAT:?CreateIndirect@CDialog@@UAEHPBUDLGTEMPLATE@@PAVCWnd@@PAX@Z
	DD	FLAT:?DoModal@CDialog@@UAEHXZ
	DD	FLAT:?OnInitDialog@BaseDialog@@MAEHXZ
	DD	FLAT:?OnSetFont@CDialog@@UAEXPAVCFont@@@Z
	DD	FLAT:?OnOK@BaseDialog@@MAEXXZ
	DD	FLAT:?OnCancel@BaseDialog@@MAEXXZ
	DD	FLAT:?PreInitDialog@CDialog@@MAEXXZ
	DD	FLAT:?SthChanged@BaseDialog@@UAEXXZ
	DD	FLAT:__purecall
	DD	FLAT:__purecall
	DD	FLAT:__purecall
	DD	FLAT:__purecall
CONST	ENDS
;	COMDAT ??_R4BaseDialog@@6B@
rdata$r	SEGMENT
??_R4BaseDialog@@6B@ DD 00H				; BaseDialog::`RTTI Complete Object Locator'
	DD	00H
	DD	00H
	DD	FLAT:??_R0?AVBaseDialog@@@8
	DD	FLAT:??_R3BaseDialog@@8
rdata$r	ENDS
;	COMDAT ??_R3BaseDialog@@8
rdata$r	SEGMENT
??_R3BaseDialog@@8 DD 00H				; BaseDialog::`RTTI Class Hierarchy Descriptor'
	DD	00H
	DD	05H
	DD	FLAT:??_R2BaseDialog@@8
rdata$r	ENDS
;	COMDAT ??_R2BaseDialog@@8
rdata$r	SEGMENT
??_R2BaseDialog@@8 DD FLAT:??_R1A@?0A@A@BaseDialog@@8	; BaseDialog::`RTTI Base Class Array'
	DD	FLAT:??_R1A@?0A@A@CDialog@@8
	DD	FLAT:??_R1A@?0A@A@CWnd@@8
	DD	FLAT:??_R1A@?0A@A@CCmdTarget@@8
	DD	FLAT:??_R1A@?0A@A@CObject@@8
; Function compile flags: /Odt
rdata$r	ENDS
;	COMDAT ??0BaseDialog@@QAE@XZ
_TEXT	SEGMENT
_this$ = -16						; size = 4
__$EHRec$ = -12						; size = 12
??0BaseDialog@@QAE@XZ PROC NEAR				; BaseDialog::BaseDialog, COMDAT
; _this$ = ecx
  00000	55		 push	 ebp
  00001	8b ec		 mov	 ebp, esp
  00003	6a ff		 push	 -1
  00005	68 00 00 00 00	 push	 __ehhandler$??0BaseDialog@@QAE@XZ
  0000a	64 a1 00 00 00
	00		 mov	 eax, DWORD PTR fs:__except_list
  00010	50		 push	 eax
  00011	64 89 25 00 00
	00 00		 mov	 DWORD PTR fs:__except_list, esp
  00018	51		 push	 ecx
  00019	89 4d f0	 mov	 DWORD PTR _this$[ebp], ecx
  0001c	8b 4d f0	 mov	 ecx, DWORD PTR _this$[ebp]
  0001f	e8 00 00 00 00	 call	 ??0CDialog@@QAE@XZ	; CDialog::CDialog
  00024	c7 45 fc 00 00
	00 00		 mov	 DWORD PTR __$EHRec$[ebp+8], 0
  0002b	8b 45 f0	 mov	 eax, DWORD PTR _this$[ebp]
  0002e	c7 00 00 00 00
	00		 mov	 DWORD PTR [eax], OFFSET FLAT:??_7BaseDialog@@6B@
  00034	8b 4d f0	 mov	 ecx, DWORD PTR _this$[ebp]
  00037	83 c1 74	 add	 ecx, 116		; 00000074H
  0003a	ff 15 00 00 00
	00		 call	 DWORD PTR __imp_??0?$basic_string@DU?$char_traits@D@std@@V?$allocator@D@2@@std@@QAE@XZ
  00040	c7 45 fc ff ff
	ff ff		 mov	 DWORD PTR __$EHRec$[ebp+8], -1
  00047	8b 45 f0	 mov	 eax, DWORD PTR _this$[ebp]
  0004a	8b 4d f4	 mov	 ecx, DWORD PTR __$EHRec$[ebp]
  0004d	64 89 0d 00 00
	00 00		 mov	 DWORD PTR fs:__except_list, ecx
  00054	8b e5		 mov	 esp, ebp
  00056	5d		 pop	 ebp
  00057	c3		 ret	 0
_TEXT	ENDS
;	COMDAT text$x
text$x	SEGMENT
$L198797:
  00000	8b 4d f0	 mov	 ecx, DWORD PTR _this$[ebp]
  00003	e9 00 00 00 00	 jmp	 ??1CDialog@@UAE@XZ	; CDialog::~CDialog
__ehhandler$??0BaseDialog@@QAE@XZ:
  00008	b8 00 00 00 00	 mov	 eax, OFFSET FLAT:$T198800
  0000d	e9 00 00 00 00	 jmp	 ___CxxFrameHandler
text$x	ENDS
??0BaseDialog@@QAE@XZ ENDP				; BaseDialog::BaseDialog
EXTRN	__imp_??1?$basic_string@DU?$char_traits@D@std@@V?$allocator@D@2@@std@@QAE@XZ:NEAR
;	COMDAT xdata$x
xdata$x	SEGMENT
$T198812 DD	0ffffffffH
	DD	FLAT:$L198807
$T198810 DD	019930520H
	DD	01H
	DD	FLAT:$T198812
	DD	2 DUP(00H)
	DD	2 DUP(00H)
; Function compile flags: /Odt
xdata$x	ENDS
;	COMDAT ??1BaseDialog@@UAE@XZ
_TEXT	SEGMENT
_this$ = -16						; size = 4
__$EHRec$ = -12						; size = 12
??1BaseDialog@@UAE@XZ PROC NEAR				; BaseDialog::~BaseDialog, COMDAT
; _this$ = ecx
  00000	55		 push	 ebp
  00001	8b ec		 mov	 ebp, esp
  00003	6a ff		 push	 -1
  00005	68 00 00 00 00	 push	 __ehhandler$??1BaseDialog@@UAE@XZ
  0000a	64 a1 00 00 00
	00		 mov	 eax, DWORD PTR fs:__except_list
  00010	50		 push	 eax
  00011	64 89 25 00 00
	00 00		 mov	 DWORD PTR fs:__except_list, esp
  00018	51		 push	 ecx
  00019	89 4d f0	 mov	 DWORD PTR _this$[ebp], ecx
  0001c	c7 45 fc 00 00
	00 00		 mov	 DWORD PTR __$EHRec$[ebp+8], 0
  00023	8b 4d f0	 mov	 ecx, DWORD PTR _this$[ebp]
  00026	83 c1 74	 add	 ecx, 116		; 00000074H
  00029	ff 15 00 00 00
	00		 call	 DWORD PTR __imp_??1?$basic_string@DU?$char_traits@D@std@@V?$allocator@D@2@@std@@QAE@XZ
  0002f	c7 45 fc ff ff
	ff ff		 mov	 DWORD PTR __$EHRec$[ebp+8], -1
  00036	8b 4d f0	 mov	 ecx, DWORD PTR _this$[ebp]
  00039	e8 00 00 00 00	 call	 ??1CDialog@@UAE@XZ	; CDialog::~CDialog
  0003e	8b 4d f4	 mov	 ecx, DWORD PTR __$EHRec$[ebp]
  00041	64 89 0d 00 00
	00 00		 mov	 DWORD PTR fs:__except_list, ecx
  00048	8b e5		 mov	 esp, ebp
  0004a	5d		 pop	 ebp
  0004b	c3		 ret	 0
_TEXT	ENDS
;	COMDAT text$x
text$x	SEGMENT
$L198807:
  00000	8b 4d f0	 mov	 ecx, DWORD PTR _this$[ebp]
  00003	e9 00 00 00 00	 jmp	 ??1CDialog@@UAE@XZ	; CDialog::~CDialog
__ehhandler$??1BaseDialog@@UAE@XZ:
  00008	b8 00 00 00 00	 mov	 eax, OFFSET FLAT:$T198810
  0000d	e9 00 00 00 00	 jmp	 ___CxxFrameHandler
text$x	ENDS
??1BaseDialog@@UAE@XZ ENDP				; BaseDialog::~BaseDialog
; Function compile flags: /Odt
;	COMDAT ??_GBaseDialog@@UAEPAXI@Z
_TEXT	SEGMENT
_this$ = -4						; size = 4
___flags$ = 8						; size = 4
??_GBaseDialog@@UAEPAXI@Z PROC NEAR			; BaseDialog::`scalar deleting destructor', COMDAT
; _this$ = ecx
  00000	55		 push	 ebp
  00001	8b ec		 mov	 ebp, esp
  00003	51		 push	 ecx
  00004	89 4d fc	 mov	 DWORD PTR _this$[ebp], ecx
  00007	8b 4d fc	 mov	 ecx, DWORD PTR _this$[ebp]
  0000a	e8 00 00 00 00	 call	 ??1BaseDialog@@UAE@XZ
  0000f	8b 45 08	 mov	 eax, DWORD PTR ___flags$[ebp]
  00012	83 e0 01	 and	 eax, 1
  00015	74 09		 je	 SHORT $L198152
  00017	8b 4d fc	 mov	 ecx, DWORD PTR _this$[ebp]
  0001a	51		 push	 ecx
  0001b	e8 00 00 00 00	 call	 ??3CObject@@SGXPAX@Z	; CObject::operator delete
$L198152:
  00020	8b 45 fc	 mov	 eax, DWORD PTR _this$[ebp]
  00023	8b e5		 mov	 esp, ebp
  00025	5d		 pop	 ebp
  00026	c2 04 00	 ret	 4
??_GBaseDialog@@UAEPAXI@Z ENDP				; BaseDialog::`scalar deleting destructor'
_TEXT	ENDS
xdata$x	SEGMENT
$T198829 DD	0ffffffffH
	DD	FLAT:$L198819
	DD	00H
	DD	FLAT:$L198820
	DD	01H
	DD	FLAT:$L198821
	DD	02H
	DD	FLAT:$L198822
	DD	03H
	DD	FLAT:$L198823
	DD	04H
	DD	FLAT:$L198824
$T198827 DD	019930520H
	DD	06H
	DD	FLAT:$T198829
	DD	2 DUP(00H)
	DD	2 DUP(00H)
; Function compile flags: /Odt
xdata$x	ENDS
_TEXT	SEGMENT
_this$ = -16						; size = 4
__$EHRec$ = -12						; size = 12
??1CDownDialog@@UAE@XZ PROC NEAR			; CDownDialog::~CDownDialog
; _this$ = ecx

; 18   : {

  00120	55		 push	 ebp
  00121	8b ec		 mov	 ebp, esp
  00123	6a ff		 push	 -1
  00125	68 00 00 00 00	 push	 __ehhandler$??1CDownDialog@@UAE@XZ
  0012a	64 a1 00 00 00
	00		 mov	 eax, DWORD PTR fs:__except_list
  00130	50		 push	 eax
  00131	64 89 25 00 00
	00 00		 mov	 DWORD PTR fs:__except_list, esp
  00138	51		 push	 ecx
  00139	89 4d f0	 mov	 DWORD PTR _this$[ebp], ecx
  0013c	8b 45 f0	 mov	 eax, DWORD PTR _this$[ebp]
  0013f	c7 00 00 00 00
	00		 mov	 DWORD PTR [eax], OFFSET FLAT:??_7CDownDialog@@6B@
  00145	c7 45 fc 05 00
	00 00		 mov	 DWORD PTR __$EHRec$[ebp+8], 5

; 19   : }

  0014c	8b 4d f0	 mov	 ecx, DWORD PTR _this$[ebp]
  0014f	81 c1 b4 01 00
	00		 add	 ecx, 436		; 000001b4H
  00155	e8 00 00 00 00	 call	 ??1SetBaseEdit@@UAE@XZ	; SetBaseEdit::~SetBaseEdit
  0015a	c6 45 fc 04	 mov	 BYTE PTR __$EHRec$[ebp+8], 4
  0015e	8b 4d f0	 mov	 ecx, DWORD PTR _this$[ebp]
  00161	81 c1 b0 01 00
	00		 add	 ecx, 432		; 000001b0H
  00167	ff 15 00 00 00
	00		 call	 DWORD PTR __imp_??1?$CStringT@DV?$StrTraitMFC_DLL@DV?$ChTraitsCRT@D@ATL@@@@@ATL@@QAE@XZ
  0016d	c6 45 fc 03	 mov	 BYTE PTR __$EHRec$[ebp+8], 3
  00171	8b 4d f0	 mov	 ecx, DWORD PTR _this$[ebp]
  00174	81 c1 5c 01 00
	00		 add	 ecx, 348		; 0000015cH
  0017a	e8 00 00 00 00	 call	 ??1SetBaseEdit@@UAE@XZ	; SetBaseEdit::~SetBaseEdit
  0017f	c6 45 fc 02	 mov	 BYTE PTR __$EHRec$[ebp+8], 2
  00183	8b 4d f0	 mov	 ecx, DWORD PTR _this$[ebp]
  00186	81 c1 58 01 00
	00		 add	 ecx, 344		; 00000158H
  0018c	ff 15 00 00 00
	00		 call	 DWORD PTR __imp_??1?$CStringT@DV?$StrTraitMFC_DLL@DV?$ChTraitsCRT@D@ATL@@@@@ATL@@QAE@XZ
  00192	c6 45 fc 01	 mov	 BYTE PTR __$EHRec$[ebp+8], 1
  00196	8b 4d f0	 mov	 ecx, DWORD PTR _this$[ebp]
  00199	81 c1 f4 00 00
	00		 add	 ecx, 244		; 000000f4H
  0019f	e8 00 00 00 00	 call	 ??1SetBaseStatic@@UAE@XZ ; SetBaseStatic::~SetBaseStatic
  001a4	c6 45 fc 00	 mov	 BYTE PTR __$EHRec$[ebp+8], 0
  001a8	8b 4d f0	 mov	 ecx, DWORD PTR _this$[ebp]
  001ab	81 c1 90 00 00
	00		 add	 ecx, 144		; 00000090H
  001b1	e8 00 00 00 00	 call	 ??1SetBaseStatic@@UAE@XZ ; SetBaseStatic::~SetBaseStatic
  001b6	c7 45 fc ff ff
	ff ff		 mov	 DWORD PTR __$EHRec$[ebp+8], -1
  001bd	8b 4d f0	 mov	 ecx, DWORD PTR _this$[ebp]
  001c0	e8 00 00 00 00	 call	 ??1BaseDialog@@UAE@XZ
  001c5	8b 4d f4	 mov	 ecx, DWORD PTR __$EHRec$[ebp]
  001c8	64 89 0d 00 00
	00 00		 mov	 DWORD PTR fs:__except_list, ecx
  001cf	8b e5		 mov	 esp, ebp
  001d1	5d		 pop	 ebp
  001d2	c3		 ret	 0
_TEXT	ENDS
text$x	SEGMENT
$L198819:
  0007d	8b 4d f0	 mov	 ecx, DWORD PTR _this$[ebp]
  00080	e9 00 00 00 00	 jmp	 ??1BaseDialog@@UAE@XZ
$L198820:
  00085	8b 4d f0	 mov	 ecx, DWORD PTR _this$[ebp]
  00088	81 c1 90 00 00
	00		 add	 ecx, 144		; 00000090H
  0008e	e9 00 00 00 00	 jmp	 ??1SetBaseStatic@@UAE@XZ ; SetBaseStatic::~SetBaseStatic
$L198821:
  00093	8b 4d f0	 mov	 ecx, DWORD PTR _this$[ebp]
  00096	81 c1 f4 00 00
	00		 add	 ecx, 244		; 000000f4H
  0009c	e9 00 00 00 00	 jmp	 ??1SetBaseStatic@@UAE@XZ ; SetBaseStatic::~SetBaseStatic
$L198822:
  000a1	8b 4d f0	 mov	 ecx, DWORD PTR _this$[ebp]
  000a4	81 c1 58 01 00
	00		 add	 ecx, 344		; 00000158H
  000aa	ff 25 00 00 00
	00		 jmp	 DWORD PTR __imp_??1?$CStringT@DV?$StrTraitMFC_DLL@DV?$ChTraitsCRT@D@ATL@@@@@ATL@@QAE@XZ
$L198823:
  000b0	8b 4d f0	 mov	 ecx, DWORD PTR _this$[ebp]
  000b3	81 c1 5c 01 00
	00		 add	 ecx, 348		; 0000015cH
  000b9	e9 00 00 00 00	 jmp	 ??1SetBaseEdit@@UAE@XZ	; SetBaseEdit::~SetBaseEdit
$L198824:
  000be	8b 4d f0	 mov	 ecx, DWORD PTR _this$[ebp]
  000c1	81 c1 b0 01 00
	00		 add	 ecx, 432		; 000001b0H
  000c7	ff 25 00 00 00
	00		 jmp	 DWORD PTR __imp_??1?$CStringT@DV?$StrTraitMFC_DLL@DV?$ChTraitsCRT@D@ATL@@@@@ATL@@QAE@XZ
__ehhandler$??1CDownDialog@@UAE@XZ:
  000cd	b8 00 00 00 00	 mov	 eax, OFFSET FLAT:$T198827
  000d2	e9 00 00 00 00	 jmp	 ___CxxFrameHandler
text$x	ENDS
??1CDownDialog@@UAE@XZ ENDP				; CDownDialog::~CDownDialog
PUBLIC	?GetThisMessageMap@CDownDialog@@KGPBUAFX_MSGMAP@@XZ ; CDownDialog::GetThisMessageMap
; Function compile flags: /Odt
_TEXT	SEGMENT
?GetThisMessageMap@CDownDialog@@KGPBUAFX_MSGMAP@@XZ PROC NEAR ; CDownDialog::GetThisMessageMap

; 21   : BEGIN_MESSAGE_MAP(CDownDialog, BaseDialog)

  001e0	55		 push	 ebp
  001e1	8b ec		 mov	 ebp, esp
  001e3	b8 00 00 00 00	 mov	 eax, OFFSET FLAT:?messageMap@CDownDialog@@1UAFX_MSGMAP@@B ; CDownDialog::messageMap
  001e8	5d		 pop	 ebp
  001e9	c3		 ret	 0
?GetThisMessageMap@CDownDialog@@KGPBUAFX_MSGMAP@@XZ ENDP ; CDownDialog::GetThisMessageMap
; Function compile flags: /Odt
_this$ = -4						; size = 4
?GetMessageMap@CDownDialog@@MBEPBUAFX_MSGMAP@@XZ PROC NEAR ; CDownDialog::GetMessageMap
; _this$ = ecx

; 21   : BEGIN_MESSAGE_MAP(CDownDialog, BaseDialog)

  001f0	55		 push	 ebp
  001f1	8b ec		 mov	 ebp, esp
  001f3	51		 push	 ecx
  001f4	89 4d fc	 mov	 DWORD PTR _this$[ebp], ecx
  001f7	b8 00 00 00 00	 mov	 eax, OFFSET FLAT:?messageMap@CDownDialog@@1UAFX_MSGMAP@@B ; CDownDialog::messageMap
  001fc	8b e5		 mov	 esp, ebp
  001fe	5d		 pop	 ebp
  001ff	c3		 ret	 0
?GetMessageMap@CDownDialog@@MBEPBUAFX_MSGMAP@@XZ ENDP	; CDownDialog::GetMessageMap
_TEXT	ENDS
EXTRN	?DDX_Text@@YGXPAVCDataExchange@@HAAV?$CStringT@DV?$StrTraitMFC_DLL@DV?$ChTraitsCRT@D@ATL@@@@@ATL@@@Z:NEAR ; DDX_Text
EXTRN	?DDX_Control@@YGXPAVCDataExchange@@HAAVCWnd@@@Z:NEAR ; DDX_Control
; Function compile flags: /Odt
_TEXT	SEGMENT
_this$ = -4						; size = 4
_pDX$ = 8						; size = 4
?DoDataExchange@CDownDialog@@MAEXPAVCDataExchange@@@Z PROC NEAR ; CDownDialog::DoDataExchange
; _this$ = ecx

; 27   : {

  00200	55		 push	 ebp
  00201	8b ec		 mov	 ebp, esp
  00203	51		 push	 ecx
  00204	89 4d fc	 mov	 DWORD PTR _this$[ebp], ecx

; 28   : 	CDialog::DoDataExchange(pDX);

  00207	8b 45 08	 mov	 eax, DWORD PTR _pDX$[ebp]
  0020a	50		 push	 eax
  0020b	8b 4d fc	 mov	 ecx, DWORD PTR _this$[ebp]
  0020e	e8 00 00 00 00	 call	 ?DoDataExchange@CWnd@@MAEXPAVCDataExchange@@@Z ; CWnd::DoDataExchange

; 29   : 	
; 30   : 	DDX_Text(pDX, IDC_EDIT_SAVE_PATH, m_strPicSavePath);

  00213	8b 4d fc	 mov	 ecx, DWORD PTR _this$[ebp]
  00216	81 c1 b0 01 00
	00		 add	 ecx, 432		; 000001b0H
  0021c	51		 push	 ecx
  0021d	68 f2 03 00 00	 push	 1010			; 000003f2H
  00222	8b 55 08	 mov	 edx, DWORD PTR _pDX$[ebp]
  00225	52		 push	 edx
  00226	e8 00 00 00 00	 call	 ?DDX_Text@@YGXPAVCDataExchange@@HAAV?$CStringT@DV?$StrTraitMFC_DLL@DV?$ChTraitsCRT@D@ATL@@@@@ATL@@@Z ; DDX_Text

; 31   : 	DDX_Control(pDX, IDC_EDIT_SAVE_PATH, m_EditPicSavePath);

  0022b	8b 45 fc	 mov	 eax, DWORD PTR _this$[ebp]
  0022e	05 b4 01 00 00	 add	 eax, 436		; 000001b4H
  00233	50		 push	 eax
  00234	68 f2 03 00 00	 push	 1010			; 000003f2H
  00239	8b 4d 08	 mov	 ecx, DWORD PTR _pDX$[ebp]
  0023c	51		 push	 ecx
  0023d	e8 00 00 00 00	 call	 ?DDX_Control@@YGXPAVCDataExchange@@HAAVCWnd@@@Z ; DDX_Control

; 32   : 
; 33   : 	DDX_Text(pDX, IDC_EDIT1, m_strSwfPath);

  00242	8b 55 fc	 mov	 edx, DWORD PTR _this$[ebp]
  00245	81 c2 58 01 00
	00		 add	 edx, 344		; 00000158H
  0024b	52		 push	 edx
  0024c	68 e9 03 00 00	 push	 1001			; 000003e9H
  00251	8b 45 08	 mov	 eax, DWORD PTR _pDX$[ebp]
  00254	50		 push	 eax
  00255	e8 00 00 00 00	 call	 ?DDX_Text@@YGXPAVCDataExchange@@HAAV?$CStringT@DV?$StrTraitMFC_DLL@DV?$ChTraitsCRT@D@ATL@@@@@ATL@@@Z ; DDX_Text

; 34   : 	DDX_Control(pDX, IDC_EDIT1, m_EditSwfPath);

  0025a	8b 4d fc	 mov	 ecx, DWORD PTR _this$[ebp]
  0025d	81 c1 5c 01 00
	00		 add	 ecx, 348		; 0000015cH
  00263	51		 push	 ecx
  00264	68 e9 03 00 00	 push	 1001			; 000003e9H
  00269	8b 55 08	 mov	 edx, DWORD PTR _pDX$[ebp]
  0026c	52		 push	 edx
  0026d	e8 00 00 00 00	 call	 ?DDX_Control@@YGXPAVCDataExchange@@HAAVCWnd@@@Z ; DDX_Control

; 35   : 
; 36   : 	DDX_Control(pDX, IDC_STATIC1, m_static1);

  00272	8b 45 fc	 mov	 eax, DWORD PTR _this$[ebp]
  00275	05 90 00 00 00	 add	 eax, 144		; 00000090H
  0027a	50		 push	 eax
  0027b	68 96 00 00 00	 push	 150			; 00000096H
  00280	8b 4d 08	 mov	 ecx, DWORD PTR _pDX$[ebp]
  00283	51		 push	 ecx
  00284	e8 00 00 00 00	 call	 ?DDX_Control@@YGXPAVCDataExchange@@HAAVCWnd@@@Z ; DDX_Control

; 37   : 	DDX_Control(pDX, IDC_STATIC_PIC_SAVE_PATH, m_staticPicSavePath);

  00289	8b 55 fc	 mov	 edx, DWORD PTR _this$[ebp]
  0028c	81 c2 f4 00 00
	00		 add	 edx, 244		; 000000f4H
  00292	52		 push	 edx
  00293	68 f4 03 00 00	 push	 1012			; 000003f4H
  00298	8b 45 08	 mov	 eax, DWORD PTR _pDX$[ebp]
  0029b	50		 push	 eax
  0029c	e8 00 00 00 00	 call	 ?DDX_Control@@YGXPAVCDataExchange@@HAAVCWnd@@@Z ; DDX_Control

; 38   : }

  002a1	8b e5		 mov	 esp, ebp
  002a3	5d		 pop	 ebp
  002a4	c2 04 00	 ret	 4
?DoDataExchange@CDownDialog@@MAEXPAVCDataExchange@@@Z ENDP ; CDownDialog::DoDataExchange
_TEXT	ENDS
EXTRN	__imp_??B?$CSimpleStringT@D$00@ATL@@QBEPBDXZ:NEAR
EXTRN	__imp_?length@?$basic_string@DU?$char_traits@D@std@@V?$allocator@D@2@@std@@QBEIXZ:NEAR
EXTRN	___security_cookie:DWORD
EXTRN	@__security_check_cookie@4:NEAR
EXTRN	__imp_??0?$CStringT@DV?$StrTraitMFC_DLL@DV?$ChTraitsCRT@D@ATL@@@@@ATL@@QAE@ABV01@@Z:NEAR
EXTRN	?MessageBoxA@CWnd@@QAEHPBD0I@Z:NEAR		; CWnd::MessageBoxA
EXTRN	?SetConfigStringValue@AfxUserConfig@@QAEXABV?$basic_string@DU?$char_traits@D@std@@V?$allocator@D@2@@std@@00_N@Z:NEAR ; AfxUserConfig::SetConfigStringValue
EXTRN	?UpdateData@CWnd@@QAEHH@Z:NEAR			; CWnd::UpdateData
EXTRN	__imp_??0?$basic_string@DU?$char_traits@D@std@@V?$allocator@D@2@@std@@QAE@PBD@Z:NEAR
EXTRN	?MakeDir@YL_DirInfo@@SA_NABV?$basic_string@DU?$char_traits@D@std@@V?$allocator@D@2@@std@@@Z:NEAR ; YL_DirInfo::MakeDir
EXTRN	?AfxGetUserConfig@@YAPAVAfxUserConfig@@XZ:NEAR	; AfxGetUserConfig
xdata$x	SEGMENT
$T198853 DD	0ffffffffH
	DD	FLAT:$L198840
	DD	00H
	DD	FLAT:$L198841
	DD	01H
	DD	FLAT:$L198842
	DD	00H
	DD	FLAT:$L198843
	DD	03H
	DD	FLAT:$L198844
	DD	00H
	DD	FLAT:$L198844
	DD	05H
	DD	FLAT:$L198845
	DD	06H
	DD	FLAT:$L198846
$T198848 DD	019930520H
	DD	08H
	DD	FLAT:$T198853
	DD	2 DUP(00H)
	DD	2 DUP(00H)
; Function compile flags: /Odt
xdata$x	ENDS
_TEXT	SEGMENT
tv156 = -204						; size = 4
tv84 = -200						; size = 4
_this$ = -196						; size = 4
$T198839 = -192						; size = 28
$T198838 = -164						; size = 28
$T198837 = -136						; size = 4
$T198836 = -132						; size = 28
$T198835 = -104						; size = 28
_strPicSavePath$ = -76					; size = 28
_strValue$ = -48					; size = 28
__$ArrayPad$ = -20					; size = 4
_pUserConfig$ = -16					; size = 4
__$EHRec$ = -12						; size = 12
__$ReturnAddr$ = 4					; size = 4
_bSave2File$ = 8					; size = 1
?SaveConf@CDownDialog@@UAEX_N@Z PROC NEAR		; CDownDialog::SaveConf
; _this$ = ecx

; 41   : {

  002b0	55		 push	 ebp
  002b1	8b ec		 mov	 ebp, esp
  002b3	6a ff		 push	 -1
  002b5	68 00 00 00 00	 push	 __ehhandler$?SaveConf@CDownDialog@@UAEX_N@Z
  002ba	64 a1 00 00 00
	00		 mov	 eax, DWORD PTR fs:__except_list
  002c0	50		 push	 eax
  002c1	64 89 25 00 00
	00 00		 mov	 DWORD PTR fs:__except_list, esp
  002c8	81 ec c0 00 00
	00		 sub	 esp, 192		; 000000c0H
  002ce	a1 00 00 00 00	 mov	 eax, DWORD PTR ___security_cookie
  002d3	89 45 ec	 mov	 DWORD PTR __$ArrayPad$[ebp], eax
  002d6	89 8d 3c ff ff
	ff		 mov	 DWORD PTR _this$[ebp], ecx

; 42   : 	UpdateData();

  002dc	6a 01		 push	 1
  002de	8b 8d 3c ff ff
	ff		 mov	 ecx, DWORD PTR _this$[ebp]
  002e4	e8 00 00 00 00	 call	 ?UpdateData@CWnd@@QAEHH@Z ; CWnd::UpdateData

; 43   : 	AfxUserConfig*	pUserConfig = AfxGetUserConfig();

  002e9	e8 00 00 00 00	 call	 ?AfxGetUserConfig@@YAPAVAfxUserConfig@@XZ ; AfxGetUserConfig
  002ee	89 45 f0	 mov	 DWORD PTR _pUserConfig$[ebp], eax

; 44   : 
; 45   : 	string strValue = string(m_strSwfPath);

  002f1	8b 8d 3c ff ff
	ff		 mov	 ecx, DWORD PTR _this$[ebp]
  002f7	81 c1 58 01 00
	00		 add	 ecx, 344		; 00000158H
  002fd	ff 15 00 00 00
	00		 call	 DWORD PTR __imp_??B?$CSimpleStringT@D$00@ATL@@QBEPBDXZ
  00303	50		 push	 eax
  00304	8d 4d d0	 lea	 ecx, DWORD PTR _strValue$[ebp]
  00307	ff 15 00 00 00
	00		 call	 DWORD PTR __imp_??0?$basic_string@DU?$char_traits@D@std@@V?$allocator@D@2@@std@@QAE@PBD@Z
  0030d	c7 45 fc 00 00
	00 00		 mov	 DWORD PTR __$EHRec$[ebp+8], 0

; 46   : 	YL_DirInfo::MakeDir( strValue );

  00314	8d 45 d0	 lea	 eax, DWORD PTR _strValue$[ebp]
  00317	50		 push	 eax
  00318	e8 00 00 00 00	 call	 ?MakeDir@YL_DirInfo@@SA_NABV?$basic_string@DU?$char_traits@D@std@@V?$allocator@D@2@@std@@@Z ; YL_DirInfo::MakeDir
  0031d	83 c4 04	 add	 esp, 4

; 47   : 	pUserConfig->SetConfigStringValue( CONF_APP_MODULE_NAME, CONF_APP_SWF_PATH, strValue, bSave2File );

  00320	8b 0d 00 00 00
	00		 mov	 ecx, DWORD PTR _CONF_APP_SWF_PATH
  00326	51		 push	 ecx
  00327	8d 4d 98	 lea	 ecx, DWORD PTR $T198835[ebp]
  0032a	ff 15 00 00 00
	00		 call	 DWORD PTR __imp_??0?$basic_string@DU?$char_traits@D@std@@V?$allocator@D@2@@std@@QAE@PBD@Z
  00330	c6 45 fc 01	 mov	 BYTE PTR __$EHRec$[ebp+8], 1
  00334	8b 15 00 00 00
	00		 mov	 edx, DWORD PTR _CONF_APP_MODULE_NAME
  0033a	52		 push	 edx
  0033b	8d 8d 7c ff ff
	ff		 lea	 ecx, DWORD PTR $T198836[ebp]
  00341	ff 15 00 00 00
	00		 call	 DWORD PTR __imp_??0?$basic_string@DU?$char_traits@D@std@@V?$allocator@D@2@@std@@QAE@PBD@Z
  00347	c6 45 fc 02	 mov	 BYTE PTR __$EHRec$[ebp+8], 2
  0034b	8a 45 08	 mov	 al, BYTE PTR _bSave2File$[ebp]
  0034e	50		 push	 eax
  0034f	8d 4d d0	 lea	 ecx, DWORD PTR _strValue$[ebp]
  00352	51		 push	 ecx
  00353	8d 55 98	 lea	 edx, DWORD PTR $T198835[ebp]
  00356	52		 push	 edx
  00357	8d 85 7c ff ff
	ff		 lea	 eax, DWORD PTR $T198836[ebp]
  0035d	50		 push	 eax
  0035e	8b 4d f0	 mov	 ecx, DWORD PTR _pUserConfig$[ebp]
  00361	e8 00 00 00 00	 call	 ?SetConfigStringValue@AfxUserConfig@@QAEXABV?$basic_string@DU?$char_traits@D@std@@V?$allocator@D@2@@std@@00_N@Z ; AfxUserConfig::SetConfigStringValue
  00366	c6 45 fc 01	 mov	 BYTE PTR __$EHRec$[ebp+8], 1
  0036a	8d 8d 7c ff ff
	ff		 lea	 ecx, DWORD PTR $T198836[ebp]
  00370	ff 15 00 00 00
	00		 call	 DWORD PTR __imp_??1?$basic_string@DU?$char_traits@D@std@@V?$allocator@D@2@@std@@QAE@XZ
  00376	c6 45 fc 00	 mov	 BYTE PTR __$EHRec$[ebp+8], 0
  0037a	8d 4d 98	 lea	 ecx, DWORD PTR $T198835[ebp]
  0037d	ff 15 00 00 00
	00		 call	 DWORD PTR __imp_??1?$basic_string@DU?$char_traits@D@std@@V?$allocator@D@2@@std@@QAE@XZ

; 48   : 	// 
; 49   : 	// added by wang
; 50   : 	//	
; 51   : 	string strPicSavePath= (CString)m_strPicSavePath;

  00383	8b 8d 3c ff ff
	ff		 mov	 ecx, DWORD PTR _this$[ebp]
  00389	81 c1 b0 01 00
	00		 add	 ecx, 432		; 000001b0H
  0038f	51		 push	 ecx
  00390	8d 8d 78 ff ff
	ff		 lea	 ecx, DWORD PTR $T198837[ebp]
  00396	ff 15 00 00 00
	00		 call	 DWORD PTR __imp_??0?$CStringT@DV?$StrTraitMFC_DLL@DV?$ChTraitsCRT@D@ATL@@@@@ATL@@QAE@ABV01@@Z
  0039c	89 85 38 ff ff
	ff		 mov	 DWORD PTR tv84[ebp], eax
  003a2	8b 95 38 ff ff
	ff		 mov	 edx, DWORD PTR tv84[ebp]
  003a8	89 95 34 ff ff
	ff		 mov	 DWORD PTR tv156[ebp], edx
  003ae	c6 45 fc 03	 mov	 BYTE PTR __$EHRec$[ebp+8], 3
  003b2	8b 8d 34 ff ff
	ff		 mov	 ecx, DWORD PTR tv156[ebp]
  003b8	ff 15 00 00 00
	00		 call	 DWORD PTR __imp_??B?$CSimpleStringT@D$00@ATL@@QBEPBDXZ
  003be	50		 push	 eax
  003bf	8d 4d b4	 lea	 ecx, DWORD PTR _strPicSavePath$[ebp]
  003c2	ff 15 00 00 00
	00		 call	 DWORD PTR __imp_??0?$basic_string@DU?$char_traits@D@std@@V?$allocator@D@2@@std@@QAE@PBD@Z
  003c8	c6 45 fc 05	 mov	 BYTE PTR __$EHRec$[ebp+8], 5
  003cc	8d 8d 78 ff ff
	ff		 lea	 ecx, DWORD PTR $T198837[ebp]
  003d2	ff 15 00 00 00
	00		 call	 DWORD PTR __imp_??1?$CStringT@DV?$StrTraitMFC_DLL@DV?$ChTraitsCRT@D@ATL@@@@@ATL@@QAE@XZ

; 52   : 	if (strPicSavePath.length()<=0)

  003d8	8d 4d b4	 lea	 ecx, DWORD PTR _strPicSavePath$[ebp]
  003db	ff 15 00 00 00
	00		 call	 DWORD PTR __imp_?length@?$basic_string@DU?$char_traits@D@std@@V?$allocator@D@2@@std@@QBEIXZ
  003e1	85 c0		 test	 eax, eax
  003e3	77 14		 ja	 SHORT $L198186

; 53   : 	{
; 54   : 		MessageBox(",");

  003e5	6a 00		 push	 0
  003e7	6a 00		 push	 0
  003e9	68 00 00 00 00	 push	 OFFSET FLAT:$SG198187
  003ee	8b 8d 3c ff ff
	ff		 mov	 ecx, DWORD PTR _this$[ebp]
  003f4	e8 00 00 00 00	 call	 ?MessageBoxA@CWnd@@QAEHPBD0I@Z ; CWnd::MessageBoxA
$L198186:

; 55   : 	}
; 56   : 	pUserConfig->SetConfigStringValue(CONF_APP_MODULE_NAME, CONF_APP_PIC_SAVE_PATH, strPicSavePath, bSave2File);

  003f9	a1 00 00 00 00	 mov	 eax, DWORD PTR _CONF_APP_PIC_SAVE_PATH
  003fe	50		 push	 eax
  003ff	8d 8d 5c ff ff
	ff		 lea	 ecx, DWORD PTR $T198838[ebp]
  00405	ff 15 00 00 00
	00		 call	 DWORD PTR __imp_??0?$basic_string@DU?$char_traits@D@std@@V?$allocator@D@2@@std@@QAE@PBD@Z
  0040b	c6 45 fc 06	 mov	 BYTE PTR __$EHRec$[ebp+8], 6
  0040f	8b 0d 00 00 00
	00		 mov	 ecx, DWORD PTR _CONF_APP_MODULE_NAME
  00415	51		 push	 ecx
  00416	8d 8d 40 ff ff
	ff		 lea	 ecx, DWORD PTR $T198839[ebp]
  0041c	ff 15 00 00 00
	00		 call	 DWORD PTR __imp_??0?$basic_string@DU?$char_traits@D@std@@V?$allocator@D@2@@std@@QAE@PBD@Z
  00422	c6 45 fc 07	 mov	 BYTE PTR __$EHRec$[ebp+8], 7
  00426	8a 55 08	 mov	 dl, BYTE PTR _bSave2File$[ebp]
  00429	52		 push	 edx
  0042a	8d 45 b4	 lea	 eax, DWORD PTR _strPicSavePath$[ebp]
  0042d	50		 push	 eax
  0042e	8d 8d 5c ff ff
	ff		 lea	 ecx, DWORD PTR $T198838[ebp]
  00434	51		 push	 ecx
  00435	8d 95 40 ff ff
	ff		 lea	 edx, DWORD PTR $T198839[ebp]
  0043b	52		 push	 edx
  0043c	8b 4d f0	 mov	 ecx, DWORD PTR _pUserConfig$[ebp]
  0043f	e8 00 00 00 00	 call	 ?SetConfigStringValue@AfxUserConfig@@QAEXABV?$basic_string@DU?$char_traits@D@std@@V?$allocator@D@2@@std@@00_N@Z ; AfxUserConfig::SetConfigStringValue
  00444	c6 45 fc 06	 mov	 BYTE PTR __$EHRec$[ebp+8], 6
  00448	8d 8d 40 ff ff
	ff		 lea	 ecx, DWORD PTR $T198839[ebp]
  0044e	ff 15 00 00 00
	00		 call	 DWORD PTR __imp_??1?$basic_string@DU?$char_traits@D@std@@V?$allocator@D@2@@std@@QAE@XZ
  00454	c6 45 fc 05	 mov	 BYTE PTR __$EHRec$[ebp+8], 5
  00458	8d 8d 5c ff ff
	ff		 lea	 ecx, DWORD PTR $T198838[ebp]
  0045e	ff 15 00 00 00
	00		 call	 DWORD PTR __imp_??1?$basic_string@DU?$char_traits@D@std@@V?$allocator@D@2@@std@@QAE@XZ

; 57   : }

  00464	c6 45 fc 00	 mov	 BYTE PTR __$EHRec$[ebp+8], 0
  00468	8d 4d b4	 lea	 ecx, DWORD PTR _strPicSavePath$[ebp]
  0046b	ff 15 00 00 00
	00		 call	 DWORD PTR __imp_??1?$basic_string@DU?$char_traits@D@std@@V?$allocator@D@2@@std@@QAE@XZ
  00471	c7 45 fc ff ff
	ff ff		 mov	 DWORD PTR __$EHRec$[ebp+8], -1
  00478	8d 4d d0	 lea	 ecx, DWORD PTR _strValue$[ebp]
  0047b	ff 15 00 00 00
	00		 call	 DWORD PTR __imp_??1?$basic_string@DU?$char_traits@D@std@@V?$allocator@D@2@@std@@QAE@XZ
  00481	8b 4d f4	 mov	 ecx, DWORD PTR __$EHRec$[ebp]
  00484	64 89 0d 00 00
	00 00		 mov	 DWORD PTR fs:__except_list, ecx
  0048b	8b 4d ec	 mov	 ecx, DWORD PTR __$ArrayPad$[ebp]
  0048e	e8 00 00 00 00	 call	 @__security_check_cookie@4
  00493	8b e5		 mov	 esp, ebp
  00495	5d		 pop	 ebp
  00496	c2 04 00	 ret	 4
_TEXT	ENDS
text$x	SEGMENT
$L198840:
  000d7	8d 4d d0	 lea	 ecx, DWORD PTR _strValue$[ebp]
  000da	ff 25 00 00 00
	00		 jmp	 DWORD PTR __imp_??1?$basic_string@DU?$char_traits@D@std@@V?$allocator@D@2@@std@@QAE@XZ
$L198841:
  000e0	8d 4d 98	 lea	 ecx, DWORD PTR $T198835[ebp]
  000e3	ff 25 00 00 00
	00		 jmp	 DWORD PTR __imp_??1?$basic_string@DU?$char_traits@D@std@@V?$allocator@D@2@@std@@QAE@XZ
$L198842:
  000e9	8d 8d 7c ff ff
	ff		 lea	 ecx, DWORD PTR $T198836[ebp]
  000ef	ff 25 00 00 00
	00		 jmp	 DWORD PTR __imp_??1?$basic_string@DU?$char_traits@D@std@@V?$allocator@D@2@@std@@QAE@XZ
$L198843:
  000f5	8d 8d 78 ff ff
	ff		 lea	 ecx, DWORD PTR $T198837[ebp]
  000fb	ff 25 00 00 00
	00		 jmp	 DWORD PTR __imp_??1?$CStringT@DV?$StrTraitMFC_DLL@DV?$ChTraitsCRT@D@ATL@@@@@ATL@@QAE@XZ
$L198844:
  00101	8d 4d b4	 lea	 ecx, DWORD PTR _strPicSavePath$[ebp]
  00104	ff 25 00 00 00
	00		 jmp	 DWORD PTR __imp_??1?$basic_string@DU?$char_traits@D@std@@V?$allocator@D@2@@std@@QAE@XZ
$L198845:
  0010a	8d 8d 5c ff ff
	ff		 lea	 ecx, DWORD PTR $T198838[ebp]
  00110	ff 25 00 00 00
	00		 jmp	 DWORD PTR __imp_??1?$basic_string@DU?$char_traits@D@std@@V?$allocator@D@2@@std@@QAE@XZ
$L198846:
  00116	8d 8d 40 ff ff
	ff		 lea	 ecx, DWORD PTR $T198839[ebp]
  0011c	ff 25 00 00 00
	00		 jmp	 DWORD PTR __imp_??1?$basic_string@DU?$char_traits@D@std@@V?$allocator@D@2@@std@@QAE@XZ
__ehhandler$?SaveConf@CDownDialog@@UAEX_N@Z:
  00122	b8 00 00 00 00	 mov	 eax, OFFSET FLAT:$T198848
  00127	e9 00 00 00 00	 jmp	 ___CxxFrameHandler
text$x	ENDS
?SaveConf@CDownDialog@@UAEX_N@Z ENDP			; CDownDialog::SaveConf
EXTRN	?GetDefaultAPP_SWF_PATH@ConfigParaDefault@@SA?AV?$basic_string@DU?$char_traits@D@std@@V?$allocator@D@2@@std@@XZ:NEAR ; ConfigParaDefault::GetDefaultAPP_SWF_PATH
EXTRN	?GetDefaultAPP_PicSave_Path@ConfigParaDefault@@SA?AV?$basic_string@DU?$char_traits@D@std@@V?$allocator@D@2@@std@@XZ:NEAR ; ConfigParaDefault::GetDefaultAPP_PicSave_Path
EXTRN	__imp_?c_str@?$basic_string@DU?$char_traits@D@std@@V?$allocator@D@2@@std@@QBEPBDXZ:NEAR
EXTRN	__imp_??0?$CStringT@DV?$StrTraitMFC_DLL@DV?$ChTraitsCRT@D@ATL@@@@@ATL@@QAE@PBD@Z:NEAR
EXTRN	__imp_??4?$CStringT@DV?$StrTraitMFC_DLL@DV?$ChTraitsCRT@D@ATL@@@@@ATL@@QAEAAV01@ABV01@@Z:NEAR
EXTRN	?GetConfigStringValue@AfxUserConfig@@QAEXABV?$basic_string@DU?$char_traits@D@std@@V?$allocator@D@2@@std@@0AAV23@@Z:NEAR ; AfxUserConfig::GetConfigStringValue
EXTRN	__imp_??$?9DU?$char_traits@D@std@@V?$allocator@D@1@@std@@YA_NABV?$basic_string@DU?$char_traits@D@std@@V?$allocator@D@2@@0@0@Z:NEAR
EXTRN	?IsDirectory@YL_FileInfo@@SA_NPBD@Z:NEAR	; YL_FileInfo::IsDirectory
xdata$x	SEGMENT
$T198880 DD	0ffffffffH
	DD	FLAT:$L198864
	DD	00H
	DD	FLAT:$L198865
	DD	01H
	DD	FLAT:$L198866
	DD	00H
	DD	FLAT:$L198867
	DD	00H
	DD	FLAT:$L198868
	DD	04H
	DD	FLAT:$L198869
	DD	00H
	DD	FLAT:$L198870
	DD	06H
	DD	FLAT:$L198871
	DD	07H
	DD	FLAT:$L198872
	DD	06H
	DD	FLAT:$L198873
	DD	06H
	DD	FLAT:$L198874
	DD	0aH
	DD	FLAT:$L198875
$T198877 DD	019930520H
	DD	0cH
	DD	FLAT:$T198880
	DD	2 DUP(00H)
	DD	2 DUP(00H)
; Function compile flags: /Odt
xdata$x	ENDS
_TEXT	SEGMENT
tv201 = -296						; size = 4
tv160 = -292						; size = 4
tv198 = -288						; size = 4
tv154 = -284						; size = 4
tv193 = -280						; size = 4
tv129 = -276						; size = 4
tv190 = -272						; size = 4
tv76 = -268						; size = 4
_this$ = -264						; size = 4
$T198863 = -260						; size = 4
$T198862 = -256						; size = 4
$T198861 = -252						; size = 28
$T198860 = -224						; size = 28
$T198859 = -196						; size = 4
$T198858 = -192						; size = 4
$T198857 = -188						; size = 28
$T198856 = -160						; size = 28
_strDefaultPath$198199 = -132				; size = 28
_strPictSavePath$ = -104				; size = 28
_strDefaultPath$ = -76					; size = 28
_strValue$ = -48					; size = 28
__$ArrayPad$ = -20					; size = 4
_pUserConfig$ = -16					; size = 4
__$EHRec$ = -12						; size = 12
__$ReturnAddr$ = 4					; size = 4
?LoadConf@CDownDialog@@UAEXXZ PROC NEAR			; CDownDialog::LoadConf
; _this$ = ecx

; 60   : {

  004a0	55		 push	 ebp
  004a1	8b ec		 mov	 ebp, esp
  004a3	6a ff		 push	 -1
  004a5	68 00 00 00 00	 push	 __ehhandler$?LoadConf@CDownDialog@@UAEXXZ
  004aa	64 a1 00 00 00
	00		 mov	 eax, DWORD PTR fs:__except_list
  004b0	50		 push	 eax
  004b1	64 89 25 00 00
	00 00		 mov	 DWORD PTR fs:__except_list, esp
  004b8	81 ec 1c 01 00
	00		 sub	 esp, 284		; 0000011cH
  004be	a1 00 00 00 00	 mov	 eax, DWORD PTR ___security_cookie
  004c3	89 45 ec	 mov	 DWORD PTR __$ArrayPad$[ebp], eax
  004c6	89 8d f8 fe ff
	ff		 mov	 DWORD PTR _this$[ebp], ecx

; 61   : 	AfxUserConfig*	pUserConfig = AfxGetUserConfig();

  004cc	e8 00 00 00 00	 call	 ?AfxGetUserConfig@@YAPAVAfxUserConfig@@XZ ; AfxGetUserConfig
  004d1	89 45 f0	 mov	 DWORD PTR _pUserConfig$[ebp], eax

; 62   : 	string strValue;

  004d4	8d 4d d0	 lea	 ecx, DWORD PTR _strValue$[ebp]
  004d7	ff 15 00 00 00
	00		 call	 DWORD PTR __imp_??0?$basic_string@DU?$char_traits@D@std@@V?$allocator@D@2@@std@@QAE@XZ
  004dd	c7 45 fc 00 00
	00 00		 mov	 DWORD PTR __$EHRec$[ebp+8], 0

; 63   : 	pUserConfig->GetConfigStringValue( CONF_APP_MODULE_NAME, CONF_APP_SWF_PATH, strValue );

  004e4	a1 00 00 00 00	 mov	 eax, DWORD PTR _CONF_APP_SWF_PATH
  004e9	50		 push	 eax
  004ea	8d 8d 60 ff ff
	ff		 lea	 ecx, DWORD PTR $T198856[ebp]
  004f0	ff 15 00 00 00
	00		 call	 DWORD PTR __imp_??0?$basic_string@DU?$char_traits@D@std@@V?$allocator@D@2@@std@@QAE@PBD@Z
  004f6	c6 45 fc 01	 mov	 BYTE PTR __$EHRec$[ebp+8], 1
  004fa	8b 0d 00 00 00
	00		 mov	 ecx, DWORD PTR _CONF_APP_MODULE_NAME
  00500	51		 push	 ecx
  00501	8d 8d 44 ff ff
	ff		 lea	 ecx, DWORD PTR $T198857[ebp]
  00507	ff 15 00 00 00
	00		 call	 DWORD PTR __imp_??0?$basic_string@DU?$char_traits@D@std@@V?$allocator@D@2@@std@@QAE@PBD@Z
  0050d	c6 45 fc 02	 mov	 BYTE PTR __$EHRec$[ebp+8], 2
  00511	8d 55 d0	 lea	 edx, DWORD PTR _strValue$[ebp]
  00514	52		 push	 edx
  00515	8d 85 60 ff ff
	ff		 lea	 eax, DWORD PTR $T198856[ebp]
  0051b	50		 push	 eax
  0051c	8d 8d 44 ff ff
	ff		 lea	 ecx, DWORD PTR $T198857[ebp]
  00522	51		 push	 ecx
  00523	8b 4d f0	 mov	 ecx, DWORD PTR _pUserConfig$[ebp]
  00526	e8 00 00 00 00	 call	 ?GetConfigStringValue@AfxUserConfig@@QAEXABV?$basic_string@DU?$char_traits@D@std@@V?$allocator@D@2@@std@@0AAV23@@Z ; AfxUserConfig::GetConfigStringValue
  0052b	c6 45 fc 01	 mov	 BYTE PTR __$EHRec$[ebp+8], 1
  0052f	8d 8d 44 ff ff
	ff		 lea	 ecx, DWORD PTR $T198857[ebp]
  00535	ff 15 00 00 00
	00		 call	 DWORD PTR __imp_??1?$basic_string@DU?$char_traits@D@std@@V?$allocator@D@2@@std@@QAE@XZ
  0053b	c6 45 fc 00	 mov	 BYTE PTR __$EHRec$[ebp+8], 0
  0053f	8d 8d 60 ff ff
	ff		 lea	 ecx, DWORD PTR $T198856[ebp]
  00545	ff 15 00 00 00
	00		 call	 DWORD PTR __imp_??1?$basic_string@DU?$char_traits@D@std@@V?$allocator@D@2@@std@@QAE@XZ

; 64   : 	m_strSwfPath = CString( strValue.c_str() );

  0054b	8d 4d d0	 lea	 ecx, DWORD PTR _strValue$[ebp]
  0054e	ff 15 00 00 00
	00		 call	 DWORD PTR __imp_?c_str@?$basic_string@DU?$char_traits@D@std@@V?$allocator@D@2@@std@@QBEPBDXZ
  00554	50		 push	 eax
  00555	8d 8d 40 ff ff
	ff		 lea	 ecx, DWORD PTR $T198858[ebp]
  0055b	ff 15 00 00 00
	00		 call	 DWORD PTR __imp_??0?$CStringT@DV?$StrTraitMFC_DLL@DV?$ChTraitsCRT@D@ATL@@@@@ATL@@QAE@PBD@Z
  00561	89 85 f4 fe ff
	ff		 mov	 DWORD PTR tv76[ebp], eax
  00567	8b 95 f4 fe ff
	ff		 mov	 edx, DWORD PTR tv76[ebp]
  0056d	89 95 f0 fe ff
	ff		 mov	 DWORD PTR tv190[ebp], edx
  00573	c6 45 fc 03	 mov	 BYTE PTR __$EHRec$[ebp+8], 3
  00577	8b 85 f0 fe ff
	ff		 mov	 eax, DWORD PTR tv190[ebp]
  0057d	50		 push	 eax
  0057e	8b 8d f8 fe ff
	ff		 mov	 ecx, DWORD PTR _this$[ebp]
  00584	81 c1 58 01 00
	00		 add	 ecx, 344		; 00000158H
  0058a	ff 15 00 00 00
	00		 call	 DWORD PTR __imp_??4?$CStringT@DV?$StrTraitMFC_DLL@DV?$ChTraitsCRT@D@ATL@@@@@ATL@@QAEAAV01@ABV01@@Z
  00590	c6 45 fc 00	 mov	 BYTE PTR __$EHRec$[ebp+8], 0
  00594	8d 8d 40 ff ff
	ff		 lea	 ecx, DWORD PTR $T198858[ebp]
  0059a	ff 15 00 00 00
	00		 call	 DWORD PTR __imp_??1?$CStringT@DV?$StrTraitMFC_DLL@DV?$ChTraitsCRT@D@ATL@@@@@ATL@@QAE@XZ

; 65   : 	YL_DirInfo::MakeDir( strValue );

  005a0	8d 4d d0	 lea	 ecx, DWORD PTR _strValue$[ebp]
  005a3	51		 push	 ecx
  005a4	e8 00 00 00 00	 call	 ?MakeDir@YL_DirInfo@@SA_NABV?$basic_string@DU?$char_traits@D@std@@V?$allocator@D@2@@std@@@Z ; YL_DirInfo::MakeDir
  005a9	83 c4 04	 add	 esp, 4

; 66   : 
; 67   : 	//
; 68   : 	if( !YL_FileInfo::IsDirectory( strValue.c_str() ) ) 

  005ac	8d 4d d0	 lea	 ecx, DWORD PTR _strValue$[ebp]
  005af	ff 15 00 00 00
	00		 call	 DWORD PTR __imp_?c_str@?$basic_string@DU?$char_traits@D@std@@V?$allocator@D@2@@std@@QBEPBDXZ
  005b5	50		 push	 eax
  005b6	e8 00 00 00 00	 call	 ?IsDirectory@YL_FileInfo@@SA_NPBD@Z ; YL_FileInfo::IsDirectory
  005bb	83 c4 04	 add	 esp, 4
  005be	0f b6 d0	 movzx	 edx, al
  005c1	85 d2		 test	 edx, edx
  005c3	0f 85 8a 00 00
	00		 jne	 $L198198

; 69   : 	{
; 70   : 		string strDefaultPath = ConfigParaDefault::GetDefaultAPP_SWF_PATH();

  005c9	8d 85 7c ff ff
	ff		 lea	 eax, DWORD PTR _strDefaultPath$198199[ebp]
  005cf	50		 push	 eax
  005d0	e8 00 00 00 00	 call	 ?GetDefaultAPP_SWF_PATH@ConfigParaDefault@@SA?AV?$basic_string@DU?$char_traits@D@std@@V?$allocator@D@2@@std@@XZ ; ConfigParaDefault::GetDefaultAPP_SWF_PATH
  005d5	83 c4 04	 add	 esp, 4
  005d8	c6 45 fc 04	 mov	 BYTE PTR __$EHRec$[ebp+8], 4

; 71   : 		YL_DirInfo::MakeDir( strDefaultPath );

  005dc	8d 8d 7c ff ff
	ff		 lea	 ecx, DWORD PTR _strDefaultPath$198199[ebp]
  005e2	51		 push	 ecx
  005e3	e8 00 00 00 00	 call	 ?MakeDir@YL_DirInfo@@SA_NABV?$basic_string@DU?$char_traits@D@std@@V?$allocator@D@2@@std@@@Z ; YL_DirInfo::MakeDir
  005e8	83 c4 04	 add	 esp, 4

; 72   : 		m_strSwfPath = CString( strDefaultPath.c_str() );

  005eb	8d 8d 7c ff ff
	ff		 lea	 ecx, DWORD PTR _strDefaultPath$198199[ebp]
  005f1	ff 15 00 00 00
	00		 call	 DWORD PTR __imp_?c_str@?$basic_string@DU?$char_traits@D@std@@V?$allocator@D@2@@std@@QBEPBDXZ
  005f7	50		 push	 eax
  005f8	8d 8d 3c ff ff
	ff		 lea	 ecx, DWORD PTR $T198859[ebp]
  005fe	ff 15 00 00 00
	00		 call	 DWORD PTR __imp_??0?$CStringT@DV?$StrTraitMFC_DLL@DV?$ChTraitsCRT@D@ATL@@@@@ATL@@QAE@PBD@Z
  00604	89 85 ec fe ff
	ff		 mov	 DWORD PTR tv129[ebp], eax
  0060a	8b 95 ec fe ff
	ff		 mov	 edx, DWORD PTR tv129[ebp]
  00610	89 95 e8 fe ff
	ff		 mov	 DWORD PTR tv193[ebp], edx
  00616	c6 45 fc 05	 mov	 BYTE PTR __$EHRec$[ebp+8], 5
  0061a	8b 85 e8 fe ff
	ff		 mov	 eax, DWORD PTR tv193[ebp]
  00620	50		 push	 eax
  00621	8b 8d f8 fe ff
	ff		 mov	 ecx, DWORD PTR _this$[ebp]
  00627	81 c1 58 01 00
	00		 add	 ecx, 344		; 00000158H
  0062d	ff 15 00 00 00
	00		 call	 DWORD PTR __imp_??4?$CStringT@DV?$StrTraitMFC_DLL@DV?$ChTraitsCRT@D@ATL@@@@@ATL@@QAEAAV01@ABV01@@Z
  00633	c6 45 fc 04	 mov	 BYTE PTR __$EHRec$[ebp+8], 4
  00637	8d 8d 3c ff ff
	ff		 lea	 ecx, DWORD PTR $T198859[ebp]
  0063d	ff 15 00 00 00
	00		 call	 DWORD PTR __imp_??1?$CStringT@DV?$StrTraitMFC_DLL@DV?$ChTraitsCRT@D@ATL@@@@@ATL@@QAE@XZ

; 73   : 	}

  00643	c6 45 fc 00	 mov	 BYTE PTR __$EHRec$[ebp+8], 0
  00647	8d 8d 7c ff ff
	ff		 lea	 ecx, DWORD PTR _strDefaultPath$198199[ebp]
  0064d	ff 15 00 00 00
	00		 call	 DWORD PTR __imp_??1?$basic_string@DU?$char_traits@D@std@@V?$allocator@D@2@@std@@QAE@XZ
$L198198:

; 74   : 	//
; 75   : 	// added by wang
; 76   : 	//
; 77   : 	string strPictSavePath ;

  00653	8d 4d 98	 lea	 ecx, DWORD PTR _strPictSavePath$[ebp]
  00656	ff 15 00 00 00
	00		 call	 DWORD PTR __imp_??0?$basic_string@DU?$char_traits@D@std@@V?$allocator@D@2@@std@@QAE@XZ
  0065c	c6 45 fc 06	 mov	 BYTE PTR __$EHRec$[ebp+8], 6

; 78   : 	pUserConfig->GetConfigStringValue(CONF_APP_MODULE_NAME, CONF_APP_PIC_SAVE_PATH, strPictSavePath);

  00660	8b 0d 00 00 00
	00		 mov	 ecx, DWORD PTR _CONF_APP_PIC_SAVE_PATH
  00666	51		 push	 ecx
  00667	8d 8d 20 ff ff
	ff		 lea	 ecx, DWORD PTR $T198860[ebp]
  0066d	ff 15 00 00 00
	00		 call	 DWORD PTR __imp_??0?$basic_string@DU?$char_traits@D@std@@V?$allocator@D@2@@std@@QAE@PBD@Z
  00673	c6 45 fc 07	 mov	 BYTE PTR __$EHRec$[ebp+8], 7
  00677	8b 15 00 00 00
	00		 mov	 edx, DWORD PTR _CONF_APP_MODULE_NAME
  0067d	52		 push	 edx
  0067e	8d 8d 04 ff ff
	ff		 lea	 ecx, DWORD PTR $T198861[ebp]
  00684	ff 15 00 00 00
	00		 call	 DWORD PTR __imp_??0?$basic_string@DU?$char_traits@D@std@@V?$allocator@D@2@@std@@QAE@PBD@Z
  0068a	c6 45 fc 08	 mov	 BYTE PTR __$EHRec$[ebp+8], 8
  0068e	8d 45 98	 lea	 eax, DWORD PTR _strPictSavePath$[ebp]
  00691	50		 push	 eax
  00692	8d 8d 20 ff ff
	ff		 lea	 ecx, DWORD PTR $T198860[ebp]
  00698	51		 push	 ecx
  00699	8d 95 04 ff ff
	ff		 lea	 edx, DWORD PTR $T198861[ebp]
  0069f	52		 push	 edx
  006a0	8b 4d f0	 mov	 ecx, DWORD PTR _pUserConfig$[ebp]
  006a3	e8 00 00 00 00	 call	 ?GetConfigStringValue@AfxUserConfig@@QAEXABV?$basic_string@DU?$char_traits@D@std@@V?$allocator@D@2@@std@@0AAV23@@Z ; AfxUserConfig::GetConfigStringValue
  006a8	c6 45 fc 07	 mov	 BYTE PTR __$EHRec$[ebp+8], 7
  006ac	8d 8d 04 ff ff
	ff		 lea	 ecx, DWORD PTR $T198861[ebp]
  006b2	ff 15 00 00 00
	00		 call	 DWORD PTR __imp_??1?$basic_string@DU?$char_traits@D@std@@V?$allocator@D@2@@std@@QAE@XZ
  006b8	c6 45 fc 06	 mov	 BYTE PTR __$EHRec$[ebp+8], 6
  006bc	8d 8d 20 ff ff
	ff		 lea	 ecx, DWORD PTR $T198860[ebp]
  006c2	ff 15 00 00 00
	00		 call	 DWORD PTR __imp_??1?$basic_string@DU?$char_traits@D@std@@V?$allocator@D@2@@std@@QAE@XZ

; 79   : 	m_strPicSavePath = CString(strPictSavePath.c_str());

  006c8	8d 4d 98	 lea	 ecx, DWORD PTR _strPictSavePath$[ebp]
  006cb	ff 15 00 00 00
	00		 call	 DWORD PTR __imp_?c_str@?$basic_string@DU?$char_traits@D@std@@V?$allocator@D@2@@std@@QBEPBDXZ
  006d1	50		 push	 eax
  006d2	8d 8d 00 ff ff
	ff		 lea	 ecx, DWORD PTR $T198862[ebp]
  006d8	ff 15 00 00 00
	00		 call	 DWORD PTR __imp_??0?$CStringT@DV?$StrTraitMFC_DLL@DV?$ChTraitsCRT@D@ATL@@@@@ATL@@QAE@PBD@Z
  006de	89 85 e4 fe ff
	ff		 mov	 DWORD PTR tv154[ebp], eax
  006e4	8b 85 e4 fe ff
	ff		 mov	 eax, DWORD PTR tv154[ebp]
  006ea	89 85 e0 fe ff
	ff		 mov	 DWORD PTR tv198[ebp], eax
  006f0	c6 45 fc 09	 mov	 BYTE PTR __$EHRec$[ebp+8], 9
  006f4	8b 8d e0 fe ff
	ff		 mov	 ecx, DWORD PTR tv198[ebp]
  006fa	51		 push	 ecx
  006fb	8b 8d f8 fe ff
	ff		 mov	 ecx, DWORD PTR _this$[ebp]
  00701	81 c1 b0 01 00
	00		 add	 ecx, 432		; 000001b0H
  00707	ff 15 00 00 00
	00		 call	 DWORD PTR __imp_??4?$CStringT@DV?$StrTraitMFC_DLL@DV?$ChTraitsCRT@D@ATL@@@@@ATL@@QAEAAV01@ABV01@@Z
  0070d	c6 45 fc 06	 mov	 BYTE PTR __$EHRec$[ebp+8], 6
  00711	8d 8d 00 ff ff
	ff		 lea	 ecx, DWORD PTR $T198862[ebp]
  00717	ff 15 00 00 00
	00		 call	 DWORD PTR __imp_??1?$CStringT@DV?$StrTraitMFC_DLL@DV?$ChTraitsCRT@D@ATL@@@@@ATL@@QAE@XZ

; 80   : 	// ? .
; 81   : 	// .
; 82   : 	string strDefaultPath = ConfigParaDefault::GetDefaultAPP_PicSave_Path();

  0071d	8d 55 b4	 lea	 edx, DWORD PTR _strDefaultPath$[ebp]
  00720	52		 push	 edx
  00721	e8 00 00 00 00	 call	 ?GetDefaultAPP_PicSave_Path@ConfigParaDefault@@SA?AV?$basic_string@DU?$char_traits@D@std@@V?$allocator@D@2@@std@@XZ ; ConfigParaDefault::GetDefaultAPP_PicSave_Path
  00726	83 c4 04	 add	 esp, 4
  00729	c6 45 fc 0a	 mov	 BYTE PTR __$EHRec$[ebp+8], 10 ; 0000000aH

; 83   : 	if( strPictSavePath != strDefaultPath ) {

  0072d	8d 45 b4	 lea	 eax, DWORD PTR _strDefaultPath$[ebp]
  00730	50		 push	 eax
  00731	8d 4d 98	 lea	 ecx, DWORD PTR _strPictSavePath$[ebp]
  00734	51		 push	 ecx
  00735	ff 15 00 00 00
	00		 call	 DWORD PTR __imp_??$?9DU?$char_traits@D@std@@V?$allocator@D@1@@std@@YA_NABV?$basic_string@DU?$char_traits@D@std@@V?$allocator@D@2@@0@0@Z
  0073b	83 c4 08	 add	 esp, 8
  0073e	0f b6 d0	 movzx	 edx, al
  00741	85 d2		 test	 edx, edx
  00743	74 55		 je	 SHORT $L198208

; 84   : 		m_strPicSavePath = (CString)(strDefaultPath.c_str());

  00745	8d 4d b4	 lea	 ecx, DWORD PTR _strDefaultPath$[ebp]
  00748	ff 15 00 00 00
	00		 call	 DWORD PTR __imp_?c_str@?$basic_string@DU?$char_traits@D@std@@V?$allocator@D@2@@std@@QBEPBDXZ
  0074e	50		 push	 eax
  0074f	8d 8d fc fe ff
	ff		 lea	 ecx, DWORD PTR $T198863[ebp]
  00755	ff 15 00 00 00
	00		 call	 DWORD PTR __imp_??0?$CStringT@DV?$StrTraitMFC_DLL@DV?$ChTraitsCRT@D@ATL@@@@@ATL@@QAE@PBD@Z
  0075b	89 85 dc fe ff
	ff		 mov	 DWORD PTR tv160[ebp], eax
  00761	8b 85 dc fe ff
	ff		 mov	 eax, DWORD PTR tv160[ebp]
  00767	89 85 d8 fe ff
	ff		 mov	 DWORD PTR tv201[ebp], eax
  0076d	c6 45 fc 0b	 mov	 BYTE PTR __$EHRec$[ebp+8], 11 ; 0000000bH
  00771	8b 8d d8 fe ff
	ff		 mov	 ecx, DWORD PTR tv201[ebp]
  00777	51		 push	 ecx
  00778	8b 8d f8 fe ff
	ff		 mov	 ecx, DWORD PTR _this$[ebp]
  0077e	81 c1 b0 01 00
	00		 add	 ecx, 432		; 000001b0H
  00784	ff 15 00 00 00
	00		 call	 DWORD PTR __imp_??4?$CStringT@DV?$StrTraitMFC_DLL@DV?$ChTraitsCRT@D@ATL@@@@@ATL@@QAEAAV01@ABV01@@Z
  0078a	c6 45 fc 0a	 mov	 BYTE PTR __$EHRec$[ebp+8], 10 ; 0000000aH
  0078e	8d 8d fc fe ff
	ff		 lea	 ecx, DWORD PTR $T198863[ebp]
  00794	ff 15 00 00 00
	00		 call	 DWORD PTR __imp_??1?$CStringT@DV?$StrTraitMFC_DLL@DV?$ChTraitsCRT@D@ATL@@@@@ATL@@QAE@XZ
$L198208:

; 85   : 	}
; 86   : }

  0079a	c6 45 fc 06	 mov	 BYTE PTR __$EHRec$[ebp+8], 6
  0079e	8d 4d b4	 lea	 ecx, DWORD PTR _strDefaultPath$[ebp]
  007a1	ff 15 00 00 00
	00		 call	 DWORD PTR __imp_??1?$basic_string@DU?$char_traits@D@std@@V?$allocator@D@2@@std@@QAE@XZ
  007a7	c6 45 fc 00	 mov	 BYTE PTR __$EHRec$[ebp+8], 0
  007ab	8d 4d 98	 lea	 ecx, DWORD PTR _strPictSavePath$[ebp]
  007ae	ff 15 00 00 00
	00		 call	 DWORD PTR __imp_??1?$basic_string@DU?$char_traits@D@std@@V?$allocator@D@2@@std@@QAE@XZ
  007b4	c7 45 fc ff ff
	ff ff		 mov	 DWORD PTR __$EHRec$[ebp+8], -1
  007bb	8d 4d d0	 lea	 ecx, DWORD PTR _strValue$[ebp]
  007be	ff 15 00 00 00
	00		 call	 DWORD PTR __imp_??1?$basic_string@DU?$char_traits@D@std@@V?$allocator@D@2@@std@@QAE@XZ
  007c4	8b 4d f4	 mov	 ecx, DWORD PTR __$EHRec$[ebp]
  007c7	64 89 0d 00 00
	00 00		 mov	 DWORD PTR fs:__except_list, ecx
  007ce	8b 4d ec	 mov	 ecx, DWORD PTR __$ArrayPad$[ebp]
  007d1	e8 00 00 00 00	 call	 @__security_check_cookie@4
  007d6	8b e5		 mov	 esp, ebp
  007d8	5d		 pop	 ebp
  007d9	c3		 ret	 0
_TEXT	ENDS
text$x	SEGMENT
$L198864:
  0012c	8d 4d d0	 lea	 ecx, DWORD PTR _strValue$[ebp]
  0012f	ff 25 00 00 00
	00		 jmp	 DWORD PTR __imp_??1?$basic_string@DU?$char_traits@D@std@@V?$allocator@D@2@@std@@QAE@XZ
$L198865:
  00135	8d 8d 60 ff ff
	ff		 lea	 ecx, DWORD PTR $T198856[ebp]
  0013b	ff 25 00 00 00
	00		 jmp	 DWORD PTR __imp_??1?$basic_string@DU?$char_traits@D@std@@V?$allocator@D@2@@std@@QAE@XZ
$L198866:
  00141	8d 8d 44 ff ff
	ff		 lea	 ecx, DWORD PTR $T198857[ebp]
  00147	ff 25 00 00 00
	00		 jmp	 DWORD PTR __imp_??1?$basic_string@DU?$char_traits@D@std@@V?$allocator@D@2@@std@@QAE@XZ
$L198867:
  0014d	8d 8d 40 ff ff
	ff		 lea	 ecx, DWORD PTR $T198858[ebp]
  00153	ff 25 00 00 00
	00		 jmp	 DWORD PTR __imp_??1?$CStringT@DV?$StrTraitMFC_DLL@DV?$ChTraitsCRT@D@ATL@@@@@ATL@@QAE@XZ
$L198868:
  00159	8d 8d 7c ff ff
	ff		 lea	 ecx, DWORD PTR _strDefaultPath$198199[ebp]
  0015f	ff 25 00 00 00
	00		 jmp	 DWORD PTR __imp_??1?$basic_string@DU?$char_traits@D@std@@V?$allocator@D@2@@std@@QAE@XZ
$L198869:
  00165	8d 8d 3c ff ff
	ff		 lea	 ecx, DWORD PTR $T198859[ebp]
  0016b	ff 25 00 00 00
	00		 jmp	 DWORD PTR __imp_??1?$CStringT@DV?$StrTraitMFC_DLL@DV?$ChTraitsCRT@D@ATL@@@@@ATL@@QAE@XZ
$L198870:
  00171	8d 4d 98	 lea	 ecx, DWORD PTR _strPictSavePath$[ebp]
  00174	ff 25 00 00 00
	00		 jmp	 DWORD PTR __imp_??1?$basic_string@DU?$char_traits@D@std@@V?$allocator@D@2@@std@@QAE@XZ
$L198871:
  0017a	8d 8d 20 ff ff
	ff		 lea	 ecx, DWORD PTR $T198860[ebp]
  00180	ff 25 00 00 00
	00		 jmp	 DWORD PTR __imp_??1?$basic_string@DU?$char_traits@D@std@@V?$allocator@D@2@@std@@QAE@XZ
$L198872:
  00186	8d 8d 04 ff ff
	ff		 lea	 ecx, DWORD PTR $T198861[ebp]
  0018c	ff 25 00 00 00
	00		 jmp	 DWORD PTR __imp_??1?$basic_string@DU?$char_traits@D@std@@V?$allocator@D@2@@std@@QAE@XZ
$L198873:
  00192	8d 8d 00 ff ff
	ff		 lea	 ecx, DWORD PTR $T198862[ebp]
  00198	ff 25 00 00 00
	00		 jmp	 DWORD PTR __imp_??1?$CStringT@DV?$StrTraitMFC_DLL@DV?$ChTraitsCRT@D@ATL@@@@@ATL@@QAE@XZ
$L198874:
  0019e	8d 4d b4	 lea	 ecx, DWORD PTR _strDefaultPath$[ebp]
  001a1	ff 25 00 00 00
	00		 jmp	 DWORD PTR __imp_??1?$basic_string@DU?$char_traits@D@std@@V?$allocator@D@2@@std@@QAE@XZ
$L198875:
  001a7	8d 8d fc fe ff
	ff		 lea	 ecx, DWORD PTR $T198863[ebp]
  001ad	ff 25 00 00 00
	00		 jmp	 DWORD PTR __imp_??1?$CStringT@DV?$StrTraitMFC_DLL@DV?$ChTraitsCRT@D@ATL@@@@@ATL@@QAE@XZ
__ehhandler$?LoadConf@CDownDialog@@UAEXXZ:
  001b3	b8 00 00 00 00	 mov	 eax, OFFSET FLAT:$T198877
  001b8	e9 00 00 00 00	 jmp	 ___CxxFrameHandler
text$x	ENDS
?LoadConf@CDownDialog@@UAEXXZ ENDP			; CDownDialog::LoadConf
xdata$x	SEGMENT
$T198893 DD	0ffffffffH
	DD	FLAT:$L198886
	DD	00H
	DD	FLAT:$L198887
	DD	0ffffffffH
	DD	FLAT:$L198888
	DD	02H
	DD	FLAT:$L198889
$T198891 DD	019930520H
	DD	04H
	DD	FLAT:$T198893
	DD	2 DUP(00H)
	DD	2 DUP(00H)
; Function compile flags: /Odt
xdata$x	ENDS
_TEXT	SEGMENT
tv133 = -112						; size = 4
tv137 = -108						; size = 4
tv131 = -104						; size = 4
tv136 = -100						; size = 4
tv129 = -96						; size = 4
tv135 = -92						; size = 4
tv95 = -88						; size = 4
tv134 = -84						; size = 4
_this$ = -80						; size = 4
$T198885 = -76						; size = 28
$T198884 = -48						; size = 4
$T198883 = -44						; size = 28
$T198882 = -16						; size = 4
__$EHRec$ = -12						; size = 12
?SetDefault@CDownDialog@@UAEXXZ PROC NEAR		; CDownDialog::SetDefault
; _this$ = ecx

; 89   : {

  007e0	55		 push	 ebp
  007e1	8b ec		 mov	 ebp, esp
  007e3	6a ff		 push	 -1
  007e5	68 00 00 00 00	 push	 __ehhandler$?SetDefault@CDownDialog@@UAEXXZ
  007ea	64 a1 00 00 00
	00		 mov	 eax, DWORD PTR fs:__except_list
  007f0	50		 push	 eax
  007f1	64 89 25 00 00
	00 00		 mov	 DWORD PTR fs:__except_list, esp
  007f8	83 ec 64	 sub	 esp, 100		; 00000064H
  007fb	89 4d b0	 mov	 DWORD PTR _this$[ebp], ecx

; 90   : 	m_strSwfPath = CString( ConfigParaDefault::GetDefaultAPP_SWF_PATH().c_str() );

  007fe	8d 45 d4	 lea	 eax, DWORD PTR $T198883[ebp]
  00801	50		 push	 eax
  00802	e8 00 00 00 00	 call	 ?GetDefaultAPP_SWF_PATH@ConfigParaDefault@@SA?AV?$basic_string@DU?$char_traits@D@std@@V?$allocator@D@2@@std@@XZ ; ConfigParaDefault::GetDefaultAPP_SWF_PATH
  00807	83 c4 04	 add	 esp, 4
  0080a	89 45 ac	 mov	 DWORD PTR tv134[ebp], eax
  0080d	8b 4d ac	 mov	 ecx, DWORD PTR tv134[ebp]
  00810	89 4d a8	 mov	 DWORD PTR tv95[ebp], ecx
  00813	c7 45 fc 00 00
	00 00		 mov	 DWORD PTR __$EHRec$[ebp+8], 0
  0081a	8b 4d a8	 mov	 ecx, DWORD PTR tv95[ebp]
  0081d	ff 15 00 00 00
	00		 call	 DWORD PTR __imp_?c_str@?$basic_string@DU?$char_traits@D@std@@V?$allocator@D@2@@std@@QBEPBDXZ
  00823	50		 push	 eax
  00824	8d 4d f0	 lea	 ecx, DWORD PTR $T198882[ebp]
  00827	ff 15 00 00 00
	00		 call	 DWORD PTR __imp_??0?$CStringT@DV?$StrTraitMFC_DLL@DV?$ChTraitsCRT@D@ATL@@@@@ATL@@QAE@PBD@Z
  0082d	89 45 a4	 mov	 DWORD PTR tv135[ebp], eax
  00830	8b 55 a4	 mov	 edx, DWORD PTR tv135[ebp]
  00833	89 55 a0	 mov	 DWORD PTR tv129[ebp], edx
  00836	c6 45 fc 01	 mov	 BYTE PTR __$EHRec$[ebp+8], 1
  0083a	8b 45 a0	 mov	 eax, DWORD PTR tv129[ebp]
  0083d	50		 push	 eax
  0083e	8b 4d b0	 mov	 ecx, DWORD PTR _this$[ebp]
  00841	81 c1 58 01 00
	00		 add	 ecx, 344		; 00000158H
  00847	ff 15 00 00 00
	00		 call	 DWORD PTR __imp_??4?$CStringT@DV?$StrTraitMFC_DLL@DV?$ChTraitsCRT@D@ATL@@@@@ATL@@QAEAAV01@ABV01@@Z
  0084d	c6 45 fc 00	 mov	 BYTE PTR __$EHRec$[ebp+8], 0
  00851	8d 4d f0	 lea	 ecx, DWORD PTR $T198882[ebp]
  00854	ff 15 00 00 00
	00		 call	 DWORD PTR __imp_??1?$CStringT@DV?$StrTraitMFC_DLL@DV?$ChTraitsCRT@D@ATL@@@@@ATL@@QAE@XZ
  0085a	c7 45 fc ff ff
	ff ff		 mov	 DWORD PTR __$EHRec$[ebp+8], -1
  00861	8d 4d d4	 lea	 ecx, DWORD PTR $T198883[ebp]
  00864	ff 15 00 00 00
	00		 call	 DWORD PTR __imp_??1?$basic_string@DU?$char_traits@D@std@@V?$allocator@D@2@@std@@QAE@XZ

; 91   : 	m_strPicSavePath =CString( ConfigParaDefault::GetDefaultAPP_PicSave_Path().c_str());

  0086a	8d 4d b4	 lea	 ecx, DWORD PTR $T198885[ebp]
  0086d	51		 push	 ecx
  0086e	e8 00 00 00 00	 call	 ?GetDefaultAPP_PicSave_Path@ConfigParaDefault@@SA?AV?$basic_string@DU?$char_traits@D@std@@V?$allocator@D@2@@std@@XZ ; ConfigParaDefault::GetDefaultAPP_PicSave_Path
  00873	83 c4 04	 add	 esp, 4
  00876	89 45 9c	 mov	 DWORD PTR tv136[ebp], eax
  00879	8b 55 9c	 mov	 edx, DWORD PTR tv136[ebp]
  0087c	89 55 98	 mov	 DWORD PTR tv131[ebp], edx
  0087f	c7 45 fc 02 00
	00 00		 mov	 DWORD PTR __$EHRec$[ebp+8], 2
  00886	8b 4d 98	 mov	 ecx, DWORD PTR tv131[ebp]
  00889	ff 15 00 00 00
	00		 call	 DWORD PTR __imp_?c_str@?$basic_string@DU?$char_traits@D@std@@V?$allocator@D@2@@std@@QBEPBDXZ
  0088f	50		 push	 eax
  00890	8d 4d d0	 lea	 ecx, DWORD PTR $T198884[ebp]
  00893	ff 15 00 00 00
	00		 call	 DWORD PTR __imp_??0?$CStringT@DV?$StrTraitMFC_DLL@DV?$ChTraitsCRT@D@ATL@@@@@ATL@@QAE@PBD@Z
  00899	89 45 94	 mov	 DWORD PTR tv137[ebp], eax
  0089c	8b 45 94	 mov	 eax, DWORD PTR tv137[ebp]
  0089f	89 45 90	 mov	 DWORD PTR tv133[ebp], eax
  008a2	c6 45 fc 03	 mov	 BYTE PTR __$EHRec$[ebp+8], 3
  008a6	8b 4d 90	 mov	 ecx, DWORD PTR tv133[ebp]
  008a9	51		 push	 ecx
  008aa	8b 4d b0	 mov	 ecx, DWORD PTR _this$[ebp]
  008ad	81 c1 b0 01 00
	00		 add	 ecx, 432		; 000001b0H
  008b3	ff 15 00 00 00
	00		 call	 DWORD PTR __imp_??4?$CStringT@DV?$StrTraitMFC_DLL@DV?$ChTraitsCRT@D@ATL@@@@@ATL@@QAEAAV01@ABV01@@Z
  008b9	c6 45 fc 02	 mov	 BYTE PTR __$EHRec$[ebp+8], 2
  008bd	8d 4d d0	 lea	 ecx, DWORD PTR $T198884[ebp]
  008c0	ff 15 00 00 00
	00		 call	 DWORD PTR __imp_??1?$CStringT@DV?$StrTraitMFC_DLL@DV?$ChTraitsCRT@D@ATL@@@@@ATL@@QAE@XZ
  008c6	c7 45 fc ff ff
	ff ff		 mov	 DWORD PTR __$EHRec$[ebp+8], -1
  008cd	8d 4d b4	 lea	 ecx, DWORD PTR $T198885[ebp]
  008d0	ff 15 00 00 00
	00		 call	 DWORD PTR __imp_??1?$basic_string@DU?$char_traits@D@std@@V?$allocator@D@2@@std@@QAE@XZ

; 92   : 	UpdateData( FALSE );

  008d6	6a 00		 push	 0
  008d8	8b 4d b0	 mov	 ecx, DWORD PTR _this$[ebp]
  008db	e8 00 00 00 00	 call	 ?UpdateData@CWnd@@QAEHH@Z ; CWnd::UpdateData

; 93   : }

  008e0	8b 4d f4	 mov	 ecx, DWORD PTR __$EHRec$[ebp]
  008e3	64 89 0d 00 00
	00 00		 mov	 DWORD PTR fs:__except_list, ecx
  008ea	8b e5		 mov	 esp, ebp
  008ec	5d		 pop	 ebp
  008ed	c3		 ret	 0
_TEXT	ENDS
text$x	SEGMENT
$L198886:
  001bd	8d 4d d4	 lea	 ecx, DWORD PTR $T198883[ebp]
  001c0	ff 25 00 00 00
	00		 jmp	 DWORD PTR __imp_??1?$basic_string@DU?$char_traits@D@std@@V?$allocator@D@2@@std@@QAE@XZ
$L198887:
  001c6	8d 4d f0	 lea	 ecx, DWORD PTR $T198882[ebp]
  001c9	ff 25 00 00 00
	00		 jmp	 DWORD PTR __imp_??1?$CStringT@DV?$StrTraitMFC_DLL@DV?$ChTraitsCRT@D@ATL@@@@@ATL@@QAE@XZ
$L198888:
  001cf	8d 4d b4	 lea	 ecx, DWORD PTR $T198885[ebp]
  001d2	ff 25 00 00 00
	00		 jmp	 DWORD PTR __imp_??1?$basic_string@DU?$char_traits@D@std@@V?$allocator@D@2@@std@@QAE@XZ
$L198889:
  001d8	8d 4d d0	 lea	 ecx, DWORD PTR $T198884[ebp]
  001db	ff 25 00 00 00
	00		 jmp	 DWORD PTR __imp_??1?$CStringT@DV?$StrTraitMFC_DLL@DV?$ChTraitsCRT@D@ATL@@@@@ATL@@QAE@XZ
__ehhandler$?SetDefault@CDownDialog@@UAEXXZ:
  001e1	b8 00 00 00 00	 mov	 eax, OFFSET FLAT:$T198891
  001e6	e9 00 00 00 00	 jmp	 ___CxxFrameHandler
text$x	ENDS
?SetDefault@CDownDialog@@UAEXXZ ENDP			; CDownDialog::SetDefault
EXTRN	?IsPathValid@ConfigParaDefault@@SA_NAAV?$basic_string@DU?$char_traits@D@std@@V?$allocator@D@2@@std@@@Z:NEAR ; ConfigParaDefault::IsPathValid
EXTRN	__imp_??4?$basic_string@DU?$char_traits@D@std@@V?$allocator@D@2@@std@@QAEAAV01@PBD@Z:NEAR
xdata$x	SEGMENT
$T198903 DD	0ffffffffH
	DD	FLAT:$L198898
$T198900 DD	019930520H
	DD	01H
	DD	FLAT:$T198903
	DD	2 DUP(00H)
	DD	2 DUP(00H)
; Function compile flags: /Odt
xdata$x	ENDS
_TEXT	SEGMENT
_this$ = -52						; size = 4
$T198897 = -46						; size = 1
$T198896 = -45						; size = 1
_strSwfPath$ = -44					; size = 28
__$ArrayPad$ = -16					; size = 4
__$EHRec$ = -12						; size = 12
__$ReturnAddr$ = 4					; size = 4
_strMsg$ = 8						; size = 4
?IsAllInputOK@CDownDialog@@UAE_NAAV?$basic_string@DU?$char_traits@D@std@@V?$allocator@D@2@@std@@@Z PROC NEAR ; CDownDialog::IsAllInputOK
; _this$ = ecx

; 96   : {

  008f0	55		 push	 ebp
  008f1	8b ec		 mov	 ebp, esp
  008f3	6a ff		 push	 -1
  008f5	68 00 00 00 00	 push	 __ehhandler$?IsAllInputOK@CDownDialog@@UAE_NAAV?$basic_string@DU?$char_traits@D@std@@V?$allocator@D@2@@std@@@Z
  008fa	64 a1 00 00 00
	00		 mov	 eax, DWORD PTR fs:__except_list
  00900	50		 push	 eax
  00901	64 89 25 00 00
	00 00		 mov	 DWORD PTR fs:__except_list, esp
  00908	83 ec 28	 sub	 esp, 40			; 00000028H
  0090b	a1 00 00 00 00	 mov	 eax, DWORD PTR ___security_cookie
  00910	89 45 f0	 mov	 DWORD PTR __$ArrayPad$[ebp], eax
  00913	89 4d cc	 mov	 DWORD PTR _this$[ebp], ecx

; 97   : 	if( UpdateData() == FALSE )

  00916	6a 01		 push	 1
  00918	8b 4d cc	 mov	 ecx, DWORD PTR _this$[ebp]
  0091b	e8 00 00 00 00	 call	 ?UpdateData@CWnd@@QAEHH@Z ; CWnd::UpdateData
  00920	85 c0		 test	 eax, eax
  00922	75 04		 jne	 SHORT $L198222

; 98   : 		return false;

  00924	32 c0		 xor	 al, al
  00926	eb 71		 jmp	 SHORT $L198221
$L198222:

; 99   : 
; 100  : 	//
; 101  : 	string strSwfPath = string( m_strSwfPath );

  00928	8b 4d cc	 mov	 ecx, DWORD PTR _this$[ebp]
  0092b	81 c1 58 01 00
	00		 add	 ecx, 344		; 00000158H
  00931	ff 15 00 00 00
	00		 call	 DWORD PTR __imp_??B?$CSimpleStringT@D$00@ATL@@QBEPBDXZ
  00937	50		 push	 eax
  00938	8d 4d d4	 lea	 ecx, DWORD PTR _strSwfPath$[ebp]
  0093b	ff 15 00 00 00
	00		 call	 DWORD PTR __imp_??0?$basic_string@DU?$char_traits@D@std@@V?$allocator@D@2@@std@@QAE@PBD@Z
  00941	c7 45 fc 00 00
	00 00		 mov	 DWORD PTR __$EHRec$[ebp+8], 0

; 102  : 	if( ConfigParaDefault::IsPathValid( strSwfPath ) )

  00948	8d 45 d4	 lea	 eax, DWORD PTR _strSwfPath$[ebp]
  0094b	50		 push	 eax
  0094c	e8 00 00 00 00	 call	 ?IsPathValid@ConfigParaDefault@@SA_NAAV?$basic_string@DU?$char_traits@D@std@@V?$allocator@D@2@@std@@@Z ; ConfigParaDefault::IsPathValid
  00951	83 c4 04	 add	 esp, 4
  00954	0f b6 c8	 movzx	 ecx, al
  00957	85 c9		 test	 ecx, ecx
  00959	74 19		 je	 SHORT $L198225

; 103  : 	{
; 104  : 		return true;

  0095b	c6 45 d3 01	 mov	 BYTE PTR $T198896[ebp], 1
  0095f	c7 45 fc ff ff
	ff ff		 mov	 DWORD PTR __$EHRec$[ebp+8], -1
  00966	8d 4d d4	 lea	 ecx, DWORD PTR _strSwfPath$[ebp]
  00969	ff 15 00 00 00
	00		 call	 DWORD PTR __imp_??1?$basic_string@DU?$char_traits@D@std@@V?$allocator@D@2@@std@@QAE@XZ
  0096f	8a 45 d3	 mov	 al, BYTE PTR $T198896[ebp]
  00972	eb 25		 jmp	 SHORT $L198221
$L198225:

; 105  : 	}else
; 106  : 	{
; 107  : 		strMsg = "";

  00974	68 00 00 00 00	 push	 OFFSET FLAT:$SG198228
  00979	8b 4d 08	 mov	 ecx, DWORD PTR _strMsg$[ebp]
  0097c	ff 15 00 00 00
	00		 call	 DWORD PTR __imp_??4?$basic_string@DU?$char_traits@D@std@@V?$allocator@D@2@@std@@QAEAAV01@PBD@Z

; 108  : 		return false;

  00982	c6 45 d2 00	 mov	 BYTE PTR $T198897[ebp], 0
  00986	c7 45 fc ff ff
	ff ff		 mov	 DWORD PTR __$EHRec$[ebp+8], -1
  0098d	8d 4d d4	 lea	 ecx, DWORD PTR _strSwfPath$[ebp]
  00990	ff 15 00 00 00
	00		 call	 DWORD PTR __imp_??1?$basic_string@DU?$char_traits@D@std@@V?$allocator@D@2@@std@@QAE@XZ
  00996	8a 45 d2	 mov	 al, BYTE PTR $T198897[ebp]
$L198221:

; 109  : 	}
; 110  : }

  00999	8b 4d f4	 mov	 ecx, DWORD PTR __$EHRec$[ebp]
  0099c	64 89 0d 00 00
	00 00		 mov	 DWORD PTR fs:__except_list, ecx
  009a3	8b 4d f0	 mov	 ecx, DWORD PTR __$ArrayPad$[ebp]
  009a6	e8 00 00 00 00	 call	 @__security_check_cookie@4
  009ab	8b e5		 mov	 esp, ebp
  009ad	5d		 pop	 ebp
  009ae	c2 04 00	 ret	 4
_TEXT	ENDS
text$x	SEGMENT
$L198898:
  001eb	8d 4d d4	 lea	 ecx, DWORD PTR _strSwfPath$[ebp]
  001ee	ff 25 00 00 00
	00		 jmp	 DWORD PTR __imp_??1?$basic_string@DU?$char_traits@D@std@@V?$allocator@D@2@@std@@QAE@XZ
__ehhandler$?IsAllInputOK@CDownDialog@@UAE_NAAV?$basic_string@DU?$char_traits@D@std@@V?$allocator@D@2@@std@@@Z:
  001f4	b8 00 00 00 00	 mov	 eax, OFFSET FLAT:$T198900
  001f9	e9 00 00 00 00	 jmp	 ___CxxFrameHandler
text$x	ENDS
?IsAllInputOK@CDownDialog@@UAE_NAAV?$basic_string@DU?$char_traits@D@std@@V?$allocator@D@2@@std@@@Z ENDP ; CDownDialog::IsAllInputOK
EXTRN	__imp__SHGetPathFromIDListA@8:NEAR
EXTRN	?SetFocus@CWnd@@QAEPAV1@XZ:NEAR			; CWnd::SetFocus
EXTRN	__imp__SHGetMalloc@4:NEAR
EXTRN	__imp__SHBrowseForFolderA@4:NEAR
EXTRN	__imp_??4?$CStringT@DV?$StrTraitMFC_DLL@DV?$ChTraitsCRT@D@ATL@@@@@ATL@@QAEAAV01@PBD@Z:NEAR
EXTRN	_memset:NEAR
EXTRN	?MakeDir@YL_DirInfo@@SA_NPBD@Z:NEAR		; YL_DirInfo::MakeDir
EXTRN	?SetWindowTextA@CWnd@@QAEXPBD@Z:NEAR		; CWnd::SetWindowTextA
; Function compile flags: /Odt
_TEXT	SEGMENT
_this$ = -576						; size = 4
_pMalloc$198246 = -572					; size = 4
_bi$ = -568						; size = 32
_pidl$ = -536						; size = 4
_bRet$ = -532						; size = 4
_szFolder$ = -528					; size = 520
__$ArrayPad$ = -4					; size = 4
__$ReturnAddr$ = 4					; size = 4
?OnBnClickedButton1@CDownDialog@@IAEXXZ PROC NEAR	; CDownDialog::OnBnClickedButton1
; _this$ = ecx

; 113  : {

  009c0	55		 push	 ebp
  009c1	8b ec		 mov	 ebp, esp
  009c3	81 ec 40 02 00
	00		 sub	 esp, 576		; 00000240H
  009c9	a1 00 00 00 00	 mov	 eax, DWORD PTR ___security_cookie
  009ce	89 45 fc	 mov	 DWORD PTR __$ArrayPad$[ebp], eax
  009d1	89 8d c0 fd ff
	ff		 mov	 DWORD PTR _this$[ebp], ecx

; 114  : 	//
; 115  : 	BROWSEINFO bi;
; 116  : 	ZeroMemory(&bi, sizeof(BROWSEINFO));

  009d7	6a 20		 push	 32			; 00000020H
  009d9	6a 00		 push	 0
  009db	8d 85 c8 fd ff
	ff		 lea	 eax, DWORD PTR _bi$[ebp]
  009e1	50		 push	 eax
  009e2	e8 00 00 00 00	 call	 _memset
  009e7	83 c4 0c	 add	 esp, 12			; 0000000cH

; 117  : 
; 118  : 	bi.hwndOwner = this->m_hWnd;//m_hWnd;

  009ea	8b 8d c0 fd ff
	ff		 mov	 ecx, DWORD PTR _this$[ebp]
  009f0	8b 51 20	 mov	 edx, DWORD PTR [ecx+32]
  009f3	89 95 c8 fd ff
	ff		 mov	 DWORD PTR _bi$[ebp], edx

; 119  : 	bi.ulFlags   = BIF_RETURNONLYFSDIRS;

  009f9	c7 85 d8 fd ff
	ff 01 00 00 00	 mov	 DWORD PTR _bi$[ebp+16], 1

; 120  : 	bi.lpszTitle = "";

  00a03	c7 85 d4 fd ff
	ff 00 00 00 00	 mov	 DWORD PTR _bi$[ebp+12], OFFSET FLAT:$SG198235

; 121  : 	LPITEMIDLIST pidl = SHBrowseForFolder(&bi);

  00a0d	8d 85 c8 fd ff
	ff		 lea	 eax, DWORD PTR _bi$[ebp]
  00a13	50		 push	 eax
  00a14	ff 15 00 00 00
	00		 call	 DWORD PTR __imp__SHBrowseForFolderA@4
  00a1a	89 85 e8 fd ff
	ff		 mov	 DWORD PTR _pidl$[ebp], eax

; 122  : 
; 123  : 	BOOL bRet = FALSE;

  00a20	c7 85 ec fd ff
	ff 00 00 00 00	 mov	 DWORD PTR _bRet$[ebp], 0

; 124  : 
; 125  : 	TCHAR szFolder[MAX_PATH*2];
; 126  : 	szFolder[0] = _T('\0');

  00a2a	c6 85 f0 fd ff
	ff 00		 mov	 BYTE PTR _szFolder$[ebp], 0

; 127  : 
; 128  : 	if (pidl)

  00a31	83 bd e8 fd ff
	ff 00		 cmp	 DWORD PTR _pidl$[ebp], 0
  00a38	0f 84 0f 01 00
	00		 je	 $L198232

; 129  : 	{
; 130  : 		if (SHGetPathFromIDList(pidl, szFolder))

  00a3e	8d 8d f0 fd ff
	ff		 lea	 ecx, DWORD PTR _szFolder$[ebp]
  00a44	51		 push	 ecx
  00a45	8b 95 e8 fd ff
	ff		 mov	 edx, DWORD PTR _pidl$[ebp]
  00a4b	52		 push	 edx
  00a4c	ff 15 00 00 00
	00		 call	 DWORD PTR __imp__SHGetPathFromIDListA@8
  00a52	85 c0		 test	 eax, eax
  00a54	0f 84 a4 00 00
	00		 je	 $L198240

; 131  : 		{
; 132  : 			if( YL_DirInfo::MakeDir(szFolder) )

  00a5a	8d 85 f0 fd ff
	ff		 lea	 eax, DWORD PTR _szFolder$[ebp]
  00a60	50		 push	 eax
  00a61	e8 00 00 00 00	 call	 ?MakeDir@YL_DirInfo@@SA_NPBD@Z ; YL_DirInfo::MakeDir
  00a66	83 c4 04	 add	 esp, 4
  00a69	0f b6 c8	 movzx	 ecx, al
  00a6c	85 c9		 test	 ecx, ecx
  00a6e	74 1b		 je	 SHORT $L198241

; 133  : 			{
; 134  : 				m_strSwfPath = szFolder;

  00a70	8d 95 f0 fd ff
	ff		 lea	 edx, DWORD PTR _szFolder$[ebp]
  00a76	52		 push	 edx
  00a77	8b 8d c0 fd ff
	ff		 mov	 ecx, DWORD PTR _this$[ebp]
  00a7d	81 c1 58 01 00
	00		 add	 ecx, 344		; 00000158H
  00a83	ff 15 00 00 00
	00		 call	 DWORD PTR __imp_??4?$CStringT@DV?$StrTraitMFC_DLL@DV?$ChTraitsCRT@D@ATL@@@@@ATL@@QAEAAV01@PBD@Z

; 135  : 			}
; 136  : 			else

  00a89	eb 20		 jmp	 SHORT $L198242
$L198241:

; 137  : 			{
; 138  : 				if( MessageBox(", !", "", MB_OK) == 0 )

  00a8b	6a 00		 push	 0
  00a8d	68 00 00 00 00	 push	 OFFSET FLAT:$SG198244
  00a92	68 00 00 00 00	 push	 OFFSET FLAT:$SG198245
  00a97	8b 8d c0 fd ff
	ff		 mov	 ecx, DWORD PTR _this$[ebp]
  00a9d	e8 00 00 00 00	 call	 ?MessageBoxA@CWnd@@QAEHPBD0I@Z ; CWnd::MessageBoxA
  00aa2	85 c0		 test	 eax, eax
  00aa4	75 05		 jne	 SHORT $L198242

; 139  : 					return;

  00aa6	e9 a2 00 00 00	 jmp	 $L198232
$L198242:

; 140  : 			}
; 141  : 			m_EditSwfPath.SetWindowText( m_strSwfPath );

  00aab	8b 8d c0 fd ff
	ff		 mov	 ecx, DWORD PTR _this$[ebp]
  00ab1	81 c1 58 01 00
	00		 add	 ecx, 344		; 00000158H
  00ab7	ff 15 00 00 00
	00		 call	 DWORD PTR __imp_??B?$CSimpleStringT@D$00@ATL@@QBEPBDXZ
  00abd	50		 push	 eax
  00abe	8b 8d c0 fd ff
	ff		 mov	 ecx, DWORD PTR _this$[ebp]
  00ac4	81 c1 5c 01 00
	00		 add	 ecx, 348		; 0000015cH
  00aca	e8 00 00 00 00	 call	 ?SetWindowTextA@CWnd@@QAEXPBD@Z ; CWnd::SetWindowTextA

; 142  : 			m_EditSwfPath.SetFocus();

  00acf	8b 8d c0 fd ff
	ff		 mov	 ecx, DWORD PTR _this$[ebp]
  00ad5	81 c1 5c 01 00
	00		 add	 ecx, 348		; 0000015cH
  00adb	e8 00 00 00 00	 call	 ?SetFocus@CWnd@@QAEPAV1@XZ ; CWnd::SetFocus

; 143  : 			bRet = TRUE;

  00ae0	c7 85 ec fd ff
	ff 01 00 00 00	 mov	 DWORD PTR _bRet$[ebp], 1

; 144  : 			SthChanged();

  00aea	8b 85 c0 fd ff
	ff		 mov	 eax, DWORD PTR _this$[ebp]
  00af0	8b 10		 mov	 edx, DWORD PTR [eax]
  00af2	8b 8d c0 fd ff
	ff		 mov	 ecx, DWORD PTR _this$[ebp]
  00af8	ff 92 60 01 00
	00		 call	 DWORD PTR [edx+352]
$L198240:

; 145  : 		}
; 146  : 
; 147  : 		IMalloc *pMalloc = NULL; 

  00afe	c7 85 c4 fd ff
	ff 00 00 00 00	 mov	 DWORD PTR _pMalloc$198246[ebp], 0

; 148  : 		if (SUCCEEDED(SHGetMalloc(&pMalloc)) && pMalloc) 

  00b08	8d 85 c4 fd ff
	ff		 lea	 eax, DWORD PTR _pMalloc$198246[ebp]
  00b0e	50		 push	 eax
  00b0f	ff 15 00 00 00
	00		 call	 DWORD PTR __imp__SHGetMalloc@4
  00b15	85 c0		 test	 eax, eax
  00b17	7c 34		 jl	 SHORT $L198232
  00b19	83 bd c4 fd ff
	ff 00		 cmp	 DWORD PTR _pMalloc$198246[ebp], 0
  00b20	74 2b		 je	 SHORT $L198232

; 149  : 		{
; 150  : 			pMalloc->Free(pidl);  

  00b22	8b 8d e8 fd ff
	ff		 mov	 ecx, DWORD PTR _pidl$[ebp]
  00b28	51		 push	 ecx
  00b29	8b 95 c4 fd ff
	ff		 mov	 edx, DWORD PTR _pMalloc$198246[ebp]
  00b2f	8b 02		 mov	 eax, DWORD PTR [edx]
  00b31	8b 8d c4 fd ff
	ff		 mov	 ecx, DWORD PTR _pMalloc$198246[ebp]
  00b37	51		 push	 ecx
  00b38	ff 50 14	 call	 DWORD PTR [eax+20]

; 151  : 			pMalloc->Release(); 

  00b3b	8b 95 c4 fd ff
	ff		 mov	 edx, DWORD PTR _pMalloc$198246[ebp]
  00b41	8b 02		 mov	 eax, DWORD PTR [edx]
  00b43	8b 8d c4 fd ff
	ff		 mov	 ecx, DWORD PTR _pMalloc$198246[ebp]
  00b49	51		 push	 ecx
  00b4a	ff 50 08	 call	 DWORD PTR [eax+8]
$L198232:

; 152  : 		}
; 153  : 	}
; 154  : }

  00b4d	8b 4d fc	 mov	 ecx, DWORD PTR __$ArrayPad$[ebp]
  00b50	e8 00 00 00 00	 call	 @__security_check_cookie@4
  00b55	8b e5		 mov	 esp, ebp
  00b57	5d		 pop	 ebp
  00b58	c3		 ret	 0
?OnBnClickedButton1@CDownDialog@@IAEXXZ ENDP		; CDownDialog::OnBnClickedButton1
; Function compile flags: /Odt
_this$ = -576						; size = 4
_pMalloc$198265 = -572					; size = 4
_bi$ = -568						; size = 32
_pidl$ = -536						; size = 4
_bRet$ = -532						; size = 4
_szFolder$ = -528					; size = 520
__$ArrayPad$ = -4					; size = 4
__$ReturnAddr$ = 4					; size = 4
?OnBtnBroPicSavePath@CDownDialog@@IAEXXZ PROC NEAR	; CDownDialog::OnBtnBroPicSavePath
; _this$ = ecx

; 160  : {

  00b60	55		 push	 ebp
  00b61	8b ec		 mov	 ebp, esp
  00b63	81 ec 40 02 00
	00		 sub	 esp, 576		; 00000240H
  00b69	a1 00 00 00 00	 mov	 eax, DWORD PTR ___security_cookie
  00b6e	89 45 fc	 mov	 DWORD PTR __$ArrayPad$[ebp], eax
  00b71	89 8d c0 fd ff
	ff		 mov	 DWORD PTR _this$[ebp], ecx

; 161  : 	//
; 162  : 	BROWSEINFO bi;
; 163  : 	ZeroMemory(&bi, sizeof(BROWSEINFO));

  00b77	6a 20		 push	 32			; 00000020H
  00b79	6a 00		 push	 0
  00b7b	8d 85 c8 fd ff
	ff		 lea	 eax, DWORD PTR _bi$[ebp]
  00b81	50		 push	 eax
  00b82	e8 00 00 00 00	 call	 _memset
  00b87	83 c4 0c	 add	 esp, 12			; 0000000cH

; 164  : 
; 165  : 	bi.hwndOwner = this->m_hWnd;//m_hWnd;

  00b8a	8b 8d c0 fd ff
	ff		 mov	 ecx, DWORD PTR _this$[ebp]
  00b90	8b 51 20	 mov	 edx, DWORD PTR [ecx+32]
  00b93	89 95 c8 fd ff
	ff		 mov	 DWORD PTR _bi$[ebp], edx

; 166  : 	bi.ulFlags   = BIF_RETURNONLYFSDIRS;

  00b99	c7 85 d8 fd ff
	ff 01 00 00 00	 mov	 DWORD PTR _bi$[ebp+16], 1

; 167  : 	bi.lpszTitle = "";

  00ba3	c7 85 d4 fd ff
	ff 00 00 00 00	 mov	 DWORD PTR _bi$[ebp+12], OFFSET FLAT:$SG198254

; 168  : 	LPITEMIDLIST pidl = SHBrowseForFolder(&bi);

  00bad	8d 85 c8 fd ff
	ff		 lea	 eax, DWORD PTR _bi$[ebp]
  00bb3	50		 push	 eax
  00bb4	ff 15 00 00 00
	00		 call	 DWORD PTR __imp__SHBrowseForFolderA@4
  00bba	89 85 e8 fd ff
	ff		 mov	 DWORD PTR _pidl$[ebp], eax

; 169  : 
; 170  : 	BOOL bRet = FALSE;

  00bc0	c7 85 ec fd ff
	ff 00 00 00 00	 mov	 DWORD PTR _bRet$[ebp], 0

; 171  : 
; 172  : 	TCHAR szFolder[MAX_PATH*2];
; 173  : 	szFolder[0] = _T('\0');

  00bca	c6 85 f0 fd ff
	ff 00		 mov	 BYTE PTR _szFolder$[ebp], 0

; 174  : 
; 175  : 	if (pidl)

  00bd1	83 bd e8 fd ff
	ff 00		 cmp	 DWORD PTR _pidl$[ebp], 0
  00bd8	0f 84 0f 01 00
	00		 je	 $L198251

; 176  : 	{
; 177  : 		if (SHGetPathFromIDList(pidl, szFolder))

  00bde	8d 8d f0 fd ff
	ff		 lea	 ecx, DWORD PTR _szFolder$[ebp]
  00be4	51		 push	 ecx
  00be5	8b 95 e8 fd ff
	ff		 mov	 edx, DWORD PTR _pidl$[ebp]
  00beb	52		 push	 edx
  00bec	ff 15 00 00 00
	00		 call	 DWORD PTR __imp__SHGetPathFromIDListA@8
  00bf2	85 c0		 test	 eax, eax
  00bf4	0f 84 a4 00 00
	00		 je	 $L198259

; 178  : 		{
; 179  : 			if( YL_DirInfo::MakeDir(szFolder) )

  00bfa	8d 85 f0 fd ff
	ff		 lea	 eax, DWORD PTR _szFolder$[ebp]
  00c00	50		 push	 eax
  00c01	e8 00 00 00 00	 call	 ?MakeDir@YL_DirInfo@@SA_NPBD@Z ; YL_DirInfo::MakeDir
  00c06	83 c4 04	 add	 esp, 4
  00c09	0f b6 c8	 movzx	 ecx, al
  00c0c	85 c9		 test	 ecx, ecx
  00c0e	74 1b		 je	 SHORT $L198260

; 180  : 			{
; 181  : 				m_strPicSavePath = szFolder;

  00c10	8d 95 f0 fd ff
	ff		 lea	 edx, DWORD PTR _szFolder$[ebp]
  00c16	52		 push	 edx
  00c17	8b 8d c0 fd ff
	ff		 mov	 ecx, DWORD PTR _this$[ebp]
  00c1d	81 c1 b0 01 00
	00		 add	 ecx, 432		; 000001b0H
  00c23	ff 15 00 00 00
	00		 call	 DWORD PTR __imp_??4?$CStringT@DV?$StrTraitMFC_DLL@DV?$ChTraitsCRT@D@ATL@@@@@ATL@@QAEAAV01@PBD@Z

; 182  : 			}
; 183  : 			else

  00c29	eb 20		 jmp	 SHORT $L198261
$L198260:

; 184  : 			{
; 185  : 				if( MessageBox(", !", "", MB_OK) == 0 )

  00c2b	6a 00		 push	 0
  00c2d	68 00 00 00 00	 push	 OFFSET FLAT:$SG198263
  00c32	68 00 00 00 00	 push	 OFFSET FLAT:$SG198264
  00c37	8b 8d c0 fd ff
	ff		 mov	 ecx, DWORD PTR _this$[ebp]
  00c3d	e8 00 00 00 00	 call	 ?MessageBoxA@CWnd@@QAEHPBD0I@Z ; CWnd::MessageBoxA
  00c42	85 c0		 test	 eax, eax
  00c44	75 05		 jne	 SHORT $L198261

; 186  : 					return;

  00c46	e9 a2 00 00 00	 jmp	 $L198251
$L198261:

; 187  : 			}
; 188  : 			m_EditPicSavePath.SetWindowText( m_strPicSavePath );

  00c4b	8b 8d c0 fd ff
	ff		 mov	 ecx, DWORD PTR _this$[ebp]
  00c51	81 c1 b0 01 00
	00		 add	 ecx, 432		; 000001b0H
  00c57	ff 15 00 00 00
	00		 call	 DWORD PTR __imp_??B?$CSimpleStringT@D$00@ATL@@QBEPBDXZ
  00c5d	50		 push	 eax
  00c5e	8b 8d c0 fd ff
	ff		 mov	 ecx, DWORD PTR _this$[ebp]
  00c64	81 c1 b4 01 00
	00		 add	 ecx, 436		; 000001b4H
  00c6a	e8 00 00 00 00	 call	 ?SetWindowTextA@CWnd@@QAEXPBD@Z ; CWnd::SetWindowTextA

; 189  : 			m_EditPicSavePath.SetFocus();

  00c6f	8b 8d c0 fd ff
	ff		 mov	 ecx, DWORD PTR _this$[ebp]
  00c75	81 c1 b4 01 00
	00		 add	 ecx, 436		; 000001b4H
  00c7b	e8 00 00 00 00	 call	 ?SetFocus@CWnd@@QAEPAV1@XZ ; CWnd::SetFocus

; 190  : 			bRet = TRUE;

  00c80	c7 85 ec fd ff
	ff 01 00 00 00	 mov	 DWORD PTR _bRet$[ebp], 1

; 191  : 			SthChanged();

  00c8a	8b 85 c0 fd ff
	ff		 mov	 eax, DWORD PTR _this$[ebp]
  00c90	8b 10		 mov	 edx, DWORD PTR [eax]
  00c92	8b 8d c0 fd ff
	ff		 mov	 ecx, DWORD PTR _this$[ebp]
  00c98	ff 92 60 01 00
	00		 call	 DWORD PTR [edx+352]
$L198259:

; 192  : 		}
; 193  : 
; 194  : 		IMalloc *pMalloc = NULL; 

  00c9e	c7 85 c4 fd ff
	ff 00 00 00 00	 mov	 DWORD PTR _pMalloc$198265[ebp], 0

; 195  : 		if (SUCCEEDED(SHGetMalloc(&pMalloc)) && pMalloc) 

  00ca8	8d 85 c4 fd ff
	ff		 lea	 eax, DWORD PTR _pMalloc$198265[ebp]
  00cae	50		 push	 eax
  00caf	ff 15 00 00 00
	00		 call	 DWORD PTR __imp__SHGetMalloc@4
  00cb5	85 c0		 test	 eax, eax
  00cb7	7c 34		 jl	 SHORT $L198251
  00cb9	83 bd c4 fd ff
	ff 00		 cmp	 DWORD PTR _pMalloc$198265[ebp], 0
  00cc0	74 2b		 je	 SHORT $L198251

; 196  : 		{
; 197  : 			pMalloc->Free(pidl);  

  00cc2	8b 8d e8 fd ff
	ff		 mov	 ecx, DWORD PTR _pidl$[ebp]
  00cc8	51		 push	 ecx
  00cc9	8b 95 c4 fd ff
	ff		 mov	 edx, DWORD PTR _pMalloc$198265[ebp]
  00ccf	8b 02		 mov	 eax, DWORD PTR [edx]
  00cd1	8b 8d c4 fd ff
	ff		 mov	 ecx, DWORD PTR _pMalloc$198265[ebp]
  00cd7	51		 push	 ecx
  00cd8	ff 50 14	 call	 DWORD PTR [eax+20]

; 198  : 			pMalloc->Release(); 

  00cdb	8b 95 c4 fd ff
	ff		 mov	 edx, DWORD PTR _pMalloc$198265[ebp]
  00ce1	8b 02		 mov	 eax, DWORD PTR [edx]
  00ce3	8b 8d c4 fd ff
	ff		 mov	 ecx, DWORD PTR _pMalloc$198265[ebp]
  00ce9	51		 push	 ecx
  00cea	ff 50 08	 call	 DWORD PTR [eax+8]
$L198251:

; 199  : 		}
; 200  : 	}
; 201  : }

  00ced	8b 4d fc	 mov	 ecx, DWORD PTR __$ArrayPad$[ebp]
  00cf0	e8 00 00 00 00	 call	 @__security_check_cookie@4
  00cf5	8b e5		 mov	 esp, ebp
  00cf7	5d		 pop	 ebp
  00cf8	c3		 ret	 0
?OnBtnBroPicSavePath@CDownDialog@@IAEXXZ ENDP		; CDownDialog::OnBtnBroPicSavePath
_TEXT	ENDS
PUBLIC	?InterlockedExchangePointer@@YGPAXPAPAXPAX@Z	; InterlockedExchangePointer
PUBLIC	?_AtlGetThreadACPFake@ATL@@YGIXZ		; ATL::_AtlGetThreadACPFake
PUBLIC	?_AtlGetThreadACPReal@ATL@@YGIXZ		; ATL::_AtlGetThreadACPReal
EXTRN	__imp__GetVersionExA@4:NEAR
; Function compile flags: /Odt
; File d:\program files (x86)\microsoft visual studio .net 2003\vc7\atlmfc\include\atlconv.h
;	COMDAT ?_AtlGetThreadACPThunk@ATL@@YGIXZ
_TEXT	SEGMENT
_pfnGetThreadACP$ = -164				; size = 4
_ver$ = -160						; size = 148
__$ArrayPad$ = -4					; size = 4
__$ReturnAddr$ = 4					; size = 4
?_AtlGetThreadACPThunk@ATL@@YGIXZ PROC NEAR		; ATL::_AtlGetThreadACPThunk, COMDAT

; 134  : {

  00000	55		 push	 ebp
  00001	8b ec		 mov	 ebp, esp
  00003	81 ec a4 00 00
	00		 sub	 esp, 164		; 000000a4H
  00009	a1 00 00 00 00	 mov	 eax, DWORD PTR ___security_cookie
  0000e	89 45 fc	 mov	 DWORD PTR __$ArrayPad$[ebp], eax

; 135  : 	OSVERSIONINFO ver;
; 136  : 	ATLGETTHREADACP pfnGetThreadACP;
; 137  : 
; 138  : 	ver.dwOSVersionInfoSize = sizeof( ver );

  00011	c7 85 60 ff ff
	ff 94 00 00 00	 mov	 DWORD PTR _ver$[ebp], 148 ; 00000094H

; 139  : 	::GetVersionEx( &ver );

  0001b	8d 85 60 ff ff
	ff		 lea	 eax, DWORD PTR _ver$[ebp]
  00021	50		 push	 eax
  00022	ff 15 00 00 00
	00		 call	 DWORD PTR __imp__GetVersionExA@4

; 140  : 	if( (ver.dwPlatformId == VER_PLATFORM_WIN32_NT) && (ver.dwMajorVersion >= 5) )

  00028	83 bd 70 ff ff
	ff 02		 cmp	 DWORD PTR _ver$[ebp+16], 2
  0002f	75 15		 jne	 SHORT $L24173
  00031	83 bd 64 ff ff
	ff 05		 cmp	 DWORD PTR _ver$[ebp+4], 5
  00038	72 0c		 jb	 SHORT $L24173

; 141  : 	{
; 142  : 		// On Win2K, CP_THREAD_ACP is supported
; 143  : 		pfnGetThreadACP = _AtlGetThreadACPReal;

  0003a	c7 85 5c ff ff
	ff 00 00 00 00	 mov	 DWORD PTR _pfnGetThreadACP$[ebp], OFFSET FLAT:?_AtlGetThreadACPReal@ATL@@YGIXZ ; ATL::_AtlGetThreadACPReal

; 144  : 	}
; 145  : 	else

  00044	eb 0a		 jmp	 SHORT $L24174
$L24173:

; 146  : 	{
; 147  : 		pfnGetThreadACP = _AtlGetThreadACPFake;

  00046	c7 85 5c ff ff
	ff 00 00 00 00	 mov	 DWORD PTR _pfnGetThreadACP$[ebp], OFFSET FLAT:?_AtlGetThreadACPFake@ATL@@YGIXZ ; ATL::_AtlGetThreadACPFake
$L24174:

; 148  : 	}
; 149  : 	InterlockedExchangePointer( reinterpret_cast< void** >(&g_pfnGetThreadACP), pfnGetThreadACP );

  00050	8b 8d 5c ff ff
	ff		 mov	 ecx, DWORD PTR _pfnGetThreadACP$[ebp]
  00056	51		 push	 ecx
  00057	68 00 00 00 00	 push	 OFFSET FLAT:?g_pfnGetThreadACP@ATL@@3P6GIXZA ; ATL::g_pfnGetThreadACP
  0005c	e8 00 00 00 00	 call	 ?InterlockedExchangePointer@@YGPAXPAPAXPAX@Z ; InterlockedExchangePointer

; 150  : 
; 151  : 	return( g_pfnGetThreadACP() );

  00061	ff 15 00 00 00
	00		 call	 DWORD PTR ?g_pfnGetThreadACP@ATL@@3P6GIXZA ; ATL::g_pfnGetThreadACP

; 152  : }

  00067	8b 4d fc	 mov	 ecx, DWORD PTR __$ArrayPad$[ebp]
  0006a	e8 00 00 00 00	 call	 @__security_check_cookie@4
  0006f	8b e5		 mov	 esp, ebp
  00071	5d		 pop	 ebp
  00072	c3		 ret	 0
?_AtlGetThreadACPThunk@ATL@@YGIXZ ENDP			; ATL::_AtlGetThreadACPThunk
_TEXT	ENDS
EXTRN	__imp__InterlockedExchange@8:NEAR
; Function compile flags: /Odt
;	COMDAT ?InterlockedExchangePointer@@YGPAXPAPAXPAX@Z
_TEXT	SEGMENT
_pp$ = 8						; size = 4
_pNew$ = 12						; size = 4
?InterlockedExchangePointer@@YGPAXPAPAXPAX@Z PROC NEAR	; InterlockedExchangePointer, COMDAT

; 91   : {

  00000	55		 push	 ebp
  00001	8b ec		 mov	 ebp, esp

; 92   : 	return( reinterpret_cast<void*>(static_cast<LONG_PTR>(::InterlockedExchange(reinterpret_cast<LONG*>(pp), static_cast<LONG>(reinterpret_cast<LONG_PTR>(pNew))))) );

  00003	8b 45 0c	 mov	 eax, DWORD PTR _pNew$[ebp]
  00006	50		 push	 eax
  00007	8b 4d 08	 mov	 ecx, DWORD PTR _pp$[ebp]
  0000a	51		 push	 ecx
  0000b	ff 15 00 00 00
	00		 call	 DWORD PTR __imp__InterlockedExchange@8

; 93   : }

  00011	5d		 pop	 ebp
  00012	c2 08 00	 ret	 8
?InterlockedExchangePointer@@YGPAXPAPAXPAX@Z ENDP	; InterlockedExchangePointer
_TEXT	ENDS
EXTRN	__imp__GetACP@0:NEAR
EXTRN	__imp__GetLocaleInfoA@16:NEAR
EXTRN	__imp__GetThreadLocale@0:NEAR
; Function compile flags: /Odt
;	COMDAT ?_AtlGetThreadACPFake@ATL@@YGIXZ
_TEXT	SEGMENT
_pch$24161 = -24					; size = 4
_lcidThread$ = -20					; size = 4
_szACP$ = -16						; size = 7
__$ArrayPad$ = -8					; size = 4
_nACP$ = -4						; size = 4
__$ReturnAddr$ = 4					; size = 4
?_AtlGetThreadACPFake@ATL@@YGIXZ PROC NEAR		; ATL::_AtlGetThreadACPFake, COMDAT

; 101  : {

  00000	55		 push	 ebp
  00001	8b ec		 mov	 ebp, esp
  00003	83 ec 18	 sub	 esp, 24			; 00000018H
  00006	a1 00 00 00 00	 mov	 eax, DWORD PTR ___security_cookie
  0000b	89 45 f8	 mov	 DWORD PTR __$ArrayPad$[ebp], eax

; 102  : 	UINT nACP = 0;

  0000e	c7 45 fc 00 00
	00 00		 mov	 DWORD PTR _nACP$[ebp], 0

; 103  : 
; 104  : 	LCID lcidThread = ::GetThreadLocale();

  00015	ff 15 00 00 00
	00		 call	 DWORD PTR __imp__GetThreadLocale@0
  0001b	89 45 ec	 mov	 DWORD PTR _lcidThread$[ebp], eax

; 105  : 
; 106  : 	char szACP[7];
; 107  : 	// GetLocaleInfoA will fail for a Unicode-only LCID, but those are only supported on 
; 108  : 	// Windows 2000.  Since Windows 2000 supports CP_THREAD_ACP, this code path is never
; 109  : 	// executed on Windows 2000.
; 110  : 	if (::GetLocaleInfoA(lcidThread, LOCALE_IDEFAULTANSICODEPAGE, szACP, 7) != 0)

  0001e	6a 07		 push	 7
  00020	8d 45 f0	 lea	 eax, DWORD PTR _szACP$[ebp]
  00023	50		 push	 eax
  00024	68 04 10 00 00	 push	 4100			; 00001004H
  00029	8b 4d ec	 mov	 ecx, DWORD PTR _lcidThread$[ebp]
  0002c	51		 push	 ecx
  0002d	ff 15 00 00 00
	00		 call	 DWORD PTR __imp__GetLocaleInfoA@16
  00033	85 c0		 test	 eax, eax
  00035	74 34		 je	 SHORT $L24160

; 111  : 	{
; 112  : 		char* pch = szACP;

  00037	8d 55 f0	 lea	 edx, DWORD PTR _szACP$[ebp]
  0003a	89 55 e8	 mov	 DWORD PTR _pch$24161[ebp], edx
$L24163:

; 113  : 		while (*pch != '\0')

  0003d	8b 45 e8	 mov	 eax, DWORD PTR _pch$24161[ebp]
  00040	0f be 08	 movsx	 ecx, BYTE PTR [eax]
  00043	85 c9		 test	 ecx, ecx
  00045	74 24		 je	 SHORT $L24160

; 114  : 		{
; 115  : 			nACP *= 10;

  00047	8b 55 fc	 mov	 edx, DWORD PTR _nACP$[ebp]
  0004a	6b d2 0a	 imul	 edx, 10			; 0000000aH
  0004d	89 55 fc	 mov	 DWORD PTR _nACP$[ebp], edx

; 116  : 			nACP += *pch++ - '0';

  00050	8b 45 e8	 mov	 eax, DWORD PTR _pch$24161[ebp]
  00053	0f be 08	 movsx	 ecx, BYTE PTR [eax]
  00056	8b 55 fc	 mov	 edx, DWORD PTR _nACP$[ebp]
  00059	8d 44 0a d0	 lea	 eax, DWORD PTR [edx+ecx-48]
  0005d	89 45 fc	 mov	 DWORD PTR _nACP$[ebp], eax
  00060	8b 4d e8	 mov	 ecx, DWORD PTR _pch$24161[ebp]
  00063	83 c1 01	 add	 ecx, 1
  00066	89 4d e8	 mov	 DWORD PTR _pch$24161[ebp], ecx

; 117  : 		}

  00069	eb d2		 jmp	 SHORT $L24163
$L24160:

; 118  : 	}
; 119  : 	// Use the Default ANSI Code Page if we were unable to get the thread ACP or if one does not exist.
; 120  : 	if (nACP == 0)

  0006b	83 7d fc 00	 cmp	 DWORD PTR _nACP$[ebp], 0
  0006f	75 09		 jne	 SHORT $L24165

; 121  : 		nACP = ::GetACP();

  00071	ff 15 00 00 00
	00		 call	 DWORD PTR __imp__GetACP@0
  00077	89 45 fc	 mov	 DWORD PTR _nACP$[ebp], eax
$L24165:

; 122  : 
; 123  : 	return nACP;

  0007a	8b 45 fc	 mov	 eax, DWORD PTR _nACP$[ebp]

; 124  : }

  0007d	8b 4d f8	 mov	 ecx, DWORD PTR __$ArrayPad$[ebp]
  00080	e8 00 00 00 00	 call	 @__security_check_cookie@4
  00085	8b e5		 mov	 esp, ebp
  00087	5d		 pop	 ebp
  00088	c3		 ret	 0
?_AtlGetThreadACPFake@ATL@@YGIXZ ENDP			; ATL::_AtlGetThreadACPFake
; Function compile flags: /Odt
_TEXT	ENDS
;	COMDAT ?_AtlGetThreadACPReal@ATL@@YGIXZ
_TEXT	SEGMENT
?_AtlGetThreadACPReal@ATL@@YGIXZ PROC NEAR		; ATL::_AtlGetThreadACPReal, COMDAT

; 127  : {

  00000	55		 push	 ebp
  00001	8b ec		 mov	 ebp, esp

; 128  : 	return( CP_THREAD_ACP );

  00003	b8 03 00 00 00	 mov	 eax, 3

; 129  : }

  00008	5d		 pop	 ebp
  00009	c3		 ret	 0
?_AtlGetThreadACPReal@ATL@@YGIXZ ENDP			; ATL::_AtlGetThreadACPReal
; Function compile flags: /Odt
; File d:\program files (x86)\microsoft visual studio .net 2003\vc7\atlmfc\include\afx.inl
_TEXT	ENDS
;	COMDAT ?Serialize@CObject@@UAEXAAVCArchive@@@Z
_TEXT	SEGMENT
_this$ = -4						; size = 4
___formal$ = 8						; size = 4
?Serialize@CObject@@UAEXAAVCArchive@@@Z PROC NEAR	; CObject::Serialize, COMDAT
; _this$ = ecx

; 25   : 	{ /* CObject does not serialize anything by default */ }

  00000	55		 push	 ebp
  00001	8b ec		 mov	 ebp, esp
  00003	51		 push	 ecx
  00004	89 4d fc	 mov	 DWORD PTR _this$[ebp], ecx
  00007	8b e5		 mov	 esp, ebp
  00009	5d		 pop	 ebp
  0000a	c2 04 00	 ret	 4
?Serialize@CObject@@UAEXAAVCArchive@@@Z ENDP		; CObject::Serialize
_TEXT	ENDS
EXTRN	??3@YAXPAX@Z:NEAR				; operator delete
; Function compile flags: /Odt
;	COMDAT ??3CObject@@SGXPAX@Z
_TEXT	SEGMENT
_p$ = 8							; size = 4
??3CObject@@SGXPAX@Z PROC NEAR				; CObject::operator delete, COMDAT

; 31   : 	{ ::operator delete(p); }

  00000	55		 push	 ebp
  00001	8b ec		 mov	 ebp, esp
  00003	8b 45 08	 mov	 eax, DWORD PTR _p$[ebp]
  00006	50		 push	 eax
  00007	e8 00 00 00 00	 call	 ??3@YAXPAX@Z		; operator delete
  0000c	83 c4 04	 add	 esp, 4
  0000f	5d		 pop	 ebp
  00010	c2 04 00	 ret	 4
??3CObject@@SGXPAX@Z ENDP				; CObject::operator delete
; Function compile flags: /Odt
_TEXT	ENDS
;	COMDAT ?AssertValid@CObject@@UBEXXZ
_TEXT	SEGMENT
_this$ = -4						; size = 4
?AssertValid@CObject@@UBEXXZ PROC NEAR			; CObject::AssertValid, COMDAT
; _this$ = ecx

; 41   : 	{ /* no asserts in release builds */ }

  00000	55		 push	 ebp
  00001	8b ec		 mov	 ebp, esp
  00003	51		 push	 ecx
  00004	89 4d fc	 mov	 DWORD PTR _this$[ebp], ecx
  00007	8b e5		 mov	 esp, ebp
  00009	5d		 pop	 ebp
  0000a	c3		 ret	 0
?AssertValid@CObject@@UBEXXZ ENDP			; CObject::AssertValid
; Function compile flags: /Odt
_TEXT	ENDS
;	COMDAT ?Dump@CObject@@UBEXAAVCDumpContext@@@Z
_TEXT	SEGMENT
_this$ = -4						; size = 4
___formal$ = 8						; size = 4
?Dump@CObject@@UBEXAAVCDumpContext@@@Z PROC NEAR	; CObject::Dump, COMDAT
; _this$ = ecx

; 43   : 	{ /* no dumping in release builds */ }

  00000	55		 push	 ebp
  00001	8b ec		 mov	 ebp, esp
  00003	51		 push	 ecx
  00004	89 4d fc	 mov	 DWORD PTR _this$[ebp], ecx
  00007	8b e5		 mov	 esp, ebp
  00009	5d		 pop	 ebp
  0000a	c2 04 00	 ret	 4
?Dump@CObject@@UBEXAAVCDumpContext@@@Z ENDP		; CObject::Dump
; Function compile flags: /Odt
; File d:\program files (x86)\microsoft visual studio .net 2003\vc7\atlmfc\include\afxwin2.inl
_TEXT	ENDS
;	COMDAT ?DoDataExchange@CWnd@@MAEXPAVCDataExchange@@@Z
_TEXT	SEGMENT
_this$ = -4						; size = 4
___formal$ = 8						; size = 4
?DoDataExchange@CWnd@@MAEXPAVCDataExchange@@@Z PROC NEAR ; CWnd::DoDataExchange, COMDAT
; _this$ = ecx

; 545  : 	{ } // default does nothing

  00000	55		 push	 ebp
  00001	8b ec		 mov	 ebp, esp
  00003	51		 push	 ecx
  00004	89 4d fc	 mov	 DWORD PTR _this$[ebp], ecx
  00007	8b e5		 mov	 esp, ebp
  00009	5d		 pop	 ebp
  0000a	c2 04 00	 ret	 4
?DoDataExchange@CWnd@@MAEXPAVCDataExchange@@@Z ENDP	; CWnd::DoDataExchange
_TEXT	ENDS
EXTRN	__imp__EnableWindow@8:NEAR
; Function compile flags: /Odt
;	COMDAT ?BeginModalState@CWnd@@UAEXXZ
_TEXT	SEGMENT
_this$ = -4						; size = 4
?BeginModalState@CWnd@@UAEXXZ PROC NEAR			; CWnd::BeginModalState, COMDAT
; _this$ = ecx

; 549  : 	{ ::EnableWindow(m_hWnd, FALSE); }

  00000	55		 push	 ebp
  00001	8b ec		 mov	 ebp, esp
  00003	51		 push	 ecx
  00004	89 4d fc	 mov	 DWORD PTR _this$[ebp], ecx
  00007	6a 00		 push	 0
  00009	8b 45 fc	 mov	 eax, DWORD PTR _this$[ebp]
  0000c	8b 48 20	 mov	 ecx, DWORD PTR [eax+32]
  0000f	51		 push	 ecx
  00010	ff 15 00 00 00
	00		 call	 DWORD PTR __imp__EnableWindow@8
  00016	8b e5		 mov	 esp, ebp
  00018	5d		 pop	 ebp
  00019	c3		 ret	 0
?BeginModalState@CWnd@@UAEXXZ ENDP			; CWnd::BeginModalState
; Function compile flags: /Odt
_TEXT	ENDS
;	COMDAT ?EndModalState@CWnd@@UAEXXZ
_TEXT	SEGMENT
_this$ = -4						; size = 4
?EndModalState@CWnd@@UAEXXZ PROC NEAR			; CWnd::EndModalState, COMDAT
; _this$ = ecx

; 551  : 	{ ::EnableWindow(m_hWnd, TRUE); }

  00000	55		 push	 ebp
  00001	8b ec		 mov	 ebp, esp
  00003	51		 push	 ecx
  00004	89 4d fc	 mov	 DWORD PTR _this$[ebp], ecx
  00007	6a 01		 push	 1
  00009	8b 45 fc	 mov	 eax, DWORD PTR _this$[ebp]
  0000c	8b 48 20	 mov	 ecx, DWORD PTR [eax+32]
  0000f	51		 push	 ecx
  00010	ff 15 00 00 00
	00		 call	 DWORD PTR __imp__EnableWindow@8
  00016	8b e5		 mov	 esp, ebp
  00018	5d		 pop	 ebp
  00019	c3		 ret	 0
?EndModalState@CWnd@@UAEXXZ ENDP			; CWnd::EndModalState
; Function compile flags: /Odt
_TEXT	ENDS
;	COMDAT ?Create@CDialog@@UAEHIPAVCWnd@@@Z
_TEXT	SEGMENT
_this$ = -4						; size = 4
_nIDTemplate$ = 8					; size = 4
_pParentWnd$ = 12					; size = 4
?Create@CDialog@@UAEHIPAVCWnd@@@Z PROC NEAR		; CDialog::Create, COMDAT
; _this$ = ecx

; 569  : 	{ return Create(MAKEINTRESOURCE(nIDTemplate), pParentWnd); }

  00000	55		 push	 ebp
  00001	8b ec		 mov	 ebp, esp
  00003	51		 push	 ecx
  00004	89 4d fc	 mov	 DWORD PTR _this$[ebp], ecx
  00007	8b 45 0c	 mov	 eax, DWORD PTR _pParentWnd$[ebp]
  0000a	50		 push	 eax
  0000b	0f b7 4d 08	 movzx	 ecx, WORD PTR _nIDTemplate$[ebp]
  0000f	51		 push	 ecx
  00010	8b 55 fc	 mov	 edx, DWORD PTR _this$[ebp]
  00013	8b 02		 mov	 eax, DWORD PTR [edx]
  00015	8b 4d fc	 mov	 ecx, DWORD PTR _this$[ebp]
  00018	ff 90 3c 01 00
	00		 call	 DWORD PTR [eax+316]
  0001e	8b e5		 mov	 esp, ebp
  00020	5d		 pop	 ebp
  00021	c2 08 00	 ret	 8
?Create@CDialog@@UAEHIPAVCWnd@@@Z ENDP			; CDialog::Create
_TEXT	ENDS
CRT$XCU	SEGMENT
_$S6	DD	FLAT:_$E5
; Function compile flags: /Odt
; File d:\boxgit\playbox\playbox\dev\prj\playbox\src\appconfig\config\configappdef.h
CRT$XCU	ENDS
;	COMDAT _$E5
text$yc	SEGMENT
_$E5	PROC NEAR					; COMDAT

; 19   : 	CONF_APP_SWF_PATH,			TYPE_CONFIG_STR,

  00000	55		 push	 ebp
  00001	8b ec		 mov	 ebp, esp
  00003	a1 00 00 00 00	 mov	 eax, DWORD PTR _CONF_APP_SWF_PATH
  00008	a3 00 00 00 00	 mov	 DWORD PTR _CONF_APP, eax
  0000d	8b 0d 00 00 00
	00		 mov	 ecx, DWORD PTR _TYPE_CONFIG_STR
  00013	89 0d 04 00 00
	00		 mov	 DWORD PTR _CONF_APP+4, ecx

; 20   : 	CONF_APP_MAINWND_HOLD,		TYPE_CONFIG_BOOL,

  00019	8b 15 00 00 00
	00		 mov	 edx, DWORD PTR _CONF_APP_MAINWND_HOLD
  0001f	89 15 08 00 00
	00		 mov	 DWORD PTR _CONF_APP+8, edx
  00025	a1 00 00 00 00	 mov	 eax, DWORD PTR _TYPE_CONFIG_BOOL
  0002a	a3 0c 00 00 00	 mov	 DWORD PTR _CONF_APP+12, eax

; 21   : 	CONF_APP_RUN_COUNT,			TYPE_CONFIG_INT,

  0002f	8b 0d 00 00 00
	00		 mov	 ecx, DWORD PTR _CONF_APP_RUN_COUNT
  00035	89 0d 10 00 00
	00		 mov	 DWORD PTR _CONF_APP+16, ecx
  0003b	8b 15 00 00 00
	00		 mov	 edx, DWORD PTR _TYPE_CONFIG_INT
  00041	89 15 14 00 00
	00		 mov	 DWORD PTR _CONF_APP+20, edx

; 22   : 	CONF_APP_PLAYED_GAME,		TYPE_CONFIG_INT,

  00047	a1 00 00 00 00	 mov	 eax, DWORD PTR _CONF_APP_PLAYED_GAME
  0004c	a3 18 00 00 00	 mov	 DWORD PTR _CONF_APP+24, eax
  00051	8b 0d 00 00 00
	00		 mov	 ecx, DWORD PTR _TYPE_CONFIG_INT
  00057	89 0d 1c 00 00
	00		 mov	 DWORD PTR _CONF_APP+28, ecx

; 23   : 	CONF_APP_PLAYED_PC_GAME,	TYPE_CONFIG_INT,

  0005d	8b 15 00 00 00
	00		 mov	 edx, DWORD PTR _CONF_APP_PLAYED_PC_GAME
  00063	89 15 20 00 00
	00		 mov	 DWORD PTR _CONF_APP+32, edx
  00069	a1 00 00 00 00	 mov	 eax, DWORD PTR _TYPE_CONFIG_INT
  0006e	a3 24 00 00 00	 mov	 DWORD PTR _CONF_APP+36, eax

; 24   : 	CONF_APP_PLAYED_ICON_SIZE,	TYPE_CONFIG_INT, //panelicon0,1,2

  00073	8b 0d 00 00 00
	00		 mov	 ecx, DWORD PTR _CONF_APP_PLAYED_ICON_SIZE
  00079	89 0d 28 00 00
	00		 mov	 DWORD PTR _CONF_APP+40, ecx
  0007f	8b 15 00 00 00
	00		 mov	 edx, DWORD PTR _TYPE_CONFIG_INT
  00085	89 15 2c 00 00
	00		 mov	 DWORD PTR _CONF_APP+44, edx

; 25   : 	CONF_APP_PIC_SAVE_PATH,		TYPE_CONFIG_STR

  0008b	a1 00 00 00 00	 mov	 eax, DWORD PTR _CONF_APP_PIC_SAVE_PATH
  00090	a3 30 00 00 00	 mov	 DWORD PTR _CONF_APP+48, eax

; 26   : };

  00095	8b 0d 00 00 00
	00		 mov	 ecx, DWORD PTR _TYPE_CONFIG_STR
  0009b	89 0d 34 00 00
	00		 mov	 DWORD PTR _CONF_APP+52, ecx
  000a1	5d		 pop	 ebp
  000a2	c3		 ret	 0
_$E5	ENDP
text$yc	ENDS
_BSS	SEGMENT
_CONF_APP DD	0eH DUP (?)
_BSS	ENDS
END
