; Listing generated by Microsoft (R) Optimizing Compiler Version 13.10.3077 

	TITLE	.\src\AppConfig\config\Dlg\DlgSys.cpp
	.386P
include listing.inc
if @Version gt 510
.model FLAT
else
_TEXT	SEGMENT PARA USE32 PUBLIC 'CODE'
_TEXT	ENDS
_DATA	SEGMENT DWORD USE32 PUBLIC 'DATA'
_DATA	ENDS
CONST	SEGMENT DWORD USE32 PUBLIC 'CONST'
CONST	ENDS
_BSS	SEGMENT DWORD USE32 PUBLIC 'BSS'
_BSS	ENDS
$$SYMBOLS	SEGMENT BYTE USE32 'DEBSYM'
$$SYMBOLS	ENDS
$$TYPES	SEGMENT BYTE USE32 'DEBTYP'
$$TYPES	ENDS
_TLS	SEGMENT DWORD USE32 PUBLIC 'TLS'
_TLS	ENDS
rdata$r	SEGMENT DWORD USE32 PUBLIC 'CONST'
rdata$r	ENDS
xdata$x	SEGMENT DWORD USE32 PUBLIC 'CONST'
xdata$x	ENDS
text$AFX_COL1	SEGMENT PARA USE32 PUBLIC ''
text$AFX_COL1	ENDS
text$yc	SEGMENT PARA USE32 PUBLIC 'CODE'
text$yc	ENDS
CRT$XCA	SEGMENT DWORD USE32 PUBLIC 'DATA'
CRT$XCA	ENDS
CRT$XCU	SEGMENT DWORD USE32 PUBLIC 'DATA'
CRT$XCU	ENDS
CRT$XCL	SEGMENT DWORD USE32 PUBLIC 'DATA'
CRT$XCL	ENDS
CRT$XCC	SEGMENT DWORD USE32 PUBLIC 'DATA'
CRT$XCC	ENDS
CRT$XCZ	SEGMENT DWORD USE32 PUBLIC 'DATA'
CRT$XCZ	ENDS
text$yd	SEGMENT PARA USE32 PUBLIC 'CODE'
text$yd	ENDS
ATL$__m	SEGMENT DWORD USE32 PUBLIC ''
ATL$__m	ENDS
ATL$__z	SEGMENT DWORD USE32 PUBLIC ''
ATL$__z	ENDS
ATL$__a	SEGMENT DWORD USE32 PUBLIC ''
ATL$__a	ENDS
;	COMDAT _$E5
text$yc	SEGMENT PARA USE32 PUBLIC 'CODE'
text$yc	ENDS
;	COMDAT ??_GCSysDialog@@UAEPAXI@Z
_TEXT	SEGMENT PARA USE32 PUBLIC 'CODE'
_TEXT	ENDS
;	COMDAT ??0BaseDialog@@QAE@XZ
_TEXT	SEGMENT PARA USE32 PUBLIC 'CODE'
_TEXT	ENDS
;	COMDAT ??1BaseDialog@@UAE@XZ
_TEXT	SEGMENT PARA USE32 PUBLIC 'CODE'
_TEXT	ENDS
;	COMDAT ??_GBaseDialog@@UAEPAXI@Z
_TEXT	SEGMENT PARA USE32 PUBLIC 'CODE'
_TEXT	ENDS
;	COMDAT ??B?$CComPtrBase@UITypeInfo2@@@ATL@@QBEPAUITypeInfo2@@XZ
_TEXT	SEGMENT PARA USE32 PUBLIC 'CODE'
_TEXT	ENDS
;	COMDAT ?equal@?$istreambuf_iterator@DU?$char_traits@D@std@@@std@@QBE_NABV12@@Z
_TEXT	SEGMENT PARA USE32 PUBLIC 'CODE'
_TEXT	ENDS
;	COMDAT ?equal@?$istreambuf_iterator@_WU?$char_traits@_W@std@@@std@@QBE_NABV12@@Z
_TEXT	SEGMENT PARA USE32 PUBLIC 'CODE'
_TEXT	ENDS
;	COMDAT ?Unlock@?$CComCritSecLock@VCComCriticalSection@ATL@@@ATL@@QAEXXZ
_TEXT	SEGMENT PARA USE32 PUBLIC 'CODE'
_TEXT	ENDS
;	COMDAT ??$_Maklocstr@D@std@@YAPADPBDPADABU_Cvtvec@@@Z
_TEXT	SEGMENT PARA USE32 PUBLIC 'CODE'
_TEXT	ENDS
;	COMDAT ??_R3BaseDialog@@8
rdata$r	SEGMENT DWORD USE32 PUBLIC 'CONST'
rdata$r	ENDS
;	COMDAT ??_R3CSysDialog@@8
rdata$r	SEGMENT DWORD USE32 PUBLIC 'CONST'
rdata$r	ENDS
;	COMDAT ??_R3?$numpunct@_W@std@@8
rdata$r	SEGMENT DWORD USE32 PUBLIC 'CONST'
rdata$r	ENDS
;	COMDAT ??_R3?$numpunct@D@std@@8
rdata$r	SEGMENT DWORD USE32 PUBLIC 'CONST'
rdata$r	ENDS
;	COMDAT ??_R2BaseDialog@@8
rdata$r	SEGMENT DWORD USE32 PUBLIC 'CONST'
rdata$r	ENDS
;	COMDAT ??_R2CSysDialog@@8
rdata$r	SEGMENT DWORD USE32 PUBLIC 'CONST'
rdata$r	ENDS
;	COMDAT ??_R2?$numpunct@_W@std@@8
rdata$r	SEGMENT DWORD USE32 PUBLIC 'CONST'
rdata$r	ENDS
;	COMDAT ??_R2?$numpunct@D@std@@8
rdata$r	SEGMENT DWORD USE32 PUBLIC 'CONST'
rdata$r	ENDS
;	COMDAT ??_R1A@?0A@A@CObject@@8
rdata$r	SEGMENT DWORD USE32 PUBLIC 'CONST'
rdata$r	ENDS
;	COMDAT ??_R0?AVCObject@@@8
_DATA	SEGMENT DWORD USE32 PUBLIC 'DATA'
_DATA	ENDS
;	COMDAT ??_R1A@?0A@A@CCmdTarget@@8
rdata$r	SEGMENT DWORD USE32 PUBLIC 'CONST'
rdata$r	ENDS
;	COMDAT ??_R0?AVCCmdTarget@@@8
_DATA	SEGMENT DWORD USE32 PUBLIC 'DATA'
_DATA	ENDS
;	COMDAT ??_R1A@?0A@A@CWnd@@8
rdata$r	SEGMENT DWORD USE32 PUBLIC 'CONST'
rdata$r	ENDS
;	COMDAT ??_R0?AVCWnd@@@8
_DATA	SEGMENT DWORD USE32 PUBLIC 'DATA'
_DATA	ENDS
;	COMDAT ??_R1A@?0A@A@CDialog@@8
rdata$r	SEGMENT DWORD USE32 PUBLIC 'CONST'
rdata$r	ENDS
;	COMDAT ??_R0?AVCDialog@@@8
_DATA	SEGMENT DWORD USE32 PUBLIC 'DATA'
_DATA	ENDS
;	COMDAT ??_R1A@?0A@A@BaseDialog@@8
rdata$r	SEGMENT DWORD USE32 PUBLIC 'CONST'
rdata$r	ENDS
;	COMDAT ??_R1A@?0A@A@CSysDialog@@8
rdata$r	SEGMENT DWORD USE32 PUBLIC 'CONST'
rdata$r	ENDS
;	COMDAT ??_R1A@?0A@A@?$numpunct@_W@std@@8
rdata$r	SEGMENT DWORD USE32 PUBLIC 'CONST'
rdata$r	ENDS
;	COMDAT ??_R1A@?0A@A@facet@locale@std@@8
rdata$r	SEGMENT DWORD USE32 PUBLIC 'CONST'
rdata$r	ENDS
;	COMDAT ??_R0?AVfacet@locale@std@@@8
_DATA	SEGMENT DWORD USE32 PUBLIC 'DATA'
_DATA	ENDS
;	COMDAT ??_R1A@?0A@A@?$numpunct@D@std@@8
rdata$r	SEGMENT DWORD USE32 PUBLIC 'CONST'
rdata$r	ENDS
;	COMDAT ??_R0?AVBaseDialog@@@8
_DATA	SEGMENT DWORD USE32 PUBLIC 'DATA'
_DATA	ENDS
;	COMDAT ??_R0?AVCSysDialog@@@8
_DATA	SEGMENT DWORD USE32 PUBLIC 'DATA'
_DATA	ENDS
;	COMDAT ??_R0?AV?$numpunct@_W@std@@@8
_DATA	SEGMENT DWORD USE32 PUBLIC 'DATA'
_DATA	ENDS
;	COMDAT ??_R0?AV?$numpunct@D@std@@@8
_DATA	SEGMENT DWORD USE32 PUBLIC 'DATA'
_DATA	ENDS
;	COMDAT ??_R4BaseDialog@@6B@
rdata$r	SEGMENT DWORD USE32 PUBLIC 'CONST'
rdata$r	ENDS
;	COMDAT ?Create@CDialog@@UAEHIPAVCWnd@@@Z
_TEXT	SEGMENT PARA USE32 PUBLIC 'CODE'
_TEXT	ENDS
;	COMDAT ?EndModalState@CWnd@@UAEXXZ
_TEXT	SEGMENT PARA USE32 PUBLIC 'CODE'
_TEXT	ENDS
;	COMDAT ?BeginModalState@CWnd@@UAEXXZ
_TEXT	SEGMENT PARA USE32 PUBLIC 'CODE'
_TEXT	ENDS
;	COMDAT ?Dump@CObject@@UBEXAAVCDumpContext@@@Z
_TEXT	SEGMENT PARA USE32 PUBLIC 'CODE'
_TEXT	ENDS
;	COMDAT ?AssertValid@CObject@@UBEXXZ
_TEXT	SEGMENT PARA USE32 PUBLIC 'CODE'
_TEXT	ENDS
;	COMDAT ?Serialize@CObject@@UAEXAAVCArchive@@@Z
_TEXT	SEGMENT PARA USE32 PUBLIC 'CODE'
_TEXT	ENDS
;	COMDAT ??_R4CSysDialog@@6B@
rdata$r	SEGMENT DWORD USE32 PUBLIC 'CONST'
rdata$r	ENDS
;	COMDAT ??0?$allocator@_W@std@@QAE@XZ
_TEXT	SEGMENT PARA USE32 PUBLIC 'CODE'
_TEXT	ENDS
;	COMDAT ??_G?$numpunct@_W@std@@MAEPAXI@Z
_TEXT	SEGMENT PARA USE32 PUBLIC 'CODE'
_TEXT	ENDS
;	COMDAT ??_R4?$numpunct@_W@std@@6B@
rdata$r	SEGMENT DWORD USE32 PUBLIC 'CONST'
rdata$r	ENDS
;	COMDAT ??_G?$numpunct@D@std@@MAEPAXI@Z
_TEXT	SEGMENT PARA USE32 PUBLIC 'CODE'
_TEXT	ENDS
;	COMDAT ??_R4?$numpunct@D@std@@6B@
rdata$r	SEGMENT DWORD USE32 PUBLIC 'CONST'
rdata$r	ENDS
;	COMDAT ?_Psave@?$_Facetptr@V?$numpunct@_W@std@@@std@@2PBVfacet@locale@2@B
_DATA	SEGMENT DWORD USE32 PUBLIC 'DATA'
_DATA	ENDS
;	COMDAT ?_Psave@?$_Facetptr@V?$numpunct@D@std@@@std@@2PBVfacet@locale@2@B
_DATA	SEGMENT DWORD USE32 PUBLIC 'DATA'
_DATA	ENDS
;	COMDAT ?Unlock@CComCriticalSection@ATL@@QAEJXZ
_TEXT	SEGMENT PARA USE32 PUBLIC 'CODE'
_TEXT	ENDS
;	COMDAT ?_Psave@?$_Facetptr@V?$ctype@_W@std@@@std@@2PBVfacet@locale@2@B
_DATA	SEGMENT DWORD USE32 PUBLIC 'DATA'
_DATA	ENDS
;	COMDAT ?_Psave@?$_Facetptr@V?$ctype@D@std@@@std@@2PBVfacet@locale@2@B
_DATA	SEGMENT DWORD USE32 PUBLIC 'DATA'
_DATA	ENDS
;	COMDAT ??$_Maklocchr@_W@std@@YA_WDPA_WABU_Cvtvec@@@Z
_TEXT	SEGMENT PARA USE32 PUBLIC 'CODE'
_TEXT	ENDS
;	COMDAT ??$_Maklocstr@_W@std@@YAPA_WPBDPA_WABU_Cvtvec@@@Z
_TEXT	SEGMENT PARA USE32 PUBLIC 'CODE'
_TEXT	ENDS
;	COMDAT ??$_Maklocchr@D@std@@YADDPADABU_Cvtvec@@@Z
_TEXT	SEGMENT PARA USE32 PUBLIC 'CODE'
_TEXT	ENDS
;	COMDAT ??_C@_04LOAJBDKD@true?$AA@
CONST	SEGMENT DWORD USE32 PUBLIC 'CONST'
CONST	ENDS
;	COMDAT ??_C@_05LAPONLG@false?$AA@
CONST	SEGMENT DWORD USE32 PUBLIC 'CONST'
CONST	ENDS
;	COMDAT _wmemcpy
_TEXT	SEGMENT PARA USE32 PUBLIC 'CODE'
_TEXT	ENDS
;	COMDAT ?max_size@?$allocator@_W@std@@QBEIXZ
_TEXT	SEGMENT PARA USE32 PUBLIC 'CODE'
_TEXT	ENDS
;	COMDAT ?allocate@?$allocator@_W@std@@QAEPA_WI@Z
_TEXT	SEGMENT PARA USE32 PUBLIC 'CODE'
_TEXT	ENDS
;	COMDAT ??$_Allocate@_W@std@@YAPA_WIPA_W@Z
_TEXT	SEGMENT PARA USE32 PUBLIC 'CODE'
_TEXT	ENDS
;	COMDAT ??_C@_01GFHCPBMG@C?$AA@
CONST	SEGMENT DWORD USE32 PUBLIC 'CONST'
CONST	ENDS
;	COMDAT ?max_size@?$allocator@D@std@@QBEIXZ
_TEXT	SEGMENT PARA USE32 PUBLIC 'CODE'
_TEXT	ENDS
;	COMDAT ?allocate@?$allocator@D@std@@QAEPADI@Z
_TEXT	SEGMENT PARA USE32 PUBLIC 'CODE'
_TEXT	ENDS
;	COMDAT ??$_Allocate@D@std@@YAPADIPAD@Z
_TEXT	SEGMENT PARA USE32 PUBLIC 'CODE'
_TEXT	ENDS
;	COMDAT ?deallocate@?$allocator@D@std@@QAEXPADI@Z
_TEXT	SEGMENT PARA USE32 PUBLIC 'CODE'
_TEXT	ENDS
;	COMDAT ?_Peek@?$istreambuf_iterator@_WU?$char_traits@_W@std@@@std@@AAE_WXZ
_TEXT	SEGMENT PARA USE32 PUBLIC 'CODE'
_TEXT	ENDS
;	COMDAT ?_Peek@?$istreambuf_iterator@DU?$char_traits@D@std@@@std@@AAEDXZ
_TEXT	SEGMENT PARA USE32 PUBLIC 'CODE'
_TEXT	ENDS
;	COMDAT ??$use_facet@V?$ctype@_W@std@@@std@@YAABV?$ctype@_W@0@ABVlocale@0@@Z
_TEXT	SEGMENT PARA USE32 PUBLIC 'CODE'
_TEXT	ENDS
;	COMDAT ??_S?$ctype@_W@std@@6B@
CONST	SEGMENT DWORD USE32 PUBLIC 'CONST'
CONST	ENDS
;	COMDAT ??_R4?$ctype@_W@std@@6B@
rdata$r	SEGMENT DWORD USE32 PUBLIC 'CONST'
rdata$r	ENDS
;	COMDAT ??_R0?AV?$ctype@_W@std@@@8
_DATA	SEGMENT DWORD USE32 PUBLIC 'DATA'
_DATA	ENDS
;	COMDAT ??_R3?$ctype@_W@std@@8
rdata$r	SEGMENT DWORD USE32 PUBLIC 'CONST'
rdata$r	ENDS
;	COMDAT ??_R2?$ctype@_W@std@@8
rdata$r	SEGMENT DWORD USE32 PUBLIC 'CONST'
rdata$r	ENDS
;	COMDAT ??_R1A@?0A@A@?$ctype@_W@std@@8
rdata$r	SEGMENT DWORD USE32 PUBLIC 'CONST'
rdata$r	ENDS
;	COMDAT ??_R1A@?0A@A@ctype_base@std@@8
rdata$r	SEGMENT DWORD USE32 PUBLIC 'CONST'
rdata$r	ENDS
;	COMDAT ??_R0?AUctype_base@std@@@8
_DATA	SEGMENT DWORD USE32 PUBLIC 'DATA'
_DATA	ENDS
;	COMDAT ??_G?$ctype@_W@std@@MAEPAXI@Z
_TEXT	SEGMENT PARA USE32 PUBLIC 'CODE'
_TEXT	ENDS
;	COMDAT ??_C@_08EPJLHIJG@bad?5cast?$AA@
CONST	SEGMENT DWORD USE32 PUBLIC 'CONST'
CONST	ENDS
;	COMDAT __TI2?AVbad_cast@@
xdata$x	SEGMENT DWORD USE32 PUBLIC 'CONST'
xdata$x	ENDS
;	COMDAT __CTA2?AVbad_cast@@
xdata$x	SEGMENT DWORD USE32 PUBLIC 'CONST'
xdata$x	ENDS
;	COMDAT __CT??_R0?AVbad_cast@@@8??0bad_cast@@QAE@ABV0@@Z12
xdata$x	SEGMENT DWORD USE32 PUBLIC 'CONST'
xdata$x	ENDS
;	COMDAT ??_R0?AVbad_cast@@@8
_DATA	SEGMENT DWORD USE32 PUBLIC 'DATA'
_DATA	ENDS
;	COMDAT __CT??_R0?AVexception@@@8??0exception@@QAE@ABV0@@Z12
xdata$x	SEGMENT DWORD USE32 PUBLIC 'CONST'
xdata$x	ENDS
;	COMDAT ??_R0?AVexception@@@8
_DATA	SEGMENT DWORD USE32 PUBLIC 'DATA'
_DATA	ENDS
;	COMDAT ??$use_facet@V?$ctype@D@std@@@std@@YAABV?$ctype@D@0@ABVlocale@0@@Z
_TEXT	SEGMENT PARA USE32 PUBLIC 'CODE'
_TEXT	ENDS
;	COMDAT ??_S?$ctype@D@std@@6B@
CONST	SEGMENT DWORD USE32 PUBLIC 'CONST'
CONST	ENDS
;	COMDAT ??_R4?$ctype@D@std@@6B@
rdata$r	SEGMENT DWORD USE32 PUBLIC 'CONST'
rdata$r	ENDS
;	COMDAT ??_R0?AV?$ctype@D@std@@@8
_DATA	SEGMENT DWORD USE32 PUBLIC 'DATA'
_DATA	ENDS
;	COMDAT ??_R3?$ctype@D@std@@8
rdata$r	SEGMENT DWORD USE32 PUBLIC 'CONST'
rdata$r	ENDS
;	COMDAT ??_R2?$ctype@D@std@@8
rdata$r	SEGMENT DWORD USE32 PUBLIC 'CONST'
rdata$r	ENDS
;	COMDAT ??_R1A@?0A@A@?$ctype@D@std@@8
rdata$r	SEGMENT DWORD USE32 PUBLIC 'CONST'
rdata$r	ENDS
;	COMDAT ??_G?$ctype@D@std@@MAEPAXI@Z
_TEXT	SEGMENT PARA USE32 PUBLIC 'CODE'
_TEXT	ENDS
;	COMDAT ??_S?$numpunct@_W@std@@6B@
CONST	SEGMENT DWORD USE32 PUBLIC 'CONST'
CONST	ENDS
;	COMDAT ??_S?$numpunct@D@std@@6B@
CONST	SEGMENT DWORD USE32 PUBLIC 'CONST'
CONST	ENDS
;	COMDAT _wmemmove
_TEXT	SEGMENT PARA USE32 PUBLIC 'CODE'
_TEXT	ENDS
;	COMDAT ?deallocate@?$allocator@_W@std@@QAEXPA_WI@Z
_TEXT	SEGMENT PARA USE32 PUBLIC 'CODE'
_TEXT	ENDS
;	COMDAT ??0?$allocator@_W@std@@QAE@ABV01@@Z
_TEXT	SEGMENT PARA USE32 PUBLIC 'CODE'
_TEXT	ENDS
;	COMDAT ??0?$allocator@D@std@@QAE@ABV01@@Z
_TEXT	SEGMENT PARA USE32 PUBLIC 'CODE'
_TEXT	ENDS
;	COMDAT ??0?$allocator@D@std@@QAE@XZ
_TEXT	SEGMENT PARA USE32 PUBLIC 'CODE'
_TEXT	ENDS
;	COMDAT ?DoDataExchange@CWnd@@MAEXPAVCDataExchange@@@Z
_TEXT	SEGMENT PARA USE32 PUBLIC 'CODE'
_TEXT	ENDS
;	COMDAT ?_messageEntries@CSysDialog@@0QBUAFX_MSGMAP_ENTRY@@B
CONST	SEGMENT DWORD USE32 PUBLIC 'CONST'
CONST	ENDS
;	COMDAT ?messageMap@CSysDialog@@1UAFX_MSGMAP@@B
CONST	SEGMENT DWORD USE32 PUBLIC 'CONST'
CONST	ENDS
;	COMDAT ??_7BaseDialog@@6B@
CONST	SEGMENT DWORD USE32 PUBLIC 'CONST'
CONST	ENDS
;	COMDAT ??3CObject@@SGXPAX@Z
_TEXT	SEGMENT PARA USE32 PUBLIC 'CODE'
_TEXT	ENDS
;	COMDAT ??_7CSysDialog@@6B@
CONST	SEGMENT DWORD USE32 PUBLIC 'CONST'
CONST	ENDS
;	COMDAT ?classCSysDialog@CSysDialog@@2UCRuntimeClass@@B
CONST	SEGMENT DWORD USE32 PUBLIC 'CONST'
CONST	ENDS
sxdata	SEGMENT DWORD USE32 'SXDATA'
sxdata	ENDS
FLAT	GROUP _DATA, CONST, _BSS
	ASSUME	CS: FLAT, DS: FLAT, SS: FLAT
endif

INCLUDELIB MSVCRT
INCLUDELIB OLDNAMES

PUBLIC	?classCSysDialog@CSysDialog@@2UCRuntimeClass@@B	; CSysDialog::classCSysDialog
PUBLIC	?_messageEntries@CSysDialog@@0QBUAFX_MSGMAP_ENTRY@@B ; CSysDialog::_messageEntries
PUBLIC	?messageMap@CSysDialog@@1UAFX_MSGMAP@@B		; CSysDialog::messageMap
PUBLIC	?OnBnClickedRadMin@CSysDialog@@IAEXXZ		; CSysDialog::OnBnClickedRadMin
PUBLIC	?OnBnClickedRadExit@CSysDialog@@IAEXXZ		; CSysDialog::OnBnClickedRadExit
PUBLIC	?OnBnClickedChkNoask@CSysDialog@@IAEXXZ		; CSysDialog::OnBnClickedChkNoask
PUBLIC	?OnBnClickedCheckAutoRun@CSysDialog@@IAEXXZ	; CSysDialog::OnBnClickedCheckAutoRun
EXTRN	?GetThisClass@BaseDialog@@SGPAUCRuntimeClass@@XZ:NEAR ; BaseDialog::GetThisClass
EXTRN	?GetThisMessageMap@BaseDialog@@KGPBUAFX_MSGMAP@@XZ:NEAR ; BaseDialog::GetThisMessageMap
CONST	SEGMENT
$SG197742 DB	'int', 00H
CONST	ENDS
_DATA	SEGMENT
_TYPE_CONFIG_INT DD FLAT:$SG197742
_DATA	ENDS
CONST	SEGMENT
$SG197744 DB	'str', 00H
CONST	ENDS
_DATA	SEGMENT
_TYPE_CONFIG_STR DD FLAT:$SG197744
_DATA	ENDS
CONST	SEGMENT
$SG197746 DB	'double', 00H
CONST	ENDS
_DATA	SEGMENT
_TYPE_CONFIG_DOUBLE DD FLAT:$SG197746
_DATA	ENDS
CONST	SEGMENT
	ORG $+1
$SG197748 DB	'bool', 00H
CONST	ENDS
_DATA	SEGMENT
_TYPE_CONFIG_BOOL DD FLAT:$SG197748
_DATA	ENDS
CONST	SEGMENT
	ORG $+3
$SG197750 DB	'sepint', 00H
CONST	ENDS
_DATA	SEGMENT
_TYPE_CONFIG_INT_HASSEP DD FLAT:$SG197750
_DATA	ENDS
CONST	SEGMENT
	ORG $+1
$SG197752 DB	'sepstr', 00H
CONST	ENDS
_DATA	SEGMENT
_TYPE_CONFIG_STR_HASSEP DD FLAT:$SG197752
_DATA	ENDS
CONST	SEGMENT
	ORG $+1
$SG197754 DB	'sepdouble', 00H
CONST	ENDS
_DATA	SEGMENT
_TYPE_CONFIG_DOUBLE_HASSEP DD FLAT:$SG197754
_DATA	ENDS
CONST	SEGMENT
	ORG $+2
$SG197756 DB	'sepbool', 00H
CONST	ENDS
_DATA	SEGMENT
_TYPE_CONFIG_BOOL_HASSEP DD FLAT:$SG197756
_DATA	ENDS
CONST	SEGMENT
$SG197758 DB	'Setting', 00H
CONST	ENDS
_DATA	SEGMENT
_CONF_SETTING_MODULE_NAME DD FLAT:$SG197758
_DATA	ENDS
CONST	SEGMENT
$SG197760 DB	'skin', 00H
CONST	ENDS
_DATA	SEGMENT
_CONF_SETTING_SKIN_IDX DD FLAT:$SG197760
_DATA	ENDS
CONST	SEGMENT
	ORG $+3
$SG197762 DB	'MainPage', 00H
CONST	ENDS
_DATA	SEGMENT
_CONF_SETTING_CONFIG_MAIN_PAGE DD FLAT:$SG197762
_DATA	ENDS
CONST	SEGMENT
	ORG $+3
$SG197764 DB	'ProblemReport', 00H
CONST	ENDS
_DATA	SEGMENT
_CONF_SETTING_CONFIG_PROBLEM_REPORT DD FLAT:$SG197764
_DATA	ENDS
CONST	SEGMENT
	ORG $+2
$SG197766 DB	'HomePage', 00H
CONST	ENDS
_DATA	SEGMENT
_CONF_SETTING_CONFIG_HOME_PAGE DD FLAT:$SG197766
_DATA	ENDS
CONST	SEGMENT
	ORG $+3
$SG197768 DB	'askexit', 00H
CONST	ENDS
_DATA	SEGMENT
_CONF_SETTING_CONFIG_IFASKEXIT DD FLAT:$SG197768
_DATA	ENDS
CONST	SEGMENT
$SG197770 DB	'exitchoice', 00H
CONST	ENDS
_DATA	SEGMENT
_CONF_SETTING_CONFIG_EXITCHOICE DD FLAT:$SG197770
_DATA	ENDS
CONST	SEGMENT
	ORG $+1
$SG197772 DB	'UN', 00H
CONST	ENDS
_DATA	SEGMENT
_CONF_SETTING_LOGIN_USER_NAME DD FLAT:$SG197772
_DATA	ENDS
CONST	SEGMENT
	ORG $+1
$SG197774 DB	'PW', 00H
CONST	ENDS
_DATA	SEGMENT
_CONF_SETTING_LOGIN_PASSWORD DD FLAT:$SG197774
_DATA	ENDS
CONST	SEGMENT
	ORG $+1
$SG197776 DB	'NetID', 00H
CONST	ENDS
_DATA	SEGMENT
_CONF_SETTING_NETID DD FLAT:$SG197776
_DATA	ENDS
CONST	SEGMENT
	ORG $+2
$SG197778 DB	'ChangeColorValue', 00H
CONST	ENDS
_DATA	SEGMENT
_CONF_SETTING_COLOR DD FLAT:$SG197778
_DATA	ENDS
CONST	SEGMENT
	ORG $+3
$SG197780 DB	'changeColorLight', 00H
CONST	ENDS
_DATA	SEGMENT
_CONF_SETTING_LIGHT DD FLAT:$SG197780
_DATA	ENDS
CONST	SEGMENT
	ORG $+3
$SG197782 DB	'ColorIndex', 00H
CONST	ENDS
_DATA	SEGMENT
_CONF_SETTING_COLOR_BTN_INDEX DD FLAT:$SG197782
_DATA	ENDS
CONST	SEGMENT
	ORG $+1
$SG197784 DB	'ColorUser', 00H
CONST	ENDS
_DATA	SEGMENT
_CONF_SETTING_COLOR_USER DD FLAT:$SG197784
_DATA	ENDS
CONST	SEGMENT
	ORG $+2
$SG197786 DB	'FirstTimeChangeSkin', 00H
CONST	ENDS
_DATA	SEGMENT
_CONF_SETTING_FIRST_TIME_CHANGESKIN DD FLAT:$SG197786
_DATA	ENDS
CONST	SEGMENT
$SG197893 DB	'CSysDialog', 00H
CONST	ENDS
;	COMDAT ?classCSysDialog@CSysDialog@@2UCRuntimeClass@@B
CONST	SEGMENT
?classCSysDialog@CSysDialog@@2UCRuntimeClass@@B DD FLAT:$SG197893 ; CSysDialog::classCSysDialog
	DD	0250H
	DD	0ffffH
	DD	00H
	DD	FLAT:?GetThisClass@BaseDialog@@SGPAUCRuntimeClass@@XZ
	DD	00H
	DD	00H
CONST	ENDS
;	COMDAT ?_messageEntries@CSysDialog@@0QBUAFX_MSGMAP_ENTRY@@B
CONST	SEGMENT
?_messageEntries@CSysDialog@@0QBUAFX_MSGMAP_ENTRY@@B DD 0111H ; CSysDialog::_messageEntries
	DD	00H
	DD	0d1H
	DD	0d1H
	DD	035H
	DD	FLAT:?OnBnClickedRadMin@CSysDialog@@IAEXXZ
	DD	0111H
	DD	00H
	DD	0d2H
	DD	0d2H
	DD	035H
	DD	FLAT:?OnBnClickedRadExit@CSysDialog@@IAEXXZ
	DD	0111H
	DD	00H
	DD	0d3H
	DD	0d3H
	DD	035H
	DD	FLAT:?OnBnClickedChkNoask@CSysDialog@@IAEXXZ
	DD	0111H
	DD	00H
	DD	0ceH
	DD	0ceH
	DD	035H
	DD	FLAT:?OnBnClickedCheckAutoRun@CSysDialog@@IAEXXZ
	DD	00H
	DD	00H
	DD	00H
	DD	00H
	DD	00H
	DD	00H
CONST	ENDS
;	COMDAT ?messageMap@CSysDialog@@1UAFX_MSGMAP@@B
CONST	SEGMENT
?messageMap@CSysDialog@@1UAFX_MSGMAP@@B DD FLAT:?GetThisMessageMap@BaseDialog@@KGPBUAFX_MSGMAP@@XZ ; CSysDialog::messageMap
	DD	FLAT:?_messageEntries@CSysDialog@@0QBUAFX_MSGMAP_ENTRY@@B
CONST	ENDS
PUBLIC	?GetThisClass@CSysDialog@@SGPAUCRuntimeClass@@XZ ; CSysDialog::GetThisClass
; Function compile flags: /Odt
; File d:\boxgit\playbox\playbox\dev\prj\playbox\src\appconfig\config\dlg\dlgsys.cpp
_TEXT	SEGMENT
?GetThisClass@CSysDialog@@SGPAUCRuntimeClass@@XZ PROC NEAR ; CSysDialog::GetThisClass

; 9    : IMPLEMENT_DYNAMIC(CSysDialog, BaseDialog)

  00000	55		 push	 ebp
  00001	8b ec		 mov	 ebp, esp
  00003	b8 00 00 00 00	 mov	 eax, OFFSET FLAT:?classCSysDialog@CSysDialog@@2UCRuntimeClass@@B ; CSysDialog::classCSysDialog
  00008	5d		 pop	 ebp
  00009	c3		 ret	 0
?GetThisClass@CSysDialog@@SGPAUCRuntimeClass@@XZ ENDP	; CSysDialog::GetThisClass
_TEXT	ENDS
PUBLIC	?GetRuntimeClass@CSysDialog@@UBEPAUCRuntimeClass@@XZ ; CSysDialog::GetRuntimeClass
; Function compile flags: /Odt
_TEXT	SEGMENT
_this$ = -4						; size = 4
?GetRuntimeClass@CSysDialog@@UBEPAUCRuntimeClass@@XZ PROC NEAR ; CSysDialog::GetRuntimeClass
; _this$ = ecx

; 9    : IMPLEMENT_DYNAMIC(CSysDialog, BaseDialog)

  00010	55		 push	 ebp
  00011	8b ec		 mov	 ebp, esp
  00013	51		 push	 ecx
  00014	89 4d fc	 mov	 DWORD PTR _this$[ebp], ecx
  00017	b8 00 00 00 00	 mov	 eax, OFFSET FLAT:?classCSysDialog@CSysDialog@@2UCRuntimeClass@@B ; CSysDialog::classCSysDialog
  0001c	8b e5		 mov	 esp, ebp
  0001e	5d		 pop	 ebp
  0001f	c3		 ret	 0
?GetRuntimeClass@CSysDialog@@UBEPAUCRuntimeClass@@XZ ENDP ; CSysDialog::GetRuntimeClass
_TEXT	ENDS
PUBLIC	?Create@CDialog@@UAEHIPAVCWnd@@@Z		; CDialog::Create
PUBLIC	??_R1A@?0A@A@CObject@@8				; CObject::`RTTI Base Class Descriptor at (0,-1,0,0)'
PUBLIC	??_R0?AVCObject@@@8				; CObject `RTTI Type Descriptor'
PUBLIC	??_R1A@?0A@A@CWnd@@8				; CWnd::`RTTI Base Class Descriptor at (0,-1,0,0)'
PUBLIC	??_R0?AVCWnd@@@8				; CWnd `RTTI Type Descriptor'
PUBLIC	??_R1A@?0A@A@CCmdTarget@@8			; CCmdTarget::`RTTI Base Class Descriptor at (0,-1,0,0)'
PUBLIC	??_R0?AVCCmdTarget@@@8				; CCmdTarget `RTTI Type Descriptor'
PUBLIC	??_R1A@?0A@A@CDialog@@8				; CDialog::`RTTI Base Class Descriptor at (0,-1,0,0)'
PUBLIC	??_R0?AVCDialog@@@8				; CDialog `RTTI Type Descriptor'
PUBLIC	?Serialize@CObject@@UAEXAAVCArchive@@@Z		; CObject::Serialize
PUBLIC	?AssertValid@CObject@@UBEXXZ			; CObject::AssertValid
PUBLIC	?Dump@CObject@@UBEXAAVCDumpContext@@@Z		; CObject::Dump
PUBLIC	??_R4CSysDialog@@6B@				; CSysDialog::`RTTI Complete Object Locator'
PUBLIC	??_R0?AVCSysDialog@@@8				; CSysDialog `RTTI Type Descriptor'
PUBLIC	??_R3CSysDialog@@8				; CSysDialog::`RTTI Class Hierarchy Descriptor'
PUBLIC	??_R2CSysDialog@@8				; CSysDialog::`RTTI Base Class Array'
PUBLIC	??_R1A@?0A@A@CSysDialog@@8			; CSysDialog::`RTTI Base Class Descriptor at (0,-1,0,0)'
PUBLIC	??_R1A@?0A@A@BaseDialog@@8			; BaseDialog::`RTTI Base Class Descriptor at (0,-1,0,0)'
PUBLIC	??_R0?AVBaseDialog@@@8				; BaseDialog `RTTI Type Descriptor'
PUBLIC	??0BaseDialog@@QAE@XZ				; BaseDialog::BaseDialog
PUBLIC	??1BaseDialog@@UAE@XZ				; BaseDialog::~BaseDialog
PUBLIC	??0CSysDialog@@QAE@PAVCWnd@@@Z			; CSysDialog::CSysDialog
PUBLIC	?SetDefault@CSysDialog@@UAEXXZ			; CSysDialog::SetDefault
PUBLIC	?LoadConf@CSysDialog@@UAEXXZ			; CSysDialog::LoadConf
PUBLIC	?SaveConf@CSysDialog@@UAEX_N@Z			; CSysDialog::SaveConf
PUBLIC	?IsAllInputOK@CSysDialog@@UAE_NAAV?$basic_string@DU?$char_traits@D@std@@V?$allocator@D@2@@std@@@Z ; CSysDialog::IsAllInputOK
PUBLIC	?DoDataExchange@CSysDialog@@MAEXPAVCDataExchange@@@Z ; CSysDialog::DoDataExchange
PUBLIC	?GetMessageMap@CSysDialog@@MBEPBUAFX_MSGMAP@@XZ	; CSysDialog::GetMessageMap
PUBLIC	??_7CSysDialog@@6B@				; CSysDialog::`vftable'
PUBLIC	??_GCSysDialog@@UAEPAXI@Z			; CSysDialog::`scalar deleting destructor'
PUBLIC	?BeginModalState@CWnd@@UAEXXZ			; CWnd::BeginModalState
PUBLIC	?EndModalState@CWnd@@UAEXXZ			; CWnd::EndModalState
EXTRN	?CreateControlContainer@CWnd@@MAEHPAPAVCOleControlContainer@@@Z:NEAR ; CWnd::CreateControlContainer
EXTRN	?CreateControlSite@CWnd@@MAEHPAVCOleControlContainer@@PAPAVCOleControlSite@@IABU_GUID@@@Z:NEAR ; CWnd::CreateControlSite
EXTRN	?Create@CDialog@@UAEHPBDPAVCWnd@@@Z:NEAR	; CDialog::Create
EXTRN	?CreateIndirect@CDialog@@UAEHPBUDLGTEMPLATE@@PAVCWnd@@PAX@Z:NEAR ; CDialog::CreateIndirect
EXTRN	?CreateIndirect@CDialog@@UAEHPAXPAVCWnd@@@Z:NEAR ; CDialog::CreateIndirect
EXTRN	?OnToolHitTest@CWnd@@UBEHVCPoint@@PAUtagTOOLINFOA@@@Z:NEAR ; CWnd::OnToolHitTest
EXTRN	??0CDialog@@QAE@IPAVCWnd@@@Z:NEAR		; CDialog::CDialog
EXTRN	?DoModal@CDialog@@UAEHXZ:NEAR			; CDialog::DoModal
EXTRN	?OnSetFont@CDialog@@UAEXPAVCFont@@@Z:NEAR	; CDialog::OnSetFont
EXTRN	??1CDialog@@UAE@XZ:NEAR				; CDialog::~CDialog
EXTRN	?PreTranslateMessage@CDialog@@UAEHPAUtagMSG@@@Z:NEAR ; CDialog::PreTranslateMessage
EXTRN	?OnCmdMsg@CDialog@@UAEHIHPAXPAUAFX_CMDHANDLERINFO@@@Z:NEAR ; CDialog::OnCmdMsg
EXTRN	?CheckAutoCenter@CDialog@@UAEHXZ:NEAR		; CDialog::CheckAutoCenter
EXTRN	?SetOccDialogInfo@CDialog@@MAEHPAU_AFX_OCC_DIALOG_INFO@@@Z:NEAR ; CDialog::SetOccDialogInfo
EXTRN	?PreInitDialog@CDialog@@MAEXXZ:NEAR		; CDialog::PreInitDialog
EXTRN	?GetScrollBarCtrl@CWnd@@UBEPAVCScrollBar@@H@Z:NEAR ; CWnd::GetScrollBarCtrl
EXTRN	?WinHelpA@CWnd@@UAEXKI@Z:NEAR			; CWnd::WinHelpA
EXTRN	?HtmlHelpA@CWnd@@UAEXKI@Z:NEAR			; CWnd::HtmlHelpA
EXTRN	?WinHelpInternal@CWnd@@UAEXKI@Z:NEAR		; CWnd::WinHelpInternal
EXTRN	?ContinueModal@CWnd@@UAEHXZ:NEAR		; CWnd::ContinueModal
EXTRN	?EndModalLoop@CWnd@@UAEXH@Z:NEAR		; CWnd::EndModalLoop
EXTRN	?GetInterfaceMap@CWnd@@MBEPBUAFX_INTERFACEMAP@@XZ:NEAR ; CWnd::GetInterfaceMap
EXTRN	?EnsureStdObj@CWnd@@UAEJXZ:NEAR			; CWnd::EnsureStdObj
EXTRN	?get_accParent@CWnd@@UAEJPAPAUIDispatch@@@Z:NEAR ; CWnd::get_accParent
EXTRN	?get_accChildCount@CWnd@@UAEJPAJ@Z:NEAR		; CWnd::get_accChildCount
EXTRN	?get_accChild@CWnd@@UAEJUtagVARIANT@@PAPAUIDispatch@@@Z:NEAR ; CWnd::get_accChild
EXTRN	?IsInvokeAllowed@CCmdTarget@@UAEHJ@Z:NEAR	; CCmdTarget::IsInvokeAllowed
EXTRN	?get_accName@CWnd@@UAEJUtagVARIANT@@PAPA_W@Z:NEAR ; CWnd::get_accName
EXTRN	?get_accValue@CWnd@@UAEJUtagVARIANT@@PAPA_W@Z:NEAR ; CWnd::get_accValue
EXTRN	?get_accDescription@CWnd@@UAEJUtagVARIANT@@PAPA_W@Z:NEAR ; CWnd::get_accDescription
EXTRN	?GetDispatchIID@CCmdTarget@@UAEHPAU_GUID@@@Z:NEAR ; CCmdTarget::GetDispatchIID
EXTRN	?GetTypeInfoCount@CCmdTarget@@UAEIXZ:NEAR	; CCmdTarget::GetTypeInfoCount
EXTRN	?GetTypeLibCache@CCmdTarget@@UAEPAVCTypeLibCache@@XZ:NEAR ; CCmdTarget::GetTypeLibCache
EXTRN	?get_accRole@CWnd@@UAEJUtagVARIANT@@PAU2@@Z:NEAR ; CWnd::get_accRole
EXTRN	?GetTypeLib@CCmdTarget@@UAEJKPAPAUITypeLib@@@Z:NEAR ; CCmdTarget::GetTypeLib
EXTRN	?get_accState@CWnd@@UAEJUtagVARIANT@@PAU2@@Z:NEAR ; CWnd::get_accState
EXTRN	?get_accHelp@CWnd@@UAEJUtagVARIANT@@PAPA_W@Z:NEAR ; CWnd::get_accHelp
EXTRN	?get_accHelpTopic@CWnd@@UAEJPAPA_WUtagVARIANT@@PAJ@Z:NEAR ; CWnd::get_accHelpTopic
EXTRN	?get_accKeyboardShortcut@CWnd@@UAEJUtagVARIANT@@PAPA_W@Z:NEAR ; CWnd::get_accKeyboardShortcut
EXTRN	?get_accFocus@CWnd@@UAEJPAUtagVARIANT@@@Z:NEAR	; CWnd::get_accFocus
EXTRN	?get_accSelection@CWnd@@UAEJPAUtagVARIANT@@@Z:NEAR ; CWnd::get_accSelection
EXTRN	?get_accDefaultAction@CWnd@@UAEJUtagVARIANT@@PAPA_W@Z:NEAR ; CWnd::get_accDefaultAction
EXTRN	?GetCommandMap@CCmdTarget@@MBEPBUAFX_OLECMDMAP@@XZ:NEAR ; CCmdTarget::GetCommandMap
EXTRN	?accSelect@CWnd@@UAEJJUtagVARIANT@@@Z:NEAR	; CWnd::accSelect
EXTRN	?accLocation@CWnd@@UAEJPAJ000UtagVARIANT@@@Z:NEAR ; CWnd::accLocation
EXTRN	?GetDispatchMap@CCmdTarget@@MBEPBUAFX_DISPMAP@@XZ:NEAR ; CCmdTarget::GetDispatchMap
EXTRN	?accNavigate@CWnd@@UAEJJUtagVARIANT@@PAU2@@Z:NEAR ; CWnd::accNavigate
EXTRN	?accHitTest@CWnd@@UAEJJJPAUtagVARIANT@@@Z:NEAR	; CWnd::accHitTest
EXTRN	?GetConnectionMap@CCmdTarget@@MBEPBUAFX_CONNECTIONMAP@@XZ:NEAR ; CCmdTarget::GetConnectionMap
EXTRN	?accDoDefaultAction@CWnd@@UAEJUtagVARIANT@@@Z:NEAR ; CWnd::accDoDefaultAction
EXTRN	?put_accName@CWnd@@UAEJUtagVARIANT@@PA_W@Z:NEAR	; CWnd::put_accName
EXTRN	?put_accValue@CWnd@@UAEJUtagVARIANT@@PA_W@Z:NEAR ; CWnd::put_accValue
EXTRN	?SetProxy@CWnd@@UAEJPAUIAccessibleProxy@@@Z:NEAR ; CWnd::SetProxy
EXTRN	?CreateAccessibleProxy@CWnd@@UAEJIJPAJ@Z:NEAR	; CWnd::CreateAccessibleProxy
EXTRN	?GetEventSinkMap@CCmdTarget@@MBEPBUAFX_EVENTSINKMAP@@XZ:NEAR ; CCmdTarget::GetEventSinkMap
EXTRN	?OnCreateAggregates@CCmdTarget@@UAEHXZ:NEAR	; CCmdTarget::OnCreateAggregates
EXTRN	?OnCommand@CWnd@@MAEHIJ@Z:NEAR			; CWnd::OnCommand
EXTRN	?GetInterfaceHook@CCmdTarget@@UAEPAUIUnknown@@PBX@Z:NEAR ; CCmdTarget::GetInterfaceHook
EXTRN	?OnNotify@CWnd@@MAEHIJPAJ@Z:NEAR		; CWnd::OnNotify
EXTRN	?GetExtraConnectionPoints@CCmdTarget@@MAEHPAVCPtrArray@@@Z:NEAR ; CCmdTarget::GetExtraConnectionPoints
EXTRN	?GetConnectionHook@CCmdTarget@@MAEPAUIConnectionPoint@@ABU_GUID@@@Z:NEAR ; CCmdTarget::GetConnectionHook
EXTRN	??0SetBaseStatic@@QAE@XZ:NEAR			; SetBaseStatic::SetBaseStatic
EXTRN	??1SetBaseStatic@@UAE@XZ:NEAR			; SetBaseStatic::~SetBaseStatic
EXTRN	__except_list:DWORD
EXTRN	___CxxFrameHandler:NEAR
EXTRN	??0SetBaseButton@@QAE@XZ:NEAR			; SetBaseButton::SetBaseButton
EXTRN	??1SetBaseButton@@UAE@XZ:NEAR			; SetBaseButton::~SetBaseButton
EXTRN	?PreSubclassWindow@CWnd@@UAEXXZ:NEAR		; CWnd::PreSubclassWindow
EXTRN	?Create@CWnd@@UAEHPBD0KABUtagRECT@@PAV1@IPAUCCreateContext@@@Z:NEAR ; CWnd::Create
EXTRN	?OnOK@BaseDialog@@MAEXXZ:NEAR			; BaseDialog::OnOK
EXTRN	?OnCancel@BaseDialog@@MAEXXZ:NEAR		; BaseDialog::OnCancel
EXTRN	?OnInitDialog@BaseDialog@@MAEHXZ:NEAR		; BaseDialog::OnInitDialog
EXTRN	?SthChanged@BaseDialog@@UAEXXZ:NEAR		; BaseDialog::SthChanged
EXTRN	?CreateEx@CWnd@@UAEHKPBD0KHHHHPAUHWND__@@PAUHMENU__@@PAX@Z:NEAR ; CWnd::CreateEx
EXTRN	?CreateEx@CWnd@@UAEHKPBD0KABUtagRECT@@PAV1@IPAX@Z:NEAR ; CWnd::CreateEx
EXTRN	?DestroyWindow@CWnd@@UAEHXZ:NEAR		; CWnd::DestroyWindow
EXTRN	?PreCreateWindow@CWnd@@UAEHAAUtagCREATESTRUCTA@@@Z:NEAR ; CWnd::PreCreateWindow
EXTRN	?CalcWindowRect@CWnd@@UAEXPAUtagRECT@@I@Z:NEAR	; CWnd::CalcWindowRect
EXTRN	??_ECSysDialog@@UAEPAXI@Z:NEAR			; CSysDialog::`vector deleting destructor'
EXTRN	?GetSuperWndProcAddr@CWnd@@MAEPAP6GJPAUHWND__@@IIJ@ZXZ:NEAR ; CWnd::GetSuperWndProcAddr
EXTRN	??_7type_info@@6B@:QWORD			; type_info::`vftable'
EXTRN	?OnAmbientProperty@CWnd@@UAEHPAVCOleControlSite@@JPAUtagVARIANT@@@Z:NEAR ; CWnd::OnAmbientProperty
EXTRN	?WindowProc@CWnd@@MAEJIIJ@Z:NEAR		; CWnd::WindowProc
EXTRN	?OnWndMsg@CWnd@@MAEHIIJPAJ@Z:NEAR		; CWnd::OnWndMsg
EXTRN	?DefWindowProcA@CWnd@@MAEJIIJ@Z:NEAR		; CWnd::DefWindowProcA
EXTRN	?PostNcDestroy@CWnd@@MAEXXZ:NEAR		; CWnd::PostNcDestroy
EXTRN	?OnChildNotify@CWnd@@MAEHIIJPAJ@Z:NEAR		; CWnd::OnChildNotify
EXTRN	?IsFrameWnd@CWnd@@UBEHXZ:NEAR			; CWnd::IsFrameWnd
EXTRN	?OnFinalRelease@CWnd@@UAEXXZ:NEAR		; CWnd::OnFinalRelease
xdata$x	SEGMENT
$T198453 DD	0ffffffffH
	DD	FLAT:$L198440
	DD	00H
	DD	FLAT:$L198441
	DD	01H
	DD	FLAT:$L198442
	DD	02H
	DD	FLAT:$L198443
	DD	03H
	DD	FLAT:$L198444
	DD	04H
	DD	FLAT:$L198445
$T198450 DD	019930520H
	DD	06H
	DD	FLAT:$T198453
	DD	2 DUP(00H)
	DD	2 DUP(00H)
xdata$x	ENDS
;	COMDAT ??_7CSysDialog@@6B@
CONST	SEGMENT
??_7CSysDialog@@6B@ DD FLAT:??_R4CSysDialog@@6B@	; CSysDialog::`vftable'
	DD	FLAT:?GetRuntimeClass@CSysDialog@@UBEPAUCRuntimeClass@@XZ
	DD	FLAT:??_ECSysDialog@@UAEPAXI@Z
	DD	FLAT:?Serialize@CObject@@UAEXAAVCArchive@@@Z
	DD	FLAT:?AssertValid@CObject@@UBEXXZ
	DD	FLAT:?Dump@CObject@@UBEXAAVCDumpContext@@@Z
	DD	FLAT:?OnCmdMsg@CDialog@@UAEHIHPAXPAUAFX_CMDHANDLERINFO@@@Z
	DD	FLAT:?OnFinalRelease@CWnd@@UAEXXZ
	DD	FLAT:?IsInvokeAllowed@CCmdTarget@@UAEHJ@Z
	DD	FLAT:?GetDispatchIID@CCmdTarget@@UAEHPAU_GUID@@@Z
	DD	FLAT:?GetTypeInfoCount@CCmdTarget@@UAEIXZ
	DD	FLAT:?GetTypeLibCache@CCmdTarget@@UAEPAVCTypeLibCache@@XZ
	DD	FLAT:?GetTypeLib@CCmdTarget@@UAEJKPAPAUITypeLib@@@Z
	DD	FLAT:?GetMessageMap@CSysDialog@@MBEPBUAFX_MSGMAP@@XZ
	DD	FLAT:?GetCommandMap@CCmdTarget@@MBEPBUAFX_OLECMDMAP@@XZ
	DD	FLAT:?GetDispatchMap@CCmdTarget@@MBEPBUAFX_DISPMAP@@XZ
	DD	FLAT:?GetConnectionMap@CCmdTarget@@MBEPBUAFX_CONNECTIONMAP@@XZ
	DD	FLAT:?GetInterfaceMap@CWnd@@MBEPBUAFX_INTERFACEMAP@@XZ
	DD	FLAT:?GetEventSinkMap@CCmdTarget@@MBEPBUAFX_EVENTSINKMAP@@XZ
	DD	FLAT:?OnCreateAggregates@CCmdTarget@@UAEHXZ
	DD	FLAT:?GetInterfaceHook@CCmdTarget@@UAEPAUIUnknown@@PBX@Z
	DD	FLAT:?GetExtraConnectionPoints@CCmdTarget@@MAEHPAVCPtrArray@@@Z
	DD	FLAT:?GetConnectionHook@CCmdTarget@@MAEPAUIConnectionPoint@@ABU_GUID@@@Z
	DD	FLAT:?PreSubclassWindow@CWnd@@UAEXXZ
	DD	FLAT:?Create@CWnd@@UAEHPBD0KABUtagRECT@@PAV1@IPAUCCreateContext@@@Z
	DD	FLAT:?CreateEx@CWnd@@UAEHKPBD0KABUtagRECT@@PAV1@IPAX@Z
	DD	FLAT:?CreateEx@CWnd@@UAEHKPBD0KHHHHPAUHWND__@@PAUHMENU__@@PAX@Z
	DD	FLAT:?DestroyWindow@CWnd@@UAEHXZ
	DD	FLAT:?PreCreateWindow@CWnd@@UAEHAAUtagCREATESTRUCTA@@@Z
	DD	FLAT:?CalcWindowRect@CWnd@@UAEXPAUtagRECT@@I@Z
	DD	FLAT:?OnToolHitTest@CWnd@@UBEHVCPoint@@PAUtagTOOLINFOA@@@Z
	DD	FLAT:?GetScrollBarCtrl@CWnd@@UBEPAVCScrollBar@@H@Z
	DD	FLAT:?WinHelpA@CWnd@@UAEXKI@Z
	DD	FLAT:?HtmlHelpA@CWnd@@UAEXKI@Z
	DD	FLAT:?WinHelpInternal@CWnd@@UAEXKI@Z
	DD	FLAT:?ContinueModal@CWnd@@UAEHXZ
	DD	FLAT:?EndModalLoop@CWnd@@UAEXH@Z
	DD	FLAT:?EnsureStdObj@CWnd@@UAEJXZ
	DD	FLAT:?get_accParent@CWnd@@UAEJPAPAUIDispatch@@@Z
	DD	FLAT:?get_accChildCount@CWnd@@UAEJPAJ@Z
	DD	FLAT:?get_accChild@CWnd@@UAEJUtagVARIANT@@PAPAUIDispatch@@@Z
	DD	FLAT:?get_accName@CWnd@@UAEJUtagVARIANT@@PAPA_W@Z
	DD	FLAT:?get_accValue@CWnd@@UAEJUtagVARIANT@@PAPA_W@Z
	DD	FLAT:?get_accDescription@CWnd@@UAEJUtagVARIANT@@PAPA_W@Z
	DD	FLAT:?get_accRole@CWnd@@UAEJUtagVARIANT@@PAU2@@Z
	DD	FLAT:?get_accState@CWnd@@UAEJUtagVARIANT@@PAU2@@Z
	DD	FLAT:?get_accHelp@CWnd@@UAEJUtagVARIANT@@PAPA_W@Z
	DD	FLAT:?get_accHelpTopic@CWnd@@UAEJPAPA_WUtagVARIANT@@PAJ@Z
	DD	FLAT:?get_accKeyboardShortcut@CWnd@@UAEJUtagVARIANT@@PAPA_W@Z
	DD	FLAT:?get_accFocus@CWnd@@UAEJPAUtagVARIANT@@@Z
	DD	FLAT:?get_accSelection@CWnd@@UAEJPAUtagVARIANT@@@Z
	DD	FLAT:?get_accDefaultAction@CWnd@@UAEJUtagVARIANT@@PAPA_W@Z
	DD	FLAT:?accSelect@CWnd@@UAEJJUtagVARIANT@@@Z
	DD	FLAT:?accLocation@CWnd@@UAEJPAJ000UtagVARIANT@@@Z
	DD	FLAT:?accNavigate@CWnd@@UAEJJUtagVARIANT@@PAU2@@Z
	DD	FLAT:?accHitTest@CWnd@@UAEJJJPAUtagVARIANT@@@Z
	DD	FLAT:?accDoDefaultAction@CWnd@@UAEJUtagVARIANT@@@Z
	DD	FLAT:?put_accName@CWnd@@UAEJUtagVARIANT@@PA_W@Z
	DD	FLAT:?put_accValue@CWnd@@UAEJUtagVARIANT@@PA_W@Z
	DD	FLAT:?SetProxy@CWnd@@UAEJPAUIAccessibleProxy@@@Z
	DD	FLAT:?CreateAccessibleProxy@CWnd@@UAEJIJPAJ@Z
	DD	FLAT:?OnCommand@CWnd@@MAEHIJ@Z
	DD	FLAT:?OnNotify@CWnd@@MAEHIJPAJ@Z
	DD	FLAT:?GetSuperWndProcAddr@CWnd@@MAEPAP6GJPAUHWND__@@IIJ@ZXZ
	DD	FLAT:?DoDataExchange@CSysDialog@@MAEXPAVCDataExchange@@@Z
	DD	FLAT:?BeginModalState@CWnd@@UAEXXZ
	DD	FLAT:?EndModalState@CWnd@@UAEXXZ
	DD	FLAT:?PreTranslateMessage@CDialog@@UAEHPAUtagMSG@@@Z
	DD	FLAT:?OnAmbientProperty@CWnd@@UAEHPAVCOleControlSite@@JPAUtagVARIANT@@@Z
	DD	FLAT:?WindowProc@CWnd@@MAEJIIJ@Z
	DD	FLAT:?OnWndMsg@CWnd@@MAEHIIJPAJ@Z
	DD	FLAT:?DefWindowProcA@CWnd@@MAEJIIJ@Z
	DD	FLAT:?PostNcDestroy@CWnd@@MAEXXZ
	DD	FLAT:?OnChildNotify@CWnd@@MAEHIIJPAJ@Z
	DD	FLAT:?CheckAutoCenter@CDialog@@UAEHXZ
	DD	FLAT:?IsFrameWnd@CWnd@@UBEHXZ
	DD	FLAT:?CreateControlContainer@CWnd@@MAEHPAPAVCOleControlContainer@@@Z
	DD	FLAT:?CreateControlSite@CWnd@@MAEHPAVCOleControlContainer@@PAPAVCOleControlSite@@IABU_GUID@@@Z
	DD	FLAT:?SetOccDialogInfo@CDialog@@MAEHPAU_AFX_OCC_DIALOG_INFO@@@Z
	DD	FLAT:?Create@CDialog@@UAEHIPAVCWnd@@@Z
	DD	FLAT:?Create@CDialog@@UAEHPBDPAVCWnd@@@Z
	DD	FLAT:?CreateIndirect@CDialog@@UAEHPAXPAVCWnd@@@Z
	DD	FLAT:?CreateIndirect@CDialog@@UAEHPBUDLGTEMPLATE@@PAVCWnd@@PAX@Z
	DD	FLAT:?DoModal@CDialog@@UAEHXZ
	DD	FLAT:?OnInitDialog@BaseDialog@@MAEHXZ
	DD	FLAT:?OnSetFont@CDialog@@UAEXPAVCFont@@@Z
	DD	FLAT:?OnOK@BaseDialog@@MAEXXZ
	DD	FLAT:?OnCancel@BaseDialog@@MAEXXZ
	DD	FLAT:?PreInitDialog@CDialog@@MAEXXZ
	DD	FLAT:?SthChanged@BaseDialog@@UAEXXZ
	DD	FLAT:?SetDefault@CSysDialog@@UAEXXZ
	DD	FLAT:?LoadConf@CSysDialog@@UAEXXZ
	DD	FLAT:?SaveConf@CSysDialog@@UAEX_N@Z
	DD	FLAT:?IsAllInputOK@CSysDialog@@UAE_NAAV?$basic_string@DU?$char_traits@D@std@@V?$allocator@D@2@@std@@@Z
CONST	ENDS
;	COMDAT ??_R4CSysDialog@@6B@
rdata$r	SEGMENT
??_R4CSysDialog@@6B@ DD 00H				; CSysDialog::`RTTI Complete Object Locator'
	DD	00H
	DD	00H
	DD	FLAT:??_R0?AVCSysDialog@@@8
	DD	FLAT:??_R3CSysDialog@@8
rdata$r	ENDS
;	COMDAT ??_R0?AVCSysDialog@@@8
_DATA	SEGMENT
??_R0?AVCSysDialog@@@8 DD FLAT:??_7type_info@@6B@	; CSysDialog `RTTI Type Descriptor'
	DD	00H
	DB	'.?AVCSysDialog@@', 00H
_DATA	ENDS
;	COMDAT ??_R3CSysDialog@@8
rdata$r	SEGMENT
??_R3CSysDialog@@8 DD 00H				; CSysDialog::`RTTI Class Hierarchy Descriptor'
	DD	00H
	DD	06H
	DD	FLAT:??_R2CSysDialog@@8
rdata$r	ENDS
;	COMDAT ??_R2CSysDialog@@8
rdata$r	SEGMENT
??_R2CSysDialog@@8 DD FLAT:??_R1A@?0A@A@CSysDialog@@8	; CSysDialog::`RTTI Base Class Array'
	DD	FLAT:??_R1A@?0A@A@BaseDialog@@8
	DD	FLAT:??_R1A@?0A@A@CDialog@@8
	DD	FLAT:??_R1A@?0A@A@CWnd@@8
	DD	FLAT:??_R1A@?0A@A@CCmdTarget@@8
	DD	FLAT:??_R1A@?0A@A@CObject@@8
rdata$r	ENDS
;	COMDAT ??_R1A@?0A@A@CSysDialog@@8
rdata$r	SEGMENT
??_R1A@?0A@A@CSysDialog@@8 DD FLAT:??_R0?AVCSysDialog@@@8 ; CSysDialog::`RTTI Base Class Descriptor at (0,-1,0,0)'
	DD	05H
	DD	00H
	DD	0ffffffffH
	DD	00H
	DD	00H
rdata$r	ENDS
;	COMDAT ??_R1A@?0A@A@BaseDialog@@8
rdata$r	SEGMENT
??_R1A@?0A@A@BaseDialog@@8 DD FLAT:??_R0?AVBaseDialog@@@8 ; BaseDialog::`RTTI Base Class Descriptor at (0,-1,0,0)'
	DD	04H
	DD	00H
	DD	0ffffffffH
	DD	00H
	DD	00H
rdata$r	ENDS
;	COMDAT ??_R0?AVBaseDialog@@@8
_DATA	SEGMENT
??_R0?AVBaseDialog@@@8 DD FLAT:??_7type_info@@6B@	; BaseDialog `RTTI Type Descriptor'
	DD	00H
	DB	'.?AVBaseDialog@@', 00H
_DATA	ENDS
;	COMDAT ??_R1A@?0A@A@CDialog@@8
rdata$r	SEGMENT
??_R1A@?0A@A@CDialog@@8 DD FLAT:??_R0?AVCDialog@@@8	; CDialog::`RTTI Base Class Descriptor at (0,-1,0,0)'
	DD	03H
	DD	00H
	DD	0ffffffffH
	DD	00H
	DD	00H
rdata$r	ENDS
;	COMDAT ??_R0?AVCDialog@@@8
_DATA	SEGMENT
??_R0?AVCDialog@@@8 DD FLAT:??_7type_info@@6B@		; CDialog `RTTI Type Descriptor'
	DD	00H
	DB	'.?AVCDialog@@', 00H
_DATA	ENDS
;	COMDAT ??_R1A@?0A@A@CWnd@@8
rdata$r	SEGMENT
??_R1A@?0A@A@CWnd@@8 DD FLAT:??_R0?AVCWnd@@@8		; CWnd::`RTTI Base Class Descriptor at (0,-1,0,0)'
	DD	02H
	DD	00H
	DD	0ffffffffH
	DD	00H
	DD	00H
rdata$r	ENDS
;	COMDAT ??_R0?AVCWnd@@@8
_DATA	SEGMENT
??_R0?AVCWnd@@@8 DD FLAT:??_7type_info@@6B@		; CWnd `RTTI Type Descriptor'
	DD	00H
	DB	'.?AVCWnd@@', 00H
_DATA	ENDS
;	COMDAT ??_R1A@?0A@A@CCmdTarget@@8
rdata$r	SEGMENT
??_R1A@?0A@A@CCmdTarget@@8 DD FLAT:??_R0?AVCCmdTarget@@@8 ; CCmdTarget::`RTTI Base Class Descriptor at (0,-1,0,0)'
	DD	01H
	DD	00H
	DD	0ffffffffH
	DD	00H
	DD	00H
rdata$r	ENDS
;	COMDAT ??_R0?AVCCmdTarget@@@8
_DATA	SEGMENT
??_R0?AVCCmdTarget@@@8 DD FLAT:??_7type_info@@6B@	; CCmdTarget `RTTI Type Descriptor'
	DD	00H
	DB	'.?AVCCmdTarget@@', 00H
_DATA	ENDS
;	COMDAT ??_R1A@?0A@A@CObject@@8
rdata$r	SEGMENT
??_R1A@?0A@A@CObject@@8 DD FLAT:??_R0?AVCObject@@@8	; CObject::`RTTI Base Class Descriptor at (0,-1,0,0)'
	DD	00H
	DD	00H
	DD	0ffffffffH
	DD	00H
	DD	00H
rdata$r	ENDS
;	COMDAT ??_R0?AVCObject@@@8
_DATA	SEGMENT
??_R0?AVCObject@@@8 DD FLAT:??_7type_info@@6B@		; CObject `RTTI Type Descriptor'
	DD	00H
	DB	'.?AVCObject@@', 00H
; Function compile flags: /Odt
_DATA	ENDS
_TEXT	SEGMENT
_this$ = -132						; size = 4
$T198439 = -128						; size = 116
__$EHRec$ = -12						; size = 12
_pParent$ = 8						; size = 4
??0CSysDialog@@QAE@PAVCWnd@@@Z PROC NEAR		; CSysDialog::CSysDialog
; _this$ = ecx

; 12   : {

  00020	55		 push	 ebp
  00021	8b ec		 mov	 ebp, esp
  00023	6a ff		 push	 -1
  00025	68 00 00 00 00	 push	 __ehhandler$??0CSysDialog@@QAE@PAVCWnd@@@Z
  0002a	64 a1 00 00 00
	00		 mov	 eax, DWORD PTR fs:__except_list
  00030	50		 push	 eax
  00031	64 89 25 00 00
	00 00		 mov	 DWORD PTR fs:__except_list, esp
  00038	83 ec 78	 sub	 esp, 120		; 00000078H
  0003b	89 8d 7c ff ff
	ff		 mov	 DWORD PTR _this$[ebp], ecx
  00041	8b 8d 7c ff ff
	ff		 mov	 ecx, DWORD PTR _this$[ebp]
  00047	e8 00 00 00 00	 call	 ??0BaseDialog@@QAE@XZ
  0004c	c7 45 fc 00 00
	00 00		 mov	 DWORD PTR __$EHRec$[ebp+8], 0
  00053	8b 85 7c ff ff
	ff		 mov	 eax, DWORD PTR _this$[ebp]
  00059	c7 00 00 00 00
	00		 mov	 DWORD PTR [eax], OFFSET FLAT:??_7CSysDialog@@6B@
  0005f	8b 8d 7c ff ff
	ff		 mov	 ecx, DWORD PTR _this$[ebp]
  00065	81 c1 94 00 00
	00		 add	 ecx, 148		; 00000094H
  0006b	e8 00 00 00 00	 call	 ??0SetBaseButton@@QAE@XZ ; SetBaseButton::SetBaseButton
  00070	c6 45 fc 01	 mov	 BYTE PTR __$EHRec$[ebp+8], 1
  00074	8b 8d 7c ff ff
	ff		 mov	 ecx, DWORD PTR _this$[ebp]
  0007a	81 c1 f0 00 00
	00		 add	 ecx, 240		; 000000f0H
  00080	e8 00 00 00 00	 call	 ??0SetBaseButton@@QAE@XZ ; SetBaseButton::SetBaseButton
  00085	c6 45 fc 02	 mov	 BYTE PTR __$EHRec$[ebp+8], 2
  00089	8b 8d 7c ff ff
	ff		 mov	 ecx, DWORD PTR _this$[ebp]
  0008f	81 c1 44 01 00
	00		 add	 ecx, 324		; 00000144H
  00095	e8 00 00 00 00	 call	 ??0SetBaseButton@@QAE@XZ ; SetBaseButton::SetBaseButton
  0009a	c6 45 fc 03	 mov	 BYTE PTR __$EHRec$[ebp+8], 3
  0009e	8b 8d 7c ff ff
	ff		 mov	 ecx, DWORD PTR _this$[ebp]
  000a4	81 c1 98 01 00
	00		 add	 ecx, 408		; 00000198H
  000aa	e8 00 00 00 00	 call	 ??0SetBaseButton@@QAE@XZ ; SetBaseButton::SetBaseButton
  000af	c6 45 fc 04	 mov	 BYTE PTR __$EHRec$[ebp+8], 4
  000b3	8b 8d 7c ff ff
	ff		 mov	 ecx, DWORD PTR _this$[ebp]
  000b9	81 c1 ec 01 00
	00		 add	 ecx, 492		; 000001ecH
  000bf	e8 00 00 00 00	 call	 ??0SetBaseStatic@@QAE@XZ ; SetBaseStatic::SetBaseStatic
  000c4	c6 45 fc 05	 mov	 BYTE PTR __$EHRec$[ebp+8], 5

; 13   : 	CDialog(CSysDialog::IDD, pParent);

  000c8	8b 4d 08	 mov	 ecx, DWORD PTR _pParent$[ebp]
  000cb	51		 push	 ecx
  000cc	68 cc 00 00 00	 push	 204			; 000000ccH
  000d1	8d 4d 80	 lea	 ecx, DWORD PTR $T198439[ebp]
  000d4	e8 00 00 00 00	 call	 ??0CDialog@@QAE@IPAVCWnd@@@Z ; CDialog::CDialog
  000d9	8d 4d 80	 lea	 ecx, DWORD PTR $T198439[ebp]
  000dc	e8 00 00 00 00	 call	 ??1CDialog@@UAE@XZ	; CDialog::~CDialog

; 14   : 	m_minOrExit = FALSE;

  000e1	8b 95 7c ff ff
	ff		 mov	 edx, DWORD PTR _this$[ebp]
  000e7	c7 82 e8 00 00
	00 00 00 00 00	 mov	 DWORD PTR [edx+232], 0

; 15   : 	m_noAsk     = FALSE;

  000f1	8b 85 7c ff ff
	ff		 mov	 eax, DWORD PTR _this$[ebp]
  000f7	c7 80 ec 00 00
	00 00 00 00 00	 mov	 DWORD PTR [eax+236], 0

; 16   : }

  00101	c7 45 fc ff ff
	ff ff		 mov	 DWORD PTR __$EHRec$[ebp+8], -1
  00108	8b 85 7c ff ff
	ff		 mov	 eax, DWORD PTR _this$[ebp]
  0010e	8b 4d f4	 mov	 ecx, DWORD PTR __$EHRec$[ebp]
  00111	64 89 0d 00 00
	00 00		 mov	 DWORD PTR fs:__except_list, ecx
  00118	8b e5		 mov	 esp, ebp
  0011a	5d		 pop	 ebp
  0011b	c2 04 00	 ret	 4
_TEXT	ENDS
text$x	SEGMENT
$L198440:
  00000	8b 8d 7c ff ff
	ff		 mov	 ecx, DWORD PTR _this$[ebp]
  00006	e9 00 00 00 00	 jmp	 ??1BaseDialog@@UAE@XZ
$L198441:
  0000b	8b 8d 7c ff ff
	ff		 mov	 ecx, DWORD PTR _this$[ebp]
  00011	81 c1 94 00 00
	00		 add	 ecx, 148		; 00000094H
  00017	e9 00 00 00 00	 jmp	 ??1SetBaseButton@@UAE@XZ ; SetBaseButton::~SetBaseButton
$L198442:
  0001c	8b 8d 7c ff ff
	ff		 mov	 ecx, DWORD PTR _this$[ebp]
  00022	81 c1 f0 00 00
	00		 add	 ecx, 240		; 000000f0H
  00028	e9 00 00 00 00	 jmp	 ??1SetBaseButton@@UAE@XZ ; SetBaseButton::~SetBaseButton
$L198443:
  0002d	8b 8d 7c ff ff
	ff		 mov	 ecx, DWORD PTR _this$[ebp]
  00033	81 c1 44 01 00
	00		 add	 ecx, 324		; 00000144H
  00039	e9 00 00 00 00	 jmp	 ??1SetBaseButton@@UAE@XZ ; SetBaseButton::~SetBaseButton
$L198444:
  0003e	8b 8d 7c ff ff
	ff		 mov	 ecx, DWORD PTR _this$[ebp]
  00044	81 c1 98 01 00
	00		 add	 ecx, 408		; 00000198H
  0004a	e9 00 00 00 00	 jmp	 ??1SetBaseButton@@UAE@XZ ; SetBaseButton::~SetBaseButton
$L198445:
  0004f	8b 8d 7c ff ff
	ff		 mov	 ecx, DWORD PTR _this$[ebp]
  00055	81 c1 ec 01 00
	00		 add	 ecx, 492		; 000001ecH
  0005b	e9 00 00 00 00	 jmp	 ??1SetBaseStatic@@UAE@XZ ; SetBaseStatic::~SetBaseStatic
__ehhandler$??0CSysDialog@@QAE@PAVCWnd@@@Z:
  00060	b8 00 00 00 00	 mov	 eax, OFFSET FLAT:$T198450
  00065	e9 00 00 00 00	 jmp	 ___CxxFrameHandler
text$x	ENDS
??0CSysDialog@@QAE@PAVCWnd@@@Z ENDP			; CSysDialog::CSysDialog
PUBLIC	??3CObject@@SGXPAX@Z				; CObject::operator delete
PUBLIC	??1CSysDialog@@UAE@XZ				; CSysDialog::~CSysDialog
; Function compile flags: /Odt
;	COMDAT ??_GCSysDialog@@UAEPAXI@Z
_TEXT	SEGMENT
_this$ = -4						; size = 4
___flags$ = 8						; size = 4
??_GCSysDialog@@UAEPAXI@Z PROC NEAR			; CSysDialog::`scalar deleting destructor', COMDAT
; _this$ = ecx
  00000	55		 push	 ebp
  00001	8b ec		 mov	 ebp, esp
  00003	51		 push	 ecx
  00004	89 4d fc	 mov	 DWORD PTR _this$[ebp], ecx
  00007	8b 4d fc	 mov	 ecx, DWORD PTR _this$[ebp]
  0000a	e8 00 00 00 00	 call	 ??1CSysDialog@@UAE@XZ	; CSysDialog::~CSysDialog
  0000f	8b 45 08	 mov	 eax, DWORD PTR ___flags$[ebp]
  00012	83 e0 01	 and	 eax, 1
  00015	74 09		 je	 SHORT $L197910
  00017	8b 4d fc	 mov	 ecx, DWORD PTR _this$[ebp]
  0001a	51		 push	 ecx
  0001b	e8 00 00 00 00	 call	 ??3CObject@@SGXPAX@Z	; CObject::operator delete
$L197910:
  00020	8b 45 fc	 mov	 eax, DWORD PTR _this$[ebp]
  00023	8b e5		 mov	 esp, ebp
  00025	5d		 pop	 ebp
  00026	c2 04 00	 ret	 4
??_GCSysDialog@@UAEPAXI@Z ENDP				; CSysDialog::`scalar deleting destructor'
_TEXT	ENDS
PUBLIC	??_R4BaseDialog@@6B@				; BaseDialog::`RTTI Complete Object Locator'
PUBLIC	??_R3BaseDialog@@8				; BaseDialog::`RTTI Class Hierarchy Descriptor'
PUBLIC	??_R2BaseDialog@@8				; BaseDialog::`RTTI Base Class Array'
PUBLIC	??_7BaseDialog@@6B@				; BaseDialog::`vftable'
PUBLIC	??_GBaseDialog@@UAEPAXI@Z			; BaseDialog::`scalar deleting destructor'
PUBLIC	?DoDataExchange@CWnd@@MAEXPAVCDataExchange@@@Z	; CWnd::DoDataExchange
EXTRN	__purecall:NEAR
EXTRN	??0CDialog@@QAE@XZ:NEAR				; CDialog::CDialog
EXTRN	?GetRuntimeClass@BaseDialog@@UBEPAUCRuntimeClass@@XZ:NEAR ; BaseDialog::GetRuntimeClass
EXTRN	?GetMessageMap@BaseDialog@@MBEPBUAFX_MSGMAP@@XZ:NEAR ; BaseDialog::GetMessageMap
EXTRN	__imp_??0?$basic_string@DU?$char_traits@D@std@@V?$allocator@D@2@@std@@QAE@XZ:NEAR
EXTRN	??_EBaseDialog@@UAEPAXI@Z:NEAR			; BaseDialog::`vector deleting destructor'
;	COMDAT xdata$x
xdata$x	SEGMENT
$T198463 DD	0ffffffffH
	DD	FLAT:$L198458
$T198461 DD	019930520H
	DD	01H
	DD	FLAT:$T198463
	DD	2 DUP(00H)
	DD	2 DUP(00H)
xdata$x	ENDS
;	COMDAT ??_7BaseDialog@@6B@
CONST	SEGMENT
??_7BaseDialog@@6B@ DD FLAT:??_R4BaseDialog@@6B@	; BaseDialog::`vftable'
	DD	FLAT:?GetRuntimeClass@BaseDialog@@UBEPAUCRuntimeClass@@XZ
	DD	FLAT:??_EBaseDialog@@UAEPAXI@Z
	DD	FLAT:?Serialize@CObject@@UAEXAAVCArchive@@@Z
	DD	FLAT:?AssertValid@CObject@@UBEXXZ
	DD	FLAT:?Dump@CObject@@UBEXAAVCDumpContext@@@Z
	DD	FLAT:?OnCmdMsg@CDialog@@UAEHIHPAXPAUAFX_CMDHANDLERINFO@@@Z
	DD	FLAT:?OnFinalRelease@CWnd@@UAEXXZ
	DD	FLAT:?IsInvokeAllowed@CCmdTarget@@UAEHJ@Z
	DD	FLAT:?GetDispatchIID@CCmdTarget@@UAEHPAU_GUID@@@Z
	DD	FLAT:?GetTypeInfoCount@CCmdTarget@@UAEIXZ
	DD	FLAT:?GetTypeLibCache@CCmdTarget@@UAEPAVCTypeLibCache@@XZ
	DD	FLAT:?GetTypeLib@CCmdTarget@@UAEJKPAPAUITypeLib@@@Z
	DD	FLAT:?GetMessageMap@BaseDialog@@MBEPBUAFX_MSGMAP@@XZ
	DD	FLAT:?GetCommandMap@CCmdTarget@@MBEPBUAFX_OLECMDMAP@@XZ
	DD	FLAT:?GetDispatchMap@CCmdTarget@@MBEPBUAFX_DISPMAP@@XZ
	DD	FLAT:?GetConnectionMap@CCmdTarget@@MBEPBUAFX_CONNECTIONMAP@@XZ
	DD	FLAT:?GetInterfaceMap@CWnd@@MBEPBUAFX_INTERFACEMAP@@XZ
	DD	FLAT:?GetEventSinkMap@CCmdTarget@@MBEPBUAFX_EVENTSINKMAP@@XZ
	DD	FLAT:?OnCreateAggregates@CCmdTarget@@UAEHXZ
	DD	FLAT:?GetInterfaceHook@CCmdTarget@@UAEPAUIUnknown@@PBX@Z
	DD	FLAT:?GetExtraConnectionPoints@CCmdTarget@@MAEHPAVCPtrArray@@@Z
	DD	FLAT:?GetConnectionHook@CCmdTarget@@MAEPAUIConnectionPoint@@ABU_GUID@@@Z
	DD	FLAT:?PreSubclassWindow@CWnd@@UAEXXZ
	DD	FLAT:?Create@CWnd@@UAEHPBD0KABUtagRECT@@PAV1@IPAUCCreateContext@@@Z
	DD	FLAT:?CreateEx@CWnd@@UAEHKPBD0KABUtagRECT@@PAV1@IPAX@Z
	DD	FLAT:?CreateEx@CWnd@@UAEHKPBD0KHHHHPAUHWND__@@PAUHMENU__@@PAX@Z
	DD	FLAT:?DestroyWindow@CWnd@@UAEHXZ
	DD	FLAT:?PreCreateWindow@CWnd@@UAEHAAUtagCREATESTRUCTA@@@Z
	DD	FLAT:?CalcWindowRect@CWnd@@UAEXPAUtagRECT@@I@Z
	DD	FLAT:?OnToolHitTest@CWnd@@UBEHVCPoint@@PAUtagTOOLINFOA@@@Z
	DD	FLAT:?GetScrollBarCtrl@CWnd@@UBEPAVCScrollBar@@H@Z
	DD	FLAT:?WinHelpA@CWnd@@UAEXKI@Z
	DD	FLAT:?HtmlHelpA@CWnd@@UAEXKI@Z
	DD	FLAT:?WinHelpInternal@CWnd@@UAEXKI@Z
	DD	FLAT:?ContinueModal@CWnd@@UAEHXZ
	DD	FLAT:?EndModalLoop@CWnd@@UAEXH@Z
	DD	FLAT:?EnsureStdObj@CWnd@@UAEJXZ
	DD	FLAT:?get_accParent@CWnd@@UAEJPAPAUIDispatch@@@Z
	DD	FLAT:?get_accChildCount@CWnd@@UAEJPAJ@Z
	DD	FLAT:?get_accChild@CWnd@@UAEJUtagVARIANT@@PAPAUIDispatch@@@Z
	DD	FLAT:?get_accName@CWnd@@UAEJUtagVARIANT@@PAPA_W@Z
	DD	FLAT:?get_accValue@CWnd@@UAEJUtagVARIANT@@PAPA_W@Z
	DD	FLAT:?get_accDescription@CWnd@@UAEJUtagVARIANT@@PAPA_W@Z
	DD	FLAT:?get_accRole@CWnd@@UAEJUtagVARIANT@@PAU2@@Z
	DD	FLAT:?get_accState@CWnd@@UAEJUtagVARIANT@@PAU2@@Z
	DD	FLAT:?get_accHelp@CWnd@@UAEJUtagVARIANT@@PAPA_W@Z
	DD	FLAT:?get_accHelpTopic@CWnd@@UAEJPAPA_WUtagVARIANT@@PAJ@Z
	DD	FLAT:?get_accKeyboardShortcut@CWnd@@UAEJUtagVARIANT@@PAPA_W@Z
	DD	FLAT:?get_accFocus@CWnd@@UAEJPAUtagVARIANT@@@Z
	DD	FLAT:?get_accSelection@CWnd@@UAEJPAUtagVARIANT@@@Z
	DD	FLAT:?get_accDefaultAction@CWnd@@UAEJUtagVARIANT@@PAPA_W@Z
	DD	FLAT:?accSelect@CWnd@@UAEJJUtagVARIANT@@@Z
	DD	FLAT:?accLocation@CWnd@@UAEJPAJ000UtagVARIANT@@@Z
	DD	FLAT:?accNavigate@CWnd@@UAEJJUtagVARIANT@@PAU2@@Z
	DD	FLAT:?accHitTest@CWnd@@UAEJJJPAUtagVARIANT@@@Z
	DD	FLAT:?accDoDefaultAction@CWnd@@UAEJUtagVARIANT@@@Z
	DD	FLAT:?put_accName@CWnd@@UAEJUtagVARIANT@@PA_W@Z
	DD	FLAT:?put_accValue@CWnd@@UAEJUtagVARIANT@@PA_W@Z
	DD	FLAT:?SetProxy@CWnd@@UAEJPAUIAccessibleProxy@@@Z
	DD	FLAT:?CreateAccessibleProxy@CWnd@@UAEJIJPAJ@Z
	DD	FLAT:?OnCommand@CWnd@@MAEHIJ@Z
	DD	FLAT:?OnNotify@CWnd@@MAEHIJPAJ@Z
	DD	FLAT:?GetSuperWndProcAddr@CWnd@@MAEPAP6GJPAUHWND__@@IIJ@ZXZ
	DD	FLAT:?DoDataExchange@CWnd@@MAEXPAVCDataExchange@@@Z
	DD	FLAT:?BeginModalState@CWnd@@UAEXXZ
	DD	FLAT:?EndModalState@CWnd@@UAEXXZ
	DD	FLAT:?PreTranslateMessage@CDialog@@UAEHPAUtagMSG@@@Z
	DD	FLAT:?OnAmbientProperty@CWnd@@UAEHPAVCOleControlSite@@JPAUtagVARIANT@@@Z
	DD	FLAT:?WindowProc@CWnd@@MAEJIIJ@Z
	DD	FLAT:?OnWndMsg@CWnd@@MAEHIIJPAJ@Z
	DD	FLAT:?DefWindowProcA@CWnd@@MAEJIIJ@Z
	DD	FLAT:?PostNcDestroy@CWnd@@MAEXXZ
	DD	FLAT:?OnChildNotify@CWnd@@MAEHIIJPAJ@Z
	DD	FLAT:?CheckAutoCenter@CDialog@@UAEHXZ
	DD	FLAT:?IsFrameWnd@CWnd@@UBEHXZ
	DD	FLAT:?CreateControlContainer@CWnd@@MAEHPAPAVCOleControlContainer@@@Z
	DD	FLAT:?CreateControlSite@CWnd@@MAEHPAVCOleControlContainer@@PAPAVCOleControlSite@@IABU_GUID@@@Z
	DD	FLAT:?SetOccDialogInfo@CDialog@@MAEHPAU_AFX_OCC_DIALOG_INFO@@@Z
	DD	FLAT:?Create@CDialog@@UAEHIPAVCWnd@@@Z
	DD	FLAT:?Create@CDialog@@UAEHPBDPAVCWnd@@@Z
	DD	FLAT:?CreateIndirect@CDialog@@UAEHPAXPAVCWnd@@@Z
	DD	FLAT:?CreateIndirect@CDialog@@UAEHPBUDLGTEMPLATE@@PAVCWnd@@PAX@Z
	DD	FLAT:?DoModal@CDialog@@UAEHXZ
	DD	FLAT:?OnInitDialog@BaseDialog@@MAEHXZ
	DD	FLAT:?OnSetFont@CDialog@@UAEXPAVCFont@@@Z
	DD	FLAT:?OnOK@BaseDialog@@MAEXXZ
	DD	FLAT:?OnCancel@BaseDialog@@MAEXXZ
	DD	FLAT:?PreInitDialog@CDialog@@MAEXXZ
	DD	FLAT:?SthChanged@BaseDialog@@UAEXXZ
	DD	FLAT:__purecall
	DD	FLAT:__purecall
	DD	FLAT:__purecall
	DD	FLAT:__purecall
CONST	ENDS
;	COMDAT ??_R4BaseDialog@@6B@
rdata$r	SEGMENT
??_R4BaseDialog@@6B@ DD 00H				; BaseDialog::`RTTI Complete Object Locator'
	DD	00H
	DD	00H
	DD	FLAT:??_R0?AVBaseDialog@@@8
	DD	FLAT:??_R3BaseDialog@@8
rdata$r	ENDS
;	COMDAT ??_R3BaseDialog@@8
rdata$r	SEGMENT
??_R3BaseDialog@@8 DD 00H				; BaseDialog::`RTTI Class Hierarchy Descriptor'
	DD	00H
	DD	05H
	DD	FLAT:??_R2BaseDialog@@8
rdata$r	ENDS
;	COMDAT ??_R2BaseDialog@@8
rdata$r	SEGMENT
??_R2BaseDialog@@8 DD FLAT:??_R1A@?0A@A@BaseDialog@@8	; BaseDialog::`RTTI Base Class Array'
	DD	FLAT:??_R1A@?0A@A@CDialog@@8
	DD	FLAT:??_R1A@?0A@A@CWnd@@8
	DD	FLAT:??_R1A@?0A@A@CCmdTarget@@8
	DD	FLAT:??_R1A@?0A@A@CObject@@8
; Function compile flags: /Odt
rdata$r	ENDS
;	COMDAT ??0BaseDialog@@QAE@XZ
_TEXT	SEGMENT
_this$ = -16						; size = 4
__$EHRec$ = -12						; size = 12
??0BaseDialog@@QAE@XZ PROC NEAR				; BaseDialog::BaseDialog, COMDAT
; _this$ = ecx
  00000	55		 push	 ebp
  00001	8b ec		 mov	 ebp, esp
  00003	6a ff		 push	 -1
  00005	68 00 00 00 00	 push	 __ehhandler$??0BaseDialog@@QAE@XZ
  0000a	64 a1 00 00 00
	00		 mov	 eax, DWORD PTR fs:__except_list
  00010	50		 push	 eax
  00011	64 89 25 00 00
	00 00		 mov	 DWORD PTR fs:__except_list, esp
  00018	51		 push	 ecx
  00019	89 4d f0	 mov	 DWORD PTR _this$[ebp], ecx
  0001c	8b 4d f0	 mov	 ecx, DWORD PTR _this$[ebp]
  0001f	e8 00 00 00 00	 call	 ??0CDialog@@QAE@XZ	; CDialog::CDialog
  00024	c7 45 fc 00 00
	00 00		 mov	 DWORD PTR __$EHRec$[ebp+8], 0
  0002b	8b 45 f0	 mov	 eax, DWORD PTR _this$[ebp]
  0002e	c7 00 00 00 00
	00		 mov	 DWORD PTR [eax], OFFSET FLAT:??_7BaseDialog@@6B@
  00034	8b 4d f0	 mov	 ecx, DWORD PTR _this$[ebp]
  00037	83 c1 74	 add	 ecx, 116		; 00000074H
  0003a	ff 15 00 00 00
	00		 call	 DWORD PTR __imp_??0?$basic_string@DU?$char_traits@D@std@@V?$allocator@D@2@@std@@QAE@XZ
  00040	c7 45 fc ff ff
	ff ff		 mov	 DWORD PTR __$EHRec$[ebp+8], -1
  00047	8b 45 f0	 mov	 eax, DWORD PTR _this$[ebp]
  0004a	8b 4d f4	 mov	 ecx, DWORD PTR __$EHRec$[ebp]
  0004d	64 89 0d 00 00
	00 00		 mov	 DWORD PTR fs:__except_list, ecx
  00054	8b e5		 mov	 esp, ebp
  00056	5d		 pop	 ebp
  00057	c3		 ret	 0
_TEXT	ENDS
;	COMDAT text$x
text$x	SEGMENT
$L198458:
  00000	8b 4d f0	 mov	 ecx, DWORD PTR _this$[ebp]
  00003	e9 00 00 00 00	 jmp	 ??1CDialog@@UAE@XZ	; CDialog::~CDialog
__ehhandler$??0BaseDialog@@QAE@XZ:
  00008	b8 00 00 00 00	 mov	 eax, OFFSET FLAT:$T198461
  0000d	e9 00 00 00 00	 jmp	 ___CxxFrameHandler
text$x	ENDS
??0BaseDialog@@QAE@XZ ENDP				; BaseDialog::BaseDialog
EXTRN	__imp_??1?$basic_string@DU?$char_traits@D@std@@V?$allocator@D@2@@std@@QAE@XZ:NEAR
;	COMDAT xdata$x
xdata$x	SEGMENT
$T198473 DD	0ffffffffH
	DD	FLAT:$L198468
$T198471 DD	019930520H
	DD	01H
	DD	FLAT:$T198473
	DD	2 DUP(00H)
	DD	2 DUP(00H)
; Function compile flags: /Odt
xdata$x	ENDS
;	COMDAT ??1BaseDialog@@UAE@XZ
_TEXT	SEGMENT
_this$ = -16						; size = 4
__$EHRec$ = -12						; size = 12
??1BaseDialog@@UAE@XZ PROC NEAR				; BaseDialog::~BaseDialog, COMDAT
; _this$ = ecx
  00000	55		 push	 ebp
  00001	8b ec		 mov	 ebp, esp
  00003	6a ff		 push	 -1
  00005	68 00 00 00 00	 push	 __ehhandler$??1BaseDialog@@UAE@XZ
  0000a	64 a1 00 00 00
	00		 mov	 eax, DWORD PTR fs:__except_list
  00010	50		 push	 eax
  00011	64 89 25 00 00
	00 00		 mov	 DWORD PTR fs:__except_list, esp
  00018	51		 push	 ecx
  00019	89 4d f0	 mov	 DWORD PTR _this$[ebp], ecx
  0001c	c7 45 fc 00 00
	00 00		 mov	 DWORD PTR __$EHRec$[ebp+8], 0
  00023	8b 4d f0	 mov	 ecx, DWORD PTR _this$[ebp]
  00026	83 c1 74	 add	 ecx, 116		; 00000074H
  00029	ff 15 00 00 00
	00		 call	 DWORD PTR __imp_??1?$basic_string@DU?$char_traits@D@std@@V?$allocator@D@2@@std@@QAE@XZ
  0002f	c7 45 fc ff ff
	ff ff		 mov	 DWORD PTR __$EHRec$[ebp+8], -1
  00036	8b 4d f0	 mov	 ecx, DWORD PTR _this$[ebp]
  00039	e8 00 00 00 00	 call	 ??1CDialog@@UAE@XZ	; CDialog::~CDialog
  0003e	8b 4d f4	 mov	 ecx, DWORD PTR __$EHRec$[ebp]
  00041	64 89 0d 00 00
	00 00		 mov	 DWORD PTR fs:__except_list, ecx
  00048	8b e5		 mov	 esp, ebp
  0004a	5d		 pop	 ebp
  0004b	c3		 ret	 0
_TEXT	ENDS
;	COMDAT text$x
text$x	SEGMENT
$L198468:
  00000	8b 4d f0	 mov	 ecx, DWORD PTR _this$[ebp]
  00003	e9 00 00 00 00	 jmp	 ??1CDialog@@UAE@XZ	; CDialog::~CDialog
__ehhandler$??1BaseDialog@@UAE@XZ:
  00008	b8 00 00 00 00	 mov	 eax, OFFSET FLAT:$T198471
  0000d	e9 00 00 00 00	 jmp	 ___CxxFrameHandler
text$x	ENDS
??1BaseDialog@@UAE@XZ ENDP				; BaseDialog::~BaseDialog
; Function compile flags: /Odt
;	COMDAT ??_GBaseDialog@@UAEPAXI@Z
_TEXT	SEGMENT
_this$ = -4						; size = 4
___flags$ = 8						; size = 4
??_GBaseDialog@@UAEPAXI@Z PROC NEAR			; BaseDialog::`scalar deleting destructor', COMDAT
; _this$ = ecx
  00000	55		 push	 ebp
  00001	8b ec		 mov	 ebp, esp
  00003	51		 push	 ecx
  00004	89 4d fc	 mov	 DWORD PTR _this$[ebp], ecx
  00007	8b 4d fc	 mov	 ecx, DWORD PTR _this$[ebp]
  0000a	e8 00 00 00 00	 call	 ??1BaseDialog@@UAE@XZ
  0000f	8b 45 08	 mov	 eax, DWORD PTR ___flags$[ebp]
  00012	83 e0 01	 and	 eax, 1
  00015	74 09		 je	 SHORT $L197918
  00017	8b 4d fc	 mov	 ecx, DWORD PTR _this$[ebp]
  0001a	51		 push	 ecx
  0001b	e8 00 00 00 00	 call	 ??3CObject@@SGXPAX@Z	; CObject::operator delete
$L197918:
  00020	8b 45 fc	 mov	 eax, DWORD PTR _this$[ebp]
  00023	8b e5		 mov	 esp, ebp
  00025	5d		 pop	 ebp
  00026	c2 04 00	 ret	 4
??_GBaseDialog@@UAEPAXI@Z ENDP				; BaseDialog::`scalar deleting destructor'
_TEXT	ENDS
xdata$x	SEGMENT
$T198489 DD	0ffffffffH
	DD	FLAT:$L198480
	DD	00H
	DD	FLAT:$L198481
	DD	01H
	DD	FLAT:$L198482
	DD	02H
	DD	FLAT:$L198483
	DD	03H
	DD	FLAT:$L198484
$T198487 DD	019930520H
	DD	05H
	DD	FLAT:$T198489
	DD	2 DUP(00H)
	DD	2 DUP(00H)
; Function compile flags: /Odt
xdata$x	ENDS
_TEXT	SEGMENT
_this$ = -16						; size = 4
__$EHRec$ = -12						; size = 12
??1CSysDialog@@UAE@XZ PROC NEAR				; CSysDialog::~CSysDialog
; _this$ = ecx

; 19   : {

  00120	55		 push	 ebp
  00121	8b ec		 mov	 ebp, esp
  00123	6a ff		 push	 -1
  00125	68 00 00 00 00	 push	 __ehhandler$??1CSysDialog@@UAE@XZ
  0012a	64 a1 00 00 00
	00		 mov	 eax, DWORD PTR fs:__except_list
  00130	50		 push	 eax
  00131	64 89 25 00 00
	00 00		 mov	 DWORD PTR fs:__except_list, esp
  00138	51		 push	 ecx
  00139	89 4d f0	 mov	 DWORD PTR _this$[ebp], ecx
  0013c	8b 45 f0	 mov	 eax, DWORD PTR _this$[ebp]
  0013f	c7 00 00 00 00
	00		 mov	 DWORD PTR [eax], OFFSET FLAT:??_7CSysDialog@@6B@
  00145	c7 45 fc 04 00
	00 00		 mov	 DWORD PTR __$EHRec$[ebp+8], 4

; 20   : }

  0014c	8b 4d f0	 mov	 ecx, DWORD PTR _this$[ebp]
  0014f	81 c1 ec 01 00
	00		 add	 ecx, 492		; 000001ecH
  00155	e8 00 00 00 00	 call	 ??1SetBaseStatic@@UAE@XZ ; SetBaseStatic::~SetBaseStatic
  0015a	c6 45 fc 03	 mov	 BYTE PTR __$EHRec$[ebp+8], 3
  0015e	8b 4d f0	 mov	 ecx, DWORD PTR _this$[ebp]
  00161	81 c1 98 01 00
	00		 add	 ecx, 408		; 00000198H
  00167	e8 00 00 00 00	 call	 ??1SetBaseButton@@UAE@XZ ; SetBaseButton::~SetBaseButton
  0016c	c6 45 fc 02	 mov	 BYTE PTR __$EHRec$[ebp+8], 2
  00170	8b 4d f0	 mov	 ecx, DWORD PTR _this$[ebp]
  00173	81 c1 44 01 00
	00		 add	 ecx, 324		; 00000144H
  00179	e8 00 00 00 00	 call	 ??1SetBaseButton@@UAE@XZ ; SetBaseButton::~SetBaseButton
  0017e	c6 45 fc 01	 mov	 BYTE PTR __$EHRec$[ebp+8], 1
  00182	8b 4d f0	 mov	 ecx, DWORD PTR _this$[ebp]
  00185	81 c1 f0 00 00
	00		 add	 ecx, 240		; 000000f0H
  0018b	e8 00 00 00 00	 call	 ??1SetBaseButton@@UAE@XZ ; SetBaseButton::~SetBaseButton
  00190	c6 45 fc 00	 mov	 BYTE PTR __$EHRec$[ebp+8], 0
  00194	8b 4d f0	 mov	 ecx, DWORD PTR _this$[ebp]
  00197	81 c1 94 00 00
	00		 add	 ecx, 148		; 00000094H
  0019d	e8 00 00 00 00	 call	 ??1SetBaseButton@@UAE@XZ ; SetBaseButton::~SetBaseButton
  001a2	c7 45 fc ff ff
	ff ff		 mov	 DWORD PTR __$EHRec$[ebp+8], -1
  001a9	8b 4d f0	 mov	 ecx, DWORD PTR _this$[ebp]
  001ac	e8 00 00 00 00	 call	 ??1BaseDialog@@UAE@XZ
  001b1	8b 4d f4	 mov	 ecx, DWORD PTR __$EHRec$[ebp]
  001b4	64 89 0d 00 00
	00 00		 mov	 DWORD PTR fs:__except_list, ecx
  001bb	8b e5		 mov	 esp, ebp
  001bd	5d		 pop	 ebp
  001be	c3		 ret	 0
_TEXT	ENDS
text$x	SEGMENT
$L198480:
  0006a	8b 4d f0	 mov	 ecx, DWORD PTR _this$[ebp]
  0006d	e9 00 00 00 00	 jmp	 ??1BaseDialog@@UAE@XZ
$L198481:
  00072	8b 4d f0	 mov	 ecx, DWORD PTR _this$[ebp]
  00075	81 c1 94 00 00
	00		 add	 ecx, 148		; 00000094H
  0007b	e9 00 00 00 00	 jmp	 ??1SetBaseButton@@UAE@XZ ; SetBaseButton::~SetBaseButton
$L198482:
  00080	8b 4d f0	 mov	 ecx, DWORD PTR _this$[ebp]
  00083	81 c1 f0 00 00
	00		 add	 ecx, 240		; 000000f0H
  00089	e9 00 00 00 00	 jmp	 ??1SetBaseButton@@UAE@XZ ; SetBaseButton::~SetBaseButton
$L198483:
  0008e	8b 4d f0	 mov	 ecx, DWORD PTR _this$[ebp]
  00091	81 c1 44 01 00
	00		 add	 ecx, 324		; 00000144H
  00097	e9 00 00 00 00	 jmp	 ??1SetBaseButton@@UAE@XZ ; SetBaseButton::~SetBaseButton
$L198484:
  0009c	8b 4d f0	 mov	 ecx, DWORD PTR _this$[ebp]
  0009f	81 c1 98 01 00
	00		 add	 ecx, 408		; 00000198H
  000a5	e9 00 00 00 00	 jmp	 ??1SetBaseButton@@UAE@XZ ; SetBaseButton::~SetBaseButton
__ehhandler$??1CSysDialog@@UAE@XZ:
  000aa	b8 00 00 00 00	 mov	 eax, OFFSET FLAT:$T198487
  000af	e9 00 00 00 00	 jmp	 ___CxxFrameHandler
text$x	ENDS
??1CSysDialog@@UAE@XZ ENDP				; CSysDialog::~CSysDialog
PUBLIC	?GetThisMessageMap@CSysDialog@@KGPBUAFX_MSGMAP@@XZ ; CSysDialog::GetThisMessageMap
; Function compile flags: /Odt
_TEXT	SEGMENT
?GetThisMessageMap@CSysDialog@@KGPBUAFX_MSGMAP@@XZ PROC NEAR ; CSysDialog::GetThisMessageMap

; 22   : BEGIN_MESSAGE_MAP(CSysDialog, BaseDialog)

  001c0	55		 push	 ebp
  001c1	8b ec		 mov	 ebp, esp
  001c3	b8 00 00 00 00	 mov	 eax, OFFSET FLAT:?messageMap@CSysDialog@@1UAFX_MSGMAP@@B ; CSysDialog::messageMap
  001c8	5d		 pop	 ebp
  001c9	c3		 ret	 0
?GetThisMessageMap@CSysDialog@@KGPBUAFX_MSGMAP@@XZ ENDP	; CSysDialog::GetThisMessageMap
; Function compile flags: /Odt
_this$ = -4						; size = 4
?GetMessageMap@CSysDialog@@MBEPBUAFX_MSGMAP@@XZ PROC NEAR ; CSysDialog::GetMessageMap
; _this$ = ecx

; 22   : BEGIN_MESSAGE_MAP(CSysDialog, BaseDialog)

  001d0	55		 push	 ebp
  001d1	8b ec		 mov	 ebp, esp
  001d3	51		 push	 ecx
  001d4	89 4d fc	 mov	 DWORD PTR _this$[ebp], ecx
  001d7	b8 00 00 00 00	 mov	 eax, OFFSET FLAT:?messageMap@CSysDialog@@1UAFX_MSGMAP@@B ; CSysDialog::messageMap
  001dc	8b e5		 mov	 esp, ebp
  001de	5d		 pop	 ebp
  001df	c3		 ret	 0
?GetMessageMap@CSysDialog@@MBEPBUAFX_MSGMAP@@XZ ENDP	; CSysDialog::GetMessageMap
_TEXT	ENDS
EXTRN	?DDX_Check@@YGXPAVCDataExchange@@HAAH@Z:NEAR	; DDX_Check
EXTRN	?DDX_Radio@@YGXPAVCDataExchange@@HAAH@Z:NEAR	; DDX_Radio
EXTRN	?DDX_Control@@YGXPAVCDataExchange@@HAAVCWnd@@@Z:NEAR ; DDX_Control
; Function compile flags: /Odt
_TEXT	SEGMENT
_this$ = -4						; size = 4
_pDX$ = 8						; size = 4
?DoDataExchange@CSysDialog@@MAEXPAVCDataExchange@@@Z PROC NEAR ; CSysDialog::DoDataExchange
; _this$ = ecx

; 30   : {

  001e0	55		 push	 ebp
  001e1	8b ec		 mov	 ebp, esp
  001e3	51		 push	 ecx
  001e4	89 4d fc	 mov	 DWORD PTR _this$[ebp], ecx

; 31   : 	CDialog::DoDataExchange(pDX);

  001e7	8b 45 08	 mov	 eax, DWORD PTR _pDX$[ebp]
  001ea	50		 push	 eax
  001eb	8b 4d fc	 mov	 ecx, DWORD PTR _this$[ebp]
  001ee	e8 00 00 00 00	 call	 ?DoDataExchange@CWnd@@MAEXPAVCDataExchange@@@Z ; CWnd::DoDataExchange

; 32   : 	
; 33   : 	DDX_Check(pDX, IDC_CHECK_AUTORUN, m_bAutoRun);

  001f3	8b 4d fc	 mov	 ecx, DWORD PTR _this$[ebp]
  001f6	81 c1 90 00 00
	00		 add	 ecx, 144		; 00000090H
  001fc	51		 push	 ecx
  001fd	68 ce 00 00 00	 push	 206			; 000000ceH
  00202	8b 55 08	 mov	 edx, DWORD PTR _pDX$[ebp]
  00205	52		 push	 edx
  00206	e8 00 00 00 00	 call	 ?DDX_Check@@YGXPAVCDataExchange@@HAAH@Z ; DDX_Check

; 34   : 	DDX_Check(pDX, IDC_CHK_NOASK, m_noAsk);

  0020b	8b 45 fc	 mov	 eax, DWORD PTR _this$[ebp]
  0020e	05 ec 00 00 00	 add	 eax, 236		; 000000ecH
  00213	50		 push	 eax
  00214	68 d3 00 00 00	 push	 211			; 000000d3H
  00219	8b 4d 08	 mov	 ecx, DWORD PTR _pDX$[ebp]
  0021c	51		 push	 ecx
  0021d	e8 00 00 00 00	 call	 ?DDX_Check@@YGXPAVCDataExchange@@HAAH@Z ; DDX_Check

; 35   : 	DDX_Control(pDX, IDC_CHECK_AUTORUN, m_checkAutoRun);

  00222	8b 55 fc	 mov	 edx, DWORD PTR _this$[ebp]
  00225	81 c2 94 00 00
	00		 add	 edx, 148		; 00000094H
  0022b	52		 push	 edx
  0022c	68 ce 00 00 00	 push	 206			; 000000ceH
  00231	8b 45 08	 mov	 eax, DWORD PTR _pDX$[ebp]
  00234	50		 push	 eax
  00235	e8 00 00 00 00	 call	 ?DDX_Control@@YGXPAVCDataExchange@@HAAVCWnd@@@Z ; DDX_Control

; 36   : 	DDX_Radio(pDX, IDC_RAD_MIN, m_minOrExit);

  0023a	8b 4d fc	 mov	 ecx, DWORD PTR _this$[ebp]
  0023d	81 c1 e8 00 00
	00		 add	 ecx, 232		; 000000e8H
  00243	51		 push	 ecx
  00244	68 d1 00 00 00	 push	 209			; 000000d1H
  00249	8b 55 08	 mov	 edx, DWORD PTR _pDX$[ebp]
  0024c	52		 push	 edx
  0024d	e8 00 00 00 00	 call	 ?DDX_Radio@@YGXPAVCDataExchange@@HAAH@Z ; DDX_Radio

; 37   : 	DDX_Control(pDX, IDC_RAD_MIN, m_minCtrl);

  00252	8b 45 fc	 mov	 eax, DWORD PTR _this$[ebp]
  00255	05 f0 00 00 00	 add	 eax, 240		; 000000f0H
  0025a	50		 push	 eax
  0025b	68 d1 00 00 00	 push	 209			; 000000d1H
  00260	8b 4d 08	 mov	 ecx, DWORD PTR _pDX$[ebp]
  00263	51		 push	 ecx
  00264	e8 00 00 00 00	 call	 ?DDX_Control@@YGXPAVCDataExchange@@HAAVCWnd@@@Z ; DDX_Control

; 38   : 	DDX_Control(pDX, IDC_RAD_EXIT, m_exitCtrl);

  00269	8b 55 fc	 mov	 edx, DWORD PTR _this$[ebp]
  0026c	81 c2 44 01 00
	00		 add	 edx, 324		; 00000144H
  00272	52		 push	 edx
  00273	68 d2 00 00 00	 push	 210			; 000000d2H
  00278	8b 45 08	 mov	 eax, DWORD PTR _pDX$[ebp]
  0027b	50		 push	 eax
  0027c	e8 00 00 00 00	 call	 ?DDX_Control@@YGXPAVCDataExchange@@HAAVCWnd@@@Z ; DDX_Control

; 39   : 	DDX_Control(pDX, IDC_CHK_NOASK, m_noAskCtrl);

  00281	8b 4d fc	 mov	 ecx, DWORD PTR _this$[ebp]
  00284	81 c1 98 01 00
	00		 add	 ecx, 408		; 00000198H
  0028a	51		 push	 ecx
  0028b	68 d3 00 00 00	 push	 211			; 000000d3H
  00290	8b 55 08	 mov	 edx, DWORD PTR _pDX$[ebp]
  00293	52		 push	 edx
  00294	e8 00 00 00 00	 call	 ?DDX_Control@@YGXPAVCDataExchange@@HAAVCWnd@@@Z ; DDX_Control

; 40   : 	DDX_Control(pDX, IDC_STATIC_MINOREXIT, m_staticMinOrExit);

  00299	8b 45 fc	 mov	 eax, DWORD PTR _this$[ebp]
  0029c	05 ec 01 00 00	 add	 eax, 492		; 000001ecH
  002a1	50		 push	 eax
  002a2	68 d0 00 00 00	 push	 208			; 000000d0H
  002a7	8b 4d 08	 mov	 ecx, DWORD PTR _pDX$[ebp]
  002aa	51		 push	 ecx
  002ab	e8 00 00 00 00	 call	 ?DDX_Control@@YGXPAVCDataExchange@@HAAVCWnd@@@Z ; DDX_Control

; 41   : }

  002b0	8b e5		 mov	 esp, ebp
  002b2	5d		 pop	 ebp
  002b3	c2 04 00	 ret	 4
?DoDataExchange@CSysDialog@@MAEXPAVCDataExchange@@@Z ENDP ; CSysDialog::DoDataExchange
_TEXT	ENDS
EXTRN	?CreateGBoxRunInStartUp@GlobalFunc@@SAX_N@Z:NEAR ; GlobalFunc::CreateGBoxRunInStartUp
EXTRN	?SetConfigBoolValue@AfxUserConfig@@QAEXABV?$basic_string@DU?$char_traits@D@std@@V?$allocator@D@2@@std@@0_N1@Z:NEAR ; AfxUserConfig::SetConfigBoolValue
EXTRN	?UpdateData@CWnd@@QAEHH@Z:NEAR			; CWnd::UpdateData
EXTRN	__imp_??0?$basic_string@DU?$char_traits@D@std@@V?$allocator@D@2@@std@@QAE@PBD@Z:NEAR
EXTRN	?AfxGetUserConfig@@YAPAVAfxUserConfig@@XZ:NEAR	; AfxGetUserConfig
xdata$x	SEGMENT
$T198505 DD	0ffffffffH
	DD	FLAT:$L198498
	DD	00H
	DD	FLAT:$L198499
	DD	0ffffffffH
	DD	FLAT:$L198500
	DD	02H
	DD	FLAT:$L198501
$T198503 DD	019930520H
	DD	04H
	DD	FLAT:$T198505
	DD	2 DUP(00H)
	DD	2 DUP(00H)
; Function compile flags: /Odt
xdata$x	ENDS
_TEXT	SEGMENT
_this$ = -132						; size = 4
$T198497 = -128						; size = 28
$T198496 = -100						; size = 28
$T198495 = -72						; size = 28
$T198494 = -44						; size = 28
_bValue$ = -13						; size = 1
__$EHRec$ = -12						; size = 12
_bSave2File$ = 8					; size = 1
?SaveConf@CSysDialog@@UAEX_N@Z PROC NEAR		; CSysDialog::SaveConf
; _this$ = ecx

; 44   : {

  002c0	55		 push	 ebp
  002c1	8b ec		 mov	 ebp, esp
  002c3	6a ff		 push	 -1
  002c5	68 00 00 00 00	 push	 __ehhandler$?SaveConf@CSysDialog@@UAEX_N@Z
  002ca	64 a1 00 00 00
	00		 mov	 eax, DWORD PTR fs:__except_list
  002d0	50		 push	 eax
  002d1	64 89 25 00 00
	00 00		 mov	 DWORD PTR fs:__except_list, esp
  002d8	83 ec 78	 sub	 esp, 120		; 00000078H
  002db	89 8d 7c ff ff
	ff		 mov	 DWORD PTR _this$[ebp], ecx

; 45   : 	UpdateData();

  002e1	6a 01		 push	 1
  002e3	8b 8d 7c ff ff
	ff		 mov	 ecx, DWORD PTR _this$[ebp]
  002e9	e8 00 00 00 00	 call	 ?UpdateData@CWnd@@QAEHH@Z ; CWnd::UpdateData

; 46   : 	GlobalFunc::CreateGBoxRunInStartUp( m_bAutoRun );

  002ee	8b 85 7c ff ff
	ff		 mov	 eax, DWORD PTR _this$[ebp]
  002f4	83 b8 90 00 00
	00 00		 cmp	 DWORD PTR [eax+144], 0
  002fb	0f 95 c1	 setne	 cl
  002fe	51		 push	 ecx
  002ff	e8 00 00 00 00	 call	 ?CreateGBoxRunInStartUp@GlobalFunc@@SAX_N@Z ; GlobalFunc::CreateGBoxRunInStartUp
  00304	83 c4 04	 add	 esp, 4

; 47   : 
; 48   : 	bool bValue = m_minOrExit;

  00307	8b 95 7c ff ff
	ff		 mov	 edx, DWORD PTR _this$[ebp]
  0030d	83 ba e8 00 00
	00 00		 cmp	 DWORD PTR [edx+232], 0
  00314	0f 95 c0	 setne	 al
  00317	88 45 f3	 mov	 BYTE PTR _bValue$[ebp], al

; 49   : 	AfxGetUserConfig()->SetConfigBoolValue( CONF_SETTING_MODULE_NAME,CONF_SETTING_CONFIG_EXITCHOICE,bValue);

  0031a	8b 0d 00 00 00
	00		 mov	 ecx, DWORD PTR _CONF_SETTING_CONFIG_EXITCHOICE
  00320	51		 push	 ecx
  00321	8d 4d d4	 lea	 ecx, DWORD PTR $T198494[ebp]
  00324	ff 15 00 00 00
	00		 call	 DWORD PTR __imp_??0?$basic_string@DU?$char_traits@D@std@@V?$allocator@D@2@@std@@QAE@PBD@Z
  0032a	c7 45 fc 00 00
	00 00		 mov	 DWORD PTR __$EHRec$[ebp+8], 0
  00331	8b 15 00 00 00
	00		 mov	 edx, DWORD PTR _CONF_SETTING_MODULE_NAME
  00337	52		 push	 edx
  00338	8d 4d b8	 lea	 ecx, DWORD PTR $T198495[ebp]
  0033b	ff 15 00 00 00
	00		 call	 DWORD PTR __imp_??0?$basic_string@DU?$char_traits@D@std@@V?$allocator@D@2@@std@@QAE@PBD@Z
  00341	c6 45 fc 01	 mov	 BYTE PTR __$EHRec$[ebp+8], 1
  00345	6a 00		 push	 0
  00347	8a 45 f3	 mov	 al, BYTE PTR _bValue$[ebp]
  0034a	50		 push	 eax
  0034b	8d 4d d4	 lea	 ecx, DWORD PTR $T198494[ebp]
  0034e	51		 push	 ecx
  0034f	8d 55 b8	 lea	 edx, DWORD PTR $T198495[ebp]
  00352	52		 push	 edx
  00353	e8 00 00 00 00	 call	 ?AfxGetUserConfig@@YAPAVAfxUserConfig@@XZ ; AfxGetUserConfig
  00358	8b c8		 mov	 ecx, eax
  0035a	e8 00 00 00 00	 call	 ?SetConfigBoolValue@AfxUserConfig@@QAEXABV?$basic_string@DU?$char_traits@D@std@@V?$allocator@D@2@@std@@0_N1@Z ; AfxUserConfig::SetConfigBoolValue
  0035f	c6 45 fc 00	 mov	 BYTE PTR __$EHRec$[ebp+8], 0
  00363	8d 4d b8	 lea	 ecx, DWORD PTR $T198495[ebp]
  00366	ff 15 00 00 00
	00		 call	 DWORD PTR __imp_??1?$basic_string@DU?$char_traits@D@std@@V?$allocator@D@2@@std@@QAE@XZ
  0036c	c7 45 fc ff ff
	ff ff		 mov	 DWORD PTR __$EHRec$[ebp+8], -1
  00373	8d 4d d4	 lea	 ecx, DWORD PTR $T198494[ebp]
  00376	ff 15 00 00 00
	00		 call	 DWORD PTR __imp_??1?$basic_string@DU?$char_traits@D@std@@V?$allocator@D@2@@std@@QAE@XZ

; 50   : 
; 51   : 	bValue = m_noAsk;

  0037c	8b 85 7c ff ff
	ff		 mov	 eax, DWORD PTR _this$[ebp]
  00382	83 b8 ec 00 00
	00 00		 cmp	 DWORD PTR [eax+236], 0
  00389	0f 95 c1	 setne	 cl
  0038c	88 4d f3	 mov	 BYTE PTR _bValue$[ebp], cl

; 52   : 	AfxGetUserConfig()->SetConfigBoolValue( CONF_SETTING_MODULE_NAME,CONF_SETTING_CONFIG_IFASKEXIT,bValue);

  0038f	8b 15 00 00 00
	00		 mov	 edx, DWORD PTR _CONF_SETTING_CONFIG_IFASKEXIT
  00395	52		 push	 edx
  00396	8d 4d 9c	 lea	 ecx, DWORD PTR $T198496[ebp]
  00399	ff 15 00 00 00
	00		 call	 DWORD PTR __imp_??0?$basic_string@DU?$char_traits@D@std@@V?$allocator@D@2@@std@@QAE@PBD@Z
  0039f	c7 45 fc 02 00
	00 00		 mov	 DWORD PTR __$EHRec$[ebp+8], 2
  003a6	a1 00 00 00 00	 mov	 eax, DWORD PTR _CONF_SETTING_MODULE_NAME
  003ab	50		 push	 eax
  003ac	8d 4d 80	 lea	 ecx, DWORD PTR $T198497[ebp]
  003af	ff 15 00 00 00
	00		 call	 DWORD PTR __imp_??0?$basic_string@DU?$char_traits@D@std@@V?$allocator@D@2@@std@@QAE@PBD@Z
  003b5	c6 45 fc 03	 mov	 BYTE PTR __$EHRec$[ebp+8], 3
  003b9	6a 00		 push	 0
  003bb	8a 4d f3	 mov	 cl, BYTE PTR _bValue$[ebp]
  003be	51		 push	 ecx
  003bf	8d 55 9c	 lea	 edx, DWORD PTR $T198496[ebp]
  003c2	52		 push	 edx
  003c3	8d 45 80	 lea	 eax, DWORD PTR $T198497[ebp]
  003c6	50		 push	 eax
  003c7	e8 00 00 00 00	 call	 ?AfxGetUserConfig@@YAPAVAfxUserConfig@@XZ ; AfxGetUserConfig
  003cc	8b c8		 mov	 ecx, eax
  003ce	e8 00 00 00 00	 call	 ?SetConfigBoolValue@AfxUserConfig@@QAEXABV?$basic_string@DU?$char_traits@D@std@@V?$allocator@D@2@@std@@0_N1@Z ; AfxUserConfig::SetConfigBoolValue
  003d3	c6 45 fc 02	 mov	 BYTE PTR __$EHRec$[ebp+8], 2
  003d7	8d 4d 80	 lea	 ecx, DWORD PTR $T198497[ebp]
  003da	ff 15 00 00 00
	00		 call	 DWORD PTR __imp_??1?$basic_string@DU?$char_traits@D@std@@V?$allocator@D@2@@std@@QAE@XZ
  003e0	c7 45 fc ff ff
	ff ff		 mov	 DWORD PTR __$EHRec$[ebp+8], -1
  003e7	8d 4d 9c	 lea	 ecx, DWORD PTR $T198496[ebp]
  003ea	ff 15 00 00 00
	00		 call	 DWORD PTR __imp_??1?$basic_string@DU?$char_traits@D@std@@V?$allocator@D@2@@std@@QAE@XZ

; 53   : }

  003f0	8b 4d f4	 mov	 ecx, DWORD PTR __$EHRec$[ebp]
  003f3	64 89 0d 00 00
	00 00		 mov	 DWORD PTR fs:__except_list, ecx
  003fa	8b e5		 mov	 esp, ebp
  003fc	5d		 pop	 ebp
  003fd	c2 04 00	 ret	 4
_TEXT	ENDS
text$x	SEGMENT
$L198498:
  000b4	8d 4d d4	 lea	 ecx, DWORD PTR $T198494[ebp]
  000b7	ff 25 00 00 00
	00		 jmp	 DWORD PTR __imp_??1?$basic_string@DU?$char_traits@D@std@@V?$allocator@D@2@@std@@QAE@XZ
$L198499:
  000bd	8d 4d b8	 lea	 ecx, DWORD PTR $T198495[ebp]
  000c0	ff 25 00 00 00
	00		 jmp	 DWORD PTR __imp_??1?$basic_string@DU?$char_traits@D@std@@V?$allocator@D@2@@std@@QAE@XZ
$L198500:
  000c6	8d 4d 9c	 lea	 ecx, DWORD PTR $T198496[ebp]
  000c9	ff 25 00 00 00
	00		 jmp	 DWORD PTR __imp_??1?$basic_string@DU?$char_traits@D@std@@V?$allocator@D@2@@std@@QAE@XZ
$L198501:
  000cf	8d 4d 80	 lea	 ecx, DWORD PTR $T198497[ebp]
  000d2	ff 25 00 00 00
	00		 jmp	 DWORD PTR __imp_??1?$basic_string@DU?$char_traits@D@std@@V?$allocator@D@2@@std@@QAE@XZ
__ehhandler$?SaveConf@CSysDialog@@UAEX_N@Z:
  000d8	b8 00 00 00 00	 mov	 eax, OFFSET FLAT:$T198503
  000dd	e9 00 00 00 00	 jmp	 ___CxxFrameHandler
text$x	ENDS
?SaveConf@CSysDialog@@UAEX_N@Z ENDP			; CSysDialog::SaveConf
EXTRN	?IsAutoRun@GlobalFunc@@SA_NXZ:NEAR		; GlobalFunc::IsAutoRun
EXTRN	?GetConfigBoolValue@AfxUserConfig@@QAEXABV?$basic_string@DU?$char_traits@D@std@@V?$allocator@D@2@@std@@0AA_N@Z:NEAR ; AfxUserConfig::GetConfigBoolValue
xdata$x	SEGMENT
$T198518 DD	0ffffffffH
	DD	FLAT:$L198511
	DD	00H
	DD	FLAT:$L198512
	DD	0ffffffffH
	DD	FLAT:$L198513
	DD	02H
	DD	FLAT:$L198514
$T198516 DD	019930520H
	DD	04H
	DD	FLAT:$T198518
	DD	2 DUP(00H)
	DD	2 DUP(00H)
; Function compile flags: /Odt
xdata$x	ENDS
_TEXT	SEGMENT
_this$ = -136						; size = 4
$T198510 = -132						; size = 28
$T198509 = -104						; size = 28
$T198508 = -76						; size = 28
$T198507 = -48						; size = 28
_bValue$ = -17						; size = 1
_pUserConfig$ = -16					; size = 4
__$EHRec$ = -12						; size = 12
?LoadConf@CSysDialog@@UAEXXZ PROC NEAR			; CSysDialog::LoadConf
; _this$ = ecx

; 56   : {

  00400	55		 push	 ebp
  00401	8b ec		 mov	 ebp, esp
  00403	6a ff		 push	 -1
  00405	68 00 00 00 00	 push	 __ehhandler$?LoadConf@CSysDialog@@UAEXXZ
  0040a	64 a1 00 00 00
	00		 mov	 eax, DWORD PTR fs:__except_list
  00410	50		 push	 eax
  00411	64 89 25 00 00
	00 00		 mov	 DWORD PTR fs:__except_list, esp
  00418	83 ec 7c	 sub	 esp, 124		; 0000007cH
  0041b	89 8d 78 ff ff
	ff		 mov	 DWORD PTR _this$[ebp], ecx

; 57   : 	//	
; 58   : 	m_bAutoRun = GlobalFunc::IsAutoRun();

  00421	e8 00 00 00 00	 call	 ?IsAutoRun@GlobalFunc@@SA_NXZ ; GlobalFunc::IsAutoRun
  00426	0f b6 c0	 movzx	 eax, al
  00429	8b 8d 78 ff ff
	ff		 mov	 ecx, DWORD PTR _this$[ebp]
  0042f	89 81 90 00 00
	00		 mov	 DWORD PTR [ecx+144], eax

; 59   : 	//
; 60   : 	AfxUserConfig*	pUserConfig = AfxGetUserConfig();

  00435	e8 00 00 00 00	 call	 ?AfxGetUserConfig@@YAPAVAfxUserConfig@@XZ ; AfxGetUserConfig
  0043a	89 45 f0	 mov	 DWORD PTR _pUserConfig$[ebp], eax

; 61   : 	bool bValue;
; 62   : 	pUserConfig->GetConfigBoolValue( CONF_SETTING_MODULE_NAME,CONF_SETTING_CONFIG_EXITCHOICE,bValue);

  0043d	8b 15 00 00 00
	00		 mov	 edx, DWORD PTR _CONF_SETTING_CONFIG_EXITCHOICE
  00443	52		 push	 edx
  00444	8d 4d d0	 lea	 ecx, DWORD PTR $T198507[ebp]
  00447	ff 15 00 00 00
	00		 call	 DWORD PTR __imp_??0?$basic_string@DU?$char_traits@D@std@@V?$allocator@D@2@@std@@QAE@PBD@Z
  0044d	c7 45 fc 00 00
	00 00		 mov	 DWORD PTR __$EHRec$[ebp+8], 0
  00454	a1 00 00 00 00	 mov	 eax, DWORD PTR _CONF_SETTING_MODULE_NAME
  00459	50		 push	 eax
  0045a	8d 4d b4	 lea	 ecx, DWORD PTR $T198508[ebp]
  0045d	ff 15 00 00 00
	00		 call	 DWORD PTR __imp_??0?$basic_string@DU?$char_traits@D@std@@V?$allocator@D@2@@std@@QAE@PBD@Z
  00463	c6 45 fc 01	 mov	 BYTE PTR __$EHRec$[ebp+8], 1
  00467	8d 4d ef	 lea	 ecx, DWORD PTR _bValue$[ebp]
  0046a	51		 push	 ecx
  0046b	8d 55 d0	 lea	 edx, DWORD PTR $T198507[ebp]
  0046e	52		 push	 edx
  0046f	8d 45 b4	 lea	 eax, DWORD PTR $T198508[ebp]
  00472	50		 push	 eax
  00473	8b 4d f0	 mov	 ecx, DWORD PTR _pUserConfig$[ebp]
  00476	e8 00 00 00 00	 call	 ?GetConfigBoolValue@AfxUserConfig@@QAEXABV?$basic_string@DU?$char_traits@D@std@@V?$allocator@D@2@@std@@0AA_N@Z ; AfxUserConfig::GetConfigBoolValue
  0047b	c6 45 fc 00	 mov	 BYTE PTR __$EHRec$[ebp+8], 0
  0047f	8d 4d b4	 lea	 ecx, DWORD PTR $T198508[ebp]
  00482	ff 15 00 00 00
	00		 call	 DWORD PTR __imp_??1?$basic_string@DU?$char_traits@D@std@@V?$allocator@D@2@@std@@QAE@XZ
  00488	c7 45 fc ff ff
	ff ff		 mov	 DWORD PTR __$EHRec$[ebp+8], -1
  0048f	8d 4d d0	 lea	 ecx, DWORD PTR $T198507[ebp]
  00492	ff 15 00 00 00
	00		 call	 DWORD PTR __imp_??1?$basic_string@DU?$char_traits@D@std@@V?$allocator@D@2@@std@@QAE@XZ

; 63   : 	m_minOrExit = bValue;

  00498	0f b6 4d ef	 movzx	 ecx, BYTE PTR _bValue$[ebp]
  0049c	8b 95 78 ff ff
	ff		 mov	 edx, DWORD PTR _this$[ebp]
  004a2	89 8a e8 00 00
	00		 mov	 DWORD PTR [edx+232], ecx

; 64   : 
; 65   : 	pUserConfig->GetConfigBoolValue( CONF_SETTING_MODULE_NAME,CONF_SETTING_CONFIG_IFASKEXIT,bValue);

  004a8	a1 00 00 00 00	 mov	 eax, DWORD PTR _CONF_SETTING_CONFIG_IFASKEXIT
  004ad	50		 push	 eax
  004ae	8d 4d 98	 lea	 ecx, DWORD PTR $T198509[ebp]
  004b1	ff 15 00 00 00
	00		 call	 DWORD PTR __imp_??0?$basic_string@DU?$char_traits@D@std@@V?$allocator@D@2@@std@@QAE@PBD@Z
  004b7	c7 45 fc 02 00
	00 00		 mov	 DWORD PTR __$EHRec$[ebp+8], 2
  004be	8b 0d 00 00 00
	00		 mov	 ecx, DWORD PTR _CONF_SETTING_MODULE_NAME
  004c4	51		 push	 ecx
  004c5	8d 8d 7c ff ff
	ff		 lea	 ecx, DWORD PTR $T198510[ebp]
  004cb	ff 15 00 00 00
	00		 call	 DWORD PTR __imp_??0?$basic_string@DU?$char_traits@D@std@@V?$allocator@D@2@@std@@QAE@PBD@Z
  004d1	c6 45 fc 03	 mov	 BYTE PTR __$EHRec$[ebp+8], 3
  004d5	8d 55 ef	 lea	 edx, DWORD PTR _bValue$[ebp]
  004d8	52		 push	 edx
  004d9	8d 45 98	 lea	 eax, DWORD PTR $T198509[ebp]
  004dc	50		 push	 eax
  004dd	8d 8d 7c ff ff
	ff		 lea	 ecx, DWORD PTR $T198510[ebp]
  004e3	51		 push	 ecx
  004e4	8b 4d f0	 mov	 ecx, DWORD PTR _pUserConfig$[ebp]
  004e7	e8 00 00 00 00	 call	 ?GetConfigBoolValue@AfxUserConfig@@QAEXABV?$basic_string@DU?$char_traits@D@std@@V?$allocator@D@2@@std@@0AA_N@Z ; AfxUserConfig::GetConfigBoolValue
  004ec	c6 45 fc 02	 mov	 BYTE PTR __$EHRec$[ebp+8], 2
  004f0	8d 8d 7c ff ff
	ff		 lea	 ecx, DWORD PTR $T198510[ebp]
  004f6	ff 15 00 00 00
	00		 call	 DWORD PTR __imp_??1?$basic_string@DU?$char_traits@D@std@@V?$allocator@D@2@@std@@QAE@XZ
  004fc	c7 45 fc ff ff
	ff ff		 mov	 DWORD PTR __$EHRec$[ebp+8], -1
  00503	8d 4d 98	 lea	 ecx, DWORD PTR $T198509[ebp]
  00506	ff 15 00 00 00
	00		 call	 DWORD PTR __imp_??1?$basic_string@DU?$char_traits@D@std@@V?$allocator@D@2@@std@@QAE@XZ

; 66   : 	m_noAsk = bValue;

  0050c	0f b6 55 ef	 movzx	 edx, BYTE PTR _bValue$[ebp]
  00510	8b 85 78 ff ff
	ff		 mov	 eax, DWORD PTR _this$[ebp]
  00516	89 90 ec 00 00
	00		 mov	 DWORD PTR [eax+236], edx

; 67   : }

  0051c	8b 4d f4	 mov	 ecx, DWORD PTR __$EHRec$[ebp]
  0051f	64 89 0d 00 00
	00 00		 mov	 DWORD PTR fs:__except_list, ecx
  00526	8b e5		 mov	 esp, ebp
  00528	5d		 pop	 ebp
  00529	c3		 ret	 0
_TEXT	ENDS
text$x	SEGMENT
$L198511:
  000e2	8d 4d d0	 lea	 ecx, DWORD PTR $T198507[ebp]
  000e5	ff 25 00 00 00
	00		 jmp	 DWORD PTR __imp_??1?$basic_string@DU?$char_traits@D@std@@V?$allocator@D@2@@std@@QAE@XZ
$L198512:
  000eb	8d 4d b4	 lea	 ecx, DWORD PTR $T198508[ebp]
  000ee	ff 25 00 00 00
	00		 jmp	 DWORD PTR __imp_??1?$basic_string@DU?$char_traits@D@std@@V?$allocator@D@2@@std@@QAE@XZ
$L198513:
  000f4	8d 4d 98	 lea	 ecx, DWORD PTR $T198509[ebp]
  000f7	ff 25 00 00 00
	00		 jmp	 DWORD PTR __imp_??1?$basic_string@DU?$char_traits@D@std@@V?$allocator@D@2@@std@@QAE@XZ
$L198514:
  000fd	8d 8d 7c ff ff
	ff		 lea	 ecx, DWORD PTR $T198510[ebp]
  00103	ff 25 00 00 00
	00		 jmp	 DWORD PTR __imp_??1?$basic_string@DU?$char_traits@D@std@@V?$allocator@D@2@@std@@QAE@XZ
__ehhandler$?LoadConf@CSysDialog@@UAEXXZ:
  00109	b8 00 00 00 00	 mov	 eax, OFFSET FLAT:$T198516
  0010e	e9 00 00 00 00	 jmp	 ___CxxFrameHandler
text$x	ENDS
?LoadConf@CSysDialog@@UAEXXZ ENDP			; CSysDialog::LoadConf
; Function compile flags: /Odt
_TEXT	SEGMENT
_this$ = -4						; size = 4
?SetDefault@CSysDialog@@UAEXXZ PROC NEAR		; CSysDialog::SetDefault
; _this$ = ecx

; 70   : {

  00530	55		 push	 ebp
  00531	8b ec		 mov	 ebp, esp
  00533	51		 push	 ecx
  00534	89 4d fc	 mov	 DWORD PTR _this$[ebp], ecx

; 71   : 	m_bAutoRun	= TRUE;

  00537	8b 45 fc	 mov	 eax, DWORD PTR _this$[ebp]
  0053a	c7 80 90 00 00
	00 01 00 00 00	 mov	 DWORD PTR [eax+144], 1

; 72   : 	m_minOrExit	= FALSE;

  00544	8b 4d fc	 mov	 ecx, DWORD PTR _this$[ebp]
  00547	c7 81 e8 00 00
	00 00 00 00 00	 mov	 DWORD PTR [ecx+232], 0

; 73   : 	m_noAsk		= FALSE;

  00551	8b 55 fc	 mov	 edx, DWORD PTR _this$[ebp]
  00554	c7 82 ec 00 00
	00 00 00 00 00	 mov	 DWORD PTR [edx+236], 0

; 74   : 	UpdateData( FALSE );

  0055e	6a 00		 push	 0
  00560	8b 4d fc	 mov	 ecx, DWORD PTR _this$[ebp]
  00563	e8 00 00 00 00	 call	 ?UpdateData@CWnd@@QAEHH@Z ; CWnd::UpdateData

; 75   : }

  00568	8b e5		 mov	 esp, ebp
  0056a	5d		 pop	 ebp
  0056b	c3		 ret	 0
?SetDefault@CSysDialog@@UAEXXZ ENDP			; CSysDialog::SetDefault
; Function compile flags: /Odt
_this$ = -4						; size = 4
_strMsg$ = 8						; size = 4
?IsAllInputOK@CSysDialog@@UAE_NAAV?$basic_string@DU?$char_traits@D@std@@V?$allocator@D@2@@std@@@Z PROC NEAR ; CSysDialog::IsAllInputOK
; _this$ = ecx

; 78   : {

  00570	55		 push	 ebp
  00571	8b ec		 mov	 ebp, esp
  00573	51		 push	 ecx
  00574	89 4d fc	 mov	 DWORD PTR _this$[ebp], ecx

; 79   : 	if( UpdateData() == FALSE )

  00577	6a 01		 push	 1
  00579	8b 4d fc	 mov	 ecx, DWORD PTR _this$[ebp]
  0057c	e8 00 00 00 00	 call	 ?UpdateData@CWnd@@QAEHH@Z ; CWnd::UpdateData
  00581	85 c0		 test	 eax, eax
  00583	75 04		 jne	 SHORT $L197973

; 80   : 		return false;

  00585	32 c0		 xor	 al, al
  00587	eb 02		 jmp	 SHORT $L197972
$L197973:

; 81   : 	return true;

  00589	b0 01		 mov	 al, 1
$L197972:

; 82   : }

  0058b	8b e5		 mov	 esp, ebp
  0058d	5d		 pop	 ebp
  0058e	c2 04 00	 ret	 4
?IsAllInputOK@CSysDialog@@UAE_NAAV?$basic_string@DU?$char_traits@D@std@@V?$allocator@D@2@@std@@@Z ENDP ; CSysDialog::IsAllInputOK
_TEXT	ENDS
PUBLIC	?CreateLink@CSysDialog@@AAEJPBD00@Z		; CSysDialog::CreateLink
EXTRN	__imp__CoCreateInstance@20:NEAR
EXTRN	__imp__MultiByteToWideChar@24:NEAR
EXTRN	_IID_IPersistFile:BYTE
EXTRN	_CLSID_ShellLink:BYTE
EXTRN	__imp__CoInitialize@4:NEAR
EXTRN	___security_cookie:DWORD
EXTRN	@__security_check_cookie@4:NEAR
EXTRN	_IID_IShellLinkA:BYTE
; Function compile flags: /Odt
_TEXT	SEGMENT
_this$ = -540						; size = 4
_wsz$197989 = -536					; size = 520
__$ArrayPad$ = -16					; size = 4
_ppf$197985 = -12					; size = 4
_psl$ = -8						; size = 4
_hres$ = -4						; size = 4
__$ReturnAddr$ = 4					; size = 4
_lpszPathObj$ = 8					; size = 4
_lpszPathLink$ = 12					; size = 4
_lpszDesc$ = 16						; size = 4
?CreateLink@CSysDialog@@AAEJPBD00@Z PROC NEAR		; CSysDialog::CreateLink
; _this$ = ecx

; 85   : {

  005a0	55		 push	 ebp
  005a1	8b ec		 mov	 ebp, esp
  005a3	81 ec 1c 02 00
	00		 sub	 esp, 540		; 0000021cH
  005a9	a1 00 00 00 00	 mov	 eax, DWORD PTR ___security_cookie
  005ae	89 45 f0	 mov	 DWORD PTR __$ArrayPad$[ebp], eax
  005b1	89 8d e4 fd ff
	ff		 mov	 DWORD PTR _this$[ebp], ecx

; 86   :     HRESULT hres;
; 87   :     IShellLink* psl;
; 88   : 
; 89   :     hres = CoInitialize(NULL);

  005b7	6a 00		 push	 0
  005b9	ff 15 00 00 00
	00		 call	 DWORD PTR __imp__CoInitialize@4
  005bf	89 45 fc	 mov	 DWORD PTR _hres$[ebp], eax

; 90   :     hres = CoCreateInstance(CLSID_ShellLink, NULL, CLSCTX_INPROC_SERVER, IID_IShellLink, (LPVOID *) &psl);

  005c2	8d 45 f8	 lea	 eax, DWORD PTR _psl$[ebp]
  005c5	50		 push	 eax
  005c6	68 00 00 00 00	 push	 OFFSET FLAT:_IID_IShellLinkA
  005cb	6a 01		 push	 1
  005cd	6a 00		 push	 0
  005cf	68 00 00 00 00	 push	 OFFSET FLAT:_CLSID_ShellLink
  005d4	ff 15 00 00 00
	00		 call	 DWORD PTR __imp__CoCreateInstance@20
  005da	89 45 fc	 mov	 DWORD PTR _hres$[ebp], eax

; 91   :     
; 92   :     if (SUCCEEDED(hres)) {

  005dd	83 7d fc 00	 cmp	 DWORD PTR _hres$[ebp], 0
  005e1	0f 8c 89 00 00
	00		 jl	 $L197984

; 93   :         IPersistFile *ppf;
; 94   : 
; 95   :         psl->SetPath(lpszPathObj);

  005e7	8b 4d 08	 mov	 ecx, DWORD PTR _lpszPathObj$[ebp]
  005ea	51		 push	 ecx
  005eb	8b 55 f8	 mov	 edx, DWORD PTR _psl$[ebp]
  005ee	8b 02		 mov	 eax, DWORD PTR [edx]
  005f0	8b 4d f8	 mov	 ecx, DWORD PTR _psl$[ebp]
  005f3	51		 push	 ecx
  005f4	ff 50 50	 call	 DWORD PTR [eax+80]

; 96   :         psl->SetDescription(lpszDesc);

  005f7	8b 55 10	 mov	 edx, DWORD PTR _lpszDesc$[ebp]
  005fa	52		 push	 edx
  005fb	8b 45 f8	 mov	 eax, DWORD PTR _psl$[ebp]
  005fe	8b 08		 mov	 ecx, DWORD PTR [eax]
  00600	8b 55 f8	 mov	 edx, DWORD PTR _psl$[ebp]
  00603	52		 push	 edx
  00604	ff 51 1c	 call	 DWORD PTR [ecx+28]

; 97   :         hres = psl->QueryInterface(IID_IPersistFile, (void **)&ppf);

  00607	8d 45 f4	 lea	 eax, DWORD PTR _ppf$197985[ebp]
  0060a	50		 push	 eax
  0060b	68 00 00 00 00	 push	 OFFSET FLAT:_IID_IPersistFile
  00610	8b 4d f8	 mov	 ecx, DWORD PTR _psl$[ebp]
  00613	8b 11		 mov	 edx, DWORD PTR [ecx]
  00615	8b 45 f8	 mov	 eax, DWORD PTR _psl$[ebp]
  00618	50		 push	 eax
  00619	ff 12		 call	 DWORD PTR [edx]
  0061b	89 45 fc	 mov	 DWORD PTR _hres$[ebp], eax

; 98   :         if (SUCCEEDED(hres)) {

  0061e	83 7d fc 00	 cmp	 DWORD PTR _hres$[ebp], 0
  00622	7c 40		 jl	 SHORT $L197988

; 99   :             WCHAR wsz[MAX_PATH];
; 100  :             
; 101  :             MultiByteToWideChar(CP_ACP, 0, lpszPathLink, -1, wsz, MAX_PATH);

  00624	68 04 01 00 00	 push	 260			; 00000104H
  00629	8d 8d e8 fd ff
	ff		 lea	 ecx, DWORD PTR _wsz$197989[ebp]
  0062f	51		 push	 ecx
  00630	6a ff		 push	 -1
  00632	8b 55 0c	 mov	 edx, DWORD PTR _lpszPathLink$[ebp]
  00635	52		 push	 edx
  00636	6a 00		 push	 0
  00638	6a 00		 push	 0
  0063a	ff 15 00 00 00
	00		 call	 DWORD PTR __imp__MultiByteToWideChar@24

; 102  :             hres = ppf->Save(wsz, TRUE);

  00640	6a 01		 push	 1
  00642	8d 85 e8 fd ff
	ff		 lea	 eax, DWORD PTR _wsz$197989[ebp]
  00648	50		 push	 eax
  00649	8b 4d f4	 mov	 ecx, DWORD PTR _ppf$197985[ebp]
  0064c	8b 11		 mov	 edx, DWORD PTR [ecx]
  0064e	8b 45 f4	 mov	 eax, DWORD PTR _ppf$197985[ebp]
  00651	50		 push	 eax
  00652	ff 52 18	 call	 DWORD PTR [edx+24]
  00655	89 45 fc	 mov	 DWORD PTR _hres$[ebp], eax

; 103  :             ppf->Release();

  00658	8b 4d f4	 mov	 ecx, DWORD PTR _ppf$197985[ebp]
  0065b	8b 11		 mov	 edx, DWORD PTR [ecx]
  0065d	8b 45 f4	 mov	 eax, DWORD PTR _ppf$197985[ebp]
  00660	50		 push	 eax
  00661	ff 52 08	 call	 DWORD PTR [edx+8]
$L197988:

; 104  :         }
; 105  :         psl->Release();

  00664	8b 4d f8	 mov	 ecx, DWORD PTR _psl$[ebp]
  00667	8b 11		 mov	 edx, DWORD PTR [ecx]
  00669	8b 45 f8	 mov	 eax, DWORD PTR _psl$[ebp]
  0066c	50		 push	 eax
  0066d	ff 52 08	 call	 DWORD PTR [edx+8]
$L197984:

; 106  :     }
; 107  :     return hres;

  00670	8b 45 fc	 mov	 eax, DWORD PTR _hres$[ebp]

; 108  : }

  00673	8b 4d f0	 mov	 ecx, DWORD PTR __$ArrayPad$[ebp]
  00676	e8 00 00 00 00	 call	 @__security_check_cookie@4
  0067b	8b e5		 mov	 esp, ebp
  0067d	5d		 pop	 ebp
  0067e	c2 0c 00	 ret	 12			; 0000000cH
?CreateLink@CSysDialog@@AAEJPBD00@Z ENDP		; CSysDialog::CreateLink
; Function compile flags: /Odt
_this$ = -4						; size = 4
?OnBnClickedRadMin@CSysDialog@@IAEXXZ PROC NEAR		; CSysDialog::OnBnClickedRadMin
; _this$ = ecx

; 111  : {

  00690	55		 push	 ebp
  00691	8b ec		 mov	 ebp, esp
  00693	51		 push	 ecx
  00694	89 4d fc	 mov	 DWORD PTR _this$[ebp], ecx

; 112  : 	SthChanged();

  00697	8b 45 fc	 mov	 eax, DWORD PTR _this$[ebp]
  0069a	8b 10		 mov	 edx, DWORD PTR [eax]
  0069c	8b 4d fc	 mov	 ecx, DWORD PTR _this$[ebp]
  0069f	ff 92 60 01 00
	00		 call	 DWORD PTR [edx+352]

; 113  : }

  006a5	8b e5		 mov	 esp, ebp
  006a7	5d		 pop	 ebp
  006a8	c3		 ret	 0
?OnBnClickedRadMin@CSysDialog@@IAEXXZ ENDP		; CSysDialog::OnBnClickedRadMin
; Function compile flags: /Odt
_this$ = -4						; size = 4
?OnBnClickedRadExit@CSysDialog@@IAEXXZ PROC NEAR	; CSysDialog::OnBnClickedRadExit
; _this$ = ecx

; 116  : {

  006b0	55		 push	 ebp
  006b1	8b ec		 mov	 ebp, esp
  006b3	51		 push	 ecx
  006b4	89 4d fc	 mov	 DWORD PTR _this$[ebp], ecx

; 117  : 	SthChanged();

  006b7	8b 45 fc	 mov	 eax, DWORD PTR _this$[ebp]
  006ba	8b 10		 mov	 edx, DWORD PTR [eax]
  006bc	8b 4d fc	 mov	 ecx, DWORD PTR _this$[ebp]
  006bf	ff 92 60 01 00
	00		 call	 DWORD PTR [edx+352]

; 118  : }

  006c5	8b e5		 mov	 esp, ebp
  006c7	5d		 pop	 ebp
  006c8	c3		 ret	 0
?OnBnClickedRadExit@CSysDialog@@IAEXXZ ENDP		; CSysDialog::OnBnClickedRadExit
; Function compile flags: /Odt
_this$ = -4						; size = 4
?OnBnClickedChkNoask@CSysDialog@@IAEXXZ PROC NEAR	; CSysDialog::OnBnClickedChkNoask
; _this$ = ecx

; 121  : {

  006d0	55		 push	 ebp
  006d1	8b ec		 mov	 ebp, esp
  006d3	51		 push	 ecx
  006d4	89 4d fc	 mov	 DWORD PTR _this$[ebp], ecx

; 122  : 	SthChanged();

  006d7	8b 45 fc	 mov	 eax, DWORD PTR _this$[ebp]
  006da	8b 10		 mov	 edx, DWORD PTR [eax]
  006dc	8b 4d fc	 mov	 ecx, DWORD PTR _this$[ebp]
  006df	ff 92 60 01 00
	00		 call	 DWORD PTR [edx+352]

; 123  : }

  006e5	8b e5		 mov	 esp, ebp
  006e7	5d		 pop	 ebp
  006e8	c3		 ret	 0
?OnBnClickedChkNoask@CSysDialog@@IAEXXZ ENDP		; CSysDialog::OnBnClickedChkNoask
; Function compile flags: /Odt
_this$ = -4						; size = 4
?OnBnClickedCheckAutoRun@CSysDialog@@IAEXXZ PROC NEAR	; CSysDialog::OnBnClickedCheckAutoRun
; _this$ = ecx

; 126  : {

  006f0	55		 push	 ebp
  006f1	8b ec		 mov	 ebp, esp
  006f3	51		 push	 ecx
  006f4	89 4d fc	 mov	 DWORD PTR _this$[ebp], ecx

; 127  : 	SthChanged();

  006f7	8b 45 fc	 mov	 eax, DWORD PTR _this$[ebp]
  006fa	8b 10		 mov	 edx, DWORD PTR [eax]
  006fc	8b 4d fc	 mov	 ecx, DWORD PTR _this$[ebp]
  006ff	ff 92 60 01 00
	00		 call	 DWORD PTR [edx+352]

; 128  : }

  00705	8b e5		 mov	 esp, ebp
  00707	5d		 pop	 ebp
  00708	c3		 ret	 0
?OnBnClickedCheckAutoRun@CSysDialog@@IAEXXZ ENDP	; CSysDialog::OnBnClickedCheckAutoRun
; Function compile flags: /Odt
; File d:\program files (x86)\microsoft visual studio .net 2003\vc7\atlmfc\include\afx.inl
_TEXT	ENDS
;	COMDAT ?Serialize@CObject@@UAEXAAVCArchive@@@Z
_TEXT	SEGMENT
_this$ = -4						; size = 4
___formal$ = 8						; size = 4
?Serialize@CObject@@UAEXAAVCArchive@@@Z PROC NEAR	; CObject::Serialize, COMDAT
; _this$ = ecx

; 25   : 	{ /* CObject does not serialize anything by default */ }

  00000	55		 push	 ebp
  00001	8b ec		 mov	 ebp, esp
  00003	51		 push	 ecx
  00004	89 4d fc	 mov	 DWORD PTR _this$[ebp], ecx
  00007	8b e5		 mov	 esp, ebp
  00009	5d		 pop	 ebp
  0000a	c2 04 00	 ret	 4
?Serialize@CObject@@UAEXAAVCArchive@@@Z ENDP		; CObject::Serialize
_TEXT	ENDS
EXTRN	??3@YAXPAX@Z:NEAR				; operator delete
; Function compile flags: /Odt
;	COMDAT ??3CObject@@SGXPAX@Z
_TEXT	SEGMENT
_p$ = 8							; size = 4
??3CObject@@SGXPAX@Z PROC NEAR				; CObject::operator delete, COMDAT

; 31   : 	{ ::operator delete(p); }

  00000	55		 push	 ebp
  00001	8b ec		 mov	 ebp, esp
  00003	8b 45 08	 mov	 eax, DWORD PTR _p$[ebp]
  00006	50		 push	 eax
  00007	e8 00 00 00 00	 call	 ??3@YAXPAX@Z		; operator delete
  0000c	83 c4 04	 add	 esp, 4
  0000f	5d		 pop	 ebp
  00010	c2 04 00	 ret	 4
??3CObject@@SGXPAX@Z ENDP				; CObject::operator delete
; Function compile flags: /Odt
_TEXT	ENDS
;	COMDAT ?AssertValid@CObject@@UBEXXZ
_TEXT	SEGMENT
_this$ = -4						; size = 4
?AssertValid@CObject@@UBEXXZ PROC NEAR			; CObject::AssertValid, COMDAT
; _this$ = ecx

; 41   : 	{ /* no asserts in release builds */ }

  00000	55		 push	 ebp
  00001	8b ec		 mov	 ebp, esp
  00003	51		 push	 ecx
  00004	89 4d fc	 mov	 DWORD PTR _this$[ebp], ecx
  00007	8b e5		 mov	 esp, ebp
  00009	5d		 pop	 ebp
  0000a	c3		 ret	 0
?AssertValid@CObject@@UBEXXZ ENDP			; CObject::AssertValid
; Function compile flags: /Odt
_TEXT	ENDS
;	COMDAT ?Dump@CObject@@UBEXAAVCDumpContext@@@Z
_TEXT	SEGMENT
_this$ = -4						; size = 4
___formal$ = 8						; size = 4
?Dump@CObject@@UBEXAAVCDumpContext@@@Z PROC NEAR	; CObject::Dump, COMDAT
; _this$ = ecx

; 43   : 	{ /* no dumping in release builds */ }

  00000	55		 push	 ebp
  00001	8b ec		 mov	 ebp, esp
  00003	51		 push	 ecx
  00004	89 4d fc	 mov	 DWORD PTR _this$[ebp], ecx
  00007	8b e5		 mov	 esp, ebp
  00009	5d		 pop	 ebp
  0000a	c2 04 00	 ret	 4
?Dump@CObject@@UBEXAAVCDumpContext@@@Z ENDP		; CObject::Dump
; Function compile flags: /Odt
; File d:\program files (x86)\microsoft visual studio .net 2003\vc7\atlmfc\include\afxwin2.inl
_TEXT	ENDS
;	COMDAT ?DoDataExchange@CWnd@@MAEXPAVCDataExchange@@@Z
_TEXT	SEGMENT
_this$ = -4						; size = 4
___formal$ = 8						; size = 4
?DoDataExchange@CWnd@@MAEXPAVCDataExchange@@@Z PROC NEAR ; CWnd::DoDataExchange, COMDAT
; _this$ = ecx

; 545  : 	{ } // default does nothing

  00000	55		 push	 ebp
  00001	8b ec		 mov	 ebp, esp
  00003	51		 push	 ecx
  00004	89 4d fc	 mov	 DWORD PTR _this$[ebp], ecx
  00007	8b e5		 mov	 esp, ebp
  00009	5d		 pop	 ebp
  0000a	c2 04 00	 ret	 4
?DoDataExchange@CWnd@@MAEXPAVCDataExchange@@@Z ENDP	; CWnd::DoDataExchange
_TEXT	ENDS
EXTRN	__imp__EnableWindow@8:NEAR
; Function compile flags: /Odt
;	COMDAT ?BeginModalState@CWnd@@UAEXXZ
_TEXT	SEGMENT
_this$ = -4						; size = 4
?BeginModalState@CWnd@@UAEXXZ PROC NEAR			; CWnd::BeginModalState, COMDAT
; _this$ = ecx

; 549  : 	{ ::EnableWindow(m_hWnd, FALSE); }

  00000	55		 push	 ebp
  00001	8b ec		 mov	 ebp, esp
  00003	51		 push	 ecx
  00004	89 4d fc	 mov	 DWORD PTR _this$[ebp], ecx
  00007	6a 00		 push	 0
  00009	8b 45 fc	 mov	 eax, DWORD PTR _this$[ebp]
  0000c	8b 48 20	 mov	 ecx, DWORD PTR [eax+32]
  0000f	51		 push	 ecx
  00010	ff 15 00 00 00
	00		 call	 DWORD PTR __imp__EnableWindow@8
  00016	8b e5		 mov	 esp, ebp
  00018	5d		 pop	 ebp
  00019	c3		 ret	 0
?BeginModalState@CWnd@@UAEXXZ ENDP			; CWnd::BeginModalState
; Function compile flags: /Odt
_TEXT	ENDS
;	COMDAT ?EndModalState@CWnd@@UAEXXZ
_TEXT	SEGMENT
_this$ = -4						; size = 4
?EndModalState@CWnd@@UAEXXZ PROC NEAR			; CWnd::EndModalState, COMDAT
; _this$ = ecx

; 551  : 	{ ::EnableWindow(m_hWnd, TRUE); }

  00000	55		 push	 ebp
  00001	8b ec		 mov	 ebp, esp
  00003	51		 push	 ecx
  00004	89 4d fc	 mov	 DWORD PTR _this$[ebp], ecx
  00007	6a 01		 push	 1
  00009	8b 45 fc	 mov	 eax, DWORD PTR _this$[ebp]
  0000c	8b 48 20	 mov	 ecx, DWORD PTR [eax+32]
  0000f	51		 push	 ecx
  00010	ff 15 00 00 00
	00		 call	 DWORD PTR __imp__EnableWindow@8
  00016	8b e5		 mov	 esp, ebp
  00018	5d		 pop	 ebp
  00019	c3		 ret	 0
?EndModalState@CWnd@@UAEXXZ ENDP			; CWnd::EndModalState
; Function compile flags: /Odt
_TEXT	ENDS
;	COMDAT ?Create@CDialog@@UAEHIPAVCWnd@@@Z
_TEXT	SEGMENT
_this$ = -4						; size = 4
_nIDTemplate$ = 8					; size = 4
_pParentWnd$ = 12					; size = 4
?Create@CDialog@@UAEHIPAVCWnd@@@Z PROC NEAR		; CDialog::Create, COMDAT
; _this$ = ecx

; 569  : 	{ return Create(MAKEINTRESOURCE(nIDTemplate), pParentWnd); }

  00000	55		 push	 ebp
  00001	8b ec		 mov	 ebp, esp
  00003	51		 push	 ecx
  00004	89 4d fc	 mov	 DWORD PTR _this$[ebp], ecx
  00007	8b 45 0c	 mov	 eax, DWORD PTR _pParentWnd$[ebp]
  0000a	50		 push	 eax
  0000b	0f b7 4d 08	 movzx	 ecx, WORD PTR _nIDTemplate$[ebp]
  0000f	51		 push	 ecx
  00010	8b 55 fc	 mov	 edx, DWORD PTR _this$[ebp]
  00013	8b 02		 mov	 eax, DWORD PTR [edx]
  00015	8b 4d fc	 mov	 ecx, DWORD PTR _this$[ebp]
  00018	ff 90 3c 01 00
	00		 call	 DWORD PTR [eax+316]
  0001e	8b e5		 mov	 esp, ebp
  00020	5d		 pop	 ebp
  00021	c2 08 00	 ret	 8
?Create@CDialog@@UAEHIPAVCWnd@@@Z ENDP			; CDialog::Create
_TEXT	ENDS
CRT$XCU	SEGMENT
_$S6	DD	FLAT:_$E5
; Function compile flags: /Odt
; File d:\boxgit\playbox\playbox\dev\prj\playbox\src\appconfig\config\configsettingdef.h
CRT$XCU	ENDS
;	COMDAT _$E5
text$yc	SEGMENT
_$E5	PROC NEAR					; COMDAT

; 25   : 	CONF_SETTING_SKIN_IDX,				TYPE_CONFIG_STR,

  00000	55		 push	 ebp
  00001	8b ec		 mov	 ebp, esp
  00003	a1 00 00 00 00	 mov	 eax, DWORD PTR _CONF_SETTING_SKIN_IDX
  00008	a3 00 00 00 00	 mov	 DWORD PTR _CONF_SETTING, eax
  0000d	8b 0d 00 00 00
	00		 mov	 ecx, DWORD PTR _TYPE_CONFIG_STR
  00013	89 0d 04 00 00
	00		 mov	 DWORD PTR _CONF_SETTING+4, ecx

; 26   : 	CONF_SETTING_CONFIG_MAIN_PAGE,		TYPE_CONFIG_STR,

  00019	8b 15 00 00 00
	00		 mov	 edx, DWORD PTR _CONF_SETTING_CONFIG_MAIN_PAGE
  0001f	89 15 08 00 00
	00		 mov	 DWORD PTR _CONF_SETTING+8, edx
  00025	a1 00 00 00 00	 mov	 eax, DWORD PTR _TYPE_CONFIG_STR
  0002a	a3 0c 00 00 00	 mov	 DWORD PTR _CONF_SETTING+12, eax

; 27   : 	CONF_SETTING_CONFIG_PROBLEM_REPORT,	TYPE_CONFIG_STR,

  0002f	8b 0d 00 00 00
	00		 mov	 ecx, DWORD PTR _CONF_SETTING_CONFIG_PROBLEM_REPORT
  00035	89 0d 10 00 00
	00		 mov	 DWORD PTR _CONF_SETTING+16, ecx
  0003b	8b 15 00 00 00
	00		 mov	 edx, DWORD PTR _TYPE_CONFIG_STR
  00041	89 15 14 00 00
	00		 mov	 DWORD PTR _CONF_SETTING+20, edx

; 28   : 	CONF_SETTING_CONFIG_HOME_PAGE,		TYPE_CONFIG_STR,

  00047	a1 00 00 00 00	 mov	 eax, DWORD PTR _CONF_SETTING_CONFIG_HOME_PAGE
  0004c	a3 18 00 00 00	 mov	 DWORD PTR _CONF_SETTING+24, eax
  00051	8b 0d 00 00 00
	00		 mov	 ecx, DWORD PTR _TYPE_CONFIG_STR
  00057	89 0d 1c 00 00
	00		 mov	 DWORD PTR _CONF_SETTING+28, ecx

; 29   : 	CONF_SETTING_CONFIG_IFASKEXIT,		TYPE_CONFIG_BOOL,

  0005d	8b 15 00 00 00
	00		 mov	 edx, DWORD PTR _CONF_SETTING_CONFIG_IFASKEXIT
  00063	89 15 20 00 00
	00		 mov	 DWORD PTR _CONF_SETTING+32, edx
  00069	a1 00 00 00 00	 mov	 eax, DWORD PTR _TYPE_CONFIG_BOOL
  0006e	a3 24 00 00 00	 mov	 DWORD PTR _CONF_SETTING+36, eax

; 30   : 	CONF_SETTING_CONFIG_EXITCHOICE,		TYPE_CONFIG_BOOL,

  00073	8b 0d 00 00 00
	00		 mov	 ecx, DWORD PTR _CONF_SETTING_CONFIG_EXITCHOICE
  00079	89 0d 28 00 00
	00		 mov	 DWORD PTR _CONF_SETTING+40, ecx
  0007f	8b 15 00 00 00
	00		 mov	 edx, DWORD PTR _TYPE_CONFIG_BOOL
  00085	89 15 2c 00 00
	00		 mov	 DWORD PTR _CONF_SETTING+44, edx

; 31   : 	CONF_SETTING_LOGIN_USER_NAME,		TYPE_CONFIG_STR,

  0008b	a1 00 00 00 00	 mov	 eax, DWORD PTR _CONF_SETTING_LOGIN_USER_NAME
  00090	a3 30 00 00 00	 mov	 DWORD PTR _CONF_SETTING+48, eax
  00095	8b 0d 00 00 00
	00		 mov	 ecx, DWORD PTR _TYPE_CONFIG_STR
  0009b	89 0d 34 00 00
	00		 mov	 DWORD PTR _CONF_SETTING+52, ecx

; 32   : 	CONF_SETTING_LOGIN_PASSWORD,		TYPE_CONFIG_STR,

  000a1	8b 15 00 00 00
	00		 mov	 edx, DWORD PTR _CONF_SETTING_LOGIN_PASSWORD
  000a7	89 15 38 00 00
	00		 mov	 DWORD PTR _CONF_SETTING+56, edx
  000ad	a1 00 00 00 00	 mov	 eax, DWORD PTR _TYPE_CONFIG_STR
  000b2	a3 3c 00 00 00	 mov	 DWORD PTR _CONF_SETTING+60, eax

; 33   : 	CONF_SETTING_NETID,					TYPE_CONFIG_STR,

  000b7	8b 0d 00 00 00
	00		 mov	 ecx, DWORD PTR _CONF_SETTING_NETID
  000bd	89 0d 40 00 00
	00		 mov	 DWORD PTR _CONF_SETTING+64, ecx
  000c3	8b 15 00 00 00
	00		 mov	 edx, DWORD PTR _TYPE_CONFIG_STR
  000c9	89 15 44 00 00
	00		 mov	 DWORD PTR _CONF_SETTING+68, edx

; 34   : 	CONF_SETTING_COLOR,					TYPE_CONFIG_INT,

  000cf	a1 00 00 00 00	 mov	 eax, DWORD PTR _CONF_SETTING_COLOR
  000d4	a3 48 00 00 00	 mov	 DWORD PTR _CONF_SETTING+72, eax
  000d9	8b 0d 00 00 00
	00		 mov	 ecx, DWORD PTR _TYPE_CONFIG_INT
  000df	89 0d 4c 00 00
	00		 mov	 DWORD PTR _CONF_SETTING+76, ecx

; 35   : 	CONF_SETTING_LIGHT,					TYPE_CONFIG_INT,

  000e5	8b 15 00 00 00
	00		 mov	 edx, DWORD PTR _CONF_SETTING_LIGHT
  000eb	89 15 50 00 00
	00		 mov	 DWORD PTR _CONF_SETTING+80, edx
  000f1	a1 00 00 00 00	 mov	 eax, DWORD PTR _TYPE_CONFIG_INT
  000f6	a3 54 00 00 00	 mov	 DWORD PTR _CONF_SETTING+84, eax

; 36   : 	CONF_SETTING_COLOR_BTN_INDEX,		TYPE_CONFIG_INT,

  000fb	8b 0d 00 00 00
	00		 mov	 ecx, DWORD PTR _CONF_SETTING_COLOR_BTN_INDEX
  00101	89 0d 58 00 00
	00		 mov	 DWORD PTR _CONF_SETTING+88, ecx
  00107	8b 15 00 00 00
	00		 mov	 edx, DWORD PTR _TYPE_CONFIG_INT
  0010d	89 15 5c 00 00
	00		 mov	 DWORD PTR _CONF_SETTING+92, edx

; 37   : 	CONF_SETTING_COLOR_USER,			TYPE_CONFIG_INT,

  00113	a1 00 00 00 00	 mov	 eax, DWORD PTR _CONF_SETTING_COLOR_USER
  00118	a3 60 00 00 00	 mov	 DWORD PTR _CONF_SETTING+96, eax
  0011d	8b 0d 00 00 00
	00		 mov	 ecx, DWORD PTR _TYPE_CONFIG_INT
  00123	89 0d 64 00 00
	00		 mov	 DWORD PTR _CONF_SETTING+100, ecx

; 38   : 	CONF_SETTING_FIRST_TIME_CHANGESKIN, TYPE_CONFIG_BOOL

  00129	8b 15 00 00 00
	00		 mov	 edx, DWORD PTR _CONF_SETTING_FIRST_TIME_CHANGESKIN
  0012f	89 15 68 00 00
	00		 mov	 DWORD PTR _CONF_SETTING+104, edx

; 39   : };

  00135	a1 00 00 00 00	 mov	 eax, DWORD PTR _TYPE_CONFIG_BOOL
  0013a	a3 6c 00 00 00	 mov	 DWORD PTR _CONF_SETTING+108, eax
  0013f	5d		 pop	 ebp
  00140	c3		 ret	 0
_$E5	ENDP
text$yc	ENDS
_BSS	SEGMENT
_CONF_SETTING DD 01cH DUP (?)
_BSS	ENDS
END
