; Listing generated by Microsoft (R) Optimizing Compiler Version 13.10.3077 

	TITLE	.\src\LayoutMgr\ETSLayoutEx.cpp
	.386P
include listing.inc
if @Version gt 510
.model FLAT
else
_TEXT	SEGMENT PARA USE32 PUBLIC 'CODE'
_TEXT	ENDS
_DATA	SEGMENT DWORD USE32 PUBLIC 'DATA'
_DATA	ENDS
CONST	SEGMENT DWORD USE32 PUBLIC 'CONST'
CONST	ENDS
_BSS	SEGMENT DWORD USE32 PUBLIC 'BSS'
_BSS	ENDS
$$SYMBOLS	SEGMENT BYTE USE32 'DEBSYM'
$$SYMBOLS	ENDS
$$TYPES	SEGMENT BYTE USE32 'DEBTYP'
$$TYPES	ENDS
_TLS	SEGMENT DWORD USE32 PUBLIC 'TLS'
_TLS	ENDS
;	COMDAT ??_C@_02PGHGPEOM@?91?$AA@
CONST	SEGMENT DWORD USE32 PUBLIC 'CONST'
CONST	ENDS
;	COMDAT ??_C@_04JAADICNI@?5?$DN?1?$FL?$AA@
CONST	SEGMENT DWORD USE32 PUBLIC 'CONST'
CONST	ENDS
;	COMDAT ??_C@_0L@GJIJNDEK@ISO?98859?91?$AA@
CONST	SEGMENT DWORD USE32 PUBLIC 'CONST'
CONST	ENDS
;	COMDAT ??_C@_01JLIPDDHJ@?3?$AA@
CONST	SEGMENT DWORD USE32 PUBLIC 'CONST'
CONST	ENDS
;	COMDAT ??_C@_04LJDDIHIK@?4bmp?$AA@
CONST	SEGMENT DWORD USE32 PUBLIC 'CONST'
CONST	ENDS
;	COMDAT ??_C@_0BE@JONHPENG@map?1set?$DMT?$DO?5too?5long?$AA@
CONST	SEGMENT DWORD USE32 PUBLIC 'CONST'
CONST	ENDS
rdata$r	SEGMENT DWORD USE32 PUBLIC 'CONST'
rdata$r	ENDS
xdata$x	SEGMENT DWORD USE32 PUBLIC 'CONST'
xdata$x	ENDS
text$AFX_COL1	SEGMENT PARA USE32 PUBLIC ''
text$AFX_COL1	ENDS
text$yc	SEGMENT PARA USE32 PUBLIC 'CODE'
text$yc	ENDS
CRT$XCA	SEGMENT DWORD USE32 PUBLIC 'DATA'
CRT$XCA	ENDS
CRT$XCU	SEGMENT DWORD USE32 PUBLIC 'DATA'
CRT$XCU	ENDS
CRT$XCL	SEGMENT DWORD USE32 PUBLIC 'DATA'
CRT$XCL	ENDS
CRT$XCC	SEGMENT DWORD USE32 PUBLIC 'DATA'
CRT$XCC	ENDS
CRT$XCZ	SEGMENT DWORD USE32 PUBLIC 'DATA'
CRT$XCZ	ENDS
text$yd	SEGMENT PARA USE32 PUBLIC 'CODE'
text$yd	ENDS
ATL$__m	SEGMENT DWORD USE32 PUBLIC ''
ATL$__m	ENDS
ATL$__z	SEGMENT DWORD USE32 PUBLIC ''
ATL$__z	ENDS
ATL$__a	SEGMENT DWORD USE32 PUBLIC ''
ATL$__a	ENDS
;	COMDAT ?GetSubPane@PaneBase@ETSLayoutMgr@@UAE?AVCPaneBase@2@V?$CStringT@DV?$StrTraitMFC_DLL@DV?$ChTraitsCRT@D@ATL@@@@@ATL@@@Z
_TEXT	SEGMENT PARA USE32 PUBLIC 'CODE'
_TEXT	ENDS
;	COMDAT ??1PaneBase@ETSLayoutMgr@@UAE@XZ
_TEXT	SEGMENT PARA USE32 PUBLIC 'CODE'
_TEXT	ENDS
;	COMDAT ?modeResize@PaneBase@ETSLayoutMgr@@QAEKXZ
_TEXT	SEGMENT PARA USE32 PUBLIC 'CODE'
_TEXT	ENDS
;	COMDAT ?getPaneRect@PaneBase@ETSLayoutMgr@@QAE?AVCRect@@XZ
_TEXT	SEGMENT PARA USE32 PUBLIC 'CODE'
_TEXT	ENDS
;	COMDAT ?GetName@PaneBase@ETSLayoutMgr@@QAE?AV?$CStringT@DV?$StrTraitMFC_DLL@DV?$ChTraitsCRT@D@ATL@@@@@ATL@@XZ
_TEXT	SEGMENT PARA USE32 PUBLIC 'CODE'
_TEXT	ENDS
;	COMDAT ?showPane@PaneBase@ETSLayoutMgr@@UAEX_N@Z
_TEXT	SEGMENT PARA USE32 PUBLIC 'CODE'
_TEXT	ENDS
;	COMDAT ?GetPaneBase@CPaneBase@ETSLayoutMgr@@QAEPAVPaneBase@2@XZ
_TEXT	SEGMENT PARA USE32 PUBLIC 'CODE'
_TEXT	ENDS
;	COMDAT ?IsValid@CPaneBase@ETSLayoutMgr@@QAE_NXZ
_TEXT	SEGMENT PARA USE32 PUBLIC 'CODE'
_TEXT	ENDS
;	COMDAT ?GetPane@CPane@ETSLayoutMgr@@QAEPAVPane@2@XZ
_TEXT	SEGMENT PARA USE32 PUBLIC 'CODE'
_TEXT	ENDS
;	COMDAT ?GetRect@ETSLayoutMgr@@UAE?AVCRect@@XZ
_TEXT	SEGMENT PARA USE32 PUBLIC 'CODE'
_TEXT	ENDS
;	COMDAT ?UpdateLayout@ETSLayoutMgr@@UAEXVCPane@1@@Z
_TEXT	SEGMENT PARA USE32 PUBLIC 'CODE'
_TEXT	ENDS
;	COMDAT ??_GPaneBase@ETSLayoutMgr@@UAEPAXI@Z
_TEXT	SEGMENT PARA USE32 PUBLIC 'CODE'
_TEXT	ENDS
;	COMDAT ??_GETSLayoutMgr@@UAEPAXI@Z
_TEXT	SEGMENT PARA USE32 PUBLIC 'CODE'
_TEXT	ENDS
;	COMDAT ??0CMarkup@@QAE@XZ
_TEXT	SEGMENT PARA USE32 PUBLIC 'CODE'
_TEXT	ENDS
;	COMDAT ??1CMarkup@@UAE@XZ
_TEXT	SEGMENT PARA USE32 PUBLIC 'CODE'
_TEXT	ENDS
;	COMDAT ?AddElem@CMarkup@@QAE_NPBD0@Z
_TEXT	SEGMENT PARA USE32 PUBLIC 'CODE'
_TEXT	ENDS
;	COMDAT ?AddChildElem@CMarkup@@QAE_NPBD0@Z
_TEXT	SEGMENT PARA USE32 PUBLIC 'CODE'
_TEXT	ENDS
;	COMDAT ??0ElemPos@CMarkup@@QAE@XZ
_TEXT	SEGMENT PARA USE32 PUBLIC 'CODE'
_TEXT	ENDS
;	COMDAT ?Clear@ElemPos@CMarkup@@QAEXXZ
_TEXT	SEGMENT PARA USE32 PUBLIC 'CODE'
_TEXT	ENDS
;	COMDAT ?Clear@TokenPos@CMarkup@@QAEXXZ
_TEXT	SEGMENT PARA USE32 PUBLIC 'CODE'
_TEXT	ENDS
;	COMDAT ?x_SetPos@CMarkup@@IAEXHHH@Z
_TEXT	SEGMENT PARA USE32 PUBLIC 'CODE'
_TEXT	ENDS
;	COMDAT ??_GCMarkup@@UAEPAXI@Z
_TEXT	SEGMENT PARA USE32 PUBLIC 'CODE'
_TEXT	ENDS
;	COMDAT ?AddElem@CMarkupArchive@@UAE_NPBD0@Z
_TEXT	SEGMENT PARA USE32 PUBLIC 'CODE'
_TEXT	ENDS
;	COMDAT ?AddChildElem@CMarkupArchive@@UAE_NPBD0@Z
_TEXT	SEGMENT PARA USE32 PUBLIC 'CODE'
_TEXT	ENDS
;	COMDAT ?FindElem@CMarkupArchive@@UAE_NPBD@Z
_TEXT	SEGMENT PARA USE32 PUBLIC 'CODE'
_TEXT	ENDS
;	COMDAT ?FindChildElem@CMarkupArchive@@UAE_NPBD@Z
_TEXT	SEGMENT PARA USE32 PUBLIC 'CODE'
_TEXT	ENDS
;	COMDAT ??_GCMarkupArchive@@UAEPAXI@Z
_TEXT	SEGMENT PARA USE32 PUBLIC 'CODE'
_TEXT	ENDS
;	COMDAT ??1?$pair@$$CBV?$CStringT@DV?$StrTraitMFC_DLL@DV?$ChTraitsCRT@D@ATL@@@@@ATL@@PAVCDibBitmap@@@std@@QAE@XZ
_TEXT	SEGMENT PARA USE32 PUBLIC 'CODE'
_TEXT	ENDS
;	COMDAT ??_GPaneSplitter@ETSLayoutMgr@@UAEPAXI@Z
_TEXT	SEGMENT PARA USE32 PUBLIC 'CODE'
_TEXT	ENDS
;	COMDAT ??1PaneSplitter@ETSLayoutMgr@@UAE@XZ
_TEXT	SEGMENT PARA USE32 PUBLIC 'CODE'
_TEXT	ENDS
;	COMDAT ??1CPaneMulti@ETSLayoutMgr@@QAE@XZ
_TEXT	SEGMENT PARA USE32 PUBLIC 'CODE'
_TEXT	ENDS
;	COMDAT ??1CPanePosition@ETSLayoutMgr@@QAE@XZ
_TEXT	SEGMENT PARA USE32 PUBLIC 'CODE'
_TEXT	ENDS
;	COMDAT ??_GPanePosition@ETSLayoutMgr@@UAEPAXI@Z
_TEXT	SEGMENT PARA USE32 PUBLIC 'CODE'
_TEXT	ENDS
;	COMDAT ??1PanePosition@ETSLayoutMgr@@UAE@XZ
_TEXT	SEGMENT PARA USE32 PUBLIC 'CODE'
_TEXT	ENDS
;	COMDAT ??HATL@@YA?AV?$CStringT@DV?$StrTraitMFC_DLL@DV?$ChTraitsCRT@D@ATL@@@@@0@ABV10@0@Z
_TEXT	SEGMENT PARA USE32 PUBLIC 'CODE'
_TEXT	ENDS
;	COMDAT ??HATL@@YA?AV?$CStringT@DV?$StrTraitMFC_DLL@DV?$ChTraitsCRT@D@ATL@@@@@0@ABV10@PBD@Z
_TEXT	SEGMENT PARA USE32 PUBLIC 'CODE'
_TEXT	ENDS
;	COMDAT ??8ATL@@YA_NABV?$CStringT@DV?$StrTraitMFC_DLL@DV?$ChTraitsCRT@D@ATL@@@@@0@PBD@Z
_TEXT	SEGMENT PARA USE32 PUBLIC 'CODE'
_TEXT	ENDS
;	COMDAT ??B?$CComPtrBase@UITypeInfo2@@@ATL@@QBEPAUITypeInfo2@@XZ
_TEXT	SEGMENT PARA USE32 PUBLIC 'CODE'
_TEXT	ENDS
;	COMDAT ?equal@?$istreambuf_iterator@DU?$char_traits@D@std@@@std@@QBE_NABV12@@Z
_TEXT	SEGMENT PARA USE32 PUBLIC 'CODE'
_TEXT	ENDS
;	COMDAT ?equal@?$istreambuf_iterator@_WU?$char_traits@_W@std@@@std@@QBE_NABV12@@Z
_TEXT	SEGMENT PARA USE32 PUBLIC 'CODE'
_TEXT	ENDS
;	COMDAT ?insert@?$_Tree@V?$_Tmap_traits@V?$CStringT@DV?$StrTraitMFC_DLL@DV?$ChTraitsCRT@D@ATL@@@@@ATL@@PAVCDibBitmap@@U?$less@V?$CStringT@DV?$StrTraitMFC_DLL@DV?$ChTraitsCRT@D@ATL@@@@@ATL@@@std@@V?$allocator@U?$pair@$$CBV?$CStringT@DV?$StrTraitMFC_DLL@DV?$ChTraitsCRT@D@ATL@@@@@ATL@@PAVCDibBitmap@@@std@@@5@$0A@@std@@@std@@QAE?AU?$pair@Viterator@?$_Tree@V?$_Tmap_traits@V?$CStringT@DV?$StrTraitMFC_DLL@DV?$ChTraitsCRT@D@ATL@@@@@ATL@@PAVCDibBitmap@@U?$less@V?$CStringT@DV?$StrTraitMFC_DLL@DV?$ChTraitsCRT@D@ATL@@@@@ATL@@@std@@V?$allocator@U?$pair@$$CBV?$CStringT@DV?$StrTraitMFC_DLL@DV?$ChTraitsCRT@D@ATL@@@@@ATL@@PAVCDibBitmap@@@std@@@5@$0A@@std@@@std@@_N@2@ABU?$pair@$$CBV?$CStringT@DV?$StrTraitMFC_DLL@DV?$ChTraitsCRT@D@ATL@@@@@ATL@@PAVCDibBitmap@@@2@@Z
_TEXT	SEGMENT PARA USE32 PUBLIC 'CODE'
_TEXT	ENDS
;	COMDAT ??0?$pair@$$CBV?$CStringT@DV?$StrTraitMFC_DLL@DV?$ChTraitsCRT@D@ATL@@@@@ATL@@PAVCDibBitmap@@@std@@QAE@ABV?$CStringT@DV?$StrTraitMFC_DLL@DV?$ChTraitsCRT@D@ATL@@@@@ATL@@ABQAVCDibBitmap@@@Z
_TEXT	SEGMENT PARA USE32 PUBLIC 'CODE'
_TEXT	ENDS
;	COMDAT ?_Isnil@?$_Tree@V?$_Tmap_traits@V?$CStringT@DV?$StrTraitMFC_DLL@DV?$ChTraitsCRT@D@ATL@@@@@ATL@@PAVCDibBitmap@@U?$less@V?$CStringT@DV?$StrTraitMFC_DLL@DV?$ChTraitsCRT@D@ATL@@@@@ATL@@@std@@V?$allocator@U?$pair@$$CBV?$CStringT@DV?$StrTraitMFC_DLL@DV?$ChTraitsCRT@D@ATL@@@@@ATL@@PAVCDibBitmap@@@std@@@5@$0A@@std@@@std@@KAAADPAU_Node@?$_Tree_nod@V?$_Tmap_traits@V?$CStringT@DV?$StrTraitMFC_DLL@DV?$ChTraitsCRT@D@ATL@@@@@ATL@@PAVCDibBitmap@@U?$less@V?$CStringT@DV?$StrTraitMFC_DLL@DV?$ChTraitsCRT@D@ATL@@@@@ATL@@@std@@V?$allocator@U?$pair@$$CBV?$CStringT@DV?$StrTraitMFC_DLL@DV?$ChTraitsCRT@D@ATL@@@@@ATL@@PAVCDibBitmap@@@std@@@5@$0A@@std@@@2@@Z
_TEXT	SEGMENT PARA USE32 PUBLIC 'CODE'
_TEXT	ENDS
;	COMDAT ?_Key@?$_Tree@V?$_Tmap_traits@V?$CStringT@DV?$StrTraitMFC_DLL@DV?$ChTraitsCRT@D@ATL@@@@@ATL@@PAVCDibBitmap@@U?$less@V?$CStringT@DV?$StrTraitMFC_DLL@DV?$ChTraitsCRT@D@ATL@@@@@ATL@@@std@@V?$allocator@U?$pair@$$CBV?$CStringT@DV?$StrTraitMFC_DLL@DV?$ChTraitsCRT@D@ATL@@@@@ATL@@PAVCDibBitmap@@@std@@@5@$0A@@std@@@std@@KAABV?$CStringT@DV?$StrTraitMFC_DLL@DV?$ChTraitsCRT@D@ATL@@@@@ATL@@PAU_Node@?$_Tree_nod@V?$_Tmap_traits@V?$CStringT@DV?$StrTraitMFC_DLL@DV?$ChTraitsCRT@D@ATL@@@@@ATL@@PAVCDibBitmap@@U?$less@V?$CStringT@DV?$StrTraitMFC_DLL@DV?$ChTraitsCRT@D@ATL@@@@@ATL@@@std@@V?$allocator@U?$pair@$$CBV?$CStringT@DV?$StrTraitMFC_DLL@DV?$ChTraitsCRT@D@ATL@@@@@ATL@@PAVCDibBitmap@@@std@@@5@$0A@@std@@@2@@Z
_TEXT	SEGMENT PARA USE32 PUBLIC 'CODE'
_TEXT	ENDS
;	COMDAT ?_Left@?$_Tree@V?$_Tmap_traits@V?$CStringT@DV?$StrTraitMFC_DLL@DV?$ChTraitsCRT@D@ATL@@@@@ATL@@PAVCDibBitmap@@U?$less@V?$CStringT@DV?$StrTraitMFC_DLL@DV?$ChTraitsCRT@D@ATL@@@@@ATL@@@std@@V?$allocator@U?$pair@$$CBV?$CStringT@DV?$StrTraitMFC_DLL@DV?$ChTraitsCRT@D@ATL@@@@@ATL@@PAVCDibBitmap@@@std@@@5@$0A@@std@@@std@@KAAAPAU_Node@?$_Tree_nod@V?$_Tmap_traits@V?$CStringT@DV?$StrTraitMFC_DLL@DV?$ChTraitsCRT@D@ATL@@@@@ATL@@PAVCDibBitmap@@U?$less@V?$CStringT@DV?$StrTraitMFC_DLL@DV?$ChTraitsCRT@D@ATL@@@@@ATL@@@std@@V?$allocator@U?$pair@$$CBV?$CStringT@DV?$StrTraitMFC_DLL@DV?$ChTraitsCRT@D@ATL@@@@@ATL@@PAVCDibBitmap@@@std@@@5@$0A@@std@@@2@PAU342@@Z
_TEXT	SEGMENT PARA USE32 PUBLIC 'CODE'
_TEXT	ENDS
;	COMDAT ?_Right@?$_Tree@V?$_Tmap_traits@V?$CStringT@DV?$StrTraitMFC_DLL@DV?$ChTraitsCRT@D@ATL@@@@@ATL@@PAVCDibBitmap@@U?$less@V?$CStringT@DV?$StrTraitMFC_DLL@DV?$ChTraitsCRT@D@ATL@@@@@ATL@@@std@@V?$allocator@U?$pair@$$CBV?$CStringT@DV?$StrTraitMFC_DLL@DV?$ChTraitsCRT@D@ATL@@@@@ATL@@PAVCDibBitmap@@@std@@@5@$0A@@std@@@std@@KAAAPAU_Node@?$_Tree_nod@V?$_Tmap_traits@V?$CStringT@DV?$StrTraitMFC_DLL@DV?$ChTraitsCRT@D@ATL@@@@@ATL@@PAVCDibBitmap@@U?$less@V?$CStringT@DV?$StrTraitMFC_DLL@DV?$ChTraitsCRT@D@ATL@@@@@ATL@@@std@@V?$allocator@U?$pair@$$CBV?$CStringT@DV?$StrTraitMFC_DLL@DV?$ChTraitsCRT@D@ATL@@@@@ATL@@PAVCDibBitmap@@@std@@@5@$0A@@std@@@2@PAU342@@Z
_TEXT	SEGMENT PARA USE32 PUBLIC 'CODE'
_TEXT	ENDS
;	COMDAT ?begin@?$_Tree@V?$_Tmap_traits@V?$CStringT@DV?$StrTraitMFC_DLL@DV?$ChTraitsCRT@D@ATL@@@@@ATL@@PAVCDibBitmap@@U?$less@V?$CStringT@DV?$StrTraitMFC_DLL@DV?$ChTraitsCRT@D@ATL@@@@@ATL@@@std@@V?$allocator@U?$pair@$$CBV?$CStringT@DV?$StrTraitMFC_DLL@DV?$ChTraitsCRT@D@ATL@@@@@ATL@@PAVCDibBitmap@@@std@@@5@$0A@@std@@@std@@QAE?AViterator@12@XZ
_TEXT	SEGMENT PARA USE32 PUBLIC 'CODE'
_TEXT	ENDS
;	COMDAT ?_Insert@?$_Tree@V?$_Tmap_traits@V?$CStringT@DV?$StrTraitMFC_DLL@DV?$ChTraitsCRT@D@ATL@@@@@ATL@@PAVCDibBitmap@@U?$less@V?$CStringT@DV?$StrTraitMFC_DLL@DV?$ChTraitsCRT@D@ATL@@@@@ATL@@@std@@V?$allocator@U?$pair@$$CBV?$CStringT@DV?$StrTraitMFC_DLL@DV?$ChTraitsCRT@D@ATL@@@@@ATL@@PAVCDibBitmap@@@std@@@5@$0A@@std@@@std@@IAE?AViterator@12@_NPAU_Node@?$_Tree_nod@V?$_Tmap_traits@V?$CStringT@DV?$StrTraitMFC_DLL@DV?$ChTraitsCRT@D@ATL@@@@@ATL@@PAVCDibBitmap@@U?$less@V?$CStringT@DV?$StrTraitMFC_DLL@DV?$ChTraitsCRT@D@ATL@@@@@ATL@@@std@@V?$allocator@U?$pair@$$CBV?$CStringT@DV?$StrTraitMFC_DLL@DV?$ChTraitsCRT@D@ATL@@@@@ATL@@PAVCDibBitmap@@@std@@@5@$0A@@std@@@2@ABU?$pair@$$CBV?$CStringT@DV?$StrTraitMFC_DLL@DV?$ChTraitsCRT@D@ATL@@@@@ATL@@PAVCDibBitmap@@@2@@Z
_TEXT	SEGMENT PARA USE32 PUBLIC 'CODE'
_TEXT	ENDS
;	COMDAT ?_Root@?$_Tree@V?$_Tmap_traits@V?$CStringT@DV?$StrTraitMFC_DLL@DV?$ChTraitsCRT@D@ATL@@@@@ATL@@PAVCDibBitmap@@U?$less@V?$CStringT@DV?$StrTraitMFC_DLL@DV?$ChTraitsCRT@D@ATL@@@@@ATL@@@std@@V?$allocator@U?$pair@$$CBV?$CStringT@DV?$StrTraitMFC_DLL@DV?$ChTraitsCRT@D@ATL@@@@@ATL@@PAVCDibBitmap@@@std@@@5@$0A@@std@@@std@@IAEAAPAU_Node@?$_Tree_nod@V?$_Tmap_traits@V?$CStringT@DV?$StrTraitMFC_DLL@DV?$ChTraitsCRT@D@ATL@@@@@ATL@@PAVCDibBitmap@@U?$less@V?$CStringT@DV?$StrTraitMFC_DLL@DV?$ChTraitsCRT@D@ATL@@@@@ATL@@@std@@V?$allocator@U?$pair@$$CBV?$CStringT@DV?$StrTraitMFC_DLL@DV?$ChTraitsCRT@D@ATL@@@@@ATL@@PAVCDibBitmap@@@std@@@5@$0A@@std@@@2@XZ
_TEXT	SEGMENT PARA USE32 PUBLIC 'CODE'
_TEXT	ENDS
;	COMDAT ?_Kfn@?$_Tmap_traits@V?$CStringT@DV?$StrTraitMFC_DLL@DV?$ChTraitsCRT@D@ATL@@@@@ATL@@PAVCDibBitmap@@U?$less@V?$CStringT@DV?$StrTraitMFC_DLL@DV?$ChTraitsCRT@D@ATL@@@@@ATL@@@std@@V?$allocator@U?$pair@$$CBV?$CStringT@DV?$StrTraitMFC_DLL@DV?$ChTraitsCRT@D@ATL@@@@@ATL@@PAVCDibBitmap@@@std@@@5@$0A@@std@@SAABV?$CStringT@DV?$StrTraitMFC_DLL@DV?$ChTraitsCRT@D@ATL@@@@@ATL@@ABU?$pair@$$CBV?$CStringT@DV?$StrTraitMFC_DLL@DV?$ChTraitsCRT@D@ATL@@@@@ATL@@PAVCDibBitmap@@@2@@Z
_TEXT	SEGMENT PARA USE32 PUBLIC 'CODE'
_TEXT	ENDS
;	COMDAT ??R?$less@V?$CStringT@DV?$StrTraitMFC_DLL@DV?$ChTraitsCRT@D@ATL@@@@@ATL@@@std@@QBE_NABV?$CStringT@DV?$StrTraitMFC_DLL@DV?$ChTraitsCRT@D@ATL@@@@@ATL@@0@Z
_TEXT	SEGMENT PARA USE32 PUBLIC 'CODE'
_TEXT	ENDS
;	COMDAT ??0?$pair@Viterator@?$_Tree@V?$_Tmap_traits@V?$CStringT@DV?$StrTraitMFC_DLL@DV?$ChTraitsCRT@D@ATL@@@@@ATL@@PAVCDibBitmap@@U?$less@V?$CStringT@DV?$StrTraitMFC_DLL@DV?$ChTraitsCRT@D@ATL@@@@@ATL@@@std@@V?$allocator@U?$pair@$$CBV?$CStringT@DV?$StrTraitMFC_DLL@DV?$ChTraitsCRT@D@ATL@@@@@ATL@@PAVCDibBitmap@@@std@@@5@$0A@@std@@@std@@_N@std@@QAE@ABViterator@?$_Tree@V?$_Tmap_traits@V?$CStringT@DV?$StrTraitMFC_DLL@DV?$ChTraitsCRT@D@ATL@@@@@ATL@@PAVCDibBitmap@@U?$less@V?$CStringT@DV?$StrTraitMFC_DLL@DV?$ChTraitsCRT@D@ATL@@@@@ATL@@@std@@V?$allocator@U?$pair@$$CBV?$CStringT@DV?$StrTraitMFC_DLL@DV?$ChTraitsCRT@D@ATL@@@@@ATL@@PAVCDibBitmap@@@std@@@5@$0A@@std@@@1@AB_N@Z
_TEXT	SEGMENT PARA USE32 PUBLIC 'CODE'
_TEXT	ENDS
;	COMDAT ??0iterator@?$_Tree@V?$_Tmap_traits@V?$CStringT@DV?$StrTraitMFC_DLL@DV?$ChTraitsCRT@D@ATL@@@@@ATL@@PAVCDibBitmap@@U?$less@V?$CStringT@DV?$StrTraitMFC_DLL@DV?$ChTraitsCRT@D@ATL@@@@@ATL@@@std@@V?$allocator@U?$pair@$$CBV?$CStringT@DV?$StrTraitMFC_DLL@DV?$ChTraitsCRT@D@ATL@@@@@ATL@@PAVCDibBitmap@@@std@@@5@$0A@@std@@@std@@QAE@PAU_Node@?$_Tree_nod@V?$_Tmap_traits@V?$CStringT@DV?$StrTraitMFC_DLL@DV?$ChTraitsCRT@D@ATL@@@@@ATL@@PAVCDibBitmap@@U?$less@V?$CStringT@DV?$StrTraitMFC_DLL@DV?$ChTraitsCRT@D@ATL@@@@@ATL@@@std@@V?$allocator@U?$pair@$$CBV?$CStringT@DV?$StrTraitMFC_DLL@DV?$ChTraitsCRT@D@ATL@@@@@ATL@@PAVCDibBitmap@@@std@@@5@$0A@@std@@@2@@Z
_TEXT	SEGMENT PARA USE32 PUBLIC 'CODE'
_TEXT	ENDS
;	COMDAT ??Fiterator@?$_Tree@V?$_Tmap_traits@V?$CStringT@DV?$StrTraitMFC_DLL@DV?$ChTraitsCRT@D@ATL@@@@@ATL@@PAVCDibBitmap@@U?$less@V?$CStringT@DV?$StrTraitMFC_DLL@DV?$ChTraitsCRT@D@ATL@@@@@ATL@@@std@@V?$allocator@U?$pair@$$CBV?$CStringT@DV?$StrTraitMFC_DLL@DV?$ChTraitsCRT@D@ATL@@@@@ATL@@PAVCDibBitmap@@@std@@@5@$0A@@std@@@std@@QAEAAV012@XZ
_TEXT	SEGMENT PARA USE32 PUBLIC 'CODE'
_TEXT	ENDS
;	COMDAT ??8const_iterator@?$_Tree@V?$_Tmap_traits@V?$CStringT@DV?$StrTraitMFC_DLL@DV?$ChTraitsCRT@D@ATL@@@@@ATL@@PAVCDibBitmap@@U?$less@V?$CStringT@DV?$StrTraitMFC_DLL@DV?$ChTraitsCRT@D@ATL@@@@@ATL@@@std@@V?$allocator@U?$pair@$$CBV?$CStringT@DV?$StrTraitMFC_DLL@DV?$ChTraitsCRT@D@ATL@@@@@ATL@@PAVCDibBitmap@@@std@@@5@$0A@@std@@@std@@QBE_NABV012@@Z
_TEXT	SEGMENT PARA USE32 PUBLIC 'CODE'
_TEXT	ENDS
;	COMDAT ?_Mynode@const_iterator@?$_Tree@V?$_Tmap_traits@V?$CStringT@DV?$StrTraitMFC_DLL@DV?$ChTraitsCRT@D@ATL@@@@@ATL@@PAVCDibBitmap@@U?$less@V?$CStringT@DV?$StrTraitMFC_DLL@DV?$ChTraitsCRT@D@ATL@@@@@ATL@@@std@@V?$allocator@U?$pair@$$CBV?$CStringT@DV?$StrTraitMFC_DLL@DV?$ChTraitsCRT@D@ATL@@@@@ATL@@PAVCDibBitmap@@@std@@@5@$0A@@std@@@std@@QBEPAU_Node@?$_Tree_nod@V?$_Tmap_traits@V?$CStringT@DV?$StrTraitMFC_DLL@DV?$ChTraitsCRT@D@ATL@@@@@ATL@@PAVCDibBitmap@@U?$less@V?$CStringT@DV?$StrTraitMFC_DLL@DV?$ChTraitsCRT@D@ATL@@@@@ATL@@@std@@V?$allocator@U?$pair@$$CBV?$CStringT@DV?$StrTraitMFC_DLL@DV?$ChTraitsCRT@D@ATL@@@@@ATL@@PAVCDibBitmap@@@std@@@5@$0A@@std@@@3@XZ
_TEXT	SEGMENT PARA USE32 PUBLIC 'CODE'
_TEXT	ENDS
;	COMDAT ??0length_error@std@@QAE@ABV01@@Z
_TEXT	SEGMENT PARA USE32 PUBLIC 'CODE'
_TEXT	ENDS
;	COMDAT ??MATL@@YA_NABV?$CStringT@DV?$StrTraitMFC_DLL@DV?$ChTraitsCRT@D@ATL@@@@@0@0@Z
_TEXT	SEGMENT PARA USE32 PUBLIC 'CODE'
_TEXT	ENDS
;	COMDAT ?StringCompare@?$ChTraitsCRT@D@ATL@@SAHPBD0@Z
_TEXT	SEGMENT PARA USE32 PUBLIC 'CODE'
_TEXT	ENDS
;	COMDAT ?_Color@?$_Tree@V?$_Tmap_traits@V?$CStringT@DV?$StrTraitMFC_DLL@DV?$ChTraitsCRT@D@ATL@@@@@ATL@@PAVCDibBitmap@@U?$less@V?$CStringT@DV?$StrTraitMFC_DLL@DV?$ChTraitsCRT@D@ATL@@@@@ATL@@@std@@V?$allocator@U?$pair@$$CBV?$CStringT@DV?$StrTraitMFC_DLL@DV?$ChTraitsCRT@D@ATL@@@@@ATL@@PAVCDibBitmap@@@std@@@5@$0A@@std@@@std@@KAAADPAU_Node@?$_Tree_nod@V?$_Tmap_traits@V?$CStringT@DV?$StrTraitMFC_DLL@DV?$ChTraitsCRT@D@ATL@@@@@ATL@@PAVCDibBitmap@@U?$less@V?$CStringT@DV?$StrTraitMFC_DLL@DV?$ChTraitsCRT@D@ATL@@@@@ATL@@@std@@V?$allocator@U?$pair@$$CBV?$CStringT@DV?$StrTraitMFC_DLL@DV?$ChTraitsCRT@D@ATL@@@@@ATL@@PAVCDibBitmap@@@std@@@5@$0A@@std@@@2@@Z
_TEXT	SEGMENT PARA USE32 PUBLIC 'CODE'
_TEXT	ENDS
;	COMDAT ?_Parent@?$_Tree@V?$_Tmap_traits@V?$CStringT@DV?$StrTraitMFC_DLL@DV?$ChTraitsCRT@D@ATL@@@@@ATL@@PAVCDibBitmap@@U?$less@V?$CStringT@DV?$StrTraitMFC_DLL@DV?$ChTraitsCRT@D@ATL@@@@@ATL@@@std@@V?$allocator@U?$pair@$$CBV?$CStringT@DV?$StrTraitMFC_DLL@DV?$ChTraitsCRT@D@ATL@@@@@ATL@@PAVCDibBitmap@@@std@@@5@$0A@@std@@@std@@KAAAPAU_Node@?$_Tree_nod@V?$_Tmap_traits@V?$CStringT@DV?$StrTraitMFC_DLL@DV?$ChTraitsCRT@D@ATL@@@@@ATL@@PAVCDibBitmap@@U?$less@V?$CStringT@DV?$StrTraitMFC_DLL@DV?$ChTraitsCRT@D@ATL@@@@@ATL@@@std@@V?$allocator@U?$pair@$$CBV?$CStringT@DV?$StrTraitMFC_DLL@DV?$ChTraitsCRT@D@ATL@@@@@ATL@@PAVCDibBitmap@@@std@@@5@$0A@@std@@@2@PAU342@@Z
_TEXT	SEGMENT PARA USE32 PUBLIC 'CODE'
_TEXT	ENDS
;	COMDAT ?_Myval@?$_Tree@V?$_Tmap_traits@V?$CStringT@DV?$StrTraitMFC_DLL@DV?$ChTraitsCRT@D@ATL@@@@@ATL@@PAVCDibBitmap@@U?$less@V?$CStringT@DV?$StrTraitMFC_DLL@DV?$ChTraitsCRT@D@ATL@@@@@ATL@@@std@@V?$allocator@U?$pair@$$CBV?$CStringT@DV?$StrTraitMFC_DLL@DV?$ChTraitsCRT@D@ATL@@@@@ATL@@PAVCDibBitmap@@@std@@@5@$0A@@std@@@std@@KAAAU?$pair@$$CBV?$CStringT@DV?$StrTraitMFC_DLL@DV?$ChTraitsCRT@D@ATL@@@@@ATL@@PAVCDibBitmap@@@2@PAU_Node@?$_Tree_nod@V?$_Tmap_traits@V?$CStringT@DV?$StrTraitMFC_DLL@DV?$ChTraitsCRT@D@ATL@@@@@ATL@@PAVCDibBitmap@@U?$less@V?$CStringT@DV?$StrTraitMFC_DLL@DV?$ChTraitsCRT@D@ATL@@@@@ATL@@@std@@V?$allocator@U?$pair@$$CBV?$CStringT@DV?$StrTraitMFC_DLL@DV?$ChTraitsCRT@D@ATL@@@@@ATL@@PAVCDibBitmap@@@std@@@5@$0A@@std@@@2@@Z
_TEXT	SEGMENT PARA USE32 PUBLIC 'CODE'
_TEXT	ENDS
;	COMDAT ?max_size@?$_Tree@V?$_Tmap_traits@V?$CStringT@DV?$StrTraitMFC_DLL@DV?$ChTraitsCRT@D@ATL@@@@@ATL@@PAVCDibBitmap@@U?$less@V?$CStringT@DV?$StrTraitMFC_DLL@DV?$ChTraitsCRT@D@ATL@@@@@ATL@@@std@@V?$allocator@U?$pair@$$CBV?$CStringT@DV?$StrTraitMFC_DLL@DV?$ChTraitsCRT@D@ATL@@@@@ATL@@PAVCDibBitmap@@@std@@@5@$0A@@std@@@std@@QBEIXZ
_TEXT	SEGMENT PARA USE32 PUBLIC 'CODE'
_TEXT	ENDS
;	COMDAT ?_Lmost@?$_Tree@V?$_Tmap_traits@V?$CStringT@DV?$StrTraitMFC_DLL@DV?$ChTraitsCRT@D@ATL@@@@@ATL@@PAVCDibBitmap@@U?$less@V?$CStringT@DV?$StrTraitMFC_DLL@DV?$ChTraitsCRT@D@ATL@@@@@ATL@@@std@@V?$allocator@U?$pair@$$CBV?$CStringT@DV?$StrTraitMFC_DLL@DV?$ChTraitsCRT@D@ATL@@@@@ATL@@PAVCDibBitmap@@@std@@@5@$0A@@std@@@std@@IAEAAPAU_Node@?$_Tree_nod@V?$_Tmap_traits@V?$CStringT@DV?$StrTraitMFC_DLL@DV?$ChTraitsCRT@D@ATL@@@@@ATL@@PAVCDibBitmap@@U?$less@V?$CStringT@DV?$StrTraitMFC_DLL@DV?$ChTraitsCRT@D@ATL@@@@@ATL@@@std@@V?$allocator@U?$pair@$$CBV?$CStringT@DV?$StrTraitMFC_DLL@DV?$ChTraitsCRT@D@ATL@@@@@ATL@@PAVCDibBitmap@@@std@@@5@$0A@@std@@@2@XZ
_TEXT	SEGMENT PARA USE32 PUBLIC 'CODE'
_TEXT	ENDS
;	COMDAT ?_Lrotate@?$_Tree@V?$_Tmap_traits@V?$CStringT@DV?$StrTraitMFC_DLL@DV?$ChTraitsCRT@D@ATL@@@@@ATL@@PAVCDibBitmap@@U?$less@V?$CStringT@DV?$StrTraitMFC_DLL@DV?$ChTraitsCRT@D@ATL@@@@@ATL@@@std@@V?$allocator@U?$pair@$$CBV?$CStringT@DV?$StrTraitMFC_DLL@DV?$ChTraitsCRT@D@ATL@@@@@ATL@@PAVCDibBitmap@@@std@@@5@$0A@@std@@@std@@IAEXPAU_Node@?$_Tree_nod@V?$_Tmap_traits@V?$CStringT@DV?$StrTraitMFC_DLL@DV?$ChTraitsCRT@D@ATL@@@@@ATL@@PAVCDibBitmap@@U?$less@V?$CStringT@DV?$StrTraitMFC_DLL@DV?$ChTraitsCRT@D@ATL@@@@@ATL@@@std@@V?$allocator@U?$pair@$$CBV?$CStringT@DV?$StrTraitMFC_DLL@DV?$ChTraitsCRT@D@ATL@@@@@ATL@@PAVCDibBitmap@@@std@@@5@$0A@@std@@@2@@Z
_TEXT	SEGMENT PARA USE32 PUBLIC 'CODE'
_TEXT	ENDS
;	COMDAT ?_Rmost@?$_Tree@V?$_Tmap_traits@V?$CStringT@DV?$StrTraitMFC_DLL@DV?$ChTraitsCRT@D@ATL@@@@@ATL@@PAVCDibBitmap@@U?$less@V?$CStringT@DV?$StrTraitMFC_DLL@DV?$ChTraitsCRT@D@ATL@@@@@ATL@@@std@@V?$allocator@U?$pair@$$CBV?$CStringT@DV?$StrTraitMFC_DLL@DV?$ChTraitsCRT@D@ATL@@@@@ATL@@PAVCDibBitmap@@@std@@@5@$0A@@std@@@std@@IAEAAPAU_Node@?$_Tree_nod@V?$_Tmap_traits@V?$CStringT@DV?$StrTraitMFC_DLL@DV?$ChTraitsCRT@D@ATL@@@@@ATL@@PAVCDibBitmap@@U?$less@V?$CStringT@DV?$StrTraitMFC_DLL@DV?$ChTraitsCRT@D@ATL@@@@@ATL@@@std@@V?$allocator@U?$pair@$$CBV?$CStringT@DV?$StrTraitMFC_DLL@DV?$ChTraitsCRT@D@ATL@@@@@ATL@@PAVCDibBitmap@@@std@@@5@$0A@@std@@@2@XZ
_TEXT	SEGMENT PARA USE32 PUBLIC 'CODE'
_TEXT	ENDS
;	COMDAT ?_Rrotate@?$_Tree@V?$_Tmap_traits@V?$CStringT@DV?$StrTraitMFC_DLL@DV?$ChTraitsCRT@D@ATL@@@@@ATL@@PAVCDibBitmap@@U?$less@V?$CStringT@DV?$StrTraitMFC_DLL@DV?$ChTraitsCRT@D@ATL@@@@@ATL@@@std@@V?$allocator@U?$pair@$$CBV?$CStringT@DV?$StrTraitMFC_DLL@DV?$ChTraitsCRT@D@ATL@@@@@ATL@@PAVCDibBitmap@@@std@@@5@$0A@@std@@@std@@IAEXPAU_Node@?$_Tree_nod@V?$_Tmap_traits@V?$CStringT@DV?$StrTraitMFC_DLL@DV?$ChTraitsCRT@D@ATL@@@@@ATL@@PAVCDibBitmap@@U?$less@V?$CStringT@DV?$StrTraitMFC_DLL@DV?$ChTraitsCRT@D@ATL@@@@@ATL@@@std@@V?$allocator@U?$pair@$$CBV?$CStringT@DV?$StrTraitMFC_DLL@DV?$ChTraitsCRT@D@ATL@@@@@ATL@@PAVCDibBitmap@@@std@@@5@$0A@@std@@@2@@Z
_TEXT	SEGMENT PARA USE32 PUBLIC 'CODE'
_TEXT	ENDS
;	COMDAT ?_Buynode@?$_Tree@V?$_Tmap_traits@V?$CStringT@DV?$StrTraitMFC_DLL@DV?$ChTraitsCRT@D@ATL@@@@@ATL@@PAVCDibBitmap@@U?$less@V?$CStringT@DV?$StrTraitMFC_DLL@DV?$ChTraitsCRT@D@ATL@@@@@ATL@@@std@@V?$allocator@U?$pair@$$CBV?$CStringT@DV?$StrTraitMFC_DLL@DV?$ChTraitsCRT@D@ATL@@@@@ATL@@PAVCDibBitmap@@@std@@@5@$0A@@std@@@std@@IAEPAU_Node@?$_Tree_nod@V?$_Tmap_traits@V?$CStringT@DV?$StrTraitMFC_DLL@DV?$ChTraitsCRT@D@ATL@@@@@ATL@@PAVCDibBitmap@@U?$less@V?$CStringT@DV?$StrTraitMFC_DLL@DV?$ChTraitsCRT@D@ATL@@@@@ATL@@@std@@V?$allocator@U?$pair@$$CBV?$CStringT@DV?$StrTraitMFC_DLL@DV?$ChTraitsCRT@D@ATL@@@@@ATL@@PAVCDibBitmap@@@std@@@5@$0A@@std@@@2@PAU342@00ABU?$pair@$$CBV?$CStringT@DV?$StrTraitMFC_DLL@DV?$ChTraitsCRT@D@ATL@@@@@ATL@@PAVCDibBitmap@@@2@D@Z
_TEXT	SEGMENT PARA USE32 PUBLIC 'CODE'
_TEXT	ENDS
;	COMDAT ??0const_iterator@?$_Tree@V?$_Tmap_traits@V?$CStringT@DV?$StrTraitMFC_DLL@DV?$ChTraitsCRT@D@ATL@@@@@ATL@@PAVCDibBitmap@@U?$less@V?$CStringT@DV?$StrTraitMFC_DLL@DV?$ChTraitsCRT@D@ATL@@@@@ATL@@@std@@V?$allocator@U?$pair@$$CBV?$CStringT@DV?$StrTraitMFC_DLL@DV?$ChTraitsCRT@D@ATL@@@@@ATL@@PAVCDibBitmap@@@std@@@5@$0A@@std@@@std@@QAE@PAU_Node@?$_Tree_nod@V?$_Tmap_traits@V?$CStringT@DV?$StrTraitMFC_DLL@DV?$ChTraitsCRT@D@ATL@@@@@ATL@@PAVCDibBitmap@@U?$less@V?$CStringT@DV?$StrTraitMFC_DLL@DV?$ChTraitsCRT@D@ATL@@@@@ATL@@@std@@V?$allocator@U?$pair@$$CBV?$CStringT@DV?$StrTraitMFC_DLL@DV?$ChTraitsCRT@D@ATL@@@@@ATL@@PAVCDibBitmap@@@std@@@5@$0A@@std@@@2@@Z
_TEXT	SEGMENT PARA USE32 PUBLIC 'CODE'
_TEXT	ENDS
;	COMDAT ??Fconst_iterator@?$_Tree@V?$_Tmap_traits@V?$CStringT@DV?$StrTraitMFC_DLL@DV?$ChTraitsCRT@D@ATL@@@@@ATL@@PAVCDibBitmap@@U?$less@V?$CStringT@DV?$StrTraitMFC_DLL@DV?$ChTraitsCRT@D@ATL@@@@@ATL@@@std@@V?$allocator@U?$pair@$$CBV?$CStringT@DV?$StrTraitMFC_DLL@DV?$ChTraitsCRT@D@ATL@@@@@ATL@@PAVCDibBitmap@@@std@@@5@$0A@@std@@@std@@QAEAAV012@XZ
_TEXT	SEGMENT PARA USE32 PUBLIC 'CODE'
_TEXT	ENDS
;	COMDAT ?max_size@?$allocator@U?$pair@$$CBV?$CStringT@DV?$StrTraitMFC_DLL@DV?$ChTraitsCRT@D@ATL@@@@@ATL@@PAVCDibBitmap@@@std@@@std@@QBEIXZ
_TEXT	SEGMENT PARA USE32 PUBLIC 'CODE'
_TEXT	ENDS
;	COMDAT ?deallocate@?$allocator@U_Node@?$_Tree_nod@V?$_Tmap_traits@V?$CStringT@DV?$StrTraitMFC_DLL@DV?$ChTraitsCRT@D@ATL@@@@@ATL@@PAVCDibBitmap@@U?$less@V?$CStringT@DV?$StrTraitMFC_DLL@DV?$ChTraitsCRT@D@ATL@@@@@ATL@@@std@@V?$allocator@U?$pair@$$CBV?$CStringT@DV?$StrTraitMFC_DLL@DV?$ChTraitsCRT@D@ATL@@@@@ATL@@PAVCDibBitmap@@@std@@@5@$0A@@std@@@std@@@std@@QAEXPAU_Node@?$_Tree_nod@V?$_Tmap_traits@V?$CStringT@DV?$StrTraitMFC_DLL@DV?$ChTraitsCRT@D@ATL@@@@@ATL@@PAVCDibBitmap@@U?$less@V?$CStringT@DV?$StrTraitMFC_DLL@DV?$ChTraitsCRT@D@ATL@@@@@ATL@@@std@@V?$allocator@U?$pair@$$CBV?$CStringT@DV?$StrTraitMFC_DLL@DV?$ChTraitsCRT@D@ATL@@@@@ATL@@PAVCDibBitmap@@@std@@@5@$0A@@std@@@2@I@Z
_TEXT	SEGMENT PARA USE32 PUBLIC 'CODE'
_TEXT	ENDS
;	COMDAT ?allocate@?$allocator@U_Node@?$_Tree_nod@V?$_Tmap_traits@V?$CStringT@DV?$StrTraitMFC_DLL@DV?$ChTraitsCRT@D@ATL@@@@@ATL@@PAVCDibBitmap@@U?$less@V?$CStringT@DV?$StrTraitMFC_DLL@DV?$ChTraitsCRT@D@ATL@@@@@ATL@@@std@@V?$allocator@U?$pair@$$CBV?$CStringT@DV?$StrTraitMFC_DLL@DV?$ChTraitsCRT@D@ATL@@@@@ATL@@PAVCDibBitmap@@@std@@@5@$0A@@std@@@std@@@std@@QAEPAU_Node@?$_Tree_nod@V?$_Tmap_traits@V?$CStringT@DV?$StrTraitMFC_DLL@DV?$ChTraitsCRT@D@ATL@@@@@ATL@@PAVCDibBitmap@@U?$less@V?$CStringT@DV?$StrTraitMFC_DLL@DV?$ChTraitsCRT@D@ATL@@@@@ATL@@@std@@V?$allocator@U?$pair@$$CBV?$CStringT@DV?$StrTraitMFC_DLL@DV?$ChTraitsCRT@D@ATL@@@@@ATL@@PAVCDibBitmap@@@std@@@5@$0A@@std@@@2@I@Z
_TEXT	SEGMENT PARA USE32 PUBLIC 'CODE'
_TEXT	ENDS
;	COMDAT ?_Dec@const_iterator@?$_Tree@V?$_Tmap_traits@V?$CStringT@DV?$StrTraitMFC_DLL@DV?$ChTraitsCRT@D@ATL@@@@@ATL@@PAVCDibBitmap@@U?$less@V?$CStringT@DV?$StrTraitMFC_DLL@DV?$ChTraitsCRT@D@ATL@@@@@ATL@@@std@@V?$allocator@U?$pair@$$CBV?$CStringT@DV?$StrTraitMFC_DLL@DV?$ChTraitsCRT@D@ATL@@@@@ATL@@PAVCDibBitmap@@@std@@@5@$0A@@std@@@std@@QAEXXZ
_TEXT	SEGMENT PARA USE32 PUBLIC 'CODE'
_TEXT	ENDS
;	COMDAT ??0_Node@?$_Tree_nod@V?$_Tmap_traits@V?$CStringT@DV?$StrTraitMFC_DLL@DV?$ChTraitsCRT@D@ATL@@@@@ATL@@PAVCDibBitmap@@U?$less@V?$CStringT@DV?$StrTraitMFC_DLL@DV?$ChTraitsCRT@D@ATL@@@@@ATL@@@std@@V?$allocator@U?$pair@$$CBV?$CStringT@DV?$StrTraitMFC_DLL@DV?$ChTraitsCRT@D@ATL@@@@@ATL@@PAVCDibBitmap@@@std@@@5@$0A@@std@@@std@@QAE@PAU012@00ABU?$pair@$$CBV?$CStringT@DV?$StrTraitMFC_DLL@DV?$ChTraitsCRT@D@ATL@@@@@ATL@@PAVCDibBitmap@@@2@D@Z
_TEXT	SEGMENT PARA USE32 PUBLIC 'CODE'
_TEXT	ENDS
;	COMDAT ??0?$pair@$$CBV?$CStringT@DV?$StrTraitMFC_DLL@DV?$ChTraitsCRT@D@ATL@@@@@ATL@@PAVCDibBitmap@@@std@@QAE@ABU01@@Z
_TEXT	SEGMENT PARA USE32 PUBLIC 'CODE'
_TEXT	ENDS
;	COMDAT ?_Max@?$_Tree@V?$_Tmap_traits@V?$CStringT@DV?$StrTraitMFC_DLL@DV?$ChTraitsCRT@D@ATL@@@@@ATL@@PAVCDibBitmap@@U?$less@V?$CStringT@DV?$StrTraitMFC_DLL@DV?$ChTraitsCRT@D@ATL@@@@@ATL@@@std@@V?$allocator@U?$pair@$$CBV?$CStringT@DV?$StrTraitMFC_DLL@DV?$ChTraitsCRT@D@ATL@@@@@ATL@@PAVCDibBitmap@@@std@@@5@$0A@@std@@@std@@KAPAU_Node@?$_Tree_nod@V?$_Tmap_traits@V?$CStringT@DV?$StrTraitMFC_DLL@DV?$ChTraitsCRT@D@ATL@@@@@ATL@@PAVCDibBitmap@@U?$less@V?$CStringT@DV?$StrTraitMFC_DLL@DV?$ChTraitsCRT@D@ATL@@@@@ATL@@@std@@V?$allocator@U?$pair@$$CBV?$CStringT@DV?$StrTraitMFC_DLL@DV?$ChTraitsCRT@D@ATL@@@@@ATL@@PAVCDibBitmap@@@std@@@5@$0A@@std@@@2@PAU342@@Z
_TEXT	SEGMENT PARA USE32 PUBLIC 'CODE'
_TEXT	ENDS
;	COMDAT ?Unlock@?$CComCritSecLock@VCComCriticalSection@ATL@@@ATL@@QAEXXZ
_TEXT	SEGMENT PARA USE32 PUBLIC 'CODE'
_TEXT	ENDS
;	COMDAT ??0?$CArray@MM@@QAE@XZ
_TEXT	SEGMENT PARA USE32 PUBLIC 'CODE'
_TEXT	ENDS
;	COMDAT ??1?$CArray@MM@@UAE@XZ
_TEXT	SEGMENT PARA USE32 PUBLIC 'CODE'
_TEXT	ENDS
;	COMDAT ?Serialize@?$CArray@MM@@UAEXAAVCArchive@@@Z
_TEXT	SEGMENT PARA USE32 PUBLIC 'CODE'
_TEXT	ENDS
;	COMDAT ?GetSize@?$CArray@VCPaneBase@ETSLayoutMgr@@V12@@@QBEHXZ
_TEXT	SEGMENT PARA USE32 PUBLIC 'CODE'
_TEXT	ENDS
;	COMDAT ?RemoveAll@?$CArray@VCPaneBase@ETSLayoutMgr@@V12@@@QAEXXZ
_TEXT	SEGMENT PARA USE32 PUBLIC 'CODE'
_TEXT	ENDS
;	COMDAT ??A?$CArray@VCPaneBase@ETSLayoutMgr@@V12@@@QAEAAVCPaneBase@ETSLayoutMgr@@H@Z
_TEXT	SEGMENT PARA USE32 PUBLIC 'CODE'
_TEXT	ENDS
;	COMDAT ??1?$CArray@VCPaneBase@ETSLayoutMgr@@V12@@@UAE@XZ
_TEXT	SEGMENT PARA USE32 PUBLIC 'CODE'
_TEXT	ENDS
;	COMDAT ?Serialize@?$CArray@VCPaneBase@ETSLayoutMgr@@V12@@@UAEXAAVCArchive@@@Z
_TEXT	SEGMENT PARA USE32 PUBLIC 'CODE'
_TEXT	ENDS
;	COMDAT ?Lookup@?$CMap@V?$CStringT@DV?$StrTraitMFC_DLL@DV?$ChTraitsCRT@D@ATL@@@@@ATL@@PBDVCPaneBase@ETSLayoutMgr@@V34@@@QBEHPBDAAVCPaneBase@ETSLayoutMgr@@@Z
_TEXT	SEGMENT PARA USE32 PUBLIC 'CODE'
_TEXT	ENDS
;	COMDAT ?SetAt@?$CMap@V?$CStringT@DV?$StrTraitMFC_DLL@DV?$ChTraitsCRT@D@ATL@@@@@ATL@@PBDVCPaneBase@ETSLayoutMgr@@V34@@@QAEXPBDVCPaneBase@ETSLayoutMgr@@@Z
_TEXT	SEGMENT PARA USE32 PUBLIC 'CODE'
_TEXT	ENDS
;	COMDAT ?GetStartPosition@?$CMap@V?$CStringT@DV?$StrTraitMFC_DLL@DV?$ChTraitsCRT@D@ATL@@@@@ATL@@PBDVCPaneBase@ETSLayoutMgr@@V34@@@QBEPAU__POSITION@@XZ
_TEXT	SEGMENT PARA USE32 PUBLIC 'CODE'
_TEXT	ENDS
;	COMDAT ?GetNextAssoc@?$CMap@V?$CStringT@DV?$StrTraitMFC_DLL@DV?$ChTraitsCRT@D@ATL@@@@@ATL@@PBDVCPaneBase@ETSLayoutMgr@@V34@@@QBEXAAPAU__POSITION@@AAV?$CStringT@DV?$StrTraitMFC_DLL@DV?$ChTraitsCRT@D@ATL@@@@@ATL@@AAVCPaneBase@ETSLayoutMgr@@@Z
_TEXT	SEGMENT PARA USE32 PUBLIC 'CODE'
_TEXT	ENDS
;	COMDAT ??1?$CMap@V?$CStringT@DV?$StrTraitMFC_DLL@DV?$ChTraitsCRT@D@ATL@@@@@ATL@@PBDVCPaneBase@ETSLayoutMgr@@V34@@@UAE@XZ
_TEXT	SEGMENT PARA USE32 PUBLIC 'CODE'
_TEXT	ENDS
;	COMDAT ?Serialize@?$CMap@V?$CStringT@DV?$StrTraitMFC_DLL@DV?$ChTraitsCRT@D@ATL@@@@@ATL@@PBDVCPaneBase@ETSLayoutMgr@@V34@@@UAEXAAVCArchive@@@Z
_TEXT	SEGMENT PARA USE32 PUBLIC 'CODE'
_TEXT	ENDS
;	COMDAT ??0?$CArray@UElemPos@CMarkup@@AAU12@@@QAE@XZ
_TEXT	SEGMENT PARA USE32 PUBLIC 'CODE'
_TEXT	ENDS
;	COMDAT ??1?$CArray@UElemPos@CMarkup@@AAU12@@@UAE@XZ
_TEXT	SEGMENT PARA USE32 PUBLIC 'CODE'
_TEXT	ENDS
;	COMDAT ?Serialize@?$CArray@UElemPos@CMarkup@@AAU12@@@UAEXAAVCArchive@@@Z
_TEXT	SEGMENT PARA USE32 PUBLIC 'CODE'
_TEXT	ENDS
;	COMDAT ??$_Maklocstr@D@std@@YAPADPBDPADABU_Cvtvec@@@Z
_TEXT	SEGMENT PARA USE32 PUBLIC 'CODE'
_TEXT	ENDS
;	COMDAT ??$_Allocate@U_Node@?$_Tree_nod@V?$_Tmap_traits@V?$CStringT@DV?$StrTraitMFC_DLL@DV?$ChTraitsCRT@D@ATL@@@@@ATL@@PAVCDibBitmap@@U?$less@V?$CStringT@DV?$StrTraitMFC_DLL@DV?$ChTraitsCRT@D@ATL@@@@@ATL@@@std@@V?$allocator@U?$pair@$$CBV?$CStringT@DV?$StrTraitMFC_DLL@DV?$ChTraitsCRT@D@ATL@@@@@ATL@@PAVCDibBitmap@@@std@@@5@$0A@@std@@@std@@@std@@YAPAU_Node@?$_Tree_nod@V?$_Tmap_traits@V?$CStringT@DV?$StrTraitMFC_DLL@DV?$ChTraitsCRT@D@ATL@@@@@ATL@@PAVCDibBitmap@@U?$less@V?$CStringT@DV?$StrTraitMFC_DLL@DV?$ChTraitsCRT@D@ATL@@@@@ATL@@@std@@V?$allocator@U?$pair@$$CBV?$CStringT@DV?$StrTraitMFC_DLL@DV?$ChTraitsCRT@D@ATL@@@@@ATL@@PAVCDibBitmap@@@std@@@5@$0A@@std@@@0@IPAU120@@Z
_TEXT	SEGMENT PARA USE32 PUBLIC 'CODE'
_TEXT	ENDS
;	COMDAT ??_G?$CArray@MM@@UAEPAXI@Z
_TEXT	SEGMENT PARA USE32 PUBLIC 'CODE'
_TEXT	ENDS
;	COMDAT ??_G?$CArray@VCPaneBase@ETSLayoutMgr@@V12@@@UAEPAXI@Z
_TEXT	SEGMENT PARA USE32 PUBLIC 'CODE'
_TEXT	ENDS
;	COMDAT ??_GCPaneBase@ETSLayoutMgr@@QAEPAXI@Z
_TEXT	SEGMENT PARA USE32 PUBLIC 'CODE'
_TEXT	ENDS
;	COMDAT ??_G?$CMap@V?$CStringT@DV?$StrTraitMFC_DLL@DV?$ChTraitsCRT@D@ATL@@@@@ATL@@PBDVCPaneBase@ETSLayoutMgr@@V34@@@UAEPAXI@Z
_TEXT	SEGMENT PARA USE32 PUBLIC 'CODE'
_TEXT	ENDS
;	COMDAT ??_G?$CArray@UElemPos@CMarkup@@AAU12@@@UAEPAXI@Z
_TEXT	SEGMENT PARA USE32 PUBLIC 'CODE'
_TEXT	ENDS
;	COMDAT ?SetSize@?$CArray@MM@@QAEXHH@Z
_TEXT	SEGMENT PARA USE32 PUBLIC 'CODE'
_TEXT	ENDS
;	COMDAT ??$SerializeElements@M@@YGXAAVCArchive@@PAMH@Z
_TEXT	SEGMENT PARA USE32 PUBLIC 'CODE'
_TEXT	ENDS
;	COMDAT ?SetSize@?$CArray@VCPaneBase@ETSLayoutMgr@@V12@@@QAEXHH@Z
_TEXT	SEGMENT PARA USE32 PUBLIC 'CODE'
_TEXT	ENDS
;	COMDAT ?ElementAt@?$CArray@VCPaneBase@ETSLayoutMgr@@V12@@@QAEAAVCPaneBase@ETSLayoutMgr@@H@Z
_TEXT	SEGMENT PARA USE32 PUBLIC 'CODE'
_TEXT	ENDS
;	COMDAT ??$SerializeElements@VCPaneBase@ETSLayoutMgr@@@@YGXAAVCArchive@@PAVCPaneBase@ETSLayoutMgr@@H@Z
_TEXT	SEGMENT PARA USE32 PUBLIC 'CODE'
_TEXT	ENDS
;	COMDAT ??A?$CMap@V?$CStringT@DV?$StrTraitMFC_DLL@DV?$ChTraitsCRT@D@ATL@@@@@ATL@@PBDVCPaneBase@ETSLayoutMgr@@V34@@@QAEAAVCPaneBase@ETSLayoutMgr@@PBD@Z
_TEXT	SEGMENT PARA USE32 PUBLIC 'CODE'
_TEXT	ENDS
;	COMDAT ?RemoveAll@?$CMap@V?$CStringT@DV?$StrTraitMFC_DLL@DV?$ChTraitsCRT@D@ATL@@@@@ATL@@PBDVCPaneBase@ETSLayoutMgr@@V34@@@QAEXXZ
_TEXT	SEGMENT PARA USE32 PUBLIC 'CODE'
_TEXT	ENDS
;	COMDAT ?GetAssocAt@?$CMap@V?$CStringT@DV?$StrTraitMFC_DLL@DV?$ChTraitsCRT@D@ATL@@@@@ATL@@PBDVCPaneBase@ETSLayoutMgr@@V34@@@IBEPAVCAssoc@1@PBDAAI1@Z
_TEXT	SEGMENT PARA USE32 PUBLIC 'CODE'
_TEXT	ENDS
;	COMDAT ?SetSize@?$CArray@UElemPos@CMarkup@@AAU12@@@QAEXHH@Z
_TEXT	SEGMENT PARA USE32 PUBLIC 'CODE'
_TEXT	ENDS
;	COMDAT ??$SerializeElements@UElemPos@CMarkup@@@@YGXAAVCArchive@@PAUElemPos@CMarkup@@H@Z
_TEXT	SEGMENT PARA USE32 PUBLIC 'CODE'
_TEXT	ENDS
;	COMDAT ??1CAssoc@?$CMap@V?$CStringT@DV?$StrTraitMFC_DLL@DV?$ChTraitsCRT@D@ATL@@@@@ATL@@PBDVCPaneBase@ETSLayoutMgr@@V34@@@QAE@XZ
_TEXT	SEGMENT PARA USE32 PUBLIC 'CODE'
_TEXT	ENDS
;	COMDAT ??1CPair@?$CMap@V?$CStringT@DV?$StrTraitMFC_DLL@DV?$ChTraitsCRT@D@ATL@@@@@ATL@@PBDVCPaneBase@ETSLayoutMgr@@V34@@@QAE@XZ
_TEXT	SEGMENT PARA USE32 PUBLIC 'CODE'
_TEXT	ENDS
;	COMDAT ?InitHashTable@?$CMap@V?$CStringT@DV?$StrTraitMFC_DLL@DV?$ChTraitsCRT@D@ATL@@@@@ATL@@PBDVCPaneBase@ETSLayoutMgr@@V34@@@QAEXIH@Z
_TEXT	SEGMENT PARA USE32 PUBLIC 'CODE'
_TEXT	ENDS
;	COMDAT ?NewAssoc@?$CMap@V?$CStringT@DV?$StrTraitMFC_DLL@DV?$ChTraitsCRT@D@ATL@@@@@ATL@@PBDVCPaneBase@ETSLayoutMgr@@V34@@@IAEPAVCAssoc@1@PBD@Z
_TEXT	SEGMENT PARA USE32 PUBLIC 'CODE'
_TEXT	ENDS
;	COMDAT ??$CompareElements@V?$CStringT@DV?$StrTraitMFC_DLL@DV?$ChTraitsCRT@D@ATL@@@@@ATL@@PBD@@YGHPBV?$CStringT@DV?$StrTraitMFC_DLL@DV?$ChTraitsCRT@D@ATL@@@@@ATL@@PBQBD@Z
_TEXT	SEGMENT PARA USE32 PUBLIC 'CODE'
_TEXT	ENDS
;	COMDAT ??0CAssoc@?$CMap@V?$CStringT@DV?$StrTraitMFC_DLL@DV?$ChTraitsCRT@D@ATL@@@@@ATL@@PBDVCPaneBase@ETSLayoutMgr@@V34@@@QAE@PBD@Z
_TEXT	SEGMENT PARA USE32 PUBLIC 'CODE'
_TEXT	ENDS
;	COMDAT ??0CPair@?$CMap@V?$CStringT@DV?$StrTraitMFC_DLL@DV?$ChTraitsCRT@D@ATL@@@@@ATL@@PBDVCPaneBase@ETSLayoutMgr@@V34@@@IAE@PBD@Z
_TEXT	SEGMENT PARA USE32 PUBLIC 'CODE'
_TEXT	ENDS
;	COMDAT ??_R3ETSLayoutMgr@@8
rdata$r	SEGMENT DWORD USE32 PUBLIC 'CONST'
rdata$r	ENDS
;	COMDAT ??_R3CMarkup@@8
rdata$r	SEGMENT DWORD USE32 PUBLIC 'CONST'
rdata$r	ENDS
;	COMDAT ??_R3?$CMap@V?$CStringT@DV?$StrTraitMFC_DLL@DV?$ChTraitsCRT@D@ATL@@@@@ATL@@PBDVCPaneBase@ETSLayoutMgr@@V34@@@8
rdata$r	SEGMENT DWORD USE32 PUBLIC 'CONST'
rdata$r	ENDS
;	COMDAT ??_R3?$CArray@VCPaneBase@ETSLayoutMgr@@V12@@@8
rdata$r	SEGMENT DWORD USE32 PUBLIC 'CONST'
rdata$r	ENDS
;	COMDAT ??_R3PaneSplitter@ETSLayoutMgr@@8
rdata$r	SEGMENT DWORD USE32 PUBLIC 'CONST'
rdata$r	ENDS
;	COMDAT ??_R3?$CArray@MM@@8
rdata$r	SEGMENT DWORD USE32 PUBLIC 'CONST'
rdata$r	ENDS
;	COMDAT ??_R3PanePosition@ETSLayoutMgr@@8
rdata$r	SEGMENT DWORD USE32 PUBLIC 'CONST'
rdata$r	ENDS
;	COMDAT ??_R3PaneBase@ETSLayoutMgr@@8
rdata$r	SEGMENT DWORD USE32 PUBLIC 'CONST'
rdata$r	ENDS
;	COMDAT ??_R3CMarkupArchive@@8
rdata$r	SEGMENT DWORD USE32 PUBLIC 'CONST'
rdata$r	ENDS
;	COMDAT ??_R3?$CArray@UElemPos@CMarkup@@AAU12@@@8
rdata$r	SEGMENT DWORD USE32 PUBLIC 'CONST'
rdata$r	ENDS
;	COMDAT ??_R3?$numpunct@_W@std@@8
rdata$r	SEGMENT DWORD USE32 PUBLIC 'CONST'
rdata$r	ENDS
;	COMDAT ??_R3?$numpunct@D@std@@8
rdata$r	SEGMENT DWORD USE32 PUBLIC 'CONST'
rdata$r	ENDS
;	COMDAT ??_R2ETSLayoutMgr@@8
rdata$r	SEGMENT DWORD USE32 PUBLIC 'CONST'
rdata$r	ENDS
;	COMDAT ??_R2CMarkup@@8
rdata$r	SEGMENT DWORD USE32 PUBLIC 'CONST'
rdata$r	ENDS
;	COMDAT ??_R2?$CMap@V?$CStringT@DV?$StrTraitMFC_DLL@DV?$ChTraitsCRT@D@ATL@@@@@ATL@@PBDVCPaneBase@ETSLayoutMgr@@V34@@@8
rdata$r	SEGMENT DWORD USE32 PUBLIC 'CONST'
rdata$r	ENDS
;	COMDAT ??_R2?$CArray@VCPaneBase@ETSLayoutMgr@@V12@@@8
rdata$r	SEGMENT DWORD USE32 PUBLIC 'CONST'
rdata$r	ENDS
;	COMDAT ??_R2PaneSplitter@ETSLayoutMgr@@8
rdata$r	SEGMENT DWORD USE32 PUBLIC 'CONST'
rdata$r	ENDS
;	COMDAT ??_R2?$CArray@MM@@8
rdata$r	SEGMENT DWORD USE32 PUBLIC 'CONST'
rdata$r	ENDS
;	COMDAT ??_R2PanePosition@ETSLayoutMgr@@8
rdata$r	SEGMENT DWORD USE32 PUBLIC 'CONST'
rdata$r	ENDS
;	COMDAT ??_R2PaneBase@ETSLayoutMgr@@8
rdata$r	SEGMENT DWORD USE32 PUBLIC 'CONST'
rdata$r	ENDS
;	COMDAT ??_R2CMarkupArchive@@8
rdata$r	SEGMENT DWORD USE32 PUBLIC 'CONST'
rdata$r	ENDS
;	COMDAT ??_R2?$CArray@UElemPos@CMarkup@@AAU12@@@8
rdata$r	SEGMENT DWORD USE32 PUBLIC 'CONST'
rdata$r	ENDS
;	COMDAT ??_R2?$numpunct@_W@std@@8
rdata$r	SEGMENT DWORD USE32 PUBLIC 'CONST'
rdata$r	ENDS
;	COMDAT ??_R2?$numpunct@D@std@@8
rdata$r	SEGMENT DWORD USE32 PUBLIC 'CONST'
rdata$r	ENDS
;	COMDAT ??_R1A@?0A@A@ETSLayoutMgr@@8
rdata$r	SEGMENT DWORD USE32 PUBLIC 'CONST'
rdata$r	ENDS
;	COMDAT ??_R1A@?0A@A@?$CMap@V?$CStringT@DV?$StrTraitMFC_DLL@DV?$ChTraitsCRT@D@ATL@@@@@ATL@@PBDVCPaneBase@ETSLayoutMgr@@V34@@@8
rdata$r	SEGMENT DWORD USE32 PUBLIC 'CONST'
rdata$r	ENDS
;	COMDAT ??_R1A@?0A@A@?$CArray@VCPaneBase@ETSLayoutMgr@@V12@@@8
rdata$r	SEGMENT DWORD USE32 PUBLIC 'CONST'
rdata$r	ENDS
;	COMDAT ??_R1A@?0A@A@PaneSplitter@ETSLayoutMgr@@8
rdata$r	SEGMENT DWORD USE32 PUBLIC 'CONST'
rdata$r	ENDS
;	COMDAT ??_R1A@?0A@A@?$CArray@MM@@8
rdata$r	SEGMENT DWORD USE32 PUBLIC 'CONST'
rdata$r	ENDS
;	COMDAT ??_R1A@?0A@A@Pane@ETSLayoutMgr@@8
rdata$r	SEGMENT DWORD USE32 PUBLIC 'CONST'
rdata$r	ENDS
;	COMDAT ??_R1A@?0A@A@PanePosition@ETSLayoutMgr@@8
rdata$r	SEGMENT DWORD USE32 PUBLIC 'CONST'
rdata$r	ENDS
;	COMDAT ??_R1A@?0A@A@PaneBase@ETSLayoutMgr@@8
rdata$r	SEGMENT DWORD USE32 PUBLIC 'CONST'
rdata$r	ENDS
;	COMDAT ??_R1A@?0A@A@CMarkup@@8
rdata$r	SEGMENT DWORD USE32 PUBLIC 'CONST'
rdata$r	ENDS
;	COMDAT ??_R1A@?0A@A@CMarkupArchive@@8
rdata$r	SEGMENT DWORD USE32 PUBLIC 'CONST'
rdata$r	ENDS
;	COMDAT ??_R1A@?0A@A@CObject@@8
rdata$r	SEGMENT DWORD USE32 PUBLIC 'CONST'
rdata$r	ENDS
;	COMDAT ??_R0?AVCObject@@@8
_DATA	SEGMENT DWORD USE32 PUBLIC 'DATA'
_DATA	ENDS
;	COMDAT ??_R1A@?0A@A@?$CArray@UElemPos@CMarkup@@AAU12@@@8
rdata$r	SEGMENT DWORD USE32 PUBLIC 'CONST'
rdata$r	ENDS
;	COMDAT ??_R1A@?0A@A@?$numpunct@_W@std@@8
rdata$r	SEGMENT DWORD USE32 PUBLIC 'CONST'
rdata$r	ENDS
;	COMDAT ??_R1A@?0A@A@facet@locale@std@@8
rdata$r	SEGMENT DWORD USE32 PUBLIC 'CONST'
rdata$r	ENDS
;	COMDAT ??_R0?AVfacet@locale@std@@@8
_DATA	SEGMENT DWORD USE32 PUBLIC 'DATA'
_DATA	ENDS
;	COMDAT ??_R1A@?0A@A@?$numpunct@D@std@@8
rdata$r	SEGMENT DWORD USE32 PUBLIC 'CONST'
rdata$r	ENDS
;	COMDAT ??_R0?AVETSLayoutMgr@@@8
_DATA	SEGMENT DWORD USE32 PUBLIC 'DATA'
_DATA	ENDS
;	COMDAT ??_R0?AV?$CMap@V?$CStringT@DV?$StrTraitMFC_DLL@DV?$ChTraitsCRT@D@ATL@@@@@ATL@@PBDVCPaneBase@ETSLayoutMgr@@V34@@@@8
_DATA	SEGMENT DWORD USE32 PUBLIC 'DATA'
_DATA	ENDS
;	COMDAT ??_R0?AV?$CArray@VCPaneBase@ETSLayoutMgr@@V12@@@@8
_DATA	SEGMENT DWORD USE32 PUBLIC 'DATA'
_DATA	ENDS
;	COMDAT ??_R0?AVPaneSplitter@ETSLayoutMgr@@@8
_DATA	SEGMENT DWORD USE32 PUBLIC 'DATA'
_DATA	ENDS
;	COMDAT ??_R0?AV?$CArray@MM@@@8
_DATA	SEGMENT DWORD USE32 PUBLIC 'DATA'
_DATA	ENDS
;	COMDAT ??_R0?AVPane@ETSLayoutMgr@@@8
_DATA	SEGMENT DWORD USE32 PUBLIC 'DATA'
_DATA	ENDS
;	COMDAT ??_R0?AVPanePosition@ETSLayoutMgr@@@8
_DATA	SEGMENT DWORD USE32 PUBLIC 'DATA'
_DATA	ENDS
;	COMDAT ??_R0?AVPaneBase@ETSLayoutMgr@@@8
_DATA	SEGMENT DWORD USE32 PUBLIC 'DATA'
_DATA	ENDS
;	COMDAT ??_R0?AVCMarkup@@@8
_DATA	SEGMENT DWORD USE32 PUBLIC 'DATA'
_DATA	ENDS
;	COMDAT ??_R0?AVCMarkupArchive@@@8
_DATA	SEGMENT DWORD USE32 PUBLIC 'DATA'
_DATA	ENDS
;	COMDAT ??_R0?AV?$CArray@UElemPos@CMarkup@@AAU12@@@@8
_DATA	SEGMENT DWORD USE32 PUBLIC 'DATA'
_DATA	ENDS
;	COMDAT ??_R0?AV?$numpunct@_W@std@@@8
_DATA	SEGMENT DWORD USE32 PUBLIC 'DATA'
_DATA	ENDS
;	COMDAT ??_R0?AV?$numpunct@D@std@@@8
_DATA	SEGMENT DWORD USE32 PUBLIC 'DATA'
_DATA	ENDS
;	COMDAT ??_R4ETSLayoutMgr@@6B@
rdata$r	SEGMENT DWORD USE32 PUBLIC 'CONST'
rdata$r	ENDS
;	COMDAT ??_R4CMarkup@@6B@
rdata$r	SEGMENT DWORD USE32 PUBLIC 'CONST'
rdata$r	ENDS
;	COMDAT ??_R4?$CMap@V?$CStringT@DV?$StrTraitMFC_DLL@DV?$ChTraitsCRT@D@ATL@@@@@ATL@@PBDVCPaneBase@ETSLayoutMgr@@V34@@@6B@
rdata$r	SEGMENT DWORD USE32 PUBLIC 'CONST'
rdata$r	ENDS
;	COMDAT ??_R4?$CArray@VCPaneBase@ETSLayoutMgr@@V12@@@6B@
rdata$r	SEGMENT DWORD USE32 PUBLIC 'CONST'
rdata$r	ENDS
;	COMDAT ??_R4PaneSplitter@ETSLayoutMgr@@6B@
rdata$r	SEGMENT DWORD USE32 PUBLIC 'CONST'
rdata$r	ENDS
;	COMDAT ??_R4?$CArray@MM@@6B@
rdata$r	SEGMENT DWORD USE32 PUBLIC 'CONST'
rdata$r	ENDS
;	COMDAT ??_R4PanePosition@ETSLayoutMgr@@6B@
rdata$r	SEGMENT DWORD USE32 PUBLIC 'CONST'
rdata$r	ENDS
;	COMDAT ??_R4PaneBase@ETSLayoutMgr@@6B@
rdata$r	SEGMENT DWORD USE32 PUBLIC 'CONST'
rdata$r	ENDS
;	COMDAT ??_R4CMarkupArchive@@6B@
rdata$r	SEGMENT DWORD USE32 PUBLIC 'CONST'
rdata$r	ENDS
;	COMDAT ?Dump@CObject@@UBEXAAVCDumpContext@@@Z
_TEXT	SEGMENT PARA USE32 PUBLIC 'CODE'
_TEXT	ENDS
;	COMDAT ?AssertValid@CObject@@UBEXXZ
_TEXT	SEGMENT PARA USE32 PUBLIC 'CODE'
_TEXT	ENDS
;	COMDAT ??_R4?$CArray@UElemPos@CMarkup@@AAU12@@@6B@
rdata$r	SEGMENT DWORD USE32 PUBLIC 'CONST'
rdata$r	ENDS
;	COMDAT ??0?$allocator@_W@std@@QAE@XZ
_TEXT	SEGMENT PARA USE32 PUBLIC 'CODE'
_TEXT	ENDS
;	COMDAT ??_G?$numpunct@_W@std@@MAEPAXI@Z
_TEXT	SEGMENT PARA USE32 PUBLIC 'CODE'
_TEXT	ENDS
;	COMDAT ??_R4?$numpunct@_W@std@@6B@
rdata$r	SEGMENT DWORD USE32 PUBLIC 'CONST'
rdata$r	ENDS
;	COMDAT ??_G?$numpunct@D@std@@MAEPAXI@Z
_TEXT	SEGMENT PARA USE32 PUBLIC 'CODE'
_TEXT	ENDS
;	COMDAT ??_R4?$numpunct@D@std@@6B@
rdata$r	SEGMENT DWORD USE32 PUBLIC 'CONST'
rdata$r	ENDS
;	COMDAT ?GetDefaultManager@?$StrTraitMFC_DLL@DV?$ChTraitsCRT@D@ATL@@@@SAPAUIAtlStringMgr@ATL@@XZ
_TEXT	SEGMENT PARA USE32 PUBLIC 'CODE'
_TEXT	ENDS
;	COMDAT ?FindStringResourceInstance@?$StrTraitMFC_DLL@DV?$ChTraitsCRT@D@ATL@@@@SAPAUHINSTANCE__@@I@Z
_TEXT	SEGMENT PARA USE32 PUBLIC 'CODE'
_TEXT	ENDS
;	COMDAT ?AtlGetStringResourceImage@ATL@@YAPBUATLSTRINGRESOURCEIMAGE@1@PAUHINSTANCE__@@I@Z
_TEXT	SEGMENT PARA USE32 PUBLIC 'CODE'
_TEXT	ENDS
;	COMDAT ?_AtlGetStringResourceImage@ATL@@YAPBUATLSTRINGRESOURCEIMAGE@1@PAUHINSTANCE__@@PAUHRSRC__@@I@Z
_TEXT	SEGMENT PARA USE32 PUBLIC 'CODE'
_TEXT	ENDS
;	COMDAT ?GetBaseTypeLength@?$ChTraitsCRT@D@ATL@@SAHPB_WH@Z
_TEXT	SEGMENT PARA USE32 PUBLIC 'CODE'
_TEXT	ENDS
;	COMDAT ?_AtlGetConversionACP@ATL@@YGIXZ
_TEXT	SEGMENT PARA USE32 PUBLIC 'CODE'
_TEXT	ENDS
;	COMDAT ?g_pfnGetThreadACP@ATL@@3P6GIXZA
_DATA	SEGMENT DWORD USE32 PUBLIC 'DATA'
_DATA	ENDS
;	COMDAT ?_AtlGetThreadACPThunk@ATL@@YGIXZ
_TEXT	SEGMENT PARA USE32 PUBLIC 'CODE'
_TEXT	ENDS
;	COMDAT ?_AtlGetThreadACPReal@ATL@@YGIXZ
_TEXT	SEGMENT PARA USE32 PUBLIC 'CODE'
_TEXT	ENDS
;	COMDAT ?_AtlGetThreadACPFake@ATL@@YGIXZ
_TEXT	SEGMENT PARA USE32 PUBLIC 'CODE'
_TEXT	ENDS
;	COMDAT ?InterlockedExchangePointer@@YGPAXPAPAXPAX@Z
_TEXT	SEGMENT PARA USE32 PUBLIC 'CODE'
_TEXT	ENDS
;	COMDAT ?ConvertToBaseType@?$ChTraitsCRT@D@ATL@@SAXPADHPB_WH@Z
_TEXT	SEGMENT PARA USE32 PUBLIC 'CODE'
_TEXT	ENDS
;	COMDAT ?data@CPlex@@QAEPAXXZ
text$AFX_COL1	SEGMENT PARA USE32 PUBLIC ''
text$AFX_COL1	ENDS
;	COMDAT ??_7?$CArray@UElemPos@CMarkup@@AAU12@@@6B@
CONST	SEGMENT DWORD USE32 PUBLIC 'CONST'
CONST	ENDS
;	COMDAT ??_7?$CMap@V?$CStringT@DV?$StrTraitMFC_DLL@DV?$ChTraitsCRT@D@ATL@@@@@ATL@@PBDVCPaneBase@ETSLayoutMgr@@V34@@@6B@
CONST	SEGMENT DWORD USE32 PUBLIC 'CONST'
CONST	ENDS
;	COMDAT ??_7?$CArray@VCPaneBase@ETSLayoutMgr@@V12@@@6B@
CONST	SEGMENT DWORD USE32 PUBLIC 'CONST'
CONST	ENDS
;	COMDAT ?IsStoring@CArchive@@QBEHXZ
_TEXT	SEGMENT PARA USE32 PUBLIC 'CODE'
_TEXT	ENDS
;	COMDAT ?Serialize@CObject@@UAEXAAVCArchive@@@Z
_TEXT	SEGMENT PARA USE32 PUBLIC 'CODE'
_TEXT	ENDS
;	COMDAT ??_7?$CArray@MM@@6B@
CONST	SEGMENT DWORD USE32 PUBLIC 'CONST'
CONST	ENDS
;	COMDAT ??1CObject@@UAE@XZ
_TEXT	SEGMENT PARA USE32 PUBLIC 'CODE'
_TEXT	ENDS
;	COMDAT ??0CObject@@IAE@XZ
_TEXT	SEGMENT PARA USE32 PUBLIC 'CODE'
_TEXT	ENDS
;	COMDAT ?_Psave@?$_Facetptr@V?$numpunct@_W@std@@@std@@2PBVfacet@locale@2@B
_DATA	SEGMENT DWORD USE32 PUBLIC 'DATA'
_DATA	ENDS
;	COMDAT ?_Psave@?$_Facetptr@V?$numpunct@D@std@@@std@@2PBVfacet@locale@2@B
_DATA	SEGMENT DWORD USE32 PUBLIC 'DATA'
_DATA	ENDS
;	COMDAT ?Unlock@CComCriticalSection@ATL@@QAEJXZ
_TEXT	SEGMENT PARA USE32 PUBLIC 'CODE'
_TEXT	ENDS
;	COMDAT ?_Psave@?$_Facetptr@V?$ctype@_W@std@@@std@@2PBVfacet@locale@2@B
_DATA	SEGMENT DWORD USE32 PUBLIC 'DATA'
_DATA	ENDS
;	COMDAT ?_Psave@?$_Facetptr@V?$ctype@D@std@@@std@@2PBVfacet@locale@2@B
_DATA	SEGMENT DWORD USE32 PUBLIC 'DATA'
_DATA	ENDS
;	COMDAT ??3@YAXPAX0@Z
_TEXT	SEGMENT PARA USE32 PUBLIC 'CODE'
_TEXT	ENDS
;	COMDAT ??2@YAPAXIPAX@Z
_TEXT	SEGMENT PARA USE32 PUBLIC 'CODE'
_TEXT	ENDS
;	COMDAT ??$_Maklocchr@_W@std@@YA_WDPA_WABU_Cvtvec@@@Z
_TEXT	SEGMENT PARA USE32 PUBLIC 'CODE'
_TEXT	ENDS
;	COMDAT ??$_Maklocstr@_W@std@@YAPA_WPBDPA_WABU_Cvtvec@@@Z
_TEXT	SEGMENT PARA USE32 PUBLIC 'CODE'
_TEXT	ENDS
;	COMDAT ??$_Maklocchr@D@std@@YADDPADABU_Cvtvec@@@Z
_TEXT	SEGMENT PARA USE32 PUBLIC 'CODE'
_TEXT	ENDS
;	COMDAT ??_C@_04LOAJBDKD@true?$AA@
CONST	SEGMENT DWORD USE32 PUBLIC 'CONST'
CONST	ENDS
;	COMDAT ??_C@_05LAPONLG@false?$AA@
CONST	SEGMENT DWORD USE32 PUBLIC 'CONST'
CONST	ENDS
;	COMDAT _wmemcpy
_TEXT	SEGMENT PARA USE32 PUBLIC 'CODE'
_TEXT	ENDS
;	COMDAT ?max_size@?$allocator@_W@std@@QBEIXZ
_TEXT	SEGMENT PARA USE32 PUBLIC 'CODE'
_TEXT	ENDS
;	COMDAT ?allocate@?$allocator@_W@std@@QAEPA_WI@Z
_TEXT	SEGMENT PARA USE32 PUBLIC 'CODE'
_TEXT	ENDS
;	COMDAT ??$_Allocate@_W@std@@YAPA_WIPA_W@Z
_TEXT	SEGMENT PARA USE32 PUBLIC 'CODE'
_TEXT	ENDS
;	COMDAT ?data@CStringData@ATL@@QAEPAXXZ
_TEXT	SEGMENT PARA USE32 PUBLIC 'CODE'
_TEXT	ENDS
;	COMDAT ?AtlThrow@ATL@@YGXJ@Z
_TEXT	SEGMENT PARA USE32 PUBLIC 'CODE'
_TEXT	ENDS
;	COMDAT ??_7length_error@std@@6B@
CONST	SEGMENT DWORD USE32 PUBLIC 'CONST'
CONST	ENDS
;	COMDAT ??_R4length_error@std@@6B@
rdata$r	SEGMENT DWORD USE32 PUBLIC 'CONST'
rdata$r	ENDS
;	COMDAT ??_R3length_error@std@@8
rdata$r	SEGMENT DWORD USE32 PUBLIC 'CONST'
rdata$r	ENDS
;	COMDAT ??_R2length_error@std@@8
rdata$r	SEGMENT DWORD USE32 PUBLIC 'CONST'
rdata$r	ENDS
;	COMDAT ??_R1A@?0A@A@length_error@std@@8
rdata$r	SEGMENT DWORD USE32 PUBLIC 'CONST'
rdata$r	ENDS
;	COMDAT ??_R1A@?0A@A@logic_error@std@@8
rdata$r	SEGMENT DWORD USE32 PUBLIC 'CONST'
rdata$r	ENDS
;	COMDAT ??_R0?AVlogic_error@std@@@8
_DATA	SEGMENT DWORD USE32 PUBLIC 'DATA'
_DATA	ENDS
;	COMDAT ??_R1A@?0A@A@exception@@8
rdata$r	SEGMENT DWORD USE32 PUBLIC 'CONST'
rdata$r	ENDS
;	COMDAT ??_R0?AVexception@@@8
_DATA	SEGMENT DWORD USE32 PUBLIC 'DATA'
_DATA	ENDS
;	COMDAT ??_Glength_error@std@@UAEPAXI@Z
_TEXT	SEGMENT PARA USE32 PUBLIC 'CODE'
_TEXT	ENDS
;	COMDAT ?what@logic_error@std@@UBEPBDXZ
_TEXT	SEGMENT PARA USE32 PUBLIC 'CODE'
_TEXT	ENDS
;	COMDAT ??1logic_error@std@@UAE@XZ
_TEXT	SEGMENT PARA USE32 PUBLIC 'CODE'
_TEXT	ENDS
;	COMDAT ??_7logic_error@std@@6B@
CONST	SEGMENT DWORD USE32 PUBLIC 'CONST'
CONST	ENDS
;	COMDAT ??_R4logic_error@std@@6B@
rdata$r	SEGMENT DWORD USE32 PUBLIC 'CONST'
rdata$r	ENDS
;	COMDAT ??_R3logic_error@std@@8
rdata$r	SEGMENT DWORD USE32 PUBLIC 'CONST'
rdata$r	ENDS
;	COMDAT ??_R2logic_error@std@@8
rdata$r	SEGMENT DWORD USE32 PUBLIC 'CONST'
rdata$r	ENDS
;	COMDAT ??_Glogic_error@std@@UAEPAXI@Z
_TEXT	SEGMENT PARA USE32 PUBLIC 'CODE'
_TEXT	ENDS
;	COMDAT ??0logic_error@std@@QAE@ABV01@@Z
_TEXT	SEGMENT PARA USE32 PUBLIC 'CODE'
_TEXT	ENDS
;	COMDAT ??0?$allocator@D@std@@QAE@ABV01@@Z
_TEXT	SEGMENT PARA USE32 PUBLIC 'CODE'
_TEXT	ENDS
;	COMDAT ?deallocate@?$allocator@D@std@@QAEXPADI@Z
_TEXT	SEGMENT PARA USE32 PUBLIC 'CODE'
_TEXT	ENDS
;	COMDAT ?max_size@?$allocator@D@std@@QBEIXZ
_TEXT	SEGMENT PARA USE32 PUBLIC 'CODE'
_TEXT	ENDS
;	COMDAT ?allocate@?$allocator@D@std@@QAEPADI@Z
_TEXT	SEGMENT PARA USE32 PUBLIC 'CODE'
_TEXT	ENDS
;	COMDAT ??$_Allocate@D@std@@YAPADIPAD@Z
_TEXT	SEGMENT PARA USE32 PUBLIC 'CODE'
_TEXT	ENDS
;	COMDAT __CTA3?AVlength_error@std@@
xdata$x	SEGMENT DWORD USE32 PUBLIC 'CONST'
xdata$x	ENDS
;	COMDAT ??1length_error@std@@UAE@XZ
_TEXT	SEGMENT PARA USE32 PUBLIC 'CODE'
_TEXT	ENDS
;	COMDAT __CT??_R0?AVexception@@@8??0exception@@QAE@ABV0@@Z12
xdata$x	SEGMENT DWORD USE32 PUBLIC 'CONST'
xdata$x	ENDS
;	COMDAT __CT??_R0?AVlogic_error@std@@@8??0logic_error@std@@QAE@ABV01@@Z40
xdata$x	SEGMENT DWORD USE32 PUBLIC 'CONST'
xdata$x	ENDS
;	COMDAT __CT??_R0?AVlength_error@std@@@8??0length_error@std@@QAE@ABV01@@Z40
xdata$x	SEGMENT DWORD USE32 PUBLIC 'CONST'
xdata$x	ENDS
;	COMDAT ??_R0?AVlength_error@std@@@8
_DATA	SEGMENT DWORD USE32 PUBLIC 'DATA'
_DATA	ENDS
;	COMDAT __TI3?AVlength_error@std@@
xdata$x	SEGMENT DWORD USE32 PUBLIC 'CONST'
xdata$x	ENDS
;	COMDAT ??0?$allocator@D@std@@QAE@XZ
_TEXT	SEGMENT PARA USE32 PUBLIC 'CODE'
_TEXT	ENDS
;	COMDAT ??0length_error@std@@QAE@ABV?$basic_string@DU?$char_traits@D@std@@V?$allocator@D@2@@1@@Z
_TEXT	SEGMENT PARA USE32 PUBLIC 'CODE'
_TEXT	ENDS
;	COMDAT ??0logic_error@std@@QAE@ABV?$basic_string@DU?$char_traits@D@std@@V?$allocator@D@2@@1@@Z
_TEXT	SEGMENT PARA USE32 PUBLIC 'CODE'
_TEXT	ENDS
;	COMDAT ??_C@_01GFHCPBMG@C?$AA@
CONST	SEGMENT DWORD USE32 PUBLIC 'CONST'
CONST	ENDS
;	COMDAT ?Release@CStringData@ATL@@QAEXXZ
_TEXT	SEGMENT PARA USE32 PUBLIC 'CODE'
_TEXT	ENDS
;	COMDAT ?IsShared@CStringData@ATL@@QBE_NXZ
_TEXT	SEGMENT PARA USE32 PUBLIC 'CODE'
_TEXT	ENDS
;	COMDAT ?_Peek@?$istreambuf_iterator@_WU?$char_traits@_W@std@@@std@@AAE_WXZ
_TEXT	SEGMENT PARA USE32 PUBLIC 'CODE'
_TEXT	ENDS
;	COMDAT ?_Peek@?$istreambuf_iterator@DU?$char_traits@D@std@@@std@@AAEDXZ
_TEXT	SEGMENT PARA USE32 PUBLIC 'CODE'
_TEXT	ENDS
;	COMDAT ??$use_facet@V?$ctype@_W@std@@@std@@YAABV?$ctype@_W@0@ABVlocale@0@@Z
_TEXT	SEGMENT PARA USE32 PUBLIC 'CODE'
_TEXT	ENDS
;	COMDAT ??_S?$ctype@_W@std@@6B@
CONST	SEGMENT DWORD USE32 PUBLIC 'CONST'
CONST	ENDS
;	COMDAT ??_R4?$ctype@_W@std@@6B@
rdata$r	SEGMENT DWORD USE32 PUBLIC 'CONST'
rdata$r	ENDS
;	COMDAT ??_R0?AV?$ctype@_W@std@@@8
_DATA	SEGMENT DWORD USE32 PUBLIC 'DATA'
_DATA	ENDS
;	COMDAT ??_R3?$ctype@_W@std@@8
rdata$r	SEGMENT DWORD USE32 PUBLIC 'CONST'
rdata$r	ENDS
;	COMDAT ??_R2?$ctype@_W@std@@8
rdata$r	SEGMENT DWORD USE32 PUBLIC 'CONST'
rdata$r	ENDS
;	COMDAT ??_R1A@?0A@A@?$ctype@_W@std@@8
rdata$r	SEGMENT DWORD USE32 PUBLIC 'CONST'
rdata$r	ENDS
;	COMDAT ??_R1A@?0A@A@ctype_base@std@@8
rdata$r	SEGMENT DWORD USE32 PUBLIC 'CONST'
rdata$r	ENDS
;	COMDAT ??_R0?AUctype_base@std@@@8
_DATA	SEGMENT DWORD USE32 PUBLIC 'DATA'
_DATA	ENDS
;	COMDAT ??_G?$ctype@_W@std@@MAEPAXI@Z
_TEXT	SEGMENT PARA USE32 PUBLIC 'CODE'
_TEXT	ENDS
;	COMDAT ??_C@_08EPJLHIJG@bad?5cast?$AA@
CONST	SEGMENT DWORD USE32 PUBLIC 'CONST'
CONST	ENDS
;	COMDAT __TI2?AVbad_cast@@
xdata$x	SEGMENT DWORD USE32 PUBLIC 'CONST'
xdata$x	ENDS
;	COMDAT __CTA2?AVbad_cast@@
xdata$x	SEGMENT DWORD USE32 PUBLIC 'CONST'
xdata$x	ENDS
;	COMDAT __CT??_R0?AVbad_cast@@@8??0bad_cast@@QAE@ABV0@@Z12
xdata$x	SEGMENT DWORD USE32 PUBLIC 'CONST'
xdata$x	ENDS
;	COMDAT ??_R0?AVbad_cast@@@8
_DATA	SEGMENT DWORD USE32 PUBLIC 'DATA'
_DATA	ENDS
;	COMDAT ??$use_facet@V?$ctype@D@std@@@std@@YAABV?$ctype@D@0@ABVlocale@0@@Z
_TEXT	SEGMENT PARA USE32 PUBLIC 'CODE'
_TEXT	ENDS
;	COMDAT ??_S?$ctype@D@std@@6B@
CONST	SEGMENT DWORD USE32 PUBLIC 'CONST'
CONST	ENDS
;	COMDAT ??_R4?$ctype@D@std@@6B@
rdata$r	SEGMENT DWORD USE32 PUBLIC 'CONST'
rdata$r	ENDS
;	COMDAT ??_R0?AV?$ctype@D@std@@@8
_DATA	SEGMENT DWORD USE32 PUBLIC 'DATA'
_DATA	ENDS
;	COMDAT ??_R3?$ctype@D@std@@8
rdata$r	SEGMENT DWORD USE32 PUBLIC 'CONST'
rdata$r	ENDS
;	COMDAT ??_R2?$ctype@D@std@@8
rdata$r	SEGMENT DWORD USE32 PUBLIC 'CONST'
rdata$r	ENDS
;	COMDAT ??_R1A@?0A@A@?$ctype@D@std@@8
rdata$r	SEGMENT DWORD USE32 PUBLIC 'CONST'
rdata$r	ENDS
;	COMDAT ??_G?$ctype@D@std@@MAEPAXI@Z
_TEXT	SEGMENT PARA USE32 PUBLIC 'CODE'
_TEXT	ENDS
;	COMDAT ??_S?$numpunct@_W@std@@6B@
CONST	SEGMENT DWORD USE32 PUBLIC 'CONST'
CONST	ENDS
;	COMDAT ??_S?$numpunct@D@std@@6B@
CONST	SEGMENT DWORD USE32 PUBLIC 'CONST'
CONST	ENDS
;	COMDAT _wmemmove
_TEXT	SEGMENT PARA USE32 PUBLIC 'CODE'
_TEXT	ENDS
;	COMDAT ?deallocate@?$allocator@_W@std@@QAEXPA_WI@Z
_TEXT	SEGMENT PARA USE32 PUBLIC 'CODE'
_TEXT	ENDS
;	COMDAT ??0?$allocator@_W@std@@QAE@ABV01@@Z
_TEXT	SEGMENT PARA USE32 PUBLIC 'CODE'
_TEXT	ENDS
;	COMDAT ??1CMemDC@@UAE@XZ
_TEXT	SEGMENT PARA USE32 PUBLIC 'CODE'
_TEXT	ENDS
;	COMDAT ??_7CMemDC@@6B@
CONST	SEGMENT DWORD USE32 PUBLIC 'CONST'
CONST	ENDS
;	COMDAT ??_R4CMemDC@@6B@
rdata$r	SEGMENT DWORD USE32 PUBLIC 'CONST'
rdata$r	ENDS
;	COMDAT ??_R0?AVCMemDC@@@8
_DATA	SEGMENT DWORD USE32 PUBLIC 'DATA'
_DATA	ENDS
;	COMDAT ??_R3CMemDC@@8
rdata$r	SEGMENT DWORD USE32 PUBLIC 'CONST'
rdata$r	ENDS
;	COMDAT ??_R2CMemDC@@8
rdata$r	SEGMENT DWORD USE32 PUBLIC 'CONST'
rdata$r	ENDS
;	COMDAT ??_R1A@?0A@A@CMemDC@@8
rdata$r	SEGMENT DWORD USE32 PUBLIC 'CONST'
rdata$r	ENDS
;	COMDAT ??_R1A@?0A@A@CDC@@8
rdata$r	SEGMENT DWORD USE32 PUBLIC 'CONST'
rdata$r	ENDS
;	COMDAT ??_R0?AVCDC@@@8
_DATA	SEGMENT DWORD USE32 PUBLIC 'DATA'
_DATA	ENDS
;	COMDAT ??_GCMemDC@@UAEPAXI@Z
_TEXT	SEGMENT PARA USE32 PUBLIC 'CODE'
_TEXT	ENDS
;	COMDAT ?PtVisible@CDC@@UBEHHH@Z
_TEXT	SEGMENT PARA USE32 PUBLIC 'CODE'
_TEXT	ENDS
;	COMDAT ?RectVisible@CDC@@UBEHPBUtagRECT@@@Z
_TEXT	SEGMENT PARA USE32 PUBLIC 'CODE'
_TEXT	ENDS
;	COMDAT ?TextOutA@CDC@@UAEHHHPBDH@Z
_TEXT	SEGMENT PARA USE32 PUBLIC 'CODE'
_TEXT	ENDS
;	COMDAT ?ExtTextOutA@CDC@@UAEHHHIPBUtagRECT@@PBDIPAH@Z
_TEXT	SEGMENT PARA USE32 PUBLIC 'CODE'
_TEXT	ENDS
;	COMDAT ?TabbedTextOutA@CDC@@UAE?AVCSize@@HHPBDHHPAHH@Z
_TEXT	SEGMENT PARA USE32 PUBLIC 'CODE'
_TEXT	ENDS
;	COMDAT ??0CSize@@QAE@K@Z
_TEXT	SEGMENT PARA USE32 PUBLIC 'CODE'
_TEXT	ENDS
;	COMDAT ?DrawTextA@CDC@@UAEHPBDHPAUtagRECT@@I@Z
_TEXT	SEGMENT PARA USE32 PUBLIC 'CODE'
_TEXT	ENDS
;	COMDAT ?DrawTextExA@CDC@@UAEHPADHPAUtagRECT@@IPAUtagDRAWTEXTPARAMS@@@Z
_TEXT	SEGMENT PARA USE32 PUBLIC 'CODE'
_TEXT	ENDS
;	COMDAT ?GrayStringA@CDC@@UAEHPAVCBrush@@P6GHPAUHDC__@@JH@ZJHHHHH@Z
_TEXT	SEGMENT PARA USE32 PUBLIC 'CODE'
_TEXT	ENDS
;	COMDAT ?GetSafeHandle@CGdiObject@@QBEPAXXZ
_TEXT	SEGMENT PARA USE32 PUBLIC 'CODE'
_TEXT	ENDS
;	COMDAT ?Escape@CDC@@UAEHHHPBDPAX@Z
_TEXT	SEGMENT PARA USE32 PUBLIC 'CODE'
_TEXT	ENDS
;	COMDAT ?BitBlt@CDC@@QAEHHHHHPAV1@HHK@Z
_TEXT	SEGMENT PARA USE32 PUBLIC 'CODE'
_TEXT	ENDS
;	COMDAT ?GetSafeHdc@CDC@@QBEPAUHDC__@@XZ
_TEXT	SEGMENT PARA USE32 PUBLIC 'CODE'
_TEXT	ENDS
;	COMDAT ?SelectObject@CDC@@QAEPAVCBitmap@@PAV2@@Z
_TEXT	SEGMENT PARA USE32 PUBLIC 'CODE'
_TEXT	ENDS
;	COMDAT ??0CRect@@QAE@PBUtagRECT@@@Z
_TEXT	SEGMENT PARA USE32 PUBLIC 'CODE'
_TEXT	ENDS
;	COMDAT ??0CMemDC@@QAE@PAVCDC@@ABVCRect@@@Z
_TEXT	SEGMENT PARA USE32 PUBLIC 'CODE'
_TEXT	ENDS
;	COMDAT ?CreateCompatibleDC@CDC@@QAEHPAV1@@Z
_TEXT	SEGMENT PARA USE32 PUBLIC 'CODE'
_TEXT	ENDS
;	COMDAT ??0CBitmap@@QAE@XZ
_TEXT	SEGMENT PARA USE32 PUBLIC 'CODE'
_TEXT	ENDS
;	COMDAT ??0CGdiObject@@QAE@XZ
_TEXT	SEGMENT PARA USE32 PUBLIC 'CODE'
_TEXT	ENDS
;	COMDAT ??_7CGdiObject@@6B@
CONST	SEGMENT DWORD USE32 PUBLIC 'CONST'
CONST	ENDS
;	COMDAT ??_R4CGdiObject@@6B@
rdata$r	SEGMENT DWORD USE32 PUBLIC 'CONST'
rdata$r	ENDS
;	COMDAT ??_R0?AVCGdiObject@@@8
_DATA	SEGMENT DWORD USE32 PUBLIC 'DATA'
_DATA	ENDS
;	COMDAT ??_R3CGdiObject@@8
rdata$r	SEGMENT DWORD USE32 PUBLIC 'CONST'
rdata$r	ENDS
;	COMDAT ??_R2CGdiObject@@8
rdata$r	SEGMENT DWORD USE32 PUBLIC 'CONST'
rdata$r	ENDS
;	COMDAT ??_R1A@?0A@A@CGdiObject@@8
rdata$r	SEGMENT DWORD USE32 PUBLIC 'CONST'
rdata$r	ENDS
;	COMDAT ??_GCGdiObject@@UAEPAXI@Z
_TEXT	SEGMENT PARA USE32 PUBLIC 'CODE'
_TEXT	ENDS
;	COMDAT ??1CGdiObject@@UAE@XZ
_TEXT	SEGMENT PARA USE32 PUBLIC 'CODE'
_TEXT	ENDS
;	COMDAT ??_7CBitmap@@6B@
CONST	SEGMENT DWORD USE32 PUBLIC 'CONST'
CONST	ENDS
;	COMDAT ??_R4CBitmap@@6B@
rdata$r	SEGMENT DWORD USE32 PUBLIC 'CONST'
rdata$r	ENDS
;	COMDAT ??_R0?AVCBitmap@@@8
_DATA	SEGMENT DWORD USE32 PUBLIC 'DATA'
_DATA	ENDS
;	COMDAT ??_R3CBitmap@@8
rdata$r	SEGMENT DWORD USE32 PUBLIC 'CONST'
rdata$r	ENDS
;	COMDAT ??_R2CBitmap@@8
rdata$r	SEGMENT DWORD USE32 PUBLIC 'CONST'
rdata$r	ENDS
;	COMDAT ??_R1A@?0A@A@CBitmap@@8
rdata$r	SEGMENT DWORD USE32 PUBLIC 'CONST'
rdata$r	ENDS
;	COMDAT ??_GCBitmap@@UAEPAXI@Z
_TEXT	SEGMENT PARA USE32 PUBLIC 'CODE'
_TEXT	ENDS
;	COMDAT ??1CBitmap@@UAE@XZ
_TEXT	SEGMENT PARA USE32 PUBLIC 'CODE'
_TEXT	ENDS
;	COMDAT ?CreateCompatibleBitmap@CBitmap@@QAEHPAVCDC@@HH@Z
_TEXT	SEGMENT PARA USE32 PUBLIC 'CODE'
_TEXT	ENDS
;	COMDAT ?GetWindowRect@CWnd@@QBEXPAUtagRECT@@@Z
_TEXT	SEGMENT PARA USE32 PUBLIC 'CODE'
_TEXT	ENDS
;	COMDAT ?SetAt@CMapStringToString@@QAEXPBD0@Z
_TEXT	SEGMENT PARA USE32 PUBLIC 'CODE'
_TEXT	ENDS
;	COMDAT ??_7PanePosition@ETSLayoutMgr@@6B@
CONST	SEGMENT DWORD USE32 PUBLIC 'CONST'
CONST	ENDS
;	COMDAT ?InflateRect@CRect@@QAEXHHHH@Z
_TEXT	SEGMENT PARA USE32 PUBLIC 'CODE'
_TEXT	ENDS
;	COMDAT ?Height@CRect@@QBEHXZ
_TEXT	SEGMENT PARA USE32 PUBLIC 'CODE'
_TEXT	ENDS
;	COMDAT ?Width@CRect@@QBEHXZ
_TEXT	SEGMENT PARA USE32 PUBLIC 'CODE'
_TEXT	ENDS
;	COMDAT ??_7PaneSplitter@ETSLayoutMgr@@6B@
CONST	SEGMENT DWORD USE32 PUBLIC 'CONST'
CONST	ENDS
;	COMDAT ??3CObject@@SGXPAX@Z
_TEXT	SEGMENT PARA USE32 PUBLIC 'CODE'
_TEXT	ENDS
;	COMDAT ??2CObject@@SGPAXI@Z
_TEXT	SEGMENT PARA USE32 PUBLIC 'CODE'
_TEXT	ENDS
;	COMDAT ??_7CMarkupArchive@@6B@
CONST	SEGMENT DWORD USE32 PUBLIC 'CONST'
CONST	ENDS
;	COMDAT __tcschr
_TEXT	SEGMENT PARA USE32 PUBLIC 'CODE'
_TEXT	ENDS
;	COMDAT __tcsnccmp
_TEXT	SEGMENT PARA USE32 PUBLIC 'CODE'
_TEXT	ENDS
;	COMDAT ??_7CMarkup@@6B@
CONST	SEGMENT DWORD USE32 PUBLIC 'CONST'
CONST	ENDS
;	COMDAT ??BCRect@@QAEPAUtagRECT@@XZ
_TEXT	SEGMENT PARA USE32 PUBLIC 'CODE'
_TEXT	ENDS
;	COMDAT ?GetClientRect@CWnd@@QBEXPAUtagRECT@@@Z
_TEXT	SEGMENT PARA USE32 PUBLIC 'CODE'
_TEXT	ENDS
;	COMDAT ??0CSize@@QAE@HH@Z
_TEXT	SEGMENT PARA USE32 PUBLIC 'CODE'
_TEXT	ENDS
;	COMDAT ??0CSize@@QAE@XZ
_TEXT	SEGMENT PARA USE32 PUBLIC 'CODE'
_TEXT	ENDS
;	COMDAT ??_7ETSLayoutMgr@@6B@
CONST	SEGMENT DWORD USE32 PUBLIC 'CONST'
CONST	ENDS
;	COMDAT ?IsLocked@CStringData@ATL@@QBE_NXZ
_TEXT	SEGMENT PARA USE32 PUBLIC 'CODE'
_TEXT	ENDS
;	COMDAT ?AddRef@CStringData@ATL@@QAEXXZ
_TEXT	SEGMENT PARA USE32 PUBLIC 'CODE'
_TEXT	ENDS
;	COMDAT ??0CRect@@QAE@HHHH@Z
_TEXT	SEGMENT PARA USE32 PUBLIC 'CODE'
_TEXT	ENDS
;	COMDAT ??0CRect@@QAE@XZ
_TEXT	SEGMENT PARA USE32 PUBLIC 'CODE'
_TEXT	ENDS
;	COMDAT ??_7PaneBase@ETSLayoutMgr@@6B@
CONST	SEGMENT DWORD USE32 PUBLIC 'CONST'
CONST	ENDS
sxdata	SEGMENT DWORD USE32 'SXDATA'
sxdata	ENDS
FLAT	GROUP _DATA, CONST, _BSS
	ASSUME	CS: FLAT, DS: FLAT, SS: FLAT
endif

INCLUDELIB MSVCRT
INCLUDELIB OLDNAMES

PUBLIC	?g_pfnGetThreadACP@ATL@@3P6GIXZA		; ATL::g_pfnGetThreadACP
PUBLIC	?_AtlGetThreadACPThunk@ATL@@YGIXZ		; ATL::_AtlGetThreadACPThunk
CONST	SEGMENT
$SG201119 DB	'SearchResult', 00H
CONST	ENDS
;	COMDAT ?g_pfnGetThreadACP@ATL@@3P6GIXZA
_DATA	SEGMENT
?g_pfnGetThreadACP@ATL@@3P6GIXZA DD FLAT:?_AtlGetThreadACPThunk@ATL@@YGIXZ ; ATL::g_pfnGetThreadACP
_DATA	ENDS
PUBLIC	?InterlockedExchangePointer@@YGPAXPAPAXPAX@Z	; InterlockedExchangePointer
PUBLIC	?_AtlGetThreadACPFake@ATL@@YGIXZ		; ATL::_AtlGetThreadACPFake
PUBLIC	?_AtlGetThreadACPReal@ATL@@YGIXZ		; ATL::_AtlGetThreadACPReal
EXTRN	___security_cookie:DWORD
EXTRN	@__security_check_cookie@4:NEAR
EXTRN	__imp__GetVersionExA@4:NEAR
; Function compile flags: /Odt
; File d:\program files (x86)\microsoft visual studio .net 2003\vc7\atlmfc\include\atlconv.h
;	COMDAT ?_AtlGetThreadACPThunk@ATL@@YGIXZ
_TEXT	SEGMENT
_pfnGetThreadACP$ = -164				; size = 4
_ver$ = -160						; size = 148
__$ArrayPad$ = -4					; size = 4
__$ReturnAddr$ = 4					; size = 4
?_AtlGetThreadACPThunk@ATL@@YGIXZ PROC NEAR		; ATL::_AtlGetThreadACPThunk, COMDAT

; 134  : {

  00000	55		 push	 ebp
  00001	8b ec		 mov	 ebp, esp
  00003	81 ec a4 00 00
	00		 sub	 esp, 164		; 000000a4H
  00009	a1 00 00 00 00	 mov	 eax, DWORD PTR ___security_cookie
  0000e	89 45 fc	 mov	 DWORD PTR __$ArrayPad$[ebp], eax

; 135  : 	OSVERSIONINFO ver;
; 136  : 	ATLGETTHREADACP pfnGetThreadACP;
; 137  : 
; 138  : 	ver.dwOSVersionInfoSize = sizeof( ver );

  00011	c7 85 60 ff ff
	ff 94 00 00 00	 mov	 DWORD PTR _ver$[ebp], 148 ; 00000094H

; 139  : 	::GetVersionEx( &ver );

  0001b	8d 85 60 ff ff
	ff		 lea	 eax, DWORD PTR _ver$[ebp]
  00021	50		 push	 eax
  00022	ff 15 00 00 00
	00		 call	 DWORD PTR __imp__GetVersionExA@4

; 140  : 	if( (ver.dwPlatformId == VER_PLATFORM_WIN32_NT) && (ver.dwMajorVersion >= 5) )

  00028	83 bd 70 ff ff
	ff 02		 cmp	 DWORD PTR _ver$[ebp+16], 2
  0002f	75 15		 jne	 SHORT $L24173
  00031	83 bd 64 ff ff
	ff 05		 cmp	 DWORD PTR _ver$[ebp+4], 5
  00038	72 0c		 jb	 SHORT $L24173

; 141  : 	{
; 142  : 		// On Win2K, CP_THREAD_ACP is supported
; 143  : 		pfnGetThreadACP = _AtlGetThreadACPReal;

  0003a	c7 85 5c ff ff
	ff 00 00 00 00	 mov	 DWORD PTR _pfnGetThreadACP$[ebp], OFFSET FLAT:?_AtlGetThreadACPReal@ATL@@YGIXZ ; ATL::_AtlGetThreadACPReal

; 144  : 	}
; 145  : 	else

  00044	eb 0a		 jmp	 SHORT $L24174
$L24173:

; 146  : 	{
; 147  : 		pfnGetThreadACP = _AtlGetThreadACPFake;

  00046	c7 85 5c ff ff
	ff 00 00 00 00	 mov	 DWORD PTR _pfnGetThreadACP$[ebp], OFFSET FLAT:?_AtlGetThreadACPFake@ATL@@YGIXZ ; ATL::_AtlGetThreadACPFake
$L24174:

; 148  : 	}
; 149  : 	InterlockedExchangePointer( reinterpret_cast< void** >(&g_pfnGetThreadACP), pfnGetThreadACP );

  00050	8b 8d 5c ff ff
	ff		 mov	 ecx, DWORD PTR _pfnGetThreadACP$[ebp]
  00056	51		 push	 ecx
  00057	68 00 00 00 00	 push	 OFFSET FLAT:?g_pfnGetThreadACP@ATL@@3P6GIXZA ; ATL::g_pfnGetThreadACP
  0005c	e8 00 00 00 00	 call	 ?InterlockedExchangePointer@@YGPAXPAPAXPAX@Z ; InterlockedExchangePointer

; 150  : 
; 151  : 	return( g_pfnGetThreadACP() );

  00061	ff 15 00 00 00
	00		 call	 DWORD PTR ?g_pfnGetThreadACP@ATL@@3P6GIXZA ; ATL::g_pfnGetThreadACP

; 152  : }

  00067	8b 4d fc	 mov	 ecx, DWORD PTR __$ArrayPad$[ebp]
  0006a	e8 00 00 00 00	 call	 @__security_check_cookie@4
  0006f	8b e5		 mov	 esp, ebp
  00071	5d		 pop	 ebp
  00072	c3		 ret	 0
?_AtlGetThreadACPThunk@ATL@@YGIXZ ENDP			; ATL::_AtlGetThreadACPThunk
_TEXT	ENDS
EXTRN	__imp__InterlockedExchange@8:NEAR
; Function compile flags: /Odt
;	COMDAT ?InterlockedExchangePointer@@YGPAXPAPAXPAX@Z
_TEXT	SEGMENT
_pp$ = 8						; size = 4
_pNew$ = 12						; size = 4
?InterlockedExchangePointer@@YGPAXPAPAXPAX@Z PROC NEAR	; InterlockedExchangePointer, COMDAT

; 91   : {

  00000	55		 push	 ebp
  00001	8b ec		 mov	 ebp, esp

; 92   : 	return( reinterpret_cast<void*>(static_cast<LONG_PTR>(::InterlockedExchange(reinterpret_cast<LONG*>(pp), static_cast<LONG>(reinterpret_cast<LONG_PTR>(pNew))))) );

  00003	8b 45 0c	 mov	 eax, DWORD PTR _pNew$[ebp]
  00006	50		 push	 eax
  00007	8b 4d 08	 mov	 ecx, DWORD PTR _pp$[ebp]
  0000a	51		 push	 ecx
  0000b	ff 15 00 00 00
	00		 call	 DWORD PTR __imp__InterlockedExchange@8

; 93   : }

  00011	5d		 pop	 ebp
  00012	c2 08 00	 ret	 8
?InterlockedExchangePointer@@YGPAXPAPAXPAX@Z ENDP	; InterlockedExchangePointer
_TEXT	ENDS
EXTRN	__imp__GetACP@0:NEAR
EXTRN	__imp__GetLocaleInfoA@16:NEAR
EXTRN	__imp__GetThreadLocale@0:NEAR
; Function compile flags: /Odt
;	COMDAT ?_AtlGetThreadACPFake@ATL@@YGIXZ
_TEXT	SEGMENT
_pch$24161 = -24					; size = 4
_lcidThread$ = -20					; size = 4
_szACP$ = -16						; size = 7
__$ArrayPad$ = -8					; size = 4
_nACP$ = -4						; size = 4
__$ReturnAddr$ = 4					; size = 4
?_AtlGetThreadACPFake@ATL@@YGIXZ PROC NEAR		; ATL::_AtlGetThreadACPFake, COMDAT

; 101  : {

  00000	55		 push	 ebp
  00001	8b ec		 mov	 ebp, esp
  00003	83 ec 18	 sub	 esp, 24			; 00000018H
  00006	a1 00 00 00 00	 mov	 eax, DWORD PTR ___security_cookie
  0000b	89 45 f8	 mov	 DWORD PTR __$ArrayPad$[ebp], eax

; 102  : 	UINT nACP = 0;

  0000e	c7 45 fc 00 00
	00 00		 mov	 DWORD PTR _nACP$[ebp], 0

; 103  : 
; 104  : 	LCID lcidThread = ::GetThreadLocale();

  00015	ff 15 00 00 00
	00		 call	 DWORD PTR __imp__GetThreadLocale@0
  0001b	89 45 ec	 mov	 DWORD PTR _lcidThread$[ebp], eax

; 105  : 
; 106  : 	char szACP[7];
; 107  : 	// GetLocaleInfoA will fail for a Unicode-only LCID, but those are only supported on 
; 108  : 	// Windows 2000.  Since Windows 2000 supports CP_THREAD_ACP, this code path is never
; 109  : 	// executed on Windows 2000.
; 110  : 	if (::GetLocaleInfoA(lcidThread, LOCALE_IDEFAULTANSICODEPAGE, szACP, 7) != 0)

  0001e	6a 07		 push	 7
  00020	8d 45 f0	 lea	 eax, DWORD PTR _szACP$[ebp]
  00023	50		 push	 eax
  00024	68 04 10 00 00	 push	 4100			; 00001004H
  00029	8b 4d ec	 mov	 ecx, DWORD PTR _lcidThread$[ebp]
  0002c	51		 push	 ecx
  0002d	ff 15 00 00 00
	00		 call	 DWORD PTR __imp__GetLocaleInfoA@16
  00033	85 c0		 test	 eax, eax
  00035	74 34		 je	 SHORT $L24160

; 111  : 	{
; 112  : 		char* pch = szACP;

  00037	8d 55 f0	 lea	 edx, DWORD PTR _szACP$[ebp]
  0003a	89 55 e8	 mov	 DWORD PTR _pch$24161[ebp], edx
$L24163:

; 113  : 		while (*pch != '\0')

  0003d	8b 45 e8	 mov	 eax, DWORD PTR _pch$24161[ebp]
  00040	0f be 08	 movsx	 ecx, BYTE PTR [eax]
  00043	85 c9		 test	 ecx, ecx
  00045	74 24		 je	 SHORT $L24160

; 114  : 		{
; 115  : 			nACP *= 10;

  00047	8b 55 fc	 mov	 edx, DWORD PTR _nACP$[ebp]
  0004a	6b d2 0a	 imul	 edx, 10			; 0000000aH
  0004d	89 55 fc	 mov	 DWORD PTR _nACP$[ebp], edx

; 116  : 			nACP += *pch++ - '0';

  00050	8b 45 e8	 mov	 eax, DWORD PTR _pch$24161[ebp]
  00053	0f be 08	 movsx	 ecx, BYTE PTR [eax]
  00056	8b 55 fc	 mov	 edx, DWORD PTR _nACP$[ebp]
  00059	8d 44 0a d0	 lea	 eax, DWORD PTR [edx+ecx-48]
  0005d	89 45 fc	 mov	 DWORD PTR _nACP$[ebp], eax
  00060	8b 4d e8	 mov	 ecx, DWORD PTR _pch$24161[ebp]
  00063	83 c1 01	 add	 ecx, 1
  00066	89 4d e8	 mov	 DWORD PTR _pch$24161[ebp], ecx

; 117  : 		}

  00069	eb d2		 jmp	 SHORT $L24163
$L24160:

; 118  : 	}
; 119  : 	// Use the Default ANSI Code Page if we were unable to get the thread ACP or if one does not exist.
; 120  : 	if (nACP == 0)

  0006b	83 7d fc 00	 cmp	 DWORD PTR _nACP$[ebp], 0
  0006f	75 09		 jne	 SHORT $L24165

; 121  : 		nACP = ::GetACP();

  00071	ff 15 00 00 00
	00		 call	 DWORD PTR __imp__GetACP@0
  00077	89 45 fc	 mov	 DWORD PTR _nACP$[ebp], eax
$L24165:

; 122  : 
; 123  : 	return nACP;

  0007a	8b 45 fc	 mov	 eax, DWORD PTR _nACP$[ebp]

; 124  : }

  0007d	8b 4d f8	 mov	 ecx, DWORD PTR __$ArrayPad$[ebp]
  00080	e8 00 00 00 00	 call	 @__security_check_cookie@4
  00085	8b e5		 mov	 esp, ebp
  00087	5d		 pop	 ebp
  00088	c3		 ret	 0
?_AtlGetThreadACPFake@ATL@@YGIXZ ENDP			; ATL::_AtlGetThreadACPFake
; Function compile flags: /Odt
_TEXT	ENDS
;	COMDAT ?_AtlGetThreadACPReal@ATL@@YGIXZ
_TEXT	SEGMENT
?_AtlGetThreadACPReal@ATL@@YGIXZ PROC NEAR		; ATL::_AtlGetThreadACPReal, COMDAT

; 127  : {

  00000	55		 push	 ebp
  00001	8b ec		 mov	 ebp, esp

; 128  : 	return( CP_THREAD_ACP );

  00003	b8 03 00 00 00	 mov	 eax, 3

; 129  : }

  00008	5d		 pop	 ebp
  00009	c3		 ret	 0
?_AtlGetThreadACPReal@ATL@@YGIXZ ENDP			; ATL::_AtlGetThreadACPReal
_TEXT	ENDS
PUBLIC	?paneSpl@ETSLayoutMgr@@QAE?AVCPane@1@PAVETSSplitter@@W4layOrientation@1@W4layResizeMode@1@HHHHHH@Z ; ETSLayoutMgr::paneSpl
PUBLIC	??0PaneSplitter@ETSLayoutMgr@@QAE@PAVETSSplitter@@PAV1@W4layOrientation@1@@Z ; ETSLayoutMgr::PaneSplitter::PaneSplitter
EXTRN	??2@YAPAXI@Z:NEAR				; operator new
EXTRN	??3@YAXPAX@Z:NEAR				; operator delete
EXTRN	__except_list:DWORD
EXTRN	___CxxFrameHandler:NEAR
EXTRN	??0CPane@ETSLayoutMgr@@QAE@PAVPane@1@@Z:NEAR	; ETSLayoutMgr::CPane::CPane
xdata$x	SEGMENT
$T203155 DD	0ffffffffH
	DD	FLAT:$L203145
$T203152 DD	019930520H
	DD	01H
	DD	FLAT:$T203155
	DD	2 DUP(00H)
	DD	2 DUP(00H)
; Function compile flags: /Odt
; File d:\boxgit\playbox\playbox\dev\prj\playbox\src\layoutmgr\etslayoutex.cpp
xdata$x	ENDS
_TEXT	SEGMENT
tv74 = -36						; size = 4
_this$ = -32						; size = 4
$T203147 = -28						; size = 4
$T203142 = -24						; size = 4
$T203141 = -20						; size = 4
_pPane$ = -16						; size = 4
__$EHRec$ = -12						; size = 12
___$ReturnUdt$ = 8					; size = 4
_pSpl$ = 12						; size = 4
_orientation$ = 16					; size = 4
_modeResize$ = 20					; size = 4
_nClosedPos$ = 24					; size = 4
_nClosedOri$ = 28					; size = 4
_nSize$ = 32						; size = 4
_nOpenSize$ = 36					; size = 4
_nHideCloseBtn$ = 40					; size = 4
_nSlim$ = 44						; size = 4
?paneSpl@ETSLayoutMgr@@QAE?AVCPane@1@PAVETSSplitter@@W4layOrientation@1@W4layResizeMode@1@HHHHHH@Z PROC NEAR ; ETSLayoutMgr::paneSpl
; _this$ = ecx

; 15   : {

  00000	55		 push	 ebp
  00001	8b ec		 mov	 ebp, esp
  00003	6a ff		 push	 -1
  00005	68 00 00 00 00	 push	 __ehhandler$?paneSpl@ETSLayoutMgr@@QAE?AVCPane@1@PAVETSSplitter@@W4layOrientation@1@W4layResizeMode@1@HHHHHH@Z
  0000a	64 a1 00 00 00
	00		 mov	 eax, DWORD PTR fs:__except_list
  00010	50		 push	 eax
  00011	64 89 25 00 00
	00 00		 mov	 DWORD PTR fs:__except_list, esp
  00018	83 ec 18	 sub	 esp, 24			; 00000018H
  0001b	89 4d e0	 mov	 DWORD PTR _this$[ebp], ecx
  0001e	c7 45 e4 00 00
	00 00		 mov	 DWORD PTR $T203147[ebp], 0

; 16   : 	ETSLayoutMgr::PaneSplitter* pPane = new PaneSplitter ( pSpl, this, orientation);

  00025	68 98 00 00 00	 push	 152			; 00000098H
  0002a	e8 00 00 00 00	 call	 ??2@YAPAXI@Z		; operator new
  0002f	83 c4 04	 add	 esp, 4
  00032	89 45 e8	 mov	 DWORD PTR $T203142[ebp], eax
  00035	c7 45 fc 00 00
	00 00		 mov	 DWORD PTR __$EHRec$[ebp+8], 0
  0003c	83 7d e8 00	 cmp	 DWORD PTR $T203142[ebp], 0
  00040	74 19		 je	 SHORT $L203143
  00042	8b 45 10	 mov	 eax, DWORD PTR _orientation$[ebp]
  00045	50		 push	 eax
  00046	8b 4d e0	 mov	 ecx, DWORD PTR _this$[ebp]
  00049	51		 push	 ecx
  0004a	8b 55 0c	 mov	 edx, DWORD PTR _pSpl$[ebp]
  0004d	52		 push	 edx
  0004e	8b 4d e8	 mov	 ecx, DWORD PTR $T203142[ebp]
  00051	e8 00 00 00 00	 call	 ??0PaneSplitter@ETSLayoutMgr@@QAE@PAVETSSplitter@@PAV1@W4layOrientation@1@@Z ; ETSLayoutMgr::PaneSplitter::PaneSplitter
  00056	89 45 dc	 mov	 DWORD PTR tv74[ebp], eax
  00059	eb 07		 jmp	 SHORT $L203144
$L203143:
  0005b	c7 45 dc 00 00
	00 00		 mov	 DWORD PTR tv74[ebp], 0
$L203144:
  00062	8b 45 dc	 mov	 eax, DWORD PTR tv74[ebp]
  00065	89 45 ec	 mov	 DWORD PTR $T203141[ebp], eax
  00068	c7 45 fc ff ff
	ff ff		 mov	 DWORD PTR __$EHRec$[ebp+8], -1
  0006f	8b 4d ec	 mov	 ecx, DWORD PTR $T203141[ebp]
  00072	89 4d f0	 mov	 DWORD PTR _pPane$[ebp], ecx

; 17   : 
; 18   : 	//pPane->m_sizeSecondary = (isClosed)? nClosedPos:nSplOpenSize;
; 19   : 
; 20   : 	pPane->m_sizeSecondary = nSize;

  00075	8b 55 f0	 mov	 edx, DWORD PTR _pPane$[ebp]
  00078	8b 45 20	 mov	 eax, DWORD PTR _nSize$[ebp]
  0007b	89 42 78	 mov	 DWORD PTR [edx+120], eax

; 21   : 	//if(orientation == VERTICAL)
; 22   : 	pPane->m_modeResize    = modeResize;

  0007e	8b 4d f0	 mov	 ecx, DWORD PTR _pPane$[ebp]
  00081	8b 55 14	 mov	 edx, DWORD PTR _modeResize$[ebp]
  00084	89 51 18	 mov	 DWORD PTR [ecx+24], edx

; 23   : //	pPane->SetClosed(nSize == nClosedPos);
; 24   : 
; 25   : 	if(orientation == VERTICAL)

  00087	83 7d 10 01	 cmp	 DWORD PTR _orientation$[ebp], 1
  0008b	75 09		 jne	 SHORT $L200799

; 26   : 		pSpl->m_bHorizSplitter = true;

  0008d	8b 45 0c	 mov	 eax, DWORD PTR _pSpl$[ebp]
  00090	c6 40 54 01	 mov	 BYTE PTR [eax+84], 1

; 27   : 	else

  00094	eb 07		 jmp	 SHORT $L200800
$L200799:

; 28   : 		pSpl->m_bHorizSplitter   = false;

  00096	8b 4d 0c	 mov	 ecx, DWORD PTR _pSpl$[ebp]
  00099	c6 41 54 00	 mov	 BYTE PTR [ecx+84], 0
$L200800:

; 29   : 
; 30   : 	pSpl->m_bHideCloseBtn = (nHideCloseBtn == 1);

  0009d	33 d2		 xor	 edx, edx
  0009f	83 7d 28 01	 cmp	 DWORD PTR _nHideCloseBtn$[ebp], 1
  000a3	0f 94 c2	 sete	 dl
  000a6	8b 45 0c	 mov	 eax, DWORD PTR _pSpl$[ebp]
  000a9	88 50 60	 mov	 BYTE PTR [eax+96], dl

; 31   : 	//pSpl->SetSlim(nSlim ==1);
; 32   : 
; 33   : 	pPane->m_nClosedOri = nClosedOri;

  000ac	8b 4d f0	 mov	 ecx, DWORD PTR _pPane$[ebp]
  000af	8b 55 1c	 mov	 edx, DWORD PTR _nClosedOri$[ebp]
  000b2	89 91 84 00 00
	00		 mov	 DWORD PTR [ecx+132], edx

; 34   : 	pPane->m_nSplClosedPos = nClosedPos;

  000b8	8b 45 f0	 mov	 eax, DWORD PTR _pPane$[ebp]
  000bb	8b 4d 18	 mov	 ecx, DWORD PTR _nClosedPos$[ebp]
  000be	89 88 88 00 00
	00		 mov	 DWORD PTR [eax+136], ecx

; 35   : 	pPane->m_nSplOpendPos = nOpenSize;

  000c4	8b 55 f0	 mov	 edx, DWORD PTR _pPane$[ebp]
  000c7	8b 45 24	 mov	 eax, DWORD PTR _nOpenSize$[ebp]
  000ca	89 82 8c 00 00
	00		 mov	 DWORD PTR [edx+140], eax

; 36   : 	
; 37   : 	pSpl->m_pane = (ETSLayoutMgr::PaneSplitter *)pPane;

  000d0	8b 4d 0c	 mov	 ecx, DWORD PTR _pSpl$[ebp]
  000d3	8b 55 f0	 mov	 edx, DWORD PTR _pPane$[ebp]
  000d6	89 91 b0 00 00
	00		 mov	 DWORD PTR [ecx+176], edx

; 38   : 	pPane->m_nDeflate = -1;

  000dc	8b 45 f0	 mov	 eax, DWORD PTR _pPane$[ebp]
  000df	c7 80 90 00 00
	00 ff ff ff ff	 mov	 DWORD PTR [eax+144], -1

; 39   : 	return CPane(pPane);

  000e9	8b 4d f0	 mov	 ecx, DWORD PTR _pPane$[ebp]
  000ec	51		 push	 ecx
  000ed	8b 4d 08	 mov	 ecx, DWORD PTR ___$ReturnUdt$[ebp]
  000f0	e8 00 00 00 00	 call	 ??0CPane@ETSLayoutMgr@@QAE@PAVPane@1@@Z ; ETSLayoutMgr::CPane::CPane
  000f5	8b 55 e4	 mov	 edx, DWORD PTR $T203147[ebp]
  000f8	83 ca 01	 or	 edx, 1
  000fb	89 55 e4	 mov	 DWORD PTR $T203147[ebp], edx
  000fe	8b 45 08	 mov	 eax, DWORD PTR ___$ReturnUdt$[ebp]

; 40   : }

  00101	8b 4d f4	 mov	 ecx, DWORD PTR __$EHRec$[ebp]
  00104	64 89 0d 00 00
	00 00		 mov	 DWORD PTR fs:__except_list, ecx
  0010b	8b e5		 mov	 esp, ebp
  0010d	5d		 pop	 ebp
  0010e	c2 28 00	 ret	 40			; 00000028H
_TEXT	ENDS
text$x	SEGMENT
$L203145:
  00000	8b 45 e8	 mov	 eax, DWORD PTR $T203142[ebp]
  00003	50		 push	 eax
  00004	e8 00 00 00 00	 call	 ??3@YAXPAX@Z		; operator delete
  00009	59		 pop	 ecx
  0000a	c3		 ret	 0
__ehhandler$?paneSpl@ETSLayoutMgr@@QAE?AVCPane@1@PAVETSSplitter@@W4layOrientation@1@W4layResizeMode@1@HHHHHH@Z:
  0000b	b8 00 00 00 00	 mov	 eax, OFFSET FLAT:$T203152
  00010	e9 00 00 00 00	 jmp	 ___CxxFrameHandler
text$x	ENDS
?paneSpl@ETSLayoutMgr@@QAE?AVCPane@1@PAVETSSplitter@@W4layOrientation@1@W4layResizeMode@1@HHHHHH@Z ENDP ; ETSLayoutMgr::paneSpl
PUBLIC	?resizeTo@PaneSplitter@ETSLayoutMgr@@UAE_NAAVCRect@@_N1@Z ; ETSLayoutMgr::PaneSplitter::resizeTo
PUBLIC	?addPane@PaneSplitter@ETSLayoutMgr@@UAE_NVCPaneBase@2@@Z ; ETSLayoutMgr::PaneSplitter::addPane
PUBLIC	?addPane@PaneSplitter@ETSLayoutMgr@@UAE_NVCPane@2@W4layResizeMode@2@H@Z ; ETSLayoutMgr::PaneSplitter::addPane
PUBLIC	?getMinConstrainHorz@PaneSplitter@ETSLayoutMgr@@UAEHXZ ; ETSLayoutMgr::PaneSplitter::getMinConstrainHorz
PUBLIC	?getMinConstrainVert@PaneSplitter@ETSLayoutMgr@@UAEHXZ ; ETSLayoutMgr::PaneSplitter::getMinConstrainVert
PUBLIC	?showPane@PaneSplitter@ETSLayoutMgr@@UAEX_N@Z	; ETSLayoutMgr::PaneSplitter::showPane
PUBLIC	??_7PaneSplitter@ETSLayoutMgr@@6B@		; ETSLayoutMgr::PaneSplitter::`vftable'
PUBLIC	??_GPaneSplitter@ETSLayoutMgr@@UAEPAXI@Z	; ETSLayoutMgr::PaneSplitter::`scalar deleting destructor'
PUBLIC	??_R0?AVPaneBase@ETSLayoutMgr@@@8		; ETSLayoutMgr::PaneBase `RTTI Type Descriptor'
PUBLIC	??_R1A@?0A@A@PaneBase@ETSLayoutMgr@@8		; ETSLayoutMgr::PaneBase::`RTTI Base Class Descriptor at (0,-1,0,0)'
PUBLIC	??_R1A@?0A@A@Pane@ETSLayoutMgr@@8		; ETSLayoutMgr::Pane::`RTTI Base Class Descriptor at (0,-1,0,0)'
PUBLIC	??_R0?AVPane@ETSLayoutMgr@@@8			; ETSLayoutMgr::Pane `RTTI Type Descriptor'
PUBLIC	??_R4PaneSplitter@ETSLayoutMgr@@6B@		; ETSLayoutMgr::PaneSplitter::`RTTI Complete Object Locator'
PUBLIC	??_R0?AVPaneSplitter@ETSLayoutMgr@@@8		; ETSLayoutMgr::PaneSplitter `RTTI Type Descriptor'
PUBLIC	??_R3PaneSplitter@ETSLayoutMgr@@8		; ETSLayoutMgr::PaneSplitter::`RTTI Class Hierarchy Descriptor'
PUBLIC	??_R2PaneSplitter@ETSLayoutMgr@@8		; ETSLayoutMgr::PaneSplitter::`RTTI Base Class Array'
PUBLIC	??_R1A@?0A@A@PaneSplitter@ETSLayoutMgr@@8	; ETSLayoutMgr::PaneSplitter::`RTTI Base Class Descriptor at (0,-1,0,0)'
EXTRN	??0Pane@ETSLayoutMgr@@IAE@PAV1@W4layOrientation@1@HH@Z:NEAR ; ETSLayoutMgr::Pane::Pane
EXTRN	?getConstrainHorz@Pane@ETSLayoutMgr@@UAEHH@Z:NEAR ; ETSLayoutMgr::Pane::getConstrainHorz
EXTRN	?getConstrainVert@Pane@ETSLayoutMgr@@UAEHH@Z:NEAR ; ETSLayoutMgr::Pane::getConstrainVert
EXTRN	?getMaxConstrainHorz@Pane@ETSLayoutMgr@@UAEHXZ:NEAR ; ETSLayoutMgr::Pane::getMaxConstrainHorz
EXTRN	?getMaxConstrainVert@Pane@ETSLayoutMgr@@UAEHXZ:NEAR ; ETSLayoutMgr::Pane::getMaxConstrainVert
EXTRN	?GetSubPane@Pane@ETSLayoutMgr@@UAE?AVCPaneBase@2@V?$CStringT@DV?$StrTraitMFC_DLL@DV?$ChTraitsCRT@D@ATL@@@@@ATL@@@Z:NEAR ; ETSLayoutMgr::Pane::GetSubPane
EXTRN	??_EPaneSplitter@ETSLayoutMgr@@UAEPAXI@Z:NEAR	; ETSLayoutMgr::PaneSplitter::`vector deleting destructor'
EXTRN	??_7type_info@@6B@:QWORD			; type_info::`vftable'
;	COMDAT ??_7PaneSplitter@ETSLayoutMgr@@6B@
CONST	SEGMENT
??_7PaneSplitter@ETSLayoutMgr@@6B@ DD FLAT:??_R4PaneSplitter@ETSLayoutMgr@@6B@ ; ETSLayoutMgr::PaneSplitter::`vftable'
	DD	FLAT:?getConstrainHorz@Pane@ETSLayoutMgr@@UAEHH@Z
	DD	FLAT:?getConstrainVert@Pane@ETSLayoutMgr@@UAEHH@Z
	DD	FLAT:?getMinConstrainHorz@PaneSplitter@ETSLayoutMgr@@UAEHXZ
	DD	FLAT:?getMaxConstrainHorz@Pane@ETSLayoutMgr@@UAEHXZ
	DD	FLAT:?getMinConstrainVert@PaneSplitter@ETSLayoutMgr@@UAEHXZ
	DD	FLAT:?getMaxConstrainVert@Pane@ETSLayoutMgr@@UAEHXZ
	DD	FLAT:?resizeTo@PaneSplitter@ETSLayoutMgr@@UAE_NAAVCRect@@_N1@Z
	DD	FLAT:?GetSubPane@Pane@ETSLayoutMgr@@UAE?AVCPaneBase@2@V?$CStringT@DV?$StrTraitMFC_DLL@DV?$ChTraitsCRT@D@ATL@@@@@ATL@@@Z
	DD	FLAT:??_EPaneSplitter@ETSLayoutMgr@@UAEPAXI@Z
	DD	FLAT:?showPane@PaneSplitter@ETSLayoutMgr@@UAEX_N@Z
	DD	FLAT:?addPane@PaneSplitter@ETSLayoutMgr@@UAE_NVCPane@2@W4layResizeMode@2@H@Z
	DD	FLAT:?addPane@PaneSplitter@ETSLayoutMgr@@UAE_NVCPaneBase@2@@Z
CONST	ENDS
;	COMDAT ??_R4PaneSplitter@ETSLayoutMgr@@6B@
rdata$r	SEGMENT
??_R4PaneSplitter@ETSLayoutMgr@@6B@ DD 00H		; ETSLayoutMgr::PaneSplitter::`RTTI Complete Object Locator'
	DD	00H
	DD	00H
	DD	FLAT:??_R0?AVPaneSplitter@ETSLayoutMgr@@@8
	DD	FLAT:??_R3PaneSplitter@ETSLayoutMgr@@8
rdata$r	ENDS
;	COMDAT ??_R0?AVPaneSplitter@ETSLayoutMgr@@@8
_DATA	SEGMENT
??_R0?AVPaneSplitter@ETSLayoutMgr@@@8 DD FLAT:??_7type_info@@6B@ ; ETSLayoutMgr::PaneSplitter `RTTI Type Descriptor'
	DD	00H
	DB	'.?AVPaneSplitter@ETSLayoutMgr@@', 00H
_DATA	ENDS
;	COMDAT ??_R3PaneSplitter@ETSLayoutMgr@@8
rdata$r	SEGMENT
??_R3PaneSplitter@ETSLayoutMgr@@8 DD 00H		; ETSLayoutMgr::PaneSplitter::`RTTI Class Hierarchy Descriptor'
	DD	00H
	DD	03H
	DD	FLAT:??_R2PaneSplitter@ETSLayoutMgr@@8
rdata$r	ENDS
;	COMDAT ??_R2PaneSplitter@ETSLayoutMgr@@8
rdata$r	SEGMENT
??_R2PaneSplitter@ETSLayoutMgr@@8 DD FLAT:??_R1A@?0A@A@PaneSplitter@ETSLayoutMgr@@8 ; ETSLayoutMgr::PaneSplitter::`RTTI Base Class Array'
	DD	FLAT:??_R1A@?0A@A@Pane@ETSLayoutMgr@@8
	DD	FLAT:??_R1A@?0A@A@PaneBase@ETSLayoutMgr@@8
rdata$r	ENDS
;	COMDAT ??_R1A@?0A@A@PaneSplitter@ETSLayoutMgr@@8
rdata$r	SEGMENT
??_R1A@?0A@A@PaneSplitter@ETSLayoutMgr@@8 DD FLAT:??_R0?AVPaneSplitter@ETSLayoutMgr@@@8 ; ETSLayoutMgr::PaneSplitter::`RTTI Base Class Descriptor at (0,-1,0,0)'
	DD	02H
	DD	00H
	DD	0ffffffffH
	DD	00H
	DD	00H
rdata$r	ENDS
;	COMDAT ??_R1A@?0A@A@Pane@ETSLayoutMgr@@8
rdata$r	SEGMENT
??_R1A@?0A@A@Pane@ETSLayoutMgr@@8 DD FLAT:??_R0?AVPane@ETSLayoutMgr@@@8 ; ETSLayoutMgr::Pane::`RTTI Base Class Descriptor at (0,-1,0,0)'
	DD	01H
	DD	00H
	DD	0ffffffffH
	DD	00H
	DD	00H
rdata$r	ENDS
;	COMDAT ??_R0?AVPane@ETSLayoutMgr@@@8
_DATA	SEGMENT
??_R0?AVPane@ETSLayoutMgr@@@8 DD FLAT:??_7type_info@@6B@ ; ETSLayoutMgr::Pane `RTTI Type Descriptor'
	DD	00H
	DB	'.?AVPane@ETSLayoutMgr@@', 00H
_DATA	ENDS
;	COMDAT ??_R1A@?0A@A@PaneBase@ETSLayoutMgr@@8
rdata$r	SEGMENT
??_R1A@?0A@A@PaneBase@ETSLayoutMgr@@8 DD FLAT:??_R0?AVPaneBase@ETSLayoutMgr@@@8 ; ETSLayoutMgr::PaneBase::`RTTI Base Class Descriptor at (0,-1,0,0)'
	DD	00H
	DD	00H
	DD	0ffffffffH
	DD	00H
	DD	00H
rdata$r	ENDS
;	COMDAT ??_R0?AVPaneBase@ETSLayoutMgr@@@8
_DATA	SEGMENT
??_R0?AVPaneBase@ETSLayoutMgr@@@8 DD FLAT:??_7type_info@@6B@ ; ETSLayoutMgr::PaneBase `RTTI Type Descriptor'
	DD	00H
	DB	'.?AVPaneBase@ETSLayoutMgr@@', 00H
; Function compile flags: /Odt
_DATA	ENDS
_TEXT	SEGMENT
_this$ = -4						; size = 4
_pSpl$ = 8						; size = 4
_pMgr$ = 12						; size = 4
_orientation$ = 16					; size = 4
??0PaneSplitter@ETSLayoutMgr@@QAE@PAVETSSplitter@@PAV1@W4layOrientation@1@@Z PROC NEAR ; ETSLayoutMgr::PaneSplitter::PaneSplitter
; _this$ = ecx

; 44   : {

  00120	55		 push	 ebp
  00121	8b ec		 mov	 ebp, esp
  00123	51		 push	 ecx
  00124	89 4d fc	 mov	 DWORD PTR _this$[ebp], ecx
  00127	6a 00		 push	 0
  00129	6a 00		 push	 0
  0012b	8b 45 10	 mov	 eax, DWORD PTR _orientation$[ebp]
  0012e	50		 push	 eax
  0012f	8b 4d 0c	 mov	 ecx, DWORD PTR _pMgr$[ebp]
  00132	51		 push	 ecx
  00133	8b 4d fc	 mov	 ecx, DWORD PTR _this$[ebp]
  00136	e8 00 00 00 00	 call	 ??0Pane@ETSLayoutMgr@@IAE@PAV1@W4layOrientation@1@HH@Z ; ETSLayoutMgr::Pane::Pane
  0013b	8b 55 fc	 mov	 edx, DWORD PTR _this$[ebp]
  0013e	c7 02 00 00 00
	00		 mov	 DWORD PTR [edx], OFFSET FLAT:??_7PaneSplitter@ETSLayoutMgr@@6B@

; 45   : 	ASSERT(pSpl);
; 46   : 	m_pSpl = pSpl;

  00144	8b 45 fc	 mov	 eax, DWORD PTR _this$[ebp]
  00147	8b 4d 08	 mov	 ecx, DWORD PTR _pSpl$[ebp]
  0014a	89 88 94 00 00
	00		 mov	 DWORD PTR [eax+148], ecx

; 47   : 	m_nDeflate = true;

  00150	8b 55 fc	 mov	 edx, DWORD PTR _this$[ebp]
  00153	c7 82 90 00 00
	00 01 00 00 00	 mov	 DWORD PTR [edx+144], 1

; 48   : }

  0015d	8b 45 fc	 mov	 eax, DWORD PTR _this$[ebp]
  00160	8b e5		 mov	 esp, ebp
  00162	5d		 pop	 ebp
  00163	c2 0c 00	 ret	 12			; 0000000cH
??0PaneSplitter@ETSLayoutMgr@@QAE@PAVETSSplitter@@PAV1@W4layOrientation@1@@Z ENDP ; ETSLayoutMgr::PaneSplitter::PaneSplitter
_TEXT	ENDS
PUBLIC	??1PaneSplitter@ETSLayoutMgr@@UAE@XZ		; ETSLayoutMgr::PaneSplitter::~PaneSplitter
; Function compile flags: /Odt
;	COMDAT ??_GPaneSplitter@ETSLayoutMgr@@UAEPAXI@Z
_TEXT	SEGMENT
_this$ = -4						; size = 4
___flags$ = 8						; size = 4
??_GPaneSplitter@ETSLayoutMgr@@UAEPAXI@Z PROC NEAR	; ETSLayoutMgr::PaneSplitter::`scalar deleting destructor', COMDAT
; _this$ = ecx
  00000	55		 push	 ebp
  00001	8b ec		 mov	 ebp, esp
  00003	51		 push	 ecx
  00004	89 4d fc	 mov	 DWORD PTR _this$[ebp], ecx
  00007	8b 4d fc	 mov	 ecx, DWORD PTR _this$[ebp]
  0000a	e8 00 00 00 00	 call	 ??1PaneSplitter@ETSLayoutMgr@@UAE@XZ
  0000f	8b 45 08	 mov	 eax, DWORD PTR ___flags$[ebp]
  00012	83 e0 01	 and	 eax, 1
  00015	74 0c		 je	 SHORT $L200813
  00017	8b 4d fc	 mov	 ecx, DWORD PTR _this$[ebp]
  0001a	51		 push	 ecx
  0001b	e8 00 00 00 00	 call	 ??3@YAXPAX@Z		; operator delete
  00020	83 c4 04	 add	 esp, 4
$L200813:
  00023	8b 45 fc	 mov	 eax, DWORD PTR _this$[ebp]
  00026	8b e5		 mov	 esp, ebp
  00028	5d		 pop	 ebp
  00029	c2 04 00	 ret	 4
??_GPaneSplitter@ETSLayoutMgr@@UAEPAXI@Z ENDP		; ETSLayoutMgr::PaneSplitter::`scalar deleting destructor'
_TEXT	ENDS
EXTRN	??1Pane@ETSLayoutMgr@@UAE@XZ:NEAR		; ETSLayoutMgr::Pane::~Pane
; Function compile flags: /Odt
;	COMDAT ??1PaneSplitter@ETSLayoutMgr@@UAE@XZ
_TEXT	SEGMENT
_this$ = -4						; size = 4
??1PaneSplitter@ETSLayoutMgr@@UAE@XZ PROC NEAR		; ETSLayoutMgr::PaneSplitter::~PaneSplitter, COMDAT
; _this$ = ecx
  00000	55		 push	 ebp
  00001	8b ec		 mov	 ebp, esp
  00003	51		 push	 ecx
  00004	89 4d fc	 mov	 DWORD PTR _this$[ebp], ecx
  00007	8b 4d fc	 mov	 ecx, DWORD PTR _this$[ebp]
  0000a	e8 00 00 00 00	 call	 ??1Pane@ETSLayoutMgr@@UAE@XZ ; ETSLayoutMgr::Pane::~Pane
  0000f	8b e5		 mov	 esp, ebp
  00011	5d		 pop	 ebp
  00012	c3		 ret	 0
??1PaneSplitter@ETSLayoutMgr@@UAE@XZ ENDP		; ETSLayoutMgr::PaneSplitter::~PaneSplitter
_TEXT	ENDS
EXTRN	?ShowWindow@CWnd@@QAEHH@Z:NEAR			; CWnd::ShowWindow
EXTRN	?showPane@Pane@ETSLayoutMgr@@UAEX_N@Z:NEAR	; ETSLayoutMgr::Pane::showPane
; Function compile flags: /Odt
_TEXT	SEGMENT
_this$ = -4						; size = 4
_bShow$ = 8						; size = 1
?showPane@PaneSplitter@ETSLayoutMgr@@UAEX_N@Z PROC NEAR	; ETSLayoutMgr::PaneSplitter::showPane
; _this$ = ecx

; 51   : {

  00170	55		 push	 ebp
  00171	8b ec		 mov	 ebp, esp
  00173	51		 push	 ecx
  00174	89 4d fc	 mov	 DWORD PTR _this$[ebp], ecx

; 52   : 	this->m_bShow = bShow;

  00177	8b 45 fc	 mov	 eax, DWORD PTR _this$[ebp]
  0017a	8a 4d 08	 mov	 cl, BYTE PTR _bShow$[ebp]
  0017d	88 48 1c	 mov	 BYTE PTR [eax+28], cl

; 53   : 	if(bShow)

  00180	0f b6 55 08	 movzx	 edx, BYTE PTR _bShow$[ebp]
  00184	85 d2		 test	 edx, edx
  00186	74 12		 je	 SHORT $L200820

; 54   : 		m_pSpl->ShowWindow(SW_SHOW);

  00188	6a 05		 push	 5
  0018a	8b 45 fc	 mov	 eax, DWORD PTR _this$[ebp]
  0018d	8b 88 94 00 00
	00		 mov	 ecx, DWORD PTR [eax+148]
  00193	e8 00 00 00 00	 call	 ?ShowWindow@CWnd@@QAEHH@Z ; CWnd::ShowWindow

; 55   : 	else

  00198	eb 10		 jmp	 SHORT $L200821
$L200820:

; 56   : 		m_pSpl->ShowWindow(SW_HIDE);

  0019a	6a 00		 push	 0
  0019c	8b 4d fc	 mov	 ecx, DWORD PTR _this$[ebp]
  0019f	8b 89 94 00 00
	00		 mov	 ecx, DWORD PTR [ecx+148]
  001a5	e8 00 00 00 00	 call	 ?ShowWindow@CWnd@@QAEHH@Z ; CWnd::ShowWindow
$L200821:

; 57   : 
; 58   : 	ETSLayoutMgr::Pane::showPane(bShow);

  001aa	8a 55 08	 mov	 dl, BYTE PTR _bShow$[ebp]
  001ad	52		 push	 edx
  001ae	8b 4d fc	 mov	 ecx, DWORD PTR _this$[ebp]
  001b1	e8 00 00 00 00	 call	 ?showPane@Pane@ETSLayoutMgr@@UAEX_N@Z ; ETSLayoutMgr::Pane::showPane

; 59   : }

  001b6	8b e5		 mov	 esp, ebp
  001b8	5d		 pop	 ebp
  001b9	c2 04 00	 ret	 4
?showPane@PaneSplitter@ETSLayoutMgr@@UAEX_N@Z ENDP	; ETSLayoutMgr::PaneSplitter::showPane
_TEXT	ENDS
PUBLIC	?Width@CRect@@QBEHXZ				; CRect::Width
PUBLIC	?getPaneRect@PaneBase@ETSLayoutMgr@@QAE?AVCRect@@XZ ; ETSLayoutMgr::PaneBase::getPaneRect
EXTRN	?getMinConstrainHorz@Pane@ETSLayoutMgr@@UAEHXZ:NEAR ; ETSLayoutMgr::Pane::getMinConstrainHorz
; Function compile flags: /Odt
_TEXT	SEGMENT
_this$ = -20						; size = 4
_rc$ = -16						; size = 16
?getMinConstrainHorz@PaneSplitter@ETSLayoutMgr@@UAEHXZ PROC NEAR ; ETSLayoutMgr::PaneSplitter::getMinConstrainHorz
; _this$ = ecx

; 62   : {

  001c0	55		 push	 ebp
  001c1	8b ec		 mov	 ebp, esp
  001c3	83 ec 14	 sub	 esp, 20			; 00000014H
  001c6	89 4d ec	 mov	 DWORD PTR _this$[ebp], ecx

; 63   : 	CRect rc = getPaneRect();

  001c9	8d 45 f0	 lea	 eax, DWORD PTR _rc$[ebp]
  001cc	50		 push	 eax
  001cd	8b 4d ec	 mov	 ecx, DWORD PTR _this$[ebp]
  001d0	e8 00 00 00 00	 call	 ?getPaneRect@PaneBase@ETSLayoutMgr@@QAE?AVCRect@@XZ ; ETSLayoutMgr::PaneBase::getPaneRect

; 64   : 
; 65   : 	if(m_Orientation == VERTICAL && rc.Width() <= 0)

  001d5	8b 4d ec	 mov	 ecx, DWORD PTR _this$[ebp]
  001d8	83 79 60 01	 cmp	 DWORD PTR [ecx+96], 1
  001dc	75 10		 jne	 SHORT $L200827
  001de	8d 4d f0	 lea	 ecx, DWORD PTR _rc$[ebp]
  001e1	e8 00 00 00 00	 call	 ?Width@CRect@@QBEHXZ	; CRect::Width
  001e6	85 c0		 test	 eax, eax
  001e8	7f 04		 jg	 SHORT $L200827

; 66   : 	{
; 67   : 		return 0;

  001ea	33 c0		 xor	 eax, eax
  001ec	eb 08		 jmp	 SHORT $L200824
$L200827:

; 68   : 	}
; 69   : 	else
; 70   : 		return Pane::getMinConstrainHorz();

  001ee	8b 4d ec	 mov	 ecx, DWORD PTR _this$[ebp]
  001f1	e8 00 00 00 00	 call	 ?getMinConstrainHorz@Pane@ETSLayoutMgr@@UAEHXZ ; ETSLayoutMgr::Pane::getMinConstrainHorz
$L200824:

; 71   : }

  001f6	8b e5		 mov	 esp, ebp
  001f8	5d		 pop	 ebp
  001f9	c3		 ret	 0
?getMinConstrainHorz@PaneSplitter@ETSLayoutMgr@@UAEHXZ ENDP ; ETSLayoutMgr::PaneSplitter::getMinConstrainHorz
; Function compile flags: /Odt
; File d:\boxgit\playbox\playbox\dev\prj\playbox\src\layoutmgr\etslayout.h
_TEXT	ENDS
;	COMDAT ?getPaneRect@PaneBase@ETSLayoutMgr@@QAE?AVCRect@@XZ
_TEXT	SEGMENT
_this$ = -4						; size = 4
___$ReturnUdt$ = 8					; size = 4
?getPaneRect@PaneBase@ETSLayoutMgr@@QAE?AVCRect@@XZ PROC NEAR ; ETSLayoutMgr::PaneBase::getPaneRect, COMDAT
; _this$ = ecx

; 296  : 		CRect getPaneRect(){return m_rcRect;};

  00000	55		 push	 ebp
  00001	8b ec		 mov	 ebp, esp
  00003	51		 push	 ecx
  00004	89 4d fc	 mov	 DWORD PTR _this$[ebp], ecx
  00007	8b 45 fc	 mov	 eax, DWORD PTR _this$[ebp]
  0000a	83 c0 28	 add	 eax, 40			; 00000028H
  0000d	8b 4d 08	 mov	 ecx, DWORD PTR ___$ReturnUdt$[ebp]
  00010	8b 10		 mov	 edx, DWORD PTR [eax]
  00012	89 11		 mov	 DWORD PTR [ecx], edx
  00014	8b 50 04	 mov	 edx, DWORD PTR [eax+4]
  00017	89 51 04	 mov	 DWORD PTR [ecx+4], edx
  0001a	8b 50 08	 mov	 edx, DWORD PTR [eax+8]
  0001d	89 51 08	 mov	 DWORD PTR [ecx+8], edx
  00020	8b 40 0c	 mov	 eax, DWORD PTR [eax+12]
  00023	89 41 0c	 mov	 DWORD PTR [ecx+12], eax
  00026	8b 45 08	 mov	 eax, DWORD PTR ___$ReturnUdt$[ebp]
  00029	8b e5		 mov	 esp, ebp
  0002b	5d		 pop	 ebp
  0002c	c2 04 00	 ret	 4
?getPaneRect@PaneBase@ETSLayoutMgr@@QAE?AVCRect@@XZ ENDP ; ETSLayoutMgr::PaneBase::getPaneRect
_TEXT	ENDS
PUBLIC	?Height@CRect@@QBEHXZ				; CRect::Height
EXTRN	?getMinConstrainVert@Pane@ETSLayoutMgr@@UAEHXZ:NEAR ; ETSLayoutMgr::Pane::getMinConstrainVert
; Function compile flags: /Odt
; File d:\boxgit\playbox\playbox\dev\prj\playbox\src\layoutmgr\etslayoutex.cpp
_TEXT	SEGMENT
_this$ = -20						; size = 4
_rc$ = -16						; size = 16
?getMinConstrainVert@PaneSplitter@ETSLayoutMgr@@UAEHXZ PROC NEAR ; ETSLayoutMgr::PaneSplitter::getMinConstrainVert
; _this$ = ecx

; 74   : {

  00200	55		 push	 ebp
  00201	8b ec		 mov	 ebp, esp
  00203	83 ec 14	 sub	 esp, 20			; 00000014H
  00206	89 4d ec	 mov	 DWORD PTR _this$[ebp], ecx

; 75   : 	CRect rc = this->getPaneRect();

  00209	8d 45 f0	 lea	 eax, DWORD PTR _rc$[ebp]
  0020c	50		 push	 eax
  0020d	8b 4d ec	 mov	 ecx, DWORD PTR _this$[ebp]
  00210	e8 00 00 00 00	 call	 ?getPaneRect@PaneBase@ETSLayoutMgr@@QAE?AVCRect@@XZ ; ETSLayoutMgr::PaneBase::getPaneRect

; 76   : 
; 77   : 	if(m_Orientation == HORIZONTAL && rc.Height() <= 0)

  00215	8b 4d ec	 mov	 ecx, DWORD PTR _this$[ebp]
  00218	83 79 60 00	 cmp	 DWORD PTR [ecx+96], 0
  0021c	75 10		 jne	 SHORT $L200834
  0021e	8d 4d f0	 lea	 ecx, DWORD PTR _rc$[ebp]
  00221	e8 00 00 00 00	 call	 ?Height@CRect@@QBEHXZ	; CRect::Height
  00226	85 c0		 test	 eax, eax
  00228	7f 04		 jg	 SHORT $L200834

; 78   : 	{
; 79   : 		return 0;

  0022a	33 c0		 xor	 eax, eax
  0022c	eb 08		 jmp	 SHORT $L200831
$L200834:

; 80   : 	}
; 81   : 	else
; 82   : 		return Pane::getMinConstrainVert();

  0022e	8b 4d ec	 mov	 ecx, DWORD PTR _this$[ebp]
  00231	e8 00 00 00 00	 call	 ?getMinConstrainVert@Pane@ETSLayoutMgr@@UAEHXZ ; ETSLayoutMgr::Pane::getMinConstrainVert
$L200831:

; 83   : }

  00236	8b e5		 mov	 esp, ebp
  00238	5d		 pop	 ebp
  00239	c3		 ret	 0
?getMinConstrainVert@PaneSplitter@ETSLayoutMgr@@UAEHXZ ENDP ; ETSLayoutMgr::PaneSplitter::getMinConstrainVert
_TEXT	ENDS
PUBLIC	??A?$CArray@VCPaneBase@ETSLayoutMgr@@V12@@@QAEAAVCPaneBase@ETSLayoutMgr@@H@Z ; CArray<ETSLayoutMgr::CPaneBase,ETSLayoutMgr::CPaneBase>::operator[]
PUBLIC	?IsClosed@PaneSplitter@ETSLayoutMgr@@QAEHXZ	; ETSLayoutMgr::PaneSplitter::IsClosed
PUBLIC	?modeResize@PaneBase@ETSLayoutMgr@@QAEKXZ	; ETSLayoutMgr::PaneBase::modeResize
EXTRN	?resizeTo@Pane@ETSLayoutMgr@@UAE_NAAVCRect@@_N1@Z:NEAR ; ETSLayoutMgr::Pane::resizeTo
EXTRN	??0CPaneBase@ETSLayoutMgr@@QAE@ABV01@@Z:NEAR	; ETSLayoutMgr::CPaneBase::CPaneBase
EXTRN	??1CPaneBase@ETSLayoutMgr@@QAE@XZ:NEAR		; ETSLayoutMgr::CPaneBase::~CPaneBase
EXTRN	??CCPaneBase@ETSLayoutMgr@@QBEPAVPaneBase@1@XZ:NEAR ; ETSLayoutMgr::CPaneBase::operator->
xdata$x	SEGMENT
$T203181 DD	0ffffffffH
	DD	FLAT:$L203175
	DD	00H
	DD	FLAT:$L203176
	DD	01H
	DD	FLAT:$L203177
$T203179 DD	019930520H
	DD	03H
	DD	FLAT:$T203181
	DD	2 DUP(00H)
	DD	2 DUP(00H)
; Function compile flags: /Odt
xdata$x	ENDS
_TEXT	SEGMENT
tv212 = -124						; size = 4
tv197 = -120						; size = 4
tv173 = -116						; size = 4
tv158 = -112						; size = 4
_this$ = -108						; size = 4
$T203174 = -101						; size = 1
$T203173 = -100						; size = 16
$T203172 = -84						; size = 16
$T203171 = -68						; size = 16
$T203170 = -52						; size = 16
_pItem3$ = -36						; size = 4
_pItem1$ = -32						; size = 4
_modeSize2$ = -28					; size = 4
_ret$ = -21						; size = 1
_pItem2$ = -20						; size = 4
_modeSize1$ = -16					; size = 4
__$EHRec$ = -12						; size = 12
_rcNewArea$ = 8						; size = 4
_bRedraw$ = 12						; size = 1
_bReSizeAlways$ = 16					; size = 1
?resizeTo@PaneSplitter@ETSLayoutMgr@@UAE_NAAVCRect@@_N1@Z PROC NEAR ; ETSLayoutMgr::PaneSplitter::resizeTo
; _this$ = ecx

; 87   : {

  00240	55		 push	 ebp
  00241	8b ec		 mov	 ebp, esp
  00243	6a ff		 push	 -1
  00245	68 00 00 00 00	 push	 __ehhandler$?resizeTo@PaneSplitter@ETSLayoutMgr@@UAE_NAAVCRect@@_N1@Z
  0024a	64 a1 00 00 00
	00		 mov	 eax, DWORD PTR fs:__except_list
  00250	50		 push	 eax
  00251	64 89 25 00 00
	00 00		 mov	 DWORD PTR fs:__except_list, esp
  00258	83 ec 70	 sub	 esp, 112		; 00000070H
  0025b	56		 push	 esi
  0025c	89 4d 94	 mov	 DWORD PTR _this$[ebp], ecx

; 88   : 	bool ret;
; 89   : 
; 90   : 	int modeSize1 , modeSize2 ;
; 91   : 	modeSize1 = modeSize2 = -1;

  0025f	c7 45 e4 ff ff
	ff ff		 mov	 DWORD PTR _modeSize2$[ebp], -1
  00266	8b 45 e4	 mov	 eax, DWORD PTR _modeSize2$[ebp]
  00269	89 45 f0	 mov	 DWORD PTR _modeSize1$[ebp], eax

; 92   : 	if(rcNewArea.left > rcNewArea.right)

  0026c	8b 4d 08	 mov	 ecx, DWORD PTR _rcNewArea$[ebp]
  0026f	8b 55 08	 mov	 edx, DWORD PTR _rcNewArea$[ebp]
  00272	8b 01		 mov	 eax, DWORD PTR [ecx]
  00274	3b 42 08	 cmp	 eax, DWORD PTR [edx+8]
  00277	7e 07		 jle	 SHORT $L200845

; 93   : 		return true;

  00279	b0 01		 mov	 al, 1
  0027b	e9 a6 02 00 00	 jmp	 $L200841
$L200845:

; 94   : 
; 95   : 	if( (rcNewArea.Width() < m_rcRect.Width()	|| rcNewArea.Height() < m_rcRect.Height() || m_nDeflate == -1)
; 96   : 		&& !this->IsClosed()
; 97   : 		)

  00280	8b 4d 08	 mov	 ecx, DWORD PTR _rcNewArea$[ebp]
  00283	e8 00 00 00 00	 call	 ?Width@CRect@@QBEHXZ	; CRect::Width
  00288	8b f0		 mov	 esi, eax
  0028a	8b 4d 94	 mov	 ecx, DWORD PTR _this$[ebp]
  0028d	83 c1 28	 add	 ecx, 40			; 00000028H
  00290	e8 00 00 00 00	 call	 ?Width@CRect@@QBEHXZ	; CRect::Width
  00295	3b f0		 cmp	 esi, eax
  00297	7c 25		 jl	 SHORT $L200847
  00299	8b 4d 08	 mov	 ecx, DWORD PTR _rcNewArea$[ebp]
  0029c	e8 00 00 00 00	 call	 ?Height@CRect@@QBEHXZ	; CRect::Height
  002a1	8b f0		 mov	 esi, eax
  002a3	8b 4d 94	 mov	 ecx, DWORD PTR _this$[ebp]
  002a6	83 c1 28	 add	 ecx, 40			; 00000028H
  002a9	e8 00 00 00 00	 call	 ?Height@CRect@@QBEHXZ	; CRect::Height
  002ae	3b f0		 cmp	 esi, eax
  002b0	7c 0c		 jl	 SHORT $L200847
  002b2	8b 4d 94	 mov	 ecx, DWORD PTR _this$[ebp]
  002b5	83 b9 90 00 00
	00 ff		 cmp	 DWORD PTR [ecx+144], -1
  002bc	75 1b		 jne	 SHORT $L200846
$L200847:
  002be	8b 4d 94	 mov	 ecx, DWORD PTR _this$[ebp]
  002c1	e8 00 00 00 00	 call	 ?IsClosed@PaneSplitter@ETSLayoutMgr@@QAEHXZ ; ETSLayoutMgr::PaneSplitter::IsClosed
  002c6	85 c0		 test	 eax, eax
  002c8	75 0f		 jne	 SHORT $L200846

; 98   : 		m_nDeflate = true;

  002ca	8b 55 94	 mov	 edx, DWORD PTR _this$[ebp]
  002cd	c7 82 90 00 00
	00 01 00 00 00	 mov	 DWORD PTR [edx+144], 1

; 99   : 	else

  002d7	eb 0d		 jmp	 SHORT $L200848
$L200846:

; 100  : 		m_nDeflate = false;

  002d9	8b 45 94	 mov	 eax, DWORD PTR _this$[ebp]
  002dc	c7 80 90 00 00
	00 00 00 00 00	 mov	 DWORD PTR [eax+144], 0
$L200848:

; 101  : 
; 102  : 	CPaneBase pItem3 = this->m_paneItems[0];

  002e6	6a 00		 push	 0
  002e8	8b 4d 94	 mov	 ecx, DWORD PTR _this$[ebp]
  002eb	83 c1 64	 add	 ecx, 100		; 00000064H
  002ee	e8 00 00 00 00	 call	 ??A?$CArray@VCPaneBase@ETSLayoutMgr@@V12@@@QAEAAVCPaneBase@ETSLayoutMgr@@H@Z ; CArray<ETSLayoutMgr::CPaneBase,ETSLayoutMgr::CPaneBase>::operator[]
  002f3	50		 push	 eax
  002f4	8d 4d dc	 lea	 ecx, DWORD PTR _pItem3$[ebp]
  002f7	e8 00 00 00 00	 call	 ??0CPaneBase@ETSLayoutMgr@@QAE@ABV01@@Z ; ETSLayoutMgr::CPaneBase::CPaneBase
  002fc	c7 45 fc 00 00
	00 00		 mov	 DWORD PTR __$EHRec$[ebp+8], 0

; 103  : 	ret = Pane::resizeTo(rcNewArea, bRedraw, bReSizeAlways);

  00303	8a 4d 10	 mov	 cl, BYTE PTR _bReSizeAlways$[ebp]
  00306	51		 push	 ecx
  00307	8a 55 0c	 mov	 dl, BYTE PTR _bRedraw$[ebp]
  0030a	52		 push	 edx
  0030b	8b 45 08	 mov	 eax, DWORD PTR _rcNewArea$[ebp]
  0030e	50		 push	 eax
  0030f	8b 4d 94	 mov	 ecx, DWORD PTR _this$[ebp]
  00312	e8 00 00 00 00	 call	 ?resizeTo@Pane@ETSLayoutMgr@@UAE_NAAVCRect@@_N1@Z ; ETSLayoutMgr::Pane::resizeTo
  00317	88 45 eb	 mov	 BYTE PTR _ret$[ebp], al

; 104  : //	this->m_pSpl->ShowWindow(SW_SHOW);
; 105  : 
; 106  : 	CPaneBase pItem1 = this->m_paneItems[0];

  0031a	6a 00		 push	 0
  0031c	8b 4d 94	 mov	 ecx, DWORD PTR _this$[ebp]
  0031f	83 c1 64	 add	 ecx, 100		; 00000064H
  00322	e8 00 00 00 00	 call	 ??A?$CArray@VCPaneBase@ETSLayoutMgr@@V12@@@QAEAAVCPaneBase@ETSLayoutMgr@@H@Z ; CArray<ETSLayoutMgr::CPaneBase,ETSLayoutMgr::CPaneBase>::operator[]
  00327	50		 push	 eax
  00328	8d 4d e0	 lea	 ecx, DWORD PTR _pItem1$[ebp]
  0032b	e8 00 00 00 00	 call	 ??0CPaneBase@ETSLayoutMgr@@QAE@ABV01@@Z ; ETSLayoutMgr::CPaneBase::CPaneBase
  00330	c6 45 fc 01	 mov	 BYTE PTR __$EHRec$[ebp+8], 1

; 107  : 	CPaneBase pItem2 = this->m_paneItems[2];

  00334	6a 02		 push	 2
  00336	8b 4d 94	 mov	 ecx, DWORD PTR _this$[ebp]
  00339	83 c1 64	 add	 ecx, 100		; 00000064H
  0033c	e8 00 00 00 00	 call	 ??A?$CArray@VCPaneBase@ETSLayoutMgr@@V12@@@QAEAAVCPaneBase@ETSLayoutMgr@@H@Z ; CArray<ETSLayoutMgr::CPaneBase,ETSLayoutMgr::CPaneBase>::operator[]
  00341	50		 push	 eax
  00342	8d 4d ec	 lea	 ecx, DWORD PTR _pItem2$[ebp]
  00345	e8 00 00 00 00	 call	 ??0CPaneBase@ETSLayoutMgr@@QAE@ABV01@@Z ; ETSLayoutMgr::CPaneBase::CPaneBase
  0034a	c6 45 fc 02	 mov	 BYTE PTR __$EHRec$[ebp+8], 2

; 108  : 	if( m_nDeflate &&
; 109  : 		(pItem1->getPaneRect().Width() == pItem1->getMinConstrainHorz() 
; 110  : 		|| pItem1->getPaneRect().Height() == pItem1->getMinConstrainVert())
; 111  : 		)

  0034e	8b 4d 94	 mov	 ecx, DWORD PTR _this$[ebp]
  00351	83 b9 90 00 00
	00 00		 cmp	 DWORD PTR [ecx+144], 0
  00358	0f 84 8d 00 00
	00		 je	 $L200854
  0035e	8d 4d e0	 lea	 ecx, DWORD PTR _pItem1$[ebp]
  00361	e8 00 00 00 00	 call	 ??CCPaneBase@ETSLayoutMgr@@QBEPAVPaneBase@1@XZ ; ETSLayoutMgr::CPaneBase::operator->
  00366	89 45 90	 mov	 DWORD PTR tv158[ebp], eax
  00369	8b 55 90	 mov	 edx, DWORD PTR tv158[ebp]
  0036c	8b 02		 mov	 eax, DWORD PTR [edx]
  0036e	8b 4d 90	 mov	 ecx, DWORD PTR tv158[ebp]
  00371	ff 50 08	 call	 DWORD PTR [eax+8]
  00374	8b f0		 mov	 esi, eax
  00376	8d 4d cc	 lea	 ecx, DWORD PTR $T203170[ebp]
  00379	51		 push	 ecx
  0037a	8d 4d e0	 lea	 ecx, DWORD PTR _pItem1$[ebp]
  0037d	e8 00 00 00 00	 call	 ??CCPaneBase@ETSLayoutMgr@@QBEPAVPaneBase@1@XZ ; ETSLayoutMgr::CPaneBase::operator->
  00382	8b c8		 mov	 ecx, eax
  00384	e8 00 00 00 00	 call	 ?getPaneRect@PaneBase@ETSLayoutMgr@@QAE?AVCRect@@XZ ; ETSLayoutMgr::PaneBase::getPaneRect
  00389	8b c8		 mov	 ecx, eax
  0038b	e8 00 00 00 00	 call	 ?Width@CRect@@QBEHXZ	; CRect::Width
  00390	3b c6		 cmp	 eax, esi
  00392	74 36		 je	 SHORT $L200855
  00394	8d 4d e0	 lea	 ecx, DWORD PTR _pItem1$[ebp]
  00397	e8 00 00 00 00	 call	 ??CCPaneBase@ETSLayoutMgr@@QBEPAVPaneBase@1@XZ ; ETSLayoutMgr::CPaneBase::operator->
  0039c	89 45 8c	 mov	 DWORD PTR tv173[ebp], eax
  0039f	8b 55 8c	 mov	 edx, DWORD PTR tv173[ebp]
  003a2	8b 02		 mov	 eax, DWORD PTR [edx]
  003a4	8b 4d 8c	 mov	 ecx, DWORD PTR tv173[ebp]
  003a7	ff 50 10	 call	 DWORD PTR [eax+16]
  003aa	8b f0		 mov	 esi, eax
  003ac	8d 4d bc	 lea	 ecx, DWORD PTR $T203171[ebp]
  003af	51		 push	 ecx
  003b0	8d 4d e0	 lea	 ecx, DWORD PTR _pItem1$[ebp]
  003b3	e8 00 00 00 00	 call	 ??CCPaneBase@ETSLayoutMgr@@QBEPAVPaneBase@1@XZ ; ETSLayoutMgr::CPaneBase::operator->
  003b8	8b c8		 mov	 ecx, eax
  003ba	e8 00 00 00 00	 call	 ?getPaneRect@PaneBase@ETSLayoutMgr@@QAE?AVCRect@@XZ ; ETSLayoutMgr::PaneBase::getPaneRect
  003bf	8b c8		 mov	 ecx, eax
  003c1	e8 00 00 00 00	 call	 ?Height@CRect@@QBEHXZ	; CRect::Height
  003c6	3b c6		 cmp	 eax, esi
  003c8	75 21		 jne	 SHORT $L200854
$L200855:

; 112  : 	{
; 113  : 		modeSize2 = pItem2->modeResize();

  003ca	8d 4d ec	 lea	 ecx, DWORD PTR _pItem2$[ebp]
  003cd	e8 00 00 00 00	 call	 ??CCPaneBase@ETSLayoutMgr@@QBEPAVPaneBase@1@XZ ; ETSLayoutMgr::CPaneBase::operator->
  003d2	8b c8		 mov	 ecx, eax
  003d4	e8 00 00 00 00	 call	 ?modeResize@PaneBase@ETSLayoutMgr@@QAEKXZ ; ETSLayoutMgr::PaneBase::modeResize
  003d9	89 45 e4	 mov	 DWORD PTR _modeSize2$[ebp], eax

; 114  : 		pItem2->m_modeResize = GREEDY;

  003dc	8d 4d ec	 lea	 ecx, DWORD PTR _pItem2$[ebp]
  003df	e8 00 00 00 00	 call	 ??CCPaneBase@ETSLayoutMgr@@QBEPAVPaneBase@1@XZ ; ETSLayoutMgr::CPaneBase::operator->
  003e4	c7 40 18 00 00
	00 00		 mov	 DWORD PTR [eax+24], 0
$L200854:

; 115  : 
; 116  : 	}
; 117  : 	if( m_nDeflate &&
; 118  : 		(pItem2->getPaneRect().Width() == pItem2->getMinConstrainHorz() 
; 119  : 		|| pItem2->getPaneRect().Height() == pItem2->getMinConstrainVert())
; 120  : 		)

  003eb	8b 55 94	 mov	 edx, DWORD PTR _this$[ebp]
  003ee	83 ba 90 00 00
	00 00		 cmp	 DWORD PTR [edx+144], 0
  003f5	0f 84 8d 00 00
	00		 je	 $L200858
  003fb	8d 4d ec	 lea	 ecx, DWORD PTR _pItem2$[ebp]
  003fe	e8 00 00 00 00	 call	 ??CCPaneBase@ETSLayoutMgr@@QBEPAVPaneBase@1@XZ ; ETSLayoutMgr::CPaneBase::operator->
  00403	89 45 88	 mov	 DWORD PTR tv197[ebp], eax
  00406	8b 45 88	 mov	 eax, DWORD PTR tv197[ebp]
  00409	8b 10		 mov	 edx, DWORD PTR [eax]
  0040b	8b 4d 88	 mov	 ecx, DWORD PTR tv197[ebp]
  0040e	ff 52 08	 call	 DWORD PTR [edx+8]
  00411	8b f0		 mov	 esi, eax
  00413	8d 45 ac	 lea	 eax, DWORD PTR $T203172[ebp]
  00416	50		 push	 eax
  00417	8d 4d ec	 lea	 ecx, DWORD PTR _pItem2$[ebp]
  0041a	e8 00 00 00 00	 call	 ??CCPaneBase@ETSLayoutMgr@@QBEPAVPaneBase@1@XZ ; ETSLayoutMgr::CPaneBase::operator->
  0041f	8b c8		 mov	 ecx, eax
  00421	e8 00 00 00 00	 call	 ?getPaneRect@PaneBase@ETSLayoutMgr@@QAE?AVCRect@@XZ ; ETSLayoutMgr::PaneBase::getPaneRect
  00426	8b c8		 mov	 ecx, eax
  00428	e8 00 00 00 00	 call	 ?Width@CRect@@QBEHXZ	; CRect::Width
  0042d	3b c6		 cmp	 eax, esi
  0042f	74 36		 je	 SHORT $L200859
  00431	8d 4d ec	 lea	 ecx, DWORD PTR _pItem2$[ebp]
  00434	e8 00 00 00 00	 call	 ??CCPaneBase@ETSLayoutMgr@@QBEPAVPaneBase@1@XZ ; ETSLayoutMgr::CPaneBase::operator->
  00439	89 45 84	 mov	 DWORD PTR tv212[ebp], eax
  0043c	8b 4d 84	 mov	 ecx, DWORD PTR tv212[ebp]
  0043f	8b 11		 mov	 edx, DWORD PTR [ecx]
  00441	8b 4d 84	 mov	 ecx, DWORD PTR tv212[ebp]
  00444	ff 52 10	 call	 DWORD PTR [edx+16]
  00447	8b f0		 mov	 esi, eax
  00449	8d 45 9c	 lea	 eax, DWORD PTR $T203173[ebp]
  0044c	50		 push	 eax
  0044d	8d 4d ec	 lea	 ecx, DWORD PTR _pItem2$[ebp]
  00450	e8 00 00 00 00	 call	 ??CCPaneBase@ETSLayoutMgr@@QBEPAVPaneBase@1@XZ ; ETSLayoutMgr::CPaneBase::operator->
  00455	8b c8		 mov	 ecx, eax
  00457	e8 00 00 00 00	 call	 ?getPaneRect@PaneBase@ETSLayoutMgr@@QAE?AVCRect@@XZ ; ETSLayoutMgr::PaneBase::getPaneRect
  0045c	8b c8		 mov	 ecx, eax
  0045e	e8 00 00 00 00	 call	 ?Height@CRect@@QBEHXZ	; CRect::Height
  00463	3b c6		 cmp	 eax, esi
  00465	75 21		 jne	 SHORT $L200858
$L200859:

; 121  : 	{
; 122  : 		modeSize1 = pItem1->modeResize();

  00467	8d 4d e0	 lea	 ecx, DWORD PTR _pItem1$[ebp]
  0046a	e8 00 00 00 00	 call	 ??CCPaneBase@ETSLayoutMgr@@QBEPAVPaneBase@1@XZ ; ETSLayoutMgr::CPaneBase::operator->
  0046f	8b c8		 mov	 ecx, eax
  00471	e8 00 00 00 00	 call	 ?modeResize@PaneBase@ETSLayoutMgr@@QAEKXZ ; ETSLayoutMgr::PaneBase::modeResize
  00476	89 45 f0	 mov	 DWORD PTR _modeSize1$[ebp], eax

; 123  : 		pItem1->m_modeResize = GREEDY;

  00479	8d 4d e0	 lea	 ecx, DWORD PTR _pItem1$[ebp]
  0047c	e8 00 00 00 00	 call	 ??CCPaneBase@ETSLayoutMgr@@QBEPAVPaneBase@1@XZ ; ETSLayoutMgr::CPaneBase::operator->
  00481	c7 40 18 00 00
	00 00		 mov	 DWORD PTR [eax+24], 0
$L200858:

; 124  : 	}
; 125  : 
; 126  : 
; 127  : 	ret = Pane::resizeTo(rcNewArea, bRedraw, bReSizeAlways);

  00488	8a 4d 10	 mov	 cl, BYTE PTR _bReSizeAlways$[ebp]
  0048b	51		 push	 ecx
  0048c	8a 55 0c	 mov	 dl, BYTE PTR _bRedraw$[ebp]
  0048f	52		 push	 edx
  00490	8b 45 08	 mov	 eax, DWORD PTR _rcNewArea$[ebp]
  00493	50		 push	 eax
  00494	8b 4d 94	 mov	 ecx, DWORD PTR _this$[ebp]
  00497	e8 00 00 00 00	 call	 ?resizeTo@Pane@ETSLayoutMgr@@UAE_NAAVCRect@@_N1@Z ; ETSLayoutMgr::Pane::resizeTo
  0049c	88 45 eb	 mov	 BYTE PTR _ret$[ebp], al

; 128  : 	m_rcRect = rcNewArea;

  0049f	8b 4d 08	 mov	 ecx, DWORD PTR _rcNewArea$[ebp]
  004a2	8b 55 94	 mov	 edx, DWORD PTR _this$[ebp]
  004a5	83 c2 28	 add	 edx, 40			; 00000028H
  004a8	8b 01		 mov	 eax, DWORD PTR [ecx]
  004aa	89 02		 mov	 DWORD PTR [edx], eax
  004ac	8b 41 04	 mov	 eax, DWORD PTR [ecx+4]
  004af	89 42 04	 mov	 DWORD PTR [edx+4], eax
  004b2	8b 41 08	 mov	 eax, DWORD PTR [ecx+8]
  004b5	89 42 08	 mov	 DWORD PTR [edx+8], eax
  004b8	8b 49 0c	 mov	 ecx, DWORD PTR [ecx+12]
  004bb	89 4a 0c	 mov	 DWORD PTR [edx+12], ecx

; 129  : 	m_pSpl->ShowWindow(SW_SHOW);

  004be	6a 05		 push	 5
  004c0	8b 55 94	 mov	 edx, DWORD PTR _this$[ebp]
  004c3	8b 8a 94 00 00
	00		 mov	 ecx, DWORD PTR [edx+148]
  004c9	e8 00 00 00 00	 call	 ?ShowWindow@CWnd@@QAEHH@Z ; CWnd::ShowWindow

; 130  : 
; 131  : 	if(modeSize1 != -1)

  004ce	83 7d f0 ff	 cmp	 DWORD PTR _modeSize1$[ebp], -1
  004d2	74 0e		 je	 SHORT $L200860

; 132  : 		pItem1->m_modeResize = modeSize1;

  004d4	8d 4d e0	 lea	 ecx, DWORD PTR _pItem1$[ebp]
  004d7	e8 00 00 00 00	 call	 ??CCPaneBase@ETSLayoutMgr@@QBEPAVPaneBase@1@XZ ; ETSLayoutMgr::CPaneBase::operator->
  004dc	8b 4d f0	 mov	 ecx, DWORD PTR _modeSize1$[ebp]
  004df	89 48 18	 mov	 DWORD PTR [eax+24], ecx
$L200860:

; 133  : 	if(modeSize2 != -1)

  004e2	83 7d e4 ff	 cmp	 DWORD PTR _modeSize2$[ebp], -1
  004e6	74 0e		 je	 SHORT $L200861

; 134  : 		pItem2->m_modeResize = modeSize2;

  004e8	8d 4d ec	 lea	 ecx, DWORD PTR _pItem2$[ebp]
  004eb	e8 00 00 00 00	 call	 ??CCPaneBase@ETSLayoutMgr@@QBEPAVPaneBase@1@XZ ; ETSLayoutMgr::CPaneBase::operator->
  004f0	8b 55 e4	 mov	 edx, DWORD PTR _modeSize2$[ebp]
  004f3	89 50 18	 mov	 DWORD PTR [eax+24], edx
$L200861:

; 135  : 
; 136  : 	return ret;

  004f6	8a 45 eb	 mov	 al, BYTE PTR _ret$[ebp]
  004f9	88 45 9b	 mov	 BYTE PTR $T203174[ebp], al
  004fc	c6 45 fc 01	 mov	 BYTE PTR __$EHRec$[ebp+8], 1
  00500	8d 4d ec	 lea	 ecx, DWORD PTR _pItem2$[ebp]
  00503	e8 00 00 00 00	 call	 ??1CPaneBase@ETSLayoutMgr@@QAE@XZ ; ETSLayoutMgr::CPaneBase::~CPaneBase
  00508	c6 45 fc 00	 mov	 BYTE PTR __$EHRec$[ebp+8], 0
  0050c	8d 4d e0	 lea	 ecx, DWORD PTR _pItem1$[ebp]
  0050f	e8 00 00 00 00	 call	 ??1CPaneBase@ETSLayoutMgr@@QAE@XZ ; ETSLayoutMgr::CPaneBase::~CPaneBase
  00514	c7 45 fc ff ff
	ff ff		 mov	 DWORD PTR __$EHRec$[ebp+8], -1
  0051b	8d 4d dc	 lea	 ecx, DWORD PTR _pItem3$[ebp]
  0051e	e8 00 00 00 00	 call	 ??1CPaneBase@ETSLayoutMgr@@QAE@XZ ; ETSLayoutMgr::CPaneBase::~CPaneBase
  00523	8a 45 9b	 mov	 al, BYTE PTR $T203174[ebp]
$L200841:

; 137  : }

  00526	8b 4d f4	 mov	 ecx, DWORD PTR __$EHRec$[ebp]
  00529	64 89 0d 00 00
	00 00		 mov	 DWORD PTR fs:__except_list, ecx
  00530	5e		 pop	 esi
  00531	8b e5		 mov	 esp, ebp
  00533	5d		 pop	 ebp
  00534	c2 0c 00	 ret	 12			; 0000000cH
_TEXT	ENDS
text$x	SEGMENT
$L203175:
  00015	8d 4d dc	 lea	 ecx, DWORD PTR _pItem3$[ebp]
  00018	e9 00 00 00 00	 jmp	 ??1CPaneBase@ETSLayoutMgr@@QAE@XZ ; ETSLayoutMgr::CPaneBase::~CPaneBase
$L203176:
  0001d	8d 4d e0	 lea	 ecx, DWORD PTR _pItem1$[ebp]
  00020	e9 00 00 00 00	 jmp	 ??1CPaneBase@ETSLayoutMgr@@QAE@XZ ; ETSLayoutMgr::CPaneBase::~CPaneBase
$L203177:
  00025	8d 4d ec	 lea	 ecx, DWORD PTR _pItem2$[ebp]
  00028	e9 00 00 00 00	 jmp	 ??1CPaneBase@ETSLayoutMgr@@QAE@XZ ; ETSLayoutMgr::CPaneBase::~CPaneBase
__ehhandler$?resizeTo@PaneSplitter@ETSLayoutMgr@@UAE_NAAVCRect@@_N1@Z:
  0002d	b8 00 00 00 00	 mov	 eax, OFFSET FLAT:$T203179
  00032	e9 00 00 00 00	 jmp	 ___CxxFrameHandler
text$x	ENDS
?resizeTo@PaneSplitter@ETSLayoutMgr@@UAE_NAAVCRect@@_N1@Z ENDP ; ETSLayoutMgr::PaneSplitter::resizeTo
; Function compile flags: /Odt
; File d:\boxgit\playbox\playbox\dev\prj\playbox\src\layoutmgr\etslayout.h
;	COMDAT ?modeResize@PaneBase@ETSLayoutMgr@@QAEKXZ
_TEXT	SEGMENT
_this$ = -4						; size = 4
?modeResize@PaneBase@ETSLayoutMgr@@QAEKXZ PROC NEAR	; ETSLayoutMgr::PaneBase::modeResize, COMDAT
; _this$ = ecx

; 294  : 		DWORD	modeResize() { return m_modeResize; };

  00000	55		 push	 ebp
  00001	8b ec		 mov	 ebp, esp
  00003	51		 push	 ecx
  00004	89 4d fc	 mov	 DWORD PTR _this$[ebp], ecx
  00007	8b 45 fc	 mov	 eax, DWORD PTR _this$[ebp]
  0000a	8b 40 18	 mov	 eax, DWORD PTR [eax+24]
  0000d	8b e5		 mov	 esp, ebp
  0000f	5d		 pop	 ebp
  00010	c3		 ret	 0
?modeResize@PaneBase@ETSLayoutMgr@@QAEKXZ ENDP		; ETSLayoutMgr::PaneBase::modeResize
_TEXT	ENDS
PUBLIC	?setOpenConstrain@PaneSplitter@ETSLayoutMgr@@QAEXXZ ; ETSLayoutMgr::PaneSplitter::setOpenConstrain
EXTRN	??0CPaneBase@ETSLayoutMgr@@QAE@XZ:NEAR		; ETSLayoutMgr::CPaneBase::CPaneBase
EXTRN	??4CPaneBase@ETSLayoutMgr@@QAEXABV01@@Z:NEAR	; ETSLayoutMgr::CPaneBase::operator=
xdata$x	SEGMENT
$T203189 DD	0ffffffffH
	DD	FLAT:$L203185
$T203187 DD	019930520H
	DD	01H
	DD	FLAT:$T203189
	DD	2 DUP(00H)
	DD	2 DUP(00H)
; Function compile flags: /Odt
; File d:\boxgit\playbox\playbox\dev\prj\playbox\src\layoutmgr\etslayoutex.cpp
xdata$x	ENDS
_TEXT	SEGMENT
_this$ = -36						; size = 4
_pItem$ = -32						; size = 4
_rc$ = -28						; size = 16
__$EHRec$ = -12						; size = 12
?setOpenConstrain@PaneSplitter@ETSLayoutMgr@@QAEXXZ PROC NEAR ; ETSLayoutMgr::PaneSplitter::setOpenConstrain
; _this$ = ecx

; 141  : {

  00540	55		 push	 ebp
  00541	8b ec		 mov	 ebp, esp
  00543	6a ff		 push	 -1
  00545	68 00 00 00 00	 push	 __ehhandler$?setOpenConstrain@PaneSplitter@ETSLayoutMgr@@QAEXXZ
  0054a	64 a1 00 00 00
	00		 mov	 eax, DWORD PTR fs:__except_list
  00550	50		 push	 eax
  00551	64 89 25 00 00
	00 00		 mov	 DWORD PTR fs:__except_list, esp
  00558	83 ec 18	 sub	 esp, 24			; 00000018H
  0055b	89 4d dc	 mov	 DWORD PTR _this$[ebp], ecx

; 142  : 	CPaneBase pItem;

  0055e	8d 4d e0	 lea	 ecx, DWORD PTR _pItem$[ebp]
  00561	e8 00 00 00 00	 call	 ??0CPaneBase@ETSLayoutMgr@@QAE@XZ ; ETSLayoutMgr::CPaneBase::CPaneBase
  00566	c7 45 fc 00 00
	00 00		 mov	 DWORD PTR __$EHRec$[ebp+8], 0

; 143  : 	if(this->m_nClosedOri == 0)

  0056d	8b 45 dc	 mov	 eax, DWORD PTR _this$[ebp]
  00570	83 b8 84 00 00
	00 00		 cmp	 DWORD PTR [eax+132], 0
  00577	75 18		 jne	 SHORT $L200867

; 144  : 		pItem = m_paneItems[0];

  00579	6a 00		 push	 0
  0057b	8b 4d dc	 mov	 ecx, DWORD PTR _this$[ebp]
  0057e	83 c1 64	 add	 ecx, 100		; 00000064H
  00581	e8 00 00 00 00	 call	 ??A?$CArray@VCPaneBase@ETSLayoutMgr@@V12@@@QAEAAVCPaneBase@ETSLayoutMgr@@H@Z ; CArray<ETSLayoutMgr::CPaneBase,ETSLayoutMgr::CPaneBase>::operator[]
  00586	50		 push	 eax
  00587	8d 4d e0	 lea	 ecx, DWORD PTR _pItem$[ebp]
  0058a	e8 00 00 00 00	 call	 ??4CPaneBase@ETSLayoutMgr@@QAEXABV01@@Z ; ETSLayoutMgr::CPaneBase::operator=

; 145  : 	else

  0058f	eb 16		 jmp	 SHORT $L200868
$L200867:

; 146  : 		pItem = m_paneItems[2];

  00591	6a 02		 push	 2
  00593	8b 4d dc	 mov	 ecx, DWORD PTR _this$[ebp]
  00596	83 c1 64	 add	 ecx, 100		; 00000064H
  00599	e8 00 00 00 00	 call	 ??A?$CArray@VCPaneBase@ETSLayoutMgr@@V12@@@QAEAAVCPaneBase@ETSLayoutMgr@@H@Z ; CArray<ETSLayoutMgr::CPaneBase,ETSLayoutMgr::CPaneBase>::operator[]
  0059e	50		 push	 eax
  0059f	8d 4d e0	 lea	 ecx, DWORD PTR _pItem$[ebp]
  005a2	e8 00 00 00 00	 call	 ??4CPaneBase@ETSLayoutMgr@@QAEXABV01@@Z ; ETSLayoutMgr::CPaneBase::operator=
$L200868:

; 147  : 	CRect rc = pItem->getPaneRect();

  005a7	8d 4d e4	 lea	 ecx, DWORD PTR _rc$[ebp]
  005aa	51		 push	 ecx
  005ab	8d 4d e0	 lea	 ecx, DWORD PTR _pItem$[ebp]
  005ae	e8 00 00 00 00	 call	 ??CCPaneBase@ETSLayoutMgr@@QBEPAVPaneBase@1@XZ ; ETSLayoutMgr::CPaneBase::operator->
  005b3	8b c8		 mov	 ecx, eax
  005b5	e8 00 00 00 00	 call	 ?getPaneRect@PaneBase@ETSLayoutMgr@@QAE?AVCRect@@XZ ; ETSLayoutMgr::PaneBase::getPaneRect

; 148  : 	
; 149  : 	if(this->m_Orientation == ETSLayoutMgr::HORIZONTAL)

  005ba	8b 55 dc	 mov	 edx, DWORD PTR _this$[ebp]
  005bd	83 7a 60 00	 cmp	 DWORD PTR [edx+96], 0
  005c1	75 13		 jne	 SHORT $L200871

; 150  : 	{
; 151  : 		this->m_nSplOpendPos = rc.Width();

  005c3	8d 4d e4	 lea	 ecx, DWORD PTR _rc$[ebp]
  005c6	e8 00 00 00 00	 call	 ?Width@CRect@@QBEHXZ	; CRect::Width
  005cb	8b 4d dc	 mov	 ecx, DWORD PTR _this$[ebp]
  005ce	89 81 8c 00 00
	00		 mov	 DWORD PTR [ecx+140], eax

; 152  : 		TRACE("fff%d\n", m_nSplOpendPos);
; 153  : 	}
; 154  : 	else

  005d4	eb 11		 jmp	 SHORT $L200872
$L200871:

; 155  : 	{
; 156  : 		this->m_nSplOpendPos = rc.Height();

  005d6	8d 4d e4	 lea	 ecx, DWORD PTR _rc$[ebp]
  005d9	e8 00 00 00 00	 call	 ?Height@CRect@@QBEHXZ	; CRect::Height
  005de	8b 55 dc	 mov	 edx, DWORD PTR _this$[ebp]
  005e1	89 82 8c 00 00
	00		 mov	 DWORD PTR [edx+140], eax
$L200872:

; 157  : 	}
; 158  : 
; 159  : 	//m_sizeSecondary = m_nSplOpendPos;
; 160  : }

  005e7	c7 45 fc ff ff
	ff ff		 mov	 DWORD PTR __$EHRec$[ebp+8], -1
  005ee	8d 4d e0	 lea	 ecx, DWORD PTR _pItem$[ebp]
  005f1	e8 00 00 00 00	 call	 ??1CPaneBase@ETSLayoutMgr@@QAE@XZ ; ETSLayoutMgr::CPaneBase::~CPaneBase
  005f6	8b 4d f4	 mov	 ecx, DWORD PTR __$EHRec$[ebp]
  005f9	64 89 0d 00 00
	00 00		 mov	 DWORD PTR fs:__except_list, ecx
  00600	8b e5		 mov	 esp, ebp
  00602	5d		 pop	 ebp
  00603	c3		 ret	 0
_TEXT	ENDS
text$x	SEGMENT
$L203185:
  00037	8d 4d e0	 lea	 ecx, DWORD PTR _pItem$[ebp]
  0003a	e9 00 00 00 00	 jmp	 ??1CPaneBase@ETSLayoutMgr@@QAE@XZ ; ETSLayoutMgr::CPaneBase::~CPaneBase
__ehhandler$?setOpenConstrain@PaneSplitter@ETSLayoutMgr@@QAEXXZ:
  0003f	b8 00 00 00 00	 mov	 eax, OFFSET FLAT:$T203187
  00044	e9 00 00 00 00	 jmp	 ___CxxFrameHandler
text$x	ENDS
?setOpenConstrain@PaneSplitter@ETSLayoutMgr@@QAEXXZ ENDP ; ETSLayoutMgr::PaneSplitter::setOpenConstrain
PUBLIC	?getOpenConstrain@PaneSplitter@ETSLayoutMgr@@QAEHH@Z ; ETSLayoutMgr::PaneSplitter::getOpenConstrain
xdata$x	SEGMENT
$T203196 DD	0ffffffffH
	DD	FLAT:$L203192
$T203194 DD	019930520H
	DD	01H
	DD	FLAT:$T203196
	DD	2 DUP(00H)
	DD	2 DUP(00H)
; Function compile flags: /Odt
xdata$x	ENDS
_TEXT	SEGMENT
_this$ = -48						; size = 4
$T203191 = -44						; size = 4
_maxConstrain$ = -40					; size = 4
_pItem$ = -36						; size = 4
_orgValue$ = -32					; size = 4
_rc$ = -28						; size = 16
__$EHRec$ = -12						; size = 12
_offset$ = 8						; size = 4
?getOpenConstrain@PaneSplitter@ETSLayoutMgr@@QAEHH@Z PROC NEAR ; ETSLayoutMgr::PaneSplitter::getOpenConstrain
; _this$ = ecx

; 163  : {

  00610	55		 push	 ebp
  00611	8b ec		 mov	 ebp, esp
  00613	6a ff		 push	 -1
  00615	68 00 00 00 00	 push	 __ehhandler$?getOpenConstrain@PaneSplitter@ETSLayoutMgr@@QAEHH@Z
  0061a	64 a1 00 00 00
	00		 mov	 eax, DWORD PTR fs:__except_list
  00620	50		 push	 eax
  00621	64 89 25 00 00
	00 00		 mov	 DWORD PTR fs:__except_list, esp
  00628	83 ec 24	 sub	 esp, 36			; 00000024H
  0062b	89 4d d0	 mov	 DWORD PTR _this$[ebp], ecx

; 164  : 	CPaneBase pItem;

  0062e	8d 4d dc	 lea	 ecx, DWORD PTR _pItem$[ebp]
  00631	e8 00 00 00 00	 call	 ??0CPaneBase@ETSLayoutMgr@@QAE@XZ ; ETSLayoutMgr::CPaneBase::CPaneBase
  00636	c7 45 fc 00 00
	00 00		 mov	 DWORD PTR __$EHRec$[ebp+8], 0

; 165  : 	int orgValue = 0;

  0063d	c7 45 e0 00 00
	00 00		 mov	 DWORD PTR _orgValue$[ebp], 0

; 166  : 	int maxConstrain = this->m_nSplOpendPos;

  00644	8b 45 d0	 mov	 eax, DWORD PTR _this$[ebp]
  00647	8b 88 8c 00 00
	00		 mov	 ecx, DWORD PTR [eax+140]
  0064d	89 4d d8	 mov	 DWORD PTR _maxConstrain$[ebp], ecx

; 167  : 
; 168  : 	if(offset < 0)

  00650	83 7d 08 00	 cmp	 DWORD PTR _offset$[ebp], 0
  00654	7d 18		 jge	 SHORT $L200880

; 169  : 		pItem = m_paneItems[2];

  00656	6a 02		 push	 2
  00658	8b 4d d0	 mov	 ecx, DWORD PTR _this$[ebp]
  0065b	83 c1 64	 add	 ecx, 100		; 00000064H
  0065e	e8 00 00 00 00	 call	 ??A?$CArray@VCPaneBase@ETSLayoutMgr@@V12@@@QAEAAVCPaneBase@ETSLayoutMgr@@H@Z ; CArray<ETSLayoutMgr::CPaneBase,ETSLayoutMgr::CPaneBase>::operator[]
  00663	50		 push	 eax
  00664	8d 4d dc	 lea	 ecx, DWORD PTR _pItem$[ebp]
  00667	e8 00 00 00 00	 call	 ??4CPaneBase@ETSLayoutMgr@@QAEXABV01@@Z ; ETSLayoutMgr::CPaneBase::operator=

; 170  : 	else

  0066c	eb 16		 jmp	 SHORT $L200881
$L200880:

; 171  : 		pItem = m_paneItems[0];

  0066e	6a 00		 push	 0
  00670	8b 4d d0	 mov	 ecx, DWORD PTR _this$[ebp]
  00673	83 c1 64	 add	 ecx, 100		; 00000064H
  00676	e8 00 00 00 00	 call	 ??A?$CArray@VCPaneBase@ETSLayoutMgr@@V12@@@QAEAAVCPaneBase@ETSLayoutMgr@@H@Z ; CArray<ETSLayoutMgr::CPaneBase,ETSLayoutMgr::CPaneBase>::operator[]
  0067b	50		 push	 eax
  0067c	8d 4d dc	 lea	 ecx, DWORD PTR _pItem$[ebp]
  0067f	e8 00 00 00 00	 call	 ??4CPaneBase@ETSLayoutMgr@@QAEXABV01@@Z ; ETSLayoutMgr::CPaneBase::operator=
$L200881:

; 172  : 
; 173  : 	CRect rc = pItem->getPaneRect();

  00684	8d 55 e4	 lea	 edx, DWORD PTR _rc$[ebp]
  00687	52		 push	 edx
  00688	8d 4d dc	 lea	 ecx, DWORD PTR _pItem$[ebp]
  0068b	e8 00 00 00 00	 call	 ??CCPaneBase@ETSLayoutMgr@@QBEPAVPaneBase@1@XZ ; ETSLayoutMgr::CPaneBase::operator->
  00690	8b c8		 mov	 ecx, eax
  00692	e8 00 00 00 00	 call	 ?getPaneRect@PaneBase@ETSLayoutMgr@@QAE?AVCRect@@XZ ; ETSLayoutMgr::PaneBase::getPaneRect

; 174  : 
; 175  : 	if(m_Orientation == ETSLayoutMgr::HORIZONTAL)

  00697	8b 45 d0	 mov	 eax, DWORD PTR _this$[ebp]
  0069a	83 78 60 00	 cmp	 DWORD PTR [eax+96], 0
  0069e	75 0d		 jne	 SHORT $L200884

; 176  : 	{
; 177  : 		orgValue = rc.Width();

  006a0	8d 4d e4	 lea	 ecx, DWORD PTR _rc$[ebp]
  006a3	e8 00 00 00 00	 call	 ?Width@CRect@@QBEHXZ	; CRect::Width
  006a8	89 45 e0	 mov	 DWORD PTR _orgValue$[ebp], eax

; 178  : 		//minConstrain = getCloseConstrainHorz();
; 179  : 	}
; 180  : 	else

  006ab	eb 0b		 jmp	 SHORT $L200885
$L200884:

; 181  : 	{
; 182  : 		orgValue = rc.Height();

  006ad	8d 4d e4	 lea	 ecx, DWORD PTR _rc$[ebp]
  006b0	e8 00 00 00 00	 call	 ?Height@CRect@@QBEHXZ	; CRect::Height
  006b5	89 45 e0	 mov	 DWORD PTR _orgValue$[ebp], eax
$L200885:

; 183  : 		//minConstrain = pItem->getMinConstrainVert();
; 184  : 	}
; 185  : 
; 186  : 	if(offset < 0)

  006b8	83 7d 08 00	 cmp	 DWORD PTR _offset$[ebp], 0
  006bc	7d 16		 jge	 SHORT $L200886

; 187  : 	{
; 188  : 		if(orgValue - offset > maxConstrain)

  006be	8b 4d e0	 mov	 ecx, DWORD PTR _orgValue$[ebp]
  006c1	2b 4d 08	 sub	 ecx, DWORD PTR _offset$[ebp]
  006c4	3b 4d d8	 cmp	 ecx, DWORD PTR _maxConstrain$[ebp]
  006c7	7e 09		 jle	 SHORT $L200887

; 189  : 			offset =  orgValue - maxConstrain;

  006c9	8b 55 e0	 mov	 edx, DWORD PTR _orgValue$[ebp]
  006cc	2b 55 d8	 sub	 edx, DWORD PTR _maxConstrain$[ebp]
  006cf	89 55 08	 mov	 DWORD PTR _offset$[ebp], edx
$L200887:

; 190  : 	}
; 191  : 	else

  006d2	eb 14		 jmp	 SHORT $L200888
$L200886:

; 192  : 	{
; 193  : 		if(orgValue + offset > maxConstrain)

  006d4	8b 45 e0	 mov	 eax, DWORD PTR _orgValue$[ebp]
  006d7	03 45 08	 add	 eax, DWORD PTR _offset$[ebp]
  006da	3b 45 d8	 cmp	 eax, DWORD PTR _maxConstrain$[ebp]
  006dd	7e 09		 jle	 SHORT $L200888

; 194  : 			offset = maxConstrain - orgValue;

  006df	8b 4d d8	 mov	 ecx, DWORD PTR _maxConstrain$[ebp]
  006e2	2b 4d e0	 sub	 ecx, DWORD PTR _orgValue$[ebp]
  006e5	89 4d 08	 mov	 DWORD PTR _offset$[ebp], ecx
$L200888:

; 195  : 	}
; 196  : 
; 197  : 	return offset;

  006e8	8b 55 08	 mov	 edx, DWORD PTR _offset$[ebp]
  006eb	89 55 d4	 mov	 DWORD PTR $T203191[ebp], edx
  006ee	c7 45 fc ff ff
	ff ff		 mov	 DWORD PTR __$EHRec$[ebp+8], -1
  006f5	8d 4d dc	 lea	 ecx, DWORD PTR _pItem$[ebp]
  006f8	e8 00 00 00 00	 call	 ??1CPaneBase@ETSLayoutMgr@@QAE@XZ ; ETSLayoutMgr::CPaneBase::~CPaneBase
  006fd	8b 45 d4	 mov	 eax, DWORD PTR $T203191[ebp]

; 198  : }

  00700	8b 4d f4	 mov	 ecx, DWORD PTR __$EHRec$[ebp]
  00703	64 89 0d 00 00
	00 00		 mov	 DWORD PTR fs:__except_list, ecx
  0070a	8b e5		 mov	 esp, ebp
  0070c	5d		 pop	 ebp
  0070d	c2 04 00	 ret	 4
_TEXT	ENDS
text$x	SEGMENT
$L203192:
  00049	8d 4d dc	 lea	 ecx, DWORD PTR _pItem$[ebp]
  0004c	e9 00 00 00 00	 jmp	 ??1CPaneBase@ETSLayoutMgr@@QAE@XZ ; ETSLayoutMgr::CPaneBase::~CPaneBase
__ehhandler$?getOpenConstrain@PaneSplitter@ETSLayoutMgr@@QAEHH@Z:
  00051	b8 00 00 00 00	 mov	 eax, OFFSET FLAT:$T203194
  00056	e9 00 00 00 00	 jmp	 ___CxxFrameHandler
text$x	ENDS
?getOpenConstrain@PaneSplitter@ETSLayoutMgr@@QAEHH@Z ENDP ; ETSLayoutMgr::PaneSplitter::getOpenConstrain
PUBLIC	?getCloseConstrain@PaneSplitter@ETSLayoutMgr@@QAEHH@Z ; ETSLayoutMgr::PaneSplitter::getCloseConstrain
xdata$x	SEGMENT
$T203203 DD	0ffffffffH
	DD	FLAT:$L203199
$T203201 DD	019930520H
	DD	01H
	DD	FLAT:$T203203
	DD	2 DUP(00H)
	DD	2 DUP(00H)
; Function compile flags: /Odt
xdata$x	ENDS
_TEXT	SEGMENT
_this$ = -48						; size = 4
$T203198 = -44						; size = 4
_minConstrain$ = -40					; size = 4
_pItem$ = -36						; size = 4
_orgValue$ = -32					; size = 4
_rc$ = -28						; size = 16
__$EHRec$ = -12						; size = 12
_offset$ = 8						; size = 4
?getCloseConstrain@PaneSplitter@ETSLayoutMgr@@QAEHH@Z PROC NEAR ; ETSLayoutMgr::PaneSplitter::getCloseConstrain
; _this$ = ecx

; 201  : {

  00710	55		 push	 ebp
  00711	8b ec		 mov	 ebp, esp
  00713	6a ff		 push	 -1
  00715	68 00 00 00 00	 push	 __ehhandler$?getCloseConstrain@PaneSplitter@ETSLayoutMgr@@QAEHH@Z
  0071a	64 a1 00 00 00
	00		 mov	 eax, DWORD PTR fs:__except_list
  00720	50		 push	 eax
  00721	64 89 25 00 00
	00 00		 mov	 DWORD PTR fs:__except_list, esp
  00728	83 ec 24	 sub	 esp, 36			; 00000024H
  0072b	89 4d d0	 mov	 DWORD PTR _this$[ebp], ecx

; 202  : 	CPaneBase pItem;

  0072e	8d 4d dc	 lea	 ecx, DWORD PTR _pItem$[ebp]
  00731	e8 00 00 00 00	 call	 ??0CPaneBase@ETSLayoutMgr@@QAE@XZ ; ETSLayoutMgr::CPaneBase::CPaneBase
  00736	c7 45 fc 00 00
	00 00		 mov	 DWORD PTR __$EHRec$[ebp+8], 0

; 203  : 	int orgValue = 0;

  0073d	c7 45 e0 00 00
	00 00		 mov	 DWORD PTR _orgValue$[ebp], 0

; 204  : 	int minConstrain = this->m_nSplClosedPos;

  00744	8b 45 d0	 mov	 eax, DWORD PTR _this$[ebp]
  00747	8b 88 88 00 00
	00		 mov	 ecx, DWORD PTR [eax+136]
  0074d	89 4d d8	 mov	 DWORD PTR _minConstrain$[ebp], ecx

; 205  : 
; 206  : 	if(offset < 0)

  00750	83 7d 08 00	 cmp	 DWORD PTR _offset$[ebp], 0
  00754	7d 18		 jge	 SHORT $L200898

; 207  : 		pItem = m_paneItems[0];

  00756	6a 00		 push	 0
  00758	8b 4d d0	 mov	 ecx, DWORD PTR _this$[ebp]
  0075b	83 c1 64	 add	 ecx, 100		; 00000064H
  0075e	e8 00 00 00 00	 call	 ??A?$CArray@VCPaneBase@ETSLayoutMgr@@V12@@@QAEAAVCPaneBase@ETSLayoutMgr@@H@Z ; CArray<ETSLayoutMgr::CPaneBase,ETSLayoutMgr::CPaneBase>::operator[]
  00763	50		 push	 eax
  00764	8d 4d dc	 lea	 ecx, DWORD PTR _pItem$[ebp]
  00767	e8 00 00 00 00	 call	 ??4CPaneBase@ETSLayoutMgr@@QAEXABV01@@Z ; ETSLayoutMgr::CPaneBase::operator=

; 208  : 	else

  0076c	eb 16		 jmp	 SHORT $L200899
$L200898:

; 209  : 		pItem = m_paneItems[2];

  0076e	6a 02		 push	 2
  00770	8b 4d d0	 mov	 ecx, DWORD PTR _this$[ebp]
  00773	83 c1 64	 add	 ecx, 100		; 00000064H
  00776	e8 00 00 00 00	 call	 ??A?$CArray@VCPaneBase@ETSLayoutMgr@@V12@@@QAEAAVCPaneBase@ETSLayoutMgr@@H@Z ; CArray<ETSLayoutMgr::CPaneBase,ETSLayoutMgr::CPaneBase>::operator[]
  0077b	50		 push	 eax
  0077c	8d 4d dc	 lea	 ecx, DWORD PTR _pItem$[ebp]
  0077f	e8 00 00 00 00	 call	 ??4CPaneBase@ETSLayoutMgr@@QAEXABV01@@Z ; ETSLayoutMgr::CPaneBase::operator=
$L200899:

; 210  : 
; 211  : 	CRect rc = pItem->getPaneRect();

  00784	8d 55 e4	 lea	 edx, DWORD PTR _rc$[ebp]
  00787	52		 push	 edx
  00788	8d 4d dc	 lea	 ecx, DWORD PTR _pItem$[ebp]
  0078b	e8 00 00 00 00	 call	 ??CCPaneBase@ETSLayoutMgr@@QBEPAVPaneBase@1@XZ ; ETSLayoutMgr::CPaneBase::operator->
  00790	8b c8		 mov	 ecx, eax
  00792	e8 00 00 00 00	 call	 ?getPaneRect@PaneBase@ETSLayoutMgr@@QAE?AVCRect@@XZ ; ETSLayoutMgr::PaneBase::getPaneRect

; 212  : 
; 213  : 	if(m_Orientation == ETSLayoutMgr::HORIZONTAL)

  00797	8b 45 d0	 mov	 eax, DWORD PTR _this$[ebp]
  0079a	83 78 60 00	 cmp	 DWORD PTR [eax+96], 0
  0079e	75 0d		 jne	 SHORT $L200902

; 214  : 	{
; 215  : 		orgValue = rc.Width();

  007a0	8d 4d e4	 lea	 ecx, DWORD PTR _rc$[ebp]
  007a3	e8 00 00 00 00	 call	 ?Width@CRect@@QBEHXZ	; CRect::Width
  007a8	89 45 e0	 mov	 DWORD PTR _orgValue$[ebp], eax

; 216  : 		//minConstrain = getCloseConstrainHorz();
; 217  : 	}
; 218  : 	else

  007ab	eb 0b		 jmp	 SHORT $L200903
$L200902:

; 219  : 	{
; 220  : 		orgValue = rc.Height();

  007ad	8d 4d e4	 lea	 ecx, DWORD PTR _rc$[ebp]
  007b0	e8 00 00 00 00	 call	 ?Height@CRect@@QBEHXZ	; CRect::Height
  007b5	89 45 e0	 mov	 DWORD PTR _orgValue$[ebp], eax
$L200903:

; 221  : 		//minConstrain = pItem->getMinConstrainVert();
; 222  : 	}
; 223  : 
; 224  : 	if(offset < 0)

  007b8	83 7d 08 00	 cmp	 DWORD PTR _offset$[ebp], 0
  007bc	7d 16		 jge	 SHORT $L200904

; 225  : 	{
; 226  : 		if(orgValue + offset < minConstrain)

  007be	8b 4d e0	 mov	 ecx, DWORD PTR _orgValue$[ebp]
  007c1	03 4d 08	 add	 ecx, DWORD PTR _offset$[ebp]
  007c4	3b 4d d8	 cmp	 ecx, DWORD PTR _minConstrain$[ebp]
  007c7	7d 09		 jge	 SHORT $L200905

; 227  : 			offset =  minConstrain - orgValue;

  007c9	8b 55 d8	 mov	 edx, DWORD PTR _minConstrain$[ebp]
  007cc	2b 55 e0	 sub	 edx, DWORD PTR _orgValue$[ebp]
  007cf	89 55 08	 mov	 DWORD PTR _offset$[ebp], edx
$L200905:

; 228  : 	}
; 229  : 	else

  007d2	eb 14		 jmp	 SHORT $L200906
$L200904:

; 230  : 	{
; 231  : 		if(orgValue - offset < minConstrain)

  007d4	8b 45 e0	 mov	 eax, DWORD PTR _orgValue$[ebp]
  007d7	2b 45 08	 sub	 eax, DWORD PTR _offset$[ebp]
  007da	3b 45 d8	 cmp	 eax, DWORD PTR _minConstrain$[ebp]
  007dd	7d 09		 jge	 SHORT $L200906

; 232  : 			offset = orgValue - minConstrain;

  007df	8b 4d e0	 mov	 ecx, DWORD PTR _orgValue$[ebp]
  007e2	2b 4d d8	 sub	 ecx, DWORD PTR _minConstrain$[ebp]
  007e5	89 4d 08	 mov	 DWORD PTR _offset$[ebp], ecx
$L200906:

; 233  : 	}
; 234  : 
; 235  : 	return offset;

  007e8	8b 55 08	 mov	 edx, DWORD PTR _offset$[ebp]
  007eb	89 55 d4	 mov	 DWORD PTR $T203198[ebp], edx
  007ee	c7 45 fc ff ff
	ff ff		 mov	 DWORD PTR __$EHRec$[ebp+8], -1
  007f5	8d 4d dc	 lea	 ecx, DWORD PTR _pItem$[ebp]
  007f8	e8 00 00 00 00	 call	 ??1CPaneBase@ETSLayoutMgr@@QAE@XZ ; ETSLayoutMgr::CPaneBase::~CPaneBase
  007fd	8b 45 d4	 mov	 eax, DWORD PTR $T203198[ebp]

; 236  : }

  00800	8b 4d f4	 mov	 ecx, DWORD PTR __$EHRec$[ebp]
  00803	64 89 0d 00 00
	00 00		 mov	 DWORD PTR fs:__except_list, ecx
  0080a	8b e5		 mov	 esp, ebp
  0080c	5d		 pop	 ebp
  0080d	c2 04 00	 ret	 4
_TEXT	ENDS
text$x	SEGMENT
$L203199:
  0005b	8d 4d dc	 lea	 ecx, DWORD PTR _pItem$[ebp]
  0005e	e9 00 00 00 00	 jmp	 ??1CPaneBase@ETSLayoutMgr@@QAE@XZ ; ETSLayoutMgr::CPaneBase::~CPaneBase
__ehhandler$?getCloseConstrain@PaneSplitter@ETSLayoutMgr@@QAEHH@Z:
  00063	b8 00 00 00 00	 mov	 eax, OFFSET FLAT:$T203201
  00068	e9 00 00 00 00	 jmp	 ___CxxFrameHandler
text$x	ENDS
?getCloseConstrain@PaneSplitter@ETSLayoutMgr@@QAEHH@Z ENDP ; ETSLayoutMgr::PaneSplitter::getCloseConstrain
PUBLIC	?getOffsetConstrain@PaneSplitter@ETSLayoutMgr@@QAEHH@Z ; ETSLayoutMgr::PaneSplitter::getOffsetConstrain
xdata$x	SEGMENT
$T203210 DD	0ffffffffH
	DD	FLAT:$L203206
$T203208 DD	019930520H
	DD	01H
	DD	FLAT:$T203210
	DD	2 DUP(00H)
	DD	2 DUP(00H)
; Function compile flags: /Odt
xdata$x	ENDS
_TEXT	SEGMENT
tv132 = -56						; size = 4
tv91 = -52						; size = 4
_this$ = -48						; size = 4
$T203205 = -44						; size = 4
_minConstrain$ = -40					; size = 4
_pItem$ = -36						; size = 4
_orgValue$ = -32					; size = 4
_rc$ = -28						; size = 16
__$EHRec$ = -12						; size = 12
_offset$ = 8						; size = 4
?getOffsetConstrain@PaneSplitter@ETSLayoutMgr@@QAEHH@Z PROC NEAR ; ETSLayoutMgr::PaneSplitter::getOffsetConstrain
; _this$ = ecx

; 239  : {

  00810	55		 push	 ebp
  00811	8b ec		 mov	 ebp, esp
  00813	6a ff		 push	 -1
  00815	68 00 00 00 00	 push	 __ehhandler$?getOffsetConstrain@PaneSplitter@ETSLayoutMgr@@QAEHH@Z
  0081a	64 a1 00 00 00
	00		 mov	 eax, DWORD PTR fs:__except_list
  00820	50		 push	 eax
  00821	64 89 25 00 00
	00 00		 mov	 DWORD PTR fs:__except_list, esp
  00828	83 ec 2c	 sub	 esp, 44			; 0000002cH
  0082b	89 4d d0	 mov	 DWORD PTR _this$[ebp], ecx

; 240  : 	CPaneBase pItem;

  0082e	8d 4d dc	 lea	 ecx, DWORD PTR _pItem$[ebp]
  00831	e8 00 00 00 00	 call	 ??0CPaneBase@ETSLayoutMgr@@QAE@XZ ; ETSLayoutMgr::CPaneBase::CPaneBase
  00836	c7 45 fc 00 00
	00 00		 mov	 DWORD PTR __$EHRec$[ebp+8], 0

; 241  : 	int orgValue = 0;

  0083d	c7 45 e0 00 00
	00 00		 mov	 DWORD PTR _orgValue$[ebp], 0

; 242  : 	int minConstrain = 0;

  00844	c7 45 d8 00 00
	00 00		 mov	 DWORD PTR _minConstrain$[ebp], 0

; 243  : 
; 244  : 	if(offset < 0)

  0084b	83 7d 08 00	 cmp	 DWORD PTR _offset$[ebp], 0
  0084f	7d 18		 jge	 SHORT $L200916

; 245  : 		pItem = m_paneItems[0];

  00851	6a 00		 push	 0
  00853	8b 4d d0	 mov	 ecx, DWORD PTR _this$[ebp]
  00856	83 c1 64	 add	 ecx, 100		; 00000064H
  00859	e8 00 00 00 00	 call	 ??A?$CArray@VCPaneBase@ETSLayoutMgr@@V12@@@QAEAAVCPaneBase@ETSLayoutMgr@@H@Z ; CArray<ETSLayoutMgr::CPaneBase,ETSLayoutMgr::CPaneBase>::operator[]
  0085e	50		 push	 eax
  0085f	8d 4d dc	 lea	 ecx, DWORD PTR _pItem$[ebp]
  00862	e8 00 00 00 00	 call	 ??4CPaneBase@ETSLayoutMgr@@QAEXABV01@@Z ; ETSLayoutMgr::CPaneBase::operator=

; 246  : 	else

  00867	eb 16		 jmp	 SHORT $L200917
$L200916:

; 247  : 		pItem = m_paneItems[2];

  00869	6a 02		 push	 2
  0086b	8b 4d d0	 mov	 ecx, DWORD PTR _this$[ebp]
  0086e	83 c1 64	 add	 ecx, 100		; 00000064H
  00871	e8 00 00 00 00	 call	 ??A?$CArray@VCPaneBase@ETSLayoutMgr@@V12@@@QAEAAVCPaneBase@ETSLayoutMgr@@H@Z ; CArray<ETSLayoutMgr::CPaneBase,ETSLayoutMgr::CPaneBase>::operator[]
  00876	50		 push	 eax
  00877	8d 4d dc	 lea	 ecx, DWORD PTR _pItem$[ebp]
  0087a	e8 00 00 00 00	 call	 ??4CPaneBase@ETSLayoutMgr@@QAEXABV01@@Z ; ETSLayoutMgr::CPaneBase::operator=
$L200917:

; 248  : 
; 249  : 	CRect rc = pItem->getPaneRect();

  0087f	8d 45 e4	 lea	 eax, DWORD PTR _rc$[ebp]
  00882	50		 push	 eax
  00883	8d 4d dc	 lea	 ecx, DWORD PTR _pItem$[ebp]
  00886	e8 00 00 00 00	 call	 ??CCPaneBase@ETSLayoutMgr@@QBEPAVPaneBase@1@XZ ; ETSLayoutMgr::CPaneBase::operator->
  0088b	8b c8		 mov	 ecx, eax
  0088d	e8 00 00 00 00	 call	 ?getPaneRect@PaneBase@ETSLayoutMgr@@QAE?AVCRect@@XZ ; ETSLayoutMgr::PaneBase::getPaneRect

; 250  : 
; 251  : 	if(m_Orientation == ETSLayoutMgr::HORIZONTAL)

  00892	8b 4d d0	 mov	 ecx, DWORD PTR _this$[ebp]
  00895	83 79 60 00	 cmp	 DWORD PTR [ecx+96], 0
  00899	75 26		 jne	 SHORT $L200920

; 252  : 	{
; 253  : 		orgValue = rc.Width();

  0089b	8d 4d e4	 lea	 ecx, DWORD PTR _rc$[ebp]
  0089e	e8 00 00 00 00	 call	 ?Width@CRect@@QBEHXZ	; CRect::Width
  008a3	89 45 e0	 mov	 DWORD PTR _orgValue$[ebp], eax

; 254  : 		minConstrain = pItem->getMinConstrainHorz();

  008a6	8d 4d dc	 lea	 ecx, DWORD PTR _pItem$[ebp]
  008a9	e8 00 00 00 00	 call	 ??CCPaneBase@ETSLayoutMgr@@QBEPAVPaneBase@1@XZ ; ETSLayoutMgr::CPaneBase::operator->
  008ae	89 45 cc	 mov	 DWORD PTR tv91[ebp], eax
  008b1	8b 55 cc	 mov	 edx, DWORD PTR tv91[ebp]
  008b4	8b 02		 mov	 eax, DWORD PTR [edx]
  008b6	8b 4d cc	 mov	 ecx, DWORD PTR tv91[ebp]
  008b9	ff 50 08	 call	 DWORD PTR [eax+8]
  008bc	89 45 d8	 mov	 DWORD PTR _minConstrain$[ebp], eax

; 255  : 	}
; 256  : 	else

  008bf	eb 24		 jmp	 SHORT $L200921
$L200920:

; 257  : 	{
; 258  : 		orgValue = rc.Height();

  008c1	8d 4d e4	 lea	 ecx, DWORD PTR _rc$[ebp]
  008c4	e8 00 00 00 00	 call	 ?Height@CRect@@QBEHXZ	; CRect::Height
  008c9	89 45 e0	 mov	 DWORD PTR _orgValue$[ebp], eax

; 259  : 		minConstrain = pItem->getMinConstrainVert();

  008cc	8d 4d dc	 lea	 ecx, DWORD PTR _pItem$[ebp]
  008cf	e8 00 00 00 00	 call	 ??CCPaneBase@ETSLayoutMgr@@QBEPAVPaneBase@1@XZ ; ETSLayoutMgr::CPaneBase::operator->
  008d4	89 45 c8	 mov	 DWORD PTR tv132[ebp], eax
  008d7	8b 4d c8	 mov	 ecx, DWORD PTR tv132[ebp]
  008da	8b 11		 mov	 edx, DWORD PTR [ecx]
  008dc	8b 4d c8	 mov	 ecx, DWORD PTR tv132[ebp]
  008df	ff 52 10	 call	 DWORD PTR [edx+16]
  008e2	89 45 d8	 mov	 DWORD PTR _minConstrain$[ebp], eax
$L200921:

; 260  : 	}
; 261  : 
; 262  : 	if(offset < 0)

  008e5	83 7d 08 00	 cmp	 DWORD PTR _offset$[ebp], 0
  008e9	7d 16		 jge	 SHORT $L200922

; 263  : 	{
; 264  : 		if(orgValue + offset < minConstrain)

  008eb	8b 45 e0	 mov	 eax, DWORD PTR _orgValue$[ebp]
  008ee	03 45 08	 add	 eax, DWORD PTR _offset$[ebp]
  008f1	3b 45 d8	 cmp	 eax, DWORD PTR _minConstrain$[ebp]
  008f4	7d 09		 jge	 SHORT $L200923

; 265  : 			offset =  minConstrain - orgValue;

  008f6	8b 4d d8	 mov	 ecx, DWORD PTR _minConstrain$[ebp]
  008f9	2b 4d e0	 sub	 ecx, DWORD PTR _orgValue$[ebp]
  008fc	89 4d 08	 mov	 DWORD PTR _offset$[ebp], ecx
$L200923:

; 266  : 	}
; 267  : 	else

  008ff	eb 14		 jmp	 SHORT $L200924
$L200922:

; 268  : 	{
; 269  : 		if(orgValue - offset < minConstrain)

  00901	8b 55 e0	 mov	 edx, DWORD PTR _orgValue$[ebp]
  00904	2b 55 08	 sub	 edx, DWORD PTR _offset$[ebp]
  00907	3b 55 d8	 cmp	 edx, DWORD PTR _minConstrain$[ebp]
  0090a	7d 09		 jge	 SHORT $L200924

; 270  : 			offset = orgValue - minConstrain;

  0090c	8b 45 e0	 mov	 eax, DWORD PTR _orgValue$[ebp]
  0090f	2b 45 d8	 sub	 eax, DWORD PTR _minConstrain$[ebp]
  00912	89 45 08	 mov	 DWORD PTR _offset$[ebp], eax
$L200924:

; 271  : 	}
; 272  : 
; 273  : 	return offset;

  00915	8b 4d 08	 mov	 ecx, DWORD PTR _offset$[ebp]
  00918	89 4d d4	 mov	 DWORD PTR $T203205[ebp], ecx
  0091b	c7 45 fc ff ff
	ff ff		 mov	 DWORD PTR __$EHRec$[ebp+8], -1
  00922	8d 4d dc	 lea	 ecx, DWORD PTR _pItem$[ebp]
  00925	e8 00 00 00 00	 call	 ??1CPaneBase@ETSLayoutMgr@@QAE@XZ ; ETSLayoutMgr::CPaneBase::~CPaneBase
  0092a	8b 45 d4	 mov	 eax, DWORD PTR $T203205[ebp]

; 274  : }

  0092d	8b 4d f4	 mov	 ecx, DWORD PTR __$EHRec$[ebp]
  00930	64 89 0d 00 00
	00 00		 mov	 DWORD PTR fs:__except_list, ecx
  00937	8b e5		 mov	 esp, ebp
  00939	5d		 pop	 ebp
  0093a	c2 04 00	 ret	 4
_TEXT	ENDS
text$x	SEGMENT
$L203206:
  0006d	8d 4d dc	 lea	 ecx, DWORD PTR _pItem$[ebp]
  00070	e9 00 00 00 00	 jmp	 ??1CPaneBase@ETSLayoutMgr@@QAE@XZ ; ETSLayoutMgr::CPaneBase::~CPaneBase
__ehhandler$?getOffsetConstrain@PaneSplitter@ETSLayoutMgr@@QAEHH@Z:
  00075	b8 00 00 00 00	 mov	 eax, OFFSET FLAT:$T203208
  0007a	e9 00 00 00 00	 jmp	 ___CxxFrameHandler
text$x	ENDS
?getOffsetConstrain@PaneSplitter@ETSLayoutMgr@@QAEHH@Z ENDP ; ETSLayoutMgr::PaneSplitter::getOffsetConstrain
PUBLIC	??0CRect@@QAE@HHHH@Z				; CRect::CRect
PUBLIC	?SetSplPosition@PaneSplitter@ETSLayoutMgr@@QAEXH@Z ; ETSLayoutMgr::PaneSplitter::SetSplPosition
PUBLIC	?ForceResizeTo@PaneSplitter@ETSLayoutMgr@@AAEXAAVCPaneBase@2@AAVCRect@@_N@Z ; ETSLayoutMgr::PaneSplitter::ForceResizeTo
xdata$x	SEGMENT
$T203222 DD	0ffffffffH
	DD	FLAT:$L203218
$T203220 DD	019930520H
	DD	01H
	DD	FLAT:$T203222
	DD	2 DUP(00H)
	DD	2 DUP(00H)
; Function compile flags: /Odt
xdata$x	ENDS
_TEXT	SEGMENT
_this$ = -164						; size = 4
$T203217 = -160						; size = 16
$T203216 = -144						; size = 16
$T203215 = -128						; size = 16
$T203214 = -112						; size = 16
$T203213 = -96						; size = 16
$T203212 = -80						; size = 16
_rcAll$ = -64						; size = 16
_pItem$ = -48						; size = 4
_rc$ = -44						; size = 16
_rcSpl$ = -28						; size = 16
__$EHRec$ = -12						; size = 12
_pos$ = 8						; size = 4
?SetSplPosition@PaneSplitter@ETSLayoutMgr@@QAEXH@Z PROC NEAR ; ETSLayoutMgr::PaneSplitter::SetSplPosition
; _this$ = ecx

; 276  : {

  00940	55		 push	 ebp
  00941	8b ec		 mov	 ebp, esp
  00943	6a ff		 push	 -1
  00945	68 00 00 00 00	 push	 __ehhandler$?SetSplPosition@PaneSplitter@ETSLayoutMgr@@QAEXH@Z
  0094a	64 a1 00 00 00
	00		 mov	 eax, DWORD PTR fs:__except_list
  00950	50		 push	 eax
  00951	64 89 25 00 00
	00 00		 mov	 DWORD PTR fs:__except_list, esp
  00958	81 ec 98 00 00
	00		 sub	 esp, 152		; 00000098H
  0095e	56		 push	 esi
  0095f	89 8d 5c ff ff
	ff		 mov	 DWORD PTR _this$[ebp], ecx

; 277  : 	ASSERT(m_paneItems.GetSize() == 3);
; 278  : 
; 279  : 	CPaneBase pItem = m_paneItems[0];

  00965	6a 00		 push	 0
  00967	8b 8d 5c ff ff
	ff		 mov	 ecx, DWORD PTR _this$[ebp]
  0096d	83 c1 64	 add	 ecx, 100		; 00000064H
  00970	e8 00 00 00 00	 call	 ??A?$CArray@VCPaneBase@ETSLayoutMgr@@V12@@@QAEAAVCPaneBase@ETSLayoutMgr@@H@Z ; CArray<ETSLayoutMgr::CPaneBase,ETSLayoutMgr::CPaneBase>::operator[]
  00975	50		 push	 eax
  00976	8d 4d d0	 lea	 ecx, DWORD PTR _pItem$[ebp]
  00979	e8 00 00 00 00	 call	 ??0CPaneBase@ETSLayoutMgr@@QAE@ABV01@@Z ; ETSLayoutMgr::CPaneBase::CPaneBase
  0097e	c7 45 fc 00 00
	00 00		 mov	 DWORD PTR __$EHRec$[ebp+8], 0

; 280  : 	CRect rc = pItem->getPaneRect();

  00985	8d 45 d4	 lea	 eax, DWORD PTR _rc$[ebp]
  00988	50		 push	 eax
  00989	8d 4d d0	 lea	 ecx, DWORD PTR _pItem$[ebp]
  0098c	e8 00 00 00 00	 call	 ??CCPaneBase@ETSLayoutMgr@@QBEPAVPaneBase@1@XZ ; ETSLayoutMgr::CPaneBase::operator->
  00991	8b c8		 mov	 ecx, eax
  00993	e8 00 00 00 00	 call	 ?getPaneRect@PaneBase@ETSLayoutMgr@@QAE?AVCRect@@XZ ; ETSLayoutMgr::PaneBase::getPaneRect

; 281  : 
; 282  : 	//Resize First Pane
; 283  : 	if(this->m_Orientation == ETSLayoutMgr::HORIZONTAL)

  00998	8b 8d 5c ff ff
	ff		 mov	 ecx, DWORD PTR _this$[ebp]
  0099e	83 79 60 00	 cmp	 DWORD PTR [ecx+96], 0
  009a2	75 34		 jne	 SHORT $L200935

; 284  : 		rc = CRect(rc.left, rc.top, rc.left + pos, rc.bottom);

  009a4	8b 55 e0	 mov	 edx, DWORD PTR _rc$[ebp+12]
  009a7	52		 push	 edx
  009a8	8b 45 d4	 mov	 eax, DWORD PTR _rc$[ebp]
  009ab	03 45 08	 add	 eax, DWORD PTR _pos$[ebp]
  009ae	50		 push	 eax
  009af	8b 4d d8	 mov	 ecx, DWORD PTR _rc$[ebp+4]
  009b2	51		 push	 ecx
  009b3	8b 55 d4	 mov	 edx, DWORD PTR _rc$[ebp]
  009b6	52		 push	 edx
  009b7	8d 4d b0	 lea	 ecx, DWORD PTR $T203212[ebp]
  009ba	e8 00 00 00 00	 call	 ??0CRect@@QAE@HHHH@Z	; CRect::CRect
  009bf	8b 08		 mov	 ecx, DWORD PTR [eax]
  009c1	89 4d d4	 mov	 DWORD PTR _rc$[ebp], ecx
  009c4	8b 50 04	 mov	 edx, DWORD PTR [eax+4]
  009c7	89 55 d8	 mov	 DWORD PTR _rc$[ebp+4], edx
  009ca	8b 48 08	 mov	 ecx, DWORD PTR [eax+8]
  009cd	89 4d dc	 mov	 DWORD PTR _rc$[ebp+8], ecx
  009d0	8b 50 0c	 mov	 edx, DWORD PTR [eax+12]
  009d3	89 55 e0	 mov	 DWORD PTR _rc$[ebp+12], edx

; 285  : 	else

  009d6	eb 32		 jmp	 SHORT $L200937
$L200935:

; 286  : 		rc = CRect(rc.left, rc.top, rc.right, rc.top + pos);//rc.InflateRect(0, 0, 0, offset);

  009d8	8b 45 d8	 mov	 eax, DWORD PTR _rc$[ebp+4]
  009db	03 45 08	 add	 eax, DWORD PTR _pos$[ebp]
  009de	50		 push	 eax
  009df	8b 4d dc	 mov	 ecx, DWORD PTR _rc$[ebp+8]
  009e2	51		 push	 ecx
  009e3	8b 55 d8	 mov	 edx, DWORD PTR _rc$[ebp+4]
  009e6	52		 push	 edx
  009e7	8b 45 d4	 mov	 eax, DWORD PTR _rc$[ebp]
  009ea	50		 push	 eax
  009eb	8d 4d a0	 lea	 ecx, DWORD PTR $T203213[ebp]
  009ee	e8 00 00 00 00	 call	 ??0CRect@@QAE@HHHH@Z	; CRect::CRect
  009f3	8b 08		 mov	 ecx, DWORD PTR [eax]
  009f5	89 4d d4	 mov	 DWORD PTR _rc$[ebp], ecx
  009f8	8b 50 04	 mov	 edx, DWORD PTR [eax+4]
  009fb	89 55 d8	 mov	 DWORD PTR _rc$[ebp+4], edx
  009fe	8b 48 08	 mov	 ecx, DWORD PTR [eax+8]
  00a01	89 4d dc	 mov	 DWORD PTR _rc$[ebp+8], ecx
  00a04	8b 50 0c	 mov	 edx, DWORD PTR [eax+12]
  00a07	89 55 e0	 mov	 DWORD PTR _rc$[ebp+12], edx
$L200937:

; 287  : 	ForceResizeTo(pItem, rc);

  00a0a	6a 00		 push	 0
  00a0c	8d 45 d4	 lea	 eax, DWORD PTR _rc$[ebp]
  00a0f	50		 push	 eax
  00a10	8d 4d d0	 lea	 ecx, DWORD PTR _pItem$[ebp]
  00a13	51		 push	 ecx
  00a14	8b 8d 5c ff ff
	ff		 mov	 ecx, DWORD PTR _this$[ebp]
  00a1a	e8 00 00 00 00	 call	 ?ForceResizeTo@PaneSplitter@ETSLayoutMgr@@AAEXAAVCPaneBase@2@AAVCRect@@_N@Z ; ETSLayoutMgr::PaneSplitter::ForceResizeTo

; 288  : 
; 289  : 	//Resize Second Pane
; 290  : 	pItem = m_paneItems[1];

  00a1f	6a 01		 push	 1
  00a21	8b 8d 5c ff ff
	ff		 mov	 ecx, DWORD PTR _this$[ebp]
  00a27	83 c1 64	 add	 ecx, 100		; 00000064H
  00a2a	e8 00 00 00 00	 call	 ??A?$CArray@VCPaneBase@ETSLayoutMgr@@V12@@@QAEAAVCPaneBase@ETSLayoutMgr@@H@Z ; CArray<ETSLayoutMgr::CPaneBase,ETSLayoutMgr::CPaneBase>::operator[]
  00a2f	50		 push	 eax
  00a30	8d 4d d0	 lea	 ecx, DWORD PTR _pItem$[ebp]
  00a33	e8 00 00 00 00	 call	 ??4CPaneBase@ETSLayoutMgr@@QAEXABV01@@Z ; ETSLayoutMgr::CPaneBase::operator=

; 291  : 	CRect rcSpl = pItem->getPaneRect();

  00a38	8d 55 e4	 lea	 edx, DWORD PTR _rcSpl$[ebp]
  00a3b	52		 push	 edx
  00a3c	8d 4d d0	 lea	 ecx, DWORD PTR _pItem$[ebp]
  00a3f	e8 00 00 00 00	 call	 ??CCPaneBase@ETSLayoutMgr@@QBEPAVPaneBase@1@XZ ; ETSLayoutMgr::CPaneBase::operator->
  00a44	8b c8		 mov	 ecx, eax
  00a46	e8 00 00 00 00	 call	 ?getPaneRect@PaneBase@ETSLayoutMgr@@QAE?AVCRect@@XZ ; ETSLayoutMgr::PaneBase::getPaneRect

; 292  : 	if(this->m_Orientation == ETSLayoutMgr::HORIZONTAL)

  00a4b	8b 85 5c ff ff
	ff		 mov	 eax, DWORD PTR _this$[ebp]
  00a51	83 78 60 00	 cmp	 DWORD PTR [eax+96], 0
  00a55	75 39		 jne	 SHORT $L200941

; 293  : 		rc = CRect(rc.right, rcSpl.top, rc.right + rcSpl.Width(), rcSpl.bottom);//rc.InflateRect(-offset,0, 0,  0);

  00a57	8b 4d f0	 mov	 ecx, DWORD PTR _rcSpl$[ebp+12]
  00a5a	51		 push	 ecx
  00a5b	8d 4d e4	 lea	 ecx, DWORD PTR _rcSpl$[ebp]
  00a5e	e8 00 00 00 00	 call	 ?Width@CRect@@QBEHXZ	; CRect::Width
  00a63	03 45 dc	 add	 eax, DWORD PTR _rc$[ebp+8]
  00a66	50		 push	 eax
  00a67	8b 55 e8	 mov	 edx, DWORD PTR _rcSpl$[ebp+4]
  00a6a	52		 push	 edx
  00a6b	8b 45 dc	 mov	 eax, DWORD PTR _rc$[ebp+8]
  00a6e	50		 push	 eax
  00a6f	8d 4d 90	 lea	 ecx, DWORD PTR $T203214[ebp]
  00a72	e8 00 00 00 00	 call	 ??0CRect@@QAE@HHHH@Z	; CRect::CRect
  00a77	8b 08		 mov	 ecx, DWORD PTR [eax]
  00a79	89 4d d4	 mov	 DWORD PTR _rc$[ebp], ecx
  00a7c	8b 50 04	 mov	 edx, DWORD PTR [eax+4]
  00a7f	89 55 d8	 mov	 DWORD PTR _rc$[ebp+4], edx
  00a82	8b 48 08	 mov	 ecx, DWORD PTR [eax+8]
  00a85	89 4d dc	 mov	 DWORD PTR _rc$[ebp+8], ecx
  00a88	8b 50 0c	 mov	 edx, DWORD PTR [eax+12]
  00a8b	89 55 e0	 mov	 DWORD PTR _rc$[ebp+12], edx

; 294  : 	else

  00a8e	eb 37		 jmp	 SHORT $L200943
$L200941:

; 295  : 		rc = CRect(rcSpl.left, rc.bottom, rcSpl.right, rc.bottom + rcSpl.Width());//.rc.InflateRect(0, -offset, 0,0);

  00a90	8d 4d e4	 lea	 ecx, DWORD PTR _rcSpl$[ebp]
  00a93	e8 00 00 00 00	 call	 ?Width@CRect@@QBEHXZ	; CRect::Width
  00a98	03 45 e0	 add	 eax, DWORD PTR _rc$[ebp+12]
  00a9b	50		 push	 eax
  00a9c	8b 45 ec	 mov	 eax, DWORD PTR _rcSpl$[ebp+8]
  00a9f	50		 push	 eax
  00aa0	8b 4d e0	 mov	 ecx, DWORD PTR _rc$[ebp+12]
  00aa3	51		 push	 ecx
  00aa4	8b 55 e4	 mov	 edx, DWORD PTR _rcSpl$[ebp]
  00aa7	52		 push	 edx
  00aa8	8d 4d 80	 lea	 ecx, DWORD PTR $T203215[ebp]
  00aab	e8 00 00 00 00	 call	 ??0CRect@@QAE@HHHH@Z	; CRect::CRect
  00ab0	8b 08		 mov	 ecx, DWORD PTR [eax]
  00ab2	89 4d d4	 mov	 DWORD PTR _rc$[ebp], ecx
  00ab5	8b 50 04	 mov	 edx, DWORD PTR [eax+4]
  00ab8	89 55 d8	 mov	 DWORD PTR _rc$[ebp+4], edx
  00abb	8b 48 08	 mov	 ecx, DWORD PTR [eax+8]
  00abe	89 4d dc	 mov	 DWORD PTR _rc$[ebp+8], ecx
  00ac1	8b 50 0c	 mov	 edx, DWORD PTR [eax+12]
  00ac4	89 55 e0	 mov	 DWORD PTR _rc$[ebp+12], edx
$L200943:

; 296  : 	ForceResizeTo(pItem, rc);

  00ac7	6a 00		 push	 0
  00ac9	8d 45 d4	 lea	 eax, DWORD PTR _rc$[ebp]
  00acc	50		 push	 eax
  00acd	8d 4d d0	 lea	 ecx, DWORD PTR _pItem$[ebp]
  00ad0	51		 push	 ecx
  00ad1	8b 8d 5c ff ff
	ff		 mov	 ecx, DWORD PTR _this$[ebp]
  00ad7	e8 00 00 00 00	 call	 ?ForceResizeTo@PaneSplitter@ETSLayoutMgr@@AAEXAAVCPaneBase@2@AAVCRect@@_N@Z ; ETSLayoutMgr::PaneSplitter::ForceResizeTo

; 297  : 
; 298  : 	//Resize Splitter
; 299  : 	pItem = m_paneItems[2];

  00adc	6a 02		 push	 2
  00ade	8b 8d 5c ff ff
	ff		 mov	 ecx, DWORD PTR _this$[ebp]
  00ae4	83 c1 64	 add	 ecx, 100		; 00000064H
  00ae7	e8 00 00 00 00	 call	 ??A?$CArray@VCPaneBase@ETSLayoutMgr@@V12@@@QAEAAVCPaneBase@ETSLayoutMgr@@H@Z ; CArray<ETSLayoutMgr::CPaneBase,ETSLayoutMgr::CPaneBase>::operator[]
  00aec	50		 push	 eax
  00aed	8d 4d d0	 lea	 ecx, DWORD PTR _pItem$[ebp]
  00af0	e8 00 00 00 00	 call	 ??4CPaneBase@ETSLayoutMgr@@QAEXABV01@@Z ; ETSLayoutMgr::CPaneBase::operator=

; 300  : 	//CRect rcSecond = pItem->getPaneRect();
; 301  : 	CRect rcAll = this->getPaneRect();

  00af5	8d 55 c0	 lea	 edx, DWORD PTR _rcAll$[ebp]
  00af8	52		 push	 edx
  00af9	8b 8d 5c ff ff
	ff		 mov	 ecx, DWORD PTR _this$[ebp]
  00aff	e8 00 00 00 00	 call	 ?getPaneRect@PaneBase@ETSLayoutMgr@@QAE?AVCRect@@XZ ; ETSLayoutMgr::PaneBase::getPaneRect

; 302  : 	if(this->m_Orientation == ETSLayoutMgr::HORIZONTAL)

  00b04	8b 85 5c ff ff
	ff		 mov	 eax, DWORD PTR _this$[ebp]
  00b0a	83 78 60 00	 cmp	 DWORD PTR [eax+96], 0
  00b0e	75 4b		 jne	 SHORT $L200947

; 303  : 		rc = CRect(rc.right, rc.top, rc.right + rcAll.Width() - rcSpl.Width() - pos, rc.bottom);//rc.InflateRect(-offset, 0, offset, 0);

  00b10	8b 4d e0	 mov	 ecx, DWORD PTR _rc$[ebp+12]
  00b13	51		 push	 ecx
  00b14	8d 4d c0	 lea	 ecx, DWORD PTR _rcAll$[ebp]
  00b17	e8 00 00 00 00	 call	 ?Width@CRect@@QBEHXZ	; CRect::Width
  00b1c	8b f0		 mov	 esi, eax
  00b1e	03 75 dc	 add	 esi, DWORD PTR _rc$[ebp+8]
  00b21	8d 4d e4	 lea	 ecx, DWORD PTR _rcSpl$[ebp]
  00b24	e8 00 00 00 00	 call	 ?Width@CRect@@QBEHXZ	; CRect::Width
  00b29	2b f0		 sub	 esi, eax
  00b2b	2b 75 08	 sub	 esi, DWORD PTR _pos$[ebp]
  00b2e	56		 push	 esi
  00b2f	8b 55 d8	 mov	 edx, DWORD PTR _rc$[ebp+4]
  00b32	52		 push	 edx
  00b33	8b 45 dc	 mov	 eax, DWORD PTR _rc$[ebp+8]
  00b36	50		 push	 eax
  00b37	8d 8d 70 ff ff
	ff		 lea	 ecx, DWORD PTR $T203216[ebp]
  00b3d	e8 00 00 00 00	 call	 ??0CRect@@QAE@HHHH@Z	; CRect::CRect
  00b42	8b 08		 mov	 ecx, DWORD PTR [eax]
  00b44	89 4d d4	 mov	 DWORD PTR _rc$[ebp], ecx
  00b47	8b 50 04	 mov	 edx, DWORD PTR [eax+4]
  00b4a	89 55 d8	 mov	 DWORD PTR _rc$[ebp+4], edx
  00b4d	8b 48 08	 mov	 ecx, DWORD PTR [eax+8]
  00b50	89 4d dc	 mov	 DWORD PTR _rc$[ebp+8], ecx
  00b53	8b 50 0c	 mov	 edx, DWORD PTR [eax+12]
  00b56	89 55 e0	 mov	 DWORD PTR _rc$[ebp+12], edx

; 304  : 	else

  00b59	eb 49		 jmp	 SHORT $L200949
$L200947:

; 305  : 		rc = CRect(rc.left, rc.bottom, rc.right, rc.bottom + rcAll.Height() - rcSpl.Height() - pos); //rc.InflateRect(0, -offset,0, offset);

  00b5b	8d 4d c0	 lea	 ecx, DWORD PTR _rcAll$[ebp]
  00b5e	e8 00 00 00 00	 call	 ?Height@CRect@@QBEHXZ	; CRect::Height
  00b63	8b f0		 mov	 esi, eax
  00b65	03 75 e0	 add	 esi, DWORD PTR _rc$[ebp+12]
  00b68	8d 4d e4	 lea	 ecx, DWORD PTR _rcSpl$[ebp]
  00b6b	e8 00 00 00 00	 call	 ?Height@CRect@@QBEHXZ	; CRect::Height
  00b70	2b f0		 sub	 esi, eax
  00b72	2b 75 08	 sub	 esi, DWORD PTR _pos$[ebp]
  00b75	56		 push	 esi
  00b76	8b 45 dc	 mov	 eax, DWORD PTR _rc$[ebp+8]
  00b79	50		 push	 eax
  00b7a	8b 4d e0	 mov	 ecx, DWORD PTR _rc$[ebp+12]
  00b7d	51		 push	 ecx
  00b7e	8b 55 d4	 mov	 edx, DWORD PTR _rc$[ebp]
  00b81	52		 push	 edx
  00b82	8d 8d 60 ff ff
	ff		 lea	 ecx, DWORD PTR $T203217[ebp]
  00b88	e8 00 00 00 00	 call	 ??0CRect@@QAE@HHHH@Z	; CRect::CRect
  00b8d	8b 08		 mov	 ecx, DWORD PTR [eax]
  00b8f	89 4d d4	 mov	 DWORD PTR _rc$[ebp], ecx
  00b92	8b 50 04	 mov	 edx, DWORD PTR [eax+4]
  00b95	89 55 d8	 mov	 DWORD PTR _rc$[ebp+4], edx
  00b98	8b 48 08	 mov	 ecx, DWORD PTR [eax+8]
  00b9b	89 4d dc	 mov	 DWORD PTR _rc$[ebp+8], ecx
  00b9e	8b 50 0c	 mov	 edx, DWORD PTR [eax+12]
  00ba1	89 55 e0	 mov	 DWORD PTR _rc$[ebp+12], edx
$L200949:

; 306  : 	ForceResizeTo(pItem, rc);

  00ba4	6a 00		 push	 0
  00ba6	8d 45 d4	 lea	 eax, DWORD PTR _rc$[ebp]
  00ba9	50		 push	 eax
  00baa	8d 4d d0	 lea	 ecx, DWORD PTR _pItem$[ebp]
  00bad	51		 push	 ecx
  00bae	8b 8d 5c ff ff
	ff		 mov	 ecx, DWORD PTR _this$[ebp]
  00bb4	e8 00 00 00 00	 call	 ?ForceResizeTo@PaneSplitter@ETSLayoutMgr@@AAEXAAVCPaneBase@2@AAVCRect@@_N@Z ; ETSLayoutMgr::PaneSplitter::ForceResizeTo

; 307  : 
; 308  : 	if(!IsClosed())

  00bb9	8b 8d 5c ff ff
	ff		 mov	 ecx, DWORD PTR _this$[ebp]
  00bbf	e8 00 00 00 00	 call	 ?IsClosed@PaneSplitter@ETSLayoutMgr@@QAEHXZ ; ETSLayoutMgr::PaneSplitter::IsClosed
  00bc4	85 c0		 test	 eax, eax
  00bc6	75 0b		 jne	 SHORT $L200951

; 309  : 		setOpenConstrain();

  00bc8	8b 8d 5c ff ff
	ff		 mov	 ecx, DWORD PTR _this$[ebp]
  00bce	e8 00 00 00 00	 call	 ?setOpenConstrain@PaneSplitter@ETSLayoutMgr@@QAEXXZ ; ETSLayoutMgr::PaneSplitter::setOpenConstrain
$L200951:

; 310  : 
; 311  : }

  00bd3	c7 45 fc ff ff
	ff ff		 mov	 DWORD PTR __$EHRec$[ebp+8], -1
  00bda	8d 4d d0	 lea	 ecx, DWORD PTR _pItem$[ebp]
  00bdd	e8 00 00 00 00	 call	 ??1CPaneBase@ETSLayoutMgr@@QAE@XZ ; ETSLayoutMgr::CPaneBase::~CPaneBase
  00be2	8b 4d f4	 mov	 ecx, DWORD PTR __$EHRec$[ebp]
  00be5	64 89 0d 00 00
	00 00		 mov	 DWORD PTR fs:__except_list, ecx
  00bec	5e		 pop	 esi
  00bed	8b e5		 mov	 esp, ebp
  00bef	5d		 pop	 ebp
  00bf0	c2 04 00	 ret	 4
_TEXT	ENDS
text$x	SEGMENT
$L203218:
  0007f	8d 4d d0	 lea	 ecx, DWORD PTR _pItem$[ebp]
  00082	e9 00 00 00 00	 jmp	 ??1CPaneBase@ETSLayoutMgr@@QAE@XZ ; ETSLayoutMgr::CPaneBase::~CPaneBase
__ehhandler$?SetSplPosition@PaneSplitter@ETSLayoutMgr@@QAEXH@Z:
  00087	b8 00 00 00 00	 mov	 eax, OFFSET FLAT:$T203220
  0008c	e9 00 00 00 00	 jmp	 ___CxxFrameHandler
text$x	ENDS
?SetSplPosition@PaneSplitter@ETSLayoutMgr@@QAEXH@Z ENDP	; ETSLayoutMgr::PaneSplitter::SetSplPosition
PUBLIC	?GetSplPosition@PaneSplitter@ETSLayoutMgr@@QAEHXZ ; ETSLayoutMgr::PaneSplitter::GetSplPosition
xdata$x	SEGMENT
$T203231 DD	0ffffffffH
	DD	FLAT:$L203227
$T203229 DD	019930520H
	DD	01H
	DD	FLAT:$T203231
	DD	2 DUP(00H)
	DD	2 DUP(00H)
; Function compile flags: /Odt
xdata$x	ENDS
_TEXT	SEGMENT
_this$ = -64						; size = 4
$T203226 = -60						; size = 4
$T203225 = -56						; size = 4
$T203224 = -52						; size = 4
_rc2$ = -48						; size = 16
_pItem$ = -32						; size = 4
_rc$ = -28						; size = 16
__$EHRec$ = -12						; size = 12
?GetSplPosition@PaneSplitter@ETSLayoutMgr@@QAEHXZ PROC NEAR ; ETSLayoutMgr::PaneSplitter::GetSplPosition
; _this$ = ecx

; 314  : {

  00c00	55		 push	 ebp
  00c01	8b ec		 mov	 ebp, esp
  00c03	6a ff		 push	 -1
  00c05	68 00 00 00 00	 push	 __ehhandler$?GetSplPosition@PaneSplitter@ETSLayoutMgr@@QAEHXZ
  00c0a	64 a1 00 00 00
	00		 mov	 eax, DWORD PTR fs:__except_list
  00c10	50		 push	 eax
  00c11	64 89 25 00 00
	00 00		 mov	 DWORD PTR fs:__except_list, esp
  00c18	83 ec 34	 sub	 esp, 52			; 00000034H
  00c1b	89 4d c0	 mov	 DWORD PTR _this$[ebp], ecx

; 315  : 	ASSERT(m_paneItems.GetSize() == 3);
; 316  : 
; 317  : 	CPaneBase pItem = m_paneItems[0];

  00c1e	6a 00		 push	 0
  00c20	8b 4d c0	 mov	 ecx, DWORD PTR _this$[ebp]
  00c23	83 c1 64	 add	 ecx, 100		; 00000064H
  00c26	e8 00 00 00 00	 call	 ??A?$CArray@VCPaneBase@ETSLayoutMgr@@V12@@@QAEAAVCPaneBase@ETSLayoutMgr@@H@Z ; CArray<ETSLayoutMgr::CPaneBase,ETSLayoutMgr::CPaneBase>::operator[]
  00c2b	50		 push	 eax
  00c2c	8d 4d e0	 lea	 ecx, DWORD PTR _pItem$[ebp]
  00c2f	e8 00 00 00 00	 call	 ??0CPaneBase@ETSLayoutMgr@@QAE@ABV01@@Z ; ETSLayoutMgr::CPaneBase::CPaneBase
  00c34	c7 45 fc 00 00
	00 00		 mov	 DWORD PTR __$EHRec$[ebp+8], 0

; 318  : 	CRect rc = pItem->getPaneRect();

  00c3b	8d 45 e4	 lea	 eax, DWORD PTR _rc$[ebp]
  00c3e	50		 push	 eax
  00c3f	8d 4d e0	 lea	 ecx, DWORD PTR _pItem$[ebp]
  00c42	e8 00 00 00 00	 call	 ??CCPaneBase@ETSLayoutMgr@@QBEPAVPaneBase@1@XZ ; ETSLayoutMgr::CPaneBase::operator->
  00c47	8b c8		 mov	 ecx, eax
  00c49	e8 00 00 00 00	 call	 ?getPaneRect@PaneBase@ETSLayoutMgr@@QAE?AVCRect@@XZ ; ETSLayoutMgr::PaneBase::getPaneRect

; 319  : 
; 320  : 	pItem = m_paneItems[1];

  00c4e	6a 01		 push	 1
  00c50	8b 4d c0	 mov	 ecx, DWORD PTR _this$[ebp]
  00c53	83 c1 64	 add	 ecx, 100		; 00000064H
  00c56	e8 00 00 00 00	 call	 ??A?$CArray@VCPaneBase@ETSLayoutMgr@@V12@@@QAEAAVCPaneBase@ETSLayoutMgr@@H@Z ; CArray<ETSLayoutMgr::CPaneBase,ETSLayoutMgr::CPaneBase>::operator[]
  00c5b	50		 push	 eax
  00c5c	8d 4d e0	 lea	 ecx, DWORD PTR _pItem$[ebp]
  00c5f	e8 00 00 00 00	 call	 ??4CPaneBase@ETSLayoutMgr@@QAEXABV01@@Z ; ETSLayoutMgr::CPaneBase::operator=

; 321  : 	CRect rc2 = pItem->getPaneRect();

  00c64	8d 4d d0	 lea	 ecx, DWORD PTR _rc2$[ebp]
  00c67	51		 push	 ecx
  00c68	8d 4d e0	 lea	 ecx, DWORD PTR _pItem$[ebp]
  00c6b	e8 00 00 00 00	 call	 ??CCPaneBase@ETSLayoutMgr@@QBEPAVPaneBase@1@XZ ; ETSLayoutMgr::CPaneBase::operator->
  00c70	8b c8		 mov	 ecx, eax
  00c72	e8 00 00 00 00	 call	 ?getPaneRect@PaneBase@ETSLayoutMgr@@QAE?AVCRect@@XZ ; ETSLayoutMgr::PaneBase::getPaneRect

; 322  : 
; 323  : 	if(rc.Width() == 0 && rc2.Width() == 0)

  00c77	8d 4d e4	 lea	 ecx, DWORD PTR _rc$[ebp]
  00c7a	e8 00 00 00 00	 call	 ?Width@CRect@@QBEHXZ	; CRect::Width
  00c7f	85 c0		 test	 eax, eax
  00c81	75 27		 jne	 SHORT $L200961
  00c83	8d 4d d0	 lea	 ecx, DWORD PTR _rc2$[ebp]
  00c86	e8 00 00 00 00	 call	 ?Width@CRect@@QBEHXZ	; CRect::Width
  00c8b	85 c0		 test	 eax, eax
  00c8d	75 1b		 jne	 SHORT $L200961

; 324  : 		return -1;

  00c8f	c7 45 cc ff ff
	ff ff		 mov	 DWORD PTR $T203224[ebp], -1
  00c96	c7 45 fc ff ff
	ff ff		 mov	 DWORD PTR __$EHRec$[ebp+8], -1
  00c9d	8d 4d e0	 lea	 ecx, DWORD PTR _pItem$[ebp]
  00ca0	e8 00 00 00 00	 call	 ??1CPaneBase@ETSLayoutMgr@@QAE@XZ ; ETSLayoutMgr::CPaneBase::~CPaneBase
  00ca5	8b 45 cc	 mov	 eax, DWORD PTR $T203224[ebp]
  00ca8	eb 45		 jmp	 SHORT $L200954
$L200961:

; 325  : 
; 326  : 	if(this->m_Orientation == ETSLayoutMgr::HORIZONTAL)

  00caa	8b 55 c0	 mov	 edx, DWORD PTR _this$[ebp]
  00cad	83 7a 60 00	 cmp	 DWORD PTR [edx+96], 0
  00cb1	75 1f		 jne	 SHORT $L200963

; 327  : 		return rc.Width();

  00cb3	8d 4d e4	 lea	 ecx, DWORD PTR _rc$[ebp]
  00cb6	e8 00 00 00 00	 call	 ?Width@CRect@@QBEHXZ	; CRect::Width
  00cbb	89 45 c8	 mov	 DWORD PTR $T203225[ebp], eax
  00cbe	c7 45 fc ff ff
	ff ff		 mov	 DWORD PTR __$EHRec$[ebp+8], -1
  00cc5	8d 4d e0	 lea	 ecx, DWORD PTR _pItem$[ebp]
  00cc8	e8 00 00 00 00	 call	 ??1CPaneBase@ETSLayoutMgr@@QAE@XZ ; ETSLayoutMgr::CPaneBase::~CPaneBase
  00ccd	8b 45 c8	 mov	 eax, DWORD PTR $T203225[ebp]
  00cd0	eb 1d		 jmp	 SHORT $L200954
$L200963:

; 328  : 	else
; 329  : 		return rc.Height();

  00cd2	8d 4d e4	 lea	 ecx, DWORD PTR _rc$[ebp]
  00cd5	e8 00 00 00 00	 call	 ?Height@CRect@@QBEHXZ	; CRect::Height
  00cda	89 45 c4	 mov	 DWORD PTR $T203226[ebp], eax
  00cdd	c7 45 fc ff ff
	ff ff		 mov	 DWORD PTR __$EHRec$[ebp+8], -1
  00ce4	8d 4d e0	 lea	 ecx, DWORD PTR _pItem$[ebp]
  00ce7	e8 00 00 00 00	 call	 ??1CPaneBase@ETSLayoutMgr@@QAE@XZ ; ETSLayoutMgr::CPaneBase::~CPaneBase
  00cec	8b 45 c4	 mov	 eax, DWORD PTR $T203226[ebp]
$L200954:

; 330  : }

  00cef	8b 4d f4	 mov	 ecx, DWORD PTR __$EHRec$[ebp]
  00cf2	64 89 0d 00 00
	00 00		 mov	 DWORD PTR fs:__except_list, ecx
  00cf9	8b e5		 mov	 esp, ebp
  00cfb	5d		 pop	 ebp
  00cfc	c3		 ret	 0
_TEXT	ENDS
text$x	SEGMENT
$L203227:
  00091	8d 4d e0	 lea	 ecx, DWORD PTR _pItem$[ebp]
  00094	e9 00 00 00 00	 jmp	 ??1CPaneBase@ETSLayoutMgr@@QAE@XZ ; ETSLayoutMgr::CPaneBase::~CPaneBase
__ehhandler$?GetSplPosition@PaneSplitter@ETSLayoutMgr@@QAEHXZ:
  00099	b8 00 00 00 00	 mov	 eax, OFFSET FLAT:$T203229
  0009e	e9 00 00 00 00	 jmp	 ___CxxFrameHandler
text$x	ENDS
?GetSplPosition@PaneSplitter@ETSLayoutMgr@@QAEHXZ ENDP	; ETSLayoutMgr::PaneSplitter::GetSplPosition
PUBLIC	?GetOuterPaneMinPosition@PaneSplitter@ETSLayoutMgr@@QAEHXZ ; ETSLayoutMgr::PaneSplitter::GetOuterPaneMinPosition
xdata$x	SEGMENT
$T203238 DD	0ffffffffH
	DD	FLAT:$L203234
$T203236 DD	019930520H
	DD	01H
	DD	FLAT:$T203238
	DD	2 DUP(00H)
	DD	2 DUP(00H)
; Function compile flags: /Odt
xdata$x	ENDS
_TEXT	SEGMENT
tv75 = -32						; size = 4
_this$ = -28						; size = 4
$T203233 = -24						; size = 4
_pItem$ = -20						; size = 4
_min$ = -16						; size = 4
__$EHRec$ = -12						; size = 12
?GetOuterPaneMinPosition@PaneSplitter@ETSLayoutMgr@@QAEHXZ PROC NEAR ; ETSLayoutMgr::PaneSplitter::GetOuterPaneMinPosition
; _this$ = ecx

; 334  : {

  00d00	55		 push	 ebp
  00d01	8b ec		 mov	 ebp, esp
  00d03	6a ff		 push	 -1
  00d05	68 00 00 00 00	 push	 __ehhandler$?GetOuterPaneMinPosition@PaneSplitter@ETSLayoutMgr@@QAEHXZ
  00d0a	64 a1 00 00 00
	00		 mov	 eax, DWORD PTR fs:__except_list
  00d10	50		 push	 eax
  00d11	64 89 25 00 00
	00 00		 mov	 DWORD PTR fs:__except_list, esp
  00d18	83 ec 14	 sub	 esp, 20			; 00000014H
  00d1b	89 4d e4	 mov	 DWORD PTR _this$[ebp], ecx

; 335  : 	CPaneBase pItem = m_paneItems[2];

  00d1e	6a 02		 push	 2
  00d20	8b 4d e4	 mov	 ecx, DWORD PTR _this$[ebp]
  00d23	83 c1 64	 add	 ecx, 100		; 00000064H
  00d26	e8 00 00 00 00	 call	 ??A?$CArray@VCPaneBase@ETSLayoutMgr@@V12@@@QAEAAVCPaneBase@ETSLayoutMgr@@H@Z ; CArray<ETSLayoutMgr::CPaneBase,ETSLayoutMgr::CPaneBase>::operator[]
  00d2b	50		 push	 eax
  00d2c	8d 4d ec	 lea	 ecx, DWORD PTR _pItem$[ebp]
  00d2f	e8 00 00 00 00	 call	 ??0CPaneBase@ETSLayoutMgr@@QAE@ABV01@@Z ; ETSLayoutMgr::CPaneBase::CPaneBase
  00d34	c7 45 fc 00 00
	00 00		 mov	 DWORD PTR __$EHRec$[ebp+8], 0

; 336  : 	int min =  pItem->getMinConstrainHorz();

  00d3b	8d 4d ec	 lea	 ecx, DWORD PTR _pItem$[ebp]
  00d3e	e8 00 00 00 00	 call	 ??CCPaneBase@ETSLayoutMgr@@QBEPAVPaneBase@1@XZ ; ETSLayoutMgr::CPaneBase::operator->
  00d43	89 45 e0	 mov	 DWORD PTR tv75[ebp], eax
  00d46	8b 45 e0	 mov	 eax, DWORD PTR tv75[ebp]
  00d49	8b 10		 mov	 edx, DWORD PTR [eax]
  00d4b	8b 4d e0	 mov	 ecx, DWORD PTR tv75[ebp]
  00d4e	ff 52 08	 call	 DWORD PTR [edx+8]
  00d51	89 45 f0	 mov	 DWORD PTR _min$[ebp], eax

; 337  : 
; 338  : 	return min;

  00d54	8b 45 f0	 mov	 eax, DWORD PTR _min$[ebp]
  00d57	89 45 e8	 mov	 DWORD PTR $T203233[ebp], eax
  00d5a	c7 45 fc ff ff
	ff ff		 mov	 DWORD PTR __$EHRec$[ebp+8], -1
  00d61	8d 4d ec	 lea	 ecx, DWORD PTR _pItem$[ebp]
  00d64	e8 00 00 00 00	 call	 ??1CPaneBase@ETSLayoutMgr@@QAE@XZ ; ETSLayoutMgr::CPaneBase::~CPaneBase
  00d69	8b 45 e8	 mov	 eax, DWORD PTR $T203233[ebp]

; 339  : }

  00d6c	8b 4d f4	 mov	 ecx, DWORD PTR __$EHRec$[ebp]
  00d6f	64 89 0d 00 00
	00 00		 mov	 DWORD PTR fs:__except_list, ecx
  00d76	8b e5		 mov	 esp, ebp
  00d78	5d		 pop	 ebp
  00d79	c3		 ret	 0
_TEXT	ENDS
text$x	SEGMENT
$L203234:
  000a3	8d 4d ec	 lea	 ecx, DWORD PTR _pItem$[ebp]
  000a6	e9 00 00 00 00	 jmp	 ??1CPaneBase@ETSLayoutMgr@@QAE@XZ ; ETSLayoutMgr::CPaneBase::~CPaneBase
__ehhandler$?GetOuterPaneMinPosition@PaneSplitter@ETSLayoutMgr@@QAEHXZ:
  000ab	b8 00 00 00 00	 mov	 eax, OFFSET FLAT:$T203236
  000b0	e9 00 00 00 00	 jmp	 ___CxxFrameHandler
text$x	ENDS
?GetOuterPaneMinPosition@PaneSplitter@ETSLayoutMgr@@QAEHXZ ENDP ; ETSLayoutMgr::PaneSplitter::GetOuterPaneMinPosition
PUBLIC	?InflateRect@CRect@@QAEXHHHH@Z			; CRect::InflateRect
PUBLIC	?ForceResizeOuterPane@PaneSplitter@ETSLayoutMgr@@QAE_NH_N@Z ; ETSLayoutMgr::PaneSplitter::ForceResizeOuterPane
xdata$x	SEGMENT
$T203245 DD	0ffffffffH
	DD	FLAT:$L203241
$T203243 DD	019930520H
	DD	01H
	DD	FLAT:$T203245
	DD	2 DUP(00H)
	DD	2 DUP(00H)
; Function compile flags: /Odt
xdata$x	ENDS
_TEXT	SEGMENT
tv92 = -48						; size = 4
tv82 = -44						; size = 4
_this$ = -40						; size = 4
$T203240 = -33						; size = 1
_pItem$ = -32						; size = 4
_rc$ = -28						; size = 16
__$EHRec$ = -12						; size = 12
_offset$ = 8						; size = 4
_bRedraw$ = 12						; size = 1
?ForceResizeOuterPane@PaneSplitter@ETSLayoutMgr@@QAE_NH_N@Z PROC NEAR ; ETSLayoutMgr::PaneSplitter::ForceResizeOuterPane
; _this$ = ecx

; 342  : {

  00d80	55		 push	 ebp
  00d81	8b ec		 mov	 ebp, esp
  00d83	6a ff		 push	 -1
  00d85	68 00 00 00 00	 push	 __ehhandler$?ForceResizeOuterPane@PaneSplitter@ETSLayoutMgr@@QAE_NH_N@Z
  00d8a	64 a1 00 00 00
	00		 mov	 eax, DWORD PTR fs:__except_list
  00d90	50		 push	 eax
  00d91	64 89 25 00 00
	00 00		 mov	 DWORD PTR fs:__except_list, esp
  00d98	83 ec 24	 sub	 esp, 36			; 00000024H
  00d9b	56		 push	 esi
  00d9c	89 4d d8	 mov	 DWORD PTR _this$[ebp], ecx

; 343  : 	//Resize Splitter
; 344  : 	CPaneBase pItem = m_paneItems[2];

  00d9f	6a 02		 push	 2
  00da1	8b 4d d8	 mov	 ecx, DWORD PTR _this$[ebp]
  00da4	83 c1 64	 add	 ecx, 100		; 00000064H
  00da7	e8 00 00 00 00	 call	 ??A?$CArray@VCPaneBase@ETSLayoutMgr@@V12@@@QAEAAVCPaneBase@ETSLayoutMgr@@H@Z ; CArray<ETSLayoutMgr::CPaneBase,ETSLayoutMgr::CPaneBase>::operator[]
  00dac	50		 push	 eax
  00dad	8d 4d e0	 lea	 ecx, DWORD PTR _pItem$[ebp]
  00db0	e8 00 00 00 00	 call	 ??0CPaneBase@ETSLayoutMgr@@QAE@ABV01@@Z ; ETSLayoutMgr::CPaneBase::CPaneBase
  00db5	c7 45 fc 00 00
	00 00		 mov	 DWORD PTR __$EHRec$[ebp+8], 0

; 345  : 	CRect rc = pItem->getPaneRect();

  00dbc	8d 45 e4	 lea	 eax, DWORD PTR _rc$[ebp]
  00dbf	50		 push	 eax
  00dc0	8d 4d e0	 lea	 ecx, DWORD PTR _pItem$[ebp]
  00dc3	e8 00 00 00 00	 call	 ??CCPaneBase@ETSLayoutMgr@@QBEPAVPaneBase@1@XZ ; ETSLayoutMgr::CPaneBase::operator->
  00dc8	8b c8		 mov	 ecx, eax
  00dca	e8 00 00 00 00	 call	 ?getPaneRect@PaneBase@ETSLayoutMgr@@QAE?AVCRect@@XZ ; ETSLayoutMgr::PaneBase::getPaneRect

; 346  : 
; 347  : 	if(rc.Width() - offset < pItem->getMinConstrainHorz())

  00dcf	8d 4d e0	 lea	 ecx, DWORD PTR _pItem$[ebp]
  00dd2	e8 00 00 00 00	 call	 ??CCPaneBase@ETSLayoutMgr@@QBEPAVPaneBase@1@XZ ; ETSLayoutMgr::CPaneBase::operator->
  00dd7	89 45 d4	 mov	 DWORD PTR tv82[ebp], eax
  00dda	8b 4d d4	 mov	 ecx, DWORD PTR tv82[ebp]
  00ddd	8b 11		 mov	 edx, DWORD PTR [ecx]
  00ddf	8b 4d d4	 mov	 ecx, DWORD PTR tv82[ebp]
  00de2	ff 52 08	 call	 DWORD PTR [edx+8]
  00de5	8b f0		 mov	 esi, eax
  00de7	8d 4d e4	 lea	 ecx, DWORD PTR _rc$[ebp]
  00dea	e8 00 00 00 00	 call	 ?Width@CRect@@QBEHXZ	; CRect::Width
  00def	2b 45 08	 sub	 eax, DWORD PTR _offset$[ebp]
  00df2	3b c6		 cmp	 eax, esi
  00df4	7d 25		 jge	 SHORT $L200981

; 348  : 		offset = rc.Width() - pItem->getMinConstrainHorz();

  00df6	8d 4d e0	 lea	 ecx, DWORD PTR _pItem$[ebp]
  00df9	e8 00 00 00 00	 call	 ??CCPaneBase@ETSLayoutMgr@@QBEPAVPaneBase@1@XZ ; ETSLayoutMgr::CPaneBase::operator->
  00dfe	89 45 d0	 mov	 DWORD PTR tv92[ebp], eax
  00e01	8b 45 d0	 mov	 eax, DWORD PTR tv92[ebp]
  00e04	8b 10		 mov	 edx, DWORD PTR [eax]
  00e06	8b 4d d0	 mov	 ecx, DWORD PTR tv92[ebp]
  00e09	ff 52 08	 call	 DWORD PTR [edx+8]
  00e0c	8b f0		 mov	 esi, eax
  00e0e	8d 4d e4	 lea	 ecx, DWORD PTR _rc$[ebp]
  00e11	e8 00 00 00 00	 call	 ?Width@CRect@@QBEHXZ	; CRect::Width
  00e16	2b c6		 sub	 eax, esi
  00e18	89 45 08	 mov	 DWORD PTR _offset$[ebp], eax
$L200981:

; 349  : 
; 350  : 	if(this->m_Orientation == ETSLayoutMgr::HORIZONTAL)

  00e1b	8b 45 d8	 mov	 eax, DWORD PTR _this$[ebp]
  00e1e	83 78 60 00	 cmp	 DWORD PTR [eax+96], 0
  00e22	75 14		 jne	 SHORT $L200983

; 351  : 		rc.InflateRect(0, 0, -offset, 0);

  00e24	6a 00		 push	 0
  00e26	8b 4d 08	 mov	 ecx, DWORD PTR _offset$[ebp]
  00e29	f7 d9		 neg	 ecx
  00e2b	51		 push	 ecx
  00e2c	6a 00		 push	 0
  00e2e	6a 00		 push	 0
  00e30	8d 4d e4	 lea	 ecx, DWORD PTR _rc$[ebp]
  00e33	e8 00 00 00 00	 call	 ?InflateRect@CRect@@QAEXHHHH@Z ; CRect::InflateRect
$L200983:

; 352  : 	else
; 353  : 		;
; 354  : 	ForceResizeTo(pItem, rc, bRedraw);

  00e38	8a 55 0c	 mov	 dl, BYTE PTR _bRedraw$[ebp]
  00e3b	52		 push	 edx
  00e3c	8d 45 e4	 lea	 eax, DWORD PTR _rc$[ebp]
  00e3f	50		 push	 eax
  00e40	8d 4d e0	 lea	 ecx, DWORD PTR _pItem$[ebp]
  00e43	51		 push	 ecx
  00e44	8b 4d d8	 mov	 ecx, DWORD PTR _this$[ebp]
  00e47	e8 00 00 00 00	 call	 ?ForceResizeTo@PaneSplitter@ETSLayoutMgr@@AAEXAAVCPaneBase@2@AAVCRect@@_N@Z ; ETSLayoutMgr::PaneSplitter::ForceResizeTo

; 355  : 
; 356  : 	this->m_pSpl->ShowWindow(SW_SHOW);

  00e4c	6a 05		 push	 5
  00e4e	8b 55 d8	 mov	 edx, DWORD PTR _this$[ebp]
  00e51	8b 8a 94 00 00
	00		 mov	 ecx, DWORD PTR [edx+148]
  00e57	e8 00 00 00 00	 call	 ?ShowWindow@CWnd@@QAEHH@Z ; CWnd::ShowWindow

; 357  : 	return true;

  00e5c	c6 45 df 01	 mov	 BYTE PTR $T203240[ebp], 1
  00e60	c7 45 fc ff ff
	ff ff		 mov	 DWORD PTR __$EHRec$[ebp+8], -1
  00e67	8d 4d e0	 lea	 ecx, DWORD PTR _pItem$[ebp]
  00e6a	e8 00 00 00 00	 call	 ??1CPaneBase@ETSLayoutMgr@@QAE@XZ ; ETSLayoutMgr::CPaneBase::~CPaneBase
  00e6f	8a 45 df	 mov	 al, BYTE PTR $T203240[ebp]

; 358  : }

  00e72	8b 4d f4	 mov	 ecx, DWORD PTR __$EHRec$[ebp]
  00e75	64 89 0d 00 00
	00 00		 mov	 DWORD PTR fs:__except_list, ecx
  00e7c	5e		 pop	 esi
  00e7d	8b e5		 mov	 esp, ebp
  00e7f	5d		 pop	 ebp
  00e80	c2 08 00	 ret	 8
_TEXT	ENDS
text$x	SEGMENT
$L203241:
  000b5	8d 4d e0	 lea	 ecx, DWORD PTR _pItem$[ebp]
  000b8	e9 00 00 00 00	 jmp	 ??1CPaneBase@ETSLayoutMgr@@QAE@XZ ; ETSLayoutMgr::CPaneBase::~CPaneBase
__ehhandler$?ForceResizeOuterPane@PaneSplitter@ETSLayoutMgr@@QAE_NH_N@Z:
  000bd	b8 00 00 00 00	 mov	 eax, OFFSET FLAT:$T203243
  000c2	e9 00 00 00 00	 jmp	 ___CxxFrameHandler
text$x	ENDS
?ForceResizeOuterPane@PaneSplitter@ETSLayoutMgr@@QAE_NH_N@Z ENDP ; ETSLayoutMgr::PaneSplitter::ForceResizeOuterPane
PUBLIC	?resizeTo@PaneSplitter@ETSLayoutMgr@@QAE_NH_N0@Z ; ETSLayoutMgr::PaneSplitter::resizeTo
xdata$x	SEGMENT
$T203254 DD	0ffffffffH
	DD	FLAT:$L203250
$T203252 DD	019930520H
	DD	01H
	DD	FLAT:$T203254
	DD	2 DUP(00H)
	DD	2 DUP(00H)
; Function compile flags: /Odt
xdata$x	ENDS
_TEXT	SEGMENT
_this$ = -72						; size = 4
$T203249 = -65						; size = 1
$T203248 = -64						; size = 16
$T203247 = -48						; size = 16
_pItem$ = -32						; size = 4
_rc$ = -28						; size = 16
__$EHRec$ = -12						; size = 12
_offset$ = 8						; size = 4
_bRedraw$ = 12						; size = 1
_bReSizeAlways$ = 16					; size = 1
?resizeTo@PaneSplitter@ETSLayoutMgr@@QAE_NH_N0@Z PROC NEAR ; ETSLayoutMgr::PaneSplitter::resizeTo
; _this$ = ecx

; 361  : {

  00e90	55		 push	 ebp
  00e91	8b ec		 mov	 ebp, esp
  00e93	6a ff		 push	 -1
  00e95	68 00 00 00 00	 push	 __ehhandler$?resizeTo@PaneSplitter@ETSLayoutMgr@@QAE_NH_N0@Z
  00e9a	64 a1 00 00 00
	00		 mov	 eax, DWORD PTR fs:__except_list
  00ea0	50		 push	 eax
  00ea1	64 89 25 00 00
	00 00		 mov	 DWORD PTR fs:__except_list, esp
  00ea8	83 ec 3c	 sub	 esp, 60			; 0000003cH
  00eab	89 4d b8	 mov	 DWORD PTR _this$[ebp], ecx

; 362  : 	ASSERT(m_paneItems.GetSize() == 3);
; 363  : 
; 364  : 	CPaneBase pItem = m_paneItems[0];

  00eae	6a 00		 push	 0
  00eb0	8b 4d b8	 mov	 ecx, DWORD PTR _this$[ebp]
  00eb3	83 c1 64	 add	 ecx, 100		; 00000064H
  00eb6	e8 00 00 00 00	 call	 ??A?$CArray@VCPaneBase@ETSLayoutMgr@@V12@@@QAEAAVCPaneBase@ETSLayoutMgr@@H@Z ; CArray<ETSLayoutMgr::CPaneBase,ETSLayoutMgr::CPaneBase>::operator[]
  00ebb	50		 push	 eax
  00ebc	8d 4d e0	 lea	 ecx, DWORD PTR _pItem$[ebp]
  00ebf	e8 00 00 00 00	 call	 ??0CPaneBase@ETSLayoutMgr@@QAE@ABV01@@Z ; ETSLayoutMgr::CPaneBase::CPaneBase
  00ec4	c7 45 fc 00 00
	00 00		 mov	 DWORD PTR __$EHRec$[ebp+8], 0

; 365  : 	CRect rc = pItem->getPaneRect();

  00ecb	8d 45 e4	 lea	 eax, DWORD PTR _rc$[ebp]
  00ece	50		 push	 eax
  00ecf	8d 4d e0	 lea	 ecx, DWORD PTR _pItem$[ebp]
  00ed2	e8 00 00 00 00	 call	 ??CCPaneBase@ETSLayoutMgr@@QBEPAVPaneBase@1@XZ ; ETSLayoutMgr::CPaneBase::operator->
  00ed7	8b c8		 mov	 ecx, eax
  00ed9	e8 00 00 00 00	 call	 ?getPaneRect@PaneBase@ETSLayoutMgr@@QAE?AVCRect@@XZ ; ETSLayoutMgr::PaneBase::getPaneRect

; 366  : 
; 367  : 	//Resize First Pane
; 368  : 	if(this->m_Orientation == ETSLayoutMgr::HORIZONTAL)

  00ede	8b 4d b8	 mov	 ecx, DWORD PTR _this$[ebp]
  00ee1	83 79 60 00	 cmp	 DWORD PTR [ecx+96], 0
  00ee5	75 14		 jne	 SHORT $L200995

; 369  : 		rc.InflateRect(0,0, offset, 0);

  00ee7	6a 00		 push	 0
  00ee9	8b 55 08	 mov	 edx, DWORD PTR _offset$[ebp]
  00eec	52		 push	 edx
  00eed	6a 00		 push	 0
  00eef	6a 00		 push	 0
  00ef1	8d 4d e4	 lea	 ecx, DWORD PTR _rc$[ebp]
  00ef4	e8 00 00 00 00	 call	 ?InflateRect@CRect@@QAEXHHHH@Z ; CRect::InflateRect

; 370  : 	else

  00ef9	eb 12		 jmp	 SHORT $L200996
$L200995:

; 371  : 		rc.InflateRect(0, 0, 0, offset);

  00efb	8b 45 08	 mov	 eax, DWORD PTR _offset$[ebp]
  00efe	50		 push	 eax
  00eff	6a 00		 push	 0
  00f01	6a 00		 push	 0
  00f03	6a 00		 push	 0
  00f05	8d 4d e4	 lea	 ecx, DWORD PTR _rc$[ebp]
  00f08	e8 00 00 00 00	 call	 ?InflateRect@CRect@@QAEXHHHH@Z ; CRect::InflateRect
$L200996:

; 372  : 	ForceResizeTo(pItem, rc, bRedraw);

  00f0d	8a 4d 0c	 mov	 cl, BYTE PTR _bRedraw$[ebp]
  00f10	51		 push	 ecx
  00f11	8d 55 e4	 lea	 edx, DWORD PTR _rc$[ebp]
  00f14	52		 push	 edx
  00f15	8d 45 e0	 lea	 eax, DWORD PTR _pItem$[ebp]
  00f18	50		 push	 eax
  00f19	8b 4d b8	 mov	 ecx, DWORD PTR _this$[ebp]
  00f1c	e8 00 00 00 00	 call	 ?ForceResizeTo@PaneSplitter@ETSLayoutMgr@@AAEXAAVCPaneBase@2@AAVCRect@@_N@Z ; ETSLayoutMgr::PaneSplitter::ForceResizeTo

; 373  : 
; 374  : 	//Resize Second Pane
; 375  : 	pItem = m_paneItems[2];

  00f21	6a 02		 push	 2
  00f23	8b 4d b8	 mov	 ecx, DWORD PTR _this$[ebp]
  00f26	83 c1 64	 add	 ecx, 100		; 00000064H
  00f29	e8 00 00 00 00	 call	 ??A?$CArray@VCPaneBase@ETSLayoutMgr@@V12@@@QAEAAVCPaneBase@ETSLayoutMgr@@H@Z ; CArray<ETSLayoutMgr::CPaneBase,ETSLayoutMgr::CPaneBase>::operator[]
  00f2e	50		 push	 eax
  00f2f	8d 4d e0	 lea	 ecx, DWORD PTR _pItem$[ebp]
  00f32	e8 00 00 00 00	 call	 ??4CPaneBase@ETSLayoutMgr@@QAEXABV01@@Z ; ETSLayoutMgr::CPaneBase::operator=

; 376  : 	rc = pItem->getPaneRect();

  00f37	8d 4d d0	 lea	 ecx, DWORD PTR $T203247[ebp]
  00f3a	51		 push	 ecx
  00f3b	8d 4d e0	 lea	 ecx, DWORD PTR _pItem$[ebp]
  00f3e	e8 00 00 00 00	 call	 ??CCPaneBase@ETSLayoutMgr@@QBEPAVPaneBase@1@XZ ; ETSLayoutMgr::CPaneBase::operator->
  00f43	8b c8		 mov	 ecx, eax
  00f45	e8 00 00 00 00	 call	 ?getPaneRect@PaneBase@ETSLayoutMgr@@QAE?AVCRect@@XZ ; ETSLayoutMgr::PaneBase::getPaneRect
  00f4a	8b 10		 mov	 edx, DWORD PTR [eax]
  00f4c	89 55 e4	 mov	 DWORD PTR _rc$[ebp], edx
  00f4f	8b 48 04	 mov	 ecx, DWORD PTR [eax+4]
  00f52	89 4d e8	 mov	 DWORD PTR _rc$[ebp+4], ecx
  00f55	8b 50 08	 mov	 edx, DWORD PTR [eax+8]
  00f58	89 55 ec	 mov	 DWORD PTR _rc$[ebp+8], edx
  00f5b	8b 40 0c	 mov	 eax, DWORD PTR [eax+12]
  00f5e	89 45 f0	 mov	 DWORD PTR _rc$[ebp+12], eax

; 377  : 	if(this->m_Orientation == ETSLayoutMgr::HORIZONTAL)

  00f61	8b 4d b8	 mov	 ecx, DWORD PTR _this$[ebp]
  00f64	83 79 60 00	 cmp	 DWORD PTR [ecx+96], 0
  00f68	75 16		 jne	 SHORT $L200998

; 378  : 		rc.InflateRect(-offset,0, 0,  0);

  00f6a	6a 00		 push	 0
  00f6c	6a 00		 push	 0
  00f6e	6a 00		 push	 0
  00f70	8b 55 08	 mov	 edx, DWORD PTR _offset$[ebp]
  00f73	f7 da		 neg	 edx
  00f75	52		 push	 edx
  00f76	8d 4d e4	 lea	 ecx, DWORD PTR _rc$[ebp]
  00f79	e8 00 00 00 00	 call	 ?InflateRect@CRect@@QAEXHHHH@Z ; CRect::InflateRect

; 379  : 	else

  00f7e	eb 14		 jmp	 SHORT $L200999
$L200998:

; 380  : 		rc.InflateRect(0, -offset, 0,0);

  00f80	6a 00		 push	 0
  00f82	6a 00		 push	 0
  00f84	8b 45 08	 mov	 eax, DWORD PTR _offset$[ebp]
  00f87	f7 d8		 neg	 eax
  00f89	50		 push	 eax
  00f8a	6a 00		 push	 0
  00f8c	8d 4d e4	 lea	 ecx, DWORD PTR _rc$[ebp]
  00f8f	e8 00 00 00 00	 call	 ?InflateRect@CRect@@QAEXHHHH@Z ; CRect::InflateRect
$L200999:

; 381  : 	ForceResizeTo(pItem, rc, bRedraw);

  00f94	8a 4d 0c	 mov	 cl, BYTE PTR _bRedraw$[ebp]
  00f97	51		 push	 ecx
  00f98	8d 55 e4	 lea	 edx, DWORD PTR _rc$[ebp]
  00f9b	52		 push	 edx
  00f9c	8d 45 e0	 lea	 eax, DWORD PTR _pItem$[ebp]
  00f9f	50		 push	 eax
  00fa0	8b 4d b8	 mov	 ecx, DWORD PTR _this$[ebp]
  00fa3	e8 00 00 00 00	 call	 ?ForceResizeTo@PaneSplitter@ETSLayoutMgr@@AAEXAAVCPaneBase@2@AAVCRect@@_N@Z ; ETSLayoutMgr::PaneSplitter::ForceResizeTo

; 382  : 
; 383  : 	//Resize Splitter
; 384  : 	pItem = m_paneItems[1];

  00fa8	6a 01		 push	 1
  00faa	8b 4d b8	 mov	 ecx, DWORD PTR _this$[ebp]
  00fad	83 c1 64	 add	 ecx, 100		; 00000064H
  00fb0	e8 00 00 00 00	 call	 ??A?$CArray@VCPaneBase@ETSLayoutMgr@@V12@@@QAEAAVCPaneBase@ETSLayoutMgr@@H@Z ; CArray<ETSLayoutMgr::CPaneBase,ETSLayoutMgr::CPaneBase>::operator[]
  00fb5	50		 push	 eax
  00fb6	8d 4d e0	 lea	 ecx, DWORD PTR _pItem$[ebp]
  00fb9	e8 00 00 00 00	 call	 ??4CPaneBase@ETSLayoutMgr@@QAEXABV01@@Z ; ETSLayoutMgr::CPaneBase::operator=

; 385  : 	rc = pItem->getPaneRect();

  00fbe	8d 4d c0	 lea	 ecx, DWORD PTR $T203248[ebp]
  00fc1	51		 push	 ecx
  00fc2	8d 4d e0	 lea	 ecx, DWORD PTR _pItem$[ebp]
  00fc5	e8 00 00 00 00	 call	 ??CCPaneBase@ETSLayoutMgr@@QBEPAVPaneBase@1@XZ ; ETSLayoutMgr::CPaneBase::operator->
  00fca	8b c8		 mov	 ecx, eax
  00fcc	e8 00 00 00 00	 call	 ?getPaneRect@PaneBase@ETSLayoutMgr@@QAE?AVCRect@@XZ ; ETSLayoutMgr::PaneBase::getPaneRect
  00fd1	8b 10		 mov	 edx, DWORD PTR [eax]
  00fd3	89 55 e4	 mov	 DWORD PTR _rc$[ebp], edx
  00fd6	8b 48 04	 mov	 ecx, DWORD PTR [eax+4]
  00fd9	89 4d e8	 mov	 DWORD PTR _rc$[ebp+4], ecx
  00fdc	8b 50 08	 mov	 edx, DWORD PTR [eax+8]
  00fdf	89 55 ec	 mov	 DWORD PTR _rc$[ebp+8], edx
  00fe2	8b 40 0c	 mov	 eax, DWORD PTR [eax+12]
  00fe5	89 45 f0	 mov	 DWORD PTR _rc$[ebp+12], eax

; 386  : 	if(this->m_Orientation == ETSLayoutMgr::HORIZONTAL)

  00fe8	8b 4d b8	 mov	 ecx, DWORD PTR _this$[ebp]
  00feb	83 79 60 00	 cmp	 DWORD PTR [ecx+96], 0
  00fef	75 18		 jne	 SHORT $L201001

; 387  : 		rc.InflateRect(-offset, 0, offset, 0);

  00ff1	6a 00		 push	 0
  00ff3	8b 55 08	 mov	 edx, DWORD PTR _offset$[ebp]
  00ff6	52		 push	 edx
  00ff7	6a 00		 push	 0
  00ff9	8b 45 08	 mov	 eax, DWORD PTR _offset$[ebp]
  00ffc	f7 d8		 neg	 eax
  00ffe	50		 push	 eax
  00fff	8d 4d e4	 lea	 ecx, DWORD PTR _rc$[ebp]
  01002	e8 00 00 00 00	 call	 ?InflateRect@CRect@@QAEXHHHH@Z ; CRect::InflateRect

; 388  : 	else

  01007	eb 16		 jmp	 SHORT $L201002
$L201001:

; 389  : 		rc.InflateRect(0, -offset,0, offset);

  01009	8b 4d 08	 mov	 ecx, DWORD PTR _offset$[ebp]
  0100c	51		 push	 ecx
  0100d	6a 00		 push	 0
  0100f	8b 55 08	 mov	 edx, DWORD PTR _offset$[ebp]
  01012	f7 da		 neg	 edx
  01014	52		 push	 edx
  01015	6a 00		 push	 0
  01017	8d 4d e4	 lea	 ecx, DWORD PTR _rc$[ebp]
  0101a	e8 00 00 00 00	 call	 ?InflateRect@CRect@@QAEXHHHH@Z ; CRect::InflateRect
$L201002:

; 390  : 	ForceResizeTo(pItem, rc, bRedraw);

  0101f	8a 45 0c	 mov	 al, BYTE PTR _bRedraw$[ebp]
  01022	50		 push	 eax
  01023	8d 4d e4	 lea	 ecx, DWORD PTR _rc$[ebp]
  01026	51		 push	 ecx
  01027	8d 55 e0	 lea	 edx, DWORD PTR _pItem$[ebp]
  0102a	52		 push	 edx
  0102b	8b 4d b8	 mov	 ecx, DWORD PTR _this$[ebp]
  0102e	e8 00 00 00 00	 call	 ?ForceResizeTo@PaneSplitter@ETSLayoutMgr@@AAEXAAVCPaneBase@2@AAVCRect@@_N@Z ; ETSLayoutMgr::PaneSplitter::ForceResizeTo

; 391  : 
; 392  : 	//this->m_nSplClosedPos = this->GetSplPosition();
; 393  : 	//this->m_pSpl->ShowWindow(SW_SHOW);
; 394  : 	return true;

  01033	c6 45 bf 01	 mov	 BYTE PTR $T203249[ebp], 1
  01037	c7 45 fc ff ff
	ff ff		 mov	 DWORD PTR __$EHRec$[ebp+8], -1
  0103e	8d 4d e0	 lea	 ecx, DWORD PTR _pItem$[ebp]
  01041	e8 00 00 00 00	 call	 ??1CPaneBase@ETSLayoutMgr@@QAE@XZ ; ETSLayoutMgr::CPaneBase::~CPaneBase
  01046	8a 45 bf	 mov	 al, BYTE PTR $T203249[ebp]

; 395  : }

  01049	8b 4d f4	 mov	 ecx, DWORD PTR __$EHRec$[ebp]
  0104c	64 89 0d 00 00
	00 00		 mov	 DWORD PTR fs:__except_list, ecx
  01053	8b e5		 mov	 esp, ebp
  01055	5d		 pop	 ebp
  01056	c2 0c 00	 ret	 12			; 0000000cH
_TEXT	ENDS
text$x	SEGMENT
$L203250:
  000c7	8d 4d e0	 lea	 ecx, DWORD PTR _pItem$[ebp]
  000ca	e9 00 00 00 00	 jmp	 ??1CPaneBase@ETSLayoutMgr@@QAE@XZ ; ETSLayoutMgr::CPaneBase::~CPaneBase
__ehhandler$?resizeTo@PaneSplitter@ETSLayoutMgr@@QAE_NH_N0@Z:
  000cf	b8 00 00 00 00	 mov	 eax, OFFSET FLAT:$T203252
  000d4	e9 00 00 00 00	 jmp	 ___CxxFrameHandler
text$x	ENDS
?resizeTo@PaneSplitter@ETSLayoutMgr@@QAE_NH_N0@Z ENDP	; ETSLayoutMgr::PaneSplitter::resizeTo
PUBLIC	?GetSize@?$CArray@VCPaneBase@ETSLayoutMgr@@V12@@@QBEHXZ ; CArray<ETSLayoutMgr::CPaneBase,ETSLayoutMgr::CPaneBase>::GetSize
PUBLIC	?getSecondSize@PaneSplitter@ETSLayoutMgr@@QAEHXZ ; ETSLayoutMgr::PaneSplitter::getSecondSize
xdata$x	SEGMENT
$T203261 DD	0ffffffffH
	DD	FLAT:$L203257
$T203259 DD	019930520H
	DD	01H
	DD	FLAT:$T203261
	DD	2 DUP(00H)
	DD	2 DUP(00H)
; Function compile flags: /Odt
xdata$x	ENDS
_TEXT	SEGMENT
_this$ = -44						; size = 4
$T203256 = -40						; size = 4
_pItem$ = -36						; size = 4
_rc$ = -32						; size = 16
_value$ = -16						; size = 4
__$EHRec$ = -12						; size = 12
?getSecondSize@PaneSplitter@ETSLayoutMgr@@QAEHXZ PROC NEAR ; ETSLayoutMgr::PaneSplitter::getSecondSize
; _this$ = ecx

; 397  : {

  01060	55		 push	 ebp
  01061	8b ec		 mov	 ebp, esp
  01063	6a ff		 push	 -1
  01065	68 00 00 00 00	 push	 __ehhandler$?getSecondSize@PaneSplitter@ETSLayoutMgr@@QAEHXZ
  0106a	64 a1 00 00 00
	00		 mov	 eax, DWORD PTR fs:__except_list
  01070	50		 push	 eax
  01071	64 89 25 00 00
	00 00		 mov	 DWORD PTR fs:__except_list, esp
  01078	83 ec 20	 sub	 esp, 32			; 00000020H
  0107b	89 4d d4	 mov	 DWORD PTR _this$[ebp], ecx

; 398  : 	if(m_paneItems.GetSize() != 3)

  0107e	8b 4d d4	 mov	 ecx, DWORD PTR _this$[ebp]
  01081	83 c1 64	 add	 ecx, 100		; 00000064H
  01084	e8 00 00 00 00	 call	 ?GetSize@?$CArray@VCPaneBase@ETSLayoutMgr@@V12@@@QBEHXZ ; CArray<ETSLayoutMgr::CPaneBase,ETSLayoutMgr::CPaneBase>::GetSize
  01089	83 f8 03	 cmp	 eax, 3
  0108c	74 04		 je	 SHORT $L201007

; 399  : 		return 0;

  0108e	33 c0		 xor	 eax, eax
  01090	eb 69		 jmp	 SHORT $L201006
$L201007:

; 400  : 	CPaneBase pItem = m_paneItems[2];

  01092	6a 02		 push	 2
  01094	8b 4d d4	 mov	 ecx, DWORD PTR _this$[ebp]
  01097	83 c1 64	 add	 ecx, 100		; 00000064H
  0109a	e8 00 00 00 00	 call	 ??A?$CArray@VCPaneBase@ETSLayoutMgr@@V12@@@QAEAAVCPaneBase@ETSLayoutMgr@@H@Z ; CArray<ETSLayoutMgr::CPaneBase,ETSLayoutMgr::CPaneBase>::operator[]
  0109f	50		 push	 eax
  010a0	8d 4d dc	 lea	 ecx, DWORD PTR _pItem$[ebp]
  010a3	e8 00 00 00 00	 call	 ??0CPaneBase@ETSLayoutMgr@@QAE@ABV01@@Z ; ETSLayoutMgr::CPaneBase::CPaneBase
  010a8	c7 45 fc 00 00
	00 00		 mov	 DWORD PTR __$EHRec$[ebp+8], 0

; 401  : 	CRect rc = pItem->getPaneRect();

  010af	8d 45 e0	 lea	 eax, DWORD PTR _rc$[ebp]
  010b2	50		 push	 eax
  010b3	8d 4d dc	 lea	 ecx, DWORD PTR _pItem$[ebp]
  010b6	e8 00 00 00 00	 call	 ??CCPaneBase@ETSLayoutMgr@@QBEPAVPaneBase@1@XZ ; ETSLayoutMgr::CPaneBase::operator->
  010bb	8b c8		 mov	 ecx, eax
  010bd	e8 00 00 00 00	 call	 ?getPaneRect@PaneBase@ETSLayoutMgr@@QAE?AVCRect@@XZ ; ETSLayoutMgr::PaneBase::getPaneRect

; 402  : 	int value;
; 403  : 
; 404  : 	if(this->m_Orientation == ETSLayoutMgr::HORIZONTAL)

  010c2	8b 4d d4	 mov	 ecx, DWORD PTR _this$[ebp]
  010c5	83 79 60 00	 cmp	 DWORD PTR [ecx+96], 0
  010c9	75 0d		 jne	 SHORT $L201012

; 405  : 		value= rc.Height();

  010cb	8d 4d e0	 lea	 ecx, DWORD PTR _rc$[ebp]
  010ce	e8 00 00 00 00	 call	 ?Height@CRect@@QBEHXZ	; CRect::Height
  010d3	89 45 f0	 mov	 DWORD PTR _value$[ebp], eax

; 406  : 	else

  010d6	eb 0b		 jmp	 SHORT $L201013
$L201012:

; 407  : 		value = rc.Width();

  010d8	8d 4d e0	 lea	 ecx, DWORD PTR _rc$[ebp]
  010db	e8 00 00 00 00	 call	 ?Width@CRect@@QBEHXZ	; CRect::Width
  010e0	89 45 f0	 mov	 DWORD PTR _value$[ebp], eax
$L201013:

; 408  : 	return value;

  010e3	8b 55 f0	 mov	 edx, DWORD PTR _value$[ebp]
  010e6	89 55 d8	 mov	 DWORD PTR $T203256[ebp], edx
  010e9	c7 45 fc ff ff
	ff ff		 mov	 DWORD PTR __$EHRec$[ebp+8], -1
  010f0	8d 4d dc	 lea	 ecx, DWORD PTR _pItem$[ebp]
  010f3	e8 00 00 00 00	 call	 ??1CPaneBase@ETSLayoutMgr@@QAE@XZ ; ETSLayoutMgr::CPaneBase::~CPaneBase
  010f8	8b 45 d8	 mov	 eax, DWORD PTR $T203256[ebp]
$L201006:

; 409  : }

  010fb	8b 4d f4	 mov	 ecx, DWORD PTR __$EHRec$[ebp]
  010fe	64 89 0d 00 00
	00 00		 mov	 DWORD PTR fs:__except_list, ecx
  01105	8b e5		 mov	 esp, ebp
  01107	5d		 pop	 ebp
  01108	c3		 ret	 0
_TEXT	ENDS
text$x	SEGMENT
$L203257:
  000d9	8d 4d dc	 lea	 ecx, DWORD PTR _pItem$[ebp]
  000dc	e9 00 00 00 00	 jmp	 ??1CPaneBase@ETSLayoutMgr@@QAE@XZ ; ETSLayoutMgr::CPaneBase::~CPaneBase
__ehhandler$?getSecondSize@PaneSplitter@ETSLayoutMgr@@QAEHXZ:
  000e1	b8 00 00 00 00	 mov	 eax, OFFSET FLAT:$T203259
  000e6	e9 00 00 00 00	 jmp	 ___CxxFrameHandler
text$x	ENDS
?getSecondSize@PaneSplitter@ETSLayoutMgr@@QAEHXZ ENDP	; ETSLayoutMgr::PaneSplitter::getSecondSize
xdata$x	SEGMENT
$T203269 DD	0ffffffffH
	DD	FLAT:$L203265
$T203267 DD	019930520H
	DD	01H
	DD	FLAT:$T203269
	DD	2 DUP(00H)
	DD	2 DUP(00H)
; Function compile flags: /Odt
xdata$x	ENDS
_TEXT	SEGMENT
tv92 = -52						; size = 4
_this$ = -48						; size = 4
$T203264 = -44						; size = 4
$T203263 = -40						; size = 4
_width$ = -36						; size = 4
_pItem$ = -32						; size = 4
_rc$ = -28						; size = 16
__$EHRec$ = -12						; size = 12
?IsClosed@PaneSplitter@ETSLayoutMgr@@QAEHXZ PROC NEAR	; ETSLayoutMgr::PaneSplitter::IsClosed
; _this$ = ecx

; 412  : {

  01110	55		 push	 ebp
  01111	8b ec		 mov	 ebp, esp
  01113	6a ff		 push	 -1
  01115	68 00 00 00 00	 push	 __ehhandler$?IsClosed@PaneSplitter@ETSLayoutMgr@@QAEHXZ
  0111a	64 a1 00 00 00
	00		 mov	 eax, DWORD PTR fs:__except_list
  01120	50		 push	 eax
  01121	64 89 25 00 00
	00 00		 mov	 DWORD PTR fs:__except_list, esp
  01128	83 ec 28	 sub	 esp, 40			; 00000028H
  0112b	89 4d d0	 mov	 DWORD PTR _this$[ebp], ecx

; 413  : 	CPaneBase pItem;

  0112e	8d 4d e0	 lea	 ecx, DWORD PTR _pItem$[ebp]
  01131	e8 00 00 00 00	 call	 ??0CPaneBase@ETSLayoutMgr@@QAE@XZ ; ETSLayoutMgr::CPaneBase::CPaneBase
  01136	c7 45 fc 00 00
	00 00		 mov	 DWORD PTR __$EHRec$[ebp+8], 0

; 414  : 	int width;
; 415  : 
; 416  : 	if(this->m_nClosedOri == 0)

  0113d	8b 45 d0	 mov	 eax, DWORD PTR _this$[ebp]
  01140	83 b8 84 00 00
	00 00		 cmp	 DWORD PTR [eax+132], 0
  01147	75 18		 jne	 SHORT $L201020

; 417  : 		pItem = m_paneItems[0];

  01149	6a 00		 push	 0
  0114b	8b 4d d0	 mov	 ecx, DWORD PTR _this$[ebp]
  0114e	83 c1 64	 add	 ecx, 100		; 00000064H
  01151	e8 00 00 00 00	 call	 ??A?$CArray@VCPaneBase@ETSLayoutMgr@@V12@@@QAEAAVCPaneBase@ETSLayoutMgr@@H@Z ; CArray<ETSLayoutMgr::CPaneBase,ETSLayoutMgr::CPaneBase>::operator[]
  01156	50		 push	 eax
  01157	8d 4d e0	 lea	 ecx, DWORD PTR _pItem$[ebp]
  0115a	e8 00 00 00 00	 call	 ??4CPaneBase@ETSLayoutMgr@@QAEXABV01@@Z ; ETSLayoutMgr::CPaneBase::operator=

; 418  : 	else

  0115f	eb 16		 jmp	 SHORT $L201021
$L201020:

; 419  : 		pItem = m_paneItems[2];

  01161	6a 02		 push	 2
  01163	8b 4d d0	 mov	 ecx, DWORD PTR _this$[ebp]
  01166	83 c1 64	 add	 ecx, 100		; 00000064H
  01169	e8 00 00 00 00	 call	 ??A?$CArray@VCPaneBase@ETSLayoutMgr@@V12@@@QAEAAVCPaneBase@ETSLayoutMgr@@H@Z ; CArray<ETSLayoutMgr::CPaneBase,ETSLayoutMgr::CPaneBase>::operator[]
  0116e	50		 push	 eax
  0116f	8d 4d e0	 lea	 ecx, DWORD PTR _pItem$[ebp]
  01172	e8 00 00 00 00	 call	 ??4CPaneBase@ETSLayoutMgr@@QAEXABV01@@Z ; ETSLayoutMgr::CPaneBase::operator=
$L201021:

; 420  : 
; 421  : 	CRect rc = pItem->getPaneRect();

  01177	8d 4d e4	 lea	 ecx, DWORD PTR _rc$[ebp]
  0117a	51		 push	 ecx
  0117b	8d 4d e0	 lea	 ecx, DWORD PTR _pItem$[ebp]
  0117e	e8 00 00 00 00	 call	 ??CCPaneBase@ETSLayoutMgr@@QBEPAVPaneBase@1@XZ ; ETSLayoutMgr::CPaneBase::operator->
  01183	8b c8		 mov	 ecx, eax
  01185	e8 00 00 00 00	 call	 ?getPaneRect@PaneBase@ETSLayoutMgr@@QAE?AVCRect@@XZ ; ETSLayoutMgr::PaneBase::getPaneRect

; 422  : 
; 423  : 	if(this->m_Orientation == ETSLayoutMgr::HORIZONTAL)

  0118a	8b 55 d0	 mov	 edx, DWORD PTR _this$[ebp]
  0118d	83 7a 60 00	 cmp	 DWORD PTR [edx+96], 0
  01191	75 0d		 jne	 SHORT $L201024

; 424  : 	{
; 425  : 		width = rc.Width();

  01193	8d 4d e4	 lea	 ecx, DWORD PTR _rc$[ebp]
  01196	e8 00 00 00 00	 call	 ?Width@CRect@@QBEHXZ	; CRect::Width
  0119b	89 45 dc	 mov	 DWORD PTR _width$[ebp], eax

; 426  : 	}
; 427  : 	else

  0119e	eb 26		 jmp	 SHORT $L201025
$L201024:

; 428  : 	{
; 429  : 		width = pItem->getConstrainVert(0);

  011a0	8d 4d e0	 lea	 ecx, DWORD PTR _pItem$[ebp]
  011a3	e8 00 00 00 00	 call	 ??CCPaneBase@ETSLayoutMgr@@QBEPAVPaneBase@1@XZ ; ETSLayoutMgr::CPaneBase::operator->
  011a8	89 45 cc	 mov	 DWORD PTR tv92[ebp], eax
  011ab	6a 00		 push	 0
  011ad	8b 45 cc	 mov	 eax, DWORD PTR tv92[ebp]
  011b0	8b 10		 mov	 edx, DWORD PTR [eax]
  011b2	8b 4d cc	 mov	 ecx, DWORD PTR tv92[ebp]
  011b5	ff 52 04	 call	 DWORD PTR [edx+4]
  011b8	89 45 dc	 mov	 DWORD PTR _width$[ebp], eax

; 430  : 		width = rc.Height();

  011bb	8d 4d e4	 lea	 ecx, DWORD PTR _rc$[ebp]
  011be	e8 00 00 00 00	 call	 ?Height@CRect@@QBEHXZ	; CRect::Height
  011c3	89 45 dc	 mov	 DWORD PTR _width$[ebp], eax
$L201025:

; 431  : 	}
; 432  : 
; 433  : 	if(width == this->m_nSplClosedPos)

  011c6	8b 45 d0	 mov	 eax, DWORD PTR _this$[ebp]
  011c9	8b 4d dc	 mov	 ecx, DWORD PTR _width$[ebp]
  011cc	3b 88 88 00 00
	00		 cmp	 ecx, DWORD PTR [eax+136]
  011d2	75 1b		 jne	 SHORT $L201026

; 434  : 		return true;

  011d4	c7 45 d8 01 00
	00 00		 mov	 DWORD PTR $T203263[ebp], 1
  011db	c7 45 fc ff ff
	ff ff		 mov	 DWORD PTR __$EHRec$[ebp+8], -1
  011e2	8d 4d e0	 lea	 ecx, DWORD PTR _pItem$[ebp]
  011e5	e8 00 00 00 00	 call	 ??1CPaneBase@ETSLayoutMgr@@QAE@XZ ; ETSLayoutMgr::CPaneBase::~CPaneBase
  011ea	8b 45 d8	 mov	 eax, DWORD PTR $T203263[ebp]
  011ed	eb 19		 jmp	 SHORT $L201017
$L201026:

; 435  : 	return false;

  011ef	c7 45 d4 00 00
	00 00		 mov	 DWORD PTR $T203264[ebp], 0
  011f6	c7 45 fc ff ff
	ff ff		 mov	 DWORD PTR __$EHRec$[ebp+8], -1
  011fd	8d 4d e0	 lea	 ecx, DWORD PTR _pItem$[ebp]
  01200	e8 00 00 00 00	 call	 ??1CPaneBase@ETSLayoutMgr@@QAE@XZ ; ETSLayoutMgr::CPaneBase::~CPaneBase
  01205	8b 45 d4	 mov	 eax, DWORD PTR $T203264[ebp]
$L201017:

; 436  : }

  01208	8b 4d f4	 mov	 ecx, DWORD PTR __$EHRec$[ebp]
  0120b	64 89 0d 00 00
	00 00		 mov	 DWORD PTR fs:__except_list, ecx
  01212	8b e5		 mov	 esp, ebp
  01214	5d		 pop	 ebp
  01215	c3		 ret	 0
_TEXT	ENDS
text$x	SEGMENT
$L203265:
  000eb	8d 4d e0	 lea	 ecx, DWORD PTR _pItem$[ebp]
  000ee	e9 00 00 00 00	 jmp	 ??1CPaneBase@ETSLayoutMgr@@QAE@XZ ; ETSLayoutMgr::CPaneBase::~CPaneBase
__ehhandler$?IsClosed@PaneSplitter@ETSLayoutMgr@@QAEHXZ:
  000f3	b8 00 00 00 00	 mov	 eax, OFFSET FLAT:$T203267
  000f8	e9 00 00 00 00	 jmp	 ___CxxFrameHandler
text$x	ENDS
?IsClosed@PaneSplitter@ETSLayoutMgr@@QAEHXZ ENDP	; ETSLayoutMgr::PaneSplitter::IsClosed
EXTRN	?GetSplSize@ETSSplitter@@QAEHXZ:NEAR		; ETSSplitter::GetSplSize
EXTRN	?addPane@Pane@ETSLayoutMgr@@UAE_NVCPaneBase@2@@Z:NEAR ; ETSLayoutMgr::Pane::addPane
EXTRN	?addPane@Pane@ETSLayoutMgr@@UAE_NVCPane@2@W4layResizeMode@2@H@Z:NEAR ; ETSLayoutMgr::Pane::addPane
EXTRN	?item@ETSLayoutMgr@@QAE?AVCPaneBase@1@PAVCWnd@@W4layResizeMode@1@HHHH@Z:NEAR ; ETSLayoutMgr::item
EXTRN	??0CPane@ETSLayoutMgr@@QAE@ABV01@@Z:NEAR	; ETSLayoutMgr::CPane::CPane
EXTRN	??1CPane@ETSLayoutMgr@@QAE@XZ:NEAR		; ETSLayoutMgr::CPane::~CPane
xdata$x	SEGMENT
$T203282 DD	0ffffffffH
	DD	FLAT:$L203275
$T203280 DD	019930520H
	DD	01H
	DD	FLAT:$T203282
	DD	2 DUP(00H)
	DD	2 DUP(00H)
; Function compile flags: /Odt
xdata$x	ENDS
_TEXT	SEGMENT
tv192 = -44						; size = 4
tv188 = -40						; size = 4
tv186 = -36						; size = 4
_this$ = -32						; size = 4
$T203274 = -25						; size = 1
$T203273 = -24						; size = 4
$T203272 = -20						; size = 4
$T203271 = -16						; size = 4
__$EHRec$ = -12						; size = 12
_pSubpane$ = 8						; size = 4
_modeResize$ = 12					; size = 4
_sizeSecondary$ = 16					; size = 4
?addPane@PaneSplitter@ETSLayoutMgr@@UAE_NVCPane@2@W4layResizeMode@2@H@Z PROC NEAR ; ETSLayoutMgr::PaneSplitter::addPane
; _this$ = ecx

; 439  : {

  01220	55		 push	 ebp
  01221	8b ec		 mov	 ebp, esp
  01223	6a ff		 push	 -1
  01225	68 00 00 00 00	 push	 __ehhandler$?addPane@PaneSplitter@ETSLayoutMgr@@UAE_NVCPane@2@W4layResizeMode@2@H@Z
  0122a	64 a1 00 00 00
	00		 mov	 eax, DWORD PTR fs:__except_list
  01230	50		 push	 eax
  01231	64 89 25 00 00
	00 00		 mov	 DWORD PTR fs:__except_list, esp
  01238	83 ec 20	 sub	 esp, 32			; 00000020H
  0123b	56		 push	 esi
  0123c	89 4d e0	 mov	 DWORD PTR _this$[ebp], ecx
  0123f	c7 45 fc 00 00
	00 00		 mov	 DWORD PTR __$EHRec$[ebp+8], 0

; 440  : 	if(this->m_paneItems.GetSize() == 1)

  01246	8b 4d e0	 mov	 ecx, DWORD PTR _this$[ebp]
  01249	83 c1 64	 add	 ecx, 100		; 00000064H
  0124c	e8 00 00 00 00	 call	 ?GetSize@?$CArray@VCPaneBase@ETSLayoutMgr@@V12@@@QBEHXZ ; CArray<ETSLayoutMgr::CPaneBase,ETSLayoutMgr::CPaneBase>::GetSize
  01251	83 f8 01	 cmp	 eax, 1
  01254	0f 85 a1 00 00
	00		 jne	 $L201035

; 441  : 	{
; 442  : 		if(this->m_Orientation == ETSLayoutMgr::HORIZONTAL)

  0125a	8b 45 e0	 mov	 eax, DWORD PTR _this$[ebp]
  0125d	83 78 60 00	 cmp	 DWORD PTR [eax+96], 0
  01261	75 4d		 jne	 SHORT $L201036

; 443  : 			Pane::addPane(this->m_pMgr->item((CWnd*)this->m_pSpl, ABSOLUTE_HORZ , m_pSpl->GetSplSize(), 0,m_pSpl->GetSplSize()));

  01263	51		 push	 ecx
  01264	8b f4		 mov	 esi, esp
  01266	89 65 f0	 mov	 DWORD PTR $T203271[ebp], esp
  01269	6a ff		 push	 -1
  0126b	8b 4d e0	 mov	 ecx, DWORD PTR _this$[ebp]
  0126e	8b 89 94 00 00
	00		 mov	 ecx, DWORD PTR [ecx+148]
  01274	e8 00 00 00 00	 call	 ?GetSplSize@ETSSplitter@@QAEHXZ ; ETSSplitter::GetSplSize
  01279	50		 push	 eax
  0127a	6a 00		 push	 0
  0127c	8b 55 e0	 mov	 edx, DWORD PTR _this$[ebp]
  0127f	8b 8a 94 00 00
	00		 mov	 ecx, DWORD PTR [edx+148]
  01285	e8 00 00 00 00	 call	 ?GetSplSize@ETSSplitter@@QAEHXZ ; ETSSplitter::GetSplSize
  0128a	50		 push	 eax
  0128b	6a 01		 push	 1
  0128d	8b 45 e0	 mov	 eax, DWORD PTR _this$[ebp]
  01290	8b 88 94 00 00
	00		 mov	 ecx, DWORD PTR [eax+148]
  01296	51		 push	 ecx
  01297	56		 push	 esi
  01298	8b 55 e0	 mov	 edx, DWORD PTR _this$[ebp]
  0129b	8b 4a 38	 mov	 ecx, DWORD PTR [edx+56]
  0129e	e8 00 00 00 00	 call	 ?item@ETSLayoutMgr@@QAE?AVCPaneBase@1@PAVCWnd@@W4layResizeMode@1@HHHH@Z ; ETSLayoutMgr::item
  012a3	89 45 dc	 mov	 DWORD PTR tv186[ebp], eax
  012a6	8b 4d e0	 mov	 ecx, DWORD PTR _this$[ebp]
  012a9	e8 00 00 00 00	 call	 ?addPane@Pane@ETSLayoutMgr@@UAE_NVCPaneBase@2@@Z ; ETSLayoutMgr::Pane::addPane

; 444  : 		else

  012ae	eb 4b		 jmp	 SHORT $L201035
$L201036:

; 445  : 			Pane::addPane(this->m_pMgr->item((CWnd*)this->m_pSpl, ABSOLUTE_VERT , 0, m_pSpl->GetSplSize(),0,m_pSpl->GetSplSize()));

  012b0	8b 45 e0	 mov	 eax, DWORD PTR _this$[ebp]
  012b3	8b 88 94 00 00
	00		 mov	 ecx, DWORD PTR [eax+148]
  012b9	e8 00 00 00 00	 call	 ?GetSplSize@ETSSplitter@@QAEHXZ ; ETSSplitter::GetSplSize
  012be	51		 push	 ecx
  012bf	8b f4		 mov	 esi, esp
  012c1	89 65 ec	 mov	 DWORD PTR $T203272[ebp], esp
  012c4	50		 push	 eax
  012c5	6a 00		 push	 0
  012c7	8b 4d e0	 mov	 ecx, DWORD PTR _this$[ebp]
  012ca	8b 89 94 00 00
	00		 mov	 ecx, DWORD PTR [ecx+148]
  012d0	e8 00 00 00 00	 call	 ?GetSplSize@ETSSplitter@@QAEHXZ ; ETSSplitter::GetSplSize
  012d5	50		 push	 eax
  012d6	6a 00		 push	 0
  012d8	6a 04		 push	 4
  012da	8b 55 e0	 mov	 edx, DWORD PTR _this$[ebp]
  012dd	8b 82 94 00 00
	00		 mov	 eax, DWORD PTR [edx+148]
  012e3	50		 push	 eax
  012e4	56		 push	 esi
  012e5	8b 4d e0	 mov	 ecx, DWORD PTR _this$[ebp]
  012e8	8b 49 38	 mov	 ecx, DWORD PTR [ecx+56]
  012eb	e8 00 00 00 00	 call	 ?item@ETSLayoutMgr@@QAE?AVCPaneBase@1@PAVCWnd@@W4layResizeMode@1@HHHH@Z ; ETSLayoutMgr::item
  012f0	89 45 d8	 mov	 DWORD PTR tv188[ebp], eax
  012f3	8b 4d e0	 mov	 ecx, DWORD PTR _this$[ebp]
  012f6	e8 00 00 00 00	 call	 ?addPane@Pane@ETSLayoutMgr@@UAE_NVCPaneBase@2@@Z ; ETSLayoutMgr::Pane::addPane
$L201035:

; 446  : 	}
; 447  : 	Pane::addPane(pSubpane, modeResize, sizeSecondary);	

  012fb	8b 55 10	 mov	 edx, DWORD PTR _sizeSecondary$[ebp]
  012fe	52		 push	 edx
  012ff	8b 45 0c	 mov	 eax, DWORD PTR _modeResize$[ebp]
  01302	50		 push	 eax
  01303	51		 push	 ecx
  01304	8b cc		 mov	 ecx, esp
  01306	89 65 e8	 mov	 DWORD PTR $T203273[ebp], esp
  01309	8d 55 08	 lea	 edx, DWORD PTR _pSubpane$[ebp]
  0130c	52		 push	 edx
  0130d	e8 00 00 00 00	 call	 ??0CPane@ETSLayoutMgr@@QAE@ABV01@@Z ; ETSLayoutMgr::CPane::CPane
  01312	89 45 d4	 mov	 DWORD PTR tv192[ebp], eax
  01315	8b 4d e0	 mov	 ecx, DWORD PTR _this$[ebp]
  01318	e8 00 00 00 00	 call	 ?addPane@Pane@ETSLayoutMgr@@UAE_NVCPane@2@W4layResizeMode@2@H@Z ; ETSLayoutMgr::Pane::addPane

; 448  : 
; 449  : 	return true;

  0131d	c6 45 e7 01	 mov	 BYTE PTR $T203274[ebp], 1
  01321	c7 45 fc ff ff
	ff ff		 mov	 DWORD PTR __$EHRec$[ebp+8], -1
  01328	8d 4d 08	 lea	 ecx, DWORD PTR _pSubpane$[ebp]
  0132b	e8 00 00 00 00	 call	 ??1CPane@ETSLayoutMgr@@QAE@XZ ; ETSLayoutMgr::CPane::~CPane
  01330	8a 45 e7	 mov	 al, BYTE PTR $T203274[ebp]

; 450  : }

  01333	8b 4d f4	 mov	 ecx, DWORD PTR __$EHRec$[ebp]
  01336	64 89 0d 00 00
	00 00		 mov	 DWORD PTR fs:__except_list, ecx
  0133d	5e		 pop	 esi
  0133e	8b e5		 mov	 esp, ebp
  01340	5d		 pop	 ebp
  01341	c2 0c 00	 ret	 12			; 0000000cH
_TEXT	ENDS
text$x	SEGMENT
$L203275:
  000fd	8d 4d 08	 lea	 ecx, DWORD PTR _pSubpane$[ebp]
  00100	e9 00 00 00 00	 jmp	 ??1CPane@ETSLayoutMgr@@QAE@XZ ; ETSLayoutMgr::CPane::~CPane
__ehhandler$?addPane@PaneSplitter@ETSLayoutMgr@@UAE_NVCPane@2@W4layResizeMode@2@H@Z:
  00105	b8 00 00 00 00	 mov	 eax, OFFSET FLAT:$T203280
  0010a	e9 00 00 00 00	 jmp	 ___CxxFrameHandler
text$x	ENDS
?addPane@PaneSplitter@ETSLayoutMgr@@UAE_NVCPane@2@W4layResizeMode@2@H@Z ENDP ; ETSLayoutMgr::PaneSplitter::addPane
xdata$x	SEGMENT
$T203295 DD	0ffffffffH
	DD	FLAT:$L203288
$T203293 DD	019930520H
	DD	01H
	DD	FLAT:$T203295
	DD	2 DUP(00H)
	DD	2 DUP(00H)
; Function compile flags: /Odt
xdata$x	ENDS
_TEXT	SEGMENT
tv188 = -44						; size = 4
tv186 = -40						; size = 4
tv184 = -36						; size = 4
_this$ = -32						; size = 4
$T203287 = -25						; size = 1
$T203286 = -24						; size = 4
$T203285 = -20						; size = 4
$T203284 = -16						; size = 4
__$EHRec$ = -12						; size = 12
_pItem$ = 8						; size = 4
?addPane@PaneSplitter@ETSLayoutMgr@@UAE_NVCPaneBase@2@@Z PROC NEAR ; ETSLayoutMgr::PaneSplitter::addPane
; _this$ = ecx

; 453  : {

  01350	55		 push	 ebp
  01351	8b ec		 mov	 ebp, esp
  01353	6a ff		 push	 -1
  01355	68 00 00 00 00	 push	 __ehhandler$?addPane@PaneSplitter@ETSLayoutMgr@@UAE_NVCPaneBase@2@@Z
  0135a	64 a1 00 00 00
	00		 mov	 eax, DWORD PTR fs:__except_list
  01360	50		 push	 eax
  01361	64 89 25 00 00
	00 00		 mov	 DWORD PTR fs:__except_list, esp
  01368	83 ec 20	 sub	 esp, 32			; 00000020H
  0136b	56		 push	 esi
  0136c	89 4d e0	 mov	 DWORD PTR _this$[ebp], ecx
  0136f	c7 45 fc 00 00
	00 00		 mov	 DWORD PTR __$EHRec$[ebp+8], 0

; 454  : 	if(this->m_paneItems.GetSize() == 1)

  01376	8b 4d e0	 mov	 ecx, DWORD PTR _this$[ebp]
  01379	83 c1 64	 add	 ecx, 100		; 00000064H
  0137c	e8 00 00 00 00	 call	 ?GetSize@?$CArray@VCPaneBase@ETSLayoutMgr@@V12@@@QBEHXZ ; CArray<ETSLayoutMgr::CPaneBase,ETSLayoutMgr::CPaneBase>::GetSize
  01381	83 f8 01	 cmp	 eax, 1
  01384	0f 85 a1 00 00
	00		 jne	 $L201050

; 455  : 	{
; 456  : 		if(this->m_Orientation == ETSLayoutMgr::HORIZONTAL)

  0138a	8b 45 e0	 mov	 eax, DWORD PTR _this$[ebp]
  0138d	83 78 60 00	 cmp	 DWORD PTR [eax+96], 0
  01391	75 4d		 jne	 SHORT $L201051

; 457  : 			Pane::addPane(this->m_pMgr->item((CWnd*)this->m_pSpl, ABSOLUTE_HORZ , m_pSpl->GetSplSize(), 0,m_pSpl->GetSplSize()));

  01393	51		 push	 ecx
  01394	8b f4		 mov	 esi, esp
  01396	89 65 f0	 mov	 DWORD PTR $T203284[ebp], esp
  01399	6a ff		 push	 -1
  0139b	8b 4d e0	 mov	 ecx, DWORD PTR _this$[ebp]
  0139e	8b 89 94 00 00
	00		 mov	 ecx, DWORD PTR [ecx+148]
  013a4	e8 00 00 00 00	 call	 ?GetSplSize@ETSSplitter@@QAEHXZ ; ETSSplitter::GetSplSize
  013a9	50		 push	 eax
  013aa	6a 00		 push	 0
  013ac	8b 55 e0	 mov	 edx, DWORD PTR _this$[ebp]
  013af	8b 8a 94 00 00
	00		 mov	 ecx, DWORD PTR [edx+148]
  013b5	e8 00 00 00 00	 call	 ?GetSplSize@ETSSplitter@@QAEHXZ ; ETSSplitter::GetSplSize
  013ba	50		 push	 eax
  013bb	6a 01		 push	 1
  013bd	8b 45 e0	 mov	 eax, DWORD PTR _this$[ebp]
  013c0	8b 88 94 00 00
	00		 mov	 ecx, DWORD PTR [eax+148]
  013c6	51		 push	 ecx
  013c7	56		 push	 esi
  013c8	8b 55 e0	 mov	 edx, DWORD PTR _this$[ebp]
  013cb	8b 4a 38	 mov	 ecx, DWORD PTR [edx+56]
  013ce	e8 00 00 00 00	 call	 ?item@ETSLayoutMgr@@QAE?AVCPaneBase@1@PAVCWnd@@W4layResizeMode@1@HHHH@Z ; ETSLayoutMgr::item
  013d3	89 45 dc	 mov	 DWORD PTR tv184[ebp], eax
  013d6	8b 4d e0	 mov	 ecx, DWORD PTR _this$[ebp]
  013d9	e8 00 00 00 00	 call	 ?addPane@Pane@ETSLayoutMgr@@UAE_NVCPaneBase@2@@Z ; ETSLayoutMgr::Pane::addPane

; 458  : 		else

  013de	eb 4b		 jmp	 SHORT $L201050
$L201051:

; 459  : 			Pane::addPane(this->m_pMgr->item((CWnd*)this->m_pSpl, ABSOLUTE_VERT , 0,m_pSpl->GetSplSize(),0,m_pSpl->GetSplSize()));

  013e0	8b 45 e0	 mov	 eax, DWORD PTR _this$[ebp]
  013e3	8b 88 94 00 00
	00		 mov	 ecx, DWORD PTR [eax+148]
  013e9	e8 00 00 00 00	 call	 ?GetSplSize@ETSSplitter@@QAEHXZ ; ETSSplitter::GetSplSize
  013ee	51		 push	 ecx
  013ef	8b f4		 mov	 esi, esp
  013f1	89 65 ec	 mov	 DWORD PTR $T203285[ebp], esp
  013f4	50		 push	 eax
  013f5	6a 00		 push	 0
  013f7	8b 4d e0	 mov	 ecx, DWORD PTR _this$[ebp]
  013fa	8b 89 94 00 00
	00		 mov	 ecx, DWORD PTR [ecx+148]
  01400	e8 00 00 00 00	 call	 ?GetSplSize@ETSSplitter@@QAEHXZ ; ETSSplitter::GetSplSize
  01405	50		 push	 eax
  01406	6a 00		 push	 0
  01408	6a 04		 push	 4
  0140a	8b 55 e0	 mov	 edx, DWORD PTR _this$[ebp]
  0140d	8b 82 94 00 00
	00		 mov	 eax, DWORD PTR [edx+148]
  01413	50		 push	 eax
  01414	56		 push	 esi
  01415	8b 4d e0	 mov	 ecx, DWORD PTR _this$[ebp]
  01418	8b 49 38	 mov	 ecx, DWORD PTR [ecx+56]
  0141b	e8 00 00 00 00	 call	 ?item@ETSLayoutMgr@@QAE?AVCPaneBase@1@PAVCWnd@@W4layResizeMode@1@HHHH@Z ; ETSLayoutMgr::item
  01420	89 45 d8	 mov	 DWORD PTR tv186[ebp], eax
  01423	8b 4d e0	 mov	 ecx, DWORD PTR _this$[ebp]
  01426	e8 00 00 00 00	 call	 ?addPane@Pane@ETSLayoutMgr@@UAE_NVCPaneBase@2@@Z ; ETSLayoutMgr::Pane::addPane
$L201050:

; 460  : 	}
; 461  : 	Pane::addPane(pItem);

  0142b	51		 push	 ecx
  0142c	8b cc		 mov	 ecx, esp
  0142e	89 65 e8	 mov	 DWORD PTR $T203286[ebp], esp
  01431	8d 55 08	 lea	 edx, DWORD PTR _pItem$[ebp]
  01434	52		 push	 edx
  01435	e8 00 00 00 00	 call	 ??0CPaneBase@ETSLayoutMgr@@QAE@ABV01@@Z ; ETSLayoutMgr::CPaneBase::CPaneBase
  0143a	89 45 d4	 mov	 DWORD PTR tv188[ebp], eax
  0143d	8b 4d e0	 mov	 ecx, DWORD PTR _this$[ebp]
  01440	e8 00 00 00 00	 call	 ?addPane@Pane@ETSLayoutMgr@@UAE_NVCPaneBase@2@@Z ; ETSLayoutMgr::Pane::addPane

; 462  : 
; 463  : 	return true;

  01445	c6 45 e7 01	 mov	 BYTE PTR $T203287[ebp], 1
  01449	c7 45 fc ff ff
	ff ff		 mov	 DWORD PTR __$EHRec$[ebp+8], -1
  01450	8d 4d 08	 lea	 ecx, DWORD PTR _pItem$[ebp]
  01453	e8 00 00 00 00	 call	 ??1CPaneBase@ETSLayoutMgr@@QAE@XZ ; ETSLayoutMgr::CPaneBase::~CPaneBase
  01458	8a 45 e7	 mov	 al, BYTE PTR $T203287[ebp]

; 464  : }

  0145b	8b 4d f4	 mov	 ecx, DWORD PTR __$EHRec$[ebp]
  0145e	64 89 0d 00 00
	00 00		 mov	 DWORD PTR fs:__except_list, ecx
  01465	5e		 pop	 esi
  01466	8b e5		 mov	 esp, ebp
  01468	5d		 pop	 ebp
  01469	c2 04 00	 ret	 4
_TEXT	ENDS
text$x	SEGMENT
$L203288:
  0010f	8d 4d 08	 lea	 ecx, DWORD PTR _pItem$[ebp]
  00112	e9 00 00 00 00	 jmp	 ??1CPaneBase@ETSLayoutMgr@@QAE@XZ ; ETSLayoutMgr::CPaneBase::~CPaneBase
__ehhandler$?addPane@PaneSplitter@ETSLayoutMgr@@UAE_NVCPaneBase@2@@Z:
  00117	b8 00 00 00 00	 mov	 eax, OFFSET FLAT:$T203293
  0011c	e9 00 00 00 00	 jmp	 ___CxxFrameHandler
text$x	ENDS
?addPane@PaneSplitter@ETSLayoutMgr@@UAE_NVCPaneBase@2@@Z ENDP ; ETSLayoutMgr::PaneSplitter::addPane
; Function compile flags: /Odt
_TEXT	SEGMENT
tv74 = -12						; size = 4
_this$ = -8						; size = 4
_modeSize$ = -4						; size = 4
_pPane$ = 8						; size = 4
_rc$ = 12						; size = 4
_bRedraw$ = 16						; size = 1
?ForceResizeTo@PaneSplitter@ETSLayoutMgr@@AAEXAAVCPaneBase@2@AAVCRect@@_N@Z PROC NEAR ; ETSLayoutMgr::PaneSplitter::ForceResizeTo
; _this$ = ecx

; 469  : {

  01470	55		 push	 ebp
  01471	8b ec		 mov	 ebp, esp
  01473	83 ec 0c	 sub	 esp, 12			; 0000000cH
  01476	89 4d f8	 mov	 DWORD PTR _this$[ebp], ecx

; 470  : 	DWORD modeSize = pPane->modeResize();

  01479	8b 4d 08	 mov	 ecx, DWORD PTR _pPane$[ebp]
  0147c	e8 00 00 00 00	 call	 ??CCPaneBase@ETSLayoutMgr@@QBEPAVPaneBase@1@XZ ; ETSLayoutMgr::CPaneBase::operator->
  01481	8b c8		 mov	 ecx, eax
  01483	e8 00 00 00 00	 call	 ?modeResize@PaneBase@ETSLayoutMgr@@QAEKXZ ; ETSLayoutMgr::PaneBase::modeResize
  01488	89 45 fc	 mov	 DWORD PTR _modeSize$[ebp], eax

; 471  : 	pPane->m_modeResize = GREEDY;

  0148b	8b 4d 08	 mov	 ecx, DWORD PTR _pPane$[ebp]
  0148e	e8 00 00 00 00	 call	 ??CCPaneBase@ETSLayoutMgr@@QBEPAVPaneBase@1@XZ ; ETSLayoutMgr::CPaneBase::operator->
  01493	c7 40 18 00 00
	00 00		 mov	 DWORD PTR [eax+24], 0

; 472  : 	pPane->resizeTo(rc, bRedraw );

  0149a	8b 4d 08	 mov	 ecx, DWORD PTR _pPane$[ebp]
  0149d	e8 00 00 00 00	 call	 ??CCPaneBase@ETSLayoutMgr@@QBEPAVPaneBase@1@XZ ; ETSLayoutMgr::CPaneBase::operator->
  014a2	89 45 f4	 mov	 DWORD PTR tv74[ebp], eax
  014a5	6a 00		 push	 0
  014a7	8a 45 10	 mov	 al, BYTE PTR _bRedraw$[ebp]
  014aa	50		 push	 eax
  014ab	8b 4d 0c	 mov	 ecx, DWORD PTR _rc$[ebp]
  014ae	51		 push	 ecx
  014af	8b 55 f4	 mov	 edx, DWORD PTR tv74[ebp]
  014b2	8b 02		 mov	 eax, DWORD PTR [edx]
  014b4	8b 4d f4	 mov	 ecx, DWORD PTR tv74[ebp]
  014b7	ff 50 18	 call	 DWORD PTR [eax+24]

; 473  : 	pPane->m_modeResize = modeSize;

  014ba	8b 4d 08	 mov	 ecx, DWORD PTR _pPane$[ebp]
  014bd	e8 00 00 00 00	 call	 ??CCPaneBase@ETSLayoutMgr@@QBEPAVPaneBase@1@XZ ; ETSLayoutMgr::CPaneBase::operator->
  014c2	8b 4d fc	 mov	 ecx, DWORD PTR _modeSize$[ebp]
  014c5	89 48 18	 mov	 DWORD PTR [eax+24], ecx

; 474  : };

  014c8	8b e5		 mov	 esp, ebp
  014ca	5d		 pop	 ebp
  014cb	c2 0c 00	 ret	 12			; 0000000cH
?ForceResizeTo@PaneSplitter@ETSLayoutMgr@@AAEXAAVCPaneBase@2@AAVCRect@@_N@Z ENDP ; ETSLayoutMgr::PaneSplitter::ForceResizeTo
_TEXT	ENDS
PUBLIC	??CCPaneMulti@ETSLayoutMgr@@QBEPAVPaneMulti@1@XZ ; ETSLayoutMgr::CPaneMulti::operator->
; Function compile flags: /Odt
_TEXT	SEGMENT
_this$ = -4						; size = 4
??CCPaneMulti@ETSLayoutMgr@@QBEPAVPaneMulti@1@XZ PROC NEAR ; ETSLayoutMgr::CPaneMulti::operator->
; _this$ = ecx

; 480  : {

  014d0	55		 push	 ebp
  014d1	8b ec		 mov	 ebp, esp
  014d3	51		 push	 ecx
  014d4	89 4d fc	 mov	 DWORD PTR _this$[ebp], ecx

; 481  : 	ASSERT(m_pPaneHolder);
; 482  : 
; 483  : 	if(!m_pPaneHolder)

  014d7	8b 45 fc	 mov	 eax, DWORD PTR _this$[ebp]
  014da	83 38 00	 cmp	 DWORD PTR [eax], 0
  014dd	75 04		 jne	 SHORT $L201072

; 484  : 		return 0;

  014df	33 c0		 xor	 eax, eax
  014e1	eb 07		 jmp	 SHORT $L201070
$L201072:

; 485  : 
; 486  : 	return reinterpret_cast<PaneMulti*>(m_pPaneHolder->m_pPane);

  014e3	8b 4d fc	 mov	 ecx, DWORD PTR _this$[ebp]
  014e6	8b 11		 mov	 edx, DWORD PTR [ecx]
  014e8	8b 02		 mov	 eax, DWORD PTR [edx]
$L201070:

; 487  : }

  014ea	8b e5		 mov	 esp, ebp
  014ec	5d		 pop	 ebp
  014ed	c3		 ret	 0
??CCPaneMulti@ETSLayoutMgr@@QBEPAVPaneMulti@1@XZ ENDP	; ETSLayoutMgr::CPaneMulti::operator->
_TEXT	ENDS
PUBLIC	?GetPane@CPane@ETSLayoutMgr@@QAEPAVPane@2@XZ	; ETSLayoutMgr::CPane::GetPane
PUBLIC	??6CPaneMulti@ETSLayoutMgr@@QAEAAV01@VCPane@1@@Z ; ETSLayoutMgr::CPaneMulti::operator<<
EXTRN	??CCPane@ETSLayoutMgr@@QBEPAVPane@1@XZ:NEAR	; ETSLayoutMgr::CPane::operator->
xdata$x	SEGMENT
$T203306 DD	0ffffffffH
	DD	FLAT:$L203301
	DD	00H
	DD	FLAT:$L203302
$T203304 DD	019930520H
	DD	02H
	DD	FLAT:$T203306
	DD	2 DUP(00H)
	DD	2 DUP(00H)
; Function compile flags: /Odt
xdata$x	ENDS
_TEXT	SEGMENT
tv68 = -36						; size = 4
tv129 = -32						; size = 4
tv131 = -28						; size = 4
_this$ = -24						; size = 4
$T203300 = -20						; size = 4
$T203299 = -16						; size = 4
__$EHRec$ = -12						; size = 12
_pPane$ = 8						; size = 4
??6CPaneMulti@ETSLayoutMgr@@QAEAAV01@VCPane@1@@Z PROC NEAR ; ETSLayoutMgr::CPaneMulti::operator<<
; _this$ = ecx

; 490  : {

  014f0	55		 push	 ebp
  014f1	8b ec		 mov	 ebp, esp
  014f3	6a ff		 push	 -1
  014f5	68 00 00 00 00	 push	 __ehhandler$??6CPaneMulti@ETSLayoutMgr@@QAEAAV01@VCPane@1@@Z
  014fa	64 a1 00 00 00
	00		 mov	 eax, DWORD PTR fs:__except_list
  01500	50		 push	 eax
  01501	64 89 25 00 00
	00 00		 mov	 DWORD PTR fs:__except_list, esp
  01508	83 ec 18	 sub	 esp, 24			; 00000018H
  0150b	89 4d e8	 mov	 DWORD PTR _this$[ebp], ecx
  0150e	c7 45 fc 00 00
	00 00		 mov	 DWORD PTR __$EHRec$[ebp+8], 0

; 491  : 	GetPane()->addPane( pPane, (ETSLayoutMgr::layResizeMode)pPane->m_modeResize, pPane->m_sizeSecondary);

  01515	8d 4d 08	 lea	 ecx, DWORD PTR _pPane$[ebp]
  01518	e8 00 00 00 00	 call	 ??CCPane@ETSLayoutMgr@@QBEPAVPane@1@XZ ; ETSLayoutMgr::CPane::operator->
  0151d	8b 40 78	 mov	 eax, DWORD PTR [eax+120]
  01520	50		 push	 eax
  01521	8d 4d 08	 lea	 ecx, DWORD PTR _pPane$[ebp]
  01524	e8 00 00 00 00	 call	 ??CCPane@ETSLayoutMgr@@QBEPAVPane@1@XZ ; ETSLayoutMgr::CPane::operator->
  01529	8b 48 18	 mov	 ecx, DWORD PTR [eax+24]
  0152c	51		 push	 ecx
  0152d	51		 push	 ecx
  0152e	8b cc		 mov	 ecx, esp
  01530	89 65 f0	 mov	 DWORD PTR $T203299[ebp], esp
  01533	8d 55 08	 lea	 edx, DWORD PTR _pPane$[ebp]
  01536	52		 push	 edx
  01537	e8 00 00 00 00	 call	 ??0CPane@ETSLayoutMgr@@QAE@ABV01@@Z ; ETSLayoutMgr::CPane::CPane
  0153c	89 45 e4	 mov	 DWORD PTR tv131[ebp], eax
  0153f	8b 45 e4	 mov	 eax, DWORD PTR tv131[ebp]
  01542	89 45 e0	 mov	 DWORD PTR tv129[ebp], eax
  01545	c6 45 fc 01	 mov	 BYTE PTR __$EHRec$[ebp+8], 1
  01549	8b 4d e8	 mov	 ecx, DWORD PTR _this$[ebp]
  0154c	e8 00 00 00 00	 call	 ?GetPane@CPane@ETSLayoutMgr@@QAEPAVPane@2@XZ ; ETSLayoutMgr::CPane::GetPane
  01551	89 45 dc	 mov	 DWORD PTR tv68[ebp], eax
  01554	8b 4d dc	 mov	 ecx, DWORD PTR tv68[ebp]
  01557	8b 11		 mov	 edx, DWORD PTR [ecx]
  01559	c6 45 fc 00	 mov	 BYTE PTR __$EHRec$[ebp+8], 0
  0155d	8b 4d dc	 mov	 ecx, DWORD PTR tv68[ebp]
  01560	ff 52 28	 call	 DWORD PTR [edx+40]

; 492  : 	return (*this);

  01563	8b 45 e8	 mov	 eax, DWORD PTR _this$[ebp]
  01566	89 45 ec	 mov	 DWORD PTR $T203300[ebp], eax
  01569	c7 45 fc ff ff
	ff ff		 mov	 DWORD PTR __$EHRec$[ebp+8], -1
  01570	8d 4d 08	 lea	 ecx, DWORD PTR _pPane$[ebp]
  01573	e8 00 00 00 00	 call	 ??1CPane@ETSLayoutMgr@@QAE@XZ ; ETSLayoutMgr::CPane::~CPane
  01578	8b 45 ec	 mov	 eax, DWORD PTR $T203300[ebp]

; 493  : }

  0157b	8b 4d f4	 mov	 ecx, DWORD PTR __$EHRec$[ebp]
  0157e	64 89 0d 00 00
	00 00		 mov	 DWORD PTR fs:__except_list, ecx
  01585	8b e5		 mov	 esp, ebp
  01587	5d		 pop	 ebp
  01588	c2 04 00	 ret	 4
_TEXT	ENDS
text$x	SEGMENT
$L203301:
  00121	8d 4d 08	 lea	 ecx, DWORD PTR _pPane$[ebp]
  00124	e9 00 00 00 00	 jmp	 ??1CPane@ETSLayoutMgr@@QAE@XZ ; ETSLayoutMgr::CPane::~CPane
$L203302:
  00129	8b 4d f0	 mov	 ecx, DWORD PTR $T203299[ebp]
  0012c	e9 00 00 00 00	 jmp	 ??1CPane@ETSLayoutMgr@@QAE@XZ ; ETSLayoutMgr::CPane::~CPane
__ehhandler$??6CPaneMulti@ETSLayoutMgr@@QAEAAV01@VCPane@1@@Z:
  00131	b8 00 00 00 00	 mov	 eax, OFFSET FLAT:$T203304
  00136	e9 00 00 00 00	 jmp	 ___CxxFrameHandler
text$x	ENDS
??6CPaneMulti@ETSLayoutMgr@@QAEAAV01@VCPane@1@@Z ENDP	; ETSLayoutMgr::CPaneMulti::operator<<
; Function compile flags: /Odt
; File d:\boxgit\playbox\playbox\dev\prj\playbox\src\layoutmgr\etslayout.h
;	COMDAT ?GetPane@CPane@ETSLayoutMgr@@QAEPAVPane@2@XZ
_TEXT	SEGMENT
_this$ = -4						; size = 4
?GetPane@CPane@ETSLayoutMgr@@QAEPAVPane@2@XZ PROC NEAR	; ETSLayoutMgr::CPane::GetPane, COMDAT
; _this$ = ecx

; 410  : 		Pane* GetPane()			{ return operator->(); }

  00000	55		 push	 ebp
  00001	8b ec		 mov	 ebp, esp
  00003	51		 push	 ecx
  00004	89 4d fc	 mov	 DWORD PTR _this$[ebp], ecx
  00007	8b 4d fc	 mov	 ecx, DWORD PTR _this$[ebp]
  0000a	e8 00 00 00 00	 call	 ??CCPane@ETSLayoutMgr@@QBEPAVPane@1@XZ ; ETSLayoutMgr::CPane::operator->
  0000f	8b e5		 mov	 esp, ebp
  00011	5d		 pop	 ebp
  00012	c3		 ret	 0
?GetPane@CPane@ETSLayoutMgr@@QAEPAVPane@2@XZ ENDP	; ETSLayoutMgr::CPane::GetPane
_TEXT	ENDS
PUBLIC	??6CPaneMulti@ETSLayoutMgr@@QAEAAV01@VCPaneBase@1@@Z ; ETSLayoutMgr::CPaneMulti::operator<<
xdata$x	SEGMENT
$T203317 DD	0ffffffffH
	DD	FLAT:$L203312
	DD	00H
	DD	FLAT:$L203313
$T203315 DD	019930520H
	DD	02H
	DD	FLAT:$T203317
	DD	2 DUP(00H)
	DD	2 DUP(00H)
; Function compile flags: /Odt
; File d:\boxgit\playbox\playbox\dev\prj\playbox\src\layoutmgr\etslayoutex.cpp
xdata$x	ENDS
_TEXT	SEGMENT
tv68 = -36						; size = 4
tv87 = -32						; size = 4
tv89 = -28						; size = 4
_this$ = -24						; size = 4
$T203311 = -20						; size = 4
$T203310 = -16						; size = 4
__$EHRec$ = -12						; size = 12
_pItem$ = 8						; size = 4
??6CPaneMulti@ETSLayoutMgr@@QAEAAV01@VCPaneBase@1@@Z PROC NEAR ; ETSLayoutMgr::CPaneMulti::operator<<
; _this$ = ecx

; 496  : {

  01590	55		 push	 ebp
  01591	8b ec		 mov	 ebp, esp
  01593	6a ff		 push	 -1
  01595	68 00 00 00 00	 push	 __ehhandler$??6CPaneMulti@ETSLayoutMgr@@QAEAAV01@VCPaneBase@1@@Z
  0159a	64 a1 00 00 00
	00		 mov	 eax, DWORD PTR fs:__except_list
  015a0	50		 push	 eax
  015a1	64 89 25 00 00
	00 00		 mov	 DWORD PTR fs:__except_list, esp
  015a8	83 ec 18	 sub	 esp, 24			; 00000018H
  015ab	89 4d e8	 mov	 DWORD PTR _this$[ebp], ecx
  015ae	c7 45 fc 00 00
	00 00		 mov	 DWORD PTR __$EHRec$[ebp+8], 0

; 497  : 	GetPane()->addPane( pItem );

  015b5	51		 push	 ecx
  015b6	8b cc		 mov	 ecx, esp
  015b8	89 65 f0	 mov	 DWORD PTR $T203310[ebp], esp
  015bb	8d 45 08	 lea	 eax, DWORD PTR _pItem$[ebp]
  015be	50		 push	 eax
  015bf	e8 00 00 00 00	 call	 ??0CPaneBase@ETSLayoutMgr@@QAE@ABV01@@Z ; ETSLayoutMgr::CPaneBase::CPaneBase
  015c4	89 45 e4	 mov	 DWORD PTR tv89[ebp], eax
  015c7	8b 4d e4	 mov	 ecx, DWORD PTR tv89[ebp]
  015ca	89 4d e0	 mov	 DWORD PTR tv87[ebp], ecx
  015cd	c6 45 fc 01	 mov	 BYTE PTR __$EHRec$[ebp+8], 1
  015d1	8b 4d e8	 mov	 ecx, DWORD PTR _this$[ebp]
  015d4	e8 00 00 00 00	 call	 ?GetPane@CPane@ETSLayoutMgr@@QAEPAVPane@2@XZ ; ETSLayoutMgr::CPane::GetPane
  015d9	89 45 dc	 mov	 DWORD PTR tv68[ebp], eax
  015dc	8b 55 dc	 mov	 edx, DWORD PTR tv68[ebp]
  015df	8b 02		 mov	 eax, DWORD PTR [edx]
  015e1	c6 45 fc 00	 mov	 BYTE PTR __$EHRec$[ebp+8], 0
  015e5	8b 4d dc	 mov	 ecx, DWORD PTR tv68[ebp]
  015e8	ff 50 2c	 call	 DWORD PTR [eax+44]

; 498  : 	return (*this);

  015eb	8b 4d e8	 mov	 ecx, DWORD PTR _this$[ebp]
  015ee	89 4d ec	 mov	 DWORD PTR $T203311[ebp], ecx
  015f1	c7 45 fc ff ff
	ff ff		 mov	 DWORD PTR __$EHRec$[ebp+8], -1
  015f8	8d 4d 08	 lea	 ecx, DWORD PTR _pItem$[ebp]
  015fb	e8 00 00 00 00	 call	 ??1CPaneBase@ETSLayoutMgr@@QAE@XZ ; ETSLayoutMgr::CPaneBase::~CPaneBase
  01600	8b 45 ec	 mov	 eax, DWORD PTR $T203311[ebp]

; 499  : }

  01603	8b 4d f4	 mov	 ecx, DWORD PTR __$EHRec$[ebp]
  01606	64 89 0d 00 00
	00 00		 mov	 DWORD PTR fs:__except_list, ecx
  0160d	8b e5		 mov	 esp, ebp
  0160f	5d		 pop	 ebp
  01610	c2 04 00	 ret	 4
_TEXT	ENDS
text$x	SEGMENT
$L203312:
  0013b	8d 4d 08	 lea	 ecx, DWORD PTR _pItem$[ebp]
  0013e	e9 00 00 00 00	 jmp	 ??1CPaneBase@ETSLayoutMgr@@QAE@XZ ; ETSLayoutMgr::CPaneBase::~CPaneBase
$L203313:
  00143	8b 4d f0	 mov	 ecx, DWORD PTR $T203310[ebp]
  00146	e9 00 00 00 00	 jmp	 ??1CPaneBase@ETSLayoutMgr@@QAE@XZ ; ETSLayoutMgr::CPaneBase::~CPaneBase
__ehhandler$??6CPaneMulti@ETSLayoutMgr@@QAEAAV01@VCPaneBase@1@@Z:
  0014b	b8 00 00 00 00	 mov	 eax, OFFSET FLAT:$T203315
  00150	e9 00 00 00 00	 jmp	 ___CxxFrameHandler
text$x	ENDS
??6CPaneMulti@ETSLayoutMgr@@QAEAAV01@VCPaneBase@1@@Z ENDP ; ETSLayoutMgr::CPaneMulti::operator<<
PUBLIC	??0CPaneMulti@ETSLayoutMgr@@QAE@PAVPaneMulti@1@@Z ; ETSLayoutMgr::CPaneMulti::CPaneMulti
; Function compile flags: /Odt
_TEXT	SEGMENT
_this$ = -4						; size = 4
_pPane$ = 8						; size = 4
??0CPaneMulti@ETSLayoutMgr@@QAE@PAVPaneMulti@1@@Z PROC NEAR ; ETSLayoutMgr::CPaneMulti::CPaneMulti
; _this$ = ecx

; 502  : {

  01620	55		 push	 ebp
  01621	8b ec		 mov	 ebp, esp
  01623	51		 push	 ecx
  01624	89 4d fc	 mov	 DWORD PTR _this$[ebp], ecx
  01627	8b 45 08	 mov	 eax, DWORD PTR _pPane$[ebp]
  0162a	50		 push	 eax
  0162b	8b 4d fc	 mov	 ecx, DWORD PTR _this$[ebp]
  0162e	e8 00 00 00 00	 call	 ??0CPane@ETSLayoutMgr@@QAE@PAVPane@1@@Z ; ETSLayoutMgr::CPane::CPane

; 503  : }

  01633	8b 45 fc	 mov	 eax, DWORD PTR _this$[ebp]
  01636	8b e5		 mov	 esp, ebp
  01638	5d		 pop	 ebp
  01639	c2 04 00	 ret	 4
??0CPaneMulti@ETSLayoutMgr@@QAE@PAVPaneMulti@1@@Z ENDP	; ETSLayoutMgr::CPaneMulti::CPaneMulti
_TEXT	ENDS
PUBLIC	??0CPaneMulti@ETSLayoutMgr@@QAE@XZ		; ETSLayoutMgr::CPaneMulti::CPaneMulti
EXTRN	??0CPane@ETSLayoutMgr@@QAE@XZ:NEAR		; ETSLayoutMgr::CPane::CPane
; Function compile flags: /Odt
_TEXT	SEGMENT
_this$ = -4						; size = 4
??0CPaneMulti@ETSLayoutMgr@@QAE@XZ PROC NEAR		; ETSLayoutMgr::CPaneMulti::CPaneMulti
; _this$ = ecx

; 506  : {

  01640	55		 push	 ebp
  01641	8b ec		 mov	 ebp, esp
  01643	51		 push	 ecx
  01644	89 4d fc	 mov	 DWORD PTR _this$[ebp], ecx
  01647	8b 4d fc	 mov	 ecx, DWORD PTR _this$[ebp]
  0164a	e8 00 00 00 00	 call	 ??0CPane@ETSLayoutMgr@@QAE@XZ ; ETSLayoutMgr::CPane::CPane

; 507  : }

  0164f	8b 45 fc	 mov	 eax, DWORD PTR _this$[ebp]
  01652	8b e5		 mov	 esp, ebp
  01654	5d		 pop	 ebp
  01655	c3		 ret	 0
??0CPaneMulti@ETSLayoutMgr@@QAE@XZ ENDP			; ETSLayoutMgr::CPaneMulti::CPaneMulti
_TEXT	ENDS
PUBLIC	?paneMulti@ETSLayoutMgr@@QAE?AVCPaneMulti@1@W4layOrientation@1@W4layResizeMode@1@HHH@Z ; ETSLayoutMgr::paneMulti
EXTRN	??0PaneMulti@ETSLayoutMgr@@QAE@PAV1@W4layOrientation@1@HH@Z:NEAR ; ETSLayoutMgr::PaneMulti::PaneMulti
xdata$x	SEGMENT
$T203334 DD	0ffffffffH
	DD	FLAT:$L203327
$T203332 DD	019930520H
	DD	01H
	DD	FLAT:$T203334
	DD	2 DUP(00H)
	DD	2 DUP(00H)
; Function compile flags: /Odt
xdata$x	ENDS
_TEXT	SEGMENT
tv75 = -36						; size = 4
_this$ = -32						; size = 4
$T203329 = -28						; size = 4
$T203324 = -24						; size = 4
$T203323 = -20						; size = 4
_pPane$ = -16						; size = 4
__$EHRec$ = -12						; size = 12
___$ReturnUdt$ = 8					; size = 4
_orientation$ = 12					; size = 4
_modeResize$ = 16					; size = 4
_sizeBorder$ = 20					; size = 4
_sizeExtraBorder$ = 24					; size = 4
_sizeSecondary$ = 28					; size = 4
?paneMulti@ETSLayoutMgr@@QAE?AVCPaneMulti@1@W4layOrientation@1@W4layResizeMode@1@HHH@Z PROC NEAR ; ETSLayoutMgr::paneMulti
; _this$ = ecx

; 512  : {

  01660	55		 push	 ebp
  01661	8b ec		 mov	 ebp, esp
  01663	6a ff		 push	 -1
  01665	68 00 00 00 00	 push	 __ehhandler$?paneMulti@ETSLayoutMgr@@QAE?AVCPaneMulti@1@W4layOrientation@1@W4layResizeMode@1@HHH@Z
  0166a	64 a1 00 00 00
	00		 mov	 eax, DWORD PTR fs:__except_list
  01670	50		 push	 eax
  01671	64 89 25 00 00
	00 00		 mov	 DWORD PTR fs:__except_list, esp
  01678	83 ec 18	 sub	 esp, 24			; 00000018H
  0167b	89 4d e0	 mov	 DWORD PTR _this$[ebp], ecx
  0167e	c7 45 e4 00 00
	00 00		 mov	 DWORD PTR $T203329[ebp], 0

; 513  : 	PaneMulti* pPane = new PaneMulti ( this, orientation, sizeBorder, sizeExtraBorder );

  01685	68 a8 00 00 00	 push	 168			; 000000a8H
  0168a	e8 00 00 00 00	 call	 ??2@YAPAXI@Z		; operator new
  0168f	83 c4 04	 add	 esp, 4
  01692	89 45 e8	 mov	 DWORD PTR $T203324[ebp], eax
  01695	c7 45 fc 00 00
	00 00		 mov	 DWORD PTR __$EHRec$[ebp+8], 0
  0169c	83 7d e8 00	 cmp	 DWORD PTR $T203324[ebp], 0
  016a0	74 1d		 je	 SHORT $L203325
  016a2	8b 45 18	 mov	 eax, DWORD PTR _sizeExtraBorder$[ebp]
  016a5	50		 push	 eax
  016a6	8b 4d 14	 mov	 ecx, DWORD PTR _sizeBorder$[ebp]
  016a9	51		 push	 ecx
  016aa	8b 55 0c	 mov	 edx, DWORD PTR _orientation$[ebp]
  016ad	52		 push	 edx
  016ae	8b 45 e0	 mov	 eax, DWORD PTR _this$[ebp]
  016b1	50		 push	 eax
  016b2	8b 4d e8	 mov	 ecx, DWORD PTR $T203324[ebp]
  016b5	e8 00 00 00 00	 call	 ??0PaneMulti@ETSLayoutMgr@@QAE@PAV1@W4layOrientation@1@HH@Z ; ETSLayoutMgr::PaneMulti::PaneMulti
  016ba	89 45 dc	 mov	 DWORD PTR tv75[ebp], eax
  016bd	eb 07		 jmp	 SHORT $L203326
$L203325:
  016bf	c7 45 dc 00 00
	00 00		 mov	 DWORD PTR tv75[ebp], 0
$L203326:
  016c6	8b 4d dc	 mov	 ecx, DWORD PTR tv75[ebp]
  016c9	89 4d ec	 mov	 DWORD PTR $T203323[ebp], ecx
  016cc	c7 45 fc ff ff
	ff ff		 mov	 DWORD PTR __$EHRec$[ebp+8], -1
  016d3	8b 55 ec	 mov	 edx, DWORD PTR $T203323[ebp]
  016d6	89 55 f0	 mov	 DWORD PTR _pPane$[ebp], edx

; 514  : 	pPane->m_sizeSecondary = sizeSecondary;

  016d9	8b 45 f0	 mov	 eax, DWORD PTR _pPane$[ebp]
  016dc	8b 4d 1c	 mov	 ecx, DWORD PTR _sizeSecondary$[ebp]
  016df	89 48 78	 mov	 DWORD PTR [eax+120], ecx

; 515  : 	pPane->m_modeResize    = modeResize;

  016e2	8b 55 f0	 mov	 edx, DWORD PTR _pPane$[ebp]
  016e5	8b 45 10	 mov	 eax, DWORD PTR _modeResize$[ebp]
  016e8	89 42 18	 mov	 DWORD PTR [edx+24], eax

; 516  : 
; 517  : 	return CPaneMulti(pPane); 

  016eb	8b 4d f0	 mov	 ecx, DWORD PTR _pPane$[ebp]
  016ee	51		 push	 ecx
  016ef	8b 4d 08	 mov	 ecx, DWORD PTR ___$ReturnUdt$[ebp]
  016f2	e8 00 00 00 00	 call	 ??0CPaneMulti@ETSLayoutMgr@@QAE@PAVPaneMulti@1@@Z ; ETSLayoutMgr::CPaneMulti::CPaneMulti
  016f7	8b 55 e4	 mov	 edx, DWORD PTR $T203329[ebp]
  016fa	83 ca 01	 or	 edx, 1
  016fd	89 55 e4	 mov	 DWORD PTR $T203329[ebp], edx
  01700	8b 45 08	 mov	 eax, DWORD PTR ___$ReturnUdt$[ebp]

; 518  : }

  01703	8b 4d f4	 mov	 ecx, DWORD PTR __$EHRec$[ebp]
  01706	64 89 0d 00 00
	00 00		 mov	 DWORD PTR fs:__except_list, ecx
  0170d	8b e5		 mov	 esp, ebp
  0170f	5d		 pop	 ebp
  01710	c2 18 00	 ret	 24			; 00000018H
_TEXT	ENDS
text$x	SEGMENT
$L203327:
  00155	8b 45 e8	 mov	 eax, DWORD PTR $T203324[ebp]
  00158	50		 push	 eax
  00159	e8 00 00 00 00	 call	 ??3@YAXPAX@Z		; operator delete
  0015e	59		 pop	 ecx
  0015f	c3		 ret	 0
__ehhandler$?paneMulti@ETSLayoutMgr@@QAE?AVCPaneMulti@1@W4layOrientation@1@W4layResizeMode@1@HHH@Z:
  00160	b8 00 00 00 00	 mov	 eax, OFFSET FLAT:$T203332
  00165	e9 00 00 00 00	 jmp	 ___CxxFrameHandler
text$x	ENDS
?paneMulti@ETSLayoutMgr@@QAE?AVCPaneMulti@1@W4layOrientation@1@W4layResizeMode@1@HHH@Z ENDP ; ETSLayoutMgr::paneMulti
PUBLIC	?GetStartPosition@?$CMap@V?$CStringT@DV?$StrTraitMFC_DLL@DV?$ChTraitsCRT@D@ATL@@@@@ATL@@PBDVCPaneBase@ETSLayoutMgr@@V34@@@QBEPAU__POSITION@@XZ ; CMap<ATL::CStringT<char,StrTraitMFC_DLL<char,ATL::ChTraitsCRT<char> > >,char const *,ETSLayoutMgr::CPaneBase,ETSLayoutMgr::CPaneBase>::GetStartPosition
PUBLIC	?GetNextAssoc@?$CMap@V?$CStringT@DV?$StrTraitMFC_DLL@DV?$ChTraitsCRT@D@ATL@@@@@ATL@@PBDVCPaneBase@ETSLayoutMgr@@V34@@@QBEXAAPAU__POSITION@@AAV?$CStringT@DV?$StrTraitMFC_DLL@DV?$ChTraitsCRT@D@ATL@@@@@ATL@@AAVCPaneBase@ETSLayoutMgr@@@Z ; CMap<ATL::CStringT<char,StrTraitMFC_DLL<char,ATL::ChTraitsCRT<char> > >,char const *,ETSLayoutMgr::CPaneBase,ETSLayoutMgr::CPaneBase>::GetNextAssoc
PUBLIC	?showPane@PaneMulti@ETSLayoutMgr@@UAEX_N@Z	; ETSLayoutMgr::PaneMulti::showPane
PUBLIC	??8ATL@@YA_NABV?$CStringT@DV?$StrTraitMFC_DLL@DV?$ChTraitsCRT@D@ATL@@@@@0@PBD@Z ; ATL::operator==
PUBLIC	?GetName@PaneBase@ETSLayoutMgr@@QAE?AV?$CStringT@DV?$StrTraitMFC_DLL@DV?$ChTraitsCRT@D@ATL@@@@@ATL@@XZ ; ETSLayoutMgr::PaneBase::GetName
PUBLIC	?GetPaneBase@CPaneBase@ETSLayoutMgr@@QAEPAVPaneBase@2@XZ ; ETSLayoutMgr::CPaneBase::GetPaneBase
PUBLIC	?IsValid@CPaneBase@ETSLayoutMgr@@QAE_NXZ	; ETSLayoutMgr::CPaneBase::IsValid
EXTRN	__imp_??0?$CStringT@DV?$StrTraitMFC_DLL@DV?$ChTraitsCRT@D@ATL@@@@@ATL@@QAE@XZ:NEAR
EXTRN	__imp_??1?$CStringT@DV?$StrTraitMFC_DLL@DV?$ChTraitsCRT@D@ATL@@@@@ATL@@QAE@XZ:NEAR
xdata$x	SEGMENT
$T203349 DD	0ffffffffH
	DD	FLAT:$L203344
	DD	00H
	DD	FLAT:$L203345
$T203347 DD	019930520H
	DD	02H
	DD	FLAT:$T203349
	DD	2 DUP(00H)
	DD	2 DUP(00H)
; Function compile flags: /Odt
xdata$x	ENDS
_TEXT	SEGMENT
tv149 = -56						; size = 4
tv93 = -52						; size = 4
tv157 = -48						; size = 4
tv74 = -44						; size = 4
_this$ = -40						; size = 4
$T203340 = -36						; size = 4
$T203337 = -32						; size = 4
$T203336 = -25						; size = 1
_pos$201122 = -24					; size = 4
_key$201123 = -20					; size = 4
_pane$201124 = -16					; size = 4
__$EHRec$ = -12						; size = 12
_bShow$ = 8						; size = 1
?showPane@PaneMulti@ETSLayoutMgr@@UAEX_N@Z PROC NEAR	; ETSLayoutMgr::PaneMulti::showPane
; _this$ = ecx

; 522  : {

  01720	55		 push	 ebp
  01721	8b ec		 mov	 ebp, esp
  01723	6a ff		 push	 -1
  01725	68 00 00 00 00	 push	 __ehhandler$?showPane@PaneMulti@ETSLayoutMgr@@UAEX_N@Z
  0172a	64 a1 00 00 00
	00		 mov	 eax, DWORD PTR fs:__except_list
  01730	50		 push	 eax
  01731	64 89 25 00 00
	00 00		 mov	 DWORD PTR fs:__except_list, esp
  01738	83 ec 2c	 sub	 esp, 44			; 0000002cH
  0173b	89 4d d8	 mov	 DWORD PTR _this$[ebp], ecx
  0173e	c7 45 dc 00 00
	00 00		 mov	 DWORD PTR $T203340[ebp], 0

; 523  : 	m_bShow = bShow;

  01745	8b 45 d8	 mov	 eax, DWORD PTR _this$[ebp]
  01748	8a 4d 08	 mov	 cl, BYTE PTR _bShow$[ebp]
  0174b	88 48 1c	 mov	 BYTE PTR [eax+28], cl

; 524  : 
; 525  : 	if(m_paneCurrent.IsValid())

  0174e	8b 4d d8	 mov	 ecx, DWORD PTR _this$[ebp]
  01751	81 c1 88 00 00
	00		 add	 ecx, 136		; 00000088H
  01757	e8 00 00 00 00	 call	 ?IsValid@CPaneBase@ETSLayoutMgr@@QAE_NXZ ; ETSLayoutMgr::CPaneBase::IsValid
  0175c	0f b6 d0	 movzx	 edx, al
  0175f	85 d2		 test	 edx, edx
  01761	0f 84 a1 00 00
	00		 je	 $L201115

; 526  : 	{
; 527  : 		m_paneCurrent.GetPaneBase()->showPane(bShow); 

  01767	8b 4d d8	 mov	 ecx, DWORD PTR _this$[ebp]
  0176a	81 c1 88 00 00
	00		 add	 ecx, 136		; 00000088H
  01770	e8 00 00 00 00	 call	 ?GetPaneBase@CPaneBase@ETSLayoutMgr@@QAEPAVPaneBase@2@XZ ; ETSLayoutMgr::CPaneBase::GetPaneBase
  01775	89 45 d4	 mov	 DWORD PTR tv74[ebp], eax
  01778	8a 45 08	 mov	 al, BYTE PTR _bShow$[ebp]
  0177b	50		 push	 eax
  0177c	8b 4d d4	 mov	 ecx, DWORD PTR tv74[ebp]
  0177f	8b 11		 mov	 edx, DWORD PTR [ecx]
  01781	8b 4d d4	 mov	 ecx, DWORD PTR tv74[ebp]
  01784	ff 52 24	 call	 DWORD PTR [edx+36]

; 528  : 		if(m_paneCurrent.GetPaneBase()->GetName() == "SearchResult" && bShow)

  01787	8d 45 e0	 lea	 eax, DWORD PTR $T203337[ebp]
  0178a	50		 push	 eax
  0178b	8b 4d d8	 mov	 ecx, DWORD PTR _this$[ebp]
  0178e	81 c1 88 00 00
	00		 add	 ecx, 136		; 00000088H
  01794	e8 00 00 00 00	 call	 ?GetPaneBase@CPaneBase@ETSLayoutMgr@@QAEPAVPaneBase@2@XZ ; ETSLayoutMgr::CPaneBase::GetPaneBase
  01799	8b c8		 mov	 ecx, eax
  0179b	e8 00 00 00 00	 call	 ?GetName@PaneBase@ETSLayoutMgr@@QAE?AV?$CStringT@DV?$StrTraitMFC_DLL@DV?$ChTraitsCRT@D@ATL@@@@@ATL@@XZ ; ETSLayoutMgr::PaneBase::GetName
  017a0	89 45 d0	 mov	 DWORD PTR tv157[ebp], eax
  017a3	8b 4d dc	 mov	 ecx, DWORD PTR $T203340[ebp]
  017a6	83 c9 01	 or	 ecx, 1
  017a9	89 4d dc	 mov	 DWORD PTR $T203340[ebp], ecx
  017ac	68 00 00 00 00	 push	 OFFSET FLAT:$SG201119
  017b1	8b 55 d0	 mov	 edx, DWORD PTR tv157[ebp]
  017b4	52		 push	 edx
  017b5	e8 00 00 00 00	 call	 ??8ATL@@YA_NABV?$CStringT@DV?$StrTraitMFC_DLL@DV?$ChTraitsCRT@D@ATL@@@@@0@PBD@Z ; ATL::operator==
  017ba	83 c4 08	 add	 esp, 8
  017bd	0f b6 c0	 movzx	 eax, al
  017c0	85 c0		 test	 eax, eax
  017c2	74 11		 je	 SHORT $L203338
  017c4	0f b6 4d 08	 movzx	 ecx, BYTE PTR _bShow$[ebp]
  017c8	85 c9		 test	 ecx, ecx
  017ca	74 09		 je	 SHORT $L203338
  017cc	c7 45 cc 01 00
	00 00		 mov	 DWORD PTR tv93[ebp], 1
  017d3	eb 07		 jmp	 SHORT $L203339
$L203338:
  017d5	c7 45 cc 00 00
	00 00		 mov	 DWORD PTR tv93[ebp], 0
$L203339:
  017dc	8a 55 cc	 mov	 dl, BYTE PTR tv93[ebp]
  017df	88 55 e7	 mov	 BYTE PTR $T203336[ebp], dl
  017e2	8b 45 dc	 mov	 eax, DWORD PTR $T203340[ebp]
  017e5	83 e0 01	 and	 eax, 1
  017e8	74 0d		 je	 SHORT $L203343
  017ea	83 65 dc fe	 and	 DWORD PTR $T203340[ebp], -2 ; fffffffeH
  017ee	8d 4d e0	 lea	 ecx, DWORD PTR $T203337[ebp]
  017f1	ff 15 00 00 00
	00		 call	 DWORD PTR __imp_??1?$CStringT@DV?$StrTraitMFC_DLL@DV?$ChTraitsCRT@D@ATL@@@@@ATL@@QAE@XZ
$L203343:
  017f7	0f b6 4d e7	 movzx	 ecx, BYTE PTR $T203336[ebp]
  017fb	85 c9		 test	 ecx, ecx
  017fd	74 04		 je	 SHORT $L201117

; 529  : 			bShow = true;

  017ff	c6 45 08 01	 mov	 BYTE PTR _bShow$[ebp], 1
$L201117:

; 530  : 	}
; 531  : 	else if(bShow == false)

  01803	e9 8f 00 00 00	 jmp	 $L201114
$L201115:
  01808	0f b6 55 08	 movzx	 edx, BYTE PTR _bShow$[ebp]
  0180c	85 d2		 test	 edx, edx
  0180e	0f 85 83 00 00
	00		 jne	 $L201114

; 532  : 	{
; 533  : 		POSITION pos = m_mapLayers.GetStartPosition();

  01814	8b 4d d8	 mov	 ecx, DWORD PTR _this$[ebp]
  01817	81 c1 8c 00 00
	00		 add	 ecx, 140		; 0000008cH
  0181d	e8 00 00 00 00	 call	 ?GetStartPosition@?$CMap@V?$CStringT@DV?$StrTraitMFC_DLL@DV?$ChTraitsCRT@D@ATL@@@@@ATL@@PBDVCPaneBase@ETSLayoutMgr@@V34@@@QBEPAU__POSITION@@XZ ; CMap<ATL::CStringT<char,StrTraitMFC_DLL<char,ATL::ChTraitsCRT<char> > >,char const *,ETSLayoutMgr::CPaneBase,ETSLayoutMgr::CPaneBase>::GetStartPosition
  01822	89 45 e8	 mov	 DWORD PTR _pos$201122[ebp], eax

; 534  : 		CString key;

  01825	8d 4d ec	 lea	 ecx, DWORD PTR _key$201123[ebp]
  01828	ff 15 00 00 00
	00		 call	 DWORD PTR __imp_??0?$CStringT@DV?$StrTraitMFC_DLL@DV?$ChTraitsCRT@D@ATL@@@@@ATL@@QAE@XZ
  0182e	c7 45 fc 00 00
	00 00		 mov	 DWORD PTR __$EHRec$[ebp+8], 0

; 535  : 		CPaneBase	pane;

  01835	8d 4d f0	 lea	 ecx, DWORD PTR _pane$201124[ebp]
  01838	e8 00 00 00 00	 call	 ??0CPaneBase@ETSLayoutMgr@@QAE@XZ ; ETSLayoutMgr::CPaneBase::CPaneBase
  0183d	c6 45 fc 01	 mov	 BYTE PTR __$EHRec$[ebp+8], 1
$L201126:

; 536  : 		while (pos != NULL)

  01841	83 7d e8 00	 cmp	 DWORD PTR _pos$201122[ebp], 0
  01845	74 34		 je	 SHORT $L201127

; 537  : 		{
; 538  : 			m_mapLayers.GetNextAssoc( pos, key, pane );

  01847	8d 45 f0	 lea	 eax, DWORD PTR _pane$201124[ebp]
  0184a	50		 push	 eax
  0184b	8d 4d ec	 lea	 ecx, DWORD PTR _key$201123[ebp]
  0184e	51		 push	 ecx
  0184f	8d 55 e8	 lea	 edx, DWORD PTR _pos$201122[ebp]
  01852	52		 push	 edx
  01853	8b 4d d8	 mov	 ecx, DWORD PTR _this$[ebp]
  01856	81 c1 8c 00 00
	00		 add	 ecx, 140		; 0000008cH
  0185c	e8 00 00 00 00	 call	 ?GetNextAssoc@?$CMap@V?$CStringT@DV?$StrTraitMFC_DLL@DV?$ChTraitsCRT@D@ATL@@@@@ATL@@PBDVCPaneBase@ETSLayoutMgr@@V34@@@QBEXAAPAU__POSITION@@AAV?$CStringT@DV?$StrTraitMFC_DLL@DV?$ChTraitsCRT@D@ATL@@@@@ATL@@AAVCPaneBase@ETSLayoutMgr@@@Z ; CMap<ATL::CStringT<char,StrTraitMFC_DLL<char,ATL::ChTraitsCRT<char> > >,char const *,ETSLayoutMgr::CPaneBase,ETSLayoutMgr::CPaneBase>::GetNextAssoc

; 539  : 			pane.GetPaneBase()->showPane(false);

  01861	8d 4d f0	 lea	 ecx, DWORD PTR _pane$201124[ebp]
  01864	e8 00 00 00 00	 call	 ?GetPaneBase@CPaneBase@ETSLayoutMgr@@QAEPAVPaneBase@2@XZ ; ETSLayoutMgr::CPaneBase::GetPaneBase
  01869	89 45 c8	 mov	 DWORD PTR tv149[ebp], eax
  0186c	6a 00		 push	 0
  0186e	8b 45 c8	 mov	 eax, DWORD PTR tv149[ebp]
  01871	8b 10		 mov	 edx, DWORD PTR [eax]
  01873	8b 4d c8	 mov	 ecx, DWORD PTR tv149[ebp]
  01876	ff 52 24	 call	 DWORD PTR [edx+36]

; 540  : 		}

  01879	eb c6		 jmp	 SHORT $L201126
$L201127:

; 541  : 	}

  0187b	c6 45 fc 00	 mov	 BYTE PTR __$EHRec$[ebp+8], 0
  0187f	8d 4d f0	 lea	 ecx, DWORD PTR _pane$201124[ebp]
  01882	e8 00 00 00 00	 call	 ??1CPaneBase@ETSLayoutMgr@@QAE@XZ ; ETSLayoutMgr::CPaneBase::~CPaneBase
  01887	c7 45 fc ff ff
	ff ff		 mov	 DWORD PTR __$EHRec$[ebp+8], -1
  0188e	8d 4d ec	 lea	 ecx, DWORD PTR _key$201123[ebp]
  01891	ff 15 00 00 00
	00		 call	 DWORD PTR __imp_??1?$CStringT@DV?$StrTraitMFC_DLL@DV?$ChTraitsCRT@D@ATL@@@@@ATL@@QAE@XZ
$L201114:

; 542  : }

  01897	8b 4d f4	 mov	 ecx, DWORD PTR __$EHRec$[ebp]
  0189a	64 89 0d 00 00
	00 00		 mov	 DWORD PTR fs:__except_list, ecx
  018a1	8b e5		 mov	 esp, ebp
  018a3	5d		 pop	 ebp
  018a4	c2 04 00	 ret	 4
_TEXT	ENDS
text$x	SEGMENT
$L203344:
  0016a	8d 4d ec	 lea	 ecx, DWORD PTR _key$201123[ebp]
  0016d	ff 25 00 00 00
	00		 jmp	 DWORD PTR __imp_??1?$CStringT@DV?$StrTraitMFC_DLL@DV?$ChTraitsCRT@D@ATL@@@@@ATL@@QAE@XZ
$L203345:
  00173	8d 4d f0	 lea	 ecx, DWORD PTR _pane$201124[ebp]
  00176	e9 00 00 00 00	 jmp	 ??1CPaneBase@ETSLayoutMgr@@QAE@XZ ; ETSLayoutMgr::CPaneBase::~CPaneBase
__ehhandler$?showPane@PaneMulti@ETSLayoutMgr@@UAEX_N@Z:
  0017b	b8 00 00 00 00	 mov	 eax, OFFSET FLAT:$T203347
  00180	e9 00 00 00 00	 jmp	 ___CxxFrameHandler
text$x	ENDS
?showPane@PaneMulti@ETSLayoutMgr@@UAEX_N@Z ENDP		; ETSLayoutMgr::PaneMulti::showPane
EXTRN	__imp_??0?$CStringT@DV?$StrTraitMFC_DLL@DV?$ChTraitsCRT@D@ATL@@@@@ATL@@QAE@ABV01@@Z:NEAR
; Function compile flags: /Odt
; File d:\boxgit\playbox\playbox\dev\prj\playbox\src\layoutmgr\etslayout.h
;	COMDAT ?GetName@PaneBase@ETSLayoutMgr@@QAE?AV?$CStringT@DV?$StrTraitMFC_DLL@DV?$ChTraitsCRT@D@ATL@@@@@ATL@@XZ
_TEXT	SEGMENT
_this$ = -8						; size = 4
$T203352 = -4						; size = 4
___$ReturnUdt$ = 8					; size = 4
?GetName@PaneBase@ETSLayoutMgr@@QAE?AV?$CStringT@DV?$StrTraitMFC_DLL@DV?$ChTraitsCRT@D@ATL@@@@@ATL@@XZ PROC NEAR ; ETSLayoutMgr::PaneBase::GetName, COMDAT
; _this$ = ecx

; 306  : 		CString GetName(){return m_strName;};

  00000	55		 push	 ebp
  00001	8b ec		 mov	 ebp, esp
  00003	83 ec 08	 sub	 esp, 8
  00006	89 4d f8	 mov	 DWORD PTR _this$[ebp], ecx
  00009	c7 45 fc 00 00
	00 00		 mov	 DWORD PTR $T203352[ebp], 0
  00010	8b 45 f8	 mov	 eax, DWORD PTR _this$[ebp]
  00013	83 c0 20	 add	 eax, 32			; 00000020H
  00016	50		 push	 eax
  00017	8b 4d 08	 mov	 ecx, DWORD PTR ___$ReturnUdt$[ebp]
  0001a	ff 15 00 00 00
	00		 call	 DWORD PTR __imp_??0?$CStringT@DV?$StrTraitMFC_DLL@DV?$ChTraitsCRT@D@ATL@@@@@ATL@@QAE@ABV01@@Z
  00020	8b 4d fc	 mov	 ecx, DWORD PTR $T203352[ebp]
  00023	83 c9 01	 or	 ecx, 1
  00026	89 4d fc	 mov	 DWORD PTR $T203352[ebp], ecx
  00029	8b 45 08	 mov	 eax, DWORD PTR ___$ReturnUdt$[ebp]
  0002c	8b e5		 mov	 esp, ebp
  0002e	5d		 pop	 ebp
  0002f	c2 04 00	 ret	 4
?GetName@PaneBase@ETSLayoutMgr@@QAE?AV?$CStringT@DV?$StrTraitMFC_DLL@DV?$ChTraitsCRT@D@ATL@@@@@ATL@@XZ ENDP ; ETSLayoutMgr::PaneBase::GetName
; Function compile flags: /Odt
_TEXT	ENDS
;	COMDAT ?GetPaneBase@CPaneBase@ETSLayoutMgr@@QAEPAVPaneBase@2@XZ
_TEXT	SEGMENT
_this$ = -4						; size = 4
?GetPaneBase@CPaneBase@ETSLayoutMgr@@QAEPAVPaneBase@2@XZ PROC NEAR ; ETSLayoutMgr::CPaneBase::GetPaneBase, COMDAT
; _this$ = ecx

; 388  : 		PaneBase* GetPaneBase()	{ return operator->(); }

  00000	55		 push	 ebp
  00001	8b ec		 mov	 ebp, esp
  00003	51		 push	 ecx
  00004	89 4d fc	 mov	 DWORD PTR _this$[ebp], ecx
  00007	8b 4d fc	 mov	 ecx, DWORD PTR _this$[ebp]
  0000a	e8 00 00 00 00	 call	 ??CCPaneBase@ETSLayoutMgr@@QBEPAVPaneBase@1@XZ ; ETSLayoutMgr::CPaneBase::operator->
  0000f	8b e5		 mov	 esp, ebp
  00011	5d		 pop	 ebp
  00012	c3		 ret	 0
?GetPaneBase@CPaneBase@ETSLayoutMgr@@QAEPAVPaneBase@2@XZ ENDP ; ETSLayoutMgr::CPaneBase::GetPaneBase
; Function compile flags: /Odt
_TEXT	ENDS
;	COMDAT ?IsValid@CPaneBase@ETSLayoutMgr@@QAE_NXZ
_TEXT	SEGMENT
_this$ = -4						; size = 4
?IsValid@CPaneBase@ETSLayoutMgr@@QAE_NXZ PROC NEAR	; ETSLayoutMgr::CPaneBase::IsValid, COMDAT
; _this$ = ecx

; 391  : 		bool IsValid()			{ return (m_pPaneHolder != 0); }

  00000	55		 push	 ebp
  00001	8b ec		 mov	 ebp, esp
  00003	51		 push	 ecx
  00004	89 4d fc	 mov	 DWORD PTR _this$[ebp], ecx
  00007	8b 45 fc	 mov	 eax, DWORD PTR _this$[ebp]
  0000a	33 c9		 xor	 ecx, ecx
  0000c	83 38 00	 cmp	 DWORD PTR [eax], 0
  0000f	0f 95 c1	 setne	 cl
  00012	8a c1		 mov	 al, cl
  00014	8b e5		 mov	 esp, ebp
  00016	5d		 pop	 ebp
  00017	c3		 ret	 0
?IsValid@CPaneBase@ETSLayoutMgr@@QAE_NXZ ENDP		; ETSLayoutMgr::CPaneBase::IsValid
_TEXT	ENDS
PUBLIC	?GetSubPane@PaneMulti@ETSLayoutMgr@@UAE?AVCPaneBase@2@V?$CStringT@DV?$StrTraitMFC_DLL@DV?$ChTraitsCRT@D@ATL@@@@@ATL@@@Z ; ETSLayoutMgr::PaneMulti::GetSubPane
EXTRN	??0CPaneBase@ETSLayoutMgr@@QAE@PAVPaneBase@1@@Z:NEAR ; ETSLayoutMgr::CPaneBase::CPaneBase
xdata$x	SEGMENT
$T203372 DD	0ffffffffH
	DD	FLAT:$L203366
	DD	00H
	DD	FLAT:$L203361
	DD	01H
	DD	FLAT:$L203362
	DD	02H
	DD	FLAT:$L203363
	DD	03H
	DD	FLAT:$L203364
	DD	03H
	DD	FLAT:$L203365
$T203370 DD	019930520H
	DD	06H
	DD	FLAT:$T203372
	DD	2 DUP(00H)
	DD	2 DUP(00H)
; Function compile flags: /Odt
; File d:\boxgit\playbox\playbox\dev\prj\playbox\src\layoutmgr\etslayoutex.cpp
xdata$x	ENDS
_TEXT	SEGMENT
tv152 = -56						; size = 4
tv83 = -52						; size = 4
tv151 = -48						; size = 4
tv72 = -44						; size = 4
_this$ = -40						; size = 4
$T203367 = -36						; size = 4
$T203360 = -32						; size = 4
_pSubPane$201139 = -28					; size = 4
_pos$ = -24						; size = 4
_key$ = -20						; size = 4
_pane$ = -16						; size = 4
__$EHRec$ = -12						; size = 12
___$ReturnUdt$ = 8					; size = 4
_name$ = 12						; size = 4
?GetSubPane@PaneMulti@ETSLayoutMgr@@UAE?AVCPaneBase@2@V?$CStringT@DV?$StrTraitMFC_DLL@DV?$ChTraitsCRT@D@ATL@@@@@ATL@@@Z PROC NEAR ; ETSLayoutMgr::PaneMulti::GetSubPane
; _this$ = ecx

; 545  : {

  018b0	55		 push	 ebp
  018b1	8b ec		 mov	 ebp, esp
  018b3	6a ff		 push	 -1
  018b5	68 00 00 00 00	 push	 __ehhandler$?GetSubPane@PaneMulti@ETSLayoutMgr@@UAE?AVCPaneBase@2@V?$CStringT@DV?$StrTraitMFC_DLL@DV?$ChTraitsCRT@D@ATL@@@@@ATL@@@Z
  018ba	64 a1 00 00 00
	00		 mov	 eax, DWORD PTR fs:__except_list
  018c0	50		 push	 eax
  018c1	64 89 25 00 00
	00 00		 mov	 DWORD PTR fs:__except_list, esp
  018c8	83 ec 2c	 sub	 esp, 44			; 0000002cH
  018cb	89 4d d8	 mov	 DWORD PTR _this$[ebp], ecx
  018ce	c7 45 dc 00 00
	00 00		 mov	 DWORD PTR $T203367[ebp], 0
  018d5	c7 45 fc 01 00
	00 00		 mov	 DWORD PTR __$EHRec$[ebp+8], 1

; 546  : 	POSITION pos = m_mapLayers.GetStartPosition();

  018dc	8b 4d d8	 mov	 ecx, DWORD PTR _this$[ebp]
  018df	81 c1 8c 00 00
	00		 add	 ecx, 140		; 0000008cH
  018e5	e8 00 00 00 00	 call	 ?GetStartPosition@?$CMap@V?$CStringT@DV?$StrTraitMFC_DLL@DV?$ChTraitsCRT@D@ATL@@@@@ATL@@PBDVCPaneBase@ETSLayoutMgr@@V34@@@QBEPAU__POSITION@@XZ ; CMap<ATL::CStringT<char,StrTraitMFC_DLL<char,ATL::ChTraitsCRT<char> > >,char const *,ETSLayoutMgr::CPaneBase,ETSLayoutMgr::CPaneBase>::GetStartPosition
  018ea	89 45 e8	 mov	 DWORD PTR _pos$[ebp], eax

; 547  : 	CString key;

  018ed	8d 4d ec	 lea	 ecx, DWORD PTR _key$[ebp]
  018f0	ff 15 00 00 00
	00		 call	 DWORD PTR __imp_??0?$CStringT@DV?$StrTraitMFC_DLL@DV?$ChTraitsCRT@D@ATL@@@@@ATL@@QAE@XZ
  018f6	c6 45 fc 02	 mov	 BYTE PTR __$EHRec$[ebp+8], 2

; 548  : 	CPaneBase	pane;

  018fa	8d 4d f0	 lea	 ecx, DWORD PTR _pane$[ebp]
  018fd	e8 00 00 00 00	 call	 ??0CPaneBase@ETSLayoutMgr@@QAE@XZ ; ETSLayoutMgr::CPaneBase::CPaneBase
  01902	c6 45 fc 03	 mov	 BYTE PTR __$EHRec$[ebp+8], 3
$L201137:

; 549  : 	while (pos != NULL)

  01906	83 7d e8 00	 cmp	 DWORD PTR _pos$[ebp], 0
  0190a	0f 84 c8 00 00
	00		 je	 $L201138

; 550  : 	{
; 551  : 		m_mapLayers.GetNextAssoc( pos, key, pane );

  01910	8d 45 f0	 lea	 eax, DWORD PTR _pane$[ebp]
  01913	50		 push	 eax
  01914	8d 4d ec	 lea	 ecx, DWORD PTR _key$[ebp]
  01917	51		 push	 ecx
  01918	8d 55 e8	 lea	 edx, DWORD PTR _pos$[ebp]
  0191b	52		 push	 edx
  0191c	8b 4d d8	 mov	 ecx, DWORD PTR _this$[ebp]
  0191f	81 c1 8c 00 00
	00		 add	 ecx, 140		; 0000008cH
  01925	e8 00 00 00 00	 call	 ?GetNextAssoc@?$CMap@V?$CStringT@DV?$StrTraitMFC_DLL@DV?$ChTraitsCRT@D@ATL@@@@@ATL@@PBDVCPaneBase@ETSLayoutMgr@@V34@@@QBEXAAPAU__POSITION@@AAV?$CStringT@DV?$StrTraitMFC_DLL@DV?$ChTraitsCRT@D@ATL@@@@@ATL@@AAVCPaneBase@ETSLayoutMgr@@@Z ; CMap<ATL::CStringT<char,StrTraitMFC_DLL<char,ATL::ChTraitsCRT<char> > >,char const *,ETSLayoutMgr::CPaneBase,ETSLayoutMgr::CPaneBase>::GetNextAssoc

; 552  : 		CPaneBase pSubPane = pane->GetSubPane(name);

  0192a	51		 push	 ecx
  0192b	8b cc		 mov	 ecx, esp
  0192d	89 65 e0	 mov	 DWORD PTR $T203360[ebp], esp
  01930	8d 45 0c	 lea	 eax, DWORD PTR _name$[ebp]
  01933	50		 push	 eax
  01934	ff 15 00 00 00
	00		 call	 DWORD PTR __imp_??0?$CStringT@DV?$StrTraitMFC_DLL@DV?$ChTraitsCRT@D@ATL@@@@@ATL@@QAE@ABV01@@Z
  0193a	89 45 d4	 mov	 DWORD PTR tv72[ebp], eax
  0193d	8b 4d d4	 mov	 ecx, DWORD PTR tv72[ebp]
  01940	89 4d d0	 mov	 DWORD PTR tv151[ebp], ecx
  01943	c6 45 fc 04	 mov	 BYTE PTR __$EHRec$[ebp+8], 4
  01947	8d 4d f0	 lea	 ecx, DWORD PTR _pane$[ebp]
  0194a	e8 00 00 00 00	 call	 ??CCPaneBase@ETSLayoutMgr@@QBEPAVPaneBase@1@XZ ; ETSLayoutMgr::CPaneBase::operator->
  0194f	89 45 cc	 mov	 DWORD PTR tv83[ebp], eax
  01952	8d 55 e4	 lea	 edx, DWORD PTR _pSubPane$201139[ebp]
  01955	52		 push	 edx
  01956	8b 45 cc	 mov	 eax, DWORD PTR tv83[ebp]
  01959	8b 10		 mov	 edx, DWORD PTR [eax]
  0195b	c6 45 fc 03	 mov	 BYTE PTR __$EHRec$[ebp+8], 3
  0195f	8b 4d cc	 mov	 ecx, DWORD PTR tv83[ebp]
  01962	ff 52 1c	 call	 DWORD PTR [edx+28]
  01965	89 45 c8	 mov	 DWORD PTR tv152[ebp], eax
  01968	c6 45 fc 05	 mov	 BYTE PTR __$EHRec$[ebp+8], 5

; 553  : 		if(pSubPane.IsValid())

  0196c	8d 4d e4	 lea	 ecx, DWORD PTR _pSubPane$201139[ebp]
  0196f	e8 00 00 00 00	 call	 ?IsValid@CPaneBase@ETSLayoutMgr@@QAE_NXZ ; ETSLayoutMgr::CPaneBase::IsValid
  01974	0f b6 c0	 movzx	 eax, al
  01977	85 c0		 test	 eax, eax
  01979	74 4c		 je	 SHORT $L201142

; 554  : 			return pSubPane;

  0197b	8d 4d e4	 lea	 ecx, DWORD PTR _pSubPane$201139[ebp]
  0197e	51		 push	 ecx
  0197f	8b 4d 08	 mov	 ecx, DWORD PTR ___$ReturnUdt$[ebp]
  01982	e8 00 00 00 00	 call	 ??0CPaneBase@ETSLayoutMgr@@QAE@ABV01@@Z ; ETSLayoutMgr::CPaneBase::CPaneBase
  01987	8b 55 dc	 mov	 edx, DWORD PTR $T203367[ebp]
  0198a	83 ca 01	 or	 edx, 1
  0198d	89 55 dc	 mov	 DWORD PTR $T203367[ebp], edx
  01990	c6 45 fc 03	 mov	 BYTE PTR __$EHRec$[ebp+8], 3
  01994	8d 4d e4	 lea	 ecx, DWORD PTR _pSubPane$201139[ebp]
  01997	e8 00 00 00 00	 call	 ??1CPaneBase@ETSLayoutMgr@@QAE@XZ ; ETSLayoutMgr::CPaneBase::~CPaneBase
  0199c	c6 45 fc 02	 mov	 BYTE PTR __$EHRec$[ebp+8], 2
  019a0	8d 4d f0	 lea	 ecx, DWORD PTR _pane$[ebp]
  019a3	e8 00 00 00 00	 call	 ??1CPaneBase@ETSLayoutMgr@@QAE@XZ ; ETSLayoutMgr::CPaneBase::~CPaneBase
  019a8	c6 45 fc 01	 mov	 BYTE PTR __$EHRec$[ebp+8], 1
  019ac	8d 4d ec	 lea	 ecx, DWORD PTR _key$[ebp]
  019af	ff 15 00 00 00
	00		 call	 DWORD PTR __imp_??1?$CStringT@DV?$StrTraitMFC_DLL@DV?$ChTraitsCRT@D@ATL@@@@@ATL@@QAE@XZ
  019b5	c6 45 fc 00	 mov	 BYTE PTR __$EHRec$[ebp+8], 0
  019b9	8d 4d 0c	 lea	 ecx, DWORD PTR _name$[ebp]
  019bc	ff 15 00 00 00
	00		 call	 DWORD PTR __imp_??1?$CStringT@DV?$StrTraitMFC_DLL@DV?$ChTraitsCRT@D@ATL@@@@@ATL@@QAE@XZ
  019c2	8b 45 08	 mov	 eax, DWORD PTR ___$ReturnUdt$[ebp]
  019c5	eb 4d		 jmp	 SHORT $L201132
$L201142:

; 555  : 	}

  019c7	c6 45 fc 03	 mov	 BYTE PTR __$EHRec$[ebp+8], 3
  019cb	8d 4d e4	 lea	 ecx, DWORD PTR _pSubPane$201139[ebp]
  019ce	e8 00 00 00 00	 call	 ??1CPaneBase@ETSLayoutMgr@@QAE@XZ ; ETSLayoutMgr::CPaneBase::~CPaneBase
  019d3	e9 2e ff ff ff	 jmp	 $L201137
$L201138:

; 556  : 	return NULL;

  019d8	6a 00		 push	 0
  019da	8b 4d 08	 mov	 ecx, DWORD PTR ___$ReturnUdt$[ebp]
  019dd	e8 00 00 00 00	 call	 ??0CPaneBase@ETSLayoutMgr@@QAE@PAVPaneBase@1@@Z ; ETSLayoutMgr::CPaneBase::CPaneBase
  019e2	8b 45 dc	 mov	 eax, DWORD PTR $T203367[ebp]
  019e5	83 c8 01	 or	 eax, 1
  019e8	89 45 dc	 mov	 DWORD PTR $T203367[ebp], eax
  019eb	c6 45 fc 02	 mov	 BYTE PTR __$EHRec$[ebp+8], 2
  019ef	8d 4d f0	 lea	 ecx, DWORD PTR _pane$[ebp]
  019f2	e8 00 00 00 00	 call	 ??1CPaneBase@ETSLayoutMgr@@QAE@XZ ; ETSLayoutMgr::CPaneBase::~CPaneBase
  019f7	c6 45 fc 01	 mov	 BYTE PTR __$EHRec$[ebp+8], 1
  019fb	8d 4d ec	 lea	 ecx, DWORD PTR _key$[ebp]
  019fe	ff 15 00 00 00
	00		 call	 DWORD PTR __imp_??1?$CStringT@DV?$StrTraitMFC_DLL@DV?$ChTraitsCRT@D@ATL@@@@@ATL@@QAE@XZ
  01a04	c6 45 fc 00	 mov	 BYTE PTR __$EHRec$[ebp+8], 0
  01a08	8d 4d 0c	 lea	 ecx, DWORD PTR _name$[ebp]
  01a0b	ff 15 00 00 00
	00		 call	 DWORD PTR __imp_??1?$CStringT@DV?$StrTraitMFC_DLL@DV?$ChTraitsCRT@D@ATL@@@@@ATL@@QAE@XZ
  01a11	8b 45 08	 mov	 eax, DWORD PTR ___$ReturnUdt$[ebp]
$L201132:

; 557  : }

  01a14	8b 4d f4	 mov	 ecx, DWORD PTR __$EHRec$[ebp]
  01a17	64 89 0d 00 00
	00 00		 mov	 DWORD PTR fs:__except_list, ecx
  01a1e	8b e5		 mov	 esp, ebp
  01a20	5d		 pop	 ebp
  01a21	c2 08 00	 ret	 8
_TEXT	ENDS
text$x	SEGMENT
$L203361:
  00185	8d 4d 0c	 lea	 ecx, DWORD PTR _name$[ebp]
  00188	ff 25 00 00 00
	00		 jmp	 DWORD PTR __imp_??1?$CStringT@DV?$StrTraitMFC_DLL@DV?$ChTraitsCRT@D@ATL@@@@@ATL@@QAE@XZ
$L203362:
  0018e	8d 4d ec	 lea	 ecx, DWORD PTR _key$[ebp]
  00191	ff 25 00 00 00
	00		 jmp	 DWORD PTR __imp_??1?$CStringT@DV?$StrTraitMFC_DLL@DV?$ChTraitsCRT@D@ATL@@@@@ATL@@QAE@XZ
$L203363:
  00197	8d 4d f0	 lea	 ecx, DWORD PTR _pane$[ebp]
  0019a	e9 00 00 00 00	 jmp	 ??1CPaneBase@ETSLayoutMgr@@QAE@XZ ; ETSLayoutMgr::CPaneBase::~CPaneBase
$L203364:
  0019f	8b 4d e0	 mov	 ecx, DWORD PTR $T203360[ebp]
  001a2	ff 25 00 00 00
	00		 jmp	 DWORD PTR __imp_??1?$CStringT@DV?$StrTraitMFC_DLL@DV?$ChTraitsCRT@D@ATL@@@@@ATL@@QAE@XZ
$L203365:
  001a8	8d 4d e4	 lea	 ecx, DWORD PTR _pSubPane$201139[ebp]
  001ab	e9 00 00 00 00	 jmp	 ??1CPaneBase@ETSLayoutMgr@@QAE@XZ ; ETSLayoutMgr::CPaneBase::~CPaneBase
$L203366:
  001b0	8b 45 dc	 mov	 eax, DWORD PTR $T203367[ebp]
  001b3	83 e0 01	 and	 eax, 1
  001b6	0f 84 0c 00 00
	00		 je	 $L203368
  001bc	83 65 dc fe	 and	 DWORD PTR $T203367[ebp], -2 ; fffffffeH
  001c0	8b 4d 08	 mov	 ecx, DWORD PTR ___$ReturnUdt$[ebp]
  001c3	e9 00 00 00 00	 jmp	 ??1CPaneBase@ETSLayoutMgr@@QAE@XZ ; ETSLayoutMgr::CPaneBase::~CPaneBase
$L203368:
  001c8	c3		 ret	 0
__ehhandler$?GetSubPane@PaneMulti@ETSLayoutMgr@@UAE?AVCPaneBase@2@V?$CStringT@DV?$StrTraitMFC_DLL@DV?$ChTraitsCRT@D@ATL@@@@@ATL@@@Z:
  001c9	b8 00 00 00 00	 mov	 eax, OFFSET FLAT:$T203370
  001ce	e9 00 00 00 00	 jmp	 ___CxxFrameHandler
text$x	ENDS
?GetSubPane@PaneMulti@ETSLayoutMgr@@UAE?AVCPaneBase@2@V?$CStringT@DV?$StrTraitMFC_DLL@DV?$ChTraitsCRT@D@ATL@@@@@ATL@@@Z ENDP ; ETSLayoutMgr::PaneMulti::GetSubPane
PUBLIC	?addLayer@PaneMulti@ETSLayoutMgr@@UAEXV?$CStringT@DV?$StrTraitMFC_DLL@DV?$ChTraitsCRT@D@ATL@@@@@ATL@@VCPaneBase@2@@Z ; ETSLayoutMgr::PaneMulti::addLayer
PUBLIC	?SetAt@?$CMap@V?$CStringT@DV?$StrTraitMFC_DLL@DV?$ChTraitsCRT@D@ATL@@@@@ATL@@PBDVCPaneBase@ETSLayoutMgr@@V34@@@QAEXPBDVCPaneBase@ETSLayoutMgr@@@Z ; CMap<ATL::CStringT<char,StrTraitMFC_DLL<char,ATL::ChTraitsCRT<char> > >,char const *,ETSLayoutMgr::CPaneBase,ETSLayoutMgr::CPaneBase>::SetAt
EXTRN	__imp_??B?$CSimpleStringT@D$00@ATL@@QBEPBDXZ:NEAR
xdata$x	SEGMENT
$T203381 DD	0ffffffffH
	DD	FLAT:$L203375
	DD	00H
	DD	FLAT:$L203376
$T203379 DD	019930520H
	DD	02H
	DD	FLAT:$T203381
	DD	2 DUP(00H)
	DD	2 DUP(00H)
; Function compile flags: /Odt
xdata$x	ENDS
_TEXT	SEGMENT
tv95 = -28						; size = 4
tv69 = -24						; size = 4
_this$ = -20						; size = 4
$T203374 = -16						; size = 4
__$EHRec$ = -12						; size = 12
_name$ = 8						; size = 4
_pane$ = 12						; size = 4
?addLayer@PaneMulti@ETSLayoutMgr@@UAEXV?$CStringT@DV?$StrTraitMFC_DLL@DV?$ChTraitsCRT@D@ATL@@@@@ATL@@VCPaneBase@2@@Z PROC NEAR ; ETSLayoutMgr::PaneMulti::addLayer
; _this$ = ecx

; 561  : {

  01a30	55		 push	 ebp
  01a31	8b ec		 mov	 ebp, esp
  01a33	6a ff		 push	 -1
  01a35	68 00 00 00 00	 push	 __ehhandler$?addLayer@PaneMulti@ETSLayoutMgr@@UAEXV?$CStringT@DV?$StrTraitMFC_DLL@DV?$ChTraitsCRT@D@ATL@@@@@ATL@@VCPaneBase@2@@Z
  01a3a	64 a1 00 00 00
	00		 mov	 eax, DWORD PTR fs:__except_list
  01a40	50		 push	 eax
  01a41	64 89 25 00 00
	00 00		 mov	 DWORD PTR fs:__except_list, esp
  01a48	83 ec 10	 sub	 esp, 16			; 00000010H
  01a4b	89 4d ec	 mov	 DWORD PTR _this$[ebp], ecx
  01a4e	c7 45 fc 01 00
	00 00		 mov	 DWORD PTR __$EHRec$[ebp+8], 1

; 562  : 	pane->showPane(false);

  01a55	8d 4d 0c	 lea	 ecx, DWORD PTR _pane$[ebp]
  01a58	e8 00 00 00 00	 call	 ??CCPaneBase@ETSLayoutMgr@@QBEPAVPaneBase@1@XZ ; ETSLayoutMgr::CPaneBase::operator->
  01a5d	89 45 e8	 mov	 DWORD PTR tv69[ebp], eax
  01a60	6a 00		 push	 0
  01a62	8b 45 e8	 mov	 eax, DWORD PTR tv69[ebp]
  01a65	8b 10		 mov	 edx, DWORD PTR [eax]
  01a67	8b 4d e8	 mov	 ecx, DWORD PTR tv69[ebp]
  01a6a	ff 52 24	 call	 DWORD PTR [edx+36]

; 563  : 	m_mapLayers.SetAt(name, pane);

  01a6d	51		 push	 ecx
  01a6e	8b cc		 mov	 ecx, esp
  01a70	89 65 f0	 mov	 DWORD PTR $T203374[ebp], esp
  01a73	8d 45 0c	 lea	 eax, DWORD PTR _pane$[ebp]
  01a76	50		 push	 eax
  01a77	e8 00 00 00 00	 call	 ??0CPaneBase@ETSLayoutMgr@@QAE@ABV01@@Z ; ETSLayoutMgr::CPaneBase::CPaneBase
  01a7c	89 45 e4	 mov	 DWORD PTR tv95[ebp], eax
  01a7f	8d 4d 08	 lea	 ecx, DWORD PTR _name$[ebp]
  01a82	ff 15 00 00 00
	00		 call	 DWORD PTR __imp_??B?$CSimpleStringT@D$00@ATL@@QBEPBDXZ
  01a88	50		 push	 eax
  01a89	8b 4d ec	 mov	 ecx, DWORD PTR _this$[ebp]
  01a8c	81 c1 8c 00 00
	00		 add	 ecx, 140		; 0000008cH
  01a92	e8 00 00 00 00	 call	 ?SetAt@?$CMap@V?$CStringT@DV?$StrTraitMFC_DLL@DV?$ChTraitsCRT@D@ATL@@@@@ATL@@PBDVCPaneBase@ETSLayoutMgr@@V34@@@QAEXPBDVCPaneBase@ETSLayoutMgr@@@Z ; CMap<ATL::CStringT<char,StrTraitMFC_DLL<char,ATL::ChTraitsCRT<char> > >,char const *,ETSLayoutMgr::CPaneBase,ETSLayoutMgr::CPaneBase>::SetAt

; 564  : }

  01a97	c6 45 fc 00	 mov	 BYTE PTR __$EHRec$[ebp+8], 0
  01a9b	8d 4d 08	 lea	 ecx, DWORD PTR _name$[ebp]
  01a9e	ff 15 00 00 00
	00		 call	 DWORD PTR __imp_??1?$CStringT@DV?$StrTraitMFC_DLL@DV?$ChTraitsCRT@D@ATL@@@@@ATL@@QAE@XZ
  01aa4	c7 45 fc ff ff
	ff ff		 mov	 DWORD PTR __$EHRec$[ebp+8], -1
  01aab	8d 4d 0c	 lea	 ecx, DWORD PTR _pane$[ebp]
  01aae	e8 00 00 00 00	 call	 ??1CPaneBase@ETSLayoutMgr@@QAE@XZ ; ETSLayoutMgr::CPaneBase::~CPaneBase
  01ab3	8b 4d f4	 mov	 ecx, DWORD PTR __$EHRec$[ebp]
  01ab6	64 89 0d 00 00
	00 00		 mov	 DWORD PTR fs:__except_list, ecx
  01abd	8b e5		 mov	 esp, ebp
  01abf	5d		 pop	 ebp
  01ac0	c2 08 00	 ret	 8
_TEXT	ENDS
text$x	SEGMENT
$L203375:
  001d3	8d 4d 0c	 lea	 ecx, DWORD PTR _pane$[ebp]
  001d6	e9 00 00 00 00	 jmp	 ??1CPaneBase@ETSLayoutMgr@@QAE@XZ ; ETSLayoutMgr::CPaneBase::~CPaneBase
$L203376:
  001db	8d 4d 08	 lea	 ecx, DWORD PTR _name$[ebp]
  001de	ff 25 00 00 00
	00		 jmp	 DWORD PTR __imp_??1?$CStringT@DV?$StrTraitMFC_DLL@DV?$ChTraitsCRT@D@ATL@@@@@ATL@@QAE@XZ
__ehhandler$?addLayer@PaneMulti@ETSLayoutMgr@@UAEXV?$CStringT@DV?$StrTraitMFC_DLL@DV?$ChTraitsCRT@D@ATL@@@@@ATL@@VCPaneBase@2@@Z:
  001e4	b8 00 00 00 00	 mov	 eax, OFFSET FLAT:$T203379
  001e9	e9 00 00 00 00	 jmp	 ___CxxFrameHandler
text$x	ENDS
?addLayer@PaneMulti@ETSLayoutMgr@@UAEXV?$CStringT@DV?$StrTraitMFC_DLL@DV?$ChTraitsCRT@D@ATL@@@@@ATL@@VCPaneBase@2@@Z ENDP ; ETSLayoutMgr::PaneMulti::addLayer
PUBLIC	?getCurrent@PaneMulti@ETSLayoutMgr@@QAE?AV?$CStringT@DV?$StrTraitMFC_DLL@DV?$ChTraitsCRT@D@ATL@@@@@ATL@@XZ ; ETSLayoutMgr::PaneMulti::getCurrent
; Function compile flags: /Odt
_TEXT	SEGMENT
_this$ = -8						; size = 4
$T203384 = -4						; size = 4
___$ReturnUdt$ = 8					; size = 4
?getCurrent@PaneMulti@ETSLayoutMgr@@QAE?AV?$CStringT@DV?$StrTraitMFC_DLL@DV?$ChTraitsCRT@D@ATL@@@@@ATL@@XZ PROC NEAR ; ETSLayoutMgr::PaneMulti::getCurrent
; _this$ = ecx

; 567  : {

  01ad0	55		 push	 ebp
  01ad1	8b ec		 mov	 ebp, esp
  01ad3	83 ec 08	 sub	 esp, 8
  01ad6	89 4d f8	 mov	 DWORD PTR _this$[ebp], ecx
  01ad9	c7 45 fc 00 00
	00 00		 mov	 DWORD PTR $T203384[ebp], 0

; 568  : 	return this->m_strCurrent;

  01ae0	8b 45 f8	 mov	 eax, DWORD PTR _this$[ebp]
  01ae3	05 84 00 00 00	 add	 eax, 132		; 00000084H
  01ae8	50		 push	 eax
  01ae9	8b 4d 08	 mov	 ecx, DWORD PTR ___$ReturnUdt$[ebp]
  01aec	ff 15 00 00 00
	00		 call	 DWORD PTR __imp_??0?$CStringT@DV?$StrTraitMFC_DLL@DV?$ChTraitsCRT@D@ATL@@@@@ATL@@QAE@ABV01@@Z
  01af2	8b 4d fc	 mov	 ecx, DWORD PTR $T203384[ebp]
  01af5	83 c9 01	 or	 ecx, 1
  01af8	89 4d fc	 mov	 DWORD PTR $T203384[ebp], ecx
  01afb	8b 45 08	 mov	 eax, DWORD PTR ___$ReturnUdt$[ebp]

; 569  : }

  01afe	8b e5		 mov	 esp, ebp
  01b00	5d		 pop	 ebp
  01b01	c2 04 00	 ret	 4
?getCurrent@PaneMulti@ETSLayoutMgr@@QAE?AV?$CStringT@DV?$StrTraitMFC_DLL@DV?$ChTraitsCRT@D@ATL@@@@@ATL@@XZ ENDP ; ETSLayoutMgr::PaneMulti::getCurrent
_TEXT	ENDS
PUBLIC	?RemoveAll@?$CArray@VCPaneBase@ETSLayoutMgr@@V12@@@QAEXXZ ; CArray<ETSLayoutMgr::CPaneBase,ETSLayoutMgr::CPaneBase>::RemoveAll
PUBLIC	?Lookup@?$CMap@V?$CStringT@DV?$StrTraitMFC_DLL@DV?$ChTraitsCRT@D@ATL@@@@@ATL@@PBDVCPaneBase@ETSLayoutMgr@@V34@@@QBEHPBDAAVCPaneBase@ETSLayoutMgr@@@Z ; CMap<ATL::CStringT<char,StrTraitMFC_DLL<char,ATL::ChTraitsCRT<char> > >,char const *,ETSLayoutMgr::CPaneBase,ETSLayoutMgr::CPaneBase>::Lookup
PUBLIC	?setCurrent@PaneMulti@ETSLayoutMgr@@QAE_NV?$CStringT@DV?$StrTraitMFC_DLL@DV?$ChTraitsCRT@D@ATL@@@@@ATL@@_N@Z ; ETSLayoutMgr::PaneMulti::setCurrent
EXTRN	__imp_??4?$CStringT@DV?$StrTraitMFC_DLL@DV?$ChTraitsCRT@D@ATL@@@@@ATL@@QAEAAV01@ABV01@@Z:NEAR
EXTRN	?AfxGetUIManager@@YAPAVIUIManager@@XZ:NEAR	; AfxGetUIManager
xdata$x	SEGMENT
$T203398 DD	0ffffffffH
	DD	FLAT:$L203391
	DD	00H
	DD	FLAT:$L203392
	DD	00H
	DD	FLAT:$L203393
$T203396 DD	019930520H
	DD	03H
	DD	FLAT:$T203398
	DD	2 DUP(00H)
	DD	2 DUP(00H)
; Function compile flags: /Odt
xdata$x	ENDS
_TEXT	SEGMENT
tv225 = -104						; size = 4
tv244 = -100						; size = 4
tv180 = -96						; size = 4
tv175 = -92						; size = 4
tv242 = -88						; size = 4
tv131 = -84						; size = 4
tv165 = -80						; size = 4
tv153 = -76						; size = 4
_this$ = -72						; size = 4
$T203390 = -65						; size = 1
$T203389 = -64						; size = 4
$T203388 = -60						; size = 4
$T203387 = -56						; size = 16
_pWnd$201167 = -40					; size = 4
_pos$201163 = -36					; size = 4
_key$201164 = -32					; size = 4
_rect$ = -28						; size = 16
__$EHRec$ = -12						; size = 12
_name$ = 8						; size = 4
_bRedraw$ = 12						; size = 1
?setCurrent@PaneMulti@ETSLayoutMgr@@QAE_NV?$CStringT@DV?$StrTraitMFC_DLL@DV?$ChTraitsCRT@D@ATL@@@@@ATL@@_N@Z PROC NEAR ; ETSLayoutMgr::PaneMulti::setCurrent
; _this$ = ecx

; 571  : {

  01b10	55		 push	 ebp
  01b11	8b ec		 mov	 ebp, esp
  01b13	6a ff		 push	 -1
  01b15	68 00 00 00 00	 push	 __ehhandler$?setCurrent@PaneMulti@ETSLayoutMgr@@QAE_NV?$CStringT@DV?$StrTraitMFC_DLL@DV?$ChTraitsCRT@D@ATL@@@@@ATL@@_N@Z
  01b1a	64 a1 00 00 00
	00		 mov	 eax, DWORD PTR fs:__except_list
  01b20	50		 push	 eax
  01b21	64 89 25 00 00
	00 00		 mov	 DWORD PTR fs:__except_list, esp
  01b28	83 ec 5c	 sub	 esp, 92			; 0000005cH
  01b2b	56		 push	 esi
  01b2c	89 4d b8	 mov	 DWORD PTR _this$[ebp], ecx
  01b2f	c7 45 fc 00 00
	00 00		 mov	 DWORD PTR __$EHRec$[ebp+8], 0

; 572  : 
; 573  : 	CRect rect = CRect(0,0,-1,-1);

  01b36	6a ff		 push	 -1
  01b38	6a ff		 push	 -1
  01b3a	6a 00		 push	 0
  01b3c	6a 00		 push	 0
  01b3e	8d 4d e4	 lea	 ecx, DWORD PTR _rect$[ebp]
  01b41	e8 00 00 00 00	 call	 ??0CRect@@QAE@HHHH@Z	; CRect::CRect

; 574  : 	showPane(false);

  01b46	6a 00		 push	 0
  01b48	8b 45 b8	 mov	 eax, DWORD PTR _this$[ebp]
  01b4b	8b 10		 mov	 edx, DWORD PTR [eax]
  01b4d	8b 4d b8	 mov	 ecx, DWORD PTR _this$[ebp]
  01b50	ff 52 24	 call	 DWORD PTR [edx+36]

; 575  : 
; 576  : 	if(m_paneCurrent.IsValid())

  01b53	8b 4d b8	 mov	 ecx, DWORD PTR _this$[ebp]
  01b56	81 c1 88 00 00
	00		 add	 ecx, 136		; 00000088H
  01b5c	e8 00 00 00 00	 call	 ?IsValid@CPaneBase@ETSLayoutMgr@@QAE_NXZ ; ETSLayoutMgr::CPaneBase::IsValid
  01b61	0f b6 c0	 movzx	 eax, al
  01b64	85 c0		 test	 eax, eax
  01b66	74 30		 je	 SHORT $L201160

; 577  : 	{
; 578  : 		rect = m_paneCurrent.GetPaneBase()->getPaneRect();

  01b68	8d 4d c8	 lea	 ecx, DWORD PTR $T203387[ebp]
  01b6b	51		 push	 ecx
  01b6c	8b 4d b8	 mov	 ecx, DWORD PTR _this$[ebp]
  01b6f	81 c1 88 00 00
	00		 add	 ecx, 136		; 00000088H
  01b75	e8 00 00 00 00	 call	 ?GetPaneBase@CPaneBase@ETSLayoutMgr@@QAEPAVPaneBase@2@XZ ; ETSLayoutMgr::CPaneBase::GetPaneBase
  01b7a	8b c8		 mov	 ecx, eax
  01b7c	e8 00 00 00 00	 call	 ?getPaneRect@PaneBase@ETSLayoutMgr@@QAE?AVCRect@@XZ ; ETSLayoutMgr::PaneBase::getPaneRect
  01b81	8b 10		 mov	 edx, DWORD PTR [eax]
  01b83	89 55 e4	 mov	 DWORD PTR _rect$[ebp], edx
  01b86	8b 48 04	 mov	 ecx, DWORD PTR [eax+4]
  01b89	89 4d e8	 mov	 DWORD PTR _rect$[ebp+4], ecx
  01b8c	8b 50 08	 mov	 edx, DWORD PTR [eax+8]
  01b8f	89 55 ec	 mov	 DWORD PTR _rect$[ebp+8], edx
  01b92	8b 40 0c	 mov	 eax, DWORD PTR [eax+12]
  01b95	89 45 f0	 mov	 DWORD PTR _rect$[ebp+12], eax
$L201160:

; 579  : 	}
; 580  : 
; 581  : 	if(!m_mapLayers.Lookup(name, m_paneCurrent))

  01b98	8b 4d b8	 mov	 ecx, DWORD PTR _this$[ebp]
  01b9b	81 c1 88 00 00
	00		 add	 ecx, 136		; 00000088H
  01ba1	51		 push	 ecx
  01ba2	8d 4d 08	 lea	 ecx, DWORD PTR _name$[ebp]
  01ba5	ff 15 00 00 00
	00		 call	 DWORD PTR __imp_??B?$CSimpleStringT@D$00@ATL@@QBEPBDXZ
  01bab	50		 push	 eax
  01bac	8b 4d b8	 mov	 ecx, DWORD PTR _this$[ebp]
  01baf	81 c1 8c 00 00
	00		 add	 ecx, 140		; 0000008cH
  01bb5	e8 00 00 00 00	 call	 ?Lookup@?$CMap@V?$CStringT@DV?$StrTraitMFC_DLL@DV?$ChTraitsCRT@D@ATL@@@@@ATL@@PBDVCPaneBase@ETSLayoutMgr@@V34@@@QBEHPBDAAVCPaneBase@ETSLayoutMgr@@@Z ; CMap<ATL::CStringT<char,StrTraitMFC_DLL<char,ATL::ChTraitsCRT<char> > >,char const *,ETSLayoutMgr::CPaneBase,ETSLayoutMgr::CPaneBase>::Lookup
  01bba	85 c0		 test	 eax, eax
  01bbc	75 51		 jne	 SHORT $L201162

; 582  : 	{
; 583  : 		//currentlayer
; 584  : 		POSITION pos = m_mapLayers.GetStartPosition();

  01bbe	8b 4d b8	 mov	 ecx, DWORD PTR _this$[ebp]
  01bc1	81 c1 8c 00 00
	00		 add	 ecx, 140		; 0000008cH
  01bc7	e8 00 00 00 00	 call	 ?GetStartPosition@?$CMap@V?$CStringT@DV?$StrTraitMFC_DLL@DV?$ChTraitsCRT@D@ATL@@@@@ATL@@PBDVCPaneBase@ETSLayoutMgr@@V34@@@QBEPAU__POSITION@@XZ ; CMap<ATL::CStringT<char,StrTraitMFC_DLL<char,ATL::ChTraitsCRT<char> > >,char const *,ETSLayoutMgr::CPaneBase,ETSLayoutMgr::CPaneBase>::GetStartPosition
  01bcc	89 45 dc	 mov	 DWORD PTR _pos$201163[ebp], eax

; 585  : 		CString key;

  01bcf	8d 4d e0	 lea	 ecx, DWORD PTR _key$201164[ebp]
  01bd2	ff 15 00 00 00
	00		 call	 DWORD PTR __imp_??0?$CStringT@DV?$StrTraitMFC_DLL@DV?$ChTraitsCRT@D@ATL@@@@@ATL@@QAE@XZ
  01bd8	c6 45 fc 01	 mov	 BYTE PTR __$EHRec$[ebp+8], 1

; 586  : 		if (pos != NULL)

  01bdc	83 7d dc 00	 cmp	 DWORD PTR _pos$201163[ebp], 0
  01be0	74 20		 je	 SHORT $L201165

; 587  : 		{
; 588  : 			m_mapLayers.GetNextAssoc( pos, key, m_paneCurrent );

  01be2	8b 55 b8	 mov	 edx, DWORD PTR _this$[ebp]
  01be5	81 c2 88 00 00
	00		 add	 edx, 136		; 00000088H
  01beb	52		 push	 edx
  01bec	8d 45 e0	 lea	 eax, DWORD PTR _key$201164[ebp]
  01bef	50		 push	 eax
  01bf0	8d 4d dc	 lea	 ecx, DWORD PTR _pos$201163[ebp]
  01bf3	51		 push	 ecx
  01bf4	8b 4d b8	 mov	 ecx, DWORD PTR _this$[ebp]
  01bf7	81 c1 8c 00 00
	00		 add	 ecx, 140		; 0000008cH
  01bfd	e8 00 00 00 00	 call	 ?GetNextAssoc@?$CMap@V?$CStringT@DV?$StrTraitMFC_DLL@DV?$ChTraitsCRT@D@ATL@@@@@ATL@@PBDVCPaneBase@ETSLayoutMgr@@V34@@@QBEXAAPAU__POSITION@@AAV?$CStringT@DV?$StrTraitMFC_DLL@DV?$ChTraitsCRT@D@ATL@@@@@ATL@@AAVCPaneBase@ETSLayoutMgr@@@Z ; CMap<ATL::CStringT<char,StrTraitMFC_DLL<char,ATL::ChTraitsCRT<char> > >,char const *,ETSLayoutMgr::CPaneBase,ETSLayoutMgr::CPaneBase>::GetNextAssoc
$L201165:

; 589  : 		}
; 590  : 		//else
; 591  : 		//showPane(true);
; 592  : 		//return false;
; 593  : 	}

  01c02	c6 45 fc 00	 mov	 BYTE PTR __$EHRec$[ebp+8], 0
  01c06	8d 4d e0	 lea	 ecx, DWORD PTR _key$201164[ebp]
  01c09	ff 15 00 00 00
	00		 call	 DWORD PTR __imp_??1?$CStringT@DV?$StrTraitMFC_DLL@DV?$ChTraitsCRT@D@ATL@@@@@ATL@@QAE@XZ
$L201162:

; 594  : 	m_paneItems.RemoveAll();

  01c0f	8b 4d b8	 mov	 ecx, DWORD PTR _this$[ebp]
  01c12	83 c1 64	 add	 ecx, 100		; 00000064H
