; Listing generated by Microsoft (R) Optimizing Compiler Version 13.10.3077 

	TITLE	.\src\LayoutMgr\ETSLayout.cpp
	.386P
include listing.inc
if @Version gt 510
.model FLAT
else
_TEXT	SEGMENT PARA USE32 PUBLIC 'CODE'
_TEXT	ENDS
_DATA	SEGMENT DWORD USE32 PUBLIC 'DATA'
_DATA	ENDS
CONST	SEGMENT DWORD USE32 PUBLIC 'CONST'
CONST	ENDS
_BSS	SEGMENT DWORD USE32 PUBLIC 'BSS'
_BSS	ENDS
$$SYMBOLS	SEGMENT BYTE USE32 'DEBSYM'
$$SYMBOLS	ENDS
$$TYPES	SEGMENT BYTE USE32 'DEBTYP'
$$TYPES	ENDS
_TLS	SEGMENT DWORD USE32 PUBLIC 'TLS'
_TLS	ENDS
;	COMDAT ??_C@_02PGHGPEOM@?91?$AA@
CONST	SEGMENT DWORD USE32 PUBLIC 'CONST'
CONST	ENDS
;	COMDAT ??_C@_04JAADICNI@?5?$DN?1?$FL?$AA@
CONST	SEGMENT DWORD USE32 PUBLIC 'CONST'
CONST	ENDS
;	COMDAT ??_C@_0L@GJIJNDEK@ISO?98859?91?$AA@
CONST	SEGMENT DWORD USE32 PUBLIC 'CONST'
CONST	ENDS
;	COMDAT ??_C@_01JLIPDDHJ@?3?$AA@
CONST	SEGMENT DWORD USE32 PUBLIC 'CONST'
CONST	ENDS
;	COMDAT ??_C@_04LJDDIHIK@?4bmp?$AA@
CONST	SEGMENT DWORD USE32 PUBLIC 'CONST'
CONST	ENDS
;	COMDAT ??_C@_0BE@JONHPENG@map?1set?$DMT?$DO?5too?5long?$AA@
CONST	SEGMENT DWORD USE32 PUBLIC 'CONST'
CONST	ENDS
rdata$r	SEGMENT DWORD USE32 PUBLIC 'CONST'
rdata$r	ENDS
xdata$x	SEGMENT DWORD USE32 PUBLIC 'CONST'
xdata$x	ENDS
text$AFX_COL1	SEGMENT PARA USE32 PUBLIC ''
text$AFX_COL1	ENDS
text$yc	SEGMENT PARA USE32 PUBLIC 'CODE'
text$yc	ENDS
CRT$XCA	SEGMENT DWORD USE32 PUBLIC 'DATA'
CRT$XCA	ENDS
CRT$XCU	SEGMENT DWORD USE32 PUBLIC 'DATA'
CRT$XCU	ENDS
CRT$XCL	SEGMENT DWORD USE32 PUBLIC 'DATA'
CRT$XCL	ENDS
CRT$XCC	SEGMENT DWORD USE32 PUBLIC 'DATA'
CRT$XCC	ENDS
CRT$XCZ	SEGMENT DWORD USE32 PUBLIC 'DATA'
CRT$XCZ	ENDS
text$yd	SEGMENT PARA USE32 PUBLIC 'CODE'
text$yd	ENDS
ATL$__m	SEGMENT DWORD USE32 PUBLIC ''
ATL$__m	ENDS
ATL$__z	SEGMENT DWORD USE32 PUBLIC ''
ATL$__z	ENDS
ATL$__a	SEGMENT DWORD USE32 PUBLIC ''
ATL$__a	ENDS
;	COMDAT ?GetSubPane@PaneBase@ETSLayoutMgr@@UAE?AVCPaneBase@2@V?$CStringT@DV?$StrTraitMFC_DLL@DV?$ChTraitsCRT@D@ATL@@@@@ATL@@@Z
_TEXT	SEGMENT PARA USE32 PUBLIC 'CODE'
_TEXT	ENDS
;	COMDAT ??0PaneBase@ETSLayoutMgr@@QAE@PAV1@@Z
_TEXT	SEGMENT PARA USE32 PUBLIC 'CODE'
_TEXT	ENDS
;	COMDAT ??1PaneBase@ETSLayoutMgr@@UAE@XZ
_TEXT	SEGMENT PARA USE32 PUBLIC 'CODE'
_TEXT	ENDS
;	COMDAT ?modeResize@PaneBase@ETSLayoutMgr@@QAEKXZ
_TEXT	SEGMENT PARA USE32 PUBLIC 'CODE'
_TEXT	ENDS
;	COMDAT ?getPaneRect@PaneBase@ETSLayoutMgr@@QAE?AVCRect@@XZ
_TEXT	SEGMENT PARA USE32 PUBLIC 'CODE'
_TEXT	ENDS
;	COMDAT ?SetName@PaneBase@ETSLayoutMgr@@QAEXV?$CStringT@DV?$StrTraitMFC_DLL@DV?$ChTraitsCRT@D@ATL@@@@@ATL@@@Z
_TEXT	SEGMENT PARA USE32 PUBLIC 'CODE'
_TEXT	ENDS
;	COMDAT ?GetName@PaneBase@ETSLayoutMgr@@QAE?AV?$CStringT@DV?$StrTraitMFC_DLL@DV?$ChTraitsCRT@D@ATL@@@@@ATL@@XZ
_TEXT	SEGMENT PARA USE32 PUBLIC 'CODE'
_TEXT	ENDS
;	COMDAT ?showPane@PaneBase@ETSLayoutMgr@@UAEX_N@Z
_TEXT	SEGMENT PARA USE32 PUBLIC 'CODE'
_TEXT	ENDS
;	COMDAT ?GetPaneBase@CPaneBase@ETSLayoutMgr@@QAEPAVPaneBase@2@XZ
_TEXT	SEGMENT PARA USE32 PUBLIC 'CODE'
_TEXT	ENDS
;	COMDAT ?IsValid@CPaneBase@ETSLayoutMgr@@QAE_NXZ
_TEXT	SEGMENT PARA USE32 PUBLIC 'CODE'
_TEXT	ENDS
;	COMDAT ??7CPaneBase@ETSLayoutMgr@@QAE_NXZ
_TEXT	SEGMENT PARA USE32 PUBLIC 'CODE'
_TEXT	ENDS
;	COMDAT ?GetPane@CPane@ETSLayoutMgr@@QAEPAVPane@2@XZ
_TEXT	SEGMENT PARA USE32 PUBLIC 'CODE'
_TEXT	ENDS
;	COMDAT ?getOrientation@Pane@ETSLayoutMgr@@QAE?AW4layOrientation@2@XZ
_TEXT	SEGMENT PARA USE32 PUBLIC 'CODE'
_TEXT	ENDS
;	COMDAT ??0ETSLayoutMgr@@QAE@PAVCWnd@@@Z
_TEXT	SEGMENT PARA USE32 PUBLIC 'CODE'
_TEXT	ENDS
;	COMDAT ?GetRect@ETSLayoutMgr@@UAE?AVCRect@@XZ
_TEXT	SEGMENT PARA USE32 PUBLIC 'CODE'
_TEXT	ENDS
;	COMDAT ?GetWnd@ETSLayoutMgr@@QAEPAVCWnd@@XZ
_TEXT	SEGMENT PARA USE32 PUBLIC 'CODE'
_TEXT	ENDS
;	COMDAT ?setRootBorders@ETSLayoutMgr@@QAEXHH@Z
_TEXT	SEGMENT PARA USE32 PUBLIC 'CODE'
_TEXT	ENDS
;	COMDAT ?UpdateLayout@ETSLayoutMgr@@UAEXVCPane@1@@Z
_TEXT	SEGMENT PARA USE32 PUBLIC 'CODE'
_TEXT	ENDS
;	COMDAT ?CreateRoot@ETSLayoutMgr@@QAE?AVCPane@1@W4layOrientation@1@HH@Z
_TEXT	SEGMENT PARA USE32 PUBLIC 'CODE'
_TEXT	ENDS
;	COMDAT ??_GPaneBase@ETSLayoutMgr@@UAEPAXI@Z
_TEXT	SEGMENT PARA USE32 PUBLIC 'CODE'
_TEXT	ENDS
;	COMDAT ??_GETSLayoutMgr@@UAEPAXI@Z
_TEXT	SEGMENT PARA USE32 PUBLIC 'CODE'
_TEXT	ENDS
;	COMDAT ?Initialize@ETSLayoutDialogBar@@UAEHXZ
_TEXT	SEGMENT PARA USE32 PUBLIC 'CODE'
_TEXT	ENDS
;	COMDAT ??0CMarkup@@QAE@XZ
_TEXT	SEGMENT PARA USE32 PUBLIC 'CODE'
_TEXT	ENDS
;	COMDAT ??1CMarkup@@UAE@XZ
_TEXT	SEGMENT PARA USE32 PUBLIC 'CODE'
_TEXT	ENDS
;	COMDAT ?AddElem@CMarkup@@QAE_NPBD0@Z
_TEXT	SEGMENT PARA USE32 PUBLIC 'CODE'
_TEXT	ENDS
;	COMDAT ?AddChildElem@CMarkup@@QAE_NPBD0@Z
_TEXT	SEGMENT PARA USE32 PUBLIC 'CODE'
_TEXT	ENDS
;	COMDAT ??0ElemPos@CMarkup@@QAE@XZ
_TEXT	SEGMENT PARA USE32 PUBLIC 'CODE'
_TEXT	ENDS
;	COMDAT ?Clear@ElemPos@CMarkup@@QAEXXZ
_TEXT	SEGMENT PARA USE32 PUBLIC 'CODE'
_TEXT	ENDS
;	COMDAT ?Clear@TokenPos@CMarkup@@QAEXXZ
_TEXT	SEGMENT PARA USE32 PUBLIC 'CODE'
_TEXT	ENDS
;	COMDAT ?x_SetPos@CMarkup@@IAEXHHH@Z
_TEXT	SEGMENT PARA USE32 PUBLIC 'CODE'
_TEXT	ENDS
;	COMDAT ??_GCMarkup@@UAEPAXI@Z
_TEXT	SEGMENT PARA USE32 PUBLIC 'CODE'
_TEXT	ENDS
;	COMDAT ?AddElem@CMarkupArchive@@UAE_NPBD0@Z
_TEXT	SEGMENT PARA USE32 PUBLIC 'CODE'
_TEXT	ENDS
;	COMDAT ?AddChildElem@CMarkupArchive@@UAE_NPBD0@Z
_TEXT	SEGMENT PARA USE32 PUBLIC 'CODE'
_TEXT	ENDS
;	COMDAT ?FindElem@CMarkupArchive@@UAE_NPBD@Z
_TEXT	SEGMENT PARA USE32 PUBLIC 'CODE'
_TEXT	ENDS
;	COMDAT ?FindChildElem@CMarkupArchive@@UAE_NPBD@Z
_TEXT	SEGMENT PARA USE32 PUBLIC 'CODE'
_TEXT	ENDS
;	COMDAT ??_GCMarkupArchive@@UAEPAXI@Z
_TEXT	SEGMENT PARA USE32 PUBLIC 'CODE'
_TEXT	ENDS
;	COMDAT ??1?$pair@$$CBV?$CStringT@DV?$StrTraitMFC_DLL@DV?$ChTraitsCRT@D@ATL@@@@@ATL@@PAVCDibBitmap@@@std@@QAE@XZ
_TEXT	SEGMENT PARA USE32 PUBLIC 'CODE'
_TEXT	ENDS
;	COMDAT ??_GPaneItem@ETSLayoutMgr@@UAEPAXI@Z
_TEXT	SEGMENT PARA USE32 PUBLIC 'CODE'
_TEXT	ENDS
;	COMDAT ??1PaneItem@ETSLayoutMgr@@UAE@XZ
_TEXT	SEGMENT PARA USE32 PUBLIC 'CODE'
_TEXT	ENDS
;	COMDAT ??_GPaneTab@ETSLayoutMgr@@UAEPAXI@Z
_TEXT	SEGMENT PARA USE32 PUBLIC 'CODE'
_TEXT	ENDS
;	COMDAT ??1PaneTab@ETSLayoutMgr@@UAE@XZ
_TEXT	SEGMENT PARA USE32 PUBLIC 'CODE'
_TEXT	ENDS
;	COMDAT ??_GPaneCtrl@ETSLayoutMgr@@UAEPAXI@Z
_TEXT	SEGMENT PARA USE32 PUBLIC 'CODE'
_TEXT	ENDS
;	COMDAT ??1PaneCtrl@ETSLayoutMgr@@UAE@XZ
_TEXT	SEGMENT PARA USE32 PUBLIC 'CODE'
_TEXT	ENDS
;	COMDAT ??_GPane@ETSLayoutMgr@@UAEPAXI@Z
_TEXT	SEGMENT PARA USE32 PUBLIC 'CODE'
_TEXT	ENDS
;	COMDAT ??_GETSLayoutDialog@@UAEPAXI@Z
_TEXT	SEGMENT PARA USE32 PUBLIC 'CODE'
_TEXT	ENDS
;	COMDAT ??1ETSLayoutDialog@@UAE@XZ
_TEXT	SEGMENT PARA USE32 PUBLIC 'CODE'
_TEXT	ENDS
;	COMDAT ??_GETSLayoutDialogBar@@UAEPAXI@Z
_TEXT	SEGMENT PARA USE32 PUBLIC 'CODE'
_TEXT	ENDS
;	COMDAT ??1ETSLayoutDialogBar@@UAE@XZ
_TEXT	SEGMENT PARA USE32 PUBLIC 'CODE'
_TEXT	ENDS
;	COMDAT ??_GETSLayoutFormView@@UAEPAXI@Z
_TEXT	SEGMENT PARA USE32 PUBLIC 'CODE'
_TEXT	ENDS
;	COMDAT ??1CFormView@@UAE@XZ
_TEXT	SEGMENT PARA USE32 PUBLIC 'CODE'
_TEXT	ENDS
;	COMDAT ??_GETSLayoutPropertyPage@@UAEPAXI@Z
_TEXT	SEGMENT PARA USE32 PUBLIC 'CODE'
_TEXT	ENDS
;	COMDAT ??_GETSLayoutPropertySheet@@UAEPAXI@Z
_TEXT	SEGMENT PARA USE32 PUBLIC 'CODE'
_TEXT	ENDS
;	COMDAT ??_GPaneHolder@ETSLayoutMgr@@QAEPAXI@Z
_TEXT	SEGMENT PARA USE32 PUBLIC 'CODE'
_TEXT	ENDS
;	COMDAT ??HATL@@YA?AV?$CStringT@DV?$StrTraitMFC_DLL@DV?$ChTraitsCRT@D@ATL@@@@@0@ABV10@0@Z
_TEXT	SEGMENT PARA USE32 PUBLIC 'CODE'
_TEXT	ENDS
;	COMDAT ??HATL@@YA?AV?$CStringT@DV?$StrTraitMFC_DLL@DV?$ChTraitsCRT@D@ATL@@@@@0@ABV10@PBD@Z
_TEXT	SEGMENT PARA USE32 PUBLIC 'CODE'
_TEXT	ENDS
;	COMDAT ??8ATL@@YA_NABV?$CStringT@DV?$StrTraitMFC_DLL@DV?$ChTraitsCRT@D@ATL@@@@@0@0@Z
_TEXT	SEGMENT PARA USE32 PUBLIC 'CODE'
_TEXT	ENDS
;	COMDAT ??8ATL@@YA_NABV?$CStringT@DV?$StrTraitMFC_DLL@DV?$ChTraitsCRT@D@ATL@@@@@0@PBD@Z
_TEXT	SEGMENT PARA USE32 PUBLIC 'CODE'
_TEXT	ENDS
;	COMDAT ??B?$CComPtrBase@UITypeInfo2@@@ATL@@QBEPAUITypeInfo2@@XZ
_TEXT	SEGMENT PARA USE32 PUBLIC 'CODE'
_TEXT	ENDS
;	COMDAT ?equal@?$istreambuf_iterator@DU?$char_traits@D@std@@@std@@QBE_NABV12@@Z
_TEXT	SEGMENT PARA USE32 PUBLIC 'CODE'
_TEXT	ENDS
;	COMDAT ?equal@?$istreambuf_iterator@_WU?$char_traits@_W@std@@@std@@QBE_NABV12@@Z
_TEXT	SEGMENT PARA USE32 PUBLIC 'CODE'
_TEXT	ENDS
;	COMDAT ?insert@?$_Tree@V?$_Tmap_traits@V?$CStringT@DV?$StrTraitMFC_DLL@DV?$ChTraitsCRT@D@ATL@@@@@ATL@@PAVCDibBitmap@@U?$less@V?$CStringT@DV?$StrTraitMFC_DLL@DV?$ChTraitsCRT@D@ATL@@@@@ATL@@@std@@V?$allocator@U?$pair@$$CBV?$CStringT@DV?$StrTraitMFC_DLL@DV?$ChTraitsCRT@D@ATL@@@@@ATL@@PAVCDibBitmap@@@std@@@5@$0A@@std@@@std@@QAE?AU?$pair@Viterator@?$_Tree@V?$_Tmap_traits@V?$CStringT@DV?$StrTraitMFC_DLL@DV?$ChTraitsCRT@D@ATL@@@@@ATL@@PAVCDibBitmap@@U?$less@V?$CStringT@DV?$StrTraitMFC_DLL@DV?$ChTraitsCRT@D@ATL@@@@@ATL@@@std@@V?$allocator@U?$pair@$$CBV?$CStringT@DV?$StrTraitMFC_DLL@DV?$ChTraitsCRT@D@ATL@@@@@ATL@@PAVCDibBitmap@@@std@@@5@$0A@@std@@@std@@_N@2@ABU?$pair@$$CBV?$CStringT@DV?$StrTraitMFC_DLL@DV?$ChTraitsCRT@D@ATL@@@@@ATL@@PAVCDibBitmap@@@2@@Z
_TEXT	SEGMENT PARA USE32 PUBLIC 'CODE'
_TEXT	ENDS
;	COMDAT ??0?$pair@$$CBV?$CStringT@DV?$StrTraitMFC_DLL@DV?$ChTraitsCRT@D@ATL@@@@@ATL@@PAVCDibBitmap@@@std@@QAE@ABV?$CStringT@DV?$StrTraitMFC_DLL@DV?$ChTraitsCRT@D@ATL@@@@@ATL@@ABQAVCDibBitmap@@@Z
_TEXT	SEGMENT PARA USE32 PUBLIC 'CODE'
_TEXT	ENDS
;	COMDAT ?StringFindString@?$ChTraitsCRT@D@ATL@@SAPBDPBD0@Z
_TEXT	SEGMENT PARA USE32 PUBLIC 'CODE'
_TEXT	ENDS
;	COMDAT ?_Isnil@?$_Tree@V?$_Tmap_traits@V?$CStringT@DV?$StrTraitMFC_DLL@DV?$ChTraitsCRT@D@ATL@@@@@ATL@@PAVCDibBitmap@@U?$less@V?$CStringT@DV?$StrTraitMFC_DLL@DV?$ChTraitsCRT@D@ATL@@@@@ATL@@@std@@V?$allocator@U?$pair@$$CBV?$CStringT@DV?$StrTraitMFC_DLL@DV?$ChTraitsCRT@D@ATL@@@@@ATL@@PAVCDibBitmap@@@std@@@5@$0A@@std@@@std@@KAAADPAU_Node@?$_Tree_nod@V?$_Tmap_traits@V?$CStringT@DV?$StrTraitMFC_DLL@DV?$ChTraitsCRT@D@ATL@@@@@ATL@@PAVCDibBitmap@@U?$less@V?$CStringT@DV?$StrTraitMFC_DLL@DV?$ChTraitsCRT@D@ATL@@@@@ATL@@@std@@V?$allocator@U?$pair@$$CBV?$CStringT@DV?$StrTraitMFC_DLL@DV?$ChTraitsCRT@D@ATL@@@@@ATL@@PAVCDibBitmap@@@std@@@5@$0A@@std@@@2@@Z
_TEXT	SEGMENT PARA USE32 PUBLIC 'CODE'
_TEXT	ENDS
;	COMDAT ?_Key@?$_Tree@V?$_Tmap_traits@V?$CStringT@DV?$StrTraitMFC_DLL@DV?$ChTraitsCRT@D@ATL@@@@@ATL@@PAVCDibBitmap@@U?$less@V?$CStringT@DV?$StrTraitMFC_DLL@DV?$ChTraitsCRT@D@ATL@@@@@ATL@@@std@@V?$allocator@U?$pair@$$CBV?$CStringT@DV?$StrTraitMFC_DLL@DV?$ChTraitsCRT@D@ATL@@@@@ATL@@PAVCDibBitmap@@@std@@@5@$0A@@std@@@std@@KAABV?$CStringT@DV?$StrTraitMFC_DLL@DV?$ChTraitsCRT@D@ATL@@@@@ATL@@PAU_Node@?$_Tree_nod@V?$_Tmap_traits@V?$CStringT@DV?$StrTraitMFC_DLL@DV?$ChTraitsCRT@D@ATL@@@@@ATL@@PAVCDibBitmap@@U?$less@V?$CStringT@DV?$StrTraitMFC_DLL@DV?$ChTraitsCRT@D@ATL@@@@@ATL@@@std@@V?$allocator@U?$pair@$$CBV?$CStringT@DV?$StrTraitMFC_DLL@DV?$ChTraitsCRT@D@ATL@@@@@ATL@@PAVCDibBitmap@@@std@@@5@$0A@@std@@@2@@Z
_TEXT	SEGMENT PARA USE32 PUBLIC 'CODE'
_TEXT	ENDS
;	COMDAT ?_Left@?$_Tree@V?$_Tmap_traits@V?$CStringT@DV?$StrTraitMFC_DLL@DV?$ChTraitsCRT@D@ATL@@@@@ATL@@PAVCDibBitmap@@U?$less@V?$CStringT@DV?$StrTraitMFC_DLL@DV?$ChTraitsCRT@D@ATL@@@@@ATL@@@std@@V?$allocator@U?$pair@$$CBV?$CStringT@DV?$StrTraitMFC_DLL@DV?$ChTraitsCRT@D@ATL@@@@@ATL@@PAVCDibBitmap@@@std@@@5@$0A@@std@@@std@@KAAAPAU_Node@?$_Tree_nod@V?$_Tmap_traits@V?$CStringT@DV?$StrTraitMFC_DLL@DV?$ChTraitsCRT@D@ATL@@@@@ATL@@PAVCDibBitmap@@U?$less@V?$CStringT@DV?$StrTraitMFC_DLL@DV?$ChTraitsCRT@D@ATL@@@@@ATL@@@std@@V?$allocator@U?$pair@$$CBV?$CStringT@DV?$StrTraitMFC_DLL@DV?$ChTraitsCRT@D@ATL@@@@@ATL@@PAVCDibBitmap@@@std@@@5@$0A@@std@@@2@PAU342@@Z
_TEXT	SEGMENT PARA USE32 PUBLIC 'CODE'
_TEXT	ENDS
;	COMDAT ?_Right@?$_Tree@V?$_Tmap_traits@V?$CStringT@DV?$StrTraitMFC_DLL@DV?$ChTraitsCRT@D@ATL@@@@@ATL@@PAVCDibBitmap@@U?$less@V?$CStringT@DV?$StrTraitMFC_DLL@DV?$ChTraitsCRT@D@ATL@@@@@ATL@@@std@@V?$allocator@U?$pair@$$CBV?$CStringT@DV?$StrTraitMFC_DLL@DV?$ChTraitsCRT@D@ATL@@@@@ATL@@PAVCDibBitmap@@@std@@@5@$0A@@std@@@std@@KAAAPAU_Node@?$_Tree_nod@V?$_Tmap_traits@V?$CStringT@DV?$StrTraitMFC_DLL@DV?$ChTraitsCRT@D@ATL@@@@@ATL@@PAVCDibBitmap@@U?$less@V?$CStringT@DV?$StrTraitMFC_DLL@DV?$ChTraitsCRT@D@ATL@@@@@ATL@@@std@@V?$allocator@U?$pair@$$CBV?$CStringT@DV?$StrTraitMFC_DLL@DV?$ChTraitsCRT@D@ATL@@@@@ATL@@PAVCDibBitmap@@@std@@@5@$0A@@std@@@2@PAU342@@Z
_TEXT	SEGMENT PARA USE32 PUBLIC 'CODE'
_TEXT	ENDS
;	COMDAT ?begin@?$_Tree@V?$_Tmap_traits@V?$CStringT@DV?$StrTraitMFC_DLL@DV?$ChTraitsCRT@D@ATL@@@@@ATL@@PAVCDibBitmap@@U?$less@V?$CStringT@DV?$StrTraitMFC_DLL@DV?$ChTraitsCRT@D@ATL@@@@@ATL@@@std@@V?$allocator@U?$pair@$$CBV?$CStringT@DV?$StrTraitMFC_DLL@DV?$ChTraitsCRT@D@ATL@@@@@ATL@@PAVCDibBitmap@@@std@@@5@$0A@@std@@@std@@QAE?AViterator@12@XZ
_TEXT	SEGMENT PARA USE32 PUBLIC 'CODE'
_TEXT	ENDS
;	COMDAT ?_Insert@?$_Tree@V?$_Tmap_traits@V?$CStringT@DV?$StrTraitMFC_DLL@DV?$ChTraitsCRT@D@ATL@@@@@ATL@@PAVCDibBitmap@@U?$less@V?$CStringT@DV?$StrTraitMFC_DLL@DV?$ChTraitsCRT@D@ATL@@@@@ATL@@@std@@V?$allocator@U?$pair@$$CBV?$CStringT@DV?$StrTraitMFC_DLL@DV?$ChTraitsCRT@D@ATL@@@@@ATL@@PAVCDibBitmap@@@std@@@5@$0A@@std@@@std@@IAE?AViterator@12@_NPAU_Node@?$_Tree_nod@V?$_Tmap_traits@V?$CStringT@DV?$StrTraitMFC_DLL@DV?$ChTraitsCRT@D@ATL@@@@@ATL@@PAVCDibBitmap@@U?$less@V?$CStringT@DV?$StrTraitMFC_DLL@DV?$ChTraitsCRT@D@ATL@@@@@ATL@@@std@@V?$allocator@U?$pair@$$CBV?$CStringT@DV?$StrTraitMFC_DLL@DV?$ChTraitsCRT@D@ATL@@@@@ATL@@PAVCDibBitmap@@@std@@@5@$0A@@std@@@2@ABU?$pair@$$CBV?$CStringT@DV?$StrTraitMFC_DLL@DV?$ChTraitsCRT@D@ATL@@@@@ATL@@PAVCDibBitmap@@@2@@Z
_TEXT	SEGMENT PARA USE32 PUBLIC 'CODE'
_TEXT	ENDS
;	COMDAT ?_Root@?$_Tree@V?$_Tmap_traits@V?$CStringT@DV?$StrTraitMFC_DLL@DV?$ChTraitsCRT@D@ATL@@@@@ATL@@PAVCDibBitmap@@U?$less@V?$CStringT@DV?$StrTraitMFC_DLL@DV?$ChTraitsCRT@D@ATL@@@@@ATL@@@std@@V?$allocator@U?$pair@$$CBV?$CStringT@DV?$StrTraitMFC_DLL@DV?$ChTraitsCRT@D@ATL@@@@@ATL@@PAVCDibBitmap@@@std@@@5@$0A@@std@@@std@@IAEAAPAU_Node@?$_Tree_nod@V?$_Tmap_traits@V?$CStringT@DV?$StrTraitMFC_DLL@DV?$ChTraitsCRT@D@ATL@@@@@ATL@@PAVCDibBitmap@@U?$less@V?$CStringT@DV?$StrTraitMFC_DLL@DV?$ChTraitsCRT@D@ATL@@@@@ATL@@@std@@V?$allocator@U?$pair@$$CBV?$CStringT@DV?$StrTraitMFC_DLL@DV?$ChTraitsCRT@D@ATL@@@@@ATL@@PAVCDibBitmap@@@std@@@5@$0A@@std@@@2@XZ
_TEXT	SEGMENT PARA USE32 PUBLIC 'CODE'
_TEXT	ENDS
;	COMDAT ?_Kfn@?$_Tmap_traits@V?$CStringT@DV?$StrTraitMFC_DLL@DV?$ChTraitsCRT@D@ATL@@@@@ATL@@PAVCDibBitmap@@U?$less@V?$CStringT@DV?$StrTraitMFC_DLL@DV?$ChTraitsCRT@D@ATL@@@@@ATL@@@std@@V?$allocator@U?$pair@$$CBV?$CStringT@DV?$StrTraitMFC_DLL@DV?$ChTraitsCRT@D@ATL@@@@@ATL@@PAVCDibBitmap@@@std@@@5@$0A@@std@@SAABV?$CStringT@DV?$StrTraitMFC_DLL@DV?$ChTraitsCRT@D@ATL@@@@@ATL@@ABU?$pair@$$CBV?$CStringT@DV?$StrTraitMFC_DLL@DV?$ChTraitsCRT@D@ATL@@@@@ATL@@PAVCDibBitmap@@@2@@Z
_TEXT	SEGMENT PARA USE32 PUBLIC 'CODE'
_TEXT	ENDS
;	COMDAT ??R?$less@V?$CStringT@DV?$StrTraitMFC_DLL@DV?$ChTraitsCRT@D@ATL@@@@@ATL@@@std@@QBE_NABV?$CStringT@DV?$StrTraitMFC_DLL@DV?$ChTraitsCRT@D@ATL@@@@@ATL@@0@Z
_TEXT	SEGMENT PARA USE32 PUBLIC 'CODE'
_TEXT	ENDS
;	COMDAT ??0?$pair@Viterator@?$_Tree@V?$_Tmap_traits@V?$CStringT@DV?$StrTraitMFC_DLL@DV?$ChTraitsCRT@D@ATL@@@@@ATL@@PAVCDibBitmap@@U?$less@V?$CStringT@DV?$StrTraitMFC_DLL@DV?$ChTraitsCRT@D@ATL@@@@@ATL@@@std@@V?$allocator@U?$pair@$$CBV?$CStringT@DV?$StrTraitMFC_DLL@DV?$ChTraitsCRT@D@ATL@@@@@ATL@@PAVCDibBitmap@@@std@@@5@$0A@@std@@@std@@_N@std@@QAE@ABViterator@?$_Tree@V?$_Tmap_traits@V?$CStringT@DV?$StrTraitMFC_DLL@DV?$ChTraitsCRT@D@ATL@@@@@ATL@@PAVCDibBitmap@@U?$less@V?$CStringT@DV?$StrTraitMFC_DLL@DV?$ChTraitsCRT@D@ATL@@@@@ATL@@@std@@V?$allocator@U?$pair@$$CBV?$CStringT@DV?$StrTraitMFC_DLL@DV?$ChTraitsCRT@D@ATL@@@@@ATL@@PAVCDibBitmap@@@std@@@5@$0A@@std@@@1@AB_N@Z
_TEXT	SEGMENT PARA USE32 PUBLIC 'CODE'
_TEXT	ENDS
;	COMDAT ??0iterator@?$_Tree@V?$_Tmap_traits@V?$CStringT@DV?$StrTraitMFC_DLL@DV?$ChTraitsCRT@D@ATL@@@@@ATL@@PAVCDibBitmap@@U?$less@V?$CStringT@DV?$StrTraitMFC_DLL@DV?$ChTraitsCRT@D@ATL@@@@@ATL@@@std@@V?$allocator@U?$pair@$$CBV?$CStringT@DV?$StrTraitMFC_DLL@DV?$ChTraitsCRT@D@ATL@@@@@ATL@@PAVCDibBitmap@@@std@@@5@$0A@@std@@@std@@QAE@PAU_Node@?$_Tree_nod@V?$_Tmap_traits@V?$CStringT@DV?$StrTraitMFC_DLL@DV?$ChTraitsCRT@D@ATL@@@@@ATL@@PAVCDibBitmap@@U?$less@V?$CStringT@DV?$StrTraitMFC_DLL@DV?$ChTraitsCRT@D@ATL@@@@@ATL@@@std@@V?$allocator@U?$pair@$$CBV?$CStringT@DV?$StrTraitMFC_DLL@DV?$ChTraitsCRT@D@ATL@@@@@ATL@@PAVCDibBitmap@@@std@@@5@$0A@@std@@@2@@Z
_TEXT	SEGMENT PARA USE32 PUBLIC 'CODE'
_TEXT	ENDS
;	COMDAT ??Fiterator@?$_Tree@V?$_Tmap_traits@V?$CStringT@DV?$StrTraitMFC_DLL@DV?$ChTraitsCRT@D@ATL@@@@@ATL@@PAVCDibBitmap@@U?$less@V?$CStringT@DV?$StrTraitMFC_DLL@DV?$ChTraitsCRT@D@ATL@@@@@ATL@@@std@@V?$allocator@U?$pair@$$CBV?$CStringT@DV?$StrTraitMFC_DLL@DV?$ChTraitsCRT@D@ATL@@@@@ATL@@PAVCDibBitmap@@@std@@@5@$0A@@std@@@std@@QAEAAV012@XZ
_TEXT	SEGMENT PARA USE32 PUBLIC 'CODE'
_TEXT	ENDS
;	COMDAT ??8const_iterator@?$_Tree@V?$_Tmap_traits@V?$CStringT@DV?$StrTraitMFC_DLL@DV?$ChTraitsCRT@D@ATL@@@@@ATL@@PAVCDibBitmap@@U?$less@V?$CStringT@DV?$StrTraitMFC_DLL@DV?$ChTraitsCRT@D@ATL@@@@@ATL@@@std@@V?$allocator@U?$pair@$$CBV?$CStringT@DV?$StrTraitMFC_DLL@DV?$ChTraitsCRT@D@ATL@@@@@ATL@@PAVCDibBitmap@@@std@@@5@$0A@@std@@@std@@QBE_NABV012@@Z
_TEXT	SEGMENT PARA USE32 PUBLIC 'CODE'
_TEXT	ENDS
;	COMDAT ?_Mynode@const_iterator@?$_Tree@V?$_Tmap_traits@V?$CStringT@DV?$StrTraitMFC_DLL@DV?$ChTraitsCRT@D@ATL@@@@@ATL@@PAVCDibBitmap@@U?$less@V?$CStringT@DV?$StrTraitMFC_DLL@DV?$ChTraitsCRT@D@ATL@@@@@ATL@@@std@@V?$allocator@U?$pair@$$CBV?$CStringT@DV?$StrTraitMFC_DLL@DV?$ChTraitsCRT@D@ATL@@@@@ATL@@PAVCDibBitmap@@@std@@@5@$0A@@std@@@std@@QBEPAU_Node@?$_Tree_nod@V?$_Tmap_traits@V?$CStringT@DV?$StrTraitMFC_DLL@DV?$ChTraitsCRT@D@ATL@@@@@ATL@@PAVCDibBitmap@@U?$less@V?$CStringT@DV?$StrTraitMFC_DLL@DV?$ChTraitsCRT@D@ATL@@@@@ATL@@@std@@V?$allocator@U?$pair@$$CBV?$CStringT@DV?$StrTraitMFC_DLL@DV?$ChTraitsCRT@D@ATL@@@@@ATL@@PAVCDibBitmap@@@std@@@5@$0A@@std@@@3@XZ
_TEXT	SEGMENT PARA USE32 PUBLIC 'CODE'
_TEXT	ENDS
;	COMDAT ??0length_error@std@@QAE@ABV01@@Z
_TEXT	SEGMENT PARA USE32 PUBLIC 'CODE'
_TEXT	ENDS
;	COMDAT ??MATL@@YA_NABV?$CStringT@DV?$StrTraitMFC_DLL@DV?$ChTraitsCRT@D@ATL@@@@@0@0@Z
_TEXT	SEGMENT PARA USE32 PUBLIC 'CODE'
_TEXT	ENDS
;	COMDAT ?StringCompare@?$ChTraitsCRT@D@ATL@@SAHPBD0@Z
_TEXT	SEGMENT PARA USE32 PUBLIC 'CODE'
_TEXT	ENDS
;	COMDAT ?_Color@?$_Tree@V?$_Tmap_traits@V?$CStringT@DV?$StrTraitMFC_DLL@DV?$ChTraitsCRT@D@ATL@@@@@ATL@@PAVCDibBitmap@@U?$less@V?$CStringT@DV?$StrTraitMFC_DLL@DV?$ChTraitsCRT@D@ATL@@@@@ATL@@@std@@V?$allocator@U?$pair@$$CBV?$CStringT@DV?$StrTraitMFC_DLL@DV?$ChTraitsCRT@D@ATL@@@@@ATL@@PAVCDibBitmap@@@std@@@5@$0A@@std@@@std@@KAAADPAU_Node@?$_Tree_nod@V?$_Tmap_traits@V?$CStringT@DV?$StrTraitMFC_DLL@DV?$ChTraitsCRT@D@ATL@@@@@ATL@@PAVCDibBitmap@@U?$less@V?$CStringT@DV?$StrTraitMFC_DLL@DV?$ChTraitsCRT@D@ATL@@@@@ATL@@@std@@V?$allocator@U?$pair@$$CBV?$CStringT@DV?$StrTraitMFC_DLL@DV?$ChTraitsCRT@D@ATL@@@@@ATL@@PAVCDibBitmap@@@std@@@5@$0A@@std@@@2@@Z
_TEXT	SEGMENT PARA USE32 PUBLIC 'CODE'
_TEXT	ENDS
;	COMDAT ?_Parent@?$_Tree@V?$_Tmap_traits@V?$CStringT@DV?$StrTraitMFC_DLL@DV?$ChTraitsCRT@D@ATL@@@@@ATL@@PAVCDibBitmap@@U?$less@V?$CStringT@DV?$StrTraitMFC_DLL@DV?$ChTraitsCRT@D@ATL@@@@@ATL@@@std@@V?$allocator@U?$pair@$$CBV?$CStringT@DV?$StrTraitMFC_DLL@DV?$ChTraitsCRT@D@ATL@@@@@ATL@@PAVCDibBitmap@@@std@@@5@$0A@@std@@@std@@KAAAPAU_Node@?$_Tree_nod@V?$_Tmap_traits@V?$CStringT@DV?$StrTraitMFC_DLL@DV?$ChTraitsCRT@D@ATL@@@@@ATL@@PAVCDibBitmap@@U?$less@V?$CStringT@DV?$StrTraitMFC_DLL@DV?$ChTraitsCRT@D@ATL@@@@@ATL@@@std@@V?$allocator@U?$pair@$$CBV?$CStringT@DV?$StrTraitMFC_DLL@DV?$ChTraitsCRT@D@ATL@@@@@ATL@@PAVCDibBitmap@@@std@@@5@$0A@@std@@@2@PAU342@@Z
_TEXT	SEGMENT PARA USE32 PUBLIC 'CODE'
_TEXT	ENDS
;	COMDAT ?_Myval@?$_Tree@V?$_Tmap_traits@V?$CStringT@DV?$StrTraitMFC_DLL@DV?$ChTraitsCRT@D@ATL@@@@@ATL@@PAVCDibBitmap@@U?$less@V?$CStringT@DV?$StrTraitMFC_DLL@DV?$ChTraitsCRT@D@ATL@@@@@ATL@@@std@@V?$allocator@U?$pair@$$CBV?$CStringT@DV?$StrTraitMFC_DLL@DV?$ChTraitsCRT@D@ATL@@@@@ATL@@PAVCDibBitmap@@@std@@@5@$0A@@std@@@std@@KAAAU?$pair@$$CBV?$CStringT@DV?$StrTraitMFC_DLL@DV?$ChTraitsCRT@D@ATL@@@@@ATL@@PAVCDibBitmap@@@2@PAU_Node@?$_Tree_nod@V?$_Tmap_traits@V?$CStringT@DV?$StrTraitMFC_DLL@DV?$ChTraitsCRT@D@ATL@@@@@ATL@@PAVCDibBitmap@@U?$less@V?$CStringT@DV?$StrTraitMFC_DLL@DV?$ChTraitsCRT@D@ATL@@@@@ATL@@@std@@V?$allocator@U?$pair@$$CBV?$CStringT@DV?$StrTraitMFC_DLL@DV?$ChTraitsCRT@D@ATL@@@@@ATL@@PAVCDibBitmap@@@std@@@5@$0A@@std@@@2@@Z
_TEXT	SEGMENT PARA USE32 PUBLIC 'CODE'
_TEXT	ENDS
;	COMDAT ?max_size@?$_Tree@V?$_Tmap_traits@V?$CStringT@DV?$StrTraitMFC_DLL@DV?$ChTraitsCRT@D@ATL@@@@@ATL@@PAVCDibBitmap@@U?$less@V?$CStringT@DV?$StrTraitMFC_DLL@DV?$ChTraitsCRT@D@ATL@@@@@ATL@@@std@@V?$allocator@U?$pair@$$CBV?$CStringT@DV?$StrTraitMFC_DLL@DV?$ChTraitsCRT@D@ATL@@@@@ATL@@PAVCDibBitmap@@@std@@@5@$0A@@std@@@std@@QBEIXZ
_TEXT	SEGMENT PARA USE32 PUBLIC 'CODE'
_TEXT	ENDS
;	COMDAT ?_Lmost@?$_Tree@V?$_Tmap_traits@V?$CStringT@DV?$StrTraitMFC_DLL@DV?$ChTraitsCRT@D@ATL@@@@@ATL@@PAVCDibBitmap@@U?$less@V?$CStringT@DV?$StrTraitMFC_DLL@DV?$ChTraitsCRT@D@ATL@@@@@ATL@@@std@@V?$allocator@U?$pair@$$CBV?$CStringT@DV?$StrTraitMFC_DLL@DV?$ChTraitsCRT@D@ATL@@@@@ATL@@PAVCDibBitmap@@@std@@@5@$0A@@std@@@std@@IAEAAPAU_Node@?$_Tree_nod@V?$_Tmap_traits@V?$CStringT@DV?$StrTraitMFC_DLL@DV?$ChTraitsCRT@D@ATL@@@@@ATL@@PAVCDibBitmap@@U?$less@V?$CStringT@DV?$StrTraitMFC_DLL@DV?$ChTraitsCRT@D@ATL@@@@@ATL@@@std@@V?$allocator@U?$pair@$$CBV?$CStringT@DV?$StrTraitMFC_DLL@DV?$ChTraitsCRT@D@ATL@@@@@ATL@@PAVCDibBitmap@@@std@@@5@$0A@@std@@@2@XZ
_TEXT	SEGMENT PARA USE32 PUBLIC 'CODE'
_TEXT	ENDS
;	COMDAT ?_Lrotate@?$_Tree@V?$_Tmap_traits@V?$CStringT@DV?$StrTraitMFC_DLL@DV?$ChTraitsCRT@D@ATL@@@@@ATL@@PAVCDibBitmap@@U?$less@V?$CStringT@DV?$StrTraitMFC_DLL@DV?$ChTraitsCRT@D@ATL@@@@@ATL@@@std@@V?$allocator@U?$pair@$$CBV?$CStringT@DV?$StrTraitMFC_DLL@DV?$ChTraitsCRT@D@ATL@@@@@ATL@@PAVCDibBitmap@@@std@@@5@$0A@@std@@@std@@IAEXPAU_Node@?$_Tree_nod@V?$_Tmap_traits@V?$CStringT@DV?$StrTraitMFC_DLL@DV?$ChTraitsCRT@D@ATL@@@@@ATL@@PAVCDibBitmap@@U?$less@V?$CStringT@DV?$StrTraitMFC_DLL@DV?$ChTraitsCRT@D@ATL@@@@@ATL@@@std@@V?$allocator@U?$pair@$$CBV?$CStringT@DV?$StrTraitMFC_DLL@DV?$ChTraitsCRT@D@ATL@@@@@ATL@@PAVCDibBitmap@@@std@@@5@$0A@@std@@@2@@Z
_TEXT	SEGMENT PARA USE32 PUBLIC 'CODE'
_TEXT	ENDS
;	COMDAT ?_Rmost@?$_Tree@V?$_Tmap_traits@V?$CStringT@DV?$StrTraitMFC_DLL@DV?$ChTraitsCRT@D@ATL@@@@@ATL@@PAVCDibBitmap@@U?$less@V?$CStringT@DV?$StrTraitMFC_DLL@DV?$ChTraitsCRT@D@ATL@@@@@ATL@@@std@@V?$allocator@U?$pair@$$CBV?$CStringT@DV?$StrTraitMFC_DLL@DV?$ChTraitsCRT@D@ATL@@@@@ATL@@PAVCDibBitmap@@@std@@@5@$0A@@std@@@std@@IAEAAPAU_Node@?$_Tree_nod@V?$_Tmap_traits@V?$CStringT@DV?$StrTraitMFC_DLL@DV?$ChTraitsCRT@D@ATL@@@@@ATL@@PAVCDibBitmap@@U?$less@V?$CStringT@DV?$StrTraitMFC_DLL@DV?$ChTraitsCRT@D@ATL@@@@@ATL@@@std@@V?$allocator@U?$pair@$$CBV?$CStringT@DV?$StrTraitMFC_DLL@DV?$ChTraitsCRT@D@ATL@@@@@ATL@@PAVCDibBitmap@@@std@@@5@$0A@@std@@@2@XZ
_TEXT	SEGMENT PARA USE32 PUBLIC 'CODE'
_TEXT	ENDS
;	COMDAT ?_Rrotate@?$_Tree@V?$_Tmap_traits@V?$CStringT@DV?$StrTraitMFC_DLL@DV?$ChTraitsCRT@D@ATL@@@@@ATL@@PAVCDibBitmap@@U?$less@V?$CStringT@DV?$StrTraitMFC_DLL@DV?$ChTraitsCRT@D@ATL@@@@@ATL@@@std@@V?$allocator@U?$pair@$$CBV?$CStringT@DV?$StrTraitMFC_DLL@DV?$ChTraitsCRT@D@ATL@@@@@ATL@@PAVCDibBitmap@@@std@@@5@$0A@@std@@@std@@IAEXPAU_Node@?$_Tree_nod@V?$_Tmap_traits@V?$CStringT@DV?$StrTraitMFC_DLL@DV?$ChTraitsCRT@D@ATL@@@@@ATL@@PAVCDibBitmap@@U?$less@V?$CStringT@DV?$StrTraitMFC_DLL@DV?$ChTraitsCRT@D@ATL@@@@@ATL@@@std@@V?$allocator@U?$pair@$$CBV?$CStringT@DV?$StrTraitMFC_DLL@DV?$ChTraitsCRT@D@ATL@@@@@ATL@@PAVCDibBitmap@@@std@@@5@$0A@@std@@@2@@Z
_TEXT	SEGMENT PARA USE32 PUBLIC 'CODE'
_TEXT	ENDS
;	COMDAT ?_Buynode@?$_Tree@V?$_Tmap_traits@V?$CStringT@DV?$StrTraitMFC_DLL@DV?$ChTraitsCRT@D@ATL@@@@@ATL@@PAVCDibBitmap@@U?$less@V?$CStringT@DV?$StrTraitMFC_DLL@DV?$ChTraitsCRT@D@ATL@@@@@ATL@@@std@@V?$allocator@U?$pair@$$CBV?$CStringT@DV?$StrTraitMFC_DLL@DV?$ChTraitsCRT@D@ATL@@@@@ATL@@PAVCDibBitmap@@@std@@@5@$0A@@std@@@std@@IAEPAU_Node@?$_Tree_nod@V?$_Tmap_traits@V?$CStringT@DV?$StrTraitMFC_DLL@DV?$ChTraitsCRT@D@ATL@@@@@ATL@@PAVCDibBitmap@@U?$less@V?$CStringT@DV?$StrTraitMFC_DLL@DV?$ChTraitsCRT@D@ATL@@@@@ATL@@@std@@V?$allocator@U?$pair@$$CBV?$CStringT@DV?$StrTraitMFC_DLL@DV?$ChTraitsCRT@D@ATL@@@@@ATL@@PAVCDibBitmap@@@std@@@5@$0A@@std@@@2@PAU342@00ABU?$pair@$$CBV?$CStringT@DV?$StrTraitMFC_DLL@DV?$ChTraitsCRT@D@ATL@@@@@ATL@@PAVCDibBitmap@@@2@D@Z
_TEXT	SEGMENT PARA USE32 PUBLIC 'CODE'
_TEXT	ENDS
;	COMDAT ??0const_iterator@?$_Tree@V?$_Tmap_traits@V?$CStringT@DV?$StrTraitMFC_DLL@DV?$ChTraitsCRT@D@ATL@@@@@ATL@@PAVCDibBitmap@@U?$less@V?$CStringT@DV?$StrTraitMFC_DLL@DV?$ChTraitsCRT@D@ATL@@@@@ATL@@@std@@V?$allocator@U?$pair@$$CBV?$CStringT@DV?$StrTraitMFC_DLL@DV?$ChTraitsCRT@D@ATL@@@@@ATL@@PAVCDibBitmap@@@std@@@5@$0A@@std@@@std@@QAE@PAU_Node@?$_Tree_nod@V?$_Tmap_traits@V?$CStringT@DV?$StrTraitMFC_DLL@DV?$ChTraitsCRT@D@ATL@@@@@ATL@@PAVCDibBitmap@@U?$less@V?$CStringT@DV?$StrTraitMFC_DLL@DV?$ChTraitsCRT@D@ATL@@@@@ATL@@@std@@V?$allocator@U?$pair@$$CBV?$CStringT@DV?$StrTraitMFC_DLL@DV?$ChTraitsCRT@D@ATL@@@@@ATL@@PAVCDibBitmap@@@std@@@5@$0A@@std@@@2@@Z
_TEXT	SEGMENT PARA USE32 PUBLIC 'CODE'
_TEXT	ENDS
;	COMDAT ??Fconst_iterator@?$_Tree@V?$_Tmap_traits@V?$CStringT@DV?$StrTraitMFC_DLL@DV?$ChTraitsCRT@D@ATL@@@@@ATL@@PAVCDibBitmap@@U?$less@V?$CStringT@DV?$StrTraitMFC_DLL@DV?$ChTraitsCRT@D@ATL@@@@@ATL@@@std@@V?$allocator@U?$pair@$$CBV?$CStringT@DV?$StrTraitMFC_DLL@DV?$ChTraitsCRT@D@ATL@@@@@ATL@@PAVCDibBitmap@@@std@@@5@$0A@@std@@@std@@QAEAAV012@XZ
_TEXT	SEGMENT PARA USE32 PUBLIC 'CODE'
_TEXT	ENDS
;	COMDAT ?max_size@?$allocator@U?$pair@$$CBV?$CStringT@DV?$StrTraitMFC_DLL@DV?$ChTraitsCRT@D@ATL@@@@@ATL@@PAVCDibBitmap@@@std@@@std@@QBEIXZ
_TEXT	SEGMENT PARA USE32 PUBLIC 'CODE'
_TEXT	ENDS
;	COMDAT ?deallocate@?$allocator@U_Node@?$_Tree_nod@V?$_Tmap_traits@V?$CStringT@DV?$StrTraitMFC_DLL@DV?$ChTraitsCRT@D@ATL@@@@@ATL@@PAVCDibBitmap@@U?$less@V?$CStringT@DV?$StrTraitMFC_DLL@DV?$ChTraitsCRT@D@ATL@@@@@ATL@@@std@@V?$allocator@U?$pair@$$CBV?$CStringT@DV?$StrTraitMFC_DLL@DV?$ChTraitsCRT@D@ATL@@@@@ATL@@PAVCDibBitmap@@@std@@@5@$0A@@std@@@std@@@std@@QAEXPAU_Node@?$_Tree_nod@V?$_Tmap_traits@V?$CStringT@DV?$StrTraitMFC_DLL@DV?$ChTraitsCRT@D@ATL@@@@@ATL@@PAVCDibBitmap@@U?$less@V?$CStringT@DV?$StrTraitMFC_DLL@DV?$ChTraitsCRT@D@ATL@@@@@ATL@@@std@@V?$allocator@U?$pair@$$CBV?$CStringT@DV?$StrTraitMFC_DLL@DV?$ChTraitsCRT@D@ATL@@@@@ATL@@PAVCDibBitmap@@@std@@@5@$0A@@std@@@2@I@Z
_TEXT	SEGMENT PARA USE32 PUBLIC 'CODE'
_TEXT	ENDS
;	COMDAT ?allocate@?$allocator@U_Node@?$_Tree_nod@V?$_Tmap_traits@V?$CStringT@DV?$StrTraitMFC_DLL@DV?$ChTraitsCRT@D@ATL@@@@@ATL@@PAVCDibBitmap@@U?$less@V?$CStringT@DV?$StrTraitMFC_DLL@DV?$ChTraitsCRT@D@ATL@@@@@ATL@@@std@@V?$allocator@U?$pair@$$CBV?$CStringT@DV?$StrTraitMFC_DLL@DV?$ChTraitsCRT@D@ATL@@@@@ATL@@PAVCDibBitmap@@@std@@@5@$0A@@std@@@std@@@std@@QAEPAU_Node@?$_Tree_nod@V?$_Tmap_traits@V?$CStringT@DV?$StrTraitMFC_DLL@DV?$ChTraitsCRT@D@ATL@@@@@ATL@@PAVCDibBitmap@@U?$less@V?$CStringT@DV?$StrTraitMFC_DLL@DV?$ChTraitsCRT@D@ATL@@@@@ATL@@@std@@V?$allocator@U?$pair@$$CBV?$CStringT@DV?$StrTraitMFC_DLL@DV?$ChTraitsCRT@D@ATL@@@@@ATL@@PAVCDibBitmap@@@std@@@5@$0A@@std@@@2@I@Z
_TEXT	SEGMENT PARA USE32 PUBLIC 'CODE'
_TEXT	ENDS
;	COMDAT ?_Dec@const_iterator@?$_Tree@V?$_Tmap_traits@V?$CStringT@DV?$StrTraitMFC_DLL@DV?$ChTraitsCRT@D@ATL@@@@@ATL@@PAVCDibBitmap@@U?$less@V?$CStringT@DV?$StrTraitMFC_DLL@DV?$ChTraitsCRT@D@ATL@@@@@ATL@@@std@@V?$allocator@U?$pair@$$CBV?$CStringT@DV?$StrTraitMFC_DLL@DV?$ChTraitsCRT@D@ATL@@@@@ATL@@PAVCDibBitmap@@@std@@@5@$0A@@std@@@std@@QAEXXZ
_TEXT	SEGMENT PARA USE32 PUBLIC 'CODE'
_TEXT	ENDS
;	COMDAT ??0_Node@?$_Tree_nod@V?$_Tmap_traits@V?$CStringT@DV?$StrTraitMFC_DLL@DV?$ChTraitsCRT@D@ATL@@@@@ATL@@PAVCDibBitmap@@U?$less@V?$CStringT@DV?$StrTraitMFC_DLL@DV?$ChTraitsCRT@D@ATL@@@@@ATL@@@std@@V?$allocator@U?$pair@$$CBV?$CStringT@DV?$StrTraitMFC_DLL@DV?$ChTraitsCRT@D@ATL@@@@@ATL@@PAVCDibBitmap@@@std@@@5@$0A@@std@@@std@@QAE@PAU012@00ABU?$pair@$$CBV?$CStringT@DV?$StrTraitMFC_DLL@DV?$ChTraitsCRT@D@ATL@@@@@ATL@@PAVCDibBitmap@@@2@D@Z
_TEXT	SEGMENT PARA USE32 PUBLIC 'CODE'
_TEXT	ENDS
;	COMDAT ??0?$pair@$$CBV?$CStringT@DV?$StrTraitMFC_DLL@DV?$ChTraitsCRT@D@ATL@@@@@ATL@@PAVCDibBitmap@@@std@@QAE@ABU01@@Z
_TEXT	SEGMENT PARA USE32 PUBLIC 'CODE'
_TEXT	ENDS
;	COMDAT ?_Max@?$_Tree@V?$_Tmap_traits@V?$CStringT@DV?$StrTraitMFC_DLL@DV?$ChTraitsCRT@D@ATL@@@@@ATL@@PAVCDibBitmap@@U?$less@V?$CStringT@DV?$StrTraitMFC_DLL@DV?$ChTraitsCRT@D@ATL@@@@@ATL@@@std@@V?$allocator@U?$pair@$$CBV?$CStringT@DV?$StrTraitMFC_DLL@DV?$ChTraitsCRT@D@ATL@@@@@ATL@@PAVCDibBitmap@@@std@@@5@$0A@@std@@@std@@KAPAU_Node@?$_Tree_nod@V?$_Tmap_traits@V?$CStringT@DV?$StrTraitMFC_DLL@DV?$ChTraitsCRT@D@ATL@@@@@ATL@@PAVCDibBitmap@@U?$less@V?$CStringT@DV?$StrTraitMFC_DLL@DV?$ChTraitsCRT@D@ATL@@@@@ATL@@@std@@V?$allocator@U?$pair@$$CBV?$CStringT@DV?$StrTraitMFC_DLL@DV?$ChTraitsCRT@D@ATL@@@@@ATL@@PAVCDibBitmap@@@std@@@5@$0A@@std@@@2@PAU342@@Z
_TEXT	SEGMENT PARA USE32 PUBLIC 'CODE'
_TEXT	ENDS
;	COMDAT ?Unlock@?$CComCritSecLock@VCComCriticalSection@ATL@@@ATL@@QAEXXZ
_TEXT	SEGMENT PARA USE32 PUBLIC 'CODE'
_TEXT	ENDS
;	COMDAT ??0?$CArray@MM@@QAE@XZ
_TEXT	SEGMENT PARA USE32 PUBLIC 'CODE'
_TEXT	ENDS
;	COMDAT ?GetSize@?$CArray@MM@@QBEHXZ
_TEXT	SEGMENT PARA USE32 PUBLIC 'CODE'
_TEXT	ENDS
;	COMDAT ?RemoveAll@?$CArray@MM@@QAEXXZ
_TEXT	SEGMENT PARA USE32 PUBLIC 'CODE'
_TEXT	ENDS
;	COMDAT ?GetAt@?$CArray@MM@@QAEAAMH@Z
_TEXT	SEGMENT PARA USE32 PUBLIC 'CODE'
_TEXT	ENDS
;	COMDAT ?Add@?$CArray@MM@@QAEHM@Z
_TEXT	SEGMENT PARA USE32 PUBLIC 'CODE'
_TEXT	ENDS
;	COMDAT ??1?$CArray@MM@@UAE@XZ
_TEXT	SEGMENT PARA USE32 PUBLIC 'CODE'
_TEXT	ENDS
;	COMDAT ?Serialize@?$CArray@MM@@UAEXAAVCArchive@@@Z
_TEXT	SEGMENT PARA USE32 PUBLIC 'CODE'
_TEXT	ENDS
;	COMDAT ??0?$CArray@VCPaneBase@ETSLayoutMgr@@V12@@@QAE@XZ
_TEXT	SEGMENT PARA USE32 PUBLIC 'CODE'
_TEXT	ENDS
;	COMDAT ?GetSize@?$CArray@VCPaneBase@ETSLayoutMgr@@V12@@@QBEHXZ
_TEXT	SEGMENT PARA USE32 PUBLIC 'CODE'
_TEXT	ENDS
;	COMDAT ?GetUpperBound@?$CArray@VCPaneBase@ETSLayoutMgr@@V12@@@QBEHXZ
_TEXT	SEGMENT PARA USE32 PUBLIC 'CODE'
_TEXT	ENDS
;	COMDAT ?Add@?$CArray@VCPaneBase@ETSLayoutMgr@@V12@@@QAEHVCPaneBase@ETSLayoutMgr@@@Z
_TEXT	SEGMENT PARA USE32 PUBLIC 'CODE'
_TEXT	ENDS
;	COMDAT ??A?$CArray@VCPaneBase@ETSLayoutMgr@@V12@@@QAEAAVCPaneBase@ETSLayoutMgr@@H@Z
_TEXT	SEGMENT PARA USE32 PUBLIC 'CODE'
_TEXT	ENDS
;	COMDAT ??1?$CArray@VCPaneBase@ETSLayoutMgr@@V12@@@UAE@XZ
_TEXT	SEGMENT PARA USE32 PUBLIC 'CODE'
_TEXT	ENDS
;	COMDAT ?Serialize@?$CArray@VCPaneBase@ETSLayoutMgr@@V12@@@UAEXAAVCArchive@@@Z
_TEXT	SEGMENT PARA USE32 PUBLIC 'CODE'
_TEXT	ENDS
;	COMDAT ??1?$CMap@V?$CStringT@DV?$StrTraitMFC_DLL@DV?$ChTraitsCRT@D@ATL@@@@@ATL@@PBDVCPaneBase@ETSLayoutMgr@@V34@@@UAE@XZ
_TEXT	SEGMENT PARA USE32 PUBLIC 'CODE'
_TEXT	ENDS
;	COMDAT ?Serialize@?$CMap@V?$CStringT@DV?$StrTraitMFC_DLL@DV?$ChTraitsCRT@D@ATL@@@@@ATL@@PBDVCPaneBase@ETSLayoutMgr@@V34@@@UAEXAAVCArchive@@@Z
_TEXT	SEGMENT PARA USE32 PUBLIC 'CODE'
_TEXT	ENDS
;	COMDAT ??0?$CArray@UElemPos@CMarkup@@AAU12@@@QAE@XZ
_TEXT	SEGMENT PARA USE32 PUBLIC 'CODE'
_TEXT	ENDS
;	COMDAT ??1?$CArray@UElemPos@CMarkup@@AAU12@@@UAE@XZ
_TEXT	SEGMENT PARA USE32 PUBLIC 'CODE'
_TEXT	ENDS
;	COMDAT ?Serialize@?$CArray@UElemPos@CMarkup@@AAU12@@@UAEXAAVCArchive@@@Z
_TEXT	SEGMENT PARA USE32 PUBLIC 'CODE'
_TEXT	ENDS
;	COMDAT ??0?$CArray@HH@@QAE@XZ
_TEXT	SEGMENT PARA USE32 PUBLIC 'CODE'
_TEXT	ENDS
;	COMDAT ?SetSize@?$CArray@HH@@QAEXHH@Z
_TEXT	SEGMENT PARA USE32 PUBLIC 'CODE'
_TEXT	ENDS
;	COMDAT ??A?$CArray@HH@@QAEAAHH@Z
_TEXT	SEGMENT PARA USE32 PUBLIC 'CODE'
_TEXT	ENDS
;	COMDAT ??1?$CArray@HH@@UAE@XZ
_TEXT	SEGMENT PARA USE32 PUBLIC 'CODE'
_TEXT	ENDS
;	COMDAT ?Serialize@?$CArray@HH@@UAEXAAVCArchive@@@Z
_TEXT	SEGMENT PARA USE32 PUBLIC 'CODE'
_TEXT	ENDS
;	COMDAT ??$_Maklocstr@D@std@@YAPADPBDPADABU_Cvtvec@@@Z
_TEXT	SEGMENT PARA USE32 PUBLIC 'CODE'
_TEXT	ENDS
;	COMDAT ??$_Allocate@U_Node@?$_Tree_nod@V?$_Tmap_traits@V?$CStringT@DV?$StrTraitMFC_DLL@DV?$ChTraitsCRT@D@ATL@@@@@ATL@@PAVCDibBitmap@@U?$less@V?$CStringT@DV?$StrTraitMFC_DLL@DV?$ChTraitsCRT@D@ATL@@@@@ATL@@@std@@V?$allocator@U?$pair@$$CBV?$CStringT@DV?$StrTraitMFC_DLL@DV?$ChTraitsCRT@D@ATL@@@@@ATL@@PAVCDibBitmap@@@std@@@5@$0A@@std@@@std@@@std@@YAPAU_Node@?$_Tree_nod@V?$_Tmap_traits@V?$CStringT@DV?$StrTraitMFC_DLL@DV?$ChTraitsCRT@D@ATL@@@@@ATL@@PAVCDibBitmap@@U?$less@V?$CStringT@DV?$StrTraitMFC_DLL@DV?$ChTraitsCRT@D@ATL@@@@@ATL@@@std@@V?$allocator@U?$pair@$$CBV?$CStringT@DV?$StrTraitMFC_DLL@DV?$ChTraitsCRT@D@ATL@@@@@ATL@@PAVCDibBitmap@@@std@@@5@$0A@@std@@@0@IPAU120@@Z
_TEXT	SEGMENT PARA USE32 PUBLIC 'CODE'
_TEXT	ENDS
;	COMDAT ??_G?$CArray@MM@@UAEPAXI@Z
_TEXT	SEGMENT PARA USE32 PUBLIC 'CODE'
_TEXT	ENDS
;	COMDAT ??_G?$CArray@VCPaneBase@ETSLayoutMgr@@V12@@@UAEPAXI@Z
_TEXT	SEGMENT PARA USE32 PUBLIC 'CODE'
_TEXT	ENDS
;	COMDAT ??_GCPaneBase@ETSLayoutMgr@@QAEPAXI@Z
_TEXT	SEGMENT PARA USE32 PUBLIC 'CODE'
_TEXT	ENDS
;	COMDAT ??_G?$CMap@V?$CStringT@DV?$StrTraitMFC_DLL@DV?$ChTraitsCRT@D@ATL@@@@@ATL@@PBDVCPaneBase@ETSLayoutMgr@@V34@@@UAEPAXI@Z
_TEXT	SEGMENT PARA USE32 PUBLIC 'CODE'
_TEXT	ENDS
;	COMDAT ??_G?$CArray@UElemPos@CMarkup@@AAU12@@@UAEPAXI@Z
_TEXT	SEGMENT PARA USE32 PUBLIC 'CODE'
_TEXT	ENDS
;	COMDAT ??_G?$CArray@HH@@UAEPAXI@Z
_TEXT	SEGMENT PARA USE32 PUBLIC 'CODE'
_TEXT	ENDS
;	COMDAT ?SetSize@?$CArray@MM@@QAEXHH@Z
_TEXT	SEGMENT PARA USE32 PUBLIC 'CODE'
_TEXT	ENDS
;	COMDAT ?SetAtGrow@?$CArray@MM@@QAEXHM@Z
_TEXT	SEGMENT PARA USE32 PUBLIC 'CODE'
_TEXT	ENDS
;	COMDAT ??$SerializeElements@M@@YGXAAVCArchive@@PAMH@Z
_TEXT	SEGMENT PARA USE32 PUBLIC 'CODE'
_TEXT	ENDS
;	COMDAT ?SetSize@?$CArray@VCPaneBase@ETSLayoutMgr@@V12@@@QAEXHH@Z
_TEXT	SEGMENT PARA USE32 PUBLIC 'CODE'
_TEXT	ENDS
;	COMDAT ?ElementAt@?$CArray@VCPaneBase@ETSLayoutMgr@@V12@@@QAEAAVCPaneBase@ETSLayoutMgr@@H@Z
_TEXT	SEGMENT PARA USE32 PUBLIC 'CODE'
_TEXT	ENDS
;	COMDAT ?SetAtGrow@?$CArray@VCPaneBase@ETSLayoutMgr@@V12@@@QAEXHVCPaneBase@ETSLayoutMgr@@@Z
_TEXT	SEGMENT PARA USE32 PUBLIC 'CODE'
_TEXT	ENDS
;	COMDAT ??$SerializeElements@VCPaneBase@ETSLayoutMgr@@@@YGXAAVCArchive@@PAVCPaneBase@ETSLayoutMgr@@H@Z
_TEXT	SEGMENT PARA USE32 PUBLIC 'CODE'
_TEXT	ENDS
;	COMDAT ?SetAt@?$CMap@V?$CStringT@DV?$StrTraitMFC_DLL@DV?$ChTraitsCRT@D@ATL@@@@@ATL@@PBDVCPaneBase@ETSLayoutMgr@@V34@@@QAEXPBDVCPaneBase@ETSLayoutMgr@@@Z
_TEXT	SEGMENT PARA USE32 PUBLIC 'CODE'
_TEXT	ENDS
;	COMDAT ?RemoveAll@?$CMap@V?$CStringT@DV?$StrTraitMFC_DLL@DV?$ChTraitsCRT@D@ATL@@@@@ATL@@PBDVCPaneBase@ETSLayoutMgr@@V34@@@QAEXXZ
_TEXT	SEGMENT PARA USE32 PUBLIC 'CODE'
_TEXT	ENDS
;	COMDAT ?SetSize@?$CArray@UElemPos@CMarkup@@AAU12@@@QAEXHH@Z
_TEXT	SEGMENT PARA USE32 PUBLIC 'CODE'
_TEXT	ENDS
;	COMDAT ??$SerializeElements@UElemPos@CMarkup@@@@YGXAAVCArchive@@PAUElemPos@CMarkup@@H@Z
_TEXT	SEGMENT PARA USE32 PUBLIC 'CODE'
_TEXT	ENDS
;	COMDAT ?ElementAt@?$CArray@HH@@QAEAAHH@Z
_TEXT	SEGMENT PARA USE32 PUBLIC 'CODE'
_TEXT	ENDS
;	COMDAT ??$SerializeElements@H@@YGXAAVCArchive@@PAHH@Z
_TEXT	SEGMENT PARA USE32 PUBLIC 'CODE'
_TEXT	ENDS
;	COMDAT ??1CAssoc@?$CMap@V?$CStringT@DV?$StrTraitMFC_DLL@DV?$ChTraitsCRT@D@ATL@@@@@ATL@@PBDVCPaneBase@ETSLayoutMgr@@V34@@@QAE@XZ
_TEXT	SEGMENT PARA USE32 PUBLIC 'CODE'
_TEXT	ENDS
;	COMDAT ??1CPair@?$CMap@V?$CStringT@DV?$StrTraitMFC_DLL@DV?$ChTraitsCRT@D@ATL@@@@@ATL@@PBDVCPaneBase@ETSLayoutMgr@@V34@@@QAE@XZ
_TEXT	SEGMENT PARA USE32 PUBLIC 'CODE'
_TEXT	ENDS
;	COMDAT ??A?$CMap@V?$CStringT@DV?$StrTraitMFC_DLL@DV?$ChTraitsCRT@D@ATL@@@@@ATL@@PBDVCPaneBase@ETSLayoutMgr@@V34@@@QAEAAVCPaneBase@ETSLayoutMgr@@PBD@Z
_TEXT	SEGMENT PARA USE32 PUBLIC 'CODE'
_TEXT	ENDS
;	COMDAT ?InitHashTable@?$CMap@V?$CStringT@DV?$StrTraitMFC_DLL@DV?$ChTraitsCRT@D@ATL@@@@@ATL@@PBDVCPaneBase@ETSLayoutMgr@@V34@@@QAEXIH@Z
_TEXT	SEGMENT PARA USE32 PUBLIC 'CODE'
_TEXT	ENDS
;	COMDAT ?NewAssoc@?$CMap@V?$CStringT@DV?$StrTraitMFC_DLL@DV?$ChTraitsCRT@D@ATL@@@@@ATL@@PBDVCPaneBase@ETSLayoutMgr@@V34@@@IAEPAVCAssoc@1@PBD@Z
_TEXT	SEGMENT PARA USE32 PUBLIC 'CODE'
_TEXT	ENDS
;	COMDAT ?GetAssocAt@?$CMap@V?$CStringT@DV?$StrTraitMFC_DLL@DV?$ChTraitsCRT@D@ATL@@@@@ATL@@PBDVCPaneBase@ETSLayoutMgr@@V34@@@IBEPAVCAssoc@1@PBDAAI1@Z
_TEXT	SEGMENT PARA USE32 PUBLIC 'CODE'
_TEXT	ENDS
;	COMDAT ??0CAssoc@?$CMap@V?$CStringT@DV?$StrTraitMFC_DLL@DV?$ChTraitsCRT@D@ATL@@@@@ATL@@PBDVCPaneBase@ETSLayoutMgr@@V34@@@QAE@PBD@Z
_TEXT	SEGMENT PARA USE32 PUBLIC 'CODE'
_TEXT	ENDS
;	COMDAT ??0CPair@?$CMap@V?$CStringT@DV?$StrTraitMFC_DLL@DV?$ChTraitsCRT@D@ATL@@@@@ATL@@PBDVCPaneBase@ETSLayoutMgr@@V34@@@IAE@PBD@Z
_TEXT	SEGMENT PARA USE32 PUBLIC 'CODE'
_TEXT	ENDS
;	COMDAT ??$CompareElements@V?$CStringT@DV?$StrTraitMFC_DLL@DV?$ChTraitsCRT@D@ATL@@@@@ATL@@PBD@@YGHPBV?$CStringT@DV?$StrTraitMFC_DLL@DV?$ChTraitsCRT@D@ATL@@@@@ATL@@PBQBD@Z
_TEXT	SEGMENT PARA USE32 PUBLIC 'CODE'
_TEXT	ENDS
;	COMDAT ??_EETSLayoutDialog@@WHE@AEPAXI@Z
_TEXT	SEGMENT PARA USE32 PUBLIC 'CODE'
_TEXT	ENDS
;	COMDAT ??_EETSLayoutDialogBar@@WKE@AEPAXI@Z
_TEXT	SEGMENT PARA USE32 PUBLIC 'CODE'
_TEXT	ENDS
;	COMDAT ??_EETSLayoutFormView@@WJI@AEPAXI@Z
_TEXT	SEGMENT PARA USE32 PUBLIC 'CODE'
_TEXT	ENDS
;	COMDAT ??_EETSLayoutPropertyPage@@WII@AEPAXI@Z
_TEXT	SEGMENT PARA USE32 PUBLIC 'CODE'
_TEXT	ENDS
;	COMDAT ??_EETSLayoutPropertySheet@@WKM@AEPAXI@Z
_TEXT	SEGMENT PARA USE32 PUBLIC 'CODE'
_TEXT	ENDS
;	COMDAT ??_R3PaneTab@ETSLayoutMgr@@8
rdata$r	SEGMENT DWORD USE32 PUBLIC 'CONST'
rdata$r	ENDS
;	COMDAT ??_R3ETSLayoutPropertySheet@@8
rdata$r	SEGMENT DWORD USE32 PUBLIC 'CONST'
rdata$r	ENDS
;	COMDAT ??_R3ETSLayoutPropertyPage@@8
rdata$r	SEGMENT DWORD USE32 PUBLIC 'CONST'
rdata$r	ENDS
;	COMDAT ??_R3ETSLayoutMgr@@8
rdata$r	SEGMENT DWORD USE32 PUBLIC 'CONST'
rdata$r	ENDS
;	COMDAT ??_R3ETSLayoutFormView@@8
rdata$r	SEGMENT DWORD USE32 PUBLIC 'CONST'
rdata$r	ENDS
;	COMDAT ??_R3ETSLayoutDialogBar@@8
rdata$r	SEGMENT DWORD USE32 PUBLIC 'CONST'
rdata$r	ENDS
;	COMDAT ??_R3ETSLayoutDialog@@8
rdata$r	SEGMENT DWORD USE32 PUBLIC 'CONST'
rdata$r	ENDS
;	COMDAT ??_R3CMarkup@@8
rdata$r	SEGMENT DWORD USE32 PUBLIC 'CONST'
rdata$r	ENDS
;	COMDAT ??_R3?$CMap@V?$CStringT@DV?$StrTraitMFC_DLL@DV?$ChTraitsCRT@D@ATL@@@@@ATL@@PBDVCPaneBase@ETSLayoutMgr@@V34@@@8
rdata$r	SEGMENT DWORD USE32 PUBLIC 'CONST'
rdata$r	ENDS
;	COMDAT ??_R3?$CArray@VCPaneBase@ETSLayoutMgr@@V12@@@8
rdata$r	SEGMENT DWORD USE32 PUBLIC 'CONST'
rdata$r	ENDS
;	COMDAT ??_R3PaneItem@ETSLayoutMgr@@8
rdata$r	SEGMENT DWORD USE32 PUBLIC 'CONST'
rdata$r	ENDS
;	COMDAT ??_R3?$CArray@HH@@8
rdata$r	SEGMENT DWORD USE32 PUBLIC 'CONST'
rdata$r	ENDS
;	COMDAT ??_R3?$CArray@MM@@8
rdata$r	SEGMENT DWORD USE32 PUBLIC 'CONST'
rdata$r	ENDS
;	COMDAT ??_R3PaneBase@ETSLayoutMgr@@8
rdata$r	SEGMENT DWORD USE32 PUBLIC 'CONST'
rdata$r	ENDS
;	COMDAT ??_R3CMarkupArchive@@8
rdata$r	SEGMENT DWORD USE32 PUBLIC 'CONST'
rdata$r	ENDS
;	COMDAT ??_R3?$CArray@UElemPos@CMarkup@@AAU12@@@8
rdata$r	SEGMENT DWORD USE32 PUBLIC 'CONST'
rdata$r	ENDS
;	COMDAT ??_R3PaneCtrl@ETSLayoutMgr@@8
rdata$r	SEGMENT DWORD USE32 PUBLIC 'CONST'
rdata$r	ENDS
;	COMDAT ??_R3Pane@ETSLayoutMgr@@8
rdata$r	SEGMENT DWORD USE32 PUBLIC 'CONST'
rdata$r	ENDS
;	COMDAT ??_R3?$numpunct@_W@std@@8
rdata$r	SEGMENT DWORD USE32 PUBLIC 'CONST'
rdata$r	ENDS
;	COMDAT ??_R3?$numpunct@D@std@@8
rdata$r	SEGMENT DWORD USE32 PUBLIC 'CONST'
rdata$r	ENDS
;	COMDAT ??_R2PaneTab@ETSLayoutMgr@@8
rdata$r	SEGMENT DWORD USE32 PUBLIC 'CONST'
rdata$r	ENDS
;	COMDAT ??_R2ETSLayoutPropertySheet@@8
rdata$r	SEGMENT DWORD USE32 PUBLIC 'CONST'
rdata$r	ENDS
;	COMDAT ??_R2ETSLayoutPropertyPage@@8
rdata$r	SEGMENT DWORD USE32 PUBLIC 'CONST'
rdata$r	ENDS
;	COMDAT ??_R2ETSLayoutMgr@@8
rdata$r	SEGMENT DWORD USE32 PUBLIC 'CONST'
rdata$r	ENDS
;	COMDAT ??_R2ETSLayoutFormView@@8
rdata$r	SEGMENT DWORD USE32 PUBLIC 'CONST'
rdata$r	ENDS
;	COMDAT ??_R2ETSLayoutDialogBar@@8
rdata$r	SEGMENT DWORD USE32 PUBLIC 'CONST'
rdata$r	ENDS
;	COMDAT ??_R2ETSLayoutDialog@@8
rdata$r	SEGMENT DWORD USE32 PUBLIC 'CONST'
rdata$r	ENDS
;	COMDAT ??_R2CMarkup@@8
rdata$r	SEGMENT DWORD USE32 PUBLIC 'CONST'
rdata$r	ENDS
;	COMDAT ??_R2?$CMap@V?$CStringT@DV?$StrTraitMFC_DLL@DV?$ChTraitsCRT@D@ATL@@@@@ATL@@PBDVCPaneBase@ETSLayoutMgr@@V34@@@8
rdata$r	SEGMENT DWORD USE32 PUBLIC 'CONST'
rdata$r	ENDS
;	COMDAT ??_R2?$CArray@VCPaneBase@ETSLayoutMgr@@V12@@@8
rdata$r	SEGMENT DWORD USE32 PUBLIC 'CONST'
rdata$r	ENDS
;	COMDAT ??_R2PaneItem@ETSLayoutMgr@@8
rdata$r	SEGMENT DWORD USE32 PUBLIC 'CONST'
rdata$r	ENDS
;	COMDAT ??_R2?$CArray@HH@@8
rdata$r	SEGMENT DWORD USE32 PUBLIC 'CONST'
rdata$r	ENDS
;	COMDAT ??_R2?$CArray@MM@@8
rdata$r	SEGMENT DWORD USE32 PUBLIC 'CONST'
rdata$r	ENDS
;	COMDAT ??_R2PaneBase@ETSLayoutMgr@@8
rdata$r	SEGMENT DWORD USE32 PUBLIC 'CONST'
rdata$r	ENDS
;	COMDAT ??_R2CMarkupArchive@@8
rdata$r	SEGMENT DWORD USE32 PUBLIC 'CONST'
rdata$r	ENDS
;	COMDAT ??_R2?$CArray@UElemPos@CMarkup@@AAU12@@@8
rdata$r	SEGMENT DWORD USE32 PUBLIC 'CONST'
rdata$r	ENDS
;	COMDAT ??_R2PaneCtrl@ETSLayoutMgr@@8
rdata$r	SEGMENT DWORD USE32 PUBLIC 'CONST'
rdata$r	ENDS
;	COMDAT ??_R2Pane@ETSLayoutMgr@@8
rdata$r	SEGMENT DWORD USE32 PUBLIC 'CONST'
rdata$r	ENDS
;	COMDAT ??_R2?$numpunct@_W@std@@8
rdata$r	SEGMENT DWORD USE32 PUBLIC 'CONST'
rdata$r	ENDS
;	COMDAT ??_R2?$numpunct@D@std@@8
rdata$r	SEGMENT DWORD USE32 PUBLIC 'CONST'
rdata$r	ENDS
;	COMDAT ??_R1A@?0A@A@PaneTab@ETSLayoutMgr@@8
rdata$r	SEGMENT DWORD USE32 PUBLIC 'CONST'
rdata$r	ENDS
;	COMDAT ??_R1KM@?0A@8ETSLayoutMgr@@8
rdata$r	SEGMENT DWORD USE32 PUBLIC 'CONST'
rdata$r	ENDS
;	COMDAT ??_R1A@?0A@A@CPropertySheet@@8
rdata$r	SEGMENT DWORD USE32 PUBLIC 'CONST'
rdata$r	ENDS
;	COMDAT ??_R1A@?0A@A@ETSLayoutPropertySheet@@8
rdata$r	SEGMENT DWORD USE32 PUBLIC 'CONST'
rdata$r	ENDS
;	COMDAT ??_R1II@?0A@8ETSLayoutMgr@@8
rdata$r	SEGMENT DWORD USE32 PUBLIC 'CONST'
rdata$r	ENDS
;	COMDAT ??_R1A@?0A@A@CPropertyPage@@8
rdata$r	SEGMENT DWORD USE32 PUBLIC 'CONST'
rdata$r	ENDS
;	COMDAT ??_R1A@?0A@A@ETSLayoutPropertyPage@@8
rdata$r	SEGMENT DWORD USE32 PUBLIC 'CONST'
rdata$r	ENDS
;	COMDAT ??_R1A@?0A@A@ETSLayoutMgr@@8
rdata$r	SEGMENT DWORD USE32 PUBLIC 'CONST'
rdata$r	ENDS
;	COMDAT ??_R1JI@?0A@A@ETSLayoutMgr@@8
rdata$r	SEGMENT DWORD USE32 PUBLIC 'CONST'
rdata$r	ENDS
;	COMDAT ??_R1A@?0A@A@CView@@8
rdata$r	SEGMENT DWORD USE32 PUBLIC 'CONST'
rdata$r	ENDS
;	COMDAT ??_R1A@?0A@A@CScrollView@@8
rdata$r	SEGMENT DWORD USE32 PUBLIC 'CONST'
rdata$r	ENDS
;	COMDAT ??_R1A@?0A@A@CFormView@@8
rdata$r	SEGMENT DWORD USE32 PUBLIC 'CONST'
rdata$r	ENDS
;	COMDAT ??_R1A@?0A@A@ETSLayoutFormView@@8
rdata$r	SEGMENT DWORD USE32 PUBLIC 'CONST'
rdata$r	ENDS
;	COMDAT ??_R1KE@?0A@8ETSLayoutMgr@@8
rdata$r	SEGMENT DWORD USE32 PUBLIC 'CONST'
rdata$r	ENDS
;	COMDAT ??_R1A@?0A@A@CControlBar@@8
rdata$r	SEGMENT DWORD USE32 PUBLIC 'CONST'
rdata$r	ENDS
;	COMDAT ??_R1A@?0A@A@CDialogBar@@8
rdata$r	SEGMENT DWORD USE32 PUBLIC 'CONST'
rdata$r	ENDS
;	COMDAT ??_R1A@?0A@A@ETSLayoutDialogBar@@8
rdata$r	SEGMENT DWORD USE32 PUBLIC 'CONST'
rdata$r	ENDS
;	COMDAT ??_R1HE@?0A@8ETSLayoutMgr@@8
rdata$r	SEGMENT DWORD USE32 PUBLIC 'CONST'
rdata$r	ENDS
;	COMDAT ??_R1A@?0A@A@CCmdTarget@@8
rdata$r	SEGMENT DWORD USE32 PUBLIC 'CONST'
rdata$r	ENDS
;	COMDAT ??_R0?AVCCmdTarget@@@8
_DATA	SEGMENT DWORD USE32 PUBLIC 'DATA'
_DATA	ENDS
;	COMDAT ??_R1A@?0A@A@CWnd@@8
rdata$r	SEGMENT DWORD USE32 PUBLIC 'CONST'
rdata$r	ENDS
;	COMDAT ??_R0?AVCWnd@@@8
_DATA	SEGMENT DWORD USE32 PUBLIC 'DATA'
_DATA	ENDS
;	COMDAT ??_R1A@?0A@A@CDialog@@8
rdata$r	SEGMENT DWORD USE32 PUBLIC 'CONST'
rdata$r	ENDS
;	COMDAT ??_R0?AVCDialog@@@8
_DATA	SEGMENT DWORD USE32 PUBLIC 'DATA'
_DATA	ENDS
;	COMDAT ??_R1A@?0A@A@ETSLayoutDialog@@8
rdata$r	SEGMENT DWORD USE32 PUBLIC 'CONST'
rdata$r	ENDS
;	COMDAT ??_R1A@?0A@A@?$CMap@V?$CStringT@DV?$StrTraitMFC_DLL@DV?$ChTraitsCRT@D@ATL@@@@@ATL@@PBDVCPaneBase@ETSLayoutMgr@@V34@@@8
rdata$r	SEGMENT DWORD USE32 PUBLIC 'CONST'
rdata$r	ENDS
;	COMDAT ??_R1A@?0A@A@?$CArray@VCPaneBase@ETSLayoutMgr@@V12@@@8
rdata$r	SEGMENT DWORD USE32 PUBLIC 'CONST'
rdata$r	ENDS
;	COMDAT ??_R1A@?0A@A@PaneItem@ETSLayoutMgr@@8
rdata$r	SEGMENT DWORD USE32 PUBLIC 'CONST'
rdata$r	ENDS
;	COMDAT ??_R1A@?0A@A@?$CArray@HH@@8
rdata$r	SEGMENT DWORD USE32 PUBLIC 'CONST'
rdata$r	ENDS
;	COMDAT ??_R1A@?0A@A@?$CArray@MM@@8
rdata$r	SEGMENT DWORD USE32 PUBLIC 'CONST'
rdata$r	ENDS
;	COMDAT ??_R1A@?0A@A@CMarkup@@8
rdata$r	SEGMENT DWORD USE32 PUBLIC 'CONST'
rdata$r	ENDS
;	COMDAT ??_R1A@?0A@A@CMarkupArchive@@8
rdata$r	SEGMENT DWORD USE32 PUBLIC 'CONST'
rdata$r	ENDS
;	COMDAT ??_R1A@?0A@A@CObject@@8
rdata$r	SEGMENT DWORD USE32 PUBLIC 'CONST'
rdata$r	ENDS
;	COMDAT ??_R0?AVCObject@@@8
_DATA	SEGMENT DWORD USE32 PUBLIC 'DATA'
_DATA	ENDS
;	COMDAT ??_R1A@?0A@A@?$CArray@UElemPos@CMarkup@@AAU12@@@8
rdata$r	SEGMENT DWORD USE32 PUBLIC 'CONST'
rdata$r	ENDS
;	COMDAT ??_R1A@?0A@A@PaneCtrl@ETSLayoutMgr@@8
rdata$r	SEGMENT DWORD USE32 PUBLIC 'CONST'
rdata$r	ENDS
;	COMDAT ??_R1A@?0A@A@PaneBase@ETSLayoutMgr@@8
rdata$r	SEGMENT DWORD USE32 PUBLIC 'CONST'
rdata$r	ENDS
;	COMDAT ??_R1A@?0A@A@Pane@ETSLayoutMgr@@8
rdata$r	SEGMENT DWORD USE32 PUBLIC 'CONST'
rdata$r	ENDS
;	COMDAT ??_R1A@?0A@A@?$numpunct@_W@std@@8
rdata$r	SEGMENT DWORD USE32 PUBLIC 'CONST'
rdata$r	ENDS
;	COMDAT ??_R1A@?0A@A@facet@locale@std@@8
rdata$r	SEGMENT DWORD USE32 PUBLIC 'CONST'
rdata$r	ENDS
;	COMDAT ??_R0?AVfacet@locale@std@@@8
_DATA	SEGMENT DWORD USE32 PUBLIC 'DATA'
_DATA	ENDS
;	COMDAT ??_R1A@?0A@A@?$numpunct@D@std@@8
rdata$r	SEGMENT DWORD USE32 PUBLIC 'CONST'
rdata$r	ENDS
;	COMDAT ??_R0?AVPaneTab@ETSLayoutMgr@@@8
_DATA	SEGMENT DWORD USE32 PUBLIC 'DATA'
_DATA	ENDS
;	COMDAT ??_R0?AVCPropertySheet@@@8
_DATA	SEGMENT DWORD USE32 PUBLIC 'DATA'
_DATA	ENDS
;	COMDAT ??_R0?AVETSLayoutPropertySheet@@@8
_DATA	SEGMENT DWORD USE32 PUBLIC 'DATA'
_DATA	ENDS
;	COMDAT ??_R0?AVCPropertyPage@@@8
_DATA	SEGMENT DWORD USE32 PUBLIC 'DATA'
_DATA	ENDS
;	COMDAT ??_R0?AVETSLayoutPropertyPage@@@8
_DATA	SEGMENT DWORD USE32 PUBLIC 'DATA'
_DATA	ENDS
;	COMDAT ??_R0?AVCView@@@8
_DATA	SEGMENT DWORD USE32 PUBLIC 'DATA'
_DATA	ENDS
;	COMDAT ??_R0?AVCScrollView@@@8
_DATA	SEGMENT DWORD USE32 PUBLIC 'DATA'
_DATA	ENDS
;	COMDAT ??_R0?AVCFormView@@@8
_DATA	SEGMENT DWORD USE32 PUBLIC 'DATA'
_DATA	ENDS
;	COMDAT ??_R0?AVETSLayoutFormView@@@8
_DATA	SEGMENT DWORD USE32 PUBLIC 'DATA'
_DATA	ENDS
;	COMDAT ??_R0?AVCControlBar@@@8
_DATA	SEGMENT DWORD USE32 PUBLIC 'DATA'
_DATA	ENDS
;	COMDAT ??_R0?AVCDialogBar@@@8
_DATA	SEGMENT DWORD USE32 PUBLIC 'DATA'
_DATA	ENDS
;	COMDAT ??_R0?AVETSLayoutDialogBar@@@8
_DATA	SEGMENT DWORD USE32 PUBLIC 'DATA'
_DATA	ENDS
;	COMDAT ??_R0?AVETSLayoutMgr@@@8
_DATA	SEGMENT DWORD USE32 PUBLIC 'DATA'
_DATA	ENDS
;	COMDAT ??_R0?AVETSLayoutDialog@@@8
_DATA	SEGMENT DWORD USE32 PUBLIC 'DATA'
_DATA	ENDS
;	COMDAT ??_R0?AV?$CMap@V?$CStringT@DV?$StrTraitMFC_DLL@DV?$ChTraitsCRT@D@ATL@@@@@ATL@@PBDVCPaneBase@ETSLayoutMgr@@V34@@@@8
_DATA	SEGMENT DWORD USE32 PUBLIC 'DATA'
_DATA	ENDS
;	COMDAT ??_R0?AV?$CArray@VCPaneBase@ETSLayoutMgr@@V12@@@@8
_DATA	SEGMENT DWORD USE32 PUBLIC 'DATA'
_DATA	ENDS
;	COMDAT ??_R0?AVPaneItem@ETSLayoutMgr@@@8
_DATA	SEGMENT DWORD USE32 PUBLIC 'DATA'
_DATA	ENDS
;	COMDAT ??_R0?AV?$CArray@HH@@@8
_DATA	SEGMENT DWORD USE32 PUBLIC 'DATA'
_DATA	ENDS
;	COMDAT ??_R0?AV?$CArray@MM@@@8
_DATA	SEGMENT DWORD USE32 PUBLIC 'DATA'
_DATA	ENDS
;	COMDAT ??_R0?AVCMarkup@@@8
_DATA	SEGMENT DWORD USE32 PUBLIC 'DATA'
_DATA	ENDS
;	COMDAT ??_R0?AVCMarkupArchive@@@8
_DATA	SEGMENT DWORD USE32 PUBLIC 'DATA'
_DATA	ENDS
;	COMDAT ??_R0?AV?$CArray@UElemPos@CMarkup@@AAU12@@@@8
_DATA	SEGMENT DWORD USE32 PUBLIC 'DATA'
_DATA	ENDS
;	COMDAT ??_R0?AVPaneCtrl@ETSLayoutMgr@@@8
_DATA	SEGMENT DWORD USE32 PUBLIC 'DATA'
_DATA	ENDS
;	COMDAT ??_R0?AVPaneBase@ETSLayoutMgr@@@8
_DATA	SEGMENT DWORD USE32 PUBLIC 'DATA'
_DATA	ENDS
;	COMDAT ??_R0?AVPane@ETSLayoutMgr@@@8
_DATA	SEGMENT DWORD USE32 PUBLIC 'DATA'
_DATA	ENDS
;	COMDAT ??_R0?AV?$numpunct@_W@std@@@8
_DATA	SEGMENT DWORD USE32 PUBLIC 'DATA'
_DATA	ENDS
;	COMDAT ??_R0?AV?$numpunct@D@std@@@8
_DATA	SEGMENT DWORD USE32 PUBLIC 'DATA'
_DATA	ENDS
;	COMDAT ??_R4PaneTab@ETSLayoutMgr@@6B@
rdata$r	SEGMENT DWORD USE32 PUBLIC 'CONST'
rdata$r	ENDS
;	COMDAT ??_R4ETSLayoutPropertySheet@@6BETSLayoutMgr@@@
rdata$r	SEGMENT DWORD USE32 PUBLIC 'CONST'
rdata$r	ENDS
;	COMDAT ??_R4ETSLayoutPropertySheet@@6BCPropertySheet@@@
rdata$r	SEGMENT DWORD USE32 PUBLIC 'CONST'
rdata$r	ENDS
;	COMDAT ??_R4ETSLayoutPropertyPage@@6BETSLayoutMgr@@@
rdata$r	SEGMENT DWORD USE32 PUBLIC 'CONST'
rdata$r	ENDS
;	COMDAT ??_R4ETSLayoutPropertyPage@@6BCPropertyPage@@@
rdata$r	SEGMENT DWORD USE32 PUBLIC 'CONST'
rdata$r	ENDS
;	COMDAT ??_R4ETSLayoutMgr@@6B@
rdata$r	SEGMENT DWORD USE32 PUBLIC 'CONST'
rdata$r	ENDS
;	COMDAT ??_R4ETSLayoutFormView@@6BETSLayoutMgr@@@
rdata$r	SEGMENT DWORD USE32 PUBLIC 'CONST'
rdata$r	ENDS
;	COMDAT ?accHitTest@CFormView@@UAEJJJPAUtagVARIANT@@@Z
_TEXT	SEGMENT PARA USE32 PUBLIC 'CODE'
_TEXT	ENDS
;	COMDAT ?accLocation@CFormView@@UAEJPAJ000UtagVARIANT@@@Z
_TEXT	SEGMENT PARA USE32 PUBLIC 'CODE'
_TEXT	ENDS
;	COMDAT ?get_accName@CFormView@@UAEJUtagVARIANT@@PAPA_W@Z
_TEXT	SEGMENT PARA USE32 PUBLIC 'CODE'
_TEXT	ENDS
;	COMDAT ?get_accChild@CFormView@@UAEJUtagVARIANT@@PAPAUIDispatch@@@Z
_TEXT	SEGMENT PARA USE32 PUBLIC 'CODE'
_TEXT	ENDS
;	COMDAT ?get_accChildCount@CFormView@@UAEJPAJ@Z
_TEXT	SEGMENT PARA USE32 PUBLIC 'CODE'
_TEXT	ENDS
;	COMDAT ??_R4ETSLayoutFormView@@6BCFormView@@@
rdata$r	SEGMENT DWORD USE32 PUBLIC 'CONST'
rdata$r	ENDS
;	COMDAT ??_R4ETSLayoutDialogBar@@6BETSLayoutMgr@@@
rdata$r	SEGMENT DWORD USE32 PUBLIC 'CONST'
rdata$r	ENDS
;	COMDAT ?Create@CDialogBar@@UAEHPAVCWnd@@III@Z
_TEXT	SEGMENT PARA USE32 PUBLIC 'CODE'
_TEXT	ENDS
;	COMDAT ??_R4ETSLayoutDialogBar@@6BCDialogBar@@@
rdata$r	SEGMENT DWORD USE32 PUBLIC 'CONST'
rdata$r	ENDS
;	COMDAT ??_R4ETSLayoutDialog@@6BETSLayoutMgr@@@
rdata$r	SEGMENT DWORD USE32 PUBLIC 'CONST'
rdata$r	ENDS
;	COMDAT ?Create@CDialog@@UAEHIPAVCWnd@@@Z
_TEXT	SEGMENT PARA USE32 PUBLIC 'CODE'
_TEXT	ENDS
;	COMDAT ?EndModalState@CWnd@@UAEXXZ
_TEXT	SEGMENT PARA USE32 PUBLIC 'CODE'
_TEXT	ENDS
;	COMDAT ?BeginModalState@CWnd@@UAEXXZ
_TEXT	SEGMENT PARA USE32 PUBLIC 'CODE'
_TEXT	ENDS
;	COMDAT ?DoDataExchange@CWnd@@MAEXPAVCDataExchange@@@Z
_TEXT	SEGMENT PARA USE32 PUBLIC 'CODE'
_TEXT	ENDS
;	COMDAT ??_R4ETSLayoutDialog@@6BCDialog@@@
rdata$r	SEGMENT DWORD USE32 PUBLIC 'CONST'
rdata$r	ENDS
;	COMDAT ??_R4CMarkup@@6B@
rdata$r	SEGMENT DWORD USE32 PUBLIC 'CONST'
rdata$r	ENDS
;	COMDAT ??_R4?$CMap@V?$CStringT@DV?$StrTraitMFC_DLL@DV?$ChTraitsCRT@D@ATL@@@@@ATL@@PBDVCPaneBase@ETSLayoutMgr@@V34@@@6B@
rdata$r	SEGMENT DWORD USE32 PUBLIC 'CONST'
rdata$r	ENDS
;	COMDAT ??_R4?$CArray@VCPaneBase@ETSLayoutMgr@@V12@@@6B@
rdata$r	SEGMENT DWORD USE32 PUBLIC 'CONST'
rdata$r	ENDS
;	COMDAT ??_R4PaneItem@ETSLayoutMgr@@6B@
rdata$r	SEGMENT DWORD USE32 PUBLIC 'CONST'
rdata$r	ENDS
;	COMDAT ??_R4?$CArray@HH@@6B@
rdata$r	SEGMENT DWORD USE32 PUBLIC 'CONST'
rdata$r	ENDS
;	COMDAT ??_R4?$CArray@MM@@6B@
rdata$r	SEGMENT DWORD USE32 PUBLIC 'CONST'
rdata$r	ENDS
;	COMDAT ??_R4PaneBase@ETSLayoutMgr@@6B@
rdata$r	SEGMENT DWORD USE32 PUBLIC 'CONST'
rdata$r	ENDS
;	COMDAT ??_R4CMarkupArchive@@6B@
rdata$r	SEGMENT DWORD USE32 PUBLIC 'CONST'
rdata$r	ENDS
;	COMDAT ?Dump@CObject@@UBEXAAVCDumpContext@@@Z
_TEXT	SEGMENT PARA USE32 PUBLIC 'CODE'
_TEXT	ENDS
;	COMDAT ?AssertValid@CObject@@UBEXXZ
_TEXT	SEGMENT PARA USE32 PUBLIC 'CODE'
_TEXT	ENDS
;	COMDAT ??_R4?$CArray@UElemPos@CMarkup@@AAU12@@@6B@
rdata$r	SEGMENT DWORD USE32 PUBLIC 'CONST'
rdata$r	ENDS
;	COMDAT ??_R4PaneCtrl@ETSLayoutMgr@@6B@
rdata$r	SEGMENT DWORD USE32 PUBLIC 'CONST'
rdata$r	ENDS
;	COMDAT ??_R4Pane@ETSLayoutMgr@@6B@
rdata$r	SEGMENT DWORD USE32 PUBLIC 'CONST'
rdata$r	ENDS
;	COMDAT ??0?$allocator@_W@std@@QAE@XZ
_TEXT	SEGMENT PARA USE32 PUBLIC 'CODE'
_TEXT	ENDS
;	COMDAT ??_G?$numpunct@_W@std@@MAEPAXI@Z
_TEXT	SEGMENT PARA USE32 PUBLIC 'CODE'
_TEXT	ENDS
;	COMDAT ??_R4?$numpunct@_W@std@@6B@
rdata$r	SEGMENT DWORD USE32 PUBLIC 'CONST'
rdata$r	ENDS
;	COMDAT ??_G?$numpunct@D@std@@MAEPAXI@Z
_TEXT	SEGMENT PARA USE32 PUBLIC 'CODE'
_TEXT	ENDS
;	COMDAT ??_R4?$numpunct@D@std@@6B@
rdata$r	SEGMENT DWORD USE32 PUBLIC 'CONST'
rdata$r	ENDS
;	COMDAT ?GetDefaultManager@?$StrTraitMFC_DLL@DV?$ChTraitsCRT@D@ATL@@@@SAPAUIAtlStringMgr@ATL@@XZ
_TEXT	SEGMENT PARA USE32 PUBLIC 'CODE'
_TEXT	ENDS
;	COMDAT ?FindStringResourceInstance@?$StrTraitMFC_DLL@DV?$ChTraitsCRT@D@ATL@@@@SAPAUHINSTANCE__@@I@Z
_TEXT	SEGMENT PARA USE32 PUBLIC 'CODE'
_TEXT	ENDS
;	COMDAT ?AtlGetStringResourceImage@ATL@@YAPBUATLSTRINGRESOURCEIMAGE@1@PAUHINSTANCE__@@I@Z
_TEXT	SEGMENT PARA USE32 PUBLIC 'CODE'
_TEXT	ENDS
;	COMDAT ?_AtlGetStringResourceImage@ATL@@YAPBUATLSTRINGRESOURCEIMAGE@1@PAUHINSTANCE__@@PAUHRSRC__@@I@Z
_TEXT	SEGMENT PARA USE32 PUBLIC 'CODE'
_TEXT	ENDS
;	COMDAT ?GetBaseTypeLength@?$ChTraitsCRT@D@ATL@@SAHPB_WH@Z
_TEXT	SEGMENT PARA USE32 PUBLIC 'CODE'
_TEXT	ENDS
;	COMDAT ?_AtlGetConversionACP@ATL@@YGIXZ
_TEXT	SEGMENT PARA USE32 PUBLIC 'CODE'
_TEXT	ENDS
;	COMDAT ?g_pfnGetThreadACP@ATL@@3P6GIXZA
_DATA	SEGMENT DWORD USE32 PUBLIC 'DATA'
_DATA	ENDS
;	COMDAT ?_AtlGetThreadACPThunk@ATL@@YGIXZ
_TEXT	SEGMENT PARA USE32 PUBLIC 'CODE'
_TEXT	ENDS
;	COMDAT ?_AtlGetThreadACPReal@ATL@@YGIXZ
_TEXT	SEGMENT PARA USE32 PUBLIC 'CODE'
_TEXT	ENDS
;	COMDAT ?_AtlGetThreadACPFake@ATL@@YGIXZ
_TEXT	SEGMENT PARA USE32 PUBLIC 'CODE'
_TEXT	ENDS
;	COMDAT ?InterlockedExchangePointer@@YGPAXPAPAXPAX@Z
_TEXT	SEGMENT PARA USE32 PUBLIC 'CODE'
_TEXT	ENDS
;	COMDAT ?ConvertToBaseType@?$ChTraitsCRT@D@ATL@@SAXPADHPB_WH@Z
_TEXT	SEGMENT PARA USE32 PUBLIC 'CODE'
_TEXT	ENDS
;	COMDAT ?data@CPlex@@QAEPAXXZ
text$AFX_COL1	SEGMENT PARA USE32 PUBLIC ''
text$AFX_COL1	ENDS
;	COMDAT ??_7?$CArray@HH@@6B@
CONST	SEGMENT DWORD USE32 PUBLIC 'CONST'
CONST	ENDS
;	COMDAT ??_7?$CArray@UElemPos@CMarkup@@AAU12@@@6B@
CONST	SEGMENT DWORD USE32 PUBLIC 'CONST'
CONST	ENDS
;	COMDAT ??_7?$CMap@V?$CStringT@DV?$StrTraitMFC_DLL@DV?$ChTraitsCRT@D@ATL@@@@@ATL@@PBDVCPaneBase@ETSLayoutMgr@@V34@@@6B@
CONST	SEGMENT DWORD USE32 PUBLIC 'CONST'
CONST	ENDS
;	COMDAT ??_7?$CArray@VCPaneBase@ETSLayoutMgr@@V12@@@6B@
CONST	SEGMENT DWORD USE32 PUBLIC 'CONST'
CONST	ENDS
;	COMDAT ?IsStoring@CArchive@@QBEHXZ
_TEXT	SEGMENT PARA USE32 PUBLIC 'CODE'
_TEXT	ENDS
;	COMDAT ?Serialize@CObject@@UAEXAAVCArchive@@@Z
_TEXT	SEGMENT PARA USE32 PUBLIC 'CODE'
_TEXT	ENDS
;	COMDAT ??_7?$CArray@MM@@6B@
CONST	SEGMENT DWORD USE32 PUBLIC 'CONST'
CONST	ENDS
;	COMDAT ??1CObject@@UAE@XZ
_TEXT	SEGMENT PARA USE32 PUBLIC 'CODE'
_TEXT	ENDS
;	COMDAT ??0CObject@@IAE@XZ
_TEXT	SEGMENT PARA USE32 PUBLIC 'CODE'
_TEXT	ENDS
;	COMDAT ?_Psave@?$_Facetptr@V?$numpunct@_W@std@@@std@@2PBVfacet@locale@2@B
_DATA	SEGMENT DWORD USE32 PUBLIC 'DATA'
_DATA	ENDS
;	COMDAT ?_Psave@?$_Facetptr@V?$numpunct@D@std@@@std@@2PBVfacet@locale@2@B
_DATA	SEGMENT DWORD USE32 PUBLIC 'DATA'
_DATA	ENDS
;	COMDAT ?Unlock@CComCriticalSection@ATL@@QAEJXZ
_TEXT	SEGMENT PARA USE32 PUBLIC 'CODE'
_TEXT	ENDS
;	COMDAT ?_Psave@?$_Facetptr@V?$ctype@_W@std@@@std@@2PBVfacet@locale@2@B
_DATA	SEGMENT DWORD USE32 PUBLIC 'DATA'
_DATA	ENDS
;	COMDAT ?_Psave@?$_Facetptr@V?$ctype@D@std@@@std@@2PBVfacet@locale@2@B
_DATA	SEGMENT DWORD USE32 PUBLIC 'DATA'
_DATA	ENDS
;	COMDAT ??3@YAXPAX0@Z
_TEXT	SEGMENT PARA USE32 PUBLIC 'CODE'
_TEXT	ENDS
;	COMDAT ??2@YAPAXIPAX@Z
_TEXT	SEGMENT PARA USE32 PUBLIC 'CODE'
_TEXT	ENDS
;	COMDAT ??$_Maklocchr@_W@std@@YA_WDPA_WABU_Cvtvec@@@Z
_TEXT	SEGMENT PARA USE32 PUBLIC 'CODE'
_TEXT	ENDS
;	COMDAT ??$_Maklocstr@_W@std@@YAPA_WPBDPA_WABU_Cvtvec@@@Z
_TEXT	SEGMENT PARA USE32 PUBLIC 'CODE'
_TEXT	ENDS
;	COMDAT ??$_Maklocchr@D@std@@YADDPADABU_Cvtvec@@@Z
_TEXT	SEGMENT PARA USE32 PUBLIC 'CODE'
_TEXT	ENDS
;	COMDAT ??_C@_04LOAJBDKD@true?$AA@
CONST	SEGMENT DWORD USE32 PUBLIC 'CONST'
CONST	ENDS
;	COMDAT ??_C@_05LAPONLG@false?$AA@
CONST	SEGMENT DWORD USE32 PUBLIC 'CONST'
CONST	ENDS
;	COMDAT _wmemcpy
_TEXT	SEGMENT PARA USE32 PUBLIC 'CODE'
_TEXT	ENDS
;	COMDAT ?max_size@?$allocator@_W@std@@QBEIXZ
_TEXT	SEGMENT PARA USE32 PUBLIC 'CODE'
_TEXT	ENDS
;	COMDAT ?allocate@?$allocator@_W@std@@QAEPA_WI@Z
_TEXT	SEGMENT PARA USE32 PUBLIC 'CODE'
_TEXT	ENDS
;	COMDAT ??$_Allocate@_W@std@@YAPA_WIPA_W@Z
_TEXT	SEGMENT PARA USE32 PUBLIC 'CODE'
_TEXT	ENDS
;	COMDAT ?data@CStringData@ATL@@QAEPAXXZ
_TEXT	SEGMENT PARA USE32 PUBLIC 'CODE'
_TEXT	ENDS
;	COMDAT ?AtlThrow@ATL@@YGXJ@Z
_TEXT	SEGMENT PARA USE32 PUBLIC 'CODE'
_TEXT	ENDS
;	COMDAT ??_7length_error@std@@6B@
CONST	SEGMENT DWORD USE32 PUBLIC 'CONST'
CONST	ENDS
;	COMDAT ??_R4length_error@std@@6B@
rdata$r	SEGMENT DWORD USE32 PUBLIC 'CONST'
rdata$r	ENDS
;	COMDAT ??_R3length_error@std@@8
rdata$r	SEGMENT DWORD USE32 PUBLIC 'CONST'
rdata$r	ENDS
;	COMDAT ??_R2length_error@std@@8
rdata$r	SEGMENT DWORD USE32 PUBLIC 'CONST'
rdata$r	ENDS
;	COMDAT ??_R1A@?0A@A@length_error@std@@8
rdata$r	SEGMENT DWORD USE32 PUBLIC 'CONST'
rdata$r	ENDS
;	COMDAT ??_R1A@?0A@A@logic_error@std@@8
rdata$r	SEGMENT DWORD USE32 PUBLIC 'CONST'
rdata$r	ENDS
;	COMDAT ??_R0?AVlogic_error@std@@@8
_DATA	SEGMENT DWORD USE32 PUBLIC 'DATA'
_DATA	ENDS
;	COMDAT ??_R1A@?0A@A@exception@@8
rdata$r	SEGMENT DWORD USE32 PUBLIC 'CONST'
rdata$r	ENDS
;	COMDAT ??_R0?AVexception@@@8
_DATA	SEGMENT DWORD USE32 PUBLIC 'DATA'
_DATA	ENDS
;	COMDAT ??_Glength_error@std@@UAEPAXI@Z
_TEXT	SEGMENT PARA USE32 PUBLIC 'CODE'
_TEXT	ENDS
;	COMDAT ?what@logic_error@std@@UBEPBDXZ
_TEXT	SEGMENT PARA USE32 PUBLIC 'CODE'
_TEXT	ENDS
;	COMDAT ??1logic_error@std@@UAE@XZ
_TEXT	SEGMENT PARA USE32 PUBLIC 'CODE'
_TEXT	ENDS
;	COMDAT ??_7logic_error@std@@6B@
CONST	SEGMENT DWORD USE32 PUBLIC 'CONST'
CONST	ENDS
;	COMDAT ??_R4logic_error@std@@6B@
rdata$r	SEGMENT DWORD USE32 PUBLIC 'CONST'
rdata$r	ENDS
;	COMDAT ??_R3logic_error@std@@8
rdata$r	SEGMENT DWORD USE32 PUBLIC 'CONST'
rdata$r	ENDS
;	COMDAT ??_R2logic_error@std@@8
rdata$r	SEGMENT DWORD USE32 PUBLIC 'CONST'
rdata$r	ENDS
;	COMDAT ??_Glogic_error@std@@UAEPAXI@Z
_TEXT	SEGMENT PARA USE32 PUBLIC 'CODE'
_TEXT	ENDS
;	COMDAT ??0logic_error@std@@QAE@ABV01@@Z
_TEXT	SEGMENT PARA USE32 PUBLIC 'CODE'
_TEXT	ENDS
;	COMDAT ??0?$allocator@D@std@@QAE@ABV01@@Z
_TEXT	SEGMENT PARA USE32 PUBLIC 'CODE'
_TEXT	ENDS
;	COMDAT ?deallocate@?$allocator@D@std@@QAEXPADI@Z
_TEXT	SEGMENT PARA USE32 PUBLIC 'CODE'
_TEXT	ENDS
;	COMDAT ?max_size@?$allocator@D@std@@QBEIXZ
_TEXT	SEGMENT PARA USE32 PUBLIC 'CODE'
_TEXT	ENDS
;	COMDAT ?allocate@?$allocator@D@std@@QAEPADI@Z
_TEXT	SEGMENT PARA USE32 PUBLIC 'CODE'
_TEXT	ENDS
;	COMDAT ??$_Allocate@D@std@@YAPADIPAD@Z
_TEXT	SEGMENT PARA USE32 PUBLIC 'CODE'
_TEXT	ENDS
;	COMDAT __CTA3?AVlength_error@std@@
xdata$x	SEGMENT DWORD USE32 PUBLIC 'CONST'
xdata$x	ENDS
;	COMDAT ??1length_error@std@@UAE@XZ
_TEXT	SEGMENT PARA USE32 PUBLIC 'CODE'
_TEXT	ENDS
;	COMDAT __CT??_R0?AVexception@@@8??0exception@@QAE@ABV0@@Z12
xdata$x	SEGMENT DWORD USE32 PUBLIC 'CONST'
xdata$x	ENDS
;	COMDAT __CT??_R0?AVlogic_error@std@@@8??0logic_error@std@@QAE@ABV01@@Z40
xdata$x	SEGMENT DWORD USE32 PUBLIC 'CONST'
xdata$x	ENDS
;	COMDAT __CT??_R0?AVlength_error@std@@@8??0length_error@std@@QAE@ABV01@@Z40
xdata$x	SEGMENT DWORD USE32 PUBLIC 'CONST'
xdata$x	ENDS
;	COMDAT ??_R0?AVlength_error@std@@@8
_DATA	SEGMENT DWORD USE32 PUBLIC 'DATA'
_DATA	ENDS
;	COMDAT __TI3?AVlength_error@std@@
xdata$x	SEGMENT DWORD USE32 PUBLIC 'CONST'
xdata$x	ENDS
;	COMDAT ??0?$allocator@D@std@@QAE@XZ
_TEXT	SEGMENT PARA USE32 PUBLIC 'CODE'
_TEXT	ENDS
;	COMDAT ??0length_error@std@@QAE@ABV?$basic_string@DU?$char_traits@D@std@@V?$allocator@D@2@@1@@Z
_TEXT	SEGMENT PARA USE32 PUBLIC 'CODE'
_TEXT	ENDS
;	COMDAT ??0logic_error@std@@QAE@ABV?$basic_string@DU?$char_traits@D@std@@V?$allocator@D@2@@1@@Z
_TEXT	SEGMENT PARA USE32 PUBLIC 'CODE'
_TEXT	ENDS
;	COMDAT ??_C@_01GFHCPBMG@C?$AA@
CONST	SEGMENT DWORD USE32 PUBLIC 'CONST'
CONST	ENDS
;	COMDAT ?Release@CStringData@ATL@@QAEXXZ
_TEXT	SEGMENT PARA USE32 PUBLIC 'CODE'
_TEXT	ENDS
;	COMDAT ?IsShared@CStringData@ATL@@QBE_NXZ
_TEXT	SEGMENT PARA USE32 PUBLIC 'CODE'
_TEXT	ENDS
;	COMDAT ?_Peek@?$istreambuf_iterator@_WU?$char_traits@_W@std@@@std@@AAE_WXZ
_TEXT	SEGMENT PARA USE32 PUBLIC 'CODE'
_TEXT	ENDS
;	COMDAT ?_Peek@?$istreambuf_iterator@DU?$char_traits@D@std@@@std@@AAEDXZ
_TEXT	SEGMENT PARA USE32 PUBLIC 'CODE'
_TEXT	ENDS
;	COMDAT ??$use_facet@V?$ctype@_W@std@@@std@@YAABV?$ctype@_W@0@ABVlocale@0@@Z
_TEXT	SEGMENT PARA USE32 PUBLIC 'CODE'
_TEXT	ENDS
;	COMDAT ??_S?$ctype@_W@std@@6B@
CONST	SEGMENT DWORD USE32 PUBLIC 'CONST'
CONST	ENDS
;	COMDAT ??_R4?$ctype@_W@std@@6B@
rdata$r	SEGMENT DWORD USE32 PUBLIC 'CONST'
rdata$r	ENDS
;	COMDAT ??_R0?AV?$ctype@_W@std@@@8
_DATA	SEGMENT DWORD USE32 PUBLIC 'DATA'
_DATA	ENDS
;	COMDAT ??_R3?$ctype@_W@std@@8
rdata$r	SEGMENT DWORD USE32 PUBLIC 'CONST'
rdata$r	ENDS
;	COMDAT ??_R2?$ctype@_W@std@@8
rdata$r	SEGMENT DWORD USE32 PUBLIC 'CONST'
rdata$r	ENDS
;	COMDAT ??_R1A@?0A@A@?$ctype@_W@std@@8
rdata$r	SEGMENT DWORD USE32 PUBLIC 'CONST'
rdata$r	ENDS
;	COMDAT ??_R1A@?0A@A@ctype_base@std@@8
rdata$r	SEGMENT DWORD USE32 PUBLIC 'CONST'
rdata$r	ENDS
;	COMDAT ??_R0?AUctype_base@std@@@8
_DATA	SEGMENT DWORD USE32 PUBLIC 'DATA'
_DATA	ENDS
;	COMDAT ??_G?$ctype@_W@std@@MAEPAXI@Z
_TEXT	SEGMENT PARA USE32 PUBLIC 'CODE'
_TEXT	ENDS
;	COMDAT ??_C@_08EPJLHIJG@bad?5cast?$AA@
CONST	SEGMENT DWORD USE32 PUBLIC 'CONST'
CONST	ENDS
;	COMDAT __TI2?AVbad_cast@@
xdata$x	SEGMENT DWORD USE32 PUBLIC 'CONST'
xdata$x	ENDS
;	COMDAT __CTA2?AVbad_cast@@
xdata$x	SEGMENT DWORD USE32 PUBLIC 'CONST'
xdata$x	ENDS
;	COMDAT __CT??_R0?AVbad_cast@@@8??0bad_cast@@QAE@ABV0@@Z12
xdata$x	SEGMENT DWORD USE32 PUBLIC 'CONST'
xdata$x	ENDS
;	COMDAT ??_R0?AVbad_cast@@@8
_DATA	SEGMENT DWORD USE32 PUBLIC 'DATA'
_DATA	ENDS
;	COMDAT ??$use_facet@V?$ctype@D@std@@@std@@YAABV?$ctype@D@0@ABVlocale@0@@Z
_TEXT	SEGMENT PARA USE32 PUBLIC 'CODE'
_TEXT	ENDS
;	COMDAT ??_S?$ctype@D@std@@6B@
CONST	SEGMENT DWORD USE32 PUBLIC 'CONST'
CONST	ENDS
;	COMDAT ??_R4?$ctype@D@std@@6B@
rdata$r	SEGMENT DWORD USE32 PUBLIC 'CONST'
rdata$r	ENDS
;	COMDAT ??_R0?AV?$ctype@D@std@@@8
_DATA	SEGMENT DWORD USE32 PUBLIC 'DATA'
_DATA	ENDS
;	COMDAT ??_R3?$ctype@D@std@@8
rdata$r	SEGMENT DWORD USE32 PUBLIC 'CONST'
rdata$r	ENDS
;	COMDAT ??_R2?$ctype@D@std@@8
rdata$r	SEGMENT DWORD USE32 PUBLIC 'CONST'
rdata$r	ENDS
;	COMDAT ??_R1A@?0A@A@?$ctype@D@std@@8
rdata$r	SEGMENT DWORD USE32 PUBLIC 'CONST'
rdata$r	ENDS
;	COMDAT ??_G?$ctype@D@std@@MAEPAXI@Z
_TEXT	SEGMENT PARA USE32 PUBLIC 'CODE'
_TEXT	ENDS
;	COMDAT ??_S?$numpunct@_W@std@@6B@
CONST	SEGMENT DWORD USE32 PUBLIC 'CONST'
CONST	ENDS
;	COMDAT ??_S?$numpunct@D@std@@6B@
CONST	SEGMENT DWORD USE32 PUBLIC 'CONST'
CONST	ENDS
;	COMDAT _wmemmove
_TEXT	SEGMENT PARA USE32 PUBLIC 'CODE'
_TEXT	ENDS
;	COMDAT ?deallocate@?$allocator@_W@std@@QAEXPA_WI@Z
_TEXT	SEGMENT PARA USE32 PUBLIC 'CODE'
_TEXT	ENDS
;	COMDAT ??0?$allocator@_W@std@@QAE@ABV01@@Z
_TEXT	SEGMENT PARA USE32 PUBLIC 'CODE'
_TEXT	ENDS
;	COMDAT ?SendMessageA@CWnd@@QAEJIIJ@Z
_TEXT	SEGMENT PARA USE32 PUBLIC 'CODE'
_TEXT	ENDS
;	COMDAT ?GetPage@CPropertySheet@@QBEPAVCPropertyPage@@H@Z
_TEXT	SEGMENT PARA USE32 PUBLIC 'CODE'
_TEXT	ENDS
;	COMDAT ??ACPtrArray@@QBEPAXH@Z
_TEXT	SEGMENT PARA USE32 PUBLIC 'CODE'
_TEXT	ENDS
;	COMDAT ?GetAt@CPtrArray@@QBEPAXH@Z
_TEXT	SEGMENT PARA USE32 PUBLIC 'CODE'
_TEXT	ENDS
;	COMDAT ?GetTabControl@CPropertySheet@@QBEPAVCTabCtrl@@XZ
_TEXT	SEGMENT PARA USE32 PUBLIC 'CODE'
_TEXT	ENDS
;	COMDAT ?RedrawWindow@CWnd@@QAEHPBUtagRECT@@PAVCRgn@@I@Z
_TEXT	SEGMENT PARA USE32 PUBLIC 'CODE'
_TEXT	ENDS
;	COMDAT ?GetSafeHandle@CGdiObject@@QBEPAXXZ
_TEXT	SEGMENT PARA USE32 PUBLIC 'CODE'
_TEXT	ENDS
;	COMDAT ?OnCreate@CWnd@@IAEHPAUtagCREATESTRUCTA@@@Z
_TEXT	SEGMENT PARA USE32 PUBLIC 'CODE'
_TEXT	ENDS
;	COMDAT ?_messageEntries@ETSLayoutPropertySheet@@0QBUAFX_MSGMAP_ENTRY@@B
CONST	SEGMENT DWORD USE32 PUBLIC 'CONST'
CONST	ENDS
;	COMDAT ?messageMap@ETSLayoutPropertySheet@@1UAFX_MSGMAP@@B
CONST	SEGMENT DWORD USE32 PUBLIC 'CONST'
CONST	ENDS
;	COMDAT ??_7ETSLayoutPropertySheet@@6BETSLayoutMgr@@@
CONST	SEGMENT DWORD USE32 PUBLIC 'CONST'
CONST	ENDS
;	COMDAT ??_7ETSLayoutPropertySheet@@6BCPropertySheet@@@
CONST	SEGMENT DWORD USE32 PUBLIC 'CONST'
CONST	ENDS
;	COMDAT ?classETSLayoutPropertySheet@ETSLayoutPropertySheet@@2UCRuntimeClass@@B
CONST	SEGMENT DWORD USE32 PUBLIC 'CONST'
CONST	ENDS
;	COMDAT ?IsWizard@CPropertySheet@@QBEHXZ
_TEXT	SEGMENT PARA USE32 PUBLIC 'CODE'
_TEXT	ENDS
;	COMDAT ?OnWindowPosChanging@CWnd@@IAEXPAUtagWINDOWPOS@@@Z
_TEXT	SEGMENT PARA USE32 PUBLIC 'CODE'
_TEXT	ENDS
;	COMDAT ?OnWindowPosChanged@CWnd@@IAEXPAUtagWINDOWPOS@@@Z
_TEXT	SEGMENT PARA USE32 PUBLIC 'CODE'
_TEXT	ENDS
;	COMDAT ?_messageEntries@ETSLayoutPropertyPage@@0QBUAFX_MSGMAP_ENTRY@@B
CONST	SEGMENT DWORD USE32 PUBLIC 'CONST'
CONST	ENDS
;	COMDAT ?messageMap@ETSLayoutPropertyPage@@1UAFX_MSGMAP@@B
CONST	SEGMENT DWORD USE32 PUBLIC 'CONST'
CONST	ENDS
;	COMDAT ??_7ETSLayoutPropertyPage@@6BETSLayoutMgr@@@
CONST	SEGMENT DWORD USE32 PUBLIC 'CONST'
CONST	ENDS
;	COMDAT ??_7ETSLayoutPropertyPage@@6BCPropertyPage@@@
CONST	SEGMENT DWORD USE32 PUBLIC 'CONST'
CONST	ENDS
;	COMDAT ?classETSLayoutPropertyPage@ETSLayoutPropertyPage@@2UCRuntimeClass@@B
CONST	SEGMENT DWORD USE32 PUBLIC 'CONST'
CONST	ENDS
;	COMDAT ?_messageEntries@ETSLayoutFormView@@0QBUAFX_MSGMAP_ENTRY@@B
CONST	SEGMENT DWORD USE32 PUBLIC 'CONST'
CONST	ENDS
;	COMDAT ?messageMap@ETSLayoutFormView@@1UAFX_MSGMAP@@B
CONST	SEGMENT DWORD USE32 PUBLIC 'CONST'
CONST	ENDS
;	COMDAT ??_7ETSLayoutFormView@@6BETSLayoutMgr@@@
CONST	SEGMENT DWORD USE32 PUBLIC 'CONST'
CONST	ENDS
;	COMDAT ??_7ETSLayoutFormView@@6BCFormView@@@
CONST	SEGMENT DWORD USE32 PUBLIC 'CONST'
CONST	ENDS
;	COMDAT ?classETSLayoutFormView@ETSLayoutFormView@@2UCRuntimeClass@@B
CONST	SEGMENT DWORD USE32 PUBLIC 'CONST'
CONST	ENDS
;	COMDAT ?DeflateRect@CRect@@QAEXHH@Z
_TEXT	SEGMENT PARA USE32 PUBLIC 'CODE'
_TEXT	ENDS
;	COMDAT ?OnGetMinMaxInfo@CWnd@@IAEXPAUtagMINMAXINFO@@@Z
_TEXT	SEGMENT PARA USE32 PUBLIC 'CODE'
_TEXT	ENDS
;	COMDAT ?_messageEntries@ETSLayoutDialogBar@@0QBUAFX_MSGMAP_ENTRY@@B
CONST	SEGMENT DWORD USE32 PUBLIC 'CONST'
CONST	ENDS
;	COMDAT ?messageMap@ETSLayoutDialogBar@@1UAFX_MSGMAP@@B
CONST	SEGMENT DWORD USE32 PUBLIC 'CONST'
CONST	ENDS
;	COMDAT ??_7ETSLayoutDialogBar@@6BETSLayoutMgr@@@
CONST	SEGMENT DWORD USE32 PUBLIC 'CONST'
CONST	ENDS
;	COMDAT ??_7ETSLayoutDialogBar@@6BCDialogBar@@@
CONST	SEGMENT DWORD USE32 PUBLIC 'CONST'
CONST	ENDS
;	COMDAT ?LoadIconA@CWinApp@@QBEPAUHICON__@@I@Z
_TEXT	SEGMENT PARA USE32 PUBLIC 'CODE'
_TEXT	ENDS
;	COMDAT ?SetIcon@CWnd@@QAEPAUHICON__@@PAU2@H@Z
_TEXT	SEGMENT PARA USE32 PUBLIC 'CODE'
_TEXT	ENDS
;	COMDAT ?OnSize@CWnd@@IAEXIHH@Z
_TEXT	SEGMENT PARA USE32 PUBLIC 'CODE'
_TEXT	ENDS
;	COMDAT ?_messageEntries@ETSLayoutDialog@@0QBUAFX_MSGMAP_ENTRY@@B
CONST	SEGMENT DWORD USE32 PUBLIC 'CONST'
CONST	ENDS
;	COMDAT ?messageMap@ETSLayoutDialog@@1UAFX_MSGMAP@@B
CONST	SEGMENT DWORD USE32 PUBLIC 'CONST'
CONST	ENDS
;	COMDAT ??_7ETSLayoutDialog@@6BETSLayoutMgr@@@
CONST	SEGMENT DWORD USE32 PUBLIC 'CONST'
CONST	ENDS
;	COMDAT ??_7ETSLayoutDialog@@6BCDialog@@@
CONST	SEGMENT DWORD USE32 PUBLIC 'CONST'
CONST	ENDS
;	COMDAT ?SetRect@CRect@@QAEXHHHH@Z
_TEXT	SEGMENT PARA USE32 PUBLIC 'CODE'
_TEXT	ENDS
;	COMDAT ??_7Pane@ETSLayoutMgr@@6B@
CONST	SEGMENT DWORD USE32 PUBLIC 'CONST'
CONST	ENDS
;	COMDAT ??_7PaneCtrl@ETSLayoutMgr@@6B@
CONST	SEGMENT DWORD USE32 PUBLIC 'CONST'
CONST	ENDS
;	COMDAT ??_7PaneTab@ETSLayoutMgr@@6B@
CONST	SEGMENT DWORD USE32 PUBLIC 'CONST'
CONST	ENDS
;	COMDAT ?EqualRect@CRect@@QBEHPBUtagRECT@@@Z
_TEXT	SEGMENT PARA USE32 PUBLIC 'CODE'
_TEXT	ENDS
;	COMDAT ??_7PaneItem@ETSLayoutMgr@@6B@
CONST	SEGMENT DWORD USE32 PUBLIC 'CONST'
CONST	ENDS
;	COMDAT ?FromHandle@CBrush@@SGPAV1@PAUHBRUSH__@@@Z
_TEXT	SEGMENT PARA USE32 PUBLIC 'CODE'
_TEXT	ENDS
;	COMDAT ?FillRgn@CDC@@QAEHPAVCRgn@@PAVCBrush@@@Z
_TEXT	SEGMENT PARA USE32 PUBLIC 'CODE'
_TEXT	ENDS
;	COMDAT ?GetNextWindow@CWnd@@QBEPAV1@I@Z
_TEXT	SEGMENT PARA USE32 PUBLIC 'CODE'
_TEXT	ENDS
;	COMDAT ?GetNextWindow@@YAPAUHWND__@@PAU1@I@Z
_TEXT	SEGMENT PARA USE32 PUBLIC 'CODE'
_TEXT	ENDS
;	COMDAT ?CreatePolygonRgn@CRgn@@QAEHPAUtagPOINT@@HH@Z
_TEXT	SEGMENT PARA USE32 PUBLIC 'CODE'
_TEXT	ENDS
;	COMDAT ??0CPoint@@QAE@HH@Z
_TEXT	SEGMENT PARA USE32 PUBLIC 'CODE'
_TEXT	ENDS
;	COMDAT ??0CPoint@@QAE@XZ
_TEXT	SEGMENT PARA USE32 PUBLIC 'CODE'
_TEXT	ENDS
;	COMDAT ??_H@YGXPAXIHP6EPAX0@Z@Z
_TEXT	SEGMENT PARA USE32 PUBLIC 'CODE'
_TEXT	ENDS
;	COMDAT ?CombineRgn@CRgn@@QAEHPAV1@0H@Z
_TEXT	SEGMENT PARA USE32 PUBLIC 'CODE'
_TEXT	ENDS
;	COMDAT ?AdjustRect@CTabCtrl@@QAEXHPAUtagRECT@@@Z
_TEXT	SEGMENT PARA USE32 PUBLIC 'CODE'
_TEXT	ENDS
;	COMDAT __tcscmp
_TEXT	SEGMENT PARA USE32 PUBLIC 'CODE'
_TEXT	ENDS
;	COMDAT ?GetSafeHwnd@CWnd@@QBEPAUHWND__@@XZ
_TEXT	SEGMENT PARA USE32 PUBLIC 'CODE'
_TEXT	ENDS
;	COMDAT ?SetRectRgn@CRgn@@QAEXPBUtagRECT@@@Z
_TEXT	SEGMENT PARA USE32 PUBLIC 'CODE'
_TEXT	ENDS
;	COMDAT ?GetWindow@CWnd@@QBEPAV1@I@Z
_TEXT	SEGMENT PARA USE32 PUBLIC 'CODE'
_TEXT	ENDS
;	COMDAT ?CreateRectRgn@CRgn@@QAEHHHHH@Z
_TEXT	SEGMENT PARA USE32 PUBLIC 'CODE'
_TEXT	ENDS
;	COMDAT ?CreateRectRgnIndirect@CRgn@@QAEHPBUtagRECT@@@Z
_TEXT	SEGMENT PARA USE32 PUBLIC 'CODE'
_TEXT	ENDS
;	COMDAT ??1CRgn@@UAE@XZ
_TEXT	SEGMENT PARA USE32 PUBLIC 'CODE'
_TEXT	ENDS
;	COMDAT ??_7CRgn@@6B@
CONST	SEGMENT DWORD USE32 PUBLIC 'CONST'
CONST	ENDS
;	COMDAT ??_R4CRgn@@6B@
rdata$r	SEGMENT DWORD USE32 PUBLIC 'CONST'
rdata$r	ENDS
;	COMDAT ??_R0?AVCRgn@@@8
_DATA	SEGMENT DWORD USE32 PUBLIC 'DATA'
_DATA	ENDS
;	COMDAT ??_R3CRgn@@8
rdata$r	SEGMENT DWORD USE32 PUBLIC 'CONST'
rdata$r	ENDS
;	COMDAT ??_R2CRgn@@8
rdata$r	SEGMENT DWORD USE32 PUBLIC 'CONST'
rdata$r	ENDS
;	COMDAT ??_R1A@?0A@A@CRgn@@8
rdata$r	SEGMENT DWORD USE32 PUBLIC 'CONST'
rdata$r	ENDS
;	COMDAT ??_R1A@?0A@A@CGdiObject@@8
rdata$r	SEGMENT DWORD USE32 PUBLIC 'CONST'
rdata$r	ENDS
;	COMDAT ??_R0?AVCGdiObject@@@8
_DATA	SEGMENT DWORD USE32 PUBLIC 'DATA'
_DATA	ENDS
;	COMDAT ??_GCRgn@@UAEPAXI@Z
_TEXT	SEGMENT PARA USE32 PUBLIC 'CODE'
_TEXT	ENDS
;	COMDAT ??1CGdiObject@@UAE@XZ
_TEXT	SEGMENT PARA USE32 PUBLIC 'CODE'
_TEXT	ENDS
;	COMDAT ??_7CGdiObject@@6B@
CONST	SEGMENT DWORD USE32 PUBLIC 'CONST'
CONST	ENDS
;	COMDAT ??_R4CGdiObject@@6B@
rdata$r	SEGMENT DWORD USE32 PUBLIC 'CONST'
rdata$r	ENDS
;	COMDAT ??_R3CGdiObject@@8
rdata$r	SEGMENT DWORD USE32 PUBLIC 'CONST'
rdata$r	ENDS
;	COMDAT ??_R2CGdiObject@@8
rdata$r	SEGMENT DWORD USE32 PUBLIC 'CONST'
rdata$r	ENDS
;	COMDAT ??_GCGdiObject@@UAEPAXI@Z
_TEXT	SEGMENT PARA USE32 PUBLIC 'CODE'
_TEXT	ENDS
;	COMDAT ??0CRgn@@QAE@XZ
_TEXT	SEGMENT PARA USE32 PUBLIC 'CODE'
_TEXT	ENDS
;	COMDAT ??0CGdiObject@@QAE@XZ
_TEXT	SEGMENT PARA USE32 PUBLIC 'CODE'
_TEXT	ENDS
;	COMDAT ?AfxGetApp@@YGPAVCWinApp@@XZ
_TEXT	SEGMENT PARA USE32 PUBLIC 'CODE'
_TEXT	ENDS
;	COMDAT ?Invalidate@CWnd@@QAEXH@Z
_TEXT	SEGMENT PARA USE32 PUBLIC 'CODE'
_TEXT	ENDS
;	COMDAT ?IsWindowVisible@CWnd@@QBEHXZ
_TEXT	SEGMENT PARA USE32 PUBLIC 'CODE'
_TEXT	ENDS
;	COMDAT ?MoveWindow@CWnd@@QAEXPBUtagRECT@@H@Z
_TEXT	SEGMENT PARA USE32 PUBLIC 'CODE'
_TEXT	ENDS
;	COMDAT ??ZCRect@@QAEXPBUtagRECT@@@Z
_TEXT	SEGMENT PARA USE32 PUBLIC 'CODE'
_TEXT	ENDS
;	COMDAT ?DeflateRect@CRect@@QAEXPBUtagRECT@@@Z
_TEXT	SEGMENT PARA USE32 PUBLIC 'CODE'
_TEXT	ENDS
;	COMDAT ?OffsetRect@CRect@@QAEXHH@Z
_TEXT	SEGMENT PARA USE32 PUBLIC 'CODE'
_TEXT	ENDS
;	COMDAT ?GetParent@CWnd@@QBEPAV1@XZ
_TEXT	SEGMENT PARA USE32 PUBLIC 'CODE'
_TEXT	ENDS
;	COMDAT ?GetWindowRect@CWnd@@QBEXPAUtagRECT@@@Z
_TEXT	SEGMENT PARA USE32 PUBLIC 'CODE'
_TEXT	ENDS
;	COMDAT ?Width@CRect@@QBEHXZ
_TEXT	SEGMENT PARA USE32 PUBLIC 'CODE'
_TEXT	ENDS
;	COMDAT ?Height@CRect@@QBEHXZ
_TEXT	SEGMENT PARA USE32 PUBLIC 'CODE'
_TEXT	ENDS
;	COMDAT ??3CObject@@SGXPAX@Z
_TEXT	SEGMENT PARA USE32 PUBLIC 'CODE'
_TEXT	ENDS
;	COMDAT ??2CObject@@SGPAXI@Z
_TEXT	SEGMENT PARA USE32 PUBLIC 'CODE'
_TEXT	ENDS
;	COMDAT ??_7CMarkupArchive@@6B@
CONST	SEGMENT DWORD USE32 PUBLIC 'CONST'
CONST	ENDS
;	COMDAT __tcschr
_TEXT	SEGMENT PARA USE32 PUBLIC 'CODE'
_TEXT	ENDS
;	COMDAT __tcsnccmp
_TEXT	SEGMENT PARA USE32 PUBLIC 'CODE'
_TEXT	ENDS
;	COMDAT ??_7CMarkup@@6B@
CONST	SEGMENT DWORD USE32 PUBLIC 'CONST'
CONST	ENDS
;	COMDAT ??BCRect@@QAEPAUtagRECT@@XZ
_TEXT	SEGMENT PARA USE32 PUBLIC 'CODE'
_TEXT	ENDS
;	COMDAT ?GetClientRect@CWnd@@QBEXPAUtagRECT@@@Z
_TEXT	SEGMENT PARA USE32 PUBLIC 'CODE'
_TEXT	ENDS
;	COMDAT ??0CSize@@QAE@HH@Z
_TEXT	SEGMENT PARA USE32 PUBLIC 'CODE'
_TEXT	ENDS
;	COMDAT ??0CSize@@QAE@XZ
_TEXT	SEGMENT PARA USE32 PUBLIC 'CODE'
_TEXT	ENDS
;	COMDAT ??_7ETSLayoutMgr@@6B@
CONST	SEGMENT DWORD USE32 PUBLIC 'CONST'
CONST	ENDS
;	COMDAT ?IsLocked@CStringData@ATL@@QBE_NXZ
_TEXT	SEGMENT PARA USE32 PUBLIC 'CODE'
_TEXT	ENDS
;	COMDAT ?AddRef@CStringData@ATL@@QAEXXZ
_TEXT	SEGMENT PARA USE32 PUBLIC 'CODE'
_TEXT	ENDS
;	COMDAT ??0CRect@@QAE@HHHH@Z
_TEXT	SEGMENT PARA USE32 PUBLIC 'CODE'
_TEXT	ENDS
;	COMDAT ??0CRect@@QAE@XZ
_TEXT	SEGMENT PARA USE32 PUBLIC 'CODE'
_TEXT	ENDS
;	COMDAT ??_7PaneBase@ETSLayoutMgr@@6B@
CONST	SEGMENT DWORD USE32 PUBLIC 'CONST'
CONST	ENDS
sxdata	SEGMENT DWORD USE32 'SXDATA'
sxdata	ENDS
FLAT	GROUP _DATA, CONST, _BSS
	ASSUME	CS: FLAT, DS: FLAT, SS: FLAT
endif

INCLUDELIB MSVCRT
INCLUDELIB OLDNAMES

PUBLIC	?paneNull@ETSLayoutMgr@@2PAVCWnd@@A		; ETSLayoutMgr::paneNull
PUBLIC	?g_pfnGetThreadACP@ATL@@3P6GIXZA		; ATL::g_pfnGetThreadACP
PUBLIC	?_AtlGetThreadACPThunk@ATL@@YGIXZ		; ATL::_AtlGetThreadACPThunk
PUBLIC	?_PropertySheetIDs@@3PAJA			; _PropertySheetIDs
PUBLIC	?OnGetMinMaxInfo@CWnd@@IAEXPAUtagMINMAXINFO@@@Z	; CWnd::OnGetMinMaxInfo
PUBLIC	?OnSize@ETSLayoutDialog@@IAEXIHH@Z		; ETSLayoutDialog::OnSize
PUBLIC	?OnGetMinMaxInfo@ETSLayoutDialog@@IAEXPAUtagMINMAXINFO@@@Z ; ETSLayoutDialog::OnGetMinMaxInfo
PUBLIC	?OnEraseBkgnd@ETSLayoutDialog@@IAEHPAVCDC@@@Z	; ETSLayoutDialog::OnEraseBkgnd
PUBLIC	?OnDestroy@ETSLayoutDialog@@IAEXXZ		; ETSLayoutDialog::OnDestroy
PUBLIC	?_messageEntries@ETSLayoutDialog@@0QBUAFX_MSGMAP_ENTRY@@B ; ETSLayoutDialog::_messageEntries
PUBLIC	?messageMap@ETSLayoutDialog@@1UAFX_MSGMAP@@B	; ETSLayoutDialog::messageMap
PUBLIC	?classETSLayoutFormView@ETSLayoutFormView@@2UCRuntimeClass@@B ; ETSLayoutFormView::classETSLayoutFormView
PUBLIC	?OnSize@ETSLayoutFormView@@IAEXIHH@Z		; ETSLayoutFormView::OnSize
PUBLIC	?OnEraseBkgnd@ETSLayoutFormView@@IAEHPAVCDC@@@Z	; ETSLayoutFormView::OnEraseBkgnd
PUBLIC	?OnGetMinMaxInfo@ETSLayoutFormView@@IAEXPAUtagMINMAXINFO@@@Z ; ETSLayoutFormView::OnGetMinMaxInfo
PUBLIC	?_messageEntries@ETSLayoutFormView@@0QBUAFX_MSGMAP_ENTRY@@B ; ETSLayoutFormView::_messageEntries
PUBLIC	?messageMap@ETSLayoutFormView@@1UAFX_MSGMAP@@B	; ETSLayoutFormView::messageMap
PUBLIC	?OnSize@ETSLayoutDialogBar@@IAEXIHH@Z		; ETSLayoutDialogBar::OnSize
PUBLIC	?OnDestroy@ETSLayoutDialogBar@@IAEXXZ		; ETSLayoutDialogBar::OnDestroy
PUBLIC	?OnEraseBkgnd@ETSLayoutDialogBar@@IAEHPAVCDC@@@Z ; ETSLayoutDialogBar::OnEraseBkgnd
PUBLIC	?OnInitDialog@ETSLayoutDialogBar@@IAEJIJ@Z	; ETSLayoutDialogBar::OnInitDialog
PUBLIC	?_messageEntries@ETSLayoutDialogBar@@0QBUAFX_MSGMAP_ENTRY@@B ; ETSLayoutDialogBar::_messageEntries
PUBLIC	?messageMap@ETSLayoutDialogBar@@1UAFX_MSGMAP@@B	; ETSLayoutDialogBar::messageMap
PUBLIC	?classETSLayoutPropertySheet@ETSLayoutPropertySheet@@2UCRuntimeClass@@B ; ETSLayoutPropertySheet::classETSLayoutPropertySheet
PUBLIC	?OnCreate@ETSLayoutPropertySheet@@IAEHPAUtagCREATESTRUCTA@@@Z ; ETSLayoutPropertySheet::OnCreate
PUBLIC	?OnSize@ETSLayoutPropertySheet@@IAEXIHH@Z	; ETSLayoutPropertySheet::OnSize
PUBLIC	?OnGetMinMaxInfo@ETSLayoutPropertySheet@@IAEXPAUtagMINMAXINFO@@@Z ; ETSLayoutPropertySheet::OnGetMinMaxInfo
PUBLIC	?OnDestroy@ETSLayoutPropertySheet@@IAEXXZ	; ETSLayoutPropertySheet::OnDestroy
PUBLIC	?OnEraseBkgnd@ETSLayoutPropertySheet@@IAEHPAVCDC@@@Z ; ETSLayoutPropertySheet::OnEraseBkgnd
PUBLIC	?_messageEntries@ETSLayoutPropertySheet@@0QBUAFX_MSGMAP_ENTRY@@B ; ETSLayoutPropertySheet::_messageEntries
PUBLIC	?messageMap@ETSLayoutPropertySheet@@1UAFX_MSGMAP@@B ; ETSLayoutPropertySheet::messageMap
PUBLIC	?classETSLayoutPropertyPage@ETSLayoutPropertyPage@@2UCRuntimeClass@@B ; ETSLayoutPropertyPage::classETSLayoutPropertyPage
PUBLIC	?CreateObject@ETSLayoutPropertyPage@@SGPAVCObject@@XZ ; ETSLayoutPropertyPage::CreateObject
PUBLIC	?OnSize@ETSLayoutPropertyPage@@IAEXIHH@Z	; ETSLayoutPropertyPage::OnSize
PUBLIC	?OnGetMinMaxInfo@ETSLayoutPropertyPage@@IAEXPAUtagMINMAXINFO@@@Z ; ETSLayoutPropertyPage::OnGetMinMaxInfo
PUBLIC	?OnEraseBkgnd@ETSLayoutPropertyPage@@IAEHPAVCDC@@@Z ; ETSLayoutPropertyPage::OnEraseBkgnd
PUBLIC	?OnWindowPosChanging@ETSLayoutPropertyPage@@IAEXPAUtagWINDOWPOS@@@Z ; ETSLayoutPropertyPage::OnWindowPosChanging
PUBLIC	?OnDestroy@ETSLayoutPropertyPage@@IAEXXZ	; ETSLayoutPropertyPage::OnDestroy
PUBLIC	?OnWindowPosChanged@ETSLayoutPropertyPage@@IAEXPAUtagWINDOWPOS@@@Z ; ETSLayoutPropertyPage::OnWindowPosChanged
PUBLIC	?_messageEntries@ETSLayoutPropertyPage@@0QBUAFX_MSGMAP_ENTRY@@B ; ETSLayoutPropertyPage::_messageEntries
PUBLIC	?messageMap@ETSLayoutPropertyPage@@1UAFX_MSGMAP@@B ; ETSLayoutPropertyPage::messageMap
EXTRN	?GetThisMessageMap@CFormView@@KGPBUAFX_MSGMAP@@XZ:NEAR ; CFormView::GetThisMessageMap
EXTRN	?GetThisMessageMap@CDialog@@KGPBUAFX_MSGMAP@@XZ:NEAR ; CDialog::GetThisMessageMap
EXTRN	?GetThisMessageMap@CDialogBar@@KGPBUAFX_MSGMAP@@XZ:NEAR ; CDialogBar::GetThisMessageMap
EXTRN	?GetThisClass@CPropertyPage@@SGPAUCRuntimeClass@@XZ:NEAR ; CPropertyPage::GetThisClass
EXTRN	?GetThisMessageMap@CPropertyPage@@KGPBUAFX_MSGMAP@@XZ:NEAR ; CPropertyPage::GetThisMessageMap
EXTRN	?GetThisClass@CPropertySheet@@SGPAUCRuntimeClass@@XZ:NEAR ; CPropertySheet::GetThisClass
EXTRN	?GetThisClass@CFormView@@SGPAUCRuntimeClass@@XZ:NEAR ; CFormView::GetThisClass
EXTRN	?GetThisMessageMap@CPropertySheet@@KGPBUAFX_MSGMAP@@XZ:NEAR ; CPropertySheet::GetThisMessageMap
_BSS	SEGMENT
?paneNull@ETSLayoutMgr@@2PAVCWnd@@A DD 01H DUP (?)	; ETSLayoutMgr::paneNull
_auIDStatusBar DD 01H DUP (?)
_BSS	ENDS
CONST	SEGMENT
$SG200708 DB	'toppanel', 00H
	ORG $+3
$SG200940 DB	'WindowPlacement', 00H
$SG200948 DB	'WindowPlacement', 00H
$SG200972 DB	'Button', 00H
	ORG $+1
$SG200975 DB	'SysTabControl32', 00H
$SG200980 DB	'msctls_statusbar32', 00H
	ORG $+1
$SG201014 DB	'ComboBox', 00H
	ORG $+3
$SG201015 DB	'ComboBoxEx32', 00H
	ORG $+3
$SG201046 DB	'ComboBox', 00H
	ORG $+3
$SG201047 DB	'ComboBoxEx32', 00H
	ORG $+3
$SG201388 DB	'_wrap', 00H
$SG201412 DB	00H
	ORG $+1
$SG201513 DB	'_wrap', 00H
	ORG $+2
$SG201536 DB	'_wrap', 00H
CONST	ENDS
;	COMDAT ?_messageEntries@ETSLayoutDialog@@0QBUAFX_MSGMAP_ENTRY@@B
CONST	SEGMENT
?_messageEntries@ETSLayoutDialog@@0QBUAFX_MSGMAP_ENTRY@@B DD 05H ; ETSLayoutDialog::_messageEntries
	DD	00H
	DD	00H
	DD	00H
	DD	016H
	DD	FLAT:?OnSize@ETSLayoutDialog@@IAEXIHH@Z
	DD	024H
	DD	00H
	DD	00H
	DD	00H
	DD	029H
	DD	FLAT:?OnGetMinMaxInfo@ETSLayoutDialog@@IAEXPAUtagMINMAXINFO@@@Z
	DD	014H
	DD	00H
	DD	00H
	DD	00H
	DD	01H
	DD	FLAT:?OnEraseBkgnd@ETSLayoutDialog@@IAEHPAVCDC@@@Z
	DD	02H
	DD	00H
	DD	00H
	DD	00H
	DD	010H
	DD	FLAT:?OnDestroy@ETSLayoutDialog@@IAEXXZ
	DD	00H
	DD	00H
	DD	00H
	DD	00H
	DD	00H
	DD	00H
CONST	ENDS
;	COMDAT ?messageMap@ETSLayoutDialog@@1UAFX_MSGMAP@@B
CONST	SEGMENT
?messageMap@ETSLayoutDialog@@1UAFX_MSGMAP@@B DD FLAT:?GetThisMessageMap@CDialog@@KGPBUAFX_MSGMAP@@XZ ; ETSLayoutDialog::messageMap
	DD	FLAT:?_messageEntries@ETSLayoutDialog@@0QBUAFX_MSGMAP_ENTRY@@B
CONST	ENDS
CONST	SEGMENT
$SG201950 DB	00H
	ORG $+1
$SG201952 DB	'Error - Statusbar', 00H
CONST	ENDS
;	COMDAT ?_messageEntries@ETSLayoutDialogBar@@0QBUAFX_MSGMAP_ENTRY@@B
CONST	SEGMENT
?_messageEntries@ETSLayoutDialogBar@@0QBUAFX_MSGMAP_ENTRY@@B DD 05H ; ETSLayoutDialogBar::_messageEntries
	DD	00H
	DD	00H
	DD	00H
	DD	016H
	DD	FLAT:?OnSize@ETSLayoutDialogBar@@IAEXIHH@Z
	DD	024H
	DD	00H
	DD	00H
	DD	00H
	DD	029H
	DD	FLAT:?OnGetMinMaxInfo@CWnd@@IAEXPAUtagMINMAXINFO@@@Z
	DD	02H
	DD	00H
	DD	00H
	DD	00H
	DD	010H
	DD	FLAT:?OnDestroy@ETSLayoutDialogBar@@IAEXXZ
	DD	014H
	DD	00H
	DD	00H
	DD	00H
	DD	01H
	DD	FLAT:?OnEraseBkgnd@ETSLayoutDialogBar@@IAEHPAVCDC@@@Z
	DD	0110H
	DD	00H
	DD	00H
	DD	00H
	DD	0eH
	DD	FLAT:?OnInitDialog@ETSLayoutDialogBar@@IAEJIJ@Z
	DD	00H
	DD	00H
	DD	00H
	DD	00H
	DD	00H
	DD	00H
CONST	ENDS
;	COMDAT ?messageMap@ETSLayoutDialogBar@@1UAFX_MSGMAP@@B
CONST	SEGMENT
?messageMap@ETSLayoutDialogBar@@1UAFX_MSGMAP@@B DD FLAT:?GetThisMessageMap@CDialogBar@@KGPBUAFX_MSGMAP@@XZ ; ETSLayoutDialogBar::messageMap
	DD	FLAT:?_messageEntries@ETSLayoutDialogBar@@0QBUAFX_MSGMAP_ENTRY@@B
CONST	ENDS
CONST	SEGMENT
	ORG $+2
$SG202055 DB	'ETSLayoutFormView', 00H
CONST	ENDS
;	COMDAT ?classETSLayoutFormView@ETSLayoutFormView@@2UCRuntimeClass@@B
CONST	SEGMENT
?classETSLayoutFormView@ETSLayoutFormView@@2UCRuntimeClass@@B DD FLAT:$SG202055 ; ETSLayoutFormView::classETSLayoutFormView
	DD	0f4H
	DD	0ffffH
	DD	00H
	DD	FLAT:?GetThisClass@CFormView@@SGPAUCRuntimeClass@@XZ
	DD	00H
	DD	00H
CONST	ENDS
;	COMDAT ?_messageEntries@ETSLayoutFormView@@0QBUAFX_MSGMAP_ENTRY@@B
CONST	SEGMENT
?_messageEntries@ETSLayoutFormView@@0QBUAFX_MSGMAP_ENTRY@@B DD 05H ; ETSLayoutFormView::_messageEntries
	DD	00H
	DD	00H
	DD	00H
	DD	016H
	DD	FLAT:?OnSize@ETSLayoutFormView@@IAEXIHH@Z
	DD	024H
	DD	00H
	DD	00H
	DD	00H
	DD	029H
	DD	FLAT:?OnGetMinMaxInfo@ETSLayoutFormView@@IAEXPAUtagMINMAXINFO@@@Z
	DD	014H
	DD	00H
	DD	00H
	DD	00H
	DD	01H
	DD	FLAT:?OnEraseBkgnd@ETSLayoutFormView@@IAEHPAVCDC@@@Z
	DD	00H
	DD	00H
	DD	00H
	DD	00H
	DD	00H
	DD	00H
CONST	ENDS
;	COMDAT ?messageMap@ETSLayoutFormView@@1UAFX_MSGMAP@@B
CONST	SEGMENT
?messageMap@ETSLayoutFormView@@1UAFX_MSGMAP@@B DD FLAT:?GetThisMessageMap@CFormView@@KGPBUAFX_MSGMAP@@XZ ; ETSLayoutFormView::messageMap
	DD	FLAT:?_messageEntries@ETSLayoutFormView@@0QBUAFX_MSGMAP_ENTRY@@B
CONST	ENDS
CONST	SEGMENT
	ORG $+2
$SG202134 DB	'ETSLayoutPropertyPage', 00H
CONST	ENDS
;	COMDAT ?classETSLayoutPropertyPage@ETSLayoutPropertyPage@@2UCRuntimeClass@@B
CONST	SEGMENT
?classETSLayoutPropertyPage@ETSLayoutPropertyPage@@2UCRuntimeClass@@B DD FLAT:$SG202134 ; ETSLayoutPropertyPage::classETSLayoutPropertyPage
	DD	0e8H
	DD	0ffffH
	DD	FLAT:?CreateObject@ETSLayoutPropertyPage@@SGPAVCObject@@XZ
	DD	FLAT:?GetThisClass@CPropertyPage@@SGPAUCRuntimeClass@@XZ
	DD	00H
	DD	00H
CONST	ENDS
;	COMDAT ?_messageEntries@ETSLayoutPropertyPage@@0QBUAFX_MSGMAP_ENTRY@@B
CONST	SEGMENT
?_messageEntries@ETSLayoutPropertyPage@@0QBUAFX_MSGMAP_ENTRY@@B DD 05H ; ETSLayoutPropertyPage::_messageEntries
	DD	00H
	DD	00H
	DD	00H
	DD	016H
	DD	FLAT:?OnSize@ETSLayoutPropertyPage@@IAEXIHH@Z
	DD	024H
	DD	00H
	DD	00H
	DD	00H
	DD	029H
	DD	FLAT:?OnGetMinMaxInfo@ETSLayoutPropertyPage@@IAEXPAUtagMINMAXINFO@@@Z
	DD	014H
	DD	00H
	DD	00H
	DD	00H
	DD	01H
	DD	FLAT:?OnEraseBkgnd@ETSLayoutPropertyPage@@IAEHPAVCDC@@@Z
	DD	046H
	DD	00H
	DD	00H
	DD	00H
	DD	030H
	DD	FLAT:?OnWindowPosChanging@ETSLayoutPropertyPage@@IAEXPAUtagWINDOWPOS@@@Z
	DD	02H
	DD	00H
	DD	00H
	DD	00H
	DD	010H
	DD	FLAT:?OnDestroy@ETSLayoutPropertyPage@@IAEXXZ
	DD	047H
	DD	00H
	DD	00H
	DD	00H
	DD	030H
	DD	FLAT:?OnWindowPosChanged@ETSLayoutPropertyPage@@IAEXPAUtagWINDOWPOS@@@Z
	DD	00H
	DD	00H
	DD	00H
	DD	00H
	DD	00H
	DD	00H
CONST	ENDS
;	COMDAT ?messageMap@ETSLayoutPropertyPage@@1UAFX_MSGMAP@@B
CONST	SEGMENT
?messageMap@ETSLayoutPropertyPage@@1UAFX_MSGMAP@@B DD FLAT:?GetThisMessageMap@CPropertyPage@@KGPBUAFX_MSGMAP@@XZ ; ETSLayoutPropertyPage::messageMap
	DD	FLAT:?_messageEntries@ETSLayoutPropertyPage@@0QBUAFX_MSGMAP_ENTRY@@B
CONST	ENDS
CONST	SEGMENT
	ORG $+2
$SG202214 DB	'msctls_updown32', 00H
$SG202275 DB	'ETSLayoutPropertySheet', 00H
CONST	ENDS
;	COMDAT ?classETSLayoutPropertySheet@ETSLayoutPropertySheet@@2UCRuntimeClass@@B
CONST	SEGMENT
?classETSLayoutPropertySheet@ETSLayoutPropertySheet@@2UCRuntimeClass@@B DD FLAT:$SG202275 ; ETSLayoutPropertySheet::classETSLayoutPropertySheet
	DD	01ccH
	DD	0ffffH
	DD	00H
	DD	FLAT:?GetThisClass@CPropertySheet@@SGPAUCRuntimeClass@@XZ
	DD	00H
	DD	00H
CONST	ENDS
;	COMDAT ?_messageEntries@ETSLayoutPropertySheet@@0QBUAFX_MSGMAP_ENTRY@@B
CONST	SEGMENT
?_messageEntries@ETSLayoutPropertySheet@@0QBUAFX_MSGMAP_ENTRY@@B DD 01H ; ETSLayoutPropertySheet::_messageEntries
	DD	00H
	DD	00H
	DD	00H
	DD	0dH
	DD	FLAT:?OnCreate@ETSLayoutPropertySheet@@IAEHPAUtagCREATESTRUCTA@@@Z
	DD	05H
	DD	00H
	DD	00H
	DD	00H
	DD	016H
	DD	FLAT:?OnSize@ETSLayoutPropertySheet@@IAEXIHH@Z
	DD	024H
	DD	00H
	DD	00H
	DD	00H
	DD	029H
	DD	FLAT:?OnGetMinMaxInfo@ETSLayoutPropertySheet@@IAEXPAUtagMINMAXINFO@@@Z
	DD	02H
	DD	00H
	DD	00H
	DD	00H
	DD	010H
	DD	FLAT:?OnDestroy@ETSLayoutPropertySheet@@IAEXXZ
	DD	014H
	DD	00H
	DD	00H
	DD	00H
	DD	01H
	DD	FLAT:?OnEraseBkgnd@ETSLayoutPropertySheet@@IAEHPAVCDC@@@Z
	DD	00H
	DD	00H
	DD	00H
	DD	00H
	DD	00H
	DD	00H
CONST	ENDS
;	COMDAT ?messageMap@ETSLayoutPropertySheet@@1UAFX_MSGMAP@@B
CONST	SEGMENT
?messageMap@ETSLayoutPropertySheet@@1UAFX_MSGMAP@@B DD FLAT:?GetThisMessageMap@CPropertySheet@@KGPBUAFX_MSGMAP@@XZ ; ETSLayoutPropertySheet::messageMap
	DD	FLAT:?_messageEntries@ETSLayoutPropertySheet@@0QBUAFX_MSGMAP_ENTRY@@B
CONST	ENDS
_DATA	SEGMENT
?_PropertySheetIDs@@3PAJA DD 03023H			; _PropertySheetIDs
	DD	03024H
	DD	03025H
	DD	01H
	DD	02H
	DD	03021H
	DD	09H
_DATA	ENDS
CONST	SEGMENT
$SG202434 DB	00H
$SG202436 DB	'Error - Statusbar', 00H
CONST	ENDS
;	COMDAT ?g_pfnGetThreadACP@ATL@@3P6GIXZA
_DATA	SEGMENT
?g_pfnGetThreadACP@ATL@@3P6GIXZA DD FLAT:?_AtlGetThreadACPThunk@ATL@@YGIXZ ; ATL::g_pfnGetThreadACP
_DATA	ENDS
PUBLIC	?InterlockedExchangePointer@@YGPAXPAPAXPAX@Z	; InterlockedExchangePointer
PUBLIC	?_AtlGetThreadACPFake@ATL@@YGIXZ		; ATL::_AtlGetThreadACPFake
PUBLIC	?_AtlGetThreadACPReal@ATL@@YGIXZ		; ATL::_AtlGetThreadACPReal
EXTRN	___security_cookie:DWORD
EXTRN	@__security_check_cookie@4:NEAR
EXTRN	__imp__GetVersionExA@4:NEAR
; Function compile flags: /Odt
; File d:\program files (x86)\microsoft visual studio .net 2003\vc7\atlmfc\include\atlconv.h
;	COMDAT ?_AtlGetThreadACPThunk@ATL@@YGIXZ
_TEXT	SEGMENT
_pfnGetThreadACP$ = -164				; size = 4
_ver$ = -160						; size = 148
__$ArrayPad$ = -4					; size = 4
__$ReturnAddr$ = 4					; size = 4
?_AtlGetThreadACPThunk@ATL@@YGIXZ PROC NEAR		; ATL::_AtlGetThreadACPThunk, COMDAT

; 134  : {

  00000	55		 push	 ebp
  00001	8b ec		 mov	 ebp, esp
  00003	81 ec a4 00 00
	00		 sub	 esp, 164		; 000000a4H
  00009	a1 00 00 00 00	 mov	 eax, DWORD PTR ___security_cookie
  0000e	89 45 fc	 mov	 DWORD PTR __$ArrayPad$[ebp], eax

; 135  : 	OSVERSIONINFO ver;
; 136  : 	ATLGETTHREADACP pfnGetThreadACP;
; 137  : 
; 138  : 	ver.dwOSVersionInfoSize = sizeof( ver );

  00011	c7 85 60 ff ff
	ff 94 00 00 00	 mov	 DWORD PTR _ver$[ebp], 148 ; 00000094H

; 139  : 	::GetVersionEx( &ver );

  0001b	8d 85 60 ff ff
	ff		 lea	 eax, DWORD PTR _ver$[ebp]
  00021	50		 push	 eax
  00022	ff 15 00 00 00
	00		 call	 DWORD PTR __imp__GetVersionExA@4

; 140  : 	if( (ver.dwPlatformId == VER_PLATFORM_WIN32_NT) && (ver.dwMajorVersion >= 5) )

  00028	83 bd 70 ff ff
	ff 02		 cmp	 DWORD PTR _ver$[ebp+16], 2
  0002f	75 15		 jne	 SHORT $L24173
  00031	83 bd 64 ff ff
	ff 05		 cmp	 DWORD PTR _ver$[ebp+4], 5
  00038	72 0c		 jb	 SHORT $L24173

; 141  : 	{
; 142  : 		// On Win2K, CP_THREAD_ACP is supported
; 143  : 		pfnGetThreadACP = _AtlGetThreadACPReal;

  0003a	c7 85 5c ff ff
	ff 00 00 00 00	 mov	 DWORD PTR _pfnGetThreadACP$[ebp], OFFSET FLAT:?_AtlGetThreadACPReal@ATL@@YGIXZ ; ATL::_AtlGetThreadACPReal

; 144  : 	}
; 145  : 	else

  00044	eb 0a		 jmp	 SHORT $L24174
$L24173:

; 146  : 	{
; 147  : 		pfnGetThreadACP = _AtlGetThreadACPFake;

  00046	c7 85 5c ff ff
	ff 00 00 00 00	 mov	 DWORD PTR _pfnGetThreadACP$[ebp], OFFSET FLAT:?_AtlGetThreadACPFake@ATL@@YGIXZ ; ATL::_AtlGetThreadACPFake
$L24174:

; 148  : 	}
; 149  : 	InterlockedExchangePointer( reinterpret_cast< void** >(&g_pfnGetThreadACP), pfnGetThreadACP );

  00050	8b 8d 5c ff ff
	ff		 mov	 ecx, DWORD PTR _pfnGetThreadACP$[ebp]
  00056	51		 push	 ecx
  00057	68 00 00 00 00	 push	 OFFSET FLAT:?g_pfnGetThreadACP@ATL@@3P6GIXZA ; ATL::g_pfnGetThreadACP
  0005c	e8 00 00 00 00	 call	 ?InterlockedExchangePointer@@YGPAXPAPAXPAX@Z ; InterlockedExchangePointer

; 150  : 
; 151  : 	return( g_pfnGetThreadACP() );

  00061	ff 15 00 00 00
	00		 call	 DWORD PTR ?g_pfnGetThreadACP@ATL@@3P6GIXZA ; ATL::g_pfnGetThreadACP

; 152  : }

  00067	8b 4d fc	 mov	 ecx, DWORD PTR __$ArrayPad$[ebp]
  0006a	e8 00 00 00 00	 call	 @__security_check_cookie@4
  0006f	8b e5		 mov	 esp, ebp
  00071	5d		 pop	 ebp
  00072	c3		 ret	 0
?_AtlGetThreadACPThunk@ATL@@YGIXZ ENDP			; ATL::_AtlGetThreadACPThunk
_TEXT	ENDS
EXTRN	__imp__InterlockedExchange@8:NEAR
; Function compile flags: /Odt
;	COMDAT ?InterlockedExchangePointer@@YGPAXPAPAXPAX@Z
_TEXT	SEGMENT
_pp$ = 8						; size = 4
_pNew$ = 12						; size = 4
?InterlockedExchangePointer@@YGPAXPAPAXPAX@Z PROC NEAR	; InterlockedExchangePointer, COMDAT

; 91   : {

  00000	55		 push	 ebp
  00001	8b ec		 mov	 ebp, esp

; 92   : 	return( reinterpret_cast<void*>(static_cast<LONG_PTR>(::InterlockedExchange(reinterpret_cast<LONG*>(pp), static_cast<LONG>(reinterpret_cast<LONG_PTR>(pNew))))) );

  00003	8b 45 0c	 mov	 eax, DWORD PTR _pNew$[ebp]
  00006	50		 push	 eax
  00007	8b 4d 08	 mov	 ecx, DWORD PTR _pp$[ebp]
  0000a	51		 push	 ecx
  0000b	ff 15 00 00 00
	00		 call	 DWORD PTR __imp__InterlockedExchange@8

; 93   : }

  00011	5d		 pop	 ebp
  00012	c2 08 00	 ret	 8
?InterlockedExchangePointer@@YGPAXPAPAXPAX@Z ENDP	; InterlockedExchangePointer
_TEXT	ENDS
EXTRN	__imp__GetACP@0:NEAR
EXTRN	__imp__GetLocaleInfoA@16:NEAR
EXTRN	__imp__GetThreadLocale@0:NEAR
; Function compile flags: /Odt
;	COMDAT ?_AtlGetThreadACPFake@ATL@@YGIXZ
_TEXT	SEGMENT
_pch$24161 = -24					; size = 4
_lcidThread$ = -20					; size = 4
_szACP$ = -16						; size = 7
__$ArrayPad$ = -8					; size = 4
_nACP$ = -4						; size = 4
__$ReturnAddr$ = 4					; size = 4
?_AtlGetThreadACPFake@ATL@@YGIXZ PROC NEAR		; ATL::_AtlGetThreadACPFake, COMDAT

; 101  : {

  00000	55		 push	 ebp
  00001	8b ec		 mov	 ebp, esp
  00003	83 ec 18	 sub	 esp, 24			; 00000018H
  00006	a1 00 00 00 00	 mov	 eax, DWORD PTR ___security_cookie
  0000b	89 45 f8	 mov	 DWORD PTR __$ArrayPad$[ebp], eax

; 102  : 	UINT nACP = 0;

  0000e	c7 45 fc 00 00
	00 00		 mov	 DWORD PTR _nACP$[ebp], 0

; 103  : 
; 104  : 	LCID lcidThread = ::GetThreadLocale();

  00015	ff 15 00 00 00
	00		 call	 DWORD PTR __imp__GetThreadLocale@0
  0001b	89 45 ec	 mov	 DWORD PTR _lcidThread$[ebp], eax

; 105  : 
; 106  : 	char szACP[7];
; 107  : 	// GetLocaleInfoA will fail for a Unicode-only LCID, but those are only supported on 
; 108  : 	// Windows 2000.  Since Windows 2000 supports CP_THREAD_ACP, this code path is never
; 109  : 	// executed on Windows 2000.
; 110  : 	if (::GetLocaleInfoA(lcidThread, LOCALE_IDEFAULTANSICODEPAGE, szACP, 7) != 0)

  0001e	6a 07		 push	 7
  00020	8d 45 f0	 lea	 eax, DWORD PTR _szACP$[ebp]
  00023	50		 push	 eax
  00024	68 04 10 00 00	 push	 4100			; 00001004H
  00029	8b 4d ec	 mov	 ecx, DWORD PTR _lcidThread$[ebp]
  0002c	51		 push	 ecx
  0002d	ff 15 00 00 00
	00		 call	 DWORD PTR __imp__GetLocaleInfoA@16
  00033	85 c0		 test	 eax, eax
  00035	74 34		 je	 SHORT $L24160

; 111  : 	{
; 112  : 		char* pch = szACP;

  00037	8d 55 f0	 lea	 edx, DWORD PTR _szACP$[ebp]
  0003a	89 55 e8	 mov	 DWORD PTR _pch$24161[ebp], edx
$L24163:

; 113  : 		while (*pch != '\0')

  0003d	8b 45 e8	 mov	 eax, DWORD PTR _pch$24161[ebp]
  00040	0f be 08	 movsx	 ecx, BYTE PTR [eax]
  00043	85 c9		 test	 ecx, ecx
  00045	74 24		 je	 SHORT $L24160

; 114  : 		{
; 115  : 			nACP *= 10;

  00047	8b 55 fc	 mov	 edx, DWORD PTR _nACP$[ebp]
  0004a	6b d2 0a	 imul	 edx, 10			; 0000000aH
  0004d	89 55 fc	 mov	 DWORD PTR _nACP$[ebp], edx

; 116  : 			nACP += *pch++ - '0';

  00050	8b 45 e8	 mov	 eax, DWORD PTR _pch$24161[ebp]
  00053	0f be 08	 movsx	 ecx, BYTE PTR [eax]
  00056	8b 55 fc	 mov	 edx, DWORD PTR _nACP$[ebp]
  00059	8d 44 0a d0	 lea	 eax, DWORD PTR [edx+ecx-48]
  0005d	89 45 fc	 mov	 DWORD PTR _nACP$[ebp], eax
  00060	8b 4d e8	 mov	 ecx, DWORD PTR _pch$24161[ebp]
  00063	83 c1 01	 add	 ecx, 1
  00066	89 4d e8	 mov	 DWORD PTR _pch$24161[ebp], ecx

; 117  : 		}

  00069	eb d2		 jmp	 SHORT $L24163
$L24160:

; 118  : 	}
; 119  : 	// Use the Default ANSI Code Page if we were unable to get the thread ACP or if one does not exist.
; 120  : 	if (nACP == 0)

  0006b	83 7d fc 00	 cmp	 DWORD PTR _nACP$[ebp], 0
  0006f	75 09		 jne	 SHORT $L24165

; 121  : 		nACP = ::GetACP();

  00071	ff 15 00 00 00
	00		 call	 DWORD PTR __imp__GetACP@0
  00077	89 45 fc	 mov	 DWORD PTR _nACP$[ebp], eax
$L24165:

; 122  : 
; 123  : 	return nACP;

  0007a	8b 45 fc	 mov	 eax, DWORD PTR _nACP$[ebp]

; 124  : }

  0007d	8b 4d f8	 mov	 ecx, DWORD PTR __$ArrayPad$[ebp]
  00080	e8 00 00 00 00	 call	 @__security_check_cookie@4
  00085	8b e5		 mov	 esp, ebp
  00087	5d		 pop	 ebp
  00088	c3		 ret	 0
?_AtlGetThreadACPFake@ATL@@YGIXZ ENDP			; ATL::_AtlGetThreadACPFake
; Function compile flags: /Odt
_TEXT	ENDS
;	COMDAT ?_AtlGetThreadACPReal@ATL@@YGIXZ
_TEXT	SEGMENT
?_AtlGetThreadACPReal@ATL@@YGIXZ PROC NEAR		; ATL::_AtlGetThreadACPReal, COMDAT

; 127  : {

  00000	55		 push	 ebp
  00001	8b ec		 mov	 ebp, esp

; 128  : 	return( CP_THREAD_ACP );

  00003	b8 03 00 00 00	 mov	 eax, 3

; 129  : }

  00008	5d		 pop	 ebp
  00009	c3		 ret	 0
?_AtlGetThreadACPReal@ATL@@YGIXZ ENDP			; ATL::_AtlGetThreadACPReal
_TEXT	ENDS
PUBLIC	?Width@CRect@@QBEHXZ				; CRect::Width
PUBLIC	?Height@CRect@@QBEHXZ				; CRect::Height
PUBLIC	?Layout@ETSLayoutMgr@@UAEXAAVCRect@@@Z		; ETSLayoutMgr::Layout
PUBLIC	??8ATL@@YA_NABV?$CStringT@DV?$StrTraitMFC_DLL@DV?$ChTraitsCRT@D@ATL@@@@@0@PBD@Z ; ATL::operator==
PUBLIC	?IsValid@CPaneBase@ETSLayoutMgr@@QAE_NXZ	; ETSLayoutMgr::CPaneBase::IsValid
PUBLIC	??CCPane@ETSLayoutMgr@@QBEPAVPane@1@XZ		; ETSLayoutMgr::CPane::operator->
EXTRN	?GetInstance@CIrregularBorderMgr@@SAPAV1@XZ:NEAR ; CIrregularBorderMgr::GetInstance
EXTRN	?DrawToppanelPng@CIrregularBorderMgr@@QAEXPAVCDC@@VCRect@@@Z:NEAR ; CIrregularBorderMgr::DrawToppanelPng
; Function compile flags: /Odt
; File d:\boxgit\playbox\playbox\dev\prj\playbox\src\layoutmgr\etslayout.cpp
_TEXT	SEGMENT
tv80 = -8						; size = 4
_this$ = -4						; size = 4
_rcClient$ = 8						; size = 4
?Layout@ETSLayoutMgr@@UAEXAAVCRect@@@Z PROC NEAR	; ETSLayoutMgr::Layout
; _this$ = ecx

; 181  : {

  00000	55		 push	 ebp
  00001	8b ec		 mov	 ebp, esp
  00003	83 ec 08	 sub	 esp, 8
  00006	89 4d fc	 mov	 DWORD PTR _this$[ebp], ecx

; 182  : 	if(rcClient.Height() && rcClient.Width()  && m_RootPane.IsValid())	

  00009	8b 4d 08	 mov	 ecx, DWORD PTR _rcClient$[ebp]
  0000c	e8 00 00 00 00	 call	 ?Height@CRect@@QBEHXZ	; CRect::Height
  00011	85 c0		 test	 eax, eax
  00013	0f 84 98 00 00
	00		 je	 $L200705
  00019	8b 4d 08	 mov	 ecx, DWORD PTR _rcClient$[ebp]
  0001c	e8 00 00 00 00	 call	 ?Width@CRect@@QBEHXZ	; CRect::Width
  00021	85 c0		 test	 eax, eax
  00023	0f 84 88 00 00
	00		 je	 $L200705
  00029	8b 4d fc	 mov	 ecx, DWORD PTR _this$[ebp]
  0002c	83 c1 34	 add	 ecx, 52			; 00000034H
  0002f	e8 00 00 00 00	 call	 ?IsValid@CPaneBase@ETSLayoutMgr@@QAE_NXZ ; ETSLayoutMgr::CPaneBase::IsValid
  00034	0f b6 c0	 movzx	 eax, al
  00037	85 c0		 test	 eax, eax
  00039	74 76		 je	 SHORT $L200705

; 183  : 	{
; 184  : 		m_RootPane->resizeTo(rcClient);	

  0003b	8b 4d fc	 mov	 ecx, DWORD PTR _this$[ebp]
  0003e	83 c1 34	 add	 ecx, 52			; 00000034H
  00041	e8 00 00 00 00	 call	 ??CCPane@ETSLayoutMgr@@QBEPAVPane@1@XZ ; ETSLayoutMgr::CPane::operator->
  00046	89 45 f8	 mov	 DWORD PTR tv80[ebp], eax
  00049	6a 00		 push	 0
  0004b	6a 00		 push	 0
  0004d	8b 4d 08	 mov	 ecx, DWORD PTR _rcClient$[ebp]
  00050	51		 push	 ecx
  00051	8b 55 f8	 mov	 edx, DWORD PTR tv80[ebp]
  00054	8b 02		 mov	 eax, DWORD PTR [edx]
  00056	8b 4d f8	 mov	 ecx, DWORD PTR tv80[ebp]
  00059	ff 50 18	 call	 DWORD PTR [eax+24]

; 185  : 		if(m_pDC != NULL && m_strWndName == "toppanel")

  0005c	8b 4d fc	 mov	 ecx, DWORD PTR _this$[ebp]
  0005f	83 79 08 00	 cmp	 DWORD PTR [ecx+8], 0
  00063	74 4c		 je	 SHORT $L200705
  00065	68 00 00 00 00	 push	 OFFSET FLAT:$SG200708
  0006a	8b 55 fc	 mov	 edx, DWORD PTR _this$[ebp]
  0006d	83 c2 28	 add	 edx, 40			; 00000028H
  00070	52		 push	 edx
  00071	e8 00 00 00 00	 call	 ??8ATL@@YA_NABV?$CStringT@DV?$StrTraitMFC_DLL@DV?$ChTraitsCRT@D@ATL@@@@@0@PBD@Z ; ATL::operator==
  00076	83 c4 08	 add	 esp, 8
  00079	0f b6 c0	 movzx	 eax, al
  0007c	85 c0		 test	 eax, eax
  0007e	74 31		 je	 SHORT $L200705

; 186  : 			CIrregularBorderMgr::GetInstance()->DrawToppanelPng(m_pDC, rcClient);

  00080	8b 4d 08	 mov	 ecx, DWORD PTR _rcClient$[ebp]
  00083	83 ec 10	 sub	 esp, 16			; 00000010H
  00086	8b d4		 mov	 edx, esp
  00088	8b 01		 mov	 eax, DWORD PTR [ecx]
  0008a	89 02		 mov	 DWORD PTR [edx], eax
  0008c	8b 41 04	 mov	 eax, DWORD PTR [ecx+4]
  0008f	89 42 04	 mov	 DWORD PTR [edx+4], eax
  00092	8b 41 08	 mov	 eax, DWORD PTR [ecx+8]
  00095	89 42 08	 mov	 DWORD PTR [edx+8], eax
  00098	8b 49 0c	 mov	 ecx, DWORD PTR [ecx+12]
  0009b	89 4a 0c	 mov	 DWORD PTR [edx+12], ecx
  0009e	8b 55 fc	 mov	 edx, DWORD PTR _this$[ebp]
  000a1	8b 42 08	 mov	 eax, DWORD PTR [edx+8]
  000a4	50		 push	 eax
  000a5	e8 00 00 00 00	 call	 ?GetInstance@CIrregularBorderMgr@@SAPAV1@XZ ; CIrregularBorderMgr::GetInstance
  000aa	8b c8		 mov	 ecx, eax
  000ac	e8 00 00 00 00	 call	 ?DrawToppanelPng@CIrregularBorderMgr@@QAEXPAVCDC@@VCRect@@@Z ; CIrregularBorderMgr::DrawToppanelPng
$L200705:

; 187  : 
; 188  : 	}
; 189  : }

  000b1	8b e5		 mov	 esp, ebp
  000b3	5d		 pop	 ebp
  000b4	c2 04 00	 ret	 4
?Layout@ETSLayoutMgr@@UAEXAAVCRect@@@Z ENDP		; ETSLayoutMgr::Layout
; Function compile flags: /Odt
; File d:\boxgit\playbox\playbox\dev\prj\playbox\src\layoutmgr\etslayout.h
_TEXT	ENDS
;	COMDAT ?IsValid@CPaneBase@ETSLayoutMgr@@QAE_NXZ
_TEXT	SEGMENT
_this$ = -4						; size = 4
?IsValid@CPaneBase@ETSLayoutMgr@@QAE_NXZ PROC NEAR	; ETSLayoutMgr::CPaneBase::IsValid, COMDAT
; _this$ = ecx

; 391  : 		bool IsValid()			{ return (m_pPaneHolder != 0); }

  00000	55		 push	 ebp
  00001	8b ec		 mov	 ebp, esp
  00003	51		 push	 ecx
  00004	89 4d fc	 mov	 DWORD PTR _this$[ebp], ecx
  00007	8b 45 fc	 mov	 eax, DWORD PTR _this$[ebp]
  0000a	33 c9		 xor	 ecx, ecx
  0000c	83 38 00	 cmp	 DWORD PTR [eax], 0
  0000f	0f 95 c1	 setne	 cl
  00012	8a c1		 mov	 al, cl
  00014	8b e5		 mov	 esp, ebp
  00016	5d		 pop	 ebp
  00017	c3		 ret	 0
?IsValid@CPaneBase@ETSLayoutMgr@@QAE_NXZ ENDP		; ETSLayoutMgr::CPaneBase::IsValid
_TEXT	ENDS
PUBLIC	?setPosition@PaneBase@ETSLayoutMgr@@QAEXV?$CStringT@DV?$StrTraitMFC_DLL@DV?$ChTraitsCRT@D@ATL@@@@@ATL@@00000W4layPositionMode@2@@Z ; ETSLayoutMgr::PaneBase::setPosition
EXTRN	__except_list:DWORD
EXTRN	___CxxFrameHandler:NEAR
EXTRN	__imp_??1?$CStringT@DV?$StrTraitMFC_DLL@DV?$ChTraitsCRT@D@ATL@@@@@ATL@@QAE@XZ:NEAR
EXTRN	__imp_??4?$CStringT@DV?$StrTraitMFC_DLL@DV?$ChTraitsCRT@D@ATL@@@@@ATL@@QAEAAV01@ABV01@@Z:NEAR
xdata$x	SEGMENT
$T204845 DD	0ffffffffH
	DD	FLAT:$L204833
	DD	00H
	DD	FLAT:$L204834
	DD	01H
	DD	FLAT:$L204835
	DD	02H
	DD	FLAT:$L204836
	DD	03H
	DD	FLAT:$L204837
	DD	04H
	DD	FLAT:$L204838
$T204842 DD	019930520H
	DD	06H
	DD	FLAT:$T204845
	DD	2 DUP(00H)
	DD	2 DUP(00H)
; Function compile flags: /Odt
; File d:\boxgit\playbox\playbox\dev\prj\playbox\src\layoutmgr\etslayout.cpp
xdata$x	ENDS
_TEXT	SEGMENT
_this$ = -16						; size = 4
__$EHRec$ = -12						; size = 12
_start_x$ = 8						; size = 4
_start_y$ = 12						; size = 4
_end_x$ = 16						; size = 4
_end_y$ = 20						; size = 4
_percent_start$ = 24					; size = 4
_percent_end$ = 28					; size = 4
_mode$ = 32						; size = 4
?setPosition@PaneBase@ETSLayoutMgr@@QAEXV?$CStringT@DV?$StrTraitMFC_DLL@DV?$ChTraitsCRT@D@ATL@@@@@ATL@@00000W4layPositionMode@2@@Z PROC NEAR ; ETSLayoutMgr::PaneBase::setPosition
; _this$ = ecx

; 192  : {

  000c0	55		 push	 ebp
  000c1	8b ec		 mov	 ebp, esp
  000c3	6a ff		 push	 -1
  000c5	68 00 00 00 00	 push	 __ehhandler$?setPosition@PaneBase@ETSLayoutMgr@@QAEXV?$CStringT@DV?$StrTraitMFC_DLL@DV?$ChTraitsCRT@D@ATL@@@@@ATL@@00000W4layPositionMode@2@@Z
  000ca	64 a1 00 00 00
	00		 mov	 eax, DWORD PTR fs:__except_list
  000d0	50		 push	 eax
  000d1	64 89 25 00 00
	00 00		 mov	 DWORD PTR fs:__except_list, esp
  000d8	51		 push	 ecx
  000d9	89 4d f0	 mov	 DWORD PTR _this$[ebp], ecx
  000dc	c7 45 fc 05 00
	00 00		 mov	 DWORD PTR __$EHRec$[ebp+8], 5

; 193  : 	m_start_x = start_x; 

  000e3	8d 45 08	 lea	 eax, DWORD PTR _start_x$[ebp]
  000e6	50		 push	 eax
  000e7	8b 4d f0	 mov	 ecx, DWORD PTR _this$[ebp]
  000ea	83 c1 3c	 add	 ecx, 60			; 0000003cH
  000ed	ff 15 00 00 00
	00		 call	 DWORD PTR __imp_??4?$CStringT@DV?$StrTraitMFC_DLL@DV?$ChTraitsCRT@D@ATL@@@@@ATL@@QAEAAV01@ABV01@@Z

; 194  : 	m_start_y = start_y; 

  000f3	8d 4d 0c	 lea	 ecx, DWORD PTR _start_y$[ebp]
  000f6	51		 push	 ecx
  000f7	8b 4d f0	 mov	 ecx, DWORD PTR _this$[ebp]
  000fa	83 c1 40	 add	 ecx, 64			; 00000040H
  000fd	ff 15 00 00 00
	00		 call	 DWORD PTR __imp_??4?$CStringT@DV?$StrTraitMFC_DLL@DV?$ChTraitsCRT@D@ATL@@@@@ATL@@QAEAAV01@ABV01@@Z

; 195  : 	m_end_x = end_x; 

  00103	8d 55 10	 lea	 edx, DWORD PTR _end_x$[ebp]
  00106	52		 push	 edx
  00107	8b 4d f0	 mov	 ecx, DWORD PTR _this$[ebp]
  0010a	83 c1 44	 add	 ecx, 68			; 00000044H
  0010d	ff 15 00 00 00
	00		 call	 DWORD PTR __imp_??4?$CStringT@DV?$StrTraitMFC_DLL@DV?$ChTraitsCRT@D@ATL@@@@@ATL@@QAEAAV01@ABV01@@Z

; 196  : 	m_end_y = end_y; 

  00113	8d 45 14	 lea	 eax, DWORD PTR _end_y$[ebp]
  00116	50		 push	 eax
  00117	8b 4d f0	 mov	 ecx, DWORD PTR _this$[ebp]
  0011a	83 c1 48	 add	 ecx, 72			; 00000048H
  0011d	ff 15 00 00 00
	00		 call	 DWORD PTR __imp_??4?$CStringT@DV?$StrTraitMFC_DLL@DV?$ChTraitsCRT@D@ATL@@@@@ATL@@QAEAAV01@ABV01@@Z

; 197  : 	m_percent_start = percent_start;

  00123	8d 4d 18	 lea	 ecx, DWORD PTR _percent_start$[ebp]
  00126	51		 push	 ecx
  00127	8b 4d f0	 mov	 ecx, DWORD PTR _this$[ebp]
  0012a	83 c1 4c	 add	 ecx, 76			; 0000004cH
  0012d	ff 15 00 00 00
	00		 call	 DWORD PTR __imp_??4?$CStringT@DV?$StrTraitMFC_DLL@DV?$ChTraitsCRT@D@ATL@@@@@ATL@@QAEAAV01@ABV01@@Z

; 198  : 	m_percent_end = percent_end;

  00133	8d 55 1c	 lea	 edx, DWORD PTR _percent_end$[ebp]
  00136	52		 push	 edx
  00137	8b 4d f0	 mov	 ecx, DWORD PTR _this$[ebp]
  0013a	83 c1 50	 add	 ecx, 80			; 00000050H
  0013d	ff 15 00 00 00
	00		 call	 DWORD PTR __imp_??4?$CStringT@DV?$StrTraitMFC_DLL@DV?$ChTraitsCRT@D@ATL@@@@@ATL@@QAEAAV01@ABV01@@Z

; 199  : 	m_posMode = mode;

  00143	8b 45 f0	 mov	 eax, DWORD PTR _this$[ebp]
  00146	8b 4d 20	 mov	 ecx, DWORD PTR _mode$[ebp]
  00149	89 48 54	 mov	 DWORD PTR [eax+84], ecx

; 200  : };

  0014c	c6 45 fc 04	 mov	 BYTE PTR __$EHRec$[ebp+8], 4
  00150	8d 4d 08	 lea	 ecx, DWORD PTR _start_x$[ebp]
  00153	ff 15 00 00 00
	00		 call	 DWORD PTR __imp_??1?$CStringT@DV?$StrTraitMFC_DLL@DV?$ChTraitsCRT@D@ATL@@@@@ATL@@QAE@XZ
  00159	c6 45 fc 03	 mov	 BYTE PTR __$EHRec$[ebp+8], 3
  0015d	8d 4d 0c	 lea	 ecx, DWORD PTR _start_y$[ebp]
  00160	ff 15 00 00 00
	00		 call	 DWORD PTR __imp_??1?$CStringT@DV?$StrTraitMFC_DLL@DV?$ChTraitsCRT@D@ATL@@@@@ATL@@QAE@XZ
  00166	c6 45 fc 02	 mov	 BYTE PTR __$EHRec$[ebp+8], 2
  0016a	8d 4d 10	 lea	 ecx, DWORD PTR _end_x$[ebp]
  0016d	ff 15 00 00 00
	00		 call	 DWORD PTR __imp_??1?$CStringT@DV?$StrTraitMFC_DLL@DV?$ChTraitsCRT@D@ATL@@@@@ATL@@QAE@XZ
  00173	c6 45 fc 01	 mov	 BYTE PTR __$EHRec$[ebp+8], 1
  00177	8d 4d 14	 lea	 ecx, DWORD PTR _end_y$[ebp]
  0017a	ff 15 00 00 00
	00		 call	 DWORD PTR __imp_??1?$CStringT@DV?$StrTraitMFC_DLL@DV?$ChTraitsCRT@D@ATL@@@@@ATL@@QAE@XZ
  00180	c6 45 fc 00	 mov	 BYTE PTR __$EHRec$[ebp+8], 0
  00184	8d 4d 18	 lea	 ecx, DWORD PTR _percent_start$[ebp]
  00187	ff 15 00 00 00
	00		 call	 DWORD PTR __imp_??1?$CStringT@DV?$StrTraitMFC_DLL@DV?$ChTraitsCRT@D@ATL@@@@@ATL@@QAE@XZ
  0018d	c7 45 fc ff ff
	ff ff		 mov	 DWORD PTR __$EHRec$[ebp+8], -1
  00194	8d 4d 1c	 lea	 ecx, DWORD PTR _percent_end$[ebp]
  00197	ff 15 00 00 00
	00		 call	 DWORD PTR __imp_??1?$CStringT@DV?$StrTraitMFC_DLL@DV?$ChTraitsCRT@D@ATL@@@@@ATL@@QAE@XZ
  0019d	8b 4d f4	 mov	 ecx, DWORD PTR __$EHRec$[ebp]
  001a0	64 89 0d 00 00
	00 00		 mov	 DWORD PTR fs:__except_list, ecx
  001a7	8b e5		 mov	 esp, ebp
  001a9	5d		 pop	 ebp
  001aa	c2 1c 00	 ret	 28			; 0000001cH
_TEXT	ENDS
text$x	SEGMENT
$L204833:
  00000	8d 4d 1c	 lea	 ecx, DWORD PTR _percent_end$[ebp]
  00003	ff 25 00 00 00
	00		 jmp	 DWORD PTR __imp_??1?$CStringT@DV?$StrTraitMFC_DLL@DV?$ChTraitsCRT@D@ATL@@@@@ATL@@QAE@XZ
$L204834:
  00009	8d 4d 18	 lea	 ecx, DWORD PTR _percent_start$[ebp]
  0000c	ff 25 00 00 00
	00		 jmp	 DWORD PTR __imp_??1?$CStringT@DV?$StrTraitMFC_DLL@DV?$ChTraitsCRT@D@ATL@@@@@ATL@@QAE@XZ
$L204835:
  00012	8d 4d 14	 lea	 ecx, DWORD PTR _end_y$[ebp]
  00015	ff 25 00 00 00
	00		 jmp	 DWORD PTR __imp_??1?$CStringT@DV?$StrTraitMFC_DLL@DV?$ChTraitsCRT@D@ATL@@@@@ATL@@QAE@XZ
$L204836:
  0001b	8d 4d 10	 lea	 ecx, DWORD PTR _end_x$[ebp]
  0001e	ff 25 00 00 00
	00		 jmp	 DWORD PTR __imp_??1?$CStringT@DV?$StrTraitMFC_DLL@DV?$ChTraitsCRT@D@ATL@@@@@ATL@@QAE@XZ
$L204837:
  00024	8d 4d 0c	 lea	 ecx, DWORD PTR _start_y$[ebp]
  00027	ff 25 00 00 00
	00		 jmp	 DWORD PTR __imp_??1?$CStringT@DV?$StrTraitMFC_DLL@DV?$ChTraitsCRT@D@ATL@@@@@ATL@@QAE@XZ
$L204838:
  0002d	8d 4d 08	 lea	 ecx, DWORD PTR _start_x$[ebp]
  00030	ff 25 00 00 00
	00		 jmp	 DWORD PTR __imp_??1?$CStringT@DV?$StrTraitMFC_DLL@DV?$ChTraitsCRT@D@ATL@@@@@ATL@@QAE@XZ
__ehhandler$?setPosition@PaneBase@ETSLayoutMgr@@QAEXV?$CStringT@DV?$StrTraitMFC_DLL@DV?$ChTraitsCRT@D@ATL@@@@@ATL@@00000W4layPositionMode@2@@Z:
  00036	b8 00 00 00 00	 mov	 eax, OFFSET FLAT:$T204842
  0003b	e9 00 00 00 00	 jmp	 ___CxxFrameHandler
text$x	ENDS
?setPosition@PaneBase@ETSLayoutMgr@@QAEXV?$CStringT@DV?$StrTraitMFC_DLL@DV?$ChTraitsCRT@D@ATL@@@@@ATL@@00000W4layPositionMode@2@@Z ENDP ; ETSLayoutMgr::PaneBase::setPosition
PUBLIC	??0Pane@ETSLayoutMgr@@IAE@PAV1@W4layOrientation@1@HH@Z ; ETSLayoutMgr::Pane::Pane
PUBLIC	?pane@ETSLayoutMgr@@QAE?AVCPane@1@W4layOrientation@1@W4layResizeMode@1@HHH@Z ; ETSLayoutMgr::pane
PUBLIC	??0CPane@ETSLayoutMgr@@QAE@PAVPane@1@@Z		; ETSLayoutMgr::CPane::CPane
EXTRN	??2@YAPAXI@Z:NEAR				; operator new
EXTRN	??3@YAXPAX@Z:NEAR				; operator delete
EXTRN	??0PanePosition@ETSLayoutMgr@@QAE@PAV1@W4layOrientation@1@HH@Z:NEAR ; ETSLayoutMgr::PanePosition::PanePosition
xdata$x	SEGMENT
$T204864 DD	0ffffffffH
	DD	FLAT:$L204856
	DD	0ffffffffH
	DD	FLAT:$L204857
$T204862 DD	019930520H
	DD	02H
	DD	FLAT:$T204864
	DD	2 DUP(00H)
	DD	2 DUP(00H)
; Function compile flags: /Odt
xdata$x	ENDS
_TEXT	SEGMENT
tv87 = -48						; size = 4
tv76 = -44						; size = 4
_this$ = -40						; size = 4
$T204859 = -36						; size = 4
$T204853 = -32						; size = 4
$T204852 = -28						; size = 4
$T204849 = -24						; size = 4
$T204848 = -20						; size = 4
_pPane$ = -16						; size = 4
__$EHRec$ = -12						; size = 12
___$ReturnUdt$ = 8					; size = 4
_orientation$ = 12					; size = 4
_modeResize$ = 16					; size = 4
_sizeBorder$ = 20					; size = 4
_sizeExtraBorder$ = 24					; size = 4
_sizeSecondary$ = 28					; size = 4
?pane@ETSLayoutMgr@@QAE?AVCPane@1@W4layOrientation@1@W4layResizeMode@1@HHH@Z PROC NEAR ; ETSLayoutMgr::pane
; _this$ = ecx

; 205  : {

  001b0	55		 push	 ebp
  001b1	8b ec		 mov	 ebp, esp
  001b3	6a ff		 push	 -1
  001b5	68 00 00 00 00	 push	 __ehhandler$?pane@ETSLayoutMgr@@QAE?AVCPane@1@W4layOrientation@1@W4layResizeMode@1@HHH@Z
  001ba	64 a1 00 00 00
	00		 mov	 eax, DWORD PTR fs:__except_list
  001c0	50		 push	 eax
  001c1	64 89 25 00 00
	00 00		 mov	 DWORD PTR fs:__except_list, esp
  001c8	83 ec 24	 sub	 esp, 36			; 00000024H
  001cb	89 4d d8	 mov	 DWORD PTR _this$[ebp], ecx
  001ce	c7 45 dc 00 00
	00 00		 mov	 DWORD PTR $T204859[ebp], 0

; 206  : 	Pane* pPane = NULL;

  001d5	c7 45 f0 00 00
	00 00		 mov	 DWORD PTR _pPane$[ebp], 0

; 207  : 	if(orientation == NO_ORI)

  001dc	83 7d 0c 02	 cmp	 DWORD PTR _orientation$[ebp], 2
  001e0	75 52		 jne	 SHORT $L200729

; 208  : 	{
; 209  : 		pPane = new PanePosition(this, orientation);

  001e2	68 84 00 00 00	 push	 132			; 00000084H
  001e7	e8 00 00 00 00	 call	 ??2@YAPAXI@Z		; operator new
  001ec	83 c4 04	 add	 esp, 4
  001ef	89 45 e8	 mov	 DWORD PTR $T204849[ebp], eax
  001f2	c7 45 fc 00 00
	00 00		 mov	 DWORD PTR __$EHRec$[ebp+8], 0
  001f9	83 7d e8 00	 cmp	 DWORD PTR $T204849[ebp], 0
  001fd	74 19		 je	 SHORT $L204850
  001ff	6a 00		 push	 0
  00201	6a 00		 push	 0
  00203	8b 45 0c	 mov	 eax, DWORD PTR _orientation$[ebp]
  00206	50		 push	 eax
  00207	8b 4d d8	 mov	 ecx, DWORD PTR _this$[ebp]
  0020a	51		 push	 ecx
  0020b	8b 4d e8	 mov	 ecx, DWORD PTR $T204849[ebp]
  0020e	e8 00 00 00 00	 call	 ??0PanePosition@ETSLayoutMgr@@QAE@PAV1@W4layOrientation@1@HH@Z ; ETSLayoutMgr::PanePosition::PanePosition
  00213	89 45 d4	 mov	 DWORD PTR tv76[ebp], eax
  00216	eb 07		 jmp	 SHORT $L204851
$L204850:
  00218	c7 45 d4 00 00
	00 00		 mov	 DWORD PTR tv76[ebp], 0
$L204851:
  0021f	8b 55 d4	 mov	 edx, DWORD PTR tv76[ebp]
  00222	89 55 ec	 mov	 DWORD PTR $T204848[ebp], edx
  00225	c7 45 fc ff ff
	ff ff		 mov	 DWORD PTR __$EHRec$[ebp+8], -1
  0022c	8b 45 ec	 mov	 eax, DWORD PTR $T204848[ebp]
  0022f	89 45 f0	 mov	 DWORD PTR _pPane$[ebp], eax

; 210  : 	}
; 211  : 	else

  00232	eb 54		 jmp	 SHORT $L200734
$L200729:

; 212  : 	{
; 213  : 		pPane = new Pane ( this, orientation, sizeBorder, sizeExtraBorder );

  00234	68 84 00 00 00	 push	 132			; 00000084H
  00239	e8 00 00 00 00	 call	 ??2@YAPAXI@Z		; operator new
  0023e	83 c4 04	 add	 esp, 4
  00241	89 45 e0	 mov	 DWORD PTR $T204853[ebp], eax
  00244	c7 45 fc 01 00
	00 00		 mov	 DWORD PTR __$EHRec$[ebp+8], 1
  0024b	83 7d e0 00	 cmp	 DWORD PTR $T204853[ebp], 0
  0024f	74 1d		 je	 SHORT $L204854
  00251	8b 4d 18	 mov	 ecx, DWORD PTR _sizeExtraBorder$[ebp]
  00254	51		 push	 ecx
  00255	8b 55 14	 mov	 edx, DWORD PTR _sizeBorder$[ebp]
  00258	52		 push	 edx
  00259	8b 45 0c	 mov	 eax, DWORD PTR _orientation$[ebp]
  0025c	50		 push	 eax
  0025d	8b 4d d8	 mov	 ecx, DWORD PTR _this$[ebp]
  00260	51		 push	 ecx
  00261	8b 4d e0	 mov	 ecx, DWORD PTR $T204853[ebp]
  00264	e8 00 00 00 00	 call	 ??0Pane@ETSLayoutMgr@@IAE@PAV1@W4layOrientation@1@HH@Z ; ETSLayoutMgr::Pane::Pane
  00269	89 45 d0	 mov	 DWORD PTR tv87[ebp], eax
  0026c	eb 07		 jmp	 SHORT $L204855
$L204854:
  0026e	c7 45 d0 00 00
	00 00		 mov	 DWORD PTR tv87[ebp], 0
$L204855:
  00275	8b 55 d0	 mov	 edx, DWORD PTR tv87[ebp]
  00278	89 55 e4	 mov	 DWORD PTR $T204852[ebp], edx
  0027b	c7 45 fc ff ff
	ff ff		 mov	 DWORD PTR __$EHRec$[ebp+8], -1
  00282	8b 45 e4	 mov	 eax, DWORD PTR $T204852[ebp]
  00285	89 45 f0	 mov	 DWORD PTR _pPane$[ebp], eax
$L200734:

; 214  : 	}
; 215  : 
; 216  : 	pPane->m_sizeSecondary = sizeSecondary;

  00288	8b 4d f0	 mov	 ecx, DWORD PTR _pPane$[ebp]
  0028b	8b 55 1c	 mov	 edx, DWORD PTR _sizeSecondary$[ebp]
  0028e	89 51 78	 mov	 DWORD PTR [ecx+120], edx

; 217  : 	pPane->m_modeResize    = modeResize;

  00291	8b 45 f0	 mov	 eax, DWORD PTR _pPane$[ebp]
  00294	8b 4d 10	 mov	 ecx, DWORD PTR _modeResize$[ebp]
  00297	89 48 18	 mov	 DWORD PTR [eax+24], ecx

; 218  : 
; 219  : 
; 220  : 	return CPane(pPane);

  0029a	8b 55 f0	 mov	 edx, DWORD PTR _pPane$[ebp]
  0029d	52		 push	 edx
  0029e	8b 4d 08	 mov	 ecx, DWORD PTR ___$ReturnUdt$[ebp]
  002a1	e8 00 00 00 00	 call	 ??0CPane@ETSLayoutMgr@@QAE@PAVPane@1@@Z ; ETSLayoutMgr::CPane::CPane
  002a6	8b 45 dc	 mov	 eax, DWORD PTR $T204859[ebp]
  002a9	83 c8 01	 or	 eax, 1
  002ac	89 45 dc	 mov	 DWORD PTR $T204859[ebp], eax
  002af	8b 45 08	 mov	 eax, DWORD PTR ___$ReturnUdt$[ebp]

; 221  : }

  002b2	8b 4d f4	 mov	 ecx, DWORD PTR __$EHRec$[ebp]
  002b5	64 89 0d 00 00
	00 00		 mov	 DWORD PTR fs:__except_list, ecx
  002bc	8b e5		 mov	 esp, ebp
  002be	5d		 pop	 ebp
  002bf	c2 18 00	 ret	 24			; 00000018H
_TEXT	ENDS
text$x	SEGMENT
$L204856:
  00040	8b 45 e8	 mov	 eax, DWORD PTR $T204849[ebp]
  00043	50		 push	 eax
  00044	e8 00 00 00 00	 call	 ??3@YAXPAX@Z		; operator delete
  00049	59		 pop	 ecx
  0004a	c3		 ret	 0
$L204857:
  0004b	8b 45 e0	 mov	 eax, DWORD PTR $T204853[ebp]
  0004e	50		 push	 eax
  0004f	e8 00 00 00 00	 call	 ??3@YAXPAX@Z		; operator delete
  00054	59		 pop	 ecx
  00055	c3		 ret	 0
__ehhandler$?pane@ETSLayoutMgr@@QAE?AVCPane@1@W4layOrientation@1@W4layResizeMode@1@HHH@Z:
  00056	b8 00 00 00 00	 mov	 eax, OFFSET FLAT:$T204862
  0005b	e9 00 00 00 00	 jmp	 ___CxxFrameHandler
text$x	ENDS
?pane@ETSLayoutMgr@@QAE?AVCPane@1@W4layOrientation@1@W4layResizeMode@1@HHH@Z ENDP ; ETSLayoutMgr::pane
PUBLIC	??0PaneTab@ETSLayoutMgr@@IAE@PAVCTabCtrl@@PAV1@W4layOrientation@1@HH@Z ; ETSLayoutMgr::PaneTab::PaneTab
PUBLIC	?paneTab@ETSLayoutMgr@@QAE?AVCPane@1@PAVCTabCtrl@@W4layOrientation@1@W4layResizeMode@1@HHH@Z ; ETSLayoutMgr::paneTab
xdata$x	SEGMENT
$T204877 DD	0ffffffffH
	DD	FLAT:$L204870
$T204875 DD	019930520H
	DD	01H
	DD	FLAT:$T204877
	DD	2 DUP(00H)
	DD	2 DUP(00H)
; Function compile flags: /Odt
xdata$x	ENDS
_TEXT	SEGMENT
tv76 = -36						; size = 4
_this$ = -32						; size = 4
$T204872 = -28						; size = 4
$T204867 = -24						; size = 4
$T204866 = -20						; size = 4
_pPane$ = -16						; size = 4
__$EHRec$ = -12						; size = 12
___$ReturnUdt$ = 8					; size = 4
_pTab$ = 12						; size = 4
_orientation$ = 16					; size = 4
_modeResize$ = 20					; size = 4
_sizeBorder$ = 24					; size = 4
_sizeExtraBorder$ = 28					; size = 4
_sizeSecondary$ = 32					; size = 4
?paneTab@ETSLayoutMgr@@QAE?AVCPane@1@PAVCTabCtrl@@W4layOrientation@1@W4layResizeMode@1@HHH@Z PROC NEAR ; ETSLayoutMgr::paneTab
; _this$ = ecx

; 228  : {

  002d0	55		 push	 ebp
  002d1	8b ec		 mov	 ebp, esp
  002d3	6a ff		 push	 -1
  002d5	68 00 00 00 00	 push	 __ehhandler$?paneTab@ETSLayoutMgr@@QAE?AVCPane@1@PAVCTabCtrl@@W4layOrientation@1@W4layResizeMode@1@HHH@Z
  002da	64 a1 00 00 00
	00		 mov	 eax, DWORD PTR fs:__except_list
  002e0	50		 push	 eax
  002e1	64 89 25 00 00
	00 00		 mov	 DWORD PTR fs:__except_list, esp
  002e8	83 ec 18	 sub	 esp, 24			; 00000018H
  002eb	89 4d e0	 mov	 DWORD PTR _this$[ebp], ecx
  002ee	c7 45 e4 00 00
	00 00		 mov	 DWORD PTR $T204872[ebp], 0

; 229  : 	Pane* pPane = new PaneTab ( pTab, this, orientation, sizeBorder, sizeExtraBorder );

  002f5	68 88 00 00 00	 push	 136			; 00000088H
  002fa	e8 00 00 00 00	 call	 ??2@YAPAXI@Z		; operator new
  002ff	83 c4 04	 add	 esp, 4
  00302	89 45 e8	 mov	 DWORD PTR $T204867[ebp], eax
  00305	c7 45 fc 00 00
	00 00		 mov	 DWORD PTR __$EHRec$[ebp+8], 0
  0030c	83 7d e8 00	 cmp	 DWORD PTR $T204867[ebp], 0
  00310	74 21		 je	 SHORT $L204868
  00312	8b 45 1c	 mov	 eax, DWORD PTR _sizeExtraBorder$[ebp]
  00315	50		 push	 eax
  00316	8b 4d 18	 mov	 ecx, DWORD PTR _sizeBorder$[ebp]
  00319	51		 push	 ecx
  0031a	8b 55 10	 mov	 edx, DWORD PTR _orientation$[ebp]
  0031d	52		 push	 edx
  0031e	8b 45 e0	 mov	 eax, DWORD PTR _this$[ebp]
  00321	50		 push	 eax
  00322	8b 4d 0c	 mov	 ecx, DWORD PTR _pTab$[ebp]
  00325	51		 push	 ecx
  00326	8b 4d e8	 mov	 ecx, DWORD PTR $T204867[ebp]
  00329	e8 00 00 00 00	 call	 ??0PaneTab@ETSLayoutMgr@@IAE@PAVCTabCtrl@@PAV1@W4layOrientation@1@HH@Z ; ETSLayoutMgr::PaneTab::PaneTab
  0032e	89 45 dc	 mov	 DWORD PTR tv76[ebp], eax
  00331	eb 07		 jmp	 SHORT $L204869
$L204868:
  00333	c7 45 dc 00 00
	00 00		 mov	 DWORD PTR tv76[ebp], 0
$L204869:
  0033a	8b 55 dc	 mov	 edx, DWORD PTR tv76[ebp]
  0033d	89 55 ec	 mov	 DWORD PTR $T204866[ebp], edx
  00340	c7 45 fc ff ff
	ff ff		 mov	 DWORD PTR __$EHRec$[ebp+8], -1
  00347	8b 45 ec	 mov	 eax, DWORD PTR $T204866[ebp]
  0034a	89 45 f0	 mov	 DWORD PTR _pPane$[ebp], eax

; 230  : 	pPane->m_sizeSecondary = sizeSecondary;

  0034d	8b 4d f0	 mov	 ecx, DWORD PTR _pPane$[ebp]
  00350	8b 55 20	 mov	 edx, DWORD PTR _sizeSecondary$[ebp]
  00353	89 51 78	 mov	 DWORD PTR [ecx+120], edx

; 231  : 	pPane->m_modeResize    = modeResize;

  00356	8b 45 f0	 mov	 eax, DWORD PTR _pPane$[ebp]
  00359	8b 4d 14	 mov	 ecx, DWORD PTR _modeResize$[ebp]
  0035c	89 48 18	 mov	 DWORD PTR [eax+24], ecx

; 232  : 
; 233  : 	return CPane(pPane);

  0035f	8b 55 f0	 mov	 edx, DWORD PTR _pPane$[ebp]
  00362	52		 push	 edx
  00363	8b 4d 08	 mov	 ecx, DWORD PTR ___$ReturnUdt$[ebp]
  00366	e8 00 00 00 00	 call	 ??0CPane@ETSLayoutMgr@@QAE@PAVPane@1@@Z ; ETSLayoutMgr::CPane::CPane
  0036b	8b 45 e4	 mov	 eax, DWORD PTR $T204872[ebp]
  0036e	83 c8 01	 or	 eax, 1
  00371	89 45 e4	 mov	 DWORD PTR $T204872[ebp], eax
  00374	8b 45 08	 mov	 eax, DWORD PTR ___$ReturnUdt$[ebp]

; 234  : }

  00377	8b 4d f4	 mov	 ecx, DWORD PTR __$EHRec$[ebp]
  0037a	64 89 0d 00 00
	00 00		 mov	 DWORD PTR fs:__except_list, ecx
  00381	8b e5		 mov	 esp, ebp
  00383	5d		 pop	 ebp
  00384	c2 1c 00	 ret	 28			; 0000001cH
_TEXT	ENDS
text$x	SEGMENT
$L204870:
  00060	8b 45 e8	 mov	 eax, DWORD PTR $T204867[ebp]
  00063	50		 push	 eax
  00064	e8 00 00 00 00	 call	 ??3@YAXPAX@Z		; operator delete
  00069	59		 pop	 ecx
  0006a	c3		 ret	 0
__ehhandler$?paneTab@ETSLayoutMgr@@QAE?AVCPane@1@PAVCTabCtrl@@W4layOrientation@1@W4layResizeMode@1@HHH@Z:
  0006b	b8 00 00 00 00	 mov	 eax, OFFSET FLAT:$T204875
  00070	e9 00 00 00 00	 jmp	 ___CxxFrameHandler
text$x	ENDS
?paneTab@ETSLayoutMgr@@QAE?AVCPane@1@PAVCTabCtrl@@W4layOrientation@1@W4layResizeMode@1@HHH@Z ENDP ; ETSLayoutMgr::paneTab
PUBLIC	??0PaneCtrl@ETSLayoutMgr@@IAE@PAVCWnd@@PAV1@W4layOrientation@1@HHH@Z ; ETSLayoutMgr::PaneCtrl::PaneCtrl
PUBLIC	?paneCtrl@ETSLayoutMgr@@QAE?AVCPane@1@PAVCWnd@@W4layOrientation@1@W4layResizeMode@1@HHHH@Z ; ETSLayoutMgr::paneCtrl
xdata$x	SEGMENT
$T204890 DD	0ffffffffH
	DD	FLAT:$L204883
$T204888 DD	019930520H
	DD	01H
	DD	FLAT:$T204890
	DD	2 DUP(00H)
	DD	2 DUP(00H)
; Function compile flags: /Odt
xdata$x	ENDS
_TEXT	SEGMENT
tv77 = -36						; size = 4
_this$ = -32						; size = 4
$T204885 = -28						; size = 4
$T204880 = -24						; size = 4
$T204879 = -20						; size = 4
_pPane$ = -16						; size = 4
__$EHRec$ = -12						; size = 12
___$ReturnUdt$ = 8					; size = 4
_pCtrl$ = 12						; size = 4
_orientation$ = 16					; size = 4
_modeResize$ = 20					; size = 4
_sizeBorder$ = 24					; size = 4
_sizeExtraBorder$ = 28					; size = 4
_sizeTopExtra$ = 32					; size = 4
_sizeSecondary$ = 36					; size = 4
?paneCtrl@ETSLayoutMgr@@QAE?AVCPane@1@PAVCWnd@@W4layOrientation@1@W4layResizeMode@1@HHHH@Z PROC NEAR ; ETSLayoutMgr::paneCtrl
; _this$ = ecx

; 241  : {

  00390	55		 push	 ebp
  00391	8b ec		 mov	 ebp, esp
  00393	6a ff		 push	 -1
  00395	68 00 00 00 00	 push	 __ehhandler$?paneCtrl@ETSLayoutMgr@@QAE?AVCPane@1@PAVCWnd@@W4layOrientation@1@W4layResizeMode@1@HHHH@Z
  0039a	64 a1 00 00 00
	00		 mov	 eax, DWORD PTR fs:__except_list
  003a0	50		 push	 eax
  003a1	64 89 25 00 00
	00 00		 mov	 DWORD PTR fs:__except_list, esp
  003a8	83 ec 18	 sub	 esp, 24			; 00000018H
  003ab	89 4d e0	 mov	 DWORD PTR _this$[ebp], ecx
  003ae	c7 45 e4 00 00
	00 00		 mov	 DWORD PTR $T204885[ebp], 0

; 242  : 	Pane* pPane = new PaneCtrl ( pCtrl, this, orientation, sizeBorder, sizeExtraBorder, sizeTopExtra );

  003b5	68 8c 00 00 00	 push	 140			; 0000008cH
  003ba	e8 00 00 00 00	 call	 ??2@YAPAXI@Z		; operator new
  003bf	83 c4 04	 add	 esp, 4
  003c2	89 45 e8	 mov	 DWORD PTR $T204880[ebp], eax
  003c5	c7 45 fc 00 00
	00 00		 mov	 DWORD PTR __$EHRec$[ebp+8], 0
  003cc	83 7d e8 00	 cmp	 DWORD PTR $T204880[ebp], 0
  003d0	74 25		 je	 SHORT $L204881
  003d2	8b 45 20	 mov	 eax, DWORD PTR _sizeTopExtra$[ebp]
  003d5	50		 push	 eax
  003d6	8b 4d 1c	 mov	 ecx, DWORD PTR _sizeExtraBorder$[ebp]
  003d9	51		 push	 ecx
  003da	8b 55 18	 mov	 edx, DWORD PTR _sizeBorder$[ebp]
  003dd	52		 push	 edx
  003de	8b 45 10	 mov	 eax, DWORD PTR _orientation$[ebp]
  003e1	50		 push	 eax
  003e2	8b 4d e0	 mov	 ecx, DWORD PTR _this$[ebp]
  003e5	51		 push	 ecx
  003e6	8b 55 0c	 mov	 edx, DWORD PTR _pCtrl$[ebp]
  003e9	52		 push	 edx
  003ea	8b 4d e8	 mov	 ecx, DWORD PTR $T204880[ebp]
  003ed	e8 00 00 00 00	 call	 ??0PaneCtrl@ETSLayoutMgr@@IAE@PAVCWnd@@PAV1@W4layOrientation@1@HHH@Z ; ETSLayoutMgr::PaneCtrl::PaneCtrl
  003f2	89 45 dc	 mov	 DWORD PTR tv77[ebp], eax
  003f5	eb 07		 jmp	 SHORT $L204882
$L204881:
  003f7	c7 45 dc 00 00
	00 00		 mov	 DWORD PTR tv77[ebp], 0
$L204882:
  003fe	8b 45 dc	 mov	 eax, DWORD PTR tv77[ebp]
  00401	89 45 ec	 mov	 DWORD PTR $T204879[ebp], eax
  00404	c7 45 fc ff ff
	ff ff		 mov	 DWORD PTR __$EHRec$[ebp+8], -1
  0040b	8b 4d ec	 mov	 ecx, DWORD PTR $T204879[ebp]
  0040e	89 4d f0	 mov	 DWORD PTR _pPane$[ebp], ecx

; 243  : 	pPane->m_sizeSecondary = sizeSecondary;

  00411	8b 55 f0	 mov	 edx, DWORD PTR _pPane$[ebp]
  00414	8b 45 24	 mov	 eax, DWORD PTR _sizeSecondary$[ebp]
  00417	89 42 78	 mov	 DWORD PTR [edx+120], eax

; 244  : 	pPane->m_modeResize    = modeResize;

  0041a	8b 4d f0	 mov	 ecx, DWORD PTR _pPane$[ebp]
  0041d	8b 55 14	 mov	 edx, DWORD PTR _modeResize$[ebp]
  00420	89 51 18	 mov	 DWORD PTR [ecx+24], edx

; 245  : 
; 246  : 	return CPane(pPane);

  00423	8b 45 f0	 mov	 eax, DWORD PTR _pPane$[ebp]
  00426	50		 push	 eax
  00427	8b 4d 08	 mov	 ecx, DWORD PTR ___$ReturnUdt$[ebp]
  0042a	e8 00 00 00 00	 call	 ??0CPane@ETSLayoutMgr@@QAE@PAVPane@1@@Z ; ETSLayoutMgr::CPane::CPane
  0042f	8b 4d e4	 mov	 ecx, DWORD PTR $T204885[ebp]
  00432	83 c9 01	 or	 ecx, 1
  00435	89 4d e4	 mov	 DWORD PTR $T204885[ebp], ecx
  00438	8b 45 08	 mov	 eax, DWORD PTR ___$ReturnUdt$[ebp]

; 247  : }

  0043b	8b 4d f4	 mov	 ecx, DWORD PTR __$EHRec$[ebp]
  0043e	64 89 0d 00 00
	00 00		 mov	 DWORD PTR fs:__except_list, ecx
  00445	8b e5		 mov	 esp, ebp
  00447	5d		 pop	 ebp
  00448	c2 20 00	 ret	 32			; 00000020H
_TEXT	ENDS
text$x	SEGMENT
$L204883:
  00075	8b 45 e8	 mov	 eax, DWORD PTR $T204880[ebp]
  00078	50		 push	 eax
  00079	e8 00 00 00 00	 call	 ??3@YAXPAX@Z		; operator delete
  0007e	59		 pop	 ecx
  0007f	c3		 ret	 0
__ehhandler$?paneCtrl@ETSLayoutMgr@@QAE?AVCPane@1@PAVCWnd@@W4layOrientation@1@W4layResizeMode@1@HHHH@Z:
  00080	b8 00 00 00 00	 mov	 eax, OFFSET FLAT:$T204888
  00085	e9 00 00 00 00	 jmp	 ___CxxFrameHandler
text$x	ENDS
?paneCtrl@ETSLayoutMgr@@QAE?AVCPane@1@PAVCWnd@@W4layOrientation@1@W4layResizeMode@1@HHHH@Z ENDP ; ETSLayoutMgr::paneCtrl
PUBLIC	??0PaneCtrl@ETSLayoutMgr@@IAE@IPAV1@W4layOrientation@1@HHH@Z ; ETSLayoutMgr::PaneCtrl::PaneCtrl
PUBLIC	?paneCtrl@ETSLayoutMgr@@QAE?AVCPane@1@IW4layOrientation@1@W4layResizeMode@1@HHHH@Z ; ETSLayoutMgr::paneCtrl
xdata$x	SEGMENT
$T204903 DD	0ffffffffH
	DD	FLAT:$L204896
$T204901 DD	019930520H
	DD	01H
	DD	FLAT:$T204903
	DD	2 DUP(00H)
	DD	2 DUP(00H)
; Function compile flags: /Odt
xdata$x	ENDS
_TEXT	SEGMENT
tv77 = -36						; size = 4
_this$ = -32						; size = 4
$T204898 = -28						; size = 4
$T204893 = -24						; size = 4
$T204892 = -20						; size = 4
_pPane$ = -16						; size = 4
__$EHRec$ = -12						; size = 12
___$ReturnUdt$ = 8					; size = 4
_nID$ = 12						; size = 4
_orientation$ = 16					; size = 4
_modeResize$ = 20					; size = 4
_sizeBorder$ = 24					; size = 4
_sizeExtraBorder$ = 28					; size = 4
_sizeTopExtra$ = 32					; size = 4
_sizeSecondary$ = 36					; size = 4
?paneCtrl@ETSLayoutMgr@@QAE?AVCPane@1@IW4layOrientation@1@W4layResizeMode@1@HHHH@Z PROC NEAR ; ETSLayoutMgr::paneCtrl
; _this$ = ecx

; 252  : {

  00450	55		 push	 ebp
  00451	8b ec		 mov	 ebp, esp
  00453	6a ff		 push	 -1
  00455	68 00 00 00 00	 push	 __ehhandler$?paneCtrl@ETSLayoutMgr@@QAE?AVCPane@1@IW4layOrientation@1@W4layResizeMode@1@HHHH@Z
  0045a	64 a1 00 00 00
	00		 mov	 eax, DWORD PTR fs:__except_list
  00460	50		 push	 eax
  00461	64 89 25 00 00
	00 00		 mov	 DWORD PTR fs:__except_list, esp
  00468	83 ec 18	 sub	 esp, 24			; 00000018H
  0046b	89 4d e0	 mov	 DWORD PTR _this$[ebp], ecx
  0046e	c7 45 e4 00 00
	00 00		 mov	 DWORD PTR $T204898[ebp], 0

; 253  : 	Pane* pPane = new PaneCtrl ( nID, this, orientation, sizeBorder, sizeExtraBorder, sizeTopExtra );

  00475	68 8c 00 00 00	 push	 140			; 0000008cH
  0047a	e8 00 00 00 00	 call	 ??2@YAPAXI@Z		; operator new
  0047f	83 c4 04	 add	 esp, 4
  00482	89 45 e8	 mov	 DWORD PTR $T204893[ebp], eax
  00485	c7 45 fc 00 00
	00 00		 mov	 DWORD PTR __$EHRec$[ebp+8], 0
  0048c	83 7d e8 00	 cmp	 DWORD PTR $T204893[ebp], 0
  00490	74 25		 je	 SHORT $L204894
  00492	8b 45 20	 mov	 eax, DWORD PTR _sizeTopExtra$[ebp]
  00495	50		 push	 eax
  00496	8b 4d 1c	 mov	 ecx, DWORD PTR _sizeExtraBorder$[ebp]
  00499	51		 push	 ecx
  0049a	8b 55 18	 mov	 edx, DWORD PTR _sizeBorder$[ebp]
  0049d	52		 push	 edx
  0049e	8b 45 10	 mov	 eax, DWORD PTR _orientation$[ebp]
  004a1	50		 push	 eax
  004a2	8b 4d e0	 mov	 ecx, DWORD PTR _this$[ebp]
  004a5	51		 push	 ecx
  004a6	8b 55 0c	 mov	 edx, DWORD PTR _nID$[ebp]
  004a9	52		 push	 edx
  004aa	8b 4d e8	 mov	 ecx, DWORD PTR $T204893[ebp]
  004ad	e8 00 00 00 00	 call	 ??0PaneCtrl@ETSLayoutMgr@@IAE@IPAV1@W4layOrientation@1@HHH@Z ; ETSLayoutMgr::PaneCtrl::PaneCtrl
  004b2	89 45 dc	 mov	 DWORD PTR tv77[ebp], eax
  004b5	eb 07		 jmp	 SHORT $L204895
$L204894:
  004b7	c7 45 dc 00 00
	00 00		 mov	 DWORD PTR tv77[ebp], 0
$L204895:
  004be	8b 45 dc	 mov	 eax, DWORD PTR tv77[ebp]
  004c1	89 45 ec	 mov	 DWORD PTR $T204892[ebp], eax
  004c4	c7 45 fc ff ff
	ff ff		 mov	 DWORD PTR __$EHRec$[ebp+8], -1
  004cb	8b 4d ec	 mov	 ecx, DWORD PTR $T204892[ebp]
  004ce	89 4d f0	 mov	 DWORD PTR _pPane$[ebp], ecx

; 254  : 	pPane->m_sizeSecondary = sizeSecondary;

  004d1	8b 55 f0	 mov	 edx, DWORD PTR _pPane$[ebp]
  004d4	8b 45 24	 mov	 eax, DWORD PTR _sizeSecondary$[ebp]
  004d7	89 42 78	 mov	 DWORD PTR [edx+120], eax

; 255  : 	pPane->m_modeResize    = modeResize;

  004da	8b 4d f0	 mov	 ecx, DWORD PTR _pPane$[ebp]
  004dd	8b 55 14	 mov	 edx, DWORD PTR _modeResize$[ebp]
  004e0	89 51 18	 mov	 DWORD PTR [ecx+24], edx

; 256  : 
; 257  : 	return CPane(pPane);

  004e3	8b 45 f0	 mov	 eax, DWORD PTR _pPane$[ebp]
  004e6	50		 push	 eax
  004e7	8b 4d 08	 mov	 ecx, DWORD PTR ___$ReturnUdt$[ebp]
  004ea	e8 00 00 00 00	 call	 ??0CPane@ETSLayoutMgr@@QAE@PAVPane@1@@Z ; ETSLayoutMgr::CPane::CPane
  004ef	8b 4d e4	 mov	 ecx, DWORD PTR $T204898[ebp]
  004f2	83 c9 01	 or	 ecx, 1
  004f5	89 4d e4	 mov	 DWORD PTR $T204898[ebp], ecx
  004f8	8b 45 08	 mov	 eax, DWORD PTR ___$ReturnUdt$[ebp]

; 258  : }

  004fb	8b 4d f4	 mov	 ecx, DWORD PTR __$EHRec$[ebp]
  004fe	64 89 0d 00 00
	00 00		 mov	 DWORD PTR fs:__except_list, ecx
  00505	8b e5		 mov	 esp, ebp
  00507	5d		 pop	 ebp
  00508	c2 20 00	 ret	 32			; 00000020H
_TEXT	ENDS
text$x	SEGMENT
$L204896:
  0008a	8b 45 e8	 mov	 eax, DWORD PTR $T204893[ebp]
  0008d	50		 push	 eax
  0008e	e8 00 00 00 00	 call	 ??3@YAXPAX@Z		; operator delete
  00093	59		 pop	 ecx
  00094	c3		 ret	 0
__ehhandler$?paneCtrl@ETSLayoutMgr@@QAE?AVCPane@1@IW4layOrientation@1@W4layResizeMode@1@HHHH@Z:
  00095	b8 00 00 00 00	 mov	 eax, OFFSET FLAT:$T204901
  0009a	e9 00 00 00 00	 jmp	 ___CxxFrameHandler
text$x	ENDS
?paneCtrl@ETSLayoutMgr@@QAE?AVCPane@1@IW4layOrientation@1@W4layResizeMode@1@HHHH@Z ENDP ; ETSLayoutMgr::paneCtrl
PUBLIC	??0PaneItem@ETSLayoutMgr@@IAE@IPAV1@W4layResizeMode@1@HHHH@Z ; ETSLayoutMgr::PaneItem::PaneItem
PUBLIC	?item@ETSLayoutMgr@@QAE?AVCPaneBase@1@IW4layResizeMode@1@HHHH@Z ; ETSLayoutMgr::item
PUBLIC	??0CPaneBase@ETSLayoutMgr@@QAE@PAVPaneBase@1@@Z	; ETSLayoutMgr::CPaneBase::CPaneBase
xdata$x	SEGMENT
$T204916 DD	0ffffffffH
	DD	FLAT:$L204909
$T204914 DD	019930520H
	DD	01H
	DD	FLAT:$T204916
	DD	2 DUP(00H)
	DD	2 DUP(00H)
; Function compile flags: /Odt
xdata$x	ENDS
_TEXT	SEGMENT
tv80 = -32						; size = 4
_this$ = -28						; size = 4
$T204911 = -24						; size = 4
$T204906 = -20						; size = 4
$T204905 = -16						; size = 4
__$EHRec$ = -12						; size = 12
___$ReturnUdt$ = 8					; size = 4
_nID$ = 12						; size = 4
_modeResize$ = 16					; size = 4
_sizeX$ = 20						; size = 4
_sizeY$ = 24						; size = 4
_sizeXMin$ = 28						; size = 4
_sizeYMin$ = 32						; size = 4
?item@ETSLayoutMgr@@QAE?AVCPaneBase@1@IW4layResizeMode@1@HHHH@Z PROC NEAR ; ETSLayoutMgr::item
; _this$ = ecx

; 263  : {

  00510	55		 push	 ebp
  00511	8b ec		 mov	 ebp, esp
  00513	6a ff		 push	 -1
  00515	68 00 00 00 00	 push	 __ehhandler$?item@ETSLayoutMgr@@QAE?AVCPaneBase@1@IW4layResizeMode@1@HHHH@Z
  0051a	64 a1 00 00 00
	00		 mov	 eax, DWORD PTR fs:__except_list
  00520	50		 push	 eax
  00521	64 89 25 00 00
	00 00		 mov	 DWORD PTR fs:__except_list, esp
  00528	83 ec 14	 sub	 esp, 20			; 00000014H
  0052b	89 4d e4	 mov	 DWORD PTR _this$[ebp], ecx
  0052e	c7 45 e8 00 00
	00 00		 mov	 DWORD PTR $T204911[ebp], 0

; 264  : 	return new PaneItem( nID, this, modeResize, sizeX, sizeY, sizeXMin, sizeYMin);

  00535	6a 7c		 push	 124			; 0000007cH
  00537	e8 00 00 00 00	 call	 ??2@YAPAXI@Z		; operator new
  0053c	83 c4 04	 add	 esp, 4
  0053f	89 45 ec	 mov	 DWORD PTR $T204906[ebp], eax
  00542	c7 45 fc 00 00
	00 00		 mov	 DWORD PTR __$EHRec$[ebp+8], 0
  00549	83 7d ec 00	 cmp	 DWORD PTR $T204906[ebp], 0
  0054d	74 29		 je	 SHORT $L204907
  0054f	8b 45 20	 mov	 eax, DWORD PTR _sizeYMin$[ebp]
  00552	50		 push	 eax
  00553	8b 4d 1c	 mov	 ecx, DWORD PTR _sizeXMin$[ebp]
  00556	51		 push	 ecx
  00557	8b 55 18	 mov	 edx, DWORD PTR _sizeY$[ebp]
  0055a	52		 push	 edx
  0055b	8b 45 14	 mov	 eax, DWORD PTR _sizeX$[ebp]
  0055e	50		 push	 eax
  0055f	8b 4d 10	 mov	 ecx, DWORD PTR _modeResize$[ebp]
  00562	51		 push	 ecx
  00563	8b 55 e4	 mov	 edx, DWORD PTR _this$[ebp]
  00566	52		 push	 edx
  00567	8b 45 0c	 mov	 eax, DWORD PTR _nID$[ebp]
  0056a	50		 push	 eax
  0056b	8b 4d ec	 mov	 ecx, DWORD PTR $T204906[ebp]
  0056e	e8 00 00 00 00	 call	 ??0PaneItem@ETSLayoutMgr@@IAE@IPAV1@W4layResizeMode@1@HHHH@Z ; ETSLayoutMgr::PaneItem::PaneItem
  00573	89 45 e0	 mov	 DWORD PTR tv80[ebp], eax
  00576	eb 07		 jmp	 SHORT $L204908
$L204907:
  00578	c7 45 e0 00 00
	00 00		 mov	 DWORD PTR tv80[ebp], 0
$L204908:
  0057f	8b 4d e0	 mov	 ecx, DWORD PTR tv80[ebp]
  00582	89 4d f0	 mov	 DWORD PTR $T204905[ebp], ecx
  00585	c7 45 fc ff ff
	ff ff		 mov	 DWORD PTR __$EHRec$[ebp+8], -1
  0058c	8b 55 f0	 mov	 edx, DWORD PTR $T204905[ebp]
  0058f	52		 push	 edx
  00590	8b 4d 08	 mov	 ecx, DWORD PTR ___$ReturnUdt$[ebp]
  00593	e8 00 00 00 00	 call	 ??0CPaneBase@ETSLayoutMgr@@QAE@PAVPaneBase@1@@Z ; ETSLayoutMgr::CPaneBase::CPaneBase
  00598	8b 45 e8	 mov	 eax, DWORD PTR $T204911[ebp]
  0059b	83 c8 01	 or	 eax, 1
  0059e	89 45 e8	 mov	 DWORD PTR $T204911[ebp], eax
  005a1	8b 45 08	 mov	 eax, DWORD PTR ___$ReturnUdt$[ebp]

; 265  : }

  005a4	8b 4d f4	 mov	 ecx, DWORD PTR __$EHRec$[ebp]
  005a7	64 89 0d 00 00
	00 00		 mov	 DWORD PTR fs:__except_list, ecx
  005ae	8b e5		 mov	 esp, ebp
  005b0	5d		 pop	 ebp
  005b1	c2 1c 00	 ret	 28			; 0000001cH
_TEXT	ENDS
text$x	SEGMENT
$L204909:
  0009f	8b 45 ec	 mov	 eax, DWORD PTR $T204906[ebp]
  000a2	50		 push	 eax
  000a3	e8 00 00 00 00	 call	 ??3@YAXPAX@Z		; operator delete
  000a8	59		 pop	 ecx
  000a9	c3		 ret	 0
__ehhandler$?item@ETSLayoutMgr@@QAE?AVCPaneBase@1@IW4layResizeMode@1@HHHH@Z:
  000aa	b8 00 00 00 00	 mov	 eax, OFFSET FLAT:$T204914
  000af	e9 00 00 00 00	 jmp	 ___CxxFrameHandler
text$x	ENDS
?item@ETSLayoutMgr@@QAE?AVCPaneBase@1@IW4layResizeMode@1@HHHH@Z ENDP ; ETSLayoutMgr::item
PUBLIC	??0PaneItem@ETSLayoutMgr@@IAE@PAVCWnd@@PAV1@W4layResizeMode@1@HHHH@Z ; ETSLayoutMgr::PaneItem::PaneItem
PUBLIC	?item@ETSLayoutMgr@@QAE?AVCPaneBase@1@PAVCWnd@@W4layResizeMode@1@HHHH@Z ; ETSLayoutMgr::item
xdata$x	SEGMENT
$T204929 DD	0ffffffffH
	DD	FLAT:$L204922
$T204927 DD	019930520H
	DD	01H
	DD	FLAT:$T204929
	DD	2 DUP(00H)
	DD	2 DUP(00H)
; Function compile flags: /Odt
xdata$x	ENDS
_TEXT	SEGMENT
tv80 = -32						; size = 4
_this$ = -28						; size = 4
$T204924 = -24						; size = 4
$T204919 = -20						; size = 4
$T204918 = -16						; size = 4
__$EHRec$ = -12						; size = 12
___$ReturnUdt$ = 8					; size = 4
_pWnd$ = 12						; size = 4
_modeResize$ = 16					; size = 4
_sizeX$ = 20						; size = 4
_sizeY$ = 24						; size = 4
_sizeXMin$ = 28						; size = 4
_sizeYMin$ = 32						; size = 4
?item@ETSLayoutMgr@@QAE?AVCPaneBase@1@PAVCWnd@@W4layResizeMode@1@HHHH@Z PROC NEAR ; ETSLayoutMgr::item
; _this$ = ecx

; 270  : {

  005c0	55		 push	 ebp
  005c1	8b ec		 mov	 ebp, esp
  005c3	6a ff		 push	 -1
  005c5	68 00 00 00 00	 push	 __ehhandler$?item@ETSLayoutMgr@@QAE?AVCPaneBase@1@PAVCWnd@@W4layResizeMode@1@HHHH@Z
  005ca	64 a1 00 00 00
	00		 mov	 eax, DWORD PTR fs:__except_list
  005d0	50		 push	 eax
  005d1	64 89 25 00 00
	00 00		 mov	 DWORD PTR fs:__except_list, esp
  005d8	83 ec 14	 sub	 esp, 20			; 00000014H
  005db	89 4d e4	 mov	 DWORD PTR _this$[ebp], ecx
  005de	c7 45 e8 00 00
	00 00		 mov	 DWORD PTR $T204924[ebp], 0

; 271  : 	return new PaneItem( pWnd, this, modeResize, sizeX, sizeY, sizeXMin, sizeYMin);

  005e5	6a 7c		 push	 124			; 0000007cH
  005e7	e8 00 00 00 00	 call	 ??2@YAPAXI@Z		; operator new
  005ec	83 c4 04	 add	 esp, 4
  005ef	89 45 ec	 mov	 DWORD PTR $T204919[ebp], eax
  005f2	c7 45 fc 00 00
	00 00		 mov	 DWORD PTR __$EHRec$[ebp+8], 0
  005f9	83 7d ec 00	 cmp	 DWORD PTR $T204919[ebp], 0
  005fd	74 29		 je	 SHORT $L204920
  005ff	8b 45 20	 mov	 eax, DWORD PTR _sizeYMin$[ebp]
  00602	50		 push	 eax
  00603	8b 4d 1c	 mov	 ecx, DWORD PTR _sizeXMin$[ebp]
  00606	51		 push	 ecx
  00607	8b 55 18	 mov	 edx, DWORD PTR _sizeY$[ebp]
  0060a	52		 push	 edx
  0060b	8b 45 14	 mov	 eax, DWORD PTR _sizeX$[ebp]
  0060e	50		 push	 eax
  0060f	8b 4d 10	 mov	 ecx, DWORD PTR _modeResize$[ebp]
  00612	51		 push	 ecx
  00613	8b 55 e4	 mov	 edx, DWORD PTR _this$[ebp]
  00616	52		 push	 edx
  00617	8b 45 0c	 mov	 eax, DWORD PTR _pWnd$[ebp]
  0061a	50		 push	 eax
  0061b	8b 4d ec	 mov	 ecx, DWORD PTR $T204919[ebp]
  0061e	e8 00 00 00 00	 call	 ??0PaneItem@ETSLayoutMgr@@IAE@PAVCWnd@@PAV1@W4layResizeMode@1@HHHH@Z ; ETSLayoutMgr::PaneItem::PaneItem
  00623	89 45 e0	 mov	 DWORD PTR tv80[ebp], eax
  00626	eb 07		 jmp	 SHORT $L204921
$L204920:
  00628	c7 45 e0 00 00
	00 00		 mov	 DWORD PTR tv80[ebp], 0
$L204921:
  0062f	8b 4d e0	 mov	 ecx, DWORD PTR tv80[ebp]
  00632	89 4d f0	 mov	 DWORD PTR $T204918[ebp], ecx
  00635	c7 45 fc ff ff
	ff ff		 mov	 DWORD PTR __$EHRec$[ebp+8], -1
  0063c	8b 55 f0	 mov	 edx, DWORD PTR $T204918[ebp]
  0063f	52		 push	 edx
  00640	8b 4d 08	 mov	 ecx, DWORD PTR ___$ReturnUdt$[ebp]
  00643	e8 00 00 00 00	 call	 ??0CPaneBase@ETSLayoutMgr@@QAE@PAVPaneBase@1@@Z ; ETSLayoutMgr::CPaneBase::CPaneBase
  00648	8b 45 e8	 mov	 eax, DWORD PTR $T204924[ebp]
  0064b	83 c8 01	 or	 eax, 1
  0064e	89 45 e8	 mov	 DWORD PTR $T204924[ebp], eax
  00651	8b 45 08	 mov	 eax, DWORD PTR ___$ReturnUdt$[ebp]

; 272  : }

  00654	8b 4d f4	 mov	 ecx, DWORD PTR __$EHRec$[ebp]
  00657	64 89 0d 00 00
	00 00		 mov	 DWORD PTR fs:__except_list, ecx
  0065e	8b e5		 mov	 esp, ebp
  00660	5d		 pop	 ebp
  00661	c2 1c 00	 ret	 28			; 0000001cH
_TEXT	ENDS
text$x	SEGMENT
$L204922:
  000b4	8b 45 ec	 mov	 eax, DWORD PTR $T204919[ebp]
  000b7	50		 push	 eax
  000b8	e8 00 00 00 00	 call	 ??3@YAXPAX@Z		; operator delete
  000bd	59		 pop	 ecx
  000be	c3		 ret	 0
__ehhandler$?item@ETSLayoutMgr@@QAE?AVCPaneBase@1@PAVCWnd@@W4layResizeMode@1@HHHH@Z:
  000bf	b8 00 00 00 00	 mov	 eax, OFFSET FLAT:$T204927
  000c4	e9 00 00 00 00	 jmp	 ___CxxFrameHandler
text$x	ENDS
?item@ETSLayoutMgr@@QAE?AVCPaneBase@1@PAVCWnd@@W4layResizeMode@1@HHHH@Z ENDP ; ETSLayoutMgr::item
PUBLIC	?itemFixed@ETSLayoutMgr@@QAE?AVCPaneBase@1@W4layOrientation@1@H@Z ; ETSLayoutMgr::itemFixed
PUBLIC	??0CPaneBase@ETSLayoutMgr@@QAE@ABV01@@Z		; ETSLayoutMgr::CPaneBase::CPaneBase
PUBLIC	??1CPaneBase@ETSLayoutMgr@@QAE@XZ		; ETSLayoutMgr::CPaneBase::~CPaneBase
xdata$x	SEGMENT
$T204943 DD	0ffffffffH
	DD	FLAT:$L204937
	DD	00H
	DD	FLAT:$L204935
	DD	00H
	DD	FLAT:$L204936
$T204941 DD	019930520H
	DD	03H
	DD	FLAT:$T204943
	DD	2 DUP(00H)
	DD	2 DUP(00H)
; Function compile flags: /Odt
xdata$x	ENDS
_TEXT	SEGMENT
tv84 = -36						; size = 4
_this$ = -32						; size = 4
$T204938 = -28						; size = 4
$T204932 = -24						; size = 4
$T204931 = -20						; size = 4
_p$ = -16						; size = 4
__$EHRec$ = -12						; size = 12
___$ReturnUdt$ = 8					; size = 4
_orientation$ = 12					; size = 4
_sizePrimary$ = 16					; size = 4
?itemFixed@ETSLayoutMgr@@QAE?AVCPaneBase@1@W4layOrientation@1@H@Z PROC NEAR ; ETSLayoutMgr::itemFixed
; _this$ = ecx

; 275  : {

  00670	55		 push	 ebp
  00671	8b ec		 mov	 ebp, esp
  00673	6a ff		 push	 -1
  00675	68 00 00 00 00	 push	 __ehhandler$?itemFixed@ETSLayoutMgr@@QAE?AVCPaneBase@1@W4layOrientation@1@H@Z
  0067a	64 a1 00 00 00
	00		 mov	 eax, DWORD PTR fs:__except_list
  00680	50		 push	 eax
  00681	64 89 25 00 00
	00 00		 mov	 DWORD PTR fs:__except_list, esp
  00688	83 ec 18	 sub	 esp, 24			; 00000018H
  0068b	89 4d e0	 mov	 DWORD PTR _this$[ebp], ecx
  0068e	c7 45 e4 00 00
	00 00		 mov	 DWORD PTR $T204938[ebp], 0

; 276  : 	CPaneBase p = new PaneItem(paneNull, this, NORESIZE, (orientation==HORIZONTAL)?sizePrimary:0, (orientation==VERTICAL)?sizePrimary:0);

  00695	6a 7c		 push	 124			; 0000007cH
  00697	e8 00 00 00 00	 call	 ??2@YAPAXI@Z		; operator new
  0069c	83 c4 04	 add	 esp, 4
  0069f	89 45 e8	 mov	 DWORD PTR $T204932[ebp], eax
  006a2	c7 45 fc 01 00
	00 00		 mov	 DWORD PTR __$EHRec$[ebp+8], 1
  006a9	83 7d e8 00	 cmp	 DWORD PTR $T204932[ebp], 0
  006ad	74 39		 je	 SHORT $L204933
  006af	6a 00		 push	 0
  006b1	6a 00		 push	 0
  006b3	33 c0		 xor	 eax, eax
  006b5	83 7d 0c 01	 cmp	 DWORD PTR _orientation$[ebp], 1
  006b9	0f 95 c0	 setne	 al
  006bc	48		 dec	 eax
  006bd	23 45 10	 and	 eax, DWORD PTR _sizePrimary$[ebp]
  006c0	50		 push	 eax
  006c1	33 c9		 xor	 ecx, ecx
  006c3	83 7d 0c 00	 cmp	 DWORD PTR _orientation$[ebp], 0
  006c7	0f 95 c1	 setne	 cl
  006ca	49		 dec	 ecx
  006cb	23 4d 10	 and	 ecx, DWORD PTR _sizePrimary$[ebp]
  006ce	51		 push	 ecx
  006cf	6a 05		 push	 5
  006d1	8b 55 e0	 mov	 edx, DWORD PTR _this$[ebp]
  006d4	52		 push	 edx
  006d5	a1 00 00 00 00	 mov	 eax, DWORD PTR ?paneNull@ETSLayoutMgr@@2PAVCWnd@@A ; ETSLayoutMgr::paneNull
  006da	50		 push	 eax
  006db	8b 4d e8	 mov	 ecx, DWORD PTR $T204932[ebp]
  006de	e8 00 00 00 00	 call	 ??0PaneItem@ETSLayoutMgr@@IAE@PAVCWnd@@PAV1@W4layResizeMode@1@HHHH@Z ; ETSLayoutMgr::PaneItem::PaneItem
  006e3	89 45 dc	 mov	 DWORD PTR tv84[ebp], eax
  006e6	eb 07		 jmp	 SHORT $L204934
$L204933:
  006e8	c7 45 dc 00 00
	00 00		 mov	 DWORD PTR tv84[ebp], 0
$L204934:
  006ef	8b 4d dc	 mov	 ecx, DWORD PTR tv84[ebp]
  006f2	89 4d ec	 mov	 DWORD PTR $T204931[ebp], ecx
  006f5	c6 45 fc 00	 mov	 BYTE PTR __$EHRec$[ebp+8], 0
  006f9	8b 55 ec	 mov	 edx, DWORD PTR $T204931[ebp]
  006fc	52		 push	 edx
  006fd	8d 4d f0	 lea	 ecx, DWORD PTR _p$[ebp]
  00700	e8 00 00 00 00	 call	 ??0CPaneBase@ETSLayoutMgr@@QAE@PAVPaneBase@1@@Z ; ETSLayoutMgr::CPaneBase::CPaneBase
  00705	c7 45 fc 02 00
	00 00		 mov	 DWORD PTR __$EHRec$[ebp+8], 2

; 277  : 	return p;

  0070c	8d 45 f0	 lea	 eax, DWORD PTR _p$[ebp]
  0070f	50		 push	 eax
  00710	8b 4d 08	 mov	 ecx, DWORD PTR ___$ReturnUdt$[ebp]
  00713	e8 00 00 00 00	 call	 ??0CPaneBase@ETSLayoutMgr@@QAE@ABV01@@Z ; ETSLayoutMgr::CPaneBase::CPaneBase
  00718	8b 4d e4	 mov	 ecx, DWORD PTR $T204938[ebp]
  0071b	83 c9 01	 or	 ecx, 1
  0071e	89 4d e4	 mov	 DWORD PTR $T204938[ebp], ecx
  00721	c6 45 fc 00	 mov	 BYTE PTR __$EHRec$[ebp+8], 0
  00725	8d 4d f0	 lea	 ecx, DWORD PTR _p$[ebp]
  00728	e8 00 00 00 00	 call	 ??1CPaneBase@ETSLayoutMgr@@QAE@XZ ; ETSLayoutMgr::CPaneBase::~CPaneBase
  0072d	8b 45 08	 mov	 eax, DWORD PTR ___$ReturnUdt$[ebp]

; 278  : }

  00730	8b 4d f4	 mov	 ecx, DWORD PTR __$EHRec$[ebp]
  00733	64 89 0d 00 00
	00 00		 mov	 DWORD PTR fs:__except_list, ecx
  0073a	8b e5		 mov	 esp, ebp
  0073c	5d		 pop	 ebp
  0073d	c2 0c 00	 ret	 12			; 0000000cH
_TEXT	ENDS
text$x	SEGMENT
$L204935:
  000c9	8b 45 e8	 mov	 eax, DWORD PTR $T204932[ebp]
  000cc	50		 push	 eax
  000cd	e8 00 00 00 00	 call	 ??3@YAXPAX@Z		; operator delete
  000d2	59		 pop	 ecx
  000d3	c3		 ret	 0
$L204936:
  000d4	8d 4d f0	 lea	 ecx, DWORD PTR _p$[ebp]
  000d7	e9 00 00 00 00	 jmp	 ??1CPaneBase@ETSLayoutMgr@@QAE@XZ ; ETSLayoutMgr::CPaneBase::~CPaneBase
$L204937:
  000dc	8b 45 e4	 mov	 eax, DWORD PTR $T204938[ebp]
  000df	83 e0 01	 and	 eax, 1
  000e2	0f 84 0c 00 00
	00		 je	 $L204939
  000e8	83 65 e4 fe	 and	 DWORD PTR $T204938[ebp], -2 ; fffffffeH
  000ec	8b 4d 08	 mov	 ecx, DWORD PTR ___$ReturnUdt$[ebp]
  000ef	e9 00 00 00 00	 jmp	 ??1CPaneBase@ETSLayoutMgr@@QAE@XZ ; ETSLayoutMgr::CPaneBase::~CPaneBase
$L204939:
  000f4	c3		 ret	 0
__ehhandler$?itemFixed@ETSLayoutMgr@@QAE?AVCPaneBase@1@W4layOrientation@1@H@Z:
  000f5	b8 00 00 00 00	 mov	 eax, OFFSET FLAT:$T204941
  000fa	e9 00 00 00 00	 jmp	 ___CxxFrameHandler
text$x	ENDS
?itemFixed@ETSLayoutMgr@@QAE?AVCPaneBase@1@W4layOrientation@1@H@Z ENDP ; ETSLayoutMgr::itemFixed
PUBLIC	?itemGrowing@ETSLayoutMgr@@QAE?AVCPaneBase@1@W4layOrientation@1@@Z ; ETSLayoutMgr::itemGrowing
xdata$x	SEGMENT
$T204956 DD	0ffffffffH
	DD	FLAT:$L204949
$T204954 DD	019930520H
	DD	01H
	DD	FLAT:$T204956
	DD	2 DUP(00H)
	DD	2 DUP(00H)
; Function compile flags: /Odt
xdata$x	ENDS
_TEXT	SEGMENT
tv82 = -32						; size = 4
_this$ = -28						; size = 4
$T204951 = -24						; size = 4
$T204946 = -20						; size = 4
$T204945 = -16						; size = 4
__$EHRec$ = -12						; size = 12
___$ReturnUdt$ = 8					; size = 4
_orientation$ = 12					; size = 4
?itemGrowing@ETSLayoutMgr@@QAE?AVCPaneBase@1@W4layOrientation@1@@Z PROC NEAR ; ETSLayoutMgr::itemGrowing
; _this$ = ecx

; 281  : {

  00740	55		 push	 ebp
  00741	8b ec		 mov	 ebp, esp
  00743	6a ff		 push	 -1
  00745	68 00 00 00 00	 push	 __ehhandler$?itemGrowing@ETSLayoutMgr@@QAE?AVCPaneBase@1@W4layOrientation@1@@Z
  0074a	64 a1 00 00 00
	00		 mov	 eax, DWORD PTR fs:__except_list
  00750	50		 push	 eax
  00751	64 89 25 00 00
	00 00		 mov	 DWORD PTR fs:__except_list, esp
  00758	83 ec 14	 sub	 esp, 20			; 00000014H
  0075b	89 4d e4	 mov	 DWORD PTR _this$[ebp], ecx
  0075e	c7 45 e8 00 00
	00 00		 mov	 DWORD PTR $T204951[ebp], 0

; 282  : 	return new PaneItem(paneNull, this, (orientation==HORIZONTAL)?ABSOLUTE_VERT:ABSOLUTE_HORZ, 0, 0, -nDefaultBorder, -nDefaultBorder);

  00765	6a 7c		 push	 124			; 0000007cH
  00767	e8 00 00 00 00	 call	 ??2@YAPAXI@Z		; operator new
  0076c	83 c4 04	 add	 esp, 4
  0076f	89 45 ec	 mov	 DWORD PTR $T204946[ebp], eax
  00772	c7 45 fc 00 00
	00 00		 mov	 DWORD PTR __$EHRec$[ebp+8], 0
  00779	83 7d ec 00	 cmp	 DWORD PTR $T204946[ebp], 0
  0077d	74 2e		 je	 SHORT $L204947
  0077f	6a 00		 push	 0
  00781	6a 00		 push	 0
  00783	6a 00		 push	 0
  00785	6a 00		 push	 0
  00787	8b 45 0c	 mov	 eax, DWORD PTR _orientation$[ebp]
  0078a	f7 d8		 neg	 eax
  0078c	1b c0		 sbb	 eax, eax
  0078e	83 e0 fd	 and	 eax, -3			; fffffffdH
  00791	83 c0 04	 add	 eax, 4
  00794	50		 push	 eax
  00795	8b 4d e4	 mov	 ecx, DWORD PTR _this$[ebp]
  00798	51		 push	 ecx
  00799	8b 15 00 00 00
	00		 mov	 edx, DWORD PTR ?paneNull@ETSLayoutMgr@@2PAVCWnd@@A ; ETSLayoutMgr::paneNull
  0079f	52		 push	 edx
  007a0	8b 4d ec	 mov	 ecx, DWORD PTR $T204946[ebp]
  007a3	e8 00 00 00 00	 call	 ??0PaneItem@ETSLayoutMgr@@IAE@PAVCWnd@@PAV1@W4layResizeMode@1@HHHH@Z ; ETSLayoutMgr::PaneItem::PaneItem
  007a8	89 45 e0	 mov	 DWORD PTR tv82[ebp], eax
  007ab	eb 07		 jmp	 SHORT $L204948
$L204947:
  007ad	c7 45 e0 00 00
	00 00		 mov	 DWORD PTR tv82[ebp], 0
$L204948:
  007b4	8b 45 e0	 mov	 eax, DWORD PTR tv82[ebp]
  007b7	89 45 f0	 mov	 DWORD PTR $T204945[ebp], eax
  007ba	c7 45 fc ff ff
	ff ff		 mov	 DWORD PTR __$EHRec$[ebp+8], -1
  007c1	8b 4d f0	 mov	 ecx, DWORD PTR $T204945[ebp]
  007c4	51		 push	 ecx
  007c5	8b 4d 08	 mov	 ecx, DWORD PTR ___$ReturnUdt$[ebp]
  007c8	e8 00 00 00 00	 call	 ??0CPaneBase@ETSLayoutMgr@@QAE@PAVPaneBase@1@@Z ; ETSLayoutMgr::CPaneBase::CPaneBase
  007cd	8b 55 e8	 mov	 edx, DWORD PTR $T204951[ebp]
  007d0	83 ca 01	 or	 edx, 1
  007d3	89 55 e8	 mov	 DWORD PTR $T204951[ebp], edx
  007d6	8b 45 08	 mov	 eax, DWORD PTR ___$ReturnUdt$[ebp]

; 283  : }

  007d9	8b 4d f4	 mov	 ecx, DWORD PTR __$EHRec$[ebp]
  007dc	64 89 0d 00 00
	00 00		 mov	 DWORD PTR fs:__except_list, ecx
  007e3	8b e5		 mov	 esp, ebp
  007e5	5d		 pop	 ebp
  007e6	c2 08 00	 ret	 8
_TEXT	ENDS
text$x	SEGMENT
$L204949:
  000ff	8b 45 ec	 mov	 eax, DWORD PTR $T204946[ebp]
  00102	50		 push	 eax
  00103	e8 00 00 00 00	 call	 ??3@YAXPAX@Z		; operator delete
  00108	59		 pop	 ecx
  00109	c3		 ret	 0
__ehhandler$?itemGrowing@ETSLayoutMgr@@QAE?AVCPaneBase@1@W4layOrientation@1@@Z:
  0010a	b8 00 00 00 00	 mov	 eax, OFFSET FLAT:$T204954
  0010f	e9 00 00 00 00	 jmp	 ___CxxFrameHandler
text$x	ENDS
?itemGrowing@ETSLayoutMgr@@QAE?AVCPaneBase@1@W4layOrientation@1@@Z ENDP ; ETSLayoutMgr::itemGrowing
PUBLIC	?GetWindowRect@CWnd@@QBEXPAUtagRECT@@@Z		; CWnd::GetWindowRect
PUBLIC	??0CRect@@QAE@XZ				; CRect::CRect
PUBLIC	?itemSpaceBetween@ETSLayoutMgr@@QAE?AVCPaneBase@1@W4layOrientation@1@PAVCWnd@@1@Z ; ETSLayoutMgr::itemSpaceBetween
xdata$x	SEGMENT
$T204974 DD	0ffffffffH
	DD	FLAT:$L204966
	DD	0ffffffffH
	DD	FLAT:$L204970
$T204972 DD	019930520H
	DD	02H
	DD	FLAT:$T204974
	DD	2 DUP(00H)
	DD	2 DUP(00H)
; Function compile flags: /Odt
xdata$x	ENDS
_TEXT	SEGMENT
tv149 = -116						; size = 4
tv90 = -112						; size = 4
_this$ = -108						; size = 4
$T204968 = -104						; size = 4
$T204963 = -100						; size = 4
$T204962 = -96						; size = 4
$T204959 = -92						; size = 4
$T204958 = -88						; size = 4
_sizeY$200858 = -84					; size = 4
_rBot$200857 = -80					; size = 16
_rTop$200856 = -64					; size = 16
_rRight$200847 = -48					; size = 16
_sizeX$200848 = -32					; size = 4
_rLeft$200846 = -28					; size = 16
__$EHRec$ = -12						; size = 12
___$ReturnUdt$ = 8					; size = 4
_orientation$ = 12					; size = 4
_pWndFirst$ = 16					; size = 4
_pWndSecond$ = 20					; size = 4
?itemSpaceBetween@ETSLayoutMgr@@QAE?AVCPaneBase@1@W4layOrientation@1@PAVCWnd@@1@Z PROC NEAR ; ETSLayoutMgr::itemSpaceBetween
; _this$ = ecx

; 286  : {

  007f0	55		 push	 ebp
  007f1	8b ec		 mov	 ebp, esp
  007f3	6a ff		 push	 -1
  007f5	68 00 00 00 00	 push	 __ehhandler$?itemSpaceBetween@ETSLayoutMgr@@QAE?AVCPaneBase@1@W4layOrientation@1@PAVCWnd@@1@Z
  007fa	64 a1 00 00 00
	00		 mov	 eax, DWORD PTR fs:__except_list
  00800	50		 push	 eax
  00801	64 89 25 00 00
	00 00		 mov	 DWORD PTR fs:__except_list, esp
  00808	83 ec 68	 sub	 esp, 104		; 00000068H
  0080b	89 4d 94	 mov	 DWORD PTR _this$[ebp], ecx
  0080e	c7 45 98 00 00
	00 00		 mov	 DWORD PTR $T204968[ebp], 0

; 287  : 	if( orientation == HORIZONTAL ) {

  00815	83 7d 0c 00	 cmp	 DWORD PTR _orientation$[ebp], 0
  00819	0f 85 b3 00 00
	00		 jne	 $L200845

; 288  : 		// I'm interested in horizontal spacing
; 289  : 
; 290  : 		CRect rLeft, rRight;

  0081f	8d 4d e4	 lea	 ecx, DWORD PTR _rLeft$200846[ebp]
  00822	e8 00 00 00 00	 call	 ??0CRect@@QAE@XZ	; CRect::CRect
  00827	8d 4d d0	 lea	 ecx, DWORD PTR _rRight$200847[ebp]
  0082a	e8 00 00 00 00	 call	 ??0CRect@@QAE@XZ	; CRect::CRect

; 291  : 		pWndFirst->GetWindowRect(&rLeft);

  0082f	8d 45 e4	 lea	 eax, DWORD PTR _rLeft$200846[ebp]
  00832	50		 push	 eax
  00833	8b 4d 10	 mov	 ecx, DWORD PTR _pWndFirst$[ebp]
  00836	e8 00 00 00 00	 call	 ?GetWindowRect@CWnd@@QBEXPAUtagRECT@@@Z ; CWnd::GetWindowRect

; 292  : 		pWndSecond->GetWindowRect(&rRight);

  0083b	8d 4d d0	 lea	 ecx, DWORD PTR _rRight$200847[ebp]
  0083e	51		 push	 ecx
  0083f	8b 4d 14	 mov	 ecx, DWORD PTR _pWndSecond$[ebp]
  00842	e8 00 00 00 00	 call	 ?GetWindowRect@CWnd@@QBEXPAUtagRECT@@@Z ; CWnd::GetWindowRect

; 293  : 
; 294  : 		int sizeX = rRight.left - rLeft.right;

  00847	8b 55 d0	 mov	 edx, DWORD PTR _rRight$200847[ebp]
  0084a	2b 55 ec	 sub	 edx, DWORD PTR _rLeft$200846[ebp+8]
  0084d	89 55 e0	 mov	 DWORD PTR _sizeX$200848[ebp], edx

; 295  : 	
; 296  : 		if( sizeX < 0 ) {

  00850	79 0b		 jns	 SHORT $L200849

; 297  : 			// compare top to top
; 298  : 			sizeX = rRight.left - rLeft.left;

  00852	8b 45 d0	 mov	 eax, DWORD PTR _rRight$200847[ebp]
  00855	2b 45 e4	 sub	 eax, DWORD PTR _rLeft$200846[ebp]
  00858	89 45 e0	 mov	 DWORD PTR _sizeX$200848[ebp], eax

; 299  : 		}
; 300  : 		else {

  0085b	eb 06		 jmp	 SHORT $L200850
$L200849:

; 301  : 			sizeX -= 2*nDefaultBorder;

  0085d	8b 4d e0	 mov	 ecx, DWORD PTR _sizeX$200848[ebp]
  00860	89 4d e0	 mov	 DWORD PTR _sizeX$200848[ebp], ecx
$L200850:

; 302  : 		}
; 303  : 
; 304  : 		return new PaneItem(paneNull, this, NORESIZE, sizeX, 0);

  00863	6a 7c		 push	 124			; 0000007cH
  00865	e8 00 00 00 00	 call	 ??2@YAPAXI@Z		; operator new
  0086a	83 c4 04	 add	 esp, 4
  0086d	89 45 a4	 mov	 DWORD PTR $T204959[ebp], eax
  00870	c7 45 fc 00 00
	00 00		 mov	 DWORD PTR __$EHRec$[ebp+8], 0
  00877	83 7d a4 00	 cmp	 DWORD PTR $T204959[ebp], 0
  0087b	74 24		 je	 SHORT $L204960
  0087d	6a 00		 push	 0
  0087f	6a 00		 push	 0
  00881	6a 00		 push	 0
  00883	8b 55 e0	 mov	 edx, DWORD PTR _sizeX$200848[ebp]
  00886	52		 push	 edx
  00887	6a 05		 push	 5
  00889	8b 45 94	 mov	 eax, DWORD PTR _this$[ebp]
  0088c	50		 push	 eax
  0088d	8b 0d 00 00 00
	00		 mov	 ecx, DWORD PTR ?paneNull@ETSLayoutMgr@@2PAVCWnd@@A ; ETSLayoutMgr::paneNull
  00893	51		 push	 ecx
  00894	8b 4d a4	 mov	 ecx, DWORD PTR $T204959[ebp]
  00897	e8 00 00 00 00	 call	 ??0PaneItem@ETSLayoutMgr@@IAE@PAVCWnd@@PAV1@W4layResizeMode@1@HHHH@Z ; ETSLayoutMgr::PaneItem::PaneItem
  0089c	89 45 90	 mov	 DWORD PTR tv90[ebp], eax
  0089f	eb 07		 jmp	 SHORT $L204961
$L204960:
  008a1	c7 45 90 00 00
	00 00		 mov	 DWORD PTR tv90[ebp], 0
$L204961:
  008a8	8b 55 90	 mov	 edx, DWORD PTR tv90[ebp]
  008ab	89 55 a8	 mov	 DWORD PTR $T204958[ebp], edx
  008ae	c7 45 fc ff ff
	ff ff		 mov	 DWORD PTR __$EHRec$[ebp+8], -1
  008b5	8b 45 a8	 mov	 eax, DWORD PTR $T204958[ebp]
  008b8	50		 push	 eax
  008b9	8b 4d 08	 mov	 ecx, DWORD PTR ___$ReturnUdt$[ebp]
  008bc	e8 00 00 00 00	 call	 ??0CPaneBase@ETSLayoutMgr@@QAE@PAVPaneBase@1@@Z ; ETSLayoutMgr::CPaneBase::CPaneBase
  008c1	8b 4d 98	 mov	 ecx, DWORD PTR $T204968[ebp]
  008c4	83 c9 01	 or	 ecx, 1
  008c7	89 4d 98	 mov	 DWORD PTR $T204968[ebp], ecx
  008ca	8b 45 08	 mov	 eax, DWORD PTR ___$ReturnUdt$[ebp]
  008cd	e9 b4 00 00 00	 jmp	 $L200844
$L200845:

; 305  : 	}
; 306  : 	else {
; 307  : 		// I'm interested in vertical spacing
; 308  : 		CRect rTop, rBot;

  008d2	8d 4d c0	 lea	 ecx, DWORD PTR _rTop$200856[ebp]
  008d5	e8 00 00 00 00	 call	 ??0CRect@@QAE@XZ	; CRect::CRect
  008da	8d 4d b0	 lea	 ecx, DWORD PTR _rBot$200857[ebp]
  008dd	e8 00 00 00 00	 call	 ??0CRect@@QAE@XZ	; CRect::CRect

; 309  : 		pWndFirst->GetWindowRect(&rTop);

  008e2	8d 55 c0	 lea	 edx, DWORD PTR _rTop$200856[ebp]
  008e5	52		 push	 edx
  008e6	8b 4d 10	 mov	 ecx, DWORD PTR _pWndFirst$[ebp]
  008e9	e8 00 00 00 00	 call	 ?GetWindowRect@CWnd@@QBEXPAUtagRECT@@@Z ; CWnd::GetWindowRect

; 310  : 		pWndSecond->GetWindowRect(&rBot);

  008ee	8d 45 b0	 lea	 eax, DWORD PTR _rBot$200857[ebp]
  008f1	50		 push	 eax
  008f2	8b 4d 14	 mov	 ecx, DWORD PTR _pWndSecond$[ebp]
  008f5	e8 00 00 00 00	 call	 ?GetWindowRect@CWnd@@QBEXPAUtagRECT@@@Z ; CWnd::GetWindowRect

; 311  : 
; 312  : 		int sizeY = rBot.top - rTop.bottom;

  008fa	8b 4d b4	 mov	 ecx, DWORD PTR _rBot$200857[ebp+4]
  008fd	2b 4d cc	 sub	 ecx, DWORD PTR _rTop$200856[ebp+12]
  00900	89 4d ac	 mov	 DWORD PTR _sizeY$200858[ebp], ecx

; 313  : 
; 314  : 		if( sizeY < 0 ) {

  00903	79 11		 jns	 SHORT $L200859

; 315  : 			// compare top to top
; 316  : 			sizeY = sizeY = rBot.top - rTop.top;

  00905	8b 55 b4	 mov	 edx, DWORD PTR _rBot$200857[ebp+4]
  00908	2b 55 c4	 sub	 edx, DWORD PTR _rTop$200856[ebp+4]
  0090b	89 55 ac	 mov	 DWORD PTR _sizeY$200858[ebp], edx
  0090e	8b 45 ac	 mov	 eax, DWORD PTR _sizeY$200858[ebp]
  00911	89 45 ac	 mov	 DWORD PTR _sizeY$200858[ebp], eax

; 317  : 		}
; 318  : 		else {

  00914	eb 06		 jmp	 SHORT $L200860
$L200859:

; 319  : 			sizeY -= 2*nDefaultBorder;

  00916	8b 4d ac	 mov	 ecx, DWORD PTR _sizeY$200858[ebp]
  00919	89 4d ac	 mov	 DWORD PTR _sizeY$200858[ebp], ecx
$L200860:

; 320  : 		}
; 321  : 
; 322  : 		return new PaneItem(paneNull, this, NORESIZE, 0, sizeY);

  0091c	6a 7c		 push	 124			; 0000007cH
  0091e	e8 00 00 00 00	 call	 ??2@YAPAXI@Z		; operator new
  00923	83 c4 04	 add	 esp, 4
  00926	89 45 9c	 mov	 DWORD PTR $T204963[ebp], eax
  00929	c7 45 fc 01 00
	00 00		 mov	 DWORD PTR __$EHRec$[ebp+8], 1
  00930	83 7d 9c 00	 cmp	 DWORD PTR $T204963[ebp], 0
  00934	74 24		 je	 SHORT $L204964
  00936	6a 00		 push	 0
  00938	6a 00		 push	 0
  0093a	8b 55 ac	 mov	 edx, DWORD PTR _sizeY$200858[ebp]
  0093d	52		 push	 edx
  0093e	6a 00		 push	 0
  00940	6a 05		 push	 5
  00942	8b 45 94	 mov	 eax, DWORD PTR _this$[ebp]
  00945	50		 push	 eax
  00946	8b 0d 00 00 00
	00		 mov	 ecx, DWORD PTR ?paneNull@ETSLayoutMgr@@2PAVCWnd@@A ; ETSLayoutMgr::paneNull
  0094c	51		 push	 ecx
  0094d	8b 4d 9c	 mov	 ecx, DWORD PTR $T204963[ebp]
  00950	e8 00 00 00 00	 call	 ??0PaneItem@ETSLayoutMgr@@IAE@PAVCWnd@@PAV1@W4layResizeMode@1@HHHH@Z ; ETSLayoutMgr::PaneItem::PaneItem
  00955	89 45 8c	 mov	 DWORD PTR tv149[ebp], eax
  00958	eb 07		 jmp	 SHORT $L204965
$L204964:
  0095a	c7 45 8c 00 00
	00 00		 mov	 DWORD PTR tv149[ebp], 0
$L204965:
  00961	8b 55 8c	 mov	 edx, DWORD PTR tv149[ebp]
  00964	89 55 a0	 mov	 DWORD PTR $T204962[ebp], edx
  00967	c7 45 fc ff ff
	ff ff		 mov	 DWORD PTR __$EHRec$[ebp+8], -1
  0096e	8b 45 a0	 mov	 eax, DWORD PTR $T204962[ebp]
  00971	50		 push	 eax
  00972	8b 4d 08	 mov	 ecx, DWORD PTR ___$ReturnUdt$[ebp]
  00975	e8 00 00 00 00	 call	 ??0CPaneBase@ETSLayoutMgr@@QAE@PAVPaneBase@1@@Z ; ETSLayoutMgr::CPaneBase::CPaneBase
  0097a	8b 4d 98	 mov	 ecx, DWORD PTR $T204968[ebp]
  0097d	83 c9 01	 or	 ecx, 1
  00980	89 4d 98	 mov	 DWORD PTR $T204968[ebp], ecx
  00983	8b 45 08	 mov	 eax, DWORD PTR ___$ReturnUdt$[ebp]
$L200844:

; 323  : 	}
; 324  : }

  00986	8b 4d f4	 mov	 ecx, DWORD PTR __$EHRec$[ebp]
  00989	64 89 0d 00 00
	00 00		 mov	 DWORD PTR fs:__except_list, ecx
  00990	8b e5		 mov	 esp, ebp
  00992	5d		 pop	 ebp
  00993	c2 10 00	 ret	 16			; 00000010H
_TEXT	ENDS
text$x	SEGMENT
$L204966:
  00114	8b 45 a4	 mov	 eax, DWORD PTR $T204959[ebp]
  00117	50		 push	 eax
  00118	e8 00 00 00 00	 call	 ??3@YAXPAX@Z		; operator delete
  0011d	59		 pop	 ecx
  0011e	c3		 ret	 0
$L204970:
  0011f	8b 45 9c	 mov	 eax, DWORD PTR $T204963[ebp]
  00122	50		 push	 eax
  00123	e8 00 00 00 00	 call	 ??3@YAXPAX@Z		; operator delete
  00128	59		 pop	 ecx
  00129	c3		 ret	 0
__ehhandler$?itemSpaceBetween@ETSLayoutMgr@@QAE?AVCPaneBase@1@W4layOrientation@1@PAVCWnd@@1@Z:
  0012a	b8 00 00 00 00	 mov	 eax, OFFSET FLAT:$T204972
  0012f	e9 00 00 00 00	 jmp	 ___CxxFrameHandler
text$x	ENDS
?itemSpaceBetween@ETSLayoutMgr@@QAE?AVCPaneBase@1@W4layOrientation@1@PAVCWnd@@1@Z ENDP ; ETSLayoutMgr::itemSpaceBetween
PUBLIC	?GetWnd@ETSLayoutMgr@@QAEPAVCWnd@@XZ		; ETSLayoutMgr::GetWnd
PUBLIC	?itemSpaceBetween@ETSLayoutMgr@@QAE?AVCPaneBase@1@W4layOrientation@1@II@Z ; ETSLayoutMgr::itemSpaceBetween
EXTRN	?GetDlgItem@CWnd@@QBEPAV1@H@Z:NEAR		; CWnd::GetDlgItem
; Function compile flags: /Odt
_TEXT	SEGMENT
_this$ = -16						; size = 4
$T204977 = -12						; size = 4
_pFirst$ = -8						; size = 4
_pSecond$ = -4						; size = 4
___$ReturnUdt$ = 8					; size = 4
_orientation$ = 12					; size = 4
_nIDFirst$ = 16						; size = 4
_nIDSecond$ = 20					; size = 4
?itemSpaceBetween@ETSLayoutMgr@@QAE?AVCPaneBase@1@W4layOrientation@1@II@Z PROC NEAR ; ETSLayoutMgr::itemSpaceBetween
; _this$ = ecx

; 328  : {

  009a0	55		 push	 ebp
  009a1	8b ec		 mov	 ebp, esp
  009a3	83 ec 10	 sub	 esp, 16			; 00000010H
  009a6	89 4d f0	 mov	 DWORD PTR _this$[ebp], ecx
  009a9	c7 45 f4 00 00
	00 00		 mov	 DWORD PTR $T204977[ebp], 0

; 329  : 	CWnd *pFirst	= GetWnd()->GetDlgItem(nIDFirst);

  009b0	8b 45 10	 mov	 eax, DWORD PTR _nIDFirst$[ebp]
  009b3	50		 push	 eax
  009b4	8b 4d f0	 mov	 ecx, DWORD PTR _this$[ebp]
  009b7	e8 00 00 00 00	 call	 ?GetWnd@ETSLayoutMgr@@QAEPAVCWnd@@XZ ; ETSLayoutMgr::GetWnd
  009bc	8b c8		 mov	 ecx, eax
  009be	e8 00 00 00 00	 call	 ?GetDlgItem@CWnd@@QBEPAV1@H@Z ; CWnd::GetDlgItem
  009c3	89 45 f8	 mov	 DWORD PTR _pFirst$[ebp], eax

; 330  : 	CWnd *pSecond	= GetWnd()->GetDlgItem(nIDSecond);

  009c6	8b 4d 14	 mov	 ecx, DWORD PTR _nIDSecond$[ebp]
  009c9	51		 push	 ecx
  009ca	8b 4d f0	 mov	 ecx, DWORD PTR _this$[ebp]
  009cd	e8 00 00 00 00	 call	 ?GetWnd@ETSLayoutMgr@@QAEPAVCWnd@@XZ ; ETSLayoutMgr::GetWnd
  009d2	8b c8		 mov	 ecx, eax
  009d4	e8 00 00 00 00	 call	 ?GetDlgItem@CWnd@@QBEPAV1@H@Z ; CWnd::GetDlgItem
  009d9	89 45 fc	 mov	 DWORD PTR _pSecond$[ebp], eax

; 331  : 
; 332  : 	ASSERT( pFirst && pSecond );
; 333  : 
; 334  : 	return itemSpaceBetween( orientation, pFirst, pSecond );

  009dc	8b 55 fc	 mov	 edx, DWORD PTR _pSecond$[ebp]
  009df	52		 push	 edx
  009e0	8b 45 f8	 mov	 eax, DWORD PTR _pFirst$[ebp]
  009e3	50		 push	 eax
  009e4	8b 4d 0c	 mov	 ecx, DWORD PTR _orientation$[ebp]
  009e7	51		 push	 ecx
  009e8	8b 55 08	 mov	 edx, DWORD PTR ___$ReturnUdt$[ebp]
  009eb	52		 push	 edx
  009ec	8b 4d f0	 mov	 ecx, DWORD PTR _this$[ebp]
  009ef	e8 00 00 00 00	 call	 ?itemSpaceBetween@ETSLayoutMgr@@QAE?AVCPaneBase@1@W4layOrientation@1@PAVCWnd@@1@Z ; ETSLayoutMgr::itemSpaceBetween
  009f4	8b 45 f4	 mov	 eax, DWORD PTR $T204977[ebp]
  009f7	83 c8 01	 or	 eax, 1
  009fa	89 45 f4	 mov	 DWORD PTR $T204977[ebp], eax
  009fd	8b 45 08	 mov	 eax, DWORD PTR ___$ReturnUdt$[ebp]

; 335  : }

  00a00	8b e5		 mov	 esp, ebp
  00a02	5d		 pop	 ebp
  00a03	c2 10 00	 ret	 16			; 00000010H
?itemSpaceBetween@ETSLayoutMgr@@QAE?AVCPaneBase@1@W4layOrientation@1@II@Z ENDP ; ETSLayoutMgr::itemSpaceBetween
; Function compile flags: /Odt
; File d:\boxgit\playbox\playbox\dev\prj\playbox\src\layoutmgr\etslayout.h
_TEXT	ENDS
;	COMDAT ?GetWnd@ETSLayoutMgr@@QAEPAVCWnd@@XZ
_TEXT	SEGMENT
_this$ = -4						; size = 4
?GetWnd@ETSLayoutMgr@@QAEPAVCWnd@@XZ PROC NEAR		; ETSLayoutMgr::GetWnd, COMDAT
; _this$ = ecx

; 807  : 	CWnd*	GetWnd()		{ return m_pWnd; };

  00000	55		 push	 ebp
  00001	8b ec		 mov	 ebp, esp
  00003	51		 push	 ecx
  00004	89 4d fc	 mov	 DWORD PTR _this$[ebp], ecx
  00007	8b 45 fc	 mov	 eax, DWORD PTR _this$[ebp]
  0000a	8b 40 30	 mov	 eax, DWORD PTR [eax+48]
  0000d	8b e5		 mov	 esp, ebp
  0000f	5d		 pop	 ebp
  00010	c3		 ret	 0
?GetWnd@ETSLayoutMgr@@QAEPAVCWnd@@XZ ENDP		; ETSLayoutMgr::GetWnd
_TEXT	ENDS
PUBLIC	?itemSpaceLike@ETSLayoutMgr@@QAE?AVCPaneBase@1@W4layOrientation@1@PAVCWnd@@@Z ; ETSLayoutMgr::itemSpaceLike
xdata$x	SEGMENT
$T204998 DD	0ffffffffH
	DD	FLAT:$L204990
	DD	0ffffffffH
	DD	FLAT:$L204994
$T204996 DD	019930520H
	DD	02H
	DD	FLAT:$T204998
	DD	2 DUP(00H)
	DD	2 DUP(00H)
; Function compile flags: /Odt
; File d:\boxgit\playbox\playbox\dev\prj\playbox\src\layoutmgr\etslayout.cpp
xdata$x	ENDS
_TEXT	SEGMENT
tv138 = -60						; size = 4
tv86 = -56						; size = 4
_this$ = -52						; size = 4
$T204992 = -48						; size = 4
$T204987 = -44						; size = 4
$T204986 = -40						; size = 4
$T204983 = -36						; size = 4
$T204982 = -32						; size = 4
_rRect$ = -28						; size = 16
__$EHRec$ = -12						; size = 12
___$ReturnUdt$ = 8					; size = 4
_orientation$ = 12					; size = 4
_pWnd$ = 16						; size = 4
?itemSpaceLike@ETSLayoutMgr@@QAE?AVCPaneBase@1@W4layOrientation@1@PAVCWnd@@@Z PROC NEAR ; ETSLayoutMgr::itemSpaceLike
; _this$ = ecx

; 339  : {

  00a10	55		 push	 ebp
  00a11	8b ec		 mov	 ebp, esp
  00a13	6a ff		 push	 -1
  00a15	68 00 00 00 00	 push	 __ehhandler$?itemSpaceLike@ETSLayoutMgr@@QAE?AVCPaneBase@1@W4layOrientation@1@PAVCWnd@@@Z
  00a1a	64 a1 00 00 00
	00		 mov	 eax, DWORD PTR fs:__except_list
  00a20	50		 push	 eax
  00a21	64 89 25 00 00
	00 00		 mov	 DWORD PTR fs:__except_list, esp
  00a28	83 ec 30	 sub	 esp, 48			; 00000030H
  00a2b	89 4d cc	 mov	 DWORD PTR _this$[ebp], ecx
  00a2e	c7 45 d0 00 00
	00 00		 mov	 DWORD PTR $T204992[ebp], 0

; 340  : 	CRect rRect;

  00a35	8d 4d e4	 lea	 ecx, DWORD PTR _rRect$[ebp]
  00a38	e8 00 00 00 00	 call	 ??0CRect@@QAE@XZ	; CRect::CRect

; 341  : 	pWnd->GetWindowRect(&rRect);

  00a3d	8d 45 e4	 lea	 eax, DWORD PTR _rRect$[ebp]
  00a40	50		 push	 eax
  00a41	8b 4d 10	 mov	 ecx, DWORD PTR _pWnd$[ebp]
  00a44	e8 00 00 00 00	 call	 ?GetWindowRect@CWnd@@QBEXPAUtagRECT@@@Z ; CWnd::GetWindowRect

; 342  : 
; 343  : 	if( orientation == HORIZONTAL ) {

  00a49	83 7d 0c 00	 cmp	 DWORD PTR _orientation$[ebp], 0
  00a4d	75 71		 jne	 SHORT $L200883

; 344  : 		// I'm interested in horizontal spacing
; 345  : 		return new PaneItem(paneNull, this, NORESIZE, rRect.Width(), 0);

  00a4f	6a 7c		 push	 124			; 0000007cH
  00a51	e8 00 00 00 00	 call	 ??2@YAPAXI@Z		; operator new
  00a56	83 c4 04	 add	 esp, 4
  00a59	89 45 dc	 mov	 DWORD PTR $T204983[ebp], eax
  00a5c	c7 45 fc 00 00
	00 00		 mov	 DWORD PTR __$EHRec$[ebp+8], 0
  00a63	83 7d dc 00	 cmp	 DWORD PTR $T204983[ebp], 0
  00a67	74 29		 je	 SHORT $L204984
  00a69	6a 00		 push	 0
  00a6b	6a 00		 push	 0
  00a6d	6a 00		 push	 0
  00a6f	8d 4d e4	 lea	 ecx, DWORD PTR _rRect$[ebp]
  00a72	e8 00 00 00 00	 call	 ?Width@CRect@@QBEHXZ	; CRect::Width
  00a77	50		 push	 eax
  00a78	6a 05		 push	 5
  00a7a	8b 4d cc	 mov	 ecx, DWORD PTR _this$[ebp]
  00a7d	51		 push	 ecx
  00a7e	8b 15 00 00 00
	00		 mov	 edx, DWORD PTR ?paneNull@ETSLayoutMgr@@2PAVCWnd@@A ; ETSLayoutMgr::paneNull
  00a84	52		 push	 edx
  00a85	8b 4d dc	 mov	 ecx, DWORD PTR $T204983[ebp]
  00a88	e8 00 00 00 00	 call	 ??0PaneItem@ETSLayoutMgr@@IAE@PAVCWnd@@PAV1@W4layResizeMode@1@HHHH@Z ; ETSLayoutMgr::PaneItem::PaneItem
  00a8d	89 45 c8	 mov	 DWORD PTR tv86[ebp], eax
  00a90	eb 07		 jmp	 SHORT $L204985
$L204984:
  00a92	c7 45 c8 00 00
	00 00		 mov	 DWORD PTR tv86[ebp], 0
$L204985:
  00a99	8b 45 c8	 mov	 eax, DWORD PTR tv86[ebp]
  00a9c	89 45 e0	 mov	 DWORD PTR $T204982[ebp], eax
  00a9f	c7 45 fc ff ff
	ff ff		 mov	 DWORD PTR __$EHRec$[ebp+8], -1
  00aa6	8b 4d e0	 mov	 ecx, DWORD PTR $T204982[ebp]
  00aa9	51		 push	 ecx
  00aaa	8b 4d 08	 mov	 ecx, DWORD PTR ___$ReturnUdt$[ebp]
  00aad	e8 00 00 00 00	 call	 ??0CPaneBase@ETSLayoutMgr@@QAE@PAVPaneBase@1@@Z ; ETSLayoutMgr::CPaneBase::CPaneBase
  00ab2	8b 55 d0	 mov	 edx, DWORD PTR $T204992[ebp]
  00ab5	83 ca 01	 or	 edx, 1
  00ab8	89 55 d0	 mov	 DWORD PTR $T204992[ebp], edx
  00abb	8b 45 08	 mov	 eax, DWORD PTR ___$ReturnUdt$[ebp]
  00abe	eb 6f		 jmp	 SHORT $L200881
$L200883:

; 346  : 	}
; 347  : 	else {
; 348  : 		// I'm interested in vertical spacing
; 349  : 		return new PaneItem(paneNull, this, NORESIZE, 0, rRect.Height() );

  00ac0	6a 7c		 push	 124			; 0000007cH
  00ac2	e8 00 00 00 00	 call	 ??2@YAPAXI@Z		; operator new
  00ac7	83 c4 04	 add	 esp, 4
  00aca	89 45 d4	 mov	 DWORD PTR $T204987[ebp], eax
  00acd	c7 45 fc 01 00
	00 00		 mov	 DWORD PTR __$EHRec$[ebp+8], 1
  00ad4	83 7d d4 00	 cmp	 DWORD PTR $T204987[ebp], 0
  00ad8	74 29		 je	 SHORT $L204988
  00ada	6a 00		 push	 0
  00adc	6a 00		 push	 0
  00ade	8d 4d e4	 lea	 ecx, DWORD PTR _rRect$[ebp]
  00ae1	e8 00 00 00 00	 call	 ?Height@CRect@@QBEHXZ	; CRect::Height
  00ae6	50		 push	 eax
  00ae7	6a 00		 push	 0
  00ae9	6a 05		 push	 5
  00aeb	8b 45 cc	 mov	 eax, DWORD PTR _this$[ebp]
  00aee	50		 push	 eax
  00aef	8b 0d 00 00 00
	00		 mov	 ecx, DWORD PTR ?paneNull@ETSLayoutMgr@@2PAVCWnd@@A ; ETSLayoutMgr::paneNull
  00af5	51		 push	 ecx
  00af6	8b 4d d4	 mov	 ecx, DWORD PTR $T204987[ebp]
  00af9	e8 00 00 00 00	 call	 ??0PaneItem@ETSLayoutMgr@@IAE@PAVCWnd@@PAV1@W4layResizeMode@1@HHHH@Z ; ETSLayoutMgr::PaneItem::PaneItem
  00afe	89 45 c4	 mov	 DWORD PTR tv138[ebp], eax
  00b01	eb 07		 jmp	 SHORT $L204989
$L204988:
  00b03	c7 45 c4 00 00
	00 00		 mov	 DWORD PTR tv138[ebp], 0
$L204989:
  00b0a	8b 55 c4	 mov	 edx, DWORD PTR tv138[ebp]
  00b0d	89 55 d8	 mov	 DWORD PTR $T204986[ebp], edx
  00b10	c7 45 fc ff ff
	ff ff		 mov	 DWORD PTR __$EHRec$[ebp+8], -1
  00b17	8b 45 d8	 mov	 eax, DWORD PTR $T204986[ebp]
  00b1a	50		 push	 eax
  00b1b	8b 4d 08	 mov	 ecx, DWORD PTR ___$ReturnUdt$[ebp]
  00b1e	e8 00 00 00 00	 call	 ??0CPaneBase@ETSLayoutMgr@@QAE@PAVPaneBase@1@@Z ; ETSLayoutMgr::CPaneBase::CPaneBase
  00b23	8b 4d d0	 mov	 ecx, DWORD PTR $T204992[ebp]
  00b26	83 c9 01	 or	 ecx, 1
  00b29	89 4d d0	 mov	 DWORD PTR $T204992[ebp], ecx
  00b2c	8b 45 08	 mov	 eax, DWORD PTR ___$ReturnUdt$[ebp]
$L200881:

; 350  : 	}
; 351  : 
; 352  : }

  00b2f	8b 4d f4	 mov	 ecx, DWORD PTR __$EHRec$[ebp]
  00b32	64 89 0d 00 00
	00 00		 mov	 DWORD PTR fs:__except_list, ecx
  00b39	8b e5		 mov	 esp, ebp
  00b3b	5d		 pop	 ebp
  00b3c	c2 0c 00	 ret	 12			; 0000000cH
_TEXT	ENDS
text$x	SEGMENT
$L204990:
  00134	8b 45 dc	 mov	 eax, DWORD PTR $T204983[ebp]
  00137	50		 push	 eax
  00138	e8 00 00 00 00	 call	 ??3@YAXPAX@Z		; operator delete
  0013d	59		 pop	 ecx
  0013e	c3		 ret	 0
$L204994:
  0013f	8b 45 d4	 mov	 eax, DWORD PTR $T204987[ebp]
  00142	50		 push	 eax
  00143	e8 00 00 00 00	 call	 ??3@YAXPAX@Z		; operator delete
  00148	59		 pop	 ecx
  00149	c3		 ret	 0
__ehhandler$?itemSpaceLike@ETSLayoutMgr@@QAE?AVCPaneBase@1@W4layOrientation@1@PAVCWnd@@@Z:
  0014a	b8 00 00 00 00	 mov	 eax, OFFSET FLAT:$T204996
  0014f	e9 00 00 00 00	 jmp	 ___CxxFrameHandler
text$x	ENDS
?itemSpaceLike@ETSLayoutMgr@@QAE?AVCPaneBase@1@W4layOrientation@1@PAVCWnd@@@Z ENDP ; ETSLayoutMgr::itemSpaceLike
PUBLIC	?itemSpaceLike@ETSLayoutMgr@@QAE?AVCPaneBase@1@W4layOrientation@1@I@Z ; ETSLayoutMgr::itemSpaceLike
; Function compile flags: /Odt
_TEXT	SEGMENT
_this$ = -12						; size = 4
$T205001 = -8						; size = 4
_pWnd$ = -4						; size = 4
___$ReturnUdt$ = 8					; size = 4
_orientation$ = 12					; size = 4
_nID$ = 16						; size = 4
?itemSpaceLike@ETSLayoutMgr@@QAE?AVCPaneBase@1@W4layOrientation@1@I@Z PROC NEAR ; ETSLayoutMgr::itemSpaceLike
; _this$ = ecx

; 356  : {

  00b40	55		 push	 ebp
  00b41	8b ec		 mov	 ebp, esp
  00b43	83 ec 0c	 sub	 esp, 12			; 0000000cH
  00b46	89 4d f4	 mov	 DWORD PTR _this$[ebp], ecx
  00b49	c7 45 f8 00 00
	00 00		 mov	 DWORD PTR $T205001[ebp], 0

; 357  : 	CWnd *pWnd	= GetWnd()->GetDlgItem(nID);

  00b50	8b 45 10	 mov	 eax, DWORD PTR _nID$[ebp]
  00b53	50		 push	 eax
  00b54	8b 4d f4	 mov	 ecx, DWORD PTR _this$[ebp]
  00b57	e8 00 00 00 00	 call	 ?GetWnd@ETSLayoutMgr@@QAEPAVCWnd@@XZ ; ETSLayoutMgr::GetWnd
  00b5c	8b c8		 mov	 ecx, eax
  00b5e	e8 00 00 00 00	 call	 ?GetDlgItem@CWnd@@QBEPAV1@H@Z ; CWnd::GetDlgItem
  00b63	89 45 fc	 mov	 DWORD PTR _pWnd$[ebp], eax

; 358  : 	ASSERT( pWnd );
; 359  : 
; 360  : 	return itemSpaceLike( orientation, pWnd );

  00b66	8b 4d fc	 mov	 ecx, DWORD PTR _pWnd$[ebp]
  00b69	51		 push	 ecx
  00b6a	8b 55 0c	 mov	 edx, DWORD PTR _orientation$[ebp]
  00b6d	52		 push	 edx
  00b6e	8b 45 08	 mov	 eax, DWORD PTR ___$ReturnUdt$[ebp]
  00b71	50		 push	 eax
  00b72	8b 4d f4	 mov	 ecx, DWORD PTR _this$[ebp]
  00b75	e8 00 00 00 00	 call	 ?itemSpaceLike@ETSLayoutMgr@@QAE?AVCPaneBase@1@W4layOrientation@1@PAVCWnd@@@Z ; ETSLayoutMgr::itemSpaceLike
  00b7a	8b 4d f8	 mov	 ecx, DWORD PTR $T205001[ebp]
  00b7d	83 c9 01	 or	 ecx, 1
  00b80	89 4d f8	 mov	 DWORD PTR $T205001[ebp], ecx
  00b83	8b 45 08	 mov	 eax, DWORD PTR ___$ReturnUdt$[ebp]

; 361  : }

  00b86	8b e5		 mov	 esp, ebp
  00b88	5d		 pop	 ebp
  00b89	c2 0c 00	 ret	 12			; 0000000cH
?itemSpaceLike@ETSLayoutMgr@@QAE?AVCPaneBase@1@W4layOrientation@1@I@Z ENDP ; ETSLayoutMgr::itemSpaceLike
_TEXT	ENDS
PUBLIC	??_R0?AVETSLayoutMgr@@@8			; ETSLayoutMgr `RTTI Type Descriptor'
PUBLIC	??_R4ETSLayoutMgr@@6B@				; ETSLayoutMgr::`RTTI Complete Object Locator'
PUBLIC	??_R3ETSLayoutMgr@@8				; ETSLayoutMgr::`RTTI Class Hierarchy Descriptor'
PUBLIC	??_R2ETSLayoutMgr@@8				; ETSLayoutMgr::`RTTI Base Class Array'
PUBLIC	??_R1A@?0A@A@ETSLayoutMgr@@8			; ETSLayoutMgr::`RTTI Base Class Descriptor at (0,-1,0,0)'
PUBLIC	??1ETSLayoutMgr@@UAE@XZ				; ETSLayoutMgr::~ETSLayoutMgr
PUBLIC	?GetRect@ETSLayoutMgr@@UAE?AVCRect@@XZ		; ETSLayoutMgr::GetRect
PUBLIC	?UpdateLayout@ETSLayoutMgr@@UAEXXZ		; ETSLayoutMgr::UpdateLayout
PUBLIC	?UpdateLayout@ETSLayoutMgr@@UAEXVCPane@1@@Z	; ETSLayoutMgr::UpdateLayout
PUBLIC	??_7ETSLayoutMgr@@6B@				; ETSLayoutMgr::`vftable'
PUBLIC	??_GETSLayoutMgr@@UAEPAXI@Z			; ETSLayoutMgr::`scalar deleting destructor'
PUBLIC	??1CPane@ETSLayoutMgr@@QAE@XZ			; ETSLayoutMgr::CPane::~CPane
EXTRN	?UpdateBkLayout@ETSLayoutMgr@@UAEXPAVCDC@@H@Z:NEAR ; ETSLayoutMgr::UpdateBkLayout
EXTRN	??_EETSLayoutMgr@@UAEPAXI@Z:NEAR		; ETSLayoutMgr::`vector deleting destructor'
EXTRN	??_7type_info@@6B@:QWORD			; type_info::`vftable'
EXTRN	??1CMapStringToString@@UAE@XZ:NEAR		; CMapStringToString::~CMapStringToString
xdata$x	SEGMENT
$T205012 DD	0ffffffffH
	DD	FLAT:$L205004
	DD	00H
	DD	FLAT:$L205005
	DD	01H
	DD	FLAT:$L205006
$T205010 DD	019930520H
	DD	03H
	DD	FLAT:$T205012
	DD	2 DUP(00H)
	DD	2 DUP(00H)
xdata$x	ENDS
;	COMDAT ??_7ETSLayoutMgr@@6B@
CONST	SEGMENT
??_7ETSLayoutMgr@@6B@ DD FLAT:??_R4ETSLayoutMgr@@6B@	; ETSLayoutMgr::`vftable'
	DD	FLAT:??_EETSLayoutMgr@@UAEPAXI@Z
	DD	FLAT:?GetRect@ETSLayoutMgr@@UAE?AVCRect@@XZ
	DD	FLAT:?UpdateBkLayout@ETSLayoutMgr@@UAEXPAVCDC@@H@Z
	DD	FLAT:?UpdateLayout@ETSLayoutMgr@@UAEXVCPane@1@@Z
	DD	FLAT:?UpdateLayout@ETSLayoutMgr@@UAEXXZ
	DD	FLAT:?Layout@ETSLayoutMgr@@UAEXAAVCRect@@@Z
CONST	ENDS
;	COMDAT ??_R4ETSLayoutMgr@@6B@
rdata$r	SEGMENT
??_R4ETSLayoutMgr@@6B@ DD 00H				; ETSLayoutMgr::`RTTI Complete Object Locator'
	DD	00H
	DD	00H
	DD	FLAT:??_R0?AVETSLayoutMgr@@@8
	DD	FLAT:??_R3ETSLayoutMgr@@8
rdata$r	ENDS
;	COMDAT ??_R0?AVETSLayoutMgr@@@8
_DATA	SEGMENT
??_R0?AVETSLayoutMgr@@@8 DD FLAT:??_7type_info@@6B@	; ETSLayoutMgr `RTTI Type Descriptor'
	DD	00H
	DB	'.?AVETSLayoutMgr@@', 00H
_DATA	ENDS
;	COMDAT ??_R3ETSLayoutMgr@@8
rdata$r	SEGMENT
??_R3ETSLayoutMgr@@8 DD 00H				; ETSLayoutMgr::`RTTI Class Hierarchy Descriptor'
	DD	00H
	DD	01H
	DD	FLAT:??_R2ETSLayoutMgr@@8
rdata$r	ENDS
;	COMDAT ??_R2ETSLayoutMgr@@8
rdata$r	SEGMENT
??_R2ETSLayoutMgr@@8 DD FLAT:??_R1A@?0A@A@ETSLayoutMgr@@8 ; ETSLayoutMgr::`RTTI Base Class Array'
rdata$r	ENDS
;	COMDAT ??_R1A@?0A@A@ETSLayoutMgr@@8
rdata$r	SEGMENT
??_R1A@?0A@A@ETSLayoutMgr@@8 DD FLAT:??_R0?AVETSLayoutMgr@@@8 ; ETSLayoutMgr::`RTTI Base Class Descriptor at (0,-1,0,0)'
	DD	00H
	DD	00H
	DD	0ffffffffH
	DD	00H
	DD	00H
; Function compile flags: /Odt
rdata$r	ENDS
_TEXT	SEGMENT
_this$ = -16						; size = 4
__$EHRec$ = -12						; size = 12
??1ETSLayoutMgr@@UAE@XZ PROC NEAR			; ETSLayoutMgr::~ETSLayoutMgr
; _this$ = ecx

; 366  : {

  00b90	55		 push	 ebp
  00b91	8b ec		 mov	 ebp, esp
  00b93	6a ff		 push	 -1
  00b95	68 00 00 00 00	 push	 __ehhandler$??1ETSLayoutMgr@@UAE@XZ
  00b9a	64 a1 00 00 00
	00		 mov	 eax, DWORD PTR fs:__except_list
  00ba0	50		 push	 eax
  00ba1	64 89 25 00 00
	00 00		 mov	 DWORD PTR fs:__except_list, esp
  00ba8	51		 push	 ecx
  00ba9	89 4d f0	 mov	 DWORD PTR _this$[ebp], ecx
  00bac	8b 45 f0	 mov	 eax, DWORD PTR _this$[ebp]
  00baf	c7 00 00 00 00
	00		 mov	 DWORD PTR [eax], OFFSET FLAT:??_7ETSLayoutMgr@@6B@
  00bb5	c7 45 fc 02 00
	00 00		 mov	 DWORD PTR __$EHRec$[ebp+8], 2

; 367  : }

  00bbc	8b 4d f0	 mov	 ecx, DWORD PTR _this$[ebp]
  00bbf	83 c1 38	 add	 ecx, 56			; 00000038H
  00bc2	ff 15 00 00 00
	00		 call	 DWORD PTR __imp_??1?$CStringT@DV?$StrTraitMFC_DLL@DV?$ChTraitsCRT@D@ATL@@@@@ATL@@QAE@XZ
  00bc8	8b 4d f0	 mov	 ecx, DWORD PTR _this$[ebp]
  00bcb	83 c1 34	 add	 ecx, 52			; 00000034H
  00bce	e8 00 00 00 00	 call	 ??1CPane@ETSLayoutMgr@@QAE@XZ ; ETSLayoutMgr::CPane::~CPane
  00bd3	c6 45 fc 01	 mov	 BYTE PTR __$EHRec$[ebp+8], 1
  00bd7	8b 4d f0	 mov	 ecx, DWORD PTR _this$[ebp]
  00bda	83 c1 2c	 add	 ecx, 44			; 0000002cH
  00bdd	ff 15 00 00 00
	00		 call	 DWORD PTR __imp_??1?$CStringT@DV?$StrTraitMFC_DLL@DV?$ChTraitsCRT@D@ATL@@@@@ATL@@QAE@XZ
  00be3	c6 45 fc 00	 mov	 BYTE PTR __$EHRec$[ebp+8], 0
  00be7	8b 4d f0	 mov	 ecx, DWORD PTR _this$[ebp]
  00bea	83 c1 28	 add	 ecx, 40			; 00000028H
  00bed	ff 15 00 00 00
	00		 call	 DWORD PTR __imp_??1?$CStringT@DV?$StrTraitMFC_DLL@DV?$ChTraitsCRT@D@ATL@@@@@ATL@@QAE@XZ
  00bf3	c7 45 fc ff ff
	ff ff		 mov	 DWORD PTR __$EHRec$[ebp+8], -1
  00bfa	8b 4d f0	 mov	 ecx, DWORD PTR _this$[ebp]
  00bfd	83 c1 0c	 add	 ecx, 12			; 0000000cH
  00c00	e8 00 00 00 00	 call	 ??1CMapStringToString@@UAE@XZ ; CMapStringToString::~CMapStringToString
  00c05	8b 4d f4	 mov	 ecx, DWORD PTR __$EHRec$[ebp]
  00c08	64 89 0d 00 00
	00 00		 mov	 DWORD PTR fs:__except_list, ecx
  00c0f	8b e5		 mov	 esp, ebp
  00c11	5d		 pop	 ebp
  00c12	c3		 ret	 0
_TEXT	ENDS
text$x	SEGMENT
$L205004:
  00154	8b 4d f0	 mov	 ecx, DWORD PTR _this$[ebp]
  00157	83 c1 0c	 add	 ecx, 12			; 0000000cH
  0015a	e9 00 00 00 00	 jmp	 ??1CMapStringToString@@UAE@XZ ; CMapStringToString::~CMapStringToString
$L205005:
  0015f	8b 4d f0	 mov	 ecx, DWORD PTR _this$[ebp]
  00162	83 c1 28	 add	 ecx, 40			; 00000028H
  00165	ff 25 00 00 00
	00		 jmp	 DWORD PTR __imp_??1?$CStringT@DV?$StrTraitMFC_DLL@DV?$ChTraitsCRT@D@ATL@@@@@ATL@@QAE@XZ
$L205006:
  0016b	8b 4d f0	 mov	 ecx, DWORD PTR _this$[ebp]
  0016e	83 c1 2c	 add	 ecx, 44			; 0000002cH
  00171	ff 25 00 00 00
	00		 jmp	 DWORD PTR __imp_??1?$CStringT@DV?$StrTraitMFC_DLL@DV?$ChTraitsCRT@D@ATL@@@@@ATL@@QAE@XZ
__ehhandler$??1ETSLayoutMgr@@UAE@XZ:
  00177	b8 00 00 00 00	 mov	 eax, OFFSET FLAT:$T205010
  0017c	e9 00 00 00 00	 jmp	 ___CxxFrameHandler
text$x	ENDS
??1ETSLayoutMgr@@UAE@XZ ENDP				; ETSLayoutMgr::~ETSLayoutMgr
PUBLIC	?GetClientRect@CWnd@@QBEXPAUtagRECT@@@Z		; CWnd::GetClientRect
PUBLIC	??BCRect@@QAEPAUtagRECT@@XZ			; CRect::operator tagRECT *
; Function compile flags: /Odt
; File d:\boxgit\playbox\playbox\dev\prj\playbox\src\layoutmgr\etslayout.h
;	COMDAT ?GetRect@ETSLayoutMgr@@UAE?AVCRect@@XZ
_TEXT	SEGMENT
_this$ = -20						; size = 4
_r$ = -16						; size = 16
___$ReturnUdt$ = 8					; size = 4
?GetRect@ETSLayoutMgr@@UAE?AVCRect@@XZ PROC NEAR	; ETSLayoutMgr::GetRect, COMDAT
; _this$ = ecx

; 805  : 	virtual CRect GetRect() { CRect r; m_pWnd->GetClientRect(r); return r; };

  00000	55		 push	 ebp
  00001	8b ec		 mov	 ebp, esp
  00003	83 ec 14	 sub	 esp, 20			; 00000014H
  00006	89 4d ec	 mov	 DWORD PTR _this$[ebp], ecx
  00009	8d 4d f0	 lea	 ecx, DWORD PTR _r$[ebp]
  0000c	e8 00 00 00 00	 call	 ??0CRect@@QAE@XZ	; CRect::CRect
  00011	8d 4d f0	 lea	 ecx, DWORD PTR _r$[ebp]
  00014	e8 00 00 00 00	 call	 ??BCRect@@QAEPAUtagRECT@@XZ ; CRect::operator tagRECT *
  00019	50		 push	 eax
  0001a	8b 45 ec	 mov	 eax, DWORD PTR _this$[ebp]
  0001d	8b 48 30	 mov	 ecx, DWORD PTR [eax+48]
  00020	e8 00 00 00 00	 call	 ?GetClientRect@CWnd@@QBEXPAUtagRECT@@@Z ; CWnd::GetClientRect
  00025	8b 4d 08	 mov	 ecx, DWORD PTR ___$ReturnUdt$[ebp]
  00028	8b 55 f0	 mov	 edx, DWORD PTR _r$[ebp]
  0002b	89 11		 mov	 DWORD PTR [ecx], edx
  0002d	8b 45 f4	 mov	 eax, DWORD PTR _r$[ebp+4]
  00030	89 41 04	 mov	 DWORD PTR [ecx+4], eax
  00033	8b 55 f8	 mov	 edx, DWORD PTR _r$[ebp+8]
  00036	89 51 08	 mov	 DWORD PTR [ecx+8], edx
  00039	8b 45 fc	 mov	 eax, DWORD PTR _r$[ebp+12]
  0003c	89 41 0c	 mov	 DWORD PTR [ecx+12], eax
  0003f	8b 45 08	 mov	 eax, DWORD PTR ___$ReturnUdt$[ebp]
  00042	8b e5		 mov	 esp, ebp
  00044	5d		 pop	 ebp
  00045	c2 04 00	 ret	 4
?GetRect@ETSLayoutMgr@@UAE?AVCRect@@XZ ENDP		; ETSLayoutMgr::GetRect
_TEXT	ENDS
PUBLIC	??4CPane@ETSLayoutMgr@@QAEXPAVPane@1@@Z		; ETSLayoutMgr::CPane::operator=
PUBLIC	??4CPane@ETSLayoutMgr@@QAEXABV01@@Z		; ETSLayoutMgr::CPane::operator=
;	COMDAT xdata$x
xdata$x	SEGMENT
$T205020 DD	0ffffffffH
	DD	FLAT:$L205016
$T205018 DD	019930520H
	DD	01H
	DD	FLAT:$T205020
	DD	2 DUP(00H)
	DD	2 DUP(00H)
; Function compile flags: /Odt
xdata$x	ENDS
;	COMDAT ?UpdateLayout@ETSLayoutMgr@@UAEXVCPane@1@@Z
_TEXT	SEGMENT
_this$ = -16						; size = 4
__$EHRec$ = -12						; size = 12
_p$ = 8							; size = 4
?UpdateLayout@ETSLayoutMgr@@UAEXVCPane@1@@Z PROC NEAR	; ETSLayoutMgr::UpdateLayout, COMDAT
; _this$ = ecx

; 857  : 	virtual void UpdateLayout(CPane p) {

  00000	55		 push	 ebp
  00001	8b ec		 mov	 ebp, esp
  00003	6a ff		 push	 -1
  00005	68 00 00 00 00	 push	 __ehhandler$?UpdateLayout@ETSLayoutMgr@@UAEXVCPane@1@@Z
  0000a	64 a1 00 00 00
	00		 mov	 eax, DWORD PTR fs:__except_list
  00010	50		 push	 eax
  00011	64 89 25 00 00
	00 00		 mov	 DWORD PTR fs:__except_list, esp
  00018	51		 push	 ecx
  00019	89 4d f0	 mov	 DWORD PTR _this$[ebp], ecx
  0001c	c7 45 fc 00 00
	00 00		 mov	 DWORD PTR __$EHRec$[ebp+8], 0

; 858  : 		if(m_RootPane.IsValid())

  00023	8b 4d f0	 mov	 ecx, DWORD PTR _this$[ebp]
  00026	83 c1 34	 add	 ecx, 52			; 00000034H
  00029	e8 00 00 00 00	 call	 ?IsValid@CPaneBase@ETSLayoutMgr@@QAE_NXZ ; ETSLayoutMgr::CPaneBase::IsValid
  0002e	0f b6 c0	 movzx	 eax, al
  00031	85 c0		 test	 eax, eax
  00033	74 0d		 je	 SHORT $L198301

; 859  : 		{
; 860  : 			// free old root
; 861  : 			m_RootPane = 0;

  00035	6a 00		 push	 0
  00037	8b 4d f0	 mov	 ecx, DWORD PTR _this$[ebp]
  0003a	83 c1 34	 add	 ecx, 52			; 00000034H
  0003d	e8 00 00 00 00	 call	 ??4CPane@ETSLayoutMgr@@QAEXPAVPane@1@@Z ; ETSLayoutMgr::CPane::operator=
$L198301:

; 862  : 		}
; 863  : 		m_RootPane = p;

  00042	8d 4d 08	 lea	 ecx, DWORD PTR _p$[ebp]
  00045	51		 push	 ecx
  00046	8b 4d f0	 mov	 ecx, DWORD PTR _this$[ebp]
  00049	83 c1 34	 add	 ecx, 52			; 00000034H
  0004c	e8 00 00 00 00	 call	 ??4CPane@ETSLayoutMgr@@QAEXABV01@@Z ; ETSLayoutMgr::CPane::operator=

; 864  : 		UpdateLayout();

  00051	8b 55 f0	 mov	 edx, DWORD PTR _this$[ebp]
  00054	8b 02		 mov	 eax, DWORD PTR [edx]
  00056	8b 4d f0	 mov	 ecx, DWORD PTR _this$[ebp]
  00059	ff 50 10	 call	 DWORD PTR [eax+16]

; 865  : 	}

  0005c	c7 45 fc ff ff
	ff ff		 mov	 DWORD PTR __$EHRec$[ebp+8], -1
  00063	8d 4d 08	 lea	 ecx, DWORD PTR _p$[ebp]
  00066	e8 00 00 00 00	 call	 ??1CPane@ETSLayoutMgr@@QAE@XZ ; ETSLayoutMgr::CPane::~CPane
  0006b	8b 4d f4	 mov	 ecx, DWORD PTR __$EHRec$[ebp]
  0006e	64 89 0d 00 00
	00 00		 mov	 DWORD PTR fs:__except_list, ecx
  00075	8b e5		 mov	 esp, ebp
  00077	5d		 pop	 ebp
  00078	c2 04 00	 ret	 4
_TEXT	ENDS
;	COMDAT text$x
text$x	SEGMENT
$L205016:
  00000	8d 4d 08	 lea	 ecx, DWORD PTR _p$[ebp]
  00003	e9 00 00 00 00	 jmp	 ??1CPane@ETSLayoutMgr@@QAE@XZ ; ETSLayoutMgr::CPane::~CPane
__ehhandler$?UpdateLayout@ETSLayoutMgr@@UAEXVCPane@1@@Z:
  00008	b8 00 00 00 00	 mov	 eax, OFFSET FLAT:$T205018
  0000d	e9 00 00 00 00	 jmp	 ___CxxFrameHandler
text$x	ENDS
?UpdateLayout@ETSLayoutMgr@@UAEXVCPane@1@@Z ENDP	; ETSLayoutMgr::UpdateLayout
; Function compile flags: /Odt
;	COMDAT ??_GETSLayoutMgr@@UAEPAXI@Z
_TEXT	SEGMENT
_this$ = -4						; size = 4
___flags$ = 8						; size = 4
??_GETSLayoutMgr@@UAEPAXI@Z PROC NEAR			; ETSLayoutMgr::`scalar deleting destructor', COMDAT
; _this$ = ecx
  00000	55		 push	 ebp
  00001	8b ec		 mov	 ebp, esp
  00003	51		 push	 ecx
  00004	89 4d fc	 mov	 DWORD PTR _this$[ebp], ecx
  00007	8b 4d fc	 mov	 ecx, DWORD PTR _this$[ebp]
  0000a	e8 00 00 00 00	 call	 ??1ETSLayoutMgr@@UAE@XZ	; ETSLayoutMgr::~ETSLayoutMgr
  0000f	8b 45 08	 mov	 eax, DWORD PTR ___flags$[ebp]
  00012	83 e0 01	 and	 eax, 1
  00015	74 0c		 je	 SHORT $L198323
  00017	8b 4d fc	 mov	 ecx, DWORD PTR _this$[ebp]
  0001a	51		 push	 ecx
  0001b	e8 00 00 00 00	 call	 ??3@YAXPAX@Z		; operator delete
  00020	83 c4 04	 add	 esp, 4
$L198323:
  00023	8b 45 fc	 mov	 eax, DWORD PTR _this$[ebp]
  00026	8b e5		 mov	 esp, ebp
  00028	5d		 pop	 ebp
  00029	c2 04 00	 ret	 4
??_GETSLayoutMgr@@UAEPAXI@Z ENDP			; ETSLayoutMgr::`scalar deleting destructor'
_TEXT	ENDS
PUBLIC	?Invalidate@CWnd@@QAEXH@Z			; CWnd::Invalidate
PUBLIC	?IsWindowVisible@CWnd@@QBEHXZ			; CWnd::IsWindowVisible
PUBLIC	?OffsetRect@CRect@@QAEXHH@Z			; CRect::OffsetRect
PUBLIC	??ZCRect@@QAEXPBUtagRECT@@@Z			; CRect::operator-=
PUBLIC	?GetParent@CWnd@@QBEPAV1@XZ			; CWnd::GetParent
PUBLIC	??7CPaneBase@ETSLayoutMgr@@QAE_NXZ		; ETSLayoutMgr::CPaneBase::operator!
PUBLIC	?MoveWindow@CWnd@@QAEXPBUtagRECT@@H@Z		; CWnd::MoveWindow
EXTRN	?GetThisClass@CDialog@@SGPAUCRuntimeClass@@XZ:NEAR ; CDialog::GetThisClass
EXTRN	?GetThisClass@CView@@SGPAUCRuntimeClass@@XZ:NEAR ; CView::GetThisClass
EXTRN	?IsKindOf@CObject@@QBEHPBUCRuntimeClass@@@Z:NEAR ; CObject::IsKindOf
EXTRN	?GetStyle@CWnd@@QBEKXZ:NEAR			; CWnd::GetStyle
; Function compile flags: /Odt
; File d:\boxgit\playbox\playbox\dev\prj\playbox\src\layoutmgr\etslayout.cpp
_TEXT	SEGMENT
tv231 = -128						; size = 4
tv214 = -124						; size = 4
tv209 = -120						; size = 4
tv192 = -116						; size = 4
tv173 = -112						; size = 4
tv154 = -108						; size = 4
_this$ = -104						; size = 4
$T205031 = -100						; size = 16
_rcParent$200915 = -84					; size = 16
_minWidth$200917 = -68					; size = 4
_maxHeight$200921 = -64					; size = 4
_rcWindow$200912 = -60					; size = 16
_minHeight$200918 = -44					; size = 4
_rcBorder$200916 = -40					; size = 16
_parentWnd$200913 = -24					; size = 4
_maxWidth$200919 = -20					; size = 4
_rcClient$ = -16					; size = 16
?UpdateLayout@ETSLayoutMgr@@UAEXXZ PROC NEAR		; ETSLayoutMgr::UpdateLayout
; _this$ = ecx

; 370  : {

  00c20	55		 push	 ebp
  00c21	8b ec		 mov	 ebp, esp
  00c23	81 ec 80 00 00
	00		 sub	 esp, 128		; 00000080H
  00c29	56		 push	 esi
  00c2a	89 4d 98	 mov	 DWORD PTR _this$[ebp], ecx

; 371  : 	if(!m_RootPane)

  00c2d	8b 4d 98	 mov	 ecx, DWORD PTR _this$[ebp]
  00c30	83 c1 34	 add	 ecx, 52			; 00000034H
  00c33	e8 00 00 00 00	 call	 ??7CPaneBase@ETSLayoutMgr@@QAE_NXZ ; ETSLayoutMgr::CPaneBase::operator!
  00c38	0f b6 c0	 movzx	 eax, al
  00c3b	85 c0		 test	 eax, eax
  00c3d	74 05		 je	 SHORT $L200908

; 372  : 		return;

  00c3f	e9 56 03 00 00	 jmp	 $L200907
$L200908:

; 373  : 
; 374  : 	// Check constraints
; 375  : 	CRect rcClient = GetRect();

  00c44	8d 4d f0	 lea	 ecx, DWORD PTR _rcClient$[ebp]
  00c47	51		 push	 ecx
  00c48	8b 55 98	 mov	 edx, DWORD PTR _this$[ebp]
  00c4b	8b 02		 mov	 eax, DWORD PTR [edx]
  00c4d	8b 4d 98	 mov	 ecx, DWORD PTR _this$[ebp]
  00c50	ff 50 04	 call	 DWORD PTR [eax+4]

; 376  : 
; 377  : 	if( m_pWnd->IsKindOf( RUNTIME_CLASS( CDialog ) ) && !(m_pWnd->GetStyle()&WS_CHILD) ) {

  00c53	e8 00 00 00 00	 call	 ?GetThisClass@CDialog@@SGPAUCRuntimeClass@@XZ ; CDialog::GetThisClass
  00c58	50		 push	 eax
  00c59	8b 4d 98	 mov	 ecx, DWORD PTR _this$[ebp]
  00c5c	8b 49 30	 mov	 ecx, DWORD PTR [ecx+48]
  00c5f	e8 00 00 00 00	 call	 ?IsKindOf@CObject@@QBEHPBUCRuntimeClass@@@Z ; CObject::IsKindOf
  00c64	85 c0		 test	 eax, eax
  00c66	0f 84 64 02 00
	00		 je	 $L200911
  00c6c	8b 55 98	 mov	 edx, DWORD PTR _this$[ebp]
  00c6f	8b 4a 30	 mov	 ecx, DWORD PTR [edx+48]
  00c72	e8 00 00 00 00	 call	 ?GetStyle@CWnd@@QBEKXZ	; CWnd::GetStyle
  00c77	25 00 00 00 40	 and	 eax, 1073741824		; 40000000H
  00c7c	0f 85 4e 02 00
	00		 jne	 $L200911

; 378  : 		CRect rcWindow;

  00c82	8d 4d c4	 lea	 ecx, DWORD PTR _rcWindow$200912[ebp]
  00c85	e8 00 00 00 00	 call	 ??0CRect@@QAE@XZ	; CRect::CRect

; 379  : 		m_pWnd->GetWindowRect(rcWindow);

  00c8a	8d 4d c4	 lea	 ecx, DWORD PTR _rcWindow$200912[ebp]
  00c8d	e8 00 00 00 00	 call	 ??BCRect@@QAEPAUtagRECT@@XZ ; CRect::operator tagRECT *
  00c92	50		 push	 eax
  00c93	8b 45 98	 mov	 eax, DWORD PTR _this$[ebp]
  00c96	8b 48 30	 mov	 ecx, DWORD PTR [eax+48]
  00c99	e8 00 00 00 00	 call	 ?GetWindowRect@CWnd@@QBEXPAUtagRECT@@@Z ; CWnd::GetWindowRect

; 380  : 
; 381  : 		// Added by Didier BULTIAUW
; 382  :         CWnd* parentWnd = m_pWnd->GetParent();

  00c9e	8b 4d 98	 mov	 ecx, DWORD PTR _this$[ebp]
  00ca1	8b 49 30	 mov	 ecx, DWORD PTR [ecx+48]
  00ca4	e8 00 00 00 00	 call	 ?GetParent@CWnd@@QBEPAV1@XZ ; CWnd::GetParent
  00ca9	89 45 e8	 mov	 DWORD PTR _parentWnd$200913[ebp], eax

; 383  :         if( (parentWnd != 0) && parentWnd->IsKindOf(RUNTIME_CLASS(CView)) )

  00cac	83 7d e8 00	 cmp	 DWORD PTR _parentWnd$200913[ebp], 0
  00cb0	74 3f		 je	 SHORT $L200914
  00cb2	e8 00 00 00 00	 call	 ?GetThisClass@CView@@SGPAUCRuntimeClass@@XZ ; CView::GetThisClass
  00cb7	50		 push	 eax
  00cb8	8b 4d e8	 mov	 ecx, DWORD PTR _parentWnd$200913[ebp]
  00cbb	e8 00 00 00 00	 call	 ?IsKindOf@CObject@@QBEHPBUCRuntimeClass@@@Z ; CObject::IsKindOf
  00cc0	85 c0		 test	 eax, eax
  00cc2	74 2d		 je	 SHORT $L200914

; 384  :         {
; 385  : 			CRect rcParent;

  00cc4	8d 4d ac	 lea	 ecx, DWORD PTR _rcParent$200915[ebp]
  00cc7	e8 00 00 00 00	 call	 ??0CRect@@QAE@XZ	; CRect::CRect

; 386  :             parentWnd->GetWindowRect(rcParent);

  00ccc	8d 4d ac	 lea	 ecx, DWORD PTR _rcParent$200915[ebp]
  00ccf	e8 00 00 00 00	 call	 ??BCRect@@QAEPAUtagRECT@@XZ ; CRect::operator tagRECT *
  00cd4	50		 push	 eax
  00cd5	8b 4d e8	 mov	 ecx, DWORD PTR _parentWnd$200913[ebp]
  00cd8	e8 00 00 00 00	 call	 ?GetWindowRect@CWnd@@QBEXPAUtagRECT@@@Z ; CWnd::GetWindowRect

; 387  :             rcWindow.OffsetRect(-rcParent.left,-rcParent.top);

  00cdd	8b 55 b0	 mov	 edx, DWORD PTR _rcParent$200915[ebp+4]
  00ce0	f7 da		 neg	 edx
  00ce2	52		 push	 edx
  00ce3	8b 45 ac	 mov	 eax, DWORD PTR _rcParent$200915[ebp]
  00ce6	f7 d8		 neg	 eax
  00ce8	50		 push	 eax
  00ce9	8d 4d c4	 lea	 ecx, DWORD PTR _rcWindow$200912[ebp]
  00cec	e8 00 00 00 00	 call	 ?OffsetRect@CRect@@QAEXHH@Z ; CRect::OffsetRect
$L200914:

; 388  :         }
; 389  : 		// end add
; 390  : 
; 391  : 		CRect rcBorder = rcWindow;

  00cf1	8b 4d c4	 mov	 ecx, DWORD PTR _rcWindow$200912[ebp]
  00cf4	89 4d d8	 mov	 DWORD PTR _rcBorder$200916[ebp], ecx
  00cf7	8b 55 c8	 mov	 edx, DWORD PTR _rcWindow$200912[ebp+4]
  00cfa	89 55 dc	 mov	 DWORD PTR _rcBorder$200916[ebp+4], edx
  00cfd	8b 45 cc	 mov	 eax, DWORD PTR _rcWindow$200912[ebp+8]
  00d00	89 45 e0	 mov	 DWORD PTR _rcBorder$200916[ebp+8], eax
  00d03	8b 4d d0	 mov	 ecx, DWORD PTR _rcWindow$200912[ebp+12]
  00d06	89 4d e4	 mov	 DWORD PTR _rcBorder$200916[ebp+12], ecx

; 392  : 		rcBorder -= rcClient;

  00d09	8d 4d f0	 lea	 ecx, DWORD PTR _rcClient$[ebp]
  00d0c	e8 00 00 00 00	 call	 ??BCRect@@QAEPAUtagRECT@@XZ ; CRect::operator tagRECT *
  00d11	50		 push	 eax
  00d12	8d 4d d8	 lea	 ecx, DWORD PTR _rcBorder$200916[ebp]
  00d15	e8 00 00 00 00	 call	 ??ZCRect@@QAEXPBUtagRECT@@@Z ; CRect::operator-=

; 393  : 
; 394  : 		// Min and Max info
; 395  : 		int minWidth	= m_RootPane->getMinConstrainHorz() + rcBorder.Width()  + 2*m_sizeRootBorders.cx + m_nLCX + m_nRCX;

  00d1a	8b 4d 98	 mov	 ecx, DWORD PTR _this$[ebp]
  00d1d	83 c1 34	 add	 ecx, 52			; 00000034H
  00d20	e8 00 00 00 00	 call	 ??CCPane@ETSLayoutMgr@@QBEPAVPane@1@XZ ; ETSLayoutMgr::CPane::operator->
  00d25	89 45 94	 mov	 DWORD PTR tv154[ebp], eax
  00d28	8b 55 94	 mov	 edx, DWORD PTR tv154[ebp]
  00d2b	8b 02		 mov	 eax, DWORD PTR [edx]
  00d2d	8b 4d 94	 mov	 ecx, DWORD PTR tv154[ebp]
  00d30	ff 50 08	 call	 DWORD PTR [eax+8]
  00d33	8b f0		 mov	 esi, eax
  00d35	8d 4d d8	 lea	 ecx, DWORD PTR _rcBorder$200916[ebp]
  00d38	e8 00 00 00 00	 call	 ?Width@CRect@@QBEHXZ	; CRect::Width
  00d3d	03 f0		 add	 esi, eax
  00d3f	8b 4d 98	 mov	 ecx, DWORD PTR _this$[ebp]
  00d42	8b 51 3c	 mov	 edx, DWORD PTR [ecx+60]
  00d45	8d 04 56	 lea	 eax, DWORD PTR [esi+edx*2]
  00d48	8b 4d 98	 mov	 ecx, DWORD PTR _this$[ebp]
  00d4b	03 41 44	 add	 eax, DWORD PTR [ecx+68]
  00d4e	8b 55 98	 mov	 edx, DWORD PTR _this$[ebp]
  00d51	03 42 48	 add	 eax, DWORD PTR [edx+72]
  00d54	89 45 bc	 mov	 DWORD PTR _minWidth$200917[ebp], eax

; 396  : 		int minHeight	= m_RootPane->getMinConstrainVert() + rcBorder.Height() + 2*m_sizeRootBorders.cy + m_nTCY + m_nBCY;

  00d57	8b 4d 98	 mov	 ecx, DWORD PTR _this$[ebp]
  00d5a	83 c1 34	 add	 ecx, 52			; 00000034H
  00d5d	e8 00 00 00 00	 call	 ??CCPane@ETSLayoutMgr@@QBEPAVPane@1@XZ ; ETSLayoutMgr::CPane::operator->
  00d62	89 45 90	 mov	 DWORD PTR tv173[ebp], eax
  00d65	8b 45 90	 mov	 eax, DWORD PTR tv173[ebp]
  00d68	8b 10		 mov	 edx, DWORD PTR [eax]
  00d6a	8b 4d 90	 mov	 ecx, DWORD PTR tv173[ebp]
  00d6d	ff 52 10	 call	 DWORD PTR [edx+16]
  00d70	8b f0		 mov	 esi, eax
  00d72	8d 4d d8	 lea	 ecx, DWORD PTR _rcBorder$200916[ebp]
  00d75	e8 00 00 00 00	 call	 ?Height@CRect@@QBEHXZ	; CRect::Height
  00d7a	03 f0		 add	 esi, eax
  00d7c	8b 45 98	 mov	 eax, DWORD PTR _this$[ebp]
  00d7f	8b 48 40	 mov	 ecx, DWORD PTR [eax+64]
  00d82	8d 14 4e	 lea	 edx, DWORD PTR [esi+ecx*2]
  00d85	8b 45 98	 mov	 eax, DWORD PTR _this$[ebp]
  00d88	03 50 4c	 add	 edx, DWORD PTR [eax+76]
  00d8b	8b 4d 98	 mov	 ecx, DWORD PTR _this$[ebp]
  00d8e	03 51 50	 add	 edx, DWORD PTR [ecx+80]
  00d91	89 55 d4	 mov	 DWORD PTR _minHeight$200918[ebp], edx

; 397  : 		int maxWidth	= m_RootPane->getMaxConstrainHorz();

  00d94	8b 4d 98	 mov	 ecx, DWORD PTR _this$[ebp]
  00d97	83 c1 34	 add	 ecx, 52			; 00000034H
  00d9a	e8 00 00 00 00	 call	 ??CCPane@ETSLayoutMgr@@QBEPAVPane@1@XZ ; ETSLayoutMgr::CPane::operator->
  00d9f	89 45 8c	 mov	 DWORD PTR tv192[ebp], eax
  00da2	8b 55 8c	 mov	 edx, DWORD PTR tv192[ebp]
  00da5	8b 02		 mov	 eax, DWORD PTR [edx]
  00da7	8b 4d 8c	 mov	 ecx, DWORD PTR tv192[ebp]
  00daa	ff 50 0c	 call	 DWORD PTR [eax+12]
  00dad	89 45 ec	 mov	 DWORD PTR _maxWidth$200919[ebp], eax

; 398  : 		if(maxWidth != -1) {

  00db0	83 7d ec ff	 cmp	 DWORD PTR _maxWidth$200919[ebp], -1
  00db4	74 3f		 je	 SHORT $L200920

; 399  : 			maxWidth += rcBorder.Width()  + 2*m_sizeRootBorders.cx  + m_nLCX + m_nRCX;

  00db6	8d 4d d8	 lea	 ecx, DWORD PTR _rcBorder$200916[ebp]
  00db9	e8 00 00 00 00	 call	 ?Width@CRect@@QBEHXZ	; CRect::Width
  00dbe	8b 4d 98	 mov	 ecx, DWORD PTR _this$[ebp]
  00dc1	8b 51 3c	 mov	 edx, DWORD PTR [ecx+60]
  00dc4	8d 04 50	 lea	 eax, DWORD PTR [eax+edx*2]
  00dc7	8b 4d 98	 mov	 ecx, DWORD PTR _this$[ebp]
  00dca	03 41 44	 add	 eax, DWORD PTR [ecx+68]
  00dcd	8b 55 98	 mov	 edx, DWORD PTR _this$[ebp]
  00dd0	03 42 48	 add	 eax, DWORD PTR [edx+72]
  00dd3	03 45 ec	 add	 eax, DWORD PTR _maxWidth$200919[ebp]
  00dd6	89 45 ec	 mov	 DWORD PTR _maxWidth$200919[ebp], eax

; 400  : 			maxWidth = max(maxWidth, minWidth);

  00dd9	8b 45 ec	 mov	 eax, DWORD PTR _maxWidth$200919[ebp]
  00ddc	3b 45 bc	 cmp	 eax, DWORD PTR _minWidth$200917[ebp]
  00ddf	7e 08		 jle	 SHORT $L205027
  00de1	8b 4d ec	 mov	 ecx, DWORD PTR _maxWidth$200919[ebp]
  00de4	89 4d 88	 mov	 DWORD PTR tv209[ebp], ecx
  00de7	eb 06		 jmp	 SHORT $L205028
$L205027:
  00de9	8b 55 bc	 mov	 edx, DWORD PTR _minWidth$200917[ebp]
  00dec	89 55 88	 mov	 DWORD PTR tv209[ebp], edx
$L205028:
  00def	8b 45 88	 mov	 eax, DWORD PTR tv209[ebp]
  00df2	89 45 ec	 mov	 DWORD PTR _maxWidth$200919[ebp], eax
$L200920:

; 401  : 		}
; 402  : 		int maxHeight	= m_RootPane->getMaxConstrainVert();

  00df5	8b 4d 98	 mov	 ecx, DWORD PTR _this$[ebp]
  00df8	83 c1 34	 add	 ecx, 52			; 00000034H
  00dfb	e8 00 00 00 00	 call	 ??CCPane@ETSLayoutMgr@@QBEPAVPane@1@XZ ; ETSLayoutMgr::CPane::operator->
  00e00	89 45 84	 mov	 DWORD PTR tv214[ebp], eax
  00e03	8b 4d 84	 mov	 ecx, DWORD PTR tv214[ebp]
  00e06	8b 11		 mov	 edx, DWORD PTR [ecx]
  00e08	8b 4d 84	 mov	 ecx, DWORD PTR tv214[ebp]
  00e0b	ff 52 14	 call	 DWORD PTR [edx+20]
  00e0e	89 45 c0	 mov	 DWORD PTR _maxHeight$200921[ebp], eax

; 403  : 		if(maxHeight != -1) {

  00e11	83 7d c0 ff	 cmp	 DWORD PTR _maxHeight$200921[ebp], -1
  00e15	74 3f		 je	 SHORT $L200922

; 404  : 			maxHeight += rcBorder.Height() + 2*m_sizeRootBorders.cy + m_nTCY + m_nBCY;

  00e17	8d 4d d8	 lea	 ecx, DWORD PTR _rcBorder$200916[ebp]
  00e1a	e8 00 00 00 00	 call	 ?Height@CRect@@QBEHXZ	; CRect::Height
  00e1f	8b 4d 98	 mov	 ecx, DWORD PTR _this$[ebp]
  00e22	8b 51 40	 mov	 edx, DWORD PTR [ecx+64]
  00e25	8d 04 50	 lea	 eax, DWORD PTR [eax+edx*2]
  00e28	8b 4d 98	 mov	 ecx, DWORD PTR _this$[ebp]
  00e2b	03 41 4c	 add	 eax, DWORD PTR [ecx+76]
  00e2e	8b 55 98	 mov	 edx, DWORD PTR _this$[ebp]
  00e31	03 42 50	 add	 eax, DWORD PTR [edx+80]
  00e34	03 45 c0	 add	 eax, DWORD PTR _maxHeight$200921[ebp]
  00e37	89 45 c0	 mov	 DWORD PTR _maxHeight$200921[ebp], eax

; 405  : 			maxHeight = max(maxHeight, minHeight);

  00e3a	8b 45 c0	 mov	 eax, DWORD PTR _maxHeight$200921[ebp]
  00e3d	3b 45 d4	 cmp	 eax, DWORD PTR _minHeight$200918[ebp]
  00e40	7e 08		 jle	 SHORT $L205029
  00e42	8b 4d c0	 mov	 ecx, DWORD PTR _maxHeight$200921[ebp]
  00e45	89 4d 80	 mov	 DWORD PTR tv231[ebp], ecx
  00e48	eb 06		 jmp	 SHORT $L205030
$L205029:
  00e4a	8b 55 d4	 mov	 edx, DWORD PTR _minHeight$200918[ebp]
  00e4d	89 55 80	 mov	 DWORD PTR tv231[ebp], edx
$L205030:
  00e50	8b 45 80	 mov	 eax, DWORD PTR tv231[ebp]
  00e53	89 45 c0	 mov	 DWORD PTR _maxHeight$200921[ebp], eax
$L200922:

; 406  : 		}
; 407  : 
; 408  : 		if(rcWindow.Width() < minWidth)

  00e56	8d 4d c4	 lea	 ecx, DWORD PTR _rcWindow$200912[ebp]
  00e59	e8 00 00 00 00	 call	 ?Width@CRect@@QBEHXZ	; CRect::Width
  00e5e	3b 45 bc	 cmp	 eax, DWORD PTR _minWidth$200917[ebp]
  00e61	7d 09		 jge	 SHORT $L200923

; 409  : 			rcWindow.right = rcWindow.left + minWidth;

  00e63	8b 4d c4	 mov	 ecx, DWORD PTR _rcWindow$200912[ebp]
  00e66	03 4d bc	 add	 ecx, DWORD PTR _minWidth$200917[ebp]
  00e69	89 4d cc	 mov	 DWORD PTR _rcWindow$200912[ebp+8], ecx
$L200923:

; 410  : 		if(rcWindow.Height() < minHeight)

  00e6c	8d 4d c4	 lea	 ecx, DWORD PTR _rcWindow$200912[ebp]
  00e6f	e8 00 00 00 00	 call	 ?Height@CRect@@QBEHXZ	; CRect::Height
  00e74	3b 45 d4	 cmp	 eax, DWORD PTR _minHeight$200918[ebp]
  00e77	7d 09		 jge	 SHORT $L200924

; 411  : 			rcWindow.bottom = rcWindow.top + minHeight;

  00e79	8b 55 c8	 mov	 edx, DWORD PTR _rcWindow$200912[ebp+4]
  00e7c	03 55 d4	 add	 edx, DWORD PTR _minHeight$200918[ebp]
  00e7f	89 55 d0	 mov	 DWORD PTR _rcWindow$200912[ebp+12], edx
$L200924:

; 412  : 
; 413  : 		if(maxWidth != -1  && rcWindow.Width() > maxWidth)

  00e82	83 7d ec ff	 cmp	 DWORD PTR _maxWidth$200919[ebp], -1
  00e86	74 16		 je	 SHORT $L200925
  00e88	8d 4d c4	 lea	 ecx, DWORD PTR _rcWindow$200912[ebp]
  00e8b	e8 00 00 00 00	 call	 ?Width@CRect@@QBEHXZ	; CRect::Width
  00e90	3b 45 ec	 cmp	 eax, DWORD PTR _maxWidth$200919[ebp]
  00e93	7e 09		 jle	 SHORT $L200925

; 414  : 			rcWindow.right = rcWindow.left + maxWidth;

  00e95	8b 45 c4	 mov	 eax, DWORD PTR _rcWindow$200912[ebp]
  00e98	03 45 ec	 add	 eax, DWORD PTR _maxWidth$200919[ebp]
  00e9b	89 45 cc	 mov	 DWORD PTR _rcWindow$200912[ebp+8], eax
$L200925:

; 415  : 		if(maxHeight != -1 && rcWindow.Height() > maxHeight)

  00e9e	83 7d c0 ff	 cmp	 DWORD PTR _maxHeight$200921[ebp], -1
  00ea2	74 16		 je	 SHORT $L200926
  00ea4	8d 4d c4	 lea	 ecx, DWORD PTR _rcWindow$200912[ebp]
  00ea7	e8 00 00 00 00	 call	 ?Height@CRect@@QBEHXZ	; CRect::Height
  00eac	3b 45 c0	 cmp	 eax, DWORD PTR _maxHeight$200921[ebp]
  00eaf	7e 09		 jle	 SHORT $L200926

; 416  : 			rcWindow.bottom = rcWindow.top + maxHeight;

  00eb1	8b 4d c8	 mov	 ecx, DWORD PTR _rcWindow$200912[ebp+4]
  00eb4	03 4d c0	 add	 ecx, DWORD PTR _maxHeight$200921[ebp]
  00eb7	89 4d d0	 mov	 DWORD PTR _rcWindow$200912[ebp+12], ecx
$L200926:

; 417  : 
; 418  : 		m_pWnd->MoveWindow(rcWindow, FALSE);

  00eba	6a 00		 push	 0
  00ebc	8d 4d c4	 lea	 ecx, DWORD PTR _rcWindow$200912[ebp]
  00ebf	e8 00 00 00 00	 call	 ??BCRect@@QAEPAUtagRECT@@XZ ; CRect::operator tagRECT *
  00ec4	50		 push	 eax
  00ec5	8b 55 98	 mov	 edx, DWORD PTR _this$[ebp]
  00ec8	8b 4a 30	 mov	 ecx, DWORD PTR [edx+48]
  00ecb	e8 00 00 00 00	 call	 ?MoveWindow@CWnd@@QAEXPBUtagRECT@@H@Z ; CWnd::MoveWindow
$L200911:

; 419  : 	}
; 420  : 	// Do the Layout
; 421  : 	rcClient = GetRect();

  00ed0	8d 45 9c	 lea	 eax, DWORD PTR $T205031[ebp]
  00ed3	50		 push	 eax
  00ed4	8b 4d 98	 mov	 ecx, DWORD PTR _this$[ebp]
  00ed7	8b 11		 mov	 edx, DWORD PTR [ecx]
  00ed9	8b 4d 98	 mov	 ecx, DWORD PTR _this$[ebp]
  00edc	ff 52 04	 call	 DWORD PTR [edx+4]
  00edf	8b 08		 mov	 ecx, DWORD PTR [eax]
  00ee1	89 4d f0	 mov	 DWORD PTR _rcClient$[ebp], ecx
  00ee4	8b 50 04	 mov	 edx, DWORD PTR [eax+4]
  00ee7	89 55 f4	 mov	 DWORD PTR _rcClient$[ebp+4], edx
  00eea	8b 48 08	 mov	 ecx, DWORD PTR [eax+8]
  00eed	89 4d f8	 mov	 DWORD PTR _rcClient$[ebp+8], ecx
  00ef0	8b 50 0c	 mov	 edx, DWORD PTR [eax+12]
  00ef3	89 55 fc	 mov	 DWORD PTR _rcClient$[ebp+12], edx

; 422  : 
; 423  : 	// Add a Border around the rootPane
; 424  : 	rcClient.top	+= m_sizeRootBorders.cy;

  00ef6	8b 45 98	 mov	 eax, DWORD PTR _this$[ebp]
  00ef9	8b 4d f4	 mov	 ecx, DWORD PTR _rcClient$[ebp+4]
  00efc	03 48 40	 add	 ecx, DWORD PTR [eax+64]
  00eff	89 4d f4	 mov	 DWORD PTR _rcClient$[ebp+4], ecx

; 425  : 	rcClient.bottom -= m_sizeRootBorders.cy;

  00f02	8b 55 98	 mov	 edx, DWORD PTR _this$[ebp]
  00f05	8b 45 fc	 mov	 eax, DWORD PTR _rcClient$[ebp+12]
  00f08	2b 42 40	 sub	 eax, DWORD PTR [edx+64]
  00f0b	89 45 fc	 mov	 DWORD PTR _rcClient$[ebp+12], eax

; 426  : 	rcClient.left	+= m_sizeRootBorders.cx;

  00f0e	8b 4d 98	 mov	 ecx, DWORD PTR _this$[ebp]
  00f11	8b 55 f0	 mov	 edx, DWORD PTR _rcClient$[ebp]
  00f14	03 51 3c	 add	 edx, DWORD PTR [ecx+60]
  00f17	89 55 f0	 mov	 DWORD PTR _rcClient$[ebp], edx

; 427  : 	rcClient.right	-= m_sizeRootBorders.cx;

  00f1a	8b 45 98	 mov	 eax, DWORD PTR _this$[ebp]
  00f1d	8b 4d f8	 mov	 ecx, DWORD PTR _rcClient$[ebp+8]
  00f20	2b 48 3c	 sub	 ecx, DWORD PTR [eax+60]
  00f23	89 4d f8	 mov	 DWORD PTR _rcClient$[ebp+8], ecx

; 428  : 
; 429  : 	//Offset the lefttop corner
; 430  : 	rcClient.top	+= m_nTCY;

  00f26	8b 55 98	 mov	 edx, DWORD PTR _this$[ebp]
  00f29	8b 45 f4	 mov	 eax, DWORD PTR _rcClient$[ebp+4]
  00f2c	03 42 4c	 add	 eax, DWORD PTR [edx+76]
  00f2f	89 45 f4	 mov	 DWORD PTR _rcClient$[ebp+4], eax

; 431  : 	rcClient.bottom -= m_nBCY;

  00f32	8b 4d 98	 mov	 ecx, DWORD PTR _this$[ebp]
  00f35	8b 55 fc	 mov	 edx, DWORD PTR _rcClient$[ebp+12]
  00f38	2b 51 50	 sub	 edx, DWORD PTR [ecx+80]
  00f3b	89 55 fc	 mov	 DWORD PTR _rcClient$[ebp+12], edx

; 432  : 	rcClient.left	+= m_nLCX;

  00f3e	8b 45 98	 mov	 eax, DWORD PTR _this$[ebp]
  00f41	8b 4d f0	 mov	 ecx, DWORD PTR _rcClient$[ebp]
  00f44	03 48 44	 add	 ecx, DWORD PTR [eax+68]
  00f47	89 4d f0	 mov	 DWORD PTR _rcClient$[ebp], ecx

; 433  : 	rcClient.right  -= m_nRCX;

  00f4a	8b 55 98	 mov	 edx, DWORD PTR _this$[ebp]
  00f4d	8b 45 f8	 mov	 eax, DWORD PTR _rcClient$[ebp+8]
  00f50	2b 42 48	 sub	 eax, DWORD PTR [edx+72]
  00f53	89 45 f8	 mov	 DWORD PTR _rcClient$[ebp+8], eax

; 434  : 
; 435  : 	if(GetWnd()->IsWindowVisible()) {

  00f56	8b 4d 98	 mov	 ecx, DWORD PTR _this$[ebp]
  00f59	e8 00 00 00 00	 call	 ?GetWnd@ETSLayoutMgr@@QAEPAVCWnd@@XZ ; ETSLayoutMgr::GetWnd
  00f5e	8b c8		 mov	 ecx, eax
  00f60	e8 00 00 00 00	 call	 ?IsWindowVisible@CWnd@@QBEHXZ ; CWnd::IsWindowVisible
  00f65	85 c0		 test	 eax, eax
  00f67	74 11		 je	 SHORT $L200928

; 436  : 		// Avoid ugly artifacts
; 437  : 		//GetWnd()->SetRedraw(FALSE);
; 438  : 		Layout(rcClient);

  00f69	8d 4d f0	 lea	 ecx, DWORD PTR _rcClient$[ebp]
  00f6c	51		 push	 ecx
  00f6d	8b 55 98	 mov	 edx, DWORD PTR _this$[ebp]
  00f70	8b 02		 mov	 eax, DWORD PTR [edx]
  00f72	8b 4d 98	 mov	 ecx, DWORD PTR _this$[ebp]
  00f75	ff 50 14	 call	 DWORD PTR [eax+20]

; 439  : 		//GetWnd()->SetRedraw(TRUE);
; 440  : 	}
; 441  : 	else

  00f78	eb 0f		 jmp	 SHORT $L200929
$L200928:

; 442  : 		Layout(rcClient);

  00f7a	8d 4d f0	 lea	 ecx, DWORD PTR _rcClient$[ebp]
  00f7d	51		 push	 ecx
  00f7e	8b 55 98	 mov	 edx, DWORD PTR _this$[ebp]
  00f81	8b 02		 mov	 eax, DWORD PTR [edx]
  00f83	8b 4d 98	 mov	 ecx, DWORD PTR _this$[ebp]
  00f86	ff 50 14	 call	 DWORD PTR [eax+20]
$L200929:

; 443  : 
; 444  : 	// Take special care of SpinButtons (Up-Down Controls) with Buddy set, enumerate
; 445  : 	// all childs:
; 446  : 	//CWnd* pWndChild = GetWnd()->GetWindow(GW_CHILD);
; 447  : 	//TCHAR szClassName[ MAX_PATH ];
; 448  : 	//while(pWndChild)
; 449  : 	//{
; 450  : 	//	::GetClassName( pWndChild->GetSafeHwnd(), szClassName, MAX_PATH );
; 451  : 	//	DWORD dwStyle = pWndChild->GetStyle();
; 452  : 
; 453  : 	//	// is it a SpinButton?
; 454  : 	//	if( _tcscmp(szClassName, UPDOWN_CLASS)==0 && ::IsWindowVisible(pWndChild->GetSafeHwnd()) ) {
; 455  : 	//		HWND hwndBuddy = (HWND)::SendMessage( pWndChild->GetSafeHwnd(), UDM_GETBUDDY, 0, 0);
; 456  : 	//		if( hwndBuddy != 0 && (dwStyle&(UDS_ALIGNRIGHT|UDS_ALIGNLEFT)) != 0 )
; 457  : 	//		{
; 458  : 	//			// reset Buddy
; 459  : 	//			::SendMessage( pWndChild->GetSafeHwnd(), UDM_SETBUDDY, (WPARAM)hwndBuddy, 0);
; 460  : 	//		}
; 461  : 	//	}
; 462  : 	//	
; 463  : 
; 464  : 	//	pWndChild = pWndChild->GetWindow(GW_HWNDNEXT);
; 465  : 	//}
; 466  : 
; 467  : 	GetWnd()->Invalidate();

  00f89	6a 01		 push	 1
  00f8b	8b 4d 98	 mov	 ecx, DWORD PTR _this$[ebp]
  00f8e	e8 00 00 00 00	 call	 ?GetWnd@ETSLayoutMgr@@QAEPAVCWnd@@XZ ; ETSLayoutMgr::GetWnd
  00f93	8b c8		 mov	 ecx, eax
  00f95	e8 00 00 00 00	 call	 ?Invalidate@CWnd@@QAEXH@Z ; CWnd::Invalidate
$L200907:

; 468  : }

  00f9a	5e		 pop	 esi
  00f9b	8b e5		 mov	 esp, ebp
  00f9d	5d		 pop	 ebp
  00f9e	c3		 ret	 0
?UpdateLayout@ETSLayoutMgr@@UAEXXZ ENDP			; ETSLayoutMgr::UpdateLayout
; Function compile flags: /Odt
; File d:\boxgit\playbox\playbox\dev\prj\playbox\src\layoutmgr\etslayout.h
_TEXT	ENDS
;	COMDAT ??7CPaneBase@ETSLayoutMgr@@QAE_NXZ
_TEXT	SEGMENT
_this$ = -4						; size = 4
??7CPaneBase@ETSLayoutMgr@@QAE_NXZ PROC NEAR		; ETSLayoutMgr::CPaneBase::operator!, COMDAT
; _this$ = ecx

; 392  : 		bool operator !()			{ return (m_pPaneHolder == 0); }

  00000	55		 push	 ebp
  00001	8b ec		 mov	 ebp, esp
  00003	51		 push	 ecx
  00004	89 4d fc	 mov	 DWORD PTR _this$[ebp], ecx
  00007	8b 45 fc	 mov	 eax, DWORD PTR _this$[ebp]
  0000a	33 c9		 xor	 ecx, ecx
  0000c	83 38 00	 cmp	 DWORD PTR [eax], 0
  0000f	0f 94 c1	 sete	 cl
  00012	8a c1		 mov	 al, cl
  00014	8b e5		 mov	 esp, ebp
  00016	5d		 pop	 ebp
  00017	c3		 ret	 0
??7CPaneBase@ETSLayoutMgr@@QAE_NXZ ENDP			; ETSLayoutMgr::CPaneBase::operator!
_TEXT	ENDS
PUBLIC	?Save@ETSLayoutMgr@@QAE_NPBD@Z			; ETSLayoutMgr::Save
PUBLIC	?AfxGetApp@@YGPAVCWinApp@@XZ			; AfxGetApp
EXTRN	?GetWindowPlacement@CWnd@@QBEHPAUtagWINDOWPLACEMENT@@@Z:NEAR ; CWnd::GetWindowPlacement
EXTRN	__imp__IsWindow@4:NEAR
EXTRN	?WriteProfileBinary@CWinApp@@QAEHPBD0PAEI@Z:NEAR ; CWinApp::WriteProfileBinary
; Function compile flags: /Odt
; File d:\boxgit\playbox\playbox\dev\prj\playbox\src\layoutmgr\etslayout.cpp
_TEXT	SEGMENT
_this$ = -64						; size = 4
_wp$200936 = -60					; size = 44
_rcWnd$ = -16						; size = 16
_lpstrRegKey$ = 8					; size = 4
?Save@ETSLayoutMgr@@QAE_NPBD@Z PROC NEAR		; ETSLayoutMgr::Save
; _this$ = ecx

; 472  : {

  00fa0	55		 push	 ebp
  00fa1	8b ec		 mov	 ebp, esp
  00fa3	83 ec 40	 sub	 esp, 64			; 00000040H
  00fa6	89 4d c0	 mov	 DWORD PTR _this$[ebp], ecx

; 473  :     CRect rcWnd;

  00fa9	8d 4d f0	 lea	 ecx, DWORD PTR _rcWnd$[ebp]
  00fac	e8 00 00 00 00	 call	 ??0CRect@@QAE@XZ	; CRect::CRect

; 474  : 
; 475  :     if(IsWindow(GetWnd()->m_hWnd))

  00fb1	8b 4d c0	 mov	 ecx, DWORD PTR _this$[ebp]
  00fb4	e8 00 00 00 00	 call	 ?GetWnd@ETSLayoutMgr@@QAEPAVCWnd@@XZ ; ETSLayoutMgr::GetWnd
  00fb9	8b 40 20	 mov	 eax, DWORD PTR [eax+32]
  00fbc	50		 push	 eax
  00fbd	ff 15 00 00 00
	00		 call	 DWORD PTR __imp__IsWindow@4
  00fc3	85 c0		 test	 eax, eax
  00fc5	74 3f		 je	 SHORT $L200935

; 476  :     {
; 477  :         WINDOWPLACEMENT wp;
; 478  :         if(GetWnd()->GetWindowPlacement(&wp))

  00fc7	8d 4d c4	 lea	 ecx, DWORD PTR _wp$200936[ebp]
  00fca	51		 push	 ecx
  00fcb	8b 4d c0	 mov	 ecx, DWORD PTR _this$[ebp]
  00fce	e8 00 00 00 00	 call	 ?GetWnd@ETSLayoutMgr@@QAEPAVCWnd@@XZ ; ETSLayoutMgr::GetWnd
  00fd3	8b c8		 mov	 ecx, eax
  00fd5	e8 00 00 00 00	 call	 ?GetWindowPlacement@CWnd@@QBEHPAUtagWINDOWPLACEMENT@@@Z ; CWnd::GetWindowPlacement
  00fda	85 c0		 test	 eax, eax
  00fdc	74 28		 je	 SHORT $L200935

; 479  :         {
; 480  :             // Make sure we don't pop up 
; 481  :             // minimized the next time
; 482  :             if(wp.showCmd != SW_SHOWMAXIMIZED)

  00fde	83 7d cc 03	 cmp	 DWORD PTR _wp$200936[ebp+8], 3
  00fe2	74 07		 je	 SHORT $L200938

; 483  :                 wp.showCmd = SW_SHOWNORMAL;

  00fe4	c7 45 cc 01 00
	00 00		 mov	 DWORD PTR _wp$200936[ebp+8], 1
$L200938:

; 484  : 
; 485  :             AfxGetApp()->WriteProfileBinary(lpstrRegKey, 
; 486  :                 _T("WindowPlacement"), 
; 487  :                 reinterpret_cast<LPBYTE>(&wp), sizeof(wp));

  00feb	6a 2c		 push	 44			; 0000002cH
  00fed	8d 55 c4	 lea	 edx, DWORD PTR _wp$200936[ebp]
  00ff0	52		 push	 edx
  00ff1	68 00 00 00 00	 push	 OFFSET FLAT:$SG200940
  00ff6	8b 45 08	 mov	 eax, DWORD PTR _lpstrRegKey$[ebp]
  00ff9	50		 push	 eax
  00ffa	e8 00 00 00 00	 call	 ?AfxGetApp@@YGPAVCWinApp@@XZ ; AfxGetApp
  00fff	8b c8		 mov	 ecx, eax
  01001	e8 00 00 00 00	 call	 ?WriteProfileBinary@CWinApp@@QAEHPBD0PAEI@Z ; CWinApp::WriteProfileBinary
$L200935:

; 488  :         }
; 489  :     }
; 490  :     return true;

  01006	b0 01		 mov	 al, 1

; 491  : }

  01008	8b e5		 mov	 esp, ebp
  0100a	5d		 pop	 ebp
  0100b	c2 04 00	 ret	 4
?Save@ETSLayoutMgr@@QAE_NPBD@Z ENDP			; ETSLayoutMgr::Save
_TEXT	ENDS
PUBLIC	?Load@ETSLayoutMgr@@QAE_NPBD@Z			; ETSLayoutMgr::Load
EXTRN	?SetWindowPlacement@CWnd@@QAEHPBUtagWINDOWPLACEMENT@@@Z:NEAR ; CWnd::SetWindowPlacement
EXTRN	??_V@YAXPAX@Z:NEAR				; operator delete[]
EXTRN	?GetProfileBinary@CWinApp@@QAEHPBD0PAPAEPAI@Z:NEAR ; CWinApp::GetProfileBinary
; Function compile flags: /Odt
_TEXT	SEGMENT
_this$ = -20						; size = 4
$T205036 = -16						; size = 4
_pwp$200949 = -12					; size = 4
_pbtData$ = -8						; size = 4
_nSize$ = -4						; size = 4
_lpstrRegKey$ = 8					; size = 4
?Load@ETSLayoutMgr@@QAE_NPBD@Z PROC NEAR		; ETSLayoutMgr::Load
; _this$ = ecx

; 494  : {

  01010	55		 push	 ebp
  01011	8b ec		 mov	 ebp, esp
  01013	83 ec 14	 sub	 esp, 20			; 00000014H
  01016	89 4d ec	 mov	 DWORD PTR _this$[ebp], ecx

; 495  :     LPBYTE pbtData = 0;

  01019	c7 45 f8 00 00
	00 00		 mov	 DWORD PTR _pbtData$[ebp], 0

; 496  :     UINT nSize = 0;

  01020	c7 45 fc 00 00
	00 00		 mov	 DWORD PTR _nSize$[ebp], 0

; 497  :     if(AfxGetApp()->GetProfileBinary(lpstrRegKey,
; 498  :         _T("WindowPlacement"), &pbtData, &nSize))

  01027	8d 45 fc	 lea	 eax, DWORD PTR _nSize$[ebp]
  0102a	50		 push	 eax
  0102b	8d 4d f8	 lea	 ecx, DWORD PTR _pbtData$[ebp]
  0102e	51		 push	 ecx
  0102f	68 00 00 00 00	 push	 OFFSET FLAT:$SG200948
  01034	8b 55 08	 mov	 edx, DWORD PTR _lpstrRegKey$[ebp]
  01037	52		 push	 edx
  01038	e8 00 00 00 00	 call	 ?AfxGetApp@@YGPAVCWinApp@@XZ ; AfxGetApp
  0103d	8b c8		 mov	 ecx, eax
  0103f	e8 00 00 00 00	 call	 ?GetProfileBinary@CWinApp@@QAEHPBD0PAPAEPAI@Z ; CWinApp::GetProfileBinary
  01044	85 c0		 test	 eax, eax
  01046	74 31		 je	 SHORT $L200947

; 499  :     {
; 500  :         WINDOWPLACEMENT* pwp = 
; 501  :             reinterpret_cast<WINDOWPLACEMENT*>(pbtData);

  01048	8b 45 f8	 mov	 eax, DWORD PTR _pbtData$[ebp]
  0104b	89 45 f4	 mov	 DWORD PTR _pwp$200949[ebp], eax

; 502  : 		
; 503  :         ASSERT(nSize == sizeof(WINDOWPLACEMENT));
; 504  :         if(nSize == sizeof(WINDOWPLACEMENT))

  0104e	83 7d fc 2c	 cmp	 DWORD PTR _nSize$[ebp], 44 ; 0000002cH
  01052	75 13		 jne	 SHORT $L200953

; 505  :             GetWnd()->SetWindowPlacement(reinterpret_cast<WINDOWPLACEMENT*>(pbtData));

  01054	8b 4d f8	 mov	 ecx, DWORD PTR _pbtData$[ebp]
  01057	51		 push	 ecx
  01058	8b 4d ec	 mov	 ecx, DWORD PTR _this$[ebp]
  0105b	e8 00 00 00 00	 call	 ?GetWnd@ETSLayoutMgr@@QAEPAVCWnd@@XZ ; ETSLayoutMgr::GetWnd
  01060	8b c8		 mov	 ecx, eax
  01062	e8 00 00 00 00	 call	 ?SetWindowPlacement@CWnd@@QAEHPBUtagWINDOWPLACEMENT@@@Z ; CWnd::SetWindowPlacement
$L200953:

; 506  : 
; 507  :         delete [] pbtData;

  01067	8b 55 f8	 mov	 edx, DWORD PTR _pbtData$[ebp]
  0106a	89 55 f0	 mov	 DWORD PTR $T205036[ebp], edx
  0106d	8b 45 f0	 mov	 eax, DWORD PTR $T205036[ebp]
  01070	50		 push	 eax
  01071	e8 00 00 00 00	 call	 ??_V@YAXPAX@Z		; operator delete[]
  01076	83 c4 04	 add	 esp, 4
$L200947:

; 508  :     }
; 509  :     return true;

  01079	b0 01		 mov	 al, 1

; 510  : }

  0107b	8b e5		 mov	 esp, ebp
  0107d	5d		 pop	 ebp
  0107e	c2 04 00	 ret	 4
?Load@ETSLayoutMgr@@QAE_NPBD@Z ENDP			; ETSLayoutMgr::Load
_TEXT	ENDS
PUBLIC	?AdjustRect@CTabCtrl@@QAEXHPAUtagRECT@@@Z	; CTabCtrl::AdjustRect
PUBLIC	??_H@YGXPAXIHP6EPAX0@Z@Z			; `vector constructor iterator'
PUBLIC	??0CPoint@@QAE@XZ				; CPoint::CPoint
PUBLIC	??0CPoint@@QAE@HH@Z				; CPoint::CPoint
PUBLIC	__tcscmp
PUBLIC	?FillRgn@CDC@@QAEHPAVCRgn@@PAVCBrush@@@Z	; CDC::FillRgn
PUBLIC	?GetNextWindow@CWnd@@QBEPAV1@I@Z		; CWnd::GetNextWindow
PUBLIC	?GetWindow@CWnd@@QBEPAV1@I@Z			; CWnd::GetWindow
PUBLIC	?EraseBkgnd@ETSLayoutMgr@@QAEXPAVCDC@@@Z	; ETSLayoutMgr::EraseBkgnd
PUBLIC	?FromHandle@CBrush@@SGPAV1@PAUHBRUSH__@@@Z	; CBrush::FromHandle
PUBLIC	?GetSafeHwnd@CWnd@@QBEPAUHWND__@@XZ		; CWnd::GetSafeHwnd
PUBLIC	??0CRgn@@QAE@XZ					; CRgn::CRgn
PUBLIC	?CreateRectRgn@CRgn@@QAEHHHHH@Z			; CRgn::CreateRectRgn
PUBLIC	?CreateRectRgnIndirect@CRgn@@QAEHPBUtagRECT@@@Z	; CRgn::CreateRectRgnIndirect
PUBLIC	?CreatePolygonRgn@CRgn@@QAEHPAUtagPOINT@@HH@Z	; CRgn::CreatePolygonRgn
PUBLIC	?SetRectRgn@CRgn@@QAEXPBUtagRECT@@@Z		; CRgn::SetRectRgn
PUBLIC	?CombineRgn@CRgn@@QAEHPAV1@0H@Z			; CRgn::CombineRgn
PUBLIC	??1CRgn@@UAE@XZ					; CRgn::~CRgn
EXTRN	?ScreenToClient@CWnd@@QBEXPAUtagRECT@@@Z:NEAR	; CWnd::ScreenToClient
EXTRN	?SelectClipRgn@CDC@@QAEHPAVCRgn@@@Z:NEAR	; CDC::SelectClipRgn
EXTRN	__imp__GetSysColorBrush@4:NEAR
EXTRN	__imp__GetClassLongA@8:NEAR
EXTRN	__imp__GetClassNameA@12:NEAR
xdata$x	SEGMENT
$T205050 DD	0ffffffffH
	DD	FLAT:$L205042
	DD	00H
	DD	FLAT:$L205043
	DD	01H
	DD	FLAT:$L205044
	DD	01H
	DD	FLAT:$L205045
$T205047 DD	019930520H
	DD	04H
	DD	FLAT:$T205050
	DD	2 DUP(00H)
	DD	2 DUP(00H)
; Function compile flags: /Odt
xdata$x	ENDS
_TEXT	SEGMENT
_this$ = -408						; size = 4
$T205041 = -404						; size = 8
$T205040 = -396						; size = 8
$T205039 = -388						; size = 8
_ptTriangleGrip$200981 = -380				; size = 24
_rgnGripper$200986 = -356				; size = 8
_rgnContent$200977 = -348				; size = 8
_dwStyle$200969 = -340					; size = 4
_pWndChild$ = -336					; size = 4
_rcClient$ = -332					; size = 16
_rcChild$ = -316					; size = 16
_rgnRect$ = -300					; size = 8
_szClassName$ = -292					; size = 260
__$ArrayPad$ = -28					; size = 4
_hBrBack$ = -24						; size = 4
_rgn$ = -20						; size = 8
__$EHRec$ = -12						; size = 12
__$ReturnAddr$ = 4					; size = 4
_pDC$ = 8						; size = 4
?EraseBkgnd@ETSLayoutMgr@@QAEXPAVCDC@@@Z PROC NEAR	; ETSLayoutMgr::EraseBkgnd
; _this$ = ecx

; 514  : {

  01090	55		 push	 ebp
  01091	8b ec		 mov	 ebp, esp
  01093	6a ff		 push	 -1
  01095	68 00 00 00 00	 push	 __ehhandler$?EraseBkgnd@ETSLayoutMgr@@QAEXPAVCDC@@@Z
  0109a	64 a1 00 00 00
	00		 mov	 eax, DWORD PTR fs:__except_list
  010a0	50		 push	 eax
  010a1	64 89 25 00 00
	00 00		 mov	 DWORD PTR fs:__except_list, esp
  010a8	81 ec 8c 01 00
	00		 sub	 esp, 396		; 0000018cH
  010ae	a1 00 00 00 00	 mov	 eax, DWORD PTR ___security_cookie
  010b3	89 45 e4	 mov	 DWORD PTR __$ArrayPad$[ebp], eax
  010b6	89 8d 68 fe ff
	ff		 mov	 DWORD PTR _this$[ebp], ecx

; 515  : 	CRect	rcClient;

  010bc	8d 8d b4 fe ff
	ff		 lea	 ecx, DWORD PTR _rcClient$[ebp]
  010c2	e8 00 00 00 00	 call	 ??0CRect@@QAE@XZ	; CRect::CRect

; 516  : 	GetWnd()->GetClientRect( rcClient );

  010c7	8d 8d b4 fe ff
	ff		 lea	 ecx, DWORD PTR _rcClient$[ebp]
  010cd	e8 00 00 00 00	 call	 ??BCRect@@QAEPAUtagRECT@@XZ ; CRect::operator tagRECT *
  010d2	50		 push	 eax
  010d3	8b 8d 68 fe ff
	ff		 mov	 ecx, DWORD PTR _this$[ebp]
  010d9	e8 00 00 00 00	 call	 ?GetWnd@ETSLayoutMgr@@QAEPAVCWnd@@XZ ; ETSLayoutMgr::GetWnd
  010de	8b c8		 mov	 ecx, eax
  010e0	e8 00 00 00 00	 call	 ?GetClientRect@CWnd@@QBEXPAUtagRECT@@@Z ; CWnd::GetClientRect

; 517  : 
; 518  : 	CRgn	rgn;

  010e5	8d 4d ec	 lea	 ecx, DWORD PTR _rgn$[ebp]
  010e8	e8 00 00 00 00	 call	 ??0CRgn@@QAE@XZ		; CRgn::CRgn
  010ed	c7 45 fc 00 00
	00 00		 mov	 DWORD PTR __$EHRec$[ebp+8], 0

; 519  : 	rgn.CreateRectRgnIndirect(rcClient);

  010f4	8d 8d b4 fe ff
	ff		 lea	 ecx, DWORD PTR _rcClient$[ebp]
  010fa	e8 00 00 00 00	 call	 ??BCRect@@QAEPAUtagRECT@@XZ ; CRect::operator tagRECT *
  010ff	50		 push	 eax
  01100	8d 4d ec	 lea	 ecx, DWORD PTR _rgn$[ebp]
  01103	e8 00 00 00 00	 call	 ?CreateRectRgnIndirect@CRgn@@QAEHPBUtagRECT@@@Z ; CRgn::CreateRectRgnIndirect

; 520  :     TRACE("CreateRgn (%d,%d,%d,%d)\n", rcClient.left, rcClient.top, rcClient.right, rcClient.bottom );
; 521  : 
; 522  : 	CRgn    rgnRect;

  01108	8d 8d d4 fe ff
	ff		 lea	 ecx, DWORD PTR _rgnRect$[ebp]
  0110e	e8 00 00 00 00	 call	 ??0CRgn@@QAE@XZ		; CRgn::CRgn
  01113	c6 45 fc 01	 mov	 BYTE PTR __$EHRec$[ebp+8], 1

; 523  : 	rgnRect.CreateRectRgn(0,0,0,0);

  01117	6a 00		 push	 0
  01119	6a 00		 push	 0
  0111b	6a 00		 push	 0
  0111d	6a 00		 push	 0
  0111f	8d 8d d4 fe ff
	ff		 lea	 ecx, DWORD PTR _rgnRect$[ebp]
  01125	e8 00 00 00 00	 call	 ?CreateRectRgn@CRgn@@QAEHHHHH@Z ; CRgn::CreateRectRgn

; 524  : 
; 525  : 	CRect	rcChild;

  0112a	8d 8d c4 fe ff
	ff		 lea	 ecx, DWORD PTR _rcChild$[ebp]
  01130	e8 00 00 00 00	 call	 ??0CRect@@QAE@XZ	; CRect::CRect

; 526  : 	CWnd* pWndChild = GetWnd()->GetWindow( GW_CHILD );

  01135	6a 05		 push	 5
  01137	8b 8d 68 fe ff
	ff		 mov	 ecx, DWORD PTR _this$[ebp]
  0113d	e8 00 00 00 00	 call	 ?GetWnd@ETSLayoutMgr@@QAEPAVCWnd@@XZ ; ETSLayoutMgr::GetWnd
  01142	8b c8		 mov	 ecx, eax
  01144	e8 00 00 00 00	 call	 ?GetWindow@CWnd@@QBEPAV1@I@Z ; CWnd::GetWindow
  01149	89 85 b0 fe ff
	ff		 mov	 DWORD PTR _pWndChild$[ebp], eax

; 527  : 
; 528  : 	TCHAR szClassName[ MAX_PATH ];
; 529  : 
; 530  :     pDC->SelectClipRgn(NULL);

  0114f	6a 00		 push	 0
  01151	8b 4d 08	 mov	 ecx, DWORD PTR _pDC$[ebp]
  01154	e8 00 00 00 00	 call	 ?SelectClipRgn@CDC@@QAEHPAVCRgn@@@Z ; CDC::SelectClipRgn
$L200967:

; 531  :     
; 532  : 	while( pWndChild ) {

  01159	83 bd b0 fe ff
	ff 00		 cmp	 DWORD PTR _pWndChild$[ebp], 0
  01160	0f 84 8b 02 00
	00		 je	 $L200968

; 533  : 		
; 534  : 		pWndChild->GetWindowRect(rcChild);

  01166	8d 8d c4 fe ff
	ff		 lea	 ecx, DWORD PTR _rcChild$[ebp]
  0116c	e8 00 00 00 00	 call	 ??BCRect@@QAEPAUtagRECT@@XZ ; CRect::operator tagRECT *
  01171	50		 push	 eax
  01172	8b 8d b0 fe ff
	ff		 mov	 ecx, DWORD PTR _pWndChild$[ebp]
  01178	e8 00 00 00 00	 call	 ?GetWindowRect@CWnd@@QBEXPAUtagRECT@@@Z ; CWnd::GetWindowRect

; 535  : 		GetWnd()->ScreenToClient( rcChild );

  0117d	8d 8d c4 fe ff
	ff		 lea	 ecx, DWORD PTR _rcChild$[ebp]
  01183	e8 00 00 00 00	 call	 ??BCRect@@QAEPAUtagRECT@@XZ ; CRect::operator tagRECT *
  01188	50		 push	 eax
  01189	8b 8d 68 fe ff
	ff		 mov	 ecx, DWORD PTR _this$[ebp]
  0118f	e8 00 00 00 00	 call	 ?GetWnd@ETSLayoutMgr@@QAEPAVCWnd@@XZ ; ETSLayoutMgr::GetWnd
  01194	8b c8		 mov	 ecx, eax
  01196	e8 00 00 00 00	 call	 ?ScreenToClient@CWnd@@QBEXPAUtagRECT@@@Z ; CWnd::ScreenToClient

; 536  : 
; 537  : 		rgnRect.SetRectRgn( rcChild );

  0119b	8d 8d c4 fe ff
	ff		 lea	 ecx, DWORD PTR _rcChild$[ebp]
  011a1	e8 00 00 00 00	 call	 ??BCRect@@QAEPAUtagRECT@@XZ ; CRect::operator tagRECT *
  011a6	50		 push	 eax
  011a7	8d 8d d4 fe ff
	ff		 lea	 ecx, DWORD PTR _rgnRect$[ebp]
  011ad	e8 00 00 00 00	 call	 ?SetRectRgn@CRgn@@QAEXPBUtagRECT@@@Z ; CRgn::SetRectRgn

; 538  : 	
; 539  : 		::GetClassName( pWndChild->GetSafeHwnd(), szClassName, MAX_PATH );

  011b2	68 04 01 00 00	 push	 260			; 00000104H
  011b7	8d 85 dc fe ff
	ff		 lea	 eax, DWORD PTR _szClassName$[ebp]
  011bd	50		 push	 eax
  011be	8b 8d b0 fe ff
	ff		 mov	 ecx, DWORD PTR _pWndChild$[ebp]
  011c4	e8 00 00 00 00	 call	 ?GetSafeHwnd@CWnd@@QBEPAUHWND__@@XZ ; CWnd::GetSafeHwnd
  011c9	50		 push	 eax
  011ca	ff 15 00 00 00
	00		 call	 DWORD PTR __imp__GetClassNameA@12

; 540  : 		DWORD dwStyle = pWndChild->GetStyle();

  011d0	8b 8d b0 fe ff
	ff		 mov	 ecx, DWORD PTR _pWndChild$[ebp]
  011d6	e8 00 00 00 00	 call	 ?GetStyle@CWnd@@QBEKXZ	; CWnd::GetStyle
  011db	89 85 ac fe ff
	ff		 mov	 DWORD PTR _dwStyle$200969[ebp], eax

; 541  : 
; 542  : 		// doesn't make sense for hidden children
; 543  : 		if( dwStyle & WS_VISIBLE ) {

  011e1	8b 8d ac fe ff
	ff		 mov	 ecx, DWORD PTR _dwStyle$200969[ebp]
  011e7	81 e1 00 00 00
	10		 and	 ecx, 268435456		; 10000000H
  011ed	0f 84 e6 01 00
	00		 je	 $L200970

; 544  : 
; 545  :             // Fix: BS_GROUPBOX is more than one Bit, extend check to (dwStyle & BS_GROUPBOX)==BS_GROUPBOX [ET]
; 546  : 			if( _tcscmp(szClassName,_T("Button"))==0 && (dwStyle & BS_GROUPBOX)==BS_GROUPBOX ) {

  011f3	68 00 00 00 00	 push	 OFFSET FLAT:$SG200972
  011f8	8d 95 dc fe ff
	ff		 lea	 edx, DWORD PTR _szClassName$[ebp]
  011fe	52		 push	 edx
  011ff	e8 00 00 00 00	 call	 __tcscmp
  01204	83 c4 08	 add	 esp, 8
  01207	85 c0		 test	 eax, eax
  01209	75 13		 jne	 SHORT $L200971
  0120b	8b 85 ac fe ff
	ff		 mov	 eax, DWORD PTR _dwStyle$200969[ebp]
  01211	83 e0 07	 and	 eax, 7
  01214	83 f8 07	 cmp	 eax, 7
  01217	75 05		 jne	 SHORT $L200971

; 547  : 				// it is a group-box, ignore completely
; 548  : 			}
; 549  : 			else if( _tcscmp(szClassName,WC_TABCONTROL )==0 ) {

  01219	e9 bb 01 00 00	 jmp	 $L200970
$L200971:
  0121e	68 00 00 00 00	 push	 OFFSET FLAT:$SG200975
  01223	8d 8d dc fe ff
	ff		 lea	 ecx, DWORD PTR _szClassName$[ebp]
  01229	51		 push	 ecx
  0122a	e8 00 00 00 00	 call	 __tcscmp
  0122f	83 c4 08	 add	 esp, 8
  01232	85 c0		 test	 eax, eax
  01234	0f 85 83 00 00
	00		 jne	 $L200974

; 550  : 				// ignore Tab-Control's inside rect
; 551  : 				static_cast<CTabCtrl*>(pWndChild)->AdjustRect(FALSE,rcChild);

  0123a	8d 8d c4 fe ff
	ff		 lea	 ecx, DWORD PTR _rcChild$[ebp]
  01240	e8 00 00 00 00	 call	 ??BCRect@@QAEPAUtagRECT@@XZ ; CRect::operator tagRECT *
  01245	50		 push	 eax
  01246	6a 00		 push	 0
  01248	8b 8d b0 fe ff
	ff		 mov	 ecx, DWORD PTR _pWndChild$[ebp]
  0124e	e8 00 00 00 00	 call	 ?AdjustRect@CTabCtrl@@QAEXHPAUtagRECT@@@Z ; CTabCtrl::AdjustRect

; 552  : 
; 553  : 				CRgn rgnContent;

  01253	8d 8d a4 fe ff
	ff		 lea	 ecx, DWORD PTR _rgnContent$200977[ebp]
  01259	e8 00 00 00 00	 call	 ??0CRgn@@QAE@XZ		; CRgn::CRgn
  0125e	c6 45 fc 02	 mov	 BYTE PTR __$EHRec$[ebp+8], 2

; 554  : 				rgnContent.CreateRectRgnIndirect(rcChild);

  01262	8d 8d c4 fe ff
	ff		 lea	 ecx, DWORD PTR _rcChild$[ebp]
  01268	e8 00 00 00 00	 call	 ??BCRect@@QAEPAUtagRECT@@XZ ; CRect::operator tagRECT *
  0126d	50		 push	 eax
  0126e	8d 8d a4 fe ff
	ff		 lea	 ecx, DWORD PTR _rgnContent$200977[ebp]
  01274	e8 00 00 00 00	 call	 ?CreateRectRgnIndirect@CRgn@@QAEHPBUtagRECT@@@Z ; CRgn::CreateRectRgnIndirect

; 555  : 
; 556  : 				rgnRect.CombineRgn( &rgnRect, &rgnContent, RGN_DIFF );

  01279	6a 04		 push	 4
  0127b	8d 95 a4 fe ff
	ff		 lea	 edx, DWORD PTR _rgnContent$200977[ebp]
  01281	52		 push	 edx
  01282	8d 85 d4 fe ff
	ff		 lea	 eax, DWORD PTR _rgnRect$[ebp]
  01288	50		 push	 eax
  01289	8d 8d d4 fe ff
	ff		 lea	 ecx, DWORD PTR _rgnRect$[ebp]
  0128f	e8 00 00 00 00	 call	 ?CombineRgn@CRgn@@QAEHPAV1@0H@Z ; CRgn::CombineRgn

; 557  : 				rgn.CombineRgn( &rgn, &rgnRect, RGN_DIFF );

  01294	6a 04		 push	 4
  01296	8d 8d d4 fe ff
	ff		 lea	 ecx, DWORD PTR _rgnRect$[ebp]
  0129c	51		 push	 ecx
  0129d	8d 55 ec	 lea	 edx, DWORD PTR _rgn$[ebp]
  012a0	52		 push	 edx
  012a1	8d 4d ec	 lea	 ecx, DWORD PTR _rgn$[ebp]
  012a4	e8 00 00 00 00	 call	 ?CombineRgn@CRgn@@QAEHPAV1@0H@Z ; CRgn::CombineRgn

; 558  : 			}

  012a9	c6 45 fc 01	 mov	 BYTE PTR __$EHRec$[ebp+8], 1
  012ad	8d 8d a4 fe ff
	ff		 lea	 ecx, DWORD PTR _rgnContent$200977[ebp]
  012b3	e8 00 00 00 00	 call	 ??1CRgn@@UAE@XZ		; CRgn::~CRgn

; 559  : 			else if( _tcscmp(szClassName,STATUSCLASSNAME)==0 ) {

  012b8	e9 1c 01 00 00	 jmp	 $L200970
$L200974:
  012bd	68 00 00 00 00	 push	 OFFSET FLAT:$SG200980
  012c2	8d 85 dc fe ff
	ff		 lea	 eax, DWORD PTR _szClassName$[ebp]
  012c8	50		 push	 eax
  012c9	e8 00 00 00 00	 call	 __tcscmp
  012ce	83 c4 08	 add	 esp, 8
  012d1	85 c0		 test	 eax, eax
  012d3	0f 85 eb 00 00
	00		 jne	 $L200979

; 560  : 
; 561  : 				CPoint ptTriangleGrip[3];

  012d9	68 00 00 00 00	 push	 OFFSET FLAT:??0CPoint@@QAE@XZ ; CPoint::CPoint
  012de	6a 03		 push	 3
  012e0	6a 08		 push	 8
  012e2	8d 8d 84 fe ff
	ff		 lea	 ecx, DWORD PTR _ptTriangleGrip$200981[ebp]
  012e8	51		 push	 ecx
  012e9	e8 00 00 00 00	 call	 ??_H@YGXPAXIHP6EPAX0@Z@Z

; 562  : 				ptTriangleGrip[0] = CPoint(rcChild.right,rcChild.top);

  012ee	8b 95 c8 fe ff
	ff		 mov	 edx, DWORD PTR _rcChild$[ebp+4]
  012f4	52		 push	 edx
  012f5	8b 85 cc fe ff
	ff		 mov	 eax, DWORD PTR _rcChild$[ebp+8]
  012fb	50		 push	 eax
  012fc	8d 8d 7c fe ff
	ff		 lea	 ecx, DWORD PTR $T205039[ebp]
  01302	e8 00 00 00 00	 call	 ??0CPoint@@QAE@HH@Z	; CPoint::CPoint
  01307	8b 08		 mov	 ecx, DWORD PTR [eax]
  01309	8b 50 04	 mov	 edx, DWORD PTR [eax+4]
  0130c	89 8d 84 fe ff
	ff		 mov	 DWORD PTR _ptTriangleGrip$200981[ebp], ecx
  01312	89 95 88 fe ff
	ff		 mov	 DWORD PTR _ptTriangleGrip$200981[ebp+4], edx

; 563  : 				ptTriangleGrip[1] = CPoint(rcChild.right,rcChild.bottom);

  01318	8b 85 d0 fe ff
	ff		 mov	 eax, DWORD PTR _rcChild$[ebp+12]
  0131e	50		 push	 eax
  0131f	8b 8d cc fe ff
	ff		 mov	 ecx, DWORD PTR _rcChild$[ebp+8]
  01325	51		 push	 ecx
  01326	8d 8d 74 fe ff
	ff		 lea	 ecx, DWORD PTR $T205040[ebp]
  0132c	e8 00 00 00 00	 call	 ??0CPoint@@QAE@HH@Z	; CPoint::CPoint
  01331	8b 10		 mov	 edx, DWORD PTR [eax]
  01333	8b 40 04	 mov	 eax, DWORD PTR [eax+4]
  01336	89 95 8c fe ff
	ff		 mov	 DWORD PTR _ptTriangleGrip$200981[ebp+8], edx
  0133c	89 85 90 fe ff
	ff		 mov	 DWORD PTR _ptTriangleGrip$200981[ebp+12], eax

; 564  : 				ptTriangleGrip[2] = CPoint(rcChild.right-rcChild.Height(),rcChild.bottom);

  01342	8b 8d d0 fe ff
	ff		 mov	 ecx, DWORD PTR _rcChild$[ebp+12]
  01348	51		 push	 ecx
  01349	8d 8d c4 fe ff
	ff		 lea	 ecx, DWORD PTR _rcChild$[ebp]
  0134f	e8 00 00 00 00	 call	 ?Height@CRect@@QBEHXZ	; CRect::Height
  01354	8b 95 cc fe ff
	ff		 mov	 edx, DWORD PTR _rcChild$[ebp+8]
  0135a	2b d0		 sub	 edx, eax
  0135c	52		 push	 edx
  0135d	8d 8d 6c fe ff
	ff		 lea	 ecx, DWORD PTR $T205041[ebp]
  01363	e8 00 00 00 00	 call	 ??0CPoint@@QAE@HH@Z	; CPoint::CPoint
  01368	8b 08		 mov	 ecx, DWORD PTR [eax]
  0136a	8b 50 04	 mov	 edx, DWORD PTR [eax+4]
  0136d	89 8d 94 fe ff
	ff		 mov	 DWORD PTR _ptTriangleGrip$200981[ebp+16], ecx
  01373	89 95 98 fe ff
	ff		 mov	 DWORD PTR _ptTriangleGrip$200981[ebp+20], edx

; 565  : 
; 566  : 				CRgn rgnGripper;

  01379	8d 8d 9c fe ff
	ff		 lea	 ecx, DWORD PTR _rgnGripper$200986[ebp]
  0137f	e8 00 00 00 00	 call	 ??0CRgn@@QAE@XZ		; CRgn::CRgn
  01384	c6 45 fc 03	 mov	 BYTE PTR __$EHRec$[ebp+8], 3

; 567  : 				rgnGripper.CreatePolygonRgn(ptTriangleGrip,3, WINDING);

  01388	6a 02		 push	 2
  0138a	6a 03		 push	 3
  0138c	8d 85 84 fe ff
	ff		 lea	 eax, DWORD PTR _ptTriangleGrip$200981[ebp]
  01392	50		 push	 eax
  01393	8d 8d 9c fe ff
	ff		 lea	 ecx, DWORD PTR _rgnGripper$200986[ebp]
  01399	e8 00 00 00 00	 call	 ?CreatePolygonRgn@CRgn@@QAEHPAUtagPOINT@@HH@Z ; CRgn::CreatePolygonRgn

; 568  : 
; 569  : 				rgn.CombineRgn( &rgn, &rgnGripper, RGN_DIFF );

  0139e	6a 04		 push	 4
  013a0	8d 8d 9c fe ff
	ff		 lea	 ecx, DWORD PTR _rgnGripper$200986[ebp]
  013a6	51		 push	 ecx
  013a7	8d 55 ec	 lea	 edx, DWORD PTR _rgn$[ebp]
  013aa	52		 push	 edx
  013ab	8d 4d ec	 lea	 ecx, DWORD PTR _rgn$[ebp]
  013ae	e8 00 00 00 00	 call	 ?CombineRgn@CRgn@@QAEHPAV1@0H@Z ; CRgn::CombineRgn

; 570  : 
; 571  : 			}

  013b3	c6 45 fc 01	 mov	 BYTE PTR __$EHRec$[ebp+8], 1
  013b7	8d 8d 9c fe ff
	ff		 lea	 ecx, DWORD PTR _rgnGripper$200986[ebp]
  013bd	e8 00 00 00 00	 call	 ??1CRgn@@UAE@XZ		; CRgn::~CRgn

; 572  : 			else {

  013c2	eb 15		 jmp	 SHORT $L200970
$L200979:

; 573  : 				rgn.CombineRgn( &rgn, &rgnRect, RGN_DIFF );

  013c4	6a 04		 push	 4
  013c6	8d 85 d4 fe ff
	ff		 lea	 eax, DWORD PTR _rgnRect$[ebp]
  013cc	50		 push	 eax
  013cd	8d 4d ec	 lea	 ecx, DWORD PTR _rgn$[ebp]
  013d0	51		 push	 ecx
  013d1	8d 4d ec	 lea	 ecx, DWORD PTR _rgn$[ebp]
  013d4	e8 00 00 00 00	 call	 ?CombineRgn@CRgn@@QAEHPAV1@0H@Z ; CRgn::CombineRgn
$L200970:

; 574  : 			}
; 575  : 		}
; 576  : 
; 577  : 		pWndChild = pWndChild->GetNextWindow();

  013d9	6a 02		 push	 2
  013db	8b 8d b0 fe ff
	ff		 mov	 ecx, DWORD PTR _pWndChild$[ebp]
  013e1	e8 00 00 00 00	 call	 ?GetNextWindow@CWnd@@QBEPAV1@I@Z ; CWnd::GetNextWindow
  013e6	89 85 b0 fe ff
	ff		 mov	 DWORD PTR _pWndChild$[ebp], eax

; 578  : 	}

  013ec	e9 68 fd ff ff	 jmp	 $L200967
$L200968:

; 579  : 
; 580  : #pragma warning( disable: 4312)	
; 581  : 	HBRUSH hBrBack = (HBRUSH) ::GetClassLong(GetWnd()->GetSafeHwnd(), GCL_HBRBACKGROUND) ;

  013f1	6a f6		 push	 -10			; fffffff6H
  013f3	8b 8d 68 fe ff
	ff		 mov	 ecx, DWORD PTR _this$[ebp]
  013f9	e8 00 00 00 00	 call	 ?GetWnd@ETSLayoutMgr@@QAEPAVCWnd@@XZ ; ETSLayoutMgr::GetWnd
  013fe	8b c8		 mov	 ecx, eax
  01400	e8 00 00 00 00	 call	 ?GetSafeHwnd@CWnd@@QBEPAUHWND__@@XZ ; CWnd::GetSafeHwnd
  01405	50		 push	 eax
  01406	ff 15 00 00 00
	00		 call	 DWORD PTR __imp__GetClassLongA@8
  0140c	89 45 e8	 mov	 DWORD PTR _hBrBack$[ebp], eax

; 582  : #pragma warning( default: 4312)	
; 583  : 	if( hBrBack == 0 )

  0140f	83 7d e8 00	 cmp	 DWORD PTR _hBrBack$[ebp], 0
  01413	75 0b		 jne	 SHORT $L200990

; 584  : 		hBrBack = ::GetSysColorBrush(COLOR_BTNFACE);

  01415	6a 0f		 push	 15			; 0000000fH
  01417	ff 15 00 00 00
	00		 call	 DWORD PTR __imp__GetSysColorBrush@4
  0141d	89 45 e8	 mov	 DWORD PTR _hBrBack$[ebp], eax
$L200990:

; 585  : 
; 586  : 	pDC->FillRgn( &rgn, 
; 587  : 		CBrush::FromHandle( hBrBack )
; 588  : 		);

  01420	8b 55 e8	 mov	 edx, DWORD PTR _hBrBack$[ebp]
  01423	52		 push	 edx
  01424	e8 00 00 00 00	 call	 ?FromHandle@CBrush@@SGPAV1@PAUHBRUSH__@@@Z ; CBrush::FromHandle
  01429	50		 push	 eax
  0142a	8d 45 ec	 lea	 eax, DWORD PTR _rgn$[ebp]
  0142d	50		 push	 eax
  0142e	8b 4d 08	 mov	 ecx, DWORD PTR _pDC$[ebp]
  01431	e8 00 00 00 00	 call	 ?FillRgn@CDC@@QAEHPAVCRgn@@PAVCBrush@@@Z ; CDC::FillRgn

; 589  : 	
; 590  : }

  01436	c6 45 fc 00	 mov	 BYTE PTR __$EHRec$[ebp+8], 0
  0143a	8d 8d d4 fe ff
	ff		 lea	 ecx, DWORD PTR _rgnRect$[ebp]
  01440	e8 00 00 00 00	 call	 ??1CRgn@@UAE@XZ		; CRgn::~CRgn
  01445	c7 45 fc ff ff
	ff ff		 mov	 DWORD PTR __$EHRec$[ebp+8], -1
  0144c	8d 4d ec	 lea	 ecx, DWORD PTR _rgn$[ebp]
  0144f	e8 00 00 00 00	 call	 ??1CRgn@@UAE@XZ		; CRgn::~CRgn
  01454	8b 4d f4	 mov	 ecx, DWORD PTR __$EHRec$[ebp]
  01457	64 89 0d 00 00
	00 00		 mov	 DWORD PTR fs:__except_list, ecx
  0145e	8b 4d e4	 mov	 ecx, DWORD PTR __$ArrayPad$[ebp]
  01461	e8 00 00 00 00	 call	 @__security_check_cookie@4
  01466	8b e5		 mov	 esp, ebp
  01468	5d		 pop	 ebp
  01469	c2 04 00	 ret	 4
_TEXT	ENDS
text$x	SEGMENT
$L205042:
  00181	8d 4d ec	 lea	 ecx, DWORD PTR _rgn$[ebp]
  00184	e9 00 00 00 00	 jmp	 ??1CRgn@@UAE@XZ		; CRgn::~CRgn
$L205043:
  00189	8d 8d d4 fe ff
	ff		 lea	 ecx, DWORD PTR _rgnRect$[ebp]
  0018f	e9 00 00 00 00	 jmp	 ??1CRgn@@UAE@XZ		; CRgn::~CRgn
$L205044:
  00194	8d 8d a4 fe ff
	ff		 lea	 ecx, DWORD PTR _rgnContent$200977[ebp]
  0019a	e9 00 00 00 00	 jmp	 ??1CRgn@@UAE@XZ		; CRgn::~CRgn
$L205045:
  0019f	8d 8d 9c fe ff
	ff		 lea	 ecx, DWORD PTR _rgnGripper$200986[ebp]
  001a5	e9 00 00 00 00	 jmp	 ??1CRgn@@UAE@XZ		; CRgn::~CRgn
__ehhandler$?EraseBkgnd@ETSLayoutMgr@@QAEXPAVCDC@@@Z:
  001aa	b8 00 00 00 00	 mov	 eax, OFFSET FLAT:$T205047
  001af	e9 00 00 00 00	 jmp	 ___CxxFrameHandler
text$x	ENDS
?EraseBkgnd@ETSLayoutMgr@@QAEXPAVCDC@@@Z ENDP		; ETSLayoutMgr::EraseBkgnd
EXTRN	__imp___mbscmp:NEAR
; Function compile flags: /Odt
; File d:\program files (x86)\microsoft visual studio .net 2003\vc7\include\tchar.h
;	COMDAT __tcscmp
_TEXT	SEGMENT
__s1$ = 8						; size = 4
__s2$ = 12						; size = 4
__tcscmp PROC NEAR					; COMDAT

; 854  : __inline int _tcscmp(_CPC _s1,_CPC _s2) {return _mbscmp((_CPUC)_s1,(_CPUC)_s2);}

  00000	55		 push	 ebp
  00001	8b ec		 mov	 ebp, esp
  00003	8b 45 0c	 mov	 eax, DWORD PTR __s2$[ebp]
  00006	50		 push	 eax
  00007	8b 4d 08	 mov	 ecx, DWORD PTR __s1$[ebp]
  0000a	51		 push	 ecx
  0000b	ff 15 00 00 00
	00		 call	 DWORD PTR __imp___mbscmp
  00011	83 c4 08	 add	 esp, 8
  00014	5d		 pop	 ebp
  00015	c3		 ret	 0
__tcscmp ENDP
_TEXT	ENDS
PUBLIC	?getConstrainHorz@PaneItem@ETSLayoutMgr@@UAEHH@Z ; ETSLayoutMgr::PaneItem::getConstrainHorz
PUBLIC	?getConstrainVert@PaneItem@ETSLayoutMgr@@UAEHH@Z ; ETSLayoutMgr::PaneItem::getConstrainVert
PUBLIC	?getMinConstrainHorz@PaneItem@ETSLayoutMgr@@UAEHXZ ; ETSLayoutMgr::PaneItem::getMinConstrainHorz
PUBLIC	?getMinConstrainVert@PaneItem@ETSLayoutMgr@@UAEHXZ ; ETSLayoutMgr::PaneItem::getMinConstrainVert
PUBLIC	?getMaxConstrainHorz@PaneItem@ETSLayoutMgr@@UAEHXZ ; ETSLayoutMgr::PaneItem::getMaxConstrainHorz
PUBLIC	?getMaxConstrainVert@PaneItem@ETSLayoutMgr@@UAEHXZ ; ETSLayoutMgr::PaneItem::getMaxConstrainVert
PUBLIC	?resizeTo@PaneItem@ETSLayoutMgr@@UAE_NAAVCRect@@_N1@Z ; ETSLayoutMgr::PaneItem::resizeTo
PUBLIC	?showPane@PaneItem@ETSLayoutMgr@@UAEX_N@Z	; ETSLayoutMgr::PaneItem::showPane
PUBLIC	??_7PaneItem@ETSLayoutMgr@@6B@			; ETSLayoutMgr::PaneItem::`vftable'
PUBLIC	??_GPaneItem@ETSLayoutMgr@@UAEPAXI@Z		; ETSLayoutMgr::PaneItem::`scalar deleting destructor'
PUBLIC	??0CRect@@QAE@HHHH@Z				; CRect::CRect
PUBLIC	??_R1A@?0A@A@PaneBase@ETSLayoutMgr@@8		; ETSLayoutMgr::PaneBase::`RTTI Base Class Descriptor at (0,-1,0,0)'
PUBLIC	??_R0?AVPaneBase@ETSLayoutMgr@@@8		; ETSLayoutMgr::PaneBase `RTTI Type Descriptor'
PUBLIC	??_R4PaneItem@ETSLayoutMgr@@6B@			; ETSLayoutMgr::PaneItem::`RTTI Complete Object Locator'
PUBLIC	??_R0?AVPaneItem@ETSLayoutMgr@@@8		; ETSLayoutMgr::PaneItem `RTTI Type Descriptor'
PUBLIC	??_R3PaneItem@ETSLayoutMgr@@8			; ETSLayoutMgr::PaneItem::`RTTI Class Hierarchy Descriptor'
PUBLIC	??_R2PaneItem@ETSLayoutMgr@@8			; ETSLayoutMgr::PaneItem::`RTTI Base Class Array'
PUBLIC	??_R1A@?0A@A@PaneItem@ETSLayoutMgr@@8		; ETSLayoutMgr::PaneItem::`RTTI Base Class Descriptor at (0,-1,0,0)'
PUBLIC	?GetSubPane@PaneBase@ETSLayoutMgr@@UAE?AVCPaneBase@2@V?$CStringT@DV?$StrTraitMFC_DLL@DV?$ChTraitsCRT@D@ATL@@@@@ATL@@@Z ; ETSLayoutMgr::PaneBase::GetSubPane
PUBLIC	??0PaneBase@ETSLayoutMgr@@QAE@PAV1@@Z		; ETSLayoutMgr::PaneBase::PaneBase
PUBLIC	??1PaneBase@ETSLayoutMgr@@UAE@XZ		; ETSLayoutMgr::PaneBase::~PaneBase
EXTRN	??_EPaneItem@ETSLayoutMgr@@UAEPAXI@Z:NEAR	; ETSLayoutMgr::PaneItem::`vector deleting destructor'
EXTRN	__imp__SetWindowPos@28:NEAR
EXTRN	__imp__GetWindowRect@8:NEAR
xdata$x	SEGMENT
$T205061 DD	0ffffffffH
	DD	FLAT:$L205056
$T205058 DD	019930520H
	DD	01H
	DD	FLAT:$T205061
	DD	2 DUP(00H)
	DD	2 DUP(00H)
xdata$x	ENDS
;	COMDAT ??_7PaneItem@ETSLayoutMgr@@6B@
; File d:\boxgit\playbox\playbox\dev\prj\playbox\src\layoutmgr\etslayout.cpp
CONST	SEGMENT
??_7PaneItem@ETSLayoutMgr@@6B@ DD FLAT:??_R4PaneItem@ETSLayoutMgr@@6B@ ; ETSLayoutMgr::PaneItem::`vftable'
	DD	FLAT:?getConstrainHorz@PaneItem@ETSLayoutMgr@@UAEHH@Z
	DD	FLAT:?getConstrainVert@PaneItem@ETSLayoutMgr@@UAEHH@Z
	DD	FLAT:?getMinConstrainHorz@PaneItem@ETSLayoutMgr@@UAEHXZ
	DD	FLAT:?getMaxConstrainHorz@PaneItem@ETSLayoutMgr@@UAEHXZ
	DD	FLAT:?getMinConstrainVert@PaneItem@ETSLayoutMgr@@UAEHXZ
	DD	FLAT:?getMaxConstrainVert@PaneItem@ETSLayoutMgr@@UAEHXZ
	DD	FLAT:?resizeTo@PaneItem@ETSLayoutMgr@@UAE_NAAVCRect@@_N1@Z
	DD	FLAT:?GetSubPane@PaneBase@ETSLayoutMgr@@UAE?AVCPaneBase@2@V?$CStringT@DV?$StrTraitMFC_DLL@DV?$ChTraitsCRT@D@ATL@@@@@ATL@@@Z
	DD	FLAT:??_EPaneItem@ETSLayoutMgr@@UAEPAXI@Z
	DD	FLAT:?showPane@PaneItem@ETSLayoutMgr@@UAEX_N@Z
CONST	ENDS
;	COMDAT ??_R4PaneItem@ETSLayoutMgr@@6B@
rdata$r	SEGMENT
??_R4PaneItem@ETSLayoutMgr@@6B@ DD 00H			; ETSLayoutMgr::PaneItem::`RTTI Complete Object Locator'
	DD	00H
	DD	00H
	DD	FLAT:??_R0?AVPaneItem@ETSLayoutMgr@@@8
	DD	FLAT:??_R3PaneItem@ETSLayoutMgr@@8
rdata$r	ENDS
;	COMDAT ??_R0?AVPaneItem@ETSLayoutMgr@@@8
_DATA	SEGMENT
??_R0?AVPaneItem@ETSLayoutMgr@@@8 DD FLAT:??_7type_info@@6B@ ; ETSLayoutMgr::PaneItem `RTTI Type Descriptor'
	DD	00H
	DB	'.?AVPaneItem@ETSLayoutMgr@@', 00H
_DATA	ENDS
;	COMDAT ??_R3PaneItem@ETSLayoutMgr@@8
rdata$r	SEGMENT
??_R3PaneItem@ETSLayoutMgr@@8 DD 00H			; ETSLayoutMgr::PaneItem::`RTTI Class Hierarchy Descriptor'
	DD	00H
	DD	02H
	DD	FLAT:??_R2PaneItem@ETSLayoutMgr@@8
rdata$r	ENDS
;	COMDAT ??_R2PaneItem@ETSLayoutMgr@@8
rdata$r	SEGMENT
??_R2PaneItem@ETSLayoutMgr@@8 DD FLAT:??_R1A@?0A@A@PaneItem@ETSLayoutMgr@@8 ; ETSLayoutMgr::PaneItem::`RTTI Base Class Array'
	DD	FLAT:??_R1A@?0A@A@PaneBase@ETSLayoutMgr@@8
rdata$r	ENDS
;	COMDAT ??_R1A@?0A@A@PaneItem@ETSLayoutMgr@@8
rdata$r	SEGMENT
??_R1A@?0A@A@PaneItem@ETSLayoutMgr@@8 DD FLAT:??_R0?AVPaneItem@ETSLayoutMgr@@@8 ; ETSLayoutMgr::PaneItem::`RTTI Base Class Descriptor at (0,-1,0,0)'
	DD	01H
	DD	00H
	DD	0ffffffffH
	DD	00H
	DD	00H
rdata$r	ENDS
;	COMDAT ??_R1A@?0A@A@PaneBase@ETSLayoutMgr@@8
rdata$r	SEGMENT
??_R1A@?0A@A@PaneBase@ETSLayoutMgr@@8 DD FLAT:??_R0?AVPaneBase@ETSLayoutMgr@@@8 ; ETSLayoutMgr::PaneBase::`RTTI Base Class Descriptor at (0,-1,0,0)'
	DD	00H
	DD	00H
	DD	0ffffffffH
	DD	00H
	DD	00H
rdata$r	ENDS
;	COMDAT ??_R0?AVPaneBase@ETSLayoutMgr@@@8
_DATA	SEGMENT
??_R0?AVPaneBase@ETSLayoutMgr@@@8 DD FLAT:??_7type_info@@6B@ ; ETSLayoutMgr::PaneBase `RTTI Type Descriptor'
	DD	00H
	DB	'.?AVPaneBase@ETSLayoutMgr@@', 00H
; Function compile flags: /Odt
_DATA	ENDS
_TEXT	SEGMENT
_this$ = -320						; size = 4
$T205055 = -316						; size = 16
_szClassName$201011 = -300				; size = 260
__$ArrayPad$ = -32					; size = 4
_rcControl$201003 = -28					; size = 16
__$EHRec$ = -12						; size = 12
__$ReturnAddr$ = 4					; size = 4
_pWnd$ = 8						; size = 4
_pMgr$ = 12						; size = 4
_modeResize$ = 16					; size = 4
_sizeX$ = 20						; size = 4
_sizeY$ = 24						; size = 4
_sizeXMin$ = 28						; size = 4
_sizeYMin$ = 32						; size = 4
??0PaneItem@ETSLayoutMgr@@IAE@PAVCWnd@@PAV1@W4layResizeMode@1@HHHH@Z PROC NEAR ; ETSLayoutMgr::PaneItem::PaneItem
; _this$ = ecx

; 599  : {

  01470	55		 push	 ebp
  01471	8b ec		 mov	 ebp, esp
  01473	6a ff		 push	 -1
  01475	68 00 00 00 00	 push	 __ehhandler$??0PaneItem@ETSLayoutMgr@@IAE@PAVCWnd@@PAV1@W4layResizeMode@1@HHHH@Z
  0147a	64 a1 00 00 00
	00		 mov	 eax, DWORD PTR fs:__except_list
  01480	50		 push	 eax
  01481	64 89 25 00 00
	00 00		 mov	 DWORD PTR fs:__except_list, esp
  01488	81 ec 34 01 00
	00		 sub	 esp, 308		; 00000134H
  0148e	a1 00 00 00 00	 mov	 eax, DWORD PTR ___security_cookie
  01493	89 45 e0	 mov	 DWORD PTR __$ArrayPad$[ebp], eax
  01496	89 8d c0 fe ff
	ff		 mov	 DWORD PTR _this$[ebp], ecx
  0149c	8b 45 0c	 mov	 eax, DWORD PTR _pMgr$[ebp]
  0149f	50		 push	 eax
  014a0	8b 8d c0 fe ff
	ff		 mov	 ecx, DWORD PTR _this$[ebp]
  014a6	e8 00 00 00 00	 call	 ??0PaneBase@ETSLayoutMgr@@QAE@PAV1@@Z ; ETSLayoutMgr::PaneBase::PaneBase
  014ab	c7 45 fc 00 00
	00 00		 mov	 DWORD PTR __$EHRec$[ebp+8], 0
  014b2	8b 8d c0 fe ff
	ff		 mov	 ecx, DWORD PTR _this$[ebp]
  014b8	c7 01 00 00 00
	00		 mov	 DWORD PTR [ecx], OFFSET FLAT:??_7PaneItem@ETSLayoutMgr@@6B@

; 600  : 	m_modeResize	= modeResize;

  014be	8b 95 c0 fe ff
	ff		 mov	 edx, DWORD PTR _this$[ebp]
  014c4	8b 45 10	 mov	 eax, DWORD PTR _modeResize$[ebp]
  014c7	89 42 18	 mov	 DWORD PTR [edx+24], eax

; 601  : 	m_hwndCtrl		= pWnd->GetSafeHwnd();

  014ca	8b 4d 08	 mov	 ecx, DWORD PTR _pWnd$[ebp]
  014cd	e8 00 00 00 00	 call	 ?GetSafeHwnd@CWnd@@QBEPAUHWND__@@XZ ; CWnd::GetSafeHwnd
  014d2	8b 8d c0 fe ff
	ff		 mov	 ecx, DWORD PTR _this$[ebp]
  014d8	89 41 70	 mov	 DWORD PTR [ecx+112], eax

; 602  : 
; 603  : 	m_sizeX			= 0;

  014db	8b 95 c0 fe ff
	ff		 mov	 edx, DWORD PTR _this$[ebp]
  014e1	c7 42 60 00 00
	00 00		 mov	 DWORD PTR [edx+96], 0

; 604  : 	m_sizeY			= 0;

  014e8	8b 85 c0 fe ff
	ff		 mov	 eax, DWORD PTR _this$[ebp]
  014ee	c7 40 68 00 00
	00 00		 mov	 DWORD PTR [eax+104], 0

; 605  : 
; 606  : 	m_bComboSpecial = false;

  014f5	8b 8d c0 fe ff
	ff		 mov	 ecx, DWORD PTR _this$[ebp]
  014fb	c6 41 74 00	 mov	 BYTE PTR [ecx+116], 0

; 607  : 
; 608  : 	m_sizeXMin		= sizeXMin;

  014ff	8b 95 c0 fe ff
	ff		 mov	 edx, DWORD PTR _this$[ebp]
  01505	8b 45 1c	 mov	 eax, DWORD PTR _sizeXMin$[ebp]
  01508	89 42 64	 mov	 DWORD PTR [edx+100], eax

; 609  : 	m_sizeYMin		= sizeYMin;

  0150b	8b 8d c0 fe ff
	ff		 mov	 ecx, DWORD PTR _this$[ebp]
  01511	8b 55 20	 mov	 edx, DWORD PTR _sizeYMin$[ebp]
  01514	89 51 6c	 mov	 DWORD PTR [ecx+108], edx

; 610  : 
; 611  : 	if(!m_hwndCtrl) {			// only Dummy!

  01517	8b 85 c0 fe ff
	ff		 mov	 eax, DWORD PTR _this$[ebp]
  0151d	83 78 70 00	 cmp	 DWORD PTR [eax+112], 0
  01521	75 1d		 jne	 SHORT $L201001

; 612  : 		m_sizeX = sizeX;

  01523	8b 8d c0 fe ff
	ff		 mov	 ecx, DWORD PTR _this$[ebp]
  01529	8b 55 14	 mov	 edx, DWORD PTR _sizeX$[ebp]
  0152c	89 51 60	 mov	 DWORD PTR [ecx+96], edx

; 613  : 		m_sizeY = sizeY;

  0152f	8b 85 c0 fe ff
	ff		 mov	 eax, DWORD PTR _this$[ebp]
  01535	8b 4d 18	 mov	 ecx, DWORD PTR _sizeY$[ebp]
  01538	89 48 68	 mov	 DWORD PTR [eax+104], ecx

; 614  : 	}
; 615  : 	else {

  0153b	e9 ee 00 00 00	 jmp	 $L201002
$L201001:

; 616  : 		CRect rcControl;

  01540	8d 4d e4	 lea	 ecx, DWORD PTR _rcControl$201003[ebp]
  01543	e8 00 00 00 00	 call	 ??0CRect@@QAE@XZ	; CRect::CRect

; 617  : 		::GetWindowRect(m_hwndCtrl, &rcControl);

  01548	8d 55 e4	 lea	 edx, DWORD PTR _rcControl$201003[ebp]
  0154b	52		 push	 edx
  0154c	8b 85 c0 fe ff
	ff		 mov	 eax, DWORD PTR _this$[ebp]
  01552	8b 48 70	 mov	 ecx, DWORD PTR [eax+112]
  01555	51		 push	 ecx
  01556	ff 15 00 00 00
	00		 call	 DWORD PTR __imp__GetWindowRect@8

; 618  : 
; 619  : 		m_rcRect = CRect(0,0,-1,-1);

  0155c	6a ff		 push	 -1
  0155e	6a ff		 push	 -1
  01560	6a 00		 push	 0
  01562	6a 00		 push	 0
  01564	8d 8d c4 fe ff
	ff		 lea	 ecx, DWORD PTR $T205055[ebp]
  0156a	e8 00 00 00 00	 call	 ??0CRect@@QAE@HHHH@Z	; CRect::CRect
  0156f	8b 95 c0 fe ff
	ff		 mov	 edx, DWORD PTR _this$[ebp]
  01575	83 c2 28	 add	 edx, 40			; 00000028H
  01578	8b 08		 mov	 ecx, DWORD PTR [eax]
  0157a	89 0a		 mov	 DWORD PTR [edx], ecx
  0157c	8b 48 04	 mov	 ecx, DWORD PTR [eax+4]
  0157f	89 4a 04	 mov	 DWORD PTR [edx+4], ecx
  01582	8b 48 08	 mov	 ecx, DWORD PTR [eax+8]
  01585	89 4a 08	 mov	 DWORD PTR [edx+8], ecx
  01588	8b 40 0c	 mov	 eax, DWORD PTR [eax+12]
  0158b	89 42 0c	 mov	 DWORD PTR [edx+12], eax

; 620  : 		if(sizeX == 0) {

  0158e	83 7d 14 00	 cmp	 DWORD PTR _sizeX$[ebp], 0
  01592	75 13		 jne	 SHORT $L201005

; 621  : 			m_sizeX			= rcControl.Width();

  01594	8d 4d e4	 lea	 ecx, DWORD PTR _rcControl$201003[ebp]
  01597	e8 00 00 00 00	 call	 ?Width@CRect@@QBEHXZ	; CRect::Width
  0159c	8b 8d c0 fe ff
	ff		 mov	 ecx, DWORD PTR _this$[ebp]
  015a2	89 41 60	 mov	 DWORD PTR [ecx+96], eax

; 622  : 		}
; 623  : 		else {

  015a5	eb 0c		 jmp	 SHORT $L201007
$L201005:

; 624  : 			m_sizeX = sizeX;

  015a7	8b 95 c0 fe ff
	ff		 mov	 edx, DWORD PTR _this$[ebp]
  015ad	8b 45 14	 mov	 eax, DWORD PTR _sizeX$[ebp]
  015b0	89 42 60	 mov	 DWORD PTR [edx+96], eax
$L201007:

; 625  : 		}
; 626  : 		if( m_sizeXMin == -1 ) {
; 627  : 			// do not make smaller than current size
; 628  : 			//m_sizeXMin		= rcControl.Width();
; 629  : 		}
; 630  : 
; 631  : 		if(sizeY == 0) {

  015b3	83 7d 18 00	 cmp	 DWORD PTR _sizeY$[ebp], 0
  015b7	75 13		 jne	 SHORT $L201008

; 632  : 			m_sizeY			= rcControl.Height();

  015b9	8d 4d e4	 lea	 ecx, DWORD PTR _rcControl$201003[ebp]
  015bc	e8 00 00 00 00	 call	 ?Height@CRect@@QBEHXZ	; CRect::Height
  015c1	8b 95 c0 fe ff
	ff		 mov	 edx, DWORD PTR _this$[ebp]
  015c7	89 42 68	 mov	 DWORD PTR [edx+104], eax

; 633  : 		}
; 634  : 		else {

  015ca	eb 0c		 jmp	 SHORT $L201010
$L201008:

; 635  : 			m_sizeY = sizeY;

  015cc	8b 85 c0 fe ff
	ff		 mov	 eax, DWORD PTR _this$[ebp]
  015d2	8b 4d 18	 mov	 ecx, DWORD PTR _sizeY$[ebp]
  015d5	89 48 68	 mov	 DWORD PTR [eax+104], ecx
$L201010:

; 636  : 		}
; 637  : 		if( m_sizeYMin == -1 ) {
; 638  : 			// do not make smaller than current size
; 639  : 			//m_sizeYMin		= rcControl.Height();
; 640  : 		}
; 641  : 
; 642  : 		TCHAR szClassName[ MAX_PATH ];
; 643  : 		::GetClassName( m_hwndCtrl, szClassName, MAX_PATH );

  015d8	68 04 01 00 00	 push	 260			; 00000104H
  015dd	8d 85 d4 fe ff
	ff		 lea	 eax, DWORD PTR _szClassName$201011[ebp]
  015e3	50		 push	 eax
  015e4	8b 8d c0 fe ff
	ff		 mov	 ecx, DWORD PTR _this$[ebp]
  015ea	8b 51 70	 mov	 edx, DWORD PTR [ecx+112]
  015ed	52		 push	 edx
  015ee	ff 15 00 00 00
	00		 call	 DWORD PTR __imp__GetClassNameA@12

; 644  : 
; 645  : 		// special treatment for combo-boxes
; 646  : 		if( _tcscmp(szClassName,_T("ComboBox"))==0 || _tcscmp(szClassName,WC_COMBOBOXEX)==0) {

  015f4	68 00 00 00 00	 push	 OFFSET FLAT:$SG201014
  015f9	8d 85 d4 fe ff
	ff		 lea	 eax, DWORD PTR _szClassName$201011[ebp]
  015ff	50		 push	 eax
  01600	e8 00 00 00 00	 call	 __tcscmp
  01605	83 c4 08	 add	 esp, 8
  01608	85 c0		 test	 eax, eax
  0160a	74 18		 je	 SHORT $L201013
  0160c	68 00 00 00 00	 push	 OFFSET FLAT:$SG201015
  01611	8d 8d d4 fe ff
	ff		 lea	 ecx, DWORD PTR _szClassName$201011[ebp]
  01617	51		 push	 ecx
  01618	e8 00 00 00 00	 call	 __tcscmp
  0161d	83 c4 08	 add	 esp, 8
  01620	85 c0		 test	 eax, eax
  01622	75 0a		 jne	 SHORT $L201002
$L201013:

; 647  : 			m_bComboSpecial = true;

  01624	8b 95 c0 fe ff
	ff		 mov	 edx, DWORD PTR _this$[ebp]
  0162a	c6 42 74 01	 mov	 BYTE PTR [edx+116], 1
$L201002:

; 648  : 		}
; 649  : 	}
; 650  : 	if(pWnd != NULL)

  0162e	83 7d 08 00	 cmp	 DWORD PTR _pWnd$[ebp], 0
  01632	74 29		 je	 SHORT $L201000

; 651  : 		::SetWindowPos(pWnd->m_hWnd, NULL, 0,0, m_sizeX, m_sizeY, SWP_NOMOVE);

  01634	6a 02		 push	 2
  01636	8b 85 c0 fe ff
	ff		 mov	 eax, DWORD PTR _this$[ebp]
  0163c	8b 48 68	 mov	 ecx, DWORD PTR [eax+104]
  0163f	51		 push	 ecx
  01640	8b 95 c0 fe ff
	ff		 mov	 edx, DWORD PTR _this$[ebp]
  01646	8b 42 60	 mov	 eax, DWORD PTR [edx+96]
  01649	50		 push	 eax
  0164a	6a 00		 push	 0
  0164c	6a 00		 push	 0
  0164e	6a 00		 push	 0
  01650	8b 4d 08	 mov	 ecx, DWORD PTR _pWnd$[ebp]
  01653	8b 51 20	 mov	 edx, DWORD PTR [ecx+32]
  01656	52		 push	 edx
  01657	ff 15 00 00 00
	00		 call	 DWORD PTR __imp__SetWindowPos@28
$L201000:

; 652  : }

  0165d	c7 45 fc ff ff
	ff ff		 mov	 DWORD PTR __$EHRec$[ebp+8], -1
  01664	8b 85 c0 fe ff
	ff		 mov	 eax, DWORD PTR _this$[ebp]
  0166a	8b 4d f4	 mov	 ecx, DWORD PTR __$EHRec$[ebp]
  0166d	64 89 0d 00 00
	00 00		 mov	 DWORD PTR fs:__except_list, ecx
  01674	8b 4d e0	 mov	 ecx, DWORD PTR __$ArrayPad$[ebp]
  01677	e8 00 00 00 00	 call	 @__security_check_cookie@4
  0167c	8b e5		 mov	 esp, ebp
  0167e	5d		 pop	 ebp
  0167f	c2 1c 00	 ret	 28			; 0000001cH
_TEXT	ENDS
text$x	SEGMENT
$L205056:
  001b4	8b 8d c0 fe ff
	ff		 mov	 ecx, DWORD PTR _this$[ebp]
  001ba	e9 00 00 00 00	 jmp	 ??1PaneBase@ETSLayoutMgr@@UAE@XZ ; ETSLayoutMgr::PaneBase::~PaneBase
__ehhandler$??0PaneItem@ETSLayoutMgr@@IAE@PAVCWnd@@PAV1@W4layResizeMode@1@HHHH@Z:
  001bf	b8 00 00 00 00	 mov	 eax, OFFSET FLAT:$T205058
  001c4	e9 00 00 00 00	 jmp	 ___CxxFrameHandler
text$x	ENDS
??0PaneItem@ETSLayoutMgr@@IAE@PAVCWnd@@PAV1@W4layResizeMode@1@HHHH@Z ENDP ; ETSLayoutMgr::PaneItem::PaneItem
;	COMDAT xdata$x
; File d:\boxgit\playbox\playbox\dev\prj\playbox\src\layoutmgr\etslayout.h
xdata$x	SEGMENT
$T205070 DD	0ffffffffH
	DD	FLAT:$L205063
$T205068 DD	019930520H
	DD	01H
	DD	FLAT:$T205070
	DD	2 DUP(00H)
	DD	2 DUP(00H)
; Function compile flags: /Odt
xdata$x	ENDS
;	COMDAT ?GetSubPane@PaneBase@ETSLayoutMgr@@UAE?AVCPaneBase@2@V?$CStringT@DV?$StrTraitMFC_DLL@DV?$ChTraitsCRT@D@ATL@@@@@ATL@@@Z
_TEXT	SEGMENT
_this$ = -20						; size = 4
$T205065 = -16						; size = 4
__$EHRec$ = -12						; size = 12
___$ReturnUdt$ = 8					; size = 4
_name$ = 12						; size = 4
?GetSubPane@PaneBase@ETSLayoutMgr@@UAE?AVCPaneBase@2@V?$CStringT@DV?$StrTraitMFC_DLL@DV?$ChTraitsCRT@D@ATL@@@@@ATL@@@Z PROC NEAR ; ETSLayoutMgr::PaneBase::GetSubPane, COMDAT
; _this$ = ecx

; 268  : 		virtual CPaneBase GetSubPane(CString name){return CPaneBase(NULL);};

  00000	55		 push	 ebp
  00001	8b ec		 mov	 ebp, esp
  00003	6a ff		 push	 -1
  00005	68 00 00 00 00	 push	 __ehhandler$?GetSubPane@PaneBase@ETSLayoutMgr@@UAE?AVCPaneBase@2@V?$CStringT@DV?$StrTraitMFC_DLL@DV?$ChTraitsCRT@D@ATL@@@@@ATL@@@Z
  0000a	64 a1 00 00 00
	00		 mov	 eax, DWORD PTR fs:__except_list
  00010	50		 push	 eax
  00011	64 89 25 00 00
	00 00		 mov	 DWORD PTR fs:__except_list, esp
  00018	83 ec 08	 sub	 esp, 8
  0001b	89 4d ec	 mov	 DWORD PTR _this$[ebp], ecx
  0001e	c7 45 f0 00 00
	00 00		 mov	 DWORD PTR $T205065[ebp], 0
  00025	c7 45 fc 00 00
	00 00		 mov	 DWORD PTR __$EHRec$[ebp+8], 0
  0002c	6a 00		 push	 0
  0002e	8b 4d 08	 mov	 ecx, DWORD PTR ___$ReturnUdt$[ebp]
  00031	e8 00 00 00 00	 call	 ??0CPaneBase@ETSLayoutMgr@@QAE@PAVPaneBase@1@@Z ; ETSLayoutMgr::CPaneBase::CPaneBase
  00036	8b 45 f0	 mov	 eax, DWORD PTR $T205065[ebp]
  00039	83 c8 01	 or	 eax, 1
  0003c	89 45 f0	 mov	 DWORD PTR $T205065[ebp], eax
  0003f	c7 45 fc ff ff
	ff ff		 mov	 DWORD PTR __$EHRec$[ebp+8], -1
  00046	8d 4d 0c	 lea	 ecx, DWORD PTR _name$[ebp]
  00049	ff 15 00 00 00
	00		 call	 DWORD PTR __imp_??1?$CStringT@DV?$StrTraitMFC_DLL@DV?$ChTraitsCRT@D@ATL@@@@@ATL@@QAE@XZ
  0004f	8b 45 08	 mov	 eax, DWORD PTR ___$ReturnUdt$[ebp]
  00052	8b 4d f4	 mov	 ecx, DWORD PTR __$EHRec$[ebp]
  00055	64 89 0d 00 00
	00 00		 mov	 DWORD PTR fs:__except_list, ecx
  0005c	8b e5		 mov	 esp, ebp
  0005e	5d		 pop	 ebp
  0005f	c2 08 00	 ret	 8
_TEXT	ENDS
;	COMDAT text$x
text$x	SEGMENT
$L205063:
  00000	8d 4d 0c	 lea	 ecx, DWORD PTR _name$[ebp]
  00003	ff 25 00 00 00
	00		 jmp	 DWORD PTR __imp_??1?$CStringT@DV?$StrTraitMFC_DLL@DV?$ChTraitsCRT@D@ATL@@@@@ATL@@QAE@XZ
__ehhandler$?GetSubPane@PaneBase@ETSLayoutMgr@@UAE?AVCPaneBase@2@V?$CStringT@DV?$StrTraitMFC_DLL@DV?$ChTraitsCRT@D@ATL@@@@@ATL@@@Z:
  00009	b8 00 00 00 00	 mov	 eax, OFFSET FLAT:$T205068
  0000e	e9 00 00 00 00	 jmp	 ___CxxFrameHandler
text$x	ENDS
?GetSubPane@PaneBase@ETSLayoutMgr@@UAE?AVCPaneBase@2@V?$CStringT@DV?$StrTraitMFC_DLL@DV?$ChTraitsCRT@D@ATL@@@@@ATL@@@Z ENDP ; ETSLayoutMgr::PaneBase::GetSubPane
PUBLIC	??_R4PaneBase@ETSLayoutMgr@@6B@			; ETSLayoutMgr::PaneBase::`RTTI Complete Object Locator'
PUBLIC	??_R3PaneBase@ETSLayoutMgr@@8			; ETSLayoutMgr::PaneBase::`RTTI Class Hierarchy Descriptor'
PUBLIC	??_R2PaneBase@ETSLayoutMgr@@8			; ETSLayoutMgr::PaneBase::`RTTI Base Class Array'
PUBLIC	??_C@_02PGHGPEOM@?91?$AA@			; `string'
PUBLIC	??0?$CArray@MM@@QAE@XZ				; CArray<float,float>::CArray<float,float>
PUBLIC	??1?$CArray@MM@@UAE@XZ				; CArray<float,float>::~CArray<float,float>
PUBLIC	?showPane@PaneBase@ETSLayoutMgr@@UAEX_N@Z	; ETSLayoutMgr::PaneBase::showPane
PUBLIC	??_7PaneBase@ETSLayoutMgr@@6B@			; ETSLayoutMgr::PaneBase::`vftable'
PUBLIC	??_GPaneBase@ETSLayoutMgr@@UAEPAXI@Z		; ETSLayoutMgr::PaneBase::`scalar deleting destructor'
EXTRN	__purecall:NEAR
EXTRN	__imp_??0?$CStringT@DV?$StrTraitMFC_DLL@DV?$ChTraitsCRT@D@ATL@@@@@ATL@@QAE@XZ:NEAR
EXTRN	__imp_??4?$CStringT@DV?$StrTraitMFC_DLL@DV?$ChTraitsCRT@D@ATL@@@@@ATL@@QAEAAV01@PBD@Z:NEAR
EXTRN	??_EPaneBase@ETSLayoutMgr@@UAEPAXI@Z:NEAR	; ETSLayoutMgr::PaneBase::`vector deleting destructor'
;	COMDAT xdata$x
xdata$x	SEGMENT
$T205087 DD	0ffffffffH
	DD	FLAT:$L205076
	DD	00H
	DD	FLAT:$L205077
	DD	01H
	DD	FLAT:$L205078
	DD	02H
	DD	FLAT:$L205079
	DD	03H
	DD	FLAT:$L205080
	DD	04H
	DD	FLAT:$L205081
	DD	05H
	DD	FLAT:$L205082
	DD	06H
	DD	FLAT:$L205083
$T205085 DD	019930520H
	DD	08H
	DD	FLAT:$T205087
	DD	2 DUP(00H)
	DD	2 DUP(00H)
xdata$x	ENDS
;	COMDAT ??_7PaneBase@ETSLayoutMgr@@6B@
CONST	SEGMENT
??_7PaneBase@ETSLayoutMgr@@6B@ DD FLAT:??_R4PaneBase@ETSLayoutMgr@@6B@ ; ETSLayoutMgr::PaneBase::`vftable'
	DD	FLAT:__purecall
	DD	FLAT:__purecall
	DD	FLAT:__purecall
	DD	FLAT:__purecall
	DD	FLAT:__purecall
	DD	FLAT:__purecall
	DD	FLAT:__purecall
	DD	FLAT:?GetSubPane@PaneBase@ETSLayoutMgr@@UAE?AVCPaneBase@2@V?$CStringT@DV?$StrTraitMFC_DLL@DV?$ChTraitsCRT@D@ATL@@@@@ATL@@@Z
	DD	FLAT:??_EPaneBase@ETSLayoutMgr@@UAEPAXI@Z
	DD	FLAT:?showPane@PaneBase@ETSLayoutMgr@@UAEX_N@Z
CONST	ENDS
;	COMDAT ??_C@_02PGHGPEOM@?91?$AA@
CONST	SEGMENT
??_C@_02PGHGPEOM@?91?$AA@ DB '-1', 00H			; `string'
CONST	ENDS
;	COMDAT ??_R4PaneBase@ETSLayoutMgr@@6B@
rdata$r	SEGMENT
??_R4PaneBase@ETSLayoutMgr@@6B@ DD 00H			; ETSLayoutMgr::PaneBase::`RTTI Complete Object Locator'
	DD	00H
	DD	00H
	DD	FLAT:??_R0?AVPaneBase@ETSLayoutMgr@@@8
	DD	FLAT:??_R3PaneBase@ETSLayoutMgr@@8
rdata$r	ENDS
;	COMDAT ??_R3PaneBase@ETSLayoutMgr@@8
rdata$r	SEGMENT
??_R3PaneBase@ETSLayoutMgr@@8 DD 00H			; ETSLayoutMgr::PaneBase::`RTTI Class Hierarchy Descriptor'
	DD	00H
	DD	01H
	DD	FLAT:??_R2PaneBase@ETSLayoutMgr@@8
rdata$r	ENDS
;	COMDAT ??_R2PaneBase@ETSLayoutMgr@@8
rdata$r	SEGMENT
??_R2PaneBase@ETSLayoutMgr@@8 DD FLAT:??_R1A@?0A@A@PaneBase@ETSLayoutMgr@@8 ; ETSLayoutMgr::PaneBase::`RTTI Base Class Array'
; Function compile flags: /Odt
rdata$r	ENDS
;	COMDAT ??0PaneBase@ETSLayoutMgr@@QAE@PAV1@@Z
_TEXT	SEGMENT
_this$ = -32						; size = 4
$T205075 = -28						; size = 16
__$EHRec$ = -12						; size = 12
_pMgr$ = 8						; size = 4
??0PaneBase@ETSLayoutMgr@@QAE@PAV1@@Z PROC NEAR		; ETSLayoutMgr::PaneBase::PaneBase, COMDAT
; _this$ = ecx

; 274  : 		PaneBase( ETSLayoutMgr* pMgr )		{

  00000	55		 push	 ebp
  00001	8b ec		 mov	 ebp, esp
  00003	6a ff		 push	 -1
  00005	68 00 00 00 00	 push	 __ehhandler$??0PaneBase@ETSLayoutMgr@@QAE@PAV1@@Z
  0000a	64 a1 00 00 00
	00		 mov	 eax, DWORD PTR fs:__except_list
  00010	50		 push	 eax
  00011	64 89 25 00 00
	00 00		 mov	 DWORD PTR fs:__except_list, esp
  00018	83 ec 14	 sub	 esp, 20			; 00000014H
  0001b	89 4d e0	 mov	 DWORD PTR _this$[ebp], ecx
  0001e	8b 45 e0	 mov	 eax, DWORD PTR _this$[ebp]
  00021	c7 00 00 00 00
	00		 mov	 DWORD PTR [eax], OFFSET FLAT:??_7PaneBase@ETSLayoutMgr@@6B@
  00027	8b 4d e0	 mov	 ecx, DWORD PTR _this$[ebp]
  0002a	83 c1 04	 add	 ecx, 4
  0002d	e8 00 00 00 00	 call	 ??0?$CArray@MM@@QAE@XZ	; CArray<float,float>::CArray<float,float>
  00032	c7 45 fc 00 00
	00 00		 mov	 DWORD PTR __$EHRec$[ebp+8], 0
  00039	8b 4d e0	 mov	 ecx, DWORD PTR _this$[ebp]
  0003c	83 c1 20	 add	 ecx, 32			; 00000020H
  0003f	ff 15 00 00 00
	00		 call	 DWORD PTR __imp_??0?$CStringT@DV?$StrTraitMFC_DLL@DV?$ChTraitsCRT@D@ATL@@@@@ATL@@QAE@XZ
  00045	c6 45 fc 01	 mov	 BYTE PTR __$EHRec$[ebp+8], 1
  00049	8b 4d e0	 mov	 ecx, DWORD PTR _this$[ebp]
  0004c	83 c1 28	 add	 ecx, 40			; 00000028H
  0004f	e8 00 00 00 00	 call	 ??0CRect@@QAE@XZ	; CRect::CRect
  00054	8b 4d e0	 mov	 ecx, DWORD PTR _this$[ebp]
  00057	83 c1 3c	 add	 ecx, 60			; 0000003cH
  0005a	ff 15 00 00 00
	00		 call	 DWORD PTR __imp_??0?$CStringT@DV?$StrTraitMFC_DLL@DV?$ChTraitsCRT@D@ATL@@@@@ATL@@QAE@XZ
  00060	c6 45 fc 02	 mov	 BYTE PTR __$EHRec$[ebp+8], 2
  00064	8b 4d e0	 mov	 ecx, DWORD PTR _this$[ebp]
  00067	83 c1 40	 add	 ecx, 64			; 00000040H
  0006a	ff 15 00 00 00
	00		 call	 DWORD PTR __imp_??0?$CStringT@DV?$StrTraitMFC_DLL@DV?$ChTraitsCRT@D@ATL@@@@@ATL@@QAE@XZ
  00070	c6 45 fc 03	 mov	 BYTE PTR __$EHRec$[ebp+8], 3
  00074	8b 4d e0	 mov	 ecx, DWORD PTR _this$[ebp]
  00077	83 c1 44	 add	 ecx, 68			; 00000044H
  0007a	ff 15 00 00 00
	00		 call	 DWORD PTR __imp_??0?$CStringT@DV?$StrTraitMFC_DLL@DV?$ChTraitsCRT@D@ATL@@@@@ATL@@QAE@XZ
  00080	c6 45 fc 04	 mov	 BYTE PTR __$EHRec$[ebp+8], 4
  00084	8b 4d e0	 mov	 ecx, DWORD PTR _this$[ebp]
  00087	83 c1 48	 add	 ecx, 72			; 00000048H
  0008a	ff 15 00 00 00
	00		 call	 DWORD PTR __imp_??0?$CStringT@DV?$StrTraitMFC_DLL@DV?$ChTraitsCRT@D@ATL@@@@@ATL@@QAE@XZ
  00090	c6 45 fc 05	 mov	 BYTE PTR __$EHRec$[ebp+8], 5
  00094	8b 4d e0	 mov	 ecx, DWORD PTR _this$[ebp]
  00097	83 c1 4c	 add	 ecx, 76			; 0000004cH
  0009a	ff 15 00 00 00
	00		 call	 DWORD PTR __imp_??0?$CStringT@DV?$StrTraitMFC_DLL@DV?$ChTraitsCRT@D@ATL@@@@@ATL@@QAE@XZ
  000a0	c6 45 fc 06	 mov	 BYTE PTR __$EHRec$[ebp+8], 6
  000a4	8b 4d e0	 mov	 ecx, DWORD PTR _this$[ebp]
  000a7	83 c1 50	 add	 ecx, 80			; 00000050H
  000aa	ff 15 00 00 00
	00		 call	 DWORD PTR __imp_??0?$CStringT@DV?$StrTraitMFC_DLL@DV?$ChTraitsCRT@D@ATL@@@@@ATL@@QAE@XZ
  000b0	c6 45 fc 07	 mov	 BYTE PTR __$EHRec$[ebp+8], 7

; 275  : 			m_pMgr = pMgr; 

  000b4	8b 4d e0	 mov	 ecx, DWORD PTR _this$[ebp]
  000b7	8b 55 08	 mov	 edx, DWORD PTR _pMgr$[ebp]
  000ba	89 51 38	 mov	 DWORD PTR [ecx+56], edx

; 276  : 			m_rcRect = CRect(0,0,-1,-1);

  000bd	6a ff		 push	 -1
  000bf	6a ff		 push	 -1
  000c1	6a 00		 push	 0
  000c3	6a 00		 push	 0
  000c5	8d 4d e4	 lea	 ecx, DWORD PTR $T205075[ebp]
  000c8	e8 00 00 00 00	 call	 ??0CRect@@QAE@HHHH@Z	; CRect::CRect
  000cd	8b 4d e0	 mov	 ecx, DWORD PTR _this$[ebp]
  000d0	83 c1 28	 add	 ecx, 40			; 00000028H
  000d3	8b 10		 mov	 edx, DWORD PTR [eax]
  000d5	89 11		 mov	 DWORD PTR [ecx], edx
  000d7	8b 50 04	 mov	 edx, DWORD PTR [eax+4]
  000da	89 51 04	 mov	 DWORD PTR [ecx+4], edx
  000dd	8b 50 08	 mov	 edx, DWORD PTR [eax+8]
  000e0	89 51 08	 mov	 DWORD PTR [ecx+8], edx
  000e3	8b 40 0c	 mov	 eax, DWORD PTR [eax+12]
  000e6	89 41 0c	 mov	 DWORD PTR [ecx+12], eax

; 277  : 			m_start_x = "-1";		

  000e9	68 00 00 00 00	 push	 OFFSET FLAT:??_C@_02PGHGPEOM@?91?$AA@
  000ee	8b 4d e0	 mov	 ecx, DWORD PTR _this$[ebp]
  000f1	83 c1 3c	 add	 ecx, 60			; 0000003cH
  000f4	ff 15 00 00 00
	00		 call	 DWORD PTR __imp_??4?$CStringT@DV?$StrTraitMFC_DLL@DV?$ChTraitsCRT@D@ATL@@@@@ATL@@QAEAAV01@PBD@Z

; 278  : 			m_start_y = "-1";

  000fa	68 00 00 00 00	 push	 OFFSET FLAT:??_C@_02PGHGPEOM@?91?$AA@
  000ff	8b 4d e0	 mov	 ecx, DWORD PTR _this$[ebp]
  00102	83 c1 40	 add	 ecx, 64			; 00000040H
  00105	ff 15 00 00 00
