; Listing generated by Microsoft (R) Optimizing Compiler Version 13.10.3077 

	TITLE	.\src\LayoutMgr\ETSLayoutEx.cpp
	.386P
include listing.inc
if @Version gt 510
.model FLAT
else
_TEXT	SEGMENT PARA USE32 PUBLIC 'CODE'
_TEXT	ENDS
_DATA	SEGMENT DWORD USE32 PUBLIC 'DATA'
_DATA	ENDS
CONST	SEGMENT DWORD USE32 PUBLIC 'CONST'
CONST	ENDS
_BSS	SEGMENT DWORD USE32 PUBLIC 'BSS'
_BSS	ENDS
$$SYMBOLS	SEGMENT BYTE USE32 'DEBSYM'
$$SYMBOLS	ENDS
$$TYPES	SEGMENT BYTE USE32 'DEBTYP'
$$TYPES	ENDS
_TLS	SEGMENT DWORD USE32 PUBLIC 'TLS'
_TLS	ENDS
;	COMDAT ??_C@_02PGHGPEOM@?91?$AA@
CONST	SEGMENT DWORD USE32 PUBLIC 'CONST'
CONST	ENDS
;	COMDAT ??_C@_04JAADICNI@?5?$DN?1?$FL?$AA@
CONST	SEGMENT DWORD USE32 PUBLIC 'CONST'
CONST	ENDS
;	COMDAT ??_C@_0L@GJIJNDEK@ISO?98859?91?$AA@
CONST	SEGMENT DWORD USE32 PUBLIC 'CONST'
CONST	ENDS
;	COMDAT ??_C@_01JLIPDDHJ@?3?$AA@
CONST	SEGMENT DWORD USE32 PUBLIC 'CONST'
CONST	ENDS
;	COMDAT ??_C@_04LJDDIHIK@?4bmp?$AA@
CONST	SEGMENT DWORD USE32 PUBLIC 'CONST'
CONST	ENDS
;	COMDAT ??_C@_0BE@JONHPENG@map?1set?$DMT?$DO?5too?5long?$AA@
CONST	SEGMENT DWORD USE32 PUBLIC 'CONST'
CONST	ENDS
rdata$r	SEGMENT DWORD USE32 PUBLIC 'CONST'
rdata$r	ENDS
xdata$x	SEGMENT DWORD USE32 PUBLIC 'CONST'
xdata$x	ENDS
text$AFX_COL1	SEGMENT PARA USE32 PUBLIC ''
text$AFX_COL1	ENDS
text$yc	SEGMENT PARA USE32 PUBLIC 'CODE'
text$yc	ENDS
CRT$XCA	SEGMENT DWORD USE32 PUBLIC 'DATA'
CRT$XCA	ENDS
CRT$XCU	SEGMENT DWORD USE32 PUBLIC 'DATA'
CRT$XCU	ENDS
CRT$XCL	SEGMENT DWORD USE32 PUBLIC 'DATA'
CRT$XCL	ENDS
CRT$XCC	SEGMENT DWORD USE32 PUBLIC 'DATA'
CRT$XCC	ENDS
CRT$XCZ	SEGMENT DWORD USE32 PUBLIC 'DATA'
CRT$XCZ	ENDS
text$yd	SEGMENT PARA USE32 PUBLIC 'CODE'
text$yd	ENDS
ATL$__m	SEGMENT DWORD USE32 PUBLIC ''
ATL$__m	ENDS
ATL$__z	SEGMENT DWORD USE32 PUBLIC ''
ATL$__z	ENDS
ATL$__a	SEGMENT DWORD USE32 PUBLIC ''
ATL$__a	ENDS
;	COMDAT ?GetSubPane@PaneBase@ETSLayoutMgr@@UAE?AVCPaneBase@2@V?$CStringT@DV?$StrTraitMFC_DLL@DV?$ChTraitsCRT@D@ATL@@@@@ATL@@@Z
_TEXT	SEGMENT PARA USE32 PUBLIC 'CODE'
_TEXT	ENDS
;	COMDAT ??1PaneBase@ETSLayoutMgr@@UAE@XZ
_TEXT	SEGMENT PARA USE32 PUBLIC 'CODE'
_TEXT	ENDS
;	COMDAT ?modeResize@PaneBase@ETSLayoutMgr@@QAEKXZ
_TEXT	SEGMENT PARA USE32 PUBLIC 'CODE'
_TEXT	ENDS
;	COMDAT ?getPaneRect@PaneBase@ETSLayoutMgr@@QAE?AVCRect@@XZ
_TEXT	SEGMENT PARA USE32 PUBLIC 'CODE'
_TEXT	ENDS
;	COMDAT ?GetName@PaneBase@ETSLayoutMgr@@QAE?AV?$CStringT@DV?$StrTraitMFC_DLL@DV?$ChTraitsCRT@D@ATL@@@@@ATL@@XZ
_TEXT	SEGMENT PARA USE32 PUBLIC 'CODE'
_TEXT	ENDS
;	COMDAT ?showPane@PaneBase@ETSLayoutMgr@@UAEX_N@Z
_TEXT	SEGMENT PARA USE32 PUBLIC 'CODE'
_TEXT	ENDS
;	COMDAT ?GetPaneBase@CPaneBase@ETSLayoutMgr@@QAEPAVPaneBase@2@XZ
_TEXT	SEGMENT PARA USE32 PUBLIC 'CODE'
_TEXT	ENDS
;	COMDAT ?IsValid@CPaneBase@ETSLayoutMgr@@QAE_NXZ
_TEXT	SEGMENT PARA USE32 PUBLIC 'CODE'
_TEXT	ENDS
;	COMDAT ?GetPane@CPane@ETSLayoutMgr@@QAEPAVPane@2@XZ
_TEXT	SEGMENT PARA USE32 PUBLIC 'CODE'
_TEXT	ENDS
;	COMDAT ?GetRect@ETSLayoutMgr@@UAE?AVCRect@@XZ
_TEXT	SEGMENT PARA USE32 PUBLIC 'CODE'
_TEXT	ENDS
;	COMDAT ?UpdateLayout@ETSLayoutMgr@@UAEXVCPane@1@@Z
_TEXT	SEGMENT PARA USE32 PUBLIC 'CODE'
_TEXT	ENDS
;	COMDAT ??_GPaneBase@ETSLayoutMgr@@UAEPAXI@Z
_TEXT	SEGMENT PARA USE32 PUBLIC 'CODE'
_TEXT	ENDS
;	COMDAT ??_GETSLayoutMgr@@UAEPAXI@Z
_TEXT	SEGMENT PARA USE32 PUBLIC 'CODE'
_TEXT	ENDS
;	COMDAT ??0CMarkup@@QAE@XZ
_TEXT	SEGMENT PARA USE32 PUBLIC 'CODE'
_TEXT	ENDS
;	COMDAT ??1CMarkup@@UAE@XZ
_TEXT	SEGMENT PARA USE32 PUBLIC 'CODE'
_TEXT	ENDS
;	COMDAT ?AddElem@CMarkup@@QAE_NPBD0@Z
_TEXT	SEGMENT PARA USE32 PUBLIC 'CODE'
_TEXT	ENDS
;	COMDAT ?AddChildElem@CMarkup@@QAE_NPBD0@Z
_TEXT	SEGMENT PARA USE32 PUBLIC 'CODE'
_TEXT	ENDS
;	COMDAT ??0ElemPos@CMarkup@@QAE@XZ
_TEXT	SEGMENT PARA USE32 PUBLIC 'CODE'
_TEXT	ENDS
;	COMDAT ?Clear@ElemPos@CMarkup@@QAEXXZ
_TEXT	SEGMENT PARA USE32 PUBLIC 'CODE'
_TEXT	ENDS
;	COMDAT ?Clear@TokenPos@CMarkup@@QAEXXZ
_TEXT	SEGMENT PARA USE32 PUBLIC 'CODE'
_TEXT	ENDS
;	COMDAT ?x_SetPos@CMarkup@@IAEXHHH@Z
_TEXT	SEGMENT PARA USE32 PUBLIC 'CODE'
_TEXT	ENDS
;	COMDAT ??_GCMarkup@@UAEPAXI@Z
_TEXT	SEGMENT PARA USE32 PUBLIC 'CODE'
_TEXT	ENDS
;	COMDAT ?AddElem@CMarkupArchive@@UAE_NPBD0@Z
_TEXT	SEGMENT PARA USE32 PUBLIC 'CODE'
_TEXT	ENDS
;	COMDAT ?AddChildElem@CMarkupArchive@@UAE_NPBD0@Z
_TEXT	SEGMENT PARA USE32 PUBLIC 'CODE'
_TEXT	ENDS
;	COMDAT ?FindElem@CMarkupArchive@@UAE_NPBD@Z
_TEXT	SEGMENT PARA USE32 PUBLIC 'CODE'
_TEXT	ENDS
;	COMDAT ?FindChildElem@CMarkupArchive@@UAE_NPBD@Z
_TEXT	SEGMENT PARA USE32 PUBLIC 'CODE'
_TEXT	ENDS
;	COMDAT ??_GCMarkupArchive@@UAEPAXI@Z
_TEXT	SEGMENT PARA USE32 PUBLIC 'CODE'
_TEXT	ENDS
;	COMDAT ??1?$pair@$$CBV?$CStringT@DV?$StrTraitMFC_DLL@DV?$ChTraitsCRT@D@ATL@@@@@ATL@@PAVCDibBitmap@@@std@@QAE@XZ
_TEXT	SEGMENT PARA USE32 PUBLIC 'CODE'
_TEXT	ENDS
;	COMDAT ??_GPaneSplitter@ETSLayoutMgr@@UAEPAXI@Z
_TEXT	SEGMENT PARA USE32 PUBLIC 'CODE'
_TEXT	ENDS
;	COMDAT ??1PaneSplitter@ETSLayoutMgr@@UAE@XZ
_TEXT	SEGMENT PARA USE32 PUBLIC 'CODE'
_TEXT	ENDS
;	COMDAT ??1CPaneMulti@ETSLayoutMgr@@QAE@XZ
_TEXT	SEGMENT PARA USE32 PUBLIC 'CODE'
_TEXT	ENDS
;	COMDAT ??1CPanePosition@ETSLayoutMgr@@QAE@XZ
_TEXT	SEGMENT PARA USE32 PUBLIC 'CODE'
_TEXT	ENDS
;	COMDAT ??_GPanePosition@ETSLayoutMgr@@UAEPAXI@Z
_TEXT	SEGMENT PARA USE32 PUBLIC 'CODE'
_TEXT	ENDS
;	COMDAT ??1PanePosition@ETSLayoutMgr@@UAE@XZ
_TEXT	SEGMENT PARA USE32 PUBLIC 'CODE'
_TEXT	ENDS
;	COMDAT ??HATL@@YA?AV?$CStringT@DV?$StrTraitMFC_DLL@DV?$ChTraitsCRT@D@ATL@@@@@0@ABV10@0@Z
_TEXT	SEGMENT PARA USE32 PUBLIC 'CODE'
_TEXT	ENDS
;	COMDAT ??HATL@@YA?AV?$CStringT@DV?$StrTraitMFC_DLL@DV?$ChTraitsCRT@D@ATL@@@@@0@ABV10@PBD@Z
_TEXT	SEGMENT PARA USE32 PUBLIC 'CODE'
_TEXT	ENDS
;	COMDAT ??8ATL@@YA_NABV?$CStringT@DV?$StrTraitMFC_DLL@DV?$ChTraitsCRT@D@ATL@@@@@0@PBD@Z
_TEXT	SEGMENT PARA USE32 PUBLIC 'CODE'
_TEXT	ENDS
;	COMDAT ??B?$CComPtrBase@UITypeInfo2@@@ATL@@QBEPAUITypeInfo2@@XZ
_TEXT	SEGMENT PARA USE32 PUBLIC 'CODE'
_TEXT	ENDS
;	COMDAT ?equal@?$istreambuf_iterator@DU?$char_traits@D@std@@@std@@QBE_NABV12@@Z
_TEXT	SEGMENT PARA USE32 PUBLIC 'CODE'
_TEXT	ENDS
;	COMDAT ?equal@?$istreambuf_iterator@_WU?$char_traits@_W@std@@@std@@QBE_NABV12@@Z
_TEXT	SEGMENT PARA USE32 PUBLIC 'CODE'
_TEXT	ENDS
;	COMDAT ?insert@?$_Tree@V?$_Tmap_traits@V?$CStringT@DV?$StrTraitMFC_DLL@DV?$ChTraitsCRT@D@ATL@@@@@ATL@@PAVCDibBitmap@@U?$less@V?$CStringT@DV?$StrTraitMFC_DLL@DV?$ChTraitsCRT@D@ATL@@@@@ATL@@@std@@V?$allocator@U?$pair@$$CBV?$CStringT@DV?$StrTraitMFC_DLL@DV?$ChTraitsCRT@D@ATL@@@@@ATL@@PAVCDibBitmap@@@std@@@5@$0A@@std@@@std@@QAE?AU?$pair@Viterator@?$_Tree@V?$_Tmap_traits@V?$CStringT@DV?$StrTraitMFC_DLL@DV?$ChTraitsCRT@D@ATL@@@@@ATL@@PAVCDibBitmap@@U?$less@V?$CStringT@DV?$StrTraitMFC_DLL@DV?$ChTraitsCRT@D@ATL@@@@@ATL@@@std@@V?$allocator@U?$pair@$$CBV?$CStringT@DV?$StrTraitMFC_DLL@DV?$ChTraitsCRT@D@ATL@@@@@ATL@@PAVCDibBitmap@@@std@@@5@$0A@@std@@@std@@_N@2@ABU?$pair@$$CBV?$CStringT@DV?$StrTraitMFC_DLL@DV?$ChTraitsCRT@D@ATL@@@@@ATL@@PAVCDibBitmap@@@2@@Z
_TEXT	SEGMENT PARA USE32 PUBLIC 'CODE'
_TEXT	ENDS
;	COMDAT ??0?$pair@$$CBV?$CStringT@DV?$StrTraitMFC_DLL@DV?$ChTraitsCRT@D@ATL@@@@@ATL@@PAVCDibBitmap@@@std@@QAE@ABV?$CStringT@DV?$StrTraitMFC_DLL@DV?$ChTraitsCRT@D@ATL@@@@@ATL@@ABQAVCDibBitmap@@@Z
_TEXT	SEGMENT PARA USE32 PUBLIC 'CODE'
_TEXT	ENDS
;	COMDAT ?_Isnil@?$_Tree@V?$_Tmap_traits@V?$CStringT@DV?$StrTraitMFC_DLL@DV?$ChTraitsCRT@D@ATL@@@@@ATL@@PAVCDibBitmap@@U?$less@V?$CStringT@DV?$StrTraitMFC_DLL@DV?$ChTraitsCRT@D@ATL@@@@@ATL@@@std@@V?$allocator@U?$pair@$$CBV?$CStringT@DV?$StrTraitMFC_DLL@DV?$ChTraitsCRT@D@ATL@@@@@ATL@@PAVCDibBitmap@@@std@@@5@$0A@@std@@@std@@KAAADPAU_Node@?$_Tree_nod@V?$_Tmap_traits@V?$CStringT@DV?$StrTraitMFC_DLL@DV?$ChTraitsCRT@D@ATL@@@@@ATL@@PAVCDibBitmap@@U?$less@V?$CStringT@DV?$StrTraitMFC_DLL@DV?$ChTraitsCRT@D@ATL@@@@@ATL@@@std@@V?$allocator@U?$pair@$$CBV?$CStringT@DV?$StrTraitMFC_DLL@DV?$ChTraitsCRT@D@ATL@@@@@ATL@@PAVCDibBitmap@@@std@@@5@$0A@@std@@@2@@Z
_TEXT	SEGMENT PARA USE32 PUBLIC 'CODE'
_TEXT	ENDS
;	COMDAT ?_Key@?$_Tree@V?$_Tmap_traits@V?$CStringT@DV?$StrTraitMFC_DLL@DV?$ChTraitsCRT@D@ATL@@@@@ATL@@PAVCDibBitmap@@U?$less@V?$CStringT@DV?$StrTraitMFC_DLL@DV?$ChTraitsCRT@D@ATL@@@@@ATL@@@std@@V?$allocator@U?$pair@$$CBV?$CStringT@DV?$StrTraitMFC_DLL@DV?$ChTraitsCRT@D@ATL@@@@@ATL@@PAVCDibBitmap@@@std@@@5@$0A@@std@@@std@@KAABV?$CStringT@DV?$StrTraitMFC_DLL@DV?$ChTraitsCRT@D@ATL@@@@@ATL@@PAU_Node@?$_Tree_nod@V?$_Tmap_traits@V?$CStringT@DV?$StrTraitMFC_DLL@DV?$ChTraitsCRT@D@ATL@@@@@ATL@@PAVCDibBitmap@@U?$less@V?$CStringT@DV?$StrTraitMFC_DLL@DV?$ChTraitsCRT@D@ATL@@@@@ATL@@@std@@V?$allocator@U?$pair@$$CBV?$CStringT@DV?$StrTraitMFC_DLL@DV?$ChTraitsCRT@D@ATL@@@@@ATL@@PAVCDibBitmap@@@std@@@5@$0A@@std@@@2@@Z
_TEXT	SEGMENT PARA USE32 PUBLIC 'CODE'
_TEXT	ENDS
;	COMDAT ?_Left@?$_Tree@V?$_Tmap_traits@V?$CStringT@DV?$StrTraitMFC_DLL@DV?$ChTraitsCRT@D@ATL@@@@@ATL@@PAVCDibBitmap@@U?$less@V?$CStringT@DV?$StrTraitMFC_DLL@DV?$ChTraitsCRT@D@ATL@@@@@ATL@@@std@@V?$allocator@U?$pair@$$CBV?$CStringT@DV?$StrTraitMFC_DLL@DV?$ChTraitsCRT@D@ATL@@@@@ATL@@PAVCDibBitmap@@@std@@@5@$0A@@std@@@std@@KAAAPAU_Node@?$_Tree_nod@V?$_Tmap_traits@V?$CStringT@DV?$StrTraitMFC_DLL@DV?$ChTraitsCRT@D@ATL@@@@@ATL@@PAVCDibBitmap@@U?$less@V?$CStringT@DV?$StrTraitMFC_DLL@DV?$ChTraitsCRT@D@ATL@@@@@ATL@@@std@@V?$allocator@U?$pair@$$CBV?$CStringT@DV?$StrTraitMFC_DLL@DV?$ChTraitsCRT@D@ATL@@@@@ATL@@PAVCDibBitmap@@@std@@@5@$0A@@std@@@2@PAU342@@Z
_TEXT	SEGMENT PARA USE32 PUBLIC 'CODE'
_TEXT	ENDS
;	COMDAT ?_Right@?$_Tree@V?$_Tmap_traits@V?$CStringT@DV?$StrTraitMFC_DLL@DV?$ChTraitsCRT@D@ATL@@@@@ATL@@PAVCDibBitmap@@U?$less@V?$CStringT@DV?$StrTraitMFC_DLL@DV?$ChTraitsCRT@D@ATL@@@@@ATL@@@std@@V?$allocator@U?$pair@$$CBV?$CStringT@DV?$StrTraitMFC_DLL@DV?$ChTraitsCRT@D@ATL@@@@@ATL@@PAVCDibBitmap@@@std@@@5@$0A@@std@@@std@@KAAAPAU_Node@?$_Tree_nod@V?$_Tmap_traits@V?$CStringT@DV?$StrTraitMFC_DLL@DV?$ChTraitsCRT@D@ATL@@@@@ATL@@PAVCDibBitmap@@U?$less@V?$CStringT@DV?$StrTraitMFC_DLL@DV?$ChTraitsCRT@D@ATL@@@@@ATL@@@std@@V?$allocator@U?$pair@$$CBV?$CStringT@DV?$StrTraitMFC_DLL@DV?$ChTraitsCRT@D@ATL@@@@@ATL@@PAVCDibBitmap@@@std@@@5@$0A@@std@@@2@PAU342@@Z
_TEXT	SEGMENT PARA USE32 PUBLIC 'CODE'
_TEXT	ENDS
;	COMDAT ?begin@?$_Tree@V?$_Tmap_traits@V?$CStringT@DV?$StrTraitMFC_DLL@DV?$ChTraitsCRT@D@ATL@@@@@ATL@@PAVCDibBitmap@@U?$less@V?$CStringT@DV?$StrTraitMFC_DLL@DV?$ChTraitsCRT@D@ATL@@@@@ATL@@@std@@V?$allocator@U?$pair@$$CBV?$CStringT@DV?$StrTraitMFC_DLL@DV?$ChTraitsCRT@D@ATL@@@@@ATL@@PAVCDibBitmap@@@std@@@5@$0A@@std@@@std@@QAE?AViterator@12@XZ
_TEXT	SEGMENT PARA USE32 PUBLIC 'CODE'
_TEXT	ENDS
;	COMDAT ?_Insert@?$_Tree@V?$_Tmap_traits@V?$CStringT@DV?$StrTraitMFC_DLL@DV?$ChTraitsCRT@D@ATL@@@@@ATL@@PAVCDibBitmap@@U?$less@V?$CStringT@DV?$StrTraitMFC_DLL@DV?$ChTraitsCRT@D@ATL@@@@@ATL@@@std@@V?$allocator@U?$pair@$$CBV?$CStringT@DV?$StrTraitMFC_DLL@DV?$ChTraitsCRT@D@ATL@@@@@ATL@@PAVCDibBitmap@@@std@@@5@$0A@@std@@@std@@IAE?AViterator@12@_NPAU_Node@?$_Tree_nod@V?$_Tmap_traits@V?$CStringT@DV?$StrTraitMFC_DLL@DV?$ChTraitsCRT@D@ATL@@@@@ATL@@PAVCDibBitmap@@U?$less@V?$CStringT@DV?$StrTraitMFC_DLL@DV?$ChTraitsCRT@D@ATL@@@@@ATL@@@std@@V?$allocator@U?$pair@$$CBV?$CStringT@DV?$StrTraitMFC_DLL@DV?$ChTraitsCRT@D@ATL@@@@@ATL@@PAVCDibBitmap@@@std@@@5@$0A@@std@@@2@ABU?$pair@$$CBV?$CStringT@DV?$StrTraitMFC_DLL@DV?$ChTraitsCRT@D@ATL@@@@@ATL@@PAVCDibBitmap@@@2@@Z
_TEXT	SEGMENT PARA USE32 PUBLIC 'CODE'
_TEXT	ENDS
;	COMDAT ?_Root@?$_Tree@V?$_Tmap_traits@V?$CStringT@DV?$StrTraitMFC_DLL@DV?$ChTraitsCRT@D@ATL@@@@@ATL@@PAVCDibBitmap@@U?$less@V?$CStringT@DV?$StrTraitMFC_DLL@DV?$ChTraitsCRT@D@ATL@@@@@ATL@@@std@@V?$allocator@U?$pair@$$CBV?$CStringT@DV?$StrTraitMFC_DLL@DV?$ChTraitsCRT@D@ATL@@@@@ATL@@PAVCDibBitmap@@@std@@@5@$0A@@std@@@std@@IAEAAPAU_Node@?$_Tree_nod@V?$_Tmap_traits@V?$CStringT@DV?$StrTraitMFC_DLL@DV?$ChTraitsCRT@D@ATL@@@@@ATL@@PAVCDibBitmap@@U?$less@V?$CStringT@DV?$StrTraitMFC_DLL@DV?$ChTraitsCRT@D@ATL@@@@@ATL@@@std@@V?$allocator@U?$pair@$$CBV?$CStringT@DV?$StrTraitMFC_DLL@DV?$ChTraitsCRT@D@ATL@@@@@ATL@@PAVCDibBitmap@@@std@@@5@$0A@@std@@@2@XZ
_TEXT	SEGMENT PARA USE32 PUBLIC 'CODE'
_TEXT	ENDS
;	COMDAT ?_Kfn@?$_Tmap_traits@V?$CStringT@DV?$StrTraitMFC_DLL@DV?$ChTraitsCRT@D@ATL@@@@@ATL@@PAVCDibBitmap@@U?$less@V?$CStringT@DV?$StrTraitMFC_DLL@DV?$ChTraitsCRT@D@ATL@@@@@ATL@@@std@@V?$allocator@U?$pair@$$CBV?$CStringT@DV?$StrTraitMFC_DLL@DV?$ChTraitsCRT@D@ATL@@@@@ATL@@PAVCDibBitmap@@@std@@@5@$0A@@std@@SAABV?$CStringT@DV?$StrTraitMFC_DLL@DV?$ChTraitsCRT@D@ATL@@@@@ATL@@ABU?$pair@$$CBV?$CStringT@DV?$StrTraitMFC_DLL@DV?$ChTraitsCRT@D@ATL@@@@@ATL@@PAVCDibBitmap@@@2@@Z
_TEXT	SEGMENT PARA USE32 PUBLIC 'CODE'
_TEXT	ENDS
;	COMDAT ??R?$less@V?$CStringT@DV?$StrTraitMFC_DLL@DV?$ChTraitsCRT@D@ATL@@@@@ATL@@@std@@QBE_NABV?$CStringT@DV?$StrTraitMFC_DLL@DV?$ChTraitsCRT@D@ATL@@@@@ATL@@0@Z
_TEXT	SEGMENT PARA USE32 PUBLIC 'CODE'
_TEXT	ENDS
;	COMDAT ??0?$pair@Viterator@?$_Tree@V?$_Tmap_traits@V?$CStringT@DV?$StrTraitMFC_DLL@DV?$ChTraitsCRT@D@ATL@@@@@ATL@@PAVCDibBitmap@@U?$less@V?$CStringT@DV?$StrTraitMFC_DLL@DV?$ChTraitsCRT@D@ATL@@@@@ATL@@@std@@V?$allocator@U?$pair@$$CBV?$CStringT@DV?$StrTraitMFC_DLL@DV?$ChTraitsCRT@D@ATL@@@@@ATL@@PAVCDibBitmap@@@std@@@5@$0A@@std@@@std@@_N@std@@QAE@ABViterator@?$_Tree@V?$_Tmap_traits@V?$CStringT@DV?$StrTraitMFC_DLL@DV?$ChTraitsCRT@D@ATL@@@@@ATL@@PAVCDibBitmap@@U?$less@V?$CStringT@DV?$StrTraitMFC_DLL@DV?$ChTraitsCRT@D@ATL@@@@@ATL@@@std@@V?$allocator@U?$pair@$$CBV?$CStringT@DV?$StrTraitMFC_DLL@DV?$ChTraitsCRT@D@ATL@@@@@ATL@@PAVCDibBitmap@@@std@@@5@$0A@@std@@@1@AB_N@Z
_TEXT	SEGMENT PARA USE32 PUBLIC 'CODE'
_TEXT	ENDS
;	COMDAT ??0iterator@?$_Tree@V?$_Tmap_traits@V?$CStringT@DV?$StrTraitMFC_DLL@DV?$ChTraitsCRT@D@ATL@@@@@ATL@@PAVCDibBitmap@@U?$less@V?$CStringT@DV?$StrTraitMFC_DLL@DV?$ChTraitsCRT@D@ATL@@@@@ATL@@@std@@V?$allocator@U?$pair@$$CBV?$CStringT@DV?$StrTraitMFC_DLL@DV?$ChTraitsCRT@D@ATL@@@@@ATL@@PAVCDibBitmap@@@std@@@5@$0A@@std@@@std@@QAE@PAU_Node@?$_Tree_nod@V?$_Tmap_traits@V?$CStringT@DV?$StrTraitMFC_DLL@DV?$ChTraitsCRT@D@ATL@@@@@ATL@@PAVCDibBitmap@@U?$less@V?$CStringT@DV?$StrTraitMFC_DLL@DV?$ChTraitsCRT@D@ATL@@@@@ATL@@@std@@V?$allocator@U?$pair@$$CBV?$CStringT@DV?$StrTraitMFC_DLL@DV?$ChTraitsCRT@D@ATL@@@@@ATL@@PAVCDibBitmap@@@std@@@5@$0A@@std@@@2@@Z
_TEXT	SEGMENT PARA USE32 PUBLIC 'CODE'
_TEXT	ENDS
;	COMDAT ??Fiterator@?$_Tree@V?$_Tmap_traits@V?$CStringT@DV?$StrTraitMFC_DLL@DV?$ChTraitsCRT@D@ATL@@@@@ATL@@PAVCDibBitmap@@U?$less@V?$CStringT@DV?$StrTraitMFC_DLL@DV?$ChTraitsCRT@D@ATL@@@@@ATL@@@std@@V?$allocator@U?$pair@$$CBV?$CStringT@DV?$StrTraitMFC_DLL@DV?$ChTraitsCRT@D@ATL@@@@@ATL@@PAVCDibBitmap@@@std@@@5@$0A@@std@@@std@@QAEAAV012@XZ
_TEXT	SEGMENT PARA USE32 PUBLIC 'CODE'
_TEXT	ENDS
;	COMDAT ??8const_iterator@?$_Tree@V?$_Tmap_traits@V?$CStringT@DV?$StrTraitMFC_DLL@DV?$ChTraitsCRT@D@ATL@@@@@ATL@@PAVCDibBitmap@@U?$less@V?$CStringT@DV?$StrTraitMFC_DLL@DV?$ChTraitsCRT@D@ATL@@@@@ATL@@@std@@V?$allocator@U?$pair@$$CBV?$CStringT@DV?$StrTraitMFC_DLL@DV?$ChTraitsCRT@D@ATL@@@@@ATL@@PAVCDibBitmap@@@std@@@5@$0A@@std@@@std@@QBE_NABV012@@Z
_TEXT	SEGMENT PARA USE32 PUBLIC 'CODE'
_TEXT	ENDS
;	COMDAT ?_Mynode@const_iterator@?$_Tree@V?$_Tmap_traits@V?$CStringT@DV?$StrTraitMFC_DLL@DV?$ChTraitsCRT@D@ATL@@@@@ATL@@PAVCDibBitmap@@U?$less@V?$CStringT@DV?$StrTraitMFC_DLL@DV?$ChTraitsCRT@D@ATL@@@@@ATL@@@std@@V?$allocator@U?$pair@$$CBV?$CStringT@DV?$StrTraitMFC_DLL@DV?$ChTraitsCRT@D@ATL@@@@@ATL@@PAVCDibBitmap@@@std@@@5@$0A@@std@@@std@@QBEPAU_Node@?$_Tree_nod@V?$_Tmap_traits@V?$CStringT@DV?$StrTraitMFC_DLL@DV?$ChTraitsCRT@D@ATL@@@@@ATL@@PAVCDibBitmap@@U?$less@V?$CStringT@DV?$StrTraitMFC_DLL@DV?$ChTraitsCRT@D@ATL@@@@@ATL@@@std@@V?$allocator@U?$pair@$$CBV?$CStringT@DV?$StrTraitMFC_DLL@DV?$ChTraitsCRT@D@ATL@@@@@ATL@@PAVCDibBitmap@@@std@@@5@$0A@@std@@@3@XZ
_TEXT	SEGMENT PARA USE32 PUBLIC 'CODE'
_TEXT	ENDS
;	COMDAT ??0length_error@std@@QAE@ABV01@@Z
_TEXT	SEGMENT PARA USE32 PUBLIC 'CODE'
_TEXT	ENDS
;	COMDAT ??MATL@@YA_NABV?$CStringT@DV?$StrTraitMFC_DLL@DV?$ChTraitsCRT@D@ATL@@@@@0@0@Z
_TEXT	SEGMENT PARA USE32 PUBLIC 'CODE'
_TEXT	ENDS
;	COMDAT ?StringCompare@?$ChTraitsCRT@D@ATL@@SAHPBD0@Z
_TEXT	SEGMENT PARA USE32 PUBLIC 'CODE'
_TEXT	ENDS
;	COMDAT ?_Color@?$_Tree@V?$_Tmap_traits@V?$CStringT@DV?$StrTraitMFC_DLL@DV?$ChTraitsCRT@D@ATL@@@@@ATL@@PAVCDibBitmap@@U?$less@V?$CStringT@DV?$StrTraitMFC_DLL@DV?$ChTraitsCRT@D@ATL@@@@@ATL@@@std@@V?$allocator@U?$pair@$$CBV?$CStringT@DV?$StrTraitMFC_DLL@DV?$ChTraitsCRT@D@ATL@@@@@ATL@@PAVCDibBitmap@@@std@@@5@$0A@@std@@@std@@KAAADPAU_Node@?$_Tree_nod@V?$_Tmap_traits@V?$CStringT@DV?$StrTraitMFC_DLL@DV?$ChTraitsCRT@D@ATL@@@@@ATL@@PAVCDibBitmap@@U?$less@V?$CStringT@DV?$StrTraitMFC_DLL@DV?$ChTraitsCRT@D@ATL@@@@@ATL@@@std@@V?$allocator@U?$pair@$$CBV?$CStringT@DV?$StrTraitMFC_DLL@DV?$ChTraitsCRT@D@ATL@@@@@ATL@@PAVCDibBitmap@@@std@@@5@$0A@@std@@@2@@Z
_TEXT	SEGMENT PARA USE32 PUBLIC 'CODE'
_TEXT	ENDS
;	COMDAT ?_Parent@?$_Tree@V?$_Tmap_traits@V?$CStringT@DV?$StrTraitMFC_DLL@DV?$ChTraitsCRT@D@ATL@@@@@ATL@@PAVCDibBitmap@@U?$less@V?$CStringT@DV?$StrTraitMFC_DLL@DV?$ChTraitsCRT@D@ATL@@@@@ATL@@@std@@V?$allocator@U?$pair@$$CBV?$CStringT@DV?$StrTraitMFC_DLL@DV?$ChTraitsCRT@D@ATL@@@@@ATL@@PAVCDibBitmap@@@std@@@5@$0A@@std@@@std@@KAAAPAU_Node@?$_Tree_nod@V?$_Tmap_traits@V?$CStringT@DV?$StrTraitMFC_DLL@DV?$ChTraitsCRT@D@ATL@@@@@ATL@@PAVCDibBitmap@@U?$less@V?$CStringT@DV?$StrTraitMFC_DLL@DV?$ChTraitsCRT@D@ATL@@@@@ATL@@@std@@V?$allocator@U?$pair@$$CBV?$CStringT@DV?$StrTraitMFC_DLL@DV?$ChTraitsCRT@D@ATL@@@@@ATL@@PAVCDibBitmap@@@std@@@5@$0A@@std@@@2@PAU342@@Z
_TEXT	SEGMENT PARA USE32 PUBLIC 'CODE'
_TEXT	ENDS
;	COMDAT ?_Myval@?$_Tree@V?$_Tmap_traits@V?$CStringT@DV?$StrTraitMFC_DLL@DV?$ChTraitsCRT@D@ATL@@@@@ATL@@PAVCDibBitmap@@U?$less@V?$CStringT@DV?$StrTraitMFC_DLL@DV?$ChTraitsCRT@D@ATL@@@@@ATL@@@std@@V?$allocator@U?$pair@$$CBV?$CStringT@DV?$StrTraitMFC_DLL@DV?$ChTraitsCRT@D@ATL@@@@@ATL@@PAVCDibBitmap@@@std@@@5@$0A@@std@@@std@@KAAAU?$pair@$$CBV?$CStringT@DV?$StrTraitMFC_DLL@DV?$ChTraitsCRT@D@ATL@@@@@ATL@@PAVCDibBitmap@@@2@PAU_Node@?$_Tree_nod@V?$_Tmap_traits@V?$CStringT@DV?$StrTraitMFC_DLL@DV?$ChTraitsCRT@D@ATL@@@@@ATL@@PAVCDibBitmap@@U?$less@V?$CStringT@DV?$StrTraitMFC_DLL@DV?$ChTraitsCRT@D@ATL@@@@@ATL@@@std@@V?$allocator@U?$pair@$$CBV?$CStringT@DV?$StrTraitMFC_DLL@DV?$ChTraitsCRT@D@ATL@@@@@ATL@@PAVCDibBitmap@@@std@@@5@$0A@@std@@@2@@Z
_TEXT	SEGMENT PARA USE32 PUBLIC 'CODE'
_TEXT	ENDS
;	COMDAT ?max_size@?$_Tree@V?$_Tmap_traits@V?$CStringT@DV?$StrTraitMFC_DLL@DV?$ChTraitsCRT@D@ATL@@@@@ATL@@PAVCDibBitmap@@U?$less@V?$CStringT@DV?$StrTraitMFC_DLL@DV?$ChTraitsCRT@D@ATL@@@@@ATL@@@std@@V?$allocator@U?$pair@$$CBV?$CStringT@DV?$StrTraitMFC_DLL@DV?$ChTraitsCRT@D@ATL@@@@@ATL@@PAVCDibBitmap@@@std@@@5@$0A@@std@@@std@@QBEIXZ
_TEXT	SEGMENT PARA USE32 PUBLIC 'CODE'
_TEXT	ENDS
;	COMDAT ?_Lmost@?$_Tree@V?$_Tmap_traits@V?$CStringT@DV?$StrTraitMFC_DLL@DV?$ChTraitsCRT@D@ATL@@@@@ATL@@PAVCDibBitmap@@U?$less@V?$CStringT@DV?$StrTraitMFC_DLL@DV?$ChTraitsCRT@D@ATL@@@@@ATL@@@std@@V?$allocator@U?$pair@$$CBV?$CStringT@DV?$StrTraitMFC_DLL@DV?$ChTraitsCRT@D@ATL@@@@@ATL@@PAVCDibBitmap@@@std@@@5@$0A@@std@@@std@@IAEAAPAU_Node@?$_Tree_nod@V?$_Tmap_traits@V?$CStringT@DV?$StrTraitMFC_DLL@DV?$ChTraitsCRT@D@ATL@@@@@ATL@@PAVCDibBitmap@@U?$less@V?$CStringT@DV?$StrTraitMFC_DLL@DV?$ChTraitsCRT@D@ATL@@@@@ATL@@@std@@V?$allocator@U?$pair@$$CBV?$CStringT@DV?$StrTraitMFC_DLL@DV?$ChTraitsCRT@D@ATL@@@@@ATL@@PAVCDibBitmap@@@std@@@5@$0A@@std@@@2@XZ
_TEXT	SEGMENT PARA USE32 PUBLIC 'CODE'
_TEXT	ENDS
;	COMDAT ?_Lrotate@?$_Tree@V?$_Tmap_traits@V?$CStringT@DV?$StrTraitMFC_DLL@DV?$ChTraitsCRT@D@ATL@@@@@ATL@@PAVCDibBitmap@@U?$less@V?$CStringT@DV?$StrTraitMFC_DLL@DV?$ChTraitsCRT@D@ATL@@@@@ATL@@@std@@V?$allocator@U?$pair@$$CBV?$CStringT@DV?$StrTraitMFC_DLL@DV?$ChTraitsCRT@D@ATL@@@@@ATL@@PAVCDibBitmap@@@std@@@5@$0A@@std@@@std@@IAEXPAU_Node@?$_Tree_nod@V?$_Tmap_traits@V?$CStringT@DV?$StrTraitMFC_DLL@DV?$ChTraitsCRT@D@ATL@@@@@ATL@@PAVCDibBitmap@@U?$less@V?$CStringT@DV?$StrTraitMFC_DLL@DV?$ChTraitsCRT@D@ATL@@@@@ATL@@@std@@V?$allocator@U?$pair@$$CBV?$CStringT@DV?$StrTraitMFC_DLL@DV?$ChTraitsCRT@D@ATL@@@@@ATL@@PAVCDibBitmap@@@std@@@5@$0A@@std@@@2@@Z
_TEXT	SEGMENT PARA USE32 PUBLIC 'CODE'
_TEXT	ENDS
;	COMDAT ?_Rmost@?$_Tree@V?$_Tmap_traits@V?$CStringT@DV?$StrTraitMFC_DLL@DV?$ChTraitsCRT@D@ATL@@@@@ATL@@PAVCDibBitmap@@U?$less@V?$CStringT@DV?$StrTraitMFC_DLL@DV?$ChTraitsCRT@D@ATL@@@@@ATL@@@std@@V?$allocator@U?$pair@$$CBV?$CStringT@DV?$StrTraitMFC_DLL@DV?$ChTraitsCRT@D@ATL@@@@@ATL@@PAVCDibBitmap@@@std@@@5@$0A@@std@@@std@@IAEAAPAU_Node@?$_Tree_nod@V?$_Tmap_traits@V?$CStringT@DV?$StrTraitMFC_DLL@DV?$ChTraitsCRT@D@ATL@@@@@ATL@@PAVCDibBitmap@@U?$less@V?$CStringT@DV?$StrTraitMFC_DLL@DV?$ChTraitsCRT@D@ATL@@@@@ATL@@@std@@V?$allocator@U?$pair@$$CBV?$CStringT@DV?$StrTraitMFC_DLL@DV?$ChTraitsCRT@D@ATL@@@@@ATL@@PAVCDibBitmap@@@std@@@5@$0A@@std@@@2@XZ
_TEXT	SEGMENT PARA USE32 PUBLIC 'CODE'
_TEXT	ENDS
;	COMDAT ?_Rrotate@?$_Tree@V?$_Tmap_traits@V?$CStringT@DV?$StrTraitMFC_DLL@DV?$ChTraitsCRT@D@ATL@@@@@ATL@@PAVCDibBitmap@@U?$less@V?$CStringT@DV?$StrTraitMFC_DLL@DV?$ChTraitsCRT@D@ATL@@@@@ATL@@@std@@V?$allocator@U?$pair@$$CBV?$CStringT@DV?$StrTraitMFC_DLL@DV?$ChTraitsCRT@D@ATL@@@@@ATL@@PAVCDibBitmap@@@std@@@5@$0A@@std@@@std@@IAEXPAU_Node@?$_Tree_nod@V?$_Tmap_traits@V?$CStringT@DV?$StrTraitMFC_DLL@DV?$ChTraitsCRT@D@ATL@@@@@ATL@@PAVCDibBitmap@@U?$less@V?$CStringT@DV?$StrTraitMFC_DLL@DV?$ChTraitsCRT@D@ATL@@@@@ATL@@@std@@V?$allocator@U?$pair@$$CBV?$CStringT@DV?$StrTraitMFC_DLL@DV?$ChTraitsCRT@D@ATL@@@@@ATL@@PAVCDibBitmap@@@std@@@5@$0A@@std@@@2@@Z
_TEXT	SEGMENT PARA USE32 PUBLIC 'CODE'
_TEXT	ENDS
;	COMDAT ?_Buynode@?$_Tree@V?$_Tmap_traits@V?$CStringT@DV?$StrTraitMFC_DLL@DV?$ChTraitsCRT@D@ATL@@@@@ATL@@PAVCDibBitmap@@U?$less@V?$CStringT@DV?$StrTraitMFC_DLL@DV?$ChTraitsCRT@D@ATL@@@@@ATL@@@std@@V?$allocator@U?$pair@$$CBV?$CStringT@DV?$StrTraitMFC_DLL@DV?$ChTraitsCRT@D@ATL@@@@@ATL@@PAVCDibBitmap@@@std@@@5@$0A@@std@@@std@@IAEPAU_Node@?$_Tree_nod@V?$_Tmap_traits@V?$CStringT@DV?$StrTraitMFC_DLL@DV?$ChTraitsCRT@D@ATL@@@@@ATL@@PAVCDibBitmap@@U?$less@V?$CStringT@DV?$StrTraitMFC_DLL@DV?$ChTraitsCRT@D@ATL@@@@@ATL@@@std@@V?$allocator@U?$pair@$$CBV?$CStringT@DV?$StrTraitMFC_DLL@DV?$ChTraitsCRT@D@ATL@@@@@ATL@@PAVCDibBitmap@@@std@@@5@$0A@@std@@@2@PAU342@00ABU?$pair@$$CBV?$CStringT@DV?$StrTraitMFC_DLL@DV?$ChTraitsCRT@D@ATL@@@@@ATL@@PAVCDibBitmap@@@2@D@Z
_TEXT	SEGMENT PARA USE32 PUBLIC 'CODE'
_TEXT	ENDS
;	COMDAT ??0const_iterator@?$_Tree@V?$_Tmap_traits@V?$CStringT@DV?$StrTraitMFC_DLL@DV?$ChTraitsCRT@D@ATL@@@@@ATL@@PAVCDibBitmap@@U?$less@V?$CStringT@DV?$StrTraitMFC_DLL@DV?$ChTraitsCRT@D@ATL@@@@@ATL@@@std@@V?$allocator@U?$pair@$$CBV?$CStringT@DV?$StrTraitMFC_DLL@DV?$ChTraitsCRT@D@ATL@@@@@ATL@@PAVCDibBitmap@@@std@@@5@$0A@@std@@@std@@QAE@PAU_Node@?$_Tree_nod@V?$_Tmap_traits@V?$CStringT@DV?$StrTraitMFC_DLL@DV?$ChTraitsCRT@D@ATL@@@@@ATL@@PAVCDibBitmap@@U?$less@V?$CStringT@DV?$StrTraitMFC_DLL@DV?$ChTraitsCRT@D@ATL@@@@@ATL@@@std@@V?$allocator@U?$pair@$$CBV?$CStringT@DV?$StrTraitMFC_DLL@DV?$ChTraitsCRT@D@ATL@@@@@ATL@@PAVCDibBitmap@@@std@@@5@$0A@@std@@@2@@Z
_TEXT	SEGMENT PARA USE32 PUBLIC 'CODE'
_TEXT	ENDS
;	COMDAT ??Fconst_iterator@?$_Tree@V?$_Tmap_traits@V?$CStringT@DV?$StrTraitMFC_DLL@DV?$ChTraitsCRT@D@ATL@@@@@ATL@@PAVCDibBitmap@@U?$less@V?$CStringT@DV?$StrTraitMFC_DLL@DV?$ChTraitsCRT@D@ATL@@@@@ATL@@@std@@V?$allocator@U?$pair@$$CBV?$CStringT@DV?$StrTraitMFC_DLL@DV?$ChTraitsCRT@D@ATL@@@@@ATL@@PAVCDibBitmap@@@std@@@5@$0A@@std@@@std@@QAEAAV012@XZ
_TEXT	SEGMENT PARA USE32 PUBLIC 'CODE'
_TEXT	ENDS
;	COMDAT ?max_size@?$allocator@U?$pair@$$CBV?$CStringT@DV?$StrTraitMFC_DLL@DV?$ChTraitsCRT@D@ATL@@@@@ATL@@PAVCDibBitmap@@@std@@@std@@QBEIXZ
_TEXT	SEGMENT PARA USE32 PUBLIC 'CODE'
_TEXT	ENDS
;	COMDAT ?deallocate@?$allocator@U_Node@?$_Tree_nod@V?$_Tmap_traits@V?$CStringT@DV?$StrTraitMFC_DLL@DV?$ChTraitsCRT@D@ATL@@@@@ATL@@PAVCDibBitmap@@U?$less@V?$CStringT@DV?$StrTraitMFC_DLL@DV?$ChTraitsCRT@D@ATL@@@@@ATL@@@std@@V?$allocator@U?$pair@$$CBV?$CStringT@DV?$StrTraitMFC_DLL@DV?$ChTraitsCRT@D@ATL@@@@@ATL@@PAVCDibBitmap@@@std@@@5@$0A@@std@@@std@@@std@@QAEXPAU_Node@?$_Tree_nod@V?$_Tmap_traits@V?$CStringT@DV?$StrTraitMFC_DLL@DV?$ChTraitsCRT@D@ATL@@@@@ATL@@PAVCDibBitmap@@U?$less@V?$CStringT@DV?$StrTraitMFC_DLL@DV?$ChTraitsCRT@D@ATL@@@@@ATL@@@std@@V?$allocator@U?$pair@$$CBV?$CStringT@DV?$StrTraitMFC_DLL@DV?$ChTraitsCRT@D@ATL@@@@@ATL@@PAVCDibBitmap@@@std@@@5@$0A@@std@@@2@I@Z
_TEXT	SEGMENT PARA USE32 PUBLIC 'CODE'
_TEXT	ENDS
;	COMDAT ?allocate@?$allocator@U_Node@?$_Tree_nod@V?$_Tmap_traits@V?$CStringT@DV?$StrTraitMFC_DLL@DV?$ChTraitsCRT@D@ATL@@@@@ATL@@PAVCDibBitmap@@U?$less@V?$CStringT@DV?$StrTraitMFC_DLL@DV?$ChTraitsCRT@D@ATL@@@@@ATL@@@std@@V?$allocator@U?$pair@$$CBV?$CStringT@DV?$StrTraitMFC_DLL@DV?$ChTraitsCRT@D@ATL@@@@@ATL@@PAVCDibBitmap@@@std@@@5@$0A@@std@@@std@@@std@@QAEPAU_Node@?$_Tree_nod@V?$_Tmap_traits@V?$CStringT@DV?$StrTraitMFC_DLL@DV?$ChTraitsCRT@D@ATL@@@@@ATL@@PAVCDibBitmap@@U?$less@V?$CStringT@DV?$StrTraitMFC_DLL@DV?$ChTraitsCRT@D@ATL@@@@@ATL@@@std@@V?$allocator@U?$pair@$$CBV?$CStringT@DV?$StrTraitMFC_DLL@DV?$ChTraitsCRT@D@ATL@@@@@ATL@@PAVCDibBitmap@@@std@@@5@$0A@@std@@@2@I@Z
_TEXT	SEGMENT PARA USE32 PUBLIC 'CODE'
_TEXT	ENDS
;	COMDAT ?_Dec@const_iterator@?$_Tree@V?$_Tmap_traits@V?$CStringT@DV?$StrTraitMFC_DLL@DV?$ChTraitsCRT@D@ATL@@@@@ATL@@PAVCDibBitmap@@U?$less@V?$CStringT@DV?$StrTraitMFC_DLL@DV?$ChTraitsCRT@D@ATL@@@@@ATL@@@std@@V?$allocator@U?$pair@$$CBV?$CStringT@DV?$StrTraitMFC_DLL@DV?$ChTraitsCRT@D@ATL@@@@@ATL@@PAVCDibBitmap@@@std@@@5@$0A@@std@@@std@@QAEXXZ
_TEXT	SEGMENT PARA USE32 PUBLIC 'CODE'
_TEXT	ENDS
;	COMDAT ??0_Node@?$_Tree_nod@V?$_Tmap_traits@V?$CStringT@DV?$StrTraitMFC_DLL@DV?$ChTraitsCRT@D@ATL@@@@@ATL@@PAVCDibBitmap@@U?$less@V?$CStringT@DV?$StrTraitMFC_DLL@DV?$ChTraitsCRT@D@ATL@@@@@ATL@@@std@@V?$allocator@U?$pair@$$CBV?$CStringT@DV?$StrTraitMFC_DLL@DV?$ChTraitsCRT@D@ATL@@@@@ATL@@PAVCDibBitmap@@@std@@@5@$0A@@std@@@std@@QAE@PAU012@00ABU?$pair@$$CBV?$CStringT@DV?$StrTraitMFC_DLL@DV?$ChTraitsCRT@D@ATL@@@@@ATL@@PAVCDibBitmap@@@2@D@Z
_TEXT	SEGMENT PARA USE32 PUBLIC 'CODE'
_TEXT	ENDS
;	COMDAT ??0?$pair@$$CBV?$CStringT@DV?$StrTraitMFC_DLL@DV?$ChTraitsCRT@D@ATL@@@@@ATL@@PAVCDibBitmap@@@std@@QAE@ABU01@@Z
_TEXT	SEGMENT PARA USE32 PUBLIC 'CODE'
_TEXT	ENDS
;	COMDAT ?_Max@?$_Tree@V?$_Tmap_traits@V?$CStringT@DV?$StrTraitMFC_DLL@DV?$ChTraitsCRT@D@ATL@@@@@ATL@@PAVCDibBitmap@@U?$less@V?$CStringT@DV?$StrTraitMFC_DLL@DV?$ChTraitsCRT@D@ATL@@@@@ATL@@@std@@V?$allocator@U?$pair@$$CBV?$CStringT@DV?$StrTraitMFC_DLL@DV?$ChTraitsCRT@D@ATL@@@@@ATL@@PAVCDibBitmap@@@std@@@5@$0A@@std@@@std@@KAPAU_Node@?$_Tree_nod@V?$_Tmap_traits@V?$CStringT@DV?$StrTraitMFC_DLL@DV?$ChTraitsCRT@D@ATL@@@@@ATL@@PAVCDibBitmap@@U?$less@V?$CStringT@DV?$StrTraitMFC_DLL@DV?$ChTraitsCRT@D@ATL@@@@@ATL@@@std@@V?$allocator@U?$pair@$$CBV?$CStringT@DV?$StrTraitMFC_DLL@DV?$ChTraitsCRT@D@ATL@@@@@ATL@@PAVCDibBitmap@@@std@@@5@$0A@@std@@@2@PAU342@@Z
_TEXT	SEGMENT PARA USE32 PUBLIC 'CODE'
_TEXT	ENDS
;	COMDAT ?Unlock@?$CComCritSecLock@VCComCriticalSection@ATL@@@ATL@@QAEXXZ
_TEXT	SEGMENT PARA USE32 PUBLIC 'CODE'
_TEXT	ENDS
;	COMDAT ??0?$CArray@MM@@QAE@XZ
_TEXT	SEGMENT PARA USE32 PUBLIC 'CODE'
_TEXT	ENDS
;	COMDAT ??1?$CArray@MM@@UAE@XZ
_TEXT	SEGMENT PARA USE32 PUBLIC 'CODE'
_TEXT	ENDS
;	COMDAT ?Serialize@?$CArray@MM@@UAEXAAVCArchive@@@Z
_TEXT	SEGMENT PARA USE32 PUBLIC 'CODE'
_TEXT	ENDS
;	COMDAT ?GetSize@?$CArray@VCPaneBase@ETSLayoutMgr@@V12@@@QBEHXZ
_TEXT	SEGMENT PARA USE32 PUBLIC 'CODE'
_TEXT	ENDS
;	COMDAT ?RemoveAll@?$CArray@VCPaneBase@ETSLayoutMgr@@V12@@@QAEXXZ
_TEXT	SEGMENT PARA USE32 PUBLIC 'CODE'
_TEXT	ENDS
;	COMDAT ??A?$CArray@VCPaneBase@ETSLayoutMgr@@V12@@@QAEAAVCPaneBase@ETSLayoutMgr@@H@Z
_TEXT	SEGMENT PARA USE32 PUBLIC 'CODE'
_TEXT	ENDS
;	COMDAT ??1?$CArray@VCPaneBase@ETSLayoutMgr@@V12@@@UAE@XZ
_TEXT	SEGMENT PARA USE32 PUBLIC 'CODE'
_TEXT	ENDS
;	COMDAT ?Serialize@?$CArray@VCPaneBase@ETSLayoutMgr@@V12@@@UAEXAAVCArchive@@@Z
_TEXT	SEGMENT PARA USE32 PUBLIC 'CODE'
_TEXT	ENDS
;	COMDAT ?Lookup@?$CMap@V?$CStringT@DV?$StrTraitMFC_DLL@DV?$ChTraitsCRT@D@ATL@@@@@ATL@@PBDVCPaneBase@ETSLayoutMgr@@V34@@@QBEHPBDAAVCPaneBase@ETSLayoutMgr@@@Z
_TEXT	SEGMENT PARA USE32 PUBLIC 'CODE'
_TEXT	ENDS
;	COMDAT ?SetAt@?$CMap@V?$CStringT@DV?$StrTraitMFC_DLL@DV?$ChTraitsCRT@D@ATL@@@@@ATL@@PBDVCPaneBase@ETSLayoutMgr@@V34@@@QAEXPBDVCPaneBase@ETSLayoutMgr@@@Z
_TEXT	SEGMENT PARA USE32 PUBLIC 'CODE'
_TEXT	ENDS
;	COMDAT ?GetStartPosition@?$CMap@V?$CStringT@DV?$StrTraitMFC_DLL@DV?$ChTraitsCRT@D@ATL@@@@@ATL@@PBDVCPaneBase@ETSLayoutMgr@@V34@@@QBEPAU__POSITION@@XZ
_TEXT	SEGMENT PARA USE32 PUBLIC 'CODE'
_TEXT	ENDS
;	COMDAT ?GetNextAssoc@?$CMap@V?$CStringT@DV?$StrTraitMFC_DLL@DV?$ChTraitsCRT@D@ATL@@@@@ATL@@PBDVCPaneBase@ETSLayoutMgr@@V34@@@QBEXAAPAU__POSITION@@AAV?$CStringT@DV?$StrTraitMFC_DLL@DV?$ChTraitsCRT@D@ATL@@@@@ATL@@AAVCPaneBase@ETSLayoutMgr@@@Z
_TEXT	SEGMENT PARA USE32 PUBLIC 'CODE'
_TEXT	ENDS
;	COMDAT ??1?$CMap@V?$CStringT@DV?$StrTraitMFC_DLL@DV?$ChTraitsCRT@D@ATL@@@@@ATL@@PBDVCPaneBase@ETSLayoutMgr@@V34@@@UAE@XZ
_TEXT	SEGMENT PARA USE32 PUBLIC 'CODE'
_TEXT	ENDS
;	COMDAT ?Serialize@?$CMap@V?$CStringT@DV?$StrTraitMFC_DLL@DV?$ChTraitsCRT@D@ATL@@@@@ATL@@PBDVCPaneBase@ETSLayoutMgr@@V34@@@UAEXAAVCArchive@@@Z
_TEXT	SEGMENT PARA USE32 PUBLIC 'CODE'
_TEXT	ENDS
;	COMDAT ??0?$CArray@UElemPos@CMarkup@@AAU12@@@QAE@XZ
_TEXT	SEGMENT PARA USE32 PUBLIC 'CODE'
_TEXT	ENDS
;	COMDAT ??1?$CArray@UElemPos@CMarkup@@AAU12@@@UAE@XZ
_TEXT	SEGMENT PARA USE32 PUBLIC 'CODE'
_TEXT	ENDS
;	COMDAT ?Serialize@?$CArray@UElemPos@CMarkup@@AAU12@@@UAEXAAVCArchive@@@Z
_TEXT	SEGMENT PARA USE32 PUBLIC 'CODE'
_TEXT	ENDS
;	COMDAT ??$_Maklocstr@D@std@@YAPADPBDPADABU_Cvtvec@@@Z
_TEXT	SEGMENT PARA USE32 PUBLIC 'CODE'
_TEXT	ENDS
;	COMDAT ??$_Allocate@U_Node@?$_Tree_nod@V?$_Tmap_traits@V?$CStringT@DV?$StrTraitMFC_DLL@DV?$ChTraitsCRT@D@ATL@@@@@ATL@@PAVCDibBitmap@@U?$less@V?$CStringT@DV?$StrTraitMFC_DLL@DV?$ChTraitsCRT@D@ATL@@@@@ATL@@@std@@V?$allocator@U?$pair@$$CBV?$CStringT@DV?$StrTraitMFC_DLL@DV?$ChTraitsCRT@D@ATL@@@@@ATL@@PAVCDibBitmap@@@std@@@5@$0A@@std@@@std@@@std@@YAPAU_Node@?$_Tree_nod@V?$_Tmap_traits@V?$CStringT@DV?$StrTraitMFC_DLL@DV?$ChTraitsCRT@D@ATL@@@@@ATL@@PAVCDibBitmap@@U?$less@V?$CStringT@DV?$StrTraitMFC_DLL@DV?$ChTraitsCRT@D@ATL@@@@@ATL@@@std@@V?$allocator@U?$pair@$$CBV?$CStringT@DV?$StrTraitMFC_DLL@DV?$ChTraitsCRT@D@ATL@@@@@ATL@@PAVCDibBitmap@@@std@@@5@$0A@@std@@@0@IPAU120@@Z
_TEXT	SEGMENT PARA USE32 PUBLIC 'CODE'
_TEXT	ENDS
;	COMDAT ??_G?$CArray@MM@@UAEPAXI@Z
_TEXT	SEGMENT PARA USE32 PUBLIC 'CODE'
_TEXT	ENDS
;	COMDAT ??_G?$CArray@VCPaneBase@ETSLayoutMgr@@V12@@@UAEPAXI@Z
_TEXT	SEGMENT PARA USE32 PUBLIC 'CODE'
_TEXT	ENDS
;	COMDAT ??_GCPaneBase@ETSLayoutMgr@@QAEPAXI@Z
_TEXT	SEGMENT PARA USE32 PUBLIC 'CODE'
_TEXT	ENDS
;	COMDAT ??_G?$CMap@V?$CStringT@DV?$StrTraitMFC_DLL@DV?$ChTraitsCRT@D@ATL@@@@@ATL@@PBDVCPaneBase@ETSLayoutMgr@@V34@@@UAEPAXI@Z
_TEXT	SEGMENT PARA USE32 PUBLIC 'CODE'
_TEXT	ENDS
;	COMDAT ??_G?$CArray@UElemPos@CMarkup@@AAU12@@@UAEPAXI@Z
_TEXT	SEGMENT PARA USE32 PUBLIC 'CODE'
_TEXT	ENDS
;	COMDAT ?SetSize@?$CArray@MM@@QAEXHH@Z
_TEXT	SEGMENT PARA USE32 PUBLIC 'CODE'
_TEXT	ENDS
;	COMDAT ??$SerializeElements@M@@YGXAAVCArchive@@PAMH@Z
_TEXT	SEGMENT PARA USE32 PUBLIC 'CODE'
_TEXT	ENDS
;	COMDAT ?SetSize@?$CArray@VCPaneBase@ETSLayoutMgr@@V12@@@QAEXHH@Z
_TEXT	SEGMENT PARA USE32 PUBLIC 'CODE'
_TEXT	ENDS
;	COMDAT ?ElementAt@?$CArray@VCPaneBase@ETSLayoutMgr@@V12@@@QAEAAVCPaneBase@ETSLayoutMgr@@H@Z
_TEXT	SEGMENT PARA USE32 PUBLIC 'CODE'
_TEXT	ENDS
;	COMDAT ??$SerializeElements@VCPaneBase@ETSLayoutMgr@@@@YGXAAVCArchive@@PAVCPaneBase@ETSLayoutMgr@@H@Z
_TEXT	SEGMENT PARA USE32 PUBLIC 'CODE'
_TEXT	ENDS
;	COMDAT ??A?$CMap@V?$CStringT@DV?$StrTraitMFC_DLL@DV?$ChTraitsCRT@D@ATL@@@@@ATL@@PBDVCPaneBase@ETSLayoutMgr@@V34@@@QAEAAVCPaneBase@ETSLayoutMgr@@PBD@Z
_TEXT	SEGMENT PARA USE32 PUBLIC 'CODE'
_TEXT	ENDS
;	COMDAT ?RemoveAll@?$CMap@V?$CStringT@DV?$StrTraitMFC_DLL@DV?$ChTraitsCRT@D@ATL@@@@@ATL@@PBDVCPaneBase@ETSLayoutMgr@@V34@@@QAEXXZ
_TEXT	SEGMENT PARA USE32 PUBLIC 'CODE'
_TEXT	ENDS
;	COMDAT ?GetAssocAt@?$CMap@V?$CStringT@DV?$StrTraitMFC_DLL@DV?$ChTraitsCRT@D@ATL@@@@@ATL@@PBDVCPaneBase@ETSLayoutMgr@@V34@@@IBEPAVCAssoc@1@PBDAAI1@Z
_TEXT	SEGMENT PARA USE32 PUBLIC 'CODE'
_TEXT	ENDS
;	COMDAT ?SetSize@?$CArray@UElemPos@CMarkup@@AAU12@@@QAEXHH@Z
_TEXT	SEGMENT PARA USE32 PUBLIC 'CODE'
_TEXT	ENDS
;	COMDAT ??$SerializeElements@UElemPos@CMarkup@@@@YGXAAVCArchive@@PAUElemPos@CMarkup@@H@Z
_TEXT	SEGMENT PARA USE32 PUBLIC 'CODE'
_TEXT	ENDS
;	COMDAT ??1CAssoc@?$CMap@V?$CStringT@DV?$StrTraitMFC_DLL@DV?$ChTraitsCRT@D@ATL@@@@@ATL@@PBDVCPaneBase@ETSLayoutMgr@@V34@@@QAE@XZ
_TEXT	SEGMENT PARA USE32 PUBLIC 'CODE'
_TEXT	ENDS
;	COMDAT ??1CPair@?$CMap@V?$CStringT@DV?$StrTraitMFC_DLL@DV?$ChTraitsCRT@D@ATL@@@@@ATL@@PBDVCPaneBase@ETSLayoutMgr@@V34@@@QAE@XZ
_TEXT	SEGMENT PARA USE32 PUBLIC 'CODE'
_TEXT	ENDS
;	COMDAT ?InitHashTable@?$CMap@V?$CStringT@DV?$StrTraitMFC_DLL@DV?$ChTraitsCRT@D@ATL@@@@@ATL@@PBDVCPaneBase@ETSLayoutMgr@@V34@@@QAEXIH@Z
_TEXT	SEGMENT PARA USE32 PUBLIC 'CODE'
_TEXT	ENDS
;	COMDAT ?NewAssoc@?$CMap@V?$CStringT@DV?$StrTraitMFC_DLL@DV?$ChTraitsCRT@D@ATL@@@@@ATL@@PBDVCPaneBase@ETSLayoutMgr@@V34@@@IAEPAVCAssoc@1@PBD@Z
_TEXT	SEGMENT PARA USE32 PUBLIC 'CODE'
_TEXT	ENDS
;	COMDAT ??$CompareElements@V?$CStringT@DV?$StrTraitMFC_DLL@DV?$ChTraitsCRT@D@ATL@@@@@ATL@@PBD@@YGHPBV?$CStringT@DV?$StrTraitMFC_DLL@DV?$ChTraitsCRT@D@ATL@@@@@ATL@@PBQBD@Z
_TEXT	SEGMENT PARA USE32 PUBLIC 'CODE'
_TEXT	ENDS
;	COMDAT ??0CAssoc@?$CMap@V?$CStringT@DV?$StrTraitMFC_DLL@DV?$ChTraitsCRT@D@ATL@@@@@ATL@@PBDVCPaneBase@ETSLayoutMgr@@V34@@@QAE@PBD@Z
_TEXT	SEGMENT PARA USE32 PUBLIC 'CODE'
_TEXT	ENDS
;	COMDAT ??0CPair@?$CMap@V?$CStringT@DV?$StrTraitMFC_DLL@DV?$ChTraitsCRT@D@ATL@@@@@ATL@@PBDVCPaneBase@ETSLayoutMgr@@V34@@@IAE@PBD@Z
_TEXT	SEGMENT PARA USE32 PUBLIC 'CODE'
_TEXT	ENDS
;	COMDAT ??_R3ETSLayoutMgr@@8
rdata$r	SEGMENT DWORD USE32 PUBLIC 'CONST'
rdata$r	ENDS
;	COMDAT ??_R3CMarkup@@8
rdata$r	SEGMENT DWORD USE32 PUBLIC 'CONST'
rdata$r	ENDS
;	COMDAT ??_R3?$CMap@V?$CStringT@DV?$StrTraitMFC_DLL@DV?$ChTraitsCRT@D@ATL@@@@@ATL@@PBDVCPaneBase@ETSLayoutMgr@@V34@@@8
rdata$r	SEGMENT DWORD USE32 PUBLIC 'CONST'
rdata$r	ENDS
;	COMDAT ??_R3?$CArray@VCPaneBase@ETSLayoutMgr@@V12@@@8
rdata$r	SEGMENT DWORD USE32 PUBLIC 'CONST'
rdata$r	ENDS
;	COMDAT ??_R3PaneSplitter@ETSLayoutMgr@@8
rdata$r	SEGMENT DWORD USE32 PUBLIC 'CONST'
rdata$r	ENDS
;	COMDAT ??_R3?$CArray@MM@@8
rdata$r	SEGMENT DWORD USE32 PUBLIC 'CONST'
rdata$r	ENDS
;	COMDAT ??_R3PanePosition@ETSLayoutMgr@@8
rdata$r	SEGMENT DWORD USE32 PUBLIC 'CONST'
rdata$r	ENDS
;	COMDAT ??_R3PaneBase@ETSLayoutMgr@@8
rdata$r	SEGMENT DWORD USE32 PUBLIC 'CONST'
rdata$r	ENDS
;	COMDAT ??_R3CMarkupArchive@@8
rdata$r	SEGMENT DWORD USE32 PUBLIC 'CONST'
rdata$r	ENDS
;	COMDAT ??_R3?$CArray@UElemPos@CMarkup@@AAU12@@@8
rdata$r	SEGMENT DWORD USE32 PUBLIC 'CONST'
rdata$r	ENDS
;	COMDAT ??_R3?$numpunct@_W@std@@8
rdata$r	SEGMENT DWORD USE32 PUBLIC 'CONST'
rdata$r	ENDS
;	COMDAT ??_R3?$numpunct@D@std@@8
rdata$r	SEGMENT DWORD USE32 PUBLIC 'CONST'
rdata$r	ENDS
;	COMDAT ??_R2ETSLayoutMgr@@8
rdata$r	SEGMENT DWORD USE32 PUBLIC 'CONST'
rdata$r	ENDS
;	COMDAT ??_R2CMarkup@@8
rdata$r	SEGMENT DWORD USE32 PUBLIC 'CONST'
rdata$r	ENDS
;	COMDAT ??_R2?$CMap@V?$CStringT@DV?$StrTraitMFC_DLL@DV?$ChTraitsCRT@D@ATL@@@@@ATL@@PBDVCPaneBase@ETSLayoutMgr@@V34@@@8
rdata$r	SEGMENT DWORD USE32 PUBLIC 'CONST'
rdata$r	ENDS
;	COMDAT ??_R2?$CArray@VCPaneBase@ETSLayoutMgr@@V12@@@8
rdata$r	SEGMENT DWORD USE32 PUBLIC 'CONST'
rdata$r	ENDS
;	COMDAT ??_R2PaneSplitter@ETSLayoutMgr@@8
rdata$r	SEGMENT DWORD USE32 PUBLIC 'CONST'
rdata$r	ENDS
;	COMDAT ??_R2?$CArray@MM@@8
rdata$r	SEGMENT DWORD USE32 PUBLIC 'CONST'
rdata$r	ENDS
;	COMDAT ??_R2PanePosition@ETSLayoutMgr@@8
rdata$r	SEGMENT DWORD USE32 PUBLIC 'CONST'
rdata$r	ENDS
;	COMDAT ??_R2PaneBase@ETSLayoutMgr@@8
rdata$r	SEGMENT DWORD USE32 PUBLIC 'CONST'
rdata$r	ENDS
;	COMDAT ??_R2CMarkupArchive@@8
rdata$r	SEGMENT DWORD USE32 PUBLIC 'CONST'
rdata$r	ENDS
;	COMDAT ??_R2?$CArray@UElemPos@CMarkup@@AAU12@@@8
rdata$r	SEGMENT DWORD USE32 PUBLIC 'CONST'
rdata$r	ENDS
;	COMDAT ??_R2?$numpunct@_W@std@@8
rdata$r	SEGMENT DWORD USE32 PUBLIC 'CONST'
rdata$r	ENDS
;	COMDAT ??_R2?$numpunct@D@std@@8
rdata$r	SEGMENT DWORD USE32 PUBLIC 'CONST'
rdata$r	ENDS
;	COMDAT ??_R1A@?0A@A@ETSLayoutMgr@@8
rdata$r	SEGMENT DWORD USE32 PUBLIC 'CONST'
rdata$r	ENDS
;	COMDAT ??_R1A@?0A@A@?$CMap@V?$CStringT@DV?$StrTraitMFC_DLL@DV?$ChTraitsCRT@D@ATL@@@@@ATL@@PBDVCPaneBase@ETSLayoutMgr@@V34@@@8
rdata$r	SEGMENT DWORD USE32 PUBLIC 'CONST'
rdata$r	ENDS
;	COMDAT ??_R1A@?0A@A@?$CArray@VCPaneBase@ETSLayoutMgr@@V12@@@8
rdata$r	SEGMENT DWORD USE32 PUBLIC 'CONST'
rdata$r	ENDS
;	COMDAT ??_R1A@?0A@A@PaneSplitter@ETSLayoutMgr@@8
rdata$r	SEGMENT DWORD USE32 PUBLIC 'CONST'
rdata$r	ENDS
;	COMDAT ??_R1A@?0A@A@?$CArray@MM@@8
rdata$r	SEGMENT DWORD USE32 PUBLIC 'CONST'
rdata$r	ENDS
;	COMDAT ??_R1A@?0A@A@Pane@ETSLayoutMgr@@8
rdata$r	SEGMENT DWORD USE32 PUBLIC 'CONST'
rdata$r	ENDS
;	COMDAT ??_R1A@?0A@A@PanePosition@ETSLayoutMgr@@8
rdata$r	SEGMENT DWORD USE32 PUBLIC 'CONST'
rdata$r	ENDS
;	COMDAT ??_R1A@?0A@A@PaneBase@ETSLayoutMgr@@8
rdata$r	SEGMENT DWORD USE32 PUBLIC 'CONST'
rdata$r	ENDS
;	COMDAT ??_R1A@?0A@A@CMarkup@@8
rdata$r	SEGMENT DWORD USE32 PUBLIC 'CONST'
rdata$r	ENDS
;	COMDAT ??_R1A@?0A@A@CMarkupArchive@@8
rdata$r	SEGMENT DWORD USE32 PUBLIC 'CONST'
rdata$r	ENDS
;	COMDAT ??_R1A@?0A@A@CObject@@8
rdata$r	SEGMENT DWORD USE32 PUBLIC 'CONST'
rdata$r	ENDS
;	COMDAT ??_R0?AVCObject@@@8
_DATA	SEGMENT DWORD USE32 PUBLIC 'DATA'
_DATA	ENDS
;	COMDAT ??_R1A@?0A@A@?$CArray@UElemPos@CMarkup@@AAU12@@@8
rdata$r	SEGMENT DWORD USE32 PUBLIC 'CONST'
rdata$r	ENDS
;	COMDAT ??_R1A@?0A@A@?$numpunct@_W@std@@8
rdata$r	SEGMENT DWORD USE32 PUBLIC 'CONST'
rdata$r	ENDS
;	COMDAT ??_R1A@?0A@A@facet@locale@std@@8
rdata$r	SEGMENT DWORD USE32 PUBLIC 'CONST'
rdata$r	ENDS
;	COMDAT ??_R0?AVfacet@locale@std@@@8
_DATA	SEGMENT DWORD USE32 PUBLIC 'DATA'
_DATA	ENDS
;	COMDAT ??_R1A@?0A@A@?$numpunct@D@std@@8
rdata$r	SEGMENT DWORD USE32 PUBLIC 'CONST'
rdata$r	ENDS
;	COMDAT ??_R0?AVETSLayoutMgr@@@8
_DATA	SEGMENT DWORD USE32 PUBLIC 'DATA'
_DATA	ENDS
;	COMDAT ??_R0?AV?$CMap@V?$CStringT@DV?$StrTraitMFC_DLL@DV?$ChTraitsCRT@D@ATL@@@@@ATL@@PBDVCPaneBase@ETSLayoutMgr@@V34@@@@8
_DATA	SEGMENT DWORD USE32 PUBLIC 'DATA'
_DATA	ENDS
;	COMDAT ??_R0?AV?$CArray@VCPaneBase@ETSLayoutMgr@@V12@@@@8
_DATA	SEGMENT DWORD USE32 PUBLIC 'DATA'
_DATA	ENDS
;	COMDAT ??_R0?AVPaneSplitter@ETSLayoutMgr@@@8
_DATA	SEGMENT DWORD USE32 PUBLIC 'DATA'
_DATA	ENDS
;	COMDAT ??_R0?AV?$CArray@MM@@@8
_DATA	SEGMENT DWORD USE32 PUBLIC 'DATA'
_DATA	ENDS
;	COMDAT ??_R0?AVPane@ETSLayoutMgr@@@8
_DATA	SEGMENT DWORD USE32 PUBLIC 'DATA'
_DATA	ENDS
;	COMDAT ??_R0?AVPanePosition@ETSLayoutMgr@@@8
_DATA	SEGMENT DWORD USE32 PUBLIC 'DATA'
_DATA	ENDS
;	COMDAT ??_R0?AVPaneBase@ETSLayoutMgr@@@8
_DATA	SEGMENT DWORD USE32 PUBLIC 'DATA'
_DATA	ENDS
;	COMDAT ??_R0?AVCMarkup@@@8
_DATA	SEGMENT DWORD USE32 PUBLIC 'DATA'
_DATA	ENDS
;	COMDAT ??_R0?AVCMarkupArchive@@@8
_DATA	SEGMENT DWORD USE32 PUBLIC 'DATA'
_DATA	ENDS
;	COMDAT ??_R0?AV?$CArray@UElemPos@CMarkup@@AAU12@@@@8
_DATA	SEGMENT DWORD USE32 PUBLIC 'DATA'
_DATA	ENDS
;	COMDAT ??_R0?AV?$numpunct@_W@std@@@8
_DATA	SEGMENT DWORD USE32 PUBLIC 'DATA'
_DATA	ENDS
;	COMDAT ??_R0?AV?$numpunct@D@std@@@8
_DATA	SEGMENT DWORD USE32 PUBLIC 'DATA'
_DATA	ENDS
;	COMDAT ??_R4ETSLayoutMgr@@6B@
rdata$r	SEGMENT DWORD USE32 PUBLIC 'CONST'
rdata$r	ENDS
;	COMDAT ??_R4CMarkup@@6B@
rdata$r	SEGMENT DWORD USE32 PUBLIC 'CONST'
rdata$r	ENDS
;	COMDAT ??_R4?$CMap@V?$CStringT@DV?$StrTraitMFC_DLL@DV?$ChTraitsCRT@D@ATL@@@@@ATL@@PBDVCPaneBase@ETSLayoutMgr@@V34@@@6B@
rdata$r	SEGMENT DWORD USE32 PUBLIC 'CONST'
rdata$r	ENDS
;	COMDAT ??_R4?$CArray@VCPaneBase@ETSLayoutMgr@@V12@@@6B@
rdata$r	SEGMENT DWORD USE32 PUBLIC 'CONST'
rdata$r	ENDS
;	COMDAT ??_R4PaneSplitter@ETSLayoutMgr@@6B@
rdata$r	SEGMENT DWORD USE32 PUBLIC 'CONST'
rdata$r	ENDS
;	COMDAT ??_R4?$CArray@MM@@6B@
rdata$r	SEGMENT DWORD USE32 PUBLIC 'CONST'
rdata$r	ENDS
;	COMDAT ??_R4PanePosition@ETSLayoutMgr@@6B@
rdata$r	SEGMENT DWORD USE32 PUBLIC 'CONST'
rdata$r	ENDS
;	COMDAT ??_R4PaneBase@ETSLayoutMgr@@6B@
rdata$r	SEGMENT DWORD USE32 PUBLIC 'CONST'
rdata$r	ENDS
;	COMDAT ??_R4CMarkupArchive@@6B@
rdata$r	SEGMENT DWORD USE32 PUBLIC 'CONST'
rdata$r	ENDS
;	COMDAT ?Dump@CObject@@UBEXAAVCDumpContext@@@Z
_TEXT	SEGMENT PARA USE32 PUBLIC 'CODE'
_TEXT	ENDS
;	COMDAT ?AssertValid@CObject@@UBEXXZ
_TEXT	SEGMENT PARA USE32 PUBLIC 'CODE'
_TEXT	ENDS
;	COMDAT ??_R4?$CArray@UElemPos@CMarkup@@AAU12@@@6B@
rdata$r	SEGMENT DWORD USE32 PUBLIC 'CONST'
rdata$r	ENDS
;	COMDAT ??0?$allocator@_W@std@@QAE@XZ
_TEXT	SEGMENT PARA USE32 PUBLIC 'CODE'
_TEXT	ENDS
;	COMDAT ??_G?$numpunct@_W@std@@MAEPAXI@Z
_TEXT	SEGMENT PARA USE32 PUBLIC 'CODE'
_TEXT	ENDS
;	COMDAT ??_R4?$numpunct@_W@std@@6B@
rdata$r	SEGMENT DWORD USE32 PUBLIC 'CONST'
rdata$r	ENDS
;	COMDAT ??_G?$numpunct@D@std@@MAEPAXI@Z
_TEXT	SEGMENT PARA USE32 PUBLIC 'CODE'
_TEXT	ENDS
;	COMDAT ??_R4?$numpunct@D@std@@6B@
rdata$r	SEGMENT DWORD USE32 PUBLIC 'CONST'
rdata$r	ENDS
;	COMDAT ?GetDefaultManager@?$StrTraitMFC_DLL@DV?$ChTraitsCRT@D@ATL@@@@SAPAUIAtlStringMgr@ATL@@XZ
_TEXT	SEGMENT PARA USE32 PUBLIC 'CODE'
_TEXT	ENDS
;	COMDAT ?FindStringResourceInstance@?$StrTraitMFC_DLL@DV?$ChTraitsCRT@D@ATL@@@@SAPAUHINSTANCE__@@I@Z
_TEXT	SEGMENT PARA USE32 PUBLIC 'CODE'
_TEXT	ENDS
;	COMDAT ?AtlGetStringResourceImage@ATL@@YAPBUATLSTRINGRESOURCEIMAGE@1@PAUHINSTANCE__@@I@Z
_TEXT	SEGMENT PARA USE32 PUBLIC 'CODE'
_TEXT	ENDS
;	COMDAT ?_AtlGetStringResourceImage@ATL@@YAPBUATLSTRINGRESOURCEIMAGE@1@PAUHINSTANCE__@@PAUHRSRC__@@I@Z
_TEXT	SEGMENT PARA USE32 PUBLIC 'CODE'
_TEXT	ENDS
;	COMDAT ?GetBaseTypeLength@?$ChTraitsCRT@D@ATL@@SAHPB_WH@Z
_TEXT	SEGMENT PARA USE32 PUBLIC 'CODE'
_TEXT	ENDS
;	COMDAT ?_AtlGetConversionACP@ATL@@YGIXZ
_TEXT	SEGMENT PARA USE32 PUBLIC 'CODE'
_TEXT	ENDS
;	COMDAT ?g_pfnGetThreadACP@ATL@@3P6GIXZA
_DATA	SEGMENT DWORD USE32 PUBLIC 'DATA'
_DATA	ENDS
;	COMDAT ?_AtlGetThreadACPThunk@ATL@@YGIXZ
_TEXT	SEGMENT PARA USE32 PUBLIC 'CODE'
_TEXT	ENDS
;	COMDAT ?_AtlGetThreadACPReal@ATL@@YGIXZ
_TEXT	SEGMENT PARA USE32 PUBLIC 'CODE'
_TEXT	ENDS
;	COMDAT ?_AtlGetThreadACPFake@ATL@@YGIXZ
_TEXT	SEGMENT PARA USE32 PUBLIC 'CODE'
_TEXT	ENDS
;	COMDAT ?InterlockedExchangePointer@@YGPAXPAPAXPAX@Z
_TEXT	SEGMENT PARA USE32 PUBLIC 'CODE'
_TEXT	ENDS
;	COMDAT ?ConvertToBaseType@?$ChTraitsCRT@D@ATL@@SAXPADHPB_WH@Z
_TEXT	SEGMENT PARA USE32 PUBLIC 'CODE'
_TEXT	ENDS
;	COMDAT ?data@CPlex@@QAEPAXXZ
text$AFX_COL1	SEGMENT PARA USE32 PUBLIC ''
text$AFX_COL1	ENDS
;	COMDAT ??_7?$CArray@UElemPos@CMarkup@@AAU12@@@6B@
CONST	SEGMENT DWORD USE32 PUBLIC 'CONST'
CONST	ENDS
;	COMDAT ??_7?$CMap@V?$CStringT@DV?$StrTraitMFC_DLL@DV?$ChTraitsCRT@D@ATL@@@@@ATL@@PBDVCPaneBase@ETSLayoutMgr@@V34@@@6B@
CONST	SEGMENT DWORD USE32 PUBLIC 'CONST'
CONST	ENDS
;	COMDAT ??_7?$CArray@VCPaneBase@ETSLayoutMgr@@V12@@@6B@
CONST	SEGMENT DWORD USE32 PUBLIC 'CONST'
CONST	ENDS
;	COMDAT ?IsStoring@CArchive@@QBEHXZ
_TEXT	SEGMENT PARA USE32 PUBLIC 'CODE'
_TEXT	ENDS
;	COMDAT ?Serialize@CObject@@UAEXAAVCArchive@@@Z
_TEXT	SEGMENT PARA USE32 PUBLIC 'CODE'
_TEXT	ENDS
;	COMDAT ??_7?$CArray@MM@@6B@
CONST	SEGMENT DWORD USE32 PUBLIC 'CONST'
CONST	ENDS
;	COMDAT ??1CObject@@UAE@XZ
_TEXT	SEGMENT PARA USE32 PUBLIC 'CODE'
_TEXT	ENDS
;	COMDAT ??0CObject@@IAE@XZ
_TEXT	SEGMENT PARA USE32 PUBLIC 'CODE'
_TEXT	ENDS
;	COMDAT ?_Psave@?$_Facetptr@V?$numpunct@_W@std@@@std@@2PBVfacet@locale@2@B
_DATA	SEGMENT DWORD USE32 PUBLIC 'DATA'
_DATA	ENDS
;	COMDAT ?_Psave@?$_Facetptr@V?$numpunct@D@std@@@std@@2PBVfacet@locale@2@B
_DATA	SEGMENT DWORD USE32 PUBLIC 'DATA'
_DATA	ENDS
;	COMDAT ?Unlock@CComCriticalSection@ATL@@QAEJXZ
_TEXT	SEGMENT PARA USE32 PUBLIC 'CODE'
_TEXT	ENDS
;	COMDAT ?_Psave@?$_Facetptr@V?$ctype@_W@std@@@std@@2PBVfacet@locale@2@B
_DATA	SEGMENT DWORD USE32 PUBLIC 'DATA'
_DATA	ENDS
;	COMDAT ?_Psave@?$_Facetptr@V?$ctype@D@std@@@std@@2PBVfacet@locale@2@B
_DATA	SEGMENT DWORD USE32 PUBLIC 'DATA'
_DATA	ENDS
;	COMDAT ??3@YAXPAX0@Z
_TEXT	SEGMENT PARA USE32 PUBLIC 'CODE'
_TEXT	ENDS
;	COMDAT ??2@YAPAXIPAX@Z
_TEXT	SEGMENT PARA USE32 PUBLIC 'CODE'
_TEXT	ENDS
;	COMDAT ??$_Maklocchr@_W@std@@YA_WDPA_WABU_Cvtvec@@@Z
_TEXT	SEGMENT PARA USE32 PUBLIC 'CODE'
_TEXT	ENDS
;	COMDAT ??$_Maklocstr@_W@std@@YAPA_WPBDPA_WABU_Cvtvec@@@Z
_TEXT	SEGMENT PARA USE32 PUBLIC 'CODE'
_TEXT	ENDS
;	COMDAT ??$_Maklocchr@D@std@@YADDPADABU_Cvtvec@@@Z
_TEXT	SEGMENT PARA USE32 PUBLIC 'CODE'
_TEXT	ENDS
;	COMDAT ??_C@_04LOAJBDKD@true?$AA@
CONST	SEGMENT DWORD USE32 PUBLIC 'CONST'
CONST	ENDS
;	COMDAT ??_C@_05LAPONLG@false?$AA@
CONST	SEGMENT DWORD USE32 PUBLIC 'CONST'
CONST	ENDS
;	COMDAT _wmemcpy
_TEXT	SEGMENT PARA USE32 PUBLIC 'CODE'
_TEXT	ENDS
;	COMDAT ?max_size@?$allocator@_W@std@@QBEIXZ
_TEXT	SEGMENT PARA USE32 PUBLIC 'CODE'
_TEXT	ENDS
;	COMDAT ?allocate@?$allocator@_W@std@@QAEPA_WI@Z
_TEXT	SEGMENT PARA USE32 PUBLIC 'CODE'
_TEXT	ENDS
;	COMDAT ??$_Allocate@_W@std@@YAPA_WIPA_W@Z
_TEXT	SEGMENT PARA USE32 PUBLIC 'CODE'
_TEXT	ENDS
;	COMDAT ?data@CStringData@ATL@@QAEPAXXZ
_TEXT	SEGMENT PARA USE32 PUBLIC 'CODE'
_TEXT	ENDS
;	COMDAT ?AtlThrow@ATL@@YGXJ@Z
_TEXT	SEGMENT PARA USE32 PUBLIC 'CODE'
_TEXT	ENDS
;	COMDAT ??_7length_error@std@@6B@
CONST	SEGMENT DWORD USE32 PUBLIC 'CONST'
CONST	ENDS
;	COMDAT ??_R4length_error@std@@6B@
rdata$r	SEGMENT DWORD USE32 PUBLIC 'CONST'
rdata$r	ENDS
;	COMDAT ??_R3length_error@std@@8
rdata$r	SEGMENT DWORD USE32 PUBLIC 'CONST'
rdata$r	ENDS
;	COMDAT ??_R2length_error@std@@8
rdata$r	SEGMENT DWORD USE32 PUBLIC 'CONST'
rdata$r	ENDS
;	COMDAT ??_R1A@?0A@A@length_error@std@@8
rdata$r	SEGMENT DWORD USE32 PUBLIC 'CONST'
rdata$r	ENDS
;	COMDAT ??_R1A@?0A@A@logic_error@std@@8
rdata$r	SEGMENT DWORD USE32 PUBLIC 'CONST'
rdata$r	ENDS
;	COMDAT ??_R0?AVlogic_error@std@@@8
_DATA	SEGMENT DWORD USE32 PUBLIC 'DATA'
_DATA	ENDS
;	COMDAT ??_R1A@?0A@A@exception@@8
rdata$r	SEGMENT DWORD USE32 PUBLIC 'CONST'
rdata$r	ENDS
;	COMDAT ??_R0?AVexception@@@8
_DATA	SEGMENT DWORD USE32 PUBLIC 'DATA'
_DATA	ENDS
;	COMDAT ??_Glength_error@std@@UAEPAXI@Z
_TEXT	SEGMENT PARA USE32 PUBLIC 'CODE'
_TEXT	ENDS
;	COMDAT ?what@logic_error@std@@UBEPBDXZ
_TEXT	SEGMENT PARA USE32 PUBLIC 'CODE'
_TEXT	ENDS
;	COMDAT ??1logic_error@std@@UAE@XZ
_TEXT	SEGMENT PARA USE32 PUBLIC 'CODE'
_TEXT	ENDS
;	COMDAT ??_7logic_error@std@@6B@
CONST	SEGMENT DWORD USE32 PUBLIC 'CONST'
CONST	ENDS
;	COMDAT ??_R4logic_error@std@@6B@
rdata$r	SEGMENT DWORD USE32 PUBLIC 'CONST'
rdata$r	ENDS
;	COMDAT ??_R3logic_error@std@@8
rdata$r	SEGMENT DWORD USE32 PUBLIC 'CONST'
rdata$r	ENDS
;	COMDAT ??_R2logic_error@std@@8
rdata$r	SEGMENT DWORD USE32 PUBLIC 'CONST'
rdata$r	ENDS
;	COMDAT ??_Glogic_error@std@@UAEPAXI@Z
_TEXT	SEGMENT PARA USE32 PUBLIC 'CODE'
_TEXT	ENDS
;	COMDAT ??0logic_error@std@@QAE@ABV01@@Z
_TEXT	SEGMENT PARA USE32 PUBLIC 'CODE'
_TEXT	ENDS
;	COMDAT ??0?$allocator@D@std@@QAE@ABV01@@Z
_TEXT	SEGMENT PARA USE32 PUBLIC 'CODE'
_TEXT	ENDS
;	COMDAT ?deallocate@?$allocator@D@std@@QAEXPADI@Z
_TEXT	SEGMENT PARA USE32 PUBLIC 'CODE'
_TEXT	ENDS
;	COMDAT ?max_size@?$allocator@D@std@@QBEIXZ
_TEXT	SEGMENT PARA USE32 PUBLIC 'CODE'
_TEXT	ENDS
;	COMDAT ?allocate@?$allocator@D@std@@QAEPADI@Z
_TEXT	SEGMENT PARA USE32 PUBLIC 'CODE'
_TEXT	ENDS
;	COMDAT ??$_Allocate@D@std@@YAPADIPAD@Z
_TEXT	SEGMENT PARA USE32 PUBLIC 'CODE'
_TEXT	ENDS
;	COMDAT __CTA3?AVlength_error@std@@
xdata$x	SEGMENT DWORD USE32 PUBLIC 'CONST'
xdata$x	ENDS
;	COMDAT ??1length_error@std@@UAE@XZ
_TEXT	SEGMENT PARA USE32 PUBLIC 'CODE'
_TEXT	ENDS
;	COMDAT __CT??_R0?AVexception@@@8??0exception@@QAE@ABV0@@Z12
xdata$x	SEGMENT DWORD USE32 PUBLIC 'CONST'
xdata$x	ENDS
;	COMDAT __CT??_R0?AVlogic_error@std@@@8??0logic_error@std@@QAE@ABV01@@Z40
xdata$x	SEGMENT DWORD USE32 PUBLIC 'CONST'
xdata$x	ENDS
;	COMDAT __CT??_R0?AVlength_error@std@@@8??0length_error@std@@QAE@ABV01@@Z40
xdata$x	SEGMENT DWORD USE32 PUBLIC 'CONST'
xdata$x	ENDS
;	COMDAT ??_R0?AVlength_error@std@@@8
_DATA	SEGMENT DWORD USE32 PUBLIC 'DATA'
_DATA	ENDS
;	COMDAT __TI3?AVlength_error@std@@
xdata$x	SEGMENT DWORD USE32 PUBLIC 'CONST'
xdata$x	ENDS
;	COMDAT ??0?$allocator@D@std@@QAE@XZ
_TEXT	SEGMENT PARA USE32 PUBLIC 'CODE'
_TEXT	ENDS
;	COMDAT ??0length_error@std@@QAE@ABV?$basic_string@DU?$char_traits@D@std@@V?$allocator@D@2@@1@@Z
_TEXT	SEGMENT PARA USE32 PUBLIC 'CODE'
_TEXT	ENDS
;	COMDAT ??0logic_error@std@@QAE@ABV?$basic_string@DU?$char_traits@D@std@@V?$allocator@D@2@@1@@Z
_TEXT	SEGMENT PARA USE32 PUBLIC 'CODE'
_TEXT	ENDS
;	COMDAT ??_C@_01GFHCPBMG@C?$AA@
CONST	SEGMENT DWORD USE32 PUBLIC 'CONST'
CONST	ENDS
;	COMDAT ?Release@CStringData@ATL@@QAEXXZ
_TEXT	SEGMENT PARA USE32 PUBLIC 'CODE'
_TEXT	ENDS
;	COMDAT ?IsShared@CStringData@ATL@@QBE_NXZ
_TEXT	SEGMENT PARA USE32 PUBLIC 'CODE'
_TEXT	ENDS
;	COMDAT ?_Peek@?$istreambuf_iterator@_WU?$char_traits@_W@std@@@std@@AAE_WXZ
_TEXT	SEGMENT PARA USE32 PUBLIC 'CODE'
_TEXT	ENDS
;	COMDAT ?_Peek@?$istreambuf_iterator@DU?$char_traits@D@std@@@std@@AAEDXZ
_TEXT	SEGMENT PARA USE32 PUBLIC 'CODE'
_TEXT	ENDS
;	COMDAT ??$use_facet@V?$ctype@_W@std@@@std@@YAABV?$ctype@_W@0@ABVlocale@0@@Z
_TEXT	SEGMENT PARA USE32 PUBLIC 'CODE'
_TEXT	ENDS
;	COMDAT ??_S?$ctype@_W@std@@6B@
CONST	SEGMENT DWORD USE32 PUBLIC 'CONST'
CONST	ENDS
;	COMDAT ??_R4?$ctype@_W@std@@6B@
rdata$r	SEGMENT DWORD USE32 PUBLIC 'CONST'
rdata$r	ENDS
;	COMDAT ??_R0?AV?$ctype@_W@std@@@8
_DATA	SEGMENT DWORD USE32 PUBLIC 'DATA'
_DATA	ENDS
;	COMDAT ??_R3?$ctype@_W@std@@8
rdata$r	SEGMENT DWORD USE32 PUBLIC 'CONST'
rdata$r	ENDS
;	COMDAT ??_R2?$ctype@_W@std@@8
rdata$r	SEGMENT DWORD USE32 PUBLIC 'CONST'
rdata$r	ENDS
;	COMDAT ??_R1A@?0A@A@?$ctype@_W@std@@8
rdata$r	SEGMENT DWORD USE32 PUBLIC 'CONST'
rdata$r	ENDS
;	COMDAT ??_R1A@?0A@A@ctype_base@std@@8
rdata$r	SEGMENT DWORD USE32 PUBLIC 'CONST'
rdata$r	ENDS
;	COMDAT ??_R0?AUctype_base@std@@@8
_DATA	SEGMENT DWORD USE32 PUBLIC 'DATA'
_DATA	ENDS
;	COMDAT ??_G?$ctype@_W@std@@MAEPAXI@Z
_TEXT	SEGMENT PARA USE32 PUBLIC 'CODE'
_TEXT	ENDS
;	COMDAT ??_C@_08EPJLHIJG@bad?5cast?$AA@
CONST	SEGMENT DWORD USE32 PUBLIC 'CONST'
CONST	ENDS
;	COMDAT __TI2?AVbad_cast@@
xdata$x	SEGMENT DWORD USE32 PUBLIC 'CONST'
xdata$x	ENDS
;	COMDAT __CTA2?AVbad_cast@@
xdata$x	SEGMENT DWORD USE32 PUBLIC 'CONST'
xdata$x	ENDS
;	COMDAT __CT??_R0?AVbad_cast@@@8??0bad_cast@@QAE@ABV0@@Z12
xdata$x	SEGMENT DWORD USE32 PUBLIC 'CONST'
xdata$x	ENDS
;	COMDAT ??_R0?AVbad_cast@@@8
_DATA	SEGMENT DWORD USE32 PUBLIC 'DATA'
_DATA	ENDS
;	COMDAT ??$use_facet@V?$ctype@D@std@@@std@@YAABV?$ctype@D@0@ABVlocale@0@@Z
_TEXT	SEGMENT PARA USE32 PUBLIC 'CODE'
_TEXT	ENDS
;	COMDAT ??_S?$ctype@D@std@@6B@
CONST	SEGMENT DWORD USE32 PUBLIC 'CONST'
CONST	ENDS
;	COMDAT ??_R4?$ctype@D@std@@6B@
rdata$r	SEGMENT DWORD USE32 PUBLIC 'CONST'
rdata$r	ENDS
;	COMDAT ??_R0?AV?$ctype@D@std@@@8
_DATA	SEGMENT DWORD USE32 PUBLIC 'DATA'
_DATA	ENDS
;	COMDAT ??_R3?$ctype@D@std@@8
rdata$r	SEGMENT DWORD USE32 PUBLIC 'CONST'
rdata$r	ENDS
;	COMDAT ??_R2?$ctype@D@std@@8
rdata$r	SEGMENT DWORD USE32 PUBLIC 'CONST'
rdata$r	ENDS
;	COMDAT ??_R1A@?0A@A@?$ctype@D@std@@8
rdata$r	SEGMENT DWORD USE32 PUBLIC 'CONST'
rdata$r	ENDS
;	COMDAT ??_G?$ctype@D@std@@MAEPAXI@Z
_TEXT	SEGMENT PARA USE32 PUBLIC 'CODE'
_TEXT	ENDS
;	COMDAT ??_S?$numpunct@_W@std@@6B@
CONST	SEGMENT DWORD USE32 PUBLIC 'CONST'
CONST	ENDS
;	COMDAT ??_S?$numpunct@D@std@@6B@
CONST	SEGMENT DWORD USE32 PUBLIC 'CONST'
CONST	ENDS
;	COMDAT _wmemmove
_TEXT	SEGMENT PARA USE32 PUBLIC 'CODE'
_TEXT	ENDS
;	COMDAT ?deallocate@?$allocator@_W@std@@QAEXPA_WI@Z
_TEXT	SEGMENT PARA USE32 PUBLIC 'CODE'
_TEXT	ENDS
;	COMDAT ??0?$allocator@_W@std@@QAE@ABV01@@Z
_TEXT	SEGMENT PARA USE32 PUBLIC 'CODE'
_TEXT	ENDS
;	COMDAT ??1CMemDC@@UAE@XZ
_TEXT	SEGMENT PARA USE32 PUBLIC 'CODE'
_TEXT	ENDS
;	COMDAT ??_7CMemDC@@6B@
CONST	SEGMENT DWORD USE32 PUBLIC 'CONST'
CONST	ENDS
;	COMDAT ??_R4CMemDC@@6B@
rdata$r	SEGMENT DWORD USE32 PUBLIC 'CONST'
rdata$r	ENDS
;	COMDAT ??_R0?AVCMemDC@@@8
_DATA	SEGMENT DWORD USE32 PUBLIC 'DATA'
_DATA	ENDS
;	COMDAT ??_R3CMemDC@@8
rdata$r	SEGMENT DWORD USE32 PUBLIC 'CONST'
rdata$r	ENDS
;	COMDAT ??_R2CMemDC@@8
rdata$r	SEGMENT DWORD USE32 PUBLIC 'CONST'
rdata$r	ENDS
;	COMDAT ??_R1A@?0A@A@CMemDC@@8
rdata$r	SEGMENT DWORD USE32 PUBLIC 'CONST'
rdata$r	ENDS
;	COMDAT ??_R1A@?0A@A@CDC@@8
rdata$r	SEGMENT DWORD USE32 PUBLIC 'CONST'
rdata$r	ENDS
;	COMDAT ??_R0?AVCDC@@@8
_DATA	SEGMENT DWORD USE32 PUBLIC 'DATA'
_DATA	ENDS
;	COMDAT ??_GCMemDC@@UAEPAXI@Z
_TEXT	SEGMENT PARA USE32 PUBLIC 'CODE'
_TEXT	ENDS
;	COMDAT ?PtVisible@CDC@@UBEHHH@Z
_TEXT	SEGMENT PARA USE32 PUBLIC 'CODE'
_TEXT	ENDS
;	COMDAT ?RectVisible@CDC@@UBEHPBUtagRECT@@@Z
_TEXT	SEGMENT PARA USE32 PUBLIC 'CODE'
_TEXT	ENDS
;	COMDAT ?TextOutA@CDC@@UAEHHHPBDH@Z
_TEXT	SEGMENT PARA USE32 PUBLIC 'CODE'
_TEXT	ENDS
;	COMDAT ?ExtTextOutA@CDC@@UAEHHHIPBUtagRECT@@PBDIPAH@Z
_TEXT	SEGMENT PARA USE32 PUBLIC 'CODE'
_TEXT	ENDS
;	COMDAT ?TabbedTextOutA@CDC@@UAE?AVCSize@@HHPBDHHPAHH@Z
_TEXT	SEGMENT PARA USE32 PUBLIC 'CODE'
_TEXT	ENDS
;	COMDAT ??0CSize@@QAE@K@Z
_TEXT	SEGMENT PARA USE32 PUBLIC 'CODE'
_TEXT	ENDS
;	COMDAT ?DrawTextA@CDC@@UAEHPBDHPAUtagRECT@@I@Z
_TEXT	SEGMENT PARA USE32 PUBLIC 'CODE'
_TEXT	ENDS
;	COMDAT ?DrawTextExA@CDC@@UAEHPADHPAUtagRECT@@IPAUtagDRAWTEXTPARAMS@@@Z
_TEXT	SEGMENT PARA USE32 PUBLIC 'CODE'
_TEXT	ENDS
;	COMDAT ?GrayStringA@CDC@@UAEHPAVCBrush@@P6GHPAUHDC__@@JH@ZJHHHHH@Z
_TEXT	SEGMENT PARA USE32 PUBLIC 'CODE'
_TEXT	ENDS
;	COMDAT ?GetSafeHandle@CGdiObject@@QBEPAXXZ
_TEXT	SEGMENT PARA USE32 PUBLIC 'CODE'
_TEXT	ENDS
;	COMDAT ?Escape@CDC@@UAEHHHPBDPAX@Z
_TEXT	SEGMENT PARA USE32 PUBLIC 'CODE'
_TEXT	ENDS
;	COMDAT ?BitBlt@CDC@@QAEHHHHHPAV1@HHK@Z
_TEXT	SEGMENT PARA USE32 PUBLIC 'CODE'
_TEXT	ENDS
;	COMDAT ?GetSafeHdc@CDC@@QBEPAUHDC__@@XZ
_TEXT	SEGMENT PARA USE32 PUBLIC 'CODE'
_TEXT	ENDS
;	COMDAT ?SelectObject@CDC@@QAEPAVCBitmap@@PAV2@@Z
_TEXT	SEGMENT PARA USE32 PUBLIC 'CODE'
_TEXT	ENDS
;	COMDAT ??0CRect@@QAE@PBUtagRECT@@@Z
_TEXT	SEGMENT PARA USE32 PUBLIC 'CODE'
_TEXT	ENDS
;	COMDAT ??0CMemDC@@QAE@PAVCDC@@ABVCRect@@@Z
_TEXT	SEGMENT PARA USE32 PUBLIC 'CODE'
_TEXT	ENDS
;	COMDAT ?CreateCompatibleDC@CDC@@QAEHPAV1@@Z
_TEXT	SEGMENT PARA USE32 PUBLIC 'CODE'
_TEXT	ENDS
;	COMDAT ??0CBitmap@@QAE@XZ
_TEXT	SEGMENT PARA USE32 PUBLIC 'CODE'
_TEXT	ENDS
;	COMDAT ??0CGdiObject@@QAE@XZ
_TEXT	SEGMENT PARA USE32 PUBLIC 'CODE'
_TEXT	ENDS
;	COMDAT ??_7CGdiObject@@6B@
CONST	SEGMENT DWORD USE32 PUBLIC 'CONST'
CONST	ENDS
;	COMDAT ??_R4CGdiObject@@6B@
rdata$r	SEGMENT DWORD USE32 PUBLIC 'CONST'
rdata$r	ENDS
;	COMDAT ??_R0?AVCGdiObject@@@8
_DATA	SEGMENT DWORD USE32 PUBLIC 'DATA'
_DATA	ENDS
;	COMDAT ??_R3CGdiObject@@8
rdata$r	SEGMENT DWORD USE32 PUBLIC 'CONST'
rdata$r	ENDS
;	COMDAT ??_R2CGdiObject@@8
rdata$r	SEGMENT DWORD USE32 PUBLIC 'CONST'
rdata$r	ENDS
;	COMDAT ??_R1A@?0A@A@CGdiObject@@8
rdata$r	SEGMENT DWORD USE32 PUBLIC 'CONST'
rdata$r	ENDS
;	COMDAT ??_GCGdiObject@@UAEPAXI@Z
_TEXT	SEGMENT PARA USE32 PUBLIC 'CODE'
_TEXT	ENDS
;	COMDAT ??1CGdiObject@@UAE@XZ
_TEXT	SEGMENT PARA USE32 PUBLIC 'CODE'
_TEXT	ENDS
;	COMDAT ??_7CBitmap@@6B@
CONST	SEGMENT DWORD USE32 PUBLIC 'CONST'
CONST	ENDS
;	COMDAT ??_R4CBitmap@@6B@
rdata$r	SEGMENT DWORD USE32 PUBLIC 'CONST'
rdata$r	ENDS
;	COMDAT ??_R0?AVCBitmap@@@8
_DATA	SEGMENT DWORD USE32 PUBLIC 'DATA'
_DATA	ENDS
;	COMDAT ??_R3CBitmap@@8
rdata$r	SEGMENT DWORD USE32 PUBLIC 'CONST'
rdata$r	ENDS
;	COMDAT ??_R2CBitmap@@8
rdata$r	SEGMENT DWORD USE32 PUBLIC 'CONST'
rdata$r	ENDS
;	COMDAT ??_R1A@?0A@A@CBitmap@@8
rdata$r	SEGMENT DWORD USE32 PUBLIC 'CONST'
rdata$r	ENDS
;	COMDAT ??_GCBitmap@@UAEPAXI@Z
_TEXT	SEGMENT PARA USE32 PUBLIC 'CODE'
_TEXT	ENDS
;	COMDAT ??1CBitmap@@UAE@XZ
_TEXT	SEGMENT PARA USE32 PUBLIC 'CODE'
_TEXT	ENDS
;	COMDAT ?CreateCompatibleBitmap@CBitmap@@QAEHPAVCDC@@HH@Z
_TEXT	SEGMENT PARA USE32 PUBLIC 'CODE'
_TEXT	ENDS
;	COMDAT ?GetWindowRect@CWnd@@QBEXPAUtagRECT@@@Z
_TEXT	SEGMENT PARA USE32 PUBLIC 'CODE'
_TEXT	ENDS
;	COMDAT ?SetAt@CMapStringToString@@QAEXPBD0@Z
_TEXT	SEGMENT PARA USE32 PUBLIC 'CODE'
_TEXT	ENDS
;	COMDAT ??_7PanePosition@ETSLayoutMgr@@6B@
CONST	SEGMENT DWORD USE32 PUBLIC 'CONST'
CONST	ENDS
;	COMDAT ?InflateRect@CRect@@QAEXHHHH@Z
_TEXT	SEGMENT PARA USE32 PUBLIC 'CODE'
_TEXT	ENDS
;	COMDAT ?Height@CRect@@QBEHXZ
_TEXT	SEGMENT PARA USE32 PUBLIC 'CODE'
_TEXT	ENDS
;	COMDAT ?Width@CRect@@QBEHXZ
_TEXT	SEGMENT PARA USE32 PUBLIC 'CODE'
_TEXT	ENDS
;	COMDAT ??_7PaneSplitter@ETSLayoutMgr@@6B@
CONST	SEGMENT DWORD USE32 PUBLIC 'CONST'
CONST	ENDS
;	COMDAT ??3CObject@@SGXPAX@Z
_TEXT	SEGMENT PARA USE32 PUBLIC 'CODE'
_TEXT	ENDS
;	COMDAT ??2CObject@@SGPAXI@Z
_TEXT	SEGMENT PARA USE32 PUBLIC 'CODE'
_TEXT	ENDS
;	COMDAT ??_7CMarkupArchive@@6B@
CONST	SEGMENT DWORD USE32 PUBLIC 'CONST'
CONST	ENDS
;	COMDAT __tcschr
_TEXT	SEGMENT PARA USE32 PUBLIC 'CODE'
_TEXT	ENDS
;	COMDAT __tcsnccmp
_TEXT	SEGMENT PARA USE32 PUBLIC 'CODE'
_TEXT	ENDS
;	COMDAT ??_7CMarkup@@6B@
CONST	SEGMENT DWORD USE32 PUBLIC 'CONST'
CONST	ENDS
;	COMDAT ??BCRect@@QAEPAUtagRECT@@XZ
_TEXT	SEGMENT PARA USE32 PUBLIC 'CODE'
_TEXT	ENDS
;	COMDAT ?GetClientRect@CWnd@@QBEXPAUtagRECT@@@Z
_TEXT	SEGMENT PARA USE32 PUBLIC 'CODE'
_TEXT	ENDS
;	COMDAT ??0CSize@@QAE@HH@Z
_TEXT	SEGMENT PARA USE32 PUBLIC 'CODE'
_TEXT	ENDS
;	COMDAT ??0CSize@@QAE@XZ
_TEXT	SEGMENT PARA USE32 PUBLIC 'CODE'
_TEXT	ENDS
;	COMDAT ??_7ETSLayoutMgr@@6B@
CONST	SEGMENT DWORD USE32 PUBLIC 'CONST'
CONST	ENDS
;	COMDAT ?IsLocked@CStringData@ATL@@QBE_NXZ
_TEXT	SEGMENT PARA USE32 PUBLIC 'CODE'
_TEXT	ENDS
;	COMDAT ?AddRef@CStringData@ATL@@QAEXXZ
_TEXT	SEGMENT PARA USE32 PUBLIC 'CODE'
_TEXT	ENDS
;	COMDAT ??0CRect@@QAE@HHHH@Z
_TEXT	SEGMENT PARA USE32 PUBLIC 'CODE'
_TEXT	ENDS
;	COMDAT ??0CRect@@QAE@XZ
_TEXT	SEGMENT PARA USE32 PUBLIC 'CODE'
_TEXT	ENDS
;	COMDAT ??_7PaneBase@ETSLayoutMgr@@6B@
CONST	SEGMENT DWORD USE32 PUBLIC 'CONST'
CONST	ENDS
sxdata	SEGMENT DWORD USE32 'SXDATA'
sxdata	ENDS
FLAT	GROUP _DATA, CONST, _BSS
	ASSUME	CS: FLAT, DS: FLAT, SS: FLAT
endif

INCLUDELIB MSVCRT
INCLUDELIB OLDNAMES

PUBLIC	?g_pfnGetThreadACP@ATL@@3P6GIXZA		; ATL::g_pfnGetThreadACP
PUBLIC	?_AtlGetThreadACPThunk@ATL@@YGIXZ		; ATL::_AtlGetThreadACPThunk
CONST	SEGMENT
$SG201119 DB	'SearchResult', 00H
CONST	ENDS
;	COMDAT ?g_pfnGetThreadACP@ATL@@3P6GIXZA
_DATA	SEGMENT
?g_pfnGetThreadACP@ATL@@3P6GIXZA DD FLAT:?_AtlGetThreadACPThunk@ATL@@YGIXZ ; ATL::g_pfnGetThreadACP
_DATA	ENDS
PUBLIC	?InterlockedExchangePointer@@YGPAXPAPAXPAX@Z	; InterlockedExchangePointer
PUBLIC	?_AtlGetThreadACPFake@ATL@@YGIXZ		; ATL::_AtlGetThreadACPFake
PUBLIC	?_AtlGetThreadACPReal@ATL@@YGIXZ		; ATL::_AtlGetThreadACPReal
EXTRN	___security_cookie:DWORD
EXTRN	@__security_check_cookie@4:NEAR
EXTRN	__imp__GetVersionExA@4:NEAR
; Function compile flags: /Odt
; File d:\program files (x86)\microsoft visual studio .net 2003\vc7\atlmfc\include\atlconv.h
;	COMDAT ?_AtlGetThreadACPThunk@ATL@@YGIXZ
_TEXT	SEGMENT
_pfnGetThreadACP$ = -164				; size = 4
_ver$ = -160						; size = 148
__$ArrayPad$ = -4					; size = 4
__$ReturnAddr$ = 4					; size = 4
?_AtlGetThreadACPThunk@ATL@@YGIXZ PROC NEAR		; ATL::_AtlGetThreadACPThunk, COMDAT

; 134  : {

  00000	55		 push	 ebp
  00001	8b ec		 mov	 ebp, esp
  00003	81 ec a4 00 00
	00		 sub	 esp, 164		; 000000a4H
  00009	a1 00 00 00 00	 mov	 eax, DWORD PTR ___security_cookie
  0000e	89 45 fc	 mov	 DWORD PTR __$ArrayPad$[ebp], eax

; 135  : 	OSVERSIONINFO ver;
; 136  : 	ATLGETTHREADACP pfnGetThreadACP;
; 137  : 
; 138  : 	ver.dwOSVersionInfoSize = sizeof( ver );

  00011	c7 85 60 ff ff
	ff 94 00 00 00	 mov	 DWORD PTR _ver$[ebp], 148 ; 00000094H

; 139  : 	::GetVersionEx( &ver );

  0001b	8d 85 60 ff ff
	ff		 lea	 eax, DWORD PTR _ver$[ebp]
  00021	50		 push	 eax
  00022	ff 15 00 00 00
	00		 call	 DWORD PTR __imp__GetVersionExA@4

; 140  : 	if( (ver.dwPlatformId == VER_PLATFORM_WIN32_NT) && (ver.dwMajorVersion >= 5) )

  00028	83 bd 70 ff ff
	ff 02		 cmp	 DWORD PTR _ver$[ebp+16], 2
  0002f	75 15		 jne	 SHORT $L24173
  00031	83 bd 64 ff ff
	ff 05		 cmp	 DWORD PTR _ver$[ebp+4], 5
  00038	72 0c		 jb	 SHORT $L24173

; 141  : 	{
; 142  : 		// On Win2K, CP_THREAD_ACP is supported
; 143  : 		pfnGetThreadACP = _AtlGetThreadACPReal;

  0003a	c7 85 5c ff ff
	ff 00 00 00 00	 mov	 DWORD PTR _pfnGetThreadACP$[ebp], OFFSET FLAT:?_AtlGetThreadACPReal@ATL@@YGIXZ ; ATL::_AtlGetThreadACPReal

; 144  : 	}
; 145  : 	else

  00044	eb 0a		 jmp	 SHORT $L24174
$L24173:

; 146  : 	{
; 147  : 		pfnGetThreadACP = _AtlGetThreadACPFake;

  00046	c7 85 5c ff ff
	ff 00 00 00 00	 mov	 DWORD PTR _pfnGetThreadACP$[ebp], OFFSET FLAT:?_AtlGetThreadACPFake@ATL@@YGIXZ ; ATL::_AtlGetThreadACPFake
$L24174:

; 148  : 	}
; 149  : 	InterlockedExchangePointer( reinterpret_cast< void** >(&g_pfnGetThreadACP), pfnGetThreadACP );

  00050	8b 8d 5c ff ff
	ff		 mov	 ecx, DWORD PTR _pfnGetThreadACP$[ebp]
  00056	51		 push	 ecx
  00057	68 00 00 00 00	 push	 OFFSET FLAT:?g_pfnGetThreadACP@ATL@@3P6GIXZA ; ATL::g_pfnGetThreadACP
  0005c	e8 00 00 00 00	 call	 ?InterlockedExchangePointer@@YGPAXPAPAXPAX@Z ; InterlockedExchangePointer

; 150  : 
; 151  : 	return( g_pfnGetThreadACP() );

  00061	ff 15 00 00 00
	00		 call	 DWORD PTR ?g_pfnGetThreadACP@ATL@@3P6GIXZA ; ATL::g_pfnGetThreadACP

; 152  : }

  00067	8b 4d fc	 mov	 ecx, DWORD PTR __$ArrayPad$[ebp]
  0006a	e8 00 00 00 00	 call	 @__security_check_cookie@4
  0006f	8b e5		 mov	 esp, ebp
  00071	5d		 pop	 ebp
  00072	c3		 ret	 0
?_AtlGetThreadACPThunk@ATL@@YGIXZ ENDP			; ATL::_AtlGetThreadACPThunk
_TEXT	ENDS
EXTRN	__imp__InterlockedExchange@8:NEAR
; Function compile flags: /Odt
;	COMDAT ?InterlockedExchangePointer@@YGPAXPAPAXPAX@Z
_TEXT	SEGMENT
_pp$ = 8						; size = 4
_pNew$ = 12						; size = 4
?InterlockedExchangePointer@@YGPAXPAPAXPAX@Z PROC NEAR	; InterlockedExchangePointer, COMDAT

; 91   : {

  00000	55		 push	 ebp
  00001	8b ec		 mov	 ebp, esp

; 92   : 	return( reinterpret_cast<void*>(static_cast<LONG_PTR>(::InterlockedExchange(reinterpret_cast<LONG*>(pp), static_cast<LONG>(reinterpret_cast<LONG_PTR>(pNew))))) );

  00003	8b 45 0c	 mov	 eax, DWORD PTR _pNew$[ebp]
  00006	50		 push	 eax
  00007	8b 4d 08	 mov	 ecx, DWORD PTR _pp$[ebp]
  0000a	51		 push	 ecx
  0000b	ff 15 00 00 00
	00		 call	 DWORD PTR __imp__InterlockedExchange@8

; 93   : }

  00011	5d		 pop	 ebp
  00012	c2 08 00	 ret	 8
?InterlockedExchangePointer@@YGPAXPAPAXPAX@Z ENDP	; InterlockedExchangePointer
_TEXT	ENDS
EXTRN	__imp__GetACP@0:NEAR
EXTRN	__imp__GetLocaleInfoA@16:NEAR
EXTRN	__imp__GetThreadLocale@0:NEAR
; Function compile flags: /Odt
;	COMDAT ?_AtlGetThreadACPFake@ATL@@YGIXZ
_TEXT	SEGMENT
_pch$24161 = -24					; size = 4
_lcidThread$ = -20					; size = 4
_szACP$ = -16						; size = 7
__$ArrayPad$ = -8					; size = 4
_nACP$ = -4						; size = 4
__$ReturnAddr$ = 4					; size = 4
?_AtlGetThreadACPFake@ATL@@YGIXZ PROC NEAR		; ATL::_AtlGetThreadACPFake, COMDAT

; 101  : {

  00000	55		 push	 ebp
  00001	8b ec		 mov	 ebp, esp
  00003	83 ec 18	 sub	 esp, 24			; 00000018H
  00006	a1 00 00 00 00	 mov	 eax, DWORD PTR ___security_cookie
  0000b	89 45 f8	 mov	 DWORD PTR __$ArrayPad$[ebp], eax

; 102  : 	UINT nACP = 0;

  0000e	c7 45 fc 00 00
	00 00		 mov	 DWORD PTR _nACP$[ebp], 0

; 103  : 
; 104  : 	LCID lcidThread = ::GetThreadLocale();

  00015	ff 15 00 00 00
	00		 call	 DWORD PTR __imp__GetThreadLocale@0
  0001b	89 45 ec	 mov	 DWORD PTR _lcidThread$[ebp], eax

; 105  : 
; 106  : 	char szACP[7];
; 107  : 	// GetLocaleInfoA will fail for a Unicode-only LCID, but those are only supported on 
; 108  : 	// Windows 2000.  Since Windows 2000 supports CP_THREAD_ACP, this code path is never
; 109  : 	// executed on Windows 2000.
; 110  : 	if (::GetLocaleInfoA(lcidThread, LOCALE_IDEFAULTANSICODEPAGE, szACP, 7) != 0)

  0001e	6a 07		 push	 7
  00020	8d 45 f0	 lea	 eax, DWORD PTR _szACP$[ebp]
  00023	50		 push	 eax
  00024	68 04 10 00 00	 push	 4100			; 00001004H
  00029	8b 4d ec	 mov	 ecx, DWORD PTR _lcidThread$[ebp]
  0002c	51		 push	 ecx
  0002d	ff 15 00 00 00
	00		 call	 DWORD PTR __imp__GetLocaleInfoA@16
  00033	85 c0		 test	 eax, eax
  00035	74 34		 je	 SHORT $L24160

; 111  : 	{
; 112  : 		char* pch = szACP;

  00037	8d 55 f0	 lea	 edx, DWORD PTR _szACP$[ebp]
  0003a	89 55 e8	 mov	 DWORD PTR _pch$24161[ebp], edx
$L24163:

; 113  : 		while (*pch != '\0')

  0003d	8b 45 e8	 mov	 eax, DWORD PTR _pch$24161[ebp]
  00040	0f be 08	 movsx	 ecx, BYTE PTR [eax]
  00043	85 c9		 test	 ecx, ecx
  00045	74 24		 je	 SHORT $L24160

; 114  : 		{
; 115  : 			nACP *= 10;

  00047	8b 55 fc	 mov	 edx, DWORD PTR _nACP$[ebp]
  0004a	6b d2 0a	 imul	 edx, 10			; 0000000aH
  0004d	89 55 fc	 mov	 DWORD PTR _nACP$[ebp], edx

; 116  : 			nACP += *pch++ - '0';

  00050	8b 45 e8	 mov	 eax, DWORD PTR _pch$24161[ebp]
  00053	0f be 08	 movsx	 ecx, BYTE PTR [eax]
  00056	8b 55 fc	 mov	 edx, DWORD PTR _nACP$[ebp]
  00059	8d 44 0a d0	 lea	 eax, DWORD PTR [edx+ecx-48]
  0005d	89 45 fc	 mov	 DWORD PTR _nACP$[ebp], eax
  00060	8b 4d e8	 mov	 ecx, DWORD PTR _pch$24161[ebp]
  00063	83 c1 01	 add	 ecx, 1
  00066	89 4d e8	 mov	 DWORD PTR _pch$24161[ebp], ecx

; 117  : 		}

  00069	eb d2		 jmp	 SHORT $L24163
$L24160:

; 118  : 	}
; 119  : 	// Use the Default ANSI Code Page if we were unable to get the thread ACP or if one does not exist.
; 120  : 	if (nACP == 0)

  0006b	83 7d fc 00	 cmp	 DWORD PTR _nACP$[ebp], 0
  0006f	75 09		 jne	 SHORT $L24165

; 121  : 		nACP = ::GetACP();

  00071	ff 15 00 00 00
	00		 call	 DWORD PTR __imp__GetACP@0
  00077	89 45 fc	 mov	 DWORD PTR _nACP$[ebp], eax
$L24165:

; 122  : 
; 123  : 	return nACP;

  0007a	8b 45 fc	 mov	 eax, DWORD PTR _nACP$[ebp]

; 124  : }

  0007d	8b 4d f8	 mov	 ecx, DWORD PTR __$ArrayPad$[ebp]
  00080	e8 00 00 00 00	 call	 @__security_check_cookie@4
  00085	8b e5		 mov	 esp, ebp
  00087	5d		 pop	 ebp
  00088	c3		 ret	 0
?_AtlGetThreadACPFake@ATL@@YGIXZ ENDP			; ATL::_AtlGetThreadACPFake
; Function compile flags: /Odt
_TEXT	ENDS
;	COMDAT ?_AtlGetThreadACPReal@ATL@@YGIXZ
_TEXT	SEGMENT
?_AtlGetThreadACPReal@ATL@@YGIXZ PROC NEAR		; ATL::_AtlGetThreadACPReal, COMDAT

; 127  : {

  00000	55		 push	 ebp
  00001	8b ec		 mov	 ebp, esp

; 128  : 	return( CP_THREAD_ACP );

  00003	b8 03 00 00 00	 mov	 eax, 3

; 129  : }

  00008	5d		 pop	 ebp
  00009	c3		 ret	 0
?_AtlGetThreadACPReal@ATL@@YGIXZ ENDP			; ATL::_AtlGetThreadACPReal
_TEXT	ENDS
PUBLIC	?paneSpl@ETSLayoutMgr@@QAE?AVCPane@1@PAVETSSplitter@@W4layOrientation@1@W4layResizeMode@1@HHHHHH@Z ; ETSLayoutMgr::paneSpl
PUBLIC	??0PaneSplitter@ETSLayoutMgr@@QAE@PAVETSSplitter@@PAV1@W4layOrientation@1@@Z ; ETSLayoutMgr::PaneSplitter::PaneSplitter
EXTRN	??2@YAPAXI@Z:NEAR				; operator new
EXTRN	??3@YAXPAX@Z:NEAR				; operator delete
EXTRN	__except_list:DWORD
EXTRN	___CxxFrameHandler:NEAR
EXTRN	??0CPane@ETSLayoutMgr@@QAE@PAVPane@1@@Z:NEAR	; ETSLayoutMgr::CPane::CPane
xdata$x	SEGMENT
$T203155 DD	0ffffffffH
	DD	FLAT:$L203145
$T203152 DD	019930520H
	DD	01H
	DD	FLAT:$T203155
	DD	2 DUP(00H)
	DD	2 DUP(00H)
; Function compile flags: /Odt
; File d:\boxgit\playbox\playbox\dev\prj\playbox\src\layoutmgr\etslayoutex.cpp
xdata$x	ENDS
_TEXT	SEGMENT
tv74 = -36						; size = 4
_this$ = -32						; size = 4
$T203147 = -28						; size = 4
$T203142 = -24						; size = 4
$T203141 = -20						; size = 4
_pPane$ = -16						; size = 4
__$EHRec$ = -12						; size = 12
___$ReturnUdt$ = 8					; size = 4
_pSpl$ = 12						; size = 4
_orientation$ = 16					; size = 4
_modeResize$ = 20					; size = 4
_nClosedPos$ = 24					; size = 4
_nClosedOri$ = 28					; size = 4
_nSize$ = 32						; size = 4
_nOpenSize$ = 36					; size = 4
_nHideCloseBtn$ = 40					; size = 4
_nSlim$ = 44						; size = 4
?paneSpl@ETSLayoutMgr@@QAE?AVCPane@1@PAVETSSplitter@@W4layOrientation@1@W4layResizeMode@1@HHHHHH@Z PROC NEAR ; ETSLayoutMgr::paneSpl
; _this$ = ecx

; 15   : {

  00000	55		 push	 ebp
  00001	8b ec		 mov	 ebp, esp
  00003	6a ff		 push	 -1
  00005	68 00 00 00 00	 push	 __ehhandler$?paneSpl@ETSLayoutMgr@@QAE?AVCPane@1@PAVETSSplitter@@W4layOrientation@1@W4layResizeMode@1@HHHHHH@Z
  0000a	64 a1 00 00 00
	00		 mov	 eax, DWORD PTR fs:__except_list
  00010	50		 push	 eax
  00011	64 89 25 00 00
	00 00		 mov	 DWORD PTR fs:__except_list, esp
  00018	83 ec 18	 sub	 esp, 24			; 00000018H
  0001b	89 4d e0	 mov	 DWORD PTR _this$[ebp], ecx
  0001e	c7 45 e4 00 00
	00 00		 mov	 DWORD PTR $T203147[ebp], 0

; 16   : 	ETSLayoutMgr::PaneSplitter* pPane = new PaneSplitter ( pSpl, this, orientation);

  00025	68 98 00 00 00	 push	 152			; 00000098H
  0002a	e8 00 00 00 00	 call	 ??2@YAPAXI@Z		; operator new
  0002f	83 c4 04	 add	 esp, 4
  00032	89 45 e8	 mov	 DWORD PTR $T203142[ebp], eax
  00035	c7 45 fc 00 00
	00 00		 mov	 DWORD PTR __$EHRec$[ebp+8], 0
  0003c	83 7d e8 00	 cmp	 DWORD PTR $T203142[ebp], 0
  00040	74 19		 je	 SHORT $L203143
  00042	8b 45 10	 mov	 eax, DWORD PTR _orientation$[ebp]
  00045	50		 push	 eax
  00046	8b 4d e0	 mov	 ecx, DWORD PTR _this$[ebp]
  00049	51		 push	 ecx
  0004a	8b 55 0c	 mov	 edx, DWORD PTR _pSpl$[ebp]
  0004d	52		 push	 edx
  0004e	8b 4d e8	 mov	 ecx, DWORD PTR $T203142[ebp]
  00051	e8 00 00 00 00	 call	 ??0PaneSplitter@ETSLayoutMgr@@QAE@PAVETSSplitter@@PAV1@W4layOrientation@1@@Z ; ETSLayoutMgr::PaneSplitter::PaneSplitter
  00056	89 45 dc	 mov	 DWORD PTR tv74[ebp], eax
  00059	eb 07		 jmp	 SHORT $L203144
$L203143:
  0005b	c7 45 dc 00 00
	00 00		 mov	 DWORD PTR tv74[ebp], 0
$L203144:
  00062	8b 45 dc	 mov	 eax, DWORD PTR tv74[ebp]
  00065	89 45 ec	 mov	 DWORD PTR $T203141[ebp], eax
  00068	c7 45 fc ff ff
	ff ff		 mov	 DWORD PTR __$EHRec$[ebp+8], -1
  0006f	8b 4d ec	 mov	 ecx, DWORD PTR $T203141[ebp]
  00072	89 4d f0	 mov	 DWORD PTR _pPane$[ebp], ecx

; 17   : 
; 18   : 	//pPane->m_sizeSecondary = (isClosed)? nClosedPos:nSplOpenSize;
; 19   : 
; 20   : 	pPane->m_sizeSecondary = nSize;

  00075	8b 55 f0	 mov	 edx, DWORD PTR _pPane$[ebp]
  00078	8b 45 20	 mov	 eax, DWORD PTR _nSize$[ebp]
  0007b	89 42 78	 mov	 DWORD PTR [edx+120], eax

; 21   : 	//if(orientation == VERTICAL)
; 22   : 	pPane->m_modeResize    = modeResize;

  0007e	8b 4d f0	 mov	 ecx, DWORD PTR _pPane$[ebp]
  00081	8b 55 14	 mov	 edx, DWORD PTR _modeResize$[ebp]
  00084	89 51 18	 mov	 DWORD PTR [ecx+24], edx

; 23   : //	pPane->SetClosed(nSize == nClosedPos);
; 24   : 
; 25   : 	if(orientation == VERTICAL)

  00087	83 7d 10 01	 cmp	 DWORD PTR _orientation$[ebp], 1
  0008b	75 09		 jne	 SHORT $L200799

; 26   : 		pSpl->m_bHorizSplitter = true;

  0008d	8b 45 0c	 mov	 eax, DWORD PTR _pSpl$[ebp]
  00090	c6 40 54 01	 mov	 BYTE PTR [eax+84], 1

; 27   : 	else

  00094	eb 07		 jmp	 SHORT $L200800
$L200799:

; 28   : 		pSpl->m_bHorizSplitter   = false;

  00096	8b 4d 0c	 mov	 ecx, DWORD PTR _pSpl$[ebp]
  00099	c6 41 54 00	 mov	 BYTE PTR [ecx+84], 0
$L200800:

; 29   : 
; 30   : 	pSpl->m_bHideCloseBtn = (nHideCloseBtn == 1);

  0009d	33 d2		 xor	 edx, edx
  0009f	83 7d 28 01	 cmp	 DWORD PTR _nHideCloseBtn$[ebp], 1
  000a3	0f 94 c2	 sete	 dl
  000a6	8b 45 0c	 mov	 eax, DWORD PTR _pSpl$[ebp]
  000a9	88 50 60	 mov	 BYTE PTR [eax+96], dl

; 31   : 	//pSpl->SetSlim(nSlim ==1);
; 32   : 
; 33   : 	pPane->m_nClosedOri = nClosedOri;

  000ac	8b 4d f0	 mov	 ecx, DWORD PTR _pPane$[ebp]
  000af	8b 55 1c	 mov	 edx, DWORD PTR _nClosedOri$[ebp]
  000b2	89 91 84 00 00
	00		 mov	 DWORD PTR [ecx+132], edx

; 34   : 	pPane->m_nSplClosedPos = nClosedPos;

  000b8	8b 45 f0	 mov	 eax, DWORD PTR _pPane$[ebp]
  000bb	8b 4d 18	 mov	 ecx, DWORD PTR _nClosedPos$[ebp]
  000be	89 88 88 00 00
	00		 mov	 DWORD PTR [eax+136], ecx

; 35   : 	pPane->m_nSplOpendPos = nOpenSize;

  000c4	8b 55 f0	 mov	 edx, DWORD PTR _pPane$[ebp]
  000c7	8b 45 24	 mov	 eax, DWORD PTR _nOpenSize$[ebp]
  000ca	89 82 8c 00 00
	00		 mov	 DWORD PTR [edx+140], eax

; 36   : 	
; 37   : 	pSpl->m_pane = (ETSLayoutMgr::PaneSplitter *)pPane;

  000d0	8b 4d 0c	 mov	 ecx, DWORD PTR _pSpl$[ebp]
  000d3	8b 55 f0	 mov	 edx, DWORD PTR _pPane$[ebp]
  000d6	89 91 b0 00 00
	00		 mov	 DWORD PTR [ecx+176], edx

; 38   : 	pPane->m_nDeflate = -1;

  000dc	8b 45 f0	 mov	 eax, DWORD PTR _pPane$[ebp]
  000df	c7 80 90 00 00
	00 ff ff ff ff	 mov	 DWORD PTR [eax+144], -1

; 39   : 	return CPane(pPane);

  000e9	8b 4d f0	 mov	 ecx, DWORD PTR _pPane$[ebp]
  000ec	51		 push	 ecx
  000ed	8b 4d 08	 mov	 ecx, DWORD PTR ___$ReturnUdt$[ebp]
  000f0	e8 00 00 00 00	 call	 ??0CPane@ETSLayoutMgr@@QAE@PAVPane@1@@Z ; ETSLayoutMgr::CPane::CPane
  000f5	8b 55 e4	 mov	 edx, DWORD PTR $T203147[ebp]
  000f8	83 ca 01	 or	 edx, 1
  000fb	89 55 e4	 mov	 DWORD PTR $T203147[ebp], edx
  000fe	8b 45 08	 mov	 eax, DWORD PTR ___$ReturnUdt$[ebp]

; 40   : }

  00101	8b 4d f4	 mov	 ecx, DWORD PTR __$EHRec$[ebp]
  00104	64 89 0d 00 00
	00 00		 mov	 DWORD PTR fs:__except_list, ecx
  0010b	8b e5		 mov	 esp, ebp
  0010d	5d		 pop	 ebp
  0010e	c2 28 00	 ret	 40			; 00000028H
_TEXT	ENDS
text$x	SEGMENT
$L203145:
  00000	8b 45 e8	 mov	 eax, DWORD PTR $T203142[ebp]
  00003	50		 push	 eax
  00004	e8 00 00 00 00	 call	 ??3@YAXPAX@Z		; operator delete
  00009	59		 pop	 ecx
  0000a	c3		 ret	 0
__ehhandler$?paneSpl@ETSLayoutMgr@@QAE?AVCPane@1@PAVETSSplitter@@W4layOrientation@1@W4layResizeMode@1@HHHHHH@Z:
  0000b	b8 00 00 00 00	 mov	 eax, OFFSET FLAT:$T203152
  00010	e9 00 00 00 00	 jmp	 ___CxxFrameHandler
text$x	ENDS
?paneSpl@ETSLayoutMgr@@QAE?AVCPane@1@PAVETSSplitter@@W4layOrientation@1@W4layResizeMode@1@HHHHHH@Z ENDP ; ETSLayoutMgr::paneSpl
PUBLIC	?resizeTo@PaneSplitter@ETSLayoutMgr@@UAE_NAAVCRect@@_N1@Z ; ETSLayoutMgr::PaneSplitter::resizeTo
PUBLIC	?addPane@PaneSplitter@ETSLayoutMgr@@UAE_NVCPaneBase@2@@Z ; ETSLayoutMgr::PaneSplitter::addPane
PUBLIC	?addPane@PaneSplitter@ETSLayoutMgr@@UAE_NVCPane@2@W4layResizeMode@2@H@Z ; ETSLayoutMgr::PaneSplitter::addPane
PUBLIC	?getMinConstrainHorz@PaneSplitter@ETSLayoutMgr@@UAEHXZ ; ETSLayoutMgr::PaneSplitter::getMinConstrainHorz
PUBLIC	?getMinConstrainVert@PaneSplitter@ETSLayoutMgr@@UAEHXZ ; ETSLayoutMgr::PaneSplitter::getMinConstrainVert
PUBLIC	?showPane@PaneSplitter@ETSLayoutMgr@@UAEX_N@Z	; ETSLayoutMgr::PaneSplitter::showPane
PUBLIC	??_7PaneSplitter@ETSLayoutMgr@@6B@		; ETSLayoutMgr::PaneSplitter::`vftable'
PUBLIC	??_GPaneSplitter@ETSLayoutMgr@@UAEPAXI@Z	; ETSLayoutMgr::PaneSplitter::`scalar deleting destructor'
PUBLIC	??_R0?AVPaneBase@ETSLayoutMgr@@@8		; ETSLayoutMgr::PaneBase `RTTI Type Descriptor'
PUBLIC	??_R1A@?0A@A@PaneBase@ETSLayoutMgr@@8		; ETSLayoutMgr::PaneBase::`RTTI Base Class Descriptor at (0,-1,0,0)'
PUBLIC	??_R1A@?0A@A@Pane@ETSLayoutMgr@@8		; ETSLayoutMgr::Pane::`RTTI Base Class Descriptor at (0,-1,0,0)'
PUBLIC	??_R0?AVPane@ETSLayoutMgr@@@8			; ETSLayoutMgr::Pane `RTTI Type Descriptor'
PUBLIC	??_R4PaneSplitter@ETSLayoutMgr@@6B@		; ETSLayoutMgr::PaneSplitter::`RTTI Complete Object Locator'
PUBLIC	??_R0?AVPaneSplitter@ETSLayoutMgr@@@8		; ETSLayoutMgr::PaneSplitter `RTTI Type Descriptor'
PUBLIC	??_R3PaneSplitter@ETSLayoutMgr@@8		; ETSLayoutMgr::PaneSplitter::`RTTI Class Hierarchy Descriptor'
PUBLIC	??_R2PaneSplitter@ETSLayoutMgr@@8		; ETSLayoutMgr::PaneSplitter::`RTTI Base Class Array'
PUBLIC	??_R1A@?0A@A@PaneSplitter@ETSLayoutMgr@@8	; ETSLayoutMgr::PaneSplitter::`RTTI Base Class Descriptor at (0,-1,0,0)'
EXTRN	??0Pane@ETSLayoutMgr@@IAE@PAV1@W4layOrientation@1@HH@Z:NEAR ; ETSLayoutMgr::Pane::Pane
EXTRN	?getConstrainHorz@Pane@ETSLayoutMgr@@UAEHH@Z:NEAR ; ETSLayoutMgr::Pane::getConstrainHorz
EXTRN	?getConstrainVert@Pane@ETSLayoutMgr@@UAEHH@Z:NEAR ; ETSLayoutMgr::Pane::getConstrainVert
EXTRN	?getMaxConstrainHorz@Pane@ETSLayoutMgr@@UAEHXZ:NEAR ; ETSLayoutMgr::Pane::getMaxConstrainHorz
EXTRN	?getMaxConstrainVert@Pane@ETSLayoutMgr@@UAEHXZ:NEAR ; ETSLayoutMgr::Pane::getMaxConstrainVert
EXTRN	?GetSubPane@Pane@ETSLayoutMgr@@UAE?AVCPaneBase@2@V?$CStringT@DV?$StrTraitMFC_DLL@DV?$ChTraitsCRT@D@ATL@@@@@ATL@@@Z:NEAR ; ETSLayoutMgr::Pane::GetSubPane
EXTRN	??_EPaneSplitter@ETSLayoutMgr@@UAEPAXI@Z:NEAR	; ETSLayoutMgr::PaneSplitter::`vector deleting destructor'
EXTRN	??_7type_info@@6B@:QWORD			; type_info::`vftable'
;	COMDAT ??_7PaneSplitter@ETSLayoutMgr@@6B@
CONST	SEGMENT
??_7PaneSplitter@ETSLayoutMgr@@6B@ DD FLAT:??_R4PaneSplitter@ETSLayoutMgr@@6B@ ; ETSLayoutMgr::PaneSplitter::`vftable'
	DD	FLAT:?getConstrainHorz@Pane@ETSLayoutMgr@@UAEHH@Z
	DD	FLAT:?getConstrainVert@Pane@ETSLayoutMgr@@UAEHH@Z
	DD	FLAT:?getMinConstrainHorz@PaneSplitter@ETSLayoutMgr@@UAEHXZ
	DD	FLAT:?getMaxConstrainHorz@Pane@ETSLayoutMgr@@UAEHXZ
	DD	FLAT:?getMinConstrainVert@PaneSplitter@ETSLayoutMgr@@UAEHXZ
	DD	FLAT:?getMaxConstrainVert@Pane@ETSLayoutMgr@@UAEHXZ
	DD	FLAT:?resizeTo@PaneSplitter@ETSLayoutMgr@@UAE_NAAVCRect@@_N1@Z
	DD	FLAT:?GetSubPane@Pane@ETSLayoutMgr@@UAE?AVCPaneBase@2@V?$CStringT@DV?$StrTraitMFC_DLL@DV?$ChTraitsCRT@D@ATL@@@@@ATL@@@Z
	DD	FLAT:??_EPaneSplitter@ETSLayoutMgr@@UAEPAXI@Z
	DD	FLAT:?showPane@PaneSplitter@ETSLayoutMgr@@UAEX_N@Z
	DD	FLAT:?addPane@PaneSplitter@ETSLayoutMgr@@UAE_NVCPane@2@W4layResizeMode@2@H@Z
	DD	FLAT:?addPane@PaneSplitter@ETSLayoutMgr@@UAE_NVCPaneBase@2@@Z
CONST	ENDS
;	COMDAT ??_R4PaneSplitter@ETSLayoutMgr@@6B@
rdata$r	SEGMENT
??_R4PaneSplitter@ETSLayoutMgr@@6B@ DD 00H		; ETSLayoutMgr::PaneSplitter::`RTTI Complete Object Locator'
	DD	00H
	DD	00H
	DD	FLAT:??_R0?AVPaneSplitter@ETSLayoutMgr@@@8
	DD	FLAT:??_R3PaneSplitter@ETSLayoutMgr@@8
rdata$r	ENDS
;	COMDAT ??_R0?AVPaneSplitter@ETSLayoutMgr@@@8
_DATA	SEGMENT
??_R0?AVPaneSplitter@ETSLayoutMgr@@@8 DD FLAT:??_7type_info@@6B@ ; ETSLayoutMgr::PaneSplitter `RTTI Type Descriptor'
	DD	00H
	DB	'.?AVPaneSplitter@ETSLayoutMgr@@', 00H
_DATA	ENDS
;	COMDAT ??_R3PaneSplitter@ETSLayoutMgr@@8
rdata$r	SEGMENT
??_R3PaneSplitter@ETSLayoutMgr@@8 DD 00H		; ETSLayoutMgr::PaneSplitter::`RTTI Class Hierarchy Descriptor'
	DD	00H
	DD	03H
	DD	FLAT:??_R2PaneSplitter@ETSLayoutMgr@@8
rdata$r	ENDS
;	COMDAT ??_R2PaneSplitter@ETSLayoutMgr@@8
rdata$r	SEGMENT
??_R2PaneSplitter@ETSLayoutMgr@@8 DD FLAT:??_R1A@?0A@A@PaneSplitter@ETSLayoutMgr@@8 ; ETSLayoutMgr::PaneSplitter::`RTTI Base Class Array'
	DD	FLAT:??_R1A@?0A@A@Pane@ETSLayoutMgr@@8
	DD	FLAT:??_R1A@?0A@A@PaneBase@ETSLayoutMgr@@8
rdata$r	ENDS
;	COMDAT ??_R1A@?0A@A@PaneSplitter@ETSLayoutMgr@@8
rdata$r	SEGMENT
??_R1A@?0A@A@PaneSplitter@ETSLayoutMgr@@8 DD FLAT:??_R0?AVPaneSplitter@ETSLayoutMgr@@@8 ; ETSLayoutMgr::PaneSplitter::`RTTI Base Class Descriptor at (0,-1,0,0)'
	DD	02H
	DD	00H
	DD	0ffffffffH
	DD	00H
	DD	00H
rdata$r	ENDS
;	COMDAT ??_R1A@?0A@A@Pane@ETSLayoutMgr@@8
rdata$r	SEGMENT
??_R1A@?0A@A@Pane@ETSLayoutMgr@@8 DD FLAT:??_R0?AVPane@ETSLayoutMgr@@@8 ; ETSLayoutMgr::Pane::`RTTI Base Class Descriptor at (0,-1,0,0)'
	DD	01H
	DD	00H
	DD	0ffffffffH
	DD	00H
	DD	00H
rdata$r	ENDS
;	COMDAT ??_R0?AVPane@ETSLayoutMgr@@@8
_DATA	SEGMENT
??_R0?AVPane@ETSLayoutMgr@@@8 DD FLAT:??_7type_info@@6B@ ; ETSLayoutMgr::Pane `RTTI Type Descriptor'
	DD	00H
	DB	'.?AVPane@ETSLayoutMgr@@', 00H
_DATA	ENDS
;	COMDAT ??_R1A@?0A@A@PaneBase@ETSLayoutMgr@@8
rdata$r	SEGMENT
??_R1A@?0A@A@PaneBase@ETSLayoutMgr@@8 DD FLAT:??_R0?AVPaneBase@ETSLayoutMgr@@@8 ; ETSLayoutMgr::PaneBase::`RTTI Base Class Descriptor at (0,-1,0,0)'
	DD	00H
	DD	00H
	DD	0ffffffffH
	DD	00H
	DD	00H
rdata$r	ENDS
;	COMDAT ??_R0?AVPaneBase@ETSLayoutMgr@@@8
_DATA	SEGMENT
??_R0?AVPaneBase@ETSLayoutMgr@@@8 DD FLAT:??_7type_info@@6B@ ; ETSLayoutMgr::PaneBase `RTTI Type Descriptor'
	DD	00H
	DB	'.?AVPaneBase@ETSLayoutMgr@@', 00H
; Function compile flags: /Odt
_DATA	ENDS
_TEXT	SEGMENT
_this$ = -4						; size = 4
_pSpl$ = 8						; size = 4
_pMgr$ = 12						; size = 4
_orientation$ = 16					; size = 4
??0PaneSplitter@ETSLayoutMgr@@QAE@PAVETSSplitter@@PAV1@W4layOrientation@1@@Z PROC NEAR ; ETSLayoutMgr::PaneSplitter::PaneSplitter
; _this$ = ecx

; 44   : {

  00120	55		 push	 ebp
  00121	8b ec		 mov	 ebp, esp
  00123	51		 push	 ecx
  00124	89 4d fc	 mov	 DWORD PTR _this$[ebp], ecx
  00127	6a 00		 push	 0
  00129	6a 00		 push	 0
  0012b	8b 45 10	 mov	 eax, DWORD PTR _orientation$[ebp]
  0012e	50		 push	 eax
  0012f	8b 4d 0c	 mov	 ecx, DWORD PTR _pMgr$[ebp]
  00132	51		 push	 ecx
  00133	8b 4d fc	 mov	 ecx, DWORD PTR _this$[ebp]
  00136	e8 00 00 00 00	 call	 ??0Pane@ETSLayoutMgr@@IAE@PAV1@W4layOrientation@1@HH@Z ; ETSLayoutMgr::Pane::Pane
  0013b	8b 55 fc	 mov	 edx, DWORD PTR _this$[ebp]
  0013e	c7 02 00 00 00
	00		 mov	 DWORD PTR [edx], OFFSET FLAT:??_7PaneSplitter@ETSLayoutMgr@@6B@

; 45   : 	ASSERT(pSpl);
; 46   : 	m_pSpl = pSpl;

  00144	8b 45 fc	 mov	 eax, DWORD PTR _this$[ebp]
  00147	8b 4d 08	 mov	 ecx, DWORD PTR _pSpl$[ebp]
  0014a	89 88 94 00 00
	00		 mov	 DWORD PTR [eax+148], ecx

; 47   : 	m_nDeflate = true;

  00150	8b 55 fc	 mov	 edx, DWORD PTR _this$[ebp]
  00153	c7 82 90 00 00
	00 01 00 00 00	 mov	 DWORD PTR [edx+144], 1

; 48   : }

  0015d	8b 45 fc	 mov	 eax, DWORD PTR _this$[ebp]
  00160	8b e5		 mov	 esp, ebp
  00162	5d		 pop	 ebp
  00163	c2 0c 00	 ret	 12			; 0000000cH
??0PaneSplitter@ETSLayoutMgr@@QAE@PAVETSSplitter@@PAV1@W4layOrientation@1@@Z ENDP ; ETSLayoutMgr::PaneSplitter::PaneSplitter
_TEXT	ENDS
PUBLIC	??1PaneSplitter@ETSLayoutMgr@@UAE@XZ		; ETSLayoutMgr::PaneSplitter::~PaneSplitter
; Function compile flags: /Odt
;	COMDAT ??_GPaneSplitter@ETSLayoutMgr@@UAEPAXI@Z
_TEXT	SEGMENT
_this$ = -4						; size = 4
___flags$ = 8						; size = 4
??_GPaneSplitter@ETSLayoutMgr@@UAEPAXI@Z PROC NEAR	; ETSLayoutMgr::PaneSplitter::`scalar deleting destructor', COMDAT
; _this$ = ecx
  00000	55		 push	 ebp
  00001	8b ec		 mov	 ebp, esp
  00003	51		 push	 ecx
  00004	89 4d fc	 mov	 DWORD PTR _this$[ebp], ecx
  00007	8b 4d fc	 mov	 ecx, DWORD PTR _this$[ebp]
  0000a	e8 00 00 00 00	 call	 ??1PaneSplitter@ETSLayoutMgr@@UAE@XZ
  0000f	8b 45 08	 mov	 eax, DWORD PTR ___flags$[ebp]
  00012	83 e0 01	 and	 eax, 1
  00015	74 0c		 je	 SHORT $L200813
  00017	8b 4d fc	 mov	 ecx, DWORD PTR _this$[ebp]
  0001a	51		 push	 ecx
  0001b	e8 00 00 00 00	 call	 ??3@YAXPAX@Z		; operator delete
  00020	83 c4 04	 add	 esp, 4
$L200813:
  00023	8b 45 fc	 mov	 eax, DWORD PTR _this$[ebp]
  00026	8b e5		 mov	 esp, ebp
  00028	5d		 pop	 ebp
  00029	c2 04 00	 ret	 4
??_GPaneSplitter@ETSLayoutMgr@@UAEPAXI@Z ENDP		; ETSLayoutMgr::PaneSplitter::`scalar deleting destructor'
_TEXT	ENDS
EXTRN	??1Pane@ETSLayoutMgr@@UAE@XZ:NEAR		; ETSLayoutMgr::Pane::~Pane
; Function compile flags: /Odt
;	COMDAT ??1PaneSplitter@ETSLayoutMgr@@UAE@XZ
_TEXT	SEGMENT
_this$ = -4						; size = 4
??1PaneSplitter@ETSLayoutMgr@@UAE@XZ PROC NEAR		; ETSLayoutMgr::PaneSplitter::~PaneSplitter, COMDAT
; _this$ = ecx
  00000	55		 push	 ebp
  00001	8b ec		 mov	 ebp, esp
  00003	51		 push	 ecx
  00004	89 4d fc	 mov	 DWORD PTR _this$[ebp], ecx
  00007	8b 4d fc	 mov	 ecx, DWORD PTR _this$[ebp]
  0000a	e8 00 00 00 00	 call	 ??1Pane@ETSLayoutMgr@@UAE@XZ ; ETSLayoutMgr::Pane::~Pane
  0000f	8b e5		 mov	 esp, ebp
  00011	5d		 pop	 ebp
  00012	c3		 ret	 0
??1PaneSplitter@ETSLayoutMgr@@UAE@XZ ENDP		; ETSLayoutMgr::PaneSplitter::~PaneSplitter
_TEXT	ENDS
EXTRN	?ShowWindow@CWnd@@QAEHH@Z:NEAR			; CWnd::ShowWindow
EXTRN	?showPane@Pane@ETSLayoutMgr@@UAEX_N@Z:NEAR	; ETSLayoutMgr::Pane::showPane
; Function compile flags: /Odt
_TEXT	SEGMENT
_this$ = -4						; size = 4
_bShow$ = 8						; size = 1
?showPane@PaneSplitter@ETSLayoutMgr@@UAEX_N@Z PROC NEAR	; ETSLayoutMgr::PaneSplitter::showPane
; _this$ = ecx

; 51   : {

  00170	55		 push	 ebp
  00171	8b ec		 mov	 ebp, esp
  00173	51		 push	 ecx
  00174	89 4d fc	 mov	 DWORD PTR _this$[ebp], ecx

; 52   : 	this->m_bShow = bShow;

  00177	8b 45 fc	 mov	 eax, DWORD PTR _this$[ebp]
  0017a	8a 4d 08	 mov	 cl, BYTE PTR _bShow$[ebp]
  0017d	88 48 1c	 mov	 BYTE PTR [eax+28], cl

; 53   : 	if(bShow)

  00180	0f b6 55 08	 movzx	 edx, BYTE PTR _bShow$[ebp]
  00184	85 d2		 test	 edx, edx
  00186	74 12		 je	 SHORT $L200820

; 54   : 		m_pSpl->ShowWindow(SW_SHOW);

  00188	6a 05		 push	 5
  0018a	8b 45 fc	 mov	 eax, DWORD PTR _this$[ebp]
  0018d	8b 88 94 00 00
	00		 mov	 ecx, DWORD PTR [eax+148]
  00193	e8 00 00 00 00	 call	 ?ShowWindow@CWnd@@QAEHH@Z ; CWnd::ShowWindow

; 55   : 	else

  00198	eb 10		 jmp	 SHORT $L200821
$L200820:

; 56   : 		m_pSpl->ShowWindow(SW_HIDE);

  0019a	6a 00		 push	 0
  0019c	8b 4d fc	 mov	 ecx, DWORD PTR _this$[ebp]
  0019f	8b 89 94 00 00
	00		 mov	 ecx, DWORD PTR [ecx+148]
  001a5	e8 00 00 00 00	 call	 ?ShowWindow@CWnd@@QAEHH@Z ; CWnd::ShowWindow
$L200821:

; 57   : 
; 58   : 	ETSLayoutMgr::Pane::showPane(bShow);

  001aa	8a 55 08	 mov	 dl, BYTE PTR _bShow$[ebp]
  001ad	52		 push	 edx
  001ae	8b 4d fc	 mov	 ecx, DWORD PTR _this$[ebp]
  001b1	e8 00 00 00 00	 call	 ?showPane@Pane@ETSLayoutMgr@@UAEX_N@Z ; ETSLayoutMgr::Pane::showPane

; 59   : }

  001b6	8b e5		 mov	 esp, ebp
  001b8	5d		 pop	 ebp
  001b9	c2 04 00	 ret	 4
?showPane@PaneSplitter@ETSLayoutMgr@@UAEX_N@Z ENDP	; ETSLayoutMgr::PaneSplitter::showPane
_TEXT	ENDS
PUBLIC	?Width@CRect@@QBEHXZ				; CRect::Width
PUBLIC	?getPaneRect@PaneBase@ETSLayoutMgr@@QAE?AVCRect@@XZ ; ETSLayoutMgr::PaneBase::getPaneRect
EXTRN	?getMinConstrainHorz@Pane@ETSLayoutMgr@@UAEHXZ:NEAR ; ETSLayoutMgr::Pane::getMinConstrainHorz
; Function compile flags: /Odt
_TEXT	SEGMENT
_this$ = -20						; size = 4
_rc$ = -16						; size = 16
?getMinConstrainHorz@PaneSplitter@ETSLayoutMgr@@UAEHXZ PROC NEAR ; ETSLayoutMgr::PaneSplitter::getMinConstrainHorz
; _this$ = ecx

; 62   : {

  001c0	55		 push	 ebp
  001c1	8b ec		 mov	 ebp, esp
  001c3	83 ec 14	 sub	 esp, 20			; 00000014H
  001c6	89 4d ec	 mov	 DWORD PTR _this$[ebp], ecx

; 63   : 	CRect rc = getPaneRect();

  001c9	8d 45 f0	 lea	 eax, DWORD PTR _rc$[ebp]
  001cc	50		 push	 eax
  001cd	8b 4d ec	 mov	 ecx, DWORD PTR _this$[ebp]
  001d0	e8 00 00 00 00	 call	 ?getPaneRect@PaneBase@ETSLayoutMgr@@QAE?AVCRect@@XZ ; ETSLayoutMgr::PaneBase::getPaneRect

; 64   : 
; 65   : 	if(m_Orientation == VERTICAL && rc.Width() <= 0)

  001d5	8b 4d ec	 mov	 ecx, DWORD PTR _this$[ebp]
  001d8	83 79 60 01	 cmp	 DWORD PTR [ecx+96], 1
  001dc	75 10		 jne	 SHORT $L200827
  001de	8d 4d f0	 lea	 ecx, DWORD PTR _rc$[ebp]
  001e1	e8 00 00 00 00	 call	 ?Width@CRect@@QBEHXZ	; CRect::Width
  001e6	85 c0		 test	 eax, eax
  001e8	7f 04		 jg	 SHORT $L200827

; 66   : 	{
; 67   : 		return 0;

  001ea	33 c0		 xor	 eax, eax
  001ec	eb 08		 jmp	 SHORT $L200824
$L200827:

; 68   : 	}
; 69   : 	else
; 70   : 		return Pane::getMinConstrainHorz();

  001ee	8b 4d ec	 mov	 ecx, DWORD PTR _this$[ebp]
  001f1	e8 00 00 00 00	 call	 ?getMinConstrainHorz@Pane@ETSLayoutMgr@@UAEHXZ ; ETSLayoutMgr::Pane::getMinConstrainHorz
$L200824:

; 71   : }

  001f6	8b e5		 mov	 esp, ebp
  001f8	5d		 pop	 ebp
  001f9	c3		 ret	 0
?getMinConstrainHorz@PaneSplitter@ETSLayoutMgr@@UAEHXZ ENDP ; ETSLayoutMgr::PaneSplitter::getMinConstrainHorz
; Function compile flags: /Odt
; File d:\boxgit\playbox\playbox\dev\prj\playbox\src\layoutmgr\etslayout.h
_TEXT	ENDS
;	COMDAT ?getPaneRect@PaneBase@ETSLayoutMgr@@QAE?AVCRect@@XZ
_TEXT	SEGMENT
_this$ = -4						; size = 4
___$ReturnUdt$ = 8					; size = 4
?getPaneRect@PaneBase@ETSLayoutMgr@@QAE?AVCRect@@XZ PROC NEAR ; ETSLayoutMgr::PaneBase::getPaneRect, COMDAT
; _this$ = ecx

; 296  : 		CRect getPaneRect(){return m_rcRect;};

  00000	55		 push	 ebp
  00001	8b ec		 mov	 ebp, esp
  00003	51		 push	 ecx
  00004	89 4d fc	 mov	 DWORD PTR _this$[ebp], ecx
  00007	8b 45 fc	 mov	 eax, DWORD PTR _this$[ebp]
  0000a	83 c0 28	 add	 eax, 40			; 00000028H
  0000d	8b 4d 08	 mov	 ecx, DWORD PTR ___$ReturnUdt$[ebp]
  00010	8b 10		 mov	 edx, DWORD PTR [eax]
  00012	89 11		 mov	 DWORD PTR [ecx], edx
  00014	8b 50 04	 mov	 edx, DWORD PTR [eax+4]
  00017	89 51 04	 mov	 DWORD PTR [ecx+4], edx
  0001a	8b 50 08	 mov	 edx, DWORD PTR [eax+8]
  0001d	89 51 08	 mov	 DWORD PTR [ecx+8], edx
  00020	8b 40 0c	 mov	 eax, DWORD PTR [eax+12]
  00023	89 41 0c	 mov	 DWORD PTR [ecx+12], eax
  00026	8b 45 08	 mov	 eax, DWORD PTR ___$ReturnUdt$[ebp]
  00029	8b e5		 mov	 esp, ebp
  0002b	5d		 pop	 ebp
  0002c	c2 04 00	 ret	 4
?getPaneRect@PaneBase@ETSLayoutMgr@@QAE?AVCRect@@XZ ENDP ; ETSLayoutMgr::PaneBase::getPaneRect
_TEXT	ENDS
PUBLIC	?Height@CRect@@QBEHXZ				; CRect::Height
EXTRN	?getMinConstrainVert@Pane@ETSLayoutMgr@@UAEHXZ:NEAR ; ETSLayoutMgr::Pane::getMinConstrainVert
; Function compile flags: /Odt
; File d:\boxgit\playbox\playbox\dev\prj\playbox\src\layoutmgr\etslayoutex.cpp
_TEXT	SEGMENT
_this$ = -20						; size = 4
_rc$ = -16						; size = 16
?getMinConstrainVert@PaneSplitter@ETSLayoutMgr@@UAEHXZ PROC NEAR ; ETSLayoutMgr::PaneSplitter::getMinConstrainVert
; _this$ = ecx

; 74   : {

  00200	55		 push	 ebp
  00201	8b ec		 mov	 ebp, esp
  00203	83 ec 14	 sub	 esp, 20			; 00000014H
  00206	89 4d ec	 mov	 DWORD PTR _this$[ebp], ecx

; 75   : 	CRect rc = this->getPaneRect();

  00209	8d 45 f0	 lea	 eax, DWORD PTR _rc$[ebp]
  0020c	50		 push	 eax
  0020d	8b 4d ec	 mov	 ecx, DWORD PTR _this$[ebp]
  00210	e8 00 00 00 00	 call	 ?getPaneRect@PaneBase@ETSLayoutMgr@@QAE?AVCRect@@XZ ; ETSLayoutMgr::PaneBase::getPaneRect

; 76   : 
; 77   : 	if(m_Orientation == HORIZONTAL && rc.Height() <= 0)

  00215	8b 4d ec	 mov	 ecx, DWORD PTR _this$[ebp]
  00218	83 79 60 00	 cmp	 DWORD PTR [ecx+96], 0
  0021c	75 10		 jne	 SHORT $L200834
  0021e	8d 4d f0	 lea	 ecx, DWORD PTR _rc$[ebp]
  00221	e8 00 00 00 00	 call	 ?Height@CRect@@QBEHXZ	; CRect::Height
  00226	85 c0		 test	 eax, eax
  00228	7f 04		 jg	 SHORT $L200834

; 78   : 	{
; 79   : 		return 0;

  0022a	33 c0		 xor	 eax, eax
  0022c	eb 08		 jmp	 SHORT $L200831
$L200834:

; 80   : 	}
; 81   : 	else
; 82   : 		return Pane::getMinConstrainVert();

  0022e	8b 4d ec	 mov	 ecx, DWORD PTR _this$[ebp]
  00231	e8 00 00 00 00	 call	 ?getMinConstrainVert@Pane@ETSLayoutMgr@@UAEHXZ ; ETSLayoutMgr::Pane::getMinConstrainVert
$L200831:

; 83   : }

  00236	8b e5		 mov	 esp, ebp
  00238	5d		 pop	 ebp
  00239	c3		 ret	 0
?getMinConstrainVert@PaneSplitter@ETSLayoutMgr@@UAEHXZ ENDP ; ETSLayoutMgr::PaneSplitter::getMinConstrainVert
_TEXT	ENDS
PUBLIC	??A?$CArray@VCPaneBase@ETSLayoutMgr@@V12@@@QAEAAVCPaneBase@ETSLayoutMgr@@H@Z ; CArray<ETSLayoutMgr::CPaneBase,ETSLayoutMgr::CPaneBase>::operator[]
PUBLIC	?IsClosed@PaneSplitter@ETSLayoutMgr@@QAEHXZ	; ETSLayoutMgr::PaneSplitter::IsClosed
PUBLIC	?modeResize@PaneBase@ETSLayoutMgr@@QAEKXZ	; ETSLayoutMgr::PaneBase::modeResize
EXTRN	?resizeTo@Pane@ETSLayoutMgr@@UAE_NAAVCRect@@_N1@Z:NEAR ; ETSLayoutMgr::Pane::resizeTo
EXTRN	??0CPaneBase@ETSLayoutMgr@@QAE@ABV01@@Z:NEAR	; ETSLayoutMgr::CPaneBase::CPaneBase
EXTRN	??1CPaneBase@ETSLayoutMgr@@QAE@XZ:NEAR		; ETSLayoutMgr::CPaneBase::~CPaneBase
EXTRN	??CCPaneBase@ETSLayoutMgr@@QBEPAVPaneBase@1@XZ:NEAR ; ETSLayoutMgr::CPaneBase::operator->
xdata$x	SEGMENT
$T203181 DD	0ffffffffH
	DD	FLAT:$L203175
	DD	00H
	DD	FLAT:$L203176
	DD	01H
	DD	FLAT:$L203177
$T203179 DD	019930520H
	DD	03H
	DD	FLAT:$T203181
	DD	2 DUP(00H)
	DD	2 DUP(00H)
; Function compile flags: /Odt
xdata$x	ENDS
_TEXT	SEGMENT
tv212 = -124						; size = 4
tv197 = -120						; size = 4
tv173 = -116						; size = 4
tv158 = -112						; size = 4
_this$ = -108						; size = 4
$T203174 = -101						; size = 1
$T203173 = -100						; size = 16
$T203172 = -84						; size = 16
$T203171 = -68						; size = 16
$T203170 = -52						; size = 16
_pItem3$ = -36						; size = 4
_pItem1$ = -32						; size = 4
_modeSize2$ = -28					; size = 4
_ret$ = -21						; size = 1
_pItem2$ = -20						; size = 4
_modeSize1$ = -16					; size = 4
__$EHRec$ = -12						; size = 12
_rcNewArea$ = 8						; size = 4
_bRedraw$ = 12						; size = 1
_bReSizeAlways$ = 16					; size = 1
?resizeTo@PaneSplitter@ETSLayoutMgr@@UAE_NAAVCRect@@_N1@Z PROC NEAR ; ETSLayoutMgr::PaneSplitter::resizeTo
; _this$ = ecx

; 87   : {

  00240	55		 push	 ebp
  00241	8b ec		 mov	 ebp, esp
  00243	6a ff		 push	 -1
  00245	68 00 00 00 00	 push	 __ehhandler$?resizeTo@PaneSplitter@ETSLayoutMgr@@UAE_NAAVCRect@@_N1@Z
  0024a	64 a1 00 00 00
	00		 mov	 eax, DWORD PTR fs:__except_list
  00250	50		 push	 eax
  00251	64 89 25 00 00
	00 00		 mov	 DWORD PTR fs:__except_list, esp
  00258	83 ec 70	 sub	 esp, 112		; 00000070H
  0025b	56		 push	 esi
  0025c	89 4d 94	 mov	 DWORD PTR _this$[ebp], ecx

; 88   : 	bool ret;
; 89   : 
; 90   : 	int modeSize1 , modeSize2 ;
; 91   : 	modeSize1 = modeSize2 = -1;

  0025f	c7 45 e4 ff ff
	ff ff		 mov	 DWORD PTR _modeSize2$[ebp], -1
  00266	8b 45 e4	 mov	 eax, DWORD PTR _modeSize2$[ebp]
  00269	89 45 f0	 mov	 DWORD PTR _modeSize1$[ebp], eax

; 92   : 	if(rcNewArea.left > rcNewArea.right)

  0026c	8b 4d 08	 mov	 ecx, DWORD PTR _rcNewArea$[ebp]
  0026f	8b 55 08	 mov	 edx, DWORD PTR _rcNewArea$[ebp]
  00272	8b 01		 mov	 eax, DWORD PTR [ecx]
  00274	3b 42 08	 cmp	 eax, DWORD PTR [edx+8]
  00277	7e 07		 jle	 SHORT $L200845

; 93   : 		return true;

  00279	b0 01		 mov	 al, 1
  0027b	e9 a6 02 00 00	 jmp	 $L200841
$L200845:

; 94   : 
; 95   : 	if( (rcNewArea.Width() < m_rcRect.Width()	|| rcNewArea.Height() < m_rcRect.Height() || m_nDeflate == -1)
; 96   : 		&& !this->IsClosed()
; 97   : 		)

  00280	8b 4d 08	 mov	 ecx, DWORD PTR _rcNewArea$[ebp]
  00283	e8 00 00 00 00	 call	 ?Width@CRect@@QBEHXZ	; CRect::Width
  00288	8b f0		 mov	 esi, eax
  0028a	8b 4d 94	 mov	 ecx, DWORD PTR _this$[ebp]
  0028d	83 c1 28	 add	 ecx, 40			; 00000028H
  00290	e8 00 00 00 00	 call	 ?Width@CRect@@QBEHXZ	; CRect::Width
  00295	3b f0		 cmp	 esi, eax
  00297	7c 25		 jl	 SHORT $L200847
  00299	8b 4d 08	 mov	 ecx, DWORD PTR _rcNewArea$[ebp]
  0029c	e8 00 00 00 00	 call	 ?Height@CRect@@QBEHXZ	; CRect::Height
  002a1	8b f0		 mov	 esi, eax
  002a3	8b 4d 94	 mov	 ecx, DWORD PTR _this$[ebp]
  002a6	83 c1 28	 add	 ecx, 40			; 00000028H
  002a9	e8 00 00 00 00	 call	 ?Height@CRect@@QBEHXZ	; CRect::Height
  002ae	3b f0		 cmp	 esi, eax
  002b0	7c 0c		 jl	 SHORT $L200847
  002b2	8b 4d 94	 mov	 ecx, DWORD PTR _this$[ebp]
  002b5	83 b9 90 00 00
	00 ff		 cmp	 DWORD PTR [ecx+144], -1
  002bc	75 1b		 jne	 SHORT $L200846
$L200847:
  002be	8b 4d 94	 mov	 ecx, DWORD PTR _this$[ebp]
  002c1	e8 00 00 00 00	 call	 ?IsClosed@PaneSplitter@ETSLayoutMgr@@QAEHXZ ; ETSLayoutMgr::PaneSplitter::IsClosed
  002c6	85 c0		 test	 eax, eax
  002c8	75 0f		 jne	 SHORT $L200846

; 98   : 		m_nDeflate = true;

  002ca	8b 55 94	 mov	 edx, DWORD PTR _this$[ebp]
  002cd	c7 82 90 00 00
	00 01 00 00 00	 mov	 DWORD PTR [edx+144], 1

; 99   : 	else

  002d7	eb 0d		 jmp	 SHORT $L200848
$L200846:

; 100  : 		m_nDeflate = false;

  002d9	8b 45 94	 mov	 eax, DWORD PTR _this$[ebp]
  002dc	c7 80 90 00 00
	00 00 00 00 00	 mov	 DWORD PTR [eax+144], 0
$L200848:

; 101  : 
; 102  : 	CPaneBase pItem3 = this->m_paneItems[0];

  002e6	6a 00		 push	 0
  002e8	8b 4d 94	 mov	 ecx, DWORD PTR _this$[ebp]
  002eb	83 c1 64	 add	 ecx, 100		; 00000064H
  002ee	e8 00 00 00 00	 call	 ??A?$CArray@VCPaneBase@ETSLayoutMgr@@V12@@@QAEAAVCPaneBase@ETSLayoutMgr@@H@Z ; CArray<ETSLayoutMgr::CPaneBase,ETSLayoutMgr::CPaneBase>::operator[]
  002f3	50		 push	 eax
  002f4	8d 4d dc	 lea	 ecx, DWORD PTR _pItem3$[ebp]
  002f7	e8 00 00 00 00	 call	 ??0CPaneBase@ETSLayoutMgr@@QAE@ABV01@@Z ; ETSLayoutMgr::CPaneBase::CPaneBase
  002fc	c7 45 fc 00 00
	00 00		 mov	 DWORD PTR __$EHRec$[ebp+8], 0

; 103  : 	ret = Pane::resizeTo(rcNewArea, bRedraw, bReSizeAlways);

  00303	8a 4d 10	 mov	 cl, BYTE PTR _bReSizeAlways$[ebp]
  00306	51		 push	 ecx
  00307	8a 55 0c	 mov	 dl, BYTE PTR _bRedraw$[ebp]
  0030a	52		 push	 edx
  0030b	8b 45 08	 mov	 eax, DWORD PTR _rcNewArea$[ebp]
  0030e	50		 push	 eax
  0030f	8b 4d 94	 mov	 ecx, DWORD PTR _this$[ebp]
  00312	e8 00 00 00 00	 call	 ?resizeTo@Pane@ETSLayoutMgr@@UAE_NAAVCRect@@_N1@Z ; ETSLayoutMgr::Pane::resizeTo
  00317	88 45 eb	 mov	 BYTE PTR _ret$[ebp], al

; 104  : //	this->m_pSpl->ShowWindow(SW_SHOW);
; 105  : 
; 106  : 	CPaneBase pItem1 = this->m_paneItems[0];

  0031a	6a 00		 push	 0
  0031c	8b 4d 94	 mov	 ecx, DWORD PTR _this$[ebp]
  0031f	83 c1 64	 add	 ecx, 100		; 00000064H
  00322	e8 00 00 00 00	 call	 ??A?$CArray@VCPaneBase@ETSLayoutMgr@@V12@@@QAEAAVCPaneBase@ETSLayoutMgr@@H@Z ; CArray<ETSLayoutMgr::CPaneBase,ETSLayoutMgr::CPaneBase>::operator[]
  00327	50		 push	 eax
  00328	8d 4d e0	 lea	 ecx, DWORD PTR _pItem1$[ebp]
  0032b	e8 00 00 00 00	 call	 ??0CPaneBase@ETSLayoutMgr@@QAE@ABV01@@Z ; ETSLayoutMgr::CPaneBase::CPaneBase
  00330	c6 45 fc 01	 mov	 BYTE PTR __$EHRec$[ebp+8], 1

; 107  : 	CPaneBase pItem2 = this->m_paneItems[2];

  00334	6a 02		 push	 2
  00336	8b 4d 94	 mov	 ecx, DWORD PTR _this$[ebp]
  00339	83 c1 64	 add	 ecx, 100		; 00000064H
  0033c	e8 00 00 00 00	 call	 ??A?$CArray@VCPaneBase@ETSLayoutMgr@@V12@@@QAEAAVCPaneBase@ETSLayoutMgr@@H@Z ; CArray<ETSLayoutMgr::CPaneBase,ETSLayoutMgr::CPaneBase>::operator[]
  00341	50		 push	 eax
  00342	8d 4d ec	 lea	 ecx, DWORD PTR _pItem2$[ebp]
  00345	e8 00 00 00 00	 call	 ??0CPaneBase@ETSLayoutMgr@@QAE@ABV01@@Z ; ETSLayoutMgr::CPaneBase::CPaneBase
  0034a	c6 45 fc 02	 mov	 BYTE PTR __$EHRec$[ebp+8], 2

; 108  : 	if( m_nDeflate &&
; 109  : 		(pItem1->getPaneRect().Width() == pItem1->getMinConstrainHorz() 
; 110  : 		|| pItem1->getPaneRect().Height() == pItem1->getMinConstrainVert())
; 111  : 		)

  0034e	8b 4d 94	 mov	 ecx, DWORD PTR _this$[ebp]
  00351	83 b9 90 00 00
	00 00		 cmp	 DWORD PTR [ecx+144], 0
  00358	0f 84 8d 00 00
	00		 je	 $L200854
  0035e	8d 4d e0	 lea	 ecx, DWORD PTR _pItem1$[ebp]
  00361	e8 00 00 00 00	 call	 ??CCPaneBase@ETSLayoutMgr@@QBEPAVPaneBase@1@XZ ; ETSLayoutMgr::CPaneBase::operator->
  00366	89 45 90	 mov	 DWORD PTR tv158[ebp], eax
  00369	8b 55 90	 mov	 edx, DWORD PTR tv158[ebp]
  0036c	8b 02		 mov	 eax, DWORD PTR [edx]
  0036e	8b 4d 90	 mov	 ecx, DWORD PTR tv158[ebp]
  00371	ff 50 08	 call	 DWORD PTR [eax+8]
  00374	8b f0		 mov	 esi, eax
  00376	8d 4d cc	 lea	 ecx, DWORD PTR $T203170[ebp]
  00379	51		 push	 ecx
  0037a	8d 4d e0	 lea	 ecx, DWORD PTR _pItem1$[ebp]
  0037d	e8 00 00 00 00	 call	 ??CCPaneBase@ETSLayoutMgr@@QBEPAVPaneBase@1@XZ ; ETSLayoutMgr::CPaneBase::operator->
  00382	8b c8		 mov	 ecx, eax
  00384	e8 00 00 00 00	 call	 ?getPaneRect@PaneBase@ETSLayoutMgr@@QAE?AVCRect@@XZ ; ETSLayoutMgr::PaneBase::getPaneRect
  00389	8b c8		 mov	 ecx, eax
  0038b	e8 00 00 00 00	 call	 ?Width@CRect@@QBEHXZ	; CRect::Width
  00390	3b c6		 cmp	 eax, esi
  00392	74 36		 je	 SHORT $L200855
  00394	8d 4d e0	 lea	 ecx, DWORD PTR _pItem1$[ebp]
  00397	e8 00 00 00 00	 call	 ??CCPaneBase@ETSLayoutMgr@@QBEPAVPaneBase@1@XZ ; ETSLayoutMgr::CPaneBase::operator->
  0039c	89 45 8c	 mov	 DWORD PTR tv173[ebp], eax
  0039f	8b 55 8c	 mov	 edx, DWORD PTR tv173[ebp]
  003a2	8b 02		 mov	 eax, DWORD PTR [edx]
  003a4	8b 4d 8c	 mov	 ecx, DWORD PTR tv173[ebp]
  003a7	ff 50 10	 call	 DWORD PTR [eax+16]
  003aa	8b f0		 mov	 esi, eax
  003ac	8d 4d bc	 lea	 ecx, DWORD PTR $T203171[ebp]
  003af	51		 push	 ecx
  003b0	8d 4d e0	 lea	 ecx, DWORD PTR _pItem1$[ebp]
  003b3	e8 00 00 00 00	 call	 ??CCPaneBase@ETSLayoutMgr@@QBEPAVPaneBase@1@XZ ; ETSLayoutMgr::CPaneBase::operator->
  003b8	8b c8		 mov	 ecx, eax
  003ba	e8 00 00 00 00	 call	 ?getPaneRect@PaneBase@ETSLayoutMgr@@QAE?AVCRect@@XZ ; ETSLayoutMgr::PaneBase::getPaneRect
  003bf	8b c8		 mov	 ecx, eax
  003c1	e8 00 00 00 00	 call	 ?Height@CRect@@QBEHXZ	; CRect::Height
  003c6	3b c6		 cmp	 eax, esi
  003c8	75 21		 jne	 SHORT $L200854
$L200855:

; 112  : 	{
; 113  : 		modeSize2 = pItem2->modeResize();

  003ca	8d 4d ec	 lea	 ecx, DWORD PTR _pItem2$[ebp]
  003cd	e8 00 00 00 00	 call	 ??CCPaneBase@ETSLayoutMgr@@QBEPAVPaneBase@1@XZ ; ETSLayoutMgr::CPaneBase::operator->
  003d2	8b c8		 mov	 ecx, eax
  003d4	e8 00 00 00 00	 call	 ?modeResize@PaneBase@ETSLayoutMgr@@QAEKXZ ; ETSLayoutMgr::PaneBase::modeResize
  003d9	89 45 e4	 mov	 DWORD PTR _modeSize2$[ebp], eax

; 114  : 		pItem2->m_modeResize = GREEDY;

  003dc	8d 4d ec	 lea	 ecx, DWORD PTR _pItem2$[ebp]
  003df	e8 00 00 00 00	 call	 ??CCPaneBase@ETSLayoutMgr@@QBEPAVPaneBase@1@XZ ; ETSLayoutMgr::CPaneBase::operator->
  003e4	c7 40 18 00 00
	00 00		 mov	 DWORD PTR [eax+24], 0
$L200854:

; 115  : 
; 116  : 	}
; 117  : 	if( m_nDeflate &&
; 118  : 		(pItem2->getPaneRect().Width() == pItem2->getMinConstrainHorz() 
; 119  : 		|| pItem2->getPaneRect().Height() == pItem2->getMinConstrainVert())
; 120  : 		)

  003eb	8b 55 94	 mov	 edx, DWORD PTR _this$[ebp]
  003ee	83 ba 90 00 00
	00 00		 cmp	 DWORD PTR [edx+144], 0
  003f5	0f 84 8d 00 00
	00		 je	 $L200858
  003fb	8d 4d ec	 lea	 ecx, DWORD PTR _pItem2$[ebp]
  003fe	e8 00 00 00 00	 call	 ??CCPaneBase@ETSLayoutMgr@@QBEPAVPaneBase@1@XZ ; ETSLayoutMgr::CPaneBase::operator->
  00403	89 45 88	 mov	 DWORD PTR tv197[ebp], eax
  00406	8b 45 88	 mov	 eax, DWORD PTR tv197[ebp]
  00409	8b 10		 mov	 edx, DWORD PTR [eax]
  0040b	8b 4d 88	 mov	 ecx, DWORD PTR tv197[ebp]
  0040e	ff 52 08	 call	 DWORD PTR [edx+8]
  00411	8b f0		 mov	 esi, eax
  00413	8d 45 ac	 lea	 eax, DWORD PTR $T203172[ebp]
  00416	50		 push	 eax
  00417	8d 4d ec	 lea	 ecx, DWORD PTR _pItem2$[ebp]
  0041a	e8 00 00 00 00	 call	 ??CCPaneBase@ETSLayoutMgr@@QBEPAVPaneBase@1@XZ ; ETSLayoutMgr::CPaneBase::operator->
  0041f	8b c8		 mov	 ecx, eax
  00421	e8 00 00 00 00	 call	 ?getPaneRect@PaneBase@ETSLayoutMgr@@QAE?AVCRect@@XZ ; ETSLayoutMgr::PaneBase::getPaneRect
  00426	8b c8		 mov	 ecx, eax
  00428	e8 00 00 00 00	 call	 ?Width@CRect@@QBEHXZ	; CRect::Width
  0042d	3b c6		 cmp	 eax, esi
  0042f	74 36		 je	 SHORT $L200859
  00431	8d 4d ec	 lea	 ecx, DWORD PTR _pItem2$[ebp]
  00434	e8 00 00 00 00	 call	 ??CCPaneBase@ETSLayoutMgr@@QBEPAVPaneBase@1@XZ ; ETSLayoutMgr::CPaneBase::operator->
  00439	89 45 84	 mov	 DWORD PTR tv212[ebp], eax
  0043c	8b 4d 84	 mov	 ecx, DWORD PTR tv212[ebp]
  0043f	8b 11		 mov	 edx, DWORD PTR [ecx]
  00441	8b 4d 84	 mov	 ecx, DWORD PTR tv212[ebp]
  00444	ff 52 10	 call	 DWORD PTR [edx+16]
  00447	8b f0		 mov	 esi, eax
  00449	8d 45 9c	 lea	 eax, DWORD PTR $T203173[ebp]
  0044c	50		 push	 eax
  0044d	8d 4d ec	 lea	 ecx, DWORD PTR _pItem2$[ebp]
  00450	e8 00 00 00 00	 call	 ??CCPaneBase@ETSLayoutMgr@@QBEPAVPaneBase@1@XZ ; ETSLayoutMgr::CPaneBase::operator->
  00455	8b c8		 mov	 ecx, eax
  00457	e8 00 00 00 00	 call	 ?getPaneRect@PaneBase@ETSLayoutMgr@@QAE?AVCRect@@XZ ; ETSLayoutMgr::PaneBase::getPaneRect
  0045c	8b c8		 mov	 ecx, eax
  0045e	e8 00 00 00 00	 call	 ?Height@CRect@@QBEHXZ	; CRect::Height
  00463	3b c6		 cmp	 eax, esi
  00465	75 21		 jne	 SHORT $L200858
$L200859:

; 121  : 	{
; 122  : 		modeSize1 = pItem1->modeResize();

  00467	8d 4d e0	 lea	 ecx, DWORD PTR _pItem1$[ebp]
  0046a	e8 00 00 00 00	 call	 ??CCPaneBase@ETSLayoutMgr@@QBEPAVPaneBase@1@XZ ; ETSLayoutMgr::CPaneBase::operator->
  0046f	8b c8		 mov	 ecx, eax
  00471	e8 00 00 00 00	 call	 ?modeResize@PaneBase@ETSLayoutMgr@@QAEKXZ ; ETSLayoutMgr::PaneBase::modeResize
  00476	89 45 f0	 mov	 DWORD PTR _modeSize1$[ebp], eax

; 123  : 		pItem1->m_modeResize = GREEDY;

  00479	8d 4d e0	 lea	 ecx, DWORD PTR _pItem1$[ebp]
  0047c	e8 00 00 00 00	 call	 ??CCPaneBase@ETSLayoutMgr@@QBEPAVPaneBase@1@XZ ; ETSLayoutMgr::CPaneBase::operator->
  00481	c7 40 18 00 00
	00 00		 mov	 DWORD PTR [eax+24], 0
$L200858:

; 124  : 	}
; 125  : 
; 126  : 
; 127  : 	ret = Pane::resizeTo(rcNewArea, bRedraw, bReSizeAlways);

  00488	8a 4d 10	 mov	 cl, BYTE PTR _bReSizeAlways$[ebp]
  0048b	51		 push	 ecx
  0048c	8a 55 0c	 mov	 dl, BYTE PTR _bRedraw$[ebp]
  0048f	52		 push	 edx
  00490	8b 45 08	 mov	 eax, DWORD PTR _rcNewArea$[ebp]
  00493	50		 push	 eax
  00494	8b 4d 94	 mov	 ecx, DWORD PTR _this$[ebp]
  00497	e8 00 00 00 00	 call	 ?resizeTo@Pane@ETSLayoutMgr@@UAE_NAAVCRect@@_N1@Z ; ETSLayoutMgr::Pane::resizeTo
  0049c	88 45 eb	 mov	 BYTE PTR _ret$[ebp], al

; 128  : 	m_rcRect = rcNewArea;

  0049f	8b 4d 08	 mov	 ecx, DWORD PTR _rcNewArea$[ebp]
  004a2	8b 55 94	 mov	 edx, DWORD PTR _this$[ebp]
  004a5	83 c2 28	 add	 edx, 40			; 00000028H
  004a8	8b 01		 mov	 eax, DWORD PTR [ecx]
  004aa	89 02		 mov	 DWORD PTR [edx], eax
  004ac	8b 41 04	 mov	 eax, DWORD PTR [ecx+4]
  004af	89 42 04	 mov	 DWORD PTR [edx+4], eax
  004b2	8b 41 08	 mov	 eax, DWORD PTR [ecx+8]
  004b5	89 42 08	 mov	 DWORD PTR [edx+8], eax
  004b8	8b 49 0c	 mov	 ecx, DWORD PTR [ecx+12]
  004bb	89 4a 0c	 mov	 DWORD PTR [edx+12], ecx

; 129  : 	m_pSpl->ShowWindow(SW_SHOW);

  004be	6a 05		 push	 5
  004c0	8b 55 94	 mov	 edx, DWORD PTR _this$[ebp]
  004c3	8b 8a 94 00 00
	00		 mov	 ecx, DWORD PTR [edx+148]
  004c9	e8 00 00 00 00	 call	 ?ShowWindow@CWnd@@QAEHH@Z ; CWnd::ShowWindow

; 130  : 
; 131  : 	if(modeSize1 != -1)

  004ce	83 7d f0 ff	 cmp	 DWORD PTR _modeSize1$[ebp], -1
  004d2	74 0e		 je	 SHORT $L200860

; 132  : 		pItem1->m_modeResize = modeSize1;

  004d4	8d 4d e0	 lea	 ecx, DWORD PTR _pItem1$[ebp]
  004d7	e8 00 00 00 00	 call	 ??CCPaneBase@ETSLayoutMgr@@QBEPAVPaneBase@1@XZ ; ETSLayoutMgr::CPaneBase::operator->
  004dc	8b 4d f0	 mov	 ecx, DWORD PTR _modeSize1$[ebp]
  004df	89 48 18	 mov	 DWORD PTR [eax+24], ecx
$L200860:

; 133  : 	if(modeSize2 != -1)

  004e2	83 7d e4 ff	 cmp	 DWORD PTR _modeSize2$[ebp], -1
  004e6	74 0e		 je	 SHORT $L200861

; 134  : 		pItem2->m_modeResize = modeSize2;

  004e8	8d 4d ec	 lea	 ecx, DWORD PTR _pItem2$[ebp]
  004eb	e8 00 00 00 00	 call	 ??CCPaneBase@ETSLayoutMgr@@QBEPAVPaneBase@1@XZ ; ETSLayoutMgr::CPaneBase::operator->
  004f0	8b 55 e4	 mov	 edx, DWORD PTR _modeSize2$[ebp]
  004f3	89 50 18	 mov	 DWORD PTR [eax+24], edx
$L200861:

; 135  : 
; 136  : 	return ret;

  004f6	8a 45 eb	 mov	 al, BYTE PTR _ret$[ebp]
  004f9	88 45 9b	 mov	 BYTE PTR $T203174[ebp], al
  004fc	c6 45 fc 01	 mov	 BYTE PTR __$EHRec$[ebp+8], 1
  00500	8d 4d ec	 lea	 ecx, DWORD PTR _pItem2$[ebp]
  00503	e8 00 00 00 00	 call	 ??1CPaneBase@ETSLayoutMgr@@QAE@XZ ; ETSLayoutMgr::CPaneBase::~CPaneBase
  00508	c6 45 fc 00	 mov	 BYTE PTR __$EHRec$[ebp+8], 0
  0050c	8d 4d e0	 lea	 ecx, DWORD PTR _pItem1$[ebp]
  0050f	e8 00 00 00 00	 call	 ??1CPaneBase@ETSLayoutMgr@@QAE@XZ ; ETSLayoutMgr::CPaneBase::~CPaneBase
  00514	c7 45 fc ff ff
	ff ff		 mov	 DWORD PTR __$EHRec$[ebp+8], -1
  0051b	8d 4d dc	 lea	 ecx, DWORD PTR _pItem3$[ebp]
  0051e	e8 00 00 00 00	 call	 ??1CPaneBase@ETSLayoutMgr@@QAE@XZ ; ETSLayoutMgr::CPaneBase::~CPaneBase
  00523	8a 45 9b	 mov	 al, BYTE PTR $T203174[ebp]
$L200841:

; 137  : }

  00526	8b 4d f4	 mov	 ecx, DWORD PTR __$EHRec$[ebp]
  00529	64 89 0d 00 00
	00 00		 mov	 DWORD PTR fs:__except_list, ecx
  00530	5e		 pop	 esi
  00531	8b e5		 mov	 esp, ebp
  00533	5d		 pop	 ebp
  00534	c2 0c 00	 ret	 12			; 0000000cH
_TEXT	ENDS
text$x	SEGMENT
$L203175:
  00015	8d 4d dc	 lea	 ecx, DWORD PTR _pItem3$[ebp]
  00018	e9 00 00 00 00	 jmp	 ??1CPaneBase@ETSLayoutMgr@@QAE@XZ ; ETSLayoutMgr::CPaneBase::~CPaneBase
$L203176:
  0001d	8d 4d e0	 lea	 ecx, DWORD PTR _pItem1$[ebp]
  00020	e9 00 00 00 00	 jmp	 ??1CPaneBase@ETSLayoutMgr@@QAE@XZ ; ETSLayoutMgr::CPaneBase::~CPaneBase
$L203177:
  00025	8d 4d ec	 lea	 ecx, DWORD PTR _pItem2$[ebp]
  00028	e9 00 00 00 00	 jmp	 ??1CPaneBase@ETSLayoutMgr@@QAE@XZ ; ETSLayoutMgr::CPaneBase::~CPaneBase
__ehhandler$?resizeTo@PaneSplitter@ETSLayoutMgr@@UAE_NAAVCRect@@_N1@Z:
  0002d	b8 00 00 00 00	 mov	 eax, OFFSET FLAT:$T203179
  00032	e9 00 00 00 00	 jmp	 ___CxxFrameHandler
text$x	ENDS
?resizeTo@PaneSplitter@ETSLayoutMgr@@UAE_NAAVCRect@@_N1@Z ENDP ; ETSLayoutMgr::PaneSplitter::resizeTo
; Function compile flags: /Odt
; File d:\boxgit\playbox\playbox\dev\prj\playbox\src\layoutmgr\etslayout.h
;	COMDAT ?modeResize@PaneBase@ETSLayoutMgr@@QAEKXZ
_TEXT	SEGMENT
_this$ = -4						; size = 4
?modeResize@PaneBase@ETSLayoutMgr@@QAEKXZ PROC NEAR	; ETSLayoutMgr::PaneBase::modeResize, COMDAT
; _this$ = ecx

; 294  : 		DWORD	modeResize() { return m_modeResize; };

  00000	55		 push	 ebp
  00001	8b ec		 mov	 ebp, esp
  00003	51		 push	 ecx
  00004	89 4d fc	 mov	 DWORD PTR _this$[ebp], ecx
  00007	8b 45 fc	 mov	 eax, DWORD PTR _this$[ebp]
  0000a	8b 40 18	 mov	 eax, DWORD PTR [eax+24]
  0000d	8b e5		 mov	 esp, ebp
  0000f	5d		 pop	 ebp
  00010	c3		 ret	 0
?modeResize@PaneBase@ETSLayoutMgr@@QAEKXZ ENDP		; ETSLayoutMgr::PaneBase::modeResize
_TEXT	ENDS
PUBLIC	?setOpenConstrain@PaneSplitter@ETSLayoutMgr@@QAEXXZ ; ETSLayoutMgr::PaneSplitter::setOpenConstrain
EXTRN	??0CPaneBase@ETSLayoutMgr@@QAE@XZ:NEAR		; ETSLayoutMgr::CPaneBase::CPaneBase
EXTRN	??4CPaneBase@ETSLayoutMgr@@QAEXABV01@@Z:NEAR	; ETSLayoutMgr::CPaneBase::operator=
xdata$x	SEGMENT
$T203189 DD	0ffffffffH
	DD	FLAT:$L203185
$T203187 DD	019930520H
	DD	01H
	DD	FLAT:$T203189
	DD	2 DUP(00H)
	DD	2 DUP(00H)
; Function compile flags: /Odt
; File d:\boxgit\playbox\playbox\dev\prj\playbox\src\layoutmgr\etslayoutex.cpp
xdata$x	ENDS
_TEXT	SEGMENT
_this$ = -36						; size = 4
_pItem$ = -32						; size = 4
_rc$ = -28						; size = 16
__$EHRec$ = -12						; size = 12
?setOpenConstrain@PaneSplitter@ETSLayoutMgr@@QAEXXZ PROC NEAR ; ETSLayoutMgr::PaneSplitter::setOpenConstrain
; _this$ = ecx

; 141  : {

  00540	55		 push	 ebp
  00541	8b ec		 mov	 ebp, esp
  00543	6a ff		 push	 -1
  00545	68 00 00 00 00	 push	 __ehhandler$?setOpenConstrain@PaneSplitter@ETSLayoutMgr@@QAEXXZ
  0054a	64 a1 00 00 00
	00		 mov	 eax, DWORD PTR fs:__except_list
  00550	50		 push	 eax
  00551	64 89 25 00 00
	00 00		 mov	 DWORD PTR fs:__except_list, esp
  00558	83 ec 18	 sub	 esp, 24			; 00000018H
  0055b	89 4d dc	 mov	 DWORD PTR _this$[ebp], ecx

; 142  : 	CPaneBase pItem;

  0055e	8d 4d e0	 lea	 ecx, DWORD PTR _pItem$[ebp]
  00561	e8 00 00 00 00	 call	 ??0CPaneBase@ETSLayoutMgr@@QAE@XZ ; ETSLayoutMgr::CPaneBase::CPaneBase
  00566	c7 45 fc 00 00
	00 00		 mov	 DWORD PTR __$EHRec$[ebp+8], 0

; 143  : 	if(this->m_nClosedOri == 0)

  0056d	8b 45 dc	 mov	 eax, DWORD PTR _this$[ebp]
  00570	83 b8 84 00 00
	00 00		 cmp	 DWORD PTR [eax+132], 0
  00577	75 18		 jne	 SHORT $L200867

; 144  : 		pItem = m_paneItems[0];

  00579	6a 00		 push	 0
  0057b	8b 4d dc	 mov	 ecx, DWORD PTR _this$[ebp]
  0057e	83 c1 64	 add	 ecx, 100		; 00000064H
  00581	e8 00 00 00 00	 call	 ??A?$CArray@VCPaneBase@ETSLayoutMgr@@V12@@@QAEAAVCPaneBase@ETSLayoutMgr@@H@Z ; CArray<ETSLayoutMgr::CPaneBase,ETSLayoutMgr::CPaneBase>::operator[]
  00586	50		 push	 eax
  00587	8d 4d e0	 lea	 ecx, DWORD PTR _pItem$[ebp]
  0058a	e8 00 00 00 00	 call	 ??4CPaneBase@ETSLayoutMgr@@QAEXABV01@@Z ; ETSLayoutMgr::CPaneBase::operator=

; 145  : 	else

  0058f	eb 16		 jmp	 SHORT $L200868
$L200867:

; 146  : 		pItem = m_paneItems[2];

  00591	6a 02		 push	 2
  00593	8b 4d dc	 mov	 ecx, DWORD PTR _this$[ebp]
  00596	83 c1 64	 add	 ecx, 100		; 00000064H
  00599	e8 00 00 00 00	 call	 ??A?$CArray@VCPaneBase@ETSLayoutMgr@@V12@@@QAEAAVCPaneBase@ETSLayoutMgr@@H@Z ; CArray<ETSLayoutMgr::CPaneBase,ETSLayoutMgr::CPaneBase>::operator[]
  0059e	50		 push	 eax
  0059f	8d 4d e0	 lea	 ecx, DWORD PTR _pItem$[ebp]
  005a2	e8 00 00 00 00	 call	 ??4CPaneBase@ETSLayoutMgr@@QAEXABV01@@Z ; ETSLayoutMgr::CPaneBase::operator=
$L200868:

; 147  : 	CRect rc = pItem->getPaneRect();

  005a7	8d 4d e4	 lea	 ecx, DWORD PTR _rc$[ebp]
  005aa	51		 push	 ecx
  005ab	8d 4d e0	 lea	 ecx, DWORD PTR _pItem$[ebp]
  005ae	e8 00 00 00 00	 call	 ??CCPaneBase@ETSLayoutMgr@@QBEPAVPaneBase@1@XZ ; ETSLayoutMgr::CPaneBase::operator->
  005b3	8b c8		 mov	 ecx, eax
  005b5	e8 00 00 00 00	 call	 ?getPaneRect@PaneBase@ETSLayoutMgr@@QAE?AVCRect@@XZ ; ETSLayoutMgr::PaneBase::getPaneRect

; 148  : 	
; 149  : 	if(this->m_Orientation == ETSLayoutMgr::HORIZONTAL)

  005ba	8b 55 dc	 mov	 edx, DWORD PTR _this$[ebp]
  005bd	83 7a 60 00	 cmp	 DWORD PTR [edx+96], 0
  005c1	75 13		 jne	 SHORT $L200871

; 150  : 	{
; 151  : 		this->m_nSplOpendPos = rc.Width();

  005c3	8d 4d e4	 lea	 ecx, DWORD PTR _rc$[ebp]
  005c6	e8 00 00 00 00	 call	 ?Width@CRect@@QBEHXZ	; CRect::Width
  005cb	8b 4d dc	 mov	 ecx, DWORD PTR _this$[ebp]
  005ce	89 81 8c 00 00
	00		 mov	 DWORD PTR [ecx+140], eax

; 152  : 		TRACE("fff%d\n", m_nSplOpendPos);
; 153  : 	}
; 154  : 	else

  005d4	eb 11		 jmp	 SHORT $L200872
$L200871:

; 155  : 	{
; 156  : 		this->m_nSplOpendPos = rc.Height();

  005d6	8d 4d e4	 lea	 ecx, DWORD PTR _rc$[ebp]
  005d9	e8 00 00 00 00	 call	 ?Height@CRect@@QBEHXZ	; CRect::Height
  005de	8b 55 dc	 mov	 edx, DWORD PTR _this$[ebp]
  005e1	89 82 8c 00 00
	00		 mov	 DWORD PTR [edx+140], eax
$L200872:

; 157  : 	}
; 158  : 
; 159  : 	//m_sizeSecondary = m_nSplOpendPos;
; 160  : }

  005e7	c7 45 fc ff ff
	ff ff		 mov	 DWORD PTR __$EHRec$[ebp+8], -1
  005ee	8d 4d e0	 lea	 ecx, DWORD PTR _pItem$[ebp]
  005f1	e8 00 00 00 00	 call	 ??1CPaneBase@ETSLayoutMgr@@QAE@XZ ; ETSLayoutMgr::CPaneBase::~CPaneBase
  005f6	8b 4d f4	 mov	 ecx, DWORD PTR __$EHRec$[ebp]
  005f9	64 89 0d 00 00
	00 00		 mov	 DWORD PTR fs:__except_list, ecx
  00600	8b e5		 mov	 esp, ebp
  00602	5d		 pop	 ebp
  00603	c3		 ret	 0
_TEXT	ENDS
text$x	SEGMENT
$L203185:
  00037	8d 4d e0	 lea	 ecx, DWORD PTR _pItem$[ebp]
  0003a	e9 00 00 00 00	 jmp	 ??1CPaneBase@ETSLayoutMgr@@QAE@XZ ; ETSLayoutMgr::CPaneBase::~CPaneBase
__ehhandler$?setOpenConstrain@PaneSplitter@ETSLayoutMgr@@QAEXXZ:
  0003f	b8 00 00 00 00	 mov	 eax, OFFSET FLAT:$T203187
  00044	e9 00 00 00 00	 jmp	 ___CxxFrameHandler
text$x	ENDS
?setOpenConstrain@PaneSplitter@ETSLayoutMgr@@QAEXXZ ENDP ; ETSLayoutMgr::PaneSplitter::setOpenConstrain
PUBLIC	?getOpenConstrain@PaneSplitter@ETSLayoutMgr@@QAEHH@Z ; ETSLayoutMgr::PaneSplitter::getOpenConstrain
xdata$x	SEGMENT
$T203196 DD	0ffffffffH
	DD	FLAT:$L203192
$T203194 DD	019930520H
	DD	01H
	DD	FLAT:$T203196
	DD	2 DUP(00H)
	DD	2 DUP(00H)
; Function compile flags: /Odt
xdata$x	ENDS
_TEXT	SEGMENT
_this$ = -48						; size = 4
$T203191 = -44						; size = 4
_maxConstrain$ = -40					; size = 4
_pItem$ = -36						; size = 4
_orgValue$ = -32					; size = 4
_rc$ = -28						; size = 16
__$EHRec$ = -12						; size = 12
_offset$ = 8						; size = 4
?getOpenConstrain@PaneSplitter@ETSLayoutMgr@@QAEHH@Z PROC NEAR ; ETSLayoutMgr::PaneSplitter::getOpenConstrain
; _this$ = ecx

; 163  : {

  00610	55		 push	 ebp
  00611	8b ec		 mov	 ebp, esp
  00613	6a ff		 push	 -1
  00615	68 00 00 00 00	 push	 __ehhandler$?getOpenConstrain@PaneSplitter@ETSLayoutMgr@@QAEHH@Z
  0061a	64 a1 00 00 00
	00		 mov	 eax, DWORD PTR fs:__except_list
  00620	50		 push	 eax
  00621	64 89 25 00 00
	00 00		 mov	 DWORD PTR fs:__except_list, esp
  00628	83 ec 24	 sub	 esp, 36			; 00000024H
  0062b	89 4d d0	 mov	 DWORD PTR _this$[ebp], ecx

; 164  : 	CPaneBase pItem;

  0062e	8d 4d dc	 lea	 ecx, DWORD PTR _pItem$[ebp]
  00631	e8 00 00 00 00	 call	 ??0CPaneBase@ETSLayoutMgr@@QAE@XZ ; ETSLayoutMgr::CPaneBase::CPaneBase
  00636	c7 45 fc 00 00
	00 00		 mov	 DWORD PTR __$EHRec$[ebp+8], 0

; 165  : 	int orgValue = 0;

  0063d	c7 45 e0 00 00
	00 00		 mov	 DWORD PTR _orgValue$[ebp], 0

; 166  : 	int maxConstrain = this->m_nSplOpendPos;

  00644	8b 45 d0	 mov	 eax, DWORD PTR _this$[ebp]
  00647	8b 88 8c 00 00
	00		 mov	 ecx, DWORD PTR [eax+140]
  0064d	89 4d d8	 mov	 DWORD PTR _maxConstrain$[ebp], ecx

; 167  : 
; 168  : 	if(offset < 0)

  00650	83 7d 08 00	 cmp	 DWORD PTR _offset$[ebp], 0
  00654	7d 18		 jge	 SHORT $L200880

; 169  : 		pItem = m_paneItems[2];

  00656	6a 02		 push	 2
  00658	8b 4d d0	 mov	 ecx, DWORD PTR _this$[ebp]
  0065b	83 c1 64	 add	 ecx, 100		; 00000064H
  0065e	e8 00 00 00 00	 call	 ??A?$CArray@VCPaneBase@ETSLayoutMgr@@V12@@@QAEAAVCPaneBase@ETSLayoutMgr@@H@Z ; CArray<ETSLayoutMgr::CPaneBase,ETSLayoutMgr::CPaneBase>::operator[]
  00663	50		 push	 eax
  00664	8d 4d dc	 lea	 ecx, DWORD PTR _pItem$[ebp]
  00667	e8 00 00 00 00	 call	 ??4CPaneBase@ETSLayoutMgr@@QAEXABV01@@Z ; ETSLayoutMgr::CPaneBase::operator=

; 170  : 	else

  0066c	eb 16		 jmp	 SHORT $L200881
$L200880:

; 171  : 		pItem = m_paneItems[0];

  0066e	6a 00		 push	 0
  00670	8b 4d d0	 mov	 ecx, DWORD PTR _this$[ebp]
  00673	83 c1 64	 add	 ecx, 100		; 00000064H
  00676	e8 00 00 00 00	 call	 ??A?$CArray@VCPaneBase@ETSLayoutMgr@@V12@@@QAEAAVCPaneBase@ETSLayoutMgr@@H@Z ; CArray<ETSLayoutMgr::CPaneBase,ETSLayoutMgr::CPaneBase>::operator[]
  0067b	50		 push	 eax
  0067c	8d 4d dc	 lea	 ecx, DWORD PTR _pItem$[ebp]
  0067f	e8 00 00 00 00	 call	 ??4CPaneBase@ETSLayoutMgr@@QAEXABV01@@Z ; ETSLayoutMgr::CPaneBase::operator=
$L200881:

; 172  : 
; 173  : 	CRect rc = pItem->getPaneRect();

  00684	8d 55 e4	 lea	 edx, DWORD PTR _rc$[ebp]
  00687	52		 push	 edx
  00688	8d 4d dc	 lea	 ecx, DWORD PTR _pItem$[ebp]
  0068b	e8 00 00 00 00	 call	 ??CCPaneBase@ETSLayoutMgr@@QBEPAVPaneBase@1@XZ ; ETSLayoutMgr::CPaneBase::operator->
  00690	8b c8		 mov	 ecx, eax
  00692	e8 00 00 00 00	 call	 ?getPaneRect@PaneBase@ETSLayoutMgr@@QAE?AVCRect@@XZ ; ETSLayoutMgr::PaneBase::getPaneRect

; 174  : 
; 175  : 	if(m_Orientation == ETSLayoutMgr::HORIZONTAL)

  00697	8b 45 d0	 mov	 eax, DWORD PTR _this$[ebp]
  0069a	83 78 60 00	 cmp	 DWORD PTR [eax+96], 0
  0069e	75 0d		 jne	 SHORT $L200884

; 176  : 	{
; 177  : 		orgValue = rc.Width();

  006a0	8d 4d e4	 lea	 ecx, DWORD PTR _rc$[ebp]
  006a3	e8 00 00 00 00	 call	 ?Width@CRect@@QBEHXZ	; CRect::Width
  006a8	89 45 e0	 mov	 DWORD PTR _orgValue$[ebp], eax

; 178  : 		//minConstrain = getCloseConstrainHorz();
; 179  : 	}
; 180  : 	else

  006ab	eb 0b		 jmp	 SHORT $L200885
$L200884:

; 181  : 	{
; 182  : 		orgValue = rc.Height();

  006ad	8d 4d e4	 lea	 ecx, DWORD PTR _rc$[ebp]
  006b0	e8 00 00 00 00	 call	 ?Height@CRect@@QBEHXZ	; CRect::Height
  006b5	89 45 e0	 mov	 DWORD PTR _orgValue$[ebp], eax
$L200885:

; 183  : 		//minConstrain = pItem->getMinConstrainVert();
; 184  : 	}
; 185  : 
; 186  : 	if(offset < 0)

  006b8	83 7d 08 00	 cmp	 DWORD PTR _offset$[ebp], 0
  006bc	7d 16		 jge	 SHORT $L200886

; 187  : 	{
; 188  : 		if(orgValue - offset > maxConstrain)

  006be	8b 4d e0	 mov	 ecx, DWORD PTR _orgValue$[ebp]
  006c1	2b 4d 08	 sub	 ecx, DWORD PTR _offset$[ebp]
  006c4	3b 4d d8	 cmp	 ecx, DWORD PTR _maxConstrain$[ebp]
  006c7	7e 09		 jle	 SHORT $L200887

; 189  : 			offset =  orgValue - maxConstrain;

  006c9	8b 55 e0	 mov	 edx, DWORD PTR _orgValue$[ebp]
  006cc	2b 55 d8	 sub	 edx, DWORD PTR _maxConstrain$[ebp]
  006cf	89 55 08	 mov	 DWORD PTR _offset$[ebp], edx
$L200887:

; 190  : 	}
; 191  : 	else

  006d2	eb 14		 jmp	 SHORT $L200888
$L200886:

; 192  : 	{
; 193  : 		if(orgValue + offset > maxConstrain)

  006d4	8b 45 e0	 mov	 eax, DWORD PTR _orgValue$[ebp]
  006d7	03 45 08	 add	 eax, DWORD PTR _offset$[ebp]
  006da	3b 45 d8	 cmp	 eax, DWORD PTR _maxConstrain$[ebp]
  006dd	7e 09		 jle	 SHORT $L200888

; 194  : 			offset = maxConstrain - orgValue;

  006df	8b 4d d8	 mov	 ecx, DWORD PTR _maxConstrain$[ebp]
  006e2	2b 4d e0	 sub	 ecx, DWORD PTR _orgValue$[ebp]
  006e5	89 4d 08	 mov	 DWORD PTR _offset$[ebp], ecx
$L200888:

; 195  : 	}
; 196  : 
; 197  : 	return offset;

  006e8	8b 55 08	 mov	 edx, DWORD PTR _offset$[ebp]
  006eb	89 55 d4	 mov	 DWORD PTR $T203191[ebp], edx
  006ee	c7 45 fc ff ff
	ff ff		 mov	 DWORD PTR __$EHRec$[ebp+8], -1
  006f5	8d 4d dc	 lea	 ecx, DWORD PTR _pItem$[ebp]
  006f8	e8 00 00 00 00	 call	 ??1CPaneBase@ETSLayoutMgr@@QAE@XZ ; ETSLayoutMgr::CPaneBase::~CPaneBase
  006fd	8b 45 d4	 mov	 eax, DWORD PTR $T203191[ebp]

; 198  : }

  00700	8b 4d f4	 mov	 ecx, DWORD PTR __$EHRec$[ebp]
  00703	64 89 0d 00 00
	00 00		 mov	 DWORD PTR fs:__except_list, ecx
  0070a	8b e5		 mov	 esp, ebp
  0070c	5d		 pop	 ebp
  0070d	c2 04 00	 ret	 4
_TEXT	ENDS
text$x	SEGMENT
$L203192:
  00049	8d 4d dc	 lea	 ecx, DWORD PTR _pItem$[ebp]
  0004c	e9 00 00 00 00	 jmp	 ??1CPaneBase@ETSLayoutMgr@@QAE@XZ ; ETSLayoutMgr::CPaneBase::~CPaneBase
__ehhandler$?getOpenConstrain@PaneSplitter@ETSLayoutMgr@@QAEHH@Z:
  00051	b8 00 00 00 00	 mov	 eax, OFFSET FLAT:$T203194
  00056	e9 00 00 00 00	 jmp	 ___CxxFrameHandler
text$x	ENDS
?getOpenConstrain@PaneSplitter@ETSLayoutMgr@@QAEHH@Z ENDP ; ETSLayoutMgr::PaneSplitter::getOpenConstrain
PUBLIC	?getCloseConstrain@PaneSplitter@ETSLayoutMgr@@QAEHH@Z ; ETSLayoutMgr::PaneSplitter::getCloseConstrain
xdata$x	SEGMENT
$T203203 DD	0ffffffffH
	DD	FLAT:$L203199
$T203201 DD	019930520H
	DD	01H
	DD	FLAT:$T203203
	DD	2 DUP(00H)
	DD	2 DUP(00H)
; Function compile flags: /Odt
xdata$x	ENDS
_TEXT	SEGMENT
_this$ = -48						; size = 4
$T203198 = -44						; size = 4
_minConstrain$ = -40					; size = 4
_pItem$ = -36						; size = 4
_orgValue$ = -32					; size = 4
_rc$ = -28						; size = 16
__$EHRec$ = -12						; size = 12
_offset$ = 8						; size = 4
?getCloseConstrain@PaneSplitter@ETSLayoutMgr@@QAEHH@Z PROC NEAR ; ETSLayoutMgr::PaneSplitter::getCloseConstrain
; _this$ = ecx

; 201  : {

  00710	55		 push	 ebp
  00711	8b ec		 mov	 ebp, esp
  00713	6a ff		 push	 -1
  00715	68 00 00 00 00	 push	 __ehhandler$?getCloseConstrain@PaneSplitter@ETSLayoutMgr@@QAEHH@Z
  0071a	64 a1 00 00 00
	00		 mov	 eax, DWORD PTR fs:__except_list
  00720	50		 push	 eax
  00721	64 89 25 00 00
	00 00		 mov	 DWORD PTR fs:__except_list, esp
  00728	83 ec 24	 sub	 esp, 36			; 00000024H
  0072b	89 4d d0	 mov	 DWORD PTR _this$[ebp], ecx

; 202  : 	CPaneBase pItem;

  0072e	8d 4d dc	 lea	 ecx, DWORD PTR _pItem$[ebp]
  00731	e8 00 00 00 00	 call	 ??0CPaneBase@ETSLayoutMgr@@QAE@XZ ; ETSLayoutMgr::CPaneBase::CPaneBase
  00736	c7 45 fc 00 00
	00 00		 mov	 DWORD PTR __$EHRec$[ebp+8], 0

; 203  : 	int orgValue = 0;

  0073d	c7 45 e0 00 00
	00 00		 mov	 DWORD PTR _orgValue$[ebp], 0

; 204  : 	int minConstrain = this->m_nSplClosedPos;

  00744	8b 45 d0	 mov	 eax, DWORD PTR _this$[ebp]
  00747	8b 88 88 00 00
	00		 mov	 ecx, DWORD PTR [eax+136]
  0074d	89 4d d8	 mov	 DWORD PTR _minConstrain$[ebp], ecx

; 205  : 
; 206  : 	if(offset < 0)

  00750	83 7d 08 00	 cmp	 DWORD PTR _offset$[ebp], 0
  00754	7d 18		 jge	 SHORT $L200898

; 207  : 		pItem = m_paneItems[0];

  00756	6a 00		 push	 0
  00758	8b 4d d0	 mov	 ecx, DWORD PTR _this$[ebp]
  0075b	83 c1 64	 add	 ecx, 100		; 00000064H
  0075e	e8 00 00 00 00	 call	 ??A?$CArray@VCPaneBase@ETSLayoutMgr@@V12@@@QAEAAVCPaneBase@ETSLayoutMgr@@H@Z ; CArray<ETSLayoutMgr::CPaneBase,ETSLayoutMgr::CPaneBase>::operator[]
  00763	50		 push	 eax
  00764	8d 4d dc	 lea	 ecx, DWORD PTR _pItem$[ebp]
  00767	e8 00 00 00 00	 call	 ??4CPaneBase@ETSLayoutMgr@@QAEXABV01@@Z ; ETSLayoutMgr::CPaneBase::operator=

; 208  : 	else

  0076c	eb 16		 jmp	 SHORT $L200899
$L200898:

; 209  : 		pItem = m_paneItems[2];

  0076e	6a 02		 push	 2
  00770	8b 4d d0	 mov	 ecx, DWORD PTR _this$[ebp]
  00773	83 c1 64	 add	 ecx, 100		; 00000064H
  00776	e8 00 00 00 00	 call	 ??A?$CArray@VCPaneBase@ETSLayoutMgr@@V12@@@QAEAAVCPaneBase@ETSLayoutMgr@@H@Z ; CArray<ETSLayoutMgr::CPaneBase,ETSLayoutMgr::CPaneBase>::operator[]
  0077b	50		 push	 eax
  0077c	8d 4d dc	 lea	 ecx, DWORD PTR _pItem$[ebp]
  0077f	e8 00 00 00 00	 call	 ??4CPaneBase@ETSLayoutMgr@@QAEXABV01@@Z ; ETSLayoutMgr::CPaneBase::operator=
$L200899:

; 210  : 
; 211  : 	CRect rc = pItem->getPaneRect();

  00784	8d 55 e4	 lea	 edx, DWORD PTR _rc$[ebp]
  00787	52		 push	 edx
  00788	8d 4d dc	 lea	 ecx, DWORD PTR _pItem$[ebp]
  0078b	e8 00 00 00 00	 call	 ??CCPaneBase@ETSLayoutMgr@@QBEPAVPaneBase@1@XZ ; ETSLayoutMgr::CPaneBase::operator->
  00790	8b c8		 mov	 ecx, eax
  00792	e8 00 00 00 00	 call	 ?getPaneRect@PaneBase@ETSLayoutMgr@@QAE?AVCRect@@XZ ; ETSLayoutMgr::PaneBase::getPaneRect

; 212  : 
; 213  : 	if(m_Orientation == ETSLayoutMgr::HORIZONTAL)

  00797	8b 45 d0	 mov	 eax, DWORD PTR _this$[ebp]
  0079a	83 78 60 00	 cmp	 DWORD PTR [eax+96], 0
  0079e	75 0d		 jne	 SHORT $L200902

; 214  : 	{
; 215  : 		orgValue = rc.Width();

  007a0	8d 4d e4	 lea	 ecx, DWORD PTR _rc$[ebp]
  007a3	e8 00 00 00 00	 call	 ?Width@CRect@@QBEHXZ	; CRect::Width
  007a8	89 45 e0	 mov	 DWORD PTR _orgValue$[ebp], eax

; 216  : 		//minConstrain = getCloseConstrainHorz();
; 217  : 	}
; 218  : 	else

  007ab	eb 0b		 jmp	 SHORT $L200903
$L200902:

; 219  : 	{
; 220  : 		orgValue = rc.Height();

  007ad	8d 4d e4	 lea	 ecx, DWORD PTR _rc$[ebp]
  007b0	e8 00 00 00 00	 call	 ?Height@CRect@@QBEHXZ	; CRect::Height
  007b5	89 45 e0	 mov	 DWORD PTR _orgValue$[ebp], eax
$L200903:

; 221  : 		//minConstrain = pItem->getMinConstrainVert();
; 222  : 	}
; 223  : 
; 224  : 	if(offset < 0)

  007b8	83 7d 08 00	 cmp	 DWORD PTR _offset$[ebp], 0
  007bc	7d 16		 jge	 SHORT $L200904

; 225  : 	{
; 226  : 		if(orgValue + offset < minConstrain)

  007be	8b 4d e0	 mov	 ecx, DWORD PTR _orgValue$[ebp]
  007c1	03 4d 08	 add	 ecx, DWORD PTR _offset$[ebp]
  007c4	3b 4d d8	 cmp	 ecx, DWORD PTR _minConstrain$[ebp]
  007c7	7d 09		 jge	 SHORT $L200905

; 227  : 			offset =  minConstrain - orgValue;

  007c9	8b 55 d8	 mov	 edx, DWORD PTR _minConstrain$[ebp]
  007cc	2b 55 e0	 sub	 edx, DWORD PTR _orgValue$[ebp]
  007cf	89 55 08	 mov	 DWORD PTR _offset$[ebp], edx
$L200905:

; 228  : 	}
; 229  : 	else

  007d2	eb 14		 jmp	 SHORT $L200906
$L200904:

; 230  : 	{
; 231  : 		if(orgValue - offset < minConstrain)

  007d4	8b 45 e0	 mov	 eax, DWORD PTR _orgValue$[ebp]
  007d7	2b 45 08	 sub	 eax, DWORD PTR _offset$[ebp]
  007da	3b 45 d8	 cmp	 eax, DWORD PTR _minConstrain$[ebp]
  007dd	7d 09		 jge	 SHORT $L200906

; 232  : 			offset = orgValue - minConstrain;

  007df	8b 4d e0	 mov	 ecx, DWORD PTR _orgValue$[ebp]
  007e2	2b 4d d8	 sub	 ecx, DWORD PTR _minConstrain$[ebp]
  007e5	89 4d 08	 mov	 DWORD PTR _offset$[ebp], ecx
$L200906:

; 233  : 	}
; 234  : 
; 235  : 	return offset;

  007e8	8b 55 08	 mov	 edx, DWORD PTR _offset$[ebp]
  007eb	89 55 d4	 mov	 DWORD PTR $T203198[ebp], edx
  007ee	c7 45 fc ff ff
	ff ff		 mov	 DWORD PTR __$EHRec$[ebp+8], -1
  007f5	8d 4d dc	 lea	 ecx, DWORD PTR _pItem$[ebp]
  007f8	e8 00 00 00 00	 call	 ??1CPaneBase@ETSLayoutMgr@@QAE@XZ ; ETSLayoutMgr::CPaneBase::~CPaneBase
  007fd	8b 45 d4	 mov	 eax, DWORD PTR $T203198[ebp]

; 236  : }

  00800	8b 4d f4	 mov	 ecx, DWORD PTR __$EHRec$[ebp]
  00803	64 89 0d 00 00
	00 00		 mov	 DWORD PTR fs:__except_list, ecx
  0080a	8b e5		 mov	 esp, ebp
  0080c	5d		 pop	 ebp
  0080d	c2 04 00	 ret	 4
_TEXT	ENDS
text$x	SEGMENT
$L203199:
  0005b	8d 4d dc	 lea	 ecx, DWORD PTR _pItem$[ebp]
  0005e	e9 00 00 00 00	 jmp	 ??1CPaneBase@ETSLayoutMgr@@QAE@XZ ; ETSLayoutMgr::CPaneBase::~CPaneBase
__ehhandler$?getCloseConstrain@PaneSplitter@ETSLayoutMgr@@QAEHH@Z:
  00063	b8 00 00 00 00	 mov	 eax, OFFSET FLAT:$T203201
  00068	e9 00 00 00 00	 jmp	 ___CxxFrameHandler
text$x	ENDS
?getCloseConstrain@PaneSplitter@ETSLayoutMgr@@QAEHH@Z ENDP ; ETSLayoutMgr::PaneSplitter::getCloseConstrain
PUBLIC	?getOffsetConstrain@PaneSplitter@ETSLayoutMgr@@QAEHH@Z ; ETSLayoutMgr::PaneSplitter::getOffsetConstrain
xdata$x	SEGMENT
$T203210 DD	0ffffffffH
	DD	FLAT:$L203206
$T203208 DD	019930520H
	DD	01H
	DD	FLAT:$T203210
	DD	2 DUP(00H)
	DD	2 DUP(00H)
; Function compile flags: /Odt
xdata$x	ENDS
_TEXT	SEGMENT
tv132 = -56						; size = 4
tv91 = -52						; size = 4
_this$ = -48						; size = 4
$T203205 = -44						; size = 4
_minConstrain$ = -40					; size = 4
_pItem$ = -36						; size = 4
_orgValue$ = -32					; size = 4
_rc$ = -28						; size = 16
__$EHRec$ = -12						; size = 12
_offset$ = 8						; size = 4
?getOffsetConstrain@PaneSplitter@ETSLayoutMgr@@QAEHH@Z PROC NEAR ; ETSLayoutMgr::PaneSplitter::getOffsetConstrain
; _this$ = ecx

; 239  : {

  00810	55		 push	 ebp
  00811	8b ec		 mov	 ebp, esp
  00813	6a ff		 push	 -1
  00815	68 00 00 00 00	 push	 __ehhandler$?getOffsetConstrain@PaneSplitter@ETSLayoutMgr@@QAEHH@Z
  0081a	64 a1 00 00 00
	00		 mov	 eax, DWORD PTR fs:__except_list
  00820	50		 push	 eax
  00821	64 89 25 00 00
	00 00		 mov	 DWORD PTR fs:__except_list, esp
  00828	83 ec 2c	 sub	 esp, 44			; 0000002cH
  0082b	89 4d d0	 mov	 DWORD PTR _this$[ebp], ecx

; 240  : 	CPaneBase pItem;

  0082e	8d 4d dc	 lea	 ecx, DWORD PTR _pItem$[ebp]
  00831	e8 00 00 00 00	 call	 ??0CPaneBase@ETSLayoutMgr@@QAE@XZ ; ETSLayoutMgr::CPaneBase::CPaneBase
  00836	c7 45 fc 00 00
	00 00		 mov	 DWORD PTR __$EHRec$[ebp+8], 0

; 241  : 	int orgValue = 0;

  0083d	c7 45 e0 00 00
	00 00		 mov	 DWORD PTR _orgValue$[ebp], 0

; 242  : 	int minConstrain = 0;

  00844	c7 45 d8 00 00
	00 00		 mov	 DWORD PTR _minConstrain$[ebp], 0

; 243  : 
; 244  : 	if(offset < 0)

  0084b	83 7d 08 00	 cmp	 DWORD PTR _offset$[ebp], 0
  0084f	7d 18		 jge	 SHORT $L200916

; 245  : 		pItem = m_paneItems[0];

  00851	6a 00		 push	 0
  00853	8b 4d d0	 mov	 ecx, DWORD PTR _this$[ebp]
  00856	83 c1 64	 add	 ecx, 100		; 00000064H
  00859	e8 00 00 00 00	 call	 ??A?$CArray@VCPaneBase@ETSLayoutMgr@@V12@@@QAEAAVCPaneBase@ETSLayoutMgr@@H@Z ; CArray<ETSLayoutMgr::CPaneBase,ETSLayoutMgr::CPaneBase>::operator[]
  0085e	50		 push	 eax
  0085f	8d 4d dc	 lea	 ecx, DWORD PTR _pItem$[ebp]
  00862	e8 00 00 00 00	 call	 ??4CPaneBase@ETSLayoutMgr@@QAEXABV01@@Z ; ETSLayoutMgr::CPaneBase::operator=

; 246  : 	else

  00867	eb 16		 jmp	 SHORT $L200917
$L200916:

; 247  : 		pItem = m_paneItems[2];

  00869	6a 02		 push	 2
  0086b	8b 4d d0	 mov	 ecx, DWORD PTR _this$[ebp]
  0086e	83 c1 64	 add	 ecx, 100		; 00000064H
  00871	e8 00 00 00 00	 call	 ??A?$CArray@VCPaneBase@ETSLayoutMgr@@V12@@@QAEAAVCPaneBase@ETSLayoutMgr@@H@Z ; CArray<ETSLayoutMgr::CPaneBase,ETSLayoutMgr::CPaneBase>::operator[]
  00876	50		 push	 eax
  00877	8d 4d dc	 lea	 ecx, DWORD PTR _pItem$[ebp]
  0087a	e8 00 00 00 00	 call	 ??4CPaneBase@ETSLayoutMgr@@QAEXABV01@@Z ; ETSLayoutMgr::CPaneBase::operator=
$L200917:

; 248  : 
; 249  : 	CRect rc = pItem->getPaneRect();

  0087f	8d 45 e4	 lea	 eax, DWORD PTR _rc$[ebp]
  00882	50		 push	 eax
  00883	8d 4d dc	 lea	 ecx, DWORD PTR _pItem$[ebp]
  00886	e8 00 00 00 00	 call	 ??CCPaneBase@ETSLayoutMgr@@QBEPAVPaneBase@1@XZ ; ETSLayoutMgr::CPaneBase::operator->
  0088b	8b c8		 mov	 ecx, eax
  0088d	e8 00 00 00 00	 call	 ?getPaneRect@PaneBase@ETSLayoutMgr@@QAE?AVCRect@@XZ ; ETSLayoutMgr::PaneBase::getPaneRect

; 250  : 
; 251  : 	if(m_Orientation == ETSLayoutMgr::HORIZONTAL)

  00892	8b 4d d0	 mov	 ecx, DWORD PTR _this$[ebp]
  00895	83 79 60 00	 cmp	 DWORD PTR [ecx+96], 0
  00899	75 26		 jne	 SHORT $L200920

; 252  : 	{
; 253  : 		orgValue = rc.Width();

  0089b	8d 4d e4	 lea	 ecx, DWORD PTR _rc$[ebp]
  0089e	e8 00 00 00 00	 call	 ?Width@CRect@@QBEHXZ	; CRect::Width
  008a3	89 45 e0	 mov	 DWORD PTR _orgValue$[ebp], eax

; 254  : 		minConstrain = pItem->getMinConstrainHorz();

  008a6	8d 4d dc	 lea	 ecx, DWORD PTR _pItem$[ebp]
  008a9	e8 00 00 00 00	 call	 ??CCPaneBase@ETSLayoutMgr@@QBEPAVPaneBase@1@XZ ; ETSLayoutMgr::CPaneBase::operator->
  008ae	89 45 cc	 mov	 DWORD PTR tv91[ebp], eax
  008b1	8b 55 cc	 mov	 edx, DWORD PTR tv91[ebp]
  008b4	8b 02		 mov	 eax, DWORD PTR [edx]
  008b6	8b 4d cc	 mov	 ecx, DWORD PTR tv91[ebp]
  008b9	ff 50 08	 call	 DWORD PTR [eax+8]
  008bc	89 45 d8	 mov	 DWORD PTR _minConstrain$[ebp], eax

; 255  : 	}
; 256  : 	else

  008bf	eb 24		 jmp	 SHORT $L200921
$L200920:

; 257  : 	{
; 258  : 		orgValue = rc.Height();

  008c1	8d 4d e4	 lea	 ecx, DWORD PTR _rc$[ebp]
  008c4	e8 00 00 00 00	 call	 ?Height@CRect@@QBEHXZ	; CRect::Height
  008c9	89 45 e0	 mov	 DWORD PTR _orgValue$[ebp], eax

; 259  : 		minConstrain = pItem->getMinConstrainVert();

  008cc	8d 4d dc	 lea	 ecx, DWORD PTR _pItem$[ebp]
  008cf	e8 00 00 00 00	 call	 ??CCPaneBase@ETSLayoutMgr@@QBEPAVPaneBase@1@XZ ; ETSLayoutMgr::CPaneBase::operator->
  008d4	89 45 c8	 mov	 DWORD PTR tv132[ebp], eax
  008d7	8b 4d c8	 mov	 ecx, DWORD PTR tv132[ebp]
  008da	8b 11		 mov	 edx, DWORD PTR [ecx]
  008dc	8b 4d c8	 mov	 ecx, DWORD PTR tv132[ebp]
  008df	ff 52 10	 call	 DWORD PTR [edx+16]
  008e2	89 45 d8	 mov	 DWORD PTR _minConstrain$[ebp], eax
$L200921:

; 260  : 	}
; 261  : 
; 262  : 	if(offset < 0)

  008e5	83 7d 08 00	 cmp	 DWORD PTR _offset$[ebp], 0
  008e9	7d 16		 jge	 SHORT $L200922

; 263  : 	{
; 264  : 		if(orgValue + offset < minConstrain)

  008eb	8b 45 e0	 mov	 eax, DWORD PTR _orgValue$[ebp]
  008ee	03 45 08	 add	 eax, DWORD PTR _offset$[ebp]
  008f1	3b 45 d8	 cmp	 eax, DWORD PTR _minConstrain$[ebp]
  008f4	7d 09		 jge	 SHORT $L200923

; 265  : 			offset =  minConstrain - orgValue;

  008f6	8b 4d d8	 mov	 ecx, DWORD PTR _minConstrain$[ebp]
  008f9	2b 4d e0	 sub	 ecx, DWORD PTR _orgValue$[ebp]
  008fc	89 4d 08	 mov	 DWORD PTR _offset$[ebp], ecx
$L200923:

; 266  : 	}
; 267  : 	else

  008ff	eb 14		 jmp	 SHORT $L200924
$L200922:

; 268  : 	{
; 269  : 		if(orgValue - offset < minConstrain)

  00901	8b 55 e0	 mov	 edx, DWORD PTR _orgValue$[ebp]
  00904	2b 55 08	 sub	 edx, DWORD PTR _offset$[ebp]
  00907	3b 55 d8	 cmp	 edx, DWORD PTR _minConstrain$[ebp]
  0090a	7d 09		 jge	 SHORT $L200924

; 270  : 			offset = orgValue - minConstrain;

  0090c	8b 45 e0	 mov	 eax, DWORD PTR _orgValue$[ebp]
  0090f	2b 45 d8	 sub	 eax, DWORD PTR _minConstrain$[ebp]
  00912	89 45 08	 mov	 DWORD PTR _offset$[ebp], eax
$L200924:

; 271  : 	}
; 272  : 
; 273  : 	return offset;

  00915	8b 4d 08	 mov	 ecx, DWORD PTR _offset$[ebp]
  00918	89 4d d4	 mov	 DWORD PTR $T203205[ebp], ecx
  0091b	c7 45 fc ff ff
	ff ff		 mov	 DWORD PTR __$EHRec$[ebp+8], -1
  00922	8d 4d dc	 lea	 ecx, DWORD PTR _pItem$[ebp]
  00925	e8 00 00 00 00	 call	 ??1CPaneBase@ETSLayoutMgr@@QAE@XZ ; ETSLayoutMgr::CPaneBase::~CPaneBase
  0092a	8b 45 d4	 mov	 eax, DWORD PTR $T203205[ebp]

; 274  : }

  0092d	8b 4d f4	 mov	 ecx, DWORD PTR __$EHRec$[ebp]
  00930	64 89 0d 00 00
	00 00		 mov	 DWORD PTR fs:__except_list, ecx
  00937	8b e5		 mov	 esp, ebp
  00939	5d		 pop	 ebp
  0093a	c2 04 00	 ret	 4
_TEXT	ENDS
text$x	SEGMENT
$L203206:
  0006d	8d 4d dc	 lea	 ecx, DWORD PTR _pItem$[ebp]
  00070	e9 00 00 00 00	 jmp	 ??1CPaneBase@ETSLayoutMgr@@QAE@XZ ; ETSLayoutMgr::CPaneBase::~CPaneBase
__ehhandler$?getOffsetConstrain@PaneSplitter@ETSLayoutMgr@@QAEHH@Z:
  00075	b8 00 00 00 00	 mov	 eax, OFFSET FLAT:$T203208
  0007a	e9 00 00 00 00	 jmp	 ___CxxFrameHandler
text$x	ENDS
?getOffsetConstrain@PaneSplitter@ETSLayoutMgr@@QAEHH@Z ENDP ; ETSLayoutMgr::PaneSplitter::getOffsetConstrain
PUBLIC	??0CRect@@QAE@HHHH@Z				; CRect::CRect
PUBLIC	?SetSplPosition@PaneSplitter@ETSLayoutMgr@@QAEXH@Z ; ETSLayoutMgr::PaneSplitter::SetSplPosition
PUBLIC	?ForceResizeTo@PaneSplitter@ETSLayoutMgr@@AAEXAAVCPaneBase@2@AAVCRect@@_N@Z ; ETSLayoutMgr::PaneSplitter::ForceResizeTo
xdata$x	SEGMENT
$T203222 DD	0ffffffffH
	DD	FLAT:$L203218
$T203220 DD	019930520H
	DD	01H
	DD	FLAT:$T203222
	DD	2 DUP(00H)
	DD	2 DUP(00H)
; Function compile flags: /Odt
xdata$x	ENDS
_TEXT	SEGMENT
_this$ = -164						; size = 4
$T203217 = -160						; size = 16
$T203216 = -144						; size = 16
$T203215 = -128						; size = 16
$T203214 = -112						; size = 16
$T203213 = -96						; size = 16
$T203212 = -80						; size = 16
_rcAll$ = -64						; size = 16
_pItem$ = -48						; size = 4
_rc$ = -44						; size = 16
_rcSpl$ = -28						; size = 16
__$EHRec$ = -12						; size = 12
_pos$ = 8						; size = 4
?SetSplPosition@PaneSplitter@ETSLayoutMgr@@QAEXH@Z PROC NEAR ; ETSLayoutMgr::PaneSplitter::SetSplPosition
; _this$ = ecx

; 276  : {

  00940	55		 push	 ebp
  00941	8b ec		 mov	 ebp, esp
  00943	6a ff		 push	 -1
  00945	68 00 00 00 00	 push	 __ehhandler$?SetSplPosition@PaneSplitter@ETSLayoutMgr@@QAEXH@Z
  0094a	64 a1 00 00 00
	00		 mov	 eax, DWORD PTR fs:__except_list
  00950	50		 push	 eax
  00951	64 89 25 00 00
	00 00		 mov	 DWORD PTR fs:__except_list, esp
  00958	81 ec 98 00 00
	00		 sub	 esp, 152		; 00000098H
  0095e	56		 push	 esi
  0095f	89 8d 5c ff ff
	ff		 mov	 DWORD PTR _this$[ebp], ecx

; 277  : 	ASSERT(m_paneItems.GetSize() == 3);
; 278  : 
; 279  : 	CPaneBase pItem = m_paneItems[0];

  00965	6a 00		 push	 0
  00967	8b 8d 5c ff ff
	ff		 mov	 ecx, DWORD PTR _this$[ebp]
  0096d	83 c1 64	 add	 ecx, 100		; 00000064H
  00970	e8 00 00 00 00	 call	 ??A?$CArray@VCPaneBase@ETSLayoutMgr@@V12@@@QAEAAVCPaneBase@ETSLayoutMgr@@H@Z ; CArray<ETSLayoutMgr::CPaneBase,ETSLayoutMgr::CPaneBase>::operator[]
  00975	50		 push	 eax
  00976	8d 4d d0	 lea	 ecx, DWORD PTR _pItem$[ebp]
  00979	e8 00 00 00 00	 call	 ??0CPaneBase@ETSLayoutMgr@@QAE@ABV01@@Z ; ETSLayoutMgr::CPaneBase::CPaneBase
  0097e	c7 45 fc 00 00
	00 00		 mov	 DWORD PTR __$EHRec$[ebp+8], 0

; 280  : 	CRect rc = pItem->getPaneRect();

  00985	8d 45 d4	 lea	 eax, DWORD PTR _rc$[ebp]
  00988	50		 push	 eax
  00989	8d 4d d0	 lea	 ecx, DWORD PTR _pItem$[ebp]
  0098c	e8 00 00 00 00	 call	 ??CCPaneBase@ETSLayoutMgr@@QBEPAVPaneBase@1@XZ ; ETSLayoutMgr::CPaneBase::operator->
  00991	8b c8		 mov	 ecx, eax
  00993	e8 00 00 00 00	 call	 ?getPaneRect@PaneBase@ETSLayoutMgr@@QAE?AVCRect@@XZ ; ETSLayoutMgr::PaneBase::getPaneRect

; 281  : 
; 282  : 	//Resize First Pane
; 283  : 	if(this->m_Orientation == ETSLayoutMgr::HORIZONTAL)

  00998	8b 8d 5c ff ff
	ff		 mov	 ecx, DWORD PTR _this$[ebp]
  0099e	83 79 60 00	 cmp	 DWORD PTR [ecx+96], 0
  009a2	75 34		 jne	 SHORT $L200935

; 284  : 		rc = CRect(rc.left, rc.top, rc.left + pos, rc.bottom);

  009a4	8b 55 e0	 mov	 edx, DWORD PTR _rc$[ebp+12]
  009a7	52		 push	 edx
  009a8	8b 45 d4	 mov	 eax, DWORD PTR _rc$[ebp]
  009ab	03 45 08	 add	 eax, DWORD PTR _pos$[ebp]
  009ae	50		 push	 eax
  009af	8b 4d d8	 mov	 ecx, DWORD PTR _rc$[ebp+4]
  009b2	51		 push	 ecx
  009b3	8b 55 d4	 mov	 edx, DWORD PTR _rc$[ebp]
  009b6	52		 push	 edx
  009b7	8d 4d b0	 lea	 ecx, DWORD PTR $T203212[ebp]
  009ba	e8 00 00 00 00	 call	 ??0CRect@@QAE@HHHH@Z	; CRect::CRect
  009bf	8b 08		 mov	 ecx, DWORD PTR [eax]
  009c1	89 4d d4	 mov	 DWORD PTR _rc$[ebp], ecx
  009c4	8b 50 04	 mov	 edx, DWORD PTR [eax+4]
  009c7	89 55 d8	 mov	 DWORD PTR _rc$[ebp+4], edx
  009ca	8b 48 08	 mov	 ecx, DWORD PTR [eax+8]
  009cd	89 4d dc	 mov	 DWORD PTR _rc$[ebp+8], ecx
  009d0	8b 50 0c	 mov	 edx, DWORD PTR [eax+12]
  009d3	89 55 e0	 mov	 DWORD PTR _rc$[ebp+12], edx

; 285  : 	else

  009d6	eb 32		 jmp	 SHORT $L200937
$L200935:

; 286  : 		rc = CRect(rc.left, rc.top, rc.right, rc.top + pos);//rc.InflateRect(0, 0, 0, offset);

  009d8	8b 45 d8	 mov	 eax, DWORD PTR _rc$[ebp+4]
  009db	03 45 08	 add	 eax, DWORD PTR _pos$[ebp]
  009de	50		 push	 eax
  009df	8b 4d dc	 mov	 ecx, DWORD PTR _rc$[ebp+8]
  009e2	51		 push	 ecx
  009e3	8b 55 d8	 mov	 edx, DWORD PTR _rc$[ebp+4]
  009e6	52		 push	 edx
  009e7	8b 45 d4	 mov	 eax, DWORD PTR _rc$[ebp]
  009ea	50		 push	 eax
  009eb	8d 4d a0	 lea	 ecx, DWORD PTR $T203213[ebp]
  009ee	e8 00 00 00 00	 call	 ??0CRect@@QAE@HHHH@Z	; CRect::CRect
  009f3	8b 08		 mov	 ecx, DWORD PTR [eax]
  009f5	89 4d d4	 mov	 DWORD PTR _rc$[ebp], ecx
  009f8	8b 50 04	 mov	 edx, DWORD PTR [eax+4]
  009fb	89 55 d8	 mov	 DWORD PTR _rc$[ebp+4], edx
  009fe	8b 48 08	 mov	 ecx, DWORD PTR [eax+8]
  00a01	89 4d dc	 mov	 DWORD PTR _rc$[ebp+8], ecx
  00a04	8b 50 0c	 mov	 edx, DWORD PTR [eax+12]
  00a07	89 55 e0	 mov	 DWORD PTR _rc$[ebp+12], edx
$L200937:

; 287  : 	ForceResizeTo(pItem, rc);

  00a0a	6a 00		 push	 0
  00a0c	8d 45 d4	 lea	 eax, DWORD PTR _rc$[ebp]
  00a0f	50		 push	 eax
  00a10	8d 4d d0	 lea	 ecx, DWORD PTR _pItem$[ebp]
  00a13	51		 push	 ecx
  00a14	8b 8d 5c ff ff
	ff		 mov	 ecx, DWORD PTR _this$[ebp]
  00a1a	e8 00 00 00 00	 call	 ?ForceResizeTo@PaneSplitter@ETSLayoutMgr@@AAEXAAVCPaneBase@2@AAVCRect@@_N@Z ; ETSLayoutMgr::PaneSplitter::ForceResizeTo

; 288  : 
; 289  : 	//Resize Second Pane
; 290  : 	pItem = m_paneItems[1];

  00a1f	6a 01		 push	 1
  00a21	8b 8d 5c ff ff
	ff		 mov	 ecx, DWORD PTR _this$[ebp]
  00a27	83 c1 64	 add	 ecx, 100		; 00000064H
  00a2a	e8 00 00 00 00	 call	 ??A?$CArray@VCPaneBase@ETSLayoutMgr@@V12@@@QAEAAVCPaneBase@ETSLayoutMgr@@H@Z ; CArray<ETSLayoutMgr::CPaneBase,ETSLayoutMgr::CPaneBase>::operator[]
  00a2f	50		 push	 eax
  00a30	8d 4d d0	 lea	 ecx, DWORD PTR _pItem$[ebp]
  00a33	e8 00 00 00 00	 call	 ??4CPaneBase@ETSLayoutMgr@@QAEXABV01@@Z ; ETSLayoutMgr::CPaneBase::operator=

; 291  : 	CRect rcSpl = pItem->getPaneRect();

  00a38	8d 55 e4	 lea	 edx, DWORD PTR _rcSpl$[ebp]
  00a3b	52		 push	 edx
  00a3c	8d 4d d0	 lea	 ecx, DWORD PTR _pItem$[ebp]
  00a3f	e8 00 00 00 00	 call	 ??CCPaneBase@ETSLayoutMgr@@QBEPAVPaneBase@1@XZ ; ETSLayoutMgr::CPaneBase::operator->
  00a44	8b c8		 mov	 ecx, eax
  00a46	e8 00 00 00 00	 call	 ?getPaneRect@PaneBase@ETSLayoutMgr@@QAE?AVCRect@@XZ ; ETSLayoutMgr::PaneBase::getPaneRect

; 292  : 	if(this->m_Orientation == ETSLayoutMgr::HORIZONTAL)

  00a4b	8b 85 5c ff ff
	ff		 mov	 eax, DWORD PTR _this$[ebp]
  00a51	83 78 60 00	 cmp	 DWORD PTR [eax+96], 0
  00a55	75 39		 jne	 SHORT $L200941

; 293  : 		rc = CRect(rc.right, rcSpl.top, rc.right + rcSpl.Width(), rcSpl.bottom);//rc.InflateRect(-offset,0, 0,  0);

  00a57	8b 4d f0	 mov	 ecx, DWORD PTR _rcSpl$[ebp+12]
  00a5a	51		 push	 ecx
  00a5b	8d 4d e4	 lea	 ecx, DWORD PTR _rcSpl$[ebp]
  00a5e	e8 00 00 00 00	 call	 ?Width@CRect@@QBEHXZ	; CRect::Width
  00a63	03 45 dc	 add	 eax, DWORD PTR _rc$[ebp+8]
  00a66	50		 push	 eax
  00a67	8b 55 e8	 mov	 edx, DWORD PTR _rcSpl$[ebp+4]
  00a6a	52		 push	 edx
  00a6b	8b 45 dc	 mov	 eax, DWORD PTR _rc$[ebp+8]
  00a6e	50		 push	 eax
  00a6f	8d 4d 90	 lea	 ecx, DWORD PTR $T203214[ebp]
  00a72	e8 00 00 00 00	 call	 ??0CRect@@QAE@HHHH@Z	; CRect::CRect
  00a77	8b 08		 mov	 ecx, DWORD PTR [eax]
  00a79	89 4d d4	 mov	 DWORD PTR _rc$[ebp], ecx
  00a7c	8b 50 04	 mov	 edx, DWORD PTR [eax+4]
  00a7f	89 55 d8	 mov	 DWORD PTR _rc$[ebp+4], edx
  00a82	8b 48 08	 mov	 ecx, DWORD PTR [eax+8]
  00a85	89 4d dc	 mov	 DWORD PTR _rc$[ebp+8], ecx
  00a88	8b 50 0c	 mov	 edx, DWORD PTR [eax+12]
  00a8b	89 55 e0	 mov	 DWORD PTR _rc$[ebp+12], edx

; 294  : 	else

  00a8e	eb 37		 jmp	 SHORT $L200943
$L200941:

; 295  : 		rc = CRect(rcSpl.left, rc.bottom, rcSpl.right, rc.bottom + rcSpl.Width());//.rc.InflateRect(0, -offset, 0,0);

  00a90	8d 4d e4	 lea	 ecx, DWORD PTR _rcSpl$[ebp]
  00a93	e8 00 00 00 00	 call	 ?Width@CRect@@QBEHXZ	; CRect::Width
  00a98	03 45 e0	 add	 eax, DWORD PTR _rc$[ebp+12]
  00a9b	50		 push	 eax
  00a9c	8b 45 ec	 mov	 eax, DWORD PTR _rcSpl$[ebp+8]
  00a9f	50		 push	 eax
  00aa0	8b 4d e0	 mov	 ecx, DWORD PTR _rc$[ebp+12]
  00aa3	51		 push	 ecx
  00aa4	8b 55 e4	 mov	 edx, DWORD PTR _rcSpl$[ebp]
  00aa7	52		 push	 edx
  00aa8	8d 4d 80	 lea	 ecx, DWORD PTR $T203215[ebp]
  00aab	e8 00 00 00 00	 call	 ??0CRect@@QAE@HHHH@Z	; CRect::CRect
  00ab0	8b 08		 mov	 ecx, DWORD PTR [eax]
  00ab2	89 4d d4	 mov	 DWORD PTR _rc$[ebp], ecx
  00ab5	8b 50 04	 mov	 edx, DWORD PTR [eax+4]
  00ab8	89 55 d8	 mov	 DWORD PTR _rc$[ebp+4], edx
  00abb	8b 48 08	 mov	 ecx, DWORD PTR [eax+8]
  00abe	89 4d dc	 mov	 DWORD PTR _rc$[ebp+8], ecx
  00ac1	8b 50 0c	 mov	 edx, DWORD PTR [eax+12]
  00ac4	89 55 e0	 mov	 DWORD PTR _rc$[ebp+12], edx
$L200943:

; 296  : 	ForceResizeTo(pItem, rc);

  00ac7	6a 00		 push	 0
  00ac9	8d 45 d4	 lea	 eax, DWORD PTR _rc$[ebp]
  00acc	50		 push	 eax
  00acd	8d 4d d0	 lea	 ecx, DWORD PTR _pItem$[ebp]
  00ad0	51		 push	 ecx
  00ad1	8b 8d 5c ff ff
	ff		 mov	 ecx, DWORD PTR _this$[ebp]
  00ad7	e8 00 00 00 00	 call	 ?ForceResizeTo@PaneSplitter@ETSLayoutMgr@@AAEXAAVCPaneBase@2@AAVCRect@@_N@Z ; ETSLayoutMgr::PaneSplitter::ForceResizeTo

; 297  : 
; 298  : 	//Resize Splitter
; 299  : 	pItem = m_paneItems[2];

  00adc	6a 02		 push	 2
  00ade	8b 8d 5c ff ff
	ff		 mov	 ecx, DWORD PTR _this$[ebp]
  00ae4	83 c1 64	 add	 ecx, 100		; 00000064H
  00ae7	e8 00 00 00 00	 call	 ??A?$CArray@VCPaneBase@ETSLayoutMgr@@V12@@@QAEAAVCPaneBase@ETSLayoutMgr@@H@Z ; CArray<ETSLayoutMgr::CPaneBase,ETSLayoutMgr::CPaneBase>::operator[]
  00aec	50		 push	 eax
  00aed	8d 4d d0	 lea	 ecx, DWORD PTR _pItem$[ebp]
  00af0	e8 00 00 00 00	 call	 ??4CPaneBase@ETSLayoutMgr@@QAEXABV01@@Z ; ETSLayoutMgr::CPaneBase::operator=

; 300  : 	//CRect rcSecond = pItem->getPaneRect();
; 301  : 	CRect rcAll = this->getPaneRect();

  00af5	8d 55 c0	 lea	 edx, DWORD PTR _rcAll$[ebp]
  00af8	52		 push	 edx
  00af9	8b 8d 5c ff ff
	ff		 mov	 ecx, DWORD PTR _this$[ebp]
  00aff	e8 00 00 00 00	 call	 ?getPaneRect@PaneBase@ETSLayoutMgr@@QAE?AVCRect@@XZ ; ETSLayoutMgr::PaneBase::getPaneRect

; 302  : 	if(this->m_Orientation == ETSLayoutMgr::HORIZONTAL)

  00b04	8b 85 5c ff ff
	ff		 mov	 eax, DWORD PTR _this$[ebp]
  00b0a	83 78 60 00	 cmp	 DWORD PTR [eax+96], 0
  00b0e	75 4b		 jne	 SHORT $L200947

; 303  : 		rc = CRect(rc.right, rc.top, rc.right + rcAll.Width() - rcSpl.Width() - pos, rc.bottom);//rc.InflateRect(-offset, 0, offset, 0);

  00b10	8b 4d e0	 mov	 ecx, DWORD PTR _rc$[ebp+12]
  00b13	51		 push	 ecx
  00b14	8d 4d c0	 lea	 ecx, DWORD PTR _rcAll$[ebp]
  00b17	e8 00 00 00 00	 call	 ?Width@CRect@@QBEHXZ	; CRect::Width
  00b1c	8b f0		 mov	 esi, eax
  00b1e	03 75 dc	 add	 esi, DWORD PTR _rc$[ebp+8]
  00b21	8d 4d e4	 lea	 ecx, DWORD PTR _rcSpl$[ebp]
  00b24	e8 00 00 00 00	 call	 ?Width@CRect@@QBEHXZ	; CRect::Width
  00b29	2b f0		 sub	 esi, eax
  00b2b	2b 75 08	 sub	 esi, DWORD PTR _pos$[ebp]
  00b2e	56		 push	 esi
  00b2f	8b 55 d8	 mov	 edx, DWORD PTR _rc$[ebp+4]
  00b32	52		 push	 edx
  00b33	8b 45 dc	 mov	 eax, DWORD PTR _rc$[ebp+8]
  00b36	50		 push	 eax
  00b37	8d 8d 70 ff ff
	ff		 lea	 ecx, DWORD PTR $T203216[ebp]
  00b3d	e8 00 00 00 00	 call	 ??0CRect@@QAE@HHHH@Z	; CRect::CRect
  00b42	8b 08		 mov	 ecx, DWORD PTR [eax]
  00b44	89 4d d4	 mov	 DWORD PTR _rc$[ebp], ecx
  00b47	8b 50 04	 mov	 edx, DWORD PTR [eax+4]
  00b4a	89 55 d8	 mov	 DWORD PTR _rc$[ebp+4], edx
  00b4d	8b 48 08	 mov	 ecx, DWORD PTR [eax+8]
  00b50	89 4d dc	 mov	 DWORD PTR _rc$[ebp+8], ecx
  00b53	8b 50 0c	 mov	 edx, DWORD PTR [eax+12]
  00b56	89 55 e0	 mov	 DWORD PTR _rc$[ebp+12], edx

; 304  : 	else

  00b59	eb 49		 jmp	 SHORT $L200949
$L200947:

; 305  : 		rc = CRect(rc.left, rc.bottom, rc.right, rc.bottom + rcAll.Height() - rcSpl.Height() - pos); //rc.InflateRect(0, -offset,0, offset);

  00b5b	8d 4d c0	 lea	 ecx, DWORD PTR _rcAll$[ebp]
  00b5e	e8 00 00 00 00	 call	 ?Height@CRect@@QBEHXZ	; CRect::Height
  00b63	8b f0		 mov	 esi, eax
  00b65	03 75 e0	 add	 esi, DWORD PTR _rc$[ebp+12]
  00b68	8d 4d e4	 lea	 ecx, DWORD PTR _rcSpl$[ebp]
  00b6b	e8 00 00 00 00	 call	 ?Height@CRect@@QBEHXZ	; CRect::Height
  00b70	2b f0		 sub	 esi, eax
  00b72	2b 75 08	 sub	 esi, DWORD PTR _pos$[ebp]
  00b75	56		 push	 esi
  00b76	8b 45 dc	 mov	 eax, DWORD PTR _rc$[ebp+8]
  00b79	50		 push	 eax
  00b7a	8b 4d e0	 mov	 ecx, DWORD PTR _rc$[ebp+12]
  00b7d	51		 push	 ecx
  00b7e	8b 55 d4	 mov	 edx, DWORD PTR _rc$[ebp]
  00b81	52		 push	 edx
  00b82	8d 8d 60 ff ff
	ff		 lea	 ecx, DWORD PTR $T203217[ebp]
  00b88	e8 00 00 00 00	 call	 ??0CRect@@QAE@HHHH@Z	; CRect::CRect
  00b8d	8b 08		 mov	 ecx, DWORD PTR [eax]
  00b8f	89 4d d4	 mov	 DWORD PTR _rc$[ebp], ecx
  00b92	8b 50 04	 mov	 edx, DWORD PTR [eax+4]
  00b95	89 55 d8	 mov	 DWORD PTR _rc$[ebp+4], edx
  00b98	8b 48 08	 mov	 ecx, DWORD PTR [eax+8]
  00b9b	89 4d dc	 mov	 DWORD PTR _rc$[ebp+8], ecx
  00b9e	8b 50 0c	 mov	 edx, DWORD PTR [eax+12]
  00ba1	89 55 e0	 mov	 DWORD PTR _rc$[ebp+12], edx
$L200949:

; 306  : 	ForceResizeTo(pItem, rc);

  00ba4	6a 00		 push	 0
  00ba6	8d 45 d4	 lea	 eax, DWORD PTR _rc$[ebp]
  00ba9	50		 push	 eax
  00baa	8d 4d d0	 lea	 ecx, DWORD PTR _pItem$[ebp]
  00bad	51		 push	 ecx
  00bae	8b 8d 5c ff ff
	ff		 mov	 ecx, DWORD PTR _this$[ebp]
  00bb4	e8 00 00 00 00	 call	 ?ForceResizeTo@PaneSplitter@ETSLayoutMgr@@AAEXAAVCPaneBase@2@AAVCRect@@_N@Z ; ETSLayoutMgr::PaneSplitter::ForceResizeTo

; 307  : 
; 308  : 	if(!IsClosed())

  00bb9	8b 8d 5c ff ff
	ff		 mov	 ecx, DWORD PTR _this$[ebp]
  00bbf	e8 00 00 00 00	 call	 ?IsClosed@PaneSplitter@ETSLayoutMgr@@QAEHXZ ; ETSLayoutMgr::PaneSplitter::IsClosed
  00bc4	85 c0		 test	 eax, eax
  00bc6	75 0b		 jne	 SHORT $L200951

; 309  : 		setOpenConstrain();

  00bc8	8b 8d 5c ff ff
	ff		 mov	 ecx, DWORD PTR _this$[ebp]
  00bce	e8 00 00 00 00	 call	 ?setOpenConstrain@PaneSplitter@ETSLayoutMgr@@QAEXXZ ; ETSLayoutMgr::PaneSplitter::setOpenConstrain
$L200951:

; 310  : 
; 311  : }

  00bd3	c7 45 fc ff ff
	ff ff		 mov	 DWORD PTR __$EHRec$[ebp+8], -1
  00bda	8d 4d d0	 lea	 ecx, DWORD PTR _pItem$[ebp]
  00bdd	e8 00 00 00 00	 call	 ??1CPaneBase@ETSLayoutMgr@@QAE@XZ ; ETSLayoutMgr::CPaneBase::~CPaneBase
  00be2	8b 4d f4	 mov	 ecx, DWORD PTR __$EHRec$[ebp]
  00be5	64 89 0d 00 00
	00 00		 mov	 DWORD PTR fs:__except_list, ecx
  00bec	5e		 pop	 esi
  00bed	8b e5		 mov	 esp, ebp
  00bef	5d		 pop	 ebp
  00bf0	c2 04 00	 ret	 4
_TEXT	ENDS
text$x	SEGMENT
$L203218:
  0007f	8d 4d d0	 lea	 ecx, DWORD PTR _pItem$[ebp]
  00082	e9 00 00 00 00	 jmp	 ??1CPaneBase@ETSLayoutMgr@@QAE@XZ ; ETSLayoutMgr::CPaneBase::~CPaneBase
__ehhandler$?SetSplPosition@PaneSplitter@ETSLayoutMgr@@QAEXH@Z:
  00087	b8 00 00 00 00	 mov	 eax, OFFSET FLAT:$T203220
  0008c	e9 00 00 00 00	 jmp	 ___CxxFrameHandler
text$x	ENDS
?SetSplPosition@PaneSplitter@ETSLayoutMgr@@QAEXH@Z ENDP	; ETSLayoutMgr::PaneSplitter::SetSplPosition
PUBLIC	?GetSplPosition@PaneSplitter@ETSLayoutMgr@@QAEHXZ ; ETSLayoutMgr::PaneSplitter::GetSplPosition
xdata$x	SEGMENT
$T203231 DD	0ffffffffH
	DD	FLAT:$L203227
$T203229 DD	019930520H
	DD	01H
	DD	FLAT:$T203231
	DD	2 DUP(00H)
	DD	2 DUP(00H)
; Function compile flags: /Odt
xdata$x	ENDS
_TEXT	SEGMENT
_this$ = -64						; size = 4
$T203226 = -60						; size = 4
$T203225 = -56						; size = 4
$T203224 = -52						; size = 4
_rc2$ = -48						; size = 16
_pItem$ = -32						; size = 4
_rc$ = -28						; size = 16
__$EHRec$ = -12						; size = 12
?GetSplPosition@PaneSplitter@ETSLayoutMgr@@QAEHXZ PROC NEAR ; ETSLayoutMgr::PaneSplitter::GetSplPosition
; _this$ = ecx

; 314  : {

  00c00	55		 push	 ebp
  00c01	8b ec		 mov	 ebp, esp
  00c03	6a ff		 push	 -1
  00c05	68 00 00 00 00	 push	 __ehhandler$?GetSplPosition@PaneSplitter@ETSLayoutMgr@@QAEHXZ
  00c0a	64 a1 00 00 00
	00		 mov	 eax, DWORD PTR fs:__except_list
  00c10	50		 push	 eax
  00c11	64 89 25 00 00
	00 00		 mov	 DWORD PTR fs:__except_list, esp
  00c18	83 ec 34	 sub	 esp, 52			; 00000034H
  00c1b	89 4d c0	 mov	 DWORD PTR _this$[ebp], ecx

; 315  : 	ASSERT(m_paneItems.GetSize() == 3);
; 316  : 
; 317  : 	CPaneBase pItem = m_paneItems[0];

  00c1e	6a 00		 push	 0
  00c20	8b 4d c0	 mov	 ecx, DWORD PTR _this$[ebp]
  00c23	83 c1 64	 add	 ecx, 100		; 00000064H
  00c26	e8 00 00 00 00	 call	 ??A?$CArray@VCPaneBase@ETSLayoutMgr@@V12@@@QAEAAVCPaneBase@ETSLayoutMgr@@H@Z ; CArray<ETSLayoutMgr::CPaneBase,ETSLayoutMgr::CPaneBase>::operator[]
  00c2b	50		 push	 eax
  00c2c	8d 4d e0	 lea	 ecx, DWORD PTR _pItem$[ebp]
  00c2f	e8 00 00 00 00	 call	 ??0CPaneBase@ETSLayoutMgr@@QAE@ABV01@@Z ; ETSLayoutMgr::CPaneBase::CPaneBase
  00c34	c7 45 fc 00 00
	00 00		 mov	 DWORD PTR __$EHRec$[ebp+8], 0

; 318  : 	CRect rc = pItem->getPaneRect();

  00c3b	8d 45 e4	 lea	 eax, DWORD PTR _rc$[ebp]
  00c3e	50		 push	 eax
  00c3f	8d 4d e0	 lea	 ecx, DWORD PTR _pItem$[ebp]
  00c42	e8 00 00 00 00	 call	 ??CCPaneBase@ETSLayoutMgr@@QBEPAVPaneBase@1@XZ ; ETSLayoutMgr::CPaneBase::operator->
  00c47	8b c8		 mov	 ecx, eax
  00c49	e8 00 00 00 00	 call	 ?getPaneRect@PaneBase@ETSLayoutMgr@@QAE?AVCRect@@XZ ; ETSLayoutMgr::PaneBase::getPaneRect

; 319  : 
; 320  : 	pItem = m_paneItems[1];

  00c4e	6a 01		 push	 1
  00c50	8b 4d c0	 mov	 ecx, DWORD PTR _this$[ebp]
  00c53	83 c1 64	 add	 ecx, 100		; 00000064H
  00c56	e8 00 00 00 00	 call	 ??A?$CArray@VCPaneBase@ETSLayoutMgr@@V12@@@QAEAAVCPaneBase@ETSLayoutMgr@@H@Z ; CArray<ETSLayoutMgr::CPaneBase,ETSLayoutMgr::CPaneBase>::operator[]
  00c5b	50		 push	 eax
  00c5c	8d 4d e0	 lea	 ecx, DWORD PTR _pItem$[ebp]
  00c5f	e8 00 00 00 00	 call	 ??4CPaneBase@ETSLayoutMgr@@QAEXABV01@@Z ; ETSLayoutMgr::CPaneBase::operator=

; 321  : 	CRect rc2 = pItem->getPaneRect();

  00c64	8d 4d d0	 lea	 ecx, DWORD PTR _rc2$[ebp]
  00c67	51		 push	 ecx
  00c68	8d 4d e0	 lea	 ecx, DWORD PTR _pItem$[ebp]
  00c6b	e8 00 00 00 00	 call	 ??CCPaneBase@ETSLayoutMgr@@QBEPAVPaneBase@1@XZ ; ETSLayoutMgr::CPaneBase::operator->
  00c70	8b c8		 mov	 ecx, eax
  00c72	e8 00 00 00 00	 call	 ?getPaneRect@PaneBase@ETSLayoutMgr@@QAE?AVCRect@@XZ ; ETSLayoutMgr::PaneBase::getPaneRect

; 322  : 
; 323  : 	if(rc.Width() == 0 && rc2.Width() == 0)

  00c77	8d 4d e4	 lea	 ecx, DWORD PTR _rc$[ebp]
  00c7a	e8 00 00 00 00	 call	 ?Width@CRect@@QBEHXZ	; CRect::Width
  00c7f	85 c0		 test	 eax, eax
  00c81	75 27		 jne	 SHORT $L200961
  00c83	8d 4d d0	 lea	 ecx, DWORD PTR _rc2$[ebp]
  00c86	e8 00 00 00 00	 call	 ?Width@CRect@@QBEHXZ	; CRect::Width
  00c8b	85 c0		 test	 eax, eax
  00c8d	75 1b		 jne	 SHORT $L200961

; 324  : 		return -1;

  00c8f	c7 45 cc ff ff
	ff ff		 mov	 DWORD PTR $T203224[ebp], -1
  00c96	c7 45 fc ff ff
	ff ff		 mov	 DWORD PTR __$EHRec$[ebp+8], -1
  00c9d	8d 4d e0	 lea	 ecx, DWORD PTR _pItem$[ebp]
  00ca0	e8 00 00 00 00	 call	 ??1CPaneBase@ETSLayoutMgr@@QAE@XZ ; ETSLayoutMgr::CPaneBase::~CPaneBase
  00ca5	8b 45 cc	 mov	 eax, DWORD PTR $T203224[ebp]
  00ca8	eb 45		 jmp	 SHORT $L200954
$L200961:

; 325  : 
; 326  : 	if(this->m_Orientation == ETSLayoutMgr::HORIZONTAL)

  00caa	8b 55 c0	 mov	 edx, DWORD PTR _this$[ebp]
  00cad	83 7a 60 00	 cmp	 DWORD PTR [edx+96], 0
  00cb1	75 1f		 jne	 SHORT $L200963

; 327  : 		return rc.Width();

  00cb3	8d 4d e4	 lea	 ecx, DWORD PTR _rc$[ebp]
  00cb6	e8 00 00 00 00	 call	 ?Width@CRect@@QBEHXZ	; CRect::Width
  00cbb	89 45 c8	 mov	 DWORD PTR $T203225[ebp], eax
  00cbe	c7 45 fc ff ff
	ff ff		 mov	 DWORD PTR __$EHRec$[ebp+8], -1
  00cc5	8d 4d e0	 lea	 ecx, DWORD PTR _pItem$[ebp]
  00cc8	e8 00 00 00 00	 call	 ??1CPaneBase@ETSLayoutMgr@@QAE@XZ ; ETSLayoutMgr::CPaneBase::~CPaneBase
  00ccd	8b 45 c8	 mov	 eax, DWORD PTR $T203225[ebp]
  00cd0	eb 1d		 jmp	 SHORT $L200954
$L200963:

; 328  : 	else
; 329  : 		return rc.Height();

  00cd2	8d 4d e4	 lea	 ecx, DWORD PTR _rc$[ebp]
  00cd5	e8 00 00 00 00	 call	 ?Height@CRect@@QBEHXZ	; CRect::Height
  00cda	89 45 c4	 mov	 DWORD PTR $T203226[ebp], eax
  00cdd	c7 45 fc ff ff
	ff ff		 mov	 DWORD PTR __$EHRec$[ebp+8], -1
  00ce4	8d 4d e0	 lea	 ecx, DWORD PTR _pItem$[ebp]
  00ce7	e8 00 00 00 00	 call	 ??1CPaneBase@ETSLayoutMgr@@QAE@XZ ; ETSLayoutMgr::CPaneBase::~CPaneBase
  00cec	8b 45 c4	 mov	 eax, DWORD PTR $T203226[ebp]
$L200954:

; 330  : }

  00cef	8b 4d f4	 mov	 ecx, DWORD PTR __$EHRec$[ebp]
  00cf2	64 89 0d 00 00
	00 00		 mov	 DWORD PTR fs:__except_list, ecx
  00cf9	8b e5		 mov	 esp, ebp
  00cfb	5d		 pop	 ebp
  00cfc	c3		 ret	 0
_TEXT	ENDS
text$x	SEGMENT
$L203227:
  00091	8d 4d e0	 lea	 ecx, DWORD PTR _pItem$[ebp]
  00094	e9 00 00 00 00	 jmp	 ??1CPaneBase@ETSLayoutMgr@@QAE@XZ ; ETSLayoutMgr::CPaneBase::~CPaneBase
__ehhandler$?GetSplPosition@PaneSplitter@ETSLayoutMgr@@QAEHXZ:
  00099	b8 00 00 00 00	 mov	 eax, OFFSET FLAT:$T203229
  0009e	e9 00 00 00 00	 jmp	 ___CxxFrameHandler
text$x	ENDS
?GetSplPosition@PaneSplitter@ETSLayoutMgr@@QAEHXZ ENDP	; ETSLayoutMgr::PaneSplitter::GetSplPosition
PUBLIC	?GetOuterPaneMinPosition@PaneSplitter@ETSLayoutMgr@@QAEHXZ ; ETSLayoutMgr::PaneSplitter::GetOuterPaneMinPosition
xdata$x	SEGMENT
$T203238 DD	0ffffffffH
	DD	FLAT:$L203234
$T203236 DD	019930520H
	DD	01H
	DD	FLAT:$T203238
	DD	2 DUP(00H)
	DD	2 DUP(00H)
; Function compile flags: /Odt
xdata$x	ENDS
_TEXT	SEGMENT
tv75 = -32						; size = 4
_this$ = -28						; size = 4
$T203233 = -24						; size = 4
_pItem$ = -20						; size = 4
_min$ = -16						; size = 4
__$EHRec$ = -12						; size = 12
?GetOuterPaneMinPosition@PaneSplitter@ETSLayoutMgr@@QAEHXZ PROC NEAR ; ETSLayoutMgr::PaneSplitter::GetOuterPaneMinPosition
; _this$ = ecx

; 334  : {

  00d00	55		 push	 ebp
  00d01	8b ec		 mov	 ebp, esp
  00d03	6a ff		 push	 -1
  00d05	68 00 00 00 00	 push	 __ehhandler$?GetOuterPaneMinPosition@PaneSplitter@ETSLayoutMgr@@QAEHXZ
  00d0a	64 a1 00 00 00
	00		 mov	 eax, DWORD PTR fs:__except_list
  00d10	50		 push	 eax
  00d11	64 89 25 00 00
	00 00		 mov	 DWORD PTR fs:__except_list, esp
  00d18	83 ec 14	 sub	 esp, 20			; 00000014H
  00d1b	89 4d e4	 mov	 DWORD PTR _this$[ebp], ecx

; 335  : 	CPaneBase pItem = m_paneItems[2];

  00d1e	6a 02		 push	 2
  00d20	8b 4d e4	 mov	 ecx, DWORD PTR _this$[ebp]
  00d23	83 c1 64	 add	 ecx, 100		; 00000064H
  00d26	e8 00 00 00 00	 call	 ??A?$CArray@VCPaneBase@ETSLayoutMgr@@V12@@@QAEAAVCPaneBase@ETSLayoutMgr@@H@Z ; CArray<ETSLayoutMgr::CPaneBase,ETSLayoutMgr::CPaneBase>::operator[]
  00d2b	50		 push	 eax
  00d2c	8d 4d ec	 lea	 ecx, DWORD PTR _pItem$[ebp]
  00d2f	e8 00 00 00 00	 call	 ??0CPaneBase@ETSLayoutMgr@@QAE@ABV01@@Z ; ETSLayoutMgr::CPaneBase::CPaneBase
  00d34	c7 45 fc 00 00
	00 00		 mov	 DWORD PTR __$EHRec$[ebp+8], 0

; 336  : 	int min =  pItem->getMinConstrainHorz();

  00d3b	8d 4d ec	 lea	 ecx, DWORD PTR _pItem$[ebp]
  00d3e	e8 00 00 00 00	 call	 ??CCPaneBase@ETSLayoutMgr@@QBEPAVPaneBase@1@XZ ; ETSLayoutMgr::CPaneBase::operator->
  00d43	89 45 e0	 mov	 DWORD PTR tv75[ebp], eax
  00d46	8b 45 e0	 mov	 eax, DWORD PTR tv75[ebp]
  00d49	8b 10		 mov	 edx, DWORD PTR [eax]
  00d4b	8b 4d e0	 mov	 ecx, DWORD PTR tv75[ebp]
  00d4e	ff 52 08	 call	 DWORD PTR [edx+8]
  00d51	89 45 f0	 mov	 DWORD PTR _min$[ebp], eax

; 337  : 
; 338  : 	return min;

  00d54	8b 45 f0	 mov	 eax, DWORD PTR _min$[ebp]
  00d57	89 45 e8	 mov	 DWORD PTR $T203233[ebp], eax
  00d5a	c7 45 fc ff ff
	ff ff		 mov	 DWORD PTR __$EHRec$[ebp+8], -1
  00d61	8d 4d ec	 lea	 ecx, DWORD PTR _pItem$[ebp]
  00d64	e8 00 00 00 00	 call	 ??1CPaneBase@ETSLayoutMgr@@QAE@XZ ; ETSLayoutMgr::CPaneBase::~CPaneBase
  00d69	8b 45 e8	 mov	 eax, DWORD PTR $T203233[ebp]

; 339  : }

  00d6c	8b 4d f4	 mov	 ecx, DWORD PTR __$EHRec$[ebp]
  00d6f	64 89 0d 00 00
	00 00		 mov	 DWORD PTR fs:__except_list, ecx
  00d76	8b e5		 mov	 esp, ebp
  00d78	5d		 pop	 ebp
  00d79	c3		 ret	 0
_TEXT	ENDS
text$x	SEGMENT
$L203234:
  000a3	8d 4d ec	 lea	 ecx, DWORD PTR _pItem$[ebp]
  000a6	e9 00 00 00 00	 jmp	 ??1CPaneBase@ETSLayoutMgr@@QAE@XZ ; ETSLayoutMgr::CPaneBase::~CPaneBase
__ehhandler$?GetOuterPaneMinPosition@PaneSplitter@ETSLayoutMgr@@QAEHXZ:
  000ab	b8 00 00 00 00	 mov	 eax, OFFSET FLAT:$T203236
  000b0	e9 00 00 00 00	 jmp	 ___CxxFrameHandler
text$x	ENDS
?GetOuterPaneMinPosition@PaneSplitter@ETSLayoutMgr@@QAEHXZ ENDP ; ETSLayoutMgr::PaneSplitter::GetOuterPaneMinPosition
PUBLIC	?InflateRect@CRect@@QAEXHHHH@Z			; CRect::InflateRect
PUBLIC	?ForceResizeOuterPane@PaneSplitter@ETSLayoutMgr@@QAE_NH_N@Z ; ETSLayoutMgr::PaneSplitter::ForceResizeOuterPane
xdata$x	SEGMENT
$T203245 DD	0ffffffffH
	DD	FLAT:$L203241
$T203243 DD	019930520H
	DD	01H
	DD	FLAT:$T203245
	DD	2 DUP(00H)
	DD	2 DUP(00H)
; Function compile flags: /Odt
xdata$x	ENDS
_TEXT	SEGMENT
tv92 = -48						; size = 4
tv82 = -44						; size = 4
_this$ = -40						; size = 4
$T203240 = -33						; size = 1
_pItem$ = -32						; size = 4
_rc$ = -28						; size = 16
__$EHRec$ = -12						; size = 12
_offset$ = 8						; size = 4
_bRedraw$ = 12						; size = 1
?ForceResizeOuterPane@PaneSplitter@ETSLayoutMgr@@QAE_NH_N@Z PROC NEAR ; ETSLayoutMgr::PaneSplitter::ForceResizeOuterPane
; _this$ = ecx

; 342  : {

  00d80	55		 push	 ebp
  00d81	8b ec		 mov	 ebp, esp
  00d83	6a ff		 push	 -1
  00d85	68 00 00 00 00	 push	 __ehhandler$?ForceResizeOuterPane@PaneSplitter@ETSLayoutMgr@@QAE_NH_N@Z
  00d8a	64 a1 00 00 00
	00		 mov	 eax, DWORD PTR fs:__except_list
  00d90	50		 push	 eax
  00d91	64 89 25 00 00
	00 00		 mov	 DWORD PTR fs:__except_list, esp
  00d98	83 ec 24	 sub	 esp, 36			; 00000024H
  00d9b	56		 push	 esi
  00d9c	89 4d d8	 mov	 DWORD PTR _this$[ebp], ecx

; 343  : 	//Resize Splitter
; 344  : 	CPaneBase pItem = m_paneItems[2];

  00d9f	6a 02		 push	 2
  00da1	8b 4d d8	 mov	 ecx, DWORD PTR _this$[ebp]
  00da4	83 c1 64	 add	 ecx, 100		; 00000064H
  00da7	e8 00 00 00 00	 call	 ??A?$CArray@VCPaneBase@ETSLayoutMgr@@V12@@@QAEAAVCPaneBase@ETSLayoutMgr@@H@Z ; CArray<ETSLayoutMgr::CPaneBase,ETSLayoutMgr::CPaneBase>::operator[]
  00dac	50		 push	 eax
  00dad	8d 4d e0	 lea	 ecx, DWORD PTR _pItem$[ebp]
  00db0	e8 00 00 00 00	 call	 ??0CPaneBase@ETSLayoutMgr@@QAE@ABV01@@Z ; ETSLayoutMgr::CPaneBase::CPaneBase
  00db5	c7 45 fc 00 00
	00 00		 mov	 DWORD PTR __$EHRec$[ebp+8], 0

; 345  : 	CRect rc = pItem->getPaneRect();

  00dbc	8d 45 e4	 lea	 eax, DWORD PTR _rc$[ebp]
  00dbf	50		 push	 eax
  00dc0	8d 4d e0	 lea	 ecx, DWORD PTR _pItem$[ebp]
  00dc3	e8 00 00 00 00	 call	 ??CCPaneBase@ETSLayoutMgr@@QBEPAVPaneBase@1@XZ ; ETSLayoutMgr::CPaneBase::operator->
  00dc8	8b c8		 mov	 ecx, eax
  00dca	e8 00 00 00 00	 call	 ?getPaneRect@PaneBase@ETSLayoutMgr@@QAE?AVCRect@@XZ ; ETSLayoutMgr::PaneBase::getPaneRect

; 346  : 
; 347  : 	if(rc.Width() - offset < pItem->getMinConstrainHorz())

  00dcf	8d 4d e0	 lea	 ecx, DWORD PTR _pItem$[ebp]
  00dd2	e8 00 00 00 00	 call	 ??CCPaneBase@ETSLayoutMgr@@QBEPAVPaneBase@1@XZ ; ETSLayoutMgr::CPaneBase::operator->
  00dd7	89 45 d4	 mov	 DWORD PTR tv82[ebp], eax
  00dda	8b 4d d4	 mov	 ecx, DWORD PTR tv82[ebp]
  00ddd	8b 11		 mov	 edx, DWORD PTR [ecx]
  00ddf	8b 4d d4	 mov	 ecx, DWORD PTR tv82[ebp]
  00de2	ff 52 08	 call	 DWORD PTR [edx+8]
  00de5	8b f0		 mov	 esi, eax
  00de7	8d 4d e4	 lea	 ecx, DWORD PTR _rc$[ebp]
  00dea	e8 00 00 00 00	 call	 ?Width@CRect@@QBEHXZ	; CRect::Width
  00def	2b 45 08	 sub	 eax, DWORD PTR _offset$[ebp]
  00df2	3b c6		 cmp	 eax, esi
  00df4	7d 25		 jge	 SHORT $L200981

; 348  : 		offset = rc.Width() - pItem->getMinConstrainHorz();

  00df6	8d 4d e0	 lea	 ecx, DWORD PTR _pItem$[ebp]
  00df9	e8 00 00 00 00	 call	 ??CCPaneBase@ETSLayoutMgr@@QBEPAVPaneBase@1@XZ ; ETSLayoutMgr::CPaneBase::operator->
  00dfe	89 45 d0	 mov	 DWORD PTR tv92[ebp], eax
  00e01	8b 45 d0	 mov	 eax, DWORD PTR tv92[ebp]
  00e04	8b 10		 mov	 edx, DWORD PTR [eax]
  00e06	8b 4d d0	 mov	 ecx, DWORD PTR tv92[ebp]
  00e09	ff 52 08	 call	 DWORD PTR [edx+8]
  00e0c	8b f0		 mov	 esi, eax
  00e0e	8d 4d e4	 lea	 ecx, DWORD PTR _rc$[ebp]
  00e11	e8 00 00 00 00	 call	 ?Width@CRect@@QBEHXZ	; CRect::Width
  00e16	2b c6		 sub	 eax, esi
  00e18	89 45 08	 mov	 DWORD PTR _offset$[ebp], eax
$L200981:

; 349  : 
; 350  : 	if(this->m_Orientation == ETSLayoutMgr::HORIZONTAL)

  00e1b	8b 45 d8	 mov	 eax, DWORD PTR _this$[ebp]
  00e1e	83 78 60 00	 cmp	 DWORD PTR [eax+96], 0
  00e22	75 14		 jne	 SHORT $L200983

; 351  : 		rc.InflateRect(0, 0, -offset, 0);

  00e24	6a 00		 push	 0
  00e26	8b 4d 08	 mov	 ecx, DWORD PTR _offset$[ebp]
  00e29	f7 d9		 neg	 ecx
  00e2b	51		 push	 ecx
  00e2c	6a 00		 push	 0
  00e2e	6a 00		 push	 0
  00e30	8d 4d e4	 lea	 ecx, DWORD PTR _rc$[ebp]
  00e33	e8 00 00 00 00	 call	 ?InflateRect@CRect@@QAEXHHHH@Z ; CRect::InflateRect
$L200983:

; 352  : 	else
; 353  : 		;
; 354  : 	ForceResizeTo(pItem, rc, bRedraw);

  00e38	8a 55 0c	 mov	 dl, BYTE PTR _bRedraw$[ebp]
  00e3b	52		 push	 edx
  00e3c	8d 45 e4	 lea	 eax, DWORD PTR _rc$[ebp]
  00e3f	50		 push	 eax
  00e40	8d 4d e0	 lea	 ecx, DWORD PTR _pItem$[ebp]
  00e43	51		 push	 ecx
  00e44	8b 4d d8	 mov	 ecx, DWORD PTR _this$[ebp]
  00e47	e8 00 00 00 00	 call	 ?ForceResizeTo@PaneSplitter@ETSLayoutMgr@@AAEXAAVCPaneBase@2@AAVCRect@@_N@Z ; ETSLayoutMgr::PaneSplitter::ForceResizeTo

; 355  : 
; 356  : 	this->m_pSpl->ShowWindow(SW_SHOW);

  00e4c	6a 05		 push	 5
  00e4e	8b 55 d8	 mov	 edx, DWORD PTR _this$[ebp]
  00e51	8b 8a 94 00 00
	00		 mov	 ecx, DWORD PTR [edx+148]
  00e57	e8 00 00 00 00	 call	 ?ShowWindow@CWnd@@QAEHH@Z ; CWnd::ShowWindow

; 357  : 	return true;

  00e5c	c6 45 df 01	 mov	 BYTE PTR $T203240[ebp], 1
  00e60	c7 45 fc ff ff
	ff ff		 mov	 DWORD PTR __$EHRec$[ebp+8], -1
  00e67	8d 4d e0	 lea	 ecx, DWORD PTR _pItem$[ebp]
  00e6a	e8 00 00 00 00	 call	 ??1CPaneBase@ETSLayoutMgr@@QAE@XZ ; ETSLayoutMgr::CPaneBase::~CPaneBase
  00e6f	8a 45 df	 mov	 al, BYTE PTR $T203240[ebp]

; 358  : }

  00e72	8b 4d f4	 mov	 ecx, DWORD PTR __$EHRec$[ebp]
  00e75	64 89 0d 00 00
	00 00		 mov	 DWORD PTR fs:__except_list, ecx
  00e7c	5e		 pop	 esi
  00e7d	8b e5		 mov	 esp, ebp
  00e7f	5d		 pop	 ebp
  00e80	c2 08 00	 ret	 8
_TEXT	ENDS
text$x	SEGMENT
$L203241:
  000b5	8d 4d e0	 lea	 ecx, DWORD PTR _pItem$[ebp]
  000b8	e9 00 00 00 00	 jmp	 ??1CPaneBase@ETSLayoutMgr@@QAE@XZ ; ETSLayoutMgr::CPaneBase::~CPaneBase
__ehhandler$?ForceResizeOuterPane@PaneSplitter@ETSLayoutMgr@@QAE_NH_N@Z:
  000bd	b8 00 00 00 00	 mov	 eax, OFFSET FLAT:$T203243
  000c2	e9 00 00 00 00	 jmp	 ___CxxFrameHandler
text$x	ENDS
?ForceResizeOuterPane@PaneSplitter@ETSLayoutMgr@@QAE_NH_N@Z ENDP ; ETSLayoutMgr::PaneSplitter::ForceResizeOuterPane
PUBLIC	?resizeTo@PaneSplitter@ETSLayoutMgr@@QAE_NH_N0@Z ; ETSLayoutMgr::PaneSplitter::resizeTo
xdata$x	SEGMENT
$T203254 DD	0ffffffffH
	DD	FLAT:$L203250
$T203252 DD	019930520H
	DD	01H
	DD	FLAT:$T203254
	DD	2 DUP(00H)
	DD	2 DUP(00H)
; Function compile flags: /Odt
xdata$x	ENDS
_TEXT	SEGMENT
_this$ = -72						; size = 4
$T203249 = -65						; size = 1
$T203248 = -64						; size = 16
$T203247 = -48						; size = 16
_pItem$ = -32						; size = 4
_rc$ = -28						; size = 16
__$EHRec$ = -12						; size = 12
_offset$ = 8						; size = 4
_bRedraw$ = 12						; size = 1
_bReSizeAlways$ = 16					; size = 1
?resizeTo@PaneSplitter@ETSLayoutMgr@@QAE_NH_N0@Z PROC NEAR ; ETSLayoutMgr::PaneSplitter::resizeTo
; _this$ = ecx

; 361  : {

  00e90	55		 push	 ebp
  00e91	8b ec		 mov	 ebp, esp
  00e93	6a ff		 push	 -1
  00e95	68 00 00 00 00	 push	 __ehhandler$?resizeTo@PaneSplitter@ETSLayoutMgr@@QAE_NH_N0@Z
  00e9a	64 a1 00 00 00
	00		 mov	 eax, DWORD PTR fs:__except_list
  00ea0	50		 push	 eax
  00ea1	64 89 25 00 00
	00 00		 mov	 DWORD PTR fs:__except_list, esp
  00ea8	83 ec 3c	 sub	 esp, 60			; 0000003cH
  00eab	89 4d b8	 mov	 DWORD PTR _this$[ebp], ecx

; 362  : 	ASSERT(m_paneItems.GetSize() == 3);
; 363  : 
; 364  : 	CPaneBase pItem = m_paneItems[0];

  00eae	6a 00		 push	 0
  00eb0	8b 4d b8	 mov	 ecx, DWORD PTR _this$[ebp]
  00eb3	83 c1 64	 add	 ecx, 100		; 00000064H
  00eb6	e8 00 00 00 00	 call	 ??A?$CArray@VCPaneBase@ETSLayoutMgr@@V12@@@QAEAAVCPaneBase@ETSLayoutMgr@@H@Z ; CArray<ETSLayoutMgr::CPaneBase,ETSLayoutMgr::CPaneBase>::operator[]
  00ebb	50		 push	 eax
  00ebc	8d 4d e0	 lea	 ecx, DWORD PTR _pItem$[ebp]
  00ebf	e8 00 00 00 00	 call	 ??0CPaneBase@ETSLayoutMgr@@QAE@ABV01@@Z ; ETSLayoutMgr::CPaneBase::CPaneBase
  00ec4	c7 45 fc 00 00
	00 00		 mov	 DWORD PTR __$EHRec$[ebp+8], 0

; 365  : 	CRect rc = pItem->getPaneRect();

  00ecb	8d 45 e4	 lea	 eax, DWORD PTR _rc$[ebp]
  00ece	50		 push	 eax
  00ecf	8d 4d e0	 lea	 ecx, DWORD PTR _pItem$[ebp]
  00ed2	e8 00 00 00 00	 call	 ??CCPaneBase@ETSLayoutMgr@@QBEPAVPaneBase@1@XZ ; ETSLayoutMgr::CPaneBase::operator->
  00ed7	8b c8		 mov	 ecx, eax
  00ed9	e8 00 00 00 00	 call	 ?getPaneRect@PaneBase@ETSLayoutMgr@@QAE?AVCRect@@XZ ; ETSLayoutMgr::PaneBase::getPaneRect

; 366  : 
; 367  : 	//Resize First Pane
; 368  : 	if(this->m_Orientation == ETSLayoutMgr::HORIZONTAL)

  00ede	8b 4d b8	 mov	 ecx, DWORD PTR _this$[ebp]
  00ee1	83 79 60 00	 cmp	 DWORD PTR [ecx+96], 0
  00ee5	75 14		 jne	 SHORT $L200995

; 369  : 		rc.InflateRect(0,0, offset, 0);

  00ee7	6a 00		 push	 0
  00ee9	8b 55 08	 mov	 edx, DWORD PTR _offset$[ebp]
  00eec	52		 push	 edx
  00eed	6a 00		 push	 0
  00eef	6a 00		 push	 0
  00ef1	8d 4d e4	 lea	 ecx, DWORD PTR _rc$[ebp]
  00ef4	e8 00 00 00 00	 call	 ?InflateRect@CRect@@QAEXHHHH@Z ; CRect::InflateRect

; 370  : 	else

  00ef9	eb 12		 jmp	 SHORT $L200996
$L200995:

; 371  : 		rc.InflateRect(0, 0, 0, offset);

  00efb	8b 45 08	 mov	 eax, DWORD PTR _offset$[ebp]
  00efe	50		 push	 eax
  00eff	6a 00		 push	 0
  00f01	6a 00		 push	 0
  00f03	6a 00		 push	 0
  00f05	8d 4d e4	 lea	 ecx, DWORD PTR _rc$[ebp]
  00f08	e8 00 00 00 00	 call	 ?InflateRect@CRect@@QAEXHHHH@Z ; CRect::InflateRect
$L200996:

; 372  : 	ForceResizeTo(pItem, rc, bRedraw);

  00f0d	8a 4d 0c	 mov	 cl, BYTE PTR _bRedraw$[ebp]
  00f10	51		 push	 ecx
  00f11	8d 55 e4	 lea	 edx, DWORD PTR _rc$[ebp]
  00f14	52		 push	 edx
  00f15	8d 45 e0	 lea	 eax, DWORD PTR _pItem$[ebp]
  00f18	50		 push	 eax
  00f19	8b 4d b8	 mov	 ecx, DWORD PTR _this$[ebp]
  00f1c	e8 00 00 00 00	 call	 ?ForceResizeTo@PaneSplitter@ETSLayoutMgr@@AAEXAAVCPaneBase@2@AAVCRect@@_N@Z ; ETSLayoutMgr::PaneSplitter::ForceResizeTo

; 373  : 
; 374  : 	//Resize Second Pane
; 375  : 	pItem = m_paneItems[2];

  00f21	6a 02		 push	 2
  00f23	8b 4d b8	 mov	 ecx, DWORD PTR _this$[ebp]
  00f26	83 c1 64	 add	 ecx, 100		; 00000064H
  00f29	e8 00 00 00 00	 call	 ??A?$CArray@VCPaneBase@ETSLayoutMgr@@V12@@@QAEAAVCPaneBase@ETSLayoutMgr@@H@Z ; CArray<ETSLayoutMgr::CPaneBase,ETSLayoutMgr::CPaneBase>::operator[]
  00f2e	50		 push	 eax
  00f2f	8d 4d e0	 lea	 ecx, DWORD PTR _pItem$[ebp]
  00f32	e8 00 00 00 00	 call	 ??4CPaneBase@ETSLayoutMgr@@QAEXABV01@@Z ; ETSLayoutMgr::CPaneBase::operator=

; 376  : 	rc = pItem->getPaneRect();

  00f37	8d 4d d0	 lea	 ecx, DWORD PTR $T203247[ebp]
  00f3a	51		 push	 ecx
  00f3b	8d 4d e0	 lea	 ecx, DWORD PTR _pItem$[ebp]
  00f3e	e8 00 00 00 00	 call	 ??CCPaneBase@ETSLayoutMgr@@QBEPAVPaneBase@1@XZ ; ETSLayoutMgr::CPaneBase::operator->
  00f43	8b c8		 mov	 ecx, eax
  00f45	e8 00 00 00 00	 call	 ?getPaneRect@PaneBase@ETSLayoutMgr@@QAE?AVCRect@@XZ ; ETSLayoutMgr::PaneBase::getPaneRect
  00f4a	8b 10		 mov	 edx, DWORD PTR [eax]
  00f4c	89 55 e4	 mov	 DWORD PTR _rc$[ebp], edx
  00f4f	8b 48 04	 mov	 ecx, DWORD PTR [eax+4]
  00f52	89 4d e8	 mov	 DWORD PTR _rc$[ebp+4], ecx
  00f55	8b 50 08	 mov	 edx, DWORD PTR [eax+8]
  00f58	89 55 ec	 mov	 DWORD PTR _rc$[ebp+8], edx
  00f5b	8b 40 0c	 mov	 eax, DWORD PTR [eax+12]
  00f5e	89 45 f0	 mov	 DWORD PTR _rc$[ebp+12], eax

; 377  : 	if(this->m_Orientation == ETSLayoutMgr::HORIZONTAL)

  00f61	8b 4d b8	 mov	 ecx, DWORD PTR _this$[ebp]
  00f64	83 79 60 00	 cmp	 DWORD PTR [ecx+96], 0
  00f68	75 16		 jne	 SHORT $L200998

; 378  : 		rc.InflateRect(-offset,0, 0,  0);

  00f6a	6a 00		 push	 0
  00f6c	6a 00		 push	 0
  00f6e	6a 00		 push	 0
  00f70	8b 55 08	 mov	 edx, DWORD PTR _offset$[ebp]
  00f73	f7 da		 neg	 edx
  00f75	52		 push	 edx
  00f76	8d 4d e4	 lea	 ecx, DWORD PTR _rc$[ebp]
  00f79	e8 00 00 00 00	 call	 ?InflateRect@CRect@@QAEXHHHH@Z ; CRect::InflateRect

; 379  : 	else

  00f7e	eb 14		 jmp	 SHORT $L200999
$L200998:

; 380  : 		rc.InflateRect(0, -offset, 0,0);

  00f80	6a 00		 push	 0
  00f82	6a 00		 push	 0
  00f84	8b 45 08	 mov	 eax, DWORD PTR _offset$[ebp]
  00f87	f7 d8		 neg	 eax
  00f89	50		 push	 eax
  00f8a	6a 00		 push	 0
  00f8c	8d 4d e4	 lea	 ecx, DWORD PTR _rc$[ebp]
  00f8f	e8 00 00 00 00	 call	 ?InflateRect@CRect@@QAEXHHHH@Z ; CRect::InflateRect
$L200999:

; 381  : 	ForceResizeTo(pItem, rc, bRedraw);

  00f94	8a 4d 0c	 mov	 cl, BYTE PTR _bRedraw$[ebp]
  00f97	51		 push	 ecx
  00f98	8d 55 e4	 lea	 edx, DWORD PTR _rc$[ebp]
  00f9b	52		 push	 edx
  00f9c	8d 45 e0	 lea	 eax, DWORD PTR _pItem$[ebp]
  00f9f	50		 push	 eax
  00fa0	8b 4d b8	 mov	 ecx, DWORD PTR _this$[ebp]
  00fa3	e8 00 00 00 00	 call	 ?ForceResizeTo@PaneSplitter@ETSLayoutMgr@@AAEXAAVCPaneBase@2@AAVCRect@@_N@Z ; ETSLayoutMgr::PaneSplitter::ForceResizeTo

; 382  : 
; 383  : 	//Resize Splitter
; 384  : 	pItem = m_paneItems[1];

  00fa8	6a 01		 push	 1
  00faa	8b 4d b8	 mov	 ecx, DWORD PTR _this$[ebp]
  00fad	83 c1 64	 add	 ecx, 100		; 00000064H
  00fb0	e8 00 00 00 00	 call	 ??A?$CArray@VCPaneBase@ETSLayoutMgr@@V12@@@QAEAAVCPaneBase@ETSLayoutMgr@@H@Z ; CArray<ETSLayoutMgr::CPaneBase,ETSLayoutMgr::CPaneBase>::operator[]
  00fb5	50		 push	 eax
  00fb6	8d 4d e0	 lea	 ecx, DWORD PTR _pItem$[ebp]
  00fb9	e8 00 00 00 00	 call	 ??4CPaneBase@ETSLayoutMgr@@QAEXABV01@@Z ; ETSLayoutMgr::CPaneBase::operator=

; 385  : 	rc = pItem->getPaneRect();

  00fbe	8d 4d c0	 lea	 ecx, DWORD PTR $T203248[ebp]
  00fc1	51		 push	 ecx
  00fc2	8d 4d e0	 lea	 ecx, DWORD PTR _pItem$[ebp]
  00fc5	e8 00 00 00 00	 call	 ??CCPaneBase@ETSLayoutMgr@@QBEPAVPaneBase@1@XZ ; ETSLayoutMgr::CPaneBase::operator->
  00fca	8b c8		 mov	 ecx, eax
  00fcc	e8 00 00 00 00	 call	 ?getPaneRect@PaneBase@ETSLayoutMgr@@QAE?AVCRect@@XZ ; ETSLayoutMgr::PaneBase::getPaneRect
  00fd1	8b 10		 mov	 edx, DWORD PTR [eax]
  00fd3	89 55 e4	 mov	 DWORD PTR _rc$[ebp], edx
  00fd6	8b 48 04	 mov	 ecx, DWORD PTR [eax+4]
  00fd9	89 4d e8	 mov	 DWORD PTR _rc$[ebp+4], ecx
  00fdc	8b 50 08	 mov	 edx, DWORD PTR [eax+8]
  00fdf	89 55 ec	 mov	 DWORD PTR _rc$[ebp+8], edx
  00fe2	8b 40 0c	 mov	 eax, DWORD PTR [eax+12]
  00fe5	89 45 f0	 mov	 DWORD PTR _rc$[ebp+12], eax

; 386  : 	if(this->m_Orientation == ETSLayoutMgr::HORIZONTAL)

  00fe8	8b 4d b8	 mov	 ecx, DWORD PTR _this$[ebp]
  00feb	83 79 60 00	 cmp	 DWORD PTR [ecx+96], 0
  00fef	75 18		 jne	 SHORT $L201001

; 387  : 		rc.InflateRect(-offset, 0, offset, 0);

  00ff1	6a 00		 push	 0
  00ff3	8b 55 08	 mov	 edx, DWORD PTR _offset$[ebp]
  00ff6	52		 push	 edx
  00ff7	6a 00		 push	 0
  00ff9	8b 45 08	 mov	 eax, DWORD PTR _offset$[ebp]
  00ffc	f7 d8		 neg	 eax
  00ffe	50		 push	 eax
  00fff	8d 4d e4	 lea	 ecx, DWORD PTR _rc$[ebp]
  01002	e8 00 00 00 00	 call	 ?InflateRect@CRect@@QAEXHHHH@Z ; CRect::InflateRect

; 388  : 	else

  01007	eb 16		 jmp	 SHORT $L201002
$L201001:

; 389  : 		rc.InflateRect(0, -offset,0, offset);

  01009	8b 4d 08	 mov	 ecx, DWORD PTR _offset$[ebp]
  0100c	51		 push	 ecx
  0100d	6a 00		 push	 0
  0100f	8b 55 08	 mov	 edx, DWORD PTR _offset$[ebp]
  01012	f7 da		 neg	 edx
  01014	52		 push	 edx
  01015	6a 00		 push	 0
  01017	8d 4d e4	 lea	 ecx, DWORD PTR _rc$[ebp]
  0101a	e8 00 00 00 00	 call	 ?InflateRect@CRect@@QAEXHHHH@Z ; CRect::InflateRect
$L201002:

; 390  : 	ForceResizeTo(pItem, rc, bRedraw);

  0101f	8a 45 0c	 mov	 al, BYTE PTR _bRedraw$[ebp]
  01022	50		 push	 eax
  01023	8d 4d e4	 lea	 ecx, DWORD PTR _rc$[ebp]
  01026	51		 push	 ecx
  01027	8d 55 e0	 lea	 edx, DWORD PTR _pItem$[ebp]
  0102a	52		 push	 edx
  0102b	8b 4d b8	 mov	 ecx, DWORD PTR _this$[ebp]
  0102e	e8 00 00 00 00	 call	 ?ForceResizeTo@PaneSplitter@ETSLayoutMgr@@AAEXAAVCPaneBase@2@AAVCRect@@_N@Z ; ETSLayoutMgr::PaneSplitter::ForceResizeTo

; 391  : 
; 392  : 	//this->m_nSplClosedPos = this->GetSplPosition();
; 393  : 	//this->m_pSpl->ShowWindow(SW_SHOW);
; 394  : 	return true;

  01033	c6 45 bf 01	 mov	 BYTE PTR $T203249[ebp], 1
  01037	c7 45 fc ff ff
	ff ff		 mov	 DWORD PTR __$EHRec$[ebp+8], -1
  0103e	8d 4d e0	 lea	 ecx, DWORD PTR _pItem$[ebp]
  01041	e8 00 00 00 00	 call	 ??1CPaneBase@ETSLayoutMgr@@QAE@XZ ; ETSLayoutMgr::CPaneBase::~CPaneBase
  01046	8a 45 bf	 mov	 al, BYTE PTR $T203249[ebp]

; 395  : }

  01049	8b 4d f4	 mov	 ecx, DWORD PTR __$EHRec$[ebp]
  0104c	64 89 0d 00 00
	00 00		 mov	 DWORD PTR fs:__except_list, ecx
  01053	8b e5		 mov	 esp, ebp
  01055	5d		 pop	 ebp
  01056	c2 0c 00	 ret	 12			; 0000000cH
_TEXT	ENDS
text$x	SEGMENT
$L203250:
  000c7	8d 4d e0	 lea	 ecx, DWORD PTR _pItem$[ebp]
  000ca	e9 00 00 00 00	 jmp	 ??1CPaneBase@ETSLayoutMgr@@QAE@XZ ; ETSLayoutMgr::CPaneBase::~CPaneBase
__ehhandler$?resizeTo@PaneSplitter@ETSLayoutMgr@@QAE_NH_N0@Z:
  000cf	b8 00 00 00 00	 mov	 eax, OFFSET FLAT:$T203252
  000d4	e9 00 00 00 00	 jmp	 ___CxxFrameHandler
text$x	ENDS
?resizeTo@PaneSplitter@ETSLayoutMgr@@QAE_NH_N0@Z ENDP	; ETSLayoutMgr::PaneSplitter::resizeTo
PUBLIC	?GetSize@?$CArray@VCPaneBase@ETSLayoutMgr@@V12@@@QBEHXZ ; CArray<ETSLayoutMgr::CPaneBase,ETSLayoutMgr::CPaneBase>::GetSize
PUBLIC	?getSecondSize@PaneSplitter@ETSLayoutMgr@@QAEHXZ ; ETSLayoutMgr::PaneSplitter::getSecondSize
xdata$x	SEGMENT
$T203261 DD	0ffffffffH
	DD	FLAT:$L203257
$T203259 DD	019930520H
	DD	01H
	DD	FLAT:$T203261
	DD	2 DUP(00H)
	DD	2 DUP(00H)
; Function compile flags: /Odt
xdata$x	ENDS
_TEXT	SEGMENT
_this$ = -44						; size = 4
$T203256 = -40						; size = 4
_pItem$ = -36						; size = 4
_rc$ = -32						; size = 16
_value$ = -16						; size = 4
__$EHRec$ = -12						; size = 12
?getSecondSize@PaneSplitter@ETSLayoutMgr@@QAEHXZ PROC NEAR ; ETSLayoutMgr::PaneSplitter::getSecondSize
; _this$ = ecx

; 397  : {

  01060	55		 push	 ebp
  01061	8b ec		 mov	 ebp, esp
  01063	6a ff		 push	 -1
  01065	68 00 00 00 00	 push	 __ehhandler$?getSecondSize@PaneSplitter@ETSLayoutMgr@@QAEHXZ
  0106a	64 a1 00 00 00
	00		 mov	 eax, DWORD PTR fs:__except_list
  01070	50		 push	 eax
  01071	64 89 25 00 00
	00 00		 mov	 DWORD PTR fs:__except_list, esp
  01078	83 ec 20	 sub	 esp, 32			; 00000020H
  0107b	89 4d d4	 mov	 DWORD PTR _this$[ebp], ecx

; 398  : 	if(m_paneItems.GetSize() != 3)

  0107e	8b 4d d4	 mov	 ecx, DWORD PTR _this$[ebp]
  01081	83 c1 64	 add	 ecx, 100		; 00000064H
  01084	e8 00 00 00 00	 call	 ?GetSize@?$CArray@VCPaneBase@ETSLayoutMgr@@V12@@@QBEHXZ ; CArray<ETSLayoutMgr::CPaneBase,ETSLayoutMgr::CPaneBase>::GetSize
  01089	83 f8 03	 cmp	 eax, 3
  0108c	74 04		 je	 SHORT $L201007

; 399  : 		return 0;

  0108e	33 c0		 xor	 eax, eax
  01090	eb 69		 jmp	 SHORT $L201006
$L201007:

; 400  : 	CPaneBase pItem = m_paneItems[2];

  01092	6a 02		 push	 2
  01094	8b 4d d4	 mov	 ecx, DWORD PTR _this$[ebp]
  01097	83 c1 64	 add	 ecx, 100		; 00000064H
  0109a	e8 00 00 00 00	 call	 ??A?$CArray@VCPaneBase@ETSLayoutMgr@@V12@@@QAEAAVCPaneBase@ETSLayoutMgr@@H@Z ; CArray<ETSLayoutMgr::CPaneBase,ETSLayoutMgr::CPaneBase>::operator[]
  0109f	50		 push	 eax
  010a0	8d 4d dc	 lea	 ecx, DWORD PTR _pItem$[ebp]
  010a3	e8 00 00 00 00	 call	 ??0CPaneBase@ETSLayoutMgr@@QAE@ABV01@@Z ; ETSLayoutMgr::CPaneBase::CPaneBase
  010a8	c7 45 fc 00 00
	00 00		 mov	 DWORD PTR __$EHRec$[ebp+8], 0

; 401  : 	CRect rc = pItem->getPaneRect();

  010af	8d 45 e0	 lea	 eax, DWORD PTR _rc$[ebp]
  010b2	50		 push	 eax
  010b3	8d 4d dc	 lea	 ecx, DWORD PTR _pItem$[ebp]
  010b6	e8 00 00 00 00	 call	 ??CCPaneBase@ETSLayoutMgr@@QBEPAVPaneBase@1@XZ ; ETSLayoutMgr::CPaneBase::operator->
  010bb	8b c8		 mov	 ecx, eax
  010bd	e8 00 00 00 00	 call	 ?getPaneRect@PaneBase@ETSLayoutMgr@@QAE?AVCRect@@XZ ; ETSLayoutMgr::PaneBase::getPaneRect

; 402  : 	int value;
; 403  : 
; 404  : 	if(this->m_Orientation == ETSLayoutMgr::HORIZONTAL)

  010c2	8b 4d d4	 mov	 ecx, DWORD PTR _this$[ebp]
  010c5	83 79 60 00	 cmp	 DWORD PTR [ecx+96], 0
  010c9	75 0d		 jne	 SHORT $L201012

; 405  : 		value= rc.Height();

  010cb	8d 4d e0	 lea	 ecx, DWORD PTR _rc$[ebp]
  010ce	e8 00 00 00 00	 call	 ?Height@CRect@@QBEHXZ	; CRect::Height
  010d3	89 45 f0	 mov	 DWORD PTR _value$[ebp], eax

; 406  : 	else

  010d6	eb 0b		 jmp	 SHORT $L201013
$L201012:

; 407  : 		value = rc.Width();

  010d8	8d 4d e0	 lea	 ecx, DWORD PTR _rc$[ebp]
  010db	e8 00 00 00 00	 call	 ?Width@CRect@@QBEHXZ	; CRect::Width
  010e0	89 45 f0	 mov	 DWORD PTR _value$[ebp], eax
$L201013:

; 408  : 	return value;

  010e3	8b 55 f0	 mov	 edx, DWORD PTR _value$[ebp]
  010e6	89 55 d8	 mov	 DWORD PTR $T203256[ebp], edx
  010e9	c7 45 fc ff ff
	ff ff		 mov	 DWORD PTR __$EHRec$[ebp+8], -1
  010f0	8d 4d dc	 lea	 ecx, DWORD PTR _pItem$[ebp]
  010f3	e8 00 00 00 00	 call	 ??1CPaneBase@ETSLayoutMgr@@QAE@XZ ; ETSLayoutMgr::CPaneBase::~CPaneBase
  010f8	8b 45 d8	 mov	 eax, DWORD PTR $T203256[ebp]
$L201006:

; 409  : }

  010fb	8b 4d f4	 mov	 ecx, DWORD PTR __$EHRec$[ebp]
  010fe	64 89 0d 00 00
	00 00		 mov	 DWORD PTR fs:__except_list, ecx
  01105	8b e5		 mov	 esp, ebp
  01107	5d		 pop	 ebp
  01108	c3		 ret	 0
_TEXT	ENDS
text$x	SEGMENT
$L203257:
  000d9	8d 4d dc	 lea	 ecx, DWORD PTR _pItem$[ebp]
  000dc	e9 00 00 00 00	 jmp	 ??1CPaneBase@ETSLayoutMgr@@QAE@XZ ; ETSLayoutMgr::CPaneBase::~CPaneBase
__ehhandler$?getSecondSize@PaneSplitter@ETSLayoutMgr@@QAEHXZ:
  000e1	b8 00 00 00 00	 mov	 eax, OFFSET FLAT:$T203259
  000e6	e9 00 00 00 00	 jmp	 ___CxxFrameHandler
text$x	ENDS
?getSecondSize@PaneSplitter@ETSLayoutMgr@@QAEHXZ ENDP	; ETSLayoutMgr::PaneSplitter::getSecondSize
xdata$x	SEGMENT
$T203269 DD	0ffffffffH
	DD	FLAT:$L203265
$T203267 DD	019930520H
	DD	01H
	DD	FLAT:$T203269
	DD	2 DUP(00H)
	DD	2 DUP(00H)
; Function compile flags: /Odt
xdata$x	ENDS
_TEXT	SEGMENT
tv92 = -52						; size = 4
_this$ = -48						; size = 4
$T203264 = -44						; size = 4
$T203263 = -40						; size = 4
_width$ = -36						; size = 4
_pItem$ = -32						; size = 4
_rc$ = -28						; size = 16
__$EHRec$ = -12						; size = 12
?IsClosed@PaneSplitter@ETSLayoutMgr@@QAEHXZ PROC NEAR	; ETSLayoutMgr::PaneSplitter::IsClosed
; _this$ = ecx

; 412  : {

  01110	55		 push	 ebp
  01111	8b ec		 mov	 ebp, esp
  01113	6a ff		 push	 -1
  01115	68 00 00 00 00	 push	 __ehhandler$?IsClosed@PaneSplitter@ETSLayoutMgr@@QAEHXZ
  0111a	64 a1 00 00 00
	00		 mov	 eax, DWORD PTR fs:__except_list
  01120	50		 push	 eax
  01121	64 89 25 00 00
	00 00		 mov	 DWORD PTR fs:__except_list, esp
  01128	83 ec 28	 sub	 esp, 40			; 00000028H
  0112b	89 4d d0	 mov	 DWORD PTR _this$[ebp], ecx

; 413  : 	CPaneBase pItem;

  0112e	8d 4d e0	 lea	 ecx, DWORD PTR _pItem$[ebp]
  01131	e8 00 00 00 00	 call	 ??0CPaneBase@ETSLayoutMgr@@QAE@XZ ; ETSLayoutMgr::CPaneBase::CPaneBase
  01136	c7 45 fc 00 00
	00 00		 mov	 DWORD PTR __$EHRec$[ebp+8], 0

; 414  : 	int width;
; 415  : 
; 416  : 	if(this->m_nClosedOri == 0)

  0113d	8b 45 d0	 mov	 eax, DWORD PTR _this$[ebp]
  01140	83 b8 84 00 00
	00 00		 cmp	 DWORD PTR [eax+132], 0
  01147	75 18		 jne	 SHORT $L201020

; 417  : 		pItem = m_paneItems[0];

  01149	6a 00		 push	 0
  0114b	8b 4d d0	 mov	 ecx, DWORD PTR _this$[ebp]
  0114e	83 c1 64	 add	 ecx, 100		; 00000064H
  01151	e8 00 00 00 00	 call	 ??A?$CArray@VCPaneBase@ETSLayoutMgr@@V12@@@QAEAAVCPaneBase@ETSLayoutMgr@@H@Z ; CArray<ETSLayoutMgr::CPaneBase,ETSLayoutMgr::CPaneBase>::operator[]
  01156	50		 push	 eax
  01157	8d 4d e0	 lea	 ecx, DWORD PTR _pItem$[ebp]
  0115a	e8 00 00 00 00	 call	 ??4CPaneBase@ETSLayoutMgr@@QAEXABV01@@Z ; ETSLayoutMgr::CPaneBase::operator=

; 418  : 	else

  0115f	eb 16		 jmp	 SHORT $L201021
$L201020:

; 419  : 		pItem = m_paneItems[2];

  01161	6a 02		 push	 2
  01163	8b 4d d0	 mov	 ecx, DWORD PTR _this$[ebp]
  01166	83 c1 64	 add	 ecx, 100		; 00000064H
  01169	e8 00 00 00 00	 call	 ??A?$CArray@VCPaneBase@ETSLayoutMgr@@V12@@@QAEAAVCPaneBase@ETSLayoutMgr@@H@Z ; CArray<ETSLayoutMgr::CPaneBase,ETSLayoutMgr::CPaneBase>::operator[]
  0116e	50		 push	 eax
  0116f	8d 4d e0	 lea	 ecx, DWORD PTR _pItem$[ebp]
  01172	e8 00 00 00 00	 call	 ??4CPaneBase@ETSLayoutMgr@@QAEXABV01@@Z ; ETSLayoutMgr::CPaneBase::operator=
$L201021:

; 420  : 
; 421  : 	CRect rc = pItem->getPaneRect();

  01177	8d 4d e4	 lea	 ecx, DWORD PTR _rc$[ebp]
  0117a	51		 push	 ecx
  0117b	8d 4d e0	 lea	 ecx, DWORD PTR _pItem$[ebp]
  0117e	e8 00 00 00 00	 call	 ??CCPaneBase@ETSLayoutMgr@@QBEPAVPaneBase@1@XZ ; ETSLayoutMgr::CPaneBase::operator->
  01183	8b c8		 mov	 ecx, eax
  01185	e8 00 00 00 00	 call	 ?getPaneRect@PaneBase@ETSLayoutMgr@@QAE?AVCRect@@XZ ; ETSLayoutMgr::PaneBase::getPaneRect

; 422  : 
; 423  : 	if(this->m_Orientation == ETSLayoutMgr::HORIZONTAL)

  0118a	8b 55 d0	 mov	 edx, DWORD PTR _this$[ebp]
  0118d	83 7a 60 00	 cmp	 DWORD PTR [edx+96], 0
  01191	75 0d		 jne	 SHORT $L201024

; 424  : 	{
; 425  : 		width = rc.Width();

  01193	8d 4d e4	 lea	 ecx, DWORD PTR _rc$[ebp]
  01196	e8 00 00 00 00	 call	 ?Width@CRect@@QBEHXZ	; CRect::Width
  0119b	89 45 dc	 mov	 DWORD PTR _width$[ebp], eax

; 426  : 	}
; 427  : 	else

  0119e	eb 26		 jmp	 SHORT $L201025
$L201024:

; 428  : 	{
; 429  : 		width = pItem->getConstrainVert(0);

  011a0	8d 4d e0	 lea	 ecx, DWORD PTR _pItem$[ebp]
  011a3	e8 00 00 00 00	 call	 ??CCPaneBase@ETSLayoutMgr@@QBEPAVPaneBase@1@XZ ; ETSLayoutMgr::CPaneBase::operator->
  011a8	89 45 cc	 mov	 DWORD PTR tv92[ebp], eax
  011ab	6a 00		 push	 0
  011ad	8b 45 cc	 mov	 eax, DWORD PTR tv92[ebp]
  011b0	8b 10		 mov	 edx, DWORD PTR [eax]
  011b2	8b 4d cc	 mov	 ecx, DWORD PTR tv92[ebp]
  011b5	ff 52 04	 call	 DWORD PTR [edx+4]
  011b8	89 45 dc	 mov	 DWORD PTR _width$[ebp], eax

; 430  : 		width = rc.Height();

  011bb	8d 4d e4	 lea	 ecx, DWORD PTR _rc$[ebp]
  011be	e8 00 00 00 00	 call	 ?Height@CRect@@QBEHXZ	; CRect::Height
  011c3	89 45 dc	 mov	 DWORD PTR _width$[ebp], eax
$L201025:

; 431  : 	}
; 432  : 
; 433  : 	if(width == this->m_nSplClosedPos)

  011c6	8b 45 d0	 mov	 eax, DWORD PTR _this$[ebp]
  011c9	8b 4d dc	 mov	 ecx, DWORD PTR _width$[ebp]
  011cc	3b 88 88 00 00
	00		 cmp	 ecx, DWORD PTR [eax+136]
  011d2	75 1b		 jne	 SHORT $L201026

; 434  : 		return true;

  011d4	c7 45 d8 01 00
	00 00		 mov	 DWORD PTR $T203263[ebp], 1
  011db	c7 45 fc ff ff
	ff ff		 mov	 DWORD PTR __$EHRec$[ebp+8], -1
  011e2	8d 4d e0	 lea	 ecx, DWORD PTR _pItem$[ebp]
  011e5	e8 00 00 00 00	 call	 ??1CPaneBase@ETSLayoutMgr@@QAE@XZ ; ETSLayoutMgr::CPaneBase::~CPaneBase
  011ea	8b 45 d8	 mov	 eax, DWORD PTR $T203263[ebp]
  011ed	eb 19		 jmp	 SHORT $L201017
$L201026:

; 435  : 	return false;

  011ef	c7 45 d4 00 00
	00 00		 mov	 DWORD PTR $T203264[ebp], 0
  011f6	c7 45 fc ff ff
	ff ff		 mov	 DWORD PTR __$EHRec$[ebp+8], -1
  011fd	8d 4d e0	 lea	 ecx, DWORD PTR _pItem$[ebp]
  01200	e8 00 00 00 00	 call	 ??1CPaneBase@ETSLayoutMgr@@QAE@XZ ; ETSLayoutMgr::CPaneBase::~CPaneBase
  01205	8b 45 d4	 mov	 eax, DWORD PTR $T203264[ebp]
$L201017:

; 436  : }

  01208	8b 4d f4	 mov	 ecx, DWORD PTR __$EHRec$[ebp]
  0120b	64 89 0d 00 00
	00 00		 mov	 DWORD PTR fs:__except_list, ecx
  01212	8b e5		 mov	 esp, ebp
  01214	5d		 pop	 ebp
  01215	c3		 ret	 0
_TEXT	ENDS
text$x	SEGMENT
$L203265:
  000eb	8d 4d e0	 lea	 ecx, DWORD PTR _pItem$[ebp]
  000ee	e9 00 00 00 00	 jmp	 ??1CPaneBase@ETSLayoutMgr@@QAE@XZ ; ETSLayoutMgr::CPaneBase::~CPaneBase
__ehhandler$?IsClosed@PaneSplitter@ETSLayoutMgr@@QAEHXZ:
  000f3	b8 00 00 00 00	 mov	 eax, OFFSET FLAT:$T203267
  000f8	e9 00 00 00 00	 jmp	 ___CxxFrameHandler
text$x	ENDS
?IsClosed@PaneSplitter@ETSLayoutMgr@@QAEHXZ ENDP	; ETSLayoutMgr::PaneSplitter::IsClosed
EXTRN	?GetSplSize@ETSSplitter@@QAEHXZ:NEAR		; ETSSplitter::GetSplSize
EXTRN	?addPane@Pane@ETSLayoutMgr@@UAE_NVCPaneBase@2@@Z:NEAR ; ETSLayoutMgr::Pane::addPane
EXTRN	?addPane@Pane@ETSLayoutMgr@@UAE_NVCPane@2@W4layResizeMode@2@H@Z:NEAR ; ETSLayoutMgr::Pane::addPane
EXTRN	?item@ETSLayoutMgr@@QAE?AVCPaneBase@1@PAVCWnd@@W4layResizeMode@1@HHHH@Z:NEAR ; ETSLayoutMgr::item
EXTRN	??0CPane@ETSLayoutMgr@@QAE@ABV01@@Z:NEAR	; ETSLayoutMgr::CPane::CPane
EXTRN	??1CPane@ETSLayoutMgr@@QAE@XZ:NEAR		; ETSLayoutMgr::CPane::~CPane
xdata$x	SEGMENT
$T203282 DD	0ffffffffH
	DD	FLAT:$L203275
$T203280 DD	019930520H
	DD	01H
	DD	FLAT:$T203282
	DD	2 DUP(00H)
	DD	2 DUP(00H)
; Function compile flags: /Odt
xdata$x	ENDS
_TEXT	SEGMENT
tv192 = -44						; size = 4
tv188 = -40						; size = 4
tv186 = -36						; size = 4
_this$ = -32						; size = 4
$T203274 = -25						; size = 1
$T203273 = -24						; size = 4
$T203272 = -20						; size = 4
$T203271 = -16						; size = 4
__$EHRec$ = -12						; size = 12
_pSubpane$ = 8						; size = 4
_modeResize$ = 12					; size = 4
_sizeSecondary$ = 16					; size = 4
?addPane@PaneSplitter@ETSLayoutMgr@@UAE_NVCPane@2@W4layResizeMode@2@H@Z PROC NEAR ; ETSLayoutMgr::PaneSplitter::addPane
; _this$ = ecx

; 439  : {

  01220	55		 push	 ebp
  01221	8b ec		 mov	 ebp, esp
  01223	6a ff		 push	 -1
  01225	68 00 00 00 00	 push	 __ehhandler$?addPane@PaneSplitter@ETSLayoutMgr@@UAE_NVCPane@2@W4layResizeMode@2@H@Z
  0122a	64 a1 00 00 00
	00		 mov	 eax, DWORD PTR fs:__except_list
  01230	50		 push	 eax
  01231	64 89 25 00 00
	00 00		 mov	 DWORD PTR fs:__except_list, esp
  01238	83 ec 20	 sub	 esp, 32			; 00000020H
  0123b	56		 push	 esi
  0123c	89 4d e0	 mov	 DWORD PTR _this$[ebp], ecx
  0123f	c7 45 fc 00 00
	00 00		 mov	 DWORD PTR __$EHRec$[ebp+8], 0

; 440  : 	if(this->m_paneItems.GetSize() == 1)

  01246	8b 4d e0	 mov	 ecx, DWORD PTR _this$[ebp]
  01249	83 c1 64	 add	 ecx, 100		; 00000064H
  0124c	e8 00 00 00 00	 call	 ?GetSize@?$CArray@VCPaneBase@ETSLayoutMgr@@V12@@@QBEHXZ ; CArray<ETSLayoutMgr::CPaneBase,ETSLayoutMgr::CPaneBase>::GetSize
  01251	83 f8 01	 cmp	 eax, 1
  01254	0f 85 a1 00 00
	00		 jne	 $L201035

; 441  : 	{
; 442  : 		if(this->m_Orientation == ETSLayoutMgr::HORIZONTAL)

  0125a	8b 45 e0	 mov	 eax, DWORD PTR _this$[ebp]
  0125d	83 78 60 00	 cmp	 DWORD PTR [eax+96], 0
  01261	75 4d		 jne	 SHORT $L201036

; 443  : 			Pane::addPane(this->m_pMgr->item((CWnd*)this->m_pSpl, ABSOLUTE_HORZ , m_pSpl->GetSplSize(), 0,m_pSpl->GetSplSize()));

  01263	51		 push	 ecx
  01264	8b f4		 mov	 esi, esp
  01266	89 65 f0	 mov	 DWORD PTR $T203271[ebp], esp
  01269	6a ff		 push	 -1
  0126b	8b 4d e0	 mov	 ecx, DWORD PTR _this$[ebp]
  0126e	8b 89 94 00 00
	00		 mov	 ecx, DWORD PTR [ecx+148]
  01274	e8 00 00 00 00	 call	 ?GetSplSize@ETSSplitter@@QAEHXZ ; ETSSplitter::GetSplSize
  01279	50		 push	 eax
  0127a	6a 00		 push	 0
  0127c	8b 55 e0	 mov	 edx, DWORD PTR _this$[ebp]
  0127f	8b 8a 94 00 00
	00		 mov	 ecx, DWORD PTR [edx+148]
  01285	e8 00 00 00 00	 call	 ?GetSplSize@ETSSplitter@@QAEHXZ ; ETSSplitter::GetSplSize
  0128a	50		 push	 eax
  0128b	6a 01		 push	 1
  0128d	8b 45 e0	 mov	 eax, DWORD PTR _this$[ebp]
  01290	8b 88 94 00 00
	00		 mov	 ecx, DWORD PTR [eax+148]
  01296	51		 push	 ecx
  01297	56		 push	 esi
  01298	8b 55 e0	 mov	 edx, DWORD PTR _this$[ebp]
  0129b	8b 4a 38	 mov	 ecx, DWORD PTR [edx+56]
  0129e	e8 00 00 00 00	 call	 ?item@ETSLayoutMgr@@QAE?AVCPaneBase@1@PAVCWnd@@W4layResizeMode@1@HHHH@Z ; ETSLayoutMgr::item
  012a3	89 45 dc	 mov	 DWORD PTR tv186[ebp], eax
  012a6	8b 4d e0	 mov	 ecx, DWORD PTR _this$[ebp]
  012a9	e8 00 00 00 00	 call	 ?addPane@Pane@ETSLayoutMgr@@UAE_NVCPaneBase@2@@Z ; ETSLayoutMgr::Pane::addPane

; 444  : 		else

  012ae	eb 4b		 jmp	 SHORT $L201035
$L201036:

; 445  : 			Pane::addPane(this->m_pMgr->item((CWnd*)this->m_pSpl, ABSOLUTE_VERT , 0, m_pSpl->GetSplSize(),0,m_pSpl->GetSplSize()));

  012b0	8b 45 e0	 mov	 eax, DWORD PTR _this$[ebp]
  012b3	8b 88 94 00 00
	00		 mov	 ecx, DWORD PTR [eax+148]
  012b9	e8 00 00 00 00	 call	 ?GetSplSize@ETSSplitter@@QAEHXZ ; ETSSplitter::GetSplSize
  012be	51		 push	 ecx
  012bf	8b f4		 mov	 esi, esp
  012c1	89 65 ec	 mov	 DWORD PTR $T203272[ebp], esp
  012c4	50		 push	 eax
  012c5	6a 00		 push	 0
  012c7	8b 4d e0	 mov	 ecx, DWORD PTR _this$[ebp]
  012ca	8b 89 94 00 00
	00		 mov	 ecx, DWORD PTR [ecx+148]
  012d0	e8 00 00 00 00	 call	 ?GetSplSize@ETSSplitter@@QAEHXZ ; ETSSplitter::GetSplSize
  012d5	50		 push	 eax
  012d6	6a 00		 push	 0
  012d8	6a 04		 push	 4
  012da	8b 55 e0	 mov	 edx, DWORD PTR _this$[ebp]
  012dd	8b 82 94 00 00
	00		 mov	 eax, DWORD PTR [edx+148]
  012e3	50		 push	 eax
  012e4	56		 push	 esi
  012e5	8b 4d e0	 mov	 ecx, DWORD PTR _this$[ebp]
  012e8	8b 49 38	 mov	 ecx, DWORD PTR [ecx+56]
  012eb	e8 00 00 00 00	 call	 ?item@ETSLayoutMgr@@QAE?AVCPaneBase@1@PAVCWnd@@W4layResizeMode@1@HHHH@Z ; ETSLayoutMgr::item
  012f0	89 45 d8	 mov	 DWORD PTR tv188[ebp], eax
  012f3	8b 4d e0	 mov	 ecx, DWORD PTR _this$[ebp]
  012f6	e8 00 00 00 00	 call	 ?addPane@Pane@ETSLayoutMgr@@UAE_NVCPaneBase@2@@Z ; ETSLayoutMgr::Pane::addPane
$L201035:

; 446  : 	}
; 447  : 	Pane::addPane(pSubpane, modeResize, sizeSecondary);	

  012fb	8b 55 10	 mov	 edx, DWORD PTR _sizeSecondary$[ebp]
  012fe	52		 push	 edx
  012ff	8b 45 0c	 mov	 eax, DWORD PTR _modeResize$[ebp]
  01302	50		 push	 eax
  01303	51		 push	 ecx
  01304	8b cc		 mov	 ecx, esp
  01306	89 65 e8	 mov	 DWORD PTR $T203273[ebp], esp
  01309	8d 55 08	 lea	 edx, DWORD PTR _pSubpane$[ebp]
  0130c	52		 push	 edx
  0130d	e8 00 00 00 00	 call	 ??0CPane@ETSLayoutMgr@@QAE@ABV01@@Z ; ETSLayoutMgr::CPane::CPane
  01312	89 45 d4	 mov	 DWORD PTR tv192[ebp], eax
  01315	8b 4d e0	 mov	 ecx, DWORD PTR _this$[ebp]
  01318	e8 00 00 00 00	 call	 ?addPane@Pane@ETSLayoutMgr@@UAE_NVCPane@2@W4layResizeMode@2@H@Z ; ETSLayoutMgr::Pane::addPane

; 448  : 
; 449  : 	return true;

  0131d	c6 45 e7 01	 mov	 BYTE PTR $T203274[ebp], 1
  01321	c7 45 fc ff ff
	ff ff		 mov	 DWORD PTR __$EHRec$[ebp+8], -1
  01328	8d 4d 08	 lea	 ecx, DWORD PTR _pSubpane$[ebp]
  0132b	e8 00 00 00 00	 call	 ??1CPane@ETSLayoutMgr@@QAE@XZ ; ETSLayoutMgr::CPane::~CPane
  01330	8a 45 e7	 mov	 al, BYTE PTR $T203274[ebp]

; 450  : }

  01333	8b 4d f4	 mov	 ecx, DWORD PTR __$EHRec$[ebp]
  01336	64 89 0d 00 00
	00 00		 mov	 DWORD PTR fs:__except_list, ecx
  0133d	5e		 pop	 esi
  0133e	8b e5		 mov	 esp, ebp
  01340	5d		 pop	 ebp
  01341	c2 0c 00	 ret	 12			; 0000000cH
_TEXT	ENDS
text$x	SEGMENT
$L203275:
  000fd	8d 4d 08	 lea	 ecx, DWORD PTR _pSubpane$[ebp]
  00100	e9 00 00 00 00	 jmp	 ??1CPane@ETSLayoutMgr@@QAE@XZ ; ETSLayoutMgr::CPane::~CPane
__ehhandler$?addPane@PaneSplitter@ETSLayoutMgr@@UAE_NVCPane@2@W4layResizeMode@2@H@Z:
  00105	b8 00 00 00 00	 mov	 eax, OFFSET FLAT:$T203280
  0010a	e9 00 00 00 00	 jmp	 ___CxxFrameHandler
text$x	ENDS
?addPane@PaneSplitter@ETSLayoutMgr@@UAE_NVCPane@2@W4layResizeMode@2@H@Z ENDP ; ETSLayoutMgr::PaneSplitter::addPane
xdata$x	SEGMENT
$T203295 DD	0ffffffffH
	DD	FLAT:$L203288
$T203293 DD	019930520H
	DD	01H
	DD	FLAT:$T203295
	DD	2 DUP(00H)
	DD	2 DUP(00H)
; Function compile flags: /Odt
xdata$x	ENDS
_TEXT	SEGMENT
tv188 = -44						; size = 4
tv186 = -40						; size = 4
tv184 = -36						; size = 4
_this$ = -32						; size = 4
$T203287 = -25						; size = 1
$T203286 = -24						; size = 4
$T203285 = -20						; size = 4
$T203284 = -16						; size = 4
__$EHRec$ = -12						; size = 12
_pItem$ = 8						; size = 4
?addPane@PaneSplitter@ETSLayoutMgr@@UAE_NVCPaneBase@2@@Z PROC NEAR ; ETSLayoutMgr::PaneSplitter::addPane
; _this$ = ecx

; 453  : {

  01350	55		 push	 ebp
  01351	8b ec		 mov	 ebp, esp
  01353	6a ff		 push	 -1
  01355	68 00 00 00 00	 push	 __ehhandler$?addPane@PaneSplitter@ETSLayoutMgr@@UAE_NVCPaneBase@2@@Z
  0135a	64 a1 00 00 00
	00		 mov	 eax, DWORD PTR fs:__except_list
  01360	50		 push	 eax
  01361	64 89 25 00 00
	00 00		 mov	 DWORD PTR fs:__except_list, esp
  01368	83 ec 20	 sub	 esp, 32			; 00000020H
  0136b	56		 push	 esi
  0136c	89 4d e0	 mov	 DWORD PTR _this$[ebp], ecx
  0136f	c7 45 fc 00 00
	00 00		 mov	 DWORD PTR __$EHRec$[ebp+8], 0

; 454  : 	if(this->m_paneItems.GetSize() == 1)

  01376	8b 4d e0	 mov	 ecx, DWORD PTR _this$[ebp]
  01379	83 c1 64	 add	 ecx, 100		; 00000064H
  0137c	e8 00 00 00 00	 call	 ?GetSize@?$CArray@VCPaneBase@ETSLayoutMgr@@V12@@@QBEHXZ ; CArray<ETSLayoutMgr::CPaneBase,ETSLayoutMgr::CPaneBase>::GetSize
  01381	83 f8 01	 cmp	 eax, 1
  01384	0f 85 a1 00 00
	00		 jne	 $L201050

; 455  : 	{
; 456  : 		if(this->m_Orientation == ETSLayoutMgr::HORIZONTAL)

  0138a	8b 45 e0	 mov	 eax, DWORD PTR _this$[ebp]
  0138d	83 78 60 00	 cmp	 DWORD PTR [eax+96], 0
  01391	75 4d		 jne	 SHORT $L201051

; 457  : 			Pane::addPane(this->m_pMgr->item((CWnd*)this->m_pSpl, ABSOLUTE_HORZ , m_pSpl->GetSplSize(), 0,m_pSpl->GetSplSize()));

  01393	51		 push	 ecx
  01394	8b f4		 mov	 esi, esp
  01396	89 65 f0	 mov	 DWORD PTR $T203284[ebp], esp
  01399	6a ff		 push	 -1
  0139b	8b 4d e0	 mov	 ecx, DWORD PTR _this$[ebp]
  0139e	8b 89 94 00 00
	00		 mov	 ecx, DWORD PTR [ecx+148]
  013a4	e8 00 00 00 00	 call	 ?GetSplSize@ETSSplitter@@QAEHXZ ; ETSSplitter::GetSplSize
  013a9	50		 push	 eax
  013aa	6a 00		 push	 0
  013ac	8b 55 e0	 mov	 edx, DWORD PTR _this$[ebp]
  013af	8b 8a 94 00 00
	00		 mov	 ecx, DWORD PTR [edx+148]
  013b5	e8 00 00 00 00	 call	 ?GetSplSize@ETSSplitter@@QAEHXZ ; ETSSplitter::GetSplSize
  013ba	50		 push	 eax
  013bb	6a 01		 push	 1
  013bd	8b 45 e0	 mov	 eax, DWORD PTR _this$[ebp]
  013c0	8b 88 94 00 00
	00		 mov	 ecx, DWORD PTR [eax+148]
  013c6	51		 push	 ecx
  013c7	56		 push	 esi
  013c8	8b 55 e0	 mov	 edx, DWORD PTR _this$[ebp]
  013cb	8b 4a 38	 mov	 ecx, DWORD PTR [edx+56]
  013ce	e8 00 00 00 00	 call	 ?item@ETSLayoutMgr@@QAE?AVCPaneBase@1@PAVCWnd@@W4layResizeMode@1@HHHH@Z ; ETSLayoutMgr::item
  013d3	89 45 dc	 mov	 DWORD PTR tv184[ebp], eax
  013d6	8b 4d e0	 mov	 ecx, DWORD PTR _this$[ebp]
  013d9	e8 00 00 00 00	 call	 ?addPane@Pane@ETSLayoutMgr@@UAE_NVCPaneBase@2@@Z ; ETSLayoutMgr::Pane::addPane

; 458  : 		else

  013de	eb 4b		 jmp	 SHORT $L201050
$L201051:

; 459  : 			Pane::addPane(this->m_pMgr->item((CWnd*)this->m_pSpl, ABSOLUTE_VERT , 0,m_pSpl->GetSplSize(),0,m_pSpl->GetSplSize()));

  013e0	8b 45 e0	 mov	 eax, DWORD PTR _this$[ebp]
  013e3	8b 88 94 00 00
	00		 mov	 ecx, DWORD PTR [eax+148]
  013e9	e8 00 00 00 00	 call	 ?GetSplSize@ETSSplitter@@QAEHXZ ; ETSSplitter::GetSplSize
  013ee	51		 push	 ecx
  013ef	8b f4		 mov	 esi, esp
  013f1	89 65 ec	 mov	 DWORD PTR $T203285[ebp], esp
  013f4	50		 push	 eax
  013f5	6a 00		 push	 0
  013f7	8b 4d e0	 mov	 ecx, DWORD PTR _this$[ebp]
  013fa	8b 89 94 00 00
	00		 mov	 ecx, DWORD PTR [ecx+148]
  01400	e8 00 00 00 00	 call	 ?GetSplSize@ETSSplitter@@QAEHXZ ; ETSSplitter::GetSplSize
  01405	50		 push	 eax
  01406	6a 00		 push	 0
  01408	6a 04		 push	 4
  0140a	8b 55 e0	 mov	 edx, DWORD PTR _this$[ebp]
  0140d	8b 82 94 00 00
	00		 mov	 eax, DWORD PTR [edx+148]
  01413	50		 push	 eax
  01414	56		 push	 esi
  01415	8b 4d e0	 mov	 ecx, DWORD PTR _this$[ebp]
  01418	8b 49 38	 mov	 ecx, DWORD PTR [ecx+56]
  0141b	e8 00 00 00 00	 call	 ?item@ETSLayoutMgr@@QAE?AVCPaneBase@1@PAVCWnd@@W4layResizeMode@1@HHHH@Z ; ETSLayoutMgr::item
  01420	89 45 d8	 mov	 DWORD PTR tv186[ebp], eax
  01423	8b 4d e0	 mov	 ecx, DWORD PTR _this$[ebp]
  01426	e8 00 00 00 00	 call	 ?addPane@Pane@ETSLayoutMgr@@UAE_NVCPaneBase@2@@Z ; ETSLayoutMgr::Pane::addPane
$L201050:

; 460  : 	}
; 461  : 	Pane::addPane(pItem);

  0142b	51		 push	 ecx
  0142c	8b cc		 mov	 ecx, esp
  0142e	89 65 e8	 mov	 DWORD PTR $T203286[ebp], esp
  01431	8d 55 08	 lea	 edx, DWORD PTR _pItem$[ebp]
  01434	52		 push	 edx
  01435	e8 00 00 00 00	 call	 ??0CPaneBase@ETSLayoutMgr@@QAE@ABV01@@Z ; ETSLayoutMgr::CPaneBase::CPaneBase
  0143a	89 45 d4	 mov	 DWORD PTR tv188[ebp], eax
  0143d	8b 4d e0	 mov	 ecx, DWORD PTR _this$[ebp]
  01440	e8 00 00 00 00	 call	 ?addPane@Pane@ETSLayoutMgr@@UAE_NVCPaneBase@2@@Z ; ETSLayoutMgr::Pane::addPane

; 462  : 
; 463  : 	return true;

  01445	c6 45 e7 01	 mov	 BYTE PTR $T203287[ebp], 1
  01449	c7 45 fc ff ff
	ff ff		 mov	 DWORD PTR __$EHRec$[ebp+8], -1
  01450	8d 4d 08	 lea	 ecx, DWORD PTR _pItem$[ebp]
  01453	e8 00 00 00 00	 call	 ??1CPaneBase@ETSLayoutMgr@@QAE@XZ ; ETSLayoutMgr::CPaneBase::~CPaneBase
  01458	8a 45 e7	 mov	 al, BYTE PTR $T203287[ebp]

; 464  : }

  0145b	8b 4d f4	 mov	 ecx, DWORD PTR __$EHRec$[ebp]
  0145e	64 89 0d 00 00
	00 00		 mov	 DWORD PTR fs:__except_list, ecx
  01465	5e		 pop	 esi
  01466	8b e5		 mov	 esp, ebp
  01468	5d		 pop	 ebp
  01469	c2 04 00	 ret	 4
_TEXT	ENDS
text$x	SEGMENT
$L203288:
  0010f	8d 4d 08	 lea	 ecx, DWORD PTR _pItem$[ebp]
  00112	e9 00 00 00 00	 jmp	 ??1CPaneBase@ETSLayoutMgr@@QAE@XZ ; ETSLayoutMgr::CPaneBase::~CPaneBase
__ehhandler$?addPane@PaneSplitter@ETSLayoutMgr@@UAE_NVCPaneBase@2@@Z:
  00117	b8 00 00 00 00	 mov	 eax, OFFSET FLAT:$T203293
  0011c	e9 00 00 00 00	 jmp	 ___CxxFrameHandler
text$x	ENDS
?addPane@PaneSplitter@ETSLayoutMgr@@UAE_NVCPaneBase@2@@Z ENDP ; ETSLayoutMgr::PaneSplitter::addPane
; Function compile flags: /Odt
_TEXT	SEGMENT
tv74 = -12						; size = 4
_this$ = -8						; size = 4
_modeSize$ = -4						; size = 4
_pPane$ = 8						; size = 4
_rc$ = 12						; size = 4
_bRedraw$ = 16						; size = 1
?ForceResizeTo@PaneSplitter@ETSLayoutMgr@@AAEXAAVCPaneBase@2@AAVCRect@@_N@Z PROC NEAR ; ETSLayoutMgr::PaneSplitter::ForceResizeTo
; _this$ = ecx

; 469  : {

  01470	55		 push	 ebp
  01471	8b ec		 mov	 ebp, esp
  01473	83 ec 0c	 sub	 esp, 12			; 0000000cH
  01476	89 4d f8	 mov	 DWORD PTR _this$[ebp], ecx

; 470  : 	DWORD modeSize = pPane->modeResize();

  01479	8b 4d 08	 mov	 ecx, DWORD PTR _pPane$[ebp]
  0147c	e8 00 00 00 00	 call	 ??CCPaneBase@ETSLayoutMgr@@QBEPAVPaneBase@1@XZ ; ETSLayoutMgr::CPaneBase::operator->
  01481	8b c8		 mov	 ecx, eax
  01483	e8 00 00 00 00	 call	 ?modeResize@PaneBase@ETSLayoutMgr@@QAEKXZ ; ETSLayoutMgr::PaneBase::modeResize
  01488	89 45 fc	 mov	 DWORD PTR _modeSize$[ebp], eax

; 471  : 	pPane->m_modeResize = GREEDY;

  0148b	8b 4d 08	 mov	 ecx, DWORD PTR _pPane$[ebp]
  0148e	e8 00 00 00 00	 call	 ??CCPaneBase@ETSLayoutMgr@@QBEPAVPaneBase@1@XZ ; ETSLayoutMgr::CPaneBase::operator->
  01493	c7 40 18 00 00
	00 00		 mov	 DWORD PTR [eax+24], 0

; 472  : 	pPane->resizeTo(rc, bRedraw );

  0149a	8b 4d 08	 mov	 ecx, DWORD PTR _pPane$[ebp]
  0149d	e8 00 00 00 00	 call	 ??CCPaneBase@ETSLayoutMgr@@QBEPAVPaneBase@1@XZ ; ETSLayoutMgr::CPaneBase::operator->
  014a2	89 45 f4	 mov	 DWORD PTR tv74[ebp], eax
  014a5	6a 00		 push	 0
  014a7	8a 45 10	 mov	 al, BYTE PTR _bRedraw$[ebp]
  014aa	50		 push	 eax
  014ab	8b 4d 0c	 mov	 ecx, DWORD PTR _rc$[ebp]
  014ae	51		 push	 ecx
  014af	8b 55 f4	 mov	 edx, DWORD PTR tv74[ebp]
  014b2	8b 02		 mov	 eax, DWORD PTR [edx]
  014b4	8b 4d f4	 mov	 ecx, DWORD PTR tv74[ebp]
  014b7	ff 50 18	 call	 DWORD PTR [eax+24]

; 473  : 	pPane->m_modeResize = modeSize;

  014ba	8b 4d 08	 mov	 ecx, DWORD PTR _pPane$[ebp]
  014bd	e8 00 00 00 00	 call	 ??CCPaneBase@ETSLayoutMgr@@QBEPAVPaneBase@1@XZ ; ETSLayoutMgr::CPaneBase::operator->
  014c2	8b 4d fc	 mov	 ecx, DWORD PTR _modeSize$[ebp]
  014c5	89 48 18	 mov	 DWORD PTR [eax+24], ecx

; 474  : };

  014c8	8b e5		 mov	 esp, ebp
  014ca	5d		 pop	 ebp
  014cb	c2 0c 00	 ret	 12			; 0000000cH
?ForceResizeTo@PaneSplitter@ETSLayoutMgr@@AAEXAAVCPaneBase@2@AAVCRect@@_N@Z ENDP ; ETSLayoutMgr::PaneSplitter::ForceResizeTo
_TEXT	ENDS
PUBLIC	??CCPaneMulti@ETSLayoutMgr@@QBEPAVPaneMulti@1@XZ ; ETSLayoutMgr::CPaneMulti::operator->
; Function compile flags: /Odt
_TEXT	SEGMENT
_this$ = -4						; size = 4
??CCPaneMulti@ETSLayoutMgr@@QBEPAVPaneMulti@1@XZ PROC NEAR ; ETSLayoutMgr::CPaneMulti::operator->
; _this$ = ecx

; 480  : {

  014d0	55		 push	 ebp
  014d1	8b ec		 mov	 ebp, esp
  014d3	51		 push	 ecx
  014d4	89 4d fc	 mov	 DWORD PTR _this$[ebp], ecx

; 481  : 	ASSERT(m_pPaneHolder);
; 482  : 
; 483  : 	if(!m_pPaneHolder)

  014d7	8b 45 fc	 mov	 eax, DWORD PTR _this$[ebp]
  014da	83 38 00	 cmp	 DWORD PTR [eax], 0
  014dd	75 04		 jne	 SHORT $L201072

; 484  : 		return 0;

  014df	33 c0		 xor	 eax, eax
  014e1	eb 07		 jmp	 SHORT $L201070
$L201072:

; 485  : 
; 486  : 	return reinterpret_cast<PaneMulti*>(m_pPaneHolder->m_pPane);

  014e3	8b 4d fc	 mov	 ecx, DWORD PTR _this$[ebp]
  014e6	8b 11		 mov	 edx, DWORD PTR [ecx]
  014e8	8b 02		 mov	 eax, DWORD PTR [edx]
$L201070:

; 487  : }

  014ea	8b e5		 mov	 esp, ebp
  014ec	5d		 pop	 ebp
  014ed	c3		 ret	 0
??CCPaneMulti@ETSLayoutMgr@@QBEPAVPaneMulti@1@XZ ENDP	; ETSLayoutMgr::CPaneMulti::operator->
_TEXT	ENDS
PUBLIC	?GetPane@CPane@ETSLayoutMgr@@QAEPAVPane@2@XZ	; ETSLayoutMgr::CPane::GetPane
PUBLIC	??6CPaneMulti@ETSLayoutMgr@@QAEAAV01@VCPane@1@@Z ; ETSLayoutMgr::CPaneMulti::operator<<
EXTRN	??CCPane@ETSLayoutMgr@@QBEPAVPane@1@XZ:NEAR	; ETSLayoutMgr::CPane::operator->
xdata$x	SEGMENT
$T203306 DD	0ffffffffH
	DD	FLAT:$L203301
	DD	00H
	DD	FLAT:$L203302
$T203304 DD	019930520H
	DD	02H
	DD	FLAT:$T203306
	DD	2 DUP(00H)
	DD	2 DUP(00H)
; Function compile flags: /Odt
xdata$x	ENDS
_TEXT	SEGMENT
tv68 = -36						; size = 4
tv129 = -32						; size = 4
tv131 = -28						; size = 4
_this$ = -24						; size = 4
$T203300 = -20						; size = 4
$T203299 = -16						; size = 4
__$EHRec$ = -12						; size = 12
_pPane$ = 8						; size = 4
??6CPaneMulti@ETSLayoutMgr@@QAEAAV01@VCPane@1@@Z PROC NEAR ; ETSLayoutMgr::CPaneMulti::operator<<
; _this$ = ecx

; 490  : {

  014f0	55		 push	 ebp
  014f1	8b ec		 mov	 ebp, esp
  014f3	6a ff		 push	 -1
  014f5	68 00 00 00 00	 push	 __ehhandler$??6CPaneMulti@ETSLayoutMgr@@QAEAAV01@VCPane@1@@Z
  014fa	64 a1 00 00 00
	00		 mov	 eax, DWORD PTR fs:__except_list
  01500	50		 push	 eax
  01501	64 89 25 00 00
	00 00		 mov	 DWORD PTR fs:__except_list, esp
  01508	83 ec 18	 sub	 esp, 24			; 00000018H
  0150b	89 4d e8	 mov	 DWORD PTR _this$[ebp], ecx
  0150e	c7 45 fc 00 00
	00 00		 mov	 DWORD PTR __$EHRec$[ebp+8], 0

; 491  : 	GetPane()->addPane( pPane, (ETSLayoutMgr::layResizeMode)pPane->m_modeResize, pPane->m_sizeSecondary);

  01515	8d 4d 08	 lea	 ecx, DWORD PTR _pPane$[ebp]
  01518	e8 00 00 00 00	 call	 ??CCPane@ETSLayoutMgr@@QBEPAVPane@1@XZ ; ETSLayoutMgr::CPane::operator->
  0151d	8b 40 78	 mov	 eax, DWORD PTR [eax+120]
  01520	50		 push	 eax
  01521	8d 4d 08	 lea	 ecx, DWORD PTR _pPane$[ebp]
  01524	e8 00 00 00 00	 call	 ??CCPane@ETSLayoutMgr@@QBEPAVPane@1@XZ ; ETSLayoutMgr::CPane::operator->
  01529	8b 48 18	 mov	 ecx, DWORD PTR [eax+24]
  0152c	51		 push	 ecx
  0152d	51		 push	 ecx
  0152e	8b cc		 mov	 ecx, esp
  01530	89 65 f0	 mov	 DWORD PTR $T203299[ebp], esp
  01533	8d 55 08	 lea	 edx, DWORD PTR _pPane$[ebp]
  01536	52		 push	 edx
  01537	e8 00 00 00 00	 call	 ??0CPane@ETSLayoutMgr@@QAE@ABV01@@Z ; ETSLayoutMgr::CPane::CPane
  0153c	89 45 e4	 mov	 DWORD PTR tv131[ebp], eax
  0153f	8b 45 e4	 mov	 eax, DWORD PTR tv131[ebp]
  01542	89 45 e0	 mov	 DWORD PTR tv129[ebp], eax
  01545	c6 45 fc 01	 mov	 BYTE PTR __$EHRec$[ebp+8], 1
  01549	8b 4d e8	 mov	 ecx, DWORD PTR _this$[ebp]
  0154c	e8 00 00 00 00	 call	 ?GetPane@CPane@ETSLayoutMgr@@QAEPAVPane@2@XZ ; ETSLayoutMgr::CPane::GetPane
  01551	89 45 dc	 mov	 DWORD PTR tv68[ebp], eax
  01554	8b 4d dc	 mov	 ecx, DWORD PTR tv68[ebp]
  01557	8b 11		 mov	 edx, DWORD PTR [ecx]
  01559	c6 45 fc 00	 mov	 BYTE PTR __$EHRec$[ebp+8], 0
  0155d	8b 4d dc	 mov	 ecx, DWORD PTR tv68[ebp]
  01560	ff 52 28	 call	 DWORD PTR [edx+40]

; 492  : 	return (*this);

  01563	8b 45 e8	 mov	 eax, DWORD PTR _this$[ebp]
  01566	89 45 ec	 mov	 DWORD PTR $T203300[ebp], eax
  01569	c7 45 fc ff ff
	ff ff		 mov	 DWORD PTR __$EHRec$[ebp+8], -1
  01570	8d 4d 08	 lea	 ecx, DWORD PTR _pPane$[ebp]
  01573	e8 00 00 00 00	 call	 ??1CPane@ETSLayoutMgr@@QAE@XZ ; ETSLayoutMgr::CPane::~CPane
  01578	8b 45 ec	 mov	 eax, DWORD PTR $T203300[ebp]

; 493  : }

  0157b	8b 4d f4	 mov	 ecx, DWORD PTR __$EHRec$[ebp]
  0157e	64 89 0d 00 00
	00 00		 mov	 DWORD PTR fs:__except_list, ecx
  01585	8b e5		 mov	 esp, ebp
  01587	5d		 pop	 ebp
  01588	c2 04 00	 ret	 4
_TEXT	ENDS
text$x	SEGMENT
$L203301:
  00121	8d 4d 08	 lea	 ecx, DWORD PTR _pPane$[ebp]
  00124	e9 00 00 00 00	 jmp	 ??1CPane@ETSLayoutMgr@@QAE@XZ ; ETSLayoutMgr::CPane::~CPane
$L203302:
  00129	8b 4d f0	 mov	 ecx, DWORD PTR $T203299[ebp]
  0012c	e9 00 00 00 00	 jmp	 ??1CPane@ETSLayoutMgr@@QAE@XZ ; ETSLayoutMgr::CPane::~CPane
__ehhandler$??6CPaneMulti@ETSLayoutMgr@@QAEAAV01@VCPane@1@@Z:
  00131	b8 00 00 00 00	 mov	 eax, OFFSET FLAT:$T203304
  00136	e9 00 00 00 00	 jmp	 ___CxxFrameHandler
text$x	ENDS
??6CPaneMulti@ETSLayoutMgr@@QAEAAV01@VCPane@1@@Z ENDP	; ETSLayoutMgr::CPaneMulti::operator<<
; Function compile flags: /Odt
; File d:\boxgit\playbox\playbox\dev\prj\playbox\src\layoutmgr\etslayout.h
;	COMDAT ?GetPane@CPane@ETSLayoutMgr@@QAEPAVPane@2@XZ
_TEXT	SEGMENT
_this$ = -4						; size = 4
?GetPane@CPane@ETSLayoutMgr@@QAEPAVPane@2@XZ PROC NEAR	; ETSLayoutMgr::CPane::GetPane, COMDAT
; _this$ = ecx

; 410  : 		Pane* GetPane()			{ return operator->(); }

  00000	55		 push	 ebp
  00001	8b ec		 mov	 ebp, esp
  00003	51		 push	 ecx
  00004	89 4d fc	 mov	 DWORD PTR _this$[ebp], ecx
  00007	8b 4d fc	 mov	 ecx, DWORD PTR _this$[ebp]
  0000a	e8 00 00 00 00	 call	 ??CCPane@ETSLayoutMgr@@QBEPAVPane@1@XZ ; ETSLayoutMgr::CPane::operator->
  0000f	8b e5		 mov	 esp, ebp
  00011	5d		 pop	 ebp
  00012	c3		 ret	 0
?GetPane@CPane@ETSLayoutMgr@@QAEPAVPane@2@XZ ENDP	; ETSLayoutMgr::CPane::GetPane
_TEXT	ENDS
PUBLIC	??6CPaneMulti@ETSLayoutMgr@@QAEAAV01@VCPaneBase@1@@Z ; ETSLayoutMgr::CPaneMulti::operator<<
xdata$x	SEGMENT
$T203317 DD	0ffffffffH
	DD	FLAT:$L203312
	DD	00H
	DD	FLAT:$L203313
$T203315 DD	019930520H
	DD	02H
	DD	FLAT:$T203317
	DD	2 DUP(00H)
	DD	2 DUP(00H)
; Function compile flags: /Odt
; File d:\boxgit\playbox\playbox\dev\prj\playbox\src\layoutmgr\etslayoutex.cpp
xdata$x	ENDS
_TEXT	SEGMENT
tv68 = -36						; size = 4
tv87 = -32						; size = 4
tv89 = -28						; size = 4
_this$ = -24						; size = 4
$T203311 = -20						; size = 4
$T203310 = -16						; size = 4
__$EHRec$ = -12						; size = 12
_pItem$ = 8						; size = 4
??6CPaneMulti@ETSLayoutMgr@@QAEAAV01@VCPaneBase@1@@Z PROC NEAR ; ETSLayoutMgr::CPaneMulti::operator<<
; _this$ = ecx

; 496  : {

  01590	55		 push	 ebp
  01591	8b ec		 mov	 ebp, esp
  01593	6a ff		 push	 -1
  01595	68 00 00 00 00	 push	 __ehhandler$??6CPaneMulti@ETSLayoutMgr@@QAEAAV01@VCPaneBase@1@@Z
  0159a	64 a1 00 00 00
	00		 mov	 eax, DWORD PTR fs:__except_list
  015a0	50		 push	 eax
  015a1	64 89 25 00 00
	00 00		 mov	 DWORD PTR fs:__except_list, esp
  015a8	83 ec 18	 sub	 esp, 24			; 00000018H
  015ab	89 4d e8	 mov	 DWORD PTR _this$[ebp], ecx
  015ae	c7 45 fc 00 00
	00 00		 mov	 DWORD PTR __$EHRec$[ebp+8], 0

; 497  : 	GetPane()->addPane( pItem );

  015b5	51		 push	 ecx
  015b6	8b cc		 mov	 ecx, esp
  015b8	89 65 f0	 mov	 DWORD PTR $T203310[ebp], esp
  015bb	8d 45 08	 lea	 eax, DWORD PTR _pItem$[ebp]
  015be	50		 push	 eax
  015bf	e8 00 00 00 00	 call	 ??0CPaneBase@ETSLayoutMgr@@QAE@ABV01@@Z ; ETSLayoutMgr::CPaneBase::CPaneBase
  015c4	89 45 e4	 mov	 DWORD PTR tv89[ebp], eax
  015c7	8b 4d e4	 mov	 ecx, DWORD PTR tv89[ebp]
  015ca	89 4d e0	 mov	 DWORD PTR tv87[ebp], ecx
  015cd	c6 45 fc 01	 mov	 BYTE PTR __$EHRec$[ebp+8], 1
  015d1	8b 4d e8	 mov	 ecx, DWORD PTR _this$[ebp]
  015d4	e8 00 00 00 00	 call	 ?GetPane@CPane@ETSLayoutMgr@@QAEPAVPane@2@XZ ; ETSLayoutMgr::CPane::GetPane
  015d9	89 45 dc	 mov	 DWORD PTR tv68[ebp], eax
  015dc	8b 55 dc	 mov	 edx, DWORD PTR tv68[ebp]
  015df	8b 02		 mov	 eax, DWORD PTR [edx]
  015e1	c6 45 fc 00	 mov	 BYTE PTR __$EHRec$[ebp+8], 0
  015e5	8b 4d dc	 mov	 ecx, DWORD PTR tv68[ebp]
  015e8	ff 50 2c	 call	 DWORD PTR [eax+44]

; 498  : 	return (*this);

  015eb	8b 4d e8	 mov	 ecx, DWORD PTR _this$[ebp]
  015ee	89 4d ec	 mov	 DWORD PTR $T203311[ebp], ecx
  015f1	c7 45 fc ff ff
	ff ff		 mov	 DWORD PTR __$EHRec$[ebp+8], -1
  015f8	8d 4d 08	 lea	 ecx, DWORD PTR _pItem$[ebp]
  015fb	e8 00 00 00 00	 call	 ??1CPaneBase@ETSLayoutMgr@@QAE@XZ ; ETSLayoutMgr::CPaneBase::~CPaneBase
  01600	8b 45 ec	 mov	 eax, DWORD PTR $T203311[ebp]

; 499  : }

  01603	8b 4d f4	 mov	 ecx, DWORD PTR __$EHRec$[ebp]
  01606	64 89 0d 00 00
	00 00		 mov	 DWORD PTR fs:__except_list, ecx
  0160d	8b e5		 mov	 esp, ebp
  0160f	5d		 pop	 ebp
  01610	c2 04 00	 ret	 4
_TEXT	ENDS
text$x	SEGMENT
$L203312:
  0013b	8d 4d 08	 lea	 ecx, DWORD PTR _pItem$[ebp]
  0013e	e9 00 00 00 00	 jmp	 ??1CPaneBase@ETSLayoutMgr@@QAE@XZ ; ETSLayoutMgr::CPaneBase::~CPaneBase
$L203313:
  00143	8b 4d f0	 mov	 ecx, DWORD PTR $T203310[ebp]
  00146	e9 00 00 00 00	 jmp	 ??1CPaneBase@ETSLayoutMgr@@QAE@XZ ; ETSLayoutMgr::CPaneBase::~CPaneBase
__ehhandler$??6CPaneMulti@ETSLayoutMgr@@QAEAAV01@VCPaneBase@1@@Z:
  0014b	b8 00 00 00 00	 mov	 eax, OFFSET FLAT:$T203315
  00150	e9 00 00 00 00	 jmp	 ___CxxFrameHandler
text$x	ENDS
??6CPaneMulti@ETSLayoutMgr@@QAEAAV01@VCPaneBase@1@@Z ENDP ; ETSLayoutMgr::CPaneMulti::operator<<
PUBLIC	??0CPaneMulti@ETSLayoutMgr@@QAE@PAVPaneMulti@1@@Z ; ETSLayoutMgr::CPaneMulti::CPaneMulti
; Function compile flags: /Odt
_TEXT	SEGMENT
_this$ = -4						; size = 4
_pPane$ = 8						; size = 4
??0CPaneMulti@ETSLayoutMgr@@QAE@PAVPaneMulti@1@@Z PROC NEAR ; ETSLayoutMgr::CPaneMulti::CPaneMulti
; _this$ = ecx

; 502  : {

  01620	55		 push	 ebp
  01621	8b ec		 mov	 ebp, esp
  01623	51		 push	 ecx
  01624	89 4d fc	 mov	 DWORD PTR _this$[ebp], ecx
  01627	8b 45 08	 mov	 eax, DWORD PTR _pPane$[ebp]
  0162a	50		 push	 eax
  0162b	8b 4d fc	 mov	 ecx, DWORD PTR _this$[ebp]
  0162e	e8 00 00 00 00	 call	 ??0CPane@ETSLayoutMgr@@QAE@PAVPane@1@@Z ; ETSLayoutMgr::CPane::CPane

; 503  : }

  01633	8b 45 fc	 mov	 eax, DWORD PTR _this$[ebp]
  01636	8b e5		 mov	 esp, ebp
  01638	5d		 pop	 ebp
  01639	c2 04 00	 ret	 4
??0CPaneMulti@ETSLayoutMgr@@QAE@PAVPaneMulti@1@@Z ENDP	; ETSLayoutMgr::CPaneMulti::CPaneMulti
_TEXT	ENDS
PUBLIC	??0CPaneMulti@ETSLayoutMgr@@QAE@XZ		; ETSLayoutMgr::CPaneMulti::CPaneMulti
EXTRN	??0CPane@ETSLayoutMgr@@QAE@XZ:NEAR		; ETSLayoutMgr::CPane::CPane
; Function compile flags: /Odt
_TEXT	SEGMENT
_this$ = -4						; size = 4
??0CPaneMulti@ETSLayoutMgr@@QAE@XZ PROC NEAR		; ETSLayoutMgr::CPaneMulti::CPaneMulti
; _this$ = ecx

; 506  : {

  01640	55		 push	 ebp
  01641	8b ec		 mov	 ebp, esp
  01643	51		 push	 ecx
  01644	89 4d fc	 mov	 DWORD PTR _this$[ebp], ecx
  01647	8b 4d fc	 mov	 ecx, DWORD PTR _this$[ebp]
  0164a	e8 00 00 00 00	 call	 ??0CPane@ETSLayoutMgr@@QAE@XZ ; ETSLayoutMgr::CPane::CPane

; 507  : }

  0164f	8b 45 fc	 mov	 eax, DWORD PTR _this$[ebp]
  01652	8b e5		 mov	 esp, ebp
  01654	5d		 pop	 ebp
  01655	c3		 ret	 0
??0CPaneMulti@ETSLayoutMgr@@QAE@XZ ENDP			; ETSLayoutMgr::CPaneMulti::CPaneMulti
_TEXT	ENDS
PUBLIC	?paneMulti@ETSLayoutMgr@@QAE?AVCPaneMulti@1@W4layOrientation@1@W4layResizeMode@1@HHH@Z ; ETSLayoutMgr::paneMulti
EXTRN	??0PaneMulti@ETSLayoutMgr@@QAE@PAV1@W4layOrientation@1@HH@Z:NEAR ; ETSLayoutMgr::PaneMulti::PaneMulti
xdata$x	SEGMENT
$T203334 DD	0ffffffffH
	DD	FLAT:$L203327
$T203332 DD	019930520H
	DD	01H
	DD	FLAT:$T203334
	DD	2 DUP(00H)
	DD	2 DUP(00H)
; Function compile flags: /Odt
xdata$x	ENDS
_TEXT	SEGMENT
tv75 = -36						; size = 4
_this$ = -32						; size = 4
$T203329 = -28						; size = 4
$T203324 = -24						; size = 4
$T203323 = -20						; size = 4
_pPane$ = -16						; size = 4
__$EHRec$ = -12						; size = 12
___$ReturnUdt$ = 8					; size = 4
_orientation$ = 12					; size = 4
_modeResize$ = 16					; size = 4
_sizeBorder$ = 20					; size = 4
_sizeExtraBorder$ = 24					; size = 4
_sizeSecondary$ = 28					; size = 4
?paneMulti@ETSLayoutMgr@@QAE?AVCPaneMulti@1@W4layOrientation@1@W4layResizeMode@1@HHH@Z PROC NEAR ; ETSLayoutMgr::paneMulti
; _this$ = ecx

; 512  : {

  01660	55		 push	 ebp
  01661	8b ec		 mov	 ebp, esp
  01663	6a ff		 push	 -1
  01665	68 00 00 00 00	 push	 __ehhandler$?paneMulti@ETSLayoutMgr@@QAE?AVCPaneMulti@1@W4layOrientation@1@W4layResizeMode@1@HHH@Z
  0166a	64 a1 00 00 00
	00		 mov	 eax, DWORD PTR fs:__except_list
  01670	50		 push	 eax
  01671	64 89 25 00 00
	00 00		 mov	 DWORD PTR fs:__except_list, esp
  01678	83 ec 18	 sub	 esp, 24			; 00000018H
  0167b	89 4d e0	 mov	 DWORD PTR _this$[ebp], ecx
  0167e	c7 45 e4 00 00
	00 00		 mov	 DWORD PTR $T203329[ebp], 0

; 513  : 	PaneMulti* pPane = new PaneMulti ( this, orientation, sizeBorder, sizeExtraBorder );

  01685	68 a8 00 00 00	 push	 168			; 000000a8H
  0168a	e8 00 00 00 00	 call	 ??2@YAPAXI@Z		; operator new
  0168f	83 c4 04	 add	 esp, 4
  01692	89 45 e8	 mov	 DWORD PTR $T203324[ebp], eax
  01695	c7 45 fc 00 00
	00 00		 mov	 DWORD PTR __$EHRec$[ebp+8], 0
  0169c	83 7d e8 00	 cmp	 DWORD PTR $T203324[ebp], 0
  016a0	74 1d		 je	 SHORT $L203325
  016a2	8b 45 18	 mov	 eax, DWORD PTR _sizeExtraBorder$[ebp]
  016a5	50		 push	 eax
  016a6	8b 4d 14	 mov	 ecx, DWORD PTR _sizeBorder$[ebp]
  016a9	51		 push	 ecx
  016aa	8b 55 0c	 mov	 edx, DWORD PTR _orientation$[ebp]
  016ad	52		 push	 edx
  016ae	8b 45 e0	 mov	 eax, DWORD PTR _this$[ebp]
  016b1	50		 push	 eax
  016b2	8b 4d e8	 mov	 ecx, DWORD PTR $T203324[ebp]
  016b5	e8 00 00 00 00	 call	 ??0PaneMulti@ETSLayoutMgr@@QAE@PAV1@W4layOrientation@1@HH@Z ; ETSLayoutMgr::PaneMulti::PaneMulti
  016ba	89 45 dc	 mov	 DWORD PTR tv75[ebp], eax
  016bd	eb 07		 jmp	 SHORT $L203326
$L203325:
  016bf	c7 45 dc 00 00
	00 00		 mov	 DWORD PTR tv75[ebp], 0
$L203326:
  016c6	8b 4d dc	 mov	 ecx, DWORD PTR tv75[ebp]
  016c9	89 4d ec	 mov	 DWORD PTR $T203323[ebp], ecx
  016cc	c7 45 fc ff ff
	ff ff		 mov	 DWORD PTR __$EHRec$[ebp+8], -1
  016d3	8b 55 ec	 mov	 edx, DWORD PTR $T203323[ebp]
  016d6	89 55 f0	 mov	 DWORD PTR _pPane$[ebp], edx

; 514  : 	pPane->m_sizeSecondary = sizeSecondary;

  016d9	8b 45 f0	 mov	 eax, DWORD PTR _pPane$[ebp]
  016dc	8b 4d 1c	 mov	 ecx, DWORD PTR _sizeSecondary$[ebp]
  016df	89 48 78	 mov	 DWORD PTR [eax+120], ecx

; 515  : 	pPane->m_modeResize    = modeResize;

  016e2	8b 55 f0	 mov	 edx, DWORD PTR _pPane$[ebp]
  016e5	8b 45 10	 mov	 eax, DWORD PTR _modeResize$[ebp]
  016e8	89 42 18	 mov	 DWORD PTR [edx+24], eax

; 516  : 
; 517  : 	return CPaneMulti(pPane); 

  016eb	8b 4d f0	 mov	 ecx, DWORD PTR _pPane$[ebp]
  016ee	51		 push	 ecx
  016ef	8b 4d 08	 mov	 ecx, DWORD PTR ___$ReturnUdt$[ebp]
  016f2	e8 00 00 00 00	 call	 ??0CPaneMulti@ETSLayoutMgr@@QAE@PAVPaneMulti@1@@Z ; ETSLayoutMgr::CPaneMulti::CPaneMulti
  016f7	8b 55 e4	 mov	 edx, DWORD PTR $T203329[ebp]
  016fa	83 ca 01	 or	 edx, 1
  016fd	89 55 e4	 mov	 DWORD PTR $T203329[ebp], edx
  01700	8b 45 08	 mov	 eax, DWORD PTR ___$ReturnUdt$[ebp]

; 518  : }

  01703	8b 4d f4	 mov	 ecx, DWORD PTR __$EHRec$[ebp]
  01706	64 89 0d 00 00
	00 00		 mov	 DWORD PTR fs:__except_list, ecx
  0170d	8b e5		 mov	 esp, ebp
  0170f	5d		 pop	 ebp
  01710	c2 18 00	 ret	 24			; 00000018H
_TEXT	ENDS
text$x	SEGMENT
$L203327:
  00155	8b 45 e8	 mov	 eax, DWORD PTR $T203324[ebp]
  00158	50		 push	 eax
  00159	e8 00 00 00 00	 call	 ??3@YAXPAX@Z		; operator delete
  0015e	59		 pop	 ecx
  0015f	c3		 ret	 0
__ehhandler$?paneMulti@ETSLayoutMgr@@QAE?AVCPaneMulti@1@W4layOrientation@1@W4layResizeMode@1@HHH@Z:
  00160	b8 00 00 00 00	 mov	 eax, OFFSET FLAT:$T203332
  00165	e9 00 00 00 00	 jmp	 ___CxxFrameHandler
text$x	ENDS
?paneMulti@ETSLayoutMgr@@QAE?AVCPaneMulti@1@W4layOrientation@1@W4layResizeMode@1@HHH@Z ENDP ; ETSLayoutMgr::paneMulti
PUBLIC	?GetStartPosition@?$CMap@V?$CStringT@DV?$StrTraitMFC_DLL@DV?$ChTraitsCRT@D@ATL@@@@@ATL@@PBDVCPaneBase@ETSLayoutMgr@@V34@@@QBEPAU__POSITION@@XZ ; CMap<ATL::CStringT<char,StrTraitMFC_DLL<char,ATL::ChTraitsCRT<char> > >,char const *,ETSLayoutMgr::CPaneBase,ETSLayoutMgr::CPaneBase>::GetStartPosition
PUBLIC	?GetNextAssoc@?$CMap@V?$CStringT@DV?$StrTraitMFC_DLL@DV?$ChTraitsCRT@D@ATL@@@@@ATL@@PBDVCPaneBase@ETSLayoutMgr@@V34@@@QBEXAAPAU__POSITION@@AAV?$CStringT@DV?$StrTraitMFC_DLL@DV?$ChTraitsCRT@D@ATL@@@@@ATL@@AAVCPaneBase@ETSLayoutMgr@@@Z ; CMap<ATL::CStringT<char,StrTraitMFC_DLL<char,ATL::ChTraitsCRT<char> > >,char const *,ETSLayoutMgr::CPaneBase,ETSLayoutMgr::CPaneBase>::GetNextAssoc
PUBLIC	?showPane@PaneMulti@ETSLayoutMgr@@UAEX_N@Z	; ETSLayoutMgr::PaneMulti::showPane
PUBLIC	??8ATL@@YA_NABV?$CStringT@DV?$StrTraitMFC_DLL@DV?$ChTraitsCRT@D@ATL@@@@@0@PBD@Z ; ATL::operator==
PUBLIC	?GetName@PaneBase@ETSLayoutMgr@@QAE?AV?$CStringT@DV?$StrTraitMFC_DLL@DV?$ChTraitsCRT@D@ATL@@@@@ATL@@XZ ; ETSLayoutMgr::PaneBase::GetName
PUBLIC	?GetPaneBase@CPaneBase@ETSLayoutMgr@@QAEPAVPaneBase@2@XZ ; ETSLayoutMgr::CPaneBase::GetPaneBase
PUBLIC	?IsValid@CPaneBase@ETSLayoutMgr@@QAE_NXZ	; ETSLayoutMgr::CPaneBase::IsValid
EXTRN	__imp_??0?$CStringT@DV?$StrTraitMFC_DLL@DV?$ChTraitsCRT@D@ATL@@@@@ATL@@QAE@XZ:NEAR
EXTRN	__imp_??1?$CStringT@DV?$StrTraitMFC_DLL@DV?$ChTraitsCRT@D@ATL@@@@@ATL@@QAE@XZ:NEAR
xdata$x	SEGMENT
$T203349 DD	0ffffffffH
	DD	FLAT:$L203344
	DD	00H
	DD	FLAT:$L203345
$T203347 DD	019930520H
	DD	02H
	DD	FLAT:$T203349
	DD	2 DUP(00H)
	DD	2 DUP(00H)
; Function compile flags: /Odt
xdata$x	ENDS
_TEXT	SEGMENT
tv149 = -56						; size = 4
tv93 = -52						; size = 4
tv157 = -48						; size = 4
tv74 = -44						; size = 4
_this$ = -40						; size = 4
$T203340 = -36						; size = 4
$T203337 = -32						; size = 4
$T203336 = -25						; size = 1
_pos$201122 = -24					; size = 4
_key$201123 = -20					; size = 4
_pane$201124 = -16					; size = 4
__$EHRec$ = -12						; size = 12
_bShow$ = 8						; size = 1
?showPane@PaneMulti@ETSLayoutMgr@@UAEX_N@Z PROC NEAR	; ETSLayoutMgr::PaneMulti::showPane
; _this$ = ecx

; 522  : {

  01720	55		 push	 ebp
  01721	8b ec		 mov	 ebp, esp
  01723	6a ff		 push	 -1
  01725	68 00 00 00 00	 push	 __ehhandler$?showPane@PaneMulti@ETSLayoutMgr@@UAEX_N@Z
  0172a	64 a1 00 00 00
	00		 mov	 eax, DWORD PTR fs:__except_list
  01730	50		 push	 eax
  01731	64 89 25 00 00
	00 00		 mov	 DWORD PTR fs:__except_list, esp
  01738	83 ec 2c	 sub	 esp, 44			; 0000002cH
  0173b	89 4d d8	 mov	 DWORD PTR _this$[ebp], ecx
  0173e	c7 45 dc 00 00
	00 00		 mov	 DWORD PTR $T203340[ebp], 0

; 523  : 	m_bShow = bShow;

  01745	8b 45 d8	 mov	 eax, DWORD PTR _this$[ebp]
  01748	8a 4d 08	 mov	 cl, BYTE PTR _bShow$[ebp]
  0174b	88 48 1c	 mov	 BYTE PTR [eax+28], cl

; 524  : 
; 525  : 	if(m_paneCurrent.IsValid())

  0174e	8b 4d d8	 mov	 ecx, DWORD PTR _this$[ebp]
  01751	81 c1 88 00 00
	00		 add	 ecx, 136		; 00000088H
  01757	e8 00 00 00 00	 call	 ?IsValid@CPaneBase@ETSLayoutMgr@@QAE_NXZ ; ETSLayoutMgr::CPaneBase::IsValid
  0175c	0f b6 d0	 movzx	 edx, al
  0175f	85 d2		 test	 edx, edx
  01761	0f 84 a1 00 00
	00		 je	 $L201115

; 526  : 	{
; 527  : 		m_paneCurrent.GetPaneBase()->showPane(bShow); 

  01767	8b 4d d8	 mov	 ecx, DWORD PTR _this$[ebp]
  0176a	81 c1 88 00 00
	00		 add	 ecx, 136		; 00000088H
  01770	e8 00 00 00 00	 call	 ?GetPaneBase@CPaneBase@ETSLayoutMgr@@QAEPAVPaneBase@2@XZ ; ETSLayoutMgr::CPaneBase::GetPaneBase
  01775	89 45 d4	 mov	 DWORD PTR tv74[ebp], eax
  01778	8a 45 08	 mov	 al, BYTE PTR _bShow$[ebp]
  0177b	50		 push	 eax
  0177c	8b 4d d4	 mov	 ecx, DWORD PTR tv74[ebp]
  0177f	8b 11		 mov	 edx, DWORD PTR [ecx]
  01781	8b 4d d4	 mov	 ecx, DWORD PTR tv74[ebp]
  01784	ff 52 24	 call	 DWORD PTR [edx+36]

; 528  : 		if(m_paneCurrent.GetPaneBase()->GetName() == "SearchResult" && bShow)

  01787	8d 45 e0	 lea	 eax, DWORD PTR $T203337[ebp]
  0178a	50		 push	 eax
  0178b	8b 4d d8	 mov	 ecx, DWORD PTR _this$[ebp]
  0178e	81 c1 88 00 00
	00		 add	 ecx, 136		; 00000088H
  01794	e8 00 00 00 00	 call	 ?GetPaneBase@CPaneBase@ETSLayoutMgr@@QAEPAVPaneBase@2@XZ ; ETSLayoutMgr::CPaneBase::GetPaneBase
  01799	8b c8		 mov	 ecx, eax
  0179b	e8 00 00 00 00	 call	 ?GetName@PaneBase@ETSLayoutMgr@@QAE?AV?$CStringT@DV?$StrTraitMFC_DLL@DV?$ChTraitsCRT@D@ATL@@@@@ATL@@XZ ; ETSLayoutMgr::PaneBase::GetName
  017a0	89 45 d0	 mov	 DWORD PTR tv157[ebp], eax
  017a3	8b 4d dc	 mov	 ecx, DWORD PTR $T203340[ebp]
  017a6	83 c9 01	 or	 ecx, 1
  017a9	89 4d dc	 mov	 DWORD PTR $T203340[ebp], ecx
  017ac	68 00 00 00 00	 push	 OFFSET FLAT:$SG201119
  017b1	8b 55 d0	 mov	 edx, DWORD PTR tv157[ebp]
  017b4	52		 push	 edx
  017b5	e8 00 00 00 00	 call	 ??8ATL@@YA_NABV?$CStringT@DV?$StrTraitMFC_DLL@DV?$ChTraitsCRT@D@ATL@@@@@0@PBD@Z ; ATL::operator==
  017ba	83 c4 08	 add	 esp, 8
  017bd	0f b6 c0	 movzx	 eax, al
  017c0	85 c0		 test	 eax, eax
  017c2	74 11		 je	 SHORT $L203338
  017c4	0f b6 4d 08	 movzx	 ecx, BYTE PTR _bShow$[ebp]
  017c8	85 c9		 test	 ecx, ecx
  017ca	74 09		 je	 SHORT $L203338
  017cc	c7 45 cc 01 00
	00 00		 mov	 DWORD PTR tv93[ebp], 1
  017d3	eb 07		 jmp	 SHORT $L203339
$L203338:
  017d5	c7 45 cc 00 00
	00 00		 mov	 DWORD PTR tv93[ebp], 0
$L203339:
  017dc	8a 55 cc	 mov	 dl, BYTE PTR tv93[ebp]
  017df	88 55 e7	 mov	 BYTE PTR $T203336[ebp], dl
  017e2	8b 45 dc	 mov	 eax, DWORD PTR $T203340[ebp]
  017e5	83 e0 01	 and	 eax, 1
  017e8	74 0d		 je	 SHORT $L203343
  017ea	83 65 dc fe	 and	 DWORD PTR $T203340[ebp], -2 ; fffffffeH
  017ee	8d 4d e0	 lea	 ecx, DWORD PTR $T203337[ebp]
  017f1	ff 15 00 00 00
	00		 call	 DWORD PTR __imp_??1?$CStringT@DV?$StrTraitMFC_DLL@DV?$ChTraitsCRT@D@ATL@@@@@ATL@@QAE@XZ
$L203343:
  017f7	0f b6 4d e7	 movzx	 ecx, BYTE PTR $T203336[ebp]
  017fb	85 c9		 test	 ecx, ecx
  017fd	74 04		 je	 SHORT $L201117

; 529  : 			bShow = true;

  017ff	c6 45 08 01	 mov	 BYTE PTR _bShow$[ebp], 1
$L201117:

; 530  : 	}
; 531  : 	else if(bShow == false)

  01803	e9 8f 00 00 00	 jmp	 $L201114
$L201115:
  01808	0f b6 55 08	 movzx	 edx, BYTE PTR _bShow$[ebp]
  0180c	85 d2		 test	 edx, edx
  0180e	0f 85 83 00 00
	00		 jne	 $L201114

; 532  : 	{
; 533  : 		POSITION pos = m_mapLayers.GetStartPosition();

  01814	8b 4d d8	 mov	 ecx, DWORD PTR _this$[ebp]
  01817	81 c1 8c 00 00
	00		 add	 ecx, 140		; 0000008cH
  0181d	e8 00 00 00 00	 call	 ?GetStartPosition@?$CMap@V?$CStringT@DV?$StrTraitMFC_DLL@DV?$ChTraitsCRT@D@ATL@@@@@ATL@@PBDVCPaneBase@ETSLayoutMgr@@V34@@@QBEPAU__POSITION@@XZ ; CMap<ATL::CStringT<char,StrTraitMFC_DLL<char,ATL::ChTraitsCRT<char> > >,char const *,ETSLayoutMgr::CPaneBase,ETSLayoutMgr::CPaneBase>::GetStartPosition
  01822	89 45 e8	 mov	 DWORD PTR _pos$201122[ebp], eax

; 534  : 		CString key;

  01825	8d 4d ec	 lea	 ecx, DWORD PTR _key$201123[ebp]
  01828	ff 15 00 00 00
	00		 call	 DWORD PTR __imp_??0?$CStringT@DV?$StrTraitMFC_DLL@DV?$ChTraitsCRT@D@ATL@@@@@ATL@@QAE@XZ
  0182e	c7 45 fc 00 00
	00 00		 mov	 DWORD PTR __$EHRec$[ebp+8], 0

; 535  : 		CPaneBase	pane;

  01835	8d 4d f0	 lea	 ecx, DWORD PTR _pane$201124[ebp]
  01838	e8 00 00 00 00	 call	 ??0CPaneBase@ETSLayoutMgr@@QAE@XZ ; ETSLayoutMgr::CPaneBase::CPaneBase
  0183d	c6 45 fc 01	 mov	 BYTE PTR __$EHRec$[ebp+8], 1
$L201126:

; 536  : 		while (pos != NULL)

  01841	83 7d e8 00	 cmp	 DWORD PTR _pos$201122[ebp], 0
  01845	74 34		 je	 SHORT $L201127

; 537  : 		{
; 538  : 			m_mapLayers.GetNextAssoc( pos, key, pane );

  01847	8d 45 f0	 lea	 eax, DWORD PTR _pane$201124[ebp]
  0184a	50		 push	 eax
  0184b	8d 4d ec	 lea	 ecx, DWORD PTR _key$201123[ebp]
  0184e	51		 push	 ecx
  0184f	8d 55 e8	 lea	 edx, DWORD PTR _pos$201122[ebp]
  01852	52		 push	 edx
  01853	8b 4d d8	 mov	 ecx, DWORD PTR _this$[ebp]
  01856	81 c1 8c 00 00
	00		 add	 ecx, 140		; 0000008cH
  0185c	e8 00 00 00 00	 call	 ?GetNextAssoc@?$CMap@V?$CStringT@DV?$StrTraitMFC_DLL@DV?$ChTraitsCRT@D@ATL@@@@@ATL@@PBDVCPaneBase@ETSLayoutMgr@@V34@@@QBEXAAPAU__POSITION@@AAV?$CStringT@DV?$StrTraitMFC_DLL@DV?$ChTraitsCRT@D@ATL@@@@@ATL@@AAVCPaneBase@ETSLayoutMgr@@@Z ; CMap<ATL::CStringT<char,StrTraitMFC_DLL<char,ATL::ChTraitsCRT<char> > >,char const *,ETSLayoutMgr::CPaneBase,ETSLayoutMgr::CPaneBase>::GetNextAssoc

; 539  : 			pane.GetPaneBase()->showPane(false);

  01861	8d 4d f0	 lea	 ecx, DWORD PTR _pane$201124[ebp]
  01864	e8 00 00 00 00	 call	 ?GetPaneBase@CPaneBase@ETSLayoutMgr@@QAEPAVPaneBase@2@XZ ; ETSLayoutMgr::CPaneBase::GetPaneBase
  01869	89 45 c8	 mov	 DWORD PTR tv149[ebp], eax
  0186c	6a 00		 push	 0
  0186e	8b 45 c8	 mov	 eax, DWORD PTR tv149[ebp]
  01871	8b 10		 mov	 edx, DWORD PTR [eax]
  01873	8b 4d c8	 mov	 ecx, DWORD PTR tv149[ebp]
  01876	ff 52 24	 call	 DWORD PTR [edx+36]

; 540  : 		}

  01879	eb c6		 jmp	 SHORT $L201126
$L201127:

; 541  : 	}

  0187b	c6 45 fc 00	 mov	 BYTE PTR __$EHRec$[ebp+8], 0
  0187f	8d 4d f0	 lea	 ecx, DWORD PTR _pane$201124[ebp]
  01882	e8 00 00 00 00	 call	 ??1CPaneBase@ETSLayoutMgr@@QAE@XZ ; ETSLayoutMgr::CPaneBase::~CPaneBase
  01887	c7 45 fc ff ff
	ff ff		 mov	 DWORD PTR __$EHRec$[ebp+8], -1
  0188e	8d 4d ec	 lea	 ecx, DWORD PTR _key$201123[ebp]
  01891	ff 15 00 00 00
	00		 call	 DWORD PTR __imp_??1?$CStringT@DV?$StrTraitMFC_DLL@DV?$ChTraitsCRT@D@ATL@@@@@ATL@@QAE@XZ
$L201114:

; 542  : }

  01897	8b 4d f4	 mov	 ecx, DWORD PTR __$EHRec$[ebp]
  0189a	64 89 0d 00 00
	00 00		 mov	 DWORD PTR fs:__except_list, ecx
  018a1	8b e5		 mov	 esp, ebp
  018a3	5d		 pop	 ebp
  018a4	c2 04 00	 ret	 4
_TEXT	ENDS
text$x	SEGMENT
$L203344:
  0016a	8d 4d ec	 lea	 ecx, DWORD PTR _key$201123[ebp]
  0016d	ff 25 00 00 00
	00		 jmp	 DWORD PTR __imp_??1?$CStringT@DV?$StrTraitMFC_DLL@DV?$ChTraitsCRT@D@ATL@@@@@ATL@@QAE@XZ
$L203345:
  00173	8d 4d f0	 lea	 ecx, DWORD PTR _pane$201124[ebp]
  00176	e9 00 00 00 00	 jmp	 ??1CPaneBase@ETSLayoutMgr@@QAE@XZ ; ETSLayoutMgr::CPaneBase::~CPaneBase
__ehhandler$?showPane@PaneMulti@ETSLayoutMgr@@UAEX_N@Z:
  0017b	b8 00 00 00 00	 mov	 eax, OFFSET FLAT:$T203347
  00180	e9 00 00 00 00	 jmp	 ___CxxFrameHandler
text$x	ENDS
?showPane@PaneMulti@ETSLayoutMgr@@UAEX_N@Z ENDP		; ETSLayoutMgr::PaneMulti::showPane
EXTRN	__imp_??0?$CStringT@DV?$StrTraitMFC_DLL@DV?$ChTraitsCRT@D@ATL@@@@@ATL@@QAE@ABV01@@Z:NEAR
; Function compile flags: /Odt
; File d:\boxgit\playbox\playbox\dev\prj\playbox\src\layoutmgr\etslayout.h
;	COMDAT ?GetName@PaneBase@ETSLayoutMgr@@QAE?AV?$CStringT@DV?$StrTraitMFC_DLL@DV?$ChTraitsCRT@D@ATL@@@@@ATL@@XZ
_TEXT	SEGMENT
_this$ = -8						; size = 4
$T203352 = -4						; size = 4
___$ReturnUdt$ = 8					; size = 4
?GetName@PaneBase@ETSLayoutMgr@@QAE?AV?$CStringT@DV?$StrTraitMFC_DLL@DV?$ChTraitsCRT@D@ATL@@@@@ATL@@XZ PROC NEAR ; ETSLayoutMgr::PaneBase::GetName, COMDAT
; _this$ = ecx

; 306  : 		CString GetName(){return m_strName;};

  00000	55		 push	 ebp
  00001	8b ec		 mov	 ebp, esp
  00003	83 ec 08	 sub	 esp, 8
  00006	89 4d f8	 mov	 DWORD PTR _this$[ebp], ecx
  00009	c7 45 fc 00 00
	00 00		 mov	 DWORD PTR $T203352[ebp], 0
  00010	8b 45 f8	 mov	 eax, DWORD PTR _this$[ebp]
  00013	83 c0 20	 add	 eax, 32			; 00000020H
  00016	50		 push	 eax
  00017	8b 4d 08	 mov	 ecx, DWORD PTR ___$ReturnUdt$[ebp]
  0001a	ff 15 00 00 00
	00		 call	 DWORD PTR __imp_??0?$CStringT@DV?$StrTraitMFC_DLL@DV?$ChTraitsCRT@D@ATL@@@@@ATL@@QAE@ABV01@@Z
  00020	8b 4d fc	 mov	 ecx, DWORD PTR $T203352[ebp]
  00023	83 c9 01	 or	 ecx, 1
  00026	89 4d fc	 mov	 DWORD PTR $T203352[ebp], ecx
  00029	8b 45 08	 mov	 eax, DWORD PTR ___$ReturnUdt$[ebp]
  0002c	8b e5		 mov	 esp, ebp
  0002e	5d		 pop	 ebp
  0002f	c2 04 00	 ret	 4
?GetName@PaneBase@ETSLayoutMgr@@QAE?AV?$CStringT@DV?$StrTraitMFC_DLL@DV?$ChTraitsCRT@D@ATL@@@@@ATL@@XZ ENDP ; ETSLayoutMgr::PaneBase::GetName
; Function compile flags: /Odt
_TEXT	ENDS
;	COMDAT ?GetPaneBase@CPaneBase@ETSLayoutMgr@@QAEPAVPaneBase@2@XZ
_TEXT	SEGMENT
_this$ = -4						; size = 4
?GetPaneBase@CPaneBase@ETSLayoutMgr@@QAEPAVPaneBase@2@XZ PROC NEAR ; ETSLayoutMgr::CPaneBase::GetPaneBase, COMDAT
; _this$ = ecx

; 388  : 		PaneBase* GetPaneBase()	{ return operator->(); }

  00000	55		 push	 ebp
  00001	8b ec		 mov	 ebp, esp
  00003	51		 push	 ecx
  00004	89 4d fc	 mov	 DWORD PTR _this$[ebp], ecx
  00007	8b 4d fc	 mov	 ecx, DWORD PTR _this$[ebp]
  0000a	e8 00 00 00 00	 call	 ??CCPaneBase@ETSLayoutMgr@@QBEPAVPaneBase@1@XZ ; ETSLayoutMgr::CPaneBase::operator->
  0000f	8b e5		 mov	 esp, ebp
  00011	5d		 pop	 ebp
  00012	c3		 ret	 0
?GetPaneBase@CPaneBase@ETSLayoutMgr@@QAEPAVPaneBase@2@XZ ENDP ; ETSLayoutMgr::CPaneBase::GetPaneBase
; Function compile flags: /Odt
_TEXT	ENDS
;	COMDAT ?IsValid@CPaneBase@ETSLayoutMgr@@QAE_NXZ
_TEXT	SEGMENT
_this$ = -4						; size = 4
?IsValid@CPaneBase@ETSLayoutMgr@@QAE_NXZ PROC NEAR	; ETSLayoutMgr::CPaneBase::IsValid, COMDAT
; _this$ = ecx

; 391  : 		bool IsValid()			{ return (m_pPaneHolder != 0); }

  00000	55		 push	 ebp
  00001	8b ec		 mov	 ebp, esp
  00003	51		 push	 ecx
  00004	89 4d fc	 mov	 DWORD PTR _this$[ebp], ecx
  00007	8b 45 fc	 mov	 eax, DWORD PTR _this$[ebp]
  0000a	33 c9		 xor	 ecx, ecx
  0000c	83 38 00	 cmp	 DWORD PTR [eax], 0
  0000f	0f 95 c1	 setne	 cl
  00012	8a c1		 mov	 al, cl
  00014	8b e5		 mov	 esp, ebp
  00016	5d		 pop	 ebp
  00017	c3		 ret	 0
?IsValid@CPaneBase@ETSLayoutMgr@@QAE_NXZ ENDP		; ETSLayoutMgr::CPaneBase::IsValid
_TEXT	ENDS
PUBLIC	?GetSubPane@PaneMulti@ETSLayoutMgr@@UAE?AVCPaneBase@2@V?$CStringT@DV?$StrTraitMFC_DLL@DV?$ChTraitsCRT@D@ATL@@@@@ATL@@@Z ; ETSLayoutMgr::PaneMulti::GetSubPane
EXTRN	??0CPaneBase@ETSLayoutMgr@@QAE@PAVPaneBase@1@@Z:NEAR ; ETSLayoutMgr::CPaneBase::CPaneBase
xdata$x	SEGMENT
$T203372 DD	0ffffffffH
	DD	FLAT:$L203366
	DD	00H
	DD	FLAT:$L203361
	DD	01H
	DD	FLAT:$L203362
	DD	02H
	DD	FLAT:$L203363
	DD	03H
	DD	FLAT:$L203364
	DD	03H
	DD	FLAT:$L203365
$T203370 DD	019930520H
	DD	06H
	DD	FLAT:$T203372
	DD	2 DUP(00H)
	DD	2 DUP(00H)
; Function compile flags: /Odt
; File d:\boxgit\playbox\playbox\dev\prj\playbox\src\layoutmgr\etslayoutex.cpp
xdata$x	ENDS
_TEXT	SEGMENT
tv152 = -56						; size = 4
tv83 = -52						; size = 4
tv151 = -48						; size = 4
tv72 = -44						; size = 4
_this$ = -40						; size = 4
$T203367 = -36						; size = 4
$T203360 = -32						; size = 4
_pSubPane$201139 = -28					; size = 4
_pos$ = -24						; size = 4
_key$ = -20						; size = 4
_pane$ = -16						; size = 4
__$EHRec$ = -12						; size = 12
___$ReturnUdt$ = 8					; size = 4
_name$ = 12						; size = 4
?GetSubPane@PaneMulti@ETSLayoutMgr@@UAE?AVCPaneBase@2@V?$CStringT@DV?$StrTraitMFC_DLL@DV?$ChTraitsCRT@D@ATL@@@@@ATL@@@Z PROC NEAR ; ETSLayoutMgr::PaneMulti::GetSubPane
; _this$ = ecx

; 545  : {

  018b0	55		 push	 ebp
  018b1	8b ec		 mov	 ebp, esp
  018b3	6a ff		 push	 -1
  018b5	68 00 00 00 00	 push	 __ehhandler$?GetSubPane@PaneMulti@ETSLayoutMgr@@UAE?AVCPaneBase@2@V?$CStringT@DV?$StrTraitMFC_DLL@DV?$ChTraitsCRT@D@ATL@@@@@ATL@@@Z
  018ba	64 a1 00 00 00
	00		 mov	 eax, DWORD PTR fs:__except_list
  018c0	50		 push	 eax
  018c1	64 89 25 00 00
	00 00		 mov	 DWORD PTR fs:__except_list, esp
  018c8	83 ec 2c	 sub	 esp, 44			; 0000002cH
  018cb	89 4d d8	 mov	 DWORD PTR _this$[ebp], ecx
  018ce	c7 45 dc 00 00
	00 00		 mov	 DWORD PTR $T203367[ebp], 0
  018d5	c7 45 fc 01 00
	00 00		 mov	 DWORD PTR __$EHRec$[ebp+8], 1

; 546  : 	POSITION pos = m_mapLayers.GetStartPosition();

  018dc	8b 4d d8	 mov	 ecx, DWORD PTR _this$[ebp]
  018df	81 c1 8c 00 00
	00		 add	 ecx, 140		; 0000008cH
  018e5	e8 00 00 00 00	 call	 ?GetStartPosition@?$CMap@V?$CStringT@DV?$StrTraitMFC_DLL@DV?$ChTraitsCRT@D@ATL@@@@@ATL@@PBDVCPaneBase@ETSLayoutMgr@@V34@@@QBEPAU__POSITION@@XZ ; CMap<ATL::CStringT<char,StrTraitMFC_DLL<char,ATL::ChTraitsCRT<char> > >,char const *,ETSLayoutMgr::CPaneBase,ETSLayoutMgr::CPaneBase>::GetStartPosition
  018ea	89 45 e8	 mov	 DWORD PTR _pos$[ebp], eax

; 547  : 	CString key;

  018ed	8d 4d ec	 lea	 ecx, DWORD PTR _key$[ebp]
  018f0	ff 15 00 00 00
	00		 call	 DWORD PTR __imp_??0?$CStringT@DV?$StrTraitMFC_DLL@DV?$ChTraitsCRT@D@ATL@@@@@ATL@@QAE@XZ
  018f6	c6 45 fc 02	 mov	 BYTE PTR __$EHRec$[ebp+8], 2

; 548  : 	CPaneBase	pane;

  018fa	8d 4d f0	 lea	 ecx, DWORD PTR _pane$[ebp]
  018fd	e8 00 00 00 00	 call	 ??0CPaneBase@ETSLayoutMgr@@QAE@XZ ; ETSLayoutMgr::CPaneBase::CPaneBase
  01902	c6 45 fc 03	 mov	 BYTE PTR __$EHRec$[ebp+8], 3
$L201137:

; 549  : 	while (pos != NULL)

  01906	83 7d e8 00	 cmp	 DWORD PTR _pos$[ebp], 0
  0190a	0f 84 c8 00 00
	00		 je	 $L201138

; 550  : 	{
; 551  : 		m_mapLayers.GetNextAssoc( pos, key, pane );

  01910	8d 45 f0	 lea	 eax, DWORD PTR _pane$[ebp]
  01913	50		 push	 eax
  01914	8d 4d ec	 lea	 ecx, DWORD PTR _key$[ebp]
  01917	51		 push	 ecx
  01918	8d 55 e8	 lea	 edx, DWORD PTR _pos$[ebp]
  0191b	52		 push	 edx
  0191c	8b 4d d8	 mov	 ecx, DWORD PTR _this$[ebp]
  0191f	81 c1 8c 00 00
	00		 add	 ecx, 140		; 0000008cH
  01925	e8 00 00 00 00	 call	 ?GetNextAssoc@?$CMap@V?$CStringT@DV?$StrTraitMFC_DLL@DV?$ChTraitsCRT@D@ATL@@@@@ATL@@PBDVCPaneBase@ETSLayoutMgr@@V34@@@QBEXAAPAU__POSITION@@AAV?$CStringT@DV?$StrTraitMFC_DLL@DV?$ChTraitsCRT@D@ATL@@@@@ATL@@AAVCPaneBase@ETSLayoutMgr@@@Z ; CMap<ATL::CStringT<char,StrTraitMFC_DLL<char,ATL::ChTraitsCRT<char> > >,char const *,ETSLayoutMgr::CPaneBase,ETSLayoutMgr::CPaneBase>::GetNextAssoc

; 552  : 		CPaneBase pSubPane = pane->GetSubPane(name);

  0192a	51		 push	 ecx
  0192b	8b cc		 mov	 ecx, esp
  0192d	89 65 e0	 mov	 DWORD PTR $T203360[ebp], esp
  01930	8d 45 0c	 lea	 eax, DWORD PTR _name$[ebp]
  01933	50		 push	 eax
  01934	ff 15 00 00 00
	00		 call	 DWORD PTR __imp_??0?$CStringT@DV?$StrTraitMFC_DLL@DV?$ChTraitsCRT@D@ATL@@@@@ATL@@QAE@ABV01@@Z
  0193a	89 45 d4	 mov	 DWORD PTR tv72[ebp], eax
  0193d	8b 4d d4	 mov	 ecx, DWORD PTR tv72[ebp]
  01940	89 4d d0	 mov	 DWORD PTR tv151[ebp], ecx
  01943	c6 45 fc 04	 mov	 BYTE PTR __$EHRec$[ebp+8], 4
  01947	8d 4d f0	 lea	 ecx, DWORD PTR _pane$[ebp]
  0194a	e8 00 00 00 00	 call	 ??CCPaneBase@ETSLayoutMgr@@QBEPAVPaneBase@1@XZ ; ETSLayoutMgr::CPaneBase::operator->
  0194f	89 45 cc	 mov	 DWORD PTR tv83[ebp], eax
  01952	8d 55 e4	 lea	 edx, DWORD PTR _pSubPane$201139[ebp]
  01955	52		 push	 edx
  01956	8b 45 cc	 mov	 eax, DWORD PTR tv83[ebp]
  01959	8b 10		 mov	 edx, DWORD PTR [eax]
  0195b	c6 45 fc 03	 mov	 BYTE PTR __$EHRec$[ebp+8], 3
  0195f	8b 4d cc	 mov	 ecx, DWORD PTR tv83[ebp]
  01962	ff 52 1c	 call	 DWORD PTR [edx+28]
  01965	89 45 c8	 mov	 DWORD PTR tv152[ebp], eax
  01968	c6 45 fc 05	 mov	 BYTE PTR __$EHRec$[ebp+8], 5

; 553  : 		if(pSubPane.IsValid())

  0196c	8d 4d e4	 lea	 ecx, DWORD PTR _pSubPane$201139[ebp]
  0196f	e8 00 00 00 00	 call	 ?IsValid@CPaneBase@ETSLayoutMgr@@QAE_NXZ ; ETSLayoutMgr::CPaneBase::IsValid
  01974	0f b6 c0	 movzx	 eax, al
  01977	85 c0		 test	 eax, eax
  01979	74 4c		 je	 SHORT $L201142

; 554  : 			return pSubPane;

  0197b	8d 4d e4	 lea	 ecx, DWORD PTR _pSubPane$201139[ebp]
  0197e	51		 push	 ecx
  0197f	8b 4d 08	 mov	 ecx, DWORD PTR ___$ReturnUdt$[ebp]
  01982	e8 00 00 00 00	 call	 ??0CPaneBase@ETSLayoutMgr@@QAE@ABV01@@Z ; ETSLayoutMgr::CPaneBase::CPaneBase
  01987	8b 55 dc	 mov	 edx, DWORD PTR $T203367[ebp]
  0198a	83 ca 01	 or	 edx, 1
  0198d	89 55 dc	 mov	 DWORD PTR $T203367[ebp], edx
  01990	c6 45 fc 03	 mov	 BYTE PTR __$EHRec$[ebp+8], 3
  01994	8d 4d e4	 lea	 ecx, DWORD PTR _pSubPane$201139[ebp]
  01997	e8 00 00 00 00	 call	 ??1CPaneBase@ETSLayoutMgr@@QAE@XZ ; ETSLayoutMgr::CPaneBase::~CPaneBase
  0199c	c6 45 fc 02	 mov	 BYTE PTR __$EHRec$[ebp+8], 2
  019a0	8d 4d f0	 lea	 ecx, DWORD PTR _pane$[ebp]
  019a3	e8 00 00 00 00	 call	 ??1CPaneBase@ETSLayoutMgr@@QAE@XZ ; ETSLayoutMgr::CPaneBase::~CPaneBase
  019a8	c6 45 fc 01	 mov	 BYTE PTR __$EHRec$[ebp+8], 1
  019ac	8d 4d ec	 lea	 ecx, DWORD PTR _key$[ebp]
  019af	ff 15 00 00 00
	00		 call	 DWORD PTR __imp_??1?$CStringT@DV?$StrTraitMFC_DLL@DV?$ChTraitsCRT@D@ATL@@@@@ATL@@QAE@XZ
  019b5	c6 45 fc 00	 mov	 BYTE PTR __$EHRec$[ebp+8], 0
  019b9	8d 4d 0c	 lea	 ecx, DWORD PTR _name$[ebp]
  019bc	ff 15 00 00 00
	00		 call	 DWORD PTR __imp_??1?$CStringT@DV?$StrTraitMFC_DLL@DV?$ChTraitsCRT@D@ATL@@@@@ATL@@QAE@XZ
  019c2	8b 45 08	 mov	 eax, DWORD PTR ___$ReturnUdt$[ebp]
  019c5	eb 4d		 jmp	 SHORT $L201132
$L201142:

; 555  : 	}

  019c7	c6 45 fc 03	 mov	 BYTE PTR __$EHRec$[ebp+8], 3
  019cb	8d 4d e4	 lea	 ecx, DWORD PTR _pSubPane$201139[ebp]
  019ce	e8 00 00 00 00	 call	 ??1CPaneBase@ETSLayoutMgr@@QAE@XZ ; ETSLayoutMgr::CPaneBase::~CPaneBase
  019d3	e9 2e ff ff ff	 jmp	 $L201137
$L201138:

; 556  : 	return NULL;

  019d8	6a 00		 push	 0
  019da	8b 4d 08	 mov	 ecx, DWORD PTR ___$ReturnUdt$[ebp]
  019dd	e8 00 00 00 00	 call	 ??0CPaneBase@ETSLayoutMgr@@QAE@PAVPaneBase@1@@Z ; ETSLayoutMgr::CPaneBase::CPaneBase
  019e2	8b 45 dc	 mov	 eax, DWORD PTR $T203367[ebp]
  019e5	83 c8 01	 or	 eax, 1
  019e8	89 45 dc	 mov	 DWORD PTR $T203367[ebp], eax
  019eb	c6 45 fc 02	 mov	 BYTE PTR __$EHRec$[ebp+8], 2
  019ef	8d 4d f0	 lea	 ecx, DWORD PTR _pane$[ebp]
  019f2	e8 00 00 00 00	 call	 ??1CPaneBase@ETSLayoutMgr@@QAE@XZ ; ETSLayoutMgr::CPaneBase::~CPaneBase
  019f7	c6 45 fc 01	 mov	 BYTE PTR __$EHRec$[ebp+8], 1
  019fb	8d 4d ec	 lea	 ecx, DWORD PTR _key$[ebp]
  019fe	ff 15 00 00 00
	00		 call	 DWORD PTR __imp_??1?$CStringT@DV?$StrTraitMFC_DLL@DV?$ChTraitsCRT@D@ATL@@@@@ATL@@QAE@XZ
  01a04	c6 45 fc 00	 mov	 BYTE PTR __$EHRec$[ebp+8], 0
  01a08	8d 4d 0c	 lea	 ecx, DWORD PTR _name$[ebp]
  01a0b	ff 15 00 00 00
	00		 call	 DWORD PTR __imp_??1?$CStringT@DV?$StrTraitMFC_DLL@DV?$ChTraitsCRT@D@ATL@@@@@ATL@@QAE@XZ
  01a11	8b 45 08	 mov	 eax, DWORD PTR ___$ReturnUdt$[ebp]
$L201132:

; 557  : }

  01a14	8b 4d f4	 mov	 ecx, DWORD PTR __$EHRec$[ebp]
  01a17	64 89 0d 00 00
	00 00		 mov	 DWORD PTR fs:__except_list, ecx
  01a1e	8b e5		 mov	 esp, ebp
  01a20	5d		 pop	 ebp
  01a21	c2 08 00	 ret	 8
_TEXT	ENDS
text$x	SEGMENT
$L203361:
  00185	8d 4d 0c	 lea	 ecx, DWORD PTR _name$[ebp]
  00188	ff 25 00 00 00
	00		 jmp	 DWORD PTR __imp_??1?$CStringT@DV?$StrTraitMFC_DLL@DV?$ChTraitsCRT@D@ATL@@@@@ATL@@QAE@XZ
$L203362:
  0018e	8d 4d ec	 lea	 ecx, DWORD PTR _key$[ebp]
  00191	ff 25 00 00 00
	00		 jmp	 DWORD PTR __imp_??1?$CStringT@DV?$StrTraitMFC_DLL@DV?$ChTraitsCRT@D@ATL@@@@@ATL@@QAE@XZ
$L203363:
  00197	8d 4d f0	 lea	 ecx, DWORD PTR _pane$[ebp]
  0019a	e9 00 00 00 00	 jmp	 ??1CPaneBase@ETSLayoutMgr@@QAE@XZ ; ETSLayoutMgr::CPaneBase::~CPaneBase
$L203364:
  0019f	8b 4d e0	 mov	 ecx, DWORD PTR $T203360[ebp]
  001a2	ff 25 00 00 00
	00		 jmp	 DWORD PTR __imp_??1?$CStringT@DV?$StrTraitMFC_DLL@DV?$ChTraitsCRT@D@ATL@@@@@ATL@@QAE@XZ
$L203365:
  001a8	8d 4d e4	 lea	 ecx, DWORD PTR _pSubPane$201139[ebp]
  001ab	e9 00 00 00 00	 jmp	 ??1CPaneBase@ETSLayoutMgr@@QAE@XZ ; ETSLayoutMgr::CPaneBase::~CPaneBase
$L203366:
  001b0	8b 45 dc	 mov	 eax, DWORD PTR $T203367[ebp]
  001b3	83 e0 01	 and	 eax, 1
  001b6	0f 84 0c 00 00
	00		 je	 $L203368
  001bc	83 65 dc fe	 and	 DWORD PTR $T203367[ebp], -2 ; fffffffeH
  001c0	8b 4d 08	 mov	 ecx, DWORD PTR ___$ReturnUdt$[ebp]
  001c3	e9 00 00 00 00	 jmp	 ??1CPaneBase@ETSLayoutMgr@@QAE@XZ ; ETSLayoutMgr::CPaneBase::~CPaneBase
$L203368:
  001c8	c3		 ret	 0
__ehhandler$?GetSubPane@PaneMulti@ETSLayoutMgr@@UAE?AVCPaneBase@2@V?$CStringT@DV?$StrTraitMFC_DLL@DV?$ChTraitsCRT@D@ATL@@@@@ATL@@@Z:
  001c9	b8 00 00 00 00	 mov	 eax, OFFSET FLAT:$T203370
  001ce	e9 00 00 00 00	 jmp	 ___CxxFrameHandler
text$x	ENDS
?GetSubPane@PaneMulti@ETSLayoutMgr@@UAE?AVCPaneBase@2@V?$CStringT@DV?$StrTraitMFC_DLL@DV?$ChTraitsCRT@D@ATL@@@@@ATL@@@Z ENDP ; ETSLayoutMgr::PaneMulti::GetSubPane
PUBLIC	?addLayer@PaneMulti@ETSLayoutMgr@@UAEXV?$CStringT@DV?$StrTraitMFC_DLL@DV?$ChTraitsCRT@D@ATL@@@@@ATL@@VCPaneBase@2@@Z ; ETSLayoutMgr::PaneMulti::addLayer
PUBLIC	?SetAt@?$CMap@V?$CStringT@DV?$StrTraitMFC_DLL@DV?$ChTraitsCRT@D@ATL@@@@@ATL@@PBDVCPaneBase@ETSLayoutMgr@@V34@@@QAEXPBDVCPaneBase@ETSLayoutMgr@@@Z ; CMap<ATL::CStringT<char,StrTraitMFC_DLL<char,ATL::ChTraitsCRT<char> > >,char const *,ETSLayoutMgr::CPaneBase,ETSLayoutMgr::CPaneBase>::SetAt
EXTRN	__imp_??B?$CSimpleStringT@D$00@ATL@@QBEPBDXZ:NEAR
xdata$x	SEGMENT
$T203381 DD	0ffffffffH
	DD	FLAT:$L203375
	DD	00H
	DD	FLAT:$L203376
$T203379 DD	019930520H
	DD	02H
	DD	FLAT:$T203381
	DD	2 DUP(00H)
	DD	2 DUP(00H)
; Function compile flags: /Odt
xdata$x	ENDS
_TEXT	SEGMENT
tv95 = -28						; size = 4
tv69 = -24						; size = 4
_this$ = -20						; size = 4
$T203374 = -16						; size = 4
__$EHRec$ = -12						; size = 12
_name$ = 8						; size = 4
_pane$ = 12						; size = 4
?addLayer@PaneMulti@ETSLayoutMgr@@UAEXV?$CStringT@DV?$StrTraitMFC_DLL@DV?$ChTraitsCRT@D@ATL@@@@@ATL@@VCPaneBase@2@@Z PROC NEAR ; ETSLayoutMgr::PaneMulti::addLayer
; _this$ = ecx

; 561  : {

  01a30	55		 push	 ebp
  01a31	8b ec		 mov	 ebp, esp
  01a33	6a ff		 push	 -1
  01a35	68 00 00 00 00	 push	 __ehhandler$?addLayer@PaneMulti@ETSLayoutMgr@@UAEXV?$CStringT@DV?$StrTraitMFC_DLL@DV?$ChTraitsCRT@D@ATL@@@@@ATL@@VCPaneBase@2@@Z
  01a3a	64 a1 00 00 00
	00		 mov	 eax, DWORD PTR fs:__except_list
  01a40	50		 push	 eax
  01a41	64 89 25 00 00
	00 00		 mov	 DWORD PTR fs:__except_list, esp
  01a48	83 ec 10	 sub	 esp, 16			; 00000010H
  01a4b	89 4d ec	 mov	 DWORD PTR _this$[ebp], ecx
  01a4e	c7 45 fc 01 00
	00 00		 mov	 DWORD PTR __$EHRec$[ebp+8], 1

; 562  : 	pane->showPane(false);

  01a55	8d 4d 0c	 lea	 ecx, DWORD PTR _pane$[ebp]
  01a58	e8 00 00 00 00	 call	 ??CCPaneBase@ETSLayoutMgr@@QBEPAVPaneBase@1@XZ ; ETSLayoutMgr::CPaneBase::operator->
  01a5d	89 45 e8	 mov	 DWORD PTR tv69[ebp], eax
  01a60	6a 00		 push	 0
  01a62	8b 45 e8	 mov	 eax, DWORD PTR tv69[ebp]
  01a65	8b 10		 mov	 edx, DWORD PTR [eax]
  01a67	8b 4d e8	 mov	 ecx, DWORD PTR tv69[ebp]
  01a6a	ff 52 24	 call	 DWORD PTR [edx+36]

; 563  : 	m_mapLayers.SetAt(name, pane);

  01a6d	51		 push	 ecx
  01a6e	8b cc		 mov	 ecx, esp
  01a70	89 65 f0	 mov	 DWORD PTR $T203374[ebp], esp
  01a73	8d 45 0c	 lea	 eax, DWORD PTR _pane$[ebp]
  01a76	50		 push	 eax
  01a77	e8 00 00 00 00	 call	 ??0CPaneBase@ETSLayoutMgr@@QAE@ABV01@@Z ; ETSLayoutMgr::CPaneBase::CPaneBase
  01a7c	89 45 e4	 mov	 DWORD PTR tv95[ebp], eax
  01a7f	8d 4d 08	 lea	 ecx, DWORD PTR _name$[ebp]
  01a82	ff 15 00 00 00
	00		 call	 DWORD PTR __imp_??B?$CSimpleStringT@D$00@ATL@@QBEPBDXZ
  01a88	50		 push	 eax
  01a89	8b 4d ec	 mov	 ecx, DWORD PTR _this$[ebp]
  01a8c	81 c1 8c 00 00
	00		 add	 ecx, 140		; 0000008cH
  01a92	e8 00 00 00 00	 call	 ?SetAt@?$CMap@V?$CStringT@DV?$StrTraitMFC_DLL@DV?$ChTraitsCRT@D@ATL@@@@@ATL@@PBDVCPaneBase@ETSLayoutMgr@@V34@@@QAEXPBDVCPaneBase@ETSLayoutMgr@@@Z ; CMap<ATL::CStringT<char,StrTraitMFC_DLL<char,ATL::ChTraitsCRT<char> > >,char const *,ETSLayoutMgr::CPaneBase,ETSLayoutMgr::CPaneBase>::SetAt

; 564  : }

  01a97	c6 45 fc 00	 mov	 BYTE PTR __$EHRec$[ebp+8], 0
  01a9b	8d 4d 08	 lea	 ecx, DWORD PTR _name$[ebp]
  01a9e	ff 15 00 00 00
	00		 call	 DWORD PTR __imp_??1?$CStringT@DV?$StrTraitMFC_DLL@DV?$ChTraitsCRT@D@ATL@@@@@ATL@@QAE@XZ
  01aa4	c7 45 fc ff ff
	ff ff		 mov	 DWORD PTR __$EHRec$[ebp+8], -1
  01aab	8d 4d 0c	 lea	 ecx, DWORD PTR _pane$[ebp]
  01aae	e8 00 00 00 00	 call	 ??1CPaneBase@ETSLayoutMgr@@QAE@XZ ; ETSLayoutMgr::CPaneBase::~CPaneBase
  01ab3	8b 4d f4	 mov	 ecx, DWORD PTR __$EHRec$[ebp]
  01ab6	64 89 0d 00 00
	00 00		 mov	 DWORD PTR fs:__except_list, ecx
  01abd	8b e5		 mov	 esp, ebp
  01abf	5d		 pop	 ebp
  01ac0	c2 08 00	 ret	 8
_TEXT	ENDS
text$x	SEGMENT
$L203375:
  001d3	8d 4d 0c	 lea	 ecx, DWORD PTR _pane$[ebp]
  001d6	e9 00 00 00 00	 jmp	 ??1CPaneBase@ETSLayoutMgr@@QAE@XZ ; ETSLayoutMgr::CPaneBase::~CPaneBase
$L203376:
  001db	8d 4d 08	 lea	 ecx, DWORD PTR _name$[ebp]
  001de	ff 25 00 00 00
	00		 jmp	 DWORD PTR __imp_??1?$CStringT@DV?$StrTraitMFC_DLL@DV?$ChTraitsCRT@D@ATL@@@@@ATL@@QAE@XZ
__ehhandler$?addLayer@PaneMulti@ETSLayoutMgr@@UAEXV?$CStringT@DV?$StrTraitMFC_DLL@DV?$ChTraitsCRT@D@ATL@@@@@ATL@@VCPaneBase@2@@Z:
  001e4	b8 00 00 00 00	 mov	 eax, OFFSET FLAT:$T203379
  001e9	e9 00 00 00 00	 jmp	 ___CxxFrameHandler
text$x	ENDS
?addLayer@PaneMulti@ETSLayoutMgr@@UAEXV?$CStringT@DV?$StrTraitMFC_DLL@DV?$ChTraitsCRT@D@ATL@@@@@ATL@@VCPaneBase@2@@Z ENDP ; ETSLayoutMgr::PaneMulti::addLayer
PUBLIC	?getCurrent@PaneMulti@ETSLayoutMgr@@QAE?AV?$CStringT@DV?$StrTraitMFC_DLL@DV?$ChTraitsCRT@D@ATL@@@@@ATL@@XZ ; ETSLayoutMgr::PaneMulti::getCurrent
; Function compile flags: /Odt
_TEXT	SEGMENT
_this$ = -8						; size = 4
$T203384 = -4						; size = 4
___$ReturnUdt$ = 8					; size = 4
?getCurrent@PaneMulti@ETSLayoutMgr@@QAE?AV?$CStringT@DV?$StrTraitMFC_DLL@DV?$ChTraitsCRT@D@ATL@@@@@ATL@@XZ PROC NEAR ; ETSLayoutMgr::PaneMulti::getCurrent
; _this$ = ecx

; 567  : {

  01ad0	55		 push	 ebp
  01ad1	8b ec		 mov	 ebp, esp
  01ad3	83 ec 08	 sub	 esp, 8
  01ad6	89 4d f8	 mov	 DWORD PTR _this$[ebp], ecx
  01ad9	c7 45 fc 00 00
	00 00		 mov	 DWORD PTR $T203384[ebp], 0

; 568  : 	return this->m_strCurrent;

  01ae0	8b 45 f8	 mov	 eax, DWORD PTR _this$[ebp]
  01ae3	05 84 00 00 00	 add	 eax, 132		; 00000084H
  01ae8	50		 push	 eax
  01ae9	8b 4d 08	 mov	 ecx, DWORD PTR ___$ReturnUdt$[ebp]
  01aec	ff 15 00 00 00
	00		 call	 DWORD PTR __imp_??0?$CStringT@DV?$StrTraitMFC_DLL@DV?$ChTraitsCRT@D@ATL@@@@@ATL@@QAE@ABV01@@Z
  01af2	8b 4d fc	 mov	 ecx, DWORD PTR $T203384[ebp]
  01af5	83 c9 01	 or	 ecx, 1
  01af8	89 4d fc	 mov	 DWORD PTR $T203384[ebp], ecx
  01afb	8b 45 08	 mov	 eax, DWORD PTR ___$ReturnUdt$[ebp]

; 569  : }

  01afe	8b e5		 mov	 esp, ebp
  01b00	5d		 pop	 ebp
  01b01	c2 04 00	 ret	 4
?getCurrent@PaneMulti@ETSLayoutMgr@@QAE?AV?$CStringT@DV?$StrTraitMFC_DLL@DV?$ChTraitsCRT@D@ATL@@@@@ATL@@XZ ENDP ; ETSLayoutMgr::PaneMulti::getCurrent
_TEXT	ENDS
PUBLIC	?RemoveAll@?$CArray@VCPaneBase@ETSLayoutMgr@@V12@@@QAEXXZ ; CArray<ETSLayoutMgr::CPaneBase,ETSLayoutMgr::CPaneBase>::RemoveAll
PUBLIC	?Lookup@?$CMap@V?$CStringT@DV?$StrTraitMFC_DLL@DV?$ChTraitsCRT@D@ATL@@@@@ATL@@PBDVCPaneBase@ETSLayoutMgr@@V34@@@QBEHPBDAAVCPaneBase@ETSLayoutMgr@@@Z ; CMap<ATL::CStringT<char,StrTraitMFC_DLL<char,ATL::ChTraitsCRT<char> > >,char const *,ETSLayoutMgr::CPaneBase,ETSLayoutMgr::CPaneBase>::Lookup
PUBLIC	?setCurrent@PaneMulti@ETSLayoutMgr@@QAE_NV?$CStringT@DV?$StrTraitMFC_DLL@DV?$ChTraitsCRT@D@ATL@@@@@ATL@@_N@Z ; ETSLayoutMgr::PaneMulti::setCurrent
EXTRN	__imp_??4?$CStringT@DV?$StrTraitMFC_DLL@DV?$ChTraitsCRT@D@ATL@@@@@ATL@@QAEAAV01@ABV01@@Z:NEAR
EXTRN	?AfxGetUIManager@@YAPAVIUIManager@@XZ:NEAR	; AfxGetUIManager
xdata$x	SEGMENT
$T203398 DD	0ffffffffH
	DD	FLAT:$L203391
	DD	00H
	DD	FLAT:$L203392
	DD	00H
	DD	FLAT:$L203393
$T203396 DD	019930520H
	DD	03H
	DD	FLAT:$T203398
	DD	2 DUP(00H)
	DD	2 DUP(00H)
; Function compile flags: /Odt
xdata$x	ENDS
_TEXT	SEGMENT
tv225 = -104						; size = 4
tv244 = -100						; size = 4
tv180 = -96						; size = 4
tv175 = -92						; size = 4
tv242 = -88						; size = 4
tv131 = -84						; size = 4
tv165 = -80						; size = 4
tv153 = -76						; size = 4
_this$ = -72						; size = 4
$T203390 = -65						; size = 1
$T203389 = -64						; size = 4
$T203388 = -60						; size = 4
$T203387 = -56						; size = 16
_pWnd$201167 = -40					; size = 4
_pos$201163 = -36					; size = 4
_key$201164 = -32					; size = 4
_rect$ = -28						; size = 16
__$EHRec$ = -12						; size = 12
_name$ = 8						; size = 4
_bRedraw$ = 12						; size = 1
?setCurrent@PaneMulti@ETSLayoutMgr@@QAE_NV?$CStringT@DV?$StrTraitMFC_DLL@DV?$ChTraitsCRT@D@ATL@@@@@ATL@@_N@Z PROC NEAR ; ETSLayoutMgr::PaneMulti::setCurrent
; _this$ = ecx

; 571  : {

  01b10	55		 push	 ebp
  01b11	8b ec		 mov	 ebp, esp
  01b13	6a ff		 push	 -1
  01b15	68 00 00 00 00	 push	 __ehhandler$?setCurrent@PaneMulti@ETSLayoutMgr@@QAE_NV?$CStringT@DV?$StrTraitMFC_DLL@DV?$ChTraitsCRT@D@ATL@@@@@ATL@@_N@Z
  01b1a	64 a1 00 00 00
	00		 mov	 eax, DWORD PTR fs:__except_list
  01b20	50		 push	 eax
  01b21	64 89 25 00 00
	00 00		 mov	 DWORD PTR fs:__except_list, esp
  01b28	83 ec 5c	 sub	 esp, 92			; 0000005cH
  01b2b	56		 push	 esi
  01b2c	89 4d b8	 mov	 DWORD PTR _this$[ebp], ecx
  01b2f	c7 45 fc 00 00
	00 00		 mov	 DWORD PTR __$EHRec$[ebp+8], 0

; 572  : 
; 573  : 	CRect rect = CRect(0,0,-1,-1);

  01b36	6a ff		 push	 -1
  01b38	6a ff		 push	 -1
  01b3a	6a 00		 push	 0
  01b3c	6a 00		 push	 0
  01b3e	8d 4d e4	 lea	 ecx, DWORD PTR _rect$[ebp]
  01b41	e8 00 00 00 00	 call	 ??0CRect@@QAE@HHHH@Z	; CRect::CRect

; 574  : 	showPane(false);

  01b46	6a 00		 push	 0
  01b48	8b 45 b8	 mov	 eax, DWORD PTR _this$[ebp]
  01b4b	8b 10		 mov	 edx, DWORD PTR [eax]
  01b4d	8b 4d b8	 mov	 ecx, DWORD PTR _this$[ebp]
  01b50	ff 52 24	 call	 DWORD PTR [edx+36]

; 575  : 
; 576  : 	if(m_paneCurrent.IsValid())

  01b53	8b 4d b8	 mov	 ecx, DWORD PTR _this$[ebp]
  01b56	81 c1 88 00 00
	00		 add	 ecx, 136		; 00000088H
  01b5c	e8 00 00 00 00	 call	 ?IsValid@CPaneBase@ETSLayoutMgr@@QAE_NXZ ; ETSLayoutMgr::CPaneBase::IsValid
  01b61	0f b6 c0	 movzx	 eax, al
  01b64	85 c0		 test	 eax, eax
  01b66	74 30		 je	 SHORT $L201160

; 577  : 	{
; 578  : 		rect = m_paneCurrent.GetPaneBase()->getPaneRect();

  01b68	8d 4d c8	 lea	 ecx, DWORD PTR $T203387[ebp]
  01b6b	51		 push	 ecx
  01b6c	8b 4d b8	 mov	 ecx, DWORD PTR _this$[ebp]
  01b6f	81 c1 88 00 00
	00		 add	 ecx, 136		; 00000088H
  01b75	e8 00 00 00 00	 call	 ?GetPaneBase@CPaneBase@ETSLayoutMgr@@QAEPAVPaneBase@2@XZ ; ETSLayoutMgr::CPaneBase::GetPaneBase
  01b7a	8b c8		 mov	 ecx, eax
  01b7c	e8 00 00 00 00	 call	 ?getPaneRect@PaneBase@ETSLayoutMgr@@QAE?AVCRect@@XZ ; ETSLayoutMgr::PaneBase::getPaneRect
  01b81	8b 10		 mov	 edx, DWORD PTR [eax]
  01b83	89 55 e4	 mov	 DWORD PTR _rect$[ebp], edx
  01b86	8b 48 04	 mov	 ecx, DWORD PTR [eax+4]
  01b89	89 4d e8	 mov	 DWORD PTR _rect$[ebp+4], ecx
  01b8c	8b 50 08	 mov	 edx, DWORD PTR [eax+8]
  01b8f	89 55 ec	 mov	 DWORD PTR _rect$[ebp+8], edx
  01b92	8b 40 0c	 mov	 eax, DWORD PTR [eax+12]
  01b95	89 45 f0	 mov	 DWORD PTR _rect$[ebp+12], eax
$L201160:

; 579  : 	}
; 580  : 
; 581  : 	if(!m_mapLayers.Lookup(name, m_paneCurrent))

  01b98	8b 4d b8	 mov	 ecx, DWORD PTR _this$[ebp]
  01b9b	81 c1 88 00 00
	00		 add	 ecx, 136		; 00000088H
  01ba1	51		 push	 ecx
  01ba2	8d 4d 08	 lea	 ecx, DWORD PTR _name$[ebp]
  01ba5	ff 15 00 00 00
	00		 call	 DWORD PTR __imp_??B?$CSimpleStringT@D$00@ATL@@QBEPBDXZ
  01bab	50		 push	 eax
  01bac	8b 4d b8	 mov	 ecx, DWORD PTR _this$[ebp]
  01baf	81 c1 8c 00 00
	00		 add	 ecx, 140		; 0000008cH
  01bb5	e8 00 00 00 00	 call	 ?Lookup@?$CMap@V?$CStringT@DV?$StrTraitMFC_DLL@DV?$ChTraitsCRT@D@ATL@@@@@ATL@@PBDVCPaneBase@ETSLayoutMgr@@V34@@@QBEHPBDAAVCPaneBase@ETSLayoutMgr@@@Z ; CMap<ATL::CStringT<char,StrTraitMFC_DLL<char,ATL::ChTraitsCRT<char> > >,char const *,ETSLayoutMgr::CPaneBase,ETSLayoutMgr::CPaneBase>::Lookup
  01bba	85 c0		 test	 eax, eax
  01bbc	75 51		 jne	 SHORT $L201162

; 582  : 	{
; 583  : 		//currentlayer
; 584  : 		POSITION pos = m_mapLayers.GetStartPosition();

  01bbe	8b 4d b8	 mov	 ecx, DWORD PTR _this$[ebp]
  01bc1	81 c1 8c 00 00
	00		 add	 ecx, 140		; 0000008cH
  01bc7	e8 00 00 00 00	 call	 ?GetStartPosition@?$CMap@V?$CStringT@DV?$StrTraitMFC_DLL@DV?$ChTraitsCRT@D@ATL@@@@@ATL@@PBDVCPaneBase@ETSLayoutMgr@@V34@@@QBEPAU__POSITION@@XZ ; CMap<ATL::CStringT<char,StrTraitMFC_DLL<char,ATL::ChTraitsCRT<char> > >,char const *,ETSLayoutMgr::CPaneBase,ETSLayoutMgr::CPaneBase>::GetStartPosition
  01bcc	89 45 dc	 mov	 DWORD PTR _pos$201163[ebp], eax

; 585  : 		CString key;

  01bcf	8d 4d e0	 lea	 ecx, DWORD PTR _key$201164[ebp]
  01bd2	ff 15 00 00 00
	00		 call	 DWORD PTR __imp_??0?$CStringT@DV?$StrTraitMFC_DLL@DV?$ChTraitsCRT@D@ATL@@@@@ATL@@QAE@XZ
  01bd8	c6 45 fc 01	 mov	 BYTE PTR __$EHRec$[ebp+8], 1

; 586  : 		if (pos != NULL)

  01bdc	83 7d dc 00	 cmp	 DWORD PTR _pos$201163[ebp], 0
  01be0	74 20		 je	 SHORT $L201165

; 587  : 		{
; 588  : 			m_mapLayers.GetNextAssoc( pos, key, m_paneCurrent );

  01be2	8b 55 b8	 mov	 edx, DWORD PTR _this$[ebp]
  01be5	81 c2 88 00 00
	00		 add	 edx, 136		; 00000088H
  01beb	52		 push	 edx
  01bec	8d 45 e0	 lea	 eax, DWORD PTR _key$201164[ebp]
  01bef	50		 push	 eax
  01bf0	8d 4d dc	 lea	 ecx, DWORD PTR _pos$201163[ebp]
  01bf3	51		 push	 ecx
  01bf4	8b 4d b8	 mov	 ecx, DWORD PTR _this$[ebp]
  01bf7	81 c1 8c 00 00
	00		 add	 ecx, 140		; 0000008cH
  01bfd	e8 00 00 00 00	 call	 ?GetNextAssoc@?$CMap@V?$CStringT@DV?$StrTraitMFC_DLL@DV?$ChTraitsCRT@D@ATL@@@@@ATL@@PBDVCPaneBase@ETSLayoutMgr@@V34@@@QBEXAAPAU__POSITION@@AAV?$CStringT@DV?$StrTraitMFC_DLL@DV?$ChTraitsCRT@D@ATL@@@@@ATL@@AAVCPaneBase@ETSLayoutMgr@@@Z ; CMap<ATL::CStringT<char,StrTraitMFC_DLL<char,ATL::ChTraitsCRT<char> > >,char const *,ETSLayoutMgr::CPaneBase,ETSLayoutMgr::CPaneBase>::GetNextAssoc
$L201165:

; 589  : 		}
; 590  : 		//else
; 591  : 		//showPane(true);
; 592  : 		//return false;
; 593  : 	}

  01c02	c6 45 fc 00	 mov	 BYTE PTR __$EHRec$[ebp+8], 0
  01c06	8d 4d e0	 lea	 ecx, DWORD PTR _key$201164[ebp]
  01c09	ff 15 00 00 00
	00		 call	 DWORD PTR __imp_??1?$CStringT@DV?$StrTraitMFC_DLL@DV?$ChTraitsCRT@D@ATL@@@@@ATL@@QAE@XZ
$L201162:

; 594  : 	m_paneItems.RemoveAll();

  01c0f	8b 4d b8	 mov	 ecx, DWORD PTR _this$[ebp]
  01c12	83 c1 64	 add	 ecx, 100		; 00000064H
  01c15	e8 00 00 00 00	 call	 ?RemoveAll@?$CArray@VCPaneBase@ETSLayoutMgr@@V12@@@QAEXXZ ; CArray<ETSLayoutMgr::CPaneBase,ETSLayoutMgr::CPaneBase>::RemoveAll

; 595  : 
; 596  : 	if((m_paneCurrent->modeResize() & ABSOLUTE_VERT)
; 597  : 		&& m_paneCurrent->getConstrainVert(0) != rect.Height())

  01c1a	8b 4d b8	 mov	 ecx, DWORD PTR _this$[ebp]
  01c1d	81 c1 88 00 00
	00		 add	 ecx, 136		; 00000088H
  01c23	e8 00 00 00 00	 call	 ??CCPaneBase@ETSLayoutMgr@@QBEPAVPaneBase@1@XZ ; ETSLayoutMgr::CPaneBase::operator->
  01c28	8b c8		 mov	 ecx, eax
  01c2a	e8 00 00 00 00	 call	 ?modeResize@PaneBase@ETSLayoutMgr@@QAEKXZ ; ETSLayoutMgr::PaneBase::modeResize
  01c2f	83 e0 04	 and	 eax, 4
  01c32	0f 84 c3 00 00
	00		 je	 $L201166
  01c38	8b 4d b8	 mov	 ecx, DWORD PTR _this$[ebp]
  01c3b	81 c1 88 00 00
	00		 add	 ecx, 136		; 00000088H
  01c41	e8 00 00 00 00	 call	 ??CCPaneBase@ETSLayoutMgr@@QBEPAVPaneBase@1@XZ ; ETSLayoutMgr::CPaneBase::operator->
  01c46	89 45 b4	 mov	 DWORD PTR tv153[ebp], eax
  01c49	8d 4d e4	 lea	 ecx, DWORD PTR _rect$[ebp]
  01c4c	e8 00 00 00 00	 call	 ?Height@CRect@@QBEHXZ	; CRect::Height
  01c51	8b f0		 mov	 esi, eax
  01c53	6a 00		 push	 0
  01c55	8b 55 b4	 mov	 edx, DWORD PTR tv153[ebp]
  01c58	8b 02		 mov	 eax, DWORD PTR [edx]
  01c5a	8b 4d b4	 mov	 ecx, DWORD PTR tv153[ebp]
  01c5d	ff 50 04	 call	 DWORD PTR [eax+4]
  01c60	3b c6		 cmp	 eax, esi
  01c62	0f 84 93 00 00
	00		 je	 $L201166

; 598  : 	{
; 599  : 		rect.bottom = rect.top + m_paneCurrent->getConstrainVert(0);

  01c68	8b 4d b8	 mov	 ecx, DWORD PTR _this$[ebp]
  01c6b	81 c1 88 00 00
	00		 add	 ecx, 136		; 00000088H
  01c71	e8 00 00 00 00	 call	 ??CCPaneBase@ETSLayoutMgr@@QBEPAVPaneBase@1@XZ ; ETSLayoutMgr::CPaneBase::operator->
  01c76	89 45 b0	 mov	 DWORD PTR tv165[ebp], eax
  01c79	6a 00		 push	 0
  01c7b	8b 4d b0	 mov	 ecx, DWORD PTR tv165[ebp]
  01c7e	8b 11		 mov	 edx, DWORD PTR [ecx]
  01c80	8b 4d b0	 mov	 ecx, DWORD PTR tv165[ebp]
  01c83	ff 52 04	 call	 DWORD PTR [edx+4]
  01c86	03 45 e8	 add	 eax, DWORD PTR _rect$[ebp+4]
  01c89	89 45 f0	 mov	 DWORD PTR _rect$[ebp+12], eax

; 600  : 		
; 601  : 		CWnd *pWnd = this->m_pMgr->m_pWnd;//->GetParent();

  01c8c	8b 45 b8	 mov	 eax, DWORD PTR _this$[ebp]
  01c8f	8b 48 38	 mov	 ecx, DWORD PTR [eax+56]
  01c92	8b 51 30	 mov	 edx, DWORD PTR [ecx+48]
  01c95	89 55 d8	 mov	 DWORD PTR _pWnd$201167[ebp], edx

; 602  : 		::AfxGetUIManager()->UIGetLayoutMgr()->SetPaneSize(pWnd, GetName() ,rect);

  01c98	6a 01		 push	 1
  01c9a	83 ec 10	 sub	 esp, 16			; 00000010H
  01c9d	8b c4		 mov	 eax, esp
  01c9f	8b 4d e4	 mov	 ecx, DWORD PTR _rect$[ebp]
  01ca2	89 08		 mov	 DWORD PTR [eax], ecx
  01ca4	8b 55 e8	 mov	 edx, DWORD PTR _rect$[ebp+4]
  01ca7	89 50 04	 mov	 DWORD PTR [eax+4], edx
  01caa	8b 4d ec	 mov	 ecx, DWORD PTR _rect$[ebp+8]
  01cad	89 48 08	 mov	 DWORD PTR [eax+8], ecx
  01cb0	8b 55 f0	 mov	 edx, DWORD PTR _rect$[ebp+12]
  01cb3	89 50 0c	 mov	 DWORD PTR [eax+12], edx
  01cb6	51		 push	 ecx
  01cb7	8b c4		 mov	 eax, esp
  01cb9	89 65 c4	 mov	 DWORD PTR $T203388[ebp], esp
  01cbc	50		 push	 eax
  01cbd	8b 4d b8	 mov	 ecx, DWORD PTR _this$[ebp]
  01cc0	e8 00 00 00 00	 call	 ?GetName@PaneBase@ETSLayoutMgr@@QAE?AV?$CStringT@DV?$StrTraitMFC_DLL@DV?$ChTraitsCRT@D@ATL@@@@@ATL@@XZ ; ETSLayoutMgr::PaneBase::GetName
  01cc5	89 45 ac	 mov	 DWORD PTR tv131[ebp], eax
  01cc8	8b 4d ac	 mov	 ecx, DWORD PTR tv131[ebp]
  01ccb	89 4d a8	 mov	 DWORD PTR tv242[ebp], ecx
  01cce	c6 45 fc 02	 mov	 BYTE PTR __$EHRec$[ebp+8], 2
  01cd2	e8 00 00 00 00	 call	 ?AfxGetUIManager@@YAPAVIUIManager@@XZ ; AfxGetUIManager
  01cd7	89 45 a4	 mov	 DWORD PTR tv175[ebp], eax
  01cda	8b 55 a4	 mov	 edx, DWORD PTR tv175[ebp]
  01cdd	8b 02		 mov	 eax, DWORD PTR [edx]
  01cdf	8b 4d a4	 mov	 ecx, DWORD PTR tv175[ebp]
  01ce2	ff 50 24	 call	 DWORD PTR [eax+36]
  01ce5	89 45 a0	 mov	 DWORD PTR tv180[ebp], eax
  01ce8	8b 4d d8	 mov	 ecx, DWORD PTR _pWnd$201167[ebp]
  01ceb	51		 push	 ecx
  01cec	8b 55 a0	 mov	 edx, DWORD PTR tv180[ebp]
  01cef	8b 02		 mov	 eax, DWORD PTR [edx]
  01cf1	c6 45 fc 00	 mov	 BYTE PTR __$EHRec$[ebp+8], 0
  01cf5	8b 4d a0	 mov	 ecx, DWORD PTR tv180[ebp]
  01cf8	ff 50 4c	 call	 DWORD PTR [eax+76]
$L201166:

; 603  : 	}
; 604  : 	addPane(m_paneCurrent);

  01cfb	8b 4d b8	 mov	 ecx, DWORD PTR _this$[ebp]
  01cfe	81 c1 88 00 00
	00		 add	 ecx, 136		; 00000088H
  01d04	51		 push	 ecx
  01d05	8b d4		 mov	 edx, esp
  01d07	89 65 c0	 mov	 DWORD PTR $T203389[ebp], esp
  01d0a	51		 push	 ecx
  01d0b	8b ca		 mov	 ecx, edx
  01d0d	e8 00 00 00 00	 call	 ??0CPaneBase@ETSLayoutMgr@@QAE@ABV01@@Z ; ETSLayoutMgr::CPaneBase::CPaneBase
  01d12	89 45 9c	 mov	 DWORD PTR tv244[ebp], eax
  01d15	8b 45 b8	 mov	 eax, DWORD PTR _this$[ebp]
  01d18	8b 10		 mov	 edx, DWORD PTR [eax]
  01d1a	8b 4d b8	 mov	 ecx, DWORD PTR _this$[ebp]
  01d1d	ff 52 2c	 call	 DWORD PTR [edx+44]

; 605  : 
; 606  : 	m_strCurrent = name;

  01d20	8d 45 08	 lea	 eax, DWORD PTR _name$[ebp]
  01d23	50		 push	 eax
  01d24	8b 4d b8	 mov	 ecx, DWORD PTR _this$[ebp]
  01d27	81 c1 84 00 00
	00		 add	 ecx, 132		; 00000084H
  01d2d	ff 15 00 00 00
	00		 call	 DWORD PTR __imp_??4?$CStringT@DV?$StrTraitMFC_DLL@DV?$ChTraitsCRT@D@ATL@@@@@ATL@@QAEAAV01@ABV01@@Z

; 607  : 	m_paneCurrent->resizeTo(rect,true, true);

  01d33	8b 4d b8	 mov	 ecx, DWORD PTR _this$[ebp]
  01d36	81 c1 88 00 00
	00		 add	 ecx, 136		; 00000088H
  01d3c	e8 00 00 00 00	 call	 ??CCPaneBase@ETSLayoutMgr@@QBEPAVPaneBase@1@XZ ; ETSLayoutMgr::CPaneBase::operator->
  01d41	89 45 98	 mov	 DWORD PTR tv225[ebp], eax
  01d44	6a 01		 push	 1
  01d46	6a 01		 push	 1
  01d48	8d 4d e4	 lea	 ecx, DWORD PTR _rect$[ebp]
  01d4b	51		 push	 ecx
  01d4c	8b 55 98	 mov	 edx, DWORD PTR tv225[ebp]
  01d4f	8b 02		 mov	 eax, DWORD PTR [edx]
  01d51	8b 4d 98	 mov	 ecx, DWORD PTR tv225[ebp]
  01d54	ff 50 18	 call	 DWORD PTR [eax+24]

; 608  : 	if(bRedraw)

  01d57	0f b6 4d 0c	 movzx	 ecx, BYTE PTR _bRedraw$[ebp]
  01d5b	85 c9		 test	 ecx, ecx
  01d5d	74 0d		 je	 SHORT $L201171

; 609  : 		showPane(true);

  01d5f	6a 01		 push	 1
  01d61	8b 55 b8	 mov	 edx, DWORD PTR _this$[ebp]
  01d64	8b 02		 mov	 eax, DWORD PTR [edx]
  01d66	8b 4d b8	 mov	 ecx, DWORD PTR _this$[ebp]
  01d69	ff 50 24	 call	 DWORD PTR [eax+36]
$L201171:

; 610  : 
; 611  : 
; 612  : 	//if(bRedraw)
; 613  : 	//	::AfxGetMainWindow()->RedrawWindow();
; 614  : 	return true;

  01d6c	c6 45 bf 01	 mov	 BYTE PTR $T203390[ebp], 1
  01d70	c7 45 fc ff ff
	ff ff		 mov	 DWORD PTR __$EHRec$[ebp+8], -1
  01d77	8d 4d 08	 lea	 ecx, DWORD PTR _name$[ebp]
  01d7a	ff 15 00 00 00
	00		 call	 DWORD PTR __imp_??1?$CStringT@DV?$StrTraitMFC_DLL@DV?$ChTraitsCRT@D@ATL@@@@@ATL@@QAE@XZ
  01d80	8a 45 bf	 mov	 al, BYTE PTR $T203390[ebp]

; 615  : }

  01d83	8b 4d f4	 mov	 ecx, DWORD PTR __$EHRec$[ebp]
  01d86	64 89 0d 00 00
	00 00		 mov	 DWORD PTR fs:__except_list, ecx
  01d8d	5e		 pop	 esi
  01d8e	8b e5		 mov	 esp, ebp
  01d90	5d		 pop	 ebp
  01d91	c2 08 00	 ret	 8
_TEXT	ENDS
text$x	SEGMENT
$L203391:
  001ee	8d 4d 08	 lea	 ecx, DWORD PTR _name$[ebp]
  001f1	ff 25 00 00 00
	00		 jmp	 DWORD PTR __imp_??1?$CStringT@DV?$StrTraitMFC_DLL@DV?$ChTraitsCRT@D@ATL@@@@@ATL@@QAE@XZ
$L203392:
  001f7	8d 4d e0	 lea	 ecx, DWORD PTR _key$201164[ebp]
  001fa	ff 25 00 00 00
	00		 jmp	 DWORD PTR __imp_??1?$CStringT@DV?$StrTraitMFC_DLL@DV?$ChTraitsCRT@D@ATL@@@@@ATL@@QAE@XZ
$L203393:
  00200	8b 4d c4	 mov	 ecx, DWORD PTR $T203388[ebp]
  00203	ff 25 00 00 00
	00		 jmp	 DWORD PTR __imp_??1?$CStringT@DV?$StrTraitMFC_DLL@DV?$ChTraitsCRT@D@ATL@@@@@ATL@@QAE@XZ
__ehhandler$?setCurrent@PaneMulti@ETSLayoutMgr@@QAE_NV?$CStringT@DV?$StrTraitMFC_DLL@DV?$ChTraitsCRT@D@ATL@@@@@ATL@@_N@Z:
  00209	b8 00 00 00 00	 mov	 eax, OFFSET FLAT:$T203396
  0020e	e9 00 00 00 00	 jmp	 ___CxxFrameHandler
text$x	ENDS
?setCurrent@PaneMulti@ETSLayoutMgr@@QAE_NV?$CStringT@DV?$StrTraitMFC_DLL@DV?$ChTraitsCRT@D@ATL@@@@@ATL@@_N@Z ENDP ; ETSLayoutMgr::PaneMulti::setCurrent
PUBLIC	??CCPanePosition@ETSLayoutMgr@@QBEPAVPanePosition@1@XZ ; ETSLayoutMgr::CPanePosition::operator->
; Function compile flags: /Odt
_TEXT	SEGMENT
_this$ = -4						; size = 4
??CCPanePosition@ETSLayoutMgr@@QBEPAVPanePosition@1@XZ PROC NEAR ; ETSLayoutMgr::CPanePosition::operator->
; _this$ = ecx

; 620  : {

  01da0	55		 push	 ebp
  01da1	8b ec		 mov	 ebp, esp
  01da3	51		 push	 ecx
  01da4	89 4d fc	 mov	 DWORD PTR _this$[ebp], ecx

; 621  : 	ASSERT(m_pPaneHolder);
; 622  : 
; 623  : 	if(!m_pPaneHolder)

  01da7	8b 45 fc	 mov	 eax, DWORD PTR _this$[ebp]
  01daa	83 38 00	 cmp	 DWORD PTR [eax], 0
  01dad	75 04		 jne	 SHORT $L201177

; 624  : 		return 0;

  01daf	33 c0		 xor	 eax, eax
  01db1	eb 07		 jmp	 SHORT $L201175
$L201177:

; 625  : 
; 626  : 	return reinterpret_cast<PanePosition*>(m_pPaneHolder->m_pPane);

  01db3	8b 4d fc	 mov	 ecx, DWORD PTR _this$[ebp]
  01db6	8b 11		 mov	 edx, DWORD PTR [ecx]
  01db8	8b 02		 mov	 eax, DWORD PTR [edx]
$L201175:

; 627  : }

  01dba	8b e5		 mov	 esp, ebp
  01dbc	5d		 pop	 ebp
  01dbd	c3		 ret	 0
??CCPanePosition@ETSLayoutMgr@@QBEPAVPanePosition@1@XZ ENDP ; ETSLayoutMgr::CPanePosition::operator->
_TEXT	ENDS
PUBLIC	??6CPanePosition@ETSLayoutMgr@@QAEAAV01@VCPane@1@@Z ; ETSLayoutMgr::CPanePosition::operator<<
xdata$x	SEGMENT
$T203408 DD	0ffffffffH
	DD	FLAT:$L203403
	DD	00H
	DD	FLAT:$L203404
$T203406 DD	019930520H
	DD	02H
	DD	FLAT:$T203408
	DD	2 DUP(00H)
	DD	2 DUP(00H)
; Function compile flags: /Odt
xdata$x	ENDS
_TEXT	SEGMENT
tv68 = -36						; size = 4
tv129 = -32						; size = 4
tv131 = -28						; size = 4
_this$ = -24						; size = 4
$T203402 = -20						; size = 4
$T203401 = -16						; size = 4
__$EHRec$ = -12						; size = 12
_pPane$ = 8						; size = 4
??6CPanePosition@ETSLayoutMgr@@QAEAAV01@VCPane@1@@Z PROC NEAR ; ETSLayoutMgr::CPanePosition::operator<<
; _this$ = ecx

; 630  : {

  01dc0	55		 push	 ebp
  01dc1	8b ec		 mov	 ebp, esp
  01dc3	6a ff		 push	 -1
  01dc5	68 00 00 00 00	 push	 __ehhandler$??6CPanePosition@ETSLayoutMgr@@QAEAAV01@VCPane@1@@Z
  01dca	64 a1 00 00 00
	00		 mov	 eax, DWORD PTR fs:__except_list
  01dd0	50		 push	 eax
  01dd1	64 89 25 00 00
	00 00		 mov	 DWORD PTR fs:__except_list, esp
  01dd8	83 ec 18	 sub	 esp, 24			; 00000018H
  01ddb	89 4d e8	 mov	 DWORD PTR _this$[ebp], ecx
  01dde	c7 45 fc 00 00
	00 00		 mov	 DWORD PTR __$EHRec$[ebp+8], 0

; 631  : 	GetPane()->addPane( pPane, (ETSLayoutMgr::layResizeMode)pPane->m_modeResize, pPane->m_sizeSecondary);

  01de5	8d 4d 08	 lea	 ecx, DWORD PTR _pPane$[ebp]
  01de8	e8 00 00 00 00	 call	 ??CCPane@ETSLayoutMgr@@QBEPAVPane@1@XZ ; ETSLayoutMgr::CPane::operator->
  01ded	8b 40 78	 mov	 eax, DWORD PTR [eax+120]
  01df0	50		 push	 eax
  01df1	8d 4d 08	 lea	 ecx, DWORD PTR _pPane$[ebp]
  01df4	e8 00 00 00 00	 call	 ??CCPane@ETSLayoutMgr@@QBEPAVPane@1@XZ ; ETSLayoutMgr::CPane::operator->
  01df9	8b 48 18	 mov	 ecx, DWORD PTR [eax+24]
  01dfc	51		 push	 ecx
  01dfd	51		 push	 ecx
  01dfe	8b cc		 mov	 ecx, esp
  01e00	89 65 f0	 mov	 DWORD PTR $T203401[ebp], esp
  01e03	8d 55 08	 lea	 edx, DWORD PTR _pPane$[ebp]
  01e06	52		 push	 edx
  01e07	e8 00 00 00 00	 call	 ??0CPane@ETSLayoutMgr@@QAE@ABV01@@Z ; ETSLayoutMgr::CPane::CPane
  01e0c	89 45 e4	 mov	 DWORD PTR tv131[ebp], eax
  01e0f	8b 45 e4	 mov	 eax, DWORD PTR tv131[ebp]
  01e12	89 45 e0	 mov	 DWORD PTR tv129[ebp], eax
  01e15	c6 45 fc 01	 mov	 BYTE PTR __$EHRec$[ebp+8], 1
  01e19	8b 4d e8	 mov	 ecx, DWORD PTR _this$[ebp]
  01e1c	e8 00 00 00 00	 call	 ?GetPane@CPane@ETSLayoutMgr@@QAEPAVPane@2@XZ ; ETSLayoutMgr::CPane::GetPane
  01e21	89 45 dc	 mov	 DWORD PTR tv68[ebp], eax
  01e24	8b 4d dc	 mov	 ecx, DWORD PTR tv68[ebp]
  01e27	8b 11		 mov	 edx, DWORD PTR [ecx]
  01e29	c6 45 fc 00	 mov	 BYTE PTR __$EHRec$[ebp+8], 0
  01e2d	8b 4d dc	 mov	 ecx, DWORD PTR tv68[ebp]
  01e30	ff 52 28	 call	 DWORD PTR [edx+40]

; 632  : 	return (*this);

  01e33	8b 45 e8	 mov	 eax, DWORD PTR _this$[ebp]
  01e36	89 45 ec	 mov	 DWORD PTR $T203402[ebp], eax
  01e39	c7 45 fc ff ff
	ff ff		 mov	 DWORD PTR __$EHRec$[ebp+8], -1
  01e40	8d 4d 08	 lea	 ecx, DWORD PTR _pPane$[ebp]
  01e43	e8 00 00 00 00	 call	 ??1CPane@ETSLayoutMgr@@QAE@XZ ; ETSLayoutMgr::CPane::~CPane
  01e48	8b 45 ec	 mov	 eax, DWORD PTR $T203402[ebp]

; 633  : }

  01e4b	8b 4d f4	 mov	 ecx, DWORD PTR __$EHRec$[ebp]
  01e4e	64 89 0d 00 00
	00 00		 mov	 DWORD PTR fs:__except_list, ecx
  01e55	8b e5		 mov	 esp, ebp
  01e57	5d		 pop	 ebp
  01e58	c2 04 00	 ret	 4
_TEXT	ENDS
text$x	SEGMENT
$L203403:
  00213	8d 4d 08	 lea	 ecx, DWORD PTR _pPane$[ebp]
  00216	e9 00 00 00 00	 jmp	 ??1CPane@ETSLayoutMgr@@QAE@XZ ; ETSLayoutMgr::CPane::~CPane
$L203404:
  0021b	8b 4d f0	 mov	 ecx, DWORD PTR $T203401[ebp]
  0021e	e9 00 00 00 00	 jmp	 ??1CPane@ETSLayoutMgr@@QAE@XZ ; ETSLayoutMgr::CPane::~CPane
__ehhandler$??6CPanePosition@ETSLayoutMgr@@QAEAAV01@VCPane@1@@Z:
  00223	b8 00 00 00 00	 mov	 eax, OFFSET FLAT:$T203406
  00228	e9 00 00 00 00	 jmp	 ___CxxFrameHandler
text$x	ENDS
??6CPanePosition@ETSLayoutMgr@@QAEAAV01@VCPane@1@@Z ENDP ; ETSLayoutMgr::CPanePosition::operator<<
PUBLIC	??6CPanePosition@ETSLayoutMgr@@QAEAAV01@VCPaneBase@1@@Z ; ETSLayoutMgr::CPanePosition::operator<<
xdata$x	SEGMENT
$T203417 DD	0ffffffffH
	DD	FLAT:$L203412
	DD	00H
	DD	FLAT:$L203413
$T203415 DD	019930520H
	DD	02H
	DD	FLAT:$T203417
	DD	2 DUP(00H)
	DD	2 DUP(00H)
; Function compile flags: /Odt
xdata$x	ENDS
_TEXT	SEGMENT
tv68 = -36						; size = 4
tv87 = -32						; size = 4
tv89 = -28						; size = 4
_this$ = -24						; size = 4
$T203411 = -20						; size = 4
$T203410 = -16						; size = 4
__$EHRec$ = -12						; size = 12
_pItem$ = 8						; size = 4
??6CPanePosition@ETSLayoutMgr@@QAEAAV01@VCPaneBase@1@@Z PROC NEAR ; ETSLayoutMgr::CPanePosition::operator<<
; _this$ = ecx

; 636  : {

  01e60	55		 push	 ebp
  01e61	8b ec		 mov	 ebp, esp
  01e63	6a ff		 push	 -1
  01e65	68 00 00 00 00	 push	 __ehhandler$??6CPanePosition@ETSLayoutMgr@@QAEAAV01@VCPaneBase@1@@Z
  01e6a	64 a1 00 00 00
	00		 mov	 eax, DWORD PTR fs:__except_list
  01e70	50		 push	 eax
  01e71	64 89 25 00 00
	00 00		 mov	 DWORD PTR fs:__except_list, esp
  01e78	83 ec 18	 sub	 esp, 24			; 00000018H
  01e7b	89 4d e8	 mov	 DWORD PTR _this$[ebp], ecx
  01e7e	c7 45 fc 00 00
	00 00		 mov	 DWORD PTR __$EHRec$[ebp+8], 0

; 637  : 	GetPane()->addPane( pItem );

  01e85	51		 push	 ecx
  01e86	8b cc		 mov	 ecx, esp
  01e88	89 65 f0	 mov	 DWORD PTR $T203410[ebp], esp
  01e8b	8d 45 08	 lea	 eax, DWORD PTR _pItem$[ebp]
  01e8e	50		 push	 eax
  01e8f	e8 00 00 00 00	 call	 ??0CPaneBase@ETSLayoutMgr@@QAE@ABV01@@Z ; ETSLayoutMgr::CPaneBase::CPaneBase
  01e94	89 45 e4	 mov	 DWORD PTR tv89[ebp], eax
  01e97	8b 4d e4	 mov	 ecx, DWORD PTR tv89[ebp]
  01e9a	89 4d e0	 mov	 DWORD PTR tv87[ebp], ecx
  01e9d	c6 45 fc 01	 mov	 BYTE PTR __$EHRec$[ebp+8], 1
  01ea1	8b 4d e8	 mov	 ecx, DWORD PTR _this$[ebp]
  01ea4	e8 00 00 00 00	 call	 ?GetPane@CPane@ETSLayoutMgr@@QAEPAVPane@2@XZ ; ETSLayoutMgr::CPane::GetPane
  01ea9	89 45 dc	 mov	 DWORD PTR tv68[ebp], eax
  01eac	8b 55 dc	 mov	 edx, DWORD PTR tv68[ebp]
  01eaf	8b 02		 mov	 eax, DWORD PTR [edx]
  01eb1	c6 45 fc 00	 mov	 BYTE PTR __$EHRec$[ebp+8], 0
  01eb5	8b 4d dc	 mov	 ecx, DWORD PTR tv68[ebp]
  01eb8	ff 50 2c	 call	 DWORD PTR [eax+44]

; 638  : 	return (*this);

  01ebb	8b 4d e8	 mov	 ecx, DWORD PTR _this$[ebp]
  01ebe	89 4d ec	 mov	 DWORD PTR $T203411[ebp], ecx
  01ec1	c7 45 fc ff ff
	ff ff		 mov	 DWORD PTR __$EHRec$[ebp+8], -1
  01ec8	8d 4d 08	 lea	 ecx, DWORD PTR _pItem$[ebp]
  01ecb	e8 00 00 00 00	 call	 ??1CPaneBase@ETSLayoutMgr@@QAE@XZ ; ETSLayoutMgr::CPaneBase::~CPaneBase
  01ed0	8b 45 ec	 mov	 eax, DWORD PTR $T203411[ebp]

; 639  : }

  01ed3	8b 4d f4	 mov	 ecx, DWORD PTR __$EHRec$[ebp]
  01ed6	64 89 0d 00 00
	00 00		 mov	 DWORD PTR fs:__except_list, ecx
  01edd	8b e5		 mov	 esp, ebp
  01edf	5d		 pop	 ebp
  01ee0	c2 04 00	 ret	 4
_TEXT	ENDS
text$x	SEGMENT
$L203412:
  0022d	8d 4d 08	 lea	 ecx, DWORD PTR _pItem$[ebp]
  00230	e9 00 00 00 00	 jmp	 ??1CPaneBase@ETSLayoutMgr@@QAE@XZ ; ETSLayoutMgr::CPaneBase::~CPaneBase
$L203413:
  00235	8b 4d f0	 mov	 ecx, DWORD PTR $T203410[ebp]
  00238	e9 00 00 00 00	 jmp	 ??1CPaneBase@ETSLayoutMgr@@QAE@XZ ; ETSLayoutMgr::CPaneBase::~CPaneBase
__ehhandler$??6CPanePosition@ETSLayoutMgr@@QAEAAV01@VCPaneBase@1@@Z:
  0023d	b8 00 00 00 00	 mov	 eax, OFFSET FLAT:$T203415
  00242	e9 00 00 00 00	 jmp	 ___CxxFrameHandler
text$x	ENDS
??6CPanePosition@ETSLayoutMgr@@QAEAAV01@VCPaneBase@1@@Z ENDP ; ETSLayoutMgr::CPanePosition::operator<<
PUBLIC	??0CPanePosition@ETSLayoutMgr@@QAE@PAVPanePosition@1@@Z ; ETSLayoutMgr::CPanePosition::CPanePosition
; Function compile flags: /Odt
_TEXT	SEGMENT
_this$ = -4						; size = 4
_pPane$ = 8						; size = 4
??0CPanePosition@ETSLayoutMgr@@QAE@PAVPanePosition@1@@Z PROC NEAR ; ETSLayoutMgr::CPanePosition::CPanePosition
; _this$ = ecx

; 642  : {

  01ef0	55		 push	 ebp
  01ef1	8b ec		 mov	 ebp, esp
  01ef3	51		 push	 ecx
  01ef4	89 4d fc	 mov	 DWORD PTR _this$[ebp], ecx
  01ef7	8b 45 08	 mov	 eax, DWORD PTR _pPane$[ebp]
  01efa	50		 push	 eax
  01efb	8b 4d fc	 mov	 ecx, DWORD PTR _this$[ebp]
  01efe	e8 00 00 00 00	 call	 ??0CPane@ETSLayoutMgr@@QAE@PAVPane@1@@Z ; ETSLayoutMgr::CPane::CPane

; 643  : }

  01f03	8b 45 fc	 mov	 eax, DWORD PTR _this$[ebp]
  01f06	8b e5		 mov	 esp, ebp
  01f08	5d		 pop	 ebp
  01f09	c2 04 00	 ret	 4
??0CPanePosition@ETSLayoutMgr@@QAE@PAVPanePosition@1@@Z ENDP ; ETSLayoutMgr::CPanePosition::CPanePosition
_TEXT	ENDS
PUBLIC	??0CPanePosition@ETSLayoutMgr@@QAE@XZ		; ETSLayoutMgr::CPanePosition::CPanePosition
; Function compile flags: /Odt
_TEXT	SEGMENT
_this$ = -4						; size = 4
??0CPanePosition@ETSLayoutMgr@@QAE@XZ PROC NEAR		; ETSLayoutMgr::CPanePosition::CPanePosition
; _this$ = ecx

; 646  : {

  01f10	55		 push	 ebp
  01f11	8b ec		 mov	 ebp, esp
  01f13	51		 push	 ecx
  01f14	89 4d fc	 mov	 DWORD PTR _this$[ebp], ecx
  01f17	8b 4d fc	 mov	 ecx, DWORD PTR _this$[ebp]
  01f1a	e8 00 00 00 00	 call	 ??0CPane@ETSLayoutMgr@@QAE@XZ ; ETSLayoutMgr::CPane::CPane

; 647  : }

  01f1f	8b 45 fc	 mov	 eax, DWORD PTR _this$[ebp]
  01f22	8b e5		 mov	 esp, ebp
  01f24	5d		 pop	 ebp
  01f25	c3		 ret	 0
??0CPanePosition@ETSLayoutMgr@@QAE@XZ ENDP		; ETSLayoutMgr::CPanePosition::CPanePosition
_TEXT	ENDS
PUBLIC	?panePosition@ETSLayoutMgr@@QAE?AVCPanePosition@1@W4layOrientation@1@W4layResizeMode@1@HHH@Z ; ETSLayoutMgr::panePosition
PUBLIC	??0PanePosition@ETSLayoutMgr@@QAE@PAV1@W4layOrientation@1@HH@Z ; ETSLayoutMgr::PanePosition::PanePosition
xdata$x	SEGMENT
$T203434 DD	0ffffffffH
	DD	FLAT:$L203427
$T203432 DD	019930520H
	DD	01H
	DD	FLAT:$T203434
	DD	2 DUP(00H)
	DD	2 DUP(00H)
; Function compile flags: /Odt
xdata$x	ENDS
_TEXT	SEGMENT
tv75 = -36						; size = 4
_this$ = -32						; size = 4
$T203429 = -28						; size = 4
$T203424 = -24						; size = 4
$T203423 = -20						; size = 4
_pPane$ = -16						; size = 4
__$EHRec$ = -12						; size = 12
___$ReturnUdt$ = 8					; size = 4
_orientation$ = 12					; size = 4
_modeResize$ = 16					; size = 4
_sizeBorder$ = 20					; size = 4
_sizeExtraBorder$ = 24					; size = 4
_sizeSecondary$ = 28					; size = 4
?panePosition@ETSLayoutMgr@@QAE?AVCPanePosition@1@W4layOrientation@1@W4layResizeMode@1@HHH@Z PROC NEAR ; ETSLayoutMgr::panePosition
; _this$ = ecx

; 652  : {

  01f30	55		 push	 ebp
  01f31	8b ec		 mov	 ebp, esp
  01f33	6a ff		 push	 -1
  01f35	68 00 00 00 00	 push	 __ehhandler$?panePosition@ETSLayoutMgr@@QAE?AVCPanePosition@1@W4layOrientation@1@W4layResizeMode@1@HHH@Z
  01f3a	64 a1 00 00 00
	00		 mov	 eax, DWORD PTR fs:__except_list
  01f40	50		 push	 eax
  01f41	64 89 25 00 00
	00 00		 mov	 DWORD PTR fs:__except_list, esp
  01f48	83 ec 18	 sub	 esp, 24			; 00000018H
  01f4b	89 4d e0	 mov	 DWORD PTR _this$[ebp], ecx
  01f4e	c7 45 e4 00 00
	00 00		 mov	 DWORD PTR $T203429[ebp], 0

; 653  : 	PanePosition* pPane = new PanePosition ( this, orientation, sizeBorder, sizeExtraBorder );

  01f55	68 84 00 00 00	 push	 132			; 00000084H
  01f5a	e8 00 00 00 00	 call	 ??2@YAPAXI@Z		; operator new
  01f5f	83 c4 04	 add	 esp, 4
  01f62	89 45 e8	 mov	 DWORD PTR $T203424[ebp], eax
  01f65	c7 45 fc 00 00
	00 00		 mov	 DWORD PTR __$EHRec$[ebp+8], 0
  01f6c	83 7d e8 00	 cmp	 DWORD PTR $T203424[ebp], 0
  01f70	74 1d		 je	 SHORT $L203425
  01f72	8b 45 18	 mov	 eax, DWORD PTR _sizeExtraBorder$[ebp]
  01f75	50		 push	 eax
  01f76	8b 4d 14	 mov	 ecx, DWORD PTR _sizeBorder$[ebp]
  01f79	51		 push	 ecx
  01f7a	8b 55 0c	 mov	 edx, DWORD PTR _orientation$[ebp]
  01f7d	52		 push	 edx
  01f7e	8b 45 e0	 mov	 eax, DWORD PTR _this$[ebp]
  01f81	50		 push	 eax
  01f82	8b 4d e8	 mov	 ecx, DWORD PTR $T203424[ebp]
  01f85	e8 00 00 00 00	 call	 ??0PanePosition@ETSLayoutMgr@@QAE@PAV1@W4layOrientation@1@HH@Z ; ETSLayoutMgr::PanePosition::PanePosition
  01f8a	89 45 dc	 mov	 DWORD PTR tv75[ebp], eax
  01f8d	eb 07		 jmp	 SHORT $L203426
$L203425:
  01f8f	c7 45 dc 00 00
	00 00		 mov	 DWORD PTR tv75[ebp], 0
$L203426:
  01f96	8b 4d dc	 mov	 ecx, DWORD PTR tv75[ebp]
  01f99	89 4d ec	 mov	 DWORD PTR $T203423[ebp], ecx
  01f9c	c7 45 fc ff ff
	ff ff		 mov	 DWORD PTR __$EHRec$[ebp+8], -1
  01fa3	8b 55 ec	 mov	 edx, DWORD PTR $T203423[ebp]
  01fa6	89 55 f0	 mov	 DWORD PTR _pPane$[ebp], edx

; 654  : 	pPane->m_sizeSecondary = sizeSecondary;

  01fa9	8b 45 f0	 mov	 eax, DWORD PTR _pPane$[ebp]
  01fac	8b 4d 1c	 mov	 ecx, DWORD PTR _sizeSecondary$[ebp]
  01faf	89 48 78	 mov	 DWORD PTR [eax+120], ecx

; 655  : 	pPane->m_modeResize    = modeResize;

  01fb2	8b 55 f0	 mov	 edx, DWORD PTR _pPane$[ebp]
  01fb5	8b 45 10	 mov	 eax, DWORD PTR _modeResize$[ebp]
  01fb8	89 42 18	 mov	 DWORD PTR [edx+24], eax

; 656  : 
; 657  : 	return CPanePosition(pPane);

  01fbb	8b 4d f0	 mov	 ecx, DWORD PTR _pPane$[ebp]
  01fbe	51		 push	 ecx
  01fbf	8b 4d 08	 mov	 ecx, DWORD PTR ___$ReturnUdt$[ebp]
  01fc2	e8 00 00 00 00	 call	 ??0CPanePosition@ETSLayoutMgr@@QAE@PAVPanePosition@1@@Z ; ETSLayoutMgr::CPanePosition::CPanePosition
  01fc7	8b 55 e4	 mov	 edx, DWORD PTR $T203429[ebp]
  01fca	83 ca 01	 or	 edx, 1
  01fcd	89 55 e4	 mov	 DWORD PTR $T203429[ebp], edx
  01fd0	8b 45 08	 mov	 eax, DWORD PTR ___$ReturnUdt$[ebp]

; 658  : }

  01fd3	8b 4d f4	 mov	 ecx, DWORD PTR __$EHRec$[ebp]
  01fd6	64 89 0d 00 00
	00 00		 mov	 DWORD PTR fs:__except_list, ecx
  01fdd	8b e5		 mov	 esp, ebp
  01fdf	5d		 pop	 ebp
  01fe0	c2 18 00	 ret	 24			; 00000018H
_TEXT	ENDS
text$x	SEGMENT
$L203427:
  00247	8b 45 e8	 mov	 eax, DWORD PTR $T203424[ebp]
  0024a	50		 push	 eax
  0024b	e8 00 00 00 00	 call	 ??3@YAXPAX@Z		; operator delete
  00250	59		 pop	 ecx
  00251	c3		 ret	 0
__ehhandler$?panePosition@ETSLayoutMgr@@QAE?AVCPanePosition@1@W4layOrientation@1@W4layResizeMode@1@HHH@Z:
  00252	b8 00 00 00 00	 mov	 eax, OFFSET FLAT:$T203432
  00257	e9 00 00 00 00	 jmp	 ___CxxFrameHandler
text$x	ENDS
?panePosition@ETSLayoutMgr@@QAE?AVCPanePosition@1@W4layOrientation@1@W4layResizeMode@1@HHH@Z ENDP ; ETSLayoutMgr::panePosition
PUBLIC	?resizeTo@PanePosition@ETSLayoutMgr@@UAE_NAAVCRect@@_N1@Z ; ETSLayoutMgr::PanePosition::resizeTo
PUBLIC	??_7PanePosition@ETSLayoutMgr@@6B@		; ETSLayoutMgr::PanePosition::`vftable'
PUBLIC	??_GPanePosition@ETSLayoutMgr@@UAEPAXI@Z	; ETSLayoutMgr::PanePosition::`scalar deleting destructor'
PUBLIC	??_R4PanePosition@ETSLayoutMgr@@6B@		; ETSLayoutMgr::PanePosition::`RTTI Complete Object Locator'
PUBLIC	??_R0?AVPanePosition@ETSLayoutMgr@@@8		; ETSLayoutMgr::PanePosition `RTTI Type Descriptor'
PUBLIC	??_R3PanePosition@ETSLayoutMgr@@8		; ETSLayoutMgr::PanePosition::`RTTI Class Hierarchy Descriptor'
PUBLIC	??_R2PanePosition@ETSLayoutMgr@@8		; ETSLayoutMgr::PanePosition::`RTTI Base Class Array'
PUBLIC	??_R1A@?0A@A@PanePosition@ETSLayoutMgr@@8	; ETSLayoutMgr::PanePosition::`RTTI Base Class Descriptor at (0,-1,0,0)'
EXTRN	??_EPanePosition@ETSLayoutMgr@@UAEPAXI@Z:NEAR	; ETSLayoutMgr::PanePosition::`vector deleting destructor'
;	COMDAT ??_7PanePosition@ETSLayoutMgr@@6B@
CONST	SEGMENT
??_7PanePosition@ETSLayoutMgr@@6B@ DD FLAT:??_R4PanePosition@ETSLayoutMgr@@6B@ ; ETSLayoutMgr::PanePosition::`vftable'
	DD	FLAT:?getConstrainHorz@Pane@ETSLayoutMgr@@UAEHH@Z
	DD	FLAT:?getConstrainVert@Pane@ETSLayoutMgr@@UAEHH@Z
	DD	FLAT:?getMinConstrainHorz@Pane@ETSLayoutMgr@@UAEHXZ
	DD	FLAT:?getMaxConstrainHorz@Pane@ETSLayoutMgr@@UAEHXZ
	DD	FLAT:?getMinConstrainVert@Pane@ETSLayoutMgr@@UAEHXZ
	DD	FLAT:?getMaxConstrainVert@Pane@ETSLayoutMgr@@UAEHXZ
	DD	FLAT:?resizeTo@PanePosition@ETSLayoutMgr@@UAE_NAAVCRect@@_N1@Z
	DD	FLAT:?GetSubPane@Pane@ETSLayoutMgr@@UAE?AVCPaneBase@2@V?$CStringT@DV?$StrTraitMFC_DLL@DV?$ChTraitsCRT@D@ATL@@@@@ATL@@@Z
	DD	FLAT:??_EPanePosition@ETSLayoutMgr@@UAEPAXI@Z
	DD	FLAT:?showPane@Pane@ETSLayoutMgr@@UAEX_N@Z
	DD	FLAT:?addPane@Pane@ETSLayoutMgr@@UAE_NVCPane@2@W4layResizeMode@2@H@Z
	DD	FLAT:?addPane@Pane@ETSLayoutMgr@@UAE_NVCPaneBase@2@@Z
CONST	ENDS
;	COMDAT ??_R4PanePosition@ETSLayoutMgr@@6B@
rdata$r	SEGMENT
??_R4PanePosition@ETSLayoutMgr@@6B@ DD 00H		; ETSLayoutMgr::PanePosition::`RTTI Complete Object Locator'
	DD	00H
	DD	00H
	DD	FLAT:??_R0?AVPanePosition@ETSLayoutMgr@@@8
	DD	FLAT:??_R3PanePosition@ETSLayoutMgr@@8
rdata$r	ENDS
;	COMDAT ??_R0?AVPanePosition@ETSLayoutMgr@@@8
_DATA	SEGMENT
??_R0?AVPanePosition@ETSLayoutMgr@@@8 DD FLAT:??_7type_info@@6B@ ; ETSLayoutMgr::PanePosition `RTTI Type Descriptor'
	DD	00H
	DB	'.?AVPanePosition@ETSLayoutMgr@@', 00H
_DATA	ENDS
;	COMDAT ??_R3PanePosition@ETSLayoutMgr@@8
rdata$r	SEGMENT
??_R3PanePosition@ETSLayoutMgr@@8 DD 00H		; ETSLayoutMgr::PanePosition::`RTTI Class Hierarchy Descriptor'
	DD	00H
	DD	03H
	DD	FLAT:??_R2PanePosition@ETSLayoutMgr@@8
rdata$r	ENDS
;	COMDAT ??_R2PanePosition@ETSLayoutMgr@@8
rdata$r	SEGMENT
??_R2PanePosition@ETSLayoutMgr@@8 DD FLAT:??_R1A@?0A@A@PanePosition@ETSLayoutMgr@@8 ; ETSLayoutMgr::PanePosition::`RTTI Base Class Array'
	DD	FLAT:??_R1A@?0A@A@Pane@ETSLayoutMgr@@8
	DD	FLAT:??_R1A@?0A@A@PaneBase@ETSLayoutMgr@@8
rdata$r	ENDS
;	COMDAT ??_R1A@?0A@A@PanePosition@ETSLayoutMgr@@8
rdata$r	SEGMENT
??_R1A@?0A@A@PanePosition@ETSLayoutMgr@@8 DD FLAT:??_R0?AVPanePosition@ETSLayoutMgr@@@8 ; ETSLayoutMgr::PanePosition::`RTTI Base Class Descriptor at (0,-1,0,0)'
	DD	02H
	DD	00H
	DD	0ffffffffH
	DD	00H
	DD	00H
; Function compile flags: /Odt
rdata$r	ENDS
_TEXT	SEGMENT
_this$ = -4						; size = 4
_pMgr$ = 8						; size = 4
_orientation$ = 12					; size = 4
_sizeBorder$ = 16					; size = 4
_sizeExtraBorder$ = 20					; size = 4
??0PanePosition@ETSLayoutMgr@@QAE@PAV1@W4layOrientation@1@HH@Z PROC NEAR ; ETSLayoutMgr::PanePosition::PanePosition
; _this$ = ecx

; 664  : {

  01ff0	55		 push	 ebp
  01ff1	8b ec		 mov	 ebp, esp
  01ff3	51		 push	 ecx
  01ff4	89 4d fc	 mov	 DWORD PTR _this$[ebp], ecx
  01ff7	8b 45 14	 mov	 eax, DWORD PTR _sizeExtraBorder$[ebp]
  01ffa	50		 push	 eax
  01ffb	8b 4d 10	 mov	 ecx, DWORD PTR _sizeBorder$[ebp]
  01ffe	51		 push	 ecx
  01fff	8b 55 0c	 mov	 edx, DWORD PTR _orientation$[ebp]
  02002	52		 push	 edx
  02003	8b 45 08	 mov	 eax, DWORD PTR _pMgr$[ebp]
  02006	50		 push	 eax
  02007	8b 4d fc	 mov	 ecx, DWORD PTR _this$[ebp]
  0200a	e8 00 00 00 00	 call	 ??0Pane@ETSLayoutMgr@@IAE@PAV1@W4layOrientation@1@HH@Z ; ETSLayoutMgr::Pane::Pane
  0200f	8b 4d fc	 mov	 ecx, DWORD PTR _this$[ebp]
  02012	c7 01 00 00 00
	00		 mov	 DWORD PTR [ecx], OFFSET FLAT:??_7PanePosition@ETSLayoutMgr@@6B@

; 665  : }

  02018	8b 45 fc	 mov	 eax, DWORD PTR _this$[ebp]
  0201b	8b e5		 mov	 esp, ebp
  0201d	5d		 pop	 ebp
  0201e	c2 10 00	 ret	 16			; 00000010H
??0PanePosition@ETSLayoutMgr@@QAE@PAV1@W4layOrientation@1@HH@Z ENDP ; ETSLayoutMgr::PanePosition::PanePosition
_TEXT	ENDS
PUBLIC	??1PanePosition@ETSLayoutMgr@@UAE@XZ		; ETSLayoutMgr::PanePosition::~PanePosition
; Function compile flags: /Odt
;	COMDAT ??_GPanePosition@ETSLayoutMgr@@UAEPAXI@Z
_TEXT	SEGMENT
_this$ = -4						; size = 4
___flags$ = 8						; size = 4
??_GPanePosition@ETSLayoutMgr@@UAEPAXI@Z PROC NEAR	; ETSLayoutMgr::PanePosition::`scalar deleting destructor', COMDAT
; _this$ = ecx
  00000	55		 push	 ebp
  00001	8b ec		 mov	 ebp, esp
  00003	51		 push	 ecx
  00004	89 4d fc	 mov	 DWORD PTR _this$[ebp], ecx
  00007	8b 4d fc	 mov	 ecx, DWORD PTR _this$[ebp]
  0000a	e8 00 00 00 00	 call	 ??1PanePosition@ETSLayoutMgr@@UAE@XZ
  0000f	8b 45 08	 mov	 eax, DWORD PTR ___flags$[ebp]
  00012	83 e0 01	 and	 eax, 1
  00015	74 0c		 je	 SHORT $L201226
  00017	8b 4d fc	 mov	 ecx, DWORD PTR _this$[ebp]
  0001a	51		 push	 ecx
  0001b	e8 00 00 00 00	 call	 ??3@YAXPAX@Z		; operator delete
  00020	83 c4 04	 add	 esp, 4
$L201226:
  00023	8b 45 fc	 mov	 eax, DWORD PTR _this$[ebp]
  00026	8b e5		 mov	 esp, ebp
  00028	5d		 pop	 ebp
  00029	c2 04 00	 ret	 4
??_GPanePosition@ETSLayoutMgr@@UAEPAXI@Z ENDP		; ETSLayoutMgr::PanePosition::`scalar deleting destructor'
; Function compile flags: /Odt
_TEXT	ENDS
;	COMDAT ??1PanePosition@ETSLayoutMgr@@UAE@XZ
_TEXT	SEGMENT
_this$ = -4						; size = 4
??1PanePosition@ETSLayoutMgr@@UAE@XZ PROC NEAR		; ETSLayoutMgr::PanePosition::~PanePosition, COMDAT
; _this$ = ecx
  00000	55		 push	 ebp
  00001	8b ec		 mov	 ebp, esp
  00003	51		 push	 ecx
  00004	89 4d fc	 mov	 DWORD PTR _this$[ebp], ecx
  00007	8b 4d fc	 mov	 ecx, DWORD PTR _this$[ebp]
  0000a	e8 00 00 00 00	 call	 ??1Pane@ETSLayoutMgr@@UAE@XZ ; ETSLayoutMgr::Pane::~Pane
  0000f	8b e5		 mov	 esp, ebp
  00011	5d		 pop	 ebp
  00012	c3		 ret	 0
??1PanePosition@ETSLayoutMgr@@UAE@XZ ENDP		; ETSLayoutMgr::PanePosition::~PanePosition
_TEXT	ENDS
PUBLIC	??0CRect@@QAE@XZ				; CRect::CRect
PUBLIC	?GetValue@ETSLayoutMgr@@QAEHV?$CStringT@DV?$StrTraitMFC_DLL@DV?$ChTraitsCRT@D@ATL@@@@@ATL@@AAV23@@Z ; ETSLayoutMgr::GetValue
EXTRN	?GetWidth@CDibBitmap@@QAEHXZ:NEAR		; CDibBitmap::GetWidth
EXTRN	?GetHeight@CDibBitmap@@QAEHXZ:NEAR		; CDibBitmap::GetHeight
EXTRN	__imp__atoi:NEAR
xdata$x	SEGMENT
$T203461 DD	0ffffffffH
	DD	FLAT:$L203449
	DD	00H
	DD	FLAT:$L203450
	DD	01H
	DD	FLAT:$L203455
	DD	01H
	DD	FLAT:$L203456
	DD	01H
	DD	FLAT:$L203457
$T203459 DD	019930520H
	DD	05H
	DD	FLAT:$T203461
	DD	2 DUP(00H)
	DD	2 DUP(00H)
; Function compile flags: /Odt
xdata$x	ENDS
_TEXT	SEGMENT
tv484 = -184						; size = 4
tv421 = -180						; size = 4
tv416 = -176						; size = 4
tv511 = -172						; size = 4
tv72 = -168						; size = 4
tv392 = -164						; size = 4
tv387 = -160						; size = 4
tv509 = -156						; size = 4
tv154 = -152						; size = 4
tv507 = -148						; size = 4
tv506 = -144						; size = 4
tv503 = -140						; size = 4
tv502 = -136						; size = 4
tv499 = -132						; size = 4
tv498 = -128						; size = 4
tv495 = -124						; size = 4
tv494 = -120						; size = 4
_this$ = -116						; size = 4
$T203448 = -112						; size = 4
$T203447 = -108						; size = 4
$T203446 = -104						; size = 4
$T203445 = -100						; size = 4
$T203444 = -96						; size = 4
$T203443 = -92						; size = 4
_pBmp$201296 = -88					; size = 4
_pBmp$201291 = -84					; size = 4
_percent_start$201244 = -80				; size = 4
_r$201268 = -76						; size = 16
_ey$201243 = -60					; size = 4
_name$201300 = -56					; size = 4
_ex$201242 = -52					; size = 4
_percent_rangex$201256 = -48				; size = 4
_base$201239 = -44					; size = 4
_percent_end$201245 = -40				; size = 4
_mode$201257 = -36					; size = 4
_sx$201240 = -32					; size = 4
_percent_rangey$201255 = -28				; size = 4
_value$201246 = -24					; size = 4
_sy$201241 = -20					; size = 4
_i$201235 = -16						; size = 4
__$EHRec$ = -12						; size = 12
_rcNewArea$ = 8						; size = 4
_bRedraw$ = 12						; size = 1
_bReSizeAlways$ = 16					; size = 1
?resizeTo@PanePosition@ETSLayoutMgr@@UAE_NAAVCRect@@_N1@Z PROC NEAR ; ETSLayoutMgr::PanePosition::resizeTo
; _this$ = ecx

; 670  : {

  02030	55		 push	 ebp
  02031	8b ec		 mov	 ebp, esp
  02033	6a ff		 push	 -1
  02035	68 00 00 00 00	 push	 __ehhandler$?resizeTo@PanePosition@ETSLayoutMgr@@UAE_NAAVCRect@@_N1@Z
  0203a	64 a1 00 00 00
	00		 mov	 eax, DWORD PTR fs:__except_list
  02040	50		 push	 eax
  02041	64 89 25 00 00
	00 00		 mov	 DWORD PTR fs:__except_list, esp
  02048	81 ec ac 00 00
	00		 sub	 esp, 172		; 000000acH
  0204e	56		 push	 esi
  0204f	89 4d 8c	 mov	 DWORD PTR _this$[ebp], ecx

; 671  : 	m_rcRect = rcNewArea;

  02052	8b 45 08	 mov	 eax, DWORD PTR _rcNewArea$[ebp]
  02055	8b 4d 8c	 mov	 ecx, DWORD PTR _this$[ebp]
  02058	83 c1 28	 add	 ecx, 40			; 00000028H
  0205b	8b 10		 mov	 edx, DWORD PTR [eax]
  0205d	89 11		 mov	 DWORD PTR [ecx], edx
  0205f	8b 50 04	 mov	 edx, DWORD PTR [eax+4]
  02062	89 51 04	 mov	 DWORD PTR [ecx+4], edx
  02065	8b 50 08	 mov	 edx, DWORD PTR [eax+8]
  02068	89 51 08	 mov	 DWORD PTR [ecx+8], edx
  0206b	8b 40 0c	 mov	 eax, DWORD PTR [eax+12]
  0206e	89 41 0c	 mov	 DWORD PTR [ecx+12], eax

; 672  : 	for(int i = 0 ; i<m_paneItems.GetSize(); i++)

  02071	c7 45 f0 00 00
	00 00		 mov	 DWORD PTR _i$201235[ebp], 0
  02078	eb 09		 jmp	 SHORT $L201236
$L201237:
  0207a	8b 4d f0	 mov	 ecx, DWORD PTR _i$201235[ebp]
  0207d	83 c1 01	 add	 ecx, 1
  02080	89 4d f0	 mov	 DWORD PTR _i$201235[ebp], ecx
$L201236:
  02083	8b 4d 8c	 mov	 ecx, DWORD PTR _this$[ebp]
  02086	83 c1 64	 add	 ecx, 100		; 00000064H
  02089	e8 00 00 00 00	 call	 ?GetSize@?$CArray@VCPaneBase@ETSLayoutMgr@@V12@@@QBEHXZ ; CArray<ETSLayoutMgr::CPaneBase,ETSLayoutMgr::CPaneBase>::GetSize
  0208e	39 45 f0	 cmp	 DWORD PTR _i$201235[ebp], eax
  02091	0f 8d d1 06 00
	00		 jge	 $L201238

; 673  : 	{
; 674  : 		CPaneBase base = m_paneItems[i];

  02097	8b 55 f0	 mov	 edx, DWORD PTR _i$201235[ebp]
  0209a	52		 push	 edx
  0209b	8b 4d 8c	 mov	 ecx, DWORD PTR _this$[ebp]
  0209e	83 c1 64	 add	 ecx, 100		; 00000064H
  020a1	e8 00 00 00 00	 call	 ??A?$CArray@VCPaneBase@ETSLayoutMgr@@V12@@@QAEAAVCPaneBase@ETSLayoutMgr@@H@Z ; CArray<ETSLayoutMgr::CPaneBase,ETSLayoutMgr::CPaneBase>::operator[]
  020a6	50		 push	 eax
  020a7	8d 4d d4	 lea	 ecx, DWORD PTR _base$201239[ebp]
  020aa	e8 00 00 00 00	 call	 ??0CPaneBase@ETSLayoutMgr@@QAE@ABV01@@Z ; ETSLayoutMgr::CPaneBase::CPaneBase
  020af	c7 45 fc 00 00
	00 00		 mov	 DWORD PTR __$EHRec$[ebp+8], 0

; 675  : 		
; 676  : 		int sx = atoi(base.GetPaneBase()->m_start_x);

  020b6	8d 4d d4	 lea	 ecx, DWORD PTR _base$201239[ebp]
  020b9	e8 00 00 00 00	 call	 ?GetPaneBase@CPaneBase@ETSLayoutMgr@@QAEPAVPaneBase@2@XZ ; ETSLayoutMgr::CPaneBase::GetPaneBase
  020be	83 c0 3c	 add	 eax, 60			; 0000003cH
  020c1	8b c8		 mov	 ecx, eax
  020c3	ff 15 00 00 00
	00		 call	 DWORD PTR __imp_??B?$CSimpleStringT@D$00@ATL@@QBEPBDXZ
  020c9	50		 push	 eax
  020ca	ff 15 00 00 00
	00		 call	 DWORD PTR __imp__atoi
  020d0	83 c4 04	 add	 esp, 4
  020d3	89 45 e0	 mov	 DWORD PTR _sx$201240[ebp], eax

; 677  : 		int sy = atoi(base.GetPaneBase()->m_start_y);

  020d6	8d 4d d4	 lea	 ecx, DWORD PTR _base$201239[ebp]
  020d9	e8 00 00 00 00	 call	 ?GetPaneBase@CPaneBase@ETSLayoutMgr@@QAEPAVPaneBase@2@XZ ; ETSLayoutMgr::CPaneBase::GetPaneBase
  020de	83 c0 40	 add	 eax, 64			; 00000040H
  020e1	8b c8		 mov	 ecx, eax
  020e3	ff 15 00 00 00
	00		 call	 DWORD PTR __imp_??B?$CSimpleStringT@D$00@ATL@@QBEPBDXZ
  020e9	50		 push	 eax
  020ea	ff 15 00 00 00
	00		 call	 DWORD PTR __imp__atoi
  020f0	83 c4 04	 add	 esp, 4
  020f3	89 45 ec	 mov	 DWORD PTR _sy$201241[ebp], eax

; 678  : 		int ex = atoi(base.GetPaneBase()->m_end_x);

  020f6	8d 4d d4	 lea	 ecx, DWORD PTR _base$201239[ebp]
  020f9	e8 00 00 00 00	 call	 ?GetPaneBase@CPaneBase@ETSLayoutMgr@@QAEPAVPaneBase@2@XZ ; ETSLayoutMgr::CPaneBase::GetPaneBase
  020fe	83 c0 44	 add	 eax, 68			; 00000044H
  02101	8b c8		 mov	 ecx, eax
  02103	ff 15 00 00 00
	00		 call	 DWORD PTR __imp_??B?$CSimpleStringT@D$00@ATL@@QBEPBDXZ
  02109	50		 push	 eax
  0210a	ff 15 00 00 00
	00		 call	 DWORD PTR __imp__atoi
  02110	83 c4 04	 add	 esp, 4
  02113	89 45 cc	 mov	 DWORD PTR _ex$201242[ebp], eax

; 679  : 		int ey = atoi(base.GetPaneBase()->m_end_y);

  02116	8d 4d d4	 lea	 ecx, DWORD PTR _base$201239[ebp]
  02119	e8 00 00 00 00	 call	 ?GetPaneBase@CPaneBase@ETSLayoutMgr@@QAEPAVPaneBase@2@XZ ; ETSLayoutMgr::CPaneBase::GetPaneBase
  0211e	83 c0 48	 add	 eax, 72			; 00000048H
  02121	8b c8		 mov	 ecx, eax
  02123	ff 15 00 00 00
	00		 call	 DWORD PTR __imp_??B?$CSimpleStringT@D$00@ATL@@QBEPBDXZ
  02129	50		 push	 eax
  0212a	ff 15 00 00 00
	00		 call	 DWORD PTR __imp__atoi
  02130	83 c4 04	 add	 esp, 4
  02133	89 45 c4	 mov	 DWORD PTR _ey$201243[ebp], eax

; 680  : 
; 681  : 		int percent_start, percent_end;
; 682  : 
; 683  : 		percent_start = atoi(base.GetPaneBase()->m_percent_start);

  02136	8d 4d d4	 lea	 ecx, DWORD PTR _base$201239[ebp]
  02139	e8 00 00 00 00	 call	 ?GetPaneBase@CPaneBase@ETSLayoutMgr@@QAEPAVPaneBase@2@XZ ; ETSLayoutMgr::CPaneBase::GetPaneBase
  0213e	83 c0 4c	 add	 eax, 76			; 0000004cH
  02141	8b c8		 mov	 ecx, eax
  02143	ff 15 00 00 00
	00		 call	 DWORD PTR __imp_??B?$CSimpleStringT@D$00@ATL@@QBEPBDXZ
  02149	50		 push	 eax
  0214a	ff 15 00 00 00
	00		 call	 DWORD PTR __imp__atoi
  02150	83 c4 04	 add	 esp, 4
  02153	89 45 b0	 mov	 DWORD PTR _percent_start$201244[ebp], eax

; 684  : 		percent_end = atoi(base.GetPaneBase()->m_percent_end);

  02156	8d 4d d4	 lea	 ecx, DWORD PTR _base$201239[ebp]
  02159	e8 00 00 00 00	 call	 ?GetPaneBase@CPaneBase@ETSLayoutMgr@@QAEPAVPaneBase@2@XZ ; ETSLayoutMgr::CPaneBase::GetPaneBase
  0215e	83 c0 50	 add	 eax, 80			; 00000050H
  02161	8b c8		 mov	 ecx, eax
  02163	ff 15 00 00 00
	00		 call	 DWORD PTR __imp_??B?$CSimpleStringT@D$00@ATL@@QBEPBDXZ
  02169	50		 push	 eax
  0216a	ff 15 00 00 00
	00		 call	 DWORD PTR __imp__atoi
  02170	83 c4 04	 add	 esp, 4
  02173	89 45 d8	 mov	 DWORD PTR _percent_end$201245[ebp], eax

; 685  : 
; 686  : 		CString value;

  02176	8d 4d e8	 lea	 ecx, DWORD PTR _value$201246[ebp]
  02179	ff 15 00 00 00
	00		 call	 DWORD PTR __imp_??0?$CStringT@DV?$StrTraitMFC_DLL@DV?$ChTraitsCRT@D@ATL@@@@@ATL@@QAE@XZ
  0217f	c6 45 fc 01	 mov	 BYTE PTR __$EHRec$[ebp+8], 1

; 687  : 		if(m_pMgr->GetValue(base.GetPaneBase()->m_start_x,value))

  02183	8d 45 e8	 lea	 eax, DWORD PTR _value$201246[ebp]
  02186	50		 push	 eax
  02187	8d 4d d4	 lea	 ecx, DWORD PTR _base$201239[ebp]
  0218a	e8 00 00 00 00	 call	 ?GetPaneBase@CPaneBase@ETSLayoutMgr@@QAEPAVPaneBase@2@XZ ; ETSLayoutMgr::CPaneBase::GetPaneBase
  0218f	83 c0 3c	 add	 eax, 60			; 0000003cH
  02192	51		 push	 ecx
  02193	8b cc		 mov	 ecx, esp
  02195	89 65 a4	 mov	 DWORD PTR $T203443[ebp], esp
  02198	50		 push	 eax
  02199	ff 15 00 00 00
	00		 call	 DWORD PTR __imp_??0?$CStringT@DV?$StrTraitMFC_DLL@DV?$ChTraitsCRT@D@ATL@@@@@ATL@@QAE@ABV01@@Z
  0219f	89 45 88	 mov	 DWORD PTR tv494[ebp], eax
  021a2	8b 4d 8c	 mov	 ecx, DWORD PTR _this$[ebp]
  021a5	8b 49 38	 mov	 ecx, DWORD PTR [ecx+56]
  021a8	e8 00 00 00 00	 call	 ?GetValue@ETSLayoutMgr@@QAEHV?$CStringT@DV?$StrTraitMFC_DLL@DV?$ChTraitsCRT@D@ATL@@@@@ATL@@AAV23@@Z ; ETSLayoutMgr::GetValue
  021ad	89 45 84	 mov	 DWORD PTR tv495[ebp], eax
  021b0	83 7d 84 00	 cmp	 DWORD PTR tv495[ebp], 0
  021b4	74 16		 je	 SHORT $L201248

; 688  : 			sx = atoi(value);

  021b6	8d 4d e8	 lea	 ecx, DWORD PTR _value$201246[ebp]
  021b9	ff 15 00 00 00
	00		 call	 DWORD PTR __imp_??B?$CSimpleStringT@D$00@ATL@@QBEPBDXZ
  021bf	50		 push	 eax
  021c0	ff 15 00 00 00
	00		 call	 DWORD PTR __imp__atoi
  021c6	83 c4 04	 add	 esp, 4
  021c9	89 45 e0	 mov	 DWORD PTR _sx$201240[ebp], eax
$L201248:

; 689  : 		if(m_pMgr->GetValue(base.GetPaneBase()->m_start_y,value))

  021cc	8d 55 e8	 lea	 edx, DWORD PTR _value$201246[ebp]
  021cf	52		 push	 edx
  021d0	8d 4d d4	 lea	 ecx, DWORD PTR _base$201239[ebp]
  021d3	e8 00 00 00 00	 call	 ?GetPaneBase@CPaneBase@ETSLayoutMgr@@QAEPAVPaneBase@2@XZ ; ETSLayoutMgr::CPaneBase::GetPaneBase
  021d8	83 c0 40	 add	 eax, 64			; 00000040H
  021db	51		 push	 ecx
  021dc	8b cc		 mov	 ecx, esp
  021de	89 65 a0	 mov	 DWORD PTR $T203444[ebp], esp
  021e1	50		 push	 eax
  021e2	ff 15 00 00 00
	00		 call	 DWORD PTR __imp_??0?$CStringT@DV?$StrTraitMFC_DLL@DV?$ChTraitsCRT@D@ATL@@@@@ATL@@QAE@ABV01@@Z
  021e8	89 45 80	 mov	 DWORD PTR tv498[ebp], eax
  021eb	8b 45 8c	 mov	 eax, DWORD PTR _this$[ebp]
  021ee	8b 48 38	 mov	 ecx, DWORD PTR [eax+56]
  021f1	e8 00 00 00 00	 call	 ?GetValue@ETSLayoutMgr@@QAEHV?$CStringT@DV?$StrTraitMFC_DLL@DV?$ChTraitsCRT@D@ATL@@@@@ATL@@AAV23@@Z ; ETSLayoutMgr::GetValue
  021f6	89 85 7c ff ff
	ff		 mov	 DWORD PTR tv499[ebp], eax
  021fc	83 bd 7c ff ff
	ff 00		 cmp	 DWORD PTR tv499[ebp], 0
  02203	74 16		 je	 SHORT $L201250

; 690  : 			sy = atoi(value);

  02205	8d 4d e8	 lea	 ecx, DWORD PTR _value$201246[ebp]
  02208	ff 15 00 00 00
	00		 call	 DWORD PTR __imp_??B?$CSimpleStringT@D$00@ATL@@QBEPBDXZ
  0220e	50		 push	 eax
  0220f	ff 15 00 00 00
	00		 call	 DWORD PTR __imp__atoi
  02215	83 c4 04	 add	 esp, 4
  02218	89 45 ec	 mov	 DWORD PTR _sy$201241[ebp], eax
$L201250:

; 691  : 		if(m_pMgr->GetValue(base.GetPaneBase()->m_end_x,value))

  0221b	8d 4d e8	 lea	 ecx, DWORD PTR _value$201246[ebp]
  0221e	51		 push	 ecx
  0221f	8d 4d d4	 lea	 ecx, DWORD PTR _base$201239[ebp]
  02222	e8 00 00 00 00	 call	 ?GetPaneBase@CPaneBase@ETSLayoutMgr@@QAEPAVPaneBase@2@XZ ; ETSLayoutMgr::CPaneBase::GetPaneBase
  02227	83 c0 44	 add	 eax, 68			; 00000044H
  0222a	51		 push	 ecx
  0222b	8b cc		 mov	 ecx, esp
  0222d	89 65 9c	 mov	 DWORD PTR $T203445[ebp], esp
  02230	50		 push	 eax
  02231	ff 15 00 00 00
	00		 call	 DWORD PTR __imp_??0?$CStringT@DV?$StrTraitMFC_DLL@DV?$ChTraitsCRT@D@ATL@@@@@ATL@@QAE@ABV01@@Z
  02237	89 85 78 ff ff
	ff		 mov	 DWORD PTR tv502[ebp], eax
  0223d	8b 55 8c	 mov	 edx, DWORD PTR _this$[ebp]
  02240	8b 4a 38	 mov	 ecx, DWORD PTR [edx+56]
  02243	e8 00 00 00 00	 call	 ?GetValue@ETSLayoutMgr@@QAEHV?$CStringT@DV?$StrTraitMFC_DLL@DV?$ChTraitsCRT@D@ATL@@@@@ATL@@AAV23@@Z ; ETSLayoutMgr::GetValue
  02248	89 85 74 ff ff
	ff		 mov	 DWORD PTR tv503[ebp], eax
  0224e	83 bd 74 ff ff
	ff 00		 cmp	 DWORD PTR tv503[ebp], 0
  02255	74 16		 je	 SHORT $L201252

; 692  : 			ex = atoi(value);

  02257	8d 4d e8	 lea	 ecx, DWORD PTR _value$201246[ebp]
  0225a	ff 15 00 00 00
	00		 call	 DWORD PTR __imp_??B?$CSimpleStringT@D$00@ATL@@QBEPBDXZ
  02260	50		 push	 eax
  02261	ff 15 00 00 00
	00		 call	 DWORD PTR __imp__atoi
  02267	83 c4 04	 add	 esp, 4
  0226a	89 45 cc	 mov	 DWORD PTR _ex$201242[ebp], eax
$L201252:

; 693  : 		if(m_pMgr->GetValue(base.GetPaneBase()->m_end_y,value))

  0226d	8d 45 e8	 lea	 eax, DWORD PTR _value$201246[ebp]
  02270	50		 push	 eax
  02271	8d 4d d4	 lea	 ecx, DWORD PTR _base$201239[ebp]
  02274	e8 00 00 00 00	 call	 ?GetPaneBase@CPaneBase@ETSLayoutMgr@@QAEPAVPaneBase@2@XZ ; ETSLayoutMgr::CPaneBase::GetPaneBase
  02279	83 c0 48	 add	 eax, 72			; 00000048H
  0227c	51		 push	 ecx
  0227d	8b cc		 mov	 ecx, esp
  0227f	89 65 98	 mov	 DWORD PTR $T203446[ebp], esp
  02282	50		 push	 eax
  02283	ff 15 00 00 00
	00		 call	 DWORD PTR __imp_??0?$CStringT@DV?$StrTraitMFC_DLL@DV?$ChTraitsCRT@D@ATL@@@@@ATL@@QAE@ABV01@@Z
  02289	89 85 70 ff ff
	ff		 mov	 DWORD PTR tv506[ebp], eax
  0228f	8b 4d 8c	 mov	 ecx, DWORD PTR _this$[ebp]
  02292	8b 49 38	 mov	 ecx, DWORD PTR [ecx+56]
  02295	e8 00 00 00 00	 call	 ?GetValue@ETSLayoutMgr@@QAEHV?$CStringT@DV?$StrTraitMFC_DLL@DV?$ChTraitsCRT@D@ATL@@@@@ATL@@AAV23@@Z ; ETSLayoutMgr::GetValue
  0229a	89 85 6c ff ff
	ff		 mov	 DWORD PTR tv507[ebp], eax
  022a0	83 bd 6c ff ff
	ff 00		 cmp	 DWORD PTR tv507[ebp], 0
  022a7	74 16		 je	 SHORT $L201254

; 694  : 			ey = atoi(value);

  022a9	8d 4d e8	 lea	 ecx, DWORD PTR _value$201246[ebp]
  022ac	ff 15 00 00 00
	00		 call	 DWORD PTR __imp_??B?$CSimpleStringT@D$00@ATL@@QBEPBDXZ
  022b2	50		 push	 eax
  022b3	ff 15 00 00 00
	00		 call	 DWORD PTR __imp__atoi
  022b9	83 c4 04	 add	 esp, 4
  022bc	89 45 c4	 mov	 DWORD PTR _ey$201243[ebp], eax
$L201254:

; 695  : 
; 696  : 		int percent_rangey = 0;

  022bf	c7 45 e4 00 00
	00 00		 mov	 DWORD PTR _percent_rangey$201255[ebp], 0

; 697  : 		int percent_rangex = 0;

  022c6	c7 45 d0 00 00
	00 00		 mov	 DWORD PTR _percent_rangex$201256[ebp], 0

; 698  : 		DWORD mode = base.GetPaneBase()->m_posMode;

  022cd	8d 4d d4	 lea	 ecx, DWORD PTR _base$201239[ebp]
  022d0	e8 00 00 00 00	 call	 ?GetPaneBase@CPaneBase@ETSLayoutMgr@@QAEPAVPaneBase@2@XZ ; ETSLayoutMgr::CPaneBase::GetPaneBase
  022d5	8b 50 54	 mov	 edx, DWORD PTR [eax+84]
  022d8	89 55 dc	 mov	 DWORD PTR _mode$201257[ebp], edx

; 699  : 		if(mode & ETSLayoutMgr::START_X_PERCENT | mode & ETSLayoutMgr::END_X_PERCENT)

  022db	8b 45 dc	 mov	 eax, DWORD PTR _mode$201257[ebp]
  022de	25 00 01 00 00	 and	 eax, 256		; 00000100H
  022e3	8b 4d dc	 mov	 ecx, DWORD PTR _mode$201257[ebp]
  022e6	81 e1 00 04 00
	00		 and	 ecx, 1024		; 00000400H
  022ec	0b c1		 or	 eax, ecx
  022ee	74 49		 je	 SHORT $L201258

; 700  : 		{
; 701  : 			percent_rangex = rcNewArea.Width();

  022f0	8b 4d 08	 mov	 ecx, DWORD PTR _rcNewArea$[ebp]
  022f3	e8 00 00 00 00	 call	 ?Width@CRect@@QBEHXZ	; CRect::Width
  022f8	89 45 d0	 mov	 DWORD PTR _percent_rangex$201256[ebp], eax

; 702  : 			if(percent_start > 0)

  022fb	83 7d b0 00	 cmp	 DWORD PTR _percent_start$201244[ebp], 0
  022ff	7e 0b		 jle	 SHORT $L201259

; 703  : 				percent_rangex -= percent_start;

  02301	8b 55 d0	 mov	 edx, DWORD PTR _percent_rangex$201256[ebp]
  02304	2b 55 b0	 sub	 edx, DWORD PTR _percent_start$201244[ebp]
  02307	89 55 d0	 mov	 DWORD PTR _percent_rangex$201256[ebp], edx

; 704  : 			else

  0230a	eb 09		 jmp	 SHORT $L201260
$L201259:

; 705  : 				percent_rangex += percent_start;

  0230c	8b 45 d0	 mov	 eax, DWORD PTR _percent_rangex$201256[ebp]
  0230f	03 45 b0	 add	 eax, DWORD PTR _percent_start$201244[ebp]
  02312	89 45 d0	 mov	 DWORD PTR _percent_rangex$201256[ebp], eax
$L201260:

; 706  : 
; 707  : 			if(percent_end > 0)

  02315	83 7d d8 00	 cmp	 DWORD PTR _percent_end$201245[ebp], 0
  02319	7e 15		 jle	 SHORT $L201261

; 708  : 				percent_rangex -= rcNewArea.Width() - percent_end;

  0231b	8b 4d 08	 mov	 ecx, DWORD PTR _rcNewArea$[ebp]
  0231e	e8 00 00 00 00	 call	 ?Width@CRect@@QBEHXZ	; CRect::Width
  02323	2b 45 d8	 sub	 eax, DWORD PTR _percent_end$201245[ebp]
  02326	8b 4d d0	 mov	 ecx, DWORD PTR _percent_rangex$201256[ebp]
  02329	2b c8		 sub	 ecx, eax
  0232b	89 4d d0	 mov	 DWORD PTR _percent_rangex$201256[ebp], ecx

; 709  : 			else

  0232e	eb 09		 jmp	 SHORT $L201258
$L201261:

; 710  : 				percent_rangex += percent_end;

  02330	8b 55 d0	 mov	 edx, DWORD PTR _percent_rangex$201256[ebp]
  02333	03 55 d8	 add	 edx, DWORD PTR _percent_end$201245[ebp]
  02336	89 55 d0	 mov	 DWORD PTR _percent_rangex$201256[ebp], edx
$L201258:

; 711  : 		}
; 712  : 		if(mode & ETSLayoutMgr::START_Y_PERCENT | mode & ETSLayoutMgr::END_Y_PERCENT)

  02339	8b 45 dc	 mov	 eax, DWORD PTR _mode$201257[ebp]
  0233c	25 00 02 00 00	 and	 eax, 512		; 00000200H
  02341	8b 4d dc	 mov	 ecx, DWORD PTR _mode$201257[ebp]
  02344	81 e1 00 08 00
	00		 and	 ecx, 2048		; 00000800H
  0234a	0b c1		 or	 eax, ecx
  0234c	74 49		 je	 SHORT $L201263

; 713  : 		{
; 714  : 			percent_rangey = rcNewArea.Height();

  0234e	8b 4d 08	 mov	 ecx, DWORD PTR _rcNewArea$[ebp]
  02351	e8 00 00 00 00	 call	 ?Height@CRect@@QBEHXZ	; CRect::Height
  02356	89 45 e4	 mov	 DWORD PTR _percent_rangey$201255[ebp], eax

; 715  : 			if(percent_start > 0)

  02359	83 7d b0 00	 cmp	 DWORD PTR _percent_start$201244[ebp], 0
  0235d	7e 0b		 jle	 SHORT $L201264

; 716  : 				percent_rangey -= percent_start;

  0235f	8b 55 e4	 mov	 edx, DWORD PTR _percent_rangey$201255[ebp]
  02362	2b 55 b0	 sub	 edx, DWORD PTR _percent_start$201244[ebp]
  02365	89 55 e4	 mov	 DWORD PTR _percent_rangey$201255[ebp], edx

; 717  : 			else

  02368	eb 09		 jmp	 SHORT $L201265
$L201264:

; 718  : 				percent_rangey += percent_start;

  0236a	8b 45 e4	 mov	 eax, DWORD PTR _percent_rangey$201255[ebp]
  0236d	03 45 b0	 add	 eax, DWORD PTR _percent_start$201244[ebp]
  02370	89 45 e4	 mov	 DWORD PTR _percent_rangey$201255[ebp], eax
$L201265:

; 719  : 
; 720  : 			if(percent_end > 0)

  02373	83 7d d8 00	 cmp	 DWORD PTR _percent_end$201245[ebp], 0
  02377	7e 15		 jle	 SHORT $L201266

; 721  : 				percent_rangey -= rcNewArea.Height() - percent_end;

  02379	8b 4d 08	 mov	 ecx, DWORD PTR _rcNewArea$[ebp]
  0237c	e8 00 00 00 00	 call	 ?Height@CRect@@QBEHXZ	; CRect::Height
  02381	2b 45 d8	 sub	 eax, DWORD PTR _percent_end$201245[ebp]
  02384	8b 4d e4	 mov	 ecx, DWORD PTR _percent_rangey$201255[ebp]
  02387	2b c8		 sub	 ecx, eax
  02389	89 4d e4	 mov	 DWORD PTR _percent_rangey$201255[ebp], ecx

; 722  : 			else

  0238c	eb 09		 jmp	 SHORT $L201263
$L201266:

; 723  : 				percent_rangey += percent_end;

  0238e	8b 55 e4	 mov	 edx, DWORD PTR _percent_rangey$201255[ebp]
  02391	03 55 d8	 add	 edx, DWORD PTR _percent_end$201245[ebp]
  02394	89 55 e4	 mov	 DWORD PTR _percent_rangey$201255[ebp], edx
$L201263:

; 724  : 		}
; 725  : 
; 726  : 		CRect r;

  02397	8d 4d b4	 lea	 ecx, DWORD PTR _r$201268[ebp]
  0239a	e8 00 00 00 00	 call	 ??0CRect@@QAE@XZ	; CRect::CRect

; 727  : 		if(mode & ETSLayoutMgr::START_X_FROM_LEFT)

  0239f	8b 45 dc	 mov	 eax, DWORD PTR _mode$201257[ebp]
  023a2	83 e0 01	 and	 eax, 1
  023a5	74 0b		 je	 SHORT $L201269

; 728  : 			r.left = rcNewArea.left + sx;

  023a7	8b 4d 08	 mov	 ecx, DWORD PTR _rcNewArea$[ebp]
  023aa	8b 11		 mov	 edx, DWORD PTR [ecx]
  023ac	03 55 e0	 add	 edx, DWORD PTR _sx$201240[ebp]
  023af	89 55 b4	 mov	 DWORD PTR _r$201268[ebp], edx
$L201269:

; 729  : 		if(mode & ETSLayoutMgr::START_X_FROM_RIGHT)

  023b2	8b 45 dc	 mov	 eax, DWORD PTR _mode$201257[ebp]
  023b5	83 e0 02	 and	 eax, 2
  023b8	74 0c		 je	 SHORT $L201270

; 730  : 			r.left = rcNewArea.right - sx;

  023ba	8b 4d 08	 mov	 ecx, DWORD PTR _rcNewArea$[ebp]
  023bd	8b 51 08	 mov	 edx, DWORD PTR [ecx+8]
  023c0	2b 55 e0	 sub	 edx, DWORD PTR _sx$201240[ebp]
  023c3	89 55 b4	 mov	 DWORD PTR _r$201268[ebp], edx
$L201270:

; 731  : 		if(mode & ETSLayoutMgr::START_X_PERCENT)

  023c6	8b 45 dc	 mov	 eax, DWORD PTR _mode$201257[ebp]
  023c9	25 00 01 00 00	 and	 eax, 256		; 00000100H
  023ce	74 41		 je	 SHORT $L201271

; 732  : 		{
; 733  : 			if(percent_start >= 0)

  023d0	83 7d b0 00	 cmp	 DWORD PTR _percent_start$201244[ebp], 0
  023d4	7c 1e		 jl	 SHORT $L201272

; 734  : 				r.left = rcNewArea.left + percent_start + percent_rangex * sx / 100 ;

  023d6	8b 4d 08	 mov	 ecx, DWORD PTR _rcNewArea$[ebp]
  023d9	8b 09		 mov	 ecx, DWORD PTR [ecx]
  023db	03 4d b0	 add	 ecx, DWORD PTR _percent_start$201244[ebp]
  023de	8b 45 d0	 mov	 eax, DWORD PTR _percent_rangex$201256[ebp]
  023e1	0f af 45 e0	 imul	 eax, DWORD PTR _sx$201240[ebp]
  023e5	99		 cdq
  023e6	be 64 00 00 00	 mov	 esi, 100		; 00000064H
  023eb	f7 fe		 idiv	 esi
  023ed	03 c8		 add	 ecx, eax
  023ef	89 4d b4	 mov	 DWORD PTR _r$201268[ebp], ecx

; 735  : 			else

  023f2	eb 1d		 jmp	 SHORT $L201271
$L201272:

; 736  : 				r.left = rcNewArea.right + percent_start + percent_rangex * sx / 100 ;

  023f4	8b 55 08	 mov	 edx, DWORD PTR _rcNewArea$[ebp]
  023f7	8b 4a 08	 mov	 ecx, DWORD PTR [edx+8]
  023fa	03 4d b0	 add	 ecx, DWORD PTR _percent_start$201244[ebp]
  023fd	8b 45 d0	 mov	 eax, DWORD PTR _percent_rangex$201256[ebp]
  02400	0f af 45 e0	 imul	 eax, DWORD PTR _sx$201240[ebp]
  02404	99		 cdq
  02405	be 64 00 00 00	 mov	 esi, 100		; 00000064H
  0240a	f7 fe		 idiv	 esi
  0240c	03 c8		 add	 ecx, eax
  0240e	89 4d b4	 mov	 DWORD PTR _r$201268[ebp], ecx
$L201271:

; 737  : 		}
; 738  : 		if(mode & ETSLayoutMgr::START_Y_FROM_TOP)

  02411	8b 55 dc	 mov	 edx, DWORD PTR _mode$201257[ebp]
  02414	83 e2 04	 and	 edx, 4
  02417	74 0c		 je	 SHORT $L201274

; 739  : 			r.top = rcNewArea.top + sy;

  02419	8b 45 08	 mov	 eax, DWORD PTR _rcNewArea$[ebp]
  0241c	8b 48 04	 mov	 ecx, DWORD PTR [eax+4]
  0241f	03 4d ec	 add	 ecx, DWORD PTR _sy$201241[ebp]
  02422	89 4d b8	 mov	 DWORD PTR _r$201268[ebp+4], ecx
$L201274:

; 740  : 		if(mode & ETSLayoutMgr::START_Y_FROM_BOTTOM)

  02425	8b 55 dc	 mov	 edx, DWORD PTR _mode$201257[ebp]
  02428	83 e2 08	 and	 edx, 8
  0242b	74 0c		 je	 SHORT $L201275

; 741  : 			r.top = rcNewArea.bottom - sy;

  0242d	8b 45 08	 mov	 eax, DWORD PTR _rcNewArea$[ebp]
  02430	8b 48 0c	 mov	 ecx, DWORD PTR [eax+12]
  02433	2b 4d ec	 sub	 ecx, DWORD PTR _sy$201241[ebp]
  02436	89 4d b8	 mov	 DWORD PTR _r$201268[ebp+4], ecx
$L201275:

; 742  : 		if(mode & ETSLayoutMgr::START_Y_PERCENT)

  02439	8b 55 dc	 mov	 edx, DWORD PTR _mode$201257[ebp]
  0243c	81 e2 00 02 00
	00		 and	 edx, 512		; 00000200H
  02442	74 42		 je	 SHORT $L201276

; 743  : 		{
; 744  : 			if(percent_start >= 0)

  02444	83 7d b0 00	 cmp	 DWORD PTR _percent_start$201244[ebp], 0
  02448	7c 1f		 jl	 SHORT $L201277

; 745  : 				r.top = rcNewArea.top + percent_start + percent_rangey * sy / 100;

  0244a	8b 45 08	 mov	 eax, DWORD PTR _rcNewArea$[ebp]
  0244d	8b 48 04	 mov	 ecx, DWORD PTR [eax+4]
  02450	03 4d b0	 add	 ecx, DWORD PTR _percent_start$201244[ebp]
  02453	8b 45 e4	 mov	 eax, DWORD PTR _percent_rangey$201255[ebp]
  02456	0f af 45 ec	 imul	 eax, DWORD PTR _sy$201241[ebp]
  0245a	99		 cdq
  0245b	be 64 00 00 00	 mov	 esi, 100		; 00000064H
  02460	f7 fe		 idiv	 esi
  02462	03 c8		 add	 ecx, eax
  02464	89 4d b8	 mov	 DWORD PTR _r$201268[ebp+4], ecx

; 746  : 			else

  02467	eb 1d		 jmp	 SHORT $L201276
$L201277:

; 747  : 				r.top = rcNewArea.bottom + percent_start + percent_rangey * sy / 100;

  02469	8b 55 08	 mov	 edx, DWORD PTR _rcNewArea$[ebp]
  0246c	8b 4a 0c	 mov	 ecx, DWORD PTR [edx+12]
  0246f	03 4d b0	 add	 ecx, DWORD PTR _percent_start$201244[ebp]
  02472	8b 45 e4	 mov	 eax, DWORD PTR _percent_rangey$201255[ebp]
  02475	0f af 45 ec	 imul	 eax, DWORD PTR _sy$201241[ebp]
  02479	99		 cdq
  0247a	be 64 00 00 00	 mov	 esi, 100		; 00000064H
  0247f	f7 fe		 idiv	 esi
  02481	03 c8		 add	 ecx, eax
  02483	89 4d b8	 mov	 DWORD PTR _r$201268[ebp+4], ecx
$L201276:

; 748  : 		}
; 749  : 		if(mode & ETSLayoutMgr::END_X_FROM_LEFT)

  02486	8b 55 dc	 mov	 edx, DWORD PTR _mode$201257[ebp]
  02489	83 e2 10	 and	 edx, 16			; 00000010H
  0248c	74 0b		 je	 SHORT $L201279

; 750  : 			r.right = rcNewArea.left + ex;

  0248e	8b 45 08	 mov	 eax, DWORD PTR _rcNewArea$[ebp]
  02491	8b 08		 mov	 ecx, DWORD PTR [eax]
  02493	03 4d cc	 add	 ecx, DWORD PTR _ex$201242[ebp]
  02496	89 4d bc	 mov	 DWORD PTR _r$201268[ebp+8], ecx
$L201279:

; 751  : 		if(mode & ETSLayoutMgr::END_X_FROM_RIGHT)

  02499	8b 55 dc	 mov	 edx, DWORD PTR _mode$201257[ebp]
  0249c	83 e2 20	 and	 edx, 32			; 00000020H
  0249f	74 0c		 je	 SHORT $L201280

; 752  : 			r.right = rcNewArea.right - ex;

  024a1	8b 45 08	 mov	 eax, DWORD PTR _rcNewArea$[ebp]
  024a4	8b 48 08	 mov	 ecx, DWORD PTR [eax+8]
  024a7	2b 4d cc	 sub	 ecx, DWORD PTR _ex$201242[ebp]
  024aa	89 4d bc	 mov	 DWORD PTR _r$201268[ebp+8], ecx
$L201280:

; 753  : 		if(mode & ETSLayoutMgr::END_X_PERCENT)

  024ad	8b 55 dc	 mov	 edx, DWORD PTR _mode$201257[ebp]
  024b0	81 e2 00 04 00
	00		 and	 edx, 1024		; 00000400H
  024b6	74 41		 je	 SHORT $L201281

; 754  : 		{
; 755  : 			if(percent_start >= 0)

  024b8	83 7d b0 00	 cmp	 DWORD PTR _percent_start$201244[ebp], 0
  024bc	7c 1e		 jl	 SHORT $L201282

; 756  : 				r.left = rcNewArea.left + percent_start + percent_rangex * ex / 100 ;

  024be	8b 45 08	 mov	 eax, DWORD PTR _rcNewArea$[ebp]
  024c1	8b 08		 mov	 ecx, DWORD PTR [eax]
  024c3	03 4d b0	 add	 ecx, DWORD PTR _percent_start$201244[ebp]
  024c6	8b 45 d0	 mov	 eax, DWORD PTR _percent_rangex$201256[ebp]
  024c9	0f af 45 cc	 imul	 eax, DWORD PTR _ex$201242[ebp]
  024cd	99		 cdq
  024ce	be 64 00 00 00	 mov	 esi, 100		; 00000064H
  024d3	f7 fe		 idiv	 esi
  024d5	03 c8		 add	 ecx, eax
  024d7	89 4d b4	 mov	 DWORD PTR _r$201268[ebp], ecx

; 757  : 			else

  024da	eb 1d		 jmp	 SHORT $L201281
$L201282:

; 758  : 				r.left = rcNewArea.right + percent_start + percent_rangex * ex / 100 ;

  024dc	8b 55 08	 mov	 edx, DWORD PTR _rcNewArea$[ebp]
  024df	8b 4a 08	 mov	 ecx, DWORD PTR [edx+8]
  024e2	03 4d b0	 add	 ecx, DWORD PTR _percent_start$201244[ebp]
  024e5	8b 45 d0	 mov	 eax, DWORD PTR _percent_rangex$201256[ebp]
  024e8	0f af 45 cc	 imul	 eax, DWORD PTR _ex$201242[ebp]
  024ec	99		 cdq
  024ed	be 64 00 00 00	 mov	 esi, 100		; 00000064H
  024f2	f7 fe		 idiv	 esi
  024f4	03 c8		 add	 ecx, eax
  024f6	89 4d b4	 mov	 DWORD PTR _r$201268[ebp], ecx
$L201281:

; 759  : 		}
; 760  : 		if(mode & ETSLayoutMgr::END_Y_FROM_TOP)

  024f9	8b 55 dc	 mov	 edx, DWORD PTR _mode$201257[ebp]
  024fc	83 e2 40	 and	 edx, 64			; 00000040H
  024ff	74 0c		 je	 SHORT $L201284

; 761  : 			r.bottom = rcNewArea.top + ey;

  02501	8b 45 08	 mov	 eax, DWORD PTR _rcNewArea$[ebp]
  02504	8b 48 04	 mov	 ecx, DWORD PTR [eax+4]
  02507	03 4d c4	 add	 ecx, DWORD PTR _ey$201243[ebp]
  0250a	89 4d c0	 mov	 DWORD PTR _r$201268[ebp+12], ecx
$L201284:

; 762  : 		if(mode & ETSLayoutMgr::END_Y_FROM_BOTTOM)

  0250d	8b 55 dc	 mov	 edx, DWORD PTR _mode$201257[ebp]
  02510	81 e2 80 00 00
	00		 and	 edx, 128		; 00000080H
  02516	74 0c		 je	 SHORT $L201285

; 763  : 			r.bottom = rcNewArea.bottom - ey;

  02518	8b 45 08	 mov	 eax, DWORD PTR _rcNewArea$[ebp]
  0251b	8b 48 0c	 mov	 ecx, DWORD PTR [eax+12]
  0251e	2b 4d c4	 sub	 ecx, DWORD PTR _ey$201243[ebp]
  02521	89 4d c0	 mov	 DWORD PTR _r$201268[ebp+12], ecx
$L201285:

; 764  : 		if(mode & ETSLayoutMgr::END_Y_PERCENT)

  02524	8b 55 dc	 mov	 edx, DWORD PTR _mode$201257[ebp]
  02527	81 e2 00 08 00
	00		 and	 edx, 2048		; 00000800H
  0252d	74 4c		 je	 SHORT $L201286

; 765  : 		{
; 766  : 			if(percent_start >= 0)

  0252f	83 7d b0 00	 cmp	 DWORD PTR _percent_start$201244[ebp], 0
  02533	7c 24		 jl	 SHORT $L201287

; 767  : 				r.top = rcNewArea.top + percent_start + rcNewArea.Height() * ey / 100;

  02535	8b 45 08	 mov	 eax, DWORD PTR _rcNewArea$[ebp]
  02538	8b 70 04	 mov	 esi, DWORD PTR [eax+4]
  0253b	03 75 b0	 add	 esi, DWORD PTR _percent_start$201244[ebp]
  0253e	8b 4d 08	 mov	 ecx, DWORD PTR _rcNewArea$[ebp]
  02541	e8 00 00 00 00	 call	 ?Height@CRect@@QBEHXZ	; CRect::Height
  02546	0f af 45 c4	 imul	 eax, DWORD PTR _ey$201243[ebp]
  0254a	99		 cdq
  0254b	b9 64 00 00 00	 mov	 ecx, 100		; 00000064H
  02550	f7 f9		 idiv	 ecx
  02552	03 f0		 add	 esi, eax
  02554	89 75 b8	 mov	 DWORD PTR _r$201268[ebp+4], esi

; 768  : 			else

  02557	eb 22		 jmp	 SHORT $L201286
$L201287:

; 769  : 				r.top = rcNewArea.bottom + percent_start + rcNewArea.Height() * ey / 100;

  02559	8b 55 08	 mov	 edx, DWORD PTR _rcNewArea$[ebp]
  0255c	8b 72 0c	 mov	 esi, DWORD PTR [edx+12]
  0255f	03 75 b0	 add	 esi, DWORD PTR _percent_start$201244[ebp]
  02562	8b 4d 08	 mov	 ecx, DWORD PTR _rcNewArea$[ebp]
  02565	e8 00 00 00 00	 call	 ?Height@CRect@@QBEHXZ	; CRect::Height
  0256a	0f af 45 c4	 imul	 eax, DWORD PTR _ey$201243[ebp]
  0256e	99		 cdq
  0256f	b9 64 00 00 00	 mov	 ecx, 100		; 00000064H
  02574	f7 f9		 idiv	 ecx
  02576	03 f0		 add	 esi, eax
  02578	89 75 b8	 mov	 DWORD PTR _r$201268[ebp+4], esi
$L201286:

; 770  : 		}
; 771  : 		if(mode & ETSLayoutMgr::X_DELTA)

  0257b	8b 55 dc	 mov	 edx, DWORD PTR _mode$201257[ebp]
  0257e	81 e2 00 20 00
	00		 and	 edx, 8192		; 00002000H
  02584	0f 84 9e 00 00
	00		 je	 $L201289

; 772  : 		{
; 773  : 			if(ex == 0){

  0258a	83 7d cc 00	 cmp	 DWORD PTR _ex$201242[ebp], 0
  0258e	0f 85 8b 00 00
	00		 jne	 $L201290

; 774  : 				CDibBitmap *pBmp = ::AfxGetUIManager()->UIGetSkinMgr()->GetDibBmp(base.GetPaneBase()->GetName(), false);

  02594	8d 45 94	 lea	 eax, DWORD PTR $T203447[ebp]
  02597	50		 push	 eax
  02598	8d 4d d4	 lea	 ecx, DWORD PTR _base$201239[ebp]
  0259b	e8 00 00 00 00	 call	 ?GetPaneBase@CPaneBase@ETSLayoutMgr@@QAEPAVPaneBase@2@XZ ; ETSLayoutMgr::CPaneBase::GetPaneBase
  025a0	8b c8		 mov	 ecx, eax
  025a2	e8 00 00 00 00	 call	 ?GetName@PaneBase@ETSLayoutMgr@@QAE?AV?$CStringT@DV?$StrTraitMFC_DLL@DV?$ChTraitsCRT@D@ATL@@@@@ATL@@XZ ; ETSLayoutMgr::PaneBase::GetName
  025a7	89 85 68 ff ff
	ff		 mov	 DWORD PTR tv154[ebp], eax
  025ad	8b 8d 68 ff ff
	ff		 mov	 ecx, DWORD PTR tv154[ebp]
  025b3	89 8d 64 ff ff
	ff		 mov	 DWORD PTR tv509[ebp], ecx
  025b9	c6 45 fc 02	 mov	 BYTE PTR __$EHRec$[ebp+8], 2
  025bd	e8 00 00 00 00	 call	 ?AfxGetUIManager@@YAPAVIUIManager@@XZ ; AfxGetUIManager
  025c2	89 85 60 ff ff
	ff		 mov	 DWORD PTR tv387[ebp], eax
  025c8	8b 95 60 ff ff
	ff		 mov	 edx, DWORD PTR tv387[ebp]
  025ce	8b 02		 mov	 eax, DWORD PTR [edx]
  025d0	8b 8d 60 ff ff
	ff		 mov	 ecx, DWORD PTR tv387[ebp]
  025d6	ff 50 28	 call	 DWORD PTR [eax+40]
  025d9	89 85 5c ff ff
	ff		 mov	 DWORD PTR tv392[ebp], eax
  025df	6a 00		 push	 0
  025e1	8b 8d 64 ff ff
	ff		 mov	 ecx, DWORD PTR tv509[ebp]
  025e7	ff 15 00 00 00
	00		 call	 DWORD PTR __imp_??B?$CSimpleStringT@D$00@ATL@@QBEPBDXZ
  025ed	50		 push	 eax
  025ee	8b 8d 5c ff ff
	ff		 mov	 ecx, DWORD PTR tv392[ebp]
  025f4	8b 11		 mov	 edx, DWORD PTR [ecx]
  025f6	8b 8d 5c ff ff
	ff		 mov	 ecx, DWORD PTR tv392[ebp]
  025fc	ff 12		 call	 DWORD PTR [edx]
  025fe	89 45 ac	 mov	 DWORD PTR _pBmp$201291[ebp], eax
  02601	c6 45 fc 01	 mov	 BYTE PTR __$EHRec$[ebp+8], 1
  02605	8d 4d 94	 lea	 ecx, DWORD PTR $T203447[ebp]
  02608	ff 15 00 00 00
	00		 call	 DWORD PTR __imp_??1?$CStringT@DV?$StrTraitMFC_DLL@DV?$ChTraitsCRT@D@ATL@@@@@ATL@@QAE@XZ

; 775  : 				if(pBmp != NULL)

  0260e	83 7d ac 00	 cmp	 DWORD PTR _pBmp$201291[ebp], 0
  02612	74 0b		 je	 SHORT $L201290

; 776  : 					ex = pBmp->GetWidth();

  02614	8b 4d ac	 mov	 ecx, DWORD PTR _pBmp$201291[ebp]
  02617	e8 00 00 00 00	 call	 ?GetWidth@CDibBitmap@@QAEHXZ ; CDibBitmap::GetWidth
  0261c	89 45 cc	 mov	 DWORD PTR _ex$201242[ebp], eax
$L201290:

; 777  : 			}
; 778  : 			r.right = r.left + ex;

  0261f	8b 45 b4	 mov	 eax, DWORD PTR _r$201268[ebp]
  02622	03 45 cc	 add	 eax, DWORD PTR _ex$201242[ebp]
  02625	89 45 bc	 mov	 DWORD PTR _r$201268[ebp+8], eax
$L201289:

; 779  : 		}
; 780  : 		if(mode & ETSLayoutMgr::Y_DELTA)

  02628	8b 4d dc	 mov	 ecx, DWORD PTR _mode$201257[ebp]
  0262b	81 e1 00 40 00
	00		 and	 ecx, 16384		; 00004000H
  02631	0f 84 9e 00 00
	00		 je	 $L201294

; 781  : 		{
; 782  : 			if(ey== 0){

  02637	83 7d c4 00	 cmp	 DWORD PTR _ey$201243[ebp], 0
  0263b	0f 85 8b 00 00
	00		 jne	 $L201295

; 783  : 				CDibBitmap *pBmp = ::AfxGetUIManager()->UIGetSkinMgr()->GetDibBmp(base.GetPaneBase()->GetName(), false);

  02641	8d 55 90	 lea	 edx, DWORD PTR $T203448[ebp]
  02644	52		 push	 edx
  02645	8d 4d d4	 lea	 ecx, DWORD PTR _base$201239[ebp]
  02648	e8 00 00 00 00	 call	 ?GetPaneBase@CPaneBase@ETSLayoutMgr@@QAEPAVPaneBase@2@XZ ; ETSLayoutMgr::CPaneBase::GetPaneBase
  0264d	8b c8		 mov	 ecx, eax
  0264f	e8 00 00 00 00	 call	 ?GetName@PaneBase@ETSLayoutMgr@@QAE?AV?$CStringT@DV?$StrTraitMFC_DLL@DV?$ChTraitsCRT@D@ATL@@@@@ATL@@XZ ; ETSLayoutMgr::PaneBase::GetName
  02654	89 85 58 ff ff
	ff		 mov	 DWORD PTR tv72[ebp], eax
  0265a	8b 85 58 ff ff
	ff		 mov	 eax, DWORD PTR tv72[ebp]
  02660	89 85 54 ff ff
	ff		 mov	 DWORD PTR tv511[ebp], eax
  02666	c6 45 fc 03	 mov	 BYTE PTR __$EHRec$[ebp+8], 3
  0266a	e8 00 00 00 00	 call	 ?AfxGetUIManager@@YAPAVIUIManager@@XZ ; AfxGetUIManager
  0266f	89 85 50 ff ff
	ff		 mov	 DWORD PTR tv416[ebp], eax
  02675	8b 8d 50 ff ff
	ff		 mov	 ecx, DWORD PTR tv416[ebp]
  0267b	8b 11		 mov	 edx, DWORD PTR [ecx]
  0267d	8b 8d 50 ff ff
	ff		 mov	 ecx, DWORD PTR tv416[ebp]
  02683	ff 52 28	 call	 DWORD PTR [edx+40]
  02686	89 85 4c ff ff
	ff		 mov	 DWORD PTR tv421[ebp], eax
  0268c	6a 00		 push	 0
  0268e	8b 8d 54 ff ff
	ff		 mov	 ecx, DWORD PTR tv511[ebp]
  02694	ff 15 00 00 00
	00		 call	 DWORD PTR __imp_??B?$CSimpleStringT@D$00@ATL@@QBEPBDXZ
  0269a	50		 push	 eax
  0269b	8b 85 4c ff ff
	ff		 mov	 eax, DWORD PTR tv421[ebp]
  026a1	8b 10		 mov	 edx, DWORD PTR [eax]
  026a3	8b 8d 4c ff ff
	ff		 mov	 ecx, DWORD PTR tv421[ebp]
  026a9	ff 12		 call	 DWORD PTR [edx]
  026ab	89 45 a8	 mov	 DWORD PTR _pBmp$201296[ebp], eax
  026ae	c6 45 fc 01	 mov	 BYTE PTR __$EHRec$[ebp+8], 1
  026b2	8d 4d 90	 lea	 ecx, DWORD PTR $T203448[ebp]
  026b5	ff 15 00 00 00
	00		 call	 DWORD PTR __imp_??1?$CStringT@DV?$StrTraitMFC_DLL@DV?$ChTraitsCRT@D@ATL@@@@@ATL@@QAE@XZ

; 784  : 				if(pBmp != NULL)

  026bb	83 7d a8 00	 cmp	 DWORD PTR _pBmp$201296[ebp], 0
  026bf	74 0b		 je	 SHORT $L201295

; 785  : 					ey = pBmp->GetHeight();

  026c1	8b 4d a8	 mov	 ecx, DWORD PTR _pBmp$201296[ebp]
  026c4	e8 00 00 00 00	 call	 ?GetHeight@CDibBitmap@@QAEHXZ ; CDibBitmap::GetHeight
  026c9	89 45 c4	 mov	 DWORD PTR _ey$201243[ebp], eax
$L201295:

; 786  : 			}
; 787  : 			r.bottom = r.top + ey;

  026cc	8b 45 b8	 mov	 eax, DWORD PTR _r$201268[ebp+4]
  026cf	03 45 c4	 add	 eax, DWORD PTR _ey$201243[ebp]
  026d2	89 45 c0	 mov	 DWORD PTR _r$201268[ebp+12], eax
$L201294:

; 788  : 
; 789  : 		}
; 790  : 		if(mode & ETSLayoutMgr::DRAW_CENTER_STRECH)

  026d5	8b 4d dc	 mov	 ecx, DWORD PTR _mode$201257[ebp]
  026d8	81 e1 00 00 04
	00		 and	 ecx, 262144		; 00040000H
  026de	74 1a		 je	 SHORT $L201299

; 791  : 		{
; 792  : 			r = rcNewArea;

  026e0	8b 55 08	 mov	 edx, DWORD PTR _rcNewArea$[ebp]
  026e3	8b 02		 mov	 eax, DWORD PTR [edx]
  026e5	89 45 b4	 mov	 DWORD PTR _r$201268[ebp], eax
  026e8	8b 4a 04	 mov	 ecx, DWORD PTR [edx+4]
  026eb	89 4d b8	 mov	 DWORD PTR _r$201268[ebp+4], ecx
  026ee	8b 42 08	 mov	 eax, DWORD PTR [edx+8]
  026f1	89 45 bc	 mov	 DWORD PTR _r$201268[ebp+8], eax
  026f4	8b 4a 0c	 mov	 ecx, DWORD PTR [edx+12]
  026f7	89 4d c0	 mov	 DWORD PTR _r$201268[ebp+12], ecx
$L201299:

; 793  : 		}
; 794  : 
; 795  : 		CString name = base->GetName();

  026fa	8d 55 c8	 lea	 edx, DWORD PTR _name$201300[ebp]
  026fd	52		 push	 edx
  026fe	8d 4d d4	 lea	 ecx, DWORD PTR _base$201239[ebp]
  02701	e8 00 00 00 00	 call	 ??CCPaneBase@ETSLayoutMgr@@QBEPAVPaneBase@1@XZ ; ETSLayoutMgr::CPaneBase::operator->
  02706	8b c8		 mov	 ecx, eax
  02708	e8 00 00 00 00	 call	 ?GetName@PaneBase@ETSLayoutMgr@@QAE?AV?$CStringT@DV?$StrTraitMFC_DLL@DV?$ChTraitsCRT@D@ATL@@@@@ATL@@XZ ; ETSLayoutMgr::PaneBase::GetName
  0270d	c6 45 fc 04	 mov	 BYTE PTR __$EHRec$[ebp+8], 4

; 796  : 		base->resizeTo(r, bRedraw);

  02711	8d 4d d4	 lea	 ecx, DWORD PTR _base$201239[ebp]
  02714	e8 00 00 00 00	 call	 ??CCPaneBase@ETSLayoutMgr@@QBEPAVPaneBase@1@XZ ; ETSLayoutMgr::CPaneBase::operator->
  02719	89 85 48 ff ff
	ff		 mov	 DWORD PTR tv484[ebp], eax
  0271f	6a 00		 push	 0
  02721	8a 45 0c	 mov	 al, BYTE PTR _bRedraw$[ebp]
  02724	50		 push	 eax
  02725	8d 4d b4	 lea	 ecx, DWORD PTR _r$201268[ebp]
  02728	51		 push	 ecx
  02729	8b 95 48 ff ff
	ff		 mov	 edx, DWORD PTR tv484[ebp]
  0272f	8b 02		 mov	 eax, DWORD PTR [edx]
  02731	8b 8d 48 ff ff
	ff		 mov	 ecx, DWORD PTR tv484[ebp]
  02737	ff 50 18	 call	 DWORD PTR [eax+24]

; 797  : 	}

  0273a	c6 45 fc 01	 mov	 BYTE PTR __$EHRec$[ebp+8], 1
  0273e	8d 4d c8	 lea	 ecx, DWORD PTR _name$201300[ebp]
  02741	ff 15 00 00 00
	00		 call	 DWORD PTR __imp_??1?$CStringT@DV?$StrTraitMFC_DLL@DV?$ChTraitsCRT@D@ATL@@@@@ATL@@QAE@XZ
  02747	c6 45 fc 00	 mov	 BYTE PTR __$EHRec$[ebp+8], 0
  0274b	8d 4d e8	 lea	 ecx, DWORD PTR _value$201246[ebp]
  0274e	ff 15 00 00 00
	00		 call	 DWORD PTR __imp_??1?$CStringT@DV?$StrTraitMFC_DLL@DV?$ChTraitsCRT@D@ATL@@@@@ATL@@QAE@XZ
  02754	c7 45 fc ff ff
	ff ff		 mov	 DWORD PTR __$EHRec$[ebp+8], -1
  0275b	8d 4d d4	 lea	 ecx, DWORD PTR _base$201239[ebp]
  0275e	e8 00 00 00 00	 call	 ??1CPaneBase@ETSLayoutMgr@@QAE@XZ ; ETSLayoutMgr::CPaneBase::~CPaneBase
  02763	e9 12 f9 ff ff	 jmp	 $L201237
$L201238:

; 798  : 	return true;

  02768	b0 01		 mov	 al, 1

; 799  : }

  0276a	8b 4d f4	 mov	 ecx, DWORD PTR __$EHRec$[ebp]
  0276d	64 89 0d 00 00
	00 00		 mov	 DWORD PTR fs:__except_list, ecx
  02774	5e		 pop	 esi
  02775	8b e5		 mov	 esp, ebp
  02777	5d		 pop	 ebp
  02778	c2 0c 00	 ret	 12			; 0000000cH
_TEXT	ENDS
text$x	SEGMENT
$L203449:
  0025c	8d 4d d4	 lea	 ecx, DWORD PTR _base$201239[ebp]
  0025f	e9 00 00 00 00	 jmp	 ??1CPaneBase@ETSLayoutMgr@@QAE@XZ ; ETSLayoutMgr::CPaneBase::~CPaneBase
$L203450:
  00264	8d 4d e8	 lea	 ecx, DWORD PTR _value$201246[ebp]
  00267	ff 25 00 00 00
	00		 jmp	 DWORD PTR __imp_??1?$CStringT@DV?$StrTraitMFC_DLL@DV?$ChTraitsCRT@D@ATL@@@@@ATL@@QAE@XZ
$L203455:
  0026d	8d 4d 94	 lea	 ecx, DWORD PTR $T203447[ebp]
  00270	ff 25 00 00 00
	00		 jmp	 DWORD PTR __imp_??1?$CStringT@DV?$StrTraitMFC_DLL@DV?$ChTraitsCRT@D@ATL@@@@@ATL@@QAE@XZ
$L203456:
  00276	8d 4d 90	 lea	 ecx, DWORD PTR $T203448[ebp]
  00279	ff 25 00 00 00
	00		 jmp	 DWORD PTR __imp_??1?$CStringT@DV?$StrTraitMFC_DLL@DV?$ChTraitsCRT@D@ATL@@@@@ATL@@QAE@XZ
$L203457:
  0027f	8d 4d c8	 lea	 ecx, DWORD PTR _name$201300[ebp]
  00282	ff 25 00 00 00
	00		 jmp	 DWORD PTR __imp_??1?$CStringT@DV?$StrTraitMFC_DLL@DV?$ChTraitsCRT@D@ATL@@@@@ATL@@QAE@XZ
__ehhandler$?resizeTo@PanePosition@ETSLayoutMgr@@UAE_NAAVCRect@@_N1@Z:
  00288	b8 00 00 00 00	 mov	 eax, OFFSET FLAT:$T203459
  0028d	e9 00 00 00 00	 jmp	 ___CxxFrameHandler
text$x	ENDS
?resizeTo@PanePosition@ETSLayoutMgr@@UAE_NAAVCRect@@_N1@Z ENDP ; ETSLayoutMgr::PanePosition::resizeTo
PUBLIC	?AddParameter@ETSLayoutMgr@@QAEXV?$CStringT@DV?$StrTraitMFC_DLL@DV?$ChTraitsCRT@D@ATL@@@@@ATL@@0@Z ; ETSLayoutMgr::AddParameter
PUBLIC	?SetAt@CMapStringToString@@QAEXPBD0@Z		; CMapStringToString::SetAt
xdata$x	SEGMENT
$T203468 DD	0ffffffffH
	DD	FLAT:$L203463
	DD	00H
	DD	FLAT:$L203464
$T203466 DD	019930520H
	DD	02H
	DD	FLAT:$T203468
	DD	2 DUP(00H)
	DD	2 DUP(00H)
; Function compile flags: /Odt
xdata$x	ENDS
_TEXT	SEGMENT
_this$ = -16						; size = 4
__$EHRec$ = -12						; size = 12
_name$ = 8						; size = 4
_value$ = 12						; size = 4
?AddParameter@ETSLayoutMgr@@QAEXV?$CStringT@DV?$StrTraitMFC_DLL@DV?$ChTraitsCRT@D@ATL@@@@@ATL@@0@Z PROC NEAR ; ETSLayoutMgr::AddParameter
; _this$ = ecx

; 803  : {

  02780	55		 push	 ebp
  02781	8b ec		 mov	 ebp, esp
  02783	6a ff		 push	 -1
  02785	68 00 00 00 00	 push	 __ehhandler$?AddParameter@ETSLayoutMgr@@QAEXV?$CStringT@DV?$StrTraitMFC_DLL@DV?$ChTraitsCRT@D@ATL@@@@@ATL@@0@Z
  0278a	64 a1 00 00 00
	00		 mov	 eax, DWORD PTR fs:__except_list
  02790	50		 push	 eax
  02791	64 89 25 00 00
	00 00		 mov	 DWORD PTR fs:__except_list, esp
  02798	51		 push	 ecx
  02799	89 4d f0	 mov	 DWORD PTR _this$[ebp], ecx
  0279c	c7 45 fc 01 00
	00 00		 mov	 DWORD PTR __$EHRec$[ebp+8], 1

; 804  : 	m_mapParams.SetAt(name, value);

  027a3	8d 4d 0c	 lea	 ecx, DWORD PTR _value$[ebp]
  027a6	ff 15 00 00 00
	00		 call	 DWORD PTR __imp_??B?$CSimpleStringT@D$00@ATL@@QBEPBDXZ
  027ac	50		 push	 eax
  027ad	8d 4d 08	 lea	 ecx, DWORD PTR _name$[ebp]
  027b0	ff 15 00 00 00
	00		 call	 DWORD PTR __imp_??B?$CSimpleStringT@D$00@ATL@@QBEPBDXZ
  027b6	50		 push	 eax
  027b7	8b 4d f0	 mov	 ecx, DWORD PTR _this$[ebp]
  027ba	83 c1 0c	 add	 ecx, 12			; 0000000cH
  027bd	e8 00 00 00 00	 call	 ?SetAt@CMapStringToString@@QAEXPBD0@Z ; CMapStringToString::SetAt

; 805  : }

  027c2	c6 45 fc 00	 mov	 BYTE PTR __$EHRec$[ebp+8], 0
  027c6	8d 4d 08	 lea	 ecx, DWORD PTR _name$[ebp]
  027c9	ff 15 00 00 00
	00		 call	 DWORD PTR __imp_??1?$CStringT@DV?$StrTraitMFC_DLL@DV?$ChTraitsCRT@D@ATL@@@@@ATL@@QAE@XZ
  027cf	c7 45 fc ff ff
	ff ff		 mov	 DWORD PTR __$EHRec$[ebp+8], -1
  027d6	8d 4d 0c	 lea	 ecx, DWORD PTR _value$[ebp]
  027d9	ff 15 00 00 00
	00		 call	 DWORD PTR __imp_??1?$CStringT@DV?$StrTraitMFC_DLL@DV?$ChTraitsCRT@D@ATL@@@@@ATL@@QAE@XZ
  027df	8b 4d f4	 mov	 ecx, DWORD PTR __$EHRec$[ebp]
  027e2	64 89 0d 00 00
	00 00		 mov	 DWORD PTR fs:__except_list, ecx
  027e9	8b e5		 mov	 esp, ebp
  027eb	5d		 pop	 ebp
  027ec	c2 08 00	 ret	 8
_TEXT	ENDS
text$x	SEGMENT
$L203463:
  00292	8d 4d 0c	 lea	 ecx, DWORD PTR _value$[ebp]
  00295	ff 25 00 00 00
	00		 jmp	 DWORD PTR __imp_??1?$CStringT@DV?$StrTraitMFC_DLL@DV?$ChTraitsCRT@D@ATL@@@@@ATL@@QAE@XZ
$L203464:
  0029b	8d 4d 08	 lea	 ecx, DWORD PTR _name$[ebp]
  0029e	ff 25 00 00 00
	00		 jmp	 DWORD PTR __imp_??1?$CStringT@DV?$StrTraitMFC_DLL@DV?$ChTraitsCRT@D@ATL@@@@@ATL@@QAE@XZ
__ehhandler$?AddParameter@ETSLayoutMgr@@QAEXV?$CStringT@DV?$StrTraitMFC_DLL@DV?$ChTraitsCRT@D@ATL@@@@@ATL@@0@Z:
  002a4	b8 00 00 00 00	 mov	 eax, OFFSET FLAT:$T203466
  002a9	e9 00 00 00 00	 jmp	 ___CxxFrameHandler
text$x	ENDS
?AddParameter@ETSLayoutMgr@@QAEXV?$CStringT@DV?$StrTraitMFC_DLL@DV?$ChTraitsCRT@D@ATL@@@@@ATL@@0@Z ENDP ; ETSLayoutMgr::AddParameter
EXTRN	?Lookup@CMapStringToString@@QBEHPBDAAV?$CStringT@DV?$StrTraitMFC_DLL@DV?$ChTraitsCRT@D@ATL@@@@@ATL@@@Z:NEAR ; CMapStringToString::Lookup
xdata$x	SEGMENT
$T203475 DD	0ffffffffH
	DD	FLAT:$L203471
$T203473 DD	019930520H
	DD	01H
	DD	FLAT:$T203475
	DD	2 DUP(00H)
	DD	2 DUP(00H)
; Function compile flags: /Odt
xdata$x	ENDS
_TEXT	SEGMENT
_this$ = -20						; size = 4
$T203470 = -16						; size = 4
__$EHRec$ = -12						; size = 12
_name$ = 8						; size = 4
_value$ = 12						; size = 4
?GetValue@ETSLayoutMgr@@QAEHV?$CStringT@DV?$StrTraitMFC_DLL@DV?$ChTraitsCRT@D@ATL@@@@@ATL@@AAV23@@Z PROC NEAR ; ETSLayoutMgr::GetValue
; _this$ = ecx

; 808  : {

  027f0	55		 push	 ebp
  027f1	8b ec		 mov	 ebp, esp
  027f3	6a ff		 push	 -1
  027f5	68 00 00 00 00	 push	 __ehhandler$?GetValue@ETSLayoutMgr@@QAEHV?$CStringT@DV?$StrTraitMFC_DLL@DV?$ChTraitsCRT@D@ATL@@@@@ATL@@AAV23@@Z
  027fa	64 a1 00 00 00
	00		 mov	 eax, DWORD PTR fs:__except_list
  02800	50		 push	 eax
  02801	64 89 25 00 00
	00 00		 mov	 DWORD PTR fs:__except_list, esp
  02808	83 ec 08	 sub	 esp, 8
  0280b	89 4d ec	 mov	 DWORD PTR _this$[ebp], ecx
  0280e	c7 45 fc 00 00
	00 00		 mov	 DWORD PTR __$EHRec$[ebp+8], 0

; 809  : 	return m_mapParams.Lookup(name, value);

  02815	8b 45 0c	 mov	 eax, DWORD PTR _value$[ebp]
  02818	50		 push	 eax
  02819	8d 4d 08	 lea	 ecx, DWORD PTR _name$[ebp]
  0281c	ff 15 00 00 00
	00		 call	 DWORD PTR __imp_??B?$CSimpleStringT@D$00@ATL@@QBEPBDXZ
  02822	50		 push	 eax
  02823	8b 4d ec	 mov	 ecx, DWORD PTR _this$[ebp]
  02826	83 c1 0c	 add	 ecx, 12			; 0000000cH
  02829	e8 00 00 00 00	 call	 ?Lookup@CMapStringToString@@QBEHPBDAAV?$CStringT@DV?$StrTraitMFC_DLL@DV?$ChTraitsCRT@D@ATL@@@@@ATL@@@Z ; CMapStringToString::Lookup
  0282e	89 45 f0	 mov	 DWORD PTR $T203470[ebp], eax
  02831	c7 45 fc ff ff
	ff ff		 mov	 DWORD PTR __$EHRec$[ebp+8], -1
  02838	8d 4d 08	 lea	 ecx, DWORD PTR _name$[ebp]
  0283b	ff 15 00 00 00
	00		 call	 DWORD PTR __imp_??1?$CStringT@DV?$StrTraitMFC_DLL@DV?$ChTraitsCRT@D@ATL@@@@@ATL@@QAE@XZ
  02841	8b 45 f0	 mov	 eax, DWORD PTR $T203470[ebp]

; 810  : }

  02844	8b 4d f4	 mov	 ecx, DWORD PTR __$EHRec$[ebp]
  02847	64 89 0d 00 00
	00 00		 mov	 DWORD PTR fs:__except_list, ecx
  0284e	8b e5		 mov	 esp, ebp
  02850	5d		 pop	 ebp
  02851	c2 08 00	 ret	 8
_TEXT	ENDS
text$x	SEGMENT
$L203471:
  002ae	8d 4d 08	 lea	 ecx, DWORD PTR _name$[ebp]
  002b1	ff 25 00 00 00
	00		 jmp	 DWORD PTR __imp_??1?$CStringT@DV?$StrTraitMFC_DLL@DV?$ChTraitsCRT@D@ATL@@@@@ATL@@QAE@XZ
__ehhandler$?GetValue@ETSLayoutMgr@@QAEHV?$CStringT@DV?$StrTraitMFC_DLL@DV?$ChTraitsCRT@D@ATL@@@@@ATL@@AAV23@@Z:
  002b7	b8 00 00 00 00	 mov	 eax, OFFSET FLAT:$T203473
  002bc	e9 00 00 00 00	 jmp	 ___CxxFrameHandler
text$x	ENDS
?GetValue@ETSLayoutMgr@@QAEHV?$CStringT@DV?$StrTraitMFC_DLL@DV?$ChTraitsCRT@D@ATL@@@@@ATL@@AAV23@@Z ENDP ; ETSLayoutMgr::GetValue
PUBLIC	?GetWindowRect@CWnd@@QBEXPAUtagRECT@@@Z		; CWnd::GetWindowRect
PUBLIC	??0CRect@@QAE@PBUtagRECT@@@Z			; CRect::CRect
PUBLIC	??0CMemDC@@QAE@PAVCDC@@ABVCRect@@@Z		; CMemDC::CMemDC
PUBLIC	??1CMemDC@@UAE@XZ				; CMemDC::~CMemDC
PUBLIC	?UpdateBkLayout@ETSLayoutMgr@@UAEXPAVCDC@@H@Z	; ETSLayoutMgr::UpdateBkLayout
EXTRN	?ScreenToClient@CWnd@@QBEXPAUtagRECT@@@Z:NEAR	; CWnd::ScreenToClient
EXTRN	?FillSolidRect@CDC@@QAEXPBUtagRECT@@K@Z:NEAR	; CDC::FillSolidRect
xdata$x	SEGMENT
$T203482 DD	0ffffffffH
	DD	FLAT:$L203478
$T203480 DD	019930520H
	DD	01H
	DD	FLAT:$T203482
	DD	2 DUP(00H)
	DD	2 DUP(00H)
; Function compile flags: /Odt
xdata$x	ENDS
_TEXT	SEGMENT
_this$ = -92						; size = 4
$T203477 = -88						; size = 16
_memdc$201320 = -72					; size = 44
_rc$ = -28						; size = 16
__$EHRec$ = -12						; size = 12
_pDC$ = 8						; size = 4
_bUseMemDC$ = 12					; size = 4
?UpdateBkLayout@ETSLayoutMgr@@UAEXPAVCDC@@H@Z PROC NEAR	; ETSLayoutMgr::UpdateBkLayout
; _this$ = ecx

; 813  : {

  02860	55		 push	 ebp
  02861	8b ec		 mov	 ebp, esp
  02863	6a ff		 push	 -1
  02865	68 00 00 00 00	 push	 __ehhandler$?UpdateBkLayout@ETSLayoutMgr@@UAEXPAVCDC@@H@Z
  0286a	64 a1 00 00 00
	00		 mov	 eax, DWORD PTR fs:__except_list
  02870	50		 push	 eax
  02871	64 89 25 00 00
	00 00		 mov	 DWORD PTR fs:__except_list, esp
  02878	83 ec 50	 sub	 esp, 80			; 00000050H
  0287b	89 4d a4	 mov	 DWORD PTR _this$[ebp], ecx

; 814  : 	CRect rc;

  0287e	8d 4d e4	 lea	 ecx, DWORD PTR _rc$[ebp]
  02881	e8 00 00 00 00	 call	 ??0CRect@@QAE@XZ	; CRect::CRect

; 815  : 	
; 816  : 	m_pDC = pDC;

  02886	8b 45 a4	 mov	 eax, DWORD PTR _this$[ebp]
  02889	8b 4d 08	 mov	 ecx, DWORD PTR _pDC$[ebp]
  0288c	89 48 08	 mov	 DWORD PTR [eax+8], ecx

; 817  : 	m_pWnd->GetWindowRect(&rc);

  0288f	8d 55 e4	 lea	 edx, DWORD PTR _rc$[ebp]
  02892	52		 push	 edx
  02893	8b 45 a4	 mov	 eax, DWORD PTR _this$[ebp]
  02896	8b 48 30	 mov	 ecx, DWORD PTR [eax+48]
  02899	e8 00 00 00 00	 call	 ?GetWindowRect@CWnd@@QBEXPAUtagRECT@@@Z ; CWnd::GetWindowRect

; 818  : 	m_pWnd->ScreenToClient(&rc);

  0289e	8d 4d e4	 lea	 ecx, DWORD PTR _rc$[ebp]
  028a1	51		 push	 ecx
  028a2	8b 55 a4	 mov	 edx, DWORD PTR _this$[ebp]
  028a5	8b 4a 30	 mov	 ecx, DWORD PTR [edx+48]
  028a8	e8 00 00 00 00	 call	 ?ScreenToClient@CWnd@@QBEXPAUtagRECT@@@Z ; CWnd::ScreenToClient

; 819  : 	if(bUseMemDC)

  028ad	83 7d 0c 00	 cmp	 DWORD PTR _bUseMemDC$[ebp], 0
  028b1	74 6b		 je	 SHORT $L201319

; 820  : 	{
; 821  : 		CMemDC memdc(pDC, &rc);

  028b3	8d 45 e4	 lea	 eax, DWORD PTR _rc$[ebp]
  028b6	50		 push	 eax
  028b7	8d 4d a8	 lea	 ecx, DWORD PTR $T203477[ebp]
  028ba	e8 00 00 00 00	 call	 ??0CRect@@QAE@PBUtagRECT@@@Z ; CRect::CRect
  028bf	8d 4d a8	 lea	 ecx, DWORD PTR $T203477[ebp]
  028c2	51		 push	 ecx
  028c3	8b 55 08	 mov	 edx, DWORD PTR _pDC$[ebp]
  028c6	52		 push	 edx
  028c7	8d 4d b8	 lea	 ecx, DWORD PTR _memdc$201320[ebp]
  028ca	e8 00 00 00 00	 call	 ??0CMemDC@@QAE@PAVCDC@@ABVCRect@@@Z ; CMemDC::CMemDC
  028cf	c7 45 fc 00 00
	00 00		 mov	 DWORD PTR __$EHRec$[ebp+8], 0

; 822  : 		m_pDC = &memdc;

  028d6	8b 45 a4	 mov	 eax, DWORD PTR _this$[ebp]
  028d9	8d 4d b8	 lea	 ecx, DWORD PTR _memdc$201320[ebp]
  028dc	89 48 08	 mov	 DWORD PTR [eax+8], ecx

; 823  : 
; 824  : 		if(this->m_clrBackground != 0)

  028df	8b 55 a4	 mov	 edx, DWORD PTR _this$[ebp]
  028e2	83 7a 54 00	 cmp	 DWORD PTR [edx+84], 0
  028e6	74 16		 je	 SHORT $L201322

; 825  : 			m_pDC->FillSolidRect(&rc, m_clrBackground);

  028e8	8b 45 a4	 mov	 eax, DWORD PTR _this$[ebp]
  028eb	8b 48 54	 mov	 ecx, DWORD PTR [eax+84]
  028ee	51		 push	 ecx
  028ef	8d 55 e4	 lea	 edx, DWORD PTR _rc$[ebp]
  028f2	52		 push	 edx
  028f3	8b 45 a4	 mov	 eax, DWORD PTR _this$[ebp]
  028f6	8b 48 08	 mov	 ecx, DWORD PTR [eax+8]
  028f9	e8 00 00 00 00	 call	 ?FillSolidRect@CDC@@QAEXPBUtagRECT@@K@Z ; CDC::FillSolidRect
$L201322:

; 826  : 		Layout(rc);

  028fe	8d 4d e4	 lea	 ecx, DWORD PTR _rc$[ebp]
  02901	51		 push	 ecx
  02902	8b 55 a4	 mov	 edx, DWORD PTR _this$[ebp]
  02905	8b 02		 mov	 eax, DWORD PTR [edx]
  02907	8b 4d a4	 mov	 ecx, DWORD PTR _this$[ebp]
  0290a	ff 50 14	 call	 DWORD PTR [eax+20]

; 827  : 	}

  0290d	c7 45 fc ff ff
	ff ff		 mov	 DWORD PTR __$EHRec$[ebp+8], -1
  02914	8d 4d b8	 lea	 ecx, DWORD PTR _memdc$201320[ebp]
  02917	e8 00 00 00 00	 call	 ??1CMemDC@@UAE@XZ	; CMemDC::~CMemDC

; 828  : 	else

  0291c	eb 2e		 jmp	 SHORT $L201323
$L201319:

; 829  : 	{
; 830  : 		if(this->m_clrBackground != 0)

  0291e	8b 4d a4	 mov	 ecx, DWORD PTR _this$[ebp]
  02921	83 79 54 00	 cmp	 DWORD PTR [ecx+84], 0
  02925	74 16		 je	 SHORT $L201324

; 831  : 			m_pDC->FillSolidRect(&rc, m_clrBackground);

  02927	8b 55 a4	 mov	 edx, DWORD PTR _this$[ebp]
  0292a	8b 42 54	 mov	 eax, DWORD PTR [edx+84]
  0292d	50		 push	 eax
  0292e	8d 4d e4	 lea	 ecx, DWORD PTR _rc$[ebp]
  02931	51		 push	 ecx
  02932	8b 55 a4	 mov	 edx, DWORD PTR _this$[ebp]
  02935	8b 4a 08	 mov	 ecx, DWORD PTR [edx+8]
  02938	e8 00 00 00 00	 call	 ?FillSolidRect@CDC@@QAEXPBUtagRECT@@K@Z ; CDC::FillSolidRect
$L201324:

; 832  : 		Layout(rc);

  0293d	8d 45 e4	 lea	 eax, DWORD PTR _rc$[ebp]
  02940	50		 push	 eax
  02941	8b 4d a4	 mov	 ecx, DWORD PTR _this$[ebp]
  02944	8b 11		 mov	 edx, DWORD PTR [ecx]
  02946	8b 4d a4	 mov	 ecx, DWORD PTR _this$[ebp]
  02949	ff 52 14	 call	 DWORD PTR [edx+20]
$L201323:

; 833  : 	}
; 834  : 	m_pDC = NULL;

  0294c	8b 45 a4	 mov	 eax, DWORD PTR _this$[ebp]
  0294f	c7 40 08 00 00
	00 00		 mov	 DWORD PTR [eax+8], 0

; 835  : 	//HRGN hrgn = CreateRectRgn(0,0,0,0);
; 836  : 	//int ret = ::GetWindowRgn(m_pWnd->m_hWnd,hrgn);
; 837  : 	//if(ret == COMPLEXREGION)
; 838  : 	//	;//SelectClipRgn(pDC->m_hDC,hrgn);
; 839  : 	//::DeleteObject(hrgn);
; 840  : //
; 841  : //	NULLREGION The region is empty. 
; 842  : //SIMPLEREGION The region is a single rectangle. 
; 843  : //COMPLEXREGION The region is more than one rectangle. 
; 844  : //ERROR 
; 845  : 
; 846  : 
; 847  : }

  02956	8b 4d f4	 mov	 ecx, DWORD PTR __$EHRec$[ebp]
  02959	64 89 0d 00 00
	00 00		 mov	 DWORD PTR fs:__except_list, ecx
  02960	8b e5		 mov	 esp, ebp
  02962	5d		 pop	 ebp
  02963	c2 08 00	 ret	 8
_TEXT	ENDS
text$x	SEGMENT
$L203478:
  002c1	8d 4d b8	 lea	 ecx, DWORD PTR _memdc$201320[ebp]
  002c4	e9 00 00 00 00	 jmp	 ??1CMemDC@@UAE@XZ	; CMemDC::~CMemDC
__ehhandler$?UpdateBkLayout@ETSLayoutMgr@@UAEXPAVCDC@@H@Z:
  002c9	b8 00 00 00 00	 mov	 eax, OFFSET FLAT:$T203480
  002ce	e9 00 00 00 00	 jmp	 ___CxxFrameHandler
text$x	ENDS
?UpdateBkLayout@ETSLayoutMgr@@UAEXPAVCDC@@H@Z ENDP	; ETSLayoutMgr::UpdateBkLayout
PUBLIC	?isLayerExist@PaneMulti@ETSLayoutMgr@@QAE_NV?$CStringT@DV?$StrTraitMFC_DLL@DV?$ChTraitsCRT@D@ATL@@@@@ATL@@@Z ; ETSLayoutMgr::PaneMulti::isLayerExist
xdata$x	SEGMENT
$T203491 DD	0ffffffffH
	DD	FLAT:$L203486
	DD	00H
	DD	FLAT:$L203487
$T203489 DD	019930520H
	DD	02H
	DD	FLAT:$T203491
	DD	2 DUP(00H)
	DD	2 DUP(00H)
; Function compile flags: /Odt
xdata$x	ENDS
_TEXT	SEGMENT
_this$ = -24						; size = 4
$T203485 = -18						; size = 1
$T203484 = -17						; size = 1
_panebase$ = -16					; size = 4
__$EHRec$ = -12						; size = 12
_name$ = 8						; size = 4
?isLayerExist@PaneMulti@ETSLayoutMgr@@QAE_NV?$CStringT@DV?$StrTraitMFC_DLL@DV?$ChTraitsCRT@D@ATL@@@@@ATL@@@Z PROC NEAR ; ETSLayoutMgr::PaneMulti::isLayerExist
; _this$ = ecx

; 852  : {

  02970	55		 push	 ebp
  02971	8b ec		 mov	 ebp, esp
  02973	6a ff		 push	 -1
  02975	68 00 00 00 00	 push	 __ehhandler$?isLayerExist@PaneMulti@ETSLayoutMgr@@QAE_NV?$CStringT@DV?$StrTraitMFC_DLL@DV?$ChTraitsCRT@D@ATL@@@@@ATL@@@Z
  0297a	64 a1 00 00 00
	00		 mov	 eax, DWORD PTR fs:__except_list
  02980	50		 push	 eax
  02981	64 89 25 00 00
	00 00		 mov	 DWORD PTR fs:__except_list, esp
  02988	83 ec 0c	 sub	 esp, 12			; 0000000cH
  0298b	89 4d e8	 mov	 DWORD PTR _this$[ebp], ecx
  0298e	c7 45 fc 00 00
	00 00		 mov	 DWORD PTR __$EHRec$[ebp+8], 0

; 853  : 	CPaneBase	panebase;

  02995	8d 4d f0	 lea	 ecx, DWORD PTR _panebase$[ebp]
  02998	e8 00 00 00 00	 call	 ??0CPaneBase@ETSLayoutMgr@@QAE@XZ ; ETSLayoutMgr::CPaneBase::CPaneBase
  0299d	c6 45 fc 01	 mov	 BYTE PTR __$EHRec$[ebp+8], 1

; 854  : 	if(!m_mapLayers.Lookup(name, panebase))

  029a1	8d 45 f0	 lea	 eax, DWORD PTR _panebase$[ebp]
  029a4	50		 push	 eax
  029a5	8d 4d 08	 lea	 ecx, DWORD PTR _name$[ebp]
  029a8	ff 15 00 00 00
	00		 call	 DWORD PTR __imp_??B?$CSimpleStringT@D$00@ATL@@QBEPBDXZ
  029ae	50		 push	 eax
  029af	8b 4d e8	 mov	 ecx, DWORD PTR _this$[ebp]
  029b2	81 c1 8c 00 00
	00		 add	 ecx, 140		; 0000008cH
  029b8	e8 00 00 00 00	 call	 ?Lookup@?$CMap@V?$CStringT@DV?$StrTraitMFC_DLL@DV?$ChTraitsCRT@D@ATL@@@@@ATL@@PBDVCPaneBase@ETSLayoutMgr@@V34@@@QBEHPBDAAVCPaneBase@ETSLayoutMgr@@@Z ; CMap<ATL::CStringT<char,StrTraitMFC_DLL<char,ATL::ChTraitsCRT<char> > >,char const *,ETSLayoutMgr::CPaneBase,ETSLayoutMgr::CPaneBase>::Lookup
  029bd	85 c0		 test	 eax, eax
  029bf	75 25		 jne	 SHORT $L201330

; 855  : 	{
; 856  : 		return false;

  029c1	c6 45 ef 00	 mov	 BYTE PTR $T203484[ebp], 0
  029c5	c6 45 fc 00	 mov	 BYTE PTR __$EHRec$[ebp+8], 0
  029c9	8d 4d f0	 lea	 ecx, DWORD PTR _panebase$[ebp]
  029cc	e8 00 00 00 00	 call	 ??1CPaneBase@ETSLayoutMgr@@QAE@XZ ; ETSLayoutMgr::CPaneBase::~CPaneBase
  029d1	c7 45 fc ff ff
	ff ff		 mov	 DWORD PTR __$EHRec$[ebp+8], -1
  029d8	8d 4d 08	 lea	 ecx, DWORD PTR _name$[ebp]
  029db	ff 15 00 00 00
	00		 call	 DWORD PTR __imp_??1?$CStringT@DV?$StrTraitMFC_DLL@DV?$ChTraitsCRT@D@ATL@@@@@ATL@@QAE@XZ
  029e1	8a 45 ef	 mov	 al, BYTE PTR $T203484[ebp]
  029e4	eb 23		 jmp	 SHORT $L201328
$L201330:

; 857  : 	}
; 858  : 
; 859  : 	return true;

  029e6	c6 45 ee 01	 mov	 BYTE PTR $T203485[ebp], 1
  029ea	c6 45 fc 00	 mov	 BYTE PTR __$EHRec$[ebp+8], 0
  029ee	8d 4d f0	 lea	 ecx, DWORD PTR _panebase$[ebp]
  029f1	e8 00 00 00 00	 call	 ??1CPaneBase@ETSLayoutMgr@@QAE@XZ ; ETSLayoutMgr::CPaneBase::~CPaneBase
  029f6	c7 45 fc ff ff
	ff ff		 mov	 DWORD PTR __$EHRec$[ebp+8], -1
  029fd	8d 4d 08	 lea	 ecx, DWORD PTR _name$[ebp]
  02a00	ff 15 00 00 00
	00		 call	 DWORD PTR __imp_??1?$CStringT@DV?$StrTraitMFC_DLL@DV?$ChTraitsCRT@D@ATL@@@@@ATL@@QAE@XZ
  02a06	8a 45 ee	 mov	 al, BYTE PTR $T203485[ebp]
$L201328:

; 860  : }

  02a09	8b 4d f4	 mov	 ecx, DWORD PTR __$EHRec$[ebp]
  02a0c	64 89 0d 00 00
	00 00		 mov	 DWORD PTR fs:__except_list, ecx
  02a13	8b e5		 mov	 esp, ebp
  02a15	5d		 pop	 ebp
  02a16	c2 04 00	 ret	 4
_TEXT	ENDS
text$x	SEGMENT
$L203486:
  002d3	8d 4d 08	 lea	 ecx, DWORD PTR _name$[ebp]
  002d6	ff 25 00 00 00
	00		 jmp	 DWORD PTR __imp_??1?$CStringT@DV?$StrTraitMFC_DLL@DV?$ChTraitsCRT@D@ATL@@@@@ATL@@QAE@XZ
$L203487:
  002dc	8d 4d f0	 lea	 ecx, DWORD PTR _panebase$[ebp]
  002df	e9 00 00 00 00	 jmp	 ??1CPaneBase@ETSLayoutMgr@@QAE@XZ ; ETSLayoutMgr::CPaneBase::~CPaneBase
__ehhandler$?isLayerExist@PaneMulti@ETSLayoutMgr@@QAE_NV?$CStringT@DV?$StrTraitMFC_DLL@DV?$ChTraitsCRT@D@ATL@@@@@ATL@@@Z:
  002e4	b8 00 00 00 00	 mov	 eax, OFFSET FLAT:$T203489
  002e9	e9 00 00 00 00	 jmp	 ___CxxFrameHandler
text$x	ENDS
?isLayerExist@PaneMulti@ETSLayoutMgr@@QAE_NV?$CStringT@DV?$StrTraitMFC_DLL@DV?$ChTraitsCRT@D@ATL@@@@@ATL@@@Z ENDP ; ETSLayoutMgr::PaneMulti::isLayerExist
EXTRN	__imp_?Compare@?$CStringT@DV?$StrTraitMFC_DLL@DV?$ChTraitsCRT@D@ATL@@@@@ATL@@QBEHPBD@Z:NEAR
; Function compile flags: /Odt
; File d:\program files (x86)\microsoft visual studio .net 2003\vc7\atlmfc\include\cstringt.h
;	COMDAT ??8ATL@@YA_NABV?$CStringT@DV?$StrTraitMFC_DLL@DV?$ChTraitsCRT@D@ATL@@@@@0@PBD@Z
_TEXT	SEGMENT
_str1$ = 8						; size = 4
_psz2$ = 12						; size = 4
??8ATL@@YA_NABV?$CStringT@DV?$StrTraitMFC_DLL@DV?$ChTraitsCRT@D@ATL@@@@@0@PBD@Z PROC NEAR ; ATL::operator==, COMDAT

; 2087 : 	{

  00000	55		 push	 ebp
  00001	8b ec		 mov	 ebp, esp

; 2088 : 		return( str1.Compare( psz2 ) == 0 );

  00003	8b 45 0c	 mov	 eax, DWORD PTR _psz2$[ebp]
  00006	50		 push	 eax
  00007	8b 4d 08	 mov	 ecx, DWORD PTR _str1$[ebp]
  0000a	ff 15 00 00 00
	00		 call	 DWORD PTR __imp_?Compare@?$CStringT@DV?$StrTraitMFC_DLL@DV?$ChTraitsCRT@D@ATL@@@@@ATL@@QBEHPBD@Z
  00010	f7 d8		 neg	 eax
  00012	1b c0		 sbb	 eax, eax
  00014	40		 inc	 eax

; 2089 : 	}

  00015	5d		 pop	 ebp
  00016	c3		 ret	 0
??8ATL@@YA_NABV?$CStringT@DV?$StrTraitMFC_DLL@DV?$ChTraitsCRT@D@ATL@@@@@0@PBD@Z ENDP ; ATL::operator==
; Function compile flags: /Odt
; File d:\program files (x86)\microsoft visual studio .net 2003\vc7\atlmfc\include\atltypes.inl
_TEXT	ENDS
;	COMDAT ??0CRect@@QAE@XZ
_TEXT	SEGMENT
_this$ = -4						; size = 4
??0CRect@@QAE@XZ PROC NEAR				; CRect::CRect, COMDAT
; _this$ = ecx

; 110  : 	{ /* random filled */ }

  00000	55		 push	 ebp
  00001	8b ec		 mov	 ebp, esp
  00003	51		 push	 ecx
  00004	89 4d fc	 mov	 DWORD PTR _this$[ebp], ecx
  00007	8b 45 fc	 mov	 eax, DWORD PTR _this$[ebp]
  0000a	8b e5		 mov	 esp, ebp
  0000c	5d		 pop	 ebp
  0000d	c3		 ret	 0
??0CRect@@QAE@XZ ENDP					; CRect::CRect
; Function compile flags: /Odt
_TEXT	ENDS
;	COMDAT ??0CRect@@QAE@HHHH@Z
_TEXT	SEGMENT
_this$ = -4						; size = 4
_l$ = 8							; size = 4
_t$ = 12						; size = 4
_r$ = 16						; size = 4
_b$ = 20						; size = 4
??0CRect@@QAE@HHHH@Z PROC NEAR				; CRect::CRect, COMDAT
; _this$ = ecx

; 112  : 	{ left = l; top = t; right = r; bottom = b; }

  00000	55		 push	 ebp
  00001	8b ec		 mov	 ebp, esp
  00003	51		 push	 ecx
  00004	89 4d fc	 mov	 DWORD PTR _this$[ebp], ecx
  00007	8b 45 fc	 mov	 eax, DWORD PTR _this$[ebp]
  0000a	8b 4d 08	 mov	 ecx, DWORD PTR _l$[ebp]
  0000d	89 08		 mov	 DWORD PTR [eax], ecx
  0000f	8b 55 fc	 mov	 edx, DWORD PTR _this$[ebp]
  00012	8b 45 0c	 mov	 eax, DWORD PTR _t$[ebp]
  00015	89 42 04	 mov	 DWORD PTR [edx+4], eax
  00018	8b 4d fc	 mov	 ecx, DWORD PTR _this$[ebp]
  0001b	8b 55 10	 mov	 edx, DWORD PTR _r$[ebp]
  0001e	89 51 08	 mov	 DWORD PTR [ecx+8], edx
  00021	8b 45 fc	 mov	 eax, DWORD PTR _this$[ebp]
  00024	8b 4d 14	 mov	 ecx, DWORD PTR _b$[ebp]
  00027	89 48 0c	 mov	 DWORD PTR [eax+12], ecx
  0002a	8b 45 fc	 mov	 eax, DWORD PTR _this$[ebp]
  0002d	8b e5		 mov	 esp, ebp
  0002f	5d		 pop	 ebp
  00030	c2 10 00	 ret	 16			; 00000010H
??0CRect@@QAE@HHHH@Z ENDP				; CRect::CRect
_TEXT	ENDS
EXTRN	__imp__CopyRect@8:NEAR
; Function compile flags: /Odt
;	COMDAT ??0CRect@@QAE@PBUtagRECT@@@Z
_TEXT	SEGMENT
_this$ = -4						; size = 4
_lpSrcRect$ = 8						; size = 4
??0CRect@@QAE@PBUtagRECT@@@Z PROC NEAR			; CRect::CRect, COMDAT
; _this$ = ecx

; 116  : 	{ ::CopyRect(this, lpSrcRect); }

  00000	55		 push	 ebp
  00001	8b ec		 mov	 ebp, esp
  00003	51		 push	 ecx
  00004	89 4d fc	 mov	 DWORD PTR _this$[ebp], ecx
  00007	8b 45 08	 mov	 eax, DWORD PTR _lpSrcRect$[ebp]
  0000a	50		 push	 eax
  0000b	8b 4d fc	 mov	 ecx, DWORD PTR _this$[ebp]
  0000e	51		 push	 ecx
  0000f	ff 15 00 00 00
	00		 call	 DWORD PTR __imp__CopyRect@8
  00015	8b 45 fc	 mov	 eax, DWORD PTR _this$[ebp]
  00018	8b e5		 mov	 esp, ebp
  0001a	5d		 pop	 ebp
  0001b	c2 04 00	 ret	 4
??0CRect@@QAE@PBUtagRECT@@@Z ENDP			; CRect::CRect
; Function compile flags: /Odt
_TEXT	ENDS
;	COMDAT ?Width@CRect@@QBEHXZ
_TEXT	SEGMENT
_this$ = -4						; size = 4
?Width@CRect@@QBEHXZ PROC NEAR				; CRect::Width, COMDAT
; _this$ = ecx

; 123  : 	{ return right - left; }

  00000	55		 push	 ebp
  00001	8b ec		 mov	 ebp, esp
  00003	51		 push	 ecx
  00004	89 4d fc	 mov	 DWORD PTR _this$[ebp], ecx
  00007	8b 45 fc	 mov	 eax, DWORD PTR _this$[ebp]
  0000a	8b 4d fc	 mov	 ecx, DWORD PTR _this$[ebp]
  0000d	8b 40 08	 mov	 eax, DWORD PTR [eax+8]
  00010	2b 01		 sub	 eax, DWORD PTR [ecx]
  00012	8b e5		 mov	 esp, ebp
  00014	5d		 pop	 ebp
  00015	c3		 ret	 0
?Width@CRect@@QBEHXZ ENDP				; CRect::Width
; Function compile flags: /Odt
_TEXT	ENDS
;	COMDAT ?Height@CRect@@QBEHXZ
_TEXT	SEGMENT
_this$ = -4						; size = 4
?Height@CRect@@QBEHXZ PROC NEAR				; CRect::Height, COMDAT
; _this$ = ecx

; 125  : 	{ return bottom - top; }

  00000	55		 push	 ebp
  00001	8b ec		 mov	 ebp, esp
  00003	51		 push	 ecx
  00004	89 4d fc	 mov	 DWORD PTR _this$[ebp], ecx
  00007	8b 45 fc	 mov	 eax, DWORD PTR _this$[ebp]
  0000a	8b 4d fc	 mov	 ecx, DWORD PTR _this$[ebp]
  0000d	8b 40 0c	 mov	 eax, DWORD PTR [eax+12]
  00010	2b 41 04	 sub	 eax, DWORD PTR [ecx+4]
  00013	8b e5		 mov	 esp, ebp
  00015	5d		 pop	 ebp
  00016	c3		 ret	 0
?Height@CRect@@QBEHXZ ENDP				; CRect::Height
; Function compile flags: /Odt
; File d:\program files (x86)\microsoft visual studio .net 2003\vc7\atlmfc\include\afxtempl.h
_TEXT	ENDS
;	COMDAT ?GetSize@?$CArray@VCPaneBase@ETSLayoutMgr@@V12@@@QBEHXZ
_TEXT	SEGMENT
_this$ = -4						; size = 4
?GetSize@?$CArray@VCPaneBase@ETSLayoutMgr@@V12@@@QBEHXZ PROC NEAR ; CArray<ETSLayoutMgr::CPaneBase,ETSLayoutMgr::CPaneBase>::GetSize, COMDAT
; _this$ = ecx

; 272  : 	{ return m_nSize; }

  00000	55		 push	 ebp
  00001	8b ec		 mov	 ebp, esp
  00003	51		 push	 ecx
  00004	89 4d fc	 mov	 DWORD PTR _this$[ebp], ecx
  00007	8b 45 fc	 mov	 eax, DWORD PTR _this$[ebp]
  0000a	8b 40 08	 mov	 eax, DWORD PTR [eax+8]
  0000d	8b e5		 mov	 esp, ebp
  0000f	5d		 pop	 ebp
  00010	c3		 ret	 0
?GetSize@?$CArray@VCPaneBase@ETSLayoutMgr@@V12@@@QBEHXZ ENDP ; CArray<ETSLayoutMgr::CPaneBase,ETSLayoutMgr::CPaneBase>::GetSize
_TEXT	ENDS
PUBLIC	?SetSize@?$CArray@VCPaneBase@ETSLayoutMgr@@V12@@@QAEXHH@Z ; CArray<ETSLayoutMgr::CPaneBase,ETSLayoutMgr::CPaneBase>::SetSize
; Function compile flags: /Odt
;	COMDAT ?RemoveAll@?$CArray@VCPaneBase@ETSLayoutMgr@@V12@@@QAEXXZ
_TEXT	SEGMENT
_this$ = -4						; size = 4
?RemoveAll@?$CArray@VCPaneBase@ETSLayoutMgr@@V12@@@QAEXXZ PROC NEAR ; CArray<ETSLayoutMgr::CPaneBase,ETSLayoutMgr::CPaneBase>::RemoveAll, COMDAT
; _this$ = ecx

; 284  : 	{ SetSize(0, -1); }

  00000	55		 push	 ebp
  00001	8b ec		 mov	 ebp, esp
  00003	51		 push	 ecx
  00004	89 4d fc	 mov	 DWORD PTR _this$[ebp], ecx
  00007	6a ff		 push	 -1
  00009	6a 00		 push	 0
  0000b	8b 4d fc	 mov	 ecx, DWORD PTR _this$[ebp]
  0000e	e8 00 00 00 00	 call	 ?SetSize@?$CArray@VCPaneBase@ETSLayoutMgr@@V12@@@QAEXHH@Z ; CArray<ETSLayoutMgr::CPaneBase,ETSLayoutMgr::CPaneBase>::SetSize
  00013	8b e5		 mov	 esp, ebp
  00015	5d		 pop	 ebp
  00016	c3		 ret	 0
?RemoveAll@?$CArray@VCPaneBase@ETSLayoutMgr@@V12@@@QAEXXZ ENDP ; CArray<ETSLayoutMgr::CPaneBase,ETSLayoutMgr::CPaneBase>::RemoveAll
_TEXT	ENDS
PUBLIC	?ElementAt@?$CArray@VCPaneBase@ETSLayoutMgr@@V12@@@QAEAAVCPaneBase@ETSLayoutMgr@@H@Z ; CArray<ETSLayoutMgr::CPaneBase,ETSLayoutMgr::CPaneBase>::ElementAt
; Function compile flags: /Odt
;	COMDAT ??A?$CArray@VCPaneBase@ETSLayoutMgr@@V12@@@QAEAAVCPaneBase@ETSLayoutMgr@@H@Z
_TEXT	SEGMENT
_this$ = -4						; size = 4
_nIndex$ = 8						; size = 4
??A?$CArray@VCPaneBase@ETSLayoutMgr@@V12@@@QAEAAVCPaneBase@ETSLayoutMgr@@H@Z PROC NEAR ; CArray<ETSLayoutMgr::CPaneBase,ETSLayoutMgr::CPaneBase>::operator[], COMDAT
; _this$ = ecx

; 342  : 	{ return ElementAt(nIndex); }

  00000	55		 push	 ebp
  00001	8b ec		 mov	 ebp, esp
  00003	51		 push	 ecx
  00004	89 4d fc	 mov	 DWORD PTR _this$[ebp], ecx
  00007	8b 45 08	 mov	 eax, DWORD PTR _nIndex$[ebp]
  0000a	50		 push	 eax
  0000b	8b 4d fc	 mov	 ecx, DWORD PTR _this$[ebp]
  0000e	e8 00 00 00 00	 call	 ?ElementAt@?$CArray@VCPaneBase@ETSLayoutMgr@@V12@@@QAEAAVCPaneBase@ETSLayoutMgr@@H@Z ; CArray<ETSLayoutMgr::CPaneBase,ETSLayoutMgr::CPaneBase>::ElementAt
  00013	8b e5		 mov	 esp, ebp
  00015	5d		 pop	 ebp
  00016	c2 04 00	 ret	 4
??A?$CArray@VCPaneBase@ETSLayoutMgr@@V12@@@QAEAAVCPaneBase@ETSLayoutMgr@@H@Z ENDP ; CArray<ETSLayoutMgr::CPaneBase,ETSLayoutMgr::CPaneBase>::operator[]
_TEXT	ENDS
PUBLIC	?GetAssocAt@?$CMap@V?$CStringT@DV?$StrTraitMFC_DLL@DV?$ChTraitsCRT@D@ATL@@@@@ATL@@PBDVCPaneBase@ETSLayoutMgr@@V34@@@IBEPAVCAssoc@1@PBDAAI1@Z ; CMap<ATL::CStringT<char,StrTraitMFC_DLL<char,ATL::ChTraitsCRT<char> > >,char const *,ETSLayoutMgr::CPaneBase,ETSLayoutMgr::CPaneBase>::GetAssocAt
; Function compile flags: /Odt
;	COMDAT ?Lookup@?$CMap@V?$CStringT@DV?$StrTraitMFC_DLL@DV?$ChTraitsCRT@D@ATL@@@@@ATL@@PBDVCPaneBase@ETSLayoutMgr@@V34@@@QBEHPBDAAVCPaneBase@ETSLayoutMgr@@@Z
_TEXT	SEGMENT
_this$ = -16						; size = 4
_nHashBucket$ = -12					; size = 4
_pAssoc$ = -8						; size = 4
_nHashValue$ = -4					; size = 4
_key$ = 8						; size = 4
_rValue$ = 12						; size = 4
?Lookup@?$CMap@V?$CStringT@DV?$StrTraitMFC_DLL@DV?$ChTraitsCRT@D@ATL@@@@@ATL@@PBDVCPaneBase@ETSLayoutMgr@@V34@@@QBEHPBDAAVCPaneBase@ETSLayoutMgr@@@Z PROC NEAR ; CMap<ATL::CStringT<char,StrTraitMFC_DLL<char,ATL::ChTraitsCRT<char> > >,char const *,ETSLayoutMgr::CPaneBase,ETSLayoutMgr::CPaneBase>::Lookup, COMDAT
; _this$ = ecx

; 1552 : {

  00000	55		 push	 ebp
  00001	8b ec		 mov	 ebp, esp
  00003	83 ec 10	 sub	 esp, 16			; 00000010H
  00006	89 4d f0	 mov	 DWORD PTR _this$[ebp], ecx

; 1553 : 	ASSERT_VALID(this);
; 1554 : 
; 1555 : 	UINT nHashBucket, nHashValue;
; 1556 : 	CAssoc* pAssoc = GetAssocAt(key, nHashBucket, nHashValue);

  00009	8d 45 fc	 lea	 eax, DWORD PTR _nHashValue$[ebp]
  0000c	50		 push	 eax
  0000d	8d 4d f4	 lea	 ecx, DWORD PTR _nHashBucket$[ebp]
  00010	51		 push	 ecx
  00011	8b 55 08	 mov	 edx, DWORD PTR _key$[ebp]
  00014	52		 push	 edx
  00015	8b 4d f0	 mov	 ecx, DWORD PTR _this$[ebp]
  00018	e8 00 00 00 00	 call	 ?GetAssocAt@?$CMap@V?$CStringT@DV?$StrTraitMFC_DLL@DV?$ChTraitsCRT@D@ATL@@@@@ATL@@PBDVCPaneBase@ETSLayoutMgr@@V34@@@IBEPAVCAssoc@1@PBDAAI1@Z ; CMap<ATL::CStringT<char,StrTraitMFC_DLL<char,ATL::ChTraitsCRT<char> > >,char const *,ETSLayoutMgr::CPaneBase,ETSLayoutMgr::CPaneBase>::GetAssocAt
  0001d	89 45 f8	 mov	 DWORD PTR _pAssoc$[ebp], eax

; 1557 : 	if (pAssoc == NULL)

  00020	83 7d f8 00	 cmp	 DWORD PTR _pAssoc$[ebp], 0
  00024	75 04		 jne	 SHORT $L201779

; 1558 : 		return FALSE;  // not in map

  00026	33 c0		 xor	 eax, eax
  00028	eb 14		 jmp	 SHORT $L201774
$L201779:

; 1559 : 
; 1560 : 	rValue = pAssoc->value;

  0002a	8b 45 f8	 mov	 eax, DWORD PTR _pAssoc$[ebp]
  0002d	83 c0 04	 add	 eax, 4
  00030	50		 push	 eax
  00031	8b 4d 0c	 mov	 ecx, DWORD PTR _rValue$[ebp]
  00034	e8 00 00 00 00	 call	 ??4CPaneBase@ETSLayoutMgr@@QAEXABV01@@Z ; ETSLayoutMgr::CPaneBase::operator=

; 1561 : 	return TRUE;

  00039	b8 01 00 00 00	 mov	 eax, 1
$L201774:

; 1562 : }

  0003e	8b e5		 mov	 esp, ebp
  00040	5d		 pop	 ebp
  00041	c2 08 00	 ret	 8
?Lookup@?$CMap@V?$CStringT@DV?$StrTraitMFC_DLL@DV?$ChTraitsCRT@D@ATL@@@@@ATL@@PBDVCPaneBase@ETSLayoutMgr@@V34@@@QBEHPBDAAVCPaneBase@ETSLayoutMgr@@@Z ENDP ; CMap<ATL::CStringT<char,StrTraitMFC_DLL<char,ATL::ChTraitsCRT<char> > >,char const *,ETSLayoutMgr::CPaneBase,ETSLayoutMgr::CPaneBase>::Lookup
_TEXT	ENDS
PUBLIC	??A?$CMap@V?$CStringT@DV?$StrTraitMFC_DLL@DV?$ChTraitsCRT@D@ATL@@@@@ATL@@PBDVCPaneBase@ETSLayoutMgr@@V34@@@QAEAAVCPaneBase@ETSLayoutMgr@@PBD@Z ; CMap<ATL::CStringT<char,StrTraitMFC_DLL<char,ATL::ChTraitsCRT<char> > >,char const *,ETSLayoutMgr::CPaneBase,ETSLayoutMgr::CPaneBase>::operator[]
;	COMDAT xdata$x
xdata$x	SEGMENT
$T203517 DD	0ffffffffH
	DD	FLAT:$L203513
$T203515 DD	019930520H
	DD	01H
	DD	FLAT:$T203517
	DD	2 DUP(00H)
	DD	2 DUP(00H)
; Function compile flags: /Odt
xdata$x	ENDS
;	COMDAT ?SetAt@?$CMap@V?$CStringT@DV?$StrTraitMFC_DLL@DV?$ChTraitsCRT@D@ATL@@@@@ATL@@PBDVCPaneBase@ETSLayoutMgr@@V34@@@QAEXPBDVCPaneBase@ETSLayoutMgr@@@Z
_TEXT	SEGMENT
_this$ = -16						; size = 4
__$EHRec$ = -12						; size = 12
_key$ = 8						; size = 4
_newValue$ = 12						; size = 4
?SetAt@?$CMap@V?$CStringT@DV?$StrTraitMFC_DLL@DV?$ChTraitsCRT@D@ATL@@@@@ATL@@PBDVCPaneBase@ETSLayoutMgr@@V34@@@QAEXPBDVCPaneBase@ETSLayoutMgr@@@Z PROC NEAR ; CMap<ATL::CStringT<char,StrTraitMFC_DLL<char,ATL::ChTraitsCRT<char> > >,char const *,ETSLayoutMgr::CPaneBase,ETSLayoutMgr::CPaneBase>::SetAt, COMDAT
; _this$ = ecx

; 1346 : 	{ (*this)[key] = newValue; }

  00000	55		 push	 ebp
  00001	8b ec		 mov	 ebp, esp
  00003	6a ff		 push	 -1
  00005	68 00 00 00 00	 push	 __ehhandler$?SetAt@?$CMap@V?$CStringT@DV?$StrTraitMFC_DLL@DV?$ChTraitsCRT@D@ATL@@@@@ATL@@PBDVCPaneBase@ETSLayoutMgr@@V34@@@QAEXPBDVCPaneBase@ETSLayoutMgr@@@Z
  0000a	64 a1 00 00 00
	00		 mov	 eax, DWORD PTR fs:__except_list
  00010	50		 push	 eax
  00011	64 89 25 00 00
	00 00		 mov	 DWORD PTR fs:__except_list, esp
  00018	51		 push	 ecx
  00019	89 4d f0	 mov	 DWORD PTR _this$[ebp], ecx
  0001c	c7 45 fc 00 00
	00 00		 mov	 DWORD PTR __$EHRec$[ebp+8], 0
  00023	8d 45 0c	 lea	 eax, DWORD PTR _newValue$[ebp]
  00026	50		 push	 eax
  00027	8b 4d 08	 mov	 ecx, DWORD PTR _key$[ebp]
  0002a	51		 push	 ecx
  0002b	8b 4d f0	 mov	 ecx, DWORD PTR _this$[ebp]
  0002e	e8 00 00 00 00	 call	 ??A?$CMap@V?$CStringT@DV?$StrTraitMFC_DLL@DV?$ChTraitsCRT@D@ATL@@@@@ATL@@PBDVCPaneBase@ETSLayoutMgr@@V34@@@QAEAAVCPaneBase@ETSLayoutMgr@@PBD@Z ; CMap<ATL::CStringT<char,StrTraitMFC_DLL<char,ATL::ChTraitsCRT<char> > >,char const *,ETSLayoutMgr::CPaneBase,ETSLayoutMgr::CPaneBase>::operator[]
  00033	8b c8		 mov	 ecx, eax
  00035	e8 00 00 00 00	 call	 ??4CPaneBase@ETSLayoutMgr@@QAEXABV01@@Z ; ETSLayoutMgr::CPaneBase::operator=
  0003a	c7 45 fc ff ff
	ff ff		 mov	 DWORD PTR __$EHRec$[ebp+8], -1
  00041	8d 4d 0c	 lea	 ecx, DWORD PTR _newValue$[ebp]
  00044	e8 00 00 00 00	 call	 ??1CPaneBase@ETSLayoutMgr@@QAE@XZ ; ETSLayoutMgr::CPaneBase::~CPaneBase
  00049	8b 4d f4	 mov	 ecx, DWORD PTR __$EHRec$[ebp]
  0004c	64 89 0d 00 00
	00 00		 mov	 DWORD PTR fs:__except_list, ecx
  00053	8b e5		 mov	 esp, ebp
  00055	5d		 pop	 ebp
  00056	c2 08 00	 ret	 8
_TEXT	ENDS
;	COMDAT text$x
text$x	SEGMENT
$L203513:
  00000	8d 4d 0c	 lea	 ecx, DWORD PTR _newValue$[ebp]
  00003	e9 00 00 00 00	 jmp	 ??1CPaneBase@ETSLayoutMgr@@QAE@XZ ; ETSLayoutMgr::CPaneBase::~CPaneBase
__ehhandler$?SetAt@?$CMap@V?$CStringT@DV?$StrTraitMFC_DLL@DV?$ChTraitsCRT@D@ATL@@@@@ATL@@PBDVCPaneBase@ETSLayoutMgr@@V34@@@QAEXPBDVCPaneBase@ETSLayoutMgr@@@Z:
  00008	b8 00 00 00 00	 mov	 eax, OFFSET FLAT:$T203515
  0000d	e9 00 00 00 00	 jmp	 ___CxxFrameHandler
text$x	ENDS
?SetAt@?$CMap@V?$CStringT@DV?$StrTraitMFC_DLL@DV?$ChTraitsCRT@D@ATL@@@@@ATL@@PBDVCPaneBase@ETSLayoutMgr@@V34@@@QAEXPBDVCPaneBase@ETSLayoutMgr@@@Z ENDP ; CMap<ATL::CStringT<char,StrTraitMFC_DLL<char,ATL::ChTraitsCRT<char> > >,char const *,ETSLayoutMgr::CPaneBase,ETSLayoutMgr::CPaneBase>::SetAt
; Function compile flags: /Odt
;	COMDAT ?GetStartPosition@?$CMap@V?$CStringT@DV?$StrTraitMFC_DLL@DV?$ChTraitsCRT@D@ATL@@@@@ATL@@PBDVCPaneBase@ETSLayoutMgr@@V34@@@QBEPAU__POSITION@@XZ
_TEXT	SEGMENT
_this$ = -4						; size = 4
?GetStartPosition@?$CMap@V?$CStringT@DV?$StrTraitMFC_DLL@DV?$ChTraitsCRT@D@ATL@@@@@ATL@@PBDVCPaneBase@ETSLayoutMgr@@V34@@@QBEPAU__POSITION@@XZ PROC NEAR ; CMap<ATL::CStringT<char,StrTraitMFC_DLL<char,ATL::ChTraitsCRT<char> > >,char const *,ETSLayoutMgr::CPaneBase,ETSLayoutMgr::CPaneBase>::GetStartPosition, COMDAT
; _this$ = ecx

; 1350 : 	{ return (m_nCount == 0) ? NULL : BEFORE_START_POSITION; }

  00000	55		 push	 ebp
  00001	8b ec		 mov	 ebp, esp
  00003	51		 push	 ecx
  00004	89 4d fc	 mov	 DWORD PTR _this$[ebp], ecx
  00007	8b 45 fc	 mov	 eax, DWORD PTR _this$[ebp]
  0000a	8b 40 0c	 mov	 eax, DWORD PTR [eax+12]
  0000d	f7 d8		 neg	 eax
  0000f	1b c0		 sbb	 eax, eax
  00011	8b e5		 mov	 esp, ebp
  00013	5d		 pop	 ebp
  00014	c3		 ret	 0
?GetStartPosition@?$CMap@V?$CStringT@DV?$StrTraitMFC_DLL@DV?$ChTraitsCRT@D@ATL@@@@@ATL@@PBDVCPaneBase@ETSLayoutMgr@@V34@@@QBEPAU__POSITION@@XZ ENDP ; CMap<ATL::CStringT<char,StrTraitMFC_DLL<char,ATL::ChTraitsCRT<char> > >,char const *,ETSLayoutMgr::CPaneBase,ETSLayoutMgr::CPaneBase>::GetStartPosition
; Function compile flags: /Odt
_TEXT	ENDS
;	COMDAT ?GetNextAssoc@?$CMap@V?$CStringT@DV?$StrTraitMFC_DLL@DV?$ChTraitsCRT@D@ATL@@@@@ATL@@PBDVCPaneBase@ETSLayoutMgr@@V34@@@QBEXAAPAU__POSITION@@AAV?$CStringT@DV?$StrTraitMFC_DLL@DV?$ChTraitsCRT@D@ATL@@@@@ATL@@AAVCPaneBase@ETSLayoutMgr@@@Z
_TEXT	SEGMENT
_this$ = -20						; size = 4
_nBucket$201846 = -16					; size = 4
_nBucket$201837 = -12					; size = 4
_pAssocRet$ = -8					; size = 4
_pAssocNext$ = -4					; size = 4
_rNextPosition$ = 8					; size = 4
_rKey$ = 12						; size = 4
_rValue$ = 16						; size = 4
?GetNextAssoc@?$CMap@V?$CStringT@DV?$StrTraitMFC_DLL@DV?$ChTraitsCRT@D@ATL@@@@@ATL@@PBDVCPaneBase@ETSLayoutMgr@@V34@@@QBEXAAPAU__POSITION@@AAV?$CStringT@DV?$StrTraitMFC_DLL@DV?$ChTraitsCRT@D@ATL@@@@@ATL@@AAVCPaneBase@ETSLayoutMgr@@@Z PROC NEAR ; CMap<ATL::CStringT<char,StrTraitMFC_DLL<char,ATL::ChTraitsCRT<char> > >,char const *,ETSLayoutMgr::CPaneBase,ETSLayoutMgr::CPaneBase>::GetNextAssoc, COMDAT
; _this$ = ecx

; 1640 : {

  00000	55		 push	 ebp
  00001	8b ec		 mov	 ebp, esp
  00003	83 ec 14	 sub	 esp, 20			; 00000014H
  00006	89 4d ec	 mov	 DWORD PTR _this$[ebp], ecx

; 1641 : 	ASSERT_VALID(this);
; 1642 : 	ASSERT(m_pHashTable != NULL);  // never call on empty map
; 1643 : 
; 1644 : 	CAssoc* pAssocRet = (CAssoc*)rNextPosition;

  00009	8b 45 08	 mov	 eax, DWORD PTR _rNextPosition$[ebp]
  0000c	8b 08		 mov	 ecx, DWORD PTR [eax]
  0000e	89 4d f8	 mov	 DWORD PTR _pAssocRet$[ebp], ecx

; 1645 : 	ASSERT(pAssocRet != NULL);
; 1646 : 
; 1647 : 	if (pAssocRet == (CAssoc*) BEFORE_START_POSITION)

  00011	83 7d f8 ff	 cmp	 DWORD PTR _pAssocRet$[ebp], -1
  00015	75 36		 jne	 SHORT $L201836

; 1648 : 	{
; 1649 : 		// find the first association
; 1650 : 		for (UINT nBucket = 0; nBucket < m_nHashTableSize; nBucket++)

  00017	c7 45 f4 00 00
	00 00		 mov	 DWORD PTR _nBucket$201837[ebp], 0
  0001e	eb 09		 jmp	 SHORT $L201838
$L201839:
  00020	8b 55 f4	 mov	 edx, DWORD PTR _nBucket$201837[ebp]
  00023	83 c2 01	 add	 edx, 1
  00026	89 55 f4	 mov	 DWORD PTR _nBucket$201837[ebp], edx
$L201838:
  00029	8b 45 ec	 mov	 eax, DWORD PTR _this$[ebp]
  0002c	8b 4d f4	 mov	 ecx, DWORD PTR _nBucket$201837[ebp]
  0002f	3b 48 08	 cmp	 ecx, DWORD PTR [eax+8]
  00032	73 19		 jae	 SHORT $L201836

; 1651 : 			if ((pAssocRet = m_pHashTable[nBucket]) != NULL)

  00034	8b 55 ec	 mov	 edx, DWORD PTR _this$[ebp]
  00037	8b 42 04	 mov	 eax, DWORD PTR [edx+4]
  0003a	8b 4d f4	 mov	 ecx, DWORD PTR _nBucket$201837[ebp]
  0003d	8b 14 88	 mov	 edx, DWORD PTR [eax+ecx*4]
  00040	89 55 f8	 mov	 DWORD PTR _pAssocRet$[ebp], edx
  00043	83 7d f8 00	 cmp	 DWORD PTR _pAssocRet$[ebp], 0
  00047	74 02		 je	 SHORT $L201841

; 1652 : 				break;

  00049	eb 02		 jmp	 SHORT $L201836
$L201841:

; 1653 : 		ASSERT(pAssocRet != NULL);  // must find something

  0004b	eb d3		 jmp	 SHORT $L201839
$L201836:

; 1654 : 	}
; 1655 : 
; 1656 : 	// find next association
; 1657 : 	ASSERT(AfxIsValidAddress(pAssocRet, sizeof(CAssoc)));
; 1658 : 	CAssoc* pAssocNext;
; 1659 : 	if ((pAssocNext = pAssocRet->pNext) == NULL)

  0004d	8b 45 f8	 mov	 eax, DWORD PTR _pAssocRet$[ebp]
  00050	8b 48 08	 mov	 ecx, DWORD PTR [eax+8]
  00053	89 4d fc	 mov	 DWORD PTR _pAssocNext$[ebp], ecx
  00056	83 7d fc 00	 cmp	 DWORD PTR _pAssocNext$[ebp], 0
  0005a	75 43		 jne	 SHORT $L201845

; 1660 : 	{
; 1661 : 		// go to next bucket
; 1662 : 		for (UINT nBucket = (pAssocRet->nHashValue % m_nHashTableSize) + 1;

  0005c	8b 55 f8	 mov	 edx, DWORD PTR _pAssocRet$[ebp]
  0005f	8b 4d ec	 mov	 ecx, DWORD PTR _this$[ebp]
  00062	8b 42 0c	 mov	 eax, DWORD PTR [edx+12]
  00065	33 d2		 xor	 edx, edx
  00067	f7 71 08	 div	 DWORD PTR [ecx+8]
  0006a	83 c2 01	 add	 edx, 1
  0006d	89 55 f0	 mov	 DWORD PTR _nBucket$201846[ebp], edx

; 1663 : 		  nBucket < m_nHashTableSize; nBucket++)

  00070	eb 09		 jmp	 SHORT $L201847
$L201848:
  00072	8b 55 f0	 mov	 edx, DWORD PTR _nBucket$201846[ebp]
  00075	83 c2 01	 add	 edx, 1
  00078	89 55 f0	 mov	 DWORD PTR _nBucket$201846[ebp], edx
$L201847:
  0007b	8b 45 ec	 mov	 eax, DWORD PTR _this$[ebp]
  0007e	8b 4d f0	 mov	 ecx, DWORD PTR _nBucket$201846[ebp]
  00081	3b 48 08	 cmp	 ecx, DWORD PTR [eax+8]
  00084	73 19		 jae	 SHORT $L201845

; 1664 : 			if ((pAssocNext = m_pHashTable[nBucket]) != NULL)

  00086	8b 55 ec	 mov	 edx, DWORD PTR _this$[ebp]
  00089	8b 42 04	 mov	 eax, DWORD PTR [edx+4]
  0008c	8b 4d f0	 mov	 ecx, DWORD PTR _nBucket$201846[ebp]
  0008f	8b 14 88	 mov	 edx, DWORD PTR [eax+ecx*4]
  00092	89 55 fc	 mov	 DWORD PTR _pAssocNext$[ebp], edx
  00095	83 7d fc 00	 cmp	 DWORD PTR _pAssocNext$[ebp], 0
  00099	74 02		 je	 SHORT $L201850

; 1665 : 				break;

  0009b	eb 02		 jmp	 SHORT $L201845
$L201850:

; 1666 : 	}

  0009d	eb d3		 jmp	 SHORT $L201848
$L201845:

; 1667 : 
; 1668 : 	rNextPosition = (POSITION) pAssocNext;

  0009f	8b 45 08	 mov	 eax, DWORD PTR _rNextPosition$[ebp]
  000a2	8b 4d fc	 mov	 ecx, DWORD PTR _pAssocNext$[ebp]
  000a5	89 08		 mov	 DWORD PTR [eax], ecx

; 1669 : 
; 1670 : 	// fill in return data
; 1671 : 	rKey = pAssocRet->key;

  000a7	8b 55 f8	 mov	 edx, DWORD PTR _pAssocRet$[ebp]
  000aa	52		 push	 edx
  000ab	8b 4d 0c	 mov	 ecx, DWORD PTR _rKey$[ebp]
  000ae	ff 15 00 00 00
	00		 call	 DWORD PTR __imp_??4?$CStringT@DV?$StrTraitMFC_DLL@DV?$ChTraitsCRT@D@ATL@@@@@ATL@@QAEAAV01@ABV01@@Z

; 1672 : 	rValue = pAssocRet->value;

  000b4	8b 45 f8	 mov	 eax, DWORD PTR _pAssocRet$[ebp]
  000b7	83 c0 04	 add	 eax, 4
  000ba	50		 push	 eax
  000bb	8b 4d 10	 mov	 ecx, DWORD PTR _rValue$[ebp]
  000be	e8 00 00 00 00	 call	 ??4CPaneBase@ETSLayoutMgr@@QAEXABV01@@Z ; ETSLayoutMgr::CPaneBase::operator=

; 1673 : }

  000c3	8b e5		 mov	 esp, ebp
  000c5	5d		 pop	 ebp
  000c6	c2 0c 00	 ret	 12			; 0000000cH
?GetNextAssoc@?$CMap@V?$CStringT@DV?$StrTraitMFC_DLL@DV?$ChTraitsCRT@D@ATL@@@@@ATL@@PBDVCPaneBase@ETSLayoutMgr@@V34@@@QBEXAAPAU__POSITION@@AAV?$CStringT@DV?$StrTraitMFC_DLL@DV?$ChTraitsCRT@D@ATL@@@@@ATL@@AAVCPaneBase@ETSLayoutMgr@@@Z ENDP ; CMap<ATL::CStringT<char,StrTraitMFC_DLL<char,ATL::ChTraitsCRT<char> > >,char const *,ETSLayoutMgr::CPaneBase,ETSLayoutMgr::CPaneBase>::GetNextAssoc
; Function compile flags: /Odt
; File d:\program files (x86)\microsoft visual studio .net 2003\vc7\atlmfc\include\atltypes.inl
_TEXT	ENDS
;	COMDAT ?InflateRect@CRect@@QAEXHHHH@Z
_TEXT	SEGMENT
_this$ = -4						; size = 4
_l$ = 8							; size = 4
_t$ = 12						; size = 4
_r$ = 16						; size = 4
_b$ = 20						; size = 4
?InflateRect@CRect@@QAEXHHHH@Z PROC NEAR		; CRect::InflateRect, COMDAT
; _this$ = ecx

; 255  : 	{

  00000	55		 push	 ebp
  00001	8b ec		 mov	 ebp, esp
  00003	51		 push	 ecx
  00004	89 4d fc	 mov	 DWORD PTR _this$[ebp], ecx

; 256  : 		left -= l;			top -= t;

  00007	8b 45 fc	 mov	 eax, DWORD PTR _this$[ebp]
  0000a	8b 08		 mov	 ecx, DWORD PTR [eax]
  0000c	2b 4d 08	 sub	 ecx, DWORD PTR _l$[ebp]
  0000f	8b 55 fc	 mov	 edx, DWORD PTR _this$[ebp]
  00012	89 0a		 mov	 DWORD PTR [edx], ecx
  00014	8b 45 fc	 mov	 eax, DWORD PTR _this$[ebp]
  00017	8b 48 04	 mov	 ecx, DWORD PTR [eax+4]
  0001a	2b 4d 0c	 sub	 ecx, DWORD PTR _t$[ebp]
  0001d	8b 55 fc	 mov	 edx, DWORD PTR _this$[ebp]
  00020	89 4a 04	 mov	 DWORD PTR [edx+4], ecx

; 257  : 		right += r;			bottom += b;

  00023	8b 45 fc	 mov	 eax, DWORD PTR _this$[ebp]
  00026	8b 48 08	 mov	 ecx, DWORD PTR [eax+8]
  00029	03 4d 10	 add	 ecx, DWORD PTR _r$[ebp]
  0002c	8b 55 fc	 mov	 edx, DWORD PTR _this$[ebp]
  0002f	89 4a 08	 mov	 DWORD PTR [edx+8], ecx
  00032	8b 45 fc	 mov	 eax, DWORD PTR _this$[ebp]
  00035	8b 48 0c	 mov	 ecx, DWORD PTR [eax+12]
  00038	03 4d 14	 add	 ecx, DWORD PTR _b$[ebp]
  0003b	8b 55 fc	 mov	 edx, DWORD PTR _this$[ebp]
  0003e	89 4a 0c	 mov	 DWORD PTR [edx+12], ecx

; 258  : 	}

  00041	8b e5		 mov	 esp, ebp
  00043	5d		 pop	 ebp
  00044	c2 10 00	 ret	 16			; 00000010H
?InflateRect@CRect@@QAEXHHHH@Z ENDP			; CRect::InflateRect
_TEXT	ENDS
PUBLIC	??2@YAPAXIPAX@Z					; operator new
PUBLIC	??3@YAXPAX0@Z					; operator delete
PUBLIC	??_GCPaneBase@ETSLayoutMgr@@QAEPAXI@Z		; ETSLayoutMgr::CPaneBase::`scalar deleting destructor'
EXTRN	??_U@YAPAXI@Z:NEAR				; operator new[]
EXTRN	??_V@YAXPAX@Z:NEAR				; operator delete[]
EXTRN	?AfxThrowInvalidArgException@@YGXXZ:NEAR	; AfxThrowInvalidArgException
EXTRN	_memcpy:NEAR
EXTRN	_memset:NEAR
;	COMDAT xdata$x
; File d:\program files (x86)\microsoft visual studio .net 2003\vc7\atlmfc\include\afxtempl.h
xdata$x	SEGMENT
$T203556 DD	0ffffffffH
	DD	FLAT:$L203550
	DD	0ffffffffH
	DD	FLAT:$L203551
	DD	0ffffffffH
	DD	FLAT:$L203552
$T203554 DD	019930520H
	DD	03H
	DD	FLAT:$T203556
	DD	2 DUP(00H)
	DD	2 DUP(00H)
; Function compile flags: /Odt
xdata$x	ENDS
;	COMDAT ?SetSize@?$CArray@VCPaneBase@ETSLayoutMgr@@V12@@@QAEXHH@Z
_TEXT	SEGMENT
tv258 = -112						; size = 4
tv208 = -108						; size = 4
tv209 = -104						; size = 4
tv188 = -100						; size = 4
tv147 = -96						; size = 4
tv88 = -92						; size = 4
_this$ = -88						; size = 4
$T203549 = -84						; size = 4
$T203546 = -80						; size = 4
$T203545 = -76						; size = 4
$T203544 = -72						; size = 4
$T203537 = -68						; size = 4
$T203536 = -64						; size = 4
$T203533 = -60						; size = 4
$T203532 = -56						; size = 4
$T203531 = -52						; size = 4
$T203528 = -48						; size = 4
_i$202162 = -44						; size = 4
_pNewData$202150 = -40					; size = 4
_nNewMax$202144 = -36					; size = 4
_i$202138 = -32						; size = 4
_i$202126 = -28						; size = 4
_i$202110 = -24						; size = 4
_nAllocSize$202101 = -20				; size = 4
_i$202092 = -16						; size = 4
__$EHRec$ = -12						; size = 12
_nNewSize$ = 8						; size = 4
_nGrowBy$ = 12						; size = 4
?SetSize@?$CArray@VCPaneBase@ETSLayoutMgr@@V12@@@QAEXHH@Z PROC NEAR ; CArray<ETSLayoutMgr::CPaneBase,ETSLayoutMgr::CPaneBase>::SetSize, COMDAT
; _this$ = ecx

; 369  : {

  00000	55		 push	 ebp
  00001	8b ec		 mov	 ebp, esp
  00003	6a ff		 push	 -1
  00005	68 00 00 00 00	 push	 __ehhandler$?SetSize@?$CArray@VCPaneBase@ETSLayoutMgr@@V12@@@QAEXHH@Z
  0000a	64 a1 00 00 00
	00		 mov	 eax, DWORD PTR fs:__except_list
  00010	50		 push	 eax
  00011	64 89 25 00 00
	00 00		 mov	 DWORD PTR fs:__except_list, esp
  00018	83 ec 64	 sub	 esp, 100		; 00000064H
  0001b	89 4d a8	 mov	 DWORD PTR _this$[ebp], ecx

; 370  : 	ASSERT_VALID(this);
; 371  : 	ASSERT(nNewSize >= 0);
; 372  : 
; 373  : 	if(nNewSize < 0 )

  0001e	83 7d 08 00	 cmp	 DWORD PTR _nNewSize$[ebp], 0
  00022	7d 05		 jge	 SHORT $L202088

; 374  : 		AfxThrowInvalidArgException();

  00024	e8 00 00 00 00	 call	 ?AfxThrowInvalidArgException@@YGXXZ ; AfxThrowInvalidArgException
$L202088:

; 375  : 
; 376  : 	if (nGrowBy >= 0)

  00029	83 7d 0c 00	 cmp	 DWORD PTR _nGrowBy$[ebp], 0
  0002d	7c 09		 jl	 SHORT $L202089

; 377  : 		m_nGrowBy = nGrowBy;  // set new size

  0002f	8b 45 a8	 mov	 eax, DWORD PTR _this$[ebp]
  00032	8b 4d 0c	 mov	 ecx, DWORD PTR _nGrowBy$[ebp]
  00035	89 48 10	 mov	 DWORD PTR [eax+16], ecx
$L202089:

; 378  : 
; 379  : 	if (nNewSize == 0)

  00038	83 7d 08 00	 cmp	 DWORD PTR _nNewSize$[ebp], 0
  0003c	75 73		 jne	 SHORT $L202090

; 380  : 	{
; 381  : 		// shrink to nothing
; 382  : 		if (m_pData != NULL)

  0003e	8b 55 a8	 mov	 edx, DWORD PTR _this$[ebp]
  00041	83 7a 04 00	 cmp	 DWORD PTR [edx+4], 0
  00045	74 51		 je	 SHORT $L202091

; 383  : 		{
; 384  : 			for( int i = 0; i < m_nSize; i++ )

  00047	c7 45 f0 00 00
	00 00		 mov	 DWORD PTR _i$202092[ebp], 0
  0004e	eb 09		 jmp	 SHORT $L202093
$L202094:
  00050	8b 45 f0	 mov	 eax, DWORD PTR _i$202092[ebp]
  00053	83 c0 01	 add	 eax, 1
  00056	89 45 f0	 mov	 DWORD PTR _i$202092[ebp], eax
$L202093:
  00059	8b 4d a8	 mov	 ecx, DWORD PTR _this$[ebp]
  0005c	8b 55 f0	 mov	 edx, DWORD PTR _i$202092[ebp]
  0005f	3b 51 08	 cmp	 edx, DWORD PTR [ecx+8]
  00062	7d 15		 jge	 SHORT $L202095

; 385  : 				(m_pData + i)->~TYPE();

  00064	6a 00		 push	 0
  00066	8b 45 a8	 mov	 eax, DWORD PTR _this$[ebp]
  00069	8b 48 04	 mov	 ecx, DWORD PTR [eax+4]
  0006c	8b 55 f0	 mov	 edx, DWORD PTR _i$202092[ebp]
  0006f	8d 0c 91	 lea	 ecx, DWORD PTR [ecx+edx*4]
  00072	e8 00 00 00 00	 call	 ??_GCPaneBase@ETSLayoutMgr@@QAEPAXI@Z
  00077	eb d7		 jmp	 SHORT $L202094
$L202095:

; 386  : 			delete[] (BYTE*)m_pData;

  00079	8b 45 a8	 mov	 eax, DWORD PTR _this$[ebp]
  0007c	8b 48 04	 mov	 ecx, DWORD PTR [eax+4]
  0007f	89 4d d0	 mov	 DWORD PTR $T203528[ebp], ecx
  00082	8b 55 d0	 mov	 edx, DWORD PTR $T203528[ebp]
  00085	52		 push	 edx
  00086	e8 00 00 00 00	 call	 ??_V@YAXPAX@Z		; operator delete[]
  0008b	83 c4 04	 add	 esp, 4

; 387  : 			m_pData = NULL;

  0008e	8b 45 a8	 mov	 eax, DWORD PTR _this$[ebp]
  00091	c7 40 04 00 00
	00 00		 mov	 DWORD PTR [eax+4], 0
$L202091:

; 388  : 		}
; 389  : 		m_nSize = m_nMaxSize = 0;

  00098	8b 4d a8	 mov	 ecx, DWORD PTR _this$[ebp]
  0009b	c7 41 0c 00 00
	00 00		 mov	 DWORD PTR [ecx+12], 0
  000a2	8b 55 a8	 mov	 edx, DWORD PTR _this$[ebp]
  000a5	c7 42 08 00 00
	00 00		 mov	 DWORD PTR [edx+8], 0

; 390  : 	}
; 391  : 	else if (m_pData == NULL)

  000ac	e9 6a 03 00 00	 jmp	 $L203527
$L202090:
  000b1	8b 45 a8	 mov	 eax, DWORD PTR _this$[ebp]
  000b4	83 78 04 00	 cmp	 DWORD PTR [eax+4], 0
  000b8	0f 85 d0 00 00
	00		 jne	 $L202099

; 392  : 	{
; 393  : 		// create buffer big enough to hold number of requested elements or
; 394  : 		// m_nGrowBy elements, whichever is larger.
; 395  : #ifdef SIZE_T_MAX
; 396  : 		ASSERT(nNewSize <= SIZE_T_MAX/sizeof(TYPE));    // no overflow
; 397  : #endif
; 398  : 		size_t nAllocSize = max(nNewSize, m_nGrowBy);

  000be	8b 4d a8	 mov	 ecx, DWORD PTR _this$[ebp]
  000c1	8b 55 08	 mov	 edx, DWORD PTR _nNewSize$[ebp]
  000c4	3b 51 10	 cmp	 edx, DWORD PTR [ecx+16]
  000c7	7e 08		 jle	 SHORT $L203529
  000c9	8b 45 08	 mov	 eax, DWORD PTR _nNewSize$[ebp]
  000cc	89 45 a4	 mov	 DWORD PTR tv88[ebp], eax
  000cf	eb 09		 jmp	 SHORT $L203530
$L203529:
  000d1	8b 4d a8	 mov	 ecx, DWORD PTR _this$[ebp]
  000d4	8b 51 10	 mov	 edx, DWORD PTR [ecx+16]
  000d7	89 55 a4	 mov	 DWORD PTR tv88[ebp], edx
$L203530:
  000da	8b 45 a4	 mov	 eax, DWORD PTR tv88[ebp]
  000dd	89 45 ec	 mov	 DWORD PTR _nAllocSize$202101[ebp], eax

; 399  : 		m_pData = (TYPE*) new BYTE[(size_t)nAllocSize * sizeof(TYPE)];

  000e0	8b 4d ec	 mov	 ecx, DWORD PTR _nAllocSize$202101[ebp]
  000e3	c1 e1 02	 shl	 ecx, 2
  000e6	51		 push	 ecx
  000e7	e8 00 00 00 00	 call	 ??_U@YAPAXI@Z		; operator new[]
  000ec	83 c4 04	 add	 esp, 4
  000ef	89 45 cc	 mov	 DWORD PTR $T203531[ebp], eax
  000f2	8b 55 a8	 mov	 edx, DWORD PTR _this$[ebp]
  000f5	8b 45 cc	 mov	 eax, DWORD PTR $T203531[ebp]
  000f8	89 42 04	 mov	 DWORD PTR [edx+4], eax

; 400  : 		memset((void*)m_pData, 0, (size_t)nAllocSize * sizeof(TYPE));

  000fb	8b 4d ec	 mov	 ecx, DWORD PTR _nAllocSize$202101[ebp]
  000fe	c1 e1 02	 shl	 ecx, 2
  00101	51		 push	 ecx
  00102	6a 00		 push	 0
  00104	8b 55 a8	 mov	 edx, DWORD PTR _this$[ebp]
  00107	8b 42 04	 mov	 eax, DWORD PTR [edx+4]
  0010a	50		 push	 eax
  0010b	e8 00 00 00 00	 call	 _memset
  00110	83 c4 0c	 add	 esp, 12			; 0000000cH

; 401  : 		for( int i = 0; i < nNewSize; i++ )

  00113	c7 45 e8 00 00
	00 00		 mov	 DWORD PTR _i$202110[ebp], 0
  0011a	eb 09		 jmp	 SHORT $L202111
$L202112:
  0011c	8b 4d e8	 mov	 ecx, DWORD PTR _i$202110[ebp]
  0011f	83 c1 01	 add	 ecx, 1
  00122	89 4d e8	 mov	 DWORD PTR _i$202110[ebp], ecx
$L202111:
  00125	8b 55 e8	 mov	 edx, DWORD PTR _i$202110[ebp]
  00128	3b 55 08	 cmp	 edx, DWORD PTR _nNewSize$[ebp]
  0012b	7d 4a		 jge	 SHORT $L202113

; 402  : #pragma push_macro("new")
; 403  : #undef new
; 404  : 			::new( (void*)( m_pData + i ) ) TYPE;

  0012d	8b 45 a8	 mov	 eax, DWORD PTR _this$[ebp]
  00130	8b 48 04	 mov	 ecx, DWORD PTR [eax+4]
  00133	8b 55 e8	 mov	 edx, DWORD PTR _i$202110[ebp]
  00136	8d 04 91	 lea	 eax, DWORD PTR [ecx+edx*4]
  00139	50		 push	 eax
  0013a	6a 04		 push	 4
  0013c	e8 00 00 00 00	 call	 ??2@YAPAXIPAX@Z		; operator new
  00141	83 c4 08	 add	 esp, 8
  00144	89 45 c4	 mov	 DWORD PTR $T203533[ebp], eax
  00147	c7 45 fc 00 00
	00 00		 mov	 DWORD PTR __$EHRec$[ebp+8], 0
  0014e	83 7d c4 00	 cmp	 DWORD PTR $T203533[ebp], 0
  00152	74 0d		 je	 SHORT $L203534
  00154	8b 4d c4	 mov	 ecx, DWORD PTR $T203533[ebp]
  00157	e8 00 00 00 00	 call	 ??0CPaneBase@ETSLayoutMgr@@QAE@XZ ; ETSLayoutMgr::CPaneBase::CPaneBase
  0015c	89 45 a0	 mov	 DWORD PTR tv147[ebp], eax
  0015f	eb 07		 jmp	 SHORT $L203535
$L203534:
  00161	c7 45 a0 00 00
	00 00		 mov	 DWORD PTR tv147[ebp], 0
$L203535:
  00168	8b 4d a0	 mov	 ecx, DWORD PTR tv147[ebp]
  0016b	89 4d c8	 mov	 DWORD PTR $T203532[ebp], ecx
  0016e	c7 45 fc ff ff
	ff ff		 mov	 DWORD PTR __$EHRec$[ebp+8], -1
  00175	eb a5		 jmp	 SHORT $L202112
$L202113:

; 405  : #pragma pop_macro("new")
; 406  : 		m_nSize = nNewSize;

  00177	8b 55 a8	 mov	 edx, DWORD PTR _this$[ebp]
  0017a	8b 45 08	 mov	 eax, DWORD PTR _nNewSize$[ebp]
  0017d	89 42 08	 mov	 DWORD PTR [edx+8], eax

; 407  : 		m_nMaxSize = nAllocSize;

  00180	8b 4d a8	 mov	 ecx, DWORD PTR _this$[ebp]
  00183	8b 55 ec	 mov	 edx, DWORD PTR _nAllocSize$202101[ebp]
  00186	89 51 0c	 mov	 DWORD PTR [ecx+12], edx

; 408  : 	}
; 409  : 	else if (nNewSize <= m_nMaxSize)

  00189	e9 8d 02 00 00	 jmp	 $L203527
$L202099:
  0018e	8b 45 a8	 mov	 eax, DWORD PTR _this$[ebp]
  00191	8b 4d 08	 mov	 ecx, DWORD PTR _nNewSize$[ebp]
  00194	3b 48 0c	 cmp	 ecx, DWORD PTR [eax+12]
  00197	0f 8f ff 00 00
	00		 jg	 $L202121

; 410  : 	{
; 411  : 		// it fits
; 412  : 		if (nNewSize > m_nSize)

  0019d	8b 55 a8	 mov	 edx, DWORD PTR _this$[ebp]
  001a0	8b 45 08	 mov	 eax, DWORD PTR _nNewSize$[ebp]
  001a3	3b 42 08	 cmp	 eax, DWORD PTR [edx+8]
  001a6	0f 8e 9c 00 00
	00		 jle	 $L202122

; 413  : 		{
; 414  : 			// initialize the new elements
; 415  : 			memset((void*)(m_pData + m_nSize), 0, (size_t)(nNewSize-m_nSize) * sizeof(TYPE));

  001ac	8b 4d a8	 mov	 ecx, DWORD PTR _this$[ebp]
  001af	8b 55 08	 mov	 edx, DWORD PTR _nNewSize$[ebp]
  001b2	2b 51 08	 sub	 edx, DWORD PTR [ecx+8]
  001b5	c1 e2 02	 shl	 edx, 2
  001b8	52		 push	 edx
  001b9	6a 00		 push	 0
  001bb	8b 45 a8	 mov	 eax, DWORD PTR _this$[ebp]
  001be	8b 48 08	 mov	 ecx, DWORD PTR [eax+8]
  001c1	8b 55 a8	 mov	 edx, DWORD PTR _this$[ebp]
  001c4	8b 42 04	 mov	 eax, DWORD PTR [edx+4]
  001c7	8d 0c 88	 lea	 ecx, DWORD PTR [eax+ecx*4]
  001ca	51		 push	 ecx
  001cb	e8 00 00 00 00	 call	 _memset
  001d0	83 c4 0c	 add	 esp, 12			; 0000000cH

; 416  : 			for( int i = 0; i < nNewSize-m_nSize; i++ )

  001d3	c7 45 e4 00 00
	00 00		 mov	 DWORD PTR _i$202126[ebp], 0
  001da	eb 09		 jmp	 SHORT $L202127
$L202128:
  001dc	8b 55 e4	 mov	 edx, DWORD PTR _i$202126[ebp]
  001df	83 c2 01	 add	 edx, 1
  001e2	89 55 e4	 mov	 DWORD PTR _i$202126[ebp], edx
$L202127:
  001e5	8b 45 a8	 mov	 eax, DWORD PTR _this$[ebp]
  001e8	8b 4d 08	 mov	 ecx, DWORD PTR _nNewSize$[ebp]
  001eb	2b 48 08	 sub	 ecx, DWORD PTR [eax+8]
  001ee	39 4d e4	 cmp	 DWORD PTR _i$202126[ebp], ecx
  001f1	7d 53		 jge	 SHORT $L202129

; 417  : #pragma push_macro("new")
; 418  : #undef new
; 419  : 				::new( (void*)( m_pData + m_nSize + i ) ) TYPE;

  001f3	8b 55 a8	 mov	 edx, DWORD PTR _this$[ebp]
  001f6	8b 42 08	 mov	 eax, DWORD PTR [edx+8]
  001f9	8b 4d a8	 mov	 ecx, DWORD PTR _this$[ebp]
  001fc	8b 51 04	 mov	 edx, DWORD PTR [ecx+4]
  001ff	8d 04 82	 lea	 eax, DWORD PTR [edx+eax*4]
  00202	8b 4d e4	 mov	 ecx, DWORD PTR _i$202126[ebp]
  00205	8d 14 88	 lea	 edx, DWORD PTR [eax+ecx*4]
  00208	52		 push	 edx
  00209	6a 04		 push	 4
  0020b	e8 00 00 00 00	 call	 ??2@YAPAXIPAX@Z		; operator new
  00210	83 c4 08	 add	 esp, 8
  00213	89 45 bc	 mov	 DWORD PTR $T203537[ebp], eax
  00216	c7 45 fc 01 00
	00 00		 mov	 DWORD PTR __$EHRec$[ebp+8], 1
  0021d	83 7d bc 00	 cmp	 DWORD PTR $T203537[ebp], 0
  00221	74 0d		 je	 SHORT $L203538
  00223	8b 4d bc	 mov	 ecx, DWORD PTR $T203537[ebp]
  00226	e8 00 00 00 00	 call	 ??0CPaneBase@ETSLayoutMgr@@QAE@XZ ; ETSLayoutMgr::CPaneBase::CPaneBase
  0022b	89 45 9c	 mov	 DWORD PTR tv188[ebp], eax
  0022e	eb 07		 jmp	 SHORT $L203539
$L203538:
  00230	c7 45 9c 00 00
	00 00		 mov	 DWORD PTR tv188[ebp], 0
$L203539:
  00237	8b 45 9c	 mov	 eax, DWORD PTR tv188[ebp]
  0023a	89 45 c0	 mov	 DWORD PTR $T203536[ebp], eax
  0023d	c7 45 fc ff ff
	ff ff		 mov	 DWORD PTR __$EHRec$[ebp+8], -1
  00244	eb 96		 jmp	 SHORT $L202128
$L202129:

; 420  : #pragma pop_macro("new")
; 421  : 		}
; 422  : 		else if (m_nSize > nNewSize)

  00246	eb 46		 jmp	 SHORT $L202136
$L202122:
  00248	8b 4d a8	 mov	 ecx, DWORD PTR _this$[ebp]
  0024b	8b 51 08	 mov	 edx, DWORD PTR [ecx+8]
  0024e	3b 55 08	 cmp	 edx, DWORD PTR _nNewSize$[ebp]
  00251	7e 3b		 jle	 SHORT $L202136

; 423  : 		{
; 424  : 			// destroy the old elements
; 425  : 			for( int i = 0; i < m_nSize-nNewSize; i++ )

  00253	c7 45 e0 00 00
	00 00		 mov	 DWORD PTR _i$202138[ebp], 0
  0025a	eb 09		 jmp	 SHORT $L202139
$L202140:
  0025c	8b 45 e0	 mov	 eax, DWORD PTR _i$202138[ebp]
  0025f	83 c0 01	 add	 eax, 1
  00262	89 45 e0	 mov	 DWORD PTR _i$202138[ebp], eax
$L202139:
  00265	8b 4d a8	 mov	 ecx, DWORD PTR _this$[ebp]
  00268	8b 51 08	 mov	 edx, DWORD PTR [ecx+8]
  0026b	2b 55 08	 sub	 edx, DWORD PTR _nNewSize$[ebp]
  0026e	39 55 e0	 cmp	 DWORD PTR _i$202138[ebp], edx
  00271	7d 1b		 jge	 SHORT $L202136

; 426  : 				(m_pData + nNewSize + i)->~TYPE();

  00273	6a 00		 push	 0
  00275	8b 45 a8	 mov	 eax, DWORD PTR _this$[ebp]
  00278	8b 48 04	 mov	 ecx, DWORD PTR [eax+4]
  0027b	8b 55 08	 mov	 edx, DWORD PTR _nNewSize$[ebp]
  0027e	8d 04 91	 lea	 eax, DWORD PTR [ecx+edx*4]
  00281	8b 4d e0	 mov	 ecx, DWORD PTR _i$202138[ebp]
  00284	8d 0c 88	 lea	 ecx, DWORD PTR [eax+ecx*4]
  00287	e8 00 00 00 00	 call	 ??_GCPaneBase@ETSLayoutMgr@@QAEPAXI@Z
  0028c	eb ce		 jmp	 SHORT $L202140
$L202136:

; 427  : 		}
; 428  : 		m_nSize = nNewSize;

  0028e	8b 55 a8	 mov	 edx, DWORD PTR _this$[ebp]
  00291	8b 45 08	 mov	 eax, DWORD PTR _nNewSize$[ebp]
  00294	89 42 08	 mov	 DWORD PTR [edx+8], eax

; 429  : 	}
; 430  : 	else

  00297	e9 7f 01 00 00	 jmp	 $L203527
$L202121:

; 431  : 	{
; 432  : 		// otherwise, grow array
; 433  : 		nGrowBy = m_nGrowBy;

  0029c	8b 4d a8	 mov	 ecx, DWORD PTR _this$[ebp]
  0029f	8b 51 10	 mov	 edx, DWORD PTR [ecx+16]
  002a2	89 55 0c	 mov	 DWORD PTR _nGrowBy$[ebp], edx

; 434  : 		if (nGrowBy == 0)

  002a5	83 7d 0c 00	 cmp	 DWORD PTR _nGrowBy$[ebp], 0
  002a9	75 45		 jne	 SHORT $L202143

; 435  : 		{
; 436  : 			// heuristically determine growth when nGrowBy == 0
; 437  : 			//  (this avoids heap fragmentation in many situations)
; 438  : 			nGrowBy = m_nSize / 8;

  002ab	8b 45 a8	 mov	 eax, DWORD PTR _this$[ebp]
  002ae	8b 40 08	 mov	 eax, DWORD PTR [eax+8]
  002b1	99		 cdq
  002b2	83 e2 07	 and	 edx, 7
  002b5	03 c2		 add	 eax, edx
  002b7	c1 f8 03	 sar	 eax, 3
  002ba	89 45 0c	 mov	 DWORD PTR _nGrowBy$[ebp], eax

; 439  : 			nGrowBy = (nGrowBy < 4) ? 4 : ((nGrowBy > 1024) ? 1024 : nGrowBy);

  002bd	83 7d 0c 04	 cmp	 DWORD PTR _nGrowBy$[ebp], 4
  002c1	7d 09		 jge	 SHORT $L203542
  002c3	c7 45 98 04 00
	00 00		 mov	 DWORD PTR tv209[ebp], 4
  002ca	eb 1e		 jmp	 SHORT $L203543
$L203542:
  002cc	81 7d 0c 00 04
	00 00		 cmp	 DWORD PTR _nGrowBy$[ebp], 1024 ; 00000400H
  002d3	7e 09		 jle	 SHORT $L203540
  002d5	c7 45 94 00 04
	00 00		 mov	 DWORD PTR tv208[ebp], 1024 ; 00000400H
  002dc	eb 06		 jmp	 SHORT $L203541
$L203540:
  002de	8b 4d 0c	 mov	 ecx, DWORD PTR _nGrowBy$[ebp]
  002e1	89 4d 94	 mov	 DWORD PTR tv208[ebp], ecx
$L203541:
  002e4	8b 55 94	 mov	 edx, DWORD PTR tv208[ebp]
  002e7	89 55 98	 mov	 DWORD PTR tv209[ebp], edx
$L203543:
  002ea	8b 45 98	 mov	 eax, DWORD PTR tv209[ebp]
  002ed	89 45 0c	 mov	 DWORD PTR _nGrowBy$[ebp], eax
$L202143:

; 440  : 		}
; 441  : 		INT_PTR nNewMax;
; 442  : 		if (nNewSize < m_nMaxSize + nGrowBy)

  002f0	8b 4d a8	 mov	 ecx, DWORD PTR _this$[ebp]
  002f3	8b 51 0c	 mov	 edx, DWORD PTR [ecx+12]
  002f6	03 55 0c	 add	 edx, DWORD PTR _nGrowBy$[ebp]
  002f9	39 55 08	 cmp	 DWORD PTR _nNewSize$[ebp], edx
  002fc	7d 0e		 jge	 SHORT $L202145

; 443  : 			nNewMax = m_nMaxSize + nGrowBy;  // granularity

  002fe	8b 45 a8	 mov	 eax, DWORD PTR _this$[ebp]
  00301	8b 48 0c	 mov	 ecx, DWORD PTR [eax+12]
  00304	03 4d 0c	 add	 ecx, DWORD PTR _nGrowBy$[ebp]
  00307	89 4d dc	 mov	 DWORD PTR _nNewMax$202144[ebp], ecx

; 444  : 		else

  0030a	eb 06		 jmp	 SHORT $L202146
$L202145:

; 445  : 			nNewMax = nNewSize;  // no slush

  0030c	8b 55 08	 mov	 edx, DWORD PTR _nNewSize$[ebp]
  0030f	89 55 dc	 mov	 DWORD PTR _nNewMax$202144[ebp], edx
$L202146:

; 446  : 
; 447  : 		ASSERT(nNewMax >= m_nMaxSize);  // no wrap around
; 448  : 		
; 449  : 		if(nNewMax  < m_nMaxSize)

  00312	8b 45 a8	 mov	 eax, DWORD PTR _this$[ebp]
  00315	8b 4d dc	 mov	 ecx, DWORD PTR _nNewMax$202144[ebp]
  00318	3b 48 0c	 cmp	 ecx, DWORD PTR [eax+12]
  0031b	7d 05		 jge	 SHORT $L202148

; 450  : 			AfxThrowInvalidArgException();

  0031d	e8 00 00 00 00	 call	 ?AfxThrowInvalidArgException@@YGXXZ ; AfxThrowInvalidArgException
$L202148:

; 451  : 
; 452  : #ifdef SIZE_T_MAX
; 453  : 		ASSERT(nNewMax <= SIZE_T_MAX/sizeof(TYPE)); // no overflow
; 454  : #endif
; 455  : 		TYPE* pNewData = (TYPE*) new BYTE[(size_t)nNewMax * sizeof(TYPE)];

  00322	8b 55 dc	 mov	 edx, DWORD PTR _nNewMax$202144[ebp]
  00325	c1 e2 02	 shl	 edx, 2
  00328	52		 push	 edx
  00329	e8 00 00 00 00	 call	 ??_U@YAPAXI@Z		; operator new[]
  0032e	83 c4 04	 add	 esp, 4
  00331	89 45 b8	 mov	 DWORD PTR $T203544[ebp], eax
  00334	8b 45 b8	 mov	 eax, DWORD PTR $T203544[ebp]
  00337	89 45 d8	 mov	 DWORD PTR _pNewData$202150[ebp], eax

; 456  : 
; 457  : 		// copy new data from old
; 458  : 		memcpy(pNewData, m_pData, (size_t)m_nSize * sizeof(TYPE));

  0033a	8b 4d a8	 mov	 ecx, DWORD PTR _this$[ebp]
  0033d	8b 51 08	 mov	 edx, DWORD PTR [ecx+8]
  00340	c1 e2 02	 shl	 edx, 2
  00343	52		 push	 edx
  00344	8b 45 a8	 mov	 eax, DWORD PTR _this$[ebp]
  00347	8b 48 04	 mov	 ecx, DWORD PTR [eax+4]
  0034a	51		 push	 ecx
  0034b	8b 55 d8	 mov	 edx, DWORD PTR _pNewData$202150[ebp]
  0034e	52		 push	 edx
  0034f	e8 00 00 00 00	 call	 _memcpy
  00354	83 c4 0c	 add	 esp, 12			; 0000000cH

; 459  : 
; 460  : 		// construct remaining elements
; 461  : 		ASSERT(nNewSize > m_nSize);
; 462  : 		memset((void*)(pNewData + m_nSize), 0, (size_t)(nNewSize-m_nSize) * sizeof(TYPE));

  00357	8b 45 a8	 mov	 eax, DWORD PTR _this$[ebp]
  0035a	8b 4d 08	 mov	 ecx, DWORD PTR _nNewSize$[ebp]
  0035d	2b 48 08	 sub	 ecx, DWORD PTR [eax+8]
  00360	c1 e1 02	 shl	 ecx, 2
  00363	51		 push	 ecx
  00364	6a 00		 push	 0
  00366	8b 55 a8	 mov	 edx, DWORD PTR _this$[ebp]
  00369	8b 42 08	 mov	 eax, DWORD PTR [edx+8]
  0036c	8b 4d d8	 mov	 ecx, DWORD PTR _pNewData$202150[ebp]
  0036f	8d 14 81	 lea	 edx, DWORD PTR [ecx+eax*4]
  00372	52		 push	 edx
  00373	e8 00 00 00 00	 call	 _memset
  00378	83 c4 0c	 add	 esp, 12			; 0000000cH

; 463  : 		for( int i = 0; i < nNewSize-m_nSize; i++ )

  0037b	c7 45 d4 00 00
	00 00		 mov	 DWORD PTR _i$202162[ebp], 0
  00382	eb 09		 jmp	 SHORT $L202163
$L202164:
  00384	8b 45 d4	 mov	 eax, DWORD PTR _i$202162[ebp]
  00387	83 c0 01	 add	 eax, 1
  0038a	89 45 d4	 mov	 DWORD PTR _i$202162[ebp], eax
$L202163:
  0038d	8b 4d a8	 mov	 ecx, DWORD PTR _this$[ebp]
  00390	8b 55 08	 mov	 edx, DWORD PTR _nNewSize$[ebp]
  00393	2b 51 08	 sub	 edx, DWORD PTR [ecx+8]
  00396	39 55 d4	 cmp	 DWORD PTR _i$202162[ebp], edx
  00399	7d 50		 jge	 SHORT $L202165

; 464  : #pragma push_macro("new")
; 465  : #undef new
; 466  : 			::new( (void*)( pNewData + m_nSize + i ) ) TYPE;

  0039b	8b 45 a8	 mov	 eax, DWORD PTR _this$[ebp]
  0039e	8b 48 08	 mov	 ecx, DWORD PTR [eax+8]
  003a1	8b 55 d8	 mov	 edx, DWORD PTR _pNewData$202150[ebp]
  003a4	8d 04 8a	 lea	 eax, DWORD PTR [edx+ecx*4]
  003a7	8b 4d d4	 mov	 ecx, DWORD PTR _i$202162[ebp]
  003aa	8d 14 88	 lea	 edx, DWORD PTR [eax+ecx*4]
  003ad	52		 push	 edx
  003ae	6a 04		 push	 4
  003b0	e8 00 00 00 00	 call	 ??2@YAPAXIPAX@Z		; operator new
  003b5	83 c4 08	 add	 esp, 8
  003b8	89 45 b0	 mov	 DWORD PTR $T203546[ebp], eax
  003bb	c7 45 fc 02 00
	00 00		 mov	 DWORD PTR __$EHRec$[ebp+8], 2
  003c2	83 7d b0 00	 cmp	 DWORD PTR $T203546[ebp], 0
  003c6	74 0d		 je	 SHORT $L203547
  003c8	8b 4d b0	 mov	 ecx, DWORD PTR $T203546[ebp]
  003cb	e8 00 00 00 00	 call	 ??0CPaneBase@ETSLayoutMgr@@QAE@XZ ; ETSLayoutMgr::CPaneBase::CPaneBase
  003d0	89 45 90	 mov	 DWORD PTR tv258[ebp], eax
  003d3	eb 07		 jmp	 SHORT $L203548
$L203547:
  003d5	c7 45 90 00 00
	00 00		 mov	 DWORD PTR tv258[ebp], 0
$L203548:
  003dc	8b 45 90	 mov	 eax, DWORD PTR tv258[ebp]
  003df	89 45 b4	 mov	 DWORD PTR $T203545[ebp], eax
  003e2	c7 45 fc ff ff
	ff ff		 mov	 DWORD PTR __$EHRec$[ebp+8], -1
  003e9	eb 99		 jmp	 SHORT $L202164
$L202165:

; 467  : #pragma pop_macro("new")
; 468  : 
; 469  : 		// get rid of old stuff (note: no destructors called)
; 470  : 		delete[] (BYTE*)m_pData;

  003eb	8b 4d a8	 mov	 ecx, DWORD PTR _this$[ebp]
  003ee	8b 51 04	 mov	 edx, DWORD PTR [ecx+4]
  003f1	89 55 ac	 mov	 DWORD PTR $T203549[ebp], edx
  003f4	8b 45 ac	 mov	 eax, DWORD PTR $T203549[ebp]
  003f7	50		 push	 eax
  003f8	e8 00 00 00 00	 call	 ??_V@YAXPAX@Z		; operator delete[]
  003fd	83 c4 04	 add	 esp, 4

; 471  : 		m_pData = pNewData;

  00400	8b 4d a8	 mov	 ecx, DWORD PTR _this$[ebp]
  00403	8b 55 d8	 mov	 edx, DWORD PTR _pNewData$202150[ebp]
  00406	89 51 04	 mov	 DWORD PTR [ecx+4], edx

; 472  : 		m_nSize = nNewSize;

  00409	8b 45 a8	 mov	 eax, DWORD PTR _this$[ebp]
  0040c	8b 4d 08	 mov	 ecx, DWORD PTR _nNewSize$[ebp]
  0040f	89 48 08	 mov	 DWORD PTR [eax+8], ecx

; 473  : 		m_nMaxSize = nNewMax;

  00412	8b 55 a8	 mov	 edx, DWORD PTR _this$[ebp]
  00415	8b 45 dc	 mov	 eax, DWORD PTR _nNewMax$202144[ebp]
  00418	89 42 0c	 mov	 DWORD PTR [edx+12], eax
$L203527:

; 474  : 	}
; 475  : }

  0041b	8b 4d f4	 mov	 ecx, DWORD PTR __$EHRec$[ebp]
  0041e	64 89 0d 00 00
	00 00		 mov	 DWORD PTR fs:__except_list, ecx
  00425	8b e5		 mov	 esp, ebp
  00427	5d		 pop	 ebp
  00428	c2 08 00	 ret	 8
_TEXT	ENDS
;	COMDAT text$x
text$x	SEGMENT
$L203550:
  00000	8b 45 a8	 mov	 eax, DWORD PTR _this$[ebp]
  00003	8b 48 04	 mov	 ecx, DWORD PTR [eax+4]
  00006	8b 55 e8	 mov	 edx, DWORD PTR _i$202110[ebp]
  00009	8d 04 91	 lea	 eax, DWORD PTR [ecx+edx*4]
  0000c	50		 push	 eax
  0000d	8b 4d c4	 mov	 ecx, DWORD PTR $T203533[ebp]
  00010	51		 push	 ecx
  00011	e8 00 00 00 00	 call	 ??3@YAXPAX0@Z		; operator delete
  00016	83 c4 08	 add	 esp, 8
  00019	c3		 ret	 0
$L203551:
  0001a	8b 45 a8	 mov	 eax, DWORD PTR _this$[ebp]
  0001d	8b 48 08	 mov	 ecx, DWORD PTR [eax+8]
  00020	8b 55 a8	 mov	 edx, DWORD PTR _this$[ebp]
  00023	8b 42 04	 mov	 eax, DWORD PTR [edx+4]
  00026	8d 0c 88	 lea	 ecx, DWORD PTR [eax+ecx*4]
  00029	8b 55 e4	 mov	 edx, DWORD PTR _i$202126[ebp]
  0002c	8d 04 91	 lea	 eax, DWORD PTR [ecx+edx*4]
  0002f	50		 push	 eax
  00030	8b 4d bc	 mov	 ecx, DWORD PTR $T203537[ebp]
  00033	51		 push	 ecx
  00034	e8 00 00 00 00	 call	 ??3@YAXPAX0@Z		; operator delete
  00039	83 c4 08	 add	 esp, 8
  0003c	c3		 ret	 0
$L203552:
  0003d	8b 45 a8	 mov	 eax, DWORD PTR _this$[ebp]
  00040	8b 48 08	 mov	 ecx, DWORD PTR [eax+8]
  00043	8b 55 d8	 mov	 edx, DWORD PTR _pNewData$202150[ebp]
  00046	8d 04 8a	 lea	 eax, DWORD PTR [edx+ecx*4]
  00049	8b 4d d4	 mov	 ecx, DWORD PTR _i$202162[ebp]
  0004c	8d 14 88	 lea	 edx, DWORD PTR [eax+ecx*4]
  0004f	52		 push	 edx
  00050	8b 45 b0	 mov	 eax, DWORD PTR $T203546[ebp]
  00053	50		 push	 eax
  00054	e8 00 00 00 00	 call	 ??3@YAXPAX0@Z		; operator delete
  00059	83 c4 08	 add	 esp, 8
  0005c	c3		 ret	 0
__ehhandler$?SetSize@?$CArray@VCPaneBase@ETSLayoutMgr@@V12@@@QAEXHH@Z:
  0005d	b8 00 00 00 00	 mov	 eax, OFFSET FLAT:$T203554
  00062	e9 00 00 00 00	 jmp	 ___CxxFrameHandler
text$x	ENDS
?SetSize@?$CArray@VCPaneBase@ETSLayoutMgr@@V12@@@QAEXHH@Z ENDP ; CArray<ETSLayoutMgr::CPaneBase,ETSLayoutMgr::CPaneBase>::SetSize
; Function compile flags: /Odt
; File d:\program files (x86)\microsoft visual studio .net 2003\vc7\include\new.h
;	COMDAT ??2@YAPAXIPAX@Z
_TEXT	SEGMENT
___formal$ = 8						; size = 4
__P$ = 12						; size = 4
??2@YAPAXIPAX@Z PROC NEAR				; operator new, COMDAT

; 109  :         {return (_P); }

  00000	55		 push	 ebp
  00001	8b ec		 mov	 ebp, esp
  00003	8b 45 0c	 mov	 eax, DWORD PTR __P$[ebp]
  00006	5d		 pop	 ebp
  00007	c3		 ret	 0
??2@YAPAXIPAX@Z ENDP					; operator new
; Function compile flags: /Odt
_TEXT	ENDS
;	COMDAT ??3@YAXPAX0@Z
_TEXT	SEGMENT
___formal$ = 8						; size = 4
___formal$ = 12						; size = 4
??3@YAXPAX0@Z PROC NEAR					; operator delete, COMDAT

; 112  :         {return; }

  00000	55		 push	 ebp
  00001	8b ec		 mov	 ebp, esp
  00003	5d		 pop	 ebp
  00004	c3		 ret	 0
??3@YAXPAX0@Z ENDP					; operator delete
; Function compile flags: /Odt
_TEXT	ENDS
;	COMDAT ??_GCPaneBase@ETSLayoutMgr@@QAEPAXI@Z
_TEXT	SEGMENT
_this$ = -4						; size = 4
___flags$ = 8						; size = 4
??_GCPaneBase@ETSLayoutMgr@@QAEPAXI@Z PROC NEAR		; ETSLayoutMgr::CPaneBase::`scalar deleting destructor', COMDAT
; _this$ = ecx
  00000	55		 push	 ebp
  00001	8b ec		 mov	 ebp, esp
  00003	51		 push	 ecx
  00004	89 4d fc	 mov	 DWORD PTR _this$[ebp], ecx
  00007	8b 4d fc	 mov	 ecx, DWORD PTR _this$[ebp]
  0000a	e8 00 00 00 00	 call	 ??1CPaneBase@ETSLayoutMgr@@QAE@XZ ; ETSLayoutMgr::CPaneBase::~CPaneBase
  0000f	8b 45 08	 mov	 eax, DWORD PTR ___flags$[ebp]
  00012	83 e0 01	 and	 eax, 1
  00015	74 0c		 je	 SHORT $L201964
  00017	8b 4d fc	 mov	 ecx, DWORD PTR _this$[ebp]
  0001a	51		 push	 ecx
  0001b	e8 00 00 00 00	 call	 ??3@YAXPAX@Z		; operator delete
  00020	83 c4 04	 add	 esp, 4
$L201964:
  00023	8b 45 fc	 mov	 eax, DWORD PTR _this$[ebp]
  00026	8b e5		 mov	 esp, ebp
  00028	5d		 pop	 ebp
  00029	c2 04 00	 ret	 4
??_GCPaneBase@ETSLayoutMgr@@QAEPAXI@Z ENDP		; ETSLayoutMgr::CPaneBase::`scalar deleting destructor'
; Function compile flags: /Odt
; File d:\program files (x86)\microsoft visual studio .net 2003\vc7\atlmfc\include\afxtempl.h
_TEXT	ENDS
;	COMDAT ?ElementAt@?$CArray@VCPaneBase@ETSLayoutMgr@@V12@@@QAEAAVCPaneBase@ETSLayoutMgr@@H@Z
_TEXT	SEGMENT
_this$ = -4						; size = 4
_nIndex$ = 8						; size = 4
?ElementAt@?$CArray@VCPaneBase@ETSLayoutMgr@@V12@@@QAEAAVCPaneBase@ETSLayoutMgr@@H@Z PROC NEAR ; CArray<ETSLayoutMgr::CPaneBase,ETSLayoutMgr::CPaneBase>::ElementAt, COMDAT
; _this$ = ecx

; 320  : { 

  00000	55		 push	 ebp
  00001	8b ec		 mov	 ebp, esp
  00003	51		 push	 ecx
  00004	89 4d fc	 mov	 DWORD PTR _this$[ebp], ecx

; 321  : 	ASSERT(nIndex >= 0 && nIndex < m_nSize);
; 322  : 	if(nIndex >= 0 && nIndex < m_nSize)

  00007	83 7d 08 00	 cmp	 DWORD PTR _nIndex$[ebp], 0
  0000b	7c 19		 jl	 SHORT $L202181
  0000d	8b 45 fc	 mov	 eax, DWORD PTR _this$[ebp]
  00010	8b 4d 08	 mov	 ecx, DWORD PTR _nIndex$[ebp]
  00013	3b 48 08	 cmp	 ecx, DWORD PTR [eax+8]
  00016	7d 0e		 jge	 SHORT $L202181

; 323  : 		return m_pData[nIndex]; 

  00018	8b 55 fc	 mov	 edx, DWORD PTR _this$[ebp]
  0001b	8b 42 04	 mov	 eax, DWORD PTR [edx+4]
  0001e	8b 4d 08	 mov	 ecx, DWORD PTR _nIndex$[ebp]
  00021	8d 04 88	 lea	 eax, DWORD PTR [eax+ecx*4]
  00024	eb 05		 jmp	 SHORT $L203566
$L202181:

; 324  : 	AfxThrowInvalidArgException();		

  00026	e8 00 00 00 00	 call	 ?AfxThrowInvalidArgException@@YGXXZ ; AfxThrowInvalidArgException
$L203566:

; 325  : }

  0002b	8b e5		 mov	 esp, ebp
  0002d	5d		 pop	 ebp
  0002e	c2 04 00	 ret	 4
?ElementAt@?$CArray@VCPaneBase@ETSLayoutMgr@@V12@@@QAEAAVCPaneBase@ETSLayoutMgr@@H@Z ENDP ; CArray<ETSLayoutMgr::CPaneBase,ETSLayoutMgr::CPaneBase>::ElementAt
_TEXT	ENDS
PUBLIC	?InitHashTable@?$CMap@V?$CStringT@DV?$StrTraitMFC_DLL@DV?$ChTraitsCRT@D@ATL@@@@@ATL@@PBDVCPaneBase@ETSLayoutMgr@@V34@@@QAEXIH@Z ; CMap<ATL::CStringT<char,StrTraitMFC_DLL<char,ATL::ChTraitsCRT<char> > >,char const *,ETSLayoutMgr::CPaneBase,ETSLayoutMgr::CPaneBase>::InitHashTable
PUBLIC	?NewAssoc@?$CMap@V?$CStringT@DV?$StrTraitMFC_DLL@DV?$ChTraitsCRT@D@ATL@@@@@ATL@@PBDVCPaneBase@ETSLayoutMgr@@V34@@@IAEPAVCAssoc@1@PBD@Z ; CMap<ATL::CStringT<char,StrTraitMFC_DLL<char,ATL::ChTraitsCRT<char> > >,char const *,ETSLayoutMgr::CPaneBase,ETSLayoutMgr::CPaneBase>::NewAssoc
; Function compile flags: /Odt
;	COMDAT ??A?$CMap@V?$CStringT@DV?$StrTraitMFC_DLL@DV?$ChTraitsCRT@D@ATL@@@@@ATL@@PBDVCPaneBase@ETSLayoutMgr@@V34@@@QAEAAVCPaneBase@ETSLayoutMgr@@PBD@Z
_TEXT	SEGMENT
_this$ = -16						; size = 4
_nHashBucket$ = -12					; size = 4
_pAssoc$ = -8						; size = 4
_nHashValue$ = -4					; size = 4
_key$ = 8						; size = 4
??A?$CMap@V?$CStringT@DV?$StrTraitMFC_DLL@DV?$ChTraitsCRT@D@ATL@@@@@ATL@@PBDVCPaneBase@ETSLayoutMgr@@V34@@@QAEAAVCPaneBase@ETSLayoutMgr@@PBD@Z PROC NEAR ; CMap<ATL::CStringT<char,StrTraitMFC_DLL<char,ATL::ChTraitsCRT<char> > >,char const *,ETSLayoutMgr::CPaneBase,ETSLayoutMgr::CPaneBase>::operator[], COMDAT
; _this$ = ecx

; 1586 : {

  00000	55		 push	 ebp
  00001	8b ec		 mov	 ebp, esp
  00003	83 ec 10	 sub	 esp, 16			; 00000010H
  00006	89 4d f0	 mov	 DWORD PTR _this$[ebp], ecx

; 1587 : 	ASSERT_VALID(this);
; 1588 : 
; 1589 : 	UINT nHashBucket, nHashValue;
; 1590 : 	CAssoc* pAssoc;
; 1591 : 	if ((pAssoc = GetAssocAt(key, nHashBucket, nHashValue)) == NULL)

  00009	8d 45 fc	 lea	 eax, DWORD PTR _nHashValue$[ebp]
  0000c	50		 push	 eax
  0000d	8d 4d f4	 lea	 ecx, DWORD PTR _nHashBucket$[ebp]
  00010	51		 push	 ecx
  00011	8b 55 08	 mov	 edx, DWORD PTR _key$[ebp]
  00014	52		 push	 edx
  00015	8b 4d f0	 mov	 ecx, DWORD PTR _this$[ebp]
  00018	e8 00 00 00 00	 call	 ?GetAssocAt@?$CMap@V?$CStringT@DV?$StrTraitMFC_DLL@DV?$ChTraitsCRT@D@ATL@@@@@ATL@@PBDVCPaneBase@ETSLayoutMgr@@V34@@@IBEPAVCAssoc@1@PBDAAI1@Z ; CMap<ATL::CStringT<char,StrTraitMFC_DLL<char,ATL::ChTraitsCRT<char> > >,char const *,ETSLayoutMgr::CPaneBase,ETSLayoutMgr::CPaneBase>::GetAssocAt
  0001d	89 45 f8	 mov	 DWORD PTR _pAssoc$[ebp], eax
  00020	83 7d f8 00	 cmp	 DWORD PTR _pAssoc$[ebp], 0
  00024	75 53		 jne	 SHORT $L202216

; 1592 : 	{
; 1593 : 		if (m_pHashTable == NULL)

  00026	8b 45 f0	 mov	 eax, DWORD PTR _this$[ebp]
  00029	83 78 04 00	 cmp	 DWORD PTR [eax+4], 0
  0002d	75 11		 jne	 SHORT $L202217

; 1594 : 			InitHashTable(m_nHashTableSize);

  0002f	6a 01		 push	 1
  00031	8b 4d f0	 mov	 ecx, DWORD PTR _this$[ebp]
  00034	8b 51 08	 mov	 edx, DWORD PTR [ecx+8]
  00037	52		 push	 edx
  00038	8b 4d f0	 mov	 ecx, DWORD PTR _this$[ebp]
  0003b	e8 00 00 00 00	 call	 ?InitHashTable@?$CMap@V?$CStringT@DV?$StrTraitMFC_DLL@DV?$ChTraitsCRT@D@ATL@@@@@ATL@@PBDVCPaneBase@ETSLayoutMgr@@V34@@@QAEXIH@Z ; CMap<ATL::CStringT<char,StrTraitMFC_DLL<char,ATL::ChTraitsCRT<char> > >,char const *,ETSLayoutMgr::CPaneBase,ETSLayoutMgr::CPaneBase>::InitHashTable
$L202217:

; 1595 : 
; 1596 : 		// it doesn't exist, add a new Association
; 1597 : 		pAssoc = NewAssoc(key);

  00040	8b 45 08	 mov	 eax, DWORD PTR _key$[ebp]
  00043	50		 push	 eax
  00044	8b 4d f0	 mov	 ecx, DWORD PTR _this$[ebp]
  00047	e8 00 00 00 00	 call	 ?NewAssoc@?$CMap@V?$CStringT@DV?$StrTraitMFC_DLL@DV?$ChTraitsCRT@D@ATL@@@@@ATL@@PBDVCPaneBase@ETSLayoutMgr@@V34@@@IAEPAVCAssoc@1@PBD@Z ; CMap<ATL::CStringT<char,StrTraitMFC_DLL<char,ATL::ChTraitsCRT<char> > >,char const *,ETSLayoutMgr::CPaneBase,ETSLayoutMgr::CPaneBase>::NewAssoc
  0004c	89 45 f8	 mov	 DWORD PTR _pAssoc$[ebp], eax

; 1598 : 		pAssoc->nHashValue = nHashValue;

  0004f	8b 4d f8	 mov	 ecx, DWORD PTR _pAssoc$[ebp]
  00052	8b 55 fc	 mov	 edx, DWORD PTR _nHashValue$[ebp]
  00055	89 51 0c	 mov	 DWORD PTR [ecx+12], edx

; 1599 : 		//'pAssoc->value' is a constructed object, nothing more
; 1600 : 
; 1601 : 		// put into hash table
; 1602 : 		pAssoc->pNext = m_pHashTable[nHashBucket];

  00058	8b 45 f0	 mov	 eax, DWORD PTR _this$[ebp]
  0005b	8b 48 04	 mov	 ecx, DWORD PTR [eax+4]
  0005e	8b 55 f8	 mov	 edx, DWORD PTR _pAssoc$[ebp]
  00061	8b 45 f4	 mov	 eax, DWORD PTR _nHashBucket$[ebp]
  00064	8b 0c 81	 mov	 ecx, DWORD PTR [ecx+eax*4]
  00067	89 4a 08	 mov	 DWORD PTR [edx+8], ecx

; 1603 : 		m_pHashTable[nHashBucket] = pAssoc;

  0006a	8b 55 f0	 mov	 edx, DWORD PTR _this$[ebp]
  0006d	8b 42 04	 mov	 eax, DWORD PTR [edx+4]
  00070	8b 4d f4	 mov	 ecx, DWORD PTR _nHashBucket$[ebp]
  00073	8b 55 f8	 mov	 edx, DWORD PTR _pAssoc$[ebp]
  00076	89 14 88	 mov	 DWORD PTR [eax+ecx*4], edx
$L202216:

; 1604 : 	}
; 1605 : 	return pAssoc->value;  // return new reference

  00079	8b 45 f8	 mov	 eax, DWORD PTR _pAssoc$[ebp]
  0007c	83 c0 04	 add	 eax, 4

; 1606 : }

  0007f	8b e5		 mov	 esp, ebp
  00081	5d		 pop	 ebp
  00082	c2 04 00	 ret	 4
??A?$CMap@V?$CStringT@DV?$StrTraitMFC_DLL@DV?$ChTraitsCRT@D@ATL@@@@@ATL@@PBDVCPaneBase@ETSLayoutMgr@@V34@@@QAEAAVCPaneBase@ETSLayoutMgr@@PBD@Z ENDP ; CMap<ATL::CStringT<char,StrTraitMFC_DLL<char,ATL::ChTraitsCRT<char> > >,char const *,ETSLayoutMgr::CPaneBase,ETSLayoutMgr::CPaneBase>::operator[]
_TEXT	ENDS
PUBLIC	??$CompareElements@V?$CStringT@DV?$StrTraitMFC_DLL@DV?$ChTraitsCRT@D@ATL@@@@@ATL@@PBD@@YGHPBV?$CStringT@DV?$StrTraitMFC_DLL@DV?$ChTraitsCRT@D@ATL@@@@@ATL@@PBQBD@Z ; CompareElements<ATL::CStringT<char,StrTraitMFC_DLL<char,ATL::ChTraitsCRT<char> > >,char const *>
EXTRN	??$HashKey@PBD@@YGIPBD@Z:NEAR			; HashKey<char const *>
; Function compile flags: /Odt
;	COMDAT ?GetAssocAt@?$CMap@V?$CStringT@DV?$StrTraitMFC_DLL@DV?$ChTraitsCRT@D@ATL@@@@@ATL@@PBDVCPaneBase@ETSLayoutMgr@@V34@@@IBEPAVCAssoc@1@PBDAAI1@Z
_TEXT	SEGMENT
_this$ = -8						; size = 4
_pAssoc$ = -4						; size = 4
_key$ = 8						; size = 4
_nHashBucket$ = 12					; size = 4
_nHashValue$ = 16					; size = 4
?GetAssocAt@?$CMap@V?$CStringT@DV?$StrTraitMFC_DLL@DV?$ChTraitsCRT@D@ATL@@@@@ATL@@PBDVCPaneBase@ETSLayoutMgr@@V34@@@IBEPAVCAssoc@1@PBDAAI1@Z PROC NEAR ; CMap<ATL::CStringT<char,StrTraitMFC_DLL<char,ATL::ChTraitsCRT<char> > >,char const *,ETSLayoutMgr::CPaneBase,ETSLayoutMgr::CPaneBase>::GetAssocAt, COMDAT
; _this$ = ecx

; 1533 : {

  00000	55		 push	 ebp
  00001	8b ec		 mov	 ebp, esp
  00003	83 ec 08	 sub	 esp, 8
  00006	89 4d f8	 mov	 DWORD PTR _this$[ebp], ecx

; 1534 : 	nHashValue = HashKey<ARG_KEY>(key);

  00009	8b 45 08	 mov	 eax, DWORD PTR _key$[ebp]
  0000c	50		 push	 eax
  0000d	e8 00 00 00 00	 call	 ??$HashKey@PBD@@YGIPBD@Z ; HashKey<char const *>
  00012	8b 4d 10	 mov	 ecx, DWORD PTR _nHashValue$[ebp]
  00015	89 01		 mov	 DWORD PTR [ecx], eax

; 1535 : 	nHashBucket = nHashValue % m_nHashTableSize;

  00017	8b 55 10	 mov	 edx, DWORD PTR _nHashValue$[ebp]
  0001a	8b 4d f8	 mov	 ecx, DWORD PTR _this$[ebp]
  0001d	8b 02		 mov	 eax, DWORD PTR [edx]
  0001f	33 d2		 xor	 edx, edx
  00021	f7 71 08	 div	 DWORD PTR [ecx+8]
  00024	8b 45 0c	 mov	 eax, DWORD PTR _nHashBucket$[ebp]
  00027	89 10		 mov	 DWORD PTR [eax], edx

; 1536 : 
; 1537 : 	if (m_pHashTable == NULL)

  00029	8b 4d f8	 mov	 ecx, DWORD PTR _this$[ebp]
  0002c	83 79 04 00	 cmp	 DWORD PTR [ecx+4], 0
  00030	75 04		 jne	 SHORT $L202246

; 1538 : 		return NULL;

  00032	33 c0		 xor	 eax, eax
  00034	eb 49		 jmp	 SHORT $L202245
$L202246:

; 1539 : 
; 1540 : 	// see if it exists
; 1541 : 	CAssoc* pAssoc;
; 1542 : 	for (pAssoc = m_pHashTable[nHashBucket]; pAssoc != NULL; pAssoc = pAssoc->pNext)

  00036	8b 55 0c	 mov	 edx, DWORD PTR _nHashBucket$[ebp]
  00039	8b 02		 mov	 eax, DWORD PTR [edx]
  0003b	8b 4d f8	 mov	 ecx, DWORD PTR _this$[ebp]
  0003e	8b 51 04	 mov	 edx, DWORD PTR [ecx+4]
  00041	8b 04 82	 mov	 eax, DWORD PTR [edx+eax*4]
  00044	89 45 fc	 mov	 DWORD PTR _pAssoc$[ebp], eax
  00047	eb 09		 jmp	 SHORT $L202248
$L202249:
  00049	8b 4d fc	 mov	 ecx, DWORD PTR _pAssoc$[ebp]
  0004c	8b 51 08	 mov	 edx, DWORD PTR [ecx+8]
  0004f	89 55 fc	 mov	 DWORD PTR _pAssoc$[ebp], edx
$L202248:
  00052	83 7d fc 00	 cmp	 DWORD PTR _pAssoc$[ebp], 0
  00056	74 25		 je	 SHORT $L202250

; 1543 : 	{
; 1544 : 		if (pAssoc->nHashValue == nHashValue && CompareElements(&pAssoc->key, &key))

  00058	8b 45 fc	 mov	 eax, DWORD PTR _pAssoc$[ebp]
  0005b	8b 4d 10	 mov	 ecx, DWORD PTR _nHashValue$[ebp]
  0005e	8b 50 0c	 mov	 edx, DWORD PTR [eax+12]
  00061	3b 11		 cmp	 edx, DWORD PTR [ecx]
  00063	75 16		 jne	 SHORT $L202257
  00065	8d 45 08	 lea	 eax, DWORD PTR _key$[ebp]
  00068	50		 push	 eax
  00069	8b 4d fc	 mov	 ecx, DWORD PTR _pAssoc$[ebp]
  0006c	51		 push	 ecx
  0006d	e8 00 00 00 00	 call	 ??$CompareElements@V?$CStringT@DV?$StrTraitMFC_DLL@DV?$ChTraitsCRT@D@ATL@@@@@ATL@@PBD@@YGHPBV?$CStringT@DV?$StrTraitMFC_DLL@DV?$ChTraitsCRT@D@ATL@@@@@ATL@@PBQBD@Z ; CompareElements<ATL::CStringT<char,StrTraitMFC_DLL<char,ATL::ChTraitsCRT<char> > >,char const *>
  00072	85 c0		 test	 eax, eax
  00074	74 05		 je	 SHORT $L202257

; 1545 : 			return pAssoc;

  00076	8b 45 fc	 mov	 eax, DWORD PTR _pAssoc$[ebp]
  00079	eb 04		 jmp	 SHORT $L202245
$L202257:

; 1546 : 	}

  0007b	eb cc		 jmp	 SHORT $L202249
$L202250:

; 1547 : 	return NULL;

  0007d	33 c0		 xor	 eax, eax
$L202245:

; 1548 : }

  0007f	8b e5		 mov	 esp, ebp
  00081	5d		 pop	 ebp
  00082	c2 0c 00	 ret	 12			; 0000000cH
?GetAssocAt@?$CMap@V?$CStringT@DV?$StrTraitMFC_DLL@DV?$ChTraitsCRT@D@ATL@@@@@ATL@@PBDVCPaneBase@ETSLayoutMgr@@V34@@@IBEPAVCAssoc@1@PBDAAI1@Z ENDP ; CMap<ATL::CStringT<char,StrTraitMFC_DLL<char,ATL::ChTraitsCRT<char> > >,char const *,ETSLayoutMgr::CPaneBase,ETSLayoutMgr::CPaneBase>::GetAssocAt
; Function compile flags: /Odt
_TEXT	ENDS
;	COMDAT ?InitHashTable@?$CMap@V?$CStringT@DV?$StrTraitMFC_DLL@DV?$ChTraitsCRT@D@ATL@@@@@ATL@@PBDVCPaneBase@ETSLayoutMgr@@V34@@@QAEXIH@Z
_TEXT	SEGMENT
_this$ = -12						; size = 4
$T203574 = -8						; size = 4
$T203573 = -4						; size = 4
_nHashSize$ = 8						; size = 4
_bAllocNow$ = 12					; size = 4
?InitHashTable@?$CMap@V?$CStringT@DV?$StrTraitMFC_DLL@DV?$ChTraitsCRT@D@ATL@@@@@ATL@@PBDVCPaneBase@ETSLayoutMgr@@V34@@@QAEXIH@Z PROC NEAR ; CMap<ATL::CStringT<char,StrTraitMFC_DLL<char,ATL::ChTraitsCRT<char> > >,char const *,ETSLayoutMgr::CPaneBase,ETSLayoutMgr::CPaneBase>::InitHashTable, COMDAT
; _this$ = ecx

; 1416 : {

  00000	55		 push	 ebp
  00001	8b ec		 mov	 ebp, esp
  00003	83 ec 0c	 sub	 esp, 12			; 0000000cH
  00006	89 4d f4	 mov	 DWORD PTR _this$[ebp], ecx

; 1417 : 	ASSERT_VALID(this);
; 1418 : 	ASSERT(m_nCount == 0);
; 1419 : 	ASSERT(nHashSize > 0);
; 1420 : 
; 1421 : 	if (m_pHashTable != NULL)

  00009	8b 45 f4	 mov	 eax, DWORD PTR _this$[ebp]
  0000c	83 78 04 00	 cmp	 DWORD PTR [eax+4], 0
  00010	74 1f		 je	 SHORT $L202391

; 1422 : 	{
; 1423 : 		// free hash table
; 1424 : 		delete[] m_pHashTable;

  00012	8b 4d f4	 mov	 ecx, DWORD PTR _this$[ebp]
  00015	8b 51 04	 mov	 edx, DWORD PTR [ecx+4]
  00018	89 55 fc	 mov	 DWORD PTR $T203573[ebp], edx
  0001b	8b 45 fc	 mov	 eax, DWORD PTR $T203573[ebp]
  0001e	50		 push	 eax
  0001f	e8 00 00 00 00	 call	 ??_V@YAXPAX@Z		; operator delete[]
  00024	83 c4 04	 add	 esp, 4

; 1425 : 		m_pHashTable = NULL;

  00027	8b 4d f4	 mov	 ecx, DWORD PTR _this$[ebp]
  0002a	c7 41 04 00 00
	00 00		 mov	 DWORD PTR [ecx+4], 0
$L202391:

; 1426 : 	}
; 1427 : 
; 1428 : 	if (bAllocNow)

  00031	83 7d 0c 00	 cmp	 DWORD PTR _bAllocNow$[ebp], 0
  00035	74 33		 je	 SHORT $L202393

; 1429 : 	{
; 1430 : 		m_pHashTable = new CAssoc* [nHashSize];

  00037	8b 55 08	 mov	 edx, DWORD PTR _nHashSize$[ebp]
  0003a	c1 e2 02	 shl	 edx, 2
  0003d	52		 push	 edx
  0003e	e8 00 00 00 00	 call	 ??_U@YAPAXI@Z		; operator new[]
  00043	83 c4 04	 add	 esp, 4
  00046	89 45 f8	 mov	 DWORD PTR $T203574[ebp], eax
  00049	8b 45 f4	 mov	 eax, DWORD PTR _this$[ebp]
  0004c	8b 4d f8	 mov	 ecx, DWORD PTR $T203574[ebp]
  0004f	89 48 04	 mov	 DWORD PTR [eax+4], ecx

; 1431 : 		memset(m_pHashTable, 0, sizeof(CAssoc*) * nHashSize);

  00052	8b 55 08	 mov	 edx, DWORD PTR _nHashSize$[ebp]
  00055	c1 e2 02	 shl	 edx, 2
  00058	52		 push	 edx
  00059	6a 00		 push	 0
  0005b	8b 45 f4	 mov	 eax, DWORD PTR _this$[ebp]
  0005e	8b 48 04	 mov	 ecx, DWORD PTR [eax+4]
  00061	51		 push	 ecx
  00062	e8 00 00 00 00	 call	 _memset
  00067	83 c4 0c	 add	 esp, 12			; 0000000cH
$L202393:

; 1432 : 	}
; 1433 : 	m_nHashTableSize = nHashSize;

  0006a	8b 55 f4	 mov	 edx, DWORD PTR _this$[ebp]
  0006d	8b 45 08	 mov	 eax, DWORD PTR _nHashSize$[ebp]
  00070	89 42 08	 mov	 DWORD PTR [edx+8], eax

; 1434 : }

  00073	8b e5		 mov	 esp, ebp
  00075	5d		 pop	 ebp
  00076	c2 08 00	 ret	 8
?InitHashTable@?$CMap@V?$CStringT@DV?$StrTraitMFC_DLL@DV?$ChTraitsCRT@D@ATL@@@@@ATL@@PBDVCPaneBase@ETSLayoutMgr@@V34@@@QAEXIH@Z ENDP ; CMap<ATL::CStringT<char,StrTraitMFC_DLL<char,ATL::ChTraitsCRT<char> > >,char const *,ETSLayoutMgr::CPaneBase,ETSLayoutMgr::CPaneBase>::InitHashTable
_TEXT	ENDS
PUBLIC	??0CAssoc@?$CMap@V?$CStringT@DV?$StrTraitMFC_DLL@DV?$ChTraitsCRT@D@ATL@@@@@ATL@@PBDVCPaneBase@ETSLayoutMgr@@V34@@@QAE@PBD@Z ; CMap<ATL::CStringT<char,StrTraitMFC_DLL<char,ATL::ChTraitsCRT<char> > >,char const *,ETSLayoutMgr::CPaneBase,ETSLayoutMgr::CPaneBase>::CAssoc::CAssoc
PUBLIC	?data@CPlex@@QAEPAXXZ				; CPlex::data
EXTRN	?Create@CPlex@@SGPAU1@AAPAU1@II@Z:NEAR		; CPlex::Create
;	COMDAT xdata$x
xdata$x	SEGMENT
$T203585 DD	0ffffffffH
	DD	FLAT:$L203581
$T203583 DD	019930520H
	DD	01H
	DD	FLAT:$T203585
	DD	2 DUP(00H)
	DD	2 DUP(00H)
; Function compile flags: /Odt
xdata$x	ENDS
;	COMDAT ?NewAssoc@?$CMap@V?$CStringT@DV?$StrTraitMFC_DLL@DV?$ChTraitsCRT@D@ATL@@@@@ATL@@PBDVCPaneBase@ETSLayoutMgr@@V34@@@IAEPAVCAssoc@1@PBD@Z
_TEXT	SEGMENT
tv141 = -48						; size = 4
_this$ = -44						; size = 4
$T203578 = -40						; size = 4
$T203577 = -36						; size = 4
_i$202410 = -32						; size = 4
_newBlock$202406 = -28					; size = 4
_pAssoc$202408 = -24					; size = 4
_pAssoc$ = -20						; size = 4
_pTemp$ = -16						; size = 4
__$EHRec$ = -12						; size = 12
_key$ = 8						; size = 4
?NewAssoc@?$CMap@V?$CStringT@DV?$StrTraitMFC_DLL@DV?$ChTraitsCRT@D@ATL@@@@@ATL@@PBDVCPaneBase@ETSLayoutMgr@@V34@@@IAEPAVCAssoc@1@PBD@Z PROC NEAR ; CMap<ATL::CStringT<char,StrTraitMFC_DLL<char,ATL::ChTraitsCRT<char> > >,char const *,ETSLayoutMgr::CPaneBase,ETSLayoutMgr::CPaneBase>::NewAssoc, COMDAT
; _this$ = ecx

; 1477 : {

  00000	55		 push	 ebp
  00001	8b ec		 mov	 ebp, esp
  00003	6a ff		 push	 -1
  00005	68 00 00 00 00	 push	 __ehhandler$?NewAssoc@?$CMap@V?$CStringT@DV?$StrTraitMFC_DLL@DV?$ChTraitsCRT@D@ATL@@@@@ATL@@PBDVCPaneBase@ETSLayoutMgr@@V34@@@IAEPAVCAssoc@1@PBD@Z
  0000a	64 a1 00 00 00
	00		 mov	 eax, DWORD PTR fs:__except_list
  00010	50		 push	 eax
  00011	64 89 25 00 00
	00 00		 mov	 DWORD PTR fs:__except_list, esp
  00018	83 ec 24	 sub	 esp, 36			; 00000024H
  0001b	89 4d d4	 mov	 DWORD PTR _this$[ebp], ecx

; 1478 : 	if (m_pFreeList == NULL)

  0001e	8b 45 d4	 mov	 eax, DWORD PTR _this$[ebp]
  00021	83 78 10 00	 cmp	 DWORD PTR [eax+16], 0
  00025	75 72		 jne	 SHORT $L202405

; 1479 : 	{
; 1480 : 		// add another block
; 1481 : 		CPlex* newBlock = CPlex::Create(m_pBlocks, m_nBlockSize, sizeof(CMap::CAssoc));

  00027	6a 10		 push	 16			; 00000010H
  00029	8b 4d d4	 mov	 ecx, DWORD PTR _this$[ebp]
  0002c	8b 51 18	 mov	 edx, DWORD PTR [ecx+24]
  0002f	52		 push	 edx
  00030	8b 45 d4	 mov	 eax, DWORD PTR _this$[ebp]
  00033	83 c0 14	 add	 eax, 20			; 00000014H
  00036	50		 push	 eax
  00037	e8 00 00 00 00	 call	 ?Create@CPlex@@SGPAU1@AAPAU1@II@Z ; CPlex::Create
  0003c	89 45 e4	 mov	 DWORD PTR _newBlock$202406[ebp], eax

; 1482 : 		// chain them into free list
; 1483 : 		CMap::CAssoc* pAssoc = (CMap::CAssoc*) newBlock->data();

  0003f	8b 4d e4	 mov	 ecx, DWORD PTR _newBlock$202406[ebp]
  00042	e8 00 00 00 00	 call	 ?data@CPlex@@QAEPAXXZ	; CPlex::data
  00047	89 45 e8	 mov	 DWORD PTR _pAssoc$202408[ebp], eax

; 1484 : 		// free in reverse order to make it easier to debug
; 1485 : 		pAssoc += m_nBlockSize - 1;

  0004a	8b 4d d4	 mov	 ecx, DWORD PTR _this$[ebp]
  0004d	8b 51 18	 mov	 edx, DWORD PTR [ecx+24]
  00050	83 ea 01	 sub	 edx, 1
  00053	c1 e2 04	 shl	 edx, 4
  00056	03 55 e8	 add	 edx, DWORD PTR _pAssoc$202408[ebp]
  00059	89 55 e8	 mov	 DWORD PTR _pAssoc$202408[ebp], edx

; 1486 : 		for (INT_PTR i = m_nBlockSize-1; i >= 0; i--, pAssoc--)

  0005c	8b 45 d4	 mov	 eax, DWORD PTR _this$[ebp]
  0005f	8b 48 18	 mov	 ecx, DWORD PTR [eax+24]
  00062	83 e9 01	 sub	 ecx, 1
  00065	89 4d e0	 mov	 DWORD PTR _i$202410[ebp], ecx
  00068	eb 12		 jmp	 SHORT $L202411
$L202412:
  0006a	8b 55 e0	 mov	 edx, DWORD PTR _i$202410[ebp]
  0006d	83 ea 01	 sub	 edx, 1
  00070	89 55 e0	 mov	 DWORD PTR _i$202410[ebp], edx
  00073	8b 45 e8	 mov	 eax, DWORD PTR _pAssoc$202408[ebp]
  00076	83 e8 10	 sub	 eax, 16			; 00000010H
  00079	89 45 e8	 mov	 DWORD PTR _pAssoc$202408[ebp], eax
$L202411:
  0007c	83 7d e0 00	 cmp	 DWORD PTR _i$202410[ebp], 0
  00080	7c 17		 jl	 SHORT $L202405

; 1487 : 		{
; 1488 : 			pAssoc->pNext = m_pFreeList;

  00082	8b 4d e8	 mov	 ecx, DWORD PTR _pAssoc$202408[ebp]
  00085	8b 55 d4	 mov	 edx, DWORD PTR _this$[ebp]
  00088	8b 42 10	 mov	 eax, DWORD PTR [edx+16]
  0008b	89 41 08	 mov	 DWORD PTR [ecx+8], eax

; 1489 : 			m_pFreeList = pAssoc;

  0008e	8b 4d d4	 mov	 ecx, DWORD PTR _this$[ebp]
  00091	8b 55 e8	 mov	 edx, DWORD PTR _pAssoc$202408[ebp]
  00094	89 51 10	 mov	 DWORD PTR [ecx+16], edx

; 1490 : 		}

  00097	eb d1		 jmp	 SHORT $L202412
$L202405:

; 1491 : 	}
; 1492 : 	ASSERT(m_pFreeList != NULL);  // we must have something
; 1493 : 
; 1494 : 	CMap::CAssoc* pAssoc = m_pFreeList;

  00099	8b 45 d4	 mov	 eax, DWORD PTR _this$[ebp]
  0009c	8b 48 10	 mov	 ecx, DWORD PTR [eax+16]
  0009f	89 4d ec	 mov	 DWORD PTR _pAssoc$[ebp], ecx

; 1495 : 
; 1496 : 	// zero the memory
; 1497 : 	CMap::CAssoc* pTemp = pAssoc->pNext;

  000a2	8b 55 ec	 mov	 edx, DWORD PTR _pAssoc$[ebp]
  000a5	8b 42 08	 mov	 eax, DWORD PTR [edx+8]
  000a8	89 45 f0	 mov	 DWORD PTR _pTemp$[ebp], eax

; 1498 : 	memset( pAssoc, 0, sizeof(CMap::CAssoc) );

  000ab	6a 10		 push	 16			; 00000010H
  000ad	6a 00		 push	 0
  000af	8b 4d ec	 mov	 ecx, DWORD PTR _pAssoc$[ebp]
  000b2	51		 push	 ecx
  000b3	e8 00 00 00 00	 call	 _memset
  000b8	83 c4 0c	 add	 esp, 12			; 0000000cH

; 1499 : 	pAssoc->pNext = pTemp;

  000bb	8b 55 ec	 mov	 edx, DWORD PTR _pAssoc$[ebp]
  000be	8b 45 f0	 mov	 eax, DWORD PTR _pTemp$[ebp]
  000c1	89 42 08	 mov	 DWORD PTR [edx+8], eax

; 1500 : 
; 1501 : 	m_pFreeList = m_pFreeList->pNext;

  000c4	8b 4d d4	 mov	 ecx, DWORD PTR _this$[ebp]
  000c7	8b 51 10	 mov	 edx, DWORD PTR [ecx+16]
  000ca	8b 45 d4	 mov	 eax, DWORD PTR _this$[ebp]
  000cd	8b 4a 08	 mov	 ecx, DWORD PTR [edx+8]
  000d0	89 48 10	 mov	 DWORD PTR [eax+16], ecx

; 1502 : 	m_nCount++;

  000d3	8b 55 d4	 mov	 edx, DWORD PTR _this$[ebp]
  000d6	8b 42 0c	 mov	 eax, DWORD PTR [edx+12]
  000d9	83 c0 01	 add	 eax, 1
  000dc	8b 4d d4	 mov	 ecx, DWORD PTR _this$[ebp]
  000df	89 41 0c	 mov	 DWORD PTR [ecx+12], eax

; 1503 : 	ASSERT(m_nCount > 0);  // make sure we don't overflow
; 1504 : #pragma push_macro("new")
; 1505 : #undef new
; 1506 : 	::new(pAssoc) CMap::CAssoc(key);

  000e2	8b 55 ec	 mov	 edx, DWORD PTR _pAssoc$[ebp]
  000e5	52		 push	 edx
  000e6	6a 10		 push	 16			; 00000010H
  000e8	e8 00 00 00 00	 call	 ??2@YAPAXIPAX@Z		; operator new
  000ed	83 c4 08	 add	 esp, 8
  000f0	89 45 d8	 mov	 DWORD PTR $T203578[ebp], eax
  000f3	c7 45 fc 00 00
	00 00		 mov	 DWORD PTR __$EHRec$[ebp+8], 0
  000fa	83 7d d8 00	 cmp	 DWORD PTR $T203578[ebp], 0
  000fe	74 11		 je	 SHORT $L203579
  00100	8b 45 08	 mov	 eax, DWORD PTR _key$[ebp]
  00103	50		 push	 eax
  00104	8b 4d d8	 mov	 ecx, DWORD PTR $T203578[ebp]
  00107	e8 00 00 00 00	 call	 ??0CAssoc@?$CMap@V?$CStringT@DV?$StrTraitMFC_DLL@DV?$ChTraitsCRT@D@ATL@@@@@ATL@@PBDVCPaneBase@ETSLayoutMgr@@V34@@@QAE@PBD@Z ; CMap<ATL::CStringT<char,StrTraitMFC_DLL<char,ATL::ChTraitsCRT<char> > >,char const *,ETSLayoutMgr::CPaneBase,ETSLayoutMgr::CPaneBase>::CAssoc::CAssoc
  0010c	89 45 d0	 mov	 DWORD PTR tv141[ebp], eax
  0010f	eb 07		 jmp	 SHORT $L203580
$L203579:
  00111	c7 45 d0 00 00
	00 00		 mov	 DWORD PTR tv141[ebp], 0
$L203580:
  00118	8b 4d d0	 mov	 ecx, DWORD PTR tv141[ebp]
  0011b	89 4d dc	 mov	 DWORD PTR $T203577[ebp], ecx
  0011e	c7 45 fc ff ff
	ff ff		 mov	 DWORD PTR __$EHRec$[ebp+8], -1

; 1507 : #pragma pop_macro("new")
; 1508 : //	ConstructElements<KEY>(&pAssoc->key, 1);
; 1509 : //	ConstructElements<VALUE>(&pAssoc->value, 1);   // special construct values
; 1510 : 	return pAssoc;

  00125	8b 45 ec	 mov	 eax, DWORD PTR _pAssoc$[ebp]

; 1511 : }

  00128	8b 4d f4	 mov	 ecx, DWORD PTR __$EHRec$[ebp]
  0012b	64 89 0d 00 00
	00 00		 mov	 DWORD PTR fs:__except_list, ecx
  00132	8b e5		 mov	 esp, ebp
  00134	5d		 pop	 ebp
  00135	c2 04 00	 ret	 4
_TEXT	ENDS
;	COMDAT text$x
text$x	SEGMENT
$L203581:
  00000	8b 45 ec	 mov	 eax, DWORD PTR _pAssoc$[ebp]
  00003	50		 push	 eax
  00004	8b 4d d8	 mov	 ecx, DWORD PTR $T203578[ebp]
  00007	51		 push	 ecx
  00008	e8 00 00 00 00	 call	 ??3@YAXPAX0@Z		; operator delete
  0000d	83 c4 08	 add	 esp, 8
  00010	c3		 ret	 0
__ehhandler$?NewAssoc@?$CMap@V?$CStringT@DV?$StrTraitMFC_DLL@DV?$ChTraitsCRT@D@ATL@@@@@ATL@@PBDVCPaneBase@ETSLayoutMgr@@V34@@@IAEPAVCAssoc@1@PBD@Z:
  00011	b8 00 00 00 00	 mov	 eax, OFFSET FLAT:$T203583
  00016	e9 00 00 00 00	 jmp	 ___CxxFrameHandler
text$x	ENDS
?NewAssoc@?$CMap@V?$CStringT@DV?$StrTraitMFC_DLL@DV?$ChTraitsCRT@D@ATL@@@@@ATL@@PBDVCPaneBase@ETSLayoutMgr@@V34@@@IAEPAVCAssoc@1@PBD@Z ENDP ; CMap<ATL::CStringT<char,StrTraitMFC_DLL<char,ATL::ChTraitsCRT<char> > >,char const *,ETSLayoutMgr::CPaneBase,ETSLayoutMgr::CPaneBase>::NewAssoc
; Function compile flags: /Odt
;	COMDAT ??$CompareElements@V?$CStringT@DV?$StrTraitMFC_DLL@DV?$ChTraitsCRT@D@ATL@@@@@ATL@@PBD@@YGHPBV?$CStringT@DV?$StrTraitMFC_DLL@DV?$ChTraitsCRT@D@ATL@@@@@ATL@@PBQBD@Z
_TEXT	SEGMENT
_pElement1$ = 8						; size = 4
_pElement2$ = 12					; size = 4
??$CompareElements@V?$CStringT@DV?$StrTraitMFC_DLL@DV?$ChTraitsCRT@D@ATL@@@@@ATL@@PBD@@YGHPBV?$CStringT@DV?$StrTraitMFC_DLL@DV?$ChTraitsCRT@D@ATL@@@@@ATL@@PBQBD@Z PROC NEAR ; CompareElements<ATL::CStringT<char,StrTraitMFC_DLL<char,ATL::ChTraitsCRT<char> > >,char const *>, COMDAT

; 150  : {

  00000	55		 push	 ebp
  00001	8b ec		 mov	 ebp, esp

; 151  : 	ASSERT(AfxIsValidAddress(pElement1, sizeof(TYPE), FALSE));
; 152  : 	ASSERT(AfxIsValidAddress(pElement2, sizeof(ARG_TYPE), FALSE));
; 153  : 
; 154  : 	return *pElement1 == *pElement2;

  00003	8b 45 0c	 mov	 eax, DWORD PTR _pElement2$[ebp]
  00006	8b 08		 mov	 ecx, DWORD PTR [eax]
  00008	51		 push	 ecx
  00009	8b 55 08	 mov	 edx, DWORD PTR _pElement1$[ebp]
  0000c	52		 push	 edx
  0000d	e8 00 00 00 00	 call	 ??8ATL@@YA_NABV?$CStringT@DV?$StrTraitMFC_DLL@DV?$ChTraitsCRT@D@ATL@@@@@0@PBD@Z ; ATL::operator==
  00012	83 c4 08	 add	 esp, 8
  00015	0f b6 c0	 movzx	 eax, al

; 155  : }

  00018	5d		 pop	 ebp
  00019	c2 08 00	 ret	 8
??$CompareElements@V?$CStringT@DV?$StrTraitMFC_DLL@DV?$ChTraitsCRT@D@ATL@@@@@ATL@@PBD@@YGHPBV?$CStringT@DV?$StrTraitMFC_DLL@DV?$ChTraitsCRT@D@ATL@@@@@ATL@@PBQBD@Z ENDP ; CompareElements<ATL::CStringT<char,StrTraitMFC_DLL<char,ATL::ChTraitsCRT<char> > >,char const *>
_TEXT	ENDS
PUBLIC	??0CPair@?$CMap@V?$CStringT@DV?$StrTraitMFC_DLL@DV?$ChTraitsCRT@D@ATL@@@@@ATL@@PBDVCPaneBase@ETSLayoutMgr@@V34@@@IAE@PBD@Z ; CMap<ATL::CStringT<char,StrTraitMFC_DLL<char,ATL::ChTraitsCRT<char> > >,char const *,ETSLayoutMgr::CPaneBase,ETSLayoutMgr::CPaneBase>::CPair::CPair
; Function compile flags: /Odt
;	COMDAT ??0CAssoc@?$CMap@V?$CStringT@DV?$StrTraitMFC_DLL@DV?$ChTraitsCRT@D@ATL@@@@@ATL@@PBDVCPaneBase@ETSLayoutMgr@@V34@@@QAE@PBD@Z
_TEXT	SEGMENT
_this$ = -4						; size = 4
_key$ = 8						; size = 4
??0CAssoc@?$CMap@V?$CStringT@DV?$StrTraitMFC_DLL@DV?$ChTraitsCRT@D@ATL@@@@@ATL@@PBDVCPaneBase@ETSLayoutMgr@@V34@@@QAE@PBD@Z PROC NEAR ; CMap<ATL::CStringT<char,StrTraitMFC_DLL<char,ATL::ChTraitsCRT<char> > >,char const *,ETSLayoutMgr::CPaneBase,ETSLayoutMgr::CPaneBase>::CAssoc::CAssoc, COMDAT
; _this$ = ecx

; 1263 : 		CAssoc( ARG_KEY key ) : CPair( key ) {}

  00000	55		 push	 ebp
  00001	8b ec		 mov	 ebp, esp
  00003	51		 push	 ecx
  00004	89 4d fc	 mov	 DWORD PTR _this$[ebp], ecx
  00007	8b 45 08	 mov	 eax, DWORD PTR _key$[ebp]
  0000a	50		 push	 eax
  0000b	8b 4d fc	 mov	 ecx, DWORD PTR _this$[ebp]
  0000e	e8 00 00 00 00	 call	 ??0CPair@?$CMap@V?$CStringT@DV?$StrTraitMFC_DLL@DV?$ChTraitsCRT@D@ATL@@@@@ATL@@PBDVCPaneBase@ETSLayoutMgr@@V34@@@IAE@PBD@Z ; CMap<ATL::CStringT<char,StrTraitMFC_DLL<char,ATL::ChTraitsCRT<char> > >,char const *,ETSLayoutMgr::CPaneBase,ETSLayoutMgr::CPaneBase>::CPair::CPair
  00013	8b 45 fc	 mov	 eax, DWORD PTR _this$[ebp]
  00016	8b e5		 mov	 esp, ebp
  00018	5d		 pop	 ebp
  00019	c2 04 00	 ret	 4
??0CAssoc@?$CMap@V?$CStringT@DV?$StrTraitMFC_DLL@DV?$ChTraitsCRT@D@ATL@@@@@ATL@@PBDVCPaneBase@ETSLayoutMgr@@V34@@@QAE@PBD@Z ENDP ; CMap<ATL::CStringT<char,StrTraitMFC_DLL<char,ATL::ChTraitsCRT<char> > >,char const *,ETSLayoutMgr::CPaneBase,ETSLayoutMgr::CPaneBase>::CAssoc::CAssoc
_TEXT	ENDS
EXTRN	__imp_??0?$CStringT@DV?$StrTraitMFC_DLL@DV?$ChTraitsCRT@D@ATL@@@@@ATL@@QAE@PBD@Z:NEAR
;	COMDAT xdata$x
xdata$x	SEGMENT
$T203600 DD	0ffffffffH
	DD	FLAT:$L203595
$T203598 DD	019930520H
	DD	01H
	DD	FLAT:$T203600
	DD	2 DUP(00H)
	DD	2 DUP(00H)
; Function compile flags: /Odt
xdata$x	ENDS
;	COMDAT ??0CPair@?$CMap@V?$CStringT@DV?$StrTraitMFC_DLL@DV?$ChTraitsCRT@D@ATL@@@@@ATL@@PBDVCPaneBase@ETSLayoutMgr@@V34@@@IAE@PBD@Z
_TEXT	SEGMENT
_this$ = -16						; size = 4
__$EHRec$ = -12						; size = 12
_keyval$ = 8						; size = 4
??0CPair@?$CMap@V?$CStringT@DV?$StrTraitMFC_DLL@DV?$ChTraitsCRT@D@ATL@@@@@ATL@@PBDVCPaneBase@ETSLayoutMgr@@V34@@@IAE@PBD@Z PROC NEAR ; CMap<ATL::CStringT<char,StrTraitMFC_DLL<char,ATL::ChTraitsCRT<char> > >,char const *,ETSLayoutMgr::CPaneBase,ETSLayoutMgr::CPaneBase>::CPair::CPair, COMDAT
; _this$ = ecx

; 1252 : 		CPair( ARG_KEY keyval ) : key( keyval )	{}

  00000	55		 push	 ebp
  00001	8b ec		 mov	 ebp, esp
  00003	6a ff		 push	 -1
  00005	68 00 00 00 00	 push	 __ehhandler$??0CPair@?$CMap@V?$CStringT@DV?$StrTraitMFC_DLL@DV?$ChTraitsCRT@D@ATL@@@@@ATL@@PBDVCPaneBase@ETSLayoutMgr@@V34@@@IAE@PBD@Z
  0000a	64 a1 00 00 00
	00		 mov	 eax, DWORD PTR fs:__except_list
  00010	50		 push	 eax
  00011	64 89 25 00 00
	00 00		 mov	 DWORD PTR fs:__except_list, esp
  00018	51		 push	 ecx
  00019	89 4d f0	 mov	 DWORD PTR _this$[ebp], ecx
  0001c	8b 45 08	 mov	 eax, DWORD PTR _keyval$[ebp]
  0001f	50		 push	 eax
  00020	8b 4d f0	 mov	 ecx, DWORD PTR _this$[ebp]
  00023	ff 15 00 00 00
	00		 call	 DWORD PTR __imp_??0?$CStringT@DV?$StrTraitMFC_DLL@DV?$ChTraitsCRT@D@ATL@@@@@ATL@@QAE@PBD@Z
  00029	c7 45 fc 00 00
	00 00		 mov	 DWORD PTR __$EHRec$[ebp+8], 0
  00030	8b 4d f0	 mov	 ecx, DWORD PTR _this$[ebp]
  00033	83 c1 04	 add	 ecx, 4
  00036	e8 00 00 00 00	 call	 ??0CPaneBase@ETSLayoutMgr@@QAE@XZ ; ETSLayoutMgr::CPaneBase::CPaneBase
  0003b	c7 45 fc ff ff
	ff ff		 mov	 DWORD PTR __$EHRec$[ebp+8], -1
  00042	8b 45 f0	 mov	 eax, DWORD PTR _this$[ebp]
  00045	8b 4d f4	 mov	 ecx, DWORD PTR __$EHRec$[ebp]
  00048	64 89 0d 00 00
	00 00		 mov	 DWORD PTR fs:__except_list, ecx
  0004f	8b e5		 mov	 esp, ebp
  00051	5d		 pop	 ebp
  00052	c2 04 00	 ret	 4
_TEXT	ENDS
;	COMDAT text$x
text$x	SEGMENT
$L203595:
  00000	8b 4d f0	 mov	 ecx, DWORD PTR _this$[ebp]
  00003	ff 25 00 00 00
	00		 jmp	 DWORD PTR __imp_??1?$CStringT@DV?$StrTraitMFC_DLL@DV?$ChTraitsCRT@D@ATL@@@@@ATL@@QAE@XZ
__ehhandler$??0CPair@?$CMap@V?$CStringT@DV?$StrTraitMFC_DLL@DV?$ChTraitsCRT@D@ATL@@@@@ATL@@PBDVCPaneBase@ETSLayoutMgr@@V34@@@IAE@PBD@Z:
  00009	b8 00 00 00 00	 mov	 eax, OFFSET FLAT:$T203598
  0000e	e9 00 00 00 00	 jmp	 ___CxxFrameHandler
text$x	ENDS
??0CPair@?$CMap@V?$CStringT@DV?$StrTraitMFC_DLL@DV?$ChTraitsCRT@D@ATL@@@@@ATL@@PBDVCPaneBase@ETSLayoutMgr@@V34@@@IAE@PBD@Z ENDP ; CMap<ATL::CStringT<char,StrTraitMFC_DLL<char,ATL::ChTraitsCRT<char> > >,char const *,ETSLayoutMgr::CPaneBase,ETSLayoutMgr::CPaneBase>::CPair::CPair
EXTRN	__imp_??4?$CStringT@DV?$StrTraitMFC_DLL@DV?$ChTraitsCRT@D@ATL@@@@@ATL@@QAEAAV01@PBD@Z:NEAR
EXTRN	??ACMapStringToString@@QAEAAV?$CStringT@DV?$StrTraitMFC_DLL@DV?$ChTraitsCRT@D@ATL@@@@@ATL@@PBD@Z:NEAR ; CMapStringToString::operator[]
; Function compile flags: /Odt
; File d:\program files (x86)\microsoft visual studio .net 2003\vc7\atlmfc\include\afxcoll.inl
;	COMDAT ?SetAt@CMapStringToString@@QAEXPBD0@Z
_TEXT	SEGMENT
_this$ = -4						; size = 4
_key$ = 8						; size = 4
_newValue$ = 12						; size = 4
?SetAt@CMapStringToString@@QAEXPBD0@Z PROC NEAR		; CMapStringToString::SetAt, COMDAT
; _this$ = ecx

; 660  : 	{ (*this)[key] = newValue; }

  00000	55		 push	 ebp
  00001	8b ec		 mov	 ebp, esp
  00003	51		 push	 ecx
  00004	89 4d fc	 mov	 DWORD PTR _this$[ebp], ecx
  00007	8b 45 0c	 mov	 eax, DWORD PTR _newValue$[ebp]
  0000a	50		 push	 eax
  0000b	8b 4d 08	 mov	 ecx, DWORD PTR _key$[ebp]
  0000e	51		 push	 ecx
  0000f	8b 4d fc	 mov	 ecx, DWORD PTR _this$[ebp]
  00012	e8 00 00 00 00	 call	 ??ACMapStringToString@@QAEAAV?$CStringT@DV?$StrTraitMFC_DLL@DV?$ChTraitsCRT@D@ATL@@@@@ATL@@PBD@Z ; CMapStringToString::operator[]
  00017	8b c8		 mov	 ecx, eax
  00019	ff 15 00 00 00
	00		 call	 DWORD PTR __imp_??4?$CStringT@DV?$StrTraitMFC_DLL@DV?$ChTraitsCRT@D@ATL@@@@@ATL@@QAEAAV01@PBD@Z
  0001f	8b e5		 mov	 esp, ebp
  00021	5d		 pop	 ebp
  00022	c2 08 00	 ret	 8
?SetAt@CMapStringToString@@QAEXPBD0@Z ENDP		; CMapStringToString::SetAt
_TEXT	ENDS
EXTRN	__imp__GetWindowRect@8:NEAR
; Function compile flags: /Odt
; File d:\program files (x86)\microsoft visual studio .net 2003\vc7\atlmfc\include\afxwin2.inl
;	COMDAT ?GetWindowRect@CWnd@@QBEXPAUtagRECT@@@Z
_TEXT	SEGMENT
_this$ = -4						; size = 4
_lpRect$ = 8						; size = 4
?GetWindowRect@CWnd@@QBEXPAUtagRECT@@@Z PROC NEAR	; CWnd::GetWindowRect, COMDAT
; _this$ = ecx

; 105  : 	{ ASSERT(::IsWindow(m_hWnd)); ::GetWindowRect(m_hWnd, lpRect); }

  00000	55		 push	 ebp
  00001	8b ec		 mov	 ebp, esp
  00003	51		 push	 ecx
  00004	89 4d fc	 mov	 DWORD PTR _this$[ebp], ecx
  00007	8b 45 08	 mov	 eax, DWORD PTR _lpRect$[ebp]
  0000a	50		 push	 eax
  0000b	8b 4d fc	 mov	 ecx, DWORD PTR _this$[ebp]
  0000e	8b 51 20	 mov	 edx, DWORD PTR [ecx+32]
  00011	52		 push	 edx
  00012	ff 15 00 00 00
	00		 call	 DWORD PTR __imp__GetWindowRect@8
  00018	8b e5		 mov	 esp, ebp
  0001a	5d		 pop	 ebp
  0001b	c2 04 00	 ret	 4
?GetWindowRect@CWnd@@QBEXPAUtagRECT@@@Z ENDP		; CWnd::GetWindowRect
_TEXT	ENDS
PUBLIC	?CreateCompatibleDC@CDC@@QAEHPAV1@@Z		; CDC::CreateCompatibleDC
PUBLIC	?SelectObject@CDC@@QAEPAVCBitmap@@PAV2@@Z	; CDC::SelectObject
PUBLIC	?PtVisible@CDC@@UBEHHH@Z			; CDC::PtVisible
PUBLIC	?RectVisible@CDC@@UBEHPBUtagRECT@@@Z		; CDC::RectVisible
PUBLIC	??_R1A@?0A@A@CObject@@8				; CObject::`RTTI Base Class Descriptor at (0,-1,0,0)'
PUBLIC	??_R0?AVCObject@@@8				; CObject `RTTI Type Descriptor'
PUBLIC	??_7CMemDC@@6B@					; CMemDC::`vftable'
PUBLIC	??_GCMemDC@@UAEPAXI@Z				; CMemDC::`scalar deleting destructor'
PUBLIC	??2CObject@@SGPAXI@Z				; CObject::operator new
PUBLIC	??3CObject@@SGXPAX@Z				; CObject::operator delete
PUBLIC	?Serialize@CObject@@UAEXAAVCArchive@@@Z		; CObject::Serialize
PUBLIC	?AssertValid@CObject@@UBEXXZ			; CObject::AssertValid
PUBLIC	?Dump@CObject@@UBEXAAVCDumpContext@@@Z		; CObject::Dump
PUBLIC	?TextOutA@CDC@@UAEHHHPBDH@Z			; CDC::TextOutA
PUBLIC	?ExtTextOutA@CDC@@UAEHHHIPBUtagRECT@@PBDIPAH@Z	; CDC::ExtTextOutA
PUBLIC	?TabbedTextOutA@CDC@@UAE?AVCSize@@HHPBDHHPAHH@Z	; CDC::TabbedTextOutA
PUBLIC	?DrawTextA@CDC@@UAEHPBDHPAUtagRECT@@I@Z		; CDC::DrawTextA
PUBLIC	??_R4CMemDC@@6B@				; CMemDC::`RTTI Complete Object Locator'
PUBLIC	??_R0?AVCMemDC@@@8				; CMemDC `RTTI Type Descriptor'
PUBLIC	??_R3CMemDC@@8					; CMemDC::`RTTI Class Hierarchy Descriptor'
PUBLIC	??_R2CMemDC@@8					; CMemDC::`RTTI Base Class Array'
PUBLIC	??_R1A@?0A@A@CMemDC@@8				; CMemDC::`RTTI Base Class Descriptor at (0,-1,0,0)'
PUBLIC	??_R1A@?0A@A@CDC@@8				; CDC::`RTTI Base Class Descriptor at (0,-1,0,0)'
PUBLIC	?DrawTextExA@CDC@@UAEHPADHPAUtagRECT@@IPAUtagDRAWTEXTPARAMS@@@Z ; CDC::DrawTextExA
PUBLIC	??_R0?AVCDC@@@8					; CDC `RTTI Type Descriptor'
PUBLIC	?GrayStringA@CDC@@UAEHPAVCBrush@@P6GHPAUHDC__@@JH@ZJHHHHH@Z ; CDC::GrayStringA
PUBLIC	?Escape@CDC@@UAEHHHPBDPAX@Z			; CDC::Escape
PUBLIC	??0CBitmap@@QAE@XZ				; CBitmap::CBitmap
PUBLIC	?CreateCompatibleBitmap@CBitmap@@QAEHPAVCDC@@HH@Z ; CBitmap::CreateCompatibleBitmap
EXTRN	?SetAttribDC@CDC@@UAEXPAUHDC__@@@Z:NEAR		; CDC::SetAttribDC
EXTRN	?SetOutputDC@CDC@@UAEXPAUHDC__@@@Z:NEAR		; CDC::SetOutputDC
EXTRN	?ReleaseAttribDC@CDC@@UAEXXZ:NEAR		; CDC::ReleaseAttribDC
EXTRN	?ReleaseOutputDC@CDC@@UAEXXZ:NEAR		; CDC::ReleaseOutputDC
EXTRN	??0CDC@@QAE@XZ:NEAR				; CDC::CDC
EXTRN	?SaveDC@CDC@@UAEHXZ:NEAR			; CDC::SaveDC
EXTRN	?RestoreDC@CDC@@UAEHH@Z:NEAR			; CDC::RestoreDC
EXTRN	?SelectStockObject@CDC@@UAEPAVCGdiObject@@H@Z:NEAR ; CDC::SelectStockObject
EXTRN	?SelectObject@CDC@@UAEPAVCFont@@PAV2@@Z:NEAR	; CDC::SelectObject
EXTRN	?SetBkColor@CDC@@UAEKK@Z:NEAR			; CDC::SetBkColor
EXTRN	?SetTextColor@CDC@@UAEKK@Z:NEAR			; CDC::SetTextColor
EXTRN	?SetMapMode@CDC@@UAEHH@Z:NEAR			; CDC::SetMapMode
EXTRN	?SetViewportOrg@CDC@@UAE?AVCPoint@@HH@Z:NEAR	; CDC::SetViewportOrg
EXTRN	?OffsetViewportOrg@CDC@@UAE?AVCPoint@@HH@Z:NEAR	; CDC::OffsetViewportOrg
EXTRN	?SetViewportExt@CDC@@UAE?AVCSize@@HH@Z:NEAR	; CDC::SetViewportExt
EXTRN	?ScaleViewportExt@CDC@@UAE?AVCSize@@HHHH@Z:NEAR	; CDC::ScaleViewportExt
EXTRN	?SetWindowExt@CDC@@UAE?AVCSize@@HH@Z:NEAR	; CDC::SetWindowExt
EXTRN	?ScaleWindowExt@CDC@@UAE?AVCSize@@HHHH@Z:NEAR	; CDC::ScaleWindowExt
EXTRN	?GetClipBox@CDC@@UBEHPAUtagRECT@@@Z:NEAR	; CDC::GetClipBox
EXTRN	??_ECMemDC@@UAEPAXI@Z:NEAR			; CMemDC::`vector deleting destructor'
EXTRN	??1CDC@@UAE@XZ:NEAR				; CDC::~CDC
EXTRN	?GetRuntimeClass@CDC@@UBEPAUCRuntimeClass@@XZ:NEAR ; CDC::GetRuntimeClass
;	COMDAT xdata$x
; File d:\boxgit\playbox\playbox\dev\prj\playbox\src\gui\commoncontrol\listctrol\gdiex.h
xdata$x	SEGMENT
$T203618 DD	0ffffffffH
	DD	FLAT:$L203613
	DD	00H
	DD	FLAT:$L203614
$T203616 DD	019930520H
	DD	02H
	DD	FLAT:$T203618
	DD	2 DUP(00H)
	DD	2 DUP(00H)
xdata$x	ENDS
;	COMDAT ??_7CMemDC@@6B@
CONST	SEGMENT
??_7CMemDC@@6B@ DD FLAT:??_R4CMemDC@@6B@		; CMemDC::`vftable'
	DD	FLAT:?GetRuntimeClass@CDC@@UBEPAUCRuntimeClass@@XZ
	DD	FLAT:??_ECMemDC@@UAEPAXI@Z
	DD	FLAT:?Serialize@CObject@@UAEXAAVCArchive@@@Z
	DD	FLAT:?AssertValid@CObject@@UBEXXZ
	DD	FLAT:?Dump@CObject@@UBEXAAVCDumpContext@@@Z
	DD	FLAT:?SetAttribDC@CDC@@UAEXPAUHDC__@@@Z
	DD	FLAT:?SetOutputDC@CDC@@UAEXPAUHDC__@@@Z
	DD	FLAT:?ReleaseAttribDC@CDC@@UAEXXZ
	DD	FLAT:?ReleaseOutputDC@CDC@@UAEXXZ
	DD	FLAT:?SaveDC@CDC@@UAEHXZ
	DD	FLAT:?RestoreDC@CDC@@UAEHH@Z
	DD	FLAT:?SelectStockObject@CDC@@UAEPAVCGdiObject@@H@Z
	DD	FLAT:?SelectObject@CDC@@UAEPAVCFont@@PAV2@@Z
	DD	FLAT:?SetBkColor@CDC@@UAEKK@Z
	DD	FLAT:?SetTextColor@CDC@@UAEKK@Z
	DD	FLAT:?SetMapMode@CDC@@UAEHH@Z
	DD	FLAT:?SetViewportOrg@CDC@@UAE?AVCPoint@@HH@Z
	DD	FLAT:?OffsetViewportOrg@CDC@@UAE?AVCPoint@@HH@Z
	DD	FLAT:?SetViewportExt@CDC@@UAE?AVCSize@@HH@Z
	DD	FLAT:?ScaleViewportExt@CDC@@UAE?AVCSize@@HHHH@Z
	DD	FLAT:?SetWindowExt@CDC@@UAE?AVCSize@@HH@Z
	DD	FLAT:?ScaleWindowExt@CDC@@UAE?AVCSize@@HHHH@Z
	DD	FLAT:?GetClipBox@CDC@@UBEHPAUtagRECT@@@Z
	DD	FLAT:?PtVisible@CDC@@UBEHHH@Z
	DD	FLAT:?RectVisible@CDC@@UBEHPBUtagRECT@@@Z
	DD	FLAT:?TextOutA@CDC@@UAEHHHPBDH@Z
	DD	FLAT:?ExtTextOutA@CDC@@UAEHHHIPBUtagRECT@@PBDIPAH@Z
	DD	FLAT:?TabbedTextOutA@CDC@@UAE?AVCSize@@HHPBDHHPAHH@Z
	DD	FLAT:?DrawTextA@CDC@@UAEHPBDHPAUtagRECT@@I@Z
	DD	FLAT:?DrawTextExA@CDC@@UAEHPADHPAUtagRECT@@IPAUtagDRAWTEXTPARAMS@@@Z
	DD	FLAT:?GrayStringA@CDC@@UAEHPAVCBrush@@P6GHPAUHDC__@@JH@ZJHHHHH@Z
	DD	FLAT:?Escape@CDC@@UAEHHHPBDPAX@Z
CONST	ENDS
;	COMDAT ??_R4CMemDC@@6B@
rdata$r	SEGMENT
??_R4CMemDC@@6B@ DD 00H					; CMemDC::`RTTI Complete Object Locator'
	DD	00H
	DD	00H
	DD	FLAT:??_R0?AVCMemDC@@@8
	DD	FLAT:??_R3CMemDC@@8
rdata$r	ENDS
;	COMDAT ??_R0?AVCMemDC@@@8
_DATA	SEGMENT
??_R0?AVCMemDC@@@8 DD FLAT:??_7type_info@@6B@		; CMemDC `RTTI Type Descriptor'
	DD	00H
	DB	'.?AVCMemDC@@', 00H
_DATA	ENDS
;	COMDAT ??_R3CMemDC@@8
rdata$r	SEGMENT
??_R3CMemDC@@8 DD 00H					; CMemDC::`RTTI Class Hierarchy Descriptor'
	DD	00H
	DD	03H
	DD	FLAT:??_R2CMemDC@@8
rdata$r	ENDS
;	COMDAT ??_R2CMemDC@@8
rdata$r	SEGMENT
??_R2CMemDC@@8 DD FLAT:??_R1A@?0A@A@CMemDC@@8		; CMemDC::`RTTI Base Class Array'
	DD	FLAT:??_R1A@?0A@A@CDC@@8
	DD	FLAT:??_R1A@?0A@A@CObject@@8
rdata$r	ENDS
;	COMDAT ??_R1A@?0A@A@CMemDC@@8
rdata$r	SEGMENT
??_R1A@?0A@A@CMemDC@@8 DD FLAT:??_R0?AVCMemDC@@@8	; CMemDC::`RTTI Base Class Descriptor at (0,-1,0,0)'
	DD	02H
	DD	00H
	DD	0ffffffffH
	DD	00H
	DD	00H
rdata$r	ENDS
;	COMDAT ??_R1A@?0A@A@CDC@@8
rdata$r	SEGMENT
??_R1A@?0A@A@CDC@@8 DD FLAT:??_R0?AVCDC@@@8		; CDC::`RTTI Base Class Descriptor at (0,-1,0,0)'
	DD	01H
	DD	00H
	DD	0ffffffffH
	DD	00H
	DD	00H
rdata$r	ENDS
;	COMDAT ??_R0?AVCDC@@@8
_DATA	SEGMENT
??_R0?AVCDC@@@8 DD FLAT:??_7type_info@@6B@		; CDC `RTTI Type Descriptor'
	DD	00H
	DB	'.?AVCDC@@', 00H
_DATA	ENDS
;	COMDAT ??_R1A@?0A@A@CObject@@8
rdata$r	SEGMENT
??_R1A@?0A@A@CObject@@8 DD FLAT:??_R0?AVCObject@@@8	; CObject::`RTTI Base Class Descriptor at (0,-1,0,0)'
	DD	00H
	DD	00H
	DD	0ffffffffH
	DD	00H
	DD	00H
rdata$r	ENDS
;	COMDAT ??_R0?AVCObject@@@8
_DATA	SEGMENT
??_R0?AVCObject@@@8 DD FLAT:??_7type_info@@6B@		; CObject `RTTI Type Descriptor'
	DD	00H
	DB	'.?AVCObject@@', 00H
; Function compile flags: /Odt
_DATA	ENDS
;	COMDAT ??0CMemDC@@QAE@PAVCDC@@ABVCRect@@@Z
_TEXT	SEGMENT
tv79 = -28						; size = 4
_this$ = -24						; size = 4
$T203610 = -20						; size = 4
$T203609 = -16						; size = 4
__$EHRec$ = -12						; size = 12
_apDC$ = 8						; size = 4
_arcBounds$ = 12					; size = 4
??0CMemDC@@QAE@PAVCDC@@ABVCRect@@@Z PROC NEAR		; CMemDC::CMemDC, COMDAT
; _this$ = ecx

; 69   : 	{

  00000	55		 push	 ebp
  00001	8b ec		 mov	 ebp, esp
  00003	6a ff		 push	 -1
  00005	68 00 00 00 00	 push	 __ehhandler$??0CMemDC@@QAE@PAVCDC@@ABVCRect@@@Z
  0000a	64 a1 00 00 00
	00		 mov	 eax, DWORD PTR fs:__except_list
  00010	50		 push	 eax
  00011	64 89 25 00 00
	00 00		 mov	 DWORD PTR fs:__except_list, esp
  00018	83 ec 10	 sub	 esp, 16			; 00000010H
  0001b	89 4d e8	 mov	 DWORD PTR _this$[ebp], ecx
  0001e	8b 4d e8	 mov	 ecx, DWORD PTR _this$[ebp]
  00021	e8 00 00 00 00	 call	 ??0CDC@@QAE@XZ		; CDC::CDC
  00026	c7 45 fc 00 00
	00 00		 mov	 DWORD PTR __$EHRec$[ebp+8], 0
  0002d	8b 45 e8	 mov	 eax, DWORD PTR _this$[ebp]
  00030	c7 00 00 00 00
	00		 mov	 DWORD PTR [eax], OFFSET FLAT:??_7CMemDC@@6B@
  00036	8b 4d e8	 mov	 ecx, DWORD PTR _this$[ebp]
  00039	83 c1 1c	 add	 ecx, 28			; 0000001cH
  0003c	e8 00 00 00 00	 call	 ??0CRect@@QAE@XZ	; CRect::CRect

; 70   : 		CreateCompatibleDC(apDC);

  00041	8b 4d 08	 mov	 ecx, DWORD PTR _apDC$[ebp]
  00044	51		 push	 ecx
  00045	8b 4d e8	 mov	 ecx, DWORD PTR _this$[ebp]
  00048	e8 00 00 00 00	 call	 ?CreateCompatibleDC@CDC@@QAEHPAV1@@Z ; CDC::CreateCompatibleDC

; 71   : 		mpBitmap = new CBitmap;

  0004d	6a 08		 push	 8
  0004f	e8 00 00 00 00	 call	 ??2CObject@@SGPAXI@Z	; CObject::operator new
  00054	89 45 ec	 mov	 DWORD PTR $T203610[ebp], eax
  00057	c6 45 fc 01	 mov	 BYTE PTR __$EHRec$[ebp+8], 1
  0005b	83 7d ec 00	 cmp	 DWORD PTR $T203610[ebp], 0
  0005f	74 0d		 je	 SHORT $L203611
  00061	8b 4d ec	 mov	 ecx, DWORD PTR $T203610[ebp]
  00064	e8 00 00 00 00	 call	 ??0CBitmap@@QAE@XZ	; CBitmap::CBitmap
  00069	89 45 e4	 mov	 DWORD PTR tv79[ebp], eax
  0006c	eb 07		 jmp	 SHORT $L203612
$L203611:
  0006e	c7 45 e4 00 00
	00 00		 mov	 DWORD PTR tv79[ebp], 0
$L203612:
  00075	8b 55 e4	 mov	 edx, DWORD PTR tv79[ebp]
  00078	89 55 f0	 mov	 DWORD PTR $T203609[ebp], edx
  0007b	c6 45 fc 00	 mov	 BYTE PTR __$EHRec$[ebp+8], 0
  0007f	8b 45 e8	 mov	 eax, DWORD PTR _this$[ebp]
  00082	8b 4d f0	 mov	 ecx, DWORD PTR $T203609[ebp]
  00085	89 48 10	 mov	 DWORD PTR [eax+16], ecx

; 72   : 		mpBitmap->CreateCompatibleBitmap(apDC, arcBounds.Width() + arcBounds.left, arcBounds.Height() + arcBounds.top);

  00088	8b 4d 0c	 mov	 ecx, DWORD PTR _arcBounds$[ebp]
  0008b	e8 00 00 00 00	 call	 ?Height@CRect@@QBEHXZ	; CRect::Height
  00090	8b 55 0c	 mov	 edx, DWORD PTR _arcBounds$[ebp]
  00093	03 42 04	 add	 eax, DWORD PTR [edx+4]
  00096	50		 push	 eax
  00097	8b 4d 0c	 mov	 ecx, DWORD PTR _arcBounds$[ebp]
  0009a	e8 00 00 00 00	 call	 ?Width@CRect@@QBEHXZ	; CRect::Width
  0009f	8b 4d 0c	 mov	 ecx, DWORD PTR _arcBounds$[ebp]
  000a2	03 01		 add	 eax, DWORD PTR [ecx]
  000a4	50		 push	 eax
  000a5	8b 55 08	 mov	 edx, DWORD PTR _apDC$[ebp]
  000a8	52		 push	 edx
  000a9	8b 45 e8	 mov	 eax, DWORD PTR _this$[ebp]
  000ac	8b 48 10	 mov	 ecx, DWORD PTR [eax+16]
  000af	e8 00 00 00 00	 call	 ?CreateCompatibleBitmap@CBitmap@@QAEHPAVCDC@@HH@Z ; CBitmap::CreateCompatibleBitmap

; 73   : 		mpOldBitmap = SelectObject(mpBitmap);

  000b4	8b 4d e8	 mov	 ecx, DWORD PTR _this$[ebp]
  000b7	8b 51 10	 mov	 edx, DWORD PTR [ecx+16]
  000ba	52		 push	 edx
  000bb	8b 4d e8	 mov	 ecx, DWORD PTR _this$[ebp]
  000be	e8 00 00 00 00	 call	 ?SelectObject@CDC@@QAEPAVCBitmap@@PAV2@@Z ; CDC::SelectObject
  000c3	8b 4d e8	 mov	 ecx, DWORD PTR _this$[ebp]
  000c6	89 41 14	 mov	 DWORD PTR [ecx+20], eax

; 74   : 		mpDC = apDC;

  000c9	8b 55 e8	 mov	 edx, DWORD PTR _this$[ebp]
  000cc	8b 45 08	 mov	 eax, DWORD PTR _apDC$[ebp]
  000cf	89 42 18	 mov	 DWORD PTR [edx+24], eax

; 75   : 		mrcBounds = arcBounds;

  000d2	8b 4d 0c	 mov	 ecx, DWORD PTR _arcBounds$[ebp]
  000d5	8b 55 e8	 mov	 edx, DWORD PTR _this$[ebp]
  000d8	83 c2 1c	 add	 edx, 28			; 0000001cH
  000db	8b 01		 mov	 eax, DWORD PTR [ecx]
  000dd	89 02		 mov	 DWORD PTR [edx], eax
  000df	8b 41 04	 mov	 eax, DWORD PTR [ecx+4]
  000e2	89 42 04	 mov	 DWORD PTR [edx+4], eax
  000e5	8b 41 08	 mov	 eax, DWORD PTR [ecx+8]
  000e8	89 42 08	 mov	 DWORD PTR [edx+8], eax
  000eb	8b 49 0c	 mov	 ecx, DWORD PTR [ecx+12]
  000ee	89 4a 0c	 mov	 DWORD PTR [edx+12], ecx

; 76   : 	}

  000f1	c7 45 fc ff ff
	ff ff		 mov	 DWORD PTR __$EHRec$[ebp+8], -1
  000f8	8b 45 e8	 mov	 eax, DWORD PTR _this$[ebp]
  000fb	8b 4d f4	 mov	 ecx, DWORD PTR __$EHRec$[ebp]
  000fe	64 89 0d 00 00
	00 00		 mov	 DWORD PTR fs:__except_list, ecx
  00105	8b e5		 mov	 esp, ebp
  00107	5d		 pop	 ebp
  00108	c2 08 00	 ret	 8
_TEXT	ENDS
;	COMDAT text$x
text$x	SEGMENT
$L203613:
  00000	8b 4d e8	 mov	 ecx, DWORD PTR _this$[ebp]
  00003	e9 00 00 00 00	 jmp	 ??1CDC@@UAE@XZ		; CDC::~CDC
$L203614:
  00008	8b 45 ec	 mov	 eax, DWORD PTR $T203610[ebp]
  0000b	50		 push	 eax
  0000c	e8 00 00 00 00	 call	 ??3CObject@@SGXPAX@Z	; CObject::operator delete
  00011	c3		 ret	 0
__ehhandler$??0CMemDC@@QAE@PAVCDC@@ABVCRect@@@Z:
  00012	b8 00 00 00 00	 mov	 eax, OFFSET FLAT:$T203616
  00017	e9 00 00 00 00	 jmp	 ___CxxFrameHandler
text$x	ENDS
??0CMemDC@@QAE@PAVCDC@@ABVCRect@@@Z ENDP		; CMemDC::CMemDC
; Function compile flags: /Odt
; File d:\program files (x86)\microsoft visual studio .net 2003\vc7\atlmfc\include\afx.inl
;	COMDAT ?Serialize@CObject@@UAEXAAVCArchive@@@Z
_TEXT	SEGMENT
_this$ = -4						; size = 4
___formal$ = 8						; size = 4
?Serialize@CObject@@UAEXAAVCArchive@@@Z PROC NEAR	; CObject::Serialize, COMDAT
; _this$ = ecx

; 25   : 	{ /* CObject does not serialize anything by default */ }

  00000	55		 push	 ebp
  00001	8b ec		 mov	 ebp, esp
  00003	51		 push	 ecx
  00004	89 4d fc	 mov	 DWORD PTR _this$[ebp], ecx
  00007	8b e5		 mov	 esp, ebp
  00009	5d		 pop	 ebp
  0000a	c2 04 00	 ret	 4
?Serialize@CObject@@UAEXAAVCArchive@@@Z ENDP		; CObject::Serialize
; Function compile flags: /Odt
_TEXT	ENDS
;	COMDAT ??3CObject@@SGXPAX@Z
_TEXT	SEGMENT
_p$ = 8							; size = 4
??3CObject@@SGXPAX@Z PROC NEAR				; CObject::operator delete, COMDAT

; 31   : 	{ ::operator delete(p); }

  00000	55		 push	 ebp
  00001	8b ec		 mov	 ebp, esp
  00003	8b 45 08	 mov	 eax, DWORD PTR _p$[ebp]
  00006	50		 push	 eax
  00007	e8 00 00 00 00	 call	 ??3@YAXPAX@Z		; operator delete
  0000c	83 c4 04	 add	 esp, 4
  0000f	5d		 pop	 ebp
  00010	c2 04 00	 ret	 4
??3CObject@@SGXPAX@Z ENDP				; CObject::operator delete
; Function compile flags: /Odt
_TEXT	ENDS
;	COMDAT ??2CObject@@SGPAXI@Z
_TEXT	SEGMENT
_nSize$ = 8						; size = 4
??2CObject@@SGPAXI@Z PROC NEAR				; CObject::operator new, COMDAT

; 37   : 	{ return ::operator new(nSize); }

  00000	55		 push	 ebp
  00001	8b ec		 mov	 ebp, esp
  00003	8b 45 08	 mov	 eax, DWORD PTR _nSize$[ebp]
  00006	50		 push	 eax
  00007	e8 00 00 00 00	 call	 ??2@YAPAXI@Z		; operator new
  0000c	83 c4 04	 add	 esp, 4
  0000f	5d		 pop	 ebp
  00010	c2 04 00	 ret	 4
??2CObject@@SGPAXI@Z ENDP				; CObject::operator new
; Function compile flags: /Odt
_TEXT	ENDS
;	COMDAT ?AssertValid@CObject@@UBEXXZ
_TEXT	SEGMENT
_this$ = -4						; size = 4
?AssertValid@CObject@@UBEXXZ PROC NEAR			; CObject::AssertValid, COMDAT
; _this$ = ecx

; 41   : 	{ /* no asserts in release builds */ }

  00000	55		 push	 ebp
  00001	8b ec		 mov	 ebp, esp
  00003	51		 push	 ecx
  00004	89 4d fc	 mov	 DWORD PTR _this$[ebp], ecx
  00007	8b e5		 mov	 esp, ebp
  00009	5d		 pop	 ebp
  0000a	c3		 ret	 0
?AssertValid@CObject@@UBEXXZ ENDP			; CObject::AssertValid
; Function compile flags: /Odt
_TEXT	ENDS
;	COMDAT ?Dump@CObject@@UBEXAAVCDumpContext@@@Z
_TEXT	SEGMENT
_this$ = -4						; size = 4
___formal$ = 8						; size = 4
?Dump@CObject@@UBEXAAVCDumpContext@@@Z PROC NEAR	; CObject::Dump, COMDAT
; _this$ = ecx

; 43   : 	{ /* no dumping in release builds */ }

  00000	55		 push	 ebp
  00001	8b ec		 mov	 ebp, esp
  00003	51		 push	 ecx
  00004	89 4d fc	 mov	 DWORD PTR _this$[ebp], ecx
  00007	8b e5		 mov	 esp, ebp
  00009	5d		 pop	 ebp
  0000a	c2 04 00	 ret	 4
?Dump@CObject@@UBEXAAVCDumpContext@@@Z ENDP		; CObject::Dump
_TEXT	ENDS
PUBLIC	??_R0?AVCGdiObject@@@8				; CGdiObject `RTTI Type Descriptor'
PUBLIC	??_R1A@?0A@A@CGdiObject@@8			; CGdiObject::`RTTI Base Class Descriptor at (0,-1,0,0)'
PUBLIC	??_R4CBitmap@@6B@				; CBitmap::`RTTI Complete Object Locator'
PUBLIC	??_R0?AVCBitmap@@@8				; CBitmap `RTTI Type Descriptor'
PUBLIC	??_R3CBitmap@@8					; CBitmap::`RTTI Class Hierarchy Descriptor'
PUBLIC	??_R2CBitmap@@8					; CBitmap::`RTTI Base Class Array'
PUBLIC	??_R1A@?0A@A@CBitmap@@8				; CBitmap::`RTTI Base Class Descriptor at (0,-1,0,0)'
PUBLIC	??0CGdiObject@@QAE@XZ				; CGdiObject::CGdiObject
PUBLIC	??_7CBitmap@@6B@				; CBitmap::`vftable'
PUBLIC	??_GCBitmap@@UAEPAXI@Z				; CBitmap::`scalar deleting destructor'
EXTRN	?GetRuntimeClass@CBitmap@@UBEPAUCRuntimeClass@@XZ:NEAR ; CBitmap::GetRuntimeClass
EXTRN	??_ECBitmap@@UAEPAXI@Z:NEAR			; CBitmap::`vector deleting destructor'
;	COMDAT ??_7CBitmap@@6B@
; File d:\program files (x86)\microsoft visual studio .net 2003\vc7\atlmfc\include\afxwin1.inl
CONST	SEGMENT
??_7CBitmap@@6B@ DD FLAT:??_R4CBitmap@@6B@		; CBitmap::`vftable'
	DD	FLAT:?GetRuntimeClass@CBitmap@@UBEPAUCRuntimeClass@@XZ
	DD	FLAT:??_ECBitmap@@UAEPAXI@Z
	DD	FLAT:?Serialize@CObject@@UAEXAAVCArchive@@@Z
	DD	FLAT:?AssertValid@CObject@@UBEXXZ
	DD	FLAT:?Dump@CObject@@UBEXAAVCDumpContext@@@Z
CONST	ENDS
;	COMDAT ??_R4CBitmap@@6B@
rdata$r	SEGMENT
??_R4CBitmap@@6B@ DD 00H				; CBitmap::`RTTI Complete Object Locator'
	DD	00H
	DD	00H
	DD	FLAT:??_R0?AVCBitmap@@@8
	DD	FLAT:??_R3CBitmap@@8
rdata$r	ENDS
;	COMDAT ??_R0?AVCBitmap@@@8
_DATA	SEGMENT
??_R0?AVCBitmap@@@8 DD FLAT:??_7type_info@@6B@		; CBitmap `RTTI Type Descriptor'
	DD	00H
	DB	'.?AVCBitmap@@', 00H
_DATA	ENDS
;	COMDAT ??_R3CBitmap@@8
rdata$r	SEGMENT
??_R3CBitmap@@8 DD 00H					; CBitmap::`RTTI Class Hierarchy Descriptor'
	DD	00H
	DD	03H
	DD	FLAT:??_R2CBitmap@@8
rdata$r	ENDS
;	COMDAT ??_R2CBitmap@@8
rdata$r	SEGMENT
??_R2CBitmap@@8 DD FLAT:??_R1A@?0A@A@CBitmap@@8		; CBitmap::`RTTI Base Class Array'
	DD	FLAT:??_R1A@?0A@A@CGdiObject@@8
	DD	FLAT:??_R1A@?0A@A@CObject@@8
rdata$r	ENDS
;	COMDAT ??_R1A@?0A@A@CBitmap@@8
rdata$r	SEGMENT
??_R1A@?0A@A@CBitmap@@8 DD FLAT:??_R0?AVCBitmap@@@8	; CBitmap::`RTTI Base Class Descriptor at (0,-1,0,0)'
	DD	02H
	DD	00H
	DD	0ffffffffH
	DD	00H
	DD	00H
rdata$r	ENDS
;	COMDAT ??_R1A@?0A@A@CGdiObject@@8
rdata$r	SEGMENT
??_R1A@?0A@A@CGdiObject@@8 DD FLAT:??_R0?AVCGdiObject@@@8 ; CGdiObject::`RTTI Base Class Descriptor at (0,-1,0,0)'
	DD	01H
	DD	00H
	DD	0ffffffffH
	DD	00H
	DD	00H
rdata$r	ENDS
;	COMDAT ??_R0?AVCGdiObject@@@8
_DATA	SEGMENT
??_R0?AVCGdiObject@@@8 DD FLAT:??_7type_info@@6B@	; CGdiObject `RTTI Type Descriptor'
	DD	00H
	DB	'.?AVCGdiObject@@', 00H
; Function compile flags: /Odt
_DATA	ENDS
;	COMDAT ??0CBitmap@@QAE@XZ
_TEXT	SEGMENT
_this$ = -4						; size = 4
??0CBitmap@@QAE@XZ PROC NEAR				; CBitmap::CBitmap, COMDAT
; _this$ = ecx

; 177  : 	{ }

  00000	55		 push	 ebp
  00001	8b ec		 mov	 ebp, esp
  00003	51		 push	 ecx
  00004	89 4d fc	 mov	 DWORD PTR _this$[ebp], ecx
  00007	8b 4d fc	 mov	 ecx, DWORD PTR _this$[ebp]
  0000a	e8 00 00 00 00	 call	 ??0CGdiObject@@QAE@XZ	; CGdiObject::CGdiObject
  0000f	8b 45 fc	 mov	 eax, DWORD PTR _this$[ebp]
  00012	c7 00 00 00 00
	00		 mov	 DWORD PTR [eax], OFFSET FLAT:??_7CBitmap@@6B@
  00018	8b 45 fc	 mov	 eax, DWORD PTR _this$[ebp]
  0001b	8b e5		 mov	 esp, ebp
  0001d	5d		 pop	 ebp
  0001e	c3		 ret	 0
??0CBitmap@@QAE@XZ ENDP					; CBitmap::CBitmap
_TEXT	ENDS
PUBLIC	??_R4CGdiObject@@6B@				; CGdiObject::`RTTI Complete Object Locator'
PUBLIC	??_R3CGdiObject@@8				; CGdiObject::`RTTI Class Hierarchy Descriptor'
PUBLIC	??_R2CGdiObject@@8				; CGdiObject::`RTTI Base Class Array'
PUBLIC	??0CObject@@IAE@XZ				; CObject::CObject
PUBLIC	??_7CGdiObject@@6B@				; CGdiObject::`vftable'
PUBLIC	??_GCGdiObject@@UAEPAXI@Z			; CGdiObject::`scalar deleting destructor'
EXTRN	?GetRuntimeClass@CGdiObject@@UBEPAUCRuntimeClass@@XZ:NEAR ; CGdiObject::GetRuntimeClass
EXTRN	??_ECGdiObject@@UAEPAXI@Z:NEAR			; CGdiObject::`vector deleting destructor'
;	COMDAT ??_7CGdiObject@@6B@
CONST	SEGMENT
??_7CGdiObject@@6B@ DD FLAT:??_R4CGdiObject@@6B@	; CGdiObject::`vftable'
	DD	FLAT:?GetRuntimeClass@CGdiObject@@UBEPAUCRuntimeClass@@XZ
	DD	FLAT:??_ECGdiObject@@UAEPAXI@Z
	DD	FLAT:?Serialize@CObject@@UAEXAAVCArchive@@@Z
	DD	FLAT:?AssertValid@CObject@@UBEXXZ
	DD	FLAT:?Dump@CObject@@UBEXAAVCDumpContext@@@Z
CONST	ENDS
;	COMDAT ??_R4CGdiObject@@6B@
rdata$r	SEGMENT
??_R4CGdiObject@@6B@ DD 00H				; CGdiObject::`RTTI Complete Object Locator'
	DD	00H
	DD	00H
	DD	FLAT:??_R0?AVCGdiObject@@@8
	DD	FLAT:??_R3CGdiObject@@8
rdata$r	ENDS
;	COMDAT ??_R3CGdiObject@@8
rdata$r	SEGMENT
??_R3CGdiObject@@8 DD 00H				; CGdiObject::`RTTI Class Hierarchy Descriptor'
	DD	00H
	DD	02H
	DD	FLAT:??_R2CGdiObject@@8
rdata$r	ENDS
;	COMDAT ??_R2CGdiObject@@8
rdata$r	SEGMENT
??_R2CGdiObject@@8 DD FLAT:??_R1A@?0A@A@CGdiObject@@8	; CGdiObject::`RTTI Base Class Array'
	DD	FLAT:??_R1A@?0A@A@CObject@@8
; Function compile flags: /Odt
rdata$r	ENDS
;	COMDAT ??0CGdiObject@@QAE@XZ
_TEXT	SEGMENT
_this$ = -4						; size = 4
??0CGdiObject@@QAE@XZ PROC NEAR				; CGdiObject::CGdiObject, COMDAT
; _this$ = ecx

; 82   : 	{ m_hObject = NULL; }

  00000	55		 push	 ebp
  00001	8b ec		 mov	 ebp, esp
  00003	51		 push	 ecx
  00004	89 4d fc	 mov	 DWORD PTR _this$[ebp], ecx
  00007	8b 4d fc	 mov	 ecx, DWORD PTR _this$[ebp]
  0000a	e8 00 00 00 00	 call	 ??0CObject@@IAE@XZ	; CObject::CObject
  0000f	8b 45 fc	 mov	 eax, DWORD PTR _this$[ebp]
  00012	c7 00 00 00 00
	00		 mov	 DWORD PTR [eax], OFFSET FLAT:??_7CGdiObject@@6B@
  00018	8b 4d fc	 mov	 ecx, DWORD PTR _this$[ebp]
  0001b	c7 41 04 00 00
	00 00		 mov	 DWORD PTR [ecx+4], 0
  00022	8b 45 fc	 mov	 eax, DWORD PTR _this$[ebp]
  00025	8b e5		 mov	 esp, ebp
  00027	5d		 pop	 ebp
  00028	c3		 ret	 0
??0CGdiObject@@QAE@XZ ENDP				; CGdiObject::CGdiObject
; Function compile flags: /Odt
; File d:\program files (x86)\microsoft visual studio .net 2003\vc7\atlmfc\include\afx.inl
_TEXT	ENDS
;	COMDAT ??0CObject@@IAE@XZ
_TEXT	SEGMENT
_this$ = -4						; size = 4
??0CObject@@IAE@XZ PROC NEAR				; CObject::CObject, COMDAT
; _this$ = ecx

; 21   : 	{ }

  00000	55		 push	 ebp
  00001	8b ec		 mov	 ebp, esp
  00003	51		 push	 ecx
  00004	89 4d fc	 mov	 DWORD PTR _this$[ebp], ecx
  00007	8b 45 fc	 mov	 eax, DWORD PTR _this$[ebp]
  0000a	8b e5		 mov	 esp, ebp
  0000c	5d		 pop	 ebp
  0000d	c3		 ret	 0
??0CObject@@IAE@XZ ENDP					; CObject::CObject
_TEXT	ENDS
PUBLIC	??1CGdiObject@@UAE@XZ				; CGdiObject::~CGdiObject
; Function compile flags: /Odt
;	COMDAT ??_GCGdiObject@@UAEPAXI@Z
_TEXT	SEGMENT
_this$ = -4						; size = 4
___flags$ = 8						; size = 4
??_GCGdiObject@@UAEPAXI@Z PROC NEAR			; CGdiObject::`scalar deleting destructor', COMDAT
; _this$ = ecx
  00000	55		 push	 ebp
  00001	8b ec		 mov	 ebp, esp
  00003	51		 push	 ecx
  00004	89 4d fc	 mov	 DWORD PTR _this$[ebp], ecx
  00007	8b 4d fc	 mov	 ecx, DWORD PTR _this$[ebp]
  0000a	e8 00 00 00 00	 call	 ??1CGdiObject@@UAE@XZ	; CGdiObject::~CGdiObject
  0000f	8b 45 08	 mov	 eax, DWORD PTR ___flags$[ebp]
  00012	83 e0 01	 and	 eax, 1
  00015	74 09		 je	 SHORT $L41495
  00017	8b 4d fc	 mov	 ecx, DWORD PTR _this$[ebp]
  0001a	51		 push	 ecx
  0001b	e8 00 00 00 00	 call	 ??3CObject@@SGXPAX@Z	; CObject::operator delete
$L41495:
  00020	8b 45 fc	 mov	 eax, DWORD PTR _this$[ebp]
  00023	8b e5		 mov	 esp, ebp
  00025	5d		 pop	 ebp
  00026	c2 04 00	 ret	 4
??_GCGdiObject@@UAEPAXI@Z ENDP				; CGdiObject::`scalar deleting destructor'
_TEXT	ENDS
PUBLIC	??1CObject@@UAE@XZ				; CObject::~CObject
EXTRN	?DeleteObject@CGdiObject@@QAEHXZ:NEAR		; CGdiObject::DeleteObject
;	COMDAT xdata$x
; File d:\program files (x86)\microsoft visual studio .net 2003\vc7\atlmfc\include\afxwin1.inl
xdata$x	SEGMENT
$T203647 DD	0ffffffffH
	DD	FLAT:$L203643
$T203645 DD	019930520H
	DD	01H
	DD	FLAT:$T203647
	DD	2 DUP(00H)
	DD	2 DUP(00H)
; Function compile flags: /Odt
xdata$x	ENDS
;	COMDAT ??1CGdiObject@@UAE@XZ
_TEXT	SEGMENT
_this$ = -16						; size = 4
__$EHRec$ = -12						; size = 12
??1CGdiObject@@UAE@XZ PROC NEAR				; CGdiObject::~CGdiObject, COMDAT
; _this$ = ecx

; 84   : 	{ DeleteObject(); }

  00000	55		 push	 ebp
  00001	8b ec		 mov	 ebp, esp
  00003	6a ff		 push	 -1
  00005	68 00 00 00 00	 push	 __ehhandler$??1CGdiObject@@UAE@XZ
  0000a	64 a1 00 00 00
	00		 mov	 eax, DWORD PTR fs:__except_list
  00010	50		 push	 eax
  00011	64 89 25 00 00
	00 00		 mov	 DWORD PTR fs:__except_list, esp
  00018	51		 push	 ecx
  00019	89 4d f0	 mov	 DWORD PTR _this$[ebp], ecx
  0001c	8b 45 f0	 mov	 eax, DWORD PTR _this$[ebp]
  0001f	c7 00 00 00 00
	00		 mov	 DWORD PTR [eax], OFFSET FLAT:??_7CGdiObject@@6B@
  00025	c7 45 fc 00 00
	00 00		 mov	 DWORD PTR __$EHRec$[ebp+8], 0
  0002c	8b 4d f0	 mov	 ecx, DWORD PTR _this$[ebp]
  0002f	e8 00 00 00 00	 call	 ?DeleteObject@CGdiObject@@QAEHXZ ; CGdiObject::DeleteObject
  00034	c7 45 fc ff ff
	ff ff		 mov	 DWORD PTR __$EHRec$[ebp+8], -1
  0003b	8b 4d f0	 mov	 ecx, DWORD PTR _this$[ebp]
  0003e	e8 00 00 00 00	 call	 ??1CObject@@UAE@XZ	; CObject::~CObject
  00043	8b 4d f4	 mov	 ecx, DWORD PTR __$EHRec$[ebp]
  00046	64 89 0d 00 00
	00 00		 mov	 DWORD PTR fs:__except_list, ecx
  0004d	8b e5		 mov	 esp, ebp
  0004f	5d		 pop	 ebp
  00050	c3		 ret	 0
_TEXT	ENDS
;	COMDAT text$x
text$x	SEGMENT
$L203643:
  00000	8b 4d f0	 mov	 ecx, DWORD PTR _this$[ebp]
  00003	e9 00 00 00 00	 jmp	 ??1CObject@@UAE@XZ	; CObject::~CObject
__ehhandler$??1CGdiObject@@UAE@XZ:
  00008	b8 00 00 00 00	 mov	 eax, OFFSET FLAT:$T203645
  0000d	e9 00 00 00 00	 jmp	 ___CxxFrameHandler
text$x	ENDS
??1CGdiObject@@UAE@XZ ENDP				; CGdiObject::~CGdiObject
; Function compile flags: /Odt
; File d:\program files (x86)\microsoft visual studio .net 2003\vc7\atlmfc\include\afx.inl
;	COMDAT ??1CObject@@UAE@XZ
_TEXT	SEGMENT
_this$ = -4						; size = 4
??1CObject@@UAE@XZ PROC NEAR				; CObject::~CObject, COMDAT
; _this$ = ecx

; 23   : 	{ }

  00000	55		 push	 ebp
  00001	8b ec		 mov	 ebp, esp
  00003	51		 push	 ecx
  00004	89 4d fc	 mov	 DWORD PTR _this$[ebp], ecx
  00007	8b e5		 mov	 esp, ebp
  00009	5d		 pop	 ebp
  0000a	c3		 ret	 0
??1CObject@@UAE@XZ ENDP					; CObject::~CObject
_TEXT	ENDS
PUBLIC	??1CBitmap@@UAE@XZ				; CBitmap::~CBitmap
; Function compile flags: /Odt
;	COMDAT ??_GCBitmap@@UAEPAXI@Z
_TEXT	SEGMENT
_this$ = -4						; size = 4
___flags$ = 8						; size = 4
??_GCBitmap@@UAEPAXI@Z PROC NEAR			; CBitmap::`scalar deleting destructor', COMDAT
; _this$ = ecx
  00000	55		 push	 ebp
  00001	8b ec		 mov	 ebp, esp
  00003	51		 push	 ecx
  00004	89 4d fc	 mov	 DWORD PTR _this$[ebp], ecx
  00007	8b 4d fc	 mov	 ecx, DWORD PTR _this$[ebp]
  0000a	e8 00 00 00 00	 call	 ??1CBitmap@@UAE@XZ	; CBitmap::~CBitmap
  0000f	8b 45 08	 mov	 eax, DWORD PTR ___flags$[ebp]
  00012	83 e0 01	 and	 eax, 1
  00015	74 09		 je	 SHORT $L41685
  00017	8b 4d fc	 mov	 ecx, DWORD PTR _this$[ebp]
  0001a	51		 push	 ecx
  0001b	e8 00 00 00 00	 call	 ??3CObject@@SGXPAX@Z	; CObject::operator delete
$L41685:
  00020	8b 45 fc	 mov	 eax, DWORD PTR _this$[ebp]
  00023	8b e5		 mov	 esp, ebp
  00025	5d		 pop	 ebp
  00026	c2 04 00	 ret	 4
??_GCBitmap@@UAEPAXI@Z ENDP				; CBitmap::`scalar deleting destructor'
; Function compile flags: /Odt
; File d:\program files (x86)\microsoft visual studio .net 2003\vc7\atlmfc\include\afxwin1.inl
_TEXT	ENDS
;	COMDAT ??1CBitmap@@UAE@XZ
_TEXT	SEGMENT
_this$ = -4						; size = 4
??1CBitmap@@UAE@XZ PROC NEAR				; CBitmap::~CBitmap, COMDAT
; _this$ = ecx

; 179  : 	{ }

  00000	55		 push	 ebp
  00001	8b ec		 mov	 ebp, esp
  00003	51		 push	 ecx
  00004	89 4d fc	 mov	 DWORD PTR _this$[ebp], ecx
  00007	8b 45 fc	 mov	 eax, DWORD PTR _this$[ebp]
  0000a	c7 00 00 00 00
	00		 mov	 DWORD PTR [eax], OFFSET FLAT:??_7CBitmap@@6B@
  00010	8b 4d fc	 mov	 ecx, DWORD PTR _this$[ebp]
  00013	e8 00 00 00 00	 call	 ??1CGdiObject@@UAE@XZ	; CGdiObject::~CGdiObject
  00018	8b e5		 mov	 esp, ebp
  0001a	5d		 pop	 ebp
  0001b	c3		 ret	 0
??1CBitmap@@UAE@XZ ENDP					; CBitmap::~CBitmap
_TEXT	ENDS
EXTRN	__imp__CreateCompatibleBitmap@12:NEAR
EXTRN	?Attach@CGdiObject@@QAEHPAX@Z:NEAR		; CGdiObject::Attach
; Function compile flags: /Odt
;	COMDAT ?CreateCompatibleBitmap@CBitmap@@QAEHPAVCDC@@HH@Z
_TEXT	SEGMENT
_this$ = -4						; size = 4
_pDC$ = 8						; size = 4
_nWidth$ = 12						; size = 4
_nHeight$ = 16						; size = 4
?CreateCompatibleBitmap@CBitmap@@QAEHPAVCDC@@HH@Z PROC NEAR ; CBitmap::CreateCompatibleBitmap, COMDAT
; _this$ = ecx

; 217  : 	{ return Attach(::CreateCompatibleBitmap(pDC->m_hDC, nWidth, nHeight)); }

  00000	55		 push	 ebp
  00001	8b ec		 mov	 ebp, esp
  00003	51		 push	 ecx
  00004	89 4d fc	 mov	 DWORD PTR _this$[ebp], ecx
  00007	8b 45 10	 mov	 eax, DWORD PTR _nHeight$[ebp]
  0000a	50		 push	 eax
  0000b	8b 4d 0c	 mov	 ecx, DWORD PTR _nWidth$[ebp]
  0000e	51		 push	 ecx
  0000f	8b 55 08	 mov	 edx, DWORD PTR _pDC$[ebp]
  00012	8b 42 04	 mov	 eax, DWORD PTR [edx+4]
  00015	50		 push	 eax
  00016	ff 15 00 00 00
	00		 call	 DWORD PTR __imp__CreateCompatibleBitmap@12
  0001c	50		 push	 eax
  0001d	8b 4d fc	 mov	 ecx, DWORD PTR _this$[ebp]
  00020	e8 00 00 00 00	 call	 ?Attach@CGdiObject@@QAEHPAX@Z ; CGdiObject::Attach
  00025	8b e5		 mov	 esp, ebp
  00027	5d		 pop	 ebp
  00028	c2 0c 00	 ret	 12			; 0000000cH
?CreateCompatibleBitmap@CBitmap@@QAEHPAVCDC@@HH@Z ENDP	; CBitmap::CreateCompatibleBitmap
_TEXT	ENDS
PUBLIC	?GetSafeHdc@CDC@@QBEPAUHDC__@@XZ		; CDC::GetSafeHdc
EXTRN	?Attach@CDC@@QAEHPAUHDC__@@@Z:NEAR		; CDC::Attach
EXTRN	__imp__CreateCompatibleDC@4:NEAR
; Function compile flags: /Odt
;	COMDAT ?CreateCompatibleDC@CDC@@QAEHPAV1@@Z
_TEXT	SEGMENT
_this$ = -4						; size = 4
_pDC$ = 8						; size = 4
?CreateCompatibleDC@CDC@@QAEHPAV1@@Z PROC NEAR		; CDC::CreateCompatibleDC, COMDAT
; _this$ = ecx

; 330  : 	{ return Attach(::CreateCompatibleDC(pDC->GetSafeHdc())); }

  00000	55		 push	 ebp
  00001	8b ec		 mov	 ebp, esp
  00003	51		 push	 ecx
  00004	89 4d fc	 mov	 DWORD PTR _this$[ebp], ecx
  00007	8b 4d 08	 mov	 ecx, DWORD PTR _pDC$[ebp]
  0000a	e8 00 00 00 00	 call	 ?GetSafeHdc@CDC@@QBEPAUHDC__@@XZ ; CDC::GetSafeHdc
  0000f	50		 push	 eax
  00010	ff 15 00 00 00
	00		 call	 DWORD PTR __imp__CreateCompatibleDC@4
  00016	50		 push	 eax
  00017	8b 4d fc	 mov	 ecx, DWORD PTR _this$[ebp]
  0001a	e8 00 00 00 00	 call	 ?Attach@CDC@@QAEHPAUHDC__@@@Z ; CDC::Attach
  0001f	8b e5		 mov	 esp, ebp
  00021	5d		 pop	 ebp
  00022	c2 04 00	 ret	 4
?CreateCompatibleDC@CDC@@QAEHPAV1@@Z ENDP		; CDC::CreateCompatibleDC
; Function compile flags: /Odt
_TEXT	ENDS
;	COMDAT ?GetSafeHdc@CDC@@QBEPAUHDC__@@XZ
_TEXT	SEGMENT
tv66 = -8						; size = 4
_this$ = -4						; size = 4
?GetSafeHdc@CDC@@QBEPAUHDC__@@XZ PROC NEAR		; CDC::GetSafeHdc, COMDAT
; _this$ = ecx

; 316  : 	{ return this == NULL ? NULL : m_hDC; }

  00000	55		 push	 ebp
  00001	8b ec		 mov	 ebp, esp
  00003	83 ec 08	 sub	 esp, 8
  00006	89 4d fc	 mov	 DWORD PTR _this$[ebp], ecx
  00009	83 7d fc 00	 cmp	 DWORD PTR _this$[ebp], 0
  0000d	75 09		 jne	 SHORT $L203663
  0000f	c7 45 f8 00 00
	00 00		 mov	 DWORD PTR tv66[ebp], 0
  00016	eb 09		 jmp	 SHORT $L203664
$L203663:
  00018	8b 45 fc	 mov	 eax, DWORD PTR _this$[ebp]
  0001b	8b 48 04	 mov	 ecx, DWORD PTR [eax+4]
  0001e	89 4d f8	 mov	 DWORD PTR tv66[ebp], ecx
$L203664:
  00021	8b 45 f8	 mov	 eax, DWORD PTR tv66[ebp]
  00024	8b e5		 mov	 esp, ebp
  00026	5d		 pop	 ebp
  00027	c3		 ret	 0
?GetSafeHdc@CDC@@QBEPAUHDC__@@XZ ENDP			; CDC::GetSafeHdc
_TEXT	ENDS
PUBLIC	?GetSafeHandle@CGdiObject@@QBEPAXXZ		; CGdiObject::GetSafeHandle
EXTRN	?SelectGdiObject@CDC@@KGPAVCGdiObject@@PAUHDC__@@PAX@Z:NEAR ; CDC::SelectGdiObject
; Function compile flags: /Odt
;	COMDAT ?SelectObject@CDC@@QAEPAVCBitmap@@PAV2@@Z
_TEXT	SEGMENT
_this$ = -4						; size = 4
_pBitmap$ = 8						; size = 4
?SelectObject@CDC@@QAEPAVCBitmap@@PAV2@@Z PROC NEAR	; CDC::SelectObject, COMDAT
; _this$ = ecx

; 361  : 	{ ASSERT(m_hDC != NULL); return (CBitmap*) SelectGdiObject(m_hDC, pBitmap->GetSafeHandle()); }

  00000	55		 push	 ebp
  00001	8b ec		 mov	 ebp, esp
  00003	51		 push	 ecx
  00004	89 4d fc	 mov	 DWORD PTR _this$[ebp], ecx
  00007	8b 4d 08	 mov	 ecx, DWORD PTR _pBitmap$[ebp]
  0000a	e8 00 00 00 00	 call	 ?GetSafeHandle@CGdiObject@@QBEPAXXZ ; CGdiObject::GetSafeHandle
  0000f	50		 push	 eax
  00010	8b 45 fc	 mov	 eax, DWORD PTR _this$[ebp]
  00013	8b 48 04	 mov	 ecx, DWORD PTR [eax+4]
  00016	51		 push	 ecx
  00017	e8 00 00 00 00	 call	 ?SelectGdiObject@CDC@@KGPAVCGdiObject@@PAUHDC__@@PAX@Z ; CDC::SelectGdiObject
  0001c	8b e5		 mov	 esp, ebp
  0001e	5d		 pop	 ebp
  0001f	c2 04 00	 ret	 4
?SelectObject@CDC@@QAEPAVCBitmap@@PAV2@@Z ENDP		; CDC::SelectObject
; Function compile flags: /Odt
_TEXT	ENDS
;	COMDAT ?GetSafeHandle@CGdiObject@@QBEPAXXZ
_TEXT	SEGMENT
tv66 = -8						; size = 4
_this$ = -4						; size = 4
?GetSafeHandle@CGdiObject@@QBEPAXXZ PROC NEAR		; CGdiObject::GetSafeHandle, COMDAT
; _this$ = ecx

; 80   : 	{ return this == NULL ? NULL : m_hObject; }

  00000	55		 push	 ebp
  00001	8b ec		 mov	 ebp, esp
  00003	83 ec 08	 sub	 esp, 8
  00006	89 4d fc	 mov	 DWORD PTR _this$[ebp], ecx
  00009	83 7d fc 00	 cmp	 DWORD PTR _this$[ebp], 0
  0000d	75 09		 jne	 SHORT $L203669
  0000f	c7 45 f8 00 00
	00 00		 mov	 DWORD PTR tv66[ebp], 0
  00016	eb 09		 jmp	 SHORT $L203670
$L203669:
  00018	8b 45 fc	 mov	 eax, DWORD PTR _this$[ebp]
  0001b	8b 48 04	 mov	 ecx, DWORD PTR [eax+4]
  0001e	89 4d f8	 mov	 DWORD PTR tv66[ebp], ecx
$L203670:
  00021	8b 45 f8	 mov	 eax, DWORD PTR tv66[ebp]
  00024	8b e5		 mov	 esp, ebp
  00026	5d		 pop	 ebp
  00027	c3		 ret	 0
?GetSafeHandle@CGdiObject@@QBEPAXXZ ENDP		; CGdiObject::GetSafeHandle
_TEXT	ENDS
EXTRN	__imp__PtVisible@12:NEAR
; Function compile flags: /Odt
;	COMDAT ?PtVisible@CDC@@UBEHHH@Z
_TEXT	SEGMENT
_this$ = -4						; size = 4
_x$ = 8							; size = 4
_y$ = 12						; size = 4
?PtVisible@CDC@@UBEHHH@Z PROC NEAR			; CDC::PtVisible, COMDAT
; _this$ = ecx

; 446  : 	{ ASSERT(m_hDC != NULL); return ::PtVisible(m_hDC, x, y); }

  00000	55		 push	 ebp
  00001	8b ec		 mov	 ebp, esp
  00003	51		 push	 ecx
  00004	89 4d fc	 mov	 DWORD PTR _this$[ebp], ecx
  00007	8b 45 0c	 mov	 eax, DWORD PTR _y$[ebp]
  0000a	50		 push	 eax
  0000b	8b 4d 08	 mov	 ecx, DWORD PTR _x$[ebp]
  0000e	51		 push	 ecx
  0000f	8b 55 fc	 mov	 edx, DWORD PTR _this$[ebp]
  00012	8b 42 04	 mov	 eax, DWORD PTR [edx+4]
  00015	50		 push	 eax
  00016	ff 15 00 00 00
	00		 call	 DWORD PTR __imp__PtVisible@12
  0001c	8b e5		 mov	 esp, ebp
  0001e	5d		 pop	 ebp
  0001f	c2 08 00	 ret	 8
?PtVisible@CDC@@UBEHHH@Z ENDP				; CDC::PtVisible
_TEXT	ENDS
EXTRN	__imp__RectVisible@8:NEAR
; Function compile flags: /Odt
;	COMDAT ?RectVisible@CDC@@UBEHPBUtagRECT@@@Z
_TEXT	SEGMENT
_this$ = -4						; size = 4
_lpRect$ = 8						; size = 4
?RectVisible@CDC@@UBEHPBUtagRECT@@@Z PROC NEAR		; CDC::RectVisible, COMDAT
; _this$ = ecx

; 450  : 	{ ASSERT(m_hDC != NULL); return ::RectVisible(m_hDC, lpRect); }

  00000	55		 push	 ebp
  00001	8b ec		 mov	 ebp, esp
  00003	51		 push	 ecx
  00004	89 4d fc	 mov	 DWORD PTR _this$[ebp], ecx
  00007	8b 45 08	 mov	 eax, DWORD PTR _lpRect$[ebp]
  0000a	50		 push	 eax
  0000b	8b 4d fc	 mov	 ecx, DWORD PTR _this$[ebp]
  0000e	8b 51 04	 mov	 edx, DWORD PTR [ecx+4]
  00011	52		 push	 edx
  00012	ff 15 00 00 00
	00		 call	 DWORD PTR __imp__RectVisible@8
  00018	8b e5		 mov	 esp, ebp
  0001a	5d		 pop	 ebp
  0001b	c2 04 00	 ret	 4
?RectVisible@CDC@@UBEHPBUtagRECT@@@Z ENDP		; CDC::RectVisible
_TEXT	ENDS
EXTRN	__imp__TextOutA@20:NEAR
; Function compile flags: /Odt
;	COMDAT ?TextOutA@CDC@@UAEHHHPBDH@Z
_TEXT	SEGMENT
_this$ = -4						; size = 4
_x$ = 8							; size = 4
_y$ = 12						; size = 4
_lpszString$ = 16					; size = 4
_nCount$ = 20						; size = 4
?TextOutA@CDC@@UAEHHHPBDH@Z PROC NEAR			; CDC::TextOutA, COMDAT
; _this$ = ecx

; 568  : 	{ ASSERT(m_hDC != NULL); return ::TextOut(m_hDC, x, y, lpszString, nCount); }

  00000	55		 push	 ebp
  00001	8b ec		 mov	 ebp, esp
  00003	51		 push	 ecx
  00004	89 4d fc	 mov	 DWORD PTR _this$[ebp], ecx
  00007	8b 45 14	 mov	 eax, DWORD PTR _nCount$[ebp]
  0000a	50		 push	 eax
  0000b	8b 4d 10	 mov	 ecx, DWORD PTR _lpszString$[ebp]
  0000e	51		 push	 ecx
  0000f	8b 55 0c	 mov	 edx, DWORD PTR _y$[ebp]
  00012	52		 push	 edx
  00013	8b 45 08	 mov	 eax, DWORD PTR _x$[ebp]
  00016	50		 push	 eax
  00017	8b 4d fc	 mov	 ecx, DWORD PTR _this$[ebp]
  0001a	8b 51 04	 mov	 edx, DWORD PTR [ecx+4]
  0001d	52		 push	 edx
  0001e	ff 15 00 00 00
	00		 call	 DWORD PTR __imp__TextOutA@20
  00024	8b e5		 mov	 esp, ebp
  00026	5d		 pop	 ebp
  00027	c2 10 00	 ret	 16			; 00000010H
?TextOutA@CDC@@UAEHHHPBDH@Z ENDP			; CDC::TextOutA
_TEXT	ENDS
EXTRN	__imp__ExtTextOutA@32:NEAR
; Function compile flags: /Odt
;	COMDAT ?ExtTextOutA@CDC@@UAEHHHIPBUtagRECT@@PBDIPAH@Z
_TEXT	SEGMENT
_this$ = -4						; size = 4
_x$ = 8							; size = 4
_y$ = 12						; size = 4
_nOptions$ = 16						; size = 4
_lpRect$ = 20						; size = 4
_lpszString$ = 24					; size = 4
_nCount$ = 28						; size = 4
_lpDxWidths$ = 32					; size = 4
?ExtTextOutA@CDC@@UAEHHHIPBUtagRECT@@PBDIPAH@Z PROC NEAR ; CDC::ExtTextOutA, COMDAT
; _this$ = ecx

; 573  : 	{ ASSERT(m_hDC != NULL); return ::ExtTextOut(m_hDC, x, y, nOptions, lpRect,

  00000	55		 push	 ebp
  00001	8b ec		 mov	 ebp, esp
  00003	51		 push	 ecx
  00004	89 4d fc	 mov	 DWORD PTR _this$[ebp], ecx

; 574  : 		lpszString, nCount, lpDxWidths); }

  00007	8b 45 20	 mov	 eax, DWORD PTR _lpDxWidths$[ebp]
  0000a	50		 push	 eax
  0000b	8b 4d 1c	 mov	 ecx, DWORD PTR _nCount$[ebp]
  0000e	51		 push	 ecx
  0000f	8b 55 18	 mov	 edx, DWORD PTR _lpszString$[ebp]
  00012	52		 push	 edx
  00013	8b 45 14	 mov	 eax, DWORD PTR _lpRect$[ebp]
  00016	50		 push	 eax
  00017	8b 4d 10	 mov	 ecx, DWORD PTR _nOptions$[ebp]
  0001a	51		 push	 ecx
  0001b	8b 55 0c	 mov	 edx, DWORD PTR _y$[ebp]
  0001e	52		 push	 edx
  0001f	8b 45 08	 mov	 eax, DWORD PTR _x$[ebp]
  00022	50		 push	 eax
  00023	8b 4d fc	 mov	 ecx, DWORD PTR _this$[ebp]
  00026	8b 51 04	 mov	 edx, DWORD PTR [ecx+4]
  00029	52		 push	 edx
  0002a	ff 15 00 00 00
	00		 call	 DWORD PTR __imp__ExtTextOutA@32
  00030	8b e5		 mov	 esp, ebp
  00032	5d		 pop	 ebp
  00033	c2 1c 00	 ret	 28			; 0000001cH
?ExtTextOutA@CDC@@UAEHHHIPBUtagRECT@@PBDIPAH@Z ENDP	; CDC::ExtTextOutA
_TEXT	ENDS
PUBLIC	??0CSize@@QAE@K@Z				; CSize::CSize
EXTRN	__imp__TabbedTextOutA@32:NEAR
; Function compile flags: /Odt
;	COMDAT ?TabbedTextOutA@CDC@@UAE?AVCSize@@HHPBDHHPAHH@Z
_TEXT	SEGMENT
_this$ = -4						; size = 4
___$ReturnUdt$ = 8					; size = 4
_x$ = 12						; size = 4
_y$ = 16						; size = 4
_lpszString$ = 20					; size = 4
_nCount$ = 24						; size = 4
_nTabPositions$ = 28					; size = 4
_lpnTabStopPositions$ = 32				; size = 4
_nTabOrigin$ = 36					; size = 4
?TabbedTextOutA@CDC@@UAE?AVCSize@@HHPBDHHPAHH@Z PROC NEAR ; CDC::TabbedTextOutA, COMDAT
; _this$ = ecx

; 581  : 	{ ASSERT(m_hDC != NULL); return ::TabbedTextOut(m_hDC, x, y, lpszString, nCount,

  00000	55		 push	 ebp
  00001	8b ec		 mov	 ebp, esp
  00003	51		 push	 ecx
  00004	89 4d fc	 mov	 DWORD PTR _this$[ebp], ecx

; 582  : 		nTabPositions, lpnTabStopPositions, nTabOrigin); }

  00007	8b 45 24	 mov	 eax, DWORD PTR _nTabOrigin$[ebp]
  0000a	50		 push	 eax
  0000b	8b 4d 20	 mov	 ecx, DWORD PTR _lpnTabStopPositions$[ebp]
  0000e	51		 push	 ecx
  0000f	8b 55 1c	 mov	 edx, DWORD PTR _nTabPositions$[ebp]
  00012	52		 push	 edx
  00013	8b 45 18	 mov	 eax, DWORD PTR _nCount$[ebp]
  00016	50		 push	 eax
  00017	8b 4d 14	 mov	 ecx, DWORD PTR _lpszString$[ebp]
  0001a	51		 push	 ecx
  0001b	8b 55 10	 mov	 edx, DWORD PTR _y$[ebp]
  0001e	52		 push	 edx
  0001f	8b 45 0c	 mov	 eax, DWORD PTR _x$[ebp]
  00022	50		 push	 eax
  00023	8b 4d fc	 mov	 ecx, DWORD PTR _this$[ebp]
  00026	8b 51 04	 mov	 edx, DWORD PTR [ecx+4]
  00029	52		 push	 edx
  0002a	ff 15 00 00 00
	00		 call	 DWORD PTR __imp__TabbedTextOutA@32
  00030	50		 push	 eax
  00031	8b 4d 08	 mov	 ecx, DWORD PTR ___$ReturnUdt$[ebp]
  00034	e8 00 00 00 00	 call	 ??0CSize@@QAE@K@Z	; CSize::CSize
  00039	8b 45 08	 mov	 eax, DWORD PTR ___$ReturnUdt$[ebp]
  0003c	8b e5		 mov	 esp, ebp
  0003e	5d		 pop	 ebp
  0003f	c2 20 00	 ret	 32			; 00000020H
?TabbedTextOutA@CDC@@UAE?AVCSize@@HHPBDHHPAHH@Z ENDP	; CDC::TabbedTextOutA
; Function compile flags: /Odt
; File d:\program files (x86)\microsoft visual studio .net 2003\vc7\atlmfc\include\atltypes.inl
_TEXT	ENDS
;	COMDAT ??0CSize@@QAE@K@Z
_TEXT	SEGMENT
_this$ = -4						; size = 4
_dwSize$ = 8						; size = 4
??0CSize@@QAE@K@Z PROC NEAR				; CSize::CSize, COMDAT
; _this$ = ecx

; 30   : 	{

  00000	55		 push	 ebp
  00001	8b ec		 mov	 ebp, esp
  00003	51		 push	 ecx
  00004	89 4d fc	 mov	 DWORD PTR _this$[ebp], ecx

; 31   : 		cx = (short)LOWORD(dwSize);

  00007	8b 45 08	 mov	 eax, DWORD PTR _dwSize$[ebp]
  0000a	25 ff ff 00 00	 and	 eax, 65535		; 0000ffffH
  0000f	0f bf c8	 movsx	 ecx, ax
  00012	8b 55 fc	 mov	 edx, DWORD PTR _this$[ebp]
  00015	89 0a		 mov	 DWORD PTR [edx], ecx

; 32   : 		cy = (short)HIWORD(dwSize);

  00017	8b 45 08	 mov	 eax, DWORD PTR _dwSize$[ebp]
  0001a	c1 e8 10	 shr	 eax, 16			; 00000010H
  0001d	0f bf c8	 movsx	 ecx, ax
  00020	8b 55 fc	 mov	 edx, DWORD PTR _this$[ebp]
  00023	89 4a 04	 mov	 DWORD PTR [edx+4], ecx

; 33   : 	}

  00026	8b 45 fc	 mov	 eax, DWORD PTR _this$[ebp]
  00029	8b e5		 mov	 esp, ebp
  0002b	5d		 pop	 ebp
  0002c	c2 04 00	 ret	 4
??0CSize@@QAE@K@Z ENDP					; CSize::CSize
_TEXT	ENDS
EXTRN	__imp__DrawTextA@20:NEAR
; Function compile flags: /Odt
; File d:\program files (x86)\microsoft visual studio .net 2003\vc7\atlmfc\include\afxwin1.inl
;	COMDAT ?DrawTextA@CDC@@UAEHPBDHPAUtagRECT@@I@Z
_TEXT	SEGMENT
_this$ = -4						; size = 4
_lpszString$ = 8					; size = 4
_nCount$ = 12						; size = 4
_lpRect$ = 16						; size = 4
_nFormat$ = 20						; size = 4
?DrawTextA@CDC@@UAEHPBDHPAUtagRECT@@I@Z PROC NEAR	; CDC::DrawTextA, COMDAT
; _this$ = ecx

; 589  : 	{ ASSERT(m_hDC != NULL);

  00000	55		 push	 ebp
  00001	8b ec		 mov	 ebp, esp
  00003	51		 push	 ecx
  00004	89 4d fc	 mov	 DWORD PTR _this$[ebp], ecx

; 590  : 		return ::DrawText(m_hDC, lpszString, nCount, lpRect, nFormat); }

  00007	8b 45 14	 mov	 eax, DWORD PTR _nFormat$[ebp]
  0000a	50		 push	 eax
  0000b	8b 4d 10	 mov	 ecx, DWORD PTR _lpRect$[ebp]
  0000e	51		 push	 ecx
  0000f	8b 55 0c	 mov	 edx, DWORD PTR _nCount$[ebp]
  00012	52		 push	 edx
  00013	8b 45 08	 mov	 eax, DWORD PTR _lpszString$[ebp]
  00016	50		 push	 eax
  00017	8b 4d fc	 mov	 ecx, DWORD PTR _this$[ebp]
  0001a	8b 51 04	 mov	 edx, DWORD PTR [ecx+4]
  0001d	52		 push	 edx
  0001e	ff 15 00 00 00
	00		 call	 DWORD PTR __imp__DrawTextA@20
  00024	8b e5		 mov	 esp, ebp
  00026	5d		 pop	 ebp
  00027	c2 10 00	 ret	 16			; 00000010H
?DrawTextA@CDC@@UAEHPBDHPAUtagRECT@@I@Z ENDP		; CDC::DrawTextA
_TEXT	ENDS
EXTRN	__imp__DrawTextExA@24:NEAR
; Function compile flags: /Odt
;	COMDAT ?DrawTextExA@CDC@@UAEHPADHPAUtagRECT@@IPAUtagDRAWTEXTPARAMS@@@Z
_TEXT	SEGMENT
_this$ = -4						; size = 4
_lpszString$ = 8					; size = 4
_nCount$ = 12						; size = 4
_lpRect$ = 16						; size = 4
_nFormat$ = 20						; size = 4
_lpDTParams$ = 24					; size = 4
?DrawTextExA@CDC@@UAEHPADHPAUtagRECT@@IPAUtagDRAWTEXTPARAMS@@@Z PROC NEAR ; CDC::DrawTextExA, COMDAT
; _this$ = ecx

; 600  : 	{ ASSERT(m_hDC != NULL);

  00000	55		 push	 ebp
  00001	8b ec		 mov	 ebp, esp
  00003	51		 push	 ecx
  00004	89 4d fc	 mov	 DWORD PTR _this$[ebp], ecx

; 601  : 		return ::DrawTextEx(m_hDC, lpszString, nCount, lpRect, nFormat, lpDTParams); }

  00007	8b 45 18	 mov	 eax, DWORD PTR _lpDTParams$[ebp]
  0000a	50		 push	 eax
  0000b	8b 4d 14	 mov	 ecx, DWORD PTR _nFormat$[ebp]
  0000e	51		 push	 ecx
  0000f	8b 55 10	 mov	 edx, DWORD PTR _lpRect$[ebp]
  00012	52		 push	 edx
  00013	8b 45 0c	 mov	 eax, DWORD PTR _nCount$[ebp]
  00016	50		 push	 eax
  00017	8b 4d 08	 mov	 ecx, DWORD PTR _lpszString$[ebp]
  0001a	51		 push	 ecx
  0001b	8b 55 fc	 mov	 edx, DWORD PTR _this$[ebp]
  0001e	8b 42 04	 mov	 eax, DWORD PTR [edx+4]
  00021	50		 push	 eax
  00022	ff 15 00 00 00
	00		 call	 DWORD PTR __imp__DrawTextExA@24
  00028	8b e5		 mov	 esp, ebp
  0002a	5d		 pop	 ebp
  0002b	c2 14 00	 ret	 20			; 00000014H
?DrawTextExA@CDC@@UAEHPADHPAUtagRECT@@IPAUtagDRAWTEXTPARAMS@@@Z ENDP ; CDC::DrawTextExA
_TEXT	ENDS
EXTRN	__imp__GrayStringA@36:NEAR
; Function compile flags: /Odt
;	COMDAT ?GrayStringA@CDC@@UAEHPAVCBrush@@P6GHPAUHDC__@@JH@ZJHHHHH@Z
_TEXT	SEGMENT
_this$ = -4						; size = 4
_pBrush$ = 8						; size = 4
_lpfnOutput$ = 12					; size = 4
_lpData$ = 16						; size = 4
_nCount$ = 20						; size = 4
_x$ = 24						; size = 4
_y$ = 28						; size = 4
_nWidth$ = 32						; size = 4
_nHeight$ = 36						; size = 4
?GrayStringA@CDC@@UAEHPAVCBrush@@P6GHPAUHDC__@@JH@ZJHHHHH@Z PROC NEAR ; CDC::GrayStringA, COMDAT
; _this$ = ecx

; 659  : 	{ ASSERT(m_hDC != NULL); return ::GrayString(m_hDC, (HBRUSH)pBrush->GetSafeHandle(),

  00000	55		 push	 ebp
  00001	8b ec		 mov	 ebp, esp
  00003	51		 push	 ecx
  00004	89 4d fc	 mov	 DWORD PTR _this$[ebp], ecx

; 660  : 		(GRAYSTRINGPROC)lpfnOutput, lpData, nCount, x, y, nWidth, nHeight); }

  00007	8b 45 24	 mov	 eax, DWORD PTR _nHeight$[ebp]
  0000a	50		 push	 eax
  0000b	8b 4d 20	 mov	 ecx, DWORD PTR _nWidth$[ebp]
  0000e	51		 push	 ecx
  0000f	8b 55 1c	 mov	 edx, DWORD PTR _y$[ebp]
  00012	52		 push	 edx
  00013	8b 45 18	 mov	 eax, DWORD PTR _x$[ebp]
  00016	50		 push	 eax
  00017	8b 4d 14	 mov	 ecx, DWORD PTR _nCount$[ebp]
  0001a	51		 push	 ecx
  0001b	8b 55 10	 mov	 edx, DWORD PTR _lpData$[ebp]
  0001e	52		 push	 edx
  0001f	8b 45 0c	 mov	 eax, DWORD PTR _lpfnOutput$[ebp]
  00022	50		 push	 eax
  00023	8b 4d 08	 mov	 ecx, DWORD PTR _pBrush$[ebp]
  00026	e8 00 00 00 00	 call	 ?GetSafeHandle@CGdiObject@@QBEPAXXZ ; CGdiObject::GetSafeHandle
  0002b	50		 push	 eax
  0002c	8b 4d fc	 mov	 ecx, DWORD PTR _this$[ebp]
  0002f	8b 51 04	 mov	 edx, DWORD PTR [ecx+4]
  00032	52		 push	 edx
  00033	ff 15 00 00 00
	00		 call	 DWORD PTR __imp__GrayStringA@36
  00039	8b e5		 mov	 esp, ebp
  0003b	5d		 pop	 ebp
  0003c	c2 20 00	 ret	 32			; 00000020H
?GrayStringA@CDC@@UAEHPAVCBrush@@P6GHPAUHDC__@@JH@ZJHHHHH@Z ENDP ; CDC::GrayStringA
_TEXT	ENDS
EXTRN	__imp__Escape@20:NEAR
; Function compile flags: /Odt
;	COMDAT ?Escape@CDC@@UAEHHHPBDPAX@Z
_TEXT	SEGMENT
_this$ = -4						; size = 4
_nEscape$ = 8						; size = 4
_nCount$ = 12						; size = 4
_lpszInData$ = 16					; size = 4
_lpOutData$ = 20					; size = 4
?Escape@CDC@@UAEHHHPBDPAX@Z PROC NEAR			; CDC::Escape, COMDAT
; _this$ = ecx

; 703  : 	{ ASSERT(m_hDC != NULL); return ::Escape(m_hDC, nEscape, nCount, lpszInData, lpOutData);}

  00000	55		 push	 ebp
  00001	8b ec		 mov	 ebp, esp
  00003	51		 push	 ecx
  00004	89 4d fc	 mov	 DWORD PTR _this$[ebp], ecx
  00007	8b 45 14	 mov	 eax, DWORD PTR _lpOutData$[ebp]
  0000a	50		 push	 eax
  0000b	8b 4d 10	 mov	 ecx, DWORD PTR _lpszInData$[ebp]
  0000e	51		 push	 ecx
  0000f	8b 55 0c	 mov	 edx, DWORD PTR _nCount$[ebp]
  00012	52		 push	 edx
  00013	8b 45 08	 mov	 eax, DWORD PTR _nEscape$[ebp]
  00016	50		 push	 eax
  00017	8b 4d fc	 mov	 ecx, DWORD PTR _this$[ebp]
  0001a	8b 51 04	 mov	 edx, DWORD PTR [ecx+4]
  0001d	52		 push	 edx
  0001e	ff 15 00 00 00
	00		 call	 DWORD PTR __imp__Escape@20
  00024	8b e5		 mov	 esp, ebp
  00026	5d		 pop	 ebp
  00027	c2 10 00	 ret	 16			; 00000010H
?Escape@CDC@@UAEHHHPBDPAX@Z ENDP			; CDC::Escape
_TEXT	ENDS
PUBLIC	?BitBlt@CDC@@QAEHHHHHPAV1@HHK@Z			; CDC::BitBlt
;	COMDAT xdata$x
; File d:\boxgit\playbox\playbox\dev\prj\playbox\src\gui\commoncontrol\listctrol\gdiex.h
xdata$x	SEGMENT
$T203701 DD	0ffffffffH
	DD	FLAT:$L203697
$T203699 DD	019930520H
	DD	01H
	DD	FLAT:$T203701
	DD	2 DUP(00H)
	DD	2 DUP(00H)
; Function compile flags: /Odt
xdata$x	ENDS
;	COMDAT ??1CMemDC@@UAE@XZ
_TEXT	SEGMENT
tv134 = -28						; size = 4
_this$ = -24						; size = 4
$T203694 = -20						; size = 4
$T203693 = -16						; size = 4
__$EHRec$ = -12						; size = 12
??1CMemDC@@UAE@XZ PROC NEAR				; CMemDC::~CMemDC, COMDAT
; _this$ = ecx

; 78   : 	{

  00000	55		 push	 ebp
  00001	8b ec		 mov	 ebp, esp
  00003	6a ff		 push	 -1
  00005	68 00 00 00 00	 push	 __ehhandler$??1CMemDC@@UAE@XZ
  0000a	64 a1 00 00 00
	00		 mov	 eax, DWORD PTR fs:__except_list
  00010	50		 push	 eax
  00011	64 89 25 00 00
	00 00		 mov	 DWORD PTR fs:__except_list, esp
  00018	83 ec 10	 sub	 esp, 16			; 00000010H
  0001b	89 4d e8	 mov	 DWORD PTR _this$[ebp], ecx
  0001e	8b 45 e8	 mov	 eax, DWORD PTR _this$[ebp]
  00021	c7 00 00 00 00
	00		 mov	 DWORD PTR [eax], OFFSET FLAT:??_7CMemDC@@6B@
  00027	c7 45 fc 00 00
	00 00		 mov	 DWORD PTR __$EHRec$[ebp+8], 0

; 79   : 		mpDC->BitBlt(mrcBounds.left, mrcBounds.top, mrcBounds.Width(), mrcBounds.Height(), 
; 80   : 					this, mrcBounds.left, mrcBounds.top, SRCCOPY);

  0002e	68 20 00 cc 00	 push	 13369376		; 00cc0020H
  00033	8b 4d e8	 mov	 ecx, DWORD PTR _this$[ebp]
  00036	8b 51 20	 mov	 edx, DWORD PTR [ecx+32]
  00039	52		 push	 edx
  0003a	8b 45 e8	 mov	 eax, DWORD PTR _this$[ebp]
  0003d	8b 48 1c	 mov	 ecx, DWORD PTR [eax+28]
  00040	51		 push	 ecx
  00041	8b 55 e8	 mov	 edx, DWORD PTR _this$[ebp]
  00044	52		 push	 edx
  00045	8b 4d e8	 mov	 ecx, DWORD PTR _this$[ebp]
  00048	83 c1 1c	 add	 ecx, 28			; 0000001cH
  0004b	e8 00 00 00 00	 call	 ?Height@CRect@@QBEHXZ	; CRect::Height
  00050	50		 push	 eax
  00051	8b 4d e8	 mov	 ecx, DWORD PTR _this$[ebp]
  00054	83 c1 1c	 add	 ecx, 28			; 0000001cH
  00057	e8 00 00 00 00	 call	 ?Width@CRect@@QBEHXZ	; CRect::Width
  0005c	50		 push	 eax
  0005d	8b 45 e8	 mov	 eax, DWORD PTR _this$[ebp]
  00060	8b 48 20	 mov	 ecx, DWORD PTR [eax+32]
  00063	51		 push	 ecx
  00064	8b 55 e8	 mov	 edx, DWORD PTR _this$[ebp]
  00067	8b 42 1c	 mov	 eax, DWORD PTR [edx+28]
  0006a	50		 push	 eax
  0006b	8b 4d e8	 mov	 ecx, DWORD PTR _this$[ebp]
  0006e	8b 49 18	 mov	 ecx, DWORD PTR [ecx+24]
  00071	e8 00 00 00 00	 call	 ?BitBlt@CDC@@QAEHHHHHPAV1@HHK@Z ; CDC::BitBlt

; 81   : 		SelectObject(mpOldBitmap);

  00076	8b 55 e8	 mov	 edx, DWORD PTR _this$[ebp]
  00079	8b 42 14	 mov	 eax, DWORD PTR [edx+20]
  0007c	50		 push	 eax
  0007d	8b 4d e8	 mov	 ecx, DWORD PTR _this$[ebp]
  00080	e8 00 00 00 00	 call	 ?SelectObject@CDC@@QAEPAVCBitmap@@PAV2@@Z ; CDC::SelectObject

; 82   : 		if (mpBitmap != NULL)

  00085	8b 4d e8	 mov	 ecx, DWORD PTR _this$[ebp]
  00088	83 79 10 00	 cmp	 DWORD PTR [ecx+16], 0
  0008c	74 38		 je	 SHORT $L117057

; 83   : 		{
; 84   : 			delete mpBitmap;

  0008e	8b 55 e8	 mov	 edx, DWORD PTR _this$[ebp]
  00091	8b 42 10	 mov	 eax, DWORD PTR [edx+16]
  00094	89 45 ec	 mov	 DWORD PTR $T203694[ebp], eax
  00097	8b 4d ec	 mov	 ecx, DWORD PTR $T203694[ebp]
  0009a	89 4d f0	 mov	 DWORD PTR $T203693[ebp], ecx
  0009d	83 7d f0 00	 cmp	 DWORD PTR $T203693[ebp], 0
  000a1	74 12		 je	 SHORT $L203695
  000a3	6a 01		 push	 1
  000a5	8b 55 f0	 mov	 edx, DWORD PTR $T203693[ebp]
  000a8	8b 02		 mov	 eax, DWORD PTR [edx]
  000aa	8b 4d f0	 mov	 ecx, DWORD PTR $T203693[ebp]
  000ad	ff 50 04	 call	 DWORD PTR [eax+4]
  000b0	89 45 e4	 mov	 DWORD PTR tv134[ebp], eax
  000b3	eb 07		 jmp	 SHORT $L203696
$L203695:
  000b5	c7 45 e4 00 00
	00 00		 mov	 DWORD PTR tv134[ebp], 0
$L203696:

; 85   : 			mpBitmap = NULL;

  000bc	8b 4d e8	 mov	 ecx, DWORD PTR _this$[ebp]
  000bf	c7 41 10 00 00
	00 00		 mov	 DWORD PTR [ecx+16], 0
$L117057:

; 86   : 		}
; 87   : 	}

  000c6	c7 45 fc ff ff
	ff ff		 mov	 DWORD PTR __$EHRec$[ebp+8], -1
  000cd	8b 4d e8	 mov	 ecx, DWORD PTR _this$[ebp]
  000d0	e8 00 00 00 00	 call	 ??1CDC@@UAE@XZ		; CDC::~CDC
  000d5	8b 4d f4	 mov	 ecx, DWORD PTR __$EHRec$[ebp]
  000d8	64 89 0d 00 00
	00 00		 mov	 DWORD PTR fs:__except_list, ecx
  000df	8b e5		 mov	 esp, ebp
  000e1	5d		 pop	 ebp
  000e2	c3		 ret	 0
_TEXT	ENDS
;	COMDAT text$x
text$x	SEGMENT
$L203697:
  00000	8b 4d e8	 mov	 ecx, DWORD PTR _this$[ebp]
  00003	e9 00 00 00 00	 jmp	 ??1CDC@@UAE@XZ		; CDC::~CDC
__ehhandler$??1CMemDC@@UAE@XZ:
  00008	b8 00 00 00 00	 mov	 eax, OFFSET FLAT:$T203699
  0000d	e9 00 00 00 00	 jmp	 ___CxxFrameHandler
text$x	ENDS
??1CMemDC@@UAE@XZ ENDP					; CMemDC::~CMemDC
EXTRN	__imp__BitBlt@36:NEAR
; Function compile flags: /Odt
; File d:\program files (x86)\microsoft visual studio .net 2003\vc7\atlmfc\include\afxwin1.inl
;	COMDAT ?BitBlt@CDC@@QAEHHHHHPAV1@HHK@Z
_TEXT	SEGMENT
_this$ = -4						; size = 4
_x$ = 8							; size = 4
_y$ = 12						; size = 4
_nWidth$ = 16						; size = 4
_nHeight$ = 20						; size = 4
_pSrcDC$ = 24						; size = 4
_xSrc$ = 28						; size = 4
_ySrc$ = 32						; size = 4
_dwRop$ = 36						; size = 4
?BitBlt@CDC@@QAEHHHHHPAV1@HHK@Z PROC NEAR		; CDC::BitBlt, COMDAT
; _this$ = ecx

; 548  : 	{ ASSERT(m_hDC != NULL); return ::BitBlt(m_hDC, x, y, nWidth, nHeight,

  00000	55		 push	 ebp
  00001	8b ec		 mov	 ebp, esp
  00003	51		 push	 ecx
  00004	89 4d fc	 mov	 DWORD PTR _this$[ebp], ecx

; 549  : 		pSrcDC->GetSafeHdc(), xSrc, ySrc, dwRop); }

  00007	8b 45 24	 mov	 eax, DWORD PTR _dwRop$[ebp]
  0000a	50		 push	 eax
  0000b	8b 4d 20	 mov	 ecx, DWORD PTR _ySrc$[ebp]
  0000e	51		 push	 ecx
  0000f	8b 55 1c	 mov	 edx, DWORD PTR _xSrc$[ebp]
  00012	52		 push	 edx
  00013	8b 4d 18	 mov	 ecx, DWORD PTR _pSrcDC$[ebp]
  00016	e8 00 00 00 00	 call	 ?GetSafeHdc@CDC@@QBEPAUHDC__@@XZ ; CDC::GetSafeHdc
  0001b	50		 push	 eax
  0001c	8b 45 14	 mov	 eax, DWORD PTR _nHeight$[ebp]
  0001f	50		 push	 eax
  00020	8b 4d 10	 mov	 ecx, DWORD PTR _nWidth$[ebp]
  00023	51		 push	 ecx
  00024	8b 55 0c	 mov	 edx, DWORD PTR _y$[ebp]
  00027	52		 push	 edx
  00028	8b 45 08	 mov	 eax, DWORD PTR _x$[ebp]
  0002b	50		 push	 eax
  0002c	8b 4d fc	 mov	 ecx, DWORD PTR _this$[ebp]
  0002f	8b 51 04	 mov	 edx, DWORD PTR [ecx+4]
  00032	52		 push	 edx
  00033	ff 15 00 00 00
	00		 call	 DWORD PTR __imp__BitBlt@36
  00039	8b e5		 mov	 esp, ebp
  0003b	5d		 pop	 ebp
  0003c	c2 20 00	 ret	 32			; 00000020H
?BitBlt@CDC@@QAEHHHHHPAV1@HHK@Z ENDP			; CDC::BitBlt
; Function compile flags: /Odt
_TEXT	ENDS
;	COMDAT ??_GCMemDC@@UAEPAXI@Z
_TEXT	SEGMENT
_this$ = -4						; size = 4
___flags$ = 8						; size = 4
??_GCMemDC@@UAEPAXI@Z PROC NEAR				; CMemDC::`scalar deleting destructor', COMDAT
; _this$ = ecx
  00000	55		 push	 ebp
  00001	8b ec		 mov	 ebp, esp
  00003	51		 push	 ecx
  00004	89 4d fc	 mov	 DWORD PTR _this$[ebp], ecx
  00007	8b 4d fc	 mov	 ecx, DWORD PTR _this$[ebp]
  0000a	e8 00 00 00 00	 call	 ??1CMemDC@@UAE@XZ	; CMemDC::~CMemDC
  0000f	8b 45 08	 mov	 eax, DWORD PTR ___flags$[ebp]
  00012	83 e0 01	 and	 eax, 1
  00015	74 09		 je	 SHORT $L117067
  00017	8b 4d fc	 mov	 ecx, DWORD PTR _this$[ebp]
  0001a	51		 push	 ecx
  0001b	e8 00 00 00 00	 call	 ??3CObject@@SGXPAX@Z	; CObject::operator delete
$L117067:
  00020	8b 45 fc	 mov	 eax, DWORD PTR _this$[ebp]
  00023	8b e5		 mov	 esp, ebp
  00025	5d		 pop	 ebp
  00026	c2 04 00	 ret	 4
??_GCMemDC@@UAEPAXI@Z ENDP				; CMemDC::`scalar deleting destructor'
; Function compile flags: /Odt
; File d:\program files (x86)\microsoft visual studio .net 2003\vc7\atlmfc\include\afxplex_.h
_TEXT	ENDS
;	COMDAT ?data@CPlex@@QAEPAXXZ
text$AFX_COL1	SEGMENT
_this$ = -4						; size = 4
?data@CPlex@@QAEPAXXZ PROC NEAR				; CPlex::data, COMDAT
; _this$ = ecx

; 40   : 	void* data() { return this+1; }

  00000	55		 push	 ebp
  00001	8b ec		 mov	 ebp, esp
  00003	51		 push	 ecx
  00004	89 4d fc	 mov	 DWORD PTR _this$[ebp], ecx
  00007	8b 45 fc	 mov	 eax, DWORD PTR _this$[ebp]
  0000a	83 c0 04	 add	 eax, 4
  0000d	8b e5		 mov	 esp, ebp
  0000f	5d		 pop	 ebp
  00010	c3		 ret	 0
?data@CPlex@@QAEPAXXZ ENDP				; CPlex::data
text$AFX_COL1	ENDS
END
