; Listing generated by Microsoft (R) Optimizing Compiler Version 13.10.3077 

	TITLE	.\src\LayoutMgr\ETSPaneMulti.cpp
	.386P
include listing.inc
if @Version gt 510
.model FLAT
else
_TEXT	SEGMENT PARA USE32 PUBLIC 'CODE'
_TEXT	ENDS
_DATA	SEGMENT DWORD USE32 PUBLIC 'DATA'
_DATA	ENDS
CONST	SEGMENT DWORD USE32 PUBLIC 'CONST'
CONST	ENDS
_BSS	SEGMENT DWORD USE32 PUBLIC 'BSS'
_BSS	ENDS
$$SYMBOLS	SEGMENT BYTE USE32 'DEBSYM'
$$SYMBOLS	ENDS
$$TYPES	SEGMENT BYTE USE32 'DEBTYP'
$$TYPES	ENDS
_TLS	SEGMENT DWORD USE32 PUBLIC 'TLS'
_TLS	ENDS
;	COMDAT ??_C@_02PGHGPEOM@?91?$AA@
CONST	SEGMENT DWORD USE32 PUBLIC 'CONST'
CONST	ENDS
rdata$r	SEGMENT DWORD USE32 PUBLIC 'CONST'
rdata$r	ENDS
xdata$x	SEGMENT DWORD USE32 PUBLIC 'CONST'
xdata$x	ENDS
text$AFX_COL1	SEGMENT PARA USE32 PUBLIC ''
text$AFX_COL1	ENDS
text$yc	SEGMENT PARA USE32 PUBLIC 'CODE'
text$yc	ENDS
CRT$XCA	SEGMENT DWORD USE32 PUBLIC 'DATA'
CRT$XCA	ENDS
CRT$XCU	SEGMENT DWORD USE32 PUBLIC 'DATA'
CRT$XCU	ENDS
CRT$XCL	SEGMENT DWORD USE32 PUBLIC 'DATA'
CRT$XCL	ENDS
CRT$XCC	SEGMENT DWORD USE32 PUBLIC 'DATA'
CRT$XCC	ENDS
CRT$XCZ	SEGMENT DWORD USE32 PUBLIC 'DATA'
CRT$XCZ	ENDS
text$yd	SEGMENT PARA USE32 PUBLIC 'CODE'
text$yd	ENDS
ATL$__m	SEGMENT DWORD USE32 PUBLIC ''
ATL$__m	ENDS
ATL$__z	SEGMENT DWORD USE32 PUBLIC ''
ATL$__z	ENDS
ATL$__a	SEGMENT DWORD USE32 PUBLIC ''
ATL$__a	ENDS
;	COMDAT ?GetSubPane@PaneBase@ETSLayoutMgr@@UAE?AVCPaneBase@2@V?$CStringT@DV?$StrTraitMFC_DLL@DV?$ChTraitsCRT@D@ATL@@@@@ATL@@@Z
_TEXT	SEGMENT PARA USE32 PUBLIC 'CODE'
_TEXT	ENDS
;	COMDAT ??1PaneBase@ETSLayoutMgr@@UAE@XZ
_TEXT	SEGMENT PARA USE32 PUBLIC 'CODE'
_TEXT	ENDS
;	COMDAT ?showPane@PaneBase@ETSLayoutMgr@@UAEX_N@Z
_TEXT	SEGMENT PARA USE32 PUBLIC 'CODE'
_TEXT	ENDS
;	COMDAT ?IsValid@CPaneBase@ETSLayoutMgr@@QAE_NXZ
_TEXT	SEGMENT PARA USE32 PUBLIC 'CODE'
_TEXT	ENDS
;	COMDAT ?GetRect@ETSLayoutMgr@@UAE?AVCRect@@XZ
_TEXT	SEGMENT PARA USE32 PUBLIC 'CODE'
_TEXT	ENDS
;	COMDAT ?UpdateLayout@ETSLayoutMgr@@UAEXVCPane@1@@Z
_TEXT	SEGMENT PARA USE32 PUBLIC 'CODE'
_TEXT	ENDS
;	COMDAT ??_GPaneBase@ETSLayoutMgr@@UAEPAXI@Z
_TEXT	SEGMENT PARA USE32 PUBLIC 'CODE'
_TEXT	ENDS
;	COMDAT ??_GETSLayoutMgr@@UAEPAXI@Z
_TEXT	SEGMENT PARA USE32 PUBLIC 'CODE'
_TEXT	ENDS
;	COMDAT ??_GPaneMulti@ETSLayoutMgr@@UAEPAXI@Z
_TEXT	SEGMENT PARA USE32 PUBLIC 'CODE'
_TEXT	ENDS
;	COMDAT ??1PaneMulti@ETSLayoutMgr@@UAE@XZ
_TEXT	SEGMENT PARA USE32 PUBLIC 'CODE'
_TEXT	ENDS
;	COMDAT ??B?$CComPtrBase@UITypeInfo2@@@ATL@@QBEPAUITypeInfo2@@XZ
_TEXT	SEGMENT PARA USE32 PUBLIC 'CODE'
_TEXT	ENDS
;	COMDAT ?equal@?$istreambuf_iterator@DU?$char_traits@D@std@@@std@@QBE_NABV12@@Z
_TEXT	SEGMENT PARA USE32 PUBLIC 'CODE'
_TEXT	ENDS
;	COMDAT ?equal@?$istreambuf_iterator@_WU?$char_traits@_W@std@@@std@@QBE_NABV12@@Z
_TEXT	SEGMENT PARA USE32 PUBLIC 'CODE'
_TEXT	ENDS
;	COMDAT ?Unlock@?$CComCritSecLock@VCComCriticalSection@ATL@@@ATL@@QAEXXZ
_TEXT	SEGMENT PARA USE32 PUBLIC 'CODE'
_TEXT	ENDS
;	COMDAT ??0?$CArray@MM@@QAE@XZ
_TEXT	SEGMENT PARA USE32 PUBLIC 'CODE'
_TEXT	ENDS
;	COMDAT ??1?$CArray@MM@@UAE@XZ
_TEXT	SEGMENT PARA USE32 PUBLIC 'CODE'
_TEXT	ENDS
;	COMDAT ?Serialize@?$CArray@MM@@UAEXAAVCArchive@@@Z
_TEXT	SEGMENT PARA USE32 PUBLIC 'CODE'
_TEXT	ENDS
;	COMDAT ??1?$CArray@VCPaneBase@ETSLayoutMgr@@V12@@@UAE@XZ
_TEXT	SEGMENT PARA USE32 PUBLIC 'CODE'
_TEXT	ENDS
;	COMDAT ?Serialize@?$CArray@VCPaneBase@ETSLayoutMgr@@V12@@@UAEXAAVCArchive@@@Z
_TEXT	SEGMENT PARA USE32 PUBLIC 'CODE'
_TEXT	ENDS
;	COMDAT ??0?$CMap@V?$CStringT@DV?$StrTraitMFC_DLL@DV?$ChTraitsCRT@D@ATL@@@@@ATL@@PBDVCPaneBase@ETSLayoutMgr@@V34@@@QAE@H@Z
_TEXT	SEGMENT PARA USE32 PUBLIC 'CODE'
_TEXT	ENDS
;	COMDAT ??1?$CMap@V?$CStringT@DV?$StrTraitMFC_DLL@DV?$ChTraitsCRT@D@ATL@@@@@ATL@@PBDVCPaneBase@ETSLayoutMgr@@V34@@@UAE@XZ
_TEXT	SEGMENT PARA USE32 PUBLIC 'CODE'
_TEXT	ENDS
;	COMDAT ?Serialize@?$CMap@V?$CStringT@DV?$StrTraitMFC_DLL@DV?$ChTraitsCRT@D@ATL@@@@@ATL@@PBDVCPaneBase@ETSLayoutMgr@@V34@@@UAEXAAVCArchive@@@Z
_TEXT	SEGMENT PARA USE32 PUBLIC 'CODE'
_TEXT	ENDS
;	COMDAT ??$_Maklocstr@D@std@@YAPADPBDPADABU_Cvtvec@@@Z
_TEXT	SEGMENT PARA USE32 PUBLIC 'CODE'
_TEXT	ENDS
;	COMDAT ??_G?$CArray@MM@@UAEPAXI@Z
_TEXT	SEGMENT PARA USE32 PUBLIC 'CODE'
_TEXT	ENDS
;	COMDAT ??_G?$CArray@VCPaneBase@ETSLayoutMgr@@V12@@@UAEPAXI@Z
_TEXT	SEGMENT PARA USE32 PUBLIC 'CODE'
_TEXT	ENDS
;	COMDAT ??_GCPaneBase@ETSLayoutMgr@@QAEPAXI@Z
_TEXT	SEGMENT PARA USE32 PUBLIC 'CODE'
_TEXT	ENDS
;	COMDAT ??_G?$CMap@V?$CStringT@DV?$StrTraitMFC_DLL@DV?$ChTraitsCRT@D@ATL@@@@@ATL@@PBDVCPaneBase@ETSLayoutMgr@@V34@@@UAEPAXI@Z
_TEXT	SEGMENT PARA USE32 PUBLIC 'CODE'
_TEXT	ENDS
;	COMDAT ?SetSize@?$CArray@MM@@QAEXHH@Z
_TEXT	SEGMENT PARA USE32 PUBLIC 'CODE'
_TEXT	ENDS
;	COMDAT ??$SerializeElements@M@@YGXAAVCArchive@@PAMH@Z
_TEXT	SEGMENT PARA USE32 PUBLIC 'CODE'
_TEXT	ENDS
;	COMDAT ?SetSize@?$CArray@VCPaneBase@ETSLayoutMgr@@V12@@@QAEXHH@Z
_TEXT	SEGMENT PARA USE32 PUBLIC 'CODE'
_TEXT	ENDS
;	COMDAT ??$SerializeElements@VCPaneBase@ETSLayoutMgr@@@@YGXAAVCArchive@@PAVCPaneBase@ETSLayoutMgr@@H@Z
_TEXT	SEGMENT PARA USE32 PUBLIC 'CODE'
_TEXT	ENDS
;	COMDAT ?SetAt@?$CMap@V?$CStringT@DV?$StrTraitMFC_DLL@DV?$ChTraitsCRT@D@ATL@@@@@ATL@@PBDVCPaneBase@ETSLayoutMgr@@V34@@@QAEXPBDVCPaneBase@ETSLayoutMgr@@@Z
_TEXT	SEGMENT PARA USE32 PUBLIC 'CODE'
_TEXT	ENDS
;	COMDAT ?RemoveAll@?$CMap@V?$CStringT@DV?$StrTraitMFC_DLL@DV?$ChTraitsCRT@D@ATL@@@@@ATL@@PBDVCPaneBase@ETSLayoutMgr@@V34@@@QAEXXZ
_TEXT	SEGMENT PARA USE32 PUBLIC 'CODE'
_TEXT	ENDS
;	COMDAT ??1CAssoc@?$CMap@V?$CStringT@DV?$StrTraitMFC_DLL@DV?$ChTraitsCRT@D@ATL@@@@@ATL@@PBDVCPaneBase@ETSLayoutMgr@@V34@@@QAE@XZ
_TEXT	SEGMENT PARA USE32 PUBLIC 'CODE'
_TEXT	ENDS
;	COMDAT ??1CPair@?$CMap@V?$CStringT@DV?$StrTraitMFC_DLL@DV?$ChTraitsCRT@D@ATL@@@@@ATL@@PBDVCPaneBase@ETSLayoutMgr@@V34@@@QAE@XZ
_TEXT	SEGMENT PARA USE32 PUBLIC 'CODE'
_TEXT	ENDS
;	COMDAT ??A?$CMap@V?$CStringT@DV?$StrTraitMFC_DLL@DV?$ChTraitsCRT@D@ATL@@@@@ATL@@PBDVCPaneBase@ETSLayoutMgr@@V34@@@QAEAAVCPaneBase@ETSLayoutMgr@@PBD@Z
_TEXT	SEGMENT PARA USE32 PUBLIC 'CODE'
_TEXT	ENDS
;	COMDAT ?InitHashTable@?$CMap@V?$CStringT@DV?$StrTraitMFC_DLL@DV?$ChTraitsCRT@D@ATL@@@@@ATL@@PBDVCPaneBase@ETSLayoutMgr@@V34@@@QAEXIH@Z
_TEXT	SEGMENT PARA USE32 PUBLIC 'CODE'
_TEXT	ENDS
;	COMDAT ?NewAssoc@?$CMap@V?$CStringT@DV?$StrTraitMFC_DLL@DV?$ChTraitsCRT@D@ATL@@@@@ATL@@PBDVCPaneBase@ETSLayoutMgr@@V34@@@IAEPAVCAssoc@1@PBD@Z
_TEXT	SEGMENT PARA USE32 PUBLIC 'CODE'
_TEXT	ENDS
;	COMDAT ?GetAssocAt@?$CMap@V?$CStringT@DV?$StrTraitMFC_DLL@DV?$ChTraitsCRT@D@ATL@@@@@ATL@@PBDVCPaneBase@ETSLayoutMgr@@V34@@@IBEPAVCAssoc@1@PBDAAI1@Z
_TEXT	SEGMENT PARA USE32 PUBLIC 'CODE'
_TEXT	ENDS
;	COMDAT ??0CAssoc@?$CMap@V?$CStringT@DV?$StrTraitMFC_DLL@DV?$ChTraitsCRT@D@ATL@@@@@ATL@@PBDVCPaneBase@ETSLayoutMgr@@V34@@@QAE@PBD@Z
_TEXT	SEGMENT PARA USE32 PUBLIC 'CODE'
_TEXT	ENDS
;	COMDAT ??0CPair@?$CMap@V?$CStringT@DV?$StrTraitMFC_DLL@DV?$ChTraitsCRT@D@ATL@@@@@ATL@@PBDVCPaneBase@ETSLayoutMgr@@V34@@@IAE@PBD@Z
_TEXT	SEGMENT PARA USE32 PUBLIC 'CODE'
_TEXT	ENDS
;	COMDAT ??$CompareElements@V?$CStringT@DV?$StrTraitMFC_DLL@DV?$ChTraitsCRT@D@ATL@@@@@ATL@@PBD@@YGHPBV?$CStringT@DV?$StrTraitMFC_DLL@DV?$ChTraitsCRT@D@ATL@@@@@ATL@@PBQBD@Z
_TEXT	SEGMENT PARA USE32 PUBLIC 'CODE'
_TEXT	ENDS
;	COMDAT ??8ATL@@YA_NABV?$CStringT@DV?$StrTraitMFC_DLL@DV?$ChTraitsCRT@D@ATL@@@@@0@PBD@Z
_TEXT	SEGMENT PARA USE32 PUBLIC 'CODE'
_TEXT	ENDS
;	COMDAT ?StringCompare@?$ChTraitsCRT@D@ATL@@SAHPBD0@Z
_TEXT	SEGMENT PARA USE32 PUBLIC 'CODE'
_TEXT	ENDS
;	COMDAT ??_R3ETSLayoutMgr@@8
rdata$r	SEGMENT DWORD USE32 PUBLIC 'CONST'
rdata$r	ENDS
;	COMDAT ??_R3?$CMap@V?$CStringT@DV?$StrTraitMFC_DLL@DV?$ChTraitsCRT@D@ATL@@@@@ATL@@PBDVCPaneBase@ETSLayoutMgr@@V34@@@8
rdata$r	SEGMENT DWORD USE32 PUBLIC 'CONST'
rdata$r	ENDS
;	COMDAT ??_R3?$CArray@VCPaneBase@ETSLayoutMgr@@V12@@@8
rdata$r	SEGMENT DWORD USE32 PUBLIC 'CONST'
rdata$r	ENDS
;	COMDAT ??_R3?$CArray@MM@@8
rdata$r	SEGMENT DWORD USE32 PUBLIC 'CONST'
rdata$r	ENDS
;	COMDAT ??_R3PaneBase@ETSLayoutMgr@@8
rdata$r	SEGMENT DWORD USE32 PUBLIC 'CONST'
rdata$r	ENDS
;	COMDAT ??_R3PaneMulti@ETSLayoutMgr@@8
rdata$r	SEGMENT DWORD USE32 PUBLIC 'CONST'
rdata$r	ENDS
;	COMDAT ??_R3?$numpunct@_W@std@@8
rdata$r	SEGMENT DWORD USE32 PUBLIC 'CONST'
rdata$r	ENDS
;	COMDAT ??_R3?$numpunct@D@std@@8
rdata$r	SEGMENT DWORD USE32 PUBLIC 'CONST'
rdata$r	ENDS
;	COMDAT ??_R2ETSLayoutMgr@@8
rdata$r	SEGMENT DWORD USE32 PUBLIC 'CONST'
rdata$r	ENDS
;	COMDAT ??_R2?$CMap@V?$CStringT@DV?$StrTraitMFC_DLL@DV?$ChTraitsCRT@D@ATL@@@@@ATL@@PBDVCPaneBase@ETSLayoutMgr@@V34@@@8
rdata$r	SEGMENT DWORD USE32 PUBLIC 'CONST'
rdata$r	ENDS
;	COMDAT ??_R2?$CArray@VCPaneBase@ETSLayoutMgr@@V12@@@8
rdata$r	SEGMENT DWORD USE32 PUBLIC 'CONST'
rdata$r	ENDS
;	COMDAT ??_R2?$CArray@MM@@8
rdata$r	SEGMENT DWORD USE32 PUBLIC 'CONST'
rdata$r	ENDS
;	COMDAT ??_R2PaneBase@ETSLayoutMgr@@8
rdata$r	SEGMENT DWORD USE32 PUBLIC 'CONST'
rdata$r	ENDS
;	COMDAT ??_R2PaneMulti@ETSLayoutMgr@@8
rdata$r	SEGMENT DWORD USE32 PUBLIC 'CONST'
rdata$r	ENDS
;	COMDAT ??_R2?$numpunct@_W@std@@8
rdata$r	SEGMENT DWORD USE32 PUBLIC 'CONST'
rdata$r	ENDS
;	COMDAT ??_R2?$numpunct@D@std@@8
rdata$r	SEGMENT DWORD USE32 PUBLIC 'CONST'
rdata$r	ENDS
;	COMDAT ??_R1A@?0A@A@ETSLayoutMgr@@8
rdata$r	SEGMENT DWORD USE32 PUBLIC 'CONST'
rdata$r	ENDS
;	COMDAT ??_R1A@?0A@A@?$CMap@V?$CStringT@DV?$StrTraitMFC_DLL@DV?$ChTraitsCRT@D@ATL@@@@@ATL@@PBDVCPaneBase@ETSLayoutMgr@@V34@@@8
rdata$r	SEGMENT DWORD USE32 PUBLIC 'CONST'
rdata$r	ENDS
;	COMDAT ??_R1A@?0A@A@?$CArray@VCPaneBase@ETSLayoutMgr@@V12@@@8
rdata$r	SEGMENT DWORD USE32 PUBLIC 'CONST'
rdata$r	ENDS
;	COMDAT ??_R1A@?0A@A@CObject@@8
rdata$r	SEGMENT DWORD USE32 PUBLIC 'CONST'
rdata$r	ENDS
;	COMDAT ??_R0?AVCObject@@@8
_DATA	SEGMENT DWORD USE32 PUBLIC 'DATA'
_DATA	ENDS
;	COMDAT ??_R1A@?0A@A@?$CArray@MM@@8
rdata$r	SEGMENT DWORD USE32 PUBLIC 'CONST'
rdata$r	ENDS
;	COMDAT ??_R1A@?0A@A@PaneBase@ETSLayoutMgr@@8
rdata$r	SEGMENT DWORD USE32 PUBLIC 'CONST'
rdata$r	ENDS
;	COMDAT ??_R1A@?0A@A@Pane@ETSLayoutMgr@@8
rdata$r	SEGMENT DWORD USE32 PUBLIC 'CONST'
rdata$r	ENDS
;	COMDAT ??_R1A@?0A@A@PaneMulti@ETSLayoutMgr@@8
rdata$r	SEGMENT DWORD USE32 PUBLIC 'CONST'
rdata$r	ENDS
;	COMDAT ??_R1A@?0A@A@?$numpunct@_W@std@@8
rdata$r	SEGMENT DWORD USE32 PUBLIC 'CONST'
rdata$r	ENDS
;	COMDAT ??_R1A@?0A@A@facet@locale@std@@8
rdata$r	SEGMENT DWORD USE32 PUBLIC 'CONST'
rdata$r	ENDS
;	COMDAT ??_R0?AVfacet@locale@std@@@8
_DATA	SEGMENT DWORD USE32 PUBLIC 'DATA'
_DATA	ENDS
;	COMDAT ??_R1A@?0A@A@?$numpunct@D@std@@8
rdata$r	SEGMENT DWORD USE32 PUBLIC 'CONST'
rdata$r	ENDS
;	COMDAT ??_R0?AVETSLayoutMgr@@@8
_DATA	SEGMENT DWORD USE32 PUBLIC 'DATA'
_DATA	ENDS
;	COMDAT ??_R0?AV?$CMap@V?$CStringT@DV?$StrTraitMFC_DLL@DV?$ChTraitsCRT@D@ATL@@@@@ATL@@PBDVCPaneBase@ETSLayoutMgr@@V34@@@@8
_DATA	SEGMENT DWORD USE32 PUBLIC 'DATA'
_DATA	ENDS
;	COMDAT ??_R0?AV?$CArray@VCPaneBase@ETSLayoutMgr@@V12@@@@8
_DATA	SEGMENT DWORD USE32 PUBLIC 'DATA'
_DATA	ENDS
;	COMDAT ??_R0?AV?$CArray@MM@@@8
_DATA	SEGMENT DWORD USE32 PUBLIC 'DATA'
_DATA	ENDS
;	COMDAT ??_R0?AVPaneBase@ETSLayoutMgr@@@8
_DATA	SEGMENT DWORD USE32 PUBLIC 'DATA'
_DATA	ENDS
;	COMDAT ??_R0?AVPane@ETSLayoutMgr@@@8
_DATA	SEGMENT DWORD USE32 PUBLIC 'DATA'
_DATA	ENDS
;	COMDAT ??_R0?AVPaneMulti@ETSLayoutMgr@@@8
_DATA	SEGMENT DWORD USE32 PUBLIC 'DATA'
_DATA	ENDS
;	COMDAT ??_R0?AV?$numpunct@_W@std@@@8
_DATA	SEGMENT DWORD USE32 PUBLIC 'DATA'
_DATA	ENDS
;	COMDAT ??_R0?AV?$numpunct@D@std@@@8
_DATA	SEGMENT DWORD USE32 PUBLIC 'DATA'
_DATA	ENDS
;	COMDAT ??_R4ETSLayoutMgr@@6B@
rdata$r	SEGMENT DWORD USE32 PUBLIC 'CONST'
rdata$r	ENDS
;	COMDAT ??_R4?$CMap@V?$CStringT@DV?$StrTraitMFC_DLL@DV?$ChTraitsCRT@D@ATL@@@@@ATL@@PBDVCPaneBase@ETSLayoutMgr@@V34@@@6B@
rdata$r	SEGMENT DWORD USE32 PUBLIC 'CONST'
rdata$r	ENDS
;	COMDAT ??_R4?$CArray@VCPaneBase@ETSLayoutMgr@@V12@@@6B@
rdata$r	SEGMENT DWORD USE32 PUBLIC 'CONST'
rdata$r	ENDS
;	COMDAT ?Dump@CObject@@UBEXAAVCDumpContext@@@Z
_TEXT	SEGMENT PARA USE32 PUBLIC 'CODE'
_TEXT	ENDS
;	COMDAT ?AssertValid@CObject@@UBEXXZ
_TEXT	SEGMENT PARA USE32 PUBLIC 'CODE'
_TEXT	ENDS
;	COMDAT ??_R4?$CArray@MM@@6B@
rdata$r	SEGMENT DWORD USE32 PUBLIC 'CONST'
rdata$r	ENDS
;	COMDAT ??_R4PaneBase@ETSLayoutMgr@@6B@
rdata$r	SEGMENT DWORD USE32 PUBLIC 'CONST'
rdata$r	ENDS
;	COMDAT ??_R4PaneMulti@ETSLayoutMgr@@6B@
rdata$r	SEGMENT DWORD USE32 PUBLIC 'CONST'
rdata$r	ENDS
;	COMDAT ??0?$allocator@_W@std@@QAE@XZ
_TEXT	SEGMENT PARA USE32 PUBLIC 'CODE'
_TEXT	ENDS
;	COMDAT ??0?$allocator@D@std@@QAE@ABV01@@Z
_TEXT	SEGMENT PARA USE32 PUBLIC 'CODE'
_TEXT	ENDS
;	COMDAT ??0?$allocator@D@std@@QAE@XZ
_TEXT	SEGMENT PARA USE32 PUBLIC 'CODE'
_TEXT	ENDS
;	COMDAT ?deallocate@?$allocator@D@std@@QAEXPADI@Z
_TEXT	SEGMENT PARA USE32 PUBLIC 'CODE'
_TEXT	ENDS
;	COMDAT ?max_size@?$allocator@D@std@@QBEIXZ
_TEXT	SEGMENT PARA USE32 PUBLIC 'CODE'
_TEXT	ENDS
;	COMDAT ?allocate@?$allocator@D@std@@QAEPADI@Z
_TEXT	SEGMENT PARA USE32 PUBLIC 'CODE'
_TEXT	ENDS
;	COMDAT ??$_Allocate@D@std@@YAPADIPAD@Z
_TEXT	SEGMENT PARA USE32 PUBLIC 'CODE'
_TEXT	ENDS
;	COMDAT ??_G?$numpunct@_W@std@@MAEPAXI@Z
_TEXT	SEGMENT PARA USE32 PUBLIC 'CODE'
_TEXT	ENDS
;	COMDAT ??_R4?$numpunct@_W@std@@6B@
rdata$r	SEGMENT DWORD USE32 PUBLIC 'CONST'
rdata$r	ENDS
;	COMDAT ??_G?$numpunct@D@std@@MAEPAXI@Z
_TEXT	SEGMENT PARA USE32 PUBLIC 'CODE'
_TEXT	ENDS
;	COMDAT ??_R4?$numpunct@D@std@@6B@
rdata$r	SEGMENT DWORD USE32 PUBLIC 'CONST'
rdata$r	ENDS
;	COMDAT ?data@CStringData@ATL@@QAEPAXXZ
_TEXT	SEGMENT PARA USE32 PUBLIC 'CODE'
_TEXT	ENDS
;	COMDAT ?GetDefaultManager@?$StrTraitMFC_DLL@DV?$ChTraitsCRT@D@ATL@@@@SAPAUIAtlStringMgr@ATL@@XZ
_TEXT	SEGMENT PARA USE32 PUBLIC 'CODE'
_TEXT	ENDS
;	COMDAT ?Release@CStringData@ATL@@QAEXXZ
_TEXT	SEGMENT PARA USE32 PUBLIC 'CODE'
_TEXT	ENDS
;	COMDAT ?FindStringResourceInstance@?$StrTraitMFC_DLL@DV?$ChTraitsCRT@D@ATL@@@@SAPAUHINSTANCE__@@I@Z
_TEXT	SEGMENT PARA USE32 PUBLIC 'CODE'
_TEXT	ENDS
;	COMDAT ?AtlGetStringResourceImage@ATL@@YAPBUATLSTRINGRESOURCEIMAGE@1@PAUHINSTANCE__@@I@Z
_TEXT	SEGMENT PARA USE32 PUBLIC 'CODE'
_TEXT	ENDS
;	COMDAT ?_AtlGetStringResourceImage@ATL@@YAPBUATLSTRINGRESOURCEIMAGE@1@PAUHINSTANCE__@@PAUHRSRC__@@I@Z
_TEXT	SEGMENT PARA USE32 PUBLIC 'CODE'
_TEXT	ENDS
;	COMDAT ?GetBaseTypeLength@?$ChTraitsCRT@D@ATL@@SAHPB_WH@Z
_TEXT	SEGMENT PARA USE32 PUBLIC 'CODE'
_TEXT	ENDS
;	COMDAT ?_AtlGetConversionACP@ATL@@YGIXZ
_TEXT	SEGMENT PARA USE32 PUBLIC 'CODE'
_TEXT	ENDS
;	COMDAT ?g_pfnGetThreadACP@ATL@@3P6GIXZA
_DATA	SEGMENT DWORD USE32 PUBLIC 'DATA'
_DATA	ENDS
;	COMDAT ?_AtlGetThreadACPThunk@ATL@@YGIXZ
_TEXT	SEGMENT PARA USE32 PUBLIC 'CODE'
_TEXT	ENDS
;	COMDAT ?_AtlGetThreadACPReal@ATL@@YGIXZ
_TEXT	SEGMENT PARA USE32 PUBLIC 'CODE'
_TEXT	ENDS
;	COMDAT ?_AtlGetThreadACPFake@ATL@@YGIXZ
_TEXT	SEGMENT PARA USE32 PUBLIC 'CODE'
_TEXT	ENDS
;	COMDAT ?InterlockedExchangePointer@@YGPAXPAPAXPAX@Z
_TEXT	SEGMENT PARA USE32 PUBLIC 'CODE'
_TEXT	ENDS
;	COMDAT ?IsShared@CStringData@ATL@@QBE_NXZ
_TEXT	SEGMENT PARA USE32 PUBLIC 'CODE'
_TEXT	ENDS
;	COMDAT ?AtlThrow@ATL@@YGXJ@Z
_TEXT	SEGMENT PARA USE32 PUBLIC 'CODE'
_TEXT	ENDS
;	COMDAT ?ConvertToBaseType@?$ChTraitsCRT@D@ATL@@SAXPADHPB_WH@Z
_TEXT	SEGMENT PARA USE32 PUBLIC 'CODE'
_TEXT	ENDS
;	COMDAT ?data@CPlex@@QAEPAXXZ
text$AFX_COL1	SEGMENT PARA USE32 PUBLIC ''
text$AFX_COL1	ENDS
;	COMDAT ??3@YAXPAX0@Z
_TEXT	SEGMENT PARA USE32 PUBLIC 'CODE'
_TEXT	ENDS
;	COMDAT ??2@YAPAXIPAX@Z
_TEXT	SEGMENT PARA USE32 PUBLIC 'CODE'
_TEXT	ENDS
;	COMDAT ??3CObject@@SGXPAX@Z
_TEXT	SEGMENT PARA USE32 PUBLIC 'CODE'
_TEXT	ENDS
;	COMDAT ??_7?$CMap@V?$CStringT@DV?$StrTraitMFC_DLL@DV?$ChTraitsCRT@D@ATL@@@@@ATL@@PBDVCPaneBase@ETSLayoutMgr@@V34@@@6B@
CONST	SEGMENT DWORD USE32 PUBLIC 'CONST'
CONST	ENDS
;	COMDAT ??_7?$CArray@VCPaneBase@ETSLayoutMgr@@V12@@@6B@
CONST	SEGMENT DWORD USE32 PUBLIC 'CONST'
CONST	ENDS
;	COMDAT ?IsStoring@CArchive@@QBEHXZ
_TEXT	SEGMENT PARA USE32 PUBLIC 'CODE'
_TEXT	ENDS
;	COMDAT ?Serialize@CObject@@UAEXAAVCArchive@@@Z
_TEXT	SEGMENT PARA USE32 PUBLIC 'CODE'
_TEXT	ENDS
;	COMDAT ??_7?$CArray@MM@@6B@
CONST	SEGMENT DWORD USE32 PUBLIC 'CONST'
CONST	ENDS
;	COMDAT ??1CObject@@UAE@XZ
_TEXT	SEGMENT PARA USE32 PUBLIC 'CODE'
_TEXT	ENDS
;	COMDAT ??0CObject@@IAE@XZ
_TEXT	SEGMENT PARA USE32 PUBLIC 'CODE'
_TEXT	ENDS
;	COMDAT ?_Psave@?$_Facetptr@V?$numpunct@_W@std@@@std@@2PBVfacet@locale@2@B
_DATA	SEGMENT DWORD USE32 PUBLIC 'DATA'
_DATA	ENDS
;	COMDAT ?_Psave@?$_Facetptr@V?$numpunct@D@std@@@std@@2PBVfacet@locale@2@B
_DATA	SEGMENT DWORD USE32 PUBLIC 'DATA'
_DATA	ENDS
;	COMDAT ?Unlock@CComCriticalSection@ATL@@QAEJXZ
_TEXT	SEGMENT PARA USE32 PUBLIC 'CODE'
_TEXT	ENDS
;	COMDAT ?_Psave@?$_Facetptr@V?$ctype@_W@std@@@std@@2PBVfacet@locale@2@B
_DATA	SEGMENT DWORD USE32 PUBLIC 'DATA'
_DATA	ENDS
;	COMDAT ?_Psave@?$_Facetptr@V?$ctype@D@std@@@std@@2PBVfacet@locale@2@B
_DATA	SEGMENT DWORD USE32 PUBLIC 'DATA'
_DATA	ENDS
;	COMDAT ??$_Maklocchr@_W@std@@YA_WDPA_WABU_Cvtvec@@@Z
_TEXT	SEGMENT PARA USE32 PUBLIC 'CODE'
_TEXT	ENDS
;	COMDAT ??$_Maklocstr@_W@std@@YAPA_WPBDPA_WABU_Cvtvec@@@Z
_TEXT	SEGMENT PARA USE32 PUBLIC 'CODE'
_TEXT	ENDS
;	COMDAT ??$_Maklocchr@D@std@@YADDPADABU_Cvtvec@@@Z
_TEXT	SEGMENT PARA USE32 PUBLIC 'CODE'
_TEXT	ENDS
;	COMDAT ??_C@_04LOAJBDKD@true?$AA@
CONST	SEGMENT DWORD USE32 PUBLIC 'CONST'
CONST	ENDS
;	COMDAT ??_C@_05LAPONLG@false?$AA@
CONST	SEGMENT DWORD USE32 PUBLIC 'CONST'
CONST	ENDS
;	COMDAT _wmemcpy
_TEXT	SEGMENT PARA USE32 PUBLIC 'CODE'
_TEXT	ENDS
;	COMDAT ?max_size@?$allocator@_W@std@@QBEIXZ
_TEXT	SEGMENT PARA USE32 PUBLIC 'CODE'
_TEXT	ENDS
;	COMDAT ?allocate@?$allocator@_W@std@@QAEPA_WI@Z
_TEXT	SEGMENT PARA USE32 PUBLIC 'CODE'
_TEXT	ENDS
;	COMDAT ??$_Allocate@_W@std@@YAPA_WIPA_W@Z
_TEXT	SEGMENT PARA USE32 PUBLIC 'CODE'
_TEXT	ENDS
;	COMDAT ??_C@_01GFHCPBMG@C?$AA@
CONST	SEGMENT DWORD USE32 PUBLIC 'CONST'
CONST	ENDS
;	COMDAT ?_Peek@?$istreambuf_iterator@_WU?$char_traits@_W@std@@@std@@AAE_WXZ
_TEXT	SEGMENT PARA USE32 PUBLIC 'CODE'
_TEXT	ENDS
;	COMDAT ?_Peek@?$istreambuf_iterator@DU?$char_traits@D@std@@@std@@AAEDXZ
_TEXT	SEGMENT PARA USE32 PUBLIC 'CODE'
_TEXT	ENDS
;	COMDAT ??$use_facet@V?$ctype@_W@std@@@std@@YAABV?$ctype@_W@0@ABVlocale@0@@Z
_TEXT	SEGMENT PARA USE32 PUBLIC 'CODE'
_TEXT	ENDS
;	COMDAT ??_S?$ctype@_W@std@@6B@
CONST	SEGMENT DWORD USE32 PUBLIC 'CONST'
CONST	ENDS
;	COMDAT ??_R4?$ctype@_W@std@@6B@
rdata$r	SEGMENT DWORD USE32 PUBLIC 'CONST'
rdata$r	ENDS
;	COMDAT ??_R0?AV?$ctype@_W@std@@@8
_DATA	SEGMENT DWORD USE32 PUBLIC 'DATA'
_DATA	ENDS
;	COMDAT ??_R3?$ctype@_W@std@@8
rdata$r	SEGMENT DWORD USE32 PUBLIC 'CONST'
rdata$r	ENDS
;	COMDAT ??_R2?$ctype@_W@std@@8
rdata$r	SEGMENT DWORD USE32 PUBLIC 'CONST'
rdata$r	ENDS
;	COMDAT ??_R1A@?0A@A@?$ctype@_W@std@@8
rdata$r	SEGMENT DWORD USE32 PUBLIC 'CONST'
rdata$r	ENDS
;	COMDAT ??_R1A@?0A@A@ctype_base@std@@8
rdata$r	SEGMENT DWORD USE32 PUBLIC 'CONST'
rdata$r	ENDS
;	COMDAT ??_R0?AUctype_base@std@@@8
_DATA	SEGMENT DWORD USE32 PUBLIC 'DATA'
_DATA	ENDS
;	COMDAT ??_G?$ctype@_W@std@@MAEPAXI@Z
_TEXT	SEGMENT PARA USE32 PUBLIC 'CODE'
_TEXT	ENDS
;	COMDAT ??_C@_08EPJLHIJG@bad?5cast?$AA@
CONST	SEGMENT DWORD USE32 PUBLIC 'CONST'
CONST	ENDS
;	COMDAT __TI2?AVbad_cast@@
xdata$x	SEGMENT DWORD USE32 PUBLIC 'CONST'
xdata$x	ENDS
;	COMDAT __CTA2?AVbad_cast@@
xdata$x	SEGMENT DWORD USE32 PUBLIC 'CONST'
xdata$x	ENDS
;	COMDAT __CT??_R0?AVbad_cast@@@8??0bad_cast@@QAE@ABV0@@Z12
xdata$x	SEGMENT DWORD USE32 PUBLIC 'CONST'
xdata$x	ENDS
;	COMDAT ??_R0?AVbad_cast@@@8
_DATA	SEGMENT DWORD USE32 PUBLIC 'DATA'
_DATA	ENDS
;	COMDAT __CT??_R0?AVexception@@@8??0exception@@QAE@ABV0@@Z12
xdata$x	SEGMENT DWORD USE32 PUBLIC 'CONST'
xdata$x	ENDS
;	COMDAT ??_R0?AVexception@@@8
_DATA	SEGMENT DWORD USE32 PUBLIC 'DATA'
_DATA	ENDS
;	COMDAT ??$use_facet@V?$ctype@D@std@@@std@@YAABV?$ctype@D@0@ABVlocale@0@@Z
_TEXT	SEGMENT PARA USE32 PUBLIC 'CODE'
_TEXT	ENDS
;	COMDAT ??_S?$ctype@D@std@@6B@
CONST	SEGMENT DWORD USE32 PUBLIC 'CONST'
CONST	ENDS
;	COMDAT ??_R4?$ctype@D@std@@6B@
rdata$r	SEGMENT DWORD USE32 PUBLIC 'CONST'
rdata$r	ENDS
;	COMDAT ??_R0?AV?$ctype@D@std@@@8
_DATA	SEGMENT DWORD USE32 PUBLIC 'DATA'
_DATA	ENDS
;	COMDAT ??_R3?$ctype@D@std@@8
rdata$r	SEGMENT DWORD USE32 PUBLIC 'CONST'
rdata$r	ENDS
;	COMDAT ??_R2?$ctype@D@std@@8
rdata$r	SEGMENT DWORD USE32 PUBLIC 'CONST'
rdata$r	ENDS
;	COMDAT ??_R1A@?0A@A@?$ctype@D@std@@8
rdata$r	SEGMENT DWORD USE32 PUBLIC 'CONST'
rdata$r	ENDS
;	COMDAT ??_G?$ctype@D@std@@MAEPAXI@Z
_TEXT	SEGMENT PARA USE32 PUBLIC 'CODE'
_TEXT	ENDS
;	COMDAT ??_S?$numpunct@_W@std@@6B@
CONST	SEGMENT DWORD USE32 PUBLIC 'CONST'
CONST	ENDS
;	COMDAT ??_S?$numpunct@D@std@@6B@
CONST	SEGMENT DWORD USE32 PUBLIC 'CONST'
CONST	ENDS
;	COMDAT _wmemmove
_TEXT	SEGMENT PARA USE32 PUBLIC 'CODE'
_TEXT	ENDS
;	COMDAT ?deallocate@?$allocator@_W@std@@QAEXPA_WI@Z
_TEXT	SEGMENT PARA USE32 PUBLIC 'CODE'
_TEXT	ENDS
;	COMDAT ??0?$allocator@_W@std@@QAE@ABV01@@Z
_TEXT	SEGMENT PARA USE32 PUBLIC 'CODE'
_TEXT	ENDS
;	COMDAT ??_7PaneMulti@ETSLayoutMgr@@6B@
CONST	SEGMENT DWORD USE32 PUBLIC 'CONST'
CONST	ENDS
;	COMDAT ??BCRect@@QAEPAUtagRECT@@XZ
_TEXT	SEGMENT PARA USE32 PUBLIC 'CODE'
_TEXT	ENDS
;	COMDAT ?GetClientRect@CWnd@@QBEXPAUtagRECT@@@Z
_TEXT	SEGMENT PARA USE32 PUBLIC 'CODE'
_TEXT	ENDS
;	COMDAT ??0CSize@@QAE@HH@Z
_TEXT	SEGMENT PARA USE32 PUBLIC 'CODE'
_TEXT	ENDS
;	COMDAT ??0CSize@@QAE@XZ
_TEXT	SEGMENT PARA USE32 PUBLIC 'CODE'
_TEXT	ENDS
;	COMDAT ??_7ETSLayoutMgr@@6B@
CONST	SEGMENT DWORD USE32 PUBLIC 'CONST'
CONST	ENDS
;	COMDAT ?IsLocked@CStringData@ATL@@QBE_NXZ
_TEXT	SEGMENT PARA USE32 PUBLIC 'CODE'
_TEXT	ENDS
;	COMDAT ?AddRef@CStringData@ATL@@QAEXXZ
_TEXT	SEGMENT PARA USE32 PUBLIC 'CODE'
_TEXT	ENDS
;	COMDAT ??0CRect@@QAE@HHHH@Z
_TEXT	SEGMENT PARA USE32 PUBLIC 'CODE'
_TEXT	ENDS
;	COMDAT ??0CRect@@QAE@XZ
_TEXT	SEGMENT PARA USE32 PUBLIC 'CODE'
_TEXT	ENDS
;	COMDAT ??_7PaneBase@ETSLayoutMgr@@6B@
CONST	SEGMENT DWORD USE32 PUBLIC 'CONST'
CONST	ENDS
sxdata	SEGMENT DWORD USE32 'SXDATA'
sxdata	ENDS
FLAT	GROUP _DATA, CONST, _BSS
	ASSUME	CS: FLAT, DS: FLAT, SS: FLAT
endif

INCLUDELIB MSVCRT
INCLUDELIB OLDNAMES

PUBLIC	?g_pfnGetThreadACP@ATL@@3P6GIXZA		; ATL::g_pfnGetThreadACP
PUBLIC	?_AtlGetThreadACPThunk@ATL@@YGIXZ		; ATL::_AtlGetThreadACPThunk
;	COMDAT ?g_pfnGetThreadACP@ATL@@3P6GIXZA
_DATA	SEGMENT
?g_pfnGetThreadACP@ATL@@3P6GIXZA DD FLAT:?_AtlGetThreadACPThunk@ATL@@YGIXZ ; ATL::g_pfnGetThreadACP
_DATA	ENDS
PUBLIC	??0PaneMulti@ETSLayoutMgr@@QAE@PAV1@W4layOrientation@1@HH@Z ; ETSLayoutMgr::PaneMulti::PaneMulti
PUBLIC	??0?$CMap@V?$CStringT@DV?$StrTraitMFC_DLL@DV?$ChTraitsCRT@D@ATL@@@@@ATL@@PBDVCPaneBase@ETSLayoutMgr@@V34@@@QAE@H@Z ; CMap<ATL::CStringT<char,StrTraitMFC_DLL<char,ATL::ChTraitsCRT<char> > >,char const *,ETSLayoutMgr::CPaneBase,ETSLayoutMgr::CPaneBase>::CMap<ATL::CStringT<char,StrTraitMFC_DLL<char,ATL::ChTraitsCRT<char> > >,char const *,ETSLayoutMgr::CPaneBase,ETSLayoutMgr::CPaneBase>
PUBLIC	?getConstrainHorz@PaneMulti@ETSLayoutMgr@@UAEHH@Z ; ETSLayoutMgr::PaneMulti::getConstrainHorz
PUBLIC	?getConstrainVert@PaneMulti@ETSLayoutMgr@@UAEHH@Z ; ETSLayoutMgr::PaneMulti::getConstrainVert
PUBLIC	?getMinConstrainHorz@PaneMulti@ETSLayoutMgr@@UAEHXZ ; ETSLayoutMgr::PaneMulti::getMinConstrainHorz
PUBLIC	?getMinConstrainVert@PaneMulti@ETSLayoutMgr@@UAEHXZ ; ETSLayoutMgr::PaneMulti::getMinConstrainVert
PUBLIC	?getMaxConstrainHorz@PaneMulti@ETSLayoutMgr@@UAEHXZ ; ETSLayoutMgr::PaneMulti::getMaxConstrainHorz
PUBLIC	?getMaxConstrainVert@PaneMulti@ETSLayoutMgr@@UAEHXZ ; ETSLayoutMgr::PaneMulti::getMaxConstrainVert
PUBLIC	?resizeTo@PaneMulti@ETSLayoutMgr@@UAE_NAAVCRect@@_N1@Z ; ETSLayoutMgr::PaneMulti::resizeTo
PUBLIC	??_7PaneMulti@ETSLayoutMgr@@6B@			; ETSLayoutMgr::PaneMulti::`vftable'
PUBLIC	??_GPaneMulti@ETSLayoutMgr@@UAEPAXI@Z		; ETSLayoutMgr::PaneMulti::`scalar deleting destructor'
PUBLIC	??_R4PaneMulti@ETSLayoutMgr@@6B@		; ETSLayoutMgr::PaneMulti::`RTTI Complete Object Locator'
PUBLIC	??_R0?AVPaneMulti@ETSLayoutMgr@@@8		; ETSLayoutMgr::PaneMulti `RTTI Type Descriptor'
PUBLIC	??_R3PaneMulti@ETSLayoutMgr@@8			; ETSLayoutMgr::PaneMulti::`RTTI Class Hierarchy Descriptor'
PUBLIC	??_R2PaneMulti@ETSLayoutMgr@@8			; ETSLayoutMgr::PaneMulti::`RTTI Base Class Array'
PUBLIC	??_R1A@?0A@A@PaneMulti@ETSLayoutMgr@@8		; ETSLayoutMgr::PaneMulti::`RTTI Base Class Descriptor at (0,-1,0,0)'
PUBLIC	??_R1A@?0A@A@Pane@ETSLayoutMgr@@8		; ETSLayoutMgr::Pane::`RTTI Base Class Descriptor at (0,-1,0,0)'
PUBLIC	??_R0?AVPane@ETSLayoutMgr@@@8			; ETSLayoutMgr::Pane `RTTI Type Descriptor'
PUBLIC	??_R1A@?0A@A@PaneBase@ETSLayoutMgr@@8		; ETSLayoutMgr::PaneBase::`RTTI Base Class Descriptor at (0,-1,0,0)'
PUBLIC	??_R0?AVPaneBase@ETSLayoutMgr@@@8		; ETSLayoutMgr::PaneBase `RTTI Type Descriptor'
EXTRN	__except_list:DWORD
EXTRN	___CxxFrameHandler:NEAR
EXTRN	??0Pane@ETSLayoutMgr@@IAE@PAV1@W4layOrientation@1@HH@Z:NEAR ; ETSLayoutMgr::Pane::Pane
EXTRN	?addPane@Pane@ETSLayoutMgr@@UAE_NVCPaneBase@2@@Z:NEAR ; ETSLayoutMgr::Pane::addPane
EXTRN	?addPane@Pane@ETSLayoutMgr@@UAE_NVCPane@2@W4layResizeMode@2@H@Z:NEAR ; ETSLayoutMgr::Pane::addPane
EXTRN	??1Pane@ETSLayoutMgr@@UAE@XZ:NEAR		; ETSLayoutMgr::Pane::~Pane
EXTRN	__imp_??0?$CStringT@DV?$StrTraitMFC_DLL@DV?$ChTraitsCRT@D@ATL@@@@@ATL@@QAE@XZ:NEAR
EXTRN	__imp_??1?$CStringT@DV?$StrTraitMFC_DLL@DV?$ChTraitsCRT@D@ATL@@@@@ATL@@QAE@XZ:NEAR
EXTRN	?addLayer@PaneMulti@ETSLayoutMgr@@UAEXV?$CStringT@DV?$StrTraitMFC_DLL@DV?$ChTraitsCRT@D@ATL@@@@@ATL@@VCPaneBase@2@@Z:NEAR ; ETSLayoutMgr::PaneMulti::addLayer
EXTRN	?showPane@PaneMulti@ETSLayoutMgr@@UAEX_N@Z:NEAR	; ETSLayoutMgr::PaneMulti::showPane
EXTRN	?GetSubPane@PaneMulti@ETSLayoutMgr@@UAE?AVCPaneBase@2@V?$CStringT@DV?$StrTraitMFC_DLL@DV?$ChTraitsCRT@D@ATL@@@@@ATL@@@Z:NEAR ; ETSLayoutMgr::PaneMulti::GetSubPane
EXTRN	??_EPaneMulti@ETSLayoutMgr@@UAEPAXI@Z:NEAR	; ETSLayoutMgr::PaneMulti::`vector deleting destructor'
EXTRN	??_7type_info@@6B@:QWORD			; type_info::`vftable'
EXTRN	??0CPaneBase@ETSLayoutMgr@@QAE@XZ:NEAR		; ETSLayoutMgr::CPaneBase::CPaneBase
EXTRN	??1CPaneBase@ETSLayoutMgr@@QAE@XZ:NEAR		; ETSLayoutMgr::CPaneBase::~CPaneBase
xdata$x	SEGMENT
$T199721 DD	0ffffffffH
	DD	FLAT:$L199711
	DD	00H
	DD	FLAT:$L199712
	DD	01H
	DD	FLAT:$L199713
$T199718 DD	019930520H
	DD	03H
	DD	FLAT:$T199721
	DD	2 DUP(00H)
	DD	2 DUP(00H)
xdata$x	ENDS
;	COMDAT ??_7PaneMulti@ETSLayoutMgr@@6B@
; File d:\boxgit\playbox\playbox\dev\prj\playbox\src\layoutmgr\etspanemulti.cpp
CONST	SEGMENT
??_7PaneMulti@ETSLayoutMgr@@6B@ DD FLAT:??_R4PaneMulti@ETSLayoutMgr@@6B@ ; ETSLayoutMgr::PaneMulti::`vftable'
	DD	FLAT:?getConstrainHorz@PaneMulti@ETSLayoutMgr@@UAEHH@Z
	DD	FLAT:?getConstrainVert@PaneMulti@ETSLayoutMgr@@UAEHH@Z
	DD	FLAT:?getMinConstrainHorz@PaneMulti@ETSLayoutMgr@@UAEHXZ
	DD	FLAT:?getMaxConstrainHorz@PaneMulti@ETSLayoutMgr@@UAEHXZ
	DD	FLAT:?getMinConstrainVert@PaneMulti@ETSLayoutMgr@@UAEHXZ
	DD	FLAT:?getMaxConstrainVert@PaneMulti@ETSLayoutMgr@@UAEHXZ
	DD	FLAT:?resizeTo@PaneMulti@ETSLayoutMgr@@UAE_NAAVCRect@@_N1@Z
	DD	FLAT:?GetSubPane@PaneMulti@ETSLayoutMgr@@UAE?AVCPaneBase@2@V?$CStringT@DV?$StrTraitMFC_DLL@DV?$ChTraitsCRT@D@ATL@@@@@ATL@@@Z
	DD	FLAT:??_EPaneMulti@ETSLayoutMgr@@UAEPAXI@Z
	DD	FLAT:?showPane@PaneMulti@ETSLayoutMgr@@UAEX_N@Z
	DD	FLAT:?addPane@Pane@ETSLayoutMgr@@UAE_NVCPane@2@W4layResizeMode@2@H@Z
	DD	FLAT:?addPane@Pane@ETSLayoutMgr@@UAE_NVCPaneBase@2@@Z
	DD	FLAT:?addLayer@PaneMulti@ETSLayoutMgr@@UAEXV?$CStringT@DV?$StrTraitMFC_DLL@DV?$ChTraitsCRT@D@ATL@@@@@ATL@@VCPaneBase@2@@Z
CONST	ENDS
;	COMDAT ??_R4PaneMulti@ETSLayoutMgr@@6B@
rdata$r	SEGMENT
??_R4PaneMulti@ETSLayoutMgr@@6B@ DD 00H			; ETSLayoutMgr::PaneMulti::`RTTI Complete Object Locator'
	DD	00H
	DD	00H
	DD	FLAT:??_R0?AVPaneMulti@ETSLayoutMgr@@@8
	DD	FLAT:??_R3PaneMulti@ETSLayoutMgr@@8
rdata$r	ENDS
;	COMDAT ??_R0?AVPaneMulti@ETSLayoutMgr@@@8
_DATA	SEGMENT
??_R0?AVPaneMulti@ETSLayoutMgr@@@8 DD FLAT:??_7type_info@@6B@ ; ETSLayoutMgr::PaneMulti `RTTI Type Descriptor'
	DD	00H
	DB	'.?AVPaneMulti@ETSLayoutMgr@@', 00H
_DATA	ENDS
;	COMDAT ??_R3PaneMulti@ETSLayoutMgr@@8
rdata$r	SEGMENT
??_R3PaneMulti@ETSLayoutMgr@@8 DD 00H			; ETSLayoutMgr::PaneMulti::`RTTI Class Hierarchy Descriptor'
	DD	00H
	DD	03H
	DD	FLAT:??_R2PaneMulti@ETSLayoutMgr@@8
rdata$r	ENDS
;	COMDAT ??_R2PaneMulti@ETSLayoutMgr@@8
rdata$r	SEGMENT
??_R2PaneMulti@ETSLayoutMgr@@8 DD FLAT:??_R1A@?0A@A@PaneMulti@ETSLayoutMgr@@8 ; ETSLayoutMgr::PaneMulti::`RTTI Base Class Array'
	DD	FLAT:??_R1A@?0A@A@Pane@ETSLayoutMgr@@8
	DD	FLAT:??_R1A@?0A@A@PaneBase@ETSLayoutMgr@@8
rdata$r	ENDS
;	COMDAT ??_R1A@?0A@A@PaneMulti@ETSLayoutMgr@@8
rdata$r	SEGMENT
??_R1A@?0A@A@PaneMulti@ETSLayoutMgr@@8 DD FLAT:??_R0?AVPaneMulti@ETSLayoutMgr@@@8 ; ETSLayoutMgr::PaneMulti::`RTTI Base Class Descriptor at (0,-1,0,0)'
	DD	02H
	DD	00H
	DD	0ffffffffH
	DD	00H
	DD	00H
rdata$r	ENDS
;	COMDAT ??_R1A@?0A@A@Pane@ETSLayoutMgr@@8
rdata$r	SEGMENT
??_R1A@?0A@A@Pane@ETSLayoutMgr@@8 DD FLAT:??_R0?AVPane@ETSLayoutMgr@@@8 ; ETSLayoutMgr::Pane::`RTTI Base Class Descriptor at (0,-1,0,0)'
	DD	01H
	DD	00H
	DD	0ffffffffH
	DD	00H
	DD	00H
rdata$r	ENDS
;	COMDAT ??_R0?AVPane@ETSLayoutMgr@@@8
_DATA	SEGMENT
??_R0?AVPane@ETSLayoutMgr@@@8 DD FLAT:??_7type_info@@6B@ ; ETSLayoutMgr::Pane `RTTI Type Descriptor'
	DD	00H
	DB	'.?AVPane@ETSLayoutMgr@@', 00H
_DATA	ENDS
;	COMDAT ??_R1A@?0A@A@PaneBase@ETSLayoutMgr@@8
rdata$r	SEGMENT
??_R1A@?0A@A@PaneBase@ETSLayoutMgr@@8 DD FLAT:??_R0?AVPaneBase@ETSLayoutMgr@@@8 ; ETSLayoutMgr::PaneBase::`RTTI Base Class Descriptor at (0,-1,0,0)'
	DD	00H
	DD	00H
	DD	0ffffffffH
	DD	00H
	DD	00H
rdata$r	ENDS
;	COMDAT ??_R0?AVPaneBase@ETSLayoutMgr@@@8
_DATA	SEGMENT
??_R0?AVPaneBase@ETSLayoutMgr@@@8 DD FLAT:??_7type_info@@6B@ ; ETSLayoutMgr::PaneBase `RTTI Type Descriptor'
	DD	00H
	DB	'.?AVPaneBase@ETSLayoutMgr@@', 00H
; Function compile flags: /Odt
_DATA	ENDS
_TEXT	SEGMENT
_this$ = -16						; size = 4
__$EHRec$ = -12						; size = 12
_pMgr$ = 8						; size = 4
_orientation$ = 12					; size = 4
_sizeBorder$ = 16					; size = 4
_sizeExtraBorder$ = 20					; size = 4
??0PaneMulti@ETSLayoutMgr@@QAE@PAV1@W4layOrientation@1@HH@Z PROC NEAR ; ETSLayoutMgr::PaneMulti::PaneMulti
; _this$ = ecx

; 8    : {

  00000	55		 push	 ebp
  00001	8b ec		 mov	 ebp, esp
  00003	6a ff		 push	 -1
  00005	68 00 00 00 00	 push	 __ehhandler$??0PaneMulti@ETSLayoutMgr@@QAE@PAV1@W4layOrientation@1@HH@Z
  0000a	64 a1 00 00 00
	00		 mov	 eax, DWORD PTR fs:__except_list
  00010	50		 push	 eax
  00011	64 89 25 00 00
	00 00		 mov	 DWORD PTR fs:__except_list, esp
  00018	51		 push	 ecx
  00019	89 4d f0	 mov	 DWORD PTR _this$[ebp], ecx
  0001c	8b 45 14	 mov	 eax, DWORD PTR _sizeExtraBorder$[ebp]
  0001f	50		 push	 eax
  00020	8b 4d 10	 mov	 ecx, DWORD PTR _sizeBorder$[ebp]
  00023	51		 push	 ecx
  00024	8b 55 0c	 mov	 edx, DWORD PTR _orientation$[ebp]
  00027	52		 push	 edx
  00028	8b 45 08	 mov	 eax, DWORD PTR _pMgr$[ebp]
  0002b	50		 push	 eax
  0002c	8b 4d f0	 mov	 ecx, DWORD PTR _this$[ebp]
  0002f	e8 00 00 00 00	 call	 ??0Pane@ETSLayoutMgr@@IAE@PAV1@W4layOrientation@1@HH@Z ; ETSLayoutMgr::Pane::Pane
  00034	c7 45 fc 00 00
	00 00		 mov	 DWORD PTR __$EHRec$[ebp+8], 0
  0003b	8b 4d f0	 mov	 ecx, DWORD PTR _this$[ebp]
  0003e	c7 01 00 00 00
	00		 mov	 DWORD PTR [ecx], OFFSET FLAT:??_7PaneMulti@ETSLayoutMgr@@6B@
  00044	8b 4d f0	 mov	 ecx, DWORD PTR _this$[ebp]
  00047	81 c1 84 00 00
	00		 add	 ecx, 132		; 00000084H
  0004d	ff 15 00 00 00
	00		 call	 DWORD PTR __imp_??0?$CStringT@DV?$StrTraitMFC_DLL@DV?$ChTraitsCRT@D@ATL@@@@@ATL@@QAE@XZ
  00053	c6 45 fc 01	 mov	 BYTE PTR __$EHRec$[ebp+8], 1
  00057	8b 4d f0	 mov	 ecx, DWORD PTR _this$[ebp]
  0005a	81 c1 88 00 00
	00		 add	 ecx, 136		; 00000088H
  00060	e8 00 00 00 00	 call	 ??0CPaneBase@ETSLayoutMgr@@QAE@XZ ; ETSLayoutMgr::CPaneBase::CPaneBase
  00065	c6 45 fc 02	 mov	 BYTE PTR __$EHRec$[ebp+8], 2
  00069	6a 0a		 push	 10			; 0000000aH
  0006b	8b 4d f0	 mov	 ecx, DWORD PTR _this$[ebp]
  0006e	81 c1 8c 00 00
	00		 add	 ecx, 140		; 0000008cH
  00074	e8 00 00 00 00	 call	 ??0?$CMap@V?$CStringT@DV?$StrTraitMFC_DLL@DV?$ChTraitsCRT@D@ATL@@@@@ATL@@PBDVCPaneBase@ETSLayoutMgr@@V34@@@QAE@H@Z ; CMap<ATL::CStringT<char,StrTraitMFC_DLL<char,ATL::ChTraitsCRT<char> > >,char const *,ETSLayoutMgr::CPaneBase,ETSLayoutMgr::CPaneBase>::CMap<ATL::CStringT<char,StrTraitMFC_DLL<char,ATL::ChTraitsCRT<char> > >,char const *,ETSLayoutMgr::CPaneBase,ETSLayoutMgr::CPaneBase>

; 9    : }

  00079	c7 45 fc ff ff
	ff ff		 mov	 DWORD PTR __$EHRec$[ebp+8], -1
  00080	8b 45 f0	 mov	 eax, DWORD PTR _this$[ebp]
  00083	8b 4d f4	 mov	 ecx, DWORD PTR __$EHRec$[ebp]
  00086	64 89 0d 00 00
	00 00		 mov	 DWORD PTR fs:__except_list, ecx
  0008d	8b e5		 mov	 esp, ebp
  0008f	5d		 pop	 ebp
  00090	c2 10 00	 ret	 16			; 00000010H
_TEXT	ENDS
text$x	SEGMENT
$L199711:
  00000	8b 4d f0	 mov	 ecx, DWORD PTR _this$[ebp]
  00003	e9 00 00 00 00	 jmp	 ??1Pane@ETSLayoutMgr@@UAE@XZ ; ETSLayoutMgr::Pane::~Pane
$L199712:
  00008	8b 4d f0	 mov	 ecx, DWORD PTR _this$[ebp]
  0000b	81 c1 84 00 00
	00		 add	 ecx, 132		; 00000084H
  00011	ff 25 00 00 00
	00		 jmp	 DWORD PTR __imp_??1?$CStringT@DV?$StrTraitMFC_DLL@DV?$ChTraitsCRT@D@ATL@@@@@ATL@@QAE@XZ
$L199713:
  00017	8b 4d f0	 mov	 ecx, DWORD PTR _this$[ebp]
  0001a	81 c1 88 00 00
	00		 add	 ecx, 136		; 00000088H
  00020	e9 00 00 00 00	 jmp	 ??1CPaneBase@ETSLayoutMgr@@QAE@XZ ; ETSLayoutMgr::CPaneBase::~CPaneBase
__ehhandler$??0PaneMulti@ETSLayoutMgr@@QAE@PAV1@W4layOrientation@1@HH@Z:
  00025	b8 00 00 00 00	 mov	 eax, OFFSET FLAT:$T199718
  0002a	e9 00 00 00 00	 jmp	 ___CxxFrameHandler
text$x	ENDS
??0PaneMulti@ETSLayoutMgr@@QAE@PAV1@W4layOrientation@1@HH@Z ENDP ; ETSLayoutMgr::PaneMulti::PaneMulti
PUBLIC	??1PaneMulti@ETSLayoutMgr@@UAE@XZ		; ETSLayoutMgr::PaneMulti::~PaneMulti
EXTRN	??3@YAXPAX@Z:NEAR				; operator delete
; Function compile flags: /Odt
;	COMDAT ??_GPaneMulti@ETSLayoutMgr@@UAEPAXI@Z
_TEXT	SEGMENT
_this$ = -4						; size = 4
___flags$ = 8						; size = 4
??_GPaneMulti@ETSLayoutMgr@@UAEPAXI@Z PROC NEAR		; ETSLayoutMgr::PaneMulti::`scalar deleting destructor', COMDAT
; _this$ = ecx
  00000	55		 push	 ebp
  00001	8b ec		 mov	 ebp, esp
  00003	51		 push	 ecx
  00004	89 4d fc	 mov	 DWORD PTR _this$[ebp], ecx
  00007	8b 4d fc	 mov	 ecx, DWORD PTR _this$[ebp]
  0000a	e8 00 00 00 00	 call	 ??1PaneMulti@ETSLayoutMgr@@UAE@XZ
  0000f	8b 45 08	 mov	 eax, DWORD PTR ___flags$[ebp]
  00012	83 e0 01	 and	 eax, 1
  00015	74 0c		 je	 SHORT $L198593
  00017	8b 4d fc	 mov	 ecx, DWORD PTR _this$[ebp]
  0001a	51		 push	 ecx
  0001b	e8 00 00 00 00	 call	 ??3@YAXPAX@Z		; operator delete
  00020	83 c4 04	 add	 esp, 4
$L198593:
  00023	8b 45 fc	 mov	 eax, DWORD PTR _this$[ebp]
  00026	8b e5		 mov	 esp, ebp
  00028	5d		 pop	 ebp
  00029	c2 04 00	 ret	 4
??_GPaneMulti@ETSLayoutMgr@@UAEPAXI@Z ENDP		; ETSLayoutMgr::PaneMulti::`scalar deleting destructor'
_TEXT	ENDS
PUBLIC	??1?$CMap@V?$CStringT@DV?$StrTraitMFC_DLL@DV?$ChTraitsCRT@D@ATL@@@@@ATL@@PBDVCPaneBase@ETSLayoutMgr@@V34@@@UAE@XZ ; CMap<ATL::CStringT<char,StrTraitMFC_DLL<char,ATL::ChTraitsCRT<char> > >,char const *,ETSLayoutMgr::CPaneBase,ETSLayoutMgr::CPaneBase>::~CMap<ATL::CStringT<char,StrTraitMFC_DLL<char,ATL::ChTraitsCRT<char> > >,char const *,ETSLayoutMgr::CPaneBase,ETSLayoutMgr::CPaneBase>
;	COMDAT xdata$x
xdata$x	SEGMENT
$T199733 DD	0ffffffffH
	DD	FLAT:$L199726
	DD	00H
	DD	FLAT:$L199727
	DD	01H
	DD	FLAT:$L199728
$T199731 DD	019930520H
	DD	03H
	DD	FLAT:$T199733
	DD	2 DUP(00H)
	DD	2 DUP(00H)
; Function compile flags: /Odt
xdata$x	ENDS
;	COMDAT ??1PaneMulti@ETSLayoutMgr@@UAE@XZ
_TEXT	SEGMENT
_this$ = -16						; size = 4
__$EHRec$ = -12						; size = 12
??1PaneMulti@ETSLayoutMgr@@UAE@XZ PROC NEAR		; ETSLayoutMgr::PaneMulti::~PaneMulti, COMDAT
; _this$ = ecx
  00000	55		 push	 ebp
  00001	8b ec		 mov	 ebp, esp
  00003	6a ff		 push	 -1
  00005	68 00 00 00 00	 push	 __ehhandler$??1PaneMulti@ETSLayoutMgr@@UAE@XZ
  0000a	64 a1 00 00 00
	00		 mov	 eax, DWORD PTR fs:__except_list
  00010	50		 push	 eax
  00011	64 89 25 00 00
	00 00		 mov	 DWORD PTR fs:__except_list, esp
  00018	51		 push	 ecx
  00019	89 4d f0	 mov	 DWORD PTR _this$[ebp], ecx
  0001c	c7 45 fc 02 00
	00 00		 mov	 DWORD PTR __$EHRec$[ebp+8], 2
  00023	8b 4d f0	 mov	 ecx, DWORD PTR _this$[ebp]
  00026	81 c1 8c 00 00
	00		 add	 ecx, 140		; 0000008cH
  0002c	e8 00 00 00 00	 call	 ??1?$CMap@V?$CStringT@DV?$StrTraitMFC_DLL@DV?$ChTraitsCRT@D@ATL@@@@@ATL@@PBDVCPaneBase@ETSLayoutMgr@@V34@@@UAE@XZ ; CMap<ATL::CStringT<char,StrTraitMFC_DLL<char,ATL::ChTraitsCRT<char> > >,char const *,ETSLayoutMgr::CPaneBase,ETSLayoutMgr::CPaneBase>::~CMap<ATL::CStringT<char,StrTraitMFC_DLL<char,ATL::ChTraitsCRT<char> > >,char const *,ETSLayoutMgr::CPaneBase,ETSLayoutMgr::CPaneBase>
  00031	c6 45 fc 01	 mov	 BYTE PTR __$EHRec$[ebp+8], 1
  00035	8b 4d f0	 mov	 ecx, DWORD PTR _this$[ebp]
  00038	81 c1 88 00 00
	00		 add	 ecx, 136		; 00000088H
  0003e	e8 00 00 00 00	 call	 ??1CPaneBase@ETSLayoutMgr@@QAE@XZ ; ETSLayoutMgr::CPaneBase::~CPaneBase
  00043	c6 45 fc 00	 mov	 BYTE PTR __$EHRec$[ebp+8], 0
  00047	8b 4d f0	 mov	 ecx, DWORD PTR _this$[ebp]
  0004a	81 c1 84 00 00
	00		 add	 ecx, 132		; 00000084H
  00050	ff 15 00 00 00
	00		 call	 DWORD PTR __imp_??1?$CStringT@DV?$StrTraitMFC_DLL@DV?$ChTraitsCRT@D@ATL@@@@@ATL@@QAE@XZ
  00056	c7 45 fc ff ff
	ff ff		 mov	 DWORD PTR __$EHRec$[ebp+8], -1
  0005d	8b 4d f0	 mov	 ecx, DWORD PTR _this$[ebp]
  00060	e8 00 00 00 00	 call	 ??1Pane@ETSLayoutMgr@@UAE@XZ ; ETSLayoutMgr::Pane::~Pane
  00065	8b 4d f4	 mov	 ecx, DWORD PTR __$EHRec$[ebp]
  00068	64 89 0d 00 00
	00 00		 mov	 DWORD PTR fs:__except_list, ecx
  0006f	8b e5		 mov	 esp, ebp
  00071	5d		 pop	 ebp
  00072	c3		 ret	 0
_TEXT	ENDS
;	COMDAT text$x
text$x	SEGMENT
$L199726:
  00000	8b 4d f0	 mov	 ecx, DWORD PTR _this$[ebp]
  00003	e9 00 00 00 00	 jmp	 ??1Pane@ETSLayoutMgr@@UAE@XZ ; ETSLayoutMgr::Pane::~Pane
$L199727:
  00008	8b 4d f0	 mov	 ecx, DWORD PTR _this$[ebp]
  0000b	81 c1 84 00 00
	00		 add	 ecx, 132		; 00000084H
  00011	ff 25 00 00 00
	00		 jmp	 DWORD PTR __imp_??1?$CStringT@DV?$StrTraitMFC_DLL@DV?$ChTraitsCRT@D@ATL@@@@@ATL@@QAE@XZ
$L199728:
  00017	8b 4d f0	 mov	 ecx, DWORD PTR _this$[ebp]
  0001a	81 c1 88 00 00
	00		 add	 ecx, 136		; 00000088H
  00020	e9 00 00 00 00	 jmp	 ??1CPaneBase@ETSLayoutMgr@@QAE@XZ ; ETSLayoutMgr::CPaneBase::~CPaneBase
__ehhandler$??1PaneMulti@ETSLayoutMgr@@UAE@XZ:
  00025	b8 00 00 00 00	 mov	 eax, OFFSET FLAT:$T199731
  0002a	e9 00 00 00 00	 jmp	 ___CxxFrameHandler
text$x	ENDS
??1PaneMulti@ETSLayoutMgr@@UAE@XZ ENDP			; ETSLayoutMgr::PaneMulti::~PaneMulti
EXTRN	??CCPaneBase@ETSLayoutMgr@@QBEPAVPaneBase@1@XZ:NEAR ; ETSLayoutMgr::CPaneBase::operator->
; Function compile flags: /Odt
_TEXT	SEGMENT
tv68 = -8						; size = 4
_this$ = -4						; size = 4
_sizeParent$ = 8					; size = 4
?getConstrainHorz@PaneMulti@ETSLayoutMgr@@UAEHH@Z PROC NEAR ; ETSLayoutMgr::PaneMulti::getConstrainHorz
; _this$ = ecx

; 12   : {

  000a0	55		 push	 ebp
  000a1	8b ec		 mov	 ebp, esp
  000a3	83 ec 08	 sub	 esp, 8
  000a6	89 4d fc	 mov	 DWORD PTR _this$[ebp], ecx

; 13   : 	return m_paneCurrent->getConstrainHorz(sizeParent);

  000a9	8b 4d fc	 mov	 ecx, DWORD PTR _this$[ebp]
  000ac	81 c1 88 00 00
	00		 add	 ecx, 136		; 00000088H
  000b2	e8 00 00 00 00	 call	 ??CCPaneBase@ETSLayoutMgr@@QBEPAVPaneBase@1@XZ ; ETSLayoutMgr::CPaneBase::operator->
  000b7	89 45 f8	 mov	 DWORD PTR tv68[ebp], eax
  000ba	8b 45 08	 mov	 eax, DWORD PTR _sizeParent$[ebp]
  000bd	50		 push	 eax
  000be	8b 4d f8	 mov	 ecx, DWORD PTR tv68[ebp]
  000c1	8b 11		 mov	 edx, DWORD PTR [ecx]
  000c3	8b 4d f8	 mov	 ecx, DWORD PTR tv68[ebp]
  000c6	ff 12		 call	 DWORD PTR [edx]

; 14   : }

  000c8	8b e5		 mov	 esp, ebp
  000ca	5d		 pop	 ebp
  000cb	c2 04 00	 ret	 4
?getConstrainHorz@PaneMulti@ETSLayoutMgr@@UAEHH@Z ENDP	; ETSLayoutMgr::PaneMulti::getConstrainHorz
; Function compile flags: /Odt
tv68 = -8						; size = 4
_this$ = -4						; size = 4
_sizeParent$ = 8					; size = 4
?getConstrainVert@PaneMulti@ETSLayoutMgr@@UAEHH@Z PROC NEAR ; ETSLayoutMgr::PaneMulti::getConstrainVert
; _this$ = ecx

; 17   : {

  000d0	55		 push	 ebp
  000d1	8b ec		 mov	 ebp, esp
  000d3	83 ec 08	 sub	 esp, 8
  000d6	89 4d fc	 mov	 DWORD PTR _this$[ebp], ecx

; 18   : 	return m_paneCurrent->getConstrainVert(sizeParent);

  000d9	8b 4d fc	 mov	 ecx, DWORD PTR _this$[ebp]
  000dc	81 c1 88 00 00
	00		 add	 ecx, 136		; 00000088H
  000e2	e8 00 00 00 00	 call	 ??CCPaneBase@ETSLayoutMgr@@QBEPAVPaneBase@1@XZ ; ETSLayoutMgr::CPaneBase::operator->
  000e7	89 45 f8	 mov	 DWORD PTR tv68[ebp], eax
  000ea	8b 45 08	 mov	 eax, DWORD PTR _sizeParent$[ebp]
  000ed	50		 push	 eax
  000ee	8b 4d f8	 mov	 ecx, DWORD PTR tv68[ebp]
  000f1	8b 11		 mov	 edx, DWORD PTR [ecx]
  000f3	8b 4d f8	 mov	 ecx, DWORD PTR tv68[ebp]
  000f6	ff 52 04	 call	 DWORD PTR [edx+4]

; 19   : }

  000f9	8b e5		 mov	 esp, ebp
  000fb	5d		 pop	 ebp
  000fc	c2 04 00	 ret	 4
?getConstrainVert@PaneMulti@ETSLayoutMgr@@UAEHH@Z ENDP	; ETSLayoutMgr::PaneMulti::getConstrainVert
; Function compile flags: /Odt
tv68 = -8						; size = 4
_this$ = -4						; size = 4
?getMinConstrainHorz@PaneMulti@ETSLayoutMgr@@UAEHXZ PROC NEAR ; ETSLayoutMgr::PaneMulti::getMinConstrainHorz
; _this$ = ecx

; 22   : {

  00100	55		 push	 ebp
  00101	8b ec		 mov	 ebp, esp
  00103	83 ec 08	 sub	 esp, 8
  00106	89 4d fc	 mov	 DWORD PTR _this$[ebp], ecx

; 23   : 	return m_paneCurrent->getMinConstrainHorz();

  00109	8b 4d fc	 mov	 ecx, DWORD PTR _this$[ebp]
  0010c	81 c1 88 00 00
	00		 add	 ecx, 136		; 00000088H
  00112	e8 00 00 00 00	 call	 ??CCPaneBase@ETSLayoutMgr@@QBEPAVPaneBase@1@XZ ; ETSLayoutMgr::CPaneBase::operator->
  00117	89 45 f8	 mov	 DWORD PTR tv68[ebp], eax
  0011a	8b 45 f8	 mov	 eax, DWORD PTR tv68[ebp]
  0011d	8b 10		 mov	 edx, DWORD PTR [eax]
  0011f	8b 4d f8	 mov	 ecx, DWORD PTR tv68[ebp]
  00122	ff 52 08	 call	 DWORD PTR [edx+8]

; 24   : }

  00125	8b e5		 mov	 esp, ebp
  00127	5d		 pop	 ebp
  00128	c3		 ret	 0
?getMinConstrainHorz@PaneMulti@ETSLayoutMgr@@UAEHXZ ENDP ; ETSLayoutMgr::PaneMulti::getMinConstrainHorz
; Function compile flags: /Odt
tv68 = -8						; size = 4
_this$ = -4						; size = 4
?getMinConstrainVert@PaneMulti@ETSLayoutMgr@@UAEHXZ PROC NEAR ; ETSLayoutMgr::PaneMulti::getMinConstrainVert
; _this$ = ecx

; 27   : {

  00130	55		 push	 ebp
  00131	8b ec		 mov	 ebp, esp
  00133	83 ec 08	 sub	 esp, 8
  00136	89 4d fc	 mov	 DWORD PTR _this$[ebp], ecx

; 28   : 	return m_paneCurrent->getMinConstrainVert();

  00139	8b 4d fc	 mov	 ecx, DWORD PTR _this$[ebp]
  0013c	81 c1 88 00 00
	00		 add	 ecx, 136		; 00000088H
  00142	e8 00 00 00 00	 call	 ??CCPaneBase@ETSLayoutMgr@@QBEPAVPaneBase@1@XZ ; ETSLayoutMgr::CPaneBase::operator->
  00147	89 45 f8	 mov	 DWORD PTR tv68[ebp], eax
  0014a	8b 45 f8	 mov	 eax, DWORD PTR tv68[ebp]
  0014d	8b 10		 mov	 edx, DWORD PTR [eax]
  0014f	8b 4d f8	 mov	 ecx, DWORD PTR tv68[ebp]
  00152	ff 52 10	 call	 DWORD PTR [edx+16]

; 29   : }

  00155	8b e5		 mov	 esp, ebp
  00157	5d		 pop	 ebp
  00158	c3		 ret	 0
?getMinConstrainVert@PaneMulti@ETSLayoutMgr@@UAEHXZ ENDP ; ETSLayoutMgr::PaneMulti::getMinConstrainVert
; Function compile flags: /Odt
tv68 = -8						; size = 4
_this$ = -4						; size = 4
?getMaxConstrainHorz@PaneMulti@ETSLayoutMgr@@UAEHXZ PROC NEAR ; ETSLayoutMgr::PaneMulti::getMaxConstrainHorz
; _this$ = ecx

; 32   : {

  00160	55		 push	 ebp
  00161	8b ec		 mov	 ebp, esp
  00163	83 ec 08	 sub	 esp, 8
  00166	89 4d fc	 mov	 DWORD PTR _this$[ebp], ecx

; 33   : 	return m_paneCurrent->getMaxConstrainHorz();

  00169	8b 4d fc	 mov	 ecx, DWORD PTR _this$[ebp]
  0016c	81 c1 88 00 00
	00		 add	 ecx, 136		; 00000088H
  00172	e8 00 00 00 00	 call	 ??CCPaneBase@ETSLayoutMgr@@QBEPAVPaneBase@1@XZ ; ETSLayoutMgr::CPaneBase::operator->
  00177	89 45 f8	 mov	 DWORD PTR tv68[ebp], eax
  0017a	8b 45 f8	 mov	 eax, DWORD PTR tv68[ebp]
  0017d	8b 10		 mov	 edx, DWORD PTR [eax]
  0017f	8b 4d f8	 mov	 ecx, DWORD PTR tv68[ebp]
  00182	ff 52 0c	 call	 DWORD PTR [edx+12]

; 34   : }

  00185	8b e5		 mov	 esp, ebp
  00187	5d		 pop	 ebp
  00188	c3		 ret	 0
?getMaxConstrainHorz@PaneMulti@ETSLayoutMgr@@UAEHXZ ENDP ; ETSLayoutMgr::PaneMulti::getMaxConstrainHorz
; Function compile flags: /Odt
tv68 = -8						; size = 4
_this$ = -4						; size = 4
?getMaxConstrainVert@PaneMulti@ETSLayoutMgr@@UAEHXZ PROC NEAR ; ETSLayoutMgr::PaneMulti::getMaxConstrainVert
; _this$ = ecx

; 37   : {

  00190	55		 push	 ebp
  00191	8b ec		 mov	 ebp, esp
  00193	83 ec 08	 sub	 esp, 8
  00196	89 4d fc	 mov	 DWORD PTR _this$[ebp], ecx

; 38   : 	return m_paneCurrent->getMaxConstrainVert();

  00199	8b 4d fc	 mov	 ecx, DWORD PTR _this$[ebp]
  0019c	81 c1 88 00 00
	00		 add	 ecx, 136		; 00000088H
  001a2	e8 00 00 00 00	 call	 ??CCPaneBase@ETSLayoutMgr@@QBEPAVPaneBase@1@XZ ; ETSLayoutMgr::CPaneBase::operator->
  001a7	89 45 f8	 mov	 DWORD PTR tv68[ebp], eax
  001aa	8b 45 f8	 mov	 eax, DWORD PTR tv68[ebp]
  001ad	8b 10		 mov	 edx, DWORD PTR [eax]
  001af	8b 4d f8	 mov	 ecx, DWORD PTR tv68[ebp]
  001b2	ff 52 14	 call	 DWORD PTR [edx+20]

; 39   : }

  001b5	8b e5		 mov	 esp, ebp
  001b7	5d		 pop	 ebp
  001b8	c3		 ret	 0
?getMaxConstrainVert@PaneMulti@ETSLayoutMgr@@UAEHXZ ENDP ; ETSLayoutMgr::PaneMulti::getMaxConstrainVert
; Function compile flags: /Odt
tv70 = -8						; size = 4
_this$ = -4						; size = 4
_rcNewArea$ = 8						; size = 4
_bRedraw$ = 12						; size = 1
_bReSizeAlways$ = 16					; size = 1
?resizeTo@PaneMulti@ETSLayoutMgr@@UAE_NAAVCRect@@_N1@Z PROC NEAR ; ETSLayoutMgr::PaneMulti::resizeTo
; _this$ = ecx

; 42   : {

  001c0	55		 push	 ebp
  001c1	8b ec		 mov	 ebp, esp
  001c3	83 ec 08	 sub	 esp, 8
  001c6	89 4d fc	 mov	 DWORD PTR _this$[ebp], ecx

; 43   : 	this->m_rcRect = rcNewArea;

  001c9	8b 45 08	 mov	 eax, DWORD PTR _rcNewArea$[ebp]
  001cc	8b 4d fc	 mov	 ecx, DWORD PTR _this$[ebp]
  001cf	83 c1 28	 add	 ecx, 40			; 00000028H
  001d2	8b 10		 mov	 edx, DWORD PTR [eax]
  001d4	89 11		 mov	 DWORD PTR [ecx], edx
  001d6	8b 50 04	 mov	 edx, DWORD PTR [eax+4]
  001d9	89 51 04	 mov	 DWORD PTR [ecx+4], edx
  001dc	8b 50 08	 mov	 edx, DWORD PTR [eax+8]
  001df	89 51 08	 mov	 DWORD PTR [ecx+8], edx
  001e2	8b 40 0c	 mov	 eax, DWORD PTR [eax+12]
  001e5	89 41 0c	 mov	 DWORD PTR [ecx+12], eax

; 44   : 	return m_paneCurrent->resizeTo(rcNewArea,bRedraw, bReSizeAlways);

  001e8	8b 4d fc	 mov	 ecx, DWORD PTR _this$[ebp]
  001eb	81 c1 88 00 00
	00		 add	 ecx, 136		; 00000088H
  001f1	e8 00 00 00 00	 call	 ??CCPaneBase@ETSLayoutMgr@@QBEPAVPaneBase@1@XZ ; ETSLayoutMgr::CPaneBase::operator->
  001f6	89 45 f8	 mov	 DWORD PTR tv70[ebp], eax
  001f9	8a 4d 10	 mov	 cl, BYTE PTR _bReSizeAlways$[ebp]
  001fc	51		 push	 ecx
  001fd	8a 55 0c	 mov	 dl, BYTE PTR _bRedraw$[ebp]
  00200	52		 push	 edx
  00201	8b 45 08	 mov	 eax, DWORD PTR _rcNewArea$[ebp]
  00204	50		 push	 eax
  00205	8b 4d f8	 mov	 ecx, DWORD PTR tv70[ebp]
  00208	8b 11		 mov	 edx, DWORD PTR [ecx]
  0020a	8b 4d f8	 mov	 ecx, DWORD PTR tv70[ebp]
  0020d	ff 52 18	 call	 DWORD PTR [edx+24]

; 45   : }

  00210	8b e5		 mov	 esp, ebp
  00212	5d		 pop	 ebp
  00213	c2 0c 00	 ret	 12			; 0000000cH
?resizeTo@PaneMulti@ETSLayoutMgr@@UAE_NAAVCRect@@_N1@Z ENDP ; ETSLayoutMgr::PaneMulti::resizeTo
_TEXT	ENDS
PUBLIC	?InterlockedExchangePointer@@YGPAXPAPAXPAX@Z	; InterlockedExchangePointer
PUBLIC	?_AtlGetThreadACPFake@ATL@@YGIXZ		; ATL::_AtlGetThreadACPFake
PUBLIC	?_AtlGetThreadACPReal@ATL@@YGIXZ		; ATL::_AtlGetThreadACPReal
EXTRN	___security_cookie:DWORD
EXTRN	@__security_check_cookie@4:NEAR
EXTRN	__imp__GetVersionExA@4:NEAR
; Function compile flags: /Odt
; File d:\program files (x86)\microsoft visual studio .net 2003\vc7\atlmfc\include\atlconv.h
;	COMDAT ?_AtlGetThreadACPThunk@ATL@@YGIXZ
_TEXT	SEGMENT
_pfnGetThreadACP$ = -164				; size = 4
_ver$ = -160						; size = 148
__$ArrayPad$ = -4					; size = 4
__$ReturnAddr$ = 4					; size = 4
?_AtlGetThreadACPThunk@ATL@@YGIXZ PROC NEAR		; ATL::_AtlGetThreadACPThunk, COMDAT

; 134  : {

  00000	55		 push	 ebp
  00001	8b ec		 mov	 ebp, esp
  00003	81 ec a4 00 00
	00		 sub	 esp, 164		; 000000a4H
  00009	a1 00 00 00 00	 mov	 eax, DWORD PTR ___security_cookie
  0000e	89 45 fc	 mov	 DWORD PTR __$ArrayPad$[ebp], eax

; 135  : 	OSVERSIONINFO ver;
; 136  : 	ATLGETTHREADACP pfnGetThreadACP;
; 137  : 
; 138  : 	ver.dwOSVersionInfoSize = sizeof( ver );

  00011	c7 85 60 ff ff
	ff 94 00 00 00	 mov	 DWORD PTR _ver$[ebp], 148 ; 00000094H

; 139  : 	::GetVersionEx( &ver );

  0001b	8d 85 60 ff ff
	ff		 lea	 eax, DWORD PTR _ver$[ebp]
  00021	50		 push	 eax
  00022	ff 15 00 00 00
	00		 call	 DWORD PTR __imp__GetVersionExA@4

; 140  : 	if( (ver.dwPlatformId == VER_PLATFORM_WIN32_NT) && (ver.dwMajorVersion >= 5) )

  00028	83 bd 70 ff ff
	ff 02		 cmp	 DWORD PTR _ver$[ebp+16], 2
  0002f	75 15		 jne	 SHORT $L24173
  00031	83 bd 64 ff ff
	ff 05		 cmp	 DWORD PTR _ver$[ebp+4], 5
  00038	72 0c		 jb	 SHORT $L24173

; 141  : 	{
; 142  : 		// On Win2K, CP_THREAD_ACP is supported
; 143  : 		pfnGetThreadACP = _AtlGetThreadACPReal;

  0003a	c7 85 5c ff ff
	ff 00 00 00 00	 mov	 DWORD PTR _pfnGetThreadACP$[ebp], OFFSET FLAT:?_AtlGetThreadACPReal@ATL@@YGIXZ ; ATL::_AtlGetThreadACPReal

; 144  : 	}
; 145  : 	else

  00044	eb 0a		 jmp	 SHORT $L24174
$L24173:

; 146  : 	{
; 147  : 		pfnGetThreadACP = _AtlGetThreadACPFake;

  00046	c7 85 5c ff ff
	ff 00 00 00 00	 mov	 DWORD PTR _pfnGetThreadACP$[ebp], OFFSET FLAT:?_AtlGetThreadACPFake@ATL@@YGIXZ ; ATL::_AtlGetThreadACPFake
$L24174:

; 148  : 	}
; 149  : 	InterlockedExchangePointer( reinterpret_cast< void** >(&g_pfnGetThreadACP), pfnGetThreadACP );

  00050	8b 8d 5c ff ff
	ff		 mov	 ecx, DWORD PTR _pfnGetThreadACP$[ebp]
  00056	51		 push	 ecx
  00057	68 00 00 00 00	 push	 OFFSET FLAT:?g_pfnGetThreadACP@ATL@@3P6GIXZA ; ATL::g_pfnGetThreadACP
  0005c	e8 00 00 00 00	 call	 ?InterlockedExchangePointer@@YGPAXPAPAXPAX@Z ; InterlockedExchangePointer

; 150  : 
; 151  : 	return( g_pfnGetThreadACP() );

  00061	ff 15 00 00 00
	00		 call	 DWORD PTR ?g_pfnGetThreadACP@ATL@@3P6GIXZA ; ATL::g_pfnGetThreadACP

; 152  : }

  00067	8b 4d fc	 mov	 ecx, DWORD PTR __$ArrayPad$[ebp]
  0006a	e8 00 00 00 00	 call	 @__security_check_cookie@4
  0006f	8b e5		 mov	 esp, ebp
  00071	5d		 pop	 ebp
  00072	c3		 ret	 0
?_AtlGetThreadACPThunk@ATL@@YGIXZ ENDP			; ATL::_AtlGetThreadACPThunk
_TEXT	ENDS
EXTRN	__imp__InterlockedExchange@8:NEAR
; Function compile flags: /Odt
;	COMDAT ?InterlockedExchangePointer@@YGPAXPAPAXPAX@Z
_TEXT	SEGMENT
_pp$ = 8						; size = 4
_pNew$ = 12						; size = 4
?InterlockedExchangePointer@@YGPAXPAPAXPAX@Z PROC NEAR	; InterlockedExchangePointer, COMDAT

; 91   : {

  00000	55		 push	 ebp
  00001	8b ec		 mov	 ebp, esp

; 92   : 	return( reinterpret_cast<void*>(static_cast<LONG_PTR>(::InterlockedExchange(reinterpret_cast<LONG*>(pp), static_cast<LONG>(reinterpret_cast<LONG_PTR>(pNew))))) );

  00003	8b 45 0c	 mov	 eax, DWORD PTR _pNew$[ebp]
  00006	50		 push	 eax
  00007	8b 4d 08	 mov	 ecx, DWORD PTR _pp$[ebp]
  0000a	51		 push	 ecx
  0000b	ff 15 00 00 00
	00		 call	 DWORD PTR __imp__InterlockedExchange@8

; 93   : }

  00011	5d		 pop	 ebp
  00012	c2 08 00	 ret	 8
?InterlockedExchangePointer@@YGPAXPAPAXPAX@Z ENDP	; InterlockedExchangePointer
_TEXT	ENDS
EXTRN	__imp__GetACP@0:NEAR
EXTRN	__imp__GetLocaleInfoA@16:NEAR
EXTRN	__imp__GetThreadLocale@0:NEAR
; Function compile flags: /Odt
;	COMDAT ?_AtlGetThreadACPFake@ATL@@YGIXZ
_TEXT	SEGMENT
_pch$24161 = -24					; size = 4
_lcidThread$ = -20					; size = 4
_szACP$ = -16						; size = 7
__$ArrayPad$ = -8					; size = 4
_nACP$ = -4						; size = 4
__$ReturnAddr$ = 4					; size = 4
?_AtlGetThreadACPFake@ATL@@YGIXZ PROC NEAR		; ATL::_AtlGetThreadACPFake, COMDAT

; 101  : {

  00000	55		 push	 ebp
  00001	8b ec		 mov	 ebp, esp
  00003	83 ec 18	 sub	 esp, 24			; 00000018H
  00006	a1 00 00 00 00	 mov	 eax, DWORD PTR ___security_cookie
  0000b	89 45 f8	 mov	 DWORD PTR __$ArrayPad$[ebp], eax

; 102  : 	UINT nACP = 0;

  0000e	c7 45 fc 00 00
	00 00		 mov	 DWORD PTR _nACP$[ebp], 0

; 103  : 
; 104  : 	LCID lcidThread = ::GetThreadLocale();

  00015	ff 15 00 00 00
	00		 call	 DWORD PTR __imp__GetThreadLocale@0
  0001b	89 45 ec	 mov	 DWORD PTR _lcidThread$[ebp], eax

; 105  : 
; 106  : 	char szACP[7];
; 107  : 	// GetLocaleInfoA will fail for a Unicode-only LCID, but those are only supported on 
; 108  : 	// Windows 2000.  Since Windows 2000 supports CP_THREAD_ACP, this code path is never
; 109  : 	// executed on Windows 2000.
; 110  : 	if (::GetLocaleInfoA(lcidThread, LOCALE_IDEFAULTANSICODEPAGE, szACP, 7) != 0)

  0001e	6a 07		 push	 7
  00020	8d 45 f0	 lea	 eax, DWORD PTR _szACP$[ebp]
  00023	50		 push	 eax
  00024	68 04 10 00 00	 push	 4100			; 00001004H
  00029	8b 4d ec	 mov	 ecx, DWORD PTR _lcidThread$[ebp]
  0002c	51		 push	 ecx
  0002d	ff 15 00 00 00
	00		 call	 DWORD PTR __imp__GetLocaleInfoA@16
  00033	85 c0		 test	 eax, eax
  00035	74 34		 je	 SHORT $L24160

; 111  : 	{
; 112  : 		char* pch = szACP;

  00037	8d 55 f0	 lea	 edx, DWORD PTR _szACP$[ebp]
  0003a	89 55 e8	 mov	 DWORD PTR _pch$24161[ebp], edx
$L24163:

; 113  : 		while (*pch != '\0')

  0003d	8b 45 e8	 mov	 eax, DWORD PTR _pch$24161[ebp]
  00040	0f be 08	 movsx	 ecx, BYTE PTR [eax]
  00043	85 c9		 test	 ecx, ecx
  00045	74 24		 je	 SHORT $L24160

; 114  : 		{
; 115  : 			nACP *= 10;

  00047	8b 55 fc	 mov	 edx, DWORD PTR _nACP$[ebp]
  0004a	6b d2 0a	 imul	 edx, 10			; 0000000aH
  0004d	89 55 fc	 mov	 DWORD PTR _nACP$[ebp], edx

; 116  : 			nACP += *pch++ - '0';

  00050	8b 45 e8	 mov	 eax, DWORD PTR _pch$24161[ebp]
  00053	0f be 08	 movsx	 ecx, BYTE PTR [eax]
  00056	8b 55 fc	 mov	 edx, DWORD PTR _nACP$[ebp]
  00059	8d 44 0a d0	 lea	 eax, DWORD PTR [edx+ecx-48]
  0005d	89 45 fc	 mov	 DWORD PTR _nACP$[ebp], eax
  00060	8b 4d e8	 mov	 ecx, DWORD PTR _pch$24161[ebp]
  00063	83 c1 01	 add	 ecx, 1
  00066	89 4d e8	 mov	 DWORD PTR _pch$24161[ebp], ecx

; 117  : 		}

  00069	eb d2		 jmp	 SHORT $L24163
$L24160:

; 118  : 	}
; 119  : 	// Use the Default ANSI Code Page if we were unable to get the thread ACP or if one does not exist.
; 120  : 	if (nACP == 0)

  0006b	83 7d fc 00	 cmp	 DWORD PTR _nACP$[ebp], 0
  0006f	75 09		 jne	 SHORT $L24165

; 121  : 		nACP = ::GetACP();

  00071	ff 15 00 00 00
	00		 call	 DWORD PTR __imp__GetACP@0
  00077	89 45 fc	 mov	 DWORD PTR _nACP$[ebp], eax
$L24165:

; 122  : 
; 123  : 	return nACP;

  0007a	8b 45 fc	 mov	 eax, DWORD PTR _nACP$[ebp]

; 124  : }

  0007d	8b 4d f8	 mov	 ecx, DWORD PTR __$ArrayPad$[ebp]
  00080	e8 00 00 00 00	 call	 @__security_check_cookie@4
  00085	8b e5		 mov	 esp, ebp
  00087	5d		 pop	 ebp
  00088	c3		 ret	 0
?_AtlGetThreadACPFake@ATL@@YGIXZ ENDP			; ATL::_AtlGetThreadACPFake
; Function compile flags: /Odt
_TEXT	ENDS
;	COMDAT ?_AtlGetThreadACPReal@ATL@@YGIXZ
_TEXT	SEGMENT
?_AtlGetThreadACPReal@ATL@@YGIXZ PROC NEAR		; ATL::_AtlGetThreadACPReal, COMDAT

; 127  : {

  00000	55		 push	 ebp
  00001	8b ec		 mov	 ebp, esp

; 128  : 	return( CP_THREAD_ACP );

  00003	b8 03 00 00 00	 mov	 eax, 3

; 129  : }

  00008	5d		 pop	 ebp
  00009	c3		 ret	 0
?_AtlGetThreadACPReal@ATL@@YGIXZ ENDP			; ATL::_AtlGetThreadACPReal
_TEXT	ENDS
PUBLIC	??_R1A@?0A@A@CObject@@8				; CObject::`RTTI Base Class Descriptor at (0,-1,0,0)'
PUBLIC	??_R0?AVCObject@@@8				; CObject `RTTI Type Descriptor'
PUBLIC	??0CObject@@IAE@XZ				; CObject::CObject
PUBLIC	?AssertValid@CObject@@UBEXXZ			; CObject::AssertValid
PUBLIC	?Dump@CObject@@UBEXAAVCDumpContext@@@Z		; CObject::Dump
PUBLIC	?Serialize@?$CMap@V?$CStringT@DV?$StrTraitMFC_DLL@DV?$ChTraitsCRT@D@ATL@@@@@ATL@@PBDVCPaneBase@ETSLayoutMgr@@V34@@@UAEXAAVCArchive@@@Z ; CMap<ATL::CStringT<char,StrTraitMFC_DLL<char,ATL::ChTraitsCRT<char> > >,char const *,ETSLayoutMgr::CPaneBase,ETSLayoutMgr::CPaneBase>::Serialize
PUBLIC	??_7?$CMap@V?$CStringT@DV?$StrTraitMFC_DLL@DV?$ChTraitsCRT@D@ATL@@@@@ATL@@PBDVCPaneBase@ETSLayoutMgr@@V34@@@6B@ ; CMap<ATL::CStringT<char,StrTraitMFC_DLL<char,ATL::ChTraitsCRT<char> > >,char const *,ETSLayoutMgr::CPaneBase,ETSLayoutMgr::CPaneBase>::`vftable'
PUBLIC	??_G?$CMap@V?$CStringT@DV?$StrTraitMFC_DLL@DV?$ChTraitsCRT@D@ATL@@@@@ATL@@PBDVCPaneBase@ETSLayoutMgr@@V34@@@UAEPAXI@Z ; CMap<ATL::CStringT<char,StrTraitMFC_DLL<char,ATL::ChTraitsCRT<char> > >,char const *,ETSLayoutMgr::CPaneBase,ETSLayoutMgr::CPaneBase>::`scalar deleting destructor'
PUBLIC	??_R4?$CMap@V?$CStringT@DV?$StrTraitMFC_DLL@DV?$ChTraitsCRT@D@ATL@@@@@ATL@@PBDVCPaneBase@ETSLayoutMgr@@V34@@@6B@ ; CMap<ATL::CStringT<char,StrTraitMFC_DLL<char,ATL::ChTraitsCRT<char> > >,char const *,ETSLayoutMgr::CPaneBase,ETSLayoutMgr::CPaneBase>::`RTTI Complete Object Locator'
PUBLIC	??_R0?AV?$CMap@V?$CStringT@DV?$StrTraitMFC_DLL@DV?$ChTraitsCRT@D@ATL@@@@@ATL@@PBDVCPaneBase@ETSLayoutMgr@@V34@@@@8 ; CMap<ATL::CStringT<char,StrTraitMFC_DLL<char,ATL::ChTraitsCRT<char> > >,char const *,ETSLayoutMgr::CPaneBase,ETSLayoutMgr::CPaneBase> `RTTI Type Descriptor'
PUBLIC	??_R3?$CMap@V?$CStringT@DV?$StrTraitMFC_DLL@DV?$ChTraitsCRT@D@ATL@@@@@ATL@@PBDVCPaneBase@ETSLayoutMgr@@V34@@@8 ; CMap<ATL::CStringT<char,StrTraitMFC_DLL<char,ATL::ChTraitsCRT<char> > >,char const *,ETSLayoutMgr::CPaneBase,ETSLayoutMgr::CPaneBase>::`RTTI Class Hierarchy Descriptor'
PUBLIC	??_R2?$CMap@V?$CStringT@DV?$StrTraitMFC_DLL@DV?$ChTraitsCRT@D@ATL@@@@@ATL@@PBDVCPaneBase@ETSLayoutMgr@@V34@@@8 ; CMap<ATL::CStringT<char,StrTraitMFC_DLL<char,ATL::ChTraitsCRT<char> > >,char const *,ETSLayoutMgr::CPaneBase,ETSLayoutMgr::CPaneBase>::`RTTI Base Class Array'
PUBLIC	??_R1A@?0A@A@?$CMap@V?$CStringT@DV?$StrTraitMFC_DLL@DV?$ChTraitsCRT@D@ATL@@@@@ATL@@PBDVCPaneBase@ETSLayoutMgr@@V34@@@8 ; CMap<ATL::CStringT<char,StrTraitMFC_DLL<char,ATL::ChTraitsCRT<char> > >,char const *,ETSLayoutMgr::CPaneBase,ETSLayoutMgr::CPaneBase>::`RTTI Base Class Descriptor at (0,-1,0,0)'
EXTRN	?GetRuntimeClass@CObject@@UBEPAUCRuntimeClass@@XZ:NEAR ; CObject::GetRuntimeClass
EXTRN	??_E?$CMap@V?$CStringT@DV?$StrTraitMFC_DLL@DV?$ChTraitsCRT@D@ATL@@@@@ATL@@PBDVCPaneBase@ETSLayoutMgr@@V34@@@UAEPAXI@Z:NEAR ; CMap<ATL::CStringT<char,StrTraitMFC_DLL<char,ATL::ChTraitsCRT<char> > >,char const *,ETSLayoutMgr::CPaneBase,ETSLayoutMgr::CPaneBase>::`vector deleting destructor'
;	COMDAT ??_7?$CMap@V?$CStringT@DV?$StrTraitMFC_DLL@DV?$ChTraitsCRT@D@ATL@@@@@ATL@@PBDVCPaneBase@ETSLayoutMgr@@V34@@@6B@
; File d:\program files (x86)\microsoft visual studio .net 2003\vc7\atlmfc\include\afxtempl.h
CONST	SEGMENT
??_7?$CMap@V?$CStringT@DV?$StrTraitMFC_DLL@DV?$ChTraitsCRT@D@ATL@@@@@ATL@@PBDVCPaneBase@ETSLayoutMgr@@V34@@@6B@ DD FLAT:??_R4?$CMap@V?$CStringT@DV?$StrTraitMFC_DLL@DV?$ChTraitsCRT@D@ATL@@@@@ATL@@PBDVCPaneBase@ETSLayoutMgr@@V34@@@6B@ ; CMap<ATL::CStringT<char,StrTraitMFC_DLL<char,ATL::ChTraitsCRT<char> > >,char const *,ETSLayoutMgr::CPaneBase,ETSLayoutMgr::CPaneBase>::`vftable'
	DD	FLAT:?GetRuntimeClass@CObject@@UBEPAUCRuntimeClass@@XZ
	DD	FLAT:??_E?$CMap@V?$CStringT@DV?$StrTraitMFC_DLL@DV?$ChTraitsCRT@D@ATL@@@@@ATL@@PBDVCPaneBase@ETSLayoutMgr@@V34@@@UAEPAXI@Z
	DD	FLAT:?Serialize@?$CMap@V?$CStringT@DV?$StrTraitMFC_DLL@DV?$ChTraitsCRT@D@ATL@@@@@ATL@@PBDVCPaneBase@ETSLayoutMgr@@V34@@@UAEXAAVCArchive@@@Z
	DD	FLAT:?AssertValid@CObject@@UBEXXZ
	DD	FLAT:?Dump@CObject@@UBEXAAVCDumpContext@@@Z
CONST	ENDS
;	COMDAT ??_R4?$CMap@V?$CStringT@DV?$StrTraitMFC_DLL@DV?$ChTraitsCRT@D@ATL@@@@@ATL@@PBDVCPaneBase@ETSLayoutMgr@@V34@@@6B@
rdata$r	SEGMENT
??_R4?$CMap@V?$CStringT@DV?$StrTraitMFC_DLL@DV?$ChTraitsCRT@D@ATL@@@@@ATL@@PBDVCPaneBase@ETSLayoutMgr@@V34@@@6B@ DD 00H ; CMap<ATL::CStringT<char,StrTraitMFC_DLL<char,ATL::ChTraitsCRT<char> > >,char const *,ETSLayoutMgr::CPaneBase,ETSLayoutMgr::CPaneBase>::`RTTI Complete Object Locator'
	DD	00H
	DD	00H
	DD	FLAT:??_R0?AV?$CMap@V?$CStringT@DV?$StrTraitMFC_DLL@DV?$ChTraitsCRT@D@ATL@@@@@ATL@@PBDVCPaneBase@ETSLayoutMgr@@V34@@@@8
	DD	FLAT:??_R3?$CMap@V?$CStringT@DV?$StrTraitMFC_DLL@DV?$ChTraitsCRT@D@ATL@@@@@ATL@@PBDVCPaneBase@ETSLayoutMgr@@V34@@@8
rdata$r	ENDS
;	COMDAT ??_R0?AV?$CMap@V?$CStringT@DV?$StrTraitMFC_DLL@DV?$ChTraitsCRT@D@ATL@@@@@ATL@@PBDVCPaneBase@ETSLayoutMgr@@V34@@@@8
_DATA	SEGMENT
??_R0?AV?$CMap@V?$CStringT@DV?$StrTraitMFC_DLL@DV?$ChTraitsCRT@D@ATL@@@@@ATL@@PBDVCPaneBase@ETSLayoutMgr@@V34@@@@8 DD FLAT:??_7type_info@@6B@ ; CMap<ATL::CStringT<char,StrTraitMFC_DLL<char,ATL::ChTraitsCRT<char> > >,char const *,ETSLayoutMgr::CPaneBase,ETSLayoutMgr::CPaneBase> `RTTI Type Descriptor'
	DD	00H
	DB	'.?AV?$CMap@V?$CStringT@DV?$StrTraitMFC_DLL@DV?$ChTraitsC'
	DB	'RT@D@ATL@@@@@ATL@@PBDVCPaneBase@ETSLayoutMgr@@V34@@@', 00H
_DATA	ENDS
;	COMDAT ??_R3?$CMap@V?$CStringT@DV?$StrTraitMFC_DLL@DV?$ChTraitsCRT@D@ATL@@@@@ATL@@PBDVCPaneBase@ETSLayoutMgr@@V34@@@8
rdata$r	SEGMENT
??_R3?$CMap@V?$CStringT@DV?$StrTraitMFC_DLL@DV?$ChTraitsCRT@D@ATL@@@@@ATL@@PBDVCPaneBase@ETSLayoutMgr@@V34@@@8 DD 00H ; CMap<ATL::CStringT<char,StrTraitMFC_DLL<char,ATL::ChTraitsCRT<char> > >,char const *,ETSLayoutMgr::CPaneBase,ETSLayoutMgr::CPaneBase>::`RTTI Class Hierarchy Descriptor'
	DD	00H
	DD	02H
	DD	FLAT:??_R2?$CMap@V?$CStringT@DV?$StrTraitMFC_DLL@DV?$ChTraitsCRT@D@ATL@@@@@ATL@@PBDVCPaneBase@ETSLayoutMgr@@V34@@@8
rdata$r	ENDS
;	COMDAT ??_R2?$CMap@V?$CStringT@DV?$StrTraitMFC_DLL@DV?$ChTraitsCRT@D@ATL@@@@@ATL@@PBDVCPaneBase@ETSLayoutMgr@@V34@@@8
rdata$r	SEGMENT
??_R2?$CMap@V?$CStringT@DV?$StrTraitMFC_DLL@DV?$ChTraitsCRT@D@ATL@@@@@ATL@@PBDVCPaneBase@ETSLayoutMgr@@V34@@@8 DD FLAT:??_R1A@?0A@A@?$CMap@V?$CStringT@DV?$StrTraitMFC_DLL@DV?$ChTraitsCRT@D@ATL@@@@@ATL@@PBDVCPaneBase@ETSLayoutMgr@@V34@@@8 ; CMap<ATL::CStringT<char,StrTraitMFC_DLL<char,ATL::ChTraitsCRT<char> > >,char const *,ETSLayoutMgr::CPaneBase,ETSLayoutMgr::CPaneBase>::`RTTI Base Class Array'
	DD	FLAT:??_R1A@?0A@A@CObject@@8
rdata$r	ENDS
;	COMDAT ??_R1A@?0A@A@?$CMap@V?$CStringT@DV?$StrTraitMFC_DLL@DV?$ChTraitsCRT@D@ATL@@@@@ATL@@PBDVCPaneBase@ETSLayoutMgr@@V34@@@8
rdata$r	SEGMENT
??_R1A@?0A@A@?$CMap@V?$CStringT@DV?$StrTraitMFC_DLL@DV?$ChTraitsCRT@D@ATL@@@@@ATL@@PBDVCPaneBase@ETSLayoutMgr@@V34@@@8 DD FLAT:??_R0?AV?$CMap@V?$CStringT@DV?$StrTraitMFC_DLL@DV?$ChTraitsCRT@D@ATL@@@@@ATL@@PBDVCPaneBase@ETSLayoutMgr@@V34@@@@8 ; CMap<ATL::CStringT<char,StrTraitMFC_DLL<char,ATL::ChTraitsCRT<char> > >,char const *,ETSLayoutMgr::CPaneBase,ETSLayoutMgr::CPaneBase>::`RTTI Base Class Descriptor at (0,-1,0,0)'
	DD	01H
	DD	00H
	DD	0ffffffffH
	DD	00H
	DD	00H
rdata$r	ENDS
;	COMDAT ??_R1A@?0A@A@CObject@@8
rdata$r	SEGMENT
??_R1A@?0A@A@CObject@@8 DD FLAT:??_R0?AVCObject@@@8	; CObject::`RTTI Base Class Descriptor at (0,-1,0,0)'
	DD	00H
	DD	00H
	DD	0ffffffffH
	DD	00H
	DD	00H
rdata$r	ENDS
;	COMDAT ??_R0?AVCObject@@@8
_DATA	SEGMENT
??_R0?AVCObject@@@8 DD FLAT:??_7type_info@@6B@		; CObject `RTTI Type Descriptor'
	DD	00H
	DB	'.?AVCObject@@', 00H
; Function compile flags: /Odt
_DATA	ENDS
;	COMDAT ??0?$CMap@V?$CStringT@DV?$StrTraitMFC_DLL@DV?$ChTraitsCRT@D@ATL@@@@@ATL@@PBDVCPaneBase@ETSLayoutMgr@@V34@@@QAE@H@Z
_TEXT	SEGMENT
_this$ = -4						; size = 4
_nBlockSize$ = 8					; size = 4
??0?$CMap@V?$CStringT@DV?$StrTraitMFC_DLL@DV?$ChTraitsCRT@D@ATL@@@@@ATL@@PBDVCPaneBase@ETSLayoutMgr@@V34@@@QAE@H@Z PROC NEAR ; CMap<ATL::CStringT<char,StrTraitMFC_DLL<char,ATL::ChTraitsCRT<char> > >,char const *,ETSLayoutMgr::CPaneBase,ETSLayoutMgr::CPaneBase>::CMap<ATL::CStringT<char,StrTraitMFC_DLL<char,ATL::ChTraitsCRT<char> > >,char const *,ETSLayoutMgr::CPaneBase,ETSLayoutMgr::CPaneBase>, COMDAT
; _this$ = ecx

; 1399 : {

  00000	55		 push	 ebp
  00001	8b ec		 mov	 ebp, esp
  00003	51		 push	 ecx
  00004	89 4d fc	 mov	 DWORD PTR _this$[ebp], ecx
  00007	8b 4d fc	 mov	 ecx, DWORD PTR _this$[ebp]
  0000a	e8 00 00 00 00	 call	 ??0CObject@@IAE@XZ	; CObject::CObject
  0000f	8b 45 fc	 mov	 eax, DWORD PTR _this$[ebp]
  00012	c7 00 00 00 00
	00		 mov	 DWORD PTR [eax], OFFSET FLAT:??_7?$CMap@V?$CStringT@DV?$StrTraitMFC_DLL@DV?$ChTraitsCRT@D@ATL@@@@@ATL@@PBDVCPaneBase@ETSLayoutMgr@@V34@@@6B@

; 1400 : 	ASSERT(nBlockSize > 0);
; 1401 : 
; 1402 : 	m_pHashTable = NULL;

  00018	8b 4d fc	 mov	 ecx, DWORD PTR _this$[ebp]
  0001b	c7 41 04 00 00
	00 00		 mov	 DWORD PTR [ecx+4], 0

; 1403 : 	m_nHashTableSize = 17;  // default size

  00022	8b 55 fc	 mov	 edx, DWORD PTR _this$[ebp]
  00025	c7 42 08 11 00
	00 00		 mov	 DWORD PTR [edx+8], 17	; 00000011H

; 1404 : 	m_nCount = 0;

  0002c	8b 45 fc	 mov	 eax, DWORD PTR _this$[ebp]
  0002f	c7 40 0c 00 00
	00 00		 mov	 DWORD PTR [eax+12], 0

; 1405 : 	m_pFreeList = NULL;

  00036	8b 4d fc	 mov	 ecx, DWORD PTR _this$[ebp]
  00039	c7 41 10 00 00
	00 00		 mov	 DWORD PTR [ecx+16], 0

; 1406 : 	m_pBlocks = NULL;

  00040	8b 55 fc	 mov	 edx, DWORD PTR _this$[ebp]
  00043	c7 42 14 00 00
	00 00		 mov	 DWORD PTR [edx+20], 0

; 1407 : 	m_nBlockSize = nBlockSize;

  0004a	8b 45 fc	 mov	 eax, DWORD PTR _this$[ebp]
  0004d	8b 4d 08	 mov	 ecx, DWORD PTR _nBlockSize$[ebp]
  00050	89 48 18	 mov	 DWORD PTR [eax+24], ecx

; 1408 : }

  00053	8b 45 fc	 mov	 eax, DWORD PTR _this$[ebp]
  00056	8b e5		 mov	 esp, ebp
  00058	5d		 pop	 ebp
  00059	c2 04 00	 ret	 4
??0?$CMap@V?$CStringT@DV?$StrTraitMFC_DLL@DV?$ChTraitsCRT@D@ATL@@@@@ATL@@PBDVCPaneBase@ETSLayoutMgr@@V34@@@QAE@H@Z ENDP ; CMap<ATL::CStringT<char,StrTraitMFC_DLL<char,ATL::ChTraitsCRT<char> > >,char const *,ETSLayoutMgr::CPaneBase,ETSLayoutMgr::CPaneBase>::CMap<ATL::CStringT<char,StrTraitMFC_DLL<char,ATL::ChTraitsCRT<char> > >,char const *,ETSLayoutMgr::CPaneBase,ETSLayoutMgr::CPaneBase>
_TEXT	ENDS
PUBLIC	??1CObject@@UAE@XZ				; CObject::~CObject
PUBLIC	?RemoveAll@?$CMap@V?$CStringT@DV?$StrTraitMFC_DLL@DV?$ChTraitsCRT@D@ATL@@@@@ATL@@PBDVCPaneBase@ETSLayoutMgr@@V34@@@QAEXXZ ; CMap<ATL::CStringT<char,StrTraitMFC_DLL<char,ATL::ChTraitsCRT<char> > >,char const *,ETSLayoutMgr::CPaneBase,ETSLayoutMgr::CPaneBase>::RemoveAll
;	COMDAT xdata$x
xdata$x	SEGMENT
$T199766 DD	0ffffffffH
	DD	FLAT:$L199762
$T199764 DD	019930520H
	DD	01H
	DD	FLAT:$T199766
	DD	2 DUP(00H)
	DD	2 DUP(00H)
; Function compile flags: /Odt
xdata$x	ENDS
;	COMDAT ??1?$CMap@V?$CStringT@DV?$StrTraitMFC_DLL@DV?$ChTraitsCRT@D@ATL@@@@@ATL@@PBDVCPaneBase@ETSLayoutMgr@@V34@@@UAE@XZ
_TEXT	SEGMENT
_this$ = -16						; size = 4
__$EHRec$ = -12						; size = 12
??1?$CMap@V?$CStringT@DV?$StrTraitMFC_DLL@DV?$ChTraitsCRT@D@ATL@@@@@ATL@@PBDVCPaneBase@ETSLayoutMgr@@V34@@@UAE@XZ PROC NEAR ; CMap<ATL::CStringT<char,StrTraitMFC_DLL<char,ATL::ChTraitsCRT<char> > >,char const *,ETSLayoutMgr::CPaneBase,ETSLayoutMgr::CPaneBase>::~CMap<ATL::CStringT<char,StrTraitMFC_DLL<char,ATL::ChTraitsCRT<char> > >,char const *,ETSLayoutMgr::CPaneBase,ETSLayoutMgr::CPaneBase>, COMDAT
; _this$ = ecx

; 1469 : {

  00000	55		 push	 ebp
  00001	8b ec		 mov	 ebp, esp
  00003	6a ff		 push	 -1
  00005	68 00 00 00 00	 push	 __ehhandler$??1?$CMap@V?$CStringT@DV?$StrTraitMFC_DLL@DV?$ChTraitsCRT@D@ATL@@@@@ATL@@PBDVCPaneBase@ETSLayoutMgr@@V34@@@UAE@XZ
  0000a	64 a1 00 00 00
	00		 mov	 eax, DWORD PTR fs:__except_list
  00010	50		 push	 eax
  00011	64 89 25 00 00
	00 00		 mov	 DWORD PTR fs:__except_list, esp
  00018	51		 push	 ecx
  00019	89 4d f0	 mov	 DWORD PTR _this$[ebp], ecx
  0001c	8b 45 f0	 mov	 eax, DWORD PTR _this$[ebp]
  0001f	c7 00 00 00 00
	00		 mov	 DWORD PTR [eax], OFFSET FLAT:??_7?$CMap@V?$CStringT@DV?$StrTraitMFC_DLL@DV?$ChTraitsCRT@D@ATL@@@@@ATL@@PBDVCPaneBase@ETSLayoutMgr@@V34@@@6B@
  00025	c7 45 fc 00 00
	00 00		 mov	 DWORD PTR __$EHRec$[ebp+8], 0

; 1470 : 	RemoveAll();

  0002c	8b 4d f0	 mov	 ecx, DWORD PTR _this$[ebp]
  0002f	e8 00 00 00 00	 call	 ?RemoveAll@?$CMap@V?$CStringT@DV?$StrTraitMFC_DLL@DV?$ChTraitsCRT@D@ATL@@@@@ATL@@PBDVCPaneBase@ETSLayoutMgr@@V34@@@QAEXXZ ; CMap<ATL::CStringT<char,StrTraitMFC_DLL<char,ATL::ChTraitsCRT<char> > >,char const *,ETSLayoutMgr::CPaneBase,ETSLayoutMgr::CPaneBase>::RemoveAll

; 1471 : 	ASSERT(m_nCount == 0);
; 1472 : }

  00034	c7 45 fc ff ff
	ff ff		 mov	 DWORD PTR __$EHRec$[ebp+8], -1
  0003b	8b 4d f0	 mov	 ecx, DWORD PTR _this$[ebp]
  0003e	e8 00 00 00 00	 call	 ??1CObject@@UAE@XZ	; CObject::~CObject
  00043	8b 4d f4	 mov	 ecx, DWORD PTR __$EHRec$[ebp]
  00046	64 89 0d 00 00
	00 00		 mov	 DWORD PTR fs:__except_list, ecx
  0004d	8b e5		 mov	 esp, ebp
  0004f	5d		 pop	 ebp
  00050	c3		 ret	 0
_TEXT	ENDS
;	COMDAT text$x
text$x	SEGMENT
$L199762:
  00000	8b 4d f0	 mov	 ecx, DWORD PTR _this$[ebp]
  00003	e9 00 00 00 00	 jmp	 ??1CObject@@UAE@XZ	; CObject::~CObject
__ehhandler$??1?$CMap@V?$CStringT@DV?$StrTraitMFC_DLL@DV?$ChTraitsCRT@D@ATL@@@@@ATL@@PBDVCPaneBase@ETSLayoutMgr@@V34@@@UAE@XZ:
  00008	b8 00 00 00 00	 mov	 eax, OFFSET FLAT:$T199764
  0000d	e9 00 00 00 00	 jmp	 ___CxxFrameHandler
text$x	ENDS
??1?$CMap@V?$CStringT@DV?$StrTraitMFC_DLL@DV?$ChTraitsCRT@D@ATL@@@@@ATL@@PBDVCPaneBase@ETSLayoutMgr@@V34@@@UAE@XZ ENDP ; CMap<ATL::CStringT<char,StrTraitMFC_DLL<char,ATL::ChTraitsCRT<char> > >,char const *,ETSLayoutMgr::CPaneBase,ETSLayoutMgr::CPaneBase>::~CMap<ATL::CStringT<char,StrTraitMFC_DLL<char,ATL::ChTraitsCRT<char> > >,char const *,ETSLayoutMgr::CPaneBase,ETSLayoutMgr::CPaneBase>
PUBLIC	??$SerializeElements@VCPaneBase@ETSLayoutMgr@@@@YGXAAVCArchive@@PAVCPaneBase@ETSLayoutMgr@@H@Z ; SerializeElements<ETSLayoutMgr::CPaneBase>
PUBLIC	?Serialize@CObject@@UAEXAAVCArchive@@@Z		; CObject::Serialize
PUBLIC	?SetAt@?$CMap@V?$CStringT@DV?$StrTraitMFC_DLL@DV?$ChTraitsCRT@D@ATL@@@@@ATL@@PBDVCPaneBase@ETSLayoutMgr@@V34@@@QAEXPBDVCPaneBase@ETSLayoutMgr@@@Z ; CMap<ATL::CStringT<char,StrTraitMFC_DLL<char,ATL::ChTraitsCRT<char> > >,char const *,ETSLayoutMgr::CPaneBase,ETSLayoutMgr::CPaneBase>::SetAt
PUBLIC	?IsStoring@CArchive@@QBEHXZ			; CArchive::IsStoring
EXTRN	??_L@YGXPAXIHP6EX0@Z1@Z:NEAR			; `eh vector constructor iterator'
EXTRN	__imp_??B?$CSimpleStringT@D$00@ATL@@QBEPBDXZ:NEAR
EXTRN	??_M@YGXPAXIHP6EX0@Z@Z:NEAR			; `eh vector destructor iterator'
EXTRN	?ReadCount@CArchive@@QAEKXZ:NEAR		; CArchive::ReadCount
EXTRN	?WriteCount@CArchive@@QAEXK@Z:NEAR		; CArchive::WriteCount
EXTRN	??$SerializeElements@V?$CStringT@DV?$StrTraitMFC_DLL@DV?$ChTraitsCRT@D@ATL@@@@@ATL@@@@YGXAAVCArchive@@PAV?$CStringT@DV?$StrTraitMFC_DLL@DV?$ChTraitsCRT@D@ATL@@@@@ATL@@H@Z:NEAR ; SerializeElements<ATL::CStringT<char,StrTraitMFC_DLL<char,ATL::ChTraitsCRT<char> > > >
EXTRN	??0CPaneBase@ETSLayoutMgr@@QAE@ABV01@@Z:NEAR	; ETSLayoutMgr::CPaneBase::CPaneBase
;	COMDAT xdata$x
xdata$x	SEGMENT
$T199778 DD	0ffffffffH
	DD	FLAT:$L199772
	DD	00H
	DD	FLAT:$L199773
$T199776 DD	019930520H
	DD	02H
	DD	FLAT:$T199778
	DD	2 DUP(00H)
	DD	2 DUP(00H)
; Function compile flags: /Odt
xdata$x	ENDS
;	COMDAT ?Serialize@?$CMap@V?$CStringT@DV?$StrTraitMFC_DLL@DV?$ChTraitsCRT@D@ATL@@@@@ATL@@PBDVCPaneBase@ETSLayoutMgr@@V34@@@UAEXAAVCArchive@@@Z
_TEXT	SEGMENT
tv176 = -52						; size = 4
_this$ = -48						; size = 4
$T199771 = -44						; size = 4
_newValue$198870 = -40					; size = 4
_newKey$198866 = -36					; size = 4
_nNewCount$198862 = -32					; size = 4
_pKey$198852 = -28					; size = 4
_pValue$198853 = -24					; size = 4
_pAssoc$198826 = -20					; size = 4
_nHash$198822 = -16					; size = 4
__$EHRec$ = -12						; size = 12
_ar$ = 8						; size = 4
?Serialize@?$CMap@V?$CStringT@DV?$StrTraitMFC_DLL@DV?$ChTraitsCRT@D@ATL@@@@@ATL@@PBDVCPaneBase@ETSLayoutMgr@@V34@@@UAEXAAVCArchive@@@Z PROC NEAR ; CMap<ATL::CStringT<char,StrTraitMFC_DLL<char,ATL::ChTraitsCRT<char> > >,char const *,ETSLayoutMgr::CPaneBase,ETSLayoutMgr::CPaneBase>::Serialize, COMDAT
; _this$ = ecx

; 1739 : {

  00000	55		 push	 ebp
  00001	8b ec		 mov	 ebp, esp
  00003	6a ff		 push	 -1
  00005	68 00 00 00 00	 push	 __ehhandler$?Serialize@?$CMap@V?$CStringT@DV?$StrTraitMFC_DLL@DV?$ChTraitsCRT@D@ATL@@@@@ATL@@PBDVCPaneBase@ETSLayoutMgr@@V34@@@UAEXAAVCArchive@@@Z
  0000a	64 a1 00 00 00
	00		 mov	 eax, DWORD PTR fs:__except_list
  00010	50		 push	 eax
  00011	64 89 25 00 00
	00 00		 mov	 DWORD PTR fs:__except_list, esp
  00018	83 ec 28	 sub	 esp, 40			; 00000028H
  0001b	89 4d d0	 mov	 DWORD PTR _this$[ebp], ecx

; 1740 : 	ASSERT_VALID(this);
; 1741 : 
; 1742 : 	CObject::Serialize(ar);

  0001e	8b 45 08	 mov	 eax, DWORD PTR _ar$[ebp]
  00021	50		 push	 eax
  00022	8b 4d d0	 mov	 ecx, DWORD PTR _this$[ebp]
  00025	e8 00 00 00 00	 call	 ?Serialize@CObject@@UAEXAAVCArchive@@@Z ; CObject::Serialize

; 1743 : 
; 1744 : 	if (ar.IsStoring())

  0002a	8b 4d 08	 mov	 ecx, DWORD PTR _ar$[ebp]
  0002d	e8 00 00 00 00	 call	 ?IsStoring@CArchive@@QBEHXZ ; CArchive::IsStoring
  00032	85 c0		 test	 eax, eax
  00034	0f 84 90 00 00
	00		 je	 $L198819

; 1745 : 	{
; 1746 : 		ar.WriteCount(m_nCount);

  0003a	8b 4d d0	 mov	 ecx, DWORD PTR _this$[ebp]
  0003d	8b 51 0c	 mov	 edx, DWORD PTR [ecx+12]
  00040	52		 push	 edx
  00041	8b 4d 08	 mov	 ecx, DWORD PTR _ar$[ebp]
  00044	e8 00 00 00 00	 call	 ?WriteCount@CArchive@@QAEXK@Z ; CArchive::WriteCount

; 1747 : 		if (m_nCount == 0)

  00049	8b 45 d0	 mov	 eax, DWORD PTR _this$[ebp]
  0004c	83 78 0c 00	 cmp	 DWORD PTR [eax+12], 0
  00050	75 05		 jne	 SHORT $L198820

; 1748 : 			return;  // nothing more to do

  00052	e9 46 01 00 00	 jmp	 $L198817
$L198820:

; 1749 : 
; 1750 : 		ASSERT(m_pHashTable != NULL);
; 1751 : 		for (UINT nHash = 0; nHash < m_nHashTableSize; nHash++)

  00057	c7 45 f0 00 00
	00 00		 mov	 DWORD PTR _nHash$198822[ebp], 0
  0005e	eb 09		 jmp	 SHORT $L198823
$L198824:
  00060	8b 4d f0	 mov	 ecx, DWORD PTR _nHash$198822[ebp]
  00063	83 c1 01	 add	 ecx, 1
  00066	89 4d f0	 mov	 DWORD PTR _nHash$198822[ebp], ecx
$L198823:
  00069	8b 55 d0	 mov	 edx, DWORD PTR _this$[ebp]
  0006c	8b 45 f0	 mov	 eax, DWORD PTR _nHash$198822[ebp]
  0006f	3b 42 08	 cmp	 eax, DWORD PTR [edx+8]
  00072	73 51		 jae	 SHORT $L198825

; 1752 : 		{
; 1753 : 			CAssoc* pAssoc;
; 1754 : 			for (pAssoc = m_pHashTable[nHash]; pAssoc != NULL;

  00074	8b 4d d0	 mov	 ecx, DWORD PTR _this$[ebp]
  00077	8b 51 04	 mov	 edx, DWORD PTR [ecx+4]
  0007a	8b 45 f0	 mov	 eax, DWORD PTR _nHash$198822[ebp]
  0007d	8b 0c 82	 mov	 ecx, DWORD PTR [edx+eax*4]
  00080	89 4d ec	 mov	 DWORD PTR _pAssoc$198826[ebp], ecx

; 1755 : 			  pAssoc = pAssoc->pNext)

  00083	eb 09		 jmp	 SHORT $L198849
$L198850:
  00085	8b 55 ec	 mov	 edx, DWORD PTR _pAssoc$198826[ebp]
  00088	8b 42 08	 mov	 eax, DWORD PTR [edx+8]
  0008b	89 45 ec	 mov	 DWORD PTR _pAssoc$198826[ebp], eax
$L198849:
  0008e	83 7d ec 00	 cmp	 DWORD PTR _pAssoc$198826[ebp], 0
  00092	74 2f		 je	 SHORT $L198851

; 1756 : 			{
; 1757 : 				KEY* pKey;
; 1758 : 				VALUE* pValue;
; 1759 : 				/* 
; 1760 : 				 * in some cases the & operator might be overloaded, and we cannot use it to 
; 1761 : 				 * obtain the address of a given object.  We then use the following trick to 
; 1762 : 				 * get the address
; 1763 : 				 */
; 1764 : 				pKey = reinterpret_cast< KEY* >( &reinterpret_cast< int& >( const_cast< KEY& > ( static_cast< const KEY& >( pAssoc->key ) ) ) );

  00094	8b 4d ec	 mov	 ecx, DWORD PTR _pAssoc$198826[ebp]
  00097	89 4d e4	 mov	 DWORD PTR _pKey$198852[ebp], ecx

; 1765 : 				pValue = reinterpret_cast< VALUE* >( &reinterpret_cast< int& >( static_cast< VALUE& >( pAssoc->value ) ) );

  0009a	8b 55 ec	 mov	 edx, DWORD PTR _pAssoc$198826[ebp]
  0009d	83 c2 04	 add	 edx, 4
  000a0	89 55 e8	 mov	 DWORD PTR _pValue$198853[ebp], edx

; 1766 : 				SerializeElements<KEY>(ar, pKey, 1);

  000a3	6a 01		 push	 1
  000a5	8b 45 e4	 mov	 eax, DWORD PTR _pKey$198852[ebp]
  000a8	50		 push	 eax
  000a9	8b 4d 08	 mov	 ecx, DWORD PTR _ar$[ebp]
  000ac	51		 push	 ecx
  000ad	e8 00 00 00 00	 call	 ??$SerializeElements@V?$CStringT@DV?$StrTraitMFC_DLL@DV?$ChTraitsCRT@D@ATL@@@@@ATL@@@@YGXAAVCArchive@@PAV?$CStringT@DV?$StrTraitMFC_DLL@DV?$ChTraitsCRT@D@ATL@@@@@ATL@@H@Z ; SerializeElements<ATL::CStringT<char,StrTraitMFC_DLL<char,ATL::ChTraitsCRT<char> > > >

; 1767 : 				SerializeElements<VALUE>(ar, pValue, 1);

  000b2	6a 01		 push	 1
  000b4	8b 55 e8	 mov	 edx, DWORD PTR _pValue$198853[ebp]
  000b7	52		 push	 edx
  000b8	8b 45 08	 mov	 eax, DWORD PTR _ar$[ebp]
  000bb	50		 push	 eax
  000bc	e8 00 00 00 00	 call	 ??$SerializeElements@VCPaneBase@ETSLayoutMgr@@@@YGXAAVCArchive@@PAVCPaneBase@ETSLayoutMgr@@H@Z ; SerializeElements<ETSLayoutMgr::CPaneBase>

; 1768 : 			}

  000c1	eb c2		 jmp	 SHORT $L198850
$L198851:

; 1769 : 		}

  000c3	eb 9b		 jmp	 SHORT $L198824
$L198825:

; 1770 : 	}
; 1771 : 	else

  000c5	e9 d3 00 00 00	 jmp	 $L198817
$L198819:

; 1772 : 	{
; 1773 : 		DWORD_PTR nNewCount = ar.ReadCount();

  000ca	8b 4d 08	 mov	 ecx, DWORD PTR _ar$[ebp]
  000cd	e8 00 00 00 00	 call	 ?ReadCount@CArchive@@QAEKXZ ; CArchive::ReadCount
  000d2	89 45 e0	 mov	 DWORD PTR _nNewCount$198862[ebp], eax
$L198864:

; 1774 : 		while (nNewCount--)

  000d5	8b 4d e0	 mov	 ecx, DWORD PTR _nNewCount$198862[ebp]
  000d8	8b 55 e0	 mov	 edx, DWORD PTR _nNewCount$198862[ebp]
  000db	83 ea 01	 sub	 edx, 1
  000de	89 55 e0	 mov	 DWORD PTR _nNewCount$198862[ebp], edx
  000e1	85 c9		 test	 ecx, ecx
  000e3	0f 84 b4 00 00
	00		 je	 $L198817

; 1775 : 		{
; 1776 : 			KEY newKey[1];

  000e9	a1 00 00 00 00	 mov	 eax, DWORD PTR __imp_??1?$CStringT@DV?$StrTraitMFC_DLL@DV?$ChTraitsCRT@D@ATL@@@@@ATL@@QAE@XZ
  000ee	50		 push	 eax
  000ef	8b 0d 00 00 00
	00		 mov	 ecx, DWORD PTR __imp_??0?$CStringT@DV?$StrTraitMFC_DLL@DV?$ChTraitsCRT@D@ATL@@@@@ATL@@QAE@XZ
  000f5	51		 push	 ecx
  000f6	6a 01		 push	 1
  000f8	6a 04		 push	 4
  000fa	8d 55 dc	 lea	 edx, DWORD PTR _newKey$198866[ebp]
  000fd	52		 push	 edx
  000fe	e8 00 00 00 00	 call	 ??_L@YGXPAXIHP6EX0@Z1@Z
  00103	c7 45 fc 00 00
	00 00		 mov	 DWORD PTR __$EHRec$[ebp+8], 0

; 1777 : 			VALUE newValue[1];

  0010a	68 00 00 00 00	 push	 OFFSET FLAT:??1CPaneBase@ETSLayoutMgr@@QAE@XZ ; ETSLayoutMgr::CPaneBase::~CPaneBase
  0010f	68 00 00 00 00	 push	 OFFSET FLAT:??0CPaneBase@ETSLayoutMgr@@QAE@XZ ; ETSLayoutMgr::CPaneBase::CPaneBase
  00114	6a 01		 push	 1
  00116	6a 04		 push	 4
  00118	8d 45 d8	 lea	 eax, DWORD PTR _newValue$198870[ebp]
  0011b	50		 push	 eax
  0011c	e8 00 00 00 00	 call	 ??_L@YGXPAXIHP6EX0@Z1@Z
  00121	c6 45 fc 01	 mov	 BYTE PTR __$EHRec$[ebp+8], 1

; 1778 : 			SerializeElements<KEY>(ar, newKey, 1);

  00125	6a 01		 push	 1
  00127	8d 4d dc	 lea	 ecx, DWORD PTR _newKey$198866[ebp]
  0012a	51		 push	 ecx
  0012b	8b 55 08	 mov	 edx, DWORD PTR _ar$[ebp]
  0012e	52		 push	 edx
  0012f	e8 00 00 00 00	 call	 ??$SerializeElements@V?$CStringT@DV?$StrTraitMFC_DLL@DV?$ChTraitsCRT@D@ATL@@@@@ATL@@@@YGXAAVCArchive@@PAV?$CStringT@DV?$StrTraitMFC_DLL@DV?$ChTraitsCRT@D@ATL@@@@@ATL@@H@Z ; SerializeElements<ATL::CStringT<char,StrTraitMFC_DLL<char,ATL::ChTraitsCRT<char> > > >

; 1779 : 			SerializeElements<VALUE>(ar, newValue, 1);

  00134	6a 01		 push	 1
  00136	8d 45 d8	 lea	 eax, DWORD PTR _newValue$198870[ebp]
  00139	50		 push	 eax
  0013a	8b 4d 08	 mov	 ecx, DWORD PTR _ar$[ebp]
  0013d	51		 push	 ecx
  0013e	e8 00 00 00 00	 call	 ??$SerializeElements@VCPaneBase@ETSLayoutMgr@@@@YGXAAVCArchive@@PAVCPaneBase@ETSLayoutMgr@@H@Z ; SerializeElements<ETSLayoutMgr::CPaneBase>

; 1780 : 			SetAt(newKey[0], newValue[0]);

  00143	51		 push	 ecx
  00144	8b cc		 mov	 ecx, esp
  00146	89 65 d4	 mov	 DWORD PTR $T199771[ebp], esp
  00149	8d 55 d8	 lea	 edx, DWORD PTR _newValue$198870[ebp]
  0014c	52		 push	 edx
  0014d	e8 00 00 00 00	 call	 ??0CPaneBase@ETSLayoutMgr@@QAE@ABV01@@Z ; ETSLayoutMgr::CPaneBase::CPaneBase
  00152	89 45 cc	 mov	 DWORD PTR tv176[ebp], eax
  00155	8d 4d dc	 lea	 ecx, DWORD PTR _newKey$198866[ebp]
  00158	ff 15 00 00 00
	00		 call	 DWORD PTR __imp_??B?$CSimpleStringT@D$00@ATL@@QBEPBDXZ
  0015e	50		 push	 eax
  0015f	8b 4d d0	 mov	 ecx, DWORD PTR _this$[ebp]
  00162	e8 00 00 00 00	 call	 ?SetAt@?$CMap@V?$CStringT@DV?$StrTraitMFC_DLL@DV?$ChTraitsCRT@D@ATL@@@@@ATL@@PBDVCPaneBase@ETSLayoutMgr@@V34@@@QAEXPBDVCPaneBase@ETSLayoutMgr@@@Z ; CMap<ATL::CStringT<char,StrTraitMFC_DLL<char,ATL::ChTraitsCRT<char> > >,char const *,ETSLayoutMgr::CPaneBase,ETSLayoutMgr::CPaneBase>::SetAt

; 1781 : 		}

  00167	c6 45 fc 00	 mov	 BYTE PTR __$EHRec$[ebp+8], 0
  0016b	68 00 00 00 00	 push	 OFFSET FLAT:??1CPaneBase@ETSLayoutMgr@@QAE@XZ ; ETSLayoutMgr::CPaneBase::~CPaneBase
  00170	6a 01		 push	 1
  00172	6a 04		 push	 4
  00174	8d 45 d8	 lea	 eax, DWORD PTR _newValue$198870[ebp]
  00177	50		 push	 eax
  00178	e8 00 00 00 00	 call	 ??_M@YGXPAXIHP6EX0@Z@Z
  0017d	c7 45 fc ff ff
	ff ff		 mov	 DWORD PTR __$EHRec$[ebp+8], -1
  00184	8b 0d 00 00 00
	00		 mov	 ecx, DWORD PTR __imp_??1?$CStringT@DV?$StrTraitMFC_DLL@DV?$ChTraitsCRT@D@ATL@@@@@ATL@@QAE@XZ
  0018a	51		 push	 ecx
  0018b	6a 01		 push	 1
  0018d	6a 04		 push	 4
  0018f	8d 55 dc	 lea	 edx, DWORD PTR _newKey$198866[ebp]
  00192	52		 push	 edx
  00193	e8 00 00 00 00	 call	 ??_M@YGXPAXIHP6EX0@Z@Z
  00198	e9 38 ff ff ff	 jmp	 $L198864
$L198817:

; 1782 : 	}
; 1783 : }

  0019d	8b 4d f4	 mov	 ecx, DWORD PTR __$EHRec$[ebp]
  001a0	64 89 0d 00 00
	00 00		 mov	 DWORD PTR fs:__except_list, ecx
  001a7	8b e5		 mov	 esp, ebp
  001a9	5d		 pop	 ebp
  001aa	c2 04 00	 ret	 4
_TEXT	ENDS
;	COMDAT text$x
text$x	SEGMENT
$L199772:
  00000	a1 00 00 00 00	 mov	 eax, DWORD PTR __imp_??1?$CStringT@DV?$StrTraitMFC_DLL@DV?$ChTraitsCRT@D@ATL@@@@@ATL@@QAE@XZ
  00005	50		 push	 eax
  00006	6a 01		 push	 1
  00008	6a 04		 push	 4
  0000a	8d 4d dc	 lea	 ecx, DWORD PTR _newKey$198866[ebp]
  0000d	51		 push	 ecx
  0000e	e8 00 00 00 00	 call	 ??_M@YGXPAXIHP6EX0@Z@Z
  00013	c3		 ret	 0
$L199773:
  00014	68 00 00 00 00	 push	 OFFSET FLAT:??1CPaneBase@ETSLayoutMgr@@QAE@XZ ; ETSLayoutMgr::CPaneBase::~CPaneBase
  00019	6a 01		 push	 1
  0001b	6a 04		 push	 4
  0001d	8d 45 d8	 lea	 eax, DWORD PTR _newValue$198870[ebp]
  00020	50		 push	 eax
  00021	e8 00 00 00 00	 call	 ??_M@YGXPAXIHP6EX0@Z@Z
  00026	c3		 ret	 0
__ehhandler$?Serialize@?$CMap@V?$CStringT@DV?$StrTraitMFC_DLL@DV?$ChTraitsCRT@D@ATL@@@@@ATL@@PBDVCPaneBase@ETSLayoutMgr@@V34@@@UAEXAAVCArchive@@@Z:
  00027	b8 00 00 00 00	 mov	 eax, OFFSET FLAT:$T199776
  0002c	e9 00 00 00 00	 jmp	 ___CxxFrameHandler
text$x	ENDS
?Serialize@?$CMap@V?$CStringT@DV?$StrTraitMFC_DLL@DV?$ChTraitsCRT@D@ATL@@@@@ATL@@PBDVCPaneBase@ETSLayoutMgr@@V34@@@UAEXAAVCArchive@@@Z ENDP ; CMap<ATL::CStringT<char,StrTraitMFC_DLL<char,ATL::ChTraitsCRT<char> > >,char const *,ETSLayoutMgr::CPaneBase,ETSLayoutMgr::CPaneBase>::Serialize
PUBLIC	??3CObject@@SGXPAX@Z				; CObject::operator delete
; Function compile flags: /Odt
;	COMDAT ??_G?$CMap@V?$CStringT@DV?$StrTraitMFC_DLL@DV?$ChTraitsCRT@D@ATL@@@@@ATL@@PBDVCPaneBase@ETSLayoutMgr@@V34@@@UAEPAXI@Z
_TEXT	SEGMENT
_this$ = -4						; size = 4
___flags$ = 8						; size = 4
??_G?$CMap@V?$CStringT@DV?$StrTraitMFC_DLL@DV?$ChTraitsCRT@D@ATL@@@@@ATL@@PBDVCPaneBase@ETSLayoutMgr@@V34@@@UAEPAXI@Z PROC NEAR ; CMap<ATL::CStringT<char,StrTraitMFC_DLL<char,ATL::ChTraitsCRT<char> > >,char const *,ETSLayoutMgr::CPaneBase,ETSLayoutMgr::CPaneBase>::`scalar deleting destructor', COMDAT
; _this$ = ecx
  00000	55		 push	 ebp
  00001	8b ec		 mov	 ebp, esp
  00003	51		 push	 ecx
  00004	89 4d fc	 mov	 DWORD PTR _this$[ebp], ecx
  00007	8b 4d fc	 mov	 ecx, DWORD PTR _this$[ebp]
  0000a	e8 00 00 00 00	 call	 ??1?$CMap@V?$CStringT@DV?$StrTraitMFC_DLL@DV?$ChTraitsCRT@D@ATL@@@@@ATL@@PBDVCPaneBase@ETSLayoutMgr@@V34@@@UAE@XZ ; CMap<ATL::CStringT<char,StrTraitMFC_DLL<char,ATL::ChTraitsCRT<char> > >,char const *,ETSLayoutMgr::CPaneBase,ETSLayoutMgr::CPaneBase>::~CMap<ATL::CStringT<char,StrTraitMFC_DLL<char,ATL::ChTraitsCRT<char> > >,char const *,ETSLayoutMgr::CPaneBase,ETSLayoutMgr::CPaneBase>
  0000f	8b 45 08	 mov	 eax, DWORD PTR ___flags$[ebp]
  00012	83 e0 01	 and	 eax, 1
  00015	74 09		 je	 SHORT $L198901
  00017	8b 4d fc	 mov	 ecx, DWORD PTR _this$[ebp]
  0001a	51		 push	 ecx
  0001b	e8 00 00 00 00	 call	 ??3CObject@@SGXPAX@Z	; CObject::operator delete
$L198901:
  00020	8b 45 fc	 mov	 eax, DWORD PTR _this$[ebp]
  00023	8b e5		 mov	 esp, ebp
  00025	5d		 pop	 ebp
  00026	c2 04 00	 ret	 4
??_G?$CMap@V?$CStringT@DV?$StrTraitMFC_DLL@DV?$ChTraitsCRT@D@ATL@@@@@ATL@@PBDVCPaneBase@ETSLayoutMgr@@V34@@@UAEPAXI@Z ENDP ; CMap<ATL::CStringT<char,StrTraitMFC_DLL<char,ATL::ChTraitsCRT<char> > >,char const *,ETSLayoutMgr::CPaneBase,ETSLayoutMgr::CPaneBase>::`scalar deleting destructor'
_TEXT	ENDS
EXTRN	?Read@CArchive@@QAEIPAXI@Z:NEAR			; CArchive::Read
EXTRN	?Write@CArchive@@QAEXPBXI@Z:NEAR		; CArchive::Write
; Function compile flags: /Odt
;	COMDAT ??$SerializeElements@VCPaneBase@ETSLayoutMgr@@@@YGXAAVCArchive@@PAVCPaneBase@ETSLayoutMgr@@H@Z
_TEXT	SEGMENT
tv79 = -32						; size = 4
tv69 = -28						; size = 4
_nElementsToRead$199123 = -24				; size = 4
_nElementsLeft$199119 = -20				; size = 4
_pData$199118 = -16					; size = 4
_nElementsToWrite$199113 = -12				; size = 4
_nElementsLeft$199109 = -8				; size = 4
_pData$199108 = -4					; size = 4
_ar$ = 8						; size = 4
_pElements$ = 12					; size = 4
_nCount$ = 16						; size = 4
??$SerializeElements@VCPaneBase@ETSLayoutMgr@@@@YGXAAVCArchive@@PAVCPaneBase@ETSLayoutMgr@@H@Z PROC NEAR ; SerializeElements<ETSLayoutMgr::CPaneBase>, COMDAT

; 69   : {

  00000	55		 push	 ebp
  00001	8b ec		 mov	 ebp, esp
  00003	83 ec 20	 sub	 esp, 32			; 00000020H

; 70   : 	ASSERT(nCount == 0 ||
; 71   : 		AfxIsValidAddress(pElements, (size_t)nCount * sizeof(TYPE)));
; 72   : 
; 73   : 	// default is bit-wise read/write
; 74   : 	if (ar.IsStoring())

  00006	8b 4d 08	 mov	 ecx, DWORD PTR _ar$[ebp]
  00009	e8 00 00 00 00	 call	 ?IsStoring@CArchive@@QBEHXZ ; CArchive::IsStoring
  0000e	85 c0		 test	 eax, eax
  00010	74 5c		 je	 SHORT $L199107

; 75   :    {
; 76   : 	  TYPE* pData;
; 77   : 	  UINT_PTR nElementsLeft;
; 78   : 
; 79   : 	  nElementsLeft = nCount;

  00012	8b 45 10	 mov	 eax, DWORD PTR _nCount$[ebp]
  00015	89 45 f8	 mov	 DWORD PTR _nElementsLeft$199109[ebp], eax

; 80   : 	  pData = pElements;

  00018	8b 4d 0c	 mov	 ecx, DWORD PTR _pElements$[ebp]
  0001b	89 4d fc	 mov	 DWORD PTR _pData$199108[ebp], ecx
$L199111:

; 81   : 	  while( nElementsLeft > 0 )

  0001e	83 7d f8 00	 cmp	 DWORD PTR _nElementsLeft$199109[ebp], 0
  00022	76 48		 jbe	 SHORT $L199112

; 82   : 	  {
; 83   : 		 UINT nElementsToWrite;
; 84   : 
; 85   : 		 nElementsToWrite = UINT(min(nElementsLeft, INT_MAX/sizeof(TYPE)));

  00024	81 7d f8 ff ff
	ff 1f		 cmp	 DWORD PTR _nElementsLeft$199109[ebp], 536870911 ; 1fffffffH
  0002b	73 08		 jae	 SHORT $L199785
  0002d	8b 55 f8	 mov	 edx, DWORD PTR _nElementsLeft$199109[ebp]
  00030	89 55 e4	 mov	 DWORD PTR tv69[ebp], edx
  00033	eb 07		 jmp	 SHORT $L199786
$L199785:
  00035	c7 45 e4 ff ff
	ff 1f		 mov	 DWORD PTR tv69[ebp], 536870911 ; 1fffffffH
$L199786:
  0003c	8b 45 e4	 mov	 eax, DWORD PTR tv69[ebp]
  0003f	89 45 f4	 mov	 DWORD PTR _nElementsToWrite$199113[ebp], eax

; 86   : 		 ar.Write(pData, nElementsToWrite*sizeof(TYPE));

  00042	8b 4d f4	 mov	 ecx, DWORD PTR _nElementsToWrite$199113[ebp]
  00045	c1 e1 02	 shl	 ecx, 2
  00048	51		 push	 ecx
  00049	8b 55 fc	 mov	 edx, DWORD PTR _pData$199108[ebp]
  0004c	52		 push	 edx
  0004d	8b 4d 08	 mov	 ecx, DWORD PTR _ar$[ebp]
  00050	e8 00 00 00 00	 call	 ?Write@CArchive@@QAEXPBXI@Z ; CArchive::Write

; 87   : 		 nElementsLeft -= nElementsToWrite;

  00055	8b 45 f8	 mov	 eax, DWORD PTR _nElementsLeft$199109[ebp]
  00058	2b 45 f4	 sub	 eax, DWORD PTR _nElementsToWrite$199113[ebp]
  0005b	89 45 f8	 mov	 DWORD PTR _nElementsLeft$199109[ebp], eax

; 88   : 		 pData += nElementsToWrite;

  0005e	8b 4d f4	 mov	 ecx, DWORD PTR _nElementsToWrite$199113[ebp]
  00061	8b 55 fc	 mov	 edx, DWORD PTR _pData$199108[ebp]
  00064	8d 04 8a	 lea	 eax, DWORD PTR [edx+ecx*4]
  00067	89 45 fc	 mov	 DWORD PTR _pData$199108[ebp], eax

; 89   : 	  }

  0006a	eb b2		 jmp	 SHORT $L199111
$L199112:

; 90   :    }
; 91   : 	else

  0006c	eb 5a		 jmp	 SHORT $L199105
$L199107:

; 92   :    {
; 93   : 	  TYPE* pData;
; 94   : 	  UINT_PTR nElementsLeft;
; 95   : 
; 96   : 	  nElementsLeft = nCount;

  0006e	8b 4d 10	 mov	 ecx, DWORD PTR _nCount$[ebp]
  00071	89 4d ec	 mov	 DWORD PTR _nElementsLeft$199119[ebp], ecx

; 97   : 	  pData = pElements;

  00074	8b 55 0c	 mov	 edx, DWORD PTR _pElements$[ebp]
  00077	89 55 f0	 mov	 DWORD PTR _pData$199118[ebp], edx
$L199121:

; 98   : 	  while( nElementsLeft > 0 )

  0007a	83 7d ec 00	 cmp	 DWORD PTR _nElementsLeft$199119[ebp], 0
  0007e	76 48		 jbe	 SHORT $L199105

; 99   : 	  {
; 100  : 		 UINT nElementsToRead;
; 101  : 
; 102  : 		 nElementsToRead = UINT(min(nElementsLeft, INT_MAX/sizeof(TYPE)));

  00080	81 7d ec ff ff
	ff 1f		 cmp	 DWORD PTR _nElementsLeft$199119[ebp], 536870911 ; 1fffffffH
  00087	73 08		 jae	 SHORT $L199787
  00089	8b 45 ec	 mov	 eax, DWORD PTR _nElementsLeft$199119[ebp]
  0008c	89 45 e0	 mov	 DWORD PTR tv79[ebp], eax
  0008f	eb 07		 jmp	 SHORT $L199788
$L199787:
  00091	c7 45 e0 ff ff
	ff 1f		 mov	 DWORD PTR tv79[ebp], 536870911 ; 1fffffffH
$L199788:
  00098	8b 4d e0	 mov	 ecx, DWORD PTR tv79[ebp]
  0009b	89 4d e8	 mov	 DWORD PTR _nElementsToRead$199123[ebp], ecx

; 103  : 		 ar.Read(pData, nElementsToRead*sizeof(TYPE));

  0009e	8b 55 e8	 mov	 edx, DWORD PTR _nElementsToRead$199123[ebp]
  000a1	c1 e2 02	 shl	 edx, 2
  000a4	52		 push	 edx
  000a5	8b 45 f0	 mov	 eax, DWORD PTR _pData$199118[ebp]
  000a8	50		 push	 eax
  000a9	8b 4d 08	 mov	 ecx, DWORD PTR _ar$[ebp]
  000ac	e8 00 00 00 00	 call	 ?Read@CArchive@@QAEIPAXI@Z ; CArchive::Read

; 104  : 		 nElementsLeft -= nElementsToRead;

  000b1	8b 4d ec	 mov	 ecx, DWORD PTR _nElementsLeft$199119[ebp]
  000b4	2b 4d e8	 sub	 ecx, DWORD PTR _nElementsToRead$199123[ebp]
  000b7	89 4d ec	 mov	 DWORD PTR _nElementsLeft$199119[ebp], ecx

; 105  : 		 pData += nElementsToRead;

  000ba	8b 55 e8	 mov	 edx, DWORD PTR _nElementsToRead$199123[ebp]
  000bd	8b 45 f0	 mov	 eax, DWORD PTR _pData$199118[ebp]
  000c0	8d 0c 90	 lea	 ecx, DWORD PTR [eax+edx*4]
  000c3	89 4d f0	 mov	 DWORD PTR _pData$199118[ebp], ecx

; 106  : 	  }

  000c6	eb b2		 jmp	 SHORT $L199121
$L199105:

; 107  :    }
; 108  : }

  000c8	8b e5		 mov	 esp, ebp
  000ca	5d		 pop	 ebp
  000cb	c2 0c 00	 ret	 12			; 0000000cH
??$SerializeElements@VCPaneBase@ETSLayoutMgr@@@@YGXAAVCArchive@@PAVCPaneBase@ETSLayoutMgr@@H@Z ENDP ; SerializeElements<ETSLayoutMgr::CPaneBase>
_TEXT	ENDS
PUBLIC	??A?$CMap@V?$CStringT@DV?$StrTraitMFC_DLL@DV?$ChTraitsCRT@D@ATL@@@@@ATL@@PBDVCPaneBase@ETSLayoutMgr@@V34@@@QAEAAVCPaneBase@ETSLayoutMgr@@PBD@Z ; CMap<ATL::CStringT<char,StrTraitMFC_DLL<char,ATL::ChTraitsCRT<char> > >,char const *,ETSLayoutMgr::CPaneBase,ETSLayoutMgr::CPaneBase>::operator[]
EXTRN	??4CPaneBase@ETSLayoutMgr@@QAEXABV01@@Z:NEAR	; ETSLayoutMgr::CPaneBase::operator=
;	COMDAT xdata$x
xdata$x	SEGMENT
$T199795 DD	0ffffffffH
	DD	FLAT:$L199791
$T199793 DD	019930520H
	DD	01H
	DD	FLAT:$T199795
	DD	2 DUP(00H)
	DD	2 DUP(00H)
; Function compile flags: /Odt
xdata$x	ENDS
;	COMDAT ?SetAt@?$CMap@V?$CStringT@DV?$StrTraitMFC_DLL@DV?$ChTraitsCRT@D@ATL@@@@@ATL@@PBDVCPaneBase@ETSLayoutMgr@@V34@@@QAEXPBDVCPaneBase@ETSLayoutMgr@@@Z
_TEXT	SEGMENT
_this$ = -16						; size = 4
__$EHRec$ = -12						; size = 12
_key$ = 8						; size = 4
_newValue$ = 12						; size = 4
?SetAt@?$CMap@V?$CStringT@DV?$StrTraitMFC_DLL@DV?$ChTraitsCRT@D@ATL@@@@@ATL@@PBDVCPaneBase@ETSLayoutMgr@@V34@@@QAEXPBDVCPaneBase@ETSLayoutMgr@@@Z PROC NEAR ; CMap<ATL::CStringT<char,StrTraitMFC_DLL<char,ATL::ChTraitsCRT<char> > >,char const *,ETSLayoutMgr::CPaneBase,ETSLayoutMgr::CPaneBase>::SetAt, COMDAT
; _this$ = ecx

; 1346 : 	{ (*this)[key] = newValue; }

  00000	55		 push	 ebp
  00001	8b ec		 mov	 ebp, esp
  00003	6a ff		 push	 -1
  00005	68 00 00 00 00	 push	 __ehhandler$?SetAt@?$CMap@V?$CStringT@DV?$StrTraitMFC_DLL@DV?$ChTraitsCRT@D@ATL@@@@@ATL@@PBDVCPaneBase@ETSLayoutMgr@@V34@@@QAEXPBDVCPaneBase@ETSLayoutMgr@@@Z
  0000a	64 a1 00 00 00
	00		 mov	 eax, DWORD PTR fs:__except_list
  00010	50		 push	 eax
  00011	64 89 25 00 00
	00 00		 mov	 DWORD PTR fs:__except_list, esp
  00018	51		 push	 ecx
  00019	89 4d f0	 mov	 DWORD PTR _this$[ebp], ecx
  0001c	c7 45 fc 00 00
	00 00		 mov	 DWORD PTR __$EHRec$[ebp+8], 0
  00023	8d 45 0c	 lea	 eax, DWORD PTR _newValue$[ebp]
  00026	50		 push	 eax
  00027	8b 4d 08	 mov	 ecx, DWORD PTR _key$[ebp]
  0002a	51		 push	 ecx
  0002b	8b 4d f0	 mov	 ecx, DWORD PTR _this$[ebp]
  0002e	e8 00 00 00 00	 call	 ??A?$CMap@V?$CStringT@DV?$StrTraitMFC_DLL@DV?$ChTraitsCRT@D@ATL@@@@@ATL@@PBDVCPaneBase@ETSLayoutMgr@@V34@@@QAEAAVCPaneBase@ETSLayoutMgr@@PBD@Z ; CMap<ATL::CStringT<char,StrTraitMFC_DLL<char,ATL::ChTraitsCRT<char> > >,char const *,ETSLayoutMgr::CPaneBase,ETSLayoutMgr::CPaneBase>::operator[]
  00033	8b c8		 mov	 ecx, eax
  00035	e8 00 00 00 00	 call	 ??4CPaneBase@ETSLayoutMgr@@QAEXABV01@@Z ; ETSLayoutMgr::CPaneBase::operator=
  0003a	c7 45 fc ff ff
	ff ff		 mov	 DWORD PTR __$EHRec$[ebp+8], -1
  00041	8d 4d 0c	 lea	 ecx, DWORD PTR _newValue$[ebp]
  00044	e8 00 00 00 00	 call	 ??1CPaneBase@ETSLayoutMgr@@QAE@XZ ; ETSLayoutMgr::CPaneBase::~CPaneBase
  00049	8b 4d f4	 mov	 ecx, DWORD PTR __$EHRec$[ebp]
  0004c	64 89 0d 00 00
	00 00		 mov	 DWORD PTR fs:__except_list, ecx
  00053	8b e5		 mov	 esp, ebp
  00055	5d		 pop	 ebp
  00056	c2 08 00	 ret	 8
_TEXT	ENDS
;	COMDAT text$x
text$x	SEGMENT
$L199791:
  00000	8d 4d 0c	 lea	 ecx, DWORD PTR _newValue$[ebp]
  00003	e9 00 00 00 00	 jmp	 ??1CPaneBase@ETSLayoutMgr@@QAE@XZ ; ETSLayoutMgr::CPaneBase::~CPaneBase
__ehhandler$?SetAt@?$CMap@V?$CStringT@DV?$StrTraitMFC_DLL@DV?$ChTraitsCRT@D@ATL@@@@@ATL@@PBDVCPaneBase@ETSLayoutMgr@@V34@@@QAEXPBDVCPaneBase@ETSLayoutMgr@@@Z:
  00008	b8 00 00 00 00	 mov	 eax, OFFSET FLAT:$T199793
  0000d	e9 00 00 00 00	 jmp	 ___CxxFrameHandler
text$x	ENDS
?SetAt@?$CMap@V?$CStringT@DV?$StrTraitMFC_DLL@DV?$ChTraitsCRT@D@ATL@@@@@ATL@@PBDVCPaneBase@ETSLayoutMgr@@V34@@@QAEXPBDVCPaneBase@ETSLayoutMgr@@@Z ENDP ; CMap<ATL::CStringT<char,StrTraitMFC_DLL<char,ATL::ChTraitsCRT<char> > >,char const *,ETSLayoutMgr::CPaneBase,ETSLayoutMgr::CPaneBase>::SetAt
PUBLIC	??1CAssoc@?$CMap@V?$CStringT@DV?$StrTraitMFC_DLL@DV?$ChTraitsCRT@D@ATL@@@@@ATL@@PBDVCPaneBase@ETSLayoutMgr@@V34@@@QAE@XZ ; CMap<ATL::CStringT<char,StrTraitMFC_DLL<char,ATL::ChTraitsCRT<char> > >,char const *,ETSLayoutMgr::CPaneBase,ETSLayoutMgr::CPaneBase>::CAssoc::~CAssoc
EXTRN	??_V@YAXPAX@Z:NEAR				; operator delete[]
EXTRN	?FreeDataChain@CPlex@@QAEXXZ:NEAR		; CPlex::FreeDataChain
; Function compile flags: /Odt
;	COMDAT ?RemoveAll@?$CMap@V?$CStringT@DV?$StrTraitMFC_DLL@DV?$ChTraitsCRT@D@ATL@@@@@ATL@@PBDVCPaneBase@ETSLayoutMgr@@V34@@@QAEXXZ
_TEXT	SEGMENT
_this$ = -16						; size = 4
$T199800 = -12						; size = 4
_pAssoc$199149 = -8					; size = 4
_nHash$199145 = -4					; size = 4
?RemoveAll@?$CMap@V?$CStringT@DV?$StrTraitMFC_DLL@DV?$ChTraitsCRT@D@ATL@@@@@ATL@@PBDVCPaneBase@ETSLayoutMgr@@V34@@@QAEXXZ PROC NEAR ; CMap<ATL::CStringT<char,StrTraitMFC_DLL<char,ATL::ChTraitsCRT<char> > >,char const *,ETSLayoutMgr::CPaneBase,ETSLayoutMgr::CPaneBase>::RemoveAll, COMDAT
; _this$ = ecx

; 1438 : {

  00000	55		 push	 ebp
  00001	8b ec		 mov	 ebp, esp
  00003	83 ec 10	 sub	 esp, 16			; 00000010H
  00006	89 4d f0	 mov	 DWORD PTR _this$[ebp], ecx

; 1439 : 	ASSERT_VALID(this);
; 1440 : 
; 1441 : 	if (m_pHashTable != NULL)

  00009	8b 45 f0	 mov	 eax, DWORD PTR _this$[ebp]
  0000c	83 78 04 00	 cmp	 DWORD PTR [eax+4], 0
  00010	74 49		 je	 SHORT $L199144

; 1442 : 	{
; 1443 : 		// destroy elements (values and keys)
; 1444 : 		for (UINT nHash = 0; nHash < m_nHashTableSize; nHash++)

  00012	c7 45 fc 00 00
	00 00		 mov	 DWORD PTR _nHash$199145[ebp], 0
  00019	eb 09		 jmp	 SHORT $L199146
$L199147:
  0001b	8b 4d fc	 mov	 ecx, DWORD PTR _nHash$199145[ebp]
  0001e	83 c1 01	 add	 ecx, 1
  00021	89 4d fc	 mov	 DWORD PTR _nHash$199145[ebp], ecx
$L199146:
  00024	8b 55 f0	 mov	 edx, DWORD PTR _this$[ebp]
  00027	8b 45 fc	 mov	 eax, DWORD PTR _nHash$199145[ebp]
  0002a	3b 42 08	 cmp	 eax, DWORD PTR [edx+8]
  0002d	73 2c		 jae	 SHORT $L199144

; 1445 : 		{
; 1446 : 			CAssoc* pAssoc;
; 1447 : 			for (pAssoc = m_pHashTable[nHash]; pAssoc != NULL;

  0002f	8b 4d f0	 mov	 ecx, DWORD PTR _this$[ebp]
  00032	8b 51 04	 mov	 edx, DWORD PTR [ecx+4]
  00035	8b 45 fc	 mov	 eax, DWORD PTR _nHash$199145[ebp]
  00038	8b 0c 82	 mov	 ecx, DWORD PTR [edx+eax*4]
  0003b	89 4d f8	 mov	 DWORD PTR _pAssoc$199149[ebp], ecx

; 1448 : 			  pAssoc = pAssoc->pNext)

  0003e	eb 09		 jmp	 SHORT $L199150
$L199151:
  00040	8b 55 f8	 mov	 edx, DWORD PTR _pAssoc$199149[ebp]
  00043	8b 42 08	 mov	 eax, DWORD PTR [edx+8]
  00046	89 45 f8	 mov	 DWORD PTR _pAssoc$199149[ebp], eax
$L199150:
  00049	83 7d f8 00	 cmp	 DWORD PTR _pAssoc$199149[ebp], 0
  0004d	74 0a		 je	 SHORT $L199152

; 1449 : 			{
; 1450 : 				pAssoc->CAssoc::~CAssoc();

  0004f	8b 4d f8	 mov	 ecx, DWORD PTR _pAssoc$199149[ebp]
  00052	e8 00 00 00 00	 call	 ??1CAssoc@?$CMap@V?$CStringT@DV?$StrTraitMFC_DLL@DV?$ChTraitsCRT@D@ATL@@@@@ATL@@PBDVCPaneBase@ETSLayoutMgr@@V34@@@QAE@XZ

; 1451 : 				//DestructElements<VALUE>(&pAssoc->value, 1);
; 1452 : 				//DestructElements<KEY>((KEY*)&pAssoc->key, 1);
; 1453 : 			}

  00057	eb e7		 jmp	 SHORT $L199151
$L199152:

; 1454 : 		}

  00059	eb c0		 jmp	 SHORT $L199147
$L199144:

; 1455 : 	}
; 1456 : 
; 1457 : 	// free hash table
; 1458 : 	delete[] m_pHashTable;

  0005b	8b 4d f0	 mov	 ecx, DWORD PTR _this$[ebp]
  0005e	8b 51 04	 mov	 edx, DWORD PTR [ecx+4]
  00061	89 55 f4	 mov	 DWORD PTR $T199800[ebp], edx
  00064	8b 45 f4	 mov	 eax, DWORD PTR $T199800[ebp]
  00067	50		 push	 eax
  00068	e8 00 00 00 00	 call	 ??_V@YAXPAX@Z		; operator delete[]
  0006d	83 c4 04	 add	 esp, 4

; 1459 : 	m_pHashTable = NULL;

  00070	8b 4d f0	 mov	 ecx, DWORD PTR _this$[ebp]
  00073	c7 41 04 00 00
	00 00		 mov	 DWORD PTR [ecx+4], 0

; 1460 : 
; 1461 : 	m_nCount = 0;

  0007a	8b 55 f0	 mov	 edx, DWORD PTR _this$[ebp]
  0007d	c7 42 0c 00 00
	00 00		 mov	 DWORD PTR [edx+12], 0

; 1462 : 	m_pFreeList = NULL;

  00084	8b 45 f0	 mov	 eax, DWORD PTR _this$[ebp]
  00087	c7 40 10 00 00
	00 00		 mov	 DWORD PTR [eax+16], 0

; 1463 : 	m_pBlocks->FreeDataChain();

  0008e	8b 4d f0	 mov	 ecx, DWORD PTR _this$[ebp]
  00091	8b 49 14	 mov	 ecx, DWORD PTR [ecx+20]
  00094	e8 00 00 00 00	 call	 ?FreeDataChain@CPlex@@QAEXXZ ; CPlex::FreeDataChain

; 1464 : 	m_pBlocks = NULL;

  00099	8b 55 f0	 mov	 edx, DWORD PTR _this$[ebp]
  0009c	c7 42 14 00 00
	00 00		 mov	 DWORD PTR [edx+20], 0

; 1465 : }

  000a3	8b e5		 mov	 esp, ebp
  000a5	5d		 pop	 ebp
  000a6	c3		 ret	 0
?RemoveAll@?$CMap@V?$CStringT@DV?$StrTraitMFC_DLL@DV?$ChTraitsCRT@D@ATL@@@@@ATL@@PBDVCPaneBase@ETSLayoutMgr@@V34@@@QAEXXZ ENDP ; CMap<ATL::CStringT<char,StrTraitMFC_DLL<char,ATL::ChTraitsCRT<char> > >,char const *,ETSLayoutMgr::CPaneBase,ETSLayoutMgr::CPaneBase>::RemoveAll
_TEXT	ENDS
PUBLIC	??1CPair@?$CMap@V?$CStringT@DV?$StrTraitMFC_DLL@DV?$ChTraitsCRT@D@ATL@@@@@ATL@@PBDVCPaneBase@ETSLayoutMgr@@V34@@@QAE@XZ ; CMap<ATL::CStringT<char,StrTraitMFC_DLL<char,ATL::ChTraitsCRT<char> > >,char const *,ETSLayoutMgr::CPaneBase,ETSLayoutMgr::CPaneBase>::CPair::~CPair
; Function compile flags: /Odt
;	COMDAT ??1CAssoc@?$CMap@V?$CStringT@DV?$StrTraitMFC_DLL@DV?$ChTraitsCRT@D@ATL@@@@@ATL@@PBDVCPaneBase@ETSLayoutMgr@@V34@@@QAE@XZ
_TEXT	SEGMENT
_this$ = -4						; size = 4
??1CAssoc@?$CMap@V?$CStringT@DV?$StrTraitMFC_DLL@DV?$ChTraitsCRT@D@ATL@@@@@ATL@@PBDVCPaneBase@ETSLayoutMgr@@V34@@@QAE@XZ PROC NEAR ; CMap<ATL::CStringT<char,StrTraitMFC_DLL<char,ATL::ChTraitsCRT<char> > >,char const *,ETSLayoutMgr::CPaneBase,ETSLayoutMgr::CPaneBase>::CAssoc::~CAssoc, COMDAT
; _this$ = ecx
  00000	55		 push	 ebp
  00001	8b ec		 mov	 ebp, esp
  00003	51		 push	 ecx
  00004	89 4d fc	 mov	 DWORD PTR _this$[ebp], ecx
  00007	8b 4d fc	 mov	 ecx, DWORD PTR _this$[ebp]
  0000a	e8 00 00 00 00	 call	 ??1CPair@?$CMap@V?$CStringT@DV?$StrTraitMFC_DLL@DV?$ChTraitsCRT@D@ATL@@@@@ATL@@PBDVCPaneBase@ETSLayoutMgr@@V34@@@QAE@XZ
  0000f	8b e5		 mov	 esp, ebp
  00011	5d		 pop	 ebp
  00012	c3		 ret	 0
??1CAssoc@?$CMap@V?$CStringT@DV?$StrTraitMFC_DLL@DV?$ChTraitsCRT@D@ATL@@@@@ATL@@PBDVCPaneBase@ETSLayoutMgr@@V34@@@QAE@XZ ENDP ; CMap<ATL::CStringT<char,StrTraitMFC_DLL<char,ATL::ChTraitsCRT<char> > >,char const *,ETSLayoutMgr::CPaneBase,ETSLayoutMgr::CPaneBase>::CAssoc::~CAssoc
_TEXT	ENDS
;	COMDAT xdata$x
xdata$x	SEGMENT
$T199811 DD	0ffffffffH
	DD	FLAT:$L199806
$T199809 DD	019930520H
	DD	01H
	DD	FLAT:$T199811
	DD	2 DUP(00H)
	DD	2 DUP(00H)
; Function compile flags: /Odt
xdata$x	ENDS
;	COMDAT ??1CPair@?$CMap@V?$CStringT@DV?$StrTraitMFC_DLL@DV?$ChTraitsCRT@D@ATL@@@@@ATL@@PBDVCPaneBase@ETSLayoutMgr@@V34@@@QAE@XZ
_TEXT	SEGMENT
_this$ = -16						; size = 4
__$EHRec$ = -12						; size = 12
??1CPair@?$CMap@V?$CStringT@DV?$StrTraitMFC_DLL@DV?$ChTraitsCRT@D@ATL@@@@@ATL@@PBDVCPaneBase@ETSLayoutMgr@@V34@@@QAE@XZ PROC NEAR ; CMap<ATL::CStringT<char,StrTraitMFC_DLL<char,ATL::ChTraitsCRT<char> > >,char const *,ETSLayoutMgr::CPaneBase,ETSLayoutMgr::CPaneBase>::CPair::~CPair, COMDAT
; _this$ = ecx
  00000	55		 push	 ebp
  00001	8b ec		 mov	 ebp, esp
  00003	6a ff		 push	 -1
  00005	68 00 00 00 00	 push	 __ehhandler$??1CPair@?$CMap@V?$CStringT@DV?$StrTraitMFC_DLL@DV?$ChTraitsCRT@D@ATL@@@@@ATL@@PBDVCPaneBase@ETSLayoutMgr@@V34@@@QAE@XZ
  0000a	64 a1 00 00 00
	00		 mov	 eax, DWORD PTR fs:__except_list
  00010	50		 push	 eax
  00011	64 89 25 00 00
	00 00		 mov	 DWORD PTR fs:__except_list, esp
  00018	51		 push	 ecx
  00019	89 4d f0	 mov	 DWORD PTR _this$[ebp], ecx
  0001c	c7 45 fc 00 00
	00 00		 mov	 DWORD PTR __$EHRec$[ebp+8], 0
  00023	8b 4d f0	 mov	 ecx, DWORD PTR _this$[ebp]
  00026	83 c1 04	 add	 ecx, 4
  00029	e8 00 00 00 00	 call	 ??1CPaneBase@ETSLayoutMgr@@QAE@XZ ; ETSLayoutMgr::CPaneBase::~CPaneBase
  0002e	c7 45 fc ff ff
	ff ff		 mov	 DWORD PTR __$EHRec$[ebp+8], -1
  00035	8b 4d f0	 mov	 ecx, DWORD PTR _this$[ebp]
  00038	ff 15 00 00 00
	00		 call	 DWORD PTR __imp_??1?$CStringT@DV?$StrTraitMFC_DLL@DV?$ChTraitsCRT@D@ATL@@@@@ATL@@QAE@XZ
  0003e	8b 4d f4	 mov	 ecx, DWORD PTR __$EHRec$[ebp]
  00041	64 89 0d 00 00
	00 00		 mov	 DWORD PTR fs:__except_list, ecx
  00048	8b e5		 mov	 esp, ebp
  0004a	5d		 pop	 ebp
  0004b	c3		 ret	 0
_TEXT	ENDS
;	COMDAT text$x
text$x	SEGMENT
$L199806:
  00000	8b 4d f0	 mov	 ecx, DWORD PTR _this$[ebp]
  00003	ff 25 00 00 00
	00		 jmp	 DWORD PTR __imp_??1?$CStringT@DV?$StrTraitMFC_DLL@DV?$ChTraitsCRT@D@ATL@@@@@ATL@@QAE@XZ
__ehhandler$??1CPair@?$CMap@V?$CStringT@DV?$StrTraitMFC_DLL@DV?$ChTraitsCRT@D@ATL@@@@@ATL@@PBDVCPaneBase@ETSLayoutMgr@@V34@@@QAE@XZ:
  00009	b8 00 00 00 00	 mov	 eax, OFFSET FLAT:$T199809
  0000e	e9 00 00 00 00	 jmp	 ___CxxFrameHandler
text$x	ENDS
??1CPair@?$CMap@V?$CStringT@DV?$StrTraitMFC_DLL@DV?$ChTraitsCRT@D@ATL@@@@@ATL@@PBDVCPaneBase@ETSLayoutMgr@@V34@@@QAE@XZ ENDP ; CMap<ATL::CStringT<char,StrTraitMFC_DLL<char,ATL::ChTraitsCRT<char> > >,char const *,ETSLayoutMgr::CPaneBase,ETSLayoutMgr::CPaneBase>::CPair::~CPair
PUBLIC	?InitHashTable@?$CMap@V?$CStringT@DV?$StrTraitMFC_DLL@DV?$ChTraitsCRT@D@ATL@@@@@ATL@@PBDVCPaneBase@ETSLayoutMgr@@V34@@@QAEXIH@Z ; CMap<ATL::CStringT<char,StrTraitMFC_DLL<char,ATL::ChTraitsCRT<char> > >,char const *,ETSLayoutMgr::CPaneBase,ETSLayoutMgr::CPaneBase>::InitHashTable
PUBLIC	?NewAssoc@?$CMap@V?$CStringT@DV?$StrTraitMFC_DLL@DV?$ChTraitsCRT@D@ATL@@@@@ATL@@PBDVCPaneBase@ETSLayoutMgr@@V34@@@IAEPAVCAssoc@1@PBD@Z ; CMap<ATL::CStringT<char,StrTraitMFC_DLL<char,ATL::ChTraitsCRT<char> > >,char const *,ETSLayoutMgr::CPaneBase,ETSLayoutMgr::CPaneBase>::NewAssoc
PUBLIC	?GetAssocAt@?$CMap@V?$CStringT@DV?$StrTraitMFC_DLL@DV?$ChTraitsCRT@D@ATL@@@@@ATL@@PBDVCPaneBase@ETSLayoutMgr@@V34@@@IBEPAVCAssoc@1@PBDAAI1@Z ; CMap<ATL::CStringT<char,StrTraitMFC_DLL<char,ATL::ChTraitsCRT<char> > >,char const *,ETSLayoutMgr::CPaneBase,ETSLayoutMgr::CPaneBase>::GetAssocAt
; Function compile flags: /Odt
;	COMDAT ??A?$CMap@V?$CStringT@DV?$StrTraitMFC_DLL@DV?$ChTraitsCRT@D@ATL@@@@@ATL@@PBDVCPaneBase@ETSLayoutMgr@@V34@@@QAEAAVCPaneBase@ETSLayoutMgr@@PBD@Z
_TEXT	SEGMENT
_this$ = -16						; size = 4
_nHashBucket$ = -12					; size = 4
_pAssoc$ = -8						; size = 4
_nHashValue$ = -4					; size = 4
_key$ = 8						; size = 4
??A?$CMap@V?$CStringT@DV?$StrTraitMFC_DLL@DV?$ChTraitsCRT@D@ATL@@@@@ATL@@PBDVCPaneBase@ETSLayoutMgr@@V34@@@QAEAAVCPaneBase@ETSLayoutMgr@@PBD@Z PROC NEAR ; CMap<ATL::CStringT<char,StrTraitMFC_DLL<char,ATL::ChTraitsCRT<char> > >,char const *,ETSLayoutMgr::CPaneBase,ETSLayoutMgr::CPaneBase>::operator[], COMDAT
; _this$ = ecx

; 1586 : {

  00000	55		 push	 ebp
  00001	8b ec		 mov	 ebp, esp
  00003	83 ec 10	 sub	 esp, 16			; 00000010H
  00006	89 4d f0	 mov	 DWORD PTR _this$[ebp], ecx

; 1587 : 	ASSERT_VALID(this);
; 1588 : 
; 1589 : 	UINT nHashBucket, nHashValue;
; 1590 : 	CAssoc* pAssoc;
; 1591 : 	if ((pAssoc = GetAssocAt(key, nHashBucket, nHashValue)) == NULL)

  00009	8d 45 fc	 lea	 eax, DWORD PTR _nHashValue$[ebp]
  0000c	50		 push	 eax
  0000d	8d 4d f4	 lea	 ecx, DWORD PTR _nHashBucket$[ebp]
  00010	51		 push	 ecx
  00011	8b 55 08	 mov	 edx, DWORD PTR _key$[ebp]
  00014	52		 push	 edx
  00015	8b 4d f0	 mov	 ecx, DWORD PTR _this$[ebp]
  00018	e8 00 00 00 00	 call	 ?GetAssocAt@?$CMap@V?$CStringT@DV?$StrTraitMFC_DLL@DV?$ChTraitsCRT@D@ATL@@@@@ATL@@PBDVCPaneBase@ETSLayoutMgr@@V34@@@IBEPAVCAssoc@1@PBDAAI1@Z ; CMap<ATL::CStringT<char,StrTraitMFC_DLL<char,ATL::ChTraitsCRT<char> > >,char const *,ETSLayoutMgr::CPaneBase,ETSLayoutMgr::CPaneBase>::GetAssocAt
  0001d	89 45 f8	 mov	 DWORD PTR _pAssoc$[ebp], eax
  00020	83 7d f8 00	 cmp	 DWORD PTR _pAssoc$[ebp], 0
  00024	75 53		 jne	 SHORT $L199170

; 1592 : 	{
; 1593 : 		if (m_pHashTable == NULL)

  00026	8b 45 f0	 mov	 eax, DWORD PTR _this$[ebp]
  00029	83 78 04 00	 cmp	 DWORD PTR [eax+4], 0
  0002d	75 11		 jne	 SHORT $L199171

; 1594 : 			InitHashTable(m_nHashTableSize);

  0002f	6a 01		 push	 1
  00031	8b 4d f0	 mov	 ecx, DWORD PTR _this$[ebp]
  00034	8b 51 08	 mov	 edx, DWORD PTR [ecx+8]
  00037	52		 push	 edx
  00038	8b 4d f0	 mov	 ecx, DWORD PTR _this$[ebp]
  0003b	e8 00 00 00 00	 call	 ?InitHashTable@?$CMap@V?$CStringT@DV?$StrTraitMFC_DLL@DV?$ChTraitsCRT@D@ATL@@@@@ATL@@PBDVCPaneBase@ETSLayoutMgr@@V34@@@QAEXIH@Z ; CMap<ATL::CStringT<char,StrTraitMFC_DLL<char,ATL::ChTraitsCRT<char> > >,char const *,ETSLayoutMgr::CPaneBase,ETSLayoutMgr::CPaneBase>::InitHashTable
$L199171:

; 1595 : 
; 1596 : 		// it doesn't exist, add a new Association
; 1597 : 		pAssoc = NewAssoc(key);

  00040	8b 45 08	 mov	 eax, DWORD PTR _key$[ebp]
  00043	50		 push	 eax
  00044	8b 4d f0	 mov	 ecx, DWORD PTR _this$[ebp]
  00047	e8 00 00 00 00	 call	 ?NewAssoc@?$CMap@V?$CStringT@DV?$StrTraitMFC_DLL@DV?$ChTraitsCRT@D@ATL@@@@@ATL@@PBDVCPaneBase@ETSLayoutMgr@@V34@@@IAEPAVCAssoc@1@PBD@Z ; CMap<ATL::CStringT<char,StrTraitMFC_DLL<char,ATL::ChTraitsCRT<char> > >,char const *,ETSLayoutMgr::CPaneBase,ETSLayoutMgr::CPaneBase>::NewAssoc
  0004c	89 45 f8	 mov	 DWORD PTR _pAssoc$[ebp], eax

; 1598 : 		pAssoc->nHashValue = nHashValue;

  0004f	8b 4d f8	 mov	 ecx, DWORD PTR _pAssoc$[ebp]
  00052	8b 55 fc	 mov	 edx, DWORD PTR _nHashValue$[ebp]
  00055	89 51 0c	 mov	 DWORD PTR [ecx+12], edx

; 1599 : 		//'pAssoc->value' is a constructed object, nothing more
; 1600 : 
; 1601 : 		// put into hash table
; 1602 : 		pAssoc->pNext = m_pHashTable[nHashBucket];

  00058	8b 45 f0	 mov	 eax, DWORD PTR _this$[ebp]
  0005b	8b 48 04	 mov	 ecx, DWORD PTR [eax+4]
  0005e	8b 55 f8	 mov	 edx, DWORD PTR _pAssoc$[ebp]
  00061	8b 45 f4	 mov	 eax, DWORD PTR _nHashBucket$[ebp]
  00064	8b 0c 81	 mov	 ecx, DWORD PTR [ecx+eax*4]
  00067	89 4a 08	 mov	 DWORD PTR [edx+8], ecx

; 1603 : 		m_pHashTable[nHashBucket] = pAssoc;

  0006a	8b 55 f0	 mov	 edx, DWORD PTR _this$[ebp]
  0006d	8b 42 04	 mov	 eax, DWORD PTR [edx+4]
  00070	8b 4d f4	 mov	 ecx, DWORD PTR _nHashBucket$[ebp]
  00073	8b 55 f8	 mov	 edx, DWORD PTR _pAssoc$[ebp]
  00076	89 14 88	 mov	 DWORD PTR [eax+ecx*4], edx
$L199170:

; 1604 : 	}
; 1605 : 	return pAssoc->value;  // return new reference

  00079	8b 45 f8	 mov	 eax, DWORD PTR _pAssoc$[ebp]
  0007c	83 c0 04	 add	 eax, 4

; 1606 : }

  0007f	8b e5		 mov	 esp, ebp
  00081	5d		 pop	 ebp
  00082	c2 04 00	 ret	 4
??A?$CMap@V?$CStringT@DV?$StrTraitMFC_DLL@DV?$ChTraitsCRT@D@ATL@@@@@ATL@@PBDVCPaneBase@ETSLayoutMgr@@V34@@@QAEAAVCPaneBase@ETSLayoutMgr@@PBD@Z ENDP ; CMap<ATL::CStringT<char,StrTraitMFC_DLL<char,ATL::ChTraitsCRT<char> > >,char const *,ETSLayoutMgr::CPaneBase,ETSLayoutMgr::CPaneBase>::operator[]
_TEXT	ENDS
EXTRN	??_U@YAPAXI@Z:NEAR				; operator new[]
EXTRN	_memset:NEAR
; Function compile flags: /Odt
;	COMDAT ?InitHashTable@?$CMap@V?$CStringT@DV?$StrTraitMFC_DLL@DV?$ChTraitsCRT@D@ATL@@@@@ATL@@PBDVCPaneBase@ETSLayoutMgr@@V34@@@QAEXIH@Z
_TEXT	SEGMENT
_this$ = -12						; size = 4
$T199819 = -8						; size = 4
$T199818 = -4						; size = 4
_nHashSize$ = 8						; size = 4
_bAllocNow$ = 12					; size = 4
?InitHashTable@?$CMap@V?$CStringT@DV?$StrTraitMFC_DLL@DV?$ChTraitsCRT@D@ATL@@@@@ATL@@PBDVCPaneBase@ETSLayoutMgr@@V34@@@QAEXIH@Z PROC NEAR ; CMap<ATL::CStringT<char,StrTraitMFC_DLL<char,ATL::ChTraitsCRT<char> > >,char const *,ETSLayoutMgr::CPaneBase,ETSLayoutMgr::CPaneBase>::InitHashTable, COMDAT
; _this$ = ecx

; 1416 : {

  00000	55		 push	 ebp
  00001	8b ec		 mov	 ebp, esp
  00003	83 ec 0c	 sub	 esp, 12			; 0000000cH
  00006	89 4d f4	 mov	 DWORD PTR _this$[ebp], ecx

; 1417 : 	ASSERT_VALID(this);
; 1418 : 	ASSERT(m_nCount == 0);
; 1419 : 	ASSERT(nHashSize > 0);
; 1420 : 
; 1421 : 	if (m_pHashTable != NULL)

  00009	8b 45 f4	 mov	 eax, DWORD PTR _this$[ebp]
  0000c	83 78 04 00	 cmp	 DWORD PTR [eax+4], 0
  00010	74 1f		 je	 SHORT $L199184

; 1422 : 	{
; 1423 : 		// free hash table
; 1424 : 		delete[] m_pHashTable;

  00012	8b 4d f4	 mov	 ecx, DWORD PTR _this$[ebp]
  00015	8b 51 04	 mov	 edx, DWORD PTR [ecx+4]
  00018	89 55 fc	 mov	 DWORD PTR $T199818[ebp], edx
  0001b	8b 45 fc	 mov	 eax, DWORD PTR $T199818[ebp]
  0001e	50		 push	 eax
  0001f	e8 00 00 00 00	 call	 ??_V@YAXPAX@Z		; operator delete[]
  00024	83 c4 04	 add	 esp, 4

; 1425 : 		m_pHashTable = NULL;

  00027	8b 4d f4	 mov	 ecx, DWORD PTR _this$[ebp]
  0002a	c7 41 04 00 00
	00 00		 mov	 DWORD PTR [ecx+4], 0
$L199184:

; 1426 : 	}
; 1427 : 
; 1428 : 	if (bAllocNow)

  00031	83 7d 0c 00	 cmp	 DWORD PTR _bAllocNow$[ebp], 0
  00035	74 33		 je	 SHORT $L199186

; 1429 : 	{
; 1430 : 		m_pHashTable = new CAssoc* [nHashSize];

  00037	8b 55 08	 mov	 edx, DWORD PTR _nHashSize$[ebp]
  0003a	c1 e2 02	 shl	 edx, 2
  0003d	52		 push	 edx
  0003e	e8 00 00 00 00	 call	 ??_U@YAPAXI@Z		; operator new[]
  00043	83 c4 04	 add	 esp, 4
  00046	89 45 f8	 mov	 DWORD PTR $T199819[ebp], eax
  00049	8b 45 f4	 mov	 eax, DWORD PTR _this$[ebp]
  0004c	8b 4d f8	 mov	 ecx, DWORD PTR $T199819[ebp]
  0004f	89 48 04	 mov	 DWORD PTR [eax+4], ecx

; 1431 : 		memset(m_pHashTable, 0, sizeof(CAssoc*) * nHashSize);

  00052	8b 55 08	 mov	 edx, DWORD PTR _nHashSize$[ebp]
  00055	c1 e2 02	 shl	 edx, 2
  00058	52		 push	 edx
  00059	6a 00		 push	 0
  0005b	8b 45 f4	 mov	 eax, DWORD PTR _this$[ebp]
  0005e	8b 48 04	 mov	 ecx, DWORD PTR [eax+4]
  00061	51		 push	 ecx
  00062	e8 00 00 00 00	 call	 _memset
  00067	83 c4 0c	 add	 esp, 12			; 0000000cH
$L199186:

; 1432 : 	}
; 1433 : 	m_nHashTableSize = nHashSize;

  0006a	8b 55 f4	 mov	 edx, DWORD PTR _this$[ebp]
  0006d	8b 45 08	 mov	 eax, DWORD PTR _nHashSize$[ebp]
  00070	89 42 08	 mov	 DWORD PTR [edx+8], eax

; 1434 : }

  00073	8b e5		 mov	 esp, ebp
  00075	5d		 pop	 ebp
  00076	c2 08 00	 ret	 8
?InitHashTable@?$CMap@V?$CStringT@DV?$StrTraitMFC_DLL@DV?$ChTraitsCRT@D@ATL@@@@@ATL@@PBDVCPaneBase@ETSLayoutMgr@@V34@@@QAEXIH@Z ENDP ; CMap<ATL::CStringT<char,StrTraitMFC_DLL<char,ATL::ChTraitsCRT<char> > >,char const *,ETSLayoutMgr::CPaneBase,ETSLayoutMgr::CPaneBase>::InitHashTable
_TEXT	ENDS
PUBLIC	??0CAssoc@?$CMap@V?$CStringT@DV?$StrTraitMFC_DLL@DV?$ChTraitsCRT@D@ATL@@@@@ATL@@PBDVCPaneBase@ETSLayoutMgr@@V34@@@QAE@PBD@Z ; CMap<ATL::CStringT<char,StrTraitMFC_DLL<char,ATL::ChTraitsCRT<char> > >,char const *,ETSLayoutMgr::CPaneBase,ETSLayoutMgr::CPaneBase>::CAssoc::CAssoc
PUBLIC	??2@YAPAXIPAX@Z					; operator new
PUBLIC	??3@YAXPAX0@Z					; operator delete
PUBLIC	?data@CPlex@@QAEPAXXZ				; CPlex::data
EXTRN	?Create@CPlex@@SGPAU1@AAPAU1@II@Z:NEAR		; CPlex::Create
;	COMDAT xdata$x
xdata$x	SEGMENT
$T199830 DD	0ffffffffH
	DD	FLAT:$L199826
$T199828 DD	019930520H
	DD	01H
	DD	FLAT:$T199830
	DD	2 DUP(00H)
	DD	2 DUP(00H)
; Function compile flags: /Odt
xdata$x	ENDS
;	COMDAT ?NewAssoc@?$CMap@V?$CStringT@DV?$StrTraitMFC_DLL@DV?$ChTraitsCRT@D@ATL@@@@@ATL@@PBDVCPaneBase@ETSLayoutMgr@@V34@@@IAEPAVCAssoc@1@PBD@Z
_TEXT	SEGMENT
tv141 = -48						; size = 4
_this$ = -44						; size = 4
$T199823 = -40						; size = 4
$T199822 = -36						; size = 4
_i$199203 = -32						; size = 4
_newBlock$199199 = -28					; size = 4
_pAssoc$199201 = -24					; size = 4
_pAssoc$ = -20						; size = 4
_pTemp$ = -16						; size = 4
__$EHRec$ = -12						; size = 12
_key$ = 8						; size = 4
?NewAssoc@?$CMap@V?$CStringT@DV?$StrTraitMFC_DLL@DV?$ChTraitsCRT@D@ATL@@@@@ATL@@PBDVCPaneBase@ETSLayoutMgr@@V34@@@IAEPAVCAssoc@1@PBD@Z PROC NEAR ; CMap<ATL::CStringT<char,StrTraitMFC_DLL<char,ATL::ChTraitsCRT<char> > >,char const *,ETSLayoutMgr::CPaneBase,ETSLayoutMgr::CPaneBase>::NewAssoc, COMDAT
; _this$ = ecx

; 1477 : {

  00000	55		 push	 ebp
  00001	8b ec		 mov	 ebp, esp
  00003	6a ff		 push	 -1
  00005	68 00 00 00 00	 push	 __ehhandler$?NewAssoc@?$CMap@V?$CStringT@DV?$StrTraitMFC_DLL@DV?$ChTraitsCRT@D@ATL@@@@@ATL@@PBDVCPaneBase@ETSLayoutMgr@@V34@@@IAEPAVCAssoc@1@PBD@Z
  0000a	64 a1 00 00 00
	00		 mov	 eax, DWORD PTR fs:__except_list
  00010	50		 push	 eax
  00011	64 89 25 00 00
	00 00		 mov	 DWORD PTR fs:__except_list, esp
  00018	83 ec 24	 sub	 esp, 36			; 00000024H
  0001b	89 4d d4	 mov	 DWORD PTR _this$[ebp], ecx

; 1478 : 	if (m_pFreeList == NULL)

  0001e	8b 45 d4	 mov	 eax, DWORD PTR _this$[ebp]
  00021	83 78 10 00	 cmp	 DWORD PTR [eax+16], 0
  00025	75 72		 jne	 SHORT $L199198

; 1479 : 	{
; 1480 : 		// add another block
; 1481 : 		CPlex* newBlock = CPlex::Create(m_pBlocks, m_nBlockSize, sizeof(CMap::CAssoc));

  00027	6a 10		 push	 16			; 00000010H
  00029	8b 4d d4	 mov	 ecx, DWORD PTR _this$[ebp]
  0002c	8b 51 18	 mov	 edx, DWORD PTR [ecx+24]
  0002f	52		 push	 edx
  00030	8b 45 d4	 mov	 eax, DWORD PTR _this$[ebp]
  00033	83 c0 14	 add	 eax, 20			; 00000014H
  00036	50		 push	 eax
  00037	e8 00 00 00 00	 call	 ?Create@CPlex@@SGPAU1@AAPAU1@II@Z ; CPlex::Create
  0003c	89 45 e4	 mov	 DWORD PTR _newBlock$199199[ebp], eax

; 1482 : 		// chain them into free list
; 1483 : 		CMap::CAssoc* pAssoc = (CMap::CAssoc*) newBlock->data();

  0003f	8b 4d e4	 mov	 ecx, DWORD PTR _newBlock$199199[ebp]
  00042	e8 00 00 00 00	 call	 ?data@CPlex@@QAEPAXXZ	; CPlex::data
  00047	89 45 e8	 mov	 DWORD PTR _pAssoc$199201[ebp], eax

; 1484 : 		// free in reverse order to make it easier to debug
; 1485 : 		pAssoc += m_nBlockSize - 1;

  0004a	8b 4d d4	 mov	 ecx, DWORD PTR _this$[ebp]
  0004d	8b 51 18	 mov	 edx, DWORD PTR [ecx+24]
  00050	83 ea 01	 sub	 edx, 1
  00053	c1 e2 04	 shl	 edx, 4
  00056	03 55 e8	 add	 edx, DWORD PTR _pAssoc$199201[ebp]
  00059	89 55 e8	 mov	 DWORD PTR _pAssoc$199201[ebp], edx

; 1486 : 		for (INT_PTR i = m_nBlockSize-1; i >= 0; i--, pAssoc--)

  0005c	8b 45 d4	 mov	 eax, DWORD PTR _this$[ebp]
  0005f	8b 48 18	 mov	 ecx, DWORD PTR [eax+24]
  00062	83 e9 01	 sub	 ecx, 1
  00065	89 4d e0	 mov	 DWORD PTR _i$199203[ebp], ecx
  00068	eb 12		 jmp	 SHORT $L199204
$L199205:
  0006a	8b 55 e0	 mov	 edx, DWORD PTR _i$199203[ebp]
  0006d	83 ea 01	 sub	 edx, 1
  00070	89 55 e0	 mov	 DWORD PTR _i$199203[ebp], edx
  00073	8b 45 e8	 mov	 eax, DWORD PTR _pAssoc$199201[ebp]
  00076	83 e8 10	 sub	 eax, 16			; 00000010H
  00079	89 45 e8	 mov	 DWORD PTR _pAssoc$199201[ebp], eax
$L199204:
  0007c	83 7d e0 00	 cmp	 DWORD PTR _i$199203[ebp], 0
  00080	7c 17		 jl	 SHORT $L199198

; 1487 : 		{
; 1488 : 			pAssoc->pNext = m_pFreeList;

  00082	8b 4d e8	 mov	 ecx, DWORD PTR _pAssoc$199201[ebp]
  00085	8b 55 d4	 mov	 edx, DWORD PTR _this$[ebp]
  00088	8b 42 10	 mov	 eax, DWORD PTR [edx+16]
  0008b	89 41 08	 mov	 DWORD PTR [ecx+8], eax

; 1489 : 			m_pFreeList = pAssoc;

  0008e	8b 4d d4	 mov	 ecx, DWORD PTR _this$[ebp]
  00091	8b 55 e8	 mov	 edx, DWORD PTR _pAssoc$199201[ebp]
  00094	89 51 10	 mov	 DWORD PTR [ecx+16], edx

; 1490 : 		}

  00097	eb d1		 jmp	 SHORT $L199205
$L199198:

; 1491 : 	}
; 1492 : 	ASSERT(m_pFreeList != NULL);  // we must have something
; 1493 : 
; 1494 : 	CMap::CAssoc* pAssoc = m_pFreeList;

  00099	8b 45 d4	 mov	 eax, DWORD PTR _this$[ebp]
  0009c	8b 48 10	 mov	 ecx, DWORD PTR [eax+16]
  0009f	89 4d ec	 mov	 DWORD PTR _pAssoc$[ebp], ecx

; 1495 : 
; 1496 : 	// zero the memory
; 1497 : 	CMap::CAssoc* pTemp = pAssoc->pNext;

  000a2	8b 55 ec	 mov	 edx, DWORD PTR _pAssoc$[ebp]
  000a5	8b 42 08	 mov	 eax, DWORD PTR [edx+8]
  000a8	89 45 f0	 mov	 DWORD PTR _pTemp$[ebp], eax

; 1498 : 	memset( pAssoc, 0, sizeof(CMap::CAssoc) );

  000ab	6a 10		 push	 16			; 00000010H
  000ad	6a 00		 push	 0
  000af	8b 4d ec	 mov	 ecx, DWORD PTR _pAssoc$[ebp]
  000b2	51		 push	 ecx
  000b3	e8 00 00 00 00	 call	 _memset
  000b8	83 c4 0c	 add	 esp, 12			; 0000000cH

; 1499 : 	pAssoc->pNext = pTemp;

  000bb	8b 55 ec	 mov	 edx, DWORD PTR _pAssoc$[ebp]
  000be	8b 45 f0	 mov	 eax, DWORD PTR _pTemp$[ebp]
  000c1	89 42 08	 mov	 DWORD PTR [edx+8], eax

; 1500 : 
; 1501 : 	m_pFreeList = m_pFreeList->pNext;

  000c4	8b 4d d4	 mov	 ecx, DWORD PTR _this$[ebp]
  000c7	8b 51 10	 mov	 edx, DWORD PTR [ecx+16]
  000ca	8b 45 d4	 mov	 eax, DWORD PTR _this$[ebp]
  000cd	8b 4a 08	 mov	 ecx, DWORD PTR [edx+8]
  000d0	89 48 10	 mov	 DWORD PTR [eax+16], ecx

; 1502 : 	m_nCount++;

  000d3	8b 55 d4	 mov	 edx, DWORD PTR _this$[ebp]
  000d6	8b 42 0c	 mov	 eax, DWORD PTR [edx+12]
  000d9	83 c0 01	 add	 eax, 1
  000dc	8b 4d d4	 mov	 ecx, DWORD PTR _this$[ebp]
  000df	89 41 0c	 mov	 DWORD PTR [ecx+12], eax

; 1503 : 	ASSERT(m_nCount > 0);  // make sure we don't overflow
; 1504 : #pragma push_macro("new")
; 1505 : #undef new
; 1506 : 	::new(pAssoc) CMap::CAssoc(key);

  000e2	8b 55 ec	 mov	 edx, DWORD PTR _pAssoc$[ebp]
  000e5	52		 push	 edx
  000e6	6a 10		 push	 16			; 00000010H
  000e8	e8 00 00 00 00	 call	 ??2@YAPAXIPAX@Z		; operator new
  000ed	83 c4 08	 add	 esp, 8
  000f0	89 45 d8	 mov	 DWORD PTR $T199823[ebp], eax
  000f3	c7 45 fc 00 00
	00 00		 mov	 DWORD PTR __$EHRec$[ebp+8], 0
  000fa	83 7d d8 00	 cmp	 DWORD PTR $T199823[ebp], 0
  000fe	74 11		 je	 SHORT $L199824
  00100	8b 45 08	 mov	 eax, DWORD PTR _key$[ebp]
  00103	50		 push	 eax
  00104	8b 4d d8	 mov	 ecx, DWORD PTR $T199823[ebp]
  00107	e8 00 00 00 00	 call	 ??0CAssoc@?$CMap@V?$CStringT@DV?$StrTraitMFC_DLL@DV?$ChTraitsCRT@D@ATL@@@@@ATL@@PBDVCPaneBase@ETSLayoutMgr@@V34@@@QAE@PBD@Z ; CMap<ATL::CStringT<char,StrTraitMFC_DLL<char,ATL::ChTraitsCRT<char> > >,char const *,ETSLayoutMgr::CPaneBase,ETSLayoutMgr::CPaneBase>::CAssoc::CAssoc
  0010c	89 45 d0	 mov	 DWORD PTR tv141[ebp], eax
  0010f	eb 07		 jmp	 SHORT $L199825
$L199824:
  00111	c7 45 d0 00 00
	00 00		 mov	 DWORD PTR tv141[ebp], 0
$L199825:
  00118	8b 4d d0	 mov	 ecx, DWORD PTR tv141[ebp]
  0011b	89 4d dc	 mov	 DWORD PTR $T199822[ebp], ecx
  0011e	c7 45 fc ff ff
	ff ff		 mov	 DWORD PTR __$EHRec$[ebp+8], -1

; 1507 : #pragma pop_macro("new")
; 1508 : //	ConstructElements<KEY>(&pAssoc->key, 1);
; 1509 : //	ConstructElements<VALUE>(&pAssoc->value, 1);   // special construct values
; 1510 : 	return pAssoc;

  00125	8b 45 ec	 mov	 eax, DWORD PTR _pAssoc$[ebp]

; 1511 : }

  00128	8b 4d f4	 mov	 ecx, DWORD PTR __$EHRec$[ebp]
  0012b	64 89 0d 00 00
	00 00		 mov	 DWORD PTR fs:__except_list, ecx
  00132	8b e5		 mov	 esp, ebp
  00134	5d		 pop	 ebp
  00135	c2 04 00	 ret	 4
_TEXT	ENDS
;	COMDAT text$x
text$x	SEGMENT
$L199826:
  00000	8b 45 ec	 mov	 eax, DWORD PTR _pAssoc$[ebp]
  00003	50		 push	 eax
  00004	8b 4d d8	 mov	 ecx, DWORD PTR $T199823[ebp]
  00007	51		 push	 ecx
  00008	e8 00 00 00 00	 call	 ??3@YAXPAX0@Z		; operator delete
  0000d	83 c4 08	 add	 esp, 8
  00010	c3		 ret	 0
__ehhandler$?NewAssoc@?$CMap@V?$CStringT@DV?$StrTraitMFC_DLL@DV?$ChTraitsCRT@D@ATL@@@@@ATL@@PBDVCPaneBase@ETSLayoutMgr@@V34@@@IAEPAVCAssoc@1@PBD@Z:
  00011	b8 00 00 00 00	 mov	 eax, OFFSET FLAT:$T199828
  00016	e9 00 00 00 00	 jmp	 ___CxxFrameHandler
text$x	ENDS
?NewAssoc@?$CMap@V?$CStringT@DV?$StrTraitMFC_DLL@DV?$ChTraitsCRT@D@ATL@@@@@ATL@@PBDVCPaneBase@ETSLayoutMgr@@V34@@@IAEPAVCAssoc@1@PBD@Z ENDP ; CMap<ATL::CStringT<char,StrTraitMFC_DLL<char,ATL::ChTraitsCRT<char> > >,char const *,ETSLayoutMgr::CPaneBase,ETSLayoutMgr::CPaneBase>::NewAssoc
; Function compile flags: /Odt
; File d:\program files (x86)\microsoft visual studio .net 2003\vc7\include\new.h
;	COMDAT ??2@YAPAXIPAX@Z
_TEXT	SEGMENT
___formal$ = 8						; size = 4
__P$ = 12						; size = 4
??2@YAPAXIPAX@Z PROC NEAR				; operator new, COMDAT

; 109  :         {return (_P); }

  00000	55		 push	 ebp
  00001	8b ec		 mov	 ebp, esp
  00003	8b 45 0c	 mov	 eax, DWORD PTR __P$[ebp]
  00006	5d		 pop	 ebp
  00007	c3		 ret	 0
??2@YAPAXIPAX@Z ENDP					; operator new
; Function compile flags: /Odt
_TEXT	ENDS
;	COMDAT ??3@YAXPAX0@Z
_TEXT	SEGMENT
___formal$ = 8						; size = 4
___formal$ = 12						; size = 4
??3@YAXPAX0@Z PROC NEAR					; operator delete, COMDAT

; 112  :         {return; }

  00000	55		 push	 ebp
  00001	8b ec		 mov	 ebp, esp
  00003	5d		 pop	 ebp
  00004	c3		 ret	 0
??3@YAXPAX0@Z ENDP					; operator delete
_TEXT	ENDS
PUBLIC	??$CompareElements@V?$CStringT@DV?$StrTraitMFC_DLL@DV?$ChTraitsCRT@D@ATL@@@@@ATL@@PBD@@YGHPBV?$CStringT@DV?$StrTraitMFC_DLL@DV?$ChTraitsCRT@D@ATL@@@@@ATL@@PBQBD@Z ; CompareElements<ATL::CStringT<char,StrTraitMFC_DLL<char,ATL::ChTraitsCRT<char> > >,char const *>
EXTRN	??$HashKey@PBD@@YGIPBD@Z:NEAR			; HashKey<char const *>
; Function compile flags: /Odt
; File d:\program files (x86)\microsoft visual studio .net 2003\vc7\atlmfc\include\afxtempl.h
;	COMDAT ?GetAssocAt@?$CMap@V?$CStringT@DV?$StrTraitMFC_DLL@DV?$ChTraitsCRT@D@ATL@@@@@ATL@@PBDVCPaneBase@ETSLayoutMgr@@V34@@@IBEPAVCAssoc@1@PBDAAI1@Z
_TEXT	SEGMENT
_this$ = -8						; size = 4
_pAssoc$ = -4						; size = 4
_key$ = 8						; size = 4
_nHashBucket$ = 12					; size = 4
_nHashValue$ = 16					; size = 4
?GetAssocAt@?$CMap@V?$CStringT@DV?$StrTraitMFC_DLL@DV?$ChTraitsCRT@D@ATL@@@@@ATL@@PBDVCPaneBase@ETSLayoutMgr@@V34@@@IBEPAVCAssoc@1@PBDAAI1@Z PROC NEAR ; CMap<ATL::CStringT<char,StrTraitMFC_DLL<char,ATL::ChTraitsCRT<char> > >,char const *,ETSLayoutMgr::CPaneBase,ETSLayoutMgr::CPaneBase>::GetAssocAt, COMDAT
; _this$ = ecx

; 1533 : {

  00000	55		 push	 ebp
  00001	8b ec		 mov	 ebp, esp
  00003	83 ec 08	 sub	 esp, 8
  00006	89 4d f8	 mov	 DWORD PTR _this$[ebp], ecx

; 1534 : 	nHashValue = HashKey<ARG_KEY>(key);

  00009	8b 45 08	 mov	 eax, DWORD PTR _key$[ebp]
  0000c	50		 push	 eax
  0000d	e8 00 00 00 00	 call	 ??$HashKey@PBD@@YGIPBD@Z ; HashKey<char const *>
  00012	8b 4d 10	 mov	 ecx, DWORD PTR _nHashValue$[ebp]
  00015	89 01		 mov	 DWORD PTR [ecx], eax

; 1535 : 	nHashBucket = nHashValue % m_nHashTableSize;

  00017	8b 55 10	 mov	 edx, DWORD PTR _nHashValue$[ebp]
  0001a	8b 4d f8	 mov	 ecx, DWORD PTR _this$[ebp]
  0001d	8b 02		 mov	 eax, DWORD PTR [edx]
  0001f	33 d2		 xor	 edx, edx
  00021	f7 71 08	 div	 DWORD PTR [ecx+8]
  00024	8b 45 0c	 mov	 eax, DWORD PTR _nHashBucket$[ebp]
  00027	89 10		 mov	 DWORD PTR [eax], edx

; 1536 : 
; 1537 : 	if (m_pHashTable == NULL)

  00029	8b 4d f8	 mov	 ecx, DWORD PTR _this$[ebp]
  0002c	83 79 04 00	 cmp	 DWORD PTR [ecx+4], 0
  00030	75 04		 jne	 SHORT $L199227

; 1538 : 		return NULL;

  00032	33 c0		 xor	 eax, eax
  00034	eb 49		 jmp	 SHORT $L199226
$L199227:

; 1539 : 
; 1540 : 	// see if it exists
; 1541 : 	CAssoc* pAssoc;
; 1542 : 	for (pAssoc = m_pHashTable[nHashBucket]; pAssoc != NULL; pAssoc = pAssoc->pNext)

  00036	8b 55 0c	 mov	 edx, DWORD PTR _nHashBucket$[ebp]
  00039	8b 02		 mov	 eax, DWORD PTR [edx]
  0003b	8b 4d f8	 mov	 ecx, DWORD PTR _this$[ebp]
  0003e	8b 51 04	 mov	 edx, DWORD PTR [ecx+4]
  00041	8b 04 82	 mov	 eax, DWORD PTR [edx+eax*4]
  00044	89 45 fc	 mov	 DWORD PTR _pAssoc$[ebp], eax
  00047	eb 09		 jmp	 SHORT $L199229
$L199230:
  00049	8b 4d fc	 mov	 ecx, DWORD PTR _pAssoc$[ebp]
  0004c	8b 51 08	 mov	 edx, DWORD PTR [ecx+8]
  0004f	89 55 fc	 mov	 DWORD PTR _pAssoc$[ebp], edx
$L199229:
  00052	83 7d fc 00	 cmp	 DWORD PTR _pAssoc$[ebp], 0
  00056	74 25		 je	 SHORT $L199231

; 1543 : 	{
; 1544 : 		if (pAssoc->nHashValue == nHashValue && CompareElements(&pAssoc->key, &key))

  00058	8b 45 fc	 mov	 eax, DWORD PTR _pAssoc$[ebp]
  0005b	8b 4d 10	 mov	 ecx, DWORD PTR _nHashValue$[ebp]
  0005e	8b 50 0c	 mov	 edx, DWORD PTR [eax+12]
  00061	3b 11		 cmp	 edx, DWORD PTR [ecx]
  00063	75 16		 jne	 SHORT $L199238
  00065	8d 45 08	 lea	 eax, DWORD PTR _key$[ebp]
  00068	50		 push	 eax
  00069	8b 4d fc	 mov	 ecx, DWORD PTR _pAssoc$[ebp]
  0006c	51		 push	 ecx
  0006d	e8 00 00 00 00	 call	 ??$CompareElements@V?$CStringT@DV?$StrTraitMFC_DLL@DV?$ChTraitsCRT@D@ATL@@@@@ATL@@PBD@@YGHPBV?$CStringT@DV?$StrTraitMFC_DLL@DV?$ChTraitsCRT@D@ATL@@@@@ATL@@PBQBD@Z ; CompareElements<ATL::CStringT<char,StrTraitMFC_DLL<char,ATL::ChTraitsCRT<char> > >,char const *>
  00072	85 c0		 test	 eax, eax
  00074	74 05		 je	 SHORT $L199238

; 1545 : 			return pAssoc;

  00076	8b 45 fc	 mov	 eax, DWORD PTR _pAssoc$[ebp]
  00079	eb 04		 jmp	 SHORT $L199226
$L199238:

; 1546 : 	}

  0007b	eb cc		 jmp	 SHORT $L199230
$L199231:

; 1547 : 	return NULL;

  0007d	33 c0		 xor	 eax, eax
$L199226:

; 1548 : }

  0007f	8b e5		 mov	 esp, ebp
  00081	5d		 pop	 ebp
  00082	c2 0c 00	 ret	 12			; 0000000cH
?GetAssocAt@?$CMap@V?$CStringT@DV?$StrTraitMFC_DLL@DV?$ChTraitsCRT@D@ATL@@@@@ATL@@PBDVCPaneBase@ETSLayoutMgr@@V34@@@IBEPAVCAssoc@1@PBDAAI1@Z ENDP ; CMap<ATL::CStringT<char,StrTraitMFC_DLL<char,ATL::ChTraitsCRT<char> > >,char const *,ETSLayoutMgr::CPaneBase,ETSLayoutMgr::CPaneBase>::GetAssocAt
_TEXT	ENDS
PUBLIC	??0CPair@?$CMap@V?$CStringT@DV?$StrTraitMFC_DLL@DV?$ChTraitsCRT@D@ATL@@@@@ATL@@PBDVCPaneBase@ETSLayoutMgr@@V34@@@IAE@PBD@Z ; CMap<ATL::CStringT<char,StrTraitMFC_DLL<char,ATL::ChTraitsCRT<char> > >,char const *,ETSLayoutMgr::CPaneBase,ETSLayoutMgr::CPaneBase>::CPair::CPair
; Function compile flags: /Odt
;	COMDAT ??0CAssoc@?$CMap@V?$CStringT@DV?$StrTraitMFC_DLL@DV?$ChTraitsCRT@D@ATL@@@@@ATL@@PBDVCPaneBase@ETSLayoutMgr@@V34@@@QAE@PBD@Z
_TEXT	SEGMENT
_this$ = -4						; size = 4
_key$ = 8						; size = 4
??0CAssoc@?$CMap@V?$CStringT@DV?$StrTraitMFC_DLL@DV?$ChTraitsCRT@D@ATL@@@@@ATL@@PBDVCPaneBase@ETSLayoutMgr@@V34@@@QAE@PBD@Z PROC NEAR ; CMap<ATL::CStringT<char,StrTraitMFC_DLL<char,ATL::ChTraitsCRT<char> > >,char const *,ETSLayoutMgr::CPaneBase,ETSLayoutMgr::CPaneBase>::CAssoc::CAssoc, COMDAT
; _this$ = ecx

; 1263 : 		CAssoc( ARG_KEY key ) : CPair( key ) {}

  00000	55		 push	 ebp
  00001	8b ec		 mov	 ebp, esp
  00003	51		 push	 ecx
  00004	89 4d fc	 mov	 DWORD PTR _this$[ebp], ecx
  00007	8b 45 08	 mov	 eax, DWORD PTR _key$[ebp]
  0000a	50		 push	 eax
  0000b	8b 4d fc	 mov	 ecx, DWORD PTR _this$[ebp]
  0000e	e8 00 00 00 00	 call	 ??0CPair@?$CMap@V?$CStringT@DV?$StrTraitMFC_DLL@DV?$ChTraitsCRT@D@ATL@@@@@ATL@@PBDVCPaneBase@ETSLayoutMgr@@V34@@@IAE@PBD@Z ; CMap<ATL::CStringT<char,StrTraitMFC_DLL<char,ATL::ChTraitsCRT<char> > >,char const *,ETSLayoutMgr::CPaneBase,ETSLayoutMgr::CPaneBase>::CPair::CPair
  00013	8b 45 fc	 mov	 eax, DWORD PTR _this$[ebp]
  00016	8b e5		 mov	 esp, ebp
  00018	5d		 pop	 ebp
  00019	c2 04 00	 ret	 4
??0CAssoc@?$CMap@V?$CStringT@DV?$StrTraitMFC_DLL@DV?$ChTraitsCRT@D@ATL@@@@@ATL@@PBDVCPaneBase@ETSLayoutMgr@@V34@@@QAE@PBD@Z ENDP ; CMap<ATL::CStringT<char,StrTraitMFC_DLL<char,ATL::ChTraitsCRT<char> > >,char const *,ETSLayoutMgr::CPaneBase,ETSLayoutMgr::CPaneBase>::CAssoc::CAssoc
_TEXT	ENDS
EXTRN	__imp_??0?$CStringT@DV?$StrTraitMFC_DLL@DV?$ChTraitsCRT@D@ATL@@@@@ATL@@QAE@PBD@Z:NEAR
;	COMDAT xdata$x
xdata$x	SEGMENT
$T199849 DD	0ffffffffH
	DD	FLAT:$L199844
$T199847 DD	019930520H
	DD	01H
	DD	FLAT:$T199849
	DD	2 DUP(00H)
	DD	2 DUP(00H)
; Function compile flags: /Odt
xdata$x	ENDS
;	COMDAT ??0CPair@?$CMap@V?$CStringT@DV?$StrTraitMFC_DLL@DV?$ChTraitsCRT@D@ATL@@@@@ATL@@PBDVCPaneBase@ETSLayoutMgr@@V34@@@IAE@PBD@Z
_TEXT	SEGMENT
_this$ = -16						; size = 4
__$EHRec$ = -12						; size = 12
_keyval$ = 8						; size = 4
??0CPair@?$CMap@V?$CStringT@DV?$StrTraitMFC_DLL@DV?$ChTraitsCRT@D@ATL@@@@@ATL@@PBDVCPaneBase@ETSLayoutMgr@@V34@@@IAE@PBD@Z PROC NEAR ; CMap<ATL::CStringT<char,StrTraitMFC_DLL<char,ATL::ChTraitsCRT<char> > >,char const *,ETSLayoutMgr::CPaneBase,ETSLayoutMgr::CPaneBase>::CPair::CPair, COMDAT
; _this$ = ecx

; 1252 : 		CPair( ARG_KEY keyval ) : key( keyval )	{}

  00000	55		 push	 ebp
  00001	8b ec		 mov	 ebp, esp
  00003	6a ff		 push	 -1
  00005	68 00 00 00 00	 push	 __ehhandler$??0CPair@?$CMap@V?$CStringT@DV?$StrTraitMFC_DLL@DV?$ChTraitsCRT@D@ATL@@@@@ATL@@PBDVCPaneBase@ETSLayoutMgr@@V34@@@IAE@PBD@Z
  0000a	64 a1 00 00 00
	00		 mov	 eax, DWORD PTR fs:__except_list
  00010	50		 push	 eax
  00011	64 89 25 00 00
	00 00		 mov	 DWORD PTR fs:__except_list, esp
  00018	51		 push	 ecx
  00019	89 4d f0	 mov	 DWORD PTR _this$[ebp], ecx
  0001c	8b 45 08	 mov	 eax, DWORD PTR _keyval$[ebp]
  0001f	50		 push	 eax
  00020	8b 4d f0	 mov	 ecx, DWORD PTR _this$[ebp]
  00023	ff 15 00 00 00
	00		 call	 DWORD PTR __imp_??0?$CStringT@DV?$StrTraitMFC_DLL@DV?$ChTraitsCRT@D@ATL@@@@@ATL@@QAE@PBD@Z
  00029	c7 45 fc 00 00
	00 00		 mov	 DWORD PTR __$EHRec$[ebp+8], 0
  00030	8b 4d f0	 mov	 ecx, DWORD PTR _this$[ebp]
  00033	83 c1 04	 add	 ecx, 4
  00036	e8 00 00 00 00	 call	 ??0CPaneBase@ETSLayoutMgr@@QAE@XZ ; ETSLayoutMgr::CPaneBase::CPaneBase
  0003b	c7 45 fc ff ff
	ff ff		 mov	 DWORD PTR __$EHRec$[ebp+8], -1
  00042	8b 45 f0	 mov	 eax, DWORD PTR _this$[ebp]
  00045	8b 4d f4	 mov	 ecx, DWORD PTR __$EHRec$[ebp]
  00048	64 89 0d 00 00
	00 00		 mov	 DWORD PTR fs:__except_list, ecx
  0004f	8b e5		 mov	 esp, ebp
  00051	5d		 pop	 ebp
  00052	c2 04 00	 ret	 4
_TEXT	ENDS
;	COMDAT text$x
text$x	SEGMENT
$L199844:
  00000	8b 4d f0	 mov	 ecx, DWORD PTR _this$[ebp]
  00003	ff 25 00 00 00
	00		 jmp	 DWORD PTR __imp_??1?$CStringT@DV?$StrTraitMFC_DLL@DV?$ChTraitsCRT@D@ATL@@@@@ATL@@QAE@XZ
__ehhandler$??0CPair@?$CMap@V?$CStringT@DV?$StrTraitMFC_DLL@DV?$ChTraitsCRT@D@ATL@@@@@ATL@@PBDVCPaneBase@ETSLayoutMgr@@V34@@@IAE@PBD@Z:
  00009	b8 00 00 00 00	 mov	 eax, OFFSET FLAT:$T199847
  0000e	e9 00 00 00 00	 jmp	 ___CxxFrameHandler
text$x	ENDS
??0CPair@?$CMap@V?$CStringT@DV?$StrTraitMFC_DLL@DV?$ChTraitsCRT@D@ATL@@@@@ATL@@PBDVCPaneBase@ETSLayoutMgr@@V34@@@IAE@PBD@Z ENDP ; CMap<ATL::CStringT<char,StrTraitMFC_DLL<char,ATL::ChTraitsCRT<char> > >,char const *,ETSLayoutMgr::CPaneBase,ETSLayoutMgr::CPaneBase>::CPair::CPair
PUBLIC	??8ATL@@YA_NABV?$CStringT@DV?$StrTraitMFC_DLL@DV?$ChTraitsCRT@D@ATL@@@@@0@PBD@Z ; ATL::operator==
; Function compile flags: /Odt
;	COMDAT ??$CompareElements@V?$CStringT@DV?$StrTraitMFC_DLL@DV?$ChTraitsCRT@D@ATL@@@@@ATL@@PBD@@YGHPBV?$CStringT@DV?$StrTraitMFC_DLL@DV?$ChTraitsCRT@D@ATL@@@@@ATL@@PBQBD@Z
_TEXT	SEGMENT
_pElement1$ = 8						; size = 4
_pElement2$ = 12					; size = 4
??$CompareElements@V?$CStringT@DV?$StrTraitMFC_DLL@DV?$ChTraitsCRT@D@ATL@@@@@ATL@@PBD@@YGHPBV?$CStringT@DV?$StrTraitMFC_DLL@DV?$ChTraitsCRT@D@ATL@@@@@ATL@@PBQBD@Z PROC NEAR ; CompareElements<ATL::CStringT<char,StrTraitMFC_DLL<char,ATL::ChTraitsCRT<char> > >,char const *>, COMDAT

; 150  : {

  00000	55		 push	 ebp
  00001	8b ec		 mov	 ebp, esp

; 151  : 	ASSERT(AfxIsValidAddress(pElement1, sizeof(TYPE), FALSE));
; 152  : 	ASSERT(AfxIsValidAddress(pElement2, sizeof(ARG_TYPE), FALSE));
; 153  : 
; 154  : 	return *pElement1 == *pElement2;

  00003	8b 45 0c	 mov	 eax, DWORD PTR _pElement2$[ebp]
  00006	8b 08		 mov	 ecx, DWORD PTR [eax]
  00008	51		 push	 ecx
  00009	8b 55 08	 mov	 edx, DWORD PTR _pElement1$[ebp]
  0000c	52		 push	 edx
  0000d	e8 00 00 00 00	 call	 ??8ATL@@YA_NABV?$CStringT@DV?$StrTraitMFC_DLL@DV?$ChTraitsCRT@D@ATL@@@@@0@PBD@Z ; ATL::operator==
  00012	83 c4 08	 add	 esp, 8
  00015	0f b6 c0	 movzx	 eax, al

; 155  : }

  00018	5d		 pop	 ebp
  00019	c2 08 00	 ret	 8
??$CompareElements@V?$CStringT@DV?$StrTraitMFC_DLL@DV?$ChTraitsCRT@D@ATL@@@@@ATL@@PBD@@YGHPBV?$CStringT@DV?$StrTraitMFC_DLL@DV?$ChTraitsCRT@D@ATL@@@@@ATL@@PBQBD@Z ENDP ; CompareElements<ATL::CStringT<char,StrTraitMFC_DLL<char,ATL::ChTraitsCRT<char> > >,char const *>
_TEXT	ENDS
EXTRN	__imp_?Compare@?$CStringT@DV?$StrTraitMFC_DLL@DV?$ChTraitsCRT@D@ATL@@@@@ATL@@QBEHPBD@Z:NEAR
; Function compile flags: /Odt
; File d:\program files (x86)\microsoft visual studio .net 2003\vc7\atlmfc\include\cstringt.h
;	COMDAT ??8ATL@@YA_NABV?$CStringT@DV?$StrTraitMFC_DLL@DV?$ChTraitsCRT@D@ATL@@@@@0@PBD@Z
_TEXT	SEGMENT
_str1$ = 8						; size = 4
_psz2$ = 12						; size = 4
??8ATL@@YA_NABV?$CStringT@DV?$StrTraitMFC_DLL@DV?$ChTraitsCRT@D@ATL@@@@@0@PBD@Z PROC NEAR ; ATL::operator==, COMDAT

; 2087 : 	{

  00000	55		 push	 ebp
  00001	8b ec		 mov	 ebp, esp

; 2088 : 		return( str1.Compare( psz2 ) == 0 );

  00003	8b 45 0c	 mov	 eax, DWORD PTR _psz2$[ebp]
  00006	50		 push	 eax
  00007	8b 4d 08	 mov	 ecx, DWORD PTR _str1$[ebp]
  0000a	ff 15 00 00 00
	00		 call	 DWORD PTR __imp_?Compare@?$CStringT@DV?$StrTraitMFC_DLL@DV?$ChTraitsCRT@D@ATL@@@@@ATL@@QBEHPBD@Z
  00010	f7 d8		 neg	 eax
  00012	1b c0		 sbb	 eax, eax
  00014	40		 inc	 eax

; 2089 : 	}

  00015	5d		 pop	 ebp
  00016	c3		 ret	 0
??8ATL@@YA_NABV?$CStringT@DV?$StrTraitMFC_DLL@DV?$ChTraitsCRT@D@ATL@@@@@0@PBD@Z ENDP ; ATL::operator==
; Function compile flags: /Odt
; File d:\program files (x86)\microsoft visual studio .net 2003\vc7\atlmfc\include\afx.inl
_TEXT	ENDS
;	COMDAT ??0CObject@@IAE@XZ
_TEXT	SEGMENT
_this$ = -4						; size = 4
??0CObject@@IAE@XZ PROC NEAR				; CObject::CObject, COMDAT
; _this$ = ecx

; 21   : 	{ }

  00000	55		 push	 ebp
  00001	8b ec		 mov	 ebp, esp
  00003	51		 push	 ecx
  00004	89 4d fc	 mov	 DWORD PTR _this$[ebp], ecx
  00007	8b 45 fc	 mov	 eax, DWORD PTR _this$[ebp]
  0000a	8b e5		 mov	 esp, ebp
  0000c	5d		 pop	 ebp
  0000d	c3		 ret	 0
??0CObject@@IAE@XZ ENDP					; CObject::CObject
; Function compile flags: /Odt
_TEXT	ENDS
;	COMDAT ??1CObject@@UAE@XZ
_TEXT	SEGMENT
_this$ = -4						; size = 4
??1CObject@@UAE@XZ PROC NEAR				; CObject::~CObject, COMDAT
; _this$ = ecx

; 23   : 	{ }

  00000	55		 push	 ebp
  00001	8b ec		 mov	 ebp, esp
  00003	51		 push	 ecx
  00004	89 4d fc	 mov	 DWORD PTR _this$[ebp], ecx
  00007	8b e5		 mov	 esp, ebp
  00009	5d		 pop	 ebp
  0000a	c3		 ret	 0
??1CObject@@UAE@XZ ENDP					; CObject::~CObject
; Function compile flags: /Odt
_TEXT	ENDS
;	COMDAT ?Serialize@CObject@@UAEXAAVCArchive@@@Z
_TEXT	SEGMENT
_this$ = -4						; size = 4
___formal$ = 8						; size = 4
?Serialize@CObject@@UAEXAAVCArchive@@@Z PROC NEAR	; CObject::Serialize, COMDAT
; _this$ = ecx

; 25   : 	{ /* CObject does not serialize anything by default */ }

  00000	55		 push	 ebp
  00001	8b ec		 mov	 ebp, esp
  00003	51		 push	 ecx
  00004	89 4d fc	 mov	 DWORD PTR _this$[ebp], ecx
  00007	8b e5		 mov	 esp, ebp
  00009	5d		 pop	 ebp
  0000a	c2 04 00	 ret	 4
?Serialize@CObject@@UAEXAAVCArchive@@@Z ENDP		; CObject::Serialize
; Function compile flags: /Odt
_TEXT	ENDS
;	COMDAT ??3CObject@@SGXPAX@Z
_TEXT	SEGMENT
_p$ = 8							; size = 4
??3CObject@@SGXPAX@Z PROC NEAR				; CObject::operator delete, COMDAT

; 31   : 	{ ::operator delete(p); }

  00000	55		 push	 ebp
  00001	8b ec		 mov	 ebp, esp
  00003	8b 45 08	 mov	 eax, DWORD PTR _p$[ebp]
  00006	50		 push	 eax
  00007	e8 00 00 00 00	 call	 ??3@YAXPAX@Z		; operator delete
  0000c	83 c4 04	 add	 esp, 4
  0000f	5d		 pop	 ebp
  00010	c2 04 00	 ret	 4
??3CObject@@SGXPAX@Z ENDP				; CObject::operator delete
; Function compile flags: /Odt
_TEXT	ENDS
;	COMDAT ?AssertValid@CObject@@UBEXXZ
_TEXT	SEGMENT
_this$ = -4						; size = 4
?AssertValid@CObject@@UBEXXZ PROC NEAR			; CObject::AssertValid, COMDAT
; _this$ = ecx

; 41   : 	{ /* no asserts in release builds */ }

  00000	55		 push	 ebp
  00001	8b ec		 mov	 ebp, esp
  00003	51		 push	 ecx
  00004	89 4d fc	 mov	 DWORD PTR _this$[ebp], ecx
  00007	8b e5		 mov	 esp, ebp
  00009	5d		 pop	 ebp
  0000a	c3		 ret	 0
?AssertValid@CObject@@UBEXXZ ENDP			; CObject::AssertValid
; Function compile flags: /Odt
_TEXT	ENDS
;	COMDAT ?Dump@CObject@@UBEXAAVCDumpContext@@@Z
_TEXT	SEGMENT
_this$ = -4						; size = 4
___formal$ = 8						; size = 4
?Dump@CObject@@UBEXAAVCDumpContext@@@Z PROC NEAR	; CObject::Dump, COMDAT
; _this$ = ecx

; 43   : 	{ /* no dumping in release builds */ }

  00000	55		 push	 ebp
  00001	8b ec		 mov	 ebp, esp
  00003	51		 push	 ecx
  00004	89 4d fc	 mov	 DWORD PTR _this$[ebp], ecx
  00007	8b e5		 mov	 esp, ebp
  00009	5d		 pop	 ebp
  0000a	c2 04 00	 ret	 4
?Dump@CObject@@UBEXAAVCDumpContext@@@Z ENDP		; CObject::Dump
; Function compile flags: /Odt
_TEXT	ENDS
;	COMDAT ?IsStoring@CArchive@@QBEHXZ
_TEXT	SEGMENT
_this$ = -4						; size = 4
?IsStoring@CArchive@@QBEHXZ PROC NEAR			; CArchive::IsStoring, COMDAT
; _this$ = ecx

; 133  : 	{ return (m_nMode & CArchive::load) == 0; }

  00000	55		 push	 ebp
  00001	8b ec		 mov	 ebp, esp
  00003	51		 push	 ecx
  00004	89 4d fc	 mov	 DWORD PTR _this$[ebp], ecx
  00007	8b 45 fc	 mov	 eax, DWORD PTR _this$[ebp]
  0000a	8b 40 18	 mov	 eax, DWORD PTR [eax+24]
  0000d	83 e0 01	 and	 eax, 1
  00010	f7 d8		 neg	 eax
  00012	1b c0		 sbb	 eax, eax
  00014	40		 inc	 eax
  00015	8b e5		 mov	 esp, ebp
  00017	5d		 pop	 ebp
  00018	c3		 ret	 0
?IsStoring@CArchive@@QBEHXZ ENDP			; CArchive::IsStoring
; Function compile flags: /Odt
; File d:\program files (x86)\microsoft visual studio .net 2003\vc7\atlmfc\include\afxplex_.h
_TEXT	ENDS
;	COMDAT ?data@CPlex@@QAEPAXXZ
text$AFX_COL1	SEGMENT
_this$ = -4						; size = 4
?data@CPlex@@QAEPAXXZ PROC NEAR				; CPlex::data, COMDAT
; _this$ = ecx

; 40   : 	void* data() { return this+1; }

  00000	55		 push	 ebp
  00001	8b ec		 mov	 ebp, esp
  00003	51		 push	 ecx
  00004	89 4d fc	 mov	 DWORD PTR _this$[ebp], ecx
  00007	8b 45 fc	 mov	 eax, DWORD PTR _this$[ebp]
  0000a	83 c0 04	 add	 eax, 4
  0000d	8b e5		 mov	 esp, ebp
  0000f	5d		 pop	 ebp
  00010	c3		 ret	 0
?data@CPlex@@QAEPAXXZ ENDP				; CPlex::data
text$AFX_COL1	ENDS
END
