; Listing generated by Microsoft (R) Optimizing Compiler Version 13.10.3077 

	TITLE	.\src\LayoutMgr\ETSSplitter.cpp
	.386P
include listing.inc
if @Version gt 510
.model FLAT
else
_TEXT	SEGMENT PARA USE32 PUBLIC 'CODE'
_TEXT	ENDS
_DATA	SEGMENT DWORD USE32 PUBLIC 'DATA'
_DATA	ENDS
CONST	SEGMENT DWORD USE32 PUBLIC 'CONST'
CONST	ENDS
_BSS	SEGMENT DWORD USE32 PUBLIC 'BSS'
_BSS	ENDS
$$SYMBOLS	SEGMENT BYTE USE32 'DEBSYM'
$$SYMBOLS	ENDS
$$TYPES	SEGMENT BYTE USE32 'DEBTYP'
$$TYPES	ENDS
_TLS	SEGMENT DWORD USE32 PUBLIC 'TLS'
_TLS	ENDS
;	COMDAT ??_C@_02PGHGPEOM@?91?$AA@
CONST	SEGMENT DWORD USE32 PUBLIC 'CONST'
CONST	ENDS
;	COMDAT ??_C@_04JAADICNI@?5?$DN?1?$FL?$AA@
CONST	SEGMENT DWORD USE32 PUBLIC 'CONST'
CONST	ENDS
;	COMDAT ??_C@_0L@GJIJNDEK@ISO?98859?91?$AA@
CONST	SEGMENT DWORD USE32 PUBLIC 'CONST'
CONST	ENDS
;	COMDAT ??_C@_01JLIPDDHJ@?3?$AA@
CONST	SEGMENT DWORD USE32 PUBLIC 'CONST'
CONST	ENDS
;	COMDAT ??_C@_04LJDDIHIK@?4bmp?$AA@
CONST	SEGMENT DWORD USE32 PUBLIC 'CONST'
CONST	ENDS
;	COMDAT ??_C@_0BE@JONHPENG@map?1set?$DMT?$DO?5too?5long?$AA@
CONST	SEGMENT DWORD USE32 PUBLIC 'CONST'
CONST	ENDS
rdata$r	SEGMENT DWORD USE32 PUBLIC 'CONST'
rdata$r	ENDS
xdata$x	SEGMENT DWORD USE32 PUBLIC 'CONST'
xdata$x	ENDS
text$AFX_COL1	SEGMENT PARA USE32 PUBLIC ''
text$AFX_COL1	ENDS
text$yc	SEGMENT PARA USE32 PUBLIC 'CODE'
text$yc	ENDS
CRT$XCA	SEGMENT DWORD USE32 PUBLIC 'DATA'
CRT$XCA	ENDS
CRT$XCU	SEGMENT DWORD USE32 PUBLIC 'DATA'
CRT$XCU	ENDS
CRT$XCL	SEGMENT DWORD USE32 PUBLIC 'DATA'
CRT$XCL	ENDS
CRT$XCC	SEGMENT DWORD USE32 PUBLIC 'DATA'
CRT$XCC	ENDS
CRT$XCZ	SEGMENT DWORD USE32 PUBLIC 'DATA'
CRT$XCZ	ENDS
text$yd	SEGMENT PARA USE32 PUBLIC 'CODE'
text$yd	ENDS
ATL$__m	SEGMENT DWORD USE32 PUBLIC ''
ATL$__m	ENDS
ATL$__z	SEGMENT DWORD USE32 PUBLIC ''
ATL$__z	ENDS
ATL$__a	SEGMENT DWORD USE32 PUBLIC ''
ATL$__a	ENDS
;	COMDAT ?GetSubPane@PaneBase@ETSLayoutMgr@@UAE?AVCPaneBase@2@V?$CStringT@DV?$StrTraitMFC_DLL@DV?$ChTraitsCRT@D@ATL@@@@@ATL@@@Z
_TEXT	SEGMENT PARA USE32 PUBLIC 'CODE'
_TEXT	ENDS
;	COMDAT ??1PaneBase@ETSLayoutMgr@@UAE@XZ
_TEXT	SEGMENT PARA USE32 PUBLIC 'CODE'
_TEXT	ENDS
;	COMDAT ?SetClosed@PaneBase@ETSLayoutMgr@@QAEXH@Z
_TEXT	SEGMENT PARA USE32 PUBLIC 'CODE'
_TEXT	ENDS
;	COMDAT ?showPane@PaneBase@ETSLayoutMgr@@UAEX_N@Z
_TEXT	SEGMENT PARA USE32 PUBLIC 'CODE'
_TEXT	ENDS
;	COMDAT ?IsValid@CPaneBase@ETSLayoutMgr@@QAE_NXZ
_TEXT	SEGMENT PARA USE32 PUBLIC 'CODE'
_TEXT	ENDS
;	COMDAT ?GetRect@ETSLayoutMgr@@UAE?AVCRect@@XZ
_TEXT	SEGMENT PARA USE32 PUBLIC 'CODE'
_TEXT	ENDS
;	COMDAT ?UpdateLayout@ETSLayoutMgr@@UAEXVCPane@1@@Z
_TEXT	SEGMENT PARA USE32 PUBLIC 'CODE'
_TEXT	ENDS
;	COMDAT ??_GPaneBase@ETSLayoutMgr@@UAEPAXI@Z
_TEXT	SEGMENT PARA USE32 PUBLIC 'CODE'
_TEXT	ENDS
;	COMDAT ??_GETSLayoutMgr@@UAEPAXI@Z
_TEXT	SEGMENT PARA USE32 PUBLIC 'CODE'
_TEXT	ENDS
;	COMDAT ??0CMarkup@@QAE@XZ
_TEXT	SEGMENT PARA USE32 PUBLIC 'CODE'
_TEXT	ENDS
;	COMDAT ??1CMarkup@@UAE@XZ
_TEXT	SEGMENT PARA USE32 PUBLIC 'CODE'
_TEXT	ENDS
;	COMDAT ?AddElem@CMarkup@@QAE_NPBD0@Z
_TEXT	SEGMENT PARA USE32 PUBLIC 'CODE'
_TEXT	ENDS
;	COMDAT ?AddChildElem@CMarkup@@QAE_NPBD0@Z
_TEXT	SEGMENT PARA USE32 PUBLIC 'CODE'
_TEXT	ENDS
;	COMDAT ??0ElemPos@CMarkup@@QAE@XZ
_TEXT	SEGMENT PARA USE32 PUBLIC 'CODE'
_TEXT	ENDS
;	COMDAT ?Clear@ElemPos@CMarkup@@QAEXXZ
_TEXT	SEGMENT PARA USE32 PUBLIC 'CODE'
_TEXT	ENDS
;	COMDAT ?Clear@TokenPos@CMarkup@@QAEXXZ
_TEXT	SEGMENT PARA USE32 PUBLIC 'CODE'
_TEXT	ENDS
;	COMDAT ?x_SetPos@CMarkup@@IAEXHHH@Z
_TEXT	SEGMENT PARA USE32 PUBLIC 'CODE'
_TEXT	ENDS
;	COMDAT ??_GCMarkup@@UAEPAXI@Z
_TEXT	SEGMENT PARA USE32 PUBLIC 'CODE'
_TEXT	ENDS
;	COMDAT ?AddElem@CMarkupArchive@@UAE_NPBD0@Z
_TEXT	SEGMENT PARA USE32 PUBLIC 'CODE'
_TEXT	ENDS
;	COMDAT ?AddChildElem@CMarkupArchive@@UAE_NPBD0@Z
_TEXT	SEGMENT PARA USE32 PUBLIC 'CODE'
_TEXT	ENDS
;	COMDAT ?FindElem@CMarkupArchive@@UAE_NPBD@Z
_TEXT	SEGMENT PARA USE32 PUBLIC 'CODE'
_TEXT	ENDS
;	COMDAT ?FindChildElem@CMarkupArchive@@UAE_NPBD@Z
_TEXT	SEGMENT PARA USE32 PUBLIC 'CODE'
_TEXT	ENDS
;	COMDAT ??_GCMarkupArchive@@UAEPAXI@Z
_TEXT	SEGMENT PARA USE32 PUBLIC 'CODE'
_TEXT	ENDS
;	COMDAT ??1?$pair@$$CBV?$CStringT@DV?$StrTraitMFC_DLL@DV?$ChTraitsCRT@D@ATL@@@@@ATL@@PAVCDibBitmap@@@std@@QAE@XZ
_TEXT	SEGMENT PARA USE32 PUBLIC 'CODE'
_TEXT	ENDS
;	COMDAT ??_GETSSplitter@@UAEPAXI@Z
_TEXT	SEGMENT PARA USE32 PUBLIC 'CODE'
_TEXT	ENDS
;	COMDAT ??HATL@@YA?AV?$CStringT@DV?$StrTraitMFC_DLL@DV?$ChTraitsCRT@D@ATL@@@@@0@ABV10@0@Z
_TEXT	SEGMENT PARA USE32 PUBLIC 'CODE'
_TEXT	ENDS
;	COMDAT ??HATL@@YA?AV?$CStringT@DV?$StrTraitMFC_DLL@DV?$ChTraitsCRT@D@ATL@@@@@0@ABV10@PBD@Z
_TEXT	SEGMENT PARA USE32 PUBLIC 'CODE'
_TEXT	ENDS
;	COMDAT ??B?$CComPtrBase@UITypeInfo2@@@ATL@@QBEPAUITypeInfo2@@XZ
_TEXT	SEGMENT PARA USE32 PUBLIC 'CODE'
_TEXT	ENDS
;	COMDAT ?equal@?$istreambuf_iterator@DU?$char_traits@D@std@@@std@@QBE_NABV12@@Z
_TEXT	SEGMENT PARA USE32 PUBLIC 'CODE'
_TEXT	ENDS
;	COMDAT ?equal@?$istreambuf_iterator@_WU?$char_traits@_W@std@@@std@@QBE_NABV12@@Z
_TEXT	SEGMENT PARA USE32 PUBLIC 'CODE'
_TEXT	ENDS
;	COMDAT ?insert@?$_Tree@V?$_Tmap_traits@V?$CStringT@DV?$StrTraitMFC_DLL@DV?$ChTraitsCRT@D@ATL@@@@@ATL@@PAVCDibBitmap@@U?$less@V?$CStringT@DV?$StrTraitMFC_DLL@DV?$ChTraitsCRT@D@ATL@@@@@ATL@@@std@@V?$allocator@U?$pair@$$CBV?$CStringT@DV?$StrTraitMFC_DLL@DV?$ChTraitsCRT@D@ATL@@@@@ATL@@PAVCDibBitmap@@@std@@@5@$0A@@std@@@std@@QAE?AU?$pair@Viterator@?$_Tree@V?$_Tmap_traits@V?$CStringT@DV?$StrTraitMFC_DLL@DV?$ChTraitsCRT@D@ATL@@@@@ATL@@PAVCDibBitmap@@U?$less@V?$CStringT@DV?$StrTraitMFC_DLL@DV?$ChTraitsCRT@D@ATL@@@@@ATL@@@std@@V?$allocator@U?$pair@$$CBV?$CStringT@DV?$StrTraitMFC_DLL@DV?$ChTraitsCRT@D@ATL@@@@@ATL@@PAVCDibBitmap@@@std@@@5@$0A@@std@@@std@@_N@2@ABU?$pair@$$CBV?$CStringT@DV?$StrTraitMFC_DLL@DV?$ChTraitsCRT@D@ATL@@@@@ATL@@PAVCDibBitmap@@@2@@Z
_TEXT	SEGMENT PARA USE32 PUBLIC 'CODE'
_TEXT	ENDS
;	COMDAT ??0?$pair@$$CBV?$CStringT@DV?$StrTraitMFC_DLL@DV?$ChTraitsCRT@D@ATL@@@@@ATL@@PAVCDibBitmap@@@std@@QAE@ABV?$CStringT@DV?$StrTraitMFC_DLL@DV?$ChTraitsCRT@D@ATL@@@@@ATL@@ABQAVCDibBitmap@@@Z
_TEXT	SEGMENT PARA USE32 PUBLIC 'CODE'
_TEXT	ENDS
;	COMDAT ?_Isnil@?$_Tree@V?$_Tmap_traits@V?$CStringT@DV?$StrTraitMFC_DLL@DV?$ChTraitsCRT@D@ATL@@@@@ATL@@PAVCDibBitmap@@U?$less@V?$CStringT@DV?$StrTraitMFC_DLL@DV?$ChTraitsCRT@D@ATL@@@@@ATL@@@std@@V?$allocator@U?$pair@$$CBV?$CStringT@DV?$StrTraitMFC_DLL@DV?$ChTraitsCRT@D@ATL@@@@@ATL@@PAVCDibBitmap@@@std@@@5@$0A@@std@@@std@@KAAADPAU_Node@?$_Tree_nod@V?$_Tmap_traits@V?$CStringT@DV?$StrTraitMFC_DLL@DV?$ChTraitsCRT@D@ATL@@@@@ATL@@PAVCDibBitmap@@U?$less@V?$CStringT@DV?$StrTraitMFC_DLL@DV?$ChTraitsCRT@D@ATL@@@@@ATL@@@std@@V?$allocator@U?$pair@$$CBV?$CStringT@DV?$StrTraitMFC_DLL@DV?$ChTraitsCRT@D@ATL@@@@@ATL@@PAVCDibBitmap@@@std@@@5@$0A@@std@@@2@@Z
_TEXT	SEGMENT PARA USE32 PUBLIC 'CODE'
_TEXT	ENDS
;	COMDAT ?_Key@?$_Tree@V?$_Tmap_traits@V?$CStringT@DV?$StrTraitMFC_DLL@DV?$ChTraitsCRT@D@ATL@@@@@ATL@@PAVCDibBitmap@@U?$less@V?$CStringT@DV?$StrTraitMFC_DLL@DV?$ChTraitsCRT@D@ATL@@@@@ATL@@@std@@V?$allocator@U?$pair@$$CBV?$CStringT@DV?$StrTraitMFC_DLL@DV?$ChTraitsCRT@D@ATL@@@@@ATL@@PAVCDibBitmap@@@std@@@5@$0A@@std@@@std@@KAABV?$CStringT@DV?$StrTraitMFC_DLL@DV?$ChTraitsCRT@D@ATL@@@@@ATL@@PAU_Node@?$_Tree_nod@V?$_Tmap_traits@V?$CStringT@DV?$StrTraitMFC_DLL@DV?$ChTraitsCRT@D@ATL@@@@@ATL@@PAVCDibBitmap@@U?$less@V?$CStringT@DV?$StrTraitMFC_DLL@DV?$ChTraitsCRT@D@ATL@@@@@ATL@@@std@@V?$allocator@U?$pair@$$CBV?$CStringT@DV?$StrTraitMFC_DLL@DV?$ChTraitsCRT@D@ATL@@@@@ATL@@PAVCDibBitmap@@@std@@@5@$0A@@std@@@2@@Z
_TEXT	SEGMENT PARA USE32 PUBLIC 'CODE'
_TEXT	ENDS
;	COMDAT ?_Left@?$_Tree@V?$_Tmap_traits@V?$CStringT@DV?$StrTraitMFC_DLL@DV?$ChTraitsCRT@D@ATL@@@@@ATL@@PAVCDibBitmap@@U?$less@V?$CStringT@DV?$StrTraitMFC_DLL@DV?$ChTraitsCRT@D@ATL@@@@@ATL@@@std@@V?$allocator@U?$pair@$$CBV?$CStringT@DV?$StrTraitMFC_DLL@DV?$ChTraitsCRT@D@ATL@@@@@ATL@@PAVCDibBitmap@@@std@@@5@$0A@@std@@@std@@KAAAPAU_Node@?$_Tree_nod@V?$_Tmap_traits@V?$CStringT@DV?$StrTraitMFC_DLL@DV?$ChTraitsCRT@D@ATL@@@@@ATL@@PAVCDibBitmap@@U?$less@V?$CStringT@DV?$StrTraitMFC_DLL@DV?$ChTraitsCRT@D@ATL@@@@@ATL@@@std@@V?$allocator@U?$pair@$$CBV?$CStringT@DV?$StrTraitMFC_DLL@DV?$ChTraitsCRT@D@ATL@@@@@ATL@@PAVCDibBitmap@@@std@@@5@$0A@@std@@@2@PAU342@@Z
_TEXT	SEGMENT PARA USE32 PUBLIC 'CODE'
_TEXT	ENDS
;	COMDAT ?_Right@?$_Tree@V?$_Tmap_traits@V?$CStringT@DV?$StrTraitMFC_DLL@DV?$ChTraitsCRT@D@ATL@@@@@ATL@@PAVCDibBitmap@@U?$less@V?$CStringT@DV?$StrTraitMFC_DLL@DV?$ChTraitsCRT@D@ATL@@@@@ATL@@@std@@V?$allocator@U?$pair@$$CBV?$CStringT@DV?$StrTraitMFC_DLL@DV?$ChTraitsCRT@D@ATL@@@@@ATL@@PAVCDibBitmap@@@std@@@5@$0A@@std@@@std@@KAAAPAU_Node@?$_Tree_nod@V?$_Tmap_traits@V?$CStringT@DV?$StrTraitMFC_DLL@DV?$ChTraitsCRT@D@ATL@@@@@ATL@@PAVCDibBitmap@@U?$less@V?$CStringT@DV?$StrTraitMFC_DLL@DV?$ChTraitsCRT@D@ATL@@@@@ATL@@@std@@V?$allocator@U?$pair@$$CBV?$CStringT@DV?$StrTraitMFC_DLL@DV?$ChTraitsCRT@D@ATL@@@@@ATL@@PAVCDibBitmap@@@std@@@5@$0A@@std@@@2@PAU342@@Z
_TEXT	SEGMENT PARA USE32 PUBLIC 'CODE'
_TEXT	ENDS
;	COMDAT ?begin@?$_Tree@V?$_Tmap_traits@V?$CStringT@DV?$StrTraitMFC_DLL@DV?$ChTraitsCRT@D@ATL@@@@@ATL@@PAVCDibBitmap@@U?$less@V?$CStringT@DV?$StrTraitMFC_DLL@DV?$ChTraitsCRT@D@ATL@@@@@ATL@@@std@@V?$allocator@U?$pair@$$CBV?$CStringT@DV?$StrTraitMFC_DLL@DV?$ChTraitsCRT@D@ATL@@@@@ATL@@PAVCDibBitmap@@@std@@@5@$0A@@std@@@std@@QAE?AViterator@12@XZ
_TEXT	SEGMENT PARA USE32 PUBLIC 'CODE'
_TEXT	ENDS
;	COMDAT ?_Insert@?$_Tree@V?$_Tmap_traits@V?$CStringT@DV?$StrTraitMFC_DLL@DV?$ChTraitsCRT@D@ATL@@@@@ATL@@PAVCDibBitmap@@U?$less@V?$CStringT@DV?$StrTraitMFC_DLL@DV?$ChTraitsCRT@D@ATL@@@@@ATL@@@std@@V?$allocator@U?$pair@$$CBV?$CStringT@DV?$StrTraitMFC_DLL@DV?$ChTraitsCRT@D@ATL@@@@@ATL@@PAVCDibBitmap@@@std@@@5@$0A@@std@@@std@@IAE?AViterator@12@_NPAU_Node@?$_Tree_nod@V?$_Tmap_traits@V?$CStringT@DV?$StrTraitMFC_DLL@DV?$ChTraitsCRT@D@ATL@@@@@ATL@@PAVCDibBitmap@@U?$less@V?$CStringT@DV?$StrTraitMFC_DLL@DV?$ChTraitsCRT@D@ATL@@@@@ATL@@@std@@V?$allocator@U?$pair@$$CBV?$CStringT@DV?$StrTraitMFC_DLL@DV?$ChTraitsCRT@D@ATL@@@@@ATL@@PAVCDibBitmap@@@std@@@5@$0A@@std@@@2@ABU?$pair@$$CBV?$CStringT@DV?$StrTraitMFC_DLL@DV?$ChTraitsCRT@D@ATL@@@@@ATL@@PAVCDibBitmap@@@2@@Z
_TEXT	SEGMENT PARA USE32 PUBLIC 'CODE'
_TEXT	ENDS
;	COMDAT ?_Root@?$_Tree@V?$_Tmap_traits@V?$CStringT@DV?$StrTraitMFC_DLL@DV?$ChTraitsCRT@D@ATL@@@@@ATL@@PAVCDibBitmap@@U?$less@V?$CStringT@DV?$StrTraitMFC_DLL@DV?$ChTraitsCRT@D@ATL@@@@@ATL@@@std@@V?$allocator@U?$pair@$$CBV?$CStringT@DV?$StrTraitMFC_DLL@DV?$ChTraitsCRT@D@ATL@@@@@ATL@@PAVCDibBitmap@@@std@@@5@$0A@@std@@@std@@IAEAAPAU_Node@?$_Tree_nod@V?$_Tmap_traits@V?$CStringT@DV?$StrTraitMFC_DLL@DV?$ChTraitsCRT@D@ATL@@@@@ATL@@PAVCDibBitmap@@U?$less@V?$CStringT@DV?$StrTraitMFC_DLL@DV?$ChTraitsCRT@D@ATL@@@@@ATL@@@std@@V?$allocator@U?$pair@$$CBV?$CStringT@DV?$StrTraitMFC_DLL@DV?$ChTraitsCRT@D@ATL@@@@@ATL@@PAVCDibBitmap@@@std@@@5@$0A@@std@@@2@XZ
_TEXT	SEGMENT PARA USE32 PUBLIC 'CODE'
_TEXT	ENDS
;	COMDAT ?_Kfn@?$_Tmap_traits@V?$CStringT@DV?$StrTraitMFC_DLL@DV?$ChTraitsCRT@D@ATL@@@@@ATL@@PAVCDibBitmap@@U?$less@V?$CStringT@DV?$StrTraitMFC_DLL@DV?$ChTraitsCRT@D@ATL@@@@@ATL@@@std@@V?$allocator@U?$pair@$$CBV?$CStringT@DV?$StrTraitMFC_DLL@DV?$ChTraitsCRT@D@ATL@@@@@ATL@@PAVCDibBitmap@@@std@@@5@$0A@@std@@SAABV?$CStringT@DV?$StrTraitMFC_DLL@DV?$ChTraitsCRT@D@ATL@@@@@ATL@@ABU?$pair@$$CBV?$CStringT@DV?$StrTraitMFC_DLL@DV?$ChTraitsCRT@D@ATL@@@@@ATL@@PAVCDibBitmap@@@2@@Z
_TEXT	SEGMENT PARA USE32 PUBLIC 'CODE'
_TEXT	ENDS
;	COMDAT ??R?$less@V?$CStringT@DV?$StrTraitMFC_DLL@DV?$ChTraitsCRT@D@ATL@@@@@ATL@@@std@@QBE_NABV?$CStringT@DV?$StrTraitMFC_DLL@DV?$ChTraitsCRT@D@ATL@@@@@ATL@@0@Z
_TEXT	SEGMENT PARA USE32 PUBLIC 'CODE'
_TEXT	ENDS
;	COMDAT ??0?$pair@Viterator@?$_Tree@V?$_Tmap_traits@V?$CStringT@DV?$StrTraitMFC_DLL@DV?$ChTraitsCRT@D@ATL@@@@@ATL@@PAVCDibBitmap@@U?$less@V?$CStringT@DV?$StrTraitMFC_DLL@DV?$ChTraitsCRT@D@ATL@@@@@ATL@@@std@@V?$allocator@U?$pair@$$CBV?$CStringT@DV?$StrTraitMFC_DLL@DV?$ChTraitsCRT@D@ATL@@@@@ATL@@PAVCDibBitmap@@@std@@@5@$0A@@std@@@std@@_N@std@@QAE@ABViterator@?$_Tree@V?$_Tmap_traits@V?$CStringT@DV?$StrTraitMFC_DLL@DV?$ChTraitsCRT@D@ATL@@@@@ATL@@PAVCDibBitmap@@U?$less@V?$CStringT@DV?$StrTraitMFC_DLL@DV?$ChTraitsCRT@D@ATL@@@@@ATL@@@std@@V?$allocator@U?$pair@$$CBV?$CStringT@DV?$StrTraitMFC_DLL@DV?$ChTraitsCRT@D@ATL@@@@@ATL@@PAVCDibBitmap@@@std@@@5@$0A@@std@@@1@AB_N@Z
_TEXT	SEGMENT PARA USE32 PUBLIC 'CODE'
_TEXT	ENDS
;	COMDAT ??0iterator@?$_Tree@V?$_Tmap_traits@V?$CStringT@DV?$StrTraitMFC_DLL@DV?$ChTraitsCRT@D@ATL@@@@@ATL@@PAVCDibBitmap@@U?$less@V?$CStringT@DV?$StrTraitMFC_DLL@DV?$ChTraitsCRT@D@ATL@@@@@ATL@@@std@@V?$allocator@U?$pair@$$CBV?$CStringT@DV?$StrTraitMFC_DLL@DV?$ChTraitsCRT@D@ATL@@@@@ATL@@PAVCDibBitmap@@@std@@@5@$0A@@std@@@std@@QAE@PAU_Node@?$_Tree_nod@V?$_Tmap_traits@V?$CStringT@DV?$StrTraitMFC_DLL@DV?$ChTraitsCRT@D@ATL@@@@@ATL@@PAVCDibBitmap@@U?$less@V?$CStringT@DV?$StrTraitMFC_DLL@DV?$ChTraitsCRT@D@ATL@@@@@ATL@@@std@@V?$allocator@U?$pair@$$CBV?$CStringT@DV?$StrTraitMFC_DLL@DV?$ChTraitsCRT@D@ATL@@@@@ATL@@PAVCDibBitmap@@@std@@@5@$0A@@std@@@2@@Z
_TEXT	SEGMENT PARA USE32 PUBLIC 'CODE'
_TEXT	ENDS
;	COMDAT ??Fiterator@?$_Tree@V?$_Tmap_traits@V?$CStringT@DV?$StrTraitMFC_DLL@DV?$ChTraitsCRT@D@ATL@@@@@ATL@@PAVCDibBitmap@@U?$less@V?$CStringT@DV?$StrTraitMFC_DLL@DV?$ChTraitsCRT@D@ATL@@@@@ATL@@@std@@V?$allocator@U?$pair@$$CBV?$CStringT@DV?$StrTraitMFC_DLL@DV?$ChTraitsCRT@D@ATL@@@@@ATL@@PAVCDibBitmap@@@std@@@5@$0A@@std@@@std@@QAEAAV012@XZ
_TEXT	SEGMENT PARA USE32 PUBLIC 'CODE'
_TEXT	ENDS
;	COMDAT ??8const_iterator@?$_Tree@V?$_Tmap_traits@V?$CStringT@DV?$StrTraitMFC_DLL@DV?$ChTraitsCRT@D@ATL@@@@@ATL@@PAVCDibBitmap@@U?$less@V?$CStringT@DV?$StrTraitMFC_DLL@DV?$ChTraitsCRT@D@ATL@@@@@ATL@@@std@@V?$allocator@U?$pair@$$CBV?$CStringT@DV?$StrTraitMFC_DLL@DV?$ChTraitsCRT@D@ATL@@@@@ATL@@PAVCDibBitmap@@@std@@@5@$0A@@std@@@std@@QBE_NABV012@@Z
_TEXT	SEGMENT PARA USE32 PUBLIC 'CODE'
_TEXT	ENDS
;	COMDAT ?_Mynode@const_iterator@?$_Tree@V?$_Tmap_traits@V?$CStringT@DV?$StrTraitMFC_DLL@DV?$ChTraitsCRT@D@ATL@@@@@ATL@@PAVCDibBitmap@@U?$less@V?$CStringT@DV?$StrTraitMFC_DLL@DV?$ChTraitsCRT@D@ATL@@@@@ATL@@@std@@V?$allocator@U?$pair@$$CBV?$CStringT@DV?$StrTraitMFC_DLL@DV?$ChTraitsCRT@D@ATL@@@@@ATL@@PAVCDibBitmap@@@std@@@5@$0A@@std@@@std@@QBEPAU_Node@?$_Tree_nod@V?$_Tmap_traits@V?$CStringT@DV?$StrTraitMFC_DLL@DV?$ChTraitsCRT@D@ATL@@@@@ATL@@PAVCDibBitmap@@U?$less@V?$CStringT@DV?$StrTraitMFC_DLL@DV?$ChTraitsCRT@D@ATL@@@@@ATL@@@std@@V?$allocator@U?$pair@$$CBV?$CStringT@DV?$StrTraitMFC_DLL@DV?$ChTraitsCRT@D@ATL@@@@@ATL@@PAVCDibBitmap@@@std@@@5@$0A@@std@@@3@XZ
_TEXT	SEGMENT PARA USE32 PUBLIC 'CODE'
_TEXT	ENDS
;	COMDAT ??0length_error@std@@QAE@ABV01@@Z
_TEXT	SEGMENT PARA USE32 PUBLIC 'CODE'
_TEXT	ENDS
;	COMDAT ??MATL@@YA_NABV?$CStringT@DV?$StrTraitMFC_DLL@DV?$ChTraitsCRT@D@ATL@@@@@0@0@Z
_TEXT	SEGMENT PARA USE32 PUBLIC 'CODE'
_TEXT	ENDS
;	COMDAT ?_Color@?$_Tree@V?$_Tmap_traits@V?$CStringT@DV?$StrTraitMFC_DLL@DV?$ChTraitsCRT@D@ATL@@@@@ATL@@PAVCDibBitmap@@U?$less@V?$CStringT@DV?$StrTraitMFC_DLL@DV?$ChTraitsCRT@D@ATL@@@@@ATL@@@std@@V?$allocator@U?$pair@$$CBV?$CStringT@DV?$StrTraitMFC_DLL@DV?$ChTraitsCRT@D@ATL@@@@@ATL@@PAVCDibBitmap@@@std@@@5@$0A@@std@@@std@@KAAADPAU_Node@?$_Tree_nod@V?$_Tmap_traits@V?$CStringT@DV?$StrTraitMFC_DLL@DV?$ChTraitsCRT@D@ATL@@@@@ATL@@PAVCDibBitmap@@U?$less@V?$CStringT@DV?$StrTraitMFC_DLL@DV?$ChTraitsCRT@D@ATL@@@@@ATL@@@std@@V?$allocator@U?$pair@$$CBV?$CStringT@DV?$StrTraitMFC_DLL@DV?$ChTraitsCRT@D@ATL@@@@@ATL@@PAVCDibBitmap@@@std@@@5@$0A@@std@@@2@@Z
_TEXT	SEGMENT PARA USE32 PUBLIC 'CODE'
_TEXT	ENDS
;	COMDAT ?_Parent@?$_Tree@V?$_Tmap_traits@V?$CStringT@DV?$StrTraitMFC_DLL@DV?$ChTraitsCRT@D@ATL@@@@@ATL@@PAVCDibBitmap@@U?$less@V?$CStringT@DV?$StrTraitMFC_DLL@DV?$ChTraitsCRT@D@ATL@@@@@ATL@@@std@@V?$allocator@U?$pair@$$CBV?$CStringT@DV?$StrTraitMFC_DLL@DV?$ChTraitsCRT@D@ATL@@@@@ATL@@PAVCDibBitmap@@@std@@@5@$0A@@std@@@std@@KAAAPAU_Node@?$_Tree_nod@V?$_Tmap_traits@V?$CStringT@DV?$StrTraitMFC_DLL@DV?$ChTraitsCRT@D@ATL@@@@@ATL@@PAVCDibBitmap@@U?$less@V?$CStringT@DV?$StrTraitMFC_DLL@DV?$ChTraitsCRT@D@ATL@@@@@ATL@@@std@@V?$allocator@U?$pair@$$CBV?$CStringT@DV?$StrTraitMFC_DLL@DV?$ChTraitsCRT@D@ATL@@@@@ATL@@PAVCDibBitmap@@@std@@@5@$0A@@std@@@2@PAU342@@Z
_TEXT	SEGMENT PARA USE32 PUBLIC 'CODE'
_TEXT	ENDS
;	COMDAT ?_Myval@?$_Tree@V?$_Tmap_traits@V?$CStringT@DV?$StrTraitMFC_DLL@DV?$ChTraitsCRT@D@ATL@@@@@ATL@@PAVCDibBitmap@@U?$less@V?$CStringT@DV?$StrTraitMFC_DLL@DV?$ChTraitsCRT@D@ATL@@@@@ATL@@@std@@V?$allocator@U?$pair@$$CBV?$CStringT@DV?$StrTraitMFC_DLL@DV?$ChTraitsCRT@D@ATL@@@@@ATL@@PAVCDibBitmap@@@std@@@5@$0A@@std@@@std@@KAAAU?$pair@$$CBV?$CStringT@DV?$StrTraitMFC_DLL@DV?$ChTraitsCRT@D@ATL@@@@@ATL@@PAVCDibBitmap@@@2@PAU_Node@?$_Tree_nod@V?$_Tmap_traits@V?$CStringT@DV?$StrTraitMFC_DLL@DV?$ChTraitsCRT@D@ATL@@@@@ATL@@PAVCDibBitmap@@U?$less@V?$CStringT@DV?$StrTraitMFC_DLL@DV?$ChTraitsCRT@D@ATL@@@@@ATL@@@std@@V?$allocator@U?$pair@$$CBV?$CStringT@DV?$StrTraitMFC_DLL@DV?$ChTraitsCRT@D@ATL@@@@@ATL@@PAVCDibBitmap@@@std@@@5@$0A@@std@@@2@@Z
_TEXT	SEGMENT PARA USE32 PUBLIC 'CODE'
_TEXT	ENDS
;	COMDAT ?max_size@?$_Tree@V?$_Tmap_traits@V?$CStringT@DV?$StrTraitMFC_DLL@DV?$ChTraitsCRT@D@ATL@@@@@ATL@@PAVCDibBitmap@@U?$less@V?$CStringT@DV?$StrTraitMFC_DLL@DV?$ChTraitsCRT@D@ATL@@@@@ATL@@@std@@V?$allocator@U?$pair@$$CBV?$CStringT@DV?$StrTraitMFC_DLL@DV?$ChTraitsCRT@D@ATL@@@@@ATL@@PAVCDibBitmap@@@std@@@5@$0A@@std@@@std@@QBEIXZ
_TEXT	SEGMENT PARA USE32 PUBLIC 'CODE'
_TEXT	ENDS
;	COMDAT ?_Lmost@?$_Tree@V?$_Tmap_traits@V?$CStringT@DV?$StrTraitMFC_DLL@DV?$ChTraitsCRT@D@ATL@@@@@ATL@@PAVCDibBitmap@@U?$less@V?$CStringT@DV?$StrTraitMFC_DLL@DV?$ChTraitsCRT@D@ATL@@@@@ATL@@@std@@V?$allocator@U?$pair@$$CBV?$CStringT@DV?$StrTraitMFC_DLL@DV?$ChTraitsCRT@D@ATL@@@@@ATL@@PAVCDibBitmap@@@std@@@5@$0A@@std@@@std@@IAEAAPAU_Node@?$_Tree_nod@V?$_Tmap_traits@V?$CStringT@DV?$StrTraitMFC_DLL@DV?$ChTraitsCRT@D@ATL@@@@@ATL@@PAVCDibBitmap@@U?$less@V?$CStringT@DV?$StrTraitMFC_DLL@DV?$ChTraitsCRT@D@ATL@@@@@ATL@@@std@@V?$allocator@U?$pair@$$CBV?$CStringT@DV?$StrTraitMFC_DLL@DV?$ChTraitsCRT@D@ATL@@@@@ATL@@PAVCDibBitmap@@@std@@@5@$0A@@std@@@2@XZ
_TEXT	SEGMENT PARA USE32 PUBLIC 'CODE'
_TEXT	ENDS
;	COMDAT ?_Lrotate@?$_Tree@V?$_Tmap_traits@V?$CStringT@DV?$StrTraitMFC_DLL@DV?$ChTraitsCRT@D@ATL@@@@@ATL@@PAVCDibBitmap@@U?$less@V?$CStringT@DV?$StrTraitMFC_DLL@DV?$ChTraitsCRT@D@ATL@@@@@ATL@@@std@@V?$allocator@U?$pair@$$CBV?$CStringT@DV?$StrTraitMFC_DLL@DV?$ChTraitsCRT@D@ATL@@@@@ATL@@PAVCDibBitmap@@@std@@@5@$0A@@std@@@std@@IAEXPAU_Node@?$_Tree_nod@V?$_Tmap_traits@V?$CStringT@DV?$StrTraitMFC_DLL@DV?$ChTraitsCRT@D@ATL@@@@@ATL@@PAVCDibBitmap@@U?$less@V?$CStringT@DV?$StrTraitMFC_DLL@DV?$ChTraitsCRT@D@ATL@@@@@ATL@@@std@@V?$allocator@U?$pair@$$CBV?$CStringT@DV?$StrTraitMFC_DLL@DV?$ChTraitsCRT@D@ATL@@@@@ATL@@PAVCDibBitmap@@@std@@@5@$0A@@std@@@2@@Z
_TEXT	SEGMENT PARA USE32 PUBLIC 'CODE'
_TEXT	ENDS
;	COMDAT ?_Rmost@?$_Tree@V?$_Tmap_traits@V?$CStringT@DV?$StrTraitMFC_DLL@DV?$ChTraitsCRT@D@ATL@@@@@ATL@@PAVCDibBitmap@@U?$less@V?$CStringT@DV?$StrTraitMFC_DLL@DV?$ChTraitsCRT@D@ATL@@@@@ATL@@@std@@V?$allocator@U?$pair@$$CBV?$CStringT@DV?$StrTraitMFC_DLL@DV?$ChTraitsCRT@D@ATL@@@@@ATL@@PAVCDibBitmap@@@std@@@5@$0A@@std@@@std@@IAEAAPAU_Node@?$_Tree_nod@V?$_Tmap_traits@V?$CStringT@DV?$StrTraitMFC_DLL@DV?$ChTraitsCRT@D@ATL@@@@@ATL@@PAVCDibBitmap@@U?$less@V?$CStringT@DV?$StrTraitMFC_DLL@DV?$ChTraitsCRT@D@ATL@@@@@ATL@@@std@@V?$allocator@U?$pair@$$CBV?$CStringT@DV?$StrTraitMFC_DLL@DV?$ChTraitsCRT@D@ATL@@@@@ATL@@PAVCDibBitmap@@@std@@@5@$0A@@std@@@2@XZ
_TEXT	SEGMENT PARA USE32 PUBLIC 'CODE'
_TEXT	ENDS
;	COMDAT ?_Rrotate@?$_Tree@V?$_Tmap_traits@V?$CStringT@DV?$StrTraitMFC_DLL@DV?$ChTraitsCRT@D@ATL@@@@@ATL@@PAVCDibBitmap@@U?$less@V?$CStringT@DV?$StrTraitMFC_DLL@DV?$ChTraitsCRT@D@ATL@@@@@ATL@@@std@@V?$allocator@U?$pair@$$CBV?$CStringT@DV?$StrTraitMFC_DLL@DV?$ChTraitsCRT@D@ATL@@@@@ATL@@PAVCDibBitmap@@@std@@@5@$0A@@std@@@std@@IAEXPAU_Node@?$_Tree_nod@V?$_Tmap_traits@V?$CStringT@DV?$StrTraitMFC_DLL@DV?$ChTraitsCRT@D@ATL@@@@@ATL@@PAVCDibBitmap@@U?$less@V?$CStringT@DV?$StrTraitMFC_DLL@DV?$ChTraitsCRT@D@ATL@@@@@ATL@@@std@@V?$allocator@U?$pair@$$CBV?$CStringT@DV?$StrTraitMFC_DLL@DV?$ChTraitsCRT@D@ATL@@@@@ATL@@PAVCDibBitmap@@@std@@@5@$0A@@std@@@2@@Z
_TEXT	SEGMENT PARA USE32 PUBLIC 'CODE'
_TEXT	ENDS
;	COMDAT ?_Buynode@?$_Tree@V?$_Tmap_traits@V?$CStringT@DV?$StrTraitMFC_DLL@DV?$ChTraitsCRT@D@ATL@@@@@ATL@@PAVCDibBitmap@@U?$less@V?$CStringT@DV?$StrTraitMFC_DLL@DV?$ChTraitsCRT@D@ATL@@@@@ATL@@@std@@V?$allocator@U?$pair@$$CBV?$CStringT@DV?$StrTraitMFC_DLL@DV?$ChTraitsCRT@D@ATL@@@@@ATL@@PAVCDibBitmap@@@std@@@5@$0A@@std@@@std@@IAEPAU_Node@?$_Tree_nod@V?$_Tmap_traits@V?$CStringT@DV?$StrTraitMFC_DLL@DV?$ChTraitsCRT@D@ATL@@@@@ATL@@PAVCDibBitmap@@U?$less@V?$CStringT@DV?$StrTraitMFC_DLL@DV?$ChTraitsCRT@D@ATL@@@@@ATL@@@std@@V?$allocator@U?$pair@$$CBV?$CStringT@DV?$StrTraitMFC_DLL@DV?$ChTraitsCRT@D@ATL@@@@@ATL@@PAVCDibBitmap@@@std@@@5@$0A@@std@@@2@PAU342@00ABU?$pair@$$CBV?$CStringT@DV?$StrTraitMFC_DLL@DV?$ChTraitsCRT@D@ATL@@@@@ATL@@PAVCDibBitmap@@@2@D@Z
_TEXT	SEGMENT PARA USE32 PUBLIC 'CODE'
_TEXT	ENDS
;	COMDAT ??0const_iterator@?$_Tree@V?$_Tmap_traits@V?$CStringT@DV?$StrTraitMFC_DLL@DV?$ChTraitsCRT@D@ATL@@@@@ATL@@PAVCDibBitmap@@U?$less@V?$CStringT@DV?$StrTraitMFC_DLL@DV?$ChTraitsCRT@D@ATL@@@@@ATL@@@std@@V?$allocator@U?$pair@$$CBV?$CStringT@DV?$StrTraitMFC_DLL@DV?$ChTraitsCRT@D@ATL@@@@@ATL@@PAVCDibBitmap@@@std@@@5@$0A@@std@@@std@@QAE@PAU_Node@?$_Tree_nod@V?$_Tmap_traits@V?$CStringT@DV?$StrTraitMFC_DLL@DV?$ChTraitsCRT@D@ATL@@@@@ATL@@PAVCDibBitmap@@U?$less@V?$CStringT@DV?$StrTraitMFC_DLL@DV?$ChTraitsCRT@D@ATL@@@@@ATL@@@std@@V?$allocator@U?$pair@$$CBV?$CStringT@DV?$StrTraitMFC_DLL@DV?$ChTraitsCRT@D@ATL@@@@@ATL@@PAVCDibBitmap@@@std@@@5@$0A@@std@@@2@@Z
_TEXT	SEGMENT PARA USE32 PUBLIC 'CODE'
_TEXT	ENDS
;	COMDAT ??Fconst_iterator@?$_Tree@V?$_Tmap_traits@V?$CStringT@DV?$StrTraitMFC_DLL@DV?$ChTraitsCRT@D@ATL@@@@@ATL@@PAVCDibBitmap@@U?$less@V?$CStringT@DV?$StrTraitMFC_DLL@DV?$ChTraitsCRT@D@ATL@@@@@ATL@@@std@@V?$allocator@U?$pair@$$CBV?$CStringT@DV?$StrTraitMFC_DLL@DV?$ChTraitsCRT@D@ATL@@@@@ATL@@PAVCDibBitmap@@@std@@@5@$0A@@std@@@std@@QAEAAV012@XZ
_TEXT	SEGMENT PARA USE32 PUBLIC 'CODE'
_TEXT	ENDS
;	COMDAT ?max_size@?$allocator@U?$pair@$$CBV?$CStringT@DV?$StrTraitMFC_DLL@DV?$ChTraitsCRT@D@ATL@@@@@ATL@@PAVCDibBitmap@@@std@@@std@@QBEIXZ
_TEXT	SEGMENT PARA USE32 PUBLIC 'CODE'
_TEXT	ENDS
;	COMDAT ?deallocate@?$allocator@U_Node@?$_Tree_nod@V?$_Tmap_traits@V?$CStringT@DV?$StrTraitMFC_DLL@DV?$ChTraitsCRT@D@ATL@@@@@ATL@@PAVCDibBitmap@@U?$less@V?$CStringT@DV?$StrTraitMFC_DLL@DV?$ChTraitsCRT@D@ATL@@@@@ATL@@@std@@V?$allocator@U?$pair@$$CBV?$CStringT@DV?$StrTraitMFC_DLL@DV?$ChTraitsCRT@D@ATL@@@@@ATL@@PAVCDibBitmap@@@std@@@5@$0A@@std@@@std@@@std@@QAEXPAU_Node@?$_Tree_nod@V?$_Tmap_traits@V?$CStringT@DV?$StrTraitMFC_DLL@DV?$ChTraitsCRT@D@ATL@@@@@ATL@@PAVCDibBitmap@@U?$less@V?$CStringT@DV?$StrTraitMFC_DLL@DV?$ChTraitsCRT@D@ATL@@@@@ATL@@@std@@V?$allocator@U?$pair@$$CBV?$CStringT@DV?$StrTraitMFC_DLL@DV?$ChTraitsCRT@D@ATL@@@@@ATL@@PAVCDibBitmap@@@std@@@5@$0A@@std@@@2@I@Z
_TEXT	SEGMENT PARA USE32 PUBLIC 'CODE'
_TEXT	ENDS
;	COMDAT ?allocate@?$allocator@U_Node@?$_Tree_nod@V?$_Tmap_traits@V?$CStringT@DV?$StrTraitMFC_DLL@DV?$ChTraitsCRT@D@ATL@@@@@ATL@@PAVCDibBitmap@@U?$less@V?$CStringT@DV?$StrTraitMFC_DLL@DV?$ChTraitsCRT@D@ATL@@@@@ATL@@@std@@V?$allocator@U?$pair@$$CBV?$CStringT@DV?$StrTraitMFC_DLL@DV?$ChTraitsCRT@D@ATL@@@@@ATL@@PAVCDibBitmap@@@std@@@5@$0A@@std@@@std@@@std@@QAEPAU_Node@?$_Tree_nod@V?$_Tmap_traits@V?$CStringT@DV?$StrTraitMFC_DLL@DV?$ChTraitsCRT@D@ATL@@@@@ATL@@PAVCDibBitmap@@U?$less@V?$CStringT@DV?$StrTraitMFC_DLL@DV?$ChTraitsCRT@D@ATL@@@@@ATL@@@std@@V?$allocator@U?$pair@$$CBV?$CStringT@DV?$StrTraitMFC_DLL@DV?$ChTraitsCRT@D@ATL@@@@@ATL@@PAVCDibBitmap@@@std@@@5@$0A@@std@@@2@I@Z
_TEXT	SEGMENT PARA USE32 PUBLIC 'CODE'
_TEXT	ENDS
;	COMDAT ?_Dec@const_iterator@?$_Tree@V?$_Tmap_traits@V?$CStringT@DV?$StrTraitMFC_DLL@DV?$ChTraitsCRT@D@ATL@@@@@ATL@@PAVCDibBitmap@@U?$less@V?$CStringT@DV?$StrTraitMFC_DLL@DV?$ChTraitsCRT@D@ATL@@@@@ATL@@@std@@V?$allocator@U?$pair@$$CBV?$CStringT@DV?$StrTraitMFC_DLL@DV?$ChTraitsCRT@D@ATL@@@@@ATL@@PAVCDibBitmap@@@std@@@5@$0A@@std@@@std@@QAEXXZ
_TEXT	SEGMENT PARA USE32 PUBLIC 'CODE'
_TEXT	ENDS
;	COMDAT ??0_Node@?$_Tree_nod@V?$_Tmap_traits@V?$CStringT@DV?$StrTraitMFC_DLL@DV?$ChTraitsCRT@D@ATL@@@@@ATL@@PAVCDibBitmap@@U?$less@V?$CStringT@DV?$StrTraitMFC_DLL@DV?$ChTraitsCRT@D@ATL@@@@@ATL@@@std@@V?$allocator@U?$pair@$$CBV?$CStringT@DV?$StrTraitMFC_DLL@DV?$ChTraitsCRT@D@ATL@@@@@ATL@@PAVCDibBitmap@@@std@@@5@$0A@@std@@@std@@QAE@PAU012@00ABU?$pair@$$CBV?$CStringT@DV?$StrTraitMFC_DLL@DV?$ChTraitsCRT@D@ATL@@@@@ATL@@PAVCDibBitmap@@@2@D@Z
_TEXT	SEGMENT PARA USE32 PUBLIC 'CODE'
_TEXT	ENDS
;	COMDAT ??0?$pair@$$CBV?$CStringT@DV?$StrTraitMFC_DLL@DV?$ChTraitsCRT@D@ATL@@@@@ATL@@PAVCDibBitmap@@@std@@QAE@ABU01@@Z
_TEXT	SEGMENT PARA USE32 PUBLIC 'CODE'
_TEXT	ENDS
;	COMDAT ?StringCompare@?$ChTraitsCRT@D@ATL@@SAHPBD0@Z
_TEXT	SEGMENT PARA USE32 PUBLIC 'CODE'
_TEXT	ENDS
;	COMDAT ?_Max@?$_Tree@V?$_Tmap_traits@V?$CStringT@DV?$StrTraitMFC_DLL@DV?$ChTraitsCRT@D@ATL@@@@@ATL@@PAVCDibBitmap@@U?$less@V?$CStringT@DV?$StrTraitMFC_DLL@DV?$ChTraitsCRT@D@ATL@@@@@ATL@@@std@@V?$allocator@U?$pair@$$CBV?$CStringT@DV?$StrTraitMFC_DLL@DV?$ChTraitsCRT@D@ATL@@@@@ATL@@PAVCDibBitmap@@@std@@@5@$0A@@std@@@std@@KAPAU_Node@?$_Tree_nod@V?$_Tmap_traits@V?$CStringT@DV?$StrTraitMFC_DLL@DV?$ChTraitsCRT@D@ATL@@@@@ATL@@PAVCDibBitmap@@U?$less@V?$CStringT@DV?$StrTraitMFC_DLL@DV?$ChTraitsCRT@D@ATL@@@@@ATL@@@std@@V?$allocator@U?$pair@$$CBV?$CStringT@DV?$StrTraitMFC_DLL@DV?$ChTraitsCRT@D@ATL@@@@@ATL@@PAVCDibBitmap@@@std@@@5@$0A@@std@@@2@PAU342@@Z
_TEXT	SEGMENT PARA USE32 PUBLIC 'CODE'
_TEXT	ENDS
;	COMDAT ?Unlock@?$CComCritSecLock@VCComCriticalSection@ATL@@@ATL@@QAEXXZ
_TEXT	SEGMENT PARA USE32 PUBLIC 'CODE'
_TEXT	ENDS
;	COMDAT ??0?$CArray@MM@@QAE@XZ
_TEXT	SEGMENT PARA USE32 PUBLIC 'CODE'
_TEXT	ENDS
;	COMDAT ??1?$CArray@MM@@UAE@XZ
_TEXT	SEGMENT PARA USE32 PUBLIC 'CODE'
_TEXT	ENDS
;	COMDAT ?Serialize@?$CArray@MM@@UAEXAAVCArchive@@@Z
_TEXT	SEGMENT PARA USE32 PUBLIC 'CODE'
_TEXT	ENDS
;	COMDAT ??1?$CArray@VCPaneBase@ETSLayoutMgr@@V12@@@UAE@XZ
_TEXT	SEGMENT PARA USE32 PUBLIC 'CODE'
_TEXT	ENDS
;	COMDAT ?Serialize@?$CArray@VCPaneBase@ETSLayoutMgr@@V12@@@UAEXAAVCArchive@@@Z
_TEXT	SEGMENT PARA USE32 PUBLIC 'CODE'
_TEXT	ENDS
;	COMDAT ??1?$CMap@V?$CStringT@DV?$StrTraitMFC_DLL@DV?$ChTraitsCRT@D@ATL@@@@@ATL@@PBDVCPaneBase@ETSLayoutMgr@@V34@@@UAE@XZ
_TEXT	SEGMENT PARA USE32 PUBLIC 'CODE'
_TEXT	ENDS
;	COMDAT ?Serialize@?$CMap@V?$CStringT@DV?$StrTraitMFC_DLL@DV?$ChTraitsCRT@D@ATL@@@@@ATL@@PBDVCPaneBase@ETSLayoutMgr@@V34@@@UAEXAAVCArchive@@@Z
_TEXT	SEGMENT PARA USE32 PUBLIC 'CODE'
_TEXT	ENDS
;	COMDAT ??0?$CArray@UElemPos@CMarkup@@AAU12@@@QAE@XZ
_TEXT	SEGMENT PARA USE32 PUBLIC 'CODE'
_TEXT	ENDS
;	COMDAT ??1?$CArray@UElemPos@CMarkup@@AAU12@@@UAE@XZ
_TEXT	SEGMENT PARA USE32 PUBLIC 'CODE'
_TEXT	ENDS
;	COMDAT ?Serialize@?$CArray@UElemPos@CMarkup@@AAU12@@@UAEXAAVCArchive@@@Z
_TEXT	SEGMENT PARA USE32 PUBLIC 'CODE'
_TEXT	ENDS
;	COMDAT ??$_Maklocstr@D@std@@YAPADPBDPADABU_Cvtvec@@@Z
_TEXT	SEGMENT PARA USE32 PUBLIC 'CODE'
_TEXT	ENDS
;	COMDAT ??$_Allocate@U_Node@?$_Tree_nod@V?$_Tmap_traits@V?$CStringT@DV?$StrTraitMFC_DLL@DV?$ChTraitsCRT@D@ATL@@@@@ATL@@PAVCDibBitmap@@U?$less@V?$CStringT@DV?$StrTraitMFC_DLL@DV?$ChTraitsCRT@D@ATL@@@@@ATL@@@std@@V?$allocator@U?$pair@$$CBV?$CStringT@DV?$StrTraitMFC_DLL@DV?$ChTraitsCRT@D@ATL@@@@@ATL@@PAVCDibBitmap@@@std@@@5@$0A@@std@@@std@@@std@@YAPAU_Node@?$_Tree_nod@V?$_Tmap_traits@V?$CStringT@DV?$StrTraitMFC_DLL@DV?$ChTraitsCRT@D@ATL@@@@@ATL@@PAVCDibBitmap@@U?$less@V?$CStringT@DV?$StrTraitMFC_DLL@DV?$ChTraitsCRT@D@ATL@@@@@ATL@@@std@@V?$allocator@U?$pair@$$CBV?$CStringT@DV?$StrTraitMFC_DLL@DV?$ChTraitsCRT@D@ATL@@@@@ATL@@PAVCDibBitmap@@@std@@@5@$0A@@std@@@0@IPAU120@@Z
_TEXT	SEGMENT PARA USE32 PUBLIC 'CODE'
_TEXT	ENDS
;	COMDAT ??_G?$CArray@MM@@UAEPAXI@Z
_TEXT	SEGMENT PARA USE32 PUBLIC 'CODE'
_TEXT	ENDS
;	COMDAT ??_G?$CArray@VCPaneBase@ETSLayoutMgr@@V12@@@UAEPAXI@Z
_TEXT	SEGMENT PARA USE32 PUBLIC 'CODE'
_TEXT	ENDS
;	COMDAT ??_GCPaneBase@ETSLayoutMgr@@QAEPAXI@Z
_TEXT	SEGMENT PARA USE32 PUBLIC 'CODE'
_TEXT	ENDS
;	COMDAT ??_G?$CMap@V?$CStringT@DV?$StrTraitMFC_DLL@DV?$ChTraitsCRT@D@ATL@@@@@ATL@@PBDVCPaneBase@ETSLayoutMgr@@V34@@@UAEPAXI@Z
_TEXT	SEGMENT PARA USE32 PUBLIC 'CODE'
_TEXT	ENDS
;	COMDAT ??_G?$CArray@UElemPos@CMarkup@@AAU12@@@UAEPAXI@Z
_TEXT	SEGMENT PARA USE32 PUBLIC 'CODE'
_TEXT	ENDS
;	COMDAT ?SetSize@?$CArray@MM@@QAEXHH@Z
_TEXT	SEGMENT PARA USE32 PUBLIC 'CODE'
_TEXT	ENDS
;	COMDAT ??$SerializeElements@M@@YGXAAVCArchive@@PAMH@Z
_TEXT	SEGMENT PARA USE32 PUBLIC 'CODE'
_TEXT	ENDS
;	COMDAT ?SetSize@?$CArray@VCPaneBase@ETSLayoutMgr@@V12@@@QAEXHH@Z
_TEXT	SEGMENT PARA USE32 PUBLIC 'CODE'
_TEXT	ENDS
;	COMDAT ??$SerializeElements@VCPaneBase@ETSLayoutMgr@@@@YGXAAVCArchive@@PAVCPaneBase@ETSLayoutMgr@@H@Z
_TEXT	SEGMENT PARA USE32 PUBLIC 'CODE'
_TEXT	ENDS
;	COMDAT ?SetAt@?$CMap@V?$CStringT@DV?$StrTraitMFC_DLL@DV?$ChTraitsCRT@D@ATL@@@@@ATL@@PBDVCPaneBase@ETSLayoutMgr@@V34@@@QAEXPBDVCPaneBase@ETSLayoutMgr@@@Z
_TEXT	SEGMENT PARA USE32 PUBLIC 'CODE'
_TEXT	ENDS
;	COMDAT ?RemoveAll@?$CMap@V?$CStringT@DV?$StrTraitMFC_DLL@DV?$ChTraitsCRT@D@ATL@@@@@ATL@@PBDVCPaneBase@ETSLayoutMgr@@V34@@@QAEXXZ
_TEXT	SEGMENT PARA USE32 PUBLIC 'CODE'
_TEXT	ENDS
;	COMDAT ?SetSize@?$CArray@UElemPos@CMarkup@@AAU12@@@QAEXHH@Z
_TEXT	SEGMENT PARA USE32 PUBLIC 'CODE'
_TEXT	ENDS
;	COMDAT ??$SerializeElements@UElemPos@CMarkup@@@@YGXAAVCArchive@@PAUElemPos@CMarkup@@H@Z
_TEXT	SEGMENT PARA USE32 PUBLIC 'CODE'
_TEXT	ENDS
;	COMDAT ??1CAssoc@?$CMap@V?$CStringT@DV?$StrTraitMFC_DLL@DV?$ChTraitsCRT@D@ATL@@@@@ATL@@PBDVCPaneBase@ETSLayoutMgr@@V34@@@QAE@XZ
_TEXT	SEGMENT PARA USE32 PUBLIC 'CODE'
_TEXT	ENDS
;	COMDAT ??1CPair@?$CMap@V?$CStringT@DV?$StrTraitMFC_DLL@DV?$ChTraitsCRT@D@ATL@@@@@ATL@@PBDVCPaneBase@ETSLayoutMgr@@V34@@@QAE@XZ
_TEXT	SEGMENT PARA USE32 PUBLIC 'CODE'
_TEXT	ENDS
;	COMDAT ??A?$CMap@V?$CStringT@DV?$StrTraitMFC_DLL@DV?$ChTraitsCRT@D@ATL@@@@@ATL@@PBDVCPaneBase@ETSLayoutMgr@@V34@@@QAEAAVCPaneBase@ETSLayoutMgr@@PBD@Z
_TEXT	SEGMENT PARA USE32 PUBLIC 'CODE'
_TEXT	ENDS
;	COMDAT ?InitHashTable@?$CMap@V?$CStringT@DV?$StrTraitMFC_DLL@DV?$ChTraitsCRT@D@ATL@@@@@ATL@@PBDVCPaneBase@ETSLayoutMgr@@V34@@@QAEXIH@Z
_TEXT	SEGMENT PARA USE32 PUBLIC 'CODE'
_TEXT	ENDS
;	COMDAT ?NewAssoc@?$CMap@V?$CStringT@DV?$StrTraitMFC_DLL@DV?$ChTraitsCRT@D@ATL@@@@@ATL@@PBDVCPaneBase@ETSLayoutMgr@@V34@@@IAEPAVCAssoc@1@PBD@Z
_TEXT	SEGMENT PARA USE32 PUBLIC 'CODE'
_TEXT	ENDS
;	COMDAT ?GetAssocAt@?$CMap@V?$CStringT@DV?$StrTraitMFC_DLL@DV?$ChTraitsCRT@D@ATL@@@@@ATL@@PBDVCPaneBase@ETSLayoutMgr@@V34@@@IBEPAVCAssoc@1@PBDAAI1@Z
_TEXT	SEGMENT PARA USE32 PUBLIC 'CODE'
_TEXT	ENDS
;	COMDAT ??0CAssoc@?$CMap@V?$CStringT@DV?$StrTraitMFC_DLL@DV?$ChTraitsCRT@D@ATL@@@@@ATL@@PBDVCPaneBase@ETSLayoutMgr@@V34@@@QAE@PBD@Z
_TEXT	SEGMENT PARA USE32 PUBLIC 'CODE'
_TEXT	ENDS
;	COMDAT ??0CPair@?$CMap@V?$CStringT@DV?$StrTraitMFC_DLL@DV?$ChTraitsCRT@D@ATL@@@@@ATL@@PBDVCPaneBase@ETSLayoutMgr@@V34@@@IAE@PBD@Z
_TEXT	SEGMENT PARA USE32 PUBLIC 'CODE'
_TEXT	ENDS
;	COMDAT ??$CompareElements@V?$CStringT@DV?$StrTraitMFC_DLL@DV?$ChTraitsCRT@D@ATL@@@@@ATL@@PBD@@YGHPBV?$CStringT@DV?$StrTraitMFC_DLL@DV?$ChTraitsCRT@D@ATL@@@@@ATL@@PBQBD@Z
_TEXT	SEGMENT PARA USE32 PUBLIC 'CODE'
_TEXT	ENDS
;	COMDAT ??8ATL@@YA_NABV?$CStringT@DV?$StrTraitMFC_DLL@DV?$ChTraitsCRT@D@ATL@@@@@0@PBD@Z
_TEXT	SEGMENT PARA USE32 PUBLIC 'CODE'
_TEXT	ENDS
;	COMDAT ??_R3CMarkupArchive@@8
rdata$r	SEGMENT DWORD USE32 PUBLIC 'CONST'
rdata$r	ENDS
;	COMDAT ??_R3?$CArray@UElemPos@CMarkup@@AAU12@@@8
rdata$r	SEGMENT DWORD USE32 PUBLIC 'CONST'
rdata$r	ENDS
;	COMDAT ??_R3ETSSplitter@@8
rdata$r	SEGMENT DWORD USE32 PUBLIC 'CONST'
rdata$r	ENDS
;	COMDAT ??_R3ETSLayoutMgr@@8
rdata$r	SEGMENT DWORD USE32 PUBLIC 'CONST'
rdata$r	ENDS
;	COMDAT ??_R3?$CMap@V?$CStringT@DV?$StrTraitMFC_DLL@DV?$ChTraitsCRT@D@ATL@@@@@ATL@@PBDVCPaneBase@ETSLayoutMgr@@V34@@@8
rdata$r	SEGMENT DWORD USE32 PUBLIC 'CONST'
rdata$r	ENDS
;	COMDAT ??_R3CMarkup@@8
rdata$r	SEGMENT DWORD USE32 PUBLIC 'CONST'
rdata$r	ENDS
;	COMDAT ??_R3?$CArray@VCPaneBase@ETSLayoutMgr@@V12@@@8
rdata$r	SEGMENT DWORD USE32 PUBLIC 'CONST'
rdata$r	ENDS
;	COMDAT ??_R3?$CArray@MM@@8
rdata$r	SEGMENT DWORD USE32 PUBLIC 'CONST'
rdata$r	ENDS
;	COMDAT ??_R3PaneBase@ETSLayoutMgr@@8
rdata$r	SEGMENT DWORD USE32 PUBLIC 'CONST'
rdata$r	ENDS
;	COMDAT ??_R3?$numpunct@_W@std@@8
rdata$r	SEGMENT DWORD USE32 PUBLIC 'CONST'
rdata$r	ENDS
;	COMDAT ??_R3?$numpunct@D@std@@8
rdata$r	SEGMENT DWORD USE32 PUBLIC 'CONST'
rdata$r	ENDS
;	COMDAT ??_R2CMarkupArchive@@8
rdata$r	SEGMENT DWORD USE32 PUBLIC 'CONST'
rdata$r	ENDS
;	COMDAT ??_R2?$CArray@UElemPos@CMarkup@@AAU12@@@8
rdata$r	SEGMENT DWORD USE32 PUBLIC 'CONST'
rdata$r	ENDS
;	COMDAT ??_R2ETSSplitter@@8
rdata$r	SEGMENT DWORD USE32 PUBLIC 'CONST'
rdata$r	ENDS
;	COMDAT ??_R2ETSLayoutMgr@@8
rdata$r	SEGMENT DWORD USE32 PUBLIC 'CONST'
rdata$r	ENDS
;	COMDAT ??_R2?$CMap@V?$CStringT@DV?$StrTraitMFC_DLL@DV?$ChTraitsCRT@D@ATL@@@@@ATL@@PBDVCPaneBase@ETSLayoutMgr@@V34@@@8
rdata$r	SEGMENT DWORD USE32 PUBLIC 'CONST'
rdata$r	ENDS
;	COMDAT ??_R2CMarkup@@8
rdata$r	SEGMENT DWORD USE32 PUBLIC 'CONST'
rdata$r	ENDS
;	COMDAT ??_R2?$CArray@VCPaneBase@ETSLayoutMgr@@V12@@@8
rdata$r	SEGMENT DWORD USE32 PUBLIC 'CONST'
rdata$r	ENDS
;	COMDAT ??_R2?$CArray@MM@@8
rdata$r	SEGMENT DWORD USE32 PUBLIC 'CONST'
rdata$r	ENDS
;	COMDAT ??_R2PaneBase@ETSLayoutMgr@@8
rdata$r	SEGMENT DWORD USE32 PUBLIC 'CONST'
rdata$r	ENDS
;	COMDAT ??_R2?$numpunct@_W@std@@8
rdata$r	SEGMENT DWORD USE32 PUBLIC 'CONST'
rdata$r	ENDS
;	COMDAT ??_R2?$numpunct@D@std@@8
rdata$r	SEGMENT DWORD USE32 PUBLIC 'CONST'
rdata$r	ENDS
;	COMDAT ??_R1A@?0A@A@CMarkupArchive@@8
rdata$r	SEGMENT DWORD USE32 PUBLIC 'CONST'
rdata$r	ENDS
;	COMDAT ??_R1A@?0A@A@?$CArray@UElemPos@CMarkup@@AAU12@@@8
rdata$r	SEGMENT DWORD USE32 PUBLIC 'CONST'
rdata$r	ENDS
;	COMDAT ??_R1A@?0A@A@CCmdTarget@@8
rdata$r	SEGMENT DWORD USE32 PUBLIC 'CONST'
rdata$r	ENDS
;	COMDAT ??_R0?AVCCmdTarget@@@8
_DATA	SEGMENT DWORD USE32 PUBLIC 'DATA'
_DATA	ENDS
;	COMDAT ??_R1A@?0A@A@CWnd@@8
rdata$r	SEGMENT DWORD USE32 PUBLIC 'CONST'
rdata$r	ENDS
;	COMDAT ??_R0?AVCWnd@@@8
_DATA	SEGMENT DWORD USE32 PUBLIC 'DATA'
_DATA	ENDS
;	COMDAT ??_R1A@?0A@A@CStatic@@8
rdata$r	SEGMENT DWORD USE32 PUBLIC 'CONST'
rdata$r	ENDS
;	COMDAT ??_R0?AVCStatic@@@8
_DATA	SEGMENT DWORD USE32 PUBLIC 'DATA'
_DATA	ENDS
;	COMDAT ??_R1A@?0A@A@ETSSplitter@@8
rdata$r	SEGMENT DWORD USE32 PUBLIC 'CONST'
rdata$r	ENDS
;	COMDAT ??_R1A@?0A@A@ETSLayoutMgr@@8
rdata$r	SEGMENT DWORD USE32 PUBLIC 'CONST'
rdata$r	ENDS
;	COMDAT ??_R1A@?0A@A@?$CMap@V?$CStringT@DV?$StrTraitMFC_DLL@DV?$ChTraitsCRT@D@ATL@@@@@ATL@@PBDVCPaneBase@ETSLayoutMgr@@V34@@@8
rdata$r	SEGMENT DWORD USE32 PUBLIC 'CONST'
rdata$r	ENDS
;	COMDAT ??_R1A@?0A@A@CMarkup@@8
rdata$r	SEGMENT DWORD USE32 PUBLIC 'CONST'
rdata$r	ENDS
;	COMDAT ??_R1A@?0A@A@?$CArray@VCPaneBase@ETSLayoutMgr@@V12@@@8
rdata$r	SEGMENT DWORD USE32 PUBLIC 'CONST'
rdata$r	ENDS
;	COMDAT ??_R1A@?0A@A@CObject@@8
rdata$r	SEGMENT DWORD USE32 PUBLIC 'CONST'
rdata$r	ENDS
;	COMDAT ??_R0?AVCObject@@@8
_DATA	SEGMENT DWORD USE32 PUBLIC 'DATA'
_DATA	ENDS
;	COMDAT ??_R1A@?0A@A@?$CArray@MM@@8
rdata$r	SEGMENT DWORD USE32 PUBLIC 'CONST'
rdata$r	ENDS
;	COMDAT ??_R1A@?0A@A@PaneBase@ETSLayoutMgr@@8
rdata$r	SEGMENT DWORD USE32 PUBLIC 'CONST'
rdata$r	ENDS
;	COMDAT ??_R1A@?0A@A@?$numpunct@_W@std@@8
rdata$r	SEGMENT DWORD USE32 PUBLIC 'CONST'
rdata$r	ENDS
;	COMDAT ??_R1A@?0A@A@facet@locale@std@@8
rdata$r	SEGMENT DWORD USE32 PUBLIC 'CONST'
rdata$r	ENDS
;	COMDAT ??_R0?AVfacet@locale@std@@@8
_DATA	SEGMENT DWORD USE32 PUBLIC 'DATA'
_DATA	ENDS
;	COMDAT ??_R1A@?0A@A@?$numpunct@D@std@@8
rdata$r	SEGMENT DWORD USE32 PUBLIC 'CONST'
rdata$r	ENDS
;	COMDAT ??_R0?AVCMarkupArchive@@@8
_DATA	SEGMENT DWORD USE32 PUBLIC 'DATA'
_DATA	ENDS
;	COMDAT ??_R0?AV?$CArray@UElemPos@CMarkup@@AAU12@@@@8
_DATA	SEGMENT DWORD USE32 PUBLIC 'DATA'
_DATA	ENDS
;	COMDAT ??_R0?AVETSSplitter@@@8
_DATA	SEGMENT DWORD USE32 PUBLIC 'DATA'
_DATA	ENDS
;	COMDAT ??_R0?AVETSLayoutMgr@@@8
_DATA	SEGMENT DWORD USE32 PUBLIC 'DATA'
_DATA	ENDS
;	COMDAT ??_R0?AV?$CMap@V?$CStringT@DV?$StrTraitMFC_DLL@DV?$ChTraitsCRT@D@ATL@@@@@ATL@@PBDVCPaneBase@ETSLayoutMgr@@V34@@@@8
_DATA	SEGMENT DWORD USE32 PUBLIC 'DATA'
_DATA	ENDS
;	COMDAT ??_R0?AVCMarkup@@@8
_DATA	SEGMENT DWORD USE32 PUBLIC 'DATA'
_DATA	ENDS
;	COMDAT ??_R0?AV?$CArray@VCPaneBase@ETSLayoutMgr@@V12@@@@8
_DATA	SEGMENT DWORD USE32 PUBLIC 'DATA'
_DATA	ENDS
;	COMDAT ??_R0?AV?$CArray@MM@@@8
_DATA	SEGMENT DWORD USE32 PUBLIC 'DATA'
_DATA	ENDS
;	COMDAT ??_R0?AVPaneBase@ETSLayoutMgr@@@8
_DATA	SEGMENT DWORD USE32 PUBLIC 'DATA'
_DATA	ENDS
;	COMDAT ??_R0?AV?$numpunct@_W@std@@@8
_DATA	SEGMENT DWORD USE32 PUBLIC 'DATA'
_DATA	ENDS
;	COMDAT ??_R0?AV?$numpunct@D@std@@@8
_DATA	SEGMENT DWORD USE32 PUBLIC 'DATA'
_DATA	ENDS
;	COMDAT ??_R4CMarkupArchive@@6B@
rdata$r	SEGMENT DWORD USE32 PUBLIC 'CONST'
rdata$r	ENDS
;	COMDAT ??_R4?$CArray@UElemPos@CMarkup@@AAU12@@@6B@
rdata$r	SEGMENT DWORD USE32 PUBLIC 'CONST'
rdata$r	ENDS
;	COMDAT ?EndModalState@CWnd@@UAEXXZ
_TEXT	SEGMENT PARA USE32 PUBLIC 'CODE'
_TEXT	ENDS
;	COMDAT ?BeginModalState@CWnd@@UAEXXZ
_TEXT	SEGMENT PARA USE32 PUBLIC 'CODE'
_TEXT	ENDS
;	COMDAT ?DoDataExchange@CWnd@@MAEXPAVCDataExchange@@@Z
_TEXT	SEGMENT PARA USE32 PUBLIC 'CODE'
_TEXT	ENDS
;	COMDAT ??_R4ETSSplitter@@6B@
rdata$r	SEGMENT DWORD USE32 PUBLIC 'CONST'
rdata$r	ENDS
;	COMDAT ??_R4ETSLayoutMgr@@6B@
rdata$r	SEGMENT DWORD USE32 PUBLIC 'CONST'
rdata$r	ENDS
;	COMDAT ??_R4?$CMap@V?$CStringT@DV?$StrTraitMFC_DLL@DV?$ChTraitsCRT@D@ATL@@@@@ATL@@PBDVCPaneBase@ETSLayoutMgr@@V34@@@6B@
rdata$r	SEGMENT DWORD USE32 PUBLIC 'CONST'
rdata$r	ENDS
;	COMDAT ??_R4CMarkup@@6B@
rdata$r	SEGMENT DWORD USE32 PUBLIC 'CONST'
rdata$r	ENDS
;	COMDAT ??_R4?$CArray@VCPaneBase@ETSLayoutMgr@@V12@@@6B@
rdata$r	SEGMENT DWORD USE32 PUBLIC 'CONST'
rdata$r	ENDS
;	COMDAT ?Dump@CObject@@UBEXAAVCDumpContext@@@Z
_TEXT	SEGMENT PARA USE32 PUBLIC 'CODE'
_TEXT	ENDS
;	COMDAT ?AssertValid@CObject@@UBEXXZ
_TEXT	SEGMENT PARA USE32 PUBLIC 'CODE'
_TEXT	ENDS
;	COMDAT ??_R4?$CArray@MM@@6B@
rdata$r	SEGMENT DWORD USE32 PUBLIC 'CONST'
rdata$r	ENDS
;	COMDAT ??_R4PaneBase@ETSLayoutMgr@@6B@
rdata$r	SEGMENT DWORD USE32 PUBLIC 'CONST'
rdata$r	ENDS
;	COMDAT ??0?$allocator@_W@std@@QAE@XZ
_TEXT	SEGMENT PARA USE32 PUBLIC 'CODE'
_TEXT	ENDS
;	COMDAT ??_G?$numpunct@_W@std@@MAEPAXI@Z
_TEXT	SEGMENT PARA USE32 PUBLIC 'CODE'
_TEXT	ENDS
;	COMDAT ??_R4?$numpunct@_W@std@@6B@
rdata$r	SEGMENT DWORD USE32 PUBLIC 'CONST'
rdata$r	ENDS
;	COMDAT ??_G?$numpunct@D@std@@MAEPAXI@Z
_TEXT	SEGMENT PARA USE32 PUBLIC 'CODE'
_TEXT	ENDS
;	COMDAT ??_R4?$numpunct@D@std@@6B@
rdata$r	SEGMENT DWORD USE32 PUBLIC 'CONST'
rdata$r	ENDS
;	COMDAT ?GetDefaultManager@?$StrTraitMFC_DLL@DV?$ChTraitsCRT@D@ATL@@@@SAPAUIAtlStringMgr@ATL@@XZ
_TEXT	SEGMENT PARA USE32 PUBLIC 'CODE'
_TEXT	ENDS
;	COMDAT ?FindStringResourceInstance@?$StrTraitMFC_DLL@DV?$ChTraitsCRT@D@ATL@@@@SAPAUHINSTANCE__@@I@Z
_TEXT	SEGMENT PARA USE32 PUBLIC 'CODE'
_TEXT	ENDS
;	COMDAT ?AtlGetStringResourceImage@ATL@@YAPBUATLSTRINGRESOURCEIMAGE@1@PAUHINSTANCE__@@I@Z
_TEXT	SEGMENT PARA USE32 PUBLIC 'CODE'
_TEXT	ENDS
;	COMDAT ?_AtlGetStringResourceImage@ATL@@YAPBUATLSTRINGRESOURCEIMAGE@1@PAUHINSTANCE__@@PAUHRSRC__@@I@Z
_TEXT	SEGMENT PARA USE32 PUBLIC 'CODE'
_TEXT	ENDS
;	COMDAT ?GetBaseTypeLength@?$ChTraitsCRT@D@ATL@@SAHPB_WH@Z
_TEXT	SEGMENT PARA USE32 PUBLIC 'CODE'
_TEXT	ENDS
;	COMDAT ?_AtlGetConversionACP@ATL@@YGIXZ
_TEXT	SEGMENT PARA USE32 PUBLIC 'CODE'
_TEXT	ENDS
;	COMDAT ?g_pfnGetThreadACP@ATL@@3P6GIXZA
_DATA	SEGMENT DWORD USE32 PUBLIC 'DATA'
_DATA	ENDS
;	COMDAT ?_AtlGetThreadACPThunk@ATL@@YGIXZ
_TEXT	SEGMENT PARA USE32 PUBLIC 'CODE'
_TEXT	ENDS
;	COMDAT ?_AtlGetThreadACPReal@ATL@@YGIXZ
_TEXT	SEGMENT PARA USE32 PUBLIC 'CODE'
_TEXT	ENDS
;	COMDAT ?_AtlGetThreadACPFake@ATL@@YGIXZ
_TEXT	SEGMENT PARA USE32 PUBLIC 'CODE'
_TEXT	ENDS
;	COMDAT ?InterlockedExchangePointer@@YGPAXPAPAXPAX@Z
_TEXT	SEGMENT PARA USE32 PUBLIC 'CODE'
_TEXT	ENDS
;	COMDAT ?ConvertToBaseType@?$ChTraitsCRT@D@ATL@@SAXPADHPB_WH@Z
_TEXT	SEGMENT PARA USE32 PUBLIC 'CODE'
_TEXT	ENDS
;	COMDAT ?data@CPlex@@QAEPAXXZ
text$AFX_COL1	SEGMENT PARA USE32 PUBLIC ''
text$AFX_COL1	ENDS
;	COMDAT ??_7?$CArray@UElemPos@CMarkup@@AAU12@@@6B@
CONST	SEGMENT DWORD USE32 PUBLIC 'CONST'
CONST	ENDS
;	COMDAT ??_7?$CMap@V?$CStringT@DV?$StrTraitMFC_DLL@DV?$ChTraitsCRT@D@ATL@@@@@ATL@@PBDVCPaneBase@ETSLayoutMgr@@V34@@@6B@
CONST	SEGMENT DWORD USE32 PUBLIC 'CONST'
CONST	ENDS
;	COMDAT ??_7?$CArray@VCPaneBase@ETSLayoutMgr@@V12@@@6B@
CONST	SEGMENT DWORD USE32 PUBLIC 'CONST'
CONST	ENDS
;	COMDAT ?IsStoring@CArchive@@QBEHXZ
_TEXT	SEGMENT PARA USE32 PUBLIC 'CODE'
_TEXT	ENDS
;	COMDAT ?Serialize@CObject@@UAEXAAVCArchive@@@Z
_TEXT	SEGMENT PARA USE32 PUBLIC 'CODE'
_TEXT	ENDS
;	COMDAT ??_7?$CArray@MM@@6B@
CONST	SEGMENT DWORD USE32 PUBLIC 'CONST'
CONST	ENDS
;	COMDAT ??1CObject@@UAE@XZ
_TEXT	SEGMENT PARA USE32 PUBLIC 'CODE'
_TEXT	ENDS
;	COMDAT ??0CObject@@IAE@XZ
_TEXT	SEGMENT PARA USE32 PUBLIC 'CODE'
_TEXT	ENDS
;	COMDAT ?_Psave@?$_Facetptr@V?$numpunct@_W@std@@@std@@2PBVfacet@locale@2@B
_DATA	SEGMENT DWORD USE32 PUBLIC 'DATA'
_DATA	ENDS
;	COMDAT ?_Psave@?$_Facetptr@V?$numpunct@D@std@@@std@@2PBVfacet@locale@2@B
_DATA	SEGMENT DWORD USE32 PUBLIC 'DATA'
_DATA	ENDS
;	COMDAT ?Unlock@CComCriticalSection@ATL@@QAEJXZ
_TEXT	SEGMENT PARA USE32 PUBLIC 'CODE'
_TEXT	ENDS
;	COMDAT ?_Psave@?$_Facetptr@V?$ctype@_W@std@@@std@@2PBVfacet@locale@2@B
_DATA	SEGMENT DWORD USE32 PUBLIC 'DATA'
_DATA	ENDS
;	COMDAT ?_Psave@?$_Facetptr@V?$ctype@D@std@@@std@@2PBVfacet@locale@2@B
_DATA	SEGMENT DWORD USE32 PUBLIC 'DATA'
_DATA	ENDS
;	COMDAT ??3@YAXPAX0@Z
_TEXT	SEGMENT PARA USE32 PUBLIC 'CODE'
_TEXT	ENDS
;	COMDAT ??2@YAPAXIPAX@Z
_TEXT	SEGMENT PARA USE32 PUBLIC 'CODE'
_TEXT	ENDS
;	COMDAT ??$_Maklocchr@_W@std@@YA_WDPA_WABU_Cvtvec@@@Z
_TEXT	SEGMENT PARA USE32 PUBLIC 'CODE'
_TEXT	ENDS
;	COMDAT ??$_Maklocstr@_W@std@@YAPA_WPBDPA_WABU_Cvtvec@@@Z
_TEXT	SEGMENT PARA USE32 PUBLIC 'CODE'
_TEXT	ENDS
;	COMDAT ??$_Maklocchr@D@std@@YADDPADABU_Cvtvec@@@Z
_TEXT	SEGMENT PARA USE32 PUBLIC 'CODE'
_TEXT	ENDS
;	COMDAT ??_C@_04LOAJBDKD@true?$AA@
CONST	SEGMENT DWORD USE32 PUBLIC 'CONST'
CONST	ENDS
;	COMDAT ??_C@_05LAPONLG@false?$AA@
CONST	SEGMENT DWORD USE32 PUBLIC 'CONST'
CONST	ENDS
;	COMDAT _wmemcpy
_TEXT	SEGMENT PARA USE32 PUBLIC 'CODE'
_TEXT	ENDS
;	COMDAT ?max_size@?$allocator@_W@std@@QBEIXZ
_TEXT	SEGMENT PARA USE32 PUBLIC 'CODE'
_TEXT	ENDS
;	COMDAT ?allocate@?$allocator@_W@std@@QAEPA_WI@Z
_TEXT	SEGMENT PARA USE32 PUBLIC 'CODE'
_TEXT	ENDS
;	COMDAT ??$_Allocate@_W@std@@YAPA_WIPA_W@Z
_TEXT	SEGMENT PARA USE32 PUBLIC 'CODE'
_TEXT	ENDS
;	COMDAT ?data@CStringData@ATL@@QAEPAXXZ
_TEXT	SEGMENT PARA USE32 PUBLIC 'CODE'
_TEXT	ENDS
;	COMDAT ?AtlThrow@ATL@@YGXJ@Z
_TEXT	SEGMENT PARA USE32 PUBLIC 'CODE'
_TEXT	ENDS
;	COMDAT ??_7length_error@std@@6B@
CONST	SEGMENT DWORD USE32 PUBLIC 'CONST'
CONST	ENDS
;	COMDAT ??_R4length_error@std@@6B@
rdata$r	SEGMENT DWORD USE32 PUBLIC 'CONST'
rdata$r	ENDS
;	COMDAT ??_R3length_error@std@@8
rdata$r	SEGMENT DWORD USE32 PUBLIC 'CONST'
rdata$r	ENDS
;	COMDAT ??_R2length_error@std@@8
rdata$r	SEGMENT DWORD USE32 PUBLIC 'CONST'
rdata$r	ENDS
;	COMDAT ??_R1A@?0A@A@length_error@std@@8
rdata$r	SEGMENT DWORD USE32 PUBLIC 'CONST'
rdata$r	ENDS
;	COMDAT ??_R1A@?0A@A@logic_error@std@@8
rdata$r	SEGMENT DWORD USE32 PUBLIC 'CONST'
rdata$r	ENDS
;	COMDAT ??_R0?AVlogic_error@std@@@8
_DATA	SEGMENT DWORD USE32 PUBLIC 'DATA'
_DATA	ENDS
;	COMDAT ??_R1A@?0A@A@exception@@8
rdata$r	SEGMENT DWORD USE32 PUBLIC 'CONST'
rdata$r	ENDS
;	COMDAT ??_R0?AVexception@@@8
_DATA	SEGMENT DWORD USE32 PUBLIC 'DATA'
_DATA	ENDS
;	COMDAT ??_Glength_error@std@@UAEPAXI@Z
_TEXT	SEGMENT PARA USE32 PUBLIC 'CODE'
_TEXT	ENDS
;	COMDAT ?what@logic_error@std@@UBEPBDXZ
_TEXT	SEGMENT PARA USE32 PUBLIC 'CODE'
_TEXT	ENDS
;	COMDAT ??1logic_error@std@@UAE@XZ
_TEXT	SEGMENT PARA USE32 PUBLIC 'CODE'
_TEXT	ENDS
;	COMDAT ??_7logic_error@std@@6B@
CONST	SEGMENT DWORD USE32 PUBLIC 'CONST'
CONST	ENDS
;	COMDAT ??_R4logic_error@std@@6B@
rdata$r	SEGMENT DWORD USE32 PUBLIC 'CONST'
rdata$r	ENDS
;	COMDAT ??_R3logic_error@std@@8
rdata$r	SEGMENT DWORD USE32 PUBLIC 'CONST'
rdata$r	ENDS
;	COMDAT ??_R2logic_error@std@@8
rdata$r	SEGMENT DWORD USE32 PUBLIC 'CONST'
rdata$r	ENDS
;	COMDAT ??_Glogic_error@std@@UAEPAXI@Z
_TEXT	SEGMENT PARA USE32 PUBLIC 'CODE'
_TEXT	ENDS
;	COMDAT ??0logic_error@std@@QAE@ABV01@@Z
_TEXT	SEGMENT PARA USE32 PUBLIC 'CODE'
_TEXT	ENDS
;	COMDAT ??0?$allocator@D@std@@QAE@ABV01@@Z
_TEXT	SEGMENT PARA USE32 PUBLIC 'CODE'
_TEXT	ENDS
;	COMDAT ?deallocate@?$allocator@D@std@@QAEXPADI@Z
_TEXT	SEGMENT PARA USE32 PUBLIC 'CODE'
_TEXT	ENDS
;	COMDAT ?max_size@?$allocator@D@std@@QBEIXZ
_TEXT	SEGMENT PARA USE32 PUBLIC 'CODE'
_TEXT	ENDS
;	COMDAT ?allocate@?$allocator@D@std@@QAEPADI@Z
_TEXT	SEGMENT PARA USE32 PUBLIC 'CODE'
_TEXT	ENDS
;	COMDAT ??$_Allocate@D@std@@YAPADIPAD@Z
_TEXT	SEGMENT PARA USE32 PUBLIC 'CODE'
_TEXT	ENDS
;	COMDAT __CTA3?AVlength_error@std@@
xdata$x	SEGMENT DWORD USE32 PUBLIC 'CONST'
xdata$x	ENDS
;	COMDAT ??1length_error@std@@UAE@XZ
_TEXT	SEGMENT PARA USE32 PUBLIC 'CODE'
_TEXT	ENDS
;	COMDAT __CT??_R0?AVexception@@@8??0exception@@QAE@ABV0@@Z12
xdata$x	SEGMENT DWORD USE32 PUBLIC 'CONST'
xdata$x	ENDS
;	COMDAT __CT??_R0?AVlogic_error@std@@@8??0logic_error@std@@QAE@ABV01@@Z40
xdata$x	SEGMENT DWORD USE32 PUBLIC 'CONST'
xdata$x	ENDS
;	COMDAT __CT??_R0?AVlength_error@std@@@8??0length_error@std@@QAE@ABV01@@Z40
xdata$x	SEGMENT DWORD USE32 PUBLIC 'CONST'
xdata$x	ENDS
;	COMDAT ??_R0?AVlength_error@std@@@8
_DATA	SEGMENT DWORD USE32 PUBLIC 'DATA'
_DATA	ENDS
;	COMDAT __TI3?AVlength_error@std@@
xdata$x	SEGMENT DWORD USE32 PUBLIC 'CONST'
xdata$x	ENDS
;	COMDAT ??0?$allocator@D@std@@QAE@XZ
_TEXT	SEGMENT PARA USE32 PUBLIC 'CODE'
_TEXT	ENDS
;	COMDAT ??0length_error@std@@QAE@ABV?$basic_string@DU?$char_traits@D@std@@V?$allocator@D@2@@1@@Z
_TEXT	SEGMENT PARA USE32 PUBLIC 'CODE'
_TEXT	ENDS
;	COMDAT ??0logic_error@std@@QAE@ABV?$basic_string@DU?$char_traits@D@std@@V?$allocator@D@2@@1@@Z
_TEXT	SEGMENT PARA USE32 PUBLIC 'CODE'
_TEXT	ENDS
;	COMDAT ??_C@_01GFHCPBMG@C?$AA@
CONST	SEGMENT DWORD USE32 PUBLIC 'CONST'
CONST	ENDS
;	COMDAT ?Release@CStringData@ATL@@QAEXXZ
_TEXT	SEGMENT PARA USE32 PUBLIC 'CODE'
_TEXT	ENDS
;	COMDAT ?IsShared@CStringData@ATL@@QBE_NXZ
_TEXT	SEGMENT PARA USE32 PUBLIC 'CODE'
_TEXT	ENDS
;	COMDAT ?_Peek@?$istreambuf_iterator@_WU?$char_traits@_W@std@@@std@@AAE_WXZ
_TEXT	SEGMENT PARA USE32 PUBLIC 'CODE'
_TEXT	ENDS
;	COMDAT ?_Peek@?$istreambuf_iterator@DU?$char_traits@D@std@@@std@@AAEDXZ
_TEXT	SEGMENT PARA USE32 PUBLIC 'CODE'
_TEXT	ENDS
;	COMDAT ??$use_facet@V?$ctype@_W@std@@@std@@YAABV?$ctype@_W@0@ABVlocale@0@@Z
_TEXT	SEGMENT PARA USE32 PUBLIC 'CODE'
_TEXT	ENDS
;	COMDAT ??_S?$ctype@_W@std@@6B@
CONST	SEGMENT DWORD USE32 PUBLIC 'CONST'
CONST	ENDS
;	COMDAT ??_R4?$ctype@_W@std@@6B@
rdata$r	SEGMENT DWORD USE32 PUBLIC 'CONST'
rdata$r	ENDS
;	COMDAT ??_R0?AV?$ctype@_W@std@@@8
_DATA	SEGMENT DWORD USE32 PUBLIC 'DATA'
_DATA	ENDS
;	COMDAT ??_R3?$ctype@_W@std@@8
rdata$r	SEGMENT DWORD USE32 PUBLIC 'CONST'
rdata$r	ENDS
;	COMDAT ??_R2?$ctype@_W@std@@8
rdata$r	SEGMENT DWORD USE32 PUBLIC 'CONST'
rdata$r	ENDS
;	COMDAT ??_R1A@?0A@A@?$ctype@_W@std@@8
rdata$r	SEGMENT DWORD USE32 PUBLIC 'CONST'
rdata$r	ENDS
;	COMDAT ??_R1A@?0A@A@ctype_base@std@@8
rdata$r	SEGMENT DWORD USE32 PUBLIC 'CONST'
rdata$r	ENDS
;	COMDAT ??_R0?AUctype_base@std@@@8
_DATA	SEGMENT DWORD USE32 PUBLIC 'DATA'
_DATA	ENDS
;	COMDAT ??_G?$ctype@_W@std@@MAEPAXI@Z
_TEXT	SEGMENT PARA USE32 PUBLIC 'CODE'
_TEXT	ENDS
;	COMDAT ??_C@_08EPJLHIJG@bad?5cast?$AA@
CONST	SEGMENT DWORD USE32 PUBLIC 'CONST'
CONST	ENDS
;	COMDAT __TI2?AVbad_cast@@
xdata$x	SEGMENT DWORD USE32 PUBLIC 'CONST'
xdata$x	ENDS
;	COMDAT __CTA2?AVbad_cast@@
xdata$x	SEGMENT DWORD USE32 PUBLIC 'CONST'
xdata$x	ENDS
;	COMDAT __CT??_R0?AVbad_cast@@@8??0bad_cast@@QAE@ABV0@@Z12
xdata$x	SEGMENT DWORD USE32 PUBLIC 'CONST'
xdata$x	ENDS
;	COMDAT ??_R0?AVbad_cast@@@8
_DATA	SEGMENT DWORD USE32 PUBLIC 'DATA'
_DATA	ENDS
;	COMDAT ??$use_facet@V?$ctype@D@std@@@std@@YAABV?$ctype@D@0@ABVlocale@0@@Z
_TEXT	SEGMENT PARA USE32 PUBLIC 'CODE'
_TEXT	ENDS
;	COMDAT ??_S?$ctype@D@std@@6B@
CONST	SEGMENT DWORD USE32 PUBLIC 'CONST'
CONST	ENDS
;	COMDAT ??_R4?$ctype@D@std@@6B@
rdata$r	SEGMENT DWORD USE32 PUBLIC 'CONST'
rdata$r	ENDS
;	COMDAT ??_R0?AV?$ctype@D@std@@@8
_DATA	SEGMENT DWORD USE32 PUBLIC 'DATA'
_DATA	ENDS
;	COMDAT ??_R3?$ctype@D@std@@8
rdata$r	SEGMENT DWORD USE32 PUBLIC 'CONST'
rdata$r	ENDS
;	COMDAT ??_R2?$ctype@D@std@@8
rdata$r	SEGMENT DWORD USE32 PUBLIC 'CONST'
rdata$r	ENDS
;	COMDAT ??_R1A@?0A@A@?$ctype@D@std@@8
rdata$r	SEGMENT DWORD USE32 PUBLIC 'CONST'
rdata$r	ENDS
;	COMDAT ??_G?$ctype@D@std@@MAEPAXI@Z
_TEXT	SEGMENT PARA USE32 PUBLIC 'CODE'
_TEXT	ENDS
;	COMDAT ??_S?$numpunct@_W@std@@6B@
CONST	SEGMENT DWORD USE32 PUBLIC 'CONST'
CONST	ENDS
;	COMDAT ??_S?$numpunct@D@std@@6B@
CONST	SEGMENT DWORD USE32 PUBLIC 'CONST'
CONST	ENDS
;	COMDAT _wmemmove
_TEXT	SEGMENT PARA USE32 PUBLIC 'CODE'
_TEXT	ENDS
;	COMDAT ?deallocate@?$allocator@_W@std@@QAEXPA_WI@Z
_TEXT	SEGMENT PARA USE32 PUBLIC 'CODE'
_TEXT	ENDS
;	COMDAT ??0?$allocator@_W@std@@QAE@ABV01@@Z
_TEXT	SEGMENT PARA USE32 PUBLIC 'CODE'
_TEXT	ENDS
;	COMDAT ?OnShowWindow@CWnd@@IAEXHI@Z
_TEXT	SEGMENT PARA USE32 PUBLIC 'CODE'
_TEXT	ENDS
;	COMDAT ?SetRedraw@CWnd@@QAEXH@Z
_TEXT	SEGMENT PARA USE32 PUBLIC 'CODE'
_TEXT	ENDS
;	COMDAT ?Width@CRect@@QBEHXZ
_TEXT	SEGMENT PARA USE32 PUBLIC 'CODE'
_TEXT	ENDS
;	COMDAT ?Height@CRect@@QBEHXZ
_TEXT	SEGMENT PARA USE32 PUBLIC 'CODE'
_TEXT	ENDS
;	COMDAT ?PatBlt@CDC@@QAEHHHHHK@Z
_TEXT	SEGMENT PARA USE32 PUBLIC 'CODE'
_TEXT	ENDS
;	COMDAT ??1CBrush@@UAE@XZ
_TEXT	SEGMENT PARA USE32 PUBLIC 'CODE'
_TEXT	ENDS
;	COMDAT ??_7CBrush@@6B@
CONST	SEGMENT DWORD USE32 PUBLIC 'CONST'
CONST	ENDS
;	COMDAT ??_R4CBrush@@6B@
rdata$r	SEGMENT DWORD USE32 PUBLIC 'CONST'
rdata$r	ENDS
;	COMDAT ??_R0?AVCBrush@@@8
_DATA	SEGMENT DWORD USE32 PUBLIC 'DATA'
_DATA	ENDS
;	COMDAT ??_R3CBrush@@8
rdata$r	SEGMENT DWORD USE32 PUBLIC 'CONST'
rdata$r	ENDS
;	COMDAT ??_R2CBrush@@8
rdata$r	SEGMENT DWORD USE32 PUBLIC 'CONST'
rdata$r	ENDS
;	COMDAT ??_R1A@?0A@A@CBrush@@8
rdata$r	SEGMENT DWORD USE32 PUBLIC 'CONST'
rdata$r	ENDS
;	COMDAT ??_R1A@?0A@A@CGdiObject@@8
rdata$r	SEGMENT DWORD USE32 PUBLIC 'CONST'
rdata$r	ENDS
;	COMDAT ??_R0?AVCGdiObject@@@8
_DATA	SEGMENT DWORD USE32 PUBLIC 'DATA'
_DATA	ENDS
;	COMDAT ??_GCBrush@@UAEPAXI@Z
_TEXT	SEGMENT PARA USE32 PUBLIC 'CODE'
_TEXT	ENDS
;	COMDAT ??1CGdiObject@@UAE@XZ
_TEXT	SEGMENT PARA USE32 PUBLIC 'CODE'
_TEXT	ENDS
;	COMDAT ??_7CGdiObject@@6B@
CONST	SEGMENT DWORD USE32 PUBLIC 'CONST'
CONST	ENDS
;	COMDAT ??_R4CGdiObject@@6B@
rdata$r	SEGMENT DWORD USE32 PUBLIC 'CONST'
rdata$r	ENDS
;	COMDAT ??_R3CGdiObject@@8
rdata$r	SEGMENT DWORD USE32 PUBLIC 'CONST'
rdata$r	ENDS
;	COMDAT ??_R2CGdiObject@@8
rdata$r	SEGMENT DWORD USE32 PUBLIC 'CONST'
rdata$r	ENDS
;	COMDAT ??_GCGdiObject@@UAEPAXI@Z
_TEXT	SEGMENT PARA USE32 PUBLIC 'CODE'
_TEXT	ENDS
;	COMDAT ?TopLeft@CRect@@QAEAAVCPoint@@XZ
_TEXT	SEGMENT PARA USE32 PUBLIC 'CODE'
_TEXT	ENDS
;	COMDAT ??ZCRect@@QAEXUtagPOINT@@@Z
_TEXT	SEGMENT PARA USE32 PUBLIC 'CODE'
_TEXT	ENDS
;	COMDAT ?GetWindowRect@CWnd@@QBEXPAUtagRECT@@@Z
_TEXT	SEGMENT PARA USE32 PUBLIC 'CODE'
_TEXT	ENDS
;	COMDAT ?GetParent@CWnd@@QBEPAV1@XZ
_TEXT	SEGMENT PARA USE32 PUBLIC 'CODE'
_TEXT	ENDS
;	COMDAT ?OnMouseMove@CWnd@@IAEXIVCPoint@@@Z
_TEXT	SEGMENT PARA USE32 PUBLIC 'CODE'
_TEXT	ENDS
;	COMDAT ?Invalidate@CWnd@@QAEXH@Z
_TEXT	SEGMENT PARA USE32 PUBLIC 'CODE'
_TEXT	ENDS
;	COMDAT ?OnTimer@CWnd@@IAEXI@Z
_TEXT	SEGMENT PARA USE32 PUBLIC 'CODE'
_TEXT	ENDS
;	COMDAT ?KillTimer@CWnd@@QAEHI@Z
_TEXT	SEGMENT PARA USE32 PUBLIC 'CODE'
_TEXT	ENDS
;	COMDAT ?OnLButtonUp@CWnd@@IAEXIVCPoint@@@Z
_TEXT	SEGMENT PARA USE32 PUBLIC 'CODE'
_TEXT	ENDS
;	COMDAT ?SetTimer@CWnd@@QAEIIIP6GXPAUHWND__@@IIK@Z@Z
_TEXT	SEGMENT PARA USE32 PUBLIC 'CODE'
_TEXT	ENDS
;	COMDAT ?OnLButtonDown@CWnd@@IAEXIVCPoint@@@Z
_TEXT	SEGMENT PARA USE32 PUBLIC 'CODE'
_TEXT	ENDS
;	COMDAT ?SetCapture@CWnd@@QAEPAV1@XZ
_TEXT	SEGMENT PARA USE32 PUBLIC 'CODE'
_TEXT	ENDS
;	COMDAT ?AfxGetApp@@YGPAVCWinApp@@XZ
_TEXT	SEGMENT PARA USE32 PUBLIC 'CODE'
_TEXT	ENDS
;	COMDAT ?LoadStandardCursor@CWinApp@@QBEPAUHICON__@@PBD@Z
_TEXT	SEGMENT PARA USE32 PUBLIC 'CODE'
_TEXT	ENDS
;	COMDAT ?CenterPoint@CRect@@QBE?AVCPoint@@XZ
_TEXT	SEGMENT PARA USE32 PUBLIC 'CODE'
_TEXT	ENDS
;	COMDAT ??0CPoint@@QAE@HH@Z
_TEXT	SEGMENT PARA USE32 PUBLIC 'CODE'
_TEXT	ENDS
;	COMDAT ?OnEraseBkgnd@CWnd@@IAEHPAVCDC@@@Z
_TEXT	SEGMENT PARA USE32 PUBLIC 'CODE'
_TEXT	ENDS
;	COMDAT ?OnGetMinMaxInfo@CWnd@@IAEXPAUtagMINMAXINFO@@@Z
_TEXT	SEGMENT PARA USE32 PUBLIC 'CODE'
_TEXT	ENDS
;	COMDAT ?_messageEntries@ETSSplitter@@0QBUAFX_MSGMAP_ENTRY@@B
CONST	SEGMENT DWORD USE32 PUBLIC 'CONST'
CONST	ENDS
;	COMDAT ?messageMap@ETSSplitter@@1UAFX_MSGMAP@@B
CONST	SEGMENT DWORD USE32 PUBLIC 'CONST'
CONST	ENDS
;	COMDAT ??_7ETSSplitter@@6B@
CONST	SEGMENT DWORD USE32 PUBLIC 'CONST'
CONST	ENDS
;	COMDAT ??0CStatic@@QAE@XZ
_TEXT	SEGMENT PARA USE32 PUBLIC 'CODE'
_TEXT	ENDS
;	COMDAT ??_7CStatic@@6B@
CONST	SEGMENT DWORD USE32 PUBLIC 'CONST'
CONST	ENDS
;	COMDAT ??_R4CStatic@@6B@
rdata$r	SEGMENT DWORD USE32 PUBLIC 'CONST'
rdata$r	ENDS
;	COMDAT ??_R3CStatic@@8
rdata$r	SEGMENT DWORD USE32 PUBLIC 'CONST'
rdata$r	ENDS
;	COMDAT ??_R2CStatic@@8
rdata$r	SEGMENT DWORD USE32 PUBLIC 'CONST'
rdata$r	ENDS
;	COMDAT ??_GCStatic@@UAEPAXI@Z
_TEXT	SEGMENT PARA USE32 PUBLIC 'CODE'
_TEXT	ENDS
;	COMDAT ?classETSSplitter@ETSSplitter@@2UCRuntimeClass@@B
CONST	SEGMENT DWORD USE32 PUBLIC 'CONST'
CONST	ENDS
;	COMDAT ??3CObject@@SGXPAX@Z
_TEXT	SEGMENT PARA USE32 PUBLIC 'CODE'
_TEXT	ENDS
;	COMDAT ??2CObject@@SGPAXI@Z
_TEXT	SEGMENT PARA USE32 PUBLIC 'CODE'
_TEXT	ENDS
;	COMDAT ??_7CMarkupArchive@@6B@
CONST	SEGMENT DWORD USE32 PUBLIC 'CONST'
CONST	ENDS
;	COMDAT __tcschr
_TEXT	SEGMENT PARA USE32 PUBLIC 'CODE'
_TEXT	ENDS
;	COMDAT __tcsnccmp
_TEXT	SEGMENT PARA USE32 PUBLIC 'CODE'
_TEXT	ENDS
;	COMDAT ??_7CMarkup@@6B@
CONST	SEGMENT DWORD USE32 PUBLIC 'CONST'
CONST	ENDS
;	COMDAT ??BCRect@@QAEPAUtagRECT@@XZ
_TEXT	SEGMENT PARA USE32 PUBLIC 'CODE'
_TEXT	ENDS
;	COMDAT ?GetClientRect@CWnd@@QBEXPAUtagRECT@@@Z
_TEXT	SEGMENT PARA USE32 PUBLIC 'CODE'
_TEXT	ENDS
;	COMDAT ??0CSize@@QAE@HH@Z
_TEXT	SEGMENT PARA USE32 PUBLIC 'CODE'
_TEXT	ENDS
;	COMDAT ??0CSize@@QAE@XZ
_TEXT	SEGMENT PARA USE32 PUBLIC 'CODE'
_TEXT	ENDS
;	COMDAT ??_7ETSLayoutMgr@@6B@
CONST	SEGMENT DWORD USE32 PUBLIC 'CONST'
CONST	ENDS
;	COMDAT ?IsLocked@CStringData@ATL@@QBE_NXZ
_TEXT	SEGMENT PARA USE32 PUBLIC 'CODE'
_TEXT	ENDS
;	COMDAT ?AddRef@CStringData@ATL@@QAEXXZ
_TEXT	SEGMENT PARA USE32 PUBLIC 'CODE'
_TEXT	ENDS
;	COMDAT ??0CRect@@QAE@HHHH@Z
_TEXT	SEGMENT PARA USE32 PUBLIC 'CODE'
_TEXT	ENDS
;	COMDAT ??0CRect@@QAE@XZ
_TEXT	SEGMENT PARA USE32 PUBLIC 'CODE'
_TEXT	ENDS
;	COMDAT ??_7PaneBase@ETSLayoutMgr@@6B@
CONST	SEGMENT DWORD USE32 PUBLIC 'CONST'
CONST	ENDS
sxdata	SEGMENT DWORD USE32 'SXDATA'
sxdata	ENDS
FLAT	GROUP _DATA, CONST, _BSS
	ASSUME	CS: FLAT, DS: FLAT, SS: FLAT
endif

INCLUDELIB MSVCRT
INCLUDELIB OLDNAMES

PUBLIC	?classETSSplitter@ETSSplitter@@2UCRuntimeClass@@B ; ETSSplitter::classETSSplitter
PUBLIC	?g_pfnGetThreadACP@ATL@@3P6GIXZA		; ATL::g_pfnGetThreadACP
PUBLIC	?_AtlGetThreadACPThunk@ATL@@YGIXZ		; ATL::_AtlGetThreadACPThunk
PUBLIC	?OnGetMinMaxInfo@CWnd@@IAEXPAUtagMINMAXINFO@@@Z	; CWnd::OnGetMinMaxInfo
PUBLIC	?OnTimer@ETSSplitter@@IAEXI@Z			; ETSSplitter::OnTimer
PUBLIC	?OnLButtonDown@ETSSplitter@@IAEXIVCPoint@@@Z	; ETSSplitter::OnLButtonDown
PUBLIC	?OnLButtonUp@ETSSplitter@@IAEXIVCPoint@@@Z	; ETSSplitter::OnLButtonUp
PUBLIC	?OnMouseMove@ETSSplitter@@IAEXIVCPoint@@@Z	; ETSSplitter::OnMouseMove
PUBLIC	?OnMouseLeave@ETSSplitter@@IAEJIJ@Z		; ETSSplitter::OnMouseLeave
PUBLIC	?OnShowWindow@ETSSplitter@@IAEXHI@Z		; ETSSplitter::OnShowWindow
PUBLIC	?OnEraseBkgnd@ETSSplitter@@IAEHPAVCDC@@@Z	; ETSSplitter::OnEraseBkgnd
PUBLIC	?OnPaint@ETSSplitter@@IAEXXZ			; ETSSplitter::OnPaint
PUBLIC	?_messageEntries@ETSSplitter@@0QBUAFX_MSGMAP_ENTRY@@B ; ETSSplitter::_messageEntries
PUBLIC	?messageMap@ETSSplitter@@1UAFX_MSGMAP@@B	; ETSSplitter::messageMap
EXTRN	?GetThisMessageMap@CWnd@@KGPBUAFX_MSGMAP@@XZ:NEAR ; CWnd::GetThisMessageMap
EXTRN	?GetThisClass@CStatic@@SGPAUCRuntimeClass@@XZ:NEAR ; CStatic::GetThisClass
EXTRN	?OnDestroy@CWnd@@IAEXXZ:NEAR			; CWnd::OnDestroy
CONST	SEGMENT
$SG200781 DB	'ETSSplitter', 00H
CONST	ENDS
;	COMDAT ?classETSSplitter@ETSSplitter@@2UCRuntimeClass@@B
CONST	SEGMENT
?classETSSplitter@ETSSplitter@@2UCRuntimeClass@@B DD FLAT:$SG200781 ; ETSSplitter::classETSSplitter
	DD	0c0H
	DD	0ffffH
	DD	00H
	DD	FLAT:?GetThisClass@CStatic@@SGPAUCRuntimeClass@@XZ
	DD	00H
	DD	00H
CONST	ENDS
;	COMDAT ?_messageEntries@ETSSplitter@@0QBUAFX_MSGMAP_ENTRY@@B
CONST	SEGMENT
?_messageEntries@ETSSplitter@@0QBUAFX_MSGMAP_ENTRY@@B DD 024H ; ETSSplitter::_messageEntries
	DD	00H
	DD	00H
	DD	00H
	DD	029H
	DD	FLAT:?OnGetMinMaxInfo@CWnd@@IAEXPAUtagMINMAXINFO@@@Z
	DD	014H
	DD	00H
	DD	00H
	DD	00H
	DD	01H
	DD	FLAT:?OnEraseBkgnd@ETSSplitter@@IAEHPAVCDC@@@Z
	DD	0201H
	DD	00H
	DD	00H
	DD	00H
	DD	032H
	DD	FLAT:?OnLButtonDown@ETSSplitter@@IAEXIVCPoint@@@Z
	DD	0202H
	DD	00H
	DD	00H
	DD	00H
	DD	032H
	DD	FLAT:?OnLButtonUp@ETSSplitter@@IAEXIVCPoint@@@Z
	DD	0200H
	DD	00H
	DD	00H
	DD	00H
	DD	032H
	DD	FLAT:?OnMouseMove@ETSSplitter@@IAEXIVCPoint@@@Z
	DD	018H
	DD	00H
	DD	00H
	DD	00H
	DD	012H
	DD	FLAT:?OnShowWindow@ETSSplitter@@IAEXHI@Z
	DD	02H
	DD	00H
	DD	00H
	DD	00H
	DD	010H
	DD	FLAT:?OnDestroy@CWnd@@IAEXXZ
	DD	018H
	DD	00H
	DD	00H
	DD	00H
	DD	012H
	DD	FLAT:?OnShowWindow@ETSSplitter@@IAEXHI@Z
	DD	0113H
	DD	00H
	DD	00H
	DD	00H
	DD	011H
	DD	FLAT:?OnTimer@ETSSplitter@@IAEXI@Z
	DD	0fH
	DD	00H
	DD	00H
	DD	00H
	DD	010H
	DD	FLAT:?OnPaint@ETSSplitter@@IAEXXZ
	DD	02a3H
	DD	00H
	DD	00H
	DD	00H
	DD	0eH
	DD	FLAT:?OnMouseLeave@ETSSplitter@@IAEJIJ@Z
	DD	00H
	DD	00H
	DD	00H
	DD	00H
	DD	00H
	DD	00H
CONST	ENDS
;	COMDAT ?messageMap@ETSSplitter@@1UAFX_MSGMAP@@B
CONST	SEGMENT
?messageMap@ETSSplitter@@1UAFX_MSGMAP@@B DD FLAT:?GetThisMessageMap@CWnd@@KGPBUAFX_MSGMAP@@XZ ; ETSSplitter::messageMap
	DD	FLAT:?_messageEntries@ETSSplitter@@0QBUAFX_MSGMAP_ENTRY@@B
CONST	ENDS
;	COMDAT ?g_pfnGetThreadACP@ATL@@3P6GIXZA
_DATA	SEGMENT
?g_pfnGetThreadACP@ATL@@3P6GIXZA DD FLAT:?_AtlGetThreadACPThunk@ATL@@YGIXZ ; ATL::g_pfnGetThreadACP
_DATA	ENDS
PUBLIC	?InterlockedExchangePointer@@YGPAXPAPAXPAX@Z	; InterlockedExchangePointer
PUBLIC	?_AtlGetThreadACPFake@ATL@@YGIXZ		; ATL::_AtlGetThreadACPFake
PUBLIC	?_AtlGetThreadACPReal@ATL@@YGIXZ		; ATL::_AtlGetThreadACPReal
EXTRN	___security_cookie:DWORD
EXTRN	@__security_check_cookie@4:NEAR
EXTRN	__imp__GetVersionExA@4:NEAR
; Function compile flags: /Odt
; File d:\program files (x86)\microsoft visual studio .net 2003\vc7\atlmfc\include\atlconv.h
;	COMDAT ?_AtlGetThreadACPThunk@ATL@@YGIXZ
_TEXT	SEGMENT
_pfnGetThreadACP$ = -164				; size = 4
_ver$ = -160						; size = 148
__$ArrayPad$ = -4					; size = 4
__$ReturnAddr$ = 4					; size = 4
?_AtlGetThreadACPThunk@ATL@@YGIXZ PROC NEAR		; ATL::_AtlGetThreadACPThunk, COMDAT

; 134  : {

  00000	55		 push	 ebp
  00001	8b ec		 mov	 ebp, esp
  00003	81 ec a4 00 00
	00		 sub	 esp, 164		; 000000a4H
  00009	a1 00 00 00 00	 mov	 eax, DWORD PTR ___security_cookie
  0000e	89 45 fc	 mov	 DWORD PTR __$ArrayPad$[ebp], eax

; 135  : 	OSVERSIONINFO ver;
; 136  : 	ATLGETTHREADACP pfnGetThreadACP;
; 137  : 
; 138  : 	ver.dwOSVersionInfoSize = sizeof( ver );

  00011	c7 85 60 ff ff
	ff 94 00 00 00	 mov	 DWORD PTR _ver$[ebp], 148 ; 00000094H

; 139  : 	::GetVersionEx( &ver );

  0001b	8d 85 60 ff ff
	ff		 lea	 eax, DWORD PTR _ver$[ebp]
  00021	50		 push	 eax
  00022	ff 15 00 00 00
	00		 call	 DWORD PTR __imp__GetVersionExA@4

; 140  : 	if( (ver.dwPlatformId == VER_PLATFORM_WIN32_NT) && (ver.dwMajorVersion >= 5) )

  00028	83 bd 70 ff ff
	ff 02		 cmp	 DWORD PTR _ver$[ebp+16], 2
  0002f	75 15		 jne	 SHORT $L24173
  00031	83 bd 64 ff ff
	ff 05		 cmp	 DWORD PTR _ver$[ebp+4], 5
  00038	72 0c		 jb	 SHORT $L24173

; 141  : 	{
; 142  : 		// On Win2K, CP_THREAD_ACP is supported
; 143  : 		pfnGetThreadACP = _AtlGetThreadACPReal;

  0003a	c7 85 5c ff ff
	ff 00 00 00 00	 mov	 DWORD PTR _pfnGetThreadACP$[ebp], OFFSET FLAT:?_AtlGetThreadACPReal@ATL@@YGIXZ ; ATL::_AtlGetThreadACPReal

; 144  : 	}
; 145  : 	else

  00044	eb 0a		 jmp	 SHORT $L24174
$L24173:

; 146  : 	{
; 147  : 		pfnGetThreadACP = _AtlGetThreadACPFake;

  00046	c7 85 5c ff ff
	ff 00 00 00 00	 mov	 DWORD PTR _pfnGetThreadACP$[ebp], OFFSET FLAT:?_AtlGetThreadACPFake@ATL@@YGIXZ ; ATL::_AtlGetThreadACPFake
$L24174:

; 148  : 	}
; 149  : 	InterlockedExchangePointer( reinterpret_cast< void** >(&g_pfnGetThreadACP), pfnGetThreadACP );

  00050	8b 8d 5c ff ff
	ff		 mov	 ecx, DWORD PTR _pfnGetThreadACP$[ebp]
  00056	51		 push	 ecx
  00057	68 00 00 00 00	 push	 OFFSET FLAT:?g_pfnGetThreadACP@ATL@@3P6GIXZA ; ATL::g_pfnGetThreadACP
  0005c	e8 00 00 00 00	 call	 ?InterlockedExchangePointer@@YGPAXPAPAXPAX@Z ; InterlockedExchangePointer

; 150  : 
; 151  : 	return( g_pfnGetThreadACP() );

  00061	ff 15 00 00 00
	00		 call	 DWORD PTR ?g_pfnGetThreadACP@ATL@@3P6GIXZA ; ATL::g_pfnGetThreadACP

; 152  : }

  00067	8b 4d fc	 mov	 ecx, DWORD PTR __$ArrayPad$[ebp]
  0006a	e8 00 00 00 00	 call	 @__security_check_cookie@4
  0006f	8b e5		 mov	 esp, ebp
  00071	5d		 pop	 ebp
  00072	c3		 ret	 0
?_AtlGetThreadACPThunk@ATL@@YGIXZ ENDP			; ATL::_AtlGetThreadACPThunk
_TEXT	ENDS
EXTRN	__imp__InterlockedExchange@8:NEAR
; Function compile flags: /Odt
;	COMDAT ?InterlockedExchangePointer@@YGPAXPAPAXPAX@Z
_TEXT	SEGMENT
_pp$ = 8						; size = 4
_pNew$ = 12						; size = 4
?InterlockedExchangePointer@@YGPAXPAPAXPAX@Z PROC NEAR	; InterlockedExchangePointer, COMDAT

; 91   : {

  00000	55		 push	 ebp
  00001	8b ec		 mov	 ebp, esp

; 92   : 	return( reinterpret_cast<void*>(static_cast<LONG_PTR>(::InterlockedExchange(reinterpret_cast<LONG*>(pp), static_cast<LONG>(reinterpret_cast<LONG_PTR>(pNew))))) );

  00003	8b 45 0c	 mov	 eax, DWORD PTR _pNew$[ebp]
  00006	50		 push	 eax
  00007	8b 4d 08	 mov	 ecx, DWORD PTR _pp$[ebp]
  0000a	51		 push	 ecx
  0000b	ff 15 00 00 00
	00		 call	 DWORD PTR __imp__InterlockedExchange@8

; 93   : }

  00011	5d		 pop	 ebp
  00012	c2 08 00	 ret	 8
?InterlockedExchangePointer@@YGPAXPAPAXPAX@Z ENDP	; InterlockedExchangePointer
_TEXT	ENDS
EXTRN	__imp__GetACP@0:NEAR
EXTRN	__imp__GetLocaleInfoA@16:NEAR
EXTRN	__imp__GetThreadLocale@0:NEAR
; Function compile flags: /Odt
;	COMDAT ?_AtlGetThreadACPFake@ATL@@YGIXZ
_TEXT	SEGMENT
_pch$24161 = -24					; size = 4
_lcidThread$ = -20					; size = 4
_szACP$ = -16						; size = 7
__$ArrayPad$ = -8					; size = 4
_nACP$ = -4						; size = 4
__$ReturnAddr$ = 4					; size = 4
?_AtlGetThreadACPFake@ATL@@YGIXZ PROC NEAR		; ATL::_AtlGetThreadACPFake, COMDAT

; 101  : {

  00000	55		 push	 ebp
  00001	8b ec		 mov	 ebp, esp
  00003	83 ec 18	 sub	 esp, 24			; 00000018H
  00006	a1 00 00 00 00	 mov	 eax, DWORD PTR ___security_cookie
  0000b	89 45 f8	 mov	 DWORD PTR __$ArrayPad$[ebp], eax

; 102  : 	UINT nACP = 0;

  0000e	c7 45 fc 00 00
	00 00		 mov	 DWORD PTR _nACP$[ebp], 0

; 103  : 
; 104  : 	LCID lcidThread = ::GetThreadLocale();

  00015	ff 15 00 00 00
	00		 call	 DWORD PTR __imp__GetThreadLocale@0
  0001b	89 45 ec	 mov	 DWORD PTR _lcidThread$[ebp], eax

; 105  : 
; 106  : 	char szACP[7];
; 107  : 	// GetLocaleInfoA will fail for a Unicode-only LCID, but those are only supported on 
; 108  : 	// Windows 2000.  Since Windows 2000 supports CP_THREAD_ACP, this code path is never
; 109  : 	// executed on Windows 2000.
; 110  : 	if (::GetLocaleInfoA(lcidThread, LOCALE_IDEFAULTANSICODEPAGE, szACP, 7) != 0)

  0001e	6a 07		 push	 7
  00020	8d 45 f0	 lea	 eax, DWORD PTR _szACP$[ebp]
  00023	50		 push	 eax
  00024	68 04 10 00 00	 push	 4100			; 00001004H
  00029	8b 4d ec	 mov	 ecx, DWORD PTR _lcidThread$[ebp]
  0002c	51		 push	 ecx
  0002d	ff 15 00 00 00
	00		 call	 DWORD PTR __imp__GetLocaleInfoA@16
  00033	85 c0		 test	 eax, eax
  00035	74 34		 je	 SHORT $L24160

; 111  : 	{
; 112  : 		char* pch = szACP;

  00037	8d 55 f0	 lea	 edx, DWORD PTR _szACP$[ebp]
  0003a	89 55 e8	 mov	 DWORD PTR _pch$24161[ebp], edx
$L24163:

; 113  : 		while (*pch != '\0')

  0003d	8b 45 e8	 mov	 eax, DWORD PTR _pch$24161[ebp]
  00040	0f be 08	 movsx	 ecx, BYTE PTR [eax]
  00043	85 c9		 test	 ecx, ecx
  00045	74 24		 je	 SHORT $L24160

; 114  : 		{
; 115  : 			nACP *= 10;

  00047	8b 55 fc	 mov	 edx, DWORD PTR _nACP$[ebp]
  0004a	6b d2 0a	 imul	 edx, 10			; 0000000aH
  0004d	89 55 fc	 mov	 DWORD PTR _nACP$[ebp], edx

; 116  : 			nACP += *pch++ - '0';

  00050	8b 45 e8	 mov	 eax, DWORD PTR _pch$24161[ebp]
  00053	0f be 08	 movsx	 ecx, BYTE PTR [eax]
  00056	8b 55 fc	 mov	 edx, DWORD PTR _nACP$[ebp]
  00059	8d 44 0a d0	 lea	 eax, DWORD PTR [edx+ecx-48]
  0005d	89 45 fc	 mov	 DWORD PTR _nACP$[ebp], eax
  00060	8b 4d e8	 mov	 ecx, DWORD PTR _pch$24161[ebp]
  00063	83 c1 01	 add	 ecx, 1
  00066	89 4d e8	 mov	 DWORD PTR _pch$24161[ebp], ecx

; 117  : 		}

  00069	eb d2		 jmp	 SHORT $L24163
$L24160:

; 118  : 	}
; 119  : 	// Use the Default ANSI Code Page if we were unable to get the thread ACP or if one does not exist.
; 120  : 	if (nACP == 0)

  0006b	83 7d fc 00	 cmp	 DWORD PTR _nACP$[ebp], 0
  0006f	75 09		 jne	 SHORT $L24165

; 121  : 		nACP = ::GetACP();

  00071	ff 15 00 00 00
	00		 call	 DWORD PTR __imp__GetACP@0
  00077	89 45 fc	 mov	 DWORD PTR _nACP$[ebp], eax
$L24165:

; 122  : 
; 123  : 	return nACP;

  0007a	8b 45 fc	 mov	 eax, DWORD PTR _nACP$[ebp]

; 124  : }

  0007d	8b 4d f8	 mov	 ecx, DWORD PTR __$ArrayPad$[ebp]
  00080	e8 00 00 00 00	 call	 @__security_check_cookie@4
  00085	8b e5		 mov	 esp, ebp
  00087	5d		 pop	 ebp
  00088	c3		 ret	 0
?_AtlGetThreadACPFake@ATL@@YGIXZ ENDP			; ATL::_AtlGetThreadACPFake
; Function compile flags: /Odt
_TEXT	ENDS
;	COMDAT ?_AtlGetThreadACPReal@ATL@@YGIXZ
_TEXT	SEGMENT
?_AtlGetThreadACPReal@ATL@@YGIXZ PROC NEAR		; ATL::_AtlGetThreadACPReal, COMDAT

; 127  : {

  00000	55		 push	 ebp
  00001	8b ec		 mov	 ebp, esp

; 128  : 	return( CP_THREAD_ACP );

  00003	b8 03 00 00 00	 mov	 eax, 3

; 129  : }

  00008	5d		 pop	 ebp
  00009	c3		 ret	 0
?_AtlGetThreadACPReal@ATL@@YGIXZ ENDP			; ATL::_AtlGetThreadACPReal
_TEXT	ENDS
PUBLIC	?GetThisClass@ETSSplitter@@SGPAUCRuntimeClass@@XZ ; ETSSplitter::GetThisClass
; Function compile flags: /Odt
; File d:\boxgit\playbox\playbox\dev\prj\playbox\src\layoutmgr\etssplitter.cpp
_TEXT	SEGMENT
?GetThisClass@ETSSplitter@@SGPAUCRuntimeClass@@XZ PROC NEAR ; ETSSplitter::GetThisClass

; 40   : IMPLEMENT_DYNAMIC(ETSSplitter, CStatic)

  00000	55		 push	 ebp
  00001	8b ec		 mov	 ebp, esp
  00003	b8 00 00 00 00	 mov	 eax, OFFSET FLAT:?classETSSplitter@ETSSplitter@@2UCRuntimeClass@@B ; ETSSplitter::classETSSplitter
  00008	5d		 pop	 ebp
  00009	c3		 ret	 0
?GetThisClass@ETSSplitter@@SGPAUCRuntimeClass@@XZ ENDP	; ETSSplitter::GetThisClass
_TEXT	ENDS
PUBLIC	?GetRuntimeClass@ETSSplitter@@UBEPAUCRuntimeClass@@XZ ; ETSSplitter::GetRuntimeClass
; Function compile flags: /Odt
_TEXT	SEGMENT
_this$ = -4						; size = 4
?GetRuntimeClass@ETSSplitter@@UBEPAUCRuntimeClass@@XZ PROC NEAR ; ETSSplitter::GetRuntimeClass
; _this$ = ecx

; 40   : IMPLEMENT_DYNAMIC(ETSSplitter, CStatic)

  00010	55		 push	 ebp
  00011	8b ec		 mov	 ebp, esp
  00013	51		 push	 ecx
  00014	89 4d fc	 mov	 DWORD PTR _this$[ebp], ecx
  00017	b8 00 00 00 00	 mov	 eax, OFFSET FLAT:?classETSSplitter@ETSSplitter@@2UCRuntimeClass@@B ; ETSSplitter::classETSSplitter
  0001c	8b e5		 mov	 esp, ebp
  0001e	5d		 pop	 ebp
  0001f	c3		 ret	 0
?GetRuntimeClass@ETSSplitter@@UBEPAUCRuntimeClass@@XZ ENDP ; ETSSplitter::GetRuntimeClass
_TEXT	ENDS
PUBLIC	??_R1A@?0A@A@CObject@@8				; CObject::`RTTI Base Class Descriptor at (0,-1,0,0)'
PUBLIC	??_R0?AVCObject@@@8				; CObject `RTTI Type Descriptor'
PUBLIC	??0CStatic@@QAE@XZ				; CStatic::CStatic
PUBLIC	??_R1A@?0A@A@CWnd@@8				; CWnd::`RTTI Base Class Descriptor at (0,-1,0,0)'
PUBLIC	??_R0?AVCWnd@@@8				; CWnd `RTTI Type Descriptor'
PUBLIC	??_R1A@?0A@A@CCmdTarget@@8			; CCmdTarget::`RTTI Base Class Descriptor at (0,-1,0,0)'
PUBLIC	??_R0?AVCCmdTarget@@@8				; CCmdTarget `RTTI Type Descriptor'
PUBLIC	?Serialize@CObject@@UAEXAAVCArchive@@@Z		; CObject::Serialize
PUBLIC	?AssertValid@CObject@@UBEXXZ			; CObject::AssertValid
PUBLIC	?Dump@CObject@@UBEXAAVCDumpContext@@@Z		; CObject::Dump
PUBLIC	??_R4ETSSplitter@@6B@				; ETSSplitter::`RTTI Complete Object Locator'
PUBLIC	??_R0?AVETSSplitter@@@8				; ETSSplitter `RTTI Type Descriptor'
PUBLIC	??_R3ETSSplitter@@8				; ETSSplitter::`RTTI Class Hierarchy Descriptor'
PUBLIC	??_R2ETSSplitter@@8				; ETSSplitter::`RTTI Base Class Array'
PUBLIC	??_R1A@?0A@A@ETSSplitter@@8			; ETSSplitter::`RTTI Base Class Descriptor at (0,-1,0,0)'
PUBLIC	??_R0?AVCStatic@@@8				; CStatic `RTTI Type Descriptor'
PUBLIC	??_R1A@?0A@A@CStatic@@8				; CStatic::`RTTI Base Class Descriptor at (0,-1,0,0)'
PUBLIC	??0ETSSplitter@@QAE@PBD@Z			; ETSSplitter::ETSSplitter
PUBLIC	?CloseSplitter@ETSSplitter@@UAEXXZ		; ETSSplitter::CloseSplitter
PUBLIC	?PreCreateWindow@ETSSplitter@@MAEHAAUtagCREATESTRUCTA@@@Z ; ETSSplitter::PreCreateWindow
PUBLIC	?DrawVertBar@ETSSplitter@@MAEXH@Z		; ETSSplitter::DrawVertBar
PUBLIC	?DrawHorizBar@ETSSplitter@@MAEXH@Z		; ETSSplitter::DrawHorizBar
PUBLIC	?ConstrainOffset@ETSSplitter@@MAEXXZ		; ETSSplitter::ConstrainOffset
PUBLIC	?GetMessageMap@ETSSplitter@@MBEPBUAFX_MSGMAP@@XZ ; ETSSplitter::GetMessageMap
PUBLIC	??_7ETSSplitter@@6B@				; ETSSplitter::`vftable'
PUBLIC	??_GETSSplitter@@UAEPAXI@Z			; ETSSplitter::`scalar deleting destructor'
PUBLIC	?DoDataExchange@CWnd@@MAEXPAVCDataExchange@@@Z	; CWnd::DoDataExchange
PUBLIC	?BeginModalState@CWnd@@UAEXXZ			; CWnd::BeginModalState
PUBLIC	?EndModalState@CWnd@@UAEXXZ			; CWnd::EndModalState
EXTRN	?CreateControlContainer@CWnd@@MAEHPAPAVCOleControlContainer@@@Z:NEAR ; CWnd::CreateControlContainer
EXTRN	?CreateControlSite@CWnd@@MAEHPAVCOleControlContainer@@PAPAVCOleControlSite@@IABU_GUID@@@Z:NEAR ; CWnd::CreateControlSite
EXTRN	?SetOccDialogInfo@CWnd@@MAEHPAU_AFX_OCC_DIALOG_INFO@@@Z:NEAR ; CWnd::SetOccDialogInfo
EXTRN	?OnToolHitTest@CWnd@@UBEHVCPoint@@PAUtagTOOLINFOA@@@Z:NEAR ; CWnd::OnToolHitTest
EXTRN	__imp_??0?$CStringT@DV?$StrTraitMFC_DLL@DV?$ChTraitsCRT@D@ATL@@@@@ATL@@QAE@XZ:NEAR
EXTRN	?Create@CStatic@@UAEHPBDKABUtagRECT@@PAVCWnd@@I@Z:NEAR ; CStatic::Create
EXTRN	?GetScrollBarCtrl@CWnd@@UBEPAVCScrollBar@@H@Z:NEAR ; CWnd::GetScrollBarCtrl
EXTRN	?DrawItem@CStatic@@UAEXPAUtagDRAWITEMSTRUCT@@@Z:NEAR ; CStatic::DrawItem
EXTRN	?OnChildNotify@CStatic@@MAEHIIJPAJ@Z:NEAR	; CStatic::OnChildNotify
EXTRN	?WinHelpA@CWnd@@UAEXKI@Z:NEAR			; CWnd::WinHelpA
EXTRN	?HtmlHelpA@CWnd@@UAEXKI@Z:NEAR			; CWnd::HtmlHelpA
EXTRN	?WinHelpInternal@CWnd@@UAEXKI@Z:NEAR		; CWnd::WinHelpInternal
EXTRN	?ContinueModal@CWnd@@UAEHXZ:NEAR		; CWnd::ContinueModal
EXTRN	?EndModalLoop@CWnd@@UAEXH@Z:NEAR		; CWnd::EndModalLoop
EXTRN	?GetInterfaceMap@CWnd@@MBEPBUAFX_INTERFACEMAP@@XZ:NEAR ; CWnd::GetInterfaceMap
EXTRN	?EnsureStdObj@CWnd@@UAEJXZ:NEAR			; CWnd::EnsureStdObj
EXTRN	?get_accParent@CWnd@@UAEJPAPAUIDispatch@@@Z:NEAR ; CWnd::get_accParent
EXTRN	?get_accChildCount@CWnd@@UAEJPAJ@Z:NEAR		; CWnd::get_accChildCount
EXTRN	?OnCmdMsg@CCmdTarget@@UAEHIHPAXPAUAFX_CMDHANDLERINFO@@@Z:NEAR ; CCmdTarget::OnCmdMsg
EXTRN	?get_accChild@CWnd@@UAEJUtagVARIANT@@PAPAUIDispatch@@@Z:NEAR ; CWnd::get_accChild
EXTRN	?IsInvokeAllowed@CCmdTarget@@UAEHJ@Z:NEAR	; CCmdTarget::IsInvokeAllowed
EXTRN	?get_accName@CWnd@@UAEJUtagVARIANT@@PAPA_W@Z:NEAR ; CWnd::get_accName
EXTRN	?get_accValue@CWnd@@UAEJUtagVARIANT@@PAPA_W@Z:NEAR ; CWnd::get_accValue
EXTRN	?get_accDescription@CWnd@@UAEJUtagVARIANT@@PAPA_W@Z:NEAR ; CWnd::get_accDescription
EXTRN	?GetDispatchIID@CCmdTarget@@UAEHPAU_GUID@@@Z:NEAR ; CCmdTarget::GetDispatchIID
EXTRN	?GetTypeInfoCount@CCmdTarget@@UAEIXZ:NEAR	; CCmdTarget::GetTypeInfoCount
EXTRN	?GetTypeLibCache@CCmdTarget@@UAEPAVCTypeLibCache@@XZ:NEAR ; CCmdTarget::GetTypeLibCache
EXTRN	?get_accRole@CWnd@@UAEJUtagVARIANT@@PAU2@@Z:NEAR ; CWnd::get_accRole
EXTRN	?GetTypeLib@CCmdTarget@@UAEJKPAPAUITypeLib@@@Z:NEAR ; CCmdTarget::GetTypeLib
EXTRN	?get_accState@CWnd@@UAEJUtagVARIANT@@PAU2@@Z:NEAR ; CWnd::get_accState
EXTRN	?get_accHelp@CWnd@@UAEJUtagVARIANT@@PAPA_W@Z:NEAR ; CWnd::get_accHelp
EXTRN	?get_accHelpTopic@CWnd@@UAEJPAPA_WUtagVARIANT@@PAJ@Z:NEAR ; CWnd::get_accHelpTopic
EXTRN	?get_accKeyboardShortcut@CWnd@@UAEJUtagVARIANT@@PAPA_W@Z:NEAR ; CWnd::get_accKeyboardShortcut
EXTRN	?get_accFocus@CWnd@@UAEJPAUtagVARIANT@@@Z:NEAR	; CWnd::get_accFocus
EXTRN	?get_accSelection@CWnd@@UAEJPAUtagVARIANT@@@Z:NEAR ; CWnd::get_accSelection
EXTRN	?get_accDefaultAction@CWnd@@UAEJUtagVARIANT@@PAPA_W@Z:NEAR ; CWnd::get_accDefaultAction
EXTRN	?GetCommandMap@CCmdTarget@@MBEPBUAFX_OLECMDMAP@@XZ:NEAR ; CCmdTarget::GetCommandMap
EXTRN	?accSelect@CWnd@@UAEJJUtagVARIANT@@@Z:NEAR	; CWnd::accSelect
EXTRN	?accLocation@CWnd@@UAEJPAJ000UtagVARIANT@@@Z:NEAR ; CWnd::accLocation
EXTRN	?GetDispatchMap@CCmdTarget@@MBEPBUAFX_DISPMAP@@XZ:NEAR ; CCmdTarget::GetDispatchMap
EXTRN	?accNavigate@CWnd@@UAEJJUtagVARIANT@@PAU2@@Z:NEAR ; CWnd::accNavigate
EXTRN	?accHitTest@CWnd@@UAEJJJPAUtagVARIANT@@@Z:NEAR	; CWnd::accHitTest
EXTRN	?GetConnectionMap@CCmdTarget@@MBEPBUAFX_CONNECTIONMAP@@XZ:NEAR ; CCmdTarget::GetConnectionMap
EXTRN	?accDoDefaultAction@CWnd@@UAEJUtagVARIANT@@@Z:NEAR ; CWnd::accDoDefaultAction
EXTRN	?put_accName@CWnd@@UAEJUtagVARIANT@@PA_W@Z:NEAR	; CWnd::put_accName
EXTRN	?put_accValue@CWnd@@UAEJUtagVARIANT@@PA_W@Z:NEAR ; CWnd::put_accValue
EXTRN	?SetProxy@CWnd@@UAEJPAUIAccessibleProxy@@@Z:NEAR ; CWnd::SetProxy
EXTRN	?CreateAccessibleProxy@CWnd@@UAEJIJPAJ@Z:NEAR	; CWnd::CreateAccessibleProxy
EXTRN	?GetEventSinkMap@CCmdTarget@@MBEPBUAFX_EVENTSINKMAP@@XZ:NEAR ; CCmdTarget::GetEventSinkMap
EXTRN	?OnCreateAggregates@CCmdTarget@@UAEHXZ:NEAR	; CCmdTarget::OnCreateAggregates
EXTRN	?OnCommand@CWnd@@MAEHIJ@Z:NEAR			; CWnd::OnCommand
EXTRN	?GetInterfaceHook@CCmdTarget@@UAEPAUIUnknown@@PBX@Z:NEAR ; CCmdTarget::GetInterfaceHook
EXTRN	?OnNotify@CWnd@@MAEHIJPAJ@Z:NEAR		; CWnd::OnNotify
EXTRN	?GetExtraConnectionPoints@CCmdTarget@@MAEHPAVCPtrArray@@@Z:NEAR ; CCmdTarget::GetExtraConnectionPoints
EXTRN	?GetConnectionHook@CCmdTarget@@MAEPAUIConnectionPoint@@ABU_GUID@@@Z:NEAR ; CCmdTarget::GetConnectionHook
EXTRN	??_EETSSplitter@@UAEPAXI@Z:NEAR			; ETSSplitter::`vector deleting destructor'
EXTRN	?PreSubclassWindow@CWnd@@UAEXXZ:NEAR		; CWnd::PreSubclassWindow
EXTRN	?Create@CWnd@@UAEHPBD0KABUtagRECT@@PAV1@IPAUCCreateContext@@@Z:NEAR ; CWnd::Create
EXTRN	?CreateEx@CWnd@@UAEHKPBD0KHHHHPAUHWND__@@PAUHMENU__@@PAX@Z:NEAR ; CWnd::CreateEx
EXTRN	?CreateEx@CWnd@@UAEHKPBD0KABUtagRECT@@PAV1@IPAX@Z:NEAR ; CWnd::CreateEx
EXTRN	?DestroyWindow@CWnd@@UAEHXZ:NEAR		; CWnd::DestroyWindow
EXTRN	?CalcWindowRect@CWnd@@UAEXPAUtagRECT@@I@Z:NEAR	; CWnd::CalcWindowRect
EXTRN	?GetSuperWndProcAddr@CWnd@@MAEPAP6GJPAUHWND__@@IIJ@ZXZ:NEAR ; CWnd::GetSuperWndProcAddr
EXTRN	??_7type_info@@6B@:QWORD			; type_info::`vftable'
EXTRN	?PreTranslateMessage@CWnd@@UAEHPAUtagMSG@@@Z:NEAR ; CWnd::PreTranslateMessage
EXTRN	?OnAmbientProperty@CWnd@@UAEHPAVCOleControlSite@@JPAUtagVARIANT@@@Z:NEAR ; CWnd::OnAmbientProperty
EXTRN	?WindowProc@CWnd@@MAEJIIJ@Z:NEAR		; CWnd::WindowProc
EXTRN	?OnWndMsg@CWnd@@MAEHIIJPAJ@Z:NEAR		; CWnd::OnWndMsg
EXTRN	?DefWindowProcA@CWnd@@MAEJIIJ@Z:NEAR		; CWnd::DefWindowProcA
EXTRN	?PostNcDestroy@CWnd@@MAEXXZ:NEAR		; CWnd::PostNcDestroy
EXTRN	?CheckAutoCenter@CWnd@@UAEHXZ:NEAR		; CWnd::CheckAutoCenter
EXTRN	?IsFrameWnd@CWnd@@UBEHXZ:NEAR			; CWnd::IsFrameWnd
EXTRN	?OnFinalRelease@CWnd@@UAEXXZ:NEAR		; CWnd::OnFinalRelease
;	COMDAT ??_7ETSSplitter@@6B@
CONST	SEGMENT
??_7ETSSplitter@@6B@ DD FLAT:??_R4ETSSplitter@@6B@	; ETSSplitter::`vftable'
	DD	FLAT:?GetRuntimeClass@ETSSplitter@@UBEPAUCRuntimeClass@@XZ
	DD	FLAT:??_EETSSplitter@@UAEPAXI@Z
	DD	FLAT:?Serialize@CObject@@UAEXAAVCArchive@@@Z
	DD	FLAT:?AssertValid@CObject@@UBEXXZ
	DD	FLAT:?Dump@CObject@@UBEXAAVCDumpContext@@@Z
	DD	FLAT:?OnCmdMsg@CCmdTarget@@UAEHIHPAXPAUAFX_CMDHANDLERINFO@@@Z
	DD	FLAT:?OnFinalRelease@CWnd@@UAEXXZ
	DD	FLAT:?IsInvokeAllowed@CCmdTarget@@UAEHJ@Z
	DD	FLAT:?GetDispatchIID@CCmdTarget@@UAEHPAU_GUID@@@Z
	DD	FLAT:?GetTypeInfoCount@CCmdTarget@@UAEIXZ
	DD	FLAT:?GetTypeLibCache@CCmdTarget@@UAEPAVCTypeLibCache@@XZ
	DD	FLAT:?GetTypeLib@CCmdTarget@@UAEJKPAPAUITypeLib@@@Z
	DD	FLAT:?GetMessageMap@ETSSplitter@@MBEPBUAFX_MSGMAP@@XZ
	DD	FLAT:?GetCommandMap@CCmdTarget@@MBEPBUAFX_OLECMDMAP@@XZ
	DD	FLAT:?GetDispatchMap@CCmdTarget@@MBEPBUAFX_DISPMAP@@XZ
	DD	FLAT:?GetConnectionMap@CCmdTarget@@MBEPBUAFX_CONNECTIONMAP@@XZ
	DD	FLAT:?GetInterfaceMap@CWnd@@MBEPBUAFX_INTERFACEMAP@@XZ
	DD	FLAT:?GetEventSinkMap@CCmdTarget@@MBEPBUAFX_EVENTSINKMAP@@XZ
	DD	FLAT:?OnCreateAggregates@CCmdTarget@@UAEHXZ
	DD	FLAT:?GetInterfaceHook@CCmdTarget@@UAEPAUIUnknown@@PBX@Z
	DD	FLAT:?GetExtraConnectionPoints@CCmdTarget@@MAEHPAVCPtrArray@@@Z
	DD	FLAT:?GetConnectionHook@CCmdTarget@@MAEPAUIConnectionPoint@@ABU_GUID@@@Z
	DD	FLAT:?PreSubclassWindow@CWnd@@UAEXXZ
	DD	FLAT:?Create@CWnd@@UAEHPBD0KABUtagRECT@@PAV1@IPAUCCreateContext@@@Z
	DD	FLAT:?CreateEx@CWnd@@UAEHKPBD0KABUtagRECT@@PAV1@IPAX@Z
	DD	FLAT:?CreateEx@CWnd@@UAEHKPBD0KHHHHPAUHWND__@@PAUHMENU__@@PAX@Z
	DD	FLAT:?DestroyWindow@CWnd@@UAEHXZ
	DD	FLAT:?PreCreateWindow@ETSSplitter@@MAEHAAUtagCREATESTRUCTA@@@Z
	DD	FLAT:?CalcWindowRect@CWnd@@UAEXPAUtagRECT@@I@Z
	DD	FLAT:?OnToolHitTest@CWnd@@UBEHVCPoint@@PAUtagTOOLINFOA@@@Z
	DD	FLAT:?GetScrollBarCtrl@CWnd@@UBEPAVCScrollBar@@H@Z
	DD	FLAT:?WinHelpA@CWnd@@UAEXKI@Z
	DD	FLAT:?HtmlHelpA@CWnd@@UAEXKI@Z
	DD	FLAT:?WinHelpInternal@CWnd@@UAEXKI@Z
	DD	FLAT:?ContinueModal@CWnd@@UAEHXZ
	DD	FLAT:?EndModalLoop@CWnd@@UAEXH@Z
	DD	FLAT:?EnsureStdObj@CWnd@@UAEJXZ
	DD	FLAT:?get_accParent@CWnd@@UAEJPAPAUIDispatch@@@Z
	DD	FLAT:?get_accChildCount@CWnd@@UAEJPAJ@Z
	DD	FLAT:?get_accChild@CWnd@@UAEJUtagVARIANT@@PAPAUIDispatch@@@Z
	DD	FLAT:?get_accName@CWnd@@UAEJUtagVARIANT@@PAPA_W@Z
	DD	FLAT:?get_accValue@CWnd@@UAEJUtagVARIANT@@PAPA_W@Z
	DD	FLAT:?get_accDescription@CWnd@@UAEJUtagVARIANT@@PAPA_W@Z
	DD	FLAT:?get_accRole@CWnd@@UAEJUtagVARIANT@@PAU2@@Z
	DD	FLAT:?get_accState@CWnd@@UAEJUtagVARIANT@@PAU2@@Z
	DD	FLAT:?get_accHelp@CWnd@@UAEJUtagVARIANT@@PAPA_W@Z
	DD	FLAT:?get_accHelpTopic@CWnd@@UAEJPAPA_WUtagVARIANT@@PAJ@Z
	DD	FLAT:?get_accKeyboardShortcut@CWnd@@UAEJUtagVARIANT@@PAPA_W@Z
	DD	FLAT:?get_accFocus@CWnd@@UAEJPAUtagVARIANT@@@Z
	DD	FLAT:?get_accSelection@CWnd@@UAEJPAUtagVARIANT@@@Z
	DD	FLAT:?get_accDefaultAction@CWnd@@UAEJUtagVARIANT@@PAPA_W@Z
	DD	FLAT:?accSelect@CWnd@@UAEJJUtagVARIANT@@@Z
	DD	FLAT:?accLocation@CWnd@@UAEJPAJ000UtagVARIANT@@@Z
	DD	FLAT:?accNavigate@CWnd@@UAEJJUtagVARIANT@@PAU2@@Z
	DD	FLAT:?accHitTest@CWnd@@UAEJJJPAUtagVARIANT@@@Z
	DD	FLAT:?accDoDefaultAction@CWnd@@UAEJUtagVARIANT@@@Z
	DD	FLAT:?put_accName@CWnd@@UAEJUtagVARIANT@@PA_W@Z
	DD	FLAT:?put_accValue@CWnd@@UAEJUtagVARIANT@@PA_W@Z
	DD	FLAT:?SetProxy@CWnd@@UAEJPAUIAccessibleProxy@@@Z
	DD	FLAT:?CreateAccessibleProxy@CWnd@@UAEJIJPAJ@Z
	DD	FLAT:?OnCommand@CWnd@@MAEHIJ@Z
	DD	FLAT:?OnNotify@CWnd@@MAEHIJPAJ@Z
	DD	FLAT:?GetSuperWndProcAddr@CWnd@@MAEPAP6GJPAUHWND__@@IIJ@ZXZ
	DD	FLAT:?DoDataExchange@CWnd@@MAEXPAVCDataExchange@@@Z
	DD	FLAT:?BeginModalState@CWnd@@UAEXXZ
	DD	FLAT:?EndModalState@CWnd@@UAEXXZ
	DD	FLAT:?PreTranslateMessage@CWnd@@UAEHPAUtagMSG@@@Z
	DD	FLAT:?OnAmbientProperty@CWnd@@UAEHPAVCOleControlSite@@JPAUtagVARIANT@@@Z
	DD	FLAT:?WindowProc@CWnd@@MAEJIIJ@Z
	DD	FLAT:?OnWndMsg@CWnd@@MAEHIIJPAJ@Z
	DD	FLAT:?DefWindowProcA@CWnd@@MAEJIIJ@Z
	DD	FLAT:?PostNcDestroy@CWnd@@MAEXXZ
	DD	FLAT:?OnChildNotify@CStatic@@MAEHIIJPAJ@Z
	DD	FLAT:?CheckAutoCenter@CWnd@@UAEHXZ
	DD	FLAT:?IsFrameWnd@CWnd@@UBEHXZ
	DD	FLAT:?CreateControlContainer@CWnd@@MAEHPAPAVCOleControlContainer@@@Z
	DD	FLAT:?CreateControlSite@CWnd@@MAEHPAVCOleControlContainer@@PAPAVCOleControlSite@@IABU_GUID@@@Z
	DD	FLAT:?SetOccDialogInfo@CWnd@@MAEHPAU_AFX_OCC_DIALOG_INFO@@@Z
	DD	FLAT:?Create@CStatic@@UAEHPBDKABUtagRECT@@PAVCWnd@@I@Z
	DD	FLAT:?DrawItem@CStatic@@UAEXPAUtagDRAWITEMSTRUCT@@@Z
	DD	FLAT:?CloseSplitter@ETSSplitter@@UAEXXZ
	DD	FLAT:?DrawVertBar@ETSSplitter@@MAEXH@Z
	DD	FLAT:?DrawHorizBar@ETSSplitter@@MAEXH@Z
	DD	FLAT:?ConstrainOffset@ETSSplitter@@MAEXXZ
CONST	ENDS
;	COMDAT ??_R4ETSSplitter@@6B@
rdata$r	SEGMENT
??_R4ETSSplitter@@6B@ DD 00H				; ETSSplitter::`RTTI Complete Object Locator'
	DD	00H
	DD	00H
	DD	FLAT:??_R0?AVETSSplitter@@@8
	DD	FLAT:??_R3ETSSplitter@@8
rdata$r	ENDS
;	COMDAT ??_R0?AVETSSplitter@@@8
_DATA	SEGMENT
??_R0?AVETSSplitter@@@8 DD FLAT:??_7type_info@@6B@	; ETSSplitter `RTTI Type Descriptor'
	DD	00H
	DB	'.?AVETSSplitter@@', 00H
_DATA	ENDS
;	COMDAT ??_R3ETSSplitter@@8
rdata$r	SEGMENT
??_R3ETSSplitter@@8 DD 00H				; ETSSplitter::`RTTI Class Hierarchy Descriptor'
	DD	00H
	DD	05H
	DD	FLAT:??_R2ETSSplitter@@8
rdata$r	ENDS
;	COMDAT ??_R2ETSSplitter@@8
rdata$r	SEGMENT
??_R2ETSSplitter@@8 DD FLAT:??_R1A@?0A@A@ETSSplitter@@8	; ETSSplitter::`RTTI Base Class Array'
	DD	FLAT:??_R1A@?0A@A@CStatic@@8
	DD	FLAT:??_R1A@?0A@A@CWnd@@8
	DD	FLAT:??_R1A@?0A@A@CCmdTarget@@8
	DD	FLAT:??_R1A@?0A@A@CObject@@8
rdata$r	ENDS
;	COMDAT ??_R1A@?0A@A@ETSSplitter@@8
rdata$r	SEGMENT
??_R1A@?0A@A@ETSSplitter@@8 DD FLAT:??_R0?AVETSSplitter@@@8 ; ETSSplitter::`RTTI Base Class Descriptor at (0,-1,0,0)'
	DD	04H
	DD	00H
	DD	0ffffffffH
	DD	00H
	DD	00H
rdata$r	ENDS
;	COMDAT ??_R1A@?0A@A@CStatic@@8
rdata$r	SEGMENT
??_R1A@?0A@A@CStatic@@8 DD FLAT:??_R0?AVCStatic@@@8	; CStatic::`RTTI Base Class Descriptor at (0,-1,0,0)'
	DD	03H
	DD	00H
	DD	0ffffffffH
	DD	00H
	DD	00H
rdata$r	ENDS
;	COMDAT ??_R0?AVCStatic@@@8
_DATA	SEGMENT
??_R0?AVCStatic@@@8 DD FLAT:??_7type_info@@6B@		; CStatic `RTTI Type Descriptor'
	DD	00H
	DB	'.?AVCStatic@@', 00H
_DATA	ENDS
;	COMDAT ??_R1A@?0A@A@CWnd@@8
rdata$r	SEGMENT
??_R1A@?0A@A@CWnd@@8 DD FLAT:??_R0?AVCWnd@@@8		; CWnd::`RTTI Base Class Descriptor at (0,-1,0,0)'
	DD	02H
	DD	00H
	DD	0ffffffffH
	DD	00H
	DD	00H
rdata$r	ENDS
;	COMDAT ??_R0?AVCWnd@@@8
_DATA	SEGMENT
??_R0?AVCWnd@@@8 DD FLAT:??_7type_info@@6B@		; CWnd `RTTI Type Descriptor'
	DD	00H
	DB	'.?AVCWnd@@', 00H
_DATA	ENDS
;	COMDAT ??_R1A@?0A@A@CCmdTarget@@8
rdata$r	SEGMENT
??_R1A@?0A@A@CCmdTarget@@8 DD FLAT:??_R0?AVCCmdTarget@@@8 ; CCmdTarget::`RTTI Base Class Descriptor at (0,-1,0,0)'
	DD	01H
	DD	00H
	DD	0ffffffffH
	DD	00H
	DD	00H
rdata$r	ENDS
;	COMDAT ??_R0?AVCCmdTarget@@@8
_DATA	SEGMENT
??_R0?AVCCmdTarget@@@8 DD FLAT:??_7type_info@@6B@	; CCmdTarget `RTTI Type Descriptor'
	DD	00H
	DB	'.?AVCCmdTarget@@', 00H
_DATA	ENDS
;	COMDAT ??_R1A@?0A@A@CObject@@8
rdata$r	SEGMENT
??_R1A@?0A@A@CObject@@8 DD FLAT:??_R0?AVCObject@@@8	; CObject::`RTTI Base Class Descriptor at (0,-1,0,0)'
	DD	00H
	DD	00H
	DD	0ffffffffH
	DD	00H
	DD	00H
rdata$r	ENDS
;	COMDAT ??_R0?AVCObject@@@8
_DATA	SEGMENT
??_R0?AVCObject@@@8 DD FLAT:??_7type_info@@6B@		; CObject `RTTI Type Descriptor'
	DD	00H
	DB	'.?AVCObject@@', 00H
; Function compile flags: /Odt
_DATA	ENDS
_TEXT	SEGMENT
_this$ = -4						; size = 4
_strName$ = 8						; size = 4
??0ETSSplitter@@QAE@PBD@Z PROC NEAR			; ETSSplitter::ETSSplitter
; _this$ = ecx

; 45   : {

  00020	55		 push	 ebp
  00021	8b ec		 mov	 ebp, esp
  00023	51		 push	 ecx
  00024	89 4d fc	 mov	 DWORD PTR _this$[ebp], ecx
  00027	8b 4d fc	 mov	 ecx, DWORD PTR _this$[ebp]
  0002a	e8 00 00 00 00	 call	 ??0CStatic@@QAE@XZ	; CStatic::CStatic
  0002f	8b 45 fc	 mov	 eax, DWORD PTR _this$[ebp]
  00032	c7 00 00 00 00
	00		 mov	 DWORD PTR [eax], OFFSET FLAT:??_7ETSSplitter@@6B@
  00038	8b 4d fc	 mov	 ecx, DWORD PTR _this$[ebp]
  0003b	81 c1 bc 00 00
	00		 add	 ecx, 188		; 000000bcH
  00041	ff 15 00 00 00
	00		 call	 DWORD PTR __imp_??0?$CStringT@DV?$StrTraitMFC_DLL@DV?$ChTraitsCRT@D@ATL@@@@@ATL@@QAE@XZ

; 46   : 	m_bHorizSplitter = true;

  00047	8b 4d fc	 mov	 ecx, DWORD PTR _this$[ebp]
  0004a	c6 41 54 01	 mov	 BYTE PTR [ecx+84], 1

; 47   : 	m_bMouseButtonDownOnTheBar = false;

  0004e	8b 55 fc	 mov	 edx, DWORD PTR _this$[ebp]
  00051	c6 42 55 00	 mov	 BYTE PTR [edx+85], 0

; 48   : 	m_bSlim = false;

  00055	8b 45 fc	 mov	 eax, DWORD PTR _this$[ebp]
  00058	c6 40 61 00	 mov	 BYTE PTR [eax+97], 0

; 49   : 	bTrackLeave = FALSE;

  0005c	8b 4d fc	 mov	 ecx, DWORD PTR _this$[ebp]
  0005f	c7 81 b8 00 00
	00 00 00 00 00	 mov	 DWORD PTR [ecx+184], 0

; 50   : 	m_pane = NULL;

  00069	8b 55 fc	 mov	 edx, DWORD PTR _this$[ebp]
  0006c	c7 82 b0 00 00
	00 00 00 00 00	 mov	 DWORD PTR [edx+176], 0

; 51   : 	//m_nSplAbsolutePos = 0;
; 52   : }

  00076	8b 45 fc	 mov	 eax, DWORD PTR _this$[ebp]
  00079	8b e5		 mov	 esp, ebp
  0007b	5d		 pop	 ebp
  0007c	c2 04 00	 ret	 4
??0ETSSplitter@@QAE@PBD@Z ENDP				; ETSSplitter::ETSSplitter
_TEXT	ENDS
PUBLIC	??3CObject@@SGXPAX@Z				; CObject::operator delete
PUBLIC	??1ETSSplitter@@UAE@XZ				; ETSSplitter::~ETSSplitter
; Function compile flags: /Odt
;	COMDAT ??_GETSSplitter@@UAEPAXI@Z
_TEXT	SEGMENT
_this$ = -4						; size = 4
___flags$ = 8						; size = 4
??_GETSSplitter@@UAEPAXI@Z PROC NEAR			; ETSSplitter::`scalar deleting destructor', COMDAT
; _this$ = ecx
  00000	55		 push	 ebp
  00001	8b ec		 mov	 ebp, esp
  00003	51		 push	 ecx
  00004	89 4d fc	 mov	 DWORD PTR _this$[ebp], ecx
  00007	8b 4d fc	 mov	 ecx, DWORD PTR _this$[ebp]
  0000a	e8 00 00 00 00	 call	 ??1ETSSplitter@@UAE@XZ	; ETSSplitter::~ETSSplitter
  0000f	8b 45 08	 mov	 eax, DWORD PTR ___flags$[ebp]
  00012	83 e0 01	 and	 eax, 1
  00015	74 09		 je	 SHORT $L200797
  00017	8b 4d fc	 mov	 ecx, DWORD PTR _this$[ebp]
  0001a	51		 push	 ecx
  0001b	e8 00 00 00 00	 call	 ??3CObject@@SGXPAX@Z	; CObject::operator delete
$L200797:
  00020	8b 45 fc	 mov	 eax, DWORD PTR _this$[ebp]
  00023	8b e5		 mov	 esp, ebp
  00025	5d		 pop	 ebp
  00026	c2 04 00	 ret	 4
??_GETSSplitter@@UAEPAXI@Z ENDP				; ETSSplitter::`scalar deleting destructor'
_TEXT	ENDS
PUBLIC	?GetThisMessageMap@ETSSplitter@@KGPBUAFX_MSGMAP@@XZ ; ETSSplitter::GetThisMessageMap
; Function compile flags: /Odt
_TEXT	SEGMENT
?GetThisMessageMap@ETSSplitter@@KGPBUAFX_MSGMAP@@XZ PROC NEAR ; ETSSplitter::GetThisMessageMap

; 55   : BEGIN_MESSAGE_MAP(ETSSplitter, CStatic)

  00080	55		 push	 ebp
  00081	8b ec		 mov	 ebp, esp
  00083	b8 00 00 00 00	 mov	 eax, OFFSET FLAT:?messageMap@ETSSplitter@@1UAFX_MSGMAP@@B ; ETSSplitter::messageMap
  00088	5d		 pop	 ebp
  00089	c3		 ret	 0
?GetThisMessageMap@ETSSplitter@@KGPBUAFX_MSGMAP@@XZ ENDP ; ETSSplitter::GetThisMessageMap
; Function compile flags: /Odt
_this$ = -4						; size = 4
?GetMessageMap@ETSSplitter@@MBEPBUAFX_MSGMAP@@XZ PROC NEAR ; ETSSplitter::GetMessageMap
; _this$ = ecx

; 55   : BEGIN_MESSAGE_MAP(ETSSplitter, CStatic)

  00090	55		 push	 ebp
  00091	8b ec		 mov	 ebp, esp
  00093	51		 push	 ecx
  00094	89 4d fc	 mov	 DWORD PTR _this$[ebp], ecx
  00097	b8 00 00 00 00	 mov	 eax, OFFSET FLAT:?messageMap@ETSSplitter@@1UAFX_MSGMAP@@B ; ETSSplitter::messageMap
  0009c	8b e5		 mov	 esp, ebp
  0009e	5d		 pop	 ebp
  0009f	c3		 ret	 0
?GetMessageMap@ETSSplitter@@MBEPBUAFX_MSGMAP@@XZ ENDP	; ETSSplitter::GetMessageMap
_TEXT	ENDS
PUBLIC	?SetSlim@ETSSplitter@@QAEX_N@Z			; ETSSplitter::SetSlim
; Function compile flags: /Odt
_TEXT	SEGMENT
_this$ = -4						; size = 4
_bSlim$ = 8						; size = 1
?SetSlim@ETSSplitter@@QAEX_N@Z PROC NEAR		; ETSSplitter::SetSlim
; _this$ = ecx

; 74   : {

  000a0	55		 push	 ebp
  000a1	8b ec		 mov	 ebp, esp
  000a3	51		 push	 ecx
  000a4	89 4d fc	 mov	 DWORD PTR _this$[ebp], ecx

; 75   : 	m_bSlim = bSlim;

  000a7	8b 45 fc	 mov	 eax, DWORD PTR _this$[ebp]
  000aa	8a 4d 08	 mov	 cl, BYTE PTR _bSlim$[ebp]
  000ad	88 48 61	 mov	 BYTE PTR [eax+97], cl

; 76   : }

  000b0	8b e5		 mov	 esp, ebp
  000b2	5d		 pop	 ebp
  000b3	c2 04 00	 ret	 4
?SetSlim@ETSSplitter@@QAEX_N@Z ENDP			; ETSSplitter::SetSlim
_TEXT	ENDS
PUBLIC	?SetBitmap@ETSSplitter@@QAEXPAVCDibBitmap@@000000000@Z ; ETSSplitter::SetBitmap
; Function compile flags: /Odt
_TEXT	SEGMENT
_this$ = -4						; size = 4
_vert$ = 8						; size = 4
_horz$ = 12						; size = 4
_right$ = 16						; size = 4
_left$ = 20						; size = 4
_up$ = 24						; size = 4
_down$ = 28						; size = 4
_right_over$ = 32					; size = 4
_left_over$ = 36					; size = 4
_up_over$ = 40						; size = 4
_down_over$ = 44					; size = 4
?SetBitmap@ETSSplitter@@QAEXPAVCDibBitmap@@000000000@Z PROC NEAR ; ETSSplitter::SetBitmap
; _this$ = ecx

; 103  : {

  000c0	55		 push	 ebp
  000c1	8b ec		 mov	 ebp, esp
  000c3	51		 push	 ecx
  000c4	89 4d fc	 mov	 DWORD PTR _this$[ebp], ecx

; 104  : 	m_bVert = vert;

  000c7	8b 45 fc	 mov	 eax, DWORD PTR _this$[ebp]
  000ca	8b 4d 08	 mov	 ecx, DWORD PTR _vert$[ebp]
  000cd	89 88 94 00 00
	00		 mov	 DWORD PTR [eax+148], ecx

; 105  : 	m_bHorz= horz;

  000d3	8b 55 fc	 mov	 edx, DWORD PTR _this$[ebp]
  000d6	8b 45 0c	 mov	 eax, DWORD PTR _horz$[ebp]
  000d9	89 82 98 00 00
	00		 mov	 DWORD PTR [edx+152], eax

; 106  : 	m_bBarRight = right;

  000df	8b 4d fc	 mov	 ecx, DWORD PTR _this$[ebp]
  000e2	8b 55 10	 mov	 edx, DWORD PTR _right$[ebp]
  000e5	89 91 9c 00 00
	00		 mov	 DWORD PTR [ecx+156], edx

; 107  : 	m_bBarLeft = left;

  000eb	8b 45 fc	 mov	 eax, DWORD PTR _this$[ebp]
  000ee	8b 4d 14	 mov	 ecx, DWORD PTR _left$[ebp]
  000f1	89 88 a0 00 00
	00		 mov	 DWORD PTR [eax+160], ecx

; 108  : 	m_bBarUp = up;

  000f7	8b 55 fc	 mov	 edx, DWORD PTR _this$[ebp]
  000fa	8b 45 18	 mov	 eax, DWORD PTR _up$[ebp]
  000fd	89 82 a4 00 00
	00		 mov	 DWORD PTR [edx+164], eax

; 109  : 	m_bBarDown = down;

  00103	8b 4d fc	 mov	 ecx, DWORD PTR _this$[ebp]
  00106	8b 55 1c	 mov	 edx, DWORD PTR _down$[ebp]
  00109	89 91 a8 00 00
	00		 mov	 DWORD PTR [ecx+168], edx

; 110  : 
; 111  : 	m_bSpliterBarDown = down;

  0010f	8b 45 fc	 mov	 eax, DWORD PTR _this$[ebp]
  00112	8b 4d 1c	 mov	 ecx, DWORD PTR _down$[ebp]
  00115	89 48 78	 mov	 DWORD PTR [eax+120], ecx

; 112  : 	m_bSpliterBarUp = up;

  00118	8b 55 fc	 mov	 edx, DWORD PTR _this$[ebp]
  0011b	8b 45 18	 mov	 eax, DWORD PTR _up$[ebp]
  0011e	89 42 74	 mov	 DWORD PTR [edx+116], eax

; 113  : 	m_bSpliterBarRight = right;

  00121	8b 4d fc	 mov	 ecx, DWORD PTR _this$[ebp]
  00124	8b 55 10	 mov	 edx, DWORD PTR _right$[ebp]
  00127	89 51 6c	 mov	 DWORD PTR [ecx+108], edx

; 114  : 	m_bSpliterBarLeft = left;

  0012a	8b 45 fc	 mov	 eax, DWORD PTR _this$[ebp]
  0012d	8b 4d 14	 mov	 ecx, DWORD PTR _left$[ebp]
  00130	89 48 70	 mov	 DWORD PTR [eax+112], ecx

; 115  : 
; 116  : 	m_bSpliterBarDownOver = down_over;

  00133	8b 55 fc	 mov	 edx, DWORD PTR _this$[ebp]
  00136	8b 45 2c	 mov	 eax, DWORD PTR _down_over$[ebp]
  00139	89 82 90 00 00
	00		 mov	 DWORD PTR [edx+144], eax

; 117  : 	m_bSpliterBarUpOver = up_over;

  0013f	8b 4d fc	 mov	 ecx, DWORD PTR _this$[ebp]
  00142	8b 55 28	 mov	 edx, DWORD PTR _up_over$[ebp]
  00145	89 91 8c 00 00
	00		 mov	 DWORD PTR [ecx+140], edx

; 118  : 	m_bSpliterBarRightOver = right_over;

  0014b	8b 45 fc	 mov	 eax, DWORD PTR _this$[ebp]
  0014e	8b 4d 20	 mov	 ecx, DWORD PTR _right_over$[ebp]
  00151	89 88 84 00 00
	00		 mov	 DWORD PTR [eax+132], ecx

; 119  : 	m_bSpliterBarLeftOver = left_over;

  00157	8b 55 fc	 mov	 edx, DWORD PTR _this$[ebp]
  0015a	8b 45 24	 mov	 eax, DWORD PTR _left_over$[ebp]
  0015d	89 82 88 00 00
	00		 mov	 DWORD PTR [edx+136], eax

; 120  : }

  00163	8b e5		 mov	 esp, ebp
  00165	5d		 pop	 ebp
  00166	c2 28 00	 ret	 40			; 00000028H
?SetBitmap@ETSSplitter@@QAEXPAVCDibBitmap@@000000000@Z ENDP ; ETSSplitter::SetBitmap
_TEXT	ENDS
PUBLIC	?OnEraseBkgnd@CWnd@@IAEHPAVCDC@@@Z		; CWnd::OnEraseBkgnd
; Function compile flags: /Odt
_TEXT	SEGMENT
_this$ = -4						; size = 4
_pDC$ = 8						; size = 4
?OnEraseBkgnd@ETSSplitter@@IAEHPAVCDC@@@Z PROC NEAR	; ETSSplitter::OnEraseBkgnd
; _this$ = ecx

; 148  : {

  00170	55		 push	 ebp
  00171	8b ec		 mov	 ebp, esp
  00173	51		 push	 ecx
  00174	89 4d fc	 mov	 DWORD PTR _this$[ebp], ecx

; 149  : 	CWnd::OnEraseBkgnd(pDC);

  00177	8b 45 08	 mov	 eax, DWORD PTR _pDC$[ebp]
  0017a	50		 push	 eax
  0017b	8b 4d fc	 mov	 ecx, DWORD PTR _this$[ebp]
  0017e	e8 00 00 00 00	 call	 ?OnEraseBkgnd@CWnd@@IAEHPAVCDC@@@Z ; CWnd::OnEraseBkgnd

; 150  : 	return true;

  00183	b8 01 00 00 00	 mov	 eax, 1

; 151  : }

  00188	8b e5		 mov	 esp, ebp
  0018a	5d		 pop	 ebp
  0018b	c2 04 00	 ret	 4
?OnEraseBkgnd@ETSSplitter@@IAEHPAVCDC@@@Z ENDP		; ETSSplitter::OnEraseBkgnd
_TEXT	ENDS
PUBLIC	??0CSize@@QAE@XZ				; CSize::CSize
PUBLIC	?GetSplSize@ETSSplitter@@QAEHXZ			; ETSSplitter::GetSplSize
EXTRN	?GetDimensions@CDib@@QAE?AVCSize@@XZ:NEAR	; CDib::GetDimensions
; Function compile flags: /Odt
_TEXT	SEGMENT
_this$ = -32						; size = 4
$T202835 = -28						; size = 8
$T202834 = -20						; size = 8
_size$ = -12						; size = 8
_nSize$ = -4						; size = 4
?GetSplSize@ETSSplitter@@QAEHXZ PROC NEAR		; ETSSplitter::GetSplSize
; _this$ = ecx

; 154  : {

  00190	55		 push	 ebp
  00191	8b ec		 mov	 ebp, esp
  00193	83 ec 20	 sub	 esp, 32			; 00000020H
  00196	89 4d e0	 mov	 DWORD PTR _this$[ebp], ecx

; 155  : 	int nSize = 0;

  00199	c7 45 fc 00 00
	00 00		 mov	 DWORD PTR _nSize$[ebp], 0

; 156  : 	//CSize size = m_bVert->GetDimensions();
; 157  : 
; 158  : 	CSize size;

  001a0	8d 4d f4	 lea	 ecx, DWORD PTR _size$[ebp]
  001a3	e8 00 00 00 00	 call	 ??0CSize@@QAE@XZ	; CSize::CSize

; 159  : 	if(!m_bHorizSplitter)

  001a8	8b 45 e0	 mov	 eax, DWORD PTR _this$[ebp]
  001ab	0f b6 48 54	 movzx	 ecx, BYTE PTR [eax+84]
  001af	85 c9		 test	 ecx, ecx
  001b1	75 25		 jne	 SHORT $L200880

; 160  : 	{
; 161  : 		size = m_bVert->GetDimensions();

  001b3	8d 55 ec	 lea	 edx, DWORD PTR $T202834[ebp]
  001b6	52		 push	 edx
  001b7	8b 45 e0	 mov	 eax, DWORD PTR _this$[ebp]
  001ba	8b 88 94 00 00
	00		 mov	 ecx, DWORD PTR [eax+148]
  001c0	e8 00 00 00 00	 call	 ?GetDimensions@CDib@@QAE?AVCSize@@XZ ; CDib::GetDimensions
  001c5	8b 08		 mov	 ecx, DWORD PTR [eax]
  001c7	8b 50 04	 mov	 edx, DWORD PTR [eax+4]
  001ca	89 4d f4	 mov	 DWORD PTR _size$[ebp], ecx
  001cd	89 55 f8	 mov	 DWORD PTR _size$[ebp+4], edx

; 162  : 		nSize = size.cx;

  001d0	8b 45 f4	 mov	 eax, DWORD PTR _size$[ebp]
  001d3	89 45 fc	 mov	 DWORD PTR _nSize$[ebp], eax

; 163  : 	}
; 164  : 	else

  001d6	eb 23		 jmp	 SHORT $L200882
$L200880:

; 165  : 	{
; 166  : 		size = m_bHorz->GetDimensions();

  001d8	8d 4d e4	 lea	 ecx, DWORD PTR $T202835[ebp]
  001db	51		 push	 ecx
  001dc	8b 55 e0	 mov	 edx, DWORD PTR _this$[ebp]
  001df	8b 8a 98 00 00
	00		 mov	 ecx, DWORD PTR [edx+152]
  001e5	e8 00 00 00 00	 call	 ?GetDimensions@CDib@@QAE?AVCSize@@XZ ; CDib::GetDimensions
  001ea	8b 08		 mov	 ecx, DWORD PTR [eax]
  001ec	8b 50 04	 mov	 edx, DWORD PTR [eax+4]
  001ef	89 4d f4	 mov	 DWORD PTR _size$[ebp], ecx
  001f2	89 55 f8	 mov	 DWORD PTR _size$[ebp+4], edx

; 167  : 		nSize = size.cy;

  001f5	8b 45 f8	 mov	 eax, DWORD PTR _size$[ebp+4]
  001f8	89 45 fc	 mov	 DWORD PTR _nSize$[ebp], eax
$L200882:

; 168  : 	}
; 169  : 
; 170  : 	return nSize;

  001fb	8b 45 fc	 mov	 eax, DWORD PTR _nSize$[ebp]

; 171  : }

  001fe	8b e5		 mov	 esp, ebp
  00200	5d		 pop	 ebp
  00201	c3		 ret	 0
?GetSplSize@ETSSplitter@@QAEHXZ ENDP			; ETSSplitter::GetSplSize
_TEXT	ENDS
PUBLIC	?GetClientRect@CWnd@@QBEXPAUtagRECT@@@Z		; CWnd::GetClientRect
PUBLIC	??0CRect@@QAE@XZ				; CRect::CRect
PUBLIC	??0CRect@@QAE@HHHH@Z				; CRect::CRect
PUBLIC	?CenterPoint@CRect@@QBE?AVCPoint@@XZ		; CRect::CenterPoint
PUBLIC	??BCRect@@QAEPAUtagRECT@@XZ			; CRect::operator tagRECT *
EXTRN	__except_list:DWORD
EXTRN	___CxxFrameHandler:NEAR
EXTRN	?Draw@CDibBitmap@@QAEHPAVCDC@@HKH@Z:NEAR	; CDibBitmap::Draw
EXTRN	?SetCDibRect@CDibBitmap@@QAEXVCRect@@@Z:NEAR	; CDibBitmap::SetCDibRect
EXTRN	?GetWidth@CDibBitmap@@QAEHXZ:NEAR		; CDibBitmap::GetWidth
EXTRN	?GetHeight@CDibBitmap@@QAEHXZ:NEAR		; CDibBitmap::GetHeight
EXTRN	?IsClosed@PaneSplitter@ETSLayoutMgr@@QAEHXZ:NEAR ; ETSLayoutMgr::PaneSplitter::IsClosed
EXTRN	??0CPaintDC@@QAE@PAVCWnd@@@Z:NEAR		; CPaintDC::CPaintDC
EXTRN	??1CPaintDC@@UAE@XZ:NEAR			; CPaintDC::~CPaintDC
xdata$x	SEGMENT
$T202848 DD	0ffffffffH
	DD	FLAT:$L202838
$T202842 DD	019930520H
	DD	01H
	DD	FLAT:$T202848
	DD	2 DUP(00H)
	DD	2 DUP(00H)
; Function compile flags: /Odt
xdata$x	ENDS
_TEXT	SEGMENT
_this$ = -180						; size = 4
_r$200906 = -176					; size = 16
_w$200905 = -160					; size = 4
_r$200900 = -156					; size = 16
_h$200898 = -140					; size = 4
_w$200899 = -136					; size = 4
_dc$ = -132						; size = 84
__$ArrayPad$ = -44					; size = 4
_rect$ = -40						; size = 16
_bSplOri$ = -21						; size = 1
_p$ = -20						; size = 8
__$EHRec$ = -12						; size = 12
__$ReturnAddr$ = 4					; size = 4
?OnPaint@ETSSplitter@@IAEXXZ PROC NEAR			; ETSSplitter::OnPaint
; _this$ = ecx

; 173  : {

  00210	55		 push	 ebp
  00211	8b ec		 mov	 ebp, esp
  00213	6a ff		 push	 -1
  00215	68 00 00 00 00	 push	 __ehhandler$?OnPaint@ETSSplitter@@IAEXXZ
  0021a	64 a1 00 00 00
	00		 mov	 eax, DWORD PTR fs:__except_list
  00220	50		 push	 eax
  00221	64 89 25 00 00
	00 00		 mov	 DWORD PTR fs:__except_list, esp
  00228	81 ec a8 00 00
	00		 sub	 esp, 168		; 000000a8H
  0022e	a1 00 00 00 00	 mov	 eax, DWORD PTR ___security_cookie
  00233	89 45 d4	 mov	 DWORD PTR __$ArrayPad$[ebp], eax
  00236	89 8d 4c ff ff
	ff		 mov	 DWORD PTR _this$[ebp], ecx

; 174  : 	
; 175  : 	CPaintDC dc(this); 

  0023c	8b 85 4c ff ff
	ff		 mov	 eax, DWORD PTR _this$[ebp]
  00242	50		 push	 eax
  00243	8d 8d 7c ff ff
	ff		 lea	 ecx, DWORD PTR _dc$[ebp]
  00249	e8 00 00 00 00	 call	 ??0CPaintDC@@QAE@PAVCWnd@@@Z ; CPaintDC::CPaintDC
  0024e	c7 45 fc 00 00
	00 00		 mov	 DWORD PTR __$EHRec$[ebp+8], 0

; 176  : 
; 177  : 	CRect rect;

  00255	8d 4d d8	 lea	 ecx, DWORD PTR _rect$[ebp]
  00258	e8 00 00 00 00	 call	 ??0CRect@@QAE@XZ	; CRect::CRect

; 178  : 	GetClientRect(rect);	

  0025d	8d 4d d8	 lea	 ecx, DWORD PTR _rect$[ebp]
  00260	e8 00 00 00 00	 call	 ??BCRect@@QAEPAUtagRECT@@XZ ; CRect::operator tagRECT *
  00265	50		 push	 eax
  00266	8b 8d 4c ff ff
	ff		 mov	 ecx, DWORD PTR _this$[ebp]
  0026c	e8 00 00 00 00	 call	 ?GetClientRect@CWnd@@QBEXPAUtagRECT@@@Z ; CWnd::GetClientRect

; 179  : 	CPoint p = rect.CenterPoint();

  00271	8d 4d ec	 lea	 ecx, DWORD PTR _p$[ebp]
  00274	51		 push	 ecx
  00275	8d 4d d8	 lea	 ecx, DWORD PTR _rect$[ebp]
  00278	e8 00 00 00 00	 call	 ?CenterPoint@CRect@@QBE?AVCPoint@@XZ ; CRect::CenterPoint

; 180  : 	bool bSplOri = 0;

  0027d	c6 45 eb 00	 mov	 BYTE PTR _bSplOri$[ebp], 0

; 181  : 
; 182  : 	if( (!m_pane->IsClosed() && m_pane->m_nClosedOri == 0)
; 183  : 		||(m_pane->IsClosed() && m_pane->m_nClosedOri == 1))

  00281	8b 95 4c ff ff
	ff		 mov	 edx, DWORD PTR _this$[ebp]
  00287	8b 8a b0 00 00
	00		 mov	 ecx, DWORD PTR [edx+176]
  0028d	e8 00 00 00 00	 call	 ?IsClosed@PaneSplitter@ETSLayoutMgr@@QAEHXZ ; ETSLayoutMgr::PaneSplitter::IsClosed
  00292	85 c0		 test	 eax, eax
  00294	75 15		 jne	 SHORT $L200894
  00296	8b 85 4c ff ff
	ff		 mov	 eax, DWORD PTR _this$[ebp]
  0029c	8b 88 b0 00 00
	00		 mov	 ecx, DWORD PTR [eax+176]
  002a2	83 b9 84 00 00
	00 00		 cmp	 DWORD PTR [ecx+132], 0
  002a9	74 2a		 je	 SHORT $L200893
$L200894:
  002ab	8b 95 4c ff ff
	ff		 mov	 edx, DWORD PTR _this$[ebp]
  002b1	8b 8a b0 00 00
	00		 mov	 ecx, DWORD PTR [edx+176]
  002b7	e8 00 00 00 00	 call	 ?IsClosed@PaneSplitter@ETSLayoutMgr@@QAEHXZ ; ETSLayoutMgr::PaneSplitter::IsClosed
  002bc	85 c0		 test	 eax, eax
  002be	74 1b		 je	 SHORT $L200892
  002c0	8b 85 4c ff ff
	ff		 mov	 eax, DWORD PTR _this$[ebp]
  002c6	8b 88 b0 00 00
	00		 mov	 ecx, DWORD PTR [eax+176]
  002cc	83 b9 84 00 00
	00 01		 cmp	 DWORD PTR [ecx+132], 1
  002d3	75 06		 jne	 SHORT $L200892
$L200893:

; 184  : 		bSplOri = 0;

  002d5	c6 45 eb 00	 mov	 BYTE PTR _bSplOri$[ebp], 0

; 185  : 	else

  002d9	eb 04		 jmp	 SHORT $L200895
$L200892:

; 186  : 		bSplOri = 1;

  002db	c6 45 eb 01	 mov	 BYTE PTR _bSplOri$[ebp], 1
$L200895:

; 187  : 	//
; 188  : 	if(!m_bHorizSplitter)

  002df	8b 95 4c ff ff
	ff		 mov	 edx, DWORD PTR _this$[ebp]
  002e5	0f b6 42 54	 movzx	 eax, BYTE PTR [edx+84]
  002e9	85 c0		 test	 eax, eax
  002eb	0f 85 bd 01 00
	00		 jne	 $L200896

; 189  : 	{
; 190  : 		m_bVert->SetCDibRect(rect);

  002f1	83 ec 10	 sub	 esp, 16			; 00000010H
  002f4	8b cc		 mov	 ecx, esp
  002f6	8b 55 d8	 mov	 edx, DWORD PTR _rect$[ebp]
  002f9	89 11		 mov	 DWORD PTR [ecx], edx
  002fb	8b 45 dc	 mov	 eax, DWORD PTR _rect$[ebp+4]
  002fe	89 41 04	 mov	 DWORD PTR [ecx+4], eax
  00301	8b 55 e0	 mov	 edx, DWORD PTR _rect$[ebp+8]
  00304	89 51 08	 mov	 DWORD PTR [ecx+8], edx
  00307	8b 45 e4	 mov	 eax, DWORD PTR _rect$[ebp+12]
  0030a	89 41 0c	 mov	 DWORD PTR [ecx+12], eax
  0030d	8b 8d 4c ff ff
	ff		 mov	 ecx, DWORD PTR _this$[ebp]
  00313	8b 89 94 00 00
	00		 mov	 ecx, DWORD PTR [ecx+148]
  00319	e8 00 00 00 00	 call	 ?SetCDibRect@CDibBitmap@@QAEXVCRect@@@Z ; CDibBitmap::SetCDibRect

; 191  : 		m_bVert->Draw(&dc, false);

  0031e	6a 01		 push	 1
  00320	6a 00		 push	 0
  00322	6a 00		 push	 0
  00324	8d 95 7c ff ff
	ff		 lea	 edx, DWORD PTR _dc$[ebp]
  0032a	52		 push	 edx
  0032b	8b 85 4c ff ff
	ff		 mov	 eax, DWORD PTR _this$[ebp]
  00331	8b 88 94 00 00
	00		 mov	 ecx, DWORD PTR [eax+148]
  00337	e8 00 00 00 00	 call	 ?Draw@CDibBitmap@@QAEHPAVCDC@@HKH@Z ; CDibBitmap::Draw

; 192  : 
; 193  : 		if(!m_bHideCloseBtn)

  0033c	8b 8d 4c ff ff
	ff		 mov	 ecx, DWORD PTR _this$[ebp]
  00342	0f b6 51 60	 movzx	 edx, BYTE PTR [ecx+96]
  00346	85 d2		 test	 edx, edx
  00348	0f 85 5b 01 00
	00		 jne	 $L200897

; 194  : 		{
; 195  : 			int h = this->m_bBarLeft->GetHeight();

  0034e	8b 85 4c ff ff
	ff		 mov	 eax, DWORD PTR _this$[ebp]
  00354	8b 88 a0 00 00
	00		 mov	 ecx, DWORD PTR [eax+160]
  0035a	e8 00 00 00 00	 call	 ?GetHeight@CDibBitmap@@QAEHXZ ; CDibBitmap::GetHeight
  0035f	89 85 74 ff ff
	ff		 mov	 DWORD PTR _h$200898[ebp], eax

; 196  : 			int w = this->m_bBarLeft->GetWidth();

  00365	8b 8d 4c ff ff
	ff		 mov	 ecx, DWORD PTR _this$[ebp]
  0036b	8b 89 a0 00 00
	00		 mov	 ecx, DWORD PTR [ecx+160]
  00371	e8 00 00 00 00	 call	 ?GetWidth@CDibBitmap@@QAEHXZ ; CDibBitmap::GetWidth
  00376	89 85 78 ff ff
	ff		 mov	 DWORD PTR _w$200899[ebp], eax

; 197  : 
; 198  : 			CRect r(p.x - w/2, p.y - h/2, p.x + w/2 + w%2 , p.y + h/2 + h%2);

  0037c	8b 85 74 ff ff
	ff		 mov	 eax, DWORD PTR _h$200898[ebp]
  00382	99		 cdq
  00383	2b c2		 sub	 eax, edx
  00385	d1 f8		 sar	 eax, 1
  00387	03 45 f0	 add	 eax, DWORD PTR _p$[ebp+4]
  0038a	8b 95 74 ff ff
	ff		 mov	 edx, DWORD PTR _h$200898[ebp]
  00390	81 e2 01 00 00
	80		 and	 edx, -2147483647	; 80000001H
  00396	79 05		 jns	 SHORT $L202846
  00398	4a		 dec	 edx
  00399	83 ca fe	 or	 edx, -2			; fffffffeH
  0039c	42		 inc	 edx
$L202846:
  0039d	03 c2		 add	 eax, edx
  0039f	50		 push	 eax
  003a0	8b 85 78 ff ff
	ff		 mov	 eax, DWORD PTR _w$200899[ebp]
  003a6	99		 cdq
  003a7	2b c2		 sub	 eax, edx
  003a9	d1 f8		 sar	 eax, 1
  003ab	03 45 ec	 add	 eax, DWORD PTR _p$[ebp]
  003ae	8b 8d 78 ff ff
	ff		 mov	 ecx, DWORD PTR _w$200899[ebp]
  003b4	81 e1 01 00 00
	80		 and	 ecx, -2147483647	; 80000001H
  003ba	79 05		 jns	 SHORT $L202847
  003bc	49		 dec	 ecx
  003bd	83 c9 fe	 or	 ecx, -2			; fffffffeH
  003c0	41		 inc	 ecx
$L202847:
  003c1	03 c1		 add	 eax, ecx
  003c3	50		 push	 eax
  003c4	8b 85 74 ff ff
	ff		 mov	 eax, DWORD PTR _h$200898[ebp]
  003ca	99		 cdq
  003cb	2b c2		 sub	 eax, edx
  003cd	d1 f8		 sar	 eax, 1
  003cf	8b 55 f0	 mov	 edx, DWORD PTR _p$[ebp+4]
  003d2	2b d0		 sub	 edx, eax
  003d4	52		 push	 edx
  003d5	8b 85 78 ff ff
	ff		 mov	 eax, DWORD PTR _w$200899[ebp]
  003db	99		 cdq
  003dc	2b c2		 sub	 eax, edx
  003de	d1 f8		 sar	 eax, 1
  003e0	8b 4d ec	 mov	 ecx, DWORD PTR _p$[ebp]
  003e3	2b c8		 sub	 ecx, eax
  003e5	51		 push	 ecx
  003e6	8d 8d 64 ff ff
	ff		 lea	 ecx, DWORD PTR _r$200900[ebp]
  003ec	e8 00 00 00 00	 call	 ??0CRect@@QAE@HHHH@Z	; CRect::CRect

; 199  : 
; 200  : 			if(bSplOri == 0)

  003f1	0f b6 55 eb	 movzx	 edx, BYTE PTR _bSplOri$[ebp]
  003f5	85 d2		 test	 edx, edx
  003f7	75 59		 jne	 SHORT $L200901

; 201  : 			{
; 202  : 				m_bBarLeft->SetCDibRect(r);

  003f9	83 ec 10	 sub	 esp, 16			; 00000010H
  003fc	8b c4		 mov	 eax, esp
  003fe	8b 8d 64 ff ff
	ff		 mov	 ecx, DWORD PTR _r$200900[ebp]
  00404	89 08		 mov	 DWORD PTR [eax], ecx
  00406	8b 95 68 ff ff
	ff		 mov	 edx, DWORD PTR _r$200900[ebp+4]
  0040c	89 50 04	 mov	 DWORD PTR [eax+4], edx
  0040f	8b 8d 6c ff ff
	ff		 mov	 ecx, DWORD PTR _r$200900[ebp+8]
  00415	89 48 08	 mov	 DWORD PTR [eax+8], ecx
  00418	8b 95 70 ff ff
	ff		 mov	 edx, DWORD PTR _r$200900[ebp+12]
  0041e	89 50 0c	 mov	 DWORD PTR [eax+12], edx
  00421	8b 85 4c ff ff
	ff		 mov	 eax, DWORD PTR _this$[ebp]
  00427	8b 88 a0 00 00
	00		 mov	 ecx, DWORD PTR [eax+160]
  0042d	e8 00 00 00 00	 call	 ?SetCDibRect@CDibBitmap@@QAEXVCRect@@@Z ; CDibBitmap::SetCDibRect

; 203  : 				m_bBarLeft->Draw(&dc, false);

  00432	6a 01		 push	 1
  00434	6a 00		 push	 0
  00436	6a 00		 push	 0
  00438	8d 8d 7c ff ff
	ff		 lea	 ecx, DWORD PTR _dc$[ebp]
  0043e	51		 push	 ecx
  0043f	8b 95 4c ff ff
	ff		 mov	 edx, DWORD PTR _this$[ebp]
  00445	8b 8a a0 00 00
	00		 mov	 ecx, DWORD PTR [edx+160]
  0044b	e8 00 00 00 00	 call	 ?Draw@CDibBitmap@@QAEHPAVCDC@@HKH@Z ; CDibBitmap::Draw

; 204  : 			}
; 205  : 			else

  00450	eb 57		 jmp	 SHORT $L200897
$L200901:

; 206  : 			{
; 207  : 				m_bBarRight->SetCDibRect(r);

  00452	83 ec 10	 sub	 esp, 16			; 00000010H
  00455	8b c4		 mov	 eax, esp
  00457	8b 8d 64 ff ff
	ff		 mov	 ecx, DWORD PTR _r$200900[ebp]
  0045d	89 08		 mov	 DWORD PTR [eax], ecx
  0045f	8b 95 68 ff ff
	ff		 mov	 edx, DWORD PTR _r$200900[ebp+4]
  00465	89 50 04	 mov	 DWORD PTR [eax+4], edx
  00468	8b 8d 6c ff ff
	ff		 mov	 ecx, DWORD PTR _r$200900[ebp+8]
  0046e	89 48 08	 mov	 DWORD PTR [eax+8], ecx
  00471	8b 95 70 ff ff
	ff		 mov	 edx, DWORD PTR _r$200900[ebp+12]
  00477	89 50 0c	 mov	 DWORD PTR [eax+12], edx
  0047a	8b 85 4c ff ff
	ff		 mov	 eax, DWORD PTR _this$[ebp]
  00480	8b 88 9c 00 00
	00		 mov	 ecx, DWORD PTR [eax+156]
  00486	e8 00 00 00 00	 call	 ?SetCDibRect@CDibBitmap@@QAEXVCRect@@@Z ; CDibBitmap::SetCDibRect

; 208  : 				m_bBarRight->Draw(&dc, false);

  0048b	6a 01		 push	 1
  0048d	6a 00		 push	 0
  0048f	6a 00		 push	 0
  00491	8d 8d 7c ff ff
	ff		 lea	 ecx, DWORD PTR _dc$[ebp]
  00497	51		 push	 ecx
  00498	8b 95 4c ff ff
	ff		 mov	 edx, DWORD PTR _this$[ebp]
  0049e	8b 8a 9c 00 00
	00		 mov	 ecx, DWORD PTR [edx+156]
  004a4	e8 00 00 00 00	 call	 ?Draw@CDibBitmap@@QAEHPAVCDC@@HKH@Z ; CDibBitmap::Draw
$L200897:

; 209  : 			}
; 210  : 		}
; 211  : 	}
; 212  : 	else

  004a9	e9 63 01 00 00	 jmp	 $L200903
$L200896:

; 213  : 	{
; 214  : 		m_bHorz->SetCDibRect(rect);

  004ae	83 ec 10	 sub	 esp, 16			; 00000010H
  004b1	8b c4		 mov	 eax, esp
  004b3	8b 4d d8	 mov	 ecx, DWORD PTR _rect$[ebp]
  004b6	89 08		 mov	 DWORD PTR [eax], ecx
  004b8	8b 55 dc	 mov	 edx, DWORD PTR _rect$[ebp+4]
  004bb	89 50 04	 mov	 DWORD PTR [eax+4], edx
  004be	8b 4d e0	 mov	 ecx, DWORD PTR _rect$[ebp+8]
  004c1	89 48 08	 mov	 DWORD PTR [eax+8], ecx
  004c4	8b 55 e4	 mov	 edx, DWORD PTR _rect$[ebp+12]
  004c7	89 50 0c	 mov	 DWORD PTR [eax+12], edx
  004ca	8b 85 4c ff ff
	ff		 mov	 eax, DWORD PTR _this$[ebp]
  004d0	8b 88 98 00 00
	00		 mov	 ecx, DWORD PTR [eax+152]
  004d6	e8 00 00 00 00	 call	 ?SetCDibRect@CDibBitmap@@QAEXVCRect@@@Z ; CDibBitmap::SetCDibRect

; 215  : 		m_bHorz->Draw(&dc, false);

  004db	6a 01		 push	 1
  004dd	6a 00		 push	 0
  004df	6a 00		 push	 0
  004e1	8d 8d 7c ff ff
	ff		 lea	 ecx, DWORD PTR _dc$[ebp]
  004e7	51		 push	 ecx
  004e8	8b 95 4c ff ff
	ff		 mov	 edx, DWORD PTR _this$[ebp]
  004ee	8b 8a 98 00 00
	00		 mov	 ecx, DWORD PTR [edx+152]
  004f4	e8 00 00 00 00	 call	 ?Draw@CDibBitmap@@QAEHPAVCDC@@HKH@Z ; CDibBitmap::Draw

; 216  : 
; 217  : 		if(!m_bHideCloseBtn)

  004f9	8b 85 4c ff ff
	ff		 mov	 eax, DWORD PTR _this$[ebp]
  004ff	0f b6 48 60	 movzx	 ecx, BYTE PTR [eax+96]
  00503	85 c9		 test	 ecx, ecx
  00505	0f 85 06 01 00
	00		 jne	 $L200903

; 218  : 		{
; 219  : 			int w = m_bBarDown->GetWidth();

  0050b	8b 95 4c ff ff
	ff		 mov	 edx, DWORD PTR _this$[ebp]
  00511	8b 8a a8 00 00
	00		 mov	 ecx, DWORD PTR [edx+168]
  00517	e8 00 00 00 00	 call	 ?GetWidth@CDibBitmap@@QAEHXZ ; CDibBitmap::GetWidth
  0051c	89 85 60 ff ff
	ff		 mov	 DWORD PTR _w$200905[ebp], eax

; 220  : 			CRect r(p.x - w/2, rect.top, p.x + w/2 + 1, rect.bottom);

  00522	8b 45 e4	 mov	 eax, DWORD PTR _rect$[ebp+12]
  00525	50		 push	 eax
  00526	8b 85 60 ff ff
	ff		 mov	 eax, DWORD PTR _w$200905[ebp]
  0052c	99		 cdq
  0052d	2b c2		 sub	 eax, edx
  0052f	d1 f8		 sar	 eax, 1
  00531	8b 4d ec	 mov	 ecx, DWORD PTR _p$[ebp]
  00534	8d 54 01 01	 lea	 edx, DWORD PTR [ecx+eax+1]
  00538	52		 push	 edx
  00539	8b 45 dc	 mov	 eax, DWORD PTR _rect$[ebp+4]
  0053c	50		 push	 eax
  0053d	8b 85 60 ff ff
	ff		 mov	 eax, DWORD PTR _w$200905[ebp]
  00543	99		 cdq
  00544	2b c2		 sub	 eax, edx
  00546	d1 f8		 sar	 eax, 1
  00548	8b 4d ec	 mov	 ecx, DWORD PTR _p$[ebp]
  0054b	2b c8		 sub	 ecx, eax
  0054d	51		 push	 ecx
  0054e	8d 8d 50 ff ff
	ff		 lea	 ecx, DWORD PTR _r$200906[ebp]
  00554	e8 00 00 00 00	 call	 ??0CRect@@QAE@HHHH@Z	; CRect::CRect

; 221  : 
; 222  : 			if(bSplOri == 0)

  00559	0f b6 55 eb	 movzx	 edx, BYTE PTR _bSplOri$[ebp]
  0055d	85 d2		 test	 edx, edx
  0055f	75 59		 jne	 SHORT $L200907

; 223  : 			{
; 224  : 				m_bBarUp->SetCDibRect(r);

  00561	83 ec 10	 sub	 esp, 16			; 00000010H
  00564	8b c4		 mov	 eax, esp
  00566	8b 8d 50 ff ff
	ff		 mov	 ecx, DWORD PTR _r$200906[ebp]
  0056c	89 08		 mov	 DWORD PTR [eax], ecx
  0056e	8b 95 54 ff ff
	ff		 mov	 edx, DWORD PTR _r$200906[ebp+4]
  00574	89 50 04	 mov	 DWORD PTR [eax+4], edx
  00577	8b 8d 58 ff ff
	ff		 mov	 ecx, DWORD PTR _r$200906[ebp+8]
  0057d	89 48 08	 mov	 DWORD PTR [eax+8], ecx
  00580	8b 95 5c ff ff
	ff		 mov	 edx, DWORD PTR _r$200906[ebp+12]
  00586	89 50 0c	 mov	 DWORD PTR [eax+12], edx
  00589	8b 85 4c ff ff
	ff		 mov	 eax, DWORD PTR _this$[ebp]
  0058f	8b 88 a4 00 00
	00		 mov	 ecx, DWORD PTR [eax+164]
  00595	e8 00 00 00 00	 call	 ?SetCDibRect@CDibBitmap@@QAEXVCRect@@@Z ; CDibBitmap::SetCDibRect

; 225  : 				m_bBarUp->Draw(&dc, false);

  0059a	6a 01		 push	 1
  0059c	6a 00		 push	 0
  0059e	6a 00		 push	 0
  005a0	8d 8d 7c ff ff
	ff		 lea	 ecx, DWORD PTR _dc$[ebp]
  005a6	51		 push	 ecx
  005a7	8b 95 4c ff ff
	ff		 mov	 edx, DWORD PTR _this$[ebp]
  005ad	8b 8a a4 00 00
	00		 mov	 ecx, DWORD PTR [edx+164]
  005b3	e8 00 00 00 00	 call	 ?Draw@CDibBitmap@@QAEHPAVCDC@@HKH@Z ; CDibBitmap::Draw

; 226  : 			}
; 227  : 			else

  005b8	eb 57		 jmp	 SHORT $L200903
$L200907:

; 228  : 			{
; 229  : 				m_bBarDown->SetCDibRect(r);

  005ba	83 ec 10	 sub	 esp, 16			; 00000010H
  005bd	8b c4		 mov	 eax, esp
  005bf	8b 8d 50 ff ff
	ff		 mov	 ecx, DWORD PTR _r$200906[ebp]
  005c5	89 08		 mov	 DWORD PTR [eax], ecx
  005c7	8b 95 54 ff ff
	ff		 mov	 edx, DWORD PTR _r$200906[ebp+4]
  005cd	89 50 04	 mov	 DWORD PTR [eax+4], edx
  005d0	8b 8d 58 ff ff
	ff		 mov	 ecx, DWORD PTR _r$200906[ebp+8]
  005d6	89 48 08	 mov	 DWORD PTR [eax+8], ecx
  005d9	8b 95 5c ff ff
	ff		 mov	 edx, DWORD PTR _r$200906[ebp+12]
  005df	89 50 0c	 mov	 DWORD PTR [eax+12], edx
  005e2	8b 85 4c ff ff
	ff		 mov	 eax, DWORD PTR _this$[ebp]
  005e8	8b 88 a8 00 00
	00		 mov	 ecx, DWORD PTR [eax+168]
  005ee	e8 00 00 00 00	 call	 ?SetCDibRect@CDibBitmap@@QAEXVCRect@@@Z ; CDibBitmap::SetCDibRect

; 230  : 				m_bBarDown->Draw(&dc, false);

  005f3	6a 01		 push	 1
  005f5	6a 00		 push	 0
  005f7	6a 00		 push	 0
  005f9	8d 8d 7c ff ff
	ff		 lea	 ecx, DWORD PTR _dc$[ebp]
  005ff	51		 push	 ecx
  00600	8b 95 4c ff ff
	ff		 mov	 edx, DWORD PTR _this$[ebp]
  00606	8b 8a a8 00 00
	00		 mov	 ecx, DWORD PTR [edx+168]
  0060c	e8 00 00 00 00	 call	 ?Draw@CDibBitmap@@QAEHPAVCDC@@HKH@Z ; CDibBitmap::Draw
$L200903:

; 231  : 			}
; 232  : 		}
; 233  : 	}
; 234  : }

  00611	c7 45 fc ff ff
	ff ff		 mov	 DWORD PTR __$EHRec$[ebp+8], -1
  00618	8d 8d 7c ff ff
	ff		 lea	 ecx, DWORD PTR _dc$[ebp]
  0061e	e8 00 00 00 00	 call	 ??1CPaintDC@@UAE@XZ	; CPaintDC::~CPaintDC
  00623	8b 4d f4	 mov	 ecx, DWORD PTR __$EHRec$[ebp]
  00626	64 89 0d 00 00
	00 00		 mov	 DWORD PTR fs:__except_list, ecx
  0062d	8b 4d d4	 mov	 ecx, DWORD PTR __$ArrayPad$[ebp]
  00630	e8 00 00 00 00	 call	 @__security_check_cookie@4
  00635	8b e5		 mov	 esp, ebp
  00637	5d		 pop	 ebp
  00638	c3		 ret	 0
_TEXT	ENDS
text$x	SEGMENT
$L202838:
  00000	8d 8d 7c ff ff
	ff		 lea	 ecx, DWORD PTR _dc$[ebp]
  00006	e9 00 00 00 00	 jmp	 ??1CPaintDC@@UAE@XZ	; CPaintDC::~CPaintDC
__ehhandler$?OnPaint@ETSSplitter@@IAEXXZ:
  0000b	b8 00 00 00 00	 mov	 eax, OFFSET FLAT:$T202842
  00010	e9 00 00 00 00	 jmp	 ___CxxFrameHandler
text$x	ENDS
?OnPaint@ETSSplitter@@IAEXXZ ENDP			; ETSSplitter::OnPaint
EXTRN	??1CStatic@@UAE@XZ:NEAR				; CStatic::~CStatic
EXTRN	__imp_??1?$CStringT@DV?$StrTraitMFC_DLL@DV?$ChTraitsCRT@D@ATL@@@@@ATL@@QAE@XZ:NEAR
; Function compile flags: /Odt
_TEXT	SEGMENT
_this$ = -4						; size = 4
??1ETSSplitter@@UAE@XZ PROC NEAR			; ETSSplitter::~ETSSplitter
; _this$ = ecx

; 238  : {

  00640	55		 push	 ebp
  00641	8b ec		 mov	 ebp, esp
  00643	51		 push	 ecx
  00644	89 4d fc	 mov	 DWORD PTR _this$[ebp], ecx
  00647	8b 45 fc	 mov	 eax, DWORD PTR _this$[ebp]
  0064a	c7 00 00 00 00
	00		 mov	 DWORD PTR [eax], OFFSET FLAT:??_7ETSSplitter@@6B@

; 239  : 	// Cleanup
; 240  : }

  00650	8b 4d fc	 mov	 ecx, DWORD PTR _this$[ebp]
  00653	81 c1 bc 00 00
	00		 add	 ecx, 188		; 000000bcH
  00659	ff 15 00 00 00
	00		 call	 DWORD PTR __imp_??1?$CStringT@DV?$StrTraitMFC_DLL@DV?$ChTraitsCRT@D@ATL@@@@@ATL@@QAE@XZ
  0065f	8b 4d fc	 mov	 ecx, DWORD PTR _this$[ebp]
  00662	e8 00 00 00 00	 call	 ??1CStatic@@UAE@XZ	; CStatic::~CStatic
  00667	8b e5		 mov	 esp, ebp
  00669	5d		 pop	 ebp
  0066a	c3		 ret	 0
??1ETSSplitter@@UAE@XZ ENDP				; ETSSplitter::~ETSSplitter
_TEXT	ENDS
PUBLIC	?IsMouseInCenterBar@ETSSplitter@@QAEHVCPoint@@@Z ; ETSSplitter::IsMouseInCenterBar
; Function compile flags: /Odt
_TEXT	SEGMENT
_this$ = -36						; size = 4
_w$200924 = -32						; size = 4
_h$200921 = -28						; size = 4
_rc$ = -24						; size = 16
_p$ = -8						; size = 8
_point$ = 8						; size = 8
?IsMouseInCenterBar@ETSSplitter@@QAEHVCPoint@@@Z PROC NEAR ; ETSSplitter::IsMouseInCenterBar
; _this$ = ecx

; 242  : {

  00670	55		 push	 ebp
  00671	8b ec		 mov	 ebp, esp
  00673	83 ec 24	 sub	 esp, 36			; 00000024H
  00676	89 4d dc	 mov	 DWORD PTR _this$[ebp], ecx

; 243  : 	CRect rc;

  00679	8d 4d e8	 lea	 ecx, DWORD PTR _rc$[ebp]
  0067c	e8 00 00 00 00	 call	 ??0CRect@@QAE@XZ	; CRect::CRect

; 244  : 	this->GetClientRect(&rc);

  00681	8d 45 e8	 lea	 eax, DWORD PTR _rc$[ebp]
  00684	50		 push	 eax
  00685	8b 4d dc	 mov	 ecx, DWORD PTR _this$[ebp]
  00688	e8 00 00 00 00	 call	 ?GetClientRect@CWnd@@QBEXPAUtagRECT@@@Z ; CWnd::GetClientRect

; 245  : 	CPoint p = rc.CenterPoint();

  0068d	8d 4d f8	 lea	 ecx, DWORD PTR _p$[ebp]
  00690	51		 push	 ecx
  00691	8d 4d e8	 lea	 ecx, DWORD PTR _rc$[ebp]
  00694	e8 00 00 00 00	 call	 ?CenterPoint@CRect@@QBE?AVCPoint@@XZ ; CRect::CenterPoint

; 246  : 
; 247  : 	if(this->m_bHideCloseBtn)

  00699	8b 55 dc	 mov	 edx, DWORD PTR _this$[ebp]
  0069c	0f b6 42 60	 movzx	 eax, BYTE PTR [edx+96]
  006a0	85 c0		 test	 eax, eax
  006a2	74 07		 je	 SHORT $L200919

; 248  : 		return false;

  006a4	33 c0		 xor	 eax, eax
  006a6	e9 8c 00 00 00	 jmp	 $L200915
$L200919:

; 249  : 
; 250  : 	if(!m_bHorizSplitter)

  006ab	8b 4d dc	 mov	 ecx, DWORD PTR _this$[ebp]
  006ae	0f b6 51 54	 movzx	 edx, BYTE PTR [ecx+84]
  006b2	85 d2		 test	 edx, edx
  006b4	75 3a		 jne	 SHORT $L200920

; 251  : 	{
; 252  : 		int h = this->m_bBarLeft->GetHeight();

  006b6	8b 45 dc	 mov	 eax, DWORD PTR _this$[ebp]
  006b9	8b 88 a0 00 00
	00		 mov	 ecx, DWORD PTR [eax+160]
  006bf	e8 00 00 00 00	 call	 ?GetHeight@CDibBitmap@@QAEHXZ ; CDibBitmap::GetHeight
  006c4	89 45 e4	 mov	 DWORD PTR _h$200921[ebp], eax

; 253  : 		if(p.y - h/2 < point.y && p.y + h/2 > point.y)

  006c7	8b 45 e4	 mov	 eax, DWORD PTR _h$200921[ebp]
  006ca	99		 cdq
  006cb	2b c2		 sub	 eax, edx
  006cd	d1 f8		 sar	 eax, 1
  006cf	8b 4d fc	 mov	 ecx, DWORD PTR _p$[ebp+4]
  006d2	2b c8		 sub	 ecx, eax
  006d4	3b 4d 0c	 cmp	 ecx, DWORD PTR _point$[ebp+4]
  006d7	7d 17		 jge	 SHORT $L200920
  006d9	8b 45 e4	 mov	 eax, DWORD PTR _h$200921[ebp]
  006dc	99		 cdq
  006dd	2b c2		 sub	 eax, edx
  006df	d1 f8		 sar	 eax, 1
  006e1	03 45 fc	 add	 eax, DWORD PTR _p$[ebp+4]
  006e4	3b 45 0c	 cmp	 eax, DWORD PTR _point$[ebp+4]
  006e7	7e 07		 jle	 SHORT $L200920

; 254  : 			return true;

  006e9	b8 01 00 00 00	 mov	 eax, 1
  006ee	eb 47		 jmp	 SHORT $L200915
$L200920:

; 255  : 	}
; 256  : 	if(m_bHorizSplitter)

  006f0	8b 55 dc	 mov	 edx, DWORD PTR _this$[ebp]
  006f3	0f b6 42 54	 movzx	 eax, BYTE PTR [edx+84]
  006f7	85 c0		 test	 eax, eax
  006f9	74 3a		 je	 SHORT $L200923

; 257  : 	{
; 258  : 		int w = this->m_bBarDown->GetWidth();

  006fb	8b 4d dc	 mov	 ecx, DWORD PTR _this$[ebp]
  006fe	8b 89 a8 00 00
	00		 mov	 ecx, DWORD PTR [ecx+168]
  00704	e8 00 00 00 00	 call	 ?GetWidth@CDibBitmap@@QAEHXZ ; CDibBitmap::GetWidth
  00709	89 45 e0	 mov	 DWORD PTR _w$200924[ebp], eax

; 259  : 		if(p.x - w/2 < point.x && p.x + w/2 > point.x)

  0070c	8b 45 e0	 mov	 eax, DWORD PTR _w$200924[ebp]
  0070f	99		 cdq
  00710	2b c2		 sub	 eax, edx
  00712	d1 f8		 sar	 eax, 1
  00714	8b 55 f8	 mov	 edx, DWORD PTR _p$[ebp]
  00717	2b d0		 sub	 edx, eax
  00719	3b 55 08	 cmp	 edx, DWORD PTR _point$[ebp]
  0071c	7d 17		 jge	 SHORT $L200923
  0071e	8b 45 e0	 mov	 eax, DWORD PTR _w$200924[ebp]
  00721	99		 cdq
  00722	2b c2		 sub	 eax, edx
  00724	d1 f8		 sar	 eax, 1
  00726	03 45 f8	 add	 eax, DWORD PTR _p$[ebp]
  00729	3b 45 08	 cmp	 eax, DWORD PTR _point$[ebp]
  0072c	7e 07		 jle	 SHORT $L200923

; 260  : 			return true;

  0072e	b8 01 00 00 00	 mov	 eax, 1
  00733	eb 02		 jmp	 SHORT $L200915
$L200923:

; 261  : 	}
; 262  : 	return false;

  00735	33 c0		 xor	 eax, eax
$L200915:

; 263  : }

  00737	8b e5		 mov	 esp, ebp
  00739	5d		 pop	 ebp
  0073a	c2 08 00	 ret	 8
?IsMouseInCenterBar@ETSSplitter@@QAEHVCPoint@@@Z ENDP	; ETSSplitter::IsMouseInCenterBar
_TEXT	ENDS
PUBLIC	?SetCapture@CWnd@@QAEPAV1@XZ			; CWnd::SetCapture
PUBLIC	?IsClosed@ETSSplitter@@QAE_NXZ			; ETSSplitter::IsClosed
PUBLIC	?AfxGetApp@@YGPAVCWinApp@@XZ			; AfxGetApp
PUBLIC	?OnLButtonDown@CWnd@@IAEXIVCPoint@@@Z		; CWnd::OnLButtonDown
PUBLIC	?LoadStandardCursor@CWinApp@@QBEPAUHICON__@@PBD@Z ; CWinApp::LoadStandardCursor
EXTRN	__imp__SetCursor@4:NEAR
; Function compile flags: /Odt
_TEXT	SEGMENT
_this$ = -4						; size = 4
_nFlags$ = 8						; size = 4
_point$ = 12						; size = 8
?OnLButtonDown@ETSSplitter@@IAEXIVCPoint@@@Z PROC NEAR	; ETSSplitter::OnLButtonDown
; _this$ = ecx

; 266  : {

  00740	55		 push	 ebp
  00741	8b ec		 mov	 ebp, esp
  00743	51		 push	 ecx
  00744	89 4d fc	 mov	 DWORD PTR _this$[ebp], ecx

; 267  : 	if(m_bSlim && this->IsClosed())

  00747	8b 45 fc	 mov	 eax, DWORD PTR _this$[ebp]
  0074a	0f b6 48 61	 movzx	 ecx, BYTE PTR [eax+97]
  0074e	85 c9		 test	 ecx, ecx
  00750	74 14		 je	 SHORT $L200931
  00752	8b 4d fc	 mov	 ecx, DWORD PTR _this$[ebp]
  00755	e8 00 00 00 00	 call	 ?IsClosed@ETSSplitter@@QAE_NXZ ; ETSSplitter::IsClosed
  0075a	0f b6 d0	 movzx	 edx, al
  0075d	85 d2		 test	 edx, edx
  0075f	74 05		 je	 SHORT $L200931

; 268  : 		return;

  00761	e9 be 00 00 00	 jmp	 $L200930
$L200931:

; 269  : 
; 270  : 	if(IsMouseInCenterBar(point))

  00766	8b 45 10	 mov	 eax, DWORD PTR _point$[ebp+4]
  00769	50		 push	 eax
  0076a	8b 4d 0c	 mov	 ecx, DWORD PTR _point$[ebp]
  0076d	51		 push	 ecx
  0076e	8b 4d fc	 mov	 ecx, DWORD PTR _this$[ebp]
  00771	e8 00 00 00 00	 call	 ?IsMouseInCenterBar@ETSSplitter@@QAEHVCPoint@@@Z ; ETSSplitter::IsMouseInCenterBar
  00776	85 c0		 test	 eax, eax
  00778	74 1d		 je	 SHORT $L200932

; 271  : 	{
; 272  : 		::SetCursor( AfxGetApp()->LoadStandardCursor ((LPCTSTR)MAKEINTRESOURCE(32649)));

  0077a	68 89 7f 00 00	 push	 32649			; 00007f89H
  0077f	e8 00 00 00 00	 call	 ?AfxGetApp@@YGPAVCWinApp@@XZ ; AfxGetApp
  00784	8b c8		 mov	 ecx, eax
  00786	e8 00 00 00 00	 call	 ?LoadStandardCursor@CWinApp@@QBEPAUHICON__@@PBD@Z ; CWinApp::LoadStandardCursor
  0078b	50		 push	 eax
  0078c	ff 15 00 00 00
	00		 call	 DWORD PTR __imp__SetCursor@4

; 273  : 		return;

  00792	e9 8d 00 00 00	 jmp	 $L200930
$L200932:

; 274  : 	}
; 275  : 	if(IsClosed())

  00797	8b 4d fc	 mov	 ecx, DWORD PTR _this$[ebp]
  0079a	e8 00 00 00 00	 call	 ?IsClosed@ETSSplitter@@QAE_NXZ ; ETSSplitter::IsClosed
  0079f	0f b6 d0	 movzx	 edx, al
  007a2	85 d2		 test	 edx, edx
  007a4	74 02		 je	 SHORT $L200937

; 276  : 	{
; 277  : 	//	m_pane->setOpenConstrain();
; 278  : 	//	if(m_pane->m_nSplOpendPos == 0 && IsClosed())
; 279  : 		return;

  007a6	eb 7c		 jmp	 SHORT $L200930
$L200937:

; 280  : 	}
; 281  : 	if(!m_bHorizSplitter)

  007a8	8b 45 fc	 mov	 eax, DWORD PTR _this$[ebp]
  007ab	0f b6 48 54	 movzx	 ecx, BYTE PTR [eax+84]
  007af	85 c9		 test	 ecx, ecx
  007b1	75 23		 jne	 SHORT $L200938

; 282  : 	{
; 283  : 		::SetCursor( AfxGetApp()->LoadStandardCursor ((LPCTSTR)IDC_SIZEWE));

  007b3	68 84 7f 00 00	 push	 32644			; 00007f84H
  007b8	e8 00 00 00 00	 call	 ?AfxGetApp@@YGPAVCWinApp@@XZ ; AfxGetApp
  007bd	8b c8		 mov	 ecx, eax
  007bf	e8 00 00 00 00	 call	 ?LoadStandardCursor@CWinApp@@QBEPAUHICON__@@PBD@Z ; CWinApp::LoadStandardCursor
  007c4	50		 push	 eax
  007c5	ff 15 00 00 00
	00		 call	 DWORD PTR __imp__SetCursor@4

; 284  : 		m_nMouseOrgPosition = point.x;

  007cb	8b 55 fc	 mov	 edx, DWORD PTR _this$[ebp]
  007ce	8b 45 0c	 mov	 eax, DWORD PTR _point$[ebp]
  007d1	89 42 58	 mov	 DWORD PTR [edx+88], eax

; 285  : 	}
; 286  : 	else

  007d4	eb 21		 jmp	 SHORT $L200943
$L200938:

; 287  : 	{
; 288  : 		::SetCursor( AfxGetApp()->LoadStandardCursor ((LPCTSTR)IDC_SIZENS));

  007d6	68 85 7f 00 00	 push	 32645			; 00007f85H
  007db	e8 00 00 00 00	 call	 ?AfxGetApp@@YGPAVCWinApp@@XZ ; AfxGetApp
  007e0	8b c8		 mov	 ecx, eax
  007e2	e8 00 00 00 00	 call	 ?LoadStandardCursor@CWinApp@@QBEPAUHICON__@@PBD@Z ; CWinApp::LoadStandardCursor
  007e7	50		 push	 eax
  007e8	ff 15 00 00 00
	00		 call	 DWORD PTR __imp__SetCursor@4

; 289  : 		m_nMouseOrgPosition = point.y;

  007ee	8b 4d fc	 mov	 ecx, DWORD PTR _this$[ebp]
  007f1	8b 55 10	 mov	 edx, DWORD PTR _point$[ebp+4]
  007f4	89 51 58	 mov	 DWORD PTR [ecx+88], edx
$L200943:

; 290  : 	}
; 291  : 
; 292  : 	m_nMouseOffset = 0;

  007f7	8b 45 fc	 mov	 eax, DWORD PTR _this$[ebp]
  007fa	c7 40 5c 00 00
	00 00		 mov	 DWORD PTR [eax+92], 0

; 293  : 	SetCapture();

  00801	8b 4d fc	 mov	 ecx, DWORD PTR _this$[ebp]
  00804	e8 00 00 00 00	 call	 ?SetCapture@CWnd@@QAEPAV1@XZ ; CWnd::SetCapture

; 294  : //	::SetCursor( AfxGetApp()->LoadStandardCursor ((LPCTSTR)IDC_SIZEWE));
; 295  : 	m_bMouseButtonDownOnTheBar = true;

  00809	8b 4d fc	 mov	 ecx, DWORD PTR _this$[ebp]
  0080c	c6 41 55 01	 mov	 BYTE PTR [ecx+85], 1

; 296  : 	CStatic::OnLButtonDown(nFlags, point);

  00810	8b 55 10	 mov	 edx, DWORD PTR _point$[ebp+4]
  00813	52		 push	 edx
  00814	8b 45 0c	 mov	 eax, DWORD PTR _point$[ebp]
  00817	50		 push	 eax
  00818	8b 4d 08	 mov	 ecx, DWORD PTR _nFlags$[ebp]
  0081b	51		 push	 ecx
  0081c	8b 4d fc	 mov	 ecx, DWORD PTR _this$[ebp]
  0081f	e8 00 00 00 00	 call	 ?OnLButtonDown@CWnd@@IAEXIVCPoint@@@Z ; CWnd::OnLButtonDown
$L200930:

; 297  : }

  00824	8b e5		 mov	 esp, ebp
  00826	5d		 pop	 ebp
  00827	c2 0c 00	 ret	 12			; 0000000cH
?OnLButtonDown@ETSSplitter@@IAEXIVCPoint@@@Z ENDP	; ETSSplitter::OnLButtonDown
; Function compile flags: /Odt
_this$ = -4						; size = 4
?IsClosed@ETSSplitter@@QAE_NXZ PROC NEAR		; ETSSplitter::IsClosed
; _this$ = ecx

; 300  : {

  00830	55		 push	 ebp
  00831	8b ec		 mov	 ebp, esp
  00833	51		 push	 ecx
  00834	89 4d fc	 mov	 DWORD PTR _this$[ebp], ecx

; 301  : 	if(m_pane == NULL)

  00837	8b 45 fc	 mov	 eax, DWORD PTR _this$[ebp]
  0083a	83 b8 b0 00 00
	00 00		 cmp	 DWORD PTR [eax+176], 0
  00841	75 04		 jne	 SHORT $L200951

; 302  : 		return true;

  00843	b0 01		 mov	 al, 1
  00845	eb 16		 jmp	 SHORT $L200950
$L200951:

; 303  : 	return (m_pane->IsClosed() == TRUE);

  00847	8b 4d fc	 mov	 ecx, DWORD PTR _this$[ebp]
  0084a	8b 89 b0 00 00
	00		 mov	 ecx, DWORD PTR [ecx+176]
  00850	e8 00 00 00 00	 call	 ?IsClosed@PaneSplitter@ETSLayoutMgr@@QAEHXZ ; ETSLayoutMgr::PaneSplitter::IsClosed
  00855	83 e8 01	 sub	 eax, 1
  00858	f7 d8		 neg	 eax
  0085a	1b c0		 sbb	 eax, eax
  0085c	40		 inc	 eax
$L200950:

; 304  : }

  0085d	8b e5		 mov	 esp, ebp
  0085f	5d		 pop	 ebp
  00860	c3		 ret	 0
?IsClosed@ETSSplitter@@QAE_NXZ ENDP			; ETSSplitter::IsClosed
_TEXT	ENDS
PUBLIC	?SetTimer@CWnd@@QAEIIIP6GXPAUHWND__@@IIK@Z@Z	; CWnd::SetTimer
EXTRN	?setOpenConstrain@PaneSplitter@ETSLayoutMgr@@QAEXXZ:NEAR ; ETSLayoutMgr::PaneSplitter::setOpenConstrain
; Function compile flags: /Odt
_TEXT	SEGMENT
_this$ = -4						; size = 4
?CloseSplitter@ETSSplitter@@UAEXXZ PROC NEAR		; ETSSplitter::CloseSplitter
; _this$ = ecx

; 306  : {

  00870	55		 push	 ebp
  00871	8b ec		 mov	 ebp, esp
  00873	51		 push	 ecx
  00874	89 4d fc	 mov	 DWORD PTR _this$[ebp], ecx

; 307  : 	if(m_pane == NULL)

  00877	8b 45 fc	 mov	 eax, DWORD PTR _this$[ebp]
  0087a	83 b8 b0 00 00
	00 00		 cmp	 DWORD PTR [eax+176], 0
  00881	75 02		 jne	 SHORT $L200955

; 308  : 		return;

  00883	eb 44		 jmp	 SHORT $L200954
$L200955:

; 309  : 	if(!m_pane->IsClosed())

  00885	8b 4d fc	 mov	 ecx, DWORD PTR _this$[ebp]
  00888	8b 89 b0 00 00
	00		 mov	 ecx, DWORD PTR [ecx+176]
  0088e	e8 00 00 00 00	 call	 ?IsClosed@PaneSplitter@ETSLayoutMgr@@QAEHXZ ; ETSLayoutMgr::PaneSplitter::IsClosed
  00893	85 c0		 test	 eax, eax
  00895	75 21		 jne	 SHORT $L200956

; 310  : 	{
; 311  : 		m_pane->setOpenConstrain();

  00897	8b 55 fc	 mov	 edx, DWORD PTR _this$[ebp]
  0089a	8b 8a b0 00 00
	00		 mov	 ecx, DWORD PTR [edx+176]
  008a0	e8 00 00 00 00	 call	 ?setOpenConstrain@PaneSplitter@ETSLayoutMgr@@QAEXXZ ; ETSLayoutMgr::PaneSplitter::setOpenConstrain

; 312  : 		SetTimer(10010, 20,NULL);

  008a5	6a 00		 push	 0
  008a7	6a 14		 push	 20			; 00000014H
  008a9	68 1a 27 00 00	 push	 10010			; 0000271aH
  008ae	8b 4d fc	 mov	 ecx, DWORD PTR _this$[ebp]
  008b1	e8 00 00 00 00	 call	 ?SetTimer@CWnd@@QAEIIIP6GXPAUHWND__@@IIK@Z@Z ; CWnd::SetTimer

; 313  : 	}
; 314  : 	else

  008b6	eb 11		 jmp	 SHORT $L200954
$L200956:

; 315  : 	{
; 316  : 		SetTimer(10011, 20, NULL);

  008b8	6a 00		 push	 0
  008ba	6a 14		 push	 20			; 00000014H
  008bc	68 1b 27 00 00	 push	 10011			; 0000271bH
  008c1	8b 4d fc	 mov	 ecx, DWORD PTR _this$[ebp]
  008c4	e8 00 00 00 00	 call	 ?SetTimer@CWnd@@QAEIIIP6GXPAUHWND__@@IIK@Z@Z ; CWnd::SetTimer
$L200954:

; 317  : 	}
; 318  : 
; 319  : }

  008c9	8b e5		 mov	 esp, ebp
  008cb	5d		 pop	 ebp
  008cc	c3		 ret	 0
?CloseSplitter@ETSSplitter@@UAEXXZ ENDP			; ETSSplitter::CloseSplitter
_TEXT	ENDS
PUBLIC	?OnLButtonUp@CWnd@@IAEXIVCPoint@@@Z		; CWnd::OnLButtonUp
EXTRN	?resizeTo@PaneSplitter@ETSLayoutMgr@@QAE_NH_N0@Z:NEAR ; ETSLayoutMgr::PaneSplitter::resizeTo
EXTRN	__imp__ReleaseCapture@0:NEAR
; Function compile flags: /Odt
_TEXT	SEGMENT
_this$ = -4						; size = 4
_nFlags$ = 8						; size = 4
_point$ = 12						; size = 8
?OnLButtonUp@ETSSplitter@@IAEXIVCPoint@@@Z PROC NEAR	; ETSSplitter::OnLButtonUp
; _this$ = ecx

; 321  : {

  008d0	55		 push	 ebp
  008d1	8b ec		 mov	 ebp, esp
  008d3	51		 push	 ecx
  008d4	89 4d fc	 mov	 DWORD PTR _this$[ebp], ecx

; 322  : 
; 323  : 	if(!m_bMouseButtonDownOnTheBar && IsMouseInCenterBar(point))

  008d7	8b 45 fc	 mov	 eax, DWORD PTR _this$[ebp]
  008da	0f b6 48 55	 movzx	 ecx, BYTE PTR [eax+85]
  008de	85 c9		 test	 ecx, ecx
  008e0	75 3f		 jne	 SHORT $L200963
  008e2	8b 55 10	 mov	 edx, DWORD PTR _point$[ebp+4]
  008e5	52		 push	 edx
  008e6	8b 45 0c	 mov	 eax, DWORD PTR _point$[ebp]
  008e9	50		 push	 eax
  008ea	8b 4d fc	 mov	 ecx, DWORD PTR _this$[ebp]
  008ed	e8 00 00 00 00	 call	 ?IsMouseInCenterBar@ETSSplitter@@QAEHVCPoint@@@Z ; ETSSplitter::IsMouseInCenterBar
  008f2	85 c0		 test	 eax, eax
  008f4	74 2b		 je	 SHORT $L200963

; 324  : 	{
; 325  : 		::SetCursor( AfxGetApp()->LoadStandardCursor ((LPCTSTR)MAKEINTRESOURCE(32649)));

  008f6	68 89 7f 00 00	 push	 32649			; 00007f89H
  008fb	e8 00 00 00 00	 call	 ?AfxGetApp@@YGPAVCWinApp@@XZ ; AfxGetApp
  00900	8b c8		 mov	 ecx, eax
  00902	e8 00 00 00 00	 call	 ?LoadStandardCursor@CWinApp@@QBEPAUHICON__@@PBD@Z ; CWinApp::LoadStandardCursor
  00907	50		 push	 eax
  00908	ff 15 00 00 00
	00		 call	 DWORD PTR __imp__SetCursor@4

; 326  : 		CloseSplitter();

  0090e	8b 4d fc	 mov	 ecx, DWORD PTR _this$[ebp]
  00911	8b 11		 mov	 edx, DWORD PTR [ecx]
  00913	8b 4d fc	 mov	 ecx, DWORD PTR _this$[ebp]
  00916	ff 92 40 01 00
	00		 call	 DWORD PTR [edx+320]

; 327  : 		return;

  0091c	e9 ba 00 00 00	 jmp	 $L200962
$L200963:

; 328  : 	}
; 329  : 	m_bMouseButtonDownOnTheBar = false;

  00921	8b 45 fc	 mov	 eax, DWORD PTR _this$[ebp]
  00924	c6 40 55 00	 mov	 BYTE PTR [eax+85], 0

; 330  : 	if(IsClosed())

  00928	8b 4d fc	 mov	 ecx, DWORD PTR _this$[ebp]
  0092b	e8 00 00 00 00	 call	 ?IsClosed@ETSSplitter@@QAE_NXZ ; ETSSplitter::IsClosed
  00930	0f b6 c8	 movzx	 ecx, al
  00933	85 c9		 test	 ecx, ecx
  00935	74 05		 je	 SHORT $L200968

; 331  : 	{
; 332  : 	//	m_pane->setOpenConstrain();
; 333  : 	//	if(m_pane->m_nSplOpendPos == 0 && IsClosed())
; 334  : 		return;

  00937	e9 9f 00 00 00	 jmp	 $L200962
$L200968:

; 335  : 	}
; 336  : 	if(!m_bHorizSplitter)

  0093c	8b 55 fc	 mov	 edx, DWORD PTR _this$[ebp]
  0093f	0f b6 42 54	 movzx	 eax, BYTE PTR [edx+84]
  00943	85 c0		 test	 eax, eax
  00945	75 26		 jne	 SHORT $L200969

; 337  : 	{
; 338  : 		DrawVertBar(m_nMouseOffset);

  00947	8b 4d fc	 mov	 ecx, DWORD PTR _this$[ebp]
  0094a	8b 51 5c	 mov	 edx, DWORD PTR [ecx+92]
  0094d	52		 push	 edx
  0094e	8b 45 fc	 mov	 eax, DWORD PTR _this$[ebp]
  00951	8b 10		 mov	 edx, DWORD PTR [eax]
  00953	8b 4d fc	 mov	 ecx, DWORD PTR _this$[ebp]
  00956	ff 92 44 01 00
	00		 call	 DWORD PTR [edx+324]

; 339  : 		m_nMouseOffset = point.x - this->m_nMouseOrgPosition;

  0095c	8b 45 fc	 mov	 eax, DWORD PTR _this$[ebp]
  0095f	8b 4d 0c	 mov	 ecx, DWORD PTR _point$[ebp]
  00962	2b 48 58	 sub	 ecx, DWORD PTR [eax+88]
  00965	8b 55 fc	 mov	 edx, DWORD PTR _this$[ebp]
  00968	89 4a 5c	 mov	 DWORD PTR [edx+92], ecx

; 340  : 	}
; 341  : 	else

  0096b	eb 24		 jmp	 SHORT $L200970
$L200969:

; 342  : 	{
; 343  : 		DrawHorizBar(m_nMouseOffset);

  0096d	8b 45 fc	 mov	 eax, DWORD PTR _this$[ebp]
  00970	8b 48 5c	 mov	 ecx, DWORD PTR [eax+92]
  00973	51		 push	 ecx
  00974	8b 55 fc	 mov	 edx, DWORD PTR _this$[ebp]
  00977	8b 02		 mov	 eax, DWORD PTR [edx]
  00979	8b 4d fc	 mov	 ecx, DWORD PTR _this$[ebp]
  0097c	ff 90 48 01 00
	00		 call	 DWORD PTR [eax+328]

; 344  : 		m_nMouseOffset = point.y - this->m_nMouseOrgPosition;

  00982	8b 4d fc	 mov	 ecx, DWORD PTR _this$[ebp]
  00985	8b 55 10	 mov	 edx, DWORD PTR _point$[ebp+4]
  00988	2b 51 58	 sub	 edx, DWORD PTR [ecx+88]
  0098b	8b 45 fc	 mov	 eax, DWORD PTR _this$[ebp]
  0098e	89 50 5c	 mov	 DWORD PTR [eax+92], edx
$L200970:

; 345  : 	}
; 346  : 
; 347  : 	if(m_nMouseOffset != 0)

  00991	8b 4d fc	 mov	 ecx, DWORD PTR _this$[ebp]
  00994	83 79 5c 00	 cmp	 DWORD PTR [ecx+92], 0
  00998	74 0e		 je	 SHORT $L200971

; 348  : 		ConstrainOffset();

  0099a	8b 55 fc	 mov	 edx, DWORD PTR _this$[ebp]
  0099d	8b 02		 mov	 eax, DWORD PTR [edx]
  0099f	8b 4d fc	 mov	 ecx, DWORD PTR _this$[ebp]
  009a2	ff 90 4c 01 00
	00		 call	 DWORD PTR [eax+332]
$L200971:

; 349  : 
; 350  : 	ReleaseCapture();

  009a8	ff 15 00 00 00
	00		 call	 DWORD PTR __imp__ReleaseCapture@0

; 351  : 
; 352  : 	this->m_pane->resizeTo(m_nMouseOffset, true);

  009ae	6a 00		 push	 0
  009b0	6a 01		 push	 1
  009b2	8b 4d fc	 mov	 ecx, DWORD PTR _this$[ebp]
  009b5	8b 51 5c	 mov	 edx, DWORD PTR [ecx+92]
  009b8	52		 push	 edx
  009b9	8b 45 fc	 mov	 eax, DWORD PTR _this$[ebp]
  009bc	8b 88 b0 00 00
	00		 mov	 ecx, DWORD PTR [eax+176]
  009c2	e8 00 00 00 00	 call	 ?resizeTo@PaneSplitter@ETSLayoutMgr@@QAE_NH_N0@Z ; ETSLayoutMgr::PaneSplitter::resizeTo

; 353  : 
; 354  : 	CStatic::OnLButtonUp(nFlags, point);

  009c7	8b 4d 10	 mov	 ecx, DWORD PTR _point$[ebp+4]
  009ca	51		 push	 ecx
  009cb	8b 55 0c	 mov	 edx, DWORD PTR _point$[ebp]
  009ce	52		 push	 edx
  009cf	8b 45 08	 mov	 eax, DWORD PTR _nFlags$[ebp]
  009d2	50		 push	 eax
  009d3	8b 4d fc	 mov	 ecx, DWORD PTR _this$[ebp]
  009d6	e8 00 00 00 00	 call	 ?OnLButtonUp@CWnd@@IAEXIVCPoint@@@Z ; CWnd::OnLButtonUp
$L200962:

; 355  : }

  009db	8b e5		 mov	 esp, ebp
  009dd	5d		 pop	 ebp
  009de	c2 0c 00	 ret	 12			; 0000000cH
?OnLButtonUp@ETSSplitter@@IAEXIVCPoint@@@Z ENDP		; ETSSplitter::OnLButtonUp
_TEXT	ENDS
PUBLIC	?KillTimer@CWnd@@QAEHI@Z			; CWnd::KillTimer
PUBLIC	?OnTimer@CWnd@@IAEXI@Z				; CWnd::OnTimer
PUBLIC	?SetClosed@PaneBase@ETSLayoutMgr@@QAEXH@Z	; ETSLayoutMgr::PaneBase::SetClosed
EXTRN	?getCloseConstrain@PaneSplitter@ETSLayoutMgr@@QAEHH@Z:NEAR ; ETSLayoutMgr::PaneSplitter::getCloseConstrain
EXTRN	?getOpenConstrain@PaneSplitter@ETSLayoutMgr@@QAEHH@Z:NEAR ; ETSLayoutMgr::PaneSplitter::getOpenConstrain
EXTRN	_abs:NEAR
EXTRN	__imp__GetTickCount@0:NEAR
; Function compile flags: /Odt
_TEXT	SEGMENT
_this$ = -24						; size = 4
_offset$200985 = -20					; size = 4
_step$200986 = -16					; size = 4
_offset$200979 = -12					; size = 4
_step$200978 = -8					; size = 4
_count$ = -4						; size = 4
_nIDEvent$ = 8						; size = 4
?OnTimer@ETSSplitter@@IAEXI@Z PROC NEAR			; ETSSplitter::OnTimer
; _this$ = ecx

; 359  : {	

  009f0	55		 push	 ebp
  009f1	8b ec		 mov	 ebp, esp
  009f3	83 ec 18	 sub	 esp, 24			; 00000018H
  009f6	89 4d e8	 mov	 DWORD PTR _this$[ebp], ecx

; 360  : 	DWORD count = ::GetTickCount();

  009f9	ff 15 00 00 00
	00		 call	 DWORD PTR __imp__GetTickCount@0
  009ff	89 45 fc	 mov	 DWORD PTR _count$[ebp], eax

; 361  : 
; 362  : 	if(nIDEvent == 10010)

  00a02	81 7d 08 1a 27
	00 00		 cmp	 DWORD PTR _nIDEvent$[ebp], 10010 ; 0000271aH
  00a09	0f 85 be 00 00
	00		 jne	 $L200977

; 363  : 	{
; 364  : 		int step = m_pane->m_nSplOpendPos / CLOSE_STEP;

  00a0f	8b 45 e8	 mov	 eax, DWORD PTR _this$[ebp]
  00a12	8b 88 b0 00 00
	00		 mov	 ecx, DWORD PTR [eax+176]
  00a18	8b 91 8c 00 00
	00		 mov	 edx, DWORD PTR [ecx+140]
  00a1e	89 55 f8	 mov	 DWORD PTR _step$200978[ebp], edx

; 365  : 		int offset = 0;

  00a21	c7 45 f4 00 00
	00 00		 mov	 DWORD PTR _offset$200979[ebp], 0

; 366  : 		if(m_pane->m_nClosedOri == 0)

  00a28	8b 45 e8	 mov	 eax, DWORD PTR _this$[ebp]
  00a2b	8b 88 b0 00 00
	00		 mov	 ecx, DWORD PTR [eax+176]
  00a31	83 b9 84 00 00
	00 00		 cmp	 DWORD PTR [ecx+132], 0
  00a38	75 19		 jne	 SHORT $L200980

; 367  : 			offset = m_pane->getCloseConstrain(-step);

  00a3a	8b 55 f8	 mov	 edx, DWORD PTR _step$200978[ebp]
  00a3d	f7 da		 neg	 edx
  00a3f	52		 push	 edx
  00a40	8b 45 e8	 mov	 eax, DWORD PTR _this$[ebp]
  00a43	8b 88 b0 00 00
	00		 mov	 ecx, DWORD PTR [eax+176]
  00a49	e8 00 00 00 00	 call	 ?getCloseConstrain@PaneSplitter@ETSLayoutMgr@@QAEHH@Z ; ETSLayoutMgr::PaneSplitter::getCloseConstrain
  00a4e	89 45 f4	 mov	 DWORD PTR _offset$200979[ebp], eax

; 368  : 		else

  00a51	eb 15		 jmp	 SHORT $L200981
$L200980:

; 369  : 			offset = m_pane->getCloseConstrain(step);

  00a53	8b 4d f8	 mov	 ecx, DWORD PTR _step$200978[ebp]
  00a56	51		 push	 ecx
  00a57	8b 55 e8	 mov	 edx, DWORD PTR _this$[ebp]
  00a5a	8b 8a b0 00 00
	00		 mov	 ecx, DWORD PTR [edx+176]
  00a60	e8 00 00 00 00	 call	 ?getCloseConstrain@PaneSplitter@ETSLayoutMgr@@QAEHH@Z ; ETSLayoutMgr::PaneSplitter::getCloseConstrain
  00a65	89 45 f4	 mov	 DWORD PTR _offset$200979[ebp], eax
$L200981:

; 370  : 		if(abs(offset) <= step)

  00a68	8b 45 f4	 mov	 eax, DWORD PTR _offset$200979[ebp]
  00a6b	50		 push	 eax
  00a6c	e8 00 00 00 00	 call	 _abs
  00a71	83 c4 04	 add	 esp, 4
  00a74	3b 45 f8	 cmp	 eax, DWORD PTR _step$200978[ebp]
  00a77	7f 34		 jg	 SHORT $L200982

; 371  : 		{
; 372  : 			m_pane->SetClosed(true);

  00a79	6a 01		 push	 1
  00a7b	8b 4d e8	 mov	 ecx, DWORD PTR _this$[ebp]
  00a7e	8b 89 b0 00 00
	00		 mov	 ecx, DWORD PTR [ecx+176]
  00a84	e8 00 00 00 00	 call	 ?SetClosed@PaneBase@ETSLayoutMgr@@QAEXH@Z ; ETSLayoutMgr::PaneBase::SetClosed

; 373  : 			KillTimer(nIDEvent);

  00a89	8b 55 08	 mov	 edx, DWORD PTR _nIDEvent$[ebp]
  00a8c	52		 push	 edx
  00a8d	8b 4d e8	 mov	 ecx, DWORD PTR _this$[ebp]
  00a90	e8 00 00 00 00	 call	 ?KillTimer@CWnd@@QAEHI@Z ; CWnd::KillTimer

; 374  : 			this->m_pane->resizeTo(offset, true);

  00a95	6a 00		 push	 0
  00a97	6a 01		 push	 1
  00a99	8b 45 f4	 mov	 eax, DWORD PTR _offset$200979[ebp]
  00a9c	50		 push	 eax
  00a9d	8b 4d e8	 mov	 ecx, DWORD PTR _this$[ebp]
  00aa0	8b 89 b0 00 00
	00		 mov	 ecx, DWORD PTR [ecx+176]
  00aa6	e8 00 00 00 00	 call	 ?resizeTo@PaneSplitter@ETSLayoutMgr@@QAE_NH_N0@Z ; ETSLayoutMgr::PaneSplitter::resizeTo

; 375  : 		}
; 376  : 		else

  00aab	eb 16		 jmp	 SHORT $L200983
$L200982:

; 377  : 			m_pane->resizeTo(offset);

  00aad	6a 00		 push	 0
  00aaf	6a 00		 push	 0
  00ab1	8b 55 f4	 mov	 edx, DWORD PTR _offset$200979[ebp]
  00ab4	52		 push	 edx
  00ab5	8b 45 e8	 mov	 eax, DWORD PTR _this$[ebp]
  00ab8	8b 88 b0 00 00
	00		 mov	 ecx, DWORD PTR [eax+176]
  00abe	e8 00 00 00 00	 call	 ?resizeTo@PaneSplitter@ETSLayoutMgr@@QAE_NH_N0@Z ; ETSLayoutMgr::PaneSplitter::resizeTo
$L200983:

; 378  : 		m_nMouseOffset = 0;

  00ac3	8b 4d e8	 mov	 ecx, DWORD PTR _this$[ebp]
  00ac6	c7 41 5c 00 00
	00 00		 mov	 DWORD PTR [ecx+92], 0
$L200977:

; 379  : 		TRACE("resize time eclipse %d \n", ::GetTickCount() - count);
; 380  : 
; 381  : 	}
; 382  : 	if(nIDEvent == 10011)

  00acd	81 7d 08 1b 27
	00 00		 cmp	 DWORD PTR _nIDEvent$[ebp], 10011 ; 0000271bH
  00ad4	0f 85 be 00 00
	00		 jne	 $L200984

; 383  : 	{
; 384  : 		int offset = 0;

  00ada	c7 45 ec 00 00
	00 00		 mov	 DWORD PTR _offset$200985[ebp], 0

; 385  : 		int step = m_pane->m_nSplOpendPos / CLOSE_STEP;

  00ae1	8b 55 e8	 mov	 edx, DWORD PTR _this$[ebp]
  00ae4	8b 82 b0 00 00
	00		 mov	 eax, DWORD PTR [edx+176]
  00aea	8b 88 8c 00 00
	00		 mov	 ecx, DWORD PTR [eax+140]
  00af0	89 4d f0	 mov	 DWORD PTR _step$200986[ebp], ecx

; 386  : 		if(m_pane->m_nClosedOri == 0)

  00af3	8b 55 e8	 mov	 edx, DWORD PTR _this$[ebp]
  00af6	8b 82 b0 00 00
	00		 mov	 eax, DWORD PTR [edx+176]
  00afc	83 b8 84 00 00
	00 00		 cmp	 DWORD PTR [eax+132], 0
  00b03	75 17		 jne	 SHORT $L200987

; 387  : 			offset = m_pane->getOpenConstrain(step);

  00b05	8b 4d f0	 mov	 ecx, DWORD PTR _step$200986[ebp]
  00b08	51		 push	 ecx
  00b09	8b 55 e8	 mov	 edx, DWORD PTR _this$[ebp]
  00b0c	8b 8a b0 00 00
	00		 mov	 ecx, DWORD PTR [edx+176]
  00b12	e8 00 00 00 00	 call	 ?getOpenConstrain@PaneSplitter@ETSLayoutMgr@@QAEHH@Z ; ETSLayoutMgr::PaneSplitter::getOpenConstrain
  00b17	89 45 ec	 mov	 DWORD PTR _offset$200985[ebp], eax

; 388  : 		else

  00b1a	eb 17		 jmp	 SHORT $L200988
$L200987:

; 389  : 			offset = m_pane->getOpenConstrain(-step);

  00b1c	8b 45 f0	 mov	 eax, DWORD PTR _step$200986[ebp]
  00b1f	f7 d8		 neg	 eax
  00b21	50		 push	 eax
  00b22	8b 4d e8	 mov	 ecx, DWORD PTR _this$[ebp]
  00b25	8b 89 b0 00 00
	00		 mov	 ecx, DWORD PTR [ecx+176]
  00b2b	e8 00 00 00 00	 call	 ?getOpenConstrain@PaneSplitter@ETSLayoutMgr@@QAEHH@Z ; ETSLayoutMgr::PaneSplitter::getOpenConstrain
  00b30	89 45 ec	 mov	 DWORD PTR _offset$200985[ebp], eax
$L200988:

; 390  : 		if(abs(offset) <= step)

  00b33	8b 55 ec	 mov	 edx, DWORD PTR _offset$200985[ebp]
  00b36	52		 push	 edx
  00b37	e8 00 00 00 00	 call	 _abs
  00b3c	83 c4 04	 add	 esp, 4
  00b3f	3b 45 f0	 cmp	 eax, DWORD PTR _step$200986[ebp]
  00b42	7f 34		 jg	 SHORT $L200989

; 391  : 		{
; 392  : 			m_pane->SetClosed(false);

  00b44	6a 00		 push	 0
  00b46	8b 45 e8	 mov	 eax, DWORD PTR _this$[ebp]
  00b49	8b 88 b0 00 00
	00		 mov	 ecx, DWORD PTR [eax+176]
  00b4f	e8 00 00 00 00	 call	 ?SetClosed@PaneBase@ETSLayoutMgr@@QAEXH@Z ; ETSLayoutMgr::PaneBase::SetClosed

; 393  : 			KillTimer(nIDEvent);

  00b54	8b 4d 08	 mov	 ecx, DWORD PTR _nIDEvent$[ebp]
  00b57	51		 push	 ecx
  00b58	8b 4d e8	 mov	 ecx, DWORD PTR _this$[ebp]
  00b5b	e8 00 00 00 00	 call	 ?KillTimer@CWnd@@QAEHI@Z ; CWnd::KillTimer

; 394  : 			this->m_pane->resizeTo(offset, true);

  00b60	6a 00		 push	 0
  00b62	6a 01		 push	 1
  00b64	8b 55 ec	 mov	 edx, DWORD PTR _offset$200985[ebp]
  00b67	52		 push	 edx
  00b68	8b 45 e8	 mov	 eax, DWORD PTR _this$[ebp]
  00b6b	8b 88 b0 00 00
	00		 mov	 ecx, DWORD PTR [eax+176]
  00b71	e8 00 00 00 00	 call	 ?resizeTo@PaneSplitter@ETSLayoutMgr@@QAE_NH_N0@Z ; ETSLayoutMgr::PaneSplitter::resizeTo

; 395  : 		}
; 396  : 		else

  00b76	eb 16		 jmp	 SHORT $L200990
$L200989:

; 397  : 			m_pane->resizeTo(offset);

  00b78	6a 00		 push	 0
  00b7a	6a 00		 push	 0
  00b7c	8b 4d ec	 mov	 ecx, DWORD PTR _offset$200985[ebp]
  00b7f	51		 push	 ecx
  00b80	8b 55 e8	 mov	 edx, DWORD PTR _this$[ebp]
  00b83	8b 8a b0 00 00
	00		 mov	 ecx, DWORD PTR [edx+176]
  00b89	e8 00 00 00 00	 call	 ?resizeTo@PaneSplitter@ETSLayoutMgr@@QAE_NH_N0@Z ; ETSLayoutMgr::PaneSplitter::resizeTo
$L200990:

; 398  : 
; 399  : 		m_nMouseOffset = 0;

  00b8e	8b 45 e8	 mov	 eax, DWORD PTR _this$[ebp]
  00b91	c7 40 5c 00 00
	00 00		 mov	 DWORD PTR [eax+92], 0
$L200984:

; 400  : 
; 401  : 	}
; 402  : 	CWnd::OnTimer(nIDEvent);

  00b98	8b 4d 08	 mov	 ecx, DWORD PTR _nIDEvent$[ebp]
  00b9b	51		 push	 ecx
  00b9c	8b 4d e8	 mov	 ecx, DWORD PTR _this$[ebp]
  00b9f	e8 00 00 00 00	 call	 ?OnTimer@CWnd@@IAEXI@Z	; CWnd::OnTimer

; 403  : 
; 404  : }

  00ba4	8b e5		 mov	 esp, ebp
  00ba6	5d		 pop	 ebp
  00ba7	c2 04 00	 ret	 4
?OnTimer@ETSSplitter@@IAEXI@Z ENDP			; ETSSplitter::OnTimer
; Function compile flags: /Odt
; File d:\boxgit\playbox\playbox\dev\prj\playbox\src\layoutmgr\etslayout.h
_TEXT	ENDS
;	COMDAT ?SetClosed@PaneBase@ETSLayoutMgr@@QAEXH@Z
_TEXT	SEGMENT
_this$ = -4						; size = 4
_closed$ = 8						; size = 4
?SetClosed@PaneBase@ETSLayoutMgr@@QAEXH@Z PROC NEAR	; ETSLayoutMgr::PaneBase::SetClosed, COMDAT
; _this$ = ecx

; 302  : 		VOID SetClosed(BOOL closed){m_bClosed = closed;};

  00000	55		 push	 ebp
  00001	8b ec		 mov	 ebp, esp
  00003	51		 push	 ecx
  00004	89 4d fc	 mov	 DWORD PTR _this$[ebp], ecx
  00007	8b 45 fc	 mov	 eax, DWORD PTR _this$[ebp]
  0000a	8b 4d 08	 mov	 ecx, DWORD PTR _closed$[ebp]
  0000d	89 48 24	 mov	 DWORD PTR [eax+36], ecx
  00010	8b e5		 mov	 esp, ebp
  00012	5d		 pop	 ebp
  00013	c2 04 00	 ret	 4
?SetClosed@PaneBase@ETSLayoutMgr@@QAEXH@Z ENDP		; ETSLayoutMgr::PaneBase::SetClosed
_TEXT	ENDS
PUBLIC	?Invalidate@CWnd@@QAEXH@Z			; CWnd::Invalidate
PUBLIC	?ChangeBarBtn@ETSSplitter@@AAEXH@Z		; ETSSplitter::ChangeBarBtn
; Function compile flags: /Odt
; File d:\boxgit\playbox\playbox\dev\prj\playbox\src\layoutmgr\etssplitter.cpp
_TEXT	SEGMENT
_this$ = -4						; size = 4
_bOver$ = 8						; size = 4
?ChangeBarBtn@ETSSplitter@@AAEXH@Z PROC NEAR		; ETSSplitter::ChangeBarBtn
; _this$ = ecx

; 407  : {

  00bb0	55		 push	 ebp
  00bb1	8b ec		 mov	 ebp, esp
  00bb3	51		 push	 ecx
  00bb4	89 4d fc	 mov	 DWORD PTR _this$[ebp], ecx

; 408  : 	if(m_bHorizSplitter)

  00bb7	8b 45 fc	 mov	 eax, DWORD PTR _this$[ebp]
  00bba	0f b6 48 54	 movzx	 ecx, BYTE PTR [eax+84]
  00bbe	85 c9		 test	 ecx, ecx
  00bc0	74 4c		 je	 SHORT $L200995

; 409  : 	{
; 410  : 		if(bOver)

  00bc2	83 7d 08 00	 cmp	 DWORD PTR _bOver$[ebp], 0
  00bc6	74 26		 je	 SHORT $L200996

; 411  : 		{
; 412  : 			this->m_bBarDown = m_bSpliterBarDownOver;

  00bc8	8b 55 fc	 mov	 edx, DWORD PTR _this$[ebp]
  00bcb	8b 45 fc	 mov	 eax, DWORD PTR _this$[ebp]
  00bce	8b 88 90 00 00
	00		 mov	 ecx, DWORD PTR [eax+144]
  00bd4	89 8a a8 00 00
	00		 mov	 DWORD PTR [edx+168], ecx

; 413  : 			this->m_bBarUp = m_bSpliterBarUpOver;

  00bda	8b 55 fc	 mov	 edx, DWORD PTR _this$[ebp]
  00bdd	8b 45 fc	 mov	 eax, DWORD PTR _this$[ebp]
  00be0	8b 88 8c 00 00
	00		 mov	 ecx, DWORD PTR [eax+140]
  00be6	89 8a a4 00 00
	00		 mov	 DWORD PTR [edx+164], ecx

; 414  : 		}
; 415  : 		else

  00bec	eb 1e		 jmp	 SHORT $L200997
$L200996:

; 416  : 		{
; 417  : 			this->m_bBarDown = m_bSpliterBarDown;

  00bee	8b 55 fc	 mov	 edx, DWORD PTR _this$[ebp]
  00bf1	8b 45 fc	 mov	 eax, DWORD PTR _this$[ebp]
  00bf4	8b 48 78	 mov	 ecx, DWORD PTR [eax+120]
  00bf7	89 8a a8 00 00
	00		 mov	 DWORD PTR [edx+168], ecx

; 418  : 			this->m_bBarUp = m_bSpliterBarUp;

  00bfd	8b 55 fc	 mov	 edx, DWORD PTR _this$[ebp]
  00c00	8b 45 fc	 mov	 eax, DWORD PTR _this$[ebp]
  00c03	8b 48 74	 mov	 ecx, DWORD PTR [eax+116]
  00c06	89 8a a4 00 00
	00		 mov	 DWORD PTR [edx+164], ecx
$L200997:

; 419  : 		}
; 420  : 	}
; 421  : 	else

  00c0c	eb 4a		 jmp	 SHORT $L200998
$L200995:

; 422  : 	{
; 423  : 		if(bOver)

  00c0e	83 7d 08 00	 cmp	 DWORD PTR _bOver$[ebp], 0
  00c12	74 26		 je	 SHORT $L200999

; 424  : 		{
; 425  : 			this->m_bBarLeft = m_bSpliterBarLeftOver;

  00c14	8b 55 fc	 mov	 edx, DWORD PTR _this$[ebp]
  00c17	8b 45 fc	 mov	 eax, DWORD PTR _this$[ebp]
  00c1a	8b 88 88 00 00
	00		 mov	 ecx, DWORD PTR [eax+136]
  00c20	89 8a a0 00 00
	00		 mov	 DWORD PTR [edx+160], ecx

; 426  : 			this->m_bBarRight = m_bSpliterBarRightOver;

  00c26	8b 55 fc	 mov	 edx, DWORD PTR _this$[ebp]
  00c29	8b 45 fc	 mov	 eax, DWORD PTR _this$[ebp]
  00c2c	8b 88 84 00 00
	00		 mov	 ecx, DWORD PTR [eax+132]
  00c32	89 8a 9c 00 00
	00		 mov	 DWORD PTR [edx+156], ecx

; 427  : 		}
; 428  : 		else

  00c38	eb 1e		 jmp	 SHORT $L200998
$L200999:

; 429  : 		{
; 430  : 			this->m_bBarLeft = m_bSpliterBarLeft;

  00c3a	8b 55 fc	 mov	 edx, DWORD PTR _this$[ebp]
  00c3d	8b 45 fc	 mov	 eax, DWORD PTR _this$[ebp]
  00c40	8b 48 70	 mov	 ecx, DWORD PTR [eax+112]
  00c43	89 8a a0 00 00
	00		 mov	 DWORD PTR [edx+160], ecx

; 431  : 			this->m_bBarRight = m_bSpliterBarRight;

  00c49	8b 55 fc	 mov	 edx, DWORD PTR _this$[ebp]
  00c4c	8b 45 fc	 mov	 eax, DWORD PTR _this$[ebp]
  00c4f	8b 48 6c	 mov	 ecx, DWORD PTR [eax+108]
  00c52	89 8a 9c 00 00
	00		 mov	 DWORD PTR [edx+156], ecx
$L200998:

; 432  : 		}
; 433  : 	}
; 434  : 	this->Invalidate(true);

  00c58	6a 01		 push	 1
  00c5a	8b 4d fc	 mov	 ecx, DWORD PTR _this$[ebp]
  00c5d	e8 00 00 00 00	 call	 ?Invalidate@CWnd@@QAEXH@Z ; CWnd::Invalidate

; 435  : }

  00c62	8b e5		 mov	 esp, ebp
  00c64	5d		 pop	 ebp
  00c65	c2 04 00	 ret	 4
?ChangeBarBtn@ETSSplitter@@AAEXH@Z ENDP			; ETSSplitter::ChangeBarBtn
_TEXT	ENDS
PUBLIC	?OnMouseMove@CWnd@@IAEXIVCPoint@@@Z		; CWnd::OnMouseMove
EXTRN	__imp___TrackMouseEvent@4:NEAR
; Function compile flags: /Odt
_TEXT	SEGMENT
_this$ = -20						; size = 4
_tme$201008 = -16					; size = 16
_nFlags$ = 8						; size = 4
_point$ = 12						; size = 8
?OnMouseMove@ETSSplitter@@IAEXIVCPoint@@@Z PROC NEAR	; ETSSplitter::OnMouseMove
; _this$ = ecx

; 437  : {

  00c70	55		 push	 ebp
  00c71	8b ec		 mov	 ebp, esp
  00c73	83 ec 14	 sub	 esp, 20			; 00000014H
  00c76	89 4d ec	 mov	 DWORD PTR _this$[ebp], ecx

; 438  : 	if(m_bSlim && this->IsClosed())

  00c79	8b 45 ec	 mov	 eax, DWORD PTR _this$[ebp]
  00c7c	0f b6 48 61	 movzx	 ecx, BYTE PTR [eax+97]
  00c80	85 c9		 test	 ecx, ecx
  00c82	74 14		 je	 SHORT $L201006
  00c84	8b 4d ec	 mov	 ecx, DWORD PTR _this$[ebp]
  00c87	e8 00 00 00 00	 call	 ?IsClosed@ETSSplitter@@QAE_NXZ ; ETSSplitter::IsClosed
  00c8c	0f b6 d0	 movzx	 edx, al
  00c8f	85 d2		 test	 edx, edx
  00c91	74 05		 je	 SHORT $L201006

; 439  : 		return;

  00c93	e9 b5 01 00 00	 jmp	 $L201005
$L201006:

; 440  : 
; 441  : 	if (!bTrackLeave)

  00c98	8b 45 ec	 mov	 eax, DWORD PTR _this$[ebp]
  00c9b	83 b8 b8 00 00
	00 00		 cmp	 DWORD PTR [eax+184], 0
  00ca2	75 2e		 jne	 SHORT $L201007

; 442  : 	{
; 443  :         TRACKMOUSEEVENT tme;
; 444  :         tme.cbSize = sizeof(tme);

  00ca4	c7 45 f0 10 00
	00 00		 mov	 DWORD PTR _tme$201008[ebp], 16 ; 00000010H

; 445  :         tme.hwndTrack = m_hWnd;

  00cab	8b 4d ec	 mov	 ecx, DWORD PTR _this$[ebp]
  00cae	8b 51 20	 mov	 edx, DWORD PTR [ecx+32]
  00cb1	89 55 f8	 mov	 DWORD PTR _tme$201008[ebp+8], edx

; 446  :         tme.dwFlags = TME_LEAVE;

  00cb4	c7 45 f4 02 00
	00 00		 mov	 DWORD PTR _tme$201008[ebp+4], 2

; 447  :         _TrackMouseEvent(&tme);

  00cbb	8d 45 f0	 lea	 eax, DWORD PTR _tme$201008[ebp]
  00cbe	50		 push	 eax
  00cbf	ff 15 00 00 00
	00		 call	 DWORD PTR __imp___TrackMouseEvent@4

; 448  :         bTrackLeave = TRUE;

  00cc5	8b 4d ec	 mov	 ecx, DWORD PTR _this$[ebp]
  00cc8	c7 81 b8 00 00
	00 01 00 00 00	 mov	 DWORD PTR [ecx+184], 1
$L201007:

; 449  :     }
; 450  : 
; 451  : 
; 452  : 	if(nFlags != 1 && IsMouseInCenterBar(point))

  00cd2	83 7d 08 01	 cmp	 DWORD PTR _nFlags$[ebp], 1
  00cd6	74 3b		 je	 SHORT $L201009
  00cd8	8b 55 10	 mov	 edx, DWORD PTR _point$[ebp+4]
  00cdb	52		 push	 edx
  00cdc	8b 45 0c	 mov	 eax, DWORD PTR _point$[ebp]
  00cdf	50		 push	 eax
  00ce0	8b 4d ec	 mov	 ecx, DWORD PTR _this$[ebp]
  00ce3	e8 00 00 00 00	 call	 ?IsMouseInCenterBar@ETSSplitter@@QAEHVCPoint@@@Z ; ETSSplitter::IsMouseInCenterBar
  00ce8	85 c0		 test	 eax, eax
  00cea	74 27		 je	 SHORT $L201009

; 453  : 	{
; 454  : 		::SetCursor( AfxGetApp()->LoadStandardCursor ((LPCTSTR)MAKEINTRESOURCE(32649)));

  00cec	68 89 7f 00 00	 push	 32649			; 00007f89H
  00cf1	e8 00 00 00 00	 call	 ?AfxGetApp@@YGPAVCWinApp@@XZ ; AfxGetApp
  00cf6	8b c8		 mov	 ecx, eax
  00cf8	e8 00 00 00 00	 call	 ?LoadStandardCursor@CWinApp@@QBEPAUHICON__@@PBD@Z ; CWinApp::LoadStandardCursor
  00cfd	50		 push	 eax
  00cfe	ff 15 00 00 00
	00		 call	 DWORD PTR __imp__SetCursor@4

; 455  : 		ChangeBarBtn(true);

  00d04	6a 01		 push	 1
  00d06	8b 4d ec	 mov	 ecx, DWORD PTR _this$[ebp]
  00d09	e8 00 00 00 00	 call	 ?ChangeBarBtn@ETSSplitter@@AAEXH@Z ; ETSSplitter::ChangeBarBtn

; 456  : 		return;

  00d0e	e9 3a 01 00 00	 jmp	 $L201005
$L201009:

; 457  : 	}
; 458  : 
; 459  : 	if(IsClosed())

  00d13	8b 4d ec	 mov	 ecx, DWORD PTR _this$[ebp]
  00d16	e8 00 00 00 00	 call	 ?IsClosed@ETSSplitter@@QAE_NXZ ; ETSSplitter::IsClosed
  00d1b	0f b6 c8	 movzx	 ecx, al
  00d1e	85 c9		 test	 ecx, ecx
  00d20	74 05		 je	 SHORT $L201014

; 460  : 	{
; 461  : 	//	m_pane->setOpenConstrain();
; 462  : 	//	if(m_pane->m_nSplOpendPos == 0 && IsClosed())
; 463  : 		return;

  00d22	e9 26 01 00 00	 jmp	 $L201005
$L201014:

; 464  : 	}
; 465  : 	ChangeBarBtn(false);

  00d27	6a 00		 push	 0
  00d29	8b 4d ec	 mov	 ecx, DWORD PTR _this$[ebp]
  00d2c	e8 00 00 00 00	 call	 ?ChangeBarBtn@ETSSplitter@@AAEXH@Z ; ETSSplitter::ChangeBarBtn

; 466  : 	if(!this->m_bHorizSplitter)

  00d31	8b 55 ec	 mov	 edx, DWORD PTR _this$[ebp]
  00d34	0f b6 42 54	 movzx	 eax, BYTE PTR [edx+84]
  00d38	85 c0		 test	 eax, eax
  00d3a	75 79		 jne	 SHORT $L201015

; 467  : 	{
; 468  : 		::SetCursor( AfxGetApp()->LoadStandardCursor ((LPCTSTR)IDC_SIZEWE));

  00d3c	68 84 7f 00 00	 push	 32644			; 00007f84H
  00d41	e8 00 00 00 00	 call	 ?AfxGetApp@@YGPAVCWinApp@@XZ ; AfxGetApp
  00d46	8b c8		 mov	 ecx, eax
  00d48	e8 00 00 00 00	 call	 ?LoadStandardCursor@CWinApp@@QBEPAUHICON__@@PBD@Z ; CWinApp::LoadStandardCursor
  00d4d	50		 push	 eax
  00d4e	ff 15 00 00 00
	00		 call	 DWORD PTR __imp__SetCursor@4

; 469  : 		if(nFlags == 1 && m_bMouseButtonDownOnTheBar)

  00d54	83 7d 08 01	 cmp	 DWORD PTR _nFlags$[ebp], 1
  00d58	75 5b		 jne	 SHORT $L201015
  00d5a	8b 4d ec	 mov	 ecx, DWORD PTR _this$[ebp]
  00d5d	0f b6 51 55	 movzx	 edx, BYTE PTR [ecx+85]
  00d61	85 d2		 test	 edx, edx
  00d63	74 50		 je	 SHORT $L201015

; 470  : 		{
; 471  : 			DrawVertBar(m_nMouseOffset);

  00d65	8b 45 ec	 mov	 eax, DWORD PTR _this$[ebp]
  00d68	8b 48 5c	 mov	 ecx, DWORD PTR [eax+92]
  00d6b	51		 push	 ecx
  00d6c	8b 55 ec	 mov	 edx, DWORD PTR _this$[ebp]
  00d6f	8b 02		 mov	 eax, DWORD PTR [edx]
  00d71	8b 4d ec	 mov	 ecx, DWORD PTR _this$[ebp]
  00d74	ff 90 44 01 00
	00		 call	 DWORD PTR [eax+324]

; 472  : 			m_nMouseOffset = point.x - m_nMouseOrgPosition;

  00d7a	8b 4d ec	 mov	 ecx, DWORD PTR _this$[ebp]
  00d7d	8b 55 0c	 mov	 edx, DWORD PTR _point$[ebp]
  00d80	2b 51 58	 sub	 edx, DWORD PTR [ecx+88]
  00d83	8b 45 ec	 mov	 eax, DWORD PTR _this$[ebp]
  00d86	89 50 5c	 mov	 DWORD PTR [eax+92], edx

; 473  : 
; 474  : 			if(m_nMouseOffset != 0)

  00d89	8b 4d ec	 mov	 ecx, DWORD PTR _this$[ebp]
  00d8c	83 79 5c 00	 cmp	 DWORD PTR [ecx+92], 0
  00d90	74 0e		 je	 SHORT $L201021

; 475  : 				ConstrainOffset();

  00d92	8b 55 ec	 mov	 edx, DWORD PTR _this$[ebp]
  00d95	8b 02		 mov	 eax, DWORD PTR [edx]
  00d97	8b 4d ec	 mov	 ecx, DWORD PTR _this$[ebp]
  00d9a	ff 90 4c 01 00
	00		 call	 DWORD PTR [eax+332]
$L201021:

; 476  : 
; 477  : 			DrawVertBar(m_nMouseOffset);

  00da0	8b 4d ec	 mov	 ecx, DWORD PTR _this$[ebp]
  00da3	8b 51 5c	 mov	 edx, DWORD PTR [ecx+92]
  00da6	52		 push	 edx
  00da7	8b 45 ec	 mov	 eax, DWORD PTR _this$[ebp]
  00daa	8b 10		 mov	 edx, DWORD PTR [eax]
  00dac	8b 4d ec	 mov	 ecx, DWORD PTR _this$[ebp]
  00daf	ff 92 44 01 00
	00		 call	 DWORD PTR [edx+324]
$L201015:

; 478  : 		}
; 479  :  	}
; 480  : 
; 481  : 	if(m_bHorizSplitter)

  00db5	8b 45 ec	 mov	 eax, DWORD PTR _this$[ebp]
  00db8	0f b6 48 54	 movzx	 ecx, BYTE PTR [eax+84]
  00dbc	85 c9		 test	 ecx, ecx
  00dbe	74 79		 je	 SHORT $L201022

; 482  : 	{
; 483  : 		::SetCursor( AfxGetApp()->LoadStandardCursor ((LPCTSTR)IDC_SIZENS));

  00dc0	68 85 7f 00 00	 push	 32645			; 00007f85H
  00dc5	e8 00 00 00 00	 call	 ?AfxGetApp@@YGPAVCWinApp@@XZ ; AfxGetApp
  00dca	8b c8		 mov	 ecx, eax
  00dcc	e8 00 00 00 00	 call	 ?LoadStandardCursor@CWinApp@@QBEPAUHICON__@@PBD@Z ; CWinApp::LoadStandardCursor
  00dd1	50		 push	 eax
  00dd2	ff 15 00 00 00
	00		 call	 DWORD PTR __imp__SetCursor@4

; 484  : 		if(nFlags == 1 && m_bMouseButtonDownOnTheBar)

  00dd8	83 7d 08 01	 cmp	 DWORD PTR _nFlags$[ebp], 1
  00ddc	75 5b		 jne	 SHORT $L201022
  00dde	8b 55 ec	 mov	 edx, DWORD PTR _this$[ebp]
  00de1	0f b6 42 55	 movzx	 eax, BYTE PTR [edx+85]
  00de5	85 c0		 test	 eax, eax
  00de7	74 50		 je	 SHORT $L201022

; 485  : 		{
; 486  : 			DrawHorizBar(m_nMouseOffset);

  00de9	8b 4d ec	 mov	 ecx, DWORD PTR _this$[ebp]
  00dec	8b 51 5c	 mov	 edx, DWORD PTR [ecx+92]
  00def	52		 push	 edx
  00df0	8b 45 ec	 mov	 eax, DWORD PTR _this$[ebp]
  00df3	8b 10		 mov	 edx, DWORD PTR [eax]
  00df5	8b 4d ec	 mov	 ecx, DWORD PTR _this$[ebp]
  00df8	ff 92 48 01 00
	00		 call	 DWORD PTR [edx+328]

; 487  : 			m_nMouseOffset = point.y - m_nMouseOrgPosition;

  00dfe	8b 45 ec	 mov	 eax, DWORD PTR _this$[ebp]
  00e01	8b 4d 10	 mov	 ecx, DWORD PTR _point$[ebp+4]
  00e04	2b 48 58	 sub	 ecx, DWORD PTR [eax+88]
  00e07	8b 55 ec	 mov	 edx, DWORD PTR _this$[ebp]
  00e0a	89 4a 5c	 mov	 DWORD PTR [edx+92], ecx

; 488  : 			if(m_nMouseOffset != 0)

  00e0d	8b 45 ec	 mov	 eax, DWORD PTR _this$[ebp]
  00e10	83 78 5c 00	 cmp	 DWORD PTR [eax+92], 0
  00e14	74 0e		 je	 SHORT $L201028

; 489  : 				ConstrainOffset();

  00e16	8b 4d ec	 mov	 ecx, DWORD PTR _this$[ebp]
  00e19	8b 11		 mov	 edx, DWORD PTR [ecx]
  00e1b	8b 4d ec	 mov	 ecx, DWORD PTR _this$[ebp]
  00e1e	ff 92 4c 01 00
	00		 call	 DWORD PTR [edx+332]
$L201028:

; 490  : 
; 491  : 			DrawHorizBar(m_nMouseOffset);

  00e24	8b 45 ec	 mov	 eax, DWORD PTR _this$[ebp]
  00e27	8b 48 5c	 mov	 ecx, DWORD PTR [eax+92]
  00e2a	51		 push	 ecx
  00e2b	8b 55 ec	 mov	 edx, DWORD PTR _this$[ebp]
  00e2e	8b 02		 mov	 eax, DWORD PTR [edx]
  00e30	8b 4d ec	 mov	 ecx, DWORD PTR _this$[ebp]
  00e33	ff 90 48 01 00
	00		 call	 DWORD PTR [eax+328]
$L201022:

; 492  :  		}
; 493  : 	}
; 494  : 	
; 495  : 	CStatic::OnMouseMove(nFlags, point);

  00e39	8b 4d 10	 mov	 ecx, DWORD PTR _point$[ebp+4]
  00e3c	51		 push	 ecx
  00e3d	8b 55 0c	 mov	 edx, DWORD PTR _point$[ebp]
  00e40	52		 push	 edx
  00e41	8b 45 08	 mov	 eax, DWORD PTR _nFlags$[ebp]
  00e44	50		 push	 eax
  00e45	8b 4d ec	 mov	 ecx, DWORD PTR _this$[ebp]
  00e48	e8 00 00 00 00	 call	 ?OnMouseMove@CWnd@@IAEXIVCPoint@@@Z ; CWnd::OnMouseMove
$L201005:

; 496  : }

  00e4d	8b e5		 mov	 esp, ebp
  00e4f	5d		 pop	 ebp
  00e50	c2 0c 00	 ret	 12			; 0000000cH
?OnMouseMove@ETSSplitter@@IAEXIVCPoint@@@Z ENDP		; ETSSplitter::OnMouseMove
_TEXT	ENDS
PUBLIC	?GetWindowRect@CWnd@@QBEXPAUtagRECT@@@Z		; CWnd::GetWindowRect
PUBLIC	?Width@CRect@@QBEHXZ				; CRect::Width
PUBLIC	?Height@CRect@@QBEHXZ				; CRect::Height
PUBLIC	?TopLeft@CRect@@QAEAAVCPoint@@XZ		; CRect::TopLeft
PUBLIC	??ZCRect@@QAEXUtagPOINT@@@Z			; CRect::operator-=
PUBLIC	?GetParent@CWnd@@QBEPAV1@XZ			; CWnd::GetParent
PUBLIC	?PatBlt@CDC@@QAEHHHHHK@Z			; CDC::PatBlt
PUBLIC	??1CBrush@@UAE@XZ				; CBrush::~CBrush
EXTRN	?SelectObject@CDC@@QAEPAVCBrush@@PAV2@@Z:NEAR	; CDC::SelectObject
EXTRN	__imp__GetSysColor@4:NEAR
EXTRN	??0CBrush@@QAE@K@Z:NEAR				; CBrush::CBrush
EXTRN	??0CWindowDC@@QAE@PAVCWnd@@@Z:NEAR		; CWindowDC::CWindowDC
EXTRN	??1CWindowDC@@UAE@XZ:NEAR			; CWindowDC::~CWindowDC
xdata$x	SEGMENT
$T202870 DD	0ffffffffH
	DD	FLAT:$L202865
	DD	00H
	DD	FLAT:$L202866
$T202868 DD	019930520H
	DD	02H
	DD	FLAT:$T202870
	DD	2 DUP(00H)
	DD	2 DUP(00H)
; Function compile flags: /Odt
xdata$x	ENDS
_TEXT	SEGMENT
_this$ = -92						; size = 4
$T202864 = -88						; size = 8
_pOldBrush$ = -80					; size = 4
_brush$ = -76						; size = 8
_pParentWnd$ = -68					; size = 4
_rcWin$ = -64						; size = 16
_dc$ = -48						; size = 20
_rc$ = -28						; size = 16
__$EHRec$ = -12						; size = 12
_offset$ = 8						; size = 4
?DrawVertBar@ETSSplitter@@MAEXH@Z PROC NEAR		; ETSSplitter::DrawVertBar
; _this$ = ecx

; 499  : {

  00e60	55		 push	 ebp
  00e61	8b ec		 mov	 ebp, esp
  00e63	6a ff		 push	 -1
  00e65	68 00 00 00 00	 push	 __ehhandler$?DrawVertBar@ETSSplitter@@MAEXH@Z
  00e6a	64 a1 00 00 00
	00		 mov	 eax, DWORD PTR fs:__except_list
  00e70	50		 push	 eax
  00e71	64 89 25 00 00
	00 00		 mov	 DWORD PTR fs:__except_list, esp
  00e78	83 ec 50	 sub	 esp, 80			; 00000050H
  00e7b	89 4d a4	 mov	 DWORD PTR _this$[ebp], ecx

; 500  : 	if(offset == 0)

  00e7e	83 7d 08 00	 cmp	 DWORD PTR _offset$[ebp], 0
  00e82	75 05		 jne	 SHORT $L201033

; 501  : 		return;

  00e84	e9 de 00 00 00	 jmp	 $L201032
$L201033:

; 502  : 	CWnd* pParentWnd = GetParent();

  00e89	8b 4d a4	 mov	 ecx, DWORD PTR _this$[ebp]
  00e8c	e8 00 00 00 00	 call	 ?GetParent@CWnd@@QBEPAV1@XZ ; CWnd::GetParent
  00e91	89 45 bc	 mov	 DWORD PTR _pParentWnd$[ebp], eax

; 503  : 	CWindowDC dc(pParentWnd);

  00e94	8b 45 bc	 mov	 eax, DWORD PTR _pParentWnd$[ebp]
  00e97	50		 push	 eax
  00e98	8d 4d d0	 lea	 ecx, DWORD PTR _dc$[ebp]
  00e9b	e8 00 00 00 00	 call	 ??0CWindowDC@@QAE@PAVCWnd@@@Z ; CWindowDC::CWindowDC
  00ea0	c7 45 fc 00 00
	00 00		 mov	 DWORD PTR __$EHRec$[ebp+8], 0

; 504  : 	CRect rcWin;

  00ea7	8d 4d c0	 lea	 ecx, DWORD PTR _rcWin$[ebp]
  00eaa	e8 00 00 00 00	 call	 ??0CRect@@QAE@XZ	; CRect::CRect

; 505  : 	pParentWnd->GetWindowRect(&rcWin);	 

  00eaf	8d 4d c0	 lea	 ecx, DWORD PTR _rcWin$[ebp]
  00eb2	51		 push	 ecx
  00eb3	8b 4d bc	 mov	 ecx, DWORD PTR _pParentWnd$[ebp]
  00eb6	e8 00 00 00 00	 call	 ?GetWindowRect@CWnd@@QBEXPAUtagRECT@@@Z ; CWnd::GetWindowRect

; 506  : 	
; 507  : 	CRect rc;

  00ebb	8d 4d e4	 lea	 ecx, DWORD PTR _rc$[ebp]
  00ebe	e8 00 00 00 00	 call	 ??0CRect@@QAE@XZ	; CRect::CRect

; 508  : 	this->GetWindowRect(&rc);

  00ec3	8d 55 e4	 lea	 edx, DWORD PTR _rc$[ebp]
  00ec6	52		 push	 edx
  00ec7	8b 4d a4	 mov	 ecx, DWORD PTR _this$[ebp]
  00eca	e8 00 00 00 00	 call	 ?GetWindowRect@CWnd@@QBEXPAUtagRECT@@@Z ; CWnd::GetWindowRect

; 509  : 	rc -= rcWin.TopLeft();					 

  00ecf	8d 4d c0	 lea	 ecx, DWORD PTR _rcWin$[ebp]
  00ed2	e8 00 00 00 00	 call	 ?TopLeft@CRect@@QAEAAVCPoint@@XZ ; CRect::TopLeft
  00ed7	8b 08		 mov	 ecx, DWORD PTR [eax]
  00ed9	8b 50 04	 mov	 edx, DWORD PTR [eax+4]
  00edc	89 4d a8	 mov	 DWORD PTR $T202864[ebp], ecx
  00edf	89 55 ac	 mov	 DWORD PTR $T202864[ebp+4], edx
  00ee2	8b 45 ac	 mov	 eax, DWORD PTR $T202864[ebp+4]
  00ee5	50		 push	 eax
  00ee6	8b 4d a8	 mov	 ecx, DWORD PTR $T202864[ebp]
  00ee9	51		 push	 ecx
  00eea	8d 4d e4	 lea	 ecx, DWORD PTR _rc$[ebp]
  00eed	e8 00 00 00 00	 call	 ??ZCRect@@QAEXUtagPOINT@@@Z ; CRect::operator-=

; 510  : 
; 511  : 	CBrush brush(GetSysColor(COLOR_3DFACE));

  00ef2	6a 0f		 push	 15			; 0000000fH
  00ef4	ff 15 00 00 00
	00		 call	 DWORD PTR __imp__GetSysColor@4
  00efa	50		 push	 eax
  00efb	8d 4d b4	 lea	 ecx, DWORD PTR _brush$[ebp]
  00efe	e8 00 00 00 00	 call	 ??0CBrush@@QAE@K@Z	; CBrush::CBrush
  00f03	c6 45 fc 01	 mov	 BYTE PTR __$EHRec$[ebp+8], 1

; 512  : 	CBrush* pOldBrush = dc.SelectObject(&brush);

  00f07	8d 55 b4	 lea	 edx, DWORD PTR _brush$[ebp]
  00f0a	52		 push	 edx
  00f0b	8d 4d d0	 lea	 ecx, DWORD PTR _dc$[ebp]
  00f0e	e8 00 00 00 00	 call	 ?SelectObject@CDC@@QAEPAVCBrush@@PAV2@@Z ; CDC::SelectObject
  00f13	89 45 b0	 mov	 DWORD PTR _pOldBrush$[ebp], eax

; 513  : 
; 514  : 	dc.PatBlt(
; 515  : 		rc.left + offset, 
; 516  : 		rc.top, 
; 517  : 		rc.Width(), 
; 518  : 		rc.Height(), 
; 519  : 		PATINVERT);

  00f16	68 49 00 5a 00	 push	 5898313			; 005a0049H
  00f1b	8d 4d e4	 lea	 ecx, DWORD PTR _rc$[ebp]
  00f1e	e8 00 00 00 00	 call	 ?Height@CRect@@QBEHXZ	; CRect::Height
  00f23	50		 push	 eax
  00f24	8d 4d e4	 lea	 ecx, DWORD PTR _rc$[ebp]
  00f27	e8 00 00 00 00	 call	 ?Width@CRect@@QBEHXZ	; CRect::Width
  00f2c	50		 push	 eax
  00f2d	8b 45 e8	 mov	 eax, DWORD PTR _rc$[ebp+4]
  00f30	50		 push	 eax
  00f31	8b 4d e4	 mov	 ecx, DWORD PTR _rc$[ebp]
  00f34	03 4d 08	 add	 ecx, DWORD PTR _offset$[ebp]
  00f37	51		 push	 ecx
  00f38	8d 4d d0	 lea	 ecx, DWORD PTR _dc$[ebp]
  00f3b	e8 00 00 00 00	 call	 ?PatBlt@CDC@@QAEHHHHHK@Z ; CDC::PatBlt

; 520  : 
; 521  : 	dc.SelectObject(pOldBrush);

  00f40	8b 55 b0	 mov	 edx, DWORD PTR _pOldBrush$[ebp]
  00f43	52		 push	 edx
  00f44	8d 4d d0	 lea	 ecx, DWORD PTR _dc$[ebp]
  00f47	e8 00 00 00 00	 call	 ?SelectObject@CDC@@QAEPAVCBrush@@PAV2@@Z ; CDC::SelectObject

; 522  : }

  00f4c	c6 45 fc 00	 mov	 BYTE PTR __$EHRec$[ebp+8], 0
  00f50	8d 4d b4	 lea	 ecx, DWORD PTR _brush$[ebp]
  00f53	e8 00 00 00 00	 call	 ??1CBrush@@UAE@XZ	; CBrush::~CBrush
  00f58	c7 45 fc ff ff
	ff ff		 mov	 DWORD PTR __$EHRec$[ebp+8], -1
  00f5f	8d 4d d0	 lea	 ecx, DWORD PTR _dc$[ebp]
  00f62	e8 00 00 00 00	 call	 ??1CWindowDC@@UAE@XZ	; CWindowDC::~CWindowDC
$L201032:
  00f67	8b 4d f4	 mov	 ecx, DWORD PTR __$EHRec$[ebp]
  00f6a	64 89 0d 00 00
	00 00		 mov	 DWORD PTR fs:__except_list, ecx
  00f71	8b e5		 mov	 esp, ebp
  00f73	5d		 pop	 ebp
  00f74	c2 04 00	 ret	 4
_TEXT	ENDS
text$x	SEGMENT
$L202865:
  00015	8d 4d d0	 lea	 ecx, DWORD PTR _dc$[ebp]
  00018	e9 00 00 00 00	 jmp	 ??1CWindowDC@@UAE@XZ	; CWindowDC::~CWindowDC
$L202866:
  0001d	8d 4d b4	 lea	 ecx, DWORD PTR _brush$[ebp]
  00020	e9 00 00 00 00	 jmp	 ??1CBrush@@UAE@XZ	; CBrush::~CBrush
__ehhandler$?DrawVertBar@ETSSplitter@@MAEXH@Z:
  00025	b8 00 00 00 00	 mov	 eax, OFFSET FLAT:$T202868
  0002a	e9 00 00 00 00	 jmp	 ___CxxFrameHandler
text$x	ENDS
?DrawVertBar@ETSSplitter@@MAEXH@Z ENDP			; ETSSplitter::DrawVertBar
xdata$x	SEGMENT
$T202878 DD	0ffffffffH
	DD	FLAT:$L202873
	DD	00H
	DD	FLAT:$L202874
$T202876 DD	019930520H
	DD	02H
	DD	FLAT:$T202878
	DD	2 DUP(00H)
	DD	2 DUP(00H)
; Function compile flags: /Odt
xdata$x	ENDS
_TEXT	SEGMENT
_this$ = -92						; size = 4
$T202872 = -88						; size = 8
_pOldBrush$ = -80					; size = 4
_brush$ = -76						; size = 8
_pParentWnd$ = -68					; size = 4
_rcWin$ = -64						; size = 16
_dc$ = -48						; size = 20
_rc$ = -28						; size = 16
__$EHRec$ = -12						; size = 12
_offset$ = 8						; size = 4
?DrawHorizBar@ETSSplitter@@MAEXH@Z PROC NEAR		; ETSSplitter::DrawHorizBar
; _this$ = ecx

; 526  : {

  00f80	55		 push	 ebp
  00f81	8b ec		 mov	 ebp, esp
  00f83	6a ff		 push	 -1
  00f85	68 00 00 00 00	 push	 __ehhandler$?DrawHorizBar@ETSSplitter@@MAEXH@Z
  00f8a	64 a1 00 00 00
	00		 mov	 eax, DWORD PTR fs:__except_list
  00f90	50		 push	 eax
  00f91	64 89 25 00 00
	00 00		 mov	 DWORD PTR fs:__except_list, esp
  00f98	83 ec 50	 sub	 esp, 80			; 00000050H
  00f9b	89 4d a4	 mov	 DWORD PTR _this$[ebp], ecx

; 527  : 	if(offset == 0)

  00f9e	83 7d 08 00	 cmp	 DWORD PTR _offset$[ebp], 0
  00fa2	75 05		 jne	 SHORT $L201046

; 528  : 		return;

  00fa4	e9 de 00 00 00	 jmp	 $L201045
$L201046:

; 529  : 
; 530  : 	CWnd* pParentWnd = GetParent();

  00fa9	8b 4d a4	 mov	 ecx, DWORD PTR _this$[ebp]
  00fac	e8 00 00 00 00	 call	 ?GetParent@CWnd@@QBEPAV1@XZ ; CWnd::GetParent
  00fb1	89 45 bc	 mov	 DWORD PTR _pParentWnd$[ebp], eax

; 531  : 	CWindowDC dc(pParentWnd);

  00fb4	8b 45 bc	 mov	 eax, DWORD PTR _pParentWnd$[ebp]
  00fb7	50		 push	 eax
  00fb8	8d 4d d0	 lea	 ecx, DWORD PTR _dc$[ebp]
  00fbb	e8 00 00 00 00	 call	 ??0CWindowDC@@QAE@PAVCWnd@@@Z ; CWindowDC::CWindowDC
  00fc0	c7 45 fc 00 00
	00 00		 mov	 DWORD PTR __$EHRec$[ebp+8], 0

; 532  : 	CRect rcWin;

  00fc7	8d 4d c0	 lea	 ecx, DWORD PTR _rcWin$[ebp]
  00fca	e8 00 00 00 00	 call	 ??0CRect@@QAE@XZ	; CRect::CRect

; 533  : 	pParentWnd->GetWindowRect(&rcWin);	 

  00fcf	8d 4d c0	 lea	 ecx, DWORD PTR _rcWin$[ebp]
  00fd2	51		 push	 ecx
  00fd3	8b 4d bc	 mov	 ecx, DWORD PTR _pParentWnd$[ebp]
  00fd6	e8 00 00 00 00	 call	 ?GetWindowRect@CWnd@@QBEXPAUtagRECT@@@Z ; CWnd::GetWindowRect

; 534  : 
; 535  : 	CRect rc;

  00fdb	8d 4d e4	 lea	 ecx, DWORD PTR _rc$[ebp]
  00fde	e8 00 00 00 00	 call	 ??0CRect@@QAE@XZ	; CRect::CRect

; 536  : 	this->GetWindowRect(&rc);

  00fe3	8d 55 e4	 lea	 edx, DWORD PTR _rc$[ebp]
  00fe6	52		 push	 edx
  00fe7	8b 4d a4	 mov	 ecx, DWORD PTR _this$[ebp]
  00fea	e8 00 00 00 00	 call	 ?GetWindowRect@CWnd@@QBEXPAUtagRECT@@@Z ; CWnd::GetWindowRect

; 537  : 	rc -= rcWin.TopLeft();	

  00fef	8d 4d c0	 lea	 ecx, DWORD PTR _rcWin$[ebp]
  00ff2	e8 00 00 00 00	 call	 ?TopLeft@CRect@@QAEAAVCPoint@@XZ ; CRect::TopLeft
  00ff7	8b 08		 mov	 ecx, DWORD PTR [eax]
  00ff9	8b 50 04	 mov	 edx, DWORD PTR [eax+4]
  00ffc	89 4d a8	 mov	 DWORD PTR $T202872[ebp], ecx
  00fff	89 55 ac	 mov	 DWORD PTR $T202872[ebp+4], edx
  01002	8b 45 ac	 mov	 eax, DWORD PTR $T202872[ebp+4]
  01005	50		 push	 eax
  01006	8b 4d a8	 mov	 ecx, DWORD PTR $T202872[ebp]
  01009	51		 push	 ecx
  0100a	8d 4d e4	 lea	 ecx, DWORD PTR _rc$[ebp]
  0100d	e8 00 00 00 00	 call	 ??ZCRect@@QAEXUtagPOINT@@@Z ; CRect::operator-=

; 538  : 
; 539  : 	CBrush brush(GetSysColor(COLOR_3DFACE));

  01012	6a 0f		 push	 15			; 0000000fH
  01014	ff 15 00 00 00
	00		 call	 DWORD PTR __imp__GetSysColor@4
  0101a	50		 push	 eax
  0101b	8d 4d b4	 lea	 ecx, DWORD PTR _brush$[ebp]
  0101e	e8 00 00 00 00	 call	 ??0CBrush@@QAE@K@Z	; CBrush::CBrush
  01023	c6 45 fc 01	 mov	 BYTE PTR __$EHRec$[ebp+8], 1

; 540  : 	CBrush* pOldBrush = dc.SelectObject(&brush);

  01027	8d 55 b4	 lea	 edx, DWORD PTR _brush$[ebp]
  0102a	52		 push	 edx
  0102b	8d 4d d0	 lea	 ecx, DWORD PTR _dc$[ebp]
  0102e	e8 00 00 00 00	 call	 ?SelectObject@CDC@@QAEPAVCBrush@@PAV2@@Z ; CDC::SelectObject
  01033	89 45 b0	 mov	 DWORD PTR _pOldBrush$[ebp], eax

; 541  : 
; 542  : 	dc.PatBlt(
; 543  : 		rc.left, 
; 544  : 		rc.top + offset, 
; 545  : 		rc.Width(), 
; 546  : 		rc.Height(), 
; 547  : 		PATINVERT
; 548  : 	);

  01036	68 49 00 5a 00	 push	 5898313			; 005a0049H
  0103b	8d 4d e4	 lea	 ecx, DWORD PTR _rc$[ebp]
  0103e	e8 00 00 00 00	 call	 ?Height@CRect@@QBEHXZ	; CRect::Height
  01043	50		 push	 eax
  01044	8d 4d e4	 lea	 ecx, DWORD PTR _rc$[ebp]
  01047	e8 00 00 00 00	 call	 ?Width@CRect@@QBEHXZ	; CRect::Width
  0104c	50		 push	 eax
  0104d	8b 45 e8	 mov	 eax, DWORD PTR _rc$[ebp+4]
  01050	03 45 08	 add	 eax, DWORD PTR _offset$[ebp]
  01053	50		 push	 eax
  01054	8b 4d e4	 mov	 ecx, DWORD PTR _rc$[ebp]
  01057	51		 push	 ecx
  01058	8d 4d d0	 lea	 ecx, DWORD PTR _dc$[ebp]
  0105b	e8 00 00 00 00	 call	 ?PatBlt@CDC@@QAEHHHHHK@Z ; CDC::PatBlt

; 549  : 
; 550  : 	dc.SelectObject(pOldBrush);

  01060	8b 55 b0	 mov	 edx, DWORD PTR _pOldBrush$[ebp]
  01063	52		 push	 edx
  01064	8d 4d d0	 lea	 ecx, DWORD PTR _dc$[ebp]
  01067	e8 00 00 00 00	 call	 ?SelectObject@CDC@@QAEPAVCBrush@@PAV2@@Z ; CDC::SelectObject

; 551  : }

  0106c	c6 45 fc 00	 mov	 BYTE PTR __$EHRec$[ebp+8], 0
  01070	8d 4d b4	 lea	 ecx, DWORD PTR _brush$[ebp]
  01073	e8 00 00 00 00	 call	 ??1CBrush@@UAE@XZ	; CBrush::~CBrush
  01078	c7 45 fc ff ff
	ff ff		 mov	 DWORD PTR __$EHRec$[ebp+8], -1
  0107f	8d 4d d0	 lea	 ecx, DWORD PTR _dc$[ebp]
  01082	e8 00 00 00 00	 call	 ??1CWindowDC@@UAE@XZ	; CWindowDC::~CWindowDC
$L201045:
  01087	8b 4d f4	 mov	 ecx, DWORD PTR __$EHRec$[ebp]
  0108a	64 89 0d 00 00
	00 00		 mov	 DWORD PTR fs:__except_list, ecx
  01091	8b e5		 mov	 esp, ebp
  01093	5d		 pop	 ebp
  01094	c2 04 00	 ret	 4
_TEXT	ENDS
text$x	SEGMENT
$L202873:
  0002f	8d 4d d0	 lea	 ecx, DWORD PTR _dc$[ebp]
  00032	e9 00 00 00 00	 jmp	 ??1CWindowDC@@UAE@XZ	; CWindowDC::~CWindowDC
$L202874:
  00037	8d 4d b4	 lea	 ecx, DWORD PTR _brush$[ebp]
  0003a	e9 00 00 00 00	 jmp	 ??1CBrush@@UAE@XZ	; CBrush::~CBrush
__ehhandler$?DrawHorizBar@ETSSplitter@@MAEXH@Z:
  0003f	b8 00 00 00 00	 mov	 eax, OFFSET FLAT:$T202876
  00044	e9 00 00 00 00	 jmp	 ___CxxFrameHandler
text$x	ENDS
?DrawHorizBar@ETSSplitter@@MAEXH@Z ENDP			; ETSSplitter::DrawHorizBar
EXTRN	?PreCreateWindow@CWnd@@UAEHAAUtagCREATESTRUCTA@@@Z:NEAR ; CWnd::PreCreateWindow
; Function compile flags: /Odt
_TEXT	SEGMENT
_this$ = -4						; size = 4
_cs$ = 8						; size = 4
?PreCreateWindow@ETSSplitter@@MAEHAAUtagCREATESTRUCTA@@@Z PROC NEAR ; ETSSplitter::PreCreateWindow
; _this$ = ecx

; 554  : {

  010a0	55		 push	 ebp
  010a1	8b ec		 mov	 ebp, esp
  010a3	51		 push	 ecx
  010a4	89 4d fc	 mov	 DWORD PTR _this$[ebp], ecx

; 555  : 	cs.style |= SS_NOTIFY; // to notify its parent of mouse events	

  010a7	8b 45 08	 mov	 eax, DWORD PTR _cs$[ebp]
  010aa	8b 48 20	 mov	 ecx, DWORD PTR [eax+32]
  010ad	81 c9 00 01 00
	00		 or	 ecx, 256		; 00000100H
  010b3	8b 55 08	 mov	 edx, DWORD PTR _cs$[ebp]
  010b6	89 4a 20	 mov	 DWORD PTR [edx+32], ecx

; 556  : 	return CStatic::PreCreateWindow(cs);

  010b9	8b 45 08	 mov	 eax, DWORD PTR _cs$[ebp]
  010bc	50		 push	 eax
  010bd	8b 4d fc	 mov	 ecx, DWORD PTR _this$[ebp]
  010c0	e8 00 00 00 00	 call	 ?PreCreateWindow@CWnd@@UAEHAAUtagCREATESTRUCTA@@@Z ; CWnd::PreCreateWindow

; 557  : }

  010c5	8b e5		 mov	 esp, ebp
  010c7	5d		 pop	 ebp
  010c8	c2 04 00	 ret	 4
?PreCreateWindow@ETSSplitter@@MAEHAAUtagCREATESTRUCTA@@@Z ENDP ; ETSSplitter::PreCreateWindow
_TEXT	ENDS
EXTRN	?getOffsetConstrain@PaneSplitter@ETSLayoutMgr@@QAEHH@Z:NEAR ; ETSLayoutMgr::PaneSplitter::getOffsetConstrain
; Function compile flags: /Odt
_TEXT	SEGMENT
_this$ = -4						; size = 4
?ConstrainOffset@ETSSplitter@@MAEXXZ PROC NEAR		; ETSSplitter::ConstrainOffset
; _this$ = ecx

; 560  : {

  010d0	55		 push	 ebp
  010d1	8b ec		 mov	 ebp, esp
  010d3	51		 push	 ecx
  010d4	89 4d fc	 mov	 DWORD PTR _this$[ebp], ecx

; 561  : 	m_nMouseOffset = m_pane->getOffsetConstrain(this->m_nMouseOffset);

  010d7	8b 45 fc	 mov	 eax, DWORD PTR _this$[ebp]
  010da	8b 48 5c	 mov	 ecx, DWORD PTR [eax+92]
  010dd	51		 push	 ecx
  010de	8b 55 fc	 mov	 edx, DWORD PTR _this$[ebp]
  010e1	8b 8a b0 00 00
	00		 mov	 ecx, DWORD PTR [edx+176]
  010e7	e8 00 00 00 00	 call	 ?getOffsetConstrain@PaneSplitter@ETSLayoutMgr@@QAEHH@Z ; ETSLayoutMgr::PaneSplitter::getOffsetConstrain
  010ec	8b 4d fc	 mov	 ecx, DWORD PTR _this$[ebp]
  010ef	89 41 5c	 mov	 DWORD PTR [ecx+92], eax

; 562  : }

  010f2	8b e5		 mov	 esp, ebp
  010f4	5d		 pop	 ebp
  010f5	c3		 ret	 0
?ConstrainOffset@ETSSplitter@@MAEXXZ ENDP		; ETSSplitter::ConstrainOffset
; Function compile flags: /Odt
_this$ = -4						; size = 4
_wp$ = 8						; size = 4
_lp$ = 12						; size = 4
?OnMouseLeave@ETSSplitter@@IAEJIJ@Z PROC NEAR		; ETSSplitter::OnMouseLeave
; _this$ = ecx

; 565  : {

  01100	55		 push	 ebp
  01101	8b ec		 mov	 ebp, esp
  01103	51		 push	 ecx
  01104	89 4d fc	 mov	 DWORD PTR _this$[ebp], ecx

; 566  : 	bTrackLeave = FALSE;

  01107	8b 45 fc	 mov	 eax, DWORD PTR _this$[ebp]
  0110a	c7 80 b8 00 00
	00 00 00 00 00	 mov	 DWORD PTR [eax+184], 0

; 567  : 	this->ChangeBarBtn(false);

  01114	6a 00		 push	 0
  01116	8b 4d fc	 mov	 ecx, DWORD PTR _this$[ebp]
  01119	e8 00 00 00 00	 call	 ?ChangeBarBtn@ETSSplitter@@AAEXH@Z ; ETSSplitter::ChangeBarBtn

; 568  :     return 0;

  0111e	33 c0		 xor	 eax, eax

; 569  : }

  01120	8b e5		 mov	 esp, ebp
  01122	5d		 pop	 ebp
  01123	c2 08 00	 ret	 8
?OnMouseLeave@ETSSplitter@@IAEJIJ@Z ENDP		; ETSSplitter::OnMouseLeave
_TEXT	ENDS
PUBLIC	?SetRedraw@CWnd@@QAEXH@Z			; CWnd::SetRedraw
PUBLIC	?CloseSplitter@ETSOuterSplitter@@UAEXXZ		; ETSOuterSplitter::CloseSplitter
EXTRN	?GetOuterPaneMinPosition@PaneSplitter@ETSLayoutMgr@@QAEHXZ:NEAR ; ETSLayoutMgr::PaneSplitter::GetOuterPaneMinPosition
EXTRN	?AfxGetUIManager@@YAPAVIUIManager@@XZ:NEAR	; AfxGetUIManager
EXTRN	?AfxGetMainWindow@@YAPAVCWnd@@XZ:NEAR		; AfxGetMainWindow
EXTRN	?SetWindowPos@CWnd@@QAEHPBV1@HHHHI@Z:NEAR	; CWnd::SetWindowPos
; Function compile flags: /Odt
_TEXT	SEGMENT
tv167 = -64						; size = 4
tv162 = -60						; size = 4
_this$ = -56						; size = 4
_r$201088 = -52						; size = 16
_offset$201081 = -36					; size = 4
_step$201082 = -32					; size = 4
_r$201079 = -28						; size = 16
_offset$201074 = -12					; size = 4
_step$201073 = -8					; size = 4
_pWnd$ = -4						; size = 4
?CloseSplitter@ETSOuterSplitter@@UAEXXZ PROC NEAR	; ETSOuterSplitter::CloseSplitter
; _this$ = ecx

; 573  : {

  01130	55		 push	 ebp
  01131	8b ec		 mov	 ebp, esp
  01133	83 ec 40	 sub	 esp, 64			; 00000040H
  01136	89 4d c8	 mov	 DWORD PTR _this$[ebp], ecx

; 574  : 	CWnd *pWnd = (CWnd*)this->GetParent();

  01139	8b 4d c8	 mov	 ecx, DWORD PTR _this$[ebp]
  0113c	e8 00 00 00 00	 call	 ?GetParent@CWnd@@QBEPAV1@XZ ; CWnd::GetParent
  01141	89 45 fc	 mov	 DWORD PTR _pWnd$[ebp], eax

; 575  : 	pWnd->SetRedraw(false);

  01144	6a 00		 push	 0
  01146	8b 4d fc	 mov	 ecx, DWORD PTR _pWnd$[ebp]
  01149	e8 00 00 00 00	 call	 ?SetRedraw@CWnd@@QAEXH@Z ; CWnd::SetRedraw

; 576  : 
; 577  : 	//int min = m_pane->GetOuterPaneMinPosition();
; 578  : 	//m_nMinConstrainHorz = (min == 0) ? m_nMinConstrainHorz : min;
; 579  : 
; 580  : 
; 581  : 	if(!m_pane->IsClosed())

  0114e	8b 45 c8	 mov	 eax, DWORD PTR _this$[ebp]
  01151	8b 88 b0 00 00
	00		 mov	 ecx, DWORD PTR [eax+176]
  01157	e8 00 00 00 00	 call	 ?IsClosed@PaneSplitter@ETSLayoutMgr@@QAEHXZ ; ETSLayoutMgr::PaneSplitter::IsClosed
  0115c	85 c0		 test	 eax, eax
  0115e	0f 85 3c 01 00
	00		 jne	 $L201072

; 582  : 	{
; 583  : 		m_pane->setOpenConstrain();

  01164	8b 4d c8	 mov	 ecx, DWORD PTR _this$[ebp]
  01167	8b 89 b0 00 00
	00		 mov	 ecx, DWORD PTR [ecx+176]
  0116d	e8 00 00 00 00	 call	 ?setOpenConstrain@PaneSplitter@ETSLayoutMgr@@QAEXXZ ; ETSLayoutMgr::PaneSplitter::setOpenConstrain

; 584  : 		int step = m_pane->m_nSplOpendPos / CLOSE_STEP;

  01172	8b 55 c8	 mov	 edx, DWORD PTR _this$[ebp]
  01175	8b 82 b0 00 00
	00		 mov	 eax, DWORD PTR [edx+176]
  0117b	8b 88 8c 00 00
	00		 mov	 ecx, DWORD PTR [eax+140]
  01181	89 4d f8	 mov	 DWORD PTR _step$201073[ebp], ecx

; 585  : 		//TRACE("dd%d\n", step);
; 586  : 		int offset = 0;

  01184	c7 45 f4 00 00
	00 00		 mov	 DWORD PTR _offset$201074[ebp], 0

; 587  : 		if(m_pane->m_nClosedOri == 0)

  0118b	8b 55 c8	 mov	 edx, DWORD PTR _this$[ebp]
  0118e	8b 82 b0 00 00
	00		 mov	 eax, DWORD PTR [edx+176]
  01194	83 b8 84 00 00
	00 00		 cmp	 DWORD PTR [eax+132], 0
  0119b	75 19		 jne	 SHORT $L201075

; 588  : 			offset = m_pane->getCloseConstrain(-step);

  0119d	8b 4d f8	 mov	 ecx, DWORD PTR _step$201073[ebp]
  011a0	f7 d9		 neg	 ecx
  011a2	51		 push	 ecx
  011a3	8b 55 c8	 mov	 edx, DWORD PTR _this$[ebp]
  011a6	8b 8a b0 00 00
	00		 mov	 ecx, DWORD PTR [edx+176]
  011ac	e8 00 00 00 00	 call	 ?getCloseConstrain@PaneSplitter@ETSLayoutMgr@@QAEHH@Z ; ETSLayoutMgr::PaneSplitter::getCloseConstrain
  011b1	89 45 f4	 mov	 DWORD PTR _offset$201074[ebp], eax

; 589  : 		else

  011b4	eb 15		 jmp	 SHORT $L201076
$L201075:

; 590  : 			offset = m_pane->getCloseConstrain(step);

  011b6	8b 45 f8	 mov	 eax, DWORD PTR _step$201073[ebp]
  011b9	50		 push	 eax
  011ba	8b 4d c8	 mov	 ecx, DWORD PTR _this$[ebp]
  011bd	8b 89 b0 00 00
	00		 mov	 ecx, DWORD PTR [ecx+176]
  011c3	e8 00 00 00 00	 call	 ?getCloseConstrain@PaneSplitter@ETSLayoutMgr@@QAEHH@Z ; ETSLayoutMgr::PaneSplitter::getCloseConstrain
  011c8	89 45 f4	 mov	 DWORD PTR _offset$201074[ebp], eax
$L201076:

; 591  : 		if(abs(offset) <= step)

  011cb	8b 55 f4	 mov	 edx, DWORD PTR _offset$201074[ebp]
  011ce	52		 push	 edx
  011cf	e8 00 00 00 00	 call	 _abs
  011d4	83 c4 04	 add	 esp, 4
  011d7	3b 45 f8	 cmp	 eax, DWORD PTR _step$201073[ebp]
  011da	7f 28		 jg	 SHORT $L201077

; 592  : 		{
; 593  : 			m_pane->SetClosed(true);

  011dc	6a 01		 push	 1
  011de	8b 45 c8	 mov	 eax, DWORD PTR _this$[ebp]
  011e1	8b 88 b0 00 00
	00		 mov	 ecx, DWORD PTR [eax+176]
  011e7	e8 00 00 00 00	 call	 ?SetClosed@PaneBase@ETSLayoutMgr@@QAEXH@Z ; ETSLayoutMgr::PaneBase::SetClosed

; 594  : 			m_pane->resizeTo(offset, true);

  011ec	6a 00		 push	 0
  011ee	6a 01		 push	 1
  011f0	8b 4d f4	 mov	 ecx, DWORD PTR _offset$201074[ebp]
  011f3	51		 push	 ecx
  011f4	8b 55 c8	 mov	 edx, DWORD PTR _this$[ebp]
  011f7	8b 8a b0 00 00
	00		 mov	 ecx, DWORD PTR [edx+176]
  011fd	e8 00 00 00 00	 call	 ?resizeTo@PaneSplitter@ETSLayoutMgr@@QAE_NH_N0@Z ; ETSLayoutMgr::PaneSplitter::resizeTo

; 595  : 		}
; 596  : 		else

  01202	eb 16		 jmp	 SHORT $L201078
$L201077:

; 597  : 			m_pane->resizeTo(offset);

  01204	6a 00		 push	 0
  01206	6a 00		 push	 0
  01208	8b 45 f4	 mov	 eax, DWORD PTR _offset$201074[ebp]
  0120b	50		 push	 eax
  0120c	8b 4d c8	 mov	 ecx, DWORD PTR _this$[ebp]
  0120f	8b 89 b0 00 00
	00		 mov	 ecx, DWORD PTR [ecx+176]
  01215	e8 00 00 00 00	 call	 ?resizeTo@PaneSplitter@ETSLayoutMgr@@QAE_NH_N0@Z ; ETSLayoutMgr::PaneSplitter::resizeTo
$L201078:

; 598  : 	////	LoadSkin(m_pSkin);
; 599  : 		pWnd->SetRedraw(true);

  0121a	6a 01		 push	 1
  0121c	8b 4d fc	 mov	 ecx, DWORD PTR _pWnd$[ebp]
  0121f	e8 00 00 00 00	 call	 ?SetRedraw@CWnd@@QAEXH@Z ; CWnd::SetRedraw

; 600  : 		CRect r;

  01224	8d 4d e4	 lea	 ecx, DWORD PTR _r$201079[ebp]
  01227	e8 00 00 00 00	 call	 ??0CRect@@QAE@XZ	; CRect::CRect

; 601  : 		pWnd->GetWindowRect(&r);

  0122c	8d 55 e4	 lea	 edx, DWORD PTR _r$201079[ebp]
  0122f	52		 push	 edx
  01230	8b 4d fc	 mov	 ecx, DWORD PTR _pWnd$[ebp]
  01233	e8 00 00 00 00	 call	 ?GetWindowRect@CWnd@@QBEXPAUtagRECT@@@Z ; CWnd::GetWindowRect

; 602  : 		r.right -= offset;

  01238	8b 45 ec	 mov	 eax, DWORD PTR _r$201079[ebp+8]
  0123b	2b 45 f4	 sub	 eax, DWORD PTR _offset$201074[ebp]
  0123e	89 45 ec	 mov	 DWORD PTR _r$201079[ebp+8], eax

; 603  : 		pWnd->SetWindowPos(NULL, r.left, r.top , r.Width(), r.Height(), NULL);

  01241	6a 00		 push	 0
  01243	8d 4d e4	 lea	 ecx, DWORD PTR _r$201079[ebp]
  01246	e8 00 00 00 00	 call	 ?Height@CRect@@QBEHXZ	; CRect::Height
  0124b	50		 push	 eax
  0124c	8d 4d e4	 lea	 ecx, DWORD PTR _r$201079[ebp]
  0124f	e8 00 00 00 00	 call	 ?Width@CRect@@QBEHXZ	; CRect::Width
  01254	50		 push	 eax
  01255	8b 4d e8	 mov	 ecx, DWORD PTR _r$201079[ebp+4]
  01258	51		 push	 ecx
  01259	8b 55 e4	 mov	 edx, DWORD PTR _r$201079[ebp]
  0125c	52		 push	 edx
  0125d	6a 00		 push	 0
  0125f	8b 4d fc	 mov	 ecx, DWORD PTR _pWnd$[ebp]
  01262	e8 00 00 00 00	 call	 ?SetWindowPos@CWnd@@QAEHPBV1@HHHHI@Z ; CWnd::SetWindowPos

; 604  : 		::AfxGetUIManager()->UIGetLayoutMgr()->UpdateLayout(::AfxGetMainWindow()->m_hWnd);

  01267	e8 00 00 00 00	 call	 ?AfxGetUIManager@@YAPAVIUIManager@@XZ ; AfxGetUIManager
  0126c	89 45 c4	 mov	 DWORD PTR tv162[ebp], eax
  0126f	8b 45 c4	 mov	 eax, DWORD PTR tv162[ebp]
  01272	8b 10		 mov	 edx, DWORD PTR [eax]
  01274	8b 4d c4	 mov	 ecx, DWORD PTR tv162[ebp]
  01277	ff 52 24	 call	 DWORD PTR [edx+36]
  0127a	89 45 c0	 mov	 DWORD PTR tv167[ebp], eax
  0127d	e8 00 00 00 00	 call	 ?AfxGetMainWindow@@YAPAVCWnd@@XZ ; AfxGetMainWindow
  01282	8b 40 20	 mov	 eax, DWORD PTR [eax+32]
  01285	50		 push	 eax
  01286	8b 4d c0	 mov	 ecx, DWORD PTR tv167[ebp]
  01289	8b 11		 mov	 edx, DWORD PTR [ecx]
  0128b	8b 4d c0	 mov	 ecx, DWORD PTR tv167[ebp]
  0128e	ff 52 14	 call	 DWORD PTR [edx+20]

; 605  : 		//m_rootPanel->UpdateLayout(this->GetParent()->m_hWnd);
; 606  : 		m_nMouseOffset = 0;

  01291	8b 45 c8	 mov	 eax, DWORD PTR _this$[ebp]
  01294	c7 40 5c 00 00
	00 00		 mov	 DWORD PTR [eax+92], 0

; 607  : 
; 608  : 	}
; 609  : 	else

  0129b	e9 16 01 00 00	 jmp	 $L201069
$L201072:

; 610  : 	{
; 611  : 		int offset = 0;

  012a0	c7 45 dc 00 00
	00 00		 mov	 DWORD PTR _offset$201081[ebp], 0

; 612  : 		int step = m_pane->m_nSplOpendPos / CLOSE_STEP;

  012a7	8b 4d c8	 mov	 ecx, DWORD PTR _this$[ebp]
  012aa	8b 91 b0 00 00
	00		 mov	 edx, DWORD PTR [ecx+176]
  012b0	8b 82 8c 00 00
	00		 mov	 eax, DWORD PTR [edx+140]
  012b6	89 45 e0	 mov	 DWORD PTR _step$201082[ebp], eax

; 613  : 		if(step == 0)

  012b9	83 7d e0 00	 cmp	 DWORD PTR _step$201082[ebp], 0
  012bd	75 11		 jne	 SHORT $L201083

; 614  : 			step = m_pane->GetOuterPaneMinPosition();

  012bf	8b 4d c8	 mov	 ecx, DWORD PTR _this$[ebp]
  012c2	8b 89 b0 00 00
	00		 mov	 ecx, DWORD PTR [ecx+176]
  012c8	e8 00 00 00 00	 call	 ?GetOuterPaneMinPosition@PaneSplitter@ETSLayoutMgr@@QAEHXZ ; ETSLayoutMgr::PaneSplitter::GetOuterPaneMinPosition
  012cd	89 45 e0	 mov	 DWORD PTR _step$201082[ebp], eax
$L201083:

; 615  : 
; 616  : 		if(m_pane->m_nClosedOri == 0)

  012d0	8b 55 c8	 mov	 edx, DWORD PTR _this$[ebp]
  012d3	8b 82 b0 00 00
	00		 mov	 eax, DWORD PTR [edx+176]
  012d9	83 b8 84 00 00
	00 00		 cmp	 DWORD PTR [eax+132], 0
  012e0	75 17		 jne	 SHORT $L201084

; 617  : 			offset = m_pane->getOpenConstrain(step);

  012e2	8b 4d e0	 mov	 ecx, DWORD PTR _step$201082[ebp]
  012e5	51		 push	 ecx
  012e6	8b 55 c8	 mov	 edx, DWORD PTR _this$[ebp]
  012e9	8b 8a b0 00 00
	00		 mov	 ecx, DWORD PTR [edx+176]
  012ef	e8 00 00 00 00	 call	 ?getOpenConstrain@PaneSplitter@ETSLayoutMgr@@QAEHH@Z ; ETSLayoutMgr::PaneSplitter::getOpenConstrain
  012f4	89 45 dc	 mov	 DWORD PTR _offset$201081[ebp], eax

; 618  : 		else

  012f7	eb 17		 jmp	 SHORT $L201085
$L201084:

; 619  : 			offset = m_pane->getOpenConstrain(-step);

  012f9	8b 45 e0	 mov	 eax, DWORD PTR _step$201082[ebp]
  012fc	f7 d8		 neg	 eax
  012fe	50		 push	 eax
  012ff	8b 4d c8	 mov	 ecx, DWORD PTR _this$[ebp]
  01302	8b 89 b0 00 00
	00		 mov	 ecx, DWORD PTR [ecx+176]
  01308	e8 00 00 00 00	 call	 ?getOpenConstrain@PaneSplitter@ETSLayoutMgr@@QAEHH@Z ; ETSLayoutMgr::PaneSplitter::getOpenConstrain
  0130d	89 45 dc	 mov	 DWORD PTR _offset$201081[ebp], eax
$L201085:

; 620  : 		if(abs(offset) <= step)

  01310	8b 55 dc	 mov	 edx, DWORD PTR _offset$201081[ebp]
  01313	52		 push	 edx
  01314	e8 00 00 00 00	 call	 _abs
  01319	83 c4 04	 add	 esp, 4
  0131c	3b 45 e0	 cmp	 eax, DWORD PTR _step$201082[ebp]
  0131f	7f 28		 jg	 SHORT $L201086

; 621  : 		{
; 622  : 			m_pane->SetClosed(false);

  01321	6a 00		 push	 0
  01323	8b 45 c8	 mov	 eax, DWORD PTR _this$[ebp]
  01326	8b 88 b0 00 00
	00		 mov	 ecx, DWORD PTR [eax+176]
  0132c	e8 00 00 00 00	 call	 ?SetClosed@PaneBase@ETSLayoutMgr@@QAEXH@Z ; ETSLayoutMgr::PaneBase::SetClosed

; 623  : 			m_pane->resizeTo(offset, true);

  01331	6a 00		 push	 0
  01333	6a 01		 push	 1
  01335	8b 4d dc	 mov	 ecx, DWORD PTR _offset$201081[ebp]
  01338	51		 push	 ecx
  01339	8b 55 c8	 mov	 edx, DWORD PTR _this$[ebp]
  0133c	8b 8a b0 00 00
	00		 mov	 ecx, DWORD PTR [edx+176]
  01342	e8 00 00 00 00	 call	 ?resizeTo@PaneSplitter@ETSLayoutMgr@@QAE_NH_N0@Z ; ETSLayoutMgr::PaneSplitter::resizeTo

; 624  : 		}
; 625  : 		else

  01347	eb 16		 jmp	 SHORT $L201087
$L201086:

; 626  : 			m_pane->resizeTo(offset);

  01349	6a 00		 push	 0
  0134b	6a 00		 push	 0
  0134d	8b 45 dc	 mov	 eax, DWORD PTR _offset$201081[ebp]
  01350	50		 push	 eax
  01351	8b 4d c8	 mov	 ecx, DWORD PTR _this$[ebp]
  01354	8b 89 b0 00 00
	00		 mov	 ecx, DWORD PTR [ecx+176]
  0135a	e8 00 00 00 00	 call	 ?resizeTo@PaneSplitter@ETSLayoutMgr@@QAE_NH_N0@Z ; ETSLayoutMgr::PaneSplitter::resizeTo
$L201087:

; 627  : 
; 628  : ////		LoadSkin(this->m_pSkin);
; 629  : 		pWnd->SetRedraw(true);

  0135f	6a 01		 push	 1
  01361	8b 4d fc	 mov	 ecx, DWORD PTR _pWnd$[ebp]
  01364	e8 00 00 00 00	 call	 ?SetRedraw@CWnd@@QAEXH@Z ; CWnd::SetRedraw

; 630  : 		m_nMouseOffset = 0;

  01369	8b 55 c8	 mov	 edx, DWORD PTR _this$[ebp]
  0136c	c7 42 5c 00 00
	00 00		 mov	 DWORD PTR [edx+92], 0

; 631  : 		CRect r;

  01373	8d 4d cc	 lea	 ecx, DWORD PTR _r$201088[ebp]
  01376	e8 00 00 00 00	 call	 ??0CRect@@QAE@XZ	; CRect::CRect

; 632  : 		pWnd->GetWindowRect(&r);

  0137b	8d 45 cc	 lea	 eax, DWORD PTR _r$201088[ebp]
  0137e	50		 push	 eax
  0137f	8b 4d fc	 mov	 ecx, DWORD PTR _pWnd$[ebp]
  01382	e8 00 00 00 00	 call	 ?GetWindowRect@CWnd@@QBEXPAUtagRECT@@@Z ; CWnd::GetWindowRect

; 633  : 		r.right -= offset;

  01387	8b 4d d4	 mov	 ecx, DWORD PTR _r$201088[ebp+8]
  0138a	2b 4d dc	 sub	 ecx, DWORD PTR _offset$201081[ebp]
  0138d	89 4d d4	 mov	 DWORD PTR _r$201088[ebp+8], ecx

; 634  : 		pWnd->SetWindowPos(NULL, r.left, r.top , r.Width(), r.Height(), NULL);

  01390	6a 00		 push	 0
  01392	8d 4d cc	 lea	 ecx, DWORD PTR _r$201088[ebp]
  01395	e8 00 00 00 00	 call	 ?Height@CRect@@QBEHXZ	; CRect::Height
  0139a	50		 push	 eax
  0139b	8d 4d cc	 lea	 ecx, DWORD PTR _r$201088[ebp]
  0139e	e8 00 00 00 00	 call	 ?Width@CRect@@QBEHXZ	; CRect::Width
  013a3	50		 push	 eax
  013a4	8b 55 d0	 mov	 edx, DWORD PTR _r$201088[ebp+4]
  013a7	52		 push	 edx
  013a8	8b 45 cc	 mov	 eax, DWORD PTR _r$201088[ebp]
  013ab	50		 push	 eax
  013ac	6a 00		 push	 0
  013ae	8b 4d fc	 mov	 ecx, DWORD PTR _pWnd$[ebp]
  013b1	e8 00 00 00 00	 call	 ?SetWindowPos@CWnd@@QAEHPBV1@HHHHI@Z ; CWnd::SetWindowPos
$L201069:

; 635  : 
; 636  : 	}
; 637  : }

  013b6	8b e5		 mov	 esp, ebp
  013b8	5d		 pop	 ebp
  013b9	c3		 ret	 0
?CloseSplitter@ETSOuterSplitter@@UAEXXZ ENDP		; ETSOuterSplitter::CloseSplitter
_TEXT	ENDS
PUBLIC	?ConstrainOffset@ETSOuterSplitter@@MAEXXZ	; ETSOuterSplitter::ConstrainOffset
; Function compile flags: /Odt
_TEXT	SEGMENT
_this$ = -24						; size = 4
_r$ = -20						; size = 16
_pWnd$ = -4						; size = 4
?ConstrainOffset@ETSOuterSplitter@@MAEXXZ PROC NEAR	; ETSOuterSplitter::ConstrainOffset
; _this$ = ecx

; 640  : {

  013c0	55		 push	 ebp
  013c1	8b ec		 mov	 ebp, esp
  013c3	83 ec 18	 sub	 esp, 24			; 00000018H
  013c6	56		 push	 esi
  013c7	89 4d e8	 mov	 DWORD PTR _this$[ebp], ecx

; 641  : 	//
; 642  : 	m_nMouseOffset = m_pane->getOffsetConstrain(this->m_nMouseOffset);

  013ca	8b 45 e8	 mov	 eax, DWORD PTR _this$[ebp]
  013cd	8b 48 5c	 mov	 ecx, DWORD PTR [eax+92]
  013d0	51		 push	 ecx
  013d1	8b 55 e8	 mov	 edx, DWORD PTR _this$[ebp]
  013d4	8b 8a b0 00 00
	00		 mov	 ecx, DWORD PTR [edx+176]
  013da	e8 00 00 00 00	 call	 ?getOffsetConstrain@PaneSplitter@ETSLayoutMgr@@QAEHH@Z ; ETSLayoutMgr::PaneSplitter::getOffsetConstrain
  013df	8b 4d e8	 mov	 ecx, DWORD PTR _this$[ebp]
  013e2	89 41 5c	 mov	 DWORD PTR [ecx+92], eax

; 643  : 	
; 644  : 	//
; 645  : 	CRect r;

  013e5	8d 4d ec	 lea	 ecx, DWORD PTR _r$[ebp]
  013e8	e8 00 00 00 00	 call	 ??0CRect@@QAE@XZ	; CRect::CRect

; 646  : 	CWnd *pWnd = (CWnd*)this->GetParent();

  013ed	8b 4d e8	 mov	 ecx, DWORD PTR _this$[ebp]
  013f0	e8 00 00 00 00	 call	 ?GetParent@CWnd@@QBEPAV1@XZ ; CWnd::GetParent
  013f5	89 45 fc	 mov	 DWORD PTR _pWnd$[ebp], eax

; 647  : 	pWnd->GetWindowRect(&r);

  013f8	8d 55 ec	 lea	 edx, DWORD PTR _r$[ebp]
  013fb	52		 push	 edx
  013fc	8b 4d fc	 mov	 ecx, DWORD PTR _pWnd$[ebp]
  013ff	e8 00 00 00 00	 call	 ?GetWindowRect@CWnd@@QBEXPAUtagRECT@@@Z ; CWnd::GetWindowRect

; 648  : 
; 649  : 	m_pane->setOpenConstrain();

  01404	8b 45 e8	 mov	 eax, DWORD PTR _this$[ebp]
  01407	8b 88 b0 00 00
	00		 mov	 ecx, DWORD PTR [eax+176]
  0140d	e8 00 00 00 00	 call	 ?setOpenConstrain@PaneSplitter@ETSLayoutMgr@@QAEXXZ ; ETSLayoutMgr::PaneSplitter::setOpenConstrain

; 650  : 
; 651  : 	if(r.Width() - m_pane->m_nSplOpendPos + m_nMouseOffset < MIN_MAINWND_X)

  01412	8d 4d ec	 lea	 ecx, DWORD PTR _r$[ebp]
  01415	e8 00 00 00 00	 call	 ?Width@CRect@@QBEHXZ	; CRect::Width
  0141a	8b 4d e8	 mov	 ecx, DWORD PTR _this$[ebp]
  0141d	8b 91 b0 00 00
	00		 mov	 edx, DWORD PTR [ecx+176]
  01423	2b 82 8c 00 00
	00		 sub	 eax, DWORD PTR [edx+140]
  01429	8b 4d e8	 mov	 ecx, DWORD PTR _this$[ebp]
  0142c	03 41 5c	 add	 eax, DWORD PTR [ecx+92]
  0142f	3d 60 02 00 00	 cmp	 eax, 608		; 00000260H
  01434	7d 25		 jge	 SHORT $L201091

; 652  : 		m_nMouseOffset = MIN_MAINWND_X + m_pane->m_nSplOpendPos - r.Width();

  01436	8b 55 e8	 mov	 edx, DWORD PTR _this$[ebp]
  01439	8b 82 b0 00 00
	00		 mov	 eax, DWORD PTR [edx+176]
  0143f	8b b0 8c 00 00
	00		 mov	 esi, DWORD PTR [eax+140]
  01445	81 c6 60 02 00
	00		 add	 esi, 608		; 00000260H
  0144b	8d 4d ec	 lea	 ecx, DWORD PTR _r$[ebp]
  0144e	e8 00 00 00 00	 call	 ?Width@CRect@@QBEHXZ	; CRect::Width
  01453	2b f0		 sub	 esi, eax
  01455	8b 4d e8	 mov	 ecx, DWORD PTR _this$[ebp]
  01458	89 71 5c	 mov	 DWORD PTR [ecx+92], esi
$L201091:

; 653  : }

  0145b	5e		 pop	 esi
  0145c	8b e5		 mov	 esp, ebp
  0145e	5d		 pop	 ebp
  0145f	c3		 ret	 0
?ConstrainOffset@ETSOuterSplitter@@MAEXXZ ENDP		; ETSOuterSplitter::ConstrainOffset
_TEXT	ENDS
PUBLIC	?SetMainWndConstrain@ETSOuterSplitter@@QAEXAAH0PAUtagRECT@@_N@Z ; ETSOuterSplitter::SetMainWndConstrain
EXTRN	?ForceResizeOuterPane@PaneSplitter@ETSLayoutMgr@@QAE_NH_N@Z:NEAR ; ETSLayoutMgr::PaneSplitter::ForceResizeOuterPane
; Function compile flags: /Odt
_TEXT	SEGMENT
_this$ = -28						; size = 4
_r$201104 = -24						; size = 16
_delta$201107 = -8					; size = 4
_pWnd$201105 = -4					; size = 4
_minX$ = 8						; size = 4
_minY$ = 12						; size = 4
_lpRect$ = 16						; size = 4
_redraw$ = 20						; size = 1
?SetMainWndConstrain@ETSOuterSplitter@@QAEXAAH0PAUtagRECT@@_N@Z PROC NEAR ; ETSOuterSplitter::SetMainWndConstrain
; _this$ = ecx

; 657  : {

  01460	55		 push	 ebp
  01461	8b ec		 mov	 ebp, esp
  01463	83 ec 1c	 sub	 esp, 28			; 0000001cH
  01466	89 4d e4	 mov	 DWORD PTR _this$[ebp], ecx

; 658  : 	if(m_pane != NULL && !m_pane->IsClosed())

  01469	8b 45 e4	 mov	 eax, DWORD PTR _this$[ebp]
  0146c	83 b8 b0 00 00
	00 00		 cmp	 DWORD PTR [eax+176], 0
  01473	0f 84 ef 00 00
	00		 je	 $L201103
  01479	8b 4d e4	 mov	 ecx, DWORD PTR _this$[ebp]
  0147c	8b 89 b0 00 00
	00		 mov	 ecx, DWORD PTR [ecx+176]
  01482	e8 00 00 00 00	 call	 ?IsClosed@PaneSplitter@ETSLayoutMgr@@QAEHXZ ; ETSLayoutMgr::PaneSplitter::IsClosed
  01487	85 c0		 test	 eax, eax
  01489	0f 85 d9 00 00
	00		 jne	 $L201103

; 659  : 	{
; 660  : 		m_pane->setOpenConstrain();

  0148f	8b 55 e4	 mov	 edx, DWORD PTR _this$[ebp]
  01492	8b 8a b0 00 00
	00		 mov	 ecx, DWORD PTR [edx+176]
  01498	e8 00 00 00 00	 call	 ?setOpenConstrain@PaneSplitter@ETSLayoutMgr@@QAEXXZ ; ETSLayoutMgr::PaneSplitter::setOpenConstrain

; 661  : 
; 662  : 		CRect r;

  0149d	8d 4d e8	 lea	 ecx, DWORD PTR _r$201104[ebp]
  014a0	e8 00 00 00 00	 call	 ??0CRect@@QAE@XZ	; CRect::CRect

; 663  : 		CWnd *pWnd = (CWnd*)this->GetParent();

  014a5	8b 4d e4	 mov	 ecx, DWORD PTR _this$[ebp]
  014a8	e8 00 00 00 00	 call	 ?GetParent@CWnd@@QBEPAV1@XZ ; CWnd::GetParent
  014ad	89 45 fc	 mov	 DWORD PTR _pWnd$201105[ebp], eax

; 664  : 		pWnd->GetWindowRect(&r);

  014b0	8d 45 e8	 lea	 eax, DWORD PTR _r$201104[ebp]
  014b3	50		 push	 eax
  014b4	8b 4d fc	 mov	 ecx, DWORD PTR _pWnd$201105[ebp]
  014b7	e8 00 00 00 00	 call	 ?GetWindowRect@CWnd@@QBEXPAUtagRECT@@@Z ; CWnd::GetWindowRect

; 665  : 
; 666  : 		int delta = MIN_MAINWND_X - (lpRect->right - lpRect->left - m_pane->m_nSplOpendPos);

  014bc	8b 4d 10	 mov	 ecx, DWORD PTR _lpRect$[ebp]
  014bf	8b 55 10	 mov	 edx, DWORD PTR _lpRect$[ebp]
  014c2	8b 41 08	 mov	 eax, DWORD PTR [ecx+8]
  014c5	2b 02		 sub	 eax, DWORD PTR [edx]
  014c7	8b 4d e4	 mov	 ecx, DWORD PTR _this$[ebp]
  014ca	8b 91 b0 00 00
	00		 mov	 edx, DWORD PTR [ecx+176]
  014d0	2b 82 8c 00 00
	00		 sub	 eax, DWORD PTR [edx+140]
  014d6	b9 60 02 00 00	 mov	 ecx, 608		; 00000260H
  014db	2b c8		 sub	 ecx, eax
  014dd	89 4d f8	 mov	 DWORD PTR _delta$201107[ebp], ecx

; 667  : 				
; 668  : 		minX = m_pane->m_nSplOpendPos + MIN_MAINWND_X;

  014e0	8b 55 e4	 mov	 edx, DWORD PTR _this$[ebp]
  014e3	8b 82 b0 00 00
	00		 mov	 eax, DWORD PTR [edx+176]
  014e9	8b 88 8c 00 00
	00		 mov	 ecx, DWORD PTR [eax+140]
  014ef	81 c1 60 02 00
	00		 add	 ecx, 608		; 00000260H
  014f5	8b 55 08	 mov	 edx, DWORD PTR _minX$[ebp]
  014f8	89 0a		 mov	 DWORD PTR [edx], ecx

; 669  : 		if(delta > 0)

  014fa	83 7d f8 00	 cmp	 DWORD PTR _delta$201107[ebp], 0
  014fe	7e 5d		 jle	 SHORT $L201108

; 670  : 		{
; 671  : 			if(redraw)

  01500	0f b6 45 14	 movzx	 eax, BYTE PTR _redraw$[ebp]
  01504	85 c0		 test	 eax, eax
  01506	74 3d		 je	 SHORT $L201109

; 672  : 			{
; 673  : 				m_pane->ForceResizeOuterPane(delta , false);

  01508	6a 00		 push	 0
  0150a	8b 4d f8	 mov	 ecx, DWORD PTR _delta$201107[ebp]
  0150d	51		 push	 ecx
  0150e	8b 55 e4	 mov	 edx, DWORD PTR _this$[ebp]
  01511	8b 8a b0 00 00
	00		 mov	 ecx, DWORD PTR [edx+176]
  01517	e8 00 00 00 00	 call	 ?ForceResizeOuterPane@PaneSplitter@ETSLayoutMgr@@QAE_NH_N@Z ; ETSLayoutMgr::PaneSplitter::ForceResizeOuterPane

; 674  : 				m_pane->setOpenConstrain();	

  0151c	8b 45 e4	 mov	 eax, DWORD PTR _this$[ebp]
  0151f	8b 88 b0 00 00
	00		 mov	 ecx, DWORD PTR [eax+176]
  01525	e8 00 00 00 00	 call	 ?setOpenConstrain@PaneSplitter@ETSLayoutMgr@@QAEXXZ ; ETSLayoutMgr::PaneSplitter::setOpenConstrain

; 675  : 				minX = m_pane->m_nSplOpendPos + MIN_MAINWND_X;

  0152a	8b 4d e4	 mov	 ecx, DWORD PTR _this$[ebp]
  0152d	8b 91 b0 00 00
	00		 mov	 edx, DWORD PTR [ecx+176]
  01533	8b 82 8c 00 00
	00		 mov	 eax, DWORD PTR [edx+140]
  01539	05 60 02 00 00	 add	 eax, 608		; 00000260H
  0153e	8b 4d 08	 mov	 ecx, DWORD PTR _minX$[ebp]
  01541	89 01		 mov	 DWORD PTR [ecx], eax

; 676  : 			}
; 677  : 			else

  01543	eb 18		 jmp	 SHORT $L201108
$L201109:

; 678  : 			{
; 679  : 				minX = m_pane->GetOuterPaneMinPosition() + MIN_MAINWND_X;

  01545	8b 55 e4	 mov	 edx, DWORD PTR _this$[ebp]
  01548	8b 8a b0 00 00
	00		 mov	 ecx, DWORD PTR [edx+176]
  0154e	e8 00 00 00 00	 call	 ?GetOuterPaneMinPosition@PaneSplitter@ETSLayoutMgr@@QAEHXZ ; ETSLayoutMgr::PaneSplitter::GetOuterPaneMinPosition
  01553	05 60 02 00 00	 add	 eax, 608		; 00000260H
  01558	8b 4d 08	 mov	 ecx, DWORD PTR _minX$[ebp]
  0155b	89 01		 mov	 DWORD PTR [ecx], eax
$L201108:

; 680  : 			}
; 681  : 		}
; 682  : 		minY = MIN_MAINWND_Y;

  0155d	8b 55 0c	 mov	 edx, DWORD PTR _minY$[ebp]
  01560	c7 02 a0 01 00
	00		 mov	 DWORD PTR [edx], 416	; 000001a0H

; 683  : 	}
; 684  : 	else

  01566	eb 12		 jmp	 SHORT $L201102
$L201103:

; 685  : 	{
; 686  : 		minX = MIN_MAINWND_X;

  01568	8b 45 08	 mov	 eax, DWORD PTR _minX$[ebp]
  0156b	c7 00 60 02 00
	00		 mov	 DWORD PTR [eax], 608	; 00000260H

; 687  : 		minY = MIN_MAINWND_Y;

  01571	8b 4d 0c	 mov	 ecx, DWORD PTR _minY$[ebp]
  01574	c7 01 a0 01 00
	00		 mov	 DWORD PTR [ecx], 416	; 000001a0H
$L201102:

; 688  : 	}
; 689  : }

  0157a	8b e5		 mov	 esp, ebp
  0157c	5d		 pop	 ebp
  0157d	c2 10 00	 ret	 16			; 00000010H
?SetMainWndConstrain@ETSOuterSplitter@@QAEXAAH0PAUtagRECT@@_N@Z ENDP ; ETSOuterSplitter::SetMainWndConstrain
_TEXT	ENDS
PUBLIC	?OnShowWindow@CWnd@@IAEXHI@Z			; CWnd::OnShowWindow
; Function compile flags: /Odt
_TEXT	SEGMENT
_this$ = -4						; size = 4
_bShow$ = 8						; size = 4
_nStatus$ = 12						; size = 4
?OnShowWindow@ETSSplitter@@IAEXHI@Z PROC NEAR		; ETSSplitter::OnShowWindow
; _this$ = ecx

; 725  : {

  01580	55		 push	 ebp
  01581	8b ec		 mov	 ebp, esp
  01583	51		 push	 ecx
  01584	89 4d fc	 mov	 DWORD PTR _this$[ebp], ecx

; 726  : 	CWnd::OnShowWindow(bShow, nStatus);

  01587	8b 45 0c	 mov	 eax, DWORD PTR _nStatus$[ebp]
  0158a	50		 push	 eax
  0158b	8b 4d 08	 mov	 ecx, DWORD PTR _bShow$[ebp]
  0158e	51		 push	 ecx
  0158f	8b 4d fc	 mov	 ecx, DWORD PTR _this$[ebp]
  01592	e8 00 00 00 00	 call	 ?OnShowWindow@CWnd@@IAEXHI@Z ; CWnd::OnShowWindow

; 727  : }

  01597	8b e5		 mov	 esp, ebp
  01599	5d		 pop	 ebp
  0159a	c2 08 00	 ret	 8
?OnShowWindow@ETSSplitter@@IAEXHI@Z ENDP		; ETSSplitter::OnShowWindow
; Function compile flags: /Odt
; File d:\program files (x86)\microsoft visual studio .net 2003\vc7\atlmfc\include\atltypes.inl
_TEXT	ENDS
;	COMDAT ??0CSize@@QAE@XZ
_TEXT	SEGMENT
_this$ = -4						; size = 4
??0CSize@@QAE@XZ PROC NEAR				; CSize::CSize, COMDAT
; _this$ = ecx

; 22   : 	{ /* random filled */ }

  00000	55		 push	 ebp
  00001	8b ec		 mov	 ebp, esp
  00003	51		 push	 ecx
  00004	89 4d fc	 mov	 DWORD PTR _this$[ebp], ecx
  00007	8b 45 fc	 mov	 eax, DWORD PTR _this$[ebp]
  0000a	8b e5		 mov	 esp, ebp
  0000c	5d		 pop	 ebp
  0000d	c3		 ret	 0
??0CSize@@QAE@XZ ENDP					; CSize::CSize
; Function compile flags: /Odt
_TEXT	ENDS
;	COMDAT ??0CRect@@QAE@XZ
_TEXT	SEGMENT
_this$ = -4						; size = 4
??0CRect@@QAE@XZ PROC NEAR				; CRect::CRect, COMDAT
; _this$ = ecx

; 110  : 	{ /* random filled */ }

  00000	55		 push	 ebp
  00001	8b ec		 mov	 ebp, esp
  00003	51		 push	 ecx
  00004	89 4d fc	 mov	 DWORD PTR _this$[ebp], ecx
  00007	8b 45 fc	 mov	 eax, DWORD PTR _this$[ebp]
  0000a	8b e5		 mov	 esp, ebp
  0000c	5d		 pop	 ebp
  0000d	c3		 ret	 0
??0CRect@@QAE@XZ ENDP					; CRect::CRect
; Function compile flags: /Odt
_TEXT	ENDS
;	COMDAT ??0CRect@@QAE@HHHH@Z
_TEXT	SEGMENT
_this$ = -4						; size = 4
_l$ = 8							; size = 4
_t$ = 12						; size = 4
_r$ = 16						; size = 4
_b$ = 20						; size = 4
??0CRect@@QAE@HHHH@Z PROC NEAR				; CRect::CRect, COMDAT
; _this$ = ecx

; 112  : 	{ left = l; top = t; right = r; bottom = b; }

  00000	55		 push	 ebp
  00001	8b ec		 mov	 ebp, esp
  00003	51		 push	 ecx
  00004	89 4d fc	 mov	 DWORD PTR _this$[ebp], ecx
  00007	8b 45 fc	 mov	 eax, DWORD PTR _this$[ebp]
  0000a	8b 4d 08	 mov	 ecx, DWORD PTR _l$[ebp]
  0000d	89 08		 mov	 DWORD PTR [eax], ecx
  0000f	8b 55 fc	 mov	 edx, DWORD PTR _this$[ebp]
  00012	8b 45 0c	 mov	 eax, DWORD PTR _t$[ebp]
  00015	89 42 04	 mov	 DWORD PTR [edx+4], eax
  00018	8b 4d fc	 mov	 ecx, DWORD PTR _this$[ebp]
  0001b	8b 55 10	 mov	 edx, DWORD PTR _r$[ebp]
  0001e	89 51 08	 mov	 DWORD PTR [ecx+8], edx
  00021	8b 45 fc	 mov	 eax, DWORD PTR _this$[ebp]
  00024	8b 4d 14	 mov	 ecx, DWORD PTR _b$[ebp]
  00027	89 48 0c	 mov	 DWORD PTR [eax+12], ecx
  0002a	8b 45 fc	 mov	 eax, DWORD PTR _this$[ebp]
  0002d	8b e5		 mov	 esp, ebp
  0002f	5d		 pop	 ebp
  00030	c2 10 00	 ret	 16			; 00000010H
??0CRect@@QAE@HHHH@Z ENDP				; CRect::CRect
; Function compile flags: /Odt
_TEXT	ENDS
;	COMDAT ?Width@CRect@@QBEHXZ
_TEXT	SEGMENT
_this$ = -4						; size = 4
?Width@CRect@@QBEHXZ PROC NEAR				; CRect::Width, COMDAT
; _this$ = ecx

; 123  : 	{ return right - left; }

  00000	55		 push	 ebp
  00001	8b ec		 mov	 ebp, esp
  00003	51		 push	 ecx
  00004	89 4d fc	 mov	 DWORD PTR _this$[ebp], ecx
  00007	8b 45 fc	 mov	 eax, DWORD PTR _this$[ebp]
  0000a	8b 4d fc	 mov	 ecx, DWORD PTR _this$[ebp]
  0000d	8b 40 08	 mov	 eax, DWORD PTR [eax+8]
  00010	2b 01		 sub	 eax, DWORD PTR [ecx]
  00012	8b e5		 mov	 esp, ebp
  00014	5d		 pop	 ebp
  00015	c3		 ret	 0
?Width@CRect@@QBEHXZ ENDP				; CRect::Width
; Function compile flags: /Odt
_TEXT	ENDS
;	COMDAT ?Height@CRect@@QBEHXZ
_TEXT	SEGMENT
_this$ = -4						; size = 4
?Height@CRect@@QBEHXZ PROC NEAR				; CRect::Height, COMDAT
; _this$ = ecx

; 125  : 	{ return bottom - top; }

  00000	55		 push	 ebp
  00001	8b ec		 mov	 ebp, esp
  00003	51		 push	 ecx
  00004	89 4d fc	 mov	 DWORD PTR _this$[ebp], ecx
  00007	8b 45 fc	 mov	 eax, DWORD PTR _this$[ebp]
  0000a	8b 4d fc	 mov	 ecx, DWORD PTR _this$[ebp]
  0000d	8b 40 0c	 mov	 eax, DWORD PTR [eax+12]
  00010	2b 41 04	 sub	 eax, DWORD PTR [ecx+4]
  00013	8b e5		 mov	 esp, ebp
  00015	5d		 pop	 ebp
  00016	c3		 ret	 0
?Height@CRect@@QBEHXZ ENDP				; CRect::Height
; Function compile flags: /Odt
_TEXT	ENDS
;	COMDAT ?TopLeft@CRect@@QAEAAVCPoint@@XZ
_TEXT	SEGMENT
_this$ = -4						; size = 4
?TopLeft@CRect@@QAEAAVCPoint@@XZ PROC NEAR		; CRect::TopLeft, COMDAT
; _this$ = ecx

; 129  : 	{ return *((CPoint*)this); }

  00000	55		 push	 ebp
  00001	8b ec		 mov	 ebp, esp
  00003	51		 push	 ecx
  00004	89 4d fc	 mov	 DWORD PTR _this$[ebp], ecx
  00007	8b 45 fc	 mov	 eax, DWORD PTR _this$[ebp]
  0000a	8b e5		 mov	 esp, ebp
  0000c	5d		 pop	 ebp
  0000d	c3		 ret	 0
?TopLeft@CRect@@QAEAAVCPoint@@XZ ENDP			; CRect::TopLeft
_TEXT	ENDS
PUBLIC	??0CPoint@@QAE@HH@Z				; CPoint::CPoint
; Function compile flags: /Odt
;	COMDAT ?CenterPoint@CRect@@QBE?AVCPoint@@XZ
_TEXT	SEGMENT
_this$ = -4						; size = 4
___$ReturnUdt$ = 8					; size = 4
?CenterPoint@CRect@@QBE?AVCPoint@@XZ PROC NEAR		; CRect::CenterPoint, COMDAT
; _this$ = ecx

; 137  : 	{ return CPoint((left+right)/2, (top+bottom)/2); }

  00000	55		 push	 ebp
  00001	8b ec		 mov	 ebp, esp
  00003	51		 push	 ecx
  00004	89 4d fc	 mov	 DWORD PTR _this$[ebp], ecx
  00007	8b 45 fc	 mov	 eax, DWORD PTR _this$[ebp]
  0000a	8b 40 04	 mov	 eax, DWORD PTR [eax+4]
  0000d	8b 4d fc	 mov	 ecx, DWORD PTR _this$[ebp]
  00010	03 41 0c	 add	 eax, DWORD PTR [ecx+12]
  00013	99		 cdq
  00014	2b c2		 sub	 eax, edx
  00016	d1 f8		 sar	 eax, 1
  00018	50		 push	 eax
  00019	8b 55 fc	 mov	 edx, DWORD PTR _this$[ebp]
  0001c	8b 02		 mov	 eax, DWORD PTR [edx]
  0001e	8b 4d fc	 mov	 ecx, DWORD PTR _this$[ebp]
  00021	03 41 08	 add	 eax, DWORD PTR [ecx+8]
  00024	99		 cdq
  00025	2b c2		 sub	 eax, edx
  00027	d1 f8		 sar	 eax, 1
  00029	50		 push	 eax
  0002a	8b 4d 08	 mov	 ecx, DWORD PTR ___$ReturnUdt$[ebp]
  0002d	e8 00 00 00 00	 call	 ??0CPoint@@QAE@HH@Z	; CPoint::CPoint
  00032	8b 45 08	 mov	 eax, DWORD PTR ___$ReturnUdt$[ebp]
  00035	8b e5		 mov	 esp, ebp
  00037	5d		 pop	 ebp
  00038	c2 04 00	 ret	 4
?CenterPoint@CRect@@QBE?AVCPoint@@XZ ENDP		; CRect::CenterPoint
; Function compile flags: /Odt
_TEXT	ENDS
;	COMDAT ??0CPoint@@QAE@HH@Z
_TEXT	SEGMENT
_this$ = -4						; size = 4
_initX$ = 8						; size = 4
_initY$ = 12						; size = 4
??0CPoint@@QAE@HH@Z PROC NEAR				; CPoint::CPoint, COMDAT
; _this$ = ecx

; 63   : 	{ x = initX; y = initY; }

  00000	55		 push	 ebp
  00001	8b ec		 mov	 ebp, esp
  00003	51		 push	 ecx
  00004	89 4d fc	 mov	 DWORD PTR _this$[ebp], ecx
  00007	8b 45 fc	 mov	 eax, DWORD PTR _this$[ebp]
  0000a	8b 4d 08	 mov	 ecx, DWORD PTR _initX$[ebp]
  0000d	89 08		 mov	 DWORD PTR [eax], ecx
  0000f	8b 55 fc	 mov	 edx, DWORD PTR _this$[ebp]
  00012	8b 45 0c	 mov	 eax, DWORD PTR _initY$[ebp]
  00015	89 42 04	 mov	 DWORD PTR [edx+4], eax
  00018	8b 45 fc	 mov	 eax, DWORD PTR _this$[ebp]
  0001b	8b e5		 mov	 esp, ebp
  0001d	5d		 pop	 ebp
  0001e	c2 08 00	 ret	 8
??0CPoint@@QAE@HH@Z ENDP				; CPoint::CPoint
; Function compile flags: /Odt
_TEXT	ENDS
;	COMDAT ??BCRect@@QAEPAUtagRECT@@XZ
_TEXT	SEGMENT
_this$ = -4						; size = 4
??BCRect@@QAEPAUtagRECT@@XZ PROC NEAR			; CRect::operator tagRECT *, COMDAT
; _this$ = ecx

; 143  : 	{ return this; }

  00000	55		 push	 ebp
  00001	8b ec		 mov	 ebp, esp
  00003	51		 push	 ecx
  00004	89 4d fc	 mov	 DWORD PTR _this$[ebp], ecx
  00007	8b 45 fc	 mov	 eax, DWORD PTR _this$[ebp]
  0000a	8b e5		 mov	 esp, ebp
  0000c	5d		 pop	 ebp
  0000d	c3		 ret	 0
??BCRect@@QAEPAUtagRECT@@XZ ENDP			; CRect::operator tagRECT *
_TEXT	ENDS
EXTRN	__imp__OffsetRect@12:NEAR
; Function compile flags: /Odt
;	COMDAT ??ZCRect@@QAEXUtagPOINT@@@Z
_TEXT	SEGMENT
_this$ = -4						; size = 4
_point$ = 8						; size = 8
??ZCRect@@QAEXUtagPOINT@@@Z PROC NEAR			; CRect::operator-=, COMDAT
; _this$ = ecx

; 201  : 	{ ::OffsetRect(this, -point.x, -point.y); }

  00000	55		 push	 ebp
  00001	8b ec		 mov	 ebp, esp
  00003	51		 push	 ecx
  00004	89 4d fc	 mov	 DWORD PTR _this$[ebp], ecx
  00007	8b 45 0c	 mov	 eax, DWORD PTR _point$[ebp+4]
  0000a	f7 d8		 neg	 eax
  0000c	50		 push	 eax
  0000d	8b 4d 08	 mov	 ecx, DWORD PTR _point$[ebp]
  00010	f7 d9		 neg	 ecx
  00012	51		 push	 ecx
  00013	8b 55 fc	 mov	 edx, DWORD PTR _this$[ebp]
  00016	52		 push	 edx
  00017	ff 15 00 00 00
	00		 call	 DWORD PTR __imp__OffsetRect@12
  0001d	8b e5		 mov	 esp, ebp
  0001f	5d		 pop	 ebp
  00020	c2 08 00	 ret	 8
??ZCRect@@QAEXUtagPOINT@@@Z ENDP			; CRect::operator-=
; Function compile flags: /Odt
; File d:\program files (x86)\microsoft visual studio .net 2003\vc7\atlmfc\include\afx.inl
_TEXT	ENDS
;	COMDAT ?Serialize@CObject@@UAEXAAVCArchive@@@Z
_TEXT	SEGMENT
_this$ = -4						; size = 4
___formal$ = 8						; size = 4
?Serialize@CObject@@UAEXAAVCArchive@@@Z PROC NEAR	; CObject::Serialize, COMDAT
; _this$ = ecx

; 25   : 	{ /* CObject does not serialize anything by default */ }

  00000	55		 push	 ebp
  00001	8b ec		 mov	 ebp, esp
  00003	51		 push	 ecx
  00004	89 4d fc	 mov	 DWORD PTR _this$[ebp], ecx
  00007	8b e5		 mov	 esp, ebp
  00009	5d		 pop	 ebp
  0000a	c2 04 00	 ret	 4
?Serialize@CObject@@UAEXAAVCArchive@@@Z ENDP		; CObject::Serialize
_TEXT	ENDS
EXTRN	??3@YAXPAX@Z:NEAR				; operator delete
; Function compile flags: /Odt
;	COMDAT ??3CObject@@SGXPAX@Z
_TEXT	SEGMENT
_p$ = 8							; size = 4
??3CObject@@SGXPAX@Z PROC NEAR				; CObject::operator delete, COMDAT

; 31   : 	{ ::operator delete(p); }

  00000	55		 push	 ebp
  00001	8b ec		 mov	 ebp, esp
  00003	8b 45 08	 mov	 eax, DWORD PTR _p$[ebp]
  00006	50		 push	 eax
  00007	e8 00 00 00 00	 call	 ??3@YAXPAX@Z		; operator delete
  0000c	83 c4 04	 add	 esp, 4
  0000f	5d		 pop	 ebp
  00010	c2 04 00	 ret	 4
??3CObject@@SGXPAX@Z ENDP				; CObject::operator delete
; Function compile flags: /Odt
_TEXT	ENDS
;	COMDAT ?AssertValid@CObject@@UBEXXZ
_TEXT	SEGMENT
_this$ = -4						; size = 4
?AssertValid@CObject@@UBEXXZ PROC NEAR			; CObject::AssertValid, COMDAT
; _this$ = ecx

; 41   : 	{ /* no asserts in release builds */ }

  00000	55		 push	 ebp
  00001	8b ec		 mov	 ebp, esp
  00003	51		 push	 ecx
  00004	89 4d fc	 mov	 DWORD PTR _this$[ebp], ecx
  00007	8b e5		 mov	 esp, ebp
  00009	5d		 pop	 ebp
  0000a	c3		 ret	 0
?AssertValid@CObject@@UBEXXZ ENDP			; CObject::AssertValid
; Function compile flags: /Odt
_TEXT	ENDS
;	COMDAT ?Dump@CObject@@UBEXAAVCDumpContext@@@Z
_TEXT	SEGMENT
_this$ = -4						; size = 4
___formal$ = 8						; size = 4
?Dump@CObject@@UBEXAAVCDumpContext@@@Z PROC NEAR	; CObject::Dump, COMDAT
; _this$ = ecx

; 43   : 	{ /* no dumping in release builds */ }

  00000	55		 push	 ebp
  00001	8b ec		 mov	 ebp, esp
  00003	51		 push	 ecx
  00004	89 4d fc	 mov	 DWORD PTR _this$[ebp], ecx
  00007	8b e5		 mov	 esp, ebp
  00009	5d		 pop	 ebp
  0000a	c2 04 00	 ret	 4
?Dump@CObject@@UBEXAAVCDumpContext@@@Z ENDP		; CObject::Dump
_TEXT	ENDS
EXTRN	?AfxGetModuleState@@YGPAVAFX_MODULE_STATE@@XZ:NEAR ; AfxGetModuleState
; Function compile flags: /Odt
; File d:\program files (x86)\microsoft visual studio .net 2003\vc7\atlmfc\include\afxwin1.inl
;	COMDAT ?AfxGetApp@@YGPAVCWinApp@@XZ
_TEXT	SEGMENT
?AfxGetApp@@YGPAVCWinApp@@XZ PROC NEAR			; AfxGetApp, COMDAT

; 21   : 	{ return afxCurrentWinApp; }

  00000	55		 push	 ebp
  00001	8b ec		 mov	 ebp, esp
  00003	e8 00 00 00 00	 call	 ?AfxGetModuleState@@YGPAVAFX_MODULE_STATE@@XZ ; AfxGetModuleState
  00008	8b 40 04	 mov	 eax, DWORD PTR [eax+4]
  0000b	5d		 pop	 ebp
  0000c	c3		 ret	 0
?AfxGetApp@@YGPAVCWinApp@@XZ ENDP			; AfxGetApp
_TEXT	ENDS
PUBLIC	??_R0?AVCGdiObject@@@8				; CGdiObject `RTTI Type Descriptor'
PUBLIC	??_R1A@?0A@A@CGdiObject@@8			; CGdiObject::`RTTI Base Class Descriptor at (0,-1,0,0)'
PUBLIC	??_R4CBrush@@6B@				; CBrush::`RTTI Complete Object Locator'
PUBLIC	??_R0?AVCBrush@@@8				; CBrush `RTTI Type Descriptor'
PUBLIC	??_R3CBrush@@8					; CBrush::`RTTI Class Hierarchy Descriptor'
PUBLIC	??_R2CBrush@@8					; CBrush::`RTTI Base Class Array'
PUBLIC	??_R1A@?0A@A@CBrush@@8				; CBrush::`RTTI Base Class Descriptor at (0,-1,0,0)'
PUBLIC	??1CGdiObject@@UAE@XZ				; CGdiObject::~CGdiObject
PUBLIC	??_7CBrush@@6B@					; CBrush::`vftable'
PUBLIC	??_GCBrush@@UAEPAXI@Z				; CBrush::`scalar deleting destructor'
EXTRN	?GetRuntimeClass@CBrush@@UBEPAUCRuntimeClass@@XZ:NEAR ; CBrush::GetRuntimeClass
EXTRN	??_ECBrush@@UAEPAXI@Z:NEAR			; CBrush::`vector deleting destructor'
;	COMDAT ??_7CBrush@@6B@
CONST	SEGMENT
??_7CBrush@@6B@ DD FLAT:??_R4CBrush@@6B@		; CBrush::`vftable'
	DD	FLAT:?GetRuntimeClass@CBrush@@UBEPAUCRuntimeClass@@XZ
	DD	FLAT:??_ECBrush@@UAEPAXI@Z
	DD	FLAT:?Serialize@CObject@@UAEXAAVCArchive@@@Z
	DD	FLAT:?AssertValid@CObject@@UBEXXZ
	DD	FLAT:?Dump@CObject@@UBEXAAVCDumpContext@@@Z
CONST	ENDS
;	COMDAT ??_R4CBrush@@6B@
rdata$r	SEGMENT
??_R4CBrush@@6B@ DD 00H					; CBrush::`RTTI Complete Object Locator'
	DD	00H
	DD	00H
	DD	FLAT:??_R0?AVCBrush@@@8
	DD	FLAT:??_R3CBrush@@8
rdata$r	ENDS
;	COMDAT ??_R0?AVCBrush@@@8
_DATA	SEGMENT
??_R0?AVCBrush@@@8 DD FLAT:??_7type_info@@6B@		; CBrush `RTTI Type Descriptor'
	DD	00H
	DB	'.?AVCBrush@@', 00H
_DATA	ENDS
;	COMDAT ??_R3CBrush@@8
rdata$r	SEGMENT
??_R3CBrush@@8 DD 00H					; CBrush::`RTTI Class Hierarchy Descriptor'
	DD	00H
	DD	03H
	DD	FLAT:??_R2CBrush@@8
rdata$r	ENDS
;	COMDAT ??_R2CBrush@@8
rdata$r	SEGMENT
??_R2CBrush@@8 DD FLAT:??_R1A@?0A@A@CBrush@@8		; CBrush::`RTTI Base Class Array'
	DD	FLAT:??_R1A@?0A@A@CGdiObject@@8
	DD	FLAT:??_R1A@?0A@A@CObject@@8
rdata$r	ENDS
;	COMDAT ??_R1A@?0A@A@CBrush@@8
rdata$r	SEGMENT
??_R1A@?0A@A@CBrush@@8 DD FLAT:??_R0?AVCBrush@@@8	; CBrush::`RTTI Base Class Descriptor at (0,-1,0,0)'
	DD	02H
	DD	00H
	DD	0ffffffffH
	DD	00H
	DD	00H
rdata$r	ENDS
;	COMDAT ??_R1A@?0A@A@CGdiObject@@8
rdata$r	SEGMENT
??_R1A@?0A@A@CGdiObject@@8 DD FLAT:??_R0?AVCGdiObject@@@8 ; CGdiObject::`RTTI Base Class Descriptor at (0,-1,0,0)'
	DD	01H
	DD	00H
	DD	0ffffffffH
	DD	00H
	DD	00H
rdata$r	ENDS
;	COMDAT ??_R0?AVCGdiObject@@@8
_DATA	SEGMENT
??_R0?AVCGdiObject@@@8 DD FLAT:??_7type_info@@6B@	; CGdiObject `RTTI Type Descriptor'
	DD	00H
	DB	'.?AVCGdiObject@@', 00H
; Function compile flags: /Odt
_DATA	ENDS
;	COMDAT ??1CBrush@@UAE@XZ
_TEXT	SEGMENT
_this$ = -4						; size = 4
??1CBrush@@UAE@XZ PROC NEAR				; CBrush::~CBrush, COMDAT
; _this$ = ecx

; 130  : 	{ }

  00000	55		 push	 ebp
  00001	8b ec		 mov	 ebp, esp
  00003	51		 push	 ecx
  00004	89 4d fc	 mov	 DWORD PTR _this$[ebp], ecx
  00007	8b 45 fc	 mov	 eax, DWORD PTR _this$[ebp]
  0000a	c7 00 00 00 00
	00		 mov	 DWORD PTR [eax], OFFSET FLAT:??_7CBrush@@6B@
  00010	8b 4d fc	 mov	 ecx, DWORD PTR _this$[ebp]
  00013	e8 00 00 00 00	 call	 ??1CGdiObject@@UAE@XZ	; CGdiObject::~CGdiObject
  00018	8b e5		 mov	 esp, ebp
  0001a	5d		 pop	 ebp
  0001b	c3		 ret	 0
??1CBrush@@UAE@XZ ENDP					; CBrush::~CBrush
_TEXT	ENDS
PUBLIC	??_R4CGdiObject@@6B@				; CGdiObject::`RTTI Complete Object Locator'
PUBLIC	??_R3CGdiObject@@8				; CGdiObject::`RTTI Class Hierarchy Descriptor'
PUBLIC	??_R2CGdiObject@@8				; CGdiObject::`RTTI Base Class Array'
PUBLIC	??1CObject@@UAE@XZ				; CObject::~CObject
PUBLIC	??_7CGdiObject@@6B@				; CGdiObject::`vftable'
PUBLIC	??_GCGdiObject@@UAEPAXI@Z			; CGdiObject::`scalar deleting destructor'
EXTRN	?GetRuntimeClass@CGdiObject@@UBEPAUCRuntimeClass@@XZ:NEAR ; CGdiObject::GetRuntimeClass
EXTRN	?DeleteObject@CGdiObject@@QAEHXZ:NEAR		; CGdiObject::DeleteObject
EXTRN	??_ECGdiObject@@UAEPAXI@Z:NEAR			; CGdiObject::`vector deleting destructor'
;	COMDAT xdata$x
xdata$x	SEGMENT
$T202924 DD	0ffffffffH
	DD	FLAT:$L202920
$T202922 DD	019930520H
	DD	01H
	DD	FLAT:$T202924
	DD	2 DUP(00H)
	DD	2 DUP(00H)
xdata$x	ENDS
;	COMDAT ??_7CGdiObject@@6B@
CONST	SEGMENT
??_7CGdiObject@@6B@ DD FLAT:??_R4CGdiObject@@6B@	; CGdiObject::`vftable'
	DD	FLAT:?GetRuntimeClass@CGdiObject@@UBEPAUCRuntimeClass@@XZ
	DD	FLAT:??_ECGdiObject@@UAEPAXI@Z
	DD	FLAT:?Serialize@CObject@@UAEXAAVCArchive@@@Z
	DD	FLAT:?AssertValid@CObject@@UBEXXZ
	DD	FLAT:?Dump@CObject@@UBEXAAVCDumpContext@@@Z
CONST	ENDS
;	COMDAT ??_R4CGdiObject@@6B@
rdata$r	SEGMENT
??_R4CGdiObject@@6B@ DD 00H				; CGdiObject::`RTTI Complete Object Locator'
	DD	00H
	DD	00H
	DD	FLAT:??_R0?AVCGdiObject@@@8
	DD	FLAT:??_R3CGdiObject@@8
rdata$r	ENDS
;	COMDAT ??_R3CGdiObject@@8
rdata$r	SEGMENT
??_R3CGdiObject@@8 DD 00H				; CGdiObject::`RTTI Class Hierarchy Descriptor'
	DD	00H
	DD	02H
	DD	FLAT:??_R2CGdiObject@@8
rdata$r	ENDS
;	COMDAT ??_R2CGdiObject@@8
rdata$r	SEGMENT
??_R2CGdiObject@@8 DD FLAT:??_R1A@?0A@A@CGdiObject@@8	; CGdiObject::`RTTI Base Class Array'
	DD	FLAT:??_R1A@?0A@A@CObject@@8
; Function compile flags: /Odt
rdata$r	ENDS
;	COMDAT ??1CGdiObject@@UAE@XZ
_TEXT	SEGMENT
_this$ = -16						; size = 4
__$EHRec$ = -12						; size = 12
??1CGdiObject@@UAE@XZ PROC NEAR				; CGdiObject::~CGdiObject, COMDAT
; _this$ = ecx

; 84   : 	{ DeleteObject(); }

  00000	55		 push	 ebp
  00001	8b ec		 mov	 ebp, esp
  00003	6a ff		 push	 -1
  00005	68 00 00 00 00	 push	 __ehhandler$??1CGdiObject@@UAE@XZ
  0000a	64 a1 00 00 00
	00		 mov	 eax, DWORD PTR fs:__except_list
  00010	50		 push	 eax
  00011	64 89 25 00 00
	00 00		 mov	 DWORD PTR fs:__except_list, esp
  00018	51		 push	 ecx
  00019	89 4d f0	 mov	 DWORD PTR _this$[ebp], ecx
  0001c	8b 45 f0	 mov	 eax, DWORD PTR _this$[ebp]
  0001f	c7 00 00 00 00
	00		 mov	 DWORD PTR [eax], OFFSET FLAT:??_7CGdiObject@@6B@
  00025	c7 45 fc 00 00
	00 00		 mov	 DWORD PTR __$EHRec$[ebp+8], 0
  0002c	8b 4d f0	 mov	 ecx, DWORD PTR _this$[ebp]
  0002f	e8 00 00 00 00	 call	 ?DeleteObject@CGdiObject@@QAEHXZ ; CGdiObject::DeleteObject
  00034	c7 45 fc ff ff
	ff ff		 mov	 DWORD PTR __$EHRec$[ebp+8], -1
  0003b	8b 4d f0	 mov	 ecx, DWORD PTR _this$[ebp]
  0003e	e8 00 00 00 00	 call	 ??1CObject@@UAE@XZ	; CObject::~CObject
  00043	8b 4d f4	 mov	 ecx, DWORD PTR __$EHRec$[ebp]
  00046	64 89 0d 00 00
	00 00		 mov	 DWORD PTR fs:__except_list, ecx
  0004d	8b e5		 mov	 esp, ebp
  0004f	5d		 pop	 ebp
  00050	c3		 ret	 0
_TEXT	ENDS
;	COMDAT text$x
text$x	SEGMENT
$L202920:
  00000	8b 4d f0	 mov	 ecx, DWORD PTR _this$[ebp]
  00003	e9 00 00 00 00	 jmp	 ??1CObject@@UAE@XZ	; CObject::~CObject
__ehhandler$??1CGdiObject@@UAE@XZ:
  00008	b8 00 00 00 00	 mov	 eax, OFFSET FLAT:$T202922
  0000d	e9 00 00 00 00	 jmp	 ___CxxFrameHandler
text$x	ENDS
??1CGdiObject@@UAE@XZ ENDP				; CGdiObject::~CGdiObject
; Function compile flags: /Odt
; File d:\program files (x86)\microsoft visual studio .net 2003\vc7\atlmfc\include\afx.inl
;	COMDAT ??1CObject@@UAE@XZ
_TEXT	SEGMENT
_this$ = -4						; size = 4
??1CObject@@UAE@XZ PROC NEAR				; CObject::~CObject, COMDAT
; _this$ = ecx

; 23   : 	{ }

  00000	55		 push	 ebp
  00001	8b ec		 mov	 ebp, esp
  00003	51		 push	 ecx
  00004	89 4d fc	 mov	 DWORD PTR _this$[ebp], ecx
  00007	8b e5		 mov	 esp, ebp
  00009	5d		 pop	 ebp
  0000a	c3		 ret	 0
??1CObject@@UAE@XZ ENDP					; CObject::~CObject
; Function compile flags: /Odt
_TEXT	ENDS
;	COMDAT ??_GCGdiObject@@UAEPAXI@Z
_TEXT	SEGMENT
_this$ = -4						; size = 4
___flags$ = 8						; size = 4
??_GCGdiObject@@UAEPAXI@Z PROC NEAR			; CGdiObject::`scalar deleting destructor', COMDAT
; _this$ = ecx
  00000	55		 push	 ebp
  00001	8b ec		 mov	 ebp, esp
  00003	51		 push	 ecx
  00004	89 4d fc	 mov	 DWORD PTR _this$[ebp], ecx
  00007	8b 4d fc	 mov	 ecx, DWORD PTR _this$[ebp]
  0000a	e8 00 00 00 00	 call	 ??1CGdiObject@@UAE@XZ	; CGdiObject::~CGdiObject
  0000f	8b 45 08	 mov	 eax, DWORD PTR ___flags$[ebp]
  00012	83 e0 01	 and	 eax, 1
  00015	74 09		 je	 SHORT $L41495
  00017	8b 4d fc	 mov	 ecx, DWORD PTR _this$[ebp]
  0001a	51		 push	 ecx
  0001b	e8 00 00 00 00	 call	 ??3CObject@@SGXPAX@Z	; CObject::operator delete
$L41495:
  00020	8b 45 fc	 mov	 eax, DWORD PTR _this$[ebp]
  00023	8b e5		 mov	 esp, ebp
  00025	5d		 pop	 ebp
  00026	c2 04 00	 ret	 4
??_GCGdiObject@@UAEPAXI@Z ENDP				; CGdiObject::`scalar deleting destructor'
; Function compile flags: /Odt
_TEXT	ENDS
;	COMDAT ??_GCBrush@@UAEPAXI@Z
_TEXT	SEGMENT
_this$ = -4						; size = 4
___flags$ = 8						; size = 4
??_GCBrush@@UAEPAXI@Z PROC NEAR				; CBrush::`scalar deleting destructor', COMDAT
; _this$ = ecx
  00000	55		 push	 ebp
  00001	8b ec		 mov	 ebp, esp
  00003	51		 push	 ecx
  00004	89 4d fc	 mov	 DWORD PTR _this$[ebp], ecx
  00007	8b 4d fc	 mov	 ecx, DWORD PTR _this$[ebp]
  0000a	e8 00 00 00 00	 call	 ??1CBrush@@UAE@XZ	; CBrush::~CBrush
  0000f	8b 45 08	 mov	 eax, DWORD PTR ___flags$[ebp]
  00012	83 e0 01	 and	 eax, 1
  00015	74 09		 je	 SHORT $L41589
  00017	8b 4d fc	 mov	 ecx, DWORD PTR _this$[ebp]
  0001a	51		 push	 ecx
  0001b	e8 00 00 00 00	 call	 ??3CObject@@SGXPAX@Z	; CObject::operator delete
$L41589:
  00020	8b 45 fc	 mov	 eax, DWORD PTR _this$[ebp]
  00023	8b e5		 mov	 esp, ebp
  00025	5d		 pop	 ebp
  00026	c2 04 00	 ret	 4
??_GCBrush@@UAEPAXI@Z ENDP				; CBrush::`scalar deleting destructor'
_TEXT	ENDS
EXTRN	__imp__PatBlt@24:NEAR
; Function compile flags: /Odt
; File d:\program files (x86)\microsoft visual studio .net 2003\vc7\atlmfc\include\afxwin1.inl
;	COMDAT ?PatBlt@CDC@@QAEHHHHHK@Z
_TEXT	SEGMENT
_this$ = -4						; size = 4
_x$ = 8							; size = 4
_y$ = 12						; size = 4
_nWidth$ = 16						; size = 4
_nHeight$ = 20						; size = 4
_dwRop$ = 24						; size = 4
?PatBlt@CDC@@QAEHHHHHK@Z PROC NEAR			; CDC::PatBlt, COMDAT
; _this$ = ecx

; 545  : 	{ ASSERT(m_hDC != NULL); return ::PatBlt(m_hDC, x, y, nWidth, nHeight, dwRop); }

  00000	55		 push	 ebp
  00001	8b ec		 mov	 ebp, esp
  00003	51		 push	 ecx
  00004	89 4d fc	 mov	 DWORD PTR _this$[ebp], ecx
  00007	8b 45 18	 mov	 eax, DWORD PTR _dwRop$[ebp]
  0000a	50		 push	 eax
  0000b	8b 4d 14	 mov	 ecx, DWORD PTR _nHeight$[ebp]
  0000e	51		 push	 ecx
  0000f	8b 55 10	 mov	 edx, DWORD PTR _nWidth$[ebp]
  00012	52		 push	 edx
  00013	8b 45 0c	 mov	 eax, DWORD PTR _y$[ebp]
  00016	50		 push	 eax
  00017	8b 4d 08	 mov	 ecx, DWORD PTR _x$[ebp]
  0001a	51		 push	 ecx
  0001b	8b 55 fc	 mov	 edx, DWORD PTR _this$[ebp]
  0001e	8b 42 04	 mov	 eax, DWORD PTR [edx+4]
  00021	50		 push	 eax
  00022	ff 15 00 00 00
	00		 call	 DWORD PTR __imp__PatBlt@24
  00028	8b e5		 mov	 esp, ebp
  0002a	5d		 pop	 ebp
  0002b	c2 14 00	 ret	 20			; 00000014H
?PatBlt@CDC@@QAEHHHHHK@Z ENDP				; CDC::PatBlt
_TEXT	ENDS
EXTRN	__imp__GetWindowRect@8:NEAR
; Function compile flags: /Odt
; File d:\program files (x86)\microsoft visual studio .net 2003\vc7\atlmfc\include\afxwin2.inl
;	COMDAT ?GetWindowRect@CWnd@@QBEXPAUtagRECT@@@Z
_TEXT	SEGMENT
_this$ = -4						; size = 4
_lpRect$ = 8						; size = 4
?GetWindowRect@CWnd@@QBEXPAUtagRECT@@@Z PROC NEAR	; CWnd::GetWindowRect, COMDAT
; _this$ = ecx

; 105  : 	{ ASSERT(::IsWindow(m_hWnd)); ::GetWindowRect(m_hWnd, lpRect); }

  00000	55		 push	 ebp
  00001	8b ec		 mov	 ebp, esp
  00003	51		 push	 ecx
  00004	89 4d fc	 mov	 DWORD PTR _this$[ebp], ecx
  00007	8b 45 08	 mov	 eax, DWORD PTR _lpRect$[ebp]
  0000a	50		 push	 eax
  0000b	8b 4d fc	 mov	 ecx, DWORD PTR _this$[ebp]
  0000e	8b 51 20	 mov	 edx, DWORD PTR [ecx+32]
  00011	52		 push	 edx
  00012	ff 15 00 00 00
	00		 call	 DWORD PTR __imp__GetWindowRect@8
  00018	8b e5		 mov	 esp, ebp
  0001a	5d		 pop	 ebp
  0001b	c2 04 00	 ret	 4
?GetWindowRect@CWnd@@QBEXPAUtagRECT@@@Z ENDP		; CWnd::GetWindowRect
_TEXT	ENDS
EXTRN	__imp__GetClientRect@8:NEAR
; Function compile flags: /Odt
;	COMDAT ?GetClientRect@CWnd@@QBEXPAUtagRECT@@@Z
_TEXT	SEGMENT
_this$ = -4						; size = 4
_lpRect$ = 8						; size = 4
?GetClientRect@CWnd@@QBEXPAUtagRECT@@@Z PROC NEAR	; CWnd::GetClientRect, COMDAT
; _this$ = ecx

; 107  : 	{ ASSERT(::IsWindow(m_hWnd)); ::GetClientRect(m_hWnd, lpRect); }

  00000	55		 push	 ebp
  00001	8b ec		 mov	 ebp, esp
  00003	51		 push	 ecx
  00004	89 4d fc	 mov	 DWORD PTR _this$[ebp], ecx
  00007	8b 45 08	 mov	 eax, DWORD PTR _lpRect$[ebp]
  0000a	50		 push	 eax
  0000b	8b 4d fc	 mov	 ecx, DWORD PTR _this$[ebp]
  0000e	8b 51 20	 mov	 edx, DWORD PTR [ecx+32]
  00011	52		 push	 edx
  00012	ff 15 00 00 00
	00		 call	 DWORD PTR __imp__GetClientRect@8
  00018	8b e5		 mov	 esp, ebp
  0001a	5d		 pop	 ebp
  0001b	c2 04 00	 ret	 4
?GetClientRect@CWnd@@QBEXPAUtagRECT@@@Z ENDP		; CWnd::GetClientRect
_TEXT	ENDS
EXTRN	__imp__SendMessageA@16:NEAR
; Function compile flags: /Odt
;	COMDAT ?SetRedraw@CWnd@@QAEXH@Z
_TEXT	SEGMENT
_this$ = -4						; size = 4
_bRedraw$ = 8						; size = 4
?SetRedraw@CWnd@@QAEXH@Z PROC NEAR			; CWnd::SetRedraw, COMDAT
; _this$ = ecx

; 129  : 	{ ASSERT(::IsWindow(m_hWnd)); ::SendMessage(m_hWnd, WM_SETREDRAW, bRedraw, 0); }

  00000	55		 push	 ebp
  00001	8b ec		 mov	 ebp, esp
  00003	51		 push	 ecx
  00004	89 4d fc	 mov	 DWORD PTR _this$[ebp], ecx
  00007	6a 00		 push	 0
  00009	8b 45 08	 mov	 eax, DWORD PTR _bRedraw$[ebp]
  0000c	50		 push	 eax
  0000d	6a 0b		 push	 11			; 0000000bH
  0000f	8b 4d fc	 mov	 ecx, DWORD PTR _this$[ebp]
  00012	8b 51 20	 mov	 edx, DWORD PTR [ecx+32]
  00015	52		 push	 edx
  00016	ff 15 00 00 00
	00		 call	 DWORD PTR __imp__SendMessageA@16
  0001c	8b e5		 mov	 esp, ebp
  0001e	5d		 pop	 ebp
  0001f	c2 04 00	 ret	 4
?SetRedraw@CWnd@@QAEXH@Z ENDP				; CWnd::SetRedraw
_TEXT	ENDS
EXTRN	__imp__InvalidateRect@12:NEAR
; Function compile flags: /Odt
;	COMDAT ?Invalidate@CWnd@@QAEXH@Z
_TEXT	SEGMENT
_this$ = -4						; size = 4
_bErase$ = 8						; size = 4
?Invalidate@CWnd@@QAEXH@Z PROC NEAR			; CWnd::Invalidate, COMDAT
; _this$ = ecx

; 135  : 	{ ASSERT(::IsWindow(m_hWnd)); ::InvalidateRect(m_hWnd, NULL, bErase); }

  00000	55		 push	 ebp
  00001	8b ec		 mov	 ebp, esp
  00003	51		 push	 ecx
  00004	89 4d fc	 mov	 DWORD PTR _this$[ebp], ecx
  00007	8b 45 08	 mov	 eax, DWORD PTR _bErase$[ebp]
  0000a	50		 push	 eax
  0000b	6a 00		 push	 0
  0000d	8b 4d fc	 mov	 ecx, DWORD PTR _this$[ebp]
  00010	8b 51 20	 mov	 edx, DWORD PTR [ecx+32]
  00013	52		 push	 edx
  00014	ff 15 00 00 00
	00		 call	 DWORD PTR __imp__InvalidateRect@12
  0001a	8b e5		 mov	 esp, ebp
  0001c	5d		 pop	 ebp
  0001d	c2 04 00	 ret	 4
?Invalidate@CWnd@@QAEXH@Z ENDP				; CWnd::Invalidate
_TEXT	ENDS
EXTRN	__imp__SetTimer@16:NEAR
; Function compile flags: /Odt
;	COMDAT ?SetTimer@CWnd@@QAEIIIP6GXPAUHWND__@@IIK@Z@Z
_TEXT	SEGMENT
_this$ = -4						; size = 4
_nIDEvent$ = 8						; size = 4
_nElapse$ = 12						; size = 4
_lpfnTimer$ = 16					; size = 4
?SetTimer@CWnd@@QAEIIIP6GXPAUHWND__@@IIK@Z@Z PROC NEAR	; CWnd::SetTimer, COMDAT
; _this$ = ecx

; 182  : 	{ ASSERT(::IsWindow(m_hWnd)); return ::SetTimer(m_hWnd, nIDEvent, nElapse,

  00000	55		 push	 ebp
  00001	8b ec		 mov	 ebp, esp
  00003	51		 push	 ecx
  00004	89 4d fc	 mov	 DWORD PTR _this$[ebp], ecx

; 183  : 		lpfnTimer); }

  00007	8b 45 10	 mov	 eax, DWORD PTR _lpfnTimer$[ebp]
  0000a	50		 push	 eax
  0000b	8b 4d 0c	 mov	 ecx, DWORD PTR _nElapse$[ebp]
  0000e	51		 push	 ecx
  0000f	8b 55 08	 mov	 edx, DWORD PTR _nIDEvent$[ebp]
  00012	52		 push	 edx
  00013	8b 45 fc	 mov	 eax, DWORD PTR _this$[ebp]
  00016	8b 48 20	 mov	 ecx, DWORD PTR [eax+32]
  00019	51		 push	 ecx
  0001a	ff 15 00 00 00
	00		 call	 DWORD PTR __imp__SetTimer@16
  00020	8b e5		 mov	 esp, ebp
  00022	5d		 pop	 ebp
  00023	c2 0c 00	 ret	 12			; 0000000cH
?SetTimer@CWnd@@QAEIIIP6GXPAUHWND__@@IIK@Z@Z ENDP	; CWnd::SetTimer
_TEXT	ENDS
EXTRN	__imp__KillTimer@8:NEAR
; Function compile flags: /Odt
;	COMDAT ?KillTimer@CWnd@@QAEHI@Z
_TEXT	SEGMENT
_this$ = -4						; size = 4
_nIDEvent$ = 8						; size = 4
?KillTimer@CWnd@@QAEHI@Z PROC NEAR			; CWnd::KillTimer, COMDAT
; _this$ = ecx

; 185  : 	{ ASSERT(::IsWindow(m_hWnd)); return ::KillTimer(m_hWnd, nIDEvent); }

  00000	55		 push	 ebp
  00001	8b ec		 mov	 ebp, esp
  00003	51		 push	 ecx
  00004	89 4d fc	 mov	 DWORD PTR _this$[ebp], ecx
  00007	8b 45 08	 mov	 eax, DWORD PTR _nIDEvent$[ebp]
  0000a	50		 push	 eax
  0000b	8b 4d fc	 mov	 ecx, DWORD PTR _this$[ebp]
  0000e	8b 51 20	 mov	 edx, DWORD PTR [ecx+32]
  00011	52		 push	 edx
  00012	ff 15 00 00 00
	00		 call	 DWORD PTR __imp__KillTimer@8
  00018	8b e5		 mov	 esp, ebp
  0001a	5d		 pop	 ebp
  0001b	c2 04 00	 ret	 4
?KillTimer@CWnd@@QAEHI@Z ENDP				; CWnd::KillTimer
_TEXT	ENDS
EXTRN	?FromHandle@CWnd@@SGPAV1@PAUHWND__@@@Z:NEAR	; CWnd::FromHandle
EXTRN	__imp__SetCapture@4:NEAR
; Function compile flags: /Odt
;	COMDAT ?SetCapture@CWnd@@QAEPAV1@XZ
_TEXT	SEGMENT
_this$ = -4						; size = 4
?SetCapture@CWnd@@QAEPAV1@XZ PROC NEAR			; CWnd::SetCapture, COMDAT
; _this$ = ecx

; 199  : 	{ ASSERT(::IsWindow(m_hWnd)); return CWnd::FromHandle(::SetCapture(m_hWnd)); }

  00000	55		 push	 ebp
  00001	8b ec		 mov	 ebp, esp
  00003	51		 push	 ecx
  00004	89 4d fc	 mov	 DWORD PTR _this$[ebp], ecx
  00007	8b 45 fc	 mov	 eax, DWORD PTR _this$[ebp]
  0000a	8b 48 20	 mov	 ecx, DWORD PTR [eax+32]
  0000d	51		 push	 ecx
  0000e	ff 15 00 00 00
	00		 call	 DWORD PTR __imp__SetCapture@4
  00014	50		 push	 eax
  00015	e8 00 00 00 00	 call	 ?FromHandle@CWnd@@SGPAV1@PAUHWND__@@@Z ; CWnd::FromHandle
  0001a	8b e5		 mov	 esp, ebp
  0001c	5d		 pop	 ebp
  0001d	c3		 ret	 0
?SetCapture@CWnd@@QAEPAV1@XZ ENDP			; CWnd::SetCapture
_TEXT	ENDS
EXTRN	__imp__GetParent@4:NEAR
; Function compile flags: /Odt
;	COMDAT ?GetParent@CWnd@@QBEPAV1@XZ
_TEXT	SEGMENT
_this$ = -4						; size = 4
?GetParent@CWnd@@QBEPAV1@XZ PROC NEAR			; CWnd::GetParent, COMDAT
; _this$ = ecx

; 282  : 	{ ASSERT(::IsWindow(m_hWnd)); return CWnd::FromHandle(::GetParent(m_hWnd)); }

  00000	55		 push	 ebp
  00001	8b ec		 mov	 ebp, esp
  00003	51		 push	 ecx
  00004	89 4d fc	 mov	 DWORD PTR _this$[ebp], ecx
  00007	8b 45 fc	 mov	 eax, DWORD PTR _this$[ebp]
  0000a	8b 48 20	 mov	 ecx, DWORD PTR [eax+32]
  0000d	51		 push	 ecx
  0000e	ff 15 00 00 00
	00		 call	 DWORD PTR __imp__GetParent@4
  00014	50		 push	 eax
  00015	e8 00 00 00 00	 call	 ?FromHandle@CWnd@@SGPAV1@PAUHWND__@@@Z ; CWnd::FromHandle
  0001a	8b e5		 mov	 esp, ebp
  0001c	5d		 pop	 ebp
  0001d	c3		 ret	 0
?GetParent@CWnd@@QBEPAV1@XZ ENDP			; CWnd::GetParent
_TEXT	ENDS
EXTRN	?Default@CWnd@@IAEJXZ:NEAR			; CWnd::Default
; Function compile flags: /Odt
;	COMDAT ?OnEraseBkgnd@CWnd@@IAEHPAVCDC@@@Z
_TEXT	SEGMENT
_this$ = -4						; size = 4
___formal$ = 8						; size = 4
?OnEraseBkgnd@CWnd@@IAEHPAVCDC@@@Z PROC NEAR		; CWnd::OnEraseBkgnd, COMDAT
; _this$ = ecx

; 366  : 	{ return (BOOL)Default(); }

  00000	55		 push	 ebp
  00001	8b ec		 mov	 ebp, esp
  00003	51		 push	 ecx
  00004	89 4d fc	 mov	 DWORD PTR _this$[ebp], ecx
  00007	8b 4d fc	 mov	 ecx, DWORD PTR _this$[ebp]
  0000a	e8 00 00 00 00	 call	 ?Default@CWnd@@IAEJXZ	; CWnd::Default
  0000f	8b e5		 mov	 esp, ebp
  00011	5d		 pop	 ebp
  00012	c2 04 00	 ret	 4
?OnEraseBkgnd@CWnd@@IAEHPAVCDC@@@Z ENDP			; CWnd::OnEraseBkgnd
; Function compile flags: /Odt
_TEXT	ENDS
;	COMDAT ?OnGetMinMaxInfo@CWnd@@IAEXPAUtagMINMAXINFO@@@Z
_TEXT	SEGMENT
_this$ = -4						; size = 4
___formal$ = 8						; size = 4
?OnGetMinMaxInfo@CWnd@@IAEXPAUtagMINMAXINFO@@@Z PROC NEAR ; CWnd::OnGetMinMaxInfo, COMDAT
; _this$ = ecx

; 368  : 	{ Default(); }

  00000	55		 push	 ebp
  00001	8b ec		 mov	 ebp, esp
  00003	51		 push	 ecx
  00004	89 4d fc	 mov	 DWORD PTR _this$[ebp], ecx
  00007	8b 4d fc	 mov	 ecx, DWORD PTR _this$[ebp]
  0000a	e8 00 00 00 00	 call	 ?Default@CWnd@@IAEJXZ	; CWnd::Default
  0000f	8b e5		 mov	 esp, ebp
  00011	5d		 pop	 ebp
  00012	c2 04 00	 ret	 4
?OnGetMinMaxInfo@CWnd@@IAEXPAUtagMINMAXINFO@@@Z ENDP	; CWnd::OnGetMinMaxInfo
; Function compile flags: /Odt
_TEXT	ENDS
;	COMDAT ?OnShowWindow@CWnd@@IAEXHI@Z
_TEXT	SEGMENT
_this$ = -4						; size = 4
___formal$ = 8						; size = 4
___formal$ = 12						; size = 4
?OnShowWindow@CWnd@@IAEXHI@Z PROC NEAR			; CWnd::OnShowWindow, COMDAT
; _this$ = ecx

; 390  : 	{ Default(); }

  00000	55		 push	 ebp
  00001	8b ec		 mov	 ebp, esp
  00003	51		 push	 ecx
  00004	89 4d fc	 mov	 DWORD PTR _this$[ebp], ecx
  00007	8b 4d fc	 mov	 ecx, DWORD PTR _this$[ebp]
  0000a	e8 00 00 00 00	 call	 ?Default@CWnd@@IAEJXZ	; CWnd::Default
  0000f	8b e5		 mov	 esp, ebp
  00011	5d		 pop	 ebp
  00012	c2 08 00	 ret	 8
?OnShowWindow@CWnd@@IAEXHI@Z ENDP			; CWnd::OnShowWindow
; Function compile flags: /Odt
_TEXT	ENDS
;	COMDAT ?OnLButtonDown@CWnd@@IAEXIVCPoint@@@Z
_TEXT	SEGMENT
_this$ = -4						; size = 4
___formal$ = 8						; size = 4
___formal$ = 12						; size = 8
?OnLButtonDown@CWnd@@IAEXIVCPoint@@@Z PROC NEAR		; CWnd::OnLButtonDown, COMDAT
; _this$ = ecx

; 464  : 	{ Default(); }

  00000	55		 push	 ebp
  00001	8b ec		 mov	 ebp, esp
  00003	51		 push	 ecx
  00004	89 4d fc	 mov	 DWORD PTR _this$[ebp], ecx
  00007	8b 4d fc	 mov	 ecx, DWORD PTR _this$[ebp]
  0000a	e8 00 00 00 00	 call	 ?Default@CWnd@@IAEJXZ	; CWnd::Default
  0000f	8b e5		 mov	 esp, ebp
  00011	5d		 pop	 ebp
  00012	c2 0c 00	 ret	 12			; 0000000cH
?OnLButtonDown@CWnd@@IAEXIVCPoint@@@Z ENDP		; CWnd::OnLButtonDown
; Function compile flags: /Odt
_TEXT	ENDS
;	COMDAT ?OnLButtonUp@CWnd@@IAEXIVCPoint@@@Z
_TEXT	SEGMENT
_this$ = -4						; size = 4
___formal$ = 8						; size = 4
___formal$ = 12						; size = 8
?OnLButtonUp@CWnd@@IAEXIVCPoint@@@Z PROC NEAR		; CWnd::OnLButtonUp, COMDAT
; _this$ = ecx

; 466  : 	{ Default(); }

  00000	55		 push	 ebp
  00001	8b ec		 mov	 ebp, esp
  00003	51		 push	 ecx
  00004	89 4d fc	 mov	 DWORD PTR _this$[ebp], ecx
  00007	8b 4d fc	 mov	 ecx, DWORD PTR _this$[ebp]
  0000a	e8 00 00 00 00	 call	 ?Default@CWnd@@IAEJXZ	; CWnd::Default
  0000f	8b e5		 mov	 esp, ebp
  00011	5d		 pop	 ebp
  00012	c2 0c 00	 ret	 12			; 0000000cH
?OnLButtonUp@CWnd@@IAEXIVCPoint@@@Z ENDP		; CWnd::OnLButtonUp
; Function compile flags: /Odt
_TEXT	ENDS
;	COMDAT ?OnMouseMove@CWnd@@IAEXIVCPoint@@@Z
_TEXT	SEGMENT
_this$ = -4						; size = 4
___formal$ = 8						; size = 4
___formal$ = 12						; size = 8
?OnMouseMove@CWnd@@IAEXIVCPoint@@@Z PROC NEAR		; CWnd::OnMouseMove, COMDAT
; _this$ = ecx

; 476  : 	{ Default(); }

  00000	55		 push	 ebp
  00001	8b ec		 mov	 ebp, esp
  00003	51		 push	 ecx
  00004	89 4d fc	 mov	 DWORD PTR _this$[ebp], ecx
  00007	8b 4d fc	 mov	 ecx, DWORD PTR _this$[ebp]
  0000a	e8 00 00 00 00	 call	 ?Default@CWnd@@IAEJXZ	; CWnd::Default
  0000f	8b e5		 mov	 esp, ebp
  00011	5d		 pop	 ebp
  00012	c2 0c 00	 ret	 12			; 0000000cH
?OnMouseMove@CWnd@@IAEXIVCPoint@@@Z ENDP		; CWnd::OnMouseMove
; Function compile flags: /Odt
_TEXT	ENDS
;	COMDAT ?OnTimer@CWnd@@IAEXI@Z
_TEXT	SEGMENT
_this$ = -4						; size = 4
___formal$ = 8						; size = 4
?OnTimer@CWnd@@IAEXI@Z PROC NEAR			; CWnd::OnTimer, COMDAT
; _this$ = ecx

; 488  : 	{ Default(); }

  00000	55		 push	 ebp
  00001	8b ec		 mov	 ebp, esp
  00003	51		 push	 ecx
  00004	89 4d fc	 mov	 DWORD PTR _this$[ebp], ecx
  00007	8b 4d fc	 mov	 ecx, DWORD PTR _this$[ebp]
  0000a	e8 00 00 00 00	 call	 ?Default@CWnd@@IAEJXZ	; CWnd::Default
  0000f	8b e5		 mov	 esp, ebp
  00011	5d		 pop	 ebp
  00012	c2 04 00	 ret	 4
?OnTimer@CWnd@@IAEXI@Z ENDP				; CWnd::OnTimer
; Function compile flags: /Odt
_TEXT	ENDS
;	COMDAT ?DoDataExchange@CWnd@@MAEXPAVCDataExchange@@@Z
_TEXT	SEGMENT
_this$ = -4						; size = 4
___formal$ = 8						; size = 4
?DoDataExchange@CWnd@@MAEXPAVCDataExchange@@@Z PROC NEAR ; CWnd::DoDataExchange, COMDAT
; _this$ = ecx

; 545  : 	{ } // default does nothing

  00000	55		 push	 ebp
  00001	8b ec		 mov	 ebp, esp
  00003	51		 push	 ecx
  00004	89 4d fc	 mov	 DWORD PTR _this$[ebp], ecx
  00007	8b e5		 mov	 esp, ebp
  00009	5d		 pop	 ebp
  0000a	c2 04 00	 ret	 4
?DoDataExchange@CWnd@@MAEXPAVCDataExchange@@@Z ENDP	; CWnd::DoDataExchange
_TEXT	ENDS
EXTRN	__imp__EnableWindow@8:NEAR
; Function compile flags: /Odt
;	COMDAT ?BeginModalState@CWnd@@UAEXXZ
_TEXT	SEGMENT
_this$ = -4						; size = 4
?BeginModalState@CWnd@@UAEXXZ PROC NEAR			; CWnd::BeginModalState, COMDAT
; _this$ = ecx

; 549  : 	{ ::EnableWindow(m_hWnd, FALSE); }

  00000	55		 push	 ebp
  00001	8b ec		 mov	 ebp, esp
  00003	51		 push	 ecx
  00004	89 4d fc	 mov	 DWORD PTR _this$[ebp], ecx
  00007	6a 00		 push	 0
  00009	8b 45 fc	 mov	 eax, DWORD PTR _this$[ebp]
  0000c	8b 48 20	 mov	 ecx, DWORD PTR [eax+32]
  0000f	51		 push	 ecx
  00010	ff 15 00 00 00
	00		 call	 DWORD PTR __imp__EnableWindow@8
  00016	8b e5		 mov	 esp, ebp
  00018	5d		 pop	 ebp
  00019	c3		 ret	 0
?BeginModalState@CWnd@@UAEXXZ ENDP			; CWnd::BeginModalState
; Function compile flags: /Odt
_TEXT	ENDS
;	COMDAT ?EndModalState@CWnd@@UAEXXZ
_TEXT	SEGMENT
_this$ = -4						; size = 4
?EndModalState@CWnd@@UAEXXZ PROC NEAR			; CWnd::EndModalState, COMDAT
; _this$ = ecx

; 551  : 	{ ::EnableWindow(m_hWnd, TRUE); }

  00000	55		 push	 ebp
  00001	8b ec		 mov	 ebp, esp
  00003	51		 push	 ecx
  00004	89 4d fc	 mov	 DWORD PTR _this$[ebp], ecx
  00007	6a 01		 push	 1
  00009	8b 45 fc	 mov	 eax, DWORD PTR _this$[ebp]
  0000c	8b 48 20	 mov	 ecx, DWORD PTR [eax+32]
  0000f	51		 push	 ecx
  00010	ff 15 00 00 00
	00		 call	 DWORD PTR __imp__EnableWindow@8
  00016	8b e5		 mov	 esp, ebp
  00018	5d		 pop	 ebp
  00019	c3		 ret	 0
?EndModalState@CWnd@@UAEXXZ ENDP			; CWnd::EndModalState
_TEXT	ENDS
PUBLIC	??_7CStatic@@6B@				; CStatic::`vftable'
PUBLIC	??_GCStatic@@UAEPAXI@Z				; CStatic::`scalar deleting destructor'
PUBLIC	??_R4CStatic@@6B@				; CStatic::`RTTI Complete Object Locator'
PUBLIC	??_R3CStatic@@8					; CStatic::`RTTI Class Hierarchy Descriptor'
PUBLIC	??_R2CStatic@@8					; CStatic::`RTTI Base Class Array'
EXTRN	?GetMessageMap@CWnd@@MBEPBUAFX_MSGMAP@@XZ:NEAR	; CWnd::GetMessageMap
EXTRN	?GetRuntimeClass@CStatic@@UBEPAUCRuntimeClass@@XZ:NEAR ; CStatic::GetRuntimeClass
EXTRN	??_ECStatic@@UAEPAXI@Z:NEAR			; CStatic::`vector deleting destructor'
EXTRN	??0CWnd@@QAE@XZ:NEAR				; CWnd::CWnd
;	COMDAT ??_7CStatic@@6B@
CONST	SEGMENT
??_7CStatic@@6B@ DD FLAT:??_R4CStatic@@6B@		; CStatic::`vftable'
	DD	FLAT:?GetRuntimeClass@CStatic@@UBEPAUCRuntimeClass@@XZ
	DD	FLAT:??_ECStatic@@UAEPAXI@Z
	DD	FLAT:?Serialize@CObject@@UAEXAAVCArchive@@@Z
	DD	FLAT:?AssertValid@CObject@@UBEXXZ
	DD	FLAT:?Dump@CObject@@UBEXAAVCDumpContext@@@Z
	DD	FLAT:?OnCmdMsg@CCmdTarget@@UAEHIHPAXPAUAFX_CMDHANDLERINFO@@@Z
	DD	FLAT:?OnFinalRelease@CWnd@@UAEXXZ
	DD	FLAT:?IsInvokeAllowed@CCmdTarget@@UAEHJ@Z
	DD	FLAT:?GetDispatchIID@CCmdTarget@@UAEHPAU_GUID@@@Z
	DD	FLAT:?GetTypeInfoCount@CCmdTarget@@UAEIXZ
	DD	FLAT:?GetTypeLibCache@CCmdTarget@@UAEPAVCTypeLibCache@@XZ
	DD	FLAT:?GetTypeLib@CCmdTarget@@UAEJKPAPAUITypeLib@@@Z
	DD	FLAT:?GetMessageMap@CWnd@@MBEPBUAFX_MSGMAP@@XZ
	DD	FLAT:?GetCommandMap@CCmdTarget@@MBEPBUAFX_OLECMDMAP@@XZ
	DD	FLAT:?GetDispatchMap@CCmdTarget@@MBEPBUAFX_DISPMAP@@XZ
	DD	FLAT:?GetConnectionMap@CCmdTarget@@MBEPBUAFX_CONNECTIONMAP@@XZ
	DD	FLAT:?GetInterfaceMap@CWnd@@MBEPBUAFX_INTERFACEMAP@@XZ
	DD	FLAT:?GetEventSinkMap@CCmdTarget@@MBEPBUAFX_EVENTSINKMAP@@XZ
	DD	FLAT:?OnCreateAggregates@CCmdTarget@@UAEHXZ
	DD	FLAT:?GetInterfaceHook@CCmdTarget@@UAEPAUIUnknown@@PBX@Z
	DD	FLAT:?GetExtraConnectionPoints@CCmdTarget@@MAEHPAVCPtrArray@@@Z
	DD	FLAT:?GetConnectionHook@CCmdTarget@@MAEPAUIConnectionPoint@@ABU_GUID@@@Z
	DD	FLAT:?PreSubclassWindow@CWnd@@UAEXXZ
	DD	FLAT:?Create@CWnd@@UAEHPBD0KABUtagRECT@@PAV1@IPAUCCreateContext@@@Z
	DD	FLAT:?CreateEx@CWnd@@UAEHKPBD0KABUtagRECT@@PAV1@IPAX@Z
	DD	FLAT:?CreateEx@CWnd@@UAEHKPBD0KHHHHPAUHWND__@@PAUHMENU__@@PAX@Z
	DD	FLAT:?DestroyWindow@CWnd@@UAEHXZ
	DD	FLAT:?PreCreateWindow@CWnd@@UAEHAAUtagCREATESTRUCTA@@@Z
	DD	FLAT:?CalcWindowRect@CWnd@@UAEXPAUtagRECT@@I@Z
	DD	FLAT:?OnToolHitTest@CWnd@@UBEHVCPoint@@PAUtagTOOLINFOA@@@Z
	DD	FLAT:?GetScrollBarCtrl@CWnd@@UBEPAVCScrollBar@@H@Z
	DD	FLAT:?WinHelpA@CWnd@@UAEXKI@Z
	DD	FLAT:?HtmlHelpA@CWnd@@UAEXKI@Z
	DD	FLAT:?WinHelpInternal@CWnd@@UAEXKI@Z
	DD	FLAT:?ContinueModal@CWnd@@UAEHXZ
	DD	FLAT:?EndModalLoop@CWnd@@UAEXH@Z
	DD	FLAT:?EnsureStdObj@CWnd@@UAEJXZ
	DD	FLAT:?get_accParent@CWnd@@UAEJPAPAUIDispatch@@@Z
	DD	FLAT:?get_accChildCount@CWnd@@UAEJPAJ@Z
	DD	FLAT:?get_accChild@CWnd@@UAEJUtagVARIANT@@PAPAUIDispatch@@@Z
	DD	FLAT:?get_accName@CWnd@@UAEJUtagVARIANT@@PAPA_W@Z
	DD	FLAT:?get_accValue@CWnd@@UAEJUtagVARIANT@@PAPA_W@Z
	DD	FLAT:?get_accDescription@CWnd@@UAEJUtagVARIANT@@PAPA_W@Z
	DD	FLAT:?get_accRole@CWnd@@UAEJUtagVARIANT@@PAU2@@Z
	DD	FLAT:?get_accState@CWnd@@UAEJUtagVARIANT@@PAU2@@Z
	DD	FLAT:?get_accHelp@CWnd@@UAEJUtagVARIANT@@PAPA_W@Z
	DD	FLAT:?get_accHelpTopic@CWnd@@UAEJPAPA_WUtagVARIANT@@PAJ@Z
	DD	FLAT:?get_accKeyboardShortcut@CWnd@@UAEJUtagVARIANT@@PAPA_W@Z
	DD	FLAT:?get_accFocus@CWnd@@UAEJPAUtagVARIANT@@@Z
	DD	FLAT:?get_accSelection@CWnd@@UAEJPAUtagVARIANT@@@Z
	DD	FLAT:?get_accDefaultAction@CWnd@@UAEJUtagVARIANT@@PAPA_W@Z
	DD	FLAT:?accSelect@CWnd@@UAEJJUtagVARIANT@@@Z
	DD	FLAT:?accLocation@CWnd@@UAEJPAJ000UtagVARIANT@@@Z
	DD	FLAT:?accNavigate@CWnd@@UAEJJUtagVARIANT@@PAU2@@Z
	DD	FLAT:?accHitTest@CWnd@@UAEJJJPAUtagVARIANT@@@Z
	DD	FLAT:?accDoDefaultAction@CWnd@@UAEJUtagVARIANT@@@Z
	DD	FLAT:?put_accName@CWnd@@UAEJUtagVARIANT@@PA_W@Z
	DD	FLAT:?put_accValue@CWnd@@UAEJUtagVARIANT@@PA_W@Z
	DD	FLAT:?SetProxy@CWnd@@UAEJPAUIAccessibleProxy@@@Z
	DD	FLAT:?CreateAccessibleProxy@CWnd@@UAEJIJPAJ@Z
	DD	FLAT:?OnCommand@CWnd@@MAEHIJ@Z
	DD	FLAT:?OnNotify@CWnd@@MAEHIJPAJ@Z
	DD	FLAT:?GetSuperWndProcAddr@CWnd@@MAEPAP6GJPAUHWND__@@IIJ@ZXZ
	DD	FLAT:?DoDataExchange@CWnd@@MAEXPAVCDataExchange@@@Z
	DD	FLAT:?BeginModalState@CWnd@@UAEXXZ
	DD	FLAT:?EndModalState@CWnd@@UAEXXZ
	DD	FLAT:?PreTranslateMessage@CWnd@@UAEHPAUtagMSG@@@Z
	DD	FLAT:?OnAmbientProperty@CWnd@@UAEHPAVCOleControlSite@@JPAUtagVARIANT@@@Z
	DD	FLAT:?WindowProc@CWnd@@MAEJIIJ@Z
	DD	FLAT:?OnWndMsg@CWnd@@MAEHIIJPAJ@Z
	DD	FLAT:?DefWindowProcA@CWnd@@MAEJIIJ@Z
	DD	FLAT:?PostNcDestroy@CWnd@@MAEXXZ
	DD	FLAT:?OnChildNotify@CStatic@@MAEHIIJPAJ@Z
	DD	FLAT:?CheckAutoCenter@CWnd@@UAEHXZ
	DD	FLAT:?IsFrameWnd@CWnd@@UBEHXZ
	DD	FLAT:?CreateControlContainer@CWnd@@MAEHPAPAVCOleControlContainer@@@Z
	DD	FLAT:?CreateControlSite@CWnd@@MAEHPAVCOleControlContainer@@PAPAVCOleControlSite@@IABU_GUID@@@Z
	DD	FLAT:?SetOccDialogInfo@CWnd@@MAEHPAU_AFX_OCC_DIALOG_INFO@@@Z
	DD	FLAT:?Create@CStatic@@UAEHPBDKABUtagRECT@@PAVCWnd@@I@Z
	DD	FLAT:?DrawItem@CStatic@@UAEXPAUtagDRAWITEMSTRUCT@@@Z
CONST	ENDS
;	COMDAT ??_R4CStatic@@6B@
rdata$r	SEGMENT
??_R4CStatic@@6B@ DD 00H				; CStatic::`RTTI Complete Object Locator'
	DD	00H
	DD	00H
	DD	FLAT:??_R0?AVCStatic@@@8
	DD	FLAT:??_R3CStatic@@8
rdata$r	ENDS
;	COMDAT ??_R3CStatic@@8
rdata$r	SEGMENT
??_R3CStatic@@8 DD 00H					; CStatic::`RTTI Class Hierarchy Descriptor'
	DD	00H
	DD	04H
	DD	FLAT:??_R2CStatic@@8
rdata$r	ENDS
;	COMDAT ??_R2CStatic@@8
rdata$r	SEGMENT
??_R2CStatic@@8 DD FLAT:??_R1A@?0A@A@CStatic@@8		; CStatic::`RTTI Base Class Array'
	DD	FLAT:??_R1A@?0A@A@CWnd@@8
	DD	FLAT:??_R1A@?0A@A@CCmdTarget@@8
	DD	FLAT:??_R1A@?0A@A@CObject@@8
; Function compile flags: /Odt
rdata$r	ENDS
;	COMDAT ??0CStatic@@QAE@XZ
_TEXT	SEGMENT
_this$ = -4						; size = 4
??0CStatic@@QAE@XZ PROC NEAR				; CStatic::CStatic, COMDAT
; _this$ = ecx

; 588  : 	{ }

  00000	55		 push	 ebp
  00001	8b ec		 mov	 ebp, esp
  00003	51		 push	 ecx
  00004	89 4d fc	 mov	 DWORD PTR _this$[ebp], ecx
  00007	8b 4d fc	 mov	 ecx, DWORD PTR _this$[ebp]
  0000a	e8 00 00 00 00	 call	 ??0CWnd@@QAE@XZ		; CWnd::CWnd
  0000f	8b 45 fc	 mov	 eax, DWORD PTR _this$[ebp]
  00012	c7 00 00 00 00
	00		 mov	 DWORD PTR [eax], OFFSET FLAT:??_7CStatic@@6B@
  00018	8b 45 fc	 mov	 eax, DWORD PTR _this$[ebp]
  0001b	8b e5		 mov	 esp, ebp
  0001d	5d		 pop	 ebp
  0001e	c3		 ret	 0
??0CStatic@@QAE@XZ ENDP					; CStatic::CStatic
; Function compile flags: /Odt
_TEXT	ENDS
;	COMDAT ??_GCStatic@@UAEPAXI@Z
_TEXT	SEGMENT
_this$ = -4						; size = 4
___flags$ = 8						; size = 4
??_GCStatic@@UAEPAXI@Z PROC NEAR			; CStatic::`scalar deleting destructor', COMDAT
; _this$ = ecx
  00000	55		 push	 ebp
  00001	8b ec		 mov	 ebp, esp
  00003	51		 push	 ecx
  00004	89 4d fc	 mov	 DWORD PTR _this$[ebp], ecx
  00007	8b 4d fc	 mov	 ecx, DWORD PTR _this$[ebp]
  0000a	e8 00 00 00 00	 call	 ??1CStatic@@UAE@XZ	; CStatic::~CStatic
  0000f	8b 45 08	 mov	 eax, DWORD PTR ___flags$[ebp]
  00012	83 e0 01	 and	 eax, 1
  00015	74 09		 je	 SHORT $L44524
  00017	8b 4d fc	 mov	 ecx, DWORD PTR _this$[ebp]
  0001a	51		 push	 ecx
  0001b	e8 00 00 00 00	 call	 ??3CObject@@SGXPAX@Z	; CObject::operator delete
$L44524:
  00020	8b 45 fc	 mov	 eax, DWORD PTR _this$[ebp]
  00023	8b e5		 mov	 esp, ebp
  00025	5d		 pop	 ebp
  00026	c2 04 00	 ret	 4
??_GCStatic@@UAEPAXI@Z ENDP				; CStatic::`scalar deleting destructor'
_TEXT	ENDS
EXTRN	__imp__LoadCursorA@8:NEAR
; Function compile flags: /Odt
;	COMDAT ?LoadStandardCursor@CWinApp@@QBEPAUHICON__@@PBD@Z
_TEXT	SEGMENT
_this$ = -4						; size = 4
_lpszCursorName$ = 8					; size = 4
?LoadStandardCursor@CWinApp@@QBEPAUHICON__@@PBD@Z PROC NEAR ; CWinApp::LoadStandardCursor, COMDAT
; _this$ = ecx

; 1007 : 	{ return ::LoadCursor(NULL, lpszCursorName); }

  00000	55		 push	 ebp
  00001	8b ec		 mov	 ebp, esp
  00003	51		 push	 ecx
  00004	89 4d fc	 mov	 DWORD PTR _this$[ebp], ecx
  00007	8b 45 08	 mov	 eax, DWORD PTR _lpszCursorName$[ebp]
  0000a	50		 push	 eax
  0000b	6a 00		 push	 0
  0000d	ff 15 00 00 00
	00		 call	 DWORD PTR __imp__LoadCursorA@8
  00013	8b e5		 mov	 esp, ebp
  00015	5d		 pop	 ebp
  00016	c2 04 00	 ret	 4
?LoadStandardCursor@CWinApp@@QBEPAUHICON__@@PBD@Z ENDP	; CWinApp::LoadStandardCursor
_TEXT	ENDS
END
