; Listing generated by Microsoft (R) Optimizing Compiler Version 13.10.3077 

	TITLE	.\src\Gui\CommonControl\FlashLoadingWnd.cpp
	.386P
include listing.inc
if @Version gt 510
.model FLAT
else
_TEXT	SEGMENT PARA USE32 PUBLIC 'CODE'
_TEXT	ENDS
_DATA	SEGMENT DWORD USE32 PUBLIC 'DATA'
_DATA	ENDS
CONST	SEGMENT DWORD USE32 PUBLIC 'CONST'
CONST	ENDS
_BSS	SEGMENT DWORD USE32 PUBLIC 'BSS'
_BSS	ENDS
$$SYMBOLS	SEGMENT BYTE USE32 'DEBSYM'
$$SYMBOLS	ENDS
$$TYPES	SEGMENT BYTE USE32 'DEBTYP'
$$TYPES	ENDS
_TLS	SEGMENT DWORD USE32 PUBLIC 'TLS'
_TLS	ENDS
;	COMDAT ??_C@_08OLHMJGAF@stop?4swf?$AA@
CONST	SEGMENT DWORD USE32 PUBLIC 'CONST'
CONST	ENDS
;	COMDAT ??_C@_0M@DBEKFKCI@loading?4swf?$AA@
CONST	SEGMENT DWORD USE32 PUBLIC 'CONST'
CONST	ENDS
;	COMDAT ??_C@_0BH@PCLJNBEP@?2Resources?2StandardUI?2?$AA@
CONST	SEGMENT DWORD USE32 PUBLIC 'CONST'
CONST	ENDS
rdata$r	SEGMENT DWORD USE32 PUBLIC 'CONST'
rdata$r	ENDS
xdata$x	SEGMENT DWORD USE32 PUBLIC 'CONST'
xdata$x	ENDS
text$AFX_COL1	SEGMENT PARA USE32 PUBLIC ''
text$AFX_COL1	ENDS
text$yc	SEGMENT PARA USE32 PUBLIC 'CODE'
text$yc	ENDS
CRT$XCA	SEGMENT DWORD USE32 PUBLIC 'DATA'
CRT$XCA	ENDS
CRT$XCU	SEGMENT DWORD USE32 PUBLIC 'DATA'
CRT$XCU	ENDS
CRT$XCL	SEGMENT DWORD USE32 PUBLIC 'DATA'
CRT$XCL	ENDS
CRT$XCC	SEGMENT DWORD USE32 PUBLIC 'DATA'
CRT$XCC	ENDS
CRT$XCZ	SEGMENT DWORD USE32 PUBLIC 'DATA'
CRT$XCZ	ENDS
text$yd	SEGMENT PARA USE32 PUBLIC 'CODE'
text$yd	ENDS
ATL$__m	SEGMENT DWORD USE32 PUBLIC ''
ATL$__m	ENDS
ATL$__z	SEGMENT DWORD USE32 PUBLIC ''
ATL$__z	ENDS
ATL$__a	SEGMENT DWORD USE32 PUBLIC ''
ATL$__a	ENDS
;	COMDAT ?GetClsid@CShockwaveFlash@@QAEABU_GUID@@XZ
_TEXT	SEGMENT PARA USE32 PUBLIC 'CODE'
_TEXT	ENDS
;	COMDAT ?Create@CShockwaveFlash@@UAEHPBD0KABUtagRECT@@PAVCWnd@@IPAUCCreateContext@@@Z
_TEXT	SEGMENT PARA USE32 PUBLIC 'CODE'
_TEXT	ENDS
;	COMDAT ?Create@CShockwaveFlash@@QAEHPBDKABUtagRECT@@PAVCWnd@@IPAVCFile@@HPA_W@Z
_TEXT	SEGMENT PARA USE32 PUBLIC 'CODE'
_TEXT	ENDS
;	COMDAT ?Net_Loading@GlobalSwfPath@@SA?AV?$CStringT@DV?$StrTraitMFC_DLL@DV?$ChTraitsCRT@D@ATL@@@@@ATL@@XZ
_TEXT	SEGMENT PARA USE32 PUBLIC 'CODE'
_TEXT	ENDS
;	COMDAT ?GetSwfPath@GlobalSwfPath@@SA?AV?$CStringT@DV?$StrTraitMFC_DLL@DV?$ChTraitsCRT@D@ATL@@@@@ATL@@XZ
_TEXT	SEGMENT PARA USE32 PUBLIC 'CODE'
_TEXT	ENDS
;	COMDAT ??_GCFlashWnd@@UAEPAXI@Z
_TEXT	SEGMENT PARA USE32 PUBLIC 'CODE'
_TEXT	ENDS
;	COMDAT ??0CShockwaveFlash@@QAE@XZ
_TEXT	SEGMENT PARA USE32 PUBLIC 'CODE'
_TEXT	ENDS
;	COMDAT ??1CShockwaveFlash@@UAE@XZ
_TEXT	SEGMENT PARA USE32 PUBLIC 'CODE'
_TEXT	ENDS
;	COMDAT ??_GCShockwaveFlash@@UAEPAXI@Z
_TEXT	SEGMENT PARA USE32 PUBLIC 'CODE'
_TEXT	ENDS
;	COMDAT ??HATL@@YA?AV?$CStringT@DV?$StrTraitMFC_DLL@DV?$ChTraitsCRT@D@ATL@@@@@0@ABV10@PBD@Z
_TEXT	SEGMENT PARA USE32 PUBLIC 'CODE'
_TEXT	ENDS
;	COMDAT ??B?$CComPtrBase@UITypeInfo2@@@ATL@@QBEPAUITypeInfo2@@XZ
_TEXT	SEGMENT PARA USE32 PUBLIC 'CODE'
_TEXT	ENDS
;	COMDAT ?equal@?$istreambuf_iterator@DU?$char_traits@D@std@@@std@@QBE_NABV12@@Z
_TEXT	SEGMENT PARA USE32 PUBLIC 'CODE'
_TEXT	ENDS
;	COMDAT ?equal@?$istreambuf_iterator@_WU?$char_traits@_W@std@@@std@@QBE_NABV12@@Z
_TEXT	SEGMENT PARA USE32 PUBLIC 'CODE'
_TEXT	ENDS
;	COMDAT ?Unlock@?$CComCritSecLock@VCComCriticalSection@ATL@@@ATL@@QAEXXZ
_TEXT	SEGMENT PARA USE32 PUBLIC 'CODE'
_TEXT	ENDS
;	COMDAT ??$_Maklocstr@D@std@@YAPADPBDPADABU_Cvtvec@@@Z
_TEXT	SEGMENT PARA USE32 PUBLIC 'CODE'
_TEXT	ENDS
;	COMDAT ??_R3CShockwaveFlash@@8
rdata$r	SEGMENT DWORD USE32 PUBLIC 'CONST'
rdata$r	ENDS
;	COMDAT ??_R3CFlashWnd@@8
rdata$r	SEGMENT DWORD USE32 PUBLIC 'CONST'
rdata$r	ENDS
;	COMDAT ??_R3?$numpunct@_W@std@@8
rdata$r	SEGMENT DWORD USE32 PUBLIC 'CONST'
rdata$r	ENDS
;	COMDAT ??_R3?$numpunct@D@std@@8
rdata$r	SEGMENT DWORD USE32 PUBLIC 'CONST'
rdata$r	ENDS
;	COMDAT ??_R2CShockwaveFlash@@8
rdata$r	SEGMENT DWORD USE32 PUBLIC 'CONST'
rdata$r	ENDS
;	COMDAT ??_R2CFlashWnd@@8
rdata$r	SEGMENT DWORD USE32 PUBLIC 'CONST'
rdata$r	ENDS
;	COMDAT ??_R2?$numpunct@_W@std@@8
rdata$r	SEGMENT DWORD USE32 PUBLIC 'CONST'
rdata$r	ENDS
;	COMDAT ??_R2?$numpunct@D@std@@8
rdata$r	SEGMENT DWORD USE32 PUBLIC 'CONST'
rdata$r	ENDS
;	COMDAT ??_R1A@?0A@A@CShockwaveFlash@@8
rdata$r	SEGMENT DWORD USE32 PUBLIC 'CONST'
rdata$r	ENDS
;	COMDAT ??_R1A@?0A@A@CObject@@8
rdata$r	SEGMENT DWORD USE32 PUBLIC 'CONST'
rdata$r	ENDS
;	COMDAT ??_R0?AVCObject@@@8
_DATA	SEGMENT DWORD USE32 PUBLIC 'DATA'
_DATA	ENDS
;	COMDAT ??_R1A@?0A@A@CCmdTarget@@8
rdata$r	SEGMENT DWORD USE32 PUBLIC 'CONST'
rdata$r	ENDS
;	COMDAT ??_R0?AVCCmdTarget@@@8
_DATA	SEGMENT DWORD USE32 PUBLIC 'DATA'
_DATA	ENDS
;	COMDAT ??_R1A@?0A@A@CWnd@@8
rdata$r	SEGMENT DWORD USE32 PUBLIC 'CONST'
rdata$r	ENDS
;	COMDAT ??_R0?AVCWnd@@@8
_DATA	SEGMENT DWORD USE32 PUBLIC 'DATA'
_DATA	ENDS
;	COMDAT ??_R1A@?0A@A@CFlashWnd@@8
rdata$r	SEGMENT DWORD USE32 PUBLIC 'CONST'
rdata$r	ENDS
;	COMDAT ??_R1A@?0A@A@?$numpunct@_W@std@@8
rdata$r	SEGMENT DWORD USE32 PUBLIC 'CONST'
rdata$r	ENDS
;	COMDAT ??_R1A@?0A@A@facet@locale@std@@8
rdata$r	SEGMENT DWORD USE32 PUBLIC 'CONST'
rdata$r	ENDS
;	COMDAT ??_R0?AVfacet@locale@std@@@8
_DATA	SEGMENT DWORD USE32 PUBLIC 'DATA'
_DATA	ENDS
;	COMDAT ??_R1A@?0A@A@?$numpunct@D@std@@8
rdata$r	SEGMENT DWORD USE32 PUBLIC 'CONST'
rdata$r	ENDS
;	COMDAT ??_R0?AVCShockwaveFlash@@@8
_DATA	SEGMENT DWORD USE32 PUBLIC 'DATA'
_DATA	ENDS
;	COMDAT ??_R0?AVCFlashWnd@@@8
_DATA	SEGMENT DWORD USE32 PUBLIC 'DATA'
_DATA	ENDS
;	COMDAT ??_R0?AV?$numpunct@_W@std@@@8
_DATA	SEGMENT DWORD USE32 PUBLIC 'DATA'
_DATA	ENDS
;	COMDAT ??_R0?AV?$numpunct@D@std@@@8
_DATA	SEGMENT DWORD USE32 PUBLIC 'DATA'
_DATA	ENDS
;	COMDAT ??_R4CShockwaveFlash@@6B@
rdata$r	SEGMENT DWORD USE32 PUBLIC 'CONST'
rdata$r	ENDS
;	COMDAT ?EndModalState@CWnd@@UAEXXZ
_TEXT	SEGMENT PARA USE32 PUBLIC 'CODE'
_TEXT	ENDS
;	COMDAT ?BeginModalState@CWnd@@UAEXXZ
_TEXT	SEGMENT PARA USE32 PUBLIC 'CODE'
_TEXT	ENDS
;	COMDAT ?DoDataExchange@CWnd@@MAEXPAVCDataExchange@@@Z
_TEXT	SEGMENT PARA USE32 PUBLIC 'CODE'
_TEXT	ENDS
;	COMDAT ?Dump@CObject@@UBEXAAVCDumpContext@@@Z
_TEXT	SEGMENT PARA USE32 PUBLIC 'CODE'
_TEXT	ENDS
;	COMDAT ?AssertValid@CObject@@UBEXXZ
_TEXT	SEGMENT PARA USE32 PUBLIC 'CODE'
_TEXT	ENDS
;	COMDAT ?Serialize@CObject@@UAEXAAVCArchive@@@Z
_TEXT	SEGMENT PARA USE32 PUBLIC 'CODE'
_TEXT	ENDS
;	COMDAT ??_R4CFlashWnd@@6B@
rdata$r	SEGMENT DWORD USE32 PUBLIC 'CONST'
rdata$r	ENDS
;	COMDAT ??0?$allocator@_W@std@@QAE@XZ
_TEXT	SEGMENT PARA USE32 PUBLIC 'CODE'
_TEXT	ENDS
;	COMDAT ??0?$allocator@D@std@@QAE@ABV01@@Z
_TEXT	SEGMENT PARA USE32 PUBLIC 'CODE'
_TEXT	ENDS
;	COMDAT ??0?$allocator@D@std@@QAE@XZ
_TEXT	SEGMENT PARA USE32 PUBLIC 'CODE'
_TEXT	ENDS
;	COMDAT ?deallocate@?$allocator@D@std@@QAEXPADI@Z
_TEXT	SEGMENT PARA USE32 PUBLIC 'CODE'
_TEXT	ENDS
;	COMDAT ?max_size@?$allocator@D@std@@QBEIXZ
_TEXT	SEGMENT PARA USE32 PUBLIC 'CODE'
_TEXT	ENDS
;	COMDAT ?allocate@?$allocator@D@std@@QAEPADI@Z
_TEXT	SEGMENT PARA USE32 PUBLIC 'CODE'
_TEXT	ENDS
;	COMDAT ??$_Allocate@D@std@@YAPADIPAD@Z
_TEXT	SEGMENT PARA USE32 PUBLIC 'CODE'
_TEXT	ENDS
;	COMDAT ??_G?$numpunct@_W@std@@MAEPAXI@Z
_TEXT	SEGMENT PARA USE32 PUBLIC 'CODE'
_TEXT	ENDS
;	COMDAT ??_R4?$numpunct@_W@std@@6B@
rdata$r	SEGMENT DWORD USE32 PUBLIC 'CONST'
rdata$r	ENDS
;	COMDAT ??_G?$numpunct@D@std@@MAEPAXI@Z
_TEXT	SEGMENT PARA USE32 PUBLIC 'CODE'
_TEXT	ENDS
;	COMDAT ??_R4?$numpunct@D@std@@6B@
rdata$r	SEGMENT DWORD USE32 PUBLIC 'CONST'
rdata$r	ENDS
;	COMDAT ?_Psave@?$_Facetptr@V?$numpunct@_W@std@@@std@@2PBVfacet@locale@2@B
_DATA	SEGMENT DWORD USE32 PUBLIC 'DATA'
_DATA	ENDS
;	COMDAT ?_Psave@?$_Facetptr@V?$numpunct@D@std@@@std@@2PBVfacet@locale@2@B
_DATA	SEGMENT DWORD USE32 PUBLIC 'DATA'
_DATA	ENDS
;	COMDAT ?Unlock@CComCriticalSection@ATL@@QAEJXZ
_TEXT	SEGMENT PARA USE32 PUBLIC 'CODE'
_TEXT	ENDS
;	COMDAT ?_Psave@?$_Facetptr@V?$ctype@_W@std@@@std@@2PBVfacet@locale@2@B
_DATA	SEGMENT DWORD USE32 PUBLIC 'DATA'
_DATA	ENDS
;	COMDAT ?_Psave@?$_Facetptr@V?$ctype@D@std@@@std@@2PBVfacet@locale@2@B
_DATA	SEGMENT DWORD USE32 PUBLIC 'DATA'
_DATA	ENDS
;	COMDAT ??$_Maklocchr@_W@std@@YA_WDPA_WABU_Cvtvec@@@Z
_TEXT	SEGMENT PARA USE32 PUBLIC 'CODE'
_TEXT	ENDS
;	COMDAT ??$_Maklocstr@_W@std@@YAPA_WPBDPA_WABU_Cvtvec@@@Z
_TEXT	SEGMENT PARA USE32 PUBLIC 'CODE'
_TEXT	ENDS
;	COMDAT ??$_Maklocchr@D@std@@YADDPADABU_Cvtvec@@@Z
_TEXT	SEGMENT PARA USE32 PUBLIC 'CODE'
_TEXT	ENDS
;	COMDAT ??_C@_04LOAJBDKD@true?$AA@
CONST	SEGMENT DWORD USE32 PUBLIC 'CONST'
CONST	ENDS
;	COMDAT ??_C@_05LAPONLG@false?$AA@
CONST	SEGMENT DWORD USE32 PUBLIC 'CONST'
CONST	ENDS
;	COMDAT _wmemcpy
_TEXT	SEGMENT PARA USE32 PUBLIC 'CODE'
_TEXT	ENDS
;	COMDAT ?max_size@?$allocator@_W@std@@QBEIXZ
_TEXT	SEGMENT PARA USE32 PUBLIC 'CODE'
_TEXT	ENDS
;	COMDAT ?allocate@?$allocator@_W@std@@QAEPA_WI@Z
_TEXT	SEGMENT PARA USE32 PUBLIC 'CODE'
_TEXT	ENDS
;	COMDAT ??$_Allocate@_W@std@@YAPA_WIPA_W@Z
_TEXT	SEGMENT PARA USE32 PUBLIC 'CODE'
_TEXT	ENDS
;	COMDAT ??_C@_01GFHCPBMG@C?$AA@
CONST	SEGMENT DWORD USE32 PUBLIC 'CONST'
CONST	ENDS
;	COMDAT ?Release@CStringData@ATL@@QAEXXZ
_TEXT	SEGMENT PARA USE32 PUBLIC 'CODE'
_TEXT	ENDS
;	COMDAT ?data@CStringData@ATL@@QAEPAXXZ
_TEXT	SEGMENT PARA USE32 PUBLIC 'CODE'
_TEXT	ENDS
;	COMDAT ?AtlThrow@ATL@@YGXJ@Z
_TEXT	SEGMENT PARA USE32 PUBLIC 'CODE'
_TEXT	ENDS
;	COMDAT ?IsShared@CStringData@ATL@@QBE_NXZ
_TEXT	SEGMENT PARA USE32 PUBLIC 'CODE'
_TEXT	ENDS
;	COMDAT ?_Peek@?$istreambuf_iterator@_WU?$char_traits@_W@std@@@std@@AAE_WXZ
_TEXT	SEGMENT PARA USE32 PUBLIC 'CODE'
_TEXT	ENDS
;	COMDAT ?_Peek@?$istreambuf_iterator@DU?$char_traits@D@std@@@std@@AAEDXZ
_TEXT	SEGMENT PARA USE32 PUBLIC 'CODE'
_TEXT	ENDS
;	COMDAT ??$use_facet@V?$ctype@_W@std@@@std@@YAABV?$ctype@_W@0@ABVlocale@0@@Z
_TEXT	SEGMENT PARA USE32 PUBLIC 'CODE'
_TEXT	ENDS
;	COMDAT ??_S?$ctype@_W@std@@6B@
CONST	SEGMENT DWORD USE32 PUBLIC 'CONST'
CONST	ENDS
;	COMDAT ??_R4?$ctype@_W@std@@6B@
rdata$r	SEGMENT DWORD USE32 PUBLIC 'CONST'
rdata$r	ENDS
;	COMDAT ??_R0?AV?$ctype@_W@std@@@8
_DATA	SEGMENT DWORD USE32 PUBLIC 'DATA'
_DATA	ENDS
;	COMDAT ??_R3?$ctype@_W@std@@8
rdata$r	SEGMENT DWORD USE32 PUBLIC 'CONST'
rdata$r	ENDS
;	COMDAT ??_R2?$ctype@_W@std@@8
rdata$r	SEGMENT DWORD USE32 PUBLIC 'CONST'
rdata$r	ENDS
;	COMDAT ??_R1A@?0A@A@?$ctype@_W@std@@8
rdata$r	SEGMENT DWORD USE32 PUBLIC 'CONST'
rdata$r	ENDS
;	COMDAT ??_R1A@?0A@A@ctype_base@std@@8
rdata$r	SEGMENT DWORD USE32 PUBLIC 'CONST'
rdata$r	ENDS
;	COMDAT ??_R0?AUctype_base@std@@@8
_DATA	SEGMENT DWORD USE32 PUBLIC 'DATA'
_DATA	ENDS
;	COMDAT ??_G?$ctype@_W@std@@MAEPAXI@Z
_TEXT	SEGMENT PARA USE32 PUBLIC 'CODE'
_TEXT	ENDS
;	COMDAT ??_C@_08EPJLHIJG@bad?5cast?$AA@
CONST	SEGMENT DWORD USE32 PUBLIC 'CONST'
CONST	ENDS
;	COMDAT __TI2?AVbad_cast@@
xdata$x	SEGMENT DWORD USE32 PUBLIC 'CONST'
xdata$x	ENDS
;	COMDAT __CTA2?AVbad_cast@@
xdata$x	SEGMENT DWORD USE32 PUBLIC 'CONST'
xdata$x	ENDS
;	COMDAT __CT??_R0?AVbad_cast@@@8??0bad_cast@@QAE@ABV0@@Z12
xdata$x	SEGMENT DWORD USE32 PUBLIC 'CONST'
xdata$x	ENDS
;	COMDAT ??_R0?AVbad_cast@@@8
_DATA	SEGMENT DWORD USE32 PUBLIC 'DATA'
_DATA	ENDS
;	COMDAT __CT??_R0?AVexception@@@8??0exception@@QAE@ABV0@@Z12
xdata$x	SEGMENT DWORD USE32 PUBLIC 'CONST'
xdata$x	ENDS
;	COMDAT ??_R0?AVexception@@@8
_DATA	SEGMENT DWORD USE32 PUBLIC 'DATA'
_DATA	ENDS
;	COMDAT ??$use_facet@V?$ctype@D@std@@@std@@YAABV?$ctype@D@0@ABVlocale@0@@Z
_TEXT	SEGMENT PARA USE32 PUBLIC 'CODE'
_TEXT	ENDS
;	COMDAT ??_S?$ctype@D@std@@6B@
CONST	SEGMENT DWORD USE32 PUBLIC 'CONST'
CONST	ENDS
;	COMDAT ??_R4?$ctype@D@std@@6B@
rdata$r	SEGMENT DWORD USE32 PUBLIC 'CONST'
rdata$r	ENDS
;	COMDAT ??_R0?AV?$ctype@D@std@@@8
_DATA	SEGMENT DWORD USE32 PUBLIC 'DATA'
_DATA	ENDS
;	COMDAT ??_R3?$ctype@D@std@@8
rdata$r	SEGMENT DWORD USE32 PUBLIC 'CONST'
rdata$r	ENDS
;	COMDAT ??_R2?$ctype@D@std@@8
rdata$r	SEGMENT DWORD USE32 PUBLIC 'CONST'
rdata$r	ENDS
;	COMDAT ??_R1A@?0A@A@?$ctype@D@std@@8
rdata$r	SEGMENT DWORD USE32 PUBLIC 'CONST'
rdata$r	ENDS
;	COMDAT ??_G?$ctype@D@std@@MAEPAXI@Z
_TEXT	SEGMENT PARA USE32 PUBLIC 'CODE'
_TEXT	ENDS
;	COMDAT ??_S?$numpunct@_W@std@@6B@
CONST	SEGMENT DWORD USE32 PUBLIC 'CONST'
CONST	ENDS
;	COMDAT ??_S?$numpunct@D@std@@6B@
CONST	SEGMENT DWORD USE32 PUBLIC 'CONST'
CONST	ENDS
;	COMDAT _wmemmove
_TEXT	SEGMENT PARA USE32 PUBLIC 'CODE'
_TEXT	ENDS
;	COMDAT ?deallocate@?$allocator@_W@std@@QAEXPA_WI@Z
_TEXT	SEGMENT PARA USE32 PUBLIC 'CODE'
_TEXT	ENDS
;	COMDAT ??0?$allocator@_W@std@@QAE@ABV01@@Z
_TEXT	SEGMENT PARA USE32 PUBLIC 'CODE'
_TEXT	ENDS
;	COMDAT ?IsLocked@CStringData@ATL@@QBE_NXZ
_TEXT	SEGMENT PARA USE32 PUBLIC 'CODE'
_TEXT	ENDS
;	COMDAT ?AddRef@CStringData@ATL@@QAEXXZ
_TEXT	SEGMENT PARA USE32 PUBLIC 'CODE'
_TEXT	ENDS
;	COMDAT ?OnSize@CWnd@@IAEXIHH@Z
_TEXT	SEGMENT PARA USE32 PUBLIC 'CODE'
_TEXT	ENDS
;	COMDAT ?Height@CRect@@QBEHXZ
_TEXT	SEGMENT PARA USE32 PUBLIC 'CODE'
_TEXT	ENDS
;	COMDAT ?Width@CRect@@QBEHXZ
_TEXT	SEGMENT PARA USE32 PUBLIC 'CODE'
_TEXT	ENDS
;	COMDAT ?FillRect@CDC@@QAEXPBUtagRECT@@PAVCBrush@@@Z
_TEXT	SEGMENT PARA USE32 PUBLIC 'CODE'
_TEXT	ENDS
;	COMDAT ?GetSafeHandle@CGdiObject@@QBEPAXXZ
_TEXT	SEGMENT PARA USE32 PUBLIC 'CODE'
_TEXT	ENDS
;	COMDAT ??1CBrush@@UAE@XZ
_TEXT	SEGMENT PARA USE32 PUBLIC 'CODE'
_TEXT	ENDS
;	COMDAT ??_7CBrush@@6B@
CONST	SEGMENT DWORD USE32 PUBLIC 'CONST'
CONST	ENDS
;	COMDAT ??_R4CBrush@@6B@
rdata$r	SEGMENT DWORD USE32 PUBLIC 'CONST'
rdata$r	ENDS
;	COMDAT ??_R0?AVCBrush@@@8
_DATA	SEGMENT DWORD USE32 PUBLIC 'DATA'
_DATA	ENDS
;	COMDAT ??_R3CBrush@@8
rdata$r	SEGMENT DWORD USE32 PUBLIC 'CONST'
rdata$r	ENDS
;	COMDAT ??_R2CBrush@@8
rdata$r	SEGMENT DWORD USE32 PUBLIC 'CONST'
rdata$r	ENDS
;	COMDAT ??_R1A@?0A@A@CBrush@@8
rdata$r	SEGMENT DWORD USE32 PUBLIC 'CONST'
rdata$r	ENDS
;	COMDAT ??_R1A@?0A@A@CGdiObject@@8
rdata$r	SEGMENT DWORD USE32 PUBLIC 'CONST'
rdata$r	ENDS
;	COMDAT ??_R0?AVCGdiObject@@@8
_DATA	SEGMENT DWORD USE32 PUBLIC 'DATA'
_DATA	ENDS
;	COMDAT ??_GCBrush@@UAEPAXI@Z
_TEXT	SEGMENT PARA USE32 PUBLIC 'CODE'
_TEXT	ENDS
;	COMDAT ??1CGdiObject@@UAE@XZ
_TEXT	SEGMENT PARA USE32 PUBLIC 'CODE'
_TEXT	ENDS
;	COMDAT ??_7CGdiObject@@6B@
CONST	SEGMENT DWORD USE32 PUBLIC 'CONST'
CONST	ENDS
;	COMDAT ??_R4CGdiObject@@6B@
rdata$r	SEGMENT DWORD USE32 PUBLIC 'CONST'
rdata$r	ENDS
;	COMDAT ??_R3CGdiObject@@8
rdata$r	SEGMENT DWORD USE32 PUBLIC 'CONST'
rdata$r	ENDS
;	COMDAT ??_R2CGdiObject@@8
rdata$r	SEGMENT DWORD USE32 PUBLIC 'CONST'
rdata$r	ENDS
;	COMDAT ??_GCGdiObject@@UAEPAXI@Z
_TEXT	SEGMENT PARA USE32 PUBLIC 'CODE'
_TEXT	ENDS
;	COMDAT ??1CObject@@UAE@XZ
_TEXT	SEGMENT PARA USE32 PUBLIC 'CODE'
_TEXT	ENDS
;	COMDAT ??BCRect@@QAEPAUtagRECT@@XZ
_TEXT	SEGMENT PARA USE32 PUBLIC 'CODE'
_TEXT	ENDS
;	COMDAT ?GetClientRect@CWnd@@QBEXPAUtagRECT@@@Z
_TEXT	SEGMENT PARA USE32 PUBLIC 'CODE'
_TEXT	ENDS
;	COMDAT ?OnCreate@CWnd@@IAEHPAUtagCREATESTRUCTA@@@Z
_TEXT	SEGMENT PARA USE32 PUBLIC 'CODE'
_TEXT	ENDS
;	COMDAT ?_messageEntries@CFlashWnd@@0QBUAFX_MSGMAP_ENTRY@@B
CONST	SEGMENT DWORD USE32 PUBLIC 'CONST'
CONST	ENDS
;	COMDAT ?messageMap@CFlashWnd@@1UAFX_MSGMAP@@B
CONST	SEGMENT DWORD USE32 PUBLIC 'CONST'
CONST	ENDS
;	COMDAT ??_7CShockwaveFlash@@6B@
CONST	SEGMENT DWORD USE32 PUBLIC 'CONST'
CONST	ENDS
;	COMDAT ??3CObject@@SGXPAX@Z
_TEXT	SEGMENT PARA USE32 PUBLIC 'CODE'
_TEXT	ENDS
;	COMDAT ??0CRect@@QAE@HHHH@Z
_TEXT	SEGMENT PARA USE32 PUBLIC 'CODE'
_TEXT	ENDS
;	COMDAT ??0CRect@@QAE@XZ
_TEXT	SEGMENT PARA USE32 PUBLIC 'CODE'
_TEXT	ENDS
;	COMDAT ??_7CFlashWnd@@6B@
CONST	SEGMENT DWORD USE32 PUBLIC 'CONST'
CONST	ENDS
;	COMDAT ?classCFlashWnd@CFlashWnd@@2UCRuntimeClass@@B
CONST	SEGMENT DWORD USE32 PUBLIC 'CONST'
CONST	ENDS
;	COMDAT ??_C@_00CNPNBAHC@?$AA@
CONST	SEGMENT DWORD USE32 PUBLIC 'CONST'
CONST	ENDS
;	COMDAT ?GetDefaultManager@?$StrTraitMFC_DLL@DV?$ChTraitsCRT@D@ATL@@@@SAPAUIAtlStringMgr@ATL@@XZ
_TEXT	SEGMENT PARA USE32 PUBLIC 'CODE'
_TEXT	ENDS
;	COMDAT ?FindStringResourceInstance@?$StrTraitMFC_DLL@DV?$ChTraitsCRT@D@ATL@@@@SAPAUHINSTANCE__@@I@Z
_TEXT	SEGMENT PARA USE32 PUBLIC 'CODE'
_TEXT	ENDS
;	COMDAT ?AtlGetStringResourceImage@ATL@@YAPBUATLSTRINGRESOURCEIMAGE@1@PAUHINSTANCE__@@I@Z
_TEXT	SEGMENT PARA USE32 PUBLIC 'CODE'
_TEXT	ENDS
;	COMDAT ?_AtlGetStringResourceImage@ATL@@YAPBUATLSTRINGRESOURCEIMAGE@1@PAUHINSTANCE__@@PAUHRSRC__@@I@Z
_TEXT	SEGMENT PARA USE32 PUBLIC 'CODE'
_TEXT	ENDS
;	COMDAT ?GetBaseTypeLength@?$ChTraitsCRT@D@ATL@@SAHPB_WH@Z
_TEXT	SEGMENT PARA USE32 PUBLIC 'CODE'
_TEXT	ENDS
;	COMDAT ?_AtlGetConversionACP@ATL@@YGIXZ
_TEXT	SEGMENT PARA USE32 PUBLIC 'CODE'
_TEXT	ENDS
;	COMDAT ?g_pfnGetThreadACP@ATL@@3P6GIXZA
_DATA	SEGMENT DWORD USE32 PUBLIC 'DATA'
_DATA	ENDS
;	COMDAT ?_AtlGetThreadACPThunk@ATL@@YGIXZ
_TEXT	SEGMENT PARA USE32 PUBLIC 'CODE'
_TEXT	ENDS
;	COMDAT ?_AtlGetThreadACPReal@ATL@@YGIXZ
_TEXT	SEGMENT PARA USE32 PUBLIC 'CODE'
_TEXT	ENDS
;	COMDAT ?_AtlGetThreadACPFake@ATL@@YGIXZ
_TEXT	SEGMENT PARA USE32 PUBLIC 'CODE'
_TEXT	ENDS
;	COMDAT ?InterlockedExchangePointer@@YGPAXPAPAXPAX@Z
_TEXT	SEGMENT PARA USE32 PUBLIC 'CODE'
_TEXT	ENDS
;	COMDAT ?ConvertToBaseType@?$ChTraitsCRT@D@ATL@@SAXPADHPB_WH@Z
_TEXT	SEGMENT PARA USE32 PUBLIC 'CODE'
_TEXT	ENDS
;	COMDAT ?clsid@?1??GetClsid@CShockwaveFlash@@QAEABU_GUID@@XZ@4U3@B
CONST	SEGMENT DWORD USE32 PUBLIC 'CONST'
CONST	ENDS
sxdata	SEGMENT DWORD USE32 'SXDATA'
sxdata	ENDS
FLAT	GROUP _DATA, CONST, _BSS
	ASSUME	CS: FLAT, DS: FLAT, SS: FLAT
endif

INCLUDELIB MSVCRT
INCLUDELIB OLDNAMES

PUBLIC	?g_pfnGetThreadACP@ATL@@3P6GIXZA		; ATL::g_pfnGetThreadACP
PUBLIC	?_AtlGetThreadACPThunk@ATL@@YGIXZ		; ATL::_AtlGetThreadACPThunk
PUBLIC	?classCFlashWnd@CFlashWnd@@2UCRuntimeClass@@B	; CFlashWnd::classCFlashWnd
PUBLIC	?OnCreate@CFlashWnd@@QAEHPAUtagCREATESTRUCTA@@@Z ; CFlashWnd::OnCreate
PUBLIC	?OnPaint@CFlashWnd@@QAEXXZ			; CFlashWnd::OnPaint
PUBLIC	?OnSize@CFlashWnd@@QAEXIHH@Z			; CFlashWnd::OnSize
PUBLIC	?_messageEntries@CFlashWnd@@0QBUAFX_MSGMAP_ENTRY@@B ; CFlashWnd::_messageEntries
PUBLIC	?messageMap@CFlashWnd@@1UAFX_MSGMAP@@B		; CFlashWnd::messageMap
PUBLIC	?OnEraseBkgnd@CFlashWnd@@IAEHPAVCDC@@@Z		; CFlashWnd::OnEraseBkgnd
EXTRN	?GetThisMessageMap@CWnd@@KGPBUAFX_MSGMAP@@XZ:NEAR ; CWnd::GetThisMessageMap
EXTRN	?GetThisClass@CWnd@@SGPAUCRuntimeClass@@XZ:NEAR	; CWnd::GetThisClass
CONST	SEGMENT
$SG197628 DB	'CFlashWnd', 00H
CONST	ENDS
;	COMDAT ?classCFlashWnd@CFlashWnd@@2UCRuntimeClass@@B
CONST	SEGMENT
?classCFlashWnd@CFlashWnd@@2UCRuntimeClass@@B DD FLAT:$SG197628 ; CFlashWnd::classCFlashWnd
	DD	0bcH
	DD	0ffffH
	DD	00H
	DD	FLAT:?GetThisClass@CWnd@@SGPAUCRuntimeClass@@XZ
	DD	00H
	DD	00H
CONST	ENDS
;	COMDAT ?_messageEntries@CFlashWnd@@0QBUAFX_MSGMAP_ENTRY@@B
CONST	SEGMENT
?_messageEntries@CFlashWnd@@0QBUAFX_MSGMAP_ENTRY@@B DD 01H ; CFlashWnd::_messageEntries
	DD	00H
	DD	00H
	DD	00H
	DD	0dH
	DD	FLAT:?OnCreate@CFlashWnd@@QAEHPAUtagCREATESTRUCTA@@@Z
	DD	0fH
	DD	00H
	DD	00H
	DD	00H
	DD	010H
	DD	FLAT:?OnPaint@CFlashWnd@@QAEXXZ
	DD	014H
	DD	00H
	DD	00H
	DD	00H
	DD	01H
	DD	FLAT:?OnEraseBkgnd@CFlashWnd@@IAEHPAVCDC@@@Z
	DD	05H
	DD	00H
	DD	00H
	DD	00H
	DD	016H
	DD	FLAT:?OnSize@CFlashWnd@@QAEXIHH@Z
	DD	00H
	DD	00H
	DD	00H
	DD	00H
	DD	00H
	DD	00H
CONST	ENDS
;	COMDAT ?messageMap@CFlashWnd@@1UAFX_MSGMAP@@B
CONST	SEGMENT
?messageMap@CFlashWnd@@1UAFX_MSGMAP@@B DD FLAT:?GetThisMessageMap@CWnd@@KGPBUAFX_MSGMAP@@XZ ; CFlashWnd::messageMap
	DD	FLAT:?_messageEntries@CFlashWnd@@0QBUAFX_MSGMAP_ENTRY@@B
CONST	ENDS
CONST	SEGMENT
	ORG $+2
$SG197692 DB	'WebInfo', 00H
CONST	ENDS
;	COMDAT ?g_pfnGetThreadACP@ATL@@3P6GIXZA
_DATA	SEGMENT
?g_pfnGetThreadACP@ATL@@3P6GIXZA DD FLAT:?_AtlGetThreadACPThunk@ATL@@YGIXZ ; ATL::g_pfnGetThreadACP
_DATA	ENDS
PUBLIC	?GetThisClass@CFlashWnd@@SGPAUCRuntimeClass@@XZ	; CFlashWnd::GetThisClass
; Function compile flags: /Odt
; File d:\boxgit\playbox\playbox\dev\prj\playbox\src\gui\commoncontrol\flashloadingwnd.cpp
_TEXT	SEGMENT
?GetThisClass@CFlashWnd@@SGPAUCRuntimeClass@@XZ PROC NEAR ; CFlashWnd::GetThisClass

; 6    : IMPLEMENT_DYNAMIC(CFlashWnd, CWnd)

  00000	55		 push	 ebp
  00001	8b ec		 mov	 ebp, esp
  00003	b8 00 00 00 00	 mov	 eax, OFFSET FLAT:?classCFlashWnd@CFlashWnd@@2UCRuntimeClass@@B ; CFlashWnd::classCFlashWnd
  00008	5d		 pop	 ebp
  00009	c3		 ret	 0
?GetThisClass@CFlashWnd@@SGPAUCRuntimeClass@@XZ ENDP	; CFlashWnd::GetThisClass
_TEXT	ENDS
PUBLIC	?GetRuntimeClass@CFlashWnd@@UBEPAUCRuntimeClass@@XZ ; CFlashWnd::GetRuntimeClass
; Function compile flags: /Odt
_TEXT	SEGMENT
_this$ = -4						; size = 4
?GetRuntimeClass@CFlashWnd@@UBEPAUCRuntimeClass@@XZ PROC NEAR ; CFlashWnd::GetRuntimeClass
; _this$ = ecx

; 6    : IMPLEMENT_DYNAMIC(CFlashWnd, CWnd)

  00010	55		 push	 ebp
  00011	8b ec		 mov	 ebp, esp
  00013	51		 push	 ecx
  00014	89 4d fc	 mov	 DWORD PTR _this$[ebp], ecx
  00017	b8 00 00 00 00	 mov	 eax, OFFSET FLAT:?classCFlashWnd@CFlashWnd@@2UCRuntimeClass@@B ; CFlashWnd::classCFlashWnd
  0001c	8b e5		 mov	 esp, ebp
  0001e	5d		 pop	 ebp
  0001f	c3		 ret	 0
?GetRuntimeClass@CFlashWnd@@UBEPAUCRuntimeClass@@XZ ENDP ; CFlashWnd::GetRuntimeClass
_TEXT	ENDS
PUBLIC	??0CRect@@QAE@XZ				; CRect::CRect
PUBLIC	??0CRect@@QAE@HHHH@Z				; CRect::CRect
PUBLIC	??_R1A@?0A@A@CObject@@8				; CObject::`RTTI Base Class Descriptor at (0,-1,0,0)'
PUBLIC	??_R0?AVCObject@@@8				; CObject `RTTI Type Descriptor'
PUBLIC	??_R4CFlashWnd@@6B@				; CFlashWnd::`RTTI Complete Object Locator'
PUBLIC	??_R0?AVCFlashWnd@@@8				; CFlashWnd `RTTI Type Descriptor'
PUBLIC	??_R3CFlashWnd@@8				; CFlashWnd::`RTTI Class Hierarchy Descriptor'
PUBLIC	??_R2CFlashWnd@@8				; CFlashWnd::`RTTI Base Class Array'
PUBLIC	??_R1A@?0A@A@CFlashWnd@@8			; CFlashWnd::`RTTI Base Class Descriptor at (0,-1,0,0)'
PUBLIC	??_R1A@?0A@A@CWnd@@8				; CWnd::`RTTI Base Class Descriptor at (0,-1,0,0)'
PUBLIC	??_R0?AVCWnd@@@8				; CWnd `RTTI Type Descriptor'
PUBLIC	??_R1A@?0A@A@CCmdTarget@@8			; CCmdTarget::`RTTI Base Class Descriptor at (0,-1,0,0)'
PUBLIC	??_R0?AVCCmdTarget@@@8				; CCmdTarget `RTTI Type Descriptor'
PUBLIC	?Serialize@CObject@@UAEXAAVCArchive@@@Z		; CObject::Serialize
PUBLIC	?AssertValid@CObject@@UBEXXZ			; CObject::AssertValid
PUBLIC	?Dump@CObject@@UBEXAAVCDumpContext@@@Z		; CObject::Dump
PUBLIC	??0CShockwaveFlash@@QAE@XZ			; CShockwaveFlash::CShockwaveFlash
PUBLIC	?DoDataExchange@CWnd@@MAEXPAVCDataExchange@@@Z	; CWnd::DoDataExchange
PUBLIC	?BeginModalState@CWnd@@UAEXXZ			; CWnd::BeginModalState
PUBLIC	?EndModalState@CWnd@@UAEXXZ			; CWnd::EndModalState
PUBLIC	??0CFlashWnd@@QAE@XZ				; CFlashWnd::CFlashWnd
PUBLIC	?GetMessageMap@CFlashWnd@@MBEPBUAFX_MSGMAP@@XZ	; CFlashWnd::GetMessageMap
PUBLIC	??_7CFlashWnd@@6B@				; CFlashWnd::`vftable'
PUBLIC	??_GCFlashWnd@@UAEPAXI@Z			; CFlashWnd::`scalar deleting destructor'
EXTRN	?CreateControlContainer@CWnd@@MAEHPAPAVCOleControlContainer@@@Z:NEAR ; CWnd::CreateControlContainer
EXTRN	?CreateControlSite@CWnd@@MAEHPAVCOleControlContainer@@PAPAVCOleControlSite@@IABU_GUID@@@Z:NEAR ; CWnd::CreateControlSite
EXTRN	?SetOccDialogInfo@CWnd@@MAEHPAU_AFX_OCC_DIALOG_INFO@@@Z:NEAR ; CWnd::SetOccDialogInfo
EXTRN	?OnToolHitTest@CWnd@@UBEHVCPoint@@PAUtagTOOLINFOA@@@Z:NEAR ; CWnd::OnToolHitTest
EXTRN	?GetScrollBarCtrl@CWnd@@UBEPAVCScrollBar@@H@Z:NEAR ; CWnd::GetScrollBarCtrl
EXTRN	?WinHelpA@CWnd@@UAEXKI@Z:NEAR			; CWnd::WinHelpA
EXTRN	?HtmlHelpA@CWnd@@UAEXKI@Z:NEAR			; CWnd::HtmlHelpA
EXTRN	?WinHelpInternal@CWnd@@UAEXKI@Z:NEAR		; CWnd::WinHelpInternal
EXTRN	?ContinueModal@CWnd@@UAEHXZ:NEAR		; CWnd::ContinueModal
EXTRN	?EndModalLoop@CWnd@@UAEXH@Z:NEAR		; CWnd::EndModalLoop
EXTRN	?GetInterfaceMap@CWnd@@MBEPBUAFX_INTERFACEMAP@@XZ:NEAR ; CWnd::GetInterfaceMap
EXTRN	?EnsureStdObj@CWnd@@UAEJXZ:NEAR			; CWnd::EnsureStdObj
EXTRN	?get_accParent@CWnd@@UAEJPAPAUIDispatch@@@Z:NEAR ; CWnd::get_accParent
EXTRN	?get_accChildCount@CWnd@@UAEJPAJ@Z:NEAR		; CWnd::get_accChildCount
EXTRN	?OnCmdMsg@CCmdTarget@@UAEHIHPAXPAUAFX_CMDHANDLERINFO@@@Z:NEAR ; CCmdTarget::OnCmdMsg
EXTRN	?get_accChild@CWnd@@UAEJUtagVARIANT@@PAPAUIDispatch@@@Z:NEAR ; CWnd::get_accChild
EXTRN	?IsInvokeAllowed@CCmdTarget@@UAEHJ@Z:NEAR	; CCmdTarget::IsInvokeAllowed
EXTRN	?get_accName@CWnd@@UAEJUtagVARIANT@@PAPA_W@Z:NEAR ; CWnd::get_accName
EXTRN	?get_accValue@CWnd@@UAEJUtagVARIANT@@PAPA_W@Z:NEAR ; CWnd::get_accValue
EXTRN	?get_accDescription@CWnd@@UAEJUtagVARIANT@@PAPA_W@Z:NEAR ; CWnd::get_accDescription
EXTRN	?GetDispatchIID@CCmdTarget@@UAEHPAU_GUID@@@Z:NEAR ; CCmdTarget::GetDispatchIID
EXTRN	?GetTypeInfoCount@CCmdTarget@@UAEIXZ:NEAR	; CCmdTarget::GetTypeInfoCount
EXTRN	?GetTypeLibCache@CCmdTarget@@UAEPAVCTypeLibCache@@XZ:NEAR ; CCmdTarget::GetTypeLibCache
EXTRN	?get_accRole@CWnd@@UAEJUtagVARIANT@@PAU2@@Z:NEAR ; CWnd::get_accRole
EXTRN	?GetTypeLib@CCmdTarget@@UAEJKPAPAUITypeLib@@@Z:NEAR ; CCmdTarget::GetTypeLib
EXTRN	?get_accState@CWnd@@UAEJUtagVARIANT@@PAU2@@Z:NEAR ; CWnd::get_accState
EXTRN	?get_accHelp@CWnd@@UAEJUtagVARIANT@@PAPA_W@Z:NEAR ; CWnd::get_accHelp
EXTRN	?get_accHelpTopic@CWnd@@UAEJPAPA_WUtagVARIANT@@PAJ@Z:NEAR ; CWnd::get_accHelpTopic
EXTRN	?get_accKeyboardShortcut@CWnd@@UAEJUtagVARIANT@@PAPA_W@Z:NEAR ; CWnd::get_accKeyboardShortcut
EXTRN	?get_accFocus@CWnd@@UAEJPAUtagVARIANT@@@Z:NEAR	; CWnd::get_accFocus
EXTRN	?get_accSelection@CWnd@@UAEJPAUtagVARIANT@@@Z:NEAR ; CWnd::get_accSelection
EXTRN	?get_accDefaultAction@CWnd@@UAEJUtagVARIANT@@PAPA_W@Z:NEAR ; CWnd::get_accDefaultAction
EXTRN	?GetCommandMap@CCmdTarget@@MBEPBUAFX_OLECMDMAP@@XZ:NEAR ; CCmdTarget::GetCommandMap
EXTRN	?accSelect@CWnd@@UAEJJUtagVARIANT@@@Z:NEAR	; CWnd::accSelect
EXTRN	?accLocation@CWnd@@UAEJPAJ000UtagVARIANT@@@Z:NEAR ; CWnd::accLocation
EXTRN	?GetDispatchMap@CCmdTarget@@MBEPBUAFX_DISPMAP@@XZ:NEAR ; CCmdTarget::GetDispatchMap
EXTRN	?accNavigate@CWnd@@UAEJJUtagVARIANT@@PAU2@@Z:NEAR ; CWnd::accNavigate
EXTRN	?accHitTest@CWnd@@UAEJJJPAUtagVARIANT@@@Z:NEAR	; CWnd::accHitTest
EXTRN	?GetConnectionMap@CCmdTarget@@MBEPBUAFX_CONNECTIONMAP@@XZ:NEAR ; CCmdTarget::GetConnectionMap
EXTRN	?accDoDefaultAction@CWnd@@UAEJUtagVARIANT@@@Z:NEAR ; CWnd::accDoDefaultAction
EXTRN	?put_accName@CWnd@@UAEJUtagVARIANT@@PA_W@Z:NEAR	; CWnd::put_accName
EXTRN	?put_accValue@CWnd@@UAEJUtagVARIANT@@PA_W@Z:NEAR ; CWnd::put_accValue
EXTRN	?SetProxy@CWnd@@UAEJPAUIAccessibleProxy@@@Z:NEAR ; CWnd::SetProxy
EXTRN	?CreateAccessibleProxy@CWnd@@UAEJIJPAJ@Z:NEAR	; CWnd::CreateAccessibleProxy
EXTRN	?GetEventSinkMap@CCmdTarget@@MBEPBUAFX_EVENTSINKMAP@@XZ:NEAR ; CCmdTarget::GetEventSinkMap
EXTRN	?OnCreateAggregates@CCmdTarget@@UAEHXZ:NEAR	; CCmdTarget::OnCreateAggregates
EXTRN	?OnCommand@CWnd@@MAEHIJ@Z:NEAR			; CWnd::OnCommand
EXTRN	__except_list:DWORD
EXTRN	?GetInterfaceHook@CCmdTarget@@UAEPAUIUnknown@@PBX@Z:NEAR ; CCmdTarget::GetInterfaceHook
EXTRN	___CxxFrameHandler:NEAR
EXTRN	?OnNotify@CWnd@@MAEHIJPAJ@Z:NEAR		; CWnd::OnNotify
EXTRN	?GetExtraConnectionPoints@CCmdTarget@@MAEHPAVCPtrArray@@@Z:NEAR ; CCmdTarget::GetExtraConnectionPoints
EXTRN	?GetConnectionHook@CCmdTarget@@MAEPAUIConnectionPoint@@ABU_GUID@@@Z:NEAR ; CCmdTarget::GetConnectionHook
EXTRN	??0CWnd@@QAE@XZ:NEAR				; CWnd::CWnd
EXTRN	?PreSubclassWindow@CWnd@@UAEXXZ:NEAR		; CWnd::PreSubclassWindow
EXTRN	?Create@CWnd@@UAEHPBD0KABUtagRECT@@PAV1@IPAUCCreateContext@@@Z:NEAR ; CWnd::Create
EXTRN	?CreateEx@CWnd@@UAEHKPBD0KHHHHPAUHWND__@@PAUHMENU__@@PAX@Z:NEAR ; CWnd::CreateEx
EXTRN	?CreateEx@CWnd@@UAEHKPBD0KABUtagRECT@@PAV1@IPAX@Z:NEAR ; CWnd::CreateEx
EXTRN	?DestroyWindow@CWnd@@UAEHXZ:NEAR		; CWnd::DestroyWindow
EXTRN	?PreCreateWindow@CWnd@@UAEHAAUtagCREATESTRUCTA@@@Z:NEAR ; CWnd::PreCreateWindow
EXTRN	?CalcWindowRect@CWnd@@UAEXPAUtagRECT@@I@Z:NEAR	; CWnd::CalcWindowRect
EXTRN	?GetSuperWndProcAddr@CWnd@@MAEPAP6GJPAUHWND__@@IIJ@ZXZ:NEAR ; CWnd::GetSuperWndProcAddr
EXTRN	??_7type_info@@6B@:QWORD			; type_info::`vftable'
EXTRN	?PreTranslateMessage@CWnd@@UAEHPAUtagMSG@@@Z:NEAR ; CWnd::PreTranslateMessage
EXTRN	?OnAmbientProperty@CWnd@@UAEHPAVCOleControlSite@@JPAUtagVARIANT@@@Z:NEAR ; CWnd::OnAmbientProperty
EXTRN	?WindowProc@CWnd@@MAEJIIJ@Z:NEAR		; CWnd::WindowProc
EXTRN	?OnWndMsg@CWnd@@MAEHIIJPAJ@Z:NEAR		; CWnd::OnWndMsg
EXTRN	?DefWindowProcA@CWnd@@MAEJIIJ@Z:NEAR		; CWnd::DefWindowProcA
EXTRN	?PostNcDestroy@CWnd@@MAEXXZ:NEAR		; CWnd::PostNcDestroy
EXTRN	?OnChildNotify@CWnd@@MAEHIIJPAJ@Z:NEAR		; CWnd::OnChildNotify
EXTRN	??1CWnd@@UAE@XZ:NEAR				; CWnd::~CWnd
EXTRN	?CheckAutoCenter@CWnd@@UAEHXZ:NEAR		; CWnd::CheckAutoCenter
EXTRN	??_ECFlashWnd@@UAEPAXI@Z:NEAR			; CFlashWnd::`vector deleting destructor'
EXTRN	?IsFrameWnd@CWnd@@UBEHXZ:NEAR			; CWnd::IsFrameWnd
EXTRN	?OnFinalRelease@CWnd@@UAEXXZ:NEAR		; CWnd::OnFinalRelease
xdata$x	SEGMENT
$T198263 DD	0ffffffffH
	DD	FLAT:$L198255
$T198260 DD	019930520H
	DD	01H
	DD	FLAT:$T198263
	DD	2 DUP(00H)
	DD	2 DUP(00H)
xdata$x	ENDS
;	COMDAT ??_7CFlashWnd@@6B@
CONST	SEGMENT
??_7CFlashWnd@@6B@ DD FLAT:??_R4CFlashWnd@@6B@		; CFlashWnd::`vftable'
	DD	FLAT:?GetRuntimeClass@CFlashWnd@@UBEPAUCRuntimeClass@@XZ
	DD	FLAT:??_ECFlashWnd@@UAEPAXI@Z
	DD	FLAT:?Serialize@CObject@@UAEXAAVCArchive@@@Z
	DD	FLAT:?AssertValid@CObject@@UBEXXZ
	DD	FLAT:?Dump@CObject@@UBEXAAVCDumpContext@@@Z
	DD	FLAT:?OnCmdMsg@CCmdTarget@@UAEHIHPAXPAUAFX_CMDHANDLERINFO@@@Z
	DD	FLAT:?OnFinalRelease@CWnd@@UAEXXZ
	DD	FLAT:?IsInvokeAllowed@CCmdTarget@@UAEHJ@Z
	DD	FLAT:?GetDispatchIID@CCmdTarget@@UAEHPAU_GUID@@@Z
	DD	FLAT:?GetTypeInfoCount@CCmdTarget@@UAEIXZ
	DD	FLAT:?GetTypeLibCache@CCmdTarget@@UAEPAVCTypeLibCache@@XZ
	DD	FLAT:?GetTypeLib@CCmdTarget@@UAEJKPAPAUITypeLib@@@Z
	DD	FLAT:?GetMessageMap@CFlashWnd@@MBEPBUAFX_MSGMAP@@XZ
	DD	FLAT:?GetCommandMap@CCmdTarget@@MBEPBUAFX_OLECMDMAP@@XZ
	DD	FLAT:?GetDispatchMap@CCmdTarget@@MBEPBUAFX_DISPMAP@@XZ
	DD	FLAT:?GetConnectionMap@CCmdTarget@@MBEPBUAFX_CONNECTIONMAP@@XZ
	DD	FLAT:?GetInterfaceMap@CWnd@@MBEPBUAFX_INTERFACEMAP@@XZ
	DD	FLAT:?GetEventSinkMap@CCmdTarget@@MBEPBUAFX_EVENTSINKMAP@@XZ
	DD	FLAT:?OnCreateAggregates@CCmdTarget@@UAEHXZ
	DD	FLAT:?GetInterfaceHook@CCmdTarget@@UAEPAUIUnknown@@PBX@Z
	DD	FLAT:?GetExtraConnectionPoints@CCmdTarget@@MAEHPAVCPtrArray@@@Z
	DD	FLAT:?GetConnectionHook@CCmdTarget@@MAEPAUIConnectionPoint@@ABU_GUID@@@Z
	DD	FLAT:?PreSubclassWindow@CWnd@@UAEXXZ
	DD	FLAT:?Create@CWnd@@UAEHPBD0KABUtagRECT@@PAV1@IPAUCCreateContext@@@Z
	DD	FLAT:?CreateEx@CWnd@@UAEHKPBD0KABUtagRECT@@PAV1@IPAX@Z
	DD	FLAT:?CreateEx@CWnd@@UAEHKPBD0KHHHHPAUHWND__@@PAUHMENU__@@PAX@Z
	DD	FLAT:?DestroyWindow@CWnd@@UAEHXZ
	DD	FLAT:?PreCreateWindow@CWnd@@UAEHAAUtagCREATESTRUCTA@@@Z
	DD	FLAT:?CalcWindowRect@CWnd@@UAEXPAUtagRECT@@I@Z
	DD	FLAT:?OnToolHitTest@CWnd@@UBEHVCPoint@@PAUtagTOOLINFOA@@@Z
	DD	FLAT:?GetScrollBarCtrl@CWnd@@UBEPAVCScrollBar@@H@Z
	DD	FLAT:?WinHelpA@CWnd@@UAEXKI@Z
	DD	FLAT:?HtmlHelpA@CWnd@@UAEXKI@Z
	DD	FLAT:?WinHelpInternal@CWnd@@UAEXKI@Z
	DD	FLAT:?ContinueModal@CWnd@@UAEHXZ
	DD	FLAT:?EndModalLoop@CWnd@@UAEXH@Z
	DD	FLAT:?EnsureStdObj@CWnd@@UAEJXZ
	DD	FLAT:?get_accParent@CWnd@@UAEJPAPAUIDispatch@@@Z
	DD	FLAT:?get_accChildCount@CWnd@@UAEJPAJ@Z
	DD	FLAT:?get_accChild@CWnd@@UAEJUtagVARIANT@@PAPAUIDispatch@@@Z
	DD	FLAT:?get_accName@CWnd@@UAEJUtagVARIANT@@PAPA_W@Z
	DD	FLAT:?get_accValue@CWnd@@UAEJUtagVARIANT@@PAPA_W@Z
	DD	FLAT:?get_accDescription@CWnd@@UAEJUtagVARIANT@@PAPA_W@Z
	DD	FLAT:?get_accRole@CWnd@@UAEJUtagVARIANT@@PAU2@@Z
	DD	FLAT:?get_accState@CWnd@@UAEJUtagVARIANT@@PAU2@@Z
	DD	FLAT:?get_accHelp@CWnd@@UAEJUtagVARIANT@@PAPA_W@Z
	DD	FLAT:?get_accHelpTopic@CWnd@@UAEJPAPA_WUtagVARIANT@@PAJ@Z
	DD	FLAT:?get_accKeyboardShortcut@CWnd@@UAEJUtagVARIANT@@PAPA_W@Z
	DD	FLAT:?get_accFocus@CWnd@@UAEJPAUtagVARIANT@@@Z
	DD	FLAT:?get_accSelection@CWnd@@UAEJPAUtagVARIANT@@@Z
	DD	FLAT:?get_accDefaultAction@CWnd@@UAEJUtagVARIANT@@PAPA_W@Z
	DD	FLAT:?accSelect@CWnd@@UAEJJUtagVARIANT@@@Z
	DD	FLAT:?accLocation@CWnd@@UAEJPAJ000UtagVARIANT@@@Z
	DD	FLAT:?accNavigate@CWnd@@UAEJJUtagVARIANT@@PAU2@@Z
	DD	FLAT:?accHitTest@CWnd@@UAEJJJPAUtagVARIANT@@@Z
	DD	FLAT:?accDoDefaultAction@CWnd@@UAEJUtagVARIANT@@@Z
	DD	FLAT:?put_accName@CWnd@@UAEJUtagVARIANT@@PA_W@Z
	DD	FLAT:?put_accValue@CWnd@@UAEJUtagVARIANT@@PA_W@Z
	DD	FLAT:?SetProxy@CWnd@@UAEJPAUIAccessibleProxy@@@Z
	DD	FLAT:?CreateAccessibleProxy@CWnd@@UAEJIJPAJ@Z
	DD	FLAT:?OnCommand@CWnd@@MAEHIJ@Z
	DD	FLAT:?OnNotify@CWnd@@MAEHIJPAJ@Z
	DD	FLAT:?GetSuperWndProcAddr@CWnd@@MAEPAP6GJPAUHWND__@@IIJ@ZXZ
	DD	FLAT:?DoDataExchange@CWnd@@MAEXPAVCDataExchange@@@Z
	DD	FLAT:?BeginModalState@CWnd@@UAEXXZ
	DD	FLAT:?EndModalState@CWnd@@UAEXXZ
	DD	FLAT:?PreTranslateMessage@CWnd@@UAEHPAUtagMSG@@@Z
	DD	FLAT:?OnAmbientProperty@CWnd@@UAEHPAVCOleControlSite@@JPAUtagVARIANT@@@Z
	DD	FLAT:?WindowProc@CWnd@@MAEJIIJ@Z
	DD	FLAT:?OnWndMsg@CWnd@@MAEHIIJPAJ@Z
	DD	FLAT:?DefWindowProcA@CWnd@@MAEJIIJ@Z
	DD	FLAT:?PostNcDestroy@CWnd@@MAEXXZ
	DD	FLAT:?OnChildNotify@CWnd@@MAEHIIJPAJ@Z
	DD	FLAT:?CheckAutoCenter@CWnd@@UAEHXZ
	DD	FLAT:?IsFrameWnd@CWnd@@UBEHXZ
	DD	FLAT:?CreateControlContainer@CWnd@@MAEHPAPAVCOleControlContainer@@@Z
	DD	FLAT:?CreateControlSite@CWnd@@MAEHPAVCOleControlContainer@@PAPAVCOleControlSite@@IABU_GUID@@@Z
	DD	FLAT:?SetOccDialogInfo@CWnd@@MAEHPAU_AFX_OCC_DIALOG_INFO@@@Z
CONST	ENDS
;	COMDAT ??_R4CFlashWnd@@6B@
rdata$r	SEGMENT
??_R4CFlashWnd@@6B@ DD 00H				; CFlashWnd::`RTTI Complete Object Locator'
	DD	00H
	DD	00H
	DD	FLAT:??_R0?AVCFlashWnd@@@8
	DD	FLAT:??_R3CFlashWnd@@8
rdata$r	ENDS
;	COMDAT ??_R0?AVCFlashWnd@@@8
_DATA	SEGMENT
??_R0?AVCFlashWnd@@@8 DD FLAT:??_7type_info@@6B@	; CFlashWnd `RTTI Type Descriptor'
	DD	00H
	DB	'.?AVCFlashWnd@@', 00H
_DATA	ENDS
;	COMDAT ??_R3CFlashWnd@@8
rdata$r	SEGMENT
??_R3CFlashWnd@@8 DD 00H				; CFlashWnd::`RTTI Class Hierarchy Descriptor'
	DD	00H
	DD	04H
	DD	FLAT:??_R2CFlashWnd@@8
rdata$r	ENDS
;	COMDAT ??_R2CFlashWnd@@8
rdata$r	SEGMENT
??_R2CFlashWnd@@8 DD FLAT:??_R1A@?0A@A@CFlashWnd@@8	; CFlashWnd::`RTTI Base Class Array'
	DD	FLAT:??_R1A@?0A@A@CWnd@@8
	DD	FLAT:??_R1A@?0A@A@CCmdTarget@@8
	DD	FLAT:??_R1A@?0A@A@CObject@@8
rdata$r	ENDS
;	COMDAT ??_R1A@?0A@A@CFlashWnd@@8
rdata$r	SEGMENT
??_R1A@?0A@A@CFlashWnd@@8 DD FLAT:??_R0?AVCFlashWnd@@@8	; CFlashWnd::`RTTI Base Class Descriptor at (0,-1,0,0)'
	DD	03H
	DD	00H
	DD	0ffffffffH
	DD	00H
	DD	00H
rdata$r	ENDS
;	COMDAT ??_R1A@?0A@A@CWnd@@8
rdata$r	SEGMENT
??_R1A@?0A@A@CWnd@@8 DD FLAT:??_R0?AVCWnd@@@8		; CWnd::`RTTI Base Class Descriptor at (0,-1,0,0)'
	DD	02H
	DD	00H
	DD	0ffffffffH
	DD	00H
	DD	00H
rdata$r	ENDS
;	COMDAT ??_R0?AVCWnd@@@8
_DATA	SEGMENT
??_R0?AVCWnd@@@8 DD FLAT:??_7type_info@@6B@		; CWnd `RTTI Type Descriptor'
	DD	00H
	DB	'.?AVCWnd@@', 00H
_DATA	ENDS
;	COMDAT ??_R1A@?0A@A@CCmdTarget@@8
rdata$r	SEGMENT
??_R1A@?0A@A@CCmdTarget@@8 DD FLAT:??_R0?AVCCmdTarget@@@8 ; CCmdTarget::`RTTI Base Class Descriptor at (0,-1,0,0)'
	DD	01H
	DD	00H
	DD	0ffffffffH
	DD	00H
	DD	00H
rdata$r	ENDS
;	COMDAT ??_R0?AVCCmdTarget@@@8
_DATA	SEGMENT
??_R0?AVCCmdTarget@@@8 DD FLAT:??_7type_info@@6B@	; CCmdTarget `RTTI Type Descriptor'
	DD	00H
	DB	'.?AVCCmdTarget@@', 00H
_DATA	ENDS
;	COMDAT ??_R1A@?0A@A@CObject@@8
rdata$r	SEGMENT
??_R1A@?0A@A@CObject@@8 DD FLAT:??_R0?AVCObject@@@8	; CObject::`RTTI Base Class Descriptor at (0,-1,0,0)'
	DD	00H
	DD	00H
	DD	0ffffffffH
	DD	00H
	DD	00H
rdata$r	ENDS
;	COMDAT ??_R0?AVCObject@@@8
_DATA	SEGMENT
??_R0?AVCObject@@@8 DD FLAT:??_7type_info@@6B@		; CObject `RTTI Type Descriptor'
	DD	00H
	DB	'.?AVCObject@@', 00H
; Function compile flags: /Odt
_DATA	ENDS
_TEXT	SEGMENT
_this$ = -32						; size = 4
$T198254 = -28						; size = 16
__$EHRec$ = -12						; size = 12
??0CFlashWnd@@QAE@XZ PROC NEAR				; CFlashWnd::CFlashWnd
; _this$ = ecx

; 8    : {

  00020	55		 push	 ebp
  00021	8b ec		 mov	 ebp, esp
  00023	6a ff		 push	 -1
  00025	68 00 00 00 00	 push	 __ehhandler$??0CFlashWnd@@QAE@XZ
  0002a	64 a1 00 00 00
	00		 mov	 eax, DWORD PTR fs:__except_list
  00030	50		 push	 eax
  00031	64 89 25 00 00
	00 00		 mov	 DWORD PTR fs:__except_list, esp
  00038	83 ec 14	 sub	 esp, 20			; 00000014H
  0003b	89 4d e0	 mov	 DWORD PTR _this$[ebp], ecx
  0003e	8b 4d e0	 mov	 ecx, DWORD PTR _this$[ebp]
  00041	e8 00 00 00 00	 call	 ??0CWnd@@QAE@XZ		; CWnd::CWnd
  00046	c7 45 fc 00 00
	00 00		 mov	 DWORD PTR __$EHRec$[ebp+8], 0
  0004d	8b 45 e0	 mov	 eax, DWORD PTR _this$[ebp]
  00050	c7 00 00 00 00
	00		 mov	 DWORD PTR [eax], OFFSET FLAT:??_7CFlashWnd@@6B@
  00056	8b 4d e0	 mov	 ecx, DWORD PTR _this$[ebp]
  00059	83 c1 58	 add	 ecx, 88			; 00000058H
  0005c	e8 00 00 00 00	 call	 ??0CRect@@QAE@XZ	; CRect::CRect
  00061	8b 4d e0	 mov	 ecx, DWORD PTR _this$[ebp]
  00064	83 c1 68	 add	 ecx, 104		; 00000068H
  00067	e8 00 00 00 00	 call	 ??0CShockwaveFlash@@QAE@XZ

; 9    : 	m_colBk = RGB( 39, 39, 39 );

  0006c	8b 4d e0	 mov	 ecx, DWORD PTR _this$[ebp]
  0006f	c7 41 54 27 27
	27 00		 mov	 DWORD PTR [ecx+84], 2565927 ; 00272727H

; 10   : 	//netloadflash大小为134*120，可等比例放大缩小
; 11   : 	m_rcFlash = CRect (0, 0, 558, 283);

  00076	68 1b 01 00 00	 push	 283			; 0000011bH
  0007b	68 2e 02 00 00	 push	 558			; 0000022eH
  00080	6a 00		 push	 0
  00082	6a 00		 push	 0
  00084	8d 4d e4	 lea	 ecx, DWORD PTR $T198254[ebp]
  00087	e8 00 00 00 00	 call	 ??0CRect@@QAE@HHHH@Z	; CRect::CRect
  0008c	8b 55 e0	 mov	 edx, DWORD PTR _this$[ebp]
  0008f	83 c2 58	 add	 edx, 88			; 00000058H
  00092	8b 08		 mov	 ecx, DWORD PTR [eax]
  00094	89 0a		 mov	 DWORD PTR [edx], ecx
  00096	8b 48 04	 mov	 ecx, DWORD PTR [eax+4]
  00099	89 4a 04	 mov	 DWORD PTR [edx+4], ecx
  0009c	8b 48 08	 mov	 ecx, DWORD PTR [eax+8]
  0009f	89 4a 08	 mov	 DWORD PTR [edx+8], ecx
  000a2	8b 40 0c	 mov	 eax, DWORD PTR [eax+12]
  000a5	89 42 0c	 mov	 DWORD PTR [edx+12], eax

; 12   : }

  000a8	c7 45 fc ff ff
	ff ff		 mov	 DWORD PTR __$EHRec$[ebp+8], -1
  000af	8b 45 e0	 mov	 eax, DWORD PTR _this$[ebp]
  000b2	8b 4d f4	 mov	 ecx, DWORD PTR __$EHRec$[ebp]
  000b5	64 89 0d 00 00
	00 00		 mov	 DWORD PTR fs:__except_list, ecx
  000bc	8b e5		 mov	 esp, ebp
  000be	5d		 pop	 ebp
  000bf	c3		 ret	 0
_TEXT	ENDS
text$x	SEGMENT
$L198255:
  00000	8b 4d e0	 mov	 ecx, DWORD PTR _this$[ebp]
  00003	e9 00 00 00 00	 jmp	 ??1CWnd@@UAE@XZ		; CWnd::~CWnd
__ehhandler$??0CFlashWnd@@QAE@XZ:
  00008	b8 00 00 00 00	 mov	 eax, OFFSET FLAT:$T198260
  0000d	e9 00 00 00 00	 jmp	 ___CxxFrameHandler
text$x	ENDS
??0CFlashWnd@@QAE@XZ ENDP				; CFlashWnd::CFlashWnd
PUBLIC	??3CObject@@SGXPAX@Z				; CObject::operator delete
PUBLIC	??1CFlashWnd@@UAE@XZ				; CFlashWnd::~CFlashWnd
; Function compile flags: /Odt
;	COMDAT ??_GCFlashWnd@@UAEPAXI@Z
_TEXT	SEGMENT
_this$ = -4						; size = 4
___flags$ = 8						; size = 4
??_GCFlashWnd@@UAEPAXI@Z PROC NEAR			; CFlashWnd::`scalar deleting destructor', COMDAT
; _this$ = ecx
  00000	55		 push	 ebp
  00001	8b ec		 mov	 ebp, esp
  00003	51		 push	 ecx
  00004	89 4d fc	 mov	 DWORD PTR _this$[ebp], ecx
  00007	8b 4d fc	 mov	 ecx, DWORD PTR _this$[ebp]
  0000a	e8 00 00 00 00	 call	 ??1CFlashWnd@@UAE@XZ	; CFlashWnd::~CFlashWnd
  0000f	8b 45 08	 mov	 eax, DWORD PTR ___flags$[ebp]
  00012	83 e0 01	 and	 eax, 1
  00015	74 09		 je	 SHORT $L197650
  00017	8b 4d fc	 mov	 ecx, DWORD PTR _this$[ebp]
  0001a	51		 push	 ecx
  0001b	e8 00 00 00 00	 call	 ??3CObject@@SGXPAX@Z	; CObject::operator delete
$L197650:
  00020	8b 45 fc	 mov	 eax, DWORD PTR _this$[ebp]
  00023	8b e5		 mov	 esp, ebp
  00025	5d		 pop	 ebp
  00026	c2 04 00	 ret	 4
??_GCFlashWnd@@UAEPAXI@Z ENDP				; CFlashWnd::`scalar deleting destructor'
_TEXT	ENDS
PUBLIC	??_R4CShockwaveFlash@@6B@			; CShockwaveFlash::`RTTI Complete Object Locator'
PUBLIC	??_R0?AVCShockwaveFlash@@@8			; CShockwaveFlash `RTTI Type Descriptor'
PUBLIC	??_R3CShockwaveFlash@@8				; CShockwaveFlash::`RTTI Class Hierarchy Descriptor'
PUBLIC	??_R2CShockwaveFlash@@8				; CShockwaveFlash::`RTTI Base Class Array'
PUBLIC	??_R1A@?0A@A@CShockwaveFlash@@8			; CShockwaveFlash::`RTTI Base Class Descriptor at (0,-1,0,0)'
PUBLIC	?Create@CShockwaveFlash@@UAEHPBD0KABUtagRECT@@PAVCWnd@@IPAUCCreateContext@@@Z ; CShockwaveFlash::Create
PUBLIC	??_7CShockwaveFlash@@6B@			; CShockwaveFlash::`vftable'
PUBLIC	??_GCShockwaveFlash@@UAEPAXI@Z			; CShockwaveFlash::`scalar deleting destructor'
EXTRN	?GetMessageMap@CWnd@@MBEPBUAFX_MSGMAP@@XZ:NEAR	; CWnd::GetMessageMap
EXTRN	?GetRuntimeClass@CShockwaveFlash@@UBEPAUCRuntimeClass@@XZ:NEAR ; CShockwaveFlash::GetRuntimeClass
EXTRN	??_ECShockwaveFlash@@UAEPAXI@Z:NEAR		; CShockwaveFlash::`vector deleting destructor'
;	COMDAT ??_7CShockwaveFlash@@6B@
CONST	SEGMENT
??_7CShockwaveFlash@@6B@ DD FLAT:??_R4CShockwaveFlash@@6B@ ; CShockwaveFlash::`vftable'
	DD	FLAT:?GetRuntimeClass@CShockwaveFlash@@UBEPAUCRuntimeClass@@XZ
	DD	FLAT:??_ECShockwaveFlash@@UAEPAXI@Z
	DD	FLAT:?Serialize@CObject@@UAEXAAVCArchive@@@Z
	DD	FLAT:?AssertValid@CObject@@UBEXXZ
	DD	FLAT:?Dump@CObject@@UBEXAAVCDumpContext@@@Z
	DD	FLAT:?OnCmdMsg@CCmdTarget@@UAEHIHPAXPAUAFX_CMDHANDLERINFO@@@Z
	DD	FLAT:?OnFinalRelease@CWnd@@UAEXXZ
	DD	FLAT:?IsInvokeAllowed@CCmdTarget@@UAEHJ@Z
	DD	FLAT:?GetDispatchIID@CCmdTarget@@UAEHPAU_GUID@@@Z
	DD	FLAT:?GetTypeInfoCount@CCmdTarget@@UAEIXZ
	DD	FLAT:?GetTypeLibCache@CCmdTarget@@UAEPAVCTypeLibCache@@XZ
	DD	FLAT:?GetTypeLib@CCmdTarget@@UAEJKPAPAUITypeLib@@@Z
	DD	FLAT:?GetMessageMap@CWnd@@MBEPBUAFX_MSGMAP@@XZ
	DD	FLAT:?GetCommandMap@CCmdTarget@@MBEPBUAFX_OLECMDMAP@@XZ
	DD	FLAT:?GetDispatchMap@CCmdTarget@@MBEPBUAFX_DISPMAP@@XZ
	DD	FLAT:?GetConnectionMap@CCmdTarget@@MBEPBUAFX_CONNECTIONMAP@@XZ
	DD	FLAT:?GetInterfaceMap@CWnd@@MBEPBUAFX_INTERFACEMAP@@XZ
	DD	FLAT:?GetEventSinkMap@CCmdTarget@@MBEPBUAFX_EVENTSINKMAP@@XZ
	DD	FLAT:?OnCreateAggregates@CCmdTarget@@UAEHXZ
	DD	FLAT:?GetInterfaceHook@CCmdTarget@@UAEPAUIUnknown@@PBX@Z
	DD	FLAT:?GetExtraConnectionPoints@CCmdTarget@@MAEHPAVCPtrArray@@@Z
	DD	FLAT:?GetConnectionHook@CCmdTarget@@MAEPAUIConnectionPoint@@ABU_GUID@@@Z
	DD	FLAT:?PreSubclassWindow@CWnd@@UAEXXZ
	DD	FLAT:?Create@CShockwaveFlash@@UAEHPBD0KABUtagRECT@@PAVCWnd@@IPAUCCreateContext@@@Z
	DD	FLAT:?CreateEx@CWnd@@UAEHKPBD0KABUtagRECT@@PAV1@IPAX@Z
	DD	FLAT:?CreateEx@CWnd@@UAEHKPBD0KHHHHPAUHWND__@@PAUHMENU__@@PAX@Z
	DD	FLAT:?DestroyWindow@CWnd@@UAEHXZ
	DD	FLAT:?PreCreateWindow@CWnd@@UAEHAAUtagCREATESTRUCTA@@@Z
	DD	FLAT:?CalcWindowRect@CWnd@@UAEXPAUtagRECT@@I@Z
	DD	FLAT:?OnToolHitTest@CWnd@@UBEHVCPoint@@PAUtagTOOLINFOA@@@Z
	DD	FLAT:?GetScrollBarCtrl@CWnd@@UBEPAVCScrollBar@@H@Z
	DD	FLAT:?WinHelpA@CWnd@@UAEXKI@Z
	DD	FLAT:?HtmlHelpA@CWnd@@UAEXKI@Z
	DD	FLAT:?WinHelpInternal@CWnd@@UAEXKI@Z
	DD	FLAT:?ContinueModal@CWnd@@UAEHXZ
	DD	FLAT:?EndModalLoop@CWnd@@UAEXH@Z
	DD	FLAT:?EnsureStdObj@CWnd@@UAEJXZ
	DD	FLAT:?get_accParent@CWnd@@UAEJPAPAUIDispatch@@@Z
	DD	FLAT:?get_accChildCount@CWnd@@UAEJPAJ@Z
	DD	FLAT:?get_accChild@CWnd@@UAEJUtagVARIANT@@PAPAUIDispatch@@@Z
	DD	FLAT:?get_accName@CWnd@@UAEJUtagVARIANT@@PAPA_W@Z
	DD	FLAT:?get_accValue@CWnd@@UAEJUtagVARIANT@@PAPA_W@Z
	DD	FLAT:?get_accDescription@CWnd@@UAEJUtagVARIANT@@PAPA_W@Z
	DD	FLAT:?get_accRole@CWnd@@UAEJUtagVARIANT@@PAU2@@Z
	DD	FLAT:?get_accState@CWnd@@UAEJUtagVARIANT@@PAU2@@Z
	DD	FLAT:?get_accHelp@CWnd@@UAEJUtagVARIANT@@PAPA_W@Z
	DD	FLAT:?get_accHelpTopic@CWnd@@UAEJPAPA_WUtagVARIANT@@PAJ@Z
	DD	FLAT:?get_accKeyboardShortcut@CWnd@@UAEJUtagVARIANT@@PAPA_W@Z
	DD	FLAT:?get_accFocus@CWnd@@UAEJPAUtagVARIANT@@@Z
	DD	FLAT:?get_accSelection@CWnd@@UAEJPAUtagVARIANT@@@Z
	DD	FLAT:?get_accDefaultAction@CWnd@@UAEJUtagVARIANT@@PAPA_W@Z
	DD	FLAT:?accSelect@CWnd@@UAEJJUtagVARIANT@@@Z
	DD	FLAT:?accLocation@CWnd@@UAEJPAJ000UtagVARIANT@@@Z
	DD	FLAT:?accNavigate@CWnd@@UAEJJUtagVARIANT@@PAU2@@Z
	DD	FLAT:?accHitTest@CWnd@@UAEJJJPAUtagVARIANT@@@Z
	DD	FLAT:?accDoDefaultAction@CWnd@@UAEJUtagVARIANT@@@Z
	DD	FLAT:?put_accName@CWnd@@UAEJUtagVARIANT@@PA_W@Z
	DD	FLAT:?put_accValue@CWnd@@UAEJUtagVARIANT@@PA_W@Z
	DD	FLAT:?SetProxy@CWnd@@UAEJPAUIAccessibleProxy@@@Z
	DD	FLAT:?CreateAccessibleProxy@CWnd@@UAEJIJPAJ@Z
	DD	FLAT:?OnCommand@CWnd@@MAEHIJ@Z
	DD	FLAT:?OnNotify@CWnd@@MAEHIJPAJ@Z
	DD	FLAT:?GetSuperWndProcAddr@CWnd@@MAEPAP6GJPAUHWND__@@IIJ@ZXZ
	DD	FLAT:?DoDataExchange@CWnd@@MAEXPAVCDataExchange@@@Z
	DD	FLAT:?BeginModalState@CWnd@@UAEXXZ
	DD	FLAT:?EndModalState@CWnd@@UAEXXZ
	DD	FLAT:?PreTranslateMessage@CWnd@@UAEHPAUtagMSG@@@Z
	DD	FLAT:?OnAmbientProperty@CWnd@@UAEHPAVCOleControlSite@@JPAUtagVARIANT@@@Z
	DD	FLAT:?WindowProc@CWnd@@MAEJIIJ@Z
	DD	FLAT:?OnWndMsg@CWnd@@MAEHIIJPAJ@Z
	DD	FLAT:?DefWindowProcA@CWnd@@MAEJIIJ@Z
	DD	FLAT:?PostNcDestroy@CWnd@@MAEXXZ
	DD	FLAT:?OnChildNotify@CWnd@@MAEHIIJPAJ@Z
	DD	FLAT:?CheckAutoCenter@CWnd@@UAEHXZ
	DD	FLAT:?IsFrameWnd@CWnd@@UBEHXZ
	DD	FLAT:?CreateControlContainer@CWnd@@MAEHPAPAVCOleControlContainer@@@Z
	DD	FLAT:?CreateControlSite@CWnd@@MAEHPAVCOleControlContainer@@PAPAVCOleControlSite@@IABU_GUID@@@Z
	DD	FLAT:?SetOccDialogInfo@CWnd@@MAEHPAU_AFX_OCC_DIALOG_INFO@@@Z
CONST	ENDS
;	COMDAT ??_R4CShockwaveFlash@@6B@
rdata$r	SEGMENT
??_R4CShockwaveFlash@@6B@ DD 00H			; CShockwaveFlash::`RTTI Complete Object Locator'
	DD	00H
	DD	00H
	DD	FLAT:??_R0?AVCShockwaveFlash@@@8
	DD	FLAT:??_R3CShockwaveFlash@@8
rdata$r	ENDS
;	COMDAT ??_R0?AVCShockwaveFlash@@@8
_DATA	SEGMENT
??_R0?AVCShockwaveFlash@@@8 DD FLAT:??_7type_info@@6B@	; CShockwaveFlash `RTTI Type Descriptor'
	DD	00H
	DB	'.?AVCShockwaveFlash@@', 00H
_DATA	ENDS
;	COMDAT ??_R3CShockwaveFlash@@8
rdata$r	SEGMENT
??_R3CShockwaveFlash@@8 DD 00H				; CShockwaveFlash::`RTTI Class Hierarchy Descriptor'
	DD	00H
	DD	04H
	DD	FLAT:??_R2CShockwaveFlash@@8
rdata$r	ENDS
;	COMDAT ??_R2CShockwaveFlash@@8
rdata$r	SEGMENT
??_R2CShockwaveFlash@@8 DD FLAT:??_R1A@?0A@A@CShockwaveFlash@@8 ; CShockwaveFlash::`RTTI Base Class Array'
	DD	FLAT:??_R1A@?0A@A@CWnd@@8
	DD	FLAT:??_R1A@?0A@A@CCmdTarget@@8
	DD	FLAT:??_R1A@?0A@A@CObject@@8
rdata$r	ENDS
;	COMDAT ??_R1A@?0A@A@CShockwaveFlash@@8
rdata$r	SEGMENT
??_R1A@?0A@A@CShockwaveFlash@@8 DD FLAT:??_R0?AVCShockwaveFlash@@@8 ; CShockwaveFlash::`RTTI Base Class Descriptor at (0,-1,0,0)'
	DD	03H
	DD	00H
	DD	0ffffffffH
	DD	00H
	DD	00H
; Function compile flags: /Odt
rdata$r	ENDS
;	COMDAT ??0CShockwaveFlash@@QAE@XZ
_TEXT	SEGMENT
_this$ = -4						; size = 4
??0CShockwaveFlash@@QAE@XZ PROC NEAR			; CShockwaveFlash::CShockwaveFlash, COMDAT
; _this$ = ecx
  00000	55		 push	 ebp
  00001	8b ec		 mov	 ebp, esp
  00003	51		 push	 ecx
  00004	89 4d fc	 mov	 DWORD PTR _this$[ebp], ecx
  00007	8b 4d fc	 mov	 ecx, DWORD PTR _this$[ebp]
  0000a	e8 00 00 00 00	 call	 ??0CWnd@@QAE@XZ		; CWnd::CWnd
  0000f	8b 45 fc	 mov	 eax, DWORD PTR _this$[ebp]
  00012	c7 00 00 00 00
	00		 mov	 DWORD PTR [eax], OFFSET FLAT:??_7CShockwaveFlash@@6B@
  00018	8b 45 fc	 mov	 eax, DWORD PTR _this$[ebp]
  0001b	8b e5		 mov	 esp, ebp
  0001d	5d		 pop	 ebp
  0001e	c3		 ret	 0
??0CShockwaveFlash@@QAE@XZ ENDP				; CShockwaveFlash::CShockwaveFlash
_TEXT	ENDS
PUBLIC	?GetClsid@CShockwaveFlash@@QAEABU_GUID@@XZ	; CShockwaveFlash::GetClsid
EXTRN	?CreateControl@CWnd@@QAEHABU_GUID@@PBDKABUtagRECT@@PAV1@IPAVCFile@@HPA_W@Z:NEAR ; CWnd::CreateControl
; Function compile flags: /Odt
; File d:\boxgit\playbox\playbox\dev\prj\playbox\src\gui\commoncontrol\shockwaveflash.h
;	COMDAT ?Create@CShockwaveFlash@@UAEHPBD0KABUtagRECT@@PAVCWnd@@IPAUCCreateContext@@@Z
_TEXT	SEGMENT
_this$ = -4						; size = 4
_lpszClassName$ = 8					; size = 4
_lpszWindowName$ = 12					; size = 4
_dwStyle$ = 16						; size = 4
_rect$ = 20						; size = 4
_pParentWnd$ = 24					; size = 4
_nID$ = 28						; size = 4
_pContext$ = 32						; size = 4
?Create@CShockwaveFlash@@UAEHPBD0KABUtagRECT@@PAVCWnd@@IPAUCCreateContext@@@Z PROC NEAR ; CShockwaveFlash::Create, COMDAT
; _this$ = ecx

; 33   : 	{ return CreateControl(GetClsid(), lpszWindowName, dwStyle, rect, pParentWnd, nID); }

  00000	55		 push	 ebp
  00001	8b ec		 mov	 ebp, esp
  00003	51		 push	 ecx
  00004	89 4d fc	 mov	 DWORD PTR _this$[ebp], ecx
  00007	6a 00		 push	 0
  00009	6a 00		 push	 0
  0000b	6a 00		 push	 0
  0000d	8b 45 1c	 mov	 eax, DWORD PTR _nID$[ebp]
  00010	50		 push	 eax
  00011	8b 4d 18	 mov	 ecx, DWORD PTR _pParentWnd$[ebp]
  00014	51		 push	 ecx
  00015	8b 55 14	 mov	 edx, DWORD PTR _rect$[ebp]
  00018	52		 push	 edx
  00019	8b 45 10	 mov	 eax, DWORD PTR _dwStyle$[ebp]
  0001c	50		 push	 eax
  0001d	8b 4d 0c	 mov	 ecx, DWORD PTR _lpszWindowName$[ebp]
  00020	51		 push	 ecx
  00021	8b 4d fc	 mov	 ecx, DWORD PTR _this$[ebp]
  00024	e8 00 00 00 00	 call	 ?GetClsid@CShockwaveFlash@@QAEABU_GUID@@XZ ; CShockwaveFlash::GetClsid
  00029	50		 push	 eax
  0002a	8b 4d fc	 mov	 ecx, DWORD PTR _this$[ebp]
  0002d	e8 00 00 00 00	 call	 ?CreateControl@CWnd@@QAEHABU_GUID@@PBDKABUtagRECT@@PAV1@IPAVCFile@@HPA_W@Z ; CWnd::CreateControl
  00032	8b e5		 mov	 esp, ebp
  00034	5d		 pop	 ebp
  00035	c2 1c 00	 ret	 28			; 0000001cH
?Create@CShockwaveFlash@@UAEHPBD0KABUtagRECT@@PAVCWnd@@IPAUCCreateContext@@@Z ENDP ; CShockwaveFlash::Create
_TEXT	ENDS
PUBLIC	?clsid@?1??GetClsid@CShockwaveFlash@@QAEABU_GUID@@XZ@4U3@B ; `CShockwaveFlash::GetClsid'::`2'::clsid
;	COMDAT ?clsid@?1??GetClsid@CShockwaveFlash@@QAEABU_GUID@@XZ@4U3@B
CONST	SEGMENT
?clsid@?1??GetClsid@CShockwaveFlash@@QAEABU_GUID@@XZ@4U3@B DD 0d27cdb6eH ; `CShockwaveFlash::GetClsid'::`2'::clsid
	DW	0ae6dH
	DW	011cfH
	DB	096H
	DB	0b8H
	DB	044H
	DB	045H
	DB	053H
	DB	054H
	DB	00H
	DB	00H
; Function compile flags: /Odt
CONST	ENDS
;	COMDAT ?GetClsid@CShockwaveFlash@@QAEABU_GUID@@XZ
_TEXT	SEGMENT
_this$ = -4						; size = 4
?GetClsid@CShockwaveFlash@@QAEABU_GUID@@XZ PROC NEAR	; CShockwaveFlash::GetClsid, COMDAT
; _this$ = ecx

; 23   : 	{

  00000	55		 push	 ebp
  00001	8b ec		 mov	 ebp, esp
  00003	51		 push	 ecx
  00004	89 4d fc	 mov	 DWORD PTR _this$[ebp], ecx

; 24   : 		static CLSID const clsid
; 25   : 			= { 0xd27cdb6e, 0xae6d, 0x11cf, { 0x96, 0xb8, 0x44, 0x45, 0x53, 0x54, 0x0, 0x0 } };
; 26   : 		return clsid;

  00007	b8 00 00 00 00	 mov	 eax, OFFSET FLAT:?clsid@?1??GetClsid@CShockwaveFlash@@QAEABU_GUID@@XZ@4U3@B ; `CShockwaveFlash::GetClsid'::`2'::clsid

; 27   : 	}

  0000c	8b e5		 mov	 esp, ebp
  0000e	5d		 pop	 ebp
  0000f	c3		 ret	 0
?GetClsid@CShockwaveFlash@@QAEABU_GUID@@XZ ENDP		; CShockwaveFlash::GetClsid
_TEXT	ENDS
PUBLIC	??1CShockwaveFlash@@UAE@XZ			; CShockwaveFlash::~CShockwaveFlash
; Function compile flags: /Odt
;	COMDAT ??_GCShockwaveFlash@@UAEPAXI@Z
_TEXT	SEGMENT
_this$ = -4						; size = 4
___flags$ = 8						; size = 4
??_GCShockwaveFlash@@UAEPAXI@Z PROC NEAR		; CShockwaveFlash::`scalar deleting destructor', COMDAT
; _this$ = ecx
  00000	55		 push	 ebp
  00001	8b ec		 mov	 ebp, esp
  00003	51		 push	 ecx
  00004	89 4d fc	 mov	 DWORD PTR _this$[ebp], ecx
  00007	8b 4d fc	 mov	 ecx, DWORD PTR _this$[ebp]
  0000a	e8 00 00 00 00	 call	 ??1CShockwaveFlash@@UAE@XZ
  0000f	8b 45 08	 mov	 eax, DWORD PTR ___flags$[ebp]
  00012	83 e0 01	 and	 eax, 1
  00015	74 09		 je	 SHORT $L197658
  00017	8b 4d fc	 mov	 ecx, DWORD PTR _this$[ebp]
  0001a	51		 push	 ecx
  0001b	e8 00 00 00 00	 call	 ??3CObject@@SGXPAX@Z	; CObject::operator delete
$L197658:
  00020	8b 45 fc	 mov	 eax, DWORD PTR _this$[ebp]
  00023	8b e5		 mov	 esp, ebp
  00025	5d		 pop	 ebp
  00026	c2 04 00	 ret	 4
??_GCShockwaveFlash@@UAEPAXI@Z ENDP			; CShockwaveFlash::`scalar deleting destructor'
; Function compile flags: /Odt
_TEXT	ENDS
;	COMDAT ??1CShockwaveFlash@@UAE@XZ
_TEXT	SEGMENT
_this$ = -4						; size = 4
??1CShockwaveFlash@@UAE@XZ PROC NEAR			; CShockwaveFlash::~CShockwaveFlash, COMDAT
; _this$ = ecx
  00000	55		 push	 ebp
  00001	8b ec		 mov	 ebp, esp
  00003	51		 push	 ecx
  00004	89 4d fc	 mov	 DWORD PTR _this$[ebp], ecx
  00007	8b 4d fc	 mov	 ecx, DWORD PTR _this$[ebp]
  0000a	e8 00 00 00 00	 call	 ??1CWnd@@UAE@XZ		; CWnd::~CWnd
  0000f	8b e5		 mov	 esp, ebp
  00011	5d		 pop	 ebp
  00012	c3		 ret	 0
??1CShockwaveFlash@@UAE@XZ ENDP				; CShockwaveFlash::~CShockwaveFlash
_TEXT	ENDS
xdata$x	SEGMENT
$T198285 DD	0ffffffffH
	DD	FLAT:$L198280
$T198283 DD	019930520H
	DD	01H
	DD	FLAT:$T198285
	DD	2 DUP(00H)
	DD	2 DUP(00H)
; Function compile flags: /Odt
; File d:\boxgit\playbox\playbox\dev\prj\playbox\src\gui\commoncontrol\flashloadingwnd.cpp
xdata$x	ENDS
_TEXT	SEGMENT
_this$ = -16						; size = 4
__$EHRec$ = -12						; size = 12
??1CFlashWnd@@UAE@XZ PROC NEAR				; CFlashWnd::~CFlashWnd
; _this$ = ecx

; 15   : {

  000c0	55		 push	 ebp
  000c1	8b ec		 mov	 ebp, esp
  000c3	6a ff		 push	 -1
  000c5	68 00 00 00 00	 push	 __ehhandler$??1CFlashWnd@@UAE@XZ
  000ca	64 a1 00 00 00
	00		 mov	 eax, DWORD PTR fs:__except_list
  000d0	50		 push	 eax
  000d1	64 89 25 00 00
	00 00		 mov	 DWORD PTR fs:__except_list, esp
  000d8	51		 push	 ecx
  000d9	89 4d f0	 mov	 DWORD PTR _this$[ebp], ecx
  000dc	8b 45 f0	 mov	 eax, DWORD PTR _this$[ebp]
  000df	c7 00 00 00 00
	00		 mov	 DWORD PTR [eax], OFFSET FLAT:??_7CFlashWnd@@6B@
  000e5	c7 45 fc 00 00
	00 00		 mov	 DWORD PTR __$EHRec$[ebp+8], 0

; 16   : }

  000ec	8b 4d f0	 mov	 ecx, DWORD PTR _this$[ebp]
  000ef	83 c1 68	 add	 ecx, 104		; 00000068H
  000f2	e8 00 00 00 00	 call	 ??1CShockwaveFlash@@UAE@XZ
  000f7	c7 45 fc ff ff
	ff ff		 mov	 DWORD PTR __$EHRec$[ebp+8], -1
  000fe	8b 4d f0	 mov	 ecx, DWORD PTR _this$[ebp]
  00101	e8 00 00 00 00	 call	 ??1CWnd@@UAE@XZ		; CWnd::~CWnd
  00106	8b 4d f4	 mov	 ecx, DWORD PTR __$EHRec$[ebp]
  00109	64 89 0d 00 00
	00 00		 mov	 DWORD PTR fs:__except_list, ecx
  00110	8b e5		 mov	 esp, ebp
  00112	5d		 pop	 ebp
  00113	c3		 ret	 0
_TEXT	ENDS
text$x	SEGMENT
$L198280:
  00012	8b 4d f0	 mov	 ecx, DWORD PTR _this$[ebp]
  00015	e9 00 00 00 00	 jmp	 ??1CWnd@@UAE@XZ		; CWnd::~CWnd
__ehhandler$??1CFlashWnd@@UAE@XZ:
  0001a	b8 00 00 00 00	 mov	 eax, OFFSET FLAT:$T198283
  0001f	e9 00 00 00 00	 jmp	 ___CxxFrameHandler
text$x	ENDS
??1CFlashWnd@@UAE@XZ ENDP				; CFlashWnd::~CFlashWnd
PUBLIC	?GetThisMessageMap@CFlashWnd@@KGPBUAFX_MSGMAP@@XZ ; CFlashWnd::GetThisMessageMap
; Function compile flags: /Odt
_TEXT	SEGMENT
?GetThisMessageMap@CFlashWnd@@KGPBUAFX_MSGMAP@@XZ PROC NEAR ; CFlashWnd::GetThisMessageMap

; 18   : BEGIN_MESSAGE_MAP(CFlashWnd, CWnd)

  00120	55		 push	 ebp
  00121	8b ec		 mov	 ebp, esp
  00123	b8 00 00 00 00	 mov	 eax, OFFSET FLAT:?messageMap@CFlashWnd@@1UAFX_MSGMAP@@B ; CFlashWnd::messageMap
  00128	5d		 pop	 ebp
  00129	c3		 ret	 0
?GetThisMessageMap@CFlashWnd@@KGPBUAFX_MSGMAP@@XZ ENDP	; CFlashWnd::GetThisMessageMap
; Function compile flags: /Odt
_this$ = -4						; size = 4
?GetMessageMap@CFlashWnd@@MBEPBUAFX_MSGMAP@@XZ PROC NEAR ; CFlashWnd::GetMessageMap
; _this$ = ecx

; 18   : BEGIN_MESSAGE_MAP(CFlashWnd, CWnd)

  00130	55		 push	 ebp
  00131	8b ec		 mov	 ebp, esp
  00133	51		 push	 ecx
  00134	89 4d fc	 mov	 DWORD PTR _this$[ebp], ecx
  00137	b8 00 00 00 00	 mov	 eax, OFFSET FLAT:?messageMap@CFlashWnd@@1UAFX_MSGMAP@@B ; CFlashWnd::messageMap
  0013c	8b e5		 mov	 esp, ebp
  0013e	5d		 pop	 ebp
  0013f	c3		 ret	 0
?GetMessageMap@CFlashWnd@@MBEPBUAFX_MSGMAP@@XZ ENDP	; CFlashWnd::GetMessageMap
_TEXT	ENDS
PUBLIC	?OnCreate@CWnd@@IAEHPAUtagCREATESTRUCTA@@@Z	; CWnd::OnCreate
PUBLIC	?Create@CShockwaveFlash@@QAEHPBDKABUtagRECT@@PAVCWnd@@IPAVCFile@@HPA_W@Z ; CShockwaveFlash::Create
PUBLIC	?Net_Loading@GlobalSwfPath@@SA?AV?$CStringT@DV?$StrTraitMFC_DLL@DV?$ChTraitsCRT@D@ATL@@@@@ATL@@XZ ; GlobalSwfPath::Net_Loading
EXTRN	?ShowWindow@CWnd@@QAEHH@Z:NEAR			; CWnd::ShowWindow
EXTRN	__imp_??B?$CSimpleStringT@D$00@ATL@@QBEPBDXZ:NEAR
EXTRN	__imp_??1?$CStringT@DV?$StrTraitMFC_DLL@DV?$ChTraitsCRT@D@ATL@@@@@ATL@@QAE@XZ:NEAR
EXTRN	?SetMovie@CShockwaveFlash@@QAEXPBD@Z:NEAR	; CShockwaveFlash::SetMovie
EXTRN	?SetBGColor@CShockwaveFlash@@QAEXPBD@Z:NEAR	; CShockwaveFlash::SetBGColor
xdata$x	SEGMENT
$T198295 DD	0ffffffffH
	DD	FLAT:$L198291
$T198293 DD	019930520H
	DD	01H
	DD	FLAT:$T198295
	DD	2 DUP(00H)
	DD	2 DUP(00H)
; Function compile flags: /Odt
xdata$x	ENDS
_TEXT	SEGMENT
tv133 = -44						; size = 4
tv134 = -40						; size = 4
_this$ = -36						; size = 4
$T198290 = -32						; size = 4
$T198289 = -28						; size = 16
__$EHRec$ = -12						; size = 12
_lpCreateStruct$ = 8					; size = 4
?OnCreate@CFlashWnd@@QAEHPAUtagCREATESTRUCTA@@@Z PROC NEAR ; CFlashWnd::OnCreate
; _this$ = ecx

; 26   : {

  00140	55		 push	 ebp
  00141	8b ec		 mov	 ebp, esp
  00143	6a ff		 push	 -1
  00145	68 00 00 00 00	 push	 __ehhandler$?OnCreate@CFlashWnd@@QAEHPAUtagCREATESTRUCTA@@@Z
  0014a	64 a1 00 00 00
	00		 mov	 eax, DWORD PTR fs:__except_list
  00150	50		 push	 eax
  00151	64 89 25 00 00
	00 00		 mov	 DWORD PTR fs:__except_list, esp
  00158	83 ec 20	 sub	 esp, 32			; 00000020H
  0015b	89 4d dc	 mov	 DWORD PTR _this$[ebp], ecx

; 27   : 	if( __super::OnCreate( lpCreateStruct) == -1 )

  0015e	8b 45 08	 mov	 eax, DWORD PTR _lpCreateStruct$[ebp]
  00161	50		 push	 eax
  00162	8b 4d dc	 mov	 ecx, DWORD PTR _this$[ebp]
  00165	e8 00 00 00 00	 call	 ?OnCreate@CWnd@@IAEHPAUtagCREATESTRUCTA@@@Z ; CWnd::OnCreate
  0016a	83 f8 ff	 cmp	 eax, -1
  0016d	75 08		 jne	 SHORT $L197690

; 28   : 	{
; 29   : 		return -1;

  0016f	83 c8 ff	 or	 eax, -1
  00172	e9 95 00 00 00	 jmp	 $L197689
$L197690:

; 30   : 	}
; 31   : 	m_flash.Create("WebInfo", WS_CHILD, CRect(0,0,0,0), this, 12456);

  00177	6a 00		 push	 0
  00179	6a 00		 push	 0
  0017b	6a 00		 push	 0
  0017d	68 a8 30 00 00	 push	 12456			; 000030a8H
  00182	8b 4d dc	 mov	 ecx, DWORD PTR _this$[ebp]
  00185	51		 push	 ecx
  00186	6a 00		 push	 0
  00188	6a 00		 push	 0
  0018a	6a 00		 push	 0
  0018c	6a 00		 push	 0
  0018e	8d 4d e4	 lea	 ecx, DWORD PTR $T198289[ebp]
  00191	e8 00 00 00 00	 call	 ??0CRect@@QAE@HHHH@Z	; CRect::CRect
  00196	50		 push	 eax
  00197	68 00 00 00 40	 push	 1073741824		; 40000000H
  0019c	68 00 00 00 00	 push	 OFFSET FLAT:$SG197692
  001a1	8b 4d dc	 mov	 ecx, DWORD PTR _this$[ebp]
  001a4	83 c1 68	 add	 ecx, 104		; 00000068H
  001a7	e8 00 00 00 00	 call	 ?Create@CShockwaveFlash@@QAEHPBDKABUtagRECT@@PAVCWnd@@IPAVCFile@@HPA_W@Z ; CShockwaveFlash::Create

; 32   : 	m_flash.ShowWindow(SW_SHOW);

  001ac	6a 05		 push	 5
  001ae	8b 4d dc	 mov	 ecx, DWORD PTR _this$[ebp]
  001b1	83 c1 68	 add	 ecx, 104		; 00000068H
  001b4	e8 00 00 00 00	 call	 ?ShowWindow@CWnd@@QAEHH@Z ; CWnd::ShowWindow

; 33   : 	m_flash.SetBGColor( 0 );

  001b9	6a 00		 push	 0
  001bb	8b 4d dc	 mov	 ecx, DWORD PTR _this$[ebp]
  001be	83 c1 68	 add	 ecx, 104		; 00000068H
  001c1	e8 00 00 00 00	 call	 ?SetBGColor@CShockwaveFlash@@QAEXPBD@Z ; CShockwaveFlash::SetBGColor

; 34   : 	m_flash.SetMovie(GlobalSwfPath::Net_Loading());

  001c6	8d 55 e0	 lea	 edx, DWORD PTR $T198290[ebp]
  001c9	52		 push	 edx
  001ca	e8 00 00 00 00	 call	 ?Net_Loading@GlobalSwfPath@@SA?AV?$CStringT@DV?$StrTraitMFC_DLL@DV?$ChTraitsCRT@D@ATL@@@@@ATL@@XZ ; GlobalSwfPath::Net_Loading
  001cf	83 c4 04	 add	 esp, 4
  001d2	89 45 d8	 mov	 DWORD PTR tv134[ebp], eax
  001d5	8b 45 d8	 mov	 eax, DWORD PTR tv134[ebp]
  001d8	89 45 d4	 mov	 DWORD PTR tv133[ebp], eax
  001db	c7 45 fc 00 00
	00 00		 mov	 DWORD PTR __$EHRec$[ebp+8], 0
  001e2	8b 4d d4	 mov	 ecx, DWORD PTR tv133[ebp]
  001e5	ff 15 00 00 00
	00		 call	 DWORD PTR __imp_??B?$CSimpleStringT@D$00@ATL@@QBEPBDXZ
  001eb	50		 push	 eax
  001ec	8b 4d dc	 mov	 ecx, DWORD PTR _this$[ebp]
  001ef	83 c1 68	 add	 ecx, 104		; 00000068H
  001f2	e8 00 00 00 00	 call	 ?SetMovie@CShockwaveFlash@@QAEXPBD@Z ; CShockwaveFlash::SetMovie
  001f7	c7 45 fc ff ff
	ff ff		 mov	 DWORD PTR __$EHRec$[ebp+8], -1
  001fe	8d 4d e0	 lea	 ecx, DWORD PTR $T198290[ebp]
  00201	ff 15 00 00 00
	00		 call	 DWORD PTR __imp_??1?$CStringT@DV?$StrTraitMFC_DLL@DV?$ChTraitsCRT@D@ATL@@@@@ATL@@QAE@XZ

; 35   : 	return 1;

  00207	b8 01 00 00 00	 mov	 eax, 1
$L197689:

; 36   : }

  0020c	8b 4d f4	 mov	 ecx, DWORD PTR __$EHRec$[ebp]
  0020f	64 89 0d 00 00
	00 00		 mov	 DWORD PTR fs:__except_list, ecx
  00216	8b e5		 mov	 esp, ebp
  00218	5d		 pop	 ebp
  00219	c2 04 00	 ret	 4
_TEXT	ENDS
text$x	SEGMENT
$L198291:
  00024	8d 4d e0	 lea	 ecx, DWORD PTR $T198290[ebp]
  00027	ff 25 00 00 00
	00		 jmp	 DWORD PTR __imp_??1?$CStringT@DV?$StrTraitMFC_DLL@DV?$ChTraitsCRT@D@ATL@@@@@ATL@@QAE@XZ
__ehhandler$?OnCreate@CFlashWnd@@QAEHPAUtagCREATESTRUCTA@@@Z:
  0002d	b8 00 00 00 00	 mov	 eax, OFFSET FLAT:$T198293
  00032	e9 00 00 00 00	 jmp	 ___CxxFrameHandler
text$x	ENDS
?OnCreate@CFlashWnd@@QAEHPAUtagCREATESTRUCTA@@@Z ENDP	; CFlashWnd::OnCreate
; Function compile flags: /Odt
; File d:\boxgit\playbox\playbox\dev\prj\playbox\src\gui\commoncontrol\shockwaveflash.h
;	COMDAT ?Create@CShockwaveFlash@@QAEHPBDKABUtagRECT@@PAVCWnd@@IPAVCFile@@HPA_W@Z
_TEXT	SEGMENT
_this$ = -4						; size = 4
_lpszWindowName$ = 8					; size = 4
_dwStyle$ = 12						; size = 4
_rect$ = 16						; size = 4
_pParentWnd$ = 20					; size = 4
_nID$ = 24						; size = 4
_pPersist$ = 28						; size = 4
_bStorage$ = 32						; size = 4
_bstrLicKey$ = 36					; size = 4
?Create@CShockwaveFlash@@QAEHPBDKABUtagRECT@@PAVCWnd@@IPAVCFile@@HPA_W@Z PROC NEAR ; CShockwaveFlash::Create, COMDAT
; _this$ = ecx

; 39   : 	{ return CreateControl(GetClsid(), lpszWindowName, dwStyle, rect, pParentWnd, nID,

  00000	55		 push	 ebp
  00001	8b ec		 mov	 ebp, esp
  00003	51		 push	 ecx
  00004	89 4d fc	 mov	 DWORD PTR _this$[ebp], ecx

; 40   : 		pPersist, bStorage, bstrLicKey); }

  00007	8b 45 24	 mov	 eax, DWORD PTR _bstrLicKey$[ebp]
  0000a	50		 push	 eax
  0000b	8b 4d 20	 mov	 ecx, DWORD PTR _bStorage$[ebp]
  0000e	51		 push	 ecx
  0000f	8b 55 1c	 mov	 edx, DWORD PTR _pPersist$[ebp]
  00012	52		 push	 edx
  00013	8b 45 18	 mov	 eax, DWORD PTR _nID$[ebp]
  00016	50		 push	 eax
  00017	8b 4d 14	 mov	 ecx, DWORD PTR _pParentWnd$[ebp]
  0001a	51		 push	 ecx
  0001b	8b 55 10	 mov	 edx, DWORD PTR _rect$[ebp]
  0001e	52		 push	 edx
  0001f	8b 45 0c	 mov	 eax, DWORD PTR _dwStyle$[ebp]
  00022	50		 push	 eax
  00023	8b 4d 08	 mov	 ecx, DWORD PTR _lpszWindowName$[ebp]
  00026	51		 push	 ecx
  00027	8b 4d fc	 mov	 ecx, DWORD PTR _this$[ebp]
  0002a	e8 00 00 00 00	 call	 ?GetClsid@CShockwaveFlash@@QAEABU_GUID@@XZ ; CShockwaveFlash::GetClsid
  0002f	50		 push	 eax
  00030	8b 4d fc	 mov	 ecx, DWORD PTR _this$[ebp]
  00033	e8 00 00 00 00	 call	 ?CreateControl@CWnd@@QAEHABU_GUID@@PBDKABUtagRECT@@PAV1@IPAVCFile@@HPA_W@Z ; CWnd::CreateControl
  00038	8b e5		 mov	 esp, ebp
  0003a	5d		 pop	 ebp
  0003b	c2 20 00	 ret	 32			; 00000020H
?Create@CShockwaveFlash@@QAEHPBDKABUtagRECT@@PAVCWnd@@IPAVCFile@@HPA_W@Z ENDP ; CShockwaveFlash::Create
_TEXT	ENDS
PUBLIC	??HATL@@YA?AV?$CStringT@DV?$StrTraitMFC_DLL@DV?$ChTraitsCRT@D@ATL@@@@@0@ABV10@PBD@Z ; ATL::operator+
PUBLIC	?GetSwfPath@GlobalSwfPath@@SA?AV?$CStringT@DV?$StrTraitMFC_DLL@DV?$ChTraitsCRT@D@ATL@@@@@ATL@@XZ ; GlobalSwfPath::GetSwfPath
PUBLIC	??_C@_0M@DBEKFKCI@loading?4swf?$AA@		; `string'
;	COMDAT xdata$x
; File d:\boxgit\playbox\playbox\dev\prj\playbox\src\global\globalswfpath.h
xdata$x	SEGMENT
$T198307 DD	0ffffffffH
	DD	FLAT:$L198300
$T198305 DD	019930520H
	DD	01H
	DD	FLAT:$T198307
	DD	2 DUP(00H)
	DD	2 DUP(00H)
xdata$x	ENDS
;	COMDAT ??_C@_0M@DBEKFKCI@loading?4swf?$AA@
CONST	SEGMENT
??_C@_0M@DBEKFKCI@loading?4swf?$AA@ DB 'loading.swf', 00H ; `string'
; Function compile flags: /Odt
CONST	ENDS
;	COMDAT ?Net_Loading@GlobalSwfPath@@SA?AV?$CStringT@DV?$StrTraitMFC_DLL@DV?$ChTraitsCRT@D@ATL@@@@@ATL@@XZ
_TEXT	SEGMENT
tv74 = -28						; size = 4
tv64 = -24						; size = 4
$T198302 = -20						; size = 4
$T198299 = -16						; size = 4
__$EHRec$ = -12						; size = 12
___$ReturnUdt$ = 8					; size = 4
?Net_Loading@GlobalSwfPath@@SA?AV?$CStringT@DV?$StrTraitMFC_DLL@DV?$ChTraitsCRT@D@ATL@@@@@ATL@@XZ PROC NEAR ; GlobalSwfPath::Net_Loading, COMDAT

; 15   : 	{

  00000	55		 push	 ebp
  00001	8b ec		 mov	 ebp, esp
  00003	6a ff		 push	 -1
  00005	68 00 00 00 00	 push	 __ehhandler$?Net_Loading@GlobalSwfPath@@SA?AV?$CStringT@DV?$StrTraitMFC_DLL@DV?$ChTraitsCRT@D@ATL@@@@@ATL@@XZ
  0000a	64 a1 00 00 00
	00		 mov	 eax, DWORD PTR fs:__except_list
  00010	50		 push	 eax
  00011	64 89 25 00 00
	00 00		 mov	 DWORD PTR fs:__except_list, esp
  00018	83 ec 10	 sub	 esp, 16			; 00000010H
  0001b	c7 45 ec 00 00
	00 00		 mov	 DWORD PTR $T198302[ebp], 0

; 16   : 		return GetSwfPath() + "loading.swf";

  00022	8d 45 f0	 lea	 eax, DWORD PTR $T198299[ebp]
  00025	50		 push	 eax
  00026	e8 00 00 00 00	 call	 ?GetSwfPath@GlobalSwfPath@@SA?AV?$CStringT@DV?$StrTraitMFC_DLL@DV?$ChTraitsCRT@D@ATL@@@@@ATL@@XZ ; GlobalSwfPath::GetSwfPath
  0002b	83 c4 04	 add	 esp, 4
  0002e	89 45 e8	 mov	 DWORD PTR tv64[ebp], eax
  00031	8b 4d e8	 mov	 ecx, DWORD PTR tv64[ebp]
  00034	89 4d e4	 mov	 DWORD PTR tv74[ebp], ecx
  00037	c7 45 fc 00 00
	00 00		 mov	 DWORD PTR __$EHRec$[ebp+8], 0
  0003e	68 00 00 00 00	 push	 OFFSET FLAT:??_C@_0M@DBEKFKCI@loading?4swf?$AA@
  00043	8b 55 e4	 mov	 edx, DWORD PTR tv74[ebp]
  00046	52		 push	 edx
  00047	8b 45 08	 mov	 eax, DWORD PTR ___$ReturnUdt$[ebp]
  0004a	50		 push	 eax
  0004b	e8 00 00 00 00	 call	 ??HATL@@YA?AV?$CStringT@DV?$StrTraitMFC_DLL@DV?$ChTraitsCRT@D@ATL@@@@@0@ABV10@PBD@Z ; ATL::operator+
  00050	83 c4 0c	 add	 esp, 12			; 0000000cH
  00053	8b 4d ec	 mov	 ecx, DWORD PTR $T198302[ebp]
  00056	83 c9 01	 or	 ecx, 1
  00059	89 4d ec	 mov	 DWORD PTR $T198302[ebp], ecx
  0005c	c7 45 fc ff ff
	ff ff		 mov	 DWORD PTR __$EHRec$[ebp+8], -1
  00063	8d 4d f0	 lea	 ecx, DWORD PTR $T198299[ebp]
  00066	ff 15 00 00 00
	00		 call	 DWORD PTR __imp_??1?$CStringT@DV?$StrTraitMFC_DLL@DV?$ChTraitsCRT@D@ATL@@@@@ATL@@QAE@XZ
  0006c	8b 45 08	 mov	 eax, DWORD PTR ___$ReturnUdt$[ebp]

; 17   : 	}

  0006f	8b 4d f4	 mov	 ecx, DWORD PTR __$EHRec$[ebp]
  00072	64 89 0d 00 00
	00 00		 mov	 DWORD PTR fs:__except_list, ecx
  00079	8b e5		 mov	 esp, ebp
  0007b	5d		 pop	 ebp
  0007c	c3		 ret	 0
_TEXT	ENDS
;	COMDAT text$x
text$x	SEGMENT
$L198300:
  00000	8d 4d f0	 lea	 ecx, DWORD PTR $T198299[ebp]
  00003	ff 25 00 00 00
	00		 jmp	 DWORD PTR __imp_??1?$CStringT@DV?$StrTraitMFC_DLL@DV?$ChTraitsCRT@D@ATL@@@@@ATL@@QAE@XZ
__ehhandler$?Net_Loading@GlobalSwfPath@@SA?AV?$CStringT@DV?$StrTraitMFC_DLL@DV?$ChTraitsCRT@D@ATL@@@@@ATL@@XZ:
  00009	b8 00 00 00 00	 mov	 eax, OFFSET FLAT:$T198305
  0000e	e9 00 00 00 00	 jmp	 ___CxxFrameHandler
text$x	ENDS
?Net_Loading@GlobalSwfPath@@SA?AV?$CStringT@DV?$StrTraitMFC_DLL@DV?$ChTraitsCRT@D@ATL@@@@@ATL@@XZ ENDP ; GlobalSwfPath::Net_Loading
PUBLIC	??_C@_00CNPNBAHC@?$AA@				; `string'
PUBLIC	??_C@_0BH@PCLJNBEP@?2Resources?2StandardUI?2?$AA@ ; `string'
EXTRN	__imp_??0?$CStringT@DV?$StrTraitMFC_DLL@DV?$ChTraitsCRT@D@ATL@@@@@ATL@@QAE@PBD@Z:NEAR
EXTRN	___security_cookie:DWORD
EXTRN	@__security_check_cookie@4:NEAR
EXTRN	?GetHomePath@CLhcImg@@SA_NQADH@Z:NEAR		; CLhcImg::GetHomePath
;	COMDAT xdata$x
xdata$x	SEGMENT
$T198324 DD	0ffffffffH
	DD	FLAT:$L198314
$T198319 DD	019930520H
	DD	01H
	DD	FLAT:$T198324
	DD	2 DUP(00H)
	DD	2 DUP(00H)
xdata$x	ENDS
;	COMDAT ??_C@_0BH@PCLJNBEP@?2Resources?2StandardUI?2?$AA@
CONST	SEGMENT
??_C@_0BH@PCLJNBEP@?2Resources?2StandardUI?2?$AA@ DB '\Resources\Standard'
	DB	'UI\', 00H					; `string'
CONST	ENDS
;	COMDAT ??_C@_00CNPNBAHC@?$AA@
CONST	SEGMENT
??_C@_00CNPNBAHC@?$AA@ DB 00H				; `string'
; Function compile flags: /Odt
CONST	ENDS
;	COMDAT ?GetSwfPath@GlobalSwfPath@@SA?AV?$CStringT@DV?$StrTraitMFC_DLL@DV?$ChTraitsCRT@D@ATL@@@@@ATL@@XZ
_TEXT	SEGMENT
tv84 = -548						; size = 4
tv80 = -544						; size = 4
$T198316 = -540						; size = 4
$T198313 = -536						; size = 4
_szBuffer$ = -532					; size = 512
__$ArrayPad$ = -16					; size = 4
__$EHRec$ = -12						; size = 12
__$ReturnAddr$ = 4					; size = 4
___$ReturnUdt$ = 8					; size = 4
?GetSwfPath@GlobalSwfPath@@SA?AV?$CStringT@DV?$StrTraitMFC_DLL@DV?$ChTraitsCRT@D@ATL@@@@@ATL@@XZ PROC NEAR ; GlobalSwfPath::GetSwfPath, COMDAT

; 20   : 	{

  00000	55		 push	 ebp
  00001	8b ec		 mov	 ebp, esp
  00003	6a ff		 push	 -1
  00005	68 00 00 00 00	 push	 __ehhandler$?GetSwfPath@GlobalSwfPath@@SA?AV?$CStringT@DV?$StrTraitMFC_DLL@DV?$ChTraitsCRT@D@ATL@@@@@ATL@@XZ
  0000a	64 a1 00 00 00
	00		 mov	 eax, DWORD PTR fs:__except_list
  00010	50		 push	 eax
  00011	64 89 25 00 00
	00 00		 mov	 DWORD PTR fs:__except_list, esp
  00018	81 ec 18 02 00
	00		 sub	 esp, 536		; 00000218H
  0001e	a1 00 00 00 00	 mov	 eax, DWORD PTR ___security_cookie
  00023	89 45 f0	 mov	 DWORD PTR __$ArrayPad$[ebp], eax
  00026	c7 85 e4 fd ff
	ff 00 00 00 00	 mov	 DWORD PTR $T198316[ebp], 0

; 21   : 		char szBuffer[512];
; 22   : 		if( CLhcImg::GetHomePath( szBuffer,512) )

  00030	68 00 02 00 00	 push	 512			; 00000200H
  00035	8d 85 ec fd ff
	ff		 lea	 eax, DWORD PTR _szBuffer$[ebp]
  0003b	50		 push	 eax
  0003c	e8 00 00 00 00	 call	 ?GetHomePath@CLhcImg@@SA_NQADH@Z ; CLhcImg::GetHomePath
  00041	83 c4 08	 add	 esp, 8
  00044	0f b6 c8	 movzx	 ecx, al
  00047	85 c9		 test	 ecx, ecx
  00049	74 6b		 je	 SHORT $L197623

; 23   : 		{
; 24   : 			return CString( szBuffer ) + "\\Resources\\StandardUI\\";

  0004b	8d 95 ec fd ff
	ff		 lea	 edx, DWORD PTR _szBuffer$[ebp]
  00051	52		 push	 edx
  00052	8d 8d e8 fd ff
	ff		 lea	 ecx, DWORD PTR $T198313[ebp]
  00058	ff 15 00 00 00
	00		 call	 DWORD PTR __imp_??0?$CStringT@DV?$StrTraitMFC_DLL@DV?$ChTraitsCRT@D@ATL@@@@@ATL@@QAE@PBD@Z
  0005e	89 85 e0 fd ff
	ff		 mov	 DWORD PTR tv80[ebp], eax
  00064	8b 85 e0 fd ff
	ff		 mov	 eax, DWORD PTR tv80[ebp]
  0006a	89 85 dc fd ff
	ff		 mov	 DWORD PTR tv84[ebp], eax
  00070	c7 45 fc 00 00
	00 00		 mov	 DWORD PTR __$EHRec$[ebp+8], 0
  00077	68 00 00 00 00	 push	 OFFSET FLAT:??_C@_0BH@PCLJNBEP@?2Resources?2StandardUI?2?$AA@
  0007c	8b 8d dc fd ff
	ff		 mov	 ecx, DWORD PTR tv84[ebp]
  00082	51		 push	 ecx
  00083	8b 55 08	 mov	 edx, DWORD PTR ___$ReturnUdt$[ebp]
  00086	52		 push	 edx
  00087	e8 00 00 00 00	 call	 ??HATL@@YA?AV?$CStringT@DV?$StrTraitMFC_DLL@DV?$ChTraitsCRT@D@ATL@@@@@0@ABV10@PBD@Z ; ATL::operator+
  0008c	83 c4 0c	 add	 esp, 12			; 0000000cH
  0008f	8b 85 e4 fd ff
	ff		 mov	 eax, DWORD PTR $T198316[ebp]
  00095	83 c8 01	 or	 eax, 1
  00098	89 85 e4 fd ff
	ff		 mov	 DWORD PTR $T198316[ebp], eax
  0009e	c7 45 fc ff ff
	ff ff		 mov	 DWORD PTR __$EHRec$[ebp+8], -1
  000a5	8d 8d e8 fd ff
	ff		 lea	 ecx, DWORD PTR $T198313[ebp]
  000ab	ff 15 00 00 00
	00		 call	 DWORD PTR __imp_??1?$CStringT@DV?$StrTraitMFC_DLL@DV?$ChTraitsCRT@D@ATL@@@@@ATL@@QAE@XZ
  000b1	8b 45 08	 mov	 eax, DWORD PTR ___$ReturnUdt$[ebp]
  000b4	eb 20		 jmp	 SHORT $L197621
$L197623:

; 25   : 		}else
; 26   : 		{
; 27   : 			return "";

  000b6	68 00 00 00 00	 push	 OFFSET FLAT:??_C@_00CNPNBAHC@?$AA@
  000bb	8b 4d 08	 mov	 ecx, DWORD PTR ___$ReturnUdt$[ebp]
  000be	ff 15 00 00 00
	00		 call	 DWORD PTR __imp_??0?$CStringT@DV?$StrTraitMFC_DLL@DV?$ChTraitsCRT@D@ATL@@@@@ATL@@QAE@PBD@Z
  000c4	8b 8d e4 fd ff
	ff		 mov	 ecx, DWORD PTR $T198316[ebp]
  000ca	83 c9 01	 or	 ecx, 1
  000cd	89 8d e4 fd ff
	ff		 mov	 DWORD PTR $T198316[ebp], ecx
  000d3	8b 45 08	 mov	 eax, DWORD PTR ___$ReturnUdt$[ebp]
$L197621:

; 28   : 		}
; 29   : 	}

  000d6	8b 4d f4	 mov	 ecx, DWORD PTR __$EHRec$[ebp]
  000d9	64 89 0d 00 00
	00 00		 mov	 DWORD PTR fs:__except_list, ecx
  000e0	8b 4d f0	 mov	 ecx, DWORD PTR __$ArrayPad$[ebp]
  000e3	e8 00 00 00 00	 call	 @__security_check_cookie@4
  000e8	8b e5		 mov	 esp, ebp
  000ea	5d		 pop	 ebp
  000eb	c3		 ret	 0
_TEXT	ENDS
;	COMDAT text$x
text$x	SEGMENT
$L198314:
  00000	8d 8d e8 fd ff
	ff		 lea	 ecx, DWORD PTR $T198313[ebp]
  00006	ff 25 00 00 00
	00		 jmp	 DWORD PTR __imp_??1?$CStringT@DV?$StrTraitMFC_DLL@DV?$ChTraitsCRT@D@ATL@@@@@ATL@@QAE@XZ
__ehhandler$?GetSwfPath@GlobalSwfPath@@SA?AV?$CStringT@DV?$StrTraitMFC_DLL@DV?$ChTraitsCRT@D@ATL@@@@@ATL@@XZ:
  0000c	b8 00 00 00 00	 mov	 eax, OFFSET FLAT:$T198319
  00011	e9 00 00 00 00	 jmp	 ___CxxFrameHandler
text$x	ENDS
?GetSwfPath@GlobalSwfPath@@SA?AV?$CStringT@DV?$StrTraitMFC_DLL@DV?$ChTraitsCRT@D@ATL@@@@@ATL@@XZ ENDP ; GlobalSwfPath::GetSwfPath
PUBLIC	?GetClientRect@CWnd@@QBEXPAUtagRECT@@@Z		; CWnd::GetClientRect
PUBLIC	??BCRect@@QAEPAUtagRECT@@XZ			; CRect::operator tagRECT *
PUBLIC	?FillRect@CDC@@QAEXPBUtagRECT@@PAVCBrush@@@Z	; CDC::FillRect
PUBLIC	??1CBrush@@UAE@XZ				; CBrush::~CBrush
EXTRN	?SelectObject@CDC@@QAEPAVCBrush@@PAV2@@Z:NEAR	; CDC::SelectObject
EXTRN	?OnPaint@CWnd@@IAEXXZ:NEAR			; CWnd::OnPaint
EXTRN	??0CBrush@@QAE@K@Z:NEAR				; CBrush::CBrush
EXTRN	??0CPaintDC@@QAE@PAVCWnd@@@Z:NEAR		; CPaintDC::CPaintDC
EXTRN	??1CPaintDC@@UAE@XZ:NEAR			; CPaintDC::~CPaintDC
xdata$x	SEGMENT
$T198336 DD	0ffffffffH
	DD	FLAT:$L198330
	DD	00H
	DD	FLAT:$L198331
$T198333 DD	019930520H
	DD	02H
	DD	FLAT:$T198336
	DD	2 DUP(00H)
	DD	2 DUP(00H)
; Function compile flags: /Odt
; File d:\boxgit\playbox\playbox\dev\prj\playbox\src\gui\commoncontrol\flashloadingwnd.cpp
xdata$x	ENDS
_TEXT	SEGMENT
_this$ = -140						; size = 4
_pOldBrush$ = -136					; size = 4
_brush$ = -132						; size = 8
_dc$ = -124						; size = 84
__$ArrayPad$ = -32					; size = 4
_rect$ = -28						; size = 16
__$EHRec$ = -12						; size = 12
__$ReturnAddr$ = 4					; size = 4
?OnPaint@CFlashWnd@@QAEXXZ PROC NEAR			; CFlashWnd::OnPaint
; _this$ = ecx

; 39   : {

  00220	55		 push	 ebp
  00221	8b ec		 mov	 ebp, esp
  00223	6a ff		 push	 -1
  00225	68 00 00 00 00	 push	 __ehhandler$?OnPaint@CFlashWnd@@QAEXXZ
  0022a	64 a1 00 00 00
	00		 mov	 eax, DWORD PTR fs:__except_list
  00230	50		 push	 eax
  00231	64 89 25 00 00
	00 00		 mov	 DWORD PTR fs:__except_list, esp
  00238	81 ec 80 00 00
	00		 sub	 esp, 128		; 00000080H
  0023e	a1 00 00 00 00	 mov	 eax, DWORD PTR ___security_cookie
  00243	89 45 e0	 mov	 DWORD PTR __$ArrayPad$[ebp], eax
  00246	89 8d 74 ff ff
	ff		 mov	 DWORD PTR _this$[ebp], ecx

; 40   : 	CPaintDC dc(this); // device context for painting

  0024c	8b 85 74 ff ff
	ff		 mov	 eax, DWORD PTR _this$[ebp]
  00252	50		 push	 eax
  00253	8d 4d 84	 lea	 ecx, DWORD PTR _dc$[ebp]
  00256	e8 00 00 00 00	 call	 ??0CPaintDC@@QAE@PAVCWnd@@@Z ; CPaintDC::CPaintDC
  0025b	c7 45 fc 00 00
	00 00		 mov	 DWORD PTR __$EHRec$[ebp+8], 0

; 41   : 	CRect rect;

  00262	8d 4d e4	 lea	 ecx, DWORD PTR _rect$[ebp]
  00265	e8 00 00 00 00	 call	 ??0CRect@@QAE@XZ	; CRect::CRect

; 42   : 	GetClientRect(rect);	

  0026a	8d 4d e4	 lea	 ecx, DWORD PTR _rect$[ebp]
  0026d	e8 00 00 00 00	 call	 ??BCRect@@QAEPAUtagRECT@@XZ ; CRect::operator tagRECT *
  00272	50		 push	 eax
  00273	8b 8d 74 ff ff
	ff		 mov	 ecx, DWORD PTR _this$[ebp]
  00279	e8 00 00 00 00	 call	 ?GetClientRect@CWnd@@QBEXPAUtagRECT@@@Z ; CWnd::GetClientRect

; 43   : 	CBrush brush( m_colBk );

  0027e	8b 8d 74 ff ff
	ff		 mov	 ecx, DWORD PTR _this$[ebp]
  00284	8b 51 54	 mov	 edx, DWORD PTR [ecx+84]
  00287	52		 push	 edx
  00288	8d 8d 7c ff ff
	ff		 lea	 ecx, DWORD PTR _brush$[ebp]
  0028e	e8 00 00 00 00	 call	 ??0CBrush@@QAE@K@Z	; CBrush::CBrush
  00293	c6 45 fc 01	 mov	 BYTE PTR __$EHRec$[ebp+8], 1

; 44   : 	CBrush* pOldBrush = dc.SelectObject(&brush);

  00297	8d 85 7c ff ff
	ff		 lea	 eax, DWORD PTR _brush$[ebp]
  0029d	50		 push	 eax
  0029e	8d 4d 84	 lea	 ecx, DWORD PTR _dc$[ebp]
  002a1	e8 00 00 00 00	 call	 ?SelectObject@CDC@@QAEPAVCBrush@@PAV2@@Z ; CDC::SelectObject
  002a6	89 85 78 ff ff
	ff		 mov	 DWORD PTR _pOldBrush$[ebp], eax

; 45   : 	dc.FillRect(rect,&brush);

  002ac	8d 8d 7c ff ff
	ff		 lea	 ecx, DWORD PTR _brush$[ebp]
  002b2	51		 push	 ecx
  002b3	8d 4d e4	 lea	 ecx, DWORD PTR _rect$[ebp]
  002b6	e8 00 00 00 00	 call	 ??BCRect@@QAEPAUtagRECT@@XZ ; CRect::operator tagRECT *
  002bb	50		 push	 eax
  002bc	8d 4d 84	 lea	 ecx, DWORD PTR _dc$[ebp]
  002bf	e8 00 00 00 00	 call	 ?FillRect@CDC@@QAEXPBUtagRECT@@PAVCBrush@@@Z ; CDC::FillRect

; 46   : 	dc.SelectObject(pOldBrush);

  002c4	8b 95 78 ff ff
	ff		 mov	 edx, DWORD PTR _pOldBrush$[ebp]
  002ca	52		 push	 edx
  002cb	8d 4d 84	 lea	 ecx, DWORD PTR _dc$[ebp]
  002ce	e8 00 00 00 00	 call	 ?SelectObject@CDC@@QAEPAVCBrush@@PAV2@@Z ; CDC::SelectObject

; 47   : 	__super::OnPaint();

  002d3	8b 8d 74 ff ff
	ff		 mov	 ecx, DWORD PTR _this$[ebp]
  002d9	e8 00 00 00 00	 call	 ?OnPaint@CWnd@@IAEXXZ	; CWnd::OnPaint

; 48   : }

  002de	c6 45 fc 00	 mov	 BYTE PTR __$EHRec$[ebp+8], 0
  002e2	8d 8d 7c ff ff
	ff		 lea	 ecx, DWORD PTR _brush$[ebp]
  002e8	e8 00 00 00 00	 call	 ??1CBrush@@UAE@XZ	; CBrush::~CBrush
  002ed	c7 45 fc ff ff
	ff ff		 mov	 DWORD PTR __$EHRec$[ebp+8], -1
  002f4	8d 4d 84	 lea	 ecx, DWORD PTR _dc$[ebp]
  002f7	e8 00 00 00 00	 call	 ??1CPaintDC@@UAE@XZ	; CPaintDC::~CPaintDC
  002fc	8b 4d f4	 mov	 ecx, DWORD PTR __$EHRec$[ebp]
  002ff	64 89 0d 00 00
	00 00		 mov	 DWORD PTR fs:__except_list, ecx
  00306	8b 4d e0	 mov	 ecx, DWORD PTR __$ArrayPad$[ebp]
  00309	e8 00 00 00 00	 call	 @__security_check_cookie@4
  0030e	8b e5		 mov	 esp, ebp
  00310	5d		 pop	 ebp
  00311	c3		 ret	 0
_TEXT	ENDS
text$x	SEGMENT
$L198330:
  00037	8d 4d 84	 lea	 ecx, DWORD PTR _dc$[ebp]
  0003a	e9 00 00 00 00	 jmp	 ??1CPaintDC@@UAE@XZ	; CPaintDC::~CPaintDC
$L198331:
  0003f	8d 8d 7c ff ff
	ff		 lea	 ecx, DWORD PTR _brush$[ebp]
  00045	e9 00 00 00 00	 jmp	 ??1CBrush@@UAE@XZ	; CBrush::~CBrush
__ehhandler$?OnPaint@CFlashWnd@@QAEXXZ:
  0004a	b8 00 00 00 00	 mov	 eax, OFFSET FLAT:$T198333
  0004f	e9 00 00 00 00	 jmp	 ___CxxFrameHandler
text$x	ENDS
?OnPaint@CFlashWnd@@QAEXXZ ENDP				; CFlashWnd::OnPaint
; Function compile flags: /Odt
_TEXT	SEGMENT
_this$ = -4						; size = 4
_pDC$ = 8						; size = 4
?OnEraseBkgnd@CFlashWnd@@IAEHPAVCDC@@@Z PROC NEAR	; CFlashWnd::OnEraseBkgnd
; _this$ = ecx

; 51   : {

  00320	55		 push	 ebp
  00321	8b ec		 mov	 ebp, esp
  00323	51		 push	 ecx
  00324	89 4d fc	 mov	 DWORD PTR _this$[ebp], ecx

; 52   : 	return TRUE;

  00327	b8 01 00 00 00	 mov	 eax, 1

; 53   : }

  0032c	8b e5		 mov	 esp, ebp
  0032e	5d		 pop	 ebp
  0032f	c2 04 00	 ret	 4
?OnEraseBkgnd@CFlashWnd@@IAEHPAVCDC@@@Z ENDP		; CFlashWnd::OnEraseBkgnd
_TEXT	ENDS
PUBLIC	?Width@CRect@@QBEHXZ				; CRect::Width
PUBLIC	?Height@CRect@@QBEHXZ				; CRect::Height
PUBLIC	?OnSize@CWnd@@IAEXIHH@Z				; CWnd::OnSize
EXTRN	?MoveWindow@CWnd@@QAEXHHHHH@Z:NEAR		; CWnd::MoveWindow
; Function compile flags: /Odt
_TEXT	SEGMENT
_this$ = -12						; size = 4
_iy$ = -8						; size = 4
_ix$ = -4						; size = 4
_nType$ = 8						; size = 4
_cx$ = 12						; size = 4
_cy$ = 16						; size = 4
?OnSize@CFlashWnd@@QAEXIHH@Z PROC NEAR			; CFlashWnd::OnSize
; _this$ = ecx

; 56   : {	

  00340	55		 push	 ebp
  00341	8b ec		 mov	 ebp, esp
  00343	83 ec 0c	 sub	 esp, 12			; 0000000cH
  00346	56		 push	 esi
  00347	89 4d f4	 mov	 DWORD PTR _this$[ebp], ecx

; 57   : 	int ix = cx/2-m_rcFlash.Width()/2;

  0034a	8b 45 0c	 mov	 eax, DWORD PTR _cx$[ebp]
  0034d	99		 cdq
  0034e	2b c2		 sub	 eax, edx
  00350	8b f0		 mov	 esi, eax
  00352	d1 fe		 sar	 esi, 1
  00354	8b 4d f4	 mov	 ecx, DWORD PTR _this$[ebp]
  00357	83 c1 58	 add	 ecx, 88			; 00000058H
  0035a	e8 00 00 00 00	 call	 ?Width@CRect@@QBEHXZ	; CRect::Width
  0035f	99		 cdq
  00360	2b c2		 sub	 eax, edx
  00362	d1 f8		 sar	 eax, 1
  00364	2b f0		 sub	 esi, eax
  00366	89 75 fc	 mov	 DWORD PTR _ix$[ebp], esi

; 58   : 	int iy = cy/2-m_rcFlash.Height()/2;

  00369	8b 45 10	 mov	 eax, DWORD PTR _cy$[ebp]
  0036c	99		 cdq
  0036d	2b c2		 sub	 eax, edx
  0036f	8b f0		 mov	 esi, eax
  00371	d1 fe		 sar	 esi, 1
  00373	8b 4d f4	 mov	 ecx, DWORD PTR _this$[ebp]
  00376	83 c1 58	 add	 ecx, 88			; 00000058H
  00379	e8 00 00 00 00	 call	 ?Height@CRect@@QBEHXZ	; CRect::Height
  0037e	99		 cdq
  0037f	2b c2		 sub	 eax, edx
  00381	d1 f8		 sar	 eax, 1
  00383	2b f0		 sub	 esi, eax
  00385	89 75 f8	 mov	 DWORD PTR _iy$[ebp], esi

; 59   : 
; 60   : 	m_flash.MoveWindow( ix, iy, m_rcFlash.Width(), m_rcFlash.Height());

  00388	6a 01		 push	 1
  0038a	8b 4d f4	 mov	 ecx, DWORD PTR _this$[ebp]
  0038d	83 c1 58	 add	 ecx, 88			; 00000058H
  00390	e8 00 00 00 00	 call	 ?Height@CRect@@QBEHXZ	; CRect::Height
  00395	50		 push	 eax
  00396	8b 4d f4	 mov	 ecx, DWORD PTR _this$[ebp]
  00399	83 c1 58	 add	 ecx, 88			; 00000058H
  0039c	e8 00 00 00 00	 call	 ?Width@CRect@@QBEHXZ	; CRect::Width
  003a1	50		 push	 eax
  003a2	8b 45 f8	 mov	 eax, DWORD PTR _iy$[ebp]
  003a5	50		 push	 eax
  003a6	8b 4d fc	 mov	 ecx, DWORD PTR _ix$[ebp]
  003a9	51		 push	 ecx
  003aa	8b 4d f4	 mov	 ecx, DWORD PTR _this$[ebp]
  003ad	83 c1 68	 add	 ecx, 104		; 00000068H
  003b0	e8 00 00 00 00	 call	 ?MoveWindow@CWnd@@QAEXHHHHH@Z ; CWnd::MoveWindow

; 61   : 	__super::OnSize(nType,cx,cy);

  003b5	8b 55 10	 mov	 edx, DWORD PTR _cy$[ebp]
  003b8	52		 push	 edx
  003b9	8b 45 0c	 mov	 eax, DWORD PTR _cx$[ebp]
  003bc	50		 push	 eax
  003bd	8b 4d 08	 mov	 ecx, DWORD PTR _nType$[ebp]
  003c0	51		 push	 ecx
  003c1	8b 4d f4	 mov	 ecx, DWORD PTR _this$[ebp]
  003c4	e8 00 00 00 00	 call	 ?OnSize@CWnd@@IAEXIHH@Z	; CWnd::OnSize

; 62   : }

  003c9	5e		 pop	 esi
  003ca	8b e5		 mov	 esp, ebp
  003cc	5d		 pop	 ebp
  003cd	c2 0c 00	 ret	 12			; 0000000cH
?OnSize@CFlashWnd@@QAEXIHH@Z ENDP			; CFlashWnd::OnSize
_TEXT	ENDS
EXTRN	__imp_?GetLength@?$CSimpleStringT@D$00@ATL@@QBEHXZ:NEAR
EXTRN	__imp_?GetManager@?$CSimpleStringT@D$00@ATL@@QBEPAUIAtlStringMgr@2@XZ:NEAR
EXTRN	__imp_?StringLength@?$CSimpleStringT@D$00@ATL@@SAHPBD@Z:NEAR
EXTRN	__imp_?Concatenate@?$CSimpleStringT@D$00@ATL@@KAXAAV12@PBDH1H@Z:NEAR
EXTRN	__imp_??0?$CStringT@DV?$StrTraitMFC_DLL@DV?$ChTraitsCRT@D@ATL@@@@@ATL@@QAE@PAUIAtlStringMgr@1@@Z:NEAR
EXTRN	__imp_??0?$CStringT@DV?$StrTraitMFC_DLL@DV?$ChTraitsCRT@D@ATL@@@@@ATL@@QAE@ABV01@@Z:NEAR
;	COMDAT xdata$x
; File d:\program files (x86)\microsoft visual studio .net 2003\vc7\atlmfc\include\cstringt.h
xdata$x	SEGMENT
$T198347 DD	0ffffffffH
	DD	FLAT:$L198340
$T198345 DD	019930520H
	DD	01H
	DD	FLAT:$T198347
	DD	2 DUP(00H)
	DD	2 DUP(00H)
; Function compile flags: /Odt
xdata$x	ENDS
;	COMDAT ??HATL@@YA?AV?$CStringT@DV?$StrTraitMFC_DLL@DV?$ChTraitsCRT@D@ATL@@@@@0@ABV10@PBD@Z
_TEXT	SEGMENT
$T198342 = -20						; size = 4
_strResult$ = -16					; size = 4
__$EHRec$ = -12						; size = 12
___$ReturnUdt$ = 8					; size = 4
_str1$ = 12						; size = 4
_psz2$ = 16						; size = 4
??HATL@@YA?AV?$CStringT@DV?$StrTraitMFC_DLL@DV?$ChTraitsCRT@D@ATL@@@@@0@ABV10@PBD@Z PROC NEAR ; ATL::operator+, COMDAT

; 2023 : 	{

  00000	55		 push	 ebp
  00001	8b ec		 mov	 ebp, esp
  00003	6a ff		 push	 -1
  00005	68 00 00 00 00	 push	 __ehhandler$??HATL@@YA?AV?$CStringT@DV?$StrTraitMFC_DLL@DV?$ChTraitsCRT@D@ATL@@@@@0@ABV10@PBD@Z
  0000a	64 a1 00 00 00
	00		 mov	 eax, DWORD PTR fs:__except_list
  00010	50		 push	 eax
  00011	64 89 25 00 00
	00 00		 mov	 DWORD PTR fs:__except_list, esp
  00018	83 ec 08	 sub	 esp, 8
  0001b	c7 45 ec 00 00
	00 00		 mov	 DWORD PTR $T198342[ebp], 0

; 2024 : 		CStringT strResult( str1.GetManager() );

  00022	8b 4d 0c	 mov	 ecx, DWORD PTR _str1$[ebp]
  00025	ff 15 00 00 00
	00		 call	 DWORD PTR __imp_?GetManager@?$CSimpleStringT@D$00@ATL@@QBEPAUIAtlStringMgr@2@XZ
  0002b	50		 push	 eax
  0002c	8d 4d f0	 lea	 ecx, DWORD PTR _strResult$[ebp]
  0002f	ff 15 00 00 00
	00		 call	 DWORD PTR __imp_??0?$CStringT@DV?$StrTraitMFC_DLL@DV?$ChTraitsCRT@D@ATL@@@@@ATL@@QAE@PAUIAtlStringMgr@1@@Z
  00035	c7 45 fc 00 00
	00 00		 mov	 DWORD PTR __$EHRec$[ebp+8], 0

; 2025 : 
; 2026 : 		Concatenate( strResult, str1, str1.GetLength(), psz2, StringLength( psz2 ) );

  0003c	8b 45 10	 mov	 eax, DWORD PTR _psz2$[ebp]
  0003f	50		 push	 eax
  00040	ff 15 00 00 00
	00		 call	 DWORD PTR __imp_?StringLength@?$CSimpleStringT@D$00@ATL@@SAHPBD@Z
  00046	83 c4 04	 add	 esp, 4
  00049	50		 push	 eax
  0004a	8b 4d 10	 mov	 ecx, DWORD PTR _psz2$[ebp]
  0004d	51		 push	 ecx
  0004e	8b 4d 0c	 mov	 ecx, DWORD PTR _str1$[ebp]
  00051	ff 15 00 00 00
	00		 call	 DWORD PTR __imp_?GetLength@?$CSimpleStringT@D$00@ATL@@QBEHXZ
  00057	50		 push	 eax
  00058	8b 4d 0c	 mov	 ecx, DWORD PTR _str1$[ebp]
  0005b	ff 15 00 00 00
	00		 call	 DWORD PTR __imp_??B?$CSimpleStringT@D$00@ATL@@QBEPBDXZ
  00061	50		 push	 eax
  00062	8d 55 f0	 lea	 edx, DWORD PTR _strResult$[ebp]
  00065	52		 push	 edx
  00066	ff 15 00 00 00
	00		 call	 DWORD PTR __imp_?Concatenate@?$CSimpleStringT@D$00@ATL@@KAXAAV12@PBDH1H@Z
  0006c	83 c4 14	 add	 esp, 20			; 00000014H

; 2027 : 
; 2028 : 		return( strResult );

  0006f	8d 45 f0	 lea	 eax, DWORD PTR _strResult$[ebp]
  00072	50		 push	 eax
  00073	8b 4d 08	 mov	 ecx, DWORD PTR ___$ReturnUdt$[ebp]
  00076	ff 15 00 00 00
	00		 call	 DWORD PTR __imp_??0?$CStringT@DV?$StrTraitMFC_DLL@DV?$ChTraitsCRT@D@ATL@@@@@ATL@@QAE@ABV01@@Z
  0007c	8b 4d ec	 mov	 ecx, DWORD PTR $T198342[ebp]
  0007f	83 c9 01	 or	 ecx, 1
  00082	89 4d ec	 mov	 DWORD PTR $T198342[ebp], ecx
  00085	c7 45 fc ff ff
	ff ff		 mov	 DWORD PTR __$EHRec$[ebp+8], -1
  0008c	8d 4d f0	 lea	 ecx, DWORD PTR _strResult$[ebp]
  0008f	ff 15 00 00 00
	00		 call	 DWORD PTR __imp_??1?$CStringT@DV?$StrTraitMFC_DLL@DV?$ChTraitsCRT@D@ATL@@@@@ATL@@QAE@XZ
  00095	8b 45 08	 mov	 eax, DWORD PTR ___$ReturnUdt$[ebp]

; 2029 : 	}

  00098	8b 4d f4	 mov	 ecx, DWORD PTR __$EHRec$[ebp]
  0009b	64 89 0d 00 00
	00 00		 mov	 DWORD PTR fs:__except_list, ecx
  000a2	8b e5		 mov	 esp, ebp
  000a4	5d		 pop	 ebp
  000a5	c3		 ret	 0
_TEXT	ENDS
;	COMDAT text$x
text$x	SEGMENT
$L198340:
  00000	8d 4d f0	 lea	 ecx, DWORD PTR _strResult$[ebp]
  00003	ff 25 00 00 00
	00		 jmp	 DWORD PTR __imp_??1?$CStringT@DV?$StrTraitMFC_DLL@DV?$ChTraitsCRT@D@ATL@@@@@ATL@@QAE@XZ
__ehhandler$??HATL@@YA?AV?$CStringT@DV?$StrTraitMFC_DLL@DV?$ChTraitsCRT@D@ATL@@@@@0@ABV10@PBD@Z:
  00009	b8 00 00 00 00	 mov	 eax, OFFSET FLAT:$T198345
  0000e	e9 00 00 00 00	 jmp	 ___CxxFrameHandler
text$x	ENDS
??HATL@@YA?AV?$CStringT@DV?$StrTraitMFC_DLL@DV?$ChTraitsCRT@D@ATL@@@@@0@ABV10@PBD@Z ENDP ; ATL::operator+
PUBLIC	?InterlockedExchangePointer@@YGPAXPAPAXPAX@Z	; InterlockedExchangePointer
PUBLIC	?_AtlGetThreadACPFake@ATL@@YGIXZ		; ATL::_AtlGetThreadACPFake
PUBLIC	?_AtlGetThreadACPReal@ATL@@YGIXZ		; ATL::_AtlGetThreadACPReal
EXTRN	__imp__GetVersionExA@4:NEAR
; Function compile flags: /Odt
; File d:\program files (x86)\microsoft visual studio .net 2003\vc7\atlmfc\include\atlconv.h
;	COMDAT ?_AtlGetThreadACPThunk@ATL@@YGIXZ
_TEXT	SEGMENT
_pfnGetThreadACP$ = -164				; size = 4
_ver$ = -160						; size = 148
__$ArrayPad$ = -4					; size = 4
__$ReturnAddr$ = 4					; size = 4
?_AtlGetThreadACPThunk@ATL@@YGIXZ PROC NEAR		; ATL::_AtlGetThreadACPThunk, COMDAT

; 134  : {

  00000	55		 push	 ebp
  00001	8b ec		 mov	 ebp, esp
  00003	81 ec a4 00 00
	00		 sub	 esp, 164		; 000000a4H
  00009	a1 00 00 00 00	 mov	 eax, DWORD PTR ___security_cookie
  0000e	89 45 fc	 mov	 DWORD PTR __$ArrayPad$[ebp], eax

; 135  : 	OSVERSIONINFO ver;
; 136  : 	ATLGETTHREADACP pfnGetThreadACP;
; 137  : 
; 138  : 	ver.dwOSVersionInfoSize = sizeof( ver );

  00011	c7 85 60 ff ff
	ff 94 00 00 00	 mov	 DWORD PTR _ver$[ebp], 148 ; 00000094H

; 139  : 	::GetVersionEx( &ver );

  0001b	8d 85 60 ff ff
	ff		 lea	 eax, DWORD PTR _ver$[ebp]
  00021	50		 push	 eax
  00022	ff 15 00 00 00
	00		 call	 DWORD PTR __imp__GetVersionExA@4

; 140  : 	if( (ver.dwPlatformId == VER_PLATFORM_WIN32_NT) && (ver.dwMajorVersion >= 5) )

  00028	83 bd 70 ff ff
	ff 02		 cmp	 DWORD PTR _ver$[ebp+16], 2
  0002f	75 15		 jne	 SHORT $L24173
  00031	83 bd 64 ff ff
	ff 05		 cmp	 DWORD PTR _ver$[ebp+4], 5
  00038	72 0c		 jb	 SHORT $L24173

; 141  : 	{
; 142  : 		// On Win2K, CP_THREAD_ACP is supported
; 143  : 		pfnGetThreadACP = _AtlGetThreadACPReal;

  0003a	c7 85 5c ff ff
	ff 00 00 00 00	 mov	 DWORD PTR _pfnGetThreadACP$[ebp], OFFSET FLAT:?_AtlGetThreadACPReal@ATL@@YGIXZ ; ATL::_AtlGetThreadACPReal

; 144  : 	}
; 145  : 	else

  00044	eb 0a		 jmp	 SHORT $L24174
$L24173:

; 146  : 	{
; 147  : 		pfnGetThreadACP = _AtlGetThreadACPFake;

  00046	c7 85 5c ff ff
	ff 00 00 00 00	 mov	 DWORD PTR _pfnGetThreadACP$[ebp], OFFSET FLAT:?_AtlGetThreadACPFake@ATL@@YGIXZ ; ATL::_AtlGetThreadACPFake
$L24174:

; 148  : 	}
; 149  : 	InterlockedExchangePointer( reinterpret_cast< void** >(&g_pfnGetThreadACP), pfnGetThreadACP );

  00050	8b 8d 5c ff ff
	ff		 mov	 ecx, DWORD PTR _pfnGetThreadACP$[ebp]
  00056	51		 push	 ecx
  00057	68 00 00 00 00	 push	 OFFSET FLAT:?g_pfnGetThreadACP@ATL@@3P6GIXZA ; ATL::g_pfnGetThreadACP
  0005c	e8 00 00 00 00	 call	 ?InterlockedExchangePointer@@YGPAXPAPAXPAX@Z ; InterlockedExchangePointer

; 150  : 
; 151  : 	return( g_pfnGetThreadACP() );

  00061	ff 15 00 00 00
	00		 call	 DWORD PTR ?g_pfnGetThreadACP@ATL@@3P6GIXZA ; ATL::g_pfnGetThreadACP

; 152  : }

  00067	8b 4d fc	 mov	 ecx, DWORD PTR __$ArrayPad$[ebp]
  0006a	e8 00 00 00 00	 call	 @__security_check_cookie@4
  0006f	8b e5		 mov	 esp, ebp
  00071	5d		 pop	 ebp
  00072	c3		 ret	 0
?_AtlGetThreadACPThunk@ATL@@YGIXZ ENDP			; ATL::_AtlGetThreadACPThunk
_TEXT	ENDS
EXTRN	__imp__InterlockedExchange@8:NEAR
; Function compile flags: /Odt
;	COMDAT ?InterlockedExchangePointer@@YGPAXPAPAXPAX@Z
_TEXT	SEGMENT
_pp$ = 8						; size = 4
_pNew$ = 12						; size = 4
?InterlockedExchangePointer@@YGPAXPAPAXPAX@Z PROC NEAR	; InterlockedExchangePointer, COMDAT

; 91   : {

  00000	55		 push	 ebp
  00001	8b ec		 mov	 ebp, esp

; 92   : 	return( reinterpret_cast<void*>(static_cast<LONG_PTR>(::InterlockedExchange(reinterpret_cast<LONG*>(pp), static_cast<LONG>(reinterpret_cast<LONG_PTR>(pNew))))) );

  00003	8b 45 0c	 mov	 eax, DWORD PTR _pNew$[ebp]
  00006	50		 push	 eax
  00007	8b 4d 08	 mov	 ecx, DWORD PTR _pp$[ebp]
  0000a	51		 push	 ecx
  0000b	ff 15 00 00 00
	00		 call	 DWORD PTR __imp__InterlockedExchange@8

; 93   : }

  00011	5d		 pop	 ebp
  00012	c2 08 00	 ret	 8
?InterlockedExchangePointer@@YGPAXPAPAXPAX@Z ENDP	; InterlockedExchangePointer
_TEXT	ENDS
EXTRN	__imp__GetACP@0:NEAR
EXTRN	__imp__GetLocaleInfoA@16:NEAR
EXTRN	__imp__GetThreadLocale@0:NEAR
; Function compile flags: /Odt
;	COMDAT ?_AtlGetThreadACPFake@ATL@@YGIXZ
_TEXT	SEGMENT
_pch$24161 = -24					; size = 4
_lcidThread$ = -20					; size = 4
_szACP$ = -16						; size = 7
__$ArrayPad$ = -8					; size = 4
_nACP$ = -4						; size = 4
__$ReturnAddr$ = 4					; size = 4
?_AtlGetThreadACPFake@ATL@@YGIXZ PROC NEAR		; ATL::_AtlGetThreadACPFake, COMDAT

; 101  : {

  00000	55		 push	 ebp
  00001	8b ec		 mov	 ebp, esp
  00003	83 ec 18	 sub	 esp, 24			; 00000018H
  00006	a1 00 00 00 00	 mov	 eax, DWORD PTR ___security_cookie
  0000b	89 45 f8	 mov	 DWORD PTR __$ArrayPad$[ebp], eax

; 102  : 	UINT nACP = 0;

  0000e	c7 45 fc 00 00
	00 00		 mov	 DWORD PTR _nACP$[ebp], 0

; 103  : 
; 104  : 	LCID lcidThread = ::GetThreadLocale();

  00015	ff 15 00 00 00
	00		 call	 DWORD PTR __imp__GetThreadLocale@0
  0001b	89 45 ec	 mov	 DWORD PTR _lcidThread$[ebp], eax

; 105  : 
; 106  : 	char szACP[7];
; 107  : 	// GetLocaleInfoA will fail for a Unicode-only LCID, but those are only supported on 
; 108  : 	// Windows 2000.  Since Windows 2000 supports CP_THREAD_ACP, this code path is never
; 109  : 	// executed on Windows 2000.
; 110  : 	if (::GetLocaleInfoA(lcidThread, LOCALE_IDEFAULTANSICODEPAGE, szACP, 7) != 0)

  0001e	6a 07		 push	 7
  00020	8d 45 f0	 lea	 eax, DWORD PTR _szACP$[ebp]
  00023	50		 push	 eax
  00024	68 04 10 00 00	 push	 4100			; 00001004H
  00029	8b 4d ec	 mov	 ecx, DWORD PTR _lcidThread$[ebp]
  0002c	51		 push	 ecx
  0002d	ff 15 00 00 00
	00		 call	 DWORD PTR __imp__GetLocaleInfoA@16
  00033	85 c0		 test	 eax, eax
  00035	74 34		 je	 SHORT $L24160

; 111  : 	{
; 112  : 		char* pch = szACP;

  00037	8d 55 f0	 lea	 edx, DWORD PTR _szACP$[ebp]
  0003a	89 55 e8	 mov	 DWORD PTR _pch$24161[ebp], edx
$L24163:

; 113  : 		while (*pch != '\0')

  0003d	8b 45 e8	 mov	 eax, DWORD PTR _pch$24161[ebp]
  00040	0f be 08	 movsx	 ecx, BYTE PTR [eax]
  00043	85 c9		 test	 ecx, ecx
  00045	74 24		 je	 SHORT $L24160

; 114  : 		{
; 115  : 			nACP *= 10;

  00047	8b 55 fc	 mov	 edx, DWORD PTR _nACP$[ebp]
  0004a	6b d2 0a	 imul	 edx, 10			; 0000000aH
  0004d	89 55 fc	 mov	 DWORD PTR _nACP$[ebp], edx

; 116  : 			nACP += *pch++ - '0';

  00050	8b 45 e8	 mov	 eax, DWORD PTR _pch$24161[ebp]
  00053	0f be 08	 movsx	 ecx, BYTE PTR [eax]
  00056	8b 55 fc	 mov	 edx, DWORD PTR _nACP$[ebp]
  00059	8d 44 0a d0	 lea	 eax, DWORD PTR [edx+ecx-48]
  0005d	89 45 fc	 mov	 DWORD PTR _nACP$[ebp], eax
  00060	8b 4d e8	 mov	 ecx, DWORD PTR _pch$24161[ebp]
  00063	83 c1 01	 add	 ecx, 1
  00066	89 4d e8	 mov	 DWORD PTR _pch$24161[ebp], ecx

; 117  : 		}

  00069	eb d2		 jmp	 SHORT $L24163
$L24160:

; 118  : 	}
; 119  : 	// Use the Default ANSI Code Page if we were unable to get the thread ACP or if one does not exist.
; 120  : 	if (nACP == 0)

  0006b	83 7d fc 00	 cmp	 DWORD PTR _nACP$[ebp], 0
  0006f	75 09		 jne	 SHORT $L24165

; 121  : 		nACP = ::GetACP();

  00071	ff 15 00 00 00
	00		 call	 DWORD PTR __imp__GetACP@0
  00077	89 45 fc	 mov	 DWORD PTR _nACP$[ebp], eax
$L24165:

; 122  : 
; 123  : 	return nACP;

  0007a	8b 45 fc	 mov	 eax, DWORD PTR _nACP$[ebp]

; 124  : }

  0007d	8b 4d f8	 mov	 ecx, DWORD PTR __$ArrayPad$[ebp]
  00080	e8 00 00 00 00	 call	 @__security_check_cookie@4
  00085	8b e5		 mov	 esp, ebp
  00087	5d		 pop	 ebp
  00088	c3		 ret	 0
?_AtlGetThreadACPFake@ATL@@YGIXZ ENDP			; ATL::_AtlGetThreadACPFake
; Function compile flags: /Odt
_TEXT	ENDS
;	COMDAT ?_AtlGetThreadACPReal@ATL@@YGIXZ
_TEXT	SEGMENT
?_AtlGetThreadACPReal@ATL@@YGIXZ PROC NEAR		; ATL::_AtlGetThreadACPReal, COMDAT

; 127  : {

  00000	55		 push	 ebp
  00001	8b ec		 mov	 ebp, esp

; 128  : 	return( CP_THREAD_ACP );

  00003	b8 03 00 00 00	 mov	 eax, 3

; 129  : }

  00008	5d		 pop	 ebp
  00009	c3		 ret	 0
?_AtlGetThreadACPReal@ATL@@YGIXZ ENDP			; ATL::_AtlGetThreadACPReal
; Function compile flags: /Odt
; File d:\program files (x86)\microsoft visual studio .net 2003\vc7\atlmfc\include\atltypes.inl
_TEXT	ENDS
;	COMDAT ??0CRect@@QAE@XZ
_TEXT	SEGMENT
_this$ = -4						; size = 4
??0CRect@@QAE@XZ PROC NEAR				; CRect::CRect, COMDAT
; _this$ = ecx

; 110  : 	{ /* random filled */ }

  00000	55		 push	 ebp
  00001	8b ec		 mov	 ebp, esp
  00003	51		 push	 ecx
  00004	89 4d fc	 mov	 DWORD PTR _this$[ebp], ecx
  00007	8b 45 fc	 mov	 eax, DWORD PTR _this$[ebp]
  0000a	8b e5		 mov	 esp, ebp
  0000c	5d		 pop	 ebp
  0000d	c3		 ret	 0
??0CRect@@QAE@XZ ENDP					; CRect::CRect
; Function compile flags: /Odt
_TEXT	ENDS
;	COMDAT ??0CRect@@QAE@HHHH@Z
_TEXT	SEGMENT
_this$ = -4						; size = 4
_l$ = 8							; size = 4
_t$ = 12						; size = 4
_r$ = 16						; size = 4
_b$ = 20						; size = 4
??0CRect@@QAE@HHHH@Z PROC NEAR				; CRect::CRect, COMDAT
; _this$ = ecx

; 112  : 	{ left = l; top = t; right = r; bottom = b; }

  00000	55		 push	 ebp
  00001	8b ec		 mov	 ebp, esp
  00003	51		 push	 ecx
  00004	89 4d fc	 mov	 DWORD PTR _this$[ebp], ecx
  00007	8b 45 fc	 mov	 eax, DWORD PTR _this$[ebp]
  0000a	8b 4d 08	 mov	 ecx, DWORD PTR _l$[ebp]
  0000d	89 08		 mov	 DWORD PTR [eax], ecx
  0000f	8b 55 fc	 mov	 edx, DWORD PTR _this$[ebp]
  00012	8b 45 0c	 mov	 eax, DWORD PTR _t$[ebp]
  00015	89 42 04	 mov	 DWORD PTR [edx+4], eax
  00018	8b 4d fc	 mov	 ecx, DWORD PTR _this$[ebp]
  0001b	8b 55 10	 mov	 edx, DWORD PTR _r$[ebp]
  0001e	89 51 08	 mov	 DWORD PTR [ecx+8], edx
  00021	8b 45 fc	 mov	 eax, DWORD PTR _this$[ebp]
  00024	8b 4d 14	 mov	 ecx, DWORD PTR _b$[ebp]
  00027	89 48 0c	 mov	 DWORD PTR [eax+12], ecx
  0002a	8b 45 fc	 mov	 eax, DWORD PTR _this$[ebp]
  0002d	8b e5		 mov	 esp, ebp
  0002f	5d		 pop	 ebp
  00030	c2 10 00	 ret	 16			; 00000010H
??0CRect@@QAE@HHHH@Z ENDP				; CRect::CRect
; Function compile flags: /Odt
_TEXT	ENDS
;	COMDAT ?Width@CRect@@QBEHXZ
_TEXT	SEGMENT
_this$ = -4						; size = 4
?Width@CRect@@QBEHXZ PROC NEAR				; CRect::Width, COMDAT
; _this$ = ecx

; 123  : 	{ return right - left; }

  00000	55		 push	 ebp
  00001	8b ec		 mov	 ebp, esp
  00003	51		 push	 ecx
  00004	89 4d fc	 mov	 DWORD PTR _this$[ebp], ecx
  00007	8b 45 fc	 mov	 eax, DWORD PTR _this$[ebp]
  0000a	8b 4d fc	 mov	 ecx, DWORD PTR _this$[ebp]
  0000d	8b 40 08	 mov	 eax, DWORD PTR [eax+8]
  00010	2b 01		 sub	 eax, DWORD PTR [ecx]
  00012	8b e5		 mov	 esp, ebp
  00014	5d		 pop	 ebp
  00015	c3		 ret	 0
?Width@CRect@@QBEHXZ ENDP				; CRect::Width
; Function compile flags: /Odt
_TEXT	ENDS
;	COMDAT ?Height@CRect@@QBEHXZ
_TEXT	SEGMENT
_this$ = -4						; size = 4
?Height@CRect@@QBEHXZ PROC NEAR				; CRect::Height, COMDAT
; _this$ = ecx

; 125  : 	{ return bottom - top; }

  00000	55		 push	 ebp
  00001	8b ec		 mov	 ebp, esp
  00003	51		 push	 ecx
  00004	89 4d fc	 mov	 DWORD PTR _this$[ebp], ecx
  00007	8b 45 fc	 mov	 eax, DWORD PTR _this$[ebp]
  0000a	8b 4d fc	 mov	 ecx, DWORD PTR _this$[ebp]
  0000d	8b 40 0c	 mov	 eax, DWORD PTR [eax+12]
  00010	2b 41 04	 sub	 eax, DWORD PTR [ecx+4]
  00013	8b e5		 mov	 esp, ebp
  00015	5d		 pop	 ebp
  00016	c3		 ret	 0
?Height@CRect@@QBEHXZ ENDP				; CRect::Height
; Function compile flags: /Odt
_TEXT	ENDS
;	COMDAT ??BCRect@@QAEPAUtagRECT@@XZ
_TEXT	SEGMENT
_this$ = -4						; size = 4
??BCRect@@QAEPAUtagRECT@@XZ PROC NEAR			; CRect::operator tagRECT *, COMDAT
; _this$ = ecx

; 143  : 	{ return this; }

  00000	55		 push	 ebp
  00001	8b ec		 mov	 ebp, esp
  00003	51		 push	 ecx
  00004	89 4d fc	 mov	 DWORD PTR _this$[ebp], ecx
  00007	8b 45 fc	 mov	 eax, DWORD PTR _this$[ebp]
  0000a	8b e5		 mov	 esp, ebp
  0000c	5d		 pop	 ebp
  0000d	c3		 ret	 0
??BCRect@@QAEPAUtagRECT@@XZ ENDP			; CRect::operator tagRECT *
; Function compile flags: /Odt
; File d:\program files (x86)\microsoft visual studio .net 2003\vc7\atlmfc\include\afx.inl
_TEXT	ENDS
;	COMDAT ?Serialize@CObject@@UAEXAAVCArchive@@@Z
_TEXT	SEGMENT
_this$ = -4						; size = 4
___formal$ = 8						; size = 4
?Serialize@CObject@@UAEXAAVCArchive@@@Z PROC NEAR	; CObject::Serialize, COMDAT
; _this$ = ecx

; 25   : 	{ /* CObject does not serialize anything by default */ }

  00000	55		 push	 ebp
  00001	8b ec		 mov	 ebp, esp
  00003	51		 push	 ecx
  00004	89 4d fc	 mov	 DWORD PTR _this$[ebp], ecx
  00007	8b e5		 mov	 esp, ebp
  00009	5d		 pop	 ebp
  0000a	c2 04 00	 ret	 4
?Serialize@CObject@@UAEXAAVCArchive@@@Z ENDP		; CObject::Serialize
_TEXT	ENDS
EXTRN	??3@YAXPAX@Z:NEAR				; operator delete
; Function compile flags: /Odt
;	COMDAT ??3CObject@@SGXPAX@Z
_TEXT	SEGMENT
_p$ = 8							; size = 4
??3CObject@@SGXPAX@Z PROC NEAR				; CObject::operator delete, COMDAT

; 31   : 	{ ::operator delete(p); }

  00000	55		 push	 ebp
  00001	8b ec		 mov	 ebp, esp
  00003	8b 45 08	 mov	 eax, DWORD PTR _p$[ebp]
  00006	50		 push	 eax
  00007	e8 00 00 00 00	 call	 ??3@YAXPAX@Z		; operator delete
  0000c	83 c4 04	 add	 esp, 4
  0000f	5d		 pop	 ebp
  00010	c2 04 00	 ret	 4
??3CObject@@SGXPAX@Z ENDP				; CObject::operator delete
; Function compile flags: /Odt
_TEXT	ENDS
;	COMDAT ?AssertValid@CObject@@UBEXXZ
_TEXT	SEGMENT
_this$ = -4						; size = 4
?AssertValid@CObject@@UBEXXZ PROC NEAR			; CObject::AssertValid, COMDAT
; _this$ = ecx

; 41   : 	{ /* no asserts in release builds */ }

  00000	55		 push	 ebp
  00001	8b ec		 mov	 ebp, esp
  00003	51		 push	 ecx
  00004	89 4d fc	 mov	 DWORD PTR _this$[ebp], ecx
  00007	8b e5		 mov	 esp, ebp
  00009	5d		 pop	 ebp
  0000a	c3		 ret	 0
?AssertValid@CObject@@UBEXXZ ENDP			; CObject::AssertValid
; Function compile flags: /Odt
_TEXT	ENDS
;	COMDAT ?Dump@CObject@@UBEXAAVCDumpContext@@@Z
_TEXT	SEGMENT
_this$ = -4						; size = 4
___formal$ = 8						; size = 4
?Dump@CObject@@UBEXAAVCDumpContext@@@Z PROC NEAR	; CObject::Dump, COMDAT
; _this$ = ecx

; 43   : 	{ /* no dumping in release builds */ }

  00000	55		 push	 ebp
  00001	8b ec		 mov	 ebp, esp
  00003	51		 push	 ecx
  00004	89 4d fc	 mov	 DWORD PTR _this$[ebp], ecx
  00007	8b e5		 mov	 esp, ebp
  00009	5d		 pop	 ebp
  0000a	c2 04 00	 ret	 4
?Dump@CObject@@UBEXAAVCDumpContext@@@Z ENDP		; CObject::Dump
_TEXT	ENDS
PUBLIC	??_R0?AVCGdiObject@@@8				; CGdiObject `RTTI Type Descriptor'
PUBLIC	??_R1A@?0A@A@CGdiObject@@8			; CGdiObject::`RTTI Base Class Descriptor at (0,-1,0,0)'
PUBLIC	??_R4CBrush@@6B@				; CBrush::`RTTI Complete Object Locator'
PUBLIC	??_R0?AVCBrush@@@8				; CBrush `RTTI Type Descriptor'
PUBLIC	??_R3CBrush@@8					; CBrush::`RTTI Class Hierarchy Descriptor'
PUBLIC	??_R2CBrush@@8					; CBrush::`RTTI Base Class Array'
PUBLIC	??_R1A@?0A@A@CBrush@@8				; CBrush::`RTTI Base Class Descriptor at (0,-1,0,0)'
PUBLIC	??1CGdiObject@@UAE@XZ				; CGdiObject::~CGdiObject
PUBLIC	??_7CBrush@@6B@					; CBrush::`vftable'
PUBLIC	??_GCBrush@@UAEPAXI@Z				; CBrush::`scalar deleting destructor'
EXTRN	?GetRuntimeClass@CBrush@@UBEPAUCRuntimeClass@@XZ:NEAR ; CBrush::GetRuntimeClass
EXTRN	??_ECBrush@@UAEPAXI@Z:NEAR			; CBrush::`vector deleting destructor'
;	COMDAT ??_7CBrush@@6B@
; File d:\program files (x86)\microsoft visual studio .net 2003\vc7\atlmfc\include\afxwin1.inl
CONST	SEGMENT
??_7CBrush@@6B@ DD FLAT:??_R4CBrush@@6B@		; CBrush::`vftable'
	DD	FLAT:?GetRuntimeClass@CBrush@@UBEPAUCRuntimeClass@@XZ
	DD	FLAT:??_ECBrush@@UAEPAXI@Z
	DD	FLAT:?Serialize@CObject@@UAEXAAVCArchive@@@Z
	DD	FLAT:?AssertValid@CObject@@UBEXXZ
	DD	FLAT:?Dump@CObject@@UBEXAAVCDumpContext@@@Z
CONST	ENDS
;	COMDAT ??_R4CBrush@@6B@
rdata$r	SEGMENT
??_R4CBrush@@6B@ DD 00H					; CBrush::`RTTI Complete Object Locator'
	DD	00H
	DD	00H
	DD	FLAT:??_R0?AVCBrush@@@8
	DD	FLAT:??_R3CBrush@@8
rdata$r	ENDS
;	COMDAT ??_R0?AVCBrush@@@8
_DATA	SEGMENT
??_R0?AVCBrush@@@8 DD FLAT:??_7type_info@@6B@		; CBrush `RTTI Type Descriptor'
	DD	00H
	DB	'.?AVCBrush@@', 00H
_DATA	ENDS
;	COMDAT ??_R3CBrush@@8
rdata$r	SEGMENT
??_R3CBrush@@8 DD 00H					; CBrush::`RTTI Class Hierarchy Descriptor'
	DD	00H
	DD	03H
	DD	FLAT:??_R2CBrush@@8
rdata$r	ENDS
;	COMDAT ??_R2CBrush@@8
rdata$r	SEGMENT
??_R2CBrush@@8 DD FLAT:??_R1A@?0A@A@CBrush@@8		; CBrush::`RTTI Base Class Array'
	DD	FLAT:??_R1A@?0A@A@CGdiObject@@8
	DD	FLAT:??_R1A@?0A@A@CObject@@8
rdata$r	ENDS
;	COMDAT ??_R1A@?0A@A@CBrush@@8
rdata$r	SEGMENT
??_R1A@?0A@A@CBrush@@8 DD FLAT:??_R0?AVCBrush@@@8	; CBrush::`RTTI Base Class Descriptor at (0,-1,0,0)'
	DD	02H
	DD	00H
	DD	0ffffffffH
	DD	00H
	DD	00H
rdata$r	ENDS
;	COMDAT ??_R1A@?0A@A@CGdiObject@@8
rdata$r	SEGMENT
??_R1A@?0A@A@CGdiObject@@8 DD FLAT:??_R0?AVCGdiObject@@@8 ; CGdiObject::`RTTI Base Class Descriptor at (0,-1,0,0)'
	DD	01H
	DD	00H
	DD	0ffffffffH
	DD	00H
	DD	00H
rdata$r	ENDS
;	COMDAT ??_R0?AVCGdiObject@@@8
_DATA	SEGMENT
??_R0?AVCGdiObject@@@8 DD FLAT:??_7type_info@@6B@	; CGdiObject `RTTI Type Descriptor'
	DD	00H
	DB	'.?AVCGdiObject@@', 00H
; Function compile flags: /Odt
_DATA	ENDS
;	COMDAT ??1CBrush@@UAE@XZ
_TEXT	SEGMENT
_this$ = -4						; size = 4
??1CBrush@@UAE@XZ PROC NEAR				; CBrush::~CBrush, COMDAT
; _this$ = ecx

; 130  : 	{ }

  00000	55		 push	 ebp
  00001	8b ec		 mov	 ebp, esp
  00003	51		 push	 ecx
  00004	89 4d fc	 mov	 DWORD PTR _this$[ebp], ecx
  00007	8b 45 fc	 mov	 eax, DWORD PTR _this$[ebp]
  0000a	c7 00 00 00 00
	00		 mov	 DWORD PTR [eax], OFFSET FLAT:??_7CBrush@@6B@
  00010	8b 4d fc	 mov	 ecx, DWORD PTR _this$[ebp]
  00013	e8 00 00 00 00	 call	 ??1CGdiObject@@UAE@XZ	; CGdiObject::~CGdiObject
  00018	8b e5		 mov	 esp, ebp
  0001a	5d		 pop	 ebp
  0001b	c3		 ret	 0
??1CBrush@@UAE@XZ ENDP					; CBrush::~CBrush
_TEXT	ENDS
PUBLIC	??_R4CGdiObject@@6B@				; CGdiObject::`RTTI Complete Object Locator'
PUBLIC	??_R3CGdiObject@@8				; CGdiObject::`RTTI Class Hierarchy Descriptor'
PUBLIC	??_R2CGdiObject@@8				; CGdiObject::`RTTI Base Class Array'
PUBLIC	??1CObject@@UAE@XZ				; CObject::~CObject
PUBLIC	??_7CGdiObject@@6B@				; CGdiObject::`vftable'
PUBLIC	??_GCGdiObject@@UAEPAXI@Z			; CGdiObject::`scalar deleting destructor'
EXTRN	?GetRuntimeClass@CGdiObject@@UBEPAUCRuntimeClass@@XZ:NEAR ; CGdiObject::GetRuntimeClass
EXTRN	?DeleteObject@CGdiObject@@QAEHXZ:NEAR		; CGdiObject::DeleteObject
EXTRN	??_ECGdiObject@@UAEPAXI@Z:NEAR			; CGdiObject::`vector deleting destructor'
;	COMDAT xdata$x
xdata$x	SEGMENT
$T198389 DD	0ffffffffH
	DD	FLAT:$L198385
$T198387 DD	019930520H
	DD	01H
	DD	FLAT:$T198389
	DD	2 DUP(00H)
	DD	2 DUP(00H)
xdata$x	ENDS
;	COMDAT ??_7CGdiObject@@6B@
CONST	SEGMENT
??_7CGdiObject@@6B@ DD FLAT:??_R4CGdiObject@@6B@	; CGdiObject::`vftable'
	DD	FLAT:?GetRuntimeClass@CGdiObject@@UBEPAUCRuntimeClass@@XZ
	DD	FLAT:??_ECGdiObject@@UAEPAXI@Z
	DD	FLAT:?Serialize@CObject@@UAEXAAVCArchive@@@Z
	DD	FLAT:?AssertValid@CObject@@UBEXXZ
	DD	FLAT:?Dump@CObject@@UBEXAAVCDumpContext@@@Z
CONST	ENDS
;	COMDAT ??_R4CGdiObject@@6B@
rdata$r	SEGMENT
??_R4CGdiObject@@6B@ DD 00H				; CGdiObject::`RTTI Complete Object Locator'
	DD	00H
	DD	00H
	DD	FLAT:??_R0?AVCGdiObject@@@8
	DD	FLAT:??_R3CGdiObject@@8
rdata$r	ENDS
;	COMDAT ??_R3CGdiObject@@8
rdata$r	SEGMENT
??_R3CGdiObject@@8 DD 00H				; CGdiObject::`RTTI Class Hierarchy Descriptor'
	DD	00H
	DD	02H
	DD	FLAT:??_R2CGdiObject@@8
rdata$r	ENDS
;	COMDAT ??_R2CGdiObject@@8
rdata$r	SEGMENT
??_R2CGdiObject@@8 DD FLAT:??_R1A@?0A@A@CGdiObject@@8	; CGdiObject::`RTTI Base Class Array'
	DD	FLAT:??_R1A@?0A@A@CObject@@8
; Function compile flags: /Odt
rdata$r	ENDS
;	COMDAT ??1CGdiObject@@UAE@XZ
_TEXT	SEGMENT
_this$ = -16						; size = 4
__$EHRec$ = -12						; size = 12
??1CGdiObject@@UAE@XZ PROC NEAR				; CGdiObject::~CGdiObject, COMDAT
; _this$ = ecx

; 84   : 	{ DeleteObject(); }

  00000	55		 push	 ebp
  00001	8b ec		 mov	 ebp, esp
  00003	6a ff		 push	 -1
  00005	68 00 00 00 00	 push	 __ehhandler$??1CGdiObject@@UAE@XZ
  0000a	64 a1 00 00 00
	00		 mov	 eax, DWORD PTR fs:__except_list
  00010	50		 push	 eax
  00011	64 89 25 00 00
	00 00		 mov	 DWORD PTR fs:__except_list, esp
  00018	51		 push	 ecx
  00019	89 4d f0	 mov	 DWORD PTR _this$[ebp], ecx
  0001c	8b 45 f0	 mov	 eax, DWORD PTR _this$[ebp]
  0001f	c7 00 00 00 00
	00		 mov	 DWORD PTR [eax], OFFSET FLAT:??_7CGdiObject@@6B@
  00025	c7 45 fc 00 00
	00 00		 mov	 DWORD PTR __$EHRec$[ebp+8], 0
  0002c	8b 4d f0	 mov	 ecx, DWORD PTR _this$[ebp]
  0002f	e8 00 00 00 00	 call	 ?DeleteObject@CGdiObject@@QAEHXZ ; CGdiObject::DeleteObject
  00034	c7 45 fc ff ff
	ff ff		 mov	 DWORD PTR __$EHRec$[ebp+8], -1
  0003b	8b 4d f0	 mov	 ecx, DWORD PTR _this$[ebp]
  0003e	e8 00 00 00 00	 call	 ??1CObject@@UAE@XZ	; CObject::~CObject
  00043	8b 4d f4	 mov	 ecx, DWORD PTR __$EHRec$[ebp]
  00046	64 89 0d 00 00
	00 00		 mov	 DWORD PTR fs:__except_list, ecx
  0004d	8b e5		 mov	 esp, ebp
  0004f	5d		 pop	 ebp
  00050	c3		 ret	 0
_TEXT	ENDS
;	COMDAT text$x
text$x	SEGMENT
$L198385:
  00000	8b 4d f0	 mov	 ecx, DWORD PTR _this$[ebp]
  00003	e9 00 00 00 00	 jmp	 ??1CObject@@UAE@XZ	; CObject::~CObject
__ehhandler$??1CGdiObject@@UAE@XZ:
  00008	b8 00 00 00 00	 mov	 eax, OFFSET FLAT:$T198387
  0000d	e9 00 00 00 00	 jmp	 ___CxxFrameHandler
text$x	ENDS
??1CGdiObject@@UAE@XZ ENDP				; CGdiObject::~CGdiObject
; Function compile flags: /Odt
; File d:\program files (x86)\microsoft visual studio .net 2003\vc7\atlmfc\include\afx.inl
;	COMDAT ??1CObject@@UAE@XZ
_TEXT	SEGMENT
_this$ = -4						; size = 4
??1CObject@@UAE@XZ PROC NEAR				; CObject::~CObject, COMDAT
; _this$ = ecx

; 23   : 	{ }

  00000	55		 push	 ebp
  00001	8b ec		 mov	 ebp, esp
  00003	51		 push	 ecx
  00004	89 4d fc	 mov	 DWORD PTR _this$[ebp], ecx
  00007	8b e5		 mov	 esp, ebp
  00009	5d		 pop	 ebp
  0000a	c3		 ret	 0
??1CObject@@UAE@XZ ENDP					; CObject::~CObject
; Function compile flags: /Odt
_TEXT	ENDS
;	COMDAT ??_GCGdiObject@@UAEPAXI@Z
_TEXT	SEGMENT
_this$ = -4						; size = 4
___flags$ = 8						; size = 4
??_GCGdiObject@@UAEPAXI@Z PROC NEAR			; CGdiObject::`scalar deleting destructor', COMDAT
; _this$ = ecx
  00000	55		 push	 ebp
  00001	8b ec		 mov	 ebp, esp
  00003	51		 push	 ecx
  00004	89 4d fc	 mov	 DWORD PTR _this$[ebp], ecx
  00007	8b 4d fc	 mov	 ecx, DWORD PTR _this$[ebp]
  0000a	e8 00 00 00 00	 call	 ??1CGdiObject@@UAE@XZ	; CGdiObject::~CGdiObject
  0000f	8b 45 08	 mov	 eax, DWORD PTR ___flags$[ebp]
  00012	83 e0 01	 and	 eax, 1
  00015	74 09		 je	 SHORT $L41495
  00017	8b 4d fc	 mov	 ecx, DWORD PTR _this$[ebp]
  0001a	51		 push	 ecx
  0001b	e8 00 00 00 00	 call	 ??3CObject@@SGXPAX@Z	; CObject::operator delete
$L41495:
  00020	8b 45 fc	 mov	 eax, DWORD PTR _this$[ebp]
  00023	8b e5		 mov	 esp, ebp
  00025	5d		 pop	 ebp
  00026	c2 04 00	 ret	 4
??_GCGdiObject@@UAEPAXI@Z ENDP				; CGdiObject::`scalar deleting destructor'
; Function compile flags: /Odt
_TEXT	ENDS
;	COMDAT ??_GCBrush@@UAEPAXI@Z
_TEXT	SEGMENT
_this$ = -4						; size = 4
___flags$ = 8						; size = 4
??_GCBrush@@UAEPAXI@Z PROC NEAR				; CBrush::`scalar deleting destructor', COMDAT
; _this$ = ecx
  00000	55		 push	 ebp
  00001	8b ec		 mov	 ebp, esp
  00003	51		 push	 ecx
  00004	89 4d fc	 mov	 DWORD PTR _this$[ebp], ecx
  00007	8b 4d fc	 mov	 ecx, DWORD PTR _this$[ebp]
  0000a	e8 00 00 00 00	 call	 ??1CBrush@@UAE@XZ	; CBrush::~CBrush
  0000f	8b 45 08	 mov	 eax, DWORD PTR ___flags$[ebp]
  00012	83 e0 01	 and	 eax, 1
  00015	74 09		 je	 SHORT $L41589
  00017	8b 4d fc	 mov	 ecx, DWORD PTR _this$[ebp]
  0001a	51		 push	 ecx
  0001b	e8 00 00 00 00	 call	 ??3CObject@@SGXPAX@Z	; CObject::operator delete
$L41589:
  00020	8b 45 fc	 mov	 eax, DWORD PTR _this$[ebp]
  00023	8b e5		 mov	 esp, ebp
  00025	5d		 pop	 ebp
  00026	c2 04 00	 ret	 4
??_GCBrush@@UAEPAXI@Z ENDP				; CBrush::`scalar deleting destructor'
_TEXT	ENDS
PUBLIC	?GetSafeHandle@CGdiObject@@QBEPAXXZ		; CGdiObject::GetSafeHandle
EXTRN	__imp__FillRect@12:NEAR
; Function compile flags: /Odt
; File d:\program files (x86)\microsoft visual studio .net 2003\vc7\atlmfc\include\afxwin1.inl
;	COMDAT ?FillRect@CDC@@QAEXPBUtagRECT@@PAVCBrush@@@Z
_TEXT	SEGMENT
_this$ = -4						; size = 4
_lpRect$ = 8						; size = 4
_pBrush$ = 12						; size = 4
?FillRect@CDC@@QAEXPBUtagRECT@@PAVCBrush@@@Z PROC NEAR	; CDC::FillRect, COMDAT
; _this$ = ecx

; 472  : 	{ ASSERT(m_hDC != NULL); ::FillRect(m_hDC, lpRect, (HBRUSH)pBrush->GetSafeHandle()); }

  00000	55		 push	 ebp
  00001	8b ec		 mov	 ebp, esp
  00003	51		 push	 ecx
  00004	89 4d fc	 mov	 DWORD PTR _this$[ebp], ecx
  00007	8b 4d 0c	 mov	 ecx, DWORD PTR _pBrush$[ebp]
  0000a	e8 00 00 00 00	 call	 ?GetSafeHandle@CGdiObject@@QBEPAXXZ ; CGdiObject::GetSafeHandle
  0000f	50		 push	 eax
  00010	8b 45 08	 mov	 eax, DWORD PTR _lpRect$[ebp]
  00013	50		 push	 eax
  00014	8b 4d fc	 mov	 ecx, DWORD PTR _this$[ebp]
  00017	8b 51 04	 mov	 edx, DWORD PTR [ecx+4]
  0001a	52		 push	 edx
  0001b	ff 15 00 00 00
	00		 call	 DWORD PTR __imp__FillRect@12
  00021	8b e5		 mov	 esp, ebp
  00023	5d		 pop	 ebp
  00024	c2 08 00	 ret	 8
?FillRect@CDC@@QAEXPBUtagRECT@@PAVCBrush@@@Z ENDP	; CDC::FillRect
; Function compile flags: /Odt
_TEXT	ENDS
;	COMDAT ?GetSafeHandle@CGdiObject@@QBEPAXXZ
_TEXT	SEGMENT
tv66 = -8						; size = 4
_this$ = -4						; size = 4
?GetSafeHandle@CGdiObject@@QBEPAXXZ PROC NEAR		; CGdiObject::GetSafeHandle, COMDAT
; _this$ = ecx

; 80   : 	{ return this == NULL ? NULL : m_hObject; }

  00000	55		 push	 ebp
  00001	8b ec		 mov	 ebp, esp
  00003	83 ec 08	 sub	 esp, 8
  00006	89 4d fc	 mov	 DWORD PTR _this$[ebp], ecx
  00009	83 7d fc 00	 cmp	 DWORD PTR _this$[ebp], 0
  0000d	75 09		 jne	 SHORT $L198402
  0000f	c7 45 f8 00 00
	00 00		 mov	 DWORD PTR tv66[ebp], 0
  00016	eb 09		 jmp	 SHORT $L198403
$L198402:
  00018	8b 45 fc	 mov	 eax, DWORD PTR _this$[ebp]
  0001b	8b 48 04	 mov	 ecx, DWORD PTR [eax+4]
  0001e	89 4d f8	 mov	 DWORD PTR tv66[ebp], ecx
$L198403:
  00021	8b 45 f8	 mov	 eax, DWORD PTR tv66[ebp]
  00024	8b e5		 mov	 esp, ebp
  00026	5d		 pop	 ebp
  00027	c3		 ret	 0
?GetSafeHandle@CGdiObject@@QBEPAXXZ ENDP		; CGdiObject::GetSafeHandle
_TEXT	ENDS
EXTRN	__imp__GetClientRect@8:NEAR
; Function compile flags: /Odt
; File d:\program files (x86)\microsoft visual studio .net 2003\vc7\atlmfc\include\afxwin2.inl
;	COMDAT ?GetClientRect@CWnd@@QBEXPAUtagRECT@@@Z
_TEXT	SEGMENT
_this$ = -4						; size = 4
_lpRect$ = 8						; size = 4
?GetClientRect@CWnd@@QBEXPAUtagRECT@@@Z PROC NEAR	; CWnd::GetClientRect, COMDAT
; _this$ = ecx

; 107  : 	{ ASSERT(::IsWindow(m_hWnd)); ::GetClientRect(m_hWnd, lpRect); }

  00000	55		 push	 ebp
  00001	8b ec		 mov	 ebp, esp
  00003	51		 push	 ecx
  00004	89 4d fc	 mov	 DWORD PTR _this$[ebp], ecx
  00007	8b 45 08	 mov	 eax, DWORD PTR _lpRect$[ebp]
  0000a	50		 push	 eax
  0000b	8b 4d fc	 mov	 ecx, DWORD PTR _this$[ebp]
  0000e	8b 51 20	 mov	 edx, DWORD PTR [ecx+32]
  00011	52		 push	 edx
  00012	ff 15 00 00 00
	00		 call	 DWORD PTR __imp__GetClientRect@8
  00018	8b e5		 mov	 esp, ebp
  0001a	5d		 pop	 ebp
  0001b	c2 04 00	 ret	 4
?GetClientRect@CWnd@@QBEXPAUtagRECT@@@Z ENDP		; CWnd::GetClientRect
_TEXT	ENDS
EXTRN	?Default@CWnd@@IAEJXZ:NEAR			; CWnd::Default
; Function compile flags: /Odt
;	COMDAT ?OnCreate@CWnd@@IAEHPAUtagCREATESTRUCTA@@@Z
_TEXT	SEGMENT
_this$ = -4						; size = 4
___formal$ = 8						; size = 4
?OnCreate@CWnd@@IAEHPAUtagCREATESTRUCTA@@@Z PROC NEAR	; CWnd::OnCreate, COMDAT
; _this$ = ecx

; 360  : 	{ return (int)Default(); }

  00000	55		 push	 ebp
  00001	8b ec		 mov	 ebp, esp
  00003	51		 push	 ecx
  00004	89 4d fc	 mov	 DWORD PTR _this$[ebp], ecx
  00007	8b 4d fc	 mov	 ecx, DWORD PTR _this$[ebp]
  0000a	e8 00 00 00 00	 call	 ?Default@CWnd@@IAEJXZ	; CWnd::Default
  0000f	8b e5		 mov	 esp, ebp
  00011	5d		 pop	 ebp
  00012	c2 04 00	 ret	 4
?OnCreate@CWnd@@IAEHPAUtagCREATESTRUCTA@@@Z ENDP	; CWnd::OnCreate
; Function compile flags: /Odt
_TEXT	ENDS
;	COMDAT ?OnSize@CWnd@@IAEXIHH@Z
_TEXT	SEGMENT
_this$ = -4						; size = 4
___formal$ = 8						; size = 4
___formal$ = 12						; size = 4
___formal$ = 16						; size = 4
?OnSize@CWnd@@IAEXIHH@Z PROC NEAR			; CWnd::OnSize, COMDAT
; _this$ = ecx

; 392  : 	{ Default(); }

  00000	55		 push	 ebp
  00001	8b ec		 mov	 ebp, esp
  00003	51		 push	 ecx
  00004	89 4d fc	 mov	 DWORD PTR _this$[ebp], ecx
  00007	8b 4d fc	 mov	 ecx, DWORD PTR _this$[ebp]
  0000a	e8 00 00 00 00	 call	 ?Default@CWnd@@IAEJXZ	; CWnd::Default
  0000f	8b e5		 mov	 esp, ebp
  00011	5d		 pop	 ebp
  00012	c2 0c 00	 ret	 12			; 0000000cH
?OnSize@CWnd@@IAEXIHH@Z ENDP				; CWnd::OnSize
; Function compile flags: /Odt
_TEXT	ENDS
;	COMDAT ?DoDataExchange@CWnd@@MAEXPAVCDataExchange@@@Z
_TEXT	SEGMENT
_this$ = -4						; size = 4
___formal$ = 8						; size = 4
?DoDataExchange@CWnd@@MAEXPAVCDataExchange@@@Z PROC NEAR ; CWnd::DoDataExchange, COMDAT
; _this$ = ecx

; 545  : 	{ } // default does nothing

  00000	55		 push	 ebp
  00001	8b ec		 mov	 ebp, esp
  00003	51		 push	 ecx
  00004	89 4d fc	 mov	 DWORD PTR _this$[ebp], ecx
  00007	8b e5		 mov	 esp, ebp
  00009	5d		 pop	 ebp
  0000a	c2 04 00	 ret	 4
?DoDataExchange@CWnd@@MAEXPAVCDataExchange@@@Z ENDP	; CWnd::DoDataExchange
_TEXT	ENDS
EXTRN	__imp__EnableWindow@8:NEAR
; Function compile flags: /Odt
;	COMDAT ?BeginModalState@CWnd@@UAEXXZ
_TEXT	SEGMENT
_this$ = -4						; size = 4
?BeginModalState@CWnd@@UAEXXZ PROC NEAR			; CWnd::BeginModalState, COMDAT
; _this$ = ecx

; 549  : 	{ ::EnableWindow(m_hWnd, FALSE); }

  00000	55		 push	 ebp
  00001	8b ec		 mov	 ebp, esp
  00003	51		 push	 ecx
  00004	89 4d fc	 mov	 DWORD PTR _this$[ebp], ecx
  00007	6a 00		 push	 0
  00009	8b 45 fc	 mov	 eax, DWORD PTR _this$[ebp]
  0000c	8b 48 20	 mov	 ecx, DWORD PTR [eax+32]
  0000f	51		 push	 ecx
  00010	ff 15 00 00 00
	00		 call	 DWORD PTR __imp__EnableWindow@8
  00016	8b e5		 mov	 esp, ebp
  00018	5d		 pop	 ebp
  00019	c3		 ret	 0
?BeginModalState@CWnd@@UAEXXZ ENDP			; CWnd::BeginModalState
; Function compile flags: /Odt
_TEXT	ENDS
;	COMDAT ?EndModalState@CWnd@@UAEXXZ
_TEXT	SEGMENT
_this$ = -4						; size = 4
?EndModalState@CWnd@@UAEXXZ PROC NEAR			; CWnd::EndModalState, COMDAT
; _this$ = ecx

; 551  : 	{ ::EnableWindow(m_hWnd, TRUE); }

  00000	55		 push	 ebp
  00001	8b ec		 mov	 ebp, esp
  00003	51		 push	 ecx
  00004	89 4d fc	 mov	 DWORD PTR _this$[ebp], ecx
  00007	6a 01		 push	 1
  00009	8b 45 fc	 mov	 eax, DWORD PTR _this$[ebp]
  0000c	8b 48 20	 mov	 ecx, DWORD PTR [eax+32]
  0000f	51		 push	 ecx
  00010	ff 15 00 00 00
	00		 call	 DWORD PTR __imp__EnableWindow@8
  00016	8b e5		 mov	 esp, ebp
  00018	5d		 pop	 ebp
  00019	c3		 ret	 0
?EndModalState@CWnd@@UAEXXZ ENDP			; CWnd::EndModalState
_TEXT	ENDS
END
