; Listing generated by Microsoft (R) Optimizing Compiler Version 13.10.3077 

	TITLE	.\src\module\GamePanel\GamePanelWnd.cpp
	.386P
include listing.inc
if @Version gt 510
.model FLAT
else
_TEXT	SEGMENT PARA USE32 PUBLIC 'CODE'
_TEXT	ENDS
_DATA	SEGMENT DWORD USE32 PUBLIC 'DATA'
_DATA	ENDS
CONST	SEGMENT DWORD USE32 PUBLIC 'CONST'
CONST	ENDS
_BSS	SEGMENT DWORD USE32 PUBLIC 'BSS'
_BSS	ENDS
$$SYMBOLS	SEGMENT BYTE USE32 'DEBSYM'
$$SYMBOLS	ENDS
$$TYPES	SEGMENT BYTE USE32 'DEBTYP'
$$TYPES	ENDS
_TLS	SEGMENT DWORD USE32 PUBLIC 'TLS'
_TLS	ENDS
;	COMDAT ??_C@_02GFKOMOKH@?5?$CI?$AA@
CONST	SEGMENT DWORD USE32 PUBLIC 'CONST'
CONST	ENDS
;	COMDAT ??_C@_01PKGAHCOL@?$CJ?$AA@
CONST	SEGMENT DWORD USE32 PUBLIC 'CONST'
CONST	ENDS
;	COMDAT ??_C@_01ICJEACDI@?$DL?$AA@
CONST	SEGMENT DWORD USE32 PUBLIC 'CONST'
CONST	ENDS
;	COMDAT ??_C@_13PJJBFPED@?$AA?$DL?$AA?$AA@
CONST	SEGMENT DWORD USE32 PUBLIC 'CONST'
CONST	ENDS
;	COMDAT ??_C@_0P@CLMBAKJD@JSCall?5Error?3?6?$AA@
CONST	SEGMENT DWORD USE32 PUBLIC 'CONST'
CONST	ENDS
;	COMDAT ??_C@_08OLHMJGAF@stop?4swf?$AA@
CONST	SEGMENT DWORD USE32 PUBLIC 'CONST'
CONST	ENDS
;	COMDAT ??_C@_0M@DBEKFKCI@loading?4swf?$AA@
CONST	SEGMENT DWORD USE32 PUBLIC 'CONST'
CONST	ENDS
;	COMDAT ??_C@_0BH@PCLJNBEP@?2Resources?2StandardUI?2?$AA@
CONST	SEGMENT DWORD USE32 PUBLIC 'CONST'
CONST	ENDS
;	COMDAT ??_C@_0BD@OLBABOEK@vector?$DMT?$DO?5too?5long?$AA@
CONST	SEGMENT DWORD USE32 PUBLIC 'CONST'
CONST	ENDS
rdata$r	SEGMENT DWORD USE32 PUBLIC 'CONST'
rdata$r	ENDS
xdata$x	SEGMENT DWORD USE32 PUBLIC 'CONST'
xdata$x	ENDS
text$AFX_COL1	SEGMENT PARA USE32 PUBLIC ''
text$AFX_COL1	ENDS
text$yc	SEGMENT PARA USE32 PUBLIC 'CODE'
text$yc	ENDS
CRT$XCA	SEGMENT DWORD USE32 PUBLIC 'DATA'
CRT$XCA	ENDS
CRT$XCU	SEGMENT DWORD USE32 PUBLIC 'DATA'
CRT$XCU	ENDS
CRT$XCL	SEGMENT DWORD USE32 PUBLIC 'DATA'
CRT$XCL	ENDS
CRT$XCC	SEGMENT DWORD USE32 PUBLIC 'DATA'
CRT$XCC	ENDS
CRT$XCZ	SEGMENT DWORD USE32 PUBLIC 'DATA'
CRT$XCZ	ENDS
text$yd	SEGMENT PARA USE32 PUBLIC 'CODE'
text$yd	ENDS
ATL$__m	SEGMENT DWORD USE32 PUBLIC ''
ATL$__m	ENDS
ATL$__z	SEGMENT DWORD USE32 PUBLIC ''
ATL$__z	ENDS
ATL$__a	SEGMENT DWORD USE32 PUBLIC ''
ATL$__a	ENDS
;	COMDAT ??1CAtlStringMgr@ATL@@UAE@XZ
_TEXT	SEGMENT PARA USE32 PUBLIC 'CODE'
_TEXT	ENDS
;	COMDAT ?Allocate@CAtlStringMgr@ATL@@UAEPAUCStringData@2@HH@Z
_TEXT	SEGMENT PARA USE32 PUBLIC 'CODE'
_TEXT	ENDS
;	COMDAT ?Free@CAtlStringMgr@ATL@@UAEXPAUCStringData@2@@Z
_TEXT	SEGMENT PARA USE32 PUBLIC 'CODE'
_TEXT	ENDS
;	COMDAT ?Reallocate@CAtlStringMgr@ATL@@UAEPAUCStringData@2@PAU32@HH@Z
_TEXT	SEGMENT PARA USE32 PUBLIC 'CODE'
_TEXT	ENDS
;	COMDAT ?GetNilString@CAtlStringMgr@ATL@@UAEPAUCStringData@2@XZ
_TEXT	SEGMENT PARA USE32 PUBLIC 'CODE'
_TEXT	ENDS
;	COMDAT ?Clone@CAtlStringMgr@ATL@@UAEPAUIAtlStringMgr@2@XZ
_TEXT	SEGMENT PARA USE32 PUBLIC 'CODE'
_TEXT	ENDS
;	COMDAT ??_GCAtlStringMgr@ATL@@UAEPAXI@Z
_TEXT	SEGMENT PARA USE32 PUBLIC 'CODE'
_TEXT	ENDS
;	COMDAT ?CompareStringW@?$ChTraitsOS@_W@ATL@@KGHKKPB_WH0H@Z
_TEXT	SEGMENT PARA USE32 PUBLIC 'CODE'
_TEXT	ENDS
;	COMDAT ?GetStringTypeExW@?$ChTraitsOS@_W@ATL@@KGHKKPB_WHPAG@Z
_TEXT	SEGMENT PARA USE32 PUBLIC 'CODE'
_TEXT	ENDS
;	COMDAT ?lstrcmpiW@?$ChTraitsOS@_W@ATL@@KGHPB_W0@Z
_TEXT	SEGMENT PARA USE32 PUBLIC 'CODE'
_TEXT	ENDS
;	COMDAT ?CharLowerW@?$ChTraitsOS@_W@ATL@@KGPA_WPA_W@Z
_TEXT	SEGMENT PARA USE32 PUBLIC 'CODE'
_TEXT	ENDS
;	COMDAT ?CharUpperW@?$ChTraitsOS@_W@ATL@@KGPA_WPA_W@Z
_TEXT	SEGMENT PARA USE32 PUBLIC 'CODE'
_TEXT	ENDS
;	COMDAT ?strchr@?$ChTraitsOS@_W@ATL@@SAPB_WPB_W_W@Z
_TEXT	SEGMENT PARA USE32 PUBLIC 'CODE'
_TEXT	ENDS
;	COMDAT ?strrchr@?$ChTraitsOS@_W@ATL@@SAPB_WPB_W_W@Z
_TEXT	SEGMENT PARA USE32 PUBLIC 'CODE'
_TEXT	ENDS
;	COMDAT ?_strrev@?$ChTraitsOS@_W@ATL@@SAPA_WPA_W@Z
_TEXT	SEGMENT PARA USE32 PUBLIC 'CODE'
_TEXT	ENDS
;	COMDAT ?strstr@?$ChTraitsOS@_W@ATL@@SAPB_WPB_W0@Z
_TEXT	SEGMENT PARA USE32 PUBLIC 'CODE'
_TEXT	ENDS
;	COMDAT ?strspn@?$ChTraitsOS@_W@ATL@@SAHPB_W0@Z
_TEXT	SEGMENT PARA USE32 PUBLIC 'CODE'
_TEXT	ENDS
;	COMDAT ?strcspn@?$ChTraitsOS@_W@ATL@@SAHPB_W0@Z
_TEXT	SEGMENT PARA USE32 PUBLIC 'CODE'
_TEXT	ENDS
;	COMDAT ?strpbrk@?$ChTraitsOS@_W@ATL@@SAPB_WPB_W0@Z
_TEXT	SEGMENT PARA USE32 PUBLIC 'CODE'
_TEXT	ENDS
;	COMDAT ?StringFindString@?$ChTraitsOS@_W@ATL@@SAPB_WPB_W0@Z
_TEXT	SEGMENT PARA USE32 PUBLIC 'CODE'
_TEXT	ENDS
;	COMDAT ?ComputePitch@CImage@ATL@@CAHHH@Z
_TEXT	SEGMENT PARA USE32 PUBLIC 'CODE'
_TEXT	ENDS
;	COMDAT ?Init@CInitGDIPlus@CImage@ATL@@QAE_NXZ
_TEXT	SEGMENT PARA USE32 PUBLIC 'CODE'
_TEXT	ENDS
;	COMDAT ?ReleaseGDIPlus@CInitGDIPlus@CImage@ATL@@QAEXXZ
_TEXT	SEGMENT PARA USE32 PUBLIC 'CODE'
_TEXT	ENDS
;	COMDAT ?IncreaseCImageCount@CInitGDIPlus@CImage@ATL@@QAEXXZ
_TEXT	SEGMENT PARA USE32 PUBLIC 'CODE'
_TEXT	ENDS
;	COMDAT ?DecreaseCImageCount@CInitGDIPlus@CImage@ATL@@QAEXXZ
_TEXT	SEGMENT PARA USE32 PUBLIC 'CODE'
_TEXT	ENDS
;	COMDAT ?GetDC@CDCCache@CImage@ATL@@QAEPAUHDC__@@XZ
_TEXT	SEGMENT PARA USE32 PUBLIC 'CODE'
_TEXT	ENDS
;	COMDAT ?ReleaseDC@CDCCache@CImage@ATL@@QAEXPAUHDC__@@@Z
_TEXT	SEGMENT PARA USE32 PUBLIC 'CODE'
_TEXT	ENDS
;	COMDAT ??0CImage@ATL@@QAE@XZ
_TEXT	SEGMENT PARA USE32 PUBLIC 'CODE'
_TEXT	ENDS
;	COMDAT ??_GCImage@ATL@@UAEPAXI@Z
_TEXT	SEGMENT PARA USE32 PUBLIC 'CODE'
_TEXT	ENDS
;	COMDAT ??1CImage@ATL@@UAE@XZ
_TEXT	SEGMENT PARA USE32 PUBLIC 'CODE'
_TEXT	ENDS
;	COMDAT ?AlphaBlend@CImage@ATL@@QBEHPAUHDC__@@HHHHHHHHEE@Z
_TEXT	SEGMENT PARA USE32 PUBLIC 'CODE'
_TEXT	ENDS
;	COMDAT ?Attach@CImage@ATL@@QAEXPAUHBITMAP__@@W4DIBOrientation@12@@Z
_TEXT	SEGMENT PARA USE32 PUBLIC 'CODE'
_TEXT	ENDS
;	COMDAT ?BitBlt@CImage@ATL@@QBEHPAUHDC__@@HHHHHHK@Z
_TEXT	SEGMENT PARA USE32 PUBLIC 'CODE'
_TEXT	ENDS
;	COMDAT ?Create@CImage@ATL@@QAEHHHHK@Z
_TEXT	SEGMENT PARA USE32 PUBLIC 'CODE'
_TEXT	ENDS
;	COMDAT ?CreateEx@CImage@ATL@@QAEHHHHKPBKK@Z
_TEXT	SEGMENT PARA USE32 PUBLIC 'CODE'
_TEXT	ENDS
;	COMDAT ?Destroy@CImage@ATL@@QAEXXZ
_TEXT	SEGMENT PARA USE32 PUBLIC 'CODE'
_TEXT	ENDS
;	COMDAT ?Detach@CImage@ATL@@QAEPAUHBITMAP__@@XZ
_TEXT	SEGMENT PARA USE32 PUBLIC 'CODE'
_TEXT	ENDS
;	COMDAT ?Draw@CImage@ATL@@QBEHPAUHDC__@@HHHHHHHH@Z
_TEXT	SEGMENT PARA USE32 PUBLIC 'CODE'
_TEXT	ENDS
;	COMDAT ?GetBits@CImage@ATL@@QAEPAXXZ
_TEXT	SEGMENT PARA USE32 PUBLIC 'CODE'
_TEXT	ENDS
;	COMDAT ?GetDC@CImage@ATL@@QBEPAUHDC__@@XZ
_TEXT	SEGMENT PARA USE32 PUBLIC 'CODE'
_TEXT	ENDS
;	COMDAT ?ShouldExcludeFormat@CImage@ATL@@CA_NABU_GUID@@K@Z
_TEXT	SEGMENT PARA USE32 PUBLIC 'CODE'
_TEXT	ENDS
;	COMDAT ?BuildCodecFilterString@CImage@ATL@@CAXPBVImageCodecInfo@Gdiplus@@IAAV?$CSimpleStringT@D$0A@@2@AAV?$CSimpleArray@U_GUID@@V?$CSimpleArrayEqualHelper@U_GUID@@@ATL@@@2@PBDKD@Z
_TEXT	SEGMENT PARA USE32 PUBLIC 'CODE'
_TEXT	ENDS
;	COMDAT ?GetHeight@CImage@ATL@@QBEHXZ
_TEXT	SEGMENT PARA USE32 PUBLIC 'CODE'
_TEXT	ENDS
;	COMDAT ?GetPitch@CImage@ATL@@QBEHXZ
_TEXT	SEGMENT PARA USE32 PUBLIC 'CODE'
_TEXT	ENDS
;	COMDAT ?GetWidth@CImage@ATL@@QBEHXZ
_TEXT	SEGMENT PARA USE32 PUBLIC 'CODE'
_TEXT	ENDS
;	COMDAT ?IsIndexed@CImage@ATL@@QBE_NXZ
_TEXT	SEGMENT PARA USE32 PUBLIC 'CODE'
_TEXT	ENDS
;	COMDAT ?CreateFromGdiplusBitmap@CImage@ATL@@AAEJAAVBitmap@Gdiplus@@@Z
_TEXT	SEGMENT PARA USE32 PUBLIC 'CODE'
_TEXT	ENDS
;	COMDAT ?LoadFromResource@CImage@ATL@@QAEXPAUHINSTANCE__@@PBD@Z
_TEXT	SEGMENT PARA USE32 PUBLIC 'CODE'
_TEXT	ENDS
;	COMDAT ?MaskBlt@CImage@ATL@@QBEHPAUHDC__@@HHHHHHPAUHBITMAP__@@HHK@Z
_TEXT	SEGMENT PARA USE32 PUBLIC 'CODE'
_TEXT	ENDS
;	COMDAT ?PlgBlt@CImage@ATL@@QBEHPAUHDC__@@PBUtagPOINT@@HHHHPAUHBITMAP__@@HH@Z
_TEXT	SEGMENT PARA USE32 PUBLIC 'CODE'
_TEXT	ENDS
;	COMDAT ?ReleaseDC@CImage@ATL@@QBEXXZ
_TEXT	SEGMENT PARA USE32 PUBLIC 'CODE'
_TEXT	ENDS
;	COMDAT ?FindCodecForExtension@CImage@ATL@@CA?AU_GUID@@PBDPBVImageCodecInfo@Gdiplus@@I@Z
_TEXT	SEGMENT PARA USE32 PUBLIC 'CODE'
_TEXT	ENDS
;	COMDAT ?FindCodecForFileType@CImage@ATL@@CA?AU_GUID@@ABU3@PBVImageCodecInfo@Gdiplus@@I@Z
_TEXT	SEGMENT PARA USE32 PUBLIC 'CODE'
_TEXT	ENDS
;	COMDAT ?Save@CImage@ATL@@QBEJPBDABU_GUID@@@Z
_TEXT	SEGMENT PARA USE32 PUBLIC 'CODE'
_TEXT	ENDS
;	COMDAT ?SetColorTable@CImage@ATL@@QAEXIIPBUtagRGBQUAD@@@Z
_TEXT	SEGMENT PARA USE32 PUBLIC 'CODE'
_TEXT	ENDS
;	COMDAT ?SetPixel@CImage@ATL@@QAEXHHK@Z
_TEXT	SEGMENT PARA USE32 PUBLIC 'CODE'
_TEXT	ENDS
;	COMDAT ?StretchBlt@CImage@ATL@@QBEHPAUHDC__@@HHHHHHHHK@Z
_TEXT	SEGMENT PARA USE32 PUBLIC 'CODE'
_TEXT	ENDS
;	COMDAT ?TransparentBlt@CImage@ATL@@QBEHPAUHDC__@@HHHHI@Z
_TEXT	SEGMENT PARA USE32 PUBLIC 'CODE'
_TEXT	ENDS
;	COMDAT ?TransparentBlt@CImage@ATL@@QBEHPAUHDC__@@HHHHHHHHI@Z
_TEXT	SEGMENT PARA USE32 PUBLIC 'CODE'
_TEXT	ENDS
;	COMDAT ?IsTransparencySupported@CImage@ATL@@SAHXZ
_TEXT	SEGMENT PARA USE32 PUBLIC 'CODE'
_TEXT	ENDS
;	COMDAT ?UpdateBitmapInfo@CImage@ATL@@AAEXW4DIBOrientation@12@@Z
_TEXT	SEGMENT PARA USE32 PUBLIC 'CODE'
_TEXT	ENDS
;	COMDAT ?GetTransparentRGB@CImage@ATL@@ABEKXZ
_TEXT	SEGMENT PARA USE32 PUBLIC 'CODE'
_TEXT	ENDS
;	COMDAT ?InitGDIPlus@CImage@ATL@@CA_NXZ
_TEXT	SEGMENT PARA USE32 PUBLIC 'CODE'
_TEXT	ENDS
;	COMDAT ?ILayoutChangeOb_LayerChanged@ILayoutChangeObserver@@UAEXV?$basic_string@DU?$char_traits@D@std@@V?$allocator@D@2@@std@@00@Z
_TEXT	SEGMENT PARA USE32 PUBLIC 'CODE'
_TEXT	ENDS
;	COMDAT ?ILayoutChangeOb_PaneChanged@ILayoutChangeObserver@@UAEXV?$basic_string@DU?$char_traits@D@std@@V?$allocator@D@2@@std@@0@Z
_TEXT	SEGMENT PARA USE32 PUBLIC 'CODE'
_TEXT	ENDS
;	COMDAT ?ILayoutChangeOb_SkinChanged@ILayoutChangeObserver@@UAEXV?$basic_string@DU?$char_traits@D@std@@V?$allocator@D@2@@std@@0@Z
_TEXT	SEGMENT PARA USE32 PUBLIC 'CODE'
_TEXT	ENDS
;	COMDAT ?ILayoutChangeOb_ColorChanged@ILayoutChangeObserver@@UAEXXZ
_TEXT	SEGMENT PARA USE32 PUBLIC 'CODE'
_TEXT	ENDS
;	COMDAT ?ILayoutChangeOb_ColorChanging@ILayoutChangeObserver@@UAEXXZ
_TEXT	SEGMENT PARA USE32 PUBLIC 'CODE'
_TEXT	ENDS
;	COMDAT ?ILayoutChangeOb_UpdateLayout@ILayoutChangeObserver@@UAEXPAUHWND__@@@Z
_TEXT	SEGMENT PARA USE32 PUBLIC 'CODE'
_TEXT	ENDS
;	COMDAT ?ILayoutChangeOb_InitFinished@ILayoutChangeObserver@@UAEXXZ
_TEXT	SEGMENT PARA USE32 PUBLIC 'CODE'
_TEXT	ENDS
;	COMDAT ?ILayoutChangeOb_InitBegin@ILayoutChangeObserver@@UAEXXZ
_TEXT	SEGMENT PARA USE32 PUBLIC 'CODE'
_TEXT	ENDS
;	COMDAT ?IPanelChangeOb_WindowMax@IPanelChangeObserver@@UAEXXZ
_TEXT	SEGMENT PARA USE32 PUBLIC 'CODE'
_TEXT	ENDS
;	COMDAT ?IPanelChangeOb_WindowMin@IPanelChangeObserver@@UAEXXZ
_TEXT	SEGMENT PARA USE32 PUBLIC 'CODE'
_TEXT	ENDS
;	COMDAT ?IPanelChangeOb_WindowRestore@IPanelChangeObserver@@UAEXXZ
_TEXT	SEGMENT PARA USE32 PUBLIC 'CODE'
_TEXT	ENDS
;	COMDAT ?IPanelChangeOb_WindowClose@IPanelChangeObserver@@UAEXXZ
_TEXT	SEGMENT PARA USE32 PUBLIC 'CODE'
_TEXT	ENDS
;	COMDAT ?IPanelChangeOb_ToFullScreen@IPanelChangeObserver@@UAEXPAVCWnd@@@Z
_TEXT	SEGMENT PARA USE32 PUBLIC 'CODE'
_TEXT	ENDS
;	COMDAT ?IPanelChangeOb_ExitFullScreen@IPanelChangeObserver@@UAEXPAVCWnd@@@Z
_TEXT	SEGMENT PARA USE32 PUBLIC 'CODE'
_TEXT	ENDS
;	COMDAT ??1HTTPObserver@@UAE@XZ
_TEXT	SEGMENT PARA USE32 PUBLIC 'CODE'
_TEXT	ENDS
;	COMDAT ?HTTPOb_DownStart@HTTPObserver@@UAEXPBD0I@Z
_TEXT	SEGMENT PARA USE32 PUBLIC 'CODE'
_TEXT	ENDS
;	COMDAT ?HTTPOb_DownFinish@HTTPObserver@@UAEXPBD@Z
_TEXT	SEGMENT PARA USE32 PUBLIC 'CODE'
_TEXT	ENDS
;	COMDAT ?HTTPOb_DownFailed@HTTPObserver@@UAEXPBDW4HTTP_DOWN_FAILED_REASON@@@Z
_TEXT	SEGMENT PARA USE32 PUBLIC 'CODE'
_TEXT	ENDS
;	COMDAT ?HTTPOb_DownProgress@HTTPObserver@@UAEXPBDII@Z
_TEXT	SEGMENT PARA USE32 PUBLIC 'CODE'
_TEXT	ENDS
;	COMDAT ?HTTPOb_DownloadPause@HTTPObserver@@UAEXPBD@Z
_TEXT	SEGMENT PARA USE32 PUBLIC 'CODE'
_TEXT	ENDS
;	COMDAT ??_GHTTPObserver@@UAEPAXI@Z
_TEXT	SEGMENT PARA USE32 PUBLIC 'CODE'
_TEXT	ENDS
;	COMDAT ?GetClsid@CShockwaveFlash@@QAEABU_GUID@@XZ
_TEXT	SEGMENT PARA USE32 PUBLIC 'CODE'
_TEXT	ENDS
;	COMDAT ?Create@CShockwaveFlash@@UAEHPBD0KABUtagRECT@@PAVCWnd@@IPAUCCreateContext@@@Z
_TEXT	SEGMENT PARA USE32 PUBLIC 'CODE'
_TEXT	ENDS
;	COMDAT ??0CCustomControlSite@@QAE@PAVCOleControlContainer@@@Z
_TEXT	SEGMENT PARA USE32 PUBLIC 'CODE'
_TEXT	ENDS
;	COMDAT ??_GCCustomControlSite@@UAEPAXI@Z
_TEXT	SEGMENT PARA USE32 PUBLIC 'CODE'
_TEXT	ENDS
;	COMDAT ??0XDocHostShowUI@CCustomControlSite@@QAE@XZ
_TEXT	SEGMENT PARA USE32 PUBLIC 'CODE'
_TEXT	ENDS
;	COMDAT ??0XDocHostUIHandler@CCustomControlSite@@QAE@XZ
_TEXT	SEGMENT PARA USE32 PUBLIC 'CODE'
_TEXT	ENDS
;	COMDAT ??1CCustomControlSite@@UAE@XZ
_TEXT	SEGMENT PARA USE32 PUBLIC 'CODE'
_TEXT	ENDS
;	COMDAT ??0IDocHostShowUI@@QAE@XZ
_TEXT	SEGMENT PARA USE32 PUBLIC 'CODE'
_TEXT	ENDS
;	COMDAT ??0IDocHostUIHandler@@QAE@XZ
_TEXT	SEGMENT PARA USE32 PUBLIC 'CODE'
_TEXT	ENDS
;	COMDAT ?CreateSite@CCustomOccManager@@UAEPAVCOleControlSite@@PAVCOleControlContainer@@@Z
_TEXT	SEGMENT PARA USE32 PUBLIC 'CODE'
_TEXT	ENDS
;	COMDAT ??_GCCustomOccManager@@UAEPAXI@Z
_TEXT	SEGMENT PARA USE32 PUBLIC 'CODE'
_TEXT	ENDS
;	COMDAT ??0COccManager@@QAE@XZ
_TEXT	SEGMENT PARA USE32 PUBLIC 'CODE'
_TEXT	ENDS
;	COMDAT ??1COccManager@@UAE@XZ
_TEXT	SEGMENT PARA USE32 PUBLIC 'CODE'
_TEXT	ENDS
;	COMDAT ??1CCustomOccManager@@UAE@XZ
_TEXT	SEGMENT PARA USE32 PUBLIC 'CODE'
_TEXT	ENDS
;	COMDAT ??_GCOccManager@@UAEPAXI@Z
_TEXT	SEGMENT PARA USE32 PUBLIC 'CODE'
_TEXT	ENDS
;	COMDAT ??0CNoTrackObject@@QAE@XZ
_TEXT	SEGMENT PARA USE32 PUBLIC 'CODE'
_TEXT	ENDS
;	COMDAT _$E5
text$yc	SEGMENT PARA USE32 PUBLIC 'CODE'
text$yc	ENDS
;	COMDAT ??1IData@@MAE@XZ
_TEXT	SEGMENT PARA USE32 PUBLIC 'CODE'
_TEXT	ENDS
;	COMDAT ?DataAppStart@IData@@UAEXXZ
_TEXT	SEGMENT PARA USE32 PUBLIC 'CODE'
_TEXT	ENDS
;	COMDAT ?DataAppExit@IData@@UAEXXZ
_TEXT	SEGMENT PARA USE32 PUBLIC 'CODE'
_TEXT	ENDS
;	COMDAT ??_GIData@@MAEPAXI@Z
_TEXT	SEGMENT PARA USE32 PUBLIC 'CODE'
_TEXT	ENDS
;	COMDAT ??0OneLocalGame@@QAE@XZ
_TEXT	SEGMENT PARA USE32 PUBLIC 'CODE'
_TEXT	ENDS
;	COMDAT ?clear@OneLocalGame@@QAEXXZ
_TEXT	SEGMENT PARA USE32 PUBLIC 'CODE'
_TEXT	ENDS
;	COMDAT ?Nothing@GlobalSwfPath@@SA?AV?$CStringT@DV?$StrTraitMFC_DLL@DV?$ChTraitsCRT@D@ATL@@@@@ATL@@XZ
_TEXT	SEGMENT PARA USE32 PUBLIC 'CODE'
_TEXT	ENDS
;	COMDAT ?GetSwfPath@GlobalSwfPath@@SA?AV?$CStringT@DV?$StrTraitMFC_DLL@DV?$ChTraitsCRT@D@ATL@@@@@ATL@@XZ
_TEXT	SEGMENT PARA USE32 PUBLIC 'CODE'
_TEXT	ENDS
;	COMDAT ?Unlock@CSyncObject@@UAEHJPAJ@Z
_TEXT	SEGMENT PARA USE32 PUBLIC 'CODE'
_TEXT	ENDS
;	COMDAT ?Init@CCriticalSection@@AAEHXZ
_TEXT	SEGMENT PARA USE32 PUBLIC 'CODE'
_TEXT	ENDS
;	COMDAT ??_GCCriticalSection@@UAEPAXI@Z
_TEXT	SEGMENT PARA USE32 PUBLIC 'CODE'
_TEXT	ENDS
;	COMDAT ??1CCriticalSection@@UAE@XZ
_TEXT	SEGMENT PARA USE32 PUBLIC 'CODE'
_TEXT	ENDS
;	COMDAT ?Lock@CCriticalSection@@QAEHXZ
_TEXT	SEGMENT PARA USE32 PUBLIC 'CODE'
_TEXT	ENDS
;	COMDAT ?Lock@CCriticalSection@@UAEHK@Z
_TEXT	SEGMENT PARA USE32 PUBLIC 'CODE'
_TEXT	ENDS
;	COMDAT ?Unlock@CCriticalSection@@UAEHXZ
_TEXT	SEGMENT PARA USE32 PUBLIC 'CODE'
_TEXT	ENDS
;	COMDAT ??1IAdData@@MAE@XZ
_TEXT	SEGMENT PARA USE32 PUBLIC 'CODE'
_TEXT	ENDS
;	COMDAT ??_GIAdData@@MAEPAXI@Z
_TEXT	SEGMENT PARA USE32 PUBLIC 'CODE'
_TEXT	ENDS
;	COMDAT ??_GGamePanelWnd@@UAEPAXI@Z
_TEXT	SEGMENT PARA USE32 PUBLIC 'CODE'
_TEXT	ENDS
;	COMDAT ??0ILayoutChangeObserver@@QAE@XZ
_TEXT	SEGMENT PARA USE32 PUBLIC 'CODE'
_TEXT	ENDS
;	COMDAT ??1ILayoutChangeObserver@@UAE@XZ
_TEXT	SEGMENT PARA USE32 PUBLIC 'CODE'
_TEXT	ENDS
;	COMDAT ??0IHttpDownObserver@@QAE@XZ
_TEXT	SEGMENT PARA USE32 PUBLIC 'CODE'
_TEXT	ENDS
;	COMDAT ??1IHttpDownObserver@@UAE@XZ
_TEXT	SEGMENT PARA USE32 PUBLIC 'CODE'
_TEXT	ENDS
;	COMDAT ??0IPanelChangeObserver@@QAE@XZ
_TEXT	SEGMENT PARA USE32 PUBLIC 'CODE'
_TEXT	ENDS
;	COMDAT ??1IPanelChangeObserver@@UAE@XZ
_TEXT	SEGMENT PARA USE32 PUBLIC 'CODE'
_TEXT	ENDS
;	COMDAT ??0SWF_GAME@@QAE@XZ
_TEXT	SEGMENT PARA USE32 PUBLIC 'CODE'
_TEXT	ENDS
;	COMDAT ??1SWF_GAME@@QAE@XZ
_TEXT	SEGMENT PARA USE32 PUBLIC 'CODE'
_TEXT	ENDS
;	COMDAT ??0CShockwaveFlash@@QAE@XZ
_TEXT	SEGMENT PARA USE32 PUBLIC 'CODE'
_TEXT	ENDS
;	COMDAT ??_GILayoutChangeObserver@@UAEPAXI@Z
_TEXT	SEGMENT PARA USE32 PUBLIC 'CODE'
_TEXT	ENDS
;	COMDAT ??0IMessageObserver@@QAE@XZ
_TEXT	SEGMENT PARA USE32 PUBLIC 'CODE'
_TEXT	ENDS
;	COMDAT ??_GIHttpDownObserver@@UAEPAXI@Z
_TEXT	SEGMENT PARA USE32 PUBLIC 'CODE'
_TEXT	ENDS
;	COMDAT ??_GIPanelChangeObserver@@UAEPAXI@Z
_TEXT	SEGMENT PARA USE32 PUBLIC 'CODE'
_TEXT	ENDS
;	COMDAT ??_GCShockwaveFlash@@UAEPAXI@Z
_TEXT	SEGMENT PARA USE32 PUBLIC 'CODE'
_TEXT	ENDS
;	COMDAT ??1CShockwaveFlash@@UAE@XZ
_TEXT	SEGMENT PARA USE32 PUBLIC 'CODE'
_TEXT	ENDS
;	COMDAT ??1TAB_ITEM@@QAE@XZ
_TEXT	SEGMENT PARA USE32 PUBLIC 'CODE'
_TEXT	ENDS
;	COMDAT ??0SWF_GAME@@QAE@ABU0@@Z
_TEXT	SEGMENT PARA USE32 PUBLIC 'CODE'
_TEXT	ENDS
;	COMDAT ??1OneLocalGame@@QAE@XZ
_TEXT	SEGMENT PARA USE32 PUBLIC 'CODE'
_TEXT	ENDS
;	COMDAT ??4SWF_GAME@@QAEAAU0@ABU0@@Z
_TEXT	SEGMENT PARA USE32 PUBLIC 'CODE'
_TEXT	ENDS
;	COMDAT ??HATL@@YA?AV?$CStringT@DV?$StrTraitMFC_DLL@DV?$ChTraitsCRT@D@ATL@@@@@0@ABV10@PBD@Z
_TEXT	SEGMENT PARA USE32 PUBLIC 'CODE'
_TEXT	ENDS
;	COMDAT ??HATL@@YA?AV?$CStringT@DV?$StrTraitMFC_DLL@DV?$ChTraitsCRT@D@ATL@@@@@0@PBDABV10@@Z
_TEXT	SEGMENT PARA USE32 PUBLIC 'CODE'
_TEXT	ENDS
;	COMDAT ??Y?$CSimpleStringT@D$0A@@ATL@@QAEAAV01@PBD@Z
_TEXT	SEGMENT PARA USE32 PUBLIC 'CODE'
_TEXT	ENDS
;	COMDAT ??Y?$CSimpleStringT@D$0A@@ATL@@QAEAAV01@D@Z
_TEXT	SEGMENT PARA USE32 PUBLIC 'CODE'
_TEXT	ENDS
;	COMDAT ??B?$CComPtrBase@UITypeInfo2@@@ATL@@QBEPAUITypeInfo2@@XZ
_TEXT	SEGMENT PARA USE32 PUBLIC 'CODE'
_TEXT	ENDS
;	COMDAT ??B?$CComPtrBase@UIHTMLDocument2@@@ATL@@QBEPAUIHTMLDocument2@@XZ
_TEXT	SEGMENT PARA USE32 PUBLIC 'CODE'
_TEXT	ENDS
;	COMDAT ?equal@?$istreambuf_iterator@DU?$char_traits@D@std@@@std@@QBE_NABV12@@Z
_TEXT	SEGMENT PARA USE32 PUBLIC 'CODE'
_TEXT	ENDS
;	COMDAT ?equal@?$istreambuf_iterator@_WU?$char_traits@_W@std@@@std@@QBE_NABV12@@Z
_TEXT	SEGMENT PARA USE32 PUBLIC 'CODE'
_TEXT	ENDS
;	COMDAT ?GetSize@?$CSimpleArray@U_GUID@@V?$CSimpleArrayEqualHelper@U_GUID@@@ATL@@@ATL@@QBEHXZ
_TEXT	SEGMENT PARA USE32 PUBLIC 'CODE'
_TEXT	ENDS
;	COMDAT ?Add@?$CSimpleArray@U_GUID@@V?$CSimpleArrayEqualHelper@U_GUID@@@ATL@@@ATL@@QAEHABU_GUID@@@Z
_TEXT	SEGMENT PARA USE32 PUBLIC 'CODE'
_TEXT	ENDS
;	COMDAT ??0?$CA2WEX@$0IA@@ATL@@QAE@PBD@Z
_TEXT	SEGMENT PARA USE32 PUBLIC 'CODE'
_TEXT	ENDS
;	COMDAT ??1?$CA2WEX@$0IA@@ATL@@QAE@XZ
_TEXT	SEGMENT PARA USE32 PUBLIC 'CODE'
_TEXT	ENDS
;	COMDAT ??B?$CA2WEX@$0IA@@ATL@@QBEPA_WXZ
_TEXT	SEGMENT PARA USE32 PUBLIC 'CODE'
_TEXT	ENDS
;	COMDAT ??0?$vector@V?$basic_string@DU?$char_traits@D@std@@V?$allocator@D@2@@std@@V?$allocator@V?$basic_string@DU?$char_traits@D@std@@V?$allocator@D@2@@std@@@2@@std@@QAE@XZ
_TEXT	SEGMENT PARA USE32 PUBLIC 'CODE'
_TEXT	ENDS
;	COMDAT ??1?$vector@V?$basic_string@DU?$char_traits@D@std@@V?$allocator@D@2@@std@@V?$allocator@V?$basic_string@DU?$char_traits@D@std@@V?$allocator@D@2@@std@@@2@@std@@QAE@XZ
_TEXT	SEGMENT PARA USE32 PUBLIC 'CODE'
_TEXT	ENDS
;	COMDAT ?push_back@?$vector@V?$basic_string@DU?$char_traits@D@std@@V?$allocator@D@2@@std@@V?$allocator@V?$basic_string@DU?$char_traits@D@std@@V?$allocator@D@2@@std@@@2@@std@@QAEXABV?$basic_string@DU?$char_traits@D@std@@V?$allocator@D@2@@2@@Z
_TEXT	SEGMENT PARA USE32 PUBLIC 'CODE'
_TEXT	ENDS
;	COMDAT ?StringCompare@?$ChTraitsCRT@D@ATL@@SAHPBD0@Z
_TEXT	SEGMENT PARA USE32 PUBLIC 'CODE'
_TEXT	ENDS
;	COMDAT ?GetDefaultManager@?$StrTraitMFC_DLL@_WV?$ChTraitsCRT@_W@ATL@@@@SAPAUIAtlStringMgr@ATL@@XZ
_TEXT	SEGMENT PARA USE32 PUBLIC 'CODE'
_TEXT	ENDS
;	COMDAT ?Append@?$CSimpleStringT@D$0A@@ATL@@QAEXPBD@Z
_TEXT	SEGMENT PARA USE32 PUBLIC 'CODE'
_TEXT	ENDS
;	COMDAT ?AppendChar@?$CSimpleStringT@D$0A@@ATL@@QAEXD@Z
_TEXT	SEGMENT PARA USE32 PUBLIC 'CODE'
_TEXT	ENDS
;	COMDAT ??0?$allocator@V?$basic_string@DU?$char_traits@D@std@@V?$allocator@D@2@@std@@@std@@QAE@XZ
_TEXT	SEGMENT PARA USE32 PUBLIC 'CODE'
_TEXT	ENDS
;	COMDAT ?InternalSetAtIndex@?$CSimpleArray@U_GUID@@V?$CSimpleArrayEqualHelper@U_GUID@@@ATL@@@ATL@@QAEXHABU_GUID@@@Z
_TEXT	SEGMENT PARA USE32 PUBLIC 'CODE'
_TEXT	ENDS
;	COMDAT ?Init@?$CA2WEX@$0IA@@ATL@@AAEXPBDI@Z
_TEXT	SEGMENT PARA USE32 PUBLIC 'CODE'
_TEXT	ENDS
;	COMDAT ?capacity@?$vector@V?$basic_string@DU?$char_traits@D@std@@V?$allocator@D@2@@std@@V?$allocator@V?$basic_string@DU?$char_traits@D@std@@V?$allocator@D@2@@std@@@2@@std@@QBEIXZ
_TEXT	SEGMENT PARA USE32 PUBLIC 'CODE'
_TEXT	ENDS
;	COMDAT ?end@?$vector@V?$basic_string@DU?$char_traits@D@std@@V?$allocator@D@2@@std@@V?$allocator@V?$basic_string@DU?$char_traits@D@std@@V?$allocator@D@2@@std@@@2@@std@@QAE?AViterator@12@XZ
_TEXT	SEGMENT PARA USE32 PUBLIC 'CODE'
_TEXT	ENDS
;	COMDAT ?size@?$vector@V?$basic_string@DU?$char_traits@D@std@@V?$allocator@D@2@@std@@V?$allocator@V?$basic_string@DU?$char_traits@D@std@@V?$allocator@D@2@@std@@@2@@std@@QBEIXZ
_TEXT	SEGMENT PARA USE32 PUBLIC 'CODE'
_TEXT	ENDS
;	COMDAT ?insert@?$vector@V?$basic_string@DU?$char_traits@D@std@@V?$allocator@D@2@@std@@V?$allocator@V?$basic_string@DU?$char_traits@D@std@@V?$allocator@D@2@@std@@@2@@std@@QAE?AViterator@12@V312@ABV?$basic_string@DU?$char_traits@D@std@@V?$allocator@D@2@@2@@Z
_TEXT	SEGMENT PARA USE32 PUBLIC 'CODE'
_TEXT	ENDS
;	COMDAT ?_Buy@?$vector@V?$basic_string@DU?$char_traits@D@std@@V?$allocator@D@2@@std@@V?$allocator@V?$basic_string@DU?$char_traits@D@std@@V?$allocator@D@2@@std@@@2@@std@@IAE_NI@Z
_TEXT	SEGMENT PARA USE32 PUBLIC 'CODE'
_TEXT	ENDS
;	COMDAT ?_Tidy@?$vector@V?$basic_string@DU?$char_traits@D@std@@V?$allocator@D@2@@std@@V?$allocator@V?$basic_string@DU?$char_traits@D@std@@V?$allocator@D@2@@std@@@2@@std@@IAEXXZ
_TEXT	SEGMENT PARA USE32 PUBLIC 'CODE'
_TEXT	ENDS
;	COMDAT ?_Ufill@?$vector@V?$basic_string@DU?$char_traits@D@std@@V?$allocator@D@2@@std@@V?$allocator@V?$basic_string@DU?$char_traits@D@std@@V?$allocator@D@2@@std@@@2@@std@@IAEPAV?$basic_string@DU?$char_traits@D@std@@V?$allocator@D@2@@2@PAV32@IABV32@@Z
_TEXT	SEGMENT PARA USE32 PUBLIC 'CODE'
_TEXT	ENDS
;	COMDAT ??0?$_Vector_val@V?$basic_string@DU?$char_traits@D@std@@V?$allocator@D@2@@std@@V?$allocator@V?$basic_string@DU?$char_traits@D@std@@V?$allocator@D@2@@std@@@2@@std@@IAE@V?$allocator@V?$basic_string@DU?$char_traits@D@std@@V?$allocator@D@2@@std@@@1@@Z
_TEXT	SEGMENT PARA USE32 PUBLIC 'CODE'
_TEXT	ENDS
;	COMDAT ?Append@?$CSimpleStringT@D$0A@@ATL@@QAEXPBDH@Z
_TEXT	SEGMENT PARA USE32 PUBLIC 'CODE'
_TEXT	ENDS
;	COMDAT ?GetBuffer@?$CSimpleStringT@D$0A@@ATL@@QAEPADH@Z
_TEXT	SEGMENT PARA USE32 PUBLIC 'CODE'
_TEXT	ENDS
;	COMDAT ?GetLength@?$CSimpleStringT@D$0A@@ATL@@QBEHXZ
_TEXT	SEGMENT PARA USE32 PUBLIC 'CODE'
_TEXT	ENDS
;	COMDAT ?ReleaseBufferSetLength@?$CSimpleStringT@D$0A@@ATL@@QAEXH@Z
_TEXT	SEGMENT PARA USE32 PUBLIC 'CODE'
_TEXT	ENDS
;	COMDAT ?StringLength@?$CSimpleStringT@D$0A@@ATL@@SAHPBD@Z
_TEXT	SEGMENT PARA USE32 PUBLIC 'CODE'
_TEXT	ENDS
;	COMDAT ??0?$allocator@V?$basic_string@DU?$char_traits@D@std@@V?$allocator@D@2@@std@@@std@@QAE@ABV01@@Z
_TEXT	SEGMENT PARA USE32 PUBLIC 'CODE'
_TEXT	ENDS
;	COMDAT ?deallocate@?$allocator@V?$basic_string@DU?$char_traits@D@std@@V?$allocator@D@2@@std@@@std@@QAEXPAV?$basic_string@DU?$char_traits@D@std@@V?$allocator@D@2@@2@I@Z
_TEXT	SEGMENT PARA USE32 PUBLIC 'CODE'
_TEXT	ENDS
;	COMDAT ?allocate@?$allocator@V?$basic_string@DU?$char_traits@D@std@@V?$allocator@D@2@@std@@@std@@QAEPAV?$basic_string@DU?$char_traits@D@std@@V?$allocator@D@2@@2@I@Z
_TEXT	SEGMENT PARA USE32 PUBLIC 'CODE'
_TEXT	ENDS
;	COMDAT ??0iterator@?$basic_string@DU?$char_traits@D@std@@V?$allocator@D@2@@std@@QAE@PAD@Z
_TEXT	SEGMENT PARA USE32 PUBLIC 'CODE'
_TEXT	ENDS
;	COMDAT ?begin@?$vector@V?$basic_string@DU?$char_traits@D@std@@V?$allocator@D@2@@std@@V?$allocator@V?$basic_string@DU?$char_traits@D@std@@V?$allocator@D@2@@std@@@2@@std@@QAE?AViterator@12@XZ
_TEXT	SEGMENT PARA USE32 PUBLIC 'CODE'
_TEXT	ENDS
;	COMDAT ?max_size@?$vector@V?$basic_string@DU?$char_traits@D@std@@V?$allocator@D@2@@std@@V?$allocator@V?$basic_string@DU?$char_traits@D@std@@V?$allocator@D@2@@std@@@2@@std@@QBEIXZ
_TEXT	SEGMENT PARA USE32 PUBLIC 'CODE'
_TEXT	ENDS
;	COMDAT ?_Destroy@?$vector@V?$basic_string@DU?$char_traits@D@std@@V?$allocator@D@2@@std@@V?$allocator@V?$basic_string@DU?$char_traits@D@std@@V?$allocator@D@2@@std@@@2@@std@@IAEXPAV?$basic_string@DU?$char_traits@D@std@@V?$allocator@D@2@@2@0@Z
_TEXT	SEGMENT PARA USE32 PUBLIC 'CODE'
_TEXT	ENDS
;	COMDAT ?_Insert_n@?$vector@V?$basic_string@DU?$char_traits@D@std@@V?$allocator@D@2@@std@@V?$allocator@V?$basic_string@DU?$char_traits@D@std@@V?$allocator@D@2@@std@@@2@@std@@IAEXViterator@12@IABV?$basic_string@DU?$char_traits@D@std@@V?$allocator@D@2@@2@@Z
_TEXT	SEGMENT PARA USE32 PUBLIC 'CODE'
_TEXT	ENDS
;	COMDAT ?_Xlen@?$vector@V?$basic_string@DU?$char_traits@D@std@@V?$allocator@D@2@@std@@V?$allocator@V?$basic_string@DU?$char_traits@D@std@@V?$allocator@D@2@@std@@@2@@std@@IBEXXZ
_TEXT	SEGMENT PARA USE32 PUBLIC 'CODE'
_TEXT	ENDS
;	COMDAT ??0iterator@?$vector@V?$basic_string@DU?$char_traits@D@std@@V?$allocator@D@2@@std@@V?$allocator@V?$basic_string@DU?$char_traits@D@std@@V?$allocator@D@2@@std@@@2@@std@@QAE@PAV?$basic_string@DU?$char_traits@D@std@@V?$allocator@D@2@@2@@Z
_TEXT	SEGMENT PARA USE32 PUBLIC 'CODE'
_TEXT	ENDS
;	COMDAT ??Hiterator@?$vector@V?$basic_string@DU?$char_traits@D@std@@V?$allocator@D@2@@std@@V?$allocator@V?$basic_string@DU?$char_traits@D@std@@V?$allocator@D@2@@std@@@2@@std@@QBE?AV012@H@Z
_TEXT	SEGMENT PARA USE32 PUBLIC 'CODE'
_TEXT	ENDS
;	COMDAT ??Giterator@?$vector@V?$basic_string@DU?$char_traits@D@std@@V?$allocator@D@2@@std@@V?$allocator@V?$basic_string@DU?$char_traits@D@std@@V?$allocator@D@2@@std@@@2@@std@@QBEHABVconst_iterator@12@@Z
_TEXT	SEGMENT PARA USE32 PUBLIC 'CODE'
_TEXT	ENDS
;	COMDAT ??0Wrapper@?$CSimpleArray@U_GUID@@V?$CSimpleArrayEqualHelper@U_GUID@@@ATL@@@ATL@@QAE@ABU_GUID@@@Z
_TEXT	SEGMENT PARA USE32 PUBLIC 'CODE'
_TEXT	ENDS
;	COMDAT ??0length_error@std@@QAE@ABV01@@Z
_TEXT	SEGMENT PARA USE32 PUBLIC 'CODE'
_TEXT	ENDS
;	COMDAT ?FindStringResourceInstance@?$StrTraitMFC_DLL@_WV?$ChTraitsCRT@_W@ATL@@@@SAPAUHINSTANCE__@@I@Z
_TEXT	SEGMENT PARA USE32 PUBLIC 'CODE'
_TEXT	ENDS
;	COMDAT ?GetString@?$CSimpleStringT@D$0A@@ATL@@QBEPBDXZ
_TEXT	SEGMENT PARA USE32 PUBLIC 'CODE'
_TEXT	ENDS
;	COMDAT ?CopyChars@?$CSimpleStringT@D$0A@@ATL@@SAXPADPBDH@Z
_TEXT	SEGMENT PARA USE32 PUBLIC 'CODE'
_TEXT	ENDS
;	COMDAT ?GetData@?$CSimpleStringT@D$0A@@ATL@@ABEPAUCStringData@2@XZ
_TEXT	SEGMENT PARA USE32 PUBLIC 'CODE'
_TEXT	ENDS
;	COMDAT ?PrepareWrite@?$CSimpleStringT@D$0A@@ATL@@AAEPADH@Z
_TEXT	SEGMENT PARA USE32 PUBLIC 'CODE'
_TEXT	ENDS
;	COMDAT ?SetLength@?$CSimpleStringT@D$0A@@ATL@@AAEXH@Z
_TEXT	SEGMENT PARA USE32 PUBLIC 'CODE'
_TEXT	ENDS
;	COMDAT ?max_size@?$allocator@V?$basic_string@DU?$char_traits@D@std@@V?$allocator@D@2@@std@@@std@@QBEIXZ
_TEXT	SEGMENT PARA USE32 PUBLIC 'CODE'
_TEXT	ENDS
;	COMDAT ??0const_iterator@?$basic_string@DU?$char_traits@D@std@@V?$allocator@D@2@@std@@QAE@PBD@Z
_TEXT	SEGMENT PARA USE32 PUBLIC 'CODE'
_TEXT	ENDS
;	COMDAT ??Gconst_iterator@?$basic_string@DU?$char_traits@D@std@@V?$allocator@D@2@@std@@QBEHABV012@@Z
_TEXT	SEGMENT PARA USE32 PUBLIC 'CODE'
_TEXT	ENDS
;	COMDAT ??Yiterator@?$vector@V?$basic_string@DU?$char_traits@D@std@@V?$allocator@D@2@@std@@V?$allocator@V?$basic_string@DU?$char_traits@D@std@@V?$allocator@D@2@@std@@@2@@std@@QAEAAV012@H@Z
_TEXT	SEGMENT PARA USE32 PUBLIC 'CODE'
_TEXT	ENDS
;	COMDAT ??0const_iterator@?$vector@V?$basic_string@DU?$char_traits@D@std@@V?$allocator@D@2@@std@@V?$allocator@V?$basic_string@DU?$char_traits@D@std@@V?$allocator@D@2@@std@@@2@@std@@QAE@PAV?$basic_string@DU?$char_traits@D@std@@V?$allocator@D@2@@2@@Z
_TEXT	SEGMENT PARA USE32 PUBLIC 'CODE'
_TEXT	ENDS
;	COMDAT ??Gconst_iterator@?$vector@V?$basic_string@DU?$char_traits@D@std@@V?$allocator@D@2@@std@@V?$allocator@V?$basic_string@DU?$char_traits@D@std@@V?$allocator@D@2@@std@@@2@@std@@QBEHABV012@@Z
_TEXT	SEGMENT PARA USE32 PUBLIC 'CODE'
_TEXT	ENDS
;	COMDAT ?PrepareWrite2@?$CSimpleStringT@D$0A@@ATL@@AAEXH@Z
_TEXT	SEGMENT PARA USE32 PUBLIC 'CODE'
_TEXT	ENDS
;	COMDAT ?Fork@?$CSimpleStringT@D$0A@@ATL@@AAEXH@Z
_TEXT	SEGMENT PARA USE32 PUBLIC 'CODE'
_TEXT	ENDS
;	COMDAT ?Reallocate@?$CSimpleStringT@D$0A@@ATL@@AAEXH@Z
_TEXT	SEGMENT PARA USE32 PUBLIC 'CODE'
_TEXT	ENDS
;	COMDAT ?ThrowMemoryException@?$CSimpleStringT@D$0A@@ATL@@KAXXZ
_TEXT	SEGMENT PARA USE32 PUBLIC 'CODE'
_TEXT	ENDS
;	COMDAT ?Attach@?$CSimpleStringT@D$0A@@ATL@@AAEXPAUCStringData@2@@Z
_TEXT	SEGMENT PARA USE32 PUBLIC 'CODE'
_TEXT	ENDS
;	COMDAT ?Unlock@?$CComCritSecLock@VCComCriticalSection@ATL@@@ATL@@QAEXXZ
_TEXT	SEGMENT PARA USE32 PUBLIC 'CODE'
_TEXT	ENDS
;	COMDAT ??$AtlAlignUp@H@ATL@@YGHHK@Z
_TEXT	SEGMENT PARA USE32 PUBLIC 'CODE'
_TEXT	ENDS
;	COMDAT ??$?Y$00@?$CSimpleStringT@D$0A@@ATL@@QAEAAV01@ABV?$CSimpleStringT@D$00@1@@Z
_TEXT	SEGMENT PARA USE32 PUBLIC 'CODE'
_TEXT	ENDS
;	COMDAT ??$AtlAlignUp@I@ATL@@YGIIK@Z
_TEXT	SEGMENT PARA USE32 PUBLIC 'CODE'
_TEXT	ENDS
;	COMDAT ??$?2U_GUID@@@Wrapper@?$CSimpleArray@U_GUID@@V?$CSimpleArrayEqualHelper@U_GUID@@@ATL@@@ATL@@SAPAXIPAU_GUID@@@Z
_TEXT	SEGMENT PARA USE32 PUBLIC 'CODE'
_TEXT	ENDS
;	COMDAT ??$?3U_GUID@@@Wrapper@?$CSimpleArray@U_GUID@@V?$CSimpleArrayEqualHelper@U_GUID@@@ATL@@@ATL@@SAXPAXPAU_GUID@@@Z
_TEXT	SEGMENT PARA USE32 PUBLIC 'CODE'
_TEXT	ENDS
;	COMDAT ??$_Uninitialized_fill_n@PAV?$basic_string@DU?$char_traits@D@std@@V?$allocator@D@2@@std@@IV12@V?$allocator@V?$basic_string@DU?$char_traits@D@std@@V?$allocator@D@2@@std@@@2@@std@@YAXPAV?$basic_string@DU?$char_traits@D@std@@V?$allocator@D@2@@0@IABV10@AAV?$allocator@V?$basic_string@DU?$char_traits@D@std@@V?$allocator@D@2@@std@@@0@@Z
_TEXT	SEGMENT PARA USE32 PUBLIC 'CODE'
_TEXT	ENDS
;	COMDAT ??$_Maklocstr@D@std@@YAPADPBDPADABU_Cvtvec@@@Z
_TEXT	SEGMENT PARA USE32 PUBLIC 'CODE'
_TEXT	ENDS
;	COMDAT ??$_Allocate@V?$basic_string@DU?$char_traits@D@std@@V?$allocator@D@2@@std@@@std@@YAPAV?$basic_string@DU?$char_traits@D@std@@V?$allocator@D@2@@0@IPAV10@@Z
_TEXT	SEGMENT PARA USE32 PUBLIC 'CODE'
_TEXT	ENDS
;	COMDAT ??$_Destroy_range@V?$basic_string@DU?$char_traits@D@std@@V?$allocator@D@2@@std@@V?$allocator@V?$basic_string@DU?$char_traits@D@std@@V?$allocator@D@2@@std@@@2@@std@@YAXPAV?$basic_string@DU?$char_traits@D@std@@V?$allocator@D@2@@0@0AAV?$allocator@V?$basic_string@DU?$char_traits@D@std@@V?$allocator@D@2@@std@@@0@@Z
_TEXT	SEGMENT PARA USE32 PUBLIC 'CODE'
_TEXT	ENDS
;	COMDAT ??$_Ucopy@PAV?$basic_string@DU?$char_traits@D@std@@V?$allocator@D@2@@std@@@?$vector@V?$basic_string@DU?$char_traits@D@std@@V?$allocator@D@2@@std@@V?$allocator@V?$basic_string@DU?$char_traits@D@std@@V?$allocator@D@2@@std@@@2@@std@@IAEPAV?$basic_string@DU?$char_traits@D@std@@V?$allocator@D@2@@1@PAV21@00@Z
_TEXT	SEGMENT PARA USE32 PUBLIC 'CODE'
_TEXT	ENDS
;	COMDAT ??$fill@PAV?$basic_string@DU?$char_traits@D@std@@V?$allocator@D@2@@std@@V12@@std@@YAXPAV?$basic_string@DU?$char_traits@D@std@@V?$allocator@D@2@@0@0ABV10@@Z
_TEXT	SEGMENT PARA USE32 PUBLIC 'CODE'
_TEXT	ENDS
;	COMDAT ??$copy_backward@PAV?$basic_string@DU?$char_traits@D@std@@V?$allocator@D@2@@std@@PAV12@@std@@YAPAV?$basic_string@DU?$char_traits@D@std@@V?$allocator@D@2@@0@PAV10@00@Z
_TEXT	SEGMENT PARA USE32 PUBLIC 'CODE'
_TEXT	ENDS
;	COMDAT ??$Append@$00@?$CSimpleStringT@D$0A@@ATL@@QAEXABV?$CSimpleStringT@D$00@1@@Z
_TEXT	SEGMENT PARA USE32 PUBLIC 'CODE'
_TEXT	ENDS
;	COMDAT ??$_Ptr_cat@PAV?$basic_string@DU?$char_traits@D@std@@V?$allocator@D@2@@std@@PAV12@@std@@YA?AU_Nonscalar_ptr_iterator_tag@0@AAPAV?$basic_string@DU?$char_traits@D@std@@V?$allocator@D@2@@0@0@Z
_TEXT	SEGMENT PARA USE32 PUBLIC 'CODE'
_TEXT	ENDS
;	COMDAT ??$_Uninit_fill_n@PAV?$basic_string@DU?$char_traits@D@std@@V?$allocator@D@2@@std@@IV12@V?$allocator@V?$basic_string@DU?$char_traits@D@std@@V?$allocator@D@2@@std@@@2@@std@@YAXPAV?$basic_string@DU?$char_traits@D@std@@V?$allocator@D@2@@0@IABV10@AAV?$allocator@V?$basic_string@DU?$char_traits@D@std@@V?$allocator@D@2@@std@@@0@U_Nonscalar_ptr_iterator_tag@0@@Z
_TEXT	SEGMENT PARA USE32 PUBLIC 'CODE'
_TEXT	ENDS
;	COMDAT ??$_Destroy_range@V?$basic_string@DU?$char_traits@D@std@@V?$allocator@D@2@@std@@V?$allocator@V?$basic_string@DU?$char_traits@D@std@@V?$allocator@D@2@@std@@@2@@std@@YAXPAV?$basic_string@DU?$char_traits@D@std@@V?$allocator@D@2@@0@0AAV?$allocator@V?$basic_string@DU?$char_traits@D@std@@V?$allocator@D@2@@std@@@0@U_Nonscalar_ptr_iterator_tag@0@@Z
_TEXT	SEGMENT PARA USE32 PUBLIC 'CODE'
_TEXT	ENDS
;	COMDAT ??$_Uninitialized_copy@PAV?$basic_string@DU?$char_traits@D@std@@V?$allocator@D@2@@std@@PAV12@V?$allocator@V?$basic_string@DU?$char_traits@D@std@@V?$allocator@D@2@@std@@@2@@std@@YAPAV?$basic_string@DU?$char_traits@D@std@@V?$allocator@D@2@@0@PAV10@00AAV?$allocator@V?$basic_string@DU?$char_traits@D@std@@V?$allocator@D@2@@std@@@0@@Z
_TEXT	SEGMENT PARA USE32 PUBLIC 'CODE'
_TEXT	ENDS
;	COMDAT ??$_Copy_backward_opt@PAV?$basic_string@DU?$char_traits@D@std@@V?$allocator@D@2@@std@@PAV12@@std@@YAPAV?$basic_string@DU?$char_traits@D@std@@V?$allocator@D@2@@0@PAV10@00U_Nonscalar_ptr_iterator_tag@0@@Z
_TEXT	SEGMENT PARA USE32 PUBLIC 'CODE'
_TEXT	ENDS
;	COMDAT ?construct@?$allocator@V?$basic_string@DU?$char_traits@D@std@@V?$allocator@D@2@@std@@@std@@QAEXPAV?$basic_string@DU?$char_traits@D@std@@V?$allocator@D@2@@2@ABV32@@Z
_TEXT	SEGMENT PARA USE32 PUBLIC 'CODE'
_TEXT	ENDS
;	COMDAT ?destroy@?$allocator@V?$basic_string@DU?$char_traits@D@std@@V?$allocator@D@2@@std@@@std@@QAEXPAV?$basic_string@DU?$char_traits@D@std@@V?$allocator@D@2@@2@@Z
_TEXT	SEGMENT PARA USE32 PUBLIC 'CODE'
_TEXT	ENDS
;	COMDAT ??$_Uninit_copy@PAV?$basic_string@DU?$char_traits@D@std@@V?$allocator@D@2@@std@@PAV12@V?$allocator@V?$basic_string@DU?$char_traits@D@std@@V?$allocator@D@2@@std@@@2@@std@@YAPAV?$basic_string@DU?$char_traits@D@std@@V?$allocator@D@2@@0@PAV10@00AAV?$allocator@V?$basic_string@DU?$char_traits@D@std@@V?$allocator@D@2@@std@@@0@U_Nonscalar_ptr_iterator_tag@0@@Z
_TEXT	SEGMENT PARA USE32 PUBLIC 'CODE'
_TEXT	ENDS
;	COMDAT ??$_Construct@V?$basic_string@DU?$char_traits@D@std@@V?$allocator@D@2@@std@@V12@@std@@YAXPAV?$basic_string@DU?$char_traits@D@std@@V?$allocator@D@2@@0@ABV10@@Z
_TEXT	SEGMENT PARA USE32 PUBLIC 'CODE'
_TEXT	ENDS
;	COMDAT ??$_Destroy@V?$basic_string@DU?$char_traits@D@std@@V?$allocator@D@2@@std@@@std@@YAXPAV?$basic_string@DU?$char_traits@D@std@@V?$allocator@D@2@@0@@Z
_TEXT	SEGMENT PARA USE32 PUBLIC 'CODE'
_TEXT	ENDS
;	COMDAT ??_G?$basic_string@DU?$char_traits@D@std@@V?$allocator@D@2@@std@@QAEPAXI@Z
_TEXT	SEGMENT PARA USE32 PUBLIC 'CODE'
_TEXT	ENDS
;	COMDAT ??_EGamePanelWnd@@WFE@AEPAXI@Z
_TEXT	SEGMENT PARA USE32 PUBLIC 'CODE'
_TEXT	ENDS
;	COMDAT ??_EGamePanelWnd@@WFI@AEPAXI@Z
_TEXT	SEGMENT PARA USE32 PUBLIC 'CODE'
_TEXT	ENDS
;	COMDAT ??_EGamePanelWnd@@WFM@AEPAXI@Z
_TEXT	SEGMENT PARA USE32 PUBLIC 'CODE'
_TEXT	ENDS
;	COMDAT ??_R3IPanelChangeObserver@@8
rdata$r	SEGMENT DWORD USE32 PUBLIC 'CONST'
rdata$r	ENDS
;	COMDAT ??_R3IData@@8
rdata$r	SEGMENT DWORD USE32 PUBLIC 'CONST'
rdata$r	ENDS
;	COMDAT ??_R3IHttpDownObserver@@8
rdata$r	SEGMENT DWORD USE32 PUBLIC 'CONST'
rdata$r	ENDS
;	COMDAT ??_R3XDocHostUIHandler@CCustomControlSite@@8
rdata$r	SEGMENT DWORD USE32 PUBLIC 'CONST'
rdata$r	ENDS
;	COMDAT ??_R3CAtlStringMgr@ATL@@8
rdata$r	SEGMENT DWORD USE32 PUBLIC 'CONST'
rdata$r	ENDS
;	COMDAT ??_R3ILayoutChangeObserver@@8
rdata$r	SEGMENT DWORD USE32 PUBLIC 'CONST'
rdata$r	ENDS
;	COMDAT ??_R3XDocHostShowUI@CCustomControlSite@@8
rdata$r	SEGMENT DWORD USE32 PUBLIC 'CONST'
rdata$r	ENDS
;	COMDAT ??_R3CCustomControlSite@@8
rdata$r	SEGMENT DWORD USE32 PUBLIC 'CONST'
rdata$r	ENDS
;	COMDAT ??_R3IDocHostShowUI@@8
rdata$r	SEGMENT DWORD USE32 PUBLIC 'CONST'
rdata$r	ENDS
;	COMDAT ??_R3IDocHostUIHandler@@8
rdata$r	SEGMENT DWORD USE32 PUBLIC 'CONST'
rdata$r	ENDS
;	COMDAT ??_R3CCriticalSection@@8
rdata$r	SEGMENT DWORD USE32 PUBLIC 'CONST'
rdata$r	ENDS
;	COMDAT ??_R3IAdData@@8
rdata$r	SEGMENT DWORD USE32 PUBLIC 'CONST'
rdata$r	ENDS
;	COMDAT ??_R3CCustomOccManager@@8
rdata$r	SEGMENT DWORD USE32 PUBLIC 'CONST'
rdata$r	ENDS
;	COMDAT ??_R3HTTPObserver@@8
rdata$r	SEGMENT DWORD USE32 PUBLIC 'CONST'
rdata$r	ENDS
;	COMDAT ??_R3COccManager@@8
rdata$r	SEGMENT DWORD USE32 PUBLIC 'CONST'
rdata$r	ENDS
;	COMDAT ??_R3GamePanelWnd@@8
rdata$r	SEGMENT DWORD USE32 PUBLIC 'CONST'
rdata$r	ENDS
;	COMDAT ??_R3CImage@ATL@@8
rdata$r	SEGMENT DWORD USE32 PUBLIC 'CONST'
rdata$r	ENDS
;	COMDAT ??_R3?$numpunct@_W@std@@8
rdata$r	SEGMENT DWORD USE32 PUBLIC 'CONST'
rdata$r	ENDS
;	COMDAT ??_R3CShockwaveFlash@@8
rdata$r	SEGMENT DWORD USE32 PUBLIC 'CONST'
rdata$r	ENDS
;	COMDAT ??_R3?$numpunct@D@std@@8
rdata$r	SEGMENT DWORD USE32 PUBLIC 'CONST'
rdata$r	ENDS
;	COMDAT ??_R2IPanelChangeObserver@@8
rdata$r	SEGMENT DWORD USE32 PUBLIC 'CONST'
rdata$r	ENDS
;	COMDAT ??_R2IData@@8
rdata$r	SEGMENT DWORD USE32 PUBLIC 'CONST'
rdata$r	ENDS
;	COMDAT ??_R2IHttpDownObserver@@8
rdata$r	SEGMENT DWORD USE32 PUBLIC 'CONST'
rdata$r	ENDS
;	COMDAT ??_R2XDocHostUIHandler@CCustomControlSite@@8
rdata$r	SEGMENT DWORD USE32 PUBLIC 'CONST'
rdata$r	ENDS
;	COMDAT ??_R2CAtlStringMgr@ATL@@8
rdata$r	SEGMENT DWORD USE32 PUBLIC 'CONST'
rdata$r	ENDS
;	COMDAT ??_R2ILayoutChangeObserver@@8
rdata$r	SEGMENT DWORD USE32 PUBLIC 'CONST'
rdata$r	ENDS
;	COMDAT ??_R2XDocHostShowUI@CCustomControlSite@@8
rdata$r	SEGMENT DWORD USE32 PUBLIC 'CONST'
rdata$r	ENDS
;	COMDAT ??_R2CCustomControlSite@@8
rdata$r	SEGMENT DWORD USE32 PUBLIC 'CONST'
rdata$r	ENDS
;	COMDAT ??_R2IDocHostShowUI@@8
rdata$r	SEGMENT DWORD USE32 PUBLIC 'CONST'
rdata$r	ENDS
;	COMDAT ??_R2IDocHostUIHandler@@8
rdata$r	SEGMENT DWORD USE32 PUBLIC 'CONST'
rdata$r	ENDS
;	COMDAT ??_R2CCriticalSection@@8
rdata$r	SEGMENT DWORD USE32 PUBLIC 'CONST'
rdata$r	ENDS
;	COMDAT ??_R2IAdData@@8
rdata$r	SEGMENT DWORD USE32 PUBLIC 'CONST'
rdata$r	ENDS
;	COMDAT ??_R2CCustomOccManager@@8
rdata$r	SEGMENT DWORD USE32 PUBLIC 'CONST'
rdata$r	ENDS
;	COMDAT ??_R2HTTPObserver@@8
rdata$r	SEGMENT DWORD USE32 PUBLIC 'CONST'
rdata$r	ENDS
;	COMDAT ??_R2COccManager@@8
rdata$r	SEGMENT DWORD USE32 PUBLIC 'CONST'
rdata$r	ENDS
;	COMDAT ??_R2GamePanelWnd@@8
rdata$r	SEGMENT DWORD USE32 PUBLIC 'CONST'
rdata$r	ENDS
;	COMDAT ??_R2CImage@ATL@@8
rdata$r	SEGMENT DWORD USE32 PUBLIC 'CONST'
rdata$r	ENDS
;	COMDAT ??_R2?$numpunct@_W@std@@8
rdata$r	SEGMENT DWORD USE32 PUBLIC 'CONST'
rdata$r	ENDS
;	COMDAT ??_R2CShockwaveFlash@@8
rdata$r	SEGMENT DWORD USE32 PUBLIC 'CONST'
rdata$r	ENDS
;	COMDAT ??_R2?$numpunct@D@std@@8
rdata$r	SEGMENT DWORD USE32 PUBLIC 'CONST'
rdata$r	ENDS
;	COMDAT ??_R1A@?0A@A@IPanelChangeObserver@@8
rdata$r	SEGMENT DWORD USE32 PUBLIC 'CONST'
rdata$r	ENDS
;	COMDAT ??_R1A@?0A@A@IHttpDownObserver@@8
rdata$r	SEGMENT DWORD USE32 PUBLIC 'CONST'
rdata$r	ENDS
;	COMDAT ??_R1A@?0A@A@XDocHostUIHandler@CCustomControlSite@@8
rdata$r	SEGMENT DWORD USE32 PUBLIC 'CONST'
rdata$r	ENDS
;	COMDAT ??_R1A@?0A@A@IAtlStringMgr@ATL@@8
rdata$r	SEGMENT DWORD USE32 PUBLIC 'CONST'
rdata$r	ENDS
;	COMDAT ??_R0?AUIAtlStringMgr@ATL@@@8
_DATA	SEGMENT DWORD USE32 PUBLIC 'DATA'
_DATA	ENDS
;	COMDAT ??_R1A@?0A@A@CAtlStringMgr@ATL@@8
rdata$r	SEGMENT DWORD USE32 PUBLIC 'CONST'
rdata$r	ENDS
;	COMDAT ??_R1A@?0A@A@IMessageObserver@@8
rdata$r	SEGMENT DWORD USE32 PUBLIC 'CONST'
rdata$r	ENDS
;	COMDAT ??_R1A@?0A@A@ILayoutChangeObserver@@8
rdata$r	SEGMENT DWORD USE32 PUBLIC 'CONST'
rdata$r	ENDS
;	COMDAT ??_R1A@?0A@A@XDocHostShowUI@CCustomControlSite@@8
rdata$r	SEGMENT DWORD USE32 PUBLIC 'CONST'
rdata$r	ENDS
;	COMDAT ??_R1A@?0A@A@COleControlSite@@8
rdata$r	SEGMENT DWORD USE32 PUBLIC 'CONST'
rdata$r	ENDS
;	COMDAT ??_R1A@?0A@A@CCustomControlSite@@8
rdata$r	SEGMENT DWORD USE32 PUBLIC 'CONST'
rdata$r	ENDS
;	COMDAT ??_R1A@?0A@A@IDocHostShowUI@@8
rdata$r	SEGMENT DWORD USE32 PUBLIC 'CONST'
rdata$r	ENDS
;	COMDAT ??_R1A@?0A@A@IUnknown@@8
rdata$r	SEGMENT DWORD USE32 PUBLIC 'CONST'
rdata$r	ENDS
;	COMDAT ??_R0?AUIUnknown@@@8
_DATA	SEGMENT DWORD USE32 PUBLIC 'DATA'
_DATA	ENDS
;	COMDAT ??_R1A@?0A@A@IDocHostUIHandler@@8
rdata$r	SEGMENT DWORD USE32 PUBLIC 'CONST'
rdata$r	ENDS
;	COMDAT ??_R1A@?0A@A@CSyncObject@@8
rdata$r	SEGMENT DWORD USE32 PUBLIC 'CONST'
rdata$r	ENDS
;	COMDAT ??_R1A@?0A@A@CCriticalSection@@8
rdata$r	SEGMENT DWORD USE32 PUBLIC 'CONST'
rdata$r	ENDS
;	COMDAT ??_R1A@?0A@A@IData@@8
rdata$r	SEGMENT DWORD USE32 PUBLIC 'CONST'
rdata$r	ENDS
;	COMDAT ??_R1A@?0A@A@IAdData@@8
rdata$r	SEGMENT DWORD USE32 PUBLIC 'CONST'
rdata$r	ENDS
;	COMDAT ??_R1A@?0A@A@CCustomOccManager@@8
rdata$r	SEGMENT DWORD USE32 PUBLIC 'CONST'
rdata$r	ENDS
;	COMDAT ??_R1A@?0A@A@HTTPObserver@@8
rdata$r	SEGMENT DWORD USE32 PUBLIC 'CONST'
rdata$r	ENDS
;	COMDAT ??_R1A@?0A@A@CNoTrackObject@@8
rdata$r	SEGMENT DWORD USE32 PUBLIC 'CONST'
rdata$r	ENDS
;	COMDAT ??_R0?AVCNoTrackObject@@@8
_DATA	SEGMENT DWORD USE32 PUBLIC 'DATA'
_DATA	ENDS
;	COMDAT ??_R1A@?0A@A@COccManager@@8
rdata$r	SEGMENT DWORD USE32 PUBLIC 'CONST'
rdata$r	ENDS
;	COMDAT ??_R1FM@?0A@1IMessageObserver@@8
rdata$r	SEGMENT DWORD USE32 PUBLIC 'CONST'
rdata$r	ENDS
;	COMDAT ??_R1FM@?0A@A@IPanelChangeObserver@@8
rdata$r	SEGMENT DWORD USE32 PUBLIC 'CONST'
rdata$r	ENDS
;	COMDAT ??_R1FI@?0A@1IMessageObserver@@8
rdata$r	SEGMENT DWORD USE32 PUBLIC 'CONST'
rdata$r	ENDS
;	COMDAT ??_R1FI@?0A@A@IHttpDownObserver@@8
rdata$r	SEGMENT DWORD USE32 PUBLIC 'CONST'
rdata$r	ENDS
;	COMDAT ??_R1FE@?0A@1IMessageObserver@@8
rdata$r	SEGMENT DWORD USE32 PUBLIC 'CONST'
rdata$r	ENDS
;	COMDAT ??_R1FE@?0A@A@ILayoutChangeObserver@@8
rdata$r	SEGMENT DWORD USE32 PUBLIC 'CONST'
rdata$r	ENDS
;	COMDAT ??_R1A@?0A@A@CBasicWnd@@8
rdata$r	SEGMENT DWORD USE32 PUBLIC 'CONST'
rdata$r	ENDS
;	COMDAT ??_R1A@?0A@A@GamePanelWnd@@8
rdata$r	SEGMENT DWORD USE32 PUBLIC 'CONST'
rdata$r	ENDS
;	COMDAT ??_R1A@?0A@A@CImage@ATL@@8
rdata$r	SEGMENT DWORD USE32 PUBLIC 'CONST'
rdata$r	ENDS
;	COMDAT ??_R1A@?0A@A@?$numpunct@_W@std@@8
rdata$r	SEGMENT DWORD USE32 PUBLIC 'CONST'
rdata$r	ENDS
;	COMDAT ??_R1A@?0A@A@CObject@@8
rdata$r	SEGMENT DWORD USE32 PUBLIC 'CONST'
rdata$r	ENDS
;	COMDAT ??_R0?AVCObject@@@8
_DATA	SEGMENT DWORD USE32 PUBLIC 'DATA'
_DATA	ENDS
;	COMDAT ??_R1A@?0A@A@CCmdTarget@@8
rdata$r	SEGMENT DWORD USE32 PUBLIC 'CONST'
rdata$r	ENDS
;	COMDAT ??_R0?AVCCmdTarget@@@8
_DATA	SEGMENT DWORD USE32 PUBLIC 'DATA'
_DATA	ENDS
;	COMDAT ??_R1A@?0A@A@CWnd@@8
rdata$r	SEGMENT DWORD USE32 PUBLIC 'CONST'
rdata$r	ENDS
;	COMDAT ??_R0?AVCWnd@@@8
_DATA	SEGMENT DWORD USE32 PUBLIC 'DATA'
_DATA	ENDS
;	COMDAT ??_R1A@?0A@A@CShockwaveFlash@@8
rdata$r	SEGMENT DWORD USE32 PUBLIC 'CONST'
rdata$r	ENDS
;	COMDAT ??_R1A@?0A@A@facet@locale@std@@8
rdata$r	SEGMENT DWORD USE32 PUBLIC 'CONST'
rdata$r	ENDS
;	COMDAT ??_R0?AVfacet@locale@std@@@8
_DATA	SEGMENT DWORD USE32 PUBLIC 'DATA'
_DATA	ENDS
;	COMDAT ??_R1A@?0A@A@?$numpunct@D@std@@8
rdata$r	SEGMENT DWORD USE32 PUBLIC 'CONST'
rdata$r	ENDS
;	COMDAT ??_R0?AVXDocHostUIHandler@CCustomControlSite@@@8
_DATA	SEGMENT DWORD USE32 PUBLIC 'DATA'
_DATA	ENDS
;	COMDAT ??_R0?AVCAtlStringMgr@ATL@@@8
_DATA	SEGMENT DWORD USE32 PUBLIC 'DATA'
_DATA	ENDS
;	COMDAT ??_R0?AVXDocHostShowUI@CCustomControlSite@@@8
_DATA	SEGMENT DWORD USE32 PUBLIC 'DATA'
_DATA	ENDS
;	COMDAT ??_R0?AVCOleControlSite@@@8
_DATA	SEGMENT DWORD USE32 PUBLIC 'DATA'
_DATA	ENDS
;	COMDAT ??_R0?AVCCustomControlSite@@@8
_DATA	SEGMENT DWORD USE32 PUBLIC 'DATA'
_DATA	ENDS
;	COMDAT ??_R0?AUIDocHostShowUI@@@8
_DATA	SEGMENT DWORD USE32 PUBLIC 'DATA'
_DATA	ENDS
;	COMDAT ??_R0?AUIDocHostUIHandler@@@8
_DATA	SEGMENT DWORD USE32 PUBLIC 'DATA'
_DATA	ENDS
;	COMDAT ??_R0?AVCSyncObject@@@8
_DATA	SEGMENT DWORD USE32 PUBLIC 'DATA'
_DATA	ENDS
;	COMDAT ??_R0?AVCCriticalSection@@@8
_DATA	SEGMENT DWORD USE32 PUBLIC 'DATA'
_DATA	ENDS
;	COMDAT ??_R0?AVIData@@@8
_DATA	SEGMENT DWORD USE32 PUBLIC 'DATA'
_DATA	ENDS
;	COMDAT ??_R0?AVIAdData@@@8
_DATA	SEGMENT DWORD USE32 PUBLIC 'DATA'
_DATA	ENDS
;	COMDAT ??_R0?AVCCustomOccManager@@@8
_DATA	SEGMENT DWORD USE32 PUBLIC 'DATA'
_DATA	ENDS
;	COMDAT ??_R0?AVHTTPObserver@@@8
_DATA	SEGMENT DWORD USE32 PUBLIC 'DATA'
_DATA	ENDS
;	COMDAT ??_R0?AVCOccManager@@@8
_DATA	SEGMENT DWORD USE32 PUBLIC 'DATA'
_DATA	ENDS
;	COMDAT ??_R0?AVIPanelChangeObserver@@@8
_DATA	SEGMENT DWORD USE32 PUBLIC 'DATA'
_DATA	ENDS
;	COMDAT ??_R0?AVIHttpDownObserver@@@8
_DATA	SEGMENT DWORD USE32 PUBLIC 'DATA'
_DATA	ENDS
;	COMDAT ??_R0?AVIMessageObserver@@@8
_DATA	SEGMENT DWORD USE32 PUBLIC 'DATA'
_DATA	ENDS
;	COMDAT ??_R0?AVILayoutChangeObserver@@@8
_DATA	SEGMENT DWORD USE32 PUBLIC 'DATA'
_DATA	ENDS
;	COMDAT ??_R0?AVCBasicWnd@@@8
_DATA	SEGMENT DWORD USE32 PUBLIC 'DATA'
_DATA	ENDS
;	COMDAT ??_R0?AVGamePanelWnd@@@8
_DATA	SEGMENT DWORD USE32 PUBLIC 'DATA'
_DATA	ENDS
;	COMDAT ??_R0?AVCImage@ATL@@@8
_DATA	SEGMENT DWORD USE32 PUBLIC 'DATA'
_DATA	ENDS
;	COMDAT ??_R0?AV?$numpunct@_W@std@@@8
_DATA	SEGMENT DWORD USE32 PUBLIC 'DATA'
_DATA	ENDS
;	COMDAT ??_R0?AVCShockwaveFlash@@@8
_DATA	SEGMENT DWORD USE32 PUBLIC 'DATA'
_DATA	ENDS
;	COMDAT ??_R0?AV?$numpunct@D@std@@@8
_DATA	SEGMENT DWORD USE32 PUBLIC 'DATA'
_DATA	ENDS
;	COMDAT ??_R4IPanelChangeObserver@@6B@
rdata$r	SEGMENT DWORD USE32 PUBLIC 'CONST'
rdata$r	ENDS
;	COMDAT ??_R4IData@@6B@
rdata$r	SEGMENT DWORD USE32 PUBLIC 'CONST'
rdata$r	ENDS
;	COMDAT ??_R4IHttpDownObserver@@6B@
rdata$r	SEGMENT DWORD USE32 PUBLIC 'CONST'
rdata$r	ENDS
;	COMDAT ??_R4XDocHostUIHandler@CCustomControlSite@@6B@
rdata$r	SEGMENT DWORD USE32 PUBLIC 'CONST'
rdata$r	ENDS
;	COMDAT ??_R4CAtlStringMgr@ATL@@6B@
rdata$r	SEGMENT DWORD USE32 PUBLIC 'CONST'
rdata$r	ENDS
;	COMDAT ??_R4ILayoutChangeObserver@@6B@
rdata$r	SEGMENT DWORD USE32 PUBLIC 'CONST'
rdata$r	ENDS
;	COMDAT ??_R4XDocHostShowUI@CCustomControlSite@@6B@
rdata$r	SEGMENT DWORD USE32 PUBLIC 'CONST'
rdata$r	ENDS
;	COMDAT ??_R4CCustomControlSite@@6B@
rdata$r	SEGMENT DWORD USE32 PUBLIC 'CONST'
rdata$r	ENDS
;	COMDAT ??_R4IDocHostShowUI@@6B@
rdata$r	SEGMENT DWORD USE32 PUBLIC 'CONST'
rdata$r	ENDS
;	COMDAT ??_R4IDocHostUIHandler@@6B@
rdata$r	SEGMENT DWORD USE32 PUBLIC 'CONST'
rdata$r	ENDS
;	COMDAT ??_R4CCriticalSection@@6B@
rdata$r	SEGMENT DWORD USE32 PUBLIC 'CONST'
rdata$r	ENDS
;	COMDAT ??_R4IAdData@@6B@
rdata$r	SEGMENT DWORD USE32 PUBLIC 'CONST'
rdata$r	ENDS
;	COMDAT ??_R4CCustomOccManager@@6B@
rdata$r	SEGMENT DWORD USE32 PUBLIC 'CONST'
rdata$r	ENDS
;	COMDAT ??_R4HTTPObserver@@6B@
rdata$r	SEGMENT DWORD USE32 PUBLIC 'CONST'
rdata$r	ENDS
;	COMDAT ??_R4COccManager@@6B@
rdata$r	SEGMENT DWORD USE32 PUBLIC 'CONST'
rdata$r	ENDS
;	COMDAT ??_R4GamePanelWnd@@6BIPanelChangeObserver@@@
rdata$r	SEGMENT DWORD USE32 PUBLIC 'CONST'
rdata$r	ENDS
;	COMDAT ??_R4GamePanelWnd@@6BIHttpDownObserver@@@
rdata$r	SEGMENT DWORD USE32 PUBLIC 'CONST'
rdata$r	ENDS
;	COMDAT ??_R4GamePanelWnd@@6BILayoutChangeObserver@@@
rdata$r	SEGMENT DWORD USE32 PUBLIC 'CONST'
rdata$r	ENDS
;	COMDAT ??_R4GamePanelWnd@@6BCBasicWnd@@@
rdata$r	SEGMENT DWORD USE32 PUBLIC 'CONST'
rdata$r	ENDS
;	COMDAT ??_R4CImage@ATL@@6B@
rdata$r	SEGMENT DWORD USE32 PUBLIC 'CONST'
rdata$r	ENDS
;	COMDAT ??0?$allocator@_W@std@@QAE@XZ
_TEXT	SEGMENT PARA USE32 PUBLIC 'CODE'
_TEXT	ENDS
;	COMDAT ??_G?$numpunct@_W@std@@MAEPAXI@Z
_TEXT	SEGMENT PARA USE32 PUBLIC 'CODE'
_TEXT	ENDS
;	COMDAT ??_R4?$numpunct@_W@std@@6B@
rdata$r	SEGMENT DWORD USE32 PUBLIC 'CONST'
rdata$r	ENDS
;	COMDAT ?EndModalState@CWnd@@UAEXXZ
_TEXT	SEGMENT PARA USE32 PUBLIC 'CODE'
_TEXT	ENDS
;	COMDAT ?BeginModalState@CWnd@@UAEXXZ
_TEXT	SEGMENT PARA USE32 PUBLIC 'CODE'
_TEXT	ENDS
;	COMDAT ?DoDataExchange@CWnd@@MAEXPAVCDataExchange@@@Z
_TEXT	SEGMENT PARA USE32 PUBLIC 'CODE'
_TEXT	ENDS
;	COMDAT ?Dump@CObject@@UBEXAAVCDumpContext@@@Z
_TEXT	SEGMENT PARA USE32 PUBLIC 'CODE'
_TEXT	ENDS
;	COMDAT ?AssertValid@CObject@@UBEXXZ
_TEXT	SEGMENT PARA USE32 PUBLIC 'CODE'
_TEXT	ENDS
;	COMDAT ?Serialize@CObject@@UAEXAAVCArchive@@@Z
_TEXT	SEGMENT PARA USE32 PUBLIC 'CODE'
_TEXT	ENDS
;	COMDAT ??_R4CShockwaveFlash@@6B@
rdata$r	SEGMENT DWORD USE32 PUBLIC 'CONST'
rdata$r	ENDS
;	COMDAT ??_G?$numpunct@D@std@@MAEPAXI@Z
_TEXT	SEGMENT PARA USE32 PUBLIC 'CODE'
_TEXT	ENDS
;	COMDAT ??_R4?$numpunct@D@std@@6B@
rdata$r	SEGMENT DWORD USE32 PUBLIC 'CONST'
rdata$r	ENDS
;	COMDAT ??3@YAXPAX0@Z
_TEXT	SEGMENT PARA USE32 PUBLIC 'CODE'
_TEXT	ENDS
;	COMDAT ??2@YAPAXIPAX@Z
_TEXT	SEGMENT PARA USE32 PUBLIC 'CODE'
_TEXT	ENDS
;	COMDAT ?_Psave@?$_Facetptr@V?$numpunct@_W@std@@@std@@2PBVfacet@locale@2@B
_DATA	SEGMENT DWORD USE32 PUBLIC 'DATA'
_DATA	ENDS
;	COMDAT ?_Psave@?$_Facetptr@V?$numpunct@D@std@@@std@@2PBVfacet@locale@2@B
_DATA	SEGMENT DWORD USE32 PUBLIC 'DATA'
_DATA	ENDS
;	COMDAT ?Unlock@CComCriticalSection@ATL@@QAEJXZ
_TEXT	SEGMENT PARA USE32 PUBLIC 'CODE'
_TEXT	ENDS
;	COMDAT ?_Psave@?$_Facetptr@V?$ctype@_W@std@@@std@@2PBVfacet@locale@2@B
_DATA	SEGMENT DWORD USE32 PUBLIC 'DATA'
_DATA	ENDS
;	COMDAT ?_Psave@?$_Facetptr@V?$ctype@D@std@@@std@@2PBVfacet@locale@2@B
_DATA	SEGMENT DWORD USE32 PUBLIC 'DATA'
_DATA	ENDS
;	COMDAT ?IsShared@CStringData@ATL@@QBE_NXZ
_TEXT	SEGMENT PARA USE32 PUBLIC 'CODE'
_TEXT	ENDS
;	COMDAT ?ConvertToBaseType@?$ChTraitsCRT@_W@ATL@@SAXPA_WHPB_WH@Z
_TEXT	SEGMENT PARA USE32 PUBLIC 'CODE'
_TEXT	ENDS
;	COMDAT ?GetBaseTypeLength@?$ChTraitsCRT@_W@ATL@@SAHPB_WH@Z
_TEXT	SEGMENT PARA USE32 PUBLIC 'CODE'
_TEXT	ENDS
;	COMDAT ?AtlGetStringResourceImage@ATL@@YAPBUATLSTRINGRESOURCEIMAGE@1@PAUHINSTANCE__@@I@Z
_TEXT	SEGMENT PARA USE32 PUBLIC 'CODE'
_TEXT	ENDS
;	COMDAT ?_AtlGetStringResourceImage@ATL@@YAPBUATLSTRINGRESOURCEIMAGE@1@PAUHINSTANCE__@@PAUHRSRC__@@I@Z
_TEXT	SEGMENT PARA USE32 PUBLIC 'CODE'
_TEXT	ENDS
;	COMDAT ?IsLocked@CStringData@ATL@@QBE_NXZ
_TEXT	SEGMENT PARA USE32 PUBLIC 'CODE'
_TEXT	ENDS
;	COMDAT ??_7length_error@std@@6B@
CONST	SEGMENT DWORD USE32 PUBLIC 'CONST'
CONST	ENDS
;	COMDAT ??_R4length_error@std@@6B@
rdata$r	SEGMENT DWORD USE32 PUBLIC 'CONST'
rdata$r	ENDS
;	COMDAT ??_R3length_error@std@@8
rdata$r	SEGMENT DWORD USE32 PUBLIC 'CONST'
rdata$r	ENDS
;	COMDAT ??_R2length_error@std@@8
rdata$r	SEGMENT DWORD USE32 PUBLIC 'CONST'
rdata$r	ENDS
;	COMDAT ??_R1A@?0A@A@length_error@std@@8
rdata$r	SEGMENT DWORD USE32 PUBLIC 'CONST'
rdata$r	ENDS
;	COMDAT ??_R1A@?0A@A@logic_error@std@@8
rdata$r	SEGMENT DWORD USE32 PUBLIC 'CONST'
rdata$r	ENDS
;	COMDAT ??_R0?AVlogic_error@std@@@8
_DATA	SEGMENT DWORD USE32 PUBLIC 'DATA'
_DATA	ENDS
;	COMDAT ??_R1A@?0A@A@exception@@8
rdata$r	SEGMENT DWORD USE32 PUBLIC 'CONST'
rdata$r	ENDS
;	COMDAT ??_R0?AVexception@@@8
_DATA	SEGMENT DWORD USE32 PUBLIC 'DATA'
_DATA	ENDS
;	COMDAT ??_Glength_error@std@@UAEPAXI@Z
_TEXT	SEGMENT PARA USE32 PUBLIC 'CODE'
_TEXT	ENDS
;	COMDAT ?what@logic_error@std@@UBEPBDXZ
_TEXT	SEGMENT PARA USE32 PUBLIC 'CODE'
_TEXT	ENDS
;	COMDAT ??1logic_error@std@@UAE@XZ
_TEXT	SEGMENT PARA USE32 PUBLIC 'CODE'
_TEXT	ENDS
;	COMDAT ??_7logic_error@std@@6B@
CONST	SEGMENT DWORD USE32 PUBLIC 'CONST'
CONST	ENDS
;	COMDAT ??_R4logic_error@std@@6B@
rdata$r	SEGMENT DWORD USE32 PUBLIC 'CONST'
rdata$r	ENDS
;	COMDAT ??_R3logic_error@std@@8
rdata$r	SEGMENT DWORD USE32 PUBLIC 'CONST'
rdata$r	ENDS
;	COMDAT ??_R2logic_error@std@@8
rdata$r	SEGMENT DWORD USE32 PUBLIC 'CONST'
rdata$r	ENDS
;	COMDAT ??_Glogic_error@std@@UAEPAXI@Z
_TEXT	SEGMENT PARA USE32 PUBLIC 'CODE'
_TEXT	ENDS
;	COMDAT ??0logic_error@std@@QAE@ABV01@@Z
_TEXT	SEGMENT PARA USE32 PUBLIC 'CODE'
_TEXT	ENDS
;	COMDAT __CTA3?AVlength_error@std@@
xdata$x	SEGMENT DWORD USE32 PUBLIC 'CONST'
xdata$x	ENDS
;	COMDAT ??1length_error@std@@UAE@XZ
_TEXT	SEGMENT PARA USE32 PUBLIC 'CODE'
_TEXT	ENDS
;	COMDAT __CT??_R0?AVexception@@@8??0exception@@QAE@ABV0@@Z12
xdata$x	SEGMENT DWORD USE32 PUBLIC 'CONST'
xdata$x	ENDS
;	COMDAT __CT??_R0?AVlogic_error@std@@@8??0logic_error@std@@QAE@ABV01@@Z40
xdata$x	SEGMENT DWORD USE32 PUBLIC 'CONST'
xdata$x	ENDS
;	COMDAT __CT??_R0?AVlength_error@std@@@8??0length_error@std@@QAE@ABV01@@Z40
xdata$x	SEGMENT DWORD USE32 PUBLIC 'CONST'
xdata$x	ENDS
;	COMDAT ??_R0?AVlength_error@std@@@8
_DATA	SEGMENT DWORD USE32 PUBLIC 'DATA'
_DATA	ENDS
;	COMDAT __TI3?AVlength_error@std@@
xdata$x	SEGMENT DWORD USE32 PUBLIC 'CONST'
xdata$x	ENDS
;	COMDAT ??0length_error@std@@QAE@ABV?$basic_string@DU?$char_traits@D@std@@V?$allocator@D@2@@1@@Z
_TEXT	SEGMENT PARA USE32 PUBLIC 'CODE'
_TEXT	ENDS
;	COMDAT ??0logic_error@std@@QAE@ABV?$basic_string@DU?$char_traits@D@std@@V?$allocator@D@2@@1@@Z
_TEXT	SEGMENT PARA USE32 PUBLIC 'CODE'
_TEXT	ENDS
;	COMDAT ??$_Maklocchr@_W@std@@YA_WDPA_WABU_Cvtvec@@@Z
_TEXT	SEGMENT PARA USE32 PUBLIC 'CODE'
_TEXT	ENDS
;	COMDAT ??$_Maklocstr@_W@std@@YAPA_WPBDPA_WABU_Cvtvec@@@Z
_TEXT	SEGMENT PARA USE32 PUBLIC 'CODE'
_TEXT	ENDS
;	COMDAT ??$_Maklocchr@D@std@@YADDPADABU_Cvtvec@@@Z
_TEXT	SEGMENT PARA USE32 PUBLIC 'CODE'
_TEXT	ENDS
;	COMDAT ??_C@_04LOAJBDKD@true?$AA@
CONST	SEGMENT DWORD USE32 PUBLIC 'CONST'
CONST	ENDS
;	COMDAT ??_C@_05LAPONLG@false?$AA@
CONST	SEGMENT DWORD USE32 PUBLIC 'CONST'
CONST	ENDS
;	COMDAT _wmemcpy
_TEXT	SEGMENT PARA USE32 PUBLIC 'CODE'
_TEXT	ENDS
;	COMDAT ?max_size@?$allocator@_W@std@@QBEIXZ
_TEXT	SEGMENT PARA USE32 PUBLIC 'CODE'
_TEXT	ENDS
;	COMDAT ?allocate@?$allocator@_W@std@@QAEPA_WI@Z
_TEXT	SEGMENT PARA USE32 PUBLIC 'CODE'
_TEXT	ENDS
;	COMDAT ??$_Allocate@_W@std@@YAPA_WIPA_W@Z
_TEXT	SEGMENT PARA USE32 PUBLIC 'CODE'
_TEXT	ENDS
;	COMDAT ?data@CStringData@ATL@@QAEPAXXZ
_TEXT	SEGMENT PARA USE32 PUBLIC 'CODE'
_TEXT	ENDS
;	COMDAT ?AtlThrowLastWin32@ATL@@YGXXZ
_TEXT	SEGMENT PARA USE32 PUBLIC 'CODE'
_TEXT	ENDS
;	COMDAT ??_C@_01GFHCPBMG@C?$AA@
CONST	SEGMENT DWORD USE32 PUBLIC 'CONST'
CONST	ENDS
;	COMDAT ?max_size@?$allocator@D@std@@QBEIXZ
_TEXT	SEGMENT PARA USE32 PUBLIC 'CODE'
_TEXT	ENDS
;	COMDAT ?allocate@?$allocator@D@std@@QAEPADI@Z
_TEXT	SEGMENT PARA USE32 PUBLIC 'CODE'
_TEXT	ENDS
;	COMDAT ??$_Allocate@D@std@@YAPADIPAD@Z
_TEXT	SEGMENT PARA USE32 PUBLIC 'CODE'
_TEXT	ENDS
;	COMDAT ?deallocate@?$allocator@D@std@@QAEXPADI@Z
_TEXT	SEGMENT PARA USE32 PUBLIC 'CODE'
_TEXT	ENDS
;	COMDAT ?Release@CStringData@ATL@@QAEXXZ
_TEXT	SEGMENT PARA USE32 PUBLIC 'CODE'
_TEXT	ENDS
;	COMDAT ?Format@?$ChTraitsCRT@D@ATL@@SAHPADPBD0@Z
_TEXT	SEGMENT PARA USE32 PUBLIC 'CODE'
_TEXT	ENDS
;	COMDAT ?GetFormattedLength@?$ChTraitsCRT@D@ATL@@SAHPBDPAD@Z
_TEXT	SEGMENT PARA USE32 PUBLIC 'CODE'
_TEXT	ENDS
;	COMDAT ?_Peek@?$istreambuf_iterator@_WU?$char_traits@_W@std@@@std@@AAE_WXZ
_TEXT	SEGMENT PARA USE32 PUBLIC 'CODE'
_TEXT	ENDS
;	COMDAT ?_Peek@?$istreambuf_iterator@DU?$char_traits@D@std@@@std@@AAEDXZ
_TEXT	SEGMENT PARA USE32 PUBLIC 'CODE'
_TEXT	ENDS
;	COMDAT ??$use_facet@V?$ctype@_W@std@@@std@@YAABV?$ctype@_W@0@ABVlocale@0@@Z
_TEXT	SEGMENT PARA USE32 PUBLIC 'CODE'
_TEXT	ENDS
;	COMDAT ??_S?$ctype@_W@std@@6B@
CONST	SEGMENT DWORD USE32 PUBLIC 'CONST'
CONST	ENDS
;	COMDAT ??_R4?$ctype@_W@std@@6B@
rdata$r	SEGMENT DWORD USE32 PUBLIC 'CONST'
rdata$r	ENDS
;	COMDAT ??_R0?AV?$ctype@_W@std@@@8
_DATA	SEGMENT DWORD USE32 PUBLIC 'DATA'
_DATA	ENDS
;	COMDAT ??_R3?$ctype@_W@std@@8
rdata$r	SEGMENT DWORD USE32 PUBLIC 'CONST'
rdata$r	ENDS
;	COMDAT ??_R2?$ctype@_W@std@@8
rdata$r	SEGMENT DWORD USE32 PUBLIC 'CONST'
rdata$r	ENDS
;	COMDAT ??_R1A@?0A@A@?$ctype@_W@std@@8
rdata$r	SEGMENT DWORD USE32 PUBLIC 'CONST'
rdata$r	ENDS
;	COMDAT ??_R1A@?0A@A@ctype_base@std@@8
rdata$r	SEGMENT DWORD USE32 PUBLIC 'CONST'
rdata$r	ENDS
;	COMDAT ??_R0?AUctype_base@std@@@8
_DATA	SEGMENT DWORD USE32 PUBLIC 'DATA'
_DATA	ENDS
;	COMDAT ??_G?$ctype@_W@std@@MAEPAXI@Z
_TEXT	SEGMENT PARA USE32 PUBLIC 'CODE'
_TEXT	ENDS
;	COMDAT ??_C@_08EPJLHIJG@bad?5cast?$AA@
CONST	SEGMENT DWORD USE32 PUBLIC 'CONST'
CONST	ENDS
;	COMDAT __TI2?AVbad_cast@@
xdata$x	SEGMENT DWORD USE32 PUBLIC 'CONST'
xdata$x	ENDS
;	COMDAT __CTA2?AVbad_cast@@
xdata$x	SEGMENT DWORD USE32 PUBLIC 'CONST'
xdata$x	ENDS
;	COMDAT __CT??_R0?AVbad_cast@@@8??0bad_cast@@QAE@ABV0@@Z12
xdata$x	SEGMENT DWORD USE32 PUBLIC 'CONST'
xdata$x	ENDS
;	COMDAT ??_R0?AVbad_cast@@@8
_DATA	SEGMENT DWORD USE32 PUBLIC 'DATA'
_DATA	ENDS
;	COMDAT ??$use_facet@V?$ctype@D@std@@@std@@YAABV?$ctype@D@0@ABVlocale@0@@Z
_TEXT	SEGMENT PARA USE32 PUBLIC 'CODE'
_TEXT	ENDS
;	COMDAT ??_S?$ctype@D@std@@6B@
CONST	SEGMENT DWORD USE32 PUBLIC 'CONST'
CONST	ENDS
;	COMDAT ??_R4?$ctype@D@std@@6B@
rdata$r	SEGMENT DWORD USE32 PUBLIC 'CONST'
rdata$r	ENDS
;	COMDAT ??_R0?AV?$ctype@D@std@@@8
_DATA	SEGMENT DWORD USE32 PUBLIC 'DATA'
_DATA	ENDS
;	COMDAT ??_R3?$ctype@D@std@@8
rdata$r	SEGMENT DWORD USE32 PUBLIC 'CONST'
rdata$r	ENDS
;	COMDAT ??_R2?$ctype@D@std@@8
rdata$r	SEGMENT DWORD USE32 PUBLIC 'CONST'
rdata$r	ENDS
;	COMDAT ??_R1A@?0A@A@?$ctype@D@std@@8
rdata$r	SEGMENT DWORD USE32 PUBLIC 'CONST'
rdata$r	ENDS
;	COMDAT ??_G?$ctype@D@std@@MAEPAXI@Z
_TEXT	SEGMENT PARA USE32 PUBLIC 'CODE'
_TEXT	ENDS
;	COMDAT ??_S?$numpunct@_W@std@@6B@
CONST	SEGMENT DWORD USE32 PUBLIC 'CONST'
CONST	ENDS
;	COMDAT ??_S?$numpunct@D@std@@6B@
CONST	SEGMENT DWORD USE32 PUBLIC 'CONST'
CONST	ENDS
;	COMDAT _wmemmove
_TEXT	SEGMENT PARA USE32 PUBLIC 'CODE'
_TEXT	ENDS
;	COMDAT ?deallocate@?$allocator@_W@std@@QAEXPA_WI@Z
_TEXT	SEGMENT PARA USE32 PUBLIC 'CODE'
_TEXT	ENDS
;	COMDAT ??0?$allocator@_W@std@@QAE@ABV01@@Z
_TEXT	SEGMENT PARA USE32 PUBLIC 'CODE'
_TEXT	ENDS
;	COMDAT ?StringSpanExcluding@?$ChTraitsCRT@_W@ATL@@SAHPB_W0@Z
_TEXT	SEGMENT PARA USE32 PUBLIC 'CODE'
_TEXT	ENDS
;	COMDAT ?StringSpanIncluding@?$ChTraitsCRT@_W@ATL@@SAHPB_W0@Z
_TEXT	SEGMENT PARA USE32 PUBLIC 'CODE'
_TEXT	ENDS
;	COMDAT ?StringCompareIgnore@?$ChTraitsCRT@_W@ATL@@SAHPB_W0@Z
_TEXT	SEGMENT PARA USE32 PUBLIC 'CODE'
_TEXT	ENDS
;	COMDAT ?GetSafeHwnd@CWnd@@QBEPAUHWND__@@XZ
_TEXT	SEGMENT PARA USE32 PUBLIC 'CODE'
_TEXT	ENDS
;	COMDAT ?GetDC@CWnd@@QAEPAVCDC@@XZ
_TEXT	SEGMENT PARA USE32 PUBLIC 'CODE'
_TEXT	ENDS
;	COMDAT ?GetSafeHdc@CDC@@QBEPAUHDC__@@XZ
_TEXT	SEGMENT PARA USE32 PUBLIC 'CODE'
_TEXT	ENDS
;	COMDAT ?GetClientRect@CWnd@@QBEXPAUtagRECT@@@Z
_TEXT	SEGMENT PARA USE32 PUBLIC 'CODE'
_TEXT	ENDS
;	COMDAT ?SetCheck@CButton@@QAEXH@Z
_TEXT	SEGMENT PARA USE32 PUBLIC 'CODE'
_TEXT	ENDS
;	COMDAT ?GetCheck@CButton@@QBEHXZ
_TEXT	SEGMENT PARA USE32 PUBLIC 'CODE'
_TEXT	ENDS
;	COMDAT ?Invalidate@CWnd@@QAEXH@Z
_TEXT	SEGMENT PARA USE32 PUBLIC 'CODE'
_TEXT	ENDS
;	COMDAT ?MoveWindow@CWnd@@QAEXPBUtagRECT@@H@Z
_TEXT	SEGMENT PARA USE32 PUBLIC 'CODE'
_TEXT	ENDS
;	COMDAT ?Width@CRect@@QBEHXZ
_TEXT	SEGMENT PARA USE32 PUBLIC 'CODE'
_TEXT	ENDS
;	COMDAT ?Height@CRect@@QBEHXZ
_TEXT	SEGMENT PARA USE32 PUBLIC 'CODE'
_TEXT	ENDS
;	COMDAT ?GetDesktopWindow@CWnd@@SGPAV1@XZ
_TEXT	SEGMENT PARA USE32 PUBLIC 'CODE'
_TEXT	ENDS
;	COMDAT ?SetParent@CWnd@@QAEPAV1@PAV1@@Z
_TEXT	SEGMENT PARA USE32 PUBLIC 'CODE'
_TEXT	ENDS
;	COMDAT ?GetWindowRect@CWnd@@QBEXPAUtagRECT@@@Z
_TEXT	SEGMENT PARA USE32 PUBLIC 'CODE'
_TEXT	ENDS
;	COMDAT ?GetParent@CWnd@@QBEPAV1@XZ
_TEXT	SEGMENT PARA USE32 PUBLIC 'CODE'
_TEXT	ENDS
;	COMDAT ??0?$allocator@D@std@@QAE@ABV01@@Z
_TEXT	SEGMENT PARA USE32 PUBLIC 'CODE'
_TEXT	ENDS
;	COMDAT ??0?$allocator@D@std@@QAE@XZ
_TEXT	SEGMENT PARA USE32 PUBLIC 'CODE'
_TEXT	ENDS
;	COMDAT ??0CRect@@QAE@HHHH@Z
_TEXT	SEGMENT PARA USE32 PUBLIC 'CODE'
_TEXT	ENDS
;	COMDAT ?OnCreate@CWnd@@IAEHPAUtagCREATESTRUCTA@@@Z
_TEXT	SEGMENT PARA USE32 PUBLIC 'CODE'
_TEXT	ENDS
;	COMDAT ?_messageEntries@GamePanelWnd@@0QBUAFX_MSGMAP_ENTRY@@B
CONST	SEGMENT DWORD USE32 PUBLIC 'CONST'
CONST	ENDS
;	COMDAT ?messageMap@GamePanelWnd@@1UAFX_MSGMAP@@B
CONST	SEGMENT DWORD USE32 PUBLIC 'CONST'
CONST	ENDS
;	COMDAT ??_7IMessageObserver@@6B@
CONST	SEGMENT DWORD USE32 PUBLIC 'CONST'
CONST	ENDS
;	COMDAT ??_R4IMessageObserver@@6B@
rdata$r	SEGMENT DWORD USE32 PUBLIC 'CONST'
rdata$r	ENDS
;	COMDAT ??_R3IMessageObserver@@8
rdata$r	SEGMENT DWORD USE32 PUBLIC 'CONST'
rdata$r	ENDS
;	COMDAT ??_R2IMessageObserver@@8
rdata$r	SEGMENT DWORD USE32 PUBLIC 'CONST'
rdata$r	ENDS
;	COMDAT ??_GIMessageObserver@@UAEPAXI@Z
_TEXT	SEGMENT PARA USE32 PUBLIC 'CODE'
_TEXT	ENDS
;	COMDAT ??_7CShockwaveFlash@@6B@
CONST	SEGMENT DWORD USE32 PUBLIC 'CONST'
CONST	ENDS
;	COMDAT ??_7IPanelChangeObserver@@6B@
CONST	SEGMENT DWORD USE32 PUBLIC 'CONST'
CONST	ENDS
;	COMDAT ??_7IHttpDownObserver@@6B@
CONST	SEGMENT DWORD USE32 PUBLIC 'CONST'
CONST	ENDS
;	COMDAT ??_7ILayoutChangeObserver@@6B@
CONST	SEGMENT DWORD USE32 PUBLIC 'CONST'
CONST	ENDS
;	COMDAT ??1IMessageObserver@@UAE@XZ
_TEXT	SEGMENT PARA USE32 PUBLIC 'CODE'
_TEXT	ENDS
;	COMDAT ??0CRect@@QAE@XZ
_TEXT	SEGMENT PARA USE32 PUBLIC 'CODE'
_TEXT	ENDS
;	COMDAT ??_7GamePanelWnd@@6BIPanelChangeObserver@@@
CONST	SEGMENT DWORD USE32 PUBLIC 'CONST'
CONST	ENDS
;	COMDAT ??_7GamePanelWnd@@6BIHttpDownObserver@@@
CONST	SEGMENT DWORD USE32 PUBLIC 'CONST'
CONST	ENDS
;	COMDAT ??_7GamePanelWnd@@6BILayoutChangeObserver@@@
CONST	SEGMENT DWORD USE32 PUBLIC 'CONST'
CONST	ENDS
;	COMDAT ??_7GamePanelWnd@@6BCBasicWnd@@@
CONST	SEGMENT DWORD USE32 PUBLIC 'CONST'
CONST	ENDS
;	COMDAT ?classGamePanelWnd@GamePanelWnd@@2UCRuntimeClass@@B
CONST	SEGMENT DWORD USE32 PUBLIC 'CONST'
CONST	ENDS
;	COMDAT ??_7IAdData@@6B@
CONST	SEGMENT DWORD USE32 PUBLIC 'CONST'
CONST	ENDS
;	COMDAT ??_7CCriticalSection@@6B@
CONST	SEGMENT DWORD USE32 PUBLIC 'CONST'
CONST	ENDS
;	COMDAT ??_C@_00CNPNBAHC@?$AA@
CONST	SEGMENT DWORD USE32 PUBLIC 'CONST'
CONST	ENDS
;	COMDAT ??_7IData@@6B@
CONST	SEGMENT DWORD USE32 PUBLIC 'CONST'
CONST	ENDS
;	COMDAT ?GetDefaultManager@?$StrTraitMFC_DLL@DV?$ChTraitsCRT@D@ATL@@@@SAPAUIAtlStringMgr@ATL@@XZ
_TEXT	SEGMENT PARA USE32 PUBLIC 'CODE'
_TEXT	ENDS
;	COMDAT ?FindStringResourceInstance@?$StrTraitMFC_DLL@DV?$ChTraitsCRT@D@ATL@@@@SAPAUHINSTANCE__@@I@Z
_TEXT	SEGMENT PARA USE32 PUBLIC 'CODE'
_TEXT	ENDS
;	COMDAT ?GetBaseTypeLength@?$ChTraitsCRT@D@ATL@@SAHPB_WH@Z
_TEXT	SEGMENT PARA USE32 PUBLIC 'CODE'
_TEXT	ENDS
;	COMDAT ?ConvertToBaseType@?$ChTraitsCRT@D@ATL@@SAXPADHPB_WH@Z
_TEXT	SEGMENT PARA USE32 PUBLIC 'CODE'
_TEXT	ENDS
;	COMDAT ??_7COccManager@@6B@
CONST	SEGMENT DWORD USE32 PUBLIC 'CONST'
CONST	ENDS
;	COMDAT ??1CNoTrackObject@@UAE@XZ
_TEXT	SEGMENT PARA USE32 PUBLIC 'CODE'
_TEXT	ENDS
;	COMDAT ??2CObject@@SGPAXI@Z
_TEXT	SEGMENT PARA USE32 PUBLIC 'CODE'
_TEXT	ENDS
;	COMDAT ??_7CCustomOccManager@@6B@
CONST	SEGMENT DWORD USE32 PUBLIC 'CONST'
CONST	ENDS
;	COMDAT ??0IUnknown@@QAE@XZ
_TEXT	SEGMENT PARA USE32 PUBLIC 'CODE'
_TEXT	ENDS
;	COMDAT ??_7XDocHostUIHandler@CCustomControlSite@@6B@
CONST	SEGMENT DWORD USE32 PUBLIC 'CONST'
CONST	ENDS
;	COMDAT ??_7XDocHostShowUI@CCustomControlSite@@6B@
CONST	SEGMENT DWORD USE32 PUBLIC 'CONST'
CONST	ENDS
;	COMDAT ??3CObject@@SGXPAX@Z
_TEXT	SEGMENT PARA USE32 PUBLIC 'CODE'
_TEXT	ENDS
;	COMDAT ??_7CCustomControlSite@@6B@
CONST	SEGMENT DWORD USE32 PUBLIC 'CONST'
CONST	ENDS
;	COMDAT ?clsid@?1??GetClsid@CShockwaveFlash@@QAEABU_GUID@@XZ@4U3@B
CONST	SEGMENT DWORD USE32 PUBLIC 'CONST'
CONST	ENDS
;	COMDAT ??_7HTTPObserver@@6B@
CONST	SEGMENT DWORD USE32 PUBLIC 'CONST'
CONST	ENDS
;	COMDAT ?abs@@YAJJ@Z
_TEXT	SEGMENT PARA USE32 PUBLIC 'CODE'
_TEXT	ENDS
;	COMDAT ?Save@Image@Gdiplus@@QAE?AW4Status@2@PB_WPBU_GUID@@PBVEncoderParameters@2@@Z
_TEXT	SEGMENT PARA USE32 PUBLIC 'CODE'
_TEXT	ENDS
;	COMDAT ?SetStatus@Image@Gdiplus@@IBE?AW4Status@2@W432@@Z
_TEXT	SEGMENT PARA USE32 PUBLIC 'CODE'
_TEXT	ENDS
;	COMDAT ?AtlA2WHelper@@YGPA_WPA_WPBDHI@Z
_TEXT	SEGMENT PARA USE32 PUBLIC 'CODE'
_TEXT	ENDS
;	COMDAT ??0Bitmap@Gdiplus@@QAE@PAUHBITMAP__@@PAUHPALETTE__@@@Z
_TEXT	SEGMENT PARA USE32 PUBLIC 'CODE'
_TEXT	ENDS
;	COMDAT ??0Image@Gdiplus@@IAE@XZ
_TEXT	SEGMENT PARA USE32 PUBLIC 'CODE'
_TEXT	ENDS
;	COMDAT ??_7Image@Gdiplus@@6B@
CONST	SEGMENT DWORD USE32 PUBLIC 'CONST'
CONST	ENDS
;	COMDAT ??_R4Image@Gdiplus@@6B@
rdata$r	SEGMENT DWORD USE32 PUBLIC 'CONST'
rdata$r	ENDS
;	COMDAT ??_R0?AVImage@Gdiplus@@@8
_DATA	SEGMENT DWORD USE32 PUBLIC 'DATA'
_DATA	ENDS
;	COMDAT ??_R3Image@Gdiplus@@8
rdata$r	SEGMENT DWORD USE32 PUBLIC 'CONST'
rdata$r	ENDS
;	COMDAT ??_R2Image@Gdiplus@@8
rdata$r	SEGMENT DWORD USE32 PUBLIC 'CONST'
rdata$r	ENDS
;	COMDAT ??_R1A@?0A@A@Image@Gdiplus@@8
rdata$r	SEGMENT DWORD USE32 PUBLIC 'CONST'
rdata$r	ENDS
;	COMDAT ??_R13?0A@A@GdiplusBase@Gdiplus@@8
rdata$r	SEGMENT DWORD USE32 PUBLIC 'CONST'
rdata$r	ENDS
;	COMDAT ??_R0?AVGdiplusBase@Gdiplus@@@8
_DATA	SEGMENT DWORD USE32 PUBLIC 'DATA'
_DATA	ENDS
;	COMDAT ??_GImage@Gdiplus@@UAEPAXI@Z
_TEXT	SEGMENT PARA USE32 PUBLIC 'CODE'
_TEXT	ENDS
;	COMDAT ??3GdiplusBase@Gdiplus@@SAXPAX@Z
_TEXT	SEGMENT PARA USE32 PUBLIC 'CODE'
_TEXT	ENDS
;	COMDAT ?Clone@Image@Gdiplus@@UAEPAV12@XZ
_TEXT	SEGMENT PARA USE32 PUBLIC 'CODE'
_TEXT	ENDS
;	COMDAT ??2GdiplusBase@Gdiplus@@SAPAXI@Z
_TEXT	SEGMENT PARA USE32 PUBLIC 'CODE'
_TEXT	ENDS
;	COMDAT ??0Image@Gdiplus@@IAE@PAVGpImage@1@W4Status@1@@Z
_TEXT	SEGMENT PARA USE32 PUBLIC 'CODE'
_TEXT	ENDS
;	COMDAT ??1Image@Gdiplus@@UAE@XZ
_TEXT	SEGMENT PARA USE32 PUBLIC 'CODE'
_TEXT	ENDS
;	COMDAT ??_7Bitmap@Gdiplus@@6B@
CONST	SEGMENT DWORD USE32 PUBLIC 'CONST'
CONST	ENDS
;	COMDAT ??_R4Bitmap@Gdiplus@@6B@
rdata$r	SEGMENT DWORD USE32 PUBLIC 'CONST'
rdata$r	ENDS
;	COMDAT ??_R0?AVBitmap@Gdiplus@@@8
_DATA	SEGMENT DWORD USE32 PUBLIC 'DATA'
_DATA	ENDS
;	COMDAT ??_R3Bitmap@Gdiplus@@8
rdata$r	SEGMENT DWORD USE32 PUBLIC 'CONST'
rdata$r	ENDS
;	COMDAT ??_R2Bitmap@Gdiplus@@8
rdata$r	SEGMENT DWORD USE32 PUBLIC 'CONST'
rdata$r	ENDS
;	COMDAT ??_R1A@?0A@A@Bitmap@Gdiplus@@8
rdata$r	SEGMENT DWORD USE32 PUBLIC 'CONST'
rdata$r	ENDS
;	COMDAT ??_GBitmap@Gdiplus@@UAEPAXI@Z
_TEXT	SEGMENT PARA USE32 PUBLIC 'CODE'
_TEXT	ENDS
;	COMDAT ?SetNativeImage@Image@Gdiplus@@IAEXPAVGpImage@2@@Z
_TEXT	SEGMENT PARA USE32 PUBLIC 'CODE'
_TEXT	ENDS
;	COMDAT ?Save@Image@Gdiplus@@QAE?AW4Status@2@PAUIStream@@PBU_GUID@@PBVEncoderParameters@2@@Z
_TEXT	SEGMENT PARA USE32 PUBLIC 'CODE'
_TEXT	ENDS
;	COMDAT ?GetImageEncoders@Gdiplus@@YA?AW4Status@1@IIPAVImageCodecInfo@1@@Z
_TEXT	SEGMENT PARA USE32 PUBLIC 'CODE'
_TEXT	ENDS
;	COMDAT ?GetImageEncodersSize@Gdiplus@@YA?AW4Status@1@PAI0@Z
_TEXT	SEGMENT PARA USE32 PUBLIC 'CODE'
_TEXT	ENDS
;	COMDAT ?DrawImage@Graphics@Gdiplus@@QAE?AW4Status@2@PAVImage@2@HH@Z
_TEXT	SEGMENT PARA USE32 PUBLIC 'CODE'
_TEXT	ENDS
;	COMDAT ?SetStatus@Graphics@Gdiplus@@IBE?AW4Status@2@W432@@Z
_TEXT	SEGMENT PARA USE32 PUBLIC 'CODE'
_TEXT	ENDS
;	COMDAT ??1Graphics@Gdiplus@@QAE@XZ
_TEXT	SEGMENT PARA USE32 PUBLIC 'CODE'
_TEXT	ENDS
;	COMDAT ??0Graphics@Gdiplus@@QAE@PAVImage@1@@Z
_TEXT	SEGMENT PARA USE32 PUBLIC 'CODE'
_TEXT	ENDS
;	COMDAT ?SetNativeGraphics@Graphics@Gdiplus@@IAEXPAVGpGraphics@2@@Z
_TEXT	SEGMENT PARA USE32 PUBLIC 'CODE'
_TEXT	ENDS
;	COMDAT ??0Bitmap@Gdiplus@@QAE@HHHHPAE@Z
_TEXT	SEGMENT PARA USE32 PUBLIC 'CODE'
_TEXT	ENDS
;	COMDAT ?UnlockBits@Bitmap@Gdiplus@@QAE?AW4Status@2@PAVBitmapData@2@@Z
_TEXT	SEGMENT PARA USE32 PUBLIC 'CODE'
_TEXT	ENDS
;	COMDAT ?LockBits@Bitmap@Gdiplus@@QAE?AW4Status@2@PBVRect@2@IHPAVBitmapData@2@@Z
_TEXT	SEGMENT PARA USE32 PUBLIC 'CODE'
_TEXT	ENDS
;	COMDAT ??0Rect@Gdiplus@@QAE@HHHH@Z
_TEXT	SEGMENT PARA USE32 PUBLIC 'CODE'
_TEXT	ENDS
;	COMDAT ?GetPalette@Image@Gdiplus@@QAE?AW4Status@2@PAUColorPalette@2@H@Z
_TEXT	SEGMENT PARA USE32 PUBLIC 'CODE'
_TEXT	ENDS
;	COMDAT ?GetPaletteSize@Image@Gdiplus@@QAEHXZ
_TEXT	SEGMENT PARA USE32 PUBLIC 'CODE'
_TEXT	ENDS
;	COMDAT ?IsIndexedPixelFormat@Gdiplus@@YAHH@Z
_TEXT	SEGMENT PARA USE32 PUBLIC 'CODE'
_TEXT	ENDS
;	COMDAT ?GetWidth@Image@Gdiplus@@QAEIXZ
_TEXT	SEGMENT PARA USE32 PUBLIC 'CODE'
_TEXT	ENDS
;	COMDAT ?GetHeight@Image@Gdiplus@@QAEIXZ
_TEXT	SEGMENT PARA USE32 PUBLIC 'CODE'
_TEXT	ENDS
;	COMDAT ?IsAlphaPixelFormat@Gdiplus@@YAHH@Z
_TEXT	SEGMENT PARA USE32 PUBLIC 'CODE'
_TEXT	ENDS
;	COMDAT ?GetPixelFormatSize@Gdiplus@@YAIH@Z
_TEXT	SEGMENT PARA USE32 PUBLIC 'CODE'
_TEXT	ENDS
;	COMDAT ?GetPixelFormat@Image@Gdiplus@@QAEHXZ
_TEXT	SEGMENT PARA USE32 PUBLIC 'CODE'
_TEXT	ENDS
;	COMDAT ??0Bitmap@Gdiplus@@QAE@PB_WH@Z
_TEXT	SEGMENT PARA USE32 PUBLIC 'CODE'
_TEXT	ENDS
;	COMDAT ?GetLastStatus@Image@Gdiplus@@QBE?AW4Status@2@XZ
_TEXT	SEGMENT PARA USE32 PUBLIC 'CODE'
_TEXT	ENDS
;	COMDAT ??1Bitmap@Gdiplus@@UAE@XZ
_TEXT	SEGMENT PARA USE32 PUBLIC 'CODE'
_TEXT	ENDS
;	COMDAT ??0Bitmap@Gdiplus@@QAE@PAUIStream@@H@Z
_TEXT	SEGMENT PARA USE32 PUBLIC 'CODE'
_TEXT	ENDS
;	COMDAT ?GetImageDecoders@Gdiplus@@YA?AW4Status@1@IIPAVImageCodecInfo@1@@Z
_TEXT	SEGMENT PARA USE32 PUBLIC 'CODE'
_TEXT	ENDS
;	COMDAT ?_AtlVerifyStackAvailable@_ATL_SAFE_ALLOCA_IMPL@ATL@@YA_NK@Z
_TEXT	SEGMENT PARA USE32 PUBLIC 'CODE'
_TEXT	ENDS
;	COMDAT ?GetImageDecodersSize@Gdiplus@@YA?AW4Status@1@PAI0@Z
_TEXT	SEGMENT PARA USE32 PUBLIC 'CODE'
_TEXT	ENDS
;	COMDAT ??1?$CW2AEX@$0IA@@ATL@@QAE@XZ
_TEXT	SEGMENT PARA USE32 PUBLIC 'CODE'
_TEXT	ENDS
;	COMDAT ??0?$CW2AEX@$0IA@@ATL@@QAE@PB_W@Z
_TEXT	SEGMENT PARA USE32 PUBLIC 'CODE'
_TEXT	ENDS
;	COMDAT ?Init@?$CW2AEX@$0IA@@ATL@@AAEXPB_WI@Z
_TEXT	SEGMENT PARA USE32 PUBLIC 'CODE'
_TEXT	ENDS
;	COMDAT ??B?$CW2AEX@$0IA@@ATL@@QBEPADXZ
_TEXT	SEGMENT PARA USE32 PUBLIC 'CODE'
_TEXT	ENDS
;	COMDAT _==
_TEXT	SEGMENT PARA USE32 PUBLIC 'CODE'
_TEXT	ENDS
;	COMDAT _IsEqualGUID
_TEXT	SEGMENT PARA USE32 PUBLIC 'CODE'
_TEXT	ENDS
;	COMDAT ?apguidFormats@?1??ShouldExcludeFormat@CImage@ATL@@CA_NABU_GUID@@K@Z@4PAPBU4@A
_DATA	SEGMENT DWORD USE32 PUBLIC 'DATA'
_DATA	ENDS
;	COMDAT _ImageFormatIcon
CONST	SEGMENT DWORD USE32 PUBLIC 'CONST'
CONST	ENDS
;	COMDAT _ImageFormatTIFF
CONST	SEGMENT DWORD USE32 PUBLIC 'CONST'
CONST	ENDS
;	COMDAT _ImageFormatPNG
CONST	SEGMENT DWORD USE32 PUBLIC 'CONST'
CONST	ENDS
;	COMDAT _ImageFormatJPEG
CONST	SEGMENT DWORD USE32 PUBLIC 'CONST'
CONST	ENDS
;	COMDAT _ImageFormatWMF
CONST	SEGMENT DWORD USE32 PUBLIC 'CONST'
CONST	ENDS
;	COMDAT _ImageFormatEMF
CONST	SEGMENT DWORD USE32 PUBLIC 'CONST'
CONST	ENDS
;	COMDAT _ImageFormatBMP
CONST	SEGMENT DWORD USE32 PUBLIC 'CONST'
CONST	ENDS
;	COMDAT _ImageFormatGIF
CONST	SEGMENT DWORD USE32 PUBLIC 'CONST'
CONST	ENDS
;	COMDAT ?Allocate@?$CAtlSafeAllocBufferManager@VCCRTAllocator@ATL@@@_ATL_SAFE_ALLOCA_IMPL@ATL@@QAEPAXK@Z
_TEXT	SEGMENT PARA USE32 PUBLIC 'CODE'
_TEXT	ENDS
;	COMDAT ?Allocate@CCRTAllocator@ATL@@SAPAXI@Z
_TEXT	SEGMENT PARA USE32 PUBLIC 'CODE'
_TEXT	ENDS
;	COMDAT ?GetData@CAtlSafeAllocBufferNode@?$CAtlSafeAllocBufferManager@VCCRTAllocator@ATL@@@_ATL_SAFE_ALLOCA_IMPL@ATL@@QAEPAXXZ
_TEXT	SEGMENT PARA USE32 PUBLIC 'CODE'
_TEXT	ENDS
;	COMDAT ??1?$CAtlSafeAllocBufferManager@VCCRTAllocator@ATL@@@_ATL_SAFE_ALLOCA_IMPL@ATL@@QAE@XZ
_TEXT	SEGMENT PARA USE32 PUBLIC 'CODE'
_TEXT	ENDS
;	COMDAT ?Free@CCRTAllocator@ATL@@SAXPAX@Z
_TEXT	SEGMENT PARA USE32 PUBLIC 'CODE'
_TEXT	ENDS
;	COMDAT ??0?$CAtlSafeAllocBufferManager@VCCRTAllocator@ATL@@@_ATL_SAFE_ALLOCA_IMPL@ATL@@QAE@XZ
_TEXT	SEGMENT PARA USE32 PUBLIC 'CODE'
_TEXT	ENDS
;	COMDAT ??_7CImage@ATL@@6B@
CONST	SEGMENT DWORD USE32 PUBLIC 'CONST'
CONST	ENDS
;	COMDAT ?InterlockedExchangePointer@@YGPAXPAPAXPAX@Z
_TEXT	SEGMENT PARA USE32 PUBLIC 'CODE'
_TEXT	ENDS
;	COMDAT ??0GdiplusStartupInput@Gdiplus@@QAE@P6GXW4DebugEventLevel@1@PAD@ZHH@Z
_TEXT	SEGMENT PARA USE32 PUBLIC 'CODE'
_TEXT	ENDS
;	COMDAT ?_AtlRaiseException@ATL@@YAXKK@Z
_TEXT	SEGMENT PARA USE32 PUBLIC 'CODE'
_TEXT	ENDS
;	COMDAT ?AtlThrow@ATL@@YGXJ@Z
_TEXT	SEGMENT PARA USE32 PUBLIC 'CODE'
_TEXT	ENDS
;	COMDAT ?excludeValid@CImage@ATL@@2KB
CONST	SEGMENT DWORD USE32 PUBLIC 'CONST'
CONST	ENDS
;	COMDAT ?excludeDefaultSave@CImage@ATL@@2KB
CONST	SEGMENT DWORD USE32 PUBLIC 'CONST'
CONST	ENDS
;	COMDAT ?excludeDefaultLoad@CImage@ATL@@2KB
CONST	SEGMENT DWORD USE32 PUBLIC 'CONST'
CONST	ENDS
;	COMDAT ?excludeOther@CImage@ATL@@2KB
CONST	SEGMENT DWORD USE32 PUBLIC 'CONST'
CONST	ENDS
;	COMDAT ?excludeIcon@CImage@ATL@@2KB
CONST	SEGMENT DWORD USE32 PUBLIC 'CONST'
CONST	ENDS
;	COMDAT ?excludeTIFF@CImage@ATL@@2KB
CONST	SEGMENT DWORD USE32 PUBLIC 'CONST'
CONST	ENDS
;	COMDAT ?excludePNG@CImage@ATL@@2KB
CONST	SEGMENT DWORD USE32 PUBLIC 'CONST'
CONST	ENDS
;	COMDAT ?excludeJPEG@CImage@ATL@@2KB
CONST	SEGMENT DWORD USE32 PUBLIC 'CONST'
CONST	ENDS
;	COMDAT ?excludeWMF@CImage@ATL@@2KB
CONST	SEGMENT DWORD USE32 PUBLIC 'CONST'
CONST	ENDS
;	COMDAT ?excludeEMF@CImage@ATL@@2KB
CONST	SEGMENT DWORD USE32 PUBLIC 'CONST'
CONST	ENDS
;	COMDAT ?excludeBMP@CImage@ATL@@2KB
CONST	SEGMENT DWORD USE32 PUBLIC 'CONST'
CONST	ENDS
;	COMDAT ?excludeGIF@CImage@ATL@@2KB
CONST	SEGMENT DWORD USE32 PUBLIC 'CONST'
CONST	ENDS
;	COMDAT ?createAlphaChannel@CImage@ATL@@2KB
CONST	SEGMENT DWORD USE32 PUBLIC 'CONST'
CONST	ENDS
;	COMDAT ?c_bIsMFCDLLTraits@?$_MFCDLLTraitsCheck@_WV?$StrTraitATL@_WV?$ChTraitsCRT@_W@ATL@@@ATL@@@_CSTRING_IMPL_@ATL@@2_NB
CONST	SEGMENT DWORD USE32 PUBLIC 'CONST'
CONST	ENDS
;	COMDAT ?c_bIsMFCDLLTraits@?$_MFCDLLTraitsCheck@DV?$StrTraitATL@DV?$ChTraitsCRT@D@ATL@@@ATL@@@_CSTRING_IMPL_@ATL@@2_NB
CONST	SEGMENT DWORD USE32 PUBLIC 'CONST'
CONST	ENDS
;	COMDAT ?_AtlGetConversionACP@ATL@@YGIXZ
_TEXT	SEGMENT PARA USE32 PUBLIC 'CODE'
_TEXT	ENDS
;	COMDAT ?g_pfnGetThreadACP@ATL@@3P6GIXZA
_DATA	SEGMENT DWORD USE32 PUBLIC 'DATA'
_DATA	ENDS
;	COMDAT ?_AtlGetThreadACPThunk@ATL@@YGIXZ
_TEXT	SEGMENT PARA USE32 PUBLIC 'CODE'
_TEXT	ENDS
;	COMDAT ?_AtlGetThreadACPReal@ATL@@YGIXZ
_TEXT	SEGMENT PARA USE32 PUBLIC 'CODE'
_TEXT	ENDS
;	COMDAT ?_AtlGetThreadACPFake@ATL@@YGIXZ
_TEXT	SEGMENT PARA USE32 PUBLIC 'CODE'
_TEXT	ENDS
;	COMDAT ?_strthunks@ATL@@3U_AtlStringThunks@1@A
_DATA	SEGMENT DWORD USE32 PUBLIC 'DATA'
_DATA	ENDS
;	COMDAT ?CompareStringWThunk@ATL@@YGHKKPB_WH0H@Z
_TEXT	SEGMENT PARA USE32 PUBLIC 'CODE'
_TEXT	ENDS
;	COMDAT ?_AtlInstallStringThunk@ATL@@YAXPAPAXPAX1@Z
_TEXT	SEGMENT PARA USE32 PUBLIC 'CODE'
_TEXT	ENDS
;	COMDAT ??_B?1??_AtlInstallStringThunk@ATL@@YAXPAPAXPAX1@Z@51
_BSS	SEGMENT DWORD USE32 PUBLIC 'BSS'
_BSS	ENDS
;	COMDAT ?s_bWin9x@?1??_AtlInstallStringThunk@ATL@@YAXPAPAXPAX1@Z@4_NA
_BSS	SEGMENT DWORD USE32 PUBLIC 'BSS'
_BSS	ENDS
;	COMDAT ?CompareStringWFake@ATL@@YGHKKPB_WH0H@Z
_TEXT	SEGMENT PARA USE32 PUBLIC 'CODE'
_TEXT	ENDS
;	COMDAT ?AtlW2AHelper@@YGPADPADPB_WHI@Z
_TEXT	SEGMENT PARA USE32 PUBLIC 'CODE'
_TEXT	ENDS
;	COMDAT ?GetStringTypeExWThunk@ATL@@YGHKKPB_WHPAG@Z
_TEXT	SEGMENT PARA USE32 PUBLIC 'CODE'
_TEXT	ENDS
;	COMDAT ?GetStringTypeExWFake@ATL@@YGHKKPB_WHPAG@Z
_TEXT	SEGMENT PARA USE32 PUBLIC 'CODE'
_TEXT	ENDS
;	COMDAT ??0?$CTempBuffer@D$0IA@VCCRTAllocator@ATL@@@ATL@@QAE@XZ
_TEXT	SEGMENT PARA USE32 PUBLIC 'CODE'
_TEXT	ENDS
;	COMDAT ??1?$CTempBuffer@D$0IA@VCCRTAllocator@ATL@@@ATL@@QAE@XZ
_TEXT	SEGMENT PARA USE32 PUBLIC 'CODE'
_TEXT	ENDS
;	COMDAT ?FreeHeap@?$CTempBuffer@D$0IA@VCCRTAllocator@ATL@@@ATL@@AAEXXZ
_TEXT	SEGMENT PARA USE32 PUBLIC 'CODE'
_TEXT	ENDS
;	COMDAT ?Allocate@?$CTempBuffer@D$0IA@VCCRTAllocator@ATL@@@ATL@@QAEPADI@Z
_TEXT	SEGMENT PARA USE32 PUBLIC 'CODE'
_TEXT	ENDS
;	COMDAT ?AllocateBytes@?$CTempBuffer@D$0IA@VCCRTAllocator@ATL@@@ATL@@QAEPADI@Z
_TEXT	SEGMENT PARA USE32 PUBLIC 'CODE'
_TEXT	ENDS
;	COMDAT ?AllocateHeap@?$CTempBuffer@D$0IA@VCCRTAllocator@ATL@@@ATL@@AAEXI@Z
_TEXT	SEGMENT PARA USE32 PUBLIC 'CODE'
_TEXT	ENDS
;	COMDAT ??B?$CTempBuffer@D$0IA@VCCRTAllocator@ATL@@@ATL@@QBEPADXZ
_TEXT	SEGMENT PARA USE32 PUBLIC 'CODE'
_TEXT	ENDS
;	COMDAT ?lstrcmpiWThunk@ATL@@YGHPB_W0@Z
_TEXT	SEGMENT PARA USE32 PUBLIC 'CODE'
_TEXT	ENDS
;	COMDAT ?lstrcmpiWFake@ATL@@YGHPB_W0@Z
_TEXT	SEGMENT PARA USE32 PUBLIC 'CODE'
_TEXT	ENDS
;	COMDAT ?CharLowerWThunk@ATL@@YGPA_WPA_W@Z
_TEXT	SEGMENT PARA USE32 PUBLIC 'CODE'
_TEXT	ENDS
;	COMDAT ?CharLowerWFake@ATL@@YGPA_WPA_W@Z
_TEXT	SEGMENT PARA USE32 PUBLIC 'CODE'
_TEXT	ENDS
;	COMDAT ?CharUpperWThunk@ATL@@YGPA_WPA_W@Z
_TEXT	SEGMENT PARA USE32 PUBLIC 'CODE'
_TEXT	ENDS
;	COMDAT ?CharUpperWFake@ATL@@YGPA_WPA_W@Z
_TEXT	SEGMENT PARA USE32 PUBLIC 'CODE'
_TEXT	ENDS
;	COMDAT ?GetEnvironmentVariableWThunk@ATL@@YGKPB_WPA_WK@Z
_TEXT	SEGMENT PARA USE32 PUBLIC 'CODE'
_TEXT	ENDS
;	COMDAT ?GetEnvironmentVariableWFake@ATL@@YGKPB_WPA_WK@Z
_TEXT	SEGMENT PARA USE32 PUBLIC 'CODE'
_TEXT	ENDS
;	COMDAT ?AddRef@CStringData@ATL@@QAEXXZ
_TEXT	SEGMENT PARA USE32 PUBLIC 'CODE'
_TEXT	ENDS
;	COMDAT ?SetManager@CNilStringData@ATL@@QAEXPAUIAtlStringMgr@2@@Z
_TEXT	SEGMENT PARA USE32 PUBLIC 'CODE'
_TEXT	ENDS
;	COMDAT ??0CNilStringData@ATL@@QAE@XZ
_TEXT	SEGMENT PARA USE32 PUBLIC 'CODE'
_TEXT	ENDS
;	COMDAT ??_7CAtlStringMgr@ATL@@6B@
CONST	SEGMENT DWORD USE32 PUBLIC 'CONST'
CONST	ENDS
sxdata	SEGMENT DWORD USE32 'SXDATA'
sxdata	ENDS
FLAT	GROUP _DATA, CONST, _BSS
	ASSUME	CS: FLAT, DS: FLAT, SS: FLAT
endif

INCLUDELIB MSVCRT
INCLUDELIB OLDNAMES

PUBLIC	?classGamePanelWnd@GamePanelWnd@@2UCRuntimeClass@@B ; GamePanelWnd::classGamePanelWnd
PUBLIC	?_messageEntries@GamePanelWnd@@0QBUAFX_MSGMAP_ENTRY@@B ; GamePanelWnd::_messageEntries
PUBLIC	?messageMap@GamePanelWnd@@1UAFX_MSGMAP@@B	; GamePanelWnd::messageMap
PUBLIC	?OnCreate@GamePanelWnd@@IAEHPAUtagCREATESTRUCTA@@@Z ; GamePanelWnd::OnCreate
PUBLIC	?OnDestroy@GamePanelWnd@@IAEXXZ			; GamePanelWnd::OnDestroy
PUBLIC	?OnSize@GamePanelWnd@@IAEXIHH@Z			; GamePanelWnd::OnSize
PUBLIC	?OnClickedSwitch@GamePanelWnd@@IAEXXZ		; GamePanelWnd::OnClickedSwitch
PUBLIC	?OnClickedReplay@GamePanelWnd@@IAEJIJ@Z		; GamePanelWnd::OnClickedReplay
PUBLIC	?OnClickedCut@GamePanelWnd@@IAEJIJ@Z		; GamePanelWnd::OnClickedCut
PUBLIC	?_strthunks@ATL@@3U_AtlStringThunks@1@A		; ATL::_strthunks
PUBLIC	?createAlphaChannel@CImage@ATL@@2KB		; ATL::CImage::createAlphaChannel
PUBLIC	?GetEnvironmentVariableWThunk@ATL@@YGKPB_WPA_WK@Z ; ATL::GetEnvironmentVariableWThunk
PUBLIC	?excludeGIF@CImage@ATL@@2KB			; ATL::CImage::excludeGIF
PUBLIC	?excludeBMP@CImage@ATL@@2KB			; ATL::CImage::excludeBMP
PUBLIC	?excludeEMF@CImage@ATL@@2KB			; ATL::CImage::excludeEMF
PUBLIC	?excludeWMF@CImage@ATL@@2KB			; ATL::CImage::excludeWMF
PUBLIC	?excludeJPEG@CImage@ATL@@2KB			; ATL::CImage::excludeJPEG
PUBLIC	?excludePNG@CImage@ATL@@2KB			; ATL::CImage::excludePNG
PUBLIC	?excludeTIFF@CImage@ATL@@2KB			; ATL::CImage::excludeTIFF
PUBLIC	?excludeIcon@CImage@ATL@@2KB			; ATL::CImage::excludeIcon
PUBLIC	?excludeOther@CImage@ATL@@2KB			; ATL::CImage::excludeOther
PUBLIC	?excludeDefaultLoad@CImage@ATL@@2KB		; ATL::CImage::excludeDefaultLoad
PUBLIC	?excludeDefaultSave@CImage@ATL@@2KB		; ATL::CImage::excludeDefaultSave
PUBLIC	?excludeValid@CImage@ATL@@2KB			; ATL::CImage::excludeValid
PUBLIC	?CompareStringWThunk@ATL@@YGHKKPB_WH0H@Z	; ATL::CompareStringWThunk
PUBLIC	?GetStringTypeExWThunk@ATL@@YGHKKPB_WHPAG@Z	; ATL::GetStringTypeExWThunk
PUBLIC	?c_bIsMFCDLLTraits@?$_MFCDLLTraitsCheck@DV?$StrTraitATL@DV?$ChTraitsCRT@D@ATL@@@ATL@@@_CSTRING_IMPL_@ATL@@2_NB ; ATL::_CSTRING_IMPL_::_MFCDLLTraitsCheck<char,ATL::StrTraitATL<char,ATL::ChTraitsCRT<char> > >::c_bIsMFCDLLTraits
PUBLIC	?lstrcmpiWThunk@ATL@@YGHPB_W0@Z			; ATL::lstrcmpiWThunk
PUBLIC	?CharLowerWThunk@ATL@@YGPA_WPA_W@Z		; ATL::CharLowerWThunk
PUBLIC	?CharUpperWThunk@ATL@@YGPA_WPA_W@Z		; ATL::CharUpperWThunk
PUBLIC	?c_bIsMFCDLLTraits@?$_MFCDLLTraitsCheck@_WV?$StrTraitATL@_WV?$ChTraitsCRT@_W@ATL@@@ATL@@@_CSTRING_IMPL_@ATL@@2_NB ; ATL::_CSTRING_IMPL_::_MFCDLLTraitsCheck<wchar_t,ATL::StrTraitATL<wchar_t,ATL::ChTraitsCRT<wchar_t> > >::c_bIsMFCDLLTraits
PUBLIC	?g_pfnGetThreadACP@ATL@@3P6GIXZA		; ATL::g_pfnGetThreadACP
PUBLIC	?_AtlGetThreadACPThunk@ATL@@YGIXZ		; ATL::_AtlGetThreadACPThunk
PUBLIC	_ImageFormatBMP
PUBLIC	_ImageFormatEMF
PUBLIC	_ImageFormatWMF
PUBLIC	_ImageFormatJPEG
PUBLIC	_ImageFormatPNG
PUBLIC	_ImageFormatGIF
PUBLIC	_ImageFormatTIFF
PUBLIC	_ImageFormatIcon
EXTRN	?GetThisClass@CBasicWnd@@SGPAUCRuntimeClass@@XZ:NEAR ; CBasicWnd::GetThisClass
EXTRN	?GetThisMessageMap@CBasicWnd@@KGPBUAFX_MSGMAP@@XZ:NEAR ; CBasicWnd::GetThisMessageMap
;	COMDAT ?c_bIsMFCDLLTraits@?$_MFCDLLTraitsCheck@DV?$StrTraitATL@DV?$ChTraitsCRT@D@ATL@@@ATL@@@_CSTRING_IMPL_@ATL@@2_NB
CONST	SEGMENT
?c_bIsMFCDLLTraits@?$_MFCDLLTraitsCheck@DV?$StrTraitATL@DV?$ChTraitsCRT@D@ATL@@@ATL@@@_CSTRING_IMPL_@ATL@@2_NB DB 00H ; ATL::_CSTRING_IMPL_::_MFCDLLTraitsCheck<char,ATL::StrTraitATL<char,ATL::ChTraitsCRT<char> > >::c_bIsMFCDLLTraits
CONST	ENDS
;	COMDAT ?c_bIsMFCDLLTraits@?$_MFCDLLTraitsCheck@_WV?$StrTraitATL@_WV?$ChTraitsCRT@_W@ATL@@@ATL@@@_CSTRING_IMPL_@ATL@@2_NB
CONST	SEGMENT
?c_bIsMFCDLLTraits@?$_MFCDLLTraitsCheck@_WV?$StrTraitATL@_WV?$ChTraitsCRT@_W@ATL@@@ATL@@@_CSTRING_IMPL_@ATL@@2_NB DB 00H ; ATL::_CSTRING_IMPL_::_MFCDLLTraitsCheck<wchar_t,ATL::StrTraitATL<wchar_t,ATL::ChTraitsCRT<wchar_t> > >::c_bIsMFCDLLTraits
CONST	ENDS
;	COMDAT ?createAlphaChannel@CImage@ATL@@2KB
CONST	SEGMENT
?createAlphaChannel@CImage@ATL@@2KB DD 01H		; ATL::CImage::createAlphaChannel
CONST	ENDS
;	COMDAT ?excludeGIF@CImage@ATL@@2KB
CONST	SEGMENT
?excludeGIF@CImage@ATL@@2KB DD 01H			; ATL::CImage::excludeGIF
CONST	ENDS
;	COMDAT ?excludeBMP@CImage@ATL@@2KB
CONST	SEGMENT
?excludeBMP@CImage@ATL@@2KB DD 02H			; ATL::CImage::excludeBMP
CONST	ENDS
;	COMDAT ?excludeEMF@CImage@ATL@@2KB
CONST	SEGMENT
?excludeEMF@CImage@ATL@@2KB DD 04H			; ATL::CImage::excludeEMF
CONST	ENDS
;	COMDAT ?excludeWMF@CImage@ATL@@2KB
CONST	SEGMENT
?excludeWMF@CImage@ATL@@2KB DD 08H			; ATL::CImage::excludeWMF
CONST	ENDS
;	COMDAT ?excludeJPEG@CImage@ATL@@2KB
CONST	SEGMENT
?excludeJPEG@CImage@ATL@@2KB DD 010H			; ATL::CImage::excludeJPEG
CONST	ENDS
;	COMDAT ?excludePNG@CImage@ATL@@2KB
CONST	SEGMENT
?excludePNG@CImage@ATL@@2KB DD 020H			; ATL::CImage::excludePNG
CONST	ENDS
;	COMDAT ?excludeTIFF@CImage@ATL@@2KB
CONST	SEGMENT
?excludeTIFF@CImage@ATL@@2KB DD 040H			; ATL::CImage::excludeTIFF
CONST	ENDS
;	COMDAT ?excludeIcon@CImage@ATL@@2KB
CONST	SEGMENT
?excludeIcon@CImage@ATL@@2KB DD 080H			; ATL::CImage::excludeIcon
CONST	ENDS
;	COMDAT ?excludeOther@CImage@ATL@@2KB
CONST	SEGMENT
?excludeOther@CImage@ATL@@2KB DD 080000000H		; ATL::CImage::excludeOther
CONST	ENDS
;	COMDAT ?excludeDefaultLoad@CImage@ATL@@2KB
CONST	SEGMENT
?excludeDefaultLoad@CImage@ATL@@2KB DD 00H		; ATL::CImage::excludeDefaultLoad
CONST	ENDS
;	COMDAT ?excludeDefaultSave@CImage@ATL@@2KB
CONST	SEGMENT
?excludeDefaultSave@CImage@ATL@@2KB DD 08cH		; ATL::CImage::excludeDefaultSave
CONST	ENDS
;	COMDAT ?excludeValid@CImage@ATL@@2KB
CONST	SEGMENT
?excludeValid@CImage@ATL@@2KB DD 0800000ffH		; ATL::CImage::excludeValid
CONST	ENDS
CONST	SEGMENT
$SG201533 DB	'int', 00H
CONST	ENDS
_DATA	SEGMENT
_TYPE_CONFIG_INT DD FLAT:$SG201533
_DATA	ENDS
CONST	SEGMENT
$SG201535 DB	'str', 00H
CONST	ENDS
_DATA	SEGMENT
_TYPE_CONFIG_STR DD FLAT:$SG201535
_DATA	ENDS
CONST	SEGMENT
$SG201537 DB	'double', 00H
CONST	ENDS
_DATA	SEGMENT
_TYPE_CONFIG_DOUBLE DD FLAT:$SG201537
_DATA	ENDS
CONST	SEGMENT
	ORG $+1
$SG201539 DB	'bool', 00H
CONST	ENDS
_DATA	SEGMENT
_TYPE_CONFIG_BOOL DD FLAT:$SG201539
_DATA	ENDS
CONST	SEGMENT
	ORG $+3
$SG201541 DB	'sepint', 00H
CONST	ENDS
_DATA	SEGMENT
_TYPE_CONFIG_INT_HASSEP DD FLAT:$SG201541
_DATA	ENDS
CONST	SEGMENT
	ORG $+1
$SG201543 DB	'sepstr', 00H
CONST	ENDS
_DATA	SEGMENT
_TYPE_CONFIG_STR_HASSEP DD FLAT:$SG201543
_DATA	ENDS
CONST	SEGMENT
	ORG $+1
$SG201545 DB	'sepdouble', 00H
CONST	ENDS
_DATA	SEGMENT
_TYPE_CONFIG_DOUBLE_HASSEP DD FLAT:$SG201545
_DATA	ENDS
CONST	SEGMENT
	ORG $+2
$SG201547 DB	'sepbool', 00H
CONST	ENDS
_DATA	SEGMENT
_TYPE_CONFIG_BOOL_HASSEP DD FLAT:$SG201547
_DATA	ENDS
CONST	SEGMENT
$SG201549 DB	'App', 00H
CONST	ENDS
_DATA	SEGMENT
_CONF_APP_MODULE_NAME DD FLAT:$SG201549
_DATA	ENDS
CONST	SEGMENT
$SG201551 DB	'SwfPath', 00H
CONST	ENDS
_DATA	SEGMENT
_CONF_APP_SWF_PATH DD FLAT:$SG201551
_DATA	ENDS
CONST	SEGMENT
$SG201553 DB	'MainWndHold', 00H
CONST	ENDS
_DATA	SEGMENT
_CONF_APP_MAINWND_HOLD DD FLAT:$SG201553
_DATA	ENDS
CONST	SEGMENT
$SG201555 DB	'RunCount', 00H
CONST	ENDS
_DATA	SEGMENT
_CONF_APP_RUN_COUNT DD FLAT:$SG201555
_DATA	ENDS
CONST	SEGMENT
	ORG $+3
$SG201557 DB	'PlayedGame', 00H
CONST	ENDS
_DATA	SEGMENT
_CONF_APP_PLAYED_GAME DD FLAT:$SG201557
_DATA	ENDS
CONST	SEGMENT
	ORG $+1
$SG201559 DB	'playedPcGame', 00H
CONST	ENDS
_DATA	SEGMENT
_CONF_APP_PLAYED_PC_GAME DD FLAT:$SG201559
_DATA	ENDS
CONST	SEGMENT
	ORG $+3
$SG201561 DB	'PlayedIconSize', 00H
CONST	ENDS
_DATA	SEGMENT
_CONF_APP_PLAYED_ICON_SIZE DD FLAT:$SG201561
_DATA	ENDS
CONST	SEGMENT
	ORG $+1
$SG201563 DB	'PictureSavePath', 00H
CONST	ENDS
_DATA	SEGMENT
_CONF_APP_PIC_SAVE_PATH DD FLAT:$SG201563
_DATA	ENDS
CONST	SEGMENT
$SG204352 DB	'GamePanelWnd', 00H
CONST	ENDS
;	COMDAT ?classGamePanelWnd@GamePanelWnd@@2UCRuntimeClass@@B
CONST	SEGMENT
?classGamePanelWnd@GamePanelWnd@@2UCRuntimeClass@@B DD FLAT:$SG204352 ; GamePanelWnd::classGamePanelWnd
	DD	0164H
	DD	0ffffH
	DD	00H
	DD	FLAT:?GetThisClass@CBasicWnd@@SGPAUCRuntimeClass@@XZ
	DD	00H
	DD	00H
CONST	ENDS
;	COMDAT ?_messageEntries@GamePanelWnd@@0QBUAFX_MSGMAP_ENTRY@@B
CONST	SEGMENT
?_messageEntries@GamePanelWnd@@0QBUAFX_MSGMAP_ENTRY@@B DD 01H ; GamePanelWnd::_messageEntries
	DD	00H
	DD	00H
	DD	00H
	DD	0dH
	DD	FLAT:?OnCreate@GamePanelWnd@@IAEHPAUtagCREATESTRUCTA@@@Z
	DD	02H
	DD	00H
	DD	00H
	DD	00H
	DD	010H
	DD	FLAT:?OnDestroy@GamePanelWnd@@IAEXXZ
	DD	05H
	DD	00H
	DD	00H
	DD	00H
	DD	016H
	DD	FLAT:?OnSize@GamePanelWnd@@IAEXIHH@Z
	DD	0111H
	DD	00H
	DD	08aH
	DD	08aH
	DD	035H
	DD	FLAT:?OnClickedSwitch@GamePanelWnd@@IAEXXZ
	DD	0403H
	DD	00H
	DD	00H
	DD	00H
	DD	0eH
	DD	FLAT:?OnClickedReplay@GamePanelWnd@@IAEJIJ@Z
	DD	0404H
	DD	00H
	DD	00H
	DD	00H
	DD	0eH
	DD	FLAT:?OnClickedCut@GamePanelWnd@@IAEJIJ@Z
	DD	00H
	DD	00H
	DD	00H
	DD	00H
	DD	00H
	DD	00H
CONST	ENDS
;	COMDAT ?messageMap@GamePanelWnd@@1UAFX_MSGMAP@@B
CONST	SEGMENT
?messageMap@GamePanelWnd@@1UAFX_MSGMAP@@B DD FLAT:?GetThisMessageMap@CBasicWnd@@KGPBUAFX_MSGMAP@@XZ ; GamePanelWnd::messageMap
	DD	FLAT:?_messageEntries@GamePanelWnd@@0QBUAFX_MSGMAP_ENTRY@@B
CONST	ENDS
CONST	SEGMENT
	ORG $+3
$SG204491 DB	'ExactFit', 00H
	ORG $+3
$SG204492 DB	'Window', 00H
	ORG $+1
$SG204495 DB	'GameCtrl', 00H
	ORG $+3
$SG204497 DB	'GameFlash', 00H
	ORG $+2
$SG204499 DB	'GameCISwitch', 00H
	ORG $+3
$SG204501 DB	'GameInfo', 00H
	ORG $+3
$SG204504 DB	'normal', 00H
	ORG $+1
$SG204505 DB	'gamepanel', 00H
	ORG $+2
$SG204508 DB	'normal', 00H
	ORG $+1
$SG204509 DB	'gamepanel', 00H
	ORG $+2
$SG204519 DB	'id', 00H
	ORG $+1
$SG204522 DB	'name', 00H
	ORG $+3
$SG204525 DB	'picurl', 00H
	ORG $+1
$SG204528 DB	'swfurl', 00H
	ORG $+1
$SG204531 DB	'intro', 00H
	ORG $+2
$SG204534 DB	'x ', 0d6H, 0b8H, 0b6H, 0a8H, 0cbH, 0f5H, 0d0H, 0a1H, 'CR'
	DB	'ect', 0b5H, 0c4H, 0d7H, 0f3H, 0baH, 0cdH, 0d3H, 0d2H, 0b1H, 0dfH
	DB	0b5H, 0c4H, 0b5H, 0a5H, 0ceH, 0bbH, 0caH, 0fdH, 00H
	ORG $+2
$SG204535 DB	'y ', 0d6H, 0b8H, 0b6H, 0a8H, 0cbH, 0f5H, 0d0H, 0a1H, 'CR'
	DB	'ect', 0b5H, 0c4H, 0c9H, 0cfH, 0a1H, 0a2H, 0cfH, 0c2H, 0b1H, 0dfH
	DB	0b5H, 0c4H, 0b5H, 0a5H, 0ceH, 0bbH, 0caH, 0fdH, 00H
	ORG $+2
$SG204536 DB	'size ', 0d6H, 0b8H, 0b6H, 0a8H, 0cbH, 0f5H, 0d0H, 0a1H, 'C'
	DB	'Rect', 0b5H, 0c4H, 0b5H, 0a5H, 0ceH, 0bbH, 0caH, 0fdH, 0b5H, 0c4H
	DB	'SIZE', 0bbH, 0f2H, 'CSize', 0a3H, 0bbH, 00H
	ORG $+2
$SG204537 DB	'cx ', 0d6H, 0b5H, 0d6H, 0b8H, 0b6H, 0a8H, 0cbH, 0f5H, 0d0H
	DB	0a1H, 0d7H, 0f3H, 0a1H, 0a2H, 0d3H, 0d2H, 0b1H, 0dfH, 0b5H, 0c4H
	DB	0b5H, 0a5H, 0ceH, 0bbH, 0caH, 0fdH, 0a3H, 0bbH, 00H
$SG204538 DB	'cy ', 0d6H, 0b8H, 0b6H, 0a8H, 0cbH, 0f5H, 0d0H, 0a1H, 0c9H
	DB	0cfH, 0a1H, 0a2H, 0cfH, 0c2H, 0b1H, 0dfH, 0b5H, 0c4H, 0b5H, 0a5H
	DB	0ceH, 0bbH, 0caH, 0fdH, 0a3H, 0bbH, 00H
	ORG $+2
$SG204539 DB	'lpRect ', 0d6H, 0b8H, 0cfH, 0f2H, 0d2H, 0bbH, 0b8H, 0f6H
	DB	'RECT', 0bdH, 0e1H, 0b9H, 0b9H, 0bbH, 0f2H, 'CRect', 0a3H, 0acH
	DB	0d6H, 0b8H, 0b6H, 0a8H, 0cbH, 0f5H, 0d0H, 0a1H, 0c3H, 0bfH, 0d2H
	DB	0bbH, 0b1H, 0dfH, 0b5H, 0c4H, 0b5H, 0a5H, 0ceH, 0bbH, 0caH, 0fdH
	DB	0a3H, 0bbH, 00H
	ORG $+3
$SG204540 DB	'l ', 0d6H, 0b8H, 0b6H, 0a8H, 0cbH, 0f5H, 0d0H, 0a1H, 'CR'
	DB	'ect', 0d7H, 0f3H, 0b1H, 0dfH, 0b5H, 0c4H, 0b5H, 0a5H, 0ceH, 0bbH
	DB	0caH, 0fdH, 0a3H, 0bbH, 00H
	ORG $+2
$SG204541 DB	't ', 0d6H, 0b8H, 0b6H, 0a8H, 0cbH, 0f5H, 0d0H, 0a1H, 'CR'
	DB	'ect', 0c9H, 0cfH, 0b1H, 0dfH, 0b5H, 0c4H, 0b5H, 0a5H, 0ceH, 0bbH
	DB	0caH, 0fdH, 0a3H, 0bbH, 00H
	ORG $+2
$SG204564 DB	'===IN', 00H
	ORG $+2
$SG204565 DB	'GamePanelWnd::IPanelChangeOb_ToFullScreen', 00H
	ORG $+2
$SG204566 DB	'GamePanelWnd.txt', 00H
	ORG $+3
$SG204576 DB	'===OUT', 00H
	ORG $+1
$SG204577 DB	'GamePanelWnd::IPanelChangeOb_ToFullScreen', 00H
	ORG $+2
$SG204578 DB	'GamePanelWnd.txt', 00H
	ORG $+3
$SG204585 DB	'===IN', 00H
	ORG $+2
$SG204586 DB	'GamePanelWnd::SetMainWindow', 00H
$SG204587 DB	'GamePanelWnd.txt', 00H
	ORG $+3
$SG204596 DB	'===OUT', 00H
	ORG $+1
$SG204597 DB	'GamePanelWnd::SetMainWindow', 00H
$SG204598 DB	'GamePanelWnd.txt', 00H
	ORG $+3
$SG204605 DB	'===IN', 00H
	ORG $+2
$SG204606 DB	'GamePanelWnd::IPanelChangeOb_ExitFullScreen', 00H
$SG204607 DB	'GamePanelWnd.txt', 00H
	ORG $+3
$SG204618 DB	'===OUT', 00H
	ORG $+1
$SG204619 DB	'GamePanelWnd::IPanelChangeOb_ExitFullScreen', 00H
$SG204620 DB	'GamePanelWnd.txt', 00H
	ORG $+3
$SG204628 DB	'===IN', 00H
	ORG $+2
$SG204629 DB	'GamePanelWnd::HttpDownOb_DownStart', 00H
	ORG $+1
$SG204630 DB	'GamePanelWnd.txt', 00H
	ORG $+3
$SG204634 DB	0bfH, 0aaH, 0caH, 0bcH, 0cfH, 0c2H, 0d4H, 0d8H, 00H
	ORG $+3
$SG204637 DB	'===OUT', 00H
	ORG $+1
$SG204638 DB	'GamePanelWnd::HttpDownOb_DownStart', 00H
	ORG $+1
$SG204639 DB	'GamePanelWnd.txt', 00H
	ORG $+3
$SG204648 DB	'===IN', 00H
	ORG $+2
$SG204649 DB	'GamePanelWnd::HttpDownOb_DownFinish', 00H
$SG204650 DB	'GamePanelWnd.txt', 00H
	ORG $+3
$SG204654 DB	0cfH, 0c2H, 0d4H, 0d8H, 0cdH, 0eaH, 0b3H, 0c9H, ',', 0c6H
	DB	0f4H, 0b6H, 0afH, 0d6H, 0d0H, '...', 00H
	ORG $+1
$SG204657 DB	'%20', 00H
$SG204658 DB	' ', 00H
	ORG $+2
$SG204663 DB	'%s\%s.%s', 00H
$SG204673 DB	00H
	ORG $+2
$SG204681 DB	'===OUT', 00H
	ORG $+1
$SG204682 DB	'GamePanelWnd::HttpDownOb_DownFinish', 00H
$SG204683 DB	'GamePanelWnd.txt', 00H
	ORG $+3
$SG204694 DB	'===IN', 00H
	ORG $+2
$SG204695 DB	'GamePanelWnd::HttpDownOb_DownFailed', 00H
$SG204696 DB	'GamePanelWnd.txt', 00H
	ORG $+3
$SG204700 DB	0b2H, 0bbH, 0c3H, 0f7H, 0d4H, 0adH, 0d2H, 0f2H, 00H
	ORG $+3
$SG204709 DB	0ceH, 0deH, 0b7H, 0a8H, 0b4H, 0b4H, 0bdH, 0a8H, 0ceH, 0c4H
	DB	0bcH, 0feH, 0a3H, 0acH, 0c7H, 0ebH, 0b2H, 0e9H, 0bfH, 0b4H, 0cfH
	DB	0c2H, 0d4H, 0d8H, 0c4H, 0bfH, 0c2H, 0bcH, '%s', 0caH, 0c7H, 0b7H
	DB	0f1H, 0d6H, 0bbH, 0b6H, 0c1H, 00H
	ORG $+1
$SG204714 DB	0ceH, 0deH, 0b7H, 0a8H, 0d0H, 0b4H, 0c8H, 0ebH, 0ceH, 0c4H
	DB	0bcH, 0feH, 0a3H, 0acH, 0c7H, 0ebH, 0b2H, 0e9H, 0bfH, 0b4H, 0cfH
	DB	0c2H, 0d4H, 0d8H, 0c4H, 0bfH, 0c2H, 0bcH, '%s', 0caH, 0c7H, 0b7H
	DB	0f1H, 0d6H, 0bbH, 0b6H, 0c1H, 00H
	ORG $+1
$SG204716 DB	0c1H, 0acH, 0bdH, 0d3H, 0caH, 0a7H, 0b0H, 0dcH, 00H
	ORG $+3
$SG204718 DB	0c1H, 0acH, 0bdH, 0d3H, 0b3H, 0acH, 0caH, 0b1H, 00H
	ORG $+3
$SG204720 DB	0cfH, 0c2H, 0d4H, 0d8H, 0c8H, 0a1H, 0cfH, 0fbH, 00H
	ORG $+3
$SG204722 DB	0c1H, 0b4H, 0bdH, 0d3H, 0ceH, 0deH, 0d0H, 0a7H, 00H
	ORG $+3
$SG204724 DB	0b2H, 0bbH, 0c3H, 0f7H, 0d4H, 0adH, 0d2H, 0f2H, 00H
	ORG $+3
$SG204726 DB	0cfH, 0c2H, 0d4H, 0d8H, 0caH, 0a7H, 0b0H, 0dcH, 0d4H, 0adH
	DB	0d2H, 0f2H, 0a3H, 0baH, 00H
	ORG $+1
$SG204729 DB	'===OUT', 00H
	ORG $+1
$SG204730 DB	'GamePanelWnd::HttpDownOb_DownFailed', 00H
$SG204731 DB	'GamePanelWnd.txt', 00H
	ORG $+3
$SG204742 DB	'===IN', 00H
	ORG $+2
$SG204743 DB	'GamePanelWnd::HttpDownOb_DownProgress', 00H
	ORG $+2
$SG204744 DB	'GamePanelWnd.txt', 00H
	ORG $+3
$SG204749 DB	'%s   ', 00H
	ORG $+2
$SG204752 DB	0c1H, 0acH, 0bdH, 0d3H, 0d6H, 0d0H, '...', 00H
	ORG $+2
$SG204755 DB	'%d%%', 00H
	ORG $+3
$SG204759 DB	0cfH, 0c2H, 0d4H, 0d8H, 0cbH, 0d9H, 0b6H, 0c8H, ':%s/s   '
	DB	0d4H, 0d9H, 0b5H, 0c8H, 0b4H, 0fdH, ':%s', 00H
	ORG $+2
$SG204762 DB	'===OUT', 00H
	ORG $+1
$SG204763 DB	'GamePanelWnd::HttpDownOb_DownProgress', 00H
	ORG $+2
$SG204764 DB	'GamePanelWnd.txt', 00H
	ORG $+3
$SG204771 DB	'===IN', 00H
	ORG $+2
$SG204772 DB	'CGameCtrlWnd::SetGameEntry', 00H
	ORG $+1
$SG204773 DB	'CGameCtrlWnd.txt', 00H
	ORG $+3
$SG204780 DB	'm_swfGame.strID:%s,olg.strGamePath:%s', 00H
	ORG $+2
$SG204781 DB	'GamePanelWnd::SetGameEntry', 00H
	ORG $+1
$SG204782 DB	'GamePanelWnd.txt', 00H
	ORG $+3
$SG204788 DB	'%20', 00H
$SG204789 DB	' ', 00H
	ORG $+2
$SG204794 DB	'===OUT', 00H
	ORG $+1
$SG204795 DB	'GamePanelWnd::SetGameEntry', 00H
	ORG $+1
$SG204796 DB	'GamePanelWnd.txt', 00H
	ORG $+3
$SG204807 DB	'===IN', 00H
	ORG $+2
$SG204808 DB	'GamePanelWnd::PlayMovie', 00H
$SG204809 DB	'GamePanelWnd.txt', 00H
	ORG $+3
$SG204812 DB	'strPath:%s', 00H
	ORG $+1
$SG204813 DB	'GamePanelWnd', 00H
	ORG $+3
$SG204814 DB	'GamePanelWnd.txt', 00H
	ORG $+3
$SG204821 DB	'===OUT', 00H
	ORG $+1
$SG204822 DB	'GamePanelWnd::PlayMovie', 00H
$SG204823 DB	'GamePanelWnd.txt', 00H
	ORG $+3
$SG204833 DB	'%.2f MB', 00H
$SG204836 DB	'%d KB', 00H
	ORG $+2
$SG204838 DB	'%d B', 00H
	ORG $+3
$SG204846 DB	'FIRST_SWF_GAME', 00H
	ORG $+1
$SG204850 DB	'0', 00H
	ORG $+2
$SG204852 DB	'1', 00H
	ORG $+2
$SG204856 DB	'FIRST_SWF_GAME', 00H
$SG204859 DB	00H
$SG204860 DB	'FIRST_SWF_GAME', 00H
	ORG $+1
$SG204862 DB	'gameid:%s|name:%s', 00H
	ORG $+2
$SG204865 DB	'PLAY_SWF_GAME', 00H
	ORG $+2
$SG204879 DB	'--:--:--', 00H
	ORG $+3
$SG204889 DB	'0%d', 00H
$SG204891 DB	'%d', 00H
	ORG $+1
$SG204893 DB	':0%d', 00H
	ORG $+3
$SG204895 DB	':%d', 00H
$SG204900 DB	':0%d', 00H
	ORG $+3
$SG204902 DB	':%d', 00H
$SG204908 DB	'===IN', 00H
	ORG $+2
$SG204909 DB	'GamePanelWnd::UpdateAllWnd', 00H
	ORG $+1
$SG204910 DB	'GamePanelWnd.txt', 00H
	ORG $+3
$SG204917 DB	'===OUT', 00H
	ORG $+1
$SG204918 DB	'CGameCtrlWnd::UpdateAllWnd', 00H
	ORG $+1
$SG204919 DB	'CGameCtrlWnd.txt', 00H
	ORG $+3
$SG204949 DB	'%02d%02d%02d%02d%02d', 00H
	ORG $+3
$SG204951 DB	'%s\%s.jpg', 00H
	ORG $+2
$SG204958 DB	0ccH, 0e1H, 0caH, 0beH, 00H
	ORG $+3
$SG204967 DB	'===IN', 00H
	ORG $+2
$SG204968 DB	'GamePlayingWnd::ILayoutChangeOb_InitFinished', 00H
	ORG $+3
$SG204969 DB	'GamePlayingWnd.txt', 00H
	ORG $+1
$SG204972 DB	'===OUT', 00H
	ORG $+1
$SG204973 DB	'GamePlayingWnd::ILayoutChangeOb_InitFinished', 00H
	ORG $+3
$SG204974 DB	'GamePlayingWnd.txt', 00H
	ORG $+1
$SG204982 DB	'===IN', 00H
	ORG $+2
$SG204983 DB	'GamePlayingWnd::ILayoutChangeOb_SkinChanged', 00H
$SG204984 DB	'GamePlayingWnd.txt', 00H
	ORG $+1
$SG204987 DB	'===OUT', 00H
	ORG $+1
$SG204988 DB	'GamePlayingWnd::ILayoutChangeOb_SkinChanged', 00H
$SG204989 DB	'GamePlayingWnd.txt', 00H
	ORG $+1
$SG204996 DB	'===IN', 00H
	ORG $+2
$SG204997 DB	'GamePlayingWnd::ILayoutChangeOb_UpdateLayout', 00H
	ORG $+3
$SG204998 DB	'GamePlayingWnd.txt', 00H
	ORG $+1
$SG205002 DB	'===OUT', 00H
	ORG $+1
$SG205003 DB	'GamePlayingWnd::ILayoutChangeOb_UpdateLayout', 00H
	ORG $+3
$SG205004 DB	'GamePlayingWnd.txt', 00H
CONST	ENDS
;	COMDAT ?g_pfnGetThreadACP@ATL@@3P6GIXZA
_DATA	SEGMENT
?g_pfnGetThreadACP@ATL@@3P6GIXZA DD FLAT:?_AtlGetThreadACPThunk@ATL@@YGIXZ ; ATL::g_pfnGetThreadACP
_DATA	ENDS
;	COMDAT ?_strthunks@ATL@@3U_AtlStringThunks@1@A
_DATA	SEGMENT
?_strthunks@ATL@@3U_AtlStringThunks@1@A DD FLAT:?CompareStringWThunk@ATL@@YGHKKPB_WH0H@Z ; ATL::_strthunks
	DD	FLAT:?GetStringTypeExWThunk@ATL@@YGHKKPB_WHPAG@Z
	DD	FLAT:?lstrcmpiWThunk@ATL@@YGHPB_W0@Z
	DD	FLAT:?CharLowerWThunk@ATL@@YGPA_WPA_W@Z
	DD	FLAT:?CharUpperWThunk@ATL@@YGPA_WPA_W@Z
	DD	FLAT:?GetEnvironmentVariableWThunk@ATL@@YGKPB_WPA_WK@Z
_DATA	ENDS
CONST	SEGMENT
	ORG $+1
$SG98736 DB	'SOFTWARE\YPLAYBOX', 00H
CONST	ENDS
_DATA	SEGMENT
_STR_REG_SOFT DD FLAT:$SG98736
_DATA	ENDS
CONST	SEGMENT
	ORG $+2
_ID_MESSAGE_PANEL_CHANGE DD 02H
_ID_MESSAGE_LAYOUTMGR DD 08H
_ID_MESSAGE_HTTP_DOWN DD 0cH
_ID_DATA_LOCALGAME DD 0aH
CONST	ENDS
;	COMDAT _ImageFormatBMP
CONST	SEGMENT
_ImageFormatBMP DD 0b96b3cabH
	DW	0728H
	DW	011d3H
	DB	09dH
	DB	07bH
	DB	00H
	DB	00H
	DB	0f8H
	DB	01eH
	DB	0f3H
	DB	02eH
CONST	ENDS
;	COMDAT _ImageFormatEMF
CONST	SEGMENT
_ImageFormatEMF DD 0b96b3cacH
	DW	0728H
	DW	011d3H
	DB	09dH
	DB	07bH
	DB	00H
	DB	00H
	DB	0f8H
	DB	01eH
	DB	0f3H
	DB	02eH
CONST	ENDS
;	COMDAT _ImageFormatWMF
CONST	SEGMENT
_ImageFormatWMF DD 0b96b3cadH
	DW	0728H
	DW	011d3H
	DB	09dH
	DB	07bH
	DB	00H
	DB	00H
	DB	0f8H
	DB	01eH
	DB	0f3H
	DB	02eH
CONST	ENDS
;	COMDAT _ImageFormatJPEG
CONST	SEGMENT
_ImageFormatJPEG DD 0b96b3caeH
	DW	0728H
	DW	011d3H
	DB	09dH
	DB	07bH
	DB	00H
	DB	00H
	DB	0f8H
	DB	01eH
	DB	0f3H
	DB	02eH
CONST	ENDS
;	COMDAT _ImageFormatPNG
CONST	SEGMENT
_ImageFormatPNG DD 0b96b3cafH
	DW	0728H
	DW	011d3H
	DB	09dH
	DB	07bH
	DB	00H
	DB	00H
	DB	0f8H
	DB	01eH
	DB	0f3H
	DB	02eH
CONST	ENDS
;	COMDAT _ImageFormatGIF
CONST	SEGMENT
_ImageFormatGIF DD 0b96b3cb0H
	DW	0728H
	DW	011d3H
	DB	09dH
	DB	07bH
	DB	00H
	DB	00H
	DB	0f8H
	DB	01eH
	DB	0f3H
	DB	02eH
CONST	ENDS
;	COMDAT _ImageFormatTIFF
CONST	SEGMENT
_ImageFormatTIFF DD 0b96b3cb1H
	DW	0728H
	DW	011d3H
	DB	09dH
	DB	07bH
	DB	00H
	DB	00H
	DB	0f8H
	DB	01eH
	DB	0f3H
	DB	02eH
CONST	ENDS
;	COMDAT _ImageFormatIcon
CONST	SEGMENT
_ImageFormatIcon DD 0b96b3cb5H
	DW	0728H
	DW	011d3H
	DB	09dH
	DB	07bH
	DB	00H
	DB	00H
	DB	0f8H
	DB	01eH
	DB	0f3H
	DB	02eH
CONST	ENDS
PUBLIC	?InterlockedExchangePointer@@YGPAXPAPAXPAX@Z	; InterlockedExchangePointer
PUBLIC	?_AtlGetThreadACPFake@ATL@@YGIXZ		; ATL::_AtlGetThreadACPFake
PUBLIC	?_AtlGetThreadACPReal@ATL@@YGIXZ		; ATL::_AtlGetThreadACPReal
EXTRN	___security_cookie:DWORD
EXTRN	@__security_check_cookie@4:NEAR
EXTRN	__imp__GetVersionExA@4:NEAR
; Function compile flags: /Odt
; File d:\program files (x86)\microsoft visual studio .net 2003\vc7\atlmfc\include\atlconv.h
;	COMDAT ?_AtlGetThreadACPThunk@ATL@@YGIXZ
_TEXT	SEGMENT
_pfnGetThreadACP$ = -164				; size = 4
_ver$ = -160						; size = 148
__$ArrayPad$ = -4					; size = 4
__$ReturnAddr$ = 4					; size = 4
?_AtlGetThreadACPThunk@ATL@@YGIXZ PROC NEAR		; ATL::_AtlGetThreadACPThunk, COMDAT

; 134  : {

  00000	55		 push	 ebp
  00001	8b ec		 mov	 ebp, esp
  00003	81 ec a4 00 00
	00		 sub	 esp, 164		; 000000a4H
  00009	a1 00 00 00 00	 mov	 eax, DWORD PTR ___security_cookie
  0000e	89 45 fc	 mov	 DWORD PTR __$ArrayPad$[ebp], eax

; 135  : 	OSVERSIONINFO ver;
; 136  : 	ATLGETTHREADACP pfnGetThreadACP;
; 137  : 
; 138  : 	ver.dwOSVersionInfoSize = sizeof( ver );

  00011	c7 85 60 ff ff
	ff 94 00 00 00	 mov	 DWORD PTR _ver$[ebp], 148 ; 00000094H

; 139  : 	::GetVersionEx( &ver );

  0001b	8d 85 60 ff ff
	ff		 lea	 eax, DWORD PTR _ver$[ebp]
  00021	50		 push	 eax
  00022	ff 15 00 00 00
	00		 call	 DWORD PTR __imp__GetVersionExA@4

; 140  : 	if( (ver.dwPlatformId == VER_PLATFORM_WIN32_NT) && (ver.dwMajorVersion >= 5) )

  00028	83 bd 70 ff ff
	ff 02		 cmp	 DWORD PTR _ver$[ebp+16], 2
  0002f	75 15		 jne	 SHORT $L24173
  00031	83 bd 64 ff ff
	ff 05		 cmp	 DWORD PTR _ver$[ebp+4], 5
  00038	72 0c		 jb	 SHORT $L24173

; 141  : 	{
; 142  : 		// On Win2K, CP_THREAD_ACP is supported
; 143  : 		pfnGetThreadACP = _AtlGetThreadACPReal;

  0003a	c7 85 5c ff ff
	ff 00 00 00 00	 mov	 DWORD PTR _pfnGetThreadACP$[ebp], OFFSET FLAT:?_AtlGetThreadACPReal@ATL@@YGIXZ ; ATL::_AtlGetThreadACPReal

; 144  : 	}
; 145  : 	else

  00044	eb 0a		 jmp	 SHORT $L24174
$L24173:

; 146  : 	{
; 147  : 		pfnGetThreadACP = _AtlGetThreadACPFake;

  00046	c7 85 5c ff ff
	ff 00 00 00 00	 mov	 DWORD PTR _pfnGetThreadACP$[ebp], OFFSET FLAT:?_AtlGetThreadACPFake@ATL@@YGIXZ ; ATL::_AtlGetThreadACPFake
$L24174:

; 148  : 	}
; 149  : 	InterlockedExchangePointer( reinterpret_cast< void** >(&g_pfnGetThreadACP), pfnGetThreadACP );

  00050	8b 8d 5c ff ff
	ff		 mov	 ecx, DWORD PTR _pfnGetThreadACP$[ebp]
  00056	51		 push	 ecx
  00057	68 00 00 00 00	 push	 OFFSET FLAT:?g_pfnGetThreadACP@ATL@@3P6GIXZA ; ATL::g_pfnGetThreadACP
  0005c	e8 00 00 00 00	 call	 ?InterlockedExchangePointer@@YGPAXPAPAXPAX@Z ; InterlockedExchangePointer

; 150  : 
; 151  : 	return( g_pfnGetThreadACP() );

  00061	ff 15 00 00 00
	00		 call	 DWORD PTR ?g_pfnGetThreadACP@ATL@@3P6GIXZA ; ATL::g_pfnGetThreadACP

; 152  : }

  00067	8b 4d fc	 mov	 ecx, DWORD PTR __$ArrayPad$[ebp]
  0006a	e8 00 00 00 00	 call	 @__security_check_cookie@4
  0006f	8b e5		 mov	 esp, ebp
  00071	5d		 pop	 ebp
  00072	c3		 ret	 0
?_AtlGetThreadACPThunk@ATL@@YGIXZ ENDP			; ATL::_AtlGetThreadACPThunk
_TEXT	ENDS
EXTRN	__imp__InterlockedExchange@8:NEAR
; Function compile flags: /Odt
;	COMDAT ?InterlockedExchangePointer@@YGPAXPAPAXPAX@Z
_TEXT	SEGMENT
_pp$ = 8						; size = 4
_pNew$ = 12						; size = 4
?InterlockedExchangePointer@@YGPAXPAPAXPAX@Z PROC NEAR	; InterlockedExchangePointer, COMDAT

; 91   : {

  00000	55		 push	 ebp
  00001	8b ec		 mov	 ebp, esp

; 92   : 	return( reinterpret_cast<void*>(static_cast<LONG_PTR>(::InterlockedExchange(reinterpret_cast<LONG*>(pp), static_cast<LONG>(reinterpret_cast<LONG_PTR>(pNew))))) );

  00003	8b 45 0c	 mov	 eax, DWORD PTR _pNew$[ebp]
  00006	50		 push	 eax
  00007	8b 4d 08	 mov	 ecx, DWORD PTR _pp$[ebp]
  0000a	51		 push	 ecx
  0000b	ff 15 00 00 00
	00		 call	 DWORD PTR __imp__InterlockedExchange@8

; 93   : }

  00011	5d		 pop	 ebp
  00012	c2 08 00	 ret	 8
?InterlockedExchangePointer@@YGPAXPAPAXPAX@Z ENDP	; InterlockedExchangePointer
_TEXT	ENDS
EXTRN	__imp__GetACP@0:NEAR
EXTRN	__imp__GetLocaleInfoA@16:NEAR
EXTRN	__imp__GetThreadLocale@0:NEAR
; Function compile flags: /Odt
;	COMDAT ?_AtlGetThreadACPFake@ATL@@YGIXZ
_TEXT	SEGMENT
_pch$24161 = -24					; size = 4
_lcidThread$ = -20					; size = 4
_szACP$ = -16						; size = 7
__$ArrayPad$ = -8					; size = 4
_nACP$ = -4						; size = 4
__$ReturnAddr$ = 4					; size = 4
?_AtlGetThreadACPFake@ATL@@YGIXZ PROC NEAR		; ATL::_AtlGetThreadACPFake, COMDAT

; 101  : {

  00000	55		 push	 ebp
  00001	8b ec		 mov	 ebp, esp
  00003	83 ec 18	 sub	 esp, 24			; 00000018H
  00006	a1 00 00 00 00	 mov	 eax, DWORD PTR ___security_cookie
  0000b	89 45 f8	 mov	 DWORD PTR __$ArrayPad$[ebp], eax

; 102  : 	UINT nACP = 0;

  0000e	c7 45 fc 00 00
	00 00		 mov	 DWORD PTR _nACP$[ebp], 0

; 103  : 
; 104  : 	LCID lcidThread = ::GetThreadLocale();

  00015	ff 15 00 00 00
	00		 call	 DWORD PTR __imp__GetThreadLocale@0
  0001b	89 45 ec	 mov	 DWORD PTR _lcidThread$[ebp], eax

; 105  : 
; 106  : 	char szACP[7];
; 107  : 	// GetLocaleInfoA will fail for a Unicode-only LCID, but those are only supported on 
; 108  : 	// Windows 2000.  Since Windows 2000 supports CP_THREAD_ACP, this code path is never
; 109  : 	// executed on Windows 2000.
; 110  : 	if (::GetLocaleInfoA(lcidThread, LOCALE_IDEFAULTANSICODEPAGE, szACP, 7) != 0)

  0001e	6a 07		 push	 7
  00020	8d 45 f0	 lea	 eax, DWORD PTR _szACP$[ebp]
  00023	50		 push	 eax
  00024	68 04 10 00 00	 push	 4100			; 00001004H
  00029	8b 4d ec	 mov	 ecx, DWORD PTR _lcidThread$[ebp]
  0002c	51		 push	 ecx
  0002d	ff 15 00 00 00
	00		 call	 DWORD PTR __imp__GetLocaleInfoA@16
  00033	85 c0		 test	 eax, eax
  00035	74 34		 je	 SHORT $L24160

; 111  : 	{
; 112  : 		char* pch = szACP;

  00037	8d 55 f0	 lea	 edx, DWORD PTR _szACP$[ebp]
  0003a	89 55 e8	 mov	 DWORD PTR _pch$24161[ebp], edx
$L24163:

; 113  : 		while (*pch != '\0')

  0003d	8b 45 e8	 mov	 eax, DWORD PTR _pch$24161[ebp]
  00040	0f be 08	 movsx	 ecx, BYTE PTR [eax]
  00043	85 c9		 test	 ecx, ecx
  00045	74 24		 je	 SHORT $L24160

; 114  : 		{
; 115  : 			nACP *= 10;

  00047	8b 55 fc	 mov	 edx, DWORD PTR _nACP$[ebp]
  0004a	6b d2 0a	 imul	 edx, 10			; 0000000aH
  0004d	89 55 fc	 mov	 DWORD PTR _nACP$[ebp], edx

; 116  : 			nACP += *pch++ - '0';

  00050	8b 45 e8	 mov	 eax, DWORD PTR _pch$24161[ebp]
  00053	0f be 08	 movsx	 ecx, BYTE PTR [eax]
  00056	8b 55 fc	 mov	 edx, DWORD PTR _nACP$[ebp]
  00059	8d 44 0a d0	 lea	 eax, DWORD PTR [edx+ecx-48]
  0005d	89 45 fc	 mov	 DWORD PTR _nACP$[ebp], eax
  00060	8b 4d e8	 mov	 ecx, DWORD PTR _pch$24161[ebp]
  00063	83 c1 01	 add	 ecx, 1
  00066	89 4d e8	 mov	 DWORD PTR _pch$24161[ebp], ecx

; 117  : 		}

  00069	eb d2		 jmp	 SHORT $L24163
$L24160:

; 118  : 	}
; 119  : 	// Use the Default ANSI Code Page if we were unable to get the thread ACP or if one does not exist.
; 120  : 	if (nACP == 0)

  0006b	83 7d fc 00	 cmp	 DWORD PTR _nACP$[ebp], 0
  0006f	75 09		 jne	 SHORT $L24165

; 121  : 		nACP = ::GetACP();

  00071	ff 15 00 00 00
	00		 call	 DWORD PTR __imp__GetACP@0
  00077	89 45 fc	 mov	 DWORD PTR _nACP$[ebp], eax
$L24165:

; 122  : 
; 123  : 	return nACP;

  0007a	8b 45 fc	 mov	 eax, DWORD PTR _nACP$[ebp]

; 124  : }

  0007d	8b 4d f8	 mov	 ecx, DWORD PTR __$ArrayPad$[ebp]
  00080	e8 00 00 00 00	 call	 @__security_check_cookie@4
  00085	8b e5		 mov	 esp, ebp
  00087	5d		 pop	 ebp
  00088	c3		 ret	 0
?_AtlGetThreadACPFake@ATL@@YGIXZ ENDP			; ATL::_AtlGetThreadACPFake
; Function compile flags: /Odt
_TEXT	ENDS
;	COMDAT ?_AtlGetThreadACPReal@ATL@@YGIXZ
_TEXT	SEGMENT
?_AtlGetThreadACPReal@ATL@@YGIXZ PROC NEAR		; ATL::_AtlGetThreadACPReal, COMDAT

; 127  : {

  00000	55		 push	 ebp
  00001	8b ec		 mov	 ebp, esp

; 128  : 	return( CP_THREAD_ACP );

  00003	b8 03 00 00 00	 mov	 eax, 3

; 129  : }

  00008	5d		 pop	 ebp
  00009	c3		 ret	 0
?_AtlGetThreadACPReal@ATL@@YGIXZ ENDP			; ATL::_AtlGetThreadACPReal
_TEXT	ENDS
PUBLIC	?_AtlInstallStringThunk@ATL@@YAXPAPAXPAX1@Z	; ATL::_AtlInstallStringThunk
PUBLIC	?GetEnvironmentVariableWFake@ATL@@YGKPB_WPA_WK@Z ; ATL::GetEnvironmentVariableWFake
EXTRN	__imp__GetEnvironmentVariableW@12:NEAR
; Function compile flags: /Odt
; File d:\program files (x86)\microsoft visual studio .net 2003\vc7\atlmfc\include\cstringt.h
;	COMDAT ?GetEnvironmentVariableWThunk@ATL@@YGKPB_WPA_WK@Z
_TEXT	SEGMENT
_pszName$ = 8						; size = 4
_pszBuffer$ = 12					; size = 4
_nSize$ = 16						; size = 4
?GetEnvironmentVariableWThunk@ATL@@YGKPB_WPA_WK@Z PROC NEAR ; ATL::GetEnvironmentVariableWThunk, COMDAT

; 183  : {

  00000	55		 push	 ebp
  00001	8b ec		 mov	 ebp, esp

; 184  : 	_AtlInstallStringThunk(reinterpret_cast<void**>(&_strthunks.pfnGetEnvironmentVariableW), 
; 185  : 		GetEnvironmentVariableWFake, ::GetEnvironmentVariableW);

  00003	a1 00 00 00 00	 mov	 eax, DWORD PTR __imp__GetEnvironmentVariableW@12
  00008	50		 push	 eax
  00009	68 00 00 00 00	 push	 OFFSET FLAT:?GetEnvironmentVariableWFake@ATL@@YGKPB_WPA_WK@Z ; ATL::GetEnvironmentVariableWFake
  0000e	68 14 00 00 00	 push	 OFFSET FLAT:?_strthunks@ATL@@3U_AtlStringThunks@1@A+20
  00013	e8 00 00 00 00	 call	 ?_AtlInstallStringThunk@ATL@@YAXPAPAXPAX1@Z ; ATL::_AtlInstallStringThunk
  00018	83 c4 0c	 add	 esp, 12			; 0000000cH

; 186  : 
; 187  : 	return _strthunks.pfnGetEnvironmentVariableW(pszName, pszBuffer, nSize);

  0001b	8b 4d 10	 mov	 ecx, DWORD PTR _nSize$[ebp]
  0001e	51		 push	 ecx
  0001f	8b 55 0c	 mov	 edx, DWORD PTR _pszBuffer$[ebp]
  00022	52		 push	 edx
  00023	8b 45 08	 mov	 eax, DWORD PTR _pszName$[ebp]
  00026	50		 push	 eax
  00027	ff 15 14 00 00
	00		 call	 DWORD PTR ?_strthunks@ATL@@3U_AtlStringThunks@1@A+20

; 188  : }

  0002d	5d		 pop	 ebp
  0002e	c2 0c 00	 ret	 12			; 0000000cH
?GetEnvironmentVariableWThunk@ATL@@YGKPB_WPA_WK@Z ENDP	; ATL::GetEnvironmentVariableWThunk
_TEXT	ENDS
PUBLIC	?s_bWin9x@?1??_AtlInstallStringThunk@ATL@@YAXPAPAXPAX1@Z@4_NA ; `ATL::_AtlInstallStringThunk'::`2'::s_bWin9x
PUBLIC	??_B?1??_AtlInstallStringThunk@ATL@@YAXPAPAXPAX1@Z@51 ; `ATL::_AtlInstallStringThunk'::`2'::`local static guard'
EXTRN	__imp__GetVersion@0:NEAR
;	COMDAT ?s_bWin9x@?1??_AtlInstallStringThunk@ATL@@YAXPAPAXPAX1@Z@4_NA
_BSS	SEGMENT
?s_bWin9x@?1??_AtlInstallStringThunk@ATL@@YAXPAPAXPAX1@Z@4_NA DB 01H DUP (?) ; `ATL::_AtlInstallStringThunk'::`2'::s_bWin9x
_BSS	ENDS
;	COMDAT ??_B?1??_AtlInstallStringThunk@ATL@@YAXPAPAXPAX1@Z@51
_BSS	SEGMENT
??_B?1??_AtlInstallStringThunk@ATL@@YAXPAPAXPAX1@Z@51 DD 01H DUP (?) ; `ATL::_AtlInstallStringThunk'::`2'::`local static guard'
; Function compile flags: /Odt
_BSS	ENDS
;	COMDAT ?_AtlInstallStringThunk@ATL@@YAXPAPAXPAX1@Z
_TEXT	SEGMENT
_pfn$ = -4						; size = 4
_ppThunk$ = 8						; size = 4
_pfnWin9x$ = 12						; size = 4
_pfnNT$ = 16						; size = 4
?_AtlInstallStringThunk@ATL@@YAXPAPAXPAX1@Z PROC NEAR	; ATL::_AtlInstallStringThunk, COMDAT

; 115  : {

  00000	55		 push	 ebp
  00001	8b ec		 mov	 ebp, esp
  00003	51		 push	 ecx

; 116  : #pragma warning (push)
; 117  : #pragma warning (disable : 4640)	// construction of local static object is not thread-safe
; 118  : 
; 119  : 	static bool s_bWin9x = (::GetVersion()&0x80000000) != 0;

  00004	a1 00 00 00 00	 mov	 eax, DWORD PTR ??_B?1??_AtlInstallStringThunk@ATL@@YAXPAPAXPAX1@Z@51
  00009	83 e0 01	 and	 eax, 1
  0000c	75 25		 jne	 SHORT $L25641
  0000e	8b 0d 00 00 00
	00		 mov	 ecx, DWORD PTR ??_B?1??_AtlInstallStringThunk@ATL@@YAXPAPAXPAX1@Z@51
  00014	83 c9 01	 or	 ecx, 1
  00017	89 0d 00 00 00
	00		 mov	 DWORD PTR ??_B?1??_AtlInstallStringThunk@ATL@@YAXPAPAXPAX1@Z@51, ecx
  0001d	ff 15 00 00 00
	00		 call	 DWORD PTR __imp__GetVersion@0
  00023	25 00 00 00 80	 and	 eax, -2147483648	; 80000000H
  00028	f7 d8		 neg	 eax
  0002a	1b c0		 sbb	 eax, eax
  0002c	f7 d8		 neg	 eax
  0002e	a2 00 00 00 00	 mov	 BYTE PTR ?s_bWin9x@?1??_AtlInstallStringThunk@ATL@@YAXPAPAXPAX1@Z@4_NA, al ; `ATL::_AtlInstallStringThunk'::`2'::s_bWin9x
$L25641:

; 120  : 	
; 121  : #pragma warning (pop)
; 122  : 
; 123  : 	void* pfn;
; 124  : 	if (s_bWin9x)

  00033	0f b6 15 00 00
	00 00		 movzx	 edx, BYTE PTR ?s_bWin9x@?1??_AtlInstallStringThunk@ATL@@YAXPAPAXPAX1@Z@4_NA ; `ATL::_AtlInstallStringThunk'::`2'::s_bWin9x
  0003a	85 d2		 test	 edx, edx
  0003c	74 08		 je	 SHORT $L25643

; 125  : 		pfn = pfnWin9x;

  0003e	8b 45 0c	 mov	 eax, DWORD PTR _pfnWin9x$[ebp]
  00041	89 45 fc	 mov	 DWORD PTR _pfn$[ebp], eax

; 126  : 	else

  00044	eb 06		 jmp	 SHORT $L25644
$L25643:

; 127  : 	{
; 128  : #ifdef _CSTRING_ALWAYS_THUNK
; 129  : 		pfn = pfnWin9x;
; 130  : 		(void)pfnNT;
; 131  : #else
; 132  : 		pfn = pfnNT;

  00046	8b 4d 10	 mov	 ecx, DWORD PTR _pfnNT$[ebp]
  00049	89 4d fc	 mov	 DWORD PTR _pfn$[ebp], ecx
$L25644:

; 133  : #endif
; 134  : 	}
; 135  : 	InterlockedExchangePointer(ppThunk, pfn);

  0004c	8b 55 fc	 mov	 edx, DWORD PTR _pfn$[ebp]
  0004f	52		 push	 edx
  00050	8b 45 08	 mov	 eax, DWORD PTR _ppThunk$[ebp]
  00053	50		 push	 eax
  00054	e8 00 00 00 00	 call	 ?InterlockedExchangePointer@@YGPAXPAPAXPAX@Z ; InterlockedExchangePointer

; 136  : }

  00059	8b e5		 mov	 esp, ebp
  0005b	5d		 pop	 ebp
  0005c	c3		 ret	 0
?_AtlInstallStringThunk@ATL@@YAXPAPAXPAX1@Z ENDP	; ATL::_AtlInstallStringThunk
_TEXT	ENDS
PUBLIC	??0?$CTempBuffer@D$0IA@VCCRTAllocator@ATL@@@ATL@@QAE@XZ ; ATL::CTempBuffer<char,128,ATL::CCRTAllocator>::CTempBuffer<char,128,ATL::CCRTAllocator>
PUBLIC	??1?$CTempBuffer@D$0IA@VCCRTAllocator@ATL@@@ATL@@QAE@XZ ; ATL::CTempBuffer<char,128,ATL::CCRTAllocator>::~CTempBuffer<char,128,ATL::CCRTAllocator>
PUBLIC	??B?$CTempBuffer@D$0IA@VCCRTAllocator@ATL@@@ATL@@QBEPADXZ ; ATL::CTempBuffer<char,128,ATL::CCRTAllocator>::operator char *
PUBLIC	?Allocate@?$CTempBuffer@D$0IA@VCCRTAllocator@ATL@@@ATL@@QAEPADI@Z ; ATL::CTempBuffer<char,128,ATL::CCRTAllocator>::Allocate
PUBLIC	??0?$CW2AEX@$0IA@@ATL@@QAE@PB_W@Z		; ATL::CW2AEX<128>::CW2AEX<128>
PUBLIC	??1?$CW2AEX@$0IA@@ATL@@QAE@XZ			; ATL::CW2AEX<128>::~CW2AEX<128>
PUBLIC	??B?$CW2AEX@$0IA@@ATL@@QBEPADXZ			; ATL::CW2AEX<128>::operator char *
PUBLIC	?_AtlGetConversionACP@ATL@@YGIXZ		; ATL::_AtlGetConversionACP
EXTRN	__except_list:DWORD
EXTRN	___CxxFrameHandler:NEAR
EXTRN	__imp__MultiByteToWideChar@24:NEAR
EXTRN	__imp__GetEnvironmentVariableA@12:NEAR
;	COMDAT xdata$x
xdata$x	SEGMENT
$T207250 DD	0ffffffffH
	DD	FLAT:$L207241
	DD	00H
	DD	FLAT:$L207242
$T207246 DD	019930520H
	DD	02H
	DD	FLAT:$T207250
	DD	2 DUP(00H)
	DD	2 DUP(00H)
; Function compile flags: /Odt
xdata$x	ENDS
;	COMDAT ?GetEnvironmentVariableWFake@ATL@@YGKPB_WPA_WK@Z
_TEXT	SEGMENT
$T207240 = -312						; size = 4
$T207239 = -308						; size = 4
$T207238 = -304						; size = 4
_pszBufferA$ = -300					; size = 132
_nSizeW$ = -160						; size = 4
_pszNameA$ = -156					; size = 132
__$ArrayPad$ = -20					; size = 4
_nSizeA$ = -16						; size = 4
__$EHRec$ = -12						; size = 12
__$ReturnAddr$ = 4					; size = 4
_pszName$ = 8						; size = 4
_pszBuffer$ = 12					; size = 4
_nSize$ = 16						; size = 4
?GetEnvironmentVariableWFake@ATL@@YGKPB_WPA_WK@Z PROC NEAR ; ATL::GetEnvironmentVariableWFake, COMDAT

; 159  : {

  00000	55		 push	 ebp
  00001	8b ec		 mov	 ebp, esp
  00003	6a ff		 push	 -1
  00005	68 00 00 00 00	 push	 __ehhandler$?GetEnvironmentVariableWFake@ATL@@YGKPB_WPA_WK@Z
  0000a	64 a1 00 00 00
	00		 mov	 eax, DWORD PTR fs:__except_list
  00010	50		 push	 eax
  00011	64 89 25 00 00
	00 00		 mov	 DWORD PTR fs:__except_list, esp
  00018	81 ec 2c 01 00
	00		 sub	 esp, 300		; 0000012cH
  0001e	a1 00 00 00 00	 mov	 eax, DWORD PTR ___security_cookie
  00023	89 45 ec	 mov	 DWORD PTR __$ArrayPad$[ebp], eax

; 160  : 	ULONG nSizeA;
; 161  : 	ULONG nSizeW;
; 162  : 	CTempBuffer<char> pszBufferA;

  00026	8d 8d d4 fe ff
	ff		 lea	 ecx, DWORD PTR _pszBufferA$[ebp]
  0002c	e8 00 00 00 00	 call	 ??0?$CTempBuffer@D$0IA@VCCRTAllocator@ATL@@@ATL@@QAE@XZ ; ATL::CTempBuffer<char,128,ATL::CCRTAllocator>::CTempBuffer<char,128,ATL::CCRTAllocator>
  00031	c7 45 fc 00 00
	00 00		 mov	 DWORD PTR __$EHRec$[ebp+8], 0

; 163  : 	CW2A pszNameA(pszName);

  00038	8b 45 08	 mov	 eax, DWORD PTR _pszName$[ebp]
  0003b	50		 push	 eax
  0003c	8d 8d 64 ff ff
	ff		 lea	 ecx, DWORD PTR _pszNameA$[ebp]
  00042	e8 00 00 00 00	 call	 ??0?$CW2AEX@$0IA@@ATL@@QAE@PB_W@Z ; ATL::CW2AEX<128>::CW2AEX<128>
  00047	c6 45 fc 01	 mov	 BYTE PTR __$EHRec$[ebp+8], 1

; 164  : 
; 165  : 	nSizeA = ::GetEnvironmentVariableA(pszNameA, NULL, 0);

  0004b	6a 00		 push	 0
  0004d	6a 00		 push	 0
  0004f	8d 8d 64 ff ff
	ff		 lea	 ecx, DWORD PTR _pszNameA$[ebp]
  00055	e8 00 00 00 00	 call	 ??B?$CW2AEX@$0IA@@ATL@@QBEPADXZ ; ATL::CW2AEX<128>::operator char *
  0005a	50		 push	 eax
  0005b	ff 15 00 00 00
	00		 call	 DWORD PTR __imp__GetEnvironmentVariableA@12
  00061	89 45 f0	 mov	 DWORD PTR _nSizeA$[ebp], eax

; 166  : 	if (nSizeA == 0)

  00064	83 7d f0 00	 cmp	 DWORD PTR _nSizeA$[ebp], 0
  00068	75 36		 jne	 SHORT $L25746

; 167  : 		return 0;

  0006a	c7 85 d0 fe ff
	ff 00 00 00 00	 mov	 DWORD PTR $T207238[ebp], 0
  00074	c6 45 fc 00	 mov	 BYTE PTR __$EHRec$[ebp+8], 0
  00078	8d 8d 64 ff ff
	ff		 lea	 ecx, DWORD PTR _pszNameA$[ebp]
  0007e	e8 00 00 00 00	 call	 ??1?$CW2AEX@$0IA@@ATL@@QAE@XZ ; ATL::CW2AEX<128>::~CW2AEX<128>
  00083	c7 45 fc ff ff
	ff ff		 mov	 DWORD PTR __$EHRec$[ebp+8], -1
  0008a	8d 8d d4 fe ff
	ff		 lea	 ecx, DWORD PTR _pszBufferA$[ebp]
  00090	e8 00 00 00 00	 call	 ??1?$CTempBuffer@D$0IA@VCCRTAllocator@ATL@@@ATL@@QAE@XZ ; ATL::CTempBuffer<char,128,ATL::CCRTAllocator>::~CTempBuffer<char,128,ATL::CCRTAllocator>
  00095	8b 85 d0 fe ff
	ff		 mov	 eax, DWORD PTR $T207238[ebp]
  0009b	e9 ee 00 00 00	 jmp	 $L25687
$L25746:

; 168  : 
; 169  : 	pszBufferA.Allocate(nSizeA*2);

  000a0	8b 4d f0	 mov	 ecx, DWORD PTR _nSizeA$[ebp]
  000a3	d1 e1		 shl	 ecx, 1
  000a5	51		 push	 ecx
  000a6	8d 8d d4 fe ff
	ff		 lea	 ecx, DWORD PTR _pszBufferA$[ebp]
  000ac	e8 00 00 00 00	 call	 ?Allocate@?$CTempBuffer@D$0IA@VCCRTAllocator@ATL@@@ATL@@QAEPADI@Z ; ATL::CTempBuffer<char,128,ATL::CCRTAllocator>::Allocate

; 170  : 	::GetEnvironmentVariableA(pszNameA, pszBufferA, nSizeA);

  000b1	8b 55 f0	 mov	 edx, DWORD PTR _nSizeA$[ebp]
  000b4	52		 push	 edx
  000b5	8d 8d d4 fe ff
	ff		 lea	 ecx, DWORD PTR _pszBufferA$[ebp]
  000bb	e8 00 00 00 00	 call	 ??B?$CTempBuffer@D$0IA@VCCRTAllocator@ATL@@@ATL@@QBEPADXZ ; ATL::CTempBuffer<char,128,ATL::CCRTAllocator>::operator char *
  000c0	50		 push	 eax
  000c1	8d 8d 64 ff ff
	ff		 lea	 ecx, DWORD PTR _pszNameA$[ebp]
  000c7	e8 00 00 00 00	 call	 ??B?$CW2AEX@$0IA@@ATL@@QBEPADXZ ; ATL::CW2AEX<128>::operator char *
  000cc	50		 push	 eax
  000cd	ff 15 00 00 00
	00		 call	 DWORD PTR __imp__GetEnvironmentVariableA@12

; 171  : 
; 172  : 	nSizeW = ::MultiByteToWideChar(_AtlGetConversionACP(), 0, pszBufferA, -1, NULL, 0);

  000d3	6a 00		 push	 0
  000d5	6a 00		 push	 0
  000d7	6a ff		 push	 -1
  000d9	8d 8d d4 fe ff
	ff		 lea	 ecx, DWORD PTR _pszBufferA$[ebp]
  000df	e8 00 00 00 00	 call	 ??B?$CTempBuffer@D$0IA@VCCRTAllocator@ATL@@@ATL@@QBEPADXZ ; ATL::CTempBuffer<char,128,ATL::CCRTAllocator>::operator char *
  000e4	50		 push	 eax
  000e5	6a 00		 push	 0
  000e7	e8 00 00 00 00	 call	 ?_AtlGetConversionACP@ATL@@YGIXZ ; ATL::_AtlGetConversionACP
  000ec	50		 push	 eax
  000ed	ff 15 00 00 00
	00		 call	 DWORD PTR __imp__MultiByteToWideChar@24
  000f3	89 85 60 ff ff
	ff		 mov	 DWORD PTR _nSizeW$[ebp], eax

; 173  : 	if (nSize == 0)

  000f9	83 7d 10 00	 cmp	 DWORD PTR _nSize$[ebp], 0
  000fd	75 35		 jne	 SHORT $L25748

; 174  : 		return nSizeW;

  000ff	8b 85 60 ff ff
	ff		 mov	 eax, DWORD PTR _nSizeW$[ebp]
  00105	89 85 cc fe ff
	ff		 mov	 DWORD PTR $T207239[ebp], eax
  0010b	c6 45 fc 00	 mov	 BYTE PTR __$EHRec$[ebp+8], 0
  0010f	8d 8d 64 ff ff
	ff		 lea	 ecx, DWORD PTR _pszNameA$[ebp]
  00115	e8 00 00 00 00	 call	 ??1?$CW2AEX@$0IA@@ATL@@QAE@XZ ; ATL::CW2AEX<128>::~CW2AEX<128>
  0011a	c7 45 fc ff ff
	ff ff		 mov	 DWORD PTR __$EHRec$[ebp+8], -1
  00121	8d 8d d4 fe ff
	ff		 lea	 ecx, DWORD PTR _pszBufferA$[ebp]
  00127	e8 00 00 00 00	 call	 ??1?$CTempBuffer@D$0IA@VCCRTAllocator@ATL@@@ATL@@QAE@XZ ; ATL::CTempBuffer<char,128,ATL::CCRTAllocator>::~CTempBuffer<char,128,ATL::CCRTAllocator>
  0012c	8b 85 cc fe ff
	ff		 mov	 eax, DWORD PTR $T207239[ebp]
  00132	eb 5a		 jmp	 SHORT $L25687
$L25748:

; 175  : 	ATLASSERT(nSize >= nSizeW);
; 176  : 	::MultiByteToWideChar(_AtlGetConversionACP(), 0, pszBufferA, -1, pszBuffer, nSizeW);

  00134	8b 8d 60 ff ff
	ff		 mov	 ecx, DWORD PTR _nSizeW$[ebp]
  0013a	51		 push	 ecx
  0013b	8b 55 0c	 mov	 edx, DWORD PTR _pszBuffer$[ebp]
  0013e	52		 push	 edx
  0013f	6a ff		 push	 -1
  00141	8d 8d d4 fe ff
	ff		 lea	 ecx, DWORD PTR _pszBufferA$[ebp]
  00147	e8 00 00 00 00	 call	 ??B?$CTempBuffer@D$0IA@VCCRTAllocator@ATL@@@ATL@@QBEPADXZ ; ATL::CTempBuffer<char,128,ATL::CCRTAllocator>::operator char *
  0014c	50		 push	 eax
  0014d	6a 00		 push	 0
  0014f	e8 00 00 00 00	 call	 ?_AtlGetConversionACP@ATL@@YGIXZ ; ATL::_AtlGetConversionACP
  00154	50		 push	 eax
  00155	ff 15 00 00 00
	00		 call	 DWORD PTR __imp__MultiByteToWideChar@24

; 177  : 
; 178  : 	return nSizeW;

  0015b	8b 85 60 ff ff
	ff		 mov	 eax, DWORD PTR _nSizeW$[ebp]
  00161	89 85 c8 fe ff
	ff		 mov	 DWORD PTR $T207240[ebp], eax
  00167	c6 45 fc 00	 mov	 BYTE PTR __$EHRec$[ebp+8], 0
  0016b	8d 8d 64 ff ff
	ff		 lea	 ecx, DWORD PTR _pszNameA$[ebp]
  00171	e8 00 00 00 00	 call	 ??1?$CW2AEX@$0IA@@ATL@@QAE@XZ ; ATL::CW2AEX<128>::~CW2AEX<128>
  00176	c7 45 fc ff ff
	ff ff		 mov	 DWORD PTR __$EHRec$[ebp+8], -1
  0017d	8d 8d d4 fe ff
	ff		 lea	 ecx, DWORD PTR _pszBufferA$[ebp]
  00183	e8 00 00 00 00	 call	 ??1?$CTempBuffer@D$0IA@VCCRTAllocator@ATL@@@ATL@@QAE@XZ ; ATL::CTempBuffer<char,128,ATL::CCRTAllocator>::~CTempBuffer<char,128,ATL::CCRTAllocator>
  00188	8b 85 c8 fe ff
	ff		 mov	 eax, DWORD PTR $T207240[ebp]
$L25687:

; 179  : }

  0018e	8b 4d f4	 mov	 ecx, DWORD PTR __$EHRec$[ebp]
  00191	64 89 0d 00 00
	00 00		 mov	 DWORD PTR fs:__except_list, ecx
  00198	8b 4d ec	 mov	 ecx, DWORD PTR __$ArrayPad$[ebp]
  0019b	e8 00 00 00 00	 call	 @__security_check_cookie@4
  001a0	8b e5		 mov	 esp, ebp
  001a2	5d		 pop	 ebp
  001a3	c2 0c 00	 ret	 12			; 0000000cH
_TEXT	ENDS
;	COMDAT text$x
text$x	SEGMENT
$L207241:
  00000	8d 8d d4 fe ff
	ff		 lea	 ecx, DWORD PTR _pszBufferA$[ebp]
  00006	e9 00 00 00 00	 jmp	 ??1?$CTempBuffer@D$0IA@VCCRTAllocator@ATL@@@ATL@@QAE@XZ ; ATL::CTempBuffer<char,128,ATL::CCRTAllocator>::~CTempBuffer<char,128,ATL::CCRTAllocator>
$L207242:
  0000b	8d 8d 64 ff ff
	ff		 lea	 ecx, DWORD PTR _pszNameA$[ebp]
  00011	e9 00 00 00 00	 jmp	 ??1?$CW2AEX@$0IA@@ATL@@QAE@XZ ; ATL::CW2AEX<128>::~CW2AEX<128>
__ehhandler$?GetEnvironmentVariableWFake@ATL@@YGKPB_WPA_WK@Z:
  00016	b8 00 00 00 00	 mov	 eax, OFFSET FLAT:$T207246
  0001b	e9 00 00 00 00	 jmp	 ___CxxFrameHandler
text$x	ENDS
?GetEnvironmentVariableWFake@ATL@@YGKPB_WPA_WK@Z ENDP	; ATL::GetEnvironmentVariableWFake
; Function compile flags: /Odt
; File d:\program files (x86)\microsoft visual studio .net 2003\vc7\atlmfc\include\atlconv.h
;	COMDAT ?_AtlGetConversionACP@ATL@@YGIXZ
_TEXT	SEGMENT
?_AtlGetConversionACP@ATL@@YGIXZ PROC NEAR		; ATL::_AtlGetConversionACP, COMDAT

; 157  : {

  00000	55		 push	 ebp
  00001	8b ec		 mov	 ebp, esp

; 158  : 	return( g_pfnGetThreadACP() );

  00003	ff 15 00 00 00
	00		 call	 DWORD PTR ?g_pfnGetThreadACP@ATL@@3P6GIXZA ; ATL::g_pfnGetThreadACP

; 159  : }

  00009	5d		 pop	 ebp
  0000a	c3		 ret	 0
?_AtlGetConversionACP@ATL@@YGIXZ ENDP			; ATL::_AtlGetConversionACP
_TEXT	ENDS
PUBLIC	?CompareStringWFake@ATL@@YGHKKPB_WH0H@Z		; ATL::CompareStringWFake
EXTRN	__imp__CompareStringW@24:NEAR
; Function compile flags: /Odt
; File d:\program files (x86)\microsoft visual studio .net 2003\vc7\atlmfc\include\cstringt.h
;	COMDAT ?CompareStringWThunk@ATL@@YGHKKPB_WH0H@Z
_TEXT	SEGMENT
_lcid$ = 8						; size = 4
_dwFlags$ = 12						; size = 4
_pszString1$ = 16					; size = 4
_nLength1$ = 20						; size = 4
_pszString2$ = 24					; size = 4
_nLength2$ = 28						; size = 4
?CompareStringWThunk@ATL@@YGHKKPB_WH0H@Z PROC NEAR	; ATL::CompareStringWThunk, COMDAT

; 216  : {

  00000	55		 push	 ebp
  00001	8b ec		 mov	 ebp, esp

; 217  : 	_AtlInstallStringThunk(reinterpret_cast<void**>(&_strthunks.pfnCompareStringW), CompareStringWFake, ::CompareStringW);

  00003	a1 00 00 00 00	 mov	 eax, DWORD PTR __imp__CompareStringW@24
  00008	50		 push	 eax
  00009	68 00 00 00 00	 push	 OFFSET FLAT:?CompareStringWFake@ATL@@YGHKKPB_WH0H@Z ; ATL::CompareStringWFake
  0000e	68 00 00 00 00	 push	 OFFSET FLAT:?_strthunks@ATL@@3U_AtlStringThunks@1@A ; ATL::_strthunks
  00013	e8 00 00 00 00	 call	 ?_AtlInstallStringThunk@ATL@@YAXPAPAXPAX1@Z ; ATL::_AtlInstallStringThunk
  00018	83 c4 0c	 add	 esp, 12			; 0000000cH

; 218  : 
; 219  : 	return _strthunks.pfnCompareStringW(lcid, dwFlags, pszString1, nLength1, pszString2, nLength2);

  0001b	8b 4d 1c	 mov	 ecx, DWORD PTR _nLength2$[ebp]
  0001e	51		 push	 ecx
  0001f	8b 55 18	 mov	 edx, DWORD PTR _pszString2$[ebp]
  00022	52		 push	 edx
  00023	8b 45 14	 mov	 eax, DWORD PTR _nLength1$[ebp]
  00026	50		 push	 eax
  00027	8b 4d 10	 mov	 ecx, DWORD PTR _pszString1$[ebp]
  0002a	51		 push	 ecx
  0002b	8b 55 0c	 mov	 edx, DWORD PTR _dwFlags$[ebp]
  0002e	52		 push	 edx
  0002f	8b 45 08	 mov	 eax, DWORD PTR _lcid$[ebp]
  00032	50		 push	 eax
  00033	ff 15 00 00 00
	00		 call	 DWORD PTR ?_strthunks@ATL@@3U_AtlStringThunks@1@A

; 220  : }

  00039	5d		 pop	 ebp
  0003a	c2 18 00	 ret	 24			; 00000018H
?CompareStringWThunk@ATL@@YGHKKPB_WH0H@Z ENDP		; ATL::CompareStringWThunk
_TEXT	ENDS
PUBLIC	?AtlThrow@ATL@@YGXJ@Z				; ATL::AtlThrow
PUBLIC	?_AtlVerifyStackAvailable@_ATL_SAFE_ALLOCA_IMPL@ATL@@YA_NK@Z ; ATL::_ATL_SAFE_ALLOCA_IMPL::_AtlVerifyStackAvailable
PUBLIC	?AtlW2AHelper@@YGPADPADPB_WHI@Z			; AtlW2AHelper
PUBLIC	??0?$CAtlSafeAllocBufferManager@VCCRTAllocator@ATL@@@_ATL_SAFE_ALLOCA_IMPL@ATL@@QAE@XZ ; ATL::_ATL_SAFE_ALLOCA_IMPL::CAtlSafeAllocBufferManager<ATL::CCRTAllocator>::CAtlSafeAllocBufferManager<ATL::CCRTAllocator>
PUBLIC	?Allocate@?$CAtlSafeAllocBufferManager@VCCRTAllocator@ATL@@@_ATL_SAFE_ALLOCA_IMPL@ATL@@QAEPAXK@Z ; ATL::_ATL_SAFE_ALLOCA_IMPL::CAtlSafeAllocBufferManager<ATL::CCRTAllocator>::Allocate
PUBLIC	??1?$CAtlSafeAllocBufferManager@VCCRTAllocator@ATL@@@_ATL_SAFE_ALLOCA_IMPL@ATL@@QAE@XZ ; ATL::_ATL_SAFE_ALLOCA_IMPL::CAtlSafeAllocBufferManager<ATL::CCRTAllocator>::~CAtlSafeAllocBufferManager<ATL::CCRTAllocator>
EXTRN	__imp__lstrlenW@4:NEAR
EXTRN	__imp__CompareStringA@24:NEAR
EXTRN	__alloca_probe:NEAR
;	COMDAT xdata$x
xdata$x	SEGMENT
$T207274 DD	0ffffffffH
	DD	FLAT:$L207269
$T207271 DD	019930520H
	DD	01H
	DD	FLAT:$T207274
	DD	2 DUP(00H)
	DD	2 DUP(00H)
; Function compile flags: /Odt
xdata$x	ENDS
;	COMDAT ?CompareStringWFake@ATL@@YGHKKPB_WH0H@Z
_TEXT	SEGMENT
tv147 = -68						; size = 4
tv142 = -64						; size = 4
tv149 = -60						; size = 4
tv89 = -56						; size = 4
tv84 = -52						; size = 4
tv91 = -48						; size = 4
$T207268 = -44						; size = 4
_pszAString1$ = -40					; size = 4
__AtlSafeAllocaManager$ = -36				; size = 4
__convert_ex$ = -32					; size = 4
__acp_ex$ = -28						; size = 4
_pszAString2$ = -24					; size = 4
__lpw_ex$ = -16						; size = 4
__$EHRec$ = -12						; size = 12
_lcid$ = 8						; size = 4
_dwFlags$ = 12						; size = 4
_pszString1$ = 16					; size = 4
_nLength1$ = 20						; size = 4
_pszString2$ = 24					; size = 4
_nLength2$ = 28						; size = 4
?CompareStringWFake@ATL@@YGHKKPB_WH0H@Z PROC NEAR	; ATL::CompareStringWFake, COMDAT

; 192  : {

  00000	55		 push	 ebp
  00001	8b ec		 mov	 ebp, esp
  00003	6a ff		 push	 -1
  00005	68 00 00 00 00	 push	 __ehhandler$?CompareStringWFake@ATL@@YGHKKPB_WH0H@Z
  0000a	64 a1 00 00 00
	00		 mov	 eax, DWORD PTR fs:__except_list
  00010	50		 push	 eax
  00011	64 89 25 00 00
	00 00		 mov	 DWORD PTR fs:__except_list, esp
  00018	83 ec 38	 sub	 esp, 56			; 00000038H

; 193  : 	USES_CONVERSION_EX;

  0001b	e8 00 00 00 00	 call	 ?_AtlGetConversionACP@ATL@@YGIXZ ; ATL::_AtlGetConversionACP
  00020	89 45 e4	 mov	 DWORD PTR __acp_ex$[ebp], eax
  00023	8d 4d dc	 lea	 ecx, DWORD PTR __AtlSafeAllocaManager$[ebp]
  00026	e8 00 00 00 00	 call	 ??0?$CAtlSafeAllocBufferManager@VCCRTAllocator@ATL@@@_ATL_SAFE_ALLOCA_IMPL@ATL@@QAE@XZ ; ATL::_ATL_SAFE_ALLOCA_IMPL::CAtlSafeAllocBufferManager<ATL::CCRTAllocator>::CAtlSafeAllocBufferManager<ATL::CCRTAllocator>
  0002b	c7 45 fc 00 00
	00 00		 mov	 DWORD PTR __$EHRec$[ebp+8], 0

; 194  : 	
; 195  : 	LPCSTR pszAString1 = NULL;

  00032	c7 45 d8 00 00
	00 00		 mov	 DWORD PTR _pszAString1$[ebp], 0

; 196  : 	if(pszString1 != NULL)

  00039	83 7d 10 00	 cmp	 DWORD PTR _pszString1$[ebp], 0
  0003d	0f 84 98 00 00
	00		 je	 $L25772

; 197  : 	{
; 198  : 		pszAString1 = W2A_EX(pszString1,_ATL_SAFE_ALLOCA_DEF_THRESHOLD);

  00043	8b 45 10	 mov	 eax, DWORD PTR _pszString1$[ebp]
  00046	89 45 f0	 mov	 DWORD PTR __lpw_ex$[ebp], eax
  00049	83 7d f0 00	 cmp	 DWORD PTR __lpw_ex$[ebp], 0
  0004d	75 09		 jne	 SHORT $L207262
  0004f	c7 45 d0 00 00
	00 00		 mov	 DWORD PTR tv91[ebp], 0
  00056	eb 6d		 jmp	 SHORT $L207263
$L207262:
  00058	8b 4d f0	 mov	 ecx, DWORD PTR __lpw_ex$[ebp]
  0005b	51		 push	 ecx
  0005c	ff 15 00 00 00
	00		 call	 DWORD PTR __imp__lstrlenW@4
  00062	8d 54 00 02	 lea	 edx, DWORD PTR [eax+eax+2]
  00066	89 55 e0	 mov	 DWORD PTR __convert_ex$[ebp], edx
  00069	81 7d e0 00 04
	00 00		 cmp	 DWORD PTR __convert_ex$[ebp], 1024 ; 00000400H
  00070	7f 2c		 jg	 SHORT $L207260
  00072	8b 45 e0	 mov	 eax, DWORD PTR __convert_ex$[ebp]
  00075	50		 push	 eax
  00076	e8 00 00 00 00	 call	 ?_AtlVerifyStackAvailable@_ATL_SAFE_ALLOCA_IMPL@ATL@@YA_NK@Z ; ATL::_ATL_SAFE_ALLOCA_IMPL::_AtlVerifyStackAvailable
  0007b	83 c4 04	 add	 esp, 4
  0007e	0f b6 c8	 movzx	 ecx, al
  00081	85 c9		 test	 ecx, ecx
  00083	74 19		 je	 SHORT $L207260
  00085	8b 45 e0	 mov	 eax, DWORD PTR __convert_ex$[ebp]
  00088	83 c0 03	 add	 eax, 3
  0008b	83 e0 fc	 and	 eax, -4			; fffffffcH
  0008e	e8 00 00 00 00	 call	 __alloca_probe
  00093	89 65 cc	 mov	 DWORD PTR tv84[ebp], esp
  00096	8b 55 cc	 mov	 edx, DWORD PTR tv84[ebp]
  00099	89 55 c8	 mov	 DWORD PTR tv89[ebp], edx
  0009c	eb 0f		 jmp	 SHORT $L207261
$L207260:
  0009e	8b 45 e0	 mov	 eax, DWORD PTR __convert_ex$[ebp]
  000a1	50		 push	 eax
  000a2	8d 4d dc	 lea	 ecx, DWORD PTR __AtlSafeAllocaManager$[ebp]
  000a5	e8 00 00 00 00	 call	 ?Allocate@?$CAtlSafeAllocBufferManager@VCCRTAllocator@ATL@@@_ATL_SAFE_ALLOCA_IMPL@ATL@@QAEPAXK@Z ; ATL::_ATL_SAFE_ALLOCA_IMPL::CAtlSafeAllocBufferManager<ATL::CCRTAllocator>::Allocate
  000aa	89 45 c8	 mov	 DWORD PTR tv89[ebp], eax
$L207261:
  000ad	8b 4d e4	 mov	 ecx, DWORD PTR __acp_ex$[ebp]
  000b0	51		 push	 ecx
  000b1	8b 55 e0	 mov	 edx, DWORD PTR __convert_ex$[ebp]
  000b4	52		 push	 edx
  000b5	8b 45 f0	 mov	 eax, DWORD PTR __lpw_ex$[ebp]
  000b8	50		 push	 eax
  000b9	8b 4d c8	 mov	 ecx, DWORD PTR tv89[ebp]
  000bc	51		 push	 ecx
  000bd	e8 00 00 00 00	 call	 ?AtlW2AHelper@@YGPADPADPB_WHI@Z ; AtlW2AHelper
  000c2	89 45 d0	 mov	 DWORD PTR tv91[ebp], eax
$L207263:
  000c5	8b 55 d0	 mov	 edx, DWORD PTR tv91[ebp]
  000c8	89 55 d8	 mov	 DWORD PTR _pszAString1$[ebp], edx

; 199  : 		if(pszAString1 == NULL)

  000cb	83 7d d8 00	 cmp	 DWORD PTR _pszAString1$[ebp], 0
  000cf	75 0a		 jne	 SHORT $L25772

; 200  : 			AtlThrow(E_OUTOFMEMORY);

  000d1	68 0e 00 07 80	 push	 -2147024882		; 8007000eH
  000d6	e8 00 00 00 00	 call	 ?AtlThrow@ATL@@YGXJ@Z	; ATL::AtlThrow
$L25772:

; 201  : 	}
; 202  : 
; 203  : 	LPCSTR pszAString2 = NULL;

  000db	c7 45 e8 00 00
	00 00		 mov	 DWORD PTR _pszAString2$[ebp], 0

; 204  : 	if(pszString2 != NULL)

  000e2	83 7d 18 00	 cmp	 DWORD PTR _pszString2$[ebp], 0
  000e6	0f 84 98 00 00
	00		 je	 $L25778

; 205  : 	{
; 206  : 		pszAString2 = W2A_EX(pszString2,_ATL_SAFE_ALLOCA_DEF_THRESHOLD);

  000ec	8b 45 18	 mov	 eax, DWORD PTR _pszString2$[ebp]
  000ef	89 45 f0	 mov	 DWORD PTR __lpw_ex$[ebp], eax
  000f2	83 7d f0 00	 cmp	 DWORD PTR __lpw_ex$[ebp], 0
  000f6	75 09		 jne	 SHORT $L207266
  000f8	c7 45 c4 00 00
	00 00		 mov	 DWORD PTR tv149[ebp], 0
  000ff	eb 6d		 jmp	 SHORT $L207267
$L207266:
  00101	8b 4d f0	 mov	 ecx, DWORD PTR __lpw_ex$[ebp]
  00104	51		 push	 ecx
  00105	ff 15 00 00 00
	00		 call	 DWORD PTR __imp__lstrlenW@4
  0010b	8d 54 00 02	 lea	 edx, DWORD PTR [eax+eax+2]
  0010f	89 55 e0	 mov	 DWORD PTR __convert_ex$[ebp], edx
  00112	81 7d e0 00 04
	00 00		 cmp	 DWORD PTR __convert_ex$[ebp], 1024 ; 00000400H
  00119	7f 2c		 jg	 SHORT $L207264
  0011b	8b 45 e0	 mov	 eax, DWORD PTR __convert_ex$[ebp]
  0011e	50		 push	 eax
  0011f	e8 00 00 00 00	 call	 ?_AtlVerifyStackAvailable@_ATL_SAFE_ALLOCA_IMPL@ATL@@YA_NK@Z ; ATL::_ATL_SAFE_ALLOCA_IMPL::_AtlVerifyStackAvailable
  00124	83 c4 04	 add	 esp, 4
  00127	0f b6 c8	 movzx	 ecx, al
  0012a	85 c9		 test	 ecx, ecx
  0012c	74 19		 je	 SHORT $L207264
  0012e	8b 45 e0	 mov	 eax, DWORD PTR __convert_ex$[ebp]
  00131	83 c0 03	 add	 eax, 3
  00134	83 e0 fc	 and	 eax, -4			; fffffffcH
  00137	e8 00 00 00 00	 call	 __alloca_probe
  0013c	89 65 c0	 mov	 DWORD PTR tv142[ebp], esp
  0013f	8b 55 c0	 mov	 edx, DWORD PTR tv142[ebp]
  00142	89 55 bc	 mov	 DWORD PTR tv147[ebp], edx
  00145	eb 0f		 jmp	 SHORT $L207265
$L207264:
  00147	8b 45 e0	 mov	 eax, DWORD PTR __convert_ex$[ebp]
  0014a	50		 push	 eax
  0014b	8d 4d dc	 lea	 ecx, DWORD PTR __AtlSafeAllocaManager$[ebp]
  0014e	e8 00 00 00 00	 call	 ?Allocate@?$CAtlSafeAllocBufferManager@VCCRTAllocator@ATL@@@_ATL_SAFE_ALLOCA_IMPL@ATL@@QAEPAXK@Z ; ATL::_ATL_SAFE_ALLOCA_IMPL::CAtlSafeAllocBufferManager<ATL::CCRTAllocator>::Allocate
  00153	89 45 bc	 mov	 DWORD PTR tv147[ebp], eax
$L207265:
  00156	8b 4d e4	 mov	 ecx, DWORD PTR __acp_ex$[ebp]
  00159	51		 push	 ecx
  0015a	8b 55 e0	 mov	 edx, DWORD PTR __convert_ex$[ebp]
  0015d	52		 push	 edx
  0015e	8b 45 f0	 mov	 eax, DWORD PTR __lpw_ex$[ebp]
  00161	50		 push	 eax
  00162	8b 4d bc	 mov	 ecx, DWORD PTR tv147[ebp]
  00165	51		 push	 ecx
  00166	e8 00 00 00 00	 call	 ?AtlW2AHelper@@YGPADPADPB_WHI@Z ; AtlW2AHelper
  0016b	89 45 c4	 mov	 DWORD PTR tv149[ebp], eax
$L207267:
  0016e	8b 55 c4	 mov	 edx, DWORD PTR tv149[ebp]
  00171	89 55 e8	 mov	 DWORD PTR _pszAString2$[ebp], edx

; 207  : 		if(pszAString2 == NULL)

  00174	83 7d e8 00	 cmp	 DWORD PTR _pszAString2$[ebp], 0
  00178	75 0a		 jne	 SHORT $L25778

; 208  : 			AtlThrow(E_OUTOFMEMORY);

  0017a	68 0e 00 07 80	 push	 -2147024882		; 8007000eH
  0017f	e8 00 00 00 00	 call	 ?AtlThrow@ATL@@YGXJ@Z	; ATL::AtlThrow
$L25778:

; 209  : 	}
; 210  : 
; 211  : 	return ::CompareStringA(lcid, dwFlags, pszAString1, nLength1, pszAString2, nLength2);

  00184	8b 45 1c	 mov	 eax, DWORD PTR _nLength2$[ebp]
  00187	50		 push	 eax
  00188	8b 4d e8	 mov	 ecx, DWORD PTR _pszAString2$[ebp]
  0018b	51		 push	 ecx
  0018c	8b 55 14	 mov	 edx, DWORD PTR _nLength1$[ebp]
  0018f	52		 push	 edx
  00190	8b 45 d8	 mov	 eax, DWORD PTR _pszAString1$[ebp]
  00193	50		 push	 eax
  00194	8b 4d 0c	 mov	 ecx, DWORD PTR _dwFlags$[ebp]
  00197	51		 push	 ecx
  00198	8b 55 08	 mov	 edx, DWORD PTR _lcid$[ebp]
  0019b	52		 push	 edx
  0019c	ff 15 00 00 00
	00		 call	 DWORD PTR __imp__CompareStringA@24
  001a2	89 45 d4	 mov	 DWORD PTR $T207268[ebp], eax
  001a5	c7 45 fc ff ff
	ff ff		 mov	 DWORD PTR __$EHRec$[ebp+8], -1
  001ac	8d 4d dc	 lea	 ecx, DWORD PTR __AtlSafeAllocaManager$[ebp]
  001af	e8 00 00 00 00	 call	 ??1?$CAtlSafeAllocBufferManager@VCCRTAllocator@ATL@@@_ATL_SAFE_ALLOCA_IMPL@ATL@@QAE@XZ ; ATL::_ATL_SAFE_ALLOCA_IMPL::CAtlSafeAllocBufferManager<ATL::CCRTAllocator>::~CAtlSafeAllocBufferManager<ATL::CCRTAllocator>
  001b4	8b 45 d4	 mov	 eax, DWORD PTR $T207268[ebp]
$L207259:

; 212  : }

  001b7	8d 65 bc	 lea	 esp, DWORD PTR [ebp-68]
  001ba	8b 4d f4	 mov	 ecx, DWORD PTR __$EHRec$[ebp]
  001bd	64 89 0d 00 00
	00 00		 mov	 DWORD PTR fs:__except_list, ecx
  001c4	8b e5		 mov	 esp, ebp
  001c6	5d		 pop	 ebp
  001c7	c2 18 00	 ret	 24			; 00000018H
_TEXT	ENDS
;	COMDAT text$x
text$x	SEGMENT
$L207269:
  00000	8d 4d dc	 lea	 ecx, DWORD PTR __AtlSafeAllocaManager$[ebp]
  00003	e9 00 00 00 00	 jmp	 ??1?$CAtlSafeAllocBufferManager@VCCRTAllocator@ATL@@@_ATL_SAFE_ALLOCA_IMPL@ATL@@QAE@XZ ; ATL::_ATL_SAFE_ALLOCA_IMPL::CAtlSafeAllocBufferManager<ATL::CCRTAllocator>::~CAtlSafeAllocBufferManager<ATL::CCRTAllocator>
__ehhandler$?CompareStringWFake@ATL@@YGHKKPB_WH0H@Z:
  00008	b8 00 00 00 00	 mov	 eax, OFFSET FLAT:$T207271
  0000d	e9 00 00 00 00	 jmp	 ___CxxFrameHandler
text$x	ENDS
?CompareStringWFake@ATL@@YGHKKPB_WH0H@Z ENDP		; ATL::CompareStringWFake
EXTRN	__imp___resetstkoflw:NEAR
EXTRN	__except_handler3:NEAR
;	COMDAT CONST
; File d:\program files (x86)\microsoft visual studio .net 2003\vc7\atlmfc\include\atlalloc.h
CONST	SEGMENT
$T207285 DD	0ffffffffH
	DD	FLAT:$L207280
	DD	FLAT:$L207281
; Function compile flags: /Odt
CONST	ENDS
;	COMDAT ?_AtlVerifyStackAvailable@_ATL_SAFE_ALLOCA_IMPL@ATL@@YA_NK@Z
_TEXT	SEGMENT
tv65 = -40						; size = 4
$T207284 = -36						; size = 4
_p$24118 = -32						; size = 4
_bStackAvailable$ = -25					; size = 1
__$SEHRec$ = -24					; size = 24
_Size$ = 8						; size = 4
?_AtlVerifyStackAvailable@_ATL_SAFE_ALLOCA_IMPL@ATL@@YA_NK@Z PROC NEAR ; ATL::_ATL_SAFE_ALLOCA_IMPL::_AtlVerifyStackAvailable, COMDAT

; 331  : {

  00000	55		 push	 ebp
  00001	8b ec		 mov	 ebp, esp
  00003	6a ff		 push	 -1
  00005	68 00 00 00 00	 push	 OFFSET FLAT:$T207285
  0000a	68 00 00 00 00	 push	 OFFSET FLAT:__except_handler3
  0000f	64 a1 00 00 00
	00		 mov	 eax, DWORD PTR fs:__except_list
  00015	50		 push	 eax
  00016	64 89 25 00 00
	00 00		 mov	 DWORD PTR fs:__except_list, esp
  0001d	83 c4 e8	 add	 esp, -24		; ffffffe8H
  00020	53		 push	 ebx
  00021	56		 push	 esi
  00022	57		 push	 edi
  00023	89 65 e8	 mov	 DWORD PTR __$SEHRec$[ebp], esp

; 332  :     bool bStackAvailable = true;

  00026	c6 45 e7 01	 mov	 BYTE PTR _bStackAvailable$[ebp], 1

; 333  : 
; 334  :     __try

  0002a	c7 45 fc 00 00
	00 00		 mov	 DWORD PTR __$SEHRec$[ebp+20], 0

; 335  :     {
; 336  :         PVOID p = _alloca(Size + _ATL_STACK_MARGIN);

  00031	8b 45 08	 mov	 eax, DWORD PTR _Size$[ebp]
  00034	05 03 20 00 00	 add	 eax, 8195		; 00002003H
  00039	83 e0 fc	 and	 eax, -4			; fffffffcH
  0003c	e8 00 00 00 00	 call	 __alloca_probe
  00041	89 65 d8	 mov	 DWORD PTR tv65[ebp], esp
  00044	89 65 e8	 mov	 DWORD PTR __$SEHRec$[ebp], esp
  00047	8b 45 d8	 mov	 eax, DWORD PTR tv65[ebp]
  0004a	89 45 e0	 mov	 DWORD PTR _p$24118[ebp], eax
  0004d	c7 45 fc ff ff
	ff ff		 mov	 DWORD PTR __$SEHRec$[ebp+20], -1
  00054	eb 2c		 jmp	 SHORT $L207283
$L207280:
$L207289:

; 337  :         (p);
; 338  :     }
; 339  :     __except ((EXCEPTION_STACK_OVERFLOW == GetExceptionCode()) ?
; 340  :                    EXCEPTION_EXECUTE_HANDLER :
; 341  :                    EXCEPTION_CONTINUE_SEARCH)

  00056	8b 4d ec	 mov	 ecx, DWORD PTR __$SEHRec$[ebp+4]
  00059	8b 11		 mov	 edx, DWORD PTR [ecx]
  0005b	8b 02		 mov	 eax, DWORD PTR [edx]
  0005d	89 45 dc	 mov	 DWORD PTR $T207284[ebp], eax
  00060	8b 45 dc	 mov	 eax, DWORD PTR $T207284[ebp]
  00063	2d fd 00 00 c0	 sub	 eax, -1073741571	; c00000fdH
  00068	f7 d8		 neg	 eax
  0006a	1b c0		 sbb	 eax, eax
  0006c	40		 inc	 eax
$L207282:
$L207288:
  0006d	c3		 ret	 0
$L207281:
  0006e	8b 65 e8	 mov	 esp, DWORD PTR __$SEHRec$[ebp]

; 342  :     {
; 343  :         bStackAvailable = false;

  00071	c6 45 e7 00	 mov	 BYTE PTR _bStackAvailable$[ebp], 0

; 344  :         _resetstkoflw();

  00075	ff 15 00 00 00
	00		 call	 DWORD PTR __imp___resetstkoflw
  0007b	c7 45 fc ff ff
	ff ff		 mov	 DWORD PTR __$SEHRec$[ebp+20], -1
$L207283:

; 345  :     }
; 346  :     return bStackAvailable;

  00082	8a 45 e7	 mov	 al, BYTE PTR _bStackAvailable$[ebp]
$L207279:

; 347  : }

  00085	8d 65 cc	 lea	 esp, DWORD PTR [ebp-52]
  00088	8b 4d f0	 mov	 ecx, DWORD PTR __$SEHRec$[ebp+8]
  0008b	64 89 0d 00 00
	00 00		 mov	 DWORD PTR fs:__except_list, ecx
  00092	5f		 pop	 edi
  00093	5e		 pop	 esi
  00094	5b		 pop	 ebx
  00095	8b e5		 mov	 esp, ebp
  00097	5d		 pop	 ebp
  00098	c3		 ret	 0
?_AtlVerifyStackAvailable@_ATL_SAFE_ALLOCA_IMPL@ATL@@YA_NK@Z ENDP ; ATL::_ATL_SAFE_ALLOCA_IMPL::_AtlVerifyStackAvailable
_TEXT	ENDS
EXTRN	__imp__WideCharToMultiByte@32:NEAR
; Function compile flags: /Odt
; File d:\program files (x86)\microsoft visual studio .net 2003\vc7\atlmfc\include\atlconv.h
;	COMDAT ?AtlW2AHelper@@YGPADPADPB_WHI@Z
_TEXT	SEGMENT
_ret$ = -4						; size = 4
_lpa$ = 8						; size = 4
_lpw$ = 12						; size = 4
_nChars$ = 16						; size = 4
_acp$ = 20						; size = 4
?AtlW2AHelper@@YGPADPADPB_WHI@Z PROC NEAR		; AtlW2AHelper, COMDAT

; 573  : {

  00000	55		 push	 ebp
  00001	8b ec		 mov	 ebp, esp
  00003	51		 push	 ecx

; 574  : 	ATLASSERT(lpw != NULL);
; 575  : 	ATLASSERT(lpa != NULL);
; 576  : 	if (lpa == NULL || lpw == NULL)

  00004	83 7d 08 00	 cmp	 DWORD PTR _lpa$[ebp], 0
  00008	74 06		 je	 SHORT $L24319
  0000a	83 7d 0c 00	 cmp	 DWORD PTR _lpw$[ebp], 0
  0000e	75 04		 jne	 SHORT $L24318
$L24319:

; 577  : 		return NULL;

  00010	33 c0		 xor	 eax, eax
  00012	eb 34		 jmp	 SHORT $L24315
$L24318:

; 578  : 	// verify that no illegal character present
; 579  : 	// since lpa was allocated based on the size of lpw
; 580  : 	// don't worry about the number of chars
; 581  : 	lpa[0] = '\0';

  00014	8b 45 08	 mov	 eax, DWORD PTR _lpa$[ebp]
  00017	c6 00 00	 mov	 BYTE PTR [eax], 0

; 582  : 	int ret = WideCharToMultiByte(acp, 0, lpw, -1, lpa, nChars, NULL, NULL);

  0001a	6a 00		 push	 0
  0001c	6a 00		 push	 0
  0001e	8b 4d 10	 mov	 ecx, DWORD PTR _nChars$[ebp]
  00021	51		 push	 ecx
  00022	8b 55 08	 mov	 edx, DWORD PTR _lpa$[ebp]
  00025	52		 push	 edx
  00026	6a ff		 push	 -1
  00028	8b 45 0c	 mov	 eax, DWORD PTR _lpw$[ebp]
  0002b	50		 push	 eax
  0002c	6a 00		 push	 0
  0002e	8b 4d 14	 mov	 ecx, DWORD PTR _acp$[ebp]
  00031	51		 push	 ecx
  00032	ff 15 00 00 00
	00		 call	 DWORD PTR __imp__WideCharToMultiByte@32
  00038	89 45 fc	 mov	 DWORD PTR _ret$[ebp], eax

; 583  : 	if(ret == 0)

  0003b	83 7d fc 00	 cmp	 DWORD PTR _ret$[ebp], 0
  0003f	75 04		 jne	 SHORT $L24321

; 584  : 	{
; 585  : 		ATLASSERT(FALSE);
; 586  : 		return NULL;

  00041	33 c0		 xor	 eax, eax
  00043	eb 03		 jmp	 SHORT $L24315
$L24321:

; 587  : 	}
; 588  : 	return lpa;

  00045	8b 45 08	 mov	 eax, DWORD PTR _lpa$[ebp]
$L24315:

; 589  : }

  00048	8b e5		 mov	 esp, ebp
  0004a	5d		 pop	 ebp
  0004b	c2 10 00	 ret	 16			; 00000010H
?AtlW2AHelper@@YGPADPADPB_WHI@Z ENDP			; AtlW2AHelper
_TEXT	ENDS
EXTRN	?AfxThrowMemoryException@@YGXXZ:NEAR		; AfxThrowMemoryException
EXTRN	?AfxThrowOleException@@YGXJ@Z:NEAR		; AfxThrowOleException
; Function compile flags: /Odt
; File d:\program files (x86)\microsoft visual studio .net 2003\vc7\atlmfc\include\atlexcept.h
;	COMDAT ?AtlThrow@ATL@@YGXJ@Z
_TEXT	SEGMENT
_hr$ = 8						; size = 4
?AtlThrow@ATL@@YGXJ@Z PROC NEAR				; ATL::AtlThrow, COMDAT

; 61   : {

  00000	55		 push	 ebp
  00001	8b ec		 mov	 ebp, esp

; 62   : 	ATLTRACE(atlTraceException, 0, _T("AtlThrow: hr = 0x%x\n"), hr );
; 63   : #ifdef _AFX
; 64   : 	if( hr == E_OUTOFMEMORY )

  00003	81 7d 08 0e 00
	07 80		 cmp	 DWORD PTR _hr$[ebp], -2147024882 ; 8007000eH
  0000a	75 05		 jne	 SHORT $L24681

; 65   : 	{
; 66   : 		AfxThrowMemoryException();

  0000c	e8 00 00 00 00	 call	 ?AfxThrowMemoryException@@YGXXZ ; AfxThrowMemoryException
$L24681:

; 67   : 	}
; 68   : 	else
; 69   : 	{
; 70   : 		AfxThrowOleException( hr );

  00011	8b 45 08	 mov	 eax, DWORD PTR _hr$[ebp]
  00014	50		 push	 eax
  00015	e8 00 00 00 00	 call	 ?AfxThrowOleException@@YGXJ@Z ; AfxThrowOleException
$L207295:

; 71   : 	}
; 72   : #else
; 73   : 	throw CAtlException( hr );
; 74   : #endif
; 75   : };

  0001a	5d		 pop	 ebp
  0001b	c2 04 00	 ret	 4
?AtlThrow@ATL@@YGXJ@Z ENDP				; ATL::AtlThrow
_TEXT	ENDS
PUBLIC	?GetStringTypeExWFake@ATL@@YGHKKPB_WHPAG@Z	; ATL::GetStringTypeExWFake
EXTRN	__imp__GetStringTypeExW@20:NEAR
; Function compile flags: /Odt
; File d:\program files (x86)\microsoft visual studio .net 2003\vc7\atlmfc\include\cstringt.h
;	COMDAT ?GetStringTypeExWThunk@ATL@@YGHKKPB_WHPAG@Z
_TEXT	SEGMENT
_lcid$ = 8						; size = 4
_dwInfoType$ = 12					; size = 4
_pszSrc$ = 16						; size = 4
_nLength$ = 20						; size = 4
_pwCharType$ = 24					; size = 4
?GetStringTypeExWThunk@ATL@@YGHKKPB_WHPAG@Z PROC NEAR	; ATL::GetStringTypeExWThunk, COMDAT

; 240  : {

  00000	55		 push	 ebp
  00001	8b ec		 mov	 ebp, esp

; 241  : 	_AtlInstallStringThunk(reinterpret_cast<void**>(&_strthunks.pfnGetStringTypeExW), GetStringTypeExWFake, ::GetStringTypeExW);

  00003	a1 00 00 00 00	 mov	 eax, DWORD PTR __imp__GetStringTypeExW@20
  00008	50		 push	 eax
  00009	68 00 00 00 00	 push	 OFFSET FLAT:?GetStringTypeExWFake@ATL@@YGHKKPB_WHPAG@Z ; ATL::GetStringTypeExWFake
  0000e	68 04 00 00 00	 push	 OFFSET FLAT:?_strthunks@ATL@@3U_AtlStringThunks@1@A+4
  00013	e8 00 00 00 00	 call	 ?_AtlInstallStringThunk@ATL@@YAXPAPAXPAX1@Z ; ATL::_AtlInstallStringThunk
  00018	83 c4 0c	 add	 esp, 12			; 0000000cH

; 242  : 
; 243  : 	return _strthunks.pfnGetStringTypeExW(lcid, dwInfoType, pszSrc, nLength, pwCharType);

  0001b	8b 4d 18	 mov	 ecx, DWORD PTR _pwCharType$[ebp]
  0001e	51		 push	 ecx
  0001f	8b 55 14	 mov	 edx, DWORD PTR _nLength$[ebp]
  00022	52		 push	 edx
  00023	8b 45 10	 mov	 eax, DWORD PTR _pszSrc$[ebp]
  00026	50		 push	 eax
  00027	8b 4d 0c	 mov	 ecx, DWORD PTR _dwInfoType$[ebp]
  0002a	51		 push	 ecx
  0002b	8b 55 08	 mov	 edx, DWORD PTR _lcid$[ebp]
  0002e	52		 push	 edx
  0002f	ff 15 04 00 00
	00		 call	 DWORD PTR ?_strthunks@ATL@@3U_AtlStringThunks@1@A+4

; 244  : }

  00035	5d		 pop	 ebp
  00036	c2 14 00	 ret	 20			; 00000014H
?GetStringTypeExWThunk@ATL@@YGHKKPB_WHPAG@Z ENDP	; ATL::GetStringTypeExWThunk
_TEXT	ENDS
EXTRN	__imp__GetStringTypeExA@20:NEAR
;	COMDAT xdata$x
xdata$x	SEGMENT
$T207307 DD	0ffffffffH
	DD	FLAT:$L207302
$T207304 DD	019930520H
	DD	01H
	DD	FLAT:$T207307
	DD	2 DUP(00H)
	DD	2 DUP(00H)
; Function compile flags: /Odt
xdata$x	ENDS
;	COMDAT ?GetStringTypeExWFake@ATL@@YGHKKPB_WHPAG@Z
_TEXT	SEGMENT
$T207301 = -164						; size = 4
_nLengthA$ = -160					; size = 4
_pszA$ = -156						; size = 132
__$ArrayPad$ = -16					; size = 4
__$EHRec$ = -12						; size = 12
__$ReturnAddr$ = 4					; size = 4
_lcid$ = 8						; size = 4
_dwInfoType$ = 12					; size = 4
_pszSrc$ = 16						; size = 4
_nLength$ = 20						; size = 4
_pwCharType$ = 24					; size = 4
?GetStringTypeExWFake@ATL@@YGHKKPB_WHPAG@Z PROC NEAR	; ATL::GetStringTypeExWFake, COMDAT

; 224  : {

  00000	55		 push	 ebp
  00001	8b ec		 mov	 ebp, esp
  00003	6a ff		 push	 -1
  00005	68 00 00 00 00	 push	 __ehhandler$?GetStringTypeExWFake@ATL@@YGHKKPB_WHPAG@Z
  0000a	64 a1 00 00 00
	00		 mov	 eax, DWORD PTR fs:__except_list
  00010	50		 push	 eax
  00011	64 89 25 00 00
	00 00		 mov	 DWORD PTR fs:__except_list, esp
  00018	81 ec 98 00 00
	00		 sub	 esp, 152		; 00000098H
  0001e	a1 00 00 00 00	 mov	 eax, DWORD PTR ___security_cookie
  00023	89 45 f0	 mov	 DWORD PTR __$ArrayPad$[ebp], eax

; 225  : 	int nLengthA;
; 226  : 	CTempBuffer<char> pszA;

  00026	8d 8d 64 ff ff
	ff		 lea	 ecx, DWORD PTR _pszA$[ebp]
  0002c	e8 00 00 00 00	 call	 ??0?$CTempBuffer@D$0IA@VCCRTAllocator@ATL@@@ATL@@QAE@XZ ; ATL::CTempBuffer<char,128,ATL::CCRTAllocator>::CTempBuffer<char,128,ATL::CCRTAllocator>
  00031	c7 45 fc 00 00
	00 00		 mov	 DWORD PTR __$EHRec$[ebp+8], 0

; 227  : 
; 228  : 	nLengthA = ::WideCharToMultiByte(_AtlGetConversionACP(), 0, pszSrc, nLength, NULL, 0, NULL, NULL);

  00038	6a 00		 push	 0
  0003a	6a 00		 push	 0
  0003c	6a 00		 push	 0
  0003e	6a 00		 push	 0
  00040	8b 45 14	 mov	 eax, DWORD PTR _nLength$[ebp]
  00043	50		 push	 eax
  00044	8b 4d 10	 mov	 ecx, DWORD PTR _pszSrc$[ebp]
  00047	51		 push	 ecx
  00048	6a 00		 push	 0
  0004a	e8 00 00 00 00	 call	 ?_AtlGetConversionACP@ATL@@YGIXZ ; ATL::_AtlGetConversionACP
  0004f	50		 push	 eax
  00050	ff 15 00 00 00
	00		 call	 DWORD PTR __imp__WideCharToMultiByte@32
  00056	89 85 60 ff ff
	ff		 mov	 DWORD PTR _nLengthA$[ebp], eax

; 229  : 	pszA.Allocate(nLengthA);

  0005c	8b 95 60 ff ff
	ff		 mov	 edx, DWORD PTR _nLengthA$[ebp]
  00062	52		 push	 edx
  00063	8d 8d 64 ff ff
	ff		 lea	 ecx, DWORD PTR _pszA$[ebp]
  00069	e8 00 00 00 00	 call	 ?Allocate@?$CTempBuffer@D$0IA@VCCRTAllocator@ATL@@@ATL@@QAEPADI@Z ; ATL::CTempBuffer<char,128,ATL::CCRTAllocator>::Allocate

; 230  : 	::WideCharToMultiByte(_AtlGetConversionACP(), 0, pszSrc, nLength, pszA, nLengthA, NULL, NULL);

  0006e	6a 00		 push	 0
  00070	6a 00		 push	 0
  00072	8b 85 60 ff ff
	ff		 mov	 eax, DWORD PTR _nLengthA$[ebp]
  00078	50		 push	 eax
  00079	8d 8d 64 ff ff
	ff		 lea	 ecx, DWORD PTR _pszA$[ebp]
  0007f	e8 00 00 00 00	 call	 ??B?$CTempBuffer@D$0IA@VCCRTAllocator@ATL@@@ATL@@QBEPADXZ ; ATL::CTempBuffer<char,128,ATL::CCRTAllocator>::operator char *
  00084	50		 push	 eax
  00085	8b 4d 14	 mov	 ecx, DWORD PTR _nLength$[ebp]
  00088	51		 push	 ecx
  00089	8b 55 10	 mov	 edx, DWORD PTR _pszSrc$[ebp]
  0008c	52		 push	 edx
  0008d	6a 00		 push	 0
  0008f	e8 00 00 00 00	 call	 ?_AtlGetConversionACP@ATL@@YGIXZ ; ATL::_AtlGetConversionACP
  00094	50		 push	 eax
  00095	ff 15 00 00 00
	00		 call	 DWORD PTR __imp__WideCharToMultiByte@32

; 231  : 
; 232  : 	if (nLength == -1)

  0009b	83 7d 14 ff	 cmp	 DWORD PTR _nLength$[ebp], -1
  0009f	75 0a		 jne	 SHORT $L25804

; 233  : 		nLengthA = -1;

  000a1	c7 85 60 ff ff
	ff ff ff ff ff	 mov	 DWORD PTR _nLengthA$[ebp], -1
$L25804:

; 234  : 
; 235  : 	return ::GetStringTypeExA(lcid, dwInfoType, pszA, nLengthA, pwCharType);

  000ab	8b 45 18	 mov	 eax, DWORD PTR _pwCharType$[ebp]
  000ae	50		 push	 eax
  000af	8b 8d 60 ff ff
	ff		 mov	 ecx, DWORD PTR _nLengthA$[ebp]
  000b5	51		 push	 ecx
  000b6	8d 8d 64 ff ff
	ff		 lea	 ecx, DWORD PTR _pszA$[ebp]
  000bc	e8 00 00 00 00	 call	 ??B?$CTempBuffer@D$0IA@VCCRTAllocator@ATL@@@ATL@@QBEPADXZ ; ATL::CTempBuffer<char,128,ATL::CCRTAllocator>::operator char *
  000c1	50		 push	 eax
  000c2	8b 55 0c	 mov	 edx, DWORD PTR _dwInfoType$[ebp]
  000c5	52		 push	 edx
  000c6	8b 45 08	 mov	 eax, DWORD PTR _lcid$[ebp]
  000c9	50		 push	 eax
  000ca	ff 15 00 00 00
	00		 call	 DWORD PTR __imp__GetStringTypeExA@20
  000d0	89 85 5c ff ff
	ff		 mov	 DWORD PTR $T207301[ebp], eax
  000d6	c7 45 fc ff ff
	ff ff		 mov	 DWORD PTR __$EHRec$[ebp+8], -1
  000dd	8d 8d 64 ff ff
	ff		 lea	 ecx, DWORD PTR _pszA$[ebp]
  000e3	e8 00 00 00 00	 call	 ??1?$CTempBuffer@D$0IA@VCCRTAllocator@ATL@@@ATL@@QAE@XZ ; ATL::CTempBuffer<char,128,ATL::CCRTAllocator>::~CTempBuffer<char,128,ATL::CCRTAllocator>
  000e8	8b 85 5c ff ff
	ff		 mov	 eax, DWORD PTR $T207301[ebp]

; 236  : }

  000ee	8b 4d f4	 mov	 ecx, DWORD PTR __$EHRec$[ebp]
  000f1	64 89 0d 00 00
	00 00		 mov	 DWORD PTR fs:__except_list, ecx
  000f8	8b 4d f0	 mov	 ecx, DWORD PTR __$ArrayPad$[ebp]
  000fb	e8 00 00 00 00	 call	 @__security_check_cookie@4
  00100	8b e5		 mov	 esp, ebp
  00102	5d		 pop	 ebp
  00103	c2 14 00	 ret	 20			; 00000014H
_TEXT	ENDS
;	COMDAT text$x
text$x	SEGMENT
$L207302:
  00000	8d 8d 64 ff ff
	ff		 lea	 ecx, DWORD PTR _pszA$[ebp]
  00006	e9 00 00 00 00	 jmp	 ??1?$CTempBuffer@D$0IA@VCCRTAllocator@ATL@@@ATL@@QAE@XZ ; ATL::CTempBuffer<char,128,ATL::CCRTAllocator>::~CTempBuffer<char,128,ATL::CCRTAllocator>
__ehhandler$?GetStringTypeExWFake@ATL@@YGHKKPB_WHPAG@Z:
  0000b	b8 00 00 00 00	 mov	 eax, OFFSET FLAT:$T207304
  00010	e9 00 00 00 00	 jmp	 ___CxxFrameHandler
text$x	ENDS
?GetStringTypeExWFake@ATL@@YGHKKPB_WHPAG@Z ENDP		; ATL::GetStringTypeExWFake
PUBLIC	?lstrcmpiWFake@ATL@@YGHPB_W0@Z			; ATL::lstrcmpiWFake
EXTRN	__imp__lstrcmpiW@8:NEAR
; Function compile flags: /Odt
;	COMDAT ?lstrcmpiWThunk@ATL@@YGHPB_W0@Z
_TEXT	SEGMENT
_psz1$ = 8						; size = 4
_psz2$ = 12						; size = 4
?lstrcmpiWThunk@ATL@@YGHPB_W0@Z PROC NEAR		; ATL::lstrcmpiWThunk, COMDAT

; 254  : {

  00000	55		 push	 ebp
  00001	8b ec		 mov	 ebp, esp

; 255  : 	_AtlInstallStringThunk(reinterpret_cast<void**>(&_strthunks.pfnlstrcmpiW), lstrcmpiWFake, ::lstrcmpiW);

  00003	a1 00 00 00 00	 mov	 eax, DWORD PTR __imp__lstrcmpiW@8
  00008	50		 push	 eax
  00009	68 00 00 00 00	 push	 OFFSET FLAT:?lstrcmpiWFake@ATL@@YGHPB_W0@Z ; ATL::lstrcmpiWFake
  0000e	68 08 00 00 00	 push	 OFFSET FLAT:?_strthunks@ATL@@3U_AtlStringThunks@1@A+8
  00013	e8 00 00 00 00	 call	 ?_AtlInstallStringThunk@ATL@@YAXPAPAXPAX1@Z ; ATL::_AtlInstallStringThunk
  00018	83 c4 0c	 add	 esp, 12			; 0000000cH

; 256  : 
; 257  : 	return _strthunks.pfnlstrcmpiW(psz1, psz2);

  0001b	8b 4d 0c	 mov	 ecx, DWORD PTR _psz2$[ebp]
  0001e	51		 push	 ecx
  0001f	8b 55 08	 mov	 edx, DWORD PTR _psz1$[ebp]
  00022	52		 push	 edx
  00023	ff 15 08 00 00
	00		 call	 DWORD PTR ?_strthunks@ATL@@3U_AtlStringThunks@1@A+8

; 258  : }

  00029	5d		 pop	 ebp
  0002a	c2 08 00	 ret	 8
?lstrcmpiWThunk@ATL@@YGHPB_W0@Z ENDP			; ATL::lstrcmpiWThunk
_TEXT	ENDS
EXTRN	__imp__lstrcmpiA@8:NEAR
; Function compile flags: /Odt
;	COMDAT ?lstrcmpiWFake@ATL@@YGHPB_W0@Z
_TEXT	SEGMENT
tv91 = -32						; size = 4
tv94 = -28						; size = 4
tv76 = -24						; size = 4
tv79 = -20						; size = 4
__acp$ = -12						; size = 4
__lpw$ = -8						; size = 4
__convert$ = -4						; size = 4
_psz1$ = 8						; size = 4
_psz2$ = 12						; size = 4
?lstrcmpiWFake@ATL@@YGHPB_W0@Z PROC NEAR		; ATL::lstrcmpiWFake, COMDAT

; 247  : {

  00000	55		 push	 ebp
  00001	8b ec		 mov	 ebp, esp
  00003	83 ec 20	 sub	 esp, 32			; 00000020H

; 248  : 	USES_CONVERSION;

  00006	e8 00 00 00 00	 call	 ?_AtlGetConversionACP@ATL@@YGIXZ ; ATL::_AtlGetConversionACP
  0000b	89 45 f4	 mov	 DWORD PTR __acp$[ebp], eax

; 249  : 
; 250  : 	return ::lstrcmpiA(W2A(psz1), W2A(psz2));

  0000e	8b 45 0c	 mov	 eax, DWORD PTR _psz2$[ebp]
  00011	89 45 f8	 mov	 DWORD PTR __lpw$[ebp], eax
  00014	83 7d f8 00	 cmp	 DWORD PTR __lpw$[ebp], 0
  00018	75 09		 jne	 SHORT $L207314
  0001a	c7 45 ec 00 00
	00 00		 mov	 DWORD PTR tv79[ebp], 0
  00021	eb 3a		 jmp	 SHORT $L207315
$L207314:
  00023	8b 4d f8	 mov	 ecx, DWORD PTR __lpw$[ebp]
  00026	51		 push	 ecx
  00027	ff 15 00 00 00
	00		 call	 DWORD PTR __imp__lstrlenW@4
  0002d	8d 54 00 02	 lea	 edx, DWORD PTR [eax+eax+2]
  00031	89 55 fc	 mov	 DWORD PTR __convert$[ebp], edx
  00034	8b 45 fc	 mov	 eax, DWORD PTR __convert$[ebp]
  00037	83 c0 03	 add	 eax, 3
  0003a	83 e0 fc	 and	 eax, -4			; fffffffcH
  0003d	e8 00 00 00 00	 call	 __alloca_probe
  00042	89 65 e8	 mov	 DWORD PTR tv76[ebp], esp
  00045	8b 45 f4	 mov	 eax, DWORD PTR __acp$[ebp]
  00048	50		 push	 eax
  00049	8b 4d fc	 mov	 ecx, DWORD PTR __convert$[ebp]
  0004c	51		 push	 ecx
  0004d	8b 55 f8	 mov	 edx, DWORD PTR __lpw$[ebp]
  00050	52		 push	 edx
  00051	8b 45 e8	 mov	 eax, DWORD PTR tv76[ebp]
  00054	50		 push	 eax
  00055	e8 00 00 00 00	 call	 ?AtlW2AHelper@@YGPADPADPB_WHI@Z ; AtlW2AHelper
  0005a	89 45 ec	 mov	 DWORD PTR tv79[ebp], eax
$L207315:
  0005d	8b 4d 08	 mov	 ecx, DWORD PTR _psz1$[ebp]
  00060	89 4d f8	 mov	 DWORD PTR __lpw$[ebp], ecx
  00063	83 7d f8 00	 cmp	 DWORD PTR __lpw$[ebp], 0
  00067	75 09		 jne	 SHORT $L207316
  00069	c7 45 e4 00 00
	00 00		 mov	 DWORD PTR tv94[ebp], 0
  00070	eb 3a		 jmp	 SHORT $L207317
$L207316:
  00072	8b 55 f8	 mov	 edx, DWORD PTR __lpw$[ebp]
  00075	52		 push	 edx
  00076	ff 15 00 00 00
	00		 call	 DWORD PTR __imp__lstrlenW@4
  0007c	8d 44 00 02	 lea	 eax, DWORD PTR [eax+eax+2]
  00080	89 45 fc	 mov	 DWORD PTR __convert$[ebp], eax
  00083	8b 45 fc	 mov	 eax, DWORD PTR __convert$[ebp]
  00086	83 c0 03	 add	 eax, 3
  00089	83 e0 fc	 and	 eax, -4			; fffffffcH
  0008c	e8 00 00 00 00	 call	 __alloca_probe
  00091	89 65 e0	 mov	 DWORD PTR tv91[ebp], esp
  00094	8b 4d f4	 mov	 ecx, DWORD PTR __acp$[ebp]
  00097	51		 push	 ecx
  00098	8b 55 fc	 mov	 edx, DWORD PTR __convert$[ebp]
  0009b	52		 push	 edx
  0009c	8b 45 f8	 mov	 eax, DWORD PTR __lpw$[ebp]
  0009f	50		 push	 eax
  000a0	8b 4d e0	 mov	 ecx, DWORD PTR tv91[ebp]
  000a3	51		 push	 ecx
  000a4	e8 00 00 00 00	 call	 ?AtlW2AHelper@@YGPADPADPB_WHI@Z ; AtlW2AHelper
  000a9	89 45 e4	 mov	 DWORD PTR tv94[ebp], eax
$L207317:
  000ac	8b 55 ec	 mov	 edx, DWORD PTR tv79[ebp]
  000af	52		 push	 edx
  000b0	8b 45 e4	 mov	 eax, DWORD PTR tv94[ebp]
  000b3	50		 push	 eax
  000b4	ff 15 00 00 00
	00		 call	 DWORD PTR __imp__lstrcmpiA@8

; 251  : }

  000ba	8d 65 e0	 lea	 esp, DWORD PTR [ebp-32]
  000bd	8b e5		 mov	 esp, ebp
  000bf	5d		 pop	 ebp
  000c0	c2 08 00	 ret	 8
?lstrcmpiWFake@ATL@@YGHPB_W0@Z ENDP			; ATL::lstrcmpiWFake
_TEXT	ENDS
PUBLIC	?CharLowerWFake@ATL@@YGPA_WPA_W@Z		; ATL::CharLowerWFake
EXTRN	__imp__CharLowerW@4:NEAR
; Function compile flags: /Odt
;	COMDAT ?CharLowerWThunk@ATL@@YGPA_WPA_W@Z
_TEXT	SEGMENT
_psz$ = 8						; size = 4
?CharLowerWThunk@ATL@@YGPA_WPA_W@Z PROC NEAR		; ATL::CharLowerWThunk, COMDAT

; 273  : {

  00000	55		 push	 ebp
  00001	8b ec		 mov	 ebp, esp

; 274  : 	_AtlInstallStringThunk(reinterpret_cast<void**>(&_strthunks.pfnCharLowerW), CharLowerWFake, ::CharLowerW);

  00003	a1 00 00 00 00	 mov	 eax, DWORD PTR __imp__CharLowerW@4
  00008	50		 push	 eax
  00009	68 00 00 00 00	 push	 OFFSET FLAT:?CharLowerWFake@ATL@@YGPA_WPA_W@Z ; ATL::CharLowerWFake
  0000e	68 0c 00 00 00	 push	 OFFSET FLAT:?_strthunks@ATL@@3U_AtlStringThunks@1@A+12
  00013	e8 00 00 00 00	 call	 ?_AtlInstallStringThunk@ATL@@YAXPAPAXPAX1@Z ; ATL::_AtlInstallStringThunk
  00018	83 c4 0c	 add	 esp, 12			; 0000000cH

; 275  : 
; 276  : 	return _strthunks.pfnCharLowerW(psz);

  0001b	8b 4d 08	 mov	 ecx, DWORD PTR _psz$[ebp]
  0001e	51		 push	 ecx
  0001f	ff 15 0c 00 00
	00		 call	 DWORD PTR ?_strthunks@ATL@@3U_AtlStringThunks@1@A+12

; 277  : }

  00025	5d		 pop	 ebp
  00026	c2 04 00	 ret	 4
?CharLowerWThunk@ATL@@YGPA_WPA_W@Z ENDP			; ATL::CharLowerWThunk
_TEXT	ENDS
PUBLIC	?AtlA2WHelper@@YGPA_WPA_WPBDHI@Z		; AtlA2WHelper
EXTRN	__imp__lstrlenA@4:NEAR
EXTRN	__imp__CharLowerA@4:NEAR
EXTRN	__imp__wcscpy:NEAR
; Function compile flags: /Odt
;	COMDAT ?CharLowerWFake@ATL@@YGPA_WPA_W@Z
_TEXT	SEGMENT
tv90 = -36						; size = 4
tv94 = -32						; size = 4
tv75 = -28						; size = 4
tv78 = -24						; size = 4
__lpa$ = -20						; size = 4
__acp$ = -16						; size = 4
_pszA$ = -12						; size = 4
__lpw$ = -8						; size = 4
__convert$ = -4						; size = 4
_psz$ = 8						; size = 4
?CharLowerWFake@ATL@@YGPA_WPA_W@Z PROC NEAR		; ATL::CharLowerWFake, COMDAT

; 261  : {

  00000	55		 push	 ebp
  00001	8b ec		 mov	 ebp, esp
  00003	83 ec 24	 sub	 esp, 36			; 00000024H

; 262  : 	USES_CONVERSION;

  00006	e8 00 00 00 00	 call	 ?_AtlGetConversionACP@ATL@@YGIXZ ; ATL::_AtlGetConversionACP
  0000b	89 45 f0	 mov	 DWORD PTR __acp$[ebp], eax

; 263  : 	LPSTR pszA;
; 264  : 
; 265  : 	pszA = W2A(psz);

  0000e	8b 45 08	 mov	 eax, DWORD PTR _psz$[ebp]
  00011	89 45 f8	 mov	 DWORD PTR __lpw$[ebp], eax
  00014	83 7d f8 00	 cmp	 DWORD PTR __lpw$[ebp], 0
  00018	75 09		 jne	 SHORT $L207322
  0001a	c7 45 e8 00 00
	00 00		 mov	 DWORD PTR tv78[ebp], 0
  00021	eb 3a		 jmp	 SHORT $L207323
$L207322:
  00023	8b 4d f8	 mov	 ecx, DWORD PTR __lpw$[ebp]
  00026	51		 push	 ecx
  00027	ff 15 00 00 00
	00		 call	 DWORD PTR __imp__lstrlenW@4
  0002d	8d 54 00 02	 lea	 edx, DWORD PTR [eax+eax+2]
  00031	89 55 fc	 mov	 DWORD PTR __convert$[ebp], edx
  00034	8b 45 fc	 mov	 eax, DWORD PTR __convert$[ebp]
  00037	83 c0 03	 add	 eax, 3
  0003a	83 e0 fc	 and	 eax, -4			; fffffffcH
  0003d	e8 00 00 00 00	 call	 __alloca_probe
  00042	89 65 e4	 mov	 DWORD PTR tv75[ebp], esp
  00045	8b 45 f0	 mov	 eax, DWORD PTR __acp$[ebp]
  00048	50		 push	 eax
  00049	8b 4d fc	 mov	 ecx, DWORD PTR __convert$[ebp]
  0004c	51		 push	 ecx
  0004d	8b 55 f8	 mov	 edx, DWORD PTR __lpw$[ebp]
  00050	52		 push	 edx
  00051	8b 45 e4	 mov	 eax, DWORD PTR tv75[ebp]
  00054	50		 push	 eax
  00055	e8 00 00 00 00	 call	 ?AtlW2AHelper@@YGPADPADPB_WHI@Z ; AtlW2AHelper
  0005a	89 45 e8	 mov	 DWORD PTR tv78[ebp], eax
$L207323:
  0005d	8b 4d e8	 mov	 ecx, DWORD PTR tv78[ebp]
  00060	89 4d f4	 mov	 DWORD PTR _pszA$[ebp], ecx

; 266  : 	::CharLowerA(pszA);

  00063	8b 55 f4	 mov	 edx, DWORD PTR _pszA$[ebp]
  00066	52		 push	 edx
  00067	ff 15 00 00 00
	00		 call	 DWORD PTR __imp__CharLowerA@4

; 267  : 	wcscpy(psz, A2W(pszA));

  0006d	8b 45 f4	 mov	 eax, DWORD PTR _pszA$[ebp]
  00070	89 45 ec	 mov	 DWORD PTR __lpa$[ebp], eax
  00073	83 7d ec 00	 cmp	 DWORD PTR __lpa$[ebp], 0
  00077	75 09		 jne	 SHORT $L207324
  00079	c7 45 e0 00 00
	00 00		 mov	 DWORD PTR tv94[ebp], 0
  00080	eb 3b		 jmp	 SHORT $L207325
$L207324:
  00082	8b 4d ec	 mov	 ecx, DWORD PTR __lpa$[ebp]
  00085	51		 push	 ecx
  00086	ff 15 00 00 00
	00		 call	 DWORD PTR __imp__lstrlenA@4
  0008c	83 c0 01	 add	 eax, 1
  0008f	89 45 fc	 mov	 DWORD PTR __convert$[ebp], eax
  00092	8b 45 fc	 mov	 eax, DWORD PTR __convert$[ebp]
  00095	d1 e0		 shl	 eax, 1
  00097	83 c0 03	 add	 eax, 3
  0009a	83 e0 fc	 and	 eax, -4			; fffffffcH
  0009d	e8 00 00 00 00	 call	 __alloca_probe
  000a2	89 65 dc	 mov	 DWORD PTR tv90[ebp], esp
  000a5	8b 55 f0	 mov	 edx, DWORD PTR __acp$[ebp]
  000a8	52		 push	 edx
  000a9	8b 45 fc	 mov	 eax, DWORD PTR __convert$[ebp]
  000ac	50		 push	 eax
  000ad	8b 4d ec	 mov	 ecx, DWORD PTR __lpa$[ebp]
  000b0	51		 push	 ecx
  000b1	8b 55 dc	 mov	 edx, DWORD PTR tv90[ebp]
  000b4	52		 push	 edx
  000b5	e8 00 00 00 00	 call	 ?AtlA2WHelper@@YGPA_WPA_WPBDHI@Z ; AtlA2WHelper
  000ba	89 45 e0	 mov	 DWORD PTR tv94[ebp], eax
$L207325:
  000bd	8b 45 e0	 mov	 eax, DWORD PTR tv94[ebp]
  000c0	50		 push	 eax
  000c1	8b 4d 08	 mov	 ecx, DWORD PTR _psz$[ebp]
  000c4	51		 push	 ecx
  000c5	ff 15 00 00 00
	00		 call	 DWORD PTR __imp__wcscpy
  000cb	83 c4 08	 add	 esp, 8

; 268  : 
; 269  : 	return psz;

  000ce	8b 45 08	 mov	 eax, DWORD PTR _psz$[ebp]

; 270  : }

  000d1	8d 65 dc	 lea	 esp, DWORD PTR [ebp-36]
  000d4	8b e5		 mov	 esp, ebp
  000d6	5d		 pop	 ebp
  000d7	c2 04 00	 ret	 4
?CharLowerWFake@ATL@@YGPA_WPA_W@Z ENDP			; ATL::CharLowerWFake
; Function compile flags: /Odt
; File d:\program files (x86)\microsoft visual studio .net 2003\vc7\atlmfc\include\atlconv.h
_TEXT	ENDS
;	COMDAT ?AtlA2WHelper@@YGPA_WPA_WPBDHI@Z
_TEXT	SEGMENT
_ret$ = -4						; size = 4
_lpw$ = 8						; size = 4
_lpa$ = 12						; size = 4
_nChars$ = 16						; size = 4
_acp$ = 20						; size = 4
?AtlA2WHelper@@YGPA_WPA_WPBDHI@Z PROC NEAR		; AtlA2WHelper, COMDAT

; 554  : {

  00000	55		 push	 ebp
  00001	8b ec		 mov	 ebp, esp
  00003	51		 push	 ecx

; 555  : 	ATLASSERT(lpa != NULL);
; 556  : 	ATLASSERT(lpw != NULL);
; 557  : 	if (lpw == NULL || lpa == NULL)

  00004	83 7d 08 00	 cmp	 DWORD PTR _lpw$[ebp], 0
  00008	74 06		 je	 SHORT $L24306
  0000a	83 7d 0c 00	 cmp	 DWORD PTR _lpa$[ebp], 0
  0000e	75 04		 jne	 SHORT $L24305
$L24306:

; 558  : 		return NULL;

  00010	33 c0		 xor	 eax, eax
  00012	eb 32		 jmp	 SHORT $L24302
$L24305:

; 559  : 	// verify that no illegal character present
; 560  : 	// since lpw was allocated based on the size of lpa
; 561  : 	// don't worry about the number of chars
; 562  : 	lpw[0] = '\0';

  00014	8b 45 08	 mov	 eax, DWORD PTR _lpw$[ebp]
  00017	66 c7 00 00 00	 mov	 WORD PTR [eax], 0

; 563  : 	int ret = MultiByteToWideChar(acp, 0, lpa, -1, lpw, nChars);

  0001c	8b 4d 10	 mov	 ecx, DWORD PTR _nChars$[ebp]
  0001f	51		 push	 ecx
  00020	8b 55 08	 mov	 edx, DWORD PTR _lpw$[ebp]
  00023	52		 push	 edx
  00024	6a ff		 push	 -1
  00026	8b 45 0c	 mov	 eax, DWORD PTR _lpa$[ebp]
  00029	50		 push	 eax
  0002a	6a 00		 push	 0
  0002c	8b 4d 14	 mov	 ecx, DWORD PTR _acp$[ebp]
  0002f	51		 push	 ecx
  00030	ff 15 00 00 00
	00		 call	 DWORD PTR __imp__MultiByteToWideChar@24
  00036	89 45 fc	 mov	 DWORD PTR _ret$[ebp], eax

; 564  : 	if(ret == 0)

  00039	83 7d fc 00	 cmp	 DWORD PTR _ret$[ebp], 0
  0003d	75 04		 jne	 SHORT $L24308

; 565  : 	{
; 566  : 		ATLASSERT(FALSE);
; 567  : 		return NULL;

  0003f	33 c0		 xor	 eax, eax
  00041	eb 03		 jmp	 SHORT $L24302
$L24308:

; 568  : 	}		
; 569  : 	return lpw;

  00043	8b 45 08	 mov	 eax, DWORD PTR _lpw$[ebp]
$L24302:

; 570  : }

  00046	8b e5		 mov	 esp, ebp
  00048	5d		 pop	 ebp
  00049	c2 10 00	 ret	 16			; 00000010H
?AtlA2WHelper@@YGPA_WPA_WPBDHI@Z ENDP			; AtlA2WHelper
_TEXT	ENDS
PUBLIC	?CharUpperWFake@ATL@@YGPA_WPA_W@Z		; ATL::CharUpperWFake
EXTRN	__imp__CharUpperW@4:NEAR
; Function compile flags: /Odt
; File d:\program files (x86)\microsoft visual studio .net 2003\vc7\atlmfc\include\cstringt.h
;	COMDAT ?CharUpperWThunk@ATL@@YGPA_WPA_W@Z
_TEXT	SEGMENT
_psz$ = 8						; size = 4
?CharUpperWThunk@ATL@@YGPA_WPA_W@Z PROC NEAR		; ATL::CharUpperWThunk, COMDAT

; 292  : {

  00000	55		 push	 ebp
  00001	8b ec		 mov	 ebp, esp

; 293  : 	_AtlInstallStringThunk(reinterpret_cast<void**>(&_strthunks.pfnCharUpperW), CharUpperWFake, ::CharUpperW);

  00003	a1 00 00 00 00	 mov	 eax, DWORD PTR __imp__CharUpperW@4
  00008	50		 push	 eax
  00009	68 00 00 00 00	 push	 OFFSET FLAT:?CharUpperWFake@ATL@@YGPA_WPA_W@Z ; ATL::CharUpperWFake
  0000e	68 10 00 00 00	 push	 OFFSET FLAT:?_strthunks@ATL@@3U_AtlStringThunks@1@A+16
  00013	e8 00 00 00 00	 call	 ?_AtlInstallStringThunk@ATL@@YAXPAPAXPAX1@Z ; ATL::_AtlInstallStringThunk
  00018	83 c4 0c	 add	 esp, 12			; 0000000cH

; 294  : 
; 295  : 	return _strthunks.pfnCharUpperW(psz);

  0001b	8b 4d 08	 mov	 ecx, DWORD PTR _psz$[ebp]
  0001e	51		 push	 ecx
  0001f	ff 15 10 00 00
	00		 call	 DWORD PTR ?_strthunks@ATL@@3U_AtlStringThunks@1@A+16

; 296  : }

  00025	5d		 pop	 ebp
  00026	c2 04 00	 ret	 4
?CharUpperWThunk@ATL@@YGPA_WPA_W@Z ENDP			; ATL::CharUpperWThunk
_TEXT	ENDS
EXTRN	__imp__CharUpperA@4:NEAR
; Function compile flags: /Odt
;	COMDAT ?CharUpperWFake@ATL@@YGPA_WPA_W@Z
_TEXT	SEGMENT
tv90 = -36						; size = 4
tv94 = -32						; size = 4
tv75 = -28						; size = 4
tv78 = -24						; size = 4
__lpa$ = -20						; size = 4
__acp$ = -16						; size = 4
_pszA$ = -12						; size = 4
__lpw$ = -8						; size = 4
__convert$ = -4						; size = 4
_psz$ = 8						; size = 4
?CharUpperWFake@ATL@@YGPA_WPA_W@Z PROC NEAR		; ATL::CharUpperWFake, COMDAT

; 280  : {

  00000	55		 push	 ebp
  00001	8b ec		 mov	 ebp, esp
  00003	83 ec 24	 sub	 esp, 36			; 00000024H

; 281  : 	USES_CONVERSION;

  00006	e8 00 00 00 00	 call	 ?_AtlGetConversionACP@ATL@@YGIXZ ; ATL::_AtlGetConversionACP
  0000b	89 45 f0	 mov	 DWORD PTR __acp$[ebp], eax

; 282  : 	LPSTR pszA;
; 283  : 
; 284  : 	pszA = W2A(psz);

  0000e	8b 45 08	 mov	 eax, DWORD PTR _psz$[ebp]
  00011	89 45 f8	 mov	 DWORD PTR __lpw$[ebp], eax
  00014	83 7d f8 00	 cmp	 DWORD PTR __lpw$[ebp], 0
  00018	75 09		 jne	 SHORT $L207332
  0001a	c7 45 e8 00 00
	00 00		 mov	 DWORD PTR tv78[ebp], 0
  00021	eb 3a		 jmp	 SHORT $L207333
$L207332:
  00023	8b 4d f8	 mov	 ecx, DWORD PTR __lpw$[ebp]
  00026	51		 push	 ecx
  00027	ff 15 00 00 00
	00		 call	 DWORD PTR __imp__lstrlenW@4
  0002d	8d 54 00 02	 lea	 edx, DWORD PTR [eax+eax+2]
  00031	89 55 fc	 mov	 DWORD PTR __convert$[ebp], edx
  00034	8b 45 fc	 mov	 eax, DWORD PTR __convert$[ebp]
  00037	83 c0 03	 add	 eax, 3
  0003a	83 e0 fc	 and	 eax, -4			; fffffffcH
  0003d	e8 00 00 00 00	 call	 __alloca_probe
  00042	89 65 e4	 mov	 DWORD PTR tv75[ebp], esp
  00045	8b 45 f0	 mov	 eax, DWORD PTR __acp$[ebp]
  00048	50		 push	 eax
  00049	8b 4d fc	 mov	 ecx, DWORD PTR __convert$[ebp]
  0004c	51		 push	 ecx
  0004d	8b 55 f8	 mov	 edx, DWORD PTR __lpw$[ebp]
  00050	52		 push	 edx
  00051	8b 45 e4	 mov	 eax, DWORD PTR tv75[ebp]
  00054	50		 push	 eax
  00055	e8 00 00 00 00	 call	 ?AtlW2AHelper@@YGPADPADPB_WHI@Z ; AtlW2AHelper
  0005a	89 45 e8	 mov	 DWORD PTR tv78[ebp], eax
$L207333:
  0005d	8b 4d e8	 mov	 ecx, DWORD PTR tv78[ebp]
  00060	89 4d f4	 mov	 DWORD PTR _pszA$[ebp], ecx

; 285  : 	::CharUpperA(pszA);

  00063	8b 55 f4	 mov	 edx, DWORD PTR _pszA$[ebp]
  00066	52		 push	 edx
  00067	ff 15 00 00 00
	00		 call	 DWORD PTR __imp__CharUpperA@4

; 286  : 	wcscpy(psz, A2W(pszA));

  0006d	8b 45 f4	 mov	 eax, DWORD PTR _pszA$[ebp]
  00070	89 45 ec	 mov	 DWORD PTR __lpa$[ebp], eax
  00073	83 7d ec 00	 cmp	 DWORD PTR __lpa$[ebp], 0
  00077	75 09		 jne	 SHORT $L207334
  00079	c7 45 e0 00 00
	00 00		 mov	 DWORD PTR tv94[ebp], 0
  00080	eb 3b		 jmp	 SHORT $L207335
$L207334:
  00082	8b 4d ec	 mov	 ecx, DWORD PTR __lpa$[ebp]
  00085	51		 push	 ecx
  00086	ff 15 00 00 00
	00		 call	 DWORD PTR __imp__lstrlenA@4
  0008c	83 c0 01	 add	 eax, 1
  0008f	89 45 fc	 mov	 DWORD PTR __convert$[ebp], eax
  00092	8b 45 fc	 mov	 eax, DWORD PTR __convert$[ebp]
  00095	d1 e0		 shl	 eax, 1
  00097	83 c0 03	 add	 eax, 3
  0009a	83 e0 fc	 and	 eax, -4			; fffffffcH
  0009d	e8 00 00 00 00	 call	 __alloca_probe
  000a2	89 65 dc	 mov	 DWORD PTR tv90[ebp], esp
  000a5	8b 55 f0	 mov	 edx, DWORD PTR __acp$[ebp]
  000a8	52		 push	 edx
  000a9	8b 45 fc	 mov	 eax, DWORD PTR __convert$[ebp]
  000ac	50		 push	 eax
  000ad	8b 4d ec	 mov	 ecx, DWORD PTR __lpa$[ebp]
  000b0	51		 push	 ecx
  000b1	8b 55 dc	 mov	 edx, DWORD PTR tv90[ebp]
  000b4	52		 push	 edx
  000b5	e8 00 00 00 00	 call	 ?AtlA2WHelper@@YGPA_WPA_WPBDHI@Z ; AtlA2WHelper
  000ba	89 45 e0	 mov	 DWORD PTR tv94[ebp], eax
$L207335:
  000bd	8b 45 e0	 mov	 eax, DWORD PTR tv94[ebp]
  000c0	50		 push	 eax
  000c1	8b 4d 08	 mov	 ecx, DWORD PTR _psz$[ebp]
  000c4	51		 push	 ecx
  000c5	ff 15 00 00 00
	00		 call	 DWORD PTR __imp__wcscpy
  000cb	83 c4 08	 add	 esp, 8

; 287  : 
; 288  : 	return psz;

  000ce	8b 45 08	 mov	 eax, DWORD PTR _psz$[ebp]

; 289  : }

  000d1	8d 65 dc	 lea	 esp, DWORD PTR [ebp-36]
  000d4	8b e5		 mov	 esp, ebp
  000d6	5d		 pop	 ebp
  000d7	c2 04 00	 ret	 4
?CharUpperWFake@ATL@@YGPA_WPA_W@Z ENDP			; ATL::CharUpperWFake
_TEXT	ENDS
PUBLIC	?GetThisClass@GamePanelWnd@@SGPAUCRuntimeClass@@XZ ; GamePanelWnd::GetThisClass
; Function compile flags: /Odt
; File d:\boxgit\playbox\playbox\dev\prj\playbox\src\module\gamepanel\gamepanelwnd.cpp
_TEXT	SEGMENT
?GetThisClass@GamePanelWnd@@SGPAUCRuntimeClass@@XZ PROC NEAR ; GamePanelWnd::GetThisClass

; 23   : IMPLEMENT_DYNAMIC(GamePanelWnd, CBasicWnd)

  00000	55		 push	 ebp
  00001	8b ec		 mov	 ebp, esp
  00003	b8 00 00 00 00	 mov	 eax, OFFSET FLAT:?classGamePanelWnd@GamePanelWnd@@2UCRuntimeClass@@B ; GamePanelWnd::classGamePanelWnd
  00008	5d		 pop	 ebp
  00009	c3		 ret	 0
?GetThisClass@GamePanelWnd@@SGPAUCRuntimeClass@@XZ ENDP	; GamePanelWnd::GetThisClass
_TEXT	ENDS
PUBLIC	?GetRuntimeClass@GamePanelWnd@@UBEPAUCRuntimeClass@@XZ ; GamePanelWnd::GetRuntimeClass
; Function compile flags: /Odt
_TEXT	SEGMENT
_this$ = -4						; size = 4
?GetRuntimeClass@GamePanelWnd@@UBEPAUCRuntimeClass@@XZ PROC NEAR ; GamePanelWnd::GetRuntimeClass
; _this$ = ecx

; 23   : IMPLEMENT_DYNAMIC(GamePanelWnd, CBasicWnd)

  00010	55		 push	 ebp
  00011	8b ec		 mov	 ebp, esp
  00013	51		 push	 ecx
  00014	89 4d fc	 mov	 DWORD PTR _this$[ebp], ecx
  00017	b8 00 00 00 00	 mov	 eax, OFFSET FLAT:?classGamePanelWnd@GamePanelWnd@@2UCRuntimeClass@@B ; GamePanelWnd::classGamePanelWnd
  0001c	8b e5		 mov	 esp, ebp
  0001e	5d		 pop	 ebp
  0001f	c3		 ret	 0
?GetRuntimeClass@GamePanelWnd@@UBEPAUCRuntimeClass@@XZ ENDP ; GamePanelWnd::GetRuntimeClass
_TEXT	ENDS
PUBLIC	??0SWF_GAME@@QAE@XZ				; SWF_GAME::SWF_GAME
PUBLIC	??1SWF_GAME@@QAE@XZ				; SWF_GAME::~SWF_GAME
PUBLIC	??0IHttpDownObserver@@QAE@XZ			; IHttpDownObserver::IHttpDownObserver
PUBLIC	??1IHttpDownObserver@@UAE@XZ			; IHttpDownObserver::~IHttpDownObserver
PUBLIC	??0GamePanelWnd@@QAE@XZ				; GamePanelWnd::GamePanelWnd
PUBLIC	?GetMessageMap@GamePanelWnd@@MBEPBUAFX_MSGMAP@@XZ ; GamePanelWnd::GetMessageMap
PUBLIC	?ILayoutChangeOb_InitFinished@GamePanelWnd@@UAEXXZ ; GamePanelWnd::ILayoutChangeOb_InitFinished
PUBLIC	?ILayoutChangeOb_SkinChanged@GamePanelWnd@@UAEXV?$basic_string@DU?$char_traits@D@std@@V?$allocator@D@2@@std@@0@Z ; GamePanelWnd::ILayoutChangeOb_SkinChanged
PUBLIC	?ILayoutChangeOb_UpdateLayout@GamePanelWnd@@UAEXPAUHWND__@@@Z ; GamePanelWnd::ILayoutChangeOb_UpdateLayout
PUBLIC	?IPanelChangeOb_ToFullScreen@GamePanelWnd@@UAEXPAVCWnd@@@Z ; GamePanelWnd::IPanelChangeOb_ToFullScreen
PUBLIC	?IPanelChangeOb_ExitFullScreen@GamePanelWnd@@UAEXPAVCWnd@@@Z ; GamePanelWnd::IPanelChangeOb_ExitFullScreen
PUBLIC	?HttpDownOb_DownStart@GamePanelWnd@@UAEXAAV?$basic_string@DU?$char_traits@D@std@@V?$allocator@D@2@@std@@@Z ; GamePanelWnd::HttpDownOb_DownStart
PUBLIC	?HttpDownOb_DownFinish@GamePanelWnd@@UAEXAAV?$basic_string@DU?$char_traits@D@std@@V?$allocator@D@2@@std@@0@Z ; GamePanelWnd::HttpDownOb_DownFinish
PUBLIC	?HttpDownOb_DownFailed@GamePanelWnd@@UAEXAAV?$basic_string@DU?$char_traits@D@std@@V?$allocator@D@2@@std@@W4HTTP_DOWN_FAILED_REASON@@@Z ; GamePanelWnd::HttpDownOb_DownFailed
PUBLIC	?HttpDownOb_DownProgress@GamePanelWnd@@UAEXAAV?$basic_string@DU?$char_traits@D@std@@V?$allocator@D@2@@std@@NII@Z ; GamePanelWnd::HttpDownOb_DownProgress
PUBLIC	??0CRect@@QAE@XZ				; CRect::CRect
PUBLIC	??_7GamePanelWnd@@6BCBasicWnd@@@		; GamePanelWnd::`vftable'
PUBLIC	??_7GamePanelWnd@@6BILayoutChangeObserver@@@	; GamePanelWnd::`vftable'
PUBLIC	??_7GamePanelWnd@@6BIHttpDownObserver@@@	; GamePanelWnd::`vftable'
PUBLIC	??_7GamePanelWnd@@6BIPanelChangeObserver@@@	; GamePanelWnd::`vftable'
PUBLIC	??_GGamePanelWnd@@UAEPAXI@Z			; GamePanelWnd::`scalar deleting destructor'
PUBLIC	??_R1A@?0A@A@CObject@@8				; CObject::`RTTI Base Class Descriptor at (0,-1,0,0)'
PUBLIC	??_R0?AVCObject@@@8				; CObject `RTTI Type Descriptor'
PUBLIC	??_R4GamePanelWnd@@6BCBasicWnd@@@		; GamePanelWnd::`RTTI Complete Object Locator'
PUBLIC	??_R0?AVGamePanelWnd@@@8			; GamePanelWnd `RTTI Type Descriptor'
PUBLIC	??_R1A@?0A@A@CWnd@@8				; CWnd::`RTTI Base Class Descriptor at (0,-1,0,0)'
PUBLIC	??_R3GamePanelWnd@@8				; GamePanelWnd::`RTTI Class Hierarchy Descriptor'
PUBLIC	??_R0?AVCWnd@@@8				; CWnd `RTTI Type Descriptor'
PUBLIC	??_R2GamePanelWnd@@8				; GamePanelWnd::`RTTI Base Class Array'
PUBLIC	??_R1A@?0A@A@CCmdTarget@@8			; CCmdTarget::`RTTI Base Class Descriptor at (0,-1,0,0)'
PUBLIC	??_R1A@?0A@A@GamePanelWnd@@8			; GamePanelWnd::`RTTI Base Class Descriptor at (0,-1,0,0)'
PUBLIC	??_R0?AVCCmdTarget@@@8				; CCmdTarget `RTTI Type Descriptor'
PUBLIC	??_R1A@?0A@A@CBasicWnd@@8			; CBasicWnd::`RTTI Base Class Descriptor at (0,-1,0,0)'
PUBLIC	??_R0?AVCBasicWnd@@@8				; CBasicWnd `RTTI Type Descriptor'
PUBLIC	??_R1FE@?0A@A@ILayoutChangeObserver@@8		; ILayoutChangeObserver::`RTTI Base Class Descriptor at (84,-1,0,0)'
PUBLIC	??_R0?AVILayoutChangeObserver@@@8		; ILayoutChangeObserver `RTTI Type Descriptor'
PUBLIC	??_R1FE@?0A@1IMessageObserver@@8		; IMessageObserver::`RTTI Base Class Descriptor at (84,-1,0,2)'
PUBLIC	??_R1FI@?0A@A@IHttpDownObserver@@8		; IHttpDownObserver::`RTTI Base Class Descriptor at (88,-1,0,0)'
PUBLIC	??_R0?AVIHttpDownObserver@@@8			; IHttpDownObserver `RTTI Type Descriptor'
PUBLIC	??_R1FI@?0A@1IMessageObserver@@8		; IMessageObserver::`RTTI Base Class Descriptor at (88,-1,0,2)'
PUBLIC	??_R1FM@?0A@A@IPanelChangeObserver@@8		; IPanelChangeObserver::`RTTI Base Class Descriptor at (92,-1,0,0)'
PUBLIC	??_R0?AVIPanelChangeObserver@@@8		; IPanelChangeObserver `RTTI Type Descriptor'
PUBLIC	??_R1FM@?0A@1IMessageObserver@@8		; IMessageObserver::`RTTI Base Class Descriptor at (92,-1,0,2)'
PUBLIC	??_EGamePanelWnd@@WFE@AEPAXI@Z			; [thunk]:GamePanelWnd::`vector deleting destructor'
PUBLIC	??_R4GamePanelWnd@@6BILayoutChangeObserver@@@	; GamePanelWnd::`RTTI Complete Object Locator'
PUBLIC	??_EGamePanelWnd@@WFI@AEPAXI@Z			; [thunk]:GamePanelWnd::`vector deleting destructor'
PUBLIC	??_R4GamePanelWnd@@6BIHttpDownObserver@@@	; GamePanelWnd::`RTTI Complete Object Locator'
PUBLIC	??_EGamePanelWnd@@WFM@AEPAXI@Z			; [thunk]:GamePanelWnd::`vector deleting destructor'
PUBLIC	??_R4GamePanelWnd@@6BIPanelChangeObserver@@@	; GamePanelWnd::`RTTI Complete Object Locator'
PUBLIC	??0CShockwaveFlash@@QAE@XZ			; CShockwaveFlash::CShockwaveFlash
PUBLIC	??2CObject@@SGPAXI@Z				; CObject::operator new
PUBLIC	??_R0?AVIMessageObserver@@@8			; IMessageObserver `RTTI Type Descriptor'
PUBLIC	??3CObject@@SGXPAX@Z				; CObject::operator delete
PUBLIC	?Serialize@CObject@@UAEXAAVCArchive@@@Z		; CObject::Serialize
PUBLIC	?AssertValid@CObject@@UBEXXZ			; CObject::AssertValid
PUBLIC	?Dump@CObject@@UBEXAAVCDumpContext@@@Z		; CObject::Dump
PUBLIC	?ILayoutChangeOb_LayerChanged@ILayoutChangeObserver@@UAEXV?$basic_string@DU?$char_traits@D@std@@V?$allocator@D@2@@std@@00@Z ; ILayoutChangeObserver::ILayoutChangeOb_LayerChanged
PUBLIC	?ILayoutChangeOb_PaneChanged@ILayoutChangeObserver@@UAEXV?$basic_string@DU?$char_traits@D@std@@V?$allocator@D@2@@std@@0@Z ; ILayoutChangeObserver::ILayoutChangeOb_PaneChanged
PUBLIC	?ILayoutChangeOb_ColorChanged@ILayoutChangeObserver@@UAEXXZ ; ILayoutChangeObserver::ILayoutChangeOb_ColorChanged
PUBLIC	?ILayoutChangeOb_ColorChanging@ILayoutChangeObserver@@UAEXXZ ; ILayoutChangeObserver::ILayoutChangeOb_ColorChanging
PUBLIC	?ILayoutChangeOb_InitBegin@ILayoutChangeObserver@@UAEXXZ ; ILayoutChangeObserver::ILayoutChangeOb_InitBegin
PUBLIC	??0ILayoutChangeObserver@@QAE@XZ		; ILayoutChangeObserver::ILayoutChangeObserver
PUBLIC	??1ILayoutChangeObserver@@UAE@XZ		; ILayoutChangeObserver::~ILayoutChangeObserver
PUBLIC	?IPanelChangeOb_WindowMax@IPanelChangeObserver@@UAEXXZ ; IPanelChangeObserver::IPanelChangeOb_WindowMax
PUBLIC	?IPanelChangeOb_WindowMin@IPanelChangeObserver@@UAEXXZ ; IPanelChangeObserver::IPanelChangeOb_WindowMin
PUBLIC	?IPanelChangeOb_WindowRestore@IPanelChangeObserver@@UAEXXZ ; IPanelChangeObserver::IPanelChangeOb_WindowRestore
PUBLIC	?IPanelChangeOb_WindowClose@IPanelChangeObserver@@UAEXXZ ; IPanelChangeObserver::IPanelChangeOb_WindowClose
PUBLIC	??0IPanelChangeObserver@@QAE@XZ			; IPanelChangeObserver::IPanelChangeObserver
PUBLIC	??1IPanelChangeObserver@@UAE@XZ			; IPanelChangeObserver::~IPanelChangeObserver
PUBLIC	?DoDataExchange@CWnd@@MAEXPAVCDataExchange@@@Z	; CWnd::DoDataExchange
PUBLIC	?BeginModalState@CWnd@@UAEXXZ			; CWnd::BeginModalState
PUBLIC	?EndModalState@CWnd@@UAEXXZ			; CWnd::EndModalState
EXTRN	?CreateControlContainer@CWnd@@MAEHPAPAVCOleControlContainer@@@Z:NEAR ; CWnd::CreateControlContainer
EXTRN	?CreateControlSite@CWnd@@MAEHPAVCOleControlContainer@@PAPAVCOleControlSite@@IABU_GUID@@@Z:NEAR ; CWnd::CreateControlSite
EXTRN	?SetOccDialogInfo@CWnd@@MAEHPAU_AFX_OCC_DIALOG_INFO@@@Z:NEAR ; CWnd::SetOccDialogInfo
EXTRN	?OnToolHitTest@CWnd@@UBEHVCPoint@@PAUtagTOOLINFOA@@@Z:NEAR ; CWnd::OnToolHitTest
EXTRN	??_EGamePanelWnd@@UAEPAXI@Z:NEAR		; GamePanelWnd::`vector deleting destructor'
EXTRN	?GetScrollBarCtrl@CWnd@@UBEPAVCScrollBar@@H@Z:NEAR ; CWnd::GetScrollBarCtrl
EXTRN	??0CxSkinButton@@QAE@XZ:NEAR			; CxSkinButton::CxSkinButton
EXTRN	??0DownPercentWnd@@QAE@XZ:NEAR			; DownPercentWnd::DownPercentWnd
EXTRN	?WinHelpA@CWnd@@UAEXKI@Z:NEAR			; CWnd::WinHelpA
EXTRN	?HtmlHelpA@CWnd@@UAEXKI@Z:NEAR			; CWnd::HtmlHelpA
EXTRN	?WinHelpInternal@CWnd@@UAEXKI@Z:NEAR		; CWnd::WinHelpInternal
EXTRN	?ContinueModal@CWnd@@UAEHXZ:NEAR		; CWnd::ContinueModal
EXTRN	?EndModalLoop@CWnd@@UAEXH@Z:NEAR		; CWnd::EndModalLoop
EXTRN	??0CxStaticText@@QAE@XZ:NEAR			; CxStaticText::CxStaticText
EXTRN	?GetInterfaceMap@CWnd@@MBEPBUAFX_INTERFACEMAP@@XZ:NEAR ; CWnd::GetInterfaceMap
EXTRN	??0CGameCtrlWnd@@QAE@XZ:NEAR			; CGameCtrlWnd::CGameCtrlWnd
EXTRN	?EnsureStdObj@CWnd@@UAEJXZ:NEAR			; CWnd::EnsureStdObj
EXTRN	?get_accParent@CWnd@@UAEJPAPAUIDispatch@@@Z:NEAR ; CWnd::get_accParent
EXTRN	?get_accChildCount@CWnd@@UAEJPAJ@Z:NEAR		; CWnd::get_accChildCount
EXTRN	?OnCmdMsg@CCmdTarget@@UAEHIHPAXPAUAFX_CMDHANDLERINFO@@@Z:NEAR ; CCmdTarget::OnCmdMsg
EXTRN	?get_accChild@CWnd@@UAEJUtagVARIANT@@PAPAUIDispatch@@@Z:NEAR ; CWnd::get_accChild
EXTRN	?IsInvokeAllowed@CCmdTarget@@UAEHJ@Z:NEAR	; CCmdTarget::IsInvokeAllowed
EXTRN	?get_accName@CWnd@@UAEJUtagVARIANT@@PAPA_W@Z:NEAR ; CWnd::get_accName
EXTRN	?get_accValue@CWnd@@UAEJUtagVARIANT@@PAPA_W@Z:NEAR ; CWnd::get_accValue
EXTRN	?get_accDescription@CWnd@@UAEJUtagVARIANT@@PAPA_W@Z:NEAR ; CWnd::get_accDescription
EXTRN	?GetDispatchIID@CCmdTarget@@UAEHPAU_GUID@@@Z:NEAR ; CCmdTarget::GetDispatchIID
EXTRN	?GetTypeInfoCount@CCmdTarget@@UAEIXZ:NEAR	; CCmdTarget::GetTypeInfoCount
EXTRN	?GetTypeLibCache@CCmdTarget@@UAEPAVCTypeLibCache@@XZ:NEAR ; CCmdTarget::GetTypeLibCache
EXTRN	?get_accRole@CWnd@@UAEJUtagVARIANT@@PAU2@@Z:NEAR ; CWnd::get_accRole
EXTRN	?GetTypeLib@CCmdTarget@@UAEJKPAPAUITypeLib@@@Z:NEAR ; CCmdTarget::GetTypeLib
EXTRN	?get_accState@CWnd@@UAEJUtagVARIANT@@PAU2@@Z:NEAR ; CWnd::get_accState
EXTRN	?get_accHelp@CWnd@@UAEJUtagVARIANT@@PAPA_W@Z:NEAR ; CWnd::get_accHelp
EXTRN	?get_accHelpTopic@CWnd@@UAEJPAPA_WUtagVARIANT@@PAJ@Z:NEAR ; CWnd::get_accHelpTopic
EXTRN	?get_accKeyboardShortcut@CWnd@@UAEJUtagVARIANT@@PAPA_W@Z:NEAR ; CWnd::get_accKeyboardShortcut
EXTRN	?get_accFocus@CWnd@@UAEJPAUtagVARIANT@@@Z:NEAR	; CWnd::get_accFocus
EXTRN	?get_accSelection@CWnd@@UAEJPAUtagVARIANT@@@Z:NEAR ; CWnd::get_accSelection
EXTRN	?get_accDefaultAction@CWnd@@UAEJUtagVARIANT@@PAPA_W@Z:NEAR ; CWnd::get_accDefaultAction
EXTRN	?GetCommandMap@CCmdTarget@@MBEPBUAFX_OLECMDMAP@@XZ:NEAR ; CCmdTarget::GetCommandMap
EXTRN	?accSelect@CWnd@@UAEJJUtagVARIANT@@@Z:NEAR	; CWnd::accSelect
EXTRN	?accLocation@CWnd@@UAEJPAJ000UtagVARIANT@@@Z:NEAR ; CWnd::accLocation
EXTRN	?GetDispatchMap@CCmdTarget@@MBEPBUAFX_DISPMAP@@XZ:NEAR ; CCmdTarget::GetDispatchMap
EXTRN	?accNavigate@CWnd@@UAEJJUtagVARIANT@@PAU2@@Z:NEAR ; CWnd::accNavigate
EXTRN	?accHitTest@CWnd@@UAEJJJPAUtagVARIANT@@@Z:NEAR	; CWnd::accHitTest
EXTRN	?GetConnectionMap@CCmdTarget@@MBEPBUAFX_CONNECTIONMAP@@XZ:NEAR ; CCmdTarget::GetConnectionMap
EXTRN	?accDoDefaultAction@CWnd@@UAEJUtagVARIANT@@@Z:NEAR ; CWnd::accDoDefaultAction
EXTRN	?put_accName@CWnd@@UAEJUtagVARIANT@@PA_W@Z:NEAR	; CWnd::put_accName
EXTRN	?put_accValue@CWnd@@UAEJUtagVARIANT@@PA_W@Z:NEAR ; CWnd::put_accValue
EXTRN	?SetProxy@CWnd@@UAEJPAUIAccessibleProxy@@@Z:NEAR ; CWnd::SetProxy
EXTRN	?CreateAccessibleProxy@CWnd@@UAEJIJPAJ@Z:NEAR	; CWnd::CreateAccessibleProxy
EXTRN	?GetEventSinkMap@CCmdTarget@@MBEPBUAFX_EVENTSINKMAP@@XZ:NEAR ; CCmdTarget::GetEventSinkMap
EXTRN	?OnCreateAggregates@CCmdTarget@@UAEHXZ:NEAR	; CCmdTarget::OnCreateAggregates
EXTRN	?OnCommand@CWnd@@MAEHIJ@Z:NEAR			; CWnd::OnCommand
EXTRN	?GetInterfaceHook@CCmdTarget@@UAEPAUIUnknown@@PBX@Z:NEAR ; CCmdTarget::GetInterfaceHook
EXTRN	?OnNotify@CWnd@@MAEHIJPAJ@Z:NEAR		; CWnd::OnNotify
EXTRN	?GetExtraConnectionPoints@CCmdTarget@@MAEHPAVCPtrArray@@@Z:NEAR ; CCmdTarget::GetExtraConnectionPoints
EXTRN	?GetConnectionHook@CCmdTarget@@MAEPAUIConnectionPoint@@ABU_GUID@@@Z:NEAR ; CCmdTarget::GetConnectionHook
EXTRN	??0CBasicWnd@@QAE@XZ:NEAR			; CBasicWnd::CBasicWnd
EXTRN	??1CBasicWnd@@UAE@XZ:NEAR			; CBasicWnd::~CBasicWnd
EXTRN	?PreSubclassWindow@CWnd@@UAEXXZ:NEAR		; CWnd::PreSubclassWindow
EXTRN	?Create@CWnd@@UAEHPBD0KABUtagRECT@@PAV1@IPAUCCreateContext@@@Z:NEAR ; CWnd::Create
EXTRN	__imp_??0?$basic_string@DU?$char_traits@D@std@@V?$allocator@D@2@@std@@QAE@XZ:NEAR
EXTRN	?CreateEx@CWnd@@UAEHKPBD0KHHHHPAUHWND__@@PAUHMENU__@@PAX@Z:NEAR ; CWnd::CreateEx
EXTRN	?CreateEx@CWnd@@UAEHKPBD0KABUtagRECT@@PAV1@IPAX@Z:NEAR ; CWnd::CreateEx
EXTRN	?DestroyWindow@CWnd@@UAEHXZ:NEAR		; CWnd::DestroyWindow
EXTRN	?PreCreateWindow@CWnd@@UAEHAAUtagCREATESTRUCTA@@@Z:NEAR ; CWnd::PreCreateWindow
EXTRN	?CalcWindowRect@CWnd@@UAEXPAUtagRECT@@I@Z:NEAR	; CWnd::CalcWindowRect
EXTRN	__imp_??1?$basic_string@DU?$char_traits@D@std@@V?$allocator@D@2@@std@@QAE@XZ:NEAR
EXTRN	?GetSuperWndProcAddr@CWnd@@MAEPAP6GJPAUHWND__@@IIJ@ZXZ:NEAR ; CWnd::GetSuperWndProcAddr
EXTRN	??_7type_info@@6B@:QWORD			; type_info::`vftable'
EXTRN	?PreTranslateMessage@CWnd@@UAEHPAUtagMSG@@@Z:NEAR ; CWnd::PreTranslateMessage
EXTRN	?OnAmbientProperty@CWnd@@UAEHPAVCOleControlSite@@JPAUtagVARIANT@@@Z:NEAR ; CWnd::OnAmbientProperty
EXTRN	?WindowProc@CWnd@@MAEJIIJ@Z:NEAR		; CWnd::WindowProc
EXTRN	?OnWndMsg@CWnd@@MAEHIIJPAJ@Z:NEAR		; CWnd::OnWndMsg
EXTRN	?DefWindowProcA@CWnd@@MAEJIIJ@Z:NEAR		; CWnd::DefWindowProcA
EXTRN	?PostNcDestroy@CWnd@@MAEXXZ:NEAR		; CWnd::PostNcDestroy
EXTRN	?OnChildNotify@CWnd@@MAEHIIJPAJ@Z:NEAR		; CWnd::OnChildNotify
EXTRN	?AfxGetMessageManager@@YAPAVIMessageManager@@XZ:NEAR ; AfxGetMessageManager
EXTRN	?CheckAutoCenter@CWnd@@UAEHXZ:NEAR		; CWnd::CheckAutoCenter
EXTRN	?IsFrameWnd@CWnd@@UBEHXZ:NEAR			; CWnd::IsFrameWnd
EXTRN	?OnFinalRelease@CWnd@@UAEXXZ:NEAR		; CWnd::OnFinalRelease
xdata$x	SEGMENT
$T207381 DD	0ffffffffH
	DD	FLAT:$L207366
	DD	00H
	DD	FLAT:$L207367
	DD	01H
	DD	FLAT:$L207368
	DD	02H
	DD	FLAT:$L207369
	DD	03H
	DD	FLAT:$L207370
	DD	04H
	DD	FLAT:$L207371
	DD	05H
	DD	FLAT:$L207372
	DD	06H
	DD	FLAT:$L207373
	DD	06H
	DD	FLAT:$L207374
	DD	06H
	DD	FLAT:$L207375
	DD	06H
	DD	FLAT:$L207376
	DD	06H
	DD	FLAT:$L207377
$T207379 DD	019930520H
	DD	0cH
	DD	FLAT:$T207381
	DD	2 DUP(00H)
	DD	2 DUP(00H)
xdata$x	ENDS
;	COMDAT ??_7GamePanelWnd@@6BCBasicWnd@@@
CONST	SEGMENT
??_7GamePanelWnd@@6BCBasicWnd@@@ DD FLAT:??_R4GamePanelWnd@@6BCBasicWnd@@@ ; GamePanelWnd::`vftable'
	DD	FLAT:?GetRuntimeClass@GamePanelWnd@@UBEPAUCRuntimeClass@@XZ
	DD	FLAT:??_EGamePanelWnd@@UAEPAXI@Z
	DD	FLAT:?Serialize@CObject@@UAEXAAVCArchive@@@Z
	DD	FLAT:?AssertValid@CObject@@UBEXXZ
	DD	FLAT:?Dump@CObject@@UBEXAAVCDumpContext@@@Z
	DD	FLAT:?OnCmdMsg@CCmdTarget@@UAEHIHPAXPAUAFX_CMDHANDLERINFO@@@Z
	DD	FLAT:?OnFinalRelease@CWnd@@UAEXXZ
	DD	FLAT:?IsInvokeAllowed@CCmdTarget@@UAEHJ@Z
	DD	FLAT:?GetDispatchIID@CCmdTarget@@UAEHPAU_GUID@@@Z
	DD	FLAT:?GetTypeInfoCount@CCmdTarget@@UAEIXZ
	DD	FLAT:?GetTypeLibCache@CCmdTarget@@UAEPAVCTypeLibCache@@XZ
	DD	FLAT:?GetTypeLib@CCmdTarget@@UAEJKPAPAUITypeLib@@@Z
	DD	FLAT:?GetMessageMap@GamePanelWnd@@MBEPBUAFX_MSGMAP@@XZ
	DD	FLAT:?GetCommandMap@CCmdTarget@@MBEPBUAFX_OLECMDMAP@@XZ
	DD	FLAT:?GetDispatchMap@CCmdTarget@@MBEPBUAFX_DISPMAP@@XZ
	DD	FLAT:?GetConnectionMap@CCmdTarget@@MBEPBUAFX_CONNECTIONMAP@@XZ
	DD	FLAT:?GetInterfaceMap@CWnd@@MBEPBUAFX_INTERFACEMAP@@XZ
	DD	FLAT:?GetEventSinkMap@CCmdTarget@@MBEPBUAFX_EVENTSINKMAP@@XZ
	DD	FLAT:?OnCreateAggregates@CCmdTarget@@UAEHXZ
	DD	FLAT:?GetInterfaceHook@CCmdTarget@@UAEPAUIUnknown@@PBX@Z
	DD	FLAT:?GetExtraConnectionPoints@CCmdTarget@@MAEHPAVCPtrArray@@@Z
	DD	FLAT:?GetConnectionHook@CCmdTarget@@MAEPAUIConnectionPoint@@ABU_GUID@@@Z
	DD	FLAT:?PreSubclassWindow@CWnd@@UAEXXZ
	DD	FLAT:?Create@CWnd@@UAEHPBD0KABUtagRECT@@PAV1@IPAUCCreateContext@@@Z
	DD	FLAT:?CreateEx@CWnd@@UAEHKPBD0KABUtagRECT@@PAV1@IPAX@Z
	DD	FLAT:?CreateEx@CWnd@@UAEHKPBD0KHHHHPAUHWND__@@PAUHMENU__@@PAX@Z
	DD	FLAT:?DestroyWindow@CWnd@@UAEHXZ
	DD	FLAT:?PreCreateWindow@CWnd@@UAEHAAUtagCREATESTRUCTA@@@Z
	DD	FLAT:?CalcWindowRect@CWnd@@UAEXPAUtagRECT@@I@Z
	DD	FLAT:?OnToolHitTest@CWnd@@UBEHVCPoint@@PAUtagTOOLINFOA@@@Z
	DD	FLAT:?GetScrollBarCtrl@CWnd@@UBEPAVCScrollBar@@H@Z
	DD	FLAT:?WinHelpA@CWnd@@UAEXKI@Z
	DD	FLAT:?HtmlHelpA@CWnd@@UAEXKI@Z
	DD	FLAT:?WinHelpInternal@CWnd@@UAEXKI@Z
	DD	FLAT:?ContinueModal@CWnd@@UAEHXZ
	DD	FLAT:?EndModalLoop@CWnd@@UAEXH@Z
	DD	FLAT:?EnsureStdObj@CWnd@@UAEJXZ
	DD	FLAT:?get_accParent@CWnd@@UAEJPAPAUIDispatch@@@Z
	DD	FLAT:?get_accChildCount@CWnd@@UAEJPAJ@Z
	DD	FLAT:?get_accChild@CWnd@@UAEJUtagVARIANT@@PAPAUIDispatch@@@Z
	DD	FLAT:?get_accName@CWnd@@UAEJUtagVARIANT@@PAPA_W@Z
	DD	FLAT:?get_accValue@CWnd@@UAEJUtagVARIANT@@PAPA_W@Z
	DD	FLAT:?get_accDescription@CWnd@@UAEJUtagVARIANT@@PAPA_W@Z
	DD	FLAT:?get_accRole@CWnd@@UAEJUtagVARIANT@@PAU2@@Z
	DD	FLAT:?get_accState@CWnd@@UAEJUtagVARIANT@@PAU2@@Z
	DD	FLAT:?get_accHelp@CWnd@@UAEJUtagVARIANT@@PAPA_W@Z
	DD	FLAT:?get_accHelpTopic@CWnd@@UAEJPAPA_WUtagVARIANT@@PAJ@Z
	DD	FLAT:?get_accKeyboardShortcut@CWnd@@UAEJUtagVARIANT@@PAPA_W@Z
	DD	FLAT:?get_accFocus@CWnd@@UAEJPAUtagVARIANT@@@Z
	DD	FLAT:?get_accSelection@CWnd@@UAEJPAUtagVARIANT@@@Z
	DD	FLAT:?get_accDefaultAction@CWnd@@UAEJUtagVARIANT@@PAPA_W@Z
	DD	FLAT:?accSelect@CWnd@@UAEJJUtagVARIANT@@@Z
	DD	FLAT:?accLocation@CWnd@@UAEJPAJ000UtagVARIANT@@@Z
	DD	FLAT:?accNavigate@CWnd@@UAEJJUtagVARIANT@@PAU2@@Z
	DD	FLAT:?accHitTest@CWnd@@UAEJJJPAUtagVARIANT@@@Z
	DD	FLAT:?accDoDefaultAction@CWnd@@UAEJUtagVARIANT@@@Z
	DD	FLAT:?put_accName@CWnd@@UAEJUtagVARIANT@@PA_W@Z
	DD	FLAT:?put_accValue@CWnd@@UAEJUtagVARIANT@@PA_W@Z
	DD	FLAT:?SetProxy@CWnd@@UAEJPAUIAccessibleProxy@@@Z
	DD	FLAT:?CreateAccessibleProxy@CWnd@@UAEJIJPAJ@Z
	DD	FLAT:?OnCommand@CWnd@@MAEHIJ@Z
	DD	FLAT:?OnNotify@CWnd@@MAEHIJPAJ@Z
	DD	FLAT:?GetSuperWndProcAddr@CWnd@@MAEPAP6GJPAUHWND__@@IIJ@ZXZ
	DD	FLAT:?DoDataExchange@CWnd@@MAEXPAVCDataExchange@@@Z
	DD	FLAT:?BeginModalState@CWnd@@UAEXXZ
	DD	FLAT:?EndModalState@CWnd@@UAEXXZ
	DD	FLAT:?PreTranslateMessage@CWnd@@UAEHPAUtagMSG@@@Z
	DD	FLAT:?OnAmbientProperty@CWnd@@UAEHPAVCOleControlSite@@JPAUtagVARIANT@@@Z
	DD	FLAT:?WindowProc@CWnd@@MAEJIIJ@Z
	DD	FLAT:?OnWndMsg@CWnd@@MAEHIIJPAJ@Z
	DD	FLAT:?DefWindowProcA@CWnd@@MAEJIIJ@Z
	DD	FLAT:?PostNcDestroy@CWnd@@MAEXXZ
	DD	FLAT:?OnChildNotify@CWnd@@MAEHIIJPAJ@Z
	DD	FLAT:?CheckAutoCenter@CWnd@@UAEHXZ
	DD	FLAT:?IsFrameWnd@CWnd@@UBEHXZ
	DD	FLAT:?CreateControlContainer@CWnd@@MAEHPAPAVCOleControlContainer@@@Z
	DD	FLAT:?CreateControlSite@CWnd@@MAEHPAVCOleControlContainer@@PAPAVCOleControlSite@@IABU_GUID@@@Z
	DD	FLAT:?SetOccDialogInfo@CWnd@@MAEHPAU_AFX_OCC_DIALOG_INFO@@@Z
CONST	ENDS
;	COMDAT ??_7GamePanelWnd@@6BILayoutChangeObserver@@@
CONST	SEGMENT
??_7GamePanelWnd@@6BILayoutChangeObserver@@@ DD FLAT:??_R4GamePanelWnd@@6BILayoutChangeObserver@@@ ; GamePanelWnd::`vftable'
	DD	FLAT:??_EGamePanelWnd@@WFE@AEPAXI@Z
	DD	FLAT:?ILayoutChangeOb_LayerChanged@ILayoutChangeObserver@@UAEXV?$basic_string@DU?$char_traits@D@std@@V?$allocator@D@2@@std@@00@Z
	DD	FLAT:?ILayoutChangeOb_PaneChanged@ILayoutChangeObserver@@UAEXV?$basic_string@DU?$char_traits@D@std@@V?$allocator@D@2@@std@@0@Z
	DD	FLAT:?ILayoutChangeOb_SkinChanged@GamePanelWnd@@UAEXV?$basic_string@DU?$char_traits@D@std@@V?$allocator@D@2@@std@@0@Z
	DD	FLAT:?ILayoutChangeOb_ColorChanged@ILayoutChangeObserver@@UAEXXZ
	DD	FLAT:?ILayoutChangeOb_ColorChanging@ILayoutChangeObserver@@UAEXXZ
	DD	FLAT:?ILayoutChangeOb_UpdateLayout@GamePanelWnd@@UAEXPAUHWND__@@@Z
	DD	FLAT:?ILayoutChangeOb_InitFinished@GamePanelWnd@@UAEXXZ
	DD	FLAT:?ILayoutChangeOb_InitBegin@ILayoutChangeObserver@@UAEXXZ
CONST	ENDS
;	COMDAT ??_7GamePanelWnd@@6BIHttpDownObserver@@@
CONST	SEGMENT
??_7GamePanelWnd@@6BIHttpDownObserver@@@ DD FLAT:??_R4GamePanelWnd@@6BIHttpDownObserver@@@ ; GamePanelWnd::`vftable'
	DD	FLAT:??_EGamePanelWnd@@WFI@AEPAXI@Z
	DD	FLAT:?HttpDownOb_DownStart@GamePanelWnd@@UAEXAAV?$basic_string@DU?$char_traits@D@std@@V?$allocator@D@2@@std@@@Z
	DD	FLAT:?HttpDownOb_DownFinish@GamePanelWnd@@UAEXAAV?$basic_string@DU?$char_traits@D@std@@V?$allocator@D@2@@std@@0@Z
	DD	FLAT:?HttpDownOb_DownFailed@GamePanelWnd@@UAEXAAV?$basic_string@DU?$char_traits@D@std@@V?$allocator@D@2@@std@@W4HTTP_DOWN_FAILED_REASON@@@Z
	DD	FLAT:?HttpDownOb_DownProgress@GamePanelWnd@@UAEXAAV?$basic_string@DU?$char_traits@D@std@@V?$allocator@D@2@@std@@NII@Z
CONST	ENDS
;	COMDAT ??_7GamePanelWnd@@6BIPanelChangeObserver@@@
CONST	SEGMENT
??_7GamePanelWnd@@6BIPanelChangeObserver@@@ DD FLAT:??_R4GamePanelWnd@@6BIPanelChangeObserver@@@ ; GamePanelWnd::`vftable'
	DD	FLAT:??_EGamePanelWnd@@WFM@AEPAXI@Z
	DD	FLAT:?IPanelChangeOb_WindowMax@IPanelChangeObserver@@UAEXXZ
	DD	FLAT:?IPanelChangeOb_WindowMin@IPanelChangeObserver@@UAEXXZ
	DD	FLAT:?IPanelChangeOb_WindowRestore@IPanelChangeObserver@@UAEXXZ
	DD	FLAT:?IPanelChangeOb_WindowClose@IPanelChangeObserver@@UAEXXZ
	DD	FLAT:?IPanelChangeOb_ToFullScreen@GamePanelWnd@@UAEXPAVCWnd@@@Z
	DD	FLAT:?IPanelChangeOb_ExitFullScreen@GamePanelWnd@@UAEXPAVCWnd@@@Z
CONST	ENDS
;	COMDAT ??_R4GamePanelWnd@@6BCBasicWnd@@@
rdata$r	SEGMENT
??_R4GamePanelWnd@@6BCBasicWnd@@@ DD 00H		; GamePanelWnd::`RTTI Complete Object Locator'
	DD	00H
	DD	00H
	DD	FLAT:??_R0?AVGamePanelWnd@@@8
	DD	FLAT:??_R3GamePanelWnd@@8
rdata$r	ENDS
;	COMDAT ??_R0?AVGamePanelWnd@@@8
_DATA	SEGMENT
??_R0?AVGamePanelWnd@@@8 DD FLAT:??_7type_info@@6B@	; GamePanelWnd `RTTI Type Descriptor'
	DD	00H
	DB	'.?AVGamePanelWnd@@', 00H
_DATA	ENDS
;	COMDAT ??_R3GamePanelWnd@@8
rdata$r	SEGMENT
??_R3GamePanelWnd@@8 DD 00H				; GamePanelWnd::`RTTI Class Hierarchy Descriptor'
	DD	05H
	DD	0bH
	DD	FLAT:??_R2GamePanelWnd@@8
rdata$r	ENDS
;	COMDAT ??_R2GamePanelWnd@@8
rdata$r	SEGMENT
??_R2GamePanelWnd@@8 DD FLAT:??_R1A@?0A@A@GamePanelWnd@@8 ; GamePanelWnd::`RTTI Base Class Array'
	DD	FLAT:??_R1A@?0A@A@CBasicWnd@@8
	DD	FLAT:??_R1A@?0A@A@CWnd@@8
	DD	FLAT:??_R1A@?0A@A@CCmdTarget@@8
	DD	FLAT:??_R1A@?0A@A@CObject@@8
	DD	FLAT:??_R1FE@?0A@A@ILayoutChangeObserver@@8
	DD	FLAT:??_R1FE@?0A@1IMessageObserver@@8
	DD	FLAT:??_R1FI@?0A@A@IHttpDownObserver@@8
	DD	FLAT:??_R1FI@?0A@1IMessageObserver@@8
	DD	FLAT:??_R1FM@?0A@A@IPanelChangeObserver@@8
	DD	FLAT:??_R1FM@?0A@1IMessageObserver@@8
rdata$r	ENDS
;	COMDAT ??_R1A@?0A@A@GamePanelWnd@@8
rdata$r	SEGMENT
??_R1A@?0A@A@GamePanelWnd@@8 DD FLAT:??_R0?AVGamePanelWnd@@@8 ; GamePanelWnd::`RTTI Base Class Descriptor at (0,-1,0,0)'
	DD	0aH
	DD	00H
	DD	0ffffffffH
	DD	00H
	DD	00H
rdata$r	ENDS
;	COMDAT ??_R1A@?0A@A@CBasicWnd@@8
rdata$r	SEGMENT
??_R1A@?0A@A@CBasicWnd@@8 DD FLAT:??_R0?AVCBasicWnd@@@8	; CBasicWnd::`RTTI Base Class Descriptor at (0,-1,0,0)'
	DD	03H
	DD	00H
	DD	0ffffffffH
	DD	00H
	DD	00H
rdata$r	ENDS
;	COMDAT ??_R0?AVCBasicWnd@@@8
_DATA	SEGMENT
??_R0?AVCBasicWnd@@@8 DD FLAT:??_7type_info@@6B@	; CBasicWnd `RTTI Type Descriptor'
	DD	00H
	DB	'.?AVCBasicWnd@@', 00H
_DATA	ENDS
;	COMDAT ??_R1A@?0A@A@CWnd@@8
rdata$r	SEGMENT
??_R1A@?0A@A@CWnd@@8 DD FLAT:??_R0?AVCWnd@@@8		; CWnd::`RTTI Base Class Descriptor at (0,-1,0,0)'
	DD	02H
	DD	00H
	DD	0ffffffffH
	DD	00H
	DD	00H
rdata$r	ENDS
;	COMDAT ??_R0?AVCWnd@@@8
_DATA	SEGMENT
??_R0?AVCWnd@@@8 DD FLAT:??_7type_info@@6B@		; CWnd `RTTI Type Descriptor'
	DD	00H
	DB	'.?AVCWnd@@', 00H
_DATA	ENDS
;	COMDAT ??_R1A@?0A@A@CCmdTarget@@8
rdata$r	SEGMENT
??_R1A@?0A@A@CCmdTarget@@8 DD FLAT:??_R0?AVCCmdTarget@@@8 ; CCmdTarget::`RTTI Base Class Descriptor at (0,-1,0,0)'
	DD	01H
	DD	00H
	DD	0ffffffffH
	DD	00H
	DD	00H
rdata$r	ENDS
;	COMDAT ??_R0?AVCCmdTarget@@@8
_DATA	SEGMENT
??_R0?AVCCmdTarget@@@8 DD FLAT:??_7type_info@@6B@	; CCmdTarget `RTTI Type Descriptor'
	DD	00H
	DB	'.?AVCCmdTarget@@', 00H
_DATA	ENDS
;	COMDAT ??_R1A@?0A@A@CObject@@8
rdata$r	SEGMENT
??_R1A@?0A@A@CObject@@8 DD FLAT:??_R0?AVCObject@@@8	; CObject::`RTTI Base Class Descriptor at (0,-1,0,0)'
	DD	00H
	DD	00H
	DD	0ffffffffH
	DD	00H
	DD	00H
rdata$r	ENDS
;	COMDAT ??_R0?AVCObject@@@8
_DATA	SEGMENT
??_R0?AVCObject@@@8 DD FLAT:??_7type_info@@6B@		; CObject `RTTI Type Descriptor'
	DD	00H
	DB	'.?AVCObject@@', 00H
_DATA	ENDS
;	COMDAT ??_R1FE@?0A@A@ILayoutChangeObserver@@8
rdata$r	SEGMENT
??_R1FE@?0A@A@ILayoutChangeObserver@@8 DD FLAT:??_R0?AVILayoutChangeObserver@@@8 ; ILayoutChangeObserver::`RTTI Base Class Descriptor at (84,-1,0,0)'
	DD	01H
	DD	054H
	DD	0ffffffffH
	DD	00H
	DD	00H
rdata$r	ENDS
;	COMDAT ??_R0?AVILayoutChangeObserver@@@8
_DATA	SEGMENT
??_R0?AVILayoutChangeObserver@@@8 DD FLAT:??_7type_info@@6B@ ; ILayoutChangeObserver `RTTI Type Descriptor'
	DD	00H
	DB	'.?AVILayoutChangeObserver@@', 00H
_DATA	ENDS
;	COMDAT ??_R1FE@?0A@1IMessageObserver@@8
rdata$r	SEGMENT
??_R1FE@?0A@1IMessageObserver@@8 DD FLAT:??_R0?AVIMessageObserver@@@8 ; IMessageObserver::`RTTI Base Class Descriptor at (84,-1,0,2)'
	DD	00H
	DD	054H
	DD	0ffffffffH
	DD	00H
	DD	02H
rdata$r	ENDS
;	COMDAT ??_R0?AVIMessageObserver@@@8
_DATA	SEGMENT
??_R0?AVIMessageObserver@@@8 DD FLAT:??_7type_info@@6B@	; IMessageObserver `RTTI Type Descriptor'
	DD	00H
	DB	'.?AVIMessageObserver@@', 00H
	ORG $-31
	DD	FLAT:??_7type_info@@6B@
	DD	00H
	DB	'.?AVIMessageObserver@@', 00H
_DATA	ENDS
;	COMDAT ??_R1FI@?0A@A@IHttpDownObserver@@8
rdata$r	SEGMENT
??_R1FI@?0A@A@IHttpDownObserver@@8 DD FLAT:??_R0?AVIHttpDownObserver@@@8 ; IHttpDownObserver::`RTTI Base Class Descriptor at (88,-1,0,0)'
	DD	01H
	DD	058H
	DD	0ffffffffH
	DD	00H
	DD	00H
rdata$r	ENDS
;	COMDAT ??_R0?AVIHttpDownObserver@@@8
_DATA	SEGMENT
??_R0?AVIHttpDownObserver@@@8 DD FLAT:??_7type_info@@6B@ ; IHttpDownObserver `RTTI Type Descriptor'
	DD	00H
	DB	'.?AVIHttpDownObserver@@', 00H
_DATA	ENDS
;	COMDAT ??_R1FI@?0A@1IMessageObserver@@8
rdata$r	SEGMENT
??_R1FI@?0A@1IMessageObserver@@8 DD FLAT:??_R0?AVIMessageObserver@@@8 ; IMessageObserver::`RTTI Base Class Descriptor at (88,-1,0,2)'
	DD	00H
	DD	058H
	DD	0ffffffffH
	DD	00H
	DD	02H
rdata$r	ENDS
;	COMDAT ??_R1FM@?0A@A@IPanelChangeObserver@@8
rdata$r	SEGMENT
??_R1FM@?0A@A@IPanelChangeObserver@@8 DD FLAT:??_R0?AVIPanelChangeObserver@@@8 ; IPanelChangeObserver::`RTTI Base Class Descriptor at (92,-1,0,0)'
	DD	01H
	DD	05cH
	DD	0ffffffffH
	DD	00H
	DD	00H
rdata$r	ENDS
;	COMDAT ??_R0?AVIPanelChangeObserver@@@8
_DATA	SEGMENT
??_R0?AVIPanelChangeObserver@@@8 DD FLAT:??_7type_info@@6B@ ; IPanelChangeObserver `RTTI Type Descriptor'
	DD	00H
	DB	'.?AVIPanelChangeObserver@@', 00H
_DATA	ENDS
;	COMDAT ??_R1FM@?0A@1IMessageObserver@@8
rdata$r	SEGMENT
??_R1FM@?0A@1IMessageObserver@@8 DD FLAT:??_R0?AVIMessageObserver@@@8 ; IMessageObserver::`RTTI Base Class Descriptor at (92,-1,0,2)'
	DD	00H
	DD	05cH
	DD	0ffffffffH
	DD	00H
	DD	02H
rdata$r	ENDS
;	COMDAT ??_R4GamePanelWnd@@6BILayoutChangeObserver@@@
rdata$r	SEGMENT
??_R4GamePanelWnd@@6BILayoutChangeObserver@@@ DD 00H	; GamePanelWnd::`RTTI Complete Object Locator'
	DD	054H
	DD	00H
	DD	FLAT:??_R0?AVGamePanelWnd@@@8
	DD	FLAT:??_R3GamePanelWnd@@8
rdata$r	ENDS
;	COMDAT ??_R4GamePanelWnd@@6BIHttpDownObserver@@@
rdata$r	SEGMENT
??_R4GamePanelWnd@@6BIHttpDownObserver@@@ DD 00H	; GamePanelWnd::`RTTI Complete Object Locator'
	DD	058H
	DD	00H
	DD	FLAT:??_R0?AVGamePanelWnd@@@8
	DD	FLAT:??_R3GamePanelWnd@@8
rdata$r	ENDS
;	COMDAT ??_R4GamePanelWnd@@6BIPanelChangeObserver@@@
rdata$r	SEGMENT
??_R4GamePanelWnd@@6BIPanelChangeObserver@@@ DD 00H	; GamePanelWnd::`RTTI Complete Object Locator'
	DD	05cH
	DD	00H
	DD	FLAT:??_R0?AVGamePanelWnd@@@8
	DD	FLAT:??_R3GamePanelWnd@@8
; Function compile flags: /Odt
rdata$r	ENDS
_TEXT	SEGMENT
tv217 = -100						; size = 4
tv223 = -96						; size = 4
tv206 = -92						; size = 4
tv212 = -88						; size = 4
tv195 = -84						; size = 4
tv201 = -80						; size = 4
tv193 = -76						; size = 4
tv185 = -72						; size = 4
tv177 = -68						; size = 4
tv169 = -64						; size = 4
tv161 = -60						; size = 4
_this$ = -56						; size = 4
$T207357 = -52						; size = 4
$T207356 = -48						; size = 4
$T207353 = -44						; size = 4
$T207352 = -40						; size = 4
$T207349 = -36						; size = 4
$T207348 = -32						; size = 4
$T207345 = -28						; size = 4
$T207344 = -24						; size = 4
$T207341 = -20						; size = 4
$T207340 = -16						; size = 4
__$EHRec$ = -12						; size = 12
??0GamePanelWnd@@QAE@XZ PROC NEAR			; GamePanelWnd::GamePanelWnd
; _this$ = ecx

; 25   : {

  00020	55		 push	 ebp
  00021	8b ec		 mov	 ebp, esp
  00023	6a ff		 push	 -1
  00025	68 00 00 00 00	 push	 __ehhandler$??0GamePanelWnd@@QAE@XZ
  0002a	64 a1 00 00 00
	00		 mov	 eax, DWORD PTR fs:__except_list
  00030	50		 push	 eax
  00031	64 89 25 00 00
	00 00		 mov	 DWORD PTR fs:__except_list, esp
  00038	83 ec 58	 sub	 esp, 88			; 00000058H
  0003b	89 4d c8	 mov	 DWORD PTR _this$[ebp], ecx
  0003e	8b 4d c8	 mov	 ecx, DWORD PTR _this$[ebp]
  00041	e8 00 00 00 00	 call	 ??0CBasicWnd@@QAE@XZ	; CBasicWnd::CBasicWnd
  00046	c7 45 fc 00 00
	00 00		 mov	 DWORD PTR __$EHRec$[ebp+8], 0
  0004d	8b 4d c8	 mov	 ecx, DWORD PTR _this$[ebp]
  00050	83 c1 54	 add	 ecx, 84			; 00000054H
  00053	e8 00 00 00 00	 call	 ??0ILayoutChangeObserver@@QAE@XZ
  00058	c6 45 fc 01	 mov	 BYTE PTR __$EHRec$[ebp+8], 1
  0005c	8b 4d c8	 mov	 ecx, DWORD PTR _this$[ebp]
  0005f	83 c1 58	 add	 ecx, 88			; 00000058H
  00062	e8 00 00 00 00	 call	 ??0IHttpDownObserver@@QAE@XZ
  00067	c6 45 fc 02	 mov	 BYTE PTR __$EHRec$[ebp+8], 2
  0006b	8b 4d c8	 mov	 ecx, DWORD PTR _this$[ebp]
  0006e	83 c1 5c	 add	 ecx, 92			; 0000005cH
  00071	e8 00 00 00 00	 call	 ??0IPanelChangeObserver@@QAE@XZ
  00076	c6 45 fc 03	 mov	 BYTE PTR __$EHRec$[ebp+8], 3
  0007a	8b 45 c8	 mov	 eax, DWORD PTR _this$[ebp]
  0007d	c7 00 00 00 00
	00		 mov	 DWORD PTR [eax], OFFSET FLAT:??_7GamePanelWnd@@6BCBasicWnd@@@
  00083	8b 4d c8	 mov	 ecx, DWORD PTR _this$[ebp]
  00086	c7 41 54 00 00
	00 00		 mov	 DWORD PTR [ecx+84], OFFSET FLAT:??_7GamePanelWnd@@6BILayoutChangeObserver@@@
  0008d	8b 55 c8	 mov	 edx, DWORD PTR _this$[ebp]
  00090	c7 42 58 00 00
	00 00		 mov	 DWORD PTR [edx+88], OFFSET FLAT:??_7GamePanelWnd@@6BIHttpDownObserver@@@
  00097	8b 45 c8	 mov	 eax, DWORD PTR _this$[ebp]
  0009a	c7 40 5c 00 00
	00 00		 mov	 DWORD PTR [eax+92], OFFSET FLAT:??_7GamePanelWnd@@6BIPanelChangeObserver@@@
  000a1	8b 4d c8	 mov	 ecx, DWORD PTR _this$[ebp]
  000a4	83 c1 78	 add	 ecx, 120		; 00000078H
  000a7	e8 00 00 00 00	 call	 ??0SWF_GAME@@QAE@XZ
  000ac	c6 45 fc 04	 mov	 BYTE PTR __$EHRec$[ebp+8], 4
  000b0	8b 4d c8	 mov	 ecx, DWORD PTR _this$[ebp]
  000b3	81 c1 08 01 00
	00		 add	 ecx, 264		; 00000108H
  000b9	e8 00 00 00 00	 call	 ??0CRect@@QAE@XZ	; CRect::CRect
  000be	8b 4d c8	 mov	 ecx, DWORD PTR _this$[ebp]
  000c1	81 c1 18 01 00
	00		 add	 ecx, 280		; 00000118H
  000c7	e8 00 00 00 00	 call	 ??0CRect@@QAE@XZ	; CRect::CRect
  000cc	8b 4d c8	 mov	 ecx, DWORD PTR _this$[ebp]
  000cf	81 c1 2c 01 00
	00		 add	 ecx, 300		; 0000012cH
  000d5	ff 15 00 00 00
	00		 call	 DWORD PTR __imp_??0?$basic_string@DU?$char_traits@D@std@@V?$allocator@D@2@@std@@QAE@XZ
  000db	c6 45 fc 05	 mov	 BYTE PTR __$EHRec$[ebp+8], 5
  000df	8b 4d c8	 mov	 ecx, DWORD PTR _this$[ebp]
  000e2	81 c1 48 01 00
	00		 add	 ecx, 328		; 00000148H
  000e8	ff 15 00 00 00
	00		 call	 DWORD PTR __imp_??0?$basic_string@DU?$char_traits@D@std@@V?$allocator@D@2@@std@@QAE@XZ
  000ee	c6 45 fc 06	 mov	 BYTE PTR __$EHRec$[ebp+8], 6

; 26   : 	m_isMainWindowTopMost = false;

  000f2	8b 4d c8	 mov	 ecx, DWORD PTR _this$[ebp]
  000f5	c6 81 04 01 00
	00 00		 mov	 BYTE PTR [ecx+260], 0

; 27   : 	m_bFullScreen           = false;

  000fc	8b 55 c8	 mov	 edx, DWORD PTR _this$[ebp]
  000ff	c6 82 05 01 00
	00 00		 mov	 BYTE PTR [edx+261], 0

; 28   : 	m_bDown		            = false;

  00106	8b 45 c8	 mov	 eax, DWORD PTR _this$[ebp]
  00109	c6 40 74 00	 mov	 BYTE PTR [eax+116], 0

; 29   : 	m_isMainWindowTopMost	= false;

  0010d	8b 4d c8	 mov	 ecx, DWORD PTR _this$[ebp]
  00110	c6 81 04 01 00
	00 00		 mov	 BYTE PTR [ecx+260], 0

; 30   : 	m_bFullScreen			= false;

  00117	8b 55 c8	 mov	 edx, DWORD PTR _this$[ebp]
  0011a	c6 82 05 01 00
	00 00		 mov	 BYTE PTR [edx+261], 0

; 31   : 
; 32   : 	m_pGameFlash      = new CShockwaveFlash();

  00121	6a 54		 push	 84			; 00000054H
  00123	e8 00 00 00 00	 call	 ??2CObject@@SGPAXI@Z	; CObject::operator new
  00128	89 45 ec	 mov	 DWORD PTR $T207341[ebp], eax
  0012b	c6 45 fc 07	 mov	 BYTE PTR __$EHRec$[ebp+8], 7
  0012f	83 7d ec 00	 cmp	 DWORD PTR $T207341[ebp], 0
  00133	74 0d		 je	 SHORT $L207342
  00135	8b 4d ec	 mov	 ecx, DWORD PTR $T207341[ebp]
  00138	e8 00 00 00 00	 call	 ??0CShockwaveFlash@@QAE@XZ
  0013d	89 45 c4	 mov	 DWORD PTR tv161[ebp], eax
  00140	eb 07		 jmp	 SHORT $L207343
$L207342:
  00142	c7 45 c4 00 00
	00 00		 mov	 DWORD PTR tv161[ebp], 0
$L207343:
  00149	8b 45 c4	 mov	 eax, DWORD PTR tv161[ebp]
  0014c	89 45 f0	 mov	 DWORD PTR $T207340[ebp], eax
  0014f	c6 45 fc 06	 mov	 BYTE PTR __$EHRec$[ebp+8], 6
  00153	8b 4d c8	 mov	 ecx, DWORD PTR _this$[ebp]
  00156	8b 55 f0	 mov	 edx, DWORD PTR $T207340[ebp]
  00159	89 51 60	 mov	 DWORD PTR [ecx+96], edx

; 33   : 	m_pWndDownPercent = new DownPercentWnd();

  0015c	68 e8 00 00 00	 push	 232			; 000000e8H
  00161	e8 00 00 00 00	 call	 ??2CObject@@SGPAXI@Z	; CObject::operator new
  00166	89 45 e4	 mov	 DWORD PTR $T207345[ebp], eax
  00169	c6 45 fc 08	 mov	 BYTE PTR __$EHRec$[ebp+8], 8
  0016d	83 7d e4 00	 cmp	 DWORD PTR $T207345[ebp], 0
  00171	74 0d		 je	 SHORT $L207346
  00173	8b 4d e4	 mov	 ecx, DWORD PTR $T207345[ebp]
  00176	e8 00 00 00 00	 call	 ??0DownPercentWnd@@QAE@XZ ; DownPercentWnd::DownPercentWnd
  0017b	89 45 c0	 mov	 DWORD PTR tv169[ebp], eax
  0017e	eb 07		 jmp	 SHORT $L207347
$L207346:
  00180	c7 45 c0 00 00
	00 00		 mov	 DWORD PTR tv169[ebp], 0
$L207347:
  00187	8b 45 c0	 mov	 eax, DWORD PTR tv169[ebp]
  0018a	89 45 e8	 mov	 DWORD PTR $T207344[ebp], eax
  0018d	c6 45 fc 06	 mov	 BYTE PTR __$EHRec$[ebp+8], 6
  00191	8b 4d c8	 mov	 ecx, DWORD PTR _this$[ebp]
  00194	8b 55 e8	 mov	 edx, DWORD PTR $T207344[ebp]
  00197	89 51 64	 mov	 DWORD PTR [ecx+100], edx

; 34   : 	m_pBtnSwitch      = new CxSkinButton();

  0019a	68 24 01 00 00	 push	 292			; 00000124H
  0019f	e8 00 00 00 00	 call	 ??2CObject@@SGPAXI@Z	; CObject::operator new
  001a4	89 45 dc	 mov	 DWORD PTR $T207349[ebp], eax
  001a7	c6 45 fc 09	 mov	 BYTE PTR __$EHRec$[ebp+8], 9
  001ab	83 7d dc 00	 cmp	 DWORD PTR $T207349[ebp], 0
  001af	74 0d		 je	 SHORT $L207350
  001b1	8b 4d dc	 mov	 ecx, DWORD PTR $T207349[ebp]
  001b4	e8 00 00 00 00	 call	 ??0CxSkinButton@@QAE@XZ	; CxSkinButton::CxSkinButton
  001b9	89 45 bc	 mov	 DWORD PTR tv177[ebp], eax
  001bc	eb 07		 jmp	 SHORT $L207351
$L207350:
  001be	c7 45 bc 00 00
	00 00		 mov	 DWORD PTR tv177[ebp], 0
$L207351:
  001c5	8b 45 bc	 mov	 eax, DWORD PTR tv177[ebp]
  001c8	89 45 e0	 mov	 DWORD PTR $T207348[ebp], eax
  001cb	c6 45 fc 06	 mov	 BYTE PTR __$EHRec$[ebp+8], 6
  001cf	8b 4d c8	 mov	 ecx, DWORD PTR _this$[ebp]
  001d2	8b 55 e0	 mov	 edx, DWORD PTR $T207348[ebp]
  001d5	89 51 68	 mov	 DWORD PTR [ecx+104], edx

; 35   : 	m_pGameCtrl       = new CGameCtrlWnd();

  001d8	68 18 01 00 00	 push	 280			; 00000118H
  001dd	e8 00 00 00 00	 call	 ??2CObject@@SGPAXI@Z	; CObject::operator new
  001e2	89 45 d4	 mov	 DWORD PTR $T207353[ebp], eax
  001e5	c6 45 fc 0a	 mov	 BYTE PTR __$EHRec$[ebp+8], 10 ; 0000000aH
  001e9	83 7d d4 00	 cmp	 DWORD PTR $T207353[ebp], 0
  001ed	74 0d		 je	 SHORT $L207354
  001ef	8b 4d d4	 mov	 ecx, DWORD PTR $T207353[ebp]
  001f2	e8 00 00 00 00	 call	 ??0CGameCtrlWnd@@QAE@XZ	; CGameCtrlWnd::CGameCtrlWnd
  001f7	89 45 b8	 mov	 DWORD PTR tv185[ebp], eax
  001fa	eb 07		 jmp	 SHORT $L207355
$L207354:
  001fc	c7 45 b8 00 00
	00 00		 mov	 DWORD PTR tv185[ebp], 0
$L207355:
  00203	8b 45 b8	 mov	 eax, DWORD PTR tv185[ebp]
  00206	89 45 d8	 mov	 DWORD PTR $T207352[ebp], eax
  00209	c6 45 fc 06	 mov	 BYTE PTR __$EHRec$[ebp+8], 6
  0020d	8b 4d c8	 mov	 ecx, DWORD PTR _this$[ebp]
  00210	8b 55 d8	 mov	 edx, DWORD PTR $T207352[ebp]
  00213	89 51 70	 mov	 DWORD PTR [ecx+112], edx

; 36   : 	m_pGameInfo       = new CxStaticText();

  00216	68 08 01 00 00	 push	 264			; 00000108H
  0021b	e8 00 00 00 00	 call	 ??2CObject@@SGPAXI@Z	; CObject::operator new
  00220	89 45 cc	 mov	 DWORD PTR $T207357[ebp], eax
  00223	c6 45 fc 0b	 mov	 BYTE PTR __$EHRec$[ebp+8], 11 ; 0000000bH
  00227	83 7d cc 00	 cmp	 DWORD PTR $T207357[ebp], 0
  0022b	74 0d		 je	 SHORT $L207358
  0022d	8b 4d cc	 mov	 ecx, DWORD PTR $T207357[ebp]
  00230	e8 00 00 00 00	 call	 ??0CxStaticText@@QAE@XZ	; CxStaticText::CxStaticText
  00235	89 45 b4	 mov	 DWORD PTR tv193[ebp], eax
  00238	eb 07		 jmp	 SHORT $L207359
$L207358:
  0023a	c7 45 b4 00 00
	00 00		 mov	 DWORD PTR tv193[ebp], 0
$L207359:
  00241	8b 45 b4	 mov	 eax, DWORD PTR tv193[ebp]
  00244	89 45 d0	 mov	 DWORD PTR $T207356[ebp], eax
  00247	c6 45 fc 06	 mov	 BYTE PTR __$EHRec$[ebp+8], 6
  0024b	8b 4d c8	 mov	 ecx, DWORD PTR _this$[ebp]
  0024e	8b 55 d0	 mov	 edx, DWORD PTR $T207356[ebp]
  00251	89 51 6c	 mov	 DWORD PTR [ecx+108], edx

; 37   : 	AfxGetMessageManager()->AttachMessage( ID_MESSAGE_LAYOUTMGR,(ILayoutChangeObserver*) this);

  00254	83 7d c8 00	 cmp	 DWORD PTR _this$[ebp], 0
  00258	74 0b		 je	 SHORT $L207360
  0025a	8b 45 c8	 mov	 eax, DWORD PTR _this$[ebp]
  0025d	83 c0 54	 add	 eax, 84			; 00000054H
  00260	89 45 b0	 mov	 DWORD PTR tv201[ebp], eax
  00263	eb 07		 jmp	 SHORT $L207361
$L207360:
  00265	c7 45 b0 00 00
	00 00		 mov	 DWORD PTR tv201[ebp], 0
$L207361:
  0026c	e8 00 00 00 00	 call	 ?AfxGetMessageManager@@YAPAVIMessageManager@@XZ ; AfxGetMessageManager
  00271	89 45 ac	 mov	 DWORD PTR tv195[ebp], eax
  00274	6a 02		 push	 2
  00276	8b 4d b0	 mov	 ecx, DWORD PTR tv201[ebp]
  00279	51		 push	 ecx
  0027a	68 00 00 00 00	 push	 OFFSET FLAT:_ID_MESSAGE_LAYOUTMGR
  0027f	8b 55 ac	 mov	 edx, DWORD PTR tv195[ebp]
  00282	8b 02		 mov	 eax, DWORD PTR [edx]
  00284	8b 4d ac	 mov	 ecx, DWORD PTR tv195[ebp]
  00287	ff 50 04	 call	 DWORD PTR [eax+4]

; 38   : 	AfxGetMessageManager()->AttachMessage( ID_MESSAGE_PANEL_CHANGE,(IPanelChangeObserver*) this);

  0028a	83 7d c8 00	 cmp	 DWORD PTR _this$[ebp], 0
  0028e	74 0b		 je	 SHORT $L207362
  00290	8b 4d c8	 mov	 ecx, DWORD PTR _this$[ebp]
  00293	83 c1 5c	 add	 ecx, 92			; 0000005cH
  00296	89 4d a8	 mov	 DWORD PTR tv212[ebp], ecx
  00299	eb 07		 jmp	 SHORT $L207363
$L207362:
  0029b	c7 45 a8 00 00
	00 00		 mov	 DWORD PTR tv212[ebp], 0
$L207363:
  002a2	e8 00 00 00 00	 call	 ?AfxGetMessageManager@@YAPAVIMessageManager@@XZ ; AfxGetMessageManager
  002a7	89 45 a4	 mov	 DWORD PTR tv206[ebp], eax
  002aa	6a 02		 push	 2
  002ac	8b 55 a8	 mov	 edx, DWORD PTR tv212[ebp]
  002af	52		 push	 edx
  002b0	68 00 00 00 00	 push	 OFFSET FLAT:_ID_MESSAGE_PANEL_CHANGE
  002b5	8b 45 a4	 mov	 eax, DWORD PTR tv206[ebp]
  002b8	8b 10		 mov	 edx, DWORD PTR [eax]
  002ba	8b 4d a4	 mov	 ecx, DWORD PTR tv206[ebp]
  002bd	ff 52 04	 call	 DWORD PTR [edx+4]

; 39   : 	AfxGetMessageManager()->AttachMessage( ID_MESSAGE_HTTP_DOWN,(IHttpDownObserver*) this);

  002c0	83 7d c8 00	 cmp	 DWORD PTR _this$[ebp], 0
  002c4	74 0b		 je	 SHORT $L207364
  002c6	8b 45 c8	 mov	 eax, DWORD PTR _this$[ebp]
  002c9	83 c0 58	 add	 eax, 88			; 00000058H
  002cc	89 45 a0	 mov	 DWORD PTR tv223[ebp], eax
  002cf	eb 07		 jmp	 SHORT $L207365
$L207364:
  002d1	c7 45 a0 00 00
	00 00		 mov	 DWORD PTR tv223[ebp], 0
$L207365:
  002d8	e8 00 00 00 00	 call	 ?AfxGetMessageManager@@YAPAVIMessageManager@@XZ ; AfxGetMessageManager
  002dd	89 45 9c	 mov	 DWORD PTR tv217[ebp], eax
  002e0	6a 02		 push	 2
  002e2	8b 4d a0	 mov	 ecx, DWORD PTR tv223[ebp]
  002e5	51		 push	 ecx
  002e6	68 00 00 00 00	 push	 OFFSET FLAT:_ID_MESSAGE_HTTP_DOWN
  002eb	8b 55 9c	 mov	 edx, DWORD PTR tv217[ebp]
  002ee	8b 02		 mov	 eax, DWORD PTR [edx]
  002f0	8b 4d 9c	 mov	 ecx, DWORD PTR tv217[ebp]
  002f3	ff 50 04	 call	 DWORD PTR [eax+4]

; 40   : }

  002f6	c7 45 fc ff ff
	ff ff		 mov	 DWORD PTR __$EHRec$[ebp+8], -1
  002fd	8b 45 c8	 mov	 eax, DWORD PTR _this$[ebp]
  00300	8b 4d f4	 mov	 ecx, DWORD PTR __$EHRec$[ebp]
  00303	64 89 0d 00 00
	00 00		 mov	 DWORD PTR fs:__except_list, ecx
  0030a	8b e5		 mov	 esp, ebp
  0030c	5d		 pop	 ebp
  0030d	c3		 ret	 0
_TEXT	ENDS
text$x	SEGMENT
$L207366:
  00000	8b 4d c8	 mov	 ecx, DWORD PTR _this$[ebp]
  00003	e9 00 00 00 00	 jmp	 ??1CBasicWnd@@UAE@XZ	; CBasicWnd::~CBasicWnd
$L207367:
  00008	8b 4d c8	 mov	 ecx, DWORD PTR _this$[ebp]
  0000b	83 c1 54	 add	 ecx, 84			; 00000054H
  0000e	e9 00 00 00 00	 jmp	 ??1ILayoutChangeObserver@@UAE@XZ
$L207368:
  00013	8b 4d c8	 mov	 ecx, DWORD PTR _this$[ebp]
  00016	83 c1 58	 add	 ecx, 88			; 00000058H
  00019	e9 00 00 00 00	 jmp	 ??1IHttpDownObserver@@UAE@XZ
$L207369:
  0001e	8b 4d c8	 mov	 ecx, DWORD PTR _this$[ebp]
  00021	83 c1 5c	 add	 ecx, 92			; 0000005cH
  00024	e9 00 00 00 00	 jmp	 ??1IPanelChangeObserver@@UAE@XZ
$L207370:
  00029	8b 4d c8	 mov	 ecx, DWORD PTR _this$[ebp]
  0002c	83 c1 78	 add	 ecx, 120		; 00000078H
  0002f	e9 00 00 00 00	 jmp	 ??1SWF_GAME@@QAE@XZ
$L207371:
  00034	8b 4d c8	 mov	 ecx, DWORD PTR _this$[ebp]
  00037	81 c1 2c 01 00
	00		 add	 ecx, 300		; 0000012cH
  0003d	ff 25 00 00 00
	00		 jmp	 DWORD PTR __imp_??1?$basic_string@DU?$char_traits@D@std@@V?$allocator@D@2@@std@@QAE@XZ
$L207372:
  00043	8b 4d c8	 mov	 ecx, DWORD PTR _this$[ebp]
  00046	81 c1 48 01 00
	00		 add	 ecx, 328		; 00000148H
  0004c	ff 25 00 00 00
	00		 jmp	 DWORD PTR __imp_??1?$basic_string@DU?$char_traits@D@std@@V?$allocator@D@2@@std@@QAE@XZ
$L207373:
  00052	8b 45 ec	 mov	 eax, DWORD PTR $T207341[ebp]
  00055	50		 push	 eax
  00056	e8 00 00 00 00	 call	 ??3CObject@@SGXPAX@Z	; CObject::operator delete
  0005b	c3		 ret	 0
$L207374:
  0005c	8b 45 e4	 mov	 eax, DWORD PTR $T207345[ebp]
  0005f	50		 push	 eax
  00060	e8 00 00 00 00	 call	 ??3CObject@@SGXPAX@Z	; CObject::operator delete
  00065	c3		 ret	 0
$L207375:
  00066	8b 45 dc	 mov	 eax, DWORD PTR $T207349[ebp]
  00069	50		 push	 eax
  0006a	e8 00 00 00 00	 call	 ??3CObject@@SGXPAX@Z	; CObject::operator delete
  0006f	c3		 ret	 0
$L207376:
  00070	8b 45 d4	 mov	 eax, DWORD PTR $T207353[ebp]
  00073	50		 push	 eax
  00074	e8 00 00 00 00	 call	 ??3CObject@@SGXPAX@Z	; CObject::operator delete
  00079	c3		 ret	 0
$L207377:
  0007a	8b 45 cc	 mov	 eax, DWORD PTR $T207357[ebp]
  0007d	50		 push	 eax
  0007e	e8 00 00 00 00	 call	 ??3CObject@@SGXPAX@Z	; CObject::operator delete
  00083	c3		 ret	 0
__ehhandler$??0GamePanelWnd@@QAE@XZ:
  00084	b8 00 00 00 00	 mov	 eax, OFFSET FLAT:$T207379
  00089	e9 00 00 00 00	 jmp	 ___CxxFrameHandler
text$x	ENDS
??0GamePanelWnd@@QAE@XZ ENDP				; GamePanelWnd::GamePanelWnd
;	COMDAT xdata$x
; File d:\boxgit\playbox\playbox\dev\prj\playbox\src\datainterface\ilayoutchangeobserver.h
xdata$x	SEGMENT
$T207389 DD	0ffffffffH
	DD	FLAT:$L207383
	DD	00H
	DD	FLAT:$L207384
$T207387 DD	019930520H
	DD	02H
	DD	FLAT:$T207389
	DD	2 DUP(00H)
	DD	2 DUP(00H)
; Function compile flags: /Odt
xdata$x	ENDS
;	COMDAT ?ILayoutChangeOb_LayerChanged@ILayoutChangeObserver@@UAEXV?$basic_string@DU?$char_traits@D@std@@V?$allocator@D@2@@std@@00@Z
_TEXT	SEGMENT
_this$ = -16						; size = 4
__$EHRec$ = -12						; size = 12
_paneName$ = 8						; size = 28
_oldLayerName$ = 36					; size = 28
_newLayerName$ = 64					; size = 28
?ILayoutChangeOb_LayerChanged@ILayoutChangeObserver@@UAEXV?$basic_string@DU?$char_traits@D@std@@V?$allocator@D@2@@std@@00@Z PROC NEAR ; ILayoutChangeObserver::ILayoutChangeOb_LayerChanged, COMDAT
; _this$ = ecx

; 9    : 	virtual void	ILayoutChangeOb_LayerChanged(string paneName, string oldLayerName, string newLayerName ){};

  00000	55		 push	 ebp
  00001	8b ec		 mov	 ebp, esp
  00003	6a ff		 push	 -1
  00005	68 00 00 00 00	 push	 __ehhandler$?ILayoutChangeOb_LayerChanged@ILayoutChangeObserver@@UAEXV?$basic_string@DU?$char_traits@D@std@@V?$allocator@D@2@@std@@00@Z
  0000a	64 a1 00 00 00
	00		 mov	 eax, DWORD PTR fs:__except_list
  00010	50		 push	 eax
  00011	64 89 25 00 00
	00 00		 mov	 DWORD PTR fs:__except_list, esp
  00018	51		 push	 ecx
  00019	89 4d f0	 mov	 DWORD PTR _this$[ebp], ecx
  0001c	c7 45 fc 01 00
	00 00		 mov	 DWORD PTR __$EHRec$[ebp+8], 1
  00023	8d 4d 08	 lea	 ecx, DWORD PTR _paneName$[ebp]
  00026	ff 15 00 00 00
	00		 call	 DWORD PTR __imp_??1?$basic_string@DU?$char_traits@D@std@@V?$allocator@D@2@@std@@QAE@XZ
  0002c	c6 45 fc 00	 mov	 BYTE PTR __$EHRec$[ebp+8], 0
  00030	8d 4d 24	 lea	 ecx, DWORD PTR _oldLayerName$[ebp]
  00033	ff 15 00 00 00
	00		 call	 DWORD PTR __imp_??1?$basic_string@DU?$char_traits@D@std@@V?$allocator@D@2@@std@@QAE@XZ
  00039	c7 45 fc ff ff
	ff ff		 mov	 DWORD PTR __$EHRec$[ebp+8], -1
  00040	8d 4d 40	 lea	 ecx, DWORD PTR _newLayerName$[ebp]
  00043	ff 15 00 00 00
	00		 call	 DWORD PTR __imp_??1?$basic_string@DU?$char_traits@D@std@@V?$allocator@D@2@@std@@QAE@XZ
  00049	8b 4d f4	 mov	 ecx, DWORD PTR __$EHRec$[ebp]
  0004c	64 89 0d 00 00
	00 00		 mov	 DWORD PTR fs:__except_list, ecx
  00053	8b e5		 mov	 esp, ebp
  00055	5d		 pop	 ebp
  00056	c2 54 00	 ret	 84			; 00000054H
_TEXT	ENDS
;	COMDAT text$x
text$x	SEGMENT
$L207383:
  00000	8d 4d 40	 lea	 ecx, DWORD PTR _newLayerName$[ebp]
  00003	ff 25 00 00 00
	00		 jmp	 DWORD PTR __imp_??1?$basic_string@DU?$char_traits@D@std@@V?$allocator@D@2@@std@@QAE@XZ
$L207384:
  00009	8d 4d 24	 lea	 ecx, DWORD PTR _oldLayerName$[ebp]
  0000c	ff 25 00 00 00
	00		 jmp	 DWORD PTR __imp_??1?$basic_string@DU?$char_traits@D@std@@V?$allocator@D@2@@std@@QAE@XZ
__ehhandler$?ILayoutChangeOb_LayerChanged@ILayoutChangeObserver@@UAEXV?$basic_string@DU?$char_traits@D@std@@V?$allocator@D@2@@std@@00@Z:
  00012	b8 00 00 00 00	 mov	 eax, OFFSET FLAT:$T207387
  00017	e9 00 00 00 00	 jmp	 ___CxxFrameHandler
text$x	ENDS
?ILayoutChangeOb_LayerChanged@ILayoutChangeObserver@@UAEXV?$basic_string@DU?$char_traits@D@std@@V?$allocator@D@2@@std@@00@Z ENDP ; ILayoutChangeObserver::ILayoutChangeOb_LayerChanged
;	COMDAT xdata$x
xdata$x	SEGMENT
$T207399 DD	0ffffffffH
	DD	FLAT:$L207394
$T207397 DD	019930520H
	DD	01H
	DD	FLAT:$T207399
	DD	2 DUP(00H)
	DD	2 DUP(00H)
; Function compile flags: /Odt
xdata$x	ENDS
;	COMDAT ?ILayoutChangeOb_PaneChanged@ILayoutChangeObserver@@UAEXV?$basic_string@DU?$char_traits@D@std@@V?$allocator@D@2@@std@@0@Z
_TEXT	SEGMENT
_this$ = -16						; size = 4
__$EHRec$ = -12						; size = 12
_oldPaneName$ = 8					; size = 28
_newPaneName$ = 36					; size = 28
?ILayoutChangeOb_PaneChanged@ILayoutChangeObserver@@UAEXV?$basic_string@DU?$char_traits@D@std@@V?$allocator@D@2@@std@@0@Z PROC NEAR ; ILayoutChangeObserver::ILayoutChangeOb_PaneChanged, COMDAT
; _this$ = ecx

; 10   : 	virtual void	ILayoutChangeOb_PaneChanged(string oldPaneName, string newPaneName){};

  00000	55		 push	 ebp
  00001	8b ec		 mov	 ebp, esp
  00003	6a ff		 push	 -1
  00005	68 00 00 00 00	 push	 __ehhandler$?ILayoutChangeOb_PaneChanged@ILayoutChangeObserver@@UAEXV?$basic_string@DU?$char_traits@D@std@@V?$allocator@D@2@@std@@0@Z
  0000a	64 a1 00 00 00
	00		 mov	 eax, DWORD PTR fs:__except_list
  00010	50		 push	 eax
  00011	64 89 25 00 00
	00 00		 mov	 DWORD PTR fs:__except_list, esp
  00018	51		 push	 ecx
  00019	89 4d f0	 mov	 DWORD PTR _this$[ebp], ecx
  0001c	c7 45 fc 00 00
	00 00		 mov	 DWORD PTR __$EHRec$[ebp+8], 0
  00023	8d 4d 08	 lea	 ecx, DWORD PTR _oldPaneName$[ebp]
  00026	ff 15 00 00 00
	00		 call	 DWORD PTR __imp_??1?$basic_string@DU?$char_traits@D@std@@V?$allocator@D@2@@std@@QAE@XZ
  0002c	c7 45 fc ff ff
	ff ff		 mov	 DWORD PTR __$EHRec$[ebp+8], -1
  00033	8d 4d 24	 lea	 ecx, DWORD PTR _newPaneName$[ebp]
  00036	ff 15 00 00 00
	00		 call	 DWORD PTR __imp_??1?$basic_string@DU?$char_traits@D@std@@V?$allocator@D@2@@std@@QAE@XZ
  0003c	8b 4d f4	 mov	 ecx, DWORD PTR __$EHRec$[ebp]
  0003f	64 89 0d 00 00
	00 00		 mov	 DWORD PTR fs:__except_list, ecx
  00046	8b e5		 mov	 esp, ebp
  00048	5d		 pop	 ebp
  00049	c2 38 00	 ret	 56			; 00000038H
_TEXT	ENDS
;	COMDAT text$x
text$x	SEGMENT
$L207394:
  00000	8d 4d 24	 lea	 ecx, DWORD PTR _newPaneName$[ebp]
  00003	ff 25 00 00 00
	00		 jmp	 DWORD PTR __imp_??1?$basic_string@DU?$char_traits@D@std@@V?$allocator@D@2@@std@@QAE@XZ
__ehhandler$?ILayoutChangeOb_PaneChanged@ILayoutChangeObserver@@UAEXV?$basic_string@DU?$char_traits@D@std@@V?$allocator@D@2@@std@@0@Z:
  00009	b8 00 00 00 00	 mov	 eax, OFFSET FLAT:$T207397
  0000e	e9 00 00 00 00	 jmp	 ___CxxFrameHandler
text$x	ENDS
?ILayoutChangeOb_PaneChanged@ILayoutChangeObserver@@UAEXV?$basic_string@DU?$char_traits@D@std@@V?$allocator@D@2@@std@@0@Z ENDP ; ILayoutChangeObserver::ILayoutChangeOb_PaneChanged
; Function compile flags: /Odt
;	COMDAT ?ILayoutChangeOb_ColorChanged@ILayoutChangeObserver@@UAEXXZ
_TEXT	SEGMENT
_this$ = -4						; size = 4
?ILayoutChangeOb_ColorChanged@ILayoutChangeObserver@@UAEXXZ PROC NEAR ; ILayoutChangeObserver::ILayoutChangeOb_ColorChanged, COMDAT
; _this$ = ecx

; 12   : 	virtual void	ILayoutChangeOb_ColorChanged(){};

  00000	55		 push	 ebp
  00001	8b ec		 mov	 ebp, esp
  00003	51		 push	 ecx
  00004	89 4d fc	 mov	 DWORD PTR _this$[ebp], ecx
  00007	8b e5		 mov	 esp, ebp
  00009	5d		 pop	 ebp
  0000a	c3		 ret	 0
?ILayoutChangeOb_ColorChanged@ILayoutChangeObserver@@UAEXXZ ENDP ; ILayoutChangeObserver::ILayoutChangeOb_ColorChanged
; Function compile flags: /Odt
_TEXT	ENDS
;	COMDAT ?ILayoutChangeOb_ColorChanging@ILayoutChangeObserver@@UAEXXZ
_TEXT	SEGMENT
_this$ = -4						; size = 4
?ILayoutChangeOb_ColorChanging@ILayoutChangeObserver@@UAEXXZ PROC NEAR ; ILayoutChangeObserver::ILayoutChangeOb_ColorChanging, COMDAT
; _this$ = ecx

; 13   : 	virtual void	ILayoutChangeOb_ColorChanging(){};

  00000	55		 push	 ebp
  00001	8b ec		 mov	 ebp, esp
  00003	51		 push	 ecx
  00004	89 4d fc	 mov	 DWORD PTR _this$[ebp], ecx
  00007	8b e5		 mov	 esp, ebp
  00009	5d		 pop	 ebp
  0000a	c3		 ret	 0
?ILayoutChangeOb_ColorChanging@ILayoutChangeObserver@@UAEXXZ ENDP ; ILayoutChangeObserver::ILayoutChangeOb_ColorChanging
; Function compile flags: /Odt
_TEXT	ENDS
;	COMDAT ?ILayoutChangeOb_InitBegin@ILayoutChangeObserver@@UAEXXZ
_TEXT	SEGMENT
_this$ = -4						; size = 4
?ILayoutChangeOb_InitBegin@ILayoutChangeObserver@@UAEXXZ PROC NEAR ; ILayoutChangeObserver::ILayoutChangeOb_InitBegin, COMDAT
; _this$ = ecx

; 16   : 	virtual void	ILayoutChangeOb_InitBegin(){};

  00000	55		 push	 ebp
  00001	8b ec		 mov	 ebp, esp
  00003	51		 push	 ecx
  00004	89 4d fc	 mov	 DWORD PTR _this$[ebp], ecx
  00007	8b e5		 mov	 esp, ebp
  00009	5d		 pop	 ebp
  0000a	c3		 ret	 0
?ILayoutChangeOb_InitBegin@ILayoutChangeObserver@@UAEXXZ ENDP ; ILayoutChangeObserver::ILayoutChangeOb_InitBegin
; Function compile flags: /Odt
; File d:\boxgit\playbox\playbox\dev\prj\playbox\src\datainterface\ipanelchangeobserver.h
_TEXT	ENDS
;	COMDAT ?IPanelChangeOb_WindowMax@IPanelChangeObserver@@UAEXXZ
_TEXT	SEGMENT
_this$ = -4						; size = 4
?IPanelChangeOb_WindowMax@IPanelChangeObserver@@UAEXXZ PROC NEAR ; IPanelChangeObserver::IPanelChangeOb_WindowMax, COMDAT
; _this$ = ecx

; 9    : 	virtual void	IPanelChangeOb_WindowMax(){};

  00000	55		 push	 ebp
  00001	8b ec		 mov	 ebp, esp
  00003	51		 push	 ecx
  00004	89 4d fc	 mov	 DWORD PTR _this$[ebp], ecx
  00007	8b e5		 mov	 esp, ebp
  00009	5d		 pop	 ebp
  0000a	c3		 ret	 0
?IPanelChangeOb_WindowMax@IPanelChangeObserver@@UAEXXZ ENDP ; IPanelChangeObserver::IPanelChangeOb_WindowMax
; Function compile flags: /Odt
_TEXT	ENDS
;	COMDAT ?IPanelChangeOb_WindowMin@IPanelChangeObserver@@UAEXXZ
_TEXT	SEGMENT
_this$ = -4						; size = 4
?IPanelChangeOb_WindowMin@IPanelChangeObserver@@UAEXXZ PROC NEAR ; IPanelChangeObserver::IPanelChangeOb_WindowMin, COMDAT
; _this$ = ecx

; 10   : 	virtual void	IPanelChangeOb_WindowMin(){};

  00000	55		 push	 ebp
  00001	8b ec		 mov	 ebp, esp
  00003	51		 push	 ecx
  00004	89 4d fc	 mov	 DWORD PTR _this$[ebp], ecx
  00007	8b e5		 mov	 esp, ebp
  00009	5d		 pop	 ebp
  0000a	c3		 ret	 0
?IPanelChangeOb_WindowMin@IPanelChangeObserver@@UAEXXZ ENDP ; IPanelChangeObserver::IPanelChangeOb_WindowMin
; Function compile flags: /Odt
_TEXT	ENDS
;	COMDAT ?IPanelChangeOb_WindowRestore@IPanelChangeObserver@@UAEXXZ
_TEXT	SEGMENT
_this$ = -4						; size = 4
?IPanelChangeOb_WindowRestore@IPanelChangeObserver@@UAEXXZ PROC NEAR ; IPanelChangeObserver::IPanelChangeOb_WindowRestore, COMDAT
; _this$ = ecx

; 11   : 	virtual void	IPanelChangeOb_WindowRestore(){};

  00000	55		 push	 ebp
  00001	8b ec		 mov	 ebp, esp
  00003	51		 push	 ecx
  00004	89 4d fc	 mov	 DWORD PTR _this$[ebp], ecx
  00007	8b e5		 mov	 esp, ebp
  00009	5d		 pop	 ebp
  0000a	c3		 ret	 0
?IPanelChangeOb_WindowRestore@IPanelChangeObserver@@UAEXXZ ENDP ; IPanelChangeObserver::IPanelChangeOb_WindowRestore
; Function compile flags: /Odt
_TEXT	ENDS
;	COMDAT ?IPanelChangeOb_WindowClose@IPanelChangeObserver@@UAEXXZ
_TEXT	SEGMENT
_this$ = -4						; size = 4
?IPanelChangeOb_WindowClose@IPanelChangeObserver@@UAEXXZ PROC NEAR ; IPanelChangeObserver::IPanelChangeOb_WindowClose, COMDAT
; _this$ = ecx

; 12   : 	virtual void	IPanelChangeOb_WindowClose(){};

  00000	55		 push	 ebp
  00001	8b ec		 mov	 ebp, esp
  00003	51		 push	 ecx
  00004	89 4d fc	 mov	 DWORD PTR _this$[ebp], ecx
  00007	8b e5		 mov	 esp, ebp
  00009	5d		 pop	 ebp
  0000a	c3		 ret	 0
?IPanelChangeOb_WindowClose@IPanelChangeObserver@@UAEXXZ ENDP ; IPanelChangeObserver::IPanelChangeOb_WindowClose
_TEXT	ENDS
PUBLIC	??1GamePanelWnd@@UAE@XZ				; GamePanelWnd::~GamePanelWnd
; Function compile flags: /Odt
;	COMDAT ??_GGamePanelWnd@@UAEPAXI@Z
_TEXT	SEGMENT
_this$ = -4						; size = 4
___flags$ = 8						; size = 4
??_GGamePanelWnd@@UAEPAXI@Z PROC NEAR			; GamePanelWnd::`scalar deleting destructor', COMDAT
; _this$ = ecx
  00000	55		 push	 ebp
  00001	8b ec		 mov	 ebp, esp
  00003	51		 push	 ecx
  00004	89 4d fc	 mov	 DWORD PTR _this$[ebp], ecx
  00007	8b 4d fc	 mov	 ecx, DWORD PTR _this$[ebp]
  0000a	e8 00 00 00 00	 call	 ??1GamePanelWnd@@UAE@XZ	; GamePanelWnd::~GamePanelWnd
  0000f	8b 45 08	 mov	 eax, DWORD PTR ___flags$[ebp]
  00012	83 e0 01	 and	 eax, 1
  00015	74 09		 je	 SHORT $L204390
  00017	8b 4d fc	 mov	 ecx, DWORD PTR _this$[ebp]
  0001a	51		 push	 ecx
  0001b	e8 00 00 00 00	 call	 ??3CObject@@SGXPAX@Z	; CObject::operator delete
$L204390:
  00020	8b 45 fc	 mov	 eax, DWORD PTR _this$[ebp]
  00023	8b e5		 mov	 esp, ebp
  00025	5d		 pop	 ebp
  00026	c2 04 00	 ret	 4
??_GGamePanelWnd@@UAEPAXI@Z ENDP			; GamePanelWnd::`scalar deleting destructor'
_TEXT	ENDS
PUBLIC	??_R4ILayoutChangeObserver@@6B@			; ILayoutChangeObserver::`RTTI Complete Object Locator'
PUBLIC	??_R3ILayoutChangeObserver@@8			; ILayoutChangeObserver::`RTTI Class Hierarchy Descriptor'
PUBLIC	??_R2ILayoutChangeObserver@@8			; ILayoutChangeObserver::`RTTI Base Class Array'
PUBLIC	??_R1A@?0A@A@ILayoutChangeObserver@@8		; ILayoutChangeObserver::`RTTI Base Class Descriptor at (0,-1,0,0)'
PUBLIC	??_R1A@?0A@A@IMessageObserver@@8		; IMessageObserver::`RTTI Base Class Descriptor at (0,-1,0,0)'
PUBLIC	?ILayoutChangeOb_SkinChanged@ILayoutChangeObserver@@UAEXV?$basic_string@DU?$char_traits@D@std@@V?$allocator@D@2@@std@@0@Z ; ILayoutChangeObserver::ILayoutChangeOb_SkinChanged
PUBLIC	?ILayoutChangeOb_UpdateLayout@ILayoutChangeObserver@@UAEXPAUHWND__@@@Z ; ILayoutChangeObserver::ILayoutChangeOb_UpdateLayout
PUBLIC	?ILayoutChangeOb_InitFinished@ILayoutChangeObserver@@UAEXXZ ; ILayoutChangeObserver::ILayoutChangeOb_InitFinished
PUBLIC	??_7ILayoutChangeObserver@@6B@			; ILayoutChangeObserver::`vftable'
PUBLIC	??_GILayoutChangeObserver@@UAEPAXI@Z		; ILayoutChangeObserver::`scalar deleting destructor'
PUBLIC	??0IMessageObserver@@QAE@XZ			; IMessageObserver::IMessageObserver
EXTRN	??_EILayoutChangeObserver@@UAEPAXI@Z:NEAR	; ILayoutChangeObserver::`vector deleting destructor'
;	COMDAT ??_7ILayoutChangeObserver@@6B@
CONST	SEGMENT
??_7ILayoutChangeObserver@@6B@ DD FLAT:??_R4ILayoutChangeObserver@@6B@ ; ILayoutChangeObserver::`vftable'
	DD	FLAT:??_EILayoutChangeObserver@@UAEPAXI@Z
	DD	FLAT:?ILayoutChangeOb_LayerChanged@ILayoutChangeObserver@@UAEXV?$basic_string@DU?$char_traits@D@std@@V?$allocator@D@2@@std@@00@Z
	DD	FLAT:?ILayoutChangeOb_PaneChanged@ILayoutChangeObserver@@UAEXV?$basic_string@DU?$char_traits@D@std@@V?$allocator@D@2@@std@@0@Z
	DD	FLAT:?ILayoutChangeOb_SkinChanged@ILayoutChangeObserver@@UAEXV?$basic_string@DU?$char_traits@D@std@@V?$allocator@D@2@@std@@0@Z
	DD	FLAT:?ILayoutChangeOb_ColorChanged@ILayoutChangeObserver@@UAEXXZ
	DD	FLAT:?ILayoutChangeOb_ColorChanging@ILayoutChangeObserver@@UAEXXZ
	DD	FLAT:?ILayoutChangeOb_UpdateLayout@ILayoutChangeObserver@@UAEXPAUHWND__@@@Z
	DD	FLAT:?ILayoutChangeOb_InitFinished@ILayoutChangeObserver@@UAEXXZ
	DD	FLAT:?ILayoutChangeOb_InitBegin@ILayoutChangeObserver@@UAEXXZ
CONST	ENDS
;	COMDAT ??_R4ILayoutChangeObserver@@6B@
rdata$r	SEGMENT
??_R4ILayoutChangeObserver@@6B@ DD 00H			; ILayoutChangeObserver::`RTTI Complete Object Locator'
	DD	00H
	DD	00H
	DD	FLAT:??_R0?AVILayoutChangeObserver@@@8
	DD	FLAT:??_R3ILayoutChangeObserver@@8
rdata$r	ENDS
;	COMDAT ??_R3ILayoutChangeObserver@@8
rdata$r	SEGMENT
??_R3ILayoutChangeObserver@@8 DD 00H			; ILayoutChangeObserver::`RTTI Class Hierarchy Descriptor'
	DD	00H
	DD	02H
	DD	FLAT:??_R2ILayoutChangeObserver@@8
rdata$r	ENDS
;	COMDAT ??_R2ILayoutChangeObserver@@8
rdata$r	SEGMENT
??_R2ILayoutChangeObserver@@8 DD FLAT:??_R1A@?0A@A@ILayoutChangeObserver@@8 ; ILayoutChangeObserver::`RTTI Base Class Array'
	DD	FLAT:??_R1A@?0A@A@IMessageObserver@@8
rdata$r	ENDS
;	COMDAT ??_R1A@?0A@A@ILayoutChangeObserver@@8
rdata$r	SEGMENT
??_R1A@?0A@A@ILayoutChangeObserver@@8 DD FLAT:??_R0?AVILayoutChangeObserver@@@8 ; ILayoutChangeObserver::`RTTI Base Class Descriptor at (0,-1,0,0)'
	DD	01H
	DD	00H
	DD	0ffffffffH
	DD	00H
	DD	00H
rdata$r	ENDS
;	COMDAT ??_R1A@?0A@A@IMessageObserver@@8
rdata$r	SEGMENT
??_R1A@?0A@A@IMessageObserver@@8 DD FLAT:??_R0?AVIMessageObserver@@@8 ; IMessageObserver::`RTTI Base Class Descriptor at (0,-1,0,0)'
	DD	00H
	DD	00H
	DD	0ffffffffH
	DD	00H
	DD	00H
; Function compile flags: /Odt
rdata$r	ENDS
;	COMDAT ??0ILayoutChangeObserver@@QAE@XZ
_TEXT	SEGMENT
_this$ = -4						; size = 4
??0ILayoutChangeObserver@@QAE@XZ PROC NEAR		; ILayoutChangeObserver::ILayoutChangeObserver, COMDAT
; _this$ = ecx
  00000	55		 push	 ebp
  00001	8b ec		 mov	 ebp, esp
  00003	51		 push	 ecx
  00004	89 4d fc	 mov	 DWORD PTR _this$[ebp], ecx
  00007	8b 4d fc	 mov	 ecx, DWORD PTR _this$[ebp]
  0000a	e8 00 00 00 00	 call	 ??0IMessageObserver@@QAE@XZ
  0000f	8b 45 fc	 mov	 eax, DWORD PTR _this$[ebp]
  00012	c7 00 00 00 00
	00		 mov	 DWORD PTR [eax], OFFSET FLAT:??_7ILayoutChangeObserver@@6B@
  00018	8b 45 fc	 mov	 eax, DWORD PTR _this$[ebp]
  0001b	8b e5		 mov	 esp, ebp
  0001d	5d		 pop	 ebp
  0001e	c3		 ret	 0
??0ILayoutChangeObserver@@QAE@XZ ENDP			; ILayoutChangeObserver::ILayoutChangeObserver
_TEXT	ENDS
;	COMDAT xdata$x
; File d:\boxgit\playbox\playbox\dev\prj\playbox\src\datainterface\ilayoutchangeobserver.h
xdata$x	SEGMENT
$T207427 DD	0ffffffffH
	DD	FLAT:$L207422
$T207425 DD	019930520H
	DD	01H
	DD	FLAT:$T207427
	DD	2 DUP(00H)
	DD	2 DUP(00H)
; Function compile flags: /Odt
xdata$x	ENDS
;	COMDAT ?ILayoutChangeOb_SkinChanged@ILayoutChangeObserver@@UAEXV?$basic_string@DU?$char_traits@D@std@@V?$allocator@D@2@@std@@0@Z
_TEXT	SEGMENT
_this$ = -16						; size = 4
__$EHRec$ = -12						; size = 12
_oldSkinPath$ = 8					; size = 28
_newSkinPath$ = 36					; size = 28
?ILayoutChangeOb_SkinChanged@ILayoutChangeObserver@@UAEXV?$basic_string@DU?$char_traits@D@std@@V?$allocator@D@2@@std@@0@Z PROC NEAR ; ILayoutChangeObserver::ILayoutChangeOb_SkinChanged, COMDAT
; _this$ = ecx

; 11   : 	virtual void	ILayoutChangeOb_SkinChanged(string oldSkinPath, string newSkinPath){};

  00000	55		 push	 ebp
  00001	8b ec		 mov	 ebp, esp
  00003	6a ff		 push	 -1
  00005	68 00 00 00 00	 push	 __ehhandler$?ILayoutChangeOb_SkinChanged@ILayoutChangeObserver@@UAEXV?$basic_string@DU?$char_traits@D@std@@V?$allocator@D@2@@std@@0@Z
  0000a	64 a1 00 00 00
	00		 mov	 eax, DWORD PTR fs:__except_list
  00010	50		 push	 eax
  00011	64 89 25 00 00
	00 00		 mov	 DWORD PTR fs:__except_list, esp
  00018	51		 push	 ecx
  00019	89 4d f0	 mov	 DWORD PTR _this$[ebp], ecx
  0001c	c7 45 fc 00 00
	00 00		 mov	 DWORD PTR __$EHRec$[ebp+8], 0
  00023	8d 4d 08	 lea	 ecx, DWORD PTR _oldSkinPath$[ebp]
  00026	ff 15 00 00 00
	00		 call	 DWORD PTR __imp_??1?$basic_string@DU?$char_traits@D@std@@V?$allocator@D@2@@std@@QAE@XZ
  0002c	c7 45 fc ff ff
	ff ff		 mov	 DWORD PTR __$EHRec$[ebp+8], -1
  00033	8d 4d 24	 lea	 ecx, DWORD PTR _newSkinPath$[ebp]
  00036	ff 15 00 00 00
	00		 call	 DWORD PTR __imp_??1?$basic_string@DU?$char_traits@D@std@@V?$allocator@D@2@@std@@QAE@XZ
  0003c	8b 4d f4	 mov	 ecx, DWORD PTR __$EHRec$[ebp]
  0003f	64 89 0d 00 00
	00 00		 mov	 DWORD PTR fs:__except_list, ecx
  00046	8b e5		 mov	 esp, ebp
  00048	5d		 pop	 ebp
  00049	c2 38 00	 ret	 56			; 00000038H
_TEXT	ENDS
;	COMDAT text$x
text$x	SEGMENT
$L207422:
  00000	8d 4d 24	 lea	 ecx, DWORD PTR _newSkinPath$[ebp]
  00003	ff 25 00 00 00
	00		 jmp	 DWORD PTR __imp_??1?$basic_string@DU?$char_traits@D@std@@V?$allocator@D@2@@std@@QAE@XZ
__ehhandler$?ILayoutChangeOb_SkinChanged@ILayoutChangeObserver@@UAEXV?$basic_string@DU?$char_traits@D@std@@V?$allocator@D@2@@std@@0@Z:
  00009	b8 00 00 00 00	 mov	 eax, OFFSET FLAT:$T207425
  0000e	e9 00 00 00 00	 jmp	 ___CxxFrameHandler
text$x	ENDS
?ILayoutChangeOb_SkinChanged@ILayoutChangeObserver@@UAEXV?$basic_string@DU?$char_traits@D@std@@V?$allocator@D@2@@std@@0@Z ENDP ; ILayoutChangeObserver::ILayoutChangeOb_SkinChanged
; Function compile flags: /Odt
;	COMDAT ?ILayoutChangeOb_UpdateLayout@ILayoutChangeObserver@@UAEXPAUHWND__@@@Z
_TEXT	SEGMENT
_this$ = -4						; size = 4
_m_hWnd$ = 8						; size = 4
?ILayoutChangeOb_UpdateLayout@ILayoutChangeObserver@@UAEXPAUHWND__@@@Z PROC NEAR ; ILayoutChangeObserver::ILayoutChangeOb_UpdateLayout, COMDAT
; _this$ = ecx

; 14   : 	virtual void	ILayoutChangeOb_UpdateLayout(HWND m_hWnd){};

  00000	55		 push	 ebp
  00001	8b ec		 mov	 ebp, esp
  00003	51		 push	 ecx
  00004	89 4d fc	 mov	 DWORD PTR _this$[ebp], ecx
  00007	8b e5		 mov	 esp, ebp
  00009	5d		 pop	 ebp
  0000a	c2 04 00	 ret	 4
?ILayoutChangeOb_UpdateLayout@ILayoutChangeObserver@@UAEXPAUHWND__@@@Z ENDP ; ILayoutChangeObserver::ILayoutChangeOb_UpdateLayout
; Function compile flags: /Odt
_TEXT	ENDS
;	COMDAT ?ILayoutChangeOb_InitFinished@ILayoutChangeObserver@@UAEXXZ
_TEXT	SEGMENT
_this$ = -4						; size = 4
?ILayoutChangeOb_InitFinished@ILayoutChangeObserver@@UAEXXZ PROC NEAR ; ILayoutChangeObserver::ILayoutChangeOb_InitFinished, COMDAT
; _this$ = ecx

; 15   : 	virtual void	ILayoutChangeOb_InitFinished(){};

  00000	55		 push	 ebp
  00001	8b ec		 mov	 ebp, esp
  00003	51		 push	 ecx
  00004	89 4d fc	 mov	 DWORD PTR _this$[ebp], ecx
  00007	8b e5		 mov	 esp, ebp
  00009	5d		 pop	 ebp
  0000a	c3		 ret	 0
?ILayoutChangeOb_InitFinished@ILayoutChangeObserver@@UAEXXZ ENDP ; ILayoutChangeObserver::ILayoutChangeOb_InitFinished
_TEXT	ENDS
PUBLIC	??1IMessageObserver@@UAE@XZ			; IMessageObserver::~IMessageObserver
; Function compile flags: /Odt
;	COMDAT ??1ILayoutChangeObserver@@UAE@XZ
_TEXT	SEGMENT
_this$ = -4						; size = 4
??1ILayoutChangeObserver@@UAE@XZ PROC NEAR		; ILayoutChangeObserver::~ILayoutChangeObserver, COMDAT
; _this$ = ecx
  00000	55		 push	 ebp
  00001	8b ec		 mov	 ebp, esp
  00003	51		 push	 ecx
  00004	89 4d fc	 mov	 DWORD PTR _this$[ebp], ecx
  00007	8b 4d fc	 mov	 ecx, DWORD PTR _this$[ebp]
  0000a	e8 00 00 00 00	 call	 ??1IMessageObserver@@UAE@XZ ; IMessageObserver::~IMessageObserver
  0000f	8b e5		 mov	 esp, ebp
  00011	5d		 pop	 ebp
  00012	c3		 ret	 0
??1ILayoutChangeObserver@@UAE@XZ ENDP			; ILayoutChangeObserver::~ILayoutChangeObserver
_TEXT	ENDS
PUBLIC	??_7IHttpDownObserver@@6B@			; IHttpDownObserver::`vftable'
PUBLIC	??_GIHttpDownObserver@@UAEPAXI@Z		; IHttpDownObserver::`scalar deleting destructor'
PUBLIC	??_R4IHttpDownObserver@@6B@			; IHttpDownObserver::`RTTI Complete Object Locator'
PUBLIC	??_R3IHttpDownObserver@@8			; IHttpDownObserver::`RTTI Class Hierarchy Descriptor'
PUBLIC	??_R2IHttpDownObserver@@8			; IHttpDownObserver::`RTTI Base Class Array'
PUBLIC	??_R1A@?0A@A@IHttpDownObserver@@8		; IHttpDownObserver::`RTTI Base Class Descriptor at (0,-1,0,0)'
EXTRN	??_EIHttpDownObserver@@UAEPAXI@Z:NEAR		; IHttpDownObserver::`vector deleting destructor'
EXTRN	__purecall:NEAR
;	COMDAT ??_7IHttpDownObserver@@6B@
CONST	SEGMENT
??_7IHttpDownObserver@@6B@ DD FLAT:??_R4IHttpDownObserver@@6B@ ; IHttpDownObserver::`vftable'
	DD	FLAT:??_EIHttpDownObserver@@UAEPAXI@Z
	DD	FLAT:__purecall
	DD	FLAT:__purecall
	DD	FLAT:__purecall
	DD	FLAT:__purecall
CONST	ENDS
;	COMDAT ??_R4IHttpDownObserver@@6B@
rdata$r	SEGMENT
??_R4IHttpDownObserver@@6B@ DD 00H			; IHttpDownObserver::`RTTI Complete Object Locator'
	DD	00H
	DD	00H
	DD	FLAT:??_R0?AVIHttpDownObserver@@@8
	DD	FLAT:??_R3IHttpDownObserver@@8
rdata$r	ENDS
;	COMDAT ??_R3IHttpDownObserver@@8
rdata$r	SEGMENT
??_R3IHttpDownObserver@@8 DD 00H			; IHttpDownObserver::`RTTI Class Hierarchy Descriptor'
	DD	00H
	DD	02H
	DD	FLAT:??_R2IHttpDownObserver@@8
rdata$r	ENDS
;	COMDAT ??_R2IHttpDownObserver@@8
rdata$r	SEGMENT
??_R2IHttpDownObserver@@8 DD FLAT:??_R1A@?0A@A@IHttpDownObserver@@8 ; IHttpDownObserver::`RTTI Base Class Array'
	DD	FLAT:??_R1A@?0A@A@IMessageObserver@@8
rdata$r	ENDS
;	COMDAT ??_R1A@?0A@A@IHttpDownObserver@@8
rdata$r	SEGMENT
??_R1A@?0A@A@IHttpDownObserver@@8 DD FLAT:??_R0?AVIHttpDownObserver@@@8 ; IHttpDownObserver::`RTTI Base Class Descriptor at (0,-1,0,0)'
	DD	01H
	DD	00H
	DD	0ffffffffH
	DD	00H
	DD	00H
; Function compile flags: /Odt
rdata$r	ENDS
;	COMDAT ??0IHttpDownObserver@@QAE@XZ
_TEXT	SEGMENT
_this$ = -4						; size = 4
??0IHttpDownObserver@@QAE@XZ PROC NEAR			; IHttpDownObserver::IHttpDownObserver, COMDAT
; _this$ = ecx
  00000	55		 push	 ebp
  00001	8b ec		 mov	 ebp, esp
  00003	51		 push	 ecx
  00004	89 4d fc	 mov	 DWORD PTR _this$[ebp], ecx
  00007	8b 4d fc	 mov	 ecx, DWORD PTR _this$[ebp]
  0000a	e8 00 00 00 00	 call	 ??0IMessageObserver@@QAE@XZ
  0000f	8b 45 fc	 mov	 eax, DWORD PTR _this$[ebp]
  00012	c7 00 00 00 00
	00		 mov	 DWORD PTR [eax], OFFSET FLAT:??_7IHttpDownObserver@@6B@
  00018	8b 45 fc	 mov	 eax, DWORD PTR _this$[ebp]
  0001b	8b e5		 mov	 esp, ebp
  0001d	5d		 pop	 ebp
  0001e	c3		 ret	 0
??0IHttpDownObserver@@QAE@XZ ENDP			; IHttpDownObserver::IHttpDownObserver
; Function compile flags: /Odt
_TEXT	ENDS
;	COMDAT ??1IHttpDownObserver@@UAE@XZ
_TEXT	SEGMENT
_this$ = -4						; size = 4
??1IHttpDownObserver@@UAE@XZ PROC NEAR			; IHttpDownObserver::~IHttpDownObserver, COMDAT
; _this$ = ecx
  00000	55		 push	 ebp
  00001	8b ec		 mov	 ebp, esp
  00003	51		 push	 ecx
  00004	89 4d fc	 mov	 DWORD PTR _this$[ebp], ecx
  00007	8b 4d fc	 mov	 ecx, DWORD PTR _this$[ebp]
  0000a	e8 00 00 00 00	 call	 ??1IMessageObserver@@UAE@XZ ; IMessageObserver::~IMessageObserver
  0000f	8b e5		 mov	 esp, ebp
  00011	5d		 pop	 ebp
  00012	c3		 ret	 0
??1IHttpDownObserver@@UAE@XZ ENDP			; IHttpDownObserver::~IHttpDownObserver
_TEXT	ENDS
PUBLIC	??_R4IPanelChangeObserver@@6B@			; IPanelChangeObserver::`RTTI Complete Object Locator'
PUBLIC	??_R3IPanelChangeObserver@@8			; IPanelChangeObserver::`RTTI Class Hierarchy Descriptor'
PUBLIC	??_R2IPanelChangeObserver@@8			; IPanelChangeObserver::`RTTI Base Class Array'
PUBLIC	??_R1A@?0A@A@IPanelChangeObserver@@8		; IPanelChangeObserver::`RTTI Base Class Descriptor at (0,-1,0,0)'
PUBLIC	?IPanelChangeOb_ToFullScreen@IPanelChangeObserver@@UAEXPAVCWnd@@@Z ; IPanelChangeObserver::IPanelChangeOb_ToFullScreen
PUBLIC	?IPanelChangeOb_ExitFullScreen@IPanelChangeObserver@@UAEXPAVCWnd@@@Z ; IPanelChangeObserver::IPanelChangeOb_ExitFullScreen
PUBLIC	??_7IPanelChangeObserver@@6B@			; IPanelChangeObserver::`vftable'
PUBLIC	??_GIPanelChangeObserver@@UAEPAXI@Z		; IPanelChangeObserver::`scalar deleting destructor'
EXTRN	??_EIPanelChangeObserver@@UAEPAXI@Z:NEAR	; IPanelChangeObserver::`vector deleting destructor'
;	COMDAT ??_7IPanelChangeObserver@@6B@
CONST	SEGMENT
??_7IPanelChangeObserver@@6B@ DD FLAT:??_R4IPanelChangeObserver@@6B@ ; IPanelChangeObserver::`vftable'
	DD	FLAT:??_EIPanelChangeObserver@@UAEPAXI@Z
	DD	FLAT:?IPanelChangeOb_WindowMax@IPanelChangeObserver@@UAEXXZ
	DD	FLAT:?IPanelChangeOb_WindowMin@IPanelChangeObserver@@UAEXXZ
	DD	FLAT:?IPanelChangeOb_WindowRestore@IPanelChangeObserver@@UAEXXZ
	DD	FLAT:?IPanelChangeOb_WindowClose@IPanelChangeObserver@@UAEXXZ
	DD	FLAT:?IPanelChangeOb_ToFullScreen@IPanelChangeObserver@@UAEXPAVCWnd@@@Z
	DD	FLAT:?IPanelChangeOb_ExitFullScreen@IPanelChangeObserver@@UAEXPAVCWnd@@@Z
CONST	ENDS
;	COMDAT ??_R4IPanelChangeObserver@@6B@
rdata$r	SEGMENT
??_R4IPanelChangeObserver@@6B@ DD 00H			; IPanelChangeObserver::`RTTI Complete Object Locator'
	DD	00H
	DD	00H
	DD	FLAT:??_R0?AVIPanelChangeObserver@@@8
	DD	FLAT:??_R3IPanelChangeObserver@@8
rdata$r	ENDS
;	COMDAT ??_R3IPanelChangeObserver@@8
rdata$r	SEGMENT
??_R3IPanelChangeObserver@@8 DD 00H			; IPanelChangeObserver::`RTTI Class Hierarchy Descriptor'
	DD	00H
	DD	02H
	DD	FLAT:??_R2IPanelChangeObserver@@8
rdata$r	ENDS
;	COMDAT ??_R2IPanelChangeObserver@@8
rdata$r	SEGMENT
??_R2IPanelChangeObserver@@8 DD FLAT:??_R1A@?0A@A@IPanelChangeObserver@@8 ; IPanelChangeObserver::`RTTI Base Class Array'
	DD	FLAT:??_R1A@?0A@A@IMessageObserver@@8
rdata$r	ENDS
;	COMDAT ??_R1A@?0A@A@IPanelChangeObserver@@8
rdata$r	SEGMENT
??_R1A@?0A@A@IPanelChangeObserver@@8 DD FLAT:??_R0?AVIPanelChangeObserver@@@8 ; IPanelChangeObserver::`RTTI Base Class Descriptor at (0,-1,0,0)'
	DD	01H
	DD	00H
	DD	0ffffffffH
	DD	00H
	DD	00H
; Function compile flags: /Odt
rdata$r	ENDS
;	COMDAT ??0IPanelChangeObserver@@QAE@XZ
_TEXT	SEGMENT
_this$ = -4						; size = 4
??0IPanelChangeObserver@@QAE@XZ PROC NEAR		; IPanelChangeObserver::IPanelChangeObserver, COMDAT
; _this$ = ecx
  00000	55		 push	 ebp
  00001	8b ec		 mov	 ebp, esp
  00003	51		 push	 ecx
  00004	89 4d fc	 mov	 DWORD PTR _this$[ebp], ecx
  00007	8b 4d fc	 mov	 ecx, DWORD PTR _this$[ebp]
  0000a	e8 00 00 00 00	 call	 ??0IMessageObserver@@QAE@XZ
  0000f	8b 45 fc	 mov	 eax, DWORD PTR _this$[ebp]
  00012	c7 00 00 00 00
	00		 mov	 DWORD PTR [eax], OFFSET FLAT:??_7IPanelChangeObserver@@6B@
  00018	8b 45 fc	 mov	 eax, DWORD PTR _this$[ebp]
  0001b	8b e5		 mov	 esp, ebp
  0001d	5d		 pop	 ebp
  0001e	c3		 ret	 0
??0IPanelChangeObserver@@QAE@XZ ENDP			; IPanelChangeObserver::IPanelChangeObserver
; Function compile flags: /Odt
; File d:\boxgit\playbox\playbox\dev\prj\playbox\src\datainterface\ipanelchangeobserver.h
_TEXT	ENDS
;	COMDAT ?IPanelChangeOb_ToFullScreen@IPanelChangeObserver@@UAEXPAVCWnd@@@Z
_TEXT	SEGMENT
_this$ = -4						; size = 4
_pWnd$ = 8						; size = 4
?IPanelChangeOb_ToFullScreen@IPanelChangeObserver@@UAEXPAVCWnd@@@Z PROC NEAR ; IPanelChangeObserver::IPanelChangeOb_ToFullScreen, COMDAT
; _this$ = ecx

; 13   : 	virtual void	IPanelChangeOb_ToFullScreen( CWnd* pWnd ){};

  00000	55		 push	 ebp
  00001	8b ec		 mov	 ebp, esp
  00003	51		 push	 ecx
  00004	89 4d fc	 mov	 DWORD PTR _this$[ebp], ecx
  00007	8b e5		 mov	 esp, ebp
  00009	5d		 pop	 ebp
  0000a	c2 04 00	 ret	 4
?IPanelChangeOb_ToFullScreen@IPanelChangeObserver@@UAEXPAVCWnd@@@Z ENDP ; IPanelChangeObserver::IPanelChangeOb_ToFullScreen
; Function compile flags: /Odt
_TEXT	ENDS
;	COMDAT ?IPanelChangeOb_ExitFullScreen@IPanelChangeObserver@@UAEXPAVCWnd@@@Z
_TEXT	SEGMENT
_this$ = -4						; size = 4
_pWnd$ = 8						; size = 4
?IPanelChangeOb_ExitFullScreen@IPanelChangeObserver@@UAEXPAVCWnd@@@Z PROC NEAR ; IPanelChangeObserver::IPanelChangeOb_ExitFullScreen, COMDAT
; _this$ = ecx

; 14   : 	virtual void	IPanelChangeOb_ExitFullScreen( CWnd* pWnd ){};

  00000	55		 push	 ebp
  00001	8b ec		 mov	 ebp, esp
  00003	51		 push	 ecx
  00004	89 4d fc	 mov	 DWORD PTR _this$[ebp], ecx
  00007	8b e5		 mov	 esp, ebp
  00009	5d		 pop	 ebp
  0000a	c2 04 00	 ret	 4
?IPanelChangeOb_ExitFullScreen@IPanelChangeObserver@@UAEXPAVCWnd@@@Z ENDP ; IPanelChangeObserver::IPanelChangeOb_ExitFullScreen
; Function compile flags: /Odt
_TEXT	ENDS
;	COMDAT ??1IPanelChangeObserver@@UAE@XZ
_TEXT	SEGMENT
_this$ = -4						; size = 4
??1IPanelChangeObserver@@UAE@XZ PROC NEAR		; IPanelChangeObserver::~IPanelChangeObserver, COMDAT
; _this$ = ecx
  00000	55		 push	 ebp
  00001	8b ec		 mov	 ebp, esp
  00003	51		 push	 ecx
  00004	89 4d fc	 mov	 DWORD PTR _this$[ebp], ecx
  00007	8b 4d fc	 mov	 ecx, DWORD PTR _this$[ebp]
  0000a	e8 00 00 00 00	 call	 ??1IMessageObserver@@UAE@XZ ; IMessageObserver::~IMessageObserver
  0000f	8b e5		 mov	 esp, ebp
  00011	5d		 pop	 ebp
  00012	c3		 ret	 0
??1IPanelChangeObserver@@UAE@XZ ENDP			; IPanelChangeObserver::~IPanelChangeObserver
_TEXT	ENDS
;	COMDAT xdata$x
xdata$x	SEGMENT
$T207461 DD	0ffffffffH
	DD	FLAT:$L207453
	DD	00H
	DD	FLAT:$L207454
	DD	01H
	DD	FLAT:$L207455
	DD	02H
	DD	FLAT:$L207456
$T207459 DD	019930520H
	DD	04H
	DD	FLAT:$T207461
	DD	2 DUP(00H)
	DD	2 DUP(00H)
; Function compile flags: /Odt
xdata$x	ENDS
;	COMDAT ??0SWF_GAME@@QAE@XZ
_TEXT	SEGMENT
_this$ = -16						; size = 4
__$EHRec$ = -12						; size = 12
??0SWF_GAME@@QAE@XZ PROC NEAR				; SWF_GAME::SWF_GAME, COMDAT
; _this$ = ecx
  00000	55		 push	 ebp
  00001	8b ec		 mov	 ebp, esp
  00003	6a ff		 push	 -1
  00005	68 00 00 00 00	 push	 __ehhandler$??0SWF_GAME@@QAE@XZ
  0000a	64 a1 00 00 00
	00		 mov	 eax, DWORD PTR fs:__except_list
  00010	50		 push	 eax
  00011	64 89 25 00 00
	00 00		 mov	 DWORD PTR fs:__except_list, esp
  00018	51		 push	 ecx
  00019	89 4d f0	 mov	 DWORD PTR _this$[ebp], ecx
  0001c	8b 4d f0	 mov	 ecx, DWORD PTR _this$[ebp]
  0001f	ff 15 00 00 00
	00		 call	 DWORD PTR __imp_??0?$basic_string@DU?$char_traits@D@std@@V?$allocator@D@2@@std@@QAE@XZ
  00025	c7 45 fc 00 00
	00 00		 mov	 DWORD PTR __$EHRec$[ebp+8], 0
  0002c	8b 4d f0	 mov	 ecx, DWORD PTR _this$[ebp]
  0002f	83 c1 1c	 add	 ecx, 28			; 0000001cH
  00032	ff 15 00 00 00
	00		 call	 DWORD PTR __imp_??0?$basic_string@DU?$char_traits@D@std@@V?$allocator@D@2@@std@@QAE@XZ
  00038	c6 45 fc 01	 mov	 BYTE PTR __$EHRec$[ebp+8], 1
  0003c	8b 4d f0	 mov	 ecx, DWORD PTR _this$[ebp]
  0003f	83 c1 38	 add	 ecx, 56			; 00000038H
  00042	ff 15 00 00 00
	00		 call	 DWORD PTR __imp_??0?$basic_string@DU?$char_traits@D@std@@V?$allocator@D@2@@std@@QAE@XZ
  00048	c6 45 fc 02	 mov	 BYTE PTR __$EHRec$[ebp+8], 2
  0004c	8b 4d f0	 mov	 ecx, DWORD PTR _this$[ebp]
  0004f	83 c1 54	 add	 ecx, 84			; 00000054H
  00052	ff 15 00 00 00
	00		 call	 DWORD PTR __imp_??0?$basic_string@DU?$char_traits@D@std@@V?$allocator@D@2@@std@@QAE@XZ
  00058	c6 45 fc 03	 mov	 BYTE PTR __$EHRec$[ebp+8], 3
  0005c	8b 4d f0	 mov	 ecx, DWORD PTR _this$[ebp]
  0005f	83 c1 70	 add	 ecx, 112		; 00000070H
  00062	ff 15 00 00 00
	00		 call	 DWORD PTR __imp_??0?$basic_string@DU?$char_traits@D@std@@V?$allocator@D@2@@std@@QAE@XZ
  00068	c7 45 fc ff ff
	ff ff		 mov	 DWORD PTR __$EHRec$[ebp+8], -1
  0006f	8b 45 f0	 mov	 eax, DWORD PTR _this$[ebp]
  00072	8b 4d f4	 mov	 ecx, DWORD PTR __$EHRec$[ebp]
  00075	64 89 0d 00 00
	00 00		 mov	 DWORD PTR fs:__except_list, ecx
  0007c	8b e5		 mov	 esp, ebp
  0007e	5d		 pop	 ebp
  0007f	c3		 ret	 0
_TEXT	ENDS
;	COMDAT text$x
text$x	SEGMENT
$L207453:
  00000	8b 4d f0	 mov	 ecx, DWORD PTR _this$[ebp]
  00003	ff 25 00 00 00
	00		 jmp	 DWORD PTR __imp_??1?$basic_string@DU?$char_traits@D@std@@V?$allocator@D@2@@std@@QAE@XZ
$L207454:
  00009	8b 4d f0	 mov	 ecx, DWORD PTR _this$[ebp]
  0000c	83 c1 1c	 add	 ecx, 28			; 0000001cH
  0000f	ff 25 00 00 00
	00		 jmp	 DWORD PTR __imp_??1?$basic_string@DU?$char_traits@D@std@@V?$allocator@D@2@@std@@QAE@XZ
$L207455:
  00015	8b 4d f0	 mov	 ecx, DWORD PTR _this$[ebp]
  00018	83 c1 38	 add	 ecx, 56			; 00000038H
  0001b	ff 25 00 00 00
	00		 jmp	 DWORD PTR __imp_??1?$basic_string@DU?$char_traits@D@std@@V?$allocator@D@2@@std@@QAE@XZ
$L207456:
  00021	8b 4d f0	 mov	 ecx, DWORD PTR _this$[ebp]
  00024	83 c1 54	 add	 ecx, 84			; 00000054H
  00027	ff 25 00 00 00
	00		 jmp	 DWORD PTR __imp_??1?$basic_string@DU?$char_traits@D@std@@V?$allocator@D@2@@std@@QAE@XZ
__ehhandler$??0SWF_GAME@@QAE@XZ:
  0002d	b8 00 00 00 00	 mov	 eax, OFFSET FLAT:$T207459
  00032	e9 00 00 00 00	 jmp	 ___CxxFrameHandler
text$x	ENDS
??0SWF_GAME@@QAE@XZ ENDP				; SWF_GAME::SWF_GAME
;	COMDAT xdata$x
xdata$x	SEGMENT
$T207474 DD	0ffffffffH
	DD	FLAT:$L207466
	DD	00H
	DD	FLAT:$L207467
	DD	01H
	DD	FLAT:$L207468
	DD	02H
	DD	FLAT:$L207469
$T207472 DD	019930520H
	DD	04H
	DD	FLAT:$T207474
	DD	2 DUP(00H)
	DD	2 DUP(00H)
; Function compile flags: /Odt
xdata$x	ENDS
;	COMDAT ??1SWF_GAME@@QAE@XZ
_TEXT	SEGMENT
_this$ = -16						; size = 4
__$EHRec$ = -12						; size = 12
??1SWF_GAME@@QAE@XZ PROC NEAR				; SWF_GAME::~SWF_GAME, COMDAT
; _this$ = ecx
  00000	55		 push	 ebp
  00001	8b ec		 mov	 ebp, esp
  00003	6a ff		 push	 -1
  00005	68 00 00 00 00	 push	 __ehhandler$??1SWF_GAME@@QAE@XZ
  0000a	64 a1 00 00 00
	00		 mov	 eax, DWORD PTR fs:__except_list
  00010	50		 push	 eax
  00011	64 89 25 00 00
	00 00		 mov	 DWORD PTR fs:__except_list, esp
  00018	51		 push	 ecx
  00019	89 4d f0	 mov	 DWORD PTR _this$[ebp], ecx
  0001c	c7 45 fc 03 00
	00 00		 mov	 DWORD PTR __$EHRec$[ebp+8], 3
  00023	8b 4d f0	 mov	 ecx, DWORD PTR _this$[ebp]
  00026	83 c1 70	 add	 ecx, 112		; 00000070H
  00029	ff 15 00 00 00
	00		 call	 DWORD PTR __imp_??1?$basic_string@DU?$char_traits@D@std@@V?$allocator@D@2@@std@@QAE@XZ
  0002f	c6 45 fc 02	 mov	 BYTE PTR __$EHRec$[ebp+8], 2
  00033	8b 4d f0	 mov	 ecx, DWORD PTR _this$[ebp]
  00036	83 c1 54	 add	 ecx, 84			; 00000054H
  00039	ff 15 00 00 00
	00		 call	 DWORD PTR __imp_??1?$basic_string@DU?$char_traits@D@std@@V?$allocator@D@2@@std@@QAE@XZ
  0003f	c6 45 fc 01	 mov	 BYTE PTR __$EHRec$[ebp+8], 1
  00043	8b 4d f0	 mov	 ecx, DWORD PTR _this$[ebp]
  00046	83 c1 38	 add	 ecx, 56			; 00000038H
  00049	ff 15 00 00 00
	00		 call	 DWORD PTR __imp_??1?$basic_string@DU?$char_traits@D@std@@V?$allocator@D@2@@std@@QAE@XZ
  0004f	c6 45 fc 00	 mov	 BYTE PTR __$EHRec$[ebp+8], 0
  00053	8b 4d f0	 mov	 ecx, DWORD PTR _this$[ebp]
  00056	83 c1 1c	 add	 ecx, 28			; 0000001cH
  00059	ff 15 00 00 00
	00		 call	 DWORD PTR __imp_??1?$basic_string@DU?$char_traits@D@std@@V?$allocator@D@2@@std@@QAE@XZ
  0005f	c7 45 fc ff ff
	ff ff		 mov	 DWORD PTR __$EHRec$[ebp+8], -1
  00066	8b 4d f0	 mov	 ecx, DWORD PTR _this$[ebp]
  00069	ff 15 00 00 00
	00		 call	 DWORD PTR __imp_??1?$basic_string@DU?$char_traits@D@std@@V?$allocator@D@2@@std@@QAE@XZ
  0006f	8b 4d f4	 mov	 ecx, DWORD PTR __$EHRec$[ebp]
  00072	64 89 0d 00 00
	00 00		 mov	 DWORD PTR fs:__except_list, ecx
  00079	8b e5		 mov	 esp, ebp
  0007b	5d		 pop	 ebp
  0007c	c3		 ret	 0
_TEXT	ENDS
;	COMDAT text$x
text$x	SEGMENT
$L207466:
  00000	8b 4d f0	 mov	 ecx, DWORD PTR _this$[ebp]
  00003	ff 25 00 00 00
	00		 jmp	 DWORD PTR __imp_??1?$basic_string@DU?$char_traits@D@std@@V?$allocator@D@2@@std@@QAE@XZ
$L207467:
  00009	8b 4d f0	 mov	 ecx, DWORD PTR _this$[ebp]
  0000c	83 c1 1c	 add	 ecx, 28			; 0000001cH
  0000f	ff 25 00 00 00
	00		 jmp	 DWORD PTR __imp_??1?$basic_string@DU?$char_traits@D@std@@V?$allocator@D@2@@std@@QAE@XZ
$L207468:
  00015	8b 4d f0	 mov	 ecx, DWORD PTR _this$[ebp]
  00018	83 c1 38	 add	 ecx, 56			; 00000038H
  0001b	ff 25 00 00 00
	00		 jmp	 DWORD PTR __imp_??1?$basic_string@DU?$char_traits@D@std@@V?$allocator@D@2@@std@@QAE@XZ
$L207469:
  00021	8b 4d f0	 mov	 ecx, DWORD PTR _this$[ebp]
  00024	83 c1 54	 add	 ecx, 84			; 00000054H
  00027	ff 25 00 00 00
	00		 jmp	 DWORD PTR __imp_??1?$basic_string@DU?$char_traits@D@std@@V?$allocator@D@2@@std@@QAE@XZ
__ehhandler$??1SWF_GAME@@QAE@XZ:
  0002d	b8 00 00 00 00	 mov	 eax, OFFSET FLAT:$T207472
  00032	e9 00 00 00 00	 jmp	 ___CxxFrameHandler
text$x	ENDS
??1SWF_GAME@@QAE@XZ ENDP				; SWF_GAME::~SWF_GAME
PUBLIC	?Create@CShockwaveFlash@@UAEHPBD0KABUtagRECT@@PAVCWnd@@IPAUCCreateContext@@@Z ; CShockwaveFlash::Create
PUBLIC	??_R4CShockwaveFlash@@6B@			; CShockwaveFlash::`RTTI Complete Object Locator'
PUBLIC	??_R0?AVCShockwaveFlash@@@8			; CShockwaveFlash `RTTI Type Descriptor'
PUBLIC	??_R3CShockwaveFlash@@8				; CShockwaveFlash::`RTTI Class Hierarchy Descriptor'
PUBLIC	??_R2CShockwaveFlash@@8				; CShockwaveFlash::`RTTI Base Class Array'
PUBLIC	??_R1A@?0A@A@CShockwaveFlash@@8			; CShockwaveFlash::`RTTI Base Class Descriptor at (0,-1,0,0)'
PUBLIC	??_7CShockwaveFlash@@6B@			; CShockwaveFlash::`vftable'
PUBLIC	??_GCShockwaveFlash@@UAEPAXI@Z			; CShockwaveFlash::`scalar deleting destructor'
EXTRN	?GetMessageMap@CWnd@@MBEPBUAFX_MSGMAP@@XZ:NEAR	; CWnd::GetMessageMap
EXTRN	?GetRuntimeClass@CShockwaveFlash@@UBEPAUCRuntimeClass@@XZ:NEAR ; CShockwaveFlash::GetRuntimeClass
EXTRN	??_ECShockwaveFlash@@UAEPAXI@Z:NEAR		; CShockwaveFlash::`vector deleting destructor'
EXTRN	??0CWnd@@QAE@XZ:NEAR				; CWnd::CWnd
;	COMDAT ??_7CShockwaveFlash@@6B@
CONST	SEGMENT
??_7CShockwaveFlash@@6B@ DD FLAT:??_R4CShockwaveFlash@@6B@ ; CShockwaveFlash::`vftable'
	DD	FLAT:?GetRuntimeClass@CShockwaveFlash@@UBEPAUCRuntimeClass@@XZ
	DD	FLAT:??_ECShockwaveFlash@@UAEPAXI@Z
	DD	FLAT:?Serialize@CObject@@UAEXAAVCArchive@@@Z
	DD	FLAT:?AssertValid@CObject@@UBEXXZ
	DD	FLAT:?Dump@CObject@@UBEXAAVCDumpContext@@@Z
	DD	FLAT:?OnCmdMsg@CCmdTarget@@UAEHIHPAXPAUAFX_CMDHANDLERINFO@@@Z
	DD	FLAT:?OnFinalRelease@CWnd@@UAEXXZ
	DD	FLAT:?IsInvokeAllowed@CCmdTarget@@UAEHJ@Z
	DD	FLAT:?GetDispatchIID@CCmdTarget@@UAEHPAU_GUID@@@Z
	DD	FLAT:?GetTypeInfoCount@CCmdTarget@@UAEIXZ
	DD	FLAT:?GetTypeLibCache@CCmdTarget@@UAEPAVCTypeLibCache@@XZ
	DD	FLAT:?GetTypeLib@CCmdTarget@@UAEJKPAPAUITypeLib@@@Z
	DD	FLAT:?GetMessageMap@CWnd@@MBEPBUAFX_MSGMAP@@XZ
	DD	FLAT:?GetCommandMap@CCmdTarget@@MBEPBUAFX_OLECMDMAP@@XZ
	DD	FLAT:?GetDispatchMap@CCmdTarget@@MBEPBUAFX_DISPMAP@@XZ
	DD	FLAT:?GetConnectionMap@CCmdTarget@@MBEPBUAFX_CONNECTIONMAP@@XZ
	DD	FLAT:?GetInterfaceMap@CWnd@@MBEPBUAFX_INTERFACEMAP@@XZ
	DD	FLAT:?GetEventSinkMap@CCmdTarget@@MBEPBUAFX_EVENTSINKMAP@@XZ
	DD	FLAT:?OnCreateAggregates@CCmdTarget@@UAEHXZ
	DD	FLAT:?GetInterfaceHook@CCmdTarget@@UAEPAUIUnknown@@PBX@Z
	DD	FLAT:?GetExtraConnectionPoints@CCmdTarget@@MAEHPAVCPtrArray@@@Z
	DD	FLAT:?GetConnectionHook@CCmdTarget@@MAEPAUIConnectionPoint@@ABU_GUID@@@Z
	DD	FLAT:?PreSubclassWindow@CWnd@@UAEXXZ
	DD	FLAT:?Create@CShockwaveFlash@@UAEHPBD0KABUtagRECT@@PAVCWnd@@IPAUCCreateContext@@@Z
	DD	FLAT:?CreateEx@CWnd@@UAEHKPBD0KABUtagRECT@@PAV1@IPAX@Z
	DD	FLAT:?CreateEx@CWnd@@UAEHKPBD0KHHHHPAUHWND__@@PAUHMENU__@@PAX@Z
	DD	FLAT:?DestroyWindow@CWnd@@UAEHXZ
	DD	FLAT:?PreCreateWindow@CWnd@@UAEHAAUtagCREATESTRUCTA@@@Z
	DD	FLAT:?CalcWindowRect@CWnd@@UAEXPAUtagRECT@@I@Z
	DD	FLAT:?OnToolHitTest@CWnd@@UBEHVCPoint@@PAUtagTOOLINFOA@@@Z
	DD	FLAT:?GetScrollBarCtrl@CWnd@@UBEPAVCScrollBar@@H@Z
	DD	FLAT:?WinHelpA@CWnd@@UAEXKI@Z
	DD	FLAT:?HtmlHelpA@CWnd@@UAEXKI@Z
	DD	FLAT:?WinHelpInternal@CWnd@@UAEXKI@Z
	DD	FLAT:?ContinueModal@CWnd@@UAEHXZ
	DD	FLAT:?EndModalLoop@CWnd@@UAEXH@Z
	DD	FLAT:?EnsureStdObj@CWnd@@UAEJXZ
	DD	FLAT:?get_accParent@CWnd@@UAEJPAPAUIDispatch@@@Z
	DD	FLAT:?get_accChildCount@CWnd@@UAEJPAJ@Z
	DD	FLAT:?get_accChild@CWnd@@UAEJUtagVARIANT@@PAPAUIDispatch@@@Z
	DD	FLAT:?get_accName@CWnd@@UAEJUtagVARIANT@@PAPA_W@Z
	DD	FLAT:?get_accValue@CWnd@@UAEJUtagVARIANT@@PAPA_W@Z
	DD	FLAT:?get_accDescription@CWnd@@UAEJUtagVARIANT@@PAPA_W@Z
	DD	FLAT:?get_accRole@CWnd@@UAEJUtagVARIANT@@PAU2@@Z
	DD	FLAT:?get_accState@CWnd@@UAEJUtagVARIANT@@PAU2@@Z
	DD	FLAT:?get_accHelp@CWnd@@UAEJUtagVARIANT@@PAPA_W@Z
	DD	FLAT:?get_accHelpTopic@CWnd@@UAEJPAPA_WUtagVARIANT@@PAJ@Z
	DD	FLAT:?get_accKeyboardShortcut@CWnd@@UAEJUtagVARIANT@@PAPA_W@Z
	DD	FLAT:?get_accFocus@CWnd@@UAEJPAUtagVARIANT@@@Z
	DD	FLAT:?get_accSelection@CWnd@@UAEJPAUtagVARIANT@@@Z
	DD	FLAT:?get_accDefaultAction@CWnd@@UAEJUtagVARIANT@@PAPA_W@Z
	DD	FLAT:?accSelect@CWnd@@UAEJJUtagVARIANT@@@Z
	DD	FLAT:?accLocation@CWnd@@UAEJPAJ000UtagVARIANT@@@Z
	DD	FLAT:?accNavigate@CWnd@@UAEJJUtagVARIANT@@PAU2@@Z
	DD	FLAT:?accHitTest@CWnd@@UAEJJJPAUtagVARIANT@@@Z
	DD	FLAT:?accDoDefaultAction@CWnd@@UAEJUtagVARIANT@@@Z
	DD	FLAT:?put_accName@CWnd@@UAEJUtagVARIANT@@PA_W@Z
	DD	FLAT:?put_accValue@CWnd@@UAEJUtagVARIANT@@PA_W@Z
	DD	FLAT:?SetProxy@CWnd@@UAEJPAUIAccessibleProxy@@@Z
	DD	FLAT:?CreateAccessibleProxy@CWnd@@UAEJIJPAJ@Z
	DD	FLAT:?OnCommand@CWnd@@MAEHIJ@Z
	DD	FLAT:?OnNotify@CWnd@@MAEHIJPAJ@Z
	DD	FLAT:?GetSuperWndProcAddr@CWnd@@MAEPAP6GJPAUHWND__@@IIJ@ZXZ
	DD	FLAT:?DoDataExchange@CWnd@@MAEXPAVCDataExchange@@@Z
	DD	FLAT:?BeginModalState@CWnd@@UAEXXZ
	DD	FLAT:?EndModalState@CWnd@@UAEXXZ
	DD	FLAT:?PreTranslateMessage@CWnd@@UAEHPAUtagMSG@@@Z
	DD	FLAT:?OnAmbientProperty@CWnd@@UAEHPAVCOleControlSite@@JPAUtagVARIANT@@@Z
	DD	FLAT:?WindowProc@CWnd@@MAEJIIJ@Z
	DD	FLAT:?OnWndMsg@CWnd@@MAEHIIJPAJ@Z
	DD	FLAT:?DefWindowProcA@CWnd@@MAEJIIJ@Z
	DD	FLAT:?PostNcDestroy@CWnd@@MAEXXZ
	DD	FLAT:?OnChildNotify@CWnd@@MAEHIIJPAJ@Z
	DD	FLAT:?CheckAutoCenter@CWnd@@UAEHXZ
	DD	FLAT:?IsFrameWnd@CWnd@@UBEHXZ
	DD	FLAT:?CreateControlContainer@CWnd@@MAEHPAPAVCOleControlContainer@@@Z
	DD	FLAT:?CreateControlSite@CWnd@@MAEHPAVCOleControlContainer@@PAPAVCOleControlSite@@IABU_GUID@@@Z
	DD	FLAT:?SetOccDialogInfo@CWnd@@MAEHPAU_AFX_OCC_DIALOG_INFO@@@Z
CONST	ENDS
;	COMDAT ??_R4CShockwaveFlash@@6B@
rdata$r	SEGMENT
??_R4CShockwaveFlash@@6B@ DD 00H			; CShockwaveFlash::`RTTI Complete Object Locator'
	DD	00H
	DD	00H
	DD	FLAT:??_R0?AVCShockwaveFlash@@@8
	DD	FLAT:??_R3CShockwaveFlash@@8
rdata$r	ENDS
;	COMDAT ??_R0?AVCShockwaveFlash@@@8
_DATA	SEGMENT
??_R0?AVCShockwaveFlash@@@8 DD FLAT:??_7type_info@@6B@	; CShockwaveFlash `RTTI Type Descriptor'
	DD	00H
	DB	'.?AVCShockwaveFlash@@', 00H
_DATA	ENDS
;	COMDAT ??_R3CShockwaveFlash@@8
rdata$r	SEGMENT
??_R3CShockwaveFlash@@8 DD 00H				; CShockwaveFlash::`RTTI Class Hierarchy Descriptor'
	DD	00H
	DD	04H
	DD	FLAT:??_R2CShockwaveFlash@@8
rdata$r	ENDS
;	COMDAT ??_R2CShockwaveFlash@@8
rdata$r	SEGMENT
??_R2CShockwaveFlash@@8 DD FLAT:??_R1A@?0A@A@CShockwaveFlash@@8 ; CShockwaveFlash::`RTTI Base Class Array'
	DD	FLAT:??_R1A@?0A@A@CWnd@@8
	DD	FLAT:??_R1A@?0A@A@CCmdTarget@@8
	DD	FLAT:??_R1A@?0A@A@CObject@@8
rdata$r	ENDS
;	COMDAT ??_R1A@?0A@A@CShockwaveFlash@@8
rdata$r	SEGMENT
??_R1A@?0A@A@CShockwaveFlash@@8 DD FLAT:??_R0?AVCShockwaveFlash@@@8 ; CShockwaveFlash::`RTTI Base Class Descriptor at (0,-1,0,0)'
	DD	03H
	DD	00H
	DD	0ffffffffH
	DD	00H
	DD	00H
; Function compile flags: /Odt
rdata$r	ENDS
;	COMDAT ??0CShockwaveFlash@@QAE@XZ
_TEXT	SEGMENT
_this$ = -4						; size = 4
??0CShockwaveFlash@@QAE@XZ PROC NEAR			; CShockwaveFlash::CShockwaveFlash, COMDAT
; _this$ = ecx
  00000	55		 push	 ebp
  00001	8b ec		 mov	 ebp, esp
  00003	51		 push	 ecx
  00004	89 4d fc	 mov	 DWORD PTR _this$[ebp], ecx
  00007	8b 4d fc	 mov	 ecx, DWORD PTR _this$[ebp]
  0000a	e8 00 00 00 00	 call	 ??0CWnd@@QAE@XZ		; CWnd::CWnd
  0000f	8b 45 fc	 mov	 eax, DWORD PTR _this$[ebp]
  00012	c7 00 00 00 00
	00		 mov	 DWORD PTR [eax], OFFSET FLAT:??_7CShockwaveFlash@@6B@
  00018	8b 45 fc	 mov	 eax, DWORD PTR _this$[ebp]
  0001b	8b e5		 mov	 esp, ebp
  0001d	5d		 pop	 ebp
  0001e	c3		 ret	 0
??0CShockwaveFlash@@QAE@XZ ENDP				; CShockwaveFlash::CShockwaveFlash
_TEXT	ENDS
PUBLIC	?GetClsid@CShockwaveFlash@@QAEABU_GUID@@XZ	; CShockwaveFlash::GetClsid
EXTRN	?CreateControl@CWnd@@QAEHABU_GUID@@PBDKABUtagRECT@@PAV1@IPAVCFile@@HPA_W@Z:NEAR ; CWnd::CreateControl
; Function compile flags: /Odt
; File d:\boxgit\playbox\playbox\dev\prj\playbox\src\gui\commoncontrol\shockwaveflash.h
;	COMDAT ?Create@CShockwaveFlash@@UAEHPBD0KABUtagRECT@@PAVCWnd@@IPAUCCreateContext@@@Z
_TEXT	SEGMENT
_this$ = -4						; size = 4
_lpszClassName$ = 8					; size = 4
_lpszWindowName$ = 12					; size = 4
_dwStyle$ = 16						; size = 4
_rect$ = 20						; size = 4
_pParentWnd$ = 24					; size = 4
_nID$ = 28						; size = 4
_pContext$ = 32						; size = 4
?Create@CShockwaveFlash@@UAEHPBD0KABUtagRECT@@PAVCWnd@@IPAUCCreateContext@@@Z PROC NEAR ; CShockwaveFlash::Create, COMDAT
; _this$ = ecx

; 33   : 	{ return CreateControl(GetClsid(), lpszWindowName, dwStyle, rect, pParentWnd, nID); }

  00000	55		 push	 ebp
  00001	8b ec		 mov	 ebp, esp
  00003	51		 push	 ecx
  00004	89 4d fc	 mov	 DWORD PTR _this$[ebp], ecx
  00007	6a 00		 push	 0
  00009	6a 00		 push	 0
  0000b	6a 00		 push	 0
  0000d	8b 45 1c	 mov	 eax, DWORD PTR _nID$[ebp]
  00010	50		 push	 eax
  00011	8b 4d 18	 mov	 ecx, DWORD PTR _pParentWnd$[ebp]
  00014	51		 push	 ecx
  00015	8b 55 14	 mov	 edx, DWORD PTR _rect$[ebp]
  00018	52		 push	 edx
  00019	8b 45 10	 mov	 eax, DWORD PTR _dwStyle$[ebp]
  0001c	50		 push	 eax
  0001d	8b 4d 0c	 mov	 ecx, DWORD PTR _lpszWindowName$[ebp]
  00020	51		 push	 ecx
  00021	8b 4d fc	 mov	 ecx, DWORD PTR _this$[ebp]
  00024	e8 00 00 00 00	 call	 ?GetClsid@CShockwaveFlash@@QAEABU_GUID@@XZ ; CShockwaveFlash::GetClsid
  00029	50		 push	 eax
  0002a	8b 4d fc	 mov	 ecx, DWORD PTR _this$[ebp]
  0002d	e8 00 00 00 00	 call	 ?CreateControl@CWnd@@QAEHABU_GUID@@PBDKABUtagRECT@@PAV1@IPAVCFile@@HPA_W@Z ; CWnd::CreateControl
  00032	8b e5		 mov	 esp, ebp
  00034	5d		 pop	 ebp
  00035	c2 1c 00	 ret	 28			; 0000001cH
?Create@CShockwaveFlash@@UAEHPBD0KABUtagRECT@@PAVCWnd@@IPAUCCreateContext@@@Z ENDP ; CShockwaveFlash::Create
_TEXT	ENDS
PUBLIC	?clsid@?1??GetClsid@CShockwaveFlash@@QAEABU_GUID@@XZ@4U3@B ; `CShockwaveFlash::GetClsid'::`2'::clsid
;	COMDAT ?clsid@?1??GetClsid@CShockwaveFlash@@QAEABU_GUID@@XZ@4U3@B
CONST	SEGMENT
?clsid@?1??GetClsid@CShockwaveFlash@@QAEABU_GUID@@XZ@4U3@B DD 0d27cdb6eH ; `CShockwaveFlash::GetClsid'::`2'::clsid
	DW	0ae6dH
	DW	011cfH
	DB	096H
	DB	0b8H
	DB	044H
	DB	045H
	DB	053H
	DB	054H
	DB	00H
	DB	00H
; Function compile flags: /Odt
CONST	ENDS
;	COMDAT ?GetClsid@CShockwaveFlash@@QAEABU_GUID@@XZ
_TEXT	SEGMENT
_this$ = -4						; size = 4
?GetClsid@CShockwaveFlash@@QAEABU_GUID@@XZ PROC NEAR	; CShockwaveFlash::GetClsid, COMDAT
; _this$ = ecx

; 23   : 	{

  00000	55		 push	 ebp
  00001	8b ec		 mov	 ebp, esp
  00003	51		 push	 ecx
  00004	89 4d fc	 mov	 DWORD PTR _this$[ebp], ecx

; 24   : 		static CLSID const clsid
; 25   : 			= { 0xd27cdb6e, 0xae6d, 0x11cf, { 0x96, 0xb8, 0x44, 0x45, 0x53, 0x54, 0x0, 0x0 } };
; 26   : 		return clsid;

  00007	b8 00 00 00 00	 mov	 eax, OFFSET FLAT:?clsid@?1??GetClsid@CShockwaveFlash@@QAEABU_GUID@@XZ@4U3@B ; `CShockwaveFlash::GetClsid'::`2'::clsid

; 27   : 	}

  0000c	8b e5		 mov	 esp, ebp
  0000e	5d		 pop	 ebp
  0000f	c3		 ret	 0
?GetClsid@CShockwaveFlash@@QAEABU_GUID@@XZ ENDP		; CShockwaveFlash::GetClsid
_TEXT	ENDS
EXTRN	??3@YAXPAX@Z:NEAR				; operator delete
; Function compile flags: /Odt
;	COMDAT ??_GILayoutChangeObserver@@UAEPAXI@Z
_TEXT	SEGMENT
_this$ = -4						; size = 4
___flags$ = 8						; size = 4
??_GILayoutChangeObserver@@UAEPAXI@Z PROC NEAR		; ILayoutChangeObserver::`scalar deleting destructor', COMDAT
; _this$ = ecx
  00000	55		 push	 ebp
  00001	8b ec		 mov	 ebp, esp
  00003	51		 push	 ecx
  00004	89 4d fc	 mov	 DWORD PTR _this$[ebp], ecx
  00007	8b 4d fc	 mov	 ecx, DWORD PTR _this$[ebp]
  0000a	e8 00 00 00 00	 call	 ??1ILayoutChangeObserver@@UAE@XZ
  0000f	8b 45 08	 mov	 eax, DWORD PTR ___flags$[ebp]
  00012	83 e0 01	 and	 eax, 1
  00015	74 0c		 je	 SHORT $L204415
  00017	8b 4d fc	 mov	 ecx, DWORD PTR _this$[ebp]
  0001a	51		 push	 ecx
  0001b	e8 00 00 00 00	 call	 ??3@YAXPAX@Z		; operator delete
  00020	83 c4 04	 add	 esp, 4
$L204415:
  00023	8b 45 fc	 mov	 eax, DWORD PTR _this$[ebp]
  00026	8b e5		 mov	 esp, ebp
  00028	5d		 pop	 ebp
  00029	c2 04 00	 ret	 4
??_GILayoutChangeObserver@@UAEPAXI@Z ENDP		; ILayoutChangeObserver::`scalar deleting destructor'
_TEXT	ENDS
PUBLIC	??_R4IMessageObserver@@6B@			; IMessageObserver::`RTTI Complete Object Locator'
PUBLIC	??_R3IMessageObserver@@8			; IMessageObserver::`RTTI Class Hierarchy Descriptor'
PUBLIC	??_R2IMessageObserver@@8			; IMessageObserver::`RTTI Base Class Array'
PUBLIC	??_7IMessageObserver@@6B@			; IMessageObserver::`vftable'
PUBLIC	??_GIMessageObserver@@UAEPAXI@Z			; IMessageObserver::`scalar deleting destructor'
EXTRN	??_EIMessageObserver@@UAEPAXI@Z:NEAR		; IMessageObserver::`vector deleting destructor'
;	COMDAT ??_7IMessageObserver@@6B@
CONST	SEGMENT
??_7IMessageObserver@@6B@ DD FLAT:??_R4IMessageObserver@@6B@ ; IMessageObserver::`vftable'
	DD	FLAT:??_EIMessageObserver@@UAEPAXI@Z
CONST	ENDS
;	COMDAT ??_R4IMessageObserver@@6B@
rdata$r	SEGMENT
??_R4IMessageObserver@@6B@ DD 00H			; IMessageObserver::`RTTI Complete Object Locator'
	DD	00H
	DD	00H
	DD	FLAT:??_R0?AVIMessageObserver@@@8
	DD	FLAT:??_R3IMessageObserver@@8
rdata$r	ENDS
;	COMDAT ??_R3IMessageObserver@@8
rdata$r	SEGMENT
??_R3IMessageObserver@@8 DD 00H				; IMessageObserver::`RTTI Class Hierarchy Descriptor'
	DD	00H
	DD	01H
	DD	FLAT:??_R2IMessageObserver@@8
rdata$r	ENDS
;	COMDAT ??_R2IMessageObserver@@8
rdata$r	SEGMENT
??_R2IMessageObserver@@8 DD FLAT:??_R1A@?0A@A@IMessageObserver@@8 ; IMessageObserver::`RTTI Base Class Array'
; Function compile flags: /Odt
rdata$r	ENDS
;	COMDAT ??0IMessageObserver@@QAE@XZ
_TEXT	SEGMENT
_this$ = -4						; size = 4
??0IMessageObserver@@QAE@XZ PROC NEAR			; IMessageObserver::IMessageObserver, COMDAT
; _this$ = ecx
  00000	55		 push	 ebp
  00001	8b ec		 mov	 ebp, esp
  00003	51		 push	 ecx
  00004	89 4d fc	 mov	 DWORD PTR _this$[ebp], ecx
  00007	8b 45 fc	 mov	 eax, DWORD PTR _this$[ebp]
  0000a	c7 00 00 00 00
	00		 mov	 DWORD PTR [eax], OFFSET FLAT:??_7IMessageObserver@@6B@
  00010	8b 45 fc	 mov	 eax, DWORD PTR _this$[ebp]
  00013	8b e5		 mov	 esp, ebp
  00015	5d		 pop	 ebp
  00016	c3		 ret	 0
??0IMessageObserver@@QAE@XZ ENDP			; IMessageObserver::IMessageObserver
; Function compile flags: /Odt
_TEXT	ENDS
;	COMDAT ??_GIHttpDownObserver@@UAEPAXI@Z
_TEXT	SEGMENT
_this$ = -4						; size = 4
___flags$ = 8						; size = 4
??_GIHttpDownObserver@@UAEPAXI@Z PROC NEAR		; IHttpDownObserver::`scalar deleting destructor', COMDAT
; _this$ = ecx
  00000	55		 push	 ebp
  00001	8b ec		 mov	 ebp, esp
  00003	51		 push	 ecx
  00004	89 4d fc	 mov	 DWORD PTR _this$[ebp], ecx
  00007	8b 4d fc	 mov	 ecx, DWORD PTR _this$[ebp]
  0000a	e8 00 00 00 00	 call	 ??1IHttpDownObserver@@UAE@XZ
  0000f	8b 45 08	 mov	 eax, DWORD PTR ___flags$[ebp]
  00012	83 e0 01	 and	 eax, 1
  00015	74 0c		 je	 SHORT $L204420
  00017	8b 4d fc	 mov	 ecx, DWORD PTR _this$[ebp]
  0001a	51		 push	 ecx
  0001b	e8 00 00 00 00	 call	 ??3@YAXPAX@Z		; operator delete
  00020	83 c4 04	 add	 esp, 4
$L204420:
  00023	8b 45 fc	 mov	 eax, DWORD PTR _this$[ebp]
  00026	8b e5		 mov	 esp, ebp
  00028	5d		 pop	 ebp
  00029	c2 04 00	 ret	 4
??_GIHttpDownObserver@@UAEPAXI@Z ENDP			; IHttpDownObserver::`scalar deleting destructor'
; Function compile flags: /Odt
_TEXT	ENDS
;	COMDAT ??_GIPanelChangeObserver@@UAEPAXI@Z
_TEXT	SEGMENT
_this$ = -4						; size = 4
___flags$ = 8						; size = 4
??_GIPanelChangeObserver@@UAEPAXI@Z PROC NEAR		; IPanelChangeObserver::`scalar deleting destructor', COMDAT
; _this$ = ecx
  00000	55		 push	 ebp
  00001	8b ec		 mov	 ebp, esp
  00003	51		 push	 ecx
  00004	89 4d fc	 mov	 DWORD PTR _this$[ebp], ecx
  00007	8b 4d fc	 mov	 ecx, DWORD PTR _this$[ebp]
  0000a	e8 00 00 00 00	 call	 ??1IPanelChangeObserver@@UAE@XZ
  0000f	8b 45 08	 mov	 eax, DWORD PTR ___flags$[ebp]
  00012	83 e0 01	 and	 eax, 1
  00015	74 0c		 je	 SHORT $L204423
  00017	8b 4d fc	 mov	 ecx, DWORD PTR _this$[ebp]
  0001a	51		 push	 ecx
  0001b	e8 00 00 00 00	 call	 ??3@YAXPAX@Z		; operator delete
  00020	83 c4 04	 add	 esp, 4
$L204423:
  00023	8b 45 fc	 mov	 eax, DWORD PTR _this$[ebp]
  00026	8b e5		 mov	 esp, ebp
  00028	5d		 pop	 ebp
  00029	c2 04 00	 ret	 4
??_GIPanelChangeObserver@@UAEPAXI@Z ENDP		; IPanelChangeObserver::`scalar deleting destructor'
_TEXT	ENDS
PUBLIC	??1CShockwaveFlash@@UAE@XZ			; CShockwaveFlash::~CShockwaveFlash
; Function compile flags: /Odt
;	COMDAT ??_GCShockwaveFlash@@UAEPAXI@Z
_TEXT	SEGMENT
_this$ = -4						; size = 4
___flags$ = 8						; size = 4
??_GCShockwaveFlash@@UAEPAXI@Z PROC NEAR		; CShockwaveFlash::`scalar deleting destructor', COMDAT
; _this$ = ecx
  00000	55		 push	 ebp
  00001	8b ec		 mov	 ebp, esp
  00003	51		 push	 ecx
  00004	89 4d fc	 mov	 DWORD PTR _this$[ebp], ecx
  00007	8b 4d fc	 mov	 ecx, DWORD PTR _this$[ebp]
  0000a	e8 00 00 00 00	 call	 ??1CShockwaveFlash@@UAE@XZ
  0000f	8b 45 08	 mov	 eax, DWORD PTR ___flags$[ebp]
  00012	83 e0 01	 and	 eax, 1
  00015	74 09		 je	 SHORT $L204426
  00017	8b 4d fc	 mov	 ecx, DWORD PTR _this$[ebp]
  0001a	51		 push	 ecx
  0001b	e8 00 00 00 00	 call	 ??3CObject@@SGXPAX@Z	; CObject::operator delete
$L204426:
  00020	8b 45 fc	 mov	 eax, DWORD PTR _this$[ebp]
  00023	8b e5		 mov	 esp, ebp
  00025	5d		 pop	 ebp
  00026	c2 04 00	 ret	 4
??_GCShockwaveFlash@@UAEPAXI@Z ENDP			; CShockwaveFlash::`scalar deleting destructor'
_TEXT	ENDS
EXTRN	??1CWnd@@UAE@XZ:NEAR				; CWnd::~CWnd
; Function compile flags: /Odt
;	COMDAT ??1CShockwaveFlash@@UAE@XZ
_TEXT	SEGMENT
_this$ = -4						; size = 4
??1CShockwaveFlash@@UAE@XZ PROC NEAR			; CShockwaveFlash::~CShockwaveFlash, COMDAT
; _this$ = ecx
  00000	55		 push	 ebp
  00001	8b ec		 mov	 ebp, esp
  00003	51		 push	 ecx
  00004	89 4d fc	 mov	 DWORD PTR _this$[ebp], ecx
  00007	8b 4d fc	 mov	 ecx, DWORD PTR _this$[ebp]
  0000a	e8 00 00 00 00	 call	 ??1CWnd@@UAE@XZ		; CWnd::~CWnd
  0000f	8b e5		 mov	 esp, ebp
  00011	5d		 pop	 ebp
  00012	c3		 ret	 0
??1CShockwaveFlash@@UAE@XZ ENDP				; CShockwaveFlash::~CShockwaveFlash
_TEXT	ENDS
xdata$x	SEGMENT
$T207547 DD	0ffffffffH
	DD	FLAT:$L207531
	DD	00H
	DD	FLAT:$L207534
	DD	01H
	DD	FLAT:$L207537
	DD	02H
	DD	FLAT:$L207540
	DD	03H
	DD	FLAT:$L207541
	DD	04H
	DD	FLAT:$L207542
	DD	05H
	DD	FLAT:$L207543
$T207545 DD	019930520H
	DD	07H
	DD	FLAT:$T207547
	DD	2 DUP(00H)
	DD	2 DUP(00H)
; Function compile flags: /Odt
; File d:\boxgit\playbox\playbox\dev\prj\playbox\src\module\gamepanel\gamepanelwnd.cpp
xdata$x	ENDS
_TEXT	SEGMENT
tv70 = -112						; size = 4
tv74 = -108						; size = 4
tv78 = -104						; size = 4
tv186 = -100						; size = 4
tv191 = -96						; size = 4
tv176 = -92						; size = 4
tv181 = -88						; size = 4
tv166 = -84						; size = 4
tv171 = -80						; size = 4
tv163 = -76						; size = 4
tv155 = -72						; size = 4
tv147 = -68						; size = 4
tv139 = -64						; size = 4
tv131 = -60						; size = 4
_this$ = -56						; size = 4
$T207522 = -52						; size = 4
$T207521 = -48						; size = 4
$T207518 = -44						; size = 4
$T207517 = -40						; size = 4
$T207514 = -36						; size = 4
$T207513 = -32						; size = 4
$T207510 = -28						; size = 4
$T207509 = -24						; size = 4
$T207506 = -20						; size = 4
$T207505 = -16						; size = 4
__$EHRec$ = -12						; size = 12
??1GamePanelWnd@@UAE@XZ PROC NEAR			; GamePanelWnd::~GamePanelWnd
; _this$ = ecx

; 43   : {

  00310	55		 push	 ebp
  00311	8b ec		 mov	 ebp, esp
  00313	6a ff		 push	 -1
  00315	68 00 00 00 00	 push	 __ehhandler$??1GamePanelWnd@@UAE@XZ
  0031a	64 a1 00 00 00
	00		 mov	 eax, DWORD PTR fs:__except_list
  00320	50		 push	 eax
  00321	64 89 25 00 00
	00 00		 mov	 DWORD PTR fs:__except_list, esp
  00328	83 ec 64	 sub	 esp, 100		; 00000064H
  0032b	89 4d c8	 mov	 DWORD PTR _this$[ebp], ecx
  0032e	8b 45 c8	 mov	 eax, DWORD PTR _this$[ebp]
  00331	c7 00 00 00 00
	00		 mov	 DWORD PTR [eax], OFFSET FLAT:??_7GamePanelWnd@@6BCBasicWnd@@@
  00337	8b 4d c8	 mov	 ecx, DWORD PTR _this$[ebp]
  0033a	c7 41 54 00 00
	00 00		 mov	 DWORD PTR [ecx+84], OFFSET FLAT:??_7GamePanelWnd@@6BILayoutChangeObserver@@@
  00341	8b 55 c8	 mov	 edx, DWORD PTR _this$[ebp]
  00344	c7 42 58 00 00
	00 00		 mov	 DWORD PTR [edx+88], OFFSET FLAT:??_7GamePanelWnd@@6BIHttpDownObserver@@@
  0034b	8b 45 c8	 mov	 eax, DWORD PTR _this$[ebp]
  0034e	c7 40 5c 00 00
	00 00		 mov	 DWORD PTR [eax+92], OFFSET FLAT:??_7GamePanelWnd@@6BIPanelChangeObserver@@@
  00355	c7 45 fc 06 00
	00 00		 mov	 DWORD PTR __$EHRec$[ebp+8], 6

; 44   : 	delete m_pGameFlash;

  0035c	8b 4d c8	 mov	 ecx, DWORD PTR _this$[ebp]
  0035f	8b 51 60	 mov	 edx, DWORD PTR [ecx+96]
  00362	89 55 ec	 mov	 DWORD PTR $T207506[ebp], edx
  00365	8b 45 ec	 mov	 eax, DWORD PTR $T207506[ebp]
  00368	89 45 f0	 mov	 DWORD PTR $T207505[ebp], eax
  0036b	83 7d f0 00	 cmp	 DWORD PTR $T207505[ebp], 0
  0036f	74 12		 je	 SHORT $L207507
  00371	6a 01		 push	 1
  00373	8b 4d f0	 mov	 ecx, DWORD PTR $T207505[ebp]
  00376	8b 11		 mov	 edx, DWORD PTR [ecx]
  00378	8b 4d f0	 mov	 ecx, DWORD PTR $T207505[ebp]
  0037b	ff 52 04	 call	 DWORD PTR [edx+4]
  0037e	89 45 c4	 mov	 DWORD PTR tv131[ebp], eax
  00381	eb 07		 jmp	 SHORT $L207508
$L207507:
  00383	c7 45 c4 00 00
	00 00		 mov	 DWORD PTR tv131[ebp], 0
$L207508:

; 45   : 	delete m_pWndDownPercent;

  0038a	8b 45 c8	 mov	 eax, DWORD PTR _this$[ebp]
  0038d	8b 48 64	 mov	 ecx, DWORD PTR [eax+100]
  00390	89 4d e4	 mov	 DWORD PTR $T207510[ebp], ecx
  00393	8b 55 e4	 mov	 edx, DWORD PTR $T207510[ebp]
  00396	89 55 e8	 mov	 DWORD PTR $T207509[ebp], edx
  00399	83 7d e8 00	 cmp	 DWORD PTR $T207509[ebp], 0
  0039d	74 12		 je	 SHORT $L207511
  0039f	6a 01		 push	 1
  003a1	8b 45 e8	 mov	 eax, DWORD PTR $T207509[ebp]
  003a4	8b 10		 mov	 edx, DWORD PTR [eax]
  003a6	8b 4d e8	 mov	 ecx, DWORD PTR $T207509[ebp]
  003a9	ff 52 04	 call	 DWORD PTR [edx+4]
  003ac	89 45 c0	 mov	 DWORD PTR tv139[ebp], eax
  003af	eb 07		 jmp	 SHORT $L207512
$L207511:
  003b1	c7 45 c0 00 00
	00 00		 mov	 DWORD PTR tv139[ebp], 0
$L207512:

; 46   : 	delete m_pBtnSwitch;

  003b8	8b 45 c8	 mov	 eax, DWORD PTR _this$[ebp]
  003bb	8b 48 68	 mov	 ecx, DWORD PTR [eax+104]
  003be	89 4d dc	 mov	 DWORD PTR $T207514[ebp], ecx
  003c1	8b 55 dc	 mov	 edx, DWORD PTR $T207514[ebp]
  003c4	89 55 e0	 mov	 DWORD PTR $T207513[ebp], edx
  003c7	83 7d e0 00	 cmp	 DWORD PTR $T207513[ebp], 0
  003cb	74 12		 je	 SHORT $L207515
  003cd	6a 01		 push	 1
  003cf	8b 45 e0	 mov	 eax, DWORD PTR $T207513[ebp]
  003d2	8b 10		 mov	 edx, DWORD PTR [eax]
  003d4	8b 4d e0	 mov	 ecx, DWORD PTR $T207513[ebp]
  003d7	ff 52 04	 call	 DWORD PTR [edx+4]
  003da	89 45 bc	 mov	 DWORD PTR tv147[ebp], eax
  003dd	eb 07		 jmp	 SHORT $L207516
$L207515:
  003df	c7 45 bc 00 00
	00 00		 mov	 DWORD PTR tv147[ebp], 0
$L207516:

; 47   : 	delete m_pGameInfo;

  003e6	8b 45 c8	 mov	 eax, DWORD PTR _this$[ebp]
  003e9	8b 48 6c	 mov	 ecx, DWORD PTR [eax+108]
  003ec	89 4d d4	 mov	 DWORD PTR $T207518[ebp], ecx
  003ef	8b 55 d4	 mov	 edx, DWORD PTR $T207518[ebp]
  003f2	89 55 d8	 mov	 DWORD PTR $T207517[ebp], edx
  003f5	83 7d d8 00	 cmp	 DWORD PTR $T207517[ebp], 0
  003f9	74 12		 je	 SHORT $L207519
  003fb	6a 01		 push	 1
  003fd	8b 45 d8	 mov	 eax, DWORD PTR $T207517[ebp]
  00400	8b 10		 mov	 edx, DWORD PTR [eax]
  00402	8b 4d d8	 mov	 ecx, DWORD PTR $T207517[ebp]
  00405	ff 52 04	 call	 DWORD PTR [edx+4]
  00408	89 45 b8	 mov	 DWORD PTR tv155[ebp], eax
  0040b	eb 07		 jmp	 SHORT $L207520
$L207519:
  0040d	c7 45 b8 00 00
	00 00		 mov	 DWORD PTR tv155[ebp], 0
$L207520:

; 48   : 	delete m_pGameCtrl;

  00414	8b 45 c8	 mov	 eax, DWORD PTR _this$[ebp]
  00417	8b 48 70	 mov	 ecx, DWORD PTR [eax+112]
  0041a	89 4d cc	 mov	 DWORD PTR $T207522[ebp], ecx
  0041d	8b 55 cc	 mov	 edx, DWORD PTR $T207522[ebp]
  00420	89 55 d0	 mov	 DWORD PTR $T207521[ebp], edx
  00423	83 7d d0 00	 cmp	 DWORD PTR $T207521[ebp], 0
  00427	74 12		 je	 SHORT $L207523
  00429	6a 01		 push	 1
  0042b	8b 45 d0	 mov	 eax, DWORD PTR $T207521[ebp]
  0042e	8b 10		 mov	 edx, DWORD PTR [eax]
  00430	8b 4d d0	 mov	 ecx, DWORD PTR $T207521[ebp]
  00433	ff 52 04	 call	 DWORD PTR [edx+4]
  00436	89 45 b4	 mov	 DWORD PTR tv163[ebp], eax
  00439	eb 07		 jmp	 SHORT $L207524
$L207523:
  0043b	c7 45 b4 00 00
	00 00		 mov	 DWORD PTR tv163[ebp], 0
$L207524:

; 49   : 	AfxGetMessageManager()->DetachMessage( ID_MESSAGE_LAYOUTMGR,(ILayoutChangeObserver*) this);

  00442	83 7d c8 00	 cmp	 DWORD PTR _this$[ebp], 0
  00446	74 0b		 je	 SHORT $L207525
  00448	8b 45 c8	 mov	 eax, DWORD PTR _this$[ebp]
  0044b	83 c0 54	 add	 eax, 84			; 00000054H
  0044e	89 45 b0	 mov	 DWORD PTR tv171[ebp], eax
  00451	eb 07		 jmp	 SHORT $L207526
$L207525:
  00453	c7 45 b0 00 00
	00 00		 mov	 DWORD PTR tv171[ebp], 0
$L207526:
  0045a	e8 00 00 00 00	 call	 ?AfxGetMessageManager@@YAPAVIMessageManager@@XZ ; AfxGetMessageManager
  0045f	89 45 ac	 mov	 DWORD PTR tv166[ebp], eax
  00462	8b 4d b0	 mov	 ecx, DWORD PTR tv171[ebp]
  00465	51		 push	 ecx
  00466	68 00 00 00 00	 push	 OFFSET FLAT:_ID_MESSAGE_LAYOUTMGR
  0046b	8b 55 ac	 mov	 edx, DWORD PTR tv166[ebp]
  0046e	8b 02		 mov	 eax, DWORD PTR [edx]
  00470	8b 4d ac	 mov	 ecx, DWORD PTR tv166[ebp]
  00473	ff 50 08	 call	 DWORD PTR [eax+8]

; 50   : 	AfxGetMessageManager()->DetachMessage( ID_MESSAGE_PANEL_CHANGE,(IPanelChangeObserver*) this);

  00476	83 7d c8 00	 cmp	 DWORD PTR _this$[ebp], 0
  0047a	74 0b		 je	 SHORT $L207527
  0047c	8b 4d c8	 mov	 ecx, DWORD PTR _this$[ebp]
  0047f	83 c1 5c	 add	 ecx, 92			; 0000005cH
  00482	89 4d a8	 mov	 DWORD PTR tv181[ebp], ecx
  00485	eb 07		 jmp	 SHORT $L207528
$L207527:
  00487	c7 45 a8 00 00
	00 00		 mov	 DWORD PTR tv181[ebp], 0
$L207528:
  0048e	e8 00 00 00 00	 call	 ?AfxGetMessageManager@@YAPAVIMessageManager@@XZ ; AfxGetMessageManager
  00493	89 45 a4	 mov	 DWORD PTR tv176[ebp], eax
  00496	8b 55 a8	 mov	 edx, DWORD PTR tv181[ebp]
  00499	52		 push	 edx
  0049a	68 00 00 00 00	 push	 OFFSET FLAT:_ID_MESSAGE_PANEL_CHANGE
  0049f	8b 45 a4	 mov	 eax, DWORD PTR tv176[ebp]
  004a2	8b 10		 mov	 edx, DWORD PTR [eax]
  004a4	8b 4d a4	 mov	 ecx, DWORD PTR tv176[ebp]
  004a7	ff 52 08	 call	 DWORD PTR [edx+8]

; 51   : 	AfxGetMessageManager()->DetachMessage( ID_MESSAGE_HTTP_DOWN,(IHttpDownObserver*) this);

  004aa	83 7d c8 00	 cmp	 DWORD PTR _this$[ebp], 0
  004ae	74 0b		 je	 SHORT $L207529
  004b0	8b 45 c8	 mov	 eax, DWORD PTR _this$[ebp]
  004b3	83 c0 58	 add	 eax, 88			; 00000058H
  004b6	89 45 a0	 mov	 DWORD PTR tv191[ebp], eax
  004b9	eb 07		 jmp	 SHORT $L207530
$L207529:
  004bb	c7 45 a0 00 00
	00 00		 mov	 DWORD PTR tv191[ebp], 0
$L207530:
  004c2	e8 00 00 00 00	 call	 ?AfxGetMessageManager@@YAPAVIMessageManager@@XZ ; AfxGetMessageManager
  004c7	89 45 9c	 mov	 DWORD PTR tv186[ebp], eax
  004ca	8b 4d a0	 mov	 ecx, DWORD PTR tv191[ebp]
  004cd	51		 push	 ecx
  004ce	68 00 00 00 00	 push	 OFFSET FLAT:_ID_MESSAGE_HTTP_DOWN
  004d3	8b 55 9c	 mov	 edx, DWORD PTR tv186[ebp]
  004d6	8b 02		 mov	 eax, DWORD PTR [edx]
  004d8	8b 4d 9c	 mov	 ecx, DWORD PTR tv186[ebp]
  004db	ff 50 08	 call	 DWORD PTR [eax+8]

; 52   : }

  004de	c6 45 fc 05	 mov	 BYTE PTR __$EHRec$[ebp+8], 5
  004e2	8b 4d c8	 mov	 ecx, DWORD PTR _this$[ebp]
  004e5	81 c1 48 01 00
	00		 add	 ecx, 328		; 00000148H
  004eb	ff 15 00 00 00
	00		 call	 DWORD PTR __imp_??1?$basic_string@DU?$char_traits@D@std@@V?$allocator@D@2@@std@@QAE@XZ
  004f1	c6 45 fc 04	 mov	 BYTE PTR __$EHRec$[ebp+8], 4
  004f5	8b 4d c8	 mov	 ecx, DWORD PTR _this$[ebp]
  004f8	81 c1 2c 01 00
	00		 add	 ecx, 300		; 0000012cH
  004fe	ff 15 00 00 00
	00		 call	 DWORD PTR __imp_??1?$basic_string@DU?$char_traits@D@std@@V?$allocator@D@2@@std@@QAE@XZ
  00504	c6 45 fc 03	 mov	 BYTE PTR __$EHRec$[ebp+8], 3
  00508	8b 4d c8	 mov	 ecx, DWORD PTR _this$[ebp]
  0050b	83 c1 78	 add	 ecx, 120		; 00000078H
  0050e	e8 00 00 00 00	 call	 ??1SWF_GAME@@QAE@XZ
  00513	c6 45 fc 02	 mov	 BYTE PTR __$EHRec$[ebp+8], 2
  00517	83 7d c8 00	 cmp	 DWORD PTR _this$[ebp], 0
  0051b	74 0b		 je	 SHORT $L207503
  0051d	8b 4d c8	 mov	 ecx, DWORD PTR _this$[ebp]
  00520	83 c1 5c	 add	 ecx, 92			; 0000005cH
  00523	89 4d 98	 mov	 DWORD PTR tv78[ebp], ecx
  00526	eb 07		 jmp	 SHORT $L207504
$L207503:
  00528	c7 45 98 00 00
	00 00		 mov	 DWORD PTR tv78[ebp], 0
$L207504:
  0052f	8b 4d 98	 mov	 ecx, DWORD PTR tv78[ebp]
  00532	e8 00 00 00 00	 call	 ??1IPanelChangeObserver@@UAE@XZ
  00537	c6 45 fc 01	 mov	 BYTE PTR __$EHRec$[ebp+8], 1
  0053b	83 7d c8 00	 cmp	 DWORD PTR _this$[ebp], 0
  0053f	74 0b		 je	 SHORT $L207501
  00541	8b 55 c8	 mov	 edx, DWORD PTR _this$[ebp]
  00544	83 c2 58	 add	 edx, 88			; 00000058H
  00547	89 55 94	 mov	 DWORD PTR tv74[ebp], edx
  0054a	eb 07		 jmp	 SHORT $L207502
$L207501:
  0054c	c7 45 94 00 00
	00 00		 mov	 DWORD PTR tv74[ebp], 0
$L207502:
  00553	8b 4d 94	 mov	 ecx, DWORD PTR tv74[ebp]
  00556	e8 00 00 00 00	 call	 ??1IHttpDownObserver@@UAE@XZ
  0055b	c6 45 fc 00	 mov	 BYTE PTR __$EHRec$[ebp+8], 0
  0055f	83 7d c8 00	 cmp	 DWORD PTR _this$[ebp], 0
  00563	74 0b		 je	 SHORT $L207499
  00565	8b 45 c8	 mov	 eax, DWORD PTR _this$[ebp]
  00568	83 c0 54	 add	 eax, 84			; 00000054H
  0056b	89 45 90	 mov	 DWORD PTR tv70[ebp], eax
  0056e	eb 07		 jmp	 SHORT $L207500
$L207499:
  00570	c7 45 90 00 00
	00 00		 mov	 DWORD PTR tv70[ebp], 0
$L207500:
  00577	8b 4d 90	 mov	 ecx, DWORD PTR tv70[ebp]
  0057a	e8 00 00 00 00	 call	 ??1ILayoutChangeObserver@@UAE@XZ
  0057f	c7 45 fc ff ff
	ff ff		 mov	 DWORD PTR __$EHRec$[ebp+8], -1
  00586	8b 4d c8	 mov	 ecx, DWORD PTR _this$[ebp]
  00589	e8 00 00 00 00	 call	 ??1CBasicWnd@@UAE@XZ	; CBasicWnd::~CBasicWnd
  0058e	8b 4d f4	 mov	 ecx, DWORD PTR __$EHRec$[ebp]
  00591	64 89 0d 00 00
	00 00		 mov	 DWORD PTR fs:__except_list, ecx
  00598	8b e5		 mov	 esp, ebp
  0059a	5d		 pop	 ebp
  0059b	c3		 ret	 0
_TEXT	ENDS
text$x	SEGMENT
$L207531:
  0008e	8b 4d c8	 mov	 ecx, DWORD PTR _this$[ebp]
  00091	e9 00 00 00 00	 jmp	 ??1CBasicWnd@@UAE@XZ	; CBasicWnd::~CBasicWnd
$L207534:
  00096	83 7d c8 00	 cmp	 DWORD PTR _this$[ebp], 0
  0009a	0f 84 0e 00 00
	00		 je	 $L207532
  000a0	8b 45 c8	 mov	 eax, DWORD PTR _this$[ebp]
  000a3	83 c0 54	 add	 eax, 84			; 00000054H
  000a6	89 45 90	 mov	 DWORD PTR tv70[ebp], eax
  000a9	e9 07 00 00 00	 jmp	 $L207533
$L207532:
  000ae	c7 45 90 00 00
	00 00		 mov	 DWORD PTR tv70[ebp], 0
$L207533:
  000b5	8b 4d 90	 mov	 ecx, DWORD PTR tv70[ebp]
  000b8	e9 00 00 00 00	 jmp	 ??1ILayoutChangeObserver@@UAE@XZ
$L207537:
  000bd	83 7d c8 00	 cmp	 DWORD PTR _this$[ebp], 0
  000c1	0f 84 0e 00 00
	00		 je	 $L207535
  000c7	8b 45 c8	 mov	 eax, DWORD PTR _this$[ebp]
  000ca	83 c0 58	 add	 eax, 88			; 00000058H
  000cd	89 45 94	 mov	 DWORD PTR tv74[ebp], eax
  000d0	e9 07 00 00 00	 jmp	 $L207536
$L207535:
  000d5	c7 45 94 00 00
	00 00		 mov	 DWORD PTR tv74[ebp], 0
$L207536:
  000dc	8b 4d 94	 mov	 ecx, DWORD PTR tv74[ebp]
  000df	e9 00 00 00 00	 jmp	 ??1IHttpDownObserver@@UAE@XZ
$L207540:
  000e4	83 7d c8 00	 cmp	 DWORD PTR _this$[ebp], 0
  000e8	0f 84 0e 00 00
	00		 je	 $L207538
  000ee	8b 45 c8	 mov	 eax, DWORD PTR _this$[ebp]
  000f1	83 c0 5c	 add	 eax, 92			; 0000005cH
  000f4	89 45 98	 mov	 DWORD PTR tv78[ebp], eax
  000f7	e9 07 00 00 00	 jmp	 $L207539
$L207538:
  000fc	c7 45 98 00 00
	00 00		 mov	 DWORD PTR tv78[ebp], 0
$L207539:
  00103	8b 4d 98	 mov	 ecx, DWORD PTR tv78[ebp]
  00106	e9 00 00 00 00	 jmp	 ??1IPanelChangeObserver@@UAE@XZ
$L207541:
  0010b	8b 4d c8	 mov	 ecx, DWORD PTR _this$[ebp]
  0010e	83 c1 78	 add	 ecx, 120		; 00000078H
  00111	e9 00 00 00 00	 jmp	 ??1SWF_GAME@@QAE@XZ
$L207542:
  00116	8b 4d c8	 mov	 ecx, DWORD PTR _this$[ebp]
  00119	81 c1 2c 01 00
	00		 add	 ecx, 300		; 0000012cH
  0011f	ff 25 00 00 00
	00		 jmp	 DWORD PTR __imp_??1?$basic_string@DU?$char_traits@D@std@@V?$allocator@D@2@@std@@QAE@XZ
$L207543:
  00125	8b 4d c8	 mov	 ecx, DWORD PTR _this$[ebp]
  00128	81 c1 48 01 00
	00		 add	 ecx, 328		; 00000148H
  0012e	ff 25 00 00 00
	00		 jmp	 DWORD PTR __imp_??1?$basic_string@DU?$char_traits@D@std@@V?$allocator@D@2@@std@@QAE@XZ
__ehhandler$??1GamePanelWnd@@UAE@XZ:
  00134	b8 00 00 00 00	 mov	 eax, OFFSET FLAT:$T207545
  00139	e9 00 00 00 00	 jmp	 ___CxxFrameHandler
text$x	ENDS
??1GamePanelWnd@@UAE@XZ ENDP				; GamePanelWnd::~GamePanelWnd
PUBLIC	?GetThisMessageMap@GamePanelWnd@@KGPBUAFX_MSGMAP@@XZ ; GamePanelWnd::GetThisMessageMap
; Function compile flags: /Odt
_TEXT	SEGMENT
?GetThisMessageMap@GamePanelWnd@@KGPBUAFX_MSGMAP@@XZ PROC NEAR ; GamePanelWnd::GetThisMessageMap

; 54   : BEGIN_MESSAGE_MAP(GamePanelWnd, CBasicWnd)

  005a0	55		 push	 ebp
  005a1	8b ec		 mov	 ebp, esp
  005a3	b8 00 00 00 00	 mov	 eax, OFFSET FLAT:?messageMap@GamePanelWnd@@1UAFX_MSGMAP@@B ; GamePanelWnd::messageMap
  005a8	5d		 pop	 ebp
  005a9	c3		 ret	 0
?GetThisMessageMap@GamePanelWnd@@KGPBUAFX_MSGMAP@@XZ ENDP ; GamePanelWnd::GetThisMessageMap
; Function compile flags: /Odt
_this$ = -4						; size = 4
?GetMessageMap@GamePanelWnd@@MBEPBUAFX_MSGMAP@@XZ PROC NEAR ; GamePanelWnd::GetMessageMap
; _this$ = ecx

; 54   : BEGIN_MESSAGE_MAP(GamePanelWnd, CBasicWnd)

  005b0	55		 push	 ebp
  005b1	8b ec		 mov	 ebp, esp
  005b3	51		 push	 ecx
  005b4	89 4d fc	 mov	 DWORD PTR _this$[ebp], ecx
  005b7	b8 00 00 00 00	 mov	 eax, OFFSET FLAT:?messageMap@GamePanelWnd@@1UAFX_MSGMAP@@B ; GamePanelWnd::messageMap
  005bc	8b e5		 mov	 esp, ebp
  005be	5d		 pop	 ebp
  005bf	c3		 ret	 0
?GetMessageMap@GamePanelWnd@@MBEPBUAFX_MSGMAP@@XZ ENDP	; GamePanelWnd::GetMessageMap
_TEXT	ENDS
PUBLIC	?UpdateAllWnd@GamePanelWnd@@QAEXXZ		; GamePanelWnd::UpdateAllWnd
PUBLIC	??0CRect@@QAE@HHHH@Z				; CRect::CRect
PUBLIC	?OnCreate@CWnd@@IAEHPAUtagCREATESTRUCTA@@@Z	; CWnd::OnCreate
EXTRN	?SetQuality@CShockwaveFlash@@QAEXJ@Z:NEAR	; CShockwaveFlash::SetQuality
EXTRN	?SetAlignMode@CShockwaveFlash@@QAEXJ@Z:NEAR	; CShockwaveFlash::SetAlignMode
EXTRN	__imp_??0?$CStringT@DV?$StrTraitMFC_DLL@DV?$ChTraitsCRT@D@ATL@@@@@ATL@@QAE@PBD@Z:NEAR
EXTRN	?SetBackgroundColor@CShockwaveFlash@@QAEXJ@Z:NEAR ; CShockwaveFlash::SetBackgroundColor
EXTRN	__imp_??1?$CStringT@DV?$StrTraitMFC_DLL@DV?$ChTraitsCRT@D@ATL@@@@@ATL@@QAE@XZ:NEAR
EXTRN	?SetWMode@CShockwaveFlash@@QAEXPBD@Z:NEAR	; CShockwaveFlash::SetWMode
EXTRN	?SetMenu@CShockwaveFlash@@QAEXH@Z:NEAR		; CShockwaveFlash::SetMenu
EXTRN	?SetScale@CShockwaveFlash@@QAEXPBD@Z:NEAR	; CShockwaveFlash::SetScale
EXTRN	?SetEmbedMovie@CShockwaveFlash@@QAEXH@Z:NEAR	; CShockwaveFlash::SetEmbedMovie
EXTRN	?AfxGetUIManager@@YAPAVIUIManager@@XZ:NEAR	; AfxGetUIManager
xdata$x	SEGMENT
$T207570 DD	0ffffffffH
	DD	FLAT:$L207563
	DD	0ffffffffH
	DD	FLAT:$L207565
$T207568 DD	019930520H
	DD	02H
	DD	FLAT:$T207570
	DD	2 DUP(00H)
	DD	2 DUP(00H)
; Function compile flags: /Odt
xdata$x	ENDS
_TEXT	SEGMENT
tv369 = -112						; size = 4
tv366 = -108						; size = 4
tv371 = -104						; size = 4
tv364 = -100						; size = 4
tv361 = -96						; size = 4
tv370 = -92						; size = 4
tv359 = -88						; size = 4
tv356 = -84						; size = 4
tv353 = -80						; size = 4
tv350 = -76						; size = 4
tv201 = -72						; size = 4
_this$ = -68						; size = 4
$T207558 = -64						; size = 4
$T207557 = -60						; size = 4
$T207556 = -56						; size = 4
$T207555 = -52						; size = 4
$T207554 = -48						; size = 4
$T207553 = -44						; size = 4
$T207552 = -40						; size = 4
$T207551 = -36						; size = 4
_pLayoutMgr$ = -32					; size = 4
_rectNull$ = -28					; size = 16
__$EHRec$ = -12						; size = 12
_lpCreateStruct$ = 8					; size = 4
?OnCreate@GamePanelWnd@@IAEHPAUtagCREATESTRUCTA@@@Z PROC NEAR ; GamePanelWnd::OnCreate
; _this$ = ecx

; 65   : {

  005c0	55		 push	 ebp
  005c1	8b ec		 mov	 ebp, esp
  005c3	6a ff		 push	 -1
  005c5	68 00 00 00 00	 push	 __ehhandler$?OnCreate@GamePanelWnd@@IAEHPAUtagCREATESTRUCTA@@@Z
  005ca	64 a1 00 00 00
	00		 mov	 eax, DWORD PTR fs:__except_list
  005d0	50		 push	 eax
  005d1	64 89 25 00 00
	00 00		 mov	 DWORD PTR fs:__except_list, esp
  005d8	83 ec 64	 sub	 esp, 100		; 00000064H
  005db	89 4d bc	 mov	 DWORD PTR _this$[ebp], ecx

; 66   : 	if(__super::OnCreate(lpCreateStruct) == -1)

  005de	8b 45 08	 mov	 eax, DWORD PTR _lpCreateStruct$[ebp]
  005e1	50		 push	 eax
  005e2	8b 4d bc	 mov	 ecx, DWORD PTR _this$[ebp]
  005e5	e8 00 00 00 00	 call	 ?OnCreate@CWnd@@IAEHPAUtagCREATESTRUCTA@@@Z ; CWnd::OnCreate
  005ea	83 f8 ff	 cmp	 eax, -1
  005ed	75 08		 jne	 SHORT $L204489

; 67   : 	{
; 68   : 		return -1;

  005ef	83 c8 ff	 or	 eax, -1
  005f2	e9 98 02 00 00	 jmp	 $L204488
$L204489:

; 69   : 	}
; 70   : 	CRect rectNull(0,0,0,0);

  005f7	6a 00		 push	 0
  005f9	6a 00		 push	 0
  005fb	6a 00		 push	 0
  005fd	6a 00		 push	 0
  005ff	8d 4d e4	 lea	 ecx, DWORD PTR _rectNull$[ebp]
  00602	e8 00 00 00 00	 call	 ??0CRect@@QAE@HHHH@Z	; CRect::CRect

; 71   : 
; 72   : 	m_pGameCtrl->Create(NULL,NULL,WS_CHILD|WS_CLIPCHILDREN,rectNull,this,ID_WND_GAME_CTRL );

  00607	6a 00		 push	 0
  00609	68 89 00 00 00	 push	 137			; 00000089H
  0060e	8b 4d bc	 mov	 ecx, DWORD PTR _this$[ebp]
  00611	51		 push	 ecx
  00612	8d 55 e4	 lea	 edx, DWORD PTR _rectNull$[ebp]
  00615	52		 push	 edx
  00616	68 00 00 00 42	 push	 1107296256		; 42000000H
  0061b	6a 00		 push	 0
  0061d	6a 00		 push	 0
  0061f	8b 45 bc	 mov	 eax, DWORD PTR _this$[ebp]
  00622	8b 48 70	 mov	 ecx, DWORD PTR [eax+112]
  00625	8b 55 bc	 mov	 edx, DWORD PTR _this$[ebp]
  00628	8b 42 70	 mov	 eax, DWORD PTR [edx+112]
  0062b	8b 11		 mov	 edx, DWORD PTR [ecx]
  0062d	8b c8		 mov	 ecx, eax
  0062f	ff 52 5c	 call	 DWORD PTR [edx+92]

; 73   : 	m_pGameFlash->Create(NULL,NULL,WS_CHILD|WS_CLIPCHILDREN|WS_VISIBLE, rectNull, this, ID_WND_GAME_SWF);

  00632	6a 00		 push	 0
  00634	6a 7b		 push	 123			; 0000007bH
  00636	8b 45 bc	 mov	 eax, DWORD PTR _this$[ebp]
  00639	50		 push	 eax
  0063a	8d 4d e4	 lea	 ecx, DWORD PTR _rectNull$[ebp]
  0063d	51		 push	 ecx
  0063e	68 00 00 00 52	 push	 1375731712		; 52000000H
  00643	6a 00		 push	 0
  00645	6a 00		 push	 0
  00647	8b 55 bc	 mov	 edx, DWORD PTR _this$[ebp]
  0064a	8b 42 60	 mov	 eax, DWORD PTR [edx+96]
  0064d	8b 4d bc	 mov	 ecx, DWORD PTR _this$[ebp]
  00650	8b 49 60	 mov	 ecx, DWORD PTR [ecx+96]
  00653	8b 10		 mov	 edx, DWORD PTR [eax]
  00655	ff 52 5c	 call	 DWORD PTR [edx+92]

; 74   : 
; 75   : 	m_pGameFlash->SetBackgroundColor( -1 );//

  00658	6a ff		 push	 -1
  0065a	8b 45 bc	 mov	 eax, DWORD PTR _this$[ebp]
  0065d	8b 48 60	 mov	 ecx, DWORD PTR [eax+96]
  00660	e8 00 00 00 00	 call	 ?SetBackgroundColor@CShockwaveFlash@@QAEXJ@Z ; CShockwaveFlash::SetBackgroundColor

; 76   : 	m_pGameFlash->SetAlignMode( 2 );       //

  00665	6a 02		 push	 2
  00667	8b 4d bc	 mov	 ecx, DWORD PTR _this$[ebp]
  0066a	8b 49 60	 mov	 ecx, DWORD PTR [ecx+96]
  0066d	e8 00 00 00 00	 call	 ?SetAlignMode@CShockwaveFlash@@QAEXJ@Z ; CShockwaveFlash::SetAlignMode

; 77   : 	m_pGameFlash->SetMenu( FALSE );        // 

  00672	6a 00		 push	 0
  00674	8b 55 bc	 mov	 edx, DWORD PTR _this$[ebp]
  00677	8b 4a 60	 mov	 ecx, DWORD PTR [edx+96]
  0067a	e8 00 00 00 00	 call	 ?SetMenu@CShockwaveFlash@@QAEXH@Z ; CShockwaveFlash::SetMenu

; 78   : 	m_pGameFlash->SetScale( "ExactFit" );  //

  0067f	68 00 00 00 00	 push	 OFFSET FLAT:$SG204491
  00684	8b 45 bc	 mov	 eax, DWORD PTR _this$[ebp]
  00687	8b 48 60	 mov	 ecx, DWORD PTR [eax+96]
  0068a	e8 00 00 00 00	 call	 ?SetScale@CShockwaveFlash@@QAEXPBD@Z ; CShockwaveFlash::SetScale

; 79   : 	m_pGameFlash->SetWMode( "Window" );    //

  0068f	68 00 00 00 00	 push	 OFFSET FLAT:$SG204492
  00694	8b 4d bc	 mov	 ecx, DWORD PTR _this$[ebp]
  00697	8b 49 60	 mov	 ecx, DWORD PTR [ecx+96]
  0069a	e8 00 00 00 00	 call	 ?SetWMode@CShockwaveFlash@@QAEXPBD@Z ; CShockwaveFlash::SetWMode

; 80   : 	m_pGameFlash->SetQuality( 1 );         // 

  0069f	6a 01		 push	 1
  006a1	8b 55 bc	 mov	 edx, DWORD PTR _this$[ebp]
  006a4	8b 4a 60	 mov	 ecx, DWORD PTR [edx+96]
  006a7	e8 00 00 00 00	 call	 ?SetQuality@CShockwaveFlash@@QAEXJ@Z ; CShockwaveFlash::SetQuality

; 81   : 	m_pGameFlash->SetEmbedMovie(TRUE);     // 

  006ac	6a 01		 push	 1
  006ae	8b 45 bc	 mov	 eax, DWORD PTR _this$[ebp]
  006b1	8b 48 60	 mov	 ecx, DWORD PTR [eax+96]
  006b4	e8 00 00 00 00	 call	 ?SetEmbedMovie@CShockwaveFlash@@QAEXH@Z ; CShockwaveFlash::SetEmbedMovie

; 82   : 
; 83   : 	m_pWndDownPercent->Create(NULL,NULL,WS_CHILD|WS_CLIPCHILDREN,rectNull,this,ID_WND_GAME_DOWN_PERCENT );

  006b9	6a 00		 push	 0
  006bb	6a 7a		 push	 122			; 0000007aH
  006bd	8b 4d bc	 mov	 ecx, DWORD PTR _this$[ebp]
  006c0	51		 push	 ecx
  006c1	8d 55 e4	 lea	 edx, DWORD PTR _rectNull$[ebp]
  006c4	52		 push	 edx
  006c5	68 00 00 00 42	 push	 1107296256		; 42000000H
  006ca	6a 00		 push	 0
  006cc	6a 00		 push	 0
  006ce	8b 45 bc	 mov	 eax, DWORD PTR _this$[ebp]
  006d1	8b 48 64	 mov	 ecx, DWORD PTR [eax+100]
  006d4	8b 55 bc	 mov	 edx, DWORD PTR _this$[ebp]
  006d7	8b 42 64	 mov	 eax, DWORD PTR [edx+100]
  006da	8b 11		 mov	 edx, DWORD PTR [ecx]
  006dc	8b c8		 mov	 ecx, eax
  006de	ff 52 5c	 call	 DWORD PTR [edx+92]

; 84   : 	m_pBtnSwitch->Create(NULL,WS_VISIBLE,rectNull,this,IDC_BTN_SWITCH);

  006e1	68 8a 00 00 00	 push	 138			; 0000008aH
  006e6	8b 45 bc	 mov	 eax, DWORD PTR _this$[ebp]
  006e9	50		 push	 eax
  006ea	8d 4d e4	 lea	 ecx, DWORD PTR _rectNull$[ebp]
  006ed	51		 push	 ecx
  006ee	68 00 00 00 10	 push	 268435456		; 10000000H
  006f3	6a 00		 push	 0
  006f5	8b 55 bc	 mov	 edx, DWORD PTR _this$[ebp]
  006f8	8b 42 68	 mov	 eax, DWORD PTR [edx+104]
  006fb	8b 4d bc	 mov	 ecx, DWORD PTR _this$[ebp]
  006fe	8b 49 68	 mov	 ecx, DWORD PTR [ecx+104]
  00701	8b 10		 mov	 edx, DWORD PTR [eax]
  00703	ff 92 38 01 00
	00		 call	 DWORD PTR [edx+312]

; 85   : 	m_pGameInfo->Create(NULL,WS_VISIBLE, rectNull,this,ID_WND_GAME_INFO);

  00709	68 8b 00 00 00	 push	 139			; 0000008bH
  0070e	8b 45 bc	 mov	 eax, DWORD PTR _this$[ebp]
  00711	50		 push	 eax
  00712	8d 4d e4	 lea	 ecx, DWORD PTR _rectNull$[ebp]
  00715	51		 push	 ecx
  00716	68 00 00 00 10	 push	 268435456		; 10000000H
  0071b	6a 00		 push	 0
  0071d	8b 55 bc	 mov	 edx, DWORD PTR _this$[ebp]
  00720	8b 42 6c	 mov	 eax, DWORD PTR [edx+108]
  00723	8b 4d bc	 mov	 ecx, DWORD PTR _this$[ebp]
  00726	8b 49 6c	 mov	 ecx, DWORD PTR [ecx+108]
  00729	8b 10		 mov	 edx, DWORD PTR [eax]
  0072b	ff 92 38 01 00
	00		 call	 DWORD PTR [edx+312]

; 86   : 
; 87   : 	ILayoutMgr* pLayoutMgr =  AfxGetUIManager()->UIGetLayoutMgr();	

  00731	e8 00 00 00 00	 call	 ?AfxGetUIManager@@YAPAVIUIManager@@XZ ; AfxGetUIManager
  00736	89 45 b8	 mov	 DWORD PTR tv201[ebp], eax
  00739	8b 45 b8	 mov	 eax, DWORD PTR tv201[ebp]
  0073c	8b 10		 mov	 edx, DWORD PTR [eax]
  0073e	8b 4d b8	 mov	 ecx, DWORD PTR tv201[ebp]
  00741	ff 52 24	 call	 DWORD PTR [edx+36]
  00744	89 45 e0	 mov	 DWORD PTR _pLayoutMgr$[ebp], eax

; 88   : 	pLayoutMgr->RegisterCtrl( this, "GameCtrl", m_pGameCtrl );

  00747	8b 45 bc	 mov	 eax, DWORD PTR _this$[ebp]
  0074a	8b 48 70	 mov	 ecx, DWORD PTR [eax+112]
  0074d	51		 push	 ecx
  0074e	51		 push	 ecx
  0074f	8b cc		 mov	 ecx, esp
  00751	89 65 dc	 mov	 DWORD PTR $T207551[ebp], esp
  00754	68 00 00 00 00	 push	 OFFSET FLAT:$SG204495
  00759	ff 15 00 00 00
	00		 call	 DWORD PTR __imp_??0?$CStringT@DV?$StrTraitMFC_DLL@DV?$ChTraitsCRT@D@ATL@@@@@ATL@@QAE@PBD@Z
  0075f	89 45 b4	 mov	 DWORD PTR tv350[ebp], eax
  00762	8b 55 bc	 mov	 edx, DWORD PTR _this$[ebp]
  00765	52		 push	 edx
  00766	8b 45 e0	 mov	 eax, DWORD PTR _pLayoutMgr$[ebp]
  00769	8b 10		 mov	 edx, DWORD PTR [eax]
  0076b	8b 4d e0	 mov	 ecx, DWORD PTR _pLayoutMgr$[ebp]
  0076e	ff 52 34	 call	 DWORD PTR [edx+52]

; 89   : 	pLayoutMgr->RegisterCtrl( this, "GameFlash", m_pGameFlash );

  00771	8b 45 bc	 mov	 eax, DWORD PTR _this$[ebp]
  00774	8b 48 60	 mov	 ecx, DWORD PTR [eax+96]
  00777	51		 push	 ecx
  00778	51		 push	 ecx
  00779	8b cc		 mov	 ecx, esp
  0077b	89 65 d8	 mov	 DWORD PTR $T207552[ebp], esp
  0077e	68 00 00 00 00	 push	 OFFSET FLAT:$SG204497
  00783	ff 15 00 00 00
	00		 call	 DWORD PTR __imp_??0?$CStringT@DV?$StrTraitMFC_DLL@DV?$ChTraitsCRT@D@ATL@@@@@ATL@@QAE@PBD@Z
  00789	89 45 b0	 mov	 DWORD PTR tv353[ebp], eax
  0078c	8b 55 bc	 mov	 edx, DWORD PTR _this$[ebp]
  0078f	52		 push	 edx
  00790	8b 45 e0	 mov	 eax, DWORD PTR _pLayoutMgr$[ebp]
  00793	8b 10		 mov	 edx, DWORD PTR [eax]
  00795	8b 4d e0	 mov	 ecx, DWORD PTR _pLayoutMgr$[ebp]
  00798	ff 52 34	 call	 DWORD PTR [edx+52]

; 90   : 	pLayoutMgr->RegisterCtrl( this, "GameCISwitch", m_pBtnSwitch );

  0079b	8b 45 bc	 mov	 eax, DWORD PTR _this$[ebp]
  0079e	8b 48 68	 mov	 ecx, DWORD PTR [eax+104]
  007a1	51		 push	 ecx
  007a2	51		 push	 ecx
  007a3	8b cc		 mov	 ecx, esp
  007a5	89 65 d4	 mov	 DWORD PTR $T207553[ebp], esp
  007a8	68 00 00 00 00	 push	 OFFSET FLAT:$SG204499
  007ad	ff 15 00 00 00
	00		 call	 DWORD PTR __imp_??0?$CStringT@DV?$StrTraitMFC_DLL@DV?$ChTraitsCRT@D@ATL@@@@@ATL@@QAE@PBD@Z
  007b3	89 45 ac	 mov	 DWORD PTR tv356[ebp], eax
  007b6	8b 55 bc	 mov	 edx, DWORD PTR _this$[ebp]
  007b9	52		 push	 edx
  007ba	8b 45 e0	 mov	 eax, DWORD PTR _pLayoutMgr$[ebp]
  007bd	8b 10		 mov	 edx, DWORD PTR [eax]
  007bf	8b 4d e0	 mov	 ecx, DWORD PTR _pLayoutMgr$[ebp]
  007c2	ff 52 34	 call	 DWORD PTR [edx+52]

; 91   : 	pLayoutMgr->RegisterCtrl( this, "GameInfo", m_pGameInfo );

  007c5	8b 45 bc	 mov	 eax, DWORD PTR _this$[ebp]
  007c8	8b 48 6c	 mov	 ecx, DWORD PTR [eax+108]
  007cb	51		 push	 ecx
  007cc	51		 push	 ecx
  007cd	8b cc		 mov	 ecx, esp
  007cf	89 65 d0	 mov	 DWORD PTR $T207554[ebp], esp
  007d2	68 00 00 00 00	 push	 OFFSET FLAT:$SG204501
  007d7	ff 15 00 00 00
	00		 call	 DWORD PTR __imp_??0?$CStringT@DV?$StrTraitMFC_DLL@DV?$ChTraitsCRT@D@ATL@@@@@ATL@@QAE@PBD@Z
  007dd	89 45 a8	 mov	 DWORD PTR tv359[ebp], eax
  007e0	8b 55 bc	 mov	 edx, DWORD PTR _this$[ebp]
  007e3	52		 push	 edx
  007e4	8b 45 e0	 mov	 eax, DWORD PTR _pLayoutMgr$[ebp]
  007e7	8b 10		 mov	 edx, DWORD PTR [eax]
  007e9	8b 4d e0	 mov	 ecx, DWORD PTR _pLayoutMgr$[ebp]
  007ec	ff 52 34	 call	 DWORD PTR [edx+52]

; 92   : 		
; 93   : 	pLayoutMgr->CreateControlPane( this, "gamepanel", "normal" );

  007ef	51		 push	 ecx
  007f0	8b cc		 mov	 ecx, esp
  007f2	89 65 cc	 mov	 DWORD PTR $T207555[ebp], esp
  007f5	68 00 00 00 00	 push	 OFFSET FLAT:$SG204504
  007fa	ff 15 00 00 00
	00		 call	 DWORD PTR __imp_??0?$CStringT@DV?$StrTraitMFC_DLL@DV?$ChTraitsCRT@D@ATL@@@@@ATL@@QAE@PBD@Z
  00800	89 45 a4	 mov	 DWORD PTR tv370[ebp], eax
  00803	8b 45 a4	 mov	 eax, DWORD PTR tv370[ebp]
  00806	89 45 a0	 mov	 DWORD PTR tv361[ebp], eax
  00809	c7 45 fc 00 00
	00 00		 mov	 DWORD PTR __$EHRec$[ebp+8], 0
  00810	51		 push	 ecx
  00811	8b cc		 mov	 ecx, esp
  00813	89 65 c8	 mov	 DWORD PTR $T207556[ebp], esp
  00816	68 00 00 00 00	 push	 OFFSET FLAT:$SG204505
  0081b	ff 15 00 00 00
	00		 call	 DWORD PTR __imp_??0?$CStringT@DV?$StrTraitMFC_DLL@DV?$ChTraitsCRT@D@ATL@@@@@ATL@@QAE@PBD@Z
  00821	89 45 9c	 mov	 DWORD PTR tv364[ebp], eax
  00824	8b 4d bc	 mov	 ecx, DWORD PTR _this$[ebp]
  00827	51		 push	 ecx
  00828	8b 55 e0	 mov	 edx, DWORD PTR _pLayoutMgr$[ebp]
  0082b	8b 02		 mov	 eax, DWORD PTR [edx]
  0082d	c7 45 fc ff ff
	ff ff		 mov	 DWORD PTR __$EHRec$[ebp+8], -1
  00834	8b 4d e0	 mov	 ecx, DWORD PTR _pLayoutMgr$[ebp]
  00837	ff 50 38	 call	 DWORD PTR [eax+56]

; 94   : 	pLayoutMgr->CreateBmpPane( this,"gamepanel","normal" );

  0083a	51		 push	 ecx
  0083b	8b cc		 mov	 ecx, esp
  0083d	89 65 c4	 mov	 DWORD PTR $T207557[ebp], esp
  00840	68 00 00 00 00	 push	 OFFSET FLAT:$SG204508
  00845	ff 15 00 00 00
	00		 call	 DWORD PTR __imp_??0?$CStringT@DV?$StrTraitMFC_DLL@DV?$ChTraitsCRT@D@ATL@@@@@ATL@@QAE@PBD@Z
  0084b	89 45 98	 mov	 DWORD PTR tv371[ebp], eax
  0084e	8b 4d 98	 mov	 ecx, DWORD PTR tv371[ebp]
  00851	89 4d 94	 mov	 DWORD PTR tv366[ebp], ecx
  00854	c7 45 fc 01 00
	00 00		 mov	 DWORD PTR __$EHRec$[ebp+8], 1
  0085b	51		 push	 ecx
  0085c	8b cc		 mov	 ecx, esp
  0085e	89 65 c0	 mov	 DWORD PTR $T207558[ebp], esp
  00861	68 00 00 00 00	 push	 OFFSET FLAT:$SG204509
  00866	ff 15 00 00 00
	00		 call	 DWORD PTR __imp_??0?$CStringT@DV?$StrTraitMFC_DLL@DV?$ChTraitsCRT@D@ATL@@@@@ATL@@QAE@PBD@Z
  0086c	89 45 90	 mov	 DWORD PTR tv369[ebp], eax
  0086f	8b 55 bc	 mov	 edx, DWORD PTR _this$[ebp]
  00872	52		 push	 edx
  00873	8b 45 e0	 mov	 eax, DWORD PTR _pLayoutMgr$[ebp]
  00876	8b 10		 mov	 edx, DWORD PTR [eax]
  00878	c7 45 fc ff ff
	ff ff		 mov	 DWORD PTR __$EHRec$[ebp+8], -1
  0087f	8b 4d e0	 mov	 ecx, DWORD PTR _pLayoutMgr$[ebp]
  00882	ff 52 58	 call	 DWORD PTR [edx+88]

; 95   : 
; 96   : 	UpdateAllWnd();

  00885	8b 4d bc	 mov	 ecx, DWORD PTR _this$[ebp]
  00888	e8 00 00 00 00	 call	 ?UpdateAllWnd@GamePanelWnd@@QAEXXZ ; GamePanelWnd::UpdateAllWnd

; 97   : 	return 0;

  0088d	33 c0		 xor	 eax, eax
$L204488:

; 98   : }

  0088f	8b 4d f4	 mov	 ecx, DWORD PTR __$EHRec$[ebp]
  00892	64 89 0d 00 00
	00 00		 mov	 DWORD PTR fs:__except_list, ecx
  00899	8b e5		 mov	 esp, ebp
  0089b	5d		 pop	 ebp
  0089c	c2 04 00	 ret	 4
_TEXT	ENDS
text$x	SEGMENT
$L207563:
  0013e	8b 4d cc	 mov	 ecx, DWORD PTR $T207555[ebp]
  00141	ff 25 00 00 00
	00		 jmp	 DWORD PTR __imp_??1?$CStringT@DV?$StrTraitMFC_DLL@DV?$ChTraitsCRT@D@ATL@@@@@ATL@@QAE@XZ
$L207565:
  00147	8b 4d c4	 mov	 ecx, DWORD PTR $T207557[ebp]
  0014a	ff 25 00 00 00
	00		 jmp	 DWORD PTR __imp_??1?$CStringT@DV?$StrTraitMFC_DLL@DV?$ChTraitsCRT@D@ATL@@@@@ATL@@QAE@XZ
__ehhandler$?OnCreate@GamePanelWnd@@IAEHPAUtagCREATESTRUCTA@@@Z:
  00150	b8 00 00 00 00	 mov	 eax, OFFSET FLAT:$T207568
  00155	e9 00 00 00 00	 jmp	 ___CxxFrameHandler
text$x	ENDS
?OnCreate@GamePanelWnd@@IAEHPAUtagCREATESTRUCTA@@@Z ENDP ; GamePanelWnd::OnCreate
PUBLIC	?LoadSkin@GamePanelWnd@@QAEXXZ			; GamePanelWnd::LoadSkin
; Function compile flags: /Odt
_TEXT	SEGMENT
_this$ = -4						; size = 4
?LoadSkin@GamePanelWnd@@QAEXXZ PROC NEAR		; GamePanelWnd::LoadSkin
; _this$ = ecx

; 101  : {

  008a0	55		 push	 ebp
  008a1	8b ec		 mov	 ebp, esp
  008a3	51		 push	 ecx
  008a4	89 4d fc	 mov	 DWORD PTR _this$[ebp], ecx

; 102  : }

  008a7	8b e5		 mov	 esp, ebp
  008a9	5d		 pop	 ebp
  008aa	c3		 ret	 0
?LoadSkin@GamePanelWnd@@QAEXXZ ENDP			; GamePanelWnd::LoadSkin
_TEXT	ENDS
PUBLIC	??0SWF_GAME@@QAE@ABU0@@Z			; SWF_GAME::SWF_GAME
PUBLIC	?SetTabItem@GamePanelWnd@@QAEXUTAB_ITEM@@@Z	; GamePanelWnd::SetTabItem
PUBLIC	?SetGameEntry@GamePanelWnd@@QAEXUSWF_GAME@@@Z	; GamePanelWnd::SetGameEntry
PUBLIC	??1TAB_ITEM@@QAE@XZ				; TAB_ITEM::~TAB_ITEM
EXTRN	__imp_?c_str@?$basic_string@DU?$char_traits@D@std@@V?$allocator@D@2@@std@@QBEPBDXZ:NEAR
EXTRN	?SetWindowTextA@CxStaticText@@QAEXPBD@Z:NEAR	; CxStaticText::SetWindowTextA
EXTRN	?GetInstance@CWebManager@@SAPAV1@XZ:NEAR	; CWebManager::GetInstance
EXTRN	?GetValue@CWebManager@@QAE?AV?$basic_string@DU?$char_traits@D@std@@V?$allocator@D@2@@std@@AAV23@V23@@Z:NEAR ; CWebManager::GetValue
EXTRN	__imp_??0?$basic_string@DU?$char_traits@D@std@@V?$allocator@D@2@@std@@QAE@PBD@Z:NEAR
EXTRN	__imp_??4?$basic_string@DU?$char_traits@D@std@@V?$allocator@D@2@@std@@QAEAAV01@ABV01@@Z:NEAR
EXTRN	__imp_??Y?$basic_string@DU?$char_traits@D@std@@V?$allocator@D@2@@std@@QAEAAV01@PBD@Z:NEAR
xdata$x	SEGMENT
$T207602 DD	0ffffffffH
	DD	FLAT:$L207585
	DD	00H
	DD	FLAT:$L207586
	DD	00H
	DD	FLAT:$L207587
	DD	00H
	DD	FLAT:$L207588
	DD	00H
	DD	FLAT:$L207589
	DD	00H
	DD	FLAT:$L207590
	DD	00H
	DD	FLAT:$L207591
	DD	00H
	DD	FLAT:$L207592
	DD	00H
	DD	FLAT:$L207593
	DD	00H
	DD	FLAT:$L207594
	DD	00H
	DD	FLAT:$L207595
	DD	00H
	DD	FLAT:$L207597
$T207599 DD	019930520H
	DD	0cH
	DD	FLAT:$T207602
	DD	2 DUP(00H)
	DD	2 DUP(00H)
; Function compile flags: /Odt
xdata$x	ENDS
_TEXT	SEGMENT
tv295 = -296						; size = 4
tv293 = -292						; size = 4
tv291 = -288						; size = 4
tv290 = -284						; size = 4
tv302 = -280						; size = 4
tv288 = -276						; size = 4
tv286 = -272						; size = 4
tv285 = -268						; size = 4
tv301 = -264						; size = 4
tv283 = -260						; size = 4
tv281 = -256						; size = 4
tv280 = -252						; size = 4
tv300 = -248						; size = 4
tv278 = -244						; size = 4
tv276 = -240						; size = 4
tv275 = -236						; size = 4
tv299 = -232						; size = 4
tv273 = -228						; size = 4
tv271 = -224						; size = 4
tv270 = -220						; size = 4
tv298 = -216						; size = 4
_this$ = -212						; size = 4
$T207584 = -208						; size = 4
$T207583 = -204						; size = 28
$T207582 = -176						; size = 4
$T207581 = -172						; size = 28
$T207580 = -144						; size = 4
$T207579 = -140						; size = 28
$T207578 = -112						; size = 4
$T207577 = -108						; size = 28
$T207576 = -80						; size = 4
$T207575 = -76						; size = 28
$T207574 = -48						; size = 4
_strGameInfo$ = -44					; size = 28
__$ArrayPad$ = -16					; size = 4
__$EHRec$ = -12						; size = 12
__$ReturnAddr$ = 4					; size = 4
_ti$ = 8						; size = 60
?SetTabItem@GamePanelWnd@@QAEXUTAB_ITEM@@@Z PROC NEAR	; GamePanelWnd::SetTabItem
; _this$ = ecx

; 105  : {

  008b0	55		 push	 ebp
  008b1	8b ec		 mov	 ebp, esp
  008b3	6a ff		 push	 -1
  008b5	68 00 00 00 00	 push	 __ehhandler$?SetTabItem@GamePanelWnd@@QAEXUTAB_ITEM@@@Z
  008ba	64 a1 00 00 00
	00		 mov	 eax, DWORD PTR fs:__except_list
  008c0	50		 push	 eax
  008c1	64 89 25 00 00
	00 00		 mov	 DWORD PTR fs:__except_list, esp
  008c8	81 ec 1c 01 00
	00		 sub	 esp, 284		; 0000011cH
  008ce	a1 00 00 00 00	 mov	 eax, DWORD PTR ___security_cookie
  008d3	89 45 f0	 mov	 DWORD PTR __$ArrayPad$[ebp], eax
  008d6	89 8d 2c ff ff
	ff		 mov	 DWORD PTR _this$[ebp], ecx
  008dc	c7 45 fc 00 00
	00 00		 mov	 DWORD PTR __$EHRec$[ebp+8], 0

; 106  : 	m_swfGame.strID = CWebManager::GetInstance()->GetValue( ti.strParam, "id" );

  008e3	83 ec 1c	 sub	 esp, 28			; 0000001cH
  008e6	8b cc		 mov	 ecx, esp
  008e8	89 65 d0	 mov	 DWORD PTR $T207574[ebp], esp
  008eb	68 00 00 00 00	 push	 OFFSET FLAT:$SG204519
  008f0	ff 15 00 00 00
	00		 call	 DWORD PTR __imp_??0?$basic_string@DU?$char_traits@D@std@@V?$allocator@D@2@@std@@QAE@PBD@Z
  008f6	89 85 28 ff ff
	ff		 mov	 DWORD PTR tv298[ebp], eax
  008fc	8b 85 28 ff ff
	ff		 mov	 eax, DWORD PTR tv298[ebp]
  00902	89 85 24 ff ff
	ff		 mov	 DWORD PTR tv270[ebp], eax
  00908	c6 45 fc 01	 mov	 BYTE PTR __$EHRec$[ebp+8], 1
  0090c	8d 4d 28	 lea	 ecx, DWORD PTR _ti$[ebp+32]
  0090f	51		 push	 ecx
  00910	8d 55 b4	 lea	 edx, DWORD PTR $T207575[ebp]
  00913	52		 push	 edx
  00914	e8 00 00 00 00	 call	 ?GetInstance@CWebManager@@SAPAV1@XZ ; CWebManager::GetInstance
  00919	c6 45 fc 00	 mov	 BYTE PTR __$EHRec$[ebp+8], 0
  0091d	8b c8		 mov	 ecx, eax
  0091f	e8 00 00 00 00	 call	 ?GetValue@CWebManager@@QAE?AV?$basic_string@DU?$char_traits@D@std@@V?$allocator@D@2@@std@@AAV23@V23@@Z ; CWebManager::GetValue
  00924	89 85 20 ff ff
	ff		 mov	 DWORD PTR tv271[ebp], eax
  0092a	8b 85 20 ff ff
	ff		 mov	 eax, DWORD PTR tv271[ebp]
  00930	89 85 1c ff ff
	ff		 mov	 DWORD PTR tv273[ebp], eax
  00936	c6 45 fc 02	 mov	 BYTE PTR __$EHRec$[ebp+8], 2
  0093a	8b 8d 1c ff ff
	ff		 mov	 ecx, DWORD PTR tv273[ebp]
  00940	51		 push	 ecx
  00941	8b 8d 2c ff ff
	ff		 mov	 ecx, DWORD PTR _this$[ebp]
  00947	83 c1 78	 add	 ecx, 120		; 00000078H
  0094a	ff 15 00 00 00
	00		 call	 DWORD PTR __imp_??4?$basic_string@DU?$char_traits@D@std@@V?$allocator@D@2@@std@@QAEAAV01@ABV01@@Z
  00950	c6 45 fc 00	 mov	 BYTE PTR __$EHRec$[ebp+8], 0
  00954	8d 4d b4	 lea	 ecx, DWORD PTR $T207575[ebp]
  00957	ff 15 00 00 00
	00		 call	 DWORD PTR __imp_??1?$basic_string@DU?$char_traits@D@std@@V?$allocator@D@2@@std@@QAE@XZ

; 107  : 	m_swfGame.strName = CWebManager::GetInstance()->GetValue( ti.strParam, "name" );

  0095d	83 ec 1c	 sub	 esp, 28			; 0000001cH
  00960	8b cc		 mov	 ecx, esp
  00962	89 65 b0	 mov	 DWORD PTR $T207576[ebp], esp
  00965	68 00 00 00 00	 push	 OFFSET FLAT:$SG204522
  0096a	ff 15 00 00 00
	00		 call	 DWORD PTR __imp_??0?$basic_string@DU?$char_traits@D@std@@V?$allocator@D@2@@std@@QAE@PBD@Z
  00970	89 85 18 ff ff
	ff		 mov	 DWORD PTR tv299[ebp], eax
  00976	8b 95 18 ff ff
	ff		 mov	 edx, DWORD PTR tv299[ebp]
  0097c	89 95 14 ff ff
	ff		 mov	 DWORD PTR tv275[ebp], edx
  00982	c6 45 fc 03	 mov	 BYTE PTR __$EHRec$[ebp+8], 3
  00986	8d 45 28	 lea	 eax, DWORD PTR _ti$[ebp+32]
  00989	50		 push	 eax
  0098a	8d 4d 94	 lea	 ecx, DWORD PTR $T207577[ebp]
  0098d	51		 push	 ecx
  0098e	e8 00 00 00 00	 call	 ?GetInstance@CWebManager@@SAPAV1@XZ ; CWebManager::GetInstance
  00993	c6 45 fc 00	 mov	 BYTE PTR __$EHRec$[ebp+8], 0
  00997	8b c8		 mov	 ecx, eax
  00999	e8 00 00 00 00	 call	 ?GetValue@CWebManager@@QAE?AV?$basic_string@DU?$char_traits@D@std@@V?$allocator@D@2@@std@@AAV23@V23@@Z ; CWebManager::GetValue
  0099e	89 85 10 ff ff
	ff		 mov	 DWORD PTR tv276[ebp], eax
  009a4	8b 95 10 ff ff
	ff		 mov	 edx, DWORD PTR tv276[ebp]
  009aa	89 95 0c ff ff
	ff		 mov	 DWORD PTR tv278[ebp], edx
  009b0	c6 45 fc 04	 mov	 BYTE PTR __$EHRec$[ebp+8], 4
  009b4	8b 85 0c ff ff
	ff		 mov	 eax, DWORD PTR tv278[ebp]
  009ba	50		 push	 eax
  009bb	8b 8d 2c ff ff
	ff		 mov	 ecx, DWORD PTR _this$[ebp]
  009c1	81 c1 94 00 00
	00		 add	 ecx, 148		; 00000094H
  009c7	ff 15 00 00 00
	00		 call	 DWORD PTR __imp_??4?$basic_string@DU?$char_traits@D@std@@V?$allocator@D@2@@std@@QAEAAV01@ABV01@@Z
  009cd	c6 45 fc 00	 mov	 BYTE PTR __$EHRec$[ebp+8], 0
  009d1	8d 4d 94	 lea	 ecx, DWORD PTR $T207577[ebp]
  009d4	ff 15 00 00 00
	00		 call	 DWORD PTR __imp_??1?$basic_string@DU?$char_traits@D@std@@V?$allocator@D@2@@std@@QAE@XZ

; 108  : 	m_swfGame.strPicUrl = CWebManager::GetInstance()->GetValue( ti.strParam, "picurl" );

  009da	83 ec 1c	 sub	 esp, 28			; 0000001cH
  009dd	8b cc		 mov	 ecx, esp
  009df	89 65 90	 mov	 DWORD PTR $T207578[ebp], esp
  009e2	68 00 00 00 00	 push	 OFFSET FLAT:$SG204525
  009e7	ff 15 00 00 00
	00		 call	 DWORD PTR __imp_??0?$basic_string@DU?$char_traits@D@std@@V?$allocator@D@2@@std@@QAE@PBD@Z
  009ed	89 85 08 ff ff
	ff		 mov	 DWORD PTR tv300[ebp], eax
  009f3	8b 8d 08 ff ff
	ff		 mov	 ecx, DWORD PTR tv300[ebp]
  009f9	89 8d 04 ff ff
	ff		 mov	 DWORD PTR tv280[ebp], ecx
  009ff	c6 45 fc 05	 mov	 BYTE PTR __$EHRec$[ebp+8], 5
  00a03	8d 55 28	 lea	 edx, DWORD PTR _ti$[ebp+32]
  00a06	52		 push	 edx
  00a07	8d 85 74 ff ff
	ff		 lea	 eax, DWORD PTR $T207579[ebp]
  00a0d	50		 push	 eax
  00a0e	e8 00 00 00 00	 call	 ?GetInstance@CWebManager@@SAPAV1@XZ ; CWebManager::GetInstance
  00a13	c6 45 fc 00	 mov	 BYTE PTR __$EHRec$[ebp+8], 0
  00a17	8b c8		 mov	 ecx, eax
  00a19	e8 00 00 00 00	 call	 ?GetValue@CWebManager@@QAE?AV?$basic_string@DU?$char_traits@D@std@@V?$allocator@D@2@@std@@AAV23@V23@@Z ; CWebManager::GetValue
  00a1e	89 85 00 ff ff
	ff		 mov	 DWORD PTR tv281[ebp], eax
  00a24	8b 8d 00 ff ff
	ff		 mov	 ecx, DWORD PTR tv281[ebp]
  00a2a	89 8d fc fe ff
	ff		 mov	 DWORD PTR tv283[ebp], ecx
  00a30	c6 45 fc 06	 mov	 BYTE PTR __$EHRec$[ebp+8], 6
  00a34	8b 95 fc fe ff
	ff		 mov	 edx, DWORD PTR tv283[ebp]
  00a3a	52		 push	 edx
  00a3b	8b 8d 2c ff ff
	ff		 mov	 ecx, DWORD PTR _this$[ebp]
  00a41	81 c1 b0 00 00
	00		 add	 ecx, 176		; 000000b0H
  00a47	ff 15 00 00 00
	00		 call	 DWORD PTR __imp_??4?$basic_string@DU?$char_traits@D@std@@V?$allocator@D@2@@std@@QAEAAV01@ABV01@@Z
  00a4d	c6 45 fc 00	 mov	 BYTE PTR __$EHRec$[ebp+8], 0
  00a51	8d 8d 74 ff ff
	ff		 lea	 ecx, DWORD PTR $T207579[ebp]
  00a57	ff 15 00 00 00
	00		 call	 DWORD PTR __imp_??1?$basic_string@DU?$char_traits@D@std@@V?$allocator@D@2@@std@@QAE@XZ

; 109  : 	m_swfGame.strSwfUrl = CWebManager::GetInstance()->GetValue( ti.strParam, "swfurl" );

  00a5d	83 ec 1c	 sub	 esp, 28			; 0000001cH
  00a60	8b cc		 mov	 ecx, esp
  00a62	89 a5 70 ff ff
	ff		 mov	 DWORD PTR $T207580[ebp], esp
  00a68	68 00 00 00 00	 push	 OFFSET FLAT:$SG204528
  00a6d	ff 15 00 00 00
	00		 call	 DWORD PTR __imp_??0?$basic_string@DU?$char_traits@D@std@@V?$allocator@D@2@@std@@QAE@PBD@Z
  00a73	89 85 f8 fe ff
	ff		 mov	 DWORD PTR tv301[ebp], eax
  00a79	8b 85 f8 fe ff
	ff		 mov	 eax, DWORD PTR tv301[ebp]
  00a7f	89 85 f4 fe ff
	ff		 mov	 DWORD PTR tv285[ebp], eax
  00a85	c6 45 fc 07	 mov	 BYTE PTR __$EHRec$[ebp+8], 7
  00a89	8d 4d 28	 lea	 ecx, DWORD PTR _ti$[ebp+32]
  00a8c	51		 push	 ecx
  00a8d	8d 95 54 ff ff
	ff		 lea	 edx, DWORD PTR $T207581[ebp]
  00a93	52		 push	 edx
  00a94	e8 00 00 00 00	 call	 ?GetInstance@CWebManager@@SAPAV1@XZ ; CWebManager::GetInstance
  00a99	c6 45 fc 00	 mov	 BYTE PTR __$EHRec$[ebp+8], 0
  00a9d	8b c8		 mov	 ecx, eax
  00a9f	e8 00 00 00 00	 call	 ?GetValue@CWebManager@@QAE?AV?$basic_string@DU?$char_traits@D@std@@V?$allocator@D@2@@std@@AAV23@V23@@Z ; CWebManager::GetValue
  00aa4	89 85 f0 fe ff
	ff		 mov	 DWORD PTR tv286[ebp], eax
  00aaa	8b 85 f0 fe ff
	ff		 mov	 eax, DWORD PTR tv286[ebp]
  00ab0	89 85 ec fe ff
	ff		 mov	 DWORD PTR tv288[ebp], eax
  00ab6	c6 45 fc 08	 mov	 BYTE PTR __$EHRec$[ebp+8], 8
  00aba	8b 8d ec fe ff
	ff		 mov	 ecx, DWORD PTR tv288[ebp]
  00ac0	51		 push	 ecx
  00ac1	8b 8d 2c ff ff
	ff		 mov	 ecx, DWORD PTR _this$[ebp]
  00ac7	81 c1 cc 00 00
	00		 add	 ecx, 204		; 000000ccH
  00acd	ff 15 00 00 00
	00		 call	 DWORD PTR __imp_??4?$basic_string@DU?$char_traits@D@std@@V?$allocator@D@2@@std@@QAEAAV01@ABV01@@Z
  00ad3	c6 45 fc 00	 mov	 BYTE PTR __$EHRec$[ebp+8], 0
  00ad7	8d 8d 54 ff ff
	ff		 lea	 ecx, DWORD PTR $T207581[ebp]
  00add	ff 15 00 00 00
	00		 call	 DWORD PTR __imp_??1?$basic_string@DU?$char_traits@D@std@@V?$allocator@D@2@@std@@QAE@XZ

; 110  : 	m_swfGame.strIntro  = CWebManager::GetInstance()->GetValue( ti.strParam, "intro" );;

  00ae3	83 ec 1c	 sub	 esp, 28			; 0000001cH
  00ae6	8b cc		 mov	 ecx, esp
  00ae8	89 a5 50 ff ff
	ff		 mov	 DWORD PTR $T207582[ebp], esp
  00aee	68 00 00 00 00	 push	 OFFSET FLAT:$SG204531
  00af3	ff 15 00 00 00
	00		 call	 DWORD PTR __imp_??0?$basic_string@DU?$char_traits@D@std@@V?$allocator@D@2@@std@@QAE@PBD@Z
  00af9	89 85 e8 fe ff
	ff		 mov	 DWORD PTR tv302[ebp], eax
  00aff	8b 95 e8 fe ff
	ff		 mov	 edx, DWORD PTR tv302[ebp]
  00b05	89 95 e4 fe ff
	ff		 mov	 DWORD PTR tv290[ebp], edx
  00b0b	c6 45 fc 09	 mov	 BYTE PTR __$EHRec$[ebp+8], 9
  00b0f	8d 45 28	 lea	 eax, DWORD PTR _ti$[ebp+32]
  00b12	50		 push	 eax
  00b13	8d 8d 34 ff ff
	ff		 lea	 ecx, DWORD PTR $T207583[ebp]
  00b19	51		 push	 ecx
  00b1a	e8 00 00 00 00	 call	 ?GetInstance@CWebManager@@SAPAV1@XZ ; CWebManager::GetInstance
  00b1f	c6 45 fc 00	 mov	 BYTE PTR __$EHRec$[ebp+8], 0
  00b23	8b c8		 mov	 ecx, eax
  00b25	e8 00 00 00 00	 call	 ?GetValue@CWebManager@@QAE?AV?$basic_string@DU?$char_traits@D@std@@V?$allocator@D@2@@std@@AAV23@V23@@Z ; CWebManager::GetValue
  00b2a	89 85 e0 fe ff
	ff		 mov	 DWORD PTR tv291[ebp], eax
  00b30	8b 95 e0 fe ff
	ff		 mov	 edx, DWORD PTR tv291[ebp]
  00b36	89 95 dc fe ff
	ff		 mov	 DWORD PTR tv293[ebp], edx
  00b3c	c6 45 fc 0a	 mov	 BYTE PTR __$EHRec$[ebp+8], 10 ; 0000000aH
  00b40	8b 85 dc fe ff
	ff		 mov	 eax, DWORD PTR tv293[ebp]
  00b46	50		 push	 eax
  00b47	8b 8d 2c ff ff
	ff		 mov	 ecx, DWORD PTR _this$[ebp]
  00b4d	81 c1 e8 00 00
	00		 add	 ecx, 232		; 000000e8H
  00b53	ff 15 00 00 00
	00		 call	 DWORD PTR __imp_??4?$basic_string@DU?$char_traits@D@std@@V?$allocator@D@2@@std@@QAEAAV01@ABV01@@Z
  00b59	c6 45 fc 00	 mov	 BYTE PTR __$EHRec$[ebp+8], 0
  00b5d	8d 8d 34 ff ff
	ff		 lea	 ecx, DWORD PTR $T207583[ebp]
  00b63	ff 15 00 00 00
	00		 call	 DWORD PTR __imp_??1?$basic_string@DU?$char_traits@D@std@@V?$allocator@D@2@@std@@QAE@XZ

; 111  : 	
; 112  : 	SetGameEntry( m_swfGame );

  00b69	8b 8d 2c ff ff
	ff		 mov	 ecx, DWORD PTR _this$[ebp]
  00b6f	83 c1 78	 add	 ecx, 120		; 00000078H
  00b72	81 ec 8c 00 00
	00		 sub	 esp, 140		; 0000008cH
  00b78	8b d4		 mov	 edx, esp
  00b7a	89 a5 30 ff ff
	ff		 mov	 DWORD PTR $T207584[ebp], esp
  00b80	51		 push	 ecx
  00b81	8b ca		 mov	 ecx, edx
  00b83	e8 00 00 00 00	 call	 ??0SWF_GAME@@QAE@ABU0@@Z
  00b88	89 85 d8 fe ff
	ff		 mov	 DWORD PTR tv295[ebp], eax
  00b8e	8b 8d 2c ff ff
	ff		 mov	 ecx, DWORD PTR _this$[ebp]
  00b94	e8 00 00 00 00	 call	 ?SetGameEntry@GamePanelWnd@@QAEXUSWF_GAME@@@Z ; GamePanelWnd::SetGameEntry

; 113  : 	
; 114  : 	string strGameInfo = "x CRect";

  00b99	68 00 00 00 00	 push	 OFFSET FLAT:$SG204534
  00b9e	8d 4d d4	 lea	 ecx, DWORD PTR _strGameInfo$[ebp]
  00ba1	ff 15 00 00 00
	00		 call	 DWORD PTR __imp_??0?$basic_string@DU?$char_traits@D@std@@V?$allocator@D@2@@std@@QAE@PBD@Z
  00ba7	c6 45 fc 0b	 mov	 BYTE PTR __$EHRec$[ebp+8], 11 ; 0000000bH

; 115  : 	strGameInfo += "y CRect";

  00bab	68 00 00 00 00	 push	 OFFSET FLAT:$SG204535
  00bb0	8d 4d d4	 lea	 ecx, DWORD PTR _strGameInfo$[ebp]
  00bb3	ff 15 00 00 00
	00		 call	 DWORD PTR __imp_??Y?$basic_string@DU?$char_traits@D@std@@V?$allocator@D@2@@std@@QAEAAV01@PBD@Z

; 116  : 	strGameInfo += "size CRectSIZECSize";

  00bb9	68 00 00 00 00	 push	 OFFSET FLAT:$SG204536
  00bbe	8d 4d d4	 lea	 ecx, DWORD PTR _strGameInfo$[ebp]
  00bc1	ff 15 00 00 00
	00		 call	 DWORD PTR __imp_??Y?$basic_string@DU?$char_traits@D@std@@V?$allocator@D@2@@std@@QAEAAV01@PBD@Z

; 117  : 	strGameInfo += "cx ";

  00bc7	68 00 00 00 00	 push	 OFFSET FLAT:$SG204537
  00bcc	8d 4d d4	 lea	 ecx, DWORD PTR _strGameInfo$[ebp]
  00bcf	ff 15 00 00 00
	00		 call	 DWORD PTR __imp_??Y?$basic_string@DU?$char_traits@D@std@@V?$allocator@D@2@@std@@QAEAAV01@PBD@Z

; 118  : 	strGameInfo += "cy ";

  00bd5	68 00 00 00 00	 push	 OFFSET FLAT:$SG204538
  00bda	8d 4d d4	 lea	 ecx, DWORD PTR _strGameInfo$[ebp]
  00bdd	ff 15 00 00 00
	00		 call	 DWORD PTR __imp_??Y?$basic_string@DU?$char_traits@D@std@@V?$allocator@D@2@@std@@QAEAAV01@PBD@Z

; 119  : 	strGameInfo += "lpRect RECTCRect";

  00be3	68 00 00 00 00	 push	 OFFSET FLAT:$SG204539
  00be8	8d 4d d4	 lea	 ecx, DWORD PTR _strGameInfo$[ebp]
  00beb	ff 15 00 00 00
	00		 call	 DWORD PTR __imp_??Y?$basic_string@DU?$char_traits@D@std@@V?$allocator@D@2@@std@@QAEAAV01@PBD@Z

; 120  : 	strGameInfo += "l CRect";

  00bf1	68 00 00 00 00	 push	 OFFSET FLAT:$SG204540
  00bf6	8d 4d d4	 lea	 ecx, DWORD PTR _strGameInfo$[ebp]
  00bf9	ff 15 00 00 00
	00		 call	 DWORD PTR __imp_??Y?$basic_string@DU?$char_traits@D@std@@V?$allocator@D@2@@std@@QAEAAV01@PBD@Z

; 121  : 	strGameInfo += "t CRect";

  00bff	68 00 00 00 00	 push	 OFFSET FLAT:$SG204541
  00c04	8d 4d d4	 lea	 ecx, DWORD PTR _strGameInfo$[ebp]
  00c07	ff 15 00 00 00
	00		 call	 DWORD PTR __imp_??Y?$basic_string@DU?$char_traits@D@std@@V?$allocator@D@2@@std@@QAEAAV01@PBD@Z

; 122  : 	m_swfGame.strIntro = strGameInfo;

  00c0d	8d 45 d4	 lea	 eax, DWORD PTR _strGameInfo$[ebp]
  00c10	50		 push	 eax
  00c11	8b 8d 2c ff ff
	ff		 mov	 ecx, DWORD PTR _this$[ebp]
  00c17	81 c1 e8 00 00
	00		 add	 ecx, 232		; 000000e8H
  00c1d	ff 15 00 00 00
	00		 call	 DWORD PTR __imp_??4?$basic_string@DU?$char_traits@D@std@@V?$allocator@D@2@@std@@QAEAAV01@ABV01@@Z

; 123  : 	m_pGameInfo->SetWindowText( m_swfGame.strIntro.c_str() );

  00c23	8b 8d 2c ff ff
	ff		 mov	 ecx, DWORD PTR _this$[ebp]
  00c29	81 c1 e8 00 00
	00		 add	 ecx, 232		; 000000e8H
  00c2f	ff 15 00 00 00
	00		 call	 DWORD PTR __imp_?c_str@?$basic_string@DU?$char_traits@D@std@@V?$allocator@D@2@@std@@QBEPBDXZ
  00c35	50		 push	 eax
  00c36	8b 8d 2c ff ff
	ff		 mov	 ecx, DWORD PTR _this$[ebp]
  00c3c	8b 49 6c	 mov	 ecx, DWORD PTR [ecx+108]
  00c3f	e8 00 00 00 00	 call	 ?SetWindowTextA@CxStaticText@@QAEXPBD@Z ; CxStaticText::SetWindowTextA

; 124  : }

  00c44	c6 45 fc 00	 mov	 BYTE PTR __$EHRec$[ebp+8], 0
  00c48	8d 4d d4	 lea	 ecx, DWORD PTR _strGameInfo$[ebp]
  00c4b	ff 15 00 00 00
	00		 call	 DWORD PTR __imp_??1?$basic_string@DU?$char_traits@D@std@@V?$allocator@D@2@@std@@QAE@XZ
  00c51	c7 45 fc ff ff
	ff ff		 mov	 DWORD PTR __$EHRec$[ebp+8], -1
  00c58	8d 4d 08	 lea	 ecx, DWORD PTR _ti$[ebp]
  00c5b	e8 00 00 00 00	 call	 ??1TAB_ITEM@@QAE@XZ
  00c60	8b 4d f4	 mov	 ecx, DWORD PTR __$EHRec$[ebp]
  00c63	64 89 0d 00 00
	00 00		 mov	 DWORD PTR fs:__except_list, ecx
  00c6a	8b 4d f0	 mov	 ecx, DWORD PTR __$ArrayPad$[ebp]
  00c6d	e8 00 00 00 00	 call	 @__security_check_cookie@4
  00c72	8b e5		 mov	 esp, ebp
  00c74	5d		 pop	 ebp
  00c75	c2 3c 00	 ret	 60			; 0000003cH
_TEXT	ENDS
text$x	SEGMENT
$L207585:
  0015a	8d 4d 08	 lea	 ecx, DWORD PTR _ti$[ebp]
  0015d	e9 00 00 00 00	 jmp	 ??1TAB_ITEM@@QAE@XZ
$L207586:
  00162	8b 4d d0	 mov	 ecx, DWORD PTR $T207574[ebp]
  00165	ff 25 00 00 00
	00		 jmp	 DWORD PTR __imp_??1?$basic_string@DU?$char_traits@D@std@@V?$allocator@D@2@@std@@QAE@XZ
$L207587:
  0016b	8d 4d b4	 lea	 ecx, DWORD PTR $T207575[ebp]
  0016e	ff 25 00 00 00
	00		 jmp	 DWORD PTR __imp_??1?$basic_string@DU?$char_traits@D@std@@V?$allocator@D@2@@std@@QAE@XZ
$L207588:
  00174	8b 4d b0	 mov	 ecx, DWORD PTR $T207576[ebp]
  00177	ff 25 00 00 00
	00		 jmp	 DWORD PTR __imp_??1?$basic_string@DU?$char_traits@D@std@@V?$allocator@D@2@@std@@QAE@XZ
$L207589:
  0017d	8d 4d 94	 lea	 ecx, DWORD PTR $T207577[ebp]
  00180	ff 25 00 00 00
	00		 jmp	 DWORD PTR __imp_??1?$basic_string@DU?$char_traits@D@std@@V?$allocator@D@2@@std@@QAE@XZ
$L207590:
  00186	8b 4d 90	 mov	 ecx, DWORD PTR $T207578[ebp]
  00189	ff 25 00 00 00
	00		 jmp	 DWORD PTR __imp_??1?$basic_string@DU?$char_traits@D@std@@V?$allocator@D@2@@std@@QAE@XZ
$L207591:
  0018f	8d 8d 74 ff ff
	ff		 lea	 ecx, DWORD PTR $T207579[ebp]
  00195	ff 25 00 00 00
	00		 jmp	 DWORD PTR __imp_??1?$basic_string@DU?$char_traits@D@std@@V?$allocator@D@2@@std@@QAE@XZ
$L207592:
  0019b	8b 8d 70 ff ff
	ff		 mov	 ecx, DWORD PTR $T207580[ebp]
  001a1	ff 25 00 00 00
	00		 jmp	 DWORD PTR __imp_??1?$basic_string@DU?$char_traits@D@std@@V?$allocator@D@2@@std@@QAE@XZ
$L207593:
  001a7	8d 8d 54 ff ff
	ff		 lea	 ecx, DWORD PTR $T207581[ebp]
  001ad	ff 25 00 00 00
	00		 jmp	 DWORD PTR __imp_??1?$basic_string@DU?$char_traits@D@std@@V?$allocator@D@2@@std@@QAE@XZ
$L207594:
  001b3	8b 8d 50 ff ff
	ff		 mov	 ecx, DWORD PTR $T207582[ebp]
  001b9	ff 25 00 00 00
	00		 jmp	 DWORD PTR __imp_??1?$basic_string@DU?$char_traits@D@std@@V?$allocator@D@2@@std@@QAE@XZ
$L207595:
  001bf	8d 8d 34 ff ff
	ff		 lea	 ecx, DWORD PTR $T207583[ebp]
  001c5	ff 25 00 00 00
	00		 jmp	 DWORD PTR __imp_??1?$basic_string@DU?$char_traits@D@std@@V?$allocator@D@2@@std@@QAE@XZ
$L207597:
  001cb	8d 4d d4	 lea	 ecx, DWORD PTR _strGameInfo$[ebp]
  001ce	ff 25 00 00 00
	00		 jmp	 DWORD PTR __imp_??1?$basic_string@DU?$char_traits@D@std@@V?$allocator@D@2@@std@@QAE@XZ
__ehhandler$?SetTabItem@GamePanelWnd@@QAEXUTAB_ITEM@@@Z:
  001d4	b8 00 00 00 00	 mov	 eax, OFFSET FLAT:$T207599
  001d9	e9 00 00 00 00	 jmp	 ___CxxFrameHandler
text$x	ENDS
?SetTabItem@GamePanelWnd@@QAEXUTAB_ITEM@@@Z ENDP	; GamePanelWnd::SetTabItem
;	COMDAT xdata$x
xdata$x	SEGMENT
$T207609 DD	0ffffffffH
	DD	FLAT:$L207604
$T207607 DD	019930520H
	DD	01H
	DD	FLAT:$T207609
	DD	2 DUP(00H)
	DD	2 DUP(00H)
; Function compile flags: /Odt
xdata$x	ENDS
;	COMDAT ??1TAB_ITEM@@QAE@XZ
_TEXT	SEGMENT
_this$ = -16						; size = 4
__$EHRec$ = -12						; size = 12
??1TAB_ITEM@@QAE@XZ PROC NEAR				; TAB_ITEM::~TAB_ITEM, COMDAT
; _this$ = ecx
  00000	55		 push	 ebp
  00001	8b ec		 mov	 ebp, esp
  00003	6a ff		 push	 -1
  00005	68 00 00 00 00	 push	 __ehhandler$??1TAB_ITEM@@QAE@XZ
  0000a	64 a1 00 00 00
	00		 mov	 eax, DWORD PTR fs:__except_list
  00010	50		 push	 eax
  00011	64 89 25 00 00
	00 00		 mov	 DWORD PTR fs:__except_list, esp
  00018	51		 push	 ecx
  00019	89 4d f0	 mov	 DWORD PTR _this$[ebp], ecx
  0001c	c7 45 fc 00 00
	00 00		 mov	 DWORD PTR __$EHRec$[ebp+8], 0
  00023	8b 4d f0	 mov	 ecx, DWORD PTR _this$[ebp]
  00026	83 c1 20	 add	 ecx, 32			; 00000020H
  00029	ff 15 00 00 00
	00		 call	 DWORD PTR __imp_??1?$basic_string@DU?$char_traits@D@std@@V?$allocator@D@2@@std@@QAE@XZ
  0002f	c7 45 fc ff ff
	ff ff		 mov	 DWORD PTR __$EHRec$[ebp+8], -1
  00036	8b 4d f0	 mov	 ecx, DWORD PTR _this$[ebp]
  00039	ff 15 00 00 00
	00		 call	 DWORD PTR __imp_??1?$basic_string@DU?$char_traits@D@std@@V?$allocator@D@2@@std@@QAE@XZ
  0003f	8b 4d f4	 mov	 ecx, DWORD PTR __$EHRec$[ebp]
  00042	64 89 0d 00 00
	00 00		 mov	 DWORD PTR fs:__except_list, ecx
  00049	8b e5		 mov	 esp, ebp
  0004b	5d		 pop	 ebp
  0004c	c3		 ret	 0
_TEXT	ENDS
;	COMDAT text$x
text$x	SEGMENT
$L207604:
  00000	8b 4d f0	 mov	 ecx, DWORD PTR _this$[ebp]
  00003	ff 25 00 00 00
	00		 jmp	 DWORD PTR __imp_??1?$basic_string@DU?$char_traits@D@std@@V?$allocator@D@2@@std@@QAE@XZ
__ehhandler$??1TAB_ITEM@@QAE@XZ:
  00009	b8 00 00 00 00	 mov	 eax, OFFSET FLAT:$T207607
  0000e	e9 00 00 00 00	 jmp	 ___CxxFrameHandler
text$x	ENDS
??1TAB_ITEM@@QAE@XZ ENDP				; TAB_ITEM::~TAB_ITEM
EXTRN	__imp_??0?$basic_string@DU?$char_traits@D@std@@V?$allocator@D@2@@std@@QAE@ABV01@@Z:NEAR
;	COMDAT xdata$x
xdata$x	SEGMENT
$T207622 DD	0ffffffffH
	DD	FLAT:$L207614
	DD	00H
	DD	FLAT:$L207615
	DD	01H
	DD	FLAT:$L207616
	DD	02H
	DD	FLAT:$L207617
$T207620 DD	019930520H
	DD	04H
	DD	FLAT:$T207622
	DD	2 DUP(00H)
	DD	2 DUP(00H)
; Function compile flags: /Odt
xdata$x	ENDS
;	COMDAT ??0SWF_GAME@@QAE@ABU0@@Z
_TEXT	SEGMENT
_this$ = -16						; size = 4
__$EHRec$ = -12						; size = 12
___that$ = 8						; size = 4
??0SWF_GAME@@QAE@ABU0@@Z PROC NEAR			; SWF_GAME::SWF_GAME, COMDAT
; _this$ = ecx
  00000	55		 push	 ebp
  00001	8b ec		 mov	 ebp, esp
  00003	6a ff		 push	 -1
  00005	68 00 00 00 00	 push	 __ehhandler$??0SWF_GAME@@QAE@ABU0@@Z
  0000a	64 a1 00 00 00
	00		 mov	 eax, DWORD PTR fs:__except_list
  00010	50		 push	 eax
  00011	64 89 25 00 00
	00 00		 mov	 DWORD PTR fs:__except_list, esp
  00018	51		 push	 ecx
  00019	89 4d f0	 mov	 DWORD PTR _this$[ebp], ecx
  0001c	8b 45 08	 mov	 eax, DWORD PTR ___that$[ebp]
  0001f	50		 push	 eax
  00020	8b 4d f0	 mov	 ecx, DWORD PTR _this$[ebp]
  00023	ff 15 00 00 00
	00		 call	 DWORD PTR __imp_??0?$basic_string@DU?$char_traits@D@std@@V?$allocator@D@2@@std@@QAE@ABV01@@Z
  00029	c7 45 fc 00 00
	00 00		 mov	 DWORD PTR __$EHRec$[ebp+8], 0
  00030	8b 4d 08	 mov	 ecx, DWORD PTR ___that$[ebp]
  00033	83 c1 1c	 add	 ecx, 28			; 0000001cH
  00036	51		 push	 ecx
  00037	8b 4d f0	 mov	 ecx, DWORD PTR _this$[ebp]
  0003a	83 c1 1c	 add	 ecx, 28			; 0000001cH
  0003d	ff 15 00 00 00
	00		 call	 DWORD PTR __imp_??0?$basic_string@DU?$char_traits@D@std@@V?$allocator@D@2@@std@@QAE@ABV01@@Z
  00043	c6 45 fc 01	 mov	 BYTE PTR __$EHRec$[ebp+8], 1
  00047	8b 55 08	 mov	 edx, DWORD PTR ___that$[ebp]
  0004a	83 c2 38	 add	 edx, 56			; 00000038H
  0004d	52		 push	 edx
  0004e	8b 4d f0	 mov	 ecx, DWORD PTR _this$[ebp]
  00051	83 c1 38	 add	 ecx, 56			; 00000038H
  00054	ff 15 00 00 00
	00		 call	 DWORD PTR __imp_??0?$basic_string@DU?$char_traits@D@std@@V?$allocator@D@2@@std@@QAE@ABV01@@Z
  0005a	c6 45 fc 02	 mov	 BYTE PTR __$EHRec$[ebp+8], 2
  0005e	8b 45 08	 mov	 eax, DWORD PTR ___that$[ebp]
  00061	83 c0 54	 add	 eax, 84			; 00000054H
  00064	50		 push	 eax
  00065	8b 4d f0	 mov	 ecx, DWORD PTR _this$[ebp]
  00068	83 c1 54	 add	 ecx, 84			; 00000054H
  0006b	ff 15 00 00 00
	00		 call	 DWORD PTR __imp_??0?$basic_string@DU?$char_traits@D@std@@V?$allocator@D@2@@std@@QAE@ABV01@@Z
  00071	c6 45 fc 03	 mov	 BYTE PTR __$EHRec$[ebp+8], 3
  00075	8b 4d 08	 mov	 ecx, DWORD PTR ___that$[ebp]
  00078	83 c1 70	 add	 ecx, 112		; 00000070H
  0007b	51		 push	 ecx
  0007c	8b 4d f0	 mov	 ecx, DWORD PTR _this$[ebp]
  0007f	83 c1 70	 add	 ecx, 112		; 00000070H
  00082	ff 15 00 00 00
	00		 call	 DWORD PTR __imp_??0?$basic_string@DU?$char_traits@D@std@@V?$allocator@D@2@@std@@QAE@ABV01@@Z
  00088	c7 45 fc ff ff
	ff ff		 mov	 DWORD PTR __$EHRec$[ebp+8], -1
  0008f	8b 45 f0	 mov	 eax, DWORD PTR _this$[ebp]
  00092	8b 4d f4	 mov	 ecx, DWORD PTR __$EHRec$[ebp]
  00095	64 89 0d 00 00
	00 00		 mov	 DWORD PTR fs:__except_list, ecx
  0009c	8b e5		 mov	 esp, ebp
  0009e	5d		 pop	 ebp
  0009f	c2 04 00	 ret	 4
_TEXT	ENDS
;	COMDAT text$x
text$x	SEGMENT
$L207614:
  00000	8b 4d f0	 mov	 ecx, DWORD PTR _this$[ebp]
  00003	ff 25 00 00 00
	00		 jmp	 DWORD PTR __imp_??1?$basic_string@DU?$char_traits@D@std@@V?$allocator@D@2@@std@@QAE@XZ
$L207615:
  00009	8b 4d f0	 mov	 ecx, DWORD PTR _this$[ebp]
  0000c	83 c1 1c	 add	 ecx, 28			; 0000001cH
  0000f	ff 25 00 00 00
	00		 jmp	 DWORD PTR __imp_??1?$basic_string@DU?$char_traits@D@std@@V?$allocator@D@2@@std@@QAE@XZ
$L207616:
  00015	8b 4d f0	 mov	 ecx, DWORD PTR _this$[ebp]
  00018	83 c1 38	 add	 ecx, 56			; 00000038H
  0001b	ff 25 00 00 00
	00		 jmp	 DWORD PTR __imp_??1?$basic_string@DU?$char_traits@D@std@@V?$allocator@D@2@@std@@QAE@XZ
$L207617:
  00021	8b 4d f0	 mov	 ecx, DWORD PTR _this$[ebp]
  00024	83 c1 54	 add	 ecx, 84			; 00000054H
  00027	ff 25 00 00 00
	00		 jmp	 DWORD PTR __imp_??1?$basic_string@DU?$char_traits@D@std@@V?$allocator@D@2@@std@@QAE@XZ
__ehhandler$??0SWF_GAME@@QAE@ABU0@@Z:
  0002d	b8 00 00 00 00	 mov	 eax, OFFSET FLAT:$T207620
  00032	e9 00 00 00 00	 jmp	 ___CxxFrameHandler
text$x	ENDS
??0SWF_GAME@@QAE@ABU0@@Z ENDP				; SWF_GAME::SWF_GAME
PUBLIC	?Init@GamePanelWnd@@QAEXXZ			; GamePanelWnd::Init
EXTRN	__imp_?clear@?$basic_string@DU?$char_traits@D@std@@V?$allocator@D@2@@std@@QAEXXZ:NEAR
EXTRN	__imp__DeleteFileA@4:NEAR
EXTRN	__imp_?length@?$basic_string@DU?$char_traits@D@std@@V?$allocator@D@2@@std@@QBEIXZ:NEAR
; Function compile flags: /Odt
_TEXT	SEGMENT
_this$ = -4						; size = 4
?Init@GamePanelWnd@@QAEXXZ PROC NEAR			; GamePanelWnd::Init
; _this$ = ecx

; 127  : {

  00c80	55		 push	 ebp
  00c81	8b ec		 mov	 ebp, esp
  00c83	51		 push	 ecx
  00c84	89 4d fc	 mov	 DWORD PTR _this$[ebp], ecx

; 128  : 	if( m_strCopyedHtmlPath.length() != 0 )

  00c87	8b 4d fc	 mov	 ecx, DWORD PTR _this$[ebp]
  00c8a	81 c1 48 01 00
	00		 add	 ecx, 328		; 00000148H
  00c90	ff 15 00 00 00
	00		 call	 DWORD PTR __imp_?length@?$basic_string@DU?$char_traits@D@std@@V?$allocator@D@2@@std@@QBEIXZ
  00c96	85 c0		 test	 eax, eax
  00c98	74 25		 je	 SHORT $L204549

; 129  : 	{
; 130  : 		::DeleteFile( m_strCopyedHtmlPath.c_str() );

  00c9a	8b 4d fc	 mov	 ecx, DWORD PTR _this$[ebp]
  00c9d	81 c1 48 01 00
	00		 add	 ecx, 328		; 00000148H
  00ca3	ff 15 00 00 00
	00		 call	 DWORD PTR __imp_?c_str@?$basic_string@DU?$char_traits@D@std@@V?$allocator@D@2@@std@@QBEPBDXZ
  00ca9	50		 push	 eax
  00caa	ff 15 00 00 00
	00		 call	 DWORD PTR __imp__DeleteFileA@4

; 131  : 		m_strCopyedHtmlPath.clear();

  00cb0	8b 4d fc	 mov	 ecx, DWORD PTR _this$[ebp]
  00cb3	81 c1 48 01 00
	00		 add	 ecx, 328		; 00000148H
  00cb9	ff 15 00 00 00
	00		 call	 DWORD PTR __imp_?clear@?$basic_string@DU?$char_traits@D@std@@V?$allocator@D@2@@std@@QAEXXZ
$L204549:

; 132  : 	}
; 133  : }

  00cbf	8b e5		 mov	 esp, ebp
  00cc1	5d		 pop	 ebp
  00cc2	c3		 ret	 0
?Init@GamePanelWnd@@QAEXXZ ENDP				; GamePanelWnd::Init
_TEXT	ENDS
PUBLIC	?Recycle@GamePanelWnd@@QAEXXZ			; GamePanelWnd::Recycle
; Function compile flags: /Odt
_TEXT	SEGMENT
_this$ = -4						; size = 4
?Recycle@GamePanelWnd@@QAEXXZ PROC NEAR			; GamePanelWnd::Recycle
; _this$ = ecx

; 136  : {

  00cd0	55		 push	 ebp
  00cd1	8b ec		 mov	 ebp, esp
  00cd3	51		 push	 ecx
  00cd4	89 4d fc	 mov	 DWORD PTR _this$[ebp], ecx

; 137  : 	Init();

  00cd7	8b 4d fc	 mov	 ecx, DWORD PTR _this$[ebp]
  00cda	e8 00 00 00 00	 call	 ?Init@GamePanelWnd@@QAEXXZ ; GamePanelWnd::Init

; 138  : }

  00cdf	8b e5		 mov	 esp, ebp
  00ce1	5d		 pop	 ebp
  00ce2	c3		 ret	 0
?Recycle@GamePanelWnd@@QAEXXZ ENDP			; GamePanelWnd::Recycle
_TEXT	ENDS
EXTRN	?OnDestroy@CWnd@@IAEXXZ:NEAR			; CWnd::OnDestroy
; Function compile flags: /Odt
_TEXT	SEGMENT
_this$ = -4						; size = 4
?OnDestroy@GamePanelWnd@@IAEXXZ PROC NEAR		; GamePanelWnd::OnDestroy
; _this$ = ecx

; 141  : {

  00cf0	55		 push	 ebp
  00cf1	8b ec		 mov	 ebp, esp
  00cf3	51		 push	 ecx
  00cf4	89 4d fc	 mov	 DWORD PTR _this$[ebp], ecx

; 142  : 	m_pGameFlash->DestroyWindow();

  00cf7	8b 45 fc	 mov	 eax, DWORD PTR _this$[ebp]
  00cfa	8b 48 60	 mov	 ecx, DWORD PTR [eax+96]
  00cfd	8b 55 fc	 mov	 edx, DWORD PTR _this$[ebp]
  00d00	8b 42 60	 mov	 eax, DWORD PTR [edx+96]
  00d03	8b 11		 mov	 edx, DWORD PTR [ecx]
  00d05	8b c8		 mov	 ecx, eax
  00d07	ff 52 68	 call	 DWORD PTR [edx+104]

; 143  : 	m_pWndDownPercent->DestroyWindow();

  00d0a	8b 45 fc	 mov	 eax, DWORD PTR _this$[ebp]
  00d0d	8b 48 64	 mov	 ecx, DWORD PTR [eax+100]
  00d10	8b 55 fc	 mov	 edx, DWORD PTR _this$[ebp]
  00d13	8b 42 64	 mov	 eax, DWORD PTR [edx+100]
  00d16	8b 11		 mov	 edx, DWORD PTR [ecx]
  00d18	8b c8		 mov	 ecx, eax
  00d1a	ff 52 68	 call	 DWORD PTR [edx+104]

; 144  : 	m_pGameCtrl->DestroyWindow();

  00d1d	8b 45 fc	 mov	 eax, DWORD PTR _this$[ebp]
  00d20	8b 48 70	 mov	 ecx, DWORD PTR [eax+112]
  00d23	8b 55 fc	 mov	 edx, DWORD PTR _this$[ebp]
  00d26	8b 42 70	 mov	 eax, DWORD PTR [edx+112]
  00d29	8b 11		 mov	 edx, DWORD PTR [ecx]
  00d2b	8b c8		 mov	 ecx, eax
  00d2d	ff 52 68	 call	 DWORD PTR [edx+104]

; 145  : 	//swfhtm
; 146  : 	if( m_strCopyedHtmlPath.length() != 0 )

  00d30	8b 4d fc	 mov	 ecx, DWORD PTR _this$[ebp]
  00d33	81 c1 48 01 00
	00		 add	 ecx, 328		; 00000148H
  00d39	ff 15 00 00 00
	00		 call	 DWORD PTR __imp_?length@?$basic_string@DU?$char_traits@D@std@@V?$allocator@D@2@@std@@QBEIXZ
  00d3f	85 c0		 test	 eax, eax
  00d41	74 16		 je	 SHORT $L204557

; 147  : 	{
; 148  : 		::DeleteFile( m_strCopyedHtmlPath.c_str() );

  00d43	8b 4d fc	 mov	 ecx, DWORD PTR _this$[ebp]
  00d46	81 c1 48 01 00
	00		 add	 ecx, 328		; 00000148H
  00d4c	ff 15 00 00 00
	00		 call	 DWORD PTR __imp_?c_str@?$basic_string@DU?$char_traits@D@std@@V?$allocator@D@2@@std@@QBEPBDXZ
  00d52	50		 push	 eax
  00d53	ff 15 00 00 00
	00		 call	 DWORD PTR __imp__DeleteFileA@4
$L204557:

; 149  : 	}
; 150  : 	__super::OnDestroy();

  00d59	8b 4d fc	 mov	 ecx, DWORD PTR _this$[ebp]
  00d5c	e8 00 00 00 00	 call	 ?OnDestroy@CWnd@@IAEXXZ	; CWnd::OnDestroy

; 151  : }

  00d61	8b e5		 mov	 esp, ebp
  00d63	5d		 pop	 ebp
  00d64	c3		 ret	 0
?OnDestroy@GamePanelWnd@@IAEXXZ ENDP			; GamePanelWnd::OnDestroy
; Function compile flags: /Odt
; File d:\program files (x86)\microsoft visual studio .net 2003\vc7\atlmfc\include\atltypes.inl
_TEXT	ENDS
;	COMDAT ??0CRect@@QAE@XZ
_TEXT	SEGMENT
_this$ = -4						; size = 4
??0CRect@@QAE@XZ PROC NEAR				; CRect::CRect, COMDAT
; _this$ = ecx

; 110  : 	{ /* random filled */ }

  00000	55		 push	 ebp
  00001	8b ec		 mov	 ebp, esp
  00003	51		 push	 ecx
  00004	89 4d fc	 mov	 DWORD PTR _this$[ebp], ecx
  00007	8b 45 fc	 mov	 eax, DWORD PTR _this$[ebp]
  0000a	8b e5		 mov	 esp, ebp
  0000c	5d		 pop	 ebp
  0000d	c3		 ret	 0
??0CRect@@QAE@XZ ENDP					; CRect::CRect
; Function compile flags: /Odt
_TEXT	ENDS
;	COMDAT ??0CRect@@QAE@HHHH@Z
_TEXT	SEGMENT
_this$ = -4						; size = 4
_l$ = 8							; size = 4
_t$ = 12						; size = 4
_r$ = 16						; size = 4
_b$ = 20						; size = 4
??0CRect@@QAE@HHHH@Z PROC NEAR				; CRect::CRect, COMDAT
; _this$ = ecx

; 112  : 	{ left = l; top = t; right = r; bottom = b; }

  00000	55		 push	 ebp
  00001	8b ec		 mov	 ebp, esp
  00003	51		 push	 ecx
  00004	89 4d fc	 mov	 DWORD PTR _this$[ebp], ecx
  00007	8b 45 fc	 mov	 eax, DWORD PTR _this$[ebp]
  0000a	8b 4d 08	 mov	 ecx, DWORD PTR _l$[ebp]
  0000d	89 08		 mov	 DWORD PTR [eax], ecx
  0000f	8b 55 fc	 mov	 edx, DWORD PTR _this$[ebp]
  00012	8b 45 0c	 mov	 eax, DWORD PTR _t$[ebp]
  00015	89 42 04	 mov	 DWORD PTR [edx+4], eax
  00018	8b 4d fc	 mov	 ecx, DWORD PTR _this$[ebp]
  0001b	8b 55 10	 mov	 edx, DWORD PTR _r$[ebp]
  0001e	89 51 08	 mov	 DWORD PTR [ecx+8], edx
  00021	8b 45 fc	 mov	 eax, DWORD PTR _this$[ebp]
  00024	8b 4d 14	 mov	 ecx, DWORD PTR _b$[ebp]
  00027	89 48 0c	 mov	 DWORD PTR [eax+12], ecx
  0002a	8b 45 fc	 mov	 eax, DWORD PTR _this$[ebp]
  0002d	8b e5		 mov	 esp, ebp
  0002f	5d		 pop	 ebp
  00030	c2 10 00	 ret	 16			; 00000010H
??0CRect@@QAE@HHHH@Z ENDP				; CRect::CRect
_TEXT	ENDS
PUBLIC	?GetWindowRect@CWnd@@QBEXPAUtagRECT@@@Z		; CWnd::GetWindowRect
PUBLIC	?SetMainWindow@GamePanelWnd@@QAEX_N@Z		; GamePanelWnd::SetMainWindow
PUBLIC	?Width@CRect@@QBEHXZ				; CRect::Width
PUBLIC	?Height@CRect@@QBEHXZ				; CRect::Height
PUBLIC	?GetDesktopWindow@CWnd@@SGPAV1@XZ		; CWnd::GetDesktopWindow
PUBLIC	?GetParent@CWnd@@QBEPAV1@XZ			; CWnd::GetParent
PUBLIC	?SetParent@CWnd@@QAEPAV1@PAV1@@Z		; CWnd::SetParent
EXTRN	?ScreenToClient@CWnd@@QBEXPAUtagRECT@@@Z:NEAR	; CWnd::ScreenToClient
EXTRN	?SetFocus@CWnd@@QAEPAV1@XZ:NEAR			; CWnd::SetFocus
EXTRN	?GetConfigBoolValue@AfxUserConfig@@QAEXABV?$basic_string@DU?$char_traits@D@std@@V?$allocator@D@2@@std@@0AA_N@Z:NEAR ; AfxUserConfig::GetConfigBoolValue
EXTRN	__imp_?YL_Log@@YAXABV?$basic_string@DU?$char_traits@D@std@@V?$allocator@D@2@@std@@H0PBDZZ:NEAR
EXTRN	__imp__GetWindowLongA@8:NEAR
EXTRN	__imp__SetWindowLongA@12:NEAR
EXTRN	?AfxGetUserConfig@@YAPAVAfxUserConfig@@XZ:NEAR	; AfxGetUserConfig
EXTRN	__imp_?wndTopMost@CWnd@@2V1@B:BYTE
EXTRN	?SetWindowPos@CWnd@@QAEHPBV1@HHHHI@Z:NEAR	; CWnd::SetWindowPos
xdata$x	SEGMENT
$T207649 DD	0ffffffffH
	DD	FLAT:$L207640
	DD	00H
	DD	FLAT:$L207641
	DD	0ffffffffH
	DD	FLAT:$L207642
	DD	02H
	DD	FLAT:$L207643
	DD	0ffffffffH
	DD	FLAT:$L207644
	DD	04H
	DD	FLAT:$L207645
$T207647 DD	019930520H
	DD	06H
	DD	FLAT:$T207649
	DD	2 DUP(00H)
	DD	2 DUP(00H)
; Function compile flags: /Odt
; File d:\boxgit\playbox\playbox\dev\prj\playbox\src\module\gamepanel\gamepanelwnd.cpp
xdata$x	ENDS
_TEXT	SEGMENT
_this$ = -196						; size = 4
$T207639 = -192						; size = 28
$T207638 = -164						; size = 28
$T207637 = -136						; size = 28
$T207636 = -108						; size = 28
$T207635 = -80						; size = 28
$T207634 = -52						; size = 28
_lExStyle$ = -24					; size = 4
_style$ = -20						; size = 4
_curState$ = -13					; size = 1
__$EHRec$ = -12						; size = 12
_pWnd$ = 8						; size = 4
?IPanelChangeOb_ToFullScreen@GamePanelWnd@@UAEXPAVCWnd@@@Z PROC NEAR ; GamePanelWnd::IPanelChangeOb_ToFullScreen
; _this$ = ecx

; 154  : {

  00d70	55		 push	 ebp
  00d71	8b ec		 mov	 ebp, esp
  00d73	6a ff		 push	 -1
  00d75	68 00 00 00 00	 push	 __ehhandler$?IPanelChangeOb_ToFullScreen@GamePanelWnd@@UAEXPAVCWnd@@@Z
  00d7a	64 a1 00 00 00
	00		 mov	 eax, DWORD PTR fs:__except_list
  00d80	50		 push	 eax
  00d81	64 89 25 00 00
	00 00		 mov	 DWORD PTR fs:__except_list, esp
  00d88	81 ec b8 00 00
	00		 sub	 esp, 184		; 000000b8H
  00d8e	89 8d 3c ff ff
	ff		 mov	 DWORD PTR _this$[ebp], ecx

; 155  : 	YL_Log("GamePanelWnd.txt", LOG_DEBUG, "GamePanelWnd::IPanelChangeOb_ToFullScreen", "===IN");

  00d94	68 00 00 00 00	 push	 OFFSET FLAT:$SG204565
  00d99	8d 4d cc	 lea	 ecx, DWORD PTR $T207634[ebp]
  00d9c	ff 15 00 00 00
	00		 call	 DWORD PTR __imp_??0?$basic_string@DU?$char_traits@D@std@@V?$allocator@D@2@@std@@QAE@PBD@Z
  00da2	c7 45 fc 00 00
	00 00		 mov	 DWORD PTR __$EHRec$[ebp+8], 0
  00da9	68 00 00 00 00	 push	 OFFSET FLAT:$SG204566
  00dae	8d 4d b0	 lea	 ecx, DWORD PTR $T207635[ebp]
  00db1	ff 15 00 00 00
	00		 call	 DWORD PTR __imp_??0?$basic_string@DU?$char_traits@D@std@@V?$allocator@D@2@@std@@QAE@PBD@Z
  00db7	c6 45 fc 01	 mov	 BYTE PTR __$EHRec$[ebp+8], 1
  00dbb	68 00 00 00 00	 push	 OFFSET FLAT:$SG204564
  00dc0	8d 45 cc	 lea	 eax, DWORD PTR $T207634[ebp]
  00dc3	50		 push	 eax
  00dc4	6a 00		 push	 0
  00dc6	8d 4d b0	 lea	 ecx, DWORD PTR $T207635[ebp]
  00dc9	51		 push	 ecx
  00dca	ff 15 00 00 00
	00		 call	 DWORD PTR __imp_?YL_Log@@YAXABV?$basic_string@DU?$char_traits@D@std@@V?$allocator@D@2@@std@@H0PBDZZ
  00dd0	83 c4 10	 add	 esp, 16			; 00000010H
  00dd3	c6 45 fc 00	 mov	 BYTE PTR __$EHRec$[ebp+8], 0
  00dd7	8d 4d b0	 lea	 ecx, DWORD PTR $T207635[ebp]
  00dda	ff 15 00 00 00
	00		 call	 DWORD PTR __imp_??1?$basic_string@DU?$char_traits@D@std@@V?$allocator@D@2@@std@@QAE@XZ
  00de0	c7 45 fc ff ff
	ff ff		 mov	 DWORD PTR __$EHRec$[ebp+8], -1
  00de7	8d 4d cc	 lea	 ecx, DWORD PTR $T207634[ebp]
  00dea	ff 15 00 00 00
	00		 call	 DWORD PTR __imp_??1?$basic_string@DU?$char_traits@D@std@@V?$allocator@D@2@@std@@QAE@XZ

; 156  : 	if( pWnd != this )

  00df0	8b 95 3c ff ff
	ff		 mov	 edx, DWORD PTR _this$[ebp]
  00df6	83 ea 5c	 sub	 edx, 92			; 0000005cH
  00df9	39 55 08	 cmp	 DWORD PTR _pWnd$[ebp], edx
  00dfc	74 05		 je	 SHORT $L204567

; 157  : 		return;

  00dfe	e9 70 02 00 00	 jmp	 $L204561
$L204567:

; 158  : 
; 159  : 	m_isMainWindowTopMost = false;

  00e03	8b 85 3c ff ff
	ff		 mov	 eax, DWORD PTR _this$[ebp]
  00e09	c6 80 a8 00 00
	00 00		 mov	 BYTE PTR [eax+168], 0

; 160  : 	bool curState;
; 161  : 	AfxGetUserConfig()->GetConfigBoolValue( CONF_APP_MODULE_NAME,CONF_APP_MAINWND_HOLD,curState);

  00e10	8b 0d 00 00 00
	00		 mov	 ecx, DWORD PTR _CONF_APP_MAINWND_HOLD
  00e16	51		 push	 ecx
  00e17	8d 4d 94	 lea	 ecx, DWORD PTR $T207636[ebp]
  00e1a	ff 15 00 00 00
	00		 call	 DWORD PTR __imp_??0?$basic_string@DU?$char_traits@D@std@@V?$allocator@D@2@@std@@QAE@PBD@Z
  00e20	c7 45 fc 02 00
	00 00		 mov	 DWORD PTR __$EHRec$[ebp+8], 2
  00e27	8b 15 00 00 00
	00		 mov	 edx, DWORD PTR _CONF_APP_MODULE_NAME
  00e2d	52		 push	 edx
  00e2e	8d 8d 78 ff ff
	ff		 lea	 ecx, DWORD PTR $T207637[ebp]
  00e34	ff 15 00 00 00
	00		 call	 DWORD PTR __imp_??0?$basic_string@DU?$char_traits@D@std@@V?$allocator@D@2@@std@@QAE@PBD@Z
  00e3a	c6 45 fc 03	 mov	 BYTE PTR __$EHRec$[ebp+8], 3
  00e3e	8d 45 f3	 lea	 eax, DWORD PTR _curState$[ebp]
  00e41	50		 push	 eax
  00e42	8d 4d 94	 lea	 ecx, DWORD PTR $T207636[ebp]
  00e45	51		 push	 ecx
  00e46	8d 95 78 ff ff
	ff		 lea	 edx, DWORD PTR $T207637[ebp]
  00e4c	52		 push	 edx
  00e4d	e8 00 00 00 00	 call	 ?AfxGetUserConfig@@YAPAVAfxUserConfig@@XZ ; AfxGetUserConfig
  00e52	8b c8		 mov	 ecx, eax
  00e54	e8 00 00 00 00	 call	 ?GetConfigBoolValue@AfxUserConfig@@QAEXABV?$basic_string@DU?$char_traits@D@std@@V?$allocator@D@2@@std@@0AA_N@Z ; AfxUserConfig::GetConfigBoolValue
  00e59	c6 45 fc 02	 mov	 BYTE PTR __$EHRec$[ebp+8], 2
  00e5d	8d 8d 78 ff ff
	ff		 lea	 ecx, DWORD PTR $T207637[ebp]
  00e63	ff 15 00 00 00
	00		 call	 DWORD PTR __imp_??1?$basic_string@DU?$char_traits@D@std@@V?$allocator@D@2@@std@@QAE@XZ
  00e69	c7 45 fc ff ff
	ff ff		 mov	 DWORD PTR __$EHRec$[ebp+8], -1
  00e70	8d 4d 94	 lea	 ecx, DWORD PTR $T207636[ebp]
  00e73	ff 15 00 00 00
	00		 call	 DWORD PTR __imp_??1?$basic_string@DU?$char_traits@D@std@@V?$allocator@D@2@@std@@QAE@XZ

; 162  : 	if(curState)

  00e79	0f b6 45 f3	 movzx	 eax, BYTE PTR _curState$[ebp]
  00e7d	85 c0		 test	 eax, eax
  00e7f	74 1d		 je	 SHORT $L204571

; 163  : 	{
; 164  : 		SetMainWindow(false);

  00e81	6a 00		 push	 0
  00e83	8b 8d 3c ff ff
	ff		 mov	 ecx, DWORD PTR _this$[ebp]
  00e89	83 e9 5c	 sub	 ecx, 92			; 0000005cH
  00e8c	e8 00 00 00 00	 call	 ?SetMainWindow@GamePanelWnd@@QAEX_N@Z ; GamePanelWnd::SetMainWindow

; 165  : 		m_isMainWindowTopMost=true;

  00e91	8b 8d 3c ff ff
	ff		 mov	 ecx, DWORD PTR _this$[ebp]
  00e97	c6 81 a8 00 00
	00 01		 mov	 BYTE PTR [ecx+168], 1
$L204571:

; 166  : 	}
; 167  : 
; 168  : 	m_pWndParent = GetParent();

  00e9e	8b 8d 3c ff ff
	ff		 mov	 ecx, DWORD PTR _this$[ebp]
  00ea4	83 e9 5c	 sub	 ecx, 92			; 0000005cH
  00ea7	e8 00 00 00 00	 call	 ?GetParent@CWnd@@QBEPAV1@XZ ; CWnd::GetParent
  00eac	8b 95 3c ff ff
	ff		 mov	 edx, DWORD PTR _this$[ebp]
  00eb2	89 82 cc 00 00
	00		 mov	 DWORD PTR [edx+204], eax

; 169  : 	GetWindowRect(&m_rectBeforeFull);

  00eb8	8b 85 3c ff ff
	ff		 mov	 eax, DWORD PTR _this$[ebp]
  00ebe	05 ac 00 00 00	 add	 eax, 172		; 000000acH
  00ec3	50		 push	 eax
  00ec4	8b 8d 3c ff ff
	ff		 mov	 ecx, DWORD PTR _this$[ebp]
  00eca	83 e9 5c	 sub	 ecx, 92			; 0000005cH
  00ecd	e8 00 00 00 00	 call	 ?GetWindowRect@CWnd@@QBEXPAUtagRECT@@@Z ; CWnd::GetWindowRect

; 170  : 	m_pWndParent->ScreenToClient(&m_rectBeforeFull);

  00ed2	8b 8d 3c ff ff
	ff		 mov	 ecx, DWORD PTR _this$[ebp]
  00ed8	81 c1 ac 00 00
	00		 add	 ecx, 172		; 000000acH
  00ede	51		 push	 ecx
  00edf	8b 95 3c ff ff
	ff		 mov	 edx, DWORD PTR _this$[ebp]
  00ee5	8b 8a cc 00 00
	00		 mov	 ecx, DWORD PTR [edx+204]
  00eeb	e8 00 00 00 00	 call	 ?ScreenToClient@CWnd@@QBEXPAUtagRECT@@@Z ; CWnd::ScreenToClient

; 171  : 
; 172  : 	//,GamePanelWnd
; 173  : 	long style = ::GetWindowLong(m_hWnd,GWL_STYLE);

  00ef0	6a f0		 push	 -16			; fffffff0H
  00ef2	8b 85 3c ff ff
	ff		 mov	 eax, DWORD PTR _this$[ebp]
  00ef8	8b 48 c4	 mov	 ecx, DWORD PTR [eax-60]
  00efb	51		 push	 ecx
  00efc	ff 15 00 00 00
	00		 call	 DWORD PTR __imp__GetWindowLongA@8
  00f02	89 45 ec	 mov	 DWORD PTR _style$[ebp], eax

; 174  : 	style &= ~WS_CHILD;

  00f05	8b 55 ec	 mov	 edx, DWORD PTR _style$[ebp]
  00f08	81 e2 ff ff ff
	bf		 and	 edx, -1073741825	; bfffffffH
  00f0e	89 55 ec	 mov	 DWORD PTR _style$[ebp], edx

; 175  : 	::SetWindowLong(m_hWnd, GWL_STYLE, style);

  00f11	8b 45 ec	 mov	 eax, DWORD PTR _style$[ebp]
  00f14	50		 push	 eax
  00f15	6a f0		 push	 -16			; fffffff0H
  00f17	8b 8d 3c ff ff
	ff		 mov	 ecx, DWORD PTR _this$[ebp]
  00f1d	8b 51 c4	 mov	 edx, DWORD PTR [ecx-60]
  00f20	52		 push	 edx
  00f21	ff 15 00 00 00
	00		 call	 DWORD PTR __imp__SetWindowLongA@12

; 176  : 
; 177  : 	long lExStyle = ::GetWindowLong(m_hWnd, GWL_EXSTYLE);

  00f27	6a ec		 push	 -20			; ffffffecH
  00f29	8b 85 3c ff ff
	ff		 mov	 eax, DWORD PTR _this$[ebp]
  00f2f	8b 48 c4	 mov	 ecx, DWORD PTR [eax-60]
  00f32	51		 push	 ecx
  00f33	ff 15 00 00 00
	00		 call	 DWORD PTR __imp__GetWindowLongA@8
  00f39	89 45 e8	 mov	 DWORD PTR _lExStyle$[ebp], eax

; 178  : 	lExStyle &= ~WS_EX_APPWINDOW; 

  00f3c	8b 55 e8	 mov	 edx, DWORD PTR _lExStyle$[ebp]
  00f3f	81 e2 ff ff fb
	ff		 and	 edx, -262145		; fffbffffH
  00f45	89 55 e8	 mov	 DWORD PTR _lExStyle$[ebp], edx

; 179  : 	lExStyle |= WS_EX_TOOLWINDOW; 

  00f48	8b 45 e8	 mov	 eax, DWORD PTR _lExStyle$[ebp]
  00f4b	0d 80 00 00 00	 or	 eax, 128		; 00000080H
  00f50	89 45 e8	 mov	 DWORD PTR _lExStyle$[ebp], eax

; 180  : 	::SetWindowLong(m_hWnd, GWL_EXSTYLE, lExStyle);

  00f53	8b 4d e8	 mov	 ecx, DWORD PTR _lExStyle$[ebp]
  00f56	51		 push	 ecx
  00f57	6a ec		 push	 -20			; ffffffecH
  00f59	8b 95 3c ff ff
	ff		 mov	 edx, DWORD PTR _this$[ebp]
  00f5f	8b 42 c4	 mov	 eax, DWORD PTR [edx-60]
  00f62	50		 push	 eax
  00f63	ff 15 00 00 00
	00		 call	 DWORD PTR __imp__SetWindowLongA@12

; 181  : 
; 182  : 	SetParent(GetDesktopWindow());

  00f69	e8 00 00 00 00	 call	 ?GetDesktopWindow@CWnd@@SGPAV1@XZ ; CWnd::GetDesktopWindow
  00f6e	50		 push	 eax
  00f6f	8b 8d 3c ff ff
	ff		 mov	 ecx, DWORD PTR _this$[ebp]
  00f75	83 e9 5c	 sub	 ecx, 92			; 0000005cH
  00f78	e8 00 00 00 00	 call	 ?SetParent@CWnd@@QAEPAV1@PAV1@@Z ; CWnd::SetParent

; 183  : 	GetDesktopWindow()->GetWindowRect(&m_rectFullScreen);

  00f7d	8b 8d 3c ff ff
	ff		 mov	 ecx, DWORD PTR _this$[ebp]
  00f83	81 c1 bc 00 00
	00		 add	 ecx, 188		; 000000bcH
  00f89	51		 push	 ecx
  00f8a	e8 00 00 00 00	 call	 ?GetDesktopWindow@CWnd@@SGPAV1@XZ ; CWnd::GetDesktopWindow
  00f8f	8b c8		 mov	 ecx, eax
  00f91	e8 00 00 00 00	 call	 ?GetWindowRect@CWnd@@QBEXPAUtagRECT@@@Z ; CWnd::GetWindowRect

; 184  : 
; 185  : 	SetWindowPos(&wndTopMost,m_rectFullScreen.left,m_rectFullScreen.top,
; 186  : 		m_rectFullScreen.Width(),m_rectFullScreen.Height(),SWP_SHOWWINDOW);

  00f96	6a 40		 push	 64			; 00000040H
  00f98	8b 8d 3c ff ff
	ff		 mov	 ecx, DWORD PTR _this$[ebp]
  00f9e	81 c1 bc 00 00
	00		 add	 ecx, 188		; 000000bcH
  00fa4	e8 00 00 00 00	 call	 ?Height@CRect@@QBEHXZ	; CRect::Height
  00fa9	50		 push	 eax
  00faa	8b 8d 3c ff ff
	ff		 mov	 ecx, DWORD PTR _this$[ebp]
  00fb0	81 c1 bc 00 00
	00		 add	 ecx, 188		; 000000bcH
  00fb6	e8 00 00 00 00	 call	 ?Width@CRect@@QBEHXZ	; CRect::Width
  00fbb	50		 push	 eax
  00fbc	8b 95 3c ff ff
	ff		 mov	 edx, DWORD PTR _this$[ebp]
  00fc2	8b 82 c0 00 00
	00		 mov	 eax, DWORD PTR [edx+192]
  00fc8	50		 push	 eax
  00fc9	8b 8d 3c ff ff
	ff		 mov	 ecx, DWORD PTR _this$[ebp]
  00fcf	8b 91 bc 00 00
	00		 mov	 edx, DWORD PTR [ecx+188]
  00fd5	52		 push	 edx
  00fd6	a1 00 00 00 00	 mov	 eax, DWORD PTR __imp_?wndTopMost@CWnd@@2V1@B
  00fdb	50		 push	 eax
  00fdc	8b 8d 3c ff ff
	ff		 mov	 ecx, DWORD PTR _this$[ebp]
  00fe2	83 e9 5c	 sub	 ecx, 92			; 0000005cH
  00fe5	e8 00 00 00 00	 call	 ?SetWindowPos@CWnd@@QAEHPBV1@HHHHI@Z ; CWnd::SetWindowPos

; 187  : 	m_bFullScreen = true;

  00fea	8b 8d 3c ff ff
	ff		 mov	 ecx, DWORD PTR _this$[ebp]
  00ff0	c6 81 a9 00 00
	00 01		 mov	 BYTE PTR [ecx+169], 1

; 188  : 
; 189  : 	//
; 190  : 	m_pGameFlash->SetFocus();

  00ff7	8b 95 3c ff ff
	ff		 mov	 edx, DWORD PTR _this$[ebp]
  00ffd	8b 4a 04	 mov	 ecx, DWORD PTR [edx+4]
  01000	e8 00 00 00 00	 call	 ?SetFocus@CWnd@@QAEPAV1@XZ ; CWnd::SetFocus

; 191  : 
; 192  : 	YL_Log("GamePanelWnd.txt", LOG_DEBUG, "GamePanelWnd::IPanelChangeOb_ToFullScreen", "===OUT");

  01005	68 00 00 00 00	 push	 OFFSET FLAT:$SG204577
  0100a	8d 8d 5c ff ff
	ff		 lea	 ecx, DWORD PTR $T207638[ebp]
  01010	ff 15 00 00 00
	00		 call	 DWORD PTR __imp_??0?$basic_string@DU?$char_traits@D@std@@V?$allocator@D@2@@std@@QAE@PBD@Z
  01016	c7 45 fc 04 00
	00 00		 mov	 DWORD PTR __$EHRec$[ebp+8], 4
  0101d	68 00 00 00 00	 push	 OFFSET FLAT:$SG204578
  01022	8d 8d 40 ff ff
	ff		 lea	 ecx, DWORD PTR $T207639[ebp]
  01028	ff 15 00 00 00
	00		 call	 DWORD PTR __imp_??0?$basic_string@DU?$char_traits@D@std@@V?$allocator@D@2@@std@@QAE@PBD@Z
  0102e	c6 45 fc 05	 mov	 BYTE PTR __$EHRec$[ebp+8], 5
  01032	68 00 00 00 00	 push	 OFFSET FLAT:$SG204576
  01037	8d 85 5c ff ff
	ff		 lea	 eax, DWORD PTR $T207638[ebp]
  0103d	50		 push	 eax
  0103e	6a 00		 push	 0
  01040	8d 8d 40 ff ff
	ff		 lea	 ecx, DWORD PTR $T207639[ebp]
  01046	51		 push	 ecx
  01047	ff 15 00 00 00
	00		 call	 DWORD PTR __imp_?YL_Log@@YAXABV?$basic_string@DU?$char_traits@D@std@@V?$allocator@D@2@@std@@H0PBDZZ
  0104d	83 c4 10	 add	 esp, 16			; 00000010H
  01050	c6 45 fc 04	 mov	 BYTE PTR __$EHRec$[ebp+8], 4
  01054	8d 8d 40 ff ff
	ff		 lea	 ecx, DWORD PTR $T207639[ebp]
  0105a	ff 15 00 00 00
	00		 call	 DWORD PTR __imp_??1?$basic_string@DU?$char_traits@D@std@@V?$allocator@D@2@@std@@QAE@XZ
  01060	c7 45 fc ff ff
	ff ff		 mov	 DWORD PTR __$EHRec$[ebp+8], -1
  01067	8d 8d 5c ff ff
	ff		 lea	 ecx, DWORD PTR $T207638[ebp]
  0106d	ff 15 00 00 00
	00		 call	 DWORD PTR __imp_??1?$basic_string@DU?$char_traits@D@std@@V?$allocator@D@2@@std@@QAE@XZ
$L204561:

; 193  : }

  01073	8b 4d f4	 mov	 ecx, DWORD PTR __$EHRec$[ebp]
  01076	64 89 0d 00 00
	00 00		 mov	 DWORD PTR fs:__except_list, ecx
  0107d	8b e5		 mov	 esp, ebp
  0107f	5d		 pop	 ebp
  01080	c2 04 00	 ret	 4
_TEXT	ENDS
text$x	SEGMENT
$L207640:
  001de	8d 4d cc	 lea	 ecx, DWORD PTR $T207634[ebp]
  001e1	ff 25 00 00 00
	00		 jmp	 DWORD PTR __imp_??1?$basic_string@DU?$char_traits@D@std@@V?$allocator@D@2@@std@@QAE@XZ
$L207641:
  001e7	8d 4d b0	 lea	 ecx, DWORD PTR $T207635[ebp]
  001ea	ff 25 00 00 00
	00		 jmp	 DWORD PTR __imp_??1?$basic_string@DU?$char_traits@D@std@@V?$allocator@D@2@@std@@QAE@XZ
$L207642:
  001f0	8d 4d 94	 lea	 ecx, DWORD PTR $T207636[ebp]
  001f3	ff 25 00 00 00
	00		 jmp	 DWORD PTR __imp_??1?$basic_string@DU?$char_traits@D@std@@V?$allocator@D@2@@std@@QAE@XZ
$L207643:
  001f9	8d 8d 78 ff ff
	ff		 lea	 ecx, DWORD PTR $T207637[ebp]
  001ff	ff 25 00 00 00
	00		 jmp	 DWORD PTR __imp_??1?$basic_string@DU?$char_traits@D@std@@V?$allocator@D@2@@std@@QAE@XZ
$L207644:
  00205	8d 8d 5c ff ff
	ff		 lea	 ecx, DWORD PTR $T207638[ebp]
  0020b	ff 25 00 00 00
	00		 jmp	 DWORD PTR __imp_??1?$basic_string@DU?$char_traits@D@std@@V?$allocator@D@2@@std@@QAE@XZ
$L207645:
  00211	8d 8d 40 ff ff
	ff		 lea	 ecx, DWORD PTR $T207639[ebp]
  00217	ff 25 00 00 00
	00		 jmp	 DWORD PTR __imp_??1?$basic_string@DU?$char_traits@D@std@@V?$allocator@D@2@@std@@QAE@XZ
__ehhandler$?IPanelChangeOb_ToFullScreen@GamePanelWnd@@UAEXPAVCWnd@@@Z:
  0021d	b8 00 00 00 00	 mov	 eax, OFFSET FLAT:$T207647
  00222	e9 00 00 00 00	 jmp	 ___CxxFrameHandler
text$x	ENDS
?IPanelChangeOb_ToFullScreen@GamePanelWnd@@UAEXPAVCWnd@@@Z ENDP ; GamePanelWnd::IPanelChangeOb_ToFullScreen
; Function compile flags: /Odt
; File d:\program files (x86)\microsoft visual studio .net 2003\vc7\atlmfc\include\atltypes.inl
;	COMDAT ?Width@CRect@@QBEHXZ
_TEXT	SEGMENT
_this$ = -4						; size = 4
?Width@CRect@@QBEHXZ PROC NEAR				; CRect::Width, COMDAT
; _this$ = ecx

; 123  : 	{ return right - left; }

  00000	55		 push	 ebp
  00001	8b ec		 mov	 ebp, esp
  00003	51		 push	 ecx
  00004	89 4d fc	 mov	 DWORD PTR _this$[ebp], ecx
  00007	8b 45 fc	 mov	 eax, DWORD PTR _this$[ebp]
  0000a	8b 4d fc	 mov	 ecx, DWORD PTR _this$[ebp]
  0000d	8b 40 08	 mov	 eax, DWORD PTR [eax+8]
  00010	2b 01		 sub	 eax, DWORD PTR [ecx]
  00012	8b e5		 mov	 esp, ebp
  00014	5d		 pop	 ebp
  00015	c3		 ret	 0
?Width@CRect@@QBEHXZ ENDP				; CRect::Width
; Function compile flags: /Odt
_TEXT	ENDS
;	COMDAT ?Height@CRect@@QBEHXZ
_TEXT	SEGMENT
_this$ = -4						; size = 4
?Height@CRect@@QBEHXZ PROC NEAR				; CRect::Height, COMDAT
; _this$ = ecx

; 125  : 	{ return bottom - top; }

  00000	55		 push	 ebp
  00001	8b ec		 mov	 ebp, esp
  00003	51		 push	 ecx
  00004	89 4d fc	 mov	 DWORD PTR _this$[ebp], ecx
  00007	8b 45 fc	 mov	 eax, DWORD PTR _this$[ebp]
  0000a	8b 4d fc	 mov	 ecx, DWORD PTR _this$[ebp]
  0000d	8b 40 0c	 mov	 eax, DWORD PTR [eax+12]
  00010	2b 41 04	 sub	 eax, DWORD PTR [ecx+4]
  00013	8b e5		 mov	 esp, ebp
  00015	5d		 pop	 ebp
  00016	c3		 ret	 0
?Height@CRect@@QBEHXZ ENDP				; CRect::Height
_TEXT	ENDS
EXTRN	?SetConfigBoolValue@AfxUserConfig@@QAEXABV?$basic_string@DU?$char_traits@D@std@@V?$allocator@D@2@@std@@0_N1@Z:NEAR ; AfxUserConfig::SetConfigBoolValue
EXTRN	?AfxGetMainWindow@@YAPAVCWnd@@XZ:NEAR		; AfxGetMainWindow
EXTRN	__imp_?wndNoTopMost@CWnd@@2V1@B:BYTE
xdata$x	SEGMENT
$T207674 DD	0ffffffffH
	DD	FLAT:$L207663
	DD	00H
	DD	FLAT:$L207664
	DD	0ffffffffH
	DD	FLAT:$L207665
	DD	02H
	DD	FLAT:$L207666
	DD	0ffffffffH
	DD	FLAT:$L207667
	DD	04H
	DD	FLAT:$L207668
	DD	0ffffffffH
	DD	FLAT:$L207669
	DD	06H
	DD	FLAT:$L207670
$T207672 DD	019930520H
	DD	08H
	DD	FLAT:$T207674
	DD	2 DUP(00H)
	DD	2 DUP(00H)
; Function compile flags: /Odt
; File d:\boxgit\playbox\playbox\dev\prj\playbox\src\module\gamepanel\gamepanelwnd.cpp
xdata$x	ENDS
_TEXT	SEGMENT
_this$ = -240						; size = 4
$T207662 = -236						; size = 28
$T207661 = -208						; size = 28
$T207660 = -180						; size = 28
$T207659 = -152						; size = 28
$T207658 = -124						; size = 28
$T207657 = -96						; size = 28
$T207656 = -68						; size = 28
$T207655 = -40						; size = 28
__$EHRec$ = -12						; size = 12
_isTopMost$ = 8						; size = 1
?SetMainWindow@GamePanelWnd@@QAEX_N@Z PROC NEAR		; GamePanelWnd::SetMainWindow
; _this$ = ecx

; 196  : {

  01090	55		 push	 ebp
  01091	8b ec		 mov	 ebp, esp
  01093	6a ff		 push	 -1
  01095	68 00 00 00 00	 push	 __ehhandler$?SetMainWindow@GamePanelWnd@@QAEX_N@Z
  0109a	64 a1 00 00 00
	00		 mov	 eax, DWORD PTR fs:__except_list
  010a0	50		 push	 eax
  010a1	64 89 25 00 00
	00 00		 mov	 DWORD PTR fs:__except_list, esp
  010a8	81 ec e4 00 00
	00		 sub	 esp, 228		; 000000e4H
  010ae	89 8d 10 ff ff
	ff		 mov	 DWORD PTR _this$[ebp], ecx

; 197  : 	YL_Log("GamePanelWnd.txt", LOG_DEBUG, "GamePanelWnd::SetMainWindow", "===IN");

  010b4	68 00 00 00 00	 push	 OFFSET FLAT:$SG204586
  010b9	8d 4d d8	 lea	 ecx, DWORD PTR $T207655[ebp]
  010bc	ff 15 00 00 00
	00		 call	 DWORD PTR __imp_??0?$basic_string@DU?$char_traits@D@std@@V?$allocator@D@2@@std@@QAE@PBD@Z
  010c2	c7 45 fc 00 00
	00 00		 mov	 DWORD PTR __$EHRec$[ebp+8], 0
  010c9	68 00 00 00 00	 push	 OFFSET FLAT:$SG204587
  010ce	8d 4d bc	 lea	 ecx, DWORD PTR $T207656[ebp]
  010d1	ff 15 00 00 00
	00		 call	 DWORD PTR __imp_??0?$basic_string@DU?$char_traits@D@std@@V?$allocator@D@2@@std@@QAE@PBD@Z
  010d7	c6 45 fc 01	 mov	 BYTE PTR __$EHRec$[ebp+8], 1
  010db	68 00 00 00 00	 push	 OFFSET FLAT:$SG204585
  010e0	8d 45 d8	 lea	 eax, DWORD PTR $T207655[ebp]
  010e3	50		 push	 eax
  010e4	6a 00		 push	 0
  010e6	8d 4d bc	 lea	 ecx, DWORD PTR $T207656[ebp]
  010e9	51		 push	 ecx
  010ea	ff 15 00 00 00
	00		 call	 DWORD PTR __imp_?YL_Log@@YAXABV?$basic_string@DU?$char_traits@D@std@@V?$allocator@D@2@@std@@H0PBDZZ
  010f0	83 c4 10	 add	 esp, 16			; 00000010H
  010f3	c6 45 fc 00	 mov	 BYTE PTR __$EHRec$[ebp+8], 0
  010f7	8d 4d bc	 lea	 ecx, DWORD PTR $T207656[ebp]
  010fa	ff 15 00 00 00
	00		 call	 DWORD PTR __imp_??1?$basic_string@DU?$char_traits@D@std@@V?$allocator@D@2@@std@@QAE@XZ
  01100	c7 45 fc ff ff
	ff ff		 mov	 DWORD PTR __$EHRec$[ebp+8], -1
  01107	8d 4d d8	 lea	 ecx, DWORD PTR $T207655[ebp]
  0110a	ff 15 00 00 00
	00		 call	 DWORD PTR __imp_??1?$basic_string@DU?$char_traits@D@std@@V?$allocator@D@2@@std@@QAE@XZ

; 198  : 	if(isTopMost)

  01110	0f b6 55 08	 movzx	 edx, BYTE PTR _isTopMost$[ebp]
  01114	85 d2		 test	 edx, edx
  01116	0f 84 81 00 00
	00		 je	 $L204588

; 199  : 	{
; 200  : 		AfxGetMainWindow()->SetWindowPos(&wndTopMost,-1,-1,-1,-1, SWP_NOSIZE|SWP_NOMOVE);

  0111c	6a 03		 push	 3
  0111e	6a ff		 push	 -1
  01120	6a ff		 push	 -1
  01122	6a ff		 push	 -1
  01124	6a ff		 push	 -1
  01126	a1 00 00 00 00	 mov	 eax, DWORD PTR __imp_?wndTopMost@CWnd@@2V1@B
  0112b	50		 push	 eax
  0112c	e8 00 00 00 00	 call	 ?AfxGetMainWindow@@YAPAVCWnd@@XZ ; AfxGetMainWindow
  01131	8b c8		 mov	 ecx, eax
  01133	e8 00 00 00 00	 call	 ?SetWindowPos@CWnd@@QAEHPBV1@HHHHI@Z ; CWnd::SetWindowPos

; 201  : 		AfxGetUserConfig()->SetConfigBoolValue( CONF_APP_MODULE_NAME,CONF_APP_MAINWND_HOLD,true);

  01138	8b 0d 00 00 00
	00		 mov	 ecx, DWORD PTR _CONF_APP_MAINWND_HOLD
  0113e	51		 push	 ecx
  0113f	8d 4d a0	 lea	 ecx, DWORD PTR $T207657[ebp]
  01142	ff 15 00 00 00
	00		 call	 DWORD PTR __imp_??0?$basic_string@DU?$char_traits@D@std@@V?$allocator@D@2@@std@@QAE@PBD@Z
  01148	c7 45 fc 02 00
	00 00		 mov	 DWORD PTR __$EHRec$[ebp+8], 2
  0114f	8b 15 00 00 00
	00		 mov	 edx, DWORD PTR _CONF_APP_MODULE_NAME
  01155	52		 push	 edx
  01156	8d 4d 84	 lea	 ecx, DWORD PTR $T207658[ebp]
  01159	ff 15 00 00 00
	00		 call	 DWORD PTR __imp_??0?$basic_string@DU?$char_traits@D@std@@V?$allocator@D@2@@std@@QAE@PBD@Z
  0115f	c6 45 fc 03	 mov	 BYTE PTR __$EHRec$[ebp+8], 3
  01163	6a 00		 push	 0
  01165	6a 01		 push	 1
  01167	8d 45 a0	 lea	 eax, DWORD PTR $T207657[ebp]
  0116a	50		 push	 eax
  0116b	8d 4d 84	 lea	 ecx, DWORD PTR $T207658[ebp]
  0116e	51		 push	 ecx
  0116f	e8 00 00 00 00	 call	 ?AfxGetUserConfig@@YAPAVAfxUserConfig@@XZ ; AfxGetUserConfig
  01174	8b c8		 mov	 ecx, eax
  01176	e8 00 00 00 00	 call	 ?SetConfigBoolValue@AfxUserConfig@@QAEXABV?$basic_string@DU?$char_traits@D@std@@V?$allocator@D@2@@std@@0_N1@Z ; AfxUserConfig::SetConfigBoolValue
  0117b	c6 45 fc 02	 mov	 BYTE PTR __$EHRec$[ebp+8], 2
  0117f	8d 4d 84	 lea	 ecx, DWORD PTR $T207658[ebp]
  01182	ff 15 00 00 00
	00		 call	 DWORD PTR __imp_??1?$basic_string@DU?$char_traits@D@std@@V?$allocator@D@2@@std@@QAE@XZ
  01188	c7 45 fc ff ff
	ff ff		 mov	 DWORD PTR __$EHRec$[ebp+8], -1
  0118f	8d 4d a0	 lea	 ecx, DWORD PTR $T207657[ebp]
  01192	ff 15 00 00 00
	00		 call	 DWORD PTR __imp_??1?$basic_string@DU?$char_traits@D@std@@V?$allocator@D@2@@std@@QAE@XZ

; 202  : 	}else

  01198	e9 8e 00 00 00	 jmp	 $L204591
$L204588:

; 203  : 	{
; 204  : 		AfxGetMainWindow()->SetWindowPos(&wndNoTopMost,-1,-1,-1,-1, SWP_NOSIZE|SWP_NOMOVE);

  0119d	6a 03		 push	 3
  0119f	6a ff		 push	 -1
  011a1	6a ff		 push	 -1
  011a3	6a ff		 push	 -1
  011a5	6a ff		 push	 -1
  011a7	8b 15 00 00 00
	00		 mov	 edx, DWORD PTR __imp_?wndNoTopMost@CWnd@@2V1@B
  011ad	52		 push	 edx
  011ae	e8 00 00 00 00	 call	 ?AfxGetMainWindow@@YAPAVCWnd@@XZ ; AfxGetMainWindow
  011b3	8b c8		 mov	 ecx, eax
  011b5	e8 00 00 00 00	 call	 ?SetWindowPos@CWnd@@QAEHPBV1@HHHHI@Z ; CWnd::SetWindowPos

; 205  : 		AfxGetUserConfig()->SetConfigBoolValue( CONF_APP_MODULE_NAME,CONF_APP_MAINWND_HOLD,false);

  011ba	a1 00 00 00 00	 mov	 eax, DWORD PTR _CONF_APP_MAINWND_HOLD
  011bf	50		 push	 eax
  011c0	8d 8d 68 ff ff
	ff		 lea	 ecx, DWORD PTR $T207659[ebp]
  011c6	ff 15 00 00 00
	00		 call	 DWORD PTR __imp_??0?$basic_string@DU?$char_traits@D@std@@V?$allocator@D@2@@std@@QAE@PBD@Z
  011cc	c7 45 fc 04 00
	00 00		 mov	 DWORD PTR __$EHRec$[ebp+8], 4
  011d3	8b 0d 00 00 00
	00		 mov	 ecx, DWORD PTR _CONF_APP_MODULE_NAME
  011d9	51		 push	 ecx
  011da	8d 8d 4c ff ff
	ff		 lea	 ecx, DWORD PTR $T207660[ebp]
  011e0	ff 15 00 00 00
	00		 call	 DWORD PTR __imp_??0?$basic_string@DU?$char_traits@D@std@@V?$allocator@D@2@@std@@QAE@PBD@Z
  011e6	c6 45 fc 05	 mov	 BYTE PTR __$EHRec$[ebp+8], 5
  011ea	6a 00		 push	 0
  011ec	6a 00		 push	 0
  011ee	8d 95 68 ff ff
	ff		 lea	 edx, DWORD PTR $T207659[ebp]
  011f4	52		 push	 edx
  011f5	8d 85 4c ff ff
	ff		 lea	 eax, DWORD PTR $T207660[ebp]
  011fb	50		 push	 eax
  011fc	e8 00 00 00 00	 call	 ?AfxGetUserConfig@@YAPAVAfxUserConfig@@XZ ; AfxGetUserConfig
  01201	8b c8		 mov	 ecx, eax
  01203	e8 00 00 00 00	 call	 ?SetConfigBoolValue@AfxUserConfig@@QAEXABV?$basic_string@DU?$char_traits@D@std@@V?$allocator@D@2@@std@@0_N1@Z ; AfxUserConfig::SetConfigBoolValue
  01208	c6 45 fc 04	 mov	 BYTE PTR __$EHRec$[ebp+8], 4
  0120c	8d 8d 4c ff ff
	ff		 lea	 ecx, DWORD PTR $T207660[ebp]
  01212	ff 15 00 00 00
	00		 call	 DWORD PTR __imp_??1?$basic_string@DU?$char_traits@D@std@@V?$allocator@D@2@@std@@QAE@XZ
  01218	c7 45 fc ff ff
	ff ff		 mov	 DWORD PTR __$EHRec$[ebp+8], -1
  0121f	8d 8d 68 ff ff
	ff		 lea	 ecx, DWORD PTR $T207659[ebp]
  01225	ff 15 00 00 00
	00		 call	 DWORD PTR __imp_??1?$basic_string@DU?$char_traits@D@std@@V?$allocator@D@2@@std@@QAE@XZ
$L204591:

; 206  : 	}
; 207  : 	YL_Log("GamePanelWnd.txt", LOG_DEBUG, "GamePanelWnd::SetMainWindow", "===OUT");

  0122b	68 00 00 00 00	 push	 OFFSET FLAT:$SG204597
  01230	8d 8d 30 ff ff
	ff		 lea	 ecx, DWORD PTR $T207661[ebp]
  01236	ff 15 00 00 00
	00		 call	 DWORD PTR __imp_??0?$basic_string@DU?$char_traits@D@std@@V?$allocator@D@2@@std@@QAE@PBD@Z
  0123c	c7 45 fc 06 00
	00 00		 mov	 DWORD PTR __$EHRec$[ebp+8], 6
  01243	68 00 00 00 00	 push	 OFFSET FLAT:$SG204598
  01248	8d 8d 14 ff ff
	ff		 lea	 ecx, DWORD PTR $T207662[ebp]
  0124e	ff 15 00 00 00
	00		 call	 DWORD PTR __imp_??0?$basic_string@DU?$char_traits@D@std@@V?$allocator@D@2@@std@@QAE@PBD@Z
  01254	c6 45 fc 07	 mov	 BYTE PTR __$EHRec$[ebp+8], 7
  01258	68 00 00 00 00	 push	 OFFSET FLAT:$SG204596
  0125d	8d 8d 30 ff ff
	ff		 lea	 ecx, DWORD PTR $T207661[ebp]
  01263	51		 push	 ecx
  01264	6a 00		 push	 0
  01266	8d 95 14 ff ff
	ff		 lea	 edx, DWORD PTR $T207662[ebp]
  0126c	52		 push	 edx
  0126d	ff 15 00 00 00
	00		 call	 DWORD PTR __imp_?YL_Log@@YAXABV?$basic_string@DU?$char_traits@D@std@@V?$allocator@D@2@@std@@H0PBDZZ
  01273	83 c4 10	 add	 esp, 16			; 00000010H
  01276	c6 45 fc 06	 mov	 BYTE PTR __$EHRec$[ebp+8], 6
  0127a	8d 8d 14 ff ff
	ff		 lea	 ecx, DWORD PTR $T207662[ebp]
  01280	ff 15 00 00 00
	00		 call	 DWORD PTR __imp_??1?$basic_string@DU?$char_traits@D@std@@V?$allocator@D@2@@std@@QAE@XZ
  01286	c7 45 fc ff ff
	ff ff		 mov	 DWORD PTR __$EHRec$[ebp+8], -1
  0128d	8d 8d 30 ff ff
	ff		 lea	 ecx, DWORD PTR $T207661[ebp]
  01293	ff 15 00 00 00
	00		 call	 DWORD PTR __imp_??1?$basic_string@DU?$char_traits@D@std@@V?$allocator@D@2@@std@@QAE@XZ

; 208  : }

  01299	8b 4d f4	 mov	 ecx, DWORD PTR __$EHRec$[ebp]
  0129c	64 89 0d 00 00
	00 00		 mov	 DWORD PTR fs:__except_list, ecx
  012a3	8b e5		 mov	 esp, ebp
  012a5	5d		 pop	 ebp
  012a6	c2 04 00	 ret	 4
_TEXT	ENDS
text$x	SEGMENT
$L207663:
  00227	8d 4d d8	 lea	 ecx, DWORD PTR $T207655[ebp]
  0022a	ff 25 00 00 00
	00		 jmp	 DWORD PTR __imp_??1?$basic_string@DU?$char_traits@D@std@@V?$allocator@D@2@@std@@QAE@XZ
$L207664:
  00230	8d 4d bc	 lea	 ecx, DWORD PTR $T207656[ebp]
  00233	ff 25 00 00 00
	00		 jmp	 DWORD PTR __imp_??1?$basic_string@DU?$char_traits@D@std@@V?$allocator@D@2@@std@@QAE@XZ
$L207665:
  00239	8d 4d a0	 lea	 ecx, DWORD PTR $T207657[ebp]
  0023c	ff 25 00 00 00
	00		 jmp	 DWORD PTR __imp_??1?$basic_string@DU?$char_traits@D@std@@V?$allocator@D@2@@std@@QAE@XZ
$L207666:
  00242	8d 4d 84	 lea	 ecx, DWORD PTR $T207658[ebp]
  00245	ff 25 00 00 00
	00		 jmp	 DWORD PTR __imp_??1?$basic_string@DU?$char_traits@D@std@@V?$allocator@D@2@@std@@QAE@XZ
$L207667:
  0024b	8d 8d 68 ff ff
	ff		 lea	 ecx, DWORD PTR $T207659[ebp]
  00251	ff 25 00 00 00
	00		 jmp	 DWORD PTR __imp_??1?$basic_string@DU?$char_traits@D@std@@V?$allocator@D@2@@std@@QAE@XZ
$L207668:
  00257	8d 8d 4c ff ff
	ff		 lea	 ecx, DWORD PTR $T207660[ebp]
  0025d	ff 25 00 00 00
	00		 jmp	 DWORD PTR __imp_??1?$basic_string@DU?$char_traits@D@std@@V?$allocator@D@2@@std@@QAE@XZ
$L207669:
  00263	8d 8d 30 ff ff
	ff		 lea	 ecx, DWORD PTR $T207661[ebp]
  00269	ff 25 00 00 00
	00		 jmp	 DWORD PTR __imp_??1?$basic_string@DU?$char_traits@D@std@@V?$allocator@D@2@@std@@QAE@XZ
$L207670:
  0026f	8d 8d 14 ff ff
	ff		 lea	 ecx, DWORD PTR $T207662[ebp]
  00275	ff 25 00 00 00
	00		 jmp	 DWORD PTR __imp_??1?$basic_string@DU?$char_traits@D@std@@V?$allocator@D@2@@std@@QAE@XZ
__ehhandler$?SetMainWindow@GamePanelWnd@@QAEX_N@Z:
  0027b	b8 00 00 00 00	 mov	 eax, OFFSET FLAT:$T207672
  00280	e9 00 00 00 00	 jmp	 ___CxxFrameHandler
text$x	ENDS
?SetMainWindow@GamePanelWnd@@QAEX_N@Z ENDP		; GamePanelWnd::SetMainWindow
PUBLIC	?MoveWindow@CWnd@@QAEXPBUtagRECT@@H@Z		; CWnd::MoveWindow
xdata$x	SEGMENT
$T207691 DD	0ffffffffH
	DD	FLAT:$L207682
	DD	00H
	DD	FLAT:$L207683
	DD	0ffffffffH
	DD	FLAT:$L207684
	DD	02H
	DD	FLAT:$L207685
	DD	0ffffffffH
	DD	FLAT:$L207686
	DD	04H
	DD	FLAT:$L207687
$T207689 DD	019930520H
	DD	06H
	DD	FLAT:$T207691
	DD	2 DUP(00H)
	DD	2 DUP(00H)
; Function compile flags: /Odt
xdata$x	ENDS
_TEXT	SEGMENT
_this$ = -196						; size = 4
$T207681 = -192						; size = 28
$T207680 = -164						; size = 28
$T207679 = -136						; size = 28
$T207678 = -108						; size = 28
$T207677 = -80						; size = 28
$T207676 = -52						; size = 28
_lExStyle$ = -24					; size = 4
_style$ = -20						; size = 4
_bHold$ = -13						; size = 1
__$EHRec$ = -12						; size = 12
_pWnd$ = 8						; size = 4
?IPanelChangeOb_ExitFullScreen@GamePanelWnd@@UAEXPAVCWnd@@@Z PROC NEAR ; GamePanelWnd::IPanelChangeOb_ExitFullScreen
; _this$ = ecx

; 211  : {

  012b0	55		 push	 ebp
  012b1	8b ec		 mov	 ebp, esp
  012b3	6a ff		 push	 -1
  012b5	68 00 00 00 00	 push	 __ehhandler$?IPanelChangeOb_ExitFullScreen@GamePanelWnd@@UAEXPAVCWnd@@@Z
  012ba	64 a1 00 00 00
	00		 mov	 eax, DWORD PTR fs:__except_list
  012c0	50		 push	 eax
  012c1	64 89 25 00 00
	00 00		 mov	 DWORD PTR fs:__except_list, esp
  012c8	81 ec b8 00 00
	00		 sub	 esp, 184		; 000000b8H
  012ce	89 8d 3c ff ff
	ff		 mov	 DWORD PTR _this$[ebp], ecx

; 212  : 	YL_Log("GamePanelWnd.txt", LOG_DEBUG, "GamePanelWnd::IPanelChangeOb_ExitFullScreen", "===IN");

  012d4	68 00 00 00 00	 push	 OFFSET FLAT:$SG204606
  012d9	8d 4d cc	 lea	 ecx, DWORD PTR $T207676[ebp]
  012dc	ff 15 00 00 00
	00		 call	 DWORD PTR __imp_??0?$basic_string@DU?$char_traits@D@std@@V?$allocator@D@2@@std@@QAE@PBD@Z
  012e2	c7 45 fc 00 00
	00 00		 mov	 DWORD PTR __$EHRec$[ebp+8], 0
  012e9	68 00 00 00 00	 push	 OFFSET FLAT:$SG204607
  012ee	8d 4d b0	 lea	 ecx, DWORD PTR $T207677[ebp]
  012f1	ff 15 00 00 00
	00		 call	 DWORD PTR __imp_??0?$basic_string@DU?$char_traits@D@std@@V?$allocator@D@2@@std@@QAE@PBD@Z
  012f7	c6 45 fc 01	 mov	 BYTE PTR __$EHRec$[ebp+8], 1
  012fb	68 00 00 00 00	 push	 OFFSET FLAT:$SG204605
  01300	8d 45 cc	 lea	 eax, DWORD PTR $T207676[ebp]
  01303	50		 push	 eax
  01304	6a 00		 push	 0
  01306	8d 4d b0	 lea	 ecx, DWORD PTR $T207677[ebp]
  01309	51		 push	 ecx
  0130a	ff 15 00 00 00
	00		 call	 DWORD PTR __imp_?YL_Log@@YAXABV?$basic_string@DU?$char_traits@D@std@@V?$allocator@D@2@@std@@H0PBDZZ
  01310	83 c4 10	 add	 esp, 16			; 00000010H
  01313	c6 45 fc 00	 mov	 BYTE PTR __$EHRec$[ebp+8], 0
  01317	8d 4d b0	 lea	 ecx, DWORD PTR $T207677[ebp]
  0131a	ff 15 00 00 00
	00		 call	 DWORD PTR __imp_??1?$basic_string@DU?$char_traits@D@std@@V?$allocator@D@2@@std@@QAE@XZ
  01320	c7 45 fc ff ff
	ff ff		 mov	 DWORD PTR __$EHRec$[ebp+8], -1
  01327	8d 4d cc	 lea	 ecx, DWORD PTR $T207676[ebp]
  0132a	ff 15 00 00 00
	00		 call	 DWORD PTR __imp_??1?$basic_string@DU?$char_traits@D@std@@V?$allocator@D@2@@std@@QAE@XZ

; 213  : 	if( pWnd != this )

  01330	8b 95 3c ff ff
	ff		 mov	 edx, DWORD PTR _this$[ebp]
  01336	83 ea 5c	 sub	 edx, 92			; 0000005cH
  01339	39 55 08	 cmp	 DWORD PTR _pWnd$[ebp], edx
  0133c	74 05		 je	 SHORT $L204608

; 214  : 		return;

  0133e	e9 06 02 00 00	 jmp	 $L204602
$L204608:

; 215  : 
; 216  : 	m_bFullScreen = false;

  01343	8b 85 3c ff ff
	ff		 mov	 eax, DWORD PTR _this$[ebp]
  01349	c6 80 a9 00 00
	00 00		 mov	 BYTE PTR [eax+169], 0

; 217  : 
; 218  : 	//
; 219  : 	long style = ::GetWindowLong(m_hWnd,GWL_STYLE);

  01350	6a f0		 push	 -16			; fffffff0H
  01352	8b 8d 3c ff ff
	ff		 mov	 ecx, DWORD PTR _this$[ebp]
  01358	8b 51 c4	 mov	 edx, DWORD PTR [ecx-60]
  0135b	52		 push	 edx
  0135c	ff 15 00 00 00
	00		 call	 DWORD PTR __imp__GetWindowLongA@8
  01362	89 45 ec	 mov	 DWORD PTR _style$[ebp], eax

; 220  : 	style |= WS_CHILD;

  01365	8b 45 ec	 mov	 eax, DWORD PTR _style$[ebp]
  01368	0d 00 00 00 40	 or	 eax, 1073741824		; 40000000H
  0136d	89 45 ec	 mov	 DWORD PTR _style$[ebp], eax

; 221  : 	//style |= WS_CLIPCHILDREN; //WS_CLIPCHILDRENGamePanelWnd
; 222  : 	::SetWindowLong(m_hWnd, GWL_STYLE, style);

  01370	8b 4d ec	 mov	 ecx, DWORD PTR _style$[ebp]
  01373	51		 push	 ecx
  01374	6a f0		 push	 -16			; fffffff0H
  01376	8b 95 3c ff ff
	ff		 mov	 edx, DWORD PTR _this$[ebp]
  0137c	8b 42 c4	 mov	 eax, DWORD PTR [edx-60]
  0137f	50		 push	 eax
  01380	ff 15 00 00 00
	00		 call	 DWORD PTR __imp__SetWindowLongA@12

; 223  : 	
; 224  : 	long lExStyle = ::GetWindowLong(m_hWnd, GWL_EXSTYLE);

  01386	6a ec		 push	 -20			; ffffffecH
  01388	8b 8d 3c ff ff
	ff		 mov	 ecx, DWORD PTR _this$[ebp]
  0138e	8b 51 c4	 mov	 edx, DWORD PTR [ecx-60]
  01391	52		 push	 edx
  01392	ff 15 00 00 00
	00		 call	 DWORD PTR __imp__GetWindowLongA@8
  01398	89 45 e8	 mov	 DWORD PTR _lExStyle$[ebp], eax

; 225  : 	lExStyle |= WS_EX_APPWINDOW; 

  0139b	8b 45 e8	 mov	 eax, DWORD PTR _lExStyle$[ebp]
  0139e	0d 00 00 04 00	 or	 eax, 262144		; 00040000H
  013a3	89 45 e8	 mov	 DWORD PTR _lExStyle$[ebp], eax

; 226  : 	lExStyle &= ~WS_EX_TOOLWINDOW; 

  013a6	8b 4d e8	 mov	 ecx, DWORD PTR _lExStyle$[ebp]
  013a9	81 e1 7f ff ff
	ff		 and	 ecx, -129		; ffffff7fH
  013af	89 4d e8	 mov	 DWORD PTR _lExStyle$[ebp], ecx

; 227  : 	::SetWindowLong(m_hWnd, GWL_EXSTYLE, lExStyle);

  013b2	8b 55 e8	 mov	 edx, DWORD PTR _lExStyle$[ebp]
  013b5	52		 push	 edx
  013b6	6a ec		 push	 -20			; ffffffecH
  013b8	8b 85 3c ff ff
	ff		 mov	 eax, DWORD PTR _this$[ebp]
  013be	8b 48 c4	 mov	 ecx, DWORD PTR [eax-60]
  013c1	51		 push	 ecx
  013c2	ff 15 00 00 00
	00		 call	 DWORD PTR __imp__SetWindowLongA@12

; 228  : 
; 229  : 	SetParent(m_pWndParent);

  013c8	8b 95 3c ff ff
	ff		 mov	 edx, DWORD PTR _this$[ebp]
  013ce	8b 82 cc 00 00
	00		 mov	 eax, DWORD PTR [edx+204]
  013d4	50		 push	 eax
  013d5	8b 8d 3c ff ff
	ff		 mov	 ecx, DWORD PTR _this$[ebp]
  013db	83 e9 5c	 sub	 ecx, 92			; 0000005cH
  013de	e8 00 00 00 00	 call	 ?SetParent@CWnd@@QAEPAV1@PAV1@@Z ; CWnd::SetParent

; 230  : 	MoveWindow(&m_rectBeforeFull);

  013e3	6a 01		 push	 1
  013e5	8b 8d 3c ff ff
	ff		 mov	 ecx, DWORD PTR _this$[ebp]
  013eb	81 c1 ac 00 00
	00		 add	 ecx, 172		; 000000acH
  013f1	51		 push	 ecx
  013f2	8b 8d 3c ff ff
	ff		 mov	 ecx, DWORD PTR _this$[ebp]
  013f8	83 e9 5c	 sub	 ecx, 92			; 0000005cH
  013fb	e8 00 00 00 00	 call	 ?MoveWindow@CWnd@@QAEXPBUtagRECT@@H@Z ; CWnd::MoveWindow

; 231  : 
; 232  : 	if(m_isMainWindowTopMost)

  01400	8b 95 3c ff ff
	ff		 mov	 edx, DWORD PTR _this$[ebp]
  01406	0f b6 82 a8 00
	00 00		 movzx	 eax, BYTE PTR [edx+168]
  0140d	85 c0		 test	 eax, eax
  0140f	74 1d		 je	 SHORT $L204611

; 233  : 	{
; 234  : 		SetMainWindow(true);

  01411	6a 01		 push	 1
  01413	8b 8d 3c ff ff
	ff		 mov	 ecx, DWORD PTR _this$[ebp]
  01419	83 e9 5c	 sub	 ecx, 92			; 0000005cH
  0141c	e8 00 00 00 00	 call	 ?SetMainWindow@GamePanelWnd@@QAEX_N@Z ; GamePanelWnd::SetMainWindow

; 235  : 		m_isMainWindowTopMost = false;

  01421	8b 8d 3c ff ff
	ff		 mov	 ecx, DWORD PTR _this$[ebp]
  01427	c6 81 a8 00 00
	00 00		 mov	 BYTE PTR [ecx+168], 0
$L204611:

; 236  : 	}
; 237  : 
; 238  : 	bool bHold = false;

  0142e	c6 45 f3 00	 mov	 BYTE PTR _bHold$[ebp], 0

; 239  : 	AfxGetUserConfig()->GetConfigBoolValue( CONF_APP_MODULE_NAME,CONF_APP_MAINWND_HOLD,bHold);

  01432	8b 15 00 00 00
	00		 mov	 edx, DWORD PTR _CONF_APP_MAINWND_HOLD
  01438	52		 push	 edx
  01439	8d 4d 94	 lea	 ecx, DWORD PTR $T207678[ebp]
  0143c	ff 15 00 00 00
	00		 call	 DWORD PTR __imp_??0?$basic_string@DU?$char_traits@D@std@@V?$allocator@D@2@@std@@QAE@PBD@Z
  01442	c7 45 fc 02 00
	00 00		 mov	 DWORD PTR __$EHRec$[ebp+8], 2
  01449	a1 00 00 00 00	 mov	 eax, DWORD PTR _CONF_APP_MODULE_NAME
  0144e	50		 push	 eax
  0144f	8d 8d 78 ff ff
	ff		 lea	 ecx, DWORD PTR $T207679[ebp]
  01455	ff 15 00 00 00
	00		 call	 DWORD PTR __imp_??0?$basic_string@DU?$char_traits@D@std@@V?$allocator@D@2@@std@@QAE@PBD@Z
  0145b	c6 45 fc 03	 mov	 BYTE PTR __$EHRec$[ebp+8], 3
  0145f	8d 4d f3	 lea	 ecx, DWORD PTR _bHold$[ebp]
  01462	51		 push	 ecx
  01463	8d 55 94	 lea	 edx, DWORD PTR $T207678[ebp]
  01466	52		 push	 edx
  01467	8d 85 78 ff ff
	ff		 lea	 eax, DWORD PTR $T207679[ebp]
  0146d	50		 push	 eax
  0146e	e8 00 00 00 00	 call	 ?AfxGetUserConfig@@YAPAVAfxUserConfig@@XZ ; AfxGetUserConfig
  01473	8b c8		 mov	 ecx, eax
  01475	e8 00 00 00 00	 call	 ?GetConfigBoolValue@AfxUserConfig@@QAEXABV?$basic_string@DU?$char_traits@D@std@@V?$allocator@D@2@@std@@0AA_N@Z ; AfxUserConfig::GetConfigBoolValue
  0147a	c6 45 fc 02	 mov	 BYTE PTR __$EHRec$[ebp+8], 2
  0147e	8d 8d 78 ff ff
	ff		 lea	 ecx, DWORD PTR $T207679[ebp]
  01484	ff 15 00 00 00
	00		 call	 DWORD PTR __imp_??1?$basic_string@DU?$char_traits@D@std@@V?$allocator@D@2@@std@@QAE@XZ
  0148a	c7 45 fc ff ff
	ff ff		 mov	 DWORD PTR __$EHRec$[ebp+8], -1
  01491	8d 4d 94	 lea	 ecx, DWORD PTR $T207678[ebp]
  01494	ff 15 00 00 00
	00		 call	 DWORD PTR __imp_??1?$basic_string@DU?$char_traits@D@std@@V?$allocator@D@2@@std@@QAE@XZ

; 240  : 	if( bHold )

  0149a	0f b6 4d f3	 movzx	 ecx, BYTE PTR _bHold$[ebp]
  0149e	85 c9		 test	 ecx, ecx
  014a0	74 1d		 je	 SHORT $L204615

; 241  : 	{
; 242  : 		AfxGetMainWindow()->SetWindowPos(&wndTopMost,-1,-1,-1,-1, SWP_NOSIZE|SWP_NOMOVE);

  014a2	6a 03		 push	 3
  014a4	6a ff		 push	 -1
  014a6	6a ff		 push	 -1
  014a8	6a ff		 push	 -1
  014aa	6a ff		 push	 -1
  014ac	8b 15 00 00 00
	00		 mov	 edx, DWORD PTR __imp_?wndTopMost@CWnd@@2V1@B
  014b2	52		 push	 edx
  014b3	e8 00 00 00 00	 call	 ?AfxGetMainWindow@@YAPAVCWnd@@XZ ; AfxGetMainWindow
  014b8	8b c8		 mov	 ecx, eax
  014ba	e8 00 00 00 00	 call	 ?SetWindowPos@CWnd@@QAEHPBV1@HHHHI@Z ; CWnd::SetWindowPos
$L204615:

; 243  : 	}
; 244  : 	UpdateAllWnd();

  014bf	8b 8d 3c ff ff
	ff		 mov	 ecx, DWORD PTR _this$[ebp]
  014c5	83 e9 5c	 sub	 ecx, 92			; 0000005cH
  014c8	e8 00 00 00 00	 call	 ?UpdateAllWnd@GamePanelWnd@@QAEXXZ ; GamePanelWnd::UpdateAllWnd

; 245  : 	//
; 246  : 	m_pGameFlash->SetFocus();

  014cd	8b 85 3c ff ff
	ff		 mov	 eax, DWORD PTR _this$[ebp]
  014d3	8b 48 04	 mov	 ecx, DWORD PTR [eax+4]
  014d6	e8 00 00 00 00	 call	 ?SetFocus@CWnd@@QAEPAV1@XZ ; CWnd::SetFocus

; 247  : 	YL_Log("GamePanelWnd.txt", LOG_DEBUG, "GamePanelWnd::IPanelChangeOb_ExitFullScreen", "===OUT");

  014db	68 00 00 00 00	 push	 OFFSET FLAT:$SG204619
  014e0	8d 8d 5c ff ff
	ff		 lea	 ecx, DWORD PTR $T207680[ebp]
  014e6	ff 15 00 00 00
	00		 call	 DWORD PTR __imp_??0?$basic_string@DU?$char_traits@D@std@@V?$allocator@D@2@@std@@QAE@PBD@Z
  014ec	c7 45 fc 04 00
	00 00		 mov	 DWORD PTR __$EHRec$[ebp+8], 4
  014f3	68 00 00 00 00	 push	 OFFSET FLAT:$SG204620
  014f8	8d 8d 40 ff ff
	ff		 lea	 ecx, DWORD PTR $T207681[ebp]
  014fe	ff 15 00 00 00
	00		 call	 DWORD PTR __imp_??0?$basic_string@DU?$char_traits@D@std@@V?$allocator@D@2@@std@@QAE@PBD@Z
  01504	c6 45 fc 05	 mov	 BYTE PTR __$EHRec$[ebp+8], 5
  01508	68 00 00 00 00	 push	 OFFSET FLAT:$SG204618
  0150d	8d 8d 5c ff ff
	ff		 lea	 ecx, DWORD PTR $T207680[ebp]
  01513	51		 push	 ecx
  01514	6a 00		 push	 0
  01516	8d 95 40 ff ff
	ff		 lea	 edx, DWORD PTR $T207681[ebp]
  0151c	52		 push	 edx
  0151d	ff 15 00 00 00
	00		 call	 DWORD PTR __imp_?YL_Log@@YAXABV?$basic_string@DU?$char_traits@D@std@@V?$allocator@D@2@@std@@H0PBDZZ
  01523	83 c4 10	 add	 esp, 16			; 00000010H
  01526	c6 45 fc 04	 mov	 BYTE PTR __$EHRec$[ebp+8], 4
  0152a	8d 8d 40 ff ff
	ff		 lea	 ecx, DWORD PTR $T207681[ebp]
  01530	ff 15 00 00 00
	00		 call	 DWORD PTR __imp_??1?$basic_string@DU?$char_traits@D@std@@V?$allocator@D@2@@std@@QAE@XZ
  01536	c7 45 fc ff ff
	ff ff		 mov	 DWORD PTR __$EHRec$[ebp+8], -1
  0153d	8d 8d 5c ff ff
	ff		 lea	 ecx, DWORD PTR $T207680[ebp]
  01543	ff 15 00 00 00
	00		 call	 DWORD PTR __imp_??1?$basic_string@DU?$char_traits@D@std@@V?$allocator@D@2@@std@@QAE@XZ
$L204602:

; 248  : }

  01549	8b 4d f4	 mov	 ecx, DWORD PTR __$EHRec$[ebp]
  0154c	64 89 0d 00 00
	00 00		 mov	 DWORD PTR fs:__except_list, ecx
  01553	8b e5		 mov	 esp, ebp
  01555	5d		 pop	 ebp
  01556	c2 04 00	 ret	 4
_TEXT	ENDS
text$x	SEGMENT
$L207682:
  00285	8d 4d cc	 lea	 ecx, DWORD PTR $T207676[ebp]
  00288	ff 25 00 00 00
	00		 jmp	 DWORD PTR __imp_??1?$basic_string@DU?$char_traits@D@std@@V?$allocator@D@2@@std@@QAE@XZ
$L207683:
  0028e	8d 4d b0	 lea	 ecx, DWORD PTR $T207677[ebp]
  00291	ff 25 00 00 00
	00		 jmp	 DWORD PTR __imp_??1?$basic_string@DU?$char_traits@D@std@@V?$allocator@D@2@@std@@QAE@XZ
$L207684:
  00297	8d 4d 94	 lea	 ecx, DWORD PTR $T207678[ebp]
  0029a	ff 25 00 00 00
	00		 jmp	 DWORD PTR __imp_??1?$basic_string@DU?$char_traits@D@std@@V?$allocator@D@2@@std@@QAE@XZ
$L207685:
  002a0	8d 8d 78 ff ff
	ff		 lea	 ecx, DWORD PTR $T207679[ebp]
  002a6	ff 25 00 00 00
	00		 jmp	 DWORD PTR __imp_??1?$basic_string@DU?$char_traits@D@std@@V?$allocator@D@2@@std@@QAE@XZ
$L207686:
  002ac	8d 8d 5c ff ff
	ff		 lea	 ecx, DWORD PTR $T207680[ebp]
  002b2	ff 25 00 00 00
	00		 jmp	 DWORD PTR __imp_??1?$basic_string@DU?$char_traits@D@std@@V?$allocator@D@2@@std@@QAE@XZ
$L207687:
  002b8	8d 8d 40 ff ff
	ff		 lea	 ecx, DWORD PTR $T207681[ebp]
  002be	ff 25 00 00 00
	00		 jmp	 DWORD PTR __imp_??1?$basic_string@DU?$char_traits@D@std@@V?$allocator@D@2@@std@@QAE@XZ
__ehhandler$?IPanelChangeOb_ExitFullScreen@GamePanelWnd@@UAEXPAVCWnd@@@Z:
  002c4	b8 00 00 00 00	 mov	 eax, OFFSET FLAT:$T207689
  002c9	e9 00 00 00 00	 jmp	 ___CxxFrameHandler
text$x	ENDS
?IPanelChangeOb_ExitFullScreen@GamePanelWnd@@UAEXPAVCWnd@@@Z ENDP ; GamePanelWnd::IPanelChangeOb_ExitFullScreen
PUBLIC	??0?$vector@V?$basic_string@DU?$char_traits@D@std@@V?$allocator@D@2@@std@@V?$allocator@V?$basic_string@DU?$char_traits@D@std@@V?$allocator@D@2@@std@@@2@@std@@QAE@XZ ; std::vector<std::basic_string<char,std::char_traits<char>,std::allocator<char> >,std::allocator<std::basic_string<char,std::char_traits<char>,std::allocator<char> > > >::vector<std::basic_string<char,std::char_traits<char>,std::allocator<char> >,std::allocator<std::basic_string<char,std::char_traits<char>,std::allocator<char> > > >
PUBLIC	??1?$vector@V?$basic_string@DU?$char_traits@D@std@@V?$allocator@D@2@@std@@V?$allocator@V?$basic_string@DU?$char_traits@D@std@@V?$allocator@D@2@@std@@@2@@std@@QAE@XZ ; std::vector<std::basic_string<char,std::char_traits<char>,std::allocator<char> >,std::allocator<std::basic_string<char,std::char_traits<char>,std::allocator<char> > > >::~vector<std::basic_string<char,std::char_traits<char>,std::allocator<char> >,std::allocator<std::basic_string<char,std::char_traits<char>,std::allocator<char> > > >
PUBLIC	?push_back@?$vector@V?$basic_string@DU?$char_traits@D@std@@V?$allocator@D@2@@std@@V?$allocator@V?$basic_string@DU?$char_traits@D@std@@V?$allocator@D@2@@std@@@2@@std@@QAEXABV?$basic_string@DU?$char_traits@D@std@@V?$allocator@D@2@@2@@Z ; std::vector<std::basic_string<char,std::char_traits<char>,std::allocator<char> >,std::allocator<std::basic_string<char,std::char_traits<char>,std::allocator<char> > > >::push_back
PUBLIC	__real@0000000000000000
EXTRN	?SetDownPercent@DownPercentWnd@@QAEXN@Z:NEAR	; DownPercentWnd::SetDownPercent
EXTRN	?SetText@DownPercentWnd@@QAEXAAV?$vector@V?$basic_string@DU?$char_traits@D@std@@V?$allocator@D@2@@std@@V?$allocator@V?$basic_string@DU?$char_traits@D@std@@V?$allocator@D@2@@std@@@2@@std@@@Z:NEAR ; DownPercentWnd::SetText
EXTRN	?SetFailed@DownPercentWnd@@QAEX_N@Z:NEAR	; DownPercentWnd::SetFailed
EXTRN	__imp_??$?9DU?$char_traits@D@std@@V?$allocator@D@1@@std@@YA_NABV?$basic_string@DU?$char_traits@D@std@@V?$allocator@D@2@@0@0@Z:NEAR
EXTRN	__fltused:NEAR
xdata$x	SEGMENT
$T207710 DD	0ffffffffH
	DD	FLAT:$L207698
	DD	00H
	DD	FLAT:$L207699
	DD	0ffffffffH
	DD	FLAT:$L207700
	DD	02H
	DD	FLAT:$L207701
	DD	02H
	DD	FLAT:$L207702
	DD	04H
	DD	FLAT:$L207703
$T207705 DD	019930520H
	DD	06H
	DD	FLAT:$T207710
	DD	2 DUP(00H)
	DD	2 DUP(00H)
xdata$x	ENDS
;	COMDAT __real@0000000000000000
CONST	SEGMENT
__real@0000000000000000 DQ 00000000000000000r	; 0
; Function compile flags: /Odt
CONST	ENDS
_TEXT	SEGMENT
_this$ = -172						; size = 4
$T207697 = -168						; size = 28
$T207696 = -140						; size = 28
$T207695 = -112						; size = 28
$T207694 = -84						; size = 28
$T207693 = -56						; size = 28
_vecText$ = -28						; size = 16
__$EHRec$ = -12						; size = 12
_strID$ = 8						; size = 4
?HttpDownOb_DownStart@GamePanelWnd@@UAEXAAV?$basic_string@DU?$char_traits@D@std@@V?$allocator@D@2@@std@@@Z PROC NEAR ; GamePanelWnd::HttpDownOb_DownStart
; _this$ = ecx

; 251  : {

  01560	55		 push	 ebp
  01561	8b ec		 mov	 ebp, esp
  01563	6a ff		 push	 -1
  01565	68 00 00 00 00	 push	 __ehhandler$?HttpDownOb_DownStart@GamePanelWnd@@UAEXAAV?$basic_string@DU?$char_traits@D@std@@V?$allocator@D@2@@std@@@Z
  0156a	64 a1 00 00 00
	00		 mov	 eax, DWORD PTR fs:__except_list
  01570	50		 push	 eax
  01571	64 89 25 00 00
	00 00		 mov	 DWORD PTR fs:__except_list, esp
  01578	81 ec a0 00 00
	00		 sub	 esp, 160		; 000000a0H
  0157e	89 8d 54 ff ff
	ff		 mov	 DWORD PTR _this$[ebp], ecx

; 252  : 	if( strID != m_swfGame.strID )

  01584	8b 85 54 ff ff
	ff		 mov	 eax, DWORD PTR _this$[ebp]
  0158a	83 c0 20	 add	 eax, 32			; 00000020H
  0158d	50		 push	 eax
  0158e	8b 4d 08	 mov	 ecx, DWORD PTR _strID$[ebp]
  01591	51		 push	 ecx
  01592	ff 15 00 00 00
	00		 call	 DWORD PTR __imp_??$?9DU?$char_traits@D@std@@V?$allocator@D@1@@std@@YA_NABV?$basic_string@DU?$char_traits@D@std@@V?$allocator@D@2@@0@0@Z
  01598	83 c4 08	 add	 esp, 8
  0159b	0f b6 d0	 movzx	 edx, al
  0159e	85 d2		 test	 edx, edx
  015a0	74 05		 je	 SHORT $L204625

; 253  : 		return;

  015a2	e9 61 01 00 00	 jmp	 $L204624
$L204625:

; 254  : 	YL_Log("GamePanelWnd.txt", LOG_DEBUG, "GamePanelWnd::HttpDownOb_DownStart", "===IN");

  015a7	68 00 00 00 00	 push	 OFFSET FLAT:$SG204629
  015ac	8d 4d c8	 lea	 ecx, DWORD PTR $T207693[ebp]
  015af	ff 15 00 00 00
	00		 call	 DWORD PTR __imp_??0?$basic_string@DU?$char_traits@D@std@@V?$allocator@D@2@@std@@QAE@PBD@Z
  015b5	c7 45 fc 00 00
	00 00		 mov	 DWORD PTR __$EHRec$[ebp+8], 0
  015bc	68 00 00 00 00	 push	 OFFSET FLAT:$SG204630
  015c1	8d 4d ac	 lea	 ecx, DWORD PTR $T207694[ebp]
  015c4	ff 15 00 00 00
	00		 call	 DWORD PTR __imp_??0?$basic_string@DU?$char_traits@D@std@@V?$allocator@D@2@@std@@QAE@PBD@Z
  015ca	c6 45 fc 01	 mov	 BYTE PTR __$EHRec$[ebp+8], 1
  015ce	68 00 00 00 00	 push	 OFFSET FLAT:$SG204628
  015d3	8d 45 c8	 lea	 eax, DWORD PTR $T207693[ebp]
  015d6	50		 push	 eax
  015d7	6a 00		 push	 0
  015d9	8d 4d ac	 lea	 ecx, DWORD PTR $T207694[ebp]
  015dc	51		 push	 ecx
  015dd	ff 15 00 00 00
	00		 call	 DWORD PTR __imp_?YL_Log@@YAXABV?$basic_string@DU?$char_traits@D@std@@V?$allocator@D@2@@std@@H0PBDZZ
  015e3	83 c4 10	 add	 esp, 16			; 00000010H
  015e6	c6 45 fc 00	 mov	 BYTE PTR __$EHRec$[ebp+8], 0
  015ea	8d 4d ac	 lea	 ecx, DWORD PTR $T207694[ebp]
  015ed	ff 15 00 00 00
	00		 call	 DWORD PTR __imp_??1?$basic_string@DU?$char_traits@D@std@@V?$allocator@D@2@@std@@QAE@XZ
  015f3	c7 45 fc ff ff
	ff ff		 mov	 DWORD PTR __$EHRec$[ebp+8], -1
  015fa	8d 4d c8	 lea	 ecx, DWORD PTR $T207693[ebp]
  015fd	ff 15 00 00 00
	00		 call	 DWORD PTR __imp_??1?$basic_string@DU?$char_traits@D@std@@V?$allocator@D@2@@std@@QAE@XZ

; 255  : 	m_bDown = true;

  01603	8b 95 54 ff ff
	ff		 mov	 edx, DWORD PTR _this$[ebp]
  01609	c6 42 1c 01	 mov	 BYTE PTR [edx+28], 1

; 256  : 	UpdateAllWnd();

  0160d	8b 8d 54 ff ff
	ff		 mov	 ecx, DWORD PTR _this$[ebp]
  01613	83 e9 58	 sub	 ecx, 88			; 00000058H
  01616	e8 00 00 00 00	 call	 ?UpdateAllWnd@GamePanelWnd@@QAEXXZ ; GamePanelWnd::UpdateAllWnd

; 257  : 
; 258  : 	m_pWndDownPercent->SetFailed( false );

  0161b	6a 00		 push	 0
  0161d	8b 85 54 ff ff
	ff		 mov	 eax, DWORD PTR _this$[ebp]
  01623	8b 48 0c	 mov	 ecx, DWORD PTR [eax+12]
  01626	e8 00 00 00 00	 call	 ?SetFailed@DownPercentWnd@@QAEX_N@Z ; DownPercentWnd::SetFailed

; 259  : 
; 260  : 	vector<string> vecText;

  0162b	8d 4d e4	 lea	 ecx, DWORD PTR _vecText$[ebp]
  0162e	e8 00 00 00 00	 call	 ??0?$vector@V?$basic_string@DU?$char_traits@D@std@@V?$allocator@D@2@@std@@V?$allocator@V?$basic_string@DU?$char_traits@D@std@@V?$allocator@D@2@@std@@@2@@std@@QAE@XZ ; std::vector<std::basic_string<char,std::char_traits<char>,std::allocator<char> >,std::allocator<std::basic_string<char,std::char_traits<char>,std::allocator<char> > > >::vector<std::basic_string<char,std::char_traits<char>,std::allocator<char> >,std::allocator<std::basic_string<char,std::char_traits<char>,std::allocator<char> > > >
  01633	c7 45 fc 02 00
	00 00		 mov	 DWORD PTR __$EHRec$[ebp+8], 2

; 261  : 	vecText.push_back( "" );

  0163a	68 00 00 00 00	 push	 OFFSET FLAT:$SG204634
  0163f	8d 4d 90	 lea	 ecx, DWORD PTR $T207695[ebp]
  01642	ff 15 00 00 00
	00		 call	 DWORD PTR __imp_??0?$basic_string@DU?$char_traits@D@std@@V?$allocator@D@2@@std@@QAE@PBD@Z
  01648	c6 45 fc 03	 mov	 BYTE PTR __$EHRec$[ebp+8], 3
  0164c	8d 4d 90	 lea	 ecx, DWORD PTR $T207695[ebp]
  0164f	51		 push	 ecx
  01650	8d 4d e4	 lea	 ecx, DWORD PTR _vecText$[ebp]
  01653	e8 00 00 00 00	 call	 ?push_back@?$vector@V?$basic_string@DU?$char_traits@D@std@@V?$allocator@D@2@@std@@V?$allocator@V?$basic_string@DU?$char_traits@D@std@@V?$allocator@D@2@@std@@@2@@std@@QAEXABV?$basic_string@DU?$char_traits@D@std@@V?$allocator@D@2@@2@@Z ; std::vector<std::basic_string<char,std::char_traits<char>,std::allocator<char> >,std::allocator<std::basic_string<char,std::char_traits<char>,std::allocator<char> > > >::push_back
  01658	c6 45 fc 02	 mov	 BYTE PTR __$EHRec$[ebp+8], 2
  0165c	8d 4d 90	 lea	 ecx, DWORD PTR $T207695[ebp]
  0165f	ff 15 00 00 00
	00		 call	 DWORD PTR __imp_??1?$basic_string@DU?$char_traits@D@std@@V?$allocator@D@2@@std@@QAE@XZ

; 262  : 
; 263  : 	m_pWndDownPercent->SetText( vecText );

  01665	8d 55 e4	 lea	 edx, DWORD PTR _vecText$[ebp]
  01668	52		 push	 edx
  01669	8b 85 54 ff ff
	ff		 mov	 eax, DWORD PTR _this$[ebp]
  0166f	8b 48 0c	 mov	 ecx, DWORD PTR [eax+12]
  01672	e8 00 00 00 00	 call	 ?SetText@DownPercentWnd@@QAEXAAV?$vector@V?$basic_string@DU?$char_traits@D@std@@V?$allocator@D@2@@std@@V?$allocator@V?$basic_string@DU?$char_traits@D@std@@V?$allocator@D@2@@std@@@2@@std@@@Z ; DownPercentWnd::SetText

; 264  : 	m_pWndDownPercent->SetDownPercent( 0 );

  01677	dd 05 00 00 00
	00		 fld	 QWORD PTR __real@0000000000000000
  0167d	83 ec 08	 sub	 esp, 8
  01680	dd 1c 24	 fstp	 QWORD PTR [esp]
  01683	8b 8d 54 ff ff
	ff		 mov	 ecx, DWORD PTR _this$[ebp]
  01689	8b 49 0c	 mov	 ecx, DWORD PTR [ecx+12]
  0168c	e8 00 00 00 00	 call	 ?SetDownPercent@DownPercentWnd@@QAEXN@Z ; DownPercentWnd::SetDownPercent

; 265  : 	YL_Log("GamePanelWnd.txt", LOG_DEBUG, "GamePanelWnd::HttpDownOb_DownStart", "===OUT");

  01691	68 00 00 00 00	 push	 OFFSET FLAT:$SG204638
  01696	8d 8d 74 ff ff
	ff		 lea	 ecx, DWORD PTR $T207696[ebp]
  0169c	ff 15 00 00 00
	00		 call	 DWORD PTR __imp_??0?$basic_string@DU?$char_traits@D@std@@V?$allocator@D@2@@std@@QAE@PBD@Z
  016a2	c6 45 fc 04	 mov	 BYTE PTR __$EHRec$[ebp+8], 4
  016a6	68 00 00 00 00	 push	 OFFSET FLAT:$SG204639
  016ab	8d 8d 58 ff ff
	ff		 lea	 ecx, DWORD PTR $T207697[ebp]
  016b1	ff 15 00 00 00
	00		 call	 DWORD PTR __imp_??0?$basic_string@DU?$char_traits@D@std@@V?$allocator@D@2@@std@@QAE@PBD@Z
  016b7	c6 45 fc 05	 mov	 BYTE PTR __$EHRec$[ebp+8], 5
  016bb	68 00 00 00 00	 push	 OFFSET FLAT:$SG204637
  016c0	8d 95 74 ff ff
	ff		 lea	 edx, DWORD PTR $T207696[ebp]
  016c6	52		 push	 edx
  016c7	6a 00		 push	 0
  016c9	8d 85 58 ff ff
	ff		 lea	 eax, DWORD PTR $T207697[ebp]
  016cf	50		 push	 eax
  016d0	ff 15 00 00 00
	00		 call	 DWORD PTR __imp_?YL_Log@@YAXABV?$basic_string@DU?$char_traits@D@std@@V?$allocator@D@2@@std@@H0PBDZZ
  016d6	83 c4 10	 add	 esp, 16			; 00000010H
  016d9	c6 45 fc 04	 mov	 BYTE PTR __$EHRec$[ebp+8], 4
  016dd	8d 8d 58 ff ff
	ff		 lea	 ecx, DWORD PTR $T207697[ebp]
  016e3	ff 15 00 00 00
	00		 call	 DWORD PTR __imp_??1?$basic_string@DU?$char_traits@D@std@@V?$allocator@D@2@@std@@QAE@XZ
  016e9	c6 45 fc 02	 mov	 BYTE PTR __$EHRec$[ebp+8], 2
  016ed	8d 8d 74 ff ff
	ff		 lea	 ecx, DWORD PTR $T207696[ebp]
  016f3	ff 15 00 00 00
	00		 call	 DWORD PTR __imp_??1?$basic_string@DU?$char_traits@D@std@@V?$allocator@D@2@@std@@QAE@XZ

; 266  : }

  016f9	c7 45 fc ff ff
	ff ff		 mov	 DWORD PTR __$EHRec$[ebp+8], -1
  01700	8d 4d e4	 lea	 ecx, DWORD PTR _vecText$[ebp]
  01703	e8 00 00 00 00	 call	 ??1?$vector@V?$basic_string@DU?$char_traits@D@std@@V?$allocator@D@2@@std@@V?$allocator@V?$basic_string@DU?$char_traits@D@std@@V?$allocator@D@2@@std@@@2@@std@@QAE@XZ ; std::vector<std::basic_string<char,std::char_traits<char>,std::allocator<char> >,std::allocator<std::basic_string<char,std::char_traits<char>,std::allocator<char> > > >::~vector<std::basic_string<char,std::char_traits<char>,std::allocator<char> >,std::allocator<std::basic_string<char,std::char_traits<char>,std::allocator<char> > > >
$L204624:
  01708	8b 4d f4	 mov	 ecx, DWORD PTR __$EHRec$[ebp]
  0170b	64 89 0d 00 00
	00 00		 mov	 DWORD PTR fs:__except_list, ecx
  01712	8b e5		 mov	 esp, ebp
  01714	5d		 pop	 ebp
  01715	c2 04 00	 ret	 4
_TEXT	ENDS
text$x	SEGMENT
$L207698:
  002ce	8d 4d c8	 lea	 ecx, DWORD PTR $T207693[ebp]
  002d1	ff 25 00 00 00
	00		 jmp	 DWORD PTR __imp_??1?$basic_string@DU?$char_traits@D@std@@V?$allocator@D@2@@std@@QAE@XZ
$L207699:
  002d7	8d 4d ac	 lea	 ecx, DWORD PTR $T207694[ebp]
  002da	ff 25 00 00 00
	00		 jmp	 DWORD PTR __imp_??1?$basic_string@DU?$char_traits@D@std@@V?$allocator@D@2@@std@@QAE@XZ
$L207700:
  002e0	8d 4d e4	 lea	 ecx, DWORD PTR _vecText$[ebp]
  002e3	e9 00 00 00 00	 jmp	 ??1?$vector@V?$basic_string@DU?$char_traits@D@std@@V?$allocator@D@2@@std@@V?$allocator@V?$basic_string@DU?$char_traits@D@std@@V?$allocator@D@2@@std@@@2@@std@@QAE@XZ ; std::vector<std::basic_string<char,std::char_traits<char>,std::allocator<char> >,std::allocator<std::basic_string<char,std::char_traits<char>,std::allocator<char> > > >::~vector<std::basic_string<char,std::char_traits<char>,std::allocator<char> >,std::allocator<std::basic_string<char,std::char_traits<char>,std::allocator<char> > > >
$L207701:
  002e8	8d 4d 90	 lea	 ecx, DWORD PTR $T207695[ebp]
  002eb	ff 25 00 00 00
	00		 jmp	 DWORD PTR __imp_??1?$basic_string@DU?$char_traits@D@std@@V?$allocator@D@2@@std@@QAE@XZ
$L207702:
  002f1	8d 8d 74 ff ff
	ff		 lea	 ecx, DWORD PTR $T207696[ebp]
  002f7	ff 25 00 00 00
	00		 jmp	 DWORD PTR __imp_??1?$basic_string@DU?$char_traits@D@std@@V?$allocator@D@2@@std@@QAE@XZ
$L207703:
  002fd	8d 8d 58 ff ff
	ff		 lea	 ecx, DWORD PTR $T207697[ebp]
  00303	ff 25 00 00 00
	00		 jmp	 DWORD PTR __imp_??1?$basic_string@DU?$char_traits@D@std@@V?$allocator@D@2@@std@@QAE@XZ
__ehhandler$?HttpDownOb_DownStart@GamePanelWnd@@UAEXAAV?$basic_string@DU?$char_traits@D@std@@V?$allocator@D@2@@std@@@Z:
  00309	b8 00 00 00 00	 mov	 eax, OFFSET FLAT:$T207705
  0030e	e9 00 00 00 00	 jmp	 ___CxxFrameHandler
text$x	ENDS
?HttpDownOb_DownStart@GamePanelWnd@@UAEXAAV?$basic_string@DU?$char_traits@D@std@@V?$allocator@D@2@@std@@@Z ENDP ; GamePanelWnd::HttpDownOb_DownStart
PUBLIC	?PlayMovie@GamePanelWnd@@QAEXV?$basic_string@DU?$char_traits@D@std@@V?$allocator@D@2@@std@@0@Z ; GamePanelWnd::PlayMovie
PUBLIC	??0OneLocalGame@@QAE@XZ				; OneLocalGame::OneLocalGame
PUBLIC	??1OneLocalGame@@QAE@XZ				; OneLocalGame::~OneLocalGame
PUBLIC	__real@3ff0000000000000
EXTRN	?Format@YL_StringUtil@@SA_NAAV?$basic_string@DU?$char_traits@D@std@@V?$allocator@D@2@@std@@PBDZZ:NEAR ; YL_StringUtil::Format
EXTRN	?ReplaceAll@YL_StringUtil@@SAXAAV?$basic_string@DU?$char_traits@D@std@@V?$allocator@D@2@@std@@ABV23@1@Z:NEAR ; YL_StringUtil::ReplaceAll
EXTRN	?IsValid@YL_FileInfo@@SA_NABV?$basic_string@DU?$char_traits@D@std@@V?$allocator@D@2@@std@@@Z:NEAR ; YL_FileInfo::IsValid
EXTRN	?GetFileNameSuffix@YL_FileInfo@@SA_NABV?$basic_string@DU?$char_traits@D@std@@V?$allocator@D@2@@std@@AAV23@@Z:NEAR ; YL_FileInfo::GetFileNameSuffix
EXTRN	?GetFileDirPath@YL_FileInfo@@SA_NABV?$basic_string@DU?$char_traits@D@std@@V?$allocator@D@2@@std@@AAV23@@Z:NEAR ; YL_FileInfo::GetFileDirPath
EXTRN	__imp_??0YL_CHTTPDownFile@@QAE@XZ:NEAR
EXTRN	__imp_??1YL_CHTTPDownFile@@QAE@XZ:NEAR
EXTRN	__imp_?DownloadFile@YL_CHTTPDownFile@@QAE_NABV?$basic_string@DU?$char_traits@D@std@@V?$allocator@D@2@@std@@0PAI@Z:NEAR
EXTRN	?AfxGetDataManager2@@YAPAVIDataManager@@XZ:NEAR	; AfxGetDataManager2
EXTRN	?GetHomePath@CLhcImg@@SA_NQADH@Z:NEAR		; CLhcImg::GetHomePath
xdata$x	SEGMENT
$T207757 DD	0ffffffffH
	DD	FLAT:$L207729
	DD	00H
	DD	FLAT:$L207730
	DD	0ffffffffH
	DD	FLAT:$L207731
	DD	02H
	DD	FLAT:$L207732
	DD	02H
	DD	FLAT:$L207733
	DD	04H
	DD	FLAT:$L207734
	DD	02H
	DD	FLAT:$L207735
	DD	06H
	DD	FLAT:$L207736
	DD	07H
	DD	FLAT:$L207737
	DD	08H
	DD	FLAT:$L207738
	DD	08H
	DD	FLAT:$L207739
	DD	0aH
	DD	FLAT:$L207740
	DD	0bH
	DD	FLAT:$L207741
	DD	0cH
	DD	FLAT:$L207742
	DD	0dH
	DD	FLAT:$L207743
	DD	0eH
	DD	FLAT:$L207744
	DD	08H
	DD	FLAT:$L207745
	DD	010H
	DD	FLAT:$L207746
	DD	010H
	DD	FLAT:$L207747
	DD	010H
	DD	FLAT:$L207749
	DD	013H
	DD	FLAT:$L207750
$T207752 DD	019930520H
	DD	015H
	DD	FLAT:$T207757
	DD	2 DUP(00H)
	DD	2 DUP(00H)
xdata$x	ENDS
;	COMDAT __real@3ff0000000000000
CONST	SEGMENT
__real@3ff0000000000000 DQ 03ff0000000000000r	; 1
; Function compile flags: /Odt
CONST	ENDS
_TEXT	SEGMENT
tv439 = -996						; size = 4
tv436 = -992						; size = 4
tv94 = -988						; size = 4
tv308 = -984						; size = 4
tv302 = -980						; size = 4
tv434 = -976						; size = 4
tv298 = -972						; size = 4
tv208 = -968						; size = 4
tv202 = -964						; size = 4
tv430 = -960						; size = 4
tv141 = -956						; size = 4
tv427 = -952						; size = 4
tv146 = -948						; size = 4
tv424 = -944						; size = 4
tv155 = -940						; size = 4
tv421 = -936						; size = 4
tv158 = -932						; size = 4
tv418 = -928						; size = 4
tv166 = -924						; size = 4
tv414 = -920						; size = 4
tv191 = -916						; size = 4
_this$ = -912						; size = 4
$T207728 = -908						; size = 28
$T207727 = -880						; size = 28
$T207726 = -852						; size = 4
$T207725 = -848						; size = 4
$T207724 = -844						; size = 4
$T207723 = -840						; size = 4
$T207722 = -836						; size = 4
$T207721 = -832						; size = 4
$T207720 = -828						; size = 4
$T207719 = -824						; size = 4
$T207718 = -820						; size = 4
$T207717 = -816						; size = 28
$T207716 = -788						; size = 28
$T207715 = -760						; size = 28
$T207714 = -732						; size = 28
$T207713 = -704						; size = 28
_httpDownFile$204665 = -676				; size = 148
_olg$ = -524						; size = 144
_strPicDirPath$ = -380					; size = 28
_vecText$ = -352					; size = 16
_strPicLocalDesPath$ = -336				; size = 28
_szHomePath$ = -308					; size = 260
_strPicFormat$ = -44					; size = 28
__$ArrayPad$ = -16					; size = 4
__$EHRec$ = -12						; size = 12
__$ReturnAddr$ = 4					; size = 4
_strID$ = 8						; size = 4
_strSwfPath$ = 12					; size = 4
?HttpDownOb_DownFinish@GamePanelWnd@@UAEXAAV?$basic_string@DU?$char_traits@D@std@@V?$allocator@D@2@@std@@0@Z PROC NEAR ; GamePanelWnd::HttpDownOb_DownFinish
; _this$ = ecx

; 269  : {

  01720	55		 push	 ebp
  01721	8b ec		 mov	 ebp, esp
  01723	6a ff		 push	 -1
  01725	68 00 00 00 00	 push	 __ehhandler$?HttpDownOb_DownFinish@GamePanelWnd@@UAEXAAV?$basic_string@DU?$char_traits@D@std@@V?$allocator@D@2@@std@@0@Z
  0172a	64 a1 00 00 00
	00		 mov	 eax, DWORD PTR fs:__except_list
  01730	50		 push	 eax
  01731	64 89 25 00 00
	00 00		 mov	 DWORD PTR fs:__except_list, esp
  01738	81 ec d8 03 00
	00		 sub	 esp, 984		; 000003d8H
  0173e	a1 00 00 00 00	 mov	 eax, DWORD PTR ___security_cookie
  01743	89 45 f0	 mov	 DWORD PTR __$ArrayPad$[ebp], eax
  01746	89 8d 70 fc ff
	ff		 mov	 DWORD PTR _this$[ebp], ecx

; 270  : 	if( strID != m_swfGame.strID )

  0174c	8b 85 70 fc ff
	ff		 mov	 eax, DWORD PTR _this$[ebp]
  01752	83 c0 20	 add	 eax, 32			; 00000020H
  01755	50		 push	 eax
  01756	8b 4d 08	 mov	 ecx, DWORD PTR _strID$[ebp]
  01759	51		 push	 ecx
  0175a	ff 15 00 00 00
	00		 call	 DWORD PTR __imp_??$?9DU?$char_traits@D@std@@V?$allocator@D@1@@std@@YA_NABV?$basic_string@DU?$char_traits@D@std@@V?$allocator@D@2@@0@0@Z
  01760	83 c4 08	 add	 esp, 8
  01763	0f b6 d0	 movzx	 edx, al
  01766	85 d2		 test	 edx, edx
  01768	74 05		 je	 SHORT $L204645

; 271  : 		return;

  0176a	e9 57 05 00 00	 jmp	 $L204644
$L204645:

; 272  : 
; 273  : 	YL_Log("GamePanelWnd.txt", LOG_DEBUG, "GamePanelWnd::HttpDownOb_DownFinish", "===IN");

  0176f	68 00 00 00 00	 push	 OFFSET FLAT:$SG204649
  01774	8d 8d 40 fd ff
	ff		 lea	 ecx, DWORD PTR $T207713[ebp]
  0177a	ff 15 00 00 00
	00		 call	 DWORD PTR __imp_??0?$basic_string@DU?$char_traits@D@std@@V?$allocator@D@2@@std@@QAE@PBD@Z
  01780	c7 45 fc 00 00
	00 00		 mov	 DWORD PTR __$EHRec$[ebp+8], 0
  01787	68 00 00 00 00	 push	 OFFSET FLAT:$SG204650
  0178c	8d 8d 24 fd ff
	ff		 lea	 ecx, DWORD PTR $T207714[ebp]
  01792	ff 15 00 00 00
	00		 call	 DWORD PTR __imp_??0?$basic_string@DU?$char_traits@D@std@@V?$allocator@D@2@@std@@QAE@PBD@Z
  01798	c6 45 fc 01	 mov	 BYTE PTR __$EHRec$[ebp+8], 1
  0179c	68 00 00 00 00	 push	 OFFSET FLAT:$SG204648
  017a1	8d 85 40 fd ff
	ff		 lea	 eax, DWORD PTR $T207713[ebp]
  017a7	50		 push	 eax
  017a8	6a 00		 push	 0
  017aa	8d 8d 24 fd ff
	ff		 lea	 ecx, DWORD PTR $T207714[ebp]
  017b0	51		 push	 ecx
  017b1	ff 15 00 00 00
	00		 call	 DWORD PTR __imp_?YL_Log@@YAXABV?$basic_string@DU?$char_traits@D@std@@V?$allocator@D@2@@std@@H0PBDZZ
  017b7	83 c4 10	 add	 esp, 16			; 00000010H
  017ba	c6 45 fc 00	 mov	 BYTE PTR __$EHRec$[ebp+8], 0
  017be	8d 8d 24 fd ff
	ff		 lea	 ecx, DWORD PTR $T207714[ebp]
  017c4	ff 15 00 00 00
	00		 call	 DWORD PTR __imp_??1?$basic_string@DU?$char_traits@D@std@@V?$allocator@D@2@@std@@QAE@XZ
  017ca	c7 45 fc ff ff
	ff ff		 mov	 DWORD PTR __$EHRec$[ebp+8], -1
  017d1	8d 8d 40 fd ff
	ff		 lea	 ecx, DWORD PTR $T207713[ebp]
  017d7	ff 15 00 00 00
	00		 call	 DWORD PTR __imp_??1?$basic_string@DU?$char_traits@D@std@@V?$allocator@D@2@@std@@QAE@XZ

; 274  : 	//
; 275  : 	m_pWndDownPercent->SetFailed( false );

  017dd	6a 00		 push	 0
  017df	8b 95 70 fc ff
	ff		 mov	 edx, DWORD PTR _this$[ebp]
  017e5	8b 4a 0c	 mov	 ecx, DWORD PTR [edx+12]
  017e8	e8 00 00 00 00	 call	 ?SetFailed@DownPercentWnd@@QAEX_N@Z ; DownPercentWnd::SetFailed

; 276  : 	vector<string> vecText;

  017ed	8d 8d a0 fe ff
	ff		 lea	 ecx, DWORD PTR _vecText$[ebp]
  017f3	e8 00 00 00 00	 call	 ??0?$vector@V?$basic_string@DU?$char_traits@D@std@@V?$allocator@D@2@@std@@V?$allocator@V?$basic_string@DU?$char_traits@D@std@@V?$allocator@D@2@@std@@@2@@std@@QAE@XZ ; std::vector<std::basic_string<char,std::char_traits<char>,std::allocator<char> >,std::allocator<std::basic_string<char,std::char_traits<char>,std::allocator<char> > > >::vector<std::basic_string<char,std::char_traits<char>,std::allocator<char> >,std::allocator<std::basic_string<char,std::char_traits<char>,std::allocator<char> > > >
  017f8	c7 45 fc 02 00
	00 00		 mov	 DWORD PTR __$EHRec$[ebp+8], 2

; 277  : 	vecText.push_back( ",..." );

  017ff	68 00 00 00 00	 push	 OFFSET FLAT:$SG204654
  01804	8d 8d 08 fd ff
	ff		 lea	 ecx, DWORD PTR $T207715[ebp]
  0180a	ff 15 00 00 00
	00		 call	 DWORD PTR __imp_??0?$basic_string@DU?$char_traits@D@std@@V?$allocator@D@2@@std@@QAE@PBD@Z
  01810	c6 45 fc 03	 mov	 BYTE PTR __$EHRec$[ebp+8], 3
  01814	8d 85 08 fd ff
	ff		 lea	 eax, DWORD PTR $T207715[ebp]
  0181a	50		 push	 eax
  0181b	8d 8d a0 fe ff
	ff		 lea	 ecx, DWORD PTR _vecText$[ebp]
  01821	e8 00 00 00 00	 call	 ?push_back@?$vector@V?$basic_string@DU?$char_traits@D@std@@V?$allocator@D@2@@std@@V?$allocator@V?$basic_string@DU?$char_traits@D@std@@V?$allocator@D@2@@std@@@2@@std@@QAEXABV?$basic_string@DU?$char_traits@D@std@@V?$allocator@D@2@@2@@Z ; std::vector<std::basic_string<char,std::char_traits<char>,std::allocator<char> >,std::allocator<std::basic_string<char,std::char_traits<char>,std::allocator<char> > > >::push_back
  01826	c6 45 fc 02	 mov	 BYTE PTR __$EHRec$[ebp+8], 2
  0182a	8d 8d 08 fd ff
	ff		 lea	 ecx, DWORD PTR $T207715[ebp]
  01830	ff 15 00 00 00
	00		 call	 DWORD PTR __imp_??1?$basic_string@DU?$char_traits@D@std@@V?$allocator@D@2@@std@@QAE@XZ

; 278  : 	m_pWndDownPercent->SetText( vecText );

  01836	8d 8d a0 fe ff
	ff		 lea	 ecx, DWORD PTR _vecText$[ebp]
  0183c	51		 push	 ecx
  0183d	8b 95 70 fc ff
	ff		 mov	 edx, DWORD PTR _this$[ebp]
  01843	8b 4a 0c	 mov	 ecx, DWORD PTR [edx+12]
  01846	e8 00 00 00 00	 call	 ?SetText@DownPercentWnd@@QAEXAAV?$vector@V?$basic_string@DU?$char_traits@D@std@@V?$allocator@D@2@@std@@V?$allocator@V?$basic_string@DU?$char_traits@D@std@@V?$allocator@D@2@@std@@@2@@std@@@Z ; DownPercentWnd::SetText

; 279  : 	m_pWndDownPercent->SetDownPercent( 1.0 );

  0184b	dd 05 00 00 00
	00		 fld	 QWORD PTR __real@3ff0000000000000
  01851	83 ec 08	 sub	 esp, 8
  01854	dd 1c 24	 fstp	 QWORD PTR [esp]
  01857	8b 85 70 fc ff
	ff		 mov	 eax, DWORD PTR _this$[ebp]
  0185d	8b 48 0c	 mov	 ecx, DWORD PTR [eax+12]
  01860	e8 00 00 00 00	 call	 ?SetDownPercent@DownPercentWnd@@QAEXN@Z ; DownPercentWnd::SetDownPercent

; 280  : 
; 281  : 	//swfurl
; 282  : 	YL_StringUtil::ReplaceAll( m_swfGame.strPicUrl, " ", "%20" );

  01865	68 00 00 00 00	 push	 OFFSET FLAT:$SG204657
  0186a	8d 8d ec fc ff
	ff		 lea	 ecx, DWORD PTR $T207716[ebp]
  01870	ff 15 00 00 00
	00		 call	 DWORD PTR __imp_??0?$basic_string@DU?$char_traits@D@std@@V?$allocator@D@2@@std@@QAE@PBD@Z
  01876	c6 45 fc 04	 mov	 BYTE PTR __$EHRec$[ebp+8], 4
  0187a	68 00 00 00 00	 push	 OFFSET FLAT:$SG204658
  0187f	8d 8d d0 fc ff
	ff		 lea	 ecx, DWORD PTR $T207717[ebp]
  01885	ff 15 00 00 00
	00		 call	 DWORD PTR __imp_??0?$basic_string@DU?$char_traits@D@std@@V?$allocator@D@2@@std@@QAE@PBD@Z
  0188b	c6 45 fc 05	 mov	 BYTE PTR __$EHRec$[ebp+8], 5
  0188f	8d 8d ec fc ff
	ff		 lea	 ecx, DWORD PTR $T207716[ebp]
  01895	51		 push	 ecx
  01896	8d 95 d0 fc ff
	ff		 lea	 edx, DWORD PTR $T207717[ebp]
  0189c	52		 push	 edx
  0189d	8b 85 70 fc ff
	ff		 mov	 eax, DWORD PTR _this$[ebp]
  018a3	83 c0 58	 add	 eax, 88			; 00000058H
  018a6	50		 push	 eax
  018a7	e8 00 00 00 00	 call	 ?ReplaceAll@YL_StringUtil@@SAXAAV?$basic_string@DU?$char_traits@D@std@@V?$allocator@D@2@@std@@ABV23@1@Z ; YL_StringUtil::ReplaceAll
  018ac	83 c4 0c	 add	 esp, 12			; 0000000cH
  018af	c6 45 fc 04	 mov	 BYTE PTR __$EHRec$[ebp+8], 4
  018b3	8d 8d d0 fc ff
	ff		 lea	 ecx, DWORD PTR $T207717[ebp]
  018b9	ff 15 00 00 00
	00		 call	 DWORD PTR __imp_??1?$basic_string@DU?$char_traits@D@std@@V?$allocator@D@2@@std@@QAE@XZ
  018bf	c6 45 fc 02	 mov	 BYTE PTR __$EHRec$[ebp+8], 2
  018c3	8d 8d ec fc ff
	ff		 lea	 ecx, DWORD PTR $T207716[ebp]
  018c9	ff 15 00 00 00
	00		 call	 DWORD PTR __imp_??1?$basic_string@DU?$char_traits@D@std@@V?$allocator@D@2@@std@@QAE@XZ

; 283  : 	//
; 284  : 	string strPicLocalDesPath;

  018cf	8d 8d b0 fe ff
	ff		 lea	 ecx, DWORD PTR _strPicLocalDesPath$[ebp]
  018d5	ff 15 00 00 00
	00		 call	 DWORD PTR __imp_??0?$basic_string@DU?$char_traits@D@std@@V?$allocator@D@2@@std@@QAE@XZ
  018db	c6 45 fc 06	 mov	 BYTE PTR __$EHRec$[ebp+8], 6

; 285  : 	string strPicFormat;

  018df	8d 4d d4	 lea	 ecx, DWORD PTR _strPicFormat$[ebp]
  018e2	ff 15 00 00 00
	00		 call	 DWORD PTR __imp_??0?$basic_string@DU?$char_traits@D@std@@V?$allocator@D@2@@std@@QAE@XZ
  018e8	c6 45 fc 07	 mov	 BYTE PTR __$EHRec$[ebp+8], 7

; 286  : 	YL_FileInfo::GetFileNameSuffix( m_swfGame.strPicUrl, strPicFormat );

  018ec	8d 4d d4	 lea	 ecx, DWORD PTR _strPicFormat$[ebp]
  018ef	51		 push	 ecx
  018f0	8b 95 70 fc ff
	ff		 mov	 edx, DWORD PTR _this$[ebp]
  018f6	83 c2 58	 add	 edx, 88			; 00000058H
  018f9	52		 push	 edx
  018fa	e8 00 00 00 00	 call	 ?GetFileNameSuffix@YL_FileInfo@@SA_NABV?$basic_string@DU?$char_traits@D@std@@V?$allocator@D@2@@std@@AAV23@@Z ; YL_FileInfo::GetFileNameSuffix
  018ff	83 c4 08	 add	 esp, 8

; 287  : 
; 288  : 	string strPicDirPath;

  01902	8d 8d 84 fe ff
	ff		 lea	 ecx, DWORD PTR _strPicDirPath$[ebp]
  01908	ff 15 00 00 00
	00		 call	 DWORD PTR __imp_??0?$basic_string@DU?$char_traits@D@std@@V?$allocator@D@2@@std@@QAE@XZ
  0190e	c6 45 fc 08	 mov	 BYTE PTR __$EHRec$[ebp+8], 8

; 289  : 	YL_FileInfo::GetFileDirPath( strSwfPath, strPicDirPath );

  01912	8d 85 84 fe ff
	ff		 lea	 eax, DWORD PTR _strPicDirPath$[ebp]
  01918	50		 push	 eax
  01919	8b 4d 0c	 mov	 ecx, DWORD PTR _strSwfPath$[ebp]
  0191c	51		 push	 ecx
  0191d	e8 00 00 00 00	 call	 ?GetFileDirPath@YL_FileInfo@@SA_NABV?$basic_string@DU?$char_traits@D@std@@V?$allocator@D@2@@std@@AAV23@@Z ; YL_FileInfo::GetFileDirPath
  01922	83 c4 08	 add	 esp, 8

; 290  : 	
; 291  : 	char szHomePath[MAX_PATH];
; 292  : 	CLhcImg::GetHomePath( szHomePath, MAX_PATH );

  01925	68 04 01 00 00	 push	 260			; 00000104H
  0192a	8d 95 cc fe ff
	ff		 lea	 edx, DWORD PTR _szHomePath$[ebp]
  01930	52		 push	 edx
  01931	e8 00 00 00 00	 call	 ?GetHomePath@CLhcImg@@SA_NQADH@Z ; CLhcImg::GetHomePath
  01936	83 c4 08	 add	 esp, 8

; 293  : 
; 294  : 	YL_StringUtil::Format( strPicLocalDesPath, "%s\\%s.%s", 
; 295  : 		strPicDirPath.c_str(), m_swfGame.strID.c_str(), strPicFormat.c_str() );

  01939	8d 4d d4	 lea	 ecx, DWORD PTR _strPicFormat$[ebp]
  0193c	ff 15 00 00 00
	00		 call	 DWORD PTR __imp_?c_str@?$basic_string@DU?$char_traits@D@std@@V?$allocator@D@2@@std@@QBEPBDXZ
  01942	50		 push	 eax
  01943	8b 8d 70 fc ff
	ff		 mov	 ecx, DWORD PTR _this$[ebp]
  01949	83 c1 20	 add	 ecx, 32			; 00000020H
  0194c	ff 15 00 00 00
	00		 call	 DWORD PTR __imp_?c_str@?$basic_string@DU?$char_traits@D@std@@V?$allocator@D@2@@std@@QBEPBDXZ
  01952	50		 push	 eax
  01953	8d 8d 84 fe ff
	ff		 lea	 ecx, DWORD PTR _strPicDirPath$[ebp]
  01959	ff 15 00 00 00
	00		 call	 DWORD PTR __imp_?c_str@?$basic_string@DU?$char_traits@D@std@@V?$allocator@D@2@@std@@QBEPBDXZ
  0195f	50		 push	 eax
  01960	68 00 00 00 00	 push	 OFFSET FLAT:$SG204663
  01965	8d 85 b0 fe ff
	ff		 lea	 eax, DWORD PTR _strPicLocalDesPath$[ebp]
  0196b	50		 push	 eax
  0196c	e8 00 00 00 00	 call	 ?Format@YL_StringUtil@@SA_NAAV?$basic_string@DU?$char_traits@D@std@@V?$allocator@D@2@@std@@PBDZZ ; YL_StringUtil::Format
  01971	83 c4 14	 add	 esp, 20			; 00000014H

; 296  : 
; 297  : 	if( !YL_FileInfo::IsValid( strPicLocalDesPath ) )

  01974	8d 8d b0 fe ff
	ff		 lea	 ecx, DWORD PTR _strPicLocalDesPath$[ebp]
  0197a	51		 push	 ecx
  0197b	e8 00 00 00 00	 call	 ?IsValid@YL_FileInfo@@SA_NABV?$basic_string@DU?$char_traits@D@std@@V?$allocator@D@2@@std@@@Z ; YL_FileInfo::IsValid
  01980	83 c4 04	 add	 esp, 4
  01983	0f b6 d0	 movzx	 edx, al
  01986	85 d2		 test	 edx, edx
  01988	75 3f		 jne	 SHORT $L204664

; 298  : 	{
; 299  : 		YL_CHTTPDownFile httpDownFile;

  0198a	8d 8d 5c fd ff
	ff		 lea	 ecx, DWORD PTR _httpDownFile$204665[ebp]
  01990	ff 15 00 00 00
	00		 call	 DWORD PTR __imp_??0YL_CHTTPDownFile@@QAE@XZ
  01996	c6 45 fc 09	 mov	 BYTE PTR __$EHRec$[ebp+8], 9

; 300  : 		httpDownFile.DownloadFile( m_swfGame.strPicUrl, strPicLocalDesPath );

  0199a	6a 00		 push	 0
  0199c	8d 85 b0 fe ff
	ff		 lea	 eax, DWORD PTR _strPicLocalDesPath$[ebp]
  019a2	50		 push	 eax
  019a3	8b 8d 70 fc ff
	ff		 mov	 ecx, DWORD PTR _this$[ebp]
  019a9	83 c1 58	 add	 ecx, 88			; 00000058H
  019ac	51		 push	 ecx
  019ad	8d 8d 5c fd ff
	ff		 lea	 ecx, DWORD PTR _httpDownFile$204665[ebp]
  019b3	ff 15 00 00 00
	00		 call	 DWORD PTR __imp_?DownloadFile@YL_CHTTPDownFile@@QAE_NABV?$basic_string@DU?$char_traits@D@std@@V?$allocator@D@2@@std@@0PAI@Z

; 301  : 	}

  019b9	c6 45 fc 08	 mov	 BYTE PTR __$EHRec$[ebp+8], 8
  019bd	8d 8d 5c fd ff
	ff		 lea	 ecx, DWORD PTR _httpDownFile$204665[ebp]
  019c3	ff 15 00 00 00
	00		 call	 DWORD PTR __imp_??1YL_CHTTPDownFile@@QAE@XZ
$L204664:

; 302  : 
; 303  : 	//
; 304  : 	GLOBAL_LOCALGAME->ILocalGameData_AddGame( strID, m_swfGame.strName, strPicLocalDesPath, strSwfPath, m_swfGame.strIntro, 0 );

  019c9	83 ec 1c	 sub	 esp, 28			; 0000001cH
  019cc	8b cc		 mov	 ecx, esp
  019ce	89 a5 cc fc ff
	ff		 mov	 DWORD PTR $T207718[ebp], esp
  019d4	68 00 00 00 00	 push	 OFFSET FLAT:$SG204673
  019d9	ff 15 00 00 00
	00		 call	 DWORD PTR __imp_??0?$basic_string@DU?$char_traits@D@std@@V?$allocator@D@2@@std@@QAE@PBD@Z
  019df	89 85 6c fc ff
	ff		 mov	 DWORD PTR tv191[ebp], eax
  019e5	8b 95 6c fc ff
	ff		 mov	 edx, DWORD PTR tv191[ebp]
  019eb	89 95 68 fc ff
	ff		 mov	 DWORD PTR tv414[ebp], edx
  019f1	c6 45 fc 0a	 mov	 BYTE PTR __$EHRec$[ebp+8], 10 ; 0000000aH
  019f5	6a 00		 push	 0
  019f7	8b 85 70 fc ff
	ff		 mov	 eax, DWORD PTR _this$[ebp]
  019fd	05 90 00 00 00	 add	 eax, 144		; 00000090H
  01a02	83 ec 1c	 sub	 esp, 28			; 0000001cH
  01a05	8b cc		 mov	 ecx, esp
  01a07	89 a5 c8 fc ff
	ff		 mov	 DWORD PTR $T207719[ebp], esp
  01a0d	50		 push	 eax
  01a0e	ff 15 00 00 00
	00		 call	 DWORD PTR __imp_??0?$basic_string@DU?$char_traits@D@std@@V?$allocator@D@2@@std@@QAE@ABV01@@Z
  01a14	89 85 64 fc ff
	ff		 mov	 DWORD PTR tv166[ebp], eax
  01a1a	8b 8d 64 fc ff
	ff		 mov	 ecx, DWORD PTR tv166[ebp]
  01a20	89 8d 60 fc ff
	ff		 mov	 DWORD PTR tv418[ebp], ecx
  01a26	c6 45 fc 0b	 mov	 BYTE PTR __$EHRec$[ebp+8], 11 ; 0000000bH
  01a2a	83 ec 1c	 sub	 esp, 28			; 0000001cH
  01a2d	8b cc		 mov	 ecx, esp
  01a2f	89 a5 c4 fc ff
	ff		 mov	 DWORD PTR $T207720[ebp], esp
  01a35	8b 55 0c	 mov	 edx, DWORD PTR _strSwfPath$[ebp]
  01a38	52		 push	 edx
  01a39	ff 15 00 00 00
	00		 call	 DWORD PTR __imp_??0?$basic_string@DU?$char_traits@D@std@@V?$allocator@D@2@@std@@QAE@ABV01@@Z
  01a3f	89 85 5c fc ff
	ff		 mov	 DWORD PTR tv158[ebp], eax
  01a45	8b 85 5c fc ff
	ff		 mov	 eax, DWORD PTR tv158[ebp]
  01a4b	89 85 58 fc ff
	ff		 mov	 DWORD PTR tv421[ebp], eax
  01a51	c6 45 fc 0c	 mov	 BYTE PTR __$EHRec$[ebp+8], 12 ; 0000000cH
  01a55	83 ec 1c	 sub	 esp, 28			; 0000001cH
  01a58	8b cc		 mov	 ecx, esp
  01a5a	89 a5 c0 fc ff
	ff		 mov	 DWORD PTR $T207721[ebp], esp
  01a60	8d 95 b0 fe ff
	ff		 lea	 edx, DWORD PTR _strPicLocalDesPath$[ebp]
  01a66	52		 push	 edx
  01a67	ff 15 00 00 00
	00		 call	 DWORD PTR __imp_??0?$basic_string@DU?$char_traits@D@std@@V?$allocator@D@2@@std@@QAE@ABV01@@Z
  01a6d	89 85 54 fc ff
	ff		 mov	 DWORD PTR tv155[ebp], eax
  01a73	8b 85 54 fc ff
	ff		 mov	 eax, DWORD PTR tv155[ebp]
  01a79	89 85 50 fc ff
	ff		 mov	 DWORD PTR tv424[ebp], eax
  01a7f	c6 45 fc 0d	 mov	 BYTE PTR __$EHRec$[ebp+8], 13 ; 0000000dH
  01a83	8b 8d 70 fc ff
	ff		 mov	 ecx, DWORD PTR _this$[ebp]
  01a89	83 c1 3c	 add	 ecx, 60			; 0000003cH
  01a8c	83 ec 1c	 sub	 esp, 28			; 0000001cH
  01a8f	8b d4		 mov	 edx, esp
  01a91	89 a5 bc fc ff
	ff		 mov	 DWORD PTR $T207722[ebp], esp
  01a97	51		 push	 ecx
  01a98	8b ca		 mov	 ecx, edx
  01a9a	ff 15 00 00 00
	00		 call	 DWORD PTR __imp_??0?$basic_string@DU?$char_traits@D@std@@V?$allocator@D@2@@std@@QAE@ABV01@@Z
  01aa0	89 85 4c fc ff
	ff		 mov	 DWORD PTR tv146[ebp], eax
  01aa6	8b 85 4c fc ff
	ff		 mov	 eax, DWORD PTR tv146[ebp]
  01aac	89 85 48 fc ff
	ff		 mov	 DWORD PTR tv427[ebp], eax
  01ab2	c6 45 fc 0e	 mov	 BYTE PTR __$EHRec$[ebp+8], 14 ; 0000000eH
  01ab6	83 ec 1c	 sub	 esp, 28			; 0000001cH
  01ab9	8b cc		 mov	 ecx, esp
  01abb	89 a5 b8 fc ff
	ff		 mov	 DWORD PTR $T207723[ebp], esp
  01ac1	8b 55 08	 mov	 edx, DWORD PTR _strID$[ebp]
  01ac4	52		 push	 edx
  01ac5	ff 15 00 00 00
	00		 call	 DWORD PTR __imp_??0?$basic_string@DU?$char_traits@D@std@@V?$allocator@D@2@@std@@QAE@ABV01@@Z
  01acb	89 85 44 fc ff
	ff		 mov	 DWORD PTR tv141[ebp], eax
  01ad1	8b 85 44 fc ff
	ff		 mov	 eax, DWORD PTR tv141[ebp]
  01ad7	89 85 40 fc ff
	ff		 mov	 DWORD PTR tv430[ebp], eax
  01add	c6 45 fc 0f	 mov	 BYTE PTR __$EHRec$[ebp+8], 15 ; 0000000fH
  01ae1	e8 00 00 00 00	 call	 ?AfxGetDataManager2@@YAPAVIDataManager@@XZ ; AfxGetDataManager2
  01ae6	89 85 3c fc ff
	ff		 mov	 DWORD PTR tv202[ebp], eax
  01aec	68 00 00 00 00	 push	 OFFSET FLAT:_ID_DATA_LOCALGAME
  01af1	8b 8d 3c fc ff
	ff		 mov	 ecx, DWORD PTR tv202[ebp]
  01af7	8b 11		 mov	 edx, DWORD PTR [ecx]
  01af9	8b 8d 3c fc ff
	ff		 mov	 ecx, DWORD PTR tv202[ebp]
  01aff	ff 52 0c	 call	 DWORD PTR [edx+12]
  01b02	89 85 38 fc ff
	ff		 mov	 DWORD PTR tv208[ebp], eax
  01b08	8b 85 38 fc ff
	ff		 mov	 eax, DWORD PTR tv208[ebp]
  01b0e	8b 10		 mov	 edx, DWORD PTR [eax]
  01b10	c6 45 fc 08	 mov	 BYTE PTR __$EHRec$[ebp+8], 8
  01b14	8b 8d 38 fc ff
	ff		 mov	 ecx, DWORD PTR tv208[ebp]
  01b1a	ff 52 10	 call	 DWORD PTR [edx+16]

; 305  : 
; 306  : 	OneLocalGame olg;

  01b1d	8d 8d f4 fd ff
	ff		 lea	 ecx, DWORD PTR _olg$[ebp]
  01b23	e8 00 00 00 00	 call	 ??0OneLocalGame@@QAE@XZ	; OneLocalGame::OneLocalGame
  01b28	c6 45 fc 10	 mov	 BYTE PTR __$EHRec$[ebp+8], 16 ; 00000010H

; 307  : 	GLOBAL_LOCALGAME->ILocalGameData_GetGameByID( strID, olg );

  01b2c	8d 85 f4 fd ff
	ff		 lea	 eax, DWORD PTR _olg$[ebp]
  01b32	50		 push	 eax
  01b33	83 ec 1c	 sub	 esp, 28			; 0000001cH
  01b36	8b cc		 mov	 ecx, esp
  01b38	89 a5 b4 fc ff
	ff		 mov	 DWORD PTR $T207724[ebp], esp
  01b3e	8b 55 08	 mov	 edx, DWORD PTR _strID$[ebp]
  01b41	52		 push	 edx
  01b42	ff 15 00 00 00
	00		 call	 DWORD PTR __imp_??0?$basic_string@DU?$char_traits@D@std@@V?$allocator@D@2@@std@@QAE@ABV01@@Z
  01b48	89 85 34 fc ff
	ff		 mov	 DWORD PTR tv298[ebp], eax
  01b4e	8b 85 34 fc ff
	ff		 mov	 eax, DWORD PTR tv298[ebp]
  01b54	89 85 30 fc ff
	ff		 mov	 DWORD PTR tv434[ebp], eax
  01b5a	c6 45 fc 11	 mov	 BYTE PTR __$EHRec$[ebp+8], 17 ; 00000011H
  01b5e	e8 00 00 00 00	 call	 ?AfxGetDataManager2@@YAPAVIDataManager@@XZ ; AfxGetDataManager2
  01b63	89 85 2c fc ff
	ff		 mov	 DWORD PTR tv302[ebp], eax
  01b69	68 00 00 00 00	 push	 OFFSET FLAT:_ID_DATA_LOCALGAME
  01b6e	8b 8d 2c fc ff
	ff		 mov	 ecx, DWORD PTR tv302[ebp]
  01b74	8b 11		 mov	 edx, DWORD PTR [ecx]
  01b76	8b 8d 2c fc ff
	ff		 mov	 ecx, DWORD PTR tv302[ebp]
  01b7c	ff 52 0c	 call	 DWORD PTR [edx+12]
  01b7f	89 85 28 fc ff
	ff		 mov	 DWORD PTR tv308[ebp], eax
  01b85	8b 85 28 fc ff
	ff		 mov	 eax, DWORD PTR tv308[ebp]
  01b8b	8b 10		 mov	 edx, DWORD PTR [eax]
  01b8d	c6 45 fc 10	 mov	 BYTE PTR __$EHRec$[ebp+8], 16 ; 00000010H
  01b91	8b 8d 28 fc ff
	ff		 mov	 ecx, DWORD PTR tv308[ebp]
  01b97	ff 52 0c	 call	 DWORD PTR [edx+12]

; 308  : 
; 309  : 	PlayMovie( olg.strID, olg.strGamePath );

  01b9a	83 ec 1c	 sub	 esp, 28			; 0000001cH
  01b9d	8b cc		 mov	 ecx, esp
  01b9f	89 a5 b0 fc ff
	ff		 mov	 DWORD PTR $T207725[ebp], esp
  01ba5	8d 85 2c fe ff
	ff		 lea	 eax, DWORD PTR _olg$[ebp+56]
  01bab	50		 push	 eax
  01bac	ff 15 00 00 00
	00		 call	 DWORD PTR __imp_??0?$basic_string@DU?$char_traits@D@std@@V?$allocator@D@2@@std@@QAE@ABV01@@Z
  01bb2	89 85 24 fc ff
	ff		 mov	 DWORD PTR tv94[ebp], eax
  01bb8	8b 8d 24 fc ff
	ff		 mov	 ecx, DWORD PTR tv94[ebp]
  01bbe	89 8d 20 fc ff
	ff		 mov	 DWORD PTR tv436[ebp], ecx
  01bc4	c6 45 fc 12	 mov	 BYTE PTR __$EHRec$[ebp+8], 18 ; 00000012H
  01bc8	83 ec 1c	 sub	 esp, 28			; 0000001cH
  01bcb	8b cc		 mov	 ecx, esp
  01bcd	89 a5 ac fc ff
	ff		 mov	 DWORD PTR $T207726[ebp], esp
  01bd3	8d 95 f4 fd ff
	ff		 lea	 edx, DWORD PTR _olg$[ebp]
  01bd9	52		 push	 edx
  01bda	ff 15 00 00 00
	00		 call	 DWORD PTR __imp_??0?$basic_string@DU?$char_traits@D@std@@V?$allocator@D@2@@std@@QAE@ABV01@@Z
  01be0	89 85 1c fc ff
	ff		 mov	 DWORD PTR tv439[ebp], eax
  01be6	8b 8d 70 fc ff
	ff		 mov	 ecx, DWORD PTR _this$[ebp]
  01bec	83 e9 58	 sub	 ecx, 88			; 00000058H
  01bef	c6 45 fc 10	 mov	 BYTE PTR __$EHRec$[ebp+8], 16 ; 00000010H
  01bf3	e8 00 00 00 00	 call	 ?PlayMovie@GamePanelWnd@@QAEXV?$basic_string@DU?$char_traits@D@std@@V?$allocator@D@2@@std@@0@Z ; GamePanelWnd::PlayMovie

; 310  : 	m_bDown = false;

  01bf8	8b 85 70 fc ff
	ff		 mov	 eax, DWORD PTR _this$[ebp]
  01bfe	c6 40 1c 00	 mov	 BYTE PTR [eax+28], 0

; 311  : 	UpdateAllWnd();

  01c02	8b 8d 70 fc ff
	ff		 mov	 ecx, DWORD PTR _this$[ebp]
  01c08	83 e9 58	 sub	 ecx, 88			; 00000058H
  01c0b	e8 00 00 00 00	 call	 ?UpdateAllWnd@GamePanelWnd@@QAEXXZ ; GamePanelWnd::UpdateAllWnd

; 312  : 	YL_Log("GamePanelWnd.txt", LOG_DEBUG, "GamePanelWnd::HttpDownOb_DownFinish", "===OUT");

  01c10	68 00 00 00 00	 push	 OFFSET FLAT:$SG204682
  01c15	8d 8d 90 fc ff
	ff		 lea	 ecx, DWORD PTR $T207727[ebp]
  01c1b	ff 15 00 00 00
	00		 call	 DWORD PTR __imp_??0?$basic_string@DU?$char_traits@D@std@@V?$allocator@D@2@@std@@QAE@PBD@Z
  01c21	c6 45 fc 13	 mov	 BYTE PTR __$EHRec$[ebp+8], 19 ; 00000013H
  01c25	68 00 00 00 00	 push	 OFFSET FLAT:$SG204683
  01c2a	8d 8d 74 fc ff
	ff		 lea	 ecx, DWORD PTR $T207728[ebp]
  01c30	ff 15 00 00 00
	00		 call	 DWORD PTR __imp_??0?$basic_string@DU?$char_traits@D@std@@V?$allocator@D@2@@std@@QAE@PBD@Z
  01c36	c6 45 fc 14	 mov	 BYTE PTR __$EHRec$[ebp+8], 20 ; 00000014H
  01c3a	68 00 00 00 00	 push	 OFFSET FLAT:$SG204681
  01c3f	8d 8d 90 fc ff
	ff		 lea	 ecx, DWORD PTR $T207727[ebp]
  01c45	51		 push	 ecx
  01c46	6a 00		 push	 0
  01c48	8d 95 74 fc ff
	ff		 lea	 edx, DWORD PTR $T207728[ebp]
  01c4e	52		 push	 edx
  01c4f	ff 15 00 00 00
	00		 call	 DWORD PTR __imp_?YL_Log@@YAXABV?$basic_string@DU?$char_traits@D@std@@V?$allocator@D@2@@std@@H0PBDZZ
  01c55	83 c4 10	 add	 esp, 16			; 00000010H
  01c58	c6 45 fc 13	 mov	 BYTE PTR __$EHRec$[ebp+8], 19 ; 00000013H
  01c5c	8d 8d 74 fc ff
	ff		 lea	 ecx, DWORD PTR $T207728[ebp]
  01c62	ff 15 00 00 00
	00		 call	 DWORD PTR __imp_??1?$basic_string@DU?$char_traits@D@std@@V?$allocator@D@2@@std@@QAE@XZ
  01c68	c6 45 fc 10	 mov	 BYTE PTR __$EHRec$[ebp+8], 16 ; 00000010H
  01c6c	8d 8d 90 fc ff
	ff		 lea	 ecx, DWORD PTR $T207727[ebp]
  01c72	ff 15 00 00 00
	00		 call	 DWORD PTR __imp_??1?$basic_string@DU?$char_traits@D@std@@V?$allocator@D@2@@std@@QAE@XZ

; 313  : }

  01c78	c6 45 fc 08	 mov	 BYTE PTR __$EHRec$[ebp+8], 8
  01c7c	8d 8d f4 fd ff
	ff		 lea	 ecx, DWORD PTR _olg$[ebp]
  01c82	e8 00 00 00 00	 call	 ??1OneLocalGame@@QAE@XZ
  01c87	c6 45 fc 07	 mov	 BYTE PTR __$EHRec$[ebp+8], 7
  01c8b	8d 8d 84 fe ff
	ff		 lea	 ecx, DWORD PTR _strPicDirPath$[ebp]
  01c91	ff 15 00 00 00
	00		 call	 DWORD PTR __imp_??1?$basic_string@DU?$char_traits@D@std@@V?$allocator@D@2@@std@@QAE@XZ
  01c97	c6 45 fc 06	 mov	 BYTE PTR __$EHRec$[ebp+8], 6
  01c9b	8d 4d d4	 lea	 ecx, DWORD PTR _strPicFormat$[ebp]
  01c9e	ff 15 00 00 00
	00		 call	 DWORD PTR __imp_??1?$basic_string@DU?$char_traits@D@std@@V?$allocator@D@2@@std@@QAE@XZ
  01ca4	c6 45 fc 02	 mov	 BYTE PTR __$EHRec$[ebp+8], 2
  01ca8	8d 8d b0 fe ff
	ff		 lea	 ecx, DWORD PTR _strPicLocalDesPath$[ebp]
  01cae	ff 15 00 00 00
	00		 call	 DWORD PTR __imp_??1?$basic_string@DU?$char_traits@D@std@@V?$allocator@D@2@@std@@QAE@XZ
  01cb4	c7 45 fc ff ff
	ff ff		 mov	 DWORD PTR __$EHRec$[ebp+8], -1
  01cbb	8d 8d a0 fe ff
	ff		 lea	 ecx, DWORD PTR _vecText$[ebp]
  01cc1	e8 00 00 00 00	 call	 ??1?$vector@V?$basic_string@DU?$char_traits@D@std@@V?$allocator@D@2@@std@@V?$allocator@V?$basic_string@DU?$char_traits@D@std@@V?$allocator@D@2@@std@@@2@@std@@QAE@XZ ; std::vector<std::basic_string<char,std::char_traits<char>,std::allocator<char> >,std::allocator<std::basic_string<char,std::char_traits<char>,std::allocator<char> > > >::~vector<std::basic_string<char,std::char_traits<char>,std::allocator<char> >,std::allocator<std::basic_string<char,std::char_traits<char>,std::allocator<char> > > >
$L204644:
  01cc6	8b 4d f4	 mov	 ecx, DWORD PTR __$EHRec$[ebp]
  01cc9	64 89 0d 00 00
	00 00		 mov	 DWORD PTR fs:__except_list, ecx
  01cd0	8b 4d f0	 mov	 ecx, DWORD PTR __$ArrayPad$[ebp]
  01cd3	e8 00 00 00 00	 call	 @__security_check_cookie@4
  01cd8	8b e5		 mov	 esp, ebp
  01cda	5d		 pop	 ebp
  01cdb	c2 08 00	 ret	 8
_TEXT	ENDS
text$x	SEGMENT
$L207729:
  00313	8d 8d 40 fd ff
	ff		 lea	 ecx, DWORD PTR $T207713[ebp]
  00319	ff 25 00 00 00
	00		 jmp	 DWORD PTR __imp_??1?$basic_string@DU?$char_traits@D@std@@V?$allocator@D@2@@std@@QAE@XZ
$L207730:
  0031f	8d 8d 24 fd ff
	ff		 lea	 ecx, DWORD PTR $T207714[ebp]
  00325	ff 25 00 00 00
	00		 jmp	 DWORD PTR __imp_??1?$basic_string@DU?$char_traits@D@std@@V?$allocator@D@2@@std@@QAE@XZ
$L207731:
  0032b	8d 8d a0 fe ff
	ff		 lea	 ecx, DWORD PTR _vecText$[ebp]
  00331	e9 00 00 00 00	 jmp	 ??1?$vector@V?$basic_string@DU?$char_traits@D@std@@V?$allocator@D@2@@std@@V?$allocator@V?$basic_string@DU?$char_traits@D@std@@V?$allocator@D@2@@std@@@2@@std@@QAE@XZ ; std::vector<std::basic_string<char,std::char_traits<char>,std::allocator<char> >,std::allocator<std::basic_string<char,std::char_traits<char>,std::allocator<char> > > >::~vector<std::basic_string<char,std::char_traits<char>,std::allocator<char> >,std::allocator<std::basic_string<char,std::char_traits<char>,std::allocator<char> > > >
$L207732:
  00336	8d 8d 08 fd ff
	ff		 lea	 ecx, DWORD PTR $T207715[ebp]
  0033c	ff 25 00 00 00
	00		 jmp	 DWORD PTR __imp_??1?$basic_string@DU?$char_traits@D@std@@V?$allocator@D@2@@std@@QAE@XZ
$L207733:
  00342	8d 8d ec fc ff
	ff		 lea	 ecx, DWORD PTR $T207716[ebp]
  00348	ff 25 00 00 00
	00		 jmp	 DWORD PTR __imp_??1?$basic_string@DU?$char_traits@D@std@@V?$allocator@D@2@@std@@QAE@XZ
$L207734:
  0034e	8d 8d d0 fc ff
	ff		 lea	 ecx, DWORD PTR $T207717[ebp]
  00354	ff 25 00 00 00
	00		 jmp	 DWORD PTR __imp_??1?$basic_string@DU?$char_traits@D@std@@V?$allocator@D@2@@std@@QAE@XZ
$L207735:
  0035a	8d 8d b0 fe ff
	ff		 lea	 ecx, DWORD PTR _strPicLocalDesPath$[ebp]
  00360	ff 25 00 00 00
	00		 jmp	 DWORD PTR __imp_??1?$basic_string@DU?$char_traits@D@std@@V?$allocator@D@2@@std@@QAE@XZ
$L207736:
  00366	8d 4d d4	 lea	 ecx, DWORD PTR _strPicFormat$[ebp]
  00369	ff 25 00 00 00
	00		 jmp	 DWORD PTR __imp_??1?$basic_string@DU?$char_traits@D@std@@V?$allocator@D@2@@std@@QAE@XZ
$L207737:
  0036f	8d 8d 84 fe ff
	ff		 lea	 ecx, DWORD PTR _strPicDirPath$[ebp]
  00375	ff 25 00 00 00
	00		 jmp	 DWORD PTR __imp_??1?$basic_string@DU?$char_traits@D@std@@V?$allocator@D@2@@std@@QAE@XZ
$L207738:
  0037b	8d 8d 5c fd ff
	ff		 lea	 ecx, DWORD PTR _httpDownFile$204665[ebp]
  00381	ff 25 00 00 00
	00		 jmp	 DWORD PTR __imp_??1YL_CHTTPDownFile@@QAE@XZ
$L207739:
  00387	8b 8d cc fc ff
	ff		 mov	 ecx, DWORD PTR $T207718[ebp]
  0038d	ff 25 00 00 00
	00		 jmp	 DWORD PTR __imp_??1?$basic_string@DU?$char_traits@D@std@@V?$allocator@D@2@@std@@QAE@XZ
$L207740:
  00393	8b 8d c8 fc ff
	ff		 mov	 ecx, DWORD PTR $T207719[ebp]
  00399	ff 25 00 00 00
	00		 jmp	 DWORD PTR __imp_??1?$basic_string@DU?$char_traits@D@std@@V?$allocator@D@2@@std@@QAE@XZ
$L207741:
  0039f	8b 8d c4 fc ff
	ff		 mov	 ecx, DWORD PTR $T207720[ebp]
  003a5	ff 25 00 00 00
	00		 jmp	 DWORD PTR __imp_??1?$basic_string@DU?$char_traits@D@std@@V?$allocator@D@2@@std@@QAE@XZ
$L207742:
  003ab	8b 8d c0 fc ff
	ff		 mov	 ecx, DWORD PTR $T207721[ebp]
  003b1	ff 25 00 00 00
	00		 jmp	 DWORD PTR __imp_??1?$basic_string@DU?$char_traits@D@std@@V?$allocator@D@2@@std@@QAE@XZ
$L207743:
  003b7	8b 8d bc fc ff
	ff		 mov	 ecx, DWORD PTR $T207722[ebp]
  003bd	ff 25 00 00 00
	00		 jmp	 DWORD PTR __imp_??1?$basic_string@DU?$char_traits@D@std@@V?$allocator@D@2@@std@@QAE@XZ
$L207744:
  003c3	8b 8d b8 fc ff
	ff		 mov	 ecx, DWORD PTR $T207723[ebp]
  003c9	ff 25 00 00 00
	00		 jmp	 DWORD PTR __imp_??1?$basic_string@DU?$char_traits@D@std@@V?$allocator@D@2@@std@@QAE@XZ
$L207745:
  003cf	8d 8d f4 fd ff
	ff		 lea	 ecx, DWORD PTR _olg$[ebp]
  003d5	e9 00 00 00 00	 jmp	 ??1OneLocalGame@@QAE@XZ
$L207746:
  003da	8b 8d b4 fc ff
	ff		 mov	 ecx, DWORD PTR $T207724[ebp]
  003e0	ff 25 00 00 00
	00		 jmp	 DWORD PTR __imp_??1?$basic_string@DU?$char_traits@D@std@@V?$allocator@D@2@@std@@QAE@XZ
$L207747:
  003e6	8b 8d b0 fc ff
	ff		 mov	 ecx, DWORD PTR $T207725[ebp]
  003ec	ff 25 00 00 00
	00		 jmp	 DWORD PTR __imp_??1?$basic_string@DU?$char_traits@D@std@@V?$allocator@D@2@@std@@QAE@XZ
$L207749:
  003f2	8d 8d 90 fc ff
	ff		 lea	 ecx, DWORD PTR $T207727[ebp]
  003f8	ff 25 00 00 00
	00		 jmp	 DWORD PTR __imp_??1?$basic_string@DU?$char_traits@D@std@@V?$allocator@D@2@@std@@QAE@XZ
$L207750:
  003fe	8d 8d 74 fc ff
	ff		 lea	 ecx, DWORD PTR $T207728[ebp]
  00404	ff 25 00 00 00
	00		 jmp	 DWORD PTR __imp_??1?$basic_string@DU?$char_traits@D@std@@V?$allocator@D@2@@std@@QAE@XZ
__ehhandler$?HttpDownOb_DownFinish@GamePanelWnd@@UAEXAAV?$basic_string@DU?$char_traits@D@std@@V?$allocator@D@2@@std@@0@Z:
  0040a	b8 00 00 00 00	 mov	 eax, OFFSET FLAT:$T207752
  0040f	e9 00 00 00 00	 jmp	 ___CxxFrameHandler
text$x	ENDS
?HttpDownOb_DownFinish@GamePanelWnd@@UAEXAAV?$basic_string@DU?$char_traits@D@std@@V?$allocator@D@2@@std@@0@Z ENDP ; GamePanelWnd::HttpDownOb_DownFinish
PUBLIC	?clear@OneLocalGame@@QAEXXZ			; OneLocalGame::clear
;	COMDAT xdata$x
; File d:\boxgit\playbox\playbox\dev\prj\playbox\src\datainterface\ilocalgamedata.h
xdata$x	SEGMENT
$T207767 DD	0ffffffffH
	DD	FLAT:$L207759
	DD	00H
	DD	FLAT:$L207760
	DD	01H
	DD	FLAT:$L207761
	DD	02H
	DD	FLAT:$L207762
	DD	03H
	DD	FLAT:$L207763
$T207765 DD	019930520H
	DD	05H
	DD	FLAT:$T207767
	DD	2 DUP(00H)
	DD	2 DUP(00H)
; Function compile flags: /Odt
xdata$x	ENDS
;	COMDAT ??0OneLocalGame@@QAE@XZ
_TEXT	SEGMENT
_this$ = -16						; size = 4
__$EHRec$ = -12						; size = 12
??0OneLocalGame@@QAE@XZ PROC NEAR			; OneLocalGame::OneLocalGame, COMDAT
; _this$ = ecx

; 20   : 	OneLocalGame()

  00000	55		 push	 ebp
  00001	8b ec		 mov	 ebp, esp
  00003	6a ff		 push	 -1
  00005	68 00 00 00 00	 push	 __ehhandler$??0OneLocalGame@@QAE@XZ
  0000a	64 a1 00 00 00
	00		 mov	 eax, DWORD PTR fs:__except_list
  00010	50		 push	 eax
  00011	64 89 25 00 00
	00 00		 mov	 DWORD PTR fs:__except_list, esp
  00018	51		 push	 ecx
  00019	89 4d f0	 mov	 DWORD PTR _this$[ebp], ecx
  0001c	8b 4d f0	 mov	 ecx, DWORD PTR _this$[ebp]
  0001f	ff 15 00 00 00
	00		 call	 DWORD PTR __imp_??0?$basic_string@DU?$char_traits@D@std@@V?$allocator@D@2@@std@@QAE@XZ
  00025	c7 45 fc 00 00
	00 00		 mov	 DWORD PTR __$EHRec$[ebp+8], 0
  0002c	8b 4d f0	 mov	 ecx, DWORD PTR _this$[ebp]
  0002f	83 c1 1c	 add	 ecx, 28			; 0000001cH
  00032	ff 15 00 00 00
	00		 call	 DWORD PTR __imp_??0?$basic_string@DU?$char_traits@D@std@@V?$allocator@D@2@@std@@QAE@XZ
  00038	c6 45 fc 01	 mov	 BYTE PTR __$EHRec$[ebp+8], 1
  0003c	8b 4d f0	 mov	 ecx, DWORD PTR _this$[ebp]
  0003f	83 c1 38	 add	 ecx, 56			; 00000038H
  00042	ff 15 00 00 00
	00		 call	 DWORD PTR __imp_??0?$basic_string@DU?$char_traits@D@std@@V?$allocator@D@2@@std@@QAE@XZ
  00048	c6 45 fc 02	 mov	 BYTE PTR __$EHRec$[ebp+8], 2
  0004c	8b 4d f0	 mov	 ecx, DWORD PTR _this$[ebp]
  0004f	83 c1 54	 add	 ecx, 84			; 00000054H
  00052	ff 15 00 00 00
	00		 call	 DWORD PTR __imp_??0?$basic_string@DU?$char_traits@D@std@@V?$allocator@D@2@@std@@QAE@XZ
  00058	c6 45 fc 03	 mov	 BYTE PTR __$EHRec$[ebp+8], 3
  0005c	8b 4d f0	 mov	 ecx, DWORD PTR _this$[ebp]
  0005f	83 c1 70	 add	 ecx, 112		; 00000070H
  00062	ff 15 00 00 00
	00		 call	 DWORD PTR __imp_??0?$basic_string@DU?$char_traits@D@std@@V?$allocator@D@2@@std@@QAE@XZ
  00068	c6 45 fc 04	 mov	 BYTE PTR __$EHRec$[ebp+8], 4

; 21   : 	{
; 22   : 		clear();

  0006c	8b 4d f0	 mov	 ecx, DWORD PTR _this$[ebp]
  0006f	e8 00 00 00 00	 call	 ?clear@OneLocalGame@@QAEXXZ ; OneLocalGame::clear

; 23   : 	}

  00074	c7 45 fc ff ff
	ff ff		 mov	 DWORD PTR __$EHRec$[ebp+8], -1
  0007b	8b 45 f0	 mov	 eax, DWORD PTR _this$[ebp]
  0007e	8b 4d f4	 mov	 ecx, DWORD PTR __$EHRec$[ebp]
  00081	64 89 0d 00 00
	00 00		 mov	 DWORD PTR fs:__except_list, ecx
  00088	8b e5		 mov	 esp, ebp
  0008a	5d		 pop	 ebp
  0008b	c3		 ret	 0
_TEXT	ENDS
;	COMDAT text$x
text$x	SEGMENT
$L207759:
  00000	8b 4d f0	 mov	 ecx, DWORD PTR _this$[ebp]
  00003	ff 25 00 00 00
	00		 jmp	 DWORD PTR __imp_??1?$basic_string@DU?$char_traits@D@std@@V?$allocator@D@2@@std@@QAE@XZ
$L207760:
  00009	8b 4d f0	 mov	 ecx, DWORD PTR _this$[ebp]
  0000c	83 c1 1c	 add	 ecx, 28			; 0000001cH
  0000f	ff 25 00 00 00
	00		 jmp	 DWORD PTR __imp_??1?$basic_string@DU?$char_traits@D@std@@V?$allocator@D@2@@std@@QAE@XZ
$L207761:
  00015	8b 4d f0	 mov	 ecx, DWORD PTR _this$[ebp]
  00018	83 c1 38	 add	 ecx, 56			; 00000038H
  0001b	ff 25 00 00 00
	00		 jmp	 DWORD PTR __imp_??1?$basic_string@DU?$char_traits@D@std@@V?$allocator@D@2@@std@@QAE@XZ
$L207762:
  00021	8b 4d f0	 mov	 ecx, DWORD PTR _this$[ebp]
  00024	83 c1 54	 add	 ecx, 84			; 00000054H
  00027	ff 25 00 00 00
	00		 jmp	 DWORD PTR __imp_??1?$basic_string@DU?$char_traits@D@std@@V?$allocator@D@2@@std@@QAE@XZ
$L207763:
  0002d	8b 4d f0	 mov	 ecx, DWORD PTR _this$[ebp]
  00030	83 c1 70	 add	 ecx, 112		; 00000070H
  00033	ff 25 00 00 00
	00		 jmp	 DWORD PTR __imp_??1?$basic_string@DU?$char_traits@D@std@@V?$allocator@D@2@@std@@QAE@XZ
__ehhandler$??0OneLocalGame@@QAE@XZ:
  00039	b8 00 00 00 00	 mov	 eax, OFFSET FLAT:$T207765
  0003e	e9 00 00 00 00	 jmp	 ___CxxFrameHandler
text$x	ENDS
??0OneLocalGame@@QAE@XZ ENDP				; OneLocalGame::OneLocalGame
; Function compile flags: /Odt
;	COMDAT ?clear@OneLocalGame@@QAEXXZ
_TEXT	SEGMENT
_this$ = -4						; size = 4
?clear@OneLocalGame@@QAEXXZ PROC NEAR			; OneLocalGame::clear, COMDAT
; _this$ = ecx

; 25   : 	{

  00000	55		 push	 ebp
  00001	8b ec		 mov	 ebp, esp
  00003	51		 push	 ecx
  00004	89 4d fc	 mov	 DWORD PTR _this$[ebp], ecx

; 26   : 		strID.clear();

  00007	8b 4d fc	 mov	 ecx, DWORD PTR _this$[ebp]
  0000a	ff 15 00 00 00
	00		 call	 DWORD PTR __imp_?clear@?$basic_string@DU?$char_traits@D@std@@V?$allocator@D@2@@std@@QAEXXZ

; 27   : 		strName.clear();

  00010	8b 4d fc	 mov	 ecx, DWORD PTR _this$[ebp]
  00013	83 c1 1c	 add	 ecx, 28			; 0000001cH
  00016	ff 15 00 00 00
	00		 call	 DWORD PTR __imp_?clear@?$basic_string@DU?$char_traits@D@std@@V?$allocator@D@2@@std@@QAEXXZ

; 28   : 		strGamePath.clear();

  0001c	8b 4d fc	 mov	 ecx, DWORD PTR _this$[ebp]
  0001f	83 c1 38	 add	 ecx, 56			; 00000038H
  00022	ff 15 00 00 00
	00		 call	 DWORD PTR __imp_?clear@?$basic_string@DU?$char_traits@D@std@@V?$allocator@D@2@@std@@QAEXXZ

; 29   : 		strPicPath.clear();

  00028	8b 4d fc	 mov	 ecx, DWORD PTR _this$[ebp]
  0002b	83 c1 54	 add	 ecx, 84			; 00000054H
  0002e	ff 15 00 00 00
	00		 call	 DWORD PTR __imp_?clear@?$basic_string@DU?$char_traits@D@std@@V?$allocator@D@2@@std@@QAEXXZ

; 30   : 		strIntro.clear();

  00034	8b 4d fc	 mov	 ecx, DWORD PTR _this$[ebp]
  00037	83 c1 70	 add	 ecx, 112		; 00000070H
  0003a	ff 15 00 00 00
	00		 call	 DWORD PTR __imp_?clear@?$basic_string@DU?$char_traits@D@std@@V?$allocator@D@2@@std@@QAEXXZ

; 31   : 		uiFileSize    = 0;

  00040	8b 45 fc	 mov	 eax, DWORD PTR _this$[ebp]
  00043	c7 80 8c 00 00
	00 00 00 00 00	 mov	 DWORD PTR [eax+140], 0

; 32   : 	}

  0004d	8b e5		 mov	 esp, ebp
  0004f	5d		 pop	 ebp
  00050	c3		 ret	 0
?clear@OneLocalGame@@QAEXXZ ENDP			; OneLocalGame::clear
_TEXT	ENDS
;	COMDAT xdata$x
xdata$x	SEGMENT
$T207782 DD	0ffffffffH
	DD	FLAT:$L207774
	DD	00H
	DD	FLAT:$L207775
	DD	01H
	DD	FLAT:$L207776
	DD	02H
	DD	FLAT:$L207777
$T207780 DD	019930520H
	DD	04H
	DD	FLAT:$T207782
	DD	2 DUP(00H)
	DD	2 DUP(00H)
; Function compile flags: /Odt
xdata$x	ENDS
;	COMDAT ??1OneLocalGame@@QAE@XZ
_TEXT	SEGMENT
_this$ = -16						; size = 4
__$EHRec$ = -12						; size = 12
??1OneLocalGame@@QAE@XZ PROC NEAR			; OneLocalGame::~OneLocalGame, COMDAT
; _this$ = ecx
  00000	55		 push	 ebp
  00001	8b ec		 mov	 ebp, esp
  00003	6a ff		 push	 -1
  00005	68 00 00 00 00	 push	 __ehhandler$??1OneLocalGame@@QAE@XZ
  0000a	64 a1 00 00 00
	00		 mov	 eax, DWORD PTR fs:__except_list
  00010	50		 push	 eax
  00011	64 89 25 00 00
	00 00		 mov	 DWORD PTR fs:__except_list, esp
  00018	51		 push	 ecx
  00019	89 4d f0	 mov	 DWORD PTR _this$[ebp], ecx
  0001c	c7 45 fc 03 00
	00 00		 mov	 DWORD PTR __$EHRec$[ebp+8], 3
  00023	8b 4d f0	 mov	 ecx, DWORD PTR _this$[ebp]
  00026	83 c1 70	 add	 ecx, 112		; 00000070H
  00029	ff 15 00 00 00
	00		 call	 DWORD PTR __imp_??1?$basic_string@DU?$char_traits@D@std@@V?$allocator@D@2@@std@@QAE@XZ
  0002f	c6 45 fc 02	 mov	 BYTE PTR __$EHRec$[ebp+8], 2
  00033	8b 4d f0	 mov	 ecx, DWORD PTR _this$[ebp]
  00036	83 c1 54	 add	 ecx, 84			; 00000054H
  00039	ff 15 00 00 00
	00		 call	 DWORD PTR __imp_??1?$basic_string@DU?$char_traits@D@std@@V?$allocator@D@2@@std@@QAE@XZ
  0003f	c6 45 fc 01	 mov	 BYTE PTR __$EHRec$[ebp+8], 1
  00043	8b 4d f0	 mov	 ecx, DWORD PTR _this$[ebp]
  00046	83 c1 38	 add	 ecx, 56			; 00000038H
  00049	ff 15 00 00 00
	00		 call	 DWORD PTR __imp_??1?$basic_string@DU?$char_traits@D@std@@V?$allocator@D@2@@std@@QAE@XZ
  0004f	c6 45 fc 00	 mov	 BYTE PTR __$EHRec$[ebp+8], 0
  00053	8b 4d f0	 mov	 ecx, DWORD PTR _this$[ebp]
  00056	83 c1 1c	 add	 ecx, 28			; 0000001cH
  00059	ff 15 00 00 00
	00		 call	 DWORD PTR __imp_??1?$basic_string@DU?$char_traits@D@std@@V?$allocator@D@2@@std@@QAE@XZ
  0005f	c7 45 fc ff ff
	ff ff		 mov	 DWORD PTR __$EHRec$[ebp+8], -1
  00066	8b 4d f0	 mov	 ecx, DWORD PTR _this$[ebp]
  00069	ff 15 00 00 00
	00		 call	 DWORD PTR __imp_??1?$basic_string@DU?$char_traits@D@std@@V?$allocator@D@2@@std@@QAE@XZ
  0006f	8b 4d f4	 mov	 ecx, DWORD PTR __$EHRec$[ebp]
  00072	64 89 0d 00 00
	00 00		 mov	 DWORD PTR fs:__except_list, ecx
  00079	8b e5		 mov	 esp, ebp
  0007b	5d		 pop	 ebp
  0007c	c3		 ret	 0
_TEXT	ENDS
;	COMDAT text$x
text$x	SEGMENT
$L207774:
  00000	8b 4d f0	 mov	 ecx, DWORD PTR _this$[ebp]
  00003	ff 25 00 00 00
	00		 jmp	 DWORD PTR __imp_??1?$basic_string@DU?$char_traits@D@std@@V?$allocator@D@2@@std@@QAE@XZ
$L207775:
  00009	8b 4d f0	 mov	 ecx, DWORD PTR _this$[ebp]
  0000c	83 c1 1c	 add	 ecx, 28			; 0000001cH
  0000f	ff 25 00 00 00
	00		 jmp	 DWORD PTR __imp_??1?$basic_string@DU?$char_traits@D@std@@V?$allocator@D@2@@std@@QAE@XZ
$L207776:
  00015	8b 4d f0	 mov	 ecx, DWORD PTR _this$[ebp]
  00018	83 c1 38	 add	 ecx, 56			; 00000038H
  0001b	ff 25 00 00 00
	00		 jmp	 DWORD PTR __imp_??1?$basic_string@DU?$char_traits@D@std@@V?$allocator@D@2@@std@@QAE@XZ
$L207777:
  00021	8b 4d f0	 mov	 ecx, DWORD PTR _this$[ebp]
  00024	83 c1 54	 add	 ecx, 84			; 00000054H
  00027	ff 25 00 00 00
	00		 jmp	 DWORD PTR __imp_??1?$basic_string@DU?$char_traits@D@std@@V?$allocator@D@2@@std@@QAE@XZ
__ehhandler$??1OneLocalGame@@QAE@XZ:
  0002d	b8 00 00 00 00	 mov	 eax, OFFSET FLAT:$T207780
  00032	e9 00 00 00 00	 jmp	 ___CxxFrameHandler
text$x	ENDS
??1OneLocalGame@@QAE@XZ ENDP				; OneLocalGame::~OneLocalGame
EXTRN	?GetConfigStringValue@AfxUserConfig@@QAEXABV?$basic_string@DU?$char_traits@D@std@@V?$allocator@D@2@@std@@0AAV23@@Z:NEAR ; AfxUserConfig::GetConfigStringValue
EXTRN	__imp_??4?$basic_string@DU?$char_traits@D@std@@V?$allocator@D@2@@std@@QAEAAV01@PBD@Z:NEAR
EXTRN	__imp_??Y?$basic_string@DU?$char_traits@D@std@@V?$allocator@D@2@@std@@QAEAAV01@ABV01@@Z:NEAR
xdata$x	SEGMENT
$T207814 DD	0ffffffffH
	DD	FLAT:$L207796
	DD	00H
	DD	FLAT:$L207797
	DD	0ffffffffH
	DD	FLAT:$L207798
	DD	02H
	DD	FLAT:$L207799
	DD	03H
	DD	FLAT:$L207800
	DD	04H
	DD	FLAT:$L207801
	DD	05H
	DD	FLAT:$L207802
	DD	03H
	DD	FLAT:$L207803
	DD	07H
	DD	FLAT:$L207804
	DD	08H
	DD	FLAT:$L207805
	DD	03H
	DD	FLAT:$L207806
	DD	0aH
	DD	FLAT:$L207807
	DD	0bH
	DD	FLAT:$L207808
$T207810 DD	019930520H
	DD	0dH
	DD	FLAT:$T207814
	DD	2 DUP(00H)
	DD	2 DUP(00H)
; Function compile flags: /Odt
; File d:\boxgit\playbox\playbox\dev\prj\playbox\src\module\gamepanel\gamepanelwnd.cpp
xdata$x	ENDS
_TEXT	SEGMENT
tv132 = -376						; size = 4
_this$ = -372						; size = 4
$T207795 = -368						; size = 28
$T207794 = -340						; size = 28
$T207793 = -312						; size = 28
$T207792 = -284						; size = 28
$T207791 = -256						; size = 28
$T207790 = -228						; size = 28
$T207789 = -200						; size = 28
$T207788 = -172						; size = 28
_strValue$204711 = -144					; size = 28
_strValue$204706 = -116					; size = 28
_vecText$ = -88						; size = 16
_strFailedText$ = -72					; size = 28
_strFailedReason$ = -44					; size = 28
__$ArrayPad$ = -16					; size = 4
__$EHRec$ = -12						; size = 12
__$ReturnAddr$ = 4					; size = 4
_strID$ = 8						; size = 4
_r$ = 12						; size = 4
?HttpDownOb_DownFailed@GamePanelWnd@@UAEXAAV?$basic_string@DU?$char_traits@D@std@@V?$allocator@D@2@@std@@W4HTTP_DOWN_FAILED_REASON@@@Z PROC NEAR ; GamePanelWnd::HttpDownOb_DownFailed
; _this$ = ecx

; 316  : {

  01ce0	55		 push	 ebp
  01ce1	8b ec		 mov	 ebp, esp
  01ce3	6a ff		 push	 -1
  01ce5	68 00 00 00 00	 push	 __ehhandler$?HttpDownOb_DownFailed@GamePanelWnd@@UAEXAAV?$basic_string@DU?$char_traits@D@std@@V?$allocator@D@2@@std@@W4HTTP_DOWN_FAILED_REASON@@@Z
  01cea	64 a1 00 00 00
	00		 mov	 eax, DWORD PTR fs:__except_list
  01cf0	50		 push	 eax
  01cf1	64 89 25 00 00
	00 00		 mov	 DWORD PTR fs:__except_list, esp
  01cf8	81 ec 6c 01 00
	00		 sub	 esp, 364		; 0000016cH
  01cfe	a1 00 00 00 00	 mov	 eax, DWORD PTR ___security_cookie
  01d03	89 45 f0	 mov	 DWORD PTR __$ArrayPad$[ebp], eax
  01d06	89 8d 8c fe ff
	ff		 mov	 DWORD PTR _this$[ebp], ecx

; 317  : 	if( strID != m_swfGame.strID )

  01d0c	8b 85 8c fe ff
	ff		 mov	 eax, DWORD PTR _this$[ebp]
  01d12	83 c0 20	 add	 eax, 32			; 00000020H
  01d15	50		 push	 eax
  01d16	8b 4d 08	 mov	 ecx, DWORD PTR _strID$[ebp]
  01d19	51		 push	 ecx
  01d1a	ff 15 00 00 00
	00		 call	 DWORD PTR __imp_??$?9DU?$char_traits@D@std@@V?$allocator@D@1@@std@@YA_NABV?$basic_string@DU?$char_traits@D@std@@V?$allocator@D@2@@0@0@Z
  01d20	83 c4 08	 add	 esp, 8
  01d23	0f b6 d0	 movzx	 edx, al
  01d26	85 d2		 test	 edx, edx
  01d28	74 05		 je	 SHORT $L204691

; 318  : 		return;

  01d2a	e9 74 03 00 00	 jmp	 $L204690
$L204691:

; 319  : 
; 320  : 	YL_Log("GamePanelWnd.txt", LOG_DEBUG, "GamePanelWnd::HttpDownOb_DownFailed", "===IN");

  01d2f	68 00 00 00 00	 push	 OFFSET FLAT:$SG204695
  01d34	8d 8d 54 ff ff
	ff		 lea	 ecx, DWORD PTR $T207788[ebp]
  01d3a	ff 15 00 00 00
	00		 call	 DWORD PTR __imp_??0?$basic_string@DU?$char_traits@D@std@@V?$allocator@D@2@@std@@QAE@PBD@Z
  01d40	c7 45 fc 00 00
	00 00		 mov	 DWORD PTR __$EHRec$[ebp+8], 0
  01d47	68 00 00 00 00	 push	 OFFSET FLAT:$SG204696
  01d4c	8d 8d 38 ff ff
	ff		 lea	 ecx, DWORD PTR $T207789[ebp]
  01d52	ff 15 00 00 00
	00		 call	 DWORD PTR __imp_??0?$basic_string@DU?$char_traits@D@std@@V?$allocator@D@2@@std@@QAE@PBD@Z
  01d58	c6 45 fc 01	 mov	 BYTE PTR __$EHRec$[ebp+8], 1
  01d5c	68 00 00 00 00	 push	 OFFSET FLAT:$SG204694
  01d61	8d 85 54 ff ff
	ff		 lea	 eax, DWORD PTR $T207788[ebp]
  01d67	50		 push	 eax
  01d68	6a 00		 push	 0
  01d6a	8d 8d 38 ff ff
	ff		 lea	 ecx, DWORD PTR $T207789[ebp]
  01d70	51		 push	 ecx
  01d71	ff 15 00 00 00
	00		 call	 DWORD PTR __imp_?YL_Log@@YAXABV?$basic_string@DU?$char_traits@D@std@@V?$allocator@D@2@@std@@H0PBDZZ
  01d77	83 c4 10	 add	 esp, 16			; 00000010H
  01d7a	c6 45 fc 00	 mov	 BYTE PTR __$EHRec$[ebp+8], 0
  01d7e	8d 8d 38 ff ff
	ff		 lea	 ecx, DWORD PTR $T207789[ebp]
  01d84	ff 15 00 00 00
	00		 call	 DWORD PTR __imp_??1?$basic_string@DU?$char_traits@D@std@@V?$allocator@D@2@@std@@QAE@XZ
  01d8a	c7 45 fc ff ff
	ff ff		 mov	 DWORD PTR __$EHRec$[ebp+8], -1
  01d91	8d 8d 54 ff ff
	ff		 lea	 ecx, DWORD PTR $T207788[ebp]
  01d97	ff 15 00 00 00
	00		 call	 DWORD PTR __imp_??1?$basic_string@DU?$char_traits@D@std@@V?$allocator@D@2@@std@@QAE@XZ

; 321  : 	m_bDown = true;

  01d9d	8b 95 8c fe ff
	ff		 mov	 edx, DWORD PTR _this$[ebp]
  01da3	c6 42 1c 01	 mov	 BYTE PTR [edx+28], 1

; 322  : 	UpdateAllWnd();

  01da7	8b 8d 8c fe ff
	ff		 mov	 ecx, DWORD PTR _this$[ebp]
  01dad	83 e9 58	 sub	 ecx, 88			; 00000058H
  01db0	e8 00 00 00 00	 call	 ?UpdateAllWnd@GamePanelWnd@@QAEXXZ ; GamePanelWnd::UpdateAllWnd

; 323  : 
; 324  : 	m_pWndDownPercent->SetFailed( true );

  01db5	6a 01		 push	 1
  01db7	8b 85 8c fe ff
	ff		 mov	 eax, DWORD PTR _this$[ebp]
  01dbd	8b 48 0c	 mov	 ecx, DWORD PTR [eax+12]
  01dc0	e8 00 00 00 00	 call	 ?SetFailed@DownPercentWnd@@QAEX_N@Z ; DownPercentWnd::SetFailed

; 325  : 	vector<string> vecText;

  01dc5	8d 4d a8	 lea	 ecx, DWORD PTR _vecText$[ebp]
  01dc8	e8 00 00 00 00	 call	 ??0?$vector@V?$basic_string@DU?$char_traits@D@std@@V?$allocator@D@2@@std@@V?$allocator@V?$basic_string@DU?$char_traits@D@std@@V?$allocator@D@2@@std@@@2@@std@@QAE@XZ ; std::vector<std::basic_string<char,std::char_traits<char>,std::allocator<char> >,std::allocator<std::basic_string<char,std::char_traits<char>,std::allocator<char> > > >::vector<std::basic_string<char,std::char_traits<char>,std::allocator<char> >,std::allocator<std::basic_string<char,std::char_traits<char>,std::allocator<char> > > >
  01dcd	c7 45 fc 02 00
	00 00		 mov	 DWORD PTR __$EHRec$[ebp+8], 2

; 326  : 
; 327  : 	string strFailedReason = "";

  01dd4	68 00 00 00 00	 push	 OFFSET FLAT:$SG204700
  01dd9	8d 4d d4	 lea	 ecx, DWORD PTR _strFailedReason$[ebp]
  01ddc	ff 15 00 00 00
	00		 call	 DWORD PTR __imp_??0?$basic_string@DU?$char_traits@D@std@@V?$allocator@D@2@@std@@QAE@PBD@Z
  01de2	c6 45 fc 03	 mov	 BYTE PTR __$EHRec$[ebp+8], 3

; 328  : 	switch( r )

  01de6	8b 4d 0c	 mov	 ecx, DWORD PTR _r$[ebp]
  01de9	89 8d 88 fe ff
	ff		 mov	 DWORD PTR tv132[ebp], ecx
  01def	8b 95 88 fe ff
	ff		 mov	 edx, DWORD PTR tv132[ebp]
  01df5	83 ea 01	 sub	 edx, 1
  01df8	89 95 88 fe ff
	ff		 mov	 DWORD PTR tv132[ebp], edx
  01dfe	83 bd 88 fe ff
	ff 07		 cmp	 DWORD PTR tv132[ebp], 7
  01e05	0f 87 a2 01 00
	00		 ja	 $L204723
  01e0b	8b 85 88 fe ff
	ff		 mov	 eax, DWORD PTR tv132[ebp]
  01e11	ff 24 85 00 00
	00 00		 jmp	 DWORD PTR $L207813[eax*4]
$L204705:

; 329  : 	{
; 330  : 	case HTTP_FAILED_CANT_CREATE_LOCAL_FILE:
; 331  : 		{
; 332  : 			string strValue;

  01e18	8d 4d 8c	 lea	 ecx, DWORD PTR _strValue$204706[ebp]
  01e1b	ff 15 00 00 00
	00		 call	 DWORD PTR __imp_??0?$basic_string@DU?$char_traits@D@std@@V?$allocator@D@2@@std@@QAE@XZ
  01e21	c6 45 fc 04	 mov	 BYTE PTR __$EHRec$[ebp+8], 4

; 333  : 			AfxGetUserConfig()->GetConfigStringValue( CONF_APP_MODULE_NAME, CONF_APP_SWF_PATH, strValue );

  01e25	8b 0d 00 00 00
	00		 mov	 ecx, DWORD PTR _CONF_APP_SWF_PATH
  01e2b	51		 push	 ecx
  01e2c	8d 8d 1c ff ff
	ff		 lea	 ecx, DWORD PTR $T207790[ebp]
  01e32	ff 15 00 00 00
	00		 call	 DWORD PTR __imp_??0?$basic_string@DU?$char_traits@D@std@@V?$allocator@D@2@@std@@QAE@PBD@Z
  01e38	c6 45 fc 05	 mov	 BYTE PTR __$EHRec$[ebp+8], 5
  01e3c	8b 15 00 00 00
	00		 mov	 edx, DWORD PTR _CONF_APP_MODULE_NAME
  01e42	52		 push	 edx
  01e43	8d 8d 00 ff ff
	ff		 lea	 ecx, DWORD PTR $T207791[ebp]
  01e49	ff 15 00 00 00
	00		 call	 DWORD PTR __imp_??0?$basic_string@DU?$char_traits@D@std@@V?$allocator@D@2@@std@@QAE@PBD@Z
  01e4f	c6 45 fc 06	 mov	 BYTE PTR __$EHRec$[ebp+8], 6
  01e53	8d 45 8c	 lea	 eax, DWORD PTR _strValue$204706[ebp]
  01e56	50		 push	 eax
  01e57	8d 8d 1c ff ff
	ff		 lea	 ecx, DWORD PTR $T207790[ebp]
  01e5d	51		 push	 ecx
  01e5e	8d 95 00 ff ff
	ff		 lea	 edx, DWORD PTR $T207791[ebp]
  01e64	52		 push	 edx
  01e65	e8 00 00 00 00	 call	 ?AfxGetUserConfig@@YAPAVAfxUserConfig@@XZ ; AfxGetUserConfig
  01e6a	8b c8		 mov	 ecx, eax
  01e6c	e8 00 00 00 00	 call	 ?GetConfigStringValue@AfxUserConfig@@QAEXABV?$basic_string@DU?$char_traits@D@std@@V?$allocator@D@2@@std@@0AAV23@@Z ; AfxUserConfig::GetConfigStringValue
  01e71	c6 45 fc 05	 mov	 BYTE PTR __$EHRec$[ebp+8], 5
  01e75	8d 8d 00 ff ff
	ff		 lea	 ecx, DWORD PTR $T207791[ebp]
  01e7b	ff 15 00 00 00
	00		 call	 DWORD PTR __imp_??1?$basic_string@DU?$char_traits@D@std@@V?$allocator@D@2@@std@@QAE@XZ
  01e81	c6 45 fc 04	 mov	 BYTE PTR __$EHRec$[ebp+8], 4
  01e85	8d 8d 1c ff ff
	ff		 lea	 ecx, DWORD PTR $T207790[ebp]
  01e8b	ff 15 00 00 00
	00		 call	 DWORD PTR __imp_??1?$basic_string@DU?$char_traits@D@std@@V?$allocator@D@2@@std@@QAE@XZ

; 334  : 			YL_StringUtil::Format( strFailedReason, "%s", strValue.c_str() );

  01e91	8d 4d 8c	 lea	 ecx, DWORD PTR _strValue$204706[ebp]
  01e94	ff 15 00 00 00
	00		 call	 DWORD PTR __imp_?c_str@?$basic_string@DU?$char_traits@D@std@@V?$allocator@D@2@@std@@QBEPBDXZ
  01e9a	50		 push	 eax
  01e9b	68 00 00 00 00	 push	 OFFSET FLAT:$SG204709
  01ea0	8d 45 d4	 lea	 eax, DWORD PTR _strFailedReason$[ebp]
  01ea3	50		 push	 eax
  01ea4	e8 00 00 00 00	 call	 ?Format@YL_StringUtil@@SA_NAAV?$basic_string@DU?$char_traits@D@std@@V?$allocator@D@2@@std@@PBDZZ ; YL_StringUtil::Format
  01ea9	83 c4 0c	 add	 esp, 12			; 0000000cH

; 335  : 		}

  01eac	c6 45 fc 03	 mov	 BYTE PTR __$EHRec$[ebp+8], 3
  01eb0	8d 4d 8c	 lea	 ecx, DWORD PTR _strValue$204706[ebp]
  01eb3	ff 15 00 00 00
	00		 call	 DWORD PTR __imp_??1?$basic_string@DU?$char_traits@D@std@@V?$allocator@D@2@@std@@QAE@XZ

; 336  : 		break;

  01eb9	e9 fd 00 00 00	 jmp	 $L204702
$L204710:

; 337  : 	case HTTP_FAILED_CANT_WRITE_LOCAL_FILE:
; 338  : 		{
; 339  : 			string strValue;

  01ebe	8d 8d 70 ff ff
	ff		 lea	 ecx, DWORD PTR _strValue$204711[ebp]
  01ec4	ff 15 00 00 00
	00		 call	 DWORD PTR __imp_??0?$basic_string@DU?$char_traits@D@std@@V?$allocator@D@2@@std@@QAE@XZ
  01eca	c6 45 fc 07	 mov	 BYTE PTR __$EHRec$[ebp+8], 7

; 340  : 			AfxGetUserConfig()->GetConfigStringValue( CONF_APP_MODULE_NAME, CONF_APP_SWF_PATH, strValue );

  01ece	8b 0d 00 00 00
	00		 mov	 ecx, DWORD PTR _CONF_APP_SWF_PATH
  01ed4	51		 push	 ecx
  01ed5	8d 8d e4 fe ff
	ff		 lea	 ecx, DWORD PTR $T207792[ebp]
  01edb	ff 15 00 00 00
	00		 call	 DWORD PTR __imp_??0?$basic_string@DU?$char_traits@D@std@@V?$allocator@D@2@@std@@QAE@PBD@Z
  01ee1	c6 45 fc 08	 mov	 BYTE PTR __$EHRec$[ebp+8], 8
  01ee5	8b 15 00 00 00
	00		 mov	 edx, DWORD PTR _CONF_APP_MODULE_NAME
  01eeb	52		 push	 edx
  01eec	8d 8d c8 fe ff
	ff		 lea	 ecx, DWORD PTR $T207793[ebp]
  01ef2	ff 15 00 00 00
	00		 call	 DWORD PTR __imp_??0?$basic_string@DU?$char_traits@D@std@@V?$allocator@D@2@@std@@QAE@PBD@Z
  01ef8	c6 45 fc 09	 mov	 BYTE PTR __$EHRec$[ebp+8], 9
  01efc	8d 85 70 ff ff
	ff		 lea	 eax, DWORD PTR _strValue$204711[ebp]
  01f02	50		 push	 eax
  01f03	8d 8d e4 fe ff
	ff		 lea	 ecx, DWORD PTR $T207792[ebp]
  01f09	51		 push	 ecx
  01f0a	8d 95 c8 fe ff
	ff		 lea	 edx, DWORD PTR $T207793[ebp]
  01f10	52		 push	 edx
  01f11	e8 00 00 00 00	 call	 ?AfxGetUserConfig@@YAPAVAfxUserConfig@@XZ ; AfxGetUserConfig
  01f16	8b c8		 mov	 ecx, eax
  01f18	e8 00 00 00 00	 call	 ?GetConfigStringValue@AfxUserConfig@@QAEXABV?$basic_string@DU?$char_traits@D@std@@V?$allocator@D@2@@std@@0AAV23@@Z ; AfxUserConfig::GetConfigStringValue
  01f1d	c6 45 fc 08	 mov	 BYTE PTR __$EHRec$[ebp+8], 8
  01f21	8d 8d c8 fe ff
	ff		 lea	 ecx, DWORD PTR $T207793[ebp]
  01f27	ff 15 00 00 00
	00		 call	 DWORD PTR __imp_??1?$basic_string@DU?$char_traits@D@std@@V?$allocator@D@2@@std@@QAE@XZ
  01f2d	c6 45 fc 07	 mov	 BYTE PTR __$EHRec$[ebp+8], 7
  01f31	8d 8d e4 fe ff
	ff		 lea	 ecx, DWORD PTR $T207792[ebp]
  01f37	ff 15 00 00 00
	00		 call	 DWORD PTR __imp_??1?$basic_string@DU?$char_traits@D@std@@V?$allocator@D@2@@std@@QAE@XZ

; 341  : 			YL_StringUtil::Format( strFailedReason, "%s", strValue.c_str() );

  01f3d	8d 8d 70 ff ff
	ff		 lea	 ecx, DWORD PTR _strValue$204711[ebp]
  01f43	ff 15 00 00 00
	00		 call	 DWORD PTR __imp_?c_str@?$basic_string@DU?$char_traits@D@std@@V?$allocator@D@2@@std@@QBEPBDXZ
  01f49	50		 push	 eax
  01f4a	68 00 00 00 00	 push	 OFFSET FLAT:$SG204714
  01f4f	8d 45 d4	 lea	 eax, DWORD PTR _strFailedReason$[ebp]
  01f52	50		 push	 eax
  01f53	e8 00 00 00 00	 call	 ?Format@YL_StringUtil@@SA_NAAV?$basic_string@DU?$char_traits@D@std@@V?$allocator@D@2@@std@@PBDZZ ; YL_StringUtil::Format
  01f58	83 c4 0c	 add	 esp, 12			; 0000000cH

; 342  : 		}

  01f5b	c6 45 fc 03	 mov	 BYTE PTR __$EHRec$[ebp+8], 3
  01f5f	8d 8d 70 ff ff
	ff		 lea	 ecx, DWORD PTR _strValue$204711[ebp]
  01f65	ff 15 00 00 00
	00		 call	 DWORD PTR __imp_??1?$basic_string@DU?$char_traits@D@std@@V?$allocator@D@2@@std@@QAE@XZ

; 343  : 		break;

  01f6b	eb 4e		 jmp	 SHORT $L204702
$L204715:

; 344  : 	case HTTP_FAILED_SOCKET_ERROR:
; 345  : 		strFailedReason = "";

  01f6d	68 00 00 00 00	 push	 OFFSET FLAT:$SG204716
  01f72	8d 4d d4	 lea	 ecx, DWORD PTR _strFailedReason$[ebp]
  01f75	ff 15 00 00 00
	00		 call	 DWORD PTR __imp_??4?$basic_string@DU?$char_traits@D@std@@V?$allocator@D@2@@std@@QAEAAV01@PBD@Z

; 346  : 		break;

  01f7b	eb 3e		 jmp	 SHORT $L204702
$L204717:

; 347  : 	case HTTP_FAILED_TIMEOUT:
; 348  : 		strFailedReason = "";

  01f7d	68 00 00 00 00	 push	 OFFSET FLAT:$SG204718
  01f82	8d 4d d4	 lea	 ecx, DWORD PTR _strFailedReason$[ebp]
  01f85	ff 15 00 00 00
	00		 call	 DWORD PTR __imp_??4?$basic_string@DU?$char_traits@D@std@@V?$allocator@D@2@@std@@QAEAAV01@PBD@Z

; 349  : 		break;

  01f8b	eb 2e		 jmp	 SHORT $L204702
$L204719:

; 350  : 	case HTTP_FAILED_CANCELED:
; 351  : 		strFailedReason = "";

  01f8d	68 00 00 00 00	 push	 OFFSET FLAT:$SG204720
  01f92	8d 4d d4	 lea	 ecx, DWORD PTR _strFailedReason$[ebp]
  01f95	ff 15 00 00 00
	00		 call	 DWORD PTR __imp_??4?$basic_string@DU?$char_traits@D@std@@V?$allocator@D@2@@std@@QAEAAV01@PBD@Z

; 352  : 		break;

  01f9b	eb 1e		 jmp	 SHORT $L204702
$L204721:

; 353  : 	case HTTP_FAILED_NOPEER:
; 354  : 	case HTTP_FAILED_HTTP_NOTUSE:
; 355  : 	case HTTP_FAILED_NOTCONNECT:
; 356  : 		strFailedReason = "";

  01f9d	68 00 00 00 00	 push	 OFFSET FLAT:$SG204722
  01fa2	8d 4d d4	 lea	 ecx, DWORD PTR _strFailedReason$[ebp]
  01fa5	ff 15 00 00 00
	00		 call	 DWORD PTR __imp_??4?$basic_string@DU?$char_traits@D@std@@V?$allocator@D@2@@std@@QAEAAV01@PBD@Z

; 357  : 		break;

  01fab	eb 0e		 jmp	 SHORT $L204702
$L204723:

; 358  : 	default:
; 359  : 		strFailedReason = "";

  01fad	68 00 00 00 00	 push	 OFFSET FLAT:$SG204724
  01fb2	8d 4d d4	 lea	 ecx, DWORD PTR _strFailedReason$[ebp]
  01fb5	ff 15 00 00 00
	00		 call	 DWORD PTR __imp_??4?$basic_string@DU?$char_traits@D@std@@V?$allocator@D@2@@std@@QAEAAV01@PBD@Z
$L204702:

; 360  : 		break;
; 361  : 	}
; 362  : 	string strFailedText = "";

  01fbb	68 00 00 00 00	 push	 OFFSET FLAT:$SG204726
  01fc0	8d 4d b8	 lea	 ecx, DWORD PTR _strFailedText$[ebp]
  01fc3	ff 15 00 00 00
	00		 call	 DWORD PTR __imp_??0?$basic_string@DU?$char_traits@D@std@@V?$allocator@D@2@@std@@QAE@PBD@Z
  01fc9	c6 45 fc 0a	 mov	 BYTE PTR __$EHRec$[ebp+8], 10 ; 0000000aH

; 363  : 	strFailedText += strFailedReason;

  01fcd	8d 4d d4	 lea	 ecx, DWORD PTR _strFailedReason$[ebp]
  01fd0	51		 push	 ecx
  01fd1	8d 4d b8	 lea	 ecx, DWORD PTR _strFailedText$[ebp]
  01fd4	ff 15 00 00 00
	00		 call	 DWORD PTR __imp_??Y?$basic_string@DU?$char_traits@D@std@@V?$allocator@D@2@@std@@QAEAAV01@ABV01@@Z

; 364  : 
; 365  : 	vecText.push_back( strFailedText );

  01fda	8d 55 b8	 lea	 edx, DWORD PTR _strFailedText$[ebp]
  01fdd	52		 push	 edx
  01fde	8d 4d a8	 lea	 ecx, DWORD PTR _vecText$[ebp]
  01fe1	e8 00 00 00 00	 call	 ?push_back@?$vector@V?$basic_string@DU?$char_traits@D@std@@V?$allocator@D@2@@std@@V?$allocator@V?$basic_string@DU?$char_traits@D@std@@V?$allocator@D@2@@std@@@2@@std@@QAEXABV?$basic_string@DU?$char_traits@D@std@@V?$allocator@D@2@@2@@Z ; std::vector<std::basic_string<char,std::char_traits<char>,std::allocator<char> >,std::allocator<std::basic_string<char,std::char_traits<char>,std::allocator<char> > > >::push_back

; 366  : 	m_pWndDownPercent->SetText( vecText );

  01fe6	8d 45 a8	 lea	 eax, DWORD PTR _vecText$[ebp]
  01fe9	50		 push	 eax
  01fea	8b 8d 8c fe ff
	ff		 mov	 ecx, DWORD PTR _this$[ebp]
  01ff0	8b 49 0c	 mov	 ecx, DWORD PTR [ecx+12]
  01ff3	e8 00 00 00 00	 call	 ?SetText@DownPercentWnd@@QAEXAAV?$vector@V?$basic_string@DU?$char_traits@D@std@@V?$allocator@D@2@@std@@V?$allocator@V?$basic_string@DU?$char_traits@D@std@@V?$allocator@D@2@@std@@@2@@std@@@Z ; DownPercentWnd::SetText

; 367  : 	m_pWndDownPercent->SetDownPercent( 0 );

  01ff8	dd 05 00 00 00
	00		 fld	 QWORD PTR __real@0000000000000000
  01ffe	83 ec 08	 sub	 esp, 8
  02001	dd 1c 24	 fstp	 QWORD PTR [esp]
  02004	8b 95 8c fe ff
	ff		 mov	 edx, DWORD PTR _this$[ebp]
  0200a	8b 4a 0c	 mov	 ecx, DWORD PTR [edx+12]
  0200d	e8 00 00 00 00	 call	 ?SetDownPercent@DownPercentWnd@@QAEXN@Z ; DownPercentWnd::SetDownPercent

; 368  : 	YL_Log("GamePanelWnd.txt", LOG_DEBUG, "GamePanelWnd::HttpDownOb_DownFailed", "===OUT");

  02012	68 00 00 00 00	 push	 OFFSET FLAT:$SG204730
  02017	8d 8d ac fe ff
	ff		 lea	 ecx, DWORD PTR $T207794[ebp]
  0201d	ff 15 00 00 00
	00		 call	 DWORD PTR __imp_??0?$basic_string@DU?$char_traits@D@std@@V?$allocator@D@2@@std@@QAE@PBD@Z
  02023	c6 45 fc 0b	 mov	 BYTE PTR __$EHRec$[ebp+8], 11 ; 0000000bH
  02027	68 00 00 00 00	 push	 OFFSET FLAT:$SG204731
  0202c	8d 8d 90 fe ff
	ff		 lea	 ecx, DWORD PTR $T207795[ebp]
  02032	ff 15 00 00 00
	00		 call	 DWORD PTR __imp_??0?$basic_string@DU?$char_traits@D@std@@V?$allocator@D@2@@std@@QAE@PBD@Z
  02038	c6 45 fc 0c	 mov	 BYTE PTR __$EHRec$[ebp+8], 12 ; 0000000cH
  0203c	68 00 00 00 00	 push	 OFFSET FLAT:$SG204729
  02041	8d 85 ac fe ff
	ff		 lea	 eax, DWORD PTR $T207794[ebp]
  02047	50		 push	 eax
  02048	6a 00		 push	 0
  0204a	8d 8d 90 fe ff
	ff		 lea	 ecx, DWORD PTR $T207795[ebp]
  02050	51		 push	 ecx
  02051	ff 15 00 00 00
	00		 call	 DWORD PTR __imp_?YL_Log@@YAXABV?$basic_string@DU?$char_traits@D@std@@V?$allocator@D@2@@std@@H0PBDZZ
  02057	83 c4 10	 add	 esp, 16			; 00000010H
  0205a	c6 45 fc 0b	 mov	 BYTE PTR __$EHRec$[ebp+8], 11 ; 0000000bH
  0205e	8d 8d 90 fe ff
	ff		 lea	 ecx, DWORD PTR $T207795[ebp]
  02064	ff 15 00 00 00
	00		 call	 DWORD PTR __imp_??1?$basic_string@DU?$char_traits@D@std@@V?$allocator@D@2@@std@@QAE@XZ
  0206a	c6 45 fc 0a	 mov	 BYTE PTR __$EHRec$[ebp+8], 10 ; 0000000aH
  0206e	8d 8d ac fe ff
	ff		 lea	 ecx, DWORD PTR $T207794[ebp]
  02074	ff 15 00 00 00
	00		 call	 DWORD PTR __imp_??1?$basic_string@DU?$char_traits@D@std@@V?$allocator@D@2@@std@@QAE@XZ

; 369  : }

  0207a	c6 45 fc 03	 mov	 BYTE PTR __$EHRec$[ebp+8], 3
  0207e	8d 4d b8	 lea	 ecx, DWORD PTR _strFailedText$[ebp]
  02081	ff 15 00 00 00
	00		 call	 DWORD PTR __imp_??1?$basic_string@DU?$char_traits@D@std@@V?$allocator@D@2@@std@@QAE@XZ
  02087	c6 45 fc 02	 mov	 BYTE PTR __$EHRec$[ebp+8], 2
  0208b	8d 4d d4	 lea	 ecx, DWORD PTR _strFailedReason$[ebp]
  0208e	ff 15 00 00 00
	00		 call	 DWORD PTR __imp_??1?$basic_string@DU?$char_traits@D@std@@V?$allocator@D@2@@std@@QAE@XZ
  02094	c7 45 fc ff ff
	ff ff		 mov	 DWORD PTR __$EHRec$[ebp+8], -1
  0209b	8d 4d a8	 lea	 ecx, DWORD PTR _vecText$[ebp]
  0209e	e8 00 00 00 00	 call	 ??1?$vector@V?$basic_string@DU?$char_traits@D@std@@V?$allocator@D@2@@std@@V?$allocator@V?$basic_string@DU?$char_traits@D@std@@V?$allocator@D@2@@std@@@2@@std@@QAE@XZ ; std::vector<std::basic_string<char,std::char_traits<char>,std::allocator<char> >,std::allocator<std::basic_string<char,std::char_traits<char>,std::allocator<char> > > >::~vector<std::basic_string<char,std::char_traits<char>,std::allocator<char> >,std::allocator<std::basic_string<char,std::char_traits<char>,std::allocator<char> > > >
$L204690:
  020a3	8b 4d f4	 mov	 ecx, DWORD PTR __$EHRec$[ebp]
  020a6	64 89 0d 00 00
	00 00		 mov	 DWORD PTR fs:__except_list, ecx
  020ad	8b 4d f0	 mov	 ecx, DWORD PTR __$ArrayPad$[ebp]
  020b0	e8 00 00 00 00	 call	 @__security_check_cookie@4
  020b5	8b e5		 mov	 esp, ebp
  020b7	5d		 pop	 ebp
  020b8	c2 08 00	 ret	 8
$L207813:
  020bb	00 00 00 00	 DD	 $L204721
  020bf	00 00 00 00	 DD	 $L204705
  020c3	00 00 00 00	 DD	 $L204710
  020c7	00 00 00 00	 DD	 $L204715
  020cb	00 00 00 00	 DD	 $L204717
  020cf	00 00 00 00	 DD	 $L204721
  020d3	00 00 00 00	 DD	 $L204719
  020d7	00 00 00 00	 DD	 $L204721
_TEXT	ENDS
text$x	SEGMENT
$L207796:
  00414	8d 8d 54 ff ff
	ff		 lea	 ecx, DWORD PTR $T207788[ebp]
  0041a	ff 25 00 00 00
	00		 jmp	 DWORD PTR __imp_??1?$basic_string@DU?$char_traits@D@std@@V?$allocator@D@2@@std@@QAE@XZ
$L207797:
  00420	8d 8d 38 ff ff
	ff		 lea	 ecx, DWORD PTR $T207789[ebp]
  00426	ff 25 00 00 00
	00		 jmp	 DWORD PTR __imp_??1?$basic_string@DU?$char_traits@D@std@@V?$allocator@D@2@@std@@QAE@XZ
$L207798:
  0042c	8d 4d a8	 lea	 ecx, DWORD PTR _vecText$[ebp]
  0042f	e9 00 00 00 00	 jmp	 ??1?$vector@V?$basic_string@DU?$char_traits@D@std@@V?$allocator@D@2@@std@@V?$allocator@V?$basic_string@DU?$char_traits@D@std@@V?$allocator@D@2@@std@@@2@@std@@QAE@XZ ; std::vector<std::basic_string<char,std::char_traits<char>,std::allocator<char> >,std::allocator<std::basic_string<char,std::char_traits<char>,std::allocator<char> > > >::~vector<std::basic_string<char,std::char_traits<char>,std::allocator<char> >,std::allocator<std::basic_string<char,std::char_traits<char>,std::allocator<char> > > >
$L207799:
  00434	8d 4d d4	 lea	 ecx, DWORD PTR _strFailedReason$[ebp]
  00437	ff 25 00 00 00
	00		 jmp	 DWORD PTR __imp_??1?$basic_string@DU?$char_traits@D@std@@V?$allocator@D@2@@std@@QAE@XZ
$L207800:
  0043d	8d 4d 8c	 lea	 ecx, DWORD PTR _strValue$204706[ebp]
  00440	ff 25 00 00 00
	00		 jmp	 DWORD PTR __imp_??1?$basic_string@DU?$char_traits@D@std@@V?$allocator@D@2@@std@@QAE@XZ
$L207801:
  00446	8d 8d 1c ff ff
	ff		 lea	 ecx, DWORD PTR $T207790[ebp]
  0044c	ff 25 00 00 00
	00		 jmp	 DWORD PTR __imp_??1?$basic_string@DU?$char_traits@D@std@@V?$allocator@D@2@@std@@QAE@XZ
$L207802:
  00452	8d 8d 00 ff ff
	ff		 lea	 ecx, DWORD PTR $T207791[ebp]
  00458	ff 25 00 00 00
	00		 jmp	 DWORD PTR __imp_??1?$basic_string@DU?$char_traits@D@std@@V?$allocator@D@2@@std@@QAE@XZ
$L207803:
  0045e	8d 8d 70 ff ff
	ff		 lea	 ecx, DWORD PTR _strValue$204711[ebp]
  00464	ff 25 00 00 00
	00		 jmp	 DWORD PTR __imp_??1?$basic_string@DU?$char_traits@D@std@@V?$allocator@D@2@@std@@QAE@XZ
$L207804:
  0046a	8d 8d e4 fe ff
	ff		 lea	 ecx, DWORD PTR $T207792[ebp]
  00470	ff 25 00 00 00
	00		 jmp	 DWORD PTR __imp_??1?$basic_string@DU?$char_traits@D@std@@V?$allocator@D@2@@std@@QAE@XZ
$L207805:
  00476	8d 8d c8 fe ff
	ff		 lea	 ecx, DWORD PTR $T207793[ebp]
  0047c	ff 25 00 00 00
	00		 jmp	 DWORD PTR __imp_??1?$basic_string@DU?$char_traits@D@std@@V?$allocator@D@2@@std@@QAE@XZ
$L207806:
  00482	8d 4d b8	 lea	 ecx, DWORD PTR _strFailedText$[ebp]
  00485	ff 25 00 00 00
	00		 jmp	 DWORD PTR __imp_??1?$basic_string@DU?$char_traits@D@std@@V?$allocator@D@2@@std@@QAE@XZ
$L207807:
  0048b	8d 8d ac fe ff
	ff		 lea	 ecx, DWORD PTR $T207794[ebp]
  00491	ff 25 00 00 00
	00		 jmp	 DWORD PTR __imp_??1?$basic_string@DU?$char_traits@D@std@@V?$allocator@D@2@@std@@QAE@XZ
$L207808:
  00497	8d 8d 90 fe ff
	ff		 lea	 ecx, DWORD PTR $T207795[ebp]
  0049d	ff 25 00 00 00
	00		 jmp	 DWORD PTR __imp_??1?$basic_string@DU?$char_traits@D@std@@V?$allocator@D@2@@std@@QAE@XZ
__ehhandler$?HttpDownOb_DownFailed@GamePanelWnd@@UAEXAAV?$basic_string@DU?$char_traits@D@std@@V?$allocator@D@2@@std@@W4HTTP_DOWN_FAILED_REASON@@@Z:
  004a3	b8 00 00 00 00	 mov	 eax, OFFSET FLAT:$T207810
  004a8	e9 00 00 00 00	 jmp	 ___CxxFrameHandler
text$x	ENDS
?HttpDownOb_DownFailed@GamePanelWnd@@UAEXAAV?$basic_string@DU?$char_traits@D@std@@V?$allocator@D@2@@std@@W4HTTP_DOWN_FAILED_REASON@@@Z ENDP ; GamePanelWnd::HttpDownOb_DownFailed
PUBLIC	?UINT2CString@GamePanelWnd@@AAE?AV?$CStringT@DV?$StrTraitMFC_DLL@DV?$ChTraitsCRT@D@ATL@@@@@ATL@@I@Z ; GamePanelWnd::UINT2CString
PUBLIC	?GetLeftTime@GamePanelWnd@@AAE?AV?$CStringT@DV?$StrTraitMFC_DLL@DV?$ChTraitsCRT@D@ATL@@@@@ATL@@III@Z ; GamePanelWnd::GetLeftTime
PUBLIC	__real@4059000000000000
EXTRN	__imp_?GetString@?$CSimpleStringT@D$00@ATL@@QBEPBDXZ:NEAR
EXTRN	__ftol2:NEAR
xdata$x	SEGMENT
$T207841 DD	0ffffffffH
	DD	FLAT:$L207824
	DD	00H
	DD	FLAT:$L207825
	DD	0ffffffffH
	DD	FLAT:$L207826
	DD	02H
	DD	FLAT:$L207827
	DD	03H
	DD	FLAT:$L207828
	DD	03H
	DD	FLAT:$L207829
	DD	05H
	DD	FLAT:$L207830
	DD	06H
	DD	FLAT:$L207831
	DD	05H
	DD	FLAT:$L207832
	DD	08H
	DD	FLAT:$L207833
$T207835 DD	019930520H
	DD	0aH
	DD	FLAT:$T207841
	DD	2 DUP(00H)
	DD	2 DUP(00H)
xdata$x	ENDS
;	COMDAT __real@4059000000000000
CONST	SEGMENT
__real@4059000000000000 DQ 04059000000000000r	; 100
; Function compile flags: /Odt
CONST	ENDS
_TEXT	SEGMENT
tv220 = -240						; size = 4
tv89 = -236						; size = 4
tv218 = -232						; size = 4
tv139 = -228						; size = 4
tv215 = -224						; size = 4
tv92 = -220						; size = 4
_this$ = -216						; size = 4
$T207823 = -212						; size = 28
$T207822 = -184						; size = 28
$T207821 = -156						; size = 4
$T207820 = -152						; size = 4
$T207819 = -148						; size = 4
$T207818 = -144						; size = 28
$T207817 = -116						; size = 28
_strTmp$ = -88						; size = 28
_vecText$ = -60						; size = 16
_strText$ = -44						; size = 28
__$ArrayPad$ = -16					; size = 4
__$EHRec$ = -12						; size = 12
__$ReturnAddr$ = 4					; size = 4
_strID$ = 8						; size = 4
_dPercent$ = 12						; size = 8
_unFileSize$ = 20					; size = 4
_unSpeed$ = 24						; size = 4
?HttpDownOb_DownProgress@GamePanelWnd@@UAEXAAV?$basic_string@DU?$char_traits@D@std@@V?$allocator@D@2@@std@@NII@Z PROC NEAR ; GamePanelWnd::HttpDownOb_DownProgress
; _this$ = ecx

; 373  : {

  020e0	55		 push	 ebp
  020e1	8b ec		 mov	 ebp, esp
  020e3	6a ff		 push	 -1
  020e5	68 00 00 00 00	 push	 __ehhandler$?HttpDownOb_DownProgress@GamePanelWnd@@UAEXAAV?$basic_string@DU?$char_traits@D@std@@V?$allocator@D@2@@std@@NII@Z
  020ea	64 a1 00 00 00
	00		 mov	 eax, DWORD PTR fs:__except_list
  020f0	50		 push	 eax
  020f1	64 89 25 00 00
	00 00		 mov	 DWORD PTR fs:__except_list, esp
  020f8	81 ec e4 00 00
	00		 sub	 esp, 228		; 000000e4H
  020fe	a1 00 00 00 00	 mov	 eax, DWORD PTR ___security_cookie
  02103	89 45 f0	 mov	 DWORD PTR __$ArrayPad$[ebp], eax
  02106	89 8d 28 ff ff
	ff		 mov	 DWORD PTR _this$[ebp], ecx

; 374  : 	if( strID != m_swfGame.strID )

  0210c	8b 85 28 ff ff
	ff		 mov	 eax, DWORD PTR _this$[ebp]
  02112	83 c0 20	 add	 eax, 32			; 00000020H
  02115	50		 push	 eax
  02116	8b 4d 08	 mov	 ecx, DWORD PTR _strID$[ebp]
  02119	51		 push	 ecx
  0211a	ff 15 00 00 00
	00		 call	 DWORD PTR __imp_??$?9DU?$char_traits@D@std@@V?$allocator@D@1@@std@@YA_NABV?$basic_string@DU?$char_traits@D@std@@V?$allocator@D@2@@0@0@Z
  02120	83 c4 08	 add	 esp, 8
  02123	0f b6 d0	 movzx	 edx, al
  02126	85 d2		 test	 edx, edx
  02128	74 05		 je	 SHORT $L204739

; 375  : 		return;

  0212a	e9 e7 02 00 00	 jmp	 $L204738
$L204739:

; 376  : 	YL_Log("GamePanelWnd.txt", LOG_DEBUG, "GamePanelWnd::HttpDownOb_DownProgress", "===IN");

  0212f	68 00 00 00 00	 push	 OFFSET FLAT:$SG204743
  02134	8d 4d 8c	 lea	 ecx, DWORD PTR $T207817[ebp]
  02137	ff 15 00 00 00
	00		 call	 DWORD PTR __imp_??0?$basic_string@DU?$char_traits@D@std@@V?$allocator@D@2@@std@@QAE@PBD@Z
  0213d	c7 45 fc 00 00
	00 00		 mov	 DWORD PTR __$EHRec$[ebp+8], 0
  02144	68 00 00 00 00	 push	 OFFSET FLAT:$SG204744
  02149	8d 8d 70 ff ff
	ff		 lea	 ecx, DWORD PTR $T207818[ebp]
  0214f	ff 15 00 00 00
	00		 call	 DWORD PTR __imp_??0?$basic_string@DU?$char_traits@D@std@@V?$allocator@D@2@@std@@QAE@PBD@Z
  02155	c6 45 fc 01	 mov	 BYTE PTR __$EHRec$[ebp+8], 1
  02159	68 00 00 00 00	 push	 OFFSET FLAT:$SG204742
  0215e	8d 45 8c	 lea	 eax, DWORD PTR $T207817[ebp]
  02161	50		 push	 eax
  02162	6a 00		 push	 0
  02164	8d 8d 70 ff ff
	ff		 lea	 ecx, DWORD PTR $T207818[ebp]
  0216a	51		 push	 ecx
  0216b	ff 15 00 00 00
	00		 call	 DWORD PTR __imp_?YL_Log@@YAXABV?$basic_string@DU?$char_traits@D@std@@V?$allocator@D@2@@std@@H0PBDZZ
  02171	83 c4 10	 add	 esp, 16			; 00000010H
  02174	c6 45 fc 00	 mov	 BYTE PTR __$EHRec$[ebp+8], 0
  02178	8d 8d 70 ff ff
	ff		 lea	 ecx, DWORD PTR $T207818[ebp]
  0217e	ff 15 00 00 00
	00		 call	 DWORD PTR __imp_??1?$basic_string@DU?$char_traits@D@std@@V?$allocator@D@2@@std@@QAE@XZ
  02184	c7 45 fc ff ff
	ff ff		 mov	 DWORD PTR __$EHRec$[ebp+8], -1
  0218b	8d 4d 8c	 lea	 ecx, DWORD PTR $T207817[ebp]
  0218e	ff 15 00 00 00
	00		 call	 DWORD PTR __imp_??1?$basic_string@DU?$char_traits@D@std@@V?$allocator@D@2@@std@@QAE@XZ

; 377  : 	m_bDown = true;

  02194	8b 95 28 ff ff
	ff		 mov	 edx, DWORD PTR _this$[ebp]
  0219a	c6 42 1c 01	 mov	 BYTE PTR [edx+28], 1

; 378  : 	UpdateAllWnd();

  0219e	8b 8d 28 ff ff
	ff		 mov	 ecx, DWORD PTR _this$[ebp]
  021a4	83 e9 58	 sub	 ecx, 88			; 00000058H
  021a7	e8 00 00 00 00	 call	 ?UpdateAllWnd@GamePanelWnd@@QAEXXZ ; GamePanelWnd::UpdateAllWnd

; 379  : 
; 380  : 	vector<string> vecText;

  021ac	8d 4d c4	 lea	 ecx, DWORD PTR _vecText$[ebp]
  021af	e8 00 00 00 00	 call	 ??0?$vector@V?$basic_string@DU?$char_traits@D@std@@V?$allocator@D@2@@std@@V?$allocator@V?$basic_string@DU?$char_traits@D@std@@V?$allocator@D@2@@std@@@2@@std@@QAE@XZ ; std::vector<std::basic_string<char,std::char_traits<char>,std::allocator<char> >,std::allocator<std::basic_string<char,std::char_traits<char>,std::allocator<char> > > >::vector<std::basic_string<char,std::char_traits<char>,std::allocator<char> >,std::allocator<std::basic_string<char,std::char_traits<char>,std::allocator<char> > > >
  021b4	c7 45 fc 02 00
	00 00		 mov	 DWORD PTR __$EHRec$[ebp+8], 2

; 381  : 	string strText;

  021bb	8d 4d d4	 lea	 ecx, DWORD PTR _strText$[ebp]
  021be	ff 15 00 00 00
	00		 call	 DWORD PTR __imp_??0?$basic_string@DU?$char_traits@D@std@@V?$allocator@D@2@@std@@QAE@XZ
  021c4	c6 45 fc 03	 mov	 BYTE PTR __$EHRec$[ebp+8], 3

; 382  : 	//\t
; 383  : 	YL_StringUtil::Format( strText, "%s   ", UINT2CString( unFileSize ).GetString() );

  021c8	8b 45 14	 mov	 eax, DWORD PTR _unFileSize$[ebp]
  021cb	50		 push	 eax
  021cc	8d 8d 6c ff ff
	ff		 lea	 ecx, DWORD PTR $T207819[ebp]
  021d2	51		 push	 ecx
  021d3	8b 8d 28 ff ff
	ff		 mov	 ecx, DWORD PTR _this$[ebp]
  021d9	83 e9 58	 sub	 ecx, 88			; 00000058H
  021dc	e8 00 00 00 00	 call	 ?UINT2CString@GamePanelWnd@@AAE?AV?$CStringT@DV?$StrTraitMFC_DLL@DV?$ChTraitsCRT@D@ATL@@@@@ATL@@I@Z ; GamePanelWnd::UINT2CString
  021e1	89 85 24 ff ff
	ff		 mov	 DWORD PTR tv92[ebp], eax
  021e7	8b 95 24 ff ff
	ff		 mov	 edx, DWORD PTR tv92[ebp]
  021ed	89 95 20 ff ff
	ff		 mov	 DWORD PTR tv215[ebp], edx
  021f3	c6 45 fc 04	 mov	 BYTE PTR __$EHRec$[ebp+8], 4
  021f7	8b 8d 20 ff ff
	ff		 mov	 ecx, DWORD PTR tv215[ebp]
  021fd	ff 15 00 00 00
	00		 call	 DWORD PTR __imp_?GetString@?$CSimpleStringT@D$00@ATL@@QBEPBDXZ
  02203	50		 push	 eax
  02204	68 00 00 00 00	 push	 OFFSET FLAT:$SG204749
  02209	8d 45 d4	 lea	 eax, DWORD PTR _strText$[ebp]
  0220c	50		 push	 eax
  0220d	e8 00 00 00 00	 call	 ?Format@YL_StringUtil@@SA_NAAV?$basic_string@DU?$char_traits@D@std@@V?$allocator@D@2@@std@@PBDZZ ; YL_StringUtil::Format
  02212	83 c4 0c	 add	 esp, 12			; 0000000cH
  02215	c6 45 fc 03	 mov	 BYTE PTR __$EHRec$[ebp+8], 3
  02219	8d 8d 6c ff ff
	ff		 lea	 ecx, DWORD PTR $T207819[ebp]
  0221f	ff 15 00 00 00
	00		 call	 DWORD PTR __imp_??1?$CStringT@DV?$StrTraitMFC_DLL@DV?$ChTraitsCRT@D@ATL@@@@@ATL@@QAE@XZ

; 384  : 	
; 385  : 	string strTmp;

  02225	8d 4d a8	 lea	 ecx, DWORD PTR _strTmp$[ebp]
  02228	ff 15 00 00 00
	00		 call	 DWORD PTR __imp_??0?$basic_string@DU?$char_traits@D@std@@V?$allocator@D@2@@std@@QAE@XZ
  0222e	c6 45 fc 05	 mov	 BYTE PTR __$EHRec$[ebp+8], 5

; 386  : 	if( unFileSize == 0 )

  02232	83 7d 14 00	 cmp	 DWORD PTR _unFileSize$[ebp], 0
  02236	75 13		 jne	 SHORT $L204751

; 387  : 	{
; 388  : 		YL_StringUtil::Format( strTmp, "..." );

  02238	68 00 00 00 00	 push	 OFFSET FLAT:$SG204752
  0223d	8d 4d a8	 lea	 ecx, DWORD PTR _strTmp$[ebp]
  02240	51		 push	 ecx
  02241	e8 00 00 00 00	 call	 ?Format@YL_StringUtil@@SA_NAAV?$basic_string@DU?$char_traits@D@std@@V?$allocator@D@2@@std@@PBDZZ ; YL_StringUtil::Format
  02246	83 c4 08	 add	 esp, 8

; 389  : 	}else

  02249	eb 20		 jmp	 SHORT $L204753
$L204751:

; 390  : 	{
; 391  : 		YL_StringUtil::Format( strTmp, "%d%%", (int)(dPercent*100) );

  0224b	dd 45 0c	 fld	 QWORD PTR _dPercent$[ebp]
  0224e	dc 0d 00 00 00
	00		 fmul	 QWORD PTR __real@4059000000000000
  02254	e8 00 00 00 00	 call	 __ftol2
  02259	50		 push	 eax
  0225a	68 00 00 00 00	 push	 OFFSET FLAT:$SG204755
  0225f	8d 55 a8	 lea	 edx, DWORD PTR _strTmp$[ebp]
  02262	52		 push	 edx
  02263	e8 00 00 00 00	 call	 ?Format@YL_StringUtil@@SA_NAAV?$basic_string@DU?$char_traits@D@std@@V?$allocator@D@2@@std@@PBDZZ ; YL_StringUtil::Format
  02268	83 c4 0c	 add	 esp, 12			; 0000000cH
$L204753:

; 392  : 	}	
; 393  : 	strText += strTmp;

  0226b	8d 45 a8	 lea	 eax, DWORD PTR _strTmp$[ebp]
  0226e	50		 push	 eax
  0226f	8d 4d d4	 lea	 ecx, DWORD PTR _strText$[ebp]
  02272	ff 15 00 00 00
	00		 call	 DWORD PTR __imp_??Y?$basic_string@DU?$char_traits@D@std@@V?$allocator@D@2@@std@@QAEAAV01@ABV01@@Z

; 394  : 	vecText.push_back( strText );

  02278	8d 4d d4	 lea	 ecx, DWORD PTR _strText$[ebp]
  0227b	51		 push	 ecx
  0227c	8d 4d c4	 lea	 ecx, DWORD PTR _vecText$[ebp]
  0227f	e8 00 00 00 00	 call	 ?push_back@?$vector@V?$basic_string@DU?$char_traits@D@std@@V?$allocator@D@2@@std@@V?$allocator@V?$basic_string@DU?$char_traits@D@std@@V?$allocator@D@2@@std@@@2@@std@@QAEXABV?$basic_string@DU?$char_traits@D@std@@V?$allocator@D@2@@2@@Z ; std::vector<std::basic_string<char,std::char_traits<char>,std::allocator<char> >,std::allocator<std::basic_string<char,std::char_traits<char>,std::allocator<char> > > >::push_back

; 395  : 	//
; 396  : 	YL_StringUtil::Format( strText, ":%s/s   :%s", 
; 397  : 		UINT2CString( unSpeed ).GetString(),
; 398  : 		GetLeftTime( unFileSize, unSpeed, (unsigned int)(dPercent*100) ).GetString() );

  02284	dd 45 0c	 fld	 QWORD PTR _dPercent$[ebp]
  02287	dc 0d 00 00 00
	00		 fmul	 QWORD PTR __real@4059000000000000
  0228d	e8 00 00 00 00	 call	 __ftol2
  02292	50		 push	 eax
  02293	8b 55 18	 mov	 edx, DWORD PTR _unSpeed$[ebp]
  02296	52		 push	 edx
  02297	8b 45 14	 mov	 eax, DWORD PTR _unFileSize$[ebp]
  0229a	50		 push	 eax
  0229b	8d 8d 68 ff ff
	ff		 lea	 ecx, DWORD PTR $T207820[ebp]
  022a1	51		 push	 ecx
  022a2	8b 8d 28 ff ff
	ff		 mov	 ecx, DWORD PTR _this$[ebp]
  022a8	83 e9 58	 sub	 ecx, 88			; 00000058H
  022ab	e8 00 00 00 00	 call	 ?GetLeftTime@GamePanelWnd@@AAE?AV?$CStringT@DV?$StrTraitMFC_DLL@DV?$ChTraitsCRT@D@ATL@@@@@ATL@@III@Z ; GamePanelWnd::GetLeftTime
  022b0	89 85 1c ff ff
	ff		 mov	 DWORD PTR tv139[ebp], eax
  022b6	8b 95 1c ff ff
	ff		 mov	 edx, DWORD PTR tv139[ebp]
  022bc	89 95 18 ff ff
	ff		 mov	 DWORD PTR tv218[ebp], edx
  022c2	c6 45 fc 06	 mov	 BYTE PTR __$EHRec$[ebp+8], 6
  022c6	8b 45 18	 mov	 eax, DWORD PTR _unSpeed$[ebp]
  022c9	50		 push	 eax
  022ca	8d 8d 64 ff ff
	ff		 lea	 ecx, DWORD PTR $T207821[ebp]
  022d0	51		 push	 ecx
  022d1	8b 8d 28 ff ff
	ff		 mov	 ecx, DWORD PTR _this$[ebp]
  022d7	83 e9 58	 sub	 ecx, 88			; 00000058H
  022da	e8 00 00 00 00	 call	 ?UINT2CString@GamePanelWnd@@AAE?AV?$CStringT@DV?$StrTraitMFC_DLL@DV?$ChTraitsCRT@D@ATL@@@@@ATL@@I@Z ; GamePanelWnd::UINT2CString
  022df	89 85 14 ff ff
	ff		 mov	 DWORD PTR tv89[ebp], eax
  022e5	8b 95 14 ff ff
	ff		 mov	 edx, DWORD PTR tv89[ebp]
  022eb	89 95 10 ff ff
	ff		 mov	 DWORD PTR tv220[ebp], edx
  022f1	c6 45 fc 07	 mov	 BYTE PTR __$EHRec$[ebp+8], 7
  022f5	8b 8d 18 ff ff
	ff		 mov	 ecx, DWORD PTR tv218[ebp]
  022fb	ff 15 00 00 00
	00		 call	 DWORD PTR __imp_?GetString@?$CSimpleStringT@D$00@ATL@@QBEPBDXZ
  02301	50		 push	 eax
  02302	8b 8d 10 ff ff
	ff		 mov	 ecx, DWORD PTR tv220[ebp]
  02308	ff 15 00 00 00
	00		 call	 DWORD PTR __imp_?GetString@?$CSimpleStringT@D$00@ATL@@QBEPBDXZ
  0230e	50		 push	 eax
  0230f	68 00 00 00 00	 push	 OFFSET FLAT:$SG204759
  02314	8d 45 d4	 lea	 eax, DWORD PTR _strText$[ebp]
  02317	50		 push	 eax
  02318	e8 00 00 00 00	 call	 ?Format@YL_StringUtil@@SA_NAAV?$basic_string@DU?$char_traits@D@std@@V?$allocator@D@2@@std@@PBDZZ ; YL_StringUtil::Format
  0231d	83 c4 10	 add	 esp, 16			; 00000010H
  02320	c6 45 fc 06	 mov	 BYTE PTR __$EHRec$[ebp+8], 6
  02324	8d 8d 64 ff ff
	ff		 lea	 ecx, DWORD PTR $T207821[ebp]
  0232a	ff 15 00 00 00
	00		 call	 DWORD PTR __imp_??1?$CStringT@DV?$StrTraitMFC_DLL@DV?$ChTraitsCRT@D@ATL@@@@@ATL@@QAE@XZ
  02330	c6 45 fc 05	 mov	 BYTE PTR __$EHRec$[ebp+8], 5
  02334	8d 8d 68 ff ff
	ff		 lea	 ecx, DWORD PTR $T207820[ebp]
  0233a	ff 15 00 00 00
	00		 call	 DWORD PTR __imp_??1?$CStringT@DV?$StrTraitMFC_DLL@DV?$ChTraitsCRT@D@ATL@@@@@ATL@@QAE@XZ

; 399  : 	vecText.push_back( strText );	

  02340	8d 4d d4	 lea	 ecx, DWORD PTR _strText$[ebp]
  02343	51		 push	 ecx
  02344	8d 4d c4	 lea	 ecx, DWORD PTR _vecText$[ebp]
  02347	e8 00 00 00 00	 call	 ?push_back@?$vector@V?$basic_string@DU?$char_traits@D@std@@V?$allocator@D@2@@std@@V?$allocator@V?$basic_string@DU?$char_traits@D@std@@V?$allocator@D@2@@std@@@2@@std@@QAEXABV?$basic_string@DU?$char_traits@D@std@@V?$allocator@D@2@@2@@Z ; std::vector<std::basic_string<char,std::char_traits<char>,std::allocator<char> >,std::allocator<std::basic_string<char,std::char_traits<char>,std::allocator<char> > > >::push_back

; 400  : 
; 401  : 	m_pWndDownPercent->SetFailed( false );

  0234c	6a 00		 push	 0
  0234e	8b 95 28 ff ff
	ff		 mov	 edx, DWORD PTR _this$[ebp]
  02354	8b 4a 0c	 mov	 ecx, DWORD PTR [edx+12]
  02357	e8 00 00 00 00	 call	 ?SetFailed@DownPercentWnd@@QAEX_N@Z ; DownPercentWnd::SetFailed

; 402  : 	m_pWndDownPercent->SetText( vecText );

  0235c	8d 45 c4	 lea	 eax, DWORD PTR _vecText$[ebp]
  0235f	50		 push	 eax
  02360	8b 8d 28 ff ff
	ff		 mov	 ecx, DWORD PTR _this$[ebp]
  02366	8b 49 0c	 mov	 ecx, DWORD PTR [ecx+12]
  02369	e8 00 00 00 00	 call	 ?SetText@DownPercentWnd@@QAEXAAV?$vector@V?$basic_string@DU?$char_traits@D@std@@V?$allocator@D@2@@std@@V?$allocator@V?$basic_string@DU?$char_traits@D@std@@V?$allocator@D@2@@std@@@2@@std@@@Z ; DownPercentWnd::SetText

; 403  : 	m_pWndDownPercent->SetDownPercent( dPercent );

  0236e	dd 45 0c	 fld	 QWORD PTR _dPercent$[ebp]
  02371	83 ec 08	 sub	 esp, 8
  02374	dd 1c 24	 fstp	 QWORD PTR [esp]
  02377	8b 95 28 ff ff
	ff		 mov	 edx, DWORD PTR _this$[ebp]
  0237d	8b 4a 0c	 mov	 ecx, DWORD PTR [edx+12]
  02380	e8 00 00 00 00	 call	 ?SetDownPercent@DownPercentWnd@@QAEXN@Z ; DownPercentWnd::SetDownPercent

; 404  : 	YL_Log("GamePanelWnd.txt", LOG_DEBUG, "GamePanelWnd::HttpDownOb_DownProgress", "===OUT");

  02385	68 00 00 00 00	 push	 OFFSET FLAT:$SG204763
  0238a	8d 8d 48 ff ff
	ff		 lea	 ecx, DWORD PTR $T207822[ebp]
  02390	ff 15 00 00 00
	00		 call	 DWORD PTR __imp_??0?$basic_string@DU?$char_traits@D@std@@V?$allocator@D@2@@std@@QAE@PBD@Z
  02396	c6 45 fc 08	 mov	 BYTE PTR __$EHRec$[ebp+8], 8
  0239a	68 00 00 00 00	 push	 OFFSET FLAT:$SG204764
  0239f	8d 8d 2c ff ff
	ff		 lea	 ecx, DWORD PTR $T207823[ebp]
  023a5	ff 15 00 00 00
	00		 call	 DWORD PTR __imp_??0?$basic_string@DU?$char_traits@D@std@@V?$allocator@D@2@@std@@QAE@PBD@Z
  023ab	c6 45 fc 09	 mov	 BYTE PTR __$EHRec$[ebp+8], 9
  023af	68 00 00 00 00	 push	 OFFSET FLAT:$SG204762
  023b4	8d 85 48 ff ff
	ff		 lea	 eax, DWORD PTR $T207822[ebp]
  023ba	50		 push	 eax
  023bb	6a 00		 push	 0
  023bd	8d 8d 2c ff ff
	ff		 lea	 ecx, DWORD PTR $T207823[ebp]
  023c3	51		 push	 ecx
  023c4	ff 15 00 00 00
	00		 call	 DWORD PTR __imp_?YL_Log@@YAXABV?$basic_string@DU?$char_traits@D@std@@V?$allocator@D@2@@std@@H0PBDZZ
  023ca	83 c4 10	 add	 esp, 16			; 00000010H
  023cd	c6 45 fc 08	 mov	 BYTE PTR __$EHRec$[ebp+8], 8
  023d1	8d 8d 2c ff ff
	ff		 lea	 ecx, DWORD PTR $T207823[ebp]
  023d7	ff 15 00 00 00
	00		 call	 DWORD PTR __imp_??1?$basic_string@DU?$char_traits@D@std@@V?$allocator@D@2@@std@@QAE@XZ
  023dd	c6 45 fc 05	 mov	 BYTE PTR __$EHRec$[ebp+8], 5
  023e1	8d 8d 48 ff ff
	ff		 lea	 ecx, DWORD PTR $T207822[ebp]
  023e7	ff 15 00 00 00
	00		 call	 DWORD PTR __imp_??1?$basic_string@DU?$char_traits@D@std@@V?$allocator@D@2@@std@@QAE@XZ

; 405  : }

  023ed	c6 45 fc 03	 mov	 BYTE PTR __$EHRec$[ebp+8], 3
  023f1	8d 4d a8	 lea	 ecx, DWORD PTR _strTmp$[ebp]
  023f4	ff 15 00 00 00
	00		 call	 DWORD PTR __imp_??1?$basic_string@DU?$char_traits@D@std@@V?$allocator@D@2@@std@@QAE@XZ
  023fa	c6 45 fc 02	 mov	 BYTE PTR __$EHRec$[ebp+8], 2
  023fe	8d 4d d4	 lea	 ecx, DWORD PTR _strText$[ebp]
  02401	ff 15 00 00 00
	00		 call	 DWORD PTR __imp_??1?$basic_string@DU?$char_traits@D@std@@V?$allocator@D@2@@std@@QAE@XZ
  02407	c7 45 fc ff ff
	ff ff		 mov	 DWORD PTR __$EHRec$[ebp+8], -1
  0240e	8d 4d c4	 lea	 ecx, DWORD PTR _vecText$[ebp]
  02411	e8 00 00 00 00	 call	 ??1?$vector@V?$basic_string@DU?$char_traits@D@std@@V?$allocator@D@2@@std@@V?$allocator@V?$basic_string@DU?$char_traits@D@std@@V?$allocator@D@2@@std@@@2@@std@@QAE@XZ ; std::vector<std::basic_string<char,std::char_traits<char>,std::allocator<char> >,std::allocator<std::basic_string<char,std::char_traits<char>,std::allocator<char> > > >::~vector<std::basic_string<char,std::char_traits<char>,std::allocator<char> >,std::allocator<std::basic_string<char,std::char_traits<char>,std::allocator<char> > > >
$L204738:
  02416	8b 4d f4	 mov	 ecx, DWORD PTR __$EHRec$[ebp]
  02419	64 89 0d 00 00
	00 00		 mov	 DWORD PTR fs:__except_list, ecx
  02420	8b 4d f0	 mov	 ecx, DWORD PTR __$ArrayPad$[ebp]
  02423	e8 00 00 00 00	 call	 @__security_check_cookie@4
  02428	8b e5		 mov	 esp, ebp
  0242a	5d		 pop	 ebp
  0242b	c2 14 00	 ret	 20			; 00000014H
_TEXT	ENDS
text$x	SEGMENT
$L207824:
  004ad	8d 4d 8c	 lea	 ecx, DWORD PTR $T207817[ebp]
  004b0	ff 25 00 00 00
	00		 jmp	 DWORD PTR __imp_??1?$basic_string@DU?$char_traits@D@std@@V?$allocator@D@2@@std@@QAE@XZ
$L207825:
  004b6	8d 8d 70 ff ff
	ff		 lea	 ecx, DWORD PTR $T207818[ebp]
  004bc	ff 25 00 00 00
	00		 jmp	 DWORD PTR __imp_??1?$basic_string@DU?$char_traits@D@std@@V?$allocator@D@2@@std@@QAE@XZ
$L207826:
  004c2	8d 4d c4	 lea	 ecx, DWORD PTR _vecText$[ebp]
  004c5	e9 00 00 00 00	 jmp	 ??1?$vector@V?$basic_string@DU?$char_traits@D@std@@V?$allocator@D@2@@std@@V?$allocator@V?$basic_string@DU?$char_traits@D@std@@V?$allocator@D@2@@std@@@2@@std@@QAE@XZ ; std::vector<std::basic_string<char,std::char_traits<char>,std::allocator<char> >,std::allocator<std::basic_string<char,std::char_traits<char>,std::allocator<char> > > >::~vector<std::basic_string<char,std::char_traits<char>,std::allocator<char> >,std::allocator<std::basic_string<char,std::char_traits<char>,std::allocator<char> > > >
$L207827:
  004ca	8d 4d d4	 lea	 ecx, DWORD PTR _strText$[ebp]
  004cd	ff 25 00 00 00
	00		 jmp	 DWORD PTR __imp_??1?$basic_string@DU?$char_traits@D@std@@V?$allocator@D@2@@std@@QAE@XZ
$L207828:
  004d3	8d 8d 6c ff ff
	ff		 lea	 ecx, DWORD PTR $T207819[ebp]
  004d9	ff 25 00 00 00
	00		 jmp	 DWORD PTR __imp_??1?$CStringT@DV?$StrTraitMFC_DLL@DV?$ChTraitsCRT@D@ATL@@@@@ATL@@QAE@XZ
$L207829:
  004df	8d 4d a8	 lea	 ecx, DWORD PTR _strTmp$[ebp]
  004e2	ff 25 00 00 00
	00		 jmp	 DWORD PTR __imp_??1?$basic_string@DU?$char_traits@D@std@@V?$allocator@D@2@@std@@QAE@XZ
$L207830:
  004e8	8d 8d 68 ff ff
	ff		 lea	 ecx, DWORD PTR $T207820[ebp]
  004ee	ff 25 00 00 00
	00		 jmp	 DWORD PTR __imp_??1?$CStringT@DV?$StrTraitMFC_DLL@DV?$ChTraitsCRT@D@ATL@@@@@ATL@@QAE@XZ
$L207831:
  004f4	8d 8d 64 ff ff
	ff		 lea	 ecx, DWORD PTR $T207821[ebp]
  004fa	ff 25 00 00 00
	00		 jmp	 DWORD PTR __imp_??1?$CStringT@DV?$StrTraitMFC_DLL@DV?$ChTraitsCRT@D@ATL@@@@@ATL@@QAE@XZ
$L207832:
  00500	8d 8d 48 ff ff
	ff		 lea	 ecx, DWORD PTR $T207822[ebp]
  00506	ff 25 00 00 00
	00		 jmp	 DWORD PTR __imp_??1?$basic_string@DU?$char_traits@D@std@@V?$allocator@D@2@@std@@QAE@XZ
$L207833:
  0050c	8d 8d 2c ff ff
	ff		 lea	 ecx, DWORD PTR $T207823[ebp]
  00512	ff 25 00 00 00
	00		 jmp	 DWORD PTR __imp_??1?$basic_string@DU?$char_traits@D@std@@V?$allocator@D@2@@std@@QAE@XZ
__ehhandler$?HttpDownOb_DownProgress@GamePanelWnd@@UAEXAAV?$basic_string@DU?$char_traits@D@std@@V?$allocator@D@2@@std@@NII@Z:
  00518	b8 00 00 00 00	 mov	 eax, OFFSET FLAT:$T207835
  0051d	e9 00 00 00 00	 jmp	 ___CxxFrameHandler
text$x	ENDS
?HttpDownOb_DownProgress@GamePanelWnd@@UAEXAAV?$basic_string@DU?$char_traits@D@std@@V?$allocator@D@2@@std@@NII@Z ENDP ; GamePanelWnd::HttpDownOb_DownProgress
PUBLIC	??4SWF_GAME@@QAEAAU0@ABU0@@Z			; SWF_GAME::operator=
EXTRN	?GetInstance@HttpDownCtrl@@SAPAV1@XZ:NEAR	; HttpDownCtrl::GetInstance
EXTRN	?StartDown@HttpDownCtrl@@QAEXV?$basic_string@DU?$char_traits@D@std@@V?$allocator@D@2@@std@@0@Z:NEAR ; HttpDownCtrl::StartDown
xdata$x	SEGMENT
$T207876 DD	0ffffffffH
	DD	FLAT:$L207857
	DD	00H
	DD	FLAT:$L207858
	DD	01H
	DD	FLAT:$L207859
	DD	00H
	DD	FLAT:$L207860
	DD	03H
	DD	FLAT:$L207861
	DD	03H
	DD	FLAT:$L207862
	DD	05H
	DD	FLAT:$L207863
	DD	03H
	DD	FLAT:$L207864
	DD	03H
	DD	FLAT:$L207866
	DD	08H
	DD	FLAT:$L207867
	DD	03H
	DD	FLAT:$L207868
	DD	0aH
	DD	FLAT:$L207869
	DD	03H
	DD	FLAT:$L207870
	DD	0cH
	DD	FLAT:$L207871
$T207873 DD	019930520H
	DD	0eH
	DD	FLAT:$T207876
	DD	2 DUP(00H)
	DD	2 DUP(00H)
; Function compile flags: /Odt
xdata$x	ENDS
_TEXT	SEGMENT
tv281 = -460						; size = 4
tv202 = -456						; size = 4
tv278 = -452						; size = 4
tv207 = -448						; size = 4
tv274 = -444						; size = 4
tv271 = -440						; size = 4
tv163 = -436						; size = 4
tv267 = -429						; size = 1
tv91 = -428						; size = 4
tv85 = -424						; size = 4
tv266 = -420						; size = 4
tv81 = -416						; size = 4
_this$ = -412						; size = 4
$T207856 = -408						; size = 28
$T207855 = -380						; size = 28
$T207854 = -352						; size = 4
$T207853 = -348						; size = 4
$T207852 = -344						; size = 28
$T207851 = -316						; size = 28
$T207850 = -288						; size = 4
$T207849 = -284						; size = 4
$T207848 = -280						; size = 28
$T207847 = -252						; size = 28
$T207846 = -224						; size = 4
$T207845 = -220						; size = 28
$T207844 = -192						; size = 28
_olg$ = -164						; size = 144
__$ArrayPad$ = -16					; size = 4
__$EHRec$ = -12						; size = 12
__$ReturnAddr$ = 4					; size = 4
_sg$ = 8						; size = 140
?SetGameEntry@GamePanelWnd@@QAEXUSWF_GAME@@@Z PROC NEAR	; GamePanelWnd::SetGameEntry
; _this$ = ecx

; 408  : {

  02430	55		 push	 ebp
  02431	8b ec		 mov	 ebp, esp
  02433	6a ff		 push	 -1
  02435	68 00 00 00 00	 push	 __ehhandler$?SetGameEntry@GamePanelWnd@@QAEXUSWF_GAME@@@Z
  0243a	64 a1 00 00 00
	00		 mov	 eax, DWORD PTR fs:__except_list
  02440	50		 push	 eax
  02441	64 89 25 00 00
	00 00		 mov	 DWORD PTR fs:__except_list, esp
  02448	81 ec c0 01 00
	00		 sub	 esp, 448		; 000001c0H
  0244e	a1 00 00 00 00	 mov	 eax, DWORD PTR ___security_cookie
  02453	89 45 f0	 mov	 DWORD PTR __$ArrayPad$[ebp], eax
  02456	89 8d 64 fe ff
	ff		 mov	 DWORD PTR _this$[ebp], ecx
  0245c	c7 45 fc 00 00
	00 00		 mov	 DWORD PTR __$EHRec$[ebp+8], 0

; 409  : 	YL_Log("CGameCtrlWnd.txt", LOG_DEBUG, "CGameCtrlWnd::SetGameEntry", "===IN");

  02463	68 00 00 00 00	 push	 OFFSET FLAT:$SG204772
  02468	8d 8d 40 ff ff
	ff		 lea	 ecx, DWORD PTR $T207844[ebp]
  0246e	ff 15 00 00 00
	00		 call	 DWORD PTR __imp_??0?$basic_string@DU?$char_traits@D@std@@V?$allocator@D@2@@std@@QAE@PBD@Z
  02474	c6 45 fc 01	 mov	 BYTE PTR __$EHRec$[ebp+8], 1
  02478	68 00 00 00 00	 push	 OFFSET FLAT:$SG204773
  0247d	8d 8d 24 ff ff
	ff		 lea	 ecx, DWORD PTR $T207845[ebp]
  02483	ff 15 00 00 00
	00		 call	 DWORD PTR __imp_??0?$basic_string@DU?$char_traits@D@std@@V?$allocator@D@2@@std@@QAE@PBD@Z
  02489	c6 45 fc 02	 mov	 BYTE PTR __$EHRec$[ebp+8], 2
  0248d	68 00 00 00 00	 push	 OFFSET FLAT:$SG204771
  02492	8d 85 40 ff ff
	ff		 lea	 eax, DWORD PTR $T207844[ebp]
  02498	50		 push	 eax
  02499	6a 00		 push	 0
  0249b	8d 8d 24 ff ff
	ff		 lea	 ecx, DWORD PTR $T207845[ebp]
  024a1	51		 push	 ecx
  024a2	ff 15 00 00 00
	00		 call	 DWORD PTR __imp_?YL_Log@@YAXABV?$basic_string@DU?$char_traits@D@std@@V?$allocator@D@2@@std@@H0PBDZZ
  024a8	83 c4 10	 add	 esp, 16			; 00000010H
  024ab	c6 45 fc 01	 mov	 BYTE PTR __$EHRec$[ebp+8], 1
  024af	8d 8d 24 ff ff
	ff		 lea	 ecx, DWORD PTR $T207845[ebp]
  024b5	ff 15 00 00 00
	00		 call	 DWORD PTR __imp_??1?$basic_string@DU?$char_traits@D@std@@V?$allocator@D@2@@std@@QAE@XZ
  024bb	c6 45 fc 00	 mov	 BYTE PTR __$EHRec$[ebp+8], 0
  024bf	8d 8d 40 ff ff
	ff		 lea	 ecx, DWORD PTR $T207844[ebp]
  024c5	ff 15 00 00 00
	00		 call	 DWORD PTR __imp_??1?$basic_string@DU?$char_traits@D@std@@V?$allocator@D@2@@std@@QAE@XZ

; 410  : 	m_swfGame = sg;

  024cb	8d 55 08	 lea	 edx, DWORD PTR _sg$[ebp]
  024ce	52		 push	 edx
  024cf	8b 8d 64 fe ff
	ff		 mov	 ecx, DWORD PTR _this$[ebp]
  024d5	83 c1 78	 add	 ecx, 120		; 00000078H
  024d8	e8 00 00 00 00	 call	 ??4SWF_GAME@@QAEAAU0@ABU0@@Z

; 411  : 
; 412  : 	OneLocalGame olg;

  024dd	8d 8d 5c ff ff
	ff		 lea	 ecx, DWORD PTR _olg$[ebp]
  024e3	e8 00 00 00 00	 call	 ??0OneLocalGame@@QAE@XZ	; OneLocalGame::OneLocalGame
  024e8	c6 45 fc 03	 mov	 BYTE PTR __$EHRec$[ebp+8], 3

; 413  : 	if( GLOBAL_LOCALGAME->ILocalGameData_GetGameByID( m_swfGame.strID, olg ) )

  024ec	8d 85 5c ff ff
	ff		 lea	 eax, DWORD PTR _olg$[ebp]
  024f2	50		 push	 eax
  024f3	8b 8d 64 fe ff
	ff		 mov	 ecx, DWORD PTR _this$[ebp]
  024f9	83 c1 78	 add	 ecx, 120		; 00000078H
  024fc	83 ec 1c	 sub	 esp, 28			; 0000001cH
  024ff	8b d4		 mov	 edx, esp
  02501	89 a5 20 ff ff
	ff		 mov	 DWORD PTR $T207846[ebp], esp
  02507	51		 push	 ecx
  02508	8b ca		 mov	 ecx, edx
  0250a	ff 15 00 00 00
	00		 call	 DWORD PTR __imp_??0?$basic_string@DU?$char_traits@D@std@@V?$allocator@D@2@@std@@QAE@ABV01@@Z
  02510	89 85 60 fe ff
	ff		 mov	 DWORD PTR tv81[ebp], eax
  02516	8b 85 60 fe ff
	ff		 mov	 eax, DWORD PTR tv81[ebp]
  0251c	89 85 5c fe ff
	ff		 mov	 DWORD PTR tv266[ebp], eax
  02522	c6 45 fc 04	 mov	 BYTE PTR __$EHRec$[ebp+8], 4
  02526	e8 00 00 00 00	 call	 ?AfxGetDataManager2@@YAPAVIDataManager@@XZ ; AfxGetDataManager2
  0252b	89 85 58 fe ff
	ff		 mov	 DWORD PTR tv85[ebp], eax
  02531	68 00 00 00 00	 push	 OFFSET FLAT:_ID_DATA_LOCALGAME
  02536	8b 8d 58 fe ff
	ff		 mov	 ecx, DWORD PTR tv85[ebp]
  0253c	8b 11		 mov	 edx, DWORD PTR [ecx]
  0253e	8b 8d 58 fe ff
	ff		 mov	 ecx, DWORD PTR tv85[ebp]
  02544	ff 52 0c	 call	 DWORD PTR [edx+12]
  02547	89 85 54 fe ff
	ff		 mov	 DWORD PTR tv91[ebp], eax
  0254d	8b 85 54 fe ff
	ff		 mov	 eax, DWORD PTR tv91[ebp]
  02553	8b 10		 mov	 edx, DWORD PTR [eax]
  02555	c6 45 fc 03	 mov	 BYTE PTR __$EHRec$[ebp+8], 3
  02559	8b 8d 54 fe ff
	ff		 mov	 ecx, DWORD PTR tv91[ebp]
  0255f	ff 52 0c	 call	 DWORD PTR [edx+12]
  02562	88 85 53 fe ff
	ff		 mov	 BYTE PTR tv267[ebp], al
  02568	0f b6 85 53 fe
	ff ff		 movzx	 eax, BYTE PTR tv267[ebp]
  0256f	85 c0		 test	 eax, eax
  02571	0f 84 0a 01 00
	00		 je	 $L204777

; 414  : 	{
; 415  : 		m_bDown = false;

  02577	8b 8d 64 fe ff
	ff		 mov	 ecx, DWORD PTR _this$[ebp]
  0257d	c6 41 74 00	 mov	 BYTE PTR [ecx+116], 0

; 416  : 		YL_Log("GamePanelWnd.txt", LOG_DEBUG, "GamePanelWnd::SetGameEntry", 
; 417  : 			"m_swfGame.strID:%s,olg.strGamePath:%s", 
; 418  : 			m_swfGame.strID.c_str(),
; 419  : 			olg.strGamePath.c_str());

  02581	68 00 00 00 00	 push	 OFFSET FLAT:$SG204781
  02586	8d 8d 04 ff ff
	ff		 lea	 ecx, DWORD PTR $T207847[ebp]
  0258c	ff 15 00 00 00
	00		 call	 DWORD PTR __imp_??0?$basic_string@DU?$char_traits@D@std@@V?$allocator@D@2@@std@@QAE@PBD@Z
  02592	c6 45 fc 05	 mov	 BYTE PTR __$EHRec$[ebp+8], 5
  02596	68 00 00 00 00	 push	 OFFSET FLAT:$SG204782
  0259b	8d 8d e8 fe ff
	ff		 lea	 ecx, DWORD PTR $T207848[ebp]
  025a1	ff 15 00 00 00
	00		 call	 DWORD PTR __imp_??0?$basic_string@DU?$char_traits@D@std@@V?$allocator@D@2@@std@@QAE@PBD@Z
  025a7	c6 45 fc 06	 mov	 BYTE PTR __$EHRec$[ebp+8], 6
  025ab	8d 4d 94	 lea	 ecx, DWORD PTR _olg$[ebp+56]
  025ae	ff 15 00 00 00
	00		 call	 DWORD PTR __imp_?c_str@?$basic_string@DU?$char_traits@D@std@@V?$allocator@D@2@@std@@QBEPBDXZ
  025b4	50		 push	 eax
  025b5	8b 8d 64 fe ff
	ff		 mov	 ecx, DWORD PTR _this$[ebp]
  025bb	83 c1 78	 add	 ecx, 120		; 00000078H
  025be	ff 15 00 00 00
	00		 call	 DWORD PTR __imp_?c_str@?$basic_string@DU?$char_traits@D@std@@V?$allocator@D@2@@std@@QBEPBDXZ
  025c4	50		 push	 eax
  025c5	68 00 00 00 00	 push	 OFFSET FLAT:$SG204780
  025ca	8d 95 04 ff ff
	ff		 lea	 edx, DWORD PTR $T207847[ebp]
  025d0	52		 push	 edx
  025d1	6a 00		 push	 0
  025d3	8d 85 e8 fe ff
	ff		 lea	 eax, DWORD PTR $T207848[ebp]
  025d9	50		 push	 eax
  025da	ff 15 00 00 00
	00		 call	 DWORD PTR __imp_?YL_Log@@YAXABV?$basic_string@DU?$char_traits@D@std@@V?$allocator@D@2@@std@@H0PBDZZ
  025e0	83 c4 18	 add	 esp, 24			; 00000018H
  025e3	c6 45 fc 05	 mov	 BYTE PTR __$EHRec$[ebp+8], 5
  025e7	8d 8d e8 fe ff
	ff		 lea	 ecx, DWORD PTR $T207848[ebp]
  025ed	ff 15 00 00 00
	00		 call	 DWORD PTR __imp_??1?$basic_string@DU?$char_traits@D@std@@V?$allocator@D@2@@std@@QAE@XZ
  025f3	c6 45 fc 03	 mov	 BYTE PTR __$EHRec$[ebp+8], 3
  025f7	8d 8d 04 ff ff
	ff		 lea	 ecx, DWORD PTR $T207847[ebp]
  025fd	ff 15 00 00 00
	00		 call	 DWORD PTR __imp_??1?$basic_string@DU?$char_traits@D@std@@V?$allocator@D@2@@std@@QAE@XZ

; 420  : 		PlayMovie( olg.strID, olg.strGamePath );

  02603	83 ec 1c	 sub	 esp, 28			; 0000001cH
  02606	8b cc		 mov	 ecx, esp
  02608	89 a5 e4 fe ff
	ff		 mov	 DWORD PTR $T207849[ebp], esp
  0260e	8d 55 94	 lea	 edx, DWORD PTR _olg$[ebp+56]
  02611	52		 push	 edx
  02612	ff 15 00 00 00
	00		 call	 DWORD PTR __imp_??0?$basic_string@DU?$char_traits@D@std@@V?$allocator@D@2@@std@@QAE@ABV01@@Z
  02618	89 85 4c fe ff
	ff		 mov	 DWORD PTR tv163[ebp], eax
  0261e	8b 85 4c fe ff
	ff		 mov	 eax, DWORD PTR tv163[ebp]
  02624	89 85 48 fe ff
	ff		 mov	 DWORD PTR tv271[ebp], eax
  0262a	c6 45 fc 07	 mov	 BYTE PTR __$EHRec$[ebp+8], 7
  0262e	83 ec 1c	 sub	 esp, 28			; 0000001cH
  02631	8b cc		 mov	 ecx, esp
  02633	89 a5 e0 fe ff
	ff		 mov	 DWORD PTR $T207850[ebp], esp
  02639	8d 95 5c ff ff
	ff		 lea	 edx, DWORD PTR _olg$[ebp]
  0263f	52		 push	 edx
  02640	ff 15 00 00 00
	00		 call	 DWORD PTR __imp_??0?$basic_string@DU?$char_traits@D@std@@V?$allocator@D@2@@std@@QAE@ABV01@@Z
  02646	89 85 44 fe ff
	ff		 mov	 DWORD PTR tv274[ebp], eax
  0264c	c6 45 fc 03	 mov	 BYTE PTR __$EHRec$[ebp+8], 3
  02650	8b 8d 64 fe ff
	ff		 mov	 ecx, DWORD PTR _this$[ebp]
  02656	e8 00 00 00 00	 call	 ?PlayMovie@GamePanelWnd@@QAEXV?$basic_string@DU?$char_traits@D@std@@V?$allocator@D@2@@std@@0@Z ; GamePanelWnd::PlayMovie

; 421  : 		UpdateAllWnd();

  0265b	8b 8d 64 fe ff
	ff		 mov	 ecx, DWORD PTR _this$[ebp]
  02661	e8 00 00 00 00	 call	 ?UpdateAllWnd@GamePanelWnd@@QAEXXZ ; GamePanelWnd::UpdateAllWnd

; 422  : 
; 423  : 		m_pGameCtrl->m_strGameName = sg.strName;

  02666	8d 45 24	 lea	 eax, DWORD PTR _sg$[ebp+28]
  02669	50		 push	 eax
  0266a	8b 8d 64 fe ff
	ff		 mov	 ecx, DWORD PTR _this$[ebp]
  02670	8b 49 70	 mov	 ecx, DWORD PTR [ecx+112]
  02673	83 c1 54	 add	 ecx, 84			; 00000054H
  02676	ff 15 00 00 00
	00		 call	 DWORD PTR __imp_??4?$basic_string@DU?$char_traits@D@std@@V?$allocator@D@2@@std@@QAEAAV01@ABV01@@Z

; 424  : 	}else

  0267c	e9 f6 00 00 00	 jmp	 $L204785
$L204777:

; 425  : 	{
; 426  : 		m_bDown = true;

  02681	8b 95 64 fe ff
	ff		 mov	 edx, DWORD PTR _this$[ebp]
  02687	c6 42 74 01	 mov	 BYTE PTR [edx+116], 1

; 427  : 		//swfurl
; 428  : 		YL_StringUtil::ReplaceAll( m_swfGame.strSwfUrl, " ", "%20" );

  0268b	68 00 00 00 00	 push	 OFFSET FLAT:$SG204788
  02690	8d 8d c4 fe ff
	ff		 lea	 ecx, DWORD PTR $T207851[ebp]
  02696	ff 15 00 00 00
	00		 call	 DWORD PTR __imp_??0?$basic_string@DU?$char_traits@D@std@@V?$allocator@D@2@@std@@QAE@PBD@Z
  0269c	c6 45 fc 08	 mov	 BYTE PTR __$EHRec$[ebp+8], 8
  026a0	68 00 00 00 00	 push	 OFFSET FLAT:$SG204789
  026a5	8d 8d a8 fe ff
	ff		 lea	 ecx, DWORD PTR $T207852[ebp]
  026ab	ff 15 00 00 00
	00		 call	 DWORD PTR __imp_??0?$basic_string@DU?$char_traits@D@std@@V?$allocator@D@2@@std@@QAE@PBD@Z
  026b1	c6 45 fc 09	 mov	 BYTE PTR __$EHRec$[ebp+8], 9
  026b5	8d 85 c4 fe ff
	ff		 lea	 eax, DWORD PTR $T207851[ebp]
  026bb	50		 push	 eax
  026bc	8d 8d a8 fe ff
	ff		 lea	 ecx, DWORD PTR $T207852[ebp]
  026c2	51		 push	 ecx
  026c3	8b 95 64 fe ff
	ff		 mov	 edx, DWORD PTR _this$[ebp]
  026c9	81 c2 cc 00 00
	00		 add	 edx, 204		; 000000ccH
  026cf	52		 push	 edx
  026d0	e8 00 00 00 00	 call	 ?ReplaceAll@YL_StringUtil@@SAXAAV?$basic_string@DU?$char_traits@D@std@@V?$allocator@D@2@@std@@ABV23@1@Z ; YL_StringUtil::ReplaceAll
  026d5	83 c4 0c	 add	 esp, 12			; 0000000cH
  026d8	c6 45 fc 08	 mov	 BYTE PTR __$EHRec$[ebp+8], 8
  026dc	8d 8d a8 fe ff
	ff		 lea	 ecx, DWORD PTR $T207852[ebp]
  026e2	ff 15 00 00 00
	00		 call	 DWORD PTR __imp_??1?$basic_string@DU?$char_traits@D@std@@V?$allocator@D@2@@std@@QAE@XZ
  026e8	c6 45 fc 03	 mov	 BYTE PTR __$EHRec$[ebp+8], 3
  026ec	8d 8d c4 fe ff
	ff		 lea	 ecx, DWORD PTR $T207851[ebp]
  026f2	ff 15 00 00 00
	00		 call	 DWORD PTR __imp_??1?$basic_string@DU?$char_traits@D@std@@V?$allocator@D@2@@std@@QAE@XZ

; 429  : 		//swf
; 430  : 		HttpDownCtrl::GetInstance()->StartDown( m_swfGame.strID, m_swfGame.strSwfUrl );

  026f8	8b 85 64 fe ff
	ff		 mov	 eax, DWORD PTR _this$[ebp]
  026fe	05 cc 00 00 00	 add	 eax, 204		; 000000ccH
  02703	83 ec 1c	 sub	 esp, 28			; 0000001cH
  02706	8b cc		 mov	 ecx, esp
  02708	89 a5 a4 fe ff
	ff		 mov	 DWORD PTR $T207853[ebp], esp
  0270e	50		 push	 eax
  0270f	ff 15 00 00 00
	00		 call	 DWORD PTR __imp_??0?$basic_string@DU?$char_traits@D@std@@V?$allocator@D@2@@std@@QAE@ABV01@@Z
  02715	89 85 40 fe ff
	ff		 mov	 DWORD PTR tv207[ebp], eax
  0271b	8b 8d 40 fe ff
	ff		 mov	 ecx, DWORD PTR tv207[ebp]
  02721	89 8d 3c fe ff
	ff		 mov	 DWORD PTR tv278[ebp], ecx
  02727	c6 45 fc 0a	 mov	 BYTE PTR __$EHRec$[ebp+8], 10 ; 0000000aH
  0272b	8b 95 64 fe ff
	ff		 mov	 edx, DWORD PTR _this$[ebp]
  02731	83 c2 78	 add	 edx, 120		; 00000078H
  02734	83 ec 1c	 sub	 esp, 28			; 0000001cH
  02737	8b cc		 mov	 ecx, esp
  02739	89 a5 a0 fe ff
	ff		 mov	 DWORD PTR $T207854[ebp], esp
  0273f	52		 push	 edx
  02740	ff 15 00 00 00
	00		 call	 DWORD PTR __imp_??0?$basic_string@DU?$char_traits@D@std@@V?$allocator@D@2@@std@@QAE@ABV01@@Z
  02746	89 85 38 fe ff
	ff		 mov	 DWORD PTR tv202[ebp], eax
  0274c	8b 85 38 fe ff
	ff		 mov	 eax, DWORD PTR tv202[ebp]
  02752	89 85 34 fe ff
	ff		 mov	 DWORD PTR tv281[ebp], eax
  02758	c6 45 fc 0b	 mov	 BYTE PTR __$EHRec$[ebp+8], 11 ; 0000000bH
  0275c	e8 00 00 00 00	 call	 ?GetInstance@HttpDownCtrl@@SAPAV1@XZ ; HttpDownCtrl::GetInstance
  02761	c6 45 fc 03	 mov	 BYTE PTR __$EHRec$[ebp+8], 3
  02765	8b c8		 mov	 ecx, eax
  02767	e8 00 00 00 00	 call	 ?StartDown@HttpDownCtrl@@QAEXV?$basic_string@DU?$char_traits@D@std@@V?$allocator@D@2@@std@@0@Z ; HttpDownCtrl::StartDown

; 431  : 		UpdateAllWnd();

  0276c	8b 8d 64 fe ff
	ff		 mov	 ecx, DWORD PTR _this$[ebp]
  02772	e8 00 00 00 00	 call	 ?UpdateAllWnd@GamePanelWnd@@QAEXXZ ; GamePanelWnd::UpdateAllWnd
$L204785:

; 432  : 	}
; 433  : 	YL_Log("GamePanelWnd.txt", LOG_DEBUG, "GamePanelWnd::SetGameEntry", "===OUT");

  02777	68 00 00 00 00	 push	 OFFSET FLAT:$SG204795
  0277c	8d 8d 84 fe ff
	ff		 lea	 ecx, DWORD PTR $T207855[ebp]
  02782	ff 15 00 00 00
	00		 call	 DWORD PTR __imp_??0?$basic_string@DU?$char_traits@D@std@@V?$allocator@D@2@@std@@QAE@PBD@Z
  02788	c6 45 fc 0c	 mov	 BYTE PTR __$EHRec$[ebp+8], 12 ; 0000000cH
  0278c	68 00 00 00 00	 push	 OFFSET FLAT:$SG204796
  02791	8d 8d 68 fe ff
	ff		 lea	 ecx, DWORD PTR $T207856[ebp]
  02797	ff 15 00 00 00
	00		 call	 DWORD PTR __imp_??0?$basic_string@DU?$char_traits@D@std@@V?$allocator@D@2@@std@@QAE@PBD@Z
  0279d	c6 45 fc 0d	 mov	 BYTE PTR __$EHRec$[ebp+8], 13 ; 0000000dH
  027a1	68 00 00 00 00	 push	 OFFSET FLAT:$SG204794
  027a6	8d 8d 84 fe ff
	ff		 lea	 ecx, DWORD PTR $T207855[ebp]
  027ac	51		 push	 ecx
  027ad	6a 00		 push	 0
  027af	8d 95 68 fe ff
	ff		 lea	 edx, DWORD PTR $T207856[ebp]
  027b5	52		 push	 edx
  027b6	ff 15 00 00 00
	00		 call	 DWORD PTR __imp_?YL_Log@@YAXABV?$basic_string@DU?$char_traits@D@std@@V?$allocator@D@2@@std@@H0PBDZZ
  027bc	83 c4 10	 add	 esp, 16			; 00000010H
  027bf	c6 45 fc 0c	 mov	 BYTE PTR __$EHRec$[ebp+8], 12 ; 0000000cH
  027c3	8d 8d 68 fe ff
	ff		 lea	 ecx, DWORD PTR $T207856[ebp]
  027c9	ff 15 00 00 00
	00		 call	 DWORD PTR __imp_??1?$basic_string@DU?$char_traits@D@std@@V?$allocator@D@2@@std@@QAE@XZ
  027cf	c6 45 fc 03	 mov	 BYTE PTR __$EHRec$[ebp+8], 3
  027d3	8d 8d 84 fe ff
	ff		 lea	 ecx, DWORD PTR $T207855[ebp]
  027d9	ff 15 00 00 00
	00		 call	 DWORD PTR __imp_??1?$basic_string@DU?$char_traits@D@std@@V?$allocator@D@2@@std@@QAE@XZ

; 434  : }

  027df	c6 45 fc 00	 mov	 BYTE PTR __$EHRec$[ebp+8], 0
  027e3	8d 8d 5c ff ff
	ff		 lea	 ecx, DWORD PTR _olg$[ebp]
  027e9	e8 00 00 00 00	 call	 ??1OneLocalGame@@QAE@XZ
  027ee	c7 45 fc ff ff
	ff ff		 mov	 DWORD PTR __$EHRec$[ebp+8], -1
  027f5	8d 4d 08	 lea	 ecx, DWORD PTR _sg$[ebp]
  027f8	e8 00 00 00 00	 call	 ??1SWF_GAME@@QAE@XZ
  027fd	8b 4d f4	 mov	 ecx, DWORD PTR __$EHRec$[ebp]
  02800	64 89 0d 00 00
	00 00		 mov	 DWORD PTR fs:__except_list, ecx
  02807	8b 4d f0	 mov	 ecx, DWORD PTR __$ArrayPad$[ebp]
  0280a	e8 00 00 00 00	 call	 @__security_check_cookie@4
  0280f	8b e5		 mov	 esp, ebp
  02811	5d		 pop	 ebp
  02812	c2 8c 00	 ret	 140			; 0000008cH
_TEXT	ENDS
text$x	SEGMENT
$L207857:
  00522	8d 4d 08	 lea	 ecx, DWORD PTR _sg$[ebp]
  00525	e9 00 00 00 00	 jmp	 ??1SWF_GAME@@QAE@XZ
$L207858:
  0052a	8d 8d 40 ff ff
	ff		 lea	 ecx, DWORD PTR $T207844[ebp]
  00530	ff 25 00 00 00
	00		 jmp	 DWORD PTR __imp_??1?$basic_string@DU?$char_traits@D@std@@V?$allocator@D@2@@std@@QAE@XZ
$L207859:
  00536	8d 8d 24 ff ff
	ff		 lea	 ecx, DWORD PTR $T207845[ebp]
  0053c	ff 25 00 00 00
	00		 jmp	 DWORD PTR __imp_??1?$basic_string@DU?$char_traits@D@std@@V?$allocator@D@2@@std@@QAE@XZ
$L207860:
  00542	8d 8d 5c ff ff
	ff		 lea	 ecx, DWORD PTR _olg$[ebp]
  00548	e9 00 00 00 00	 jmp	 ??1OneLocalGame@@QAE@XZ
$L207861:
  0054d	8b 8d 20 ff ff
	ff		 mov	 ecx, DWORD PTR $T207846[ebp]
  00553	ff 25 00 00 00
	00		 jmp	 DWORD PTR __imp_??1?$basic_string@DU?$char_traits@D@std@@V?$allocator@D@2@@std@@QAE@XZ
$L207862:
  00559	8d 8d 04 ff ff
	ff		 lea	 ecx, DWORD PTR $T207847[ebp]
  0055f	ff 25 00 00 00
	00		 jmp	 DWORD PTR __imp_??1?$basic_string@DU?$char_traits@D@std@@V?$allocator@D@2@@std@@QAE@XZ
$L207863:
  00565	8d 8d e8 fe ff
	ff		 lea	 ecx, DWORD PTR $T207848[ebp]
  0056b	ff 25 00 00 00
	00		 jmp	 DWORD PTR __imp_??1?$basic_string@DU?$char_traits@D@std@@V?$allocator@D@2@@std@@QAE@XZ
$L207864:
  00571	8b 8d e4 fe ff
	ff		 mov	 ecx, DWORD PTR $T207849[ebp]
  00577	ff 25 00 00 00
	00		 jmp	 DWORD PTR __imp_??1?$basic_string@DU?$char_traits@D@std@@V?$allocator@D@2@@std@@QAE@XZ
$L207866:
  0057d	8d 8d c4 fe ff
	ff		 lea	 ecx, DWORD PTR $T207851[ebp]
  00583	ff 25 00 00 00
	00		 jmp	 DWORD PTR __imp_??1?$basic_string@DU?$char_traits@D@std@@V?$allocator@D@2@@std@@QAE@XZ
$L207867:
  00589	8d 8d a8 fe ff
	ff		 lea	 ecx, DWORD PTR $T207852[ebp]
  0058f	ff 25 00 00 00
	00		 jmp	 DWORD PTR __imp_??1?$basic_string@DU?$char_traits@D@std@@V?$allocator@D@2@@std@@QAE@XZ
$L207868:
  00595	8b 8d a4 fe ff
	ff		 mov	 ecx, DWORD PTR $T207853[ebp]
  0059b	ff 25 00 00 00
	00		 jmp	 DWORD PTR __imp_??1?$basic_string@DU?$char_traits@D@std@@V?$allocator@D@2@@std@@QAE@XZ
$L207869:
  005a1	8b 8d a0 fe ff
	ff		 mov	 ecx, DWORD PTR $T207854[ebp]
  005a7	ff 25 00 00 00
	00		 jmp	 DWORD PTR __imp_??1?$basic_string@DU?$char_traits@D@std@@V?$allocator@D@2@@std@@QAE@XZ
$L207870:
  005ad	8d 8d 84 fe ff
	ff		 lea	 ecx, DWORD PTR $T207855[ebp]
  005b3	ff 25 00 00 00
	00		 jmp	 DWORD PTR __imp_??1?$basic_string@DU?$char_traits@D@std@@V?$allocator@D@2@@std@@QAE@XZ
$L207871:
  005b9	8d 8d 68 fe ff
	ff		 lea	 ecx, DWORD PTR $T207856[ebp]
  005bf	ff 25 00 00 00
	00		 jmp	 DWORD PTR __imp_??1?$basic_string@DU?$char_traits@D@std@@V?$allocator@D@2@@std@@QAE@XZ
__ehhandler$?SetGameEntry@GamePanelWnd@@QAEXUSWF_GAME@@@Z:
  005c5	b8 00 00 00 00	 mov	 eax, OFFSET FLAT:$T207873
  005ca	e9 00 00 00 00	 jmp	 ___CxxFrameHandler
text$x	ENDS
?SetGameEntry@GamePanelWnd@@QAEXUSWF_GAME@@@Z ENDP	; GamePanelWnd::SetGameEntry
; Function compile flags: /Odt
;	COMDAT ??4SWF_GAME@@QAEAAU0@ABU0@@Z
_TEXT	SEGMENT
_this$ = -4						; size = 4
___that$ = 8						; size = 4
??4SWF_GAME@@QAEAAU0@ABU0@@Z PROC NEAR			; SWF_GAME::operator=, COMDAT
; _this$ = ecx
  00000	55		 push	 ebp
  00001	8b ec		 mov	 ebp, esp
  00003	51		 push	 ecx
  00004	89 4d fc	 mov	 DWORD PTR _this$[ebp], ecx
  00007	8b 45 08	 mov	 eax, DWORD PTR ___that$[ebp]
  0000a	50		 push	 eax
  0000b	8b 4d fc	 mov	 ecx, DWORD PTR _this$[ebp]
  0000e	ff 15 00 00 00
	00		 call	 DWORD PTR __imp_??4?$basic_string@DU?$char_traits@D@std@@V?$allocator@D@2@@std@@QAEAAV01@ABV01@@Z
  00014	8b 4d 08	 mov	 ecx, DWORD PTR ___that$[ebp]
  00017	83 c1 1c	 add	 ecx, 28			; 0000001cH
  0001a	51		 push	 ecx
  0001b	8b 4d fc	 mov	 ecx, DWORD PTR _this$[ebp]
  0001e	83 c1 1c	 add	 ecx, 28			; 0000001cH
  00021	ff 15 00 00 00
	00		 call	 DWORD PTR __imp_??4?$basic_string@DU?$char_traits@D@std@@V?$allocator@D@2@@std@@QAEAAV01@ABV01@@Z
  00027	8b 55 08	 mov	 edx, DWORD PTR ___that$[ebp]
  0002a	83 c2 38	 add	 edx, 56			; 00000038H
  0002d	52		 push	 edx
  0002e	8b 4d fc	 mov	 ecx, DWORD PTR _this$[ebp]
  00031	83 c1 38	 add	 ecx, 56			; 00000038H
  00034	ff 15 00 00 00
	00		 call	 DWORD PTR __imp_??4?$basic_string@DU?$char_traits@D@std@@V?$allocator@D@2@@std@@QAEAAV01@ABV01@@Z
  0003a	8b 45 08	 mov	 eax, DWORD PTR ___that$[ebp]
  0003d	83 c0 54	 add	 eax, 84			; 00000054H
  00040	50		 push	 eax
  00041	8b 4d fc	 mov	 ecx, DWORD PTR _this$[ebp]
  00044	83 c1 54	 add	 ecx, 84			; 00000054H
  00047	ff 15 00 00 00
	00		 call	 DWORD PTR __imp_??4?$basic_string@DU?$char_traits@D@std@@V?$allocator@D@2@@std@@QAEAAV01@ABV01@@Z
  0004d	8b 4d 08	 mov	 ecx, DWORD PTR ___that$[ebp]
  00050	83 c1 70	 add	 ecx, 112		; 00000070H
  00053	51		 push	 ecx
  00054	8b 4d fc	 mov	 ecx, DWORD PTR _this$[ebp]
  00057	83 c1 70	 add	 ecx, 112		; 00000070H
  0005a	ff 15 00 00 00
	00		 call	 DWORD PTR __imp_??4?$basic_string@DU?$char_traits@D@std@@V?$allocator@D@2@@std@@QAEAAV01@ABV01@@Z
  00060	8b 45 fc	 mov	 eax, DWORD PTR _this$[ebp]
  00063	8b e5		 mov	 esp, ebp
  00065	5d		 pop	 ebp
  00066	c2 04 00	 ret	 4
??4SWF_GAME@@QAEAAU0@ABU0@@Z ENDP			; SWF_GAME::operator=
_TEXT	ENDS
PUBLIC	?LogPlaySwfGameAct@GamePanelWnd@@AAEXXZ		; GamePanelWnd::LogPlaySwfGameAct
PUBLIC	?Nothing@GlobalSwfPath@@SA?AV?$CStringT@DV?$StrTraitMFC_DLL@DV?$ChTraitsCRT@D@ATL@@@@@ATL@@XZ ; GlobalSwfPath::Nothing
EXTRN	__imp_??B?$CSimpleStringT@D$00@ATL@@QBEPBDXZ:NEAR
EXTRN	?GetMovie@CShockwaveFlash@@QAE?AV?$CStringT@DV?$StrTraitMFC_DLL@DV?$ChTraitsCRT@D@ATL@@@@@ATL@@XZ:NEAR ; CShockwaveFlash::GetMovie
EXTRN	?SetMovie@CShockwaveFlash@@QAEXPBD@Z:NEAR	; CShockwaveFlash::SetMovie
EXTRN	?Play@CShockwaveFlash@@QAEXXZ:NEAR		; CShockwaveFlash::Play
EXTRN	__imp_?Compare@?$CStringT@DV?$StrTraitMFC_DLL@DV?$ChTraitsCRT@D@ATL@@@@@ATL@@QBEHPBD@Z:NEAR
xdata$x	SEGMENT
$T207902 DD	0ffffffffH
	DD	FLAT:$L207889
	DD	00H
	DD	FLAT:$L207890
	DD	01H
	DD	FLAT:$L207891
	DD	02H
	DD	FLAT:$L207892
	DD	01H
	DD	FLAT:$L207893
	DD	04H
	DD	FLAT:$L207894
	DD	01H
	DD	FLAT:$L207895
	DD	01H
	DD	FLAT:$L207896
	DD	01H
	DD	FLAT:$L207897
	DD	08H
	DD	FLAT:$L207898
$T207900 DD	019930520H
	DD	0aH
	DD	FLAT:$T207902
	DD	2 DUP(00H)
	DD	2 DUP(00H)
; Function compile flags: /Odt
xdata$x	ENDS
_TEXT	SEGMENT
tv186 = -212						; size = 4
tv83 = -208						; size = 4
tv184 = -204						; size = 4
tv89 = -200						; size = 4
_this$ = -196						; size = 4
$T207888 = -192						; size = 28
$T207887 = -164						; size = 28
$T207886 = -136						; size = 4
$T207885 = -132						; size = 4
$T207884 = -125						; size = 1
$T207883 = -124						; size = 28
$T207882 = -96						; size = 28
$T207881 = -68						; size = 28
$T207880 = -40						; size = 28
__$EHRec$ = -12						; size = 12
_strID$ = 8						; size = 28
_strPath$ = 36						; size = 28
?PlayMovie@GamePanelWnd@@QAEXV?$basic_string@DU?$char_traits@D@std@@V?$allocator@D@2@@std@@0@Z PROC NEAR ; GamePanelWnd::PlayMovie
; _this$ = ecx

; 438  : {

  02820	55		 push	 ebp
  02821	8b ec		 mov	 ebp, esp
  02823	6a ff		 push	 -1
  02825	68 00 00 00 00	 push	 __ehhandler$?PlayMovie@GamePanelWnd@@QAEXV?$basic_string@DU?$char_traits@D@std@@V?$allocator@D@2@@std@@0@Z
  0282a	64 a1 00 00 00
	00		 mov	 eax, DWORD PTR fs:__except_list
  02830	50		 push	 eax
  02831	64 89 25 00 00
	00 00		 mov	 DWORD PTR fs:__except_list, esp
  02838	81 ec c8 00 00
	00		 sub	 esp, 200		; 000000c8H
  0283e	89 8d 3c ff ff
	ff		 mov	 DWORD PTR _this$[ebp], ecx
  02844	c7 45 fc 01 00
	00 00		 mov	 DWORD PTR __$EHRec$[ebp+8], 1

; 439  : 	YL_Log("GamePanelWnd.txt", LOG_DEBUG, "GamePanelWnd::PlayMovie", "===IN");

  0284b	68 00 00 00 00	 push	 OFFSET FLAT:$SG204808
  02850	8d 4d d8	 lea	 ecx, DWORD PTR $T207880[ebp]
  02853	ff 15 00 00 00
	00		 call	 DWORD PTR __imp_??0?$basic_string@DU?$char_traits@D@std@@V?$allocator@D@2@@std@@QAE@PBD@Z
  02859	c6 45 fc 02	 mov	 BYTE PTR __$EHRec$[ebp+8], 2
  0285d	68 00 00 00 00	 push	 OFFSET FLAT:$SG204809
  02862	8d 4d bc	 lea	 ecx, DWORD PTR $T207881[ebp]
  02865	ff 15 00 00 00
	00		 call	 DWORD PTR __imp_??0?$basic_string@DU?$char_traits@D@std@@V?$allocator@D@2@@std@@QAE@PBD@Z
  0286b	c6 45 fc 03	 mov	 BYTE PTR __$EHRec$[ebp+8], 3
  0286f	68 00 00 00 00	 push	 OFFSET FLAT:$SG204807
  02874	8d 45 d8	 lea	 eax, DWORD PTR $T207880[ebp]
  02877	50		 push	 eax
  02878	6a 00		 push	 0
  0287a	8d 4d bc	 lea	 ecx, DWORD PTR $T207881[ebp]
  0287d	51		 push	 ecx
  0287e	ff 15 00 00 00
	00		 call	 DWORD PTR __imp_?YL_Log@@YAXABV?$basic_string@DU?$char_traits@D@std@@V?$allocator@D@2@@std@@H0PBDZZ
  02884	83 c4 10	 add	 esp, 16			; 00000010H
  02887	c6 45 fc 02	 mov	 BYTE PTR __$EHRec$[ebp+8], 2
  0288b	8d 4d bc	 lea	 ecx, DWORD PTR $T207881[ebp]
  0288e	ff 15 00 00 00
	00		 call	 DWORD PTR __imp_??1?$basic_string@DU?$char_traits@D@std@@V?$allocator@D@2@@std@@QAE@XZ
  02894	c6 45 fc 01	 mov	 BYTE PTR __$EHRec$[ebp+8], 1
  02898	8d 4d d8	 lea	 ecx, DWORD PTR $T207880[ebp]
  0289b	ff 15 00 00 00
	00		 call	 DWORD PTR __imp_??1?$basic_string@DU?$char_traits@D@std@@V?$allocator@D@2@@std@@QAE@XZ

; 440  : 	YL_Log("GamePanelWnd.txt", LOG_DEBUG, "GamePanelWnd", "strPath:%s", strPath.c_str());

  028a1	68 00 00 00 00	 push	 OFFSET FLAT:$SG204813
  028a6	8d 4d a0	 lea	 ecx, DWORD PTR $T207882[ebp]
  028a9	ff 15 00 00 00
	00		 call	 DWORD PTR __imp_??0?$basic_string@DU?$char_traits@D@std@@V?$allocator@D@2@@std@@QAE@PBD@Z
  028af	c6 45 fc 04	 mov	 BYTE PTR __$EHRec$[ebp+8], 4
  028b3	68 00 00 00 00	 push	 OFFSET FLAT:$SG204814
  028b8	8d 4d 84	 lea	 ecx, DWORD PTR $T207883[ebp]
  028bb	ff 15 00 00 00
	00		 call	 DWORD PTR __imp_??0?$basic_string@DU?$char_traits@D@std@@V?$allocator@D@2@@std@@QAE@PBD@Z
  028c1	c6 45 fc 05	 mov	 BYTE PTR __$EHRec$[ebp+8], 5
  028c5	8d 4d 24	 lea	 ecx, DWORD PTR _strPath$[ebp]
  028c8	ff 15 00 00 00
	00		 call	 DWORD PTR __imp_?c_str@?$basic_string@DU?$char_traits@D@std@@V?$allocator@D@2@@std@@QBEPBDXZ
  028ce	50		 push	 eax
  028cf	68 00 00 00 00	 push	 OFFSET FLAT:$SG204812
  028d4	8d 55 a0	 lea	 edx, DWORD PTR $T207882[ebp]
  028d7	52		 push	 edx
  028d8	6a 00		 push	 0
  028da	8d 45 84	 lea	 eax, DWORD PTR $T207883[ebp]
  028dd	50		 push	 eax
  028de	ff 15 00 00 00
	00		 call	 DWORD PTR __imp_?YL_Log@@YAXABV?$basic_string@DU?$char_traits@D@std@@V?$allocator@D@2@@std@@H0PBDZZ
  028e4	83 c4 14	 add	 esp, 20			; 00000014H
  028e7	c6 45 fc 04	 mov	 BYTE PTR __$EHRec$[ebp+8], 4
  028eb	8d 4d 84	 lea	 ecx, DWORD PTR $T207883[ebp]
  028ee	ff 15 00 00 00
	00		 call	 DWORD PTR __imp_??1?$basic_string@DU?$char_traits@D@std@@V?$allocator@D@2@@std@@QAE@XZ
  028f4	c6 45 fc 01	 mov	 BYTE PTR __$EHRec$[ebp+8], 1
  028f8	8d 4d a0	 lea	 ecx, DWORD PTR $T207882[ebp]
  028fb	ff 15 00 00 00
	00		 call	 DWORD PTR __imp_??1?$basic_string@DU?$char_traits@D@std@@V?$allocator@D@2@@std@@QAE@XZ

; 441  : 	
; 442  : 	//swf	
; 443  : 	if( m_pGameFlash->GetMovie().Compare( strPath.c_str() ) == 0  )

  02901	8d 8d 7c ff ff
	ff		 lea	 ecx, DWORD PTR $T207885[ebp]
  02907	51		 push	 ecx
  02908	8b 95 3c ff ff
	ff		 mov	 edx, DWORD PTR _this$[ebp]
  0290e	8b 4a 60	 mov	 ecx, DWORD PTR [edx+96]
  02911	e8 00 00 00 00	 call	 ?GetMovie@CShockwaveFlash@@QAE?AV?$CStringT@DV?$StrTraitMFC_DLL@DV?$ChTraitsCRT@D@ATL@@@@@ATL@@XZ ; CShockwaveFlash::GetMovie
  02916	89 85 38 ff ff
	ff		 mov	 DWORD PTR tv89[ebp], eax
  0291c	8b 85 38 ff ff
	ff		 mov	 eax, DWORD PTR tv89[ebp]
  02922	89 85 34 ff ff
	ff		 mov	 DWORD PTR tv184[ebp], eax
  02928	c6 45 fc 06	 mov	 BYTE PTR __$EHRec$[ebp+8], 6
  0292c	8d 4d 24	 lea	 ecx, DWORD PTR _strPath$[ebp]
  0292f	ff 15 00 00 00
	00		 call	 DWORD PTR __imp_?c_str@?$basic_string@DU?$char_traits@D@std@@V?$allocator@D@2@@std@@QBEPBDXZ
  02935	50		 push	 eax
  02936	8b 8d 34 ff ff
	ff		 mov	 ecx, DWORD PTR tv184[ebp]
  0293c	ff 15 00 00 00
	00		 call	 DWORD PTR __imp_?Compare@?$CStringT@DV?$StrTraitMFC_DLL@DV?$ChTraitsCRT@D@ATL@@@@@ATL@@QBEHPBD@Z
  02942	f7 d8		 neg	 eax
  02944	1b c0		 sbb	 eax, eax
  02946	40		 inc	 eax
  02947	88 45 83	 mov	 BYTE PTR $T207884[ebp], al
  0294a	c6 45 fc 01	 mov	 BYTE PTR __$EHRec$[ebp+8], 1
  0294e	8d 8d 7c ff ff
	ff		 lea	 ecx, DWORD PTR $T207885[ebp]
  02954	ff 15 00 00 00
	00		 call	 DWORD PTR __imp_??1?$CStringT@DV?$StrTraitMFC_DLL@DV?$ChTraitsCRT@D@ATL@@@@@ATL@@QAE@XZ
  0295a	0f b6 4d 83	 movzx	 ecx, BYTE PTR $T207884[ebp]
  0295e	85 c9		 test	 ecx, ecx
  02960	74 50		 je	 SHORT $L204816

; 444  : 	{
; 445  : 		m_pGameFlash->SetMovie( GlobalSwfPath::Nothing() );

  02962	8d 95 78 ff ff
	ff		 lea	 edx, DWORD PTR $T207886[ebp]
  02968	52		 push	 edx
  02969	e8 00 00 00 00	 call	 ?Nothing@GlobalSwfPath@@SA?AV?$CStringT@DV?$StrTraitMFC_DLL@DV?$ChTraitsCRT@D@ATL@@@@@ATL@@XZ ; GlobalSwfPath::Nothing
  0296e	83 c4 04	 add	 esp, 4
  02971	89 85 30 ff ff
	ff		 mov	 DWORD PTR tv83[ebp], eax
  02977	8b 85 30 ff ff
	ff		 mov	 eax, DWORD PTR tv83[ebp]
  0297d	89 85 2c ff ff
	ff		 mov	 DWORD PTR tv186[ebp], eax
  02983	c6 45 fc 07	 mov	 BYTE PTR __$EHRec$[ebp+8], 7
  02987	8b 8d 2c ff ff
	ff		 mov	 ecx, DWORD PTR tv186[ebp]
  0298d	ff 15 00 00 00
	00		 call	 DWORD PTR __imp_??B?$CSimpleStringT@D$00@ATL@@QBEPBDXZ
  02993	50		 push	 eax
  02994	8b 8d 3c ff ff
	ff		 mov	 ecx, DWORD PTR _this$[ebp]
  0299a	8b 49 60	 mov	 ecx, DWORD PTR [ecx+96]
  0299d	e8 00 00 00 00	 call	 ?SetMovie@CShockwaveFlash@@QAEXPBD@Z ; CShockwaveFlash::SetMovie
  029a2	c6 45 fc 01	 mov	 BYTE PTR __$EHRec$[ebp+8], 1
  029a6	8d 8d 78 ff ff
	ff		 lea	 ecx, DWORD PTR $T207886[ebp]
  029ac	ff 15 00 00 00
	00		 call	 DWORD PTR __imp_??1?$CStringT@DV?$StrTraitMFC_DLL@DV?$ChTraitsCRT@D@ATL@@@@@ATL@@QAE@XZ
$L204816:

; 446  : 	}
; 447  : 	m_pGameFlash->SetMovie(strPath.c_str());

  029b2	8d 4d 24	 lea	 ecx, DWORD PTR _strPath$[ebp]
  029b5	ff 15 00 00 00
	00		 call	 DWORD PTR __imp_?c_str@?$basic_string@DU?$char_traits@D@std@@V?$allocator@D@2@@std@@QBEPBDXZ
  029bb	50		 push	 eax
  029bc	8b 95 3c ff ff
	ff		 mov	 edx, DWORD PTR _this$[ebp]
  029c2	8b 4a 60	 mov	 ecx, DWORD PTR [edx+96]
  029c5	e8 00 00 00 00	 call	 ?SetMovie@CShockwaveFlash@@QAEXPBD@Z ; CShockwaveFlash::SetMovie

; 448  : 	m_pGameFlash->Play();

  029ca	8b 85 3c ff ff
	ff		 mov	 eax, DWORD PTR _this$[ebp]
  029d0	8b 48 60	 mov	 ecx, DWORD PTR [eax+96]
  029d3	e8 00 00 00 00	 call	 ?Play@CShockwaveFlash@@QAEXXZ ; CShockwaveFlash::Play

; 449  : 	m_pGameFlash->SetFocus();

  029d8	8b 8d 3c ff ff
	ff		 mov	 ecx, DWORD PTR _this$[ebp]
  029de	8b 49 60	 mov	 ecx, DWORD PTR [ecx+96]
  029e1	e8 00 00 00 00	 call	 ?SetFocus@CWnd@@QAEPAV1@XZ ; CWnd::SetFocus

; 450  : 	//FIRST_SWF_GAME
; 451  : 	LogPlaySwfGameAct();

  029e6	8b 8d 3c ff ff
	ff		 mov	 ecx, DWORD PTR _this$[ebp]
  029ec	e8 00 00 00 00	 call	 ?LogPlaySwfGameAct@GamePanelWnd@@AAEXXZ ; GamePanelWnd::LogPlaySwfGameAct

; 452  : 	YL_Log("GamePanelWnd.txt", LOG_DEBUG, "GamePanelWnd::PlayMovie", "===OUT");

  029f1	68 00 00 00 00	 push	 OFFSET FLAT:$SG204822
  029f6	8d 8d 5c ff ff
	ff		 lea	 ecx, DWORD PTR $T207887[ebp]
  029fc	ff 15 00 00 00
	00		 call	 DWORD PTR __imp_??0?$basic_string@DU?$char_traits@D@std@@V?$allocator@D@2@@std@@QAE@PBD@Z
  02a02	c6 45 fc 08	 mov	 BYTE PTR __$EHRec$[ebp+8], 8
  02a06	68 00 00 00 00	 push	 OFFSET FLAT:$SG204823
  02a0b	8d 8d 40 ff ff
	ff		 lea	 ecx, DWORD PTR $T207888[ebp]
  02a11	ff 15 00 00 00
	00		 call	 DWORD PTR __imp_??0?$basic_string@DU?$char_traits@D@std@@V?$allocator@D@2@@std@@QAE@PBD@Z
  02a17	c6 45 fc 09	 mov	 BYTE PTR __$EHRec$[ebp+8], 9
  02a1b	68 00 00 00 00	 push	 OFFSET FLAT:$SG204821
  02a20	8d 95 5c ff ff
	ff		 lea	 edx, DWORD PTR $T207887[ebp]
  02a26	52		 push	 edx
  02a27	6a 00		 push	 0
  02a29	8d 85 40 ff ff
	ff		 lea	 eax, DWORD PTR $T207888[ebp]
  02a2f	50		 push	 eax
  02a30	ff 15 00 00 00
	00		 call	 DWORD PTR __imp_?YL_Log@@YAXABV?$basic_string@DU?$char_traits@D@std@@V?$allocator@D@2@@std@@H0PBDZZ
  02a36	83 c4 10	 add	 esp, 16			; 00000010H
  02a39	c6 45 fc 08	 mov	 BYTE PTR __$EHRec$[ebp+8], 8
  02a3d	8d 8d 40 ff ff
	ff		 lea	 ecx, DWORD PTR $T207888[ebp]
  02a43	ff 15 00 00 00
	00		 call	 DWORD PTR __imp_??1?$basic_string@DU?$char_traits@D@std@@V?$allocator@D@2@@std@@QAE@XZ
  02a49	c6 45 fc 01	 mov	 BYTE PTR __$EHRec$[ebp+8], 1
  02a4d	8d 8d 5c ff ff
	ff		 lea	 ecx, DWORD PTR $T207887[ebp]
  02a53	ff 15 00 00 00
	00		 call	 DWORD PTR __imp_??1?$basic_string@DU?$char_traits@D@std@@V?$allocator@D@2@@std@@QAE@XZ

; 453  : }

  02a59	c6 45 fc 00	 mov	 BYTE PTR __$EHRec$[ebp+8], 0
  02a5d	8d 4d 08	 lea	 ecx, DWORD PTR _strID$[ebp]
  02a60	ff 15 00 00 00
	00		 call	 DWORD PTR __imp_??1?$basic_string@DU?$char_traits@D@std@@V?$allocator@D@2@@std@@QAE@XZ
  02a66	c7 45 fc ff ff
	ff ff		 mov	 DWORD PTR __$EHRec$[ebp+8], -1
  02a6d	8d 4d 24	 lea	 ecx, DWORD PTR _strPath$[ebp]
  02a70	ff 15 00 00 00
	00		 call	 DWORD PTR __imp_??1?$basic_string@DU?$char_traits@D@std@@V?$allocator@D@2@@std@@QAE@XZ
  02a76	8b 4d f4	 mov	 ecx, DWORD PTR __$EHRec$[ebp]
  02a79	64 89 0d 00 00
	00 00		 mov	 DWORD PTR fs:__except_list, ecx
  02a80	8b e5		 mov	 esp, ebp
  02a82	5d		 pop	 ebp
  02a83	c2 38 00	 ret	 56			; 00000038H
_TEXT	ENDS
text$x	SEGMENT
$L207889:
  005cf	8d 4d 24	 lea	 ecx, DWORD PTR _strPath$[ebp]
  005d2	ff 25 00 00 00
	00		 jmp	 DWORD PTR __imp_??1?$basic_string@DU?$char_traits@D@std@@V?$allocator@D@2@@std@@QAE@XZ
$L207890:
  005d8	8d 4d 08	 lea	 ecx, DWORD PTR _strID$[ebp]
  005db	ff 25 00 00 00
	00		 jmp	 DWORD PTR __imp_??1?$basic_string@DU?$char_traits@D@std@@V?$allocator@D@2@@std@@QAE@XZ
$L207891:
  005e1	8d 4d d8	 lea	 ecx, DWORD PTR $T207880[ebp]
  005e4	ff 25 00 00 00
	00		 jmp	 DWORD PTR __imp_??1?$basic_string@DU?$char_traits@D@std@@V?$allocator@D@2@@std@@QAE@XZ
$L207892:
  005ea	8d 4d bc	 lea	 ecx, DWORD PTR $T207881[ebp]
  005ed	ff 25 00 00 00
	00		 jmp	 DWORD PTR __imp_??1?$basic_string@DU?$char_traits@D@std@@V?$allocator@D@2@@std@@QAE@XZ
$L207893:
  005f3	8d 4d a0	 lea	 ecx, DWORD PTR $T207882[ebp]
  005f6	ff 25 00 00 00
	00		 jmp	 DWORD PTR __imp_??1?$basic_string@DU?$char_traits@D@std@@V?$allocator@D@2@@std@@QAE@XZ
$L207894:
  005fc	8d 4d 84	 lea	 ecx, DWORD PTR $T207883[ebp]
  005ff	ff 25 00 00 00
	00		 jmp	 DWORD PTR __imp_??1?$basic_string@DU?$char_traits@D@std@@V?$allocator@D@2@@std@@QAE@XZ
$L207895:
  00605	8d 8d 7c ff ff
	ff		 lea	 ecx, DWORD PTR $T207885[ebp]
  0060b	ff 25 00 00 00
	00		 jmp	 DWORD PTR __imp_??1?$CStringT@DV?$StrTraitMFC_DLL@DV?$ChTraitsCRT@D@ATL@@@@@ATL@@QAE@XZ
$L207896:
  00611	8d 8d 78 ff ff
	ff		 lea	 ecx, DWORD PTR $T207886[ebp]
  00617	ff 25 00 00 00
	00		 jmp	 DWORD PTR __imp_??1?$CStringT@DV?$StrTraitMFC_DLL@DV?$ChTraitsCRT@D@ATL@@@@@ATL@@QAE@XZ
$L207897:
  0061d	8d 8d 5c ff ff
	ff		 lea	 ecx, DWORD PTR $T207887[ebp]
  00623	ff 25 00 00 00
	00		 jmp	 DWORD PTR __imp_??1?$basic_string@DU?$char_traits@D@std@@V?$allocator@D@2@@std@@QAE@XZ
$L207898:
  00629	8d 8d 40 ff ff
	ff		 lea	 ecx, DWORD PTR $T207888[ebp]
  0062f	ff 25 00 00 00
	00		 jmp	 DWORD PTR __imp_??1?$basic_string@DU?$char_traits@D@std@@V?$allocator@D@2@@std@@QAE@XZ
__ehhandler$?PlayMovie@GamePanelWnd@@QAEXV?$basic_string@DU?$char_traits@D@std@@V?$allocator@D@2@@std@@0@Z:
  00635	b8 00 00 00 00	 mov	 eax, OFFSET FLAT:$T207900
  0063a	e9 00 00 00 00	 jmp	 ___CxxFrameHandler
text$x	ENDS
?PlayMovie@GamePanelWnd@@QAEXV?$basic_string@DU?$char_traits@D@std@@V?$allocator@D@2@@std@@0@Z ENDP ; GamePanelWnd::PlayMovie
PUBLIC	?GetSwfPath@GlobalSwfPath@@SA?AV?$CStringT@DV?$StrTraitMFC_DLL@DV?$ChTraitsCRT@D@ATL@@@@@ATL@@XZ ; GlobalSwfPath::GetSwfPath
PUBLIC	??_C@_08OLHMJGAF@stop?4swf?$AA@			; `string'
PUBLIC	??HATL@@YA?AV?$CStringT@DV?$StrTraitMFC_DLL@DV?$ChTraitsCRT@D@ATL@@@@@0@ABV10@PBD@Z ; ATL::operator+
;	COMDAT xdata$x
; File d:\boxgit\playbox\playbox\dev\prj\playbox\src\global\globalswfpath.h
xdata$x	SEGMENT
$T207912 DD	0ffffffffH
	DD	FLAT:$L207905
$T207910 DD	019930520H
	DD	01H
	DD	FLAT:$T207912
	DD	2 DUP(00H)
	DD	2 DUP(00H)
xdata$x	ENDS
;	COMDAT ??_C@_08OLHMJGAF@stop?4swf?$AA@
CONST	SEGMENT
??_C@_08OLHMJGAF@stop?4swf?$AA@ DB 'stop.swf', 00H	; `string'
; Function compile flags: /Odt
CONST	ENDS
;	COMDAT ?Nothing@GlobalSwfPath@@SA?AV?$CStringT@DV?$StrTraitMFC_DLL@DV?$ChTraitsCRT@D@ATL@@@@@ATL@@XZ
_TEXT	SEGMENT
tv74 = -28						; size = 4
tv64 = -24						; size = 4
$T207907 = -20						; size = 4
$T207904 = -16						; size = 4
__$EHRec$ = -12						; size = 12
___$ReturnUdt$ = 8					; size = 4
?Nothing@GlobalSwfPath@@SA?AV?$CStringT@DV?$StrTraitMFC_DLL@DV?$ChTraitsCRT@D@ATL@@@@@ATL@@XZ PROC NEAR ; GlobalSwfPath::Nothing, COMDAT

; 11   : 	{

  00000	55		 push	 ebp
  00001	8b ec		 mov	 ebp, esp
  00003	6a ff		 push	 -1
  00005	68 00 00 00 00	 push	 __ehhandler$?Nothing@GlobalSwfPath@@SA?AV?$CStringT@DV?$StrTraitMFC_DLL@DV?$ChTraitsCRT@D@ATL@@@@@ATL@@XZ
  0000a	64 a1 00 00 00
	00		 mov	 eax, DWORD PTR fs:__except_list
  00010	50		 push	 eax
  00011	64 89 25 00 00
	00 00		 mov	 DWORD PTR fs:__except_list, esp
  00018	83 ec 10	 sub	 esp, 16			; 00000010H
  0001b	c7 45 ec 00 00
	00 00		 mov	 DWORD PTR $T207907[ebp], 0

; 12   : 		return GetSwfPath() + "stop.swf";

  00022	8d 45 f0	 lea	 eax, DWORD PTR $T207904[ebp]
  00025	50		 push	 eax
  00026	e8 00 00 00 00	 call	 ?GetSwfPath@GlobalSwfPath@@SA?AV?$CStringT@DV?$StrTraitMFC_DLL@DV?$ChTraitsCRT@D@ATL@@@@@ATL@@XZ ; GlobalSwfPath::GetSwfPath
  0002b	83 c4 04	 add	 esp, 4
  0002e	89 45 e8	 mov	 DWORD PTR tv64[ebp], eax
  00031	8b 4d e8	 mov	 ecx, DWORD PTR tv64[ebp]
  00034	89 4d e4	 mov	 DWORD PTR tv74[ebp], ecx
  00037	c7 45 fc 00 00
	00 00		 mov	 DWORD PTR __$EHRec$[ebp+8], 0
  0003e	68 00 00 00 00	 push	 OFFSET FLAT:??_C@_08OLHMJGAF@stop?4swf?$AA@
  00043	8b 55 e4	 mov	 edx, DWORD PTR tv74[ebp]
  00046	52		 push	 edx
  00047	8b 45 08	 mov	 eax, DWORD PTR ___$ReturnUdt$[ebp]
  0004a	50		 push	 eax
  0004b	e8 00 00 00 00	 call	 ??HATL@@YA?AV?$CStringT@DV?$StrTraitMFC_DLL@DV?$ChTraitsCRT@D@ATL@@@@@0@ABV10@PBD@Z ; ATL::operator+
  00050	83 c4 0c	 add	 esp, 12			; 0000000cH
  00053	8b 4d ec	 mov	 ecx, DWORD PTR $T207907[ebp]
  00056	83 c9 01	 or	 ecx, 1
  00059	89 4d ec	 mov	 DWORD PTR $T207907[ebp], ecx
  0005c	c7 45 fc ff ff
	ff ff		 mov	 DWORD PTR __$EHRec$[ebp+8], -1
  00063	8d 4d f0	 lea	 ecx, DWORD PTR $T207904[ebp]
  00066	ff 15 00 00 00
	00		 call	 DWORD PTR __imp_??1?$CStringT@DV?$StrTraitMFC_DLL@DV?$ChTraitsCRT@D@ATL@@@@@ATL@@QAE@XZ
  0006c	8b 45 08	 mov	 eax, DWORD PTR ___$ReturnUdt$[ebp]

; 13   : 	}

  0006f	8b 4d f4	 mov	 ecx, DWORD PTR __$EHRec$[ebp]
  00072	64 89 0d 00 00
	00 00		 mov	 DWORD PTR fs:__except_list, ecx
  00079	8b e5		 mov	 esp, ebp
  0007b	5d		 pop	 ebp
  0007c	c3		 ret	 0
_TEXT	ENDS
;	COMDAT text$x
text$x	SEGMENT
$L207905:
  00000	8d 4d f0	 lea	 ecx, DWORD PTR $T207904[ebp]
  00003	ff 25 00 00 00
	00		 jmp	 DWORD PTR __imp_??1?$CStringT@DV?$StrTraitMFC_DLL@DV?$ChTraitsCRT@D@ATL@@@@@ATL@@QAE@XZ
__ehhandler$?Nothing@GlobalSwfPath@@SA?AV?$CStringT@DV?$StrTraitMFC_DLL@DV?$ChTraitsCRT@D@ATL@@@@@ATL@@XZ:
  00009	b8 00 00 00 00	 mov	 eax, OFFSET FLAT:$T207910
  0000e	e9 00 00 00 00	 jmp	 ___CxxFrameHandler
text$x	ENDS
?Nothing@GlobalSwfPath@@SA?AV?$CStringT@DV?$StrTraitMFC_DLL@DV?$ChTraitsCRT@D@ATL@@@@@ATL@@XZ ENDP ; GlobalSwfPath::Nothing
PUBLIC	??_C@_0BH@PCLJNBEP@?2Resources?2StandardUI?2?$AA@ ; `string'
PUBLIC	??_C@_00CNPNBAHC@?$AA@				; `string'
;	COMDAT xdata$x
xdata$x	SEGMENT
$T207927 DD	0ffffffffH
	DD	FLAT:$L207919
$T207924 DD	019930520H
	DD	01H
	DD	FLAT:$T207927
	DD	2 DUP(00H)
	DD	2 DUP(00H)
xdata$x	ENDS
;	COMDAT ??_C@_0BH@PCLJNBEP@?2Resources?2StandardUI?2?$AA@
CONST	SEGMENT
??_C@_0BH@PCLJNBEP@?2Resources?2StandardUI?2?$AA@ DB '\Resources\Standard'
	DB	'UI\', 00H					; `string'
CONST	ENDS
;	COMDAT ??_C@_00CNPNBAHC@?$AA@
CONST	SEGMENT
??_C@_00CNPNBAHC@?$AA@ DB 00H				; `string'
; Function compile flags: /Odt
CONST	ENDS
;	COMDAT ?GetSwfPath@GlobalSwfPath@@SA?AV?$CStringT@DV?$StrTraitMFC_DLL@DV?$ChTraitsCRT@D@ATL@@@@@ATL@@XZ
_TEXT	SEGMENT
tv84 = -548						; size = 4
tv80 = -544						; size = 4
$T207921 = -540						; size = 4
$T207918 = -536						; size = 4
_szBuffer$ = -532					; size = 512
__$ArrayPad$ = -16					; size = 4
__$EHRec$ = -12						; size = 12
__$ReturnAddr$ = 4					; size = 4
___$ReturnUdt$ = 8					; size = 4
?GetSwfPath@GlobalSwfPath@@SA?AV?$CStringT@DV?$StrTraitMFC_DLL@DV?$ChTraitsCRT@D@ATL@@@@@ATL@@XZ PROC NEAR ; GlobalSwfPath::GetSwfPath, COMDAT

; 20   : 	{

  00000	55		 push	 ebp
  00001	8b ec		 mov	 ebp, esp
  00003	6a ff		 push	 -1
  00005	68 00 00 00 00	 push	 __ehhandler$?GetSwfPath@GlobalSwfPath@@SA?AV?$CStringT@DV?$StrTraitMFC_DLL@DV?$ChTraitsCRT@D@ATL@@@@@ATL@@XZ
  0000a	64 a1 00 00 00
	00		 mov	 eax, DWORD PTR fs:__except_list
  00010	50		 push	 eax
  00011	64 89 25 00 00
	00 00		 mov	 DWORD PTR fs:__except_list, esp
  00018	81 ec 18 02 00
	00		 sub	 esp, 536		; 00000218H
  0001e	a1 00 00 00 00	 mov	 eax, DWORD PTR ___security_cookie
  00023	89 45 f0	 mov	 DWORD PTR __$ArrayPad$[ebp], eax
  00026	c7 85 e4 fd ff
	ff 00 00 00 00	 mov	 DWORD PTR $T207921[ebp], 0

; 21   : 		char szBuffer[512];
; 22   : 		if( CLhcImg::GetHomePath( szBuffer,512) )

  00030	68 00 02 00 00	 push	 512			; 00000200H
  00035	8d 85 ec fd ff
	ff		 lea	 eax, DWORD PTR _szBuffer$[ebp]
  0003b	50		 push	 eax
  0003c	e8 00 00 00 00	 call	 ?GetHomePath@CLhcImg@@SA_NQADH@Z ; CLhcImg::GetHomePath
  00041	83 c4 08	 add	 esp, 8
  00044	0f b6 c8	 movzx	 ecx, al
  00047	85 c9		 test	 ecx, ecx
  00049	74 6b		 je	 SHORT $L202937

; 23   : 		{
; 24   : 			return CString( szBuffer ) + "\\Resources\\StandardUI\\";

  0004b	8d 95 ec fd ff
	ff		 lea	 edx, DWORD PTR _szBuffer$[ebp]
  00051	52		 push	 edx
  00052	8d 8d e8 fd ff
	ff		 lea	 ecx, DWORD PTR $T207918[ebp]
  00058	ff 15 00 00 00
	00		 call	 DWORD PTR __imp_??0?$CStringT@DV?$StrTraitMFC_DLL@DV?$ChTraitsCRT@D@ATL@@@@@ATL@@QAE@PBD@Z
  0005e	89 85 e0 fd ff
	ff		 mov	 DWORD PTR tv80[ebp], eax
  00064	8b 85 e0 fd ff
	ff		 mov	 eax, DWORD PTR tv80[ebp]
  0006a	89 85 dc fd ff
	ff		 mov	 DWORD PTR tv84[ebp], eax
  00070	c7 45 fc 00 00
	00 00		 mov	 DWORD PTR __$EHRec$[ebp+8], 0
  00077	68 00 00 00 00	 push	 OFFSET FLAT:??_C@_0BH@PCLJNBEP@?2Resources?2StandardUI?2?$AA@
  0007c	8b 8d dc fd ff
	ff		 mov	 ecx, DWORD PTR tv84[ebp]
  00082	51		 push	 ecx
  00083	8b 55 08	 mov	 edx, DWORD PTR ___$ReturnUdt$[ebp]
  00086	52		 push	 edx
  00087	e8 00 00 00 00	 call	 ??HATL@@YA?AV?$CStringT@DV?$StrTraitMFC_DLL@DV?$ChTraitsCRT@D@ATL@@@@@0@ABV10@PBD@Z ; ATL::operator+
  0008c	83 c4 0c	 add	 esp, 12			; 0000000cH
  0008f	8b 85 e4 fd ff
	ff		 mov	 eax, DWORD PTR $T207921[ebp]
  00095	83 c8 01	 or	 eax, 1
  00098	89 85 e4 fd ff
	ff		 mov	 DWORD PTR $T207921[ebp], eax
  0009e	c7 45 fc ff ff
	ff ff		 mov	 DWORD PTR __$EHRec$[ebp+8], -1
  000a5	8d 8d e8 fd ff
	ff		 lea	 ecx, DWORD PTR $T207918[ebp]
  000ab	ff 15 00 00 00
	00		 call	 DWORD PTR __imp_??1?$CStringT@DV?$StrTraitMFC_DLL@DV?$ChTraitsCRT@D@ATL@@@@@ATL@@QAE@XZ
  000b1	8b 45 08	 mov	 eax, DWORD PTR ___$ReturnUdt$[ebp]
  000b4	eb 20		 jmp	 SHORT $L202935
$L202937:

; 25   : 		}else
; 26   : 		{
; 27   : 			return "";

  000b6	68 00 00 00 00	 push	 OFFSET FLAT:??_C@_00CNPNBAHC@?$AA@
  000bb	8b 4d 08	 mov	 ecx, DWORD PTR ___$ReturnUdt$[ebp]
  000be	ff 15 00 00 00
	00		 call	 DWORD PTR __imp_??0?$CStringT@DV?$StrTraitMFC_DLL@DV?$ChTraitsCRT@D@ATL@@@@@ATL@@QAE@PBD@Z
  000c4	8b 8d e4 fd ff
	ff		 mov	 ecx, DWORD PTR $T207921[ebp]
  000ca	83 c9 01	 or	 ecx, 1
  000cd	89 8d e4 fd ff
	ff		 mov	 DWORD PTR $T207921[ebp], ecx
  000d3	8b 45 08	 mov	 eax, DWORD PTR ___$ReturnUdt$[ebp]
$L202935:

; 28   : 		}
; 29   : 	}

  000d6	8b 4d f4	 mov	 ecx, DWORD PTR __$EHRec$[ebp]
  000d9	64 89 0d 00 00
	00 00		 mov	 DWORD PTR fs:__except_list, ecx
  000e0	8b 4d f0	 mov	 ecx, DWORD PTR __$ArrayPad$[ebp]
  000e3	e8 00 00 00 00	 call	 @__security_check_cookie@4
  000e8	8b e5		 mov	 esp, ebp
  000ea	5d		 pop	 ebp
  000eb	c3		 ret	 0
_TEXT	ENDS
;	COMDAT text$x
text$x	SEGMENT
$L207919:
  00000	8d 8d e8 fd ff
	ff		 lea	 ecx, DWORD PTR $T207918[ebp]
  00006	ff 25 00 00 00
	00		 jmp	 DWORD PTR __imp_??1?$CStringT@DV?$StrTraitMFC_DLL@DV?$ChTraitsCRT@D@ATL@@@@@ATL@@QAE@XZ
__ehhandler$?GetSwfPath@GlobalSwfPath@@SA?AV?$CStringT@DV?$StrTraitMFC_DLL@DV?$ChTraitsCRT@D@ATL@@@@@ATL@@XZ:
  0000c	b8 00 00 00 00	 mov	 eax, OFFSET FLAT:$T207924
  00011	e9 00 00 00 00	 jmp	 ___CxxFrameHandler
text$x	ENDS
?GetSwfPath@GlobalSwfPath@@SA?AV?$CStringT@DV?$StrTraitMFC_DLL@DV?$ChTraitsCRT@D@ATL@@@@@ATL@@XZ ENDP ; GlobalSwfPath::GetSwfPath
PUBLIC	__real@4130000000000000
EXTRN	__imp_??0?$CStringT@DV?$StrTraitMFC_DLL@DV?$ChTraitsCRT@D@ATL@@@@@ATL@@QAE@XZ:NEAR
EXTRN	__imp_??0?$CStringT@DV?$StrTraitMFC_DLL@DV?$ChTraitsCRT@D@ATL@@@@@ATL@@QAE@ABV01@@Z:NEAR
EXTRN	__imp_?Format@?$CStringT@DV?$StrTraitMFC_DLL@DV?$ChTraitsCRT@D@ATL@@@@@ATL@@QAAXPBDZZ:NEAR
xdata$x	SEGMENT
$T207941 DD	0ffffffffH
	DD	FLAT:$L207932
$T207937 DD	019930520H
	DD	01H
	DD	FLAT:$T207941
	DD	2 DUP(00H)
	DD	2 DUP(00H)
xdata$x	ENDS
;	COMDAT __real@4130000000000000
; File d:\boxgit\playbox\playbox\dev\prj\playbox\src\module\gamepanel\gamepanelwnd.cpp
CONST	SEGMENT
__real@4130000000000000 DQ 04130000000000000r	; 1.04858e+006
; Function compile flags: /Odt
CONST	ENDS
_TEXT	SEGMENT
tv93 = -44						; size = 8
_this$ = -36						; size = 4
$T207934 = -32						; size = 4
_result$204831 = -28					; size = 8
_str$ = -16						; size = 4
__$EHRec$ = -12						; size = 12
___$ReturnUdt$ = 8					; size = 4
_ui$ = 12						; size = 4
?UINT2CString@GamePanelWnd@@AAE?AV?$CStringT@DV?$StrTraitMFC_DLL@DV?$ChTraitsCRT@D@ATL@@@@@ATL@@I@Z PROC NEAR ; GamePanelWnd::UINT2CString
; _this$ = ecx

; 456  : {

  02a90	55		 push	 ebp
  02a91	8b ec		 mov	 ebp, esp
  02a93	6a ff		 push	 -1
  02a95	68 00 00 00 00	 push	 __ehhandler$?UINT2CString@GamePanelWnd@@AAE?AV?$CStringT@DV?$StrTraitMFC_DLL@DV?$ChTraitsCRT@D@ATL@@@@@ATL@@I@Z
  02a9a	64 a1 00 00 00
	00		 mov	 eax, DWORD PTR fs:__except_list
  02aa0	50		 push	 eax
  02aa1	64 89 25 00 00
	00 00		 mov	 DWORD PTR fs:__except_list, esp
  02aa8	83 ec 20	 sub	 esp, 32			; 00000020H
  02aab	89 4d dc	 mov	 DWORD PTR _this$[ebp], ecx
  02aae	c7 45 e0 00 00
	00 00		 mov	 DWORD PTR $T207934[ebp], 0

; 457  : 	CString str;

  02ab5	8d 4d f0	 lea	 ecx, DWORD PTR _str$[ebp]
  02ab8	ff 15 00 00 00
	00		 call	 DWORD PTR __imp_??0?$CStringT@DV?$StrTraitMFC_DLL@DV?$ChTraitsCRT@D@ATL@@@@@ATL@@QAE@XZ
  02abe	c7 45 fc 00 00
	00 00		 mov	 DWORD PTR __$EHRec$[ebp+8], 0

; 458  : 	if(0 != (ui/(1<<20)))

  02ac5	8b 45 0c	 mov	 eax, DWORD PTR _ui$[ebp]
  02ac8	c1 e8 14	 shr	 eax, 20			; 00000014H
  02acb	85 c0		 test	 eax, eax
  02acd	74 33		 je	 SHORT $L204830

; 459  : 	{
; 460  : 		double result = (double)ui/(1<<20);

  02acf	8b 4d 0c	 mov	 ecx, DWORD PTR _ui$[ebp]
  02ad2	89 4d d4	 mov	 DWORD PTR tv93[ebp], ecx
  02ad5	c7 45 d8 00 00
	00 00		 mov	 DWORD PTR tv93[ebp+4], 0
  02adc	df 6d d4	 fild	 QWORD PTR tv93[ebp]
  02adf	dc 35 00 00 00
	00		 fdiv	 QWORD PTR __real@4130000000000000
  02ae5	dd 55 e4	 fst	 QWORD PTR _result$204831[ebp]

; 461  : 		str.Format("%.2f MB", result);

  02ae8	83 ec 08	 sub	 esp, 8
  02aeb	dd 1c 24	 fstp	 QWORD PTR [esp]
  02aee	68 00 00 00 00	 push	 OFFSET FLAT:$SG204833
  02af3	8d 55 f0	 lea	 edx, DWORD PTR _str$[ebp]
  02af6	52		 push	 edx
  02af7	ff 15 00 00 00
	00		 call	 DWORD PTR __imp_?Format@?$CStringT@DV?$StrTraitMFC_DLL@DV?$ChTraitsCRT@D@ATL@@@@@ATL@@QAAXPBDZZ
  02afd	83 c4 10	 add	 esp, 16			; 00000010H

; 462  : 	}else

  02b00	eb 3b		 jmp	 SHORT $L204834
$L204830:

; 463  : 	if( 0 != (ui/(1<<10)) )

  02b02	8b 45 0c	 mov	 eax, DWORD PTR _ui$[ebp]
  02b05	c1 e8 0a	 shr	 eax, 10			; 0000000aH
  02b08	85 c0		 test	 eax, eax
  02b0a	74 1b		 je	 SHORT $L204835

; 464  : 	{
; 465  : 		str.Format("%d KB", ui/(1<<10));

  02b0c	8b 4d 0c	 mov	 ecx, DWORD PTR _ui$[ebp]
  02b0f	c1 e9 0a	 shr	 ecx, 10			; 0000000aH
  02b12	51		 push	 ecx
  02b13	68 00 00 00 00	 push	 OFFSET FLAT:$SG204836
  02b18	8d 55 f0	 lea	 edx, DWORD PTR _str$[ebp]
  02b1b	52		 push	 edx
  02b1c	ff 15 00 00 00
	00		 call	 DWORD PTR __imp_?Format@?$CStringT@DV?$StrTraitMFC_DLL@DV?$ChTraitsCRT@D@ATL@@@@@ATL@@QAAXPBDZZ
  02b22	83 c4 0c	 add	 esp, 12			; 0000000cH

; 466  : 	}else

  02b25	eb 16		 jmp	 SHORT $L204834
$L204835:

; 467  : 	{
; 468  : 		str.Format("%d B", ui);

  02b27	8b 45 0c	 mov	 eax, DWORD PTR _ui$[ebp]
  02b2a	50		 push	 eax
  02b2b	68 00 00 00 00	 push	 OFFSET FLAT:$SG204838
  02b30	8d 4d f0	 lea	 ecx, DWORD PTR _str$[ebp]
  02b33	51		 push	 ecx
  02b34	ff 15 00 00 00
	00		 call	 DWORD PTR __imp_?Format@?$CStringT@DV?$StrTraitMFC_DLL@DV?$ChTraitsCRT@D@ATL@@@@@ATL@@QAAXPBDZZ
  02b3a	83 c4 0c	 add	 esp, 12			; 0000000cH
$L204834:

; 469  : 	}
; 470  : 
; 471  : 	return str;

  02b3d	8d 55 f0	 lea	 edx, DWORD PTR _str$[ebp]
  02b40	52		 push	 edx
  02b41	8b 4d 08	 mov	 ecx, DWORD PTR ___$ReturnUdt$[ebp]
  02b44	ff 15 00 00 00
	00		 call	 DWORD PTR __imp_??0?$CStringT@DV?$StrTraitMFC_DLL@DV?$ChTraitsCRT@D@ATL@@@@@ATL@@QAE@ABV01@@Z
  02b4a	8b 45 e0	 mov	 eax, DWORD PTR $T207934[ebp]
  02b4d	83 c8 01	 or	 eax, 1
  02b50	89 45 e0	 mov	 DWORD PTR $T207934[ebp], eax
  02b53	c7 45 fc ff ff
	ff ff		 mov	 DWORD PTR __$EHRec$[ebp+8], -1
  02b5a	8d 4d f0	 lea	 ecx, DWORD PTR _str$[ebp]
  02b5d	ff 15 00 00 00
	00		 call	 DWORD PTR __imp_??1?$CStringT@DV?$StrTraitMFC_DLL@DV?$ChTraitsCRT@D@ATL@@@@@ATL@@QAE@XZ
  02b63	8b 45 08	 mov	 eax, DWORD PTR ___$ReturnUdt$[ebp]

; 472  : }

  02b66	8b 4d f4	 mov	 ecx, DWORD PTR __$EHRec$[ebp]
  02b69	64 89 0d 00 00
	00 00		 mov	 DWORD PTR fs:__except_list, ecx
  02b70	8b e5		 mov	 esp, ebp
  02b72	5d		 pop	 ebp
  02b73	c2 08 00	 ret	 8
_TEXT	ENDS
text$x	SEGMENT
$L207932:
  0063f	8d 4d f0	 lea	 ecx, DWORD PTR _str$[ebp]
  00642	ff 25 00 00 00
	00		 jmp	 DWORD PTR __imp_??1?$CStringT@DV?$StrTraitMFC_DLL@DV?$ChTraitsCRT@D@ATL@@@@@ATL@@QAE@XZ
__ehhandler$?UINT2CString@GamePanelWnd@@AAE?AV?$CStringT@DV?$StrTraitMFC_DLL@DV?$ChTraitsCRT@D@ATL@@@@@ATL@@I@Z:
  00648	b8 00 00 00 00	 mov	 eax, OFFSET FLAT:$T207937
  0064d	e9 00 00 00 00	 jmp	 ___CxxFrameHandler
text$x	ENDS
?UINT2CString@GamePanelWnd@@AAE?AV?$CStringT@DV?$StrTraitMFC_DLL@DV?$ChTraitsCRT@D@ATL@@@@@ATL@@I@Z ENDP ; GamePanelWnd::UINT2CString
EXTRN	?GetUserID@CLhcImg@@SA_NQADH@Z:NEAR		; CLhcImg::GetUserID
EXTRN	?GetConfigIntValue@AfxUserConfig@@QAEXABV?$basic_string@DU?$char_traits@D@std@@V?$allocator@D@2@@std@@0AAH@Z:NEAR ; AfxUserConfig::GetConfigIntValue
EXTRN	?SetConfigIntValue@AfxUserConfig@@QAEXABV?$basic_string@DU?$char_traits@D@std@@V?$allocator@D@2@@std@@0H_N@Z:NEAR ; AfxUserConfig::SetConfigIntValue
EXTRN	__imp_?LogRealMsg@@YAXABV?$basic_string@DU?$char_traits@D@std@@V?$allocator@D@2@@std@@0_NPAPAEPAI@Z:NEAR
EXTRN	?WriteString@YL_EncFileReg@@SA_NPAUHKEY__@@PBD11@Z:NEAR ; YL_EncFileReg::WriteString
EXTRN	?ReadString@YL_EncFileReg@@SA_NPAUHKEY__@@PBD1QADI@Z:NEAR ; YL_EncFileReg::ReadString
EXTRN	_memset:NEAR
EXTRN	_strcpy:NEAR
EXTRN	_strcmp:NEAR
EXTRN	_strlen:NEAR
xdata$x	SEGMENT
$T207965 DD	0ffffffffH
	DD	FLAT:$L207952
	DD	00H
	DD	FLAT:$L207953
	DD	0ffffffffH
	DD	FLAT:$L207954
	DD	02H
	DD	FLAT:$L207955
	DD	03H
	DD	FLAT:$L207956
	DD	02H
	DD	FLAT:$L207957
	DD	05H
	DD	FLAT:$L207958
	DD	02H
	DD	FLAT:$L207959
	DD	07H
	DD	FLAT:$L207960
$T207962 DD	019930520H
	DD	09H
	DD	FLAT:$T207965
	DD	2 DUP(00H)
	DD	2 DUP(00H)
; Function compile flags: /Odt
xdata$x	ENDS
_TEXT	SEGMENT
_this$ = -412						; size = 4
$T207951 = -408						; size = 28
$T207950 = -380						; size = 28
$T207949 = -352						; size = 28
$T207948 = -324						; size = 28
$T207947 = -296						; size = 28
$T207946 = -268						; size = 28
$T207945 = -240						; size = 28
$T207944 = -212						; size = 28
_temp$204851 = -184					; size = 2
_szID$204848 = -180					; size = 128
_nListen$ = -52						; size = 4
_FIRST_SWF_GAME$ = -48					; size = 2
_strPlayLog$ = -44					; size = 28
__$ArrayPad$ = -16					; size = 4
__$EHRec$ = -12						; size = 12
__$ReturnAddr$ = 4					; size = 4
?LogPlaySwfGameAct@GamePanelWnd@@AAEXXZ PROC NEAR	; GamePanelWnd::LogPlaySwfGameAct
; _this$ = ecx

; 476  : {

  02b80	55		 push	 ebp
  02b81	8b ec		 mov	 ebp, esp
  02b83	6a ff		 push	 -1
  02b85	68 00 00 00 00	 push	 __ehhandler$?LogPlaySwfGameAct@GamePanelWnd@@AAEXXZ
  02b8a	64 a1 00 00 00
	00		 mov	 eax, DWORD PTR fs:__except_list
  02b90	50		 push	 eax
  02b91	64 89 25 00 00
	00 00		 mov	 DWORD PTR fs:__except_list, esp
  02b98	81 ec 90 01 00
	00		 sub	 esp, 400		; 00000190H
  02b9e	a1 00 00 00 00	 mov	 eax, DWORD PTR ___security_cookie
  02ba3	89 45 f0	 mov	 DWORD PTR __$ArrayPad$[ebp], eax
  02ba6	89 8d 64 fe ff
	ff		 mov	 DWORD PTR _this$[ebp], ecx

; 477  : 	char FIRST_SWF_GAME[2];
; 478  : 	memset(FIRST_SWF_GAME, 0, 2);

  02bac	6a 02		 push	 2
  02bae	6a 00		 push	 0
  02bb0	8d 45 d0	 lea	 eax, DWORD PTR _FIRST_SWF_GAME$[ebp]
  02bb3	50		 push	 eax
  02bb4	e8 00 00 00 00	 call	 _memset
  02bb9	83 c4 0c	 add	 esp, 12			; 0000000cH

; 479  : 	YL_EncFileReg::ReadString( HKEY_PLAYBOX_ROOT,STR_REG_SOFT,"FIRST_SWF_GAME",FIRST_SWF_GAME,2 );

  02bbc	6a 02		 push	 2
  02bbe	8d 4d d0	 lea	 ecx, DWORD PTR _FIRST_SWF_GAME$[ebp]
  02bc1	51		 push	 ecx
  02bc2	68 00 00 00 00	 push	 OFFSET FLAT:$SG204846
  02bc7	8b 15 00 00 00
	00		 mov	 edx, DWORD PTR _STR_REG_SOFT
  02bcd	52		 push	 edx
  02bce	68 02 00 00 80	 push	 -2147483646		; 80000002H
  02bd3	e8 00 00 00 00	 call	 ?ReadString@YL_EncFileReg@@SA_NPAUHKEY__@@PBD1QADI@Z ; YL_EncFileReg::ReadString
  02bd8	83 c4 14	 add	 esp, 20			; 00000014H

; 480  : 
; 481  : 	if( strlen( FIRST_SWF_GAME ) == 0 )

  02bdb	8d 45 d0	 lea	 eax, DWORD PTR _FIRST_SWF_GAME$[ebp]
  02bde	50		 push	 eax
  02bdf	e8 00 00 00 00	 call	 _strlen
  02be4	83 c4 04	 add	 esp, 4
  02be7	85 c0		 test	 eax, eax
  02be9	0f 85 db 00 00
	00		 jne	 $L204847

; 482  : 	{
; 483  : 		char szID[128];
; 484  : 		if( CLhcImg::GetUserID( szID,128) && strcmp(szID,"0") != 0  )

  02bef	68 80 00 00 00	 push	 128			; 00000080H
  02bf4	8d 8d 4c ff ff
	ff		 lea	 ecx, DWORD PTR _szID$204848[ebp]
  02bfa	51		 push	 ecx
  02bfb	e8 00 00 00 00	 call	 ?GetUserID@CLhcImg@@SA_NQADH@Z ; CLhcImg::GetUserID
  02c00	83 c4 08	 add	 esp, 8
  02c03	0f b6 d0	 movzx	 edx, al
  02c06	85 d2		 test	 edx, edx
  02c08	0f 84 bc 00 00
	00		 je	 $L204847
  02c0e	68 00 00 00 00	 push	 OFFSET FLAT:$SG204850
  02c13	8d 85 4c ff ff
	ff		 lea	 eax, DWORD PTR _szID$204848[ebp]
  02c19	50		 push	 eax
  02c1a	e8 00 00 00 00	 call	 _strcmp
  02c1f	83 c4 08	 add	 esp, 8
  02c22	85 c0		 test	 eax, eax
  02c24	0f 84 a0 00 00
	00		 je	 $L204847

; 485  : 		{
; 486  : 			char temp[2];
; 487  : 			strcpy(temp, "1");

  02c2a	68 00 00 00 00	 push	 OFFSET FLAT:$SG204852
  02c2f	8d 8d 48 ff ff
	ff		 lea	 ecx, DWORD PTR _temp$204851[ebp]
  02c35	51		 push	 ecx
  02c36	e8 00 00 00 00	 call	 _strcpy
  02c3b	83 c4 08	 add	 esp, 8

; 488  : 			YL_EncFileReg::WriteString( HKEY_PLAYBOX_ROOT,STR_REG_SOFT,"FIRST_SWF_GAME",temp );

  02c3e	8d 95 48 ff ff
	ff		 lea	 edx, DWORD PTR _temp$204851[ebp]
  02c44	52		 push	 edx
  02c45	68 00 00 00 00	 push	 OFFSET FLAT:$SG204856
  02c4a	a1 00 00 00 00	 mov	 eax, DWORD PTR _STR_REG_SOFT
  02c4f	50		 push	 eax
  02c50	68 02 00 00 80	 push	 -2147483646		; 80000002H
  02c55	e8 00 00 00 00	 call	 ?WriteString@YL_EncFileReg@@SA_NPAUHKEY__@@PBD11@Z ; YL_EncFileReg::WriteString
  02c5a	83 c4 10	 add	 esp, 16			; 00000010H

; 489  : 			LogRealMsg( "FIRST_SWF_GAME","");

  02c5d	68 00 00 00 00	 push	 OFFSET FLAT:$SG204859
  02c62	8d 8d 2c ff ff
	ff		 lea	 ecx, DWORD PTR $T207944[ebp]
  02c68	ff 15 00 00 00
	00		 call	 DWORD PTR __imp_??0?$basic_string@DU?$char_traits@D@std@@V?$allocator@D@2@@std@@QAE@PBD@Z
  02c6e	c7 45 fc 00 00
	00 00		 mov	 DWORD PTR __$EHRec$[ebp+8], 0
  02c75	68 00 00 00 00	 push	 OFFSET FLAT:$SG204860
  02c7a	8d 8d 10 ff ff
	ff		 lea	 ecx, DWORD PTR $T207945[ebp]
  02c80	ff 15 00 00 00
	00		 call	 DWORD PTR __imp_??0?$basic_string@DU?$char_traits@D@std@@V?$allocator@D@2@@std@@QAE@PBD@Z
  02c86	c6 45 fc 01	 mov	 BYTE PTR __$EHRec$[ebp+8], 1
  02c8a	6a 00		 push	 0
  02c8c	6a 00		 push	 0
  02c8e	6a 00		 push	 0
  02c90	8d 8d 2c ff ff
	ff		 lea	 ecx, DWORD PTR $T207944[ebp]
  02c96	51		 push	 ecx
  02c97	8d 95 10 ff ff
	ff		 lea	 edx, DWORD PTR $T207945[ebp]
  02c9d	52		 push	 edx
  02c9e	ff 15 00 00 00
	00		 call	 DWORD PTR __imp_?LogRealMsg@@YAXABV?$basic_string@DU?$char_traits@D@std@@V?$allocator@D@2@@std@@0_NPAPAEPAI@Z
  02ca4	83 c4 14	 add	 esp, 20			; 00000014H
  02ca7	c6 45 fc 00	 mov	 BYTE PTR __$EHRec$[ebp+8], 0
  02cab	8d 8d 10 ff ff
	ff		 lea	 ecx, DWORD PTR $T207945[ebp]
  02cb1	ff 15 00 00 00
	00		 call	 DWORD PTR __imp_??1?$basic_string@DU?$char_traits@D@std@@V?$allocator@D@2@@std@@QAE@XZ
  02cb7	c7 45 fc ff ff
	ff ff		 mov	 DWORD PTR __$EHRec$[ebp+8], -1
  02cbe	8d 8d 2c ff ff
	ff		 lea	 ecx, DWORD PTR $T207944[ebp]
  02cc4	ff 15 00 00 00
	00		 call	 DWORD PTR __imp_??1?$basic_string@DU?$char_traits@D@std@@V?$allocator@D@2@@std@@QAE@XZ
$L204847:

; 490  : 
; 491  : 		}
; 492  : 	}
; 493  : 	//
; 494  : 	string strPlayLog;

  02cca	8d 4d d4	 lea	 ecx, DWORD PTR _strPlayLog$[ebp]
  02ccd	ff 15 00 00 00
	00		 call	 DWORD PTR __imp_??0?$basic_string@DU?$char_traits@D@std@@V?$allocator@D@2@@std@@QAE@XZ
  02cd3	c7 45 fc 02 00
	00 00		 mov	 DWORD PTR __$EHRec$[ebp+8], 2

; 495  : 	YL_StringUtil::Format( strPlayLog, "gameid:%s|name:%s", m_swfGame.strID.c_str(), m_swfGame.strName.c_str() );

  02cda	8b 8d 64 fe ff
	ff		 mov	 ecx, DWORD PTR _this$[ebp]
  02ce0	81 c1 94 00 00
	00		 add	 ecx, 148		; 00000094H
  02ce6	ff 15 00 00 00
	00		 call	 DWORD PTR __imp_?c_str@?$basic_string@DU?$char_traits@D@std@@V?$allocator@D@2@@std@@QBEPBDXZ
  02cec	50		 push	 eax
  02ced	8b 8d 64 fe ff
	ff		 mov	 ecx, DWORD PTR _this$[ebp]
  02cf3	83 c1 78	 add	 ecx, 120		; 00000078H
  02cf6	ff 15 00 00 00
	00		 call	 DWORD PTR __imp_?c_str@?$basic_string@DU?$char_traits@D@std@@V?$allocator@D@2@@std@@QBEPBDXZ
  02cfc	50		 push	 eax
  02cfd	68 00 00 00 00	 push	 OFFSET FLAT:$SG204862
  02d02	8d 45 d4	 lea	 eax, DWORD PTR _strPlayLog$[ebp]
  02d05	50		 push	 eax
  02d06	e8 00 00 00 00	 call	 ?Format@YL_StringUtil@@SA_NAAV?$basic_string@DU?$char_traits@D@std@@V?$allocator@D@2@@std@@PBDZZ ; YL_StringUtil::Format
  02d0b	83 c4 10	 add	 esp, 16			; 00000010H

; 496  : 	LogRealMsg( "PLAY_SWF_GAME", strPlayLog.c_str() );

  02d0e	8d 4d d4	 lea	 ecx, DWORD PTR _strPlayLog$[ebp]
  02d11	ff 15 00 00 00
	00		 call	 DWORD PTR __imp_?c_str@?$basic_string@DU?$char_traits@D@std@@V?$allocator@D@2@@std@@QBEPBDXZ
  02d17	50		 push	 eax
  02d18	8d 8d f4 fe ff
	ff		 lea	 ecx, DWORD PTR $T207946[ebp]
  02d1e	ff 15 00 00 00
	00		 call	 DWORD PTR __imp_??0?$basic_string@DU?$char_traits@D@std@@V?$allocator@D@2@@std@@QAE@PBD@Z
  02d24	c6 45 fc 03	 mov	 BYTE PTR __$EHRec$[ebp+8], 3
  02d28	68 00 00 00 00	 push	 OFFSET FLAT:$SG204865
  02d2d	8d 8d d8 fe ff
	ff		 lea	 ecx, DWORD PTR $T207947[ebp]
  02d33	ff 15 00 00 00
	00		 call	 DWORD PTR __imp_??0?$basic_string@DU?$char_traits@D@std@@V?$allocator@D@2@@std@@QAE@PBD@Z
  02d39	c6 45 fc 04	 mov	 BYTE PTR __$EHRec$[ebp+8], 4
  02d3d	6a 00		 push	 0
  02d3f	6a 00		 push	 0
  02d41	6a 00		 push	 0
  02d43	8d 8d f4 fe ff
	ff		 lea	 ecx, DWORD PTR $T207946[ebp]
  02d49	51		 push	 ecx
  02d4a	8d 95 d8 fe ff
	ff		 lea	 edx, DWORD PTR $T207947[ebp]
  02d50	52		 push	 edx
  02d51	ff 15 00 00 00
	00		 call	 DWORD PTR __imp_?LogRealMsg@@YAXABV?$basic_string@DU?$char_traits@D@std@@V?$allocator@D@2@@std@@0_NPAPAEPAI@Z
  02d57	83 c4 14	 add	 esp, 20			; 00000014H
  02d5a	c6 45 fc 03	 mov	 BYTE PTR __$EHRec$[ebp+8], 3
  02d5e	8d 8d d8 fe ff
	ff		 lea	 ecx, DWORD PTR $T207947[ebp]
  02d64	ff 15 00 00 00
	00		 call	 DWORD PTR __imp_??1?$basic_string@DU?$char_traits@D@std@@V?$allocator@D@2@@std@@QAE@XZ
  02d6a	c6 45 fc 02	 mov	 BYTE PTR __$EHRec$[ebp+8], 2
  02d6e	8d 8d f4 fe ff
	ff		 lea	 ecx, DWORD PTR $T207946[ebp]
  02d74	ff 15 00 00 00
	00		 call	 DWORD PTR __imp_??1?$basic_string@DU?$char_traits@D@std@@V?$allocator@D@2@@std@@QAE@XZ

; 497  : 	//1
; 498  : 	int nListen = 0;

  02d7a	c7 45 cc 00 00
	00 00		 mov	 DWORD PTR _nListen$[ebp], 0

; 499  : 	AfxGetUserConfig()->GetConfigIntValue( CONF_APP_MODULE_NAME, CONF_APP_PLAYED_GAME, nListen );

  02d81	a1 00 00 00 00	 mov	 eax, DWORD PTR _CONF_APP_PLAYED_GAME
  02d86	50		 push	 eax
  02d87	8d 8d bc fe ff
	ff		 lea	 ecx, DWORD PTR $T207948[ebp]
  02d8d	ff 15 00 00 00
	00		 call	 DWORD PTR __imp_??0?$basic_string@DU?$char_traits@D@std@@V?$allocator@D@2@@std@@QAE@PBD@Z
  02d93	c6 45 fc 05	 mov	 BYTE PTR __$EHRec$[ebp+8], 5
  02d97	8b 0d 00 00 00
	00		 mov	 ecx, DWORD PTR _CONF_APP_MODULE_NAME
  02d9d	51		 push	 ecx
  02d9e	8d 8d a0 fe ff
	ff		 lea	 ecx, DWORD PTR $T207949[ebp]
  02da4	ff 15 00 00 00
	00		 call	 DWORD PTR __imp_??0?$basic_string@DU?$char_traits@D@std@@V?$allocator@D@2@@std@@QAE@PBD@Z
  02daa	c6 45 fc 06	 mov	 BYTE PTR __$EHRec$[ebp+8], 6
  02dae	8d 55 cc	 lea	 edx, DWORD PTR _nListen$[ebp]
  02db1	52		 push	 edx
  02db2	8d 85 bc fe ff
	ff		 lea	 eax, DWORD PTR $T207948[ebp]
  02db8	50		 push	 eax
  02db9	8d 8d a0 fe ff
	ff		 lea	 ecx, DWORD PTR $T207949[ebp]
  02dbf	51		 push	 ecx
  02dc0	e8 00 00 00 00	 call	 ?AfxGetUserConfig@@YAPAVAfxUserConfig@@XZ ; AfxGetUserConfig
  02dc5	8b c8		 mov	 ecx, eax
  02dc7	e8 00 00 00 00	 call	 ?GetConfigIntValue@AfxUserConfig@@QAEXABV?$basic_string@DU?$char_traits@D@std@@V?$allocator@D@2@@std@@0AAH@Z ; AfxUserConfig::GetConfigIntValue
  02dcc	c6 45 fc 05	 mov	 BYTE PTR __$EHRec$[ebp+8], 5
  02dd0	8d 8d a0 fe ff
	ff		 lea	 ecx, DWORD PTR $T207949[ebp]
  02dd6	ff 15 00 00 00
	00		 call	 DWORD PTR __imp_??1?$basic_string@DU?$char_traits@D@std@@V?$allocator@D@2@@std@@QAE@XZ
  02ddc	c6 45 fc 02	 mov	 BYTE PTR __$EHRec$[ebp+8], 2
  02de0	8d 8d bc fe ff
	ff		 lea	 ecx, DWORD PTR $T207948[ebp]
  02de6	ff 15 00 00 00
	00		 call	 DWORD PTR __imp_??1?$basic_string@DU?$char_traits@D@std@@V?$allocator@D@2@@std@@QAE@XZ

; 500  : 	nListen++;

  02dec	8b 55 cc	 mov	 edx, DWORD PTR _nListen$[ebp]
  02def	83 c2 01	 add	 edx, 1
  02df2	89 55 cc	 mov	 DWORD PTR _nListen$[ebp], edx

; 501  : 	AfxGetUserConfig()->SetConfigIntValue( CONF_APP_MODULE_NAME, CONF_APP_PLAYED_GAME, nListen );

  02df5	a1 00 00 00 00	 mov	 eax, DWORD PTR _CONF_APP_PLAYED_GAME
  02dfa	50		 push	 eax
  02dfb	8d 8d 84 fe ff
	ff		 lea	 ecx, DWORD PTR $T207950[ebp]
  02e01	ff 15 00 00 00
	00		 call	 DWORD PTR __imp_??0?$basic_string@DU?$char_traits@D@std@@V?$allocator@D@2@@std@@QAE@PBD@Z
  02e07	c6 45 fc 07	 mov	 BYTE PTR __$EHRec$[ebp+8], 7
  02e0b	8b 0d 00 00 00
	00		 mov	 ecx, DWORD PTR _CONF_APP_MODULE_NAME
  02e11	51		 push	 ecx
  02e12	8d 8d 68 fe ff
	ff		 lea	 ecx, DWORD PTR $T207951[ebp]
  02e18	ff 15 00 00 00
	00		 call	 DWORD PTR __imp_??0?$basic_string@DU?$char_traits@D@std@@V?$allocator@D@2@@std@@QAE@PBD@Z
  02e1e	c6 45 fc 08	 mov	 BYTE PTR __$EHRec$[ebp+8], 8
  02e22	6a 00		 push	 0
  02e24	8b 55 cc	 mov	 edx, DWORD PTR _nListen$[ebp]
  02e27	52		 push	 edx
  02e28	8d 85 84 fe ff
	ff		 lea	 eax, DWORD PTR $T207950[ebp]
  02e2e	50		 push	 eax
  02e2f	8d 8d 68 fe ff
	ff		 lea	 ecx, DWORD PTR $T207951[ebp]
  02e35	51		 push	 ecx
  02e36	e8 00 00 00 00	 call	 ?AfxGetUserConfig@@YAPAVAfxUserConfig@@XZ ; AfxGetUserConfig
  02e3b	8b c8		 mov	 ecx, eax
  02e3d	e8 00 00 00 00	 call	 ?SetConfigIntValue@AfxUserConfig@@QAEXABV?$basic_string@DU?$char_traits@D@std@@V?$allocator@D@2@@std@@0H_N@Z ; AfxUserConfig::SetConfigIntValue
  02e42	c6 45 fc 07	 mov	 BYTE PTR __$EHRec$[ebp+8], 7
  02e46	8d 8d 68 fe ff
	ff		 lea	 ecx, DWORD PTR $T207951[ebp]
  02e4c	ff 15 00 00 00
	00		 call	 DWORD PTR __imp_??1?$basic_string@DU?$char_traits@D@std@@V?$allocator@D@2@@std@@QAE@XZ
  02e52	c6 45 fc 02	 mov	 BYTE PTR __$EHRec$[ebp+8], 2
  02e56	8d 8d 84 fe ff
	ff		 lea	 ecx, DWORD PTR $T207950[ebp]
  02e5c	ff 15 00 00 00
	00		 call	 DWORD PTR __imp_??1?$basic_string@DU?$char_traits@D@std@@V?$allocator@D@2@@std@@QAE@XZ

; 502  : }

  02e62	c7 45 fc ff ff
	ff ff		 mov	 DWORD PTR __$EHRec$[ebp+8], -1
  02e69	8d 4d d4	 lea	 ecx, DWORD PTR _strPlayLog$[ebp]
  02e6c	ff 15 00 00 00
	00		 call	 DWORD PTR __imp_??1?$basic_string@DU?$char_traits@D@std@@V?$allocator@D@2@@std@@QAE@XZ
  02e72	8b 4d f4	 mov	 ecx, DWORD PTR __$EHRec$[ebp]
  02e75	64 89 0d 00 00
	00 00		 mov	 DWORD PTR fs:__except_list, ecx
  02e7c	8b 4d f0	 mov	 ecx, DWORD PTR __$ArrayPad$[ebp]
  02e7f	e8 00 00 00 00	 call	 @__security_check_cookie@4
  02e84	8b e5		 mov	 esp, ebp
  02e86	5d		 pop	 ebp
  02e87	c3		 ret	 0
_TEXT	ENDS
text$x	SEGMENT
$L207952:
  00652	8d 8d 2c ff ff
	ff		 lea	 ecx, DWORD PTR $T207944[ebp]
  00658	ff 25 00 00 00
	00		 jmp	 DWORD PTR __imp_??1?$basic_string@DU?$char_traits@D@std@@V?$allocator@D@2@@std@@QAE@XZ
$L207953:
  0065e	8d 8d 10 ff ff
	ff		 lea	 ecx, DWORD PTR $T207945[ebp]
  00664	ff 25 00 00 00
	00		 jmp	 DWORD PTR __imp_??1?$basic_string@DU?$char_traits@D@std@@V?$allocator@D@2@@std@@QAE@XZ
$L207954:
  0066a	8d 4d d4	 lea	 ecx, DWORD PTR _strPlayLog$[ebp]
  0066d	ff 25 00 00 00
	00		 jmp	 DWORD PTR __imp_??1?$basic_string@DU?$char_traits@D@std@@V?$allocator@D@2@@std@@QAE@XZ
$L207955:
  00673	8d 8d f4 fe ff
	ff		 lea	 ecx, DWORD PTR $T207946[ebp]
  00679	ff 25 00 00 00
	00		 jmp	 DWORD PTR __imp_??1?$basic_string@DU?$char_traits@D@std@@V?$allocator@D@2@@std@@QAE@XZ
$L207956:
  0067f	8d 8d d8 fe ff
	ff		 lea	 ecx, DWORD PTR $T207947[ebp]
  00685	ff 25 00 00 00
	00		 jmp	 DWORD PTR __imp_??1?$basic_string@DU?$char_traits@D@std@@V?$allocator@D@2@@std@@QAE@XZ
$L207957:
  0068b	8d 8d bc fe ff
	ff		 lea	 ecx, DWORD PTR $T207948[ebp]
  00691	ff 25 00 00 00
	00		 jmp	 DWORD PTR __imp_??1?$basic_string@DU?$char_traits@D@std@@V?$allocator@D@2@@std@@QAE@XZ
$L207958:
  00697	8d 8d a0 fe ff
	ff		 lea	 ecx, DWORD PTR $T207949[ebp]
  0069d	ff 25 00 00 00
	00		 jmp	 DWORD PTR __imp_??1?$basic_string@DU?$char_traits@D@std@@V?$allocator@D@2@@std@@QAE@XZ
$L207959:
  006a3	8d 8d 84 fe ff
	ff		 lea	 ecx, DWORD PTR $T207950[ebp]
  006a9	ff 25 00 00 00
	00		 jmp	 DWORD PTR __imp_??1?$basic_string@DU?$char_traits@D@std@@V?$allocator@D@2@@std@@QAE@XZ
$L207960:
  006af	8d 8d 68 fe ff
	ff		 lea	 ecx, DWORD PTR $T207951[ebp]
  006b5	ff 25 00 00 00
	00		 jmp	 DWORD PTR __imp_??1?$basic_string@DU?$char_traits@D@std@@V?$allocator@D@2@@std@@QAE@XZ
__ehhandler$?LogPlaySwfGameAct@GamePanelWnd@@AAEXXZ:
  006bb	b8 00 00 00 00	 mov	 eax, OFFSET FLAT:$T207962
  006c0	e9 00 00 00 00	 jmp	 ___CxxFrameHandler
text$x	ENDS
?LogPlaySwfGameAct@GamePanelWnd@@AAEXXZ ENDP		; GamePanelWnd::LogPlaySwfGameAct
EXTRN	__imp_??4?$CStringT@DV?$StrTraitMFC_DLL@DV?$ChTraitsCRT@D@ATL@@@@@ATL@@QAEAAV01@ABV01@@Z:NEAR
EXTRN	__imp_??Y?$CStringT@DV?$StrTraitMFC_DLL@DV?$ChTraitsCRT@D@ATL@@@@@ATL@@QAEAAV01@ABV?$CSimpleStringT@D$00@1@@Z:NEAR
xdata$x	SEGMENT
$T207975 DD	0ffffffffH
	DD	FLAT:$L207967
	DD	00H
	DD	FLAT:$L207968
$T207973 DD	019930520H
	DD	02H
	DD	FLAT:$T207975
	DD	2 DUP(00H)
	DD	2 DUP(00H)
; Function compile flags: /Odt
xdata$x	ENDS
_TEXT	SEGMENT
tv161 = -60						; size = 8
tv65 = -52						; size = 8
_this$ = -44						; size = 4
$T207970 = -40						; size = 4
_str$204881 = -36					; size = 4
_m$204886 = -32						; size = 4
_ts$204882 = -28					; size = 4
_s$204887 = -24						; size = 4
_h$204885 = -20						; size = 4
_strRet$ = -16						; size = 4
__$EHRec$ = -12						; size = 12
___$ReturnUdt$ = 8					; size = 4
_uiSize$ = 12						; size = 4
_uiSpeed$ = 16						; size = 4
_uiFinished$ = 20					; size = 4
?GetLeftTime@GamePanelWnd@@AAE?AV?$CStringT@DV?$StrTraitMFC_DLL@DV?$ChTraitsCRT@D@ATL@@@@@ATL@@III@Z PROC NEAR ; GamePanelWnd::GetLeftTime
; _this$ = ecx

; 506  : {

  02e90	55		 push	 ebp
  02e91	8b ec		 mov	 ebp, esp
  02e93	6a ff		 push	 -1
  02e95	68 00 00 00 00	 push	 __ehhandler$?GetLeftTime@GamePanelWnd@@AAE?AV?$CStringT@DV?$StrTraitMFC_DLL@DV?$ChTraitsCRT@D@ATL@@@@@ATL@@III@Z
  02e9a	64 a1 00 00 00
	00		 mov	 eax, DWORD PTR fs:__except_list
  02ea0	50		 push	 eax
  02ea1	64 89 25 00 00
	00 00		 mov	 DWORD PTR fs:__except_list, esp
  02ea8	83 ec 30	 sub	 esp, 48			; 00000030H
  02eab	89 4d d4	 mov	 DWORD PTR _this$[ebp], ecx
  02eae	c7 45 d8 00 00
	00 00		 mov	 DWORD PTR $T207970[ebp], 0

; 507  : 	CString strRet = "--:--:--";

  02eb5	68 00 00 00 00	 push	 OFFSET FLAT:$SG204879
  02eba	8d 4d f0	 lea	 ecx, DWORD PTR _strRet$[ebp]
  02ebd	ff 15 00 00 00
	00		 call	 DWORD PTR __imp_??0?$CStringT@DV?$StrTraitMFC_DLL@DV?$ChTraitsCRT@D@ATL@@@@@ATL@@QAE@PBD@Z
  02ec3	c7 45 fc 00 00
	00 00		 mov	 DWORD PTR __$EHRec$[ebp+8], 0

; 508  : 
; 509  : 	if( uiSize != 0 && uiSpeed > 0)

  02eca	83 7d 0c 00	 cmp	 DWORD PTR _uiSize$[ebp], 0
  02ece	0f 84 63 01 00
	00		 je	 $L204880
  02ed4	83 7d 10 00	 cmp	 DWORD PTR _uiSpeed$[ebp], 0
  02ed8	0f 86 59 01 00
	00		 jbe	 $L204880

; 510  : 	{
; 511  : 		CString str;

  02ede	8d 4d dc	 lea	 ecx, DWORD PTR _str$204881[ebp]
  02ee1	ff 15 00 00 00
	00		 call	 DWORD PTR __imp_??0?$CStringT@DV?$StrTraitMFC_DLL@DV?$ChTraitsCRT@D@ATL@@@@@ATL@@QAE@XZ
  02ee7	c6 45 fc 01	 mov	 BYTE PTR __$EHRec$[ebp+8], 1

; 512  : 		UINT ts = ((UINT)((double)uiSize*(100-uiFinished)/100))/uiSpeed;

  02eeb	8b 45 0c	 mov	 eax, DWORD PTR _uiSize$[ebp]
  02eee	89 45 cc	 mov	 DWORD PTR tv65[ebp], eax
  02ef1	c7 45 d0 00 00
	00 00		 mov	 DWORD PTR tv65[ebp+4], 0
  02ef8	df 6d cc	 fild	 QWORD PTR tv65[ebp]
  02efb	b9 64 00 00 00	 mov	 ecx, 100		; 00000064H
  02f00	2b 4d 14	 sub	 ecx, DWORD PTR _uiFinished$[ebp]
  02f03	89 4d c4	 mov	 DWORD PTR tv161[ebp], ecx
  02f06	c7 45 c8 00 00
	00 00		 mov	 DWORD PTR tv161[ebp+4], 0
  02f0d	df 6d c4	 fild	 QWORD PTR tv161[ebp]
  02f10	de c9		 fmulp	 ST(1), ST(0)
  02f12	dc 35 00 00 00
	00		 fdiv	 QWORD PTR __real@4059000000000000
  02f18	e8 00 00 00 00	 call	 __ftol2
  02f1d	33 d2		 xor	 edx, edx
  02f1f	f7 75 10	 div	 DWORD PTR _uiSpeed$[ebp]
  02f22	89 45 e4	 mov	 DWORD PTR _ts$204882[ebp], eax

; 513  : 		UINT h = ts/3600;

  02f25	8b 45 e4	 mov	 eax, DWORD PTR _ts$204882[ebp]
  02f28	33 d2		 xor	 edx, edx
  02f2a	b9 10 0e 00 00	 mov	 ecx, 3600		; 00000e10H
  02f2f	f7 f1		 div	 ecx
  02f31	89 45 ec	 mov	 DWORD PTR _h$204885[ebp], eax

; 514  : 		UINT m = (ts-h*3600)/60;

  02f34	8b 55 ec	 mov	 edx, DWORD PTR _h$204885[ebp]
  02f37	69 d2 10 0e 00
	00		 imul	 edx, 3600		; 00000e10H
  02f3d	8b 45 e4	 mov	 eax, DWORD PTR _ts$204882[ebp]
  02f40	2b c2		 sub	 eax, edx
  02f42	33 d2		 xor	 edx, edx
  02f44	b9 3c 00 00 00	 mov	 ecx, 60			; 0000003cH
  02f49	f7 f1		 div	 ecx
  02f4b	89 45 e0	 mov	 DWORD PTR _m$204886[ebp], eax

; 515  : 		UINT s = (ts-h*3600-m*60);

  02f4e	8b 55 ec	 mov	 edx, DWORD PTR _h$204885[ebp]
  02f51	69 d2 10 0e 00
	00		 imul	 edx, 3600		; 00000e10H
  02f57	8b 45 e4	 mov	 eax, DWORD PTR _ts$204882[ebp]
  02f5a	2b c2		 sub	 eax, edx
  02f5c	8b 4d e0	 mov	 ecx, DWORD PTR _m$204886[ebp]
  02f5f	6b c9 3c	 imul	 ecx, 60			; 0000003cH
  02f62	2b c1		 sub	 eax, ecx
  02f64	89 45 e8	 mov	 DWORD PTR _s$204887[ebp], eax

; 516  : 
; 517  : 		if(h < 10)

  02f67	83 7d ec 0a	 cmp	 DWORD PTR _h$204885[ebp], 10 ; 0000000aH
  02f6b	73 18		 jae	 SHORT $L204888

; 518  : 			str.Format("0%d", h);

  02f6d	8b 55 ec	 mov	 edx, DWORD PTR _h$204885[ebp]
  02f70	52		 push	 edx
  02f71	68 00 00 00 00	 push	 OFFSET FLAT:$SG204889
  02f76	8d 45 dc	 lea	 eax, DWORD PTR _str$204881[ebp]
  02f79	50		 push	 eax
  02f7a	ff 15 00 00 00
	00		 call	 DWORD PTR __imp_?Format@?$CStringT@DV?$StrTraitMFC_DLL@DV?$ChTraitsCRT@D@ATL@@@@@ATL@@QAAXPBDZZ
  02f80	83 c4 0c	 add	 esp, 12			; 0000000cH

; 519  : 		else

  02f83	eb 16		 jmp	 SHORT $L204890
$L204888:

; 520  : 			str.Format("%d", h);

  02f85	8b 4d ec	 mov	 ecx, DWORD PTR _h$204885[ebp]
  02f88	51		 push	 ecx
  02f89	68 00 00 00 00	 push	 OFFSET FLAT:$SG204891
  02f8e	8d 55 dc	 lea	 edx, DWORD PTR _str$204881[ebp]
  02f91	52		 push	 edx
  02f92	ff 15 00 00 00
	00		 call	 DWORD PTR __imp_?Format@?$CStringT@DV?$StrTraitMFC_DLL@DV?$ChTraitsCRT@D@ATL@@@@@ATL@@QAAXPBDZZ
  02f98	83 c4 0c	 add	 esp, 12			; 0000000cH
$L204890:

; 521  : 
; 522  : 		strRet = str;

  02f9b	8d 45 dc	 lea	 eax, DWORD PTR _str$204881[ebp]
  02f9e	50		 push	 eax
  02f9f	8d 4d f0	 lea	 ecx, DWORD PTR _strRet$[ebp]
  02fa2	ff 15 00 00 00
	00		 call	 DWORD PTR __imp_??4?$CStringT@DV?$StrTraitMFC_DLL@DV?$ChTraitsCRT@D@ATL@@@@@ATL@@QAEAAV01@ABV01@@Z

; 523  : 
; 524  : 		if(m < 10)

  02fa8	83 7d e0 0a	 cmp	 DWORD PTR _m$204886[ebp], 10 ; 0000000aH
  02fac	73 18		 jae	 SHORT $L204892

; 525  : 			str.Format(":0%d", m);

  02fae	8b 4d e0	 mov	 ecx, DWORD PTR _m$204886[ebp]
  02fb1	51		 push	 ecx
  02fb2	68 00 00 00 00	 push	 OFFSET FLAT:$SG204893
  02fb7	8d 55 dc	 lea	 edx, DWORD PTR _str$204881[ebp]
  02fba	52		 push	 edx
  02fbb	ff 15 00 00 00
	00		 call	 DWORD PTR __imp_?Format@?$CStringT@DV?$StrTraitMFC_DLL@DV?$ChTraitsCRT@D@ATL@@@@@ATL@@QAAXPBDZZ
  02fc1	83 c4 0c	 add	 esp, 12			; 0000000cH

; 526  : 		else

  02fc4	eb 16		 jmp	 SHORT $L204894
$L204892:

; 527  : 			str.Format(":%d", m);

  02fc6	8b 45 e0	 mov	 eax, DWORD PTR _m$204886[ebp]
  02fc9	50		 push	 eax
  02fca	68 00 00 00 00	 push	 OFFSET FLAT:$SG204895
  02fcf	8d 4d dc	 lea	 ecx, DWORD PTR _str$204881[ebp]
  02fd2	51		 push	 ecx
  02fd3	ff 15 00 00 00
	00		 call	 DWORD PTR __imp_?Format@?$CStringT@DV?$StrTraitMFC_DLL@DV?$ChTraitsCRT@D@ATL@@@@@ATL@@QAAXPBDZZ
  02fd9	83 c4 0c	 add	 esp, 12			; 0000000cH
$L204894:

; 528  : 
; 529  : 		strRet += str;

  02fdc	8d 55 dc	 lea	 edx, DWORD PTR _str$204881[ebp]
  02fdf	52		 push	 edx
  02fe0	8d 4d f0	 lea	 ecx, DWORD PTR _strRet$[ebp]
  02fe3	ff 15 00 00 00
	00		 call	 DWORD PTR __imp_??Y?$CStringT@DV?$StrTraitMFC_DLL@DV?$ChTraitsCRT@D@ATL@@@@@ATL@@QAEAAV01@ABV?$CSimpleStringT@D$00@1@@Z

; 530  : 
; 531  : 		if(s < 10)

  02fe9	83 7d e8 0a	 cmp	 DWORD PTR _s$204887[ebp], 10 ; 0000000aH
  02fed	73 18		 jae	 SHORT $L204899

; 532  : 			str.Format(":0%d", s);

  02fef	8b 45 e8	 mov	 eax, DWORD PTR _s$204887[ebp]
  02ff2	50		 push	 eax
  02ff3	68 00 00 00 00	 push	 OFFSET FLAT:$SG204900
  02ff8	8d 4d dc	 lea	 ecx, DWORD PTR _str$204881[ebp]
  02ffb	51		 push	 ecx
  02ffc	ff 15 00 00 00
	00		 call	 DWORD PTR __imp_?Format@?$CStringT@DV?$StrTraitMFC_DLL@DV?$ChTraitsCRT@D@ATL@@@@@ATL@@QAAXPBDZZ
  03002	83 c4 0c	 add	 esp, 12			; 0000000cH

; 533  : 		else

  03005	eb 16		 jmp	 SHORT $L204901
$L204899:

; 534  : 			str.Format(":%d", s);

  03007	8b 55 e8	 mov	 edx, DWORD PTR _s$204887[ebp]
  0300a	52		 push	 edx
  0300b	68 00 00 00 00	 push	 OFFSET FLAT:$SG204902
  03010	8d 45 dc	 lea	 eax, DWORD PTR _str$204881[ebp]
  03013	50		 push	 eax
  03014	ff 15 00 00 00
	00		 call	 DWORD PTR __imp_?Format@?$CStringT@DV?$StrTraitMFC_DLL@DV?$ChTraitsCRT@D@ATL@@@@@ATL@@QAAXPBDZZ
  0301a	83 c4 0c	 add	 esp, 12			; 0000000cH
$L204901:

; 535  : 		
; 536  : 		strRet += str;

  0301d	8d 4d dc	 lea	 ecx, DWORD PTR _str$204881[ebp]
  03020	51		 push	 ecx
  03021	8d 4d f0	 lea	 ecx, DWORD PTR _strRet$[ebp]
  03024	ff 15 00 00 00
	00		 call	 DWORD PTR __imp_??Y?$CStringT@DV?$StrTraitMFC_DLL@DV?$ChTraitsCRT@D@ATL@@@@@ATL@@QAEAAV01@ABV?$CSimpleStringT@D$00@1@@Z

; 537  : 	}

  0302a	c6 45 fc 00	 mov	 BYTE PTR __$EHRec$[ebp+8], 0
  0302e	8d 4d dc	 lea	 ecx, DWORD PTR _str$204881[ebp]
  03031	ff 15 00 00 00
	00		 call	 DWORD PTR __imp_??1?$CStringT@DV?$StrTraitMFC_DLL@DV?$ChTraitsCRT@D@ATL@@@@@ATL@@QAE@XZ
$L204880:

; 538  : 	return strRet;

  03037	8d 55 f0	 lea	 edx, DWORD PTR _strRet$[ebp]
  0303a	52		 push	 edx
  0303b	8b 4d 08	 mov	 ecx, DWORD PTR ___$ReturnUdt$[ebp]
  0303e	ff 15 00 00 00
	00		 call	 DWORD PTR __imp_??0?$CStringT@DV?$StrTraitMFC_DLL@DV?$ChTraitsCRT@D@ATL@@@@@ATL@@QAE@ABV01@@Z
  03044	8b 45 d8	 mov	 eax, DWORD PTR $T207970[ebp]
  03047	83 c8 01	 or	 eax, 1
  0304a	89 45 d8	 mov	 DWORD PTR $T207970[ebp], eax
  0304d	c7 45 fc ff ff
	ff ff		 mov	 DWORD PTR __$EHRec$[ebp+8], -1
  03054	8d 4d f0	 lea	 ecx, DWORD PTR _strRet$[ebp]
  03057	ff 15 00 00 00
	00		 call	 DWORD PTR __imp_??1?$CStringT@DV?$StrTraitMFC_DLL@DV?$ChTraitsCRT@D@ATL@@@@@ATL@@QAE@XZ
  0305d	8b 45 08	 mov	 eax, DWORD PTR ___$ReturnUdt$[ebp]

; 539  : }

  03060	8b 4d f4	 mov	 ecx, DWORD PTR __$EHRec$[ebp]
  03063	64 89 0d 00 00
	00 00		 mov	 DWORD PTR fs:__except_list, ecx
  0306a	8b e5		 mov	 esp, ebp
  0306c	5d		 pop	 ebp
  0306d	c2 10 00	 ret	 16			; 00000010H
_TEXT	ENDS
text$x	SEGMENT
$L207967:
  006c5	8d 4d f0	 lea	 ecx, DWORD PTR _strRet$[ebp]
  006c8	ff 25 00 00 00
	00		 jmp	 DWORD PTR __imp_??1?$CStringT@DV?$StrTraitMFC_DLL@DV?$ChTraitsCRT@D@ATL@@@@@ATL@@QAE@XZ
$L207968:
  006ce	8d 4d dc	 lea	 ecx, DWORD PTR _str$204881[ebp]
  006d1	ff 25 00 00 00
	00		 jmp	 DWORD PTR __imp_??1?$CStringT@DV?$StrTraitMFC_DLL@DV?$ChTraitsCRT@D@ATL@@@@@ATL@@QAE@XZ
__ehhandler$?GetLeftTime@GamePanelWnd@@AAE?AV?$CStringT@DV?$StrTraitMFC_DLL@DV?$ChTraitsCRT@D@ATL@@@@@ATL@@III@Z:
  006d7	b8 00 00 00 00	 mov	 eax, OFFSET FLAT:$T207973
  006dc	e9 00 00 00 00	 jmp	 ___CxxFrameHandler
text$x	ENDS
?GetLeftTime@GamePanelWnd@@AAE?AV?$CStringT@DV?$StrTraitMFC_DLL@DV?$ChTraitsCRT@D@ATL@@@@@ATL@@III@Z ENDP ; GamePanelWnd::GetLeftTime
PUBLIC	?Invalidate@CWnd@@QAEXH@Z			; CWnd::Invalidate
PUBLIC	?GetCheck@CButton@@QBEHXZ			; CButton::GetCheck
EXTRN	?ShowWindow@CWnd@@QAEHH@Z:NEAR			; CWnd::ShowWindow
EXTRN	?UpdateAllWnd@CGameCtrlWnd@@QAEXXZ:NEAR		; CGameCtrlWnd::UpdateAllWnd
xdata$x	SEGMENT
$T207988 DD	0ffffffffH
	DD	FLAT:$L207981
	DD	00H
	DD	FLAT:$L207982
	DD	0ffffffffH
	DD	FLAT:$L207983
	DD	02H
	DD	FLAT:$L207984
$T207986 DD	019930520H
	DD	04H
	DD	FLAT:$T207988
	DD	2 DUP(00H)
	DD	2 DUP(00H)
; Function compile flags: /Odt
xdata$x	ENDS
_TEXT	SEGMENT
_this$ = -128						; size = 4
$T207980 = -124						; size = 28
$T207979 = -96						; size = 28
$T207978 = -68						; size = 28
$T207977 = -40						; size = 28
__$EHRec$ = -12						; size = 12
?UpdateAllWnd@GamePanelWnd@@QAEXXZ PROC NEAR		; GamePanelWnd::UpdateAllWnd
; _this$ = ecx

; 542  : {

  03070	55		 push	 ebp
  03071	8b ec		 mov	 ebp, esp
  03073	6a ff		 push	 -1
  03075	68 00 00 00 00	 push	 __ehhandler$?UpdateAllWnd@GamePanelWnd@@QAEXXZ
  0307a	64 a1 00 00 00
	00		 mov	 eax, DWORD PTR fs:__except_list
  03080	50		 push	 eax
  03081	64 89 25 00 00
	00 00		 mov	 DWORD PTR fs:__except_list, esp
  03088	83 ec 74	 sub	 esp, 116		; 00000074H
  0308b	89 4d 80	 mov	 DWORD PTR _this$[ebp], ecx

; 543  : 	YL_Log("GamePanelWnd.txt", LOG_DEBUG, "GamePanelWnd::UpdateAllWnd", "===IN");

  0308e	68 00 00 00 00	 push	 OFFSET FLAT:$SG204909
  03093	8d 4d d8	 lea	 ecx, DWORD PTR $T207977[ebp]
  03096	ff 15 00 00 00
	00		 call	 DWORD PTR __imp_??0?$basic_string@DU?$char_traits@D@std@@V?$allocator@D@2@@std@@QAE@PBD@Z
  0309c	c7 45 fc 00 00
	00 00		 mov	 DWORD PTR __$EHRec$[ebp+8], 0
  030a3	68 00 00 00 00	 push	 OFFSET FLAT:$SG204910
  030a8	8d 4d bc	 lea	 ecx, DWORD PTR $T207978[ebp]
  030ab	ff 15 00 00 00
	00		 call	 DWORD PTR __imp_??0?$basic_string@DU?$char_traits@D@std@@V?$allocator@D@2@@std@@QAE@PBD@Z
  030b1	c6 45 fc 01	 mov	 BYTE PTR __$EHRec$[ebp+8], 1
  030b5	68 00 00 00 00	 push	 OFFSET FLAT:$SG204908
  030ba	8d 45 d8	 lea	 eax, DWORD PTR $T207977[ebp]
  030bd	50		 push	 eax
  030be	6a 00		 push	 0
  030c0	8d 4d bc	 lea	 ecx, DWORD PTR $T207978[ebp]
  030c3	51		 push	 ecx
  030c4	ff 15 00 00 00
	00		 call	 DWORD PTR __imp_?YL_Log@@YAXABV?$basic_string@DU?$char_traits@D@std@@V?$allocator@D@2@@std@@H0PBDZZ
  030ca	83 c4 10	 add	 esp, 16			; 00000010H
  030cd	c6 45 fc 00	 mov	 BYTE PTR __$EHRec$[ebp+8], 0
  030d1	8d 4d bc	 lea	 ecx, DWORD PTR $T207978[ebp]
  030d4	ff 15 00 00 00
	00		 call	 DWORD PTR __imp_??1?$basic_string@DU?$char_traits@D@std@@V?$allocator@D@2@@std@@QAE@XZ
  030da	c7 45 fc ff ff
	ff ff		 mov	 DWORD PTR __$EHRec$[ebp+8], -1
  030e1	8d 4d d8	 lea	 ecx, DWORD PTR $T207977[ebp]
  030e4	ff 15 00 00 00
	00		 call	 DWORD PTR __imp_??1?$basic_string@DU?$char_traits@D@std@@V?$allocator@D@2@@std@@QAE@XZ

; 544  : 	if( m_bDown )//

  030ea	8b 55 80	 mov	 edx, DWORD PTR _this$[ebp]
  030ed	0f b6 42 74	 movzx	 eax, BYTE PTR [edx+116]
  030f1	85 c0		 test	 eax, eax
  030f3	74 46		 je	 SHORT $L204911

; 545  : 	{
; 546  : 		//wnd
; 547  : 		m_pWndDownPercent->ShowWindow( SW_SHOW );

  030f5	6a 05		 push	 5
  030f7	8b 4d 80	 mov	 ecx, DWORD PTR _this$[ebp]
  030fa	8b 49 64	 mov	 ecx, DWORD PTR [ecx+100]
  030fd	e8 00 00 00 00	 call	 ?ShowWindow@CWnd@@QAEHH@Z ; CWnd::ShowWindow

; 548  : 		m_pBtnSwitch->ShowWindow( SW_HIDE );

  03102	6a 00		 push	 0
  03104	8b 55 80	 mov	 edx, DWORD PTR _this$[ebp]
  03107	8b 4a 68	 mov	 ecx, DWORD PTR [edx+104]
  0310a	e8 00 00 00 00	 call	 ?ShowWindow@CWnd@@QAEHH@Z ; CWnd::ShowWindow

; 549  : 		m_pGameFlash->ShowWindow( SW_HIDE );

  0310f	6a 00		 push	 0
  03111	8b 45 80	 mov	 eax, DWORD PTR _this$[ebp]
  03114	8b 48 60	 mov	 ecx, DWORD PTR [eax+96]
  03117	e8 00 00 00 00	 call	 ?ShowWindow@CWnd@@QAEHH@Z ; CWnd::ShowWindow

; 550  : 		m_pGameCtrl->ShowWindow( SW_HIDE );

  0311c	6a 00		 push	 0
  0311e	8b 4d 80	 mov	 ecx, DWORD PTR _this$[ebp]
  03121	8b 49 70	 mov	 ecx, DWORD PTR [ecx+112]
  03124	e8 00 00 00 00	 call	 ?ShowWindow@CWnd@@QAEHH@Z ; CWnd::ShowWindow

; 551  : 		m_pGameInfo->ShowWindow( SW_HIDE );

  03129	6a 00		 push	 0
  0312b	8b 55 80	 mov	 edx, DWORD PTR _this$[ebp]
  0312e	8b 4a 6c	 mov	 ecx, DWORD PTR [edx+108]
  03131	e8 00 00 00 00	 call	 ?ShowWindow@CWnd@@QAEHH@Z ; CWnd::ShowWindow

; 552  : 	}else

  03136	e9 85 00 00 00	 jmp	 $L204912
$L204911:

; 553  : 	{
; 554  : 		m_pWndDownPercent->ShowWindow( SW_HIDE );

  0313b	6a 00		 push	 0
  0313d	8b 45 80	 mov	 eax, DWORD PTR _this$[ebp]
  03140	8b 48 64	 mov	 ecx, DWORD PTR [eax+100]
  03143	e8 00 00 00 00	 call	 ?ShowWindow@CWnd@@QAEHH@Z ; CWnd::ShowWindow

; 555  : 		m_pBtnSwitch->ShowWindow( SW_SHOW );

  03148	6a 05		 push	 5
  0314a	8b 4d 80	 mov	 ecx, DWORD PTR _this$[ebp]
  0314d	8b 49 68	 mov	 ecx, DWORD PTR [ecx+104]
  03150	e8 00 00 00 00	 call	 ?ShowWindow@CWnd@@QAEHH@Z ; CWnd::ShowWindow

; 556  : 		m_pBtnSwitch->Invalidate();

  03155	6a 01		 push	 1
  03157	8b 55 80	 mov	 edx, DWORD PTR _this$[ebp]
  0315a	8b 4a 68	 mov	 ecx, DWORD PTR [edx+104]
  0315d	e8 00 00 00 00	 call	 ?Invalidate@CWnd@@QAEXH@Z ; CWnd::Invalidate

; 557  : 		m_pGameFlash->ShowWindow( SW_SHOW );

  03162	6a 05		 push	 5
  03164	8b 45 80	 mov	 eax, DWORD PTR _this$[ebp]
  03167	8b 48 60	 mov	 ecx, DWORD PTR [eax+96]
  0316a	e8 00 00 00 00	 call	 ?ShowWindow@CWnd@@QAEHH@Z ; CWnd::ShowWindow

; 558  : 		if( m_pBtnSwitch->GetCheck() == 1 )

  0316f	8b 4d 80	 mov	 ecx, DWORD PTR _this$[ebp]
  03172	8b 49 68	 mov	 ecx, DWORD PTR [ecx+104]
  03175	e8 00 00 00 00	 call	 ?GetCheck@CButton@@QBEHXZ ; CButton::GetCheck
  0317a	83 f8 01	 cmp	 eax, 1
  0317d	75 27		 jne	 SHORT $L204913

; 559  : 		{
; 560  : 			m_pGameInfo->ShowWindow( SW_HIDE );

  0317f	6a 00		 push	 0
  03181	8b 55 80	 mov	 edx, DWORD PTR _this$[ebp]
  03184	8b 4a 6c	 mov	 ecx, DWORD PTR [edx+108]
  03187	e8 00 00 00 00	 call	 ?ShowWindow@CWnd@@QAEHH@Z ; CWnd::ShowWindow

; 561  : 			m_pGameCtrl->ShowWindow( SW_SHOW );

  0318c	6a 05		 push	 5
  0318e	8b 45 80	 mov	 eax, DWORD PTR _this$[ebp]
  03191	8b 48 70	 mov	 ecx, DWORD PTR [eax+112]
  03194	e8 00 00 00 00	 call	 ?ShowWindow@CWnd@@QAEHH@Z ; CWnd::ShowWindow

; 562  : 			m_pGameCtrl->UpdateAllWnd();

  03199	8b 4d 80	 mov	 ecx, DWORD PTR _this$[ebp]
  0319c	8b 49 70	 mov	 ecx, DWORD PTR [ecx+112]
  0319f	e8 00 00 00 00	 call	 ?UpdateAllWnd@CGameCtrlWnd@@QAEXXZ ; CGameCtrlWnd::UpdateAllWnd

; 563  : 		}else

  031a4	eb 1a		 jmp	 SHORT $L204912
$L204913:

; 564  : 		{
; 565  : 			m_pGameCtrl->ShowWindow( SW_HIDE );

  031a6	6a 00		 push	 0
  031a8	8b 55 80	 mov	 edx, DWORD PTR _this$[ebp]
  031ab	8b 4a 70	 mov	 ecx, DWORD PTR [edx+112]
  031ae	e8 00 00 00 00	 call	 ?ShowWindow@CWnd@@QAEHH@Z ; CWnd::ShowWindow

; 566  : 			m_pGameInfo->ShowWindow( SW_SHOW );

  031b3	6a 05		 push	 5
  031b5	8b 45 80	 mov	 eax, DWORD PTR _this$[ebp]
  031b8	8b 48 6c	 mov	 ecx, DWORD PTR [eax+108]
  031bb	e8 00 00 00 00	 call	 ?ShowWindow@CWnd@@QAEHH@Z ; CWnd::ShowWindow
$L204912:

; 567  : 		}
; 568  : 	}
; 569  : 	YL_Log("CGameCtrlWnd.txt", LOG_DEBUG, "CGameCtrlWnd::UpdateAllWnd", "===OUT");

  031c0	68 00 00 00 00	 push	 OFFSET FLAT:$SG204918
  031c5	8d 4d a0	 lea	 ecx, DWORD PTR $T207979[ebp]
  031c8	ff 15 00 00 00
	00		 call	 DWORD PTR __imp_??0?$basic_string@DU?$char_traits@D@std@@V?$allocator@D@2@@std@@QAE@PBD@Z
  031ce	c7 45 fc 02 00
	00 00		 mov	 DWORD PTR __$EHRec$[ebp+8], 2
  031d5	68 00 00 00 00	 push	 OFFSET FLAT:$SG204919
  031da	8d 4d 84	 lea	 ecx, DWORD PTR $T207980[ebp]
  031dd	ff 15 00 00 00
	00		 call	 DWORD PTR __imp_??0?$basic_string@DU?$char_traits@D@std@@V?$allocator@D@2@@std@@QAE@PBD@Z
  031e3	c6 45 fc 03	 mov	 BYTE PTR __$EHRec$[ebp+8], 3
  031e7	68 00 00 00 00	 push	 OFFSET FLAT:$SG204917
  031ec	8d 4d a0	 lea	 ecx, DWORD PTR $T207979[ebp]
  031ef	51		 push	 ecx
  031f0	6a 00		 push	 0
  031f2	8d 55 84	 lea	 edx, DWORD PTR $T207980[ebp]
  031f5	52		 push	 edx
  031f6	ff 15 00 00 00
	00		 call	 DWORD PTR __imp_?YL_Log@@YAXABV?$basic_string@DU?$char_traits@D@std@@V?$allocator@D@2@@std@@H0PBDZZ
  031fc	83 c4 10	 add	 esp, 16			; 00000010H
  031ff	c6 45 fc 02	 mov	 BYTE PTR __$EHRec$[ebp+8], 2
  03203	8d 4d 84	 lea	 ecx, DWORD PTR $T207980[ebp]
  03206	ff 15 00 00 00
	00		 call	 DWORD PTR __imp_??1?$basic_string@DU?$char_traits@D@std@@V?$allocator@D@2@@std@@QAE@XZ
  0320c	c7 45 fc ff ff
	ff ff		 mov	 DWORD PTR __$EHRec$[ebp+8], -1
  03213	8d 4d a0	 lea	 ecx, DWORD PTR $T207979[ebp]
  03216	ff 15 00 00 00
	00		 call	 DWORD PTR __imp_??1?$basic_string@DU?$char_traits@D@std@@V?$allocator@D@2@@std@@QAE@XZ

; 570  : }

  0321c	8b 4d f4	 mov	 ecx, DWORD PTR __$EHRec$[ebp]
  0321f	64 89 0d 00 00
	00 00		 mov	 DWORD PTR fs:__except_list, ecx
  03226	8b e5		 mov	 esp, ebp
  03228	5d		 pop	 ebp
  03229	c3		 ret	 0
_TEXT	ENDS
text$x	SEGMENT
$L207981:
  006e1	8d 4d d8	 lea	 ecx, DWORD PTR $T207977[ebp]
  006e4	ff 25 00 00 00
	00		 jmp	 DWORD PTR __imp_??1?$basic_string@DU?$char_traits@D@std@@V?$allocator@D@2@@std@@QAE@XZ
$L207982:
  006ea	8d 4d bc	 lea	 ecx, DWORD PTR $T207978[ebp]
  006ed	ff 25 00 00 00
	00		 jmp	 DWORD PTR __imp_??1?$basic_string@DU?$char_traits@D@std@@V?$allocator@D@2@@std@@QAE@XZ
$L207983:
  006f3	8d 4d a0	 lea	 ecx, DWORD PTR $T207979[ebp]
  006f6	ff 25 00 00 00
	00		 jmp	 DWORD PTR __imp_??1?$basic_string@DU?$char_traits@D@std@@V?$allocator@D@2@@std@@QAE@XZ
$L207984:
  006fc	8d 4d 84	 lea	 ecx, DWORD PTR $T207980[ebp]
  006ff	ff 25 00 00 00
	00		 jmp	 DWORD PTR __imp_??1?$basic_string@DU?$char_traits@D@std@@V?$allocator@D@2@@std@@QAE@XZ
__ehhandler$?UpdateAllWnd@GamePanelWnd@@QAEXXZ:
  00705	b8 00 00 00 00	 mov	 eax, OFFSET FLAT:$T207986
  0070a	e9 00 00 00 00	 jmp	 ___CxxFrameHandler
text$x	ENDS
?UpdateAllWnd@GamePanelWnd@@QAEXXZ ENDP			; GamePanelWnd::UpdateAllWnd
EXTRN	?OnSize@CBasicWnd@@IAEXIHH@Z:NEAR		; CBasicWnd::OnSize
EXTRN	?MoveWindow@CWnd@@QAEXHHHHH@Z:NEAR		; CWnd::MoveWindow
; Function compile flags: /Odt
_TEXT	SEGMENT
_this$ = -4						; size = 4
_nType$ = 8						; size = 4
_cx$ = 12						; size = 4
_cy$ = 16						; size = 4
?OnSize@GamePanelWnd@@IAEXIHH@Z PROC NEAR		; GamePanelWnd::OnSize
; _this$ = ecx

; 572  : {

  03230	55		 push	 ebp
  03231	8b ec		 mov	 ebp, esp
  03233	51		 push	 ecx
  03234	89 4d fc	 mov	 DWORD PTR _this$[ebp], ecx

; 573  : 	__super::OnSize(nType, cx, cy);	

  03237	8b 45 10	 mov	 eax, DWORD PTR _cy$[ebp]
  0323a	50		 push	 eax
  0323b	8b 4d 0c	 mov	 ecx, DWORD PTR _cx$[ebp]
  0323e	51		 push	 ecx
  0323f	8b 55 08	 mov	 edx, DWORD PTR _nType$[ebp]
  03242	52		 push	 edx
  03243	8b 4d fc	 mov	 ecx, DWORD PTR _this$[ebp]
  03246	e8 00 00 00 00	 call	 ?OnSize@CBasicWnd@@IAEXIHH@Z ; CBasicWnd::OnSize

; 574  : 	m_pWndDownPercent->MoveWindow( 0, 0, cx, cy );

  0324b	6a 01		 push	 1
  0324d	8b 45 10	 mov	 eax, DWORD PTR _cy$[ebp]
  03250	50		 push	 eax
  03251	8b 4d 0c	 mov	 ecx, DWORD PTR _cx$[ebp]
  03254	51		 push	 ecx
  03255	6a 00		 push	 0
  03257	6a 00		 push	 0
  03259	8b 55 fc	 mov	 edx, DWORD PTR _this$[ebp]
  0325c	8b 4a 64	 mov	 ecx, DWORD PTR [edx+100]
  0325f	e8 00 00 00 00	 call	 ?MoveWindow@CWnd@@QAEXHHHHH@Z ; CWnd::MoveWindow

; 575  : 	UpdateAllWnd();	

  03264	8b 4d fc	 mov	 ecx, DWORD PTR _this$[ebp]
  03267	e8 00 00 00 00	 call	 ?UpdateAllWnd@GamePanelWnd@@QAEXXZ ; GamePanelWnd::UpdateAllWnd

; 576  : }

  0326c	8b e5		 mov	 esp, ebp
  0326e	5d		 pop	 ebp
  0326f	c2 0c 00	 ret	 12			; 0000000cH
?OnSize@GamePanelWnd@@IAEXIHH@Z ENDP			; GamePanelWnd::OnSize
_TEXT	ENDS
PUBLIC	?SetCheck@CButton@@QAEXH@Z			; CButton::SetCheck
; Function compile flags: /Odt
_TEXT	SEGMENT
_this$ = -4						; size = 4
?OnClickedSwitch@GamePanelWnd@@IAEXXZ PROC NEAR		; GamePanelWnd::OnClickedSwitch
; _this$ = ecx

; 579  : {

  03280	55		 push	 ebp
  03281	8b ec		 mov	 ebp, esp
  03283	51		 push	 ecx
  03284	89 4d fc	 mov	 DWORD PTR _this$[ebp], ecx

; 580  : 	if( m_pBtnSwitch->GetCheck() == 1 )

  03287	8b 45 fc	 mov	 eax, DWORD PTR _this$[ebp]
  0328a	8b 48 68	 mov	 ecx, DWORD PTR [eax+104]
  0328d	e8 00 00 00 00	 call	 ?GetCheck@CButton@@QBEHXZ ; CButton::GetCheck
  03292	83 f8 01	 cmp	 eax, 1
  03295	75 0f		 jne	 SHORT $L204929

; 581  : 	{
; 582  : 		m_pBtnSwitch->SetCheck( 0 );

  03297	6a 00		 push	 0
  03299	8b 4d fc	 mov	 ecx, DWORD PTR _this$[ebp]
  0329c	8b 49 68	 mov	 ecx, DWORD PTR [ecx+104]
  0329f	e8 00 00 00 00	 call	 ?SetCheck@CButton@@QAEXH@Z ; CButton::SetCheck

; 583  : 	}else

  032a4	eb 0d		 jmp	 SHORT $L204930
$L204929:

; 584  : 	{
; 585  : 		m_pBtnSwitch->SetCheck( 1 );

  032a6	6a 01		 push	 1
  032a8	8b 55 fc	 mov	 edx, DWORD PTR _this$[ebp]
  032ab	8b 4a 68	 mov	 ecx, DWORD PTR [edx+104]
  032ae	e8 00 00 00 00	 call	 ?SetCheck@CButton@@QAEXH@Z ; CButton::SetCheck
$L204930:

; 586  : 	}
; 587  : 	UpdateAllWnd();

  032b3	8b 4d fc	 mov	 ecx, DWORD PTR _this$[ebp]
  032b6	e8 00 00 00 00	 call	 ?UpdateAllWnd@GamePanelWnd@@QAEXXZ ; GamePanelWnd::UpdateAllWnd

; 588  : }

  032bb	8b e5		 mov	 esp, ebp
  032bd	5d		 pop	 ebp
  032be	c3		 ret	 0
?OnClickedSwitch@GamePanelWnd@@IAEXXZ ENDP		; GamePanelWnd::OnClickedSwitch
; Function compile flags: /Odt
tv81 = -12						; size = 4
_this$ = -8						; size = 4
$T207992 = -4						; size = 4
_wParam$ = 8						; size = 4
_lParama$ = 12						; size = 4
?OnClickedReplay@GamePanelWnd@@IAEJIJ@Z PROC NEAR	; GamePanelWnd::OnClickedReplay
; _this$ = ecx

; 591  : {

  032c0	55		 push	 ebp
  032c1	8b ec		 mov	 ebp, esp
  032c3	83 ec 0c	 sub	 esp, 12			; 0000000cH
  032c6	89 4d f8	 mov	 DWORD PTR _this$[ebp], ecx

; 592  : 	SetGameEntry( m_swfGame );

  032c9	8b 45 f8	 mov	 eax, DWORD PTR _this$[ebp]
  032cc	83 c0 78	 add	 eax, 120		; 00000078H
  032cf	81 ec 8c 00 00
	00		 sub	 esp, 140		; 0000008cH
  032d5	8b cc		 mov	 ecx, esp
  032d7	89 65 fc	 mov	 DWORD PTR $T207992[ebp], esp
  032da	50		 push	 eax
  032db	e8 00 00 00 00	 call	 ??0SWF_GAME@@QAE@ABU0@@Z
  032e0	89 45 f4	 mov	 DWORD PTR tv81[ebp], eax
  032e3	8b 4d f8	 mov	 ecx, DWORD PTR _this$[ebp]
  032e6	e8 00 00 00 00	 call	 ?SetGameEntry@GamePanelWnd@@QAEXUSWF_GAME@@@Z ; GamePanelWnd::SetGameEntry

; 593  : 	return 0L;

  032eb	33 c0		 xor	 eax, eax

; 594  : }

  032ed	8b e5		 mov	 esp, ebp
  032ef	5d		 pop	 ebp
  032f0	c2 08 00	 ret	 8
?OnClickedReplay@GamePanelWnd@@IAEJIJ@Z ENDP		; GamePanelWnd::OnClickedReplay
_TEXT	ENDS
PUBLIC	?GetSafeHdc@CDC@@QBEPAUHDC__@@XZ		; CDC::GetSafeHdc
PUBLIC	?GetClientRect@CWnd@@QBEXPAUtagRECT@@@Z		; CWnd::GetClientRect
PUBLIC	?GetDC@CWnd@@QAEPAVCDC@@XZ			; CWnd::GetDC
PUBLIC	??0CImage@ATL@@QAE@XZ				; ATL::CImage::CImage
PUBLIC	??1CImage@ATL@@UAE@XZ				; ATL::CImage::~CImage
PUBLIC	?Create@CImage@ATL@@QAEHHHHK@Z			; ATL::CImage::Create
PUBLIC	?GetDC@CImage@ATL@@QBEPAUHDC__@@XZ		; ATL::CImage::GetDC
PUBLIC	?ReleaseDC@CImage@ATL@@QBEXXZ			; ATL::CImage::ReleaseDC
PUBLIC	?Save@CImage@ATL@@QBEJPBDABU_GUID@@@Z		; ATL::CImage::Save
EXTRN	__imp__SendMessageA@16:NEAR
EXTRN	__imp__SHGetSpecialFolderPathA@16:NEAR
EXTRN	__imp__localtime:NEAR
EXTRN	__imp__time:NEAR
EXTRN	__imp__BitBlt@36:NEAR
EXTRN	__imp__ReleaseDC@8:NEAR
EXTRN	__imp__GetDeviceCaps@8:NEAR
xdata$x	SEGMENT
$T208008 DD	0ffffffffH
	DD	FLAT:$L207998
	DD	00H
	DD	FLAT:$L207999
	DD	01H
	DD	FLAT:$L208000
	DD	02H
	DD	FLAT:$L208001
	DD	03H
	DD	FLAT:$L208002
	DD	04H
	DD	FLAT:$L208003
$T208005 DD	019930520H
	DD	06H
	DD	FLAT:$T208008
	DD	2 DUP(00H)
	DD	2 DUP(00H)
; Function compile flags: /Odt
xdata$x	ENDS
_TEXT	SEGMENT
_this$ = -464						; size = 4
$T207997 = -460						; size = 4
$T207996 = -456						; size = 4
_image$ = -452						; size = 48
_szTmpPath$ = -404					; size = 260
_strFileName$ = -140					; size = 28
_strTitle$ = -112					; size = 4
_nBitPerPixel$ = -108					; size = 4
_hdcSrc$ = -104						; size = 4
_strDesktopPath$ = -100					; size = 28
_now$ = -72						; size = 4
_tm_now$ = -68						; size = 4
_rcWindow$ = -64					; size = 16
_strNow$ = -48						; size = 28
__$ArrayPad$ = -20					; size = 4
_strContent$ = -16					; size = 4
__$EHRec$ = -12						; size = 12
__$ReturnAddr$ = 4					; size = 4
_wParam$ = 8						; size = 4
_lParama$ = 12						; size = 4
?OnClickedCut@GamePanelWnd@@IAEJIJ@Z PROC NEAR		; GamePanelWnd::OnClickedCut
; _this$ = ecx

; 597  : {

  03300	55		 push	 ebp
  03301	8b ec		 mov	 ebp, esp
  03303	6a ff		 push	 -1
  03305	68 00 00 00 00	 push	 __ehhandler$?OnClickedCut@GamePanelWnd@@IAEJIJ@Z
  0330a	64 a1 00 00 00
	00		 mov	 eax, DWORD PTR fs:__except_list
  03310	50		 push	 eax
  03311	64 89 25 00 00
	00 00		 mov	 DWORD PTR fs:__except_list, esp
  03318	81 ec c4 01 00
	00		 sub	 esp, 452		; 000001c4H
  0331e	a1 00 00 00 00	 mov	 eax, DWORD PTR ___security_cookie
  03323	89 45 ec	 mov	 DWORD PTR __$ArrayPad$[ebp], eax
  03326	57		 push	 edi
  03327	89 8d 30 fe ff
	ff		 mov	 DWORD PTR _this$[ebp], ecx

; 598  : 	string strDesktopPath;

  0332d	8d 4d 9c	 lea	 ecx, DWORD PTR _strDesktopPath$[ebp]
  03330	ff 15 00 00 00
	00		 call	 DWORD PTR __imp_??0?$basic_string@DU?$char_traits@D@std@@V?$allocator@D@2@@std@@QAE@XZ
  03336	c7 45 fc 00 00
	00 00		 mov	 DWORD PTR __$EHRec$[ebp+8], 0

; 599  : 	char szTmpPath[MAX_PATH] = {0};

  0333d	c6 85 6c fe ff
	ff 00		 mov	 BYTE PTR _szTmpPath$[ebp], 0
  03344	b9 40 00 00 00	 mov	 ecx, 64			; 00000040H
  03349	33 c0		 xor	 eax, eax
  0334b	8d bd 6d fe ff
	ff		 lea	 edi, DWORD PTR _szTmpPath$[ebp+1]
  03351	f3 ab		 rep stosd
  03353	66 ab		 stosw
  03355	aa		 stosb

; 600  : 	SHGetSpecialFolderPath (AfxGetMainWindow()->m_hWnd, szTmpPath, CSIDL_DESKTOP, FALSE);

  03356	6a 00		 push	 0
  03358	6a 00		 push	 0
  0335a	8d 85 6c fe ff
	ff		 lea	 eax, DWORD PTR _szTmpPath$[ebp]
  03360	50		 push	 eax
  03361	e8 00 00 00 00	 call	 ?AfxGetMainWindow@@YAPAVCWnd@@XZ ; AfxGetMainWindow
  03366	8b 48 20	 mov	 ecx, DWORD PTR [eax+32]
  03369	51		 push	 ecx
  0336a	ff 15 00 00 00
	00		 call	 DWORD PTR __imp__SHGetSpecialFolderPathA@16

; 601  : 	strDesktopPath = szTmpPath;

  03370	8d 95 6c fe ff
	ff		 lea	 edx, DWORD PTR _szTmpPath$[ebp]
  03376	52		 push	 edx
  03377	8d 4d 9c	 lea	 ecx, DWORD PTR _strDesktopPath$[ebp]
  0337a	ff 15 00 00 00
	00		 call	 DWORD PTR __imp_??4?$basic_string@DU?$char_traits@D@std@@V?$allocator@D@2@@std@@QAEAAV01@PBD@Z

; 602  : 
; 603  : 	if (!strDesktopPath.length ())

  03380	8d 4d 9c	 lea	 ecx, DWORD PTR _strDesktopPath$[ebp]
  03383	ff 15 00 00 00
	00		 call	 DWORD PTR __imp_?length@?$basic_string@DU?$char_traits@D@std@@V?$allocator@D@2@@std@@QBEIXZ
  03389	85 c0		 test	 eax, eax
  0338b	75 25		 jne	 SHORT $L204944

; 604  : 		return 1L;

  0338d	c7 85 38 fe ff
	ff 01 00 00 00	 mov	 DWORD PTR $T207996[ebp], 1
  03397	c7 45 fc ff ff
	ff ff		 mov	 DWORD PTR __$EHRec$[ebp+8], -1
  0339e	8d 4d 9c	 lea	 ecx, DWORD PTR _strDesktopPath$[ebp]
  033a1	ff 15 00 00 00
	00		 call	 DWORD PTR __imp_??1?$basic_string@DU?$char_traits@D@std@@V?$allocator@D@2@@std@@QAE@XZ
  033a7	8b 85 38 fe ff
	ff		 mov	 eax, DWORD PTR $T207996[ebp]
  033ad	e9 23 02 00 00	 jmp	 $L204941
$L204944:

; 605  : 
; 606  : 	time_t now;
; 607  : 	time (&now);

  033b2	8d 45 b8	 lea	 eax, DWORD PTR _now$[ebp]
  033b5	50		 push	 eax
  033b6	ff 15 00 00 00
	00		 call	 DWORD PTR __imp__time
  033bc	83 c4 04	 add	 esp, 4

; 608  : 
; 609  : 	tm * tm_now = localtime (&now);

  033bf	8d 4d b8	 lea	 ecx, DWORD PTR _now$[ebp]
  033c2	51		 push	 ecx
  033c3	ff 15 00 00 00
	00		 call	 DWORD PTR __imp__localtime
  033c9	83 c4 04	 add	 esp, 4
  033cc	89 45 bc	 mov	 DWORD PTR _tm_now$[ebp], eax

; 610  : 
; 611  : 	string strNow;

  033cf	8d 4d d0	 lea	 ecx, DWORD PTR _strNow$[ebp]
  033d2	ff 15 00 00 00
	00		 call	 DWORD PTR __imp_??0?$basic_string@DU?$char_traits@D@std@@V?$allocator@D@2@@std@@QAE@XZ
  033d8	c6 45 fc 01	 mov	 BYTE PTR __$EHRec$[ebp+8], 1

; 612  : 	YL_StringUtil::Format (strNow, "%02d%02d%02d%02d%02d",
; 613  : 		tm_now->tm_mon + 1, tm_now->tm_mday,
; 614  : 		tm_now->tm_hour, tm_now->tm_min, tm_now->tm_sec);

  033dc	8b 55 bc	 mov	 edx, DWORD PTR _tm_now$[ebp]
  033df	8b 02		 mov	 eax, DWORD PTR [edx]
  033e1	50		 push	 eax
  033e2	8b 4d bc	 mov	 ecx, DWORD PTR _tm_now$[ebp]
  033e5	8b 51 04	 mov	 edx, DWORD PTR [ecx+4]
  033e8	52		 push	 edx
  033e9	8b 45 bc	 mov	 eax, DWORD PTR _tm_now$[ebp]
  033ec	8b 48 08	 mov	 ecx, DWORD PTR [eax+8]
  033ef	51		 push	 ecx
  033f0	8b 55 bc	 mov	 edx, DWORD PTR _tm_now$[ebp]
  033f3	8b 42 0c	 mov	 eax, DWORD PTR [edx+12]
  033f6	50		 push	 eax
  033f7	8b 4d bc	 mov	 ecx, DWORD PTR _tm_now$[ebp]
  033fa	8b 51 10	 mov	 edx, DWORD PTR [ecx+16]
  033fd	83 c2 01	 add	 edx, 1
  03400	52		 push	 edx
  03401	68 00 00 00 00	 push	 OFFSET FLAT:$SG204949
  03406	8d 45 d0	 lea	 eax, DWORD PTR _strNow$[ebp]
  03409	50		 push	 eax
  0340a	e8 00 00 00 00	 call	 ?Format@YL_StringUtil@@SA_NAAV?$basic_string@DU?$char_traits@D@std@@V?$allocator@D@2@@std@@PBDZZ ; YL_StringUtil::Format
  0340f	83 c4 1c	 add	 esp, 28			; 0000001cH

; 615  : 
; 616  : 	string strFileName;

  03412	8d 8d 74 ff ff
	ff		 lea	 ecx, DWORD PTR _strFileName$[ebp]
  03418	ff 15 00 00 00
	00		 call	 DWORD PTR __imp_??0?$basic_string@DU?$char_traits@D@std@@V?$allocator@D@2@@std@@QAE@XZ
  0341e	c6 45 fc 02	 mov	 BYTE PTR __$EHRec$[ebp+8], 2

; 617  : 	YL_StringUtil::Format(strFileName, "%s\\%s.jpg",
; 618  : 		strDesktopPath.c_str(), strNow.c_str());

  03422	8d 4d d0	 lea	 ecx, DWORD PTR _strNow$[ebp]
  03425	ff 15 00 00 00
	00		 call	 DWORD PTR __imp_?c_str@?$basic_string@DU?$char_traits@D@std@@V?$allocator@D@2@@std@@QBEPBDXZ
  0342b	50		 push	 eax
  0342c	8d 4d 9c	 lea	 ecx, DWORD PTR _strDesktopPath$[ebp]
  0342f	ff 15 00 00 00
	00		 call	 DWORD PTR __imp_?c_str@?$basic_string@DU?$char_traits@D@std@@V?$allocator@D@2@@std@@QBEPBDXZ
  03435	50		 push	 eax
  03436	68 00 00 00 00	 push	 OFFSET FLAT:$SG204951
  0343b	8d 8d 74 ff ff
	ff		 lea	 ecx, DWORD PTR _strFileName$[ebp]
  03441	51		 push	 ecx
  03442	e8 00 00 00 00	 call	 ?Format@YL_StringUtil@@SA_NAAV?$basic_string@DU?$char_traits@D@std@@V?$allocator@D@2@@std@@PBDZZ ; YL_StringUtil::Format
  03447	83 c4 10	 add	 esp, 16			; 00000010H

; 619  : 
; 620  : 	CRect rcWindow;

  0344a	8d 4d c0	 lea	 ecx, DWORD PTR _rcWindow$[ebp]
  0344d	e8 00 00 00 00	 call	 ??0CRect@@QAE@XZ	; CRect::CRect

; 621  : 	m_pGameFlash->GetClientRect(&rcWindow);

  03452	8d 55 c0	 lea	 edx, DWORD PTR _rcWindow$[ebp]
  03455	52		 push	 edx
  03456	8b 85 30 fe ff
	ff		 mov	 eax, DWORD PTR _this$[ebp]
  0345c	8b 48 60	 mov	 ecx, DWORD PTR [eax+96]
  0345f	e8 00 00 00 00	 call	 ?GetClientRect@CWnd@@QBEXPAUtagRECT@@@Z ; CWnd::GetClientRect

; 622  : 
; 623  : 	HDC hdcSrc = m_pGameFlash->GetDC()->GetSafeHdc();

  03464	8b 8d 30 fe ff
	ff		 mov	 ecx, DWORD PTR _this$[ebp]
  0346a	8b 49 60	 mov	 ecx, DWORD PTR [ecx+96]
  0346d	e8 00 00 00 00	 call	 ?GetDC@CWnd@@QAEPAVCDC@@XZ ; CWnd::GetDC
  03472	8b c8		 mov	 ecx, eax
  03474	e8 00 00 00 00	 call	 ?GetSafeHdc@CDC@@QBEPAUHDC__@@XZ ; CDC::GetSafeHdc
  03479	89 45 98	 mov	 DWORD PTR _hdcSrc$[ebp], eax

; 624  : 	int nBitPerPixel = GetDeviceCaps(hdcSrc, BITSPIXEL);

  0347c	6a 0c		 push	 12			; 0000000cH
  0347e	8b 55 98	 mov	 edx, DWORD PTR _hdcSrc$[ebp]
  03481	52		 push	 edx
  03482	ff 15 00 00 00
	00		 call	 DWORD PTR __imp__GetDeviceCaps@8
  03488	89 45 94	 mov	 DWORD PTR _nBitPerPixel$[ebp], eax

; 625  : 	CImage image;

  0348b	8d 8d 3c fe ff
	ff		 lea	 ecx, DWORD PTR _image$[ebp]
  03491	e8 00 00 00 00	 call	 ??0CImage@ATL@@QAE@XZ	; ATL::CImage::CImage
  03496	c6 45 fc 03	 mov	 BYTE PTR __$EHRec$[ebp+8], 3

; 626  : 	image.Create (rcWindow.Width (), rcWindow.Height (), nBitPerPixel);

  0349a	6a 00		 push	 0
  0349c	8b 45 94	 mov	 eax, DWORD PTR _nBitPerPixel$[ebp]
  0349f	50		 push	 eax
  034a0	8d 4d c0	 lea	 ecx, DWORD PTR _rcWindow$[ebp]
  034a3	e8 00 00 00 00	 call	 ?Height@CRect@@QBEHXZ	; CRect::Height
  034a8	50		 push	 eax
  034a9	8d 4d c0	 lea	 ecx, DWORD PTR _rcWindow$[ebp]
  034ac	e8 00 00 00 00	 call	 ?Width@CRect@@QBEHXZ	; CRect::Width
  034b1	50		 push	 eax
  034b2	8d 8d 3c fe ff
	ff		 lea	 ecx, DWORD PTR _image$[ebp]
  034b8	e8 00 00 00 00	 call	 ?Create@CImage@ATL@@QAEHHHHK@Z ; ATL::CImage::Create

; 627  : 	BitBlt (image.GetDC (), 0, 0, rcWindow.Width (), rcWindow.Height (), 
; 628  : 		hdcSrc, rcWindow.left, rcWindow.top, SRCCOPY);

  034bd	68 20 00 cc 00	 push	 13369376		; 00cc0020H
  034c2	8b 4d c4	 mov	 ecx, DWORD PTR _rcWindow$[ebp+4]
  034c5	51		 push	 ecx
  034c6	8b 55 c0	 mov	 edx, DWORD PTR _rcWindow$[ebp]
  034c9	52		 push	 edx
  034ca	8b 45 98	 mov	 eax, DWORD PTR _hdcSrc$[ebp]
  034cd	50		 push	 eax
  034ce	8d 4d c0	 lea	 ecx, DWORD PTR _rcWindow$[ebp]
  034d1	e8 00 00 00 00	 call	 ?Height@CRect@@QBEHXZ	; CRect::Height
  034d6	50		 push	 eax
  034d7	8d 4d c0	 lea	 ecx, DWORD PTR _rcWindow$[ebp]
  034da	e8 00 00 00 00	 call	 ?Width@CRect@@QBEHXZ	; CRect::Width
  034df	50		 push	 eax
  034e0	6a 00		 push	 0
  034e2	6a 00		 push	 0
  034e4	8d 8d 3c fe ff
	ff		 lea	 ecx, DWORD PTR _image$[ebp]
  034ea	e8 00 00 00 00	 call	 ?GetDC@CImage@ATL@@QBEPAUHDC__@@XZ ; ATL::CImage::GetDC
  034ef	50		 push	 eax
  034f0	ff 15 00 00 00
	00		 call	 DWORD PTR __imp__BitBlt@36

; 629  : 
; 630  : 	::ReleaseDC(NULL, hdcSrc);

  034f6	8b 4d 98	 mov	 ecx, DWORD PTR _hdcSrc$[ebp]
  034f9	51		 push	 ecx
  034fa	6a 00		 push	 0
  034fc	ff 15 00 00 00
	00		 call	 DWORD PTR __imp__ReleaseDC@8

; 631  : 	image.ReleaseDC();

  03502	8d 8d 3c fe ff
	ff		 lea	 ecx, DWORD PTR _image$[ebp]
  03508	e8 00 00 00 00	 call	 ?ReleaseDC@CImage@ATL@@QBEXXZ ; ATL::CImage::ReleaseDC

; 632  : 	image.Save(strFileName.c_str(), Gdiplus::ImageFormatJPEG);

  0350d	68 00 00 00 00	 push	 OFFSET FLAT:_ImageFormatJPEG
  03512	8d 8d 74 ff ff
	ff		 lea	 ecx, DWORD PTR _strFileName$[ebp]
  03518	ff 15 00 00 00
	00		 call	 DWORD PTR __imp_?c_str@?$basic_string@DU?$char_traits@D@std@@V?$allocator@D@2@@std@@QBEPBDXZ
  0351e	50		 push	 eax
  0351f	8d 8d 3c fe ff
	ff		 lea	 ecx, DWORD PTR _image$[ebp]
  03525	e8 00 00 00 00	 call	 ?Save@CImage@ATL@@QBEJPBDABU_GUID@@@Z ; ATL::CImage::Save

; 633  : 
; 634  : 	CString strTitle = "";

  0352a	68 00 00 00 00	 push	 OFFSET FLAT:$SG204958
  0352f	8d 4d 90	 lea	 ecx, DWORD PTR _strTitle$[ebp]
  03532	ff 15 00 00 00
	00		 call	 DWORD PTR __imp_??0?$CStringT@DV?$StrTraitMFC_DLL@DV?$ChTraitsCRT@D@ATL@@@@@ATL@@QAE@PBD@Z
  03538	c6 45 fc 04	 mov	 BYTE PTR __$EHRec$[ebp+8], 4

; 635  : 	CString strContent = CString(strFileName.c_str());

  0353c	8d 8d 74 ff ff
	ff		 lea	 ecx, DWORD PTR _strFileName$[ebp]
  03542	ff 15 00 00 00
	00		 call	 DWORD PTR __imp_?c_str@?$basic_string@DU?$char_traits@D@std@@V?$allocator@D@2@@std@@QBEPBDXZ
  03548	50		 push	 eax
  03549	8d 4d f0	 lea	 ecx, DWORD PTR _strContent$[ebp]
  0354c	ff 15 00 00 00
	00		 call	 DWORD PTR __imp_??0?$CStringT@DV?$StrTraitMFC_DLL@DV?$ChTraitsCRT@D@ATL@@@@@ATL@@QAE@PBD@Z
  03552	c6 45 fc 05	 mov	 BYTE PTR __$EHRec$[ebp+8], 5

; 636  : 	
; 637  : 	::SendMessage( AfxGetMainWindow()->m_hWnd, MSG_SHOW_TRAYICONBALLOON, WPARAM(&strTitle), LPARAM(&strContent) );

  03556	8d 55 f0	 lea	 edx, DWORD PTR _strContent$[ebp]
  03559	52		 push	 edx
  0355a	8d 45 90	 lea	 eax, DWORD PTR _strTitle$[ebp]
  0355d	50		 push	 eax
  0355e	6a 65		 push	 101			; 00000065H
  03560	e8 00 00 00 00	 call	 ?AfxGetMainWindow@@YAPAVCWnd@@XZ ; AfxGetMainWindow
  03565	8b 48 20	 mov	 ecx, DWORD PTR [eax+32]
  03568	51		 push	 ecx
  03569	ff 15 00 00 00
	00		 call	 DWORD PTR __imp__SendMessageA@16

; 638  : 	
; 639  : 	return 0L;

  0356f	c7 85 34 fe ff
	ff 00 00 00 00	 mov	 DWORD PTR $T207997[ebp], 0
  03579	c6 45 fc 04	 mov	 BYTE PTR __$EHRec$[ebp+8], 4
  0357d	8d 4d f0	 lea	 ecx, DWORD PTR _strContent$[ebp]
  03580	ff 15 00 00 00
	00		 call	 DWORD PTR __imp_??1?$CStringT@DV?$StrTraitMFC_DLL@DV?$ChTraitsCRT@D@ATL@@@@@ATL@@QAE@XZ
  03586	c6 45 fc 03	 mov	 BYTE PTR __$EHRec$[ebp+8], 3
  0358a	8d 4d 90	 lea	 ecx, DWORD PTR _strTitle$[ebp]
  0358d	ff 15 00 00 00
	00		 call	 DWORD PTR __imp_??1?$CStringT@DV?$StrTraitMFC_DLL@DV?$ChTraitsCRT@D@ATL@@@@@ATL@@QAE@XZ
  03593	c6 45 fc 02	 mov	 BYTE PTR __$EHRec$[ebp+8], 2
  03597	8d 8d 3c fe ff
	ff		 lea	 ecx, DWORD PTR _image$[ebp]
  0359d	e8 00 00 00 00	 call	 ??1CImage@ATL@@UAE@XZ	; ATL::CImage::~CImage
  035a2	c6 45 fc 01	 mov	 BYTE PTR __$EHRec$[ebp+8], 1
  035a6	8d 8d 74 ff ff
	ff		 lea	 ecx, DWORD PTR _strFileName$[ebp]
  035ac	ff 15 00 00 00
	00		 call	 DWORD PTR __imp_??1?$basic_string@DU?$char_traits@D@std@@V?$allocator@D@2@@std@@QAE@XZ
  035b2	c6 45 fc 00	 mov	 BYTE PTR __$EHRec$[ebp+8], 0
  035b6	8d 4d d0	 lea	 ecx, DWORD PTR _strNow$[ebp]
  035b9	ff 15 00 00 00
	00		 call	 DWORD PTR __imp_??1?$basic_string@DU?$char_traits@D@std@@V?$allocator@D@2@@std@@QAE@XZ
  035bf	c7 45 fc ff ff
	ff ff		 mov	 DWORD PTR __$EHRec$[ebp+8], -1
  035c6	8d 4d 9c	 lea	 ecx, DWORD PTR _strDesktopPath$[ebp]
  035c9	ff 15 00 00 00
	00		 call	 DWORD PTR __imp_??1?$basic_string@DU?$char_traits@D@std@@V?$allocator@D@2@@std@@QAE@XZ
  035cf	8b 85 34 fe ff
	ff		 mov	 eax, DWORD PTR $T207997[ebp]
$L204941:

; 640  : }

  035d5	8b 4d f4	 mov	 ecx, DWORD PTR __$EHRec$[ebp]
  035d8	64 89 0d 00 00
	00 00		 mov	 DWORD PTR fs:__except_list, ecx
  035df	8b 4d ec	 mov	 ecx, DWORD PTR __$ArrayPad$[ebp]
  035e2	e8 00 00 00 00	 call	 @__security_check_cookie@4
  035e7	5f		 pop	 edi
  035e8	8b e5		 mov	 esp, ebp
  035ea	5d		 pop	 ebp
  035eb	c2 08 00	 ret	 8
_TEXT	ENDS
text$x	SEGMENT
$L207998:
  0070f	8d 4d 9c	 lea	 ecx, DWORD PTR _strDesktopPath$[ebp]
  00712	ff 25 00 00 00
	00		 jmp	 DWORD PTR __imp_??1?$basic_string@DU?$char_traits@D@std@@V?$allocator@D@2@@std@@QAE@XZ
$L207999:
  00718	8d 4d d0	 lea	 ecx, DWORD PTR _strNow$[ebp]
  0071b	ff 25 00 00 00
	00		 jmp	 DWORD PTR __imp_??1?$basic_string@DU?$char_traits@D@std@@V?$allocator@D@2@@std@@QAE@XZ
$L208000:
  00721	8d 8d 74 ff ff
	ff		 lea	 ecx, DWORD PTR _strFileName$[ebp]
  00727	ff 25 00 00 00
	00		 jmp	 DWORD PTR __imp_??1?$basic_string@DU?$char_traits@D@std@@V?$allocator@D@2@@std@@QAE@XZ
$L208001:
  0072d	8d 8d 3c fe ff
	ff		 lea	 ecx, DWORD PTR _image$[ebp]
  00733	e9 00 00 00 00	 jmp	 ??1CImage@ATL@@UAE@XZ	; ATL::CImage::~CImage
$L208002:
  00738	8d 4d 90	 lea	 ecx, DWORD PTR _strTitle$[ebp]
  0073b	ff 25 00 00 00
	00		 jmp	 DWORD PTR __imp_??1?$CStringT@DV?$StrTraitMFC_DLL@DV?$ChTraitsCRT@D@ATL@@@@@ATL@@QAE@XZ
$L208003:
  00741	8d 4d f0	 lea	 ecx, DWORD PTR _strContent$[ebp]
  00744	ff 25 00 00 00
	00		 jmp	 DWORD PTR __imp_??1?$CStringT@DV?$StrTraitMFC_DLL@DV?$ChTraitsCRT@D@ATL@@@@@ATL@@QAE@XZ
__ehhandler$?OnClickedCut@GamePanelWnd@@IAEJIJ@Z:
  0074a	b8 00 00 00 00	 mov	 eax, OFFSET FLAT:$T208005
  0074f	e9 00 00 00 00	 jmp	 ___CxxFrameHandler
text$x	ENDS
?OnClickedCut@GamePanelWnd@@IAEJIJ@Z ENDP		; GamePanelWnd::OnClickedCut
PUBLIC	?IncreaseCImageCount@CInitGDIPlus@CImage@ATL@@QAEXXZ ; ATL::CImage::CInitGDIPlus::IncreaseCImageCount
PUBLIC	??_R4CImage@ATL@@6B@				; ATL::CImage::`RTTI Complete Object Locator'
PUBLIC	??_R0?AVCImage@ATL@@@8				; ATL::CImage `RTTI Type Descriptor'
PUBLIC	??_R3CImage@ATL@@8				; ATL::CImage::`RTTI Class Hierarchy Descriptor'
PUBLIC	??_R2CImage@ATL@@8				; ATL::CImage::`RTTI Base Class Array'
PUBLIC	??_R1A@?0A@A@CImage@ATL@@8			; ATL::CImage::`RTTI Base Class Descriptor at (0,-1,0,0)'
PUBLIC	??_7CImage@ATL@@6B@				; ATL::CImage::`vftable'
PUBLIC	??_GCImage@ATL@@UAEPAXI@Z			; ATL::CImage::`scalar deleting destructor'
EXTRN	?s_initGDIPlus@CImage@ATL@@0VCInitGDIPlus@12@A:BYTE ; ATL::CImage::s_initGDIPlus
EXTRN	??_ECImage@ATL@@UAEPAXI@Z:NEAR			; ATL::CImage::`vector deleting destructor'
;	COMDAT ??_7CImage@ATL@@6B@
; File d:\program files (x86)\microsoft visual studio .net 2003\vc7\atlmfc\include\atlimage.h
CONST	SEGMENT
??_7CImage@ATL@@6B@ DD FLAT:??_R4CImage@ATL@@6B@	; ATL::CImage::`vftable'
	DD	FLAT:??_ECImage@ATL@@UAEPAXI@Z
CONST	ENDS
;	COMDAT ??_R4CImage@ATL@@6B@
rdata$r	SEGMENT
??_R4CImage@ATL@@6B@ DD 00H				; ATL::CImage::`RTTI Complete Object Locator'
	DD	00H
	DD	00H
	DD	FLAT:??_R0?AVCImage@ATL@@@8
	DD	FLAT:??_R3CImage@ATL@@8
rdata$r	ENDS
;	COMDAT ??_R0?AVCImage@ATL@@@8
_DATA	SEGMENT
??_R0?AVCImage@ATL@@@8 DD FLAT:??_7type_info@@6B@	; ATL::CImage `RTTI Type Descriptor'
	DD	00H
	DB	'.?AVCImage@ATL@@', 00H
_DATA	ENDS
;	COMDAT ??_R3CImage@ATL@@8
rdata$r	SEGMENT
??_R3CImage@ATL@@8 DD 00H				; ATL::CImage::`RTTI Class Hierarchy Descriptor'
	DD	00H
	DD	01H
	DD	FLAT:??_R2CImage@ATL@@8
rdata$r	ENDS
;	COMDAT ??_R2CImage@ATL@@8
rdata$r	SEGMENT
??_R2CImage@ATL@@8 DD FLAT:??_R1A@?0A@A@CImage@ATL@@8	; ATL::CImage::`RTTI Base Class Array'
rdata$r	ENDS
;	COMDAT ??_R1A@?0A@A@CImage@ATL@@8
rdata$r	SEGMENT
??_R1A@?0A@A@CImage@ATL@@8 DD FLAT:??_R0?AVCImage@ATL@@@8 ; ATL::CImage::`RTTI Base Class Descriptor at (0,-1,0,0)'
	DD	00H
	DD	00H
	DD	0ffffffffH
	DD	00H
	DD	00H
; Function compile flags: /Odt
rdata$r	ENDS
;	COMDAT ??0CImage@ATL@@QAE@XZ
_TEXT	SEGMENT
_this$ = -4						; size = 4
??0CImage@ATL@@QAE@XZ PROC NEAR				; ATL::CImage::CImage, COMDAT
; _this$ = ecx

; 432  : {

  00000	55		 push	 ebp
  00001	8b ec		 mov	 ebp, esp
  00003	51		 push	 ecx
  00004	89 4d fc	 mov	 DWORD PTR _this$[ebp], ecx
  00007	8b 45 fc	 mov	 eax, DWORD PTR _this$[ebp]
  0000a	c7 00 00 00 00
	00		 mov	 DWORD PTR [eax], OFFSET FLAT:??_7CImage@ATL@@6B@
  00010	8b 4d fc	 mov	 ecx, DWORD PTR _this$[ebp]
  00013	c7 41 04 00 00
	00 00		 mov	 DWORD PTR [ecx+4], 0
  0001a	8b 55 fc	 mov	 edx, DWORD PTR _this$[ebp]
  0001d	c7 42 08 00 00
	00 00		 mov	 DWORD PTR [edx+8], 0
  00024	8b 45 fc	 mov	 eax, DWORD PTR _this$[ebp]
  00027	c7 40 0c 00 00
	00 00		 mov	 DWORD PTR [eax+12], 0
  0002e	8b 4d fc	 mov	 ecx, DWORD PTR _this$[ebp]
  00031	c7 41 10 00 00
	00 00		 mov	 DWORD PTR [ecx+16], 0
  00038	8b 55 fc	 mov	 edx, DWORD PTR _this$[ebp]
  0003b	c7 42 14 00 00
	00 00		 mov	 DWORD PTR [edx+20], 0
  00042	8b 45 fc	 mov	 eax, DWORD PTR _this$[ebp]
  00045	c7 40 18 00 00
	00 00		 mov	 DWORD PTR [eax+24], 0
  0004c	8b 4d fc	 mov	 ecx, DWORD PTR _this$[ebp]
  0004f	c6 41 1c 00	 mov	 BYTE PTR [ecx+28], 0
  00053	8b 55 fc	 mov	 edx, DWORD PTR _this$[ebp]
  00056	c6 42 1d 00	 mov	 BYTE PTR [edx+29], 0
  0005a	8b 45 fc	 mov	 eax, DWORD PTR _this$[ebp]
  0005d	c7 40 20 ff ff
	ff ff		 mov	 DWORD PTR [eax+32], -1
  00064	8b 4d fc	 mov	 ecx, DWORD PTR _this$[ebp]
  00067	c7 41 24 00 00
	00 00		 mov	 DWORD PTR [ecx+36], 0
  0006e	8b 55 fc	 mov	 edx, DWORD PTR _this$[ebp]
  00071	c7 42 28 00 00
	00 00		 mov	 DWORD PTR [edx+40], 0
  00078	8b 45 fc	 mov	 eax, DWORD PTR _this$[ebp]
  0007b	c7 40 2c 00 00
	00 00		 mov	 DWORD PTR [eax+44], 0

; 433  : 	s_initGDIPlus.IncreaseCImageCount();

  00082	b9 00 00 00 00	 mov	 ecx, OFFSET FLAT:?s_initGDIPlus@CImage@ATL@@0VCInitGDIPlus@12@A
  00087	e8 00 00 00 00	 call	 ?IncreaseCImageCount@CInitGDIPlus@CImage@ATL@@QAEXXZ ; ATL::CImage::CInitGDIPlus::IncreaseCImageCount

; 434  : }

  0008c	8b 45 fc	 mov	 eax, DWORD PTR _this$[ebp]
  0008f	8b e5		 mov	 esp, ebp
  00091	5d		 pop	 ebp
  00092	c3		 ret	 0
??0CImage@ATL@@QAE@XZ ENDP				; ATL::CImage::CImage
_TEXT	ENDS
EXTRN	__imp__EnterCriticalSection@4:NEAR
EXTRN	__imp__LeaveCriticalSection@4:NEAR
; Function compile flags: /Odt
;	COMDAT ?IncreaseCImageCount@CInitGDIPlus@CImage@ATL@@QAEXXZ
_TEXT	SEGMENT
_this$ = -4						; size = 4
?IncreaseCImageCount@CInitGDIPlus@CImage@ATL@@QAEXXZ PROC NEAR ; ATL::CImage::CInitGDIPlus::IncreaseCImageCount, COMDAT
; _this$ = ecx

; 342  : {

  00000	55		 push	 ebp
  00001	8b ec		 mov	 ebp, esp
  00003	51		 push	 ecx
  00004	89 4d fc	 mov	 DWORD PTR _this$[ebp], ecx

; 343  : 	EnterCriticalSection(&m_sect);

  00007	8b 45 fc	 mov	 eax, DWORD PTR _this$[ebp]
  0000a	83 c0 04	 add	 eax, 4
  0000d	50		 push	 eax
  0000e	ff 15 00 00 00
	00		 call	 DWORD PTR __imp__EnterCriticalSection@4

; 344  : 	m_nCImageObjects++;

  00014	8b 4d fc	 mov	 ecx, DWORD PTR _this$[ebp]
  00017	8b 51 1c	 mov	 edx, DWORD PTR [ecx+28]
  0001a	83 c2 01	 add	 edx, 1
  0001d	8b 45 fc	 mov	 eax, DWORD PTR _this$[ebp]
  00020	89 50 1c	 mov	 DWORD PTR [eax+28], edx

; 345  : 	LeaveCriticalSection(&m_sect);

  00023	8b 4d fc	 mov	 ecx, DWORD PTR _this$[ebp]
  00026	83 c1 04	 add	 ecx, 4
  00029	51		 push	 ecx
  0002a	ff 15 00 00 00
	00		 call	 DWORD PTR __imp__LeaveCriticalSection@4

; 346  : }

  00030	8b e5		 mov	 esp, ebp
  00032	5d		 pop	 ebp
  00033	c3		 ret	 0
?IncreaseCImageCount@CInitGDIPlus@CImage@ATL@@QAEXXZ ENDP ; ATL::CImage::CInitGDIPlus::IncreaseCImageCount
; Function compile flags: /Odt
_TEXT	ENDS
;	COMDAT ??_GCImage@ATL@@UAEPAXI@Z
_TEXT	SEGMENT
_this$ = -4						; size = 4
___flags$ = 8						; size = 4
??_GCImage@ATL@@UAEPAXI@Z PROC NEAR			; ATL::CImage::`scalar deleting destructor', COMDAT
; _this$ = ecx
  00000	55		 push	 ebp
  00001	8b ec		 mov	 ebp, esp
  00003	51		 push	 ecx
  00004	89 4d fc	 mov	 DWORD PTR _this$[ebp], ecx
  00007	8b 4d fc	 mov	 ecx, DWORD PTR _this$[ebp]
  0000a	e8 00 00 00 00	 call	 ??1CImage@ATL@@UAE@XZ	; ATL::CImage::~CImage
  0000f	8b 45 08	 mov	 eax, DWORD PTR ___flags$[ebp]
  00012	83 e0 01	 and	 eax, 1
  00015	74 0c		 je	 SHORT $L199284
  00017	8b 4d fc	 mov	 ecx, DWORD PTR _this$[ebp]
  0001a	51		 push	 ecx
  0001b	e8 00 00 00 00	 call	 ??3@YAXPAX@Z		; operator delete
  00020	83 c4 04	 add	 esp, 4
$L199284:
  00023	8b 45 fc	 mov	 eax, DWORD PTR _this$[ebp]
  00026	8b e5		 mov	 esp, ebp
  00028	5d		 pop	 ebp
  00029	c2 04 00	 ret	 4
??_GCImage@ATL@@UAEPAXI@Z ENDP				; ATL::CImage::`scalar deleting destructor'
_TEXT	ENDS
PUBLIC	?DecreaseCImageCount@CInitGDIPlus@CImage@ATL@@QAEXXZ ; ATL::CImage::CInitGDIPlus::DecreaseCImageCount
PUBLIC	?Destroy@CImage@ATL@@QAEXXZ			; ATL::CImage::Destroy
; Function compile flags: /Odt
;	COMDAT ??1CImage@ATL@@UAE@XZ
_TEXT	SEGMENT
_this$ = -4						; size = 4
??1CImage@ATL@@UAE@XZ PROC NEAR				; ATL::CImage::~CImage, COMDAT
; _this$ = ecx

; 437  : {

  00000	55		 push	 ebp
  00001	8b ec		 mov	 ebp, esp
  00003	51		 push	 ecx
  00004	89 4d fc	 mov	 DWORD PTR _this$[ebp], ecx
  00007	8b 45 fc	 mov	 eax, DWORD PTR _this$[ebp]
  0000a	c7 00 00 00 00
	00		 mov	 DWORD PTR [eax], OFFSET FLAT:??_7CImage@ATL@@6B@

; 438  : 	Destroy();

  00010	8b 4d fc	 mov	 ecx, DWORD PTR _this$[ebp]
  00013	e8 00 00 00 00	 call	 ?Destroy@CImage@ATL@@QAEXXZ ; ATL::CImage::Destroy

; 439  : 	s_initGDIPlus.DecreaseCImageCount();

  00018	b9 00 00 00 00	 mov	 ecx, OFFSET FLAT:?s_initGDIPlus@CImage@ATL@@0VCInitGDIPlus@12@A
  0001d	e8 00 00 00 00	 call	 ?DecreaseCImageCount@CInitGDIPlus@CImage@ATL@@QAEXXZ ; ATL::CImage::CInitGDIPlus::DecreaseCImageCount

; 440  : }

  00022	8b e5		 mov	 esp, ebp
  00024	5d		 pop	 ebp
  00025	c3		 ret	 0
??1CImage@ATL@@UAE@XZ ENDP				; ATL::CImage::~CImage
_TEXT	ENDS
PUBLIC	?ReleaseGDIPlus@CInitGDIPlus@CImage@ATL@@QAEXXZ	; ATL::CImage::CInitGDIPlus::ReleaseGDIPlus
; Function compile flags: /Odt
;	COMDAT ?DecreaseCImageCount@CInitGDIPlus@CImage@ATL@@QAEXXZ
_TEXT	SEGMENT
_this$ = -4						; size = 4
?DecreaseCImageCount@CInitGDIPlus@CImage@ATL@@QAEXXZ PROC NEAR ; ATL::CImage::CInitGDIPlus::DecreaseCImageCount, COMDAT
; _this$ = ecx

; 349  : {

  00000	55		 push	 ebp
  00001	8b ec		 mov	 ebp, esp
  00003	51		 push	 ecx
  00004	89 4d fc	 mov	 DWORD PTR _this$[ebp], ecx

; 350  : 	EnterCriticalSection(&m_sect);

  00007	8b 45 fc	 mov	 eax, DWORD PTR _this$[ebp]
  0000a	83 c0 04	 add	 eax, 4
  0000d	50		 push	 eax
  0000e	ff 15 00 00 00
	00		 call	 DWORD PTR __imp__EnterCriticalSection@4

; 351  : 	if( --m_nCImageObjects == 0 )

  00014	8b 4d fc	 mov	 ecx, DWORD PTR _this$[ebp]
  00017	8b 51 1c	 mov	 edx, DWORD PTR [ecx+28]
  0001a	83 ea 01	 sub	 edx, 1
  0001d	8b 45 fc	 mov	 eax, DWORD PTR _this$[ebp]
  00020	89 50 1c	 mov	 DWORD PTR [eax+28], edx
  00023	8b 4d fc	 mov	 ecx, DWORD PTR _this$[ebp]
  00026	83 79 1c 00	 cmp	 DWORD PTR [ecx+28], 0
  0002a	75 08		 jne	 SHORT $L199237

; 352  : 		ReleaseGDIPlus();

  0002c	8b 4d fc	 mov	 ecx, DWORD PTR _this$[ebp]
  0002f	e8 00 00 00 00	 call	 ?ReleaseGDIPlus@CInitGDIPlus@CImage@ATL@@QAEXXZ ; ATL::CImage::CInitGDIPlus::ReleaseGDIPlus
$L199237:

; 353  : 	LeaveCriticalSection(&m_sect);

  00034	8b 55 fc	 mov	 edx, DWORD PTR _this$[ebp]
  00037	83 c2 04	 add	 edx, 4
  0003a	52		 push	 edx
  0003b	ff 15 00 00 00
	00		 call	 DWORD PTR __imp__LeaveCriticalSection@4

; 354  : }

  00041	8b e5		 mov	 esp, ebp
  00043	5d		 pop	 ebp
  00044	c3		 ret	 0
?DecreaseCImageCount@CInitGDIPlus@CImage@ATL@@QAEXXZ ENDP ; ATL::CImage::CInitGDIPlus::DecreaseCImageCount
_TEXT	ENDS
EXTRN	_GdiplusShutdown@4:NEAR
; Function compile flags: /Odt
;	COMDAT ?ReleaseGDIPlus@CInitGDIPlus@CImage@ATL@@QAEXXZ
_TEXT	SEGMENT
_this$ = -4						; size = 4
?ReleaseGDIPlus@CInitGDIPlus@CImage@ATL@@QAEXXZ PROC NEAR ; ATL::CImage::CInitGDIPlus::ReleaseGDIPlus, COMDAT
; _this$ = ecx

; 331  : {

  00000	55		 push	 ebp
  00001	8b ec		 mov	 ebp, esp
  00003	51		 push	 ecx
  00004	89 4d fc	 mov	 DWORD PTR _this$[ebp], ecx

; 332  : 	EnterCriticalSection(&m_sect);

  00007	8b 45 fc	 mov	 eax, DWORD PTR _this$[ebp]
  0000a	83 c0 04	 add	 eax, 4
  0000d	50		 push	 eax
  0000e	ff 15 00 00 00
	00		 call	 DWORD PTR __imp__EnterCriticalSection@4

; 333  : 	if( m_dwToken != 0 )

  00014	8b 4d fc	 mov	 ecx, DWORD PTR _this$[ebp]
  00017	83 39 00	 cmp	 DWORD PTR [ecx], 0
  0001a	74 0b		 je	 SHORT $L199230

; 334  : 	{
; 335  : 		Gdiplus::GdiplusShutdown( m_dwToken );

  0001c	8b 55 fc	 mov	 edx, DWORD PTR _this$[ebp]
  0001f	8b 02		 mov	 eax, DWORD PTR [edx]
  00021	50		 push	 eax
  00022	e8 00 00 00 00	 call	 _GdiplusShutdown@4
$L199230:

; 336  : 	}
; 337  : 	m_dwToken = 0;

  00027	8b 4d fc	 mov	 ecx, DWORD PTR _this$[ebp]
  0002a	c7 01 00 00 00
	00		 mov	 DWORD PTR [ecx], 0

; 338  : 	LeaveCriticalSection(&m_sect);

  00030	8b 55 fc	 mov	 edx, DWORD PTR _this$[ebp]
  00033	83 c2 04	 add	 edx, 4
  00036	52		 push	 edx
  00037	ff 15 00 00 00
	00		 call	 DWORD PTR __imp__LeaveCriticalSection@4

; 339  : }

  0003d	8b e5		 mov	 esp, ebp
  0003f	5d		 pop	 ebp
  00040	c3		 ret	 0
?ReleaseGDIPlus@CInitGDIPlus@CImage@ATL@@QAEXXZ ENDP	; ATL::CImage::CInitGDIPlus::ReleaseGDIPlus
_TEXT	ENDS
PUBLIC	?CreateEx@CImage@ATL@@QAEHHHHKPBKK@Z		; ATL::CImage::CreateEx
; Function compile flags: /Odt
;	COMDAT ?Create@CImage@ATL@@QAEHHHHK@Z
_TEXT	SEGMENT
_this$ = -4						; size = 4
_nWidth$ = 8						; size = 4
_nHeight$ = 12						; size = 4
_nBPP$ = 16						; size = 4
_dwFlags$ = 20						; size = 4
?Create@CImage@ATL@@QAEHHHHK@Z PROC NEAR		; ATL::CImage::Create, COMDAT
; _this$ = ecx

; 549  : {

  00000	55		 push	 ebp
  00001	8b ec		 mov	 ebp, esp
  00003	51		 push	 ecx
  00004	89 4d fc	 mov	 DWORD PTR _this$[ebp], ecx

; 550  : 	return( CreateEx( nWidth, nHeight, nBPP, BI_RGB, NULL, dwFlags ) );

  00007	8b 45 14	 mov	 eax, DWORD PTR _dwFlags$[ebp]
  0000a	50		 push	 eax
  0000b	6a 00		 push	 0
  0000d	6a 00		 push	 0
  0000f	8b 4d 10	 mov	 ecx, DWORD PTR _nBPP$[ebp]
  00012	51		 push	 ecx
  00013	8b 55 0c	 mov	 edx, DWORD PTR _nHeight$[ebp]
  00016	52		 push	 edx
  00017	8b 45 08	 mov	 eax, DWORD PTR _nWidth$[ebp]
  0001a	50		 push	 eax
  0001b	8b 4d fc	 mov	 ecx, DWORD PTR _this$[ebp]
  0001e	e8 00 00 00 00	 call	 ?CreateEx@CImage@ATL@@QAEHHHHKPBKK@Z ; ATL::CImage::CreateEx

; 551  : }

  00023	8b e5		 mov	 esp, ebp
  00025	5d		 pop	 ebp
  00026	c2 10 00	 ret	 16			; 00000010H
?Create@CImage@ATL@@QAEHHHHK@Z ENDP			; ATL::CImage::Create
_TEXT	ENDS
PUBLIC	?Attach@CImage@ATL@@QAEXPAUHBITMAP__@@W4DIBOrientation@12@@Z ; ATL::CImage::Attach
EXTRN	__imp__CreateDIBSection@24:NEAR
EXTRN	_memcpy:NEAR
; Function compile flags: /Odt
;	COMDAT ?CreateEx@CImage@ATL@@QAEHHHHKPBKK@Z
_TEXT	SEGMENT
tv76 = -36						; size = 4
tv70 = -32						; size = 4
_this$ = -28						; size = 4
$T208028 = -24						; size = 4
$T208027 = -20						; size = 4
$T208026 = -16						; size = 4
_hBitmap$ = -12						; size = 4
__AtlSafeAllocaManager$ = -8				; size = 4
_pbmi$ = -4						; size = 4
_nWidth$ = 8						; size = 4
_nHeight$ = 12						; size = 4
_nBPP$ = 16						; size = 4
_eCompression$ = 20					; size = 4
_pdwBitfields$ = 24					; size = 4
_dwFlags$ = 28						; size = 4
?CreateEx@CImage@ATL@@QAEHHHHKPBKK@Z PROC NEAR		; ATL::CImage::CreateEx, COMDAT
; _this$ = ecx

; 555  : {

  00000	55		 push	 ebp
  00001	8b ec		 mov	 ebp, esp
  00003	83 ec 24	 sub	 esp, 36			; 00000024H
  00006	89 4d e4	 mov	 DWORD PTR _this$[ebp], ecx

; 556  : 	USES_ATL_SAFE_ALLOCA;

  00009	8d 4d f8	 lea	 ecx, DWORD PTR __AtlSafeAllocaManager$[ebp]
  0000c	e8 00 00 00 00	 call	 ??0?$CAtlSafeAllocBufferManager@VCCRTAllocator@ATL@@@_ATL_SAFE_ALLOCA_IMPL@ATL@@QAE@XZ ; ATL::_ATL_SAFE_ALLOCA_IMPL::CAtlSafeAllocBufferManager<ATL::CCRTAllocator>::CAtlSafeAllocBufferManager<ATL::CCRTAllocator>

; 557  : 	LPBITMAPINFO pbmi;
; 558  : 	HBITMAP hBitmap;
; 559  : 
; 560  : 	ATLASSERT( (eCompression == BI_RGB) || (eCompression == BI_BITFIELDS) );
; 561  : 	if( dwFlags&createAlphaChannel )
; 562  : 	{
; 563  : 		ATLASSERT( (nBPP == 32) && (eCompression == BI_RGB) );
; 564  : 	}
; 565  : 	
; 566  : 	pbmi = (LPBITMAPINFO)_ATL_SAFE_ALLOCA(sizeof(BITMAPINFOHEADER) + sizeof(RGBQUAD)*256, _ATL_SAFE_ALLOCA_DEF_THRESHOLD);

  00011	33 c9		 xor	 ecx, ecx
  00013	74 15		 je	 SHORT $L208024
  00015	b8 28 04 00 00	 mov	 eax, 1064		; 00000428H
  0001a	e8 00 00 00 00	 call	 __alloca_probe
  0001f	89 65 e0	 mov	 DWORD PTR tv70[ebp], esp
  00022	8b 55 e0	 mov	 edx, DWORD PTR tv70[ebp]
  00025	89 55 dc	 mov	 DWORD PTR tv76[ebp], edx
  00028	eb 10		 jmp	 SHORT $L208025
$L208024:
  0002a	68 28 04 00 00	 push	 1064			; 00000428H
  0002f	8d 4d f8	 lea	 ecx, DWORD PTR __AtlSafeAllocaManager$[ebp]
  00032	e8 00 00 00 00	 call	 ?Allocate@?$CAtlSafeAllocBufferManager@VCCRTAllocator@ATL@@@_ATL_SAFE_ALLOCA_IMPL@ATL@@QAEPAXK@Z ; ATL::_ATL_SAFE_ALLOCA_IMPL::CAtlSafeAllocBufferManager<ATL::CCRTAllocator>::Allocate
  00037	89 45 dc	 mov	 DWORD PTR tv76[ebp], eax
$L208025:
  0003a	8b 45 dc	 mov	 eax, DWORD PTR tv76[ebp]
  0003d	89 45 fc	 mov	 DWORD PTR _pbmi$[ebp], eax

; 567  : 	if( pbmi == NULL )

  00040	83 7d fc 00	 cmp	 DWORD PTR _pbmi$[ebp], 0
  00044	75 17		 jne	 SHORT $L199404

; 568  : 		return FALSE;

  00046	c7 45 f0 00 00
	00 00		 mov	 DWORD PTR $T208026[ebp], 0
  0004d	8d 4d f8	 lea	 ecx, DWORD PTR __AtlSafeAllocaManager$[ebp]
  00050	e8 00 00 00 00	 call	 ??1?$CAtlSafeAllocBufferManager@VCCRTAllocator@ATL@@@_ATL_SAFE_ALLOCA_IMPL@ATL@@QAE@XZ ; ATL::_ATL_SAFE_ALLOCA_IMPL::CAtlSafeAllocBufferManager<ATL::CCRTAllocator>::~CAtlSafeAllocBufferManager<ATL::CCRTAllocator>
  00055	8b 45 f0	 mov	 eax, DWORD PTR $T208026[ebp]
  00058	e9 ef 00 00 00	 jmp	 $L199388
$L199404:

; 569  : 
; 570  : 	memset( &pbmi->bmiHeader, 0, sizeof( pbmi->bmiHeader ) );

  0005d	6a 28		 push	 40			; 00000028H
  0005f	6a 00		 push	 0
  00061	8b 4d fc	 mov	 ecx, DWORD PTR _pbmi$[ebp]
  00064	51		 push	 ecx
  00065	e8 00 00 00 00	 call	 _memset
  0006a	83 c4 0c	 add	 esp, 12			; 0000000cH

; 571  : 	pbmi->bmiHeader.biSize = sizeof( pbmi->bmiHeader );

  0006d	8b 55 fc	 mov	 edx, DWORD PTR _pbmi$[ebp]
  00070	c7 02 28 00 00
	00		 mov	 DWORD PTR [edx], 40	; 00000028H

; 572  : 	pbmi->bmiHeader.biWidth = nWidth;

  00076	8b 45 fc	 mov	 eax, DWORD PTR _pbmi$[ebp]
  00079	8b 4d 08	 mov	 ecx, DWORD PTR _nWidth$[ebp]
  0007c	89 48 04	 mov	 DWORD PTR [eax+4], ecx

; 573  : 	pbmi->bmiHeader.biHeight = nHeight;

  0007f	8b 55 fc	 mov	 edx, DWORD PTR _pbmi$[ebp]
  00082	8b 45 0c	 mov	 eax, DWORD PTR _nHeight$[ebp]
  00085	89 42 08	 mov	 DWORD PTR [edx+8], eax

; 574  : 	pbmi->bmiHeader.biPlanes = 1;

  00088	8b 4d fc	 mov	 ecx, DWORD PTR _pbmi$[ebp]
  0008b	66 c7 41 0c 01
	00		 mov	 WORD PTR [ecx+12], 1

; 575  : 	pbmi->bmiHeader.biBitCount = USHORT( nBPP );

  00091	8b 55 fc	 mov	 edx, DWORD PTR _pbmi$[ebp]
  00094	66 8b 45 10	 mov	 ax, WORD PTR _nBPP$[ebp]
  00098	66 89 42 0e	 mov	 WORD PTR [edx+14], ax

; 576  : 	pbmi->bmiHeader.biCompression = eCompression;

  0009c	8b 4d fc	 mov	 ecx, DWORD PTR _pbmi$[ebp]
  0009f	8b 55 14	 mov	 edx, DWORD PTR _eCompression$[ebp]
  000a2	89 51 10	 mov	 DWORD PTR [ecx+16], edx

; 577  : 	if( nBPP <= 8 )

  000a5	83 7d 10 08	 cmp	 DWORD PTR _nBPP$[ebp], 8
  000a9	7f 18		 jg	 SHORT $L199406

; 578  : 	{
; 579  : 		ATLASSERT( eCompression == BI_RGB );
; 580  : 		memset( pbmi->bmiColors, 0, 256*sizeof( RGBQUAD ) );

  000ab	68 00 04 00 00	 push	 1024			; 00000400H
  000b0	6a 00		 push	 0
  000b2	8b 45 fc	 mov	 eax, DWORD PTR _pbmi$[ebp]
  000b5	83 c0 28	 add	 eax, 40			; 00000028H
  000b8	50		 push	 eax
  000b9	e8 00 00 00 00	 call	 _memset
  000be	83 c4 0c	 add	 esp, 12			; 0000000cH

; 581  : 	}
; 582  : 	else 

  000c1	eb 1b		 jmp	 SHORT $L199409
$L199406:

; 583  : 	{
; 584  : 		if( eCompression == BI_BITFIELDS )

  000c3	83 7d 14 03	 cmp	 DWORD PTR _eCompression$[ebp], 3
  000c7	75 15		 jne	 SHORT $L199409

; 585  : 		{
; 586  : 			ATLASSERT( pdwBitfields != NULL );
; 587  : 			memcpy( pbmi->bmiColors, pdwBitfields, 3*sizeof( DWORD ) );

  000c9	6a 0c		 push	 12			; 0000000cH
  000cb	8b 4d 18	 mov	 ecx, DWORD PTR _pdwBitfields$[ebp]
  000ce	51		 push	 ecx
  000cf	8b 55 fc	 mov	 edx, DWORD PTR _pbmi$[ebp]
  000d2	83 c2 28	 add	 edx, 40			; 00000028H
  000d5	52		 push	 edx
  000d6	e8 00 00 00 00	 call	 _memcpy
  000db	83 c4 0c	 add	 esp, 12			; 0000000cH
$L199409:

; 588  : 		}
; 589  : 	}
; 590  : 
; 591  : 	hBitmap = ::CreateDIBSection( NULL, pbmi, DIB_RGB_COLORS, &m_pBits, NULL,
; 592  : 		0 );

  000de	6a 00		 push	 0
  000e0	6a 00		 push	 0
  000e2	8b 45 e4	 mov	 eax, DWORD PTR _this$[ebp]
  000e5	83 c0 08	 add	 eax, 8
  000e8	50		 push	 eax
  000e9	6a 00		 push	 0
  000eb	8b 4d fc	 mov	 ecx, DWORD PTR _pbmi$[ebp]
  000ee	51		 push	 ecx
  000ef	6a 00		 push	 0
  000f1	ff 15 00 00 00
	00		 call	 DWORD PTR __imp__CreateDIBSection@24
  000f7	89 45 f4	 mov	 DWORD PTR _hBitmap$[ebp], eax

; 593  : 	if( hBitmap == NULL )

  000fa	83 7d f4 00	 cmp	 DWORD PTR _hBitmap$[ebp], 0
  000fe	75 14		 jne	 SHORT $L199413

; 594  : 	{
; 595  : 		return( FALSE );

  00100	c7 45 ec 00 00
	00 00		 mov	 DWORD PTR $T208027[ebp], 0
  00107	8d 4d f8	 lea	 ecx, DWORD PTR __AtlSafeAllocaManager$[ebp]
  0010a	e8 00 00 00 00	 call	 ??1?$CAtlSafeAllocBufferManager@VCCRTAllocator@ATL@@@_ATL_SAFE_ALLOCA_IMPL@ATL@@QAE@XZ ; ATL::_ATL_SAFE_ALLOCA_IMPL::CAtlSafeAllocBufferManager<ATL::CCRTAllocator>::~CAtlSafeAllocBufferManager<ATL::CCRTAllocator>
  0010f	8b 45 ec	 mov	 eax, DWORD PTR $T208027[ebp]
  00112	eb 38		 jmp	 SHORT $L199388
$L199413:

; 596  : 	}
; 597  : 
; 598  : 	Attach( hBitmap, (nHeight < 0) ? DIBOR_TOPDOWN : DIBOR_BOTTOMUP );

  00114	33 d2		 xor	 edx, edx
  00116	83 7d 0c 00	 cmp	 DWORD PTR _nHeight$[ebp], 0
  0011a	0f 9d c2	 setge	 dl
  0011d	42		 inc	 edx
  0011e	52		 push	 edx
  0011f	8b 45 f4	 mov	 eax, DWORD PTR _hBitmap$[ebp]
  00122	50		 push	 eax
  00123	8b 4d e4	 mov	 ecx, DWORD PTR _this$[ebp]
  00126	e8 00 00 00 00	 call	 ?Attach@CImage@ATL@@QAEXPAUHBITMAP__@@W4DIBOrientation@12@@Z ; ATL::CImage::Attach

; 599  : 
; 600  : 	if( dwFlags&createAlphaChannel )

  0012b	8b 4d 1c	 mov	 ecx, DWORD PTR _dwFlags$[ebp]
  0012e	83 e1 01	 and	 ecx, 1
  00131	74 07		 je	 SHORT $L199415

; 601  : 	{
; 602  : 		m_bHasAlphaChannel = true;

  00133	8b 55 e4	 mov	 edx, DWORD PTR _this$[ebp]
  00136	c6 42 1d 01	 mov	 BYTE PTR [edx+29], 1
$L199415:

; 603  : 	}
; 604  : 
; 605  : 	return( TRUE );

  0013a	c7 45 e8 01 00
	00 00		 mov	 DWORD PTR $T208028[ebp], 1
  00141	8d 4d f8	 lea	 ecx, DWORD PTR __AtlSafeAllocaManager$[ebp]
  00144	e8 00 00 00 00	 call	 ??1?$CAtlSafeAllocBufferManager@VCCRTAllocator@ATL@@@_ATL_SAFE_ALLOCA_IMPL@ATL@@QAE@XZ ; ATL::_ATL_SAFE_ALLOCA_IMPL::CAtlSafeAllocBufferManager<ATL::CCRTAllocator>::~CAtlSafeAllocBufferManager<ATL::CCRTAllocator>
  00149	8b 45 e8	 mov	 eax, DWORD PTR $T208028[ebp]
$L199388:

; 606  : }

  0014c	8d 65 dc	 lea	 esp, DWORD PTR [ebp-36]
  0014f	8b e5		 mov	 esp, ebp
  00151	5d		 pop	 ebp
  00152	c2 18 00	 ret	 24			; 00000018H
?CreateEx@CImage@ATL@@QAEHHHHKPBKK@Z ENDP		; ATL::CImage::CreateEx
_TEXT	ENDS
PUBLIC	?UpdateBitmapInfo@CImage@ATL@@AAEXW4DIBOrientation@12@@Z ; ATL::CImage::UpdateBitmapInfo
; Function compile flags: /Odt
;	COMDAT ?Attach@CImage@ATL@@QAEXPAUHBITMAP__@@W4DIBOrientation@12@@Z
_TEXT	SEGMENT
_this$ = -4						; size = 4
_hBitmap$ = 8						; size = 4
_eOrientation$ = 12					; size = 4
?Attach@CImage@ATL@@QAEXPAUHBITMAP__@@W4DIBOrientation@12@@Z PROC NEAR ; ATL::CImage::Attach, COMDAT
; _this$ = ecx

; 502  : {

  00000	55		 push	 ebp
  00001	8b ec		 mov	 ebp, esp
  00003	51		 push	 ecx
  00004	89 4d fc	 mov	 DWORD PTR _this$[ebp], ecx

; 503  : 	ATLASSERT( m_hBitmap == NULL );
; 504  : 	ATLASSERT( hBitmap != NULL );
; 505  : 
; 506  : 	m_hBitmap = hBitmap;

  00007	8b 45 fc	 mov	 eax, DWORD PTR _this$[ebp]
  0000a	8b 4d 08	 mov	 ecx, DWORD PTR _hBitmap$[ebp]
  0000d	89 48 04	 mov	 DWORD PTR [eax+4], ecx

; 507  : 
; 508  : 	UpdateBitmapInfo( eOrientation );

  00010	8b 55 0c	 mov	 edx, DWORD PTR _eOrientation$[ebp]
  00013	52		 push	 edx
  00014	8b 4d fc	 mov	 ecx, DWORD PTR _this$[ebp]
  00017	e8 00 00 00 00	 call	 ?UpdateBitmapInfo@CImage@ATL@@AAEXW4DIBOrientation@12@@Z ; ATL::CImage::UpdateBitmapInfo

; 509  : }

  0001c	8b e5		 mov	 esp, ebp
  0001e	5d		 pop	 ebp
  0001f	c2 08 00	 ret	 8
?Attach@CImage@ATL@@QAEXPAUHBITMAP__@@W4DIBOrientation@12@@Z ENDP ; ATL::CImage::Attach
_TEXT	ENDS
PUBLIC	?Detach@CImage@ATL@@QAEPAUHBITMAP__@@XZ		; ATL::CImage::Detach
EXTRN	__imp__DeleteObject@4:NEAR
; Function compile flags: /Odt
;	COMDAT ?Destroy@CImage@ATL@@QAEXXZ
_TEXT	SEGMENT
_this$ = -8						; size = 4
_hBitmap$ = -4						; size = 4
?Destroy@CImage@ATL@@QAEXXZ PROC NEAR			; ATL::CImage::Destroy, COMDAT
; _this$ = ecx

; 609  : {

  00000	55		 push	 ebp
  00001	8b ec		 mov	 ebp, esp
  00003	83 ec 08	 sub	 esp, 8
  00006	89 4d f8	 mov	 DWORD PTR _this$[ebp], ecx

; 610  : 	HBITMAP hBitmap;
; 611  : 
; 612  : 	if( m_hBitmap != NULL )

  00009	8b 45 f8	 mov	 eax, DWORD PTR _this$[ebp]
  0000c	83 78 04 00	 cmp	 DWORD PTR [eax+4], 0
  00010	74 15		 je	 SHORT $L199419

; 613  : 	{
; 614  : 		hBitmap = Detach();

  00012	8b 4d f8	 mov	 ecx, DWORD PTR _this$[ebp]
  00015	e8 00 00 00 00	 call	 ?Detach@CImage@ATL@@QAEPAUHBITMAP__@@XZ ; ATL::CImage::Detach
  0001a	89 45 fc	 mov	 DWORD PTR _hBitmap$[ebp], eax

; 615  : 		::DeleteObject( hBitmap );

  0001d	8b 4d fc	 mov	 ecx, DWORD PTR _hBitmap$[ebp]
  00020	51		 push	 ecx
  00021	ff 15 00 00 00
	00		 call	 DWORD PTR __imp__DeleteObject@4
$L199419:

; 616  : 	}
; 617  : }

  00027	8b e5		 mov	 esp, ebp
  00029	5d		 pop	 ebp
  0002a	c3		 ret	 0
?Destroy@CImage@ATL@@QAEXXZ ENDP			; ATL::CImage::Destroy
; Function compile flags: /Odt
_TEXT	ENDS
;	COMDAT ?Detach@CImage@ATL@@QAEPAUHBITMAP__@@XZ
_TEXT	SEGMENT
_this$ = -8						; size = 4
_hBitmap$ = -4						; size = 4
?Detach@CImage@ATL@@QAEPAUHBITMAP__@@XZ PROC NEAR	; ATL::CImage::Detach, COMDAT
; _this$ = ecx

; 620  : {

  00000	55		 push	 ebp
  00001	8b ec		 mov	 ebp, esp
  00003	83 ec 08	 sub	 esp, 8
  00006	89 4d f8	 mov	 DWORD PTR _this$[ebp], ecx

; 621  : 	HBITMAP hBitmap;
; 622  : 
; 623  : 	ATLASSERT( m_hBitmap != NULL );
; 624  : 	ATLASSERT( m_hDC == NULL );
; 625  : 
; 626  : 	hBitmap = m_hBitmap;

  00009	8b 45 f8	 mov	 eax, DWORD PTR _this$[ebp]
  0000c	8b 48 04	 mov	 ecx, DWORD PTR [eax+4]
  0000f	89 4d fc	 mov	 DWORD PTR _hBitmap$[ebp], ecx

; 627  : 	m_hBitmap = NULL;

  00012	8b 55 f8	 mov	 edx, DWORD PTR _this$[ebp]
  00015	c7 42 04 00 00
	00 00		 mov	 DWORD PTR [edx+4], 0

; 628  : 	m_pBits = NULL;

  0001c	8b 45 f8	 mov	 eax, DWORD PTR _this$[ebp]
  0001f	c7 40 08 00 00
	00 00		 mov	 DWORD PTR [eax+8], 0

; 629  : 	m_nWidth = 0;

  00026	8b 4d f8	 mov	 ecx, DWORD PTR _this$[ebp]
  00029	c7 41 0c 00 00
	00 00		 mov	 DWORD PTR [ecx+12], 0

; 630  : 	m_nHeight = 0;

  00030	8b 55 f8	 mov	 edx, DWORD PTR _this$[ebp]
  00033	c7 42 10 00 00
	00 00		 mov	 DWORD PTR [edx+16], 0

; 631  : 	m_nBPP = 0;

  0003a	8b 45 f8	 mov	 eax, DWORD PTR _this$[ebp]
  0003d	c7 40 18 00 00
	00 00		 mov	 DWORD PTR [eax+24], 0

; 632  : 	m_nPitch = 0;

  00044	8b 4d f8	 mov	 ecx, DWORD PTR _this$[ebp]
  00047	c7 41 14 00 00
	00 00		 mov	 DWORD PTR [ecx+20], 0

; 633  : 	m_iTransparentColor = -1;

  0004e	8b 55 f8	 mov	 edx, DWORD PTR _this$[ebp]
  00051	c7 42 20 ff ff
	ff ff		 mov	 DWORD PTR [edx+32], -1

; 634  : 	m_bHasAlphaChannel = false;

  00058	8b 45 f8	 mov	 eax, DWORD PTR _this$[ebp]
  0005b	c6 40 1d 00	 mov	 BYTE PTR [eax+29], 0

; 635  : 	m_bIsDIBSection = false;

  0005f	8b 4d f8	 mov	 ecx, DWORD PTR _this$[ebp]
  00062	c6 41 1c 00	 mov	 BYTE PTR [ecx+28], 0

; 636  : 
; 637  : 	return( hBitmap );

  00066	8b 45 fc	 mov	 eax, DWORD PTR _hBitmap$[ebp]

; 638  : }

  00069	8b e5		 mov	 esp, ebp
  0006b	5d		 pop	 ebp
  0006c	c3		 ret	 0
?Detach@CImage@ATL@@QAEPAUHBITMAP__@@XZ ENDP		; ATL::CImage::Detach
_TEXT	ENDS
PUBLIC	?GetDC@CDCCache@CImage@ATL@@QAEPAUHDC__@@XZ	; ATL::CImage::CDCCache::GetDC
EXTRN	__imp__SelectObject@8:NEAR
EXTRN	?s_cache@CImage@ATL@@0VCDCCache@12@A:BYTE	; ATL::CImage::s_cache
; Function compile flags: /Odt
;	COMDAT ?GetDC@CImage@ATL@@QBEPAUHDC__@@XZ
_TEXT	SEGMENT
_this$ = -4						; size = 4
?GetDC@CImage@ATL@@QBEPAUHDC__@@XZ PROC NEAR		; ATL::CImage::GetDC, COMDAT
; _this$ = ecx

; 750  : {

  00000	55		 push	 ebp
  00001	8b ec		 mov	 ebp, esp
  00003	51		 push	 ecx
  00004	89 4d fc	 mov	 DWORD PTR _this$[ebp], ecx

; 751  : 	ATLASSERT( m_hBitmap != NULL );
; 752  : 
; 753  : 	m_nDCRefCount++;

  00007	8b 45 fc	 mov	 eax, DWORD PTR _this$[ebp]
  0000a	8b 48 28	 mov	 ecx, DWORD PTR [eax+40]
  0000d	83 c1 01	 add	 ecx, 1
  00010	8b 55 fc	 mov	 edx, DWORD PTR _this$[ebp]
  00013	89 4a 28	 mov	 DWORD PTR [edx+40], ecx

; 754  : 	if( m_hDC == NULL )

  00016	8b 45 fc	 mov	 eax, DWORD PTR _this$[ebp]
  00019	83 78 24 00	 cmp	 DWORD PTR [eax+36], 0
  0001d	75 2a		 jne	 SHORT $L199510

; 755  : 	{
; 756  : 		m_hDC = s_cache.GetDC();

  0001f	b9 00 00 00 00	 mov	 ecx, OFFSET FLAT:?s_cache@CImage@ATL@@0VCDCCache@12@A
  00024	e8 00 00 00 00	 call	 ?GetDC@CDCCache@CImage@ATL@@QAEPAUHDC__@@XZ ; ATL::CImage::CDCCache::GetDC
  00029	8b 4d fc	 mov	 ecx, DWORD PTR _this$[ebp]
  0002c	89 41 24	 mov	 DWORD PTR [ecx+36], eax

; 757  : 		m_hOldBitmap = HBITMAP( ::SelectObject( m_hDC, m_hBitmap ) );

  0002f	8b 55 fc	 mov	 edx, DWORD PTR _this$[ebp]
  00032	8b 42 04	 mov	 eax, DWORD PTR [edx+4]
  00035	50		 push	 eax
  00036	8b 4d fc	 mov	 ecx, DWORD PTR _this$[ebp]
  00039	8b 51 24	 mov	 edx, DWORD PTR [ecx+36]
  0003c	52		 push	 edx
  0003d	ff 15 00 00 00
	00		 call	 DWORD PTR __imp__SelectObject@8
  00043	8b 4d fc	 mov	 ecx, DWORD PTR _this$[ebp]
  00046	89 41 2c	 mov	 DWORD PTR [ecx+44], eax
$L199510:

; 758  : 	}
; 759  : 
; 760  : 	return( m_hDC );

  00049	8b 55 fc	 mov	 edx, DWORD PTR _this$[ebp]
  0004c	8b 42 24	 mov	 eax, DWORD PTR [edx+36]

; 761  : }

  0004f	8b e5		 mov	 esp, ebp
  00051	5d		 pop	 ebp
  00052	c3		 ret	 0
?GetDC@CImage@ATL@@QBEPAUHDC__@@XZ ENDP			; ATL::CImage::GetDC
_TEXT	ENDS
EXTRN	__imp__CreateCompatibleDC@4:NEAR
; Function compile flags: /Odt
;	COMDAT ?GetDC@CDCCache@CImage@ATL@@QAEPAUHDC__@@XZ
_TEXT	SEGMENT
_this$ = -12						; size = 4
_iDC$199257 = -8					; size = 4
_hDC$ = -4						; size = 4
?GetDC@CDCCache@CImage@ATL@@QAEPAUHDC__@@XZ PROC NEAR	; ATL::CImage::CDCCache::GetDC, COMDAT
; _this$ = ecx

; 380  : {

  00000	55		 push	 ebp
  00001	8b ec		 mov	 ebp, esp
  00003	83 ec 0c	 sub	 esp, 12			; 0000000cH
  00006	89 4d f4	 mov	 DWORD PTR _this$[ebp], ecx

; 381  : 	HDC hDC;
; 382  : 
; 383  : 	for( int iDC = 0; iDC < CIMAGE_DC_CACHE_SIZE; iDC++ )

  00009	c7 45 f8 00 00
	00 00		 mov	 DWORD PTR _iDC$199257[ebp], 0
  00010	eb 09		 jmp	 SHORT $L199258
$L199259:
  00012	8b 45 f8	 mov	 eax, DWORD PTR _iDC$199257[ebp]
  00015	83 c0 01	 add	 eax, 1
  00018	89 45 f8	 mov	 DWORD PTR _iDC$199257[ebp], eax
$L199258:
  0001b	83 7d f8 04	 cmp	 DWORD PTR _iDC$199257[ebp], 4
  0001f	7d 21		 jge	 SHORT $L199260

; 384  : 	{
; 385  : 		hDC = static_cast< HDC >( InterlockedExchangePointer( reinterpret_cast< void** >(&m_ahDCs[iDC]), NULL ) );

  00021	6a 00		 push	 0
  00023	8b 4d f8	 mov	 ecx, DWORD PTR _iDC$199257[ebp]
  00026	8b 55 f4	 mov	 edx, DWORD PTR _this$[ebp]
  00029	8d 04 8a	 lea	 eax, DWORD PTR [edx+ecx*4]
  0002c	50		 push	 eax
  0002d	e8 00 00 00 00	 call	 ?InterlockedExchangePointer@@YGPAXPAPAXPAX@Z ; InterlockedExchangePointer
  00032	89 45 fc	 mov	 DWORD PTR _hDC$[ebp], eax

; 386  : 		if( hDC != NULL )

  00035	83 7d fc 00	 cmp	 DWORD PTR _hDC$[ebp], 0
  00039	74 05		 je	 SHORT $L199263

; 387  : 		{
; 388  : 			return( hDC );

  0003b	8b 45 fc	 mov	 eax, DWORD PTR _hDC$[ebp]
  0003e	eb 10		 jmp	 SHORT $L199255
$L199263:

; 389  : 		}
; 390  : 	}

  00040	eb d0		 jmp	 SHORT $L199259
$L199260:

; 391  : 
; 392  : 	hDC = ::CreateCompatibleDC( NULL );

  00042	6a 00		 push	 0
  00044	ff 15 00 00 00
	00		 call	 DWORD PTR __imp__CreateCompatibleDC@4
  0004a	89 45 fc	 mov	 DWORD PTR _hDC$[ebp], eax

; 393  : 
; 394  : 	return( hDC );

  0004d	8b 45 fc	 mov	 eax, DWORD PTR _hDC$[ebp]
$L199255:

; 395  : }

  00050	8b e5		 mov	 esp, ebp
  00052	5d		 pop	 ebp
  00053	c3		 ret	 0
?GetDC@CDCCache@CImage@ATL@@QAEPAUHDC__@@XZ ENDP	; ATL::CImage::CDCCache::GetDC
_TEXT	ENDS
PUBLIC	?ReleaseDC@CDCCache@CImage@ATL@@QAEXPAUHDC__@@@Z ; ATL::CImage::CDCCache::ReleaseDC
; Function compile flags: /Odt
;	COMDAT ?ReleaseDC@CImage@ATL@@QBEXXZ
_TEXT	SEGMENT
_this$ = -8						; size = 4
_hBitmap$ = -4						; size = 4
?ReleaseDC@CImage@ATL@@QBEXXZ PROC NEAR			; ATL::CImage::ReleaseDC, COMDAT
; _this$ = ecx

; 1196 : {

  00000	55		 push	 ebp
  00001	8b ec		 mov	 ebp, esp
  00003	83 ec 08	 sub	 esp, 8
  00006	89 4d f8	 mov	 DWORD PTR _this$[ebp], ecx

; 1197 : 	HBITMAP hBitmap;
; 1198 : 
; 1199 : 	ATLASSERT( m_hDC != NULL );
; 1200 : 
; 1201 : 	m_nDCRefCount--;

  00009	8b 45 f8	 mov	 eax, DWORD PTR _this$[ebp]
  0000c	8b 48 28	 mov	 ecx, DWORD PTR [eax+40]
  0000f	83 e9 01	 sub	 ecx, 1
  00012	8b 55 f8	 mov	 edx, DWORD PTR _this$[ebp]
  00015	89 4a 28	 mov	 DWORD PTR [edx+40], ecx

; 1202 : 	if( m_nDCRefCount == 0 )

  00018	8b 45 f8	 mov	 eax, DWORD PTR _this$[ebp]
  0001b	83 78 28 00	 cmp	 DWORD PTR [eax+40], 0
  0001f	75 32		 jne	 SHORT $L199882

; 1203 : 	{
; 1204 : 		hBitmap = HBITMAP( ::SelectObject( m_hDC, m_hOldBitmap ) );

  00021	8b 4d f8	 mov	 ecx, DWORD PTR _this$[ebp]
  00024	8b 51 2c	 mov	 edx, DWORD PTR [ecx+44]
  00027	52		 push	 edx
  00028	8b 45 f8	 mov	 eax, DWORD PTR _this$[ebp]
  0002b	8b 48 24	 mov	 ecx, DWORD PTR [eax+36]
  0002e	51		 push	 ecx
  0002f	ff 15 00 00 00
	00		 call	 DWORD PTR __imp__SelectObject@8
  00035	89 45 fc	 mov	 DWORD PTR _hBitmap$[ebp], eax

; 1205 : 		ATLASSERT( hBitmap == m_hBitmap );
; 1206 : 		s_cache.ReleaseDC( m_hDC );

  00038	8b 55 f8	 mov	 edx, DWORD PTR _this$[ebp]
  0003b	8b 42 24	 mov	 eax, DWORD PTR [edx+36]
  0003e	50		 push	 eax
  0003f	b9 00 00 00 00	 mov	 ecx, OFFSET FLAT:?s_cache@CImage@ATL@@0VCDCCache@12@A
  00044	e8 00 00 00 00	 call	 ?ReleaseDC@CDCCache@CImage@ATL@@QAEXPAUHDC__@@@Z ; ATL::CImage::CDCCache::ReleaseDC

; 1207 : 		m_hDC = NULL;

  00049	8b 4d f8	 mov	 ecx, DWORD PTR _this$[ebp]
  0004c	c7 41 24 00 00
	00 00		 mov	 DWORD PTR [ecx+36], 0
$L199882:

; 1208 : 	}
; 1209 : }

  00053	8b e5		 mov	 esp, ebp
  00055	5d		 pop	 ebp
  00056	c3		 ret	 0
?ReleaseDC@CImage@ATL@@QBEXXZ ENDP			; ATL::CImage::ReleaseDC
_TEXT	ENDS
EXTRN	__imp__DeleteDC@4:NEAR
; Function compile flags: /Odt
;	COMDAT ?ReleaseDC@CDCCache@CImage@ATL@@QAEXPAUHDC__@@@Z
_TEXT	SEGMENT
_this$ = -12						; size = 4
_hOldDC$199272 = -8					; size = 4
_iDC$199268 = -4					; size = 4
_hDC$ = 8						; size = 4
?ReleaseDC@CDCCache@CImage@ATL@@QAEXPAUHDC__@@@Z PROC NEAR ; ATL::CImage::CDCCache::ReleaseDC, COMDAT
; _this$ = ecx

; 398  : {

  00000	55		 push	 ebp
  00001	8b ec		 mov	 ebp, esp
  00003	83 ec 0c	 sub	 esp, 12			; 0000000cH
  00006	89 4d f4	 mov	 DWORD PTR _this$[ebp], ecx

; 399  : 	for( int iDC = 0; iDC < CIMAGE_DC_CACHE_SIZE; iDC++ )

  00009	c7 45 fc 00 00
	00 00		 mov	 DWORD PTR _iDC$199268[ebp], 0
  00010	eb 09		 jmp	 SHORT $L199269
$L199270:
  00012	8b 45 fc	 mov	 eax, DWORD PTR _iDC$199268[ebp]
  00015	83 c0 01	 add	 eax, 1
  00018	89 45 fc	 mov	 DWORD PTR _iDC$199268[ebp], eax
$L199269:
  0001b	83 7d fc 04	 cmp	 DWORD PTR _iDC$199268[ebp], 4
  0001f	7d 26		 jge	 SHORT $L199271

; 400  : 	{
; 401  : 		HDC hOldDC;
; 402  : 
; 403  : 		hOldDC = static_cast< HDC >( InterlockedExchangePointer( reinterpret_cast< void** >(&m_ahDCs[iDC]), hDC ) );

  00021	8b 4d 08	 mov	 ecx, DWORD PTR _hDC$[ebp]
  00024	51		 push	 ecx
  00025	8b 55 fc	 mov	 edx, DWORD PTR _iDC$199268[ebp]
  00028	8b 45 f4	 mov	 eax, DWORD PTR _this$[ebp]
  0002b	8d 0c 90	 lea	 ecx, DWORD PTR [eax+edx*4]
  0002e	51		 push	 ecx
  0002f	e8 00 00 00 00	 call	 ?InterlockedExchangePointer@@YGPAXPAPAXPAX@Z ; InterlockedExchangePointer
  00034	89 45 f8	 mov	 DWORD PTR _hOldDC$199272[ebp], eax

; 404  : 		if( hOldDC == NULL )

  00037	83 7d f8 00	 cmp	 DWORD PTR _hOldDC$199272[ebp], 0
  0003b	75 02		 jne	 SHORT $L199275

; 405  : 		{
; 406  : 			return;

  0003d	eb 18		 jmp	 SHORT $L199267
$L199275:

; 407  : 		}
; 408  : 		else
; 409  : 		{
; 410  : 			hDC = hOldDC;

  0003f	8b 55 f8	 mov	 edx, DWORD PTR _hOldDC$199272[ebp]
  00042	89 55 08	 mov	 DWORD PTR _hDC$[ebp], edx

; 411  : 		}
; 412  : 	}

  00045	eb cb		 jmp	 SHORT $L199270
$L199271:

; 413  : 	if( hDC != NULL )

  00047	83 7d 08 00	 cmp	 DWORD PTR _hDC$[ebp], 0
  0004b	74 0a		 je	 SHORT $L199267

; 414  : 	{
; 415  : 		::DeleteDC( hDC );

  0004d	8b 45 08	 mov	 eax, DWORD PTR _hDC$[ebp]
  00050	50		 push	 eax
  00051	ff 15 00 00 00
	00		 call	 DWORD PTR __imp__DeleteDC@4
$L199267:

; 416  : 	}
; 417  : }

  00057	8b e5		 mov	 esp, ebp
  00059	5d		 pop	 ebp
  0005a	c2 04 00	 ret	 4
?ReleaseDC@CDCCache@CImage@ATL@@QAEXPAUHDC__@@@Z ENDP	; ATL::CImage::CDCCache::ReleaseDC
_TEXT	ENDS
PUBLIC	_==
PUBLIC	?GetImageEncodersSize@Gdiplus@@YA?AW4Status@1@PAI0@Z ; Gdiplus::GetImageEncodersSize
PUBLIC	?GetImageEncoders@Gdiplus@@YA?AW4Status@1@IIPAVImageCodecInfo@1@@Z ; Gdiplus::GetImageEncoders
PUBLIC	?FindCodecForExtension@CImage@ATL@@CA?AU_GUID@@PBDPBVImageCodecInfo@Gdiplus@@I@Z ; ATL::CImage::FindCodecForExtension
PUBLIC	?FindCodecForFileType@CImage@ATL@@CA?AU_GUID@@ABU3@PBVImageCodecInfo@Gdiplus@@I@Z ; ATL::CImage::FindCodecForFileType
PUBLIC	?InitGDIPlus@CImage@ATL@@CA_NXZ			; ATL::CImage::InitGDIPlus
PUBLIC	?Save@Image@Gdiplus@@QAE?AW4Status@2@PB_WPBU_GUID@@PBVEncoderParameters@2@@Z ; Gdiplus::Image::Save
PUBLIC	??0Bitmap@Gdiplus@@QAE@HHHHPAE@Z		; Gdiplus::Bitmap::Bitmap
PUBLIC	??0Bitmap@Gdiplus@@QAE@PAUHBITMAP__@@PAUHPALETTE__@@@Z ; Gdiplus::Bitmap::Bitmap
PUBLIC	??1Bitmap@Gdiplus@@UAE@XZ			; Gdiplus::Bitmap::~Bitmap
EXTRN	__imp__PathFindExtensionA@4:NEAR
EXTRN	_GUID_NULL:BYTE
; Function compile flags: /Odt
;	COMDAT ?Save@CImage@ATL@@QBEJPBDABU_GUID@@@Z
_TEXT	SEGMENT
tv170 = -212						; size = 4
tv163 = -208						; size = 4
tv172 = -204						; size = 4
tv86 = -200						; size = 4
tv81 = -196						; size = 4
_this$ = -192						; size = 4
$T208062 = -188						; size = 4
$T208061 = -184						; size = 4
$T208060 = -180						; size = 4
$T208059 = -176						; size = 4
$T208054 = -172						; size = 4
$T208053 = -168						; size = 16
$T208052 = -152						; size = 16
$T208051 = -136						; size = 16
$T208050 = -116						; size = 16
$T208049 = -100						; size = 4
$T208048 = -96						; size = 4
_bm$200010 = -92					; size = 16
_bm$200005 = -76					; size = 16
_status$ = -60						; size = 4
_pEncoders$ = -56					; size = 4
__AtlSafeAllocaManager$ = -52				; size = 4
__convert_ex$ = -48					; size = 4
__acp_ex$ = -44						; size = 4
_nBytes$ = -40						; size = 4
_nEncoders$ = -36					; size = 4
__lpa_ex$ = -32						; size = 4
_clsidEncoder$ = -28					; size = 16
__$ArrayPad$ = -12					; size = 4
_pwszFileName$ = -4					; size = 4
__$ReturnAddr$ = 4					; size = 4
_pszFileName$ = 8					; size = 4
_guidFileType$ = 12					; size = 4
?Save@CImage@ATL@@QBEJPBDABU_GUID@@@Z PROC NEAR		; ATL::CImage::Save, COMDAT
; _this$ = ecx

; 1307 : {

  00000	55		 push	 ebp
  00001	8b ec		 mov	 ebp, esp
  00003	81 ec d4 00 00
	00		 sub	 esp, 212		; 000000d4H
  00009	a1 00 00 00 00	 mov	 eax, DWORD PTR ___security_cookie
  0000e	89 45 f4	 mov	 DWORD PTR __$ArrayPad$[ebp], eax
  00011	89 8d 40 ff ff
	ff		 mov	 DWORD PTR _this$[ebp], ecx

; 1308 : 	if( !InitGDIPlus() )

  00017	e8 00 00 00 00	 call	 ?InitGDIPlus@CImage@ATL@@CA_NXZ ; ATL::CImage::InitGDIPlus
  0001c	0f b6 c0	 movzx	 eax, al
  0001f	85 c0		 test	 eax, eax
  00021	75 0a		 jne	 SHORT $L199964

; 1309 : 	{
; 1310 : 		return( E_FAIL );

  00023	b8 05 40 00 80	 mov	 eax, -2147467259	; 80004005H
  00028	e9 c6 03 00 00	 jmp	 $L199963
$L199964:

; 1311 : 	}
; 1312 : 
; 1313 : 	UINT nEncoders;
; 1314 : 	UINT nBytes;
; 1315 : 	Gdiplus::Status status;
; 1316 : 
; 1317 : 	status = Gdiplus::GetImageEncodersSize( &nEncoders, &nBytes );

  0002d	8d 4d d8	 lea	 ecx, DWORD PTR _nBytes$[ebp]
  00030	51		 push	 ecx
  00031	8d 55 dc	 lea	 edx, DWORD PTR _nEncoders$[ebp]
  00034	52		 push	 edx
  00035	e8 00 00 00 00	 call	 ?GetImageEncodersSize@Gdiplus@@YA?AW4Status@1@PAI0@Z ; Gdiplus::GetImageEncodersSize
  0003a	83 c4 08	 add	 esp, 8
  0003d	89 45 c4	 mov	 DWORD PTR _status$[ebp], eax

; 1318 : 	if( status != Gdiplus::Ok )

  00040	83 7d c4 00	 cmp	 DWORD PTR _status$[ebp], 0
  00044	74 0a		 je	 SHORT $L199969

; 1319 : 	{
; 1320 : 		return( E_FAIL );

  00046	b8 05 40 00 80	 mov	 eax, -2147467259	; 80004005H
  0004b	e9 a3 03 00 00	 jmp	 $L199963
$L199969:

; 1321 : 	}
; 1322 : 
; 1323 : 	USES_CONVERSION_EX;

  00050	e8 00 00 00 00	 call	 ?_AtlGetConversionACP@ATL@@YGIXZ ; ATL::_AtlGetConversionACP
  00055	89 45 d4	 mov	 DWORD PTR __acp_ex$[ebp], eax
  00058	8d 4d cc	 lea	 ecx, DWORD PTR __AtlSafeAllocaManager$[ebp]
  0005b	e8 00 00 00 00	 call	 ??0?$CAtlSafeAllocBufferManager@VCCRTAllocator@ATL@@@_ATL_SAFE_ALLOCA_IMPL@ATL@@QAE@XZ ; ATL::_ATL_SAFE_ALLOCA_IMPL::CAtlSafeAllocBufferManager<ATL::CCRTAllocator>::CAtlSafeAllocBufferManager<ATL::CCRTAllocator>

; 1324 : 	Gdiplus::ImageCodecInfo* pEncoders = static_cast< Gdiplus::ImageCodecInfo* >( _ATL_SAFE_ALLOCA(nBytes, _ATL_SAFE_ALLOCA_DEF_THRESHOLD) );

  00060	81 7d d8 00 04
	00 00		 cmp	 DWORD PTR _nBytes$[ebp], 1024 ; 00000400H
  00067	77 35		 ja	 SHORT $L208046
  00069	8b 45 d8	 mov	 eax, DWORD PTR _nBytes$[ebp]
  0006c	50		 push	 eax
  0006d	e8 00 00 00 00	 call	 ?_AtlVerifyStackAvailable@_ATL_SAFE_ALLOCA_IMPL@ATL@@YA_NK@Z ; ATL::_ATL_SAFE_ALLOCA_IMPL::_AtlVerifyStackAvailable
  00072	83 c4 04	 add	 esp, 4
  00075	0f b6 c8	 movzx	 ecx, al
  00078	85 c9		 test	 ecx, ecx
  0007a	74 22		 je	 SHORT $L208046
  0007c	8b 45 d8	 mov	 eax, DWORD PTR _nBytes$[ebp]
  0007f	83 c0 03	 add	 eax, 3
  00082	83 e0 fc	 and	 eax, -4			; fffffffcH
  00085	e8 00 00 00 00	 call	 __alloca_probe
  0008a	89 a5 3c ff ff
	ff		 mov	 DWORD PTR tv81[ebp], esp
  00090	8b 95 3c ff ff
	ff		 mov	 edx, DWORD PTR tv81[ebp]
  00096	89 95 38 ff ff
	ff		 mov	 DWORD PTR tv86[ebp], edx
  0009c	eb 12		 jmp	 SHORT $L208047
$L208046:
  0009e	8b 45 d8	 mov	 eax, DWORD PTR _nBytes$[ebp]
  000a1	50		 push	 eax
  000a2	8d 4d cc	 lea	 ecx, DWORD PTR __AtlSafeAllocaManager$[ebp]
  000a5	e8 00 00 00 00	 call	 ?Allocate@?$CAtlSafeAllocBufferManager@VCCRTAllocator@ATL@@@_ATL_SAFE_ALLOCA_IMPL@ATL@@QAEPAXK@Z ; ATL::_ATL_SAFE_ALLOCA_IMPL::CAtlSafeAllocBufferManager<ATL::CCRTAllocator>::Allocate
  000aa	89 85 38 ff ff
	ff		 mov	 DWORD PTR tv86[ebp], eax
$L208047:
  000b0	8b 8d 38 ff ff
	ff		 mov	 ecx, DWORD PTR tv86[ebp]
  000b6	89 4d c8	 mov	 DWORD PTR _pEncoders$[ebp], ecx

; 1325 : 	if( pEncoders == NULL )

  000b9	83 7d c8 00	 cmp	 DWORD PTR _pEncoders$[ebp], 0
  000bd	75 17		 jne	 SHORT $L199978

; 1326 : 		return E_OUTOFMEMORY;

  000bf	c7 45 a0 0e 00
	07 80		 mov	 DWORD PTR $T208048[ebp], -2147024882 ; 8007000eH
  000c6	8d 4d cc	 lea	 ecx, DWORD PTR __AtlSafeAllocaManager$[ebp]
  000c9	e8 00 00 00 00	 call	 ??1?$CAtlSafeAllocBufferManager@VCCRTAllocator@ATL@@@_ATL_SAFE_ALLOCA_IMPL@ATL@@QAE@XZ ; ATL::_ATL_SAFE_ALLOCA_IMPL::CAtlSafeAllocBufferManager<ATL::CCRTAllocator>::~CAtlSafeAllocBufferManager<ATL::CCRTAllocator>
  000ce	8b 45 a0	 mov	 eax, DWORD PTR $T208048[ebp]
  000d1	e9 1d 03 00 00	 jmp	 $L199963
$L199978:

; 1327 : 
; 1328 : 	status = Gdiplus::GetImageEncoders( nEncoders, nBytes, pEncoders );

  000d6	8b 55 c8	 mov	 edx, DWORD PTR _pEncoders$[ebp]
  000d9	52		 push	 edx
  000da	8b 45 d8	 mov	 eax, DWORD PTR _nBytes$[ebp]
  000dd	50		 push	 eax
  000de	8b 4d dc	 mov	 ecx, DWORD PTR _nEncoders$[ebp]
  000e1	51		 push	 ecx
  000e2	e8 00 00 00 00	 call	 ?GetImageEncoders@Gdiplus@@YA?AW4Status@1@IIPAVImageCodecInfo@1@@Z ; Gdiplus::GetImageEncoders
  000e7	83 c4 0c	 add	 esp, 12			; 0000000cH
  000ea	89 45 c4	 mov	 DWORD PTR _status$[ebp], eax

; 1329 : 	if( status != Gdiplus::Ok )

  000ed	83 7d c4 00	 cmp	 DWORD PTR _status$[ebp], 0
  000f1	74 17		 je	 SHORT $L199981

; 1330 : 	{
; 1331 : 		return( E_FAIL );

  000f3	c7 45 9c 05 40
	00 80		 mov	 DWORD PTR $T208049[ebp], -2147467259 ; 80004005H
  000fa	8d 4d cc	 lea	 ecx, DWORD PTR __AtlSafeAllocaManager$[ebp]
  000fd	e8 00 00 00 00	 call	 ??1?$CAtlSafeAllocBufferManager@VCCRTAllocator@ATL@@@_ATL_SAFE_ALLOCA_IMPL@ATL@@QAE@XZ ; ATL::_ATL_SAFE_ALLOCA_IMPL::CAtlSafeAllocBufferManager<ATL::CCRTAllocator>::~CAtlSafeAllocBufferManager<ATL::CCRTAllocator>
  00102	8b 45 9c	 mov	 eax, DWORD PTR $T208049[ebp]
  00105	e9 e9 02 00 00	 jmp	 $L199963
$L199981:

; 1332 : 	}
; 1333 : 
; 1334 : 	CLSID clsidEncoder = CLSID_NULL;

  0010a	8b 15 00 00 00
	00		 mov	 edx, DWORD PTR _GUID_NULL
  00110	89 55 e4	 mov	 DWORD PTR _clsidEncoder$[ebp], edx
  00113	a1 04 00 00 00	 mov	 eax, DWORD PTR _GUID_NULL+4
  00118	89 45 e8	 mov	 DWORD PTR _clsidEncoder$[ebp+4], eax
  0011b	8b 0d 08 00 00
	00		 mov	 ecx, DWORD PTR _GUID_NULL+8
  00121	89 4d ec	 mov	 DWORD PTR _clsidEncoder$[ebp+8], ecx
  00124	8b 15 0c 00 00
	00		 mov	 edx, DWORD PTR _GUID_NULL+12
  0012a	89 55 f0	 mov	 DWORD PTR _clsidEncoder$[ebp+12], edx

; 1335 : 	if( guidFileType == GUID_NULL )

  0012d	68 00 00 00 00	 push	 OFFSET FLAT:_GUID_NULL
  00132	8b 45 0c	 mov	 eax, DWORD PTR _guidFileType$[ebp]
  00135	50		 push	 eax
  00136	e8 00 00 00 00	 call	 _==
  0013b	83 c4 08	 add	 esp, 8
  0013e	85 c0		 test	 eax, eax
  00140	74 53		 je	 SHORT $L199985

; 1336 : 	{
; 1337 : 		// Determine clsid from extension
; 1338 : 		clsidEncoder = FindCodecForExtension( ::PathFindExtension( pszFileName ), pEncoders, nEncoders );

  00142	8b 4d dc	 mov	 ecx, DWORD PTR _nEncoders$[ebp]
  00145	51		 push	 ecx
  00146	8b 55 c8	 mov	 edx, DWORD PTR _pEncoders$[ebp]
  00149	52		 push	 edx
  0014a	8b 45 08	 mov	 eax, DWORD PTR _pszFileName$[ebp]
  0014d	50		 push	 eax
  0014e	ff 15 00 00 00
	00		 call	 DWORD PTR __imp__PathFindExtensionA@4
  00154	50		 push	 eax
  00155	8d 8d 78 ff ff
	ff		 lea	 ecx, DWORD PTR $T208051[ebp]
  0015b	51		 push	 ecx
  0015c	e8 00 00 00 00	 call	 ?FindCodecForExtension@CImage@ATL@@CA?AU_GUID@@PBDPBVImageCodecInfo@Gdiplus@@I@Z ; ATL::CImage::FindCodecForExtension
  00161	83 c4 10	 add	 esp, 16			; 00000010H
  00164	8b 10		 mov	 edx, DWORD PTR [eax]
  00166	89 55 8c	 mov	 DWORD PTR $T208050[ebp], edx
  00169	8b 48 04	 mov	 ecx, DWORD PTR [eax+4]
  0016c	89 4d 90	 mov	 DWORD PTR $T208050[ebp+4], ecx
  0016f	8b 50 08	 mov	 edx, DWORD PTR [eax+8]
  00172	89 55 94	 mov	 DWORD PTR $T208050[ebp+8], edx
  00175	8b 40 0c	 mov	 eax, DWORD PTR [eax+12]
  00178	89 45 98	 mov	 DWORD PTR $T208050[ebp+12], eax
  0017b	8b 4d 8c	 mov	 ecx, DWORD PTR $T208050[ebp]
  0017e	89 4d e4	 mov	 DWORD PTR _clsidEncoder$[ebp], ecx
  00181	8b 55 90	 mov	 edx, DWORD PTR $T208050[ebp+4]
  00184	89 55 e8	 mov	 DWORD PTR _clsidEncoder$[ebp+4], edx
  00187	8b 45 94	 mov	 eax, DWORD PTR $T208050[ebp+8]
  0018a	89 45 ec	 mov	 DWORD PTR _clsidEncoder$[ebp+8], eax
  0018d	8b 4d 98	 mov	 ecx, DWORD PTR $T208050[ebp+12]
  00190	89 4d f0	 mov	 DWORD PTR _clsidEncoder$[ebp+12], ecx

; 1339 : 	}
; 1340 : 	else

  00193	eb 62		 jmp	 SHORT $L199987
$L199985:

; 1341 : 	{
; 1342 : 		// Determine clsid from file type
; 1343 : 		clsidEncoder = FindCodecForFileType( guidFileType, pEncoders, nEncoders );

  00195	8b 55 dc	 mov	 edx, DWORD PTR _nEncoders$[ebp]
  00198	52		 push	 edx
  00199	8b 45 c8	 mov	 eax, DWORD PTR _pEncoders$[ebp]
  0019c	50		 push	 eax
  0019d	8b 4d 0c	 mov	 ecx, DWORD PTR _guidFileType$[ebp]
  001a0	51		 push	 ecx
  001a1	8d 95 58 ff ff
	ff		 lea	 edx, DWORD PTR $T208053[ebp]
  001a7	52		 push	 edx
  001a8	e8 00 00 00 00	 call	 ?FindCodecForFileType@CImage@ATL@@CA?AU_GUID@@ABU3@PBVImageCodecInfo@Gdiplus@@I@Z ; ATL::CImage::FindCodecForFileType
  001ad	83 c4 10	 add	 esp, 16			; 00000010H
  001b0	8b 08		 mov	 ecx, DWORD PTR [eax]
  001b2	89 8d 68 ff ff
	ff		 mov	 DWORD PTR $T208052[ebp], ecx
  001b8	8b 50 04	 mov	 edx, DWORD PTR [eax+4]
  001bb	89 95 6c ff ff
	ff		 mov	 DWORD PTR $T208052[ebp+4], edx
  001c1	8b 48 08	 mov	 ecx, DWORD PTR [eax+8]
  001c4	89 8d 70 ff ff
	ff		 mov	 DWORD PTR $T208052[ebp+8], ecx
  001ca	8b 50 0c	 mov	 edx, DWORD PTR [eax+12]
  001cd	89 95 74 ff ff
	ff		 mov	 DWORD PTR $T208052[ebp+12], edx
  001d3	8b 85 68 ff ff
	ff		 mov	 eax, DWORD PTR $T208052[ebp]
  001d9	89 45 e4	 mov	 DWORD PTR _clsidEncoder$[ebp], eax
  001dc	8b 8d 6c ff ff
	ff		 mov	 ecx, DWORD PTR $T208052[ebp+4]
  001e2	89 4d e8	 mov	 DWORD PTR _clsidEncoder$[ebp+4], ecx
  001e5	8b 95 70 ff ff
	ff		 mov	 edx, DWORD PTR $T208052[ebp+8]
  001eb	89 55 ec	 mov	 DWORD PTR _clsidEncoder$[ebp+8], edx
  001ee	8b 85 74 ff ff
	ff		 mov	 eax, DWORD PTR $T208052[ebp+12]
  001f4	89 45 f0	 mov	 DWORD PTR _clsidEncoder$[ebp+12], eax
$L199987:

; 1344 : 	}
; 1345 : 	if( clsidEncoder == CLSID_NULL )

  001f7	68 00 00 00 00	 push	 OFFSET FLAT:_GUID_NULL
  001fc	8d 4d e4	 lea	 ecx, DWORD PTR _clsidEncoder$[ebp]
  001ff	51		 push	 ecx
  00200	e8 00 00 00 00	 call	 _==
  00205	83 c4 08	 add	 esp, 8
  00208	85 c0		 test	 eax, eax
  0020a	74 1d		 je	 SHORT $L199989

; 1346 : 	{
; 1347 : 		return( E_FAIL );

  0020c	c7 85 54 ff ff
	ff 05 40 00 80	 mov	 DWORD PTR $T208054[ebp], -2147467259 ; 80004005H
  00216	8d 4d cc	 lea	 ecx, DWORD PTR __AtlSafeAllocaManager$[ebp]
  00219	e8 00 00 00 00	 call	 ??1?$CAtlSafeAllocBufferManager@VCCRTAllocator@ATL@@@_ATL_SAFE_ALLOCA_IMPL@ATL@@QAE@XZ ; ATL::_ATL_SAFE_ALLOCA_IMPL::CAtlSafeAllocBufferManager<ATL::CCRTAllocator>::~CAtlSafeAllocBufferManager<ATL::CCRTAllocator>
  0021e	8b 85 54 ff ff
	ff		 mov	 eax, DWORD PTR $T208054[ebp]
  00224	e9 ca 01 00 00	 jmp	 $L199963
$L199989:

; 1348 : 	}
; 1349 : 
; 1350 : 	LPCWSTR pwszFileName = T2CW_EX( pszFileName, _ATL_SAFE_ALLOCA_DEF_THRESHOLD );

  00229	8b 55 08	 mov	 edx, DWORD PTR _pszFileName$[ebp]
  0022c	89 55 e0	 mov	 DWORD PTR __lpa_ex$[ebp], edx
  0022f	83 7d e0 00	 cmp	 DWORD PTR __lpa_ex$[ebp], 0
  00233	75 0f		 jne	 SHORT $L208057
  00235	c7 85 34 ff ff
	ff 00 00 00 00	 mov	 DWORD PTR tv172[ebp], 0
  0023f	e9 88 00 00 00	 jmp	 $L208058
$L208057:
  00244	8b 45 e0	 mov	 eax, DWORD PTR __lpa_ex$[ebp]
  00247	50		 push	 eax
  00248	ff 15 00 00 00
	00		 call	 DWORD PTR __imp__lstrlenA@4
  0024e	83 c0 01	 add	 eax, 1
  00251	89 45 d0	 mov	 DWORD PTR __convert_ex$[ebp], eax
  00254	8b 4d d0	 mov	 ecx, DWORD PTR __convert_ex$[ebp]
  00257	d1 e1		 shl	 ecx, 1
  00259	81 f9 00 04 00
	00		 cmp	 ecx, 1024		; 00000400H
  0025f	77 39		 ja	 SHORT $L208055
  00261	8b 55 d0	 mov	 edx, DWORD PTR __convert_ex$[ebp]
  00264	d1 e2		 shl	 edx, 1
  00266	52		 push	 edx
  00267	e8 00 00 00 00	 call	 ?_AtlVerifyStackAvailable@_ATL_SAFE_ALLOCA_IMPL@ATL@@YA_NK@Z ; ATL::_ATL_SAFE_ALLOCA_IMPL::_AtlVerifyStackAvailable
  0026c	83 c4 04	 add	 esp, 4
  0026f	0f b6 c0	 movzx	 eax, al
  00272	85 c0		 test	 eax, eax
  00274	74 24		 je	 SHORT $L208055
  00276	8b 45 d0	 mov	 eax, DWORD PTR __convert_ex$[ebp]
  00279	d1 e0		 shl	 eax, 1
  0027b	83 c0 03	 add	 eax, 3
  0027e	83 e0 fc	 and	 eax, -4			; fffffffcH
  00281	e8 00 00 00 00	 call	 __alloca_probe
  00286	89 a5 30 ff ff
	ff		 mov	 DWORD PTR tv163[ebp], esp
  0028c	8b 8d 30 ff ff
	ff		 mov	 ecx, DWORD PTR tv163[ebp]
  00292	89 8d 2c ff ff
	ff		 mov	 DWORD PTR tv170[ebp], ecx
  00298	eb 14		 jmp	 SHORT $L208056
$L208055:
  0029a	8b 55 d0	 mov	 edx, DWORD PTR __convert_ex$[ebp]
  0029d	d1 e2		 shl	 edx, 1
  0029f	52		 push	 edx
  002a0	8d 4d cc	 lea	 ecx, DWORD PTR __AtlSafeAllocaManager$[ebp]
  002a3	e8 00 00 00 00	 call	 ?Allocate@?$CAtlSafeAllocBufferManager@VCCRTAllocator@ATL@@@_ATL_SAFE_ALLOCA_IMPL@ATL@@QAEPAXK@Z ; ATL::_ATL_SAFE_ALLOCA_IMPL::CAtlSafeAllocBufferManager<ATL::CCRTAllocator>::Allocate
  002a8	89 85 2c ff ff
	ff		 mov	 DWORD PTR tv170[ebp], eax
$L208056:
  002ae	8b 45 d4	 mov	 eax, DWORD PTR __acp_ex$[ebp]
  002b1	50		 push	 eax
  002b2	8b 4d d0	 mov	 ecx, DWORD PTR __convert_ex$[ebp]
  002b5	51		 push	 ecx
  002b6	8b 55 e0	 mov	 edx, DWORD PTR __lpa_ex$[ebp]
  002b9	52		 push	 edx
  002ba	8b 85 2c ff ff
	ff		 mov	 eax, DWORD PTR tv170[ebp]
  002c0	50		 push	 eax
  002c1	e8 00 00 00 00	 call	 ?AtlA2WHelper@@YGPA_WPA_WPBDHI@Z ; AtlA2WHelper
  002c6	89 85 34 ff ff
	ff		 mov	 DWORD PTR tv172[ebp], eax
$L208058:
  002cc	8b 8d 34 ff ff
	ff		 mov	 ecx, DWORD PTR tv172[ebp]
  002d2	89 4d fc	 mov	 DWORD PTR _pwszFileName$[ebp], ecx

; 1351 : #ifndef _UNICODE
; 1352 : 	if( pwszFileName == NULL )

  002d5	83 7d fc 00	 cmp	 DWORD PTR _pwszFileName$[ebp], 0
  002d9	75 1d		 jne	 SHORT $L199999

; 1353 : 		return E_OUTOFMEMORY;

  002db	c7 85 50 ff ff
	ff 0e 00 07 80	 mov	 DWORD PTR $T208059[ebp], -2147024882 ; 8007000eH
  002e5	8d 4d cc	 lea	 ecx, DWORD PTR __AtlSafeAllocaManager$[ebp]
  002e8	e8 00 00 00 00	 call	 ??1?$CAtlSafeAllocBufferManager@VCCRTAllocator@ATL@@@_ATL_SAFE_ALLOCA_IMPL@ATL@@QAE@XZ ; ATL::_ATL_SAFE_ALLOCA_IMPL::CAtlSafeAllocBufferManager<ATL::CCRTAllocator>::~CAtlSafeAllocBufferManager<ATL::CCRTAllocator>
  002ed	8b 85 50 ff ff
	ff		 mov	 eax, DWORD PTR $T208059[ebp]
  002f3	e9 fb 00 00 00	 jmp	 $L199963
$L199999:

; 1354 : #endif // _UNICODE
; 1355 : 	if( m_bHasAlphaChannel )

  002f8	8b 95 40 ff ff
	ff		 mov	 edx, DWORD PTR _this$[ebp]
  002fe	0f b6 42 1d	 movzx	 eax, BYTE PTR [edx+29]
  00302	85 c0		 test	 eax, eax
  00304	74 7c		 je	 SHORT $L200002

; 1356 : 	{
; 1357 : 		ATLASSERT( m_nBPP == 32 );
; 1358 : 		Gdiplus::Bitmap bm( m_nWidth, m_nHeight, m_nPitch, PixelFormat32bppARGB, static_cast< BYTE* >( m_pBits ) );

  00306	8b 8d 40 ff ff
	ff		 mov	 ecx, DWORD PTR _this$[ebp]
  0030c	8b 51 08	 mov	 edx, DWORD PTR [ecx+8]
  0030f	52		 push	 edx
  00310	68 0a 20 26 00	 push	 2498570			; 0026200aH
  00315	8b 85 40 ff ff
	ff		 mov	 eax, DWORD PTR _this$[ebp]
  0031b	8b 48 14	 mov	 ecx, DWORD PTR [eax+20]
  0031e	51		 push	 ecx
  0031f	8b 95 40 ff ff
	ff		 mov	 edx, DWORD PTR _this$[ebp]
  00325	8b 42 10	 mov	 eax, DWORD PTR [edx+16]
  00328	50		 push	 eax
  00329	8b 8d 40 ff ff
	ff		 mov	 ecx, DWORD PTR _this$[ebp]
  0032f	8b 51 0c	 mov	 edx, DWORD PTR [ecx+12]
  00332	52		 push	 edx
  00333	8d 4d b4	 lea	 ecx, DWORD PTR _bm$200005[ebp]
  00336	e8 00 00 00 00	 call	 ??0Bitmap@Gdiplus@@QAE@HHHHPAE@Z ; Gdiplus::Bitmap::Bitmap

; 1359 : 		status = bm.Save( pwszFileName, &clsidEncoder, NULL );

  0033b	6a 00		 push	 0
  0033d	8d 45 e4	 lea	 eax, DWORD PTR _clsidEncoder$[ebp]
  00340	50		 push	 eax
  00341	8b 4d fc	 mov	 ecx, DWORD PTR _pwszFileName$[ebp]
  00344	51		 push	 ecx
  00345	8d 4d b4	 lea	 ecx, DWORD PTR _bm$200005[ebp]
  00348	e8 00 00 00 00	 call	 ?Save@Image@Gdiplus@@QAE?AW4Status@2@PB_WPBU_GUID@@PBVEncoderParameters@2@@Z ; Gdiplus::Image::Save
  0034d	89 45 c4	 mov	 DWORD PTR _status$[ebp], eax

; 1360 : 		if( status != Gdiplus::Ok )

  00350	83 7d c4 00	 cmp	 DWORD PTR _status$[ebp], 0
  00354	74 22		 je	 SHORT $L200006

; 1361 : 		{
; 1362 : 			return( E_FAIL );

  00356	c7 85 4c ff ff
	ff 05 40 00 80	 mov	 DWORD PTR $T208060[ebp], -2147467259 ; 80004005H
  00360	8d 4d b4	 lea	 ecx, DWORD PTR _bm$200005[ebp]
  00363	e8 00 00 00 00	 call	 ??1Bitmap@Gdiplus@@UAE@XZ
  00368	8d 4d cc	 lea	 ecx, DWORD PTR __AtlSafeAllocaManager$[ebp]
  0036b	e8 00 00 00 00	 call	 ??1?$CAtlSafeAllocBufferManager@VCCRTAllocator@ATL@@@_ATL_SAFE_ALLOCA_IMPL@ATL@@QAE@XZ ; ATL::_ATL_SAFE_ALLOCA_IMPL::CAtlSafeAllocBufferManager<ATL::CCRTAllocator>::~CAtlSafeAllocBufferManager<ATL::CCRTAllocator>
  00370	8b 85 4c ff ff
	ff		 mov	 eax, DWORD PTR $T208060[ebp]
  00376	eb 7b		 jmp	 SHORT $L199963
$L200006:

; 1363 : 		}
; 1364 : 	}

  00378	8d 4d b4	 lea	 ecx, DWORD PTR _bm$200005[ebp]
  0037b	e8 00 00 00 00	 call	 ??1Bitmap@Gdiplus@@UAE@XZ

; 1365 : 	else

  00380	eb 59		 jmp	 SHORT $L200009
$L200002:

; 1366 : 	{
; 1367 : 		Gdiplus::Bitmap bm( m_hBitmap, NULL );

  00382	6a 00		 push	 0
  00384	8b 95 40 ff ff
	ff		 mov	 edx, DWORD PTR _this$[ebp]
  0038a	8b 42 04	 mov	 eax, DWORD PTR [edx+4]
  0038d	50		 push	 eax
  0038e	8d 4d a4	 lea	 ecx, DWORD PTR _bm$200010[ebp]
  00391	e8 00 00 00 00	 call	 ??0Bitmap@Gdiplus@@QAE@PAUHBITMAP__@@PAUHPALETTE__@@@Z ; Gdiplus::Bitmap::Bitmap

; 1368 : 		status = bm.Save( pwszFileName, &clsidEncoder, NULL );

  00396	6a 00		 push	 0
  00398	8d 4d e4	 lea	 ecx, DWORD PTR _clsidEncoder$[ebp]
  0039b	51		 push	 ecx
  0039c	8b 55 fc	 mov	 edx, DWORD PTR _pwszFileName$[ebp]
  0039f	52		 push	 edx
  003a0	8d 4d a4	 lea	 ecx, DWORD PTR _bm$200010[ebp]
  003a3	e8 00 00 00 00	 call	 ?Save@Image@Gdiplus@@QAE?AW4Status@2@PB_WPBU_GUID@@PBVEncoderParameters@2@@Z ; Gdiplus::Image::Save
  003a8	89 45 c4	 mov	 DWORD PTR _status$[ebp], eax

; 1369 : 		if( status != Gdiplus::Ok )

  003ab	83 7d c4 00	 cmp	 DWORD PTR _status$[ebp], 0
  003af	74 22		 je	 SHORT $L200011

; 1370 : 		{
; 1371 : 			return( E_FAIL );

  003b1	c7 85 48 ff ff
	ff 05 40 00 80	 mov	 DWORD PTR $T208061[ebp], -2147467259 ; 80004005H
  003bb	8d 4d a4	 lea	 ecx, DWORD PTR _bm$200010[ebp]
  003be	e8 00 00 00 00	 call	 ??1Bitmap@Gdiplus@@UAE@XZ
  003c3	8d 4d cc	 lea	 ecx, DWORD PTR __AtlSafeAllocaManager$[ebp]
  003c6	e8 00 00 00 00	 call	 ??1?$CAtlSafeAllocBufferManager@VCCRTAllocator@ATL@@@_ATL_SAFE_ALLOCA_IMPL@ATL@@QAE@XZ ; ATL::_ATL_SAFE_ALLOCA_IMPL::CAtlSafeAllocBufferManager<ATL::CCRTAllocator>::~CAtlSafeAllocBufferManager<ATL::CCRTAllocator>
  003cb	8b 85 48 ff ff
	ff		 mov	 eax, DWORD PTR $T208061[ebp]
  003d1	eb 20		 jmp	 SHORT $L199963
$L200011:

; 1372 : 		}
; 1373 : 	}

  003d3	8d 4d a4	 lea	 ecx, DWORD PTR _bm$200010[ebp]
  003d6	e8 00 00 00 00	 call	 ??1Bitmap@Gdiplus@@UAE@XZ
$L200009:

; 1374 : 
; 1375 : 	return( S_OK );

  003db	c7 85 44 ff ff
	ff 00 00 00 00	 mov	 DWORD PTR $T208062[ebp], 0
  003e5	8d 4d cc	 lea	 ecx, DWORD PTR __AtlSafeAllocaManager$[ebp]
  003e8	e8 00 00 00 00	 call	 ??1?$CAtlSafeAllocBufferManager@VCCRTAllocator@ATL@@@_ATL_SAFE_ALLOCA_IMPL@ATL@@QAE@XZ ; ATL::_ATL_SAFE_ALLOCA_IMPL::CAtlSafeAllocBufferManager<ATL::CCRTAllocator>::~CAtlSafeAllocBufferManager<ATL::CCRTAllocator>
  003ed	8b 85 44 ff ff
	ff		 mov	 eax, DWORD PTR $T208062[ebp]
$L199963:

; 1376 : }

  003f3	8d a5 2c ff ff
	ff		 lea	 esp, DWORD PTR [ebp-212]
  003f9	8b 4d f4	 mov	 ecx, DWORD PTR __$ArrayPad$[ebp]
  003fc	e8 00 00 00 00	 call	 @__security_check_cookie@4
  00401	8b e5		 mov	 esp, ebp
  00403	5d		 pop	 ebp
  00404	c2 08 00	 ret	 8
?Save@CImage@ATL@@QBEJPBDABU_GUID@@@Z ENDP		; ATL::CImage::Save
_TEXT	ENDS
PUBLIC	_IsEqualGUID
; Function compile flags: /Odt
; File d:\program files (x86)\microsoft visual studio .net 2003\vc7\platformsdk\include\guiddef.h
;	COMDAT _==
_TEXT	SEGMENT
_guidOne$ = 8						; size = 4
_guidOther$ = 12					; size = 4
_==	PROC NEAR					; COMDAT

; 193  : {

  00000	55		 push	 ebp
  00001	8b ec		 mov	 ebp, esp

; 194  :     return IsEqualGUID(guidOne,guidOther);

  00003	8b 45 0c	 mov	 eax, DWORD PTR _guidOther$[ebp]
  00006	50		 push	 eax
  00007	8b 4d 08	 mov	 ecx, DWORD PTR _guidOne$[ebp]
  0000a	51		 push	 ecx
  0000b	e8 00 00 00 00	 call	 _IsEqualGUID
  00010	83 c4 08	 add	 esp, 8

; 195  : }

  00013	5d		 pop	 ebp
  00014	c3		 ret	 0
_==	ENDP
_TEXT	ENDS
EXTRN	_memcmp:NEAR
; Function compile flags: /Odt
;	COMDAT _IsEqualGUID
_TEXT	SEGMENT
_rguid1$ = 8						; size = 4
_rguid2$ = 12						; size = 4
_IsEqualGUID PROC NEAR					; COMDAT

; 160  : {

  00000	55		 push	 ebp
  00001	8b ec		 mov	 ebp, esp

; 161  :     return !memcmp(&rguid1, &rguid2, sizeof(GUID));

  00003	6a 10		 push	 16			; 00000010H
  00005	8b 45 0c	 mov	 eax, DWORD PTR _rguid2$[ebp]
  00008	50		 push	 eax
  00009	8b 4d 08	 mov	 ecx, DWORD PTR _rguid1$[ebp]
  0000c	51		 push	 ecx
  0000d	e8 00 00 00 00	 call	 _memcmp
  00012	83 c4 0c	 add	 esp, 12			; 0000000cH
  00015	f7 d8		 neg	 eax
  00017	1b c0		 sbb	 eax, eax
  00019	40		 inc	 eax

; 162  : }

  0001a	5d		 pop	 ebp
  0001b	c3		 ret	 0
_IsEqualGUID ENDP
_TEXT	ENDS
PUBLIC	??0?$CA2WEX@$0IA@@ATL@@QAE@PBD@Z		; ATL::CA2WEX<128>::CA2WEX<128>
PUBLIC	??1?$CA2WEX@$0IA@@ATL@@QAE@XZ			; ATL::CA2WEX<128>::~CA2WEX<128>
PUBLIC	??B?$CA2WEX@$0IA@@ATL@@QBEPA_WXZ		; ATL::CA2WEX<128>::operator wchar_t *
PUBLIC	??_C@_13PJJBFPED@?$AA?$DL?$AA?$AA@		; `string'
EXTRN	__imp_??B?$CSimpleStringT@_W$00@ATL@@QBEPB_WXZ:NEAR
EXTRN	__imp__PathFindExtensionW@4:NEAR
EXTRN	__imp_??0?$CStringT@_WV?$StrTraitMFC_DLL@_WV?$ChTraitsCRT@_W@ATL@@@@@ATL@@QAE@PB_W@Z:NEAR
EXTRN	__imp_??1?$CStringT@_WV?$StrTraitMFC_DLL@_WV?$ChTraitsCRT@_W@ATL@@@@@ATL@@QAE@XZ:NEAR
EXTRN	__imp_?CompareNoCase@?$CStringT@_WV?$StrTraitMFC_DLL@_WV?$ChTraitsCRT@_W@ATL@@@@@ATL@@QBEHPB_W@Z:NEAR
EXTRN	__imp_?Tokenize@?$CStringT@_WV?$StrTraitMFC_DLL@_WV?$ChTraitsCRT@_W@ATL@@@@@ATL@@QBE?AV12@PB_WAAH@Z:NEAR
;	COMDAT xdata$x
; File d:\program files (x86)\microsoft visual studio .net 2003\vc7\atlmfc\include\atlimage.h
xdata$x	SEGMENT
$T208083 DD	0ffffffffH
	DD	FLAT:$L208075
	DD	00H
	DD	FLAT:$L208076
	DD	01H
	DD	FLAT:$L208077
$T208080 DD	019930520H
	DD	03H
	DD	FLAT:$T208083
	DD	2 DUP(00H)
	DD	2 DUP(00H)
xdata$x	ENDS
;	COMDAT ??_C@_13PJJBFPED@?$AA?$DL?$AA?$AA@
CONST	SEGMENT
??_C@_13PJJBFPED@?$AA?$DL?$AA?$AA@ DB ';', 00H, 00H, 00H ; `string'
; Function compile flags: /Odt
CONST	ENDS
;	COMDAT ?FindCodecForExtension@CImage@ATL@@CA?AU_GUID@@PBDPBVImageCodecInfo@Gdiplus@@I@Z
_TEXT	SEGMENT
tv138 = -344						; size = 4
tv71 = -340						; size = 4
$T208074 = -336						; size = 16
$T208073 = -320						; size = 16
$T208072 = -304						; size = 4
_strExtension$199902 = -300				; size = 4
_iStart$199898 = -296					; size = 4
_strExtensions$199897 = -292				; size = 4
_iCodec$199893 = -288					; size = 4
_pszExtensionW$ = -284					; size = 260
__$ArrayPad$ = -16					; size = 4
__$EHRec$ = -12						; size = 12
__$ReturnAddr$ = 4					; size = 4
$T208071 = 8						; size = 4
_pszExtension$ = 12					; size = 4
_pCodecs$ = 16						; size = 4
_nCodecs$ = 20						; size = 4
?FindCodecForExtension@CImage@ATL@@CA?AU_GUID@@PBDPBVImageCodecInfo@Gdiplus@@I@Z PROC NEAR ; ATL::CImage::FindCodecForExtension, COMDAT

; 1212 : {

  00000	55		 push	 ebp
  00001	8b ec		 mov	 ebp, esp
  00003	6a ff		 push	 -1
  00005	68 00 00 00 00	 push	 __ehhandler$?FindCodecForExtension@CImage@ATL@@CA?AU_GUID@@PBDPBVImageCodecInfo@Gdiplus@@I@Z
  0000a	64 a1 00 00 00
	00		 mov	 eax, DWORD PTR fs:__except_list
  00010	50		 push	 eax
  00011	64 89 25 00 00
	00 00		 mov	 DWORD PTR fs:__except_list, esp
  00018	81 ec 4c 01 00
	00		 sub	 esp, 332		; 0000014cH
  0001e	a1 00 00 00 00	 mov	 eax, DWORD PTR ___security_cookie
  00023	89 45 f0	 mov	 DWORD PTR __$ArrayPad$[ebp], eax

; 1213 : 	CT2CW pszExtensionW( pszExtension );

  00026	8b 45 0c	 mov	 eax, DWORD PTR _pszExtension$[ebp]
  00029	50		 push	 eax
  0002a	8d 8d e4 fe ff
	ff		 lea	 ecx, DWORD PTR _pszExtensionW$[ebp]
  00030	e8 00 00 00 00	 call	 ??0?$CA2WEX@$0IA@@ATL@@QAE@PBD@Z ; ATL::CA2WEX<128>::CA2WEX<128>
  00035	c7 45 fc 00 00
	00 00		 mov	 DWORD PTR __$EHRec$[ebp+8], 0

; 1214 : 
; 1215 : 	for( UINT iCodec = 0; iCodec < nCodecs; iCodec++ )

  0003c	c7 85 e0 fe ff
	ff 00 00 00 00	 mov	 DWORD PTR _iCodec$199893[ebp], 0
  00046	eb 0f		 jmp	 SHORT $L199894
$L199895:
  00048	8b 8d e0 fe ff
	ff		 mov	 ecx, DWORD PTR _iCodec$199893[ebp]
  0004e	83 c1 01	 add	 ecx, 1
  00051	89 8d e0 fe ff
	ff		 mov	 DWORD PTR _iCodec$199893[ebp], ecx
$L199894:
  00057	8b 95 e0 fe ff
	ff		 mov	 edx, DWORD PTR _iCodec$199893[ebp]
  0005d	3b 55 14	 cmp	 edx, DWORD PTR _nCodecs$[ebp]
  00060	0f 83 76 01 00
	00		 jae	 $L199896

; 1216 : 	{
; 1217 : 		CStringW strExtensions( pCodecs[iCodec].FilenameExtension );

  00066	8b 85 e0 fe ff
	ff		 mov	 eax, DWORD PTR _iCodec$199893[ebp]
  0006c	6b c0 4c	 imul	 eax, 76			; 0000004cH
  0006f	8b 4d 10	 mov	 ecx, DWORD PTR _pCodecs$[ebp]
  00072	8b 54 01 2c	 mov	 edx, DWORD PTR [ecx+eax+44]
  00076	52		 push	 edx
  00077	8d 8d dc fe ff
	ff		 lea	 ecx, DWORD PTR _strExtensions$199897[ebp]
  0007d	ff 15 00 00 00
	00		 call	 DWORD PTR __imp_??0?$CStringT@_WV?$StrTraitMFC_DLL@_WV?$ChTraitsCRT@_W@ATL@@@@@ATL@@QAE@PB_W@Z
  00083	c6 45 fc 01	 mov	 BYTE PTR __$EHRec$[ebp+8], 1

; 1218 : 
; 1219 : 		int iStart = 0;

  00087	c7 85 d8 fe ff
	ff 00 00 00 00	 mov	 DWORD PTR _iStart$199898[ebp], 0
$L199899:

; 1220 : 		do
; 1221 : 		{
; 1222 : 			CStringW strExtension = ::PathFindExtensionW( strExtensions.Tokenize( L";", iStart ) );

  00091	8d 85 d8 fe ff
	ff		 lea	 eax, DWORD PTR _iStart$199898[ebp]
  00097	50		 push	 eax
  00098	68 00 00 00 00	 push	 OFFSET FLAT:??_C@_13PJJBFPED@?$AA?$DL?$AA?$AA@
  0009d	8d 8d d0 fe ff
	ff		 lea	 ecx, DWORD PTR $T208072[ebp]
  000a3	51		 push	 ecx
  000a4	8d 8d dc fe ff
	ff		 lea	 ecx, DWORD PTR _strExtensions$199897[ebp]
  000aa	ff 15 00 00 00
	00		 call	 DWORD PTR __imp_?Tokenize@?$CStringT@_WV?$StrTraitMFC_DLL@_WV?$ChTraitsCRT@_W@ATL@@@@@ATL@@QBE?AV12@PB_WAAH@Z
  000b0	89 85 ac fe ff
	ff		 mov	 DWORD PTR tv71[ebp], eax
  000b6	8b 95 ac fe ff
	ff		 mov	 edx, DWORD PTR tv71[ebp]
  000bc	89 95 a8 fe ff
	ff		 mov	 DWORD PTR tv138[ebp], edx
  000c2	c6 45 fc 02	 mov	 BYTE PTR __$EHRec$[ebp+8], 2
  000c6	8b 8d a8 fe ff
	ff		 mov	 ecx, DWORD PTR tv138[ebp]
  000cc	ff 15 00 00 00
	00		 call	 DWORD PTR __imp_??B?$CSimpleStringT@_W$00@ATL@@QBEPB_WXZ
  000d2	50		 push	 eax
  000d3	ff 15 00 00 00
	00		 call	 DWORD PTR __imp__PathFindExtensionW@4
  000d9	50		 push	 eax
  000da	8d 8d d4 fe ff
	ff		 lea	 ecx, DWORD PTR _strExtension$199902[ebp]
  000e0	ff 15 00 00 00
	00		 call	 DWORD PTR __imp_??0?$CStringT@_WV?$StrTraitMFC_DLL@_WV?$ChTraitsCRT@_W@ATL@@@@@ATL@@QAE@PB_W@Z
  000e6	c6 45 fc 01	 mov	 BYTE PTR __$EHRec$[ebp+8], 1
  000ea	8d 8d d0 fe ff
	ff		 lea	 ecx, DWORD PTR $T208072[ebp]
  000f0	ff 15 00 00 00
	00		 call	 DWORD PTR __imp_??1?$CStringT@_WV?$StrTraitMFC_DLL@_WV?$ChTraitsCRT@_W@ATL@@@@@ATL@@QAE@XZ

; 1223 : 			if( iStart != -1 )

  000f6	83 bd d8 fe ff
	ff ff		 cmp	 DWORD PTR _iStart$199898[ebp], -1
  000fd	0f 84 ab 00 00
	00		 je	 $L199905

; 1224 : 			{
; 1225 : 				if( strExtension.CompareNoCase( pszExtensionW ) == 0 )

  00103	8d 8d e4 fe ff
	ff		 lea	 ecx, DWORD PTR _pszExtensionW$[ebp]
  00109	e8 00 00 00 00	 call	 ??B?$CA2WEX@$0IA@@ATL@@QBEPA_WXZ ; ATL::CA2WEX<128>::operator wchar_t *
  0010e	50		 push	 eax
  0010f	8d 8d d4 fe ff
	ff		 lea	 ecx, DWORD PTR _strExtension$199902[ebp]
  00115	ff 15 00 00 00
	00		 call	 DWORD PTR __imp_?CompareNoCase@?$CStringT@_WV?$StrTraitMFC_DLL@_WV?$ChTraitsCRT@_W@ATL@@@@@ATL@@QBEHPB_W@Z
  0011b	85 c0		 test	 eax, eax
  0011d	0f 85 8b 00 00
	00		 jne	 $L199905

; 1226 : 				{
; 1227 : 					return( pCodecs[iCodec].Clsid );

  00123	8b 85 e0 fe ff
	ff		 mov	 eax, DWORD PTR _iCodec$199893[ebp]
  00129	6b c0 4c	 imul	 eax, 76			; 0000004cH
  0012c	03 45 10	 add	 eax, DWORD PTR _pCodecs$[ebp]
  0012f	8b 08		 mov	 ecx, DWORD PTR [eax]
  00131	89 8d c0 fe ff
	ff		 mov	 DWORD PTR $T208073[ebp], ecx
  00137	8b 50 04	 mov	 edx, DWORD PTR [eax+4]
  0013a	89 95 c4 fe ff
	ff		 mov	 DWORD PTR $T208073[ebp+4], edx
  00140	8b 48 08	 mov	 ecx, DWORD PTR [eax+8]
  00143	89 8d c8 fe ff
	ff		 mov	 DWORD PTR $T208073[ebp+8], ecx
  00149	8b 50 0c	 mov	 edx, DWORD PTR [eax+12]
  0014c	89 95 cc fe ff
	ff		 mov	 DWORD PTR $T208073[ebp+12], edx
  00152	8d 8d d4 fe ff
	ff		 lea	 ecx, DWORD PTR _strExtension$199902[ebp]
  00158	ff 15 00 00 00
	00		 call	 DWORD PTR __imp_??1?$CStringT@_WV?$StrTraitMFC_DLL@_WV?$ChTraitsCRT@_W@ATL@@@@@ATL@@QAE@XZ
  0015e	c6 45 fc 00	 mov	 BYTE PTR __$EHRec$[ebp+8], 0
  00162	8d 8d dc fe ff
	ff		 lea	 ecx, DWORD PTR _strExtensions$199897[ebp]
  00168	ff 15 00 00 00
	00		 call	 DWORD PTR __imp_??1?$CStringT@_WV?$StrTraitMFC_DLL@_WV?$ChTraitsCRT@_W@ATL@@@@@ATL@@QAE@XZ
  0016e	c7 45 fc ff ff
	ff ff		 mov	 DWORD PTR __$EHRec$[ebp+8], -1
  00175	8d 8d e4 fe ff
	ff		 lea	 ecx, DWORD PTR _pszExtensionW$[ebp]
  0017b	e8 00 00 00 00	 call	 ??1?$CA2WEX@$0IA@@ATL@@QAE@XZ ; ATL::CA2WEX<128>::~CA2WEX<128>
  00180	8b 45 08	 mov	 eax, DWORD PTR $T208071[ebp]
  00183	8b 8d c0 fe ff
	ff		 mov	 ecx, DWORD PTR $T208073[ebp]
  00189	89 08		 mov	 DWORD PTR [eax], ecx
  0018b	8b 95 c4 fe ff
	ff		 mov	 edx, DWORD PTR $T208073[ebp+4]
  00191	89 50 04	 mov	 DWORD PTR [eax+4], edx
  00194	8b 8d c8 fe ff
	ff		 mov	 ecx, DWORD PTR $T208073[ebp+8]
  0019a	89 48 08	 mov	 DWORD PTR [eax+8], ecx
  0019d	8b 95 cc fe ff
	ff		 mov	 edx, DWORD PTR $T208073[ebp+12]
  001a3	89 50 0c	 mov	 DWORD PTR [eax+12], edx
  001a6	8b 45 08	 mov	 eax, DWORD PTR $T208071[ebp]
  001a9	e9 97 00 00 00	 jmp	 $L199891
$L199905:

; 1228 : 				}
; 1229 : 			}
; 1230 : 		} while( iStart != -1 );

  001ae	8d 8d d4 fe ff
	ff		 lea	 ecx, DWORD PTR _strExtension$199902[ebp]
  001b4	ff 15 00 00 00
	00		 call	 DWORD PTR __imp_??1?$CStringT@_WV?$StrTraitMFC_DLL@_WV?$ChTraitsCRT@_W@ATL@@@@@ATL@@QAE@XZ
  001ba	83 bd d8 fe ff
	ff ff		 cmp	 DWORD PTR _iStart$199898[ebp], -1
  001c1	0f 85 ca fe ff
	ff		 jne	 $L199899

; 1231 : 	}

  001c7	c6 45 fc 00	 mov	 BYTE PTR __$EHRec$[ebp+8], 0
  001cb	8d 8d dc fe ff
	ff		 lea	 ecx, DWORD PTR _strExtensions$199897[ebp]
  001d1	ff 15 00 00 00
	00		 call	 DWORD PTR __imp_??1?$CStringT@_WV?$StrTraitMFC_DLL@_WV?$ChTraitsCRT@_W@ATL@@@@@ATL@@QAE@XZ
  001d7	e9 6c fe ff ff	 jmp	 $L199895
$L199896:

; 1232 : 
; 1233 : 	return( CLSID_NULL );

  001dc	a1 00 00 00 00	 mov	 eax, DWORD PTR _GUID_NULL
  001e1	89 85 b0 fe ff
	ff		 mov	 DWORD PTR $T208074[ebp], eax
  001e7	8b 0d 04 00 00
	00		 mov	 ecx, DWORD PTR _GUID_NULL+4
  001ed	89 8d b4 fe ff
	ff		 mov	 DWORD PTR $T208074[ebp+4], ecx
  001f3	8b 15 08 00 00
	00		 mov	 edx, DWORD PTR _GUID_NULL+8
  001f9	89 95 b8 fe ff
	ff		 mov	 DWORD PTR $T208074[ebp+8], edx
  001ff	a1 0c 00 00 00	 mov	 eax, DWORD PTR _GUID_NULL+12
  00204	89 85 bc fe ff
	ff		 mov	 DWORD PTR $T208074[ebp+12], eax
  0020a	c7 45 fc ff ff
	ff ff		 mov	 DWORD PTR __$EHRec$[ebp+8], -1
  00211	8d 8d e4 fe ff
	ff		 lea	 ecx, DWORD PTR _pszExtensionW$[ebp]
  00217	e8 00 00 00 00	 call	 ??1?$CA2WEX@$0IA@@ATL@@QAE@XZ ; ATL::CA2WEX<128>::~CA2WEX<128>
  0021c	8b 4d 08	 mov	 ecx, DWORD PTR $T208071[ebp]
  0021f	8b 95 b0 fe ff
	ff		 mov	 edx, DWORD PTR $T208074[ebp]
  00225	89 11		 mov	 DWORD PTR [ecx], edx
  00227	8b 85 b4 fe ff
	ff		 mov	 eax, DWORD PTR $T208074[ebp+4]
  0022d	89 41 04	 mov	 DWORD PTR [ecx+4], eax
  00230	8b 95 b8 fe ff
	ff		 mov	 edx, DWORD PTR $T208074[ebp+8]
  00236	89 51 08	 mov	 DWORD PTR [ecx+8], edx
  00239	8b 85 bc fe ff
	ff		 mov	 eax, DWORD PTR $T208074[ebp+12]
  0023f	89 41 0c	 mov	 DWORD PTR [ecx+12], eax
  00242	8b 45 08	 mov	 eax, DWORD PTR $T208071[ebp]
$L199891:

; 1234 : }

  00245	8b 4d f4	 mov	 ecx, DWORD PTR __$EHRec$[ebp]
  00248	64 89 0d 00 00
	00 00		 mov	 DWORD PTR fs:__except_list, ecx
  0024f	8b 4d f0	 mov	 ecx, DWORD PTR __$ArrayPad$[ebp]
  00252	e8 00 00 00 00	 call	 @__security_check_cookie@4
  00257	8b e5		 mov	 esp, ebp
  00259	5d		 pop	 ebp
  0025a	c3		 ret	 0
_TEXT	ENDS
;	COMDAT text$x
text$x	SEGMENT
$L208075:
  00000	8d 8d e4 fe ff
	ff		 lea	 ecx, DWORD PTR _pszExtensionW$[ebp]
  00006	e9 00 00 00 00	 jmp	 ??1?$CA2WEX@$0IA@@ATL@@QAE@XZ ; ATL::CA2WEX<128>::~CA2WEX<128>
$L208076:
  0000b	8d 8d dc fe ff
	ff		 lea	 ecx, DWORD PTR _strExtensions$199897[ebp]
  00011	ff 25 00 00 00
	00		 jmp	 DWORD PTR __imp_??1?$CStringT@_WV?$StrTraitMFC_DLL@_WV?$ChTraitsCRT@_W@ATL@@@@@ATL@@QAE@XZ
$L208077:
  00017	8d 8d d0 fe ff
	ff		 lea	 ecx, DWORD PTR $T208072[ebp]
  0001d	ff 25 00 00 00
	00		 jmp	 DWORD PTR __imp_??1?$CStringT@_WV?$StrTraitMFC_DLL@_WV?$ChTraitsCRT@_W@ATL@@@@@ATL@@QAE@XZ
__ehhandler$?FindCodecForExtension@CImage@ATL@@CA?AU_GUID@@PBDPBVImageCodecInfo@Gdiplus@@I@Z:
  00023	b8 00 00 00 00	 mov	 eax, OFFSET FLAT:$T208080
  00028	e9 00 00 00 00	 jmp	 ___CxxFrameHandler
text$x	ENDS
?FindCodecForExtension@CImage@ATL@@CA?AU_GUID@@PBDPBVImageCodecInfo@Gdiplus@@I@Z ENDP ; ATL::CImage::FindCodecForExtension
; Function compile flags: /Odt
;	COMDAT ?FindCodecForFileType@CImage@ATL@@CA?AU_GUID@@ABU3@PBVImageCodecInfo@Gdiplus@@I@Z
_TEXT	SEGMENT
_iCodec$199914 = -4					; size = 4
$T208088 = 8						; size = 4
_guidFileType$ = 12					; size = 4
_pCodecs$ = 16						; size = 4
_nCodecs$ = 20						; size = 4
?FindCodecForFileType@CImage@ATL@@CA?AU_GUID@@ABU3@PBVImageCodecInfo@Gdiplus@@I@Z PROC NEAR ; ATL::CImage::FindCodecForFileType, COMDAT

; 1237 : {

  00000	55		 push	 ebp
  00001	8b ec		 mov	 ebp, esp
  00003	51		 push	 ecx

; 1238 : 	for( UINT iCodec = 0; iCodec < nCodecs; iCodec++ )

  00004	c7 45 fc 00 00
	00 00		 mov	 DWORD PTR _iCodec$199914[ebp], 0
  0000b	eb 09		 jmp	 SHORT $L199915
$L199916:
  0000d	8b 45 fc	 mov	 eax, DWORD PTR _iCodec$199914[ebp]
  00010	83 c0 01	 add	 eax, 1
  00013	89 45 fc	 mov	 DWORD PTR _iCodec$199914[ebp], eax
$L199915:
  00016	8b 4d fc	 mov	 ecx, DWORD PTR _iCodec$199914[ebp]
  00019	3b 4d 14	 cmp	 ecx, DWORD PTR _nCodecs$[ebp]
  0001c	73 47		 jae	 SHORT $L199917

; 1239 : 	{
; 1240 : 		if( pCodecs[iCodec].FormatID == guidFileType )

  0001e	8b 55 0c	 mov	 edx, DWORD PTR _guidFileType$[ebp]
  00021	52		 push	 edx
  00022	8b 45 fc	 mov	 eax, DWORD PTR _iCodec$199914[ebp]
  00025	6b c0 4c	 imul	 eax, 76			; 0000004cH
  00028	8b 4d 10	 mov	 ecx, DWORD PTR _pCodecs$[ebp]
  0002b	8d 54 01 10	 lea	 edx, DWORD PTR [ecx+eax+16]
  0002f	52		 push	 edx
  00030	e8 00 00 00 00	 call	 _==
  00035	83 c4 08	 add	 esp, 8
  00038	85 c0		 test	 eax, eax
  0003a	74 27		 je	 SHORT $L199918

; 1241 : 		{
; 1242 : 			return( pCodecs[iCodec].Clsid );

  0003c	8b 45 fc	 mov	 eax, DWORD PTR _iCodec$199914[ebp]
  0003f	6b c0 4c	 imul	 eax, 76			; 0000004cH
  00042	03 45 10	 add	 eax, DWORD PTR _pCodecs$[ebp]
  00045	8b 4d 08	 mov	 ecx, DWORD PTR $T208088[ebp]
  00048	8b 10		 mov	 edx, DWORD PTR [eax]
  0004a	89 11		 mov	 DWORD PTR [ecx], edx
  0004c	8b 50 04	 mov	 edx, DWORD PTR [eax+4]
  0004f	89 51 04	 mov	 DWORD PTR [ecx+4], edx
  00052	8b 50 08	 mov	 edx, DWORD PTR [eax+8]
  00055	89 51 08	 mov	 DWORD PTR [ecx+8], edx
  00058	8b 40 0c	 mov	 eax, DWORD PTR [eax+12]
  0005b	89 41 0c	 mov	 DWORD PTR [ecx+12], eax
  0005e	8b 45 08	 mov	 eax, DWORD PTR $T208088[ebp]
  00061	eb 29		 jmp	 SHORT $L199913
$L199918:

; 1243 : 		}
; 1244 : 	}

  00063	eb a8		 jmp	 SHORT $L199916
$L199917:

; 1245 : 
; 1246 : 	return( CLSID_NULL );

  00065	8b 4d 08	 mov	 ecx, DWORD PTR $T208088[ebp]
  00068	8b 15 00 00 00
	00		 mov	 edx, DWORD PTR _GUID_NULL
  0006e	89 11		 mov	 DWORD PTR [ecx], edx
  00070	a1 04 00 00 00	 mov	 eax, DWORD PTR _GUID_NULL+4
  00075	89 41 04	 mov	 DWORD PTR [ecx+4], eax
  00078	8b 15 08 00 00
	00		 mov	 edx, DWORD PTR _GUID_NULL+8
  0007e	89 51 08	 mov	 DWORD PTR [ecx+8], edx
  00081	a1 0c 00 00 00	 mov	 eax, DWORD PTR _GUID_NULL+12
  00086	89 41 0c	 mov	 DWORD PTR [ecx+12], eax
  00089	8b 45 08	 mov	 eax, DWORD PTR $T208088[ebp]
$L199913:

; 1247 : }

  0008c	8b e5		 mov	 esp, ebp
  0008e	5d		 pop	 ebp
  0008f	c3		 ret	 0
?FindCodecForFileType@CImage@ATL@@CA?AU_GUID@@ABU3@PBVImageCodecInfo@Gdiplus@@I@Z ENDP ; ATL::CImage::FindCodecForFileType
_TEXT	ENDS
PUBLIC	?ComputePitch@CImage@ATL@@CAHHH@Z		; ATL::CImage::ComputePitch
PUBLIC	?abs@@YAJJ@Z					; abs
EXTRN	__imp__GetObjectA@12:NEAR
; Function compile flags: /Odt
;	COMDAT ?UpdateBitmapInfo@CImage@ATL@@AAEXW4DIBOrientation@12@@Z
_TEXT	SEGMENT
_this$ = -100						; size = 4
_dibsection$ = -96					; size = 84
_nBytes$ = -4						; size = 4
_eOrientation$ = 8					; size = 4
?UpdateBitmapInfo@CImage@ATL@@AAEXW4DIBOrientation@12@@Z PROC NEAR ; ATL::CImage::UpdateBitmapInfo, COMDAT
; _this$ = ecx

; 1532 : {

  00000	55		 push	 ebp
  00001	8b ec		 mov	 ebp, esp
  00003	83 ec 64	 sub	 esp, 100		; 00000064H
  00006	89 4d 9c	 mov	 DWORD PTR _this$[ebp], ecx

; 1533 : 	DIBSECTION dibsection;
; 1534 : 	int nBytes;
; 1535 : 
; 1536 : 	nBytes = ::GetObject( m_hBitmap, sizeof( DIBSECTION ), &dibsection );

  00009	8d 45 a0	 lea	 eax, DWORD PTR _dibsection$[ebp]
  0000c	50		 push	 eax
  0000d	6a 54		 push	 84			; 00000054H
  0000f	8b 4d 9c	 mov	 ecx, DWORD PTR _this$[ebp]
  00012	8b 51 04	 mov	 edx, DWORD PTR [ecx+4]
  00015	52		 push	 edx
  00016	ff 15 00 00 00
	00		 call	 DWORD PTR __imp__GetObjectA@12
  0001c	89 45 fc	 mov	 DWORD PTR _nBytes$[ebp], eax

; 1537 : 	if( nBytes == sizeof( DIBSECTION ) )

  0001f	83 7d fc 54	 cmp	 DWORD PTR _nBytes$[ebp], 84 ; 00000054H
  00023	0f 85 96 00 00
	00		 jne	 $L200153

; 1538 : 	{
; 1539 : 		m_bIsDIBSection = true;

  00029	8b 45 9c	 mov	 eax, DWORD PTR _this$[ebp]
  0002c	c6 40 1c 01	 mov	 BYTE PTR [eax+28], 1

; 1540 : 		m_nWidth = dibsection.dsBmih.biWidth;

  00030	8b 4d 9c	 mov	 ecx, DWORD PTR _this$[ebp]
  00033	8b 55 bc	 mov	 edx, DWORD PTR _dibsection$[ebp+28]
  00036	89 51 0c	 mov	 DWORD PTR [ecx+12], edx

; 1541 : 		m_nHeight = abs( dibsection.dsBmih.biHeight );

  00039	8b 45 c0	 mov	 eax, DWORD PTR _dibsection$[ebp+32]
  0003c	50		 push	 eax
  0003d	e8 00 00 00 00	 call	 ?abs@@YAJJ@Z		; abs
  00042	83 c4 04	 add	 esp, 4
  00045	8b 4d 9c	 mov	 ecx, DWORD PTR _this$[ebp]
  00048	89 41 10	 mov	 DWORD PTR [ecx+16], eax

; 1542 : 		m_nBPP = dibsection.dsBmih.biBitCount;

  0004b	0f b7 55 c6	 movzx	 edx, WORD PTR _dibsection$[ebp+38]
  0004f	8b 45 9c	 mov	 eax, DWORD PTR _this$[ebp]
  00052	89 50 18	 mov	 DWORD PTR [eax+24], edx

; 1543 : 		m_nPitch = ComputePitch( m_nWidth, m_nBPP );

  00055	8b 4d 9c	 mov	 ecx, DWORD PTR _this$[ebp]
  00058	8b 51 18	 mov	 edx, DWORD PTR [ecx+24]
  0005b	52		 push	 edx
  0005c	8b 45 9c	 mov	 eax, DWORD PTR _this$[ebp]
  0005f	8b 48 0c	 mov	 ecx, DWORD PTR [eax+12]
  00062	51		 push	 ecx
  00063	e8 00 00 00 00	 call	 ?ComputePitch@CImage@ATL@@CAHHH@Z ; ATL::CImage::ComputePitch
  00068	83 c4 08	 add	 esp, 8
  0006b	8b 55 9c	 mov	 edx, DWORD PTR _this$[ebp]
  0006e	89 42 14	 mov	 DWORD PTR [edx+20], eax

; 1544 : 		m_pBits = dibsection.dsBm.bmBits;

  00071	8b 45 9c	 mov	 eax, DWORD PTR _this$[ebp]
  00074	8b 4d b4	 mov	 ecx, DWORD PTR _dibsection$[ebp+20]
  00077	89 48 08	 mov	 DWORD PTR [eax+8], ecx

; 1545 : 		if( eOrientation == DIBOR_DEFAULT )

  0007a	83 7d 08 00	 cmp	 DWORD PTR _eOrientation$[ebp], 0
  0007e	75 0d		 jne	 SHORT $L200154

; 1546 : 		{
; 1547 : 			eOrientation = (dibsection.dsBmih.biHeight > 0) ? DIBOR_BOTTOMUP : DIBOR_TOPDOWN;

  00080	33 d2		 xor	 edx, edx
  00082	83 7d c0 00	 cmp	 DWORD PTR _dibsection$[ebp+32], 0
  00086	0f 9f c2	 setg	 dl
  00089	42		 inc	 edx
  0008a	89 55 08	 mov	 DWORD PTR _eOrientation$[ebp], edx
$L200154:

; 1548 : 		}
; 1549 : 		if( eOrientation == DIBOR_BOTTOMUP )

  0008d	83 7d 08 02	 cmp	 DWORD PTR _eOrientation$[ebp], 2
  00091	75 2a		 jne	 SHORT $L200155

; 1550 : 		{
; 1551 : 			m_pBits = LPBYTE( m_pBits )+((m_nHeight-1)*m_nPitch);

  00093	8b 45 9c	 mov	 eax, DWORD PTR _this$[ebp]
  00096	8b 48 10	 mov	 ecx, DWORD PTR [eax+16]
  00099	83 e9 01	 sub	 ecx, 1
  0009c	8b 55 9c	 mov	 edx, DWORD PTR _this$[ebp]
  0009f	0f af 4a 14	 imul	 ecx, DWORD PTR [edx+20]
  000a3	8b 45 9c	 mov	 eax, DWORD PTR _this$[ebp]
  000a6	03 48 08	 add	 ecx, DWORD PTR [eax+8]
  000a9	8b 55 9c	 mov	 edx, DWORD PTR _this$[ebp]
  000ac	89 4a 08	 mov	 DWORD PTR [edx+8], ecx

; 1552 : 			m_nPitch = -m_nPitch;

  000af	8b 45 9c	 mov	 eax, DWORD PTR _this$[ebp]
  000b2	8b 48 14	 mov	 ecx, DWORD PTR [eax+20]
  000b5	f7 d9		 neg	 ecx
  000b7	8b 55 9c	 mov	 edx, DWORD PTR _this$[ebp]
  000ba	89 4a 14	 mov	 DWORD PTR [edx+20], ecx
$L200155:

; 1553 : 		}
; 1554 : 	}
; 1555 : 	else

  000bd	eb 37		 jmp	 SHORT $L200156
$L200153:

; 1556 : 	{
; 1557 : 		// Non-DIBSection
; 1558 : 		ATLASSERT( nBytes == sizeof( BITMAP ) );
; 1559 : 		m_bIsDIBSection = false;

  000bf	8b 45 9c	 mov	 eax, DWORD PTR _this$[ebp]
  000c2	c6 40 1c 00	 mov	 BYTE PTR [eax+28], 0

; 1560 : 		m_nWidth = dibsection.dsBm.bmWidth;

  000c6	8b 4d 9c	 mov	 ecx, DWORD PTR _this$[ebp]
  000c9	8b 55 a4	 mov	 edx, DWORD PTR _dibsection$[ebp+4]
  000cc	89 51 0c	 mov	 DWORD PTR [ecx+12], edx

; 1561 : 		m_nHeight = dibsection.dsBm.bmHeight;

  000cf	8b 45 9c	 mov	 eax, DWORD PTR _this$[ebp]
  000d2	8b 4d a8	 mov	 ecx, DWORD PTR _dibsection$[ebp+8]
  000d5	89 48 10	 mov	 DWORD PTR [eax+16], ecx

; 1562 : 		m_nBPP = dibsection.dsBm.bmBitsPixel;

  000d8	0f b7 55 b2	 movzx	 edx, WORD PTR _dibsection$[ebp+18]
  000dc	8b 45 9c	 mov	 eax, DWORD PTR _this$[ebp]
  000df	89 50 18	 mov	 DWORD PTR [eax+24], edx

; 1563 : 		m_nPitch = 0;

  000e2	8b 4d 9c	 mov	 ecx, DWORD PTR _this$[ebp]
  000e5	c7 41 14 00 00
	00 00		 mov	 DWORD PTR [ecx+20], 0

; 1564 : 		m_pBits = 0;

  000ec	8b 55 9c	 mov	 edx, DWORD PTR _this$[ebp]
  000ef	c7 42 08 00 00
	00 00		 mov	 DWORD PTR [edx+8], 0
$L200156:

; 1565 : 	}
; 1566 : 	m_iTransparentColor = -1;

  000f6	8b 45 9c	 mov	 eax, DWORD PTR _this$[ebp]
  000f9	c7 40 20 ff ff
	ff ff		 mov	 DWORD PTR [eax+32], -1

; 1567 : 	m_bHasAlphaChannel = false;

  00100	8b 4d 9c	 mov	 ecx, DWORD PTR _this$[ebp]
  00103	c6 41 1d 00	 mov	 BYTE PTR [ecx+29], 0

; 1568 : }

  00107	8b e5		 mov	 esp, ebp
  00109	5d		 pop	 ebp
  0010a	c2 04 00	 ret	 4
?UpdateBitmapInfo@CImage@ATL@@AAEXW4DIBOrientation@12@@Z ENDP ; ATL::CImage::UpdateBitmapInfo
; Function compile flags: /Odt
_TEXT	ENDS
;	COMDAT ?ComputePitch@CImage@ATL@@CAHHH@Z
_TEXT	SEGMENT
_nWidth$ = 8						; size = 4
_nBPP$ = 12						; size = 4
?ComputePitch@CImage@ATL@@CAHHH@Z PROC NEAR		; ATL::CImage::ComputePitch, COMDAT

; 261  : 	{

  00000	55		 push	 ebp
  00001	8b ec		 mov	 ebp, esp

; 262  : 		return( (((nWidth*nBPP)+31)/32)*4 );

  00003	8b 45 08	 mov	 eax, DWORD PTR _nWidth$[ebp]
  00006	0f af 45 0c	 imul	 eax, DWORD PTR _nBPP$[ebp]
  0000a	83 c0 1f	 add	 eax, 31			; 0000001fH
  0000d	99		 cdq
  0000e	83 e2 1f	 and	 edx, 31			; 0000001fH
  00011	03 c2		 add	 eax, edx
  00013	c1 f8 05	 sar	 eax, 5
  00016	c1 e0 02	 shl	 eax, 2

; 263  : 	}

  00019	5d		 pop	 ebp
  0001a	c3		 ret	 0
?ComputePitch@CImage@ATL@@CAHHH@Z ENDP			; ATL::CImage::ComputePitch
_TEXT	ENDS
PUBLIC	?Init@CInitGDIPlus@CImage@ATL@@QAE_NXZ		; ATL::CImage::CInitGDIPlus::Init
; Function compile flags: /Odt
;	COMDAT ?InitGDIPlus@CImage@ATL@@CA_NXZ
_TEXT	SEGMENT
_bSuccess$ = -1						; size = 1
?InitGDIPlus@CImage@ATL@@CA_NXZ PROC NEAR		; ATL::CImage::InitGDIPlus, COMDAT

; 1619 : {

  00000	55		 push	 ebp
  00001	8b ec		 mov	 ebp, esp
  00003	51		 push	 ecx

; 1620 : 	bool bSuccess = s_initGDIPlus.Init();

  00004	b9 00 00 00 00	 mov	 ecx, OFFSET FLAT:?s_initGDIPlus@CImage@ATL@@0VCInitGDIPlus@12@A
  00009	e8 00 00 00 00	 call	 ?Init@CInitGDIPlus@CImage@ATL@@QAE_NXZ ; ATL::CImage::CInitGDIPlus::Init
  0000e	88 45 ff	 mov	 BYTE PTR _bSuccess$[ebp], al

; 1621 : 	return( bSuccess );

  00011	8a 45 ff	 mov	 al, BYTE PTR _bSuccess$[ebp]

; 1622 : }

  00014	8b e5		 mov	 esp, ebp
  00016	5d		 pop	 ebp
  00017	c3		 ret	 0
?InitGDIPlus@CImage@ATL@@CA_NXZ ENDP			; ATL::CImage::InitGDIPlus
_TEXT	ENDS
PUBLIC	??0GdiplusStartupInput@Gdiplus@@QAE@P6GXW4DebugEventLevel@1@PAD@ZHH@Z ; Gdiplus::GdiplusStartupInput::GdiplusStartupInput
EXTRN	_GdiplusStartup@12:NEAR
; Function compile flags: /Odt
;	COMDAT ?Init@CInitGDIPlus@CImage@ATL@@QAE_NXZ
_TEXT	SEGMENT
_this$ = -36						; size = 4
_status$199225 = -32					; size = 4
_input$199223 = -28					; size = 16
_output$199224 = -12					; size = 8
_fRet$ = -1						; size = 1
?Init@CInitGDIPlus@CImage@ATL@@QAE_NXZ PROC NEAR	; ATL::CImage::CInitGDIPlus::Init, COMDAT
; _this$ = ecx

; 315  : {

  00000	55		 push	 ebp
  00001	8b ec		 mov	 ebp, esp
  00003	83 ec 24	 sub	 esp, 36			; 00000024H
  00006	89 4d dc	 mov	 DWORD PTR _this$[ebp], ecx

; 316  : 	EnterCriticalSection(&m_sect);

  00009	8b 45 dc	 mov	 eax, DWORD PTR _this$[ebp]
  0000c	83 c0 04	 add	 eax, 4
  0000f	50		 push	 eax
  00010	ff 15 00 00 00
	00		 call	 DWORD PTR __imp__EnterCriticalSection@4

; 317  : 	bool fRet = true;

  00016	c6 45 ff 01	 mov	 BYTE PTR _fRet$[ebp], 1

; 318  : 	if( m_dwToken == 0 )

  0001a	8b 4d dc	 mov	 ecx, DWORD PTR _this$[ebp]
  0001d	83 39 00	 cmp	 DWORD PTR [ecx], 0
  00020	75 2c		 jne	 SHORT $L199222

; 319  : 	{
; 320  : 		Gdiplus::GdiplusStartupInput input;

  00022	6a 00		 push	 0
  00024	6a 00		 push	 0
  00026	6a 00		 push	 0
  00028	8d 4d e4	 lea	 ecx, DWORD PTR _input$199223[ebp]
  0002b	e8 00 00 00 00	 call	 ??0GdiplusStartupInput@Gdiplus@@QAE@P6GXW4DebugEventLevel@1@PAD@ZHH@Z ; Gdiplus::GdiplusStartupInput::GdiplusStartupInput

; 321  : 		Gdiplus::GdiplusStartupOutput output;
; 322  : 		Gdiplus::Status status = Gdiplus::GdiplusStartup( &m_dwToken, &input, &output );

  00030	8d 55 f4	 lea	 edx, DWORD PTR _output$199224[ebp]
  00033	52		 push	 edx
  00034	8d 45 e4	 lea	 eax, DWORD PTR _input$199223[ebp]
  00037	50		 push	 eax
  00038	8b 4d dc	 mov	 ecx, DWORD PTR _this$[ebp]
  0003b	51		 push	 ecx
  0003c	e8 00 00 00 00	 call	 _GdiplusStartup@12
  00041	89 45 e0	 mov	 DWORD PTR _status$199225[ebp], eax

; 323  : 		if( status != Gdiplus::Ok )

  00044	83 7d e0 00	 cmp	 DWORD PTR _status$199225[ebp], 0
  00048	74 04		 je	 SHORT $L199222

; 324  : 			fRet = false;

  0004a	c6 45 ff 00	 mov	 BYTE PTR _fRet$[ebp], 0
$L199222:

; 325  : 	}
; 326  : 	LeaveCriticalSection(&m_sect);

  0004e	8b 55 dc	 mov	 edx, DWORD PTR _this$[ebp]
  00051	83 c2 04	 add	 edx, 4
  00054	52		 push	 edx
  00055	ff 15 00 00 00
	00		 call	 DWORD PTR __imp__LeaveCriticalSection@4

; 327  : 	return fRet;

  0005b	8a 45 ff	 mov	 al, BYTE PTR _fRet$[ebp]

; 328  : }

  0005e	8b e5		 mov	 esp, ebp
  00060	5d		 pop	 ebp
  00061	c3		 ret	 0
?Init@CInitGDIPlus@CImage@ATL@@QAE_NXZ ENDP		; ATL::CImage::CInitGDIPlus::Init
_TEXT	ENDS
xdata$x	SEGMENT
$T208110 DD	0ffffffffH
	DD	FLAT:$L208103
	DD	00H
	DD	FLAT:$L208104
	DD	0ffffffffH
	DD	FLAT:$L208105
	DD	02H
	DD	FLAT:$L208106
$T208108 DD	019930520H
	DD	04H
	DD	FLAT:$T208110
	DD	2 DUP(00H)
	DD	2 DUP(00H)
; Function compile flags: /Odt
; File d:\boxgit\playbox\playbox\dev\prj\playbox\src\module\gamepanel\gamepanelwnd.cpp
xdata$x	ENDS
_TEXT	SEGMENT
_this$ = -128						; size = 4
$T208102 = -124						; size = 28
$T208101 = -96						; size = 28
$T208100 = -68						; size = 28
$T208099 = -40						; size = 28
__$EHRec$ = -12						; size = 12
?ILayoutChangeOb_InitFinished@GamePanelWnd@@UAEXXZ PROC NEAR ; GamePanelWnd::ILayoutChangeOb_InitFinished
; _this$ = ecx

; 643  : {

  035f0	55		 push	 ebp
  035f1	8b ec		 mov	 ebp, esp
  035f3	6a ff		 push	 -1
  035f5	68 00 00 00 00	 push	 __ehhandler$?ILayoutChangeOb_InitFinished@GamePanelWnd@@UAEXXZ
  035fa	64 a1 00 00 00
	00		 mov	 eax, DWORD PTR fs:__except_list
  03600	50		 push	 eax
  03601	64 89 25 00 00
	00 00		 mov	 DWORD PTR fs:__except_list, esp
  03608	83 ec 74	 sub	 esp, 116		; 00000074H
  0360b	89 4d 80	 mov	 DWORD PTR _this$[ebp], ecx

; 644  : 	YL_Log("GamePlayingWnd.txt", LOG_DEBUG, "GamePlayingWnd::ILayoutChangeOb_InitFinished", "===IN");

  0360e	68 00 00 00 00	 push	 OFFSET FLAT:$SG204968
  03613	8d 4d d8	 lea	 ecx, DWORD PTR $T208099[ebp]
  03616	ff 15 00 00 00
	00		 call	 DWORD PTR __imp_??0?$basic_string@DU?$char_traits@D@std@@V?$allocator@D@2@@std@@QAE@PBD@Z
  0361c	c7 45 fc 00 00
	00 00		 mov	 DWORD PTR __$EHRec$[ebp+8], 0
  03623	68 00 00 00 00	 push	 OFFSET FLAT:$SG204969
  03628	8d 4d bc	 lea	 ecx, DWORD PTR $T208100[ebp]
  0362b	ff 15 00 00 00
	00		 call	 DWORD PTR __imp_??0?$basic_string@DU?$char_traits@D@std@@V?$allocator@D@2@@std@@QAE@PBD@Z
  03631	c6 45 fc 01	 mov	 BYTE PTR __$EHRec$[ebp+8], 1
  03635	68 00 00 00 00	 push	 OFFSET FLAT:$SG204967
  0363a	8d 45 d8	 lea	 eax, DWORD PTR $T208099[ebp]
  0363d	50		 push	 eax
  0363e	6a 00		 push	 0
  03640	8d 4d bc	 lea	 ecx, DWORD PTR $T208100[ebp]
  03643	51		 push	 ecx
  03644	ff 15 00 00 00
	00		 call	 DWORD PTR __imp_?YL_Log@@YAXABV?$basic_string@DU?$char_traits@D@std@@V?$allocator@D@2@@std@@H0PBDZZ
  0364a	83 c4 10	 add	 esp, 16			; 00000010H
  0364d	c6 45 fc 00	 mov	 BYTE PTR __$EHRec$[ebp+8], 0
  03651	8d 4d bc	 lea	 ecx, DWORD PTR $T208100[ebp]
  03654	ff 15 00 00 00
	00		 call	 DWORD PTR __imp_??1?$basic_string@DU?$char_traits@D@std@@V?$allocator@D@2@@std@@QAE@XZ
  0365a	c7 45 fc ff ff
	ff ff		 mov	 DWORD PTR __$EHRec$[ebp+8], -1
  03661	8d 4d d8	 lea	 ecx, DWORD PTR $T208099[ebp]
  03664	ff 15 00 00 00
	00		 call	 DWORD PTR __imp_??1?$basic_string@DU?$char_traits@D@std@@V?$allocator@D@2@@std@@QAE@XZ

; 645  : 	UpdateAllWnd();

  0366a	8b 4d 80	 mov	 ecx, DWORD PTR _this$[ebp]
  0366d	83 e9 54	 sub	 ecx, 84			; 00000054H
  03670	e8 00 00 00 00	 call	 ?UpdateAllWnd@GamePanelWnd@@QAEXXZ ; GamePanelWnd::UpdateAllWnd

; 646  : 	YL_Log("GamePlayingWnd.txt", LOG_DEBUG, "GamePlayingWnd::ILayoutChangeOb_InitFinished", "===OUT");

  03675	68 00 00 00 00	 push	 OFFSET FLAT:$SG204973
  0367a	8d 4d a0	 lea	 ecx, DWORD PTR $T208101[ebp]
  0367d	ff 15 00 00 00
	00		 call	 DWORD PTR __imp_??0?$basic_string@DU?$char_traits@D@std@@V?$allocator@D@2@@std@@QAE@PBD@Z
  03683	c7 45 fc 02 00
	00 00		 mov	 DWORD PTR __$EHRec$[ebp+8], 2
  0368a	68 00 00 00 00	 push	 OFFSET FLAT:$SG204974
  0368f	8d 4d 84	 lea	 ecx, DWORD PTR $T208102[ebp]
  03692	ff 15 00 00 00
	00		 call	 DWORD PTR __imp_??0?$basic_string@DU?$char_traits@D@std@@V?$allocator@D@2@@std@@QAE@PBD@Z
  03698	c6 45 fc 03	 mov	 BYTE PTR __$EHRec$[ebp+8], 3
  0369c	68 00 00 00 00	 push	 OFFSET FLAT:$SG204972
  036a1	8d 55 a0	 lea	 edx, DWORD PTR $T208101[ebp]
  036a4	52		 push	 edx
  036a5	6a 00		 push	 0
  036a7	8d 45 84	 lea	 eax, DWORD PTR $T208102[ebp]
  036aa	50		 push	 eax
  036ab	ff 15 00 00 00
	00		 call	 DWORD PTR __imp_?YL_Log@@YAXABV?$basic_string@DU?$char_traits@D@std@@V?$allocator@D@2@@std@@H0PBDZZ
  036b1	83 c4 10	 add	 esp, 16			; 00000010H
  036b4	c6 45 fc 02	 mov	 BYTE PTR __$EHRec$[ebp+8], 2
  036b8	8d 4d 84	 lea	 ecx, DWORD PTR $T208102[ebp]
  036bb	ff 15 00 00 00
	00		 call	 DWORD PTR __imp_??1?$basic_string@DU?$char_traits@D@std@@V?$allocator@D@2@@std@@QAE@XZ
  036c1	c7 45 fc ff ff
	ff ff		 mov	 DWORD PTR __$EHRec$[ebp+8], -1
  036c8	8d 4d a0	 lea	 ecx, DWORD PTR $T208101[ebp]
  036cb	ff 15 00 00 00
	00		 call	 DWORD PTR __imp_??1?$basic_string@DU?$char_traits@D@std@@V?$allocator@D@2@@std@@QAE@XZ

; 647  : }

  036d1	8b 4d f4	 mov	 ecx, DWORD PTR __$EHRec$[ebp]
  036d4	64 89 0d 00 00
	00 00		 mov	 DWORD PTR fs:__except_list, ecx
  036db	8b e5		 mov	 esp, ebp
  036dd	5d		 pop	 ebp
  036de	c3		 ret	 0
_TEXT	ENDS
text$x	SEGMENT
$L208103:
  00754	8d 4d d8	 lea	 ecx, DWORD PTR $T208099[ebp]
  00757	ff 25 00 00 00
	00		 jmp	 DWORD PTR __imp_??1?$basic_string@DU?$char_traits@D@std@@V?$allocator@D@2@@std@@QAE@XZ
$L208104:
  0075d	8d 4d bc	 lea	 ecx, DWORD PTR $T208100[ebp]
  00760	ff 25 00 00 00
	00		 jmp	 DWORD PTR __imp_??1?$basic_string@DU?$char_traits@D@std@@V?$allocator@D@2@@std@@QAE@XZ
$L208105:
  00766	8d 4d a0	 lea	 ecx, DWORD PTR $T208101[ebp]
  00769	ff 25 00 00 00
	00		 jmp	 DWORD PTR __imp_??1?$basic_string@DU?$char_traits@D@std@@V?$allocator@D@2@@std@@QAE@XZ
$L208106:
  0076f	8d 4d 84	 lea	 ecx, DWORD PTR $T208102[ebp]
  00772	ff 25 00 00 00
	00		 jmp	 DWORD PTR __imp_??1?$basic_string@DU?$char_traits@D@std@@V?$allocator@D@2@@std@@QAE@XZ
__ehhandler$?ILayoutChangeOb_InitFinished@GamePanelWnd@@UAEXXZ:
  00778	b8 00 00 00 00	 mov	 eax, OFFSET FLAT:$T208108
  0077d	e9 00 00 00 00	 jmp	 ___CxxFrameHandler
text$x	ENDS
?ILayoutChangeOb_InitFinished@GamePanelWnd@@UAEXXZ ENDP	; GamePanelWnd::ILayoutChangeOb_InitFinished
xdata$x	SEGMENT
$T208125 DD	0ffffffffH
	DD	FLAT:$L208116
	DD	00H
	DD	FLAT:$L208117
	DD	01H
	DD	FLAT:$L208118
	DD	02H
	DD	FLAT:$L208119
	DD	01H
	DD	FLAT:$L208120
	DD	04H
	DD	FLAT:$L208121
$T208123 DD	019930520H
	DD	06H
	DD	FLAT:$T208125
	DD	2 DUP(00H)
	DD	2 DUP(00H)
; Function compile flags: /Odt
xdata$x	ENDS
_TEXT	SEGMENT
_this$ = -128						; size = 4
$T208115 = -124						; size = 28
$T208114 = -96						; size = 28
$T208113 = -68						; size = 28
$T208112 = -40						; size = 28
__$EHRec$ = -12						; size = 12
_oldSkinPath$ = 8					; size = 28
_newSkinPath$ = 36					; size = 28
?ILayoutChangeOb_SkinChanged@GamePanelWnd@@UAEXV?$basic_string@DU?$char_traits@D@std@@V?$allocator@D@2@@std@@0@Z PROC NEAR ; GamePanelWnd::ILayoutChangeOb_SkinChanged
; _this$ = ecx

; 649  : {

  036e0	55		 push	 ebp
  036e1	8b ec		 mov	 ebp, esp
  036e3	6a ff		 push	 -1
  036e5	68 00 00 00 00	 push	 __ehhandler$?ILayoutChangeOb_SkinChanged@GamePanelWnd@@UAEXV?$basic_string@DU?$char_traits@D@std@@V?$allocator@D@2@@std@@0@Z
  036ea	64 a1 00 00 00
	00		 mov	 eax, DWORD PTR fs:__except_list
  036f0	50		 push	 eax
  036f1	64 89 25 00 00
	00 00		 mov	 DWORD PTR fs:__except_list, esp
  036f8	83 ec 74	 sub	 esp, 116		; 00000074H
  036fb	89 4d 80	 mov	 DWORD PTR _this$[ebp], ecx
  036fe	c7 45 fc 01 00
	00 00		 mov	 DWORD PTR __$EHRec$[ebp+8], 1

; 650  : 	YL_Log("GamePlayingWnd.txt", LOG_DEBUG, "GamePlayingWnd::ILayoutChangeOb_SkinChanged", "===IN");

  03705	68 00 00 00 00	 push	 OFFSET FLAT:$SG204983
  0370a	8d 4d d8	 lea	 ecx, DWORD PTR $T208112[ebp]
  0370d	ff 15 00 00 00
	00		 call	 DWORD PTR __imp_??0?$basic_string@DU?$char_traits@D@std@@V?$allocator@D@2@@std@@QAE@PBD@Z
  03713	c6 45 fc 02	 mov	 BYTE PTR __$EHRec$[ebp+8], 2
  03717	68 00 00 00 00	 push	 OFFSET FLAT:$SG204984
  0371c	8d 4d bc	 lea	 ecx, DWORD PTR $T208113[ebp]
  0371f	ff 15 00 00 00
	00		 call	 DWORD PTR __imp_??0?$basic_string@DU?$char_traits@D@std@@V?$allocator@D@2@@std@@QAE@PBD@Z
  03725	c6 45 fc 03	 mov	 BYTE PTR __$EHRec$[ebp+8], 3
  03729	68 00 00 00 00	 push	 OFFSET FLAT:$SG204982
  0372e	8d 45 d8	 lea	 eax, DWORD PTR $T208112[ebp]
  03731	50		 push	 eax
  03732	6a 00		 push	 0
  03734	8d 4d bc	 lea	 ecx, DWORD PTR $T208113[ebp]
  03737	51		 push	 ecx
  03738	ff 15 00 00 00
	00		 call	 DWORD PTR __imp_?YL_Log@@YAXABV?$basic_string@DU?$char_traits@D@std@@V?$allocator@D@2@@std@@H0PBDZZ
  0373e	83 c4 10	 add	 esp, 16			; 00000010H
  03741	c6 45 fc 02	 mov	 BYTE PTR __$EHRec$[ebp+8], 2
  03745	8d 4d bc	 lea	 ecx, DWORD PTR $T208113[ebp]
  03748	ff 15 00 00 00
	00		 call	 DWORD PTR __imp_??1?$basic_string@DU?$char_traits@D@std@@V?$allocator@D@2@@std@@QAE@XZ
  0374e	c6 45 fc 01	 mov	 BYTE PTR __$EHRec$[ebp+8], 1
  03752	8d 4d d8	 lea	 ecx, DWORD PTR $T208112[ebp]
  03755	ff 15 00 00 00
	00		 call	 DWORD PTR __imp_??1?$basic_string@DU?$char_traits@D@std@@V?$allocator@D@2@@std@@QAE@XZ

; 651  : 	UpdateAllWnd();

  0375b	8b 4d 80	 mov	 ecx, DWORD PTR _this$[ebp]
  0375e	83 e9 54	 sub	 ecx, 84			; 00000054H
  03761	e8 00 00 00 00	 call	 ?UpdateAllWnd@GamePanelWnd@@QAEXXZ ; GamePanelWnd::UpdateAllWnd

; 652  : 	YL_Log("GamePlayingWnd.txt", LOG_DEBUG, "GamePlayingWnd::ILayoutChangeOb_SkinChanged", "===OUT");

  03766	68 00 00 00 00	 push	 OFFSET FLAT:$SG204988
  0376b	8d 4d a0	 lea	 ecx, DWORD PTR $T208114[ebp]
  0376e	ff 15 00 00 00
	00		 call	 DWORD PTR __imp_??0?$basic_string@DU?$char_traits@D@std@@V?$allocator@D@2@@std@@QAE@PBD@Z
  03774	c6 45 fc 04	 mov	 BYTE PTR __$EHRec$[ebp+8], 4
  03778	68 00 00 00 00	 push	 OFFSET FLAT:$SG204989
  0377d	8d 4d 84	 lea	 ecx, DWORD PTR $T208115[ebp]
  03780	ff 15 00 00 00
	00		 call	 DWORD PTR __imp_??0?$basic_string@DU?$char_traits@D@std@@V?$allocator@D@2@@std@@QAE@PBD@Z
  03786	c6 45 fc 05	 mov	 BYTE PTR __$EHRec$[ebp+8], 5
  0378a	68 00 00 00 00	 push	 OFFSET FLAT:$SG204987
  0378f	8d 55 a0	 lea	 edx, DWORD PTR $T208114[ebp]
  03792	52		 push	 edx
  03793	6a 00		 push	 0
  03795	8d 45 84	 lea	 eax, DWORD PTR $T208115[ebp]
  03798	50		 push	 eax
  03799	ff 15 00 00 00
	00		 call	 DWORD PTR __imp_?YL_Log@@YAXABV?$basic_string@DU?$char_traits@D@std@@V?$allocator@D@2@@std@@H0PBDZZ
  0379f	83 c4 10	 add	 esp, 16			; 00000010H
  037a2	c6 45 fc 04	 mov	 BYTE PTR __$EHRec$[ebp+8], 4
  037a6	8d 4d 84	 lea	 ecx, DWORD PTR $T208115[ebp]
  037a9	ff 15 00 00 00
	00		 call	 DWORD PTR __imp_??1?$basic_string@DU?$char_traits@D@std@@V?$allocator@D@2@@std@@QAE@XZ
  037af	c6 45 fc 01	 mov	 BYTE PTR __$EHRec$[ebp+8], 1
  037b3	8d 4d a0	 lea	 ecx, DWORD PTR $T208114[ebp]
  037b6	ff 15 00 00 00
	00		 call	 DWORD PTR __imp_??1?$basic_string@DU?$char_traits@D@std@@V?$allocator@D@2@@std@@QAE@XZ

; 653  : }

  037bc	c6 45 fc 00	 mov	 BYTE PTR __$EHRec$[ebp+8], 0
  037c0	8d 4d 08	 lea	 ecx, DWORD PTR _oldSkinPath$[ebp]
  037c3	ff 15 00 00 00
	00		 call	 DWORD PTR __imp_??1?$basic_string@DU?$char_traits@D@std@@V?$allocator@D@2@@std@@QAE@XZ
  037c9	c7 45 fc ff ff
	ff ff		 mov	 DWORD PTR __$EHRec$[ebp+8], -1
  037d0	8d 4d 24	 lea	 ecx, DWORD PTR _newSkinPath$[ebp]
  037d3	ff 15 00 00 00
	00		 call	 DWORD PTR __imp_??1?$basic_string@DU?$char_traits@D@std@@V?$allocator@D@2@@std@@QAE@XZ
  037d9	8b 4d f4	 mov	 ecx, DWORD PTR __$EHRec$[ebp]
  037dc	64 89 0d 00 00
	00 00		 mov	 DWORD PTR fs:__except_list, ecx
  037e3	8b e5		 mov	 esp, ebp
  037e5	5d		 pop	 ebp
  037e6	c2 38 00	 ret	 56			; 00000038H
_TEXT	ENDS
text$x	SEGMENT
$L208116:
  00782	8d 4d 24	 lea	 ecx, DWORD PTR _newSkinPath$[ebp]
  00785	ff 25 00 00 00
	00		 jmp	 DWORD PTR __imp_??1?$basic_string@DU?$char_traits@D@std@@V?$allocator@D@2@@std@@QAE@XZ
$L208117:
  0078b	8d 4d 08	 lea	 ecx, DWORD PTR _oldSkinPath$[ebp]
  0078e	ff 25 00 00 00
	00		 jmp	 DWORD PTR __imp_??1?$basic_string@DU?$char_traits@D@std@@V?$allocator@D@2@@std@@QAE@XZ
$L208118:
  00794	8d 4d d8	 lea	 ecx, DWORD PTR $T208112[ebp]
  00797	ff 25 00 00 00
	00		 jmp	 DWORD PTR __imp_??1?$basic_string@DU?$char_traits@D@std@@V?$allocator@D@2@@std@@QAE@XZ
$L208119:
  0079d	8d 4d bc	 lea	 ecx, DWORD PTR $T208113[ebp]
  007a0	ff 25 00 00 00
	00		 jmp	 DWORD PTR __imp_??1?$basic_string@DU?$char_traits@D@std@@V?$allocator@D@2@@std@@QAE@XZ
$L208120:
  007a6	8d 4d a0	 lea	 ecx, DWORD PTR $T208114[ebp]
  007a9	ff 25 00 00 00
	00		 jmp	 DWORD PTR __imp_??1?$basic_string@DU?$char_traits@D@std@@V?$allocator@D@2@@std@@QAE@XZ
$L208121:
  007af	8d 4d 84	 lea	 ecx, DWORD PTR $T208115[ebp]
  007b2	ff 25 00 00 00
	00		 jmp	 DWORD PTR __imp_??1?$basic_string@DU?$char_traits@D@std@@V?$allocator@D@2@@std@@QAE@XZ
__ehhandler$?ILayoutChangeOb_SkinChanged@GamePanelWnd@@UAEXV?$basic_string@DU?$char_traits@D@std@@V?$allocator@D@2@@std@@0@Z:
  007b8	b8 00 00 00 00	 mov	 eax, OFFSET FLAT:$T208123
  007bd	e9 00 00 00 00	 jmp	 ___CxxFrameHandler
text$x	ENDS
?ILayoutChangeOb_SkinChanged@GamePanelWnd@@UAEXV?$basic_string@DU?$char_traits@D@std@@V?$allocator@D@2@@std@@0@Z ENDP ; GamePanelWnd::ILayoutChangeOb_SkinChanged
PUBLIC	?GetSafeHwnd@CWnd@@QBEPAUHWND__@@XZ		; CWnd::GetSafeHwnd
xdata$x	SEGMENT
$T208138 DD	0ffffffffH
	DD	FLAT:$L208131
	DD	00H
	DD	FLAT:$L208132
	DD	0ffffffffH
	DD	FLAT:$L208133
	DD	02H
	DD	FLAT:$L208134
$T208136 DD	019930520H
	DD	04H
	DD	FLAT:$T208138
	DD	2 DUP(00H)
	DD	2 DUP(00H)
; Function compile flags: /Odt
xdata$x	ENDS
_TEXT	SEGMENT
_this$ = -128						; size = 4
$T208130 = -124						; size = 28
$T208129 = -96						; size = 28
$T208128 = -68						; size = 28
$T208127 = -40						; size = 28
__$EHRec$ = -12						; size = 12
_hWnd$ = 8						; size = 4
?ILayoutChangeOb_UpdateLayout@GamePanelWnd@@UAEXPAUHWND__@@@Z PROC NEAR ; GamePanelWnd::ILayoutChangeOb_UpdateLayout
; _this$ = ecx

; 656  : {

  037f0	55		 push	 ebp
  037f1	8b ec		 mov	 ebp, esp
  037f3	6a ff		 push	 -1
  037f5	68 00 00 00 00	 push	 __ehhandler$?ILayoutChangeOb_UpdateLayout@GamePanelWnd@@UAEXPAUHWND__@@@Z
  037fa	64 a1 00 00 00
	00		 mov	 eax, DWORD PTR fs:__except_list
  03800	50		 push	 eax
  03801	64 89 25 00 00
	00 00		 mov	 DWORD PTR fs:__except_list, esp
  03808	83 ec 74	 sub	 esp, 116		; 00000074H
  0380b	89 4d 80	 mov	 DWORD PTR _this$[ebp], ecx

; 657  : 	YL_Log("GamePlayingWnd.txt", LOG_DEBUG, "GamePlayingWnd::ILayoutChangeOb_UpdateLayout", "===IN");

  0380e	68 00 00 00 00	 push	 OFFSET FLAT:$SG204997
  03813	8d 4d d8	 lea	 ecx, DWORD PTR $T208127[ebp]
  03816	ff 15 00 00 00
	00		 call	 DWORD PTR __imp_??0?$basic_string@DU?$char_traits@D@std@@V?$allocator@D@2@@std@@QAE@PBD@Z
  0381c	c7 45 fc 00 00
	00 00		 mov	 DWORD PTR __$EHRec$[ebp+8], 0
  03823	68 00 00 00 00	 push	 OFFSET FLAT:$SG204998
  03828	8d 4d bc	 lea	 ecx, DWORD PTR $T208128[ebp]
  0382b	ff 15 00 00 00
	00		 call	 DWORD PTR __imp_??0?$basic_string@DU?$char_traits@D@std@@V?$allocator@D@2@@std@@QAE@PBD@Z
  03831	c6 45 fc 01	 mov	 BYTE PTR __$EHRec$[ebp+8], 1
  03835	68 00 00 00 00	 push	 OFFSET FLAT:$SG204996
  0383a	8d 45 d8	 lea	 eax, DWORD PTR $T208127[ebp]
  0383d	50		 push	 eax
  0383e	6a 00		 push	 0
  03840	8d 4d bc	 lea	 ecx, DWORD PTR $T208128[ebp]
  03843	51		 push	 ecx
  03844	ff 15 00 00 00
	00		 call	 DWORD PTR __imp_?YL_Log@@YAXABV?$basic_string@DU?$char_traits@D@std@@V?$allocator@D@2@@std@@H0PBDZZ
  0384a	83 c4 10	 add	 esp, 16			; 00000010H
  0384d	c6 45 fc 00	 mov	 BYTE PTR __$EHRec$[ebp+8], 0
  03851	8d 4d bc	 lea	 ecx, DWORD PTR $T208128[ebp]
  03854	ff 15 00 00 00
	00		 call	 DWORD PTR __imp_??1?$basic_string@DU?$char_traits@D@std@@V?$allocator@D@2@@std@@QAE@XZ
  0385a	c7 45 fc ff ff
	ff ff		 mov	 DWORD PTR __$EHRec$[ebp+8], -1
  03861	8d 4d d8	 lea	 ecx, DWORD PTR $T208127[ebp]
  03864	ff 15 00 00 00
	00		 call	 DWORD PTR __imp_??1?$basic_string@DU?$char_traits@D@std@@V?$allocator@D@2@@std@@QAE@XZ

; 658  : 	if( hWnd == GetSafeHwnd() )

  0386a	8b 4d 80	 mov	 ecx, DWORD PTR _this$[ebp]
  0386d	83 e9 54	 sub	 ecx, 84			; 00000054H
  03870	e8 00 00 00 00	 call	 ?GetSafeHwnd@CWnd@@QBEPAUHWND__@@XZ ; CWnd::GetSafeHwnd
  03875	39 45 08	 cmp	 DWORD PTR _hWnd$[ebp], eax
  03878	75 0b		 jne	 SHORT $L204999

; 659  : 	{
; 660  : 		UpdateAllWnd();

  0387a	8b 4d 80	 mov	 ecx, DWORD PTR _this$[ebp]
  0387d	83 e9 54	 sub	 ecx, 84			; 00000054H
  03880	e8 00 00 00 00	 call	 ?UpdateAllWnd@GamePanelWnd@@QAEXXZ ; GamePanelWnd::UpdateAllWnd
$L204999:

; 661  : 	}
; 662  : 	YL_Log("GamePlayingWnd.txt", LOG_DEBUG, "GamePlayingWnd::ILayoutChangeOb_UpdateLayout", "===OUT");

  03885	68 00 00 00 00	 push	 OFFSET FLAT:$SG205003
  0388a	8d 4d a0	 lea	 ecx, DWORD PTR $T208129[ebp]
  0388d	ff 15 00 00 00
	00		 call	 DWORD PTR __imp_??0?$basic_string@DU?$char_traits@D@std@@V?$allocator@D@2@@std@@QAE@PBD@Z
  03893	c7 45 fc 02 00
	00 00		 mov	 DWORD PTR __$EHRec$[ebp+8], 2
  0389a	68 00 00 00 00	 push	 OFFSET FLAT:$SG205004
  0389f	8d 4d 84	 lea	 ecx, DWORD PTR $T208130[ebp]
  038a2	ff 15 00 00 00
	00		 call	 DWORD PTR __imp_??0?$basic_string@DU?$char_traits@D@std@@V?$allocator@D@2@@std@@QAE@PBD@Z
  038a8	c6 45 fc 03	 mov	 BYTE PTR __$EHRec$[ebp+8], 3
  038ac	68 00 00 00 00	 push	 OFFSET FLAT:$SG205002
  038b1	8d 55 a0	 lea	 edx, DWORD PTR $T208129[ebp]
  038b4	52		 push	 edx
  038b5	6a 00		 push	 0
  038b7	8d 45 84	 lea	 eax, DWORD PTR $T208130[ebp]
  038ba	50		 push	 eax
  038bb	ff 15 00 00 00
	00		 call	 DWORD PTR __imp_?YL_Log@@YAXABV?$basic_string@DU?$char_traits@D@std@@V?$allocator@D@2@@std@@H0PBDZZ
  038c1	83 c4 10	 add	 esp, 16			; 00000010H
  038c4	c6 45 fc 02	 mov	 BYTE PTR __$EHRec$[ebp+8], 2
  038c8	8d 4d 84	 lea	 ecx, DWORD PTR $T208130[ebp]
  038cb	ff 15 00 00 00
	00		 call	 DWORD PTR __imp_??1?$basic_string@DU?$char_traits@D@std@@V?$allocator@D@2@@std@@QAE@XZ
  038d1	c7 45 fc ff ff
	ff ff		 mov	 DWORD PTR __$EHRec$[ebp+8], -1
  038d8	8d 4d a0	 lea	 ecx, DWORD PTR $T208129[ebp]
  038db	ff 15 00 00 00
	00		 call	 DWORD PTR __imp_??1?$basic_string@DU?$char_traits@D@std@@V?$allocator@D@2@@std@@QAE@XZ

; 663  : }

  038e1	8b 4d f4	 mov	 ecx, DWORD PTR __$EHRec$[ebp]
  038e4	64 89 0d 00 00
	00 00		 mov	 DWORD PTR fs:__except_list, ecx
  038eb	8b e5		 mov	 esp, ebp
  038ed	5d		 pop	 ebp
  038ee	c2 04 00	 ret	 4
_TEXT	ENDS
text$x	SEGMENT
$L208131:
  007c2	8d 4d d8	 lea	 ecx, DWORD PTR $T208127[ebp]
  007c5	ff 25 00 00 00
	00		 jmp	 DWORD PTR __imp_??1?$basic_string@DU?$char_traits@D@std@@V?$allocator@D@2@@std@@QAE@XZ
$L208132:
  007cb	8d 4d bc	 lea	 ecx, DWORD PTR $T208128[ebp]
  007ce	ff 25 00 00 00
	00		 jmp	 DWORD PTR __imp_??1?$basic_string@DU?$char_traits@D@std@@V?$allocator@D@2@@std@@QAE@XZ
$L208133:
  007d4	8d 4d a0	 lea	 ecx, DWORD PTR $T208129[ebp]
  007d7	ff 25 00 00 00
	00		 jmp	 DWORD PTR __imp_??1?$basic_string@DU?$char_traits@D@std@@V?$allocator@D@2@@std@@QAE@XZ
$L208134:
  007dd	8d 4d 84	 lea	 ecx, DWORD PTR $T208130[ebp]
  007e0	ff 25 00 00 00
	00		 jmp	 DWORD PTR __imp_??1?$basic_string@DU?$char_traits@D@std@@V?$allocator@D@2@@std@@QAE@XZ
__ehhandler$?ILayoutChangeOb_UpdateLayout@GamePanelWnd@@UAEXPAUHWND__@@@Z:
  007e6	b8 00 00 00 00	 mov	 eax, OFFSET FLAT:$T208136
  007eb	e9 00 00 00 00	 jmp	 ___CxxFrameHandler
text$x	ENDS
?ILayoutChangeOb_UpdateLayout@GamePanelWnd@@UAEXPAUHWND__@@@Z ENDP ; GamePanelWnd::ILayoutChangeOb_UpdateLayout
EXTRN	__imp_?GetLength@?$CSimpleStringT@D$00@ATL@@QBEHXZ:NEAR
EXTRN	__imp_?GetManager@?$CSimpleStringT@D$00@ATL@@QBEPAUIAtlStringMgr@2@XZ:NEAR
EXTRN	__imp_?StringLength@?$CSimpleStringT@D$00@ATL@@SAHPBD@Z:NEAR
EXTRN	__imp_?Concatenate@?$CSimpleStringT@D$00@ATL@@KAXAAV12@PBDH1H@Z:NEAR
EXTRN	__imp_??0?$CStringT@DV?$StrTraitMFC_DLL@DV?$ChTraitsCRT@D@ATL@@@@@ATL@@QAE@PAUIAtlStringMgr@1@@Z:NEAR
;	COMDAT xdata$x
; File d:\program files (x86)\microsoft visual studio .net 2003\vc7\atlmfc\include\cstringt.h
xdata$x	SEGMENT
$T208147 DD	0ffffffffH
	DD	FLAT:$L208140
$T208145 DD	019930520H
	DD	01H
	DD	FLAT:$T208147
	DD	2 DUP(00H)
	DD	2 DUP(00H)
; Function compile flags: /Odt
xdata$x	ENDS
;	COMDAT ??HATL@@YA?AV?$CStringT@DV?$StrTraitMFC_DLL@DV?$ChTraitsCRT@D@ATL@@@@@0@ABV10@PBD@Z
_TEXT	SEGMENT
$T208142 = -20						; size = 4
_strResult$ = -16					; size = 4
__$EHRec$ = -12						; size = 12
___$ReturnUdt$ = 8					; size = 4
_str1$ = 12						; size = 4
_psz2$ = 16						; size = 4
??HATL@@YA?AV?$CStringT@DV?$StrTraitMFC_DLL@DV?$ChTraitsCRT@D@ATL@@@@@0@ABV10@PBD@Z PROC NEAR ; ATL::operator+, COMDAT

; 2023 : 	{

  00000	55		 push	 ebp
  00001	8b ec		 mov	 ebp, esp
  00003	6a ff		 push	 -1
  00005	68 00 00 00 00	 push	 __ehhandler$??HATL@@YA?AV?$CStringT@DV?$StrTraitMFC_DLL@DV?$ChTraitsCRT@D@ATL@@@@@0@ABV10@PBD@Z
  0000a	64 a1 00 00 00
	00		 mov	 eax, DWORD PTR fs:__except_list
  00010	50		 push	 eax
  00011	64 89 25 00 00
	00 00		 mov	 DWORD PTR fs:__except_list, esp
  00018	83 ec 08	 sub	 esp, 8
  0001b	c7 45 ec 00 00
	00 00		 mov	 DWORD PTR $T208142[ebp], 0

; 2024 : 		CStringT strResult( str1.GetManager() );

  00022	8b 4d 0c	 mov	 ecx, DWORD PTR _str1$[ebp]
  00025	ff 15 00 00 00
	00		 call	 DWORD PTR __imp_?GetManager@?$CSimpleStringT@D$00@ATL@@QBEPAUIAtlStringMgr@2@XZ
  0002b	50		 push	 eax
  0002c	8d 4d f0	 lea	 ecx, DWORD PTR _strResult$[ebp]
  0002f	ff 15 00 00 00
	00		 call	 DWORD PTR __imp_??0?$CStringT@DV?$StrTraitMFC_DLL@DV?$ChTraitsCRT@D@ATL@@@@@ATL@@QAE@PAUIAtlStringMgr@1@@Z
  00035	c7 45 fc 00 00
	00 00		 mov	 DWORD PTR __$EHRec$[ebp+8], 0

; 2025 : 
; 2026 : 		Concatenate( strResult, str1, str1.GetLength(), psz2, StringLength( psz2 ) );

  0003c	8b 45 10	 mov	 eax, DWORD PTR _psz2$[ebp]
  0003f	50		 push	 eax
  00040	ff 15 00 00 00
	00		 call	 DWORD PTR __imp_?StringLength@?$CSimpleStringT@D$00@ATL@@SAHPBD@Z
  00046	83 c4 04	 add	 esp, 4
  00049	50		 push	 eax
  0004a	8b 4d 10	 mov	 ecx, DWORD PTR _psz2$[ebp]
  0004d	51		 push	 ecx
  0004e	8b 4d 0c	 mov	 ecx, DWORD PTR _str1$[ebp]
  00051	ff 15 00 00 00
	00		 call	 DWORD PTR __imp_?GetLength@?$CSimpleStringT@D$00@ATL@@QBEHXZ
  00057	50		 push	 eax
  00058	8b 4d 0c	 mov	 ecx, DWORD PTR _str1$[ebp]
  0005b	ff 15 00 00 00
	00		 call	 DWORD PTR __imp_??B?$CSimpleStringT@D$00@ATL@@QBEPBDXZ
  00061	50		 push	 eax
  00062	8d 55 f0	 lea	 edx, DWORD PTR _strResult$[ebp]
  00065	52		 push	 edx
  00066	ff 15 00 00 00
	00		 call	 DWORD PTR __imp_?Concatenate@?$CSimpleStringT@D$00@ATL@@KAXAAV12@PBDH1H@Z
  0006c	83 c4 14	 add	 esp, 20			; 00000014H

; 2027 : 
; 2028 : 		return( strResult );

  0006f	8d 45 f0	 lea	 eax, DWORD PTR _strResult$[ebp]
  00072	50		 push	 eax
  00073	8b 4d 08	 mov	 ecx, DWORD PTR ___$ReturnUdt$[ebp]
  00076	ff 15 00 00 00
	00		 call	 DWORD PTR __imp_??0?$CStringT@DV?$StrTraitMFC_DLL@DV?$ChTraitsCRT@D@ATL@@@@@ATL@@QAE@ABV01@@Z
  0007c	8b 4d ec	 mov	 ecx, DWORD PTR $T208142[ebp]
  0007f	83 c9 01	 or	 ecx, 1
  00082	89 4d ec	 mov	 DWORD PTR $T208142[ebp], ecx
  00085	c7 45 fc ff ff
	ff ff		 mov	 DWORD PTR __$EHRec$[ebp+8], -1
  0008c	8d 4d f0	 lea	 ecx, DWORD PTR _strResult$[ebp]
  0008f	ff 15 00 00 00
	00		 call	 DWORD PTR __imp_??1?$CStringT@DV?$StrTraitMFC_DLL@DV?$ChTraitsCRT@D@ATL@@@@@ATL@@QAE@XZ
  00095	8b 45 08	 mov	 eax, DWORD PTR ___$ReturnUdt$[ebp]

; 2029 : 	}

  00098	8b 4d f4	 mov	 ecx, DWORD PTR __$EHRec$[ebp]
  0009b	64 89 0d 00 00
	00 00		 mov	 DWORD PTR fs:__except_list, ecx
  000a2	8b e5		 mov	 esp, ebp
  000a4	5d		 pop	 ebp
  000a5	c3		 ret	 0
_TEXT	ENDS
;	COMDAT text$x
text$x	SEGMENT
$L208140:
  00000	8d 4d f0	 lea	 ecx, DWORD PTR _strResult$[ebp]
  00003	ff 25 00 00 00
	00		 jmp	 DWORD PTR __imp_??1?$CStringT@DV?$StrTraitMFC_DLL@DV?$ChTraitsCRT@D@ATL@@@@@ATL@@QAE@XZ
__ehhandler$??HATL@@YA?AV?$CStringT@DV?$StrTraitMFC_DLL@DV?$ChTraitsCRT@D@ATL@@@@@0@ABV10@PBD@Z:
  00009	b8 00 00 00 00	 mov	 eax, OFFSET FLAT:$T208145
  0000e	e9 00 00 00 00	 jmp	 ___CxxFrameHandler
text$x	ENDS
??HATL@@YA?AV?$CStringT@DV?$StrTraitMFC_DLL@DV?$ChTraitsCRT@D@ATL@@@@@0@ABV10@PBD@Z ENDP ; ATL::operator+
PUBLIC	?Init@?$CA2WEX@$0IA@@ATL@@AAEXPBDI@Z		; ATL::CA2WEX<128>::Init
; Function compile flags: /Odt
; File d:\program files (x86)\microsoft visual studio .net 2003\vc7\atlmfc\include\atlconv.h
;	COMDAT ??0?$CA2WEX@$0IA@@ATL@@QAE@PBD@Z
_TEXT	SEGMENT
_this$ = -4						; size = 4
_psz$ = 8						; size = 4
??0?$CA2WEX@$0IA@@ATL@@QAE@PBD@Z PROC NEAR		; ATL::CA2WEX<128>::CA2WEX<128>, COMDAT
; _this$ = ecx

; 356  : 	{

  00000	55		 push	 ebp
  00001	8b ec		 mov	 ebp, esp
  00003	51		 push	 ecx
  00004	89 4d fc	 mov	 DWORD PTR _this$[ebp], ecx
  00007	8b 45 fc	 mov	 eax, DWORD PTR _this$[ebp]
  0000a	83 c0 04	 add	 eax, 4
  0000d	8b 4d fc	 mov	 ecx, DWORD PTR _this$[ebp]
  00010	89 01		 mov	 DWORD PTR [ecx], eax

; 357  : 		Init( psz, _AtlGetConversionACP() );

  00012	e8 00 00 00 00	 call	 ?_AtlGetConversionACP@ATL@@YGIXZ ; ATL::_AtlGetConversionACP
  00017	50		 push	 eax
  00018	8b 55 08	 mov	 edx, DWORD PTR _psz$[ebp]
  0001b	52		 push	 edx
  0001c	8b 4d fc	 mov	 ecx, DWORD PTR _this$[ebp]
  0001f	e8 00 00 00 00	 call	 ?Init@?$CA2WEX@$0IA@@ATL@@AAEXPBDI@Z ; ATL::CA2WEX<128>::Init

; 358  : 	}

  00024	8b 45 fc	 mov	 eax, DWORD PTR _this$[ebp]
  00027	8b e5		 mov	 esp, ebp
  00029	5d		 pop	 ebp
  0002a	c2 04 00	 ret	 4
??0?$CA2WEX@$0IA@@ATL@@QAE@PBD@Z ENDP			; ATL::CA2WEX<128>::CA2WEX<128>
_TEXT	ENDS
EXTRN	__imp__free:NEAR
; Function compile flags: /Odt
;	COMDAT ??1?$CA2WEX@$0IA@@ATL@@QAE@XZ
_TEXT	SEGMENT
_this$ = -4						; size = 4
??1?$CA2WEX@$0IA@@ATL@@QAE@XZ PROC NEAR			; ATL::CA2WEX<128>::~CA2WEX<128>, COMDAT
; _this$ = ecx

; 365  : 	{

  00000	55		 push	 ebp
  00001	8b ec		 mov	 ebp, esp
  00003	51		 push	 ecx
  00004	89 4d fc	 mov	 DWORD PTR _this$[ebp], ecx

; 366  : 		if( m_psz != m_szBuffer )

  00007	8b 45 fc	 mov	 eax, DWORD PTR _this$[ebp]
  0000a	83 c0 04	 add	 eax, 4
  0000d	8b 4d fc	 mov	 ecx, DWORD PTR _this$[ebp]
  00010	39 01		 cmp	 DWORD PTR [ecx], eax
  00012	74 0f		 je	 SHORT $L205139

; 367  : 		{
; 368  : 			free( m_psz );

  00014	8b 55 fc	 mov	 edx, DWORD PTR _this$[ebp]
  00017	8b 02		 mov	 eax, DWORD PTR [edx]
  00019	50		 push	 eax
  0001a	ff 15 00 00 00
	00		 call	 DWORD PTR __imp__free
  00020	83 c4 04	 add	 esp, 4
$L205139:

; 369  : 		}
; 370  : 	}

  00023	8b e5		 mov	 esp, ebp
  00025	5d		 pop	 ebp
  00026	c3		 ret	 0
??1?$CA2WEX@$0IA@@ATL@@QAE@XZ ENDP			; ATL::CA2WEX<128>::~CA2WEX<128>
; Function compile flags: /Odt
_TEXT	ENDS
;	COMDAT ??B?$CA2WEX@$0IA@@ATL@@QBEPA_WXZ
_TEXT	SEGMENT
_this$ = -4						; size = 4
??B?$CA2WEX@$0IA@@ATL@@QBEPA_WXZ PROC NEAR		; ATL::CA2WEX<128>::operator wchar_t *, COMDAT
; _this$ = ecx

; 373  : 	{

  00000	55		 push	 ebp
  00001	8b ec		 mov	 ebp, esp
  00003	51		 push	 ecx
  00004	89 4d fc	 mov	 DWORD PTR _this$[ebp], ecx

; 374  : 		return( m_psz );

  00007	8b 45 fc	 mov	 eax, DWORD PTR _this$[ebp]
  0000a	8b 00		 mov	 eax, DWORD PTR [eax]

; 375  : 	}

  0000c	8b e5		 mov	 esp, ebp
  0000e	5d		 pop	 ebp
  0000f	c3		 ret	 0
??B?$CA2WEX@$0IA@@ATL@@QBEPA_WXZ ENDP			; ATL::CA2WEX<128>::operator wchar_t *
_TEXT	ENDS
PUBLIC	??0?$allocator@V?$basic_string@DU?$char_traits@D@std@@V?$allocator@D@2@@std@@@std@@QAE@XZ ; std::allocator<std::basic_string<char,std::char_traits<char>,std::allocator<char> > >::allocator<std::basic_string<char,std::char_traits<char>,std::allocator<char> > >
PUBLIC	??0?$_Vector_val@V?$basic_string@DU?$char_traits@D@std@@V?$allocator@D@2@@std@@V?$allocator@V?$basic_string@DU?$char_traits@D@std@@V?$allocator@D@2@@std@@@2@@std@@IAE@V?$allocator@V?$basic_string@DU?$char_traits@D@std@@V?$allocator@D@2@@std@@@1@@Z ; std::_Vector_val<std::basic_string<char,std::char_traits<char>,std::allocator<char> >,std::allocator<std::basic_string<char,std::char_traits<char>,std::allocator<char> > > >::_Vector_val<std::basic_string<char,std::char_traits<char>,std::allocator<char> >,std::allocator<std::basic_string<char,std::char_traits<char>,std::allocator<char> > > >
PUBLIC	?_Buy@?$vector@V?$basic_string@DU?$char_traits@D@std@@V?$allocator@D@2@@std@@V?$allocator@V?$basic_string@DU?$char_traits@D@std@@V?$allocator@D@2@@std@@@2@@std@@IAE_NI@Z ; std::vector<std::basic_string<char,std::char_traits<char>,std::allocator<char> >,std::allocator<std::basic_string<char,std::char_traits<char>,std::allocator<char> > > >::_Buy
; Function compile flags: /Odt
; File d:\program files (x86)\microsoft visual studio .net 2003\vc7\include\vector
;	COMDAT ??0?$vector@V?$basic_string@DU?$char_traits@D@std@@V?$allocator@D@2@@std@@V?$allocator@V?$basic_string@DU?$char_traits@D@std@@V?$allocator@D@2@@std@@@2@@std@@QAE@XZ
_TEXT	SEGMENT
_this$ = -8						; size = 4
??0?$vector@V?$basic_string@DU?$char_traits@D@std@@V?$allocator@D@2@@std@@V?$allocator@V?$basic_string@DU?$char_traits@D@std@@V?$allocator@D@2@@std@@@2@@std@@QAE@XZ PROC NEAR ; std::vector<std::basic_string<char,std::char_traits<char>,std::allocator<char> >,std::allocator<std::basic_string<char,std::char_traits<char>,std::allocator<char> > > >::vector<std::basic_string<char,std::char_traits<char>,std::allocator<char> >,std::allocator<std::basic_string<char,std::char_traits<char>,std::allocator<char> > > >, COMDAT
; _this$ = ecx

; 299  : 		{	// construct empty vector

  00000	55		 push	 ebp
  00001	8b ec		 mov	 ebp, esp
  00003	83 ec 08	 sub	 esp, 8
  00006	89 4d f8	 mov	 DWORD PTR _this$[ebp], ecx
  00009	51		 push	 ecx
  0000a	8b cc		 mov	 ecx, esp
  0000c	e8 00 00 00 00	 call	 ??0?$allocator@V?$basic_string@DU?$char_traits@D@std@@V?$allocator@D@2@@std@@@std@@QAE@XZ ; std::allocator<std::basic_string<char,std::char_traits<char>,std::allocator<char> > >::allocator<std::basic_string<char,std::char_traits<char>,std::allocator<char> > >
  00011	8b 4d f8	 mov	 ecx, DWORD PTR _this$[ebp]
  00014	e8 00 00 00 00	 call	 ??0?$_Vector_val@V?$basic_string@DU?$char_traits@D@std@@V?$allocator@D@2@@std@@V?$allocator@V?$basic_string@DU?$char_traits@D@std@@V?$allocator@D@2@@std@@@2@@std@@IAE@V?$allocator@V?$basic_string@DU?$char_traits@D@std@@V?$allocator@D@2@@std@@@1@@Z ; std::_Vector_val<std::basic_string<char,std::char_traits<char>,std::allocator<char> >,std::allocator<std::basic_string<char,std::char_traits<char>,std::allocator<char> > > >::_Vector_val<std::basic_string<char,std::char_traits<char>,std::allocator<char> >,std::allocator<std::basic_string<char,std::char_traits<char>,std::allocator<char> > > >

; 300  : 		_Buy(0);

  00019	6a 00		 push	 0
  0001b	8b 4d f8	 mov	 ecx, DWORD PTR _this$[ebp]
  0001e	e8 00 00 00 00	 call	 ?_Buy@?$vector@V?$basic_string@DU?$char_traits@D@std@@V?$allocator@D@2@@std@@V?$allocator@V?$basic_string@DU?$char_traits@D@std@@V?$allocator@D@2@@std@@@2@@std@@IAE_NI@Z ; std::vector<std::basic_string<char,std::char_traits<char>,std::allocator<char> >,std::allocator<std::basic_string<char,std::char_traits<char>,std::allocator<char> > > >::_Buy

; 301  : 		}

  00023	8b 45 f8	 mov	 eax, DWORD PTR _this$[ebp]
  00026	8b e5		 mov	 esp, ebp
  00028	5d		 pop	 ebp
  00029	c3		 ret	 0
??0?$vector@V?$basic_string@DU?$char_traits@D@std@@V?$allocator@D@2@@std@@V?$allocator@V?$basic_string@DU?$char_traits@D@std@@V?$allocator@D@2@@std@@@2@@std@@QAE@XZ ENDP ; std::vector<std::basic_string<char,std::char_traits<char>,std::allocator<char> >,std::allocator<std::basic_string<char,std::char_traits<char>,std::allocator<char> > > >::vector<std::basic_string<char,std::char_traits<char>,std::allocator<char> >,std::allocator<std::basic_string<char,std::char_traits<char>,std::allocator<char> > > >
_TEXT	ENDS
PUBLIC	?_Tidy@?$vector@V?$basic_string@DU?$char_traits@D@std@@V?$allocator@D@2@@std@@V?$allocator@V?$basic_string@DU?$char_traits@D@std@@V?$allocator@D@2@@std@@@2@@std@@IAEXXZ ; std::vector<std::basic_string<char,std::char_traits<char>,std::allocator<char> >,std::allocator<std::basic_string<char,std::char_traits<char>,std::allocator<char> > > >::_Tidy
; Function compile flags: /Odt
;	COMDAT ??1?$vector@V?$basic_string@DU?$char_traits@D@std@@V?$allocator@D@2@@std@@V?$allocator@V?$basic_string@DU?$char_traits@D@std@@V?$allocator@D@2@@std@@@2@@std@@QAE@XZ
_TEXT	SEGMENT
_this$ = -4						; size = 4
??1?$vector@V?$basic_string@DU?$char_traits@D@std@@V?$allocator@D@2@@std@@V?$allocator@V?$basic_string@DU?$char_traits@D@std@@V?$allocator@D@2@@std@@@2@@std@@QAE@XZ PROC NEAR ; std::vector<std::basic_string<char,std::char_traits<char>,std::allocator<char> >,std::allocator<std::basic_string<char,std::char_traits<char>,std::allocator<char> > > >::~vector<std::basic_string<char,std::char_traits<char>,std::allocator<char> >,std::allocator<std::basic_string<char,std::char_traits<char>,std::allocator<char> > > >, COMDAT
; _this$ = ecx

; 387  : 		{	// destroy the object

  00000	55		 push	 ebp
  00001	8b ec		 mov	 ebp, esp
  00003	51		 push	 ecx
  00004	89 4d fc	 mov	 DWORD PTR _this$[ebp], ecx

; 388  : 		_Tidy();

  00007	8b 4d fc	 mov	 ecx, DWORD PTR _this$[ebp]
  0000a	e8 00 00 00 00	 call	 ?_Tidy@?$vector@V?$basic_string@DU?$char_traits@D@std@@V?$allocator@D@2@@std@@V?$allocator@V?$basic_string@DU?$char_traits@D@std@@V?$allocator@D@2@@std@@@2@@std@@IAEXXZ ; std::vector<std::basic_string<char,std::char_traits<char>,std::allocator<char> >,std::allocator<std::basic_string<char,std::char_traits<char>,std::allocator<char> > > >::_Tidy

; 389  : 		}

  0000f	8b e5		 mov	 esp, ebp
  00011	5d		 pop	 ebp
  00012	c3		 ret	 0
??1?$vector@V?$basic_string@DU?$char_traits@D@std@@V?$allocator@D@2@@std@@V?$allocator@V?$basic_string@DU?$char_traits@D@std@@V?$allocator@D@2@@std@@@2@@std@@QAE@XZ ENDP ; std::vector<std::basic_string<char,std::char_traits<char>,std::allocator<char> >,std::allocator<std::basic_string<char,std::char_traits<char>,std::allocator<char> > > >::~vector<std::basic_string<char,std::char_traits<char>,std::allocator<char> >,std::allocator<std::basic_string<char,std::char_traits<char>,std::allocator<char> > > >
_TEXT	ENDS
PUBLIC	?capacity@?$vector@V?$basic_string@DU?$char_traits@D@std@@V?$allocator@D@2@@std@@V?$allocator@V?$basic_string@DU?$char_traits@D@std@@V?$allocator@D@2@@std@@@2@@std@@QBEIXZ ; std::vector<std::basic_string<char,std::char_traits<char>,std::allocator<char> >,std::allocator<std::basic_string<char,std::char_traits<char>,std::allocator<char> > > >::capacity
PUBLIC	?end@?$vector@V?$basic_string@DU?$char_traits@D@std@@V?$allocator@D@2@@std@@V?$allocator@V?$basic_string@DU?$char_traits@D@std@@V?$allocator@D@2@@std@@@2@@std@@QAE?AViterator@12@XZ ; std::vector<std::basic_string<char,std::char_traits<char>,std::allocator<char> >,std::allocator<std::basic_string<char,std::char_traits<char>,std::allocator<char> > > >::end
PUBLIC	?size@?$vector@V?$basic_string@DU?$char_traits@D@std@@V?$allocator@D@2@@std@@V?$allocator@V?$basic_string@DU?$char_traits@D@std@@V?$allocator@D@2@@std@@@2@@std@@QBEIXZ ; std::vector<std::basic_string<char,std::char_traits<char>,std::allocator<char> >,std::allocator<std::basic_string<char,std::char_traits<char>,std::allocator<char> > > >::size
PUBLIC	?insert@?$vector@V?$basic_string@DU?$char_traits@D@std@@V?$allocator@D@2@@std@@V?$allocator@V?$basic_string@DU?$char_traits@D@std@@V?$allocator@D@2@@std@@@2@@std@@QAE?AViterator@12@V312@ABV?$basic_string@DU?$char_traits@D@std@@V?$allocator@D@2@@2@@Z ; std::vector<std::basic_string<char,std::char_traits<char>,std::allocator<char> >,std::allocator<std::basic_string<char,std::char_traits<char>,std::allocator<char> > > >::insert
PUBLIC	?_Ufill@?$vector@V?$basic_string@DU?$char_traits@D@std@@V?$allocator@D@2@@std@@V?$allocator@V?$basic_string@DU?$char_traits@D@std@@V?$allocator@D@2@@std@@@2@@std@@IAEPAV?$basic_string@DU?$char_traits@D@std@@V?$allocator@D@2@@2@PAV32@IABV32@@Z ; std::vector<std::basic_string<char,std::char_traits<char>,std::allocator<char> >,std::allocator<std::basic_string<char,std::char_traits<char>,std::allocator<char> > > >::_Ufill
; Function compile flags: /Odt
;	COMDAT ?push_back@?$vector@V?$basic_string@DU?$char_traits@D@std@@V?$allocator@D@2@@std@@V?$allocator@V?$basic_string@DU?$char_traits@D@std@@V?$allocator@D@2@@std@@@2@@std@@QAEXABV?$basic_string@DU?$char_traits@D@std@@V?$allocator@D@2@@2@@Z
_TEXT	SEGMENT
_this$ = -12						; size = 4
$T208164 = -8						; size = 4
$T208163 = -4						; size = 4
__Val$ = 8						; size = 4
?push_back@?$vector@V?$basic_string@DU?$char_traits@D@std@@V?$allocator@D@2@@std@@V?$allocator@V?$basic_string@DU?$char_traits@D@std@@V?$allocator@D@2@@std@@@2@@std@@QAEXABV?$basic_string@DU?$char_traits@D@std@@V?$allocator@D@2@@2@@Z PROC NEAR ; std::vector<std::basic_string<char,std::char_traits<char>,std::allocator<char> >,std::allocator<std::basic_string<char,std::char_traits<char>,std::allocator<char> > > >::push_back, COMDAT
; _this$ = ecx

; 579  : 		{	// insert element at end

  00000	55		 push	 ebp
  00001	8b ec		 mov	 ebp, esp
  00003	83 ec 0c	 sub	 esp, 12			; 0000000cH
  00006	56		 push	 esi
  00007	89 4d f4	 mov	 DWORD PTR _this$[ebp], ecx

; 580  : 		if (size() < capacity())

  0000a	8b 4d f4	 mov	 ecx, DWORD PTR _this$[ebp]
  0000d	e8 00 00 00 00	 call	 ?size@?$vector@V?$basic_string@DU?$char_traits@D@std@@V?$allocator@D@2@@std@@V?$allocator@V?$basic_string@DU?$char_traits@D@std@@V?$allocator@D@2@@std@@@2@@std@@QBEIXZ ; std::vector<std::basic_string<char,std::char_traits<char>,std::allocator<char> >,std::allocator<std::basic_string<char,std::char_traits<char>,std::allocator<char> > > >::size
  00012	8b f0		 mov	 esi, eax
  00014	8b 4d f4	 mov	 ecx, DWORD PTR _this$[ebp]
  00017	e8 00 00 00 00	 call	 ?capacity@?$vector@V?$basic_string@DU?$char_traits@D@std@@V?$allocator@D@2@@std@@V?$allocator@V?$basic_string@DU?$char_traits@D@std@@V?$allocator@D@2@@std@@@2@@std@@QBEIXZ ; std::vector<std::basic_string<char,std::char_traits<char>,std::allocator<char> >,std::allocator<std::basic_string<char,std::char_traits<char>,std::allocator<char> > > >::capacity
  0001c	3b f0		 cmp	 esi, eax
  0001e	73 1d		 jae	 SHORT $L205155

; 581  : 			_Mylast = _Ufill(_Mylast, 1, _Val);

  00020	8b 45 08	 mov	 eax, DWORD PTR __Val$[ebp]
  00023	50		 push	 eax
  00024	6a 01		 push	 1
  00026	8b 4d f4	 mov	 ecx, DWORD PTR _this$[ebp]
  00029	8b 51 08	 mov	 edx, DWORD PTR [ecx+8]
  0002c	52		 push	 edx
  0002d	8b 4d f4	 mov	 ecx, DWORD PTR _this$[ebp]
  00030	e8 00 00 00 00	 call	 ?_Ufill@?$vector@V?$basic_string@DU?$char_traits@D@std@@V?$allocator@D@2@@std@@V?$allocator@V?$basic_string@DU?$char_traits@D@std@@V?$allocator@D@2@@std@@@2@@std@@IAEPAV?$basic_string@DU?$char_traits@D@std@@V?$allocator@D@2@@2@PAV32@IABV32@@Z ; std::vector<std::basic_string<char,std::char_traits<char>,std::allocator<char> >,std::allocator<std::basic_string<char,std::char_traits<char>,std::allocator<char> > > >::_Ufill
  00035	8b 4d f4	 mov	 ecx, DWORD PTR _this$[ebp]
  00038	89 41 08	 mov	 DWORD PTR [ecx+8], eax

; 582  : 		else

  0003b	eb 1f		 jmp	 SHORT $L205154
$L205155:

; 583  : 			insert(end(), _Val);

  0003d	8b 55 08	 mov	 edx, DWORD PTR __Val$[ebp]
  00040	52		 push	 edx
  00041	8d 45 fc	 lea	 eax, DWORD PTR $T208163[ebp]
  00044	50		 push	 eax
  00045	8b 4d f4	 mov	 ecx, DWORD PTR _this$[ebp]
  00048	e8 00 00 00 00	 call	 ?end@?$vector@V?$basic_string@DU?$char_traits@D@std@@V?$allocator@D@2@@std@@V?$allocator@V?$basic_string@DU?$char_traits@D@std@@V?$allocator@D@2@@std@@@2@@std@@QAE?AViterator@12@XZ ; std::vector<std::basic_string<char,std::char_traits<char>,std::allocator<char> >,std::allocator<std::basic_string<char,std::char_traits<char>,std::allocator<char> > > >::end
  0004d	8b 08		 mov	 ecx, DWORD PTR [eax]
  0004f	51		 push	 ecx
  00050	8d 55 f8	 lea	 edx, DWORD PTR $T208164[ebp]
  00053	52		 push	 edx
  00054	8b 4d f4	 mov	 ecx, DWORD PTR _this$[ebp]
  00057	e8 00 00 00 00	 call	 ?insert@?$vector@V?$basic_string@DU?$char_traits@D@std@@V?$allocator@D@2@@std@@V?$allocator@V?$basic_string@DU?$char_traits@D@std@@V?$allocator@D@2@@std@@@2@@std@@QAE?AViterator@12@V312@ABV?$basic_string@DU?$char_traits@D@std@@V?$allocator@D@2@@2@@Z ; std::vector<std::basic_string<char,std::char_traits<char>,std::allocator<char> >,std::allocator<std::basic_string<char,std::char_traits<char>,std::allocator<char> > > >::insert
$L205154:

; 584  : 		}

  0005c	5e		 pop	 esi
  0005d	8b e5		 mov	 esp, ebp
  0005f	5d		 pop	 ebp
  00060	c2 04 00	 ret	 4
?push_back@?$vector@V?$basic_string@DU?$char_traits@D@std@@V?$allocator@D@2@@std@@V?$allocator@V?$basic_string@DU?$char_traits@D@std@@V?$allocator@D@2@@std@@@2@@std@@QAEXABV?$basic_string@DU?$char_traits@D@std@@V?$allocator@D@2@@2@@Z ENDP ; std::vector<std::basic_string<char,std::char_traits<char>,std::allocator<char> >,std::allocator<std::basic_string<char,std::char_traits<char>,std::allocator<char> > > >::push_back
; Function compile flags: /Odt
; File d:\program files (x86)\microsoft visual studio .net 2003\vc7\atlmfc\include\afx.inl
_TEXT	ENDS
;	COMDAT ?Serialize@CObject@@UAEXAAVCArchive@@@Z
_TEXT	SEGMENT
_this$ = -4						; size = 4
___formal$ = 8						; size = 4
?Serialize@CObject@@UAEXAAVCArchive@@@Z PROC NEAR	; CObject::Serialize, COMDAT
; _this$ = ecx

; 25   : 	{ /* CObject does not serialize anything by default */ }

  00000	55		 push	 ebp
  00001	8b ec		 mov	 ebp, esp
  00003	51		 push	 ecx
  00004	89 4d fc	 mov	 DWORD PTR _this$[ebp], ecx
  00007	8b e5		 mov	 esp, ebp
  00009	5d		 pop	 ebp
  0000a	c2 04 00	 ret	 4
?Serialize@CObject@@UAEXAAVCArchive@@@Z ENDP		; CObject::Serialize
; Function compile flags: /Odt
_TEXT	ENDS
;	COMDAT ??3CObject@@SGXPAX@Z
_TEXT	SEGMENT
_p$ = 8							; size = 4
??3CObject@@SGXPAX@Z PROC NEAR				; CObject::operator delete, COMDAT

; 31   : 	{ ::operator delete(p); }

  00000	55		 push	 ebp
  00001	8b ec		 mov	 ebp, esp
  00003	8b 45 08	 mov	 eax, DWORD PTR _p$[ebp]
  00006	50		 push	 eax
  00007	e8 00 00 00 00	 call	 ??3@YAXPAX@Z		; operator delete
  0000c	83 c4 04	 add	 esp, 4
  0000f	5d		 pop	 ebp
  00010	c2 04 00	 ret	 4
??3CObject@@SGXPAX@Z ENDP				; CObject::operator delete
_TEXT	ENDS
EXTRN	??2@YAPAXI@Z:NEAR				; operator new
; Function compile flags: /Odt
;	COMDAT ??2CObject@@SGPAXI@Z
_TEXT	SEGMENT
_nSize$ = 8						; size = 4
??2CObject@@SGPAXI@Z PROC NEAR				; CObject::operator new, COMDAT

; 37   : 	{ return ::operator new(nSize); }

  00000	55		 push	 ebp
  00001	8b ec		 mov	 ebp, esp
  00003	8b 45 08	 mov	 eax, DWORD PTR _nSize$[ebp]
  00006	50		 push	 eax
  00007	e8 00 00 00 00	 call	 ??2@YAPAXI@Z		; operator new
  0000c	83 c4 04	 add	 esp, 4
  0000f	5d		 pop	 ebp
  00010	c2 04 00	 ret	 4
??2CObject@@SGPAXI@Z ENDP				; CObject::operator new
; Function compile flags: /Odt
_TEXT	ENDS
;	COMDAT ?AssertValid@CObject@@UBEXXZ
_TEXT	SEGMENT
_this$ = -4						; size = 4
?AssertValid@CObject@@UBEXXZ PROC NEAR			; CObject::AssertValid, COMDAT
; _this$ = ecx

; 41   : 	{ /* no asserts in release builds */ }

  00000	55		 push	 ebp
  00001	8b ec		 mov	 ebp, esp
  00003	51		 push	 ecx
  00004	89 4d fc	 mov	 DWORD PTR _this$[ebp], ecx
  00007	8b e5		 mov	 esp, ebp
  00009	5d		 pop	 ebp
  0000a	c3		 ret	 0
?AssertValid@CObject@@UBEXXZ ENDP			; CObject::AssertValid
; Function compile flags: /Odt
_TEXT	ENDS
;	COMDAT ?Dump@CObject@@UBEXAAVCDumpContext@@@Z
_TEXT	SEGMENT
_this$ = -4						; size = 4
___formal$ = 8						; size = 4
?Dump@CObject@@UBEXAAVCDumpContext@@@Z PROC NEAR	; CObject::Dump, COMDAT
; _this$ = ecx

; 43   : 	{ /* no dumping in release builds */ }

  00000	55		 push	 ebp
  00001	8b ec		 mov	 ebp, esp
  00003	51		 push	 ecx
  00004	89 4d fc	 mov	 DWORD PTR _this$[ebp], ecx
  00007	8b e5		 mov	 esp, ebp
  00009	5d		 pop	 ebp
  0000a	c2 04 00	 ret	 4
?Dump@CObject@@UBEXAAVCDumpContext@@@Z ENDP		; CObject::Dump
; Function compile flags: /Odt
; File d:\program files (x86)\microsoft visual studio .net 2003\vc7\include\xmemory
_TEXT	ENDS
;	COMDAT ??0?$allocator@V?$basic_string@DU?$char_traits@D@std@@V?$allocator@D@2@@std@@@std@@QAE@XZ
_TEXT	SEGMENT
_this$ = -4						; size = 4
??0?$allocator@V?$basic_string@DU?$char_traits@D@std@@V?$allocator@D@2@@std@@@std@@QAE@XZ PROC NEAR ; std::allocator<std::basic_string<char,std::char_traits<char>,std::allocator<char> > >::allocator<std::basic_string<char,std::char_traits<char>,std::allocator<char> > >, COMDAT
; _this$ = ecx

; 111  : 	allocator()

  00000	55		 push	 ebp
  00001	8b ec		 mov	 ebp, esp
  00003	51		 push	 ecx
  00004	89 4d fc	 mov	 DWORD PTR _this$[ebp], ecx

; 112  : 		{	// construct default allocator (do nothing)
; 113  : 		}

  00007	8b 45 fc	 mov	 eax, DWORD PTR _this$[ebp]
  0000a	8b e5		 mov	 esp, ebp
  0000c	5d		 pop	 ebp
  0000d	c3		 ret	 0
??0?$allocator@V?$basic_string@DU?$char_traits@D@std@@V?$allocator@D@2@@std@@@std@@QAE@XZ ENDP ; std::allocator<std::basic_string<char,std::char_traits<char>,std::allocator<char> > >::allocator<std::basic_string<char,std::char_traits<char>,std::allocator<char> > >
_TEXT	ENDS
PUBLIC	?AtlThrowLastWin32@ATL@@YGXXZ			; ATL::AtlThrowLastWin32
EXTRN	__imp__malloc:NEAR
; Function compile flags: /Odt
; File d:\program files (x86)\microsoft visual studio .net 2003\vc7\atlmfc\include\atlconv.h
;	COMDAT ?Init@?$CA2WEX@$0IA@@ATL@@AAEXPBDI@Z
_TEXT	SEGMENT
_this$ = -12						; size = 4
_nLengthW$ = -8						; size = 4
_nLengthA$ = -4						; size = 4
_psz$ = 8						; size = 4
_nCodePage$ = 12					; size = 4
?Init@?$CA2WEX@$0IA@@ATL@@AAEXPBDI@Z PROC NEAR		; ATL::CA2WEX<128>::Init, COMDAT
; _this$ = ecx

; 379  : 	{

  00000	55		 push	 ebp
  00001	8b ec		 mov	 ebp, esp
  00003	83 ec 0c	 sub	 esp, 12			; 0000000cH
  00006	89 4d f4	 mov	 DWORD PTR _this$[ebp], ecx

; 380  : 		if (psz == NULL)

  00009	83 7d 08 00	 cmp	 DWORD PTR _psz$[ebp], 0
  0000d	75 0b		 jne	 SHORT $L205406

; 381  : 		{
; 382  : 			m_psz = NULL;

  0000f	8b 45 f4	 mov	 eax, DWORD PTR _this$[ebp]
  00012	c7 00 00 00 00
	00		 mov	 DWORD PTR [eax], 0

; 383  : 			return;

  00018	eb 6c		 jmp	 SHORT $L208178
$L205406:

; 384  : 		}
; 385  : 		int nLengthA = lstrlenA( psz )+1;

  0001a	8b 4d 08	 mov	 ecx, DWORD PTR _psz$[ebp]
  0001d	51		 push	 ecx
  0001e	ff 15 00 00 00
	00		 call	 DWORD PTR __imp__lstrlenA@4
  00024	83 c0 01	 add	 eax, 1
  00027	89 45 fc	 mov	 DWORD PTR _nLengthA$[ebp], eax

; 386  : 		int nLengthW = nLengthA;

  0002a	8b 55 fc	 mov	 edx, DWORD PTR _nLengthA$[ebp]
  0002d	89 55 f8	 mov	 DWORD PTR _nLengthW$[ebp], edx

; 387  : 
; 388  : 		if( nLengthW > t_nBufferLength )

  00030	81 7d f8 80 00
	00 00		 cmp	 DWORD PTR _nLengthW$[ebp], 128 ; 00000080H
  00037	7e 26		 jle	 SHORT $L205409

; 389  : 		{
; 390  : 			m_psz = static_cast< LPWSTR >( malloc( nLengthW*sizeof( wchar_t ) ) );

  00039	8b 45 f8	 mov	 eax, DWORD PTR _nLengthW$[ebp]
  0003c	d1 e0		 shl	 eax, 1
  0003e	50		 push	 eax
  0003f	ff 15 00 00 00
	00		 call	 DWORD PTR __imp__malloc
  00045	83 c4 04	 add	 esp, 4
  00048	8b 4d f4	 mov	 ecx, DWORD PTR _this$[ebp]
  0004b	89 01		 mov	 DWORD PTR [ecx], eax

; 391  : 			if (m_psz == NULL)

  0004d	8b 55 f4	 mov	 edx, DWORD PTR _this$[ebp]
  00050	83 3a 00	 cmp	 DWORD PTR [edx], 0
  00053	75 0a		 jne	 SHORT $L205409

; 392  : 			{
; 393  : 				AtlThrow( E_OUTOFMEMORY );

  00055	68 0e 00 07 80	 push	 -2147024882		; 8007000eH
  0005a	e8 00 00 00 00	 call	 ?AtlThrow@ATL@@YGXJ@Z	; ATL::AtlThrow
$L205409:

; 394  : 			}
; 395  : 		}
; 396  : 
; 397  : 		if (::MultiByteToWideChar( nCodePage, 0, psz, nLengthA, m_psz, nLengthW ) == 0)

  0005f	8b 45 f8	 mov	 eax, DWORD PTR _nLengthW$[ebp]
  00062	50		 push	 eax
  00063	8b 4d f4	 mov	 ecx, DWORD PTR _this$[ebp]
  00066	8b 11		 mov	 edx, DWORD PTR [ecx]
  00068	52		 push	 edx
  00069	8b 45 fc	 mov	 eax, DWORD PTR _nLengthA$[ebp]
  0006c	50		 push	 eax
  0006d	8b 4d 08	 mov	 ecx, DWORD PTR _psz$[ebp]
  00070	51		 push	 ecx
  00071	6a 00		 push	 0
  00073	8b 55 0c	 mov	 edx, DWORD PTR _nCodePage$[ebp]
  00076	52		 push	 edx
  00077	ff 15 00 00 00
	00		 call	 DWORD PTR __imp__MultiByteToWideChar@24
  0007d	85 c0		 test	 eax, eax
  0007f	75 05		 jne	 SHORT $L208178

; 398  : 		{
; 399  : 			AtlThrowLastWin32();

  00081	e8 00 00 00 00	 call	 ?AtlThrowLastWin32@ATL@@YGXXZ ; ATL::AtlThrowLastWin32
$L208178:

; 400  : 		}
; 401  : 	}

  00086	8b e5		 mov	 esp, ebp
  00088	5d		 pop	 ebp
  00089	c2 08 00	 ret	 8
?Init@?$CA2WEX@$0IA@@ATL@@AAEXPBDI@Z ENDP		; ATL::CA2WEX<128>::Init
_TEXT	ENDS
EXTRN	__imp__GetLastError@0:NEAR
; Function compile flags: /Odt
; File d:\program files (x86)\microsoft visual studio .net 2003\vc7\atlmfc\include\atlexcept.h
;	COMDAT ?AtlThrowLastWin32@ATL@@YGXXZ
_TEXT	SEGMENT
tv69 = -8						; size = 4
_dwError$ = -4						; size = 4
?AtlThrowLastWin32@ATL@@YGXXZ PROC NEAR			; ATL::AtlThrowLastWin32, COMDAT

; 80   : {

  00000	55		 push	 ebp
  00001	8b ec		 mov	 ebp, esp
  00003	83 ec 08	 sub	 esp, 8

; 81   : 	DWORD dwError = ::GetLastError();

  00006	ff 15 00 00 00
	00		 call	 DWORD PTR __imp__GetLastError@0
  0000c	89 45 fc	 mov	 DWORD PTR _dwError$[ebp], eax

; 82   : 	AtlThrow( HRESULT_FROM_WIN32( dwError ) );

  0000f	83 7d fc 00	 cmp	 DWORD PTR _dwError$[ebp], 0
  00013	7f 08		 jg	 SHORT $L208181
  00015	8b 45 fc	 mov	 eax, DWORD PTR _dwError$[ebp]
  00018	89 45 f8	 mov	 DWORD PTR tv69[ebp], eax
  0001b	eb 18		 jmp	 SHORT $L208182
$L208181:
  0001d	8b 4d fc	 mov	 ecx, DWORD PTR _dwError$[ebp]
  00020	81 e1 ff ff 00
	00		 and	 ecx, 65535		; 0000ffffH
  00026	81 c9 00 00 07
	00		 or	 ecx, 458752		; 00070000H
  0002c	81 c9 00 00 00
	80		 or	 ecx, -2147483648	; 80000000H
  00032	89 4d f8	 mov	 DWORD PTR tv69[ebp], ecx
$L208182:
  00035	8b 55 f8	 mov	 edx, DWORD PTR tv69[ebp]
  00038	52		 push	 edx
  00039	e8 00 00 00 00	 call	 ?AtlThrow@ATL@@YGXJ@Z	; ATL::AtlThrow
$L208180:

; 83   : }

  0003e	8b e5		 mov	 esp, ebp
  00040	5d		 pop	 ebp
  00041	c3		 ret	 0
?AtlThrowLastWin32@ATL@@YGXXZ ENDP			; ATL::AtlThrowLastWin32
; Function compile flags: /Odt
; File d:\program files (x86)\microsoft visual studio .net 2003\vc7\include\vector
_TEXT	ENDS
;	COMDAT ?capacity@?$vector@V?$basic_string@DU?$char_traits@D@std@@V?$allocator@D@2@@std@@V?$allocator@V?$basic_string@DU?$char_traits@D@std@@V?$allocator@D@2@@std@@@2@@std@@QBEIXZ
_TEXT	SEGMENT
tv70 = -8						; size = 4
_this$ = -4						; size = 4
?capacity@?$vector@V?$basic_string@DU?$char_traits@D@std@@V?$allocator@D@2@@std@@V?$allocator@V?$basic_string@DU?$char_traits@D@std@@V?$allocator@D@2@@std@@@2@@std@@QBEIXZ PROC NEAR ; std::vector<std::basic_string<char,std::char_traits<char>,std::allocator<char> >,std::allocator<std::basic_string<char,std::char_traits<char>,std::allocator<char> > > >::capacity, COMDAT
; _this$ = ecx

; 457  : 		{	// return current length of allocated storage

  00000	55		 push	 ebp
  00001	8b ec		 mov	 ebp, esp
  00003	83 ec 08	 sub	 esp, 8
  00006	89 4d fc	 mov	 DWORD PTR _this$[ebp], ecx

; 458  : 		return (_Myfirst == 0 ? 0 : _Myend - _Myfirst);

  00009	8b 45 fc	 mov	 eax, DWORD PTR _this$[ebp]
  0000c	83 78 04 00	 cmp	 DWORD PTR [eax+4], 0
  00010	75 09		 jne	 SHORT $L208185
  00012	c7 45 f8 00 00
	00 00		 mov	 DWORD PTR tv70[ebp], 0
  00019	eb 17		 jmp	 SHORT $L208186
$L208185:
  0001b	8b 4d fc	 mov	 ecx, DWORD PTR _this$[ebp]
  0001e	8b 55 fc	 mov	 edx, DWORD PTR _this$[ebp]
  00021	8b 41 0c	 mov	 eax, DWORD PTR [ecx+12]
  00024	2b 42 04	 sub	 eax, DWORD PTR [edx+4]
  00027	99		 cdq
  00028	b9 1c 00 00 00	 mov	 ecx, 28			; 0000001cH
  0002d	f7 f9		 idiv	 ecx
  0002f	89 45 f8	 mov	 DWORD PTR tv70[ebp], eax
$L208186:
  00032	8b 45 f8	 mov	 eax, DWORD PTR tv70[ebp]

; 459  : 		}

  00035	8b e5		 mov	 esp, ebp
  00037	5d		 pop	 ebp
  00038	c3		 ret	 0
?capacity@?$vector@V?$basic_string@DU?$char_traits@D@std@@V?$allocator@D@2@@std@@V?$allocator@V?$basic_string@DU?$char_traits@D@std@@V?$allocator@D@2@@std@@@2@@std@@QBEIXZ ENDP ; std::vector<std::basic_string<char,std::char_traits<char>,std::allocator<char> >,std::allocator<std::basic_string<char,std::char_traits<char>,std::allocator<char> > > >::capacity
_TEXT	ENDS
PUBLIC	??0iterator@?$vector@V?$basic_string@DU?$char_traits@D@std@@V?$allocator@D@2@@std@@V?$allocator@V?$basic_string@DU?$char_traits@D@std@@V?$allocator@D@2@@std@@@2@@std@@QAE@PAV?$basic_string@DU?$char_traits@D@std@@V?$allocator@D@2@@2@@Z ; std::vector<std::basic_string<char,std::char_traits<char>,std::allocator<char> >,std::allocator<std::basic_string<char,std::char_traits<char>,std::allocator<char> > > >::iterator::iterator
; Function compile flags: /Odt
;	COMDAT ?end@?$vector@V?$basic_string@DU?$char_traits@D@std@@V?$allocator@D@2@@std@@V?$allocator@V?$basic_string@DU?$char_traits@D@std@@V?$allocator@D@2@@std@@@2@@std@@QAE?AViterator@12@XZ
_TEXT	SEGMENT
_this$ = -4						; size = 4
___$ReturnUdt$ = 8					; size = 4
?end@?$vector@V?$basic_string@DU?$char_traits@D@std@@V?$allocator@D@2@@std@@V?$allocator@V?$basic_string@DU?$char_traits@D@std@@V?$allocator@D@2@@std@@@2@@std@@QAE?AViterator@12@XZ PROC NEAR ; std::vector<std::basic_string<char,std::char_traits<char>,std::allocator<char> >,std::allocator<std::basic_string<char,std::char_traits<char>,std::allocator<char> > > >::end, COMDAT
; _this$ = ecx

; 472  : 		{	// return iterator for end of mutable sequence

  00000	55		 push	 ebp
  00001	8b ec		 mov	 ebp, esp
  00003	51		 push	 ecx
  00004	89 4d fc	 mov	 DWORD PTR _this$[ebp], ecx

; 473  : 		return (iterator(_Mylast));

  00007	8b 45 fc	 mov	 eax, DWORD PTR _this$[ebp]
  0000a	8b 48 08	 mov	 ecx, DWORD PTR [eax+8]
  0000d	51		 push	 ecx
  0000e	8b 4d 08	 mov	 ecx, DWORD PTR ___$ReturnUdt$[ebp]
  00011	e8 00 00 00 00	 call	 ??0iterator@?$vector@V?$basic_string@DU?$char_traits@D@std@@V?$allocator@D@2@@std@@V?$allocator@V?$basic_string@DU?$char_traits@D@std@@V?$allocator@D@2@@std@@@2@@std@@QAE@PAV?$basic_string@DU?$char_traits@D@std@@V?$allocator@D@2@@2@@Z ; std::vector<std::basic_string<char,std::char_traits<char>,std::allocator<char> >,std::allocator<std::basic_string<char,std::char_traits<char>,std::allocator<char> > > >::iterator::iterator
  00016	8b 45 08	 mov	 eax, DWORD PTR ___$ReturnUdt$[ebp]

; 474  : 		}

  00019	8b e5		 mov	 esp, ebp
  0001b	5d		 pop	 ebp
  0001c	c2 04 00	 ret	 4
?end@?$vector@V?$basic_string@DU?$char_traits@D@std@@V?$allocator@D@2@@std@@V?$allocator@V?$basic_string@DU?$char_traits@D@std@@V?$allocator@D@2@@std@@@2@@std@@QAE?AViterator@12@XZ ENDP ; std::vector<std::basic_string<char,std::char_traits<char>,std::allocator<char> >,std::allocator<std::basic_string<char,std::char_traits<char>,std::allocator<char> > > >::end
; Function compile flags: /Odt
_TEXT	ENDS
;	COMDAT ?size@?$vector@V?$basic_string@DU?$char_traits@D@std@@V?$allocator@D@2@@std@@V?$allocator@V?$basic_string@DU?$char_traits@D@std@@V?$allocator@D@2@@std@@@2@@std@@QBEIXZ
_TEXT	SEGMENT
tv70 = -8						; size = 4
_this$ = -4						; size = 4
?size@?$vector@V?$basic_string@DU?$char_traits@D@std@@V?$allocator@D@2@@std@@V?$allocator@V?$basic_string@DU?$char_traits@D@std@@V?$allocator@D@2@@std@@@2@@std@@QBEIXZ PROC NEAR ; std::vector<std::basic_string<char,std::char_traits<char>,std::allocator<char> >,std::allocator<std::basic_string<char,std::char_traits<char>,std::allocator<char> > > >::size, COMDAT
; _this$ = ecx

; 515  : 		{	// return length of sequence

  00000	55		 push	 ebp
  00001	8b ec		 mov	 ebp, esp
  00003	83 ec 08	 sub	 esp, 8
  00006	89 4d fc	 mov	 DWORD PTR _this$[ebp], ecx

; 516  : 		return (_Myfirst == 0 ? 0 : _Mylast - _Myfirst);

  00009	8b 45 fc	 mov	 eax, DWORD PTR _this$[ebp]
  0000c	83 78 04 00	 cmp	 DWORD PTR [eax+4], 0
  00010	75 09		 jne	 SHORT $L208191
  00012	c7 45 f8 00 00
	00 00		 mov	 DWORD PTR tv70[ebp], 0
  00019	eb 17		 jmp	 SHORT $L208192
$L208191:
  0001b	8b 4d fc	 mov	 ecx, DWORD PTR _this$[ebp]
  0001e	8b 55 fc	 mov	 edx, DWORD PTR _this$[ebp]
  00021	8b 41 08	 mov	 eax, DWORD PTR [ecx+8]
  00024	2b 42 04	 sub	 eax, DWORD PTR [edx+4]
  00027	99		 cdq
  00028	b9 1c 00 00 00	 mov	 ecx, 28			; 0000001cH
  0002d	f7 f9		 idiv	 ecx
  0002f	89 45 f8	 mov	 DWORD PTR tv70[ebp], eax
$L208192:
  00032	8b 45 f8	 mov	 eax, DWORD PTR tv70[ebp]

; 517  : 		}

  00035	8b e5		 mov	 esp, ebp
  00037	5d		 pop	 ebp
  00038	c3		 ret	 0
?size@?$vector@V?$basic_string@DU?$char_traits@D@std@@V?$allocator@D@2@@std@@V?$allocator@V?$basic_string@DU?$char_traits@D@std@@V?$allocator@D@2@@std@@@2@@std@@QBEIXZ ENDP ; std::vector<std::basic_string<char,std::char_traits<char>,std::allocator<char> >,std::allocator<std::basic_string<char,std::char_traits<char>,std::allocator<char> > > >::size
_TEXT	ENDS
PUBLIC	?begin@?$vector@V?$basic_string@DU?$char_traits@D@std@@V?$allocator@D@2@@std@@V?$allocator@V?$basic_string@DU?$char_traits@D@std@@V?$allocator@D@2@@std@@@2@@std@@QAE?AViterator@12@XZ ; std::vector<std::basic_string<char,std::char_traits<char>,std::allocator<char> >,std::allocator<std::basic_string<char,std::char_traits<char>,std::allocator<char> > > >::begin
PUBLIC	??Hiterator@?$vector@V?$basic_string@DU?$char_traits@D@std@@V?$allocator@D@2@@std@@V?$allocator@V?$basic_string@DU?$char_traits@D@std@@V?$allocator@D@2@@std@@@2@@std@@QBE?AV012@H@Z ; std::vector<std::basic_string<char,std::char_traits<char>,std::allocator<char> >,std::allocator<std::basic_string<char,std::char_traits<char>,std::allocator<char> > > >::iterator::operator+
PUBLIC	?_Insert_n@?$vector@V?$basic_string@DU?$char_traits@D@std@@V?$allocator@D@2@@std@@V?$allocator@V?$basic_string@DU?$char_traits@D@std@@V?$allocator@D@2@@std@@@2@@std@@IAEXViterator@12@IABV?$basic_string@DU?$char_traits@D@std@@V?$allocator@D@2@@2@@Z ; std::vector<std::basic_string<char,std::char_traits<char>,std::allocator<char> >,std::allocator<std::basic_string<char,std::char_traits<char>,std::allocator<char> > > >::_Insert_n
PUBLIC	??Giterator@?$vector@V?$basic_string@DU?$char_traits@D@std@@V?$allocator@D@2@@std@@V?$allocator@V?$basic_string@DU?$char_traits@D@std@@V?$allocator@D@2@@std@@@2@@std@@QBEHABVconst_iterator@12@@Z ; std::vector<std::basic_string<char,std::char_traits<char>,std::allocator<char> >,std::allocator<std::basic_string<char,std::char_traits<char>,std::allocator<char> > > >::iterator::operator-
; Function compile flags: /Odt
;	COMDAT ?insert@?$vector@V?$basic_string@DU?$char_traits@D@std@@V?$allocator@D@2@@std@@V?$allocator@V?$basic_string@DU?$char_traits@D@std@@V?$allocator@D@2@@std@@@2@@std@@QAE?AViterator@12@V312@ABV?$basic_string@DU?$char_traits@D@std@@V?$allocator@D@2@@2@@Z
_TEXT	SEGMENT
tv73 = -20						; size = 4
_this$ = -16						; size = 4
$T208198 = -12						; size = 4
$T208195 = -8						; size = 4
__Off$ = -4						; size = 4
___$ReturnUdt$ = 8					; size = 4
__Where$ = 12						; size = 4
__Val$ = 16						; size = 4
?insert@?$vector@V?$basic_string@DU?$char_traits@D@std@@V?$allocator@D@2@@std@@V?$allocator@V?$basic_string@DU?$char_traits@D@std@@V?$allocator@D@2@@std@@@2@@std@@QAE?AViterator@12@V312@ABV?$basic_string@DU?$char_traits@D@std@@V?$allocator@D@2@@2@@Z PROC NEAR ; std::vector<std::basic_string<char,std::char_traits<char>,std::allocator<char> >,std::allocator<std::basic_string<char,std::char_traits<char>,std::allocator<char> > > >::insert, COMDAT
; _this$ = ecx

; 620  : 		{	// insert _Val at _Where

  00000	55		 push	 ebp
  00001	8b ec		 mov	 ebp, esp
  00003	83 ec 14	 sub	 esp, 20			; 00000014H
  00006	89 4d f0	 mov	 DWORD PTR _this$[ebp], ecx

; 621  : 		size_type _Off = size() == 0 ? 0 : _Where - begin();

  00009	8b 4d f0	 mov	 ecx, DWORD PTR _this$[ebp]
  0000c	e8 00 00 00 00	 call	 ?size@?$vector@V?$basic_string@DU?$char_traits@D@std@@V?$allocator@D@2@@std@@V?$allocator@V?$basic_string@DU?$char_traits@D@std@@V?$allocator@D@2@@std@@@2@@std@@QBEIXZ ; std::vector<std::basic_string<char,std::char_traits<char>,std::allocator<char> >,std::allocator<std::basic_string<char,std::char_traits<char>,std::allocator<char> > > >::size
  00011	85 c0		 test	 eax, eax
  00013	75 09		 jne	 SHORT $L208196
  00015	c7 45 ec 00 00
	00 00		 mov	 DWORD PTR tv73[ebp], 0
  0001c	eb 18		 jmp	 SHORT $L208197
$L208196:
  0001e	8d 45 f8	 lea	 eax, DWORD PTR $T208195[ebp]
  00021	50		 push	 eax
  00022	8b 4d f0	 mov	 ecx, DWORD PTR _this$[ebp]
  00025	e8 00 00 00 00	 call	 ?begin@?$vector@V?$basic_string@DU?$char_traits@D@std@@V?$allocator@D@2@@std@@V?$allocator@V?$basic_string@DU?$char_traits@D@std@@V?$allocator@D@2@@std@@@2@@std@@QAE?AViterator@12@XZ ; std::vector<std::basic_string<char,std::char_traits<char>,std::allocator<char> >,std::allocator<std::basic_string<char,std::char_traits<char>,std::allocator<char> > > >::begin
  0002a	50		 push	 eax
  0002b	8d 4d 0c	 lea	 ecx, DWORD PTR __Where$[ebp]
  0002e	e8 00 00 00 00	 call	 ??Giterator@?$vector@V?$basic_string@DU?$char_traits@D@std@@V?$allocator@D@2@@std@@V?$allocator@V?$basic_string@DU?$char_traits@D@std@@V?$allocator@D@2@@std@@@2@@std@@QBEHABVconst_iterator@12@@Z ; std::vector<std::basic_string<char,std::char_traits<char>,std::allocator<char> >,std::allocator<std::basic_string<char,std::char_traits<char>,std::allocator<char> > > >::iterator::operator-
  00033	89 45 ec	 mov	 DWORD PTR tv73[ebp], eax
$L208197:
  00036	8b 4d ec	 mov	 ecx, DWORD PTR tv73[ebp]
  00039	89 4d fc	 mov	 DWORD PTR __Off$[ebp], ecx

; 622  : 		_Insert_n(_Where, (size_type)1, _Val);

  0003c	8b 55 10	 mov	 edx, DWORD PTR __Val$[ebp]
  0003f	52		 push	 edx
  00040	6a 01		 push	 1
  00042	8b 45 0c	 mov	 eax, DWORD PTR __Where$[ebp]
  00045	50		 push	 eax
  00046	8b 4d f0	 mov	 ecx, DWORD PTR _this$[ebp]
  00049	e8 00 00 00 00	 call	 ?_Insert_n@?$vector@V?$basic_string@DU?$char_traits@D@std@@V?$allocator@D@2@@std@@V?$allocator@V?$basic_string@DU?$char_traits@D@std@@V?$allocator@D@2@@std@@@2@@std@@IAEXViterator@12@IABV?$basic_string@DU?$char_traits@D@std@@V?$allocator@D@2@@2@@Z ; std::vector<std::basic_string<char,std::char_traits<char>,std::allocator<char> >,std::allocator<std::basic_string<char,std::char_traits<char>,std::allocator<char> > > >::_Insert_n

; 623  : 		return (begin() + _Off);

  0004e	8b 4d fc	 mov	 ecx, DWORD PTR __Off$[ebp]
  00051	51		 push	 ecx
  00052	8b 55 08	 mov	 edx, DWORD PTR ___$ReturnUdt$[ebp]
  00055	52		 push	 edx
  00056	8d 45 f4	 lea	 eax, DWORD PTR $T208198[ebp]
  00059	50		 push	 eax
  0005a	8b 4d f0	 mov	 ecx, DWORD PTR _this$[ebp]
  0005d	e8 00 00 00 00	 call	 ?begin@?$vector@V?$basic_string@DU?$char_traits@D@std@@V?$allocator@D@2@@std@@V?$allocator@V?$basic_string@DU?$char_traits@D@std@@V?$allocator@D@2@@std@@@2@@std@@QAE?AViterator@12@XZ ; std::vector<std::basic_string<char,std::char_traits<char>,std::allocator<char> >,std::allocator<std::basic_string<char,std::char_traits<char>,std::allocator<char> > > >::begin
  00062	8b c8		 mov	 ecx, eax
  00064	e8 00 00 00 00	 call	 ??Hiterator@?$vector@V?$basic_string@DU?$char_traits@D@std@@V?$allocator@D@2@@std@@V?$allocator@V?$basic_string@DU?$char_traits@D@std@@V?$allocator@D@2@@std@@@2@@std@@QBE?AV012@H@Z ; std::vector<std::basic_string<char,std::char_traits<char>,std::allocator<char> >,std::allocator<std::basic_string<char,std::char_traits<char>,std::allocator<char> > > >::iterator::operator+
  00069	8b 45 08	 mov	 eax, DWORD PTR ___$ReturnUdt$[ebp]

; 624  : 		}

  0006c	8b e5		 mov	 esp, ebp
  0006e	5d		 pop	 ebp
  0006f	c2 0c 00	 ret	 12			; 0000000cH
?insert@?$vector@V?$basic_string@DU?$char_traits@D@std@@V?$allocator@D@2@@std@@V?$allocator@V?$basic_string@DU?$char_traits@D@std@@V?$allocator@D@2@@std@@@2@@std@@QAE?AViterator@12@V312@ABV?$basic_string@DU?$char_traits@D@std@@V?$allocator@D@2@@2@@Z ENDP ; std::vector<std::basic_string<char,std::char_traits<char>,std::allocator<char> >,std::allocator<std::basic_string<char,std::char_traits<char>,std::allocator<char> > > >::insert
_TEXT	ENDS
PUBLIC	?allocate@?$allocator@V?$basic_string@DU?$char_traits@D@std@@V?$allocator@D@2@@std@@@std@@QAEPAV?$basic_string@DU?$char_traits@D@std@@V?$allocator@D@2@@2@I@Z ; std::allocator<std::basic_string<char,std::char_traits<char>,std::allocator<char> > >::allocate
PUBLIC	?max_size@?$vector@V?$basic_string@DU?$char_traits@D@std@@V?$allocator@D@2@@std@@V?$allocator@V?$basic_string@DU?$char_traits@D@std@@V?$allocator@D@2@@std@@@2@@std@@QBEIXZ ; std::vector<std::basic_string<char,std::char_traits<char>,std::allocator<char> >,std::allocator<std::basic_string<char,std::char_traits<char>,std::allocator<char> > > >::max_size
PUBLIC	?_Xlen@?$vector@V?$basic_string@DU?$char_traits@D@std@@V?$allocator@D@2@@std@@V?$allocator@V?$basic_string@DU?$char_traits@D@std@@V?$allocator@D@2@@std@@@2@@std@@IBEXXZ ; std::vector<std::basic_string<char,std::char_traits<char>,std::allocator<char> >,std::allocator<std::basic_string<char,std::char_traits<char>,std::allocator<char> > > >::_Xlen
; Function compile flags: /Odt
;	COMDAT ?_Buy@?$vector@V?$basic_string@DU?$char_traits@D@std@@V?$allocator@D@2@@std@@V?$allocator@V?$basic_string@DU?$char_traits@D@std@@V?$allocator@D@2@@std@@@2@@std@@IAE_NI@Z
_TEXT	SEGMENT
_this$ = -4						; size = 4
__Capacity$ = 8						; size = 4
?_Buy@?$vector@V?$basic_string@DU?$char_traits@D@std@@V?$allocator@D@2@@std@@V?$allocator@V?$basic_string@DU?$char_traits@D@std@@V?$allocator@D@2@@std@@@2@@std@@IAE_NI@Z PROC NEAR ; std::vector<std::basic_string<char,std::char_traits<char>,std::allocator<char> >,std::allocator<std::basic_string<char,std::char_traits<char>,std::allocator<char> > > >::_Buy, COMDAT
; _this$ = ecx

; 770  : 		{	// allocate array with _Capacity elements

  00000	55		 push	 ebp
  00001	8b ec		 mov	 ebp, esp
  00003	51		 push	 ecx
  00004	89 4d fc	 mov	 DWORD PTR _this$[ebp], ecx

; 771  : 		_Myfirst = 0, _Mylast = 0, _Myend = 0;

  00007	8b 45 fc	 mov	 eax, DWORD PTR _this$[ebp]
  0000a	c7 40 04 00 00
	00 00		 mov	 DWORD PTR [eax+4], 0
  00011	8b 4d fc	 mov	 ecx, DWORD PTR _this$[ebp]
  00014	c7 41 08 00 00
	00 00		 mov	 DWORD PTR [ecx+8], 0
  0001b	8b 55 fc	 mov	 edx, DWORD PTR _this$[ebp]
  0001e	c7 42 0c 00 00
	00 00		 mov	 DWORD PTR [edx+12], 0

; 772  : 		if (_Capacity == 0)

  00025	83 7d 08 00	 cmp	 DWORD PTR __Capacity$[ebp], 0
  00029	75 04		 jne	 SHORT $L205433

; 773  : 			return (false);

  0002b	32 c0		 xor	 al, al
  0002d	eb 49		 jmp	 SHORT $L205432
$L205433:

; 774  : 		else if (max_size() < _Capacity)

  0002f	8b 4d fc	 mov	 ecx, DWORD PTR _this$[ebp]
  00032	e8 00 00 00 00	 call	 ?max_size@?$vector@V?$basic_string@DU?$char_traits@D@std@@V?$allocator@D@2@@std@@V?$allocator@V?$basic_string@DU?$char_traits@D@std@@V?$allocator@D@2@@std@@@2@@std@@QBEIXZ ; std::vector<std::basic_string<char,std::char_traits<char>,std::allocator<char> >,std::allocator<std::basic_string<char,std::char_traits<char>,std::allocator<char> > > >::max_size
  00037	3b 45 08	 cmp	 eax, DWORD PTR __Capacity$[ebp]
  0003a	73 0a		 jae	 SHORT $L205435

; 775  : 			_Xlen();	// result too long

  0003c	8b 4d fc	 mov	 ecx, DWORD PTR _this$[ebp]
  0003f	e8 00 00 00 00	 call	 ?_Xlen@?$vector@V?$basic_string@DU?$char_traits@D@std@@V?$allocator@D@2@@std@@V?$allocator@V?$basic_string@DU?$char_traits@D@std@@V?$allocator@D@2@@std@@@2@@std@@IBEXXZ ; std::vector<std::basic_string<char,std::char_traits<char>,std::allocator<char> >,std::allocator<std::basic_string<char,std::char_traits<char>,std::allocator<char> > > >::_Xlen

; 776  : 		else

  00044	eb 30		 jmp	 SHORT $L205434
$L205435:

; 777  : 			{	// nonempty array, allocate storage
; 778  : 			_Myfirst = this->_Alval.allocate(_Capacity);

  00046	8b 45 08	 mov	 eax, DWORD PTR __Capacity$[ebp]
  00049	50		 push	 eax
  0004a	8b 4d fc	 mov	 ecx, DWORD PTR _this$[ebp]
  0004d	e8 00 00 00 00	 call	 ?allocate@?$allocator@V?$basic_string@DU?$char_traits@D@std@@V?$allocator@D@2@@std@@@std@@QAEPAV?$basic_string@DU?$char_traits@D@std@@V?$allocator@D@2@@2@I@Z ; std::allocator<std::basic_string<char,std::char_traits<char>,std::allocator<char> > >::allocate
  00052	8b 4d fc	 mov	 ecx, DWORD PTR _this$[ebp]
  00055	89 41 04	 mov	 DWORD PTR [ecx+4], eax

; 779  : 			_Mylast = _Myfirst;

  00058	8b 55 fc	 mov	 edx, DWORD PTR _this$[ebp]
  0005b	8b 45 fc	 mov	 eax, DWORD PTR _this$[ebp]
  0005e	8b 48 04	 mov	 ecx, DWORD PTR [eax+4]
  00061	89 4a 08	 mov	 DWORD PTR [edx+8], ecx

; 780  : 			_Myend = _Myfirst + _Capacity;

  00064	8b 55 08	 mov	 edx, DWORD PTR __Capacity$[ebp]
  00067	6b d2 1c	 imul	 edx, 28			; 0000001cH
  0006a	8b 45 fc	 mov	 eax, DWORD PTR _this$[ebp]
  0006d	03 50 04	 add	 edx, DWORD PTR [eax+4]
  00070	8b 4d fc	 mov	 ecx, DWORD PTR _this$[ebp]
  00073	89 51 0c	 mov	 DWORD PTR [ecx+12], edx
$L205434:

; 781  : 			}
; 782  : 		return (true);

  00076	b0 01		 mov	 al, 1
$L205432:

; 783  : 		}

  00078	8b e5		 mov	 esp, ebp
  0007a	5d		 pop	 ebp
  0007b	c2 04 00	 ret	 4
?_Buy@?$vector@V?$basic_string@DU?$char_traits@D@std@@V?$allocator@D@2@@std@@V?$allocator@V?$basic_string@DU?$char_traits@D@std@@V?$allocator@D@2@@std@@@2@@std@@IAE_NI@Z ENDP ; std::vector<std::basic_string<char,std::char_traits<char>,std::allocator<char> >,std::allocator<std::basic_string<char,std::char_traits<char>,std::allocator<char> > > >::_Buy
_TEXT	ENDS
PUBLIC	?deallocate@?$allocator@V?$basic_string@DU?$char_traits@D@std@@V?$allocator@D@2@@std@@@std@@QAEXPAV?$basic_string@DU?$char_traits@D@std@@V?$allocator@D@2@@2@I@Z ; std::allocator<std::basic_string<char,std::char_traits<char>,std::allocator<char> > >::deallocate
PUBLIC	?_Destroy@?$vector@V?$basic_string@DU?$char_traits@D@std@@V?$allocator@D@2@@std@@V?$allocator@V?$basic_string@DU?$char_traits@D@std@@V?$allocator@D@2@@std@@@2@@std@@IAEXPAV?$basic_string@DU?$char_traits@D@std@@V?$allocator@D@2@@2@0@Z ; std::vector<std::basic_string<char,std::char_traits<char>,std::allocator<char> >,std::allocator<std::basic_string<char,std::char_traits<char>,std::allocator<char> > > >::_Destroy
; Function compile flags: /Odt
;	COMDAT ?_Tidy@?$vector@V?$basic_string@DU?$char_traits@D@std@@V?$allocator@D@2@@std@@V?$allocator@V?$basic_string@DU?$char_traits@D@std@@V?$allocator@D@2@@std@@@2@@std@@IAEXXZ
_TEXT	SEGMENT
_this$ = -4						; size = 4
?_Tidy@?$vector@V?$basic_string@DU?$char_traits@D@std@@V?$allocator@D@2@@std@@V?$allocator@V?$basic_string@DU?$char_traits@D@std@@V?$allocator@D@2@@std@@@2@@std@@IAEXXZ PROC NEAR ; std::vector<std::basic_string<char,std::char_traits<char>,std::allocator<char> >,std::allocator<std::basic_string<char,std::char_traits<char>,std::allocator<char> > > >::_Tidy, COMDAT
; _this$ = ecx

; 791  : 		{	// free all storage

  00000	55		 push	 ebp
  00001	8b ec		 mov	 ebp, esp
  00003	51		 push	 ecx
  00004	89 4d fc	 mov	 DWORD PTR _this$[ebp], ecx

; 792  : 		if (_Myfirst != 0)

  00007	8b 45 fc	 mov	 eax, DWORD PTR _this$[ebp]
  0000a	83 78 04 00	 cmp	 DWORD PTR [eax+4], 0
  0000e	74 3c		 je	 SHORT $L205439

; 793  : 			{	// something to free, destroy and deallocate it
; 794  : 			_Destroy(_Myfirst, _Mylast);

  00010	8b 4d fc	 mov	 ecx, DWORD PTR _this$[ebp]
  00013	8b 51 08	 mov	 edx, DWORD PTR [ecx+8]
  00016	52		 push	 edx
  00017	8b 45 fc	 mov	 eax, DWORD PTR _this$[ebp]
  0001a	8b 48 04	 mov	 ecx, DWORD PTR [eax+4]
  0001d	51		 push	 ecx
  0001e	8b 4d fc	 mov	 ecx, DWORD PTR _this$[ebp]
  00021	e8 00 00 00 00	 call	 ?_Destroy@?$vector@V?$basic_string@DU?$char_traits@D@std@@V?$allocator@D@2@@std@@V?$allocator@V?$basic_string@DU?$char_traits@D@std@@V?$allocator@D@2@@std@@@2@@std@@IAEXPAV?$basic_string@DU?$char_traits@D@std@@V?$allocator@D@2@@2@0@Z ; std::vector<std::basic_string<char,std::char_traits<char>,std::allocator<char> >,std::allocator<std::basic_string<char,std::char_traits<char>,std::allocator<char> > > >::_Destroy

; 795  : 			this->_Alval.deallocate(_Myfirst, _Myend - _Myfirst);

  00026	8b 55 fc	 mov	 edx, DWORD PTR _this$[ebp]
  00029	8b 45 fc	 mov	 eax, DWORD PTR _this$[ebp]
  0002c	8b 4a 0c	 mov	 ecx, DWORD PTR [edx+12]
  0002f	2b 48 04	 sub	 ecx, DWORD PTR [eax+4]
  00032	8b c1		 mov	 eax, ecx
  00034	99		 cdq
  00035	b9 1c 00 00 00	 mov	 ecx, 28			; 0000001cH
  0003a	f7 f9		 idiv	 ecx
  0003c	50		 push	 eax
  0003d	8b 55 fc	 mov	 edx, DWORD PTR _this$[ebp]
  00040	8b 42 04	 mov	 eax, DWORD PTR [edx+4]
  00043	50		 push	 eax
  00044	8b 4d fc	 mov	 ecx, DWORD PTR _this$[ebp]
  00047	e8 00 00 00 00	 call	 ?deallocate@?$allocator@V?$basic_string@DU?$char_traits@D@std@@V?$allocator@D@2@@std@@@std@@QAEXPAV?$basic_string@DU?$char_traits@D@std@@V?$allocator@D@2@@2@I@Z ; std::allocator<std::basic_string<char,std::char_traits<char>,std::allocator<char> > >::deallocate
$L205439:

; 796  : 			}
; 797  : 		_Myfirst = 0, _Mylast = 0, _Myend = 0;

  0004c	8b 4d fc	 mov	 ecx, DWORD PTR _this$[ebp]
  0004f	c7 41 04 00 00
	00 00		 mov	 DWORD PTR [ecx+4], 0
  00056	8b 55 fc	 mov	 edx, DWORD PTR _this$[ebp]
  00059	c7 42 08 00 00
	00 00		 mov	 DWORD PTR [edx+8], 0
  00060	8b 45 fc	 mov	 eax, DWORD PTR _this$[ebp]
  00063	c7 40 0c 00 00
	00 00		 mov	 DWORD PTR [eax+12], 0

; 798  : 		}

  0006a	8b e5		 mov	 esp, ebp
  0006c	5d		 pop	 ebp
  0006d	c3		 ret	 0
?_Tidy@?$vector@V?$basic_string@DU?$char_traits@D@std@@V?$allocator@D@2@@std@@V?$allocator@V?$basic_string@DU?$char_traits@D@std@@V?$allocator@D@2@@std@@@2@@std@@IAEXXZ ENDP ; std::vector<std::basic_string<char,std::char_traits<char>,std::allocator<char> >,std::allocator<std::basic_string<char,std::char_traits<char>,std::allocator<char> > > >::_Tidy
_TEXT	ENDS
PUBLIC	??$_Uninitialized_fill_n@PAV?$basic_string@DU?$char_traits@D@std@@V?$allocator@D@2@@std@@IV12@V?$allocator@V?$basic_string@DU?$char_traits@D@std@@V?$allocator@D@2@@std@@@2@@std@@YAXPAV?$basic_string@DU?$char_traits@D@std@@V?$allocator@D@2@@0@IABV10@AAV?$allocator@V?$basic_string@DU?$char_traits@D@std@@V?$allocator@D@2@@std@@@0@@Z ; std::_Uninitialized_fill_n<std::basic_string<char,std::char_traits<char>,std::allocator<char> > *,unsigned int,std::basic_string<char,std::char_traits<char>,std::allocator<char> >,std::allocator<std::basic_string<char,std::char_traits<char>,std::allocator<char> > > >
; Function compile flags: /Odt
;	COMDAT ?_Ufill@?$vector@V?$basic_string@DU?$char_traits@D@std@@V?$allocator@D@2@@std@@V?$allocator@V?$basic_string@DU?$char_traits@D@std@@V?$allocator@D@2@@std@@@2@@std@@IAEPAV?$basic_string@DU?$char_traits@D@std@@V?$allocator@D@2@@2@PAV32@IABV32@@Z
_TEXT	SEGMENT
_this$ = -4						; size = 4
__Ptr$ = 8						; size = 4
__Count$ = 12						; size = 4
__Val$ = 16						; size = 4
?_Ufill@?$vector@V?$basic_string@DU?$char_traits@D@std@@V?$allocator@D@2@@std@@V?$allocator@V?$basic_string@DU?$char_traits@D@std@@V?$allocator@D@2@@std@@@2@@std@@IAEPAV?$basic_string@DU?$char_traits@D@std@@V?$allocator@D@2@@2@PAV32@IABV32@@Z PROC NEAR ; std::vector<std::basic_string<char,std::char_traits<char>,std::allocator<char> >,std::allocator<std::basic_string<char,std::char_traits<char>,std::allocator<char> > > >::_Ufill, COMDAT
; _this$ = ecx

; 877  : 		{	// copy initializing _Count * _Val, using allocator

  00000	55		 push	 ebp
  00001	8b ec		 mov	 ebp, esp
  00003	51		 push	 ecx
  00004	89 4d fc	 mov	 DWORD PTR _this$[ebp], ecx

; 878  : 		_Uninitialized_fill_n(_Ptr, _Count, _Val, this->_Alval);

  00007	8b 45 fc	 mov	 eax, DWORD PTR _this$[ebp]
  0000a	50		 push	 eax
  0000b	8b 4d 10	 mov	 ecx, DWORD PTR __Val$[ebp]
  0000e	51		 push	 ecx
  0000f	8b 55 0c	 mov	 edx, DWORD PTR __Count$[ebp]
  00012	52		 push	 edx
  00013	8b 45 08	 mov	 eax, DWORD PTR __Ptr$[ebp]
  00016	50		 push	 eax
  00017	e8 00 00 00 00	 call	 ??$_Uninitialized_fill_n@PAV?$basic_string@DU?$char_traits@D@std@@V?$allocator@D@2@@std@@IV12@V?$allocator@V?$basic_string@DU?$char_traits@D@std@@V?$allocator@D@2@@std@@@2@@std@@YAXPAV?$basic_string@DU?$char_traits@D@std@@V?$allocator@D@2@@0@IABV10@AAV?$allocator@V?$basic_string@DU?$char_traits@D@std@@V?$allocator@D@2@@std@@@0@@Z ; std::_Uninitialized_fill_n<std::basic_string<char,std::char_traits<char>,std::allocator<char> > *,unsigned int,std::basic_string<char,std::char_traits<char>,std::allocator<char> >,std::allocator<std::basic_string<char,std::char_traits<char>,std::allocator<char> > > >
  0001c	83 c4 10	 add	 esp, 16			; 00000010H

; 879  : 		return (_Ptr + _Count);

  0001f	8b 45 0c	 mov	 eax, DWORD PTR __Count$[ebp]
  00022	6b c0 1c	 imul	 eax, 28			; 0000001cH
  00025	03 45 08	 add	 eax, DWORD PTR __Ptr$[ebp]

; 880  : 		}

  00028	8b e5		 mov	 esp, ebp
  0002a	5d		 pop	 ebp
  0002b	c2 0c 00	 ret	 12			; 0000000cH
?_Ufill@?$vector@V?$basic_string@DU?$char_traits@D@std@@V?$allocator@D@2@@std@@V?$allocator@V?$basic_string@DU?$char_traits@D@std@@V?$allocator@D@2@@std@@@2@@std@@IAEPAV?$basic_string@DU?$char_traits@D@std@@V?$allocator@D@2@@2@PAV32@IABV32@@Z ENDP ; std::vector<std::basic_string<char,std::char_traits<char>,std::allocator<char> >,std::allocator<std::basic_string<char,std::char_traits<char>,std::allocator<char> > > >::_Ufill
_TEXT	ENDS
PUBLIC	??0?$allocator@V?$basic_string@DU?$char_traits@D@std@@V?$allocator@D@2@@std@@@std@@QAE@ABV01@@Z ; std::allocator<std::basic_string<char,std::char_traits<char>,std::allocator<char> > >::allocator<std::basic_string<char,std::char_traits<char>,std::allocator<char> > >
; Function compile flags: /Odt
;	COMDAT ??0?$_Vector_val@V?$basic_string@DU?$char_traits@D@std@@V?$allocator@D@2@@std@@V?$allocator@V?$basic_string@DU?$char_traits@D@std@@V?$allocator@D@2@@std@@@2@@std@@IAE@V?$allocator@V?$basic_string@DU?$char_traits@D@std@@V?$allocator@D@2@@std@@@1@@Z
_TEXT	SEGMENT
_this$ = -4						; size = 4
__Al$ = 8						; size = 1
??0?$_Vector_val@V?$basic_string@DU?$char_traits@D@std@@V?$allocator@D@2@@std@@V?$allocator@V?$basic_string@DU?$char_traits@D@std@@V?$allocator@D@2@@std@@@2@@std@@IAE@V?$allocator@V?$basic_string@DU?$char_traits@D@std@@V?$allocator@D@2@@std@@@1@@Z PROC NEAR ; std::_Vector_val<std::basic_string<char,std::char_traits<char>,std::allocator<char> >,std::allocator<std::basic_string<char,std::char_traits<char>,std::allocator<char> > > >::_Vector_val<std::basic_string<char,std::char_traits<char>,std::allocator<char> >,std::allocator<std::basic_string<char,std::char_traits<char>,std::allocator<char> > > >, COMDAT
; _this$ = ecx

; 21   : 		{	// construct allocator from _Al

  00000	55		 push	 ebp
  00001	8b ec		 mov	 ebp, esp
  00003	51		 push	 ecx
  00004	89 4d fc	 mov	 DWORD PTR _this$[ebp], ecx
  00007	8d 45 08	 lea	 eax, DWORD PTR __Al$[ebp]
  0000a	50		 push	 eax
  0000b	8b 4d fc	 mov	 ecx, DWORD PTR _this$[ebp]
  0000e	e8 00 00 00 00	 call	 ??0?$allocator@V?$basic_string@DU?$char_traits@D@std@@V?$allocator@D@2@@std@@@std@@QAE@ABV01@@Z ; std::allocator<std::basic_string<char,std::char_traits<char>,std::allocator<char> > >::allocator<std::basic_string<char,std::char_traits<char>,std::allocator<char> > >

; 22   : 		}

  00013	8b 45 fc	 mov	 eax, DWORD PTR _this$[ebp]
  00016	8b e5		 mov	 esp, ebp
  00018	5d		 pop	 ebp
  00019	c2 04 00	 ret	 4
??0?$_Vector_val@V?$basic_string@DU?$char_traits@D@std@@V?$allocator@D@2@@std@@V?$allocator@V?$basic_string@DU?$char_traits@D@std@@V?$allocator@D@2@@std@@@2@@std@@IAE@V?$allocator@V?$basic_string@DU?$char_traits@D@std@@V?$allocator@D@2@@std@@@1@@Z ENDP ; std::_Vector_val<std::basic_string<char,std::char_traits<char>,std::allocator<char> >,std::allocator<std::basic_string<char,std::char_traits<char>,std::allocator<char> > > >::_Vector_val<std::basic_string<char,std::char_traits<char>,std::allocator<char> >,std::allocator<std::basic_string<char,std::char_traits<char>,std::allocator<char> > > >
; Function compile flags: /Odt
; File d:\program files (x86)\microsoft visual studio .net 2003\vc7\include\xmemory
_TEXT	ENDS
;	COMDAT ??0?$allocator@V?$basic_string@DU?$char_traits@D@std@@V?$allocator@D@2@@std@@@std@@QAE@ABV01@@Z
_TEXT	SEGMENT
_this$ = -4						; size = 4
___formal$ = 8						; size = 4
??0?$allocator@V?$basic_string@DU?$char_traits@D@std@@V?$allocator@D@2@@std@@@std@@QAE@ABV01@@Z PROC NEAR ; std::allocator<std::basic_string<char,std::char_traits<char>,std::allocator<char> > >::allocator<std::basic_string<char,std::char_traits<char>,std::allocator<char> > >, COMDAT
; _this$ = ecx

; 115  : 	allocator(const allocator<_Ty>&)

  00000	55		 push	 ebp
  00001	8b ec		 mov	 ebp, esp
  00003	51		 push	 ecx
  00004	89 4d fc	 mov	 DWORD PTR _this$[ebp], ecx

; 116  : 		{	// construct by copying (do nothing)
; 117  : 		}

  00007	8b 45 fc	 mov	 eax, DWORD PTR _this$[ebp]
  0000a	8b e5		 mov	 esp, ebp
  0000c	5d		 pop	 ebp
  0000d	c2 04 00	 ret	 4
??0?$allocator@V?$basic_string@DU?$char_traits@D@std@@V?$allocator@D@2@@std@@@std@@QAE@ABV01@@Z ENDP ; std::allocator<std::basic_string<char,std::char_traits<char>,std::allocator<char> > >::allocator<std::basic_string<char,std::char_traits<char>,std::allocator<char> > >
; Function compile flags: /Odt
_TEXT	ENDS
;	COMDAT ?deallocate@?$allocator@V?$basic_string@DU?$char_traits@D@std@@V?$allocator@D@2@@std@@@std@@QAEXPAV?$basic_string@DU?$char_traits@D@std@@V?$allocator@D@2@@2@I@Z
_TEXT	SEGMENT
_this$ = -4						; size = 4
__Ptr$ = 8						; size = 4
___formal$ = 12						; size = 4
?deallocate@?$allocator@V?$basic_string@DU?$char_traits@D@std@@V?$allocator@D@2@@std@@@std@@QAEXPAV?$basic_string@DU?$char_traits@D@std@@V?$allocator@D@2@@2@I@Z PROC NEAR ; std::allocator<std::basic_string<char,std::char_traits<char>,std::allocator<char> > >::deallocate, COMDAT
; _this$ = ecx

; 131  : 		{	// deallocate object at _Ptr, ignore size

  00000	55		 push	 ebp
  00001	8b ec		 mov	 ebp, esp
  00003	51		 push	 ecx
  00004	89 4d fc	 mov	 DWORD PTR _this$[ebp], ecx

; 132  : 		operator delete(_Ptr);

  00007	8b 45 08	 mov	 eax, DWORD PTR __Ptr$[ebp]
  0000a	50		 push	 eax
  0000b	e8 00 00 00 00	 call	 ??3@YAXPAX@Z		; operator delete
  00010	83 c4 04	 add	 esp, 4

; 133  : 		}

  00013	8b e5		 mov	 esp, ebp
  00015	5d		 pop	 ebp
  00016	c2 08 00	 ret	 8
?deallocate@?$allocator@V?$basic_string@DU?$char_traits@D@std@@V?$allocator@D@2@@std@@@std@@QAEXPAV?$basic_string@DU?$char_traits@D@std@@V?$allocator@D@2@@2@I@Z ENDP ; std::allocator<std::basic_string<char,std::char_traits<char>,std::allocator<char> > >::deallocate
_TEXT	ENDS
PUBLIC	??$_Allocate@V?$basic_string@DU?$char_traits@D@std@@V?$allocator@D@2@@std@@@std@@YAPAV?$basic_string@DU?$char_traits@D@std@@V?$allocator@D@2@@0@IPAV10@@Z ; std::_Allocate<std::basic_string<char,std::char_traits<char>,std::allocator<char> > >
; Function compile flags: /Odt
;	COMDAT ?allocate@?$allocator@V?$basic_string@DU?$char_traits@D@std@@V?$allocator@D@2@@std@@@std@@QAEPAV?$basic_string@DU?$char_traits@D@std@@V?$allocator@D@2@@2@I@Z
_TEXT	SEGMENT
_this$ = -4						; size = 4
__Count$ = 8						; size = 4
?allocate@?$allocator@V?$basic_string@DU?$char_traits@D@std@@V?$allocator@D@2@@std@@@std@@QAEPAV?$basic_string@DU?$char_traits@D@std@@V?$allocator@D@2@@2@I@Z PROC NEAR ; std::allocator<std::basic_string<char,std::char_traits<char>,std::allocator<char> > >::allocate, COMDAT
; _this$ = ecx

; 136  : 		{	// allocate array of _Count elements

  00000	55		 push	 ebp
  00001	8b ec		 mov	 ebp, esp
  00003	51		 push	 ecx
  00004	89 4d fc	 mov	 DWORD PTR _this$[ebp], ecx

; 137  : 		return (_Allocate(_Count, (pointer)0));

  00007	6a 00		 push	 0
  00009	8b 45 08	 mov	 eax, DWORD PTR __Count$[ebp]
  0000c	50		 push	 eax
  0000d	e8 00 00 00 00	 call	 ??$_Allocate@V?$basic_string@DU?$char_traits@D@std@@V?$allocator@D@2@@std@@@std@@YAPAV?$basic_string@DU?$char_traits@D@std@@V?$allocator@D@2@@0@IPAV10@@Z ; std::_Allocate<std::basic_string<char,std::char_traits<char>,std::allocator<char> > >
  00012	83 c4 08	 add	 esp, 8

; 138  : 		}

  00015	8b e5		 mov	 esp, ebp
  00017	5d		 pop	 ebp
  00018	c2 04 00	 ret	 4
?allocate@?$allocator@V?$basic_string@DU?$char_traits@D@std@@V?$allocator@D@2@@std@@@std@@QAEPAV?$basic_string@DU?$char_traits@D@std@@V?$allocator@D@2@@2@I@Z ENDP ; std::allocator<std::basic_string<char,std::char_traits<char>,std::allocator<char> > >::allocate
; Function compile flags: /Odt
; File d:\program files (x86)\microsoft visual studio .net 2003\vc7\include\vector
_TEXT	ENDS
;	COMDAT ?begin@?$vector@V?$basic_string@DU?$char_traits@D@std@@V?$allocator@D@2@@std@@V?$allocator@V?$basic_string@DU?$char_traits@D@std@@V?$allocator@D@2@@std@@@2@@std@@QAE?AViterator@12@XZ
_TEXT	SEGMENT
_this$ = -4						; size = 4
___$ReturnUdt$ = 8					; size = 4
?begin@?$vector@V?$basic_string@DU?$char_traits@D@std@@V?$allocator@D@2@@std@@V?$allocator@V?$basic_string@DU?$char_traits@D@std@@V?$allocator@D@2@@std@@@2@@std@@QAE?AViterator@12@XZ PROC NEAR ; std::vector<std::basic_string<char,std::char_traits<char>,std::allocator<char> >,std::allocator<std::basic_string<char,std::char_traits<char>,std::allocator<char> > > >::begin, COMDAT
; _this$ = ecx

; 462  : 		{	// return iterator for beginning of mutable sequence

  00000	55		 push	 ebp
  00001	8b ec		 mov	 ebp, esp
  00003	51		 push	 ecx
  00004	89 4d fc	 mov	 DWORD PTR _this$[ebp], ecx

; 463  : 		return (iterator(_Myfirst));

  00007	8b 45 fc	 mov	 eax, DWORD PTR _this$[ebp]
  0000a	8b 48 04	 mov	 ecx, DWORD PTR [eax+4]
  0000d	51		 push	 ecx
  0000e	8b 4d 08	 mov	 ecx, DWORD PTR ___$ReturnUdt$[ebp]
  00011	e8 00 00 00 00	 call	 ??0iterator@?$vector@V?$basic_string@DU?$char_traits@D@std@@V?$allocator@D@2@@std@@V?$allocator@V?$basic_string@DU?$char_traits@D@std@@V?$allocator@D@2@@std@@@2@@std@@QAE@PAV?$basic_string@DU?$char_traits@D@std@@V?$allocator@D@2@@2@@Z ; std::vector<std::basic_string<char,std::char_traits<char>,std::allocator<char> >,std::allocator<std::basic_string<char,std::char_traits<char>,std::allocator<char> > > >::iterator::iterator
  00016	8b 45 08	 mov	 eax, DWORD PTR ___$ReturnUdt$[ebp]

; 464  : 		}

  00019	8b e5		 mov	 esp, ebp
  0001b	5d		 pop	 ebp
  0001c	c2 04 00	 ret	 4
?begin@?$vector@V?$basic_string@DU?$char_traits@D@std@@V?$allocator@D@2@@std@@V?$allocator@V?$basic_string@DU?$char_traits@D@std@@V?$allocator@D@2@@std@@@2@@std@@QAE?AViterator@12@XZ ENDP ; std::vector<std::basic_string<char,std::char_traits<char>,std::allocator<char> >,std::allocator<std::basic_string<char,std::char_traits<char>,std::allocator<char> > > >::begin
_TEXT	ENDS
PUBLIC	?max_size@?$allocator@V?$basic_string@DU?$char_traits@D@std@@V?$allocator@D@2@@std@@@std@@QBEIXZ ; std::allocator<std::basic_string<char,std::char_traits<char>,std::allocator<char> > >::max_size
; Function compile flags: /Odt
;	COMDAT ?max_size@?$vector@V?$basic_string@DU?$char_traits@D@std@@V?$allocator@D@2@@std@@V?$allocator@V?$basic_string@DU?$char_traits@D@std@@V?$allocator@D@2@@std@@@2@@std@@QBEIXZ
_TEXT	SEGMENT
_this$ = -4						; size = 4
?max_size@?$vector@V?$basic_string@DU?$char_traits@D@std@@V?$allocator@D@2@@std@@V?$allocator@V?$basic_string@DU?$char_traits@D@std@@V?$allocator@D@2@@std@@@2@@std@@QBEIXZ PROC NEAR ; std::vector<std::basic_string<char,std::char_traits<char>,std::allocator<char> >,std::allocator<std::basic_string<char,std::char_traits<char>,std::allocator<char> > > >::max_size, COMDAT
; _this$ = ecx

; 520  : 		{	// return maximum possible length of sequence

  00000	55		 push	 ebp
  00001	8b ec		 mov	 ebp, esp
  00003	51		 push	 ecx
  00004	89 4d fc	 mov	 DWORD PTR _this$[ebp], ecx

; 521  : 		return (this->_Alval.max_size());

  00007	8b 4d fc	 mov	 ecx, DWORD PTR _this$[ebp]
  0000a	e8 00 00 00 00	 call	 ?max_size@?$allocator@V?$basic_string@DU?$char_traits@D@std@@V?$allocator@D@2@@std@@@std@@QBEIXZ ; std::allocator<std::basic_string<char,std::char_traits<char>,std::allocator<char> > >::max_size

; 522  : 		}

  0000f	8b e5		 mov	 esp, ebp
  00011	5d		 pop	 ebp
  00012	c3		 ret	 0
?max_size@?$vector@V?$basic_string@DU?$char_traits@D@std@@V?$allocator@D@2@@std@@V?$allocator@V?$basic_string@DU?$char_traits@D@std@@V?$allocator@D@2@@std@@@2@@std@@QBEIXZ ENDP ; std::vector<std::basic_string<char,std::char_traits<char>,std::allocator<char> >,std::allocator<std::basic_string<char,std::char_traits<char>,std::allocator<char> > > >::max_size
_TEXT	ENDS
PUBLIC	??$_Destroy_range@V?$basic_string@DU?$char_traits@D@std@@V?$allocator@D@2@@std@@V?$allocator@V?$basic_string@DU?$char_traits@D@std@@V?$allocator@D@2@@std@@@2@@std@@YAXPAV?$basic_string@DU?$char_traits@D@std@@V?$allocator@D@2@@0@0AAV?$allocator@V?$basic_string@DU?$char_traits@D@std@@V?$allocator@D@2@@std@@@0@@Z ; std::_Destroy_range<std::basic_string<char,std::char_traits<char>,std::allocator<char> >,std::allocator<std::basic_string<char,std::char_traits<char>,std::allocator<char> > > >
; Function compile flags: /Odt
;	COMDAT ?_Destroy@?$vector@V?$basic_string@DU?$char_traits@D@std@@V?$allocator@D@2@@std@@V?$allocator@V?$basic_string@DU?$char_traits@D@std@@V?$allocator@D@2@@std@@@2@@std@@IAEXPAV?$basic_string@DU?$char_traits@D@std@@V?$allocator@D@2@@2@0@Z
_TEXT	SEGMENT
_this$ = -4						; size = 4
__First$ = 8						; size = 4
__Last$ = 12						; size = 4
?_Destroy@?$vector@V?$basic_string@DU?$char_traits@D@std@@V?$allocator@D@2@@std@@V?$allocator@V?$basic_string@DU?$char_traits@D@std@@V?$allocator@D@2@@std@@@2@@std@@IAEXPAV?$basic_string@DU?$char_traits@D@std@@V?$allocator@D@2@@2@0@Z PROC NEAR ; std::vector<std::basic_string<char,std::char_traits<char>,std::allocator<char> >,std::allocator<std::basic_string<char,std::char_traits<char>,std::allocator<char> > > >::_Destroy, COMDAT
; _this$ = ecx

; 786  : 		{	// destroy [_First, _Last) using allocator

  00000	55		 push	 ebp
  00001	8b ec		 mov	 ebp, esp
  00003	51		 push	 ecx
  00004	89 4d fc	 mov	 DWORD PTR _this$[ebp], ecx

; 787  : 		_Destroy_range(_First, _Last, this->_Alval);

  00007	8b 45 fc	 mov	 eax, DWORD PTR _this$[ebp]
  0000a	50		 push	 eax
  0000b	8b 4d 0c	 mov	 ecx, DWORD PTR __Last$[ebp]
  0000e	51		 push	 ecx
  0000f	8b 55 08	 mov	 edx, DWORD PTR __First$[ebp]
  00012	52		 push	 edx
  00013	e8 00 00 00 00	 call	 ??$_Destroy_range@V?$basic_string@DU?$char_traits@D@std@@V?$allocator@D@2@@std@@V?$allocator@V?$basic_string@DU?$char_traits@D@std@@V?$allocator@D@2@@std@@@2@@std@@YAXPAV?$basic_string@DU?$char_traits@D@std@@V?$allocator@D@2@@0@0AAV?$allocator@V?$basic_string@DU?$char_traits@D@std@@V?$allocator@D@2@@std@@@0@@Z ; std::_Destroy_range<std::basic_string<char,std::char_traits<char>,std::allocator<char> >,std::allocator<std::basic_string<char,std::char_traits<char>,std::allocator<char> > > >
  00018	83 c4 0c	 add	 esp, 12			; 0000000cH

; 788  : 		}

  0001b	8b e5		 mov	 esp, ebp
  0001d	5d		 pop	 ebp
  0001e	c2 08 00	 ret	 8
?_Destroy@?$vector@V?$basic_string@DU?$char_traits@D@std@@V?$allocator@D@2@@std@@V?$allocator@V?$basic_string@DU?$char_traits@D@std@@V?$allocator@D@2@@std@@@2@@std@@IAEXPAV?$basic_string@DU?$char_traits@D@std@@V?$allocator@D@2@@2@0@Z ENDP ; std::vector<std::basic_string<char,std::char_traits<char>,std::allocator<char> >,std::allocator<std::basic_string<char,std::char_traits<char>,std::allocator<char> > > >::_Destroy
_TEXT	ENDS
PUBLIC	??$_Ucopy@PAV?$basic_string@DU?$char_traits@D@std@@V?$allocator@D@2@@std@@@?$vector@V?$basic_string@DU?$char_traits@D@std@@V?$allocator@D@2@@std@@V?$allocator@V?$basic_string@DU?$char_traits@D@std@@V?$allocator@D@2@@std@@@2@@std@@IAEPAV?$basic_string@DU?$char_traits@D@std@@V?$allocator@D@2@@1@PAV21@00@Z ; std::vector<std::basic_string<char,std::char_traits<char>,std::allocator<char> >,std::allocator<std::basic_string<char,std::char_traits<char>,std::allocator<char> > > >::_Ucopy<std::basic_string<char,std::char_traits<char>,std::allocator<char> > *>
PUBLIC	??$fill@PAV?$basic_string@DU?$char_traits@D@std@@V?$allocator@D@2@@std@@V12@@std@@YAXPAV?$basic_string@DU?$char_traits@D@std@@V?$allocator@D@2@@0@0ABV10@@Z ; std::fill<std::basic_string<char,std::char_traits<char>,std::allocator<char> > *,std::basic_string<char,std::char_traits<char>,std::allocator<char> > >
PUBLIC	??$copy_backward@PAV?$basic_string@DU?$char_traits@D@std@@V?$allocator@D@2@@std@@PAV12@@std@@YAPAV?$basic_string@DU?$char_traits@D@std@@V?$allocator@D@2@@0@PAV10@00@Z ; std::copy_backward<std::basic_string<char,std::char_traits<char>,std::allocator<char> > *,std::basic_string<char,std::char_traits<char>,std::allocator<char> > *>
EXTRN	__CxxThrowException@8:NEAR
;	COMDAT xdata$x
xdata$x	SEGMENT
$T208234 DD	0ffffffffH
	DD	FLAT:$L208229
	DD	00H
	DD	00H
	DD	00H
	DD	00H
	DD	00H
	DD	00H
	DD	00H
	DD	00H
$T208236 DD	00H
	DD	00H
	DD	00H
	DD	FLAT:$L208226
$T208237 DD	00H
	DD	00H
	DD	00H
	DD	FLAT:$L208228
$T208235 DD	01H
	DD	01H
	DD	02H
	DD	01H
	DD	FLAT:$T208236
	DD	03H
	DD	03H
	DD	04H
	DD	01H
	DD	FLAT:$T208237
$T208231 DD	019930520H
	DD	05H
	DD	FLAT:$T208234
	DD	02H
	DD	FLAT:$T208235
	DD	2 DUP(00H)
; Function compile flags: /Odt
xdata$x	ENDS
;	COMDAT ?_Insert_n@?$vector@V?$basic_string@DU?$char_traits@D@std@@V?$allocator@D@2@@std@@V?$allocator@V?$basic_string@DU?$char_traits@D@std@@V?$allocator@D@2@@std@@@2@@std@@IAEXViterator@12@IABV?$basic_string@DU?$char_traits@D@std@@V?$allocator@D@2@@2@@Z
_TEXT	SEGMENT
tv244 = -80						; size = 4
tv65 = -76						; size = 4
tv89 = -72						; size = 4
_this$ = -68						; size = 4
__Oldend$205591 = -64					; size = 4
__Newvec$205570 = -60					; size = 4
__Ptr$205571 = -56					; size = 4
__Capacity$ = -52					; size = 4
__Tmp$ = -48						; size = 28
__$ArrayPad$ = -20					; size = 4
__$EHRec$ = -16						; size = 16
__$ReturnAddr$ = 4					; size = 4
__Where$ = 8						; size = 4
__Count$ = 12						; size = 4
__Val$ = 16						; size = 4
?_Insert_n@?$vector@V?$basic_string@DU?$char_traits@D@std@@V?$allocator@D@2@@std@@V?$allocator@V?$basic_string@DU?$char_traits@D@std@@V?$allocator@D@2@@std@@@2@@std@@IAEXViterator@12@IABV?$basic_string@DU?$char_traits@D@std@@V?$allocator@D@2@@2@@Z PROC NEAR ; std::vector<std::basic_string<char,std::char_traits<char>,std::allocator<char> >,std::allocator<std::basic_string<char,std::char_traits<char>,std::allocator<char> > > >::_Insert_n, COMDAT
; _this$ = ecx

; 809  : 		{	// insert _Count * _Val at _Where

  00000	55		 push	 ebp
  00001	8b ec		 mov	 ebp, esp
  00003	6a ff		 push	 -1
  00005	68 00 00 00 00	 push	 __ehhandler$?_Insert_n@?$vector@V?$basic_string@DU?$char_traits@D@std@@V?$allocator@D@2@@std@@V?$allocator@V?$basic_string@DU?$char_traits@D@std@@V?$allocator@D@2@@std@@@2@@std@@IAEXViterator@12@IABV?$basic_string@DU?$char_traits@D@std@@V?$allocator@D@2@@2@@Z
  0000a	64 a1 00 00 00
	00		 mov	 eax, DWORD PTR fs:__except_list
  00010	50		 push	 eax
  00011	64 89 25 00 00
	00 00		 mov	 DWORD PTR fs:__except_list, esp
  00018	51		 push	 ecx
  00019	83 ec 40	 sub	 esp, 64			; 00000040H
  0001c	a1 00 00 00 00	 mov	 eax, DWORD PTR ___security_cookie
  00021	89 45 ec	 mov	 DWORD PTR __$ArrayPad$[ebp], eax
  00024	53		 push	 ebx
  00025	56		 push	 esi
  00026	57		 push	 edi
  00027	89 65 f0	 mov	 DWORD PTR __$EHRec$[ebp], esp
  0002a	89 4d bc	 mov	 DWORD PTR _this$[ebp], ecx

; 810  : 		_Ty _Tmp = _Val;	// in case _Val is in sequence

  0002d	8b 45 10	 mov	 eax, DWORD PTR __Val$[ebp]
  00030	50		 push	 eax
  00031	8d 4d d0	 lea	 ecx, DWORD PTR __Tmp$[ebp]
  00034	ff 15 00 00 00
	00		 call	 DWORD PTR __imp_??0?$basic_string@DU?$char_traits@D@std@@V?$allocator@D@2@@std@@QAE@ABV01@@Z
  0003a	c7 45 fc 00 00
	00 00		 mov	 DWORD PTR __$EHRec$[ebp+12], 0

; 811  : 		size_type _Capacity = capacity();

  00041	8b 4d bc	 mov	 ecx, DWORD PTR _this$[ebp]
  00044	e8 00 00 00 00	 call	 ?capacity@?$vector@V?$basic_string@DU?$char_traits@D@std@@V?$allocator@D@2@@std@@V?$allocator@V?$basic_string@DU?$char_traits@D@std@@V?$allocator@D@2@@std@@@2@@std@@QBEIXZ ; std::vector<std::basic_string<char,std::char_traits<char>,std::allocator<char> >,std::allocator<std::basic_string<char,std::char_traits<char>,std::allocator<char> > > >::capacity
  00049	89 45 cc	 mov	 DWORD PTR __Capacity$[ebp], eax

; 812  : 
; 813  : 		if (_Count == 0)

  0004c	83 7d 0c 00	 cmp	 DWORD PTR __Count$[ebp], 0
  00050	75 05		 jne	 SHORT $L205564

; 814  : 			;
; 815  : 		else if (max_size() - size() < _Count)

  00052	e9 cf 02 00 00	 jmp	 $L205565
$L205564:
  00057	8b 4d bc	 mov	 ecx, DWORD PTR _this$[ebp]
  0005a	e8 00 00 00 00	 call	 ?size@?$vector@V?$basic_string@DU?$char_traits@D@std@@V?$allocator@D@2@@std@@V?$allocator@V?$basic_string@DU?$char_traits@D@std@@V?$allocator@D@2@@std@@@2@@std@@QBEIXZ ; std::vector<std::basic_string<char,std::char_traits<char>,std::allocator<char> >,std::allocator<std::basic_string<char,std::char_traits<char>,std::allocator<char> > > >::size
  0005f	8b f0		 mov	 esi, eax
  00061	8b 4d bc	 mov	 ecx, DWORD PTR _this$[ebp]
  00064	e8 00 00 00 00	 call	 ?max_size@?$vector@V?$basic_string@DU?$char_traits@D@std@@V?$allocator@D@2@@std@@V?$allocator@V?$basic_string@DU?$char_traits@D@std@@V?$allocator@D@2@@std@@@2@@std@@QBEIXZ ; std::vector<std::basic_string<char,std::char_traits<char>,std::allocator<char> >,std::allocator<std::basic_string<char,std::char_traits<char>,std::allocator<char> > > >::max_size
  00069	2b c6		 sub	 eax, esi
  0006b	3b 45 0c	 cmp	 eax, DWORD PTR __Count$[ebp]
  0006e	73 0d		 jae	 SHORT $L205566

; 816  : 			_Xlen();	// result too long

  00070	8b 4d bc	 mov	 ecx, DWORD PTR _this$[ebp]
  00073	e8 00 00 00 00	 call	 ?_Xlen@?$vector@V?$basic_string@DU?$char_traits@D@std@@V?$allocator@D@2@@std@@V?$allocator@V?$basic_string@DU?$char_traits@D@std@@V?$allocator@D@2@@std@@@2@@std@@IBEXXZ ; std::vector<std::basic_string<char,std::char_traits<char>,std::allocator<char> >,std::allocator<std::basic_string<char,std::char_traits<char>,std::allocator<char> > > >::_Xlen

; 817  : 		else if (_Capacity < size() + _Count)

  00078	e9 a9 02 00 00	 jmp	 $L205565
$L205566:
  0007d	8b 4d bc	 mov	 ecx, DWORD PTR _this$[ebp]
  00080	e8 00 00 00 00	 call	 ?size@?$vector@V?$basic_string@DU?$char_traits@D@std@@V?$allocator@D@2@@std@@V?$allocator@V?$basic_string@DU?$char_traits@D@std@@V?$allocator@D@2@@std@@@2@@std@@QBEIXZ ; std::vector<std::basic_string<char,std::char_traits<char>,std::allocator<char> >,std::allocator<std::basic_string<char,std::char_traits<char>,std::allocator<char> > > >::size
  00085	03 45 0c	 add	 eax, DWORD PTR __Count$[ebp]
  00088	39 45 cc	 cmp	 DWORD PTR __Capacity$[ebp], eax
  0008b	0f 83 68 01 00
	00		 jae	 $L205568

; 818  : 			{	// not enough room, reallocate
; 819  : 			_Capacity = max_size() - _Capacity / 2 < _Capacity
; 820  : 				? 0 : _Capacity + _Capacity / 2;	// try to grow by 50%

  00091	8b 75 cc	 mov	 esi, DWORD PTR __Capacity$[ebp]
  00094	d1 ee		 shr	 esi, 1
  00096	8b 4d bc	 mov	 ecx, DWORD PTR _this$[ebp]
  00099	e8 00 00 00 00	 call	 ?max_size@?$vector@V?$basic_string@DU?$char_traits@D@std@@V?$allocator@D@2@@std@@V?$allocator@V?$basic_string@DU?$char_traits@D@std@@V?$allocator@D@2@@std@@@2@@std@@QBEIXZ ; std::vector<std::basic_string<char,std::char_traits<char>,std::allocator<char> >,std::allocator<std::basic_string<char,std::char_traits<char>,std::allocator<char> > > >::max_size
  0009e	2b c6		 sub	 eax, esi
  000a0	3b 45 cc	 cmp	 eax, DWORD PTR __Capacity$[ebp]
  000a3	73 09		 jae	 SHORT $L208222
  000a5	c7 45 b8 00 00
	00 00		 mov	 DWORD PTR tv89[ebp], 0
  000ac	eb 0b		 jmp	 SHORT $L208223
$L208222:
  000ae	8b 4d cc	 mov	 ecx, DWORD PTR __Capacity$[ebp]
  000b1	d1 e9		 shr	 ecx, 1
  000b3	03 4d cc	 add	 ecx, DWORD PTR __Capacity$[ebp]
  000b6	89 4d b8	 mov	 DWORD PTR tv89[ebp], ecx
$L208223:
  000b9	8b 55 b8	 mov	 edx, DWORD PTR tv89[ebp]
  000bc	89 55 cc	 mov	 DWORD PTR __Capacity$[ebp], edx

; 821  : 			if (_Capacity < size() + _Count)

  000bf	8b 4d bc	 mov	 ecx, DWORD PTR _this$[ebp]
  000c2	e8 00 00 00 00	 call	 ?size@?$vector@V?$basic_string@DU?$char_traits@D@std@@V?$allocator@D@2@@std@@V?$allocator@V?$basic_string@DU?$char_traits@D@std@@V?$allocator@D@2@@std@@@2@@std@@QBEIXZ ; std::vector<std::basic_string<char,std::char_traits<char>,std::allocator<char> >,std::allocator<std::basic_string<char,std::char_traits<char>,std::allocator<char> > > >::size
  000c7	03 45 0c	 add	 eax, DWORD PTR __Count$[ebp]
  000ca	39 45 cc	 cmp	 DWORD PTR __Capacity$[ebp], eax
  000cd	73 0e		 jae	 SHORT $L205569

; 822  : 				_Capacity = size() + _Count;

  000cf	8b 4d bc	 mov	 ecx, DWORD PTR _this$[ebp]
  000d2	e8 00 00 00 00	 call	 ?size@?$vector@V?$basic_string@DU?$char_traits@D@std@@V?$allocator@D@2@@std@@V?$allocator@V?$basic_string@DU?$char_traits@D@std@@V?$allocator@D@2@@std@@@2@@std@@QBEIXZ ; std::vector<std::basic_string<char,std::char_traits<char>,std::allocator<char> >,std::allocator<std::basic_string<char,std::char_traits<char>,std::allocator<char> > > >::size
  000d7	03 45 0c	 add	 eax, DWORD PTR __Count$[ebp]
  000da	89 45 cc	 mov	 DWORD PTR __Capacity$[ebp], eax
$L205569:

; 823  : 			pointer _Newvec = this->_Alval.allocate(_Capacity);

  000dd	8b 45 cc	 mov	 eax, DWORD PTR __Capacity$[ebp]
  000e0	50		 push	 eax
  000e1	8b 4d bc	 mov	 ecx, DWORD PTR _this$[ebp]
  000e4	e8 00 00 00 00	 call	 ?allocate@?$allocator@V?$basic_string@DU?$char_traits@D@std@@V?$allocator@D@2@@std@@@std@@QAEPAV?$basic_string@DU?$char_traits@D@std@@V?$allocator@D@2@@2@I@Z ; std::allocator<std::basic_string<char,std::char_traits<char>,std::allocator<char> > >::allocate
  000e9	89 45 c4	 mov	 DWORD PTR __Newvec$205570[ebp], eax

; 824  : 			pointer _Ptr = _Newvec;

  000ec	8b 4d c4	 mov	 ecx, DWORD PTR __Newvec$205570[ebp]
  000ef	89 4d c8	 mov	 DWORD PTR __Ptr$205571[ebp], ecx

; 825  : 
; 826  : 			_TRY_BEGIN

  000f2	c6 45 fc 01	 mov	 BYTE PTR __$EHRec$[ebp+12], 1

; 827  : 			_Ptr = _Ucopy(_Myfirst, _ITER_BASE(_Where),
; 828  : 				_Newvec);	// copy prefix

  000f6	8b 55 c4	 mov	 edx, DWORD PTR __Newvec$205570[ebp]
  000f9	52		 push	 edx
  000fa	8b 45 08	 mov	 eax, DWORD PTR __Where$[ebp]
  000fd	50		 push	 eax
  000fe	8b 4d bc	 mov	 ecx, DWORD PTR _this$[ebp]
  00101	8b 51 04	 mov	 edx, DWORD PTR [ecx+4]
  00104	52		 push	 edx
  00105	8b 4d bc	 mov	 ecx, DWORD PTR _this$[ebp]
  00108	e8 00 00 00 00	 call	 ??$_Ucopy@PAV?$basic_string@DU?$char_traits@D@std@@V?$allocator@D@2@@std@@@?$vector@V?$basic_string@DU?$char_traits@D@std@@V?$allocator@D@2@@std@@V?$allocator@V?$basic_string@DU?$char_traits@D@std@@V?$allocator@D@2@@std@@@2@@std@@IAEPAV?$basic_string@DU?$char_traits@D@std@@V?$allocator@D@2@@1@PAV21@00@Z ; std::vector<std::basic_string<char,std::char_traits<char>,std::allocator<char> >,std::allocator<std::basic_string<char,std::char_traits<char>,std::allocator<char> > > >::_Ucopy<std::basic_string<char,std::char_traits<char>,std::allocator<char> > *>
  0010d	89 45 b4	 mov	 DWORD PTR tv65[ebp], eax
  00110	8b 45 b4	 mov	 eax, DWORD PTR tv65[ebp]
  00113	89 45 c8	 mov	 DWORD PTR __Ptr$205571[ebp], eax

; 829  : 			_Ptr = _Ufill(_Ptr, _Count, _Tmp);	// add new stuff

  00116	8d 4d d0	 lea	 ecx, DWORD PTR __Tmp$[ebp]
  00119	51		 push	 ecx
  0011a	8b 55 0c	 mov	 edx, DWORD PTR __Count$[ebp]
  0011d	52		 push	 edx
  0011e	8b 45 c8	 mov	 eax, DWORD PTR __Ptr$205571[ebp]
  00121	50		 push	 eax
  00122	8b 4d bc	 mov	 ecx, DWORD PTR _this$[ebp]
  00125	e8 00 00 00 00	 call	 ?_Ufill@?$vector@V?$basic_string@DU?$char_traits@D@std@@V?$allocator@D@2@@std@@V?$allocator@V?$basic_string@DU?$char_traits@D@std@@V?$allocator@D@2@@std@@@2@@std@@IAEPAV?$basic_string@DU?$char_traits@D@std@@V?$allocator@D@2@@2@PAV32@IABV32@@Z ; std::vector<std::basic_string<char,std::char_traits<char>,std::allocator<char> >,std::allocator<std::basic_string<char,std::char_traits<char>,std::allocator<char> > > >::_Ufill
  0012a	89 45 b0	 mov	 DWORD PTR tv244[ebp], eax
  0012d	8b 4d b0	 mov	 ecx, DWORD PTR tv244[ebp]
  00130	89 4d c8	 mov	 DWORD PTR __Ptr$205571[ebp], ecx

; 830  : 			_Ucopy(_ITER_BASE(_Where), _Mylast, _Ptr);	// copy suffix

  00133	8b 55 c8	 mov	 edx, DWORD PTR __Ptr$205571[ebp]
  00136	52		 push	 edx
  00137	8b 45 bc	 mov	 eax, DWORD PTR _this$[ebp]
  0013a	8b 48 08	 mov	 ecx, DWORD PTR [eax+8]
  0013d	51		 push	 ecx
  0013e	8b 55 08	 mov	 edx, DWORD PTR __Where$[ebp]
  00141	52		 push	 edx
  00142	8b 4d bc	 mov	 ecx, DWORD PTR _this$[ebp]
  00145	e8 00 00 00 00	 call	 ??$_Ucopy@PAV?$basic_string@DU?$char_traits@D@std@@V?$allocator@D@2@@std@@@?$vector@V?$basic_string@DU?$char_traits@D@std@@V?$allocator@D@2@@std@@V?$allocator@V?$basic_string@DU?$char_traits@D@std@@V?$allocator@D@2@@std@@@2@@std@@IAEPAV?$basic_string@DU?$char_traits@D@std@@V?$allocator@D@2@@1@PAV21@00@Z ; std::vector<std::basic_string<char,std::char_traits<char>,std::allocator<char> >,std::allocator<std::basic_string<char,std::char_traits<char>,std::allocator<char> > > >::_Ucopy<std::basic_string<char,std::char_traits<char>,std::allocator<char> > *>
  0014a	eb 29		 jmp	 SHORT $L208225
$L208226:

; 831  : 			_CATCH_ALL
; 832  : 			_Destroy(_Newvec, _Ptr);

  0014c	8b 45 c8	 mov	 eax, DWORD PTR __Ptr$205571[ebp]
  0014f	50		 push	 eax
  00150	8b 4d c4	 mov	 ecx, DWORD PTR __Newvec$205570[ebp]
  00153	51		 push	 ecx
  00154	8b 4d bc	 mov	 ecx, DWORD PTR _this$[ebp]
  00157	e8 00 00 00 00	 call	 ?_Destroy@?$vector@V?$basic_string@DU?$char_traits@D@std@@V?$allocator@D@2@@std@@V?$allocator@V?$basic_string@DU?$char_traits@D@std@@V?$allocator@D@2@@std@@@2@@std@@IAEXPAV?$basic_string@DU?$char_traits@D@std@@V?$allocator@D@2@@2@0@Z ; std::vector<std::basic_string<char,std::char_traits<char>,std::allocator<char> >,std::allocator<std::basic_string<char,std::char_traits<char>,std::allocator<char> > > >::_Destroy

; 833  : 			this->_Alval.deallocate(_Newvec, _Capacity);

  0015c	8b 55 cc	 mov	 edx, DWORD PTR __Capacity$[ebp]
  0015f	52		 push	 edx
  00160	8b 45 c4	 mov	 eax, DWORD PTR __Newvec$205570[ebp]
  00163	50		 push	 eax
  00164	8b 4d bc	 mov	 ecx, DWORD PTR _this$[ebp]
  00167	e8 00 00 00 00	 call	 ?deallocate@?$allocator@V?$basic_string@DU?$char_traits@D@std@@V?$allocator@D@2@@std@@@std@@QAEXPAV?$basic_string@DU?$char_traits@D@std@@V?$allocator@D@2@@2@I@Z ; std::allocator<std::basic_string<char,std::char_traits<char>,std::allocator<char> > >::deallocate

; 834  : 			_RERAISE;

  0016c	6a 00		 push	 0
  0016e	6a 00		 push	 0
  00170	e8 00 00 00 00	 call	 __CxxThrowException@8
$L208225:

; 835  : 			_CATCH_END

  00175	c7 45 fc 00 00
	00 00		 mov	 DWORD PTR __$EHRec$[ebp+12], 0

; 836  : 
; 837  : 			_Count += size();

  0017c	8b 4d bc	 mov	 ecx, DWORD PTR _this$[ebp]
  0017f	e8 00 00 00 00	 call	 ?size@?$vector@V?$basic_string@DU?$char_traits@D@std@@V?$allocator@D@2@@std@@V?$allocator@V?$basic_string@DU?$char_traits@D@std@@V?$allocator@D@2@@std@@@2@@std@@QBEIXZ ; std::vector<std::basic_string<char,std::char_traits<char>,std::allocator<char> >,std::allocator<std::basic_string<char,std::char_traits<char>,std::allocator<char> > > >::size
  00184	03 45 0c	 add	 eax, DWORD PTR __Count$[ebp]
  00187	89 45 0c	 mov	 DWORD PTR __Count$[ebp], eax

; 838  : 			if (_Myfirst != 0)

  0018a	8b 4d bc	 mov	 ecx, DWORD PTR _this$[ebp]
  0018d	83 79 04 00	 cmp	 DWORD PTR [ecx+4], 0
  00191	74 3a		 je	 SHORT $L205578

; 839  : 				{	// destroy and deallocate old array
; 840  : 				_Destroy(_Myfirst, _Mylast);

  00193	8b 55 bc	 mov	 edx, DWORD PTR _this$[ebp]
  00196	8b 42 08	 mov	 eax, DWORD PTR [edx+8]
  00199	50		 push	 eax
  0019a	8b 4d bc	 mov	 ecx, DWORD PTR _this$[ebp]
  0019d	8b 51 04	 mov	 edx, DWORD PTR [ecx+4]
  001a0	52		 push	 edx
  001a1	8b 4d bc	 mov	 ecx, DWORD PTR _this$[ebp]
  001a4	e8 00 00 00 00	 call	 ?_Destroy@?$vector@V?$basic_string@DU?$char_traits@D@std@@V?$allocator@D@2@@std@@V?$allocator@V?$basic_string@DU?$char_traits@D@std@@V?$allocator@D@2@@std@@@2@@std@@IAEXPAV?$basic_string@DU?$char_traits@D@std@@V?$allocator@D@2@@2@0@Z ; std::vector<std::basic_string<char,std::char_traits<char>,std::allocator<char> >,std::allocator<std::basic_string<char,std::char_traits<char>,std::allocator<char> > > >::_Destroy

; 841  : 				this->_Alval.deallocate(_Myfirst, _Myend - _Myfirst);

  001a9	8b 45 bc	 mov	 eax, DWORD PTR _this$[ebp]
  001ac	8b 4d bc	 mov	 ecx, DWORD PTR _this$[ebp]
  001af	8b 40 0c	 mov	 eax, DWORD PTR [eax+12]
  001b2	2b 41 04	 sub	 eax, DWORD PTR [ecx+4]
  001b5	99		 cdq
  001b6	b9 1c 00 00 00	 mov	 ecx, 28			; 0000001cH
  001bb	f7 f9		 idiv	 ecx
  001bd	50		 push	 eax
  001be	8b 55 bc	 mov	 edx, DWORD PTR _this$[ebp]
  001c1	8b 42 04	 mov	 eax, DWORD PTR [edx+4]
  001c4	50		 push	 eax
  001c5	8b 4d bc	 mov	 ecx, DWORD PTR _this$[ebp]
  001c8	e8 00 00 00 00	 call	 ?deallocate@?$allocator@V?$basic_string@DU?$char_traits@D@std@@V?$allocator@D@2@@std@@@std@@QAEXPAV?$basic_string@DU?$char_traits@D@std@@V?$allocator@D@2@@2@I@Z ; std::allocator<std::basic_string<char,std::char_traits<char>,std::allocator<char> > >::deallocate
$L205578:

; 842  : 				}
; 843  : 			_Myend = _Newvec + _Capacity;

  001cd	8b 4d cc	 mov	 ecx, DWORD PTR __Capacity$[ebp]
  001d0	6b c9 1c	 imul	 ecx, 28			; 0000001cH
  001d3	03 4d c4	 add	 ecx, DWORD PTR __Newvec$205570[ebp]
  001d6	8b 55 bc	 mov	 edx, DWORD PTR _this$[ebp]
  001d9	89 4a 0c	 mov	 DWORD PTR [edx+12], ecx

; 844  : 			_Mylast = _Newvec + _Count;

  001dc	8b 45 0c	 mov	 eax, DWORD PTR __Count$[ebp]
  001df	6b c0 1c	 imul	 eax, 28			; 0000001cH
  001e2	03 45 c4	 add	 eax, DWORD PTR __Newvec$205570[ebp]
  001e5	8b 4d bc	 mov	 ecx, DWORD PTR _this$[ebp]
  001e8	89 41 08	 mov	 DWORD PTR [ecx+8], eax

; 845  : 			_Myfirst = _Newvec;

  001eb	8b 55 bc	 mov	 edx, DWORD PTR _this$[ebp]
  001ee	8b 45 c4	 mov	 eax, DWORD PTR __Newvec$205570[ebp]
  001f1	89 42 04	 mov	 DWORD PTR [edx+4], eax

; 846  : 			}
; 847  : 		else if ((size_type)(_Mylast - _ITER_BASE(_Where)) < _Count)

  001f4	e9 2d 01 00 00	 jmp	 $L205565
$L205568:
  001f9	8b 4d bc	 mov	 ecx, DWORD PTR _this$[ebp]
  001fc	8b 41 08	 mov	 eax, DWORD PTR [ecx+8]
  001ff	2b 45 08	 sub	 eax, DWORD PTR __Where$[ebp]
  00202	99		 cdq
  00203	b9 1c 00 00 00	 mov	 ecx, 28			; 0000001cH
  00208	f7 f9		 idiv	 ecx
  0020a	3b 45 0c	 cmp	 eax, DWORD PTR __Count$[ebp]
  0020d	0f 83 af 00 00
	00		 jae	 $L205581

; 848  : 			{	// new stuff spills off end
; 849  : 			_Ucopy(_ITER_BASE(_Where), _Mylast,
; 850  : 				_ITER_BASE(_Where) + _Count);	// copy suffix

  00213	8b 55 0c	 mov	 edx, DWORD PTR __Count$[ebp]
  00216	6b d2 1c	 imul	 edx, 28			; 0000001cH
  00219	03 55 08	 add	 edx, DWORD PTR __Where$[ebp]
  0021c	52		 push	 edx
  0021d	8b 45 bc	 mov	 eax, DWORD PTR _this$[ebp]
  00220	8b 48 08	 mov	 ecx, DWORD PTR [eax+8]
  00223	51		 push	 ecx
  00224	8b 55 08	 mov	 edx, DWORD PTR __Where$[ebp]
  00227	52		 push	 edx
  00228	8b 4d bc	 mov	 ecx, DWORD PTR _this$[ebp]
  0022b	e8 00 00 00 00	 call	 ??$_Ucopy@PAV?$basic_string@DU?$char_traits@D@std@@V?$allocator@D@2@@std@@@?$vector@V?$basic_string@DU?$char_traits@D@std@@V?$allocator@D@2@@std@@V?$allocator@V?$basic_string@DU?$char_traits@D@std@@V?$allocator@D@2@@std@@@2@@std@@IAEPAV?$basic_string@DU?$char_traits@D@std@@V?$allocator@D@2@@1@PAV21@00@Z ; std::vector<std::basic_string<char,std::char_traits<char>,std::allocator<char> >,std::allocator<std::basic_string<char,std::char_traits<char>,std::allocator<char> > > >::_Ucopy<std::basic_string<char,std::char_traits<char>,std::allocator<char> > *>

; 851  : 
; 852  : 			_TRY_BEGIN

  00230	c6 45 fc 03	 mov	 BYTE PTR __$EHRec$[ebp+12], 3

; 853  : 			_Ufill(_Mylast, _Count - (_Mylast - _ITER_BASE(_Where)),
; 854  : 				_Tmp);	// insert new stuff off end

  00234	8d 45 d0	 lea	 eax, DWORD PTR __Tmp$[ebp]
  00237	50		 push	 eax
  00238	8b 4d bc	 mov	 ecx, DWORD PTR _this$[ebp]
  0023b	8b 41 08	 mov	 eax, DWORD PTR [ecx+8]
  0023e	2b 45 08	 sub	 eax, DWORD PTR __Where$[ebp]
  00241	99		 cdq
  00242	b9 1c 00 00 00	 mov	 ecx, 28			; 0000001cH
  00247	f7 f9		 idiv	 ecx
  00249	8b 55 0c	 mov	 edx, DWORD PTR __Count$[ebp]
  0024c	2b d0		 sub	 edx, eax
  0024e	52		 push	 edx
  0024f	8b 45 bc	 mov	 eax, DWORD PTR _this$[ebp]
  00252	8b 48 08	 mov	 ecx, DWORD PTR [eax+8]
  00255	51		 push	 ecx
  00256	8b 4d bc	 mov	 ecx, DWORD PTR _this$[ebp]
  00259	e8 00 00 00 00	 call	 ?_Ufill@?$vector@V?$basic_string@DU?$char_traits@D@std@@V?$allocator@D@2@@std@@V?$allocator@V?$basic_string@DU?$char_traits@D@std@@V?$allocator@D@2@@std@@@2@@std@@IAEPAV?$basic_string@DU?$char_traits@D@std@@V?$allocator@D@2@@2@PAV32@IABV32@@Z ; std::vector<std::basic_string<char,std::char_traits<char>,std::allocator<char> >,std::allocator<std::basic_string<char,std::char_traits<char>,std::allocator<char> > > >::_Ufill
  0025e	eb 28		 jmp	 SHORT $L208227
$L208228:

; 855  : 			_CATCH_ALL
; 856  : 			_Destroy(_ITER_BASE(_Where) + _Count, _Mylast + _Count);

  00260	8b 55 0c	 mov	 edx, DWORD PTR __Count$[ebp]
  00263	6b d2 1c	 imul	 edx, 28			; 0000001cH
  00266	8b 45 bc	 mov	 eax, DWORD PTR _this$[ebp]
  00269	03 50 08	 add	 edx, DWORD PTR [eax+8]
  0026c	52		 push	 edx
  0026d	8b 4d 0c	 mov	 ecx, DWORD PTR __Count$[ebp]
  00270	6b c9 1c	 imul	 ecx, 28			; 0000001cH
  00273	03 4d 08	 add	 ecx, DWORD PTR __Where$[ebp]
  00276	51		 push	 ecx
  00277	8b 4d bc	 mov	 ecx, DWORD PTR _this$[ebp]
  0027a	e8 00 00 00 00	 call	 ?_Destroy@?$vector@V?$basic_string@DU?$char_traits@D@std@@V?$allocator@D@2@@std@@V?$allocator@V?$basic_string@DU?$char_traits@D@std@@V?$allocator@D@2@@std@@@2@@std@@IAEXPAV?$basic_string@DU?$char_traits@D@std@@V?$allocator@D@2@@2@0@Z ; std::vector<std::basic_string<char,std::char_traits<char>,std::allocator<char> >,std::allocator<std::basic_string<char,std::char_traits<char>,std::allocator<char> > > >::_Destroy

; 857  : 			_RERAISE;

  0027f	6a 00		 push	 0
  00281	6a 00		 push	 0
  00283	e8 00 00 00 00	 call	 __CxxThrowException@8
$L208227:

; 858  : 			_CATCH_END

  00288	c7 45 fc 00 00
	00 00		 mov	 DWORD PTR __$EHRec$[ebp+12], 0

; 859  : 
; 860  : 			_Mylast += _Count;

  0028f	8b 55 0c	 mov	 edx, DWORD PTR __Count$[ebp]
  00292	6b d2 1c	 imul	 edx, 28			; 0000001cH
  00295	8b 45 bc	 mov	 eax, DWORD PTR _this$[ebp]
  00298	03 50 08	 add	 edx, DWORD PTR [eax+8]
  0029b	8b 4d bc	 mov	 ecx, DWORD PTR _this$[ebp]
  0029e	89 51 08	 mov	 DWORD PTR [ecx+8], edx

; 861  : 			fill(_ITER_BASE(_Where), _Mylast - _Count,
; 862  : 				_Tmp);	// insert up to old end

  002a1	8d 55 d0	 lea	 edx, DWORD PTR __Tmp$[ebp]
  002a4	52		 push	 edx
  002a5	8b 45 0c	 mov	 eax, DWORD PTR __Count$[ebp]
  002a8	6b c0 1c	 imul	 eax, 28			; 0000001cH
  002ab	8b 4d bc	 mov	 ecx, DWORD PTR _this$[ebp]
  002ae	8b 51 08	 mov	 edx, DWORD PTR [ecx+8]
  002b1	2b d0		 sub	 edx, eax
  002b3	52		 push	 edx
  002b4	8b 45 08	 mov	 eax, DWORD PTR __Where$[ebp]
  002b7	50		 push	 eax
  002b8	e8 00 00 00 00	 call	 ??$fill@PAV?$basic_string@DU?$char_traits@D@std@@V?$allocator@D@2@@std@@V12@@std@@YAXPAV?$basic_string@DU?$char_traits@D@std@@V?$allocator@D@2@@0@0ABV10@@Z ; std::fill<std::basic_string<char,std::char_traits<char>,std::allocator<char> > *,std::basic_string<char,std::char_traits<char>,std::allocator<char> > >
  002bd	83 c4 0c	 add	 esp, 12			; 0000000cH

; 863  : 			}
; 864  : 		else

  002c0	eb 64		 jmp	 SHORT $L205565
$L205581:

; 865  : 			{	// new stuff can all be assigned
; 866  : 			pointer _Oldend = _Mylast;

  002c2	8b 4d bc	 mov	 ecx, DWORD PTR _this$[ebp]
  002c5	8b 51 08	 mov	 edx, DWORD PTR [ecx+8]
  002c8	89 55 c0	 mov	 DWORD PTR __Oldend$205591[ebp], edx

; 867  : 			_Mylast = _Ucopy(_Oldend - _Count, _Oldend,
; 868  : 				_Mylast);	// copy suffix

  002cb	8b 45 bc	 mov	 eax, DWORD PTR _this$[ebp]
  002ce	8b 48 08	 mov	 ecx, DWORD PTR [eax+8]
  002d1	51		 push	 ecx
  002d2	8b 55 c0	 mov	 edx, DWORD PTR __Oldend$205591[ebp]
  002d5	52		 push	 edx
  002d6	8b 45 0c	 mov	 eax, DWORD PTR __Count$[ebp]
  002d9	6b c0 1c	 imul	 eax, 28			; 0000001cH
  002dc	8b 4d c0	 mov	 ecx, DWORD PTR __Oldend$205591[ebp]
  002df	2b c8		 sub	 ecx, eax
  002e1	51		 push	 ecx
  002e2	8b 4d bc	 mov	 ecx, DWORD PTR _this$[ebp]
  002e5	e8 00 00 00 00	 call	 ??$_Ucopy@PAV?$basic_string@DU?$char_traits@D@std@@V?$allocator@D@2@@std@@@?$vector@V?$basic_string@DU?$char_traits@D@std@@V?$allocator@D@2@@std@@V?$allocator@V?$basic_string@DU?$char_traits@D@std@@V?$allocator@D@2@@std@@@2@@std@@IAEPAV?$basic_string@DU?$char_traits@D@std@@V?$allocator@D@2@@1@PAV21@00@Z ; std::vector<std::basic_string<char,std::char_traits<char>,std::allocator<char> >,std::allocator<std::basic_string<char,std::char_traits<char>,std::allocator<char> > > >::_Ucopy<std::basic_string<char,std::char_traits<char>,std::allocator<char> > *>
  002ea	8b 55 bc	 mov	 edx, DWORD PTR _this$[ebp]
  002ed	89 42 08	 mov	 DWORD PTR [edx+8], eax

; 869  : 			copy_backward(_ITER_BASE(_Where), _Oldend - _Count,
; 870  : 				_Oldend);	// copy hole

  002f0	8b 45 c0	 mov	 eax, DWORD PTR __Oldend$205591[ebp]
  002f3	50		 push	 eax
  002f4	8b 4d 0c	 mov	 ecx, DWORD PTR __Count$[ebp]
  002f7	6b c9 1c	 imul	 ecx, 28			; 0000001cH
  002fa	8b 55 c0	 mov	 edx, DWORD PTR __Oldend$205591[ebp]
  002fd	2b d1		 sub	 edx, ecx
  002ff	52		 push	 edx
  00300	8b 45 08	 mov	 eax, DWORD PTR __Where$[ebp]
  00303	50		 push	 eax
  00304	e8 00 00 00 00	 call	 ??$copy_backward@PAV?$basic_string@DU?$char_traits@D@std@@V?$allocator@D@2@@std@@PAV12@@std@@YAPAV?$basic_string@DU?$char_traits@D@std@@V?$allocator@D@2@@0@PAV10@00@Z ; std::copy_backward<std::basic_string<char,std::char_traits<char>,std::allocator<char> > *,std::basic_string<char,std::char_traits<char>,std::allocator<char> > *>
  00309	83 c4 0c	 add	 esp, 12			; 0000000cH

; 871  : 			fill(_ITER_BASE(_Where), _ITER_BASE(_Where) + _Count,
; 872  : 				_Tmp);	// insert into hole

  0030c	8d 4d d0	 lea	 ecx, DWORD PTR __Tmp$[ebp]
  0030f	51		 push	 ecx
  00310	8b 55 0c	 mov	 edx, DWORD PTR __Count$[ebp]
  00313	6b d2 1c	 imul	 edx, 28			; 0000001cH
  00316	03 55 08	 add	 edx, DWORD PTR __Where$[ebp]
  00319	52		 push	 edx
  0031a	8b 45 08	 mov	 eax, DWORD PTR __Where$[ebp]
  0031d	50		 push	 eax
  0031e	e8 00 00 00 00	 call	 ??$fill@PAV?$basic_string@DU?$char_traits@D@std@@V?$allocator@D@2@@std@@V12@@std@@YAXPAV?$basic_string@DU?$char_traits@D@std@@V?$allocator@D@2@@0@0ABV10@@Z ; std::fill<std::basic_string<char,std::char_traits<char>,std::allocator<char> > *,std::basic_string<char,std::char_traits<char>,std::allocator<char> > >
  00323	83 c4 0c	 add	 esp, 12			; 0000000cH
$L205565:

; 873  : 			}
; 874  : 		}

  00326	c7 45 fc ff ff
	ff ff		 mov	 DWORD PTR __$EHRec$[ebp+12], -1
  0032d	8d 4d d0	 lea	 ecx, DWORD PTR __Tmp$[ebp]
  00330	ff 15 00 00 00
	00		 call	 DWORD PTR __imp_??1?$basic_string@DU?$char_traits@D@std@@V?$allocator@D@2@@std@@QAE@XZ
$L208221:
  00336	8b 4d f4	 mov	 ecx, DWORD PTR __$EHRec$[ebp+4]
  00339	64 89 0d 00 00
	00 00		 mov	 DWORD PTR fs:__except_list, ecx
  00340	8b 4d ec	 mov	 ecx, DWORD PTR __$ArrayPad$[ebp]
  00343	e8 00 00 00 00	 call	 @__security_check_cookie@4
  00348	5f		 pop	 edi
  00349	5e		 pop	 esi
  0034a	5b		 pop	 ebx
  0034b	8b e5		 mov	 esp, ebp
  0034d	5d		 pop	 ebp
  0034e	c2 0c 00	 ret	 12			; 0000000cH
_TEXT	ENDS
;	COMDAT text$x
text$x	SEGMENT
$L208229:
  00000	8d 4d d0	 lea	 ecx, DWORD PTR __Tmp$[ebp]
  00003	ff 25 00 00 00
	00		 jmp	 DWORD PTR __imp_??1?$basic_string@DU?$char_traits@D@std@@V?$allocator@D@2@@std@@QAE@XZ
__ehhandler$?_Insert_n@?$vector@V?$basic_string@DU?$char_traits@D@std@@V?$allocator@D@2@@std@@V?$allocator@V?$basic_string@DU?$char_traits@D@std@@V?$allocator@D@2@@std@@@2@@std@@IAEXViterator@12@IABV?$basic_string@DU?$char_traits@D@std@@V?$allocator@D@2@@2@@Z:
  00009	b8 00 00 00 00	 mov	 eax, OFFSET FLAT:$T208231
  0000e	e9 00 00 00 00	 jmp	 ___CxxFrameHandler
text$x	ENDS
?_Insert_n@?$vector@V?$basic_string@DU?$char_traits@D@std@@V?$allocator@D@2@@std@@V?$allocator@V?$basic_string@DU?$char_traits@D@std@@V?$allocator@D@2@@std@@@2@@std@@IAEXViterator@12@IABV?$basic_string@DU?$char_traits@D@std@@V?$allocator@D@2@@2@@Z ENDP ; std::vector<std::basic_string<char,std::char_traits<char>,std::allocator<char> >,std::allocator<std::basic_string<char,std::char_traits<char>,std::allocator<char> > > >::_Insert_n
PUBLIC	??_R0?AVlogic_error@std@@@8			; std::logic_error `RTTI Type Descriptor'
PUBLIC	__CT??_R0?AVlogic_error@std@@@8??0logic_error@std@@QAE@ABV01@@Z40
PUBLIC	??_R0?AVexception@@@8				; exception `RTTI Type Descriptor'
PUBLIC	__CT??_R0?AVexception@@@8??0exception@@QAE@ABV0@@Z12
PUBLIC	??_R0?AVlength_error@std@@@8			; std::length_error `RTTI Type Descriptor'
PUBLIC	__TI3?AVlength_error@std@@
PUBLIC	__CTA3?AVlength_error@std@@
PUBLIC	__CT??_R0?AVlength_error@std@@@8??0length_error@std@@QAE@ABV01@@Z40
PUBLIC	??_C@_0BD@OLBABOEK@vector?$DMT?$DO?5too?5long?$AA@ ; `string'
PUBLIC	??0logic_error@std@@QAE@ABV01@@Z		; std::logic_error::logic_error
PUBLIC	??0length_error@std@@QAE@ABV?$basic_string@DU?$char_traits@D@std@@V?$allocator@D@2@@1@@Z ; std::length_error::length_error
PUBLIC	??1length_error@std@@UAE@XZ			; std::length_error::~length_error
PUBLIC	??0length_error@std@@QAE@ABV01@@Z		; std::length_error::length_error
EXTRN	??0exception@@QAE@ABV0@@Z:NEAR			; exception::exception
;	COMDAT xdata$x
xdata$x	SEGMENT
$T208248 DD	0ffffffffH
	DD	FLAT:$L208244
$T208246 DD	019930520H
	DD	01H
	DD	FLAT:$T208248
	DD	2 DUP(00H)
	DD	2 DUP(00H)
xdata$x	ENDS
;	COMDAT ??_C@_0BD@OLBABOEK@vector?$DMT?$DO?5too?5long?$AA@
CONST	SEGMENT
??_C@_0BD@OLBABOEK@vector?$DMT?$DO?5too?5long?$AA@ DB 'vector<T> too long'
	DB	00H						; `string'
CONST	ENDS
;	COMDAT __TI3?AVlength_error@std@@
xdata$x	SEGMENT
__TI3?AVlength_error@std@@ DD 00H
	DD	FLAT:??1length_error@std@@UAE@XZ
	DD	00H
	DD	FLAT:__CTA3?AVlength_error@std@@
xdata$x	ENDS
;	COMDAT __CTA3?AVlength_error@std@@
xdata$x	SEGMENT
__CTA3?AVlength_error@std@@ DD 03H
	DD	FLAT:__CT??_R0?AVlength_error@std@@@8??0length_error@std@@QAE@ABV01@@Z40
	DD	FLAT:__CT??_R0?AVlogic_error@std@@@8??0logic_error@std@@QAE@ABV01@@Z40
	DD	FLAT:__CT??_R0?AVexception@@@8??0exception@@QAE@ABV0@@Z12
xdata$x	ENDS
;	COMDAT __CT??_R0?AVlength_error@std@@@8??0length_error@std@@QAE@ABV01@@Z40
xdata$x	SEGMENT
__CT??_R0?AVlength_error@std@@@8??0length_error@std@@QAE@ABV01@@Z40 DD 00H
	DD	FLAT:??_R0?AVlength_error@std@@@8
	DD	00H
	DD	0ffffffffH
	ORG $+4
	DD	028H
	DD	FLAT:??0length_error@std@@QAE@ABV01@@Z
xdata$x	ENDS
;	COMDAT ??_R0?AVlength_error@std@@@8
_DATA	SEGMENT
??_R0?AVlength_error@std@@@8 DD FLAT:??_7type_info@@6B@	; std::length_error `RTTI Type Descriptor'
	DD	00H
	DB	'.?AVlength_error@std@@', 00H
	ORG $-31
	DD	FLAT:??_7type_info@@6B@
	DD	00H
	DB	'.?AVlength_error@std@@', 00H
_DATA	ENDS
;	COMDAT __CT??_R0?AVlogic_error@std@@@8??0logic_error@std@@QAE@ABV01@@Z40
xdata$x	SEGMENT
__CT??_R0?AVlogic_error@std@@@8??0logic_error@std@@QAE@ABV01@@Z40 DD 00H
	DD	FLAT:??_R0?AVlogic_error@std@@@8
	DD	00H
	DD	0ffffffffH
	ORG $+4
	DD	028H
	DD	FLAT:??0logic_error@std@@QAE@ABV01@@Z
xdata$x	ENDS
;	COMDAT ??_R0?AVlogic_error@std@@@8
_DATA	SEGMENT
??_R0?AVlogic_error@std@@@8 DD FLAT:??_7type_info@@6B@	; std::logic_error `RTTI Type Descriptor'
	DD	00H
	DB	'.?AVlogic_error@std@@', 00H
	ORG $-30
	DD	FLAT:??_7type_info@@6B@
	DD	00H
	DB	'.?AVlogic_error@std@@', 00H
_DATA	ENDS
;	COMDAT __CT??_R0?AVexception@@@8??0exception@@QAE@ABV0@@Z12
xdata$x	SEGMENT
__CT??_R0?AVexception@@@8??0exception@@QAE@ABV0@@Z12 DD 00H
	DD	FLAT:??_R0?AVexception@@@8
	DD	00H
	DD	0ffffffffH
	ORG $+4
	DD	0cH
	DD	FLAT:??0exception@@QAE@ABV0@@Z
xdata$x	ENDS
;	COMDAT ??_R0?AVexception@@@8
_DATA	SEGMENT
??_R0?AVexception@@@8 DD FLAT:??_7type_info@@6B@	; exception `RTTI Type Descriptor'
	DD	00H
	DB	'.?AVexception@@', 00H
	ORG $-24
	DD	FLAT:??_7type_info@@6B@
	DD	00H
	DB	'.?AVexception@@', 00H
; Function compile flags: /Odt
_DATA	ENDS
;	COMDAT ?_Xlen@?$vector@V?$basic_string@DU?$char_traits@D@std@@V?$allocator@D@2@@std@@V?$allocator@V?$basic_string@DU?$char_traits@D@std@@V?$allocator@D@2@@std@@@2@@std@@IBEXXZ
_TEXT	SEGMENT
_this$ = -84						; size = 4
$T208243 = -80						; size = 28
$T208242 = -52						; size = 40
__$EHRec$ = -12						; size = 12
?_Xlen@?$vector@V?$basic_string@DU?$char_traits@D@std@@V?$allocator@D@2@@std@@V?$allocator@V?$basic_string@DU?$char_traits@D@std@@V?$allocator@D@2@@std@@@2@@std@@IBEXXZ PROC NEAR ; std::vector<std::basic_string<char,std::char_traits<char>,std::allocator<char> >,std::allocator<std::basic_string<char,std::char_traits<char>,std::allocator<char> > > >::_Xlen, COMDAT
; _this$ = ecx

; 883  : 		{	// report a length_error

  00000	55		 push	 ebp
  00001	8b ec		 mov	 ebp, esp
  00003	6a ff		 push	 -1
  00005	68 00 00 00 00	 push	 __ehhandler$?_Xlen@?$vector@V?$basic_string@DU?$char_traits@D@std@@V?$allocator@D@2@@std@@V?$allocator@V?$basic_string@DU?$char_traits@D@std@@V?$allocator@D@2@@std@@@2@@std@@IBEXXZ
  0000a	64 a1 00 00 00
	00		 mov	 eax, DWORD PTR fs:__except_list
  00010	50		 push	 eax
  00011	64 89 25 00 00
	00 00		 mov	 DWORD PTR fs:__except_list, esp
  00018	83 ec 48	 sub	 esp, 72			; 00000048H
  0001b	89 4d ac	 mov	 DWORD PTR _this$[ebp], ecx

; 884  : 		_THROW(length_error, "vector<T> too long");

  0001e	68 00 00 00 00	 push	 OFFSET FLAT:??_C@_0BD@OLBABOEK@vector?$DMT?$DO?5too?5long?$AA@
  00023	8d 4d b0	 lea	 ecx, DWORD PTR $T208243[ebp]
  00026	ff 15 00 00 00
	00		 call	 DWORD PTR __imp_??0?$basic_string@DU?$char_traits@D@std@@V?$allocator@D@2@@std@@QAE@PBD@Z
  0002c	c7 45 fc 00 00
	00 00		 mov	 DWORD PTR __$EHRec$[ebp+8], 0
  00033	8d 45 b0	 lea	 eax, DWORD PTR $T208243[ebp]
  00036	50		 push	 eax
  00037	8d 4d cc	 lea	 ecx, DWORD PTR $T208242[ebp]
  0003a	e8 00 00 00 00	 call	 ??0length_error@std@@QAE@ABV?$basic_string@DU?$char_traits@D@std@@V?$allocator@D@2@@1@@Z ; std::length_error::length_error
  0003f	68 00 00 00 00	 push	 OFFSET FLAT:__TI3?AVlength_error@std@@
  00044	8d 4d cc	 lea	 ecx, DWORD PTR $T208242[ebp]
  00047	51		 push	 ecx
  00048	e8 00 00 00 00	 call	 __CxxThrowException@8
$L208241:

; 885  : 		}

  0004d	8b 4d f4	 mov	 ecx, DWORD PTR __$EHRec$[ebp]
  00050	64 89 0d 00 00
	00 00		 mov	 DWORD PTR fs:__except_list, ecx
  00057	8b e5		 mov	 esp, ebp
  00059	5d		 pop	 ebp
  0005a	c3		 ret	 0
_TEXT	ENDS
;	COMDAT text$x
text$x	SEGMENT
$L208244:
  00000	8d 4d b0	 lea	 ecx, DWORD PTR $T208243[ebp]
  00003	ff 25 00 00 00
	00		 jmp	 DWORD PTR __imp_??1?$basic_string@DU?$char_traits@D@std@@V?$allocator@D@2@@std@@QAE@XZ
__ehhandler$?_Xlen@?$vector@V?$basic_string@DU?$char_traits@D@std@@V?$allocator@D@2@@std@@V?$allocator@V?$basic_string@DU?$char_traits@D@std@@V?$allocator@D@2@@std@@@2@@std@@IBEXXZ:
  00009	b8 00 00 00 00	 mov	 eax, OFFSET FLAT:$T208246
  0000e	e9 00 00 00 00	 jmp	 ___CxxFrameHandler
text$x	ENDS
?_Xlen@?$vector@V?$basic_string@DU?$char_traits@D@std@@V?$allocator@D@2@@std@@V?$allocator@V?$basic_string@DU?$char_traits@D@std@@V?$allocator@D@2@@std@@@2@@std@@IBEXXZ ENDP ; std::vector<std::basic_string<char,std::char_traits<char>,std::allocator<char> >,std::allocator<std::basic_string<char,std::char_traits<char>,std::allocator<char> > > >::_Xlen
PUBLIC	??0const_iterator@?$vector@V?$basic_string@DU?$char_traits@D@std@@V?$allocator@D@2@@std@@V?$allocator@V?$basic_string@DU?$char_traits@D@std@@V?$allocator@D@2@@std@@@2@@std@@QAE@PAV?$basic_string@DU?$char_traits@D@std@@V?$allocator@D@2@@2@@Z ; std::vector<std::basic_string<char,std::char_traits<char>,std::allocator<char> >,std::allocator<std::basic_string<char,std::char_traits<char>,std::allocator<char> > > >::const_iterator::const_iterator
; Function compile flags: /Odt
;	COMDAT ??0iterator@?$vector@V?$basic_string@DU?$char_traits@D@std@@V?$allocator@D@2@@std@@V?$allocator@V?$basic_string@DU?$char_traits@D@std@@V?$allocator@D@2@@std@@@2@@std@@QAE@PAV?$basic_string@DU?$char_traits@D@std@@V?$allocator@D@2@@2@@Z
_TEXT	SEGMENT
_this$ = -4						; size = 4
__Ptr$ = 8						; size = 4
??0iterator@?$vector@V?$basic_string@DU?$char_traits@D@std@@V?$allocator@D@2@@std@@V?$allocator@V?$basic_string@DU?$char_traits@D@std@@V?$allocator@D@2@@std@@@2@@std@@QAE@PAV?$basic_string@DU?$char_traits@D@std@@V?$allocator@D@2@@2@@Z PROC NEAR ; std::vector<std::basic_string<char,std::char_traits<char>,std::allocator<char> >,std::allocator<std::basic_string<char,std::char_traits<char>,std::allocator<char> > > >::iterator::iterator, COMDAT
; _this$ = ecx

; 215  : 			{	// construct with pointer _Ptr

  00000	55		 push	 ebp
  00001	8b ec		 mov	 ebp, esp
  00003	51		 push	 ecx
  00004	89 4d fc	 mov	 DWORD PTR _this$[ebp], ecx
  00007	8b 45 08	 mov	 eax, DWORD PTR __Ptr$[ebp]
  0000a	50		 push	 eax
  0000b	8b 4d fc	 mov	 ecx, DWORD PTR _this$[ebp]
  0000e	e8 00 00 00 00	 call	 ??0const_iterator@?$vector@V?$basic_string@DU?$char_traits@D@std@@V?$allocator@D@2@@std@@V?$allocator@V?$basic_string@DU?$char_traits@D@std@@V?$allocator@D@2@@std@@@2@@std@@QAE@PAV?$basic_string@DU?$char_traits@D@std@@V?$allocator@D@2@@2@@Z ; std::vector<std::basic_string<char,std::char_traits<char>,std::allocator<char> >,std::allocator<std::basic_string<char,std::char_traits<char>,std::allocator<char> > > >::const_iterator::const_iterator

; 216  : 			}

  00013	8b 45 fc	 mov	 eax, DWORD PTR _this$[ebp]
  00016	8b e5		 mov	 esp, ebp
  00018	5d		 pop	 ebp
  00019	c2 04 00	 ret	 4
??0iterator@?$vector@V?$basic_string@DU?$char_traits@D@std@@V?$allocator@D@2@@std@@V?$allocator@V?$basic_string@DU?$char_traits@D@std@@V?$allocator@D@2@@std@@@2@@std@@QAE@PAV?$basic_string@DU?$char_traits@D@std@@V?$allocator@D@2@@2@@Z ENDP ; std::vector<std::basic_string<char,std::char_traits<char>,std::allocator<char> >,std::allocator<std::basic_string<char,std::char_traits<char>,std::allocator<char> > > >::iterator::iterator
_TEXT	ENDS
PUBLIC	??Yiterator@?$vector@V?$basic_string@DU?$char_traits@D@std@@V?$allocator@D@2@@std@@V?$allocator@V?$basic_string@DU?$char_traits@D@std@@V?$allocator@D@2@@std@@@2@@std@@QAEAAV012@H@Z ; std::vector<std::basic_string<char,std::char_traits<char>,std::allocator<char> >,std::allocator<std::basic_string<char,std::char_traits<char>,std::allocator<char> > > >::iterator::operator+=
; Function compile flags: /Odt
;	COMDAT ??Hiterator@?$vector@V?$basic_string@DU?$char_traits@D@std@@V?$allocator@D@2@@std@@V?$allocator@V?$basic_string@DU?$char_traits@D@std@@V?$allocator@D@2@@std@@@2@@std@@QBE?AV012@H@Z
_TEXT	SEGMENT
_this$ = -8						; size = 4
__Tmp$ = -4						; size = 4
___$ReturnUdt$ = 8					; size = 4
__Off$ = 12						; size = 4
??Hiterator@?$vector@V?$basic_string@DU?$char_traits@D@std@@V?$allocator@D@2@@std@@V?$allocator@V?$basic_string@DU?$char_traits@D@std@@V?$allocator@D@2@@std@@@2@@std@@QBE?AV012@H@Z PROC NEAR ; std::vector<std::basic_string<char,std::char_traits<char>,std::allocator<char> >,std::allocator<std::basic_string<char,std::char_traits<char>,std::allocator<char> > > >::iterator::operator+, COMDAT
; _this$ = ecx

; 261  : 			{	// return this + integer

  00000	55		 push	 ebp
  00001	8b ec		 mov	 ebp, esp
  00003	83 ec 08	 sub	 esp, 8
  00006	89 4d f8	 mov	 DWORD PTR _this$[ebp], ecx

; 262  : 			iterator _Tmp = *this;

  00009	8b 45 f8	 mov	 eax, DWORD PTR _this$[ebp]
  0000c	8b 08		 mov	 ecx, DWORD PTR [eax]
  0000e	89 4d fc	 mov	 DWORD PTR __Tmp$[ebp], ecx

; 263  : 			return (_Tmp += _Off);

  00011	8b 55 0c	 mov	 edx, DWORD PTR __Off$[ebp]
  00014	52		 push	 edx
  00015	8d 4d fc	 lea	 ecx, DWORD PTR __Tmp$[ebp]
  00018	e8 00 00 00 00	 call	 ??Yiterator@?$vector@V?$basic_string@DU?$char_traits@D@std@@V?$allocator@D@2@@std@@V?$allocator@V?$basic_string@DU?$char_traits@D@std@@V?$allocator@D@2@@std@@@2@@std@@QAEAAV012@H@Z ; std::vector<std::basic_string<char,std::char_traits<char>,std::allocator<char> >,std::allocator<std::basic_string<char,std::char_traits<char>,std::allocator<char> > > >::iterator::operator+=
  0001d	8b 00		 mov	 eax, DWORD PTR [eax]
  0001f	8b 4d 08	 mov	 ecx, DWORD PTR ___$ReturnUdt$[ebp]
  00022	89 01		 mov	 DWORD PTR [ecx], eax
  00024	8b 45 08	 mov	 eax, DWORD PTR ___$ReturnUdt$[ebp]

; 264  : 			}

  00027	8b e5		 mov	 esp, ebp
  00029	5d		 pop	 ebp
  0002a	c2 08 00	 ret	 8
??Hiterator@?$vector@V?$basic_string@DU?$char_traits@D@std@@V?$allocator@D@2@@std@@V?$allocator@V?$basic_string@DU?$char_traits@D@std@@V?$allocator@D@2@@std@@@2@@std@@QBE?AV012@H@Z ENDP ; std::vector<std::basic_string<char,std::char_traits<char>,std::allocator<char> >,std::allocator<std::basic_string<char,std::char_traits<char>,std::allocator<char> > > >::iterator::operator+
_TEXT	ENDS
PUBLIC	??Gconst_iterator@?$vector@V?$basic_string@DU?$char_traits@D@std@@V?$allocator@D@2@@std@@V?$allocator@V?$basic_string@DU?$char_traits@D@std@@V?$allocator@D@2@@std@@@2@@std@@QBEHABV012@@Z ; std::vector<std::basic_string<char,std::char_traits<char>,std::allocator<char> >,std::allocator<std::basic_string<char,std::char_traits<char>,std::allocator<char> > > >::const_iterator::operator-
; Function compile flags: /Odt
;	COMDAT ??Giterator@?$vector@V?$basic_string@DU?$char_traits@D@std@@V?$allocator@D@2@@std@@V?$allocator@V?$basic_string@DU?$char_traits@D@std@@V?$allocator@D@2@@std@@@2@@std@@QBEHABVconst_iterator@12@@Z
_TEXT	SEGMENT
_this$ = -8						; size = 4
$T208257 = -4						; size = 4
__Right$ = 8						; size = 4
??Giterator@?$vector@V?$basic_string@DU?$char_traits@D@std@@V?$allocator@D@2@@std@@V?$allocator@V?$basic_string@DU?$char_traits@D@std@@V?$allocator@D@2@@std@@@2@@std@@QBEHABVconst_iterator@12@@Z PROC NEAR ; std::vector<std::basic_string<char,std::char_traits<char>,std::allocator<char> >,std::allocator<std::basic_string<char,std::char_traits<char>,std::allocator<char> > > >::iterator::operator-, COMDAT
; _this$ = ecx

; 278  : 			{	// return difference of iterators

  00000	55		 push	 ebp
  00001	8b ec		 mov	 ebp, esp
  00003	83 ec 08	 sub	 esp, 8
  00006	89 4d f8	 mov	 DWORD PTR _this$[ebp], ecx

; 279  : 			return ((const_iterator)*this - _Right);

  00009	8b 45 f8	 mov	 eax, DWORD PTR _this$[ebp]
  0000c	8b 08		 mov	 ecx, DWORD PTR [eax]
  0000e	89 4d fc	 mov	 DWORD PTR $T208257[ebp], ecx
  00011	8b 55 08	 mov	 edx, DWORD PTR __Right$[ebp]
  00014	52		 push	 edx
  00015	8d 4d fc	 lea	 ecx, DWORD PTR $T208257[ebp]
  00018	e8 00 00 00 00	 call	 ??Gconst_iterator@?$vector@V?$basic_string@DU?$char_traits@D@std@@V?$allocator@D@2@@std@@V?$allocator@V?$basic_string@DU?$char_traits@D@std@@V?$allocator@D@2@@std@@@2@@std@@QBEHABV012@@Z ; std::vector<std::basic_string<char,std::char_traits<char>,std::allocator<char> >,std::allocator<std::basic_string<char,std::char_traits<char>,std::allocator<char> > > >::const_iterator::operator-

; 280  : 			}

  0001d	8b e5		 mov	 esp, ebp
  0001f	5d		 pop	 ebp
  00020	c2 04 00	 ret	 4
??Giterator@?$vector@V?$basic_string@DU?$char_traits@D@std@@V?$allocator@D@2@@std@@V?$allocator@V?$basic_string@DU?$char_traits@D@std@@V?$allocator@D@2@@std@@@2@@std@@QBEHABVconst_iterator@12@@Z ENDP ; std::vector<std::basic_string<char,std::char_traits<char>,std::allocator<char> >,std::allocator<std::basic_string<char,std::char_traits<char>,std::allocator<char> > > >::iterator::operator-
_TEXT	ENDS
PUBLIC	??_R1A@?0A@A@logic_error@std@@8			; std::logic_error::`RTTI Base Class Descriptor at (0,-1,0,0)'
PUBLIC	??_R1A@?0A@A@exception@@8			; exception::`RTTI Base Class Descriptor at (0,-1,0,0)'
PUBLIC	??_R4length_error@std@@6B@			; std::length_error::`RTTI Complete Object Locator'
PUBLIC	??_R3length_error@std@@8			; std::length_error::`RTTI Class Hierarchy Descriptor'
PUBLIC	??_R2length_error@std@@8			; std::length_error::`RTTI Base Class Array'
PUBLIC	??_R1A@?0A@A@length_error@std@@8		; std::length_error::`RTTI Base Class Descriptor at (0,-1,0,0)'
PUBLIC	?what@logic_error@std@@UBEPBDXZ			; std::logic_error::what
PUBLIC	??_7length_error@std@@6B@			; std::length_error::`vftable'
PUBLIC	??_Glength_error@std@@UAEPAXI@Z			; std::length_error::`scalar deleting destructor'
EXTRN	??_Elength_error@std@@UAEPAXI@Z:NEAR		; std::length_error::`vector deleting destructor'
;	COMDAT ??_7length_error@std@@6B@
CONST	SEGMENT
??_7length_error@std@@6B@ DD FLAT:??_R4length_error@std@@6B@ ; std::length_error::`vftable'
	DD	FLAT:??_Elength_error@std@@UAEPAXI@Z
	DD	FLAT:?what@logic_error@std@@UBEPBDXZ
CONST	ENDS
;	COMDAT ??_R4length_error@std@@6B@
rdata$r	SEGMENT
??_R4length_error@std@@6B@ DD 00H			; std::length_error::`RTTI Complete Object Locator'
	DD	00H
	DD	00H
	DD	FLAT:??_R0?AVlength_error@std@@@8
	DD	FLAT:??_R3length_error@std@@8
rdata$r	ENDS
;	COMDAT ??_R3length_error@std@@8
rdata$r	SEGMENT
??_R3length_error@std@@8 DD 00H				; std::length_error::`RTTI Class Hierarchy Descriptor'
	DD	00H
	DD	03H
	DD	FLAT:??_R2length_error@std@@8
rdata$r	ENDS
;	COMDAT ??_R2length_error@std@@8
rdata$r	SEGMENT
??_R2length_error@std@@8 DD FLAT:??_R1A@?0A@A@length_error@std@@8 ; std::length_error::`RTTI Base Class Array'
	DD	FLAT:??_R1A@?0A@A@logic_error@std@@8
	DD	FLAT:??_R1A@?0A@A@exception@@8
rdata$r	ENDS
;	COMDAT ??_R1A@?0A@A@length_error@std@@8
rdata$r	SEGMENT
??_R1A@?0A@A@length_error@std@@8 DD FLAT:??_R0?AVlength_error@std@@@8 ; std::length_error::`RTTI Base Class Descriptor at (0,-1,0,0)'
	DD	02H
	DD	00H
	DD	0ffffffffH
	DD	00H
	DD	00H
rdata$r	ENDS
;	COMDAT ??_R1A@?0A@A@logic_error@std@@8
rdata$r	SEGMENT
??_R1A@?0A@A@logic_error@std@@8 DD FLAT:??_R0?AVlogic_error@std@@@8 ; std::logic_error::`RTTI Base Class Descriptor at (0,-1,0,0)'
	DD	01H
	DD	00H
	DD	0ffffffffH
	DD	00H
	DD	00H
rdata$r	ENDS
;	COMDAT ??_R1A@?0A@A@exception@@8
rdata$r	SEGMENT
??_R1A@?0A@A@exception@@8 DD FLAT:??_R0?AVexception@@@8	; exception::`RTTI Base Class Descriptor at (0,-1,0,0)'
	DD	00H
	DD	00H
	DD	0ffffffffH
	DD	00H
	DD	00H
; Function compile flags: /Odt
rdata$r	ENDS
;	COMDAT ??0length_error@std@@QAE@ABV01@@Z
_TEXT	SEGMENT
_this$ = -4						; size = 4
___that$ = 8						; size = 4
??0length_error@std@@QAE@ABV01@@Z PROC NEAR		; std::length_error::length_error, COMDAT
; _this$ = ecx
  00000	55		 push	 ebp
  00001	8b ec		 mov	 ebp, esp
  00003	51		 push	 ecx
  00004	89 4d fc	 mov	 DWORD PTR _this$[ebp], ecx
  00007	8b 45 08	 mov	 eax, DWORD PTR ___that$[ebp]
  0000a	50		 push	 eax
  0000b	8b 4d fc	 mov	 ecx, DWORD PTR _this$[ebp]
  0000e	e8 00 00 00 00	 call	 ??0logic_error@std@@QAE@ABV01@@Z
  00013	8b 4d fc	 mov	 ecx, DWORD PTR _this$[ebp]
  00016	c7 01 00 00 00
	00		 mov	 DWORD PTR [ecx], OFFSET FLAT:??_7length_error@std@@6B@
  0001c	8b 45 fc	 mov	 eax, DWORD PTR _this$[ebp]
  0001f	8b e5		 mov	 esp, ebp
  00021	5d		 pop	 ebp
  00022	c2 04 00	 ret	 4
??0length_error@std@@QAE@ABV01@@Z ENDP			; std::length_error::length_error
; Function compile flags: /Odt
; File d:\program files (x86)\microsoft visual studio .net 2003\vc7\include\xmemory
_TEXT	ENDS
;	COMDAT ?max_size@?$allocator@V?$basic_string@DU?$char_traits@D@std@@V?$allocator@D@2@@std@@@std@@QBEIXZ
_TEXT	SEGMENT
tv65 = -12						; size = 4
_this$ = -8						; size = 4
__Count$ = -4						; size = 4
?max_size@?$allocator@V?$basic_string@DU?$char_traits@D@std@@V?$allocator@D@2@@std@@@std@@QBEIXZ PROC NEAR ; std::allocator<std::basic_string<char,std::char_traits<char>,std::allocator<char> > >::max_size, COMDAT
; _this$ = ecx

; 156  : 		{	// estimate maximum array size

  00000	55		 push	 ebp
  00001	8b ec		 mov	 ebp, esp
  00003	83 ec 0c	 sub	 esp, 12			; 0000000cH
  00006	89 4d f8	 mov	 DWORD PTR _this$[ebp], ecx

; 157  : 		_SIZT _Count = (_SIZT)(-1) / sizeof (_Ty);

  00009	c7 45 fc 49 92
	24 09		 mov	 DWORD PTR __Count$[ebp], 153391689 ; 09249249H

; 158  : 		return (0 < _Count ? _Count : 1);

  00010	83 7d fc 00	 cmp	 DWORD PTR __Count$[ebp], 0
  00014	76 08		 jbe	 SHORT $L208263
  00016	8b 45 fc	 mov	 eax, DWORD PTR __Count$[ebp]
  00019	89 45 f4	 mov	 DWORD PTR tv65[ebp], eax
  0001c	eb 07		 jmp	 SHORT $L208264
$L208263:
  0001e	c7 45 f4 01 00
	00 00		 mov	 DWORD PTR tv65[ebp], 1
$L208264:
  00025	8b 45 f4	 mov	 eax, DWORD PTR tv65[ebp]

; 159  : 		}

  00028	8b e5		 mov	 esp, ebp
  0002a	5d		 pop	 ebp
  0002b	c3		 ret	 0
?max_size@?$allocator@V?$basic_string@DU?$char_traits@D@std@@V?$allocator@D@2@@std@@@std@@QBEIXZ ENDP ; std::allocator<std::basic_string<char,std::char_traits<char>,std::allocator<char> > >::max_size
; Function compile flags: /Odt
; File d:\program files (x86)\microsoft visual studio .net 2003\vc7\include\vector
_TEXT	ENDS
;	COMDAT ??Yiterator@?$vector@V?$basic_string@DU?$char_traits@D@std@@V?$allocator@D@2@@std@@V?$allocator@V?$basic_string@DU?$char_traits@D@std@@V?$allocator@D@2@@std@@@2@@std@@QAEAAV012@H@Z
_TEXT	SEGMENT
_this$ = -4						; size = 4
__Off$ = 8						; size = 4
??Yiterator@?$vector@V?$basic_string@DU?$char_traits@D@std@@V?$allocator@D@2@@std@@V?$allocator@V?$basic_string@DU?$char_traits@D@std@@V?$allocator@D@2@@std@@@2@@std@@QAEAAV012@H@Z PROC NEAR ; std::vector<std::basic_string<char,std::char_traits<char>,std::allocator<char> >,std::allocator<std::basic_string<char,std::char_traits<char>,std::allocator<char> > > >::iterator::operator+=, COMDAT
; _this$ = ecx

; 255  : 			{	// increment by integer

  00000	55		 push	 ebp
  00001	8b ec		 mov	 ebp, esp
  00003	51		 push	 ecx
  00004	89 4d fc	 mov	 DWORD PTR _this$[ebp], ecx

; 256  : 			this->_Myptr += _Off;

  00007	8b 45 08	 mov	 eax, DWORD PTR __Off$[ebp]
  0000a	6b c0 1c	 imul	 eax, 28			; 0000001cH
  0000d	8b 4d fc	 mov	 ecx, DWORD PTR _this$[ebp]
  00010	03 01		 add	 eax, DWORD PTR [ecx]
  00012	8b 55 fc	 mov	 edx, DWORD PTR _this$[ebp]
  00015	89 02		 mov	 DWORD PTR [edx], eax

; 257  : 			return (*this);

  00017	8b 45 fc	 mov	 eax, DWORD PTR _this$[ebp]

; 258  : 			}

  0001a	8b e5		 mov	 esp, ebp
  0001c	5d		 pop	 ebp
  0001d	c2 04 00	 ret	 4
??Yiterator@?$vector@V?$basic_string@DU?$char_traits@D@std@@V?$allocator@D@2@@std@@V?$allocator@V?$basic_string@DU?$char_traits@D@std@@V?$allocator@D@2@@std@@@2@@std@@QAEAAV012@H@Z ENDP ; std::vector<std::basic_string<char,std::char_traits<char>,std::allocator<char> >,std::allocator<std::basic_string<char,std::char_traits<char>,std::allocator<char> > > >::iterator::operator+=
; Function compile flags: /Odt
_TEXT	ENDS
;	COMDAT ??0const_iterator@?$vector@V?$basic_string@DU?$char_traits@D@std@@V?$allocator@D@2@@std@@V?$allocator@V?$basic_string@DU?$char_traits@D@std@@V?$allocator@D@2@@std@@@2@@std@@QAE@PAV?$basic_string@DU?$char_traits@D@std@@V?$allocator@D@2@@2@@Z
_TEXT	SEGMENT
_this$ = -4						; size = 4
__Ptr$ = 8						; size = 4
??0const_iterator@?$vector@V?$basic_string@DU?$char_traits@D@std@@V?$allocator@D@2@@std@@V?$allocator@V?$basic_string@DU?$char_traits@D@std@@V?$allocator@D@2@@std@@@2@@std@@QAE@PAV?$basic_string@DU?$char_traits@D@std@@V?$allocator@D@2@@2@@Z PROC NEAR ; std::vector<std::basic_string<char,std::char_traits<char>,std::allocator<char> >,std::allocator<std::basic_string<char,std::char_traits<char>,std::allocator<char> > > >::const_iterator::const_iterator, COMDAT
; _this$ = ecx

; 73   : 		const_iterator(_Tptr _Ptr)

  00000	55		 push	 ebp
  00001	8b ec		 mov	 ebp, esp
  00003	51		 push	 ecx
  00004	89 4d fc	 mov	 DWORD PTR _this$[ebp], ecx

; 74   : 			{	// construct with pointer _Ptr
; 75   : 			_Myptr = _Ptr;

  00007	8b 45 fc	 mov	 eax, DWORD PTR _this$[ebp]
  0000a	8b 4d 08	 mov	 ecx, DWORD PTR __Ptr$[ebp]
  0000d	89 08		 mov	 DWORD PTR [eax], ecx

; 76   : 			}

  0000f	8b 45 fc	 mov	 eax, DWORD PTR _this$[ebp]
  00012	8b e5		 mov	 esp, ebp
  00014	5d		 pop	 ebp
  00015	c2 04 00	 ret	 4
??0const_iterator@?$vector@V?$basic_string@DU?$char_traits@D@std@@V?$allocator@D@2@@std@@V?$allocator@V?$basic_string@DU?$char_traits@D@std@@V?$allocator@D@2@@std@@@2@@std@@QAE@PAV?$basic_string@DU?$char_traits@D@std@@V?$allocator@D@2@@2@@Z ENDP ; std::vector<std::basic_string<char,std::char_traits<char>,std::allocator<char> >,std::allocator<std::basic_string<char,std::char_traits<char>,std::allocator<char> > > >::const_iterator::const_iterator
; Function compile flags: /Odt
_TEXT	ENDS
;	COMDAT ??Gconst_iterator@?$vector@V?$basic_string@DU?$char_traits@D@std@@V?$allocator@D@2@@std@@V?$allocator@V?$basic_string@DU?$char_traits@D@std@@V?$allocator@D@2@@std@@@2@@std@@QBEHABV012@@Z
_TEXT	SEGMENT
_this$ = -4						; size = 4
__Right$ = 8						; size = 4
??Gconst_iterator@?$vector@V?$basic_string@DU?$char_traits@D@std@@V?$allocator@D@2@@std@@V?$allocator@V?$basic_string@DU?$char_traits@D@std@@V?$allocator@D@2@@std@@@2@@std@@QBEHABV012@@Z PROC NEAR ; std::vector<std::basic_string<char,std::char_traits<char>,std::allocator<char> >,std::allocator<std::basic_string<char,std::char_traits<char>,std::allocator<char> > > >::const_iterator::operator-, COMDAT
; _this$ = ecx

; 140  : 			{	// return difference of iterators

  00000	55		 push	 ebp
  00001	8b ec		 mov	 ebp, esp
  00003	51		 push	 ecx
  00004	89 4d fc	 mov	 DWORD PTR _this$[ebp], ecx

; 141  : 
; 142  : 
; 143  : 			return (_Myptr - _Right._Myptr);

  00007	8b 45 fc	 mov	 eax, DWORD PTR _this$[ebp]
  0000a	8b 4d 08	 mov	 ecx, DWORD PTR __Right$[ebp]
  0000d	8b 00		 mov	 eax, DWORD PTR [eax]
  0000f	2b 01		 sub	 eax, DWORD PTR [ecx]
  00011	99		 cdq
  00012	b9 1c 00 00 00	 mov	 ecx, 28			; 0000001cH
  00017	f7 f9		 idiv	 ecx

; 144  : 			}

  00019	8b e5		 mov	 esp, ebp
  0001b	5d		 pop	 ebp
  0001c	c2 04 00	 ret	 4
??Gconst_iterator@?$vector@V?$basic_string@DU?$char_traits@D@std@@V?$allocator@D@2@@std@@V?$allocator@V?$basic_string@DU?$char_traits@D@std@@V?$allocator@D@2@@std@@@2@@std@@QBEHABV012@@Z ENDP ; std::vector<std::basic_string<char,std::char_traits<char>,std::allocator<char> >,std::allocator<std::basic_string<char,std::char_traits<char>,std::allocator<char> > > >::const_iterator::operator-
_TEXT	ENDS
PUBLIC	??$_Uninit_fill_n@PAV?$basic_string@DU?$char_traits@D@std@@V?$allocator@D@2@@std@@IV12@V?$allocator@V?$basic_string@DU?$char_traits@D@std@@V?$allocator@D@2@@std@@@2@@std@@YAXPAV?$basic_string@DU?$char_traits@D@std@@V?$allocator@D@2@@0@IABV10@AAV?$allocator@V?$basic_string@DU?$char_traits@D@std@@V?$allocator@D@2@@std@@@0@U_Nonscalar_ptr_iterator_tag@0@@Z ; std::_Uninit_fill_n<std::basic_string<char,std::char_traits<char>,std::allocator<char> > *,unsigned int,std::basic_string<char,std::char_traits<char>,std::allocator<char> >,std::allocator<std::basic_string<char,std::char_traits<char>,std::allocator<char> > > >
PUBLIC	??$_Ptr_cat@PAV?$basic_string@DU?$char_traits@D@std@@V?$allocator@D@2@@std@@PAV12@@std@@YA?AU_Nonscalar_ptr_iterator_tag@0@AAPAV?$basic_string@DU?$char_traits@D@std@@V?$allocator@D@2@@0@0@Z ; std::_Ptr_cat<std::basic_string<char,std::char_traits<char>,std::allocator<char> > *,std::basic_string<char,std::char_traits<char>,std::allocator<char> > *>
; Function compile flags: /Odt
; File d:\program files (x86)\microsoft visual studio .net 2003\vc7\include\memory
;	COMDAT ??$_Uninitialized_fill_n@PAV?$basic_string@DU?$char_traits@D@std@@V?$allocator@D@2@@std@@IV12@V?$allocator@V?$basic_string@DU?$char_traits@D@std@@V?$allocator@D@2@@std@@@2@@std@@YAXPAV?$basic_string@DU?$char_traits@D@std@@V?$allocator@D@2@@0@IABV10@AAV?$allocator@V?$basic_string@DU?$char_traits@D@std@@V?$allocator@D@2@@std@@@0@@Z
_TEXT	SEGMENT
$T208273 = -1						; size = 1
__First$ = 8						; size = 4
__Count$ = 12						; size = 4
__Val$ = 16						; size = 4
__Al$ = 20						; size = 4
??$_Uninitialized_fill_n@PAV?$basic_string@DU?$char_traits@D@std@@V?$allocator@D@2@@std@@IV12@V?$allocator@V?$basic_string@DU?$char_traits@D@std@@V?$allocator@D@2@@std@@@2@@std@@YAXPAV?$basic_string@DU?$char_traits@D@std@@V?$allocator@D@2@@0@IABV10@AAV?$allocator@V?$basic_string@DU?$char_traits@D@std@@V?$allocator@D@2@@std@@@0@@Z PROC NEAR ; std::_Uninitialized_fill_n<std::basic_string<char,std::char_traits<char>,std::allocator<char> > *,unsigned int,std::basic_string<char,std::char_traits<char>,std::allocator<char> >,std::allocator<std::basic_string<char,std::char_traits<char>,std::allocator<char> > > >, COMDAT

; 255  : 	{	// copy _Count *_Val to raw _First, using _Al

  00000	55		 push	 ebp
  00001	8b ec		 mov	 ebp, esp
  00003	51		 push	 ecx

; 256  : 	_Uninit_fill_n(_First, _Count, _Val, _Al,
; 257  : 		_Ptr_cat(_First, _First));

  00004	8d 45 08	 lea	 eax, DWORD PTR __First$[ebp]
  00007	50		 push	 eax
  00008	8d 4d 08	 lea	 ecx, DWORD PTR __First$[ebp]
  0000b	51		 push	 ecx
  0000c	e8 00 00 00 00	 call	 ??$_Ptr_cat@PAV?$basic_string@DU?$char_traits@D@std@@V?$allocator@D@2@@std@@PAV12@@std@@YA?AU_Nonscalar_ptr_iterator_tag@0@AAPAV?$basic_string@DU?$char_traits@D@std@@V?$allocator@D@2@@0@0@Z ; std::_Ptr_cat<std::basic_string<char,std::char_traits<char>,std::allocator<char> > *,std::basic_string<char,std::char_traits<char>,std::allocator<char> > *>
  00011	83 c4 08	 add	 esp, 8
  00014	88 45 ff	 mov	 BYTE PTR $T208273[ebp], al
  00017	8a 55 ff	 mov	 dl, BYTE PTR $T208273[ebp]
  0001a	52		 push	 edx
  0001b	8b 45 14	 mov	 eax, DWORD PTR __Al$[ebp]
  0001e	50		 push	 eax
  0001f	8b 4d 10	 mov	 ecx, DWORD PTR __Val$[ebp]
  00022	51		 push	 ecx
  00023	8b 55 0c	 mov	 edx, DWORD PTR __Count$[ebp]
  00026	52		 push	 edx
  00027	8b 45 08	 mov	 eax, DWORD PTR __First$[ebp]
  0002a	50		 push	 eax
  0002b	e8 00 00 00 00	 call	 ??$_Uninit_fill_n@PAV?$basic_string@DU?$char_traits@D@std@@V?$allocator@D@2@@std@@IV12@V?$allocator@V?$basic_string@DU?$char_traits@D@std@@V?$allocator@D@2@@std@@@2@@std@@YAXPAV?$basic_string@DU?$char_traits@D@std@@V?$allocator@D@2@@0@IABV10@AAV?$allocator@V?$basic_string@DU?$char_traits@D@std@@V?$allocator@D@2@@std@@@0@U_Nonscalar_ptr_iterator_tag@0@@Z ; std::_Uninit_fill_n<std::basic_string<char,std::char_traits<char>,std::allocator<char> > *,unsigned int,std::basic_string<char,std::char_traits<char>,std::allocator<char> >,std::allocator<std::basic_string<char,std::char_traits<char>,std::allocator<char> > > >
  00030	83 c4 14	 add	 esp, 20			; 00000014H

; 258  : 	}

  00033	8b e5		 mov	 esp, ebp
  00035	5d		 pop	 ebp
  00036	c3		 ret	 0
??$_Uninitialized_fill_n@PAV?$basic_string@DU?$char_traits@D@std@@V?$allocator@D@2@@std@@IV12@V?$allocator@V?$basic_string@DU?$char_traits@D@std@@V?$allocator@D@2@@std@@@2@@std@@YAXPAV?$basic_string@DU?$char_traits@D@std@@V?$allocator@D@2@@0@IABV10@AAV?$allocator@V?$basic_string@DU?$char_traits@D@std@@V?$allocator@D@2@@std@@@0@@Z ENDP ; std::_Uninitialized_fill_n<std::basic_string<char,std::char_traits<char>,std::allocator<char> > *,unsigned int,std::basic_string<char,std::char_traits<char>,std::allocator<char> >,std::allocator<std::basic_string<char,std::char_traits<char>,std::allocator<char> > > >
; Function compile flags: /Odt
; File d:\program files (x86)\microsoft visual studio .net 2003\vc7\include\xmemory
_TEXT	ENDS
;	COMDAT ??$_Allocate@V?$basic_string@DU?$char_traits@D@std@@V?$allocator@D@2@@std@@@std@@YAPAV?$basic_string@DU?$char_traits@D@std@@V?$allocator@D@2@@0@IPAV10@@Z
_TEXT	SEGMENT
__Count$ = 8						; size = 4
___formal$ = 12						; size = 4
??$_Allocate@V?$basic_string@DU?$char_traits@D@std@@V?$allocator@D@2@@std@@@std@@YAPAV?$basic_string@DU?$char_traits@D@std@@V?$allocator@D@2@@0@IPAV10@@Z PROC NEAR ; std::_Allocate<std::basic_string<char,std::char_traits<char>,std::allocator<char> > >, COMDAT

; 33   : 	{	// allocate storage for _Count elements of type _Ty

  00000	55		 push	 ebp
  00001	8b ec		 mov	 ebp, esp

; 34   : 	return ((_Ty _FARQ *)operator new(_Count * sizeof (_Ty)));

  00003	8b 45 08	 mov	 eax, DWORD PTR __Count$[ebp]
  00006	6b c0 1c	 imul	 eax, 28			; 0000001cH
  00009	50		 push	 eax
  0000a	e8 00 00 00 00	 call	 ??2@YAPAXI@Z		; operator new
  0000f	83 c4 04	 add	 esp, 4

; 35   : 	}

  00012	5d		 pop	 ebp
  00013	c3		 ret	 0
??$_Allocate@V?$basic_string@DU?$char_traits@D@std@@V?$allocator@D@2@@std@@@std@@YAPAV?$basic_string@DU?$char_traits@D@std@@V?$allocator@D@2@@0@IPAV10@@Z ENDP ; std::_Allocate<std::basic_string<char,std::char_traits<char>,std::allocator<char> > >
_TEXT	ENDS
PUBLIC	??$_Destroy_range@V?$basic_string@DU?$char_traits@D@std@@V?$allocator@D@2@@std@@V?$allocator@V?$basic_string@DU?$char_traits@D@std@@V?$allocator@D@2@@std@@@2@@std@@YAXPAV?$basic_string@DU?$char_traits@D@std@@V?$allocator@D@2@@0@0AAV?$allocator@V?$basic_string@DU?$char_traits@D@std@@V?$allocator@D@2@@std@@@0@U_Nonscalar_ptr_iterator_tag@0@@Z ; std::_Destroy_range<std::basic_string<char,std::char_traits<char>,std::allocator<char> >,std::allocator<std::basic_string<char,std::char_traits<char>,std::allocator<char> > > >
; Function compile flags: /Odt
;	COMDAT ??$_Destroy_range@V?$basic_string@DU?$char_traits@D@std@@V?$allocator@D@2@@std@@V?$allocator@V?$basic_string@DU?$char_traits@D@std@@V?$allocator@D@2@@std@@@2@@std@@YAXPAV?$basic_string@DU?$char_traits@D@std@@V?$allocator@D@2@@0@0AAV?$allocator@V?$basic_string@DU?$char_traits@D@std@@V?$allocator@D@2@@std@@@0@@Z
_TEXT	SEGMENT
$T208278 = -1						; size = 1
__First$ = 8						; size = 4
__Last$ = 12						; size = 4
__Al$ = 16						; size = 4
??$_Destroy_range@V?$basic_string@DU?$char_traits@D@std@@V?$allocator@D@2@@std@@V?$allocator@V?$basic_string@DU?$char_traits@D@std@@V?$allocator@D@2@@std@@@2@@std@@YAXPAV?$basic_string@DU?$char_traits@D@std@@V?$allocator@D@2@@0@0AAV?$allocator@V?$basic_string@DU?$char_traits@D@std@@V?$allocator@D@2@@std@@@0@@Z PROC NEAR ; std::_Destroy_range<std::basic_string<char,std::char_traits<char>,std::allocator<char> >,std::allocator<std::basic_string<char,std::char_traits<char>,std::allocator<char> > > >, COMDAT

; 216  : 	{	// destroy [_First, _Last)

  00000	55		 push	 ebp
  00001	8b ec		 mov	 ebp, esp
  00003	51		 push	 ecx

; 217  : 	_Destroy_range(_First, _Last, _Al, _Ptr_cat(_First, _Last));

  00004	8d 45 0c	 lea	 eax, DWORD PTR __Last$[ebp]
  00007	50		 push	 eax
  00008	8d 4d 08	 lea	 ecx, DWORD PTR __First$[ebp]
  0000b	51		 push	 ecx
  0000c	e8 00 00 00 00	 call	 ??$_Ptr_cat@PAV?$basic_string@DU?$char_traits@D@std@@V?$allocator@D@2@@std@@PAV12@@std@@YA?AU_Nonscalar_ptr_iterator_tag@0@AAPAV?$basic_string@DU?$char_traits@D@std@@V?$allocator@D@2@@0@0@Z ; std::_Ptr_cat<std::basic_string<char,std::char_traits<char>,std::allocator<char> > *,std::basic_string<char,std::char_traits<char>,std::allocator<char> > *>
  00011	83 c4 08	 add	 esp, 8
  00014	88 45 ff	 mov	 BYTE PTR $T208278[ebp], al
  00017	8a 55 ff	 mov	 dl, BYTE PTR $T208278[ebp]
  0001a	52		 push	 edx
  0001b	8b 45 10	 mov	 eax, DWORD PTR __Al$[ebp]
  0001e	50		 push	 eax
  0001f	8b 4d 0c	 mov	 ecx, DWORD PTR __Last$[ebp]
  00022	51		 push	 ecx
  00023	8b 55 08	 mov	 edx, DWORD PTR __First$[ebp]
  00026	52		 push	 edx
  00027	e8 00 00 00 00	 call	 ??$_Destroy_range@V?$basic_string@DU?$char_traits@D@std@@V?$allocator@D@2@@std@@V?$allocator@V?$basic_string@DU?$char_traits@D@std@@V?$allocator@D@2@@std@@@2@@std@@YAXPAV?$basic_string@DU?$char_traits@D@std@@V?$allocator@D@2@@0@0AAV?$allocator@V?$basic_string@DU?$char_traits@D@std@@V?$allocator@D@2@@std@@@0@U_Nonscalar_ptr_iterator_tag@0@@Z ; std::_Destroy_range<std::basic_string<char,std::char_traits<char>,std::allocator<char> >,std::allocator<std::basic_string<char,std::char_traits<char>,std::allocator<char> > > >
  0002c	83 c4 10	 add	 esp, 16			; 00000010H

; 218  : 	}

  0002f	8b e5		 mov	 esp, ebp
  00031	5d		 pop	 ebp
  00032	c3		 ret	 0
??$_Destroy_range@V?$basic_string@DU?$char_traits@D@std@@V?$allocator@D@2@@std@@V?$allocator@V?$basic_string@DU?$char_traits@D@std@@V?$allocator@D@2@@std@@@2@@std@@YAXPAV?$basic_string@DU?$char_traits@D@std@@V?$allocator@D@2@@0@0AAV?$allocator@V?$basic_string@DU?$char_traits@D@std@@V?$allocator@D@2@@std@@@0@@Z ENDP ; std::_Destroy_range<std::basic_string<char,std::char_traits<char>,std::allocator<char> >,std::allocator<std::basic_string<char,std::char_traits<char>,std::allocator<char> > > >
_TEXT	ENDS
PUBLIC	??$_Uninitialized_copy@PAV?$basic_string@DU?$char_traits@D@std@@V?$allocator@D@2@@std@@PAV12@V?$allocator@V?$basic_string@DU?$char_traits@D@std@@V?$allocator@D@2@@std@@@2@@std@@YAPAV?$basic_string@DU?$char_traits@D@std@@V?$allocator@D@2@@0@PAV10@00AAV?$allocator@V?$basic_string@DU?$char_traits@D@std@@V?$allocator@D@2@@std@@@0@@Z ; std::_Uninitialized_copy<std::basic_string<char,std::char_traits<char>,std::allocator<char> > *,std::basic_string<char,std::char_traits<char>,std::allocator<char> > *,std::allocator<std::basic_string<char,std::char_traits<char>,std::allocator<char> > > >
; Function compile flags: /Odt
; File d:\program files (x86)\microsoft visual studio .net 2003\vc7\include\vector
;	COMDAT ??$_Ucopy@PAV?$basic_string@DU?$char_traits@D@std@@V?$allocator@D@2@@std@@@?$vector@V?$basic_string@DU?$char_traits@D@std@@V?$allocator@D@2@@std@@V?$allocator@V?$basic_string@DU?$char_traits@D@std@@V?$allocator@D@2@@std@@@2@@std@@IAEPAV?$basic_string@DU?$char_traits@D@std@@V?$allocator@D@2@@1@PAV21@00@Z
_TEXT	SEGMENT
_this$ = -4						; size = 4
__First$ = 8						; size = 4
__Last$ = 12						; size = 4
__Ptr$ = 16						; size = 4
??$_Ucopy@PAV?$basic_string@DU?$char_traits@D@std@@V?$allocator@D@2@@std@@@?$vector@V?$basic_string@DU?$char_traits@D@std@@V?$allocator@D@2@@std@@V?$allocator@V?$basic_string@DU?$char_traits@D@std@@V?$allocator@D@2@@std@@@2@@std@@IAEPAV?$basic_string@DU?$char_traits@D@std@@V?$allocator@D@2@@1@PAV21@00@Z PROC NEAR ; std::vector<std::basic_string<char,std::char_traits<char>,std::allocator<char> >,std::allocator<std::basic_string<char,std::char_traits<char>,std::allocator<char> > > >::_Ucopy<std::basic_string<char,std::char_traits<char>,std::allocator<char> > *>, COMDAT
; _this$ = ecx

; 801  : 		pointer _Ucopy(_Iter _First, _Iter _Last, pointer _Ptr)

  00000	55		 push	 ebp
  00001	8b ec		 mov	 ebp, esp
  00003	51		 push	 ecx
  00004	89 4d fc	 mov	 DWORD PTR _this$[ebp], ecx

; 802  : 		{	// copy initializing [_First, _Last), using allocator
; 803  : 		return (_Uninitialized_copy(_First, _Last,
; 804  : 			_Ptr, this->_Alval));

  00007	8b 45 fc	 mov	 eax, DWORD PTR _this$[ebp]
  0000a	50		 push	 eax
  0000b	8b 4d 10	 mov	 ecx, DWORD PTR __Ptr$[ebp]
  0000e	51		 push	 ecx
  0000f	8b 55 0c	 mov	 edx, DWORD PTR __Last$[ebp]
  00012	52		 push	 edx
  00013	8b 45 08	 mov	 eax, DWORD PTR __First$[ebp]
  00016	50		 push	 eax
  00017	e8 00 00 00 00	 call	 ??$_Uninitialized_copy@PAV?$basic_string@DU?$char_traits@D@std@@V?$allocator@D@2@@std@@PAV12@V?$allocator@V?$basic_string@DU?$char_traits@D@std@@V?$allocator@D@2@@std@@@2@@std@@YAPAV?$basic_string@DU?$char_traits@D@std@@V?$allocator@D@2@@0@PAV10@00AAV?$allocator@V?$basic_string@DU?$char_traits@D@std@@V?$allocator@D@2@@std@@@0@@Z ; std::_Uninitialized_copy<std::basic_string<char,std::char_traits<char>,std::allocator<char> > *,std::basic_string<char,std::char_traits<char>,std::allocator<char> > *,std::allocator<std::basic_string<char,std::char_traits<char>,std::allocator<char> > > >
  0001c	83 c4 10	 add	 esp, 16			; 00000010H

; 805  : 		}

  0001f	8b e5		 mov	 esp, ebp
  00021	5d		 pop	 ebp
  00022	c2 0c 00	 ret	 12			; 0000000cH
??$_Ucopy@PAV?$basic_string@DU?$char_traits@D@std@@V?$allocator@D@2@@std@@@?$vector@V?$basic_string@DU?$char_traits@D@std@@V?$allocator@D@2@@std@@V?$allocator@V?$basic_string@DU?$char_traits@D@std@@V?$allocator@D@2@@std@@@2@@std@@IAEPAV?$basic_string@DU?$char_traits@D@std@@V?$allocator@D@2@@1@PAV21@00@Z ENDP ; std::vector<std::basic_string<char,std::char_traits<char>,std::allocator<char> >,std::allocator<std::basic_string<char,std::char_traits<char>,std::allocator<char> > > >::_Ucopy<std::basic_string<char,std::char_traits<char>,std::allocator<char> > *>
; Function compile flags: /Odt
; File d:\program files (x86)\microsoft visual studio .net 2003\vc7\include\xutility
_TEXT	ENDS
;	COMDAT ??$fill@PAV?$basic_string@DU?$char_traits@D@std@@V?$allocator@D@2@@std@@V12@@std@@YAXPAV?$basic_string@DU?$char_traits@D@std@@V?$allocator@D@2@@0@0ABV10@@Z
_TEXT	SEGMENT
__First$ = 8						; size = 4
__Last$ = 12						; size = 4
__Val$ = 16						; size = 4
??$fill@PAV?$basic_string@DU?$char_traits@D@std@@V?$allocator@D@2@@std@@V12@@std@@YAXPAV?$basic_string@DU?$char_traits@D@std@@V?$allocator@D@2@@0@0ABV10@@Z PROC NEAR ; std::fill<std::basic_string<char,std::char_traits<char>,std::allocator<char> > *,std::basic_string<char,std::char_traits<char>,std::allocator<char> > >, COMDAT

; 1134 : 	{	// copy _Val through [_First, _Last)

  00000	55		 push	 ebp
  00001	8b ec		 mov	 ebp, esp

; 1135 : 	for (; _First != _Last; ++_First)

  00003	eb 09		 jmp	 SHORT $L205947
$L205948:
  00005	8b 45 08	 mov	 eax, DWORD PTR __First$[ebp]
  00008	83 c0 1c	 add	 eax, 28			; 0000001cH
  0000b	89 45 08	 mov	 DWORD PTR __First$[ebp], eax
$L205947:
  0000e	8b 4d 08	 mov	 ecx, DWORD PTR __First$[ebp]
  00011	3b 4d 0c	 cmp	 ecx, DWORD PTR __Last$[ebp]
  00014	74 0f		 je	 SHORT $L205946

; 1136 : 		*_First = _Val;

  00016	8b 55 10	 mov	 edx, DWORD PTR __Val$[ebp]
  00019	52		 push	 edx
  0001a	8b 4d 08	 mov	 ecx, DWORD PTR __First$[ebp]
  0001d	ff 15 00 00 00
	00		 call	 DWORD PTR __imp_??4?$basic_string@DU?$char_traits@D@std@@V?$allocator@D@2@@std@@QAEAAV01@ABV01@@Z
  00023	eb e0		 jmp	 SHORT $L205948
$L205946:

; 1137 : 	}

  00025	5d		 pop	 ebp
  00026	c3		 ret	 0
??$fill@PAV?$basic_string@DU?$char_traits@D@std@@V?$allocator@D@2@@std@@V12@@std@@YAXPAV?$basic_string@DU?$char_traits@D@std@@V?$allocator@D@2@@0@0ABV10@@Z ENDP ; std::fill<std::basic_string<char,std::char_traits<char>,std::allocator<char> > *,std::basic_string<char,std::char_traits<char>,std::allocator<char> > >
_TEXT	ENDS
PUBLIC	??$_Copy_backward_opt@PAV?$basic_string@DU?$char_traits@D@std@@V?$allocator@D@2@@std@@PAV12@@std@@YAPAV?$basic_string@DU?$char_traits@D@std@@V?$allocator@D@2@@0@PAV10@00U_Nonscalar_ptr_iterator_tag@0@@Z ; std::_Copy_backward_opt<std::basic_string<char,std::char_traits<char>,std::allocator<char> > *,std::basic_string<char,std::char_traits<char>,std::allocator<char> > *>
; Function compile flags: /Odt
;	COMDAT ??$copy_backward@PAV?$basic_string@DU?$char_traits@D@std@@V?$allocator@D@2@@std@@PAV12@@std@@YAPAV?$basic_string@DU?$char_traits@D@std@@V?$allocator@D@2@@0@PAV10@00@Z
_TEXT	SEGMENT
$T208285 = -1						; size = 1
__First$ = 8						; size = 4
__Last$ = 12						; size = 4
__Dest$ = 16						; size = 4
??$copy_backward@PAV?$basic_string@DU?$char_traits@D@std@@V?$allocator@D@2@@std@@PAV12@@std@@YAPAV?$basic_string@DU?$char_traits@D@std@@V?$allocator@D@2@@0@PAV10@00@Z PROC NEAR ; std::copy_backward<std::basic_string<char,std::char_traits<char>,std::allocator<char> > *,std::basic_string<char,std::char_traits<char>,std::allocator<char> > *>, COMDAT

; 1067 : 	{	// copy [_First, _Last) backwards to [..., _Dest)

  00000	55		 push	 ebp
  00001	8b ec		 mov	 ebp, esp
  00003	51		 push	 ecx

; 1068 : 	return (_Copy_backward_opt(_First, _Last, _Dest,
; 1069 : 		_Ptr_cat(_First, _Dest)));

  00004	8d 45 10	 lea	 eax, DWORD PTR __Dest$[ebp]
  00007	50		 push	 eax
  00008	8d 4d 08	 lea	 ecx, DWORD PTR __First$[ebp]
  0000b	51		 push	 ecx
  0000c	e8 00 00 00 00	 call	 ??$_Ptr_cat@PAV?$basic_string@DU?$char_traits@D@std@@V?$allocator@D@2@@std@@PAV12@@std@@YA?AU_Nonscalar_ptr_iterator_tag@0@AAPAV?$basic_string@DU?$char_traits@D@std@@V?$allocator@D@2@@0@0@Z ; std::_Ptr_cat<std::basic_string<char,std::char_traits<char>,std::allocator<char> > *,std::basic_string<char,std::char_traits<char>,std::allocator<char> > *>
  00011	83 c4 08	 add	 esp, 8
  00014	88 45 ff	 mov	 BYTE PTR $T208285[ebp], al
  00017	8a 55 ff	 mov	 dl, BYTE PTR $T208285[ebp]
  0001a	52		 push	 edx
  0001b	8b 45 10	 mov	 eax, DWORD PTR __Dest$[ebp]
  0001e	50		 push	 eax
  0001f	8b 4d 0c	 mov	 ecx, DWORD PTR __Last$[ebp]
  00022	51		 push	 ecx
  00023	8b 55 08	 mov	 edx, DWORD PTR __First$[ebp]
  00026	52		 push	 edx
  00027	e8 00 00 00 00	 call	 ??$_Copy_backward_opt@PAV?$basic_string@DU?$char_traits@D@std@@V?$allocator@D@2@@std@@PAV12@@std@@YAPAV?$basic_string@DU?$char_traits@D@std@@V?$allocator@D@2@@0@PAV10@00U_Nonscalar_ptr_iterator_tag@0@@Z ; std::_Copy_backward_opt<std::basic_string<char,std::char_traits<char>,std::allocator<char> > *,std::basic_string<char,std::char_traits<char>,std::allocator<char> > *>
  0002c	83 c4 10	 add	 esp, 16			; 00000010H

; 1070 : 	}

  0002f	8b e5		 mov	 esp, ebp
  00031	5d		 pop	 ebp
  00032	c3		 ret	 0
??$copy_backward@PAV?$basic_string@DU?$char_traits@D@std@@V?$allocator@D@2@@std@@PAV12@@std@@YAPAV?$basic_string@DU?$char_traits@D@std@@V?$allocator@D@2@@0@PAV10@00@Z ENDP ; std::copy_backward<std::basic_string<char,std::char_traits<char>,std::allocator<char> > *,std::basic_string<char,std::char_traits<char>,std::allocator<char> > *>
; Function compile flags: /Odt
_TEXT	ENDS
;	COMDAT ??$_Ptr_cat@PAV?$basic_string@DU?$char_traits@D@std@@V?$allocator@D@2@@std@@PAV12@@std@@YA?AU_Nonscalar_ptr_iterator_tag@0@AAPAV?$basic_string@DU?$char_traits@D@std@@V?$allocator@D@2@@0@0@Z
_TEXT	SEGMENT
__Cat$ = -1						; size = 1
___formal$ = 8						; size = 4
___formal$ = 12						; size = 4
??$_Ptr_cat@PAV?$basic_string@DU?$char_traits@D@std@@V?$allocator@D@2@@std@@PAV12@@std@@YA?AU_Nonscalar_ptr_iterator_tag@0@AAPAV?$basic_string@DU?$char_traits@D@std@@V?$allocator@D@2@@0@0@Z PROC NEAR ; std::_Ptr_cat<std::basic_string<char,std::char_traits<char>,std::allocator<char> > *,std::basic_string<char,std::char_traits<char>,std::allocator<char> > *>, COMDAT

; 211  : 	{	// return pointer category from arbitrary arguments

  00000	55		 push	 ebp
  00001	8b ec		 mov	 ebp, esp
  00003	51		 push	 ecx

; 212  : 	_Nonscalar_ptr_iterator_tag _Cat;
; 213  : 	return (_Cat);

  00004	8a 45 ff	 mov	 al, BYTE PTR __Cat$[ebp]

; 214  : 	}

  00007	8b e5		 mov	 esp, ebp
  00009	5d		 pop	 ebp
  0000a	c3		 ret	 0
??$_Ptr_cat@PAV?$basic_string@DU?$char_traits@D@std@@V?$allocator@D@2@@std@@PAV12@@std@@YA?AU_Nonscalar_ptr_iterator_tag@0@AAPAV?$basic_string@DU?$char_traits@D@std@@V?$allocator@D@2@@0@0@Z ENDP ; std::_Ptr_cat<std::basic_string<char,std::char_traits<char>,std::allocator<char> > *,std::basic_string<char,std::char_traits<char>,std::allocator<char> > *>
_TEXT	ENDS
PUBLIC	?construct@?$allocator@V?$basic_string@DU?$char_traits@D@std@@V?$allocator@D@2@@std@@@std@@QAEXPAV?$basic_string@DU?$char_traits@D@std@@V?$allocator@D@2@@2@ABV32@@Z ; std::allocator<std::basic_string<char,std::char_traits<char>,std::allocator<char> > >::construct
PUBLIC	?destroy@?$allocator@V?$basic_string@DU?$char_traits@D@std@@V?$allocator@D@2@@std@@@std@@QAEXPAV?$basic_string@DU?$char_traits@D@std@@V?$allocator@D@2@@2@@Z ; std::allocator<std::basic_string<char,std::char_traits<char>,std::allocator<char> > >::destroy
;	COMDAT xdata$x
; File d:\program files (x86)\microsoft visual studio .net 2003\vc7\include\memory
xdata$x	SEGMENT
$T208295 DD	0ffffffffH
	DD	00H
	DD	0ffffffffH
	DD	00H
$T208297 DD	00H
	DD	00H
	DD	00H
	DD	FLAT:$L208291
$T208296 DD	00H
	DD	00H
	DD	01H
	DD	01H
	DD	FLAT:$T208297
$T208293 DD	019930520H
	DD	02H
	DD	FLAT:$T208295
	DD	01H
	DD	FLAT:$T208296
	DD	2 DUP(00H)
; Function compile flags: /Odt
xdata$x	ENDS
;	COMDAT ??$_Uninit_fill_n@PAV?$basic_string@DU?$char_traits@D@std@@V?$allocator@D@2@@std@@IV12@V?$allocator@V?$basic_string@DU?$char_traits@D@std@@V?$allocator@D@2@@std@@@2@@std@@YAXPAV?$basic_string@DU?$char_traits@D@std@@V?$allocator@D@2@@0@IABV10@AAV?$allocator@V?$basic_string@DU?$char_traits@D@std@@V?$allocator@D@2@@std@@@0@U_Nonscalar_ptr_iterator_tag@0@@Z
_TEXT	SEGMENT
__Next$ = -20						; size = 4
__$EHRec$ = -16						; size = 16
__First$ = 8						; size = 4
__Count$ = 12						; size = 4
__Val$ = 16						; size = 4
__Al$ = 20						; size = 4
___formal$ = 24						; size = 1
??$_Uninit_fill_n@PAV?$basic_string@DU?$char_traits@D@std@@V?$allocator@D@2@@std@@IV12@V?$allocator@V?$basic_string@DU?$char_traits@D@std@@V?$allocator@D@2@@std@@@2@@std@@YAXPAV?$basic_string@DU?$char_traits@D@std@@V?$allocator@D@2@@0@IABV10@AAV?$allocator@V?$basic_string@DU?$char_traits@D@std@@V?$allocator@D@2@@std@@@0@U_Nonscalar_ptr_iterator_tag@0@@Z PROC NEAR ; std::_Uninit_fill_n<std::basic_string<char,std::char_traits<char>,std::allocator<char> > *,unsigned int,std::basic_string<char,std::char_traits<char>,std::allocator<char> >,std::allocator<std::basic_string<char,std::char_traits<char>,std::allocator<char> > > >, COMDAT

; 207  : 	{	// copy _Count *_Val to raw _First, using _Al, arbitrary type

  00000	55		 push	 ebp
  00001	8b ec		 mov	 ebp, esp
  00003	6a ff		 push	 -1
  00005	68 00 00 00 00	 push	 __ehhandler$??$_Uninit_fill_n@PAV?$basic_string@DU?$char_traits@D@std@@V?$allocator@D@2@@std@@IV12@V?$allocator@V?$basic_string@DU?$char_traits@D@std@@V?$allocator@D@2@@std@@@2@@std@@YAXPAV?$basic_string@DU?$char_traits@D@std@@V?$allocator@D@2@@0@IABV10@AAV?$allocator@V?$basic_string@DU?$char_traits@D@std@@V?$allocator@D@2@@std@@@0@U_Nonscalar_ptr_iterator_tag@0@@Z
  0000a	64 a1 00 00 00
	00		 mov	 eax, DWORD PTR fs:__except_list
  00010	50		 push	 eax
  00011	64 89 25 00 00
	00 00		 mov	 DWORD PTR fs:__except_list, esp
  00018	51		 push	 ecx
  00019	51		 push	 ecx
  0001a	53		 push	 ebx
  0001b	56		 push	 esi
  0001c	57		 push	 edi
  0001d	89 65 f0	 mov	 DWORD PTR __$EHRec$[ebp], esp

; 208  : 	_FwdIt _Next = _First;

  00020	8b 45 08	 mov	 eax, DWORD PTR __First$[ebp]
  00023	89 45 ec	 mov	 DWORD PTR __Next$[ebp], eax

; 209  : 
; 210  : 	_TRY_BEGIN

  00026	c7 45 fc 00 00
	00 00		 mov	 DWORD PTR __$EHRec$[ebp+12], 0

; 211  : 	for (; 0 < _Count; --_Count, ++_First)

  0002d	eb 12		 jmp	 SHORT $L205975
$L205976:
  0002f	8b 4d 0c	 mov	 ecx, DWORD PTR __Count$[ebp]
  00032	83 e9 01	 sub	 ecx, 1
  00035	89 4d 0c	 mov	 DWORD PTR __Count$[ebp], ecx
  00038	8b 55 08	 mov	 edx, DWORD PTR __First$[ebp]
  0003b	83 c2 1c	 add	 edx, 28			; 0000001cH
  0003e	89 55 08	 mov	 DWORD PTR __First$[ebp], edx
$L205975:
  00041	83 7d 0c 00	 cmp	 DWORD PTR __Count$[ebp], 0
  00045	76 12		 jbe	 SHORT $L205977

; 212  : 		_Al.construct(_First, _Val);

  00047	8b 45 10	 mov	 eax, DWORD PTR __Val$[ebp]
  0004a	50		 push	 eax
  0004b	8b 4d 08	 mov	 ecx, DWORD PTR __First$[ebp]
  0004e	51		 push	 ecx
  0004f	8b 4d 14	 mov	 ecx, DWORD PTR __Al$[ebp]
  00052	e8 00 00 00 00	 call	 ?construct@?$allocator@V?$basic_string@DU?$char_traits@D@std@@V?$allocator@D@2@@std@@@std@@QAEXPAV?$basic_string@DU?$char_traits@D@std@@V?$allocator@D@2@@2@ABV32@@Z ; std::allocator<std::basic_string<char,std::char_traits<char>,std::allocator<char> > >::construct
  00057	eb d6		 jmp	 SHORT $L205976
$L205977:
  00059	eb 2a		 jmp	 SHORT $L208290
$L208291:

; 213  : 	_CATCH_ALL
; 214  : 	for (; _Next != _First; ++_Next)

  0005b	eb 09		 jmp	 SHORT $L205978
$L205979:
  0005d	8b 55 ec	 mov	 edx, DWORD PTR __Next$[ebp]
  00060	83 c2 1c	 add	 edx, 28			; 0000001cH
  00063	89 55 ec	 mov	 DWORD PTR __Next$[ebp], edx
$L205978:
  00066	8b 45 ec	 mov	 eax, DWORD PTR __Next$[ebp]
  00069	3b 45 08	 cmp	 eax, DWORD PTR __First$[ebp]
  0006c	74 0e		 je	 SHORT $L205980

; 215  : 		_Al.destroy(_Next);

  0006e	8b 4d ec	 mov	 ecx, DWORD PTR __Next$[ebp]
  00071	51		 push	 ecx
  00072	8b 4d 14	 mov	 ecx, DWORD PTR __Al$[ebp]
  00075	e8 00 00 00 00	 call	 ?destroy@?$allocator@V?$basic_string@DU?$char_traits@D@std@@V?$allocator@D@2@@std@@@std@@QAEXPAV?$basic_string@DU?$char_traits@D@std@@V?$allocator@D@2@@2@@Z ; std::allocator<std::basic_string<char,std::char_traits<char>,std::allocator<char> > >::destroy
  0007a	eb e1		 jmp	 SHORT $L205979
$L205980:

; 216  : 	_RERAISE;

  0007c	6a 00		 push	 0
  0007e	6a 00		 push	 0
  00080	e8 00 00 00 00	 call	 __CxxThrowException@8
$L208290:

; 217  : 	_CATCH_END

  00085	c7 45 fc ff ff
	ff ff		 mov	 DWORD PTR __$EHRec$[ebp+12], -1
$L208289:

; 218  : 	}

  0008c	8b 4d f4	 mov	 ecx, DWORD PTR __$EHRec$[ebp+4]
  0008f	64 89 0d 00 00
	00 00		 mov	 DWORD PTR fs:__except_list, ecx
  00096	5f		 pop	 edi
  00097	5e		 pop	 esi
  00098	5b		 pop	 ebx
  00099	8b e5		 mov	 esp, ebp
  0009b	5d		 pop	 ebp
  0009c	c3		 ret	 0
_TEXT	ENDS
;	COMDAT text$x
text$x	SEGMENT
__ehhandler$??$_Uninit_fill_n@PAV?$basic_string@DU?$char_traits@D@std@@V?$allocator@D@2@@std@@IV12@V?$allocator@V?$basic_string@DU?$char_traits@D@std@@V?$allocator@D@2@@std@@@2@@std@@YAXPAV?$basic_string@DU?$char_traits@D@std@@V?$allocator@D@2@@0@IABV10@AAV?$allocator@V?$basic_string@DU?$char_traits@D@std@@V?$allocator@D@2@@std@@@0@U_Nonscalar_ptr_iterator_tag@0@@Z:
  00000	b8 00 00 00 00	 mov	 eax, OFFSET FLAT:$T208293
  00005	e9 00 00 00 00	 jmp	 ___CxxFrameHandler
text$x	ENDS
??$_Uninit_fill_n@PAV?$basic_string@DU?$char_traits@D@std@@V?$allocator@D@2@@std@@IV12@V?$allocator@V?$basic_string@DU?$char_traits@D@std@@V?$allocator@D@2@@std@@@2@@std@@YAXPAV?$basic_string@DU?$char_traits@D@std@@V?$allocator@D@2@@0@IABV10@AAV?$allocator@V?$basic_string@DU?$char_traits@D@std@@V?$allocator@D@2@@std@@@0@U_Nonscalar_ptr_iterator_tag@0@@Z ENDP ; std::_Uninit_fill_n<std::basic_string<char,std::char_traits<char>,std::allocator<char> > *,unsigned int,std::basic_string<char,std::char_traits<char>,std::allocator<char> >,std::allocator<std::basic_string<char,std::char_traits<char>,std::allocator<char> > > >
; Function compile flags: /Odt
; File d:\program files (x86)\microsoft visual studio .net 2003\vc7\include\xmemory
;	COMDAT ??$_Destroy_range@V?$basic_string@DU?$char_traits@D@std@@V?$allocator@D@2@@std@@V?$allocator@V?$basic_string@DU?$char_traits@D@std@@V?$allocator@D@2@@std@@@2@@std@@YAXPAV?$basic_string@DU?$char_traits@D@std@@V?$allocator@D@2@@0@0AAV?$allocator@V?$basic_string@DU?$char_traits@D@std@@V?$allocator@D@2@@std@@@0@U_Nonscalar_ptr_iterator_tag@0@@Z
_TEXT	SEGMENT
__First$ = 8						; size = 4
__Last$ = 12						; size = 4
__Al$ = 16						; size = 4
___formal$ = 20						; size = 1
??$_Destroy_range@V?$basic_string@DU?$char_traits@D@std@@V?$allocator@D@2@@std@@V?$allocator@V?$basic_string@DU?$char_traits@D@std@@V?$allocator@D@2@@std@@@2@@std@@YAXPAV?$basic_string@DU?$char_traits@D@std@@V?$allocator@D@2@@0@0AAV?$allocator@V?$basic_string@DU?$char_traits@D@std@@V?$allocator@D@2@@std@@@0@U_Nonscalar_ptr_iterator_tag@0@@Z PROC NEAR ; std::_Destroy_range<std::basic_string<char,std::char_traits<char>,std::allocator<char> >,std::allocator<std::basic_string<char,std::char_traits<char>,std::allocator<char> > > >, COMDAT

; 224  : 	{	// destroy [_First, _Last), arbitrary type

  00000	55		 push	 ebp
  00001	8b ec		 mov	 ebp, esp

; 225  : 	for (; _First != _Last; ++_First)

  00003	eb 09		 jmp	 SHORT $L205982
$L205983:
  00005	8b 45 08	 mov	 eax, DWORD PTR __First$[ebp]
  00008	83 c0 1c	 add	 eax, 28			; 0000001cH
  0000b	89 45 08	 mov	 DWORD PTR __First$[ebp], eax
$L205982:
  0000e	8b 4d 08	 mov	 ecx, DWORD PTR __First$[ebp]
  00011	3b 4d 0c	 cmp	 ecx, DWORD PTR __Last$[ebp]
  00014	74 0e		 je	 SHORT $L205981

; 226  : 		_Al.destroy(_First);

  00016	8b 55 08	 mov	 edx, DWORD PTR __First$[ebp]
  00019	52		 push	 edx
  0001a	8b 4d 10	 mov	 ecx, DWORD PTR __Al$[ebp]
  0001d	e8 00 00 00 00	 call	 ?destroy@?$allocator@V?$basic_string@DU?$char_traits@D@std@@V?$allocator@D@2@@std@@@std@@QAEXPAV?$basic_string@DU?$char_traits@D@std@@V?$allocator@D@2@@2@@Z ; std::allocator<std::basic_string<char,std::char_traits<char>,std::allocator<char> > >::destroy
  00022	eb e1		 jmp	 SHORT $L205983
$L205981:

; 227  : 	}

  00024	5d		 pop	 ebp
  00025	c3		 ret	 0
??$_Destroy_range@V?$basic_string@DU?$char_traits@D@std@@V?$allocator@D@2@@std@@V?$allocator@V?$basic_string@DU?$char_traits@D@std@@V?$allocator@D@2@@std@@@2@@std@@YAXPAV?$basic_string@DU?$char_traits@D@std@@V?$allocator@D@2@@0@0AAV?$allocator@V?$basic_string@DU?$char_traits@D@std@@V?$allocator@D@2@@std@@@0@U_Nonscalar_ptr_iterator_tag@0@@Z ENDP ; std::_Destroy_range<std::basic_string<char,std::char_traits<char>,std::allocator<char> >,std::allocator<std::basic_string<char,std::char_traits<char>,std::allocator<char> > > >
_TEXT	ENDS
PUBLIC	??$_Uninit_copy@PAV?$basic_string@DU?$char_traits@D@std@@V?$allocator@D@2@@std@@PAV12@V?$allocator@V?$basic_string@DU?$char_traits@D@std@@V?$allocator@D@2@@std@@@2@@std@@YAPAV?$basic_string@DU?$char_traits@D@std@@V?$allocator@D@2@@0@PAV10@00AAV?$allocator@V?$basic_string@DU?$char_traits@D@std@@V?$allocator@D@2@@std@@@0@U_Nonscalar_ptr_iterator_tag@0@@Z ; std::_Uninit_copy<std::basic_string<char,std::char_traits<char>,std::allocator<char> > *,std::basic_string<char,std::char_traits<char>,std::allocator<char> > *,std::allocator<std::basic_string<char,std::char_traits<char>,std::allocator<char> > > >
; Function compile flags: /Odt
; File d:\program files (x86)\microsoft visual studio .net 2003\vc7\include\memory
;	COMDAT ??$_Uninitialized_copy@PAV?$basic_string@DU?$char_traits@D@std@@V?$allocator@D@2@@std@@PAV12@V?$allocator@V?$basic_string@DU?$char_traits@D@std@@V?$allocator@D@2@@std@@@2@@std@@YAPAV?$basic_string@DU?$char_traits@D@std@@V?$allocator@D@2@@0@PAV10@00AAV?$allocator@V?$basic_string@DU?$char_traits@D@std@@V?$allocator@D@2@@std@@@0@@Z
_TEXT	SEGMENT
$T208304 = -1						; size = 1
__First$ = 8						; size = 4
__Last$ = 12						; size = 4
__Dest$ = 16						; size = 4
__Al$ = 20						; size = 4
??$_Uninitialized_copy@PAV?$basic_string@DU?$char_traits@D@std@@V?$allocator@D@2@@std@@PAV12@V?$allocator@V?$basic_string@DU?$char_traits@D@std@@V?$allocator@D@2@@std@@@2@@std@@YAPAV?$basic_string@DU?$char_traits@D@std@@V?$allocator@D@2@@0@PAV10@00AAV?$allocator@V?$basic_string@DU?$char_traits@D@std@@V?$allocator@D@2@@std@@@0@@Z PROC NEAR ; std::_Uninitialized_copy<std::basic_string<char,std::char_traits<char>,std::allocator<char> > *,std::basic_string<char,std::char_traits<char>,std::allocator<char> > *,std::allocator<std::basic_string<char,std::char_traits<char>,std::allocator<char> > > >, COMDAT

; 126  : 	{	// copy [_First, _Last) to raw _Dest, using _Al

  00000	55		 push	 ebp
  00001	8b ec		 mov	 ebp, esp
  00003	51		 push	 ecx

; 127  : 	return (_Uninit_copy(_First, _Last, _Dest, _Al,
; 128  : 		_Ptr_cat(_First, _Dest)));

  00004	8d 45 10	 lea	 eax, DWORD PTR __Dest$[ebp]
  00007	50		 push	 eax
  00008	8d 4d 08	 lea	 ecx, DWORD PTR __First$[ebp]
  0000b	51		 push	 ecx
  0000c	e8 00 00 00 00	 call	 ??$_Ptr_cat@PAV?$basic_string@DU?$char_traits@D@std@@V?$allocator@D@2@@std@@PAV12@@std@@YA?AU_Nonscalar_ptr_iterator_tag@0@AAPAV?$basic_string@DU?$char_traits@D@std@@V?$allocator@D@2@@0@0@Z ; std::_Ptr_cat<std::basic_string<char,std::char_traits<char>,std::allocator<char> > *,std::basic_string<char,std::char_traits<char>,std::allocator<char> > *>
  00011	83 c4 08	 add	 esp, 8
  00014	88 45 ff	 mov	 BYTE PTR $T208304[ebp], al
  00017	8a 55 ff	 mov	 dl, BYTE PTR $T208304[ebp]
  0001a	52		 push	 edx
  0001b	8b 45 14	 mov	 eax, DWORD PTR __Al$[ebp]
  0001e	50		 push	 eax
  0001f	8b 4d 10	 mov	 ecx, DWORD PTR __Dest$[ebp]
  00022	51		 push	 ecx
  00023	8b 55 0c	 mov	 edx, DWORD PTR __Last$[ebp]
  00026	52		 push	 edx
  00027	8b 45 08	 mov	 eax, DWORD PTR __First$[ebp]
  0002a	50		 push	 eax
  0002b	e8 00 00 00 00	 call	 ??$_Uninit_copy@PAV?$basic_string@DU?$char_traits@D@std@@V?$allocator@D@2@@std@@PAV12@V?$allocator@V?$basic_string@DU?$char_traits@D@std@@V?$allocator@D@2@@std@@@2@@std@@YAPAV?$basic_string@DU?$char_traits@D@std@@V?$allocator@D@2@@0@PAV10@00AAV?$allocator@V?$basic_string@DU?$char_traits@D@std@@V?$allocator@D@2@@std@@@0@U_Nonscalar_ptr_iterator_tag@0@@Z ; std::_Uninit_copy<std::basic_string<char,std::char_traits<char>,std::allocator<char> > *,std::basic_string<char,std::char_traits<char>,std::allocator<char> > *,std::allocator<std::basic_string<char,std::char_traits<char>,std::allocator<char> > > >
  00030	83 c4 14	 add	 esp, 20			; 00000014H

; 129  : 	}

  00033	8b e5		 mov	 esp, ebp
  00035	5d		 pop	 ebp
  00036	c3		 ret	 0
??$_Uninitialized_copy@PAV?$basic_string@DU?$char_traits@D@std@@V?$allocator@D@2@@std@@PAV12@V?$allocator@V?$basic_string@DU?$char_traits@D@std@@V?$allocator@D@2@@std@@@2@@std@@YAPAV?$basic_string@DU?$char_traits@D@std@@V?$allocator@D@2@@0@PAV10@00AAV?$allocator@V?$basic_string@DU?$char_traits@D@std@@V?$allocator@D@2@@std@@@0@@Z ENDP ; std::_Uninitialized_copy<std::basic_string<char,std::char_traits<char>,std::allocator<char> > *,std::basic_string<char,std::char_traits<char>,std::allocator<char> > *,std::allocator<std::basic_string<char,std::char_traits<char>,std::allocator<char> > > >
; Function compile flags: /Odt
; File d:\program files (x86)\microsoft visual studio .net 2003\vc7\include\xutility
_TEXT	ENDS
;	COMDAT ??$_Copy_backward_opt@PAV?$basic_string@DU?$char_traits@D@std@@V?$allocator@D@2@@std@@PAV12@@std@@YAPAV?$basic_string@DU?$char_traits@D@std@@V?$allocator@D@2@@0@PAV10@00U_Nonscalar_ptr_iterator_tag@0@@Z
_TEXT	SEGMENT
__First$ = 8						; size = 4
__Last$ = 12						; size = 4
__Dest$ = 16						; size = 4
___formal$ = 20						; size = 1
??$_Copy_backward_opt@PAV?$basic_string@DU?$char_traits@D@std@@V?$allocator@D@2@@std@@PAV12@@std@@YAPAV?$basic_string@DU?$char_traits@D@std@@V?$allocator@D@2@@0@PAV10@00U_Nonscalar_ptr_iterator_tag@0@@Z PROC NEAR ; std::_Copy_backward_opt<std::basic_string<char,std::char_traits<char>,std::allocator<char> > *,std::basic_string<char,std::char_traits<char>,std::allocator<char> > *>, COMDAT

; 1048 : 	{	// copy [_First, _Last) backwards to [..., _Dest), arbitrary iterators

  00000	55		 push	 ebp
  00001	8b ec		 mov	 ebp, esp
$L206027:

; 1049 : 	while (_First != _Last)

  00003	8b 45 08	 mov	 eax, DWORD PTR __First$[ebp]
  00006	3b 45 0c	 cmp	 eax, DWORD PTR __Last$[ebp]
  00009	74 21		 je	 SHORT $L206028

; 1050 : 		*--_Dest = *--_Last;

  0000b	8b 4d 0c	 mov	 ecx, DWORD PTR __Last$[ebp]
  0000e	83 e9 1c	 sub	 ecx, 28			; 0000001cH
  00011	89 4d 0c	 mov	 DWORD PTR __Last$[ebp], ecx
  00014	8b 55 10	 mov	 edx, DWORD PTR __Dest$[ebp]
  00017	83 ea 1c	 sub	 edx, 28			; 0000001cH
  0001a	89 55 10	 mov	 DWORD PTR __Dest$[ebp], edx
  0001d	8b 45 0c	 mov	 eax, DWORD PTR __Last$[ebp]
  00020	50		 push	 eax
  00021	8b 4d 10	 mov	 ecx, DWORD PTR __Dest$[ebp]
  00024	ff 15 00 00 00
	00		 call	 DWORD PTR __imp_??4?$basic_string@DU?$char_traits@D@std@@V?$allocator@D@2@@std@@QAEAAV01@ABV01@@Z
  0002a	eb d7		 jmp	 SHORT $L206027
$L206028:

; 1051 : 	return (_Dest);

  0002c	8b 45 10	 mov	 eax, DWORD PTR __Dest$[ebp]

; 1052 : 	}

  0002f	5d		 pop	 ebp
  00030	c3		 ret	 0
??$_Copy_backward_opt@PAV?$basic_string@DU?$char_traits@D@std@@V?$allocator@D@2@@std@@PAV12@@std@@YAPAV?$basic_string@DU?$char_traits@D@std@@V?$allocator@D@2@@0@PAV10@00U_Nonscalar_ptr_iterator_tag@0@@Z ENDP ; std::_Copy_backward_opt<std::basic_string<char,std::char_traits<char>,std::allocator<char> > *,std::basic_string<char,std::char_traits<char>,std::allocator<char> > *>
_TEXT	ENDS
PUBLIC	??$_Construct@V?$basic_string@DU?$char_traits@D@std@@V?$allocator@D@2@@std@@V12@@std@@YAXPAV?$basic_string@DU?$char_traits@D@std@@V?$allocator@D@2@@0@ABV10@@Z ; std::_Construct<std::basic_string<char,std::char_traits<char>,std::allocator<char> >,std::basic_string<char,std::char_traits<char>,std::allocator<char> > >
; Function compile flags: /Odt
; File d:\program files (x86)\microsoft visual studio .net 2003\vc7\include\xmemory
;	COMDAT ?construct@?$allocator@V?$basic_string@DU?$char_traits@D@std@@V?$allocator@D@2@@std@@@std@@QAEXPAV?$basic_string@DU?$char_traits@D@std@@V?$allocator@D@2@@2@ABV32@@Z
_TEXT	SEGMENT
_this$ = -4						; size = 4
__Ptr$ = 8						; size = 4
__Val$ = 12						; size = 4
?construct@?$allocator@V?$basic_string@DU?$char_traits@D@std@@V?$allocator@D@2@@std@@@std@@QAEXPAV?$basic_string@DU?$char_traits@D@std@@V?$allocator@D@2@@2@ABV32@@Z PROC NEAR ; std::allocator<std::basic_string<char,std::char_traits<char>,std::allocator<char> > >::construct, COMDAT
; _this$ = ecx

; 146  : 		{	// construct object at _Ptr with value _Val

  00000	55		 push	 ebp
  00001	8b ec		 mov	 ebp, esp
  00003	51		 push	 ecx
  00004	89 4d fc	 mov	 DWORD PTR _this$[ebp], ecx

; 147  : 		_Construct(_Ptr, _Val);

  00007	8b 45 0c	 mov	 eax, DWORD PTR __Val$[ebp]
  0000a	50		 push	 eax
  0000b	8b 4d 08	 mov	 ecx, DWORD PTR __Ptr$[ebp]
  0000e	51		 push	 ecx
  0000f	e8 00 00 00 00	 call	 ??$_Construct@V?$basic_string@DU?$char_traits@D@std@@V?$allocator@D@2@@std@@V12@@std@@YAXPAV?$basic_string@DU?$char_traits@D@std@@V?$allocator@D@2@@0@ABV10@@Z ; std::_Construct<std::basic_string<char,std::char_traits<char>,std::allocator<char> >,std::basic_string<char,std::char_traits<char>,std::allocator<char> > >
  00014	83 c4 08	 add	 esp, 8

; 148  : 		}

  00017	8b e5		 mov	 esp, ebp
  00019	5d		 pop	 ebp
  0001a	c2 08 00	 ret	 8
?construct@?$allocator@V?$basic_string@DU?$char_traits@D@std@@V?$allocator@D@2@@std@@@std@@QAEXPAV?$basic_string@DU?$char_traits@D@std@@V?$allocator@D@2@@2@ABV32@@Z ENDP ; std::allocator<std::basic_string<char,std::char_traits<char>,std::allocator<char> > >::construct
_TEXT	ENDS
PUBLIC	??$_Destroy@V?$basic_string@DU?$char_traits@D@std@@V?$allocator@D@2@@std@@@std@@YAXPAV?$basic_string@DU?$char_traits@D@std@@V?$allocator@D@2@@0@@Z ; std::_Destroy<std::basic_string<char,std::char_traits<char>,std::allocator<char> > >
; Function compile flags: /Odt
;	COMDAT ?destroy@?$allocator@V?$basic_string@DU?$char_traits@D@std@@V?$allocator@D@2@@std@@@std@@QAEXPAV?$basic_string@DU?$char_traits@D@std@@V?$allocator@D@2@@2@@Z
_TEXT	SEGMENT
_this$ = -4						; size = 4
__Ptr$ = 8						; size = 4
?destroy@?$allocator@V?$basic_string@DU?$char_traits@D@std@@V?$allocator@D@2@@std@@@std@@QAEXPAV?$basic_string@DU?$char_traits@D@std@@V?$allocator@D@2@@2@@Z PROC NEAR ; std::allocator<std::basic_string<char,std::char_traits<char>,std::allocator<char> > >::destroy, COMDAT
; _this$ = ecx

; 151  : 		{	// destroy object at _Ptr

  00000	55		 push	 ebp
  00001	8b ec		 mov	 ebp, esp
  00003	51		 push	 ecx
  00004	89 4d fc	 mov	 DWORD PTR _this$[ebp], ecx

; 152  : 		_Destroy(_Ptr);

  00007	8b 45 08	 mov	 eax, DWORD PTR __Ptr$[ebp]
  0000a	50		 push	 eax
  0000b	e8 00 00 00 00	 call	 ??$_Destroy@V?$basic_string@DU?$char_traits@D@std@@V?$allocator@D@2@@std@@@std@@YAXPAV?$basic_string@DU?$char_traits@D@std@@V?$allocator@D@2@@0@@Z ; std::_Destroy<std::basic_string<char,std::char_traits<char>,std::allocator<char> > >
  00010	83 c4 04	 add	 esp, 4

; 153  : 		}

  00013	8b e5		 mov	 esp, ebp
  00015	5d		 pop	 ebp
  00016	c2 04 00	 ret	 4
?destroy@?$allocator@V?$basic_string@DU?$char_traits@D@std@@V?$allocator@D@2@@std@@@std@@QAEXPAV?$basic_string@DU?$char_traits@D@std@@V?$allocator@D@2@@2@@Z ENDP ; std::allocator<std::basic_string<char,std::char_traits<char>,std::allocator<char> > >::destroy
_TEXT	ENDS
;	COMDAT xdata$x
; File d:\program files (x86)\microsoft visual studio .net 2003\vc7\include\memory
xdata$x	SEGMENT
$T208318 DD	0ffffffffH
	DD	00H
	DD	0ffffffffH
	DD	00H
$T208320 DD	00H
	DD	00H
	DD	00H
	DD	FLAT:$L208314
$T208319 DD	00H
	DD	00H
	DD	01H
	DD	01H
	DD	FLAT:$T208320
$T208316 DD	019930520H
	DD	02H
	DD	FLAT:$T208318
	DD	01H
	DD	FLAT:$T208319
	DD	2 DUP(00H)
; Function compile flags: /Odt
xdata$x	ENDS
;	COMDAT ??$_Uninit_copy@PAV?$basic_string@DU?$char_traits@D@std@@V?$allocator@D@2@@std@@PAV12@V?$allocator@V?$basic_string@DU?$char_traits@D@std@@V?$allocator@D@2@@std@@@2@@std@@YAPAV?$basic_string@DU?$char_traits@D@std@@V?$allocator@D@2@@0@PAV10@00AAV?$allocator@V?$basic_string@DU?$char_traits@D@std@@V?$allocator@D@2@@std@@@0@U_Nonscalar_ptr_iterator_tag@0@@Z
_TEXT	SEGMENT
__Next$ = -20						; size = 4
__$EHRec$ = -16						; size = 16
__First$ = 8						; size = 4
__Last$ = 12						; size = 4
__Dest$ = 16						; size = 4
__Al$ = 20						; size = 4
___formal$ = 24						; size = 1
??$_Uninit_copy@PAV?$basic_string@DU?$char_traits@D@std@@V?$allocator@D@2@@std@@PAV12@V?$allocator@V?$basic_string@DU?$char_traits@D@std@@V?$allocator@D@2@@std@@@2@@std@@YAPAV?$basic_string@DU?$char_traits@D@std@@V?$allocator@D@2@@0@PAV10@00AAV?$allocator@V?$basic_string@DU?$char_traits@D@std@@V?$allocator@D@2@@std@@@0@U_Nonscalar_ptr_iterator_tag@0@@Z PROC NEAR ; std::_Uninit_copy<std::basic_string<char,std::char_traits<char>,std::allocator<char> > *,std::basic_string<char,std::char_traits<char>,std::allocator<char> > *,std::allocator<std::basic_string<char,std::char_traits<char>,std::allocator<char> > > >, COMDAT

; 77   : 	{	// copy [_First, _Last) to raw _Dest, using _Al, arbitrary type

  00000	55		 push	 ebp
  00001	8b ec		 mov	 ebp, esp
  00003	6a ff		 push	 -1
  00005	68 00 00 00 00	 push	 __ehhandler$??$_Uninit_copy@PAV?$basic_string@DU?$char_traits@D@std@@V?$allocator@D@2@@std@@PAV12@V?$allocator@V?$basic_string@DU?$char_traits@D@std@@V?$allocator@D@2@@std@@@2@@std@@YAPAV?$basic_string@DU?$char_traits@D@std@@V?$allocator@D@2@@0@PAV10@00AAV?$allocator@V?$basic_string@DU?$char_traits@D@std@@V?$allocator@D@2@@std@@@0@U_Nonscalar_ptr_iterator_tag@0@@Z
  0000a	64 a1 00 00 00
	00		 mov	 eax, DWORD PTR fs:__except_list
  00010	50		 push	 eax
  00011	64 89 25 00 00
	00 00		 mov	 DWORD PTR fs:__except_list, esp
  00018	51		 push	 ecx
  00019	51		 push	 ecx
  0001a	53		 push	 ebx
  0001b	56		 push	 esi
  0001c	57		 push	 edi
  0001d	89 65 f0	 mov	 DWORD PTR __$EHRec$[ebp], esp

; 78   : 	_FwdIt _Next = _Dest;

  00020	8b 45 10	 mov	 eax, DWORD PTR __Dest$[ebp]
  00023	89 45 ec	 mov	 DWORD PTR __Next$[ebp], eax

; 79   : 
; 80   : 	_TRY_BEGIN

  00026	c7 45 fc 00 00
	00 00		 mov	 DWORD PTR __$EHRec$[ebp+12], 0

; 81   : 	for (; _First != _Last; ++_Dest, ++_First)

  0002d	eb 12		 jmp	 SHORT $L206046
$L206047:
  0002f	8b 4d 10	 mov	 ecx, DWORD PTR __Dest$[ebp]
  00032	83 c1 1c	 add	 ecx, 28			; 0000001cH
  00035	89 4d 10	 mov	 DWORD PTR __Dest$[ebp], ecx
  00038	8b 55 08	 mov	 edx, DWORD PTR __First$[ebp]
  0003b	83 c2 1c	 add	 edx, 28			; 0000001cH
  0003e	89 55 08	 mov	 DWORD PTR __First$[ebp], edx
$L206046:
  00041	8b 45 08	 mov	 eax, DWORD PTR __First$[ebp]
  00044	3b 45 0c	 cmp	 eax, DWORD PTR __Last$[ebp]
  00047	74 12		 je	 SHORT $L206048

; 82   : 		_Al.construct(_Dest, *_First);

  00049	8b 4d 08	 mov	 ecx, DWORD PTR __First$[ebp]
  0004c	51		 push	 ecx
  0004d	8b 55 10	 mov	 edx, DWORD PTR __Dest$[ebp]
  00050	52		 push	 edx
  00051	8b 4d 14	 mov	 ecx, DWORD PTR __Al$[ebp]
  00054	e8 00 00 00 00	 call	 ?construct@?$allocator@V?$basic_string@DU?$char_traits@D@std@@V?$allocator@D@2@@std@@@std@@QAEXPAV?$basic_string@DU?$char_traits@D@std@@V?$allocator@D@2@@2@ABV32@@Z ; std::allocator<std::basic_string<char,std::char_traits<char>,std::allocator<char> > >::construct
  00059	eb d4		 jmp	 SHORT $L206047
$L206048:
  0005b	eb 2a		 jmp	 SHORT $L208313
$L208314:

; 83   : 	_CATCH_ALL
; 84   : 	for (; _Next != _Dest; ++_Next)

  0005d	eb 09		 jmp	 SHORT $L206049
$L206050:
  0005f	8b 45 ec	 mov	 eax, DWORD PTR __Next$[ebp]
  00062	83 c0 1c	 add	 eax, 28			; 0000001cH
  00065	89 45 ec	 mov	 DWORD PTR __Next$[ebp], eax
$L206049:
  00068	8b 4d ec	 mov	 ecx, DWORD PTR __Next$[ebp]
  0006b	3b 4d 10	 cmp	 ecx, DWORD PTR __Dest$[ebp]
  0006e	74 0e		 je	 SHORT $L206051

; 85   : 		_Al.destroy(_Next);

  00070	8b 55 ec	 mov	 edx, DWORD PTR __Next$[ebp]
  00073	52		 push	 edx
  00074	8b 4d 14	 mov	 ecx, DWORD PTR __Al$[ebp]
  00077	e8 00 00 00 00	 call	 ?destroy@?$allocator@V?$basic_string@DU?$char_traits@D@std@@V?$allocator@D@2@@std@@@std@@QAEXPAV?$basic_string@DU?$char_traits@D@std@@V?$allocator@D@2@@2@@Z ; std::allocator<std::basic_string<char,std::char_traits<char>,std::allocator<char> > >::destroy
  0007c	eb e1		 jmp	 SHORT $L206050
$L206051:

; 86   : 	_RERAISE;

  0007e	6a 00		 push	 0
  00080	6a 00		 push	 0
  00082	e8 00 00 00 00	 call	 __CxxThrowException@8
$L208313:

; 87   : 	_CATCH_END

  00087	c7 45 fc ff ff
	ff ff		 mov	 DWORD PTR __$EHRec$[ebp+12], -1

; 88   : 	return (_Dest);

  0008e	8b 45 10	 mov	 eax, DWORD PTR __Dest$[ebp]
$L208312:

; 89   : 	}

  00091	8b 4d f4	 mov	 ecx, DWORD PTR __$EHRec$[ebp+4]
  00094	64 89 0d 00 00
	00 00		 mov	 DWORD PTR fs:__except_list, ecx
  0009b	5f		 pop	 edi
  0009c	5e		 pop	 esi
  0009d	5b		 pop	 ebx
  0009e	8b e5		 mov	 esp, ebp
  000a0	5d		 pop	 ebp
  000a1	c3		 ret	 0
_TEXT	ENDS
;	COMDAT text$x
text$x	SEGMENT
__ehhandler$??$_Uninit_copy@PAV?$basic_string@DU?$char_traits@D@std@@V?$allocator@D@2@@std@@PAV12@V?$allocator@V?$basic_string@DU?$char_traits@D@std@@V?$allocator@D@2@@std@@@2@@std@@YAPAV?$basic_string@DU?$char_traits@D@std@@V?$allocator@D@2@@0@PAV10@00AAV?$allocator@V?$basic_string@DU?$char_traits@D@std@@V?$allocator@D@2@@std@@@0@U_Nonscalar_ptr_iterator_tag@0@@Z:
  00000	b8 00 00 00 00	 mov	 eax, OFFSET FLAT:$T208316
  00005	e9 00 00 00 00	 jmp	 ___CxxFrameHandler
text$x	ENDS
??$_Uninit_copy@PAV?$basic_string@DU?$char_traits@D@std@@V?$allocator@D@2@@std@@PAV12@V?$allocator@V?$basic_string@DU?$char_traits@D@std@@V?$allocator@D@2@@std@@@2@@std@@YAPAV?$basic_string@DU?$char_traits@D@std@@V?$allocator@D@2@@0@PAV10@00AAV?$allocator@V?$basic_string@DU?$char_traits@D@std@@V?$allocator@D@2@@std@@@0@U_Nonscalar_ptr_iterator_tag@0@@Z ENDP ; std::_Uninit_copy<std::basic_string<char,std::char_traits<char>,std::allocator<char> > *,std::basic_string<char,std::char_traits<char>,std::allocator<char> > *,std::allocator<std::basic_string<char,std::char_traits<char>,std::allocator<char> > > >
PUBLIC	??2@YAPAXIPAX@Z					; operator new
PUBLIC	??3@YAXPAX0@Z					; operator delete
;	COMDAT xdata$x
; File d:\program files (x86)\microsoft visual studio .net 2003\vc7\include\xmemory
xdata$x	SEGMENT
$T208333 DD	0ffffffffH
	DD	FLAT:$L208329
$T208331 DD	019930520H
	DD	01H
	DD	FLAT:$T208333
	DD	2 DUP(00H)
	DD	2 DUP(00H)
; Function compile flags: /Odt
xdata$x	ENDS
;	COMDAT ??$_Construct@V?$basic_string@DU?$char_traits@D@std@@V?$allocator@D@2@@std@@V12@@std@@YAXPAV?$basic_string@DU?$char_traits@D@std@@V?$allocator@D@2@@0@ABV10@@Z
_TEXT	SEGMENT
tv74 = -24						; size = 4
$T208326 = -20						; size = 4
$T208325 = -16						; size = 4
__$EHRec$ = -12						; size = 12
__Ptr$ = 8						; size = 4
__Val$ = 12						; size = 4
??$_Construct@V?$basic_string@DU?$char_traits@D@std@@V?$allocator@D@2@@std@@V12@@std@@YAXPAV?$basic_string@DU?$char_traits@D@std@@V?$allocator@D@2@@0@ABV10@@Z PROC NEAR ; std::_Construct<std::basic_string<char,std::char_traits<char>,std::allocator<char> >,std::basic_string<char,std::char_traits<char>,std::allocator<char> > >, COMDAT

; 41   : 	{	// construct object at _Ptr with value _Val

  00000	55		 push	 ebp
  00001	8b ec		 mov	 ebp, esp
  00003	6a ff		 push	 -1
  00005	68 00 00 00 00	 push	 __ehhandler$??$_Construct@V?$basic_string@DU?$char_traits@D@std@@V?$allocator@D@2@@std@@V12@@std@@YAXPAV?$basic_string@DU?$char_traits@D@std@@V?$allocator@D@2@@0@ABV10@@Z
  0000a	64 a1 00 00 00
	00		 mov	 eax, DWORD PTR fs:__except_list
  00010	50		 push	 eax
  00011	64 89 25 00 00
	00 00		 mov	 DWORD PTR fs:__except_list, esp
  00018	83 ec 0c	 sub	 esp, 12			; 0000000cH

; 42   : 	new ((void _FARQ *)_Ptr) _T1(_Val);

  0001b	8b 45 08	 mov	 eax, DWORD PTR __Ptr$[ebp]
  0001e	50		 push	 eax
  0001f	6a 1c		 push	 28			; 0000001cH
  00021	e8 00 00 00 00	 call	 ??2@YAPAXIPAX@Z		; operator new
  00026	83 c4 08	 add	 esp, 8
  00029	89 45 ec	 mov	 DWORD PTR $T208326[ebp], eax
  0002c	c7 45 fc 00 00
	00 00		 mov	 DWORD PTR __$EHRec$[ebp+8], 0
  00033	83 7d ec 00	 cmp	 DWORD PTR $T208326[ebp], 0
  00037	74 12		 je	 SHORT $L208327
  00039	8b 4d 0c	 mov	 ecx, DWORD PTR __Val$[ebp]
  0003c	51		 push	 ecx
  0003d	8b 4d ec	 mov	 ecx, DWORD PTR $T208326[ebp]
  00040	ff 15 00 00 00
	00		 call	 DWORD PTR __imp_??0?$basic_string@DU?$char_traits@D@std@@V?$allocator@D@2@@std@@QAE@ABV01@@Z
  00046	89 45 e8	 mov	 DWORD PTR tv74[ebp], eax
  00049	eb 07		 jmp	 SHORT $L208328
$L208327:
  0004b	c7 45 e8 00 00
	00 00		 mov	 DWORD PTR tv74[ebp], 0
$L208328:
  00052	8b 55 e8	 mov	 edx, DWORD PTR tv74[ebp]
  00055	89 55 f0	 mov	 DWORD PTR $T208325[ebp], edx
  00058	c7 45 fc ff ff
	ff ff		 mov	 DWORD PTR __$EHRec$[ebp+8], -1

; 43   : 	}

  0005f	8b 4d f4	 mov	 ecx, DWORD PTR __$EHRec$[ebp]
  00062	64 89 0d 00 00
	00 00		 mov	 DWORD PTR fs:__except_list, ecx
  00069	8b e5		 mov	 esp, ebp
  0006b	5d		 pop	 ebp
  0006c	c3		 ret	 0
_TEXT	ENDS
;	COMDAT text$x
text$x	SEGMENT
$L208329:
  00000	8b 45 08	 mov	 eax, DWORD PTR __Ptr$[ebp]
  00003	50		 push	 eax
  00004	8b 4d ec	 mov	 ecx, DWORD PTR $T208326[ebp]
  00007	51		 push	 ecx
  00008	e8 00 00 00 00	 call	 ??3@YAXPAX0@Z		; operator delete
  0000d	83 c4 08	 add	 esp, 8
  00010	c3		 ret	 0
__ehhandler$??$_Construct@V?$basic_string@DU?$char_traits@D@std@@V?$allocator@D@2@@std@@V12@@std@@YAXPAV?$basic_string@DU?$char_traits@D@std@@V?$allocator@D@2@@0@ABV10@@Z:
  00011	b8 00 00 00 00	 mov	 eax, OFFSET FLAT:$T208331
  00016	e9 00 00 00 00	 jmp	 ___CxxFrameHandler
text$x	ENDS
??$_Construct@V?$basic_string@DU?$char_traits@D@std@@V?$allocator@D@2@@std@@V12@@std@@YAXPAV?$basic_string@DU?$char_traits@D@std@@V?$allocator@D@2@@0@ABV10@@Z ENDP ; std::_Construct<std::basic_string<char,std::char_traits<char>,std::allocator<char> >,std::basic_string<char,std::char_traits<char>,std::allocator<char> > >
; Function compile flags: /Odt
; File d:\program files (x86)\microsoft visual studio .net 2003\vc7\include\new.h
;	COMDAT ??2@YAPAXIPAX@Z
_TEXT	SEGMENT
___formal$ = 8						; size = 4
__P$ = 12						; size = 4
??2@YAPAXIPAX@Z PROC NEAR				; operator new, COMDAT

; 109  :         {return (_P); }

  00000	55		 push	 ebp
  00001	8b ec		 mov	 ebp, esp
  00003	8b 45 0c	 mov	 eax, DWORD PTR __P$[ebp]
  00006	5d		 pop	 ebp
  00007	c3		 ret	 0
??2@YAPAXIPAX@Z ENDP					; operator new
; Function compile flags: /Odt
_TEXT	ENDS
;	COMDAT ??3@YAXPAX0@Z
_TEXT	SEGMENT
___formal$ = 8						; size = 4
___formal$ = 12						; size = 4
??3@YAXPAX0@Z PROC NEAR					; operator delete, COMDAT

; 112  :         {return; }

  00000	55		 push	 ebp
  00001	8b ec		 mov	 ebp, esp
  00003	5d		 pop	 ebp
  00004	c3		 ret	 0
??3@YAXPAX0@Z ENDP					; operator delete
_TEXT	ENDS
PUBLIC	??_G?$basic_string@DU?$char_traits@D@std@@V?$allocator@D@2@@std@@QAEPAXI@Z ; std::basic_string<char,std::char_traits<char>,std::allocator<char> >::`scalar deleting destructor'
; Function compile flags: /Odt
; File d:\program files (x86)\microsoft visual studio .net 2003\vc7\include\xmemory
;	COMDAT ??$_Destroy@V?$basic_string@DU?$char_traits@D@std@@V?$allocator@D@2@@std@@@std@@YAXPAV?$basic_string@DU?$char_traits@D@std@@V?$allocator@D@2@@0@@Z
_TEXT	SEGMENT
__Ptr$ = 8						; size = 4
??$_Destroy@V?$basic_string@DU?$char_traits@D@std@@V?$allocator@D@2@@std@@@std@@YAXPAV?$basic_string@DU?$char_traits@D@std@@V?$allocator@D@2@@0@@Z PROC NEAR ; std::_Destroy<std::basic_string<char,std::char_traits<char>,std::allocator<char> > >, COMDAT

; 48   : 	{	// destroy object at _Ptr

  00000	55		 push	 ebp
  00001	8b ec		 mov	 ebp, esp

; 49   : 	_DESTRUCTOR(_Ty, _Ptr);

  00003	6a 00		 push	 0
  00005	8b 4d 08	 mov	 ecx, DWORD PTR __Ptr$[ebp]
  00008	e8 00 00 00 00	 call	 ??_G?$basic_string@DU?$char_traits@D@std@@V?$allocator@D@2@@std@@QAEPAXI@Z

; 50   : 	}

  0000d	5d		 pop	 ebp
  0000e	c3		 ret	 0
??$_Destroy@V?$basic_string@DU?$char_traits@D@std@@V?$allocator@D@2@@std@@@std@@YAXPAV?$basic_string@DU?$char_traits@D@std@@V?$allocator@D@2@@0@@Z ENDP ; std::_Destroy<std::basic_string<char,std::char_traits<char>,std::allocator<char> > >
; Function compile flags: /Odt
_TEXT	ENDS
;	COMDAT ??_G?$basic_string@DU?$char_traits@D@std@@V?$allocator@D@2@@std@@QAEPAXI@Z
_TEXT	SEGMENT
_this$ = -4						; size = 4
___flags$ = 8						; size = 4
??_G?$basic_string@DU?$char_traits@D@std@@V?$allocator@D@2@@std@@QAEPAXI@Z PROC NEAR ; std::basic_string<char,std::char_traits<char>,std::allocator<char> >::`scalar deleting destructor', COMDAT
; _this$ = ecx
  00000	55		 push	 ebp
  00001	8b ec		 mov	 ebp, esp
  00003	51		 push	 ecx
  00004	89 4d fc	 mov	 DWORD PTR _this$[ebp], ecx
  00007	8b 4d fc	 mov	 ecx, DWORD PTR _this$[ebp]
  0000a	ff 15 00 00 00
	00		 call	 DWORD PTR __imp_??1?$basic_string@DU?$char_traits@D@std@@V?$allocator@D@2@@std@@QAE@XZ
  00010	8b 45 08	 mov	 eax, DWORD PTR ___flags$[ebp]
  00013	83 e0 01	 and	 eax, 1
  00016	74 0c		 je	 SHORT $L206063
  00018	8b 4d fc	 mov	 ecx, DWORD PTR _this$[ebp]
  0001b	51		 push	 ecx
  0001c	e8 00 00 00 00	 call	 ??3@YAXPAX@Z		; operator delete
  00021	83 c4 04	 add	 esp, 4
$L206063:
  00024	8b 45 fc	 mov	 eax, DWORD PTR _this$[ebp]
  00027	8b e5		 mov	 esp, ebp
  00029	5d		 pop	 ebp
  0002a	c2 04 00	 ret	 4
??_G?$basic_string@DU?$char_traits@D@std@@V?$allocator@D@2@@std@@QAEPAXI@Z ENDP ; std::basic_string<char,std::char_traits<char>,std::allocator<char> >::`scalar deleting destructor'
; Function compile flags: /Odt
_TEXT	ENDS
;	COMDAT ??_EGamePanelWnd@@WFE@AEPAXI@Z
_TEXT	SEGMENT
??_EGamePanelWnd@@WFE@AEPAXI@Z PROC NEAR		; [thunk]:GamePanelWnd::`vector deleting destructor', COMDAT
  00000	83 e9 54	 sub	 ecx, 84			; 00000054H
  00003	e9 00 00 00 00	 jmp	 ??_EGamePanelWnd@@UAEPAXI@Z
??_EGamePanelWnd@@WFE@AEPAXI@Z ENDP			; [thunk]:GamePanelWnd::`vector deleting destructor'
; Function compile flags: /Odt
_TEXT	ENDS
;	COMDAT ??_EGamePanelWnd@@WFI@AEPAXI@Z
_TEXT	SEGMENT
??_EGamePanelWnd@@WFI@AEPAXI@Z PROC NEAR		; [thunk]:GamePanelWnd::`vector deleting destructor', COMDAT
  00000	83 e9 58	 sub	 ecx, 88			; 00000058H
  00003	e9 00 00 00 00	 jmp	 ??_EGamePanelWnd@@UAEPAXI@Z
??_EGamePanelWnd@@WFI@AEPAXI@Z ENDP			; [thunk]:GamePanelWnd::`vector deleting destructor'
; Function compile flags: /Odt
_TEXT	ENDS
;	COMDAT ??_EGamePanelWnd@@WFM@AEPAXI@Z
_TEXT	SEGMENT
??_EGamePanelWnd@@WFM@AEPAXI@Z PROC NEAR		; [thunk]:GamePanelWnd::`vector deleting destructor', COMDAT
  00000	83 e9 5c	 sub	 ecx, 92			; 0000005cH
  00003	e9 00 00 00 00	 jmp	 ??_EGamePanelWnd@@UAEPAXI@Z
??_EGamePanelWnd@@WFM@AEPAXI@Z ENDP			; [thunk]:GamePanelWnd::`vector deleting destructor'
; Function compile flags: /Odt
; File d:\program files (x86)\microsoft visual studio .net 2003\vc7\atlmfc\include\afxwin1.inl
_TEXT	ENDS
;	COMDAT ?GetSafeHdc@CDC@@QBEPAUHDC__@@XZ
_TEXT	SEGMENT
tv66 = -8						; size = 4
_this$ = -4						; size = 4
?GetSafeHdc@CDC@@QBEPAUHDC__@@XZ PROC NEAR		; CDC::GetSafeHdc, COMDAT
; _this$ = ecx

; 316  : 	{ return this == NULL ? NULL : m_hDC; }

  00000	55		 push	 ebp
  00001	8b ec		 mov	 ebp, esp
  00003	83 ec 08	 sub	 esp, 8
  00006	89 4d fc	 mov	 DWORD PTR _this$[ebp], ecx
  00009	83 7d fc 00	 cmp	 DWORD PTR _this$[ebp], 0
  0000d	75 09		 jne	 SHORT $L208352
  0000f	c7 45 f8 00 00
	00 00		 mov	 DWORD PTR tv66[ebp], 0
  00016	eb 09		 jmp	 SHORT $L208353
$L208352:
  00018	8b 45 fc	 mov	 eax, DWORD PTR _this$[ebp]
  0001b	8b 48 04	 mov	 ecx, DWORD PTR [eax+4]
  0001e	89 4d f8	 mov	 DWORD PTR tv66[ebp], ecx
$L208353:
  00021	8b 45 f8	 mov	 eax, DWORD PTR tv66[ebp]
  00024	8b e5		 mov	 esp, ebp
  00026	5d		 pop	 ebp
  00027	c3		 ret	 0
?GetSafeHdc@CDC@@QBEPAUHDC__@@XZ ENDP			; CDC::GetSafeHdc
; Function compile flags: /Odt
; File d:\program files (x86)\microsoft visual studio .net 2003\vc7\atlmfc\include\afxwin2.inl
_TEXT	ENDS
;	COMDAT ?GetSafeHwnd@CWnd@@QBEPAUHWND__@@XZ
_TEXT	SEGMENT
tv66 = -8						; size = 4
_this$ = -4						; size = 4
?GetSafeHwnd@CWnd@@QBEPAUHWND__@@XZ PROC NEAR		; CWnd::GetSafeHwnd, COMDAT
; _this$ = ecx

; 27   : 	{ return this == NULL ? NULL : m_hWnd; }

  00000	55		 push	 ebp
  00001	8b ec		 mov	 ebp, esp
  00003	83 ec 08	 sub	 esp, 8
  00006	89 4d fc	 mov	 DWORD PTR _this$[ebp], ecx
  00009	83 7d fc 00	 cmp	 DWORD PTR _this$[ebp], 0
  0000d	75 09		 jne	 SHORT $L208356
  0000f	c7 45 f8 00 00
	00 00		 mov	 DWORD PTR tv66[ebp], 0
  00016	eb 09		 jmp	 SHORT $L208357
$L208356:
  00018	8b 45 fc	 mov	 eax, DWORD PTR _this$[ebp]
  0001b	8b 48 20	 mov	 ecx, DWORD PTR [eax+32]
  0001e	89 4d f8	 mov	 DWORD PTR tv66[ebp], ecx
$L208357:
  00021	8b 45 f8	 mov	 eax, DWORD PTR tv66[ebp]
  00024	8b e5		 mov	 esp, ebp
  00026	5d		 pop	 ebp
  00027	c3		 ret	 0
?GetSafeHwnd@CWnd@@QBEPAUHWND__@@XZ ENDP		; CWnd::GetSafeHwnd
; Function compile flags: /Odt
_TEXT	ENDS
;	COMDAT ?MoveWindow@CWnd@@QAEXPBUtagRECT@@H@Z
_TEXT	SEGMENT
_this$ = -4						; size = 4
_lpRect$ = 8						; size = 4
_bRepaint$ = 12						; size = 4
?MoveWindow@CWnd@@QAEXPBUtagRECT@@H@Z PROC NEAR		; CWnd::MoveWindow, COMDAT
; _this$ = ecx

; 89   : 	{ MoveWindow(lpRect->left, lpRect->top, lpRect->right - lpRect->left,

  00000	55		 push	 ebp
  00001	8b ec		 mov	 ebp, esp
  00003	51		 push	 ecx
  00004	89 4d fc	 mov	 DWORD PTR _this$[ebp], ecx

; 90   : 		lpRect->bottom - lpRect->top, bRepaint); }

  00007	8b 45 0c	 mov	 eax, DWORD PTR _bRepaint$[ebp]
  0000a	50		 push	 eax
  0000b	8b 4d 08	 mov	 ecx, DWORD PTR _lpRect$[ebp]
  0000e	8b 55 08	 mov	 edx, DWORD PTR _lpRect$[ebp]
  00011	8b 41 0c	 mov	 eax, DWORD PTR [ecx+12]
  00014	2b 42 04	 sub	 eax, DWORD PTR [edx+4]
  00017	50		 push	 eax
  00018	8b 4d 08	 mov	 ecx, DWORD PTR _lpRect$[ebp]
  0001b	8b 55 08	 mov	 edx, DWORD PTR _lpRect$[ebp]
  0001e	8b 41 08	 mov	 eax, DWORD PTR [ecx+8]
  00021	2b 02		 sub	 eax, DWORD PTR [edx]
  00023	50		 push	 eax
  00024	8b 4d 08	 mov	 ecx, DWORD PTR _lpRect$[ebp]
  00027	8b 51 04	 mov	 edx, DWORD PTR [ecx+4]
  0002a	52		 push	 edx
  0002b	8b 45 08	 mov	 eax, DWORD PTR _lpRect$[ebp]
  0002e	8b 08		 mov	 ecx, DWORD PTR [eax]
  00030	51		 push	 ecx
  00031	8b 4d fc	 mov	 ecx, DWORD PTR _this$[ebp]
  00034	e8 00 00 00 00	 call	 ?MoveWindow@CWnd@@QAEXHHHHH@Z ; CWnd::MoveWindow
  00039	8b e5		 mov	 esp, ebp
  0003b	5d		 pop	 ebp
  0003c	c2 08 00	 ret	 8
?MoveWindow@CWnd@@QAEXPBUtagRECT@@H@Z ENDP		; CWnd::MoveWindow
_TEXT	ENDS
EXTRN	__imp__GetWindowRect@8:NEAR
; Function compile flags: /Odt
;	COMDAT ?GetWindowRect@CWnd@@QBEXPAUtagRECT@@@Z
_TEXT	SEGMENT
_this$ = -4						; size = 4
_lpRect$ = 8						; size = 4
?GetWindowRect@CWnd@@QBEXPAUtagRECT@@@Z PROC NEAR	; CWnd::GetWindowRect, COMDAT
; _this$ = ecx

; 105  : 	{ ASSERT(::IsWindow(m_hWnd)); ::GetWindowRect(m_hWnd, lpRect); }

  00000	55		 push	 ebp
  00001	8b ec		 mov	 ebp, esp
  00003	51		 push	 ecx
  00004	89 4d fc	 mov	 DWORD PTR _this$[ebp], ecx
  00007	8b 45 08	 mov	 eax, DWORD PTR _lpRect$[ebp]
  0000a	50		 push	 eax
  0000b	8b 4d fc	 mov	 ecx, DWORD PTR _this$[ebp]
  0000e	8b 51 20	 mov	 edx, DWORD PTR [ecx+32]
  00011	52		 push	 edx
  00012	ff 15 00 00 00
	00		 call	 DWORD PTR __imp__GetWindowRect@8
  00018	8b e5		 mov	 esp, ebp
  0001a	5d		 pop	 ebp
  0001b	c2 04 00	 ret	 4
?GetWindowRect@CWnd@@QBEXPAUtagRECT@@@Z ENDP		; CWnd::GetWindowRect
_TEXT	ENDS
EXTRN	__imp__GetClientRect@8:NEAR
; Function compile flags: /Odt
;	COMDAT ?GetClientRect@CWnd@@QBEXPAUtagRECT@@@Z
_TEXT	SEGMENT
_this$ = -4						; size = 4
_lpRect$ = 8						; size = 4
?GetClientRect@CWnd@@QBEXPAUtagRECT@@@Z PROC NEAR	; CWnd::GetClientRect, COMDAT
; _this$ = ecx

; 107  : 	{ ASSERT(::IsWindow(m_hWnd)); ::GetClientRect(m_hWnd, lpRect); }

  00000	55		 push	 ebp
  00001	8b ec		 mov	 ebp, esp
  00003	51		 push	 ecx
  00004	89 4d fc	 mov	 DWORD PTR _this$[ebp], ecx
  00007	8b 45 08	 mov	 eax, DWORD PTR _lpRect$[ebp]
  0000a	50		 push	 eax
  0000b	8b 4d fc	 mov	 ecx, DWORD PTR _this$[ebp]
  0000e	8b 51 20	 mov	 edx, DWORD PTR [ecx+32]
  00011	52		 push	 edx
  00012	ff 15 00 00 00
	00		 call	 DWORD PTR __imp__GetClientRect@8
  00018	8b e5		 mov	 esp, ebp
  0001a	5d		 pop	 ebp
  0001b	c2 04 00	 ret	 4
?GetClientRect@CWnd@@QBEXPAUtagRECT@@@Z ENDP		; CWnd::GetClientRect
_TEXT	ENDS
EXTRN	?FromHandle@CDC@@SGPAV1@PAUHDC__@@@Z:NEAR	; CDC::FromHandle
EXTRN	__imp__GetDC@4:NEAR
; Function compile flags: /Odt
;	COMDAT ?GetDC@CWnd@@QAEPAVCDC@@XZ
_TEXT	SEGMENT
_this$ = -4						; size = 4
?GetDC@CWnd@@QAEPAVCDC@@XZ PROC NEAR			; CWnd::GetDC, COMDAT
; _this$ = ecx

; 121  : 	{ ASSERT(::IsWindow(m_hWnd)); return CDC::FromHandle(::GetDC(m_hWnd)); }

  00000	55		 push	 ebp
  00001	8b ec		 mov	 ebp, esp
  00003	51		 push	 ecx
  00004	89 4d fc	 mov	 DWORD PTR _this$[ebp], ecx
  00007	8b 45 fc	 mov	 eax, DWORD PTR _this$[ebp]
  0000a	8b 48 20	 mov	 ecx, DWORD PTR [eax+32]
  0000d	51		 push	 ecx
  0000e	ff 15 00 00 00
	00		 call	 DWORD PTR __imp__GetDC@4
  00014	50		 push	 eax
  00015	e8 00 00 00 00	 call	 ?FromHandle@CDC@@SGPAV1@PAUHDC__@@@Z ; CDC::FromHandle
  0001a	8b e5		 mov	 esp, ebp
  0001c	5d		 pop	 ebp
  0001d	c3		 ret	 0
?GetDC@CWnd@@QAEPAVCDC@@XZ ENDP				; CWnd::GetDC
_TEXT	ENDS
EXTRN	__imp__InvalidateRect@12:NEAR
; Function compile flags: /Odt
;	COMDAT ?Invalidate@CWnd@@QAEXH@Z
_TEXT	SEGMENT
_this$ = -4						; size = 4
_bErase$ = 8						; size = 4
?Invalidate@CWnd@@QAEXH@Z PROC NEAR			; CWnd::Invalidate, COMDAT
; _this$ = ecx

; 135  : 	{ ASSERT(::IsWindow(m_hWnd)); ::InvalidateRect(m_hWnd, NULL, bErase); }

  00000	55		 push	 ebp
  00001	8b ec		 mov	 ebp, esp
  00003	51		 push	 ecx
  00004	89 4d fc	 mov	 DWORD PTR _this$[ebp], ecx
  00007	8b 45 08	 mov	 eax, DWORD PTR _bErase$[ebp]
  0000a	50		 push	 eax
  0000b	6a 00		 push	 0
  0000d	8b 4d fc	 mov	 ecx, DWORD PTR _this$[ebp]
  00010	8b 51 20	 mov	 edx, DWORD PTR [ecx+32]
  00013	52		 push	 edx
  00014	ff 15 00 00 00
	00		 call	 DWORD PTR __imp__InvalidateRect@12
  0001a	8b e5		 mov	 esp, ebp
  0001c	5d		 pop	 ebp
  0001d	c2 04 00	 ret	 4
?Invalidate@CWnd@@QAEXH@Z ENDP				; CWnd::Invalidate
_TEXT	ENDS
EXTRN	__imp__GetDesktopWindow@0:NEAR
EXTRN	?FromHandle@CWnd@@SGPAV1@PAUHWND__@@@Z:NEAR	; CWnd::FromHandle
; Function compile flags: /Odt
;	COMDAT ?GetDesktopWindow@CWnd@@SGPAV1@XZ
_TEXT	SEGMENT
?GetDesktopWindow@CWnd@@SGPAV1@XZ PROC NEAR		; CWnd::GetDesktopWindow, COMDAT

; 207  : 	{ return CWnd::FromHandle(::GetDesktopWindow()); }

  00000	55		 push	 ebp
  00001	8b ec		 mov	 ebp, esp
  00003	ff 15 00 00 00
	00		 call	 DWORD PTR __imp__GetDesktopWindow@0
  00009	50		 push	 eax
  0000a	e8 00 00 00 00	 call	 ?FromHandle@CWnd@@SGPAV1@PAUHWND__@@@Z ; CWnd::FromHandle
  0000f	5d		 pop	 ebp
  00010	c3		 ret	 0
?GetDesktopWindow@CWnd@@SGPAV1@XZ ENDP			; CWnd::GetDesktopWindow
_TEXT	ENDS
EXTRN	__imp__GetParent@4:NEAR
; Function compile flags: /Odt
;	COMDAT ?GetParent@CWnd@@QBEPAV1@XZ
_TEXT	SEGMENT
_this$ = -4						; size = 4
?GetParent@CWnd@@QBEPAV1@XZ PROC NEAR			; CWnd::GetParent, COMDAT
; _this$ = ecx

; 282  : 	{ ASSERT(::IsWindow(m_hWnd)); return CWnd::FromHandle(::GetParent(m_hWnd)); }

  00000	55		 push	 ebp
  00001	8b ec		 mov	 ebp, esp
  00003	51		 push	 ecx
  00004	89 4d fc	 mov	 DWORD PTR _this$[ebp], ecx
  00007	8b 45 fc	 mov	 eax, DWORD PTR _this$[ebp]
  0000a	8b 48 20	 mov	 ecx, DWORD PTR [eax+32]
  0000d	51		 push	 ecx
  0000e	ff 15 00 00 00
	00		 call	 DWORD PTR __imp__GetParent@4
  00014	50		 push	 eax
  00015	e8 00 00 00 00	 call	 ?FromHandle@CWnd@@SGPAV1@PAUHWND__@@@Z ; CWnd::FromHandle
  0001a	8b e5		 mov	 esp, ebp
  0001c	5d		 pop	 ebp
  0001d	c3		 ret	 0
?GetParent@CWnd@@QBEPAV1@XZ ENDP			; CWnd::GetParent
_TEXT	ENDS
EXTRN	__imp__SetParent@8:NEAR
; Function compile flags: /Odt
;	COMDAT ?SetParent@CWnd@@QAEPAV1@PAV1@@Z
_TEXT	SEGMENT
_this$ = -4						; size = 4
_pWndNewParent$ = 8					; size = 4
?SetParent@CWnd@@QAEPAV1@PAV1@@Z PROC NEAR		; CWnd::SetParent, COMDAT
; _this$ = ecx

; 284  : 	{ ASSERT(::IsWindow(m_hWnd)); return CWnd::FromHandle(::SetParent(m_hWnd,

  00000	55		 push	 ebp
  00001	8b ec		 mov	 ebp, esp
  00003	51		 push	 ecx
  00004	89 4d fc	 mov	 DWORD PTR _this$[ebp], ecx

; 285  : 			pWndNewParent->GetSafeHwnd())); }

  00007	8b 4d 08	 mov	 ecx, DWORD PTR _pWndNewParent$[ebp]
  0000a	e8 00 00 00 00	 call	 ?GetSafeHwnd@CWnd@@QBEPAUHWND__@@XZ ; CWnd::GetSafeHwnd
  0000f	50		 push	 eax
  00010	8b 45 fc	 mov	 eax, DWORD PTR _this$[ebp]
  00013	8b 48 20	 mov	 ecx, DWORD PTR [eax+32]
  00016	51		 push	 ecx
  00017	ff 15 00 00 00
	00		 call	 DWORD PTR __imp__SetParent@8
  0001d	50		 push	 eax
  0001e	e8 00 00 00 00	 call	 ?FromHandle@CWnd@@SGPAV1@PAUHWND__@@@Z ; CWnd::FromHandle
  00023	8b e5		 mov	 esp, ebp
  00025	5d		 pop	 ebp
  00026	c2 04 00	 ret	 4
?SetParent@CWnd@@QAEPAV1@PAV1@@Z ENDP			; CWnd::SetParent
_TEXT	ENDS
EXTRN	?Default@CWnd@@IAEJXZ:NEAR			; CWnd::Default
; Function compile flags: /Odt
;	COMDAT ?OnCreate@CWnd@@IAEHPAUtagCREATESTRUCTA@@@Z
_TEXT	SEGMENT
_this$ = -4						; size = 4
___formal$ = 8						; size = 4
?OnCreate@CWnd@@IAEHPAUtagCREATESTRUCTA@@@Z PROC NEAR	; CWnd::OnCreate, COMDAT
; _this$ = ecx

; 360  : 	{ return (int)Default(); }

  00000	55		 push	 ebp
  00001	8b ec		 mov	 ebp, esp
  00003	51		 push	 ecx
  00004	89 4d fc	 mov	 DWORD PTR _this$[ebp], ecx
  00007	8b 4d fc	 mov	 ecx, DWORD PTR _this$[ebp]
  0000a	e8 00 00 00 00	 call	 ?Default@CWnd@@IAEJXZ	; CWnd::Default
  0000f	8b e5		 mov	 esp, ebp
  00011	5d		 pop	 ebp
  00012	c2 04 00	 ret	 4
?OnCreate@CWnd@@IAEHPAUtagCREATESTRUCTA@@@Z ENDP	; CWnd::OnCreate
; Function compile flags: /Odt
_TEXT	ENDS
;	COMDAT ?DoDataExchange@CWnd@@MAEXPAVCDataExchange@@@Z
_TEXT	SEGMENT
_this$ = -4						; size = 4
___formal$ = 8						; size = 4
?DoDataExchange@CWnd@@MAEXPAVCDataExchange@@@Z PROC NEAR ; CWnd::DoDataExchange, COMDAT
; _this$ = ecx

; 545  : 	{ } // default does nothing

  00000	55		 push	 ebp
  00001	8b ec		 mov	 ebp, esp
  00003	51		 push	 ecx
  00004	89 4d fc	 mov	 DWORD PTR _this$[ebp], ecx
  00007	8b e5		 mov	 esp, ebp
  00009	5d		 pop	 ebp
  0000a	c2 04 00	 ret	 4
?DoDataExchange@CWnd@@MAEXPAVCDataExchange@@@Z ENDP	; CWnd::DoDataExchange
_TEXT	ENDS
EXTRN	__imp__EnableWindow@8:NEAR
; Function compile flags: /Odt
;	COMDAT ?BeginModalState@CWnd@@UAEXXZ
_TEXT	SEGMENT
_this$ = -4						; size = 4
?BeginModalState@CWnd@@UAEXXZ PROC NEAR			; CWnd::BeginModalState, COMDAT
; _this$ = ecx

; 549  : 	{ ::EnableWindow(m_hWnd, FALSE); }

  00000	55		 push	 ebp
  00001	8b ec		 mov	 ebp, esp
  00003	51		 push	 ecx
  00004	89 4d fc	 mov	 DWORD PTR _this$[ebp], ecx
  00007	6a 00		 push	 0
  00009	8b 45 fc	 mov	 eax, DWORD PTR _this$[ebp]
  0000c	8b 48 20	 mov	 ecx, DWORD PTR [eax+32]
  0000f	51		 push	 ecx
  00010	ff 15 00 00 00
	00		 call	 DWORD PTR __imp__EnableWindow@8
  00016	8b e5		 mov	 esp, ebp
  00018	5d		 pop	 ebp
  00019	c3		 ret	 0
?BeginModalState@CWnd@@UAEXXZ ENDP			; CWnd::BeginModalState
; Function compile flags: /Odt
_TEXT	ENDS
;	COMDAT ?EndModalState@CWnd@@UAEXXZ
_TEXT	SEGMENT
_this$ = -4						; size = 4
?EndModalState@CWnd@@UAEXXZ PROC NEAR			; CWnd::EndModalState, COMDAT
; _this$ = ecx

; 551  : 	{ ::EnableWindow(m_hWnd, TRUE); }

  00000	55		 push	 ebp
  00001	8b ec		 mov	 ebp, esp
  00003	51		 push	 ecx
  00004	89 4d fc	 mov	 DWORD PTR _this$[ebp], ecx
  00007	6a 01		 push	 1
  00009	8b 45 fc	 mov	 eax, DWORD PTR _this$[ebp]
  0000c	8b 48 20	 mov	 ecx, DWORD PTR [eax+32]
  0000f	51		 push	 ecx
  00010	ff 15 00 00 00
	00		 call	 DWORD PTR __imp__EnableWindow@8
  00016	8b e5		 mov	 esp, ebp
  00018	5d		 pop	 ebp
  00019	c3		 ret	 0
?EndModalState@CWnd@@UAEXXZ ENDP			; CWnd::EndModalState
; Function compile flags: /Odt
_TEXT	ENDS
;	COMDAT ?GetCheck@CButton@@QBEHXZ
_TEXT	SEGMENT
_this$ = -4						; size = 4
?GetCheck@CButton@@QBEHXZ PROC NEAR			; CButton::GetCheck, COMDAT
; _this$ = ecx

; 613  : 	{ ASSERT(::IsWindow(m_hWnd)); return (int)::SendMessage(m_hWnd, BM_GETCHECK, 0, 0); }

  00000	55		 push	 ebp
  00001	8b ec		 mov	 ebp, esp
  00003	51		 push	 ecx
  00004	89 4d fc	 mov	 DWORD PTR _this$[ebp], ecx
  00007	6a 00		 push	 0
  00009	6a 00		 push	 0
  0000b	68 f0 00 00 00	 push	 240			; 000000f0H
  00010	8b 45 fc	 mov	 eax, DWORD PTR _this$[ebp]
  00013	8b 48 20	 mov	 ecx, DWORD PTR [eax+32]
  00016	51		 push	 ecx
  00017	ff 15 00 00 00
	00		 call	 DWORD PTR __imp__SendMessageA@16
  0001d	8b e5		 mov	 esp, ebp
  0001f	5d		 pop	 ebp
  00020	c3		 ret	 0
?GetCheck@CButton@@QBEHXZ ENDP				; CButton::GetCheck
; Function compile flags: /Odt
_TEXT	ENDS
;	COMDAT ?SetCheck@CButton@@QAEXH@Z
_TEXT	SEGMENT
_this$ = -4						; size = 4
_nCheck$ = 8						; size = 4
?SetCheck@CButton@@QAEXH@Z PROC NEAR			; CButton::SetCheck, COMDAT
; _this$ = ecx

; 615  : 	{ ASSERT(::IsWindow(m_hWnd)); ::SendMessage(m_hWnd, BM_SETCHECK, nCheck, 0); }

  00000	55		 push	 ebp
  00001	8b ec		 mov	 ebp, esp
  00003	51		 push	 ecx
  00004	89 4d fc	 mov	 DWORD PTR _this$[ebp], ecx
  00007	6a 00		 push	 0
  00009	8b 45 08	 mov	 eax, DWORD PTR _nCheck$[ebp]
  0000c	50		 push	 eax
  0000d	68 f1 00 00 00	 push	 241			; 000000f1H
  00012	8b 4d fc	 mov	 ecx, DWORD PTR _this$[ebp]
  00015	8b 51 20	 mov	 edx, DWORD PTR [ecx+32]
  00018	52		 push	 edx
  00019	ff 15 00 00 00
	00		 call	 DWORD PTR __imp__SendMessageA@16
  0001f	8b e5		 mov	 esp, ebp
  00021	5d		 pop	 ebp
  00022	c2 04 00	 ret	 4
?SetCheck@CButton@@QAEXH@Z ENDP				; CButton::SetCheck
_TEXT	ENDS
EXTRN	_labs:NEAR
; Function compile flags: /Odt
; File d:\program files (x86)\microsoft visual studio .net 2003\vc7\include\math.h
;	COMDAT ?abs@@YAJJ@Z
_TEXT	SEGMENT
__X$ = 8						; size = 4
?abs@@YAJJ@Z PROC NEAR					; abs, COMDAT

; 529  :         {return (labs(_X)); }

  00000	55		 push	 ebp
  00001	8b ec		 mov	 ebp, esp
  00003	8b 45 08	 mov	 eax, DWORD PTR __X$[ebp]
  00006	50		 push	 eax
  00007	e8 00 00 00 00	 call	 _labs
  0000c	83 c4 04	 add	 esp, 4
  0000f	5d		 pop	 ebp
  00010	c3		 ret	 0
?abs@@YAJJ@Z ENDP					; abs
; Function compile flags: /Odt
; File d:\program files (x86)\microsoft visual studio .net 2003\vc7\include\stdexcept
_TEXT	ENDS
;	COMDAT ?what@logic_error@std@@UBEPBDXZ
_TEXT	SEGMENT
_this$ = -4						; size = 4
?what@logic_error@std@@UBEPBDXZ PROC NEAR		; std::logic_error::what, COMDAT
; _this$ = ecx

; 26   : 		{	// return pointer to message string

  00000	55		 push	 ebp
  00001	8b ec		 mov	 ebp, esp
  00003	51		 push	 ecx
  00004	89 4d fc	 mov	 DWORD PTR _this$[ebp], ecx

; 27   : 		return (_Str.c_str());

  00007	8b 4d fc	 mov	 ecx, DWORD PTR _this$[ebp]
  0000a	83 c1 0c	 add	 ecx, 12			; 0000000cH
  0000d	ff 15 00 00 00
	00		 call	 DWORD PTR __imp_?c_str@?$basic_string@DU?$char_traits@D@std@@V?$allocator@D@2@@std@@QBEPBDXZ

; 28   : 		}

  00013	8b e5		 mov	 esp, ebp
  00015	5d		 pop	 ebp
  00016	c3		 ret	 0
?what@logic_error@std@@UBEPBDXZ ENDP			; std::logic_error::what
_TEXT	ENDS
PUBLIC	??0logic_error@std@@QAE@ABV?$basic_string@DU?$char_traits@D@std@@V?$allocator@D@2@@1@@Z ; std::logic_error::logic_error
; Function compile flags: /Odt
;	COMDAT ??0length_error@std@@QAE@ABV?$basic_string@DU?$char_traits@D@std@@V?$allocator@D@2@@1@@Z
_TEXT	SEGMENT
_this$ = -4						; size = 4
__Message$ = 8						; size = 4
??0length_error@std@@QAE@ABV?$basic_string@DU?$char_traits@D@std@@V?$allocator@D@2@@1@@Z PROC NEAR ; std::length_error::length_error, COMDAT
; _this$ = ecx

; 95   : 		{	// construct from message string

  00000	55		 push	 ebp
  00001	8b ec		 mov	 ebp, esp
  00003	51		 push	 ecx
  00004	89 4d fc	 mov	 DWORD PTR _this$[ebp], ecx
  00007	8b 45 08	 mov	 eax, DWORD PTR __Message$[ebp]
  0000a	50		 push	 eax
  0000b	8b 4d fc	 mov	 ecx, DWORD PTR _this$[ebp]
  0000e	e8 00 00 00 00	 call	 ??0logic_error@std@@QAE@ABV?$basic_string@DU?$char_traits@D@std@@V?$allocator@D@2@@1@@Z ; std::logic_error::logic_error
  00013	8b 4d fc	 mov	 ecx, DWORD PTR _this$[ebp]
  00016	c7 01 00 00 00
	00		 mov	 DWORD PTR [ecx], OFFSET FLAT:??_7length_error@std@@6B@

; 96   : 		}

  0001c	8b 45 fc	 mov	 eax, DWORD PTR _this$[ebp]
  0001f	8b e5		 mov	 esp, ebp
  00021	5d		 pop	 ebp
  00022	c2 04 00	 ret	 4
??0length_error@std@@QAE@ABV?$basic_string@DU?$char_traits@D@std@@V?$allocator@D@2@@1@@Z ENDP ; std::length_error::length_error
_TEXT	ENDS
PUBLIC	??_R4logic_error@std@@6B@			; std::logic_error::`RTTI Complete Object Locator'
PUBLIC	??_R3logic_error@std@@8				; std::logic_error::`RTTI Class Hierarchy Descriptor'
PUBLIC	??_R2logic_error@std@@8				; std::logic_error::`RTTI Base Class Array'
PUBLIC	??_7logic_error@std@@6B@			; std::logic_error::`vftable'
PUBLIC	??_Glogic_error@std@@UAEPAXI@Z			; std::logic_error::`scalar deleting destructor'
EXTRN	__imp_??0exception@@QAE@XZ:NEAR
EXTRN	__imp_??1exception@@UAE@XZ:NEAR
EXTRN	??_Elogic_error@std@@UAEPAXI@Z:NEAR		; std::logic_error::`vector deleting destructor'
;	COMDAT xdata$x
xdata$x	SEGMENT
$T208400 DD	0ffffffffH
	DD	FLAT:$L208395
$T208398 DD	019930520H
	DD	01H
	DD	FLAT:$T208400
	DD	2 DUP(00H)
	DD	2 DUP(00H)
xdata$x	ENDS
;	COMDAT ??_7logic_error@std@@6B@
CONST	SEGMENT
??_7logic_error@std@@6B@ DD FLAT:??_R4logic_error@std@@6B@ ; std::logic_error::`vftable'
	DD	FLAT:??_Elogic_error@std@@UAEPAXI@Z
	DD	FLAT:?what@logic_error@std@@UBEPBDXZ
CONST	ENDS
;	COMDAT ??_R4logic_error@std@@6B@
rdata$r	SEGMENT
??_R4logic_error@std@@6B@ DD 00H			; std::logic_error::`RTTI Complete Object Locator'
	DD	00H
	DD	00H
	DD	FLAT:??_R0?AVlogic_error@std@@@8
	DD	FLAT:??_R3logic_error@std@@8
rdata$r	ENDS
;	COMDAT ??_R3logic_error@std@@8
rdata$r	SEGMENT
??_R3logic_error@std@@8 DD 00H				; std::logic_error::`RTTI Class Hierarchy Descriptor'
	DD	00H
	DD	02H
	DD	FLAT:??_R2logic_error@std@@8
rdata$r	ENDS
;	COMDAT ??_R2logic_error@std@@8
rdata$r	SEGMENT
??_R2logic_error@std@@8 DD FLAT:??_R1A@?0A@A@logic_error@std@@8 ; std::logic_error::`RTTI Base Class Array'
	DD	FLAT:??_R1A@?0A@A@exception@@8
; Function compile flags: /Odt
rdata$r	ENDS
;	COMDAT ??0logic_error@std@@QAE@ABV?$basic_string@DU?$char_traits@D@std@@V?$allocator@D@2@@1@@Z
_TEXT	SEGMENT
_this$ = -16						; size = 4
__$EHRec$ = -12						; size = 12
__Message$ = 8						; size = 4
??0logic_error@std@@QAE@ABV?$basic_string@DU?$char_traits@D@std@@V?$allocator@D@2@@1@@Z PROC NEAR ; std::logic_error::logic_error, COMDAT
; _this$ = ecx

; 19   : 		{	// construct from message string

  00000	55		 push	 ebp
  00001	8b ec		 mov	 ebp, esp
  00003	6a ff		 push	 -1
  00005	68 00 00 00 00	 push	 __ehhandler$??0logic_error@std@@QAE@ABV?$basic_string@DU?$char_traits@D@std@@V?$allocator@D@2@@1@@Z
  0000a	64 a1 00 00 00
	00		 mov	 eax, DWORD PTR fs:__except_list
  00010	50		 push	 eax
  00011	64 89 25 00 00
	00 00		 mov	 DWORD PTR fs:__except_list, esp
  00018	51		 push	 ecx
  00019	89 4d f0	 mov	 DWORD PTR _this$[ebp], ecx
  0001c	8b 4d f0	 mov	 ecx, DWORD PTR _this$[ebp]
  0001f	ff 15 00 00 00
	00		 call	 DWORD PTR __imp_??0exception@@QAE@XZ
  00025	c7 45 fc 00 00
	00 00		 mov	 DWORD PTR __$EHRec$[ebp+8], 0
  0002c	8b 45 f0	 mov	 eax, DWORD PTR _this$[ebp]
  0002f	c7 00 00 00 00
	00		 mov	 DWORD PTR [eax], OFFSET FLAT:??_7logic_error@std@@6B@
  00035	8b 4d 08	 mov	 ecx, DWORD PTR __Message$[ebp]
  00038	51		 push	 ecx
  00039	8b 4d f0	 mov	 ecx, DWORD PTR _this$[ebp]
  0003c	83 c1 0c	 add	 ecx, 12			; 0000000cH
  0003f	ff 15 00 00 00
	00		 call	 DWORD PTR __imp_??0?$basic_string@DU?$char_traits@D@std@@V?$allocator@D@2@@std@@QAE@ABV01@@Z

; 20   : 		}

  00045	c7 45 fc ff ff
	ff ff		 mov	 DWORD PTR __$EHRec$[ebp+8], -1
  0004c	8b 45 f0	 mov	 eax, DWORD PTR _this$[ebp]
  0004f	8b 4d f4	 mov	 ecx, DWORD PTR __$EHRec$[ebp]
  00052	64 89 0d 00 00
	00 00		 mov	 DWORD PTR fs:__except_list, ecx
  00059	8b e5		 mov	 esp, ebp
  0005b	5d		 pop	 ebp
  0005c	c2 04 00	 ret	 4
_TEXT	ENDS
;	COMDAT text$x
text$x	SEGMENT
$L208395:
  00000	8b 4d f0	 mov	 ecx, DWORD PTR _this$[ebp]
  00003	ff 25 00 00 00
	00		 jmp	 DWORD PTR __imp_??1exception@@UAE@XZ
__ehhandler$??0logic_error@std@@QAE@ABV?$basic_string@DU?$char_traits@D@std@@V?$allocator@D@2@@1@@Z:
  00009	b8 00 00 00 00	 mov	 eax, OFFSET FLAT:$T208398
  0000e	e9 00 00 00 00	 jmp	 ___CxxFrameHandler
text$x	ENDS
??0logic_error@std@@QAE@ABV?$basic_string@DU?$char_traits@D@std@@V?$allocator@D@2@@1@@Z ENDP ; std::logic_error::logic_error
PUBLIC	??1logic_error@std@@UAE@XZ			; std::logic_error::~logic_error
; Function compile flags: /Odt
;	COMDAT ??_Glogic_error@std@@UAEPAXI@Z
_TEXT	SEGMENT
_this$ = -4						; size = 4
___flags$ = 8						; size = 4
??_Glogic_error@std@@UAEPAXI@Z PROC NEAR		; std::logic_error::`scalar deleting destructor', COMDAT
; _this$ = ecx
  00000	55		 push	 ebp
  00001	8b ec		 mov	 ebp, esp
  00003	51		 push	 ecx
  00004	89 4d fc	 mov	 DWORD PTR _this$[ebp], ecx
  00007	8b 4d fc	 mov	 ecx, DWORD PTR _this$[ebp]
  0000a	e8 00 00 00 00	 call	 ??1logic_error@std@@UAE@XZ ; std::logic_error::~logic_error
  0000f	8b 45 08	 mov	 eax, DWORD PTR ___flags$[ebp]
  00012	83 e0 01	 and	 eax, 1
  00015	74 0c		 je	 SHORT $L102266
  00017	8b 4d fc	 mov	 ecx, DWORD PTR _this$[ebp]
  0001a	51		 push	 ecx
  0001b	e8 00 00 00 00	 call	 ??3@YAXPAX@Z		; operator delete
  00020	83 c4 04	 add	 esp, 4
$L102266:
  00023	8b 45 fc	 mov	 eax, DWORD PTR _this$[ebp]
  00026	8b e5		 mov	 esp, ebp
  00028	5d		 pop	 ebp
  00029	c2 04 00	 ret	 4
??_Glogic_error@std@@UAEPAXI@Z ENDP			; std::logic_error::`scalar deleting destructor'
_TEXT	ENDS
;	COMDAT xdata$x
xdata$x	SEGMENT
$T208412 DD	0ffffffffH
	DD	FLAT:$L208407
$T208410 DD	019930520H
	DD	01H
	DD	FLAT:$T208412
	DD	2 DUP(00H)
	DD	2 DUP(00H)
; Function compile flags: /Odt
xdata$x	ENDS
;	COMDAT ??1logic_error@std@@UAE@XZ
_TEXT	SEGMENT
_this$ = -16						; size = 4
__$EHRec$ = -12						; size = 12
??1logic_error@std@@UAE@XZ PROC NEAR			; std::logic_error::~logic_error, COMDAT
; _this$ = ecx

; 23   : 		{}	// destroy the object

  00000	55		 push	 ebp
  00001	8b ec		 mov	 ebp, esp
  00003	6a ff		 push	 -1
  00005	68 00 00 00 00	 push	 __ehhandler$??1logic_error@std@@UAE@XZ
  0000a	64 a1 00 00 00
	00		 mov	 eax, DWORD PTR fs:__except_list
  00010	50		 push	 eax
  00011	64 89 25 00 00
	00 00		 mov	 DWORD PTR fs:__except_list, esp
  00018	51		 push	 ecx
  00019	89 4d f0	 mov	 DWORD PTR _this$[ebp], ecx
  0001c	8b 45 f0	 mov	 eax, DWORD PTR _this$[ebp]
  0001f	c7 00 00 00 00
	00		 mov	 DWORD PTR [eax], OFFSET FLAT:??_7logic_error@std@@6B@
  00025	c7 45 fc 00 00
	00 00		 mov	 DWORD PTR __$EHRec$[ebp+8], 0
  0002c	8b 4d f0	 mov	 ecx, DWORD PTR _this$[ebp]
  0002f	83 c1 0c	 add	 ecx, 12			; 0000000cH
  00032	ff 15 00 00 00
	00		 call	 DWORD PTR __imp_??1?$basic_string@DU?$char_traits@D@std@@V?$allocator@D@2@@std@@QAE@XZ
  00038	c7 45 fc ff ff
	ff ff		 mov	 DWORD PTR __$EHRec$[ebp+8], -1
  0003f	8b 4d f0	 mov	 ecx, DWORD PTR _this$[ebp]
  00042	ff 15 00 00 00
	00		 call	 DWORD PTR __imp_??1exception@@UAE@XZ
  00048	8b 4d f4	 mov	 ecx, DWORD PTR __$EHRec$[ebp]
  0004b	64 89 0d 00 00
	00 00		 mov	 DWORD PTR fs:__except_list, ecx
  00052	8b e5		 mov	 esp, ebp
  00054	5d		 pop	 ebp
  00055	c3		 ret	 0
_TEXT	ENDS
;	COMDAT text$x
text$x	SEGMENT
$L208407:
  00000	8b 4d f0	 mov	 ecx, DWORD PTR _this$[ebp]
  00003	ff 25 00 00 00
	00		 jmp	 DWORD PTR __imp_??1exception@@UAE@XZ
__ehhandler$??1logic_error@std@@UAE@XZ:
  00009	b8 00 00 00 00	 mov	 eax, OFFSET FLAT:$T208410
  0000e	e9 00 00 00 00	 jmp	 ___CxxFrameHandler
text$x	ENDS
??1logic_error@std@@UAE@XZ ENDP				; std::logic_error::~logic_error
; Function compile flags: /Odt
;	COMDAT ??1length_error@std@@UAE@XZ
_TEXT	SEGMENT
_this$ = -4						; size = 4
??1length_error@std@@UAE@XZ PROC NEAR			; std::length_error::~length_error, COMDAT
; _this$ = ecx

; 99   : 		{}	// destroy the object

  00000	55		 push	 ebp
  00001	8b ec		 mov	 ebp, esp
  00003	51		 push	 ecx
  00004	89 4d fc	 mov	 DWORD PTR _this$[ebp], ecx
  00007	8b 45 fc	 mov	 eax, DWORD PTR _this$[ebp]
  0000a	c7 00 00 00 00
	00		 mov	 DWORD PTR [eax], OFFSET FLAT:??_7length_error@std@@6B@
  00010	8b 4d fc	 mov	 ecx, DWORD PTR _this$[ebp]
  00013	e8 00 00 00 00	 call	 ??1logic_error@std@@UAE@XZ ; std::logic_error::~logic_error
  00018	8b e5		 mov	 esp, ebp
  0001a	5d		 pop	 ebp
  0001b	c3		 ret	 0
??1length_error@std@@UAE@XZ ENDP			; std::length_error::~length_error
; Function compile flags: /Odt
_TEXT	ENDS
;	COMDAT ??_Glength_error@std@@UAEPAXI@Z
_TEXT	SEGMENT
_this$ = -4						; size = 4
___flags$ = 8						; size = 4
??_Glength_error@std@@UAEPAXI@Z PROC NEAR		; std::length_error::`scalar deleting destructor', COMDAT
; _this$ = ecx
  00000	55		 push	 ebp
  00001	8b ec		 mov	 ebp, esp
  00003	51		 push	 ecx
  00004	89 4d fc	 mov	 DWORD PTR _this$[ebp], ecx
  00007	8b 4d fc	 mov	 ecx, DWORD PTR _this$[ebp]
  0000a	e8 00 00 00 00	 call	 ??1length_error@std@@UAE@XZ ; std::length_error::~length_error
  0000f	8b 45 08	 mov	 eax, DWORD PTR ___flags$[ebp]
  00012	83 e0 01	 and	 eax, 1
  00015	74 0c		 je	 SHORT $L102332
  00017	8b 4d fc	 mov	 ecx, DWORD PTR _this$[ebp]
  0001a	51		 push	 ecx
  0001b	e8 00 00 00 00	 call	 ??3@YAXPAX@Z		; operator delete
  00020	83 c4 04	 add	 esp, 4
$L102332:
  00023	8b 45 fc	 mov	 eax, DWORD PTR _this$[ebp]
  00026	8b e5		 mov	 esp, ebp
  00028	5d		 pop	 ebp
  00029	c2 04 00	 ret	 4
??_Glength_error@std@@UAEPAXI@Z ENDP			; std::length_error::`scalar deleting destructor'
; Function compile flags: /Odt
; File d:\boxgit\playbox\playbox\dev\prj\playbox\src\core\imessageobserver.h
_TEXT	ENDS
;	COMDAT ??1IMessageObserver@@UAE@XZ
_TEXT	SEGMENT
_this$ = -4						; size = 4
??1IMessageObserver@@UAE@XZ PROC NEAR			; IMessageObserver::~IMessageObserver, COMDAT
; _this$ = ecx

; 16   : 	virtual ~IMessageObserver(){};

  00000	55		 push	 ebp
  00001	8b ec		 mov	 ebp, esp
  00003	51		 push	 ecx
  00004	89 4d fc	 mov	 DWORD PTR _this$[ebp], ecx
  00007	8b 45 fc	 mov	 eax, DWORD PTR _this$[ebp]
  0000a	c7 00 00 00 00
	00		 mov	 DWORD PTR [eax], OFFSET FLAT:??_7IMessageObserver@@6B@
  00010	8b e5		 mov	 esp, ebp
  00012	5d		 pop	 ebp
  00013	c3		 ret	 0
??1IMessageObserver@@UAE@XZ ENDP			; IMessageObserver::~IMessageObserver
; Function compile flags: /Odt
_TEXT	ENDS
;	COMDAT ??_GIMessageObserver@@UAEPAXI@Z
_TEXT	SEGMENT
_this$ = -4						; size = 4
___flags$ = 8						; size = 4
??_GIMessageObserver@@UAEPAXI@Z PROC NEAR		; IMessageObserver::`scalar deleting destructor', COMDAT
; _this$ = ecx
  00000	55		 push	 ebp
  00001	8b ec		 mov	 ebp, esp
  00003	51		 push	 ecx
  00004	89 4d fc	 mov	 DWORD PTR _this$[ebp], ecx
  00007	8b 4d fc	 mov	 ecx, DWORD PTR _this$[ebp]
  0000a	e8 00 00 00 00	 call	 ??1IMessageObserver@@UAE@XZ ; IMessageObserver::~IMessageObserver
  0000f	8b 45 08	 mov	 eax, DWORD PTR ___flags$[ebp]
  00012	83 e0 01	 and	 eax, 1
  00015	74 0c		 je	 SHORT $L109524
  00017	8b 4d fc	 mov	 ecx, DWORD PTR _this$[ebp]
  0001a	51		 push	 ecx
  0001b	e8 00 00 00 00	 call	 ??3@YAXPAX@Z		; operator delete
  00020	83 c4 04	 add	 esp, 4
$L109524:
  00023	8b 45 fc	 mov	 eax, DWORD PTR _this$[ebp]
  00026	8b e5		 mov	 esp, ebp
  00028	5d		 pop	 ebp
  00029	c2 04 00	 ret	 4
??_GIMessageObserver@@UAEPAXI@Z ENDP			; IMessageObserver::`scalar deleting destructor'
; Function compile flags: /Odt
; File d:\program files (x86)\microsoft visual studio .net 2003\vc7\platformsdk\include\gdiplusinit.h
_TEXT	ENDS
;	COMDAT ??0GdiplusStartupInput@Gdiplus@@QAE@P6GXW4DebugEventLevel@1@PAD@ZHH@Z
_TEXT	SEGMENT
_this$ = -4						; size = 4
_debugEventCallback$ = 8				; size = 4
_suppressBackgroundThread$ = 12				; size = 4
_suppressExternalCodecs$ = 16				; size = 4
??0GdiplusStartupInput@Gdiplus@@QAE@P6GXW4DebugEventLevel@1@PAD@ZHH@Z PROC NEAR ; Gdiplus::GdiplusStartupInput::GdiplusStartupInput, COMDAT
; _this$ = ecx

; 46   :     GdiplusStartupInput(

  00000	55		 push	 ebp
  00001	8b ec		 mov	 ebp, esp
  00003	51		 push	 ecx
  00004	89 4d fc	 mov	 DWORD PTR _this$[ebp], ecx

; 47   :         DebugEventProc debugEventCallback = NULL,
; 48   :         BOOL suppressBackgroundThread = FALSE,
; 49   :         BOOL suppressExternalCodecs = FALSE)
; 50   :     {
; 51   :         GdiplusVersion = 1;

  00007	8b 45 fc	 mov	 eax, DWORD PTR _this$[ebp]
  0000a	c7 00 01 00 00
	00		 mov	 DWORD PTR [eax], 1

; 52   :         DebugEventCallback = debugEventCallback;

  00010	8b 4d fc	 mov	 ecx, DWORD PTR _this$[ebp]
  00013	8b 55 08	 mov	 edx, DWORD PTR _debugEventCallback$[ebp]
  00016	89 51 04	 mov	 DWORD PTR [ecx+4], edx

; 53   :         SuppressBackgroundThread = suppressBackgroundThread;

  00019	8b 45 fc	 mov	 eax, DWORD PTR _this$[ebp]
  0001c	8b 4d 0c	 mov	 ecx, DWORD PTR _suppressBackgroundThread$[ebp]
  0001f	89 48 08	 mov	 DWORD PTR [eax+8], ecx

; 54   :         SuppressExternalCodecs = suppressExternalCodecs;

  00022	8b 55 fc	 mov	 edx, DWORD PTR _this$[ebp]
  00025	8b 45 10	 mov	 eax, DWORD PTR _suppressExternalCodecs$[ebp]
  00028	89 42 0c	 mov	 DWORD PTR [edx+12], eax

; 55   :     }

  0002b	8b 45 fc	 mov	 eax, DWORD PTR _this$[ebp]
  0002e	8b e5		 mov	 esp, ebp
  00030	5d		 pop	 ebp
  00031	c2 0c 00	 ret	 12			; 0000000cH
??0GdiplusStartupInput@Gdiplus@@QAE@P6GXW4DebugEventLevel@1@PAD@ZHH@Z ENDP ; Gdiplus::GdiplusStartupInput::GdiplusStartupInput
_TEXT	ENDS
PUBLIC	?SetStatus@Image@Gdiplus@@IBE?AW4Status@2@W432@@Z ; Gdiplus::Image::SetStatus
EXTRN	_GdipSaveImageToFile@16:NEAR
; Function compile flags: /Odt
; File d:\program files (x86)\microsoft visual studio .net 2003\vc7\platformsdk\include\gdiplusbitmap.h
;	COMDAT ?Save@Image@Gdiplus@@QAE?AW4Status@2@PB_WPBU_GUID@@PBVEncoderParameters@2@@Z
_TEXT	SEGMENT
_this$ = -4						; size = 4
_filename$ = 8						; size = 4
_clsidEncoder$ = 12					; size = 4
_encoderParams$ = 16					; size = 4
?Save@Image@Gdiplus@@QAE?AW4Status@2@PB_WPBU_GUID@@PBVEncoderParameters@2@@Z PROC NEAR ; Gdiplus::Image::Save, COMDAT
; _this$ = ecx

; 136  : {

  00000	55		 push	 ebp
  00001	8b ec		 mov	 ebp, esp
  00003	51		 push	 ecx
  00004	89 4d fc	 mov	 DWORD PTR _this$[ebp], ecx

; 137  :     return SetStatus(DllExports::GdipSaveImageToFile(nativeImage,
; 138  :                                                      filename,
; 139  :                                                      clsidEncoder,
; 140  :                                                      encoderParams));

  00007	8b 45 10	 mov	 eax, DWORD PTR _encoderParams$[ebp]
  0000a	50		 push	 eax
  0000b	8b 4d 0c	 mov	 ecx, DWORD PTR _clsidEncoder$[ebp]
  0000e	51		 push	 ecx
  0000f	8b 55 08	 mov	 edx, DWORD PTR _filename$[ebp]
  00012	52		 push	 edx
  00013	8b 45 fc	 mov	 eax, DWORD PTR _this$[ebp]
  00016	8b 48 04	 mov	 ecx, DWORD PTR [eax+4]
  00019	51		 push	 ecx
  0001a	e8 00 00 00 00	 call	 _GdipSaveImageToFile@16
  0001f	50		 push	 eax
  00020	8b 4d fc	 mov	 ecx, DWORD PTR _this$[ebp]
  00023	e8 00 00 00 00	 call	 ?SetStatus@Image@Gdiplus@@IBE?AW4Status@2@W432@@Z ; Gdiplus::Image::SetStatus

; 141  : }

  00028	8b e5		 mov	 esp, ebp
  0002a	5d		 pop	 ebp
  0002b	c2 0c 00	 ret	 12			; 0000000cH
?Save@Image@Gdiplus@@QAE?AW4Status@2@PB_WPBU_GUID@@PBVEncoderParameters@2@@Z ENDP ; Gdiplus::Image::Save
; Function compile flags: /Odt
; File d:\program files (x86)\microsoft visual studio .net 2003\vc7\platformsdk\include\gdiplusheaders.h
_TEXT	ENDS
;	COMDAT ?SetStatus@Image@Gdiplus@@IBE?AW4Status@2@W432@@Z
_TEXT	SEGMENT
_this$ = -4						; size = 4
_status$ = 8						; size = 4
?SetStatus@Image@Gdiplus@@IBE?AW4Status@2@W432@@Z PROC NEAR ; Gdiplus::Image::SetStatus, COMDAT
; _this$ = ecx

; 472  :     {

  00000	55		 push	 ebp
  00001	8b ec		 mov	 ebp, esp
  00003	51		 push	 ecx
  00004	89 4d fc	 mov	 DWORD PTR _this$[ebp], ecx

; 473  :         if (status != Ok)

  00007	83 7d 08 00	 cmp	 DWORD PTR _status$[ebp], 0
  0000b	74 0e		 je	 SHORT $L119534

; 474  :             return (lastResult = status);

  0000d	8b 45 fc	 mov	 eax, DWORD PTR _this$[ebp]
  00010	8b 4d 08	 mov	 ecx, DWORD PTR _status$[ebp]
  00013	89 48 08	 mov	 DWORD PTR [eax+8], ecx
  00016	8b 45 08	 mov	 eax, DWORD PTR _status$[ebp]
  00019	eb 03		 jmp	 SHORT $L119533
$L119534:

; 475  :         else
; 476  :             return status;

  0001b	8b 45 08	 mov	 eax, DWORD PTR _status$[ebp]
$L119533:

; 477  :     }

  0001e	8b e5		 mov	 esp, ebp
  00020	5d		 pop	 ebp
  00021	c2 04 00	 ret	 4
?SetStatus@Image@Gdiplus@@IBE?AW4Status@2@W432@@Z ENDP	; Gdiplus::Image::SetStatus
_TEXT	ENDS
PUBLIC	??1Image@Gdiplus@@UAE@XZ			; Gdiplus::Image::~Image
; Function compile flags: /Odt
;	COMDAT ??1Bitmap@Gdiplus@@UAE@XZ
_TEXT	SEGMENT
_this$ = -4						; size = 4
??1Bitmap@Gdiplus@@UAE@XZ PROC NEAR			; Gdiplus::Bitmap::~Bitmap, COMDAT
; _this$ = ecx
  00000	55		 push	 ebp
  00001	8b ec		 mov	 ebp, esp
  00003	51		 push	 ecx
  00004	89 4d fc	 mov	 DWORD PTR _this$[ebp], ecx
  00007	8b 4d fc	 mov	 ecx, DWORD PTR _this$[ebp]
  0000a	e8 00 00 00 00	 call	 ??1Image@Gdiplus@@UAE@XZ ; Gdiplus::Image::~Image
  0000f	8b e5		 mov	 esp, ebp
  00011	5d		 pop	 ebp
  00012	c3		 ret	 0
??1Bitmap@Gdiplus@@UAE@XZ ENDP				; Gdiplus::Bitmap::~Bitmap
_TEXT	ENDS
PUBLIC	??_R13?0A@A@GdiplusBase@Gdiplus@@8		; Gdiplus::GdiplusBase::`RTTI Base Class Descriptor at (4,-1,0,0)'
PUBLIC	??_R0?AVGdiplusBase@Gdiplus@@@8			; Gdiplus::GdiplusBase `RTTI Type Descriptor'
PUBLIC	??_R1A@?0A@A@Image@Gdiplus@@8			; Gdiplus::Image::`RTTI Base Class Descriptor at (0,-1,0,0)'
PUBLIC	??_R0?AVImage@Gdiplus@@@8			; Gdiplus::Image `RTTI Type Descriptor'
PUBLIC	??_R4Image@Gdiplus@@6B@				; Gdiplus::Image::`RTTI Complete Object Locator'
PUBLIC	??_R3Image@Gdiplus@@8				; Gdiplus::Image::`RTTI Class Hierarchy Descriptor'
PUBLIC	??_R2Image@Gdiplus@@8				; Gdiplus::Image::`RTTI Base Class Array'
PUBLIC	?Clone@Image@Gdiplus@@UAEPAV12@XZ		; Gdiplus::Image::Clone
PUBLIC	??_7Image@Gdiplus@@6B@				; Gdiplus::Image::`vftable'
PUBLIC	??_GImage@Gdiplus@@UAEPAXI@Z			; Gdiplus::Image::`scalar deleting destructor'
EXTRN	_GdipDisposeImage@4:NEAR
EXTRN	??_EImage@Gdiplus@@UAEPAXI@Z:NEAR		; Gdiplus::Image::`vector deleting destructor'
;	COMDAT ??_7Image@Gdiplus@@6B@
; File d:\program files (x86)\microsoft visual studio .net 2003\vc7\platformsdk\include\gdiplusbitmap.h
CONST	SEGMENT
??_7Image@Gdiplus@@6B@ DD FLAT:??_R4Image@Gdiplus@@6B@	; Gdiplus::Image::`vftable'
	DD	FLAT:??_EImage@Gdiplus@@UAEPAXI@Z
	DD	FLAT:?Clone@Image@Gdiplus@@UAEPAV12@XZ
CONST	ENDS
;	COMDAT ??_R4Image@Gdiplus@@6B@
rdata$r	SEGMENT
??_R4Image@Gdiplus@@6B@ DD 00H				; Gdiplus::Image::`RTTI Complete Object Locator'
	DD	00H
	DD	00H
	DD	FLAT:??_R0?AVImage@Gdiplus@@@8
	DD	FLAT:??_R3Image@Gdiplus@@8
rdata$r	ENDS
;	COMDAT ??_R0?AVImage@Gdiplus@@@8
_DATA	SEGMENT
??_R0?AVImage@Gdiplus@@@8 DD FLAT:??_7type_info@@6B@	; Gdiplus::Image `RTTI Type Descriptor'
	DD	00H
	DB	'.?AVImage@Gdiplus@@', 00H
_DATA	ENDS
;	COMDAT ??_R3Image@Gdiplus@@8
rdata$r	SEGMENT
??_R3Image@Gdiplus@@8 DD 00H				; Gdiplus::Image::`RTTI Class Hierarchy Descriptor'
	DD	00H
	DD	02H
	DD	FLAT:??_R2Image@Gdiplus@@8
rdata$r	ENDS
;	COMDAT ??_R2Image@Gdiplus@@8
rdata$r	SEGMENT
??_R2Image@Gdiplus@@8 DD FLAT:??_R1A@?0A@A@Image@Gdiplus@@8 ; Gdiplus::Image::`RTTI Base Class Array'
	DD	FLAT:??_R13?0A@A@GdiplusBase@Gdiplus@@8
rdata$r	ENDS
;	COMDAT ??_R1A@?0A@A@Image@Gdiplus@@8
rdata$r	SEGMENT
??_R1A@?0A@A@Image@Gdiplus@@8 DD FLAT:??_R0?AVImage@Gdiplus@@@8 ; Gdiplus::Image::`RTTI Base Class Descriptor at (0,-1,0,0)'
	DD	01H
	DD	00H
	DD	0ffffffffH
	DD	00H
	DD	00H
rdata$r	ENDS
;	COMDAT ??_R13?0A@A@GdiplusBase@Gdiplus@@8
rdata$r	SEGMENT
??_R13?0A@A@GdiplusBase@Gdiplus@@8 DD FLAT:??_R0?AVGdiplusBase@Gdiplus@@@8 ; Gdiplus::GdiplusBase::`RTTI Base Class Descriptor at (4,-1,0,0)'
	DD	00H
	DD	04H
	DD	0ffffffffH
	DD	00H
	DD	00H
rdata$r	ENDS
;	COMDAT ??_R0?AVGdiplusBase@Gdiplus@@@8
_DATA	SEGMENT
??_R0?AVGdiplusBase@Gdiplus@@@8 DD FLAT:??_7type_info@@6B@ ; Gdiplus::GdiplusBase `RTTI Type Descriptor'
	DD	00H
	DB	'.?AVGdiplusBase@Gdiplus@@', 00H
; Function compile flags: /Odt
_DATA	ENDS
;	COMDAT ??1Image@Gdiplus@@UAE@XZ
_TEXT	SEGMENT
_this$ = -4						; size = 4
??1Image@Gdiplus@@UAE@XZ PROC NEAR			; Gdiplus::Image::~Image, COMDAT
; _this$ = ecx

; 90   : {

  00000	55		 push	 ebp
  00001	8b ec		 mov	 ebp, esp
  00003	51		 push	 ecx
  00004	89 4d fc	 mov	 DWORD PTR _this$[ebp], ecx
  00007	8b 45 fc	 mov	 eax, DWORD PTR _this$[ebp]
  0000a	c7 00 00 00 00
	00		 mov	 DWORD PTR [eax], OFFSET FLAT:??_7Image@Gdiplus@@6B@

; 91   :     DllExports::GdipDisposeImage(nativeImage);

  00010	8b 4d fc	 mov	 ecx, DWORD PTR _this$[ebp]
  00013	8b 51 04	 mov	 edx, DWORD PTR [ecx+4]
  00016	52		 push	 edx
  00017	e8 00 00 00 00	 call	 _GdipDisposeImage@4

; 92   : }

  0001c	8b e5		 mov	 esp, ebp
  0001e	5d		 pop	 ebp
  0001f	c3		 ret	 0
??1Image@Gdiplus@@UAE@XZ ENDP				; Gdiplus::Image::~Image
_TEXT	ENDS
PUBLIC	??3GdiplusBase@Gdiplus@@SAXPAX@Z		; Gdiplus::GdiplusBase::operator delete
; Function compile flags: /Odt
;	COMDAT ??_GImage@Gdiplus@@UAEPAXI@Z
_TEXT	SEGMENT
_this$ = -4						; size = 4
___flags$ = 8						; size = 4
??_GImage@Gdiplus@@UAEPAXI@Z PROC NEAR			; Gdiplus::Image::`scalar deleting destructor', COMDAT
; _this$ = ecx
  00000	55		 push	 ebp
  00001	8b ec		 mov	 ebp, esp
  00003	51		 push	 ecx
  00004	89 4d fc	 mov	 DWORD PTR _this$[ebp], ecx
  00007	8b 4d fc	 mov	 ecx, DWORD PTR _this$[ebp]
  0000a	e8 00 00 00 00	 call	 ??1Image@Gdiplus@@UAE@XZ ; Gdiplus::Image::~Image
  0000f	8b 45 08	 mov	 eax, DWORD PTR ___flags$[ebp]
  00012	83 e0 01	 and	 eax, 1
  00015	74 0c		 je	 SHORT $L119539
  00017	8b 4d fc	 mov	 ecx, DWORD PTR _this$[ebp]
  0001a	51		 push	 ecx
  0001b	e8 00 00 00 00	 call	 ??3GdiplusBase@Gdiplus@@SAXPAX@Z ; Gdiplus::GdiplusBase::operator delete
  00020	83 c4 04	 add	 esp, 4
$L119539:
  00023	8b 45 fc	 mov	 eax, DWORD PTR _this$[ebp]
  00026	8b e5		 mov	 esp, ebp
  00028	5d		 pop	 ebp
  00029	c2 04 00	 ret	 4
??_GImage@Gdiplus@@UAEPAXI@Z ENDP			; Gdiplus::Image::`scalar deleting destructor'
_TEXT	ENDS
EXTRN	_GdipFree@4:NEAR
; Function compile flags: /Odt
; File d:\program files (x86)\microsoft visual studio .net 2003\vc7\platformsdk\include\gdiplusbase.h
;	COMDAT ??3GdiplusBase@Gdiplus@@SAXPAX@Z
_TEXT	SEGMENT
_in_pVoid$ = 8						; size = 4
??3GdiplusBase@Gdiplus@@SAXPAX@Z PROC NEAR		; Gdiplus::GdiplusBase::operator delete, COMDAT

; 22   :     {

  00000	55		 push	 ebp
  00001	8b ec		 mov	 ebp, esp

; 23   :        DllExports::GdipFree(in_pVoid);

  00003	8b 45 08	 mov	 eax, DWORD PTR _in_pVoid$[ebp]
  00006	50		 push	 eax
  00007	e8 00 00 00 00	 call	 _GdipFree@4

; 24   :     }

  0000c	5d		 pop	 ebp
  0000d	c3		 ret	 0
??3GdiplusBase@Gdiplus@@SAXPAX@Z ENDP			; Gdiplus::GdiplusBase::operator delete
_TEXT	ENDS
PUBLIC	??2GdiplusBase@Gdiplus@@SAPAXI@Z		; Gdiplus::GdiplusBase::operator new
PUBLIC	??0Image@Gdiplus@@IAE@PAVGpImage@1@W4Status@1@@Z ; Gdiplus::Image::Image
EXTRN	_GdipCloneImage@8:NEAR
;	COMDAT xdata$x
; File d:\program files (x86)\microsoft visual studio .net 2003\vc7\platformsdk\include\gdiplusbitmap.h
xdata$x	SEGMENT
$T208449 DD	0ffffffffH
	DD	FLAT:$L208445
$T208447 DD	019930520H
	DD	01H
	DD	FLAT:$T208449
	DD	2 DUP(00H)
	DD	2 DUP(00H)
; Function compile flags: /Odt
xdata$x	ENDS
;	COMDAT ?Clone@Image@Gdiplus@@UAEPAV12@XZ
_TEXT	SEGMENT
tv80 = -32						; size = 4
_this$ = -28						; size = 4
$T208442 = -24						; size = 4
$T208441 = -20						; size = 4
_cloneimage$ = -16					; size = 4
__$EHRec$ = -12						; size = 12
?Clone@Image@Gdiplus@@UAEPAV12@XZ PROC NEAR		; Gdiplus::Image::Clone, COMDAT
; _this$ = ecx

; 96   : {

  00000	55		 push	 ebp
  00001	8b ec		 mov	 ebp, esp
  00003	6a ff		 push	 -1
  00005	68 00 00 00 00	 push	 __ehhandler$?Clone@Image@Gdiplus@@UAEPAV12@XZ
  0000a	64 a1 00 00 00
	00		 mov	 eax, DWORD PTR fs:__except_list
  00010	50		 push	 eax
  00011	64 89 25 00 00
	00 00		 mov	 DWORD PTR fs:__except_list, esp
  00018	83 ec 14	 sub	 esp, 20			; 00000014H
  0001b	89 4d e4	 mov	 DWORD PTR _this$[ebp], ecx

; 97   :     GpImage *cloneimage = NULL;

  0001e	c7 45 f0 00 00
	00 00		 mov	 DWORD PTR _cloneimage$[ebp], 0

; 98   : 
; 99   :     SetStatus(DllExports::GdipCloneImage(nativeImage, &cloneimage));

  00025	8d 45 f0	 lea	 eax, DWORD PTR _cloneimage$[ebp]
  00028	50		 push	 eax
  00029	8b 4d e4	 mov	 ecx, DWORD PTR _this$[ebp]
  0002c	8b 51 04	 mov	 edx, DWORD PTR [ecx+4]
  0002f	52		 push	 edx
  00030	e8 00 00 00 00	 call	 _GdipCloneImage@8
  00035	50		 push	 eax
  00036	8b 4d e4	 mov	 ecx, DWORD PTR _this$[ebp]
  00039	e8 00 00 00 00	 call	 ?SetStatus@Image@Gdiplus@@IBE?AW4Status@2@W432@@Z ; Gdiplus::Image::SetStatus

; 100  : 
; 101  :     return new Image(cloneimage, lastResult);

  0003e	6a 10		 push	 16			; 00000010H
  00040	e8 00 00 00 00	 call	 ??2GdiplusBase@Gdiplus@@SAPAXI@Z ; Gdiplus::GdiplusBase::operator new
  00045	83 c4 04	 add	 esp, 4
  00048	89 45 e8	 mov	 DWORD PTR $T208442[ebp], eax
  0004b	c7 45 fc 00 00
	00 00		 mov	 DWORD PTR __$EHRec$[ebp+8], 0
  00052	83 7d e8 00	 cmp	 DWORD PTR $T208442[ebp], 0
  00056	74 18		 je	 SHORT $L208443
  00058	8b 45 e4	 mov	 eax, DWORD PTR _this$[ebp]
  0005b	8b 48 08	 mov	 ecx, DWORD PTR [eax+8]
  0005e	51		 push	 ecx
  0005f	8b 55 f0	 mov	 edx, DWORD PTR _cloneimage$[ebp]
  00062	52		 push	 edx
  00063	8b 4d e8	 mov	 ecx, DWORD PTR $T208442[ebp]
  00066	e8 00 00 00 00	 call	 ??0Image@Gdiplus@@IAE@PAVGpImage@1@W4Status@1@@Z ; Gdiplus::Image::Image
  0006b	89 45 e0	 mov	 DWORD PTR tv80[ebp], eax
  0006e	eb 07		 jmp	 SHORT $L208444
$L208443:
  00070	c7 45 e0 00 00
	00 00		 mov	 DWORD PTR tv80[ebp], 0
$L208444:
  00077	8b 45 e0	 mov	 eax, DWORD PTR tv80[ebp]
  0007a	89 45 ec	 mov	 DWORD PTR $T208441[ebp], eax
  0007d	c7 45 fc ff ff
	ff ff		 mov	 DWORD PTR __$EHRec$[ebp+8], -1
  00084	8b 45 ec	 mov	 eax, DWORD PTR $T208441[ebp]

; 102  : }

  00087	8b 4d f4	 mov	 ecx, DWORD PTR __$EHRec$[ebp]
  0008a	64 89 0d 00 00
	00 00		 mov	 DWORD PTR fs:__except_list, ecx
  00091	8b e5		 mov	 esp, ebp
  00093	5d		 pop	 ebp
  00094	c3		 ret	 0
_TEXT	ENDS
;	COMDAT text$x
text$x	SEGMENT
$L208445:
  00000	8b 45 e8	 mov	 eax, DWORD PTR $T208442[ebp]
  00003	50		 push	 eax
  00004	e8 00 00 00 00	 call	 ??3GdiplusBase@Gdiplus@@SAXPAX@Z ; Gdiplus::GdiplusBase::operator delete
  00009	59		 pop	 ecx
  0000a	c3		 ret	 0
__ehhandler$?Clone@Image@Gdiplus@@UAEPAV12@XZ:
  0000b	b8 00 00 00 00	 mov	 eax, OFFSET FLAT:$T208447
  00010	e9 00 00 00 00	 jmp	 ___CxxFrameHandler
text$x	ENDS
?Clone@Image@Gdiplus@@UAEPAV12@XZ ENDP			; Gdiplus::Image::Clone
EXTRN	_GdipAlloc@4:NEAR
; Function compile flags: /Odt
; File d:\program files (x86)\microsoft visual studio .net 2003\vc7\platformsdk\include\gdiplusbase.h
;	COMDAT ??2GdiplusBase@Gdiplus@@SAPAXI@Z
_TEXT	SEGMENT
_in_size$ = 8						; size = 4
??2GdiplusBase@Gdiplus@@SAPAXI@Z PROC NEAR		; Gdiplus::GdiplusBase::operator new, COMDAT

; 26   :     {

  00000	55		 push	 ebp
  00001	8b ec		 mov	 ebp, esp

; 27   :        return DllExports::GdipAlloc(in_size);

  00003	8b 45 08	 mov	 eax, DWORD PTR _in_size$[ebp]
  00006	50		 push	 eax
  00007	e8 00 00 00 00	 call	 _GdipAlloc@4

; 28   :     }

  0000c	5d		 pop	 ebp
  0000d	c3		 ret	 0
??2GdiplusBase@Gdiplus@@SAPAXI@Z ENDP			; Gdiplus::GdiplusBase::operator new
_TEXT	ENDS
PUBLIC	?SetNativeImage@Image@Gdiplus@@IAEXPAVGpImage@2@@Z ; Gdiplus::Image::SetNativeImage
; Function compile flags: /Odt
; File d:\program files (x86)\microsoft visual studio .net 2003\vc7\platformsdk\include\gdiplusbitmap.h
;	COMDAT ??0Image@Gdiplus@@IAE@PAVGpImage@1@W4Status@1@@Z
_TEXT	SEGMENT
_this$ = -4						; size = 4
_nativeImage$ = 8					; size = 4
_status$ = 12						; size = 4
??0Image@Gdiplus@@IAE@PAVGpImage@1@W4Status@1@@Z PROC NEAR ; Gdiplus::Image::Image, COMDAT
; _this$ = ecx

; 497  : {

  00000	55		 push	 ebp
  00001	8b ec		 mov	 ebp, esp
  00003	51		 push	 ecx
  00004	89 4d fc	 mov	 DWORD PTR _this$[ebp], ecx
  00007	8b 45 fc	 mov	 eax, DWORD PTR _this$[ebp]
  0000a	c7 00 00 00 00
	00		 mov	 DWORD PTR [eax], OFFSET FLAT:??_7Image@Gdiplus@@6B@

; 498  :     SetNativeImage(nativeImage);

  00010	8b 4d 08	 mov	 ecx, DWORD PTR _nativeImage$[ebp]
  00013	51		 push	 ecx
  00014	8b 4d fc	 mov	 ecx, DWORD PTR _this$[ebp]
  00017	e8 00 00 00 00	 call	 ?SetNativeImage@Image@Gdiplus@@IAEXPAVGpImage@2@@Z ; Gdiplus::Image::SetNativeImage

; 499  :     lastResult = status;

  0001c	8b 55 fc	 mov	 edx, DWORD PTR _this$[ebp]
  0001f	8b 45 0c	 mov	 eax, DWORD PTR _status$[ebp]
  00022	89 42 08	 mov	 DWORD PTR [edx+8], eax

; 500  : }

  00025	8b 45 fc	 mov	 eax, DWORD PTR _this$[ebp]
  00028	8b e5		 mov	 esp, ebp
  0002a	5d		 pop	 ebp
  0002b	c2 08 00	 ret	 8
??0Image@Gdiplus@@IAE@PAVGpImage@1@W4Status@1@@Z ENDP	; Gdiplus::Image::Image
; Function compile flags: /Odt
_TEXT	ENDS
;	COMDAT ?SetNativeImage@Image@Gdiplus@@IAEXPAVGpImage@2@@Z
_TEXT	SEGMENT
_this$ = -4						; size = 4
_nativeImage$ = 8					; size = 4
?SetNativeImage@Image@Gdiplus@@IAEXPAVGpImage@2@@Z PROC NEAR ; Gdiplus::Image::SetNativeImage, COMDAT
; _this$ = ecx

; 504  : {

  00000	55		 push	 ebp
  00001	8b ec		 mov	 ebp, esp
  00003	51		 push	 ecx
  00004	89 4d fc	 mov	 DWORD PTR _this$[ebp], ecx

; 505  :     this->nativeImage = nativeImage;

  00007	8b 45 fc	 mov	 eax, DWORD PTR _this$[ebp]
  0000a	8b 4d 08	 mov	 ecx, DWORD PTR _nativeImage$[ebp]
  0000d	89 48 04	 mov	 DWORD PTR [eax+4], ecx

; 506  : }

  00010	8b e5		 mov	 esp, ebp
  00012	5d		 pop	 ebp
  00013	c2 04 00	 ret	 4
?SetNativeImage@Image@Gdiplus@@IAEXPAVGpImage@2@@Z ENDP	; Gdiplus::Image::SetNativeImage
_TEXT	ENDS
PUBLIC	??_R4Bitmap@Gdiplus@@6B@			; Gdiplus::Bitmap::`RTTI Complete Object Locator'
PUBLIC	??_R0?AVBitmap@Gdiplus@@@8			; Gdiplus::Bitmap `RTTI Type Descriptor'
PUBLIC	??_R3Bitmap@Gdiplus@@8				; Gdiplus::Bitmap::`RTTI Class Hierarchy Descriptor'
PUBLIC	??_R2Bitmap@Gdiplus@@8				; Gdiplus::Bitmap::`RTTI Base Class Array'
PUBLIC	??_R1A@?0A@A@Bitmap@Gdiplus@@8			; Gdiplus::Bitmap::`RTTI Base Class Descriptor at (0,-1,0,0)'
PUBLIC	??0Image@Gdiplus@@IAE@XZ			; Gdiplus::Image::Image
PUBLIC	??_7Bitmap@Gdiplus@@6B@				; Gdiplus::Bitmap::`vftable'
PUBLIC	??_GBitmap@Gdiplus@@UAEPAXI@Z			; Gdiplus::Bitmap::`scalar deleting destructor'
EXTRN	_GdipCreateBitmapFromScan0@24:NEAR
EXTRN	??_EBitmap@Gdiplus@@UAEPAXI@Z:NEAR		; Gdiplus::Bitmap::`vector deleting destructor'
;	COMDAT xdata$x
xdata$x	SEGMENT
$T208464 DD	0ffffffffH
	DD	FLAT:$L208460
$T208462 DD	019930520H
	DD	01H
	DD	FLAT:$T208464
	DD	2 DUP(00H)
	DD	2 DUP(00H)
xdata$x	ENDS
;	COMDAT ??_7Bitmap@Gdiplus@@6B@
CONST	SEGMENT
??_7Bitmap@Gdiplus@@6B@ DD FLAT:??_R4Bitmap@Gdiplus@@6B@ ; Gdiplus::Bitmap::`vftable'
	DD	FLAT:??_EBitmap@Gdiplus@@UAEPAXI@Z
	DD	FLAT:?Clone@Image@Gdiplus@@UAEPAV12@XZ
CONST	ENDS
;	COMDAT ??_R4Bitmap@Gdiplus@@6B@
rdata$r	SEGMENT
??_R4Bitmap@Gdiplus@@6B@ DD 00H				; Gdiplus::Bitmap::`RTTI Complete Object Locator'
	DD	00H
	DD	00H
	DD	FLAT:??_R0?AVBitmap@Gdiplus@@@8
	DD	FLAT:??_R3Bitmap@Gdiplus@@8
rdata$r	ENDS
;	COMDAT ??_R0?AVBitmap@Gdiplus@@@8
_DATA	SEGMENT
??_R0?AVBitmap@Gdiplus@@@8 DD FLAT:??_7type_info@@6B@	; Gdiplus::Bitmap `RTTI Type Descriptor'
	DD	00H
	DB	'.?AVBitmap@Gdiplus@@', 00H
_DATA	ENDS
;	COMDAT ??_R3Bitmap@Gdiplus@@8
rdata$r	SEGMENT
??_R3Bitmap@Gdiplus@@8 DD 00H				; Gdiplus::Bitmap::`RTTI Class Hierarchy Descriptor'
	DD	00H
	DD	03H
	DD	FLAT:??_R2Bitmap@Gdiplus@@8
rdata$r	ENDS
;	COMDAT ??_R2Bitmap@Gdiplus@@8
rdata$r	SEGMENT
??_R2Bitmap@Gdiplus@@8 DD FLAT:??_R1A@?0A@A@Bitmap@Gdiplus@@8 ; Gdiplus::Bitmap::`RTTI Base Class Array'
	DD	FLAT:??_R1A@?0A@A@Image@Gdiplus@@8
	DD	FLAT:??_R13?0A@A@GdiplusBase@Gdiplus@@8
rdata$r	ENDS
;	COMDAT ??_R1A@?0A@A@Bitmap@Gdiplus@@8
rdata$r	SEGMENT
??_R1A@?0A@A@Bitmap@Gdiplus@@8 DD FLAT:??_R0?AVBitmap@Gdiplus@@@8 ; Gdiplus::Bitmap::`RTTI Base Class Descriptor at (0,-1,0,0)'
	DD	02H
	DD	00H
	DD	0ffffffffH
	DD	00H
	DD	00H
; Function compile flags: /Odt
rdata$r	ENDS
;	COMDAT ??0Bitmap@Gdiplus@@QAE@HHHHPAE@Z
_TEXT	SEGMENT
_this$ = -20						; size = 4
_bitmap$ = -16						; size = 4
__$EHRec$ = -12						; size = 12
_width$ = 8						; size = 4
_height$ = 12						; size = 4
_stride$ = 16						; size = 4
_format$ = 20						; size = 4
_scan0$ = 24						; size = 4
??0Bitmap@Gdiplus@@QAE@HHHHPAE@Z PROC NEAR		; Gdiplus::Bitmap::Bitmap, COMDAT
; _this$ = ecx

; 556  : {

  00000	55		 push	 ebp
  00001	8b ec		 mov	 ebp, esp
  00003	6a ff		 push	 -1
  00005	68 00 00 00 00	 push	 __ehhandler$??0Bitmap@Gdiplus@@QAE@HHHHPAE@Z
  0000a	64 a1 00 00 00
	00		 mov	 eax, DWORD PTR fs:__except_list
  00010	50		 push	 eax
  00011	64 89 25 00 00
	00 00		 mov	 DWORD PTR fs:__except_list, esp
  00018	83 ec 08	 sub	 esp, 8
  0001b	89 4d ec	 mov	 DWORD PTR _this$[ebp], ecx
  0001e	8b 4d ec	 mov	 ecx, DWORD PTR _this$[ebp]
  00021	e8 00 00 00 00	 call	 ??0Image@Gdiplus@@IAE@XZ ; Gdiplus::Image::Image
  00026	c7 45 fc 00 00
	00 00		 mov	 DWORD PTR __$EHRec$[ebp+8], 0
  0002d	8b 45 ec	 mov	 eax, DWORD PTR _this$[ebp]
  00030	c7 00 00 00 00
	00		 mov	 DWORD PTR [eax], OFFSET FLAT:??_7Bitmap@Gdiplus@@6B@

; 557  :     GpBitmap *bitmap = NULL;

  00036	c7 45 f0 00 00
	00 00		 mov	 DWORD PTR _bitmap$[ebp], 0

; 558  : 
; 559  :     lastResult = DllExports::GdipCreateBitmapFromScan0(width,
; 560  :                                                        height,
; 561  :                                                        stride,
; 562  :                                                        format,
; 563  :                                                        scan0,
; 564  :                                                        &bitmap);

  0003d	8d 4d f0	 lea	 ecx, DWORD PTR _bitmap$[ebp]
  00040	51		 push	 ecx
  00041	8b 55 18	 mov	 edx, DWORD PTR _scan0$[ebp]
  00044	52		 push	 edx
  00045	8b 45 14	 mov	 eax, DWORD PTR _format$[ebp]
  00048	50		 push	 eax
  00049	8b 4d 10	 mov	 ecx, DWORD PTR _stride$[ebp]
  0004c	51		 push	 ecx
  0004d	8b 55 0c	 mov	 edx, DWORD PTR _height$[ebp]
  00050	52		 push	 edx
  00051	8b 45 08	 mov	 eax, DWORD PTR _width$[ebp]
  00054	50		 push	 eax
  00055	e8 00 00 00 00	 call	 _GdipCreateBitmapFromScan0@24
  0005a	8b 4d ec	 mov	 ecx, DWORD PTR _this$[ebp]
  0005d	89 41 08	 mov	 DWORD PTR [ecx+8], eax

; 565  : 
; 566  :     SetNativeImage(bitmap);

  00060	8b 55 f0	 mov	 edx, DWORD PTR _bitmap$[ebp]
  00063	52		 push	 edx
  00064	8b 4d ec	 mov	 ecx, DWORD PTR _this$[ebp]
  00067	e8 00 00 00 00	 call	 ?SetNativeImage@Image@Gdiplus@@IAEXPAVGpImage@2@@Z ; Gdiplus::Image::SetNativeImage

; 567  : }

  0006c	c7 45 fc ff ff
	ff ff		 mov	 DWORD PTR __$EHRec$[ebp+8], -1
  00073	8b 45 ec	 mov	 eax, DWORD PTR _this$[ebp]
  00076	8b 4d f4	 mov	 ecx, DWORD PTR __$EHRec$[ebp]
  00079	64 89 0d 00 00
	00 00		 mov	 DWORD PTR fs:__except_list, ecx
  00080	8b e5		 mov	 esp, ebp
  00082	5d		 pop	 ebp
  00083	c2 14 00	 ret	 20			; 00000014H
_TEXT	ENDS
;	COMDAT text$x
text$x	SEGMENT
$L208460:
  00000	8b 4d ec	 mov	 ecx, DWORD PTR _this$[ebp]
  00003	e9 00 00 00 00	 jmp	 ??1Image@Gdiplus@@UAE@XZ ; Gdiplus::Image::~Image
__ehhandler$??0Bitmap@Gdiplus@@QAE@HHHHPAE@Z:
  00008	b8 00 00 00 00	 mov	 eax, OFFSET FLAT:$T208462
  0000d	e9 00 00 00 00	 jmp	 ___CxxFrameHandler
text$x	ENDS
??0Bitmap@Gdiplus@@QAE@HHHHPAE@Z ENDP			; Gdiplus::Bitmap::Bitmap
; Function compile flags: /Odt
; File d:\program files (x86)\microsoft visual studio .net 2003\vc7\platformsdk\include\gdiplusheaders.h
;	COMDAT ??0Image@Gdiplus@@IAE@XZ
_TEXT	SEGMENT
_this$ = -4						; size = 4
??0Image@Gdiplus@@IAE@XZ PROC NEAR			; Gdiplus::Image::Image, COMDAT
; _this$ = ecx

; 465  :     Image() {}

  00000	55		 push	 ebp
  00001	8b ec		 mov	 ebp, esp
  00003	51		 push	 ecx
  00004	89 4d fc	 mov	 DWORD PTR _this$[ebp], ecx
  00007	8b 45 fc	 mov	 eax, DWORD PTR _this$[ebp]
  0000a	c7 00 00 00 00
	00		 mov	 DWORD PTR [eax], OFFSET FLAT:??_7Image@Gdiplus@@6B@
  00010	8b 45 fc	 mov	 eax, DWORD PTR _this$[ebp]
  00013	8b e5		 mov	 esp, ebp
  00015	5d		 pop	 ebp
  00016	c3		 ret	 0
??0Image@Gdiplus@@IAE@XZ ENDP				; Gdiplus::Image::Image
; Function compile flags: /Odt
_TEXT	ENDS
;	COMDAT ??_GBitmap@Gdiplus@@UAEPAXI@Z
_TEXT	SEGMENT
_this$ = -4						; size = 4
___flags$ = 8						; size = 4
??_GBitmap@Gdiplus@@UAEPAXI@Z PROC NEAR			; Gdiplus::Bitmap::`scalar deleting destructor', COMDAT
; _this$ = ecx
  00000	55		 push	 ebp
  00001	8b ec		 mov	 ebp, esp
  00003	51		 push	 ecx
  00004	89 4d fc	 mov	 DWORD PTR _this$[ebp], ecx
  00007	8b 4d fc	 mov	 ecx, DWORD PTR _this$[ebp]
  0000a	e8 00 00 00 00	 call	 ??1Bitmap@Gdiplus@@UAE@XZ
  0000f	8b 45 08	 mov	 eax, DWORD PTR ___flags$[ebp]
  00012	83 e0 01	 and	 eax, 1
  00015	74 0c		 je	 SHORT $L127036
  00017	8b 4d fc	 mov	 ecx, DWORD PTR _this$[ebp]
  0001a	51		 push	 ecx
  0001b	e8 00 00 00 00	 call	 ??3GdiplusBase@Gdiplus@@SAXPAX@Z ; Gdiplus::GdiplusBase::operator delete
  00020	83 c4 04	 add	 esp, 4
$L127036:
  00023	8b 45 fc	 mov	 eax, DWORD PTR _this$[ebp]
  00026	8b e5		 mov	 esp, ebp
  00028	5d		 pop	 ebp
  00029	c2 04 00	 ret	 4
??_GBitmap@Gdiplus@@UAEPAXI@Z ENDP			; Gdiplus::Bitmap::`scalar deleting destructor'
_TEXT	ENDS
EXTRN	_GdipCreateBitmapFromHBITMAP@12:NEAR
;	COMDAT xdata$x
; File d:\program files (x86)\microsoft visual studio .net 2003\vc7\platformsdk\include\gdiplusbitmap.h
xdata$x	SEGMENT
$T208477 DD	0ffffffffH
	DD	FLAT:$L208473
$T208475 DD	019930520H
	DD	01H
	DD	FLAT:$T208477
	DD	2 DUP(00H)
	DD	2 DUP(00H)
; Function compile flags: /Odt
xdata$x	ENDS
;	COMDAT ??0Bitmap@Gdiplus@@QAE@PAUHBITMAP__@@PAUHPALETTE__@@@Z
_TEXT	SEGMENT
_this$ = -20						; size = 4
_bitmap$ = -16						; size = 4
__$EHRec$ = -12						; size = 12
_hbm$ = 8						; size = 4
_hpal$ = 12						; size = 4
??0Bitmap@Gdiplus@@QAE@PAUHBITMAP__@@PAUHPALETTE__@@@Z PROC NEAR ; Gdiplus::Bitmap::Bitmap, COMDAT
; _this$ = ecx

; 637  : {

  00000	55		 push	 ebp
  00001	8b ec		 mov	 ebp, esp
  00003	6a ff		 push	 -1
  00005	68 00 00 00 00	 push	 __ehhandler$??0Bitmap@Gdiplus@@QAE@PAUHBITMAP__@@PAUHPALETTE__@@@Z
  0000a	64 a1 00 00 00
	00		 mov	 eax, DWORD PTR fs:__except_list
  00010	50		 push	 eax
  00011	64 89 25 00 00
	00 00		 mov	 DWORD PTR fs:__except_list, esp
  00018	83 ec 08	 sub	 esp, 8
  0001b	89 4d ec	 mov	 DWORD PTR _this$[ebp], ecx
  0001e	8b 4d ec	 mov	 ecx, DWORD PTR _this$[ebp]
  00021	e8 00 00 00 00	 call	 ??0Image@Gdiplus@@IAE@XZ ; Gdiplus::Image::Image
  00026	c7 45 fc 00 00
	00 00		 mov	 DWORD PTR __$EHRec$[ebp+8], 0
  0002d	8b 45 ec	 mov	 eax, DWORD PTR _this$[ebp]
  00030	c7 00 00 00 00
	00		 mov	 DWORD PTR [eax], OFFSET FLAT:??_7Bitmap@Gdiplus@@6B@

; 638  :     GpBitmap *bitmap = NULL;

  00036	c7 45 f0 00 00
	00 00		 mov	 DWORD PTR _bitmap$[ebp], 0

; 639  : 
; 640  :     lastResult = DllExports::GdipCreateBitmapFromHBITMAP(hbm, hpal, &bitmap);

  0003d	8d 4d f0	 lea	 ecx, DWORD PTR _bitmap$[ebp]
  00040	51		 push	 ecx
  00041	8b 55 0c	 mov	 edx, DWORD PTR _hpal$[ebp]
  00044	52		 push	 edx
  00045	8b 45 08	 mov	 eax, DWORD PTR _hbm$[ebp]
  00048	50		 push	 eax
  00049	e8 00 00 00 00	 call	 _GdipCreateBitmapFromHBITMAP@12
  0004e	8b 4d ec	 mov	 ecx, DWORD PTR _this$[ebp]
  00051	89 41 08	 mov	 DWORD PTR [ecx+8], eax

; 641  : 
; 642  :     SetNativeImage(bitmap);

  00054	8b 55 f0	 mov	 edx, DWORD PTR _bitmap$[ebp]
  00057	52		 push	 edx
  00058	8b 4d ec	 mov	 ecx, DWORD PTR _this$[ebp]
  0005b	e8 00 00 00 00	 call	 ?SetNativeImage@Image@Gdiplus@@IAEXPAVGpImage@2@@Z ; Gdiplus::Image::SetNativeImage

; 643  : }

  00060	c7 45 fc ff ff
	ff ff		 mov	 DWORD PTR __$EHRec$[ebp+8], -1
  00067	8b 45 ec	 mov	 eax, DWORD PTR _this$[ebp]
  0006a	8b 4d f4	 mov	 ecx, DWORD PTR __$EHRec$[ebp]
  0006d	64 89 0d 00 00
	00 00		 mov	 DWORD PTR fs:__except_list, ecx
  00074	8b e5		 mov	 esp, ebp
  00076	5d		 pop	 ebp
  00077	c2 08 00	 ret	 8
_TEXT	ENDS
;	COMDAT text$x
text$x	SEGMENT
$L208473:
  00000	8b 4d ec	 mov	 ecx, DWORD PTR _this$[ebp]
  00003	e9 00 00 00 00	 jmp	 ??1Image@Gdiplus@@UAE@XZ ; Gdiplus::Image::~Image
__ehhandler$??0Bitmap@Gdiplus@@QAE@PAUHBITMAP__@@PAUHPALETTE__@@@Z:
  00008	b8 00 00 00 00	 mov	 eax, OFFSET FLAT:$T208475
  0000d	e9 00 00 00 00	 jmp	 ___CxxFrameHandler
text$x	ENDS
??0Bitmap@Gdiplus@@QAE@PAUHBITMAP__@@PAUHPALETTE__@@@Z ENDP ; Gdiplus::Bitmap::Bitmap
EXTRN	_GdipGetImageEncodersSize@8:NEAR
; Function compile flags: /Odt
; File d:\program files (x86)\microsoft visual studio .net 2003\vc7\platformsdk\include\gdiplusimagecodec.h
;	COMDAT ?GetImageEncodersSize@Gdiplus@@YA?AW4Status@1@PAI0@Z
_TEXT	SEGMENT
_numEncoders$ = 8					; size = 4
_size$ = 12						; size = 4
?GetImageEncodersSize@Gdiplus@@YA?AW4Status@1@PAI0@Z PROC NEAR ; Gdiplus::GetImageEncodersSize, COMDAT

; 45   : {

  00000	55		 push	 ebp
  00001	8b ec		 mov	 ebp, esp

; 46   :     return DllExports::GdipGetImageEncodersSize(numEncoders, size);

  00003	8b 45 0c	 mov	 eax, DWORD PTR _size$[ebp]
  00006	50		 push	 eax
  00007	8b 4d 08	 mov	 ecx, DWORD PTR _numEncoders$[ebp]
  0000a	51		 push	 ecx
  0000b	e8 00 00 00 00	 call	 _GdipGetImageEncodersSize@8

; 47   : }

  00010	5d		 pop	 ebp
  00011	c3		 ret	 0
?GetImageEncodersSize@Gdiplus@@YA?AW4Status@1@PAI0@Z ENDP ; Gdiplus::GetImageEncodersSize
_TEXT	ENDS
EXTRN	_GdipGetImageEncoders@12:NEAR
; Function compile flags: /Odt
;	COMDAT ?GetImageEncoders@Gdiplus@@YA?AW4Status@1@IIPAVImageCodecInfo@1@@Z
_TEXT	SEGMENT
_numEncoders$ = 8					; size = 4
_size$ = 12						; size = 4
_encoders$ = 16						; size = 4
?GetImageEncoders@Gdiplus@@YA?AW4Status@1@IIPAVImageCodecInfo@1@@Z PROC NEAR ; Gdiplus::GetImageEncoders, COMDAT

; 55   : {

  00000	55		 push	 ebp
  00001	8b ec		 mov	 ebp, esp

; 56   :     return DllExports::GdipGetImageEncoders(numEncoders, size, encoders);

  00003	8b 45 10	 mov	 eax, DWORD PTR _encoders$[ebp]
  00006	50		 push	 eax
  00007	8b 4d 0c	 mov	 ecx, DWORD PTR _size$[ebp]
  0000a	51		 push	 ecx
  0000b	8b 55 08	 mov	 edx, DWORD PTR _numEncoders$[ebp]
  0000e	52		 push	 edx
  0000f	e8 00 00 00 00	 call	 _GdipGetImageEncoders@12

; 57   : }

  00014	5d		 pop	 ebp
  00015	c3		 ret	 0
?GetImageEncoders@Gdiplus@@YA?AW4Status@1@IIPAVImageCodecInfo@1@@Z ENDP ; Gdiplus::GetImageEncoders
; Function compile flags: /Odt
; File d:\program files (x86)\microsoft visual studio .net 2003\vc7\atlmfc\include\atlalloc.h
_TEXT	ENDS
;	COMDAT ??0?$CAtlSafeAllocBufferManager@VCCRTAllocator@ATL@@@_ATL_SAFE_ALLOCA_IMPL@ATL@@QAE@XZ
_TEXT	SEGMENT
_this$ = -4						; size = 4
??0?$CAtlSafeAllocBufferManager@VCCRTAllocator@ATL@@@_ATL_SAFE_ALLOCA_IMPL@ATL@@QAE@XZ PROC NEAR ; ATL::_ATL_SAFE_ALLOCA_IMPL::CAtlSafeAllocBufferManager<ATL::CCRTAllocator>::CAtlSafeAllocBufferManager<ATL::CCRTAllocator>, COMDAT
; _this$ = ecx

; 373  : 	CAtlSafeAllocBufferManager() : m_pHead(NULL) {};

  00000	55		 push	 ebp
  00001	8b ec		 mov	 ebp, esp
  00003	51		 push	 ecx
  00004	89 4d fc	 mov	 DWORD PTR _this$[ebp], ecx
  00007	8b 45 fc	 mov	 eax, DWORD PTR _this$[ebp]
  0000a	c7 00 00 00 00
	00		 mov	 DWORD PTR [eax], 0
  00010	8b 45 fc	 mov	 eax, DWORD PTR _this$[ebp]
  00013	8b e5		 mov	 esp, ebp
  00015	5d		 pop	 ebp
  00016	c3		 ret	 0
??0?$CAtlSafeAllocBufferManager@VCCRTAllocator@ATL@@@_ATL_SAFE_ALLOCA_IMPL@ATL@@QAE@XZ ENDP ; ATL::_ATL_SAFE_ALLOCA_IMPL::CAtlSafeAllocBufferManager<ATL::CCRTAllocator>::CAtlSafeAllocBufferManager<ATL::CCRTAllocator>
_TEXT	ENDS
PUBLIC	?GetData@CAtlSafeAllocBufferNode@?$CAtlSafeAllocBufferManager@VCCRTAllocator@ATL@@@_ATL_SAFE_ALLOCA_IMPL@ATL@@QAEPAXXZ ; ATL::_ATL_SAFE_ALLOCA_IMPL::CAtlSafeAllocBufferManager<ATL::CCRTAllocator>::CAtlSafeAllocBufferNode::GetData
PUBLIC	?Allocate@CCRTAllocator@ATL@@SAPAXI@Z		; ATL::CCRTAllocator::Allocate
; Function compile flags: /Odt
;	COMDAT ?Allocate@?$CAtlSafeAllocBufferManager@VCCRTAllocator@ATL@@@_ATL_SAFE_ALLOCA_IMPL@ATL@@QAEPAXK@Z
_TEXT	SEGMENT
_this$ = -8						; size = 4
_p$ = -4						; size = 4
_nRequestedSize$ = 8					; size = 4
?Allocate@?$CAtlSafeAllocBufferManager@VCCRTAllocator@ATL@@@_ATL_SAFE_ALLOCA_IMPL@ATL@@QAEPAXK@Z PROC NEAR ; ATL::_ATL_SAFE_ALLOCA_IMPL::CAtlSafeAllocBufferManager<ATL::CCRTAllocator>::Allocate, COMDAT
; _this$ = ecx

; 375  : 	{

  00000	55		 push	 ebp
  00001	8b ec		 mov	 ebp, esp
  00003	83 ec 08	 sub	 esp, 8
  00006	89 4d f8	 mov	 DWORD PTR _this$[ebp], ecx

; 376  : 		CAtlSafeAllocBufferNode *p = (CAtlSafeAllocBufferNode*)Allocator::Allocate(nRequestedSize + sizeof(CAtlSafeAllocBufferNode));

  00009	8b 45 08	 mov	 eax, DWORD PTR _nRequestedSize$[ebp]
  0000c	83 c0 08	 add	 eax, 8
  0000f	50		 push	 eax
  00010	e8 00 00 00 00	 call	 ?Allocate@CCRTAllocator@ATL@@SAPAXI@Z ; ATL::CCRTAllocator::Allocate
  00015	83 c4 04	 add	 esp, 4
  00018	89 45 fc	 mov	 DWORD PTR _p$[ebp], eax

; 377  : 		if (p == NULL)

  0001b	83 7d fc 00	 cmp	 DWORD PTR _p$[ebp], 0
  0001f	75 04		 jne	 SHORT $L191833

; 378  : 			return NULL;

  00021	33 c0		 xor	 eax, eax
  00023	eb 1a		 jmp	 SHORT $L191820
$L191833:

; 379  : 		
; 380  : 		// Add buffer to the list
; 381  : 		p->m_pNext = m_pHead;

  00025	8b 4d fc	 mov	 ecx, DWORD PTR _p$[ebp]
  00028	8b 55 f8	 mov	 edx, DWORD PTR _this$[ebp]
  0002b	8b 02		 mov	 eax, DWORD PTR [edx]
  0002d	89 01		 mov	 DWORD PTR [ecx], eax

; 382  : 		m_pHead = p;

  0002f	8b 4d f8	 mov	 ecx, DWORD PTR _this$[ebp]
  00032	8b 55 fc	 mov	 edx, DWORD PTR _p$[ebp]
  00035	89 11		 mov	 DWORD PTR [ecx], edx

; 383  : 		
; 384  : 		return p->GetData();

  00037	8b 4d fc	 mov	 ecx, DWORD PTR _p$[ebp]
  0003a	e8 00 00 00 00	 call	 ?GetData@CAtlSafeAllocBufferNode@?$CAtlSafeAllocBufferManager@VCCRTAllocator@ATL@@@_ATL_SAFE_ALLOCA_IMPL@ATL@@QAEPAXXZ ; ATL::_ATL_SAFE_ALLOCA_IMPL::CAtlSafeAllocBufferManager<ATL::CCRTAllocator>::CAtlSafeAllocBufferNode::GetData
$L191820:

; 385  : 	}

  0003f	8b e5		 mov	 esp, ebp
  00041	5d		 pop	 ebp
  00042	c2 04 00	 ret	 4
?Allocate@?$CAtlSafeAllocBufferManager@VCCRTAllocator@ATL@@@_ATL_SAFE_ALLOCA_IMPL@ATL@@QAEPAXK@Z ENDP ; ATL::_ATL_SAFE_ALLOCA_IMPL::CAtlSafeAllocBufferManager<ATL::CCRTAllocator>::Allocate
; Function compile flags: /Odt
_TEXT	ENDS
;	COMDAT ?Allocate@CCRTAllocator@ATL@@SAPAXI@Z
_TEXT	SEGMENT
_nBytes$ = 8						; size = 4
?Allocate@CCRTAllocator@ATL@@SAPAXI@Z PROC NEAR		; ATL::CCRTAllocator::Allocate, COMDAT

; 30   : 	{

  00000	55		 push	 ebp
  00001	8b ec		 mov	 ebp, esp

; 31   : 		return malloc(nBytes);

  00003	8b 45 08	 mov	 eax, DWORD PTR _nBytes$[ebp]
  00006	50		 push	 eax
  00007	ff 15 00 00 00
	00		 call	 DWORD PTR __imp__malloc
  0000d	83 c4 04	 add	 esp, 4

; 32   : 	}

  00010	5d		 pop	 ebp
  00011	c3		 ret	 0
?Allocate@CCRTAllocator@ATL@@SAPAXI@Z ENDP		; ATL::CCRTAllocator::Allocate
_TEXT	ENDS
PUBLIC	?Free@CCRTAllocator@ATL@@SAXPAX@Z		; ATL::CCRTAllocator::Free
; Function compile flags: /Odt
;	COMDAT ??1?$CAtlSafeAllocBufferManager@VCCRTAllocator@ATL@@@_ATL_SAFE_ALLOCA_IMPL@ATL@@QAE@XZ
_TEXT	SEGMENT
_this$ = -8						; size = 4
_p$191839 = -4						; size = 4
??1?$CAtlSafeAllocBufferManager@VCCRTAllocator@ATL@@@_ATL_SAFE_ALLOCA_IMPL@ATL@@QAE@XZ PROC NEAR ; ATL::_ATL_SAFE_ALLOCA_IMPL::CAtlSafeAllocBufferManager<ATL::CCRTAllocator>::~CAtlSafeAllocBufferManager<ATL::CCRTAllocator>, COMDAT
; _this$ = ecx

; 387  : 	{

  00000	55		 push	 ebp
  00001	8b ec		 mov	 ebp, esp
  00003	83 ec 08	 sub	 esp, 8
  00006	89 4d f8	 mov	 DWORD PTR _this$[ebp], ecx
$L191837:

; 388  : 		// Walk the list and free the buffers
; 389  : 		while (m_pHead != NULL)

  00009	8b 45 f8	 mov	 eax, DWORD PTR _this$[ebp]
  0000c	83 38 00	 cmp	 DWORD PTR [eax], 0
  0000f	74 22		 je	 SHORT $L191835

; 390  : 		{
; 391  : 			CAtlSafeAllocBufferNode* p = m_pHead;

  00011	8b 4d f8	 mov	 ecx, DWORD PTR _this$[ebp]
  00014	8b 11		 mov	 edx, DWORD PTR [ecx]
  00016	89 55 fc	 mov	 DWORD PTR _p$191839[ebp], edx

; 392  : 			m_pHead = m_pHead->m_pNext;

  00019	8b 45 f8	 mov	 eax, DWORD PTR _this$[ebp]
  0001c	8b 08		 mov	 ecx, DWORD PTR [eax]
  0001e	8b 55 f8	 mov	 edx, DWORD PTR _this$[ebp]
  00021	8b 01		 mov	 eax, DWORD PTR [ecx]
  00023	89 02		 mov	 DWORD PTR [edx], eax

; 393  : 			Allocator::Free(p);

  00025	8b 4d fc	 mov	 ecx, DWORD PTR _p$191839[ebp]
  00028	51		 push	 ecx
  00029	e8 00 00 00 00	 call	 ?Free@CCRTAllocator@ATL@@SAXPAX@Z ; ATL::CCRTAllocator::Free
  0002e	83 c4 04	 add	 esp, 4

; 394  : 		}

  00031	eb d6		 jmp	 SHORT $L191837
$L191835:

; 395  : 	}

  00033	8b e5		 mov	 esp, ebp
  00035	5d		 pop	 ebp
  00036	c3		 ret	 0
??1?$CAtlSafeAllocBufferManager@VCCRTAllocator@ATL@@@_ATL_SAFE_ALLOCA_IMPL@ATL@@QAE@XZ ENDP ; ATL::_ATL_SAFE_ALLOCA_IMPL::CAtlSafeAllocBufferManager<ATL::CCRTAllocator>::~CAtlSafeAllocBufferManager<ATL::CCRTAllocator>
; Function compile flags: /Odt
_TEXT	ENDS
;	COMDAT ?Free@CCRTAllocator@ATL@@SAXPAX@Z
_TEXT	SEGMENT
_p$ = 8							; size = 4
?Free@CCRTAllocator@ATL@@SAXPAX@Z PROC NEAR		; ATL::CCRTAllocator::Free, COMDAT

; 35   : 	{

  00000	55		 push	 ebp
  00001	8b ec		 mov	 ebp, esp

; 36   : 		free(p);

  00003	8b 45 08	 mov	 eax, DWORD PTR _p$[ebp]
  00006	50		 push	 eax
  00007	ff 15 00 00 00
	00		 call	 DWORD PTR __imp__free
  0000d	83 c4 04	 add	 esp, 4

; 37   : 	}

  00010	5d		 pop	 ebp
  00011	c3		 ret	 0
?Free@CCRTAllocator@ATL@@SAXPAX@Z ENDP			; ATL::CCRTAllocator::Free
; Function compile flags: /Odt
_TEXT	ENDS
;	COMDAT ??0?$CTempBuffer@D$0IA@VCCRTAllocator@ATL@@@ATL@@QAE@XZ
_TEXT	SEGMENT
_this$ = -4						; size = 4
??0?$CTempBuffer@D$0IA@VCCRTAllocator@ATL@@@ATL@@QAE@XZ PROC NEAR ; ATL::CTempBuffer<char,128,ATL::CCRTAllocator>::CTempBuffer<char,128,ATL::CCRTAllocator>, COMDAT
; _this$ = ecx

; 216  : 	{

  00000	55		 push	 ebp
  00001	8b ec		 mov	 ebp, esp
  00003	51		 push	 ecx
  00004	89 4d fc	 mov	 DWORD PTR _this$[ebp], ecx
  00007	8b 45 fc	 mov	 eax, DWORD PTR _this$[ebp]
  0000a	c7 00 00 00 00
	00		 mov	 DWORD PTR [eax], 0

; 217  : 	}

  00010	8b 45 fc	 mov	 eax, DWORD PTR _this$[ebp]
  00013	8b e5		 mov	 esp, ebp
  00015	5d		 pop	 ebp
  00016	c3		 ret	 0
??0?$CTempBuffer@D$0IA@VCCRTAllocator@ATL@@@ATL@@QAE@XZ ENDP ; ATL::CTempBuffer<char,128,ATL::CCRTAllocator>::CTempBuffer<char,128,ATL::CCRTAllocator>
_TEXT	ENDS
PUBLIC	?FreeHeap@?$CTempBuffer@D$0IA@VCCRTAllocator@ATL@@@ATL@@AAEXXZ ; ATL::CTempBuffer<char,128,ATL::CCRTAllocator>::FreeHeap
; Function compile flags: /Odt
;	COMDAT ??1?$CTempBuffer@D$0IA@VCCRTAllocator@ATL@@@ATL@@QAE@XZ
_TEXT	SEGMENT
_this$ = -4						; size = 4
??1?$CTempBuffer@D$0IA@VCCRTAllocator@ATL@@@ATL@@QAE@XZ PROC NEAR ; ATL::CTempBuffer<char,128,ATL::CCRTAllocator>::~CTempBuffer<char,128,ATL::CCRTAllocator>, COMDAT
; _this$ = ecx

; 225  : 	{

  00000	55		 push	 ebp
  00001	8b ec		 mov	 ebp, esp
  00003	51		 push	 ecx
  00004	89 4d fc	 mov	 DWORD PTR _this$[ebp], ecx

; 226  : 		if( m_p != reinterpret_cast< T* >( m_abFixedBuffer ) )

  00007	8b 45 fc	 mov	 eax, DWORD PTR _this$[ebp]
  0000a	83 c0 04	 add	 eax, 4
  0000d	8b 4d fc	 mov	 ecx, DWORD PTR _this$[ebp]
  00010	39 01		 cmp	 DWORD PTR [ecx], eax
  00012	74 08		 je	 SHORT $L191843

; 227  : 		{
; 228  : 			FreeHeap();

  00014	8b 4d fc	 mov	 ecx, DWORD PTR _this$[ebp]
  00017	e8 00 00 00 00	 call	 ?FreeHeap@?$CTempBuffer@D$0IA@VCCRTAllocator@ATL@@@ATL@@AAEXXZ ; ATL::CTempBuffer<char,128,ATL::CCRTAllocator>::FreeHeap
$L191843:

; 229  : 		}
; 230  : 	}

  0001c	8b e5		 mov	 esp, ebp
  0001e	5d		 pop	 ebp
  0001f	c3		 ret	 0
??1?$CTempBuffer@D$0IA@VCCRTAllocator@ATL@@@ATL@@QAE@XZ ENDP ; ATL::CTempBuffer<char,128,ATL::CCRTAllocator>::~CTempBuffer<char,128,ATL::CCRTAllocator>
; Function compile flags: /Odt
_TEXT	ENDS
;	COMDAT ??B?$CTempBuffer@D$0IA@VCCRTAllocator@ATL@@@ATL@@QBEPADXZ
_TEXT	SEGMENT
_this$ = -4						; size = 4
??B?$CTempBuffer@D$0IA@VCCRTAllocator@ATL@@@ATL@@QBEPADXZ PROC NEAR ; ATL::CTempBuffer<char,128,ATL::CCRTAllocator>::operator char *, COMDAT
; _this$ = ecx

; 233  : 	{

  00000	55		 push	 ebp
  00001	8b ec		 mov	 ebp, esp
  00003	51		 push	 ecx
  00004	89 4d fc	 mov	 DWORD PTR _this$[ebp], ecx

; 234  : 		return( m_p );

  00007	8b 45 fc	 mov	 eax, DWORD PTR _this$[ebp]
  0000a	8b 00		 mov	 eax, DWORD PTR [eax]

; 235  : 	}

  0000c	8b e5		 mov	 esp, ebp
  0000e	5d		 pop	 ebp
  0000f	c3		 ret	 0
??B?$CTempBuffer@D$0IA@VCCRTAllocator@ATL@@@ATL@@QBEPADXZ ENDP ; ATL::CTempBuffer<char,128,ATL::CCRTAllocator>::operator char *
_TEXT	ENDS
PUBLIC	?AllocateBytes@?$CTempBuffer@D$0IA@VCCRTAllocator@ATL@@@ATL@@QAEPADI@Z ; ATL::CTempBuffer<char,128,ATL::CCRTAllocator>::AllocateBytes
; Function compile flags: /Odt
;	COMDAT ?Allocate@?$CTempBuffer@D$0IA@VCCRTAllocator@ATL@@@ATL@@QAEPADI@Z
_TEXT	SEGMENT
_this$ = -4						; size = 4
_nElements$ = 8						; size = 4
?Allocate@?$CTempBuffer@D$0IA@VCCRTAllocator@ATL@@@ATL@@QAEPADI@Z PROC NEAR ; ATL::CTempBuffer<char,128,ATL::CCRTAllocator>::Allocate, COMDAT
; _this$ = ecx

; 243  : 	{

  00000	55		 push	 ebp
  00001	8b ec		 mov	 ebp, esp
  00003	51		 push	 ecx
  00004	89 4d fc	 mov	 DWORD PTR _this$[ebp], ecx

; 244  : 		return( AllocateBytes( nElements*sizeof( T ) ) );

  00007	8b 45 08	 mov	 eax, DWORD PTR _nElements$[ebp]
  0000a	50		 push	 eax
  0000b	8b 4d fc	 mov	 ecx, DWORD PTR _this$[ebp]
  0000e	e8 00 00 00 00	 call	 ?AllocateBytes@?$CTempBuffer@D$0IA@VCCRTAllocator@ATL@@@ATL@@QAEPADI@Z ; ATL::CTempBuffer<char,128,ATL::CCRTAllocator>::AllocateBytes

; 245  : 	}

  00013	8b e5		 mov	 esp, ebp
  00015	5d		 pop	 ebp
  00016	c2 04 00	 ret	 4
?Allocate@?$CTempBuffer@D$0IA@VCCRTAllocator@ATL@@@ATL@@QAEPADI@Z ENDP ; ATL::CTempBuffer<char,128,ATL::CCRTAllocator>::Allocate
_TEXT	ENDS
PUBLIC	?Init@?$CW2AEX@$0IA@@ATL@@AAEXPB_WI@Z		; ATL::CW2AEX<128>::Init
; Function compile flags: /Odt
; File d:\program files (x86)\microsoft visual studio .net 2003\vc7\atlmfc\include\atlconv.h
;	COMDAT ??0?$CW2AEX@$0IA@@ATL@@QAE@PB_W@Z
_TEXT	SEGMENT
_this$ = -4						; size = 4
_psz$ = 8						; size = 4
??0?$CW2AEX@$0IA@@ATL@@QAE@PB_W@Z PROC NEAR		; ATL::CW2AEX<128>::CW2AEX<128>, COMDAT
; _this$ = ecx

; 419  : 	{

  00000	55		 push	 ebp
  00001	8b ec		 mov	 ebp, esp
  00003	51		 push	 ecx
  00004	89 4d fc	 mov	 DWORD PTR _this$[ebp], ecx
  00007	8b 45 fc	 mov	 eax, DWORD PTR _this$[ebp]
  0000a	83 c0 04	 add	 eax, 4
  0000d	8b 4d fc	 mov	 ecx, DWORD PTR _this$[ebp]
  00010	89 01		 mov	 DWORD PTR [ecx], eax

; 420  : 		Init( psz, _AtlGetConversionACP() );

  00012	e8 00 00 00 00	 call	 ?_AtlGetConversionACP@ATL@@YGIXZ ; ATL::_AtlGetConversionACP
  00017	50		 push	 eax
  00018	8b 55 08	 mov	 edx, DWORD PTR _psz$[ebp]
  0001b	52		 push	 edx
  0001c	8b 4d fc	 mov	 ecx, DWORD PTR _this$[ebp]
  0001f	e8 00 00 00 00	 call	 ?Init@?$CW2AEX@$0IA@@ATL@@AAEXPB_WI@Z ; ATL::CW2AEX<128>::Init

; 421  : 	}

  00024	8b 45 fc	 mov	 eax, DWORD PTR _this$[ebp]
  00027	8b e5		 mov	 esp, ebp
  00029	5d		 pop	 ebp
  0002a	c2 04 00	 ret	 4
??0?$CW2AEX@$0IA@@ATL@@QAE@PB_W@Z ENDP			; ATL::CW2AEX<128>::CW2AEX<128>
; Function compile flags: /Odt
_TEXT	ENDS
;	COMDAT ??1?$CW2AEX@$0IA@@ATL@@QAE@XZ
_TEXT	SEGMENT
_this$ = -4						; size = 4
??1?$CW2AEX@$0IA@@ATL@@QAE@XZ PROC NEAR			; ATL::CW2AEX<128>::~CW2AEX<128>, COMDAT
; _this$ = ecx

; 428  : 	{

  00000	55		 push	 ebp
  00001	8b ec		 mov	 ebp, esp
  00003	51		 push	 ecx
  00004	89 4d fc	 mov	 DWORD PTR _this$[ebp], ecx

; 429  : 		if( m_psz != m_szBuffer )

  00007	8b 45 fc	 mov	 eax, DWORD PTR _this$[ebp]
  0000a	83 c0 04	 add	 eax, 4
  0000d	8b 4d fc	 mov	 ecx, DWORD PTR _this$[ebp]
  00010	39 01		 cmp	 DWORD PTR [ecx], eax
  00012	74 0f		 je	 SHORT $L191854

; 430  : 		{
; 431  : 			free( m_psz );

  00014	8b 55 fc	 mov	 edx, DWORD PTR _this$[ebp]
  00017	8b 02		 mov	 eax, DWORD PTR [edx]
  00019	50		 push	 eax
  0001a	ff 15 00 00 00
	00		 call	 DWORD PTR __imp__free
  00020	83 c4 04	 add	 esp, 4
$L191854:

; 432  : 		}
; 433  : 	}

  00023	8b e5		 mov	 esp, ebp
  00025	5d		 pop	 ebp
  00026	c3		 ret	 0
??1?$CW2AEX@$0IA@@ATL@@QAE@XZ ENDP			; ATL::CW2AEX<128>::~CW2AEX<128>
; Function compile flags: /Odt
_TEXT	ENDS
;	COMDAT ??B?$CW2AEX@$0IA@@ATL@@QBEPADXZ
_TEXT	SEGMENT
_this$ = -4						; size = 4
??B?$CW2AEX@$0IA@@ATL@@QBEPADXZ PROC NEAR		; ATL::CW2AEX<128>::operator char *, COMDAT
; _this$ = ecx

; 436  : 	{

  00000	55		 push	 ebp
  00001	8b ec		 mov	 ebp, esp
  00003	51		 push	 ecx
  00004	89 4d fc	 mov	 DWORD PTR _this$[ebp], ecx

; 437  : 		return( m_psz );

  00007	8b 45 fc	 mov	 eax, DWORD PTR _this$[ebp]
  0000a	8b 00		 mov	 eax, DWORD PTR [eax]

; 438  : 	}

  0000c	8b e5		 mov	 esp, ebp
  0000e	5d		 pop	 ebp
  0000f	c3		 ret	 0
??B?$CW2AEX@$0IA@@ATL@@QBEPADXZ ENDP			; ATL::CW2AEX<128>::operator char *
_TEXT	ENDS
PUBLIC	?AllocateHeap@?$CTempBuffer@D$0IA@VCCRTAllocator@ATL@@@ATL@@AAEXI@Z ; ATL::CTempBuffer<char,128,ATL::CCRTAllocator>::AllocateHeap
; Function compile flags: /Odt
; File d:\program files (x86)\microsoft visual studio .net 2003\vc7\atlmfc\include\atlalloc.h
;	COMDAT ?AllocateBytes@?$CTempBuffer@D$0IA@VCCRTAllocator@ATL@@@ATL@@QAEPADI@Z
_TEXT	SEGMENT
_this$ = -4						; size = 4
_nBytes$ = 8						; size = 4
?AllocateBytes@?$CTempBuffer@D$0IA@VCCRTAllocator@ATL@@@ATL@@QAEPADI@Z PROC NEAR ; ATL::CTempBuffer<char,128,ATL::CCRTAllocator>::AllocateBytes, COMDAT
; _this$ = ecx

; 276  : 	{

  00000	55		 push	 ebp
  00001	8b ec		 mov	 ebp, esp
  00003	51		 push	 ecx
  00004	89 4d fc	 mov	 DWORD PTR _this$[ebp], ecx

; 277  : 		ATLASSERT( m_p == NULL );
; 278  : 		if( nBytes > t_nFixedBytes )

  00007	81 7d 08 80 00
	00 00		 cmp	 DWORD PTR _nBytes$[ebp], 128 ; 00000080H
  0000e	76 0e		 jbe	 SHORT $L193612

; 279  : 		{
; 280  : 			AllocateHeap( nBytes );

  00010	8b 45 08	 mov	 eax, DWORD PTR _nBytes$[ebp]
  00013	50		 push	 eax
  00014	8b 4d fc	 mov	 ecx, DWORD PTR _this$[ebp]
  00017	e8 00 00 00 00	 call	 ?AllocateHeap@?$CTempBuffer@D$0IA@VCCRTAllocator@ATL@@@ATL@@AAEXI@Z ; ATL::CTempBuffer<char,128,ATL::CCRTAllocator>::AllocateHeap

; 281  : 		}
; 282  : 		else

  0001c	eb 0b		 jmp	 SHORT $L193613
$L193612:

; 283  : 		{
; 284  : 			m_p = reinterpret_cast< T* >( m_abFixedBuffer );

  0001e	8b 4d fc	 mov	 ecx, DWORD PTR _this$[ebp]
  00021	83 c1 04	 add	 ecx, 4
  00024	8b 55 fc	 mov	 edx, DWORD PTR _this$[ebp]
  00027	89 0a		 mov	 DWORD PTR [edx], ecx
$L193613:

; 285  : 		}
; 286  : 
; 287  : 		return( m_p );

  00029	8b 45 fc	 mov	 eax, DWORD PTR _this$[ebp]
  0002c	8b 00		 mov	 eax, DWORD PTR [eax]

; 288  : 	}

  0002e	8b e5		 mov	 esp, ebp
  00030	5d		 pop	 ebp
  00031	c2 04 00	 ret	 4
?AllocateBytes@?$CTempBuffer@D$0IA@VCCRTAllocator@ATL@@@ATL@@QAEPADI@Z ENDP ; ATL::CTempBuffer<char,128,ATL::CCRTAllocator>::AllocateBytes
; Function compile flags: /Odt
_TEXT	ENDS
;	COMDAT ?FreeHeap@?$CTempBuffer@D$0IA@VCCRTAllocator@ATL@@@ATL@@AAEXXZ
_TEXT	SEGMENT
_this$ = -4						; size = 4
?FreeHeap@?$CTempBuffer@D$0IA@VCCRTAllocator@ATL@@@ATL@@AAEXXZ PROC NEAR ; ATL::CTempBuffer<char,128,ATL::CCRTAllocator>::FreeHeap, COMDAT
; _this$ = ecx

; 312  : 	{

  00000	55		 push	 ebp
  00001	8b ec		 mov	 ebp, esp
  00003	51		 push	 ecx
  00004	89 4d fc	 mov	 DWORD PTR _this$[ebp], ecx

; 313  : 		Allocator::Free( m_p );

  00007	8b 45 fc	 mov	 eax, DWORD PTR _this$[ebp]
  0000a	8b 08		 mov	 ecx, DWORD PTR [eax]
  0000c	51		 push	 ecx
  0000d	e8 00 00 00 00	 call	 ?Free@CCRTAllocator@ATL@@SAXPAX@Z ; ATL::CCRTAllocator::Free
  00012	83 c4 04	 add	 esp, 4

; 314  : 	}

  00015	8b e5		 mov	 esp, ebp
  00017	5d		 pop	 ebp
  00018	c3		 ret	 0
?FreeHeap@?$CTempBuffer@D$0IA@VCCRTAllocator@ATL@@@ATL@@AAEXXZ ENDP ; ATL::CTempBuffer<char,128,ATL::CCRTAllocator>::FreeHeap
; Function compile flags: /Odt
; File d:\program files (x86)\microsoft visual studio .net 2003\vc7\atlmfc\include\atlconv.h
_TEXT	ENDS
;	COMDAT ?Init@?$CW2AEX@$0IA@@ATL@@AAEXPB_WI@Z
_TEXT	SEGMENT
_this$ = -12						; size = 4
_nLengthW$ = -8						; size = 4
_nLengthA$ = -4						; size = 4
_psz$ = 8						; size = 4
_nCodePage$ = 12					; size = 4
?Init@?$CW2AEX@$0IA@@ATL@@AAEXPB_WI@Z PROC NEAR		; ATL::CW2AEX<128>::Init, COMDAT
; _this$ = ecx

; 442  : 	{

  00000	55		 push	 ebp
  00001	8b ec		 mov	 ebp, esp
  00003	83 ec 0c	 sub	 esp, 12			; 0000000cH
  00006	89 4d f4	 mov	 DWORD PTR _this$[ebp], ecx

; 443  : 		if (psz == NULL)

  00009	83 7d 08 00	 cmp	 DWORD PTR _psz$[ebp], 0
  0000d	75 0b		 jne	 SHORT $L193619

; 444  : 		{
; 445  : 			m_psz = NULL;

  0000f	8b 45 f4	 mov	 eax, DWORD PTR _this$[ebp]
  00012	c7 00 00 00 00
	00		 mov	 DWORD PTR [eax], 0

; 446  : 			return;

  00018	eb 70		 jmp	 SHORT $L208513
$L193619:

; 447  : 		}
; 448  : 		int nLengthW = lstrlenW( psz )+1;

  0001a	8b 4d 08	 mov	 ecx, DWORD PTR _psz$[ebp]
  0001d	51		 push	 ecx
  0001e	ff 15 00 00 00
	00		 call	 DWORD PTR __imp__lstrlenW@4
  00024	83 c0 01	 add	 eax, 1
  00027	89 45 f8	 mov	 DWORD PTR _nLengthW$[ebp], eax

; 449  : 		int nLengthA = nLengthW*2;

  0002a	8b 55 f8	 mov	 edx, DWORD PTR _nLengthW$[ebp]
  0002d	d1 e2		 shl	 edx, 1
  0002f	89 55 fc	 mov	 DWORD PTR _nLengthA$[ebp], edx

; 450  : 
; 451  : 		if( nLengthA > t_nBufferLength )

  00032	81 7d fc 80 00
	00 00		 cmp	 DWORD PTR _nLengthA$[ebp], 128 ; 00000080H
  00039	7e 24		 jle	 SHORT $L193622

; 452  : 		{
; 453  : 			m_psz = static_cast< LPSTR >( malloc( nLengthA*sizeof( char ) ) );

  0003b	8b 45 fc	 mov	 eax, DWORD PTR _nLengthA$[ebp]
  0003e	50		 push	 eax
  0003f	ff 15 00 00 00
	00		 call	 DWORD PTR __imp__malloc
  00045	83 c4 04	 add	 esp, 4
  00048	8b 4d f4	 mov	 ecx, DWORD PTR _this$[ebp]
  0004b	89 01		 mov	 DWORD PTR [ecx], eax

; 454  : 			if (m_psz == NULL)

  0004d	8b 55 f4	 mov	 edx, DWORD PTR _this$[ebp]
  00050	83 3a 00	 cmp	 DWORD PTR [edx], 0
  00053	75 0a		 jne	 SHORT $L193622

; 455  : 			{
; 456  : 				AtlThrow( E_OUTOFMEMORY );

  00055	68 0e 00 07 80	 push	 -2147024882		; 8007000eH
  0005a	e8 00 00 00 00	 call	 ?AtlThrow@ATL@@YGXJ@Z	; ATL::AtlThrow
$L193622:

; 457  : 			}
; 458  : 		}
; 459  : 
; 460  : 		if (::WideCharToMultiByte( nCodePage, 0, psz, nLengthW, m_psz, nLengthA, NULL, NULL ) == 0)

  0005f	6a 00		 push	 0
  00061	6a 00		 push	 0
  00063	8b 45 fc	 mov	 eax, DWORD PTR _nLengthA$[ebp]
  00066	50		 push	 eax
  00067	8b 4d f4	 mov	 ecx, DWORD PTR _this$[ebp]
  0006a	8b 11		 mov	 edx, DWORD PTR [ecx]
  0006c	52		 push	 edx
  0006d	8b 45 f8	 mov	 eax, DWORD PTR _nLengthW$[ebp]
  00070	50		 push	 eax
  00071	8b 4d 08	 mov	 ecx, DWORD PTR _psz$[ebp]
  00074	51		 push	 ecx
  00075	6a 00		 push	 0
  00077	8b 55 0c	 mov	 edx, DWORD PTR _nCodePage$[ebp]
  0007a	52		 push	 edx
  0007b	ff 15 00 00 00
	00		 call	 DWORD PTR __imp__WideCharToMultiByte@32
  00081	85 c0		 test	 eax, eax
  00083	75 05		 jne	 SHORT $L208513

; 461  : 		{
; 462  : 			AtlThrowLastWin32();

  00085	e8 00 00 00 00	 call	 ?AtlThrowLastWin32@ATL@@YGXXZ ; ATL::AtlThrowLastWin32
$L208513:

; 463  : 		}
; 464  : 	}

  0008a	8b e5		 mov	 esp, ebp
  0008c	5d		 pop	 ebp
  0008d	c2 08 00	 ret	 8
?Init@?$CW2AEX@$0IA@@ATL@@AAEXPB_WI@Z ENDP		; ATL::CW2AEX<128>::Init
; Function compile flags: /Odt
; File d:\program files (x86)\microsoft visual studio .net 2003\vc7\atlmfc\include\atlalloc.h
_TEXT	ENDS
;	COMDAT ?GetData@CAtlSafeAllocBufferNode@?$CAtlSafeAllocBufferManager@VCCRTAllocator@ATL@@@_ATL_SAFE_ALLOCA_IMPL@ATL@@QAEPAXXZ
_TEXT	SEGMENT
_this$ = -4						; size = 4
?GetData@CAtlSafeAllocBufferNode@?$CAtlSafeAllocBufferManager@VCCRTAllocator@ATL@@@_ATL_SAFE_ALLOCA_IMPL@ATL@@QAEPAXXZ PROC NEAR ; ATL::_ATL_SAFE_ALLOCA_IMPL::CAtlSafeAllocBufferManager<ATL::CCRTAllocator>::CAtlSafeAllocBufferNode::GetData, COMDAT
; _this$ = ecx

; 365  : 		{

  00000	55		 push	 ebp
  00001	8b ec		 mov	 ebp, esp
  00003	51		 push	 ecx
  00004	89 4d fc	 mov	 DWORD PTR _this$[ebp], ecx

; 366  : 			return (this + 1);

  00007	8b 45 fc	 mov	 eax, DWORD PTR _this$[ebp]
  0000a	83 c0 08	 add	 eax, 8

; 367  : 		}

  0000d	8b e5		 mov	 esp, ebp
  0000f	5d		 pop	 ebp
  00010	c3		 ret	 0
?GetData@CAtlSafeAllocBufferNode@?$CAtlSafeAllocBufferManager@VCCRTAllocator@ATL@@@_ATL_SAFE_ALLOCA_IMPL@ATL@@QAEPAXXZ ENDP ; ATL::_ATL_SAFE_ALLOCA_IMPL::CAtlSafeAllocBufferManager<ATL::CCRTAllocator>::CAtlSafeAllocBufferNode::GetData
; Function compile flags: /Odt
_TEXT	ENDS
;	COMDAT ?AllocateHeap@?$CTempBuffer@D$0IA@VCCRTAllocator@ATL@@@ATL@@AAEXI@Z
_TEXT	SEGMENT
_this$ = -8						; size = 4
_p$ = -4						; size = 4
_nBytes$ = 8						; size = 4
?AllocateHeap@?$CTempBuffer@D$0IA@VCCRTAllocator@ATL@@@ATL@@AAEXI@Z PROC NEAR ; ATL::CTempBuffer<char,128,ATL::CCRTAllocator>::AllocateHeap, COMDAT
; _this$ = ecx

; 292  : 	{

  00000	55		 push	 ebp
  00001	8b ec		 mov	 ebp, esp
  00003	83 ec 08	 sub	 esp, 8
  00006	89 4d f8	 mov	 DWORD PTR _this$[ebp], ecx

; 293  : 		T* p = static_cast< T* >( Allocator::Allocate( nBytes ) );

  00009	8b 45 08	 mov	 eax, DWORD PTR _nBytes$[ebp]
  0000c	50		 push	 eax
  0000d	e8 00 00 00 00	 call	 ?Allocate@CCRTAllocator@ATL@@SAPAXI@Z ; ATL::CCRTAllocator::Allocate
  00012	83 c4 04	 add	 esp, 4
  00015	89 45 fc	 mov	 DWORD PTR _p$[ebp], eax

; 294  : 		if( p == NULL )

  00018	83 7d fc 00	 cmp	 DWORD PTR _p$[ebp], 0
  0001c	75 0a		 jne	 SHORT $L194985

; 295  : 		{
; 296  : 			AtlThrow( E_OUTOFMEMORY );

  0001e	68 0e 00 07 80	 push	 -2147024882		; 8007000eH
  00023	e8 00 00 00 00	 call	 ?AtlThrow@ATL@@YGXJ@Z	; ATL::AtlThrow
$L194985:

; 297  : 		}
; 298  : 		m_p = p;

  00028	8b 4d f8	 mov	 ecx, DWORD PTR _this$[ebp]
  0002b	8b 55 fc	 mov	 edx, DWORD PTR _p$[ebp]
  0002e	89 11		 mov	 DWORD PTR [ecx], edx
$L208517:

; 299  : 	}

  00030	8b e5		 mov	 esp, ebp
  00032	5d		 pop	 ebp
  00033	c2 04 00	 ret	 4
?AllocateHeap@?$CTempBuffer@D$0IA@VCCRTAllocator@ATL@@@ATL@@AAEXI@Z ENDP ; ATL::CTempBuffer<char,128,ATL::CCRTAllocator>::AllocateHeap
_TEXT	ENDS
EXTRN	__imp_??0exception@@QAE@ABV0@@Z:NEAR
;	COMDAT xdata$x
xdata$x	SEGMENT
$T208525 DD	0ffffffffH
	DD	FLAT:$L208520
$T208523 DD	019930520H
	DD	01H
	DD	FLAT:$T208525
	DD	2 DUP(00H)
	DD	2 DUP(00H)
; Function compile flags: /Odt
xdata$x	ENDS
;	COMDAT ??0logic_error@std@@QAE@ABV01@@Z
_TEXT	SEGMENT
_this$ = -16						; size = 4
__$EHRec$ = -12						; size = 12
___that$ = 8						; size = 4
??0logic_error@std@@QAE@ABV01@@Z PROC NEAR		; std::logic_error::logic_error, COMDAT
; _this$ = ecx
  00000	55		 push	 ebp
  00001	8b ec		 mov	 ebp, esp
  00003	6a ff		 push	 -1
  00005	68 00 00 00 00	 push	 __ehhandler$??0logic_error@std@@QAE@ABV01@@Z
  0000a	64 a1 00 00 00
	00		 mov	 eax, DWORD PTR fs:__except_list
  00010	50		 push	 eax
  00011	64 89 25 00 00
	00 00		 mov	 DWORD PTR fs:__except_list, esp
  00018	51		 push	 ecx
  00019	89 4d f0	 mov	 DWORD PTR _this$[ebp], ecx
  0001c	8b 45 08	 mov	 eax, DWORD PTR ___that$[ebp]
  0001f	50		 push	 eax
  00020	8b 4d f0	 mov	 ecx, DWORD PTR _this$[ebp]
  00023	ff 15 00 00 00
	00		 call	 DWORD PTR __imp_??0exception@@QAE@ABV0@@Z
  00029	c7 45 fc 00 00
	00 00		 mov	 DWORD PTR __$EHRec$[ebp+8], 0
  00030	8b 4d f0	 mov	 ecx, DWORD PTR _this$[ebp]
  00033	c7 01 00 00 00
	00		 mov	 DWORD PTR [ecx], OFFSET FLAT:??_7logic_error@std@@6B@
  00039	8b 55 08	 mov	 edx, DWORD PTR ___that$[ebp]
  0003c	83 c2 0c	 add	 edx, 12			; 0000000cH
  0003f	52		 push	 edx
  00040	8b 4d f0	 mov	 ecx, DWORD PTR _this$[ebp]
  00043	83 c1 0c	 add	 ecx, 12			; 0000000cH
  00046	ff 15 00 00 00
	00		 call	 DWORD PTR __imp_??0?$basic_string@DU?$char_traits@D@std@@V?$allocator@D@2@@std@@QAE@ABV01@@Z
  0004c	c7 45 fc ff ff
	ff ff		 mov	 DWORD PTR __$EHRec$[ebp+8], -1
  00053	8b 45 f0	 mov	 eax, DWORD PTR _this$[ebp]
  00056	8b 4d f4	 mov	 ecx, DWORD PTR __$EHRec$[ebp]
  00059	64 89 0d 00 00
	00 00		 mov	 DWORD PTR fs:__except_list, ecx
  00060	8b e5		 mov	 esp, ebp
  00062	5d		 pop	 ebp
  00063	c2 04 00	 ret	 4
_TEXT	ENDS
;	COMDAT text$x
text$x	SEGMENT
$L208520:
  00000	8b 4d f0	 mov	 ecx, DWORD PTR _this$[ebp]
  00003	ff 25 00 00 00
	00		 jmp	 DWORD PTR __imp_??1exception@@UAE@XZ
__ehhandler$??0logic_error@std@@QAE@ABV01@@Z:
  00009	b8 00 00 00 00	 mov	 eax, OFFSET FLAT:$T208523
  0000e	e9 00 00 00 00	 jmp	 ___CxxFrameHandler
text$x	ENDS
??0logic_error@std@@QAE@ABV01@@Z ENDP			; std::logic_error::logic_error
CRT$XCU	SEGMENT
_$S6	DD	FLAT:_$E5
; Function compile flags: /Odt
; File d:\boxgit\playbox\playbox\dev\prj\playbox\src\appconfig\config\configappdef.h
CRT$XCU	ENDS
;	COMDAT _$E5
text$yc	SEGMENT
_$E5	PROC NEAR					; COMDAT

; 19   : 	CONF_APP_SWF_PATH,			TYPE_CONFIG_STR,

  00000	55		 push	 ebp
  00001	8b ec		 mov	 ebp, esp
  00003	a1 00 00 00 00	 mov	 eax, DWORD PTR _CONF_APP_SWF_PATH
  00008	a3 00 00 00 00	 mov	 DWORD PTR _CONF_APP, eax
  0000d	8b 0d 00 00 00
	00		 mov	 ecx, DWORD PTR _TYPE_CONFIG_STR
  00013	89 0d 04 00 00
	00		 mov	 DWORD PTR _CONF_APP+4, ecx

; 20   : 	CONF_APP_MAINWND_HOLD,		TYPE_CONFIG_BOOL,

  00019	8b 15 00 00 00
	00		 mov	 edx, DWORD PTR _CONF_APP_MAINWND_HOLD
  0001f	89 15 08 00 00
	00		 mov	 DWORD PTR _CONF_APP+8, edx
  00025	a1 00 00 00 00	 mov	 eax, DWORD PTR _TYPE_CONFIG_BOOL
  0002a	a3 0c 00 00 00	 mov	 DWORD PTR _CONF_APP+12, eax

; 21   : 	CONF_APP_RUN_COUNT,			TYPE_CONFIG_INT,

  0002f	8b 0d 00 00 00
	00		 mov	 ecx, DWORD PTR _CONF_APP_RUN_COUNT
  00035	89 0d 10 00 00
	00		 mov	 DWORD PTR _CONF_APP+16, ecx
  0003b	8b 15 00 00 00
	00		 mov	 edx, DWORD PTR _TYPE_CONFIG_INT
  00041	89 15 14 00 00
	00		 mov	 DWORD PTR _CONF_APP+20, edx

; 22   : 	CONF_APP_PLAYED_GAME,		TYPE_CONFIG_INT,

  00047	a1 00 00 00 00	 mov	 eax, DWORD PTR _CONF_APP_PLAYED_GAME
  0004c	a3 18 00 00 00	 mov	 DWORD PTR _CONF_APP+24, eax
  00051	8b 0d 00 00 00
	00		 mov	 ecx, DWORD PTR _TYPE_CONFIG_INT
  00057	89 0d 1c 00 00
	00		 mov	 DWORD PTR _CONF_APP+28, ecx

; 23   : 	CONF_APP_PLAYED_PC_GAME,	TYPE_CONFIG_INT,

  0005d	8b 15 00 00 00
	00		 mov	 edx, DWORD PTR _CONF_APP_PLAYED_PC_GAME
  00063	89 15 20 00 00
	00		 mov	 DWORD PTR _CONF_APP+32, edx
  00069	a1 00 00 00 00	 mov	 eax, DWORD PTR _TYPE_CONFIG_INT
  0006e	a3 24 00 00 00	 mov	 DWORD PTR _CONF_APP+36, eax

; 24   : 	CONF_APP_PLAYED_ICON_SIZE,	TYPE_CONFIG_INT, //panelicon0,1,2

  00073	8b 0d 00 00 00
	00		 mov	 ecx, DWORD PTR _CONF_APP_PLAYED_ICON_SIZE
  00079	89 0d 28 00 00
	00		 mov	 DWORD PTR _CONF_APP+40, ecx
  0007f	8b 15 00 00 00
	00		 mov	 edx, DWORD PTR _TYPE_CONFIG_INT
  00085	89 15 2c 00 00
	00		 mov	 DWORD PTR _CONF_APP+44, edx

; 25   : 	CONF_APP_PIC_SAVE_PATH,		TYPE_CONFIG_STR

  0008b	a1 00 00 00 00	 mov	 eax, DWORD PTR _CONF_APP_PIC_SAVE_PATH
  00090	a3 30 00 00 00	 mov	 DWORD PTR _CONF_APP+48, eax

; 26   : };

  00095	8b 0d 00 00 00
	00		 mov	 ecx, DWORD PTR _TYPE_CONFIG_STR
  0009b	89 0d 34 00 00
	00		 mov	 DWORD PTR _CONF_APP+52, ecx
  000a1	5d		 pop	 ebp
  000a2	c3		 ret	 0
_$E5	ENDP
text$yc	ENDS
_BSS	SEGMENT
_CONF_APP DD	0eH DUP (?)
_BSS	ENDS
END
