; Listing generated by Microsoft (R) Optimizing Compiler Version 13.10.3077 

	TITLE	.\src\module\GamePanel\GameCtrlWnd.cpp
	.386P
include listing.inc
if @Version gt 510
.model FLAT
else
_TEXT	SEGMENT PARA USE32 PUBLIC 'CODE'
_TEXT	ENDS
_DATA	SEGMENT DWORD USE32 PUBLIC 'DATA'
_DATA	ENDS
CONST	SEGMENT DWORD USE32 PUBLIC 'CONST'
CONST	ENDS
_BSS	SEGMENT DWORD USE32 PUBLIC 'BSS'
_BSS	ENDS
$$SYMBOLS	SEGMENT BYTE USE32 'DEBSYM'
$$SYMBOLS	ENDS
$$TYPES	SEGMENT BYTE USE32 'DEBTYP'
$$TYPES	ENDS
_TLS	SEGMENT DWORD USE32 PUBLIC 'TLS'
_TLS	ENDS
;	COMDAT ??_C@_0P@CLMBAKJD@JSCall?5Error?3?6?$AA@
CONST	SEGMENT DWORD USE32 PUBLIC 'CONST'
CONST	ENDS
rdata$r	SEGMENT DWORD USE32 PUBLIC 'CONST'
rdata$r	ENDS
xdata$x	SEGMENT DWORD USE32 PUBLIC 'CONST'
xdata$x	ENDS
text$AFX_COL1	SEGMENT PARA USE32 PUBLIC ''
text$AFX_COL1	ENDS
text$yc	SEGMENT PARA USE32 PUBLIC 'CODE'
text$yc	ENDS
CRT$XCA	SEGMENT DWORD USE32 PUBLIC 'DATA'
CRT$XCA	ENDS
CRT$XCU	SEGMENT DWORD USE32 PUBLIC 'DATA'
CRT$XCU	ENDS
CRT$XCL	SEGMENT DWORD USE32 PUBLIC 'DATA'
CRT$XCL	ENDS
CRT$XCC	SEGMENT DWORD USE32 PUBLIC 'DATA'
CRT$XCC	ENDS
CRT$XCZ	SEGMENT DWORD USE32 PUBLIC 'DATA'
CRT$XCZ	ENDS
text$yd	SEGMENT PARA USE32 PUBLIC 'CODE'
text$yd	ENDS
ATL$__m	SEGMENT DWORD USE32 PUBLIC ''
ATL$__m	ENDS
ATL$__z	SEGMENT DWORD USE32 PUBLIC ''
ATL$__z	ENDS
ATL$__a	SEGMENT DWORD USE32 PUBLIC ''
ATL$__a	ENDS
;	COMDAT ??1HTTPObserver@@UAE@XZ
_TEXT	SEGMENT PARA USE32 PUBLIC 'CODE'
_TEXT	ENDS
;	COMDAT ?HTTPOb_DownStart@HTTPObserver@@UAEXPBD0I@Z
_TEXT	SEGMENT PARA USE32 PUBLIC 'CODE'
_TEXT	ENDS
;	COMDAT ?HTTPOb_DownFinish@HTTPObserver@@UAEXPBD@Z
_TEXT	SEGMENT PARA USE32 PUBLIC 'CODE'
_TEXT	ENDS
;	COMDAT ?HTTPOb_DownFailed@HTTPObserver@@UAEXPBDW4HTTP_DOWN_FAILED_REASON@@@Z
_TEXT	SEGMENT PARA USE32 PUBLIC 'CODE'
_TEXT	ENDS
;	COMDAT ?HTTPOb_DownProgress@HTTPObserver@@UAEXPBDII@Z
_TEXT	SEGMENT PARA USE32 PUBLIC 'CODE'
_TEXT	ENDS
;	COMDAT ?HTTPOb_DownloadPause@HTTPObserver@@UAEXPBD@Z
_TEXT	SEGMENT PARA USE32 PUBLIC 'CODE'
_TEXT	ENDS
;	COMDAT ??_GHTTPObserver@@UAEPAXI@Z
_TEXT	SEGMENT PARA USE32 PUBLIC 'CODE'
_TEXT	ENDS
;	COMDAT ?GetClsid@CShockwaveFlash@@QAEABU_GUID@@XZ
_TEXT	SEGMENT PARA USE32 PUBLIC 'CODE'
_TEXT	ENDS
;	COMDAT ??1IData@@MAE@XZ
_TEXT	SEGMENT PARA USE32 PUBLIC 'CODE'
_TEXT	ENDS
;	COMDAT ?DataAppStart@IData@@UAEXXZ
_TEXT	SEGMENT PARA USE32 PUBLIC 'CODE'
_TEXT	ENDS
;	COMDAT ?DataAppExit@IData@@UAEXXZ
_TEXT	SEGMENT PARA USE32 PUBLIC 'CODE'
_TEXT	ENDS
;	COMDAT ??_GIData@@MAEPAXI@Z
_TEXT	SEGMENT PARA USE32 PUBLIC 'CODE'
_TEXT	ENDS
;	COMDAT ??1IAdData@@MAE@XZ
_TEXT	SEGMENT PARA USE32 PUBLIC 'CODE'
_TEXT	ENDS
;	COMDAT ??_GIAdData@@MAEPAXI@Z
_TEXT	SEGMENT PARA USE32 PUBLIC 'CODE'
_TEXT	ENDS
;	COMDAT ??1CAtlStringMgr@ATL@@UAE@XZ
_TEXT	SEGMENT PARA USE32 PUBLIC 'CODE'
_TEXT	ENDS
;	COMDAT ?Allocate@CAtlStringMgr@ATL@@UAEPAUCStringData@2@HH@Z
_TEXT	SEGMENT PARA USE32 PUBLIC 'CODE'
_TEXT	ENDS
;	COMDAT ?Free@CAtlStringMgr@ATL@@UAEXPAUCStringData@2@@Z
_TEXT	SEGMENT PARA USE32 PUBLIC 'CODE'
_TEXT	ENDS
;	COMDAT ?Reallocate@CAtlStringMgr@ATL@@UAEPAUCStringData@2@PAU32@HH@Z
_TEXT	SEGMENT PARA USE32 PUBLIC 'CODE'
_TEXT	ENDS
;	COMDAT ?GetNilString@CAtlStringMgr@ATL@@UAEPAUCStringData@2@XZ
_TEXT	SEGMENT PARA USE32 PUBLIC 'CODE'
_TEXT	ENDS
;	COMDAT ?Clone@CAtlStringMgr@ATL@@UAEPAUIAtlStringMgr@2@XZ
_TEXT	SEGMENT PARA USE32 PUBLIC 'CODE'
_TEXT	ENDS
;	COMDAT ??_GCAtlStringMgr@ATL@@UAEPAXI@Z
_TEXT	SEGMENT PARA USE32 PUBLIC 'CODE'
_TEXT	ENDS
;	COMDAT ?CompareStringW@?$ChTraitsOS@_W@ATL@@KGHKKPB_WH0H@Z
_TEXT	SEGMENT PARA USE32 PUBLIC 'CODE'
_TEXT	ENDS
;	COMDAT ?GetStringTypeExW@?$ChTraitsOS@_W@ATL@@KGHKKPB_WHPAG@Z
_TEXT	SEGMENT PARA USE32 PUBLIC 'CODE'
_TEXT	ENDS
;	COMDAT ?lstrcmpiW@?$ChTraitsOS@_W@ATL@@KGHPB_W0@Z
_TEXT	SEGMENT PARA USE32 PUBLIC 'CODE'
_TEXT	ENDS
;	COMDAT ?CharLowerW@?$ChTraitsOS@_W@ATL@@KGPA_WPA_W@Z
_TEXT	SEGMENT PARA USE32 PUBLIC 'CODE'
_TEXT	ENDS
;	COMDAT ?CharUpperW@?$ChTraitsOS@_W@ATL@@KGPA_WPA_W@Z
_TEXT	SEGMENT PARA USE32 PUBLIC 'CODE'
_TEXT	ENDS
;	COMDAT ?strchr@?$ChTraitsOS@_W@ATL@@SAPB_WPB_W_W@Z
_TEXT	SEGMENT PARA USE32 PUBLIC 'CODE'
_TEXT	ENDS
;	COMDAT ?strrchr@?$ChTraitsOS@_W@ATL@@SAPB_WPB_W_W@Z
_TEXT	SEGMENT PARA USE32 PUBLIC 'CODE'
_TEXT	ENDS
;	COMDAT ?_strrev@?$ChTraitsOS@_W@ATL@@SAPA_WPA_W@Z
_TEXT	SEGMENT PARA USE32 PUBLIC 'CODE'
_TEXT	ENDS
;	COMDAT ?strstr@?$ChTraitsOS@_W@ATL@@SAPB_WPB_W0@Z
_TEXT	SEGMENT PARA USE32 PUBLIC 'CODE'
_TEXT	ENDS
;	COMDAT ?strspn@?$ChTraitsOS@_W@ATL@@SAHPB_W0@Z
_TEXT	SEGMENT PARA USE32 PUBLIC 'CODE'
_TEXT	ENDS
;	COMDAT ?strcspn@?$ChTraitsOS@_W@ATL@@SAHPB_W0@Z
_TEXT	SEGMENT PARA USE32 PUBLIC 'CODE'
_TEXT	ENDS
;	COMDAT ?strpbrk@?$ChTraitsOS@_W@ATL@@SAPB_WPB_W0@Z
_TEXT	SEGMENT PARA USE32 PUBLIC 'CODE'
_TEXT	ENDS
;	COMDAT ?StringFindString@?$ChTraitsOS@_W@ATL@@SAPB_WPB_W0@Z
_TEXT	SEGMENT PARA USE32 PUBLIC 'CODE'
_TEXT	ENDS
;	COMDAT ?clear@OneLocalGame@@QAEXXZ
_TEXT	SEGMENT PARA USE32 PUBLIC 'CODE'
_TEXT	ENDS
;	COMDAT ??0CCustomControlSite@@QAE@PAVCOleControlContainer@@@Z
_TEXT	SEGMENT PARA USE32 PUBLIC 'CODE'
_TEXT	ENDS
;	COMDAT ??_GCCustomControlSite@@UAEPAXI@Z
_TEXT	SEGMENT PARA USE32 PUBLIC 'CODE'
_TEXT	ENDS
;	COMDAT ??0XDocHostShowUI@CCustomControlSite@@QAE@XZ
_TEXT	SEGMENT PARA USE32 PUBLIC 'CODE'
_TEXT	ENDS
;	COMDAT ??0XDocHostUIHandler@CCustomControlSite@@QAE@XZ
_TEXT	SEGMENT PARA USE32 PUBLIC 'CODE'
_TEXT	ENDS
;	COMDAT ??1CCustomControlSite@@UAE@XZ
_TEXT	SEGMENT PARA USE32 PUBLIC 'CODE'
_TEXT	ENDS
;	COMDAT ??0IDocHostShowUI@@QAE@XZ
_TEXT	SEGMENT PARA USE32 PUBLIC 'CODE'
_TEXT	ENDS
;	COMDAT ??0IDocHostUIHandler@@QAE@XZ
_TEXT	SEGMENT PARA USE32 PUBLIC 'CODE'
_TEXT	ENDS
;	COMDAT ?CreateSite@CCustomOccManager@@UAEPAVCOleControlSite@@PAVCOleControlContainer@@@Z
_TEXT	SEGMENT PARA USE32 PUBLIC 'CODE'
_TEXT	ENDS
;	COMDAT ??_GCCustomOccManager@@UAEPAXI@Z
_TEXT	SEGMENT PARA USE32 PUBLIC 'CODE'
_TEXT	ENDS
;	COMDAT ??0COccManager@@QAE@XZ
_TEXT	SEGMENT PARA USE32 PUBLIC 'CODE'
_TEXT	ENDS
;	COMDAT ??1COccManager@@UAE@XZ
_TEXT	SEGMENT PARA USE32 PUBLIC 'CODE'
_TEXT	ENDS
;	COMDAT ??1CCustomOccManager@@UAE@XZ
_TEXT	SEGMENT PARA USE32 PUBLIC 'CODE'
_TEXT	ENDS
;	COMDAT ??_GCOccManager@@UAEPAXI@Z
_TEXT	SEGMENT PARA USE32 PUBLIC 'CODE'
_TEXT	ENDS
;	COMDAT ??0CNoTrackObject@@QAE@XZ
_TEXT	SEGMENT PARA USE32 PUBLIC 'CODE'
_TEXT	ENDS
;	COMDAT _$E5
text$yc	SEGMENT PARA USE32 PUBLIC 'CODE'
text$yc	ENDS
;	COMDAT ??_GCGameCtrlWnd@@UAEPAXI@Z
_TEXT	SEGMENT PARA USE32 PUBLIC 'CODE'
_TEXT	ENDS
;	COMDAT ??0SWF_GAME@@QAE@XZ
_TEXT	SEGMENT PARA USE32 PUBLIC 'CODE'
_TEXT	ENDS
;	COMDAT ??1SWF_GAME@@QAE@XZ
_TEXT	SEGMENT PARA USE32 PUBLIC 'CODE'
_TEXT	ENDS
;	COMDAT ??HATL@@YA?AV?$CStringT@DV?$StrTraitMFC_DLL@DV?$ChTraitsCRT@D@ATL@@@@@0@PBDABV10@@Z
_TEXT	SEGMENT PARA USE32 PUBLIC 'CODE'
_TEXT	ENDS
;	COMDAT ??B?$CComPtrBase@UITypeInfo2@@@ATL@@QBEPAUITypeInfo2@@XZ
_TEXT	SEGMENT PARA USE32 PUBLIC 'CODE'
_TEXT	ENDS
;	COMDAT ??B?$CComPtrBase@UIHTMLDocument2@@@ATL@@QBEPAUIHTMLDocument2@@XZ
_TEXT	SEGMENT PARA USE32 PUBLIC 'CODE'
_TEXT	ENDS
;	COMDAT ?equal@?$istreambuf_iterator@DU?$char_traits@D@std@@@std@@QBE_NABV12@@Z
_TEXT	SEGMENT PARA USE32 PUBLIC 'CODE'
_TEXT	ENDS
;	COMDAT ?equal@?$istreambuf_iterator@_WU?$char_traits@_W@std@@@std@@QBE_NABV12@@Z
_TEXT	SEGMENT PARA USE32 PUBLIC 'CODE'
_TEXT	ENDS
;	COMDAT ??0iterator@?$basic_string@DU?$char_traits@D@std@@V?$allocator@D@2@@std@@QAE@PAD@Z
_TEXT	SEGMENT PARA USE32 PUBLIC 'CODE'
_TEXT	ENDS
;	COMDAT ??0const_iterator@?$basic_string@DU?$char_traits@D@std@@V?$allocator@D@2@@std@@QAE@PBD@Z
_TEXT	SEGMENT PARA USE32 PUBLIC 'CODE'
_TEXT	ENDS
;	COMDAT ??Gconst_iterator@?$basic_string@DU?$char_traits@D@std@@V?$allocator@D@2@@std@@QBEHABV012@@Z
_TEXT	SEGMENT PARA USE32 PUBLIC 'CODE'
_TEXT	ENDS
;	COMDAT ?Unlock@?$CComCritSecLock@VCComCriticalSection@ATL@@@ATL@@QAEXXZ
_TEXT	SEGMENT PARA USE32 PUBLIC 'CODE'
_TEXT	ENDS
;	COMDAT ??$AtlAlignUp@H@ATL@@YGHHK@Z
_TEXT	SEGMENT PARA USE32 PUBLIC 'CODE'
_TEXT	ENDS
;	COMDAT ??$_Maklocstr@D@std@@YAPADPBDPADABU_Cvtvec@@@Z
_TEXT	SEGMENT PARA USE32 PUBLIC 'CODE'
_TEXT	ENDS
;	COMDAT ??_R3IData@@8
rdata$r	SEGMENT DWORD USE32 PUBLIC 'CONST'
rdata$r	ENDS
;	COMDAT ??_R3IAdData@@8
rdata$r	SEGMENT DWORD USE32 PUBLIC 'CONST'
rdata$r	ENDS
;	COMDAT ??_R3CCustomControlSite@@8
rdata$r	SEGMENT DWORD USE32 PUBLIC 'CONST'
rdata$r	ENDS
;	COMDAT ??_R3IDocHostShowUI@@8
rdata$r	SEGMENT DWORD USE32 PUBLIC 'CONST'
rdata$r	ENDS
;	COMDAT ??_R3IDocHostUIHandler@@8
rdata$r	SEGMENT DWORD USE32 PUBLIC 'CONST'
rdata$r	ENDS
;	COMDAT ??_R3CAtlStringMgr@ATL@@8
rdata$r	SEGMENT DWORD USE32 PUBLIC 'CONST'
rdata$r	ENDS
;	COMDAT ??_R3HTTPObserver@@8
rdata$r	SEGMENT DWORD USE32 PUBLIC 'CONST'
rdata$r	ENDS
;	COMDAT ??_R3XDocHostUIHandler@CCustomControlSite@@8
rdata$r	SEGMENT DWORD USE32 PUBLIC 'CONST'
rdata$r	ENDS
;	COMDAT ??_R3COccManager@@8
rdata$r	SEGMENT DWORD USE32 PUBLIC 'CONST'
rdata$r	ENDS
;	COMDAT ??_R3CCustomOccManager@@8
rdata$r	SEGMENT DWORD USE32 PUBLIC 'CONST'
rdata$r	ENDS
;	COMDAT ??_R3?$numpunct@_W@std@@8
rdata$r	SEGMENT DWORD USE32 PUBLIC 'CONST'
rdata$r	ENDS
;	COMDAT ??_R3CGameCtrlWnd@@8
rdata$r	SEGMENT DWORD USE32 PUBLIC 'CONST'
rdata$r	ENDS
;	COMDAT ??_R3XDocHostShowUI@CCustomControlSite@@8
rdata$r	SEGMENT DWORD USE32 PUBLIC 'CONST'
rdata$r	ENDS
;	COMDAT ??_R3?$numpunct@D@std@@8
rdata$r	SEGMENT DWORD USE32 PUBLIC 'CONST'
rdata$r	ENDS
;	COMDAT ??_R2IData@@8
rdata$r	SEGMENT DWORD USE32 PUBLIC 'CONST'
rdata$r	ENDS
;	COMDAT ??_R2IAdData@@8
rdata$r	SEGMENT DWORD USE32 PUBLIC 'CONST'
rdata$r	ENDS
;	COMDAT ??_R2CCustomControlSite@@8
rdata$r	SEGMENT DWORD USE32 PUBLIC 'CONST'
rdata$r	ENDS
;	COMDAT ??_R2IDocHostShowUI@@8
rdata$r	SEGMENT DWORD USE32 PUBLIC 'CONST'
rdata$r	ENDS
;	COMDAT ??_R2IDocHostUIHandler@@8
rdata$r	SEGMENT DWORD USE32 PUBLIC 'CONST'
rdata$r	ENDS
;	COMDAT ??_R2CAtlStringMgr@ATL@@8
rdata$r	SEGMENT DWORD USE32 PUBLIC 'CONST'
rdata$r	ENDS
;	COMDAT ??_R2HTTPObserver@@8
rdata$r	SEGMENT DWORD USE32 PUBLIC 'CONST'
rdata$r	ENDS
;	COMDAT ??_R2XDocHostUIHandler@CCustomControlSite@@8
rdata$r	SEGMENT DWORD USE32 PUBLIC 'CONST'
rdata$r	ENDS
;	COMDAT ??_R2COccManager@@8
rdata$r	SEGMENT DWORD USE32 PUBLIC 'CONST'
rdata$r	ENDS
;	COMDAT ??_R2CCustomOccManager@@8
rdata$r	SEGMENT DWORD USE32 PUBLIC 'CONST'
rdata$r	ENDS
;	COMDAT ??_R2?$numpunct@_W@std@@8
rdata$r	SEGMENT DWORD USE32 PUBLIC 'CONST'
rdata$r	ENDS
;	COMDAT ??_R2CGameCtrlWnd@@8
rdata$r	SEGMENT DWORD USE32 PUBLIC 'CONST'
rdata$r	ENDS
;	COMDAT ??_R2XDocHostShowUI@CCustomControlSite@@8
rdata$r	SEGMENT DWORD USE32 PUBLIC 'CONST'
rdata$r	ENDS
;	COMDAT ??_R2?$numpunct@D@std@@8
rdata$r	SEGMENT DWORD USE32 PUBLIC 'CONST'
rdata$r	ENDS
;	COMDAT ??_R1A@?0A@A@IData@@8
rdata$r	SEGMENT DWORD USE32 PUBLIC 'CONST'
rdata$r	ENDS
;	COMDAT ??_R1A@?0A@A@IAdData@@8
rdata$r	SEGMENT DWORD USE32 PUBLIC 'CONST'
rdata$r	ENDS
;	COMDAT ??_R1A@?0A@A@COleControlSite@@8
rdata$r	SEGMENT DWORD USE32 PUBLIC 'CONST'
rdata$r	ENDS
;	COMDAT ??_R1A@?0A@A@CCustomControlSite@@8
rdata$r	SEGMENT DWORD USE32 PUBLIC 'CONST'
rdata$r	ENDS
;	COMDAT ??_R1A@?0A@A@IAtlStringMgr@ATL@@8
rdata$r	SEGMENT DWORD USE32 PUBLIC 'CONST'
rdata$r	ENDS
;	COMDAT ??_R0?AUIAtlStringMgr@ATL@@@8
_DATA	SEGMENT DWORD USE32 PUBLIC 'DATA'
_DATA	ENDS
;	COMDAT ??_R1A@?0A@A@CAtlStringMgr@ATL@@8
rdata$r	SEGMENT DWORD USE32 PUBLIC 'CONST'
rdata$r	ENDS
;	COMDAT ??_R1A@?0A@A@HTTPObserver@@8
rdata$r	SEGMENT DWORD USE32 PUBLIC 'CONST'
rdata$r	ENDS
;	COMDAT ??_R1A@?0A@A@IDocHostUIHandler@@8
rdata$r	SEGMENT DWORD USE32 PUBLIC 'CONST'
rdata$r	ENDS
;	COMDAT ??_R1A@?0A@A@XDocHostUIHandler@CCustomControlSite@@8
rdata$r	SEGMENT DWORD USE32 PUBLIC 'CONST'
rdata$r	ENDS
;	COMDAT ??_R1A@?0A@A@CNoTrackObject@@8
rdata$r	SEGMENT DWORD USE32 PUBLIC 'CONST'
rdata$r	ENDS
;	COMDAT ??_R0?AVCNoTrackObject@@@8
_DATA	SEGMENT DWORD USE32 PUBLIC 'DATA'
_DATA	ENDS
;	COMDAT ??_R1A@?0A@A@COccManager@@8
rdata$r	SEGMENT DWORD USE32 PUBLIC 'CONST'
rdata$r	ENDS
;	COMDAT ??_R1A@?0A@A@CCustomOccManager@@8
rdata$r	SEGMENT DWORD USE32 PUBLIC 'CONST'
rdata$r	ENDS
;	COMDAT ??_R1A@?0A@A@?$numpunct@_W@std@@8
rdata$r	SEGMENT DWORD USE32 PUBLIC 'CONST'
rdata$r	ENDS
;	COMDAT ??_R1A@?0A@A@CObject@@8
rdata$r	SEGMENT DWORD USE32 PUBLIC 'CONST'
rdata$r	ENDS
;	COMDAT ??_R0?AVCObject@@@8
_DATA	SEGMENT DWORD USE32 PUBLIC 'DATA'
_DATA	ENDS
;	COMDAT ??_R1A@?0A@A@CCmdTarget@@8
rdata$r	SEGMENT DWORD USE32 PUBLIC 'CONST'
rdata$r	ENDS
;	COMDAT ??_R0?AVCCmdTarget@@@8
_DATA	SEGMENT DWORD USE32 PUBLIC 'DATA'
_DATA	ENDS
;	COMDAT ??_R1A@?0A@A@CWnd@@8
rdata$r	SEGMENT DWORD USE32 PUBLIC 'CONST'
rdata$r	ENDS
;	COMDAT ??_R0?AVCWnd@@@8
_DATA	SEGMENT DWORD USE32 PUBLIC 'DATA'
_DATA	ENDS
;	COMDAT ??_R1A@?0A@A@CBasicWnd@@8
rdata$r	SEGMENT DWORD USE32 PUBLIC 'CONST'
rdata$r	ENDS
;	COMDAT ??_R1A@?0A@A@CGameCtrlWnd@@8
rdata$r	SEGMENT DWORD USE32 PUBLIC 'CONST'
rdata$r	ENDS
;	COMDAT ??_R1A@?0A@A@IUnknown@@8
rdata$r	SEGMENT DWORD USE32 PUBLIC 'CONST'
rdata$r	ENDS
;	COMDAT ??_R0?AUIUnknown@@@8
_DATA	SEGMENT DWORD USE32 PUBLIC 'DATA'
_DATA	ENDS
;	COMDAT ??_R1A@?0A@A@IDocHostShowUI@@8
rdata$r	SEGMENT DWORD USE32 PUBLIC 'CONST'
rdata$r	ENDS
;	COMDAT ??_R1A@?0A@A@XDocHostShowUI@CCustomControlSite@@8
rdata$r	SEGMENT DWORD USE32 PUBLIC 'CONST'
rdata$r	ENDS
;	COMDAT ??_R1A@?0A@A@facet@locale@std@@8
rdata$r	SEGMENT DWORD USE32 PUBLIC 'CONST'
rdata$r	ENDS
;	COMDAT ??_R0?AVfacet@locale@std@@@8
_DATA	SEGMENT DWORD USE32 PUBLIC 'DATA'
_DATA	ENDS
;	COMDAT ??_R1A@?0A@A@?$numpunct@D@std@@8
rdata$r	SEGMENT DWORD USE32 PUBLIC 'CONST'
rdata$r	ENDS
;	COMDAT ??_R0?AVIData@@@8
_DATA	SEGMENT DWORD USE32 PUBLIC 'DATA'
_DATA	ENDS
;	COMDAT ??_R0?AVIAdData@@@8
_DATA	SEGMENT DWORD USE32 PUBLIC 'DATA'
_DATA	ENDS
;	COMDAT ??_R0?AVCOleControlSite@@@8
_DATA	SEGMENT DWORD USE32 PUBLIC 'DATA'
_DATA	ENDS
;	COMDAT ??_R0?AVCCustomControlSite@@@8
_DATA	SEGMENT DWORD USE32 PUBLIC 'DATA'
_DATA	ENDS
;	COMDAT ??_R0?AVCAtlStringMgr@ATL@@@8
_DATA	SEGMENT DWORD USE32 PUBLIC 'DATA'
_DATA	ENDS
;	COMDAT ??_R0?AVHTTPObserver@@@8
_DATA	SEGMENT DWORD USE32 PUBLIC 'DATA'
_DATA	ENDS
;	COMDAT ??_R0?AUIDocHostUIHandler@@@8
_DATA	SEGMENT DWORD USE32 PUBLIC 'DATA'
_DATA	ENDS
;	COMDAT ??_R0?AVXDocHostUIHandler@CCustomControlSite@@@8
_DATA	SEGMENT DWORD USE32 PUBLIC 'DATA'
_DATA	ENDS
;	COMDAT ??_R0?AVCOccManager@@@8
_DATA	SEGMENT DWORD USE32 PUBLIC 'DATA'
_DATA	ENDS
;	COMDAT ??_R0?AVCCustomOccManager@@@8
_DATA	SEGMENT DWORD USE32 PUBLIC 'DATA'
_DATA	ENDS
;	COMDAT ??_R0?AV?$numpunct@_W@std@@@8
_DATA	SEGMENT DWORD USE32 PUBLIC 'DATA'
_DATA	ENDS
;	COMDAT ??_R0?AVCBasicWnd@@@8
_DATA	SEGMENT DWORD USE32 PUBLIC 'DATA'
_DATA	ENDS
;	COMDAT ??_R0?AVCGameCtrlWnd@@@8
_DATA	SEGMENT DWORD USE32 PUBLIC 'DATA'
_DATA	ENDS
;	COMDAT ??_R0?AUIDocHostShowUI@@@8
_DATA	SEGMENT DWORD USE32 PUBLIC 'DATA'
_DATA	ENDS
;	COMDAT ??_R0?AVXDocHostShowUI@CCustomControlSite@@@8
_DATA	SEGMENT DWORD USE32 PUBLIC 'DATA'
_DATA	ENDS
;	COMDAT ??_R0?AV?$numpunct@D@std@@@8
_DATA	SEGMENT DWORD USE32 PUBLIC 'DATA'
_DATA	ENDS
;	COMDAT ??_R4IData@@6B@
rdata$r	SEGMENT DWORD USE32 PUBLIC 'CONST'
rdata$r	ENDS
;	COMDAT ??_R4IAdData@@6B@
rdata$r	SEGMENT DWORD USE32 PUBLIC 'CONST'
rdata$r	ENDS
;	COMDAT ??_R4CCustomControlSite@@6B@
rdata$r	SEGMENT DWORD USE32 PUBLIC 'CONST'
rdata$r	ENDS
;	COMDAT ??_R4IDocHostShowUI@@6B@
rdata$r	SEGMENT DWORD USE32 PUBLIC 'CONST'
rdata$r	ENDS
;	COMDAT ??_R4IDocHostUIHandler@@6B@
rdata$r	SEGMENT DWORD USE32 PUBLIC 'CONST'
rdata$r	ENDS
;	COMDAT ??_R4CAtlStringMgr@ATL@@6B@
rdata$r	SEGMENT DWORD USE32 PUBLIC 'CONST'
rdata$r	ENDS
;	COMDAT ??_R4HTTPObserver@@6B@
rdata$r	SEGMENT DWORD USE32 PUBLIC 'CONST'
rdata$r	ENDS
;	COMDAT ??_R4XDocHostUIHandler@CCustomControlSite@@6B@
rdata$r	SEGMENT DWORD USE32 PUBLIC 'CONST'
rdata$r	ENDS
;	COMDAT ??_R4COccManager@@6B@
rdata$r	SEGMENT DWORD USE32 PUBLIC 'CONST'
rdata$r	ENDS
;	COMDAT ??_R4CCustomOccManager@@6B@
rdata$r	SEGMENT DWORD USE32 PUBLIC 'CONST'
rdata$r	ENDS
;	COMDAT ??0?$allocator@_W@std@@QAE@XZ
_TEXT	SEGMENT PARA USE32 PUBLIC 'CODE'
_TEXT	ENDS
;	COMDAT ??_G?$numpunct@_W@std@@MAEPAXI@Z
_TEXT	SEGMENT PARA USE32 PUBLIC 'CODE'
_TEXT	ENDS
;	COMDAT ??_R4?$numpunct@_W@std@@6B@
rdata$r	SEGMENT DWORD USE32 PUBLIC 'CONST'
rdata$r	ENDS
;	COMDAT ?EndModalState@CWnd@@UAEXXZ
_TEXT	SEGMENT PARA USE32 PUBLIC 'CODE'
_TEXT	ENDS
;	COMDAT ?BeginModalState@CWnd@@UAEXXZ
_TEXT	SEGMENT PARA USE32 PUBLIC 'CODE'
_TEXT	ENDS
;	COMDAT ?DoDataExchange@CWnd@@MAEXPAVCDataExchange@@@Z
_TEXT	SEGMENT PARA USE32 PUBLIC 'CODE'
_TEXT	ENDS
;	COMDAT ?Dump@CObject@@UBEXAAVCDumpContext@@@Z
_TEXT	SEGMENT PARA USE32 PUBLIC 'CODE'
_TEXT	ENDS
;	COMDAT ?AssertValid@CObject@@UBEXXZ
_TEXT	SEGMENT PARA USE32 PUBLIC 'CODE'
_TEXT	ENDS
;	COMDAT ?Serialize@CObject@@UAEXAAVCArchive@@@Z
_TEXT	SEGMENT PARA USE32 PUBLIC 'CODE'
_TEXT	ENDS
;	COMDAT ??_R4CGameCtrlWnd@@6B@
rdata$r	SEGMENT DWORD USE32 PUBLIC 'CONST'
rdata$r	ENDS
;	COMDAT ??_R4XDocHostShowUI@CCustomControlSite@@6B@
rdata$r	SEGMENT DWORD USE32 PUBLIC 'CONST'
rdata$r	ENDS
;	COMDAT ??_G?$numpunct@D@std@@MAEPAXI@Z
_TEXT	SEGMENT PARA USE32 PUBLIC 'CODE'
_TEXT	ENDS
;	COMDAT ??_R4?$numpunct@D@std@@6B@
rdata$r	SEGMENT DWORD USE32 PUBLIC 'CONST'
rdata$r	ENDS
;	COMDAT ?_Psave@?$_Facetptr@V?$numpunct@_W@std@@@std@@2PBVfacet@locale@2@B
_DATA	SEGMENT DWORD USE32 PUBLIC 'DATA'
_DATA	ENDS
;	COMDAT ?_Psave@?$_Facetptr@V?$numpunct@D@std@@@std@@2PBVfacet@locale@2@B
_DATA	SEGMENT DWORD USE32 PUBLIC 'DATA'
_DATA	ENDS
;	COMDAT ?Unlock@CComCriticalSection@ATL@@QAEJXZ
_TEXT	SEGMENT PARA USE32 PUBLIC 'CODE'
_TEXT	ENDS
;	COMDAT ?_Psave@?$_Facetptr@V?$ctype@_W@std@@@std@@2PBVfacet@locale@2@B
_DATA	SEGMENT DWORD USE32 PUBLIC 'DATA'
_DATA	ENDS
;	COMDAT ?_Psave@?$_Facetptr@V?$ctype@D@std@@@std@@2PBVfacet@locale@2@B
_DATA	SEGMENT DWORD USE32 PUBLIC 'DATA'
_DATA	ENDS
;	COMDAT ??$_Maklocchr@_W@std@@YA_WDPA_WABU_Cvtvec@@@Z
_TEXT	SEGMENT PARA USE32 PUBLIC 'CODE'
_TEXT	ENDS
;	COMDAT ??$_Maklocstr@_W@std@@YAPA_WPBDPA_WABU_Cvtvec@@@Z
_TEXT	SEGMENT PARA USE32 PUBLIC 'CODE'
_TEXT	ENDS
;	COMDAT ??$_Maklocchr@D@std@@YADDPADABU_Cvtvec@@@Z
_TEXT	SEGMENT PARA USE32 PUBLIC 'CODE'
_TEXT	ENDS
;	COMDAT ??_C@_04LOAJBDKD@true?$AA@
CONST	SEGMENT DWORD USE32 PUBLIC 'CONST'
CONST	ENDS
;	COMDAT ??_C@_05LAPONLG@false?$AA@
CONST	SEGMENT DWORD USE32 PUBLIC 'CONST'
CONST	ENDS
;	COMDAT _wmemcpy
_TEXT	SEGMENT PARA USE32 PUBLIC 'CODE'
_TEXT	ENDS
;	COMDAT ?max_size@?$allocator@_W@std@@QBEIXZ
_TEXT	SEGMENT PARA USE32 PUBLIC 'CODE'
_TEXT	ENDS
;	COMDAT ?allocate@?$allocator@_W@std@@QAEPA_WI@Z
_TEXT	SEGMENT PARA USE32 PUBLIC 'CODE'
_TEXT	ENDS
;	COMDAT ??$_Allocate@_W@std@@YAPA_WIPA_W@Z
_TEXT	SEGMENT PARA USE32 PUBLIC 'CODE'
_TEXT	ENDS
;	COMDAT ??_C@_01GFHCPBMG@C?$AA@
CONST	SEGMENT DWORD USE32 PUBLIC 'CONST'
CONST	ENDS
;	COMDAT ?max_size@?$allocator@D@std@@QBEIXZ
_TEXT	SEGMENT PARA USE32 PUBLIC 'CODE'
_TEXT	ENDS
;	COMDAT ?allocate@?$allocator@D@std@@QAEPADI@Z
_TEXT	SEGMENT PARA USE32 PUBLIC 'CODE'
_TEXT	ENDS
;	COMDAT ??$_Allocate@D@std@@YAPADIPAD@Z
_TEXT	SEGMENT PARA USE32 PUBLIC 'CODE'
_TEXT	ENDS
;	COMDAT ?deallocate@?$allocator@D@std@@QAEXPADI@Z
_TEXT	SEGMENT PARA USE32 PUBLIC 'CODE'
_TEXT	ENDS
;	COMDAT ?Release@CStringData@ATL@@QAEXXZ
_TEXT	SEGMENT PARA USE32 PUBLIC 'CODE'
_TEXT	ENDS
;	COMDAT ?data@CStringData@ATL@@QAEPAXXZ
_TEXT	SEGMENT PARA USE32 PUBLIC 'CODE'
_TEXT	ENDS
;	COMDAT ?AtlThrow@ATL@@YGXJ@Z
_TEXT	SEGMENT PARA USE32 PUBLIC 'CODE'
_TEXT	ENDS
;	COMDAT ?IsShared@CStringData@ATL@@QBE_NXZ
_TEXT	SEGMENT PARA USE32 PUBLIC 'CODE'
_TEXT	ENDS
;	COMDAT ?_Peek@?$istreambuf_iterator@_WU?$char_traits@_W@std@@@std@@AAE_WXZ
_TEXT	SEGMENT PARA USE32 PUBLIC 'CODE'
_TEXT	ENDS
;	COMDAT ?_Peek@?$istreambuf_iterator@DU?$char_traits@D@std@@@std@@AAEDXZ
_TEXT	SEGMENT PARA USE32 PUBLIC 'CODE'
_TEXT	ENDS
;	COMDAT ??$use_facet@V?$ctype@_W@std@@@std@@YAABV?$ctype@_W@0@ABVlocale@0@@Z
_TEXT	SEGMENT PARA USE32 PUBLIC 'CODE'
_TEXT	ENDS
;	COMDAT ??_S?$ctype@_W@std@@6B@
CONST	SEGMENT DWORD USE32 PUBLIC 'CONST'
CONST	ENDS
;	COMDAT ??_R4?$ctype@_W@std@@6B@
rdata$r	SEGMENT DWORD USE32 PUBLIC 'CONST'
rdata$r	ENDS
;	COMDAT ??_R0?AV?$ctype@_W@std@@@8
_DATA	SEGMENT DWORD USE32 PUBLIC 'DATA'
_DATA	ENDS
;	COMDAT ??_R3?$ctype@_W@std@@8
rdata$r	SEGMENT DWORD USE32 PUBLIC 'CONST'
rdata$r	ENDS
;	COMDAT ??_R2?$ctype@_W@std@@8
rdata$r	SEGMENT DWORD USE32 PUBLIC 'CONST'
rdata$r	ENDS
;	COMDAT ??_R1A@?0A@A@?$ctype@_W@std@@8
rdata$r	SEGMENT DWORD USE32 PUBLIC 'CONST'
rdata$r	ENDS
;	COMDAT ??_R1A@?0A@A@ctype_base@std@@8
rdata$r	SEGMENT DWORD USE32 PUBLIC 'CONST'
rdata$r	ENDS
;	COMDAT ??_R0?AUctype_base@std@@@8
_DATA	SEGMENT DWORD USE32 PUBLIC 'DATA'
_DATA	ENDS
;	COMDAT ??_G?$ctype@_W@std@@MAEPAXI@Z
_TEXT	SEGMENT PARA USE32 PUBLIC 'CODE'
_TEXT	ENDS
;	COMDAT ??_C@_08EPJLHIJG@bad?5cast?$AA@
CONST	SEGMENT DWORD USE32 PUBLIC 'CONST'
CONST	ENDS
;	COMDAT __TI2?AVbad_cast@@
xdata$x	SEGMENT DWORD USE32 PUBLIC 'CONST'
xdata$x	ENDS
;	COMDAT __CTA2?AVbad_cast@@
xdata$x	SEGMENT DWORD USE32 PUBLIC 'CONST'
xdata$x	ENDS
;	COMDAT __CT??_R0?AVbad_cast@@@8??0bad_cast@@QAE@ABV0@@Z12
xdata$x	SEGMENT DWORD USE32 PUBLIC 'CONST'
xdata$x	ENDS
;	COMDAT ??_R0?AVbad_cast@@@8
_DATA	SEGMENT DWORD USE32 PUBLIC 'DATA'
_DATA	ENDS
;	COMDAT __CT??_R0?AVexception@@@8??0exception@@QAE@ABV0@@Z12
xdata$x	SEGMENT DWORD USE32 PUBLIC 'CONST'
xdata$x	ENDS
;	COMDAT ??_R0?AVexception@@@8
_DATA	SEGMENT DWORD USE32 PUBLIC 'DATA'
_DATA	ENDS
;	COMDAT ??$use_facet@V?$ctype@D@std@@@std@@YAABV?$ctype@D@0@ABVlocale@0@@Z
_TEXT	SEGMENT PARA USE32 PUBLIC 'CODE'
_TEXT	ENDS
;	COMDAT ??_S?$ctype@D@std@@6B@
CONST	SEGMENT DWORD USE32 PUBLIC 'CONST'
CONST	ENDS
;	COMDAT ??_R4?$ctype@D@std@@6B@
rdata$r	SEGMENT DWORD USE32 PUBLIC 'CONST'
rdata$r	ENDS
;	COMDAT ??_R0?AV?$ctype@D@std@@@8
_DATA	SEGMENT DWORD USE32 PUBLIC 'DATA'
_DATA	ENDS
;	COMDAT ??_R3?$ctype@D@std@@8
rdata$r	SEGMENT DWORD USE32 PUBLIC 'CONST'
rdata$r	ENDS
;	COMDAT ??_R2?$ctype@D@std@@8
rdata$r	SEGMENT DWORD USE32 PUBLIC 'CONST'
rdata$r	ENDS
;	COMDAT ??_R1A@?0A@A@?$ctype@D@std@@8
rdata$r	SEGMENT DWORD USE32 PUBLIC 'CONST'
rdata$r	ENDS
;	COMDAT ??_G?$ctype@D@std@@MAEPAXI@Z
_TEXT	SEGMENT PARA USE32 PUBLIC 'CODE'
_TEXT	ENDS
;	COMDAT ??_S?$numpunct@_W@std@@6B@
CONST	SEGMENT DWORD USE32 PUBLIC 'CONST'
CONST	ENDS
;	COMDAT ??_S?$numpunct@D@std@@6B@
CONST	SEGMENT DWORD USE32 PUBLIC 'CONST'
CONST	ENDS
;	COMDAT _wmemmove
_TEXT	SEGMENT PARA USE32 PUBLIC 'CODE'
_TEXT	ENDS
;	COMDAT ?deallocate@?$allocator@_W@std@@QAEXPA_WI@Z
_TEXT	SEGMENT PARA USE32 PUBLIC 'CODE'
_TEXT	ENDS
;	COMDAT ??0?$allocator@_W@std@@QAE@ABV01@@Z
_TEXT	SEGMENT PARA USE32 PUBLIC 'CODE'
_TEXT	ENDS
;	COMDAT ?OnShowWindow@CWnd@@IAEXHI@Z
_TEXT	SEGMENT PARA USE32 PUBLIC 'CODE'
_TEXT	ENDS
;	COMDAT ?Invalidate@CWnd@@QAEXH@Z
_TEXT	SEGMENT PARA USE32 PUBLIC 'CODE'
_TEXT	ENDS
;	COMDAT ?GetParent@CWnd@@QBEPAV1@XZ
_TEXT	SEGMENT PARA USE32 PUBLIC 'CODE'
_TEXT	ENDS
;	COMDAT ?PostMessageA@CWnd@@QAEHIIJ@Z
_TEXT	SEGMENT PARA USE32 PUBLIC 'CODE'
_TEXT	ENDS
;	COMDAT ??0CRect@@QAE@HHHH@Z
_TEXT	SEGMENT PARA USE32 PUBLIC 'CODE'
_TEXT	ENDS
;	COMDAT ?OnCreate@CWnd@@IAEHPAUtagCREATESTRUCTA@@@Z
_TEXT	SEGMENT PARA USE32 PUBLIC 'CODE'
_TEXT	ENDS
;	COMDAT ??0?$allocator@D@std@@QAE@ABV01@@Z
_TEXT	SEGMENT PARA USE32 PUBLIC 'CODE'
_TEXT	ENDS
;	COMDAT ??0?$allocator@D@std@@QAE@XZ
_TEXT	SEGMENT PARA USE32 PUBLIC 'CODE'
_TEXT	ENDS
;	COMDAT ?_messageEntries@CGameCtrlWnd@@0QBUAFX_MSGMAP_ENTRY@@B
CONST	SEGMENT DWORD USE32 PUBLIC 'CONST'
CONST	ENDS
;	COMDAT ?messageMap@CGameCtrlWnd@@1UAFX_MSGMAP@@B
CONST	SEGMENT DWORD USE32 PUBLIC 'CONST'
CONST	ENDS
;	COMDAT ??_7CGameCtrlWnd@@6B@
CONST	SEGMENT DWORD USE32 PUBLIC 'CONST'
CONST	ENDS
;	COMDAT ?classCGameCtrlWnd@CGameCtrlWnd@@2UCRuntimeClass@@B
CONST	SEGMENT DWORD USE32 PUBLIC 'CONST'
CONST	ENDS
;	COMDAT ?IsLocked@CStringData@ATL@@QBE_NXZ
_TEXT	SEGMENT PARA USE32 PUBLIC 'CODE'
_TEXT	ENDS
;	COMDAT ?GetDefaultManager@?$StrTraitMFC_DLL@DV?$ChTraitsCRT@D@ATL@@@@SAPAUIAtlStringMgr@ATL@@XZ
_TEXT	SEGMENT PARA USE32 PUBLIC 'CODE'
_TEXT	ENDS
;	COMDAT ?FindStringResourceInstance@?$StrTraitMFC_DLL@DV?$ChTraitsCRT@D@ATL@@@@SAPAUHINSTANCE__@@I@Z
_TEXT	SEGMENT PARA USE32 PUBLIC 'CODE'
_TEXT	ENDS
;	COMDAT ?AtlGetStringResourceImage@ATL@@YAPBUATLSTRINGRESOURCEIMAGE@1@PAUHINSTANCE__@@I@Z
_TEXT	SEGMENT PARA USE32 PUBLIC 'CODE'
_TEXT	ENDS
;	COMDAT ?_AtlGetStringResourceImage@ATL@@YAPBUATLSTRINGRESOURCEIMAGE@1@PAUHINSTANCE__@@PAUHRSRC__@@I@Z
_TEXT	SEGMENT PARA USE32 PUBLIC 'CODE'
_TEXT	ENDS
;	COMDAT ?GetBaseTypeLength@?$ChTraitsCRT@D@ATL@@SAHPB_WH@Z
_TEXT	SEGMENT PARA USE32 PUBLIC 'CODE'
_TEXT	ENDS
;	COMDAT ?ConvertToBaseType@?$ChTraitsCRT@D@ATL@@SAXPADHPB_WH@Z
_TEXT	SEGMENT PARA USE32 PUBLIC 'CODE'
_TEXT	ENDS
;	COMDAT ??_7COccManager@@6B@
CONST	SEGMENT DWORD USE32 PUBLIC 'CONST'
CONST	ENDS
;	COMDAT ??1CNoTrackObject@@UAE@XZ
_TEXT	SEGMENT PARA USE32 PUBLIC 'CODE'
_TEXT	ENDS
;	COMDAT ??2CObject@@SGPAXI@Z
_TEXT	SEGMENT PARA USE32 PUBLIC 'CODE'
_TEXT	ENDS
;	COMDAT ??_7CCustomOccManager@@6B@
CONST	SEGMENT DWORD USE32 PUBLIC 'CONST'
CONST	ENDS
;	COMDAT ??0IUnknown@@QAE@XZ
_TEXT	SEGMENT PARA USE32 PUBLIC 'CODE'
_TEXT	ENDS
;	COMDAT ??_7XDocHostUIHandler@CCustomControlSite@@6B@
CONST	SEGMENT DWORD USE32 PUBLIC 'CONST'
CONST	ENDS
;	COMDAT ??_7XDocHostShowUI@CCustomControlSite@@6B@
CONST	SEGMENT DWORD USE32 PUBLIC 'CONST'
CONST	ENDS
;	COMDAT ??3CObject@@SGXPAX@Z
_TEXT	SEGMENT PARA USE32 PUBLIC 'CODE'
_TEXT	ENDS
;	COMDAT ??_7CCustomControlSite@@6B@
CONST	SEGMENT DWORD USE32 PUBLIC 'CONST'
CONST	ENDS
;	COMDAT ?c_bIsMFCDLLTraits@?$_MFCDLLTraitsCheck@_WV?$StrTraitATL@_WV?$ChTraitsCRT@_W@ATL@@@ATL@@@_CSTRING_IMPL_@ATL@@2_NB
CONST	SEGMENT DWORD USE32 PUBLIC 'CONST'
CONST	ENDS
;	COMDAT ?c_bIsMFCDLLTraits@?$_MFCDLLTraitsCheck@DV?$StrTraitATL@DV?$ChTraitsCRT@D@ATL@@@ATL@@@_CSTRING_IMPL_@ATL@@2_NB
CONST	SEGMENT DWORD USE32 PUBLIC 'CONST'
CONST	ENDS
;	COMDAT ?_AtlGetConversionACP@ATL@@YGIXZ
_TEXT	SEGMENT PARA USE32 PUBLIC 'CODE'
_TEXT	ENDS
;	COMDAT ?g_pfnGetThreadACP@ATL@@3P6GIXZA
_DATA	SEGMENT DWORD USE32 PUBLIC 'DATA'
_DATA	ENDS
;	COMDAT ?_AtlGetThreadACPThunk@ATL@@YGIXZ
_TEXT	SEGMENT PARA USE32 PUBLIC 'CODE'
_TEXT	ENDS
;	COMDAT ?_AtlGetThreadACPReal@ATL@@YGIXZ
_TEXT	SEGMENT PARA USE32 PUBLIC 'CODE'
_TEXT	ENDS
;	COMDAT ?_AtlGetThreadACPFake@ATL@@YGIXZ
_TEXT	SEGMENT PARA USE32 PUBLIC 'CODE'
_TEXT	ENDS
;	COMDAT ?InterlockedExchangePointer@@YGPAXPAPAXPAX@Z
_TEXT	SEGMENT PARA USE32 PUBLIC 'CODE'
_TEXT	ENDS
;	COMDAT ?_strthunks@ATL@@3U_AtlStringThunks@1@A
_DATA	SEGMENT DWORD USE32 PUBLIC 'DATA'
_DATA	ENDS
;	COMDAT ?CompareStringWThunk@ATL@@YGHKKPB_WH0H@Z
_TEXT	SEGMENT PARA USE32 PUBLIC 'CODE'
_TEXT	ENDS
;	COMDAT ?_AtlInstallStringThunk@ATL@@YAXPAPAXPAX1@Z
_TEXT	SEGMENT PARA USE32 PUBLIC 'CODE'
_TEXT	ENDS
;	COMDAT ??_B?1??_AtlInstallStringThunk@ATL@@YAXPAPAXPAX1@Z@51
_BSS	SEGMENT DWORD USE32 PUBLIC 'BSS'
_BSS	ENDS
;	COMDAT ?s_bWin9x@?1??_AtlInstallStringThunk@ATL@@YAXPAPAXPAX1@Z@4_NA
_BSS	SEGMENT DWORD USE32 PUBLIC 'BSS'
_BSS	ENDS
;	COMDAT ?CompareStringWFake@ATL@@YGHKKPB_WH0H@Z
_TEXT	SEGMENT PARA USE32 PUBLIC 'CODE'
_TEXT	ENDS
;	COMDAT ??0?$CAtlSafeAllocBufferManager@VCCRTAllocator@ATL@@@_ATL_SAFE_ALLOCA_IMPL@ATL@@QAE@XZ
_TEXT	SEGMENT PARA USE32 PUBLIC 'CODE'
_TEXT	ENDS
;	COMDAT ??1?$CAtlSafeAllocBufferManager@VCCRTAllocator@ATL@@@_ATL_SAFE_ALLOCA_IMPL@ATL@@QAE@XZ
_TEXT	SEGMENT PARA USE32 PUBLIC 'CODE'
_TEXT	ENDS
;	COMDAT ?Free@CCRTAllocator@ATL@@SAXPAX@Z
_TEXT	SEGMENT PARA USE32 PUBLIC 'CODE'
_TEXT	ENDS
;	COMDAT ?AtlW2AHelper@@YGPADPADPB_WHI@Z
_TEXT	SEGMENT PARA USE32 PUBLIC 'CODE'
_TEXT	ENDS
;	COMDAT ?_AtlVerifyStackAvailable@_ATL_SAFE_ALLOCA_IMPL@ATL@@YA_NK@Z
_TEXT	SEGMENT PARA USE32 PUBLIC 'CODE'
_TEXT	ENDS
;	COMDAT ?Allocate@?$CAtlSafeAllocBufferManager@VCCRTAllocator@ATL@@@_ATL_SAFE_ALLOCA_IMPL@ATL@@QAEPAXK@Z
_TEXT	SEGMENT PARA USE32 PUBLIC 'CODE'
_TEXT	ENDS
;	COMDAT ?Allocate@CCRTAllocator@ATL@@SAPAXI@Z
_TEXT	SEGMENT PARA USE32 PUBLIC 'CODE'
_TEXT	ENDS
;	COMDAT ?GetData@CAtlSafeAllocBufferNode@?$CAtlSafeAllocBufferManager@VCCRTAllocator@ATL@@@_ATL_SAFE_ALLOCA_IMPL@ATL@@QAEPAXXZ
_TEXT	SEGMENT PARA USE32 PUBLIC 'CODE'
_TEXT	ENDS
;	COMDAT ?GetStringTypeExWThunk@ATL@@YGHKKPB_WHPAG@Z
_TEXT	SEGMENT PARA USE32 PUBLIC 'CODE'
_TEXT	ENDS
;	COMDAT ?GetStringTypeExWFake@ATL@@YGHKKPB_WHPAG@Z
_TEXT	SEGMENT PARA USE32 PUBLIC 'CODE'
_TEXT	ENDS
;	COMDAT ??0?$CTempBuffer@D$0IA@VCCRTAllocator@ATL@@@ATL@@QAE@XZ
_TEXT	SEGMENT PARA USE32 PUBLIC 'CODE'
_TEXT	ENDS
;	COMDAT ??1?$CTempBuffer@D$0IA@VCCRTAllocator@ATL@@@ATL@@QAE@XZ
_TEXT	SEGMENT PARA USE32 PUBLIC 'CODE'
_TEXT	ENDS
;	COMDAT ?FreeHeap@?$CTempBuffer@D$0IA@VCCRTAllocator@ATL@@@ATL@@AAEXXZ
_TEXT	SEGMENT PARA USE32 PUBLIC 'CODE'
_TEXT	ENDS
;	COMDAT ?Allocate@?$CTempBuffer@D$0IA@VCCRTAllocator@ATL@@@ATL@@QAEPADI@Z
_TEXT	SEGMENT PARA USE32 PUBLIC 'CODE'
_TEXT	ENDS
;	COMDAT ?AllocateBytes@?$CTempBuffer@D$0IA@VCCRTAllocator@ATL@@@ATL@@QAEPADI@Z
_TEXT	SEGMENT PARA USE32 PUBLIC 'CODE'
_TEXT	ENDS
;	COMDAT ?AllocateHeap@?$CTempBuffer@D$0IA@VCCRTAllocator@ATL@@@ATL@@AAEXI@Z
_TEXT	SEGMENT PARA USE32 PUBLIC 'CODE'
_TEXT	ENDS
;	COMDAT ??B?$CTempBuffer@D$0IA@VCCRTAllocator@ATL@@@ATL@@QBEPADXZ
_TEXT	SEGMENT PARA USE32 PUBLIC 'CODE'
_TEXT	ENDS
;	COMDAT ?lstrcmpiWThunk@ATL@@YGHPB_W0@Z
_TEXT	SEGMENT PARA USE32 PUBLIC 'CODE'
_TEXT	ENDS
;	COMDAT ?lstrcmpiWFake@ATL@@YGHPB_W0@Z
_TEXT	SEGMENT PARA USE32 PUBLIC 'CODE'
_TEXT	ENDS
;	COMDAT ?CharLowerWThunk@ATL@@YGPA_WPA_W@Z
_TEXT	SEGMENT PARA USE32 PUBLIC 'CODE'
_TEXT	ENDS
;	COMDAT ?CharLowerWFake@ATL@@YGPA_WPA_W@Z
_TEXT	SEGMENT PARA USE32 PUBLIC 'CODE'
_TEXT	ENDS
;	COMDAT ?AtlA2WHelper@@YGPA_WPA_WPBDHI@Z
_TEXT	SEGMENT PARA USE32 PUBLIC 'CODE'
_TEXT	ENDS
;	COMDAT ?CharUpperWThunk@ATL@@YGPA_WPA_W@Z
_TEXT	SEGMENT PARA USE32 PUBLIC 'CODE'
_TEXT	ENDS
;	COMDAT ?CharUpperWFake@ATL@@YGPA_WPA_W@Z
_TEXT	SEGMENT PARA USE32 PUBLIC 'CODE'
_TEXT	ENDS
;	COMDAT ?GetEnvironmentVariableWThunk@ATL@@YGKPB_WPA_WK@Z
_TEXT	SEGMENT PARA USE32 PUBLIC 'CODE'
_TEXT	ENDS
;	COMDAT ?GetEnvironmentVariableWFake@ATL@@YGKPB_WPA_WK@Z
_TEXT	SEGMENT PARA USE32 PUBLIC 'CODE'
_TEXT	ENDS
;	COMDAT ??0?$CW2AEX@$0IA@@ATL@@QAE@PB_W@Z
_TEXT	SEGMENT PARA USE32 PUBLIC 'CODE'
_TEXT	ENDS
;	COMDAT ?Init@?$CW2AEX@$0IA@@ATL@@AAEXPB_WI@Z
_TEXT	SEGMENT PARA USE32 PUBLIC 'CODE'
_TEXT	ENDS
;	COMDAT ?AtlThrowLastWin32@ATL@@YGXXZ
_TEXT	SEGMENT PARA USE32 PUBLIC 'CODE'
_TEXT	ENDS
;	COMDAT ??1?$CW2AEX@$0IA@@ATL@@QAE@XZ
_TEXT	SEGMENT PARA USE32 PUBLIC 'CODE'
_TEXT	ENDS
;	COMDAT ??B?$CW2AEX@$0IA@@ATL@@QBEPADXZ
_TEXT	SEGMENT PARA USE32 PUBLIC 'CODE'
_TEXT	ENDS
;	COMDAT ?AddRef@CStringData@ATL@@QAEXXZ
_TEXT	SEGMENT PARA USE32 PUBLIC 'CODE'
_TEXT	ENDS
;	COMDAT ?SetManager@CNilStringData@ATL@@QAEXPAUIAtlStringMgr@2@@Z
_TEXT	SEGMENT PARA USE32 PUBLIC 'CODE'
_TEXT	ENDS
;	COMDAT ??0CNilStringData@ATL@@QAE@XZ
_TEXT	SEGMENT PARA USE32 PUBLIC 'CODE'
_TEXT	ENDS
;	COMDAT ??_7CAtlStringMgr@ATL@@6B@
CONST	SEGMENT DWORD USE32 PUBLIC 'CONST'
CONST	ENDS
;	COMDAT ??_7IAdData@@6B@
CONST	SEGMENT DWORD USE32 PUBLIC 'CONST'
CONST	ENDS
;	COMDAT ??_7IData@@6B@
CONST	SEGMENT DWORD USE32 PUBLIC 'CONST'
CONST	ENDS
;	COMDAT ?clsid@?1??GetClsid@CShockwaveFlash@@QAEABU_GUID@@XZ@4U3@B
CONST	SEGMENT DWORD USE32 PUBLIC 'CONST'
CONST	ENDS
;	COMDAT ??_7HTTPObserver@@6B@
CONST	SEGMENT DWORD USE32 PUBLIC 'CONST'
CONST	ENDS
sxdata	SEGMENT DWORD USE32 'SXDATA'
sxdata	ENDS
FLAT	GROUP _DATA, CONST, _BSS
	ASSUME	CS: FLAT, DS: FLAT, SS: FLAT
endif

INCLUDELIB MSVCRT
INCLUDELIB OLDNAMES

PUBLIC	?OnCreate@CGameCtrlWnd@@IAEHPAUtagCREATESTRUCTA@@@Z ; CGameCtrlWnd::OnCreate
PUBLIC	?OnClickedReplay@CGameCtrlWnd@@IAEXXZ		; CGameCtrlWnd::OnClickedReplay
PUBLIC	?OnClickedFullScreen@CGameCtrlWnd@@IAEXXZ	; CGameCtrlWnd::OnClickedFullScreen
PUBLIC	?OnClickedExitFullScreen@CGameCtrlWnd@@IAEXXZ	; CGameCtrlWnd::OnClickedExitFullScreen
PUBLIC	?OnClickedMute@CGameCtrlWnd@@IAEXXZ		; CGameCtrlWnd::OnClickedMute
PUBLIC	?OnClickedUnMute@CGameCtrlWnd@@IAEXXZ		; CGameCtrlWnd::OnClickedUnMute
PUBLIC	?OnClickedCut@CGameCtrlWnd@@IAEXXZ		; CGameCtrlWnd::OnClickedCut
PUBLIC	?OnShowWindow@CGameCtrlWnd@@IAEXHI@Z		; CGameCtrlWnd::OnShowWindow
PUBLIC	?_strthunks@ATL@@3U_AtlStringThunks@1@A		; ATL::_strthunks
PUBLIC	?c_bIsMFCDLLTraits@?$_MFCDLLTraitsCheck@DV?$StrTraitATL@DV?$ChTraitsCRT@D@ATL@@@ATL@@@_CSTRING_IMPL_@ATL@@2_NB ; ATL::_CSTRING_IMPL_::_MFCDLLTraitsCheck<char,ATL::StrTraitATL<char,ATL::ChTraitsCRT<char> > >::c_bIsMFCDLLTraits
PUBLIC	?GetEnvironmentVariableWThunk@ATL@@YGKPB_WPA_WK@Z ; ATL::GetEnvironmentVariableWThunk
PUBLIC	?CompareStringWThunk@ATL@@YGHKKPB_WH0H@Z	; ATL::CompareStringWThunk
PUBLIC	?GetStringTypeExWThunk@ATL@@YGHKKPB_WHPAG@Z	; ATL::GetStringTypeExWThunk
PUBLIC	?lstrcmpiWThunk@ATL@@YGHPB_W0@Z			; ATL::lstrcmpiWThunk
PUBLIC	?CharLowerWThunk@ATL@@YGPA_WPA_W@Z		; ATL::CharLowerWThunk
PUBLIC	?CharUpperWThunk@ATL@@YGPA_WPA_W@Z		; ATL::CharUpperWThunk
PUBLIC	?c_bIsMFCDLLTraits@?$_MFCDLLTraitsCheck@_WV?$StrTraitATL@_WV?$ChTraitsCRT@_W@ATL@@@ATL@@@_CSTRING_IMPL_@ATL@@2_NB ; ATL::_CSTRING_IMPL_::_MFCDLLTraitsCheck<wchar_t,ATL::StrTraitATL<wchar_t,ATL::ChTraitsCRT<wchar_t> > >::c_bIsMFCDLLTraits
PUBLIC	?g_pfnGetThreadACP@ATL@@3P6GIXZA		; ATL::g_pfnGetThreadACP
PUBLIC	?_AtlGetThreadACPThunk@ATL@@YGIXZ		; ATL::_AtlGetThreadACPThunk
PUBLIC	?classCGameCtrlWnd@CGameCtrlWnd@@2UCRuntimeClass@@B ; CGameCtrlWnd::classCGameCtrlWnd
PUBLIC	?_messageEntries@CGameCtrlWnd@@0QBUAFX_MSGMAP_ENTRY@@B ; CGameCtrlWnd::_messageEntries
PUBLIC	?messageMap@CGameCtrlWnd@@1UAFX_MSGMAP@@B	; CGameCtrlWnd::messageMap
EXTRN	?GetThisClass@CBasicWnd@@SGPAUCRuntimeClass@@XZ:NEAR ; CBasicWnd::GetThisClass
EXTRN	?GetThisMessageMap@CBasicWnd@@KGPBUAFX_MSGMAP@@XZ:NEAR ; CBasicWnd::GetThisMessageMap
;	COMDAT ?c_bIsMFCDLLTraits@?$_MFCDLLTraitsCheck@DV?$StrTraitATL@DV?$ChTraitsCRT@D@ATL@@@ATL@@@_CSTRING_IMPL_@ATL@@2_NB
CONST	SEGMENT
?c_bIsMFCDLLTraits@?$_MFCDLLTraitsCheck@DV?$StrTraitATL@DV?$ChTraitsCRT@D@ATL@@@ATL@@@_CSTRING_IMPL_@ATL@@2_NB DB 00H ; ATL::_CSTRING_IMPL_::_MFCDLLTraitsCheck<char,ATL::StrTraitATL<char,ATL::ChTraitsCRT<char> > >::c_bIsMFCDLLTraits
CONST	ENDS
;	COMDAT ?c_bIsMFCDLLTraits@?$_MFCDLLTraitsCheck@_WV?$StrTraitATL@_WV?$ChTraitsCRT@_W@ATL@@@ATL@@@_CSTRING_IMPL_@ATL@@2_NB
CONST	SEGMENT
?c_bIsMFCDLLTraits@?$_MFCDLLTraitsCheck@_WV?$StrTraitATL@_WV?$ChTraitsCRT@_W@ATL@@@ATL@@@_CSTRING_IMPL_@ATL@@2_NB DB 00H ; ATL::_CSTRING_IMPL_::_MFCDLLTraitsCheck<wchar_t,ATL::StrTraitATL<wchar_t,ATL::ChTraitsCRT<wchar_t> > >::c_bIsMFCDLLTraits
CONST	ENDS
CONST	SEGMENT
$SG204497 DB	'int', 00H
CONST	ENDS
_DATA	SEGMENT
_TYPE_CONFIG_INT DD FLAT:$SG204497
_DATA	ENDS
CONST	SEGMENT
$SG204499 DB	'str', 00H
CONST	ENDS
_DATA	SEGMENT
_TYPE_CONFIG_STR DD FLAT:$SG204499
_DATA	ENDS
CONST	SEGMENT
$SG204501 DB	'double', 00H
CONST	ENDS
_DATA	SEGMENT
_TYPE_CONFIG_DOUBLE DD FLAT:$SG204501
_DATA	ENDS
CONST	SEGMENT
	ORG $+1
$SG204503 DB	'bool', 00H
CONST	ENDS
_DATA	SEGMENT
_TYPE_CONFIG_BOOL DD FLAT:$SG204503
_DATA	ENDS
CONST	SEGMENT
	ORG $+3
$SG204505 DB	'sepint', 00H
CONST	ENDS
_DATA	SEGMENT
_TYPE_CONFIG_INT_HASSEP DD FLAT:$SG204505
_DATA	ENDS
CONST	SEGMENT
	ORG $+1
$SG204507 DB	'sepstr', 00H
CONST	ENDS
_DATA	SEGMENT
_TYPE_CONFIG_STR_HASSEP DD FLAT:$SG204507
_DATA	ENDS
CONST	SEGMENT
	ORG $+1
$SG204509 DB	'sepdouble', 00H
CONST	ENDS
_DATA	SEGMENT
_TYPE_CONFIG_DOUBLE_HASSEP DD FLAT:$SG204509
_DATA	ENDS
CONST	SEGMENT
	ORG $+2
$SG204511 DB	'sepbool', 00H
CONST	ENDS
_DATA	SEGMENT
_TYPE_CONFIG_BOOL_HASSEP DD FLAT:$SG204511
_DATA	ENDS
CONST	SEGMENT
$SG204513 DB	'App', 00H
CONST	ENDS
_DATA	SEGMENT
_CONF_APP_MODULE_NAME DD FLAT:$SG204513
_DATA	ENDS
CONST	SEGMENT
$SG204515 DB	'SwfPath', 00H
CONST	ENDS
_DATA	SEGMENT
_CONF_APP_SWF_PATH DD FLAT:$SG204515
_DATA	ENDS
CONST	SEGMENT
$SG204517 DB	'MainWndHold', 00H
CONST	ENDS
_DATA	SEGMENT
_CONF_APP_MAINWND_HOLD DD FLAT:$SG204517
_DATA	ENDS
CONST	SEGMENT
$SG204519 DB	'RunCount', 00H
CONST	ENDS
_DATA	SEGMENT
_CONF_APP_RUN_COUNT DD FLAT:$SG204519
_DATA	ENDS
CONST	SEGMENT
	ORG $+3
$SG204521 DB	'PlayedGame', 00H
CONST	ENDS
_DATA	SEGMENT
_CONF_APP_PLAYED_GAME DD FLAT:$SG204521
_DATA	ENDS
CONST	SEGMENT
	ORG $+1
$SG204523 DB	'playedPcGame', 00H
CONST	ENDS
_DATA	SEGMENT
_CONF_APP_PLAYED_PC_GAME DD FLAT:$SG204523
_DATA	ENDS
CONST	SEGMENT
	ORG $+3
$SG204525 DB	'PlayedIconSize', 00H
CONST	ENDS
_DATA	SEGMENT
_CONF_APP_PLAYED_ICON_SIZE DD FLAT:$SG204525
_DATA	ENDS
CONST	SEGMENT
	ORG $+1
$SG204527 DB	'PictureSavePath', 00H
CONST	ENDS
_DATA	SEGMENT
_CONF_APP_PIC_SAVE_PATH DD FLAT:$SG204527
_DATA	ENDS
CONST	SEGMENT
$SG204532 DB	'CGameCtrlWnd', 00H
CONST	ENDS
;	COMDAT ?classCGameCtrlWnd@CGameCtrlWnd@@2UCRuntimeClass@@B
CONST	SEGMENT
?classCGameCtrlWnd@CGameCtrlWnd@@2UCRuntimeClass@@B DD FLAT:$SG204532 ; CGameCtrlWnd::classCGameCtrlWnd
	DD	0118H
	DD	0ffffH
	DD	00H
	DD	FLAT:?GetThisClass@CBasicWnd@@SGPAUCRuntimeClass@@XZ
	DD	00H
	DD	00H
CONST	ENDS
;	COMDAT ?_messageEntries@CGameCtrlWnd@@0QBUAFX_MSGMAP_ENTRY@@B
CONST	SEGMENT
?_messageEntries@CGameCtrlWnd@@0QBUAFX_MSGMAP_ENTRY@@B DD 01H ; CGameCtrlWnd::_messageEntries
	DD	00H
	DD	00H
	DD	00H
	DD	0dH
	DD	FLAT:?OnCreate@CGameCtrlWnd@@IAEHPAUtagCREATESTRUCTA@@@Z
	DD	0111H
	DD	00H
	DD	076H
	DD	076H
	DD	035H
	DD	FLAT:?OnClickedReplay@CGameCtrlWnd@@IAEXXZ
	DD	0111H
	DD	00H
	DD	077H
	DD	077H
	DD	035H
	DD	FLAT:?OnClickedFullScreen@CGameCtrlWnd@@IAEXXZ
	DD	0111H
	DD	00H
	DD	081H
	DD	081H
	DD	035H
	DD	FLAT:?OnClickedExitFullScreen@CGameCtrlWnd@@IAEXXZ
	DD	0111H
	DD	00H
	DD	07fH
	DD	07fH
	DD	035H
	DD	FLAT:?OnClickedMute@CGameCtrlWnd@@IAEXXZ
	DD	0111H
	DD	00H
	DD	085H
	DD	085H
	DD	035H
	DD	FLAT:?OnClickedUnMute@CGameCtrlWnd@@IAEXXZ
	DD	0111H
	DD	00H
	DD	0fcH
	DD	0fcH
	DD	035H
	DD	FLAT:?OnClickedCut@CGameCtrlWnd@@IAEXXZ
	DD	018H
	DD	00H
	DD	00H
	DD	00H
	DD	012H
	DD	FLAT:?OnShowWindow@CGameCtrlWnd@@IAEXHI@Z
	DD	00H
	DD	00H
	DD	00H
	DD	00H
	DD	00H
	DD	00H
CONST	ENDS
;	COMDAT ?messageMap@CGameCtrlWnd@@1UAFX_MSGMAP@@B
CONST	SEGMENT
?messageMap@CGameCtrlWnd@@1UAFX_MSGMAP@@B DD FLAT:?GetThisMessageMap@CBasicWnd@@KGPBUAFX_MSGMAP@@XZ ; CGameCtrlWnd::messageMap
	DD	FLAT:?_messageEntries@CGameCtrlWnd@@0QBUAFX_MSGMAP_ENTRY@@B
CONST	ENDS
CONST	SEGMENT
	ORG $+3
$SG204636 DB	'===IN', 00H
	ORG $+2
$SG204637 DB	'CGameCtrlWnd::OnCreate', 00H
	ORG $+1
$SG204638 DB	'CGameCtrlWnd.txt', 00H
	ORG $+3
$SG204643 DB	'GameRePlay', 00H
	ORG $+1
$SG204645 DB	'ToFull', 00H
	ORG $+1
$SG204647 DB	'ExitFull', 00H
	ORG $+3
$SG204649 DB	'Mute', 00H
	ORG $+3
$SG204651 DB	'UnMute', 00H
	ORG $+1
$SG204653 DB	'Cut', 00H
$SG204656 DB	'normal', 00H
	ORG $+1
$SG204657 DB	'GameCtrl', 00H
	ORG $+3
$SG204660 DB	'normal', 00H
	ORG $+1
$SG204661 DB	'GameCtrl', 00H
	ORG $+3
$SG204664 DB	'===OUT', 00H
	ORG $+1
$SG204665 DB	'CGameCtrlWnd::OnCreate', 00H
	ORG $+1
$SG204666 DB	'CGameCtrlWnd.txt', 00H
	ORG $+3
$SG204672 DB	'===IN', 00H
	ORG $+2
$SG204673 DB	'CGameCtrlWnd::OnClickedReplay', 00H
	ORG $+2
$SG204674 DB	'CGameCtrlWnd.txt', 00H
	ORG $+3
$SG204677 DB	'===OUT', 00H
	ORG $+1
$SG204678 DB	'CGameCtrlWnd::OnClickedReplay', 00H
	ORG $+2
$SG204679 DB	'CGameCtrlWnd.txt', 00H
	ORG $+3
$SG204685 DB	'===IN', 00H
	ORG $+2
$SG204686 DB	'CGameCtrlWnd::OnClickedFullScreen', 00H
	ORG $+2
$SG204687 DB	'CGameCtrlWnd.txt', 00H
	ORG $+3
$SG204695 DB	'===OUT', 00H
	ORG $+1
$SG204696 DB	'CGameCtrlWnd::OnClickedFullScreen', 00H
	ORG $+2
$SG204697 DB	'CGameCtrlWnd.txt', 00H
	ORG $+3
$SG204703 DB	'===IN', 00H
	ORG $+2
$SG204704 DB	'CGameCtrlWnd::OnClickedFullScreen', 00H
	ORG $+2
$SG204705 DB	'CGameCtrlWnd.txt', 00H
	ORG $+3
$SG204713 DB	'===OUT', 00H
	ORG $+1
$SG204714 DB	'CGameCtrlWnd::OnClickedFullScreen', 00H
	ORG $+2
$SG204715 DB	'CGameCtrlWnd.txt', 00H
	ORG $+3
$SG204721 DB	'===IN', 00H
	ORG $+2
$SG204722 DB	'CGameCtrlWnd::UpdateAllWnd', 00H
	ORG $+1
$SG204723 DB	'CGameCtrlWnd.txt', 00H
	ORG $+3
$SG204731 DB	'===OUT', 00H
	ORG $+1
$SG204732 DB	'CGameCtrlWnd::UpdateAllWnd', 00H
	ORG $+1
$SG204733 DB	'CGameCtrlWnd.txt', 00H
	ORG $+3
$SG204739 DB	'===IN', 00H
	ORG $+2
$SG204740 DB	'CGameCtrlWnd::OnClickedMute', 00H
$SG204741 DB	'CGameCtrlWnd.txt', 00H
	ORG $+3
$SG204746 DB	'===OUT', 00H
	ORG $+1
$SG204747 DB	'CGameCtrlWnd::OnClickedMute', 00H
$SG204748 DB	'CGameCtrlWnd.txt', 00H
	ORG $+3
$SG204754 DB	'===IN', 00H
	ORG $+2
$SG204755 DB	'CGameCtrlWnd::OnClickedMute', 00H
$SG204756 DB	'CGameCtrlWnd.txt', 00H
	ORG $+3
$SG204761 DB	'===OUT', 00H
	ORG $+1
$SG204762 DB	'CGameCtrlWnd::OnClickedMute', 00H
$SG204763 DB	'CGameCtrlWnd.txt', 00H
CONST	ENDS
;	COMDAT ?g_pfnGetThreadACP@ATL@@3P6GIXZA
_DATA	SEGMENT
?g_pfnGetThreadACP@ATL@@3P6GIXZA DD FLAT:?_AtlGetThreadACPThunk@ATL@@YGIXZ ; ATL::g_pfnGetThreadACP
_DATA	ENDS
;	COMDAT ?_strthunks@ATL@@3U_AtlStringThunks@1@A
_DATA	SEGMENT
?_strthunks@ATL@@3U_AtlStringThunks@1@A DD FLAT:?CompareStringWThunk@ATL@@YGHKKPB_WH0H@Z ; ATL::_strthunks
	DD	FLAT:?GetStringTypeExWThunk@ATL@@YGHKKPB_WHPAG@Z
	DD	FLAT:?lstrcmpiWThunk@ATL@@YGHPB_W0@Z
	DD	FLAT:?CharLowerWThunk@ATL@@YGPA_WPA_W@Z
	DD	FLAT:?CharUpperWThunk@ATL@@YGPA_WPA_W@Z
	DD	FLAT:?GetEnvironmentVariableWThunk@ATL@@YGKPB_WPA_WK@Z
_DATA	ENDS
CONST	SEGMENT
	ORG $+3
_ID_DATA_PANELCHANGE DD 05H
CONST	ENDS
PUBLIC	?InterlockedExchangePointer@@YGPAXPAPAXPAX@Z	; InterlockedExchangePointer
PUBLIC	?_AtlGetThreadACPFake@ATL@@YGIXZ		; ATL::_AtlGetThreadACPFake
PUBLIC	?_AtlGetThreadACPReal@ATL@@YGIXZ		; ATL::_AtlGetThreadACPReal
EXTRN	__imp__GetVersionExA@4:NEAR
EXTRN	___security_cookie:DWORD
EXTRN	@__security_check_cookie@4:NEAR
; Function compile flags: /Odt
; File d:\program files (x86)\microsoft visual studio .net 2003\vc7\atlmfc\include\atlconv.h
;	COMDAT ?_AtlGetThreadACPThunk@ATL@@YGIXZ
_TEXT	SEGMENT
_pfnGetThreadACP$ = -164				; size = 4
_ver$ = -160						; size = 148
__$ArrayPad$ = -4					; size = 4
__$ReturnAddr$ = 4					; size = 4
?_AtlGetThreadACPThunk@ATL@@YGIXZ PROC NEAR		; ATL::_AtlGetThreadACPThunk, COMDAT

; 134  : {

  00000	55		 push	 ebp
  00001	8b ec		 mov	 ebp, esp
  00003	81 ec a4 00 00
	00		 sub	 esp, 164		; 000000a4H
  00009	a1 00 00 00 00	 mov	 eax, DWORD PTR ___security_cookie
  0000e	89 45 fc	 mov	 DWORD PTR __$ArrayPad$[ebp], eax

; 135  : 	OSVERSIONINFO ver;
; 136  : 	ATLGETTHREADACP pfnGetThreadACP;
; 137  : 
; 138  : 	ver.dwOSVersionInfoSize = sizeof( ver );

  00011	c7 85 60 ff ff
	ff 94 00 00 00	 mov	 DWORD PTR _ver$[ebp], 148 ; 00000094H

; 139  : 	::GetVersionEx( &ver );

  0001b	8d 85 60 ff ff
	ff		 lea	 eax, DWORD PTR _ver$[ebp]
  00021	50		 push	 eax
  00022	ff 15 00 00 00
	00		 call	 DWORD PTR __imp__GetVersionExA@4

; 140  : 	if( (ver.dwPlatformId == VER_PLATFORM_WIN32_NT) && (ver.dwMajorVersion >= 5) )

  00028	83 bd 70 ff ff
	ff 02		 cmp	 DWORD PTR _ver$[ebp+16], 2
  0002f	75 15		 jne	 SHORT $L24173
  00031	83 bd 64 ff ff
	ff 05		 cmp	 DWORD PTR _ver$[ebp+4], 5
  00038	72 0c		 jb	 SHORT $L24173

; 141  : 	{
; 142  : 		// On Win2K, CP_THREAD_ACP is supported
; 143  : 		pfnGetThreadACP = _AtlGetThreadACPReal;

  0003a	c7 85 5c ff ff
	ff 00 00 00 00	 mov	 DWORD PTR _pfnGetThreadACP$[ebp], OFFSET FLAT:?_AtlGetThreadACPReal@ATL@@YGIXZ ; ATL::_AtlGetThreadACPReal

; 144  : 	}
; 145  : 	else

  00044	eb 0a		 jmp	 SHORT $L24174
$L24173:

; 146  : 	{
; 147  : 		pfnGetThreadACP = _AtlGetThreadACPFake;

  00046	c7 85 5c ff ff
	ff 00 00 00 00	 mov	 DWORD PTR _pfnGetThreadACP$[ebp], OFFSET FLAT:?_AtlGetThreadACPFake@ATL@@YGIXZ ; ATL::_AtlGetThreadACPFake
$L24174:

; 148  : 	}
; 149  : 	InterlockedExchangePointer( reinterpret_cast< void** >(&g_pfnGetThreadACP), pfnGetThreadACP );

  00050	8b 8d 5c ff ff
	ff		 mov	 ecx, DWORD PTR _pfnGetThreadACP$[ebp]
  00056	51		 push	 ecx
  00057	68 00 00 00 00	 push	 OFFSET FLAT:?g_pfnGetThreadACP@ATL@@3P6GIXZA ; ATL::g_pfnGetThreadACP
  0005c	e8 00 00 00 00	 call	 ?InterlockedExchangePointer@@YGPAXPAPAXPAX@Z ; InterlockedExchangePointer

; 150  : 
; 151  : 	return( g_pfnGetThreadACP() );

  00061	ff 15 00 00 00
	00		 call	 DWORD PTR ?g_pfnGetThreadACP@ATL@@3P6GIXZA ; ATL::g_pfnGetThreadACP

; 152  : }

  00067	8b 4d fc	 mov	 ecx, DWORD PTR __$ArrayPad$[ebp]
  0006a	e8 00 00 00 00	 call	 @__security_check_cookie@4
  0006f	8b e5		 mov	 esp, ebp
  00071	5d		 pop	 ebp
  00072	c3		 ret	 0
?_AtlGetThreadACPThunk@ATL@@YGIXZ ENDP			; ATL::_AtlGetThreadACPThunk
_TEXT	ENDS
EXTRN	__imp__InterlockedExchange@8:NEAR
; Function compile flags: /Odt
;	COMDAT ?InterlockedExchangePointer@@YGPAXPAPAXPAX@Z
_TEXT	SEGMENT
_pp$ = 8						; size = 4
_pNew$ = 12						; size = 4
?InterlockedExchangePointer@@YGPAXPAPAXPAX@Z PROC NEAR	; InterlockedExchangePointer, COMDAT

; 91   : {

  00000	55		 push	 ebp
  00001	8b ec		 mov	 ebp, esp

; 92   : 	return( reinterpret_cast<void*>(static_cast<LONG_PTR>(::InterlockedExchange(reinterpret_cast<LONG*>(pp), static_cast<LONG>(reinterpret_cast<LONG_PTR>(pNew))))) );

  00003	8b 45 0c	 mov	 eax, DWORD PTR _pNew$[ebp]
  00006	50		 push	 eax
  00007	8b 4d 08	 mov	 ecx, DWORD PTR _pp$[ebp]
  0000a	51		 push	 ecx
  0000b	ff 15 00 00 00
	00		 call	 DWORD PTR __imp__InterlockedExchange@8

; 93   : }

  00011	5d		 pop	 ebp
  00012	c2 08 00	 ret	 8
?InterlockedExchangePointer@@YGPAXPAPAXPAX@Z ENDP	; InterlockedExchangePointer
_TEXT	ENDS
EXTRN	__imp__GetACP@0:NEAR
EXTRN	__imp__GetLocaleInfoA@16:NEAR
EXTRN	__imp__GetThreadLocale@0:NEAR
; Function compile flags: /Odt
;	COMDAT ?_AtlGetThreadACPFake@ATL@@YGIXZ
_TEXT	SEGMENT
_pch$24161 = -24					; size = 4
_lcidThread$ = -20					; size = 4
_szACP$ = -16						; size = 7
__$ArrayPad$ = -8					; size = 4
_nACP$ = -4						; size = 4
__$ReturnAddr$ = 4					; size = 4
?_AtlGetThreadACPFake@ATL@@YGIXZ PROC NEAR		; ATL::_AtlGetThreadACPFake, COMDAT

; 101  : {

  00000	55		 push	 ebp
  00001	8b ec		 mov	 ebp, esp
  00003	83 ec 18	 sub	 esp, 24			; 00000018H
  00006	a1 00 00 00 00	 mov	 eax, DWORD PTR ___security_cookie
  0000b	89 45 f8	 mov	 DWORD PTR __$ArrayPad$[ebp], eax

; 102  : 	UINT nACP = 0;

  0000e	c7 45 fc 00 00
	00 00		 mov	 DWORD PTR _nACP$[ebp], 0

; 103  : 
; 104  : 	LCID lcidThread = ::GetThreadLocale();

  00015	ff 15 00 00 00
	00		 call	 DWORD PTR __imp__GetThreadLocale@0
  0001b	89 45 ec	 mov	 DWORD PTR _lcidThread$[ebp], eax

; 105  : 
; 106  : 	char szACP[7];
; 107  : 	// GetLocaleInfoA will fail for a Unicode-only LCID, but those are only supported on 
; 108  : 	// Windows 2000.  Since Windows 2000 supports CP_THREAD_ACP, this code path is never
; 109  : 	// executed on Windows 2000.
; 110  : 	if (::GetLocaleInfoA(lcidThread, LOCALE_IDEFAULTANSICODEPAGE, szACP, 7) != 0)

  0001e	6a 07		 push	 7
  00020	8d 45 f0	 lea	 eax, DWORD PTR _szACP$[ebp]
  00023	50		 push	 eax
  00024	68 04 10 00 00	 push	 4100			; 00001004H
  00029	8b 4d ec	 mov	 ecx, DWORD PTR _lcidThread$[ebp]
  0002c	51		 push	 ecx
  0002d	ff 15 00 00 00
	00		 call	 DWORD PTR __imp__GetLocaleInfoA@16
  00033	85 c0		 test	 eax, eax
  00035	74 34		 je	 SHORT $L24160

; 111  : 	{
; 112  : 		char* pch = szACP;

  00037	8d 55 f0	 lea	 edx, DWORD PTR _szACP$[ebp]
  0003a	89 55 e8	 mov	 DWORD PTR _pch$24161[ebp], edx
$L24163:

; 113  : 		while (*pch != '\0')

  0003d	8b 45 e8	 mov	 eax, DWORD PTR _pch$24161[ebp]
  00040	0f be 08	 movsx	 ecx, BYTE PTR [eax]
  00043	85 c9		 test	 ecx, ecx
  00045	74 24		 je	 SHORT $L24160

; 114  : 		{
; 115  : 			nACP *= 10;

  00047	8b 55 fc	 mov	 edx, DWORD PTR _nACP$[ebp]
  0004a	6b d2 0a	 imul	 edx, 10			; 0000000aH
  0004d	89 55 fc	 mov	 DWORD PTR _nACP$[ebp], edx

; 116  : 			nACP += *pch++ - '0';

  00050	8b 45 e8	 mov	 eax, DWORD PTR _pch$24161[ebp]
  00053	0f be 08	 movsx	 ecx, BYTE PTR [eax]
  00056	8b 55 fc	 mov	 edx, DWORD PTR _nACP$[ebp]
  00059	8d 44 0a d0	 lea	 eax, DWORD PTR [edx+ecx-48]
  0005d	89 45 fc	 mov	 DWORD PTR _nACP$[ebp], eax
  00060	8b 4d e8	 mov	 ecx, DWORD PTR _pch$24161[ebp]
  00063	83 c1 01	 add	 ecx, 1
  00066	89 4d e8	 mov	 DWORD PTR _pch$24161[ebp], ecx

; 117  : 		}

  00069	eb d2		 jmp	 SHORT $L24163
$L24160:

; 118  : 	}
; 119  : 	// Use the Default ANSI Code Page if we were unable to get the thread ACP or if one does not exist.
; 120  : 	if (nACP == 0)

  0006b	83 7d fc 00	 cmp	 DWORD PTR _nACP$[ebp], 0
  0006f	75 09		 jne	 SHORT $L24165

; 121  : 		nACP = ::GetACP();

  00071	ff 15 00 00 00
	00		 call	 DWORD PTR __imp__GetACP@0
  00077	89 45 fc	 mov	 DWORD PTR _nACP$[ebp], eax
$L24165:

; 122  : 
; 123  : 	return nACP;

  0007a	8b 45 fc	 mov	 eax, DWORD PTR _nACP$[ebp]

; 124  : }

  0007d	8b 4d f8	 mov	 ecx, DWORD PTR __$ArrayPad$[ebp]
  00080	e8 00 00 00 00	 call	 @__security_check_cookie@4
  00085	8b e5		 mov	 esp, ebp
  00087	5d		 pop	 ebp
  00088	c3		 ret	 0
?_AtlGetThreadACPFake@ATL@@YGIXZ ENDP			; ATL::_AtlGetThreadACPFake
; Function compile flags: /Odt
_TEXT	ENDS
;	COMDAT ?_AtlGetThreadACPReal@ATL@@YGIXZ
_TEXT	SEGMENT
?_AtlGetThreadACPReal@ATL@@YGIXZ PROC NEAR		; ATL::_AtlGetThreadACPReal, COMDAT

; 127  : {

  00000	55		 push	 ebp
  00001	8b ec		 mov	 ebp, esp

; 128  : 	return( CP_THREAD_ACP );

  00003	b8 03 00 00 00	 mov	 eax, 3

; 129  : }

  00008	5d		 pop	 ebp
  00009	c3		 ret	 0
?_AtlGetThreadACPReal@ATL@@YGIXZ ENDP			; ATL::_AtlGetThreadACPReal
_TEXT	ENDS
PUBLIC	?GetThisClass@CGameCtrlWnd@@SGPAUCRuntimeClass@@XZ ; CGameCtrlWnd::GetThisClass
; Function compile flags: /Odt
; File d:\boxgit\playbox\playbox\dev\prj\playbox\src\module\gamepanel\gamectrlwnd.cpp
_TEXT	SEGMENT
?GetThisClass@CGameCtrlWnd@@SGPAUCRuntimeClass@@XZ PROC NEAR ; CGameCtrlWnd::GetThisClass

; 15   : IMPLEMENT_DYNAMIC(CGameCtrlWnd, CBasicWnd)

  00000	55		 push	 ebp
  00001	8b ec		 mov	 ebp, esp
  00003	b8 00 00 00 00	 mov	 eax, OFFSET FLAT:?classCGameCtrlWnd@CGameCtrlWnd@@2UCRuntimeClass@@B ; CGameCtrlWnd::classCGameCtrlWnd
  00008	5d		 pop	 ebp
  00009	c3		 ret	 0
?GetThisClass@CGameCtrlWnd@@SGPAUCRuntimeClass@@XZ ENDP	; CGameCtrlWnd::GetThisClass
_TEXT	ENDS
PUBLIC	?GetRuntimeClass@CGameCtrlWnd@@UBEPAUCRuntimeClass@@XZ ; CGameCtrlWnd::GetRuntimeClass
; Function compile flags: /Odt
_TEXT	SEGMENT
_this$ = -4						; size = 4
?GetRuntimeClass@CGameCtrlWnd@@UBEPAUCRuntimeClass@@XZ PROC NEAR ; CGameCtrlWnd::GetRuntimeClass
; _this$ = ecx

; 15   : IMPLEMENT_DYNAMIC(CGameCtrlWnd, CBasicWnd)

  00010	55		 push	 ebp
  00011	8b ec		 mov	 ebp, esp
  00013	51		 push	 ecx
  00014	89 4d fc	 mov	 DWORD PTR _this$[ebp], ecx
  00017	b8 00 00 00 00	 mov	 eax, OFFSET FLAT:?classCGameCtrlWnd@CGameCtrlWnd@@2UCRuntimeClass@@B ; CGameCtrlWnd::classCGameCtrlWnd
  0001c	8b e5		 mov	 esp, ebp
  0001e	5d		 pop	 ebp
  0001f	c3		 ret	 0
?GetRuntimeClass@CGameCtrlWnd@@UBEPAUCRuntimeClass@@XZ ENDP ; CGameCtrlWnd::GetRuntimeClass
_TEXT	ENDS
PUBLIC	??0SWF_GAME@@QAE@XZ				; SWF_GAME::SWF_GAME
PUBLIC	??1SWF_GAME@@QAE@XZ				; SWF_GAME::~SWF_GAME
PUBLIC	??_7CGameCtrlWnd@@6B@				; CGameCtrlWnd::`vftable'
PUBLIC	??_GCGameCtrlWnd@@UAEPAXI@Z			; CGameCtrlWnd::`scalar deleting destructor'
PUBLIC	??_R4CGameCtrlWnd@@6B@				; CGameCtrlWnd::`RTTI Complete Object Locator'
PUBLIC	??_R0?AVCGameCtrlWnd@@@8			; CGameCtrlWnd `RTTI Type Descriptor'
PUBLIC	??_R3CGameCtrlWnd@@8				; CGameCtrlWnd::`RTTI Class Hierarchy Descriptor'
PUBLIC	??_R2CGameCtrlWnd@@8				; CGameCtrlWnd::`RTTI Base Class Array'
PUBLIC	??_R1A@?0A@A@CGameCtrlWnd@@8			; CGameCtrlWnd::`RTTI Base Class Descriptor at (0,-1,0,0)'
PUBLIC	??_R1A@?0A@A@CBasicWnd@@8			; CBasicWnd::`RTTI Base Class Descriptor at (0,-1,0,0)'
PUBLIC	??_R0?AVCBasicWnd@@@8				; CBasicWnd `RTTI Type Descriptor'
PUBLIC	??_R1A@?0A@A@CObject@@8				; CObject::`RTTI Base Class Descriptor at (0,-1,0,0)'
PUBLIC	??_R0?AVCObject@@@8				; CObject `RTTI Type Descriptor'
PUBLIC	??_R1A@?0A@A@CWnd@@8				; CWnd::`RTTI Base Class Descriptor at (0,-1,0,0)'
PUBLIC	??_R0?AVCWnd@@@8				; CWnd `RTTI Type Descriptor'
PUBLIC	??_R1A@?0A@A@CCmdTarget@@8			; CCmdTarget::`RTTI Base Class Descriptor at (0,-1,0,0)'
PUBLIC	??_R0?AVCCmdTarget@@@8				; CCmdTarget `RTTI Type Descriptor'
PUBLIC	??2CObject@@SGPAXI@Z				; CObject::operator new
PUBLIC	??3CObject@@SGXPAX@Z				; CObject::operator delete
PUBLIC	?Serialize@CObject@@UAEXAAVCArchive@@@Z		; CObject::Serialize
PUBLIC	?AssertValid@CObject@@UBEXXZ			; CObject::AssertValid
PUBLIC	?Dump@CObject@@UBEXAAVCDumpContext@@@Z		; CObject::Dump
PUBLIC	?DoDataExchange@CWnd@@MAEXPAVCDataExchange@@@Z	; CWnd::DoDataExchange
PUBLIC	?BeginModalState@CWnd@@UAEXXZ			; CWnd::BeginModalState
PUBLIC	?EndModalState@CWnd@@UAEXXZ			; CWnd::EndModalState
PUBLIC	??0CGameCtrlWnd@@QAE@XZ				; CGameCtrlWnd::CGameCtrlWnd
PUBLIC	?GetMessageMap@CGameCtrlWnd@@MBEPBUAFX_MSGMAP@@XZ ; CGameCtrlWnd::GetMessageMap
EXTRN	??_ECGameCtrlWnd@@UAEPAXI@Z:NEAR		; CGameCtrlWnd::`vector deleting destructor'
EXTRN	?CreateControlContainer@CWnd@@MAEHPAPAVCOleControlContainer@@@Z:NEAR ; CWnd::CreateControlContainer
EXTRN	?CreateControlSite@CWnd@@MAEHPAVCOleControlContainer@@PAPAVCOleControlSite@@IABU_GUID@@@Z:NEAR ; CWnd::CreateControlSite
EXTRN	?SetOccDialogInfo@CWnd@@MAEHPAU_AFX_OCC_DIALOG_INFO@@@Z:NEAR ; CWnd::SetOccDialogInfo
EXTRN	?OnToolHitTest@CWnd@@UBEHVCPoint@@PAUtagTOOLINFOA@@@Z:NEAR ; CWnd::OnToolHitTest
EXTRN	??0CxSkinButton@@QAE@XZ:NEAR			; CxSkinButton::CxSkinButton
EXTRN	?GetScrollBarCtrl@CWnd@@UBEPAVCScrollBar@@H@Z:NEAR ; CWnd::GetScrollBarCtrl
EXTRN	?WinHelpA@CWnd@@UAEXKI@Z:NEAR			; CWnd::WinHelpA
EXTRN	?HtmlHelpA@CWnd@@UAEXKI@Z:NEAR			; CWnd::HtmlHelpA
EXTRN	?WinHelpInternal@CWnd@@UAEXKI@Z:NEAR		; CWnd::WinHelpInternal
EXTRN	?ContinueModal@CWnd@@UAEHXZ:NEAR		; CWnd::ContinueModal
EXTRN	?EndModalLoop@CWnd@@UAEXH@Z:NEAR		; CWnd::EndModalLoop
EXTRN	?GetInterfaceMap@CWnd@@MBEPBUAFX_INTERFACEMAP@@XZ:NEAR ; CWnd::GetInterfaceMap
EXTRN	?EnsureStdObj@CWnd@@UAEJXZ:NEAR			; CWnd::EnsureStdObj
EXTRN	?get_accParent@CWnd@@UAEJPAPAUIDispatch@@@Z:NEAR ; CWnd::get_accParent
EXTRN	?get_accChildCount@CWnd@@UAEJPAJ@Z:NEAR		; CWnd::get_accChildCount
EXTRN	?OnCmdMsg@CCmdTarget@@UAEHIHPAXPAUAFX_CMDHANDLERINFO@@@Z:NEAR ; CCmdTarget::OnCmdMsg
EXTRN	?get_accChild@CWnd@@UAEJUtagVARIANT@@PAPAUIDispatch@@@Z:NEAR ; CWnd::get_accChild
EXTRN	?IsInvokeAllowed@CCmdTarget@@UAEHJ@Z:NEAR	; CCmdTarget::IsInvokeAllowed
EXTRN	?get_accName@CWnd@@UAEJUtagVARIANT@@PAPA_W@Z:NEAR ; CWnd::get_accName
EXTRN	?get_accValue@CWnd@@UAEJUtagVARIANT@@PAPA_W@Z:NEAR ; CWnd::get_accValue
EXTRN	?get_accDescription@CWnd@@UAEJUtagVARIANT@@PAPA_W@Z:NEAR ; CWnd::get_accDescription
EXTRN	?GetDispatchIID@CCmdTarget@@UAEHPAU_GUID@@@Z:NEAR ; CCmdTarget::GetDispatchIID
EXTRN	?GetTypeInfoCount@CCmdTarget@@UAEIXZ:NEAR	; CCmdTarget::GetTypeInfoCount
EXTRN	?GetTypeLibCache@CCmdTarget@@UAEPAVCTypeLibCache@@XZ:NEAR ; CCmdTarget::GetTypeLibCache
EXTRN	?get_accRole@CWnd@@UAEJUtagVARIANT@@PAU2@@Z:NEAR ; CWnd::get_accRole
EXTRN	?GetTypeLib@CCmdTarget@@UAEJKPAPAUITypeLib@@@Z:NEAR ; CCmdTarget::GetTypeLib
EXTRN	?get_accState@CWnd@@UAEJUtagVARIANT@@PAU2@@Z:NEAR ; CWnd::get_accState
EXTRN	?get_accHelp@CWnd@@UAEJUtagVARIANT@@PAPA_W@Z:NEAR ; CWnd::get_accHelp
EXTRN	?get_accHelpTopic@CWnd@@UAEJPAPA_WUtagVARIANT@@PAJ@Z:NEAR ; CWnd::get_accHelpTopic
EXTRN	?get_accKeyboardShortcut@CWnd@@UAEJUtagVARIANT@@PAPA_W@Z:NEAR ; CWnd::get_accKeyboardShortcut
EXTRN	?get_accFocus@CWnd@@UAEJPAUtagVARIANT@@@Z:NEAR	; CWnd::get_accFocus
EXTRN	?get_accSelection@CWnd@@UAEJPAUtagVARIANT@@@Z:NEAR ; CWnd::get_accSelection
EXTRN	?get_accDefaultAction@CWnd@@UAEJUtagVARIANT@@PAPA_W@Z:NEAR ; CWnd::get_accDefaultAction
EXTRN	?GetCommandMap@CCmdTarget@@MBEPBUAFX_OLECMDMAP@@XZ:NEAR ; CCmdTarget::GetCommandMap
EXTRN	?accSelect@CWnd@@UAEJJUtagVARIANT@@@Z:NEAR	; CWnd::accSelect
EXTRN	?accLocation@CWnd@@UAEJPAJ000UtagVARIANT@@@Z:NEAR ; CWnd::accLocation
EXTRN	?GetDispatchMap@CCmdTarget@@MBEPBUAFX_DISPMAP@@XZ:NEAR ; CCmdTarget::GetDispatchMap
EXTRN	?accNavigate@CWnd@@UAEJJUtagVARIANT@@PAU2@@Z:NEAR ; CWnd::accNavigate
EXTRN	?accHitTest@CWnd@@UAEJJJPAUtagVARIANT@@@Z:NEAR	; CWnd::accHitTest
EXTRN	?GetConnectionMap@CCmdTarget@@MBEPBUAFX_CONNECTIONMAP@@XZ:NEAR ; CCmdTarget::GetConnectionMap
EXTRN	?accDoDefaultAction@CWnd@@UAEJUtagVARIANT@@@Z:NEAR ; CWnd::accDoDefaultAction
EXTRN	?put_accName@CWnd@@UAEJUtagVARIANT@@PA_W@Z:NEAR	; CWnd::put_accName
EXTRN	?put_accValue@CWnd@@UAEJUtagVARIANT@@PA_W@Z:NEAR ; CWnd::put_accValue
EXTRN	?SetProxy@CWnd@@UAEJPAUIAccessibleProxy@@@Z:NEAR ; CWnd::SetProxy
EXTRN	?CreateAccessibleProxy@CWnd@@UAEJIJPAJ@Z:NEAR	; CWnd::CreateAccessibleProxy
EXTRN	?GetEventSinkMap@CCmdTarget@@MBEPBUAFX_EVENTSINKMAP@@XZ:NEAR ; CCmdTarget::GetEventSinkMap
EXTRN	?OnCreateAggregates@CCmdTarget@@UAEHXZ:NEAR	; CCmdTarget::OnCreateAggregates
EXTRN	?OnCommand@CWnd@@MAEHIJ@Z:NEAR			; CWnd::OnCommand
EXTRN	?GetInterfaceHook@CCmdTarget@@UAEPAUIUnknown@@PBX@Z:NEAR ; CCmdTarget::GetInterfaceHook
EXTRN	?OnNotify@CWnd@@MAEHIJPAJ@Z:NEAR		; CWnd::OnNotify
EXTRN	?GetExtraConnectionPoints@CCmdTarget@@MAEHPAVCPtrArray@@@Z:NEAR ; CCmdTarget::GetExtraConnectionPoints
EXTRN	?GetConnectionHook@CCmdTarget@@MAEPAUIConnectionPoint@@ABU_GUID@@@Z:NEAR ; CCmdTarget::GetConnectionHook
EXTRN	??0CBasicWnd@@QAE@XZ:NEAR			; CBasicWnd::CBasicWnd
EXTRN	??1CBasicWnd@@UAE@XZ:NEAR			; CBasicWnd::~CBasicWnd
EXTRN	__except_list:DWORD
EXTRN	___CxxFrameHandler:NEAR
EXTRN	?PreSubclassWindow@CWnd@@UAEXXZ:NEAR		; CWnd::PreSubclassWindow
EXTRN	?Create@CWnd@@UAEHPBD0KABUtagRECT@@PAV1@IPAUCCreateContext@@@Z:NEAR ; CWnd::Create
EXTRN	__imp_??0?$basic_string@DU?$char_traits@D@std@@V?$allocator@D@2@@std@@QAE@XZ:NEAR
EXTRN	?CreateEx@CWnd@@UAEHKPBD0KHHHHPAUHWND__@@PAUHMENU__@@PAX@Z:NEAR ; CWnd::CreateEx
EXTRN	?CreateEx@CWnd@@UAEHKPBD0KABUtagRECT@@PAV1@IPAX@Z:NEAR ; CWnd::CreateEx
EXTRN	?DestroyWindow@CWnd@@UAEHXZ:NEAR		; CWnd::DestroyWindow
EXTRN	?PreCreateWindow@CWnd@@UAEHAAUtagCREATESTRUCTA@@@Z:NEAR ; CWnd::PreCreateWindow
EXTRN	?CalcWindowRect@CWnd@@UAEXPAUtagRECT@@I@Z:NEAR	; CWnd::CalcWindowRect
EXTRN	__imp_??1?$basic_string@DU?$char_traits@D@std@@V?$allocator@D@2@@std@@QAE@XZ:NEAR
EXTRN	?GetSuperWndProcAddr@CWnd@@MAEPAP6GJPAUHWND__@@IIJ@ZXZ:NEAR ; CWnd::GetSuperWndProcAddr
EXTRN	??_7type_info@@6B@:QWORD			; type_info::`vftable'
EXTRN	?PreTranslateMessage@CWnd@@UAEHPAUtagMSG@@@Z:NEAR ; CWnd::PreTranslateMessage
EXTRN	?OnAmbientProperty@CWnd@@UAEHPAVCOleControlSite@@JPAUtagVARIANT@@@Z:NEAR ; CWnd::OnAmbientProperty
EXTRN	?WindowProc@CWnd@@MAEJIIJ@Z:NEAR		; CWnd::WindowProc
EXTRN	?OnWndMsg@CWnd@@MAEHIIJPAJ@Z:NEAR		; CWnd::OnWndMsg
EXTRN	?DefWindowProcA@CWnd@@MAEJIIJ@Z:NEAR		; CWnd::DefWindowProcA
EXTRN	?PostNcDestroy@CWnd@@MAEXXZ:NEAR		; CWnd::PostNcDestroy
EXTRN	?OnChildNotify@CWnd@@MAEHIIJPAJ@Z:NEAR		; CWnd::OnChildNotify
EXTRN	?CheckAutoCenter@CWnd@@UAEHXZ:NEAR		; CWnd::CheckAutoCenter
EXTRN	?IsFrameWnd@CWnd@@UBEHXZ:NEAR			; CWnd::IsFrameWnd
EXTRN	?OnFinalRelease@CWnd@@UAEXXZ:NEAR		; CWnd::OnFinalRelease
xdata$x	SEGMENT
$T205625 DD	0ffffffffH
	DD	FLAT:$L205610
	DD	00H
	DD	FLAT:$L205611
	DD	01H
	DD	FLAT:$L205612
	DD	02H
	DD	FLAT:$L205613
	DD	02H
	DD	FLAT:$L205614
	DD	02H
	DD	FLAT:$L205615
	DD	02H
	DD	FLAT:$L205616
	DD	02H
	DD	FLAT:$L205617
	DD	02H
	DD	FLAT:$L205618
$T205622 DD	019930520H
	DD	09H
	DD	FLAT:$T205625
	DD	2 DUP(00H)
	DD	2 DUP(00H)
xdata$x	ENDS
;	COMDAT ??_7CGameCtrlWnd@@6B@
CONST	SEGMENT
??_7CGameCtrlWnd@@6B@ DD FLAT:??_R4CGameCtrlWnd@@6B@	; CGameCtrlWnd::`vftable'
	DD	FLAT:?GetRuntimeClass@CGameCtrlWnd@@UBEPAUCRuntimeClass@@XZ
	DD	FLAT:??_ECGameCtrlWnd@@UAEPAXI@Z
	DD	FLAT:?Serialize@CObject@@UAEXAAVCArchive@@@Z
	DD	FLAT:?AssertValid@CObject@@UBEXXZ
	DD	FLAT:?Dump@CObject@@UBEXAAVCDumpContext@@@Z
	DD	FLAT:?OnCmdMsg@CCmdTarget@@UAEHIHPAXPAUAFX_CMDHANDLERINFO@@@Z
	DD	FLAT:?OnFinalRelease@CWnd@@UAEXXZ
	DD	FLAT:?IsInvokeAllowed@CCmdTarget@@UAEHJ@Z
	DD	FLAT:?GetDispatchIID@CCmdTarget@@UAEHPAU_GUID@@@Z
	DD	FLAT:?GetTypeInfoCount@CCmdTarget@@UAEIXZ
	DD	FLAT:?GetTypeLibCache@CCmdTarget@@UAEPAVCTypeLibCache@@XZ
	DD	FLAT:?GetTypeLib@CCmdTarget@@UAEJKPAPAUITypeLib@@@Z
	DD	FLAT:?GetMessageMap@CGameCtrlWnd@@MBEPBUAFX_MSGMAP@@XZ
	DD	FLAT:?GetCommandMap@CCmdTarget@@MBEPBUAFX_OLECMDMAP@@XZ
	DD	FLAT:?GetDispatchMap@CCmdTarget@@MBEPBUAFX_DISPMAP@@XZ
	DD	FLAT:?GetConnectionMap@CCmdTarget@@MBEPBUAFX_CONNECTIONMAP@@XZ
	DD	FLAT:?GetInterfaceMap@CWnd@@MBEPBUAFX_INTERFACEMAP@@XZ
	DD	FLAT:?GetEventSinkMap@CCmdTarget@@MBEPBUAFX_EVENTSINKMAP@@XZ
	DD	FLAT:?OnCreateAggregates@CCmdTarget@@UAEHXZ
	DD	FLAT:?GetInterfaceHook@CCmdTarget@@UAEPAUIUnknown@@PBX@Z
	DD	FLAT:?GetExtraConnectionPoints@CCmdTarget@@MAEHPAVCPtrArray@@@Z
	DD	FLAT:?GetConnectionHook@CCmdTarget@@MAEPAUIConnectionPoint@@ABU_GUID@@@Z
	DD	FLAT:?PreSubclassWindow@CWnd@@UAEXXZ
	DD	FLAT:?Create@CWnd@@UAEHPBD0KABUtagRECT@@PAV1@IPAUCCreateContext@@@Z
	DD	FLAT:?CreateEx@CWnd@@UAEHKPBD0KABUtagRECT@@PAV1@IPAX@Z
	DD	FLAT:?CreateEx@CWnd@@UAEHKPBD0KHHHHPAUHWND__@@PAUHMENU__@@PAX@Z
	DD	FLAT:?DestroyWindow@CWnd@@UAEHXZ
	DD	FLAT:?PreCreateWindow@CWnd@@UAEHAAUtagCREATESTRUCTA@@@Z
	DD	FLAT:?CalcWindowRect@CWnd@@UAEXPAUtagRECT@@I@Z
	DD	FLAT:?OnToolHitTest@CWnd@@UBEHVCPoint@@PAUtagTOOLINFOA@@@Z
	DD	FLAT:?GetScrollBarCtrl@CWnd@@UBEPAVCScrollBar@@H@Z
	DD	FLAT:?WinHelpA@CWnd@@UAEXKI@Z
	DD	FLAT:?HtmlHelpA@CWnd@@UAEXKI@Z
	DD	FLAT:?WinHelpInternal@CWnd@@UAEXKI@Z
	DD	FLAT:?ContinueModal@CWnd@@UAEHXZ
	DD	FLAT:?EndModalLoop@CWnd@@UAEXH@Z
	DD	FLAT:?EnsureStdObj@CWnd@@UAEJXZ
	DD	FLAT:?get_accParent@CWnd@@UAEJPAPAUIDispatch@@@Z
	DD	FLAT:?get_accChildCount@CWnd@@UAEJPAJ@Z
	DD	FLAT:?get_accChild@CWnd@@UAEJUtagVARIANT@@PAPAUIDispatch@@@Z
	DD	FLAT:?get_accName@CWnd@@UAEJUtagVARIANT@@PAPA_W@Z
	DD	FLAT:?get_accValue@CWnd@@UAEJUtagVARIANT@@PAPA_W@Z
	DD	FLAT:?get_accDescription@CWnd@@UAEJUtagVARIANT@@PAPA_W@Z
	DD	FLAT:?get_accRole@CWnd@@UAEJUtagVARIANT@@PAU2@@Z
	DD	FLAT:?get_accState@CWnd@@UAEJUtagVARIANT@@PAU2@@Z
	DD	FLAT:?get_accHelp@CWnd@@UAEJUtagVARIANT@@PAPA_W@Z
	DD	FLAT:?get_accHelpTopic@CWnd@@UAEJPAPA_WUtagVARIANT@@PAJ@Z
	DD	FLAT:?get_accKeyboardShortcut@CWnd@@UAEJUtagVARIANT@@PAPA_W@Z
	DD	FLAT:?get_accFocus@CWnd@@UAEJPAUtagVARIANT@@@Z
	DD	FLAT:?get_accSelection@CWnd@@UAEJPAUtagVARIANT@@@Z
	DD	FLAT:?get_accDefaultAction@CWnd@@UAEJUtagVARIANT@@PAPA_W@Z
	DD	FLAT:?accSelect@CWnd@@UAEJJUtagVARIANT@@@Z
	DD	FLAT:?accLocation@CWnd@@UAEJPAJ000UtagVARIANT@@@Z
	DD	FLAT:?accNavigate@CWnd@@UAEJJUtagVARIANT@@PAU2@@Z
	DD	FLAT:?accHitTest@CWnd@@UAEJJJPAUtagVARIANT@@@Z
	DD	FLAT:?accDoDefaultAction@CWnd@@UAEJUtagVARIANT@@@Z
	DD	FLAT:?put_accName@CWnd@@UAEJUtagVARIANT@@PA_W@Z
	DD	FLAT:?put_accValue@CWnd@@UAEJUtagVARIANT@@PA_W@Z
	DD	FLAT:?SetProxy@CWnd@@UAEJPAUIAccessibleProxy@@@Z
	DD	FLAT:?CreateAccessibleProxy@CWnd@@UAEJIJPAJ@Z
	DD	FLAT:?OnCommand@CWnd@@MAEHIJ@Z
	DD	FLAT:?OnNotify@CWnd@@MAEHIJPAJ@Z
	DD	FLAT:?GetSuperWndProcAddr@CWnd@@MAEPAP6GJPAUHWND__@@IIJ@ZXZ
	DD	FLAT:?DoDataExchange@CWnd@@MAEXPAVCDataExchange@@@Z
	DD	FLAT:?BeginModalState@CWnd@@UAEXXZ
	DD	FLAT:?EndModalState@CWnd@@UAEXXZ
	DD	FLAT:?PreTranslateMessage@CWnd@@UAEHPAUtagMSG@@@Z
	DD	FLAT:?OnAmbientProperty@CWnd@@UAEHPAVCOleControlSite@@JPAUtagVARIANT@@@Z
	DD	FLAT:?WindowProc@CWnd@@MAEJIIJ@Z
	DD	FLAT:?OnWndMsg@CWnd@@MAEHIIJPAJ@Z
	DD	FLAT:?DefWindowProcA@CWnd@@MAEJIIJ@Z
	DD	FLAT:?PostNcDestroy@CWnd@@MAEXXZ
	DD	FLAT:?OnChildNotify@CWnd@@MAEHIIJPAJ@Z
	DD	FLAT:?CheckAutoCenter@CWnd@@UAEHXZ
	DD	FLAT:?IsFrameWnd@CWnd@@UBEHXZ
	DD	FLAT:?CreateControlContainer@CWnd@@MAEHPAPAVCOleControlContainer@@@Z
	DD	FLAT:?CreateControlSite@CWnd@@MAEHPAVCOleControlContainer@@PAPAVCOleControlSite@@IABU_GUID@@@Z
	DD	FLAT:?SetOccDialogInfo@CWnd@@MAEHPAU_AFX_OCC_DIALOG_INFO@@@Z
CONST	ENDS
;	COMDAT ??_R4CGameCtrlWnd@@6B@
rdata$r	SEGMENT
??_R4CGameCtrlWnd@@6B@ DD 00H				; CGameCtrlWnd::`RTTI Complete Object Locator'
	DD	00H
	DD	00H
	DD	FLAT:??_R0?AVCGameCtrlWnd@@@8
	DD	FLAT:??_R3CGameCtrlWnd@@8
rdata$r	ENDS
;	COMDAT ??_R0?AVCGameCtrlWnd@@@8
_DATA	SEGMENT
??_R0?AVCGameCtrlWnd@@@8 DD FLAT:??_7type_info@@6B@	; CGameCtrlWnd `RTTI Type Descriptor'
	DD	00H
	DB	'.?AVCGameCtrlWnd@@', 00H
_DATA	ENDS
;	COMDAT ??_R3CGameCtrlWnd@@8
rdata$r	SEGMENT
??_R3CGameCtrlWnd@@8 DD 00H				; CGameCtrlWnd::`RTTI Class Hierarchy Descriptor'
	DD	00H
	DD	05H
	DD	FLAT:??_R2CGameCtrlWnd@@8
rdata$r	ENDS
;	COMDAT ??_R2CGameCtrlWnd@@8
rdata$r	SEGMENT
??_R2CGameCtrlWnd@@8 DD FLAT:??_R1A@?0A@A@CGameCtrlWnd@@8 ; CGameCtrlWnd::`RTTI Base Class Array'
	DD	FLAT:??_R1A@?0A@A@CBasicWnd@@8
	DD	FLAT:??_R1A@?0A@A@CWnd@@8
	DD	FLAT:??_R1A@?0A@A@CCmdTarget@@8
	DD	FLAT:??_R1A@?0A@A@CObject@@8
rdata$r	ENDS
;	COMDAT ??_R1A@?0A@A@CGameCtrlWnd@@8
rdata$r	SEGMENT
??_R1A@?0A@A@CGameCtrlWnd@@8 DD FLAT:??_R0?AVCGameCtrlWnd@@@8 ; CGameCtrlWnd::`RTTI Base Class Descriptor at (0,-1,0,0)'
	DD	04H
	DD	00H
	DD	0ffffffffH
	DD	00H
	DD	00H
rdata$r	ENDS
;	COMDAT ??_R1A@?0A@A@CBasicWnd@@8
rdata$r	SEGMENT
??_R1A@?0A@A@CBasicWnd@@8 DD FLAT:??_R0?AVCBasicWnd@@@8	; CBasicWnd::`RTTI Base Class Descriptor at (0,-1,0,0)'
	DD	03H
	DD	00H
	DD	0ffffffffH
	DD	00H
	DD	00H
rdata$r	ENDS
;	COMDAT ??_R0?AVCBasicWnd@@@8
_DATA	SEGMENT
??_R0?AVCBasicWnd@@@8 DD FLAT:??_7type_info@@6B@	; CBasicWnd `RTTI Type Descriptor'
	DD	00H
	DB	'.?AVCBasicWnd@@', 00H
_DATA	ENDS
;	COMDAT ??_R1A@?0A@A@CWnd@@8
rdata$r	SEGMENT
??_R1A@?0A@A@CWnd@@8 DD FLAT:??_R0?AVCWnd@@@8		; CWnd::`RTTI Base Class Descriptor at (0,-1,0,0)'
	DD	02H
	DD	00H
	DD	0ffffffffH
	DD	00H
	DD	00H
rdata$r	ENDS
;	COMDAT ??_R0?AVCWnd@@@8
_DATA	SEGMENT
??_R0?AVCWnd@@@8 DD FLAT:??_7type_info@@6B@		; CWnd `RTTI Type Descriptor'
	DD	00H
	DB	'.?AVCWnd@@', 00H
_DATA	ENDS
;	COMDAT ??_R1A@?0A@A@CCmdTarget@@8
rdata$r	SEGMENT
??_R1A@?0A@A@CCmdTarget@@8 DD FLAT:??_R0?AVCCmdTarget@@@8 ; CCmdTarget::`RTTI Base Class Descriptor at (0,-1,0,0)'
	DD	01H
	DD	00H
	DD	0ffffffffH
	DD	00H
	DD	00H
rdata$r	ENDS
;	COMDAT ??_R0?AVCCmdTarget@@@8
_DATA	SEGMENT
??_R0?AVCCmdTarget@@@8 DD FLAT:??_7type_info@@6B@	; CCmdTarget `RTTI Type Descriptor'
	DD	00H
	DB	'.?AVCCmdTarget@@', 00H
_DATA	ENDS
;	COMDAT ??_R1A@?0A@A@CObject@@8
rdata$r	SEGMENT
??_R1A@?0A@A@CObject@@8 DD FLAT:??_R0?AVCObject@@@8	; CObject::`RTTI Base Class Descriptor at (0,-1,0,0)'
	DD	00H
	DD	00H
	DD	0ffffffffH
	DD	00H
	DD	00H
rdata$r	ENDS
;	COMDAT ??_R0?AVCObject@@@8
_DATA	SEGMENT
??_R0?AVCObject@@@8 DD FLAT:??_7type_info@@6B@		; CObject `RTTI Type Descriptor'
	DD	00H
	DB	'.?AVCObject@@', 00H
; Function compile flags: /Odt
_DATA	ENDS
_TEXT	SEGMENT
tv161 = -88						; size = 4
tv153 = -84						; size = 4
tv145 = -80						; size = 4
tv137 = -76						; size = 4
tv129 = -72						; size = 4
tv89 = -68						; size = 4
_this$ = -64						; size = 4
$T205607 = -60						; size = 4
$T205606 = -56						; size = 4
$T205603 = -52						; size = 4
$T205602 = -48						; size = 4
$T205599 = -44						; size = 4
$T205598 = -40						; size = 4
$T205595 = -36						; size = 4
$T205594 = -32						; size = 4
$T205591 = -28						; size = 4
$T205590 = -24						; size = 4
$T205587 = -20						; size = 4
$T205586 = -16						; size = 4
__$EHRec$ = -12						; size = 12
??0CGameCtrlWnd@@QAE@XZ PROC NEAR			; CGameCtrlWnd::CGameCtrlWnd
; _this$ = ecx

; 17   : {

  00020	55		 push	 ebp
  00021	8b ec		 mov	 ebp, esp
  00023	6a ff		 push	 -1
  00025	68 00 00 00 00	 push	 __ehhandler$??0CGameCtrlWnd@@QAE@XZ
  0002a	64 a1 00 00 00
	00		 mov	 eax, DWORD PTR fs:__except_list
  00030	50		 push	 eax
  00031	64 89 25 00 00
	00 00		 mov	 DWORD PTR fs:__except_list, esp
  00038	83 ec 4c	 sub	 esp, 76			; 0000004cH
  0003b	89 4d c0	 mov	 DWORD PTR _this$[ebp], ecx
  0003e	8b 4d c0	 mov	 ecx, DWORD PTR _this$[ebp]
  00041	e8 00 00 00 00	 call	 ??0CBasicWnd@@QAE@XZ	; CBasicWnd::CBasicWnd
  00046	c7 45 fc 00 00
	00 00		 mov	 DWORD PTR __$EHRec$[ebp+8], 0
  0004d	8b 45 c0	 mov	 eax, DWORD PTR _this$[ebp]
  00050	c7 00 00 00 00
	00		 mov	 DWORD PTR [eax], OFFSET FLAT:??_7CGameCtrlWnd@@6B@
  00056	8b 4d c0	 mov	 ecx, DWORD PTR _this$[ebp]
  00059	83 c1 54	 add	 ecx, 84			; 00000054H
  0005c	ff 15 00 00 00
	00		 call	 DWORD PTR __imp_??0?$basic_string@DU?$char_traits@D@std@@V?$allocator@D@2@@std@@QAE@XZ
  00062	c6 45 fc 01	 mov	 BYTE PTR __$EHRec$[ebp+8], 1
  00066	8b 4d c0	 mov	 ecx, DWORD PTR _this$[ebp]
  00069	81 c1 88 00 00
	00		 add	 ecx, 136		; 00000088H
  0006f	e8 00 00 00 00	 call	 ??0SWF_GAME@@QAE@XZ
  00074	c6 45 fc 02	 mov	 BYTE PTR __$EHRec$[ebp+8], 2

; 18   : 	m_pBtnRePlay		    = new CxSkinButton();

  00078	68 24 01 00 00	 push	 292			; 00000124H
  0007d	e8 00 00 00 00	 call	 ??2CObject@@SGPAXI@Z	; CObject::operator new
  00082	89 45 ec	 mov	 DWORD PTR $T205587[ebp], eax
  00085	c6 45 fc 03	 mov	 BYTE PTR __$EHRec$[ebp+8], 3
  00089	83 7d ec 00	 cmp	 DWORD PTR $T205587[ebp], 0
  0008d	74 0d		 je	 SHORT $L205588
  0008f	8b 4d ec	 mov	 ecx, DWORD PTR $T205587[ebp]
  00092	e8 00 00 00 00	 call	 ??0CxSkinButton@@QAE@XZ	; CxSkinButton::CxSkinButton
  00097	89 45 bc	 mov	 DWORD PTR tv89[ebp], eax
  0009a	eb 07		 jmp	 SHORT $L205589
$L205588:
  0009c	c7 45 bc 00 00
	00 00		 mov	 DWORD PTR tv89[ebp], 0
$L205589:
  000a3	8b 4d bc	 mov	 ecx, DWORD PTR tv89[ebp]
  000a6	89 4d f0	 mov	 DWORD PTR $T205586[ebp], ecx
  000a9	c6 45 fc 02	 mov	 BYTE PTR __$EHRec$[ebp+8], 2
  000ad	8b 55 c0	 mov	 edx, DWORD PTR _this$[ebp]
  000b0	8b 45 f0	 mov	 eax, DWORD PTR $T205586[ebp]
  000b3	89 42 70	 mov	 DWORD PTR [edx+112], eax

; 19   : 	m_pBtnToFullScreen		= new CxSkinButton();

  000b6	68 24 01 00 00	 push	 292			; 00000124H
  000bb	e8 00 00 00 00	 call	 ??2CObject@@SGPAXI@Z	; CObject::operator new
  000c0	89 45 e4	 mov	 DWORD PTR $T205591[ebp], eax
  000c3	c6 45 fc 04	 mov	 BYTE PTR __$EHRec$[ebp+8], 4
  000c7	83 7d e4 00	 cmp	 DWORD PTR $T205591[ebp], 0
  000cb	74 0d		 je	 SHORT $L205592
  000cd	8b 4d e4	 mov	 ecx, DWORD PTR $T205591[ebp]
  000d0	e8 00 00 00 00	 call	 ??0CxSkinButton@@QAE@XZ	; CxSkinButton::CxSkinButton
  000d5	89 45 b8	 mov	 DWORD PTR tv129[ebp], eax
  000d8	eb 07		 jmp	 SHORT $L205593
$L205592:
  000da	c7 45 b8 00 00
	00 00		 mov	 DWORD PTR tv129[ebp], 0
$L205593:
  000e1	8b 4d b8	 mov	 ecx, DWORD PTR tv129[ebp]
  000e4	89 4d e8	 mov	 DWORD PTR $T205590[ebp], ecx
  000e7	c6 45 fc 02	 mov	 BYTE PTR __$EHRec$[ebp+8], 2
  000eb	8b 55 c0	 mov	 edx, DWORD PTR _this$[ebp]
  000ee	8b 45 e8	 mov	 eax, DWORD PTR $T205590[ebp]
  000f1	89 42 7c	 mov	 DWORD PTR [edx+124], eax

; 20   : 	m_pBtnExitFullScreen	= new CxSkinButton();

  000f4	68 24 01 00 00	 push	 292			; 00000124H
  000f9	e8 00 00 00 00	 call	 ??2CObject@@SGPAXI@Z	; CObject::operator new
  000fe	89 45 dc	 mov	 DWORD PTR $T205595[ebp], eax
  00101	c6 45 fc 05	 mov	 BYTE PTR __$EHRec$[ebp+8], 5
  00105	83 7d dc 00	 cmp	 DWORD PTR $T205595[ebp], 0
  00109	74 0d		 je	 SHORT $L205596
  0010b	8b 4d dc	 mov	 ecx, DWORD PTR $T205595[ebp]
  0010e	e8 00 00 00 00	 call	 ??0CxSkinButton@@QAE@XZ	; CxSkinButton::CxSkinButton
  00113	89 45 b4	 mov	 DWORD PTR tv137[ebp], eax
  00116	eb 07		 jmp	 SHORT $L205597
$L205596:
  00118	c7 45 b4 00 00
	00 00		 mov	 DWORD PTR tv137[ebp], 0
$L205597:
  0011f	8b 4d b4	 mov	 ecx, DWORD PTR tv137[ebp]
  00122	89 4d e0	 mov	 DWORD PTR $T205594[ebp], ecx
  00125	c6 45 fc 02	 mov	 BYTE PTR __$EHRec$[ebp+8], 2
  00129	8b 55 c0	 mov	 edx, DWORD PTR _this$[ebp]
  0012c	8b 45 e0	 mov	 eax, DWORD PTR $T205594[ebp]
  0012f	89 82 80 00 00
	00		 mov	 DWORD PTR [edx+128], eax

; 21   : 	m_pBtnMute				= new CxSkinButton();

  00135	68 24 01 00 00	 push	 292			; 00000124H
  0013a	e8 00 00 00 00	 call	 ??2CObject@@SGPAXI@Z	; CObject::operator new
  0013f	89 45 d4	 mov	 DWORD PTR $T205599[ebp], eax
  00142	c6 45 fc 06	 mov	 BYTE PTR __$EHRec$[ebp+8], 6
  00146	83 7d d4 00	 cmp	 DWORD PTR $T205599[ebp], 0
  0014a	74 0d		 je	 SHORT $L205600
  0014c	8b 4d d4	 mov	 ecx, DWORD PTR $T205599[ebp]
  0014f	e8 00 00 00 00	 call	 ??0CxSkinButton@@QAE@XZ	; CxSkinButton::CxSkinButton
  00154	89 45 b0	 mov	 DWORD PTR tv145[ebp], eax
  00157	eb 07		 jmp	 SHORT $L205601
$L205600:
  00159	c7 45 b0 00 00
	00 00		 mov	 DWORD PTR tv145[ebp], 0
$L205601:
  00160	8b 4d b0	 mov	 ecx, DWORD PTR tv145[ebp]
  00163	89 4d d8	 mov	 DWORD PTR $T205598[ebp], ecx
  00166	c6 45 fc 02	 mov	 BYTE PTR __$EHRec$[ebp+8], 2
  0016a	8b 55 c0	 mov	 edx, DWORD PTR _this$[ebp]
  0016d	8b 45 d8	 mov	 eax, DWORD PTR $T205598[ebp]
  00170	89 42 74	 mov	 DWORD PTR [edx+116], eax

; 22   : 	m_pBtnUnMute			= new CxSkinButton();

  00173	68 24 01 00 00	 push	 292			; 00000124H
  00178	e8 00 00 00 00	 call	 ??2CObject@@SGPAXI@Z	; CObject::operator new
  0017d	89 45 cc	 mov	 DWORD PTR $T205603[ebp], eax
  00180	c6 45 fc 07	 mov	 BYTE PTR __$EHRec$[ebp+8], 7
  00184	83 7d cc 00	 cmp	 DWORD PTR $T205603[ebp], 0
  00188	74 0d		 je	 SHORT $L205604
  0018a	8b 4d cc	 mov	 ecx, DWORD PTR $T205603[ebp]
  0018d	e8 00 00 00 00	 call	 ??0CxSkinButton@@QAE@XZ	; CxSkinButton::CxSkinButton
  00192	89 45 ac	 mov	 DWORD PTR tv153[ebp], eax
  00195	eb 07		 jmp	 SHORT $L205605
$L205604:
  00197	c7 45 ac 00 00
	00 00		 mov	 DWORD PTR tv153[ebp], 0
$L205605:
  0019e	8b 4d ac	 mov	 ecx, DWORD PTR tv153[ebp]
  001a1	89 4d d0	 mov	 DWORD PTR $T205602[ebp], ecx
  001a4	c6 45 fc 02	 mov	 BYTE PTR __$EHRec$[ebp+8], 2
  001a8	8b 55 c0	 mov	 edx, DWORD PTR _this$[ebp]
  001ab	8b 45 d0	 mov	 eax, DWORD PTR $T205602[ebp]
  001ae	89 42 78	 mov	 DWORD PTR [edx+120], eax

; 23   : 	m_pBtnCut		        = new CxSkinButton();	

  001b1	68 24 01 00 00	 push	 292			; 00000124H
  001b6	e8 00 00 00 00	 call	 ??2CObject@@SGPAXI@Z	; CObject::operator new
  001bb	89 45 c4	 mov	 DWORD PTR $T205607[ebp], eax
  001be	c6 45 fc 08	 mov	 BYTE PTR __$EHRec$[ebp+8], 8
  001c2	83 7d c4 00	 cmp	 DWORD PTR $T205607[ebp], 0
  001c6	74 0d		 je	 SHORT $L205608
  001c8	8b 4d c4	 mov	 ecx, DWORD PTR $T205607[ebp]
  001cb	e8 00 00 00 00	 call	 ??0CxSkinButton@@QAE@XZ	; CxSkinButton::CxSkinButton
  001d0	89 45 a8	 mov	 DWORD PTR tv161[ebp], eax
  001d3	eb 07		 jmp	 SHORT $L205609
$L205608:
  001d5	c7 45 a8 00 00
	00 00		 mov	 DWORD PTR tv161[ebp], 0
$L205609:
  001dc	8b 4d a8	 mov	 ecx, DWORD PTR tv161[ebp]
  001df	89 4d c8	 mov	 DWORD PTR $T205606[ebp], ecx
  001e2	c6 45 fc 02	 mov	 BYTE PTR __$EHRec$[ebp+8], 2
  001e6	8b 55 c0	 mov	 edx, DWORD PTR _this$[ebp]
  001e9	8b 45 c8	 mov	 eax, DWORD PTR $T205606[ebp]
  001ec	89 82 84 00 00
	00		 mov	 DWORD PTR [edx+132], eax

; 24   : }

  001f2	c7 45 fc ff ff
	ff ff		 mov	 DWORD PTR __$EHRec$[ebp+8], -1
  001f9	8b 45 c0	 mov	 eax, DWORD PTR _this$[ebp]
  001fc	8b 4d f4	 mov	 ecx, DWORD PTR __$EHRec$[ebp]
  001ff	64 89 0d 00 00
	00 00		 mov	 DWORD PTR fs:__except_list, ecx
  00206	8b e5		 mov	 esp, ebp
  00208	5d		 pop	 ebp
  00209	c3		 ret	 0
_TEXT	ENDS
text$x	SEGMENT
$L205610:
  00000	8b 4d c0	 mov	 ecx, DWORD PTR _this$[ebp]
  00003	e9 00 00 00 00	 jmp	 ??1CBasicWnd@@UAE@XZ	; CBasicWnd::~CBasicWnd
$L205611:
  00008	8b 4d c0	 mov	 ecx, DWORD PTR _this$[ebp]
  0000b	83 c1 54	 add	 ecx, 84			; 00000054H
  0000e	ff 25 00 00 00
	00		 jmp	 DWORD PTR __imp_??1?$basic_string@DU?$char_traits@D@std@@V?$allocator@D@2@@std@@QAE@XZ
$L205612:
  00014	8b 4d c0	 mov	 ecx, DWORD PTR _this$[ebp]
  00017	81 c1 88 00 00
	00		 add	 ecx, 136		; 00000088H
  0001d	e9 00 00 00 00	 jmp	 ??1SWF_GAME@@QAE@XZ
$L205613:
  00022	8b 45 ec	 mov	 eax, DWORD PTR $T205587[ebp]
  00025	50		 push	 eax
  00026	e8 00 00 00 00	 call	 ??3CObject@@SGXPAX@Z	; CObject::operator delete
  0002b	c3		 ret	 0
$L205614:
  0002c	8b 45 e4	 mov	 eax, DWORD PTR $T205591[ebp]
  0002f	50		 push	 eax
  00030	e8 00 00 00 00	 call	 ??3CObject@@SGXPAX@Z	; CObject::operator delete
  00035	c3		 ret	 0
$L205615:
  00036	8b 45 dc	 mov	 eax, DWORD PTR $T205595[ebp]
  00039	50		 push	 eax
  0003a	e8 00 00 00 00	 call	 ??3CObject@@SGXPAX@Z	; CObject::operator delete
  0003f	c3		 ret	 0
$L205616:
  00040	8b 45 d4	 mov	 eax, DWORD PTR $T205599[ebp]
  00043	50		 push	 eax
  00044	e8 00 00 00 00	 call	 ??3CObject@@SGXPAX@Z	; CObject::operator delete
  00049	c3		 ret	 0
$L205617:
  0004a	8b 45 cc	 mov	 eax, DWORD PTR $T205603[ebp]
  0004d	50		 push	 eax
  0004e	e8 00 00 00 00	 call	 ??3CObject@@SGXPAX@Z	; CObject::operator delete
  00053	c3		 ret	 0
$L205618:
  00054	8b 45 c4	 mov	 eax, DWORD PTR $T205607[ebp]
  00057	50		 push	 eax
  00058	e8 00 00 00 00	 call	 ??3CObject@@SGXPAX@Z	; CObject::operator delete
  0005d	c3		 ret	 0
__ehhandler$??0CGameCtrlWnd@@QAE@XZ:
  0005e	b8 00 00 00 00	 mov	 eax, OFFSET FLAT:$T205622
  00063	e9 00 00 00 00	 jmp	 ___CxxFrameHandler
text$x	ENDS
??0CGameCtrlWnd@@QAE@XZ ENDP				; CGameCtrlWnd::CGameCtrlWnd
PUBLIC	??1CGameCtrlWnd@@UAE@XZ				; CGameCtrlWnd::~CGameCtrlWnd
; Function compile flags: /Odt
;	COMDAT ??_GCGameCtrlWnd@@UAEPAXI@Z
_TEXT	SEGMENT
_this$ = -4						; size = 4
___flags$ = 8						; size = 4
??_GCGameCtrlWnd@@UAEPAXI@Z PROC NEAR			; CGameCtrlWnd::`scalar deleting destructor', COMDAT
; _this$ = ecx
  00000	55		 push	 ebp
  00001	8b ec		 mov	 ebp, esp
  00003	51		 push	 ecx
  00004	89 4d fc	 mov	 DWORD PTR _this$[ebp], ecx
  00007	8b 4d fc	 mov	 ecx, DWORD PTR _this$[ebp]
  0000a	e8 00 00 00 00	 call	 ??1CGameCtrlWnd@@UAE@XZ	; CGameCtrlWnd::~CGameCtrlWnd
  0000f	8b 45 08	 mov	 eax, DWORD PTR ___flags$[ebp]
  00012	83 e0 01	 and	 eax, 1
  00015	74 09		 je	 SHORT $L204571
  00017	8b 4d fc	 mov	 ecx, DWORD PTR _this$[ebp]
  0001a	51		 push	 ecx
  0001b	e8 00 00 00 00	 call	 ??3CObject@@SGXPAX@Z	; CObject::operator delete
$L204571:
  00020	8b 45 fc	 mov	 eax, DWORD PTR _this$[ebp]
  00023	8b e5		 mov	 esp, ebp
  00025	5d		 pop	 ebp
  00026	c2 04 00	 ret	 4
??_GCGameCtrlWnd@@UAEPAXI@Z ENDP			; CGameCtrlWnd::`scalar deleting destructor'
_TEXT	ENDS
;	COMDAT xdata$x
xdata$x	SEGMENT
$T205638 DD	0ffffffffH
	DD	FLAT:$L205630
	DD	00H
	DD	FLAT:$L205631
	DD	01H
	DD	FLAT:$L205632
	DD	02H
	DD	FLAT:$L205633
$T205636 DD	019930520H
	DD	04H
	DD	FLAT:$T205638
	DD	2 DUP(00H)
	DD	2 DUP(00H)
; Function compile flags: /Odt
xdata$x	ENDS
;	COMDAT ??0SWF_GAME@@QAE@XZ
_TEXT	SEGMENT
_this$ = -16						; size = 4
__$EHRec$ = -12						; size = 12
??0SWF_GAME@@QAE@XZ PROC NEAR				; SWF_GAME::SWF_GAME, COMDAT
; _this$ = ecx
  00000	55		 push	 ebp
  00001	8b ec		 mov	 ebp, esp
  00003	6a ff		 push	 -1
  00005	68 00 00 00 00	 push	 __ehhandler$??0SWF_GAME@@QAE@XZ
  0000a	64 a1 00 00 00
	00		 mov	 eax, DWORD PTR fs:__except_list
  00010	50		 push	 eax
  00011	64 89 25 00 00
	00 00		 mov	 DWORD PTR fs:__except_list, esp
  00018	51		 push	 ecx
  00019	89 4d f0	 mov	 DWORD PTR _this$[ebp], ecx
  0001c	8b 4d f0	 mov	 ecx, DWORD PTR _this$[ebp]
  0001f	ff 15 00 00 00
	00		 call	 DWORD PTR __imp_??0?$basic_string@DU?$char_traits@D@std@@V?$allocator@D@2@@std@@QAE@XZ
  00025	c7 45 fc 00 00
	00 00		 mov	 DWORD PTR __$EHRec$[ebp+8], 0
  0002c	8b 4d f0	 mov	 ecx, DWORD PTR _this$[ebp]
  0002f	83 c1 1c	 add	 ecx, 28			; 0000001cH
  00032	ff 15 00 00 00
	00		 call	 DWORD PTR __imp_??0?$basic_string@DU?$char_traits@D@std@@V?$allocator@D@2@@std@@QAE@XZ
  00038	c6 45 fc 01	 mov	 BYTE PTR __$EHRec$[ebp+8], 1
  0003c	8b 4d f0	 mov	 ecx, DWORD PTR _this$[ebp]
  0003f	83 c1 38	 add	 ecx, 56			; 00000038H
  00042	ff 15 00 00 00
	00		 call	 DWORD PTR __imp_??0?$basic_string@DU?$char_traits@D@std@@V?$allocator@D@2@@std@@QAE@XZ
  00048	c6 45 fc 02	 mov	 BYTE PTR __$EHRec$[ebp+8], 2
  0004c	8b 4d f0	 mov	 ecx, DWORD PTR _this$[ebp]
  0004f	83 c1 54	 add	 ecx, 84			; 00000054H
  00052	ff 15 00 00 00
	00		 call	 DWORD PTR __imp_??0?$basic_string@DU?$char_traits@D@std@@V?$allocator@D@2@@std@@QAE@XZ
  00058	c6 45 fc 03	 mov	 BYTE PTR __$EHRec$[ebp+8], 3
  0005c	8b 4d f0	 mov	 ecx, DWORD PTR _this$[ebp]
  0005f	83 c1 70	 add	 ecx, 112		; 00000070H
  00062	ff 15 00 00 00
	00		 call	 DWORD PTR __imp_??0?$basic_string@DU?$char_traits@D@std@@V?$allocator@D@2@@std@@QAE@XZ
  00068	c7 45 fc ff ff
	ff ff		 mov	 DWORD PTR __$EHRec$[ebp+8], -1
  0006f	8b 45 f0	 mov	 eax, DWORD PTR _this$[ebp]
  00072	8b 4d f4	 mov	 ecx, DWORD PTR __$EHRec$[ebp]
  00075	64 89 0d 00 00
	00 00		 mov	 DWORD PTR fs:__except_list, ecx
  0007c	8b e5		 mov	 esp, ebp
  0007e	5d		 pop	 ebp
  0007f	c3		 ret	 0
_TEXT	ENDS
;	COMDAT text$x
text$x	SEGMENT
$L205630:
  00000	8b 4d f0	 mov	 ecx, DWORD PTR _this$[ebp]
  00003	ff 25 00 00 00
	00		 jmp	 DWORD PTR __imp_??1?$basic_string@DU?$char_traits@D@std@@V?$allocator@D@2@@std@@QAE@XZ
$L205631:
  00009	8b 4d f0	 mov	 ecx, DWORD PTR _this$[ebp]
  0000c	83 c1 1c	 add	 ecx, 28			; 0000001cH
  0000f	ff 25 00 00 00
	00		 jmp	 DWORD PTR __imp_??1?$basic_string@DU?$char_traits@D@std@@V?$allocator@D@2@@std@@QAE@XZ
$L205632:
  00015	8b 4d f0	 mov	 ecx, DWORD PTR _this$[ebp]
  00018	83 c1 38	 add	 ecx, 56			; 00000038H
  0001b	ff 25 00 00 00
	00		 jmp	 DWORD PTR __imp_??1?$basic_string@DU?$char_traits@D@std@@V?$allocator@D@2@@std@@QAE@XZ
$L205633:
  00021	8b 4d f0	 mov	 ecx, DWORD PTR _this$[ebp]
  00024	83 c1 54	 add	 ecx, 84			; 00000054H
  00027	ff 25 00 00 00
	00		 jmp	 DWORD PTR __imp_??1?$basic_string@DU?$char_traits@D@std@@V?$allocator@D@2@@std@@QAE@XZ
__ehhandler$??0SWF_GAME@@QAE@XZ:
  0002d	b8 00 00 00 00	 mov	 eax, OFFSET FLAT:$T205636
  00032	e9 00 00 00 00	 jmp	 ___CxxFrameHandler
text$x	ENDS
??0SWF_GAME@@QAE@XZ ENDP				; SWF_GAME::SWF_GAME
;	COMDAT xdata$x
xdata$x	SEGMENT
$T205651 DD	0ffffffffH
	DD	FLAT:$L205643
	DD	00H
	DD	FLAT:$L205644
	DD	01H
	DD	FLAT:$L205645
	DD	02H
	DD	FLAT:$L205646
$T205649 DD	019930520H
	DD	04H
	DD	FLAT:$T205651
	DD	2 DUP(00H)
	DD	2 DUP(00H)
; Function compile flags: /Odt
xdata$x	ENDS
;	COMDAT ??1SWF_GAME@@QAE@XZ
_TEXT	SEGMENT
_this$ = -16						; size = 4
__$EHRec$ = -12						; size = 12
??1SWF_GAME@@QAE@XZ PROC NEAR				; SWF_GAME::~SWF_GAME, COMDAT
; _this$ = ecx
  00000	55		 push	 ebp
  00001	8b ec		 mov	 ebp, esp
  00003	6a ff		 push	 -1
  00005	68 00 00 00 00	 push	 __ehhandler$??1SWF_GAME@@QAE@XZ
  0000a	64 a1 00 00 00
	00		 mov	 eax, DWORD PTR fs:__except_list
  00010	50		 push	 eax
  00011	64 89 25 00 00
	00 00		 mov	 DWORD PTR fs:__except_list, esp
  00018	51		 push	 ecx
  00019	89 4d f0	 mov	 DWORD PTR _this$[ebp], ecx
  0001c	c7 45 fc 03 00
	00 00		 mov	 DWORD PTR __$EHRec$[ebp+8], 3
  00023	8b 4d f0	 mov	 ecx, DWORD PTR _this$[ebp]
  00026	83 c1 70	 add	 ecx, 112		; 00000070H
  00029	ff 15 00 00 00
	00		 call	 DWORD PTR __imp_??1?$basic_string@DU?$char_traits@D@std@@V?$allocator@D@2@@std@@QAE@XZ
  0002f	c6 45 fc 02	 mov	 BYTE PTR __$EHRec$[ebp+8], 2
  00033	8b 4d f0	 mov	 ecx, DWORD PTR _this$[ebp]
  00036	83 c1 54	 add	 ecx, 84			; 00000054H
  00039	ff 15 00 00 00
	00		 call	 DWORD PTR __imp_??1?$basic_string@DU?$char_traits@D@std@@V?$allocator@D@2@@std@@QAE@XZ
  0003f	c6 45 fc 01	 mov	 BYTE PTR __$EHRec$[ebp+8], 1
  00043	8b 4d f0	 mov	 ecx, DWORD PTR _this$[ebp]
  00046	83 c1 38	 add	 ecx, 56			; 00000038H
  00049	ff 15 00 00 00
	00		 call	 DWORD PTR __imp_??1?$basic_string@DU?$char_traits@D@std@@V?$allocator@D@2@@std@@QAE@XZ
  0004f	c6 45 fc 00	 mov	 BYTE PTR __$EHRec$[ebp+8], 0
  00053	8b 4d f0	 mov	 ecx, DWORD PTR _this$[ebp]
  00056	83 c1 1c	 add	 ecx, 28			; 0000001cH
  00059	ff 15 00 00 00
	00		 call	 DWORD PTR __imp_??1?$basic_string@DU?$char_traits@D@std@@V?$allocator@D@2@@std@@QAE@XZ
  0005f	c7 45 fc ff ff
	ff ff		 mov	 DWORD PTR __$EHRec$[ebp+8], -1
  00066	8b 4d f0	 mov	 ecx, DWORD PTR _this$[ebp]
  00069	ff 15 00 00 00
	00		 call	 DWORD PTR __imp_??1?$basic_string@DU?$char_traits@D@std@@V?$allocator@D@2@@std@@QAE@XZ
  0006f	8b 4d f4	 mov	 ecx, DWORD PTR __$EHRec$[ebp]
  00072	64 89 0d 00 00
	00 00		 mov	 DWORD PTR fs:__except_list, ecx
  00079	8b e5		 mov	 esp, ebp
  0007b	5d		 pop	 ebp
  0007c	c3		 ret	 0
_TEXT	ENDS
;	COMDAT text$x
text$x	SEGMENT
$L205643:
  00000	8b 4d f0	 mov	 ecx, DWORD PTR _this$[ebp]
  00003	ff 25 00 00 00
	00		 jmp	 DWORD PTR __imp_??1?$basic_string@DU?$char_traits@D@std@@V?$allocator@D@2@@std@@QAE@XZ
$L205644:
  00009	8b 4d f0	 mov	 ecx, DWORD PTR _this$[ebp]
  0000c	83 c1 1c	 add	 ecx, 28			; 0000001cH
  0000f	ff 25 00 00 00
	00		 jmp	 DWORD PTR __imp_??1?$basic_string@DU?$char_traits@D@std@@V?$allocator@D@2@@std@@QAE@XZ
$L205645:
  00015	8b 4d f0	 mov	 ecx, DWORD PTR _this$[ebp]
  00018	83 c1 38	 add	 ecx, 56			; 00000038H
  0001b	ff 25 00 00 00
	00		 jmp	 DWORD PTR __imp_??1?$basic_string@DU?$char_traits@D@std@@V?$allocator@D@2@@std@@QAE@XZ
$L205646:
  00021	8b 4d f0	 mov	 ecx, DWORD PTR _this$[ebp]
  00024	83 c1 54	 add	 ecx, 84			; 00000054H
  00027	ff 25 00 00 00
	00		 jmp	 DWORD PTR __imp_??1?$basic_string@DU?$char_traits@D@std@@V?$allocator@D@2@@std@@QAE@XZ
__ehhandler$??1SWF_GAME@@QAE@XZ:
  0002d	b8 00 00 00 00	 mov	 eax, OFFSET FLAT:$T205649
  00032	e9 00 00 00 00	 jmp	 ___CxxFrameHandler
text$x	ENDS
??1SWF_GAME@@QAE@XZ ENDP				; SWF_GAME::~SWF_GAME
xdata$x	SEGMENT
$T205686 DD	0ffffffffH
	DD	FLAT:$L205680
	DD	00H
	DD	FLAT:$L205681
	DD	01H
	DD	FLAT:$L205682
$T205684 DD	019930520H
	DD	03H
	DD	FLAT:$T205686
	DD	2 DUP(00H)
	DD	2 DUP(00H)
; Function compile flags: /Odt
xdata$x	ENDS
_TEXT	SEGMENT
tv152 = -88						; size = 4
tv144 = -84						; size = 4
tv136 = -80						; size = 4
tv128 = -76						; size = 4
tv88 = -72						; size = 4
tv80 = -68						; size = 4
_this$ = -64						; size = 4
$T205677 = -60						; size = 4
$T205676 = -56						; size = 4
$T205673 = -52						; size = 4
$T205672 = -48						; size = 4
$T205669 = -44						; size = 4
$T205668 = -40						; size = 4
$T205665 = -36						; size = 4
$T205664 = -32						; size = 4
$T205661 = -28						; size = 4
$T205660 = -24						; size = 4
$T205657 = -20						; size = 4
$T205656 = -16						; size = 4
__$EHRec$ = -12						; size = 12
??1CGameCtrlWnd@@UAE@XZ PROC NEAR			; CGameCtrlWnd::~CGameCtrlWnd
; _this$ = ecx

; 27   : {

  00210	55		 push	 ebp
  00211	8b ec		 mov	 ebp, esp
  00213	6a ff		 push	 -1
  00215	68 00 00 00 00	 push	 __ehhandler$??1CGameCtrlWnd@@UAE@XZ
  0021a	64 a1 00 00 00
	00		 mov	 eax, DWORD PTR fs:__except_list
  00220	50		 push	 eax
  00221	64 89 25 00 00
	00 00		 mov	 DWORD PTR fs:__except_list, esp
  00228	83 ec 4c	 sub	 esp, 76			; 0000004cH
  0022b	89 4d c0	 mov	 DWORD PTR _this$[ebp], ecx
  0022e	8b 45 c0	 mov	 eax, DWORD PTR _this$[ebp]
  00231	c7 00 00 00 00
	00		 mov	 DWORD PTR [eax], OFFSET FLAT:??_7CGameCtrlWnd@@6B@
  00237	c7 45 fc 02 00
	00 00		 mov	 DWORD PTR __$EHRec$[ebp+8], 2

; 28   : 	delete m_pBtnRePlay;

  0023e	8b 4d c0	 mov	 ecx, DWORD PTR _this$[ebp]
  00241	8b 51 70	 mov	 edx, DWORD PTR [ecx+112]
  00244	89 55 ec	 mov	 DWORD PTR $T205657[ebp], edx
  00247	8b 45 ec	 mov	 eax, DWORD PTR $T205657[ebp]
  0024a	89 45 f0	 mov	 DWORD PTR $T205656[ebp], eax
  0024d	83 7d f0 00	 cmp	 DWORD PTR $T205656[ebp], 0
  00251	74 12		 je	 SHORT $L205658
  00253	6a 01		 push	 1
  00255	8b 4d f0	 mov	 ecx, DWORD PTR $T205656[ebp]
  00258	8b 11		 mov	 edx, DWORD PTR [ecx]
  0025a	8b 4d f0	 mov	 ecx, DWORD PTR $T205656[ebp]
  0025d	ff 52 04	 call	 DWORD PTR [edx+4]
  00260	89 45 bc	 mov	 DWORD PTR tv80[ebp], eax
  00263	eb 07		 jmp	 SHORT $L205659
$L205658:
  00265	c7 45 bc 00 00
	00 00		 mov	 DWORD PTR tv80[ebp], 0
$L205659:

; 29   : 	delete m_pBtnToFullScreen;

  0026c	8b 45 c0	 mov	 eax, DWORD PTR _this$[ebp]
  0026f	8b 48 7c	 mov	 ecx, DWORD PTR [eax+124]
  00272	89 4d e4	 mov	 DWORD PTR $T205661[ebp], ecx
  00275	8b 55 e4	 mov	 edx, DWORD PTR $T205661[ebp]
  00278	89 55 e8	 mov	 DWORD PTR $T205660[ebp], edx
  0027b	83 7d e8 00	 cmp	 DWORD PTR $T205660[ebp], 0
  0027f	74 12		 je	 SHORT $L205662
  00281	6a 01		 push	 1
  00283	8b 45 e8	 mov	 eax, DWORD PTR $T205660[ebp]
  00286	8b 10		 mov	 edx, DWORD PTR [eax]
  00288	8b 4d e8	 mov	 ecx, DWORD PTR $T205660[ebp]
  0028b	ff 52 04	 call	 DWORD PTR [edx+4]
  0028e	89 45 b8	 mov	 DWORD PTR tv88[ebp], eax
  00291	eb 07		 jmp	 SHORT $L205663
$L205662:
  00293	c7 45 b8 00 00
	00 00		 mov	 DWORD PTR tv88[ebp], 0
$L205663:

; 30   : 	delete m_pBtnExitFullScreen;

  0029a	8b 45 c0	 mov	 eax, DWORD PTR _this$[ebp]
  0029d	8b 88 80 00 00
	00		 mov	 ecx, DWORD PTR [eax+128]
  002a3	89 4d dc	 mov	 DWORD PTR $T205665[ebp], ecx
  002a6	8b 55 dc	 mov	 edx, DWORD PTR $T205665[ebp]
  002a9	89 55 e0	 mov	 DWORD PTR $T205664[ebp], edx
  002ac	83 7d e0 00	 cmp	 DWORD PTR $T205664[ebp], 0
  002b0	74 12		 je	 SHORT $L205666
  002b2	6a 01		 push	 1
  002b4	8b 45 e0	 mov	 eax, DWORD PTR $T205664[ebp]
  002b7	8b 10		 mov	 edx, DWORD PTR [eax]
  002b9	8b 4d e0	 mov	 ecx, DWORD PTR $T205664[ebp]
  002bc	ff 52 04	 call	 DWORD PTR [edx+4]
  002bf	89 45 b4	 mov	 DWORD PTR tv128[ebp], eax
  002c2	eb 07		 jmp	 SHORT $L205667
$L205666:
  002c4	c7 45 b4 00 00
	00 00		 mov	 DWORD PTR tv128[ebp], 0
$L205667:

; 31   : 	delete m_pBtnMute;

  002cb	8b 45 c0	 mov	 eax, DWORD PTR _this$[ebp]
  002ce	8b 48 74	 mov	 ecx, DWORD PTR [eax+116]
  002d1	89 4d d4	 mov	 DWORD PTR $T205669[ebp], ecx
  002d4	8b 55 d4	 mov	 edx, DWORD PTR $T205669[ebp]
  002d7	89 55 d8	 mov	 DWORD PTR $T205668[ebp], edx
  002da	83 7d d8 00	 cmp	 DWORD PTR $T205668[ebp], 0
  002de	74 12		 je	 SHORT $L205670
  002e0	6a 01		 push	 1
  002e2	8b 45 d8	 mov	 eax, DWORD PTR $T205668[ebp]
  002e5	8b 10		 mov	 edx, DWORD PTR [eax]
  002e7	8b 4d d8	 mov	 ecx, DWORD PTR $T205668[ebp]
  002ea	ff 52 04	 call	 DWORD PTR [edx+4]
  002ed	89 45 b0	 mov	 DWORD PTR tv136[ebp], eax
  002f0	eb 07		 jmp	 SHORT $L205671
$L205670:
  002f2	c7 45 b0 00 00
	00 00		 mov	 DWORD PTR tv136[ebp], 0
$L205671:

; 32   : 	delete m_pBtnUnMute;

  002f9	8b 45 c0	 mov	 eax, DWORD PTR _this$[ebp]
  002fc	8b 48 78	 mov	 ecx, DWORD PTR [eax+120]
  002ff	89 4d cc	 mov	 DWORD PTR $T205673[ebp], ecx
  00302	8b 55 cc	 mov	 edx, DWORD PTR $T205673[ebp]
  00305	89 55 d0	 mov	 DWORD PTR $T205672[ebp], edx
  00308	83 7d d0 00	 cmp	 DWORD PTR $T205672[ebp], 0
  0030c	74 12		 je	 SHORT $L205674
  0030e	6a 01		 push	 1
  00310	8b 45 d0	 mov	 eax, DWORD PTR $T205672[ebp]
  00313	8b 10		 mov	 edx, DWORD PTR [eax]
  00315	8b 4d d0	 mov	 ecx, DWORD PTR $T205672[ebp]
  00318	ff 52 04	 call	 DWORD PTR [edx+4]
  0031b	89 45 ac	 mov	 DWORD PTR tv144[ebp], eax
  0031e	eb 07		 jmp	 SHORT $L205675
$L205674:
  00320	c7 45 ac 00 00
	00 00		 mov	 DWORD PTR tv144[ebp], 0
$L205675:

; 33   : 	delete m_pBtnCut;

  00327	8b 45 c0	 mov	 eax, DWORD PTR _this$[ebp]
  0032a	8b 88 84 00 00
	00		 mov	 ecx, DWORD PTR [eax+132]
  00330	89 4d c4	 mov	 DWORD PTR $T205677[ebp], ecx
  00333	8b 55 c4	 mov	 edx, DWORD PTR $T205677[ebp]
  00336	89 55 c8	 mov	 DWORD PTR $T205676[ebp], edx
  00339	83 7d c8 00	 cmp	 DWORD PTR $T205676[ebp], 0
  0033d	74 12		 je	 SHORT $L205678
  0033f	6a 01		 push	 1
  00341	8b 45 c8	 mov	 eax, DWORD PTR $T205676[ebp]
  00344	8b 10		 mov	 edx, DWORD PTR [eax]
  00346	8b 4d c8	 mov	 ecx, DWORD PTR $T205676[ebp]
  00349	ff 52 04	 call	 DWORD PTR [edx+4]
  0034c	89 45 a8	 mov	 DWORD PTR tv152[ebp], eax
  0034f	eb 07		 jmp	 SHORT $L204578
$L205678:
  00351	c7 45 a8 00 00
	00 00		 mov	 DWORD PTR tv152[ebp], 0
$L204578:

; 34   : }

  00358	c6 45 fc 01	 mov	 BYTE PTR __$EHRec$[ebp+8], 1
  0035c	8b 4d c0	 mov	 ecx, DWORD PTR _this$[ebp]
  0035f	81 c1 88 00 00
	00		 add	 ecx, 136		; 00000088H
  00365	e8 00 00 00 00	 call	 ??1SWF_GAME@@QAE@XZ
  0036a	c6 45 fc 00	 mov	 BYTE PTR __$EHRec$[ebp+8], 0
  0036e	8b 4d c0	 mov	 ecx, DWORD PTR _this$[ebp]
  00371	83 c1 54	 add	 ecx, 84			; 00000054H
  00374	ff 15 00 00 00
	00		 call	 DWORD PTR __imp_??1?$basic_string@DU?$char_traits@D@std@@V?$allocator@D@2@@std@@QAE@XZ
  0037a	c7 45 fc ff ff
	ff ff		 mov	 DWORD PTR __$EHRec$[ebp+8], -1
  00381	8b 4d c0	 mov	 ecx, DWORD PTR _this$[ebp]
  00384	e8 00 00 00 00	 call	 ??1CBasicWnd@@UAE@XZ	; CBasicWnd::~CBasicWnd
  00389	8b 4d f4	 mov	 ecx, DWORD PTR __$EHRec$[ebp]
  0038c	64 89 0d 00 00
	00 00		 mov	 DWORD PTR fs:__except_list, ecx
  00393	8b e5		 mov	 esp, ebp
  00395	5d		 pop	 ebp
  00396	c3		 ret	 0
_TEXT	ENDS
text$x	SEGMENT
$L205680:
  00068	8b 4d c0	 mov	 ecx, DWORD PTR _this$[ebp]
  0006b	e9 00 00 00 00	 jmp	 ??1CBasicWnd@@UAE@XZ	; CBasicWnd::~CBasicWnd
$L205681:
  00070	8b 4d c0	 mov	 ecx, DWORD PTR _this$[ebp]
  00073	83 c1 54	 add	 ecx, 84			; 00000054H
  00076	ff 25 00 00 00
	00		 jmp	 DWORD PTR __imp_??1?$basic_string@DU?$char_traits@D@std@@V?$allocator@D@2@@std@@QAE@XZ
$L205682:
  0007c	8b 4d c0	 mov	 ecx, DWORD PTR _this$[ebp]
  0007f	81 c1 88 00 00
	00		 add	 ecx, 136		; 00000088H
  00085	e9 00 00 00 00	 jmp	 ??1SWF_GAME@@QAE@XZ
__ehhandler$??1CGameCtrlWnd@@UAE@XZ:
  0008a	b8 00 00 00 00	 mov	 eax, OFFSET FLAT:$T205684
  0008f	e9 00 00 00 00	 jmp	 ___CxxFrameHandler
text$x	ENDS
??1CGameCtrlWnd@@UAE@XZ ENDP				; CGameCtrlWnd::~CGameCtrlWnd
PUBLIC	?GetThisMessageMap@CGameCtrlWnd@@KGPBUAFX_MSGMAP@@XZ ; CGameCtrlWnd::GetThisMessageMap
; Function compile flags: /Odt
_TEXT	SEGMENT
?GetThisMessageMap@CGameCtrlWnd@@KGPBUAFX_MSGMAP@@XZ PROC NEAR ; CGameCtrlWnd::GetThisMessageMap

; 36   : BEGIN_MESSAGE_MAP(CGameCtrlWnd, CBasicWnd)

  003a0	55		 push	 ebp
  003a1	8b ec		 mov	 ebp, esp
  003a3	b8 00 00 00 00	 mov	 eax, OFFSET FLAT:?messageMap@CGameCtrlWnd@@1UAFX_MSGMAP@@B ; CGameCtrlWnd::messageMap
  003a8	5d		 pop	 ebp
  003a9	c3		 ret	 0
?GetThisMessageMap@CGameCtrlWnd@@KGPBUAFX_MSGMAP@@XZ ENDP ; CGameCtrlWnd::GetThisMessageMap
; Function compile flags: /Odt
_this$ = -4						; size = 4
?GetMessageMap@CGameCtrlWnd@@MBEPBUAFX_MSGMAP@@XZ PROC NEAR ; CGameCtrlWnd::GetMessageMap
; _this$ = ecx

; 36   : BEGIN_MESSAGE_MAP(CGameCtrlWnd, CBasicWnd)

  003b0	55		 push	 ebp
  003b1	8b ec		 mov	 ebp, esp
  003b3	51		 push	 ecx
  003b4	89 4d fc	 mov	 DWORD PTR _this$[ebp], ecx
  003b7	b8 00 00 00 00	 mov	 eax, OFFSET FLAT:?messageMap@CGameCtrlWnd@@1UAFX_MSGMAP@@B ; CGameCtrlWnd::messageMap
  003bc	8b e5		 mov	 esp, ebp
  003be	5d		 pop	 ebp
  003bf	c3		 ret	 0
?GetMessageMap@CGameCtrlWnd@@MBEPBUAFX_MSGMAP@@XZ ENDP	; CGameCtrlWnd::GetMessageMap
_TEXT	ENDS
PUBLIC	??0CRect@@QAE@HHHH@Z				; CRect::CRect
PUBLIC	?OnCreate@CWnd@@IAEHPAUtagCREATESTRUCTA@@@Z	; CWnd::OnCreate
PUBLIC	?UpdateAllWnd@CGameCtrlWnd@@QAEXXZ		; CGameCtrlWnd::UpdateAllWnd
EXTRN	__imp_??0?$CStringT@DV?$StrTraitMFC_DLL@DV?$ChTraitsCRT@D@ATL@@@@@ATL@@QAE@PBD@Z:NEAR
EXTRN	__imp_??1?$CStringT@DV?$StrTraitMFC_DLL@DV?$ChTraitsCRT@D@ATL@@@@@ATL@@QAE@XZ:NEAR
EXTRN	__imp_?YL_Log@@YAXABV?$basic_string@DU?$char_traits@D@std@@V?$allocator@D@2@@std@@H0PBDZZ:NEAR
EXTRN	__imp_??0?$basic_string@DU?$char_traits@D@std@@V?$allocator@D@2@@std@@QAE@PBD@Z:NEAR
EXTRN	?AfxGetUIManager@@YAPAVIUIManager@@XZ:NEAR	; AfxGetUIManager
xdata$x	SEGMENT
$T205721 DD	0ffffffffH
	DD	FLAT:$L205704
	DD	00H
	DD	FLAT:$L205705
	DD	0ffffffffH
	DD	FLAT:$L205712
	DD	0ffffffffH
	DD	FLAT:$L205714
	DD	0ffffffffH
	DD	FLAT:$L205716
	DD	04H
	DD	FLAT:$L205717
$T205719 DD	019930520H
	DD	06H
	DD	FLAT:$T205721
	DD	2 DUP(00H)
	DD	2 DUP(00H)
; Function compile flags: /Odt
xdata$x	ENDS
_TEXT	SEGMENT
tv419 = -240						; size = 4
tv416 = -236						; size = 4
tv66 = -232						; size = 4
tv414 = -228						; size = 4
tv411 = -224						; size = 4
tv72 = -220						; size = 4
tv409 = -216						; size = 4
tv406 = -212						; size = 4
tv403 = -208						; size = 4
tv400 = -204						; size = 4
tv397 = -200						; size = 4
tv394 = -196						; size = 4
tv191 = -192						; size = 4
_this$ = -188						; size = 4
$T205703 = -184						; size = 28
$T205702 = -156						; size = 28
$T205701 = -128						; size = 4
$T205700 = -124						; size = 4
$T205699 = -120						; size = 4
$T205698 = -116						; size = 4
$T205697 = -112						; size = 4
$T205696 = -108						; size = 4
$T205695 = -104						; size = 4
$T205694 = -100						; size = 4
$T205693 = -96						; size = 4
$T205692 = -92						; size = 4
$T205691 = -88						; size = 28
$T205690 = -60						; size = 28
_pLayoutMgr$ = -32					; size = 4
_rectNull$ = -28					; size = 16
__$EHRec$ = -12						; size = 12
_lpCreateStruct$ = 8					; size = 4
?OnCreate@CGameCtrlWnd@@IAEHPAUtagCREATESTRUCTA@@@Z PROC NEAR ; CGameCtrlWnd::OnCreate
; _this$ = ecx

; 49   : {

  003c0	55		 push	 ebp
  003c1	8b ec		 mov	 ebp, esp
  003c3	6a ff		 push	 -1
  003c5	68 00 00 00 00	 push	 __ehhandler$?OnCreate@CGameCtrlWnd@@IAEHPAUtagCREATESTRUCTA@@@Z
  003ca	64 a1 00 00 00
	00		 mov	 eax, DWORD PTR fs:__except_list
  003d0	50		 push	 eax
  003d1	64 89 25 00 00
	00 00		 mov	 DWORD PTR fs:__except_list, esp
  003d8	81 ec e4 00 00
	00		 sub	 esp, 228		; 000000e4H
  003de	89 8d 44 ff ff
	ff		 mov	 DWORD PTR _this$[ebp], ecx

; 50   : 	YL_Log("CGameCtrlWnd.txt", LOG_DEBUG, "CGameCtrlWnd::OnCreate", "===IN");

  003e4	68 00 00 00 00	 push	 OFFSET FLAT:$SG204637
  003e9	8d 4d c4	 lea	 ecx, DWORD PTR $T205690[ebp]
  003ec	ff 15 00 00 00
	00		 call	 DWORD PTR __imp_??0?$basic_string@DU?$char_traits@D@std@@V?$allocator@D@2@@std@@QAE@PBD@Z
  003f2	c7 45 fc 00 00
	00 00		 mov	 DWORD PTR __$EHRec$[ebp+8], 0
  003f9	68 00 00 00 00	 push	 OFFSET FLAT:$SG204638
  003fe	8d 4d a8	 lea	 ecx, DWORD PTR $T205691[ebp]
  00401	ff 15 00 00 00
	00		 call	 DWORD PTR __imp_??0?$basic_string@DU?$char_traits@D@std@@V?$allocator@D@2@@std@@QAE@PBD@Z
  00407	c6 45 fc 01	 mov	 BYTE PTR __$EHRec$[ebp+8], 1
  0040b	68 00 00 00 00	 push	 OFFSET FLAT:$SG204636
  00410	8d 45 c4	 lea	 eax, DWORD PTR $T205690[ebp]
  00413	50		 push	 eax
  00414	6a 00		 push	 0
  00416	8d 4d a8	 lea	 ecx, DWORD PTR $T205691[ebp]
  00419	51		 push	 ecx
  0041a	ff 15 00 00 00
	00		 call	 DWORD PTR __imp_?YL_Log@@YAXABV?$basic_string@DU?$char_traits@D@std@@V?$allocator@D@2@@std@@H0PBDZZ
  00420	83 c4 10	 add	 esp, 16			; 00000010H
  00423	c6 45 fc 00	 mov	 BYTE PTR __$EHRec$[ebp+8], 0
  00427	8d 4d a8	 lea	 ecx, DWORD PTR $T205691[ebp]
  0042a	ff 15 00 00 00
	00		 call	 DWORD PTR __imp_??1?$basic_string@DU?$char_traits@D@std@@V?$allocator@D@2@@std@@QAE@XZ
  00430	c7 45 fc ff ff
	ff ff		 mov	 DWORD PTR __$EHRec$[ebp+8], -1
  00437	8d 4d c4	 lea	 ecx, DWORD PTR $T205690[ebp]
  0043a	ff 15 00 00 00
	00		 call	 DWORD PTR __imp_??1?$basic_string@DU?$char_traits@D@std@@V?$allocator@D@2@@std@@QAE@XZ

; 51   : 	if(__super::OnCreate(lpCreateStruct) == -1)

  00440	8b 55 08	 mov	 edx, DWORD PTR _lpCreateStruct$[ebp]
  00443	52		 push	 edx
  00444	8b 8d 44 ff ff
	ff		 mov	 ecx, DWORD PTR _this$[ebp]
  0044a	e8 00 00 00 00	 call	 ?OnCreate@CWnd@@IAEHPAUtagCREATESTRUCTA@@@Z ; CWnd::OnCreate
  0044f	83 f8 ff	 cmp	 eax, -1
  00452	75 08		 jne	 SHORT $L204639

; 52   : 	{
; 53   : 		return -1;

  00454	83 c8 ff	 or	 eax, -1
  00457	e9 bf 03 00 00	 jmp	 $L204633
$L204639:

; 54   : 	}
; 55   : 	CRect rectNull(0,0,0,0);

  0045c	6a 00		 push	 0
  0045e	6a 00		 push	 0
  00460	6a 00		 push	 0
  00462	6a 00		 push	 0
  00464	8d 4d e4	 lea	 ecx, DWORD PTR _rectNull$[ebp]
  00467	e8 00 00 00 00	 call	 ??0CRect@@QAE@HHHH@Z	; CRect::CRect

; 56   : 
; 57   : 	m_pBtnRePlay->Create(NULL,WS_VISIBLE,rectNull,this,IDC_BTN_REPLAY);

  0046c	6a 76		 push	 118			; 00000076H
  0046e	8b 85 44 ff ff
	ff		 mov	 eax, DWORD PTR _this$[ebp]
  00474	50		 push	 eax
  00475	8d 4d e4	 lea	 ecx, DWORD PTR _rectNull$[ebp]
  00478	51		 push	 ecx
  00479	68 00 00 00 10	 push	 268435456		; 10000000H
  0047e	6a 00		 push	 0
  00480	8b 95 44 ff ff
	ff		 mov	 edx, DWORD PTR _this$[ebp]
  00486	8b 42 70	 mov	 eax, DWORD PTR [edx+112]
  00489	8b 8d 44 ff ff
	ff		 mov	 ecx, DWORD PTR _this$[ebp]
  0048f	8b 49 70	 mov	 ecx, DWORD PTR [ecx+112]
  00492	8b 10		 mov	 edx, DWORD PTR [eax]
  00494	ff 92 38 01 00
	00		 call	 DWORD PTR [edx+312]

; 58   : 	m_pBtnToFullScreen->Create(NULL,WS_VISIBLE,rectNull,this,IDC_BTN_FULL_SCREEN);

  0049a	6a 77		 push	 119			; 00000077H
  0049c	8b 85 44 ff ff
	ff		 mov	 eax, DWORD PTR _this$[ebp]
  004a2	50		 push	 eax
  004a3	8d 4d e4	 lea	 ecx, DWORD PTR _rectNull$[ebp]
  004a6	51		 push	 ecx
  004a7	68 00 00 00 10	 push	 268435456		; 10000000H
  004ac	6a 00		 push	 0
  004ae	8b 95 44 ff ff
	ff		 mov	 edx, DWORD PTR _this$[ebp]
  004b4	8b 42 7c	 mov	 eax, DWORD PTR [edx+124]
  004b7	8b 8d 44 ff ff
	ff		 mov	 ecx, DWORD PTR _this$[ebp]
  004bd	8b 49 7c	 mov	 ecx, DWORD PTR [ecx+124]
  004c0	8b 10		 mov	 edx, DWORD PTR [eax]
  004c2	ff 92 38 01 00
	00		 call	 DWORD PTR [edx+312]

; 59   : 	m_pBtnExitFullScreen->Create(NULL,WS_VISIBLE,rectNull,this,IDC_BTN_EXIT_FULL_SCREEN);

  004c8	68 81 00 00 00	 push	 129			; 00000081H
  004cd	8b 85 44 ff ff
	ff		 mov	 eax, DWORD PTR _this$[ebp]
  004d3	50		 push	 eax
  004d4	8d 4d e4	 lea	 ecx, DWORD PTR _rectNull$[ebp]
  004d7	51		 push	 ecx
  004d8	68 00 00 00 10	 push	 268435456		; 10000000H
  004dd	6a 00		 push	 0
  004df	8b 95 44 ff ff
	ff		 mov	 edx, DWORD PTR _this$[ebp]
  004e5	8b 82 80 00 00
	00		 mov	 eax, DWORD PTR [edx+128]
  004eb	8b 8d 44 ff ff
	ff		 mov	 ecx, DWORD PTR _this$[ebp]
  004f1	8b 89 80 00 00
	00		 mov	 ecx, DWORD PTR [ecx+128]
  004f7	8b 10		 mov	 edx, DWORD PTR [eax]
  004f9	ff 92 38 01 00
	00		 call	 DWORD PTR [edx+312]

; 60   : 	m_pBtnMute->Create(NULL,WS_VISIBLE,rectNull,this,IDC_BTN_MUTE);

  004ff	6a 7f		 push	 127			; 0000007fH
  00501	8b 85 44 ff ff
	ff		 mov	 eax, DWORD PTR _this$[ebp]
  00507	50		 push	 eax
  00508	8d 4d e4	 lea	 ecx, DWORD PTR _rectNull$[ebp]
  0050b	51		 push	 ecx
  0050c	68 00 00 00 10	 push	 268435456		; 10000000H
  00511	6a 00		 push	 0
  00513	8b 95 44 ff ff
	ff		 mov	 edx, DWORD PTR _this$[ebp]
  00519	8b 42 74	 mov	 eax, DWORD PTR [edx+116]
  0051c	8b 8d 44 ff ff
	ff		 mov	 ecx, DWORD PTR _this$[ebp]
  00522	8b 49 74	 mov	 ecx, DWORD PTR [ecx+116]
  00525	8b 10		 mov	 edx, DWORD PTR [eax]
  00527	ff 92 38 01 00
	00		 call	 DWORD PTR [edx+312]

; 61   : 	m_pBtnUnMute->Create(NULL,WS_VISIBLE,rectNull,this,IDC_BTN_UN_MUTE);

  0052d	68 85 00 00 00	 push	 133			; 00000085H
  00532	8b 85 44 ff ff
	ff		 mov	 eax, DWORD PTR _this$[ebp]
  00538	50		 push	 eax
  00539	8d 4d e4	 lea	 ecx, DWORD PTR _rectNull$[ebp]
  0053c	51		 push	 ecx
  0053d	68 00 00 00 10	 push	 268435456		; 10000000H
  00542	6a 00		 push	 0
  00544	8b 95 44 ff ff
	ff		 mov	 edx, DWORD PTR _this$[ebp]
  0054a	8b 42 78	 mov	 eax, DWORD PTR [edx+120]
  0054d	8b 8d 44 ff ff
	ff		 mov	 ecx, DWORD PTR _this$[ebp]
  00553	8b 49 78	 mov	 ecx, DWORD PTR [ecx+120]
  00556	8b 10		 mov	 edx, DWORD PTR [eax]
  00558	ff 92 38 01 00
	00		 call	 DWORD PTR [edx+312]

; 62   : 	m_pBtnCut->Create (NULL, WS_VISIBLE, rectNull, this, IDC_BTN_CUT);

  0055e	68 fc 00 00 00	 push	 252			; 000000fcH
  00563	8b 85 44 ff ff
	ff		 mov	 eax, DWORD PTR _this$[ebp]
  00569	50		 push	 eax
  0056a	8d 4d e4	 lea	 ecx, DWORD PTR _rectNull$[ebp]
  0056d	51		 push	 ecx
  0056e	68 00 00 00 10	 push	 268435456		; 10000000H
  00573	6a 00		 push	 0
  00575	8b 95 44 ff ff
	ff		 mov	 edx, DWORD PTR _this$[ebp]
  0057b	8b 82 84 00 00
	00		 mov	 eax, DWORD PTR [edx+132]
  00581	8b 8d 44 ff ff
	ff		 mov	 ecx, DWORD PTR _this$[ebp]
  00587	8b 89 84 00 00
	00		 mov	 ecx, DWORD PTR [ecx+132]
  0058d	8b 10		 mov	 edx, DWORD PTR [eax]
  0058f	ff 92 38 01 00
	00		 call	 DWORD PTR [edx+312]

; 63   : 
; 64   : 	ILayoutMgr* pLayoutMgr =  AfxGetUIManager()->UIGetLayoutMgr();

  00595	e8 00 00 00 00	 call	 ?AfxGetUIManager@@YAPAVIUIManager@@XZ ; AfxGetUIManager
  0059a	89 85 40 ff ff
	ff		 mov	 DWORD PTR tv191[ebp], eax
  005a0	8b 85 40 ff ff
	ff		 mov	 eax, DWORD PTR tv191[ebp]
  005a6	8b 10		 mov	 edx, DWORD PTR [eax]
  005a8	8b 8d 40 ff ff
	ff		 mov	 ecx, DWORD PTR tv191[ebp]
  005ae	ff 52 24	 call	 DWORD PTR [edx+36]
  005b1	89 45 e0	 mov	 DWORD PTR _pLayoutMgr$[ebp], eax

; 65   : 	
; 66   : 	pLayoutMgr->RegisterCtrl( this, "GameRePlay", m_pBtnRePlay );

  005b4	8b 85 44 ff ff
	ff		 mov	 eax, DWORD PTR _this$[ebp]
  005ba	8b 48 70	 mov	 ecx, DWORD PTR [eax+112]
  005bd	51		 push	 ecx
  005be	51		 push	 ecx
  005bf	8b cc		 mov	 ecx, esp
  005c1	89 65 a4	 mov	 DWORD PTR $T205692[ebp], esp
  005c4	68 00 00 00 00	 push	 OFFSET FLAT:$SG204643
  005c9	ff 15 00 00 00
	00		 call	 DWORD PTR __imp_??0?$CStringT@DV?$StrTraitMFC_DLL@DV?$ChTraitsCRT@D@ATL@@@@@ATL@@QAE@PBD@Z
  005cf	89 85 3c ff ff
	ff		 mov	 DWORD PTR tv394[ebp], eax
  005d5	8b 95 44 ff ff
	ff		 mov	 edx, DWORD PTR _this$[ebp]
  005db	52		 push	 edx
  005dc	8b 45 e0	 mov	 eax, DWORD PTR _pLayoutMgr$[ebp]
  005df	8b 10		 mov	 edx, DWORD PTR [eax]
  005e1	8b 4d e0	 mov	 ecx, DWORD PTR _pLayoutMgr$[ebp]
  005e4	ff 52 34	 call	 DWORD PTR [edx+52]

; 67   : 	pLayoutMgr->RegisterCtrl( this, "ToFull", m_pBtnToFullScreen );

  005e7	8b 85 44 ff ff
	ff		 mov	 eax, DWORD PTR _this$[ebp]
  005ed	8b 48 7c	 mov	 ecx, DWORD PTR [eax+124]
  005f0	51		 push	 ecx
  005f1	51		 push	 ecx
  005f2	8b cc		 mov	 ecx, esp
  005f4	89 65 a0	 mov	 DWORD PTR $T205693[ebp], esp
  005f7	68 00 00 00 00	 push	 OFFSET FLAT:$SG204645
  005fc	ff 15 00 00 00
	00		 call	 DWORD PTR __imp_??0?$CStringT@DV?$StrTraitMFC_DLL@DV?$ChTraitsCRT@D@ATL@@@@@ATL@@QAE@PBD@Z
  00602	89 85 38 ff ff
	ff		 mov	 DWORD PTR tv397[ebp], eax
  00608	8b 95 44 ff ff
	ff		 mov	 edx, DWORD PTR _this$[ebp]
  0060e	52		 push	 edx
  0060f	8b 45 e0	 mov	 eax, DWORD PTR _pLayoutMgr$[ebp]
  00612	8b 10		 mov	 edx, DWORD PTR [eax]
  00614	8b 4d e0	 mov	 ecx, DWORD PTR _pLayoutMgr$[ebp]
  00617	ff 52 34	 call	 DWORD PTR [edx+52]

; 68   : 	pLayoutMgr->RegisterCtrl( this, "ExitFull", m_pBtnExitFullScreen );

  0061a	8b 85 44 ff ff
	ff		 mov	 eax, DWORD PTR _this$[ebp]
  00620	8b 88 80 00 00
	00		 mov	 ecx, DWORD PTR [eax+128]
  00626	51		 push	 ecx
  00627	51		 push	 ecx
  00628	8b cc		 mov	 ecx, esp
  0062a	89 65 9c	 mov	 DWORD PTR $T205694[ebp], esp
  0062d	68 00 00 00 00	 push	 OFFSET FLAT:$SG204647
  00632	ff 15 00 00 00
	00		 call	 DWORD PTR __imp_??0?$CStringT@DV?$StrTraitMFC_DLL@DV?$ChTraitsCRT@D@ATL@@@@@ATL@@QAE@PBD@Z
  00638	89 85 34 ff ff
	ff		 mov	 DWORD PTR tv400[ebp], eax
  0063e	8b 95 44 ff ff
	ff		 mov	 edx, DWORD PTR _this$[ebp]
  00644	52		 push	 edx
  00645	8b 45 e0	 mov	 eax, DWORD PTR _pLayoutMgr$[ebp]
  00648	8b 10		 mov	 edx, DWORD PTR [eax]
  0064a	8b 4d e0	 mov	 ecx, DWORD PTR _pLayoutMgr$[ebp]
  0064d	ff 52 34	 call	 DWORD PTR [edx+52]

; 69   : 	pLayoutMgr->RegisterCtrl( this, "Mute", m_pBtnMute );

  00650	8b 85 44 ff ff
	ff		 mov	 eax, DWORD PTR _this$[ebp]
  00656	8b 48 74	 mov	 ecx, DWORD PTR [eax+116]
  00659	51		 push	 ecx
  0065a	51		 push	 ecx
  0065b	8b cc		 mov	 ecx, esp
  0065d	89 65 98	 mov	 DWORD PTR $T205695[ebp], esp
  00660	68 00 00 00 00	 push	 OFFSET FLAT:$SG204649
  00665	ff 15 00 00 00
	00		 call	 DWORD PTR __imp_??0?$CStringT@DV?$StrTraitMFC_DLL@DV?$ChTraitsCRT@D@ATL@@@@@ATL@@QAE@PBD@Z
  0066b	89 85 30 ff ff
	ff		 mov	 DWORD PTR tv403[ebp], eax
  00671	8b 95 44 ff ff
	ff		 mov	 edx, DWORD PTR _this$[ebp]
  00677	52		 push	 edx
  00678	8b 45 e0	 mov	 eax, DWORD PTR _pLayoutMgr$[ebp]
  0067b	8b 10		 mov	 edx, DWORD PTR [eax]
  0067d	8b 4d e0	 mov	 ecx, DWORD PTR _pLayoutMgr$[ebp]
  00680	ff 52 34	 call	 DWORD PTR [edx+52]

; 70   : 	pLayoutMgr->RegisterCtrl( this, "UnMute", m_pBtnUnMute );

  00683	8b 85 44 ff ff
	ff		 mov	 eax, DWORD PTR _this$[ebp]
  00689	8b 48 78	 mov	 ecx, DWORD PTR [eax+120]
  0068c	51		 push	 ecx
  0068d	51		 push	 ecx
  0068e	8b cc		 mov	 ecx, esp
  00690	89 65 94	 mov	 DWORD PTR $T205696[ebp], esp
  00693	68 00 00 00 00	 push	 OFFSET FLAT:$SG204651
  00698	ff 15 00 00 00
	00		 call	 DWORD PTR __imp_??0?$CStringT@DV?$StrTraitMFC_DLL@DV?$ChTraitsCRT@D@ATL@@@@@ATL@@QAE@PBD@Z
  0069e	89 85 2c ff ff
	ff		 mov	 DWORD PTR tv406[ebp], eax
  006a4	8b 95 44 ff ff
	ff		 mov	 edx, DWORD PTR _this$[ebp]
  006aa	52		 push	 edx
  006ab	8b 45 e0	 mov	 eax, DWORD PTR _pLayoutMgr$[ebp]
  006ae	8b 10		 mov	 edx, DWORD PTR [eax]
  006b0	8b 4d e0	 mov	 ecx, DWORD PTR _pLayoutMgr$[ebp]
  006b3	ff 52 34	 call	 DWORD PTR [edx+52]

; 71   : 	pLayoutMgr->RegisterCtrl (this, "Cut", m_pBtnCut);

  006b6	8b 85 44 ff ff
	ff		 mov	 eax, DWORD PTR _this$[ebp]
  006bc	8b 88 84 00 00
	00		 mov	 ecx, DWORD PTR [eax+132]
  006c2	51		 push	 ecx
  006c3	51		 push	 ecx
  006c4	8b cc		 mov	 ecx, esp
  006c6	89 65 90	 mov	 DWORD PTR $T205697[ebp], esp
  006c9	68 00 00 00 00	 push	 OFFSET FLAT:$SG204653
  006ce	ff 15 00 00 00
	00		 call	 DWORD PTR __imp_??0?$CStringT@DV?$StrTraitMFC_DLL@DV?$ChTraitsCRT@D@ATL@@@@@ATL@@QAE@PBD@Z
  006d4	89 85 28 ff ff
	ff		 mov	 DWORD PTR tv409[ebp], eax
  006da	8b 95 44 ff ff
	ff		 mov	 edx, DWORD PTR _this$[ebp]
  006e0	52		 push	 edx
  006e1	8b 45 e0	 mov	 eax, DWORD PTR _pLayoutMgr$[ebp]
  006e4	8b 10		 mov	 edx, DWORD PTR [eax]
  006e6	8b 4d e0	 mov	 ecx, DWORD PTR _pLayoutMgr$[ebp]
  006e9	ff 52 34	 call	 DWORD PTR [edx+52]

; 72   : 	
; 73   : 	pLayoutMgr->CreateControlPane( this, "GameCtrl", "normal" );

  006ec	51		 push	 ecx
  006ed	8b cc		 mov	 ecx, esp
  006ef	89 65 8c	 mov	 DWORD PTR $T205698[ebp], esp
  006f2	68 00 00 00 00	 push	 OFFSET FLAT:$SG204656
  006f7	ff 15 00 00 00
	00		 call	 DWORD PTR __imp_??0?$CStringT@DV?$StrTraitMFC_DLL@DV?$ChTraitsCRT@D@ATL@@@@@ATL@@QAE@PBD@Z
  006fd	89 85 24 ff ff
	ff		 mov	 DWORD PTR tv72[ebp], eax
  00703	8b 85 24 ff ff
	ff		 mov	 eax, DWORD PTR tv72[ebp]
  00709	89 85 20 ff ff
	ff		 mov	 DWORD PTR tv411[ebp], eax
  0070f	c7 45 fc 02 00
	00 00		 mov	 DWORD PTR __$EHRec$[ebp+8], 2
  00716	51		 push	 ecx
  00717	8b cc		 mov	 ecx, esp
  00719	89 65 88	 mov	 DWORD PTR $T205699[ebp], esp
  0071c	68 00 00 00 00	 push	 OFFSET FLAT:$SG204657
  00721	ff 15 00 00 00
	00		 call	 DWORD PTR __imp_??0?$CStringT@DV?$StrTraitMFC_DLL@DV?$ChTraitsCRT@D@ATL@@@@@ATL@@QAE@PBD@Z
  00727	89 85 1c ff ff
	ff		 mov	 DWORD PTR tv414[ebp], eax
  0072d	8b 8d 44 ff ff
	ff		 mov	 ecx, DWORD PTR _this$[ebp]
  00733	51		 push	 ecx
  00734	8b 55 e0	 mov	 edx, DWORD PTR _pLayoutMgr$[ebp]
  00737	8b 02		 mov	 eax, DWORD PTR [edx]
  00739	c7 45 fc ff ff
	ff ff		 mov	 DWORD PTR __$EHRec$[ebp+8], -1
  00740	8b 4d e0	 mov	 ecx, DWORD PTR _pLayoutMgr$[ebp]
  00743	ff 50 38	 call	 DWORD PTR [eax+56]

; 74   : 	pLayoutMgr->CreateBmpPane( this,"GameCtrl","normal" );

  00746	51		 push	 ecx
  00747	8b cc		 mov	 ecx, esp
  00749	89 65 84	 mov	 DWORD PTR $T205700[ebp], esp
  0074c	68 00 00 00 00	 push	 OFFSET FLAT:$SG204660
  00751	ff 15 00 00 00
	00		 call	 DWORD PTR __imp_??0?$CStringT@DV?$StrTraitMFC_DLL@DV?$ChTraitsCRT@D@ATL@@@@@ATL@@QAE@PBD@Z
  00757	89 85 18 ff ff
	ff		 mov	 DWORD PTR tv66[ebp], eax
  0075d	8b 8d 18 ff ff
	ff		 mov	 ecx, DWORD PTR tv66[ebp]
  00763	89 8d 14 ff ff
	ff		 mov	 DWORD PTR tv416[ebp], ecx
  00769	c7 45 fc 03 00
	00 00		 mov	 DWORD PTR __$EHRec$[ebp+8], 3
  00770	51		 push	 ecx
  00771	8b cc		 mov	 ecx, esp
  00773	89 65 80	 mov	 DWORD PTR $T205701[ebp], esp
  00776	68 00 00 00 00	 push	 OFFSET FLAT:$SG204661
  0077b	ff 15 00 00 00
	00		 call	 DWORD PTR __imp_??0?$CStringT@DV?$StrTraitMFC_DLL@DV?$ChTraitsCRT@D@ATL@@@@@ATL@@QAE@PBD@Z
  00781	89 85 10 ff ff
	ff		 mov	 DWORD PTR tv419[ebp], eax
  00787	8b 95 44 ff ff
	ff		 mov	 edx, DWORD PTR _this$[ebp]
  0078d	52		 push	 edx
  0078e	8b 45 e0	 mov	 eax, DWORD PTR _pLayoutMgr$[ebp]
  00791	8b 10		 mov	 edx, DWORD PTR [eax]
  00793	c7 45 fc ff ff
	ff ff		 mov	 DWORD PTR __$EHRec$[ebp+8], -1
  0079a	8b 4d e0	 mov	 ecx, DWORD PTR _pLayoutMgr$[ebp]
  0079d	ff 52 58	 call	 DWORD PTR [edx+88]

; 75   : 
; 76   : 	UpdateAllWnd();

  007a0	8b 8d 44 ff ff
	ff		 mov	 ecx, DWORD PTR _this$[ebp]
  007a6	e8 00 00 00 00	 call	 ?UpdateAllWnd@CGameCtrlWnd@@QAEXXZ ; CGameCtrlWnd::UpdateAllWnd

; 77   : 	YL_Log("CGameCtrlWnd.txt", LOG_DEBUG, "CGameCtrlWnd::OnCreate", "===OUT");

  007ab	68 00 00 00 00	 push	 OFFSET FLAT:$SG204665
  007b0	8d 8d 64 ff ff
	ff		 lea	 ecx, DWORD PTR $T205702[ebp]
  007b6	ff 15 00 00 00
	00		 call	 DWORD PTR __imp_??0?$basic_string@DU?$char_traits@D@std@@V?$allocator@D@2@@std@@QAE@PBD@Z
  007bc	c7 45 fc 04 00
	00 00		 mov	 DWORD PTR __$EHRec$[ebp+8], 4
  007c3	68 00 00 00 00	 push	 OFFSET FLAT:$SG204666
  007c8	8d 8d 48 ff ff
	ff		 lea	 ecx, DWORD PTR $T205703[ebp]
  007ce	ff 15 00 00 00
	00		 call	 DWORD PTR __imp_??0?$basic_string@DU?$char_traits@D@std@@V?$allocator@D@2@@std@@QAE@PBD@Z
  007d4	c6 45 fc 05	 mov	 BYTE PTR __$EHRec$[ebp+8], 5
  007d8	68 00 00 00 00	 push	 OFFSET FLAT:$SG204664
  007dd	8d 85 64 ff ff
	ff		 lea	 eax, DWORD PTR $T205702[ebp]
  007e3	50		 push	 eax
  007e4	6a 00		 push	 0
  007e6	8d 8d 48 ff ff
	ff		 lea	 ecx, DWORD PTR $T205703[ebp]
  007ec	51		 push	 ecx
  007ed	ff 15 00 00 00
	00		 call	 DWORD PTR __imp_?YL_Log@@YAXABV?$basic_string@DU?$char_traits@D@std@@V?$allocator@D@2@@std@@H0PBDZZ
  007f3	83 c4 10	 add	 esp, 16			; 00000010H
  007f6	c6 45 fc 04	 mov	 BYTE PTR __$EHRec$[ebp+8], 4
  007fa	8d 8d 48 ff ff
	ff		 lea	 ecx, DWORD PTR $T205703[ebp]
  00800	ff 15 00 00 00
	00		 call	 DWORD PTR __imp_??1?$basic_string@DU?$char_traits@D@std@@V?$allocator@D@2@@std@@QAE@XZ
  00806	c7 45 fc ff ff
	ff ff		 mov	 DWORD PTR __$EHRec$[ebp+8], -1
  0080d	8d 8d 64 ff ff
	ff		 lea	 ecx, DWORD PTR $T205702[ebp]
  00813	ff 15 00 00 00
	00		 call	 DWORD PTR __imp_??1?$basic_string@DU?$char_traits@D@std@@V?$allocator@D@2@@std@@QAE@XZ

; 78   : 	return 0;

  00819	33 c0		 xor	 eax, eax
$L204633:

; 79   : }

  0081b	8b 4d f4	 mov	 ecx, DWORD PTR __$EHRec$[ebp]
  0081e	64 89 0d 00 00
	00 00		 mov	 DWORD PTR fs:__except_list, ecx
  00825	8b e5		 mov	 esp, ebp
  00827	5d		 pop	 ebp
  00828	c2 04 00	 ret	 4
_TEXT	ENDS
text$x	SEGMENT
$L205704:
  00094	8d 4d c4	 lea	 ecx, DWORD PTR $T205690[ebp]
  00097	ff 25 00 00 00
	00		 jmp	 DWORD PTR __imp_??1?$basic_string@DU?$char_traits@D@std@@V?$allocator@D@2@@std@@QAE@XZ
$L205705:
  0009d	8d 4d a8	 lea	 ecx, DWORD PTR $T205691[ebp]
  000a0	ff 25 00 00 00
	00		 jmp	 DWORD PTR __imp_??1?$basic_string@DU?$char_traits@D@std@@V?$allocator@D@2@@std@@QAE@XZ
$L205712:
  000a6	8b 4d 8c	 mov	 ecx, DWORD PTR $T205698[ebp]
  000a9	ff 25 00 00 00
	00		 jmp	 DWORD PTR __imp_??1?$CStringT@DV?$StrTraitMFC_DLL@DV?$ChTraitsCRT@D@ATL@@@@@ATL@@QAE@XZ
$L205714:
  000af	8b 4d 84	 mov	 ecx, DWORD PTR $T205700[ebp]
  000b2	ff 25 00 00 00
	00		 jmp	 DWORD PTR __imp_??1?$CStringT@DV?$StrTraitMFC_DLL@DV?$ChTraitsCRT@D@ATL@@@@@ATL@@QAE@XZ
$L205716:
  000b8	8d 8d 64 ff ff
	ff		 lea	 ecx, DWORD PTR $T205702[ebp]
  000be	ff 25 00 00 00
	00		 jmp	 DWORD PTR __imp_??1?$basic_string@DU?$char_traits@D@std@@V?$allocator@D@2@@std@@QAE@XZ
$L205717:
  000c4	8d 8d 48 ff ff
	ff		 lea	 ecx, DWORD PTR $T205703[ebp]
  000ca	ff 25 00 00 00
	00		 jmp	 DWORD PTR __imp_??1?$basic_string@DU?$char_traits@D@std@@V?$allocator@D@2@@std@@QAE@XZ
__ehhandler$?OnCreate@CGameCtrlWnd@@IAEHPAUtagCREATESTRUCTA@@@Z:
  000d0	b8 00 00 00 00	 mov	 eax, OFFSET FLAT:$T205719
  000d5	e9 00 00 00 00	 jmp	 ___CxxFrameHandler
text$x	ENDS
?OnCreate@CGameCtrlWnd@@IAEHPAUtagCREATESTRUCTA@@@Z ENDP ; CGameCtrlWnd::OnCreate
PUBLIC	?GetParent@CWnd@@QBEPAV1@XZ			; CWnd::GetParent
PUBLIC	?PostMessageA@CWnd@@QAEHIIJ@Z			; CWnd::PostMessageA
xdata$x	SEGMENT
$T205734 DD	0ffffffffH
	DD	FLAT:$L205727
	DD	00H
	DD	FLAT:$L205728
	DD	0ffffffffH
	DD	FLAT:$L205729
	DD	02H
	DD	FLAT:$L205730
$T205732 DD	019930520H
	DD	04H
	DD	FLAT:$T205734
	DD	2 DUP(00H)
	DD	2 DUP(00H)
; Function compile flags: /Odt
xdata$x	ENDS
_TEXT	SEGMENT
_this$ = -128						; size = 4
$T205726 = -124						; size = 28
$T205725 = -96						; size = 28
$T205724 = -68						; size = 28
$T205723 = -40						; size = 28
__$EHRec$ = -12						; size = 12
?OnClickedReplay@CGameCtrlWnd@@IAEXXZ PROC NEAR		; CGameCtrlWnd::OnClickedReplay
; _this$ = ecx

; 82   : {

  00830	55		 push	 ebp
  00831	8b ec		 mov	 ebp, esp
  00833	6a ff		 push	 -1
  00835	68 00 00 00 00	 push	 __ehhandler$?OnClickedReplay@CGameCtrlWnd@@IAEXXZ
  0083a	64 a1 00 00 00
	00		 mov	 eax, DWORD PTR fs:__except_list
  00840	50		 push	 eax
  00841	64 89 25 00 00
	00 00		 mov	 DWORD PTR fs:__except_list, esp
  00848	83 ec 74	 sub	 esp, 116		; 00000074H
  0084b	89 4d 80	 mov	 DWORD PTR _this$[ebp], ecx

; 83   : 	YL_Log("CGameCtrlWnd.txt", LOG_DEBUG, "CGameCtrlWnd::OnClickedReplay", "===IN");

  0084e	68 00 00 00 00	 push	 OFFSET FLAT:$SG204673
  00853	8d 4d d8	 lea	 ecx, DWORD PTR $T205723[ebp]
  00856	ff 15 00 00 00
	00		 call	 DWORD PTR __imp_??0?$basic_string@DU?$char_traits@D@std@@V?$allocator@D@2@@std@@QAE@PBD@Z
  0085c	c7 45 fc 00 00
	00 00		 mov	 DWORD PTR __$EHRec$[ebp+8], 0
  00863	68 00 00 00 00	 push	 OFFSET FLAT:$SG204674
  00868	8d 4d bc	 lea	 ecx, DWORD PTR $T205724[ebp]
  0086b	ff 15 00 00 00
	00		 call	 DWORD PTR __imp_??0?$basic_string@DU?$char_traits@D@std@@V?$allocator@D@2@@std@@QAE@PBD@Z
  00871	c6 45 fc 01	 mov	 BYTE PTR __$EHRec$[ebp+8], 1
  00875	68 00 00 00 00	 push	 OFFSET FLAT:$SG204672
  0087a	8d 45 d8	 lea	 eax, DWORD PTR $T205723[ebp]
  0087d	50		 push	 eax
  0087e	6a 00		 push	 0
  00880	8d 4d bc	 lea	 ecx, DWORD PTR $T205724[ebp]
  00883	51		 push	 ecx
  00884	ff 15 00 00 00
	00		 call	 DWORD PTR __imp_?YL_Log@@YAXABV?$basic_string@DU?$char_traits@D@std@@V?$allocator@D@2@@std@@H0PBDZZ
  0088a	83 c4 10	 add	 esp, 16			; 00000010H
  0088d	c6 45 fc 00	 mov	 BYTE PTR __$EHRec$[ebp+8], 0
  00891	8d 4d bc	 lea	 ecx, DWORD PTR $T205724[ebp]
  00894	ff 15 00 00 00
	00		 call	 DWORD PTR __imp_??1?$basic_string@DU?$char_traits@D@std@@V?$allocator@D@2@@std@@QAE@XZ
  0089a	c7 45 fc ff ff
	ff ff		 mov	 DWORD PTR __$EHRec$[ebp+8], -1
  008a1	8d 4d d8	 lea	 ecx, DWORD PTR $T205723[ebp]
  008a4	ff 15 00 00 00
	00		 call	 DWORD PTR __imp_??1?$basic_string@DU?$char_traits@D@std@@V?$allocator@D@2@@std@@QAE@XZ

; 84   : 	GetParent()->PostMessage( WM_REPLAY );

  008aa	6a 00		 push	 0
  008ac	6a 00		 push	 0
  008ae	68 03 04 00 00	 push	 1027			; 00000403H
  008b3	8b 4d 80	 mov	 ecx, DWORD PTR _this$[ebp]
  008b6	e8 00 00 00 00	 call	 ?GetParent@CWnd@@QBEPAV1@XZ ; CWnd::GetParent
  008bb	8b c8		 mov	 ecx, eax
  008bd	e8 00 00 00 00	 call	 ?PostMessageA@CWnd@@QAEHIIJ@Z ; CWnd::PostMessageA

; 85   : 	//SetGameEntry( m_swfGame );
; 86   : 	YL_Log("CGameCtrlWnd.txt", LOG_DEBUG, "CGameCtrlWnd::OnClickedReplay", "===OUT");

  008c2	68 00 00 00 00	 push	 OFFSET FLAT:$SG204678
  008c7	8d 4d a0	 lea	 ecx, DWORD PTR $T205725[ebp]
  008ca	ff 15 00 00 00
	00		 call	 DWORD PTR __imp_??0?$basic_string@DU?$char_traits@D@std@@V?$allocator@D@2@@std@@QAE@PBD@Z
  008d0	c7 45 fc 02 00
	00 00		 mov	 DWORD PTR __$EHRec$[ebp+8], 2
  008d7	68 00 00 00 00	 push	 OFFSET FLAT:$SG204679
  008dc	8d 4d 84	 lea	 ecx, DWORD PTR $T205726[ebp]
  008df	ff 15 00 00 00
	00		 call	 DWORD PTR __imp_??0?$basic_string@DU?$char_traits@D@std@@V?$allocator@D@2@@std@@QAE@PBD@Z
  008e5	c6 45 fc 03	 mov	 BYTE PTR __$EHRec$[ebp+8], 3
  008e9	68 00 00 00 00	 push	 OFFSET FLAT:$SG204677
  008ee	8d 55 a0	 lea	 edx, DWORD PTR $T205725[ebp]
  008f1	52		 push	 edx
  008f2	6a 00		 push	 0
  008f4	8d 45 84	 lea	 eax, DWORD PTR $T205726[ebp]
  008f7	50		 push	 eax
  008f8	ff 15 00 00 00
	00		 call	 DWORD PTR __imp_?YL_Log@@YAXABV?$basic_string@DU?$char_traits@D@std@@V?$allocator@D@2@@std@@H0PBDZZ
  008fe	83 c4 10	 add	 esp, 16			; 00000010H
  00901	c6 45 fc 02	 mov	 BYTE PTR __$EHRec$[ebp+8], 2
  00905	8d 4d 84	 lea	 ecx, DWORD PTR $T205726[ebp]
  00908	ff 15 00 00 00
	00		 call	 DWORD PTR __imp_??1?$basic_string@DU?$char_traits@D@std@@V?$allocator@D@2@@std@@QAE@XZ
  0090e	c7 45 fc ff ff
	ff ff		 mov	 DWORD PTR __$EHRec$[ebp+8], -1
  00915	8d 4d a0	 lea	 ecx, DWORD PTR $T205725[ebp]
  00918	ff 15 00 00 00
	00		 call	 DWORD PTR __imp_??1?$basic_string@DU?$char_traits@D@std@@V?$allocator@D@2@@std@@QAE@XZ

; 87   : }

  0091e	8b 4d f4	 mov	 ecx, DWORD PTR __$EHRec$[ebp]
  00921	64 89 0d 00 00
	00 00		 mov	 DWORD PTR fs:__except_list, ecx
  00928	8b e5		 mov	 esp, ebp
  0092a	5d		 pop	 ebp
  0092b	c3		 ret	 0
_TEXT	ENDS
text$x	SEGMENT
$L205727:
  000da	8d 4d d8	 lea	 ecx, DWORD PTR $T205723[ebp]
  000dd	ff 25 00 00 00
	00		 jmp	 DWORD PTR __imp_??1?$basic_string@DU?$char_traits@D@std@@V?$allocator@D@2@@std@@QAE@XZ
$L205728:
  000e3	8d 4d bc	 lea	 ecx, DWORD PTR $T205724[ebp]
  000e6	ff 25 00 00 00
	00		 jmp	 DWORD PTR __imp_??1?$basic_string@DU?$char_traits@D@std@@V?$allocator@D@2@@std@@QAE@XZ
$L205729:
  000ec	8d 4d a0	 lea	 ecx, DWORD PTR $T205725[ebp]
  000ef	ff 25 00 00 00
	00		 jmp	 DWORD PTR __imp_??1?$basic_string@DU?$char_traits@D@std@@V?$allocator@D@2@@std@@QAE@XZ
$L205730:
  000f5	8d 4d 84	 lea	 ecx, DWORD PTR $T205726[ebp]
  000f8	ff 25 00 00 00
	00		 jmp	 DWORD PTR __imp_??1?$basic_string@DU?$char_traits@D@std@@V?$allocator@D@2@@std@@QAE@XZ
__ehhandler$?OnClickedReplay@CGameCtrlWnd@@IAEXXZ:
  000fe	b8 00 00 00 00	 mov	 eax, OFFSET FLAT:$T205732
  00103	e9 00 00 00 00	 jmp	 ___CxxFrameHandler
text$x	ENDS
?OnClickedReplay@CGameCtrlWnd@@IAEXXZ ENDP		; CGameCtrlWnd::OnClickedReplay
EXTRN	?AfxGetDataManager2@@YAPAVIDataManager@@XZ:NEAR	; AfxGetDataManager2
xdata$x	SEGMENT
$T205747 DD	0ffffffffH
	DD	FLAT:$L205740
	DD	00H
	DD	FLAT:$L205741
	DD	0ffffffffH
	DD	FLAT:$L205742
	DD	02H
	DD	FLAT:$L205743
$T205745 DD	019930520H
	DD	04H
	DD	FLAT:$T205747
	DD	2 DUP(00H)
	DD	2 DUP(00H)
; Function compile flags: /Odt
xdata$x	ENDS
_TEXT	SEGMENT
tv141 = -152						; size = 4
tv135 = -148						; size = 4
tv130 = -144						; size = 4
tv92 = -140						; size = 4
tv84 = -136						; size = 4
tv78 = -132						; size = 4
_this$ = -128						; size = 4
$T205739 = -124						; size = 28
$T205738 = -96						; size = 28
$T205737 = -68						; size = 28
$T205736 = -40						; size = 28
__$EHRec$ = -12						; size = 12
?OnClickedFullScreen@CGameCtrlWnd@@IAEXXZ PROC NEAR	; CGameCtrlWnd::OnClickedFullScreen
; _this$ = ecx

; 90   : {

  00930	55		 push	 ebp
  00931	8b ec		 mov	 ebp, esp
  00933	6a ff		 push	 -1
  00935	68 00 00 00 00	 push	 __ehhandler$?OnClickedFullScreen@CGameCtrlWnd@@IAEXXZ
  0093a	64 a1 00 00 00
	00		 mov	 eax, DWORD PTR fs:__except_list
  00940	50		 push	 eax
  00941	64 89 25 00 00
	00 00		 mov	 DWORD PTR fs:__except_list, esp
  00948	81 ec 8c 00 00
	00		 sub	 esp, 140		; 0000008cH
  0094e	89 4d 80	 mov	 DWORD PTR _this$[ebp], ecx

; 91   : 	YL_Log("CGameCtrlWnd.txt", LOG_DEBUG, "CGameCtrlWnd::OnClickedFullScreen", "===IN");

  00951	68 00 00 00 00	 push	 OFFSET FLAT:$SG204686
  00956	8d 4d d8	 lea	 ecx, DWORD PTR $T205736[ebp]
  00959	ff 15 00 00 00
	00		 call	 DWORD PTR __imp_??0?$basic_string@DU?$char_traits@D@std@@V?$allocator@D@2@@std@@QAE@PBD@Z
  0095f	c7 45 fc 00 00
	00 00		 mov	 DWORD PTR __$EHRec$[ebp+8], 0
  00966	68 00 00 00 00	 push	 OFFSET FLAT:$SG204687
  0096b	8d 4d bc	 lea	 ecx, DWORD PTR $T205737[ebp]
  0096e	ff 15 00 00 00
	00		 call	 DWORD PTR __imp_??0?$basic_string@DU?$char_traits@D@std@@V?$allocator@D@2@@std@@QAE@PBD@Z
  00974	c6 45 fc 01	 mov	 BYTE PTR __$EHRec$[ebp+8], 1
  00978	68 00 00 00 00	 push	 OFFSET FLAT:$SG204685
  0097d	8d 45 d8	 lea	 eax, DWORD PTR $T205736[ebp]
  00980	50		 push	 eax
  00981	6a 00		 push	 0
  00983	8d 4d bc	 lea	 ecx, DWORD PTR $T205737[ebp]
  00986	51		 push	 ecx
  00987	ff 15 00 00 00
	00		 call	 DWORD PTR __imp_?YL_Log@@YAXABV?$basic_string@DU?$char_traits@D@std@@V?$allocator@D@2@@std@@H0PBDZZ
  0098d	83 c4 10	 add	 esp, 16			; 00000010H
  00990	c6 45 fc 00	 mov	 BYTE PTR __$EHRec$[ebp+8], 0
  00994	8d 4d bc	 lea	 ecx, DWORD PTR $T205737[ebp]
  00997	ff 15 00 00 00
	00		 call	 DWORD PTR __imp_??1?$basic_string@DU?$char_traits@D@std@@V?$allocator@D@2@@std@@QAE@XZ
  0099d	c7 45 fc ff ff
	ff ff		 mov	 DWORD PTR __$EHRec$[ebp+8], -1
  009a4	8d 4d d8	 lea	 ecx, DWORD PTR $T205736[ebp]
  009a7	ff 15 00 00 00
	00		 call	 DWORD PTR __imp_??1?$basic_string@DU?$char_traits@D@std@@V?$allocator@D@2@@std@@QAE@XZ

; 92   : 
; 93   : 	if( GLOBAL_PANELCHANGEDATA->IPanelChange_IsFullScreen() )

  009ad	e8 00 00 00 00	 call	 ?AfxGetDataManager2@@YAPAVIDataManager@@XZ ; AfxGetDataManager2
  009b2	89 85 7c ff ff
	ff		 mov	 DWORD PTR tv78[ebp], eax
  009b8	68 00 00 00 00	 push	 OFFSET FLAT:_ID_DATA_PANELCHANGE
  009bd	8b 95 7c ff ff
	ff		 mov	 edx, DWORD PTR tv78[ebp]
  009c3	8b 02		 mov	 eax, DWORD PTR [edx]
  009c5	8b 8d 7c ff ff
	ff		 mov	 ecx, DWORD PTR tv78[ebp]
  009cb	ff 50 0c	 call	 DWORD PTR [eax+12]
  009ce	89 85 78 ff ff
	ff		 mov	 DWORD PTR tv84[ebp], eax
  009d4	8b 8d 78 ff ff
	ff		 mov	 ecx, DWORD PTR tv84[ebp]
  009da	8b 11		 mov	 edx, DWORD PTR [ecx]
  009dc	8b 8d 78 ff ff
	ff		 mov	 ecx, DWORD PTR tv84[ebp]
  009e2	ff 52 14	 call	 DWORD PTR [edx+20]
  009e5	0f b6 c0	 movzx	 eax, al
  009e8	85 c0		 test	 eax, eax
  009ea	74 3a		 je	 SHORT $L204689

; 94   : 	{
; 95   : 		GLOBAL_PANELCHANGEDATA->IPanelChange_ExitFullScreen();

  009ec	e8 00 00 00 00	 call	 ?AfxGetDataManager2@@YAPAVIDataManager@@XZ ; AfxGetDataManager2
  009f1	89 85 74 ff ff
	ff		 mov	 DWORD PTR tv92[ebp], eax
  009f7	68 00 00 00 00	 push	 OFFSET FLAT:_ID_DATA_PANELCHANGE
  009fc	8b 8d 74 ff ff
	ff		 mov	 ecx, DWORD PTR tv92[ebp]
  00a02	8b 11		 mov	 edx, DWORD PTR [ecx]
  00a04	8b 8d 74 ff ff
	ff		 mov	 ecx, DWORD PTR tv92[ebp]
  00a0a	ff 52 0c	 call	 DWORD PTR [edx+12]
  00a0d	89 85 70 ff ff
	ff		 mov	 DWORD PTR tv130[ebp], eax
  00a13	8b 85 70 ff ff
	ff		 mov	 eax, DWORD PTR tv130[ebp]
  00a19	8b 10		 mov	 edx, DWORD PTR [eax]
  00a1b	8b 8d 70 ff ff
	ff		 mov	 ecx, DWORD PTR tv130[ebp]
  00a21	ff 52 10	 call	 DWORD PTR [edx+16]

; 96   : 	}else

  00a24	eb 41		 jmp	 SHORT $L204691
$L204689:

; 97   : 	{
; 98   : 		GLOBAL_PANELCHANGEDATA->IPanelChange_ToFullScreen( GetParent() );

  00a26	e8 00 00 00 00	 call	 ?AfxGetDataManager2@@YAPAVIDataManager@@XZ ; AfxGetDataManager2
  00a2b	89 85 6c ff ff
	ff		 mov	 DWORD PTR tv135[ebp], eax
  00a31	68 00 00 00 00	 push	 OFFSET FLAT:_ID_DATA_PANELCHANGE
  00a36	8b 85 6c ff ff
	ff		 mov	 eax, DWORD PTR tv135[ebp]
  00a3c	8b 10		 mov	 edx, DWORD PTR [eax]
  00a3e	8b 8d 6c ff ff
	ff		 mov	 ecx, DWORD PTR tv135[ebp]
  00a44	ff 52 0c	 call	 DWORD PTR [edx+12]
  00a47	89 85 68 ff ff
	ff		 mov	 DWORD PTR tv141[ebp], eax
  00a4d	8b 4d 80	 mov	 ecx, DWORD PTR _this$[ebp]
  00a50	e8 00 00 00 00	 call	 ?GetParent@CWnd@@QBEPAV1@XZ ; CWnd::GetParent
  00a55	50		 push	 eax
  00a56	8b 85 68 ff ff
	ff		 mov	 eax, DWORD PTR tv141[ebp]
  00a5c	8b 10		 mov	 edx, DWORD PTR [eax]
  00a5e	8b 8d 68 ff ff
	ff		 mov	 ecx, DWORD PTR tv141[ebp]
  00a64	ff 52 0c	 call	 DWORD PTR [edx+12]
$L204691:

; 99   : 	}	
; 100  : 	YL_Log("CGameCtrlWnd.txt", LOG_DEBUG, "CGameCtrlWnd::OnClickedFullScreen", "===OUT");

  00a67	68 00 00 00 00	 push	 OFFSET FLAT:$SG204696
  00a6c	8d 4d a0	 lea	 ecx, DWORD PTR $T205738[ebp]
  00a6f	ff 15 00 00 00
	00		 call	 DWORD PTR __imp_??0?$basic_string@DU?$char_traits@D@std@@V?$allocator@D@2@@std@@QAE@PBD@Z
  00a75	c7 45 fc 02 00
	00 00		 mov	 DWORD PTR __$EHRec$[ebp+8], 2
  00a7c	68 00 00 00 00	 push	 OFFSET FLAT:$SG204697
  00a81	8d 4d 84	 lea	 ecx, DWORD PTR $T205739[ebp]
  00a84	ff 15 00 00 00
	00		 call	 DWORD PTR __imp_??0?$basic_string@DU?$char_traits@D@std@@V?$allocator@D@2@@std@@QAE@PBD@Z
  00a8a	c6 45 fc 03	 mov	 BYTE PTR __$EHRec$[ebp+8], 3
  00a8e	68 00 00 00 00	 push	 OFFSET FLAT:$SG204695
  00a93	8d 45 a0	 lea	 eax, DWORD PTR $T205738[ebp]
  00a96	50		 push	 eax
  00a97	6a 00		 push	 0
  00a99	8d 4d 84	 lea	 ecx, DWORD PTR $T205739[ebp]
  00a9c	51		 push	 ecx
  00a9d	ff 15 00 00 00
	00		 call	 DWORD PTR __imp_?YL_Log@@YAXABV?$basic_string@DU?$char_traits@D@std@@V?$allocator@D@2@@std@@H0PBDZZ
  00aa3	83 c4 10	 add	 esp, 16			; 00000010H
  00aa6	c6 45 fc 02	 mov	 BYTE PTR __$EHRec$[ebp+8], 2
  00aaa	8d 4d 84	 lea	 ecx, DWORD PTR $T205739[ebp]
  00aad	ff 15 00 00 00
	00		 call	 DWORD PTR __imp_??1?$basic_string@DU?$char_traits@D@std@@V?$allocator@D@2@@std@@QAE@XZ
  00ab3	c7 45 fc ff ff
	ff ff		 mov	 DWORD PTR __$EHRec$[ebp+8], -1
  00aba	8d 4d a0	 lea	 ecx, DWORD PTR $T205738[ebp]
  00abd	ff 15 00 00 00
	00		 call	 DWORD PTR __imp_??1?$basic_string@DU?$char_traits@D@std@@V?$allocator@D@2@@std@@QAE@XZ

; 101  : }

  00ac3	8b 4d f4	 mov	 ecx, DWORD PTR __$EHRec$[ebp]
  00ac6	64 89 0d 00 00
	00 00		 mov	 DWORD PTR fs:__except_list, ecx
  00acd	8b e5		 mov	 esp, ebp
  00acf	5d		 pop	 ebp
  00ad0	c3		 ret	 0
_TEXT	ENDS
text$x	SEGMENT
$L205740:
  00108	8d 4d d8	 lea	 ecx, DWORD PTR $T205736[ebp]
  0010b	ff 25 00 00 00
	00		 jmp	 DWORD PTR __imp_??1?$basic_string@DU?$char_traits@D@std@@V?$allocator@D@2@@std@@QAE@XZ
$L205741:
  00111	8d 4d bc	 lea	 ecx, DWORD PTR $T205737[ebp]
  00114	ff 25 00 00 00
	00		 jmp	 DWORD PTR __imp_??1?$basic_string@DU?$char_traits@D@std@@V?$allocator@D@2@@std@@QAE@XZ
$L205742:
  0011a	8d 4d a0	 lea	 ecx, DWORD PTR $T205738[ebp]
  0011d	ff 25 00 00 00
	00		 jmp	 DWORD PTR __imp_??1?$basic_string@DU?$char_traits@D@std@@V?$allocator@D@2@@std@@QAE@XZ
$L205743:
  00123	8d 4d 84	 lea	 ecx, DWORD PTR $T205739[ebp]
  00126	ff 25 00 00 00
	00		 jmp	 DWORD PTR __imp_??1?$basic_string@DU?$char_traits@D@std@@V?$allocator@D@2@@std@@QAE@XZ
__ehhandler$?OnClickedFullScreen@CGameCtrlWnd@@IAEXXZ:
  0012c	b8 00 00 00 00	 mov	 eax, OFFSET FLAT:$T205745
  00131	e9 00 00 00 00	 jmp	 ___CxxFrameHandler
text$x	ENDS
?OnClickedFullScreen@CGameCtrlWnd@@IAEXXZ ENDP		; CGameCtrlWnd::OnClickedFullScreen
xdata$x	SEGMENT
$T205760 DD	0ffffffffH
	DD	FLAT:$L205753
	DD	00H
	DD	FLAT:$L205754
	DD	0ffffffffH
	DD	FLAT:$L205755
	DD	02H
	DD	FLAT:$L205756
$T205758 DD	019930520H
	DD	04H
	DD	FLAT:$T205760
	DD	2 DUP(00H)
	DD	2 DUP(00H)
; Function compile flags: /Odt
xdata$x	ENDS
_TEXT	SEGMENT
tv141 = -152						; size = 4
tv135 = -148						; size = 4
tv130 = -144						; size = 4
tv92 = -140						; size = 4
tv84 = -136						; size = 4
tv78 = -132						; size = 4
_this$ = -128						; size = 4
$T205752 = -124						; size = 28
$T205751 = -96						; size = 28
$T205750 = -68						; size = 28
$T205749 = -40						; size = 28
__$EHRec$ = -12						; size = 12
?OnClickedExitFullScreen@CGameCtrlWnd@@IAEXXZ PROC NEAR	; CGameCtrlWnd::OnClickedExitFullScreen
; _this$ = ecx

; 104  : {

  00ae0	55		 push	 ebp
  00ae1	8b ec		 mov	 ebp, esp
  00ae3	6a ff		 push	 -1
  00ae5	68 00 00 00 00	 push	 __ehhandler$?OnClickedExitFullScreen@CGameCtrlWnd@@IAEXXZ
  00aea	64 a1 00 00 00
	00		 mov	 eax, DWORD PTR fs:__except_list
  00af0	50		 push	 eax
  00af1	64 89 25 00 00
	00 00		 mov	 DWORD PTR fs:__except_list, esp
  00af8	81 ec 8c 00 00
	00		 sub	 esp, 140		; 0000008cH
  00afe	89 4d 80	 mov	 DWORD PTR _this$[ebp], ecx

; 105  : 	YL_Log("CGameCtrlWnd.txt", LOG_DEBUG, "CGameCtrlWnd::OnClickedFullScreen", "===IN");

  00b01	68 00 00 00 00	 push	 OFFSET FLAT:$SG204704
  00b06	8d 4d d8	 lea	 ecx, DWORD PTR $T205749[ebp]
  00b09	ff 15 00 00 00
	00		 call	 DWORD PTR __imp_??0?$basic_string@DU?$char_traits@D@std@@V?$allocator@D@2@@std@@QAE@PBD@Z
  00b0f	c7 45 fc 00 00
	00 00		 mov	 DWORD PTR __$EHRec$[ebp+8], 0
  00b16	68 00 00 00 00	 push	 OFFSET FLAT:$SG204705
  00b1b	8d 4d bc	 lea	 ecx, DWORD PTR $T205750[ebp]
  00b1e	ff 15 00 00 00
	00		 call	 DWORD PTR __imp_??0?$basic_string@DU?$char_traits@D@std@@V?$allocator@D@2@@std@@QAE@PBD@Z
  00b24	c6 45 fc 01	 mov	 BYTE PTR __$EHRec$[ebp+8], 1
  00b28	68 00 00 00 00	 push	 OFFSET FLAT:$SG204703
  00b2d	8d 45 d8	 lea	 eax, DWORD PTR $T205749[ebp]
  00b30	50		 push	 eax
  00b31	6a 00		 push	 0
  00b33	8d 4d bc	 lea	 ecx, DWORD PTR $T205750[ebp]
  00b36	51		 push	 ecx
  00b37	ff 15 00 00 00
	00		 call	 DWORD PTR __imp_?YL_Log@@YAXABV?$basic_string@DU?$char_traits@D@std@@V?$allocator@D@2@@std@@H0PBDZZ
  00b3d	83 c4 10	 add	 esp, 16			; 00000010H
  00b40	c6 45 fc 00	 mov	 BYTE PTR __$EHRec$[ebp+8], 0
  00b44	8d 4d bc	 lea	 ecx, DWORD PTR $T205750[ebp]
  00b47	ff 15 00 00 00
	00		 call	 DWORD PTR __imp_??1?$basic_string@DU?$char_traits@D@std@@V?$allocator@D@2@@std@@QAE@XZ
  00b4d	c7 45 fc ff ff
	ff ff		 mov	 DWORD PTR __$EHRec$[ebp+8], -1
  00b54	8d 4d d8	 lea	 ecx, DWORD PTR $T205749[ebp]
  00b57	ff 15 00 00 00
	00		 call	 DWORD PTR __imp_??1?$basic_string@DU?$char_traits@D@std@@V?$allocator@D@2@@std@@QAE@XZ

; 106  : 
; 107  : 	if( GLOBAL_PANELCHANGEDATA->IPanelChange_IsFullScreen() )

  00b5d	e8 00 00 00 00	 call	 ?AfxGetDataManager2@@YAPAVIDataManager@@XZ ; AfxGetDataManager2
  00b62	89 85 7c ff ff
	ff		 mov	 DWORD PTR tv78[ebp], eax
  00b68	68 00 00 00 00	 push	 OFFSET FLAT:_ID_DATA_PANELCHANGE
  00b6d	8b 95 7c ff ff
	ff		 mov	 edx, DWORD PTR tv78[ebp]
  00b73	8b 02		 mov	 eax, DWORD PTR [edx]
  00b75	8b 8d 7c ff ff
	ff		 mov	 ecx, DWORD PTR tv78[ebp]
  00b7b	ff 50 0c	 call	 DWORD PTR [eax+12]
  00b7e	89 85 78 ff ff
	ff		 mov	 DWORD PTR tv84[ebp], eax
  00b84	8b 8d 78 ff ff
	ff		 mov	 ecx, DWORD PTR tv84[ebp]
  00b8a	8b 11		 mov	 edx, DWORD PTR [ecx]
  00b8c	8b 8d 78 ff ff
	ff		 mov	 ecx, DWORD PTR tv84[ebp]
  00b92	ff 52 14	 call	 DWORD PTR [edx+20]
  00b95	0f b6 c0	 movzx	 eax, al
  00b98	85 c0		 test	 eax, eax
  00b9a	74 3a		 je	 SHORT $L204707

; 108  : 	{
; 109  : 		GLOBAL_PANELCHANGEDATA->IPanelChange_ExitFullScreen();

  00b9c	e8 00 00 00 00	 call	 ?AfxGetDataManager2@@YAPAVIDataManager@@XZ ; AfxGetDataManager2
  00ba1	89 85 74 ff ff
	ff		 mov	 DWORD PTR tv92[ebp], eax
  00ba7	68 00 00 00 00	 push	 OFFSET FLAT:_ID_DATA_PANELCHANGE
  00bac	8b 8d 74 ff ff
	ff		 mov	 ecx, DWORD PTR tv92[ebp]
  00bb2	8b 11		 mov	 edx, DWORD PTR [ecx]
  00bb4	8b 8d 74 ff ff
	ff		 mov	 ecx, DWORD PTR tv92[ebp]
  00bba	ff 52 0c	 call	 DWORD PTR [edx+12]
  00bbd	89 85 70 ff ff
	ff		 mov	 DWORD PTR tv130[ebp], eax
  00bc3	8b 85 70 ff ff
	ff		 mov	 eax, DWORD PTR tv130[ebp]
  00bc9	8b 10		 mov	 edx, DWORD PTR [eax]
  00bcb	8b 8d 70 ff ff
	ff		 mov	 ecx, DWORD PTR tv130[ebp]
  00bd1	ff 52 10	 call	 DWORD PTR [edx+16]

; 110  : 	}else

  00bd4	eb 41		 jmp	 SHORT $L204709
$L204707:

; 111  : 	{
; 112  : 		GLOBAL_PANELCHANGEDATA->IPanelChange_ToFullScreen( GetParent() );

  00bd6	e8 00 00 00 00	 call	 ?AfxGetDataManager2@@YAPAVIDataManager@@XZ ; AfxGetDataManager2
  00bdb	89 85 6c ff ff
	ff		 mov	 DWORD PTR tv135[ebp], eax
  00be1	68 00 00 00 00	 push	 OFFSET FLAT:_ID_DATA_PANELCHANGE
  00be6	8b 85 6c ff ff
	ff		 mov	 eax, DWORD PTR tv135[ebp]
  00bec	8b 10		 mov	 edx, DWORD PTR [eax]
  00bee	8b 8d 6c ff ff
	ff		 mov	 ecx, DWORD PTR tv135[ebp]
  00bf4	ff 52 0c	 call	 DWORD PTR [edx+12]
  00bf7	89 85 68 ff ff
	ff		 mov	 DWORD PTR tv141[ebp], eax
  00bfd	8b 4d 80	 mov	 ecx, DWORD PTR _this$[ebp]
  00c00	e8 00 00 00 00	 call	 ?GetParent@CWnd@@QBEPAV1@XZ ; CWnd::GetParent
  00c05	50		 push	 eax
  00c06	8b 85 68 ff ff
	ff		 mov	 eax, DWORD PTR tv141[ebp]
  00c0c	8b 10		 mov	 edx, DWORD PTR [eax]
  00c0e	8b 8d 68 ff ff
	ff		 mov	 ecx, DWORD PTR tv141[ebp]
  00c14	ff 52 0c	 call	 DWORD PTR [edx+12]
$L204709:

; 113  : 	}	
; 114  : 	YL_Log("CGameCtrlWnd.txt", LOG_DEBUG, "CGameCtrlWnd::OnClickedFullScreen", "===OUT");

  00c17	68 00 00 00 00	 push	 OFFSET FLAT:$SG204714
  00c1c	8d 4d a0	 lea	 ecx, DWORD PTR $T205751[ebp]
  00c1f	ff 15 00 00 00
	00		 call	 DWORD PTR __imp_??0?$basic_string@DU?$char_traits@D@std@@V?$allocator@D@2@@std@@QAE@PBD@Z
  00c25	c7 45 fc 02 00
	00 00		 mov	 DWORD PTR __$EHRec$[ebp+8], 2
  00c2c	68 00 00 00 00	 push	 OFFSET FLAT:$SG204715
  00c31	8d 4d 84	 lea	 ecx, DWORD PTR $T205752[ebp]
  00c34	ff 15 00 00 00
	00		 call	 DWORD PTR __imp_??0?$basic_string@DU?$char_traits@D@std@@V?$allocator@D@2@@std@@QAE@PBD@Z
  00c3a	c6 45 fc 03	 mov	 BYTE PTR __$EHRec$[ebp+8], 3
  00c3e	68 00 00 00 00	 push	 OFFSET FLAT:$SG204713
  00c43	8d 45 a0	 lea	 eax, DWORD PTR $T205751[ebp]
  00c46	50		 push	 eax
  00c47	6a 00		 push	 0
  00c49	8d 4d 84	 lea	 ecx, DWORD PTR $T205752[ebp]
  00c4c	51		 push	 ecx
  00c4d	ff 15 00 00 00
	00		 call	 DWORD PTR __imp_?YL_Log@@YAXABV?$basic_string@DU?$char_traits@D@std@@V?$allocator@D@2@@std@@H0PBDZZ
  00c53	83 c4 10	 add	 esp, 16			; 00000010H
  00c56	c6 45 fc 02	 mov	 BYTE PTR __$EHRec$[ebp+8], 2
  00c5a	8d 4d 84	 lea	 ecx, DWORD PTR $T205752[ebp]
  00c5d	ff 15 00 00 00
	00		 call	 DWORD PTR __imp_??1?$basic_string@DU?$char_traits@D@std@@V?$allocator@D@2@@std@@QAE@XZ
  00c63	c7 45 fc ff ff
	ff ff		 mov	 DWORD PTR __$EHRec$[ebp+8], -1
  00c6a	8d 4d a0	 lea	 ecx, DWORD PTR $T205751[ebp]
  00c6d	ff 15 00 00 00
	00		 call	 DWORD PTR __imp_??1?$basic_string@DU?$char_traits@D@std@@V?$allocator@D@2@@std@@QAE@XZ

; 115  : }

  00c73	8b 4d f4	 mov	 ecx, DWORD PTR __$EHRec$[ebp]
  00c76	64 89 0d 00 00
	00 00		 mov	 DWORD PTR fs:__except_list, ecx
  00c7d	8b e5		 mov	 esp, ebp
  00c7f	5d		 pop	 ebp
  00c80	c3		 ret	 0
_TEXT	ENDS
text$x	SEGMENT
$L205753:
  00136	8d 4d d8	 lea	 ecx, DWORD PTR $T205749[ebp]
  00139	ff 25 00 00 00
	00		 jmp	 DWORD PTR __imp_??1?$basic_string@DU?$char_traits@D@std@@V?$allocator@D@2@@std@@QAE@XZ
$L205754:
  0013f	8d 4d bc	 lea	 ecx, DWORD PTR $T205750[ebp]
  00142	ff 25 00 00 00
	00		 jmp	 DWORD PTR __imp_??1?$basic_string@DU?$char_traits@D@std@@V?$allocator@D@2@@std@@QAE@XZ
$L205755:
  00148	8d 4d a0	 lea	 ecx, DWORD PTR $T205751[ebp]
  0014b	ff 25 00 00 00
	00		 jmp	 DWORD PTR __imp_??1?$basic_string@DU?$char_traits@D@std@@V?$allocator@D@2@@std@@QAE@XZ
$L205756:
  00151	8d 4d 84	 lea	 ecx, DWORD PTR $T205752[ebp]
  00154	ff 25 00 00 00
	00		 jmp	 DWORD PTR __imp_??1?$basic_string@DU?$char_traits@D@std@@V?$allocator@D@2@@std@@QAE@XZ
__ehhandler$?OnClickedExitFullScreen@CGameCtrlWnd@@IAEXXZ:
  0015a	b8 00 00 00 00	 mov	 eax, OFFSET FLAT:$T205758
  0015f	e9 00 00 00 00	 jmp	 ___CxxFrameHandler
text$x	ENDS
?OnClickedExitFullScreen@CGameCtrlWnd@@IAEXXZ ENDP	; CGameCtrlWnd::OnClickedExitFullScreen
PUBLIC	?Invalidate@CWnd@@QAEXH@Z			; CWnd::Invalidate
EXTRN	?ShowWindow@CWnd@@QAEHH@Z:NEAR			; CWnd::ShowWindow
EXTRN	?GetMute@CSound@@QAE_NJ@Z:NEAR			; CSound::GetMute
EXTRN	?GetInstance@CSound@@SAPAV1@XZ:NEAR		; CSound::GetInstance
xdata$x	SEGMENT
$T205773 DD	0ffffffffH
	DD	FLAT:$L205766
	DD	00H
	DD	FLAT:$L205767
	DD	0ffffffffH
	DD	FLAT:$L205768
	DD	02H
	DD	FLAT:$L205769
$T205771 DD	019930520H
	DD	04H
	DD	FLAT:$T205773
	DD	2 DUP(00H)
	DD	2 DUP(00H)
; Function compile flags: /Odt
xdata$x	ENDS
_TEXT	SEGMENT
tv146 = -136						; size = 4
tv140 = -132						; size = 4
_this$ = -128						; size = 4
$T205765 = -124						; size = 28
$T205764 = -96						; size = 28
$T205763 = -68						; size = 28
$T205762 = -40						; size = 28
__$EHRec$ = -12						; size = 12
?UpdateAllWnd@CGameCtrlWnd@@QAEXXZ PROC NEAR		; CGameCtrlWnd::UpdateAllWnd
; _this$ = ecx

; 118  : {

  00c90	55		 push	 ebp
  00c91	8b ec		 mov	 ebp, esp
  00c93	6a ff		 push	 -1
  00c95	68 00 00 00 00	 push	 __ehhandler$?UpdateAllWnd@CGameCtrlWnd@@QAEXXZ
  00c9a	64 a1 00 00 00
	00		 mov	 eax, DWORD PTR fs:__except_list
  00ca0	50		 push	 eax
  00ca1	64 89 25 00 00
	00 00		 mov	 DWORD PTR fs:__except_list, esp
  00ca8	83 ec 7c	 sub	 esp, 124		; 0000007cH
  00cab	89 4d 80	 mov	 DWORD PTR _this$[ebp], ecx

; 119  : 	YL_Log("CGameCtrlWnd.txt", LOG_DEBUG, "CGameCtrlWnd::UpdateAllWnd", "===IN");

  00cae	68 00 00 00 00	 push	 OFFSET FLAT:$SG204722
  00cb3	8d 4d d8	 lea	 ecx, DWORD PTR $T205762[ebp]
  00cb6	ff 15 00 00 00
	00		 call	 DWORD PTR __imp_??0?$basic_string@DU?$char_traits@D@std@@V?$allocator@D@2@@std@@QAE@PBD@Z
  00cbc	c7 45 fc 00 00
	00 00		 mov	 DWORD PTR __$EHRec$[ebp+8], 0
  00cc3	68 00 00 00 00	 push	 OFFSET FLAT:$SG204723
  00cc8	8d 4d bc	 lea	 ecx, DWORD PTR $T205763[ebp]
  00ccb	ff 15 00 00 00
	00		 call	 DWORD PTR __imp_??0?$basic_string@DU?$char_traits@D@std@@V?$allocator@D@2@@std@@QAE@PBD@Z
  00cd1	c6 45 fc 01	 mov	 BYTE PTR __$EHRec$[ebp+8], 1
  00cd5	68 00 00 00 00	 push	 OFFSET FLAT:$SG204721
  00cda	8d 45 d8	 lea	 eax, DWORD PTR $T205762[ebp]
  00cdd	50		 push	 eax
  00cde	6a 00		 push	 0
  00ce0	8d 4d bc	 lea	 ecx, DWORD PTR $T205763[ebp]
  00ce3	51		 push	 ecx
  00ce4	ff 15 00 00 00
	00		 call	 DWORD PTR __imp_?YL_Log@@YAXABV?$basic_string@DU?$char_traits@D@std@@V?$allocator@D@2@@std@@H0PBDZZ
  00cea	83 c4 10	 add	 esp, 16			; 00000010H
  00ced	c6 45 fc 00	 mov	 BYTE PTR __$EHRec$[ebp+8], 0
  00cf1	8d 4d bc	 lea	 ecx, DWORD PTR $T205763[ebp]
  00cf4	ff 15 00 00 00
	00		 call	 DWORD PTR __imp_??1?$basic_string@DU?$char_traits@D@std@@V?$allocator@D@2@@std@@QAE@XZ
  00cfa	c7 45 fc ff ff
	ff ff		 mov	 DWORD PTR __$EHRec$[ebp+8], -1
  00d01	8d 4d d8	 lea	 ecx, DWORD PTR $T205762[ebp]
  00d04	ff 15 00 00 00
	00		 call	 DWORD PTR __imp_??1?$basic_string@DU?$char_traits@D@std@@V?$allocator@D@2@@std@@QAE@XZ

; 120  : 	//
; 121  : 	m_pBtnRePlay->ShowWindow( SW_SHOW );

  00d0a	6a 05		 push	 5
  00d0c	8b 55 80	 mov	 edx, DWORD PTR _this$[ebp]
  00d0f	8b 4a 70	 mov	 ecx, DWORD PTR [edx+112]
  00d12	e8 00 00 00 00	 call	 ?ShowWindow@CWnd@@QAEHH@Z ; CWnd::ShowWindow

; 122  : 	m_pBtnRePlay->Invalidate();

  00d17	6a 01		 push	 1
  00d19	8b 45 80	 mov	 eax, DWORD PTR _this$[ebp]
  00d1c	8b 48 70	 mov	 ecx, DWORD PTR [eax+112]
  00d1f	e8 00 00 00 00	 call	 ?Invalidate@CWnd@@QAEXH@Z ; CWnd::Invalidate

; 123  : 	//
; 124  : 	if( CSound::GetInstance()->GetMute( 1 ) )

  00d24	6a 01		 push	 1
  00d26	e8 00 00 00 00	 call	 ?GetInstance@CSound@@SAPAV1@XZ ; CSound::GetInstance
  00d2b	8b c8		 mov	 ecx, eax
  00d2d	e8 00 00 00 00	 call	 ?GetMute@CSound@@QAE_NJ@Z ; CSound::GetMute
  00d32	0f b6 c8	 movzx	 ecx, al
  00d35	85 c9		 test	 ecx, ecx
  00d37	74 1c		 je	 SHORT $L204724

; 125  : 	{
; 126  : 		m_pBtnMute->ShowWindow( SW_HIDE );

  00d39	6a 00		 push	 0
  00d3b	8b 55 80	 mov	 edx, DWORD PTR _this$[ebp]
  00d3e	8b 4a 74	 mov	 ecx, DWORD PTR [edx+116]
  00d41	e8 00 00 00 00	 call	 ?ShowWindow@CWnd@@QAEHH@Z ; CWnd::ShowWindow

; 127  : 		m_pBtnUnMute->ShowWindow( SW_SHOW );

  00d46	6a 05		 push	 5
  00d48	8b 45 80	 mov	 eax, DWORD PTR _this$[ebp]
  00d4b	8b 48 78	 mov	 ecx, DWORD PTR [eax+120]
  00d4e	e8 00 00 00 00	 call	 ?ShowWindow@CWnd@@QAEHH@Z ; CWnd::ShowWindow

; 128  : 	}else

  00d53	eb 1a		 jmp	 SHORT $L204725
$L204724:

; 129  : 	{
; 130  : 		m_pBtnMute->ShowWindow( SW_SHOW );

  00d55	6a 05		 push	 5
  00d57	8b 4d 80	 mov	 ecx, DWORD PTR _this$[ebp]
  00d5a	8b 49 74	 mov	 ecx, DWORD PTR [ecx+116]
  00d5d	e8 00 00 00 00	 call	 ?ShowWindow@CWnd@@QAEHH@Z ; CWnd::ShowWindow

; 131  : 		m_pBtnUnMute->ShowWindow( SW_HIDE );

  00d62	6a 00		 push	 0
  00d64	8b 55 80	 mov	 edx, DWORD PTR _this$[ebp]
  00d67	8b 4a 78	 mov	 ecx, DWORD PTR [edx+120]
  00d6a	e8 00 00 00 00	 call	 ?ShowWindow@CWnd@@QAEHH@Z ; CWnd::ShowWindow
$L204725:

; 132  : 	}
; 133  : 	//
; 134  : 	if( GLOBAL_PANELCHANGEDATA->IPanelChange_IsFullScreen() )

  00d6f	e8 00 00 00 00	 call	 ?AfxGetDataManager2@@YAPAVIDataManager@@XZ ; AfxGetDataManager2
  00d74	89 85 7c ff ff
	ff		 mov	 DWORD PTR tv140[ebp], eax
  00d7a	68 00 00 00 00	 push	 OFFSET FLAT:_ID_DATA_PANELCHANGE
  00d7f	8b 85 7c ff ff
	ff		 mov	 eax, DWORD PTR tv140[ebp]
  00d85	8b 10		 mov	 edx, DWORD PTR [eax]
  00d87	8b 8d 7c ff ff
	ff		 mov	 ecx, DWORD PTR tv140[ebp]
  00d8d	ff 52 0c	 call	 DWORD PTR [edx+12]
  00d90	89 85 78 ff ff
	ff		 mov	 DWORD PTR tv146[ebp], eax
  00d96	8b 85 78 ff ff
	ff		 mov	 eax, DWORD PTR tv146[ebp]
  00d9c	8b 10		 mov	 edx, DWORD PTR [eax]
  00d9e	8b 8d 78 ff ff
	ff		 mov	 ecx, DWORD PTR tv146[ebp]
  00da4	ff 52 14	 call	 DWORD PTR [edx+20]
  00da7	0f b6 c0	 movzx	 eax, al
  00daa	85 c0		 test	 eax, eax
  00dac	74 1f		 je	 SHORT $L204727

; 135  : 	{
; 136  : 		m_pBtnToFullScreen->ShowWindow( SW_HIDE );

  00dae	6a 00		 push	 0
  00db0	8b 4d 80	 mov	 ecx, DWORD PTR _this$[ebp]
  00db3	8b 49 7c	 mov	 ecx, DWORD PTR [ecx+124]
  00db6	e8 00 00 00 00	 call	 ?ShowWindow@CWnd@@QAEHH@Z ; CWnd::ShowWindow

; 137  : 		m_pBtnExitFullScreen->ShowWindow( SW_SHOW );

  00dbb	6a 05		 push	 5
  00dbd	8b 55 80	 mov	 edx, DWORD PTR _this$[ebp]
  00dc0	8b 8a 80 00 00
	00		 mov	 ecx, DWORD PTR [edx+128]
  00dc6	e8 00 00 00 00	 call	 ?ShowWindow@CWnd@@QAEHH@Z ; CWnd::ShowWindow

; 138  : 	}else

  00dcb	eb 1d		 jmp	 SHORT $L204728
$L204727:

; 139  : 	{
; 140  : 		m_pBtnToFullScreen->ShowWindow( SW_SHOW );

  00dcd	6a 05		 push	 5
  00dcf	8b 45 80	 mov	 eax, DWORD PTR _this$[ebp]
  00dd2	8b 48 7c	 mov	 ecx, DWORD PTR [eax+124]
  00dd5	e8 00 00 00 00	 call	 ?ShowWindow@CWnd@@QAEHH@Z ; CWnd::ShowWindow

; 141  : 		m_pBtnExitFullScreen->ShowWindow( SW_HIDE );

  00dda	6a 00		 push	 0
  00ddc	8b 4d 80	 mov	 ecx, DWORD PTR _this$[ebp]
  00ddf	8b 89 80 00 00
	00		 mov	 ecx, DWORD PTR [ecx+128]
  00de5	e8 00 00 00 00	 call	 ?ShowWindow@CWnd@@QAEHH@Z ; CWnd::ShowWindow
$L204728:

; 142  : 	}
; 143  : 	
; 144  : 	YL_Log("CGameCtrlWnd.txt", LOG_DEBUG, "CGameCtrlWnd::UpdateAllWnd", "===OUT");

  00dea	68 00 00 00 00	 push	 OFFSET FLAT:$SG204732
  00def	8d 4d a0	 lea	 ecx, DWORD PTR $T205764[ebp]
  00df2	ff 15 00 00 00
	00		 call	 DWORD PTR __imp_??0?$basic_string@DU?$char_traits@D@std@@V?$allocator@D@2@@std@@QAE@PBD@Z
  00df8	c7 45 fc 02 00
	00 00		 mov	 DWORD PTR __$EHRec$[ebp+8], 2
  00dff	68 00 00 00 00	 push	 OFFSET FLAT:$SG204733
  00e04	8d 4d 84	 lea	 ecx, DWORD PTR $T205765[ebp]
  00e07	ff 15 00 00 00
	00		 call	 DWORD PTR __imp_??0?$basic_string@DU?$char_traits@D@std@@V?$allocator@D@2@@std@@QAE@PBD@Z
  00e0d	c6 45 fc 03	 mov	 BYTE PTR __$EHRec$[ebp+8], 3
  00e11	68 00 00 00 00	 push	 OFFSET FLAT:$SG204731
  00e16	8d 55 a0	 lea	 edx, DWORD PTR $T205764[ebp]
  00e19	52		 push	 edx
  00e1a	6a 00		 push	 0
  00e1c	8d 45 84	 lea	 eax, DWORD PTR $T205765[ebp]
  00e1f	50		 push	 eax
  00e20	ff 15 00 00 00
	00		 call	 DWORD PTR __imp_?YL_Log@@YAXABV?$basic_string@DU?$char_traits@D@std@@V?$allocator@D@2@@std@@H0PBDZZ
  00e26	83 c4 10	 add	 esp, 16			; 00000010H
  00e29	c6 45 fc 02	 mov	 BYTE PTR __$EHRec$[ebp+8], 2
  00e2d	8d 4d 84	 lea	 ecx, DWORD PTR $T205765[ebp]
  00e30	ff 15 00 00 00
	00		 call	 DWORD PTR __imp_??1?$basic_string@DU?$char_traits@D@std@@V?$allocator@D@2@@std@@QAE@XZ
  00e36	c7 45 fc ff ff
	ff ff		 mov	 DWORD PTR __$EHRec$[ebp+8], -1
  00e3d	8d 4d a0	 lea	 ecx, DWORD PTR $T205764[ebp]
  00e40	ff 15 00 00 00
	00		 call	 DWORD PTR __imp_??1?$basic_string@DU?$char_traits@D@std@@V?$allocator@D@2@@std@@QAE@XZ

; 145  : }

  00e46	8b 4d f4	 mov	 ecx, DWORD PTR __$EHRec$[ebp]
  00e49	64 89 0d 00 00
	00 00		 mov	 DWORD PTR fs:__except_list, ecx
  00e50	8b e5		 mov	 esp, ebp
  00e52	5d		 pop	 ebp
  00e53	c3		 ret	 0
_TEXT	ENDS
text$x	SEGMENT
$L205766:
  00164	8d 4d d8	 lea	 ecx, DWORD PTR $T205762[ebp]
  00167	ff 25 00 00 00
	00		 jmp	 DWORD PTR __imp_??1?$basic_string@DU?$char_traits@D@std@@V?$allocator@D@2@@std@@QAE@XZ
$L205767:
  0016d	8d 4d bc	 lea	 ecx, DWORD PTR $T205763[ebp]
  00170	ff 25 00 00 00
	00		 jmp	 DWORD PTR __imp_??1?$basic_string@DU?$char_traits@D@std@@V?$allocator@D@2@@std@@QAE@XZ
$L205768:
  00176	8d 4d a0	 lea	 ecx, DWORD PTR $T205764[ebp]
  00179	ff 25 00 00 00
	00		 jmp	 DWORD PTR __imp_??1?$basic_string@DU?$char_traits@D@std@@V?$allocator@D@2@@std@@QAE@XZ
$L205769:
  0017f	8d 4d 84	 lea	 ecx, DWORD PTR $T205765[ebp]
  00182	ff 25 00 00 00
	00		 jmp	 DWORD PTR __imp_??1?$basic_string@DU?$char_traits@D@std@@V?$allocator@D@2@@std@@QAE@XZ
__ehhandler$?UpdateAllWnd@CGameCtrlWnd@@QAEXXZ:
  00188	b8 00 00 00 00	 mov	 eax, OFFSET FLAT:$T205771
  0018d	e9 00 00 00 00	 jmp	 ___CxxFrameHandler
text$x	ENDS
?UpdateAllWnd@CGameCtrlWnd@@QAEXXZ ENDP			; CGameCtrlWnd::UpdateAllWnd
EXTRN	?SetMute@CSound@@QAE_NJ_N@Z:NEAR		; CSound::SetMute
xdata$x	SEGMENT
$T205786 DD	0ffffffffH
	DD	FLAT:$L205779
	DD	00H
	DD	FLAT:$L205780
	DD	0ffffffffH
	DD	FLAT:$L205781
	DD	02H
	DD	FLAT:$L205782
$T205784 DD	019930520H
	DD	04H
	DD	FLAT:$T205786
	DD	2 DUP(00H)
	DD	2 DUP(00H)
; Function compile flags: /Odt
xdata$x	ENDS
_TEXT	SEGMENT
_this$ = -128						; size = 4
$T205778 = -124						; size = 28
$T205777 = -96						; size = 28
$T205776 = -68						; size = 28
$T205775 = -40						; size = 28
__$EHRec$ = -12						; size = 12
?OnClickedMute@CGameCtrlWnd@@IAEXXZ PROC NEAR		; CGameCtrlWnd::OnClickedMute
; _this$ = ecx

; 148  : {

  00e60	55		 push	 ebp
  00e61	8b ec		 mov	 ebp, esp
  00e63	6a ff		 push	 -1
  00e65	68 00 00 00 00	 push	 __ehhandler$?OnClickedMute@CGameCtrlWnd@@IAEXXZ
  00e6a	64 a1 00 00 00
	00		 mov	 eax, DWORD PTR fs:__except_list
  00e70	50		 push	 eax
  00e71	64 89 25 00 00
	00 00		 mov	 DWORD PTR fs:__except_list, esp
  00e78	83 ec 74	 sub	 esp, 116		; 00000074H
  00e7b	89 4d 80	 mov	 DWORD PTR _this$[ebp], ecx

; 149  : 	YL_Log("CGameCtrlWnd.txt", LOG_DEBUG, "CGameCtrlWnd::OnClickedMute", "===IN");

  00e7e	68 00 00 00 00	 push	 OFFSET FLAT:$SG204740
  00e83	8d 4d d8	 lea	 ecx, DWORD PTR $T205775[ebp]
  00e86	ff 15 00 00 00
	00		 call	 DWORD PTR __imp_??0?$basic_string@DU?$char_traits@D@std@@V?$allocator@D@2@@std@@QAE@PBD@Z
  00e8c	c7 45 fc 00 00
	00 00		 mov	 DWORD PTR __$EHRec$[ebp+8], 0
  00e93	68 00 00 00 00	 push	 OFFSET FLAT:$SG204741
  00e98	8d 4d bc	 lea	 ecx, DWORD PTR $T205776[ebp]
  00e9b	ff 15 00 00 00
	00		 call	 DWORD PTR __imp_??0?$basic_string@DU?$char_traits@D@std@@V?$allocator@D@2@@std@@QAE@PBD@Z
  00ea1	c6 45 fc 01	 mov	 BYTE PTR __$EHRec$[ebp+8], 1
  00ea5	68 00 00 00 00	 push	 OFFSET FLAT:$SG204739
  00eaa	8d 45 d8	 lea	 eax, DWORD PTR $T205775[ebp]
  00ead	50		 push	 eax
  00eae	6a 00		 push	 0
  00eb0	8d 4d bc	 lea	 ecx, DWORD PTR $T205776[ebp]
  00eb3	51		 push	 ecx
  00eb4	ff 15 00 00 00
	00		 call	 DWORD PTR __imp_?YL_Log@@YAXABV?$basic_string@DU?$char_traits@D@std@@V?$allocator@D@2@@std@@H0PBDZZ
  00eba	83 c4 10	 add	 esp, 16			; 00000010H
  00ebd	c6 45 fc 00	 mov	 BYTE PTR __$EHRec$[ebp+8], 0
  00ec1	8d 4d bc	 lea	 ecx, DWORD PTR $T205776[ebp]
  00ec4	ff 15 00 00 00
	00		 call	 DWORD PTR __imp_??1?$basic_string@DU?$char_traits@D@std@@V?$allocator@D@2@@std@@QAE@XZ
  00eca	c7 45 fc ff ff
	ff ff		 mov	 DWORD PTR __$EHRec$[ebp+8], -1
  00ed1	8d 4d d8	 lea	 ecx, DWORD PTR $T205775[ebp]
  00ed4	ff 15 00 00 00
	00		 call	 DWORD PTR __imp_??1?$basic_string@DU?$char_traits@D@std@@V?$allocator@D@2@@std@@QAE@XZ

; 150  : 	if( CSound::GetInstance()->GetMute( 1 ) )

  00eda	6a 01		 push	 1
  00edc	e8 00 00 00 00	 call	 ?GetInstance@CSound@@SAPAV1@XZ ; CSound::GetInstance
  00ee1	8b c8		 mov	 ecx, eax
  00ee3	e8 00 00 00 00	 call	 ?GetMute@CSound@@QAE_NJ@Z ; CSound::GetMute
  00ee8	0f b6 d0	 movzx	 edx, al
  00eeb	85 d2		 test	 edx, edx
  00eed	74 12		 je	 SHORT $L204742

; 151  : 	{
; 152  : 		CSound::GetInstance()->SetMute( 1, false );

  00eef	6a 00		 push	 0
  00ef1	6a 01		 push	 1
  00ef3	e8 00 00 00 00	 call	 ?GetInstance@CSound@@SAPAV1@XZ ; CSound::GetInstance
  00ef8	8b c8		 mov	 ecx, eax
  00efa	e8 00 00 00 00	 call	 ?SetMute@CSound@@QAE_NJ_N@Z ; CSound::SetMute

; 153  : 	}else

  00eff	eb 10		 jmp	 SHORT $L204743
$L204742:

; 154  : 	{
; 155  : 		CSound::GetInstance()->SetMute( 1, true );

  00f01	6a 01		 push	 1
  00f03	6a 01		 push	 1
  00f05	e8 00 00 00 00	 call	 ?GetInstance@CSound@@SAPAV1@XZ ; CSound::GetInstance
  00f0a	8b c8		 mov	 ecx, eax
  00f0c	e8 00 00 00 00	 call	 ?SetMute@CSound@@QAE_NJ_N@Z ; CSound::SetMute
$L204743:

; 156  : 	}
; 157  : 	UpdateAllWnd();

  00f11	8b 4d 80	 mov	 ecx, DWORD PTR _this$[ebp]
  00f14	e8 00 00 00 00	 call	 ?UpdateAllWnd@CGameCtrlWnd@@QAEXXZ ; CGameCtrlWnd::UpdateAllWnd

; 158  : 	YL_Log("CGameCtrlWnd.txt", LOG_DEBUG, "CGameCtrlWnd::OnClickedMute", "===OUT");

  00f19	68 00 00 00 00	 push	 OFFSET FLAT:$SG204747
  00f1e	8d 4d a0	 lea	 ecx, DWORD PTR $T205777[ebp]
  00f21	ff 15 00 00 00
	00		 call	 DWORD PTR __imp_??0?$basic_string@DU?$char_traits@D@std@@V?$allocator@D@2@@std@@QAE@PBD@Z
  00f27	c7 45 fc 02 00
	00 00		 mov	 DWORD PTR __$EHRec$[ebp+8], 2
  00f2e	68 00 00 00 00	 push	 OFFSET FLAT:$SG204748
  00f33	8d 4d 84	 lea	 ecx, DWORD PTR $T205778[ebp]
  00f36	ff 15 00 00 00
	00		 call	 DWORD PTR __imp_??0?$basic_string@DU?$char_traits@D@std@@V?$allocator@D@2@@std@@QAE@PBD@Z
  00f3c	c6 45 fc 03	 mov	 BYTE PTR __$EHRec$[ebp+8], 3
  00f40	68 00 00 00 00	 push	 OFFSET FLAT:$SG204746
  00f45	8d 45 a0	 lea	 eax, DWORD PTR $T205777[ebp]
  00f48	50		 push	 eax
  00f49	6a 00		 push	 0
  00f4b	8d 4d 84	 lea	 ecx, DWORD PTR $T205778[ebp]
  00f4e	51		 push	 ecx
  00f4f	ff 15 00 00 00
	00		 call	 DWORD PTR __imp_?YL_Log@@YAXABV?$basic_string@DU?$char_traits@D@std@@V?$allocator@D@2@@std@@H0PBDZZ
  00f55	83 c4 10	 add	 esp, 16			; 00000010H
  00f58	c6 45 fc 02	 mov	 BYTE PTR __$EHRec$[ebp+8], 2
  00f5c	8d 4d 84	 lea	 ecx, DWORD PTR $T205778[ebp]
  00f5f	ff 15 00 00 00
	00		 call	 DWORD PTR __imp_??1?$basic_string@DU?$char_traits@D@std@@V?$allocator@D@2@@std@@QAE@XZ
  00f65	c7 45 fc ff ff
	ff ff		 mov	 DWORD PTR __$EHRec$[ebp+8], -1
  00f6c	8d 4d a0	 lea	 ecx, DWORD PTR $T205777[ebp]
  00f6f	ff 15 00 00 00
	00		 call	 DWORD PTR __imp_??1?$basic_string@DU?$char_traits@D@std@@V?$allocator@D@2@@std@@QAE@XZ

; 159  : }

  00f75	8b 4d f4	 mov	 ecx, DWORD PTR __$EHRec$[ebp]
  00f78	64 89 0d 00 00
	00 00		 mov	 DWORD PTR fs:__except_list, ecx
  00f7f	8b e5		 mov	 esp, ebp
  00f81	5d		 pop	 ebp
  00f82	c3		 ret	 0
_TEXT	ENDS
text$x	SEGMENT
$L205779:
  00192	8d 4d d8	 lea	 ecx, DWORD PTR $T205775[ebp]
  00195	ff 25 00 00 00
	00		 jmp	 DWORD PTR __imp_??1?$basic_string@DU?$char_traits@D@std@@V?$allocator@D@2@@std@@QAE@XZ
$L205780:
  0019b	8d 4d bc	 lea	 ecx, DWORD PTR $T205776[ebp]
  0019e	ff 25 00 00 00
	00		 jmp	 DWORD PTR __imp_??1?$basic_string@DU?$char_traits@D@std@@V?$allocator@D@2@@std@@QAE@XZ
$L205781:
  001a4	8d 4d a0	 lea	 ecx, DWORD PTR $T205777[ebp]
  001a7	ff 25 00 00 00
	00		 jmp	 DWORD PTR __imp_??1?$basic_string@DU?$char_traits@D@std@@V?$allocator@D@2@@std@@QAE@XZ
$L205782:
  001ad	8d 4d 84	 lea	 ecx, DWORD PTR $T205778[ebp]
  001b0	ff 25 00 00 00
	00		 jmp	 DWORD PTR __imp_??1?$basic_string@DU?$char_traits@D@std@@V?$allocator@D@2@@std@@QAE@XZ
__ehhandler$?OnClickedMute@CGameCtrlWnd@@IAEXXZ:
  001b6	b8 00 00 00 00	 mov	 eax, OFFSET FLAT:$T205784
  001bb	e9 00 00 00 00	 jmp	 ___CxxFrameHandler
text$x	ENDS
?OnClickedMute@CGameCtrlWnd@@IAEXXZ ENDP		; CGameCtrlWnd::OnClickedMute
xdata$x	SEGMENT
$T205799 DD	0ffffffffH
	DD	FLAT:$L205792
	DD	00H
	DD	FLAT:$L205793
	DD	0ffffffffH
	DD	FLAT:$L205794
	DD	02H
	DD	FLAT:$L205795
$T205797 DD	019930520H
	DD	04H
	DD	FLAT:$T205799
	DD	2 DUP(00H)
	DD	2 DUP(00H)
; Function compile flags: /Odt
xdata$x	ENDS
_TEXT	SEGMENT
_this$ = -128						; size = 4
$T205791 = -124						; size = 28
$T205790 = -96						; size = 28
$T205789 = -68						; size = 28
$T205788 = -40						; size = 28
__$EHRec$ = -12						; size = 12
?OnClickedUnMute@CGameCtrlWnd@@IAEXXZ PROC NEAR		; CGameCtrlWnd::OnClickedUnMute
; _this$ = ecx

; 163  : {

  00f90	55		 push	 ebp
  00f91	8b ec		 mov	 ebp, esp
  00f93	6a ff		 push	 -1
  00f95	68 00 00 00 00	 push	 __ehhandler$?OnClickedUnMute@CGameCtrlWnd@@IAEXXZ
  00f9a	64 a1 00 00 00
	00		 mov	 eax, DWORD PTR fs:__except_list
  00fa0	50		 push	 eax
  00fa1	64 89 25 00 00
	00 00		 mov	 DWORD PTR fs:__except_list, esp
  00fa8	83 ec 74	 sub	 esp, 116		; 00000074H
  00fab	89 4d 80	 mov	 DWORD PTR _this$[ebp], ecx

; 164  : 	YL_Log("CGameCtrlWnd.txt", LOG_DEBUG, "CGameCtrlWnd::OnClickedMute", "===IN");

  00fae	68 00 00 00 00	 push	 OFFSET FLAT:$SG204755
  00fb3	8d 4d d8	 lea	 ecx, DWORD PTR $T205788[ebp]
  00fb6	ff 15 00 00 00
	00		 call	 DWORD PTR __imp_??0?$basic_string@DU?$char_traits@D@std@@V?$allocator@D@2@@std@@QAE@PBD@Z
  00fbc	c7 45 fc 00 00
	00 00		 mov	 DWORD PTR __$EHRec$[ebp+8], 0
  00fc3	68 00 00 00 00	 push	 OFFSET FLAT:$SG204756
  00fc8	8d 4d bc	 lea	 ecx, DWORD PTR $T205789[ebp]
  00fcb	ff 15 00 00 00
	00		 call	 DWORD PTR __imp_??0?$basic_string@DU?$char_traits@D@std@@V?$allocator@D@2@@std@@QAE@PBD@Z
  00fd1	c6 45 fc 01	 mov	 BYTE PTR __$EHRec$[ebp+8], 1
  00fd5	68 00 00 00 00	 push	 OFFSET FLAT:$SG204754
  00fda	8d 45 d8	 lea	 eax, DWORD PTR $T205788[ebp]
  00fdd	50		 push	 eax
  00fde	6a 00		 push	 0
  00fe0	8d 4d bc	 lea	 ecx, DWORD PTR $T205789[ebp]
  00fe3	51		 push	 ecx
  00fe4	ff 15 00 00 00
	00		 call	 DWORD PTR __imp_?YL_Log@@YAXABV?$basic_string@DU?$char_traits@D@std@@V?$allocator@D@2@@std@@H0PBDZZ
  00fea	83 c4 10	 add	 esp, 16			; 00000010H
  00fed	c6 45 fc 00	 mov	 BYTE PTR __$EHRec$[ebp+8], 0
  00ff1	8d 4d bc	 lea	 ecx, DWORD PTR $T205789[ebp]
  00ff4	ff 15 00 00 00
	00		 call	 DWORD PTR __imp_??1?$basic_string@DU?$char_traits@D@std@@V?$allocator@D@2@@std@@QAE@XZ
  00ffa	c7 45 fc ff ff
	ff ff		 mov	 DWORD PTR __$EHRec$[ebp+8], -1
  01001	8d 4d d8	 lea	 ecx, DWORD PTR $T205788[ebp]
  01004	ff 15 00 00 00
	00		 call	 DWORD PTR __imp_??1?$basic_string@DU?$char_traits@D@std@@V?$allocator@D@2@@std@@QAE@XZ

; 165  : 	if( CSound::GetInstance()->GetMute( 1 ) )

  0100a	6a 01		 push	 1
  0100c	e8 00 00 00 00	 call	 ?GetInstance@CSound@@SAPAV1@XZ ; CSound::GetInstance
  01011	8b c8		 mov	 ecx, eax
  01013	e8 00 00 00 00	 call	 ?GetMute@CSound@@QAE_NJ@Z ; CSound::GetMute
  01018	0f b6 d0	 movzx	 edx, al
  0101b	85 d2		 test	 edx, edx
  0101d	74 12		 je	 SHORT $L204757

; 166  : 	{
; 167  : 		CSound::GetInstance()->SetMute( 1, false );

  0101f	6a 00		 push	 0
  01021	6a 01		 push	 1
  01023	e8 00 00 00 00	 call	 ?GetInstance@CSound@@SAPAV1@XZ ; CSound::GetInstance
  01028	8b c8		 mov	 ecx, eax
  0102a	e8 00 00 00 00	 call	 ?SetMute@CSound@@QAE_NJ_N@Z ; CSound::SetMute

; 168  : 	}else

  0102f	eb 10		 jmp	 SHORT $L204758
$L204757:

; 169  : 	{
; 170  : 		CSound::GetInstance()->SetMute( 1, true );

  01031	6a 01		 push	 1
  01033	6a 01		 push	 1
  01035	e8 00 00 00 00	 call	 ?GetInstance@CSound@@SAPAV1@XZ ; CSound::GetInstance
  0103a	8b c8		 mov	 ecx, eax
  0103c	e8 00 00 00 00	 call	 ?SetMute@CSound@@QAE_NJ_N@Z ; CSound::SetMute
$L204758:

; 171  : 	}
; 172  : 	UpdateAllWnd();

  01041	8b 4d 80	 mov	 ecx, DWORD PTR _this$[ebp]
  01044	e8 00 00 00 00	 call	 ?UpdateAllWnd@CGameCtrlWnd@@QAEXXZ ; CGameCtrlWnd::UpdateAllWnd

; 173  : 	YL_Log("CGameCtrlWnd.txt", LOG_DEBUG, "CGameCtrlWnd::OnClickedMute", "===OUT");

  01049	68 00 00 00 00	 push	 OFFSET FLAT:$SG204762
  0104e	8d 4d a0	 lea	 ecx, DWORD PTR $T205790[ebp]
  01051	ff 15 00 00 00
	00		 call	 DWORD PTR __imp_??0?$basic_string@DU?$char_traits@D@std@@V?$allocator@D@2@@std@@QAE@PBD@Z
  01057	c7 45 fc 02 00
	00 00		 mov	 DWORD PTR __$EHRec$[ebp+8], 2
  0105e	68 00 00 00 00	 push	 OFFSET FLAT:$SG204763
  01063	8d 4d 84	 lea	 ecx, DWORD PTR $T205791[ebp]
  01066	ff 15 00 00 00
	00		 call	 DWORD PTR __imp_??0?$basic_string@DU?$char_traits@D@std@@V?$allocator@D@2@@std@@QAE@PBD@Z
  0106c	c6 45 fc 03	 mov	 BYTE PTR __$EHRec$[ebp+8], 3
  01070	68 00 00 00 00	 push	 OFFSET FLAT:$SG204761
  01075	8d 45 a0	 lea	 eax, DWORD PTR $T205790[ebp]
  01078	50		 push	 eax
  01079	6a 00		 push	 0
  0107b	8d 4d 84	 lea	 ecx, DWORD PTR $T205791[ebp]
  0107e	51		 push	 ecx
  0107f	ff 15 00 00 00
	00		 call	 DWORD PTR __imp_?YL_Log@@YAXABV?$basic_string@DU?$char_traits@D@std@@V?$allocator@D@2@@std@@H0PBDZZ
  01085	83 c4 10	 add	 esp, 16			; 00000010H
  01088	c6 45 fc 02	 mov	 BYTE PTR __$EHRec$[ebp+8], 2
  0108c	8d 4d 84	 lea	 ecx, DWORD PTR $T205791[ebp]
  0108f	ff 15 00 00 00
	00		 call	 DWORD PTR __imp_??1?$basic_string@DU?$char_traits@D@std@@V?$allocator@D@2@@std@@QAE@XZ
  01095	c7 45 fc ff ff
	ff ff		 mov	 DWORD PTR __$EHRec$[ebp+8], -1
  0109c	8d 4d a0	 lea	 ecx, DWORD PTR $T205790[ebp]
  0109f	ff 15 00 00 00
	00		 call	 DWORD PTR __imp_??1?$basic_string@DU?$char_traits@D@std@@V?$allocator@D@2@@std@@QAE@XZ

; 174  : }

  010a5	8b 4d f4	 mov	 ecx, DWORD PTR __$EHRec$[ebp]
  010a8	64 89 0d 00 00
	00 00		 mov	 DWORD PTR fs:__except_list, ecx
  010af	8b e5		 mov	 esp, ebp
  010b1	5d		 pop	 ebp
  010b2	c3		 ret	 0
_TEXT	ENDS
text$x	SEGMENT
$L205792:
  001c0	8d 4d d8	 lea	 ecx, DWORD PTR $T205788[ebp]
  001c3	ff 25 00 00 00
	00		 jmp	 DWORD PTR __imp_??1?$basic_string@DU?$char_traits@D@std@@V?$allocator@D@2@@std@@QAE@XZ
$L205793:
  001c9	8d 4d bc	 lea	 ecx, DWORD PTR $T205789[ebp]
  001cc	ff 25 00 00 00
	00		 jmp	 DWORD PTR __imp_??1?$basic_string@DU?$char_traits@D@std@@V?$allocator@D@2@@std@@QAE@XZ
$L205794:
  001d2	8d 4d a0	 lea	 ecx, DWORD PTR $T205790[ebp]
  001d5	ff 25 00 00 00
	00		 jmp	 DWORD PTR __imp_??1?$basic_string@DU?$char_traits@D@std@@V?$allocator@D@2@@std@@QAE@XZ
$L205795:
  001db	8d 4d 84	 lea	 ecx, DWORD PTR $T205791[ebp]
  001de	ff 25 00 00 00
	00		 jmp	 DWORD PTR __imp_??1?$basic_string@DU?$char_traits@D@std@@V?$allocator@D@2@@std@@QAE@XZ
__ehhandler$?OnClickedUnMute@CGameCtrlWnd@@IAEXXZ:
  001e4	b8 00 00 00 00	 mov	 eax, OFFSET FLAT:$T205797
  001e9	e9 00 00 00 00	 jmp	 ___CxxFrameHandler
text$x	ENDS
?OnClickedUnMute@CGameCtrlWnd@@IAEXXZ ENDP		; CGameCtrlWnd::OnClickedUnMute
PUBLIC	?OnShowWindow@CWnd@@IAEXHI@Z			; CWnd::OnShowWindow
; Function compile flags: /Odt
_TEXT	SEGMENT
_this$ = -4						; size = 4
_bShow$ = 8						; size = 4
_nStatus$ = 12						; size = 4
?OnShowWindow@CGameCtrlWnd@@IAEXHI@Z PROC NEAR		; CGameCtrlWnd::OnShowWindow
; _this$ = ecx

; 177  : {

  010c0	55		 push	 ebp
  010c1	8b ec		 mov	 ebp, esp
  010c3	51		 push	 ecx
  010c4	89 4d fc	 mov	 DWORD PTR _this$[ebp], ecx

; 178  : 	__super::OnShowWindow(bShow, nStatus);

  010c7	8b 45 0c	 mov	 eax, DWORD PTR _nStatus$[ebp]
  010ca	50		 push	 eax
  010cb	8b 4d 08	 mov	 ecx, DWORD PTR _bShow$[ebp]
  010ce	51		 push	 ecx
  010cf	8b 4d fc	 mov	 ecx, DWORD PTR _this$[ebp]
  010d2	e8 00 00 00 00	 call	 ?OnShowWindow@CWnd@@IAEXHI@Z ; CWnd::OnShowWindow

; 179  : 	UpdateAllWnd();

  010d7	8b 4d fc	 mov	 ecx, DWORD PTR _this$[ebp]
  010da	e8 00 00 00 00	 call	 ?UpdateAllWnd@CGameCtrlWnd@@QAEXXZ ; CGameCtrlWnd::UpdateAllWnd

; 180  : }

  010df	8b e5		 mov	 esp, ebp
  010e1	5d		 pop	 ebp
  010e2	c2 08 00	 ret	 8
?OnShowWindow@CGameCtrlWnd@@IAEXHI@Z ENDP		; CGameCtrlWnd::OnShowWindow
; Function compile flags: /Odt
_this$ = -4						; size = 4
?OnClickedCut@CGameCtrlWnd@@IAEXXZ PROC NEAR		; CGameCtrlWnd::OnClickedCut
; _this$ = ecx

; 183  : {

  010f0	55		 push	 ebp
  010f1	8b ec		 mov	 ebp, esp
  010f3	51		 push	 ecx
  010f4	89 4d fc	 mov	 DWORD PTR _this$[ebp], ecx

; 184  : 	GetParent()->PostMessage( WM_CUT_SCREEN );

  010f7	6a 00		 push	 0
  010f9	6a 00		 push	 0
  010fb	68 04 04 00 00	 push	 1028			; 00000404H
  01100	8b 4d fc	 mov	 ecx, DWORD PTR _this$[ebp]
  01103	e8 00 00 00 00	 call	 ?GetParent@CWnd@@QBEPAV1@XZ ; CWnd::GetParent
  01108	8b c8		 mov	 ecx, eax
  0110a	e8 00 00 00 00	 call	 ?PostMessageA@CWnd@@QAEHIIJ@Z ; CWnd::PostMessageA

; 185  : }

  0110f	8b e5		 mov	 esp, ebp
  01111	5d		 pop	 ebp
  01112	c3		 ret	 0
?OnClickedCut@CGameCtrlWnd@@IAEXXZ ENDP			; CGameCtrlWnd::OnClickedCut
_TEXT	ENDS
PUBLIC	?_AtlInstallStringThunk@ATL@@YAXPAPAXPAX1@Z	; ATL::_AtlInstallStringThunk
PUBLIC	?GetEnvironmentVariableWFake@ATL@@YGKPB_WPA_WK@Z ; ATL::GetEnvironmentVariableWFake
EXTRN	__imp__GetEnvironmentVariableW@12:NEAR
; Function compile flags: /Odt
; File d:\program files (x86)\microsoft visual studio .net 2003\vc7\atlmfc\include\cstringt.h
;	COMDAT ?GetEnvironmentVariableWThunk@ATL@@YGKPB_WPA_WK@Z
_TEXT	SEGMENT
_pszName$ = 8						; size = 4
_pszBuffer$ = 12					; size = 4
_nSize$ = 16						; size = 4
?GetEnvironmentVariableWThunk@ATL@@YGKPB_WPA_WK@Z PROC NEAR ; ATL::GetEnvironmentVariableWThunk, COMDAT

; 183  : {

  00000	55		 push	 ebp
  00001	8b ec		 mov	 ebp, esp

; 184  : 	_AtlInstallStringThunk(reinterpret_cast<void**>(&_strthunks.pfnGetEnvironmentVariableW), 
; 185  : 		GetEnvironmentVariableWFake, ::GetEnvironmentVariableW);

  00003	a1 00 00 00 00	 mov	 eax, DWORD PTR __imp__GetEnvironmentVariableW@12
  00008	50		 push	 eax
  00009	68 00 00 00 00	 push	 OFFSET FLAT:?GetEnvironmentVariableWFake@ATL@@YGKPB_WPA_WK@Z ; ATL::GetEnvironmentVariableWFake
  0000e	68 14 00 00 00	 push	 OFFSET FLAT:?_strthunks@ATL@@3U_AtlStringThunks@1@A+20
  00013	e8 00 00 00 00	 call	 ?_AtlInstallStringThunk@ATL@@YAXPAPAXPAX1@Z ; ATL::_AtlInstallStringThunk
  00018	83 c4 0c	 add	 esp, 12			; 0000000cH

; 186  : 
; 187  : 	return _strthunks.pfnGetEnvironmentVariableW(pszName, pszBuffer, nSize);

  0001b	8b 4d 10	 mov	 ecx, DWORD PTR _nSize$[ebp]
  0001e	51		 push	 ecx
  0001f	8b 55 0c	 mov	 edx, DWORD PTR _pszBuffer$[ebp]
  00022	52		 push	 edx
  00023	8b 45 08	 mov	 eax, DWORD PTR _pszName$[ebp]
  00026	50		 push	 eax
  00027	ff 15 14 00 00
	00		 call	 DWORD PTR ?_strthunks@ATL@@3U_AtlStringThunks@1@A+20

; 188  : }

  0002d	5d		 pop	 ebp
  0002e	c2 0c 00	 ret	 12			; 0000000cH
?GetEnvironmentVariableWThunk@ATL@@YGKPB_WPA_WK@Z ENDP	; ATL::GetEnvironmentVariableWThunk
_TEXT	ENDS
PUBLIC	?s_bWin9x@?1??_AtlInstallStringThunk@ATL@@YAXPAPAXPAX1@Z@4_NA ; `ATL::_AtlInstallStringThunk'::`2'::s_bWin9x
PUBLIC	??_B?1??_AtlInstallStringThunk@ATL@@YAXPAPAXPAX1@Z@51 ; `ATL::_AtlInstallStringThunk'::`2'::`local static guard'
EXTRN	__imp__GetVersion@0:NEAR
;	COMDAT ?s_bWin9x@?1??_AtlInstallStringThunk@ATL@@YAXPAPAXPAX1@Z@4_NA
_BSS	SEGMENT
?s_bWin9x@?1??_AtlInstallStringThunk@ATL@@YAXPAPAXPAX1@Z@4_NA DB 01H DUP (?) ; `ATL::_AtlInstallStringThunk'::`2'::s_bWin9x
_BSS	ENDS
;	COMDAT ??_B?1??_AtlInstallStringThunk@ATL@@YAXPAPAXPAX1@Z@51
_BSS	SEGMENT
??_B?1??_AtlInstallStringThunk@ATL@@YAXPAPAXPAX1@Z@51 DD 01H DUP (?) ; `ATL::_AtlInstallStringThunk'::`2'::`local static guard'
; Function compile flags: /Odt
_BSS	ENDS
;	COMDAT ?_AtlInstallStringThunk@ATL@@YAXPAPAXPAX1@Z
_TEXT	SEGMENT
_pfn$ = -4						; size = 4
_ppThunk$ = 8						; size = 4
_pfnWin9x$ = 12						; size = 4
_pfnNT$ = 16						; size = 4
?_AtlInstallStringThunk@ATL@@YAXPAPAXPAX1@Z PROC NEAR	; ATL::_AtlInstallStringThunk, COMDAT

; 115  : {

  00000	55		 push	 ebp
  00001	8b ec		 mov	 ebp, esp
  00003	51		 push	 ecx

; 116  : #pragma warning (push)
; 117  : #pragma warning (disable : 4640)	// construction of local static object is not thread-safe
; 118  : 
; 119  : 	static bool s_bWin9x = (::GetVersion()&0x80000000) != 0;

  00004	a1 00 00 00 00	 mov	 eax, DWORD PTR ??_B?1??_AtlInstallStringThunk@ATL@@YAXPAPAXPAX1@Z@51
  00009	83 e0 01	 and	 eax, 1
  0000c	75 25		 jne	 SHORT $L25641
  0000e	8b 0d 00 00 00
	00		 mov	 ecx, DWORD PTR ??_B?1??_AtlInstallStringThunk@ATL@@YAXPAPAXPAX1@Z@51
  00014	83 c9 01	 or	 ecx, 1
  00017	89 0d 00 00 00
	00		 mov	 DWORD PTR ??_B?1??_AtlInstallStringThunk@ATL@@YAXPAPAXPAX1@Z@51, ecx
  0001d	ff 15 00 00 00
	00		 call	 DWORD PTR __imp__GetVersion@0
  00023	25 00 00 00 80	 and	 eax, -2147483648	; 80000000H
  00028	f7 d8		 neg	 eax
  0002a	1b c0		 sbb	 eax, eax
  0002c	f7 d8		 neg	 eax
  0002e	a2 00 00 00 00	 mov	 BYTE PTR ?s_bWin9x@?1??_AtlInstallStringThunk@ATL@@YAXPAPAXPAX1@Z@4_NA, al ; `ATL::_AtlInstallStringThunk'::`2'::s_bWin9x
$L25641:

; 120  : 	
; 121  : #pragma warning (pop)
; 122  : 
; 123  : 	void* pfn;
; 124  : 	if (s_bWin9x)

  00033	0f b6 15 00 00
	00 00		 movzx	 edx, BYTE PTR ?s_bWin9x@?1??_AtlInstallStringThunk@ATL@@YAXPAPAXPAX1@Z@4_NA ; `ATL::_AtlInstallStringThunk'::`2'::s_bWin9x
  0003a	85 d2		 test	 edx, edx
  0003c	74 08		 je	 SHORT $L25643

; 125  : 		pfn = pfnWin9x;

  0003e	8b 45 0c	 mov	 eax, DWORD PTR _pfnWin9x$[ebp]
  00041	89 45 fc	 mov	 DWORD PTR _pfn$[ebp], eax

; 126  : 	else

  00044	eb 06		 jmp	 SHORT $L25644
$L25643:

; 127  : 	{
; 128  : #ifdef _CSTRING_ALWAYS_THUNK
; 129  : 		pfn = pfnWin9x;
; 130  : 		(void)pfnNT;
; 131  : #else
; 132  : 		pfn = pfnNT;

  00046	8b 4d 10	 mov	 ecx, DWORD PTR _pfnNT$[ebp]
  00049	89 4d fc	 mov	 DWORD PTR _pfn$[ebp], ecx
$L25644:

; 133  : #endif
; 134  : 	}
; 135  : 	InterlockedExchangePointer(ppThunk, pfn);

  0004c	8b 55 fc	 mov	 edx, DWORD PTR _pfn$[ebp]
  0004f	52		 push	 edx
  00050	8b 45 08	 mov	 eax, DWORD PTR _ppThunk$[ebp]
  00053	50		 push	 eax
  00054	e8 00 00 00 00	 call	 ?InterlockedExchangePointer@@YGPAXPAPAXPAX@Z ; InterlockedExchangePointer

; 136  : }

  00059	8b e5		 mov	 esp, ebp
  0005b	5d		 pop	 ebp
  0005c	c3		 ret	 0
?_AtlInstallStringThunk@ATL@@YAXPAPAXPAX1@Z ENDP	; ATL::_AtlInstallStringThunk
_TEXT	ENDS
PUBLIC	??0?$CTempBuffer@D$0IA@VCCRTAllocator@ATL@@@ATL@@QAE@XZ ; ATL::CTempBuffer<char,128,ATL::CCRTAllocator>::CTempBuffer<char,128,ATL::CCRTAllocator>
PUBLIC	??1?$CTempBuffer@D$0IA@VCCRTAllocator@ATL@@@ATL@@QAE@XZ ; ATL::CTempBuffer<char,128,ATL::CCRTAllocator>::~CTempBuffer<char,128,ATL::CCRTAllocator>
PUBLIC	??B?$CTempBuffer@D$0IA@VCCRTAllocator@ATL@@@ATL@@QBEPADXZ ; ATL::CTempBuffer<char,128,ATL::CCRTAllocator>::operator char *
PUBLIC	?Allocate@?$CTempBuffer@D$0IA@VCCRTAllocator@ATL@@@ATL@@QAEPADI@Z ; ATL::CTempBuffer<char,128,ATL::CCRTAllocator>::Allocate
PUBLIC	??0?$CW2AEX@$0IA@@ATL@@QAE@PB_W@Z		; ATL::CW2AEX<128>::CW2AEX<128>
PUBLIC	??1?$CW2AEX@$0IA@@ATL@@QAE@XZ			; ATL::CW2AEX<128>::~CW2AEX<128>
PUBLIC	??B?$CW2AEX@$0IA@@ATL@@QBEPADXZ			; ATL::CW2AEX<128>::operator char *
PUBLIC	?_AtlGetConversionACP@ATL@@YGIXZ		; ATL::_AtlGetConversionACP
EXTRN	__imp__MultiByteToWideChar@24:NEAR
EXTRN	__imp__GetEnvironmentVariableA@12:NEAR
;	COMDAT xdata$x
xdata$x	SEGMENT
$T205817 DD	0ffffffffH
	DD	FLAT:$L205811
	DD	00H
	DD	FLAT:$L205812
$T205814 DD	019930520H
	DD	02H
	DD	FLAT:$T205817
	DD	2 DUP(00H)
	DD	2 DUP(00H)
; Function compile flags: /Odt
xdata$x	ENDS
;	COMDAT ?GetEnvironmentVariableWFake@ATL@@YGKPB_WPA_WK@Z
_TEXT	SEGMENT
$T205810 = -312						; size = 4
$T205809 = -308						; size = 4
$T205808 = -304						; size = 4
_pszBufferA$ = -300					; size = 132
_nSizeW$ = -160						; size = 4
_pszNameA$ = -156					; size = 132
__$ArrayPad$ = -20					; size = 4
_nSizeA$ = -16						; size = 4
__$EHRec$ = -12						; size = 12
__$ReturnAddr$ = 4					; size = 4
_pszName$ = 8						; size = 4
_pszBuffer$ = 12					; size = 4
_nSize$ = 16						; size = 4
?GetEnvironmentVariableWFake@ATL@@YGKPB_WPA_WK@Z PROC NEAR ; ATL::GetEnvironmentVariableWFake, COMDAT

; 159  : {

  00000	55		 push	 ebp
  00001	8b ec		 mov	 ebp, esp
  00003	6a ff		 push	 -1
  00005	68 00 00 00 00	 push	 __ehhandler$?GetEnvironmentVariableWFake@ATL@@YGKPB_WPA_WK@Z
  0000a	64 a1 00 00 00
	00		 mov	 eax, DWORD PTR fs:__except_list
  00010	50		 push	 eax
  00011	64 89 25 00 00
	00 00		 mov	 DWORD PTR fs:__except_list, esp
  00018	81 ec 2c 01 00
	00		 sub	 esp, 300		; 0000012cH
  0001e	a1 00 00 00 00	 mov	 eax, DWORD PTR ___security_cookie
  00023	89 45 ec	 mov	 DWORD PTR __$ArrayPad$[ebp], eax

; 160  : 	ULONG nSizeA;
; 161  : 	ULONG nSizeW;
; 162  : 	CTempBuffer<char> pszBufferA;

  00026	8d 8d d4 fe ff
	ff		 lea	 ecx, DWORD PTR _pszBufferA$[ebp]
  0002c	e8 00 00 00 00	 call	 ??0?$CTempBuffer@D$0IA@VCCRTAllocator@ATL@@@ATL@@QAE@XZ ; ATL::CTempBuffer<char,128,ATL::CCRTAllocator>::CTempBuffer<char,128,ATL::CCRTAllocator>
  00031	c7 45 fc 00 00
	00 00		 mov	 DWORD PTR __$EHRec$[ebp+8], 0

; 163  : 	CW2A pszNameA(pszName);

  00038	8b 45 08	 mov	 eax, DWORD PTR _pszName$[ebp]
  0003b	50		 push	 eax
  0003c	8d 8d 64 ff ff
	ff		 lea	 ecx, DWORD PTR _pszNameA$[ebp]
  00042	e8 00 00 00 00	 call	 ??0?$CW2AEX@$0IA@@ATL@@QAE@PB_W@Z ; ATL::CW2AEX<128>::CW2AEX<128>
  00047	c6 45 fc 01	 mov	 BYTE PTR __$EHRec$[ebp+8], 1

; 164  : 
; 165  : 	nSizeA = ::GetEnvironmentVariableA(pszNameA, NULL, 0);

  0004b	6a 00		 push	 0
  0004d	6a 00		 push	 0
  0004f	8d 8d 64 ff ff
	ff		 lea	 ecx, DWORD PTR _pszNameA$[ebp]
  00055	e8 00 00 00 00	 call	 ??B?$CW2AEX@$0IA@@ATL@@QBEPADXZ ; ATL::CW2AEX<128>::operator char *
  0005a	50		 push	 eax
  0005b	ff 15 00 00 00
	00		 call	 DWORD PTR __imp__GetEnvironmentVariableA@12
  00061	89 45 f0	 mov	 DWORD PTR _nSizeA$[ebp], eax

; 166  : 	if (nSizeA == 0)

  00064	83 7d f0 00	 cmp	 DWORD PTR _nSizeA$[ebp], 0
  00068	75 36		 jne	 SHORT $L25746

; 167  : 		return 0;

  0006a	c7 85 d0 fe ff
	ff 00 00 00 00	 mov	 DWORD PTR $T205808[ebp], 0
  00074	c6 45 fc 00	 mov	 BYTE PTR __$EHRec$[ebp+8], 0
  00078	8d 8d 64 ff ff
	ff		 lea	 ecx, DWORD PTR _pszNameA$[ebp]
  0007e	e8 00 00 00 00	 call	 ??1?$CW2AEX@$0IA@@ATL@@QAE@XZ ; ATL::CW2AEX<128>::~CW2AEX<128>
  00083	c7 45 fc ff ff
	ff ff		 mov	 DWORD PTR __$EHRec$[ebp+8], -1
  0008a	8d 8d d4 fe ff
	ff		 lea	 ecx, DWORD PTR _pszBufferA$[ebp]
  00090	e8 00 00 00 00	 call	 ??1?$CTempBuffer@D$0IA@VCCRTAllocator@ATL@@@ATL@@QAE@XZ ; ATL::CTempBuffer<char,128,ATL::CCRTAllocator>::~CTempBuffer<char,128,ATL::CCRTAllocator>
  00095	8b 85 d0 fe ff
	ff		 mov	 eax, DWORD PTR $T205808[ebp]
  0009b	e9 ee 00 00 00	 jmp	 $L25687
$L25746:

; 168  : 
; 169  : 	pszBufferA.Allocate(nSizeA*2);

  000a0	8b 4d f0	 mov	 ecx, DWORD PTR _nSizeA$[ebp]
  000a3	d1 e1		 shl	 ecx, 1
  000a5	51		 push	 ecx
  000a6	8d 8d d4 fe ff
	ff		 lea	 ecx, DWORD PTR _pszBufferA$[ebp]
  000ac	e8 00 00 00 00	 call	 ?Allocate@?$CTempBuffer@D$0IA@VCCRTAllocator@ATL@@@ATL@@QAEPADI@Z ; ATL::CTempBuffer<char,128,ATL::CCRTAllocator>::Allocate

; 170  : 	::GetEnvironmentVariableA(pszNameA, pszBufferA, nSizeA);

  000b1	8b 55 f0	 mov	 edx, DWORD PTR _nSizeA$[ebp]
  000b4	52		 push	 edx
  000b5	8d 8d d4 fe ff
	ff		 lea	 ecx, DWORD PTR _pszBufferA$[ebp]
  000bb	e8 00 00 00 00	 call	 ??B?$CTempBuffer@D$0IA@VCCRTAllocator@ATL@@@ATL@@QBEPADXZ ; ATL::CTempBuffer<char,128,ATL::CCRTAllocator>::operator char *
  000c0	50		 push	 eax
  000c1	8d 8d 64 ff ff
	ff		 lea	 ecx, DWORD PTR _pszNameA$[ebp]
  000c7	e8 00 00 00 00	 call	 ??B?$CW2AEX@$0IA@@ATL@@QBEPADXZ ; ATL::CW2AEX<128>::operator char *
  000cc	50		 push	 eax
  000cd	ff 15 00 00 00
	00		 call	 DWORD PTR __imp__GetEnvironmentVariableA@12

; 171  : 
; 172  : 	nSizeW = ::MultiByteToWideChar(_AtlGetConversionACP(), 0, pszBufferA, -1, NULL, 0);

  000d3	6a 00		 push	 0
  000d5	6a 00		 push	 0
  000d7	6a ff		 push	 -1
  000d9	8d 8d d4 fe ff
	ff		 lea	 ecx, DWORD PTR _pszBufferA$[ebp]
  000df	e8 00 00 00 00	 call	 ??B?$CTempBuffer@D$0IA@VCCRTAllocator@ATL@@@ATL@@QBEPADXZ ; ATL::CTempBuffer<char,128,ATL::CCRTAllocator>::operator char *
  000e4	50		 push	 eax
  000e5	6a 00		 push	 0
  000e7	e8 00 00 00 00	 call	 ?_AtlGetConversionACP@ATL@@YGIXZ ; ATL::_AtlGetConversionACP
  000ec	50		 push	 eax
  000ed	ff 15 00 00 00
	00		 call	 DWORD PTR __imp__MultiByteToWideChar@24
  000f3	89 85 60 ff ff
	ff		 mov	 DWORD PTR _nSizeW$[ebp], eax

; 173  : 	if (nSize == 0)

  000f9	83 7d 10 00	 cmp	 DWORD PTR _nSize$[ebp], 0
  000fd	75 35		 jne	 SHORT $L25748

; 174  : 		return nSizeW;

  000ff	8b 85 60 ff ff
	ff		 mov	 eax, DWORD PTR _nSizeW$[ebp]
  00105	89 85 cc fe ff
	ff		 mov	 DWORD PTR $T205809[ebp], eax
  0010b	c6 45 fc 00	 mov	 BYTE PTR __$EHRec$[ebp+8], 0
  0010f	8d 8d 64 ff ff
	ff		 lea	 ecx, DWORD PTR _pszNameA$[ebp]
  00115	e8 00 00 00 00	 call	 ??1?$CW2AEX@$0IA@@ATL@@QAE@XZ ; ATL::CW2AEX<128>::~CW2AEX<128>
  0011a	c7 45 fc ff ff
	ff ff		 mov	 DWORD PTR __$EHRec$[ebp+8], -1
  00121	8d 8d d4 fe ff
	ff		 lea	 ecx, DWORD PTR _pszBufferA$[ebp]
  00127	e8 00 00 00 00	 call	 ??1?$CTempBuffer@D$0IA@VCCRTAllocator@ATL@@@ATL@@QAE@XZ ; ATL::CTempBuffer<char,128,ATL::CCRTAllocator>::~CTempBuffer<char,128,ATL::CCRTAllocator>
  0012c	8b 85 cc fe ff
	ff		 mov	 eax, DWORD PTR $T205809[ebp]
  00132	eb 5a		 jmp	 SHORT $L25687
$L25748:

; 175  : 	ATLASSERT(nSize >= nSizeW);
; 176  : 	::MultiByteToWideChar(_AtlGetConversionACP(), 0, pszBufferA, -1, pszBuffer, nSizeW);

  00134	8b 8d 60 ff ff
	ff		 mov	 ecx, DWORD PTR _nSizeW$[ebp]
  0013a	51		 push	 ecx
  0013b	8b 55 0c	 mov	 edx, DWORD PTR _pszBuffer$[ebp]
  0013e	52		 push	 edx
  0013f	6a ff		 push	 -1
  00141	8d 8d d4 fe ff
	ff		 lea	 ecx, DWORD PTR _pszBufferA$[ebp]
  00147	e8 00 00 00 00	 call	 ??B?$CTempBuffer@D$0IA@VCCRTAllocator@ATL@@@ATL@@QBEPADXZ ; ATL::CTempBuffer<char,128,ATL::CCRTAllocator>::operator char *
  0014c	50		 push	 eax
  0014d	6a 00		 push	 0
  0014f	e8 00 00 00 00	 call	 ?_AtlGetConversionACP@ATL@@YGIXZ ; ATL::_AtlGetConversionACP
  00154	50		 push	 eax
  00155	ff 15 00 00 00
	00		 call	 DWORD PTR __imp__MultiByteToWideChar@24

; 177  : 
; 178  : 	return nSizeW;

  0015b	8b 85 60 ff ff
	ff		 mov	 eax, DWORD PTR _nSizeW$[ebp]
  00161	89 85 c8 fe ff
	ff		 mov	 DWORD PTR $T205810[ebp], eax
  00167	c6 45 fc 00	 mov	 BYTE PTR __$EHRec$[ebp+8], 0
  0016b	8d 8d 64 ff ff
	ff		 lea	 ecx, DWORD PTR _pszNameA$[ebp]
  00171	e8 00 00 00 00	 call	 ??1?$CW2AEX@$0IA@@ATL@@QAE@XZ ; ATL::CW2AEX<128>::~CW2AEX<128>
  00176	c7 45 fc ff ff
	ff ff		 mov	 DWORD PTR __$EHRec$[ebp+8], -1
  0017d	8d 8d d4 fe ff
	ff		 lea	 ecx, DWORD PTR _pszBufferA$[ebp]
  00183	e8 00 00 00 00	 call	 ??1?$CTempBuffer@D$0IA@VCCRTAllocator@ATL@@@ATL@@QAE@XZ ; ATL::CTempBuffer<char,128,ATL::CCRTAllocator>::~CTempBuffer<char,128,ATL::CCRTAllocator>
  00188	8b 85 c8 fe ff
	ff		 mov	 eax, DWORD PTR $T205810[ebp]
$L25687:

; 179  : }

  0018e	8b 4d f4	 mov	 ecx, DWORD PTR __$EHRec$[ebp]
  00191	64 89 0d 00 00
	00 00		 mov	 DWORD PTR fs:__except_list, ecx
  00198	8b 4d ec	 mov	 ecx, DWORD PTR __$ArrayPad$[ebp]
  0019b	e8 00 00 00 00	 call	 @__security_check_cookie@4
  001a0	8b e5		 mov	 esp, ebp
  001a2	5d		 pop	 ebp
  001a3	c2 0c 00	 ret	 12			; 0000000cH
_TEXT	ENDS
;	COMDAT text$x
text$x	SEGMENT
$L205811:
  00000	8d 8d d4 fe ff
	ff		 lea	 ecx, DWORD PTR _pszBufferA$[ebp]
  00006	e9 00 00 00 00	 jmp	 ??1?$CTempBuffer@D$0IA@VCCRTAllocator@ATL@@@ATL@@QAE@XZ ; ATL::CTempBuffer<char,128,ATL::CCRTAllocator>::~CTempBuffer<char,128,ATL::CCRTAllocator>
$L205812:
  0000b	8d 8d 64 ff ff
	ff		 lea	 ecx, DWORD PTR _pszNameA$[ebp]
  00011	e9 00 00 00 00	 jmp	 ??1?$CW2AEX@$0IA@@ATL@@QAE@XZ ; ATL::CW2AEX<128>::~CW2AEX<128>
__ehhandler$?GetEnvironmentVariableWFake@ATL@@YGKPB_WPA_WK@Z:
  00016	b8 00 00 00 00	 mov	 eax, OFFSET FLAT:$T205814
  0001b	e9 00 00 00 00	 jmp	 ___CxxFrameHandler
text$x	ENDS
?GetEnvironmentVariableWFake@ATL@@YGKPB_WPA_WK@Z ENDP	; ATL::GetEnvironmentVariableWFake
; Function compile flags: /Odt
; File d:\program files (x86)\microsoft visual studio .net 2003\vc7\atlmfc\include\atlconv.h
;	COMDAT ?_AtlGetConversionACP@ATL@@YGIXZ
_TEXT	SEGMENT
?_AtlGetConversionACP@ATL@@YGIXZ PROC NEAR		; ATL::_AtlGetConversionACP, COMDAT

; 157  : {

  00000	55		 push	 ebp
  00001	8b ec		 mov	 ebp, esp

; 158  : 	return( g_pfnGetThreadACP() );

  00003	ff 15 00 00 00
	00		 call	 DWORD PTR ?g_pfnGetThreadACP@ATL@@3P6GIXZA ; ATL::g_pfnGetThreadACP

; 159  : }

  00009	5d		 pop	 ebp
  0000a	c3		 ret	 0
?_AtlGetConversionACP@ATL@@YGIXZ ENDP			; ATL::_AtlGetConversionACP
_TEXT	ENDS
PUBLIC	?CompareStringWFake@ATL@@YGHKKPB_WH0H@Z		; ATL::CompareStringWFake
EXTRN	__imp__CompareStringW@24:NEAR
; Function compile flags: /Odt
; File d:\program files (x86)\microsoft visual studio .net 2003\vc7\atlmfc\include\cstringt.h
;	COMDAT ?CompareStringWThunk@ATL@@YGHKKPB_WH0H@Z
_TEXT	SEGMENT
_lcid$ = 8						; size = 4
_dwFlags$ = 12						; size = 4
_pszString1$ = 16					; size = 4
_nLength1$ = 20						; size = 4
_pszString2$ = 24					; size = 4
_nLength2$ = 28						; size = 4
?CompareStringWThunk@ATL@@YGHKKPB_WH0H@Z PROC NEAR	; ATL::CompareStringWThunk, COMDAT

; 216  : {

  00000	55		 push	 ebp
  00001	8b ec		 mov	 ebp, esp

; 217  : 	_AtlInstallStringThunk(reinterpret_cast<void**>(&_strthunks.pfnCompareStringW), CompareStringWFake, ::CompareStringW);

  00003	a1 00 00 00 00	 mov	 eax, DWORD PTR __imp__CompareStringW@24
  00008	50		 push	 eax
  00009	68 00 00 00 00	 push	 OFFSET FLAT:?CompareStringWFake@ATL@@YGHKKPB_WH0H@Z ; ATL::CompareStringWFake
  0000e	68 00 00 00 00	 push	 OFFSET FLAT:?_strthunks@ATL@@3U_AtlStringThunks@1@A ; ATL::_strthunks
  00013	e8 00 00 00 00	 call	 ?_AtlInstallStringThunk@ATL@@YAXPAPAXPAX1@Z ; ATL::_AtlInstallStringThunk
  00018	83 c4 0c	 add	 esp, 12			; 0000000cH

; 218  : 
; 219  : 	return _strthunks.pfnCompareStringW(lcid, dwFlags, pszString1, nLength1, pszString2, nLength2);

  0001b	8b 4d 1c	 mov	 ecx, DWORD PTR _nLength2$[ebp]
  0001e	51		 push	 ecx
  0001f	8b 55 18	 mov	 edx, DWORD PTR _pszString2$[ebp]
  00022	52		 push	 edx
  00023	8b 45 14	 mov	 eax, DWORD PTR _nLength1$[ebp]
  00026	50		 push	 eax
  00027	8b 4d 10	 mov	 ecx, DWORD PTR _pszString1$[ebp]
  0002a	51		 push	 ecx
  0002b	8b 55 0c	 mov	 edx, DWORD PTR _dwFlags$[ebp]
  0002e	52		 push	 edx
  0002f	8b 45 08	 mov	 eax, DWORD PTR _lcid$[ebp]
  00032	50		 push	 eax
  00033	ff 15 00 00 00
	00		 call	 DWORD PTR ?_strthunks@ATL@@3U_AtlStringThunks@1@A

; 220  : }

  00039	5d		 pop	 ebp
  0003a	c2 18 00	 ret	 24			; 00000018H
?CompareStringWThunk@ATL@@YGHKKPB_WH0H@Z ENDP		; ATL::CompareStringWThunk
_TEXT	ENDS
PUBLIC	?AtlThrow@ATL@@YGXJ@Z				; ATL::AtlThrow
PUBLIC	?_AtlVerifyStackAvailable@_ATL_SAFE_ALLOCA_IMPL@ATL@@YA_NK@Z ; ATL::_ATL_SAFE_ALLOCA_IMPL::_AtlVerifyStackAvailable
PUBLIC	?AtlW2AHelper@@YGPADPADPB_WHI@Z			; AtlW2AHelper
PUBLIC	??0?$CAtlSafeAllocBufferManager@VCCRTAllocator@ATL@@@_ATL_SAFE_ALLOCA_IMPL@ATL@@QAE@XZ ; ATL::_ATL_SAFE_ALLOCA_IMPL::CAtlSafeAllocBufferManager<ATL::CCRTAllocator>::CAtlSafeAllocBufferManager<ATL::CCRTAllocator>
PUBLIC	?Allocate@?$CAtlSafeAllocBufferManager@VCCRTAllocator@ATL@@@_ATL_SAFE_ALLOCA_IMPL@ATL@@QAEPAXK@Z ; ATL::_ATL_SAFE_ALLOCA_IMPL::CAtlSafeAllocBufferManager<ATL::CCRTAllocator>::Allocate
PUBLIC	??1?$CAtlSafeAllocBufferManager@VCCRTAllocator@ATL@@@_ATL_SAFE_ALLOCA_IMPL@ATL@@QAE@XZ ; ATL::_ATL_SAFE_ALLOCA_IMPL::CAtlSafeAllocBufferManager<ATL::CCRTAllocator>::~CAtlSafeAllocBufferManager<ATL::CCRTAllocator>
EXTRN	__alloca_probe:NEAR
EXTRN	__imp__lstrlenW@4:NEAR
EXTRN	__imp__CompareStringA@24:NEAR
;	COMDAT xdata$x
xdata$x	SEGMENT
$T205840 DD	0ffffffffH
	DD	FLAT:$L205835
$T205837 DD	019930520H
	DD	01H
	DD	FLAT:$T205840
	DD	2 DUP(00H)
	DD	2 DUP(00H)
; Function compile flags: /Odt
xdata$x	ENDS
;	COMDAT ?CompareStringWFake@ATL@@YGHKKPB_WH0H@Z
_TEXT	SEGMENT
tv147 = -68						; size = 4
tv142 = -64						; size = 4
tv149 = -60						; size = 4
tv89 = -56						; size = 4
tv84 = -52						; size = 4
tv91 = -48						; size = 4
$T205834 = -44						; size = 4
_pszAString1$ = -40					; size = 4
__AtlSafeAllocaManager$ = -36				; size = 4
__convert_ex$ = -32					; size = 4
__acp_ex$ = -28						; size = 4
_pszAString2$ = -24					; size = 4
__lpw_ex$ = -16						; size = 4
__$EHRec$ = -12						; size = 12
_lcid$ = 8						; size = 4
_dwFlags$ = 12						; size = 4
_pszString1$ = 16					; size = 4
_nLength1$ = 20						; size = 4
_pszString2$ = 24					; size = 4
_nLength2$ = 28						; size = 4
?CompareStringWFake@ATL@@YGHKKPB_WH0H@Z PROC NEAR	; ATL::CompareStringWFake, COMDAT

; 192  : {

  00000	55		 push	 ebp
  00001	8b ec		 mov	 ebp, esp
  00003	6a ff		 push	 -1
  00005	68 00 00 00 00	 push	 __ehhandler$?CompareStringWFake@ATL@@YGHKKPB_WH0H@Z
  0000a	64 a1 00 00 00
	00		 mov	 eax, DWORD PTR fs:__except_list
  00010	50		 push	 eax
  00011	64 89 25 00 00
	00 00		 mov	 DWORD PTR fs:__except_list, esp
  00018	83 ec 38	 sub	 esp, 56			; 00000038H

; 193  : 	USES_CONVERSION_EX;

  0001b	e8 00 00 00 00	 call	 ?_AtlGetConversionACP@ATL@@YGIXZ ; ATL::_AtlGetConversionACP
  00020	89 45 e4	 mov	 DWORD PTR __acp_ex$[ebp], eax
  00023	8d 4d dc	 lea	 ecx, DWORD PTR __AtlSafeAllocaManager$[ebp]
  00026	e8 00 00 00 00	 call	 ??0?$CAtlSafeAllocBufferManager@VCCRTAllocator@ATL@@@_ATL_SAFE_ALLOCA_IMPL@ATL@@QAE@XZ ; ATL::_ATL_SAFE_ALLOCA_IMPL::CAtlSafeAllocBufferManager<ATL::CCRTAllocator>::CAtlSafeAllocBufferManager<ATL::CCRTAllocator>
  0002b	c7 45 fc 00 00
	00 00		 mov	 DWORD PTR __$EHRec$[ebp+8], 0

; 194  : 	
; 195  : 	LPCSTR pszAString1 = NULL;

  00032	c7 45 d8 00 00
	00 00		 mov	 DWORD PTR _pszAString1$[ebp], 0

; 196  : 	if(pszString1 != NULL)

  00039	83 7d 10 00	 cmp	 DWORD PTR _pszString1$[ebp], 0
  0003d	0f 84 98 00 00
	00		 je	 $L25772

; 197  : 	{
; 198  : 		pszAString1 = W2A_EX(pszString1,_ATL_SAFE_ALLOCA_DEF_THRESHOLD);

  00043	8b 45 10	 mov	 eax, DWORD PTR _pszString1$[ebp]
  00046	89 45 f0	 mov	 DWORD PTR __lpw_ex$[ebp], eax
  00049	83 7d f0 00	 cmp	 DWORD PTR __lpw_ex$[ebp], 0
  0004d	75 09		 jne	 SHORT $L205828
  0004f	c7 45 d0 00 00
	00 00		 mov	 DWORD PTR tv91[ebp], 0
  00056	eb 6d		 jmp	 SHORT $L205829
$L205828:
  00058	8b 4d f0	 mov	 ecx, DWORD PTR __lpw_ex$[ebp]
  0005b	51		 push	 ecx
  0005c	ff 15 00 00 00
	00		 call	 DWORD PTR __imp__lstrlenW@4
  00062	8d 54 00 02	 lea	 edx, DWORD PTR [eax+eax+2]
  00066	89 55 e0	 mov	 DWORD PTR __convert_ex$[ebp], edx
  00069	81 7d e0 00 04
	00 00		 cmp	 DWORD PTR __convert_ex$[ebp], 1024 ; 00000400H
  00070	7f 2c		 jg	 SHORT $L205826
  00072	8b 45 e0	 mov	 eax, DWORD PTR __convert_ex$[ebp]
  00075	50		 push	 eax
  00076	e8 00 00 00 00	 call	 ?_AtlVerifyStackAvailable@_ATL_SAFE_ALLOCA_IMPL@ATL@@YA_NK@Z ; ATL::_ATL_SAFE_ALLOCA_IMPL::_AtlVerifyStackAvailable
  0007b	83 c4 04	 add	 esp, 4
  0007e	0f b6 c8	 movzx	 ecx, al
  00081	85 c9		 test	 ecx, ecx
  00083	74 19		 je	 SHORT $L205826
  00085	8b 45 e0	 mov	 eax, DWORD PTR __convert_ex$[ebp]
  00088	83 c0 03	 add	 eax, 3
  0008b	83 e0 fc	 and	 eax, -4			; fffffffcH
  0008e	e8 00 00 00 00	 call	 __alloca_probe
  00093	89 65 cc	 mov	 DWORD PTR tv84[ebp], esp
  00096	8b 55 cc	 mov	 edx, DWORD PTR tv84[ebp]
  00099	89 55 c8	 mov	 DWORD PTR tv89[ebp], edx
  0009c	eb 0f		 jmp	 SHORT $L205827
$L205826:
  0009e	8b 45 e0	 mov	 eax, DWORD PTR __convert_ex$[ebp]
  000a1	50		 push	 eax
  000a2	8d 4d dc	 lea	 ecx, DWORD PTR __AtlSafeAllocaManager$[ebp]
  000a5	e8 00 00 00 00	 call	 ?Allocate@?$CAtlSafeAllocBufferManager@VCCRTAllocator@ATL@@@_ATL_SAFE_ALLOCA_IMPL@ATL@@QAEPAXK@Z ; ATL::_ATL_SAFE_ALLOCA_IMPL::CAtlSafeAllocBufferManager<ATL::CCRTAllocator>::Allocate
  000aa	89 45 c8	 mov	 DWORD PTR tv89[ebp], eax
$L205827:
  000ad	8b 4d e4	 mov	 ecx, DWORD PTR __acp_ex$[ebp]
  000b0	51		 push	 ecx
  000b1	8b 55 e0	 mov	 edx, DWORD PTR __convert_ex$[ebp]
  000b4	52		 push	 edx
  000b5	8b 45 f0	 mov	 eax, DWORD PTR __lpw_ex$[ebp]
  000b8	50		 push	 eax
  000b9	8b 4d c8	 mov	 ecx, DWORD PTR tv89[ebp]
  000bc	51		 push	 ecx
  000bd	e8 00 00 00 00	 call	 ?AtlW2AHelper@@YGPADPADPB_WHI@Z ; AtlW2AHelper
  000c2	89 45 d0	 mov	 DWORD PTR tv91[ebp], eax
$L205829:
  000c5	8b 55 d0	 mov	 edx, DWORD PTR tv91[ebp]
  000c8	89 55 d8	 mov	 DWORD PTR _pszAString1$[ebp], edx

; 199  : 		if(pszAString1 == NULL)

  000cb	83 7d d8 00	 cmp	 DWORD PTR _pszAString1$[ebp], 0
  000cf	75 0a		 jne	 SHORT $L25772

; 200  : 			AtlThrow(E_OUTOFMEMORY);

  000d1	68 0e 00 07 80	 push	 -2147024882		; 8007000eH
  000d6	e8 00 00 00 00	 call	 ?AtlThrow@ATL@@YGXJ@Z	; ATL::AtlThrow
$L25772:

; 201  : 	}
; 202  : 
; 203  : 	LPCSTR pszAString2 = NULL;

  000db	c7 45 e8 00 00
	00 00		 mov	 DWORD PTR _pszAString2$[ebp], 0

; 204  : 	if(pszString2 != NULL)

  000e2	83 7d 18 00	 cmp	 DWORD PTR _pszString2$[ebp], 0
  000e6	0f 84 98 00 00
	00		 je	 $L25778

; 205  : 	{
; 206  : 		pszAString2 = W2A_EX(pszString2,_ATL_SAFE_ALLOCA_DEF_THRESHOLD);

  000ec	8b 45 18	 mov	 eax, DWORD PTR _pszString2$[ebp]
  000ef	89 45 f0	 mov	 DWORD PTR __lpw_ex$[ebp], eax
  000f2	83 7d f0 00	 cmp	 DWORD PTR __lpw_ex$[ebp], 0
  000f6	75 09		 jne	 SHORT $L205832
  000f8	c7 45 c4 00 00
	00 00		 mov	 DWORD PTR tv149[ebp], 0
  000ff	eb 6d		 jmp	 SHORT $L205833
$L205832:
  00101	8b 4d f0	 mov	 ecx, DWORD PTR __lpw_ex$[ebp]
  00104	51		 push	 ecx
  00105	ff 15 00 00 00
	00		 call	 DWORD PTR __imp__lstrlenW@4
  0010b	8d 54 00 02	 lea	 edx, DWORD PTR [eax+eax+2]
  0010f	89 55 e0	 mov	 DWORD PTR __convert_ex$[ebp], edx
  00112	81 7d e0 00 04
	00 00		 cmp	 DWORD PTR __convert_ex$[ebp], 1024 ; 00000400H
  00119	7f 2c		 jg	 SHORT $L205830
  0011b	8b 45 e0	 mov	 eax, DWORD PTR __convert_ex$[ebp]
  0011e	50		 push	 eax
  0011f	e8 00 00 00 00	 call	 ?_AtlVerifyStackAvailable@_ATL_SAFE_ALLOCA_IMPL@ATL@@YA_NK@Z ; ATL::_ATL_SAFE_ALLOCA_IMPL::_AtlVerifyStackAvailable
  00124	83 c4 04	 add	 esp, 4
  00127	0f b6 c8	 movzx	 ecx, al
  0012a	85 c9		 test	 ecx, ecx
  0012c	74 19		 je	 SHORT $L205830
  0012e	8b 45 e0	 mov	 eax, DWORD PTR __convert_ex$[ebp]
  00131	83 c0 03	 add	 eax, 3
  00134	83 e0 fc	 and	 eax, -4			; fffffffcH
  00137	e8 00 00 00 00	 call	 __alloca_probe
  0013c	89 65 c0	 mov	 DWORD PTR tv142[ebp], esp
  0013f	8b 55 c0	 mov	 edx, DWORD PTR tv142[ebp]
  00142	89 55 bc	 mov	 DWORD PTR tv147[ebp], edx
  00145	eb 0f		 jmp	 SHORT $L205831
$L205830:
  00147	8b 45 e0	 mov	 eax, DWORD PTR __convert_ex$[ebp]
  0014a	50		 push	 eax
  0014b	8d 4d dc	 lea	 ecx, DWORD PTR __AtlSafeAllocaManager$[ebp]
  0014e	e8 00 00 00 00	 call	 ?Allocate@?$CAtlSafeAllocBufferManager@VCCRTAllocator@ATL@@@_ATL_SAFE_ALLOCA_IMPL@ATL@@QAEPAXK@Z ; ATL::_ATL_SAFE_ALLOCA_IMPL::CAtlSafeAllocBufferManager<ATL::CCRTAllocator>::Allocate
  00153	89 45 bc	 mov	 DWORD PTR tv147[ebp], eax
$L205831:
  00156	8b 4d e4	 mov	 ecx, DWORD PTR __acp_ex$[ebp]
  00159	51		 push	 ecx
  0015a	8b 55 e0	 mov	 edx, DWORD PTR __convert_ex$[ebp]
  0015d	52		 push	 edx
  0015e	8b 45 f0	 mov	 eax, DWORD PTR __lpw_ex$[ebp]
  00161	50		 push	 eax
  00162	8b 4d bc	 mov	 ecx, DWORD PTR tv147[ebp]
  00165	51		 push	 ecx
  00166	e8 00 00 00 00	 call	 ?AtlW2AHelper@@YGPADPADPB_WHI@Z ; AtlW2AHelper
  0016b	89 45 c4	 mov	 DWORD PTR tv149[ebp], eax
$L205833:
  0016e	8b 55 c4	 mov	 edx, DWORD PTR tv149[ebp]
  00171	89 55 e8	 mov	 DWORD PTR _pszAString2$[ebp], edx

; 207  : 		if(pszAString2 == NULL)

  00174	83 7d e8 00	 cmp	 DWORD PTR _pszAString2$[ebp], 0
  00178	75 0a		 jne	 SHORT $L25778

; 208  : 			AtlThrow(E_OUTOFMEMORY);

  0017a	68 0e 00 07 80	 push	 -2147024882		; 8007000eH
  0017f	e8 00 00 00 00	 call	 ?AtlThrow@ATL@@YGXJ@Z	; ATL::AtlThrow
$L25778:

; 209  : 	}
; 210  : 
; 211  : 	return ::CompareStringA(lcid, dwFlags, pszAString1, nLength1, pszAString2, nLength2);

  00184	8b 45 1c	 mov	 eax, DWORD PTR _nLength2$[ebp]
  00187	50		 push	 eax
  00188	8b 4d e8	 mov	 ecx, DWORD PTR _pszAString2$[ebp]
  0018b	51		 push	 ecx
  0018c	8b 55 14	 mov	 edx, DWORD PTR _nLength1$[ebp]
  0018f	52		 push	 edx
  00190	8b 45 d8	 mov	 eax, DWORD PTR _pszAString1$[ebp]
  00193	50		 push	 eax
  00194	8b 4d 0c	 mov	 ecx, DWORD PTR _dwFlags$[ebp]
  00197	51		 push	 ecx
  00198	8b 55 08	 mov	 edx, DWORD PTR _lcid$[ebp]
  0019b	52		 push	 edx
  0019c	ff 15 00 00 00
	00		 call	 DWORD PTR __imp__CompareStringA@24
  001a2	89 45 d4	 mov	 DWORD PTR $T205834[ebp], eax
  001a5	c7 45 fc ff ff
	ff ff		 mov	 DWORD PTR __$EHRec$[ebp+8], -1
  001ac	8d 4d dc	 lea	 ecx, DWORD PTR __AtlSafeAllocaManager$[ebp]
  001af	e8 00 00 00 00	 call	 ??1?$CAtlSafeAllocBufferManager@VCCRTAllocator@ATL@@@_ATL_SAFE_ALLOCA_IMPL@ATL@@QAE@XZ ; ATL::_ATL_SAFE_ALLOCA_IMPL::CAtlSafeAllocBufferManager<ATL::CCRTAllocator>::~CAtlSafeAllocBufferManager<ATL::CCRTAllocator>
  001b4	8b 45 d4	 mov	 eax, DWORD PTR $T205834[ebp]
$L205825:

; 212  : }

  001b7	8d 65 bc	 lea	 esp, DWORD PTR [ebp-68]
  001ba	8b 4d f4	 mov	 ecx, DWORD PTR __$EHRec$[ebp]
  001bd	64 89 0d 00 00
	00 00		 mov	 DWORD PTR fs:__except_list, ecx
  001c4	8b e5		 mov	 esp, ebp
  001c6	5d		 pop	 ebp
  001c7	c2 18 00	 ret	 24			; 00000018H
_TEXT	ENDS
;	COMDAT text$x
text$x	SEGMENT
$L205835:
  00000	8d 4d dc	 lea	 ecx, DWORD PTR __AtlSafeAllocaManager$[ebp]
  00003	e9 00 00 00 00	 jmp	 ??1?$CAtlSafeAllocBufferManager@VCCRTAllocator@ATL@@@_ATL_SAFE_ALLOCA_IMPL@ATL@@QAE@XZ ; ATL::_ATL_SAFE_ALLOCA_IMPL::CAtlSafeAllocBufferManager<ATL::CCRTAllocator>::~CAtlSafeAllocBufferManager<ATL::CCRTAllocator>
__ehhandler$?CompareStringWFake@ATL@@YGHKKPB_WH0H@Z:
  00008	b8 00 00 00 00	 mov	 eax, OFFSET FLAT:$T205837
  0000d	e9 00 00 00 00	 jmp	 ___CxxFrameHandler
text$x	ENDS
?CompareStringWFake@ATL@@YGHKKPB_WH0H@Z ENDP		; ATL::CompareStringWFake
EXTRN	__except_handler3:NEAR
EXTRN	__imp___resetstkoflw:NEAR
;	COMDAT CONST
; File d:\program files (x86)\microsoft visual studio .net 2003\vc7\atlmfc\include\atlalloc.h
CONST	SEGMENT
$T205851 DD	0ffffffffH
	DD	FLAT:$L205846
	DD	FLAT:$L205847
; Function compile flags: /Odt
CONST	ENDS
;	COMDAT ?_AtlVerifyStackAvailable@_ATL_SAFE_ALLOCA_IMPL@ATL@@YA_NK@Z
_TEXT	SEGMENT
tv65 = -40						; size = 4
$T205850 = -36						; size = 4
_p$24118 = -32						; size = 4
_bStackAvailable$ = -25					; size = 1
__$SEHRec$ = -24					; size = 24
_Size$ = 8						; size = 4
?_AtlVerifyStackAvailable@_ATL_SAFE_ALLOCA_IMPL@ATL@@YA_NK@Z PROC NEAR ; ATL::_ATL_SAFE_ALLOCA_IMPL::_AtlVerifyStackAvailable, COMDAT

; 331  : {

  00000	55		 push	 ebp
  00001	8b ec		 mov	 ebp, esp
  00003	6a ff		 push	 -1
  00005	68 00 00 00 00	 push	 OFFSET FLAT:$T205851
  0000a	68 00 00 00 00	 push	 OFFSET FLAT:__except_handler3
  0000f	64 a1 00 00 00
	00		 mov	 eax, DWORD PTR fs:__except_list
  00015	50		 push	 eax
  00016	64 89 25 00 00
	00 00		 mov	 DWORD PTR fs:__except_list, esp
  0001d	83 c4 e8	 add	 esp, -24		; ffffffe8H
  00020	53		 push	 ebx
  00021	56		 push	 esi
  00022	57		 push	 edi
  00023	89 65 e8	 mov	 DWORD PTR __$SEHRec$[ebp], esp

; 332  :     bool bStackAvailable = true;

  00026	c6 45 e7 01	 mov	 BYTE PTR _bStackAvailable$[ebp], 1

; 333  : 
; 334  :     __try

  0002a	c7 45 fc 00 00
	00 00		 mov	 DWORD PTR __$SEHRec$[ebp+20], 0

; 335  :     {
; 336  :         PVOID p = _alloca(Size + _ATL_STACK_MARGIN);

  00031	8b 45 08	 mov	 eax, DWORD PTR _Size$[ebp]
  00034	05 03 20 00 00	 add	 eax, 8195		; 00002003H
  00039	83 e0 fc	 and	 eax, -4			; fffffffcH
  0003c	e8 00 00 00 00	 call	 __alloca_probe
  00041	89 65 d8	 mov	 DWORD PTR tv65[ebp], esp
  00044	89 65 e8	 mov	 DWORD PTR __$SEHRec$[ebp], esp
  00047	8b 45 d8	 mov	 eax, DWORD PTR tv65[ebp]
  0004a	89 45 e0	 mov	 DWORD PTR _p$24118[ebp], eax
  0004d	c7 45 fc ff ff
	ff ff		 mov	 DWORD PTR __$SEHRec$[ebp+20], -1
  00054	eb 2c		 jmp	 SHORT $L205849
$L205846:
$L205855:

; 337  :         (p);
; 338  :     }
; 339  :     __except ((EXCEPTION_STACK_OVERFLOW == GetExceptionCode()) ?
; 340  :                    EXCEPTION_EXECUTE_HANDLER :
; 341  :                    EXCEPTION_CONTINUE_SEARCH)

  00056	8b 4d ec	 mov	 ecx, DWORD PTR __$SEHRec$[ebp+4]
  00059	8b 11		 mov	 edx, DWORD PTR [ecx]
  0005b	8b 02		 mov	 eax, DWORD PTR [edx]
  0005d	89 45 dc	 mov	 DWORD PTR $T205850[ebp], eax
  00060	8b 45 dc	 mov	 eax, DWORD PTR $T205850[ebp]
  00063	2d fd 00 00 c0	 sub	 eax, -1073741571	; c00000fdH
  00068	f7 d8		 neg	 eax
  0006a	1b c0		 sbb	 eax, eax
  0006c	40		 inc	 eax
$L205848:
$L205854:
  0006d	c3		 ret	 0
$L205847:
  0006e	8b 65 e8	 mov	 esp, DWORD PTR __$SEHRec$[ebp]

; 342  :     {
; 343  :         bStackAvailable = false;

  00071	c6 45 e7 00	 mov	 BYTE PTR _bStackAvailable$[ebp], 0

; 344  :         _resetstkoflw();

  00075	ff 15 00 00 00
	00		 call	 DWORD PTR __imp___resetstkoflw
  0007b	c7 45 fc ff ff
	ff ff		 mov	 DWORD PTR __$SEHRec$[ebp+20], -1
$L205849:

; 345  :     }
; 346  :     return bStackAvailable;

  00082	8a 45 e7	 mov	 al, BYTE PTR _bStackAvailable$[ebp]
$L205845:

; 347  : }

  00085	8d 65 cc	 lea	 esp, DWORD PTR [ebp-52]
  00088	8b 4d f0	 mov	 ecx, DWORD PTR __$SEHRec$[ebp+8]
  0008b	64 89 0d 00 00
	00 00		 mov	 DWORD PTR fs:__except_list, ecx
  00092	5f		 pop	 edi
  00093	5e		 pop	 esi
  00094	5b		 pop	 ebx
  00095	8b e5		 mov	 esp, ebp
  00097	5d		 pop	 ebp
  00098	c3		 ret	 0
?_AtlVerifyStackAvailable@_ATL_SAFE_ALLOCA_IMPL@ATL@@YA_NK@Z ENDP ; ATL::_ATL_SAFE_ALLOCA_IMPL::_AtlVerifyStackAvailable
_TEXT	ENDS
EXTRN	__imp__WideCharToMultiByte@32:NEAR
; Function compile flags: /Odt
; File d:\program files (x86)\microsoft visual studio .net 2003\vc7\atlmfc\include\atlconv.h
;	COMDAT ?AtlW2AHelper@@YGPADPADPB_WHI@Z
_TEXT	SEGMENT
_ret$ = -4						; size = 4
_lpa$ = 8						; size = 4
_lpw$ = 12						; size = 4
_nChars$ = 16						; size = 4
_acp$ = 20						; size = 4
?AtlW2AHelper@@YGPADPADPB_WHI@Z PROC NEAR		; AtlW2AHelper, COMDAT

; 573  : {

  00000	55		 push	 ebp
  00001	8b ec		 mov	 ebp, esp
  00003	51		 push	 ecx

; 574  : 	ATLASSERT(lpw != NULL);
; 575  : 	ATLASSERT(lpa != NULL);
; 576  : 	if (lpa == NULL || lpw == NULL)

  00004	83 7d 08 00	 cmp	 DWORD PTR _lpa$[ebp], 0
  00008	74 06		 je	 SHORT $L24319
  0000a	83 7d 0c 00	 cmp	 DWORD PTR _lpw$[ebp], 0
  0000e	75 04		 jne	 SHORT $L24318
$L24319:

; 577  : 		return NULL;

  00010	33 c0		 xor	 eax, eax
  00012	eb 34		 jmp	 SHORT $L24315
$L24318:

; 578  : 	// verify that no illegal character present
; 579  : 	// since lpa was allocated based on the size of lpw
; 580  : 	// don't worry about the number of chars
; 581  : 	lpa[0] = '\0';

  00014	8b 45 08	 mov	 eax, DWORD PTR _lpa$[ebp]
  00017	c6 00 00	 mov	 BYTE PTR [eax], 0

; 582  : 	int ret = WideCharToMultiByte(acp, 0, lpw, -1, lpa, nChars, NULL, NULL);

  0001a	6a 00		 push	 0
  0001c	6a 00		 push	 0
  0001e	8b 4d 10	 mov	 ecx, DWORD PTR _nChars$[ebp]
  00021	51		 push	 ecx
  00022	8b 55 08	 mov	 edx, DWORD PTR _lpa$[ebp]
  00025	52		 push	 edx
  00026	6a ff		 push	 -1
  00028	8b 45 0c	 mov	 eax, DWORD PTR _lpw$[ebp]
  0002b	50		 push	 eax
  0002c	6a 00		 push	 0
  0002e	8b 4d 14	 mov	 ecx, DWORD PTR _acp$[ebp]
  00031	51		 push	 ecx
  00032	ff 15 00 00 00
	00		 call	 DWORD PTR __imp__WideCharToMultiByte@32
  00038	89 45 fc	 mov	 DWORD PTR _ret$[ebp], eax

; 583  : 	if(ret == 0)

  0003b	83 7d fc 00	 cmp	 DWORD PTR _ret$[ebp], 0
  0003f	75 04		 jne	 SHORT $L24321

; 584  : 	{
; 585  : 		ATLASSERT(FALSE);
; 586  : 		return NULL;

  00041	33 c0		 xor	 eax, eax
  00043	eb 03		 jmp	 SHORT $L24315
$L24321:

; 587  : 	}
; 588  : 	return lpa;

  00045	8b 45 08	 mov	 eax, DWORD PTR _lpa$[ebp]
$L24315:

; 589  : }

  00048	8b e5		 mov	 esp, ebp
  0004a	5d		 pop	 ebp
  0004b	c2 10 00	 ret	 16			; 00000010H
?AtlW2AHelper@@YGPADPADPB_WHI@Z ENDP			; AtlW2AHelper
_TEXT	ENDS
EXTRN	?AfxThrowMemoryException@@YGXXZ:NEAR		; AfxThrowMemoryException
EXTRN	?AfxThrowOleException@@YGXJ@Z:NEAR		; AfxThrowOleException
; Function compile flags: /Odt
; File d:\program files (x86)\microsoft visual studio .net 2003\vc7\atlmfc\include\atlexcept.h
;	COMDAT ?AtlThrow@ATL@@YGXJ@Z
_TEXT	SEGMENT
_hr$ = 8						; size = 4
?AtlThrow@ATL@@YGXJ@Z PROC NEAR				; ATL::AtlThrow, COMDAT

; 61   : {

  00000	55		 push	 ebp
  00001	8b ec		 mov	 ebp, esp

; 62   : 	ATLTRACE(atlTraceException, 0, _T("AtlThrow: hr = 0x%x\n"), hr );
; 63   : #ifdef _AFX
; 64   : 	if( hr == E_OUTOFMEMORY )

  00003	81 7d 08 0e 00
	07 80		 cmp	 DWORD PTR _hr$[ebp], -2147024882 ; 8007000eH
  0000a	75 05		 jne	 SHORT $L24681

; 65   : 	{
; 66   : 		AfxThrowMemoryException();

  0000c	e8 00 00 00 00	 call	 ?AfxThrowMemoryException@@YGXXZ ; AfxThrowMemoryException
$L24681:

; 67   : 	}
; 68   : 	else
; 69   : 	{
; 70   : 		AfxThrowOleException( hr );

  00011	8b 45 08	 mov	 eax, DWORD PTR _hr$[ebp]
  00014	50		 push	 eax
  00015	e8 00 00 00 00	 call	 ?AfxThrowOleException@@YGXJ@Z ; AfxThrowOleException
$L205861:

; 71   : 	}
; 72   : #else
; 73   : 	throw CAtlException( hr );
; 74   : #endif
; 75   : };

  0001a	5d		 pop	 ebp
  0001b	c2 04 00	 ret	 4
?AtlThrow@ATL@@YGXJ@Z ENDP				; ATL::AtlThrow
_TEXT	ENDS
PUBLIC	?GetStringTypeExWFake@ATL@@YGHKKPB_WHPAG@Z	; ATL::GetStringTypeExWFake
EXTRN	__imp__GetStringTypeExW@20:NEAR
; Function compile flags: /Odt
; File d:\program files (x86)\microsoft visual studio .net 2003\vc7\atlmfc\include\cstringt.h
;	COMDAT ?GetStringTypeExWThunk@ATL@@YGHKKPB_WHPAG@Z
_TEXT	SEGMENT
_lcid$ = 8						; size = 4
_dwInfoType$ = 12					; size = 4
_pszSrc$ = 16						; size = 4
_nLength$ = 20						; size = 4
_pwCharType$ = 24					; size = 4
?GetStringTypeExWThunk@ATL@@YGHKKPB_WHPAG@Z PROC NEAR	; ATL::GetStringTypeExWThunk, COMDAT

; 240  : {

  00000	55		 push	 ebp
  00001	8b ec		 mov	 ebp, esp

; 241  : 	_AtlInstallStringThunk(reinterpret_cast<void**>(&_strthunks.pfnGetStringTypeExW), GetStringTypeExWFake, ::GetStringTypeExW);

  00003	a1 00 00 00 00	 mov	 eax, DWORD PTR __imp__GetStringTypeExW@20
  00008	50		 push	 eax
  00009	68 00 00 00 00	 push	 OFFSET FLAT:?GetStringTypeExWFake@ATL@@YGHKKPB_WHPAG@Z ; ATL::GetStringTypeExWFake
  0000e	68 04 00 00 00	 push	 OFFSET FLAT:?_strthunks@ATL@@3U_AtlStringThunks@1@A+4
  00013	e8 00 00 00 00	 call	 ?_AtlInstallStringThunk@ATL@@YAXPAPAXPAX1@Z ; ATL::_AtlInstallStringThunk
  00018	83 c4 0c	 add	 esp, 12			; 0000000cH

; 242  : 
; 243  : 	return _strthunks.pfnGetStringTypeExW(lcid, dwInfoType, pszSrc, nLength, pwCharType);

  0001b	8b 4d 18	 mov	 ecx, DWORD PTR _pwCharType$[ebp]
  0001e	51		 push	 ecx
  0001f	8b 55 14	 mov	 edx, DWORD PTR _nLength$[ebp]
  00022	52		 push	 edx
  00023	8b 45 10	 mov	 eax, DWORD PTR _pszSrc$[ebp]
  00026	50		 push	 eax
  00027	8b 4d 0c	 mov	 ecx, DWORD PTR _dwInfoType$[ebp]
  0002a	51		 push	 ecx
  0002b	8b 55 08	 mov	 edx, DWORD PTR _lcid$[ebp]
  0002e	52		 push	 edx
  0002f	ff 15 04 00 00
	00		 call	 DWORD PTR ?_strthunks@ATL@@3U_AtlStringThunks@1@A+4

; 244  : }

  00035	5d		 pop	 ebp
  00036	c2 14 00	 ret	 20			; 00000014H
?GetStringTypeExWThunk@ATL@@YGHKKPB_WHPAG@Z ENDP	; ATL::GetStringTypeExWThunk
_TEXT	ENDS
EXTRN	__imp__GetStringTypeExA@20:NEAR
;	COMDAT xdata$x
xdata$x	SEGMENT
$T205873 DD	0ffffffffH
	DD	FLAT:$L205868
$T205870 DD	019930520H
	DD	01H
	DD	FLAT:$T205873
	DD	2 DUP(00H)
	DD	2 DUP(00H)
; Function compile flags: /Odt
xdata$x	ENDS
;	COMDAT ?GetStringTypeExWFake@ATL@@YGHKKPB_WHPAG@Z
_TEXT	SEGMENT
$T205867 = -164						; size = 4
_nLengthA$ = -160					; size = 4
_pszA$ = -156						; size = 132
__$ArrayPad$ = -16					; size = 4
__$EHRec$ = -12						; size = 12
__$ReturnAddr$ = 4					; size = 4
_lcid$ = 8						; size = 4
_dwInfoType$ = 12					; size = 4
_pszSrc$ = 16						; size = 4
_nLength$ = 20						; size = 4
_pwCharType$ = 24					; size = 4
?GetStringTypeExWFake@ATL@@YGHKKPB_WHPAG@Z PROC NEAR	; ATL::GetStringTypeExWFake, COMDAT

; 224  : {

  00000	55		 push	 ebp
  00001	8b ec		 mov	 ebp, esp
  00003	6a ff		 push	 -1
  00005	68 00 00 00 00	 push	 __ehhandler$?GetStringTypeExWFake@ATL@@YGHKKPB_WHPAG@Z
  0000a	64 a1 00 00 00
	00		 mov	 eax, DWORD PTR fs:__except_list
  00010	50		 push	 eax
  00011	64 89 25 00 00
	00 00		 mov	 DWORD PTR fs:__except_list, esp
  00018	81 ec 98 00 00
	00		 sub	 esp, 152		; 00000098H
  0001e	a1 00 00 00 00	 mov	 eax, DWORD PTR ___security_cookie
  00023	89 45 f0	 mov	 DWORD PTR __$ArrayPad$[ebp], eax

; 225  : 	int nLengthA;
; 226  : 	CTempBuffer<char> pszA;

  00026	8d 8d 64 ff ff
	ff		 lea	 ecx, DWORD PTR _pszA$[ebp]
  0002c	e8 00 00 00 00	 call	 ??0?$CTempBuffer@D$0IA@VCCRTAllocator@ATL@@@ATL@@QAE@XZ ; ATL::CTempBuffer<char,128,ATL::CCRTAllocator>::CTempBuffer<char,128,ATL::CCRTAllocator>
  00031	c7 45 fc 00 00
	00 00		 mov	 DWORD PTR __$EHRec$[ebp+8], 0

; 227  : 
; 228  : 	nLengthA = ::WideCharToMultiByte(_AtlGetConversionACP(), 0, pszSrc, nLength, NULL, 0, NULL, NULL);

  00038	6a 00		 push	 0
  0003a	6a 00		 push	 0
  0003c	6a 00		 push	 0
  0003e	6a 00		 push	 0
  00040	8b 45 14	 mov	 eax, DWORD PTR _nLength$[ebp]
  00043	50		 push	 eax
  00044	8b 4d 10	 mov	 ecx, DWORD PTR _pszSrc$[ebp]
  00047	51		 push	 ecx
  00048	6a 00		 push	 0
  0004a	e8 00 00 00 00	 call	 ?_AtlGetConversionACP@ATL@@YGIXZ ; ATL::_AtlGetConversionACP
  0004f	50		 push	 eax
  00050	ff 15 00 00 00
	00		 call	 DWORD PTR __imp__WideCharToMultiByte@32
  00056	89 85 60 ff ff
	ff		 mov	 DWORD PTR _nLengthA$[ebp], eax

; 229  : 	pszA.Allocate(nLengthA);

  0005c	8b 95 60 ff ff
	ff		 mov	 edx, DWORD PTR _nLengthA$[ebp]
  00062	52		 push	 edx
  00063	8d 8d 64 ff ff
	ff		 lea	 ecx, DWORD PTR _pszA$[ebp]
  00069	e8 00 00 00 00	 call	 ?Allocate@?$CTempBuffer@D$0IA@VCCRTAllocator@ATL@@@ATL@@QAEPADI@Z ; ATL::CTempBuffer<char,128,ATL::CCRTAllocator>::Allocate

; 230  : 	::WideCharToMultiByte(_AtlGetConversionACP(), 0, pszSrc, nLength, pszA, nLengthA, NULL, NULL);

  0006e	6a 00		 push	 0
  00070	6a 00		 push	 0
  00072	8b 85 60 ff ff
	ff		 mov	 eax, DWORD PTR _nLengthA$[ebp]
  00078	50		 push	 eax
  00079	8d 8d 64 ff ff
	ff		 lea	 ecx, DWORD PTR _pszA$[ebp]
  0007f	e8 00 00 00 00	 call	 ??B?$CTempBuffer@D$0IA@VCCRTAllocator@ATL@@@ATL@@QBEPADXZ ; ATL::CTempBuffer<char,128,ATL::CCRTAllocator>::operator char *
  00084	50		 push	 eax
  00085	8b 4d 14	 mov	 ecx, DWORD PTR _nLength$[ebp]
  00088	51		 push	 ecx
  00089	8b 55 10	 mov	 edx, DWORD PTR _pszSrc$[ebp]
  0008c	52		 push	 edx
  0008d	6a 00		 push	 0
  0008f	e8 00 00 00 00	 call	 ?_AtlGetConversionACP@ATL@@YGIXZ ; ATL::_AtlGetConversionACP
  00094	50		 push	 eax
  00095	ff 15 00 00 00
	00		 call	 DWORD PTR __imp__WideCharToMultiByte@32

; 231  : 
; 232  : 	if (nLength == -1)

  0009b	83 7d 14 ff	 cmp	 DWORD PTR _nLength$[ebp], -1
  0009f	75 0a		 jne	 SHORT $L25804

; 233  : 		nLengthA = -1;

  000a1	c7 85 60 ff ff
	ff ff ff ff ff	 mov	 DWORD PTR _nLengthA$[ebp], -1
$L25804:

; 234  : 
; 235  : 	return ::GetStringTypeExA(lcid, dwInfoType, pszA, nLengthA, pwCharType);

  000ab	8b 45 18	 mov	 eax, DWORD PTR _pwCharType$[ebp]
  000ae	50		 push	 eax
  000af	8b 8d 60 ff ff
	ff		 mov	 ecx, DWORD PTR _nLengthA$[ebp]
  000b5	51		 push	 ecx
  000b6	8d 8d 64 ff ff
	ff		 lea	 ecx, DWORD PTR _pszA$[ebp]
  000bc	e8 00 00 00 00	 call	 ??B?$CTempBuffer@D$0IA@VCCRTAllocator@ATL@@@ATL@@QBEPADXZ ; ATL::CTempBuffer<char,128,ATL::CCRTAllocator>::operator char *
  000c1	50		 push	 eax
  000c2	8b 55 0c	 mov	 edx, DWORD PTR _dwInfoType$[ebp]
  000c5	52		 push	 edx
  000c6	8b 45 08	 mov	 eax, DWORD PTR _lcid$[ebp]
  000c9	50		 push	 eax
  000ca	ff 15 00 00 00
	00		 call	 DWORD PTR __imp__GetStringTypeExA@20
  000d0	89 85 5c ff ff
	ff		 mov	 DWORD PTR $T205867[ebp], eax
  000d6	c7 45 fc ff ff
	ff ff		 mov	 DWORD PTR __$EHRec$[ebp+8], -1
  000dd	8d 8d 64 ff ff
	ff		 lea	 ecx, DWORD PTR _pszA$[ebp]
  000e3	e8 00 00 00 00	 call	 ??1?$CTempBuffer@D$0IA@VCCRTAllocator@ATL@@@ATL@@QAE@XZ ; ATL::CTempBuffer<char,128,ATL::CCRTAllocator>::~CTempBuffer<char,128,ATL::CCRTAllocator>
  000e8	8b 85 5c ff ff
	ff		 mov	 eax, DWORD PTR $T205867[ebp]

; 236  : }

  000ee	8b 4d f4	 mov	 ecx, DWORD PTR __$EHRec$[ebp]
  000f1	64 89 0d 00 00
	00 00		 mov	 DWORD PTR fs:__except_list, ecx
  000f8	8b 4d f0	 mov	 ecx, DWORD PTR __$ArrayPad$[ebp]
  000fb	e8 00 00 00 00	 call	 @__security_check_cookie@4
  00100	8b e5		 mov	 esp, ebp
  00102	5d		 pop	 ebp
  00103	c2 14 00	 ret	 20			; 00000014H
_TEXT	ENDS
;	COMDAT text$x
text$x	SEGMENT
$L205868:
  00000	8d 8d 64 ff ff
	ff		 lea	 ecx, DWORD PTR _pszA$[ebp]
  00006	e9 00 00 00 00	 jmp	 ??1?$CTempBuffer@D$0IA@VCCRTAllocator@ATL@@@ATL@@QAE@XZ ; ATL::CTempBuffer<char,128,ATL::CCRTAllocator>::~CTempBuffer<char,128,ATL::CCRTAllocator>
__ehhandler$?GetStringTypeExWFake@ATL@@YGHKKPB_WHPAG@Z:
  0000b	b8 00 00 00 00	 mov	 eax, OFFSET FLAT:$T205870
  00010	e9 00 00 00 00	 jmp	 ___CxxFrameHandler
text$x	ENDS
?GetStringTypeExWFake@ATL@@YGHKKPB_WHPAG@Z ENDP		; ATL::GetStringTypeExWFake
PUBLIC	?lstrcmpiWFake@ATL@@YGHPB_W0@Z			; ATL::lstrcmpiWFake
EXTRN	__imp__lstrcmpiW@8:NEAR
; Function compile flags: /Odt
;	COMDAT ?lstrcmpiWThunk@ATL@@YGHPB_W0@Z
_TEXT	SEGMENT
_psz1$ = 8						; size = 4
_psz2$ = 12						; size = 4
?lstrcmpiWThunk@ATL@@YGHPB_W0@Z PROC NEAR		; ATL::lstrcmpiWThunk, COMDAT

; 254  : {

  00000	55		 push	 ebp
  00001	8b ec		 mov	 ebp, esp

; 255  : 	_AtlInstallStringThunk(reinterpret_cast<void**>(&_strthunks.pfnlstrcmpiW), lstrcmpiWFake, ::lstrcmpiW);

  00003	a1 00 00 00 00	 mov	 eax, DWORD PTR __imp__lstrcmpiW@8
  00008	50		 push	 eax
  00009	68 00 00 00 00	 push	 OFFSET FLAT:?lstrcmpiWFake@ATL@@YGHPB_W0@Z ; ATL::lstrcmpiWFake
  0000e	68 08 00 00 00	 push	 OFFSET FLAT:?_strthunks@ATL@@3U_AtlStringThunks@1@A+8
  00013	e8 00 00 00 00	 call	 ?_AtlInstallStringThunk@ATL@@YAXPAPAXPAX1@Z ; ATL::_AtlInstallStringThunk
  00018	83 c4 0c	 add	 esp, 12			; 0000000cH

; 256  : 
; 257  : 	return _strthunks.pfnlstrcmpiW(psz1, psz2);

  0001b	8b 4d 0c	 mov	 ecx, DWORD PTR _psz2$[ebp]
  0001e	51		 push	 ecx
  0001f	8b 55 08	 mov	 edx, DWORD PTR _psz1$[ebp]
  00022	52		 push	 edx
  00023	ff 15 08 00 00
	00		 call	 DWORD PTR ?_strthunks@ATL@@3U_AtlStringThunks@1@A+8

; 258  : }

  00029	5d		 pop	 ebp
  0002a	c2 08 00	 ret	 8
?lstrcmpiWThunk@ATL@@YGHPB_W0@Z ENDP			; ATL::lstrcmpiWThunk
_TEXT	ENDS
EXTRN	__imp__lstrcmpiA@8:NEAR
; Function compile flags: /Odt
;	COMDAT ?lstrcmpiWFake@ATL@@YGHPB_W0@Z
_TEXT	SEGMENT
tv91 = -32						; size = 4
tv94 = -28						; size = 4
tv76 = -24						; size = 4
tv79 = -20						; size = 4
__acp$ = -12						; size = 4
__lpw$ = -8						; size = 4
__convert$ = -4						; size = 4
_psz1$ = 8						; size = 4
_psz2$ = 12						; size = 4
?lstrcmpiWFake@ATL@@YGHPB_W0@Z PROC NEAR		; ATL::lstrcmpiWFake, COMDAT

; 247  : {

  00000	55		 push	 ebp
  00001	8b ec		 mov	 ebp, esp
  00003	83 ec 20	 sub	 esp, 32			; 00000020H

; 248  : 	USES_CONVERSION;

  00006	e8 00 00 00 00	 call	 ?_AtlGetConversionACP@ATL@@YGIXZ ; ATL::_AtlGetConversionACP
  0000b	89 45 f4	 mov	 DWORD PTR __acp$[ebp], eax

; 249  : 
; 250  : 	return ::lstrcmpiA(W2A(psz1), W2A(psz2));

  0000e	8b 45 0c	 mov	 eax, DWORD PTR _psz2$[ebp]
  00011	89 45 f8	 mov	 DWORD PTR __lpw$[ebp], eax
  00014	83 7d f8 00	 cmp	 DWORD PTR __lpw$[ebp], 0
  00018	75 09		 jne	 SHORT $L205880
  0001a	c7 45 ec 00 00
	00 00		 mov	 DWORD PTR tv79[ebp], 0
  00021	eb 3a		 jmp	 SHORT $L205881
$L205880:
  00023	8b 4d f8	 mov	 ecx, DWORD PTR __lpw$[ebp]
  00026	51		 push	 ecx
  00027	ff 15 00 00 00
	00		 call	 DWORD PTR __imp__lstrlenW@4
  0002d	8d 54 00 02	 lea	 edx, DWORD PTR [eax+eax+2]
  00031	89 55 fc	 mov	 DWORD PTR __convert$[ebp], edx
  00034	8b 45 fc	 mov	 eax, DWORD PTR __convert$[ebp]
  00037	83 c0 03	 add	 eax, 3
  0003a	83 e0 fc	 and	 eax, -4			; fffffffcH
  0003d	e8 00 00 00 00	 call	 __alloca_probe
  00042	89 65 e8	 mov	 DWORD PTR tv76[ebp], esp
  00045	8b 45 f4	 mov	 eax, DWORD PTR __acp$[ebp]
  00048	50		 push	 eax
  00049	8b 4d fc	 mov	 ecx, DWORD PTR __convert$[ebp]
  0004c	51		 push	 ecx
  0004d	8b 55 f8	 mov	 edx, DWORD PTR __lpw$[ebp]
  00050	52		 push	 edx
  00051	8b 45 e8	 mov	 eax, DWORD PTR tv76[ebp]
  00054	50		 push	 eax
  00055	e8 00 00 00 00	 call	 ?AtlW2AHelper@@YGPADPADPB_WHI@Z ; AtlW2AHelper
  0005a	89 45 ec	 mov	 DWORD PTR tv79[ebp], eax
$L205881:
  0005d	8b 4d 08	 mov	 ecx, DWORD PTR _psz1$[ebp]
  00060	89 4d f8	 mov	 DWORD PTR __lpw$[ebp], ecx
  00063	83 7d f8 00	 cmp	 DWORD PTR __lpw$[ebp], 0
  00067	75 09		 jne	 SHORT $L205882
  00069	c7 45 e4 00 00
	00 00		 mov	 DWORD PTR tv94[ebp], 0
  00070	eb 3a		 jmp	 SHORT $L205883
$L205882:
  00072	8b 55 f8	 mov	 edx, DWORD PTR __lpw$[ebp]
  00075	52		 push	 edx
  00076	ff 15 00 00 00
	00		 call	 DWORD PTR __imp__lstrlenW@4
  0007c	8d 44 00 02	 lea	 eax, DWORD PTR [eax+eax+2]
  00080	89 45 fc	 mov	 DWORD PTR __convert$[ebp], eax
  00083	8b 45 fc	 mov	 eax, DWORD PTR __convert$[ebp]
  00086	83 c0 03	 add	 eax, 3
  00089	83 e0 fc	 and	 eax, -4			; fffffffcH
  0008c	e8 00 00 00 00	 call	 __alloca_probe
  00091	89 65 e0	 mov	 DWORD PTR tv91[ebp], esp
  00094	8b 4d f4	 mov	 ecx, DWORD PTR __acp$[ebp]
  00097	51		 push	 ecx
  00098	8b 55 fc	 mov	 edx, DWORD PTR __convert$[ebp]
  0009b	52		 push	 edx
  0009c	8b 45 f8	 mov	 eax, DWORD PTR __lpw$[ebp]
  0009f	50		 push	 eax
  000a0	8b 4d e0	 mov	 ecx, DWORD PTR tv91[ebp]
  000a3	51		 push	 ecx
  000a4	e8 00 00 00 00	 call	 ?AtlW2AHelper@@YGPADPADPB_WHI@Z ; AtlW2AHelper
  000a9	89 45 e4	 mov	 DWORD PTR tv94[ebp], eax
$L205883:
  000ac	8b 55 ec	 mov	 edx, DWORD PTR tv79[ebp]
  000af	52		 push	 edx
  000b0	8b 45 e4	 mov	 eax, DWORD PTR tv94[ebp]
  000b3	50		 push	 eax
  000b4	ff 15 00 00 00
	00		 call	 DWORD PTR __imp__lstrcmpiA@8

; 251  : }

  000ba	8d 65 e0	 lea	 esp, DWORD PTR [ebp-32]
  000bd	8b e5		 mov	 esp, ebp
  000bf	5d		 pop	 ebp
  000c0	c2 08 00	 ret	 8
?lstrcmpiWFake@ATL@@YGHPB_W0@Z ENDP			; ATL::lstrcmpiWFake
_TEXT	ENDS
PUBLIC	?CharLowerWFake@ATL@@YGPA_WPA_W@Z		; ATL::CharLowerWFake
EXTRN	__imp__CharLowerW@4:NEAR
; Function compile flags: /Odt
;	COMDAT ?CharLowerWThunk@ATL@@YGPA_WPA_W@Z
_TEXT	SEGMENT
_psz$ = 8						; size = 4
?CharLowerWThunk@ATL@@YGPA_WPA_W@Z PROC NEAR		; ATL::CharLowerWThunk, COMDAT

; 273  : {

  00000	55		 push	 ebp
  00001	8b ec		 mov	 ebp, esp

; 274  : 	_AtlInstallStringThunk(reinterpret_cast<void**>(&_strthunks.pfnCharLowerW), CharLowerWFake, ::CharLowerW);

  00003	a1 00 00 00 00	 mov	 eax, DWORD PTR __imp__CharLowerW@4
  00008	50		 push	 eax
  00009	68 00 00 00 00	 push	 OFFSET FLAT:?CharLowerWFake@ATL@@YGPA_WPA_W@Z ; ATL::CharLowerWFake
  0000e	68 0c 00 00 00	 push	 OFFSET FLAT:?_strthunks@ATL@@3U_AtlStringThunks@1@A+12
  00013	e8 00 00 00 00	 call	 ?_AtlInstallStringThunk@ATL@@YAXPAPAXPAX1@Z ; ATL::_AtlInstallStringThunk
  00018	83 c4 0c	 add	 esp, 12			; 0000000cH

; 275  : 
; 276  : 	return _strthunks.pfnCharLowerW(psz);

  0001b	8b 4d 08	 mov	 ecx, DWORD PTR _psz$[ebp]
  0001e	51		 push	 ecx
  0001f	ff 15 0c 00 00
	00		 call	 DWORD PTR ?_strthunks@ATL@@3U_AtlStringThunks@1@A+12

; 277  : }

  00025	5d		 pop	 ebp
  00026	c2 04 00	 ret	 4
?CharLowerWThunk@ATL@@YGPA_WPA_W@Z ENDP			; ATL::CharLowerWThunk
_TEXT	ENDS
PUBLIC	?AtlA2WHelper@@YGPA_WPA_WPBDHI@Z		; AtlA2WHelper
EXTRN	__imp__lstrlenA@4:NEAR
EXTRN	__imp__CharLowerA@4:NEAR
EXTRN	__imp__wcscpy:NEAR
; Function compile flags: /Odt
;	COMDAT ?CharLowerWFake@ATL@@YGPA_WPA_W@Z
_TEXT	SEGMENT
tv90 = -36						; size = 4
tv94 = -32						; size = 4
tv75 = -28						; size = 4
tv78 = -24						; size = 4
__lpa$ = -20						; size = 4
__acp$ = -16						; size = 4
_pszA$ = -12						; size = 4
__lpw$ = -8						; size = 4
__convert$ = -4						; size = 4
_psz$ = 8						; size = 4
?CharLowerWFake@ATL@@YGPA_WPA_W@Z PROC NEAR		; ATL::CharLowerWFake, COMDAT

; 261  : {

  00000	55		 push	 ebp
  00001	8b ec		 mov	 ebp, esp
  00003	83 ec 24	 sub	 esp, 36			; 00000024H

; 262  : 	USES_CONVERSION;

  00006	e8 00 00 00 00	 call	 ?_AtlGetConversionACP@ATL@@YGIXZ ; ATL::_AtlGetConversionACP
  0000b	89 45 f0	 mov	 DWORD PTR __acp$[ebp], eax

; 263  : 	LPSTR pszA;
; 264  : 
; 265  : 	pszA = W2A(psz);

  0000e	8b 45 08	 mov	 eax, DWORD PTR _psz$[ebp]
  00011	89 45 f8	 mov	 DWORD PTR __lpw$[ebp], eax
  00014	83 7d f8 00	 cmp	 DWORD PTR __lpw$[ebp], 0
  00018	75 09		 jne	 SHORT $L205888
  0001a	c7 45 e8 00 00
	00 00		 mov	 DWORD PTR tv78[ebp], 0
  00021	eb 3a		 jmp	 SHORT $L205889
$L205888:
  00023	8b 4d f8	 mov	 ecx, DWORD PTR __lpw$[ebp]
  00026	51		 push	 ecx
  00027	ff 15 00 00 00
	00		 call	 DWORD PTR __imp__lstrlenW@4
  0002d	8d 54 00 02	 lea	 edx, DWORD PTR [eax+eax+2]
  00031	89 55 fc	 mov	 DWORD PTR __convert$[ebp], edx
  00034	8b 45 fc	 mov	 eax, DWORD PTR __convert$[ebp]
  00037	83 c0 03	 add	 eax, 3
  0003a	83 e0 fc	 and	 eax, -4			; fffffffcH
  0003d	e8 00 00 00 00	 call	 __alloca_probe
  00042	89 65 e4	 mov	 DWORD PTR tv75[ebp], esp
  00045	8b 45 f0	 mov	 eax, DWORD PTR __acp$[ebp]
  00048	50		 push	 eax
  00049	8b 4d fc	 mov	 ecx, DWORD PTR __convert$[ebp]
  0004c	51		 push	 ecx
  0004d	8b 55 f8	 mov	 edx, DWORD PTR __lpw$[ebp]
  00050	52		 push	 edx
  00051	8b 45 e4	 mov	 eax, DWORD PTR tv75[ebp]
  00054	50		 push	 eax
  00055	e8 00 00 00 00	 call	 ?AtlW2AHelper@@YGPADPADPB_WHI@Z ; AtlW2AHelper
  0005a	89 45 e8	 mov	 DWORD PTR tv78[ebp], eax
$L205889:
  0005d	8b 4d e8	 mov	 ecx, DWORD PTR tv78[ebp]
  00060	89 4d f4	 mov	 DWORD PTR _pszA$[ebp], ecx

; 266  : 	::CharLowerA(pszA);

  00063	8b 55 f4	 mov	 edx, DWORD PTR _pszA$[ebp]
  00066	52		 push	 edx
  00067	ff 15 00 00 00
	00		 call	 DWORD PTR __imp__CharLowerA@4

; 267  : 	wcscpy(psz, A2W(pszA));

  0006d	8b 45 f4	 mov	 eax, DWORD PTR _pszA$[ebp]
  00070	89 45 ec	 mov	 DWORD PTR __lpa$[ebp], eax
  00073	83 7d ec 00	 cmp	 DWORD PTR __lpa$[ebp], 0
  00077	75 09		 jne	 SHORT $L205890
  00079	c7 45 e0 00 00
	00 00		 mov	 DWORD PTR tv94[ebp], 0
  00080	eb 3b		 jmp	 SHORT $L205891
$L205890:
  00082	8b 4d ec	 mov	 ecx, DWORD PTR __lpa$[ebp]
  00085	51		 push	 ecx
  00086	ff 15 00 00 00
	00		 call	 DWORD PTR __imp__lstrlenA@4
  0008c	83 c0 01	 add	 eax, 1
  0008f	89 45 fc	 mov	 DWORD PTR __convert$[ebp], eax
  00092	8b 45 fc	 mov	 eax, DWORD PTR __convert$[ebp]
  00095	d1 e0		 shl	 eax, 1
  00097	83 c0 03	 add	 eax, 3
  0009a	83 e0 fc	 and	 eax, -4			; fffffffcH
  0009d	e8 00 00 00 00	 call	 __alloca_probe
  000a2	89 65 dc	 mov	 DWORD PTR tv90[ebp], esp
  000a5	8b 55 f0	 mov	 edx, DWORD PTR __acp$[ebp]
  000a8	52		 push	 edx
  000a9	8b 45 fc	 mov	 eax, DWORD PTR __convert$[ebp]
  000ac	50		 push	 eax
  000ad	8b 4d ec	 mov	 ecx, DWORD PTR __lpa$[ebp]
  000b0	51		 push	 ecx
  000b1	8b 55 dc	 mov	 edx, DWORD PTR tv90[ebp]
  000b4	52		 push	 edx
  000b5	e8 00 00 00 00	 call	 ?AtlA2WHelper@@YGPA_WPA_WPBDHI@Z ; AtlA2WHelper
  000ba	89 45 e0	 mov	 DWORD PTR tv94[ebp], eax
$L205891:
  000bd	8b 45 e0	 mov	 eax, DWORD PTR tv94[ebp]
  000c0	50		 push	 eax
  000c1	8b 4d 08	 mov	 ecx, DWORD PTR _psz$[ebp]
  000c4	51		 push	 ecx
  000c5	ff 15 00 00 00
	00		 call	 DWORD PTR __imp__wcscpy
  000cb	83 c4 08	 add	 esp, 8

; 268  : 
; 269  : 	return psz;

  000ce	8b 45 08	 mov	 eax, DWORD PTR _psz$[ebp]

; 270  : }

  000d1	8d 65 dc	 lea	 esp, DWORD PTR [ebp-36]
  000d4	8b e5		 mov	 esp, ebp
  000d6	5d		 pop	 ebp
  000d7	c2 04 00	 ret	 4
?CharLowerWFake@ATL@@YGPA_WPA_W@Z ENDP			; ATL::CharLowerWFake
; Function compile flags: /Odt
; File d:\program files (x86)\microsoft visual studio .net 2003\vc7\atlmfc\include\atlconv.h
_TEXT	ENDS
;	COMDAT ?AtlA2WHelper@@YGPA_WPA_WPBDHI@Z
_TEXT	SEGMENT
_ret$ = -4						; size = 4
_lpw$ = 8						; size = 4
_lpa$ = 12						; size = 4
_nChars$ = 16						; size = 4
_acp$ = 20						; size = 4
?AtlA2WHelper@@YGPA_WPA_WPBDHI@Z PROC NEAR		; AtlA2WHelper, COMDAT

; 554  : {

  00000	55		 push	 ebp
  00001	8b ec		 mov	 ebp, esp
  00003	51		 push	 ecx

; 555  : 	ATLASSERT(lpa != NULL);
; 556  : 	ATLASSERT(lpw != NULL);
; 557  : 	if (lpw == NULL || lpa == NULL)

  00004	83 7d 08 00	 cmp	 DWORD PTR _lpw$[ebp], 0
  00008	74 06		 je	 SHORT $L24306
  0000a	83 7d 0c 00	 cmp	 DWORD PTR _lpa$[ebp], 0
  0000e	75 04		 jne	 SHORT $L24305
$L24306:

; 558  : 		return NULL;

  00010	33 c0		 xor	 eax, eax
  00012	eb 32		 jmp	 SHORT $L24302
$L24305:

; 559  : 	// verify that no illegal character present
; 560  : 	// since lpw was allocated based on the size of lpa
; 561  : 	// don't worry about the number of chars
; 562  : 	lpw[0] = '\0';

  00014	8b 45 08	 mov	 eax, DWORD PTR _lpw$[ebp]
  00017	66 c7 00 00 00	 mov	 WORD PTR [eax], 0

; 563  : 	int ret = MultiByteToWideChar(acp, 0, lpa, -1, lpw, nChars);

  0001c	8b 4d 10	 mov	 ecx, DWORD PTR _nChars$[ebp]
  0001f	51		 push	 ecx
  00020	8b 55 08	 mov	 edx, DWORD PTR _lpw$[ebp]
  00023	52		 push	 edx
  00024	6a ff		 push	 -1
  00026	8b 45 0c	 mov	 eax, DWORD PTR _lpa$[ebp]
  00029	50		 push	 eax
  0002a	6a 00		 push	 0
  0002c	8b 4d 14	 mov	 ecx, DWORD PTR _acp$[ebp]
  0002f	51		 push	 ecx
  00030	ff 15 00 00 00
	00		 call	 DWORD PTR __imp__MultiByteToWideChar@24
  00036	89 45 fc	 mov	 DWORD PTR _ret$[ebp], eax

; 564  : 	if(ret == 0)

  00039	83 7d fc 00	 cmp	 DWORD PTR _ret$[ebp], 0
  0003d	75 04		 jne	 SHORT $L24308

; 565  : 	{
; 566  : 		ATLASSERT(FALSE);
; 567  : 		return NULL;

  0003f	33 c0		 xor	 eax, eax
  00041	eb 03		 jmp	 SHORT $L24302
$L24308:

; 568  : 	}		
; 569  : 	return lpw;

  00043	8b 45 08	 mov	 eax, DWORD PTR _lpw$[ebp]
$L24302:

; 570  : }

  00046	8b e5		 mov	 esp, ebp
  00048	5d		 pop	 ebp
  00049	c2 10 00	 ret	 16			; 00000010H
?AtlA2WHelper@@YGPA_WPA_WPBDHI@Z ENDP			; AtlA2WHelper
_TEXT	ENDS
PUBLIC	?CharUpperWFake@ATL@@YGPA_WPA_W@Z		; ATL::CharUpperWFake
EXTRN	__imp__CharUpperW@4:NEAR
; Function compile flags: /Odt
; File d:\program files (x86)\microsoft visual studio .net 2003\vc7\atlmfc\include\cstringt.h
;	COMDAT ?CharUpperWThunk@ATL@@YGPA_WPA_W@Z
_TEXT	SEGMENT
_psz$ = 8						; size = 4
?CharUpperWThunk@ATL@@YGPA_WPA_W@Z PROC NEAR		; ATL::CharUpperWThunk, COMDAT

; 292  : {

  00000	55		 push	 ebp
  00001	8b ec		 mov	 ebp, esp

; 293  : 	_AtlInstallStringThunk(reinterpret_cast<void**>(&_strthunks.pfnCharUpperW), CharUpperWFake, ::CharUpperW);

  00003	a1 00 00 00 00	 mov	 eax, DWORD PTR __imp__CharUpperW@4
  00008	50		 push	 eax
  00009	68 00 00 00 00	 push	 OFFSET FLAT:?CharUpperWFake@ATL@@YGPA_WPA_W@Z ; ATL::CharUpperWFake
  0000e	68 10 00 00 00	 push	 OFFSET FLAT:?_strthunks@ATL@@3U_AtlStringThunks@1@A+16
  00013	e8 00 00 00 00	 call	 ?_AtlInstallStringThunk@ATL@@YAXPAPAXPAX1@Z ; ATL::_AtlInstallStringThunk
  00018	83 c4 0c	 add	 esp, 12			; 0000000cH

; 294  : 
; 295  : 	return _strthunks.pfnCharUpperW(psz);

  0001b	8b 4d 08	 mov	 ecx, DWORD PTR _psz$[ebp]
  0001e	51		 push	 ecx
  0001f	ff 15 10 00 00
	00		 call	 DWORD PTR ?_strthunks@ATL@@3U_AtlStringThunks@1@A+16

; 296  : }

  00025	5d		 pop	 ebp
  00026	c2 04 00	 ret	 4
?CharUpperWThunk@ATL@@YGPA_WPA_W@Z ENDP			; ATL::CharUpperWThunk
_TEXT	ENDS
EXTRN	__imp__CharUpperA@4:NEAR
; Function compile flags: /Odt
;	COMDAT ?CharUpperWFake@ATL@@YGPA_WPA_W@Z
_TEXT	SEGMENT
tv90 = -36						; size = 4
tv94 = -32						; size = 4
tv75 = -28						; size = 4
tv78 = -24						; size = 4
__lpa$ = -20						; size = 4
__acp$ = -16						; size = 4
_pszA$ = -12						; size = 4
__lpw$ = -8						; size = 4
__convert$ = -4						; size = 4
_psz$ = 8						; size = 4
?CharUpperWFake@ATL@@YGPA_WPA_W@Z PROC NEAR		; ATL::CharUpperWFake, COMDAT

; 280  : {

  00000	55		 push	 ebp
  00001	8b ec		 mov	 ebp, esp
  00003	83 ec 24	 sub	 esp, 36			; 00000024H

; 281  : 	USES_CONVERSION;

  00006	e8 00 00 00 00	 call	 ?_AtlGetConversionACP@ATL@@YGIXZ ; ATL::_AtlGetConversionACP
  0000b	89 45 f0	 mov	 DWORD PTR __acp$[ebp], eax

; 282  : 	LPSTR pszA;
; 283  : 
; 284  : 	pszA = W2A(psz);

  0000e	8b 45 08	 mov	 eax, DWORD PTR _psz$[ebp]
  00011	89 45 f8	 mov	 DWORD PTR __lpw$[ebp], eax
  00014	83 7d f8 00	 cmp	 DWORD PTR __lpw$[ebp], 0
  00018	75 09		 jne	 SHORT $L205898
  0001a	c7 45 e8 00 00
	00 00		 mov	 DWORD PTR tv78[ebp], 0
  00021	eb 3a		 jmp	 SHORT $L205899
$L205898:
  00023	8b 4d f8	 mov	 ecx, DWORD PTR __lpw$[ebp]
  00026	51		 push	 ecx
  00027	ff 15 00 00 00
	00		 call	 DWORD PTR __imp__lstrlenW@4
  0002d	8d 54 00 02	 lea	 edx, DWORD PTR [eax+eax+2]
  00031	89 55 fc	 mov	 DWORD PTR __convert$[ebp], edx
  00034	8b 45 fc	 mov	 eax, DWORD PTR __convert$[ebp]
  00037	83 c0 03	 add	 eax, 3
  0003a	83 e0 fc	 and	 eax, -4			; fffffffcH
  0003d	e8 00 00 00 00	 call	 __alloca_probe
  00042	89 65 e4	 mov	 DWORD PTR tv75[ebp], esp
  00045	8b 45 f0	 mov	 eax, DWORD PTR __acp$[ebp]
  00048	50		 push	 eax
  00049	8b 4d fc	 mov	 ecx, DWORD PTR __convert$[ebp]
  0004c	51		 push	 ecx
  0004d	8b 55 f8	 mov	 edx, DWORD PTR __lpw$[ebp]
  00050	52		 push	 edx
  00051	8b 45 e4	 mov	 eax, DWORD PTR tv75[ebp]
  00054	50		 push	 eax
  00055	e8 00 00 00 00	 call	 ?AtlW2AHelper@@YGPADPADPB_WHI@Z ; AtlW2AHelper
  0005a	89 45 e8	 mov	 DWORD PTR tv78[ebp], eax
$L205899:
  0005d	8b 4d e8	 mov	 ecx, DWORD PTR tv78[ebp]
  00060	89 4d f4	 mov	 DWORD PTR _pszA$[ebp], ecx

; 285  : 	::CharUpperA(pszA);

  00063	8b 55 f4	 mov	 edx, DWORD PTR _pszA$[ebp]
  00066	52		 push	 edx
  00067	ff 15 00 00 00
	00		 call	 DWORD PTR __imp__CharUpperA@4

; 286  : 	wcscpy(psz, A2W(pszA));

  0006d	8b 45 f4	 mov	 eax, DWORD PTR _pszA$[ebp]
  00070	89 45 ec	 mov	 DWORD PTR __lpa$[ebp], eax
  00073	83 7d ec 00	 cmp	 DWORD PTR __lpa$[ebp], 0
  00077	75 09		 jne	 SHORT $L205900
  00079	c7 45 e0 00 00
	00 00		 mov	 DWORD PTR tv94[ebp], 0
  00080	eb 3b		 jmp	 SHORT $L205901
$L205900:
  00082	8b 4d ec	 mov	 ecx, DWORD PTR __lpa$[ebp]
  00085	51		 push	 ecx
  00086	ff 15 00 00 00
	00		 call	 DWORD PTR __imp__lstrlenA@4
  0008c	83 c0 01	 add	 eax, 1
  0008f	89 45 fc	 mov	 DWORD PTR __convert$[ebp], eax
  00092	8b 45 fc	 mov	 eax, DWORD PTR __convert$[ebp]
  00095	d1 e0		 shl	 eax, 1
  00097	83 c0 03	 add	 eax, 3
  0009a	83 e0 fc	 and	 eax, -4			; fffffffcH
  0009d	e8 00 00 00 00	 call	 __alloca_probe
  000a2	89 65 dc	 mov	 DWORD PTR tv90[ebp], esp
  000a5	8b 55 f0	 mov	 edx, DWORD PTR __acp$[ebp]
  000a8	52		 push	 edx
  000a9	8b 45 fc	 mov	 eax, DWORD PTR __convert$[ebp]
  000ac	50		 push	 eax
  000ad	8b 4d ec	 mov	 ecx, DWORD PTR __lpa$[ebp]
  000b0	51		 push	 ecx
  000b1	8b 55 dc	 mov	 edx, DWORD PTR tv90[ebp]
  000b4	52		 push	 edx
  000b5	e8 00 00 00 00	 call	 ?AtlA2WHelper@@YGPA_WPA_WPBDHI@Z ; AtlA2WHelper
  000ba	89 45 e0	 mov	 DWORD PTR tv94[ebp], eax
$L205901:
  000bd	8b 45 e0	 mov	 eax, DWORD PTR tv94[ebp]
  000c0	50		 push	 eax
  000c1	8b 4d 08	 mov	 ecx, DWORD PTR _psz$[ebp]
  000c4	51		 push	 ecx
  000c5	ff 15 00 00 00
	00		 call	 DWORD PTR __imp__wcscpy
  000cb	83 c4 08	 add	 esp, 8

; 287  : 
; 288  : 	return psz;

  000ce	8b 45 08	 mov	 eax, DWORD PTR _psz$[ebp]

; 289  : }

  000d1	8d 65 dc	 lea	 esp, DWORD PTR [ebp-36]
  000d4	8b e5		 mov	 esp, ebp
  000d6	5d		 pop	 ebp
  000d7	c2 04 00	 ret	 4
?CharUpperWFake@ATL@@YGPA_WPA_W@Z ENDP			; ATL::CharUpperWFake
; Function compile flags: /Odt
; File d:\program files (x86)\microsoft visual studio .net 2003\vc7\atlmfc\include\atltypes.inl
_TEXT	ENDS
;	COMDAT ??0CRect@@QAE@HHHH@Z
_TEXT	SEGMENT
_this$ = -4						; size = 4
_l$ = 8							; size = 4
_t$ = 12						; size = 4
_r$ = 16						; size = 4
_b$ = 20						; size = 4
??0CRect@@QAE@HHHH@Z PROC NEAR				; CRect::CRect, COMDAT
; _this$ = ecx

; 112  : 	{ left = l; top = t; right = r; bottom = b; }

  00000	55		 push	 ebp
  00001	8b ec		 mov	 ebp, esp
  00003	51		 push	 ecx
  00004	89 4d fc	 mov	 DWORD PTR _this$[ebp], ecx
  00007	8b 45 fc	 mov	 eax, DWORD PTR _this$[ebp]
  0000a	8b 4d 08	 mov	 ecx, DWORD PTR _l$[ebp]
  0000d	89 08		 mov	 DWORD PTR [eax], ecx
  0000f	8b 55 fc	 mov	 edx, DWORD PTR _this$[ebp]
  00012	8b 45 0c	 mov	 eax, DWORD PTR _t$[ebp]
  00015	89 42 04	 mov	 DWORD PTR [edx+4], eax
  00018	8b 4d fc	 mov	 ecx, DWORD PTR _this$[ebp]
  0001b	8b 55 10	 mov	 edx, DWORD PTR _r$[ebp]
  0001e	89 51 08	 mov	 DWORD PTR [ecx+8], edx
  00021	8b 45 fc	 mov	 eax, DWORD PTR _this$[ebp]
  00024	8b 4d 14	 mov	 ecx, DWORD PTR _b$[ebp]
  00027	89 48 0c	 mov	 DWORD PTR [eax+12], ecx
  0002a	8b 45 fc	 mov	 eax, DWORD PTR _this$[ebp]
  0002d	8b e5		 mov	 esp, ebp
  0002f	5d		 pop	 ebp
  00030	c2 10 00	 ret	 16			; 00000010H
??0CRect@@QAE@HHHH@Z ENDP				; CRect::CRect
; Function compile flags: /Odt
; File d:\program files (x86)\microsoft visual studio .net 2003\vc7\atlmfc\include\afx.inl
_TEXT	ENDS
;	COMDAT ?Serialize@CObject@@UAEXAAVCArchive@@@Z
_TEXT	SEGMENT
_this$ = -4						; size = 4
___formal$ = 8						; size = 4
?Serialize@CObject@@UAEXAAVCArchive@@@Z PROC NEAR	; CObject::Serialize, COMDAT
; _this$ = ecx

; 25   : 	{ /* CObject does not serialize anything by default */ }

  00000	55		 push	 ebp
  00001	8b ec		 mov	 ebp, esp
  00003	51		 push	 ecx
  00004	89 4d fc	 mov	 DWORD PTR _this$[ebp], ecx
  00007	8b e5		 mov	 esp, ebp
  00009	5d		 pop	 ebp
  0000a	c2 04 00	 ret	 4
?Serialize@CObject@@UAEXAAVCArchive@@@Z ENDP		; CObject::Serialize
_TEXT	ENDS
EXTRN	??3@YAXPAX@Z:NEAR				; operator delete
; Function compile flags: /Odt
;	COMDAT ??3CObject@@SGXPAX@Z
_TEXT	SEGMENT
_p$ = 8							; size = 4
??3CObject@@SGXPAX@Z PROC NEAR				; CObject::operator delete, COMDAT

; 31   : 	{ ::operator delete(p); }

  00000	55		 push	 ebp
  00001	8b ec		 mov	 ebp, esp
  00003	8b 45 08	 mov	 eax, DWORD PTR _p$[ebp]
  00006	50		 push	 eax
  00007	e8 00 00 00 00	 call	 ??3@YAXPAX@Z		; operator delete
  0000c	83 c4 04	 add	 esp, 4
  0000f	5d		 pop	 ebp
  00010	c2 04 00	 ret	 4
??3CObject@@SGXPAX@Z ENDP				; CObject::operator delete
_TEXT	ENDS
EXTRN	??2@YAPAXI@Z:NEAR				; operator new
; Function compile flags: /Odt
;	COMDAT ??2CObject@@SGPAXI@Z
_TEXT	SEGMENT
_nSize$ = 8						; size = 4
??2CObject@@SGPAXI@Z PROC NEAR				; CObject::operator new, COMDAT

; 37   : 	{ return ::operator new(nSize); }

  00000	55		 push	 ebp
  00001	8b ec		 mov	 ebp, esp
  00003	8b 45 08	 mov	 eax, DWORD PTR _nSize$[ebp]
  00006	50		 push	 eax
  00007	e8 00 00 00 00	 call	 ??2@YAPAXI@Z		; operator new
  0000c	83 c4 04	 add	 esp, 4
  0000f	5d		 pop	 ebp
  00010	c2 04 00	 ret	 4
??2CObject@@SGPAXI@Z ENDP				; CObject::operator new
; Function compile flags: /Odt
_TEXT	ENDS
;	COMDAT ?AssertValid@CObject@@UBEXXZ
_TEXT	SEGMENT
_this$ = -4						; size = 4
?AssertValid@CObject@@UBEXXZ PROC NEAR			; CObject::AssertValid, COMDAT
; _this$ = ecx

; 41   : 	{ /* no asserts in release builds */ }

  00000	55		 push	 ebp
  00001	8b ec		 mov	 ebp, esp
  00003	51		 push	 ecx
  00004	89 4d fc	 mov	 DWORD PTR _this$[ebp], ecx
  00007	8b e5		 mov	 esp, ebp
  00009	5d		 pop	 ebp
  0000a	c3		 ret	 0
?AssertValid@CObject@@UBEXXZ ENDP			; CObject::AssertValid
; Function compile flags: /Odt
_TEXT	ENDS
;	COMDAT ?Dump@CObject@@UBEXAAVCDumpContext@@@Z
_TEXT	SEGMENT
_this$ = -4						; size = 4
___formal$ = 8						; size = 4
?Dump@CObject@@UBEXAAVCDumpContext@@@Z PROC NEAR	; CObject::Dump, COMDAT
; _this$ = ecx

; 43   : 	{ /* no dumping in release builds */ }

  00000	55		 push	 ebp
  00001	8b ec		 mov	 ebp, esp
  00003	51		 push	 ecx
  00004	89 4d fc	 mov	 DWORD PTR _this$[ebp], ecx
  00007	8b e5		 mov	 esp, ebp
  00009	5d		 pop	 ebp
  0000a	c2 04 00	 ret	 4
?Dump@CObject@@UBEXAAVCDumpContext@@@Z ENDP		; CObject::Dump
_TEXT	ENDS
EXTRN	__imp__PostMessageA@16:NEAR
; Function compile flags: /Odt
; File d:\program files (x86)\microsoft visual studio .net 2003\vc7\atlmfc\include\afxwin2.inl
;	COMDAT ?PostMessageA@CWnd@@QAEHIIJ@Z
_TEXT	SEGMENT
_this$ = -4						; size = 4
_message$ = 8						; size = 4
_wParam$ = 12						; size = 4
_lParam$ = 16						; size = 4
?PostMessageA@CWnd@@QAEHIIJ@Z PROC NEAR			; CWnd::PostMessageA, COMDAT
; _this$ = ecx

; 46   : 	{ ASSERT(::IsWindow(m_hWnd)); return ::PostMessage(m_hWnd, message, wParam, lParam); }

  00000	55		 push	 ebp
  00001	8b ec		 mov	 ebp, esp
  00003	51		 push	 ecx
  00004	89 4d fc	 mov	 DWORD PTR _this$[ebp], ecx
  00007	8b 45 10	 mov	 eax, DWORD PTR _lParam$[ebp]
  0000a	50		 push	 eax
  0000b	8b 4d 0c	 mov	 ecx, DWORD PTR _wParam$[ebp]
  0000e	51		 push	 ecx
  0000f	8b 55 08	 mov	 edx, DWORD PTR _message$[ebp]
  00012	52		 push	 edx
  00013	8b 45 fc	 mov	 eax, DWORD PTR _this$[ebp]
  00016	8b 48 20	 mov	 ecx, DWORD PTR [eax+32]
  00019	51		 push	 ecx
  0001a	ff 15 00 00 00
	00		 call	 DWORD PTR __imp__PostMessageA@16
  00020	8b e5		 mov	 esp, ebp
  00022	5d		 pop	 ebp
  00023	c2 0c 00	 ret	 12			; 0000000cH
?PostMessageA@CWnd@@QAEHIIJ@Z ENDP			; CWnd::PostMessageA
_TEXT	ENDS
EXTRN	__imp__InvalidateRect@12:NEAR
; Function compile flags: /Odt
;	COMDAT ?Invalidate@CWnd@@QAEXH@Z
_TEXT	SEGMENT
_this$ = -4						; size = 4
_bErase$ = 8						; size = 4
?Invalidate@CWnd@@QAEXH@Z PROC NEAR			; CWnd::Invalidate, COMDAT
; _this$ = ecx

; 135  : 	{ ASSERT(::IsWindow(m_hWnd)); ::InvalidateRect(m_hWnd, NULL, bErase); }

  00000	55		 push	 ebp
  00001	8b ec		 mov	 ebp, esp
  00003	51		 push	 ecx
  00004	89 4d fc	 mov	 DWORD PTR _this$[ebp], ecx
  00007	8b 45 08	 mov	 eax, DWORD PTR _bErase$[ebp]
  0000a	50		 push	 eax
  0000b	6a 00		 push	 0
  0000d	8b 4d fc	 mov	 ecx, DWORD PTR _this$[ebp]
  00010	8b 51 20	 mov	 edx, DWORD PTR [ecx+32]
  00013	52		 push	 edx
  00014	ff 15 00 00 00
	00		 call	 DWORD PTR __imp__InvalidateRect@12
  0001a	8b e5		 mov	 esp, ebp
  0001c	5d		 pop	 ebp
  0001d	c2 04 00	 ret	 4
?Invalidate@CWnd@@QAEXH@Z ENDP				; CWnd::Invalidate
_TEXT	ENDS
EXTRN	__imp__GetParent@4:NEAR
EXTRN	?FromHandle@CWnd@@SGPAV1@PAUHWND__@@@Z:NEAR	; CWnd::FromHandle
; Function compile flags: /Odt
;	COMDAT ?GetParent@CWnd@@QBEPAV1@XZ
_TEXT	SEGMENT
_this$ = -4						; size = 4
?GetParent@CWnd@@QBEPAV1@XZ PROC NEAR			; CWnd::GetParent, COMDAT
; _this$ = ecx

; 282  : 	{ ASSERT(::IsWindow(m_hWnd)); return CWnd::FromHandle(::GetParent(m_hWnd)); }

  00000	55		 push	 ebp
  00001	8b ec		 mov	 ebp, esp
  00003	51		 push	 ecx
  00004	89 4d fc	 mov	 DWORD PTR _this$[ebp], ecx
  00007	8b 45 fc	 mov	 eax, DWORD PTR _this$[ebp]
  0000a	8b 48 20	 mov	 ecx, DWORD PTR [eax+32]
  0000d	51		 push	 ecx
  0000e	ff 15 00 00 00
	00		 call	 DWORD PTR __imp__GetParent@4
  00014	50		 push	 eax
  00015	e8 00 00 00 00	 call	 ?FromHandle@CWnd@@SGPAV1@PAUHWND__@@@Z ; CWnd::FromHandle
  0001a	8b e5		 mov	 esp, ebp
  0001c	5d		 pop	 ebp
  0001d	c3		 ret	 0
?GetParent@CWnd@@QBEPAV1@XZ ENDP			; CWnd::GetParent
_TEXT	ENDS
EXTRN	?Default@CWnd@@IAEJXZ:NEAR			; CWnd::Default
; Function compile flags: /Odt
;	COMDAT ?OnCreate@CWnd@@IAEHPAUtagCREATESTRUCTA@@@Z
_TEXT	SEGMENT
_this$ = -4						; size = 4
___formal$ = 8						; size = 4
?OnCreate@CWnd@@IAEHPAUtagCREATESTRUCTA@@@Z PROC NEAR	; CWnd::OnCreate, COMDAT
; _this$ = ecx

; 360  : 	{ return (int)Default(); }

  00000	55		 push	 ebp
  00001	8b ec		 mov	 ebp, esp
  00003	51		 push	 ecx
  00004	89 4d fc	 mov	 DWORD PTR _this$[ebp], ecx
  00007	8b 4d fc	 mov	 ecx, DWORD PTR _this$[ebp]
  0000a	e8 00 00 00 00	 call	 ?Default@CWnd@@IAEJXZ	; CWnd::Default
  0000f	8b e5		 mov	 esp, ebp
  00011	5d		 pop	 ebp
  00012	c2 04 00	 ret	 4
?OnCreate@CWnd@@IAEHPAUtagCREATESTRUCTA@@@Z ENDP	; CWnd::OnCreate
; Function compile flags: /Odt
_TEXT	ENDS
;	COMDAT ?OnShowWindow@CWnd@@IAEXHI@Z
_TEXT	SEGMENT
_this$ = -4						; size = 4
___formal$ = 8						; size = 4
___formal$ = 12						; size = 4
?OnShowWindow@CWnd@@IAEXHI@Z PROC NEAR			; CWnd::OnShowWindow, COMDAT
; _this$ = ecx

; 390  : 	{ Default(); }

  00000	55		 push	 ebp
  00001	8b ec		 mov	 ebp, esp
  00003	51		 push	 ecx
  00004	89 4d fc	 mov	 DWORD PTR _this$[ebp], ecx
  00007	8b 4d fc	 mov	 ecx, DWORD PTR _this$[ebp]
  0000a	e8 00 00 00 00	 call	 ?Default@CWnd@@IAEJXZ	; CWnd::Default
  0000f	8b e5		 mov	 esp, ebp
  00011	5d		 pop	 ebp
  00012	c2 08 00	 ret	 8
?OnShowWindow@CWnd@@IAEXHI@Z ENDP			; CWnd::OnShowWindow
; Function compile flags: /Odt
_TEXT	ENDS
;	COMDAT ?DoDataExchange@CWnd@@MAEXPAVCDataExchange@@@Z
_TEXT	SEGMENT
_this$ = -4						; size = 4
___formal$ = 8						; size = 4
?DoDataExchange@CWnd@@MAEXPAVCDataExchange@@@Z PROC NEAR ; CWnd::DoDataExchange, COMDAT
; _this$ = ecx

; 545  : 	{ } // default does nothing

  00000	55		 push	 ebp
  00001	8b ec		 mov	 ebp, esp
  00003	51		 push	 ecx
  00004	89 4d fc	 mov	 DWORD PTR _this$[ebp], ecx
  00007	8b e5		 mov	 esp, ebp
  00009	5d		 pop	 ebp
  0000a	c2 04 00	 ret	 4
?DoDataExchange@CWnd@@MAEXPAVCDataExchange@@@Z ENDP	; CWnd::DoDataExchange
_TEXT	ENDS
EXTRN	__imp__EnableWindow@8:NEAR
; Function compile flags: /Odt
;	COMDAT ?BeginModalState@CWnd@@UAEXXZ
_TEXT	SEGMENT
_this$ = -4						; size = 4
?BeginModalState@CWnd@@UAEXXZ PROC NEAR			; CWnd::BeginModalState, COMDAT
; _this$ = ecx

; 549  : 	{ ::EnableWindow(m_hWnd, FALSE); }

  00000	55		 push	 ebp
  00001	8b ec		 mov	 ebp, esp
  00003	51		 push	 ecx
  00004	89 4d fc	 mov	 DWORD PTR _this$[ebp], ecx
  00007	6a 00		 push	 0
  00009	8b 45 fc	 mov	 eax, DWORD PTR _this$[ebp]
  0000c	8b 48 20	 mov	 ecx, DWORD PTR [eax+32]
  0000f	51		 push	 ecx
  00010	ff 15 00 00 00
	00		 call	 DWORD PTR __imp__EnableWindow@8
  00016	8b e5		 mov	 esp, ebp
  00018	5d		 pop	 ebp
  00019	c3		 ret	 0
?BeginModalState@CWnd@@UAEXXZ ENDP			; CWnd::BeginModalState
; Function compile flags: /Odt
_TEXT	ENDS
;	COMDAT ?EndModalState@CWnd@@UAEXXZ
_TEXT	SEGMENT
_this$ = -4						; size = 4
?EndModalState@CWnd@@UAEXXZ PROC NEAR			; CWnd::EndModalState, COMDAT
; _this$ = ecx

; 551  : 	{ ::EnableWindow(m_hWnd, TRUE); }

  00000	55		 push	 ebp
  00001	8b ec		 mov	 ebp, esp
  00003	51		 push	 ecx
  00004	89 4d fc	 mov	 DWORD PTR _this$[ebp], ecx
  00007	6a 01		 push	 1
  00009	8b 45 fc	 mov	 eax, DWORD PTR _this$[ebp]
  0000c	8b 48 20	 mov	 ecx, DWORD PTR [eax+32]
  0000f	51		 push	 ecx
  00010	ff 15 00 00 00
	00		 call	 DWORD PTR __imp__EnableWindow@8
  00016	8b e5		 mov	 esp, ebp
  00018	5d		 pop	 ebp
  00019	c3		 ret	 0
?EndModalState@CWnd@@UAEXXZ ENDP			; CWnd::EndModalState
; Function compile flags: /Odt
; File d:\program files (x86)\microsoft visual studio .net 2003\vc7\atlmfc\include\atlalloc.h
_TEXT	ENDS
;	COMDAT ??0?$CAtlSafeAllocBufferManager@VCCRTAllocator@ATL@@@_ATL_SAFE_ALLOCA_IMPL@ATL@@QAE@XZ
_TEXT	SEGMENT
_this$ = -4						; size = 4
??0?$CAtlSafeAllocBufferManager@VCCRTAllocator@ATL@@@_ATL_SAFE_ALLOCA_IMPL@ATL@@QAE@XZ PROC NEAR ; ATL::_ATL_SAFE_ALLOCA_IMPL::CAtlSafeAllocBufferManager<ATL::CCRTAllocator>::CAtlSafeAllocBufferManager<ATL::CCRTAllocator>, COMDAT
; _this$ = ecx

; 373  : 	CAtlSafeAllocBufferManager() : m_pHead(NULL) {};

  00000	55		 push	 ebp
  00001	8b ec		 mov	 ebp, esp
  00003	51		 push	 ecx
  00004	89 4d fc	 mov	 DWORD PTR _this$[ebp], ecx
  00007	8b 45 fc	 mov	 eax, DWORD PTR _this$[ebp]
  0000a	c7 00 00 00 00
	00		 mov	 DWORD PTR [eax], 0
  00010	8b 45 fc	 mov	 eax, DWORD PTR _this$[ebp]
  00013	8b e5		 mov	 esp, ebp
  00015	5d		 pop	 ebp
  00016	c3		 ret	 0
??0?$CAtlSafeAllocBufferManager@VCCRTAllocator@ATL@@@_ATL_SAFE_ALLOCA_IMPL@ATL@@QAE@XZ ENDP ; ATL::_ATL_SAFE_ALLOCA_IMPL::CAtlSafeAllocBufferManager<ATL::CCRTAllocator>::CAtlSafeAllocBufferManager<ATL::CCRTAllocator>
_TEXT	ENDS
PUBLIC	?GetData@CAtlSafeAllocBufferNode@?$CAtlSafeAllocBufferManager@VCCRTAllocator@ATL@@@_ATL_SAFE_ALLOCA_IMPL@ATL@@QAEPAXXZ ; ATL::_ATL_SAFE_ALLOCA_IMPL::CAtlSafeAllocBufferManager<ATL::CCRTAllocator>::CAtlSafeAllocBufferNode::GetData
PUBLIC	?Allocate@CCRTAllocator@ATL@@SAPAXI@Z		; ATL::CCRTAllocator::Allocate
; Function compile flags: /Odt
;	COMDAT ?Allocate@?$CAtlSafeAllocBufferManager@VCCRTAllocator@ATL@@@_ATL_SAFE_ALLOCA_IMPL@ATL@@QAEPAXK@Z
_TEXT	SEGMENT
_this$ = -8						; size = 4
_p$ = -4						; size = 4
_nRequestedSize$ = 8					; size = 4
?Allocate@?$CAtlSafeAllocBufferManager@VCCRTAllocator@ATL@@@_ATL_SAFE_ALLOCA_IMPL@ATL@@QAEPAXK@Z PROC NEAR ; ATL::_ATL_SAFE_ALLOCA_IMPL::CAtlSafeAllocBufferManager<ATL::CCRTAllocator>::Allocate, COMDAT
; _this$ = ecx

; 375  : 	{

  00000	55		 push	 ebp
  00001	8b ec		 mov	 ebp, esp
  00003	83 ec 08	 sub	 esp, 8
  00006	89 4d f8	 mov	 DWORD PTR _this$[ebp], ecx

; 376  : 		CAtlSafeAllocBufferNode *p = (CAtlSafeAllocBufferNode*)Allocator::Allocate(nRequestedSize + sizeof(CAtlSafeAllocBufferNode));

  00009	8b 45 08	 mov	 eax, DWORD PTR _nRequestedSize$[ebp]
  0000c	83 c0 08	 add	 eax, 8
  0000f	50		 push	 eax
  00010	e8 00 00 00 00	 call	 ?Allocate@CCRTAllocator@ATL@@SAPAXI@Z ; ATL::CCRTAllocator::Allocate
  00015	83 c4 04	 add	 esp, 4
  00018	89 45 fc	 mov	 DWORD PTR _p$[ebp], eax

; 377  : 		if (p == NULL)

  0001b	83 7d fc 00	 cmp	 DWORD PTR _p$[ebp], 0
  0001f	75 04		 jne	 SHORT $L191833

; 378  : 			return NULL;

  00021	33 c0		 xor	 eax, eax
  00023	eb 1a		 jmp	 SHORT $L191820
$L191833:

; 379  : 		
; 380  : 		// Add buffer to the list
; 381  : 		p->m_pNext = m_pHead;

  00025	8b 4d fc	 mov	 ecx, DWORD PTR _p$[ebp]
  00028	8b 55 f8	 mov	 edx, DWORD PTR _this$[ebp]
  0002b	8b 02		 mov	 eax, DWORD PTR [edx]
  0002d	89 01		 mov	 DWORD PTR [ecx], eax

; 382  : 		m_pHead = p;

  0002f	8b 4d f8	 mov	 ecx, DWORD PTR _this$[ebp]
  00032	8b 55 fc	 mov	 edx, DWORD PTR _p$[ebp]
  00035	89 11		 mov	 DWORD PTR [ecx], edx

; 383  : 		
; 384  : 		return p->GetData();

  00037	8b 4d fc	 mov	 ecx, DWORD PTR _p$[ebp]
  0003a	e8 00 00 00 00	 call	 ?GetData@CAtlSafeAllocBufferNode@?$CAtlSafeAllocBufferManager@VCCRTAllocator@ATL@@@_ATL_SAFE_ALLOCA_IMPL@ATL@@QAEPAXXZ ; ATL::_ATL_SAFE_ALLOCA_IMPL::CAtlSafeAllocBufferManager<ATL::CCRTAllocator>::CAtlSafeAllocBufferNode::GetData
$L191820:

; 385  : 	}

  0003f	8b e5		 mov	 esp, ebp
  00041	5d		 pop	 ebp
  00042	c2 04 00	 ret	 4
?Allocate@?$CAtlSafeAllocBufferManager@VCCRTAllocator@ATL@@@_ATL_SAFE_ALLOCA_IMPL@ATL@@QAEPAXK@Z ENDP ; ATL::_ATL_SAFE_ALLOCA_IMPL::CAtlSafeAllocBufferManager<ATL::CCRTAllocator>::Allocate
_TEXT	ENDS
EXTRN	__imp__malloc:NEAR
; Function compile flags: /Odt
;	COMDAT ?Allocate@CCRTAllocator@ATL@@SAPAXI@Z
_TEXT	SEGMENT
_nBytes$ = 8						; size = 4
?Allocate@CCRTAllocator@ATL@@SAPAXI@Z PROC NEAR		; ATL::CCRTAllocator::Allocate, COMDAT

; 30   : 	{

  00000	55		 push	 ebp
  00001	8b ec		 mov	 ebp, esp

; 31   : 		return malloc(nBytes);

  00003	8b 45 08	 mov	 eax, DWORD PTR _nBytes$[ebp]
  00006	50		 push	 eax
  00007	ff 15 00 00 00
	00		 call	 DWORD PTR __imp__malloc
  0000d	83 c4 04	 add	 esp, 4

; 32   : 	}

  00010	5d		 pop	 ebp
  00011	c3		 ret	 0
?Allocate@CCRTAllocator@ATL@@SAPAXI@Z ENDP		; ATL::CCRTAllocator::Allocate
_TEXT	ENDS
PUBLIC	?Free@CCRTAllocator@ATL@@SAXPAX@Z		; ATL::CCRTAllocator::Free
; Function compile flags: /Odt
;	COMDAT ??1?$CAtlSafeAllocBufferManager@VCCRTAllocator@ATL@@@_ATL_SAFE_ALLOCA_IMPL@ATL@@QAE@XZ
_TEXT	SEGMENT
_this$ = -8						; size = 4
_p$191839 = -4						; size = 4
??1?$CAtlSafeAllocBufferManager@VCCRTAllocator@ATL@@@_ATL_SAFE_ALLOCA_IMPL@ATL@@QAE@XZ PROC NEAR ; ATL::_ATL_SAFE_ALLOCA_IMPL::CAtlSafeAllocBufferManager<ATL::CCRTAllocator>::~CAtlSafeAllocBufferManager<ATL::CCRTAllocator>, COMDAT
; _this$ = ecx

; 387  : 	{

  00000	55		 push	 ebp
  00001	8b ec		 mov	 ebp, esp
  00003	83 ec 08	 sub	 esp, 8
  00006	89 4d f8	 mov	 DWORD PTR _this$[ebp], ecx
$L191837:

; 388  : 		// Walk the list and free the buffers
; 389  : 		while (m_pHead != NULL)

  00009	8b 45 f8	 mov	 eax, DWORD PTR _this$[ebp]
  0000c	83 38 00	 cmp	 DWORD PTR [eax], 0
  0000f	74 22		 je	 SHORT $L191835

; 390  : 		{
; 391  : 			CAtlSafeAllocBufferNode* p = m_pHead;

  00011	8b 4d f8	 mov	 ecx, DWORD PTR _this$[ebp]
  00014	8b 11		 mov	 edx, DWORD PTR [ecx]
  00016	89 55 fc	 mov	 DWORD PTR _p$191839[ebp], edx

; 392  : 			m_pHead = m_pHead->m_pNext;

  00019	8b 45 f8	 mov	 eax, DWORD PTR _this$[ebp]
  0001c	8b 08		 mov	 ecx, DWORD PTR [eax]
  0001e	8b 55 f8	 mov	 edx, DWORD PTR _this$[ebp]
  00021	8b 01		 mov	 eax, DWORD PTR [ecx]
  00023	89 02		 mov	 DWORD PTR [edx], eax

; 393  : 			Allocator::Free(p);

  00025	8b 4d fc	 mov	 ecx, DWORD PTR _p$191839[ebp]
  00028	51		 push	 ecx
  00029	e8 00 00 00 00	 call	 ?Free@CCRTAllocator@ATL@@SAXPAX@Z ; ATL::CCRTAllocator::Free
  0002e	83 c4 04	 add	 esp, 4

; 394  : 		}

  00031	eb d6		 jmp	 SHORT $L191837
$L191835:

; 395  : 	}

  00033	8b e5		 mov	 esp, ebp
  00035	5d		 pop	 ebp
  00036	c3		 ret	 0
??1?$CAtlSafeAllocBufferManager@VCCRTAllocator@ATL@@@_ATL_SAFE_ALLOCA_IMPL@ATL@@QAE@XZ ENDP ; ATL::_ATL_SAFE_ALLOCA_IMPL::CAtlSafeAllocBufferManager<ATL::CCRTAllocator>::~CAtlSafeAllocBufferManager<ATL::CCRTAllocator>
_TEXT	ENDS
EXTRN	__imp__free:NEAR
; Function compile flags: /Odt
;	COMDAT ?Free@CCRTAllocator@ATL@@SAXPAX@Z
_TEXT	SEGMENT
_p$ = 8							; size = 4
?Free@CCRTAllocator@ATL@@SAXPAX@Z PROC NEAR		; ATL::CCRTAllocator::Free, COMDAT

; 35   : 	{

  00000	55		 push	 ebp
  00001	8b ec		 mov	 ebp, esp

; 36   : 		free(p);

  00003	8b 45 08	 mov	 eax, DWORD PTR _p$[ebp]
  00006	50		 push	 eax
  00007	ff 15 00 00 00
	00		 call	 DWORD PTR __imp__free
  0000d	83 c4 04	 add	 esp, 4

; 37   : 	}

  00010	5d		 pop	 ebp
  00011	c3		 ret	 0
?Free@CCRTAllocator@ATL@@SAXPAX@Z ENDP			; ATL::CCRTAllocator::Free
; Function compile flags: /Odt
_TEXT	ENDS
;	COMDAT ??0?$CTempBuffer@D$0IA@VCCRTAllocator@ATL@@@ATL@@QAE@XZ
_TEXT	SEGMENT
_this$ = -4						; size = 4
??0?$CTempBuffer@D$0IA@VCCRTAllocator@ATL@@@ATL@@QAE@XZ PROC NEAR ; ATL::CTempBuffer<char,128,ATL::CCRTAllocator>::CTempBuffer<char,128,ATL::CCRTAllocator>, COMDAT
; _this$ = ecx

; 216  : 	{

  00000	55		 push	 ebp
  00001	8b ec		 mov	 ebp, esp
  00003	51		 push	 ecx
  00004	89 4d fc	 mov	 DWORD PTR _this$[ebp], ecx
  00007	8b 45 fc	 mov	 eax, DWORD PTR _this$[ebp]
  0000a	c7 00 00 00 00
	00		 mov	 DWORD PTR [eax], 0

; 217  : 	}

  00010	8b 45 fc	 mov	 eax, DWORD PTR _this$[ebp]
  00013	8b e5		 mov	 esp, ebp
  00015	5d		 pop	 ebp
  00016	c3		 ret	 0
??0?$CTempBuffer@D$0IA@VCCRTAllocator@ATL@@@ATL@@QAE@XZ ENDP ; ATL::CTempBuffer<char,128,ATL::CCRTAllocator>::CTempBuffer<char,128,ATL::CCRTAllocator>
_TEXT	ENDS
PUBLIC	?FreeHeap@?$CTempBuffer@D$0IA@VCCRTAllocator@ATL@@@ATL@@AAEXXZ ; ATL::CTempBuffer<char,128,ATL::CCRTAllocator>::FreeHeap
; Function compile flags: /Odt
;	COMDAT ??1?$CTempBuffer@D$0IA@VCCRTAllocator@ATL@@@ATL@@QAE@XZ
_TEXT	SEGMENT
_this$ = -4						; size = 4
??1?$CTempBuffer@D$0IA@VCCRTAllocator@ATL@@@ATL@@QAE@XZ PROC NEAR ; ATL::CTempBuffer<char,128,ATL::CCRTAllocator>::~CTempBuffer<char,128,ATL::CCRTAllocator>, COMDAT
; _this$ = ecx

; 225  : 	{

  00000	55		 push	 ebp
  00001	8b ec		 mov	 ebp, esp
  00003	51		 push	 ecx
  00004	89 4d fc	 mov	 DWORD PTR _this$[ebp], ecx

; 226  : 		if( m_p != reinterpret_cast< T* >( m_abFixedBuffer ) )

  00007	8b 45 fc	 mov	 eax, DWORD PTR _this$[ebp]
  0000a	83 c0 04	 add	 eax, 4
  0000d	8b 4d fc	 mov	 ecx, DWORD PTR _this$[ebp]
  00010	39 01		 cmp	 DWORD PTR [ecx], eax
  00012	74 08		 je	 SHORT $L191843

; 227  : 		{
; 228  : 			FreeHeap();

  00014	8b 4d fc	 mov	 ecx, DWORD PTR _this$[ebp]
  00017	e8 00 00 00 00	 call	 ?FreeHeap@?$CTempBuffer@D$0IA@VCCRTAllocator@ATL@@@ATL@@AAEXXZ ; ATL::CTempBuffer<char,128,ATL::CCRTAllocator>::FreeHeap
$L191843:

; 229  : 		}
; 230  : 	}

  0001c	8b e5		 mov	 esp, ebp
  0001e	5d		 pop	 ebp
  0001f	c3		 ret	 0
??1?$CTempBuffer@D$0IA@VCCRTAllocator@ATL@@@ATL@@QAE@XZ ENDP ; ATL::CTempBuffer<char,128,ATL::CCRTAllocator>::~CTempBuffer<char,128,ATL::CCRTAllocator>
; Function compile flags: /Odt
_TEXT	ENDS
;	COMDAT ??B?$CTempBuffer@D$0IA@VCCRTAllocator@ATL@@@ATL@@QBEPADXZ
_TEXT	SEGMENT
_this$ = -4						; size = 4
??B?$CTempBuffer@D$0IA@VCCRTAllocator@ATL@@@ATL@@QBEPADXZ PROC NEAR ; ATL::CTempBuffer<char,128,ATL::CCRTAllocator>::operator char *, COMDAT
; _this$ = ecx

; 233  : 	{

  00000	55		 push	 ebp
  00001	8b ec		 mov	 ebp, esp
  00003	51		 push	 ecx
  00004	89 4d fc	 mov	 DWORD PTR _this$[ebp], ecx

; 234  : 		return( m_p );

  00007	8b 45 fc	 mov	 eax, DWORD PTR _this$[ebp]
  0000a	8b 00		 mov	 eax, DWORD PTR [eax]

; 235  : 	}

  0000c	8b e5		 mov	 esp, ebp
  0000e	5d		 pop	 ebp
  0000f	c3		 ret	 0
??B?$CTempBuffer@D$0IA@VCCRTAllocator@ATL@@@ATL@@QBEPADXZ ENDP ; ATL::CTempBuffer<char,128,ATL::CCRTAllocator>::operator char *
_TEXT	ENDS
PUBLIC	?AllocateBytes@?$CTempBuffer@D$0IA@VCCRTAllocator@ATL@@@ATL@@QAEPADI@Z ; ATL::CTempBuffer<char,128,ATL::CCRTAllocator>::AllocateBytes
; Function compile flags: /Odt
;	COMDAT ?Allocate@?$CTempBuffer@D$0IA@VCCRTAllocator@ATL@@@ATL@@QAEPADI@Z
_TEXT	SEGMENT
_this$ = -4						; size = 4
_nElements$ = 8						; size = 4
?Allocate@?$CTempBuffer@D$0IA@VCCRTAllocator@ATL@@@ATL@@QAEPADI@Z PROC NEAR ; ATL::CTempBuffer<char,128,ATL::CCRTAllocator>::Allocate, COMDAT
; _this$ = ecx

; 243  : 	{

  00000	55		 push	 ebp
  00001	8b ec		 mov	 ebp, esp
  00003	51		 push	 ecx
  00004	89 4d fc	 mov	 DWORD PTR _this$[ebp], ecx

; 244  : 		return( AllocateBytes( nElements*sizeof( T ) ) );

  00007	8b 45 08	 mov	 eax, DWORD PTR _nElements$[ebp]
  0000a	50		 push	 eax
  0000b	8b 4d fc	 mov	 ecx, DWORD PTR _this$[ebp]
  0000e	e8 00 00 00 00	 call	 ?AllocateBytes@?$CTempBuffer@D$0IA@VCCRTAllocator@ATL@@@ATL@@QAEPADI@Z ; ATL::CTempBuffer<char,128,ATL::CCRTAllocator>::AllocateBytes

; 245  : 	}

  00013	8b e5		 mov	 esp, ebp
  00015	5d		 pop	 ebp
  00016	c2 04 00	 ret	 4
?Allocate@?$CTempBuffer@D$0IA@VCCRTAllocator@ATL@@@ATL@@QAEPADI@Z ENDP ; ATL::CTempBuffer<char,128,ATL::CCRTAllocator>::Allocate
_TEXT	ENDS
PUBLIC	?Init@?$CW2AEX@$0IA@@ATL@@AAEXPB_WI@Z		; ATL::CW2AEX<128>::Init
; Function compile flags: /Odt
; File d:\program files (x86)\microsoft visual studio .net 2003\vc7\atlmfc\include\atlconv.h
;	COMDAT ??0?$CW2AEX@$0IA@@ATL@@QAE@PB_W@Z
_TEXT	SEGMENT
_this$ = -4						; size = 4
_psz$ = 8						; size = 4
??0?$CW2AEX@$0IA@@ATL@@QAE@PB_W@Z PROC NEAR		; ATL::CW2AEX<128>::CW2AEX<128>, COMDAT
; _this$ = ecx

; 419  : 	{

  00000	55		 push	 ebp
  00001	8b ec		 mov	 ebp, esp
  00003	51		 push	 ecx
  00004	89 4d fc	 mov	 DWORD PTR _this$[ebp], ecx
  00007	8b 45 fc	 mov	 eax, DWORD PTR _this$[ebp]
  0000a	83 c0 04	 add	 eax, 4
  0000d	8b 4d fc	 mov	 ecx, DWORD PTR _this$[ebp]
  00010	89 01		 mov	 DWORD PTR [ecx], eax

; 420  : 		Init( psz, _AtlGetConversionACP() );

  00012	e8 00 00 00 00	 call	 ?_AtlGetConversionACP@ATL@@YGIXZ ; ATL::_AtlGetConversionACP
  00017	50		 push	 eax
  00018	8b 55 08	 mov	 edx, DWORD PTR _psz$[ebp]
  0001b	52		 push	 edx
  0001c	8b 4d fc	 mov	 ecx, DWORD PTR _this$[ebp]
  0001f	e8 00 00 00 00	 call	 ?Init@?$CW2AEX@$0IA@@ATL@@AAEXPB_WI@Z ; ATL::CW2AEX<128>::Init

; 421  : 	}

  00024	8b 45 fc	 mov	 eax, DWORD PTR _this$[ebp]
  00027	8b e5		 mov	 esp, ebp
  00029	5d		 pop	 ebp
  0002a	c2 04 00	 ret	 4
??0?$CW2AEX@$0IA@@ATL@@QAE@PB_W@Z ENDP			; ATL::CW2AEX<128>::CW2AEX<128>
; Function compile flags: /Odt
_TEXT	ENDS
;	COMDAT ??1?$CW2AEX@$0IA@@ATL@@QAE@XZ
_TEXT	SEGMENT
_this$ = -4						; size = 4
??1?$CW2AEX@$0IA@@ATL@@QAE@XZ PROC NEAR			; ATL::CW2AEX<128>::~CW2AEX<128>, COMDAT
; _this$ = ecx

; 428  : 	{

  00000	55		 push	 ebp
  00001	8b ec		 mov	 ebp, esp
  00003	51		 push	 ecx
  00004	89 4d fc	 mov	 DWORD PTR _this$[ebp], ecx

; 429  : 		if( m_psz != m_szBuffer )

  00007	8b 45 fc	 mov	 eax, DWORD PTR _this$[ebp]
  0000a	83 c0 04	 add	 eax, 4
  0000d	8b 4d fc	 mov	 ecx, DWORD PTR _this$[ebp]
  00010	39 01		 cmp	 DWORD PTR [ecx], eax
  00012	74 0f		 je	 SHORT $L191854

; 430  : 		{
; 431  : 			free( m_psz );

  00014	8b 55 fc	 mov	 edx, DWORD PTR _this$[ebp]
  00017	8b 02		 mov	 eax, DWORD PTR [edx]
  00019	50		 push	 eax
  0001a	ff 15 00 00 00
	00		 call	 DWORD PTR __imp__free
  00020	83 c4 04	 add	 esp, 4
$L191854:

; 432  : 		}
; 433  : 	}

  00023	8b e5		 mov	 esp, ebp
  00025	5d		 pop	 ebp
  00026	c3		 ret	 0
??1?$CW2AEX@$0IA@@ATL@@QAE@XZ ENDP			; ATL::CW2AEX<128>::~CW2AEX<128>
; Function compile flags: /Odt
_TEXT	ENDS
;	COMDAT ??B?$CW2AEX@$0IA@@ATL@@QBEPADXZ
_TEXT	SEGMENT
_this$ = -4						; size = 4
??B?$CW2AEX@$0IA@@ATL@@QBEPADXZ PROC NEAR		; ATL::CW2AEX<128>::operator char *, COMDAT
; _this$ = ecx

; 436  : 	{

  00000	55		 push	 ebp
  00001	8b ec		 mov	 ebp, esp
  00003	51		 push	 ecx
  00004	89 4d fc	 mov	 DWORD PTR _this$[ebp], ecx

; 437  : 		return( m_psz );

  00007	8b 45 fc	 mov	 eax, DWORD PTR _this$[ebp]
  0000a	8b 00		 mov	 eax, DWORD PTR [eax]

; 438  : 	}

  0000c	8b e5		 mov	 esp, ebp
  0000e	5d		 pop	 ebp
  0000f	c3		 ret	 0
??B?$CW2AEX@$0IA@@ATL@@QBEPADXZ ENDP			; ATL::CW2AEX<128>::operator char *
_TEXT	ENDS
PUBLIC	?AllocateHeap@?$CTempBuffer@D$0IA@VCCRTAllocator@ATL@@@ATL@@AAEXI@Z ; ATL::CTempBuffer<char,128,ATL::CCRTAllocator>::AllocateHeap
; Function compile flags: /Odt
; File d:\program files (x86)\microsoft visual studio .net 2003\vc7\atlmfc\include\atlalloc.h
;	COMDAT ?AllocateBytes@?$CTempBuffer@D$0IA@VCCRTAllocator@ATL@@@ATL@@QAEPADI@Z
_TEXT	SEGMENT
_this$ = -4						; size = 4
_nBytes$ = 8						; size = 4
?AllocateBytes@?$CTempBuffer@D$0IA@VCCRTAllocator@ATL@@@ATL@@QAEPADI@Z PROC NEAR ; ATL::CTempBuffer<char,128,ATL::CCRTAllocator>::AllocateBytes, COMDAT
; _this$ = ecx

; 276  : 	{

  00000	55		 push	 ebp
  00001	8b ec		 mov	 ebp, esp
  00003	51		 push	 ecx
  00004	89 4d fc	 mov	 DWORD PTR _this$[ebp], ecx

; 277  : 		ATLASSERT( m_p == NULL );
; 278  : 		if( nBytes > t_nFixedBytes )

  00007	81 7d 08 80 00
	00 00		 cmp	 DWORD PTR _nBytes$[ebp], 128 ; 00000080H
  0000e	76 0e		 jbe	 SHORT $L193612

; 279  : 		{
; 280  : 			AllocateHeap( nBytes );

  00010	8b 45 08	 mov	 eax, DWORD PTR _nBytes$[ebp]
  00013	50		 push	 eax
  00014	8b 4d fc	 mov	 ecx, DWORD PTR _this$[ebp]
  00017	e8 00 00 00 00	 call	 ?AllocateHeap@?$CTempBuffer@D$0IA@VCCRTAllocator@ATL@@@ATL@@AAEXI@Z ; ATL::CTempBuffer<char,128,ATL::CCRTAllocator>::AllocateHeap

; 281  : 		}
; 282  : 		else

  0001c	eb 0b		 jmp	 SHORT $L193613
$L193612:

; 283  : 		{
; 284  : 			m_p = reinterpret_cast< T* >( m_abFixedBuffer );

  0001e	8b 4d fc	 mov	 ecx, DWORD PTR _this$[ebp]
  00021	83 c1 04	 add	 ecx, 4
  00024	8b 55 fc	 mov	 edx, DWORD PTR _this$[ebp]
  00027	89 0a		 mov	 DWORD PTR [edx], ecx
$L193613:

; 285  : 		}
; 286  : 
; 287  : 		return( m_p );

  00029	8b 45 fc	 mov	 eax, DWORD PTR _this$[ebp]
  0002c	8b 00		 mov	 eax, DWORD PTR [eax]

; 288  : 	}

  0002e	8b e5		 mov	 esp, ebp
  00030	5d		 pop	 ebp
  00031	c2 04 00	 ret	 4
?AllocateBytes@?$CTempBuffer@D$0IA@VCCRTAllocator@ATL@@@ATL@@QAEPADI@Z ENDP ; ATL::CTempBuffer<char,128,ATL::CCRTAllocator>::AllocateBytes
; Function compile flags: /Odt
_TEXT	ENDS
;	COMDAT ?FreeHeap@?$CTempBuffer@D$0IA@VCCRTAllocator@ATL@@@ATL@@AAEXXZ
_TEXT	SEGMENT
_this$ = -4						; size = 4
?FreeHeap@?$CTempBuffer@D$0IA@VCCRTAllocator@ATL@@@ATL@@AAEXXZ PROC NEAR ; ATL::CTempBuffer<char,128,ATL::CCRTAllocator>::FreeHeap, COMDAT
; _this$ = ecx

; 312  : 	{

  00000	55		 push	 ebp
  00001	8b ec		 mov	 ebp, esp
  00003	51		 push	 ecx
  00004	89 4d fc	 mov	 DWORD PTR _this$[ebp], ecx

; 313  : 		Allocator::Free( m_p );

  00007	8b 45 fc	 mov	 eax, DWORD PTR _this$[ebp]
  0000a	8b 08		 mov	 ecx, DWORD PTR [eax]
  0000c	51		 push	 ecx
  0000d	e8 00 00 00 00	 call	 ?Free@CCRTAllocator@ATL@@SAXPAX@Z ; ATL::CCRTAllocator::Free
  00012	83 c4 04	 add	 esp, 4

; 314  : 	}

  00015	8b e5		 mov	 esp, ebp
  00017	5d		 pop	 ebp
  00018	c3		 ret	 0
?FreeHeap@?$CTempBuffer@D$0IA@VCCRTAllocator@ATL@@@ATL@@AAEXXZ ENDP ; ATL::CTempBuffer<char,128,ATL::CCRTAllocator>::FreeHeap
_TEXT	ENDS
PUBLIC	?AtlThrowLastWin32@ATL@@YGXXZ			; ATL::AtlThrowLastWin32
; Function compile flags: /Odt
; File d:\program files (x86)\microsoft visual studio .net 2003\vc7\atlmfc\include\atlconv.h
;	COMDAT ?Init@?$CW2AEX@$0IA@@ATL@@AAEXPB_WI@Z
_TEXT	SEGMENT
_this$ = -12						; size = 4
_nLengthW$ = -8						; size = 4
_nLengthA$ = -4						; size = 4
_psz$ = 8						; size = 4
_nCodePage$ = 12					; size = 4
?Init@?$CW2AEX@$0IA@@ATL@@AAEXPB_WI@Z PROC NEAR		; ATL::CW2AEX<128>::Init, COMDAT
; _this$ = ecx

; 442  : 	{

  00000	55		 push	 ebp
  00001	8b ec		 mov	 ebp, esp
  00003	83 ec 0c	 sub	 esp, 12			; 0000000cH
  00006	89 4d f4	 mov	 DWORD PTR _this$[ebp], ecx

; 443  : 		if (psz == NULL)

  00009	83 7d 08 00	 cmp	 DWORD PTR _psz$[ebp], 0
  0000d	75 0b		 jne	 SHORT $L193619

; 444  : 		{
; 445  : 			m_psz = NULL;

  0000f	8b 45 f4	 mov	 eax, DWORD PTR _this$[ebp]
  00012	c7 00 00 00 00
	00		 mov	 DWORD PTR [eax], 0

; 446  : 			return;

  00018	eb 70		 jmp	 SHORT $L205959
$L193619:

; 447  : 		}
; 448  : 		int nLengthW = lstrlenW( psz )+1;

  0001a	8b 4d 08	 mov	 ecx, DWORD PTR _psz$[ebp]
  0001d	51		 push	 ecx
  0001e	ff 15 00 00 00
	00		 call	 DWORD PTR __imp__lstrlenW@4
  00024	83 c0 01	 add	 eax, 1
  00027	89 45 f8	 mov	 DWORD PTR _nLengthW$[ebp], eax

; 449  : 		int nLengthA = nLengthW*2;

  0002a	8b 55 f8	 mov	 edx, DWORD PTR _nLengthW$[ebp]
  0002d	d1 e2		 shl	 edx, 1
  0002f	89 55 fc	 mov	 DWORD PTR _nLengthA$[ebp], edx

; 450  : 
; 451  : 		if( nLengthA > t_nBufferLength )

  00032	81 7d fc 80 00
	00 00		 cmp	 DWORD PTR _nLengthA$[ebp], 128 ; 00000080H
  00039	7e 24		 jle	 SHORT $L193622

; 452  : 		{
; 453  : 			m_psz = static_cast< LPSTR >( malloc( nLengthA*sizeof( char ) ) );

  0003b	8b 45 fc	 mov	 eax, DWORD PTR _nLengthA$[ebp]
  0003e	50		 push	 eax
  0003f	ff 15 00 00 00
	00		 call	 DWORD PTR __imp__malloc
